
part1-test2.elf:     file format elf32-littlearm


Disassembly of section .text:

00008000 <_start>:
    8000:	e3a0d302 	mov	sp, #134217728	; 0x8000000
    8004:	e3a0b000 	mov	fp, #0
    8008:	eb0003fe 	bl	9008 <_cstart>
    800c:	eb000413 	bl	9060 <rpi_reboot>

00008010 <notmain>:
    8010:	e92d4070 	push	{r4, r5, r6, lr}
    8014:	e59f0064 	ldr	r0, [pc, #100]	; 8080 <notmain+0x70>
    8018:	eb000276 	bl	89f8 <printk>
    801c:	e3a00601 	mov	r0, #1048576	; 0x100000
    8020:	eb000504 	bl	9438 <kmalloc_init_set_start>
    8024:	e3a00601 	mov	r0, #1048576	; 0x100000
    8028:	eb000516 	bl	9488 <kmalloc>
    802c:	e3a01601 	mov	r1, #1048576	; 0x100000
    8030:	eb000109 	bl	845c <ck_init>
    8034:	e59f6048 	ldr	r6, [pc, #72]	; 8084 <notmain+0x74>
    8038:	e59f5048 	ldr	r5, [pc, #72]	; 8088 <notmain+0x78>
    803c:	e3a0300d 	mov	r3, #13
    8040:	e1a02006 	mov	r2, r6
    8044:	e1a01005 	mov	r1, r5
    8048:	e3a00004 	mov	r0, #4
    804c:	eb00014d 	bl	8588 <ckalloc>
    8050:	e1a04000 	mov	r4, r0
    8054:	e3a02004 	mov	r2, #4
    8058:	e3a01000 	mov	r1, #0
    805c:	eb00025f 	bl	89e0 <memset>
    8060:	e3a03001 	mov	r3, #1
    8064:	e5c43004 	strb	r3, [r4, #4]
    8068:	e3a03010 	mov	r3, #16
    806c:	e1a02006 	mov	r2, r6
    8070:	e1a01005 	mov	r1, r5
    8074:	e1a00004 	mov	r0, r4
    8078:	eb000114 	bl	84d0 <ckfree>
    807c:	e8bd8070 	pop	{r4, r5, r6, pc}
    8080:	000095d8 	ldrdeq	r9, [r0], -r8
    8084:	0000960c 	andeq	r9, r0, ip, lsl #12
    8088:	000095fc 	strdeq	r9, [r0], -ip

0000808c <b_rz1_ptr>:
    808c:	e2800038 	add	r0, r0, #56	; 0x38
    8090:	e12fff1e 	bx	lr

00008094 <b_alloc_ptr>:
    8094:	e92d4010 	push	{r4, lr}
    8098:	ebfffffb 	bl	808c <b_rz1_ptr>
    809c:	e2800080 	add	r0, r0, #128	; 0x80
    80a0:	e8bd8010 	pop	{r4, pc}

000080a4 <b_rz2_ptr>:
    80a4:	e92d4010 	push	{r4, lr}
    80a8:	e1a04000 	mov	r4, r0
    80ac:	ebfffff8 	bl	8094 <b_alloc_ptr>
    80b0:	e5943000 	ldr	r3, [r4]
    80b4:	e0800003 	add	r0, r0, r3
    80b8:	e8bd8010 	pop	{r4, pc}

000080bc <b_rz2_nbytes>:
    80bc:	e5900004 	ldr	r0, [r0, #4]
    80c0:	e2800080 	add	r0, r0, #128	; 0x80
    80c4:	e12fff1e 	bx	lr

000080c8 <b_addr_to_hdr>:
    80c8:	e24000b8 	sub	r0, r0, #184	; 0xb8
    80cc:	e12fff1e 	bx	lr

000080d0 <check_free_write>:
    80d0:	e92d41f0 	push	{r4, r5, r6, r7, r8, lr}
    80d4:	e1a05000 	mov	r5, r0
    80d8:	e1a06002 	mov	r6, r2
    80dc:	e3a04000 	mov	r4, #0
    80e0:	e1540001 	cmp	r4, r1
    80e4:	2a000033 	bcs	81b8 <check_free_write+0xe8>
    80e8:	e7d53004 	ldrb	r3, [r5, r4]
    80ec:	e35300fe 	cmp	r3, #254	; 0xfe
    80f0:	02844001 	addeq	r4, r4, #1
    80f4:	0afffff9 	beq	80e0 <check_free_write+0x10>
    80f8:	e1a00006 	mov	r0, r6
    80fc:	ebffffe4 	bl	8094 <b_alloc_ptr>
    8100:	e0450000 	sub	r0, r5, r0
    8104:	e0804004 	add	r4, r0, r4
    8108:	e59f70b0 	ldr	r7, [pc, #176]	; 81c0 <check_free_write+0xf0>
    810c:	e1a00007 	mov	r0, r7
    8110:	eb000238 	bl	89f8 <printk>
    8114:	e59f00a8 	ldr	r0, [pc, #168]	; 81c4 <check_free_write+0xf4>
    8118:	eb000236 	bl	89f8 <printk>
    811c:	e1a02004 	mov	r2, r4
    8120:	e1a01005 	mov	r1, r5
    8124:	e59f009c 	ldr	r0, [pc, #156]	; 81c8 <check_free_write+0xf8>
    8128:	eb000232 	bl	89f8 <printk>
    812c:	e1a00007 	mov	r0, r7
    8130:	eb000230 	bl	89f8 <printk>
    8134:	e5961000 	ldr	r1, [r6]
    8138:	e59f008c 	ldr	r0, [pc, #140]	; 81cc <check_free_write+0xfc>
    813c:	eb00022d 	bl	89f8 <printk>
    8140:	e5963010 	ldr	r3, [r6, #16]
    8144:	e3530000 	cmp	r3, #0
    8148:	0a000006 	beq	8168 <check_free_write+0x98>
    814c:	e1a00007 	mov	r0, r7
    8150:	eb000228 	bl	89f8 <printk>
    8154:	e5963018 	ldr	r3, [r6, #24]
    8158:	e5962014 	ldr	r2, [r6, #20]
    815c:	e5961010 	ldr	r1, [r6, #16]
    8160:	e59f0068 	ldr	r0, [pc, #104]	; 81d0 <check_free_write+0x100>
    8164:	eb000223 	bl	89f8 <printk>
    8168:	e5963008 	ldr	r3, [r6, #8]
    816c:	e353000c 	cmp	r3, #12
    8170:	0a000005 	beq	818c <check_free_write+0xbc>
    8174:	e59f0044 	ldr	r0, [pc, #68]	; 81c0 <check_free_write+0xf0>
    8178:	eb00021e 	bl	89f8 <printk>
    817c:	e59f0050 	ldr	r0, [pc, #80]	; 81d4 <check_free_write+0x104>
    8180:	eb00021c 	bl	89f8 <printk>
    8184:	e3a00000 	mov	r0, #0
    8188:	e8bd81f0 	pop	{r4, r5, r6, r7, r8, pc}
    818c:	e596301c 	ldr	r3, [r6, #28]
    8190:	e3530000 	cmp	r3, #0
    8194:	0afffff6 	beq	8174 <check_free_write+0xa4>
    8198:	e59f0020 	ldr	r0, [pc, #32]	; 81c0 <check_free_write+0xf0>
    819c:	eb000215 	bl	89f8 <printk>
    81a0:	e5963024 	ldr	r3, [r6, #36]	; 0x24
    81a4:	e5962020 	ldr	r2, [r6, #32]
    81a8:	e596101c 	ldr	r1, [r6, #28]
    81ac:	e59f0024 	ldr	r0, [pc, #36]	; 81d8 <check_free_write+0x108>
    81b0:	eb000210 	bl	89f8 <printk>
    81b4:	eaffffee 	b	8174 <check_free_write+0xa4>
    81b8:	e3a00001 	mov	r0, #1
    81bc:	e8bd81f0 	pop	{r4, r5, r6, r7, r8, pc}
    81c0:	00009614 	andeq	r9, r0, r4, lsl r6
    81c4:	0000961c 	andeq	r9, r0, ip, lsl r6
    81c8:	00009624 	andeq	r9, r0, r4, lsr #12
    81cc:	00009648 	andeq	r9, r0, r8, asr #12
    81d0:	00009654 	andeq	r9, r0, r4, asr r6
    81d4:	00009690 	muleq	r0, r0, r6
    81d8:	00009674 	andeq	r9, r0, r4, ror r6

000081dc <mark_mem>:
    81dc:	e92d4010 	push	{r4, lr}
    81e0:	e1a02001 	mov	r2, r1
    81e4:	e3a010fe 	mov	r1, #254	; 0xfe
    81e8:	eb0001fc 	bl	89e0 <memset>
    81ec:	e8bd8010 	pop	{r4, pc}

000081f0 <hdr_cksum>:
    81f0:	e92d4070 	push	{r4, r5, r6, lr}
    81f4:	e1a04000 	mov	r4, r0
    81f8:	e590500c 	ldr	r5, [r0, #12]
    81fc:	e3a03000 	mov	r3, #0
    8200:	e580300c 	str	r3, [r0, #12]
    8204:	e3a01038 	mov	r1, #56	; 0x38
    8208:	eb0001b9 	bl	88f4 <fast_hash>
    820c:	e584500c 	str	r5, [r4, #12]
    8210:	e8bd8070 	pop	{r4, r5, r6, pc}

00008214 <check_hdr>:
    8214:	e92d4070 	push	{r4, r5, r6, lr}
    8218:	e1a04000 	mov	r4, r0
    821c:	e5903008 	ldr	r3, [r0, #8]
    8220:	e243300b 	sub	r3, r3, #11
    8224:	e3530001 	cmp	r3, #1
    8228:	8a000003 	bhi	823c <check_hdr+0x28>
    822c:	e590500c 	ldr	r5, [r0, #12]
    8230:	ebffffee 	bl	81f0 <hdr_cksum>
    8234:	e1550000 	cmp	r5, r0
    8238:	0a000027 	beq	82dc <check_hdr+0xc8>
    823c:	e59f50a0 	ldr	r5, [pc, #160]	; 82e4 <check_hdr+0xd0>
    8240:	e1a00005 	mov	r0, r5
    8244:	eb0001eb 	bl	89f8 <printk>
    8248:	e59f0098 	ldr	r0, [pc, #152]	; 82e8 <check_hdr+0xd4>
    824c:	eb0001e9 	bl	89f8 <printk>
    8250:	e3a02000 	mov	r2, #0
    8254:	e1a01004 	mov	r1, r4
    8258:	e59f008c 	ldr	r0, [pc, #140]	; 82ec <check_hdr+0xd8>
    825c:	eb0001e5 	bl	89f8 <printk>
    8260:	e1a00005 	mov	r0, r5
    8264:	eb0001e3 	bl	89f8 <printk>
    8268:	e5941000 	ldr	r1, [r4]
    826c:	e59f007c 	ldr	r0, [pc, #124]	; 82f0 <check_hdr+0xdc>
    8270:	eb0001e0 	bl	89f8 <printk>
    8274:	e5943010 	ldr	r3, [r4, #16]
    8278:	e3530000 	cmp	r3, #0
    827c:	0a000006 	beq	829c <check_hdr+0x88>
    8280:	e1a00005 	mov	r0, r5
    8284:	eb0001db 	bl	89f8 <printk>
    8288:	e5943018 	ldr	r3, [r4, #24]
    828c:	e5942014 	ldr	r2, [r4, #20]
    8290:	e5941010 	ldr	r1, [r4, #16]
    8294:	e59f0058 	ldr	r0, [pc, #88]	; 82f4 <check_hdr+0xe0>
    8298:	eb0001d6 	bl	89f8 <printk>
    829c:	e5943008 	ldr	r3, [r4, #8]
    82a0:	e353000c 	cmp	r3, #12
    82a4:	0a000001 	beq	82b0 <check_hdr+0x9c>
    82a8:	e3a00000 	mov	r0, #0
    82ac:	e8bd8070 	pop	{r4, r5, r6, pc}
    82b0:	e594301c 	ldr	r3, [r4, #28]
    82b4:	e3530000 	cmp	r3, #0
    82b8:	0afffffa 	beq	82a8 <check_hdr+0x94>
    82bc:	e59f0020 	ldr	r0, [pc, #32]	; 82e4 <check_hdr+0xd0>
    82c0:	eb0001cc 	bl	89f8 <printk>
    82c4:	e5943024 	ldr	r3, [r4, #36]	; 0x24
    82c8:	e5942020 	ldr	r2, [r4, #32]
    82cc:	e594101c 	ldr	r1, [r4, #28]
    82d0:	e59f0020 	ldr	r0, [pc, #32]	; 82f8 <check_hdr+0xe4>
    82d4:	eb0001c7 	bl	89f8 <printk>
    82d8:	eafffff2 	b	82a8 <check_hdr+0x94>
    82dc:	e3a00001 	mov	r0, #1
    82e0:	e8bd8070 	pop	{r4, r5, r6, pc}
    82e4:	00009614 	andeq	r9, r0, r4, lsl r6
    82e8:	0000961c 	andeq	r9, r0, ip, lsl r6
    82ec:	00009624 	andeq	r9, r0, r4, lsr #12
    82f0:	00009648 	andeq	r9, r0, r8, asr #12
    82f4:	00009654 	andeq	r9, r0, r4, asr r6
    82f8:	00009674 	andeq	r9, r0, r4, ror r6

000082fc <check_mem>:
    82fc:	e92d41f0 	push	{r4, r5, r6, r7, r8, lr}
    8300:	e1a05000 	mov	r5, r0
    8304:	e1a06002 	mov	r6, r2
    8308:	e3a04000 	mov	r4, #0
    830c:	e1540001 	cmp	r4, r1
    8310:	2a000030 	bcs	83d8 <check_mem+0xdc>
    8314:	e7d53004 	ldrb	r3, [r5, r4]
    8318:	e35300fe 	cmp	r3, #254	; 0xfe
    831c:	02844001 	addeq	r4, r4, #1
    8320:	0afffff9 	beq	830c <check_mem+0x10>
    8324:	e1a00006 	mov	r0, r6
    8328:	ebffff59 	bl	8094 <b_alloc_ptr>
    832c:	e0450000 	sub	r0, r5, r0
    8330:	e0804004 	add	r4, r0, r4
    8334:	e59f70a4 	ldr	r7, [pc, #164]	; 83e0 <check_mem+0xe4>
    8338:	e1a00007 	mov	r0, r7
    833c:	eb0001ad 	bl	89f8 <printk>
    8340:	e59f009c 	ldr	r0, [pc, #156]	; 83e4 <check_mem+0xe8>
    8344:	eb0001ab 	bl	89f8 <printk>
    8348:	e5961000 	ldr	r1, [r6]
    834c:	e1a02004 	mov	r2, r4
    8350:	e0451001 	sub	r1, r5, r1
    8354:	e59f008c 	ldr	r0, [pc, #140]	; 83e8 <check_mem+0xec>
    8358:	eb0001a6 	bl	89f8 <printk>
    835c:	e1a00007 	mov	r0, r7
    8360:	eb0001a4 	bl	89f8 <printk>
    8364:	e5961000 	ldr	r1, [r6]
    8368:	e59f007c 	ldr	r0, [pc, #124]	; 83ec <check_mem+0xf0>
    836c:	eb0001a1 	bl	89f8 <printk>
    8370:	e5963010 	ldr	r3, [r6, #16]
    8374:	e3530000 	cmp	r3, #0
    8378:	0a000006 	beq	8398 <check_mem+0x9c>
    837c:	e1a00007 	mov	r0, r7
    8380:	eb00019c 	bl	89f8 <printk>
    8384:	e5963018 	ldr	r3, [r6, #24]
    8388:	e5962014 	ldr	r2, [r6, #20]
    838c:	e5961010 	ldr	r1, [r6, #16]
    8390:	e59f0058 	ldr	r0, [pc, #88]	; 83f0 <check_mem+0xf4>
    8394:	eb000197 	bl	89f8 <printk>
    8398:	e5963008 	ldr	r3, [r6, #8]
    839c:	e353000c 	cmp	r3, #12
    83a0:	0a000001 	beq	83ac <check_mem+0xb0>
    83a4:	e3a00000 	mov	r0, #0
    83a8:	e8bd81f0 	pop	{r4, r5, r6, r7, r8, pc}
    83ac:	e596301c 	ldr	r3, [r6, #28]
    83b0:	e3530000 	cmp	r3, #0
    83b4:	0afffffa 	beq	83a4 <check_mem+0xa8>
    83b8:	e59f0020 	ldr	r0, [pc, #32]	; 83e0 <check_mem+0xe4>
    83bc:	eb00018d 	bl	89f8 <printk>
    83c0:	e5963024 	ldr	r3, [r6, #36]	; 0x24
    83c4:	e5962020 	ldr	r2, [r6, #32]
    83c8:	e596101c 	ldr	r1, [r6, #28]
    83cc:	e59f0020 	ldr	r0, [pc, #32]	; 83f4 <check_mem+0xf8>
    83d0:	eb000188 	bl	89f8 <printk>
    83d4:	eafffff2 	b	83a4 <check_mem+0xa8>
    83d8:	e3a00001 	mov	r0, #1
    83dc:	e8bd81f0 	pop	{r4, r5, r6, r7, r8, pc}
    83e0:	00009614 	andeq	r9, r0, r4, lsl r6
    83e4:	0000961c 	andeq	r9, r0, ip, lsl r6
    83e8:	00009624 	andeq	r9, r0, r4, lsr #12
    83ec:	00009648 	andeq	r9, r0, r8, asr #12
    83f0:	00009654 	andeq	r9, r0, r4, asr r6
    83f4:	00009674 	andeq	r9, r0, r4, ror r6

000083f8 <check_block>:
    83f8:	e92d4070 	push	{r4, r5, r6, lr}
    83fc:	e1a04000 	mov	r4, r0
    8400:	ebffff83 	bl	8214 <check_hdr>
    8404:	e3500000 	cmp	r0, #0
    8408:	08bd8070 	popeq	{r4, r5, r6, pc}
    840c:	e1a00004 	mov	r0, r4
    8410:	ebffff1d 	bl	808c <b_rz1_ptr>
    8414:	e1a02004 	mov	r2, r4
    8418:	e3a01080 	mov	r1, #128	; 0x80
    841c:	ebffffb6 	bl	82fc <check_mem>
    8420:	e3500000 	cmp	r0, #0
    8424:	08bd8070 	popeq	{r4, r5, r6, pc}
    8428:	e1a00004 	mov	r0, r4
    842c:	ebffff1c 	bl	80a4 <b_rz2_ptr>
    8430:	e1a05000 	mov	r5, r0
    8434:	e1a00004 	mov	r0, r4
    8438:	ebffff1f 	bl	80bc <b_rz2_nbytes>
    843c:	e1a01000 	mov	r1, r0
    8440:	e1a02004 	mov	r2, r4
    8444:	e1a00005 	mov	r0, r5
    8448:	ebffffab 	bl	82fc <check_mem>
    844c:	e3500000 	cmp	r0, #0
    8450:	08bd8070 	popeq	{r4, r5, r6, pc}
    8454:	e3a00001 	mov	r0, #1
    8458:	e8bd8070 	pop	{r4, r5, r6, pc}

0000845c <ck_init>:
    845c:	e92d4070 	push	{r4, r5, r6, lr}
    8460:	e59f3054 	ldr	r3, [pc, #84]	; 84bc <ck_init+0x60>
    8464:	e5933000 	ldr	r3, [r3]
    8468:	e3130007 	tst	r3, #7
    846c:	1a00000b 	bne	84a0 <ck_init+0x44>
    8470:	e1a04000 	mov	r4, r0
    8474:	e1a05001 	mov	r5, r1
    8478:	e3a02080 	mov	r2, #128	; 0x80
    847c:	e3a01038 	mov	r1, #56	; 0x38
    8480:	e59f0038 	ldr	r0, [pc, #56]	; 84c0 <ck_init+0x64>
    8484:	eb00015b 	bl	89f8 <printk>
    8488:	e59f302c 	ldr	r3, [pc, #44]	; 84bc <ck_init+0x60>
    848c:	e5834000 	str	r4, [r3]
    8490:	e5834004 	str	r4, [r3, #4]
    8494:	e0844005 	add	r4, r4, r5
    8498:	e5834008 	str	r4, [r3, #8]
    849c:	e8bd8070 	pop	{r4, r5, r6, pc}
    84a0:	eb00016f 	bl	8a64 <rpi_reset_putc>
    84a4:	e3a0300a 	mov	r3, #10
    84a8:	e59f2014 	ldr	r2, [pc, #20]	; 84c4 <ck_init+0x68>
    84ac:	e59f1014 	ldr	r1, [pc, #20]	; 84c8 <ck_init+0x6c>
    84b0:	e59f0014 	ldr	r0, [pc, #20]	; 84cc <ck_init+0x70>
    84b4:	eb00014f 	bl	89f8 <printk>
    84b8:	eb0002c8 	bl	8fe0 <clean_reboot>
    84bc:	00009b50 	andeq	r9, r0, r0, asr fp
    84c0:	000096e0 	andeq	r9, r0, r0, ror #13
    84c4:	00009908 	andeq	r9, r0, r8, lsl #18
    84c8:	000096ac 	andeq	r9, r0, ip, lsr #13
    84cc:	000096b8 			; <UNDEFINED> instruction: 0x000096b8

000084d0 <ckfree>:
    84d0:	e92d41f0 	push	{r4, r5, r6, r7, r8, lr}
    84d4:	e1a05000 	mov	r5, r0
    84d8:	e1a07001 	mov	r7, r1
    84dc:	e1a06002 	mov	r6, r2
    84e0:	e1a08003 	mov	r8, r3
    84e4:	ebfffef7 	bl	80c8 <b_addr_to_hdr>
    84e8:	e59fc080 	ldr	ip, [pc, #128]	; 8570 <ckfree+0xa0>
    84ec:	e59cc004 	ldr	ip, [ip, #4]
    84f0:	e35c0000 	cmp	ip, #0
    84f4:	0a000016 	beq	8554 <ckfree+0x84>
    84f8:	e1a04000 	mov	r4, r0
    84fc:	e59f0070 	ldr	r0, [pc, #112]	; 8574 <ckfree+0xa4>
    8500:	eb00013c 	bl	89f8 <printk>
    8504:	e1a01005 	mov	r1, r5
    8508:	e59f0068 	ldr	r0, [pc, #104]	; 8578 <ckfree+0xa8>
    850c:	eb000139 	bl	89f8 <printk>
    8510:	e1a00004 	mov	r0, r4
    8514:	ebffffb7 	bl	83f8 <check_block>
    8518:	e3500000 	cmp	r0, #0
    851c:	08bd81f0 	popeq	{r4, r5, r6, r7, r8, pc}
    8520:	e584701c 	str	r7, [r4, #28]
    8524:	e5846020 	str	r6, [r4, #32]
    8528:	e5848024 	str	r8, [r4, #36]	; 0x24
    852c:	e3a0300c 	mov	r3, #12
    8530:	e5843008 	str	r3, [r4, #8]
    8534:	e1a00004 	mov	r0, r4
    8538:	ebfffed5 	bl	8094 <b_alloc_ptr>
    853c:	e5941000 	ldr	r1, [r4]
    8540:	ebffff25 	bl	81dc <mark_mem>
    8544:	e1a00004 	mov	r0, r4
    8548:	ebffff28 	bl	81f0 <hdr_cksum>
    854c:	e584000c 	str	r0, [r4, #12]
    8550:	e8bd81f0 	pop	{r4, r5, r6, r7, r8, pc}
    8554:	eb000142 	bl	8a64 <rpi_reset_putc>
    8558:	e3a03074 	mov	r3, #116	; 0x74
    855c:	e59f2018 	ldr	r2, [pc, #24]	; 857c <ckfree+0xac>
    8560:	e59f1018 	ldr	r1, [pc, #24]	; 8580 <ckfree+0xb0>
    8564:	e59f0018 	ldr	r0, [pc, #24]	; 8584 <ckfree+0xb4>
    8568:	eb000122 	bl	89f8 <printk>
    856c:	eb00029b 	bl	8fe0 <clean_reboot>
    8570:	00009b50 	andeq	r9, r0, r0, asr fp
    8574:	00009614 	andeq	r9, r0, r4, lsl r6
    8578:	00009730 	andeq	r9, r0, r0, lsr r7
    857c:	00009910 	andeq	r9, r0, r0, lsl r9
    8580:	000096ac 	andeq	r9, r0, ip, lsr #13
    8584:	000096fc 	strdeq	r9, [r0], -ip

00008588 <ckalloc>:
    8588:	e92d43f0 	push	{r4, r5, r6, r7, r8, r9, lr}
    858c:	e24dd00c 	sub	sp, sp, #12
    8590:	e1a06003 	mov	r6, r3
    8594:	e59f31d4 	ldr	r3, [pc, #468]	; 8770 <ckalloc+0x1e8>
    8598:	e5933004 	ldr	r3, [r3, #4]
    859c:	e3530000 	cmp	r3, #0
    85a0:	0a000042 	beq	86b0 <ckalloc+0x128>
    85a4:	e1a05000 	mov	r5, r0
    85a8:	e1a08001 	mov	r8, r1
    85ac:	e1a07002 	mov	r7, r2
    85b0:	e59f01bc 	ldr	r0, [pc, #444]	; 8774 <ckalloc+0x1ec>
    85b4:	eb00010f 	bl	89f8 <printk>
    85b8:	e1a01005 	mov	r1, r5
    85bc:	e59f01b4 	ldr	r0, [pc, #436]	; 8778 <ckalloc+0x1f0>
    85c0:	eb00010c 	bl	89f8 <printk>
    85c4:	e2850007 	add	r0, r5, #7
    85c8:	e3c00007 	bic	r0, r0, #7
    85cc:	e2809f4e 	add	r9, r0, #312	; 0x138
    85d0:	e1550009 	cmp	r5, r9
    85d4:	8a00003c 	bhi	86cc <ckalloc+0x144>
    85d8:	e59f3190 	ldr	r3, [pc, #400]	; 8770 <ckalloc+0x1e8>
    85dc:	e5934004 	ldr	r4, [r3, #4]
    85e0:	e0842009 	add	r2, r4, r9
    85e4:	e5933008 	ldr	r3, [r3, #8]
    85e8:	e1520003 	cmp	r2, r3
    85ec:	2a000043 	bcs	8700 <ckalloc+0x178>
    85f0:	e5845000 	str	r5, [r4]
    85f4:	e0400005 	sub	r0, r0, r5
    85f8:	e5840004 	str	r0, [r4, #4]
    85fc:	e3a0300b 	mov	r3, #11
    8600:	e5843008 	str	r3, [r4, #8]
    8604:	e5848010 	str	r8, [r4, #16]
    8608:	e5847014 	str	r7, [r4, #20]
    860c:	e5846018 	str	r6, [r4, #24]
    8610:	e3a03001 	mov	r3, #1
    8614:	e5843028 	str	r3, [r4, #40]	; 0x28
    8618:	e3a03000 	mov	r3, #0
    861c:	e584302c 	str	r3, [r4, #44]	; 0x2c
    8620:	e1a00004 	mov	r0, r4
    8624:	ebfffe98 	bl	808c <b_rz1_ptr>
    8628:	e3a01080 	mov	r1, #128	; 0x80
    862c:	ebfffeea 	bl	81dc <mark_mem>
    8630:	e1a00004 	mov	r0, r4
    8634:	ebfffe9a 	bl	80a4 <b_rz2_ptr>
    8638:	e1a06000 	mov	r6, r0
    863c:	e1a00004 	mov	r0, r4
    8640:	ebfffe9d 	bl	80bc <b_rz2_nbytes>
    8644:	e1a01000 	mov	r1, r0
    8648:	e1a00006 	mov	r0, r6
    864c:	ebfffee2 	bl	81dc <mark_mem>
    8650:	e1a00004 	mov	r0, r4
    8654:	ebfffee5 	bl	81f0 <hdr_cksum>
    8658:	e584000c 	str	r0, [r4, #12]
    865c:	e59f210c 	ldr	r2, [pc, #268]	; 8770 <ckalloc+0x1e8>
    8660:	e5923004 	ldr	r3, [r2, #4]
    8664:	e0833009 	add	r3, r3, r9
    8668:	e5823004 	str	r3, [r2, #4]
    866c:	e1a00004 	mov	r0, r4
    8670:	ebffff60 	bl	83f8 <check_block>
    8674:	e3500000 	cmp	r0, #0
    8678:	0a000035 	beq	8754 <ckalloc+0x1cc>
    867c:	e1a00004 	mov	r0, r4
    8680:	ebfffe83 	bl	8094 <b_alloc_ptr>
    8684:	e1a04000 	mov	r4, r0
    8688:	e59f00e4 	ldr	r0, [pc, #228]	; 8774 <ckalloc+0x1ec>
    868c:	eb0000d9 	bl	89f8 <printk>
    8690:	e1a03004 	mov	r3, r4
    8694:	e1a02009 	mov	r2, r9
    8698:	e1a01005 	mov	r1, r5
    869c:	e59f00d8 	ldr	r0, [pc, #216]	; 877c <ckalloc+0x1f4>
    86a0:	eb0000d4 	bl	89f8 <printk>
    86a4:	e1a00004 	mov	r0, r4
    86a8:	e28dd00c 	add	sp, sp, #12
    86ac:	e8bd83f0 	pop	{r4, r5, r6, r7, r8, r9, pc}
    86b0:	eb0000eb 	bl	8a64 <rpi_reset_putc>
    86b4:	e3a03087 	mov	r3, #135	; 0x87
    86b8:	e59f20c0 	ldr	r2, [pc, #192]	; 8780 <ckalloc+0x1f8>
    86bc:	e59f10c0 	ldr	r1, [pc, #192]	; 8784 <ckalloc+0x1fc>
    86c0:	e59f00c0 	ldr	r0, [pc, #192]	; 8788 <ckalloc+0x200>
    86c4:	eb0000cb 	bl	89f8 <printk>
    86c8:	eb000244 	bl	8fe0 <clean_reboot>
    86cc:	e59f00b8 	ldr	r0, [pc, #184]	; 878c <ckalloc+0x204>
    86d0:	eb0000c8 	bl	89f8 <printk>
    86d4:	e1a01005 	mov	r1, r5
    86d8:	e59f00b0 	ldr	r0, [pc, #176]	; 8790 <ckalloc+0x208>
    86dc:	eb0000c5 	bl	89f8 <printk>
    86e0:	eb0000df 	bl	8a64 <rpi_reset_putc>
    86e4:	e58d5000 	str	r5, [sp]
    86e8:	e3a0308f 	mov	r3, #143	; 0x8f
    86ec:	e59f208c 	ldr	r2, [pc, #140]	; 8780 <ckalloc+0x1f8>
    86f0:	e59f108c 	ldr	r1, [pc, #140]	; 8784 <ckalloc+0x1fc>
    86f4:	e59f0098 	ldr	r0, [pc, #152]	; 8794 <ckalloc+0x20c>
    86f8:	eb0000be 	bl	89f8 <printk>
    86fc:	eb000237 	bl	8fe0 <clean_reboot>
    8700:	e59f0084 	ldr	r0, [pc, #132]	; 878c <ckalloc+0x204>
    8704:	eb0000bb 	bl	89f8 <printk>
    8708:	e59f4060 	ldr	r4, [pc, #96]	; 8770 <ckalloc+0x1e8>
    870c:	e5941008 	ldr	r1, [r4, #8]
    8710:	e5943004 	ldr	r3, [r4, #4]
    8714:	e1a02009 	mov	r2, r9
    8718:	e0411003 	sub	r1, r1, r3
    871c:	e59f0074 	ldr	r0, [pc, #116]	; 8798 <ckalloc+0x210>
    8720:	eb0000b4 	bl	89f8 <printk>
    8724:	eb0000ce 	bl	8a64 <rpi_reset_putc>
    8728:	e58d9004 	str	r9, [sp, #4]
    872c:	e5943008 	ldr	r3, [r4, #8]
    8730:	e5942004 	ldr	r2, [r4, #4]
    8734:	e0433002 	sub	r3, r3, r2
    8738:	e58d3000 	str	r3, [sp]
    873c:	e3a03092 	mov	r3, #146	; 0x92
    8740:	e59f2038 	ldr	r2, [pc, #56]	; 8780 <ckalloc+0x1f8>
    8744:	e59f1038 	ldr	r1, [pc, #56]	; 8784 <ckalloc+0x1fc>
    8748:	e59f004c 	ldr	r0, [pc, #76]	; 879c <ckalloc+0x214>
    874c:	eb0000a9 	bl	89f8 <printk>
    8750:	eb000222 	bl	8fe0 <clean_reboot>
    8754:	eb0000c2 	bl	8a64 <rpi_reset_putc>
    8758:	e3a030a1 	mov	r3, #161	; 0xa1
    875c:	e59f201c 	ldr	r2, [pc, #28]	; 8780 <ckalloc+0x1f8>
    8760:	e59f101c 	ldr	r1, [pc, #28]	; 8784 <ckalloc+0x1fc>
    8764:	e59f0034 	ldr	r0, [pc, #52]	; 87a0 <ckalloc+0x218>
    8768:	eb0000a2 	bl	89f8 <printk>
    876c:	eb00021b 	bl	8fe0 <clean_reboot>
    8770:	00009b50 	andeq	r9, r0, r0, asr fp
    8774:	00009614 	andeq	r9, r0, r4, lsl r6
    8778:	0000973c 	andeq	r9, r0, ip, lsr r7
    877c:	00009848 	andeq	r9, r0, r8, asr #16
    8780:	00009918 	andeq	r9, r0, r8, lsl r9
    8784:	000096ac 	andeq	r9, r0, ip, lsr #13
    8788:	000096fc 	strdeq	r9, [r0], -ip
    878c:	00009754 	andeq	r9, r0, r4, asr r7
    8790:	00009760 	andeq	r9, r0, r0, ror #14
    8794:	00009788 	andeq	r9, r0, r8, lsl #15
    8798:	000097c0 	andeq	r9, r0, r0, asr #15
    879c:	000097ec 	andeq	r9, r0, ip, ror #15
    87a0:	00009828 	andeq	r9, r0, r8, lsr #16

000087a4 <ck_heap_errors>:
    87a4:	e92d41f0 	push	{r4, r5, r6, r7, r8, lr}
    87a8:	e59f4130 	ldr	r4, [pc, #304]	; 88e0 <ck_heap_errors+0x13c>
    87ac:	e5943004 	ldr	r3, [r4, #4]
    87b0:	e5945000 	ldr	r5, [r4]
    87b4:	e0435005 	sub	r5, r3, r5
    87b8:	e5946008 	ldr	r6, [r4, #8]
    87bc:	e0466003 	sub	r6, r6, r3
    87c0:	e59f011c 	ldr	r0, [pc, #284]	; 88e4 <ck_heap_errors+0x140>
    87c4:	eb00008b 	bl	89f8 <printk>
    87c8:	e1a02006 	mov	r2, r6
    87cc:	e1a01005 	mov	r1, r5
    87d0:	e59f0110 	ldr	r0, [pc, #272]	; 88e8 <ck_heap_errors+0x144>
    87d4:	eb000087 	bl	89f8 <printk>
    87d8:	e5944000 	ldr	r4, [r4]
    87dc:	e3a05000 	mov	r5, #0
    87e0:	e1a06005 	mov	r6, r5
    87e4:	ea000012 	b	8834 <ck_heap_errors+0x90>
    87e8:	e2866001 	add	r6, r6, #1
    87ec:	e2855001 	add	r5, r5, #1
    87f0:	e3560000 	cmp	r6, #0
    87f4:	0a000033 	beq	88c8 <ck_heap_errors+0x124>
    87f8:	e59f00e4 	ldr	r0, [pc, #228]	; 88e4 <ck_heap_errors+0x140>
    87fc:	eb00007d 	bl	89f8 <printk>
    8800:	e1a02006 	mov	r2, r6
    8804:	e1a01005 	mov	r1, r5
    8808:	e59f00dc 	ldr	r0, [pc, #220]	; 88ec <ck_heap_errors+0x148>
    880c:	eb000079 	bl	89f8 <printk>
    8810:	e1a00006 	mov	r0, r6
    8814:	e8bd81f0 	pop	{r4, r5, r6, r7, r8, pc}
    8818:	e2866001 	add	r6, r6, #1
    881c:	e2855001 	add	r5, r5, #1
    8820:	e5943000 	ldr	r3, [r4]
    8824:	e5942004 	ldr	r2, [r4, #4]
    8828:	e0833002 	add	r3, r3, r2
    882c:	e2833f4e 	add	r3, r3, #312	; 0x138
    8830:	e0844003 	add	r4, r4, r3
    8834:	e59f30a4 	ldr	r3, [pc, #164]	; 88e0 <ck_heap_errors+0x13c>
    8838:	e5933004 	ldr	r3, [r3, #4]
    883c:	e1530004 	cmp	r3, r4
    8840:	9affffea 	bls	87f0 <ck_heap_errors+0x4c>
    8844:	e1a00004 	mov	r0, r4
    8848:	ebfffe71 	bl	8214 <check_hdr>
    884c:	e3500000 	cmp	r0, #0
    8850:	0affffe4 	beq	87e8 <ck_heap_errors+0x44>
    8854:	e1a00004 	mov	r0, r4
    8858:	ebfffe0b 	bl	808c <b_rz1_ptr>
    885c:	e1a02004 	mov	r2, r4
    8860:	e3a01080 	mov	r1, #128	; 0x80
    8864:	ebfffea4 	bl	82fc <check_mem>
    8868:	e3500000 	cmp	r0, #0
    886c:	0affffe9 	beq	8818 <ck_heap_errors+0x74>
    8870:	e1a00004 	mov	r0, r4
    8874:	ebfffe0a 	bl	80a4 <b_rz2_ptr>
    8878:	e1a07000 	mov	r7, r0
    887c:	e1a00004 	mov	r0, r4
    8880:	ebfffe0d 	bl	80bc <b_rz2_nbytes>
    8884:	e1a01000 	mov	r1, r0
    8888:	e1a02004 	mov	r2, r4
    888c:	e1a00007 	mov	r0, r7
    8890:	ebfffe99 	bl	82fc <check_mem>
    8894:	e3500000 	cmp	r0, #0
    8898:	0affffde 	beq	8818 <ck_heap_errors+0x74>
    889c:	e5943008 	ldr	r3, [r4, #8]
    88a0:	e353000c 	cmp	r3, #12
    88a4:	1affffdc 	bne	881c <ck_heap_errors+0x78>
    88a8:	e1a00004 	mov	r0, r4
    88ac:	ebfffdf8 	bl	8094 <b_alloc_ptr>
    88b0:	e1a02004 	mov	r2, r4
    88b4:	e5941000 	ldr	r1, [r4]
    88b8:	ebfffe04 	bl	80d0 <check_free_write>
    88bc:	e3500000 	cmp	r0, #0
    88c0:	02866001 	addeq	r6, r6, #1
    88c4:	eaffffd4 	b	881c <ck_heap_errors+0x78>
    88c8:	e59f0014 	ldr	r0, [pc, #20]	; 88e4 <ck_heap_errors+0x140>
    88cc:	eb000049 	bl	89f8 <printk>
    88d0:	e1a01005 	mov	r1, r5
    88d4:	e59f0014 	ldr	r0, [pc, #20]	; 88f0 <ck_heap_errors+0x14c>
    88d8:	eb000046 	bl	89f8 <printk>
    88dc:	eaffffcb 	b	8810 <ck_heap_errors+0x6c>
    88e0:	00009b50 	andeq	r9, r0, r0, asr fp
    88e4:	00009614 	andeq	r9, r0, r4, lsl r6
    88e8:	00009878 	andeq	r9, r0, r8, ror r8
    88ec:	000098b0 			; <UNDEFINED> instruction: 0x000098b0
    88f0:	000098d8 	ldrdeq	r9, [r0], -r8

000088f4 <fast_hash>:
    88f4:	e3500000 	cmp	r0, #0
    88f8:	13510000 	cmpne	r1, #0
    88fc:	da000035 	ble	89d8 <fast_hash+0xe4>
    8900:	e52de004 	push	{lr}		; (str lr, [sp, #-4]!)
    8904:	e1a03001 	mov	r3, r1
    8908:	e1a0c000 	mov	ip, r0
    890c:	e201e003 	and	lr, r1, #3
    8910:	e1a01141 	asr	r1, r1, #2
    8914:	e3510000 	cmp	r1, #0
    8918:	da00000c 	ble	8950 <fast_hash+0x5c>
    891c:	e5dc0001 	ldrb	r0, [ip, #1]
    8920:	e5dc2000 	ldrb	r2, [ip]
    8924:	e0822400 	add	r2, r2, r0, lsl #8
    8928:	e0822003 	add	r2, r2, r3
    892c:	e5dc0003 	ldrb	r0, [ip, #3]
    8930:	e5dc3002 	ldrb	r3, [ip, #2]
    8934:	e0833400 	add	r3, r3, r0, lsl #8
    8938:	e0223583 	eor	r3, r2, r3, lsl #11
    893c:	e0233802 	eor	r3, r3, r2, lsl #16
    8940:	e28cc004 	add	ip, ip, #4
    8944:	e08335a3 	add	r3, r3, r3, lsr #11
    8948:	e2411001 	sub	r1, r1, #1
    894c:	eafffff0 	b	8914 <fast_hash+0x20>
    8950:	e35e0002 	cmp	lr, #2
    8954:	0a000013 	beq	89a8 <fast_hash+0xb4>
    8958:	e35e0003 	cmp	lr, #3
    895c:	0a000008 	beq	8984 <fast_hash+0x90>
    8960:	e35e0001 	cmp	lr, #1
    8964:	0a000016 	beq	89c4 <fast_hash+0xd0>
    8968:	e0230183 	eor	r0, r3, r3, lsl #3
    896c:	e08002a0 	add	r0, r0, r0, lsr #5
    8970:	e0200200 	eor	r0, r0, r0, lsl #4
    8974:	e08008a0 	add	r0, r0, r0, lsr #17
    8978:	e0200c80 	eor	r0, r0, r0, lsl #25
    897c:	e0800320 	add	r0, r0, r0, lsr #6
    8980:	e49df004 	pop	{pc}		; (ldr pc, [sp], #4)
    8984:	e5dc1001 	ldrb	r1, [ip, #1]
    8988:	e5dc2000 	ldrb	r2, [ip]
    898c:	e0822401 	add	r2, r2, r1, lsl #8
    8990:	e0823003 	add	r3, r2, r3
    8994:	e0233803 	eor	r3, r3, r3, lsl #16
    8998:	e1dc20d2 	ldrsb	r2, [ip, #2]
    899c:	e0233902 	eor	r3, r3, r2, lsl #18
    89a0:	e08335a3 	add	r3, r3, r3, lsr #11
    89a4:	eaffffef 	b	8968 <fast_hash+0x74>
    89a8:	e5dc1001 	ldrb	r1, [ip, #1]
    89ac:	e5dc2000 	ldrb	r2, [ip]
    89b0:	e0822401 	add	r2, r2, r1, lsl #8
    89b4:	e0823003 	add	r3, r2, r3
    89b8:	e0233583 	eor	r3, r3, r3, lsl #11
    89bc:	e08338a3 	add	r3, r3, r3, lsr #17
    89c0:	eaffffe8 	b	8968 <fast_hash+0x74>
    89c4:	e1dc20d0 	ldrsb	r2, [ip]
    89c8:	e0823003 	add	r3, r2, r3
    89cc:	e0233503 	eor	r3, r3, r3, lsl #10
    89d0:	e08330a3 	add	r3, r3, r3, lsr #1
    89d4:	eaffffe3 	b	8968 <fast_hash+0x74>
    89d8:	e3a00000 	mov	r0, #0
    89dc:	e12fff1e 	bx	lr

000089e0 <memset>:
    89e0:	e0802002 	add	r2, r0, r2
    89e4:	e1a03000 	mov	r3, r0
    89e8:	e1530002 	cmp	r3, r2
    89ec:	212fff1e 	bxcs	lr
    89f0:	e4c31001 	strb	r1, [r3], #1
    89f4:	eafffffb 	b	89e8 <memset+0x8>

000089f8 <printk>:
    89f8:	e92d000f 	push	{r0, r1, r2, r3}
    89fc:	e92d4030 	push	{r4, r5, lr}
    8a00:	e24dd00c 	sub	sp, sp, #12
    8a04:	e28d301c 	add	r3, sp, #28
    8a08:	e58d3004 	str	r3, [sp, #4]
    8a0c:	e59f5034 	ldr	r5, [pc, #52]	; 8a48 <printk+0x50>
    8a10:	e59d2018 	ldr	r2, [sp, #24]
    8a14:	e3a01b01 	mov	r1, #1024	; 0x400
    8a18:	e1a00005 	mov	r0, r5
    8a1c:	eb0000c3 	bl	8d30 <va_printk>
    8a20:	e1a04000 	mov	r4, r0
    8a24:	e59f3020 	ldr	r3, [pc, #32]	; 8a4c <printk+0x54>
    8a28:	e5933000 	ldr	r3, [r3]
    8a2c:	e1a00005 	mov	r0, r5
    8a30:	e12fff33 	blx	r3
    8a34:	e1a00004 	mov	r0, r4
    8a38:	e28dd00c 	add	sp, sp, #12
    8a3c:	e8bd4030 	pop	{r4, r5, lr}
    8a40:	e28dd010 	add	sp, sp, #16
    8a44:	e12fff1e 	bx	lr
    8a48:	00009b5c 	andeq	r9, r0, ip, asr fp
    8a4c:	000095cc 	andeq	r9, r0, ip, asr #11

00008a50 <internal_putchar>:
    8a50:	e92d4010 	push	{r4, lr}
    8a54:	e1a04000 	mov	r4, r0
    8a58:	eb000217 	bl	92bc <uart_putc>
    8a5c:	e1a00004 	mov	r0, r4
    8a60:	e8bd8010 	pop	{r4, pc}

00008a64 <rpi_reset_putc>:
    8a64:	e59f3008 	ldr	r3, [pc, #8]	; 8a74 <rpi_reset_putc+0x10>
    8a68:	e59f2008 	ldr	r2, [pc, #8]	; 8a78 <rpi_reset_putc+0x14>
    8a6c:	e5832000 	str	r2, [r3]
    8a70:	e12fff1e 	bx	lr
    8a74:	000095c8 	andeq	r9, r0, r8, asr #11
    8a78:	00008a50 	andeq	r8, r0, r0, asr sl

00008a7c <rpi_set_putc>:
    8a7c:	e59f3004 	ldr	r3, [pc, #4]	; 8a88 <rpi_set_putc+0xc>
    8a80:	e5830000 	str	r0, [r3]
    8a84:	e12fff1e 	bx	lr
    8a88:	000095c8 	andeq	r9, r0, r8, asr #11

00008a8c <internal_putk>:
    8a8c:	e92d4010 	push	{r4, lr}
    8a90:	e1a04000 	mov	r4, r0
    8a94:	e5d40000 	ldrb	r0, [r4]
    8a98:	e3500000 	cmp	r0, #0
    8a9c:	0a000004 	beq	8ab4 <internal_putk+0x28>
    8aa0:	e59f3014 	ldr	r3, [pc, #20]	; 8abc <internal_putk+0x30>
    8aa4:	e5933000 	ldr	r3, [r3]
    8aa8:	e12fff33 	blx	r3
    8aac:	e2844001 	add	r4, r4, #1
    8ab0:	eafffff7 	b	8a94 <internal_putk+0x8>
    8ab4:	e3a00001 	mov	r0, #1
    8ab8:	e8bd8010 	pop	{r4, pc}
    8abc:	000095c8 	andeq	r9, r0, r8, asr #11

00008ac0 <isdigit>:
    8ac0:	e2400030 	sub	r0, r0, #48	; 0x30
    8ac4:	e3500009 	cmp	r0, #9
    8ac8:	83a00000 	movhi	r0, #0
    8acc:	93a00001 	movls	r0, #1
    8ad0:	e12fff1e 	bx	lr

00008ad4 <pad>:
    8ad4:	e0401001 	sub	r1, r0, r1
    8ad8:	e1510002 	cmp	r1, r2
    8adc:	b3a03020 	movlt	r3, #32
    8ae0:	b4c03001 	strblt	r3, [r0], #1
    8ae4:	b2811001 	addlt	r1, r1, #1
    8ae8:	bafffffa 	blt	8ad8 <pad+0x4>
    8aec:	e3a03000 	mov	r3, #0
    8af0:	e5c03000 	strb	r3, [r0]
    8af4:	e12fff1e 	bx	lr

00008af8 <reverse>:
    8af8:	e042c003 	sub	ip, r2, r3
    8afc:	e28cc001 	add	ip, ip, #1
    8b00:	e15c0001 	cmp	ip, r1
    8b04:	c04cc001 	subgt	ip, ip, r1
    8b08:	c083300c 	addgt	r3, r3, ip
    8b0c:	e2421001 	sub	r1, r2, #1
    8b10:	e1a02000 	mov	r2, r0
    8b14:	e1510003 	cmp	r1, r3
    8b18:	2451c001 	ldrbcs	ip, [r1], #-1
    8b1c:	24c2c001 	strbcs	ip, [r2], #1
    8b20:	2afffffb 	bcs	8b14 <reverse+0x1c>
    8b24:	e3a03000 	mov	r3, #0
    8b28:	e5c23000 	strb	r3, [r2]
    8b2c:	e12fff1e 	bx	lr

00008b30 <emit>:
    8b30:	e92d40f0 	push	{r4, r5, r6, r7, lr}
    8b34:	e24dd044 	sub	sp, sp, #68	; 0x44
    8b38:	e1a05001 	mov	r5, r1
    8b3c:	e1a04002 	mov	r4, r2
    8b40:	e59d2058 	ldr	r2, [sp, #88]	; 0x58
    8b44:	e1520004 	cmp	r2, r4
    8b48:	c2442001 	subgt	r2, r4, #1
    8b4c:	e1a0c003 	mov	ip, r3
    8b50:	e2400002 	sub	r0, r0, #2
    8b54:	e350000e 	cmp	r0, #14
    8b58:	979ff100 	ldrls	pc, [pc, r0, lsl #2]
    8b5c:	ea000050 	b	8ca4 <emit+0x174>
    8b60:	00008c7c 	andeq	r8, r0, ip, ror ip
    8b64:	00008ca4 	andeq	r8, r0, r4, lsr #25
    8b68:	00008ca4 	andeq	r8, r0, r4, lsr #25
    8b6c:	00008ca4 	andeq	r8, r0, r4, lsr #25
    8b70:	00008ca4 	andeq	r8, r0, r4, lsr #25
    8b74:	00008ca4 	andeq	r8, r0, r4, lsr #25
    8b78:	00008c70 	andeq	r8, r0, r0, ror ip
    8b7c:	00008ca4 	andeq	r8, r0, r4, lsr #25
    8b80:	00008b9c 	muleq	r0, ip, fp
    8b84:	00008ca4 	andeq	r8, r0, r4, lsr #25
    8b88:	00008ca4 	andeq	r8, r0, r4, lsr #25
    8b8c:	00008ca4 	andeq	r8, r0, r4, lsr #25
    8b90:	00008ca4 	andeq	r8, r0, r4, lsr #25
    8b94:	00008ca4 	andeq	r8, r0, r4, lsr #25
    8b98:	00008c14 	andeq	r8, r0, r4, lsl ip
    8b9c:	e59d105c 	ldr	r1, [sp, #92]	; 0x5c
    8ba0:	e2511000 	subs	r1, r1, #0
    8ba4:	13a01001 	movne	r1, #1
    8ba8:	e0111fa3 	ands	r1, r1, r3, lsr #31
    8bac:	0a000016 	beq	8c0c <emit+0xdc>
    8bb0:	e263c000 	rsb	ip, r3, #0
    8bb4:	e3a06001 	mov	r6, #1
    8bb8:	e1a0000d 	mov	r0, sp
    8bbc:	e59f30fc 	ldr	r3, [pc, #252]	; 8cc0 <emit+0x190>
    8bc0:	e0831c93 	umull	r1, r3, r3, ip
    8bc4:	e1a031a3 	lsr	r3, r3, #3
    8bc8:	e1a0e003 	mov	lr, r3
    8bcc:	e0833103 	add	r3, r3, r3, lsl #2
    8bd0:	e04c3083 	sub	r3, ip, r3, lsl #1
    8bd4:	e1a01000 	mov	r1, r0
    8bd8:	e2800001 	add	r0, r0, #1
    8bdc:	e59f70e0 	ldr	r7, [pc, #224]	; 8cc4 <emit+0x194>
    8be0:	e7d73003 	ldrb	r3, [r7, r3]
    8be4:	e5c13000 	strb	r3, [r1]
    8be8:	e1a0300c 	mov	r3, ip
    8bec:	e1a0c00e 	mov	ip, lr
    8bf0:	e3530009 	cmp	r3, #9
    8bf4:	8afffff0 	bhi	8bbc <emit+0x8c>
    8bf8:	e3560000 	cmp	r6, #0
    8bfc:	13a0302d 	movne	r3, #45	; 0x2d
    8c00:	15c03000 	strbne	r3, [r0]
    8c04:	12810002 	addne	r0, r1, #2
    8c08:	ea00000f 	b	8c4c <emit+0x11c>
    8c0c:	e3a06000 	mov	r6, #0
    8c10:	eaffffe8 	b	8bb8 <emit+0x88>
    8c14:	e1a0100d 	mov	r1, sp
    8c18:	e20c000f 	and	r0, ip, #15
    8c1c:	e59fe0a4 	ldr	lr, [pc, #164]	; 8cc8 <emit+0x198>
    8c20:	e7de0000 	ldrb	r0, [lr, r0]
    8c24:	e5c10000 	strb	r0, [r1]
    8c28:	e2811001 	add	r1, r1, #1
    8c2c:	e35c000f 	cmp	ip, #15
    8c30:	e1a0c22c 	lsr	ip, ip, #4
    8c34:	8afffff7 	bhi	8c18 <emit+0xe8>
    8c38:	e1a00001 	mov	r0, r1
    8c3c:	e3a03078 	mov	r3, #120	; 0x78
    8c40:	e4c03002 	strb	r3, [r0], #2
    8c44:	e3a03030 	mov	r3, #48	; 0x30
    8c48:	e5c13001 	strb	r3, [r1, #1]
    8c4c:	e1a0100d 	mov	r1, sp
    8c50:	ebffff9f 	bl	8ad4 <pad>
    8c54:	e1a02000 	mov	r2, r0
    8c58:	e1a0300d 	mov	r3, sp
    8c5c:	e1a01004 	mov	r1, r4
    8c60:	e1a00005 	mov	r0, r5
    8c64:	ebffffa3 	bl	8af8 <reverse>
    8c68:	e28dd044 	add	sp, sp, #68	; 0x44
    8c6c:	e8bd80f0 	pop	{r4, r5, r6, r7, pc}
    8c70:	e5cd3000 	strb	r3, [sp]
    8c74:	e28d0001 	add	r0, sp, #1
    8c78:	eafffff3 	b	8c4c <emit+0x11c>
    8c7c:	e1a0000d 	mov	r0, sp
    8c80:	e20c1001 	and	r1, ip, #1
    8c84:	e59fe040 	ldr	lr, [pc, #64]	; 8ccc <emit+0x19c>
    8c88:	e7de1001 	ldrb	r1, [lr, r1]
    8c8c:	e5c01000 	strb	r1, [r0]
    8c90:	e2800001 	add	r0, r0, #1
    8c94:	e35c0001 	cmp	ip, #1
    8c98:	e1a0c0ac 	lsr	ip, ip, #1
    8c9c:	8afffff7 	bhi	8c80 <emit+0x150>
    8ca0:	eaffffe9 	b	8c4c <emit+0x11c>
    8ca4:	ebffff6e 	bl	8a64 <rpi_reset_putc>
    8ca8:	e3a03077 	mov	r3, #119	; 0x77
    8cac:	e59f201c 	ldr	r2, [pc, #28]	; 8cd0 <emit+0x1a0>
    8cb0:	e59f101c 	ldr	r1, [pc, #28]	; 8cd4 <emit+0x1a4>
    8cb4:	e59f001c 	ldr	r0, [pc, #28]	; 8cd8 <emit+0x1a8>
    8cb8:	ebffff4e 	bl	89f8 <printk>
    8cbc:	eb0000c7 	bl	8fe0 <clean_reboot>
    8cc0:	cccccccd 	stclgt	12, cr12, [ip], {205}	; 0xcd
    8cc4:	00009948 	andeq	r9, r0, r8, asr #18
    8cc8:	00009954 	andeq	r9, r0, r4, asr r9
    8ccc:	00009968 	andeq	r9, r0, r8, ror #18
    8cd0:	00009a00 	andeq	r9, r0, r0, lsl #20
    8cd4:	00009920 	andeq	r9, r0, r0, lsr #18
    8cd8:	00009934 	andeq	r9, r0, r4, lsr r9

00008cdc <rpi_set_output>:
    8cdc:	e3500000 	cmp	r0, #0
    8ce0:	0a000005 	beq	8cfc <rpi_set_output+0x20>
    8ce4:	e59f3030 	ldr	r3, [pc, #48]	; 8d1c <rpi_set_output+0x40>
    8ce8:	e5830000 	str	r0, [r3]
    8cec:	e3510000 	cmp	r1, #0
    8cf0:	159f3028 	ldrne	r3, [pc, #40]	; 8d20 <rpi_set_output+0x44>
    8cf4:	15831000 	strne	r1, [r3]
    8cf8:	e12fff1e 	bx	lr
    8cfc:	e92d4010 	push	{r4, lr}
    8d00:	ebffff57 	bl	8a64 <rpi_reset_putc>
    8d04:	e3a03020 	mov	r3, #32
    8d08:	e59f2014 	ldr	r2, [pc, #20]	; 8d24 <rpi_set_output+0x48>
    8d0c:	e59f1014 	ldr	r1, [pc, #20]	; 8d28 <rpi_set_output+0x4c>
    8d10:	e59f0014 	ldr	r0, [pc, #20]	; 8d2c <rpi_set_output+0x50>
    8d14:	ebffff37 	bl	89f8 <printk>
    8d18:	eb0000b0 	bl	8fe0 <clean_reboot>
    8d1c:	000095c8 	andeq	r9, r0, r8, asr #11
    8d20:	000095cc 	andeq	r9, r0, ip, asr #11
    8d24:	00009a08 	andeq	r9, r0, r8, lsl #20
    8d28:	00009920 	andeq	r9, r0, r0, lsr #18
    8d2c:	0000996c 	andeq	r9, r0, ip, ror #18

00008d30 <va_printk>:
    8d30:	e92d43f0 	push	{r4, r5, r6, r7, r8, r9, lr}
    8d34:	e24dd094 	sub	sp, sp, #148	; 0x94
    8d38:	e1a07000 	mov	r7, r0
    8d3c:	e1a09002 	mov	r9, r2
    8d40:	e58d300c 	str	r3, [sp, #12]
    8d44:	e2411001 	sub	r1, r1, #1
    8d48:	e0808001 	add	r8, r0, r1
    8d4c:	e3a03000 	mov	r3, #0
    8d50:	e5c03000 	strb	r3, [r0]
    8d54:	e1a04000 	mov	r4, r0
    8d58:	ea000001 	b	8d64 <va_printk+0x34>
    8d5c:	e2899001 	add	r9, r9, #1
    8d60:	e4c43001 	strb	r3, [r4], #1
    8d64:	e5d93000 	ldrb	r3, [r9]
    8d68:	e3530000 	cmp	r3, #0
    8d6c:	0a000091 	beq	8fb8 <va_printk+0x288>
    8d70:	e1540008 	cmp	r4, r8
    8d74:	2a00008f 	bcs	8fb8 <va_printk+0x288>
    8d78:	e3530025 	cmp	r3, #37	; 0x25
    8d7c:	1afffff6 	bne	8d5c <va_printk+0x2c>
    8d80:	e5d92001 	ldrb	r2, [r9, #1]
    8d84:	e3520025 	cmp	r2, #37	; 0x25
    8d88:	04c43001 	strbeq	r3, [r4], #1
    8d8c:	02899002 	addeq	r9, r9, #2
    8d90:	0afffff3 	beq	8d64 <va_printk+0x34>
    8d94:	e2899001 	add	r9, r9, #1
    8d98:	e3a06000 	mov	r6, #0
    8d9c:	ea000003 	b	8db0 <va_printk+0x80>
    8da0:	e0866106 	add	r6, r6, r6, lsl #2
    8da4:	e0855086 	add	r5, r5, r6, lsl #1
    8da8:	e2456030 	sub	r6, r5, #48	; 0x30
    8dac:	e2899001 	add	r9, r9, #1
    8db0:	e5d95000 	ldrb	r5, [r9]
    8db4:	e1a00005 	mov	r0, r5
    8db8:	ebffff40 	bl	8ac0 <isdigit>
    8dbc:	e3500000 	cmp	r0, #0
    8dc0:	1afffff6 	bne	8da0 <va_printk+0x70>
    8dc4:	e356001f 	cmp	r6, #31
    8dc8:	8a00001a 	bhi	8e38 <va_printk+0x108>
    8dcc:	e2455062 	sub	r5, r5, #98	; 0x62
    8dd0:	e3550016 	cmp	r5, #22
    8dd4:	979ff105 	ldrls	pc, [pc, r5, lsl #2]
    8dd8:	ea00006d 	b	8f94 <va_printk+0x264>
    8ddc:	00008f20 	andeq	r8, r0, r0, lsr #30
    8de0:	00008f64 	andeq	r8, r0, r4, ror #30
    8de4:	00008e70 	andeq	r8, r0, r0, ror lr
    8de8:	00008f94 	muleq	r0, r4, pc	; <UNPREDICTABLE>
    8dec:	00008e54 	andeq	r8, r0, r4, asr lr
    8df0:	00008f94 	muleq	r0, r4, pc	; <UNPREDICTABLE>
    8df4:	00008f94 	muleq	r0, r4, pc	; <UNPREDICTABLE>
    8df8:	00008f94 	muleq	r0, r4, pc	; <UNPREDICTABLE>
    8dfc:	00008f94 	muleq	r0, r4, pc	; <UNPREDICTABLE>
    8e00:	00008f94 	muleq	r0, r4, pc	; <UNPREDICTABLE>
    8e04:	00008f94 	muleq	r0, r4, pc	; <UNPREDICTABLE>
    8e08:	00008f94 	muleq	r0, r4, pc	; <UNPREDICTABLE>
    8e0c:	00008f94 	muleq	r0, r4, pc	; <UNPREDICTABLE>
    8e10:	00008f94 	muleq	r0, r4, pc	; <UNPREDICTABLE>
    8e14:	00008ef0 	strdeq	r8, [r0], -r0
    8e18:	00008f94 	muleq	r0, r4, pc	; <UNPREDICTABLE>
    8e1c:	00008f94 	muleq	r0, r4, pc	; <UNPREDICTABLE>
    8e20:	00008f50 	andeq	r8, r0, r0, asr pc
    8e24:	00008f94 	muleq	r0, r4, pc	; <UNPREDICTABLE>
    8e28:	00008ec0 	andeq	r8, r0, r0, asr #29
    8e2c:	00008f94 	muleq	r0, r4, pc	; <UNPREDICTABLE>
    8e30:	00008f94 	muleq	r0, r4, pc	; <UNPREDICTABLE>
    8e34:	00008ef0 	strdeq	r8, [r0], -r0
    8e38:	ebffff09 	bl	8a64 <rpi_reset_putc>
    8e3c:	e3a03094 	mov	r3, #148	; 0x94
    8e40:	e59f2184 	ldr	r2, [pc, #388]	; 8fcc <va_printk+0x29c>
    8e44:	e59f1184 	ldr	r1, [pc, #388]	; 8fd0 <va_printk+0x2a0>
    8e48:	e59f0184 	ldr	r0, [pc, #388]	; 8fd4 <va_printk+0x2a4>
    8e4c:	ebfffee9 	bl	89f8 <printk>
    8e50:	eb000062 	bl	8fe0 <clean_reboot>
    8e54:	ebffff02 	bl	8a64 <rpi_reset_putc>
    8e58:	e3a0309a 	mov	r3, #154	; 0x9a
    8e5c:	e59f2168 	ldr	r2, [pc, #360]	; 8fcc <va_printk+0x29c>
    8e60:	e59f1168 	ldr	r1, [pc, #360]	; 8fd0 <va_printk+0x2a0>
    8e64:	e59f016c 	ldr	r0, [pc, #364]	; 8fd8 <va_printk+0x2a8>
    8e68:	ebfffee2 	bl	89f8 <printk>
    8e6c:	eb00005b 	bl	8fe0 <clean_reboot>
    8e70:	e59d300c 	ldr	r3, [sp, #12]
    8e74:	e2832004 	add	r2, r3, #4
    8e78:	e58d200c 	str	r2, [sp, #12]
    8e7c:	e5933000 	ldr	r3, [r3]
    8e80:	e3a02001 	mov	r2, #1
    8e84:	e58d2004 	str	r2, [sp, #4]
    8e88:	e58d6000 	str	r6, [sp]
    8e8c:	e3a02080 	mov	r2, #128	; 0x80
    8e90:	e28d1010 	add	r1, sp, #16
    8e94:	e3a0000a 	mov	r0, #10
    8e98:	ebffff24 	bl	8b30 <emit>
    8e9c:	e2899001 	add	r9, r9, #1
    8ea0:	e1540008 	cmp	r4, r8
    8ea4:	2affffae 	bcs	8d64 <va_printk+0x34>
    8ea8:	e5d03000 	ldrb	r3, [r0]
    8eac:	e3530000 	cmp	r3, #0
    8eb0:	0affffab 	beq	8d64 <va_printk+0x34>
    8eb4:	e2800001 	add	r0, r0, #1
    8eb8:	e4c43001 	strb	r3, [r4], #1
    8ebc:	eafffff7 	b	8ea0 <va_printk+0x170>
    8ec0:	e59d300c 	ldr	r3, [sp, #12]
    8ec4:	e2832004 	add	r2, r3, #4
    8ec8:	e58d200c 	str	r2, [sp, #12]
    8ecc:	e5933000 	ldr	r3, [r3]
    8ed0:	e3a02000 	mov	r2, #0
    8ed4:	e58d2004 	str	r2, [sp, #4]
    8ed8:	e58d6000 	str	r6, [sp]
    8edc:	e3a02080 	mov	r2, #128	; 0x80
    8ee0:	e28d1010 	add	r1, sp, #16
    8ee4:	e3a0000a 	mov	r0, #10
    8ee8:	ebffff10 	bl	8b30 <emit>
    8eec:	eaffffea 	b	8e9c <va_printk+0x16c>
    8ef0:	e59d300c 	ldr	r3, [sp, #12]
    8ef4:	e2832004 	add	r2, r3, #4
    8ef8:	e58d200c 	str	r2, [sp, #12]
    8efc:	e5933000 	ldr	r3, [r3]
    8f00:	e3a02000 	mov	r2, #0
    8f04:	e58d2004 	str	r2, [sp, #4]
    8f08:	e58d6000 	str	r6, [sp]
    8f0c:	e3a02080 	mov	r2, #128	; 0x80
    8f10:	e28d1010 	add	r1, sp, #16
    8f14:	e3a00010 	mov	r0, #16
    8f18:	ebffff04 	bl	8b30 <emit>
    8f1c:	eaffffde 	b	8e9c <va_printk+0x16c>
    8f20:	e59d300c 	ldr	r3, [sp, #12]
    8f24:	e2832004 	add	r2, r3, #4
    8f28:	e58d200c 	str	r2, [sp, #12]
    8f2c:	e5933000 	ldr	r3, [r3]
    8f30:	e3a02000 	mov	r2, #0
    8f34:	e58d2004 	str	r2, [sp, #4]
    8f38:	e58d6000 	str	r6, [sp]
    8f3c:	e3a02080 	mov	r2, #128	; 0x80
    8f40:	e28d1010 	add	r1, sp, #16
    8f44:	e3a00002 	mov	r0, #2
    8f48:	ebfffef8 	bl	8b30 <emit>
    8f4c:	eaffffd2 	b	8e9c <va_printk+0x16c>
    8f50:	e59d300c 	ldr	r3, [sp, #12]
    8f54:	e2832004 	add	r2, r3, #4
    8f58:	e58d200c 	str	r2, [sp, #12]
    8f5c:	e5930000 	ldr	r0, [r3]
    8f60:	eaffffcd 	b	8e9c <va_printk+0x16c>
    8f64:	e59d300c 	ldr	r3, [sp, #12]
    8f68:	e2832004 	add	r2, r3, #4
    8f6c:	e58d200c 	str	r2, [sp, #12]
    8f70:	e5933000 	ldr	r3, [r3]
    8f74:	e3a02000 	mov	r2, #0
    8f78:	e58d2004 	str	r2, [sp, #4]
    8f7c:	e58d6000 	str	r6, [sp]
    8f80:	e3a02080 	mov	r2, #128	; 0x80
    8f84:	e28d1010 	add	r1, sp, #16
    8f88:	e3a00008 	mov	r0, #8
    8f8c:	ebfffee7 	bl	8b30 <emit>
    8f90:	eaffffc1 	b	8e9c <va_printk+0x16c>
    8f94:	ebfffeb2 	bl	8a64 <rpi_reset_putc>
    8f98:	e5d93000 	ldrb	r3, [r9]
    8f9c:	e58d3000 	str	r3, [sp]
    8fa0:	e3a030bb 	mov	r3, #187	; 0xbb
    8fa4:	e59f2020 	ldr	r2, [pc, #32]	; 8fcc <va_printk+0x29c>
    8fa8:	e59f1020 	ldr	r1, [pc, #32]	; 8fd0 <va_printk+0x2a0>
    8fac:	e59f0028 	ldr	r0, [pc, #40]	; 8fdc <va_printk+0x2ac>
    8fb0:	ebfffe90 	bl	89f8 <printk>
    8fb4:	eb000009 	bl	8fe0 <clean_reboot>
    8fb8:	e3a03000 	mov	r3, #0
    8fbc:	e4c43001 	strb	r3, [r4], #1
    8fc0:	e0440007 	sub	r0, r4, r7
    8fc4:	e28dd094 	add	sp, sp, #148	; 0x94
    8fc8:	e8bd83f0 	pop	{r4, r5, r6, r7, r8, r9, pc}
    8fcc:	00009a18 	andeq	r9, r0, r8, lsl sl
    8fd0:	00009920 	andeq	r9, r0, r0, lsr #18
    8fd4:	00009984 	andeq	r9, r0, r4, lsl #19
    8fd8:	000099a0 	andeq	r9, r0, r0, lsr #19
    8fdc:	000099c8 	andeq	r9, r0, r8, asr #19

00008fe0 <clean_reboot>:
    8fe0:	e92d4010 	push	{r4, lr}
    8fe4:	e59f3014 	ldr	r3, [pc, #20]	; 9000 <clean_reboot+0x20>
    8fe8:	e5933000 	ldr	r3, [r3]
    8fec:	e59f0010 	ldr	r0, [pc, #16]	; 9004 <clean_reboot+0x24>
    8ff0:	e12fff33 	blx	r3
    8ff4:	e3a00064 	mov	r0, #100	; 0x64
    8ff8:	eb000042 	bl	9108 <delay_ms>
    8ffc:	eb000017 	bl	9060 <rpi_reboot>
    9000:	000095cc 	andeq	r9, r0, ip, asr #11
    9004:	00009a24 	andeq	r9, r0, r4, lsr #20

00009008 <_cstart>:
    9008:	e92d4010 	push	{r4, lr}
    900c:	e59f3018 	ldr	r3, [pc, #24]	; 902c <_cstart+0x24>
    9010:	e59f2018 	ldr	r2, [pc, #24]	; 9030 <_cstart+0x28>
    9014:	e1530002 	cmp	r3, r2
    9018:	33a02000 	movcc	r2, #0
    901c:	34832004 	strcc	r2, [r3], #4
    9020:	3afffffa 	bcc	9010 <_cstart+0x8>
    9024:	ebfffbf9 	bl	8010 <notmain>
    9028:	ebffffec 	bl	8fe0 <clean_reboot>
    902c:	00009b50 	andeq	r9, r0, r0, asr fp
    9030:	00009f60 	andeq	r9, r0, r0, ror #30

00009034 <at_user_level>:
    9034:	e10f0000 	mrs	r0, CPSR
    9038:	e200001f 	and	r0, r0, #31
    903c:	e3500010 	cmp	r0, #16
    9040:	13a00000 	movne	r0, #0
    9044:	03a00001 	moveq	r0, #1
    9048:	e12fff1e 	bx	lr

0000904c <set_user_level>:
    904c:	e10f3000 	mrs	r3, CPSR
    9050:	e3c3301f 	bic	r3, r3, #31
    9054:	e3833010 	orr	r3, r3, #16
    9058:	e129f003 	msr	CPSR_fc, r3
    905c:	e12fff1e 	bx	lr

00009060 <rpi_reboot>:
    9060:	e92d4010 	push	{r4, lr}
    9064:	ebfffff2 	bl	9034 <at_user_level>
    9068:	e3500000 	cmp	r0, #0
    906c:	1a000008 	bne	9094 <rpi_reboot+0x34>
    9070:	e3a0001e 	mov	r0, #30
    9074:	eb000023 	bl	9108 <delay_ms>
    9078:	e59f101c 	ldr	r1, [pc, #28]	; 909c <rpi_reboot+0x3c>
    907c:	e59f001c 	ldr	r0, [pc, #28]	; 90a0 <rpi_reboot+0x40>
    9080:	eb00002e 	bl	9140 <PUT32>
    9084:	e59f1018 	ldr	r1, [pc, #24]	; 90a4 <rpi_reboot+0x44>
    9088:	e59f0018 	ldr	r0, [pc, #24]	; 90a8 <rpi_reboot+0x48>
    908c:	eb00002b 	bl	9140 <PUT32>
    9090:	eafffffe 	b	9090 <rpi_reboot+0x30>
    9094:	ebffffec 	bl	904c <set_user_level>
    9098:	eafffff4 	b	9070 <rpi_reboot+0x10>
    909c:	5a000001 	bpl	90a8 <rpi_reboot+0x48>
    90a0:	20100024 	andscs	r0, r0, r4, lsr #32
    90a4:	5a000020 	bpl	912c <delay_sec+0xc>
    90a8:	2010001c 	andscs	r0, r0, ip, lsl r0

000090ac <delay_cycles>:
    90ac:	e2403001 	sub	r3, r0, #1
    90b0:	e3500000 	cmp	r0, #0
    90b4:	012fff1e 	bxeq	lr
    90b8:	e2811000 	add	r1, r1, #0
    90bc:	e1a00003 	mov	r0, r3
    90c0:	eafffff9 	b	90ac <delay_cycles>

000090c4 <timer_get_usec_raw>:
    90c4:	e92d4010 	push	{r4, lr}
    90c8:	e59f0004 	ldr	r0, [pc, #4]	; 90d4 <timer_get_usec_raw+0x10>
    90cc:	eb000027 	bl	9170 <GET32>
    90d0:	e8bd8010 	pop	{r4, pc}
    90d4:	20003004 	andcs	r3, r0, r4

000090d8 <timer_get_usec>:
    90d8:	e92d4010 	push	{r4, lr}
    90dc:	ebfffff8 	bl	90c4 <timer_get_usec_raw>
    90e0:	e8bd8010 	pop	{r4, pc}

000090e4 <delay_us>:
    90e4:	e92d4070 	push	{r4, r5, r6, lr}
    90e8:	e1a05000 	mov	r5, r0
    90ec:	ebfffff9 	bl	90d8 <timer_get_usec>
    90f0:	e1a04000 	mov	r4, r0
    90f4:	ebfffff7 	bl	90d8 <timer_get_usec>
    90f8:	e0400004 	sub	r0, r0, r4
    90fc:	e1500005 	cmp	r0, r5
    9100:	3afffffb 	bcc	90f4 <delay_us+0x10>
    9104:	e8bd8070 	pop	{r4, r5, r6, pc}

00009108 <delay_ms>:
    9108:	e92d4010 	push	{r4, lr}
    910c:	e0603280 	rsb	r3, r0, r0, lsl #5
    9110:	e0800103 	add	r0, r0, r3, lsl #2
    9114:	e1a00180 	lsl	r0, r0, #3
    9118:	ebfffff1 	bl	90e4 <delay_us>
    911c:	e8bd8010 	pop	{r4, pc}

00009120 <delay_sec>:
    9120:	e92d4010 	push	{r4, lr}
    9124:	e0603280 	rsb	r3, r0, r0, lsl #5
    9128:	e0800103 	add	r0, r0, r3, lsl #2
    912c:	e1a00180 	lsl	r0, r0, #3
    9130:	ebfffff4 	bl	9108 <delay_ms>
    9134:	e8bd8010 	pop	{r4, pc}

00009138 <put32>:
    9138:	e5801000 	str	r1, [r0]
    913c:	e12fff1e 	bx	lr

00009140 <PUT32>:
    9140:	e5801000 	str	r1, [r0]
    9144:	e12fff1e 	bx	lr

00009148 <put16>:
    9148:	e1c010b0 	strh	r1, [r0]
    914c:	e12fff1e 	bx	lr

00009150 <PUT16>:
    9150:	e1c010b0 	strh	r1, [r0]
    9154:	e12fff1e 	bx	lr

00009158 <put8>:
    9158:	e5c01000 	strb	r1, [r0]
    915c:	e12fff1e 	bx	lr

00009160 <PUT8>:
    9160:	e5c01000 	strb	r1, [r0]
    9164:	e12fff1e 	bx	lr

00009168 <get32>:
    9168:	e5900000 	ldr	r0, [r0]
    916c:	e12fff1e 	bx	lr

00009170 <GET32>:
    9170:	e5900000 	ldr	r0, [r0]
    9174:	e12fff1e 	bx	lr

00009178 <GETPC>:
    9178:	e1a0000e 	mov	r0, lr
    917c:	e12fff1e 	bx	lr

00009180 <dummy>:
    9180:	e12fff1e 	bx	lr

00009184 <or_in32>:
    9184:	e92d4070 	push	{r4, r5, r6, lr}
    9188:	e1a04000 	mov	r4, r0
    918c:	e1a05001 	mov	r5, r1
    9190:	ebfffff4 	bl	9168 <get32>
    9194:	e1801005 	orr	r1, r0, r5
    9198:	e1a00004 	mov	r0, r4
    919c:	ebffffe5 	bl	9138 <put32>
    91a0:	e8bd8070 	pop	{r4, r5, r6, pc}

000091a4 <uart_init>:
    91a4:	e92d4010 	push	{r4, lr}
    91a8:	e3a01002 	mov	r1, #2
    91ac:	e3a0000e 	mov	r0, #14
    91b0:	eb000051 	bl	92fc <gpio_set_function>
    91b4:	e3a01002 	mov	r1, #2
    91b8:	e3a0000f 	mov	r0, #15
    91bc:	eb00004e 	bl	92fc <gpio_set_function>
    91c0:	eb0000fa 	bl	95b0 <dev_barrier>
    91c4:	e3a01001 	mov	r1, #1
    91c8:	e59f0064 	ldr	r0, [pc, #100]	; 9234 <uart_init+0x90>
    91cc:	ebffffec 	bl	9184 <or_in32>
    91d0:	eb0000f6 	bl	95b0 <dev_barrier>
    91d4:	e59f405c 	ldr	r4, [pc, #92]	; 9238 <uart_init+0x94>
    91d8:	e3a01000 	mov	r1, #0
    91dc:	e1a00004 	mov	r0, r4
    91e0:	ebffffd4 	bl	9138 <put32>
    91e4:	e3a01000 	mov	r1, #0
    91e8:	e59f004c 	ldr	r0, [pc, #76]	; 923c <uart_init+0x98>
    91ec:	ebffffd1 	bl	9138 <put32>
    91f0:	e3a01003 	mov	r1, #3
    91f4:	e59f0044 	ldr	r0, [pc, #68]	; 9240 <uart_init+0x9c>
    91f8:	ebffffce 	bl	9138 <put32>
    91fc:	e3a01000 	mov	r1, #0
    9200:	e59f003c 	ldr	r0, [pc, #60]	; 9244 <uart_init+0xa0>
    9204:	ebffffcb 	bl	9138 <put32>
    9208:	e3a010c7 	mov	r1, #199	; 0xc7
    920c:	e59f0034 	ldr	r0, [pc, #52]	; 9248 <uart_init+0xa4>
    9210:	ebffffc8 	bl	9138 <put32>
    9214:	e59f1030 	ldr	r1, [pc, #48]	; 924c <uart_init+0xa8>
    9218:	e59f0030 	ldr	r0, [pc, #48]	; 9250 <uart_init+0xac>
    921c:	ebffffc5 	bl	9138 <put32>
    9220:	e3a01003 	mov	r1, #3
    9224:	e1a00004 	mov	r0, r4
    9228:	ebffffc2 	bl	9138 <put32>
    922c:	eb0000df 	bl	95b0 <dev_barrier>
    9230:	e8bd8010 	pop	{r4, pc}
    9234:	20215004 	eorcs	r5, r1, r4
    9238:	20215060 	eorcs	r5, r1, r0, rrx
    923c:	20215044 	eorcs	r5, r1, r4, asr #32
    9240:	2021504c 	eorcs	r5, r1, ip, asr #32
    9244:	20215050 	eorcs	r5, r1, r0, asr r0
    9248:	20215048 	eorcs	r5, r1, r8, asr #32
    924c:	0000010e 	andeq	r0, r0, lr, lsl #2
    9250:	20215068 	eorcs	r5, r1, r8, rrx

00009254 <uart_can_getc>:
    9254:	e92d4010 	push	{r4, lr}
    9258:	e59f0008 	ldr	r0, [pc, #8]	; 9268 <uart_can_getc+0x14>
    925c:	ebffffc1 	bl	9168 <get32>
    9260:	e2000001 	and	r0, r0, #1
    9264:	e8bd8010 	pop	{r4, pc}
    9268:	20215064 	eorcs	r5, r1, r4, rrx

0000926c <uart_can_putc>:
    926c:	e92d4010 	push	{r4, lr}
    9270:	e59f0010 	ldr	r0, [pc, #16]	; 9288 <uart_can_putc+0x1c>
    9274:	ebffffbb 	bl	9168 <get32>
    9278:	e3100002 	tst	r0, #2
    927c:	13a00001 	movne	r0, #1
    9280:	03a00000 	moveq	r0, #0
    9284:	e8bd8010 	pop	{r4, pc}
    9288:	20215064 	eorcs	r5, r1, r4, rrx

0000928c <uart_getc>:
    928c:	e92d4010 	push	{r4, lr}
    9290:	eb0000c6 	bl	95b0 <dev_barrier>
    9294:	ebffffee 	bl	9254 <uart_can_getc>
    9298:	e3500000 	cmp	r0, #0
    929c:	0afffffc 	beq	9294 <uart_getc+0x8>
    92a0:	e59f0010 	ldr	r0, [pc, #16]	; 92b8 <uart_getc+0x2c>
    92a4:	ebffffaf 	bl	9168 <get32>
    92a8:	e6ef4070 	uxtb	r4, r0
    92ac:	eb0000bf 	bl	95b0 <dev_barrier>
    92b0:	e1a00004 	mov	r0, r4
    92b4:	e8bd8010 	pop	{r4, pc}
    92b8:	20215040 	eorcs	r5, r1, r0, asr #32

000092bc <uart_putc>:
    92bc:	e92d4010 	push	{r4, lr}
    92c0:	e1a04000 	mov	r4, r0
    92c4:	eb0000b9 	bl	95b0 <dev_barrier>
    92c8:	ebffffe7 	bl	926c <uart_can_putc>
    92cc:	e3500000 	cmp	r0, #0
    92d0:	0afffffc 	beq	92c8 <uart_putc+0xc>
    92d4:	e6ef1074 	uxtb	r1, r4
    92d8:	e59f0008 	ldr	r0, [pc, #8]	; 92e8 <uart_putc+0x2c>
    92dc:	ebffff95 	bl	9138 <put32>
    92e0:	eb0000b2 	bl	95b0 <dev_barrier>
    92e4:	e8bd8010 	pop	{r4, pc}
    92e8:	20215040 	eorcs	r5, r1, r0, asr #32

000092ec <uart_has_data>:
    92ec:	e92d4010 	push	{r4, lr}
    92f0:	eb0000ae 	bl	95b0 <dev_barrier>
    92f4:	ebffffd6 	bl	9254 <uart_can_getc>
    92f8:	e8bd8010 	pop	{r4, pc}

000092fc <gpio_set_function>:
    92fc:	e350001f 	cmp	r0, #31
    9300:	812fff1e 	bxhi	lr
    9304:	e3d13007 	bics	r3, r1, #7
    9308:	112fff1e 	bxne	lr
    930c:	e92d4070 	push	{r4, r5, r6, lr}
    9310:	e1a05001 	mov	r5, r1
    9314:	e59f3044 	ldr	r3, [pc, #68]	; 9360 <gpio_set_function+0x64>
    9318:	e0832093 	umull	r2, r3, r3, r0
    931c:	e1a031a3 	lsr	r3, r3, #3
    9320:	e1a06003 	mov	r6, r3
    9324:	e0833103 	add	r3, r3, r3, lsl #2
    9328:	e1a02083 	lsl	r2, r3, #1
    932c:	e0403002 	sub	r3, r0, r2
    9330:	e0834083 	add	r4, r3, r3, lsl #1
    9334:	e2866302 	add	r6, r6, #134217728	; 0x8000000
    9338:	e2866702 	add	r6, r6, #524288	; 0x80000
    933c:	e1a06106 	lsl	r6, r6, #2
    9340:	e1a00006 	mov	r0, r6
    9344:	ebffff89 	bl	9170 <GET32>
    9348:	e3a01007 	mov	r1, #7
    934c:	e1c01411 	bic	r1, r0, r1, lsl r4
    9350:	e1811415 	orr	r1, r1, r5, lsl r4
    9354:	e1a00006 	mov	r0, r6
    9358:	ebffff78 	bl	9140 <PUT32>
    935c:	e8bd8070 	pop	{r4, r5, r6, pc}
    9360:	cccccccd 	stclgt	12, cr12, [ip], {205}	; 0xcd

00009364 <gpio_set_output>:
    9364:	e92d4010 	push	{r4, lr}
    9368:	e3a01001 	mov	r1, #1
    936c:	ebffffe2 	bl	92fc <gpio_set_function>
    9370:	e8bd8010 	pop	{r4, pc}

00009374 <gpio_set_on>:
    9374:	e350001f 	cmp	r0, #31
    9378:	812fff1e 	bxhi	lr
    937c:	e92d4010 	push	{r4, lr}
    9380:	e3a01001 	mov	r1, #1
    9384:	e1a01011 	lsl	r1, r1, r0
    9388:	e59f0004 	ldr	r0, [pc, #4]	; 9394 <gpio_set_on+0x20>
    938c:	ebffff6b 	bl	9140 <PUT32>
    9390:	e8bd8010 	pop	{r4, pc}
    9394:	2020001c 	eorcs	r0, r0, ip, lsl r0

00009398 <gpio_set_off>:
    9398:	e350001f 	cmp	r0, #31
    939c:	812fff1e 	bxhi	lr
    93a0:	e92d4010 	push	{r4, lr}
    93a4:	e3a01001 	mov	r1, #1
    93a8:	e1a01011 	lsl	r1, r1, r0
    93ac:	e59f0004 	ldr	r0, [pc, #4]	; 93b8 <gpio_set_off+0x20>
    93b0:	ebffff62 	bl	9140 <PUT32>
    93b4:	e8bd8010 	pop	{r4, pc}
    93b8:	20200028 	eorcs	r0, r0, r8, lsr #32

000093bc <gpio_set_input>:
    93bc:	e92d4010 	push	{r4, lr}
    93c0:	e3a01000 	mov	r1, #0
    93c4:	ebffffcc 	bl	92fc <gpio_set_function>
    93c8:	e8bd8010 	pop	{r4, pc}

000093cc <gpio_write>:
    93cc:	e92d4010 	push	{r4, lr}
    93d0:	e3510000 	cmp	r1, #0
    93d4:	1a000001 	bne	93e0 <gpio_write+0x14>
    93d8:	ebffffee 	bl	9398 <gpio_set_off>
    93dc:	e8bd8010 	pop	{r4, pc}
    93e0:	ebffffe3 	bl	9374 <gpio_set_on>
    93e4:	e8bd8010 	pop	{r4, pc}

000093e8 <gpio_read>:
    93e8:	e350001f 	cmp	r0, #31
    93ec:	8a000007 	bhi	9410 <gpio_read+0x28>
    93f0:	e92d4010 	push	{r4, lr}
    93f4:	e200401f 	and	r4, r0, #31
    93f8:	e59f3018 	ldr	r3, [pc, #24]	; 9418 <gpio_read+0x30>
    93fc:	e08302a0 	add	r0, r3, r0, lsr #5
    9400:	ebffff5a 	bl	9170 <GET32>
    9404:	e1a00430 	lsr	r0, r0, r4
    9408:	e2000001 	and	r0, r0, #1
    940c:	e8bd8010 	pop	{r4, pc}
    9410:	e3e00000 	mvn	r0, #0
    9414:	e12fff1e 	bx	lr
    9418:	20200034 	eorcs	r0, r0, r4, lsr r0

0000941c <kmalloc_heap_end>:
    941c:	e59f3004 	ldr	r3, [pc, #4]	; 9428 <kmalloc_heap_end+0xc>
    9420:	e5930000 	ldr	r0, [r3]
    9424:	e12fff1e 	bx	lr
    9428:	000095d0 	ldrdeq	r9, [r0], -r0

0000942c <kmalloc_heap_start>:
    942c:	e59f0000 	ldr	r0, [pc]	; 9434 <kmalloc_heap_start+0x8>
    9430:	e12fff1e 	bx	lr
    9434:	00009f60 	andeq	r9, r0, r0, ror #30

00009438 <kmalloc_init_set_start>:
    9438:	e59f3038 	ldr	r3, [pc, #56]	; 9478 <kmalloc_init_set_start+0x40>
    943c:	e5933000 	ldr	r3, [r3]
    9440:	e1500003 	cmp	r0, r3
    9444:	9a000003 	bls	9458 <kmalloc_init_set_start+0x20>
    9448:	e59f3028 	ldr	r3, [pc, #40]	; 9478 <kmalloc_init_set_start+0x40>
    944c:	e5830000 	str	r0, [r3]
    9450:	e5830004 	str	r0, [r3, #4]
    9454:	e12fff1e 	bx	lr
    9458:	e92d4010 	push	{r4, lr}
    945c:	ebfffd80 	bl	8a64 <rpi_reset_putc>
    9460:	e3a03016 	mov	r3, #22
    9464:	e59f2010 	ldr	r2, [pc, #16]	; 947c <kmalloc_init_set_start+0x44>
    9468:	e59f1010 	ldr	r1, [pc, #16]	; 9480 <kmalloc_init_set_start+0x48>
    946c:	e59f0010 	ldr	r0, [pc, #16]	; 9484 <kmalloc_init_set_start+0x4c>
    9470:	ebfffd60 	bl	89f8 <printk>
    9474:	ebfffed9 	bl	8fe0 <clean_reboot>
    9478:	000095d0 	ldrdeq	r9, [r0], -r0
    947c:	00009a30 	andeq	r9, r0, r0, lsr sl
    9480:	00009a60 	andeq	r9, r0, r0, ror #20
    9484:	00009a6c 	andeq	r9, r0, ip, ror #20

00009488 <kmalloc>:
    9488:	e92d4010 	push	{r4, lr}
    948c:	e3500000 	cmp	r0, #0
    9490:	0a00000a 	beq	94c0 <kmalloc+0x38>
    9494:	e2802007 	add	r2, r0, #7
    9498:	e3c22007 	bic	r2, r2, #7
    949c:	e59f3038 	ldr	r3, [pc, #56]	; 94dc <kmalloc+0x54>
    94a0:	e5934000 	ldr	r4, [r3]
    94a4:	e0841002 	add	r1, r4, r2
    94a8:	e5831000 	str	r1, [r3]
    94ac:	e3a01000 	mov	r1, #0
    94b0:	e1a00004 	mov	r0, r4
    94b4:	ebfffd49 	bl	89e0 <memset>
    94b8:	e1a00004 	mov	r0, r4
    94bc:	e8bd8010 	pop	{r4, pc}
    94c0:	ebfffd67 	bl	8a64 <rpi_reset_putc>
    94c4:	e3a0301b 	mov	r3, #27
    94c8:	e59f2010 	ldr	r2, [pc, #16]	; 94e0 <kmalloc+0x58>
    94cc:	e59f1010 	ldr	r1, [pc, #16]	; 94e4 <kmalloc+0x5c>
    94d0:	e59f0010 	ldr	r0, [pc, #16]	; 94e8 <kmalloc+0x60>
    94d4:	ebfffd47 	bl	89f8 <printk>
    94d8:	ebfffec0 	bl	8fe0 <clean_reboot>
    94dc:	000095d0 	ldrdeq	r9, [r0], -r0
    94e0:	00009a48 	andeq	r9, r0, r8, asr #20
    94e4:	00009a60 	andeq	r9, r0, r0, ror #20
    94e8:	00009a88 	andeq	r9, r0, r8, lsl #21

000094ec <kmalloc_init>:
    94ec:	e12fff1e 	bx	lr

000094f0 <kmalloc_heap_ptr>:
    94f0:	e92d4010 	push	{r4, lr}
    94f4:	ebffffcc 	bl	942c <kmalloc_heap_start>
    94f8:	e8bd8010 	pop	{r4, pc}

000094fc <kmalloc_aligned>:
    94fc:	e92d4010 	push	{r4, lr}
    9500:	e2613000 	rsb	r3, r1, #0
    9504:	e1d12003 	bics	r2, r1, r3
    9508:	1a00000b 	bne	953c <kmalloc_aligned+0x40>
    950c:	e59f2060 	ldr	r2, [pc, #96]	; 9574 <kmalloc_aligned+0x78>
    9510:	e5922000 	ldr	r2, [r2]
    9514:	e0812002 	add	r2, r1, r2
    9518:	e2422001 	sub	r2, r2, #1
    951c:	e0033002 	and	r3, r3, r2
    9520:	e2411001 	sub	r1, r1, #1
    9524:	e1130001 	tst	r3, r1
    9528:	1a00000a 	bne	9558 <kmalloc_aligned+0x5c>
    952c:	e59f2040 	ldr	r2, [pc, #64]	; 9574 <kmalloc_aligned+0x78>
    9530:	e5823000 	str	r3, [r2]
    9534:	ebffffd3 	bl	9488 <kmalloc>
    9538:	e8bd8010 	pop	{r4, pc}
    953c:	ebfffd48 	bl	8a64 <rpi_reset_putc>
    9540:	e3a0302a 	mov	r3, #42	; 0x2a
    9544:	e59f202c 	ldr	r2, [pc, #44]	; 9578 <kmalloc_aligned+0x7c>
    9548:	e59f102c 	ldr	r1, [pc, #44]	; 957c <kmalloc_aligned+0x80>
    954c:	e59f002c 	ldr	r0, [pc, #44]	; 9580 <kmalloc_aligned+0x84>
    9550:	ebfffd28 	bl	89f8 <printk>
    9554:	ebfffea1 	bl	8fe0 <clean_reboot>
    9558:	ebfffd41 	bl	8a64 <rpi_reset_putc>
    955c:	e3a03030 	mov	r3, #48	; 0x30
    9560:	e59f2010 	ldr	r2, [pc, #16]	; 9578 <kmalloc_aligned+0x7c>
    9564:	e59f1010 	ldr	r1, [pc, #16]	; 957c <kmalloc_aligned+0x80>
    9568:	e59f0014 	ldr	r0, [pc, #20]	; 9584 <kmalloc_aligned+0x88>
    956c:	ebfffd21 	bl	89f8 <printk>
    9570:	ebfffe9a 	bl	8fe0 <clean_reboot>
    9574:	000095d0 	ldrdeq	r9, [r0], -r0
    9578:	00009a50 	andeq	r9, r0, r0, asr sl
    957c:	00009a60 	andeq	r9, r0, r0, ror #20
    9580:	00009a9c 	muleq	r0, ip, sl
    9584:	00009afc 	strdeq	r9, [r0], -ip

00009588 <kfree>:
    9588:	e12fff1e 	bx	lr

0000958c <kfree_all>:
    958c:	e59f3008 	ldr	r3, [pc, #8]	; 959c <kfree_all+0x10>
    9590:	e5932004 	ldr	r2, [r3, #4]
    9594:	e5832000 	str	r2, [r3]
    9598:	e12fff1e 	bx	lr
    959c:	000095d0 	ldrdeq	r9, [r0], -r0

000095a0 <kfree_after>:
    95a0:	e59f3004 	ldr	r3, [pc, #4]	; 95ac <kfree_after+0xc>
    95a4:	e5830000 	str	r0, [r3]
    95a8:	e12fff1e 	bx	lr
    95ac:	000095d0 	ldrdeq	r9, [r0], -r0

000095b0 <dev_barrier>:
    95b0:	ea000002 	b	95c0 <dsb>

000095b4 <dmb>:
    95b4:	e3a00000 	mov	r0, #0
    95b8:	ee070fba 	mcr	15, 0, r0, cr7, cr10, {5}
    95bc:	e12fff1e 	bx	lr

000095c0 <dsb>:
    95c0:	ee070f9a 	mcr	15, 0, r0, cr7, cr10, {4}
    95c4:	e12fff1e 	bx	lr

Disassembly of section .data:

000095c8 <rpi_putchar>:
    95c8:	00008a50 	andeq	r8, r0, r0, asr sl

000095cc <putk>:
    95cc:	00008a8c 	andeq	r8, r0, ip, lsl #21

000095d0 <heap>:
    95d0:	00009f60 	andeq	r9, r0, r0, ror #30

000095d4 <heap_start>:
    95d4:	00009f60 	andeq	r9, r0, r0, ror #30

Disassembly of section .rodata:

000095d8 <__FUNCTION__.4337-0x34>:
    95d8:	74736574 	ldrbtvc	r6, [r3], #-1396	; 0xfffffa8c
    95dc:	6d203a32 	vstmdbvs	r0!, {s6-s55}
    95e0:	726f6d65 	rsbvc	r6, pc, #6464	; 0x1940
    95e4:	766f2079 			; <UNDEFINED> instruction: 0x766f2079
    95e8:	6c667265 	sfmvs	f7, 2, [r6], #-404	; 0xfffffe6c
    95ec:	6120776f 			; <UNDEFINED> instruction: 0x6120776f
    95f0:	666f2074 			; <UNDEFINED> instruction: 0x666f2074
    95f4:	74657366 	strbtvc	r7, [r5], #-870	; 0xfffffc9a
    95f8:	000a3420 	andeq	r3, sl, r0, lsr #8
    95fc:	74726170 	ldrbtvc	r6, [r2], #-368	; 0xfffffe90
    9600:	65742d31 	ldrbvs	r2, [r4, #-3377]!	; 0xfffff2cf
    9604:	2e327473 	mrccs	4, 1, r7, cr2, cr3, {3}
    9608:	00000063 	andeq	r0, r0, r3, rrx

0000960c <__FUNCTION__.4337>:
    960c:	6d746f6e 	ldclvs	15, cr6, [r4, #-440]!	; 0xfffffe48
    9610:	006e6961 	rsbeq	r6, lr, r1, ror #18
    9614:	43415254 	movtmi	r5, #4692	; 0x1254
    9618:	00003a45 	andeq	r3, r0, r5, asr #20
    961c:	4f525245 	svcmi	0x00525245
    9620:	00003a52 	andeq	r3, r0, r2, asr sl
    9624:	636f6c62 	cmnvs	pc, #25088	; 0x6200
    9628:	7025206b 	eorvc	r2, r5, fp, rrx
    962c:	726f6320 	rsbvc	r6, pc, #32, 6	; 0x80000000
    9630:	74707572 	ldrbtvc	r7, [r0], #-1394	; 0xfffffa8e
    9634:	61206465 			; <UNDEFINED> instruction: 0x61206465
    9638:	666f2074 			; <UNDEFINED> instruction: 0x666f2074
    963c:	74657366 	strbtvc	r7, [r5], #-870	; 0xfffffc9a
    9640:	0a642520 	beq	1912ac8 <__bss_end__+0x1908b68>
    9644:	00000000 	andeq	r0, r0, r0
    9648:	79626e09 	stmdbvc	r2!, {r0, r3, r9, sl, fp, sp, lr}^
    964c:	3d736574 	cfldr64cc	mvdx6, [r3, #-464]!	; 0xfffffe30
    9650:	000a6425 	andeq	r6, sl, r5, lsr #8
    9654:	6f6c4209 	svcvs	0x006c4209
    9658:	61206b63 			; <UNDEFINED> instruction: 0x61206b63
    965c:	636f6c6c 	cmnvs	pc, #108, 24	; 0x6c00
    9660:	64657461 	strbtvs	r7, [r5], #-1121	; 0xfffffb9f
    9664:	3a746120 	bcc	1d21aec <__bss_end__+0x1d17b8c>
    9668:	3a732520 	bcc	1cd2af0 <__bss_end__+0x1cc8b90>
    966c:	253a7325 	ldrcs	r7, [sl, #-805]!	; 0xfffffcdb
    9670:	00000a64 	andeq	r0, r0, r4, ror #20
    9674:	6f6c4209 	svcvs	0x006c4209
    9678:	66206b63 	strtvs	r6, [r0], -r3, ror #22
    967c:	64656572 	strbtvs	r6, [r5], #-1394	; 0xfffffa8e
    9680:	3a746120 	bcc	1d21b08 <__bss_end__+0x1d17ba8>
    9684:	3a732520 	bcc	1cd2b0c <__bss_end__+0x1cc8bac>
    9688:	253a7325 	ldrcs	r7, [sl, #-805]!	; 0xfffffcdb
    968c:	00000a64 	andeq	r0, r0, r4, ror #20
    9690:	6f725709 	svcvs	0x00725709
    9694:	62206574 	eorvs	r6, r0, #116, 10	; 0x1d000000
    9698:	6b636f6c 	blvs	18e5450 <__bss_end__+0x18db4f0>
    969c:	74666120 	strbtvc	r6, [r6], #-288	; 0xfffffee0
    96a0:	66207265 	strtvs	r7, [r0], -r5, ror #4
    96a4:	21656572 	smccs	22098	; 0x5652
    96a8:	0000000a 	andeq	r0, r0, sl
    96ac:	6c616b63 			; <UNDEFINED> instruction: 0x6c616b63
    96b0:	2e636f6c 	cdpcs	15, 6, cr6, cr3, cr12, {3}
    96b4:	00000063 	andeq	r0, r0, r3, rrx
    96b8:	494e4150 	stmdbmi	lr, {r4, r6, r8, lr}^
    96bc:	73253a43 			; <UNDEFINED> instruction: 0x73253a43
    96c0:	3a73253a 	bcc	1cd2bb0 <__bss_end__+0x1cc8c50>
    96c4:	613a6425 	teqvs	sl, r5, lsr #8
    96c8:	6e67696c 	vnmulvs.f16	s13, s14, s25	; <UNPREDICTABLE>
    96cc:	68286465 	stmdavs	r8!, {r0, r2, r5, r6, sl, sp, lr}
    96d0:	5f706165 	svcpl	0x00706165
    96d4:	72617473 	rsbvc	r7, r1, #1929379840	; 0x73000000
    96d8:	38202c74 	stmdacc	r0!, {r2, r4, r5, r6, sl, fp, sp}
    96dc:	00000a29 	andeq	r0, r0, r9, lsr #20
    96e0:	657a6973 	ldrbvs	r6, [sl, #-2419]!	; 0xfffff68d
    96e4:	6820666f 	stmdavs	r0!, {r0, r1, r2, r3, r5, r6, r9, sl, sp, lr}
    96e8:	253d7264 	ldrcs	r7, [sp, #-612]!	; 0xfffffd9c
    96ec:	72202c64 	eorvc	r2, r0, #100, 24	; 0x6400
    96f0:	6f7a6465 	svcvs	0x007a6465
    96f4:	253d656e 	ldrcs	r6, [sp, #-1390]!	; 0xfffffa92
    96f8:	00000a64 	andeq	r0, r0, r4, ror #20
    96fc:	4f525245 	svcmi	0x00525245
    9700:	73253a52 			; <UNDEFINED> instruction: 0x73253a52
    9704:	3a73253a 	bcc	1cd2bf4 <__bss_end__+0x1cc8c94>
    9708:	203a6425 	eorscs	r6, sl, r5, lsr #8
    970c:	534c4146 	movtpl	r4, #49478	; 0xc146
    9710:	683c2845 	ldmdavs	ip!, {r0, r2, r6, fp, sp}
    9714:	3e706165 	rpwccsz	f6, f0, f5
    9718:	6e203a29 	vmulvs.f32	s6, s0, s19
    971c:	6920746f 	stmdbvs	r0!, {r0, r1, r2, r3, r5, r6, sl, ip, sp, lr}
    9720:	6974696e 	ldmdbvs	r4!, {r1, r2, r3, r5, r6, r8, fp, sp, lr}^
    9724:	7a696c61 	bvc	1a648b0 <__bss_end__+0x1a5a950>
    9728:	0a3f6465 	beq	fe28c4 <__bss_end__+0xfd8964>
    972c:	00000000 	andeq	r0, r0, r0
    9730:	65657266 	strbvs	r7, [r5, #-614]!	; 0xfffffd9a
    9734:	20676e69 	rsbcs	r6, r7, r9, ror #28
    9738:	000a7025 	andeq	r7, sl, r5, lsr #32
    973c:	6f6c6c61 	svcvs	0x006c6c61
    9740:	69746163 	ldmdbvs	r4!, {r0, r1, r5, r6, r8, sp, lr}^
    9744:	2520676e 	strcs	r6, [r0, #-1902]!	; 0xfffff892
    9748:	79622064 	stmdbvc	r2!, {r2, r5, r6, sp}^
    974c:	0a736574 	beq	1ce2d24 <__bss_end__+0x1cd8dc4>
    9750:	00000000 	andeq	r0, r0, r0
    9754:	43415254 	movtmi	r5, #4692	; 0x1254
    9758:	52453a45 	subpl	r3, r5, #282624	; 0x45000
    975c:	00524f52 	subseq	r4, r2, r2, asr pc
    9760:	657a6973 	ldrbvs	r6, [sl, #-2419]!	; 0xfffff68d
    9764:	65766f20 	ldrbvs	r6, [r6, #-3872]!	; 0xfffff0e0
    9768:	6f6c6672 	svcvs	0x006c6672
    976c:	3a646577 	bcc	1922d50 <__bss_end__+0x1918df0>
    9770:	20642520 	rsbcs	r2, r4, r0, lsr #10
    9774:	65747962 	ldrbvs	r7, [r4, #-2402]!	; 0xfffff69e
    9778:	73692073 	cmnvc	r9, #115	; 0x73
    977c:	6f6f7420 	svcvs	0x006f7420
    9780:	72616c20 	rsbvc	r6, r1, #32, 24	; 0x2000
    9784:	000a6567 	andeq	r6, sl, r7, ror #10
    9788:	494e4150 	stmdbmi	lr, {r4, r6, r8, lr}^
    978c:	73253a43 			; <UNDEFINED> instruction: 0x73253a43
    9790:	3a73253a 	bcc	1cd2c80 <__bss_end__+0x1cc8d20>
    9794:	733a6425 	teqvc	sl, #620756992	; 0x25000000
    9798:	20657a69 	rsbcs	r7, r5, r9, ror #20
    979c:	7265766f 	rsbvc	r7, r5, #116391936	; 0x6f00000
    97a0:	776f6c66 	strbvc	r6, [pc, -r6, ror #24]!
    97a4:	203a6465 	eorscs	r6, sl, r5, ror #8
    97a8:	62206425 	eorvs	r6, r0, #620756992	; 0x25000000
    97ac:	73657479 	cmnvc	r5, #2030043136	; 0x79000000
    97b0:	20736920 	rsbscs	r6, r3, r0, lsr #18
    97b4:	206f6f74 	rsbcs	r6, pc, r4, ror pc	; <UNPREDICTABLE>
    97b8:	6772616c 	ldrbvs	r6, [r2, -ip, ror #2]!
    97bc:	000a0a65 	andeq	r0, sl, r5, ror #20
    97c0:	2074756f 	rsbscs	r7, r4, pc, ror #10
    97c4:	6d20666f 	stcvs	6, cr6, [r0, #-444]!	; 0xfffffe44
    97c8:	726f6d65 	rsbvc	r6, pc, #6464	; 0x1940
    97cc:	20202179 	eorcs	r2, r0, r9, ror r1
    97d0:	65766168 	ldrbvs	r6, [r6, #-360]!	; 0xfffffe98
    97d4:	6c6e6f20 	stclvs	15, cr6, [lr], #-128	; 0xffffff80
    97d8:	64252079 	strtvs	r2, [r5], #-121	; 0xffffff87
    97dc:	66656c20 	strbtvs	r6, [r5], -r0, lsr #24
    97e0:	6e202c74 	mcrvs	12, 1, r2, cr0, cr4, {3}
    97e4:	20646565 	rsbcs	r6, r4, r5, ror #10
    97e8:	000a6425 	andeq	r6, sl, r5, lsr #8
    97ec:	494e4150 	stmdbmi	lr, {r4, r6, r8, lr}^
    97f0:	73253a43 			; <UNDEFINED> instruction: 0x73253a43
    97f4:	3a73253a 	bcc	1cd2ce4 <__bss_end__+0x1cc8d84>
    97f8:	6f3a6425 	svcvs	0x003a6425
    97fc:	6f207475 	svcvs	0x00207475
    9800:	656d2066 	strbvs	r2, [sp, #-102]!	; 0xffffff9a
    9804:	79726f6d 	ldmdbvc	r2!, {r0, r2, r3, r5, r6, r8, r9, sl, fp, sp, lr}^
    9808:	68202021 	stmdavs	r0!, {r0, r5, sp}
    980c:	20657661 	rsbcs	r7, r5, r1, ror #12
    9810:	796c6e6f 	stmdbvc	ip!, {r0, r1, r2, r3, r5, r6, r9, sl, fp, sp, lr}^
    9814:	20642520 	rsbcs	r2, r4, r0, lsr #10
    9818:	7466656c 	strbtvc	r6, [r6], #-1388	; 0xfffffa94
    981c:	656e202c 	strbvs	r2, [lr, #-44]!	; 0xffffffd4
    9820:	25206465 	strcs	r6, [r0, #-1125]!	; 0xfffffb9b
    9824:	000a0a64 	andeq	r0, sl, r4, ror #20
    9828:	494e4150 	stmdbmi	lr, {r4, r6, r8, lr}^
    982c:	73253a43 			; <UNDEFINED> instruction: 0x73253a43
    9830:	3a73253a 	bcc	1cd2d20 <__bss_end__+0x1cc8dc0>
    9834:	633a6425 	teqvs	sl, #620756992	; 0x25000000
    9838:	6b636568 	blvs	18e2de0 <__bss_end__+0x18d8e80>
    983c:	6f6c625f 	svcvs	0x006c625f
    9840:	68286b63 	stmdavs	r8!, {r0, r1, r5, r6, r8, r9, fp, sp, lr}
    9844:	00000a29 	andeq	r0, r0, r9, lsr #20
    9848:	6c616b63 			; <UNDEFINED> instruction: 0x6c616b63
    984c:	3a636f6c 	bcc	18e5604 <__bss_end__+0x18db6a4>
    9850:	6f6c6c61 	svcvs	0x006c6c61
    9854:	65746163 	ldrbvs	r6, [r4, #-355]!	; 0xfffffe9d
    9858:	64252064 	strtvs	r2, [r5], #-100	; 0xffffff9c
    985c:	74796220 	ldrbtvc	r6, [r9], #-544	; 0xfffffde0
    9860:	202c7365 	eorcs	r7, ip, r5, ror #6
    9864:	746f7428 	strbtvc	r7, [pc], #-1064	; 986c <__FUNCTION__.4337+0x260>
    9868:	253d6c61 	ldrcs	r6, [sp, #-3169]!	; 0xfffff39f
    986c:	202c2964 	eorcs	r2, ip, r4, ror #18
    9870:	3d727470 	cfldrdcc	mvd7, [r2, #-448]!	; 0xfffffe40
    9874:	000a7025 	andeq	r7, sl, r5, lsr #32
    9878:	6e696f67 	cdpvs	15, 6, cr6, cr9, cr7, {3}
    987c:	6f742067 	svcvs	0x00742067
    9880:	65686320 	strbvs	r6, [r8, #-800]!	; 0xfffffce0
    9884:	68206b63 	stmdavs	r0!, {r0, r1, r5, r6, r8, r9, fp, sp, lr}
    9888:	3a706165 	bcc	1c21e24 <__bss_end__+0x1c17ec4>
    988c:	20642520 	rsbcs	r2, r4, r0, lsr #10
    9890:	65747962 	ldrbvs	r7, [r4, #-2402]!	; 0xfffff69e
    9894:	6c612073 	stclvs	0, cr2, [r1], #-460	; 0xfffffe34
    9898:	61636f6c 	cmnvs	r3, ip, ror #30
    989c:	2c646574 	cfstr64cs	mvdx6, [r4], #-464	; 0xfffffe30
    98a0:	20642520 	rsbcs	r2, r4, r0, lsr #10
    98a4:	65747962 	ldrbvs	r7, [r4, #-2402]!	; 0xfffff69e
    98a8:	656c2073 	strbvs	r2, [ip, #-115]!	; 0xffffff8d
    98ac:	000a7466 	andeq	r7, sl, r6, ror #8
    98b0:	63656863 	cmnvs	r5, #6488064	; 0x630000
    98b4:	2064656b 	rsbcs	r6, r4, fp, ror #10
    98b8:	62206425 	eorvs	r6, r0, #620756992	; 0x25000000
    98bc:	6b636f6c 	blvs	18e5674 <__bss_end__+0x18db714>
    98c0:	64202c73 	strtvs	r2, [r0], #-3187	; 0xfffff38d
    98c4:	63657465 	cmnvs	r5, #1694498816	; 0x65000000
    98c8:	20646574 	rsbcs	r6, r4, r4, ror r5
    98cc:	65206425 	strvs	r6, [r0, #-1061]!	; 0xfffffbdb
    98d0:	726f7272 	rsbvc	r7, pc, #536870919	; 0x20000007
    98d4:	00000a73 	andeq	r0, r0, r3, ror sl
    98d8:	43435553 	movtmi	r5, #13651	; 0x3553
    98dc:	3a535345 	bcc	14de5f8 <__bss_end__+0x14d4698>
    98e0:	65686320 	strbvs	r6, [r8, #-800]!	; 0xfffffce0
    98e4:	64656b63 	strbtvs	r6, [r5], #-2915	; 0xfffff49d
    98e8:	20642520 	rsbcs	r2, r4, r0, lsr #10
    98ec:	636f6c62 	cmnvs	pc, #25088	; 0x6200
    98f0:	202c736b 	eorcs	r7, ip, fp, ror #6
    98f4:	65746564 	ldrbvs	r6, [r4, #-1380]!	; 0xfffffa9c
    98f8:	64657463 	strbtvs	r7, [r5], #-1123	; 0xfffffb9d
    98fc:	206f6e20 	rsbcs	r6, pc, r0, lsr #28
    9900:	6f727265 	svcvs	0x00727265
    9904:	000a7372 	andeq	r7, sl, r2, ror r3

00009908 <__FUNCTION__.4339>:
    9908:	695f6b63 	ldmdbvs	pc, {r0, r1, r5, r6, r8, r9, fp, sp, lr}^	; <UNPREDICTABLE>
    990c:	0074696e 	rsbseq	r6, r4, lr, ror #18

00009910 <__FUNCTION__.4397>:
    9910:	72666b63 	rsbvc	r6, r6, #101376	; 0x18c00
    9914:	00006565 	andeq	r6, r0, r5, ror #10

00009918 <__FUNCTION__.4407>:
    9918:	6c616b63 			; <UNDEFINED> instruction: 0x6c616b63
    991c:	00636f6c 	rsbeq	r6, r3, ip, ror #30
    9920:	6362696c 	cmnvs	r2, #108, 18	; 0x1b0000
    9924:	2d61762f 	stclcs	6, cr7, [r1, #-188]!	; 0xffffff44
    9928:	6e697270 	mcrvs	2, 3, r7, cr9, cr0, {3}
    992c:	632e6b74 			; <UNDEFINED> instruction: 0x632e6b74
    9930:	00000000 	andeq	r0, r0, r0
    9934:	494e4150 	stmdbmi	lr, {r4, r6, r8, lr}^
    9938:	73253a43 			; <UNDEFINED> instruction: 0x73253a43
    993c:	3a73253a 	bcc	1cd2e2c <__bss_end__+0x1cc8ecc>
    9940:	303a6425 	eorscc	r6, sl, r5, lsr #8
    9944:	0000000a 	andeq	r0, r0, sl
    9948:	33323130 	teqcc	r2, #48, 2
    994c:	37363534 			; <UNDEFINED> instruction: 0x37363534
    9950:	00003938 	andeq	r3, r0, r8, lsr r9
    9954:	33323130 	teqcc	r2, #48, 2
    9958:	37363534 			; <UNDEFINED> instruction: 0x37363534
    995c:	62613938 	rsbvs	r3, r1, #56, 18	; 0xe0000
    9960:	66656463 	strbtvs	r6, [r5], -r3, ror #8
    9964:	00000000 	andeq	r0, r0, r0
    9968:	00003130 	andeq	r3, r0, r0, lsr r1
    996c:	494e4150 	stmdbmi	lr, {r4, r6, r8, lr}^
    9970:	73253a43 			; <UNDEFINED> instruction: 0x73253a43
    9974:	3a73253a 	bcc	1cd2e64 <__bss_end__+0x1cc8f04>
    9978:	703a6425 	eorsvc	r6, sl, r5, lsr #8
    997c:	5f637475 	svcpl	0x00637475
    9980:	000a7066 	andeq	r7, sl, r6, rrx
    9984:	494e4150 	stmdbmi	lr, {r4, r6, r8, lr}^
    9988:	73253a43 			; <UNDEFINED> instruction: 0x73253a43
    998c:	3a73253a 	bcc	1cd2e7c <__bss_end__+0x1cc8f1c>
    9990:	773a6425 	ldrvc	r6, [sl, -r5, lsr #8]!
    9994:	68746469 	ldmdavs	r4!, {r0, r3, r5, r6, sl, sp, lr}^
    9998:	33203c20 			; <UNDEFINED> instruction: 0x33203c20
    999c:	00000a32 	andeq	r0, r0, r2, lsr sl
    99a0:	494e4150 	stmdbmi	lr, {r4, r6, r8, lr}^
    99a4:	73253a43 			; <UNDEFINED> instruction: 0x73253a43
    99a8:	3a73253a 	bcc	1cd2e98 <__bss_end__+0x1cc8f38>
    99ac:	663a6425 	ldrtvs	r6, [sl], -r5, lsr #8
    99b0:	74616f6c 	strbtvc	r6, [r1], #-3948	; 0xfffff094
    99b4:	746f6e20 	strbtvc	r6, [pc], #-3616	; 99bc <__FUNCTION__.4407+0xa4>
    99b8:	616e6520 	cmnvs	lr, r0, lsr #10
    99bc:	64656c62 	strbtvs	r6, [r5], #-3170	; 0xfffff39e
    99c0:	0a212121 	beq	851e4c <__bss_end__+0x847eec>
    99c4:	00000000 	andeq	r0, r0, r0
    99c8:	494e4150 	stmdbmi	lr, {r4, r6, r8, lr}^
    99cc:	73253a43 			; <UNDEFINED> instruction: 0x73253a43
    99d0:	3a73253a 	bcc	1cd2ec0 <__bss_end__+0x1cc8f60>
    99d4:	703a6425 	eorsvc	r6, sl, r5, lsr #8
    99d8:	746e6972 	strbtvc	r6, [lr], #-2418	; 0xfffff68e
    99dc:	6e203a6b 	vnmulvs.f32	s6, s0, s23
    99e0:	6820746f 	stmdavs	r0!, {r0, r1, r2, r3, r5, r6, sl, ip, sp, lr}
    99e4:	6c646e61 	stclvs	14, cr6, [r4], #-388	; 0xfffffe7c
    99e8:	20676e69 	rsbcs	r6, r7, r9, ror #28
    99ec:	63657073 	cmnvs	r5, #115	; 0x73
    99f0:	65696669 	strbvs	r6, [r9, #-1641]!	; 0xfffff997
    99f4:	25272072 	strcs	r2, [r7, #-114]!	; 0xffffff8e
    99f8:	0a0a2763 	beq	29378c <__bss_end__+0x28982c>
    99fc:	00000000 	andeq	r0, r0, r0

00009a00 <__FUNCTION__.4349>:
    9a00:	74696d65 	strbtvc	r6, [r9], #-3429	; 0xfffff29b
    9a04:	00000000 	andeq	r0, r0, r0

00009a08 <__FUNCTION__.4297>:
    9a08:	5f697072 	svcpl	0x00697072
    9a0c:	5f746573 	svcpl	0x00746573
    9a10:	7074756f 	rsbsvc	r7, r4, pc, ror #10
    9a14:	00007475 	andeq	r7, r0, r5, ror r4

00009a18 <__FUNCTION__.4371>:
    9a18:	705f6176 	subsvc	r6, pc, r6, ror r1	; <UNPREDICTABLE>
    9a1c:	746e6972 	strbtvc	r6, [lr], #-2418	; 0xfffff68e
    9a20:	0000006b 	andeq	r0, r0, fp, rrx
    9a24:	454e4f44 	strbmi	r4, [lr, #-3908]	; 0xfffff0bc
    9a28:	0a212121 	beq	851eb4 <__bss_end__+0x847f54>
    9a2c:	00000000 	andeq	r0, r0, r0

00009a30 <__FUNCTION__.4237>:
    9a30:	6c616d6b 	stclvs	13, cr6, [r1], #-428	; 0xfffffe54
    9a34:	5f636f6c 	svcpl	0x00636f6c
    9a38:	74696e69 	strbtvc	r6, [r9], #-3689	; 0xfffff197
    9a3c:	7465735f 	strbtvc	r7, [r5], #-863	; 0xfffffca1
    9a40:	6174735f 	cmnvs	r4, pc, asr r3
    9a44:	00007472 	andeq	r7, r0, r2, ror r4

00009a48 <__FUNCTION__.4241>:
    9a48:	6c616d6b 	stclvs	13, cr6, [r1], #-428	; 0xfffffe54
    9a4c:	00636f6c 	rsbeq	r6, r3, ip, ror #30

00009a50 <__FUNCTION__.4253>:
    9a50:	6c616d6b 	stclvs	13, cr6, [r1], #-428	; 0xfffffe54
    9a54:	5f636f6c 	svcpl	0x00636f6c
    9a58:	67696c61 	strbvs	r6, [r9, -r1, ror #24]!
    9a5c:	0064656e 	rsbeq	r6, r4, lr, ror #10
    9a60:	6c616d6b 	stclvs	13, cr6, [r1], #-428	; 0xfffffe54
    9a64:	2e636f6c 	cdpcs	15, 6, cr6, cr3, cr12, {3}
    9a68:	00000063 	andeq	r0, r0, r3, rrx
    9a6c:	494e4150 	stmdbmi	lr, {r4, r6, r8, lr}^
    9a70:	73253a43 			; <UNDEFINED> instruction: 0x73253a43
    9a74:	3a73253a 	bcc	1cd2f64 <__bss_end__+0x1cc9004>
    9a78:	613a6425 	teqvs	sl, r5, lsr #8
    9a7c:	20726464 	rsbscs	r6, r2, r4, ror #8
    9a80:	6568203e 	strbvs	r2, [r8, #-62]!	; 0xffffffc2
    9a84:	000a7061 	andeq	r7, sl, r1, rrx
    9a88:	494e4150 	stmdbmi	lr, {r4, r6, r8, lr}^
    9a8c:	73253a43 			; <UNDEFINED> instruction: 0x73253a43
    9a90:	3a73253a 	bcc	1cd2f80 <__bss_end__+0x1cc9020>
    9a94:	733a6425 	teqvc	sl, #620756992	; 0x25000000
    9a98:	00000a7a 	andeq	r0, r0, sl, ror sl
    9a9c:	4f525245 	svcmi	0x00525245
    9aa0:	73253a52 			; <UNDEFINED> instruction: 0x73253a52
    9aa4:	3a73253a 	bcc	1cd2f94 <__bss_end__+0x1cc9034>
    9aa8:	203a6425 	eorscs	r6, sl, r5, lsr #8
    9aac:	534c4146 	movtpl	r4, #49478	; 0xc146
    9ab0:	283c2845 	ldmdacs	ip!, {r0, r2, r6, fp, sp}
    9ab4:	6c612828 	stclvs	8, cr2, [r1], #-160	; 0xffffff60
    9ab8:	6d6e6769 	stclvs	7, cr6, [lr, #-420]!	; 0xfffffe5c
    9abc:	29746e65 	ldmdbcs	r4!, {r0, r2, r5, r6, r9, sl, fp, sp, lr}^
    9ac0:	61282d26 			; <UNDEFINED> instruction: 0x61282d26
    9ac4:	6e67696c 	vnmulvs.f16	s13, s14, s25	; <UNPREDICTABLE>
    9ac8:	746e656d 	strbtvc	r6, [lr], #-1389	; 0xfffffa93
    9acc:	3d202929 			; <UNDEFINED> instruction: 0x3d202929
    9ad0:	6128203d 			; <UNDEFINED> instruction: 0x6128203d
    9ad4:	6e67696c 	vnmulvs.f16	s13, s14, s25	; <UNPREDICTABLE>
    9ad8:	746e656d 	strbtvc	r6, [lr], #-1389	; 0xfffffa93
    9adc:	293e2929 	ldmdbcs	lr!, {r0, r3, r5, r8, fp, sp}
    9ae0:	7361203a 	cmnvc	r1, #58	; 0x3a
    9ae4:	696d7573 	stmdbvs	sp!, {r0, r1, r4, r5, r6, r8, sl, ip, sp, lr}^
    9ae8:	7020676e 	eorvc	r6, r0, lr, ror #14
    9aec:	7265776f 	rsbvc	r7, r5, #29097984	; 0x1bc0000
    9af0:	20666f20 	rsbcs	r6, r6, r0, lsr #30
    9af4:	0a6f7774 	beq	1be78cc <__bss_end__+0x1bdd96c>
    9af8:	00000000 	andeq	r0, r0, r0
    9afc:	4f525245 	svcmi	0x00525245
    9b00:	73253a52 			; <UNDEFINED> instruction: 0x73253a52
    9b04:	3a73253a 	bcc	1cd2ff4 <__bss_end__+0x1cc9094>
    9b08:	203a6425 	eorscs	r6, sl, r5, lsr #8
    9b0c:	534c4146 	movtpl	r4, #49478	; 0xc146
    9b10:	283c2845 	ldmdacs	ip!, {r0, r2, r6, fp, sp}
    9b14:	29682828 	stmdbcs	r8!, {r3, r5, fp, sp}^
    9b18:	28202620 	stmdacs	r0!, {r5, r9, sl, sp}
    9b1c:	70797428 	rsbsvc	r7, r9, r8, lsr #8
    9b20:	28666f65 	stmdacs	r6!, {r0, r2, r5, r6, r8, r9, sl, fp, sp, lr}^
    9b24:	28292968 	stmdacs	r9!, {r3, r5, r6, r8, fp, sp}
    9b28:	67696c61 	strbvs	r6, [r9, -r1, ror #24]!
    9b2c:	6e656d6e 	cdpvs	13, 6, cr6, cr5, cr14, {3}
    9b30:	2d202974 			; <UNDEFINED> instruction: 0x2d202974
    9b34:	29293120 	stmdbcs	r9!, {r5, r8, ip, sp}
    9b38:	203d3d20 	eorscs	r3, sp, r0, lsr #26
    9b3c:	293e2930 	ldmdbcs	lr!, {r4, r5, r8, fp, sp}
    9b40:	6d69203a 	stclvs	0, cr2, [r9, #-232]!	; 0xffffff18
    9b44:	73736f70 	cmnvc	r3, #112, 30	; 0x1c0
    9b48:	656c6269 	strbvs	r6, [ip, #-617]!	; 0xfffffd97
    9b4c:	Address 0x0000000000009b4c is out of bounds.


Disassembly of section .bss:

00009b50 <__bss_start__>:
    9b50:	00000000 	andeq	r0, r0, r0

00009b54 <heap>:
    9b54:	00000000 	andeq	r0, r0, r0

00009b58 <heap_end>:
    9b58:	00000000 	andeq	r0, r0, r0

00009b5c <buf.4297>:
	...

Disassembly of section .ARM.attributes:

00000000 <.ARM.attributes>:
   0:	00002c41 	andeq	r2, r0, r1, asr #24
   4:	61656100 	cmnvs	r5, r0, lsl #2
   8:	01006962 	tsteq	r0, r2, ror #18
   c:	00000022 	andeq	r0, r0, r2, lsr #32
  10:	4b5a3605 	blmi	168d82c <__bss_end__+0x16838cc>
  14:	08070600 	stmdaeq	r7, {r9, sl}
  18:	0a010901 	beq	42424 <__bss_end__+0x384c4>
  1c:	14041202 	strne	r1, [r4], #-514	; 0xfffffdfe
  20:	17011501 	strne	r1, [r1, -r1, lsl #10]
  24:	1a011803 	bne	46038 <__bss_end__+0x3c0d8>
  28:	44012201 	strmi	r2, [r1], #-513	; 0xfffffdff
  2c:	Address 0x000000000000002c is out of bounds.


Disassembly of section .comment:

00000000 <.comment>:
   0:	3a434347 	bcc	10d0d24 <__bss_end__+0x10c6dc4>
   4:	72412820 	subvc	r2, r1, #32, 16	; 0x200000
   8:	52206863 	eorpl	r6, r0, #6488064	; 0x630000
   c:	736f7065 	cmnvc	pc, #101	; 0x65
  10:	726f7469 	rsbvc	r7, pc, #1761607680	; 0x69000000
  14:	39202979 	stmdbcc	r0!, {r0, r3, r4, r5, r6, r8, fp, sp}
  18:	302e322e 	eorcc	r3, lr, lr, lsr #4
  1c:	43434700 	movtmi	r4, #14080	; 0x3700
  20:	3128203a 			; <UNDEFINED> instruction: 0x3128203a
  24:	2e363a35 			; <UNDEFINED> instruction: 0x2e363a35
  28:	2b312e33 	blcs	c4b8fc <__bss_end__+0xc4199c>
  2c:	326e7673 	rsbcc	r7, lr, #120586240	; 0x7300000
  30:	33303335 	teqcc	r0, #-738197504	; 0xd4000000
  34:	62312d39 	eorsvs	r2, r1, #3648	; 0xe40
  38:	646c6975 	strbtvs	r6, [ip], #-2421	; 0xfffff68b
  3c:	36202931 			; <UNDEFINED> instruction: 0x36202931
  40:	312e332e 			; <UNDEFINED> instruction: 0x312e332e
  44:	31303220 	teqcc	r0, r0, lsr #4
  48:	32363037 	eorscc	r3, r6, #55	; 0x37
  4c:	Address 0x000000000000004c is out of bounds.


Disassembly of section .debug_info:

00000000 <.debug_info>:
       0:	00000ab4 			; <UNDEFINED> instruction: 0x00000ab4
       4:	00000004 	andeq	r0, r0, r4
       8:	01040000 	mrseq	r0, (UNDEF: 4)
       c:	000002cb 	andeq	r0, r0, fp, asr #5
      10:	00011f0c 	andeq	r1, r1, ip, lsl #30
      14:	0000bc00 	andeq	fp, r0, r0, lsl #24
      18:	00801000 	addeq	r1, r0, r0
      1c:	00007c00 	andeq	r7, r0, r0, lsl #24
      20:	00000000 	andeq	r0, r0, r0
      24:	05040200 	streq	r0, [r4, #-512]	; 0xfffffe00
      28:	00746e69 	rsbseq	r6, r4, r9, ror #28
      2c:	57070403 	strpl	r0, [r7, -r3, lsl #8]
      30:	03000000 	movweq	r0, #0
      34:	02ba0601 	adcseq	r0, sl, #1048576	; 0x100000
      38:	02030000 	andeq	r0, r3, #0
      3c:	00035305 	andeq	r5, r3, r5, lsl #6
      40:	05040300 	streq	r0, [r4, #-768]	; 0xfffffd00
      44:	0000009d 	muleq	r0, sp, r0
      48:	98050803 	stmdals	r5, {r0, r1, fp}
      4c:	03000000 	movweq	r0, #0
      50:	02b80801 	adcseq	r0, r8, #65536	; 0x10000
      54:	02030000 	andeq	r0, r3, #0
      58:	00020b07 	andeq	r0, r2, r7, lsl #22
      5c:	07040300 	streq	r0, [r4, -r0, lsl #6]
      60:	00000052 	andeq	r0, r0, r2, asr r0
      64:	4d070803 	stcmi	8, cr0, [r7, #-12]
      68:	04000000 	streq	r0, [r0], #-0
      6c:	0000024e 	andeq	r0, r0, lr, asr #4
      70:	77192202 	ldrvc	r2, [r9, -r2, lsl #4]
      74:	05000000 	streq	r0, [r0, #-0]
      78:	00007d04 	andeq	r7, r0, r4, lsl #26
      7c:	03f90600 	mvnseq	r0, #0, 12
      80:	99040000 	stmdbls	r4, {}	; <UNPREDICTABLE>
      84:	03000002 	movweq	r0, #2
      88:	00410e2c 	subeq	r0, r1, ip, lsr #28
      8c:	0e040000 	cdpeq	0, 0, cr0, cr4, cr0, {0}
      90:	03000004 	movweq	r0, #4
      94:	00410e72 	subeq	r0, r1, r2, ror lr
      98:	56070000 	strpl	r0, [r7], -r0
      9c:	04000002 	streq	r0, [r0], #-2
      a0:	2c17015e 	ldfcss	f0, [r7], {94}	; 0x5e
      a4:	08000000 	stmdaeq	r0, {}	; <UNPREDICTABLE>
      a8:	03a60304 			; <UNDEFINED> instruction: 0x03a60304
      ac:	000000c9 	andeq	r0, r0, r9, asr #1
      b0:	00024809 	andeq	r4, r2, r9, lsl #16
      b4:	0ca80300 	stceq	3, cr0, [r8]
      b8:	0000009a 	muleq	r0, sl, r0
      bc:	0001da09 	andeq	sp, r1, r9, lsl #20
      c0:	13a90300 			; <UNDEFINED> instruction: 0x13a90300
      c4:	000000c9 	andeq	r0, r0, r9, asr #1
      c8:	004f0a00 	subeq	r0, pc, r0, lsl #20
      cc:	00d90000 	sbcseq	r0, r9, r0
      d0:	2c0b0000 	stccs	0, cr0, [fp], {-0}
      d4:	03000000 	movweq	r0, #0
      d8:	03080c00 	movweq	r0, #35840	; 0x8c00
      dc:	00fd09a3 	rscseq	r0, sp, r3, lsr #19
      e0:	f10d0000 			; <UNDEFINED> instruction: 0xf10d0000
      e4:	03000003 	movweq	r0, #3
      e8:	002507a5 	eoreq	r0, r5, r5, lsr #15
      ec:	0d000000 	stceq	0, cr0, [r0, #-0]
      f0:	00000400 	andeq	r0, r0, r0, lsl #8
      f4:	a705aa03 	strge	sl, [r5, -r3, lsl #20]
      f8:	04000000 	streq	r0, [r0], #-0
      fc:	037b0400 	cmneq	fp, #0, 8
     100:	ab030000 	blge	c0108 <__bss_end__+0xb61a8>
     104:	0000d903 	andeq	sp, r0, r3, lsl #18
     108:	01970400 	orrseq	r0, r7, r0, lsl #8
     10c:	af030000 	svcge	0x00030000
     110:	00006b1b 	andeq	r6, r0, fp, lsl fp
     114:	05040e00 	streq	r0, [r4, #-3584]	; 0xfffff200
     118:	00011d04 	andeq	r1, r1, r4, lsl #26
     11c:	08010300 	stmdaeq	r1, {r8, r9}
     120:	000002c1 	andeq	r0, r0, r1, asr #5
     124:	00011d0f 	andeq	r1, r1, pc, lsl #26
     128:	04400400 	strbeq	r0, [r0], #-1024	; 0xfffffc00
     12c:	16050000 	strne	r0, [r5], -r0
     130:	00005d19 	andeq	r5, r0, r9, lsl sp
     134:	01a81000 			; <UNDEFINED> instruction: 0x01a81000
     138:	05180000 	ldreq	r0, [r8, #-0]
     13c:	018f082f 	orreq	r0, pc, pc, lsr #16
     140:	9c0d0000 	stcls	0, cr0, [sp], {-0}
     144:	05000003 	streq	r0, [r0, #-3]
     148:	018f1331 	orreq	r1, pc, r1, lsr r3	; <UNPREDICTABLE>
     14c:	11000000 	mrsne	r0, (UNDEF: 0)
     150:	05006b5f 	streq	r6, [r0, #-2911]	; 0xfffff4a1
     154:	00250732 	eoreq	r0, r5, r2, lsr r7
     158:	0d040000 	stceq	0, cr0, [r4, #-0]
     15c:	000003dc 	ldrdeq	r0, [r0], -ip
     160:	250b3205 	strcs	r3, [fp, #-517]	; 0xfffffdfb
     164:	08000000 	stmdaeq	r0, {}	; <UNPREDICTABLE>
     168:	0001910d 	andeq	r9, r1, sp, lsl #2
     16c:	14320500 	ldrtne	r0, [r2], #-1280	; 0xfffffb00
     170:	00000025 	andeq	r0, r0, r5, lsr #32
     174:	047c0d0c 	ldrbteq	r0, [ip], #-3340	; 0xfffff2f4
     178:	32050000 	andcc	r0, r5, #0
     17c:	0000251b 	andeq	r2, r0, fp, lsl r5
     180:	5f111000 	svcpl	0x00111000
     184:	33050078 	movwcc	r0, #20600	; 0x5078
     188:	0001950b 	andeq	r9, r1, fp, lsl #10
     18c:	05001400 	streq	r1, [r0, #-1024]	; 0xfffffc00
     190:	00013504 	andeq	r3, r1, r4, lsl #10
     194:	01290a00 			; <UNDEFINED> instruction: 0x01290a00
     198:	01a50000 			; <UNDEFINED> instruction: 0x01a50000
     19c:	2c0b0000 	stccs	0, cr0, [fp], {-0}
     1a0:	00000000 	andeq	r0, r0, r0
     1a4:	01d51000 	bicseq	r1, r5, r0
     1a8:	05240000 	streq	r0, [r4, #-0]!
     1ac:	02280837 	eoreq	r0, r8, #3604480	; 0x370000
     1b0:	8f0d0000 	svchi	0x000d0000
     1b4:	05000000 	streq	r0, [r0, #-0]
     1b8:	00250939 	eoreq	r0, r5, r9, lsr r9
     1bc:	0d000000 	stceq	0, cr0, [r0, #-0]
     1c0:	00000416 	andeq	r0, r0, r6, lsl r4
     1c4:	25093a05 	strcs	r3, [r9, #-2565]	; 0xfffff5fb
     1c8:	04000000 	streq	r0, [r0], #-0
     1cc:	0000b20d 	andeq	fp, r0, sp, lsl #4
     1d0:	093b0500 	ldmdbeq	fp!, {r8, sl}
     1d4:	00000025 	andeq	r0, r0, r5, lsr #32
     1d8:	05040d08 	streq	r0, [r4, #-3336]	; 0xfffff2f8
     1dc:	3c050000 	stccc	0, cr0, [r5], {-0}
     1e0:	00002509 	andeq	r2, r0, r9, lsl #10
     1e4:	7d0d0c00 	stcvc	12, cr0, [sp, #-0]
     1e8:	05000002 	streq	r0, [r0, #-2]
     1ec:	0025093d 	eoreq	r0, r5, sp, lsr r9
     1f0:	0d100000 	ldceq	0, cr0, [r0, #-0]
     1f4:	0000026c 	andeq	r0, r0, ip, ror #4
     1f8:	25093e05 	strcs	r3, [r9, #-3589]	; 0xfffff1fb
     1fc:	14000000 	strne	r0, [r0], #-0
     200:	0004810d 	andeq	r8, r4, sp, lsl #2
     204:	093f0500 	ldmdbeq	pc!, {r8, sl}	; <UNPREDICTABLE>
     208:	00000025 	andeq	r0, r0, r5, lsr #32
     20c:	035d0d18 	cmpeq	sp, #24, 26	; 0x600
     210:	40050000 	andmi	r0, r5, r0
     214:	00002509 	andeq	r2, r0, r9, lsl #10
     218:	cb0d1c00 	blgt	347220 <__bss_end__+0x33d2c0>
     21c:	05000004 	streq	r0, [r0, #-4]
     220:	00250941 	eoreq	r0, r5, r1, asr #18
     224:	00200000 	eoreq	r0, r0, r0
     228:	0000f212 	andeq	pc, r0, r2, lsl r2	; <UNPREDICTABLE>
     22c:	05010800 	streq	r0, [r1, #-2048]	; 0xfffff800
     230:	026d084a 	rsbeq	r0, sp, #4849664	; 0x4a0000
     234:	840d0000 	strhi	r0, [sp], #-0
     238:	05000001 	streq	r0, [r0, #-1]
     23c:	026d0a4b 	rsbeq	r0, sp, #307200	; 0x4b000
     240:	0d000000 	stceq	0, cr0, [r0, #-0]
     244:	00000000 	andeq	r0, r0, r0
     248:	6d094c05 	stcvs	12, cr4, [r9, #-20]	; 0xffffffec
     24c:	80000002 	andhi	r0, r0, r2
     250:	00043213 	andeq	r3, r4, r3, lsl r2
     254:	0a4e0500 	beq	138165c <__bss_end__+0x13776fc>
     258:	00000129 	andeq	r0, r0, r9, lsr #2
     25c:	17130100 	ldrne	r0, [r3, -r0, lsl #2]
     260:	05000001 	streq	r0, [r0, #-1]
     264:	01290a51 			; <UNDEFINED> instruction: 0x01290a51
     268:	01040000 	mrseq	r0, (UNDEF: 4)
     26c:	01150a00 	tsteq	r5, r0, lsl #20
     270:	027d0000 	rsbseq	r0, sp, #0
     274:	2c0b0000 	stccs	0, cr0, [fp], {-0}
     278:	1f000000 	svcne	0x00000000
     27c:	02861200 	addeq	r1, r6, #0, 4
     280:	01900000 	orrseq	r0, r0, r0
     284:	c0085d05 	andgt	r5, r8, r5, lsl #26
     288:	0d000002 	stceq	0, cr0, [r0, #-8]
     28c:	0000039c 	muleq	r0, ip, r3
     290:	c0125e05 	andsgt	r5, r2, r5, lsl #28
     294:	00000002 	andeq	r0, r0, r2
     298:	0003b40d 	andeq	fp, r3, sp, lsl #8
     29c:	065f0500 	ldrbeq	r0, [pc], -r0, lsl #10
     2a0:	00000025 	andeq	r0, r0, r5, lsr #32
     2a4:	018c0d04 	orreq	r0, ip, r4, lsl #26
     2a8:	61050000 	mrsvs	r0, (UNDEF: 5)
     2ac:	0002c609 	andeq	ip, r2, r9, lsl #12
     2b0:	f20d0800 	vadd.i8	d0, d13, d0
     2b4:	05000000 	streq	r0, [r0, #-0]
     2b8:	02281e62 	eoreq	r1, r8, #1568	; 0x620
     2bc:	00880000 	addeq	r0, r8, r0
     2c0:	027d0405 	rsbseq	r0, sp, #83886080	; 0x5000000
     2c4:	d60a0000 	strle	r0, [sl], -r0
     2c8:	d6000002 	strle	r0, [r0], -r2
     2cc:	0b000002 	bleq	2dc <_start-0x7d24>
     2d0:	0000002c 	andeq	r0, r0, ip, lsr #32
     2d4:	0405001f 	streq	r0, [r5], #-31	; 0xffffffe1
     2d8:	000002dc 	ldrdeq	r0, [r0], -ip
     2dc:	03671014 	cmneq	r7, #20
     2e0:	05080000 	streq	r0, [r8, #-0]
     2e4:	03050875 	movweq	r0, #22645	; 0x5875
     2e8:	ac0d0000 	stcge	0, cr0, [sp], {-0}
     2ec:	05000000 	streq	r0, [r0, #-0]
     2f0:	03051176 	movweq	r1, #20854	; 0x5176
     2f4:	0d000000 	stceq	0, cr0, [r0, #-0]
     2f8:	0000000c 	andeq	r0, r0, ip
     2fc:	25067705 	strcs	r7, [r6, #-1797]	; 0xfffff8fb
     300:	04000000 	streq	r0, [r0], #-0
     304:	4f040500 	svcmi	0x00040500
     308:	10000000 	andne	r0, r0, r0
     30c:	00000386 	andeq	r0, r0, r6, lsl #7
     310:	08b50568 	ldmeq	r5!, {r3, r5, r6, r8, sl}
     314:	0000044e 	andeq	r0, r0, lr, asr #8
     318:	00705f11 	rsbseq	r5, r0, r1, lsl pc
     31c:	0512b605 	ldreq	fp, [r2, #-1541]	; 0xfffff9fb
     320:	00000003 	andeq	r0, r0, r3
     324:	00725f11 	rsbseq	r5, r2, r1, lsl pc
     328:	2507b705 	strcs	fp, [r7, #-1797]	; 0xfffff8fb
     32c:	04000000 	streq	r0, [r0], #-0
     330:	00775f11 	rsbseq	r5, r7, r1, lsl pc
     334:	2507b805 	strcs	fp, [r7, #-2053]	; 0xfffff7fb
     338:	08000000 	stmdaeq	r0, {}	; <UNPREDICTABLE>
     33c:	0001100d 	andeq	r1, r1, sp
     340:	09b90500 	ldmibeq	r9!, {r8, sl}
     344:	0000003a 	andeq	r0, r0, sl, lsr r0
     348:	01f10d0c 	mvnseq	r0, ip, lsl #26
     34c:	ba050000 	blt	140354 <__bss_end__+0x1363f4>
     350:	00003a09 	andeq	r3, r0, r9, lsl #20
     354:	5f110e00 	svcpl	0x00110e00
     358:	05006662 	streq	r6, [r0, #-1634]	; 0xfffff99e
     35c:	02dd11bb 	sbcseq	r1, sp, #-1073741778	; 0xc000002e
     360:	0d100000 	ldceq	0, cr0, [r0, #-0]
     364:	0000006c 	andeq	r0, r0, ip, rrx
     368:	2507bc05 	strcs	fp, [r7, #-3077]	; 0xfffff3fb
     36c:	18000000 	stmdane	r0, {}	; <UNPREDICTABLE>
     370:	0001000d 	andeq	r0, r1, sp
     374:	0ac30500 	beq	ff0c177c <__bss_end__+0xff0b781c>
     378:	00000115 	andeq	r0, r0, r5, lsl r1
     37c:	0b240d1c 	bleq	9037f4 <__bss_end__+0x8f9894>
     380:	c5050000 	strgt	r0, [r5, #-0]
     384:	0005c01d 	andeq	ip, r5, sp, lsl r0
     388:	190d2000 	stmdbne	sp, {sp}
     38c:	05000006 	streq	r0, [r0, #-6]
     390:	05ea1dc7 	strbeq	r1, [sl, #3527]!	; 0xdc7
     394:	0d240000 	stceq	0, cr0, [r4, #-0]
     398:	00000408 	andeq	r0, r0, r8, lsl #8
     39c:	0e0dca05 	vmlaeq.f32	s24, s26, s10
     3a0:	28000006 	stmdacs	r0, {r1, r2}
     3a4:	0004e50d 	andeq	lr, r4, sp, lsl #10
     3a8:	09cb0500 	stmibeq	fp, {r8, sl}^
     3ac:	00000628 	andeq	r0, r0, r8, lsr #12
     3b0:	755f112c 	ldrbvc	r1, [pc, #-300]	; 28c <_start-0x7d74>
     3b4:	ce050062 	cdpgt	0, 0, cr0, cr5, cr2, {3}
     3b8:	0002dd11 	andeq	sp, r2, r1, lsl sp
     3bc:	5f113000 	svcpl	0x00113000
     3c0:	05007075 	streq	r7, [r0, #-117]	; 0xffffff8b
     3c4:	030512cf 	movweq	r1, #21199	; 0x52cf
     3c8:	11380000 	teqne	r8, r0
     3cc:	0072755f 	rsbseq	r7, r2, pc, asr r5
     3d0:	2507d005 	strcs	sp, [r7, #-5]
     3d4:	3c000000 	stccc	0, cr0, [r0], {-0}
     3d8:	0000a60d 	andeq	sl, r0, sp, lsl #12
     3dc:	11d30500 	bicsne	r0, r3, r0, lsl #10
     3e0:	0000062e 	andeq	r0, r0, lr, lsr #12
     3e4:	04bd0d40 	ldrteq	r0, [sp], #3392	; 0xd40
     3e8:	d4050000 	strle	r0, [r5], #-0
     3ec:	00063e11 	andeq	r3, r6, r1, lsl lr
     3f0:	5f114300 	svcpl	0x00114300
     3f4:	0500626c 	streq	r6, [r0, #-620]	; 0xfffffd94
     3f8:	02dd11d7 	sbcseq	r1, sp, #-1073741771	; 0xc0000035
     3fc:	0d440000 	stcleq	0, cr0, [r4, #-0]
     400:	00000135 	andeq	r0, r0, r5, lsr r1
     404:	2507da05 	strcs	sp, [r7, #-2565]	; 0xfffff5fb
     408:	4c000000 	stcmi	0, cr0, [r0], {-0}
     40c:	0001460d 	andeq	r4, r1, sp, lsl #12
     410:	0adb0500 	beq	ff6c1818 <__bss_end__+0xff6b78b8>
     414:	00000082 	andeq	r0, r0, r2, lsl #1
     418:	0ac50d50 	beq	ff143960 <__bss_end__+0xff139a00>
     41c:	de050000 	cdple	0, 0, cr0, cr5, cr0, {0}
     420:	00046c12 	andeq	r6, r4, r2, lsl ip
     424:	fa0d5400 	blx	35542c <__bss_end__+0x34b4cc>
     428:	05000003 	streq	r0, [r0, #-3]
     42c:	01090ce2 	smlatteq	r9, r2, ip, r0
     430:	0d580000 	ldcleq	0, cr0, [r8, #-0]
     434:	0000038e 	andeq	r0, r0, lr, lsl #7
     438:	fd0ee405 	stc2	4, cr14, [lr, #-20]	; 0xffffffec
     43c:	5c000000 	stcpl	0, cr0, [r0], {-0}
     440:	0002640d 	andeq	r6, r2, sp, lsl #8
     444:	09e50500 	stmibeq	r5!, {r8, sl}^
     448:	00000025 	andeq	r0, r0, r5, lsr #32
     44c:	25150064 	ldrcs	r0, [r5, #-100]	; 0xffffff9c
     450:	6c000000 	stcvs	0, cr0, [r0], {-0}
     454:	16000004 	strne	r0, [r0], -r4
     458:	0000046c 	andeq	r0, r0, ip, ror #8
     45c:	00011516 	andeq	r1, r1, r6, lsl r5
     460:	01171600 	tsteq	r7, r0, lsl #12
     464:	25160000 	ldrcs	r0, [r6, #-0]
     468:	00000000 	andeq	r0, r0, r0
     46c:	04770405 	ldrbteq	r0, [r7], #-1029	; 0xfffffbfb
     470:	6c0f0000 	stcvs	0, cr0, [pc], {-0}
     474:	17000004 	strne	r0, [r0, -r4]
     478:	000003e4 	andeq	r0, r0, r4, ror #7
     47c:	60050428 	andvs	r0, r5, r8, lsr #8
     480:	05c00802 	strbeq	r0, [r0, #2050]	; 0x802
     484:	4c180000 	ldcmi	0, cr0, [r8], {-0}
     488:	05000003 	streq	r0, [r0, #-3]
     48c:	25070262 	strcs	r0, [r7, #-610]	; 0xfffffd9e
     490:	00000000 	andeq	r0, r0, r0
     494:	00049118 	andeq	r9, r4, r8, lsl r1
     498:	02670500 	rsbeq	r0, r7, #0, 10
     49c:	00069a0b 	andeq	r9, r6, fp, lsl #20
     4a0:	e1180400 	tst	r8, r0, lsl #8
     4a4:	05000001 	streq	r0, [r0, #-1]
     4a8:	9a140267 	bls	500e4c <__bss_end__+0x4f6eec>
     4ac:	08000006 	stmdaeq	r0, {r1, r2}
     4b0:	0001a018 	andeq	sl, r1, r8, lsl r0
     4b4:	02670500 	rsbeq	r0, r7, #0, 10
     4b8:	00069a1e 	andeq	r9, r6, lr, lsl sl
     4bc:	af180c00 	svcge	0x00180c00
     4c0:	05000003 	streq	r0, [r0, #-3]
     4c4:	25080269 	strcs	r0, [r8, #-617]	; 0xfffffd97
     4c8:	10000000 	andne	r0, r0, r0
     4cc:	00001a18 	andeq	r1, r0, r8, lsl sl
     4d0:	026a0500 	rsbeq	r0, sl, #0, 10
     4d4:	00089a08 	andeq	r9, r8, r8, lsl #20
     4d8:	c3181400 	tstgt	r8, #0, 8
     4dc:	05000003 	streq	r0, [r0, #-3]
     4e0:	2507026d 	strcs	r0, [r7, #-621]	; 0xfffffd93
     4e4:	30000000 	andcc	r0, r0, r0
     4e8:	000a0118 	andeq	r0, sl, r8, lsl r1
     4ec:	026e0500 	rsbeq	r0, lr, #0, 10
     4f0:	0008af16 	andeq	sl, r8, r6, lsl pc
     4f4:	8e183400 	cfmulshi	mvf3, mvf8, mvf0
     4f8:	05000002 	streq	r0, [r0, #-2]
     4fc:	25070270 	strcs	r0, [r7, #-624]	; 0xfffffd90
     500:	38000000 	stmdacc	r0, {}	; <UNPREDICTABLE>
     504:	0003b918 	andeq	fp, r3, r8, lsl r9
     508:	02720500 	rsbseq	r0, r2, #0, 10
     50c:	0008c00a 	andeq	ip, r8, sl
     510:	40183c00 	andsmi	r3, r8, r0, lsl #24
     514:	05000002 	streq	r0, [r0, #-2]
     518:	8f130275 	svchi	0x00130275
     51c:	40000001 	andmi	r0, r0, r1
     520:	0001bf18 	andeq	fp, r1, r8, lsl pc
     524:	02760500 	rsbseq	r0, r6, #0, 10
     528:	00002507 	andeq	r2, r0, r7, lsl #10
     52c:	ff184400 			; <UNDEFINED> instruction: 0xff184400
     530:	05000004 	streq	r0, [r0, #-4]
     534:	8f130277 	svchi	0x00130277
     538:	48000001 	stmdami	r0, {r0}
     53c:	0002a018 	andeq	sl, r2, r8, lsl r0
     540:	02780500 	rsbseq	r0, r8, #0, 10
     544:	0008c614 	andeq	ip, r8, r4, lsl r6
     548:	e9184c00 	ldmdb	r8, {sl, fp, lr}
     54c:	05000001 	streq	r0, [r0, #-1]
     550:	2507027b 	strcs	r0, [r7, #-635]	; 0xfffffd85
     554:	50000000 	andpl	r0, r0, r0
     558:	00013e18 	andeq	r3, r1, r8, lsl lr
     55c:	027c0500 	rsbseq	r0, ip, #0, 10
     560:	00011709 	andeq	r1, r1, r9, lsl #14
     564:	c6185400 	ldrgt	r5, [r8], -r0, lsl #8
     568:	05000002 	streq	r0, [r0, #-2]
     56c:	7507029f 	strvc	r0, [r7, #-671]	; 0xfffffd61
     570:	58000008 	stmdapl	r0, {r3}
     574:	00028619 	andeq	r8, r2, r9, lsl r6
     578:	02a30500 	adceq	r0, r3, #0, 10
     57c:	0002c013 	andeq	ip, r2, r3, lsl r0
     580:	19014800 	stmdbne	r1, {fp, lr}
     584:	0000021e 	andeq	r0, r0, lr, lsl r2
     588:	1202a405 	andne	sl, r2, #83886080	; 0x5000000
     58c:	0000027d 	andeq	r0, r0, sp, ror r2
     590:	ab19014c 	blge	640ac8 <__bss_end__+0x636b68>
     594:	05000004 	streq	r0, [r0, #-4]
     598:	d70c02a8 	strle	r0, [ip, -r8, lsr #5]
     59c:	dc000008 	stcle	0, cr0, [r0], {8}
     5a0:	01081902 	tsteq	r8, r2, lsl #18
     5a4:	ad050000 	stcge	0, cr0, [r5, #-0]
     5a8:	065b1002 	ldrbeq	r1, [fp], -r2
     5ac:	02e00000 	rsceq	r0, r0, #0
     5b0:	0000ed19 	andeq	lr, r0, r9, lsl sp
     5b4:	02af0500 	adceq	r0, pc, #0, 10
     5b8:	0008e30a 	andeq	lr, r8, sl, lsl #6
     5bc:	0002ec00 	andeq	lr, r2, r0, lsl #24
     5c0:	044e0405 	strbeq	r0, [lr], #-1029	; 0xfffffbfb
     5c4:	25150000 	ldrcs	r0, [r5, #-0]
     5c8:	e4000000 	str	r0, [r0], #-0
     5cc:	16000005 	strne	r0, [r0], -r5
     5d0:	0000046c 	andeq	r0, r0, ip, ror #8
     5d4:	00011516 	andeq	r1, r1, r6, lsl r5
     5d8:	05e41600 	strbeq	r1, [r4, #1536]!	; 0x600
     5dc:	25160000 	ldrcs	r0, [r6, #-0]
     5e0:	00000000 	andeq	r0, r0, r0
     5e4:	01240405 			; <UNDEFINED> instruction: 0x01240405
     5e8:	04050000 	streq	r0, [r5], #-0
     5ec:	000005c6 	andeq	r0, r0, r6, asr #11
     5f0:	00008e15 	andeq	r8, r0, r5, lsl lr
     5f4:	00060e00 	andeq	r0, r6, r0, lsl #28
     5f8:	046c1600 	strbteq	r1, [ip], #-1536	; 0xfffffa00
     5fc:	15160000 	ldrne	r0, [r6, #-0]
     600:	16000001 	strne	r0, [r0], -r1
     604:	0000008e 	andeq	r0, r0, lr, lsl #1
     608:	00002516 	andeq	r2, r0, r6, lsl r5
     60c:	04050000 	streq	r0, [r5], #-0
     610:	000005f0 	strdeq	r0, [r0], -r0	; <UNPREDICTABLE>
     614:	00002515 	andeq	r2, r0, r5, lsl r5
     618:	00062800 	andeq	r2, r6, r0, lsl #16
     61c:	046c1600 	strbteq	r1, [ip], #-1536	; 0xfffffa00
     620:	15160000 	ldrne	r0, [r6, #-0]
     624:	00000001 	andeq	r0, r0, r1
     628:	06140405 	ldreq	r0, [r4], -r5, lsl #8
     62c:	4f0a0000 	svcmi	0x000a0000
     630:	3e000000 	cdpcc	0, 0, cr0, cr0, cr0, {0}
     634:	0b000006 	bleq	654 <_start-0x79ac>
     638:	0000002c 	andeq	r0, r0, ip, lsr #32
     63c:	4f0a0002 	svcmi	0x000a0002
     640:	4e000000 	cdpmi	0, 0, cr0, cr0, cr0, {0}
     644:	0b000006 	bleq	664 <_start-0x799c>
     648:	0000002c 	andeq	r0, r0, ip, lsr #32
     64c:	74070000 	strvc	r0, [r7], #-0
     650:	05000003 	streq	r0, [r0, #-3]
     654:	0b1a011f 	bleq	680ad8 <__bss_end__+0x676b78>
     658:	1a000003 	bne	66c <_start-0x7994>
     65c:	0000048b 	andeq	r0, r0, fp, lsl #9
     660:	0123050c 			; <UNDEFINED> instruction: 0x0123050c
     664:	00069408 	andeq	r9, r6, r8, lsl #8
     668:	039c1800 	orrseq	r1, ip, #0, 16
     66c:	25050000 	strcs	r0, [r5, #-0]
     670:	06941101 	ldreq	r1, [r4], r1, lsl #2
     674:	18000000 	stmdane	r0, {}	; <UNPREDICTABLE>
     678:	00000204 	andeq	r0, r0, r4, lsl #4
     67c:	07012605 	streq	r2, [r1, -r5, lsl #12]
     680:	00000025 	andeq	r0, r0, r5, lsr #32
     684:	036e1804 	cmneq	lr, #4, 16	; 0x40000
     688:	27050000 	strcs	r0, [r5, -r0]
     68c:	069a0b01 	ldreq	r0, [sl], r1, lsl #22
     690:	00080000 	andeq	r0, r8, r0
     694:	065b0405 	ldrbeq	r0, [fp], -r5, lsl #8
     698:	04050000 	streq	r0, [r5], #-0
     69c:	0000064e 	andeq	r0, r0, lr, asr #12
     6a0:	0000121a 	andeq	r1, r0, sl, lsl r2
     6a4:	3f050e00 	svccc	0x00050e00
     6a8:	06d90801 	ldrbeq	r0, [r9], r1, lsl #16
     6ac:	eb180000 	bl	6006b4 <__bss_end__+0x5f6754>
     6b0:	05000003 	streq	r0, [r0, #-3]
     6b4:	d9120140 	ldmdble	r2, {r6, r8}
     6b8:	00000006 	andeq	r0, r0, r6
     6bc:	00041f18 	andeq	r1, r4, r8, lsl pc
     6c0:	01410500 	cmpeq	r1, r0, lsl #10
     6c4:	0006d912 	andeq	sp, r6, r2, lsl r9
     6c8:	3b180600 	blcc	601ed0 <__bss_end__+0x5f7f70>
     6cc:	05000004 	streq	r0, [r0, #-4]
     6d0:	56120142 	ldrpl	r0, [r2], -r2, asr #2
     6d4:	0c000000 	stceq	0, cr0, [r0], {-0}
     6d8:	00560a00 	subseq	r0, r6, r0, lsl #20
     6dc:	06e90000 	strbteq	r0, [r9], r0
     6e0:	2c0b0000 	stccs	0, cr0, [fp], {-0}
     6e4:	02000000 	andeq	r0, r0, #0
     6e8:	05d01b00 	ldrbeq	r1, [r0, #2816]	; 0xb00
     6ec:	fe070280 	cdp2	2, 0, cr0, cr7, cr0, {4}
     6f0:	18000007 	stmdane	r0, {r0, r1, r2}
     6f4:	0000046f 	andeq	r0, r0, pc, ror #8
     6f8:	18028205 	stmdane	r2, {r0, r2, r9, pc}
     6fc:	0000002c 	andeq	r0, r0, ip, lsr #32
     700:	04251800 	strteq	r1, [r5], #-2048	; 0xfffff800
     704:	83050000 	movwhi	r0, #20480	; 0x5000
     708:	01171202 	tsteq	r7, r2, lsl #4
     70c:	18040000 	stmdane	r4, {}	; <UNPREDICTABLE>
     710:	00000233 	andeq	r0, r0, r3, lsr r2
     714:	10028405 	andne	r8, r2, r5, lsl #8
     718:	000007fe 	strdeq	r0, [r0], -lr
     71c:	04d61808 	ldrbeq	r1, [r6], #2056	; 0x808
     720:	85050000 	strhi	r0, [r5, #-0]
     724:	01a51702 			; <UNDEFINED> instruction: 0x01a51702
     728:	18240000 	stmdane	r4!, {}	; <UNPREDICTABLE>
     72c:	000001b0 			; <UNDEFINED> instruction: 0x000001b0
     730:	0f028605 	svceq	0x00028605
     734:	00000025 	andeq	r0, r0, r5, lsr #32
     738:	03971848 	orrseq	r1, r7, #72, 16	; 0x480000
     73c:	87050000 	strhi	r0, [r5, -r0]
     740:	00642c02 	rsbeq	r2, r4, r2, lsl #24
     744:	18500000 	ldmdane	r0, {}^	; <UNPREDICTABLE>
     748:	000004ec 	andeq	r0, r0, ip, ror #9
     74c:	1a028805 	bne	a2768 <__bss_end__+0x98808>
     750:	000006a0 	andeq	r0, r0, r0, lsr #13
     754:	03a21858 			; <UNDEFINED> instruction: 0x03a21858
     758:	89050000 	stmdbhi	r5, {}	; <UNPREDICTABLE>
     75c:	00fd1602 	rscseq	r1, sp, r2, lsl #12
     760:	18680000 	stmdane	r8!, {}^	; <UNPREDICTABLE>
     764:	000004f1 	strdeq	r0, [r0], -r1
     768:	16028a05 	strne	r8, [r2], -r5, lsl #20
     76c:	000000fd 	strdeq	r0, [r0], -sp
     770:	02aa1870 	adceq	r1, sl, #112, 16	; 0x700000
     774:	8b050000 	blhi	14077c <__bss_end__+0x13681c>
     778:	00fd1602 	rscseq	r1, sp, r2, lsl #12
     77c:	18780000 	ldmdane	r8!, {}^	; <UNPREDICTABLE>
     780:	000004a1 	andeq	r0, r0, r1, lsr #9
     784:	10028c05 	andne	r8, r2, r5, lsl #24
     788:	0000080e 	andeq	r0, r0, lr, lsl #16
     78c:	02271880 	eoreq	r1, r7, #128, 16	; 0x800000
     790:	8d050000 	stchi	0, cr0, [r5, #-0]
     794:	081e1002 	ldmdaeq	lr, {r1, ip}
     798:	18880000 	stmne	r8, {}	; <UNPREDICTABLE>
     79c:	00000448 	andeq	r0, r0, r8, asr #8
     7a0:	0f028e05 	svceq	0x00028e05
     7a4:	00000025 	andeq	r0, r0, r5, lsr #32
     7a8:	017618a0 	cmneq	r6, r0, lsr #17
     7ac:	8f050000 	svchi	0x00050000
     7b0:	00fd1602 	rscseq	r1, sp, r2, lsl #12
     7b4:	18a40000 	stmiane	r4!, {}	; <UNPREDICTABLE>
     7b8:	00000080 	andeq	r0, r0, r0, lsl #1
     7bc:	16029005 	strne	r9, [r2], -r5
     7c0:	000000fd 	strdeq	r0, [r0], -sp
     7c4:	016518ac 	cmneq	r5, ip, lsr #17
     7c8:	91050000 	mrsls	r0, (UNDEF: 5)
     7cc:	00fd1602 	rscseq	r1, sp, r2, lsl #12
     7d0:	18b40000 	ldmne	r4!, {}	; <UNPREDICTABLE>
     7d4:	0000002d 	andeq	r0, r0, sp, lsr #32
     7d8:	16029205 	strne	r9, [r2], -r5, lsl #4
     7dc:	000000fd 	strdeq	r0, [r0], -sp
     7e0:	003c18bc 	ldrhteq	r1, [ip], -ip
     7e4:	93050000 	movwls	r0, #20480	; 0x5000
     7e8:	00fd1602 	rscseq	r1, sp, r2, lsl #12
     7ec:	18c40000 	stmiane	r4, {}^	; <UNPREDICTABLE>
     7f0:	0000034a 	andeq	r0, r0, sl, asr #6
     7f4:	08029405 	stmdaeq	r2, {r0, r2, sl, ip, pc}
     7f8:	00000025 	andeq	r0, r0, r5, lsr #32
     7fc:	1d0a00cc 	stcne	0, cr0, [sl, #-816]	; 0xfffffcd0
     800:	0e000001 	cdpeq	0, 0, cr0, cr0, cr1, {0}
     804:	0b000008 	bleq	82c <_start-0x77d4>
     808:	0000002c 	andeq	r0, r0, ip, lsr #32
     80c:	1d0a0019 	stcne	0, cr0, [sl, #-100]	; 0xffffff9c
     810:	1e000001 	cdpne	0, 0, cr0, cr0, cr1, {0}
     814:	0b000008 	bleq	83c <_start-0x77c4>
     818:	0000002c 	andeq	r0, r0, ip, lsr #32
     81c:	1d0a0007 	stcne	0, cr0, [sl, #-28]	; 0xffffffe4
     820:	2e000001 	cdpcs	0, 0, cr0, cr0, cr1, {0}
     824:	0b000008 	bleq	84c <_start-0x77b4>
     828:	0000002c 	andeq	r0, r0, ip, lsr #32
     82c:	f01b0017 			; <UNDEFINED> instruction: 0xf01b0017
     830:	07029905 	streq	r9, [r2, -r5, lsl #18]
     834:	00000855 	andeq	r0, r0, r5, asr r8
     838:	00027618 	andeq	r7, r2, r8, lsl r6
     83c:	029c0500 	addseq	r0, ip, #0, 10
     840:	0008551b 	andeq	r5, r8, fp, lsl r5
     844:	98180000 	ldmdals	r8, {}	; <UNPREDICTABLE>
     848:	05000004 	streq	r0, [r0, #-4]
     84c:	6518029d 	ldrvs	r0, [r8, #-669]	; 0xfffffd63
     850:	78000008 	stmdavc	r0, {r3}
     854:	03050a00 	movweq	r0, #23040	; 0x5a00
     858:	08650000 	stmdaeq	r5!, {}^	; <UNPREDICTABLE>
     85c:	2c0b0000 	stccs	0, cr0, [fp], {-0}
     860:	1d000000 	stcne	0, cr0, [r0, #-0]
     864:	002c0a00 	eoreq	r0, ip, r0, lsl #20
     868:	08750000 	ldmdaeq	r5!, {}^	; <UNPREDICTABLE>
     86c:	2c0b0000 	stccs	0, cr0, [fp], {-0}
     870:	1d000000 	stcne	0, cr0, [r0, #-0]
     874:	05f01c00 	ldrbeq	r1, [r0, #3072]!	; 0xc00
     878:	9a03027e 	bls	c1278 <__bss_end__+0xb7318>
     87c:	1d000008 	stcne	0, cr0, [r0, #-32]	; 0xffffffe0
     880:	000003e4 	andeq	r0, r0, r4, ror #7
     884:	0b029505 	bleq	a5ca0 <__bss_end__+0x9bd40>
     888:	000006e9 	andeq	r0, r0, r9, ror #13
     88c:	0004c31d 	andeq	ip, r4, sp, lsl r3
     890:	029e0500 	addseq	r0, lr, #0, 10
     894:	00082e0b 	andeq	r2, r8, fp, lsl #28
     898:	1d0a0000 	stcne	0, cr0, [sl, #-0]
     89c:	aa000001 	bge	8a8 <_start-0x7758>
     8a0:	0b000008 	bleq	8c8 <_start-0x7738>
     8a4:	0000002c 	andeq	r0, r0, ip, lsr #32
     8a8:	75060018 	strvc	r0, [r6, #-24]	; 0xffffffe8
     8ac:	05000000 	streq	r0, [r0, #-0]
     8b0:	0008aa04 	andeq	sl, r8, r4, lsl #20
     8b4:	08c01e00 	stmiaeq	r0, {r9, sl, fp, ip}^
     8b8:	6c160000 	ldcvs	0, cr0, [r6], {-0}
     8bc:	00000004 	andeq	r0, r0, r4
     8c0:	08b50405 	ldmeq	r5!, {r0, r2, sl}
     8c4:	04050000 	streq	r0, [r5], #-0
     8c8:	0000018f 	andeq	r0, r0, pc, lsl #3
     8cc:	0008d71e 	andeq	sp, r8, lr, lsl r7
     8d0:	00251600 	eoreq	r1, r5, r0, lsl #12
     8d4:	05000000 	streq	r0, [r0, #-0]
     8d8:	0008dd04 	andeq	sp, r8, r4, lsl #26
     8dc:	cc040500 	cfstr32gt	mvfx0, [r4], {-0}
     8e0:	0a000008 	beq	908 <_start-0x76f8>
     8e4:	0000064e 	andeq	r0, r0, lr, asr #12
     8e8:	000008f3 	strdeq	r0, [r0], -r3
     8ec:	00002c0b 	andeq	r2, r0, fp, lsl #24
     8f0:	1f000200 	svcne	0x00000200
     8f4:	0000045c 	andeq	r0, r0, ip, asr r4
     8f8:	17032e05 	strne	r2, [r3, -r5, lsl #28]
     8fc:	0000046c 	andeq	r0, r0, ip, ror #8
     900:	0004551f 	andeq	r5, r4, pc, lsl r5
     904:	032f0500 			; <UNDEFINED> instruction: 0x032f0500
     908:	0004721d 	andeq	r7, r4, sp, lsl r2
     90c:	00251500 	eoreq	r1, r5, r0, lsl #10
     910:	091c0000 	ldmdbeq	ip, {}	; <UNPREDICTABLE>
     914:	25160000 	ldrcs	r0, [r6, #-0]
     918:	00000000 	andeq	r0, r0, r0
     91c:	0001c920 	andeq	ip, r1, r0, lsr #18
     920:	0e1d0600 	cfmsub32eq	mvax0, mvfx0, mvfx13, mvfx0
     924:	00000928 	andeq	r0, r0, r8, lsr #18
     928:	090d0405 	stmdbeq	sp, {r0, r2, sl}
     92c:	25150000 	ldrcs	r0, [r5, #-0]
     930:	3d000000 	stccc	0, cr0, [r0, #-0]
     934:	16000009 	strne	r0, [r0], -r9
     938:	000005e4 	andeq	r0, r0, r4, ror #11
     93c:	07682000 	strbeq	r2, [r8, -r0]!
     940:	22060000 	andcs	r0, r6, #0
     944:	0009490e 	andeq	r4, r9, lr, lsl #18
     948:	2e040500 	cfsh32cs	mvfx0, mvfx4, #0
     94c:	21000009 	tstcs	r0, r9
     950:	00000025 	andeq	r0, r0, r5, lsr #32
     954:	10060501 	andne	r0, r6, r1, lsl #10
     958:	7c000080 	stcvc	0, cr0, [r0], {128}	; 0x80
     95c:	01000000 	mrseq	r0, (UNDEF: 0)
     960:	000a4e9c 	muleq	sl, ip, lr
     964:	006e2200 	rsbeq	r2, lr, r0, lsl #4
     968:	2c0e0a01 			; <UNDEFINED> instruction: 0x2c0e0a01
     96c:	00000000 	andeq	r0, r0, r0
     970:	23001000 	movwcs	r1, #0
     974:	0d010070 	stceq	0, cr0, [r1, #-448]	; 0xfffffe40
     978:	0001170b 	andeq	r1, r1, fp, lsl #14
     97c:	00000400 	andeq	r0, r0, r0, lsl #8
     980:	00000000 	andeq	r0, r0, r0
     984:	01f72400 	mvnseq	r2, r0, lsl #8
     988:	0a5e0000 	beq	1780990 <__bss_end__+0x1776a30>
     98c:	03050000 	movweq	r0, #20480	; 0x5000
     990:	0000960c 	andeq	r9, r0, ip, lsl #12
     994:	00801c25 	addeq	r1, r0, r5, lsr #24
     998:	000a6300 	andeq	r6, sl, r0, lsl #6
     99c:	0009ab00 	andeq	sl, r9, r0, lsl #22
     9a0:	50012600 	andpl	r2, r1, r0, lsl #12
     9a4:	95d80305 	ldrbls	r0, [r8, #773]	; 0x305
     9a8:	25000000 	strcs	r0, [r0, #-0]
     9ac:	00008024 	andeq	r8, r0, r4, lsr #32
     9b0:	00000a6f 	andeq	r0, r0, pc, ror #20
     9b4:	000009c0 	andeq	r0, r0, r0, asr #19
     9b8:	03500126 	cmpeq	r0, #-2147483639	; 0x80000009
     9bc:	00244040 	eoreq	r4, r4, r0, asr #32
     9c0:	00802c25 	addeq	r2, r0, r5, lsr #24
     9c4:	000a7b00 	andeq	r7, sl, r0, lsl #22
     9c8:	0009d500 	andeq	sp, r9, r0, lsl #10
     9cc:	50012600 	andpl	r2, r1, r0, lsl #12
     9d0:	24404003 	strbcs	r4, [r0], #-3
     9d4:	80342500 	eorshi	r2, r4, r0, lsl #10
     9d8:	0a870000 	beq	fe1c09e0 <__bss_end__+0xfe1b6a80>
     9dc:	09ea0000 	stmibeq	sl!, {}^	; <UNPREDICTABLE>
     9e0:	01260000 			; <UNDEFINED> instruction: 0x01260000
     9e4:	40400351 	submi	r0, r0, r1, asr r3
     9e8:	50250024 	eorpl	r0, r5, r4, lsr #32
     9ec:	93000080 	movwls	r0, #128	; 0x80
     9f0:	0e00000a 	cdpeq	0, 0, cr0, cr0, cr10, {0}
     9f4:	2600000a 	strcs	r0, [r0], -sl
     9f8:	34015001 	strcc	r5, [r1], #-1
     9fc:	02510126 	subseq	r0, r1, #-2147483639	; 0x80000009
     a00:	01260075 			; <UNDEFINED> instruction: 0x01260075
     a04:	00760252 	rsbseq	r0, r6, r2, asr r2
     a08:	01530126 	cmpeq	r3, r6, lsr #2
     a0c:	6025003d 	eorvs	r0, r5, sp, lsr r0
     a10:	9f000080 	svcls	0x00000080
     a14:	2c00000a 	stccs	0, cr0, [r0], {10}
     a18:	2600000a 	strcs	r0, [r0], -sl
     a1c:	74025001 	strvc	r5, [r2], #-1
     a20:	51012600 	tstpl	r1, r0, lsl #12
     a24:	01263001 			; <UNDEFINED> instruction: 0x01263001
     a28:	00340152 	eorseq	r0, r4, r2, asr r1
     a2c:	00807c27 	addeq	r7, r0, r7, lsr #24
     a30:	000aab00 	andeq	sl, sl, r0, lsl #22
     a34:	50012600 	andpl	r2, r1, r0, lsl #12
     a38:	26007402 	strcs	r7, [r0], -r2, lsl #8
     a3c:	75025101 	strvc	r5, [r2, #-257]	; 0xfffffeff
     a40:	52012600 	andpl	r2, r1, #0, 12
     a44:	26007602 	strcs	r7, [r0], -r2, lsl #12
     a48:	40015301 	andmi	r5, r1, r1, lsl #6
     a4c:	240a0000 	strcs	r0, [sl], #-0
     a50:	5e000001 	cdppl	0, 0, cr0, cr0, cr1, {0}
     a54:	0b00000a 	bleq	a84 <_start-0x757c>
     a58:	0000002c 	andeq	r0, r0, ip, lsr #32
     a5c:	4e0f0007 	cdpmi	0, 0, cr0, cr15, cr7, {0}
     a60:	2800000a 	stmdacs	r0, {r1, r3}
     a64:	000006ff 	strdeq	r0, [r0], -pc	; <UNPREDICTABLE>
     a68:	000006ff 	strdeq	r0, [r0], -pc	; <UNPREDICTABLE>
     a6c:	28052906 	stmdacs	r5, {r1, r2, r8, fp, sp}
     a70:	0000014e 	andeq	r0, r0, lr, asr #2
     a74:	0000014e 	andeq	r0, r0, lr, asr #2
     a78:	28067206 	stmdacs	r6, {r1, r2, r9, ip, sp, lr}
     a7c:	000004b5 			; <UNDEFINED> instruction: 0x000004b5
     a80:	000004b5 			; <UNDEFINED> instruction: 0x000004b5
     a84:	28076c06 	stmdacs	r7, {r1, r2, sl, fp, sp, lr}
     a88:	0000012d 	andeq	r0, r0, sp, lsr #2
     a8c:	0000012d 	andeq	r0, r0, sp, lsr #2
     a90:	28067707 	stmdacs	r6, {r0, r1, r2, r8, r9, sl, ip, sp, lr}
     a94:	00000064 	andeq	r0, r0, r4, rrx
     a98:	00000064 	andeq	r0, r0, r4, rrx
     a9c:	28087407 	stmdacs	r8, {r0, r1, r2, sl, ip, sp, lr}
     aa0:	00000468 	andeq	r0, r0, r8, ror #8
     aa4:	00000468 	andeq	r0, r0, r8, ror #8
     aa8:	28092108 	stmdacs	r9, {r3, r8, sp}
     aac:	0000025d 	andeq	r0, r0, sp, asr r2
     ab0:	0000025d 	andeq	r0, r0, sp, asr r2
     ab4:	00077507 	andeq	r7, r7, r7, lsl #10
     ab8:	00001985 	andeq	r1, r0, r5, lsl #19
     abc:	023a0004 	eorseq	r0, sl, #4
     ac0:	01040000 	mrseq	r0, (UNDEF: 4)
     ac4:	000002cb 	andeq	r0, r0, fp, asr #5
     ac8:	0005c60c 	andeq	ip, r5, ip, lsl #12
     acc:	0000bc00 	andeq	fp, r0, r0, lsl #24
     ad0:	00808c00 	addeq	r8, r0, r0, lsl #24
     ad4:	00086800 	andeq	r6, r8, r0, lsl #16
     ad8:	00012f00 	andeq	r2, r1, r0, lsl #30
     adc:	05040200 	streq	r0, [r4, #-512]	; 0xfffffe00
     ae0:	00746e69 	rsbseq	r6, r4, r9, ror #28
     ae4:	57070403 	strpl	r0, [r7, -r3, lsl #8]
     ae8:	03000000 	movweq	r0, #0
     aec:	02ba0601 	adcseq	r0, sl, #1048576	; 0x100000
     af0:	02030000 	andeq	r0, r3, #0
     af4:	00035305 	andeq	r5, r3, r5, lsl #6
     af8:	05040300 	streq	r0, [r4, #-768]	; 0xfffffd00
     afc:	0000009d 	muleq	r0, sp, r0
     b00:	98050803 	stmdals	r5, {r0, r1, fp}
     b04:	04000000 	streq	r0, [r0], #-0
     b08:	00000686 	andeq	r0, r0, r6, lsl #13
     b0c:	5b182e03 	blpl	60c320 <__bss_end__+0x6023c0>
     b10:	03000000 	movweq	r0, #0
     b14:	02b80801 	adcseq	r0, r8, #65536	; 0x10000
     b18:	02030000 	andeq	r0, r3, #0
     b1c:	00020b07 	andeq	r0, r2, r7, lsl #22
     b20:	06440400 	strbeq	r0, [r4], -r0, lsl #8
     b24:	34030000 	strcc	r0, [r3], #-0
     b28:	00007519 	andeq	r7, r0, r9, lsl r5
     b2c:	07040300 	streq	r0, [r4, -r0, lsl #6]
     b30:	00000052 	andeq	r0, r0, r2, asr r0
     b34:	4d070803 	stcmi	8, cr0, [r7, #-12]
     b38:	04000000 	streq	r0, [r0], #-0
     b3c:	0000024e 	andeq	r0, r0, lr, asr #4
     b40:	8f192204 	svchi	0x00192204
     b44:	05000000 	streq	r0, [r0, #-0]
     b48:	00009504 	andeq	r9, r0, r4, lsl #10
     b4c:	03f90600 	mvnseq	r0, #0, 12
     b50:	99040000 	stmdbls	r4, {}	; <UNPREDICTABLE>
     b54:	05000002 	streq	r0, [r0, #-2]
     b58:	00410e2c 	subeq	r0, r1, ip, lsr #28
     b5c:	0e040000 	cdpeq	0, 0, cr0, cr4, cr0, {0}
     b60:	05000004 	streq	r0, [r0, #-4]
     b64:	00410e72 	subeq	r0, r1, r2, ror lr
     b68:	56070000 	strpl	r0, [r7], -r0
     b6c:	06000002 	streq	r0, [r0], -r2
     b70:	2c17015e 	ldfcss	f0, [r7], {94}	; 0x5e
     b74:	08000000 	stmdaeq	r0, {}	; <UNPREDICTABLE>
     b78:	03a60504 			; <UNDEFINED> instruction: 0x03a60504
     b7c:	000000e1 	andeq	r0, r0, r1, ror #1
     b80:	00024809 	andeq	r4, r2, r9, lsl #16
     b84:	0ca80500 	cfstr32eq	mvfx0, [r8]
     b88:	000000b2 	strheq	r0, [r0], -r2
     b8c:	0001da09 	andeq	sp, r1, r9, lsl #20
     b90:	13a90500 			; <UNDEFINED> instruction: 0x13a90500
     b94:	000000e1 	andeq	r0, r0, r1, ror #1
     b98:	005b0a00 	subseq	r0, fp, r0, lsl #20
     b9c:	00f10000 	rscseq	r0, r1, r0
     ba0:	2c0b0000 	stccs	0, cr0, [fp], {-0}
     ba4:	03000000 	movweq	r0, #0
     ba8:	05080c00 	streq	r0, [r8, #-3072]	; 0xfffff400
     bac:	011509a3 	tsteq	r5, r3, lsr #19
     bb0:	f10d0000 			; <UNDEFINED> instruction: 0xf10d0000
     bb4:	05000003 	streq	r0, [r0, #-3]
     bb8:	002507a5 	eoreq	r0, r5, r5, lsr #15
     bbc:	0d000000 	stceq	0, cr0, [r0, #-0]
     bc0:	00000400 	andeq	r0, r0, r0, lsl #8
     bc4:	bf05aa05 	svclt	0x0005aa05
     bc8:	04000000 	streq	r0, [r0], #-0
     bcc:	037b0400 	cmneq	fp, #0, 8
     bd0:	ab050000 	blge	140bd8 <__bss_end__+0x136c78>
     bd4:	0000f103 	andeq	pc, r0, r3, lsl #2
     bd8:	01970400 	orrseq	r0, r7, r0, lsl #8
     bdc:	af050000 	svcge	0x00050000
     be0:	0000831b 	andeq	r8, r0, fp, lsl r3
     be4:	05040e00 	streq	r0, [r4, #-3584]	; 0xfffff200
     be8:	00013504 	andeq	r3, r1, r4, lsl #10
     bec:	08010300 	stmdaeq	r1, {r8, r9}
     bf0:	000002c1 	andeq	r0, r0, r1, asr #5
     bf4:	0001350f 	andeq	r3, r1, pc, lsl #10
     bf8:	04400400 	strbeq	r0, [r0], #-1024	; 0xfffffc00
     bfc:	16070000 	strne	r0, [r7], -r0
     c00:	00007519 	andeq	r7, r0, r9, lsl r5
     c04:	01a81000 			; <UNDEFINED> instruction: 0x01a81000
     c08:	07180000 	ldreq	r0, [r8, -r0]
     c0c:	01a7082f 			; <UNDEFINED> instruction: 0x01a7082f
     c10:	9c0d0000 	stcls	0, cr0, [sp], {-0}
     c14:	07000003 	streq	r0, [r0, -r3]
     c18:	01a71331 			; <UNDEFINED> instruction: 0x01a71331
     c1c:	11000000 	mrsne	r0, (UNDEF: 0)
     c20:	07006b5f 	smlsdeq	r0, pc, fp, r6	; <UNPREDICTABLE>
     c24:	00250732 	eoreq	r0, r5, r2, lsr r7
     c28:	0d040000 	stceq	0, cr0, [r4, #-0]
     c2c:	000003dc 	ldrdeq	r0, [r0], -ip
     c30:	250b3207 	strcs	r3, [fp, #-519]	; 0xfffffdf9
     c34:	08000000 	stmdaeq	r0, {}	; <UNPREDICTABLE>
     c38:	0001910d 	andeq	r9, r1, sp, lsl #2
     c3c:	14320700 	ldrtne	r0, [r2], #-1792	; 0xfffff900
     c40:	00000025 	andeq	r0, r0, r5, lsr #32
     c44:	047c0d0c 	ldrbteq	r0, [ip], #-3340	; 0xfffff2f4
     c48:	32070000 	andcc	r0, r7, #0
     c4c:	0000251b 	andeq	r2, r0, fp, lsl r5
     c50:	5f111000 	svcpl	0x00111000
     c54:	33070078 	movwcc	r0, #28792	; 0x7078
     c58:	0001ad0b 	andeq	sl, r1, fp, lsl #26
     c5c:	05001400 	streq	r1, [r0, #-1024]	; 0xfffffc00
     c60:	00014d04 	andeq	r4, r1, r4, lsl #26
     c64:	01410a00 	cmpeq	r1, r0, lsl #20
     c68:	01bd0000 			; <UNDEFINED> instruction: 0x01bd0000
     c6c:	2c0b0000 	stccs	0, cr0, [fp], {-0}
     c70:	00000000 	andeq	r0, r0, r0
     c74:	01d51000 	bicseq	r1, r5, r0
     c78:	07240000 	streq	r0, [r4, -r0]!
     c7c:	02400837 	subeq	r0, r0, #3604480	; 0x370000
     c80:	8f0d0000 	svchi	0x000d0000
     c84:	07000000 	streq	r0, [r0, -r0]
     c88:	00250939 	eoreq	r0, r5, r9, lsr r9
     c8c:	0d000000 	stceq	0, cr0, [r0, #-0]
     c90:	00000416 	andeq	r0, r0, r6, lsl r4
     c94:	25093a07 	strcs	r3, [r9, #-2567]	; 0xfffff5f9
     c98:	04000000 	streq	r0, [r0], #-0
     c9c:	0000b20d 	andeq	fp, r0, sp, lsl #4
     ca0:	093b0700 	ldmdbeq	fp!, {r8, r9, sl}
     ca4:	00000025 	andeq	r0, r0, r5, lsr #32
     ca8:	05040d08 	streq	r0, [r4, #-3336]	; 0xfffff2f8
     cac:	3c070000 	stccc	0, cr0, [r7], {-0}
     cb0:	00002509 	andeq	r2, r0, r9, lsl #10
     cb4:	7d0d0c00 	stcvc	12, cr0, [sp, #-0]
     cb8:	07000002 	streq	r0, [r0, -r2]
     cbc:	0025093d 	eoreq	r0, r5, sp, lsr r9
     cc0:	0d100000 	ldceq	0, cr0, [r0, #-0]
     cc4:	0000026c 	andeq	r0, r0, ip, ror #4
     cc8:	25093e07 	strcs	r3, [r9, #-3591]	; 0xfffff1f9
     ccc:	14000000 	strne	r0, [r0], #-0
     cd0:	0004810d 	andeq	r8, r4, sp, lsl #2
     cd4:	093f0700 	ldmdbeq	pc!, {r8, r9, sl}	; <UNPREDICTABLE>
     cd8:	00000025 	andeq	r0, r0, r5, lsr #32
     cdc:	035d0d18 	cmpeq	sp, #24, 26	; 0x600
     ce0:	40070000 	andmi	r0, r7, r0
     ce4:	00002509 	andeq	r2, r0, r9, lsl #10
     ce8:	cb0d1c00 	blgt	347cf0 <__bss_end__+0x33dd90>
     cec:	07000004 	streq	r0, [r0, -r4]
     cf0:	00250941 	eoreq	r0, r5, r1, asr #18
     cf4:	00200000 	eoreq	r0, r0, r0
     cf8:	0000f212 	andeq	pc, r0, r2, lsl r2	; <UNPREDICTABLE>
     cfc:	07010800 	streq	r0, [r1, -r0, lsl #16]
     d00:	0285084a 	addeq	r0, r5, #4849664	; 0x4a0000
     d04:	840d0000 	strhi	r0, [sp], #-0
     d08:	07000001 	streq	r0, [r0, -r1]
     d0c:	02850a4b 	addeq	r0, r5, #307200	; 0x4b000
     d10:	0d000000 	stceq	0, cr0, [r0, #-0]
     d14:	00000000 	andeq	r0, r0, r0
     d18:	85094c07 	strhi	r4, [r9, #-3079]	; 0xfffff3f9
     d1c:	80000002 	andhi	r0, r0, r2
     d20:	00043213 	andeq	r3, r4, r3, lsl r2
     d24:	0a4e0700 	beq	138292c <__bss_end__+0x13789cc>
     d28:	00000141 	andeq	r0, r0, r1, asr #2
     d2c:	17130100 	ldrne	r0, [r3, -r0, lsl #2]
     d30:	07000001 	streq	r0, [r0, -r1]
     d34:	01410a51 	cmpeq	r1, r1, asr sl
     d38:	01040000 	mrseq	r0, (UNDEF: 4)
     d3c:	012d0a00 			; <UNDEFINED> instruction: 0x012d0a00
     d40:	02950000 	addseq	r0, r5, #0
     d44:	2c0b0000 	stccs	0, cr0, [fp], {-0}
     d48:	1f000000 	svcne	0x00000000
     d4c:	02861200 	addeq	r1, r6, #0, 4
     d50:	01900000 	orrseq	r0, r0, r0
     d54:	d8085d07 	stmdale	r8, {r0, r1, r2, r8, sl, fp, ip, lr}
     d58:	0d000002 	stceq	0, cr0, [r0, #-8]
     d5c:	0000039c 	muleq	r0, ip, r3
     d60:	d8125e07 	ldmdale	r2, {r0, r1, r2, r9, sl, fp, ip, lr}
     d64:	00000002 	andeq	r0, r0, r2
     d68:	0003b40d 	andeq	fp, r3, sp, lsl #8
     d6c:	065f0700 	ldrbeq	r0, [pc], -r0, lsl #14
     d70:	00000025 	andeq	r0, r0, r5, lsr #32
     d74:	018c0d04 	orreq	r0, ip, r4, lsl #26
     d78:	61070000 	mrsvs	r0, (UNDEF: 7)
     d7c:	0002de09 	andeq	sp, r2, r9, lsl #28
     d80:	f20d0800 	vadd.i8	d0, d13, d0
     d84:	07000000 	streq	r0, [r0, -r0]
     d88:	02401e62 	subeq	r1, r0, #1568	; 0x620
     d8c:	00880000 	addeq	r0, r8, r0
     d90:	02950405 	addseq	r0, r5, #83886080	; 0x5000000
     d94:	ee0a0000 	cdp	0, 0, cr0, cr10, cr0, {0}
     d98:	ee000002 	cdp	0, 0, cr0, cr0, cr2, {0}
     d9c:	0b000002 	bleq	dac <_start-0x7254>
     da0:	0000002c 	andeq	r0, r0, ip, lsr #32
     da4:	0405001f 	streq	r0, [r5], #-31	; 0xffffffe1
     da8:	000002f4 	strdeq	r0, [r0], -r4
     dac:	03671014 	cmneq	r7, #20
     db0:	07080000 	streq	r0, [r8, -r0]
     db4:	031d0875 	tsteq	sp, #7667712	; 0x750000
     db8:	ac0d0000 	stcge	0, cr0, [sp], {-0}
     dbc:	07000000 	streq	r0, [r0, -r0]
     dc0:	031d1176 	tsteq	sp, #-2147483619	; 0x8000001d
     dc4:	0d000000 	stceq	0, cr0, [r0, #-0]
     dc8:	0000000c 	andeq	r0, r0, ip
     dcc:	25067707 	strcs	r7, [r6, #-1799]	; 0xfffff8f9
     dd0:	04000000 	streq	r0, [r0], #-0
     dd4:	5b040500 	blpl	1021dc <__bss_end__+0xf827c>
     dd8:	10000000 	andne	r0, r0, r0
     ddc:	00000386 	andeq	r0, r0, r6, lsl #7
     de0:	08b50768 	ldmeq	r5!, {r3, r5, r6, r8, r9, sl}
     de4:	00000466 	andeq	r0, r0, r6, ror #8
     de8:	00705f11 	rsbseq	r5, r0, r1, lsl pc
     dec:	1d12b607 	ldcne	6, cr11, [r2, #-28]	; 0xffffffe4
     df0:	00000003 	andeq	r0, r0, r3
     df4:	00725f11 	rsbseq	r5, r2, r1, lsl pc
     df8:	2507b707 	strcs	fp, [r7, #-1799]	; 0xfffff8f9
     dfc:	04000000 	streq	r0, [r0], #-0
     e00:	00775f11 	rsbseq	r5, r7, r1, lsl pc
     e04:	2507b807 	strcs	fp, [r7, #-2055]	; 0xfffff7f9
     e08:	08000000 	stmdaeq	r0, {}	; <UNPREDICTABLE>
     e0c:	0001100d 	andeq	r1, r1, sp
     e10:	09b90700 	ldmibeq	r9!, {r8, r9, sl}
     e14:	0000003a 	andeq	r0, r0, sl, lsr r0
     e18:	01f10d0c 	mvnseq	r0, ip, lsl #26
     e1c:	ba070000 	blt	1c0e24 <__bss_end__+0x1b6ec4>
     e20:	00003a09 	andeq	r3, r0, r9, lsl #20
     e24:	5f110e00 	svcpl	0x00110e00
     e28:	07006662 	streq	r6, [r0, -r2, ror #12]
     e2c:	02f511bb 	rscseq	r1, r5, #-1073741778	; 0xc000002e
     e30:	0d100000 	ldceq	0, cr0, [r0, #-0]
     e34:	0000006c 	andeq	r0, r0, ip, rrx
     e38:	2507bc07 	strcs	fp, [r7, #-3079]	; 0xfffff3f9
     e3c:	18000000 	stmdane	r0, {}	; <UNPREDICTABLE>
     e40:	0001000d 	andeq	r0, r1, sp
     e44:	0ac30700 	beq	ff0c2a4c <__bss_end__+0xff0b8aec>
     e48:	0000012d 	andeq	r0, r0, sp, lsr #2
     e4c:	0b240d1c 	bleq	9042c4 <__bss_end__+0x8fa364>
     e50:	c5070000 	strgt	r0, [r7, #-0]
     e54:	0005d81d 	andeq	sp, r5, sp, lsl r8
     e58:	190d2000 	stmdbne	sp, {sp}
     e5c:	07000006 	streq	r0, [r0, -r6]
     e60:	06021dc7 	streq	r1, [r2], -r7, asr #27
     e64:	0d240000 	stceq	0, cr0, [r4, #-0]
     e68:	00000408 	andeq	r0, r0, r8, lsl #8
     e6c:	260dca07 	strcs	ip, [sp], -r7, lsl #20
     e70:	28000006 	stmdacs	r0, {r1, r2}
     e74:	0004e50d 	andeq	lr, r4, sp, lsl #10
     e78:	09cb0700 	stmibeq	fp, {r8, r9, sl}^
     e7c:	00000640 	andeq	r0, r0, r0, asr #12
     e80:	755f112c 	ldrbvc	r1, [pc, #-300]	; d5c <_start-0x72a4>
     e84:	ce070062 	cdpgt	0, 0, cr0, cr7, cr2, {3}
     e88:	0002f511 	andeq	pc, r2, r1, lsl r5	; <UNPREDICTABLE>
     e8c:	5f113000 	svcpl	0x00113000
     e90:	07007075 	smlsdxeq	r0, r5, r0, r7
     e94:	031d12cf 	tsteq	sp, #-268435444	; 0xf000000c
     e98:	11380000 	teqne	r8, r0
     e9c:	0072755f 	rsbseq	r7, r2, pc, asr r5
     ea0:	2507d007 	strcs	sp, [r7, #-7]
     ea4:	3c000000 	stccc	0, cr0, [r0], {-0}
     ea8:	0000a60d 	andeq	sl, r0, sp, lsl #12
     eac:	11d30700 	bicsne	r0, r3, r0, lsl #14
     eb0:	00000646 	andeq	r0, r0, r6, asr #12
     eb4:	04bd0d40 	ldrteq	r0, [sp], #3392	; 0xd40
     eb8:	d4070000 	strle	r0, [r7], #-0
     ebc:	00065611 	andeq	r5, r6, r1, lsl r6
     ec0:	5f114300 	svcpl	0x00114300
     ec4:	0700626c 	streq	r6, [r0, -ip, ror #4]
     ec8:	02f511d7 	rscseq	r1, r5, #-1073741771	; 0xc0000035
     ecc:	0d440000 	stcleq	0, cr0, [r4, #-0]
     ed0:	00000135 	andeq	r0, r0, r5, lsr r1
     ed4:	2507da07 	strcs	sp, [r7, #-2567]	; 0xfffff5f9
     ed8:	4c000000 	stcmi	0, cr0, [r0], {-0}
     edc:	0001460d 	andeq	r4, r1, sp, lsl #12
     ee0:	0adb0700 	beq	ff6c2ae8 <__bss_end__+0xff6b8b88>
     ee4:	0000009a 	muleq	r0, sl, r0
     ee8:	0ac50d50 	beq	ff144430 <__bss_end__+0xff13a4d0>
     eec:	de070000 	cdple	0, 0, cr0, cr7, cr0, {0}
     ef0:	00048412 	andeq	r8, r4, r2, lsl r4
     ef4:	fa0d5400 	blx	355efc <__bss_end__+0x34bf9c>
     ef8:	07000003 	streq	r0, [r0, -r3]
     efc:	01210ce2 	smulwteq	r1, r2, ip
     f00:	0d580000 	ldcleq	0, cr0, [r8, #-0]
     f04:	0000038e 	andeq	r0, r0, lr, lsl #7
     f08:	150ee407 	strne	lr, [lr, #-1031]	; 0xfffffbf9
     f0c:	5c000001 	stcpl	0, cr0, [r0], {1}
     f10:	0002640d 	andeq	r6, r2, sp, lsl #8
     f14:	09e50700 	stmibeq	r5!, {r8, r9, sl}^
     f18:	00000025 	andeq	r0, r0, r5, lsr #32
     f1c:	25150064 	ldrcs	r0, [r5, #-100]	; 0xffffff9c
     f20:	84000000 	strhi	r0, [r0], #-0
     f24:	16000004 	strne	r0, [r0], -r4
     f28:	00000484 	andeq	r0, r0, r4, lsl #9
     f2c:	00012d16 	andeq	r2, r1, r6, lsl sp
     f30:	012f1600 			; <UNDEFINED> instruction: 0x012f1600
     f34:	25160000 	ldrcs	r0, [r6, #-0]
     f38:	00000000 	andeq	r0, r0, r0
     f3c:	048f0405 	streq	r0, [pc], #1029	; f44 <_start-0x70bc>
     f40:	840f0000 	strhi	r0, [pc], #-0	; f48 <_start-0x70b8>
     f44:	17000004 	strne	r0, [r0, -r4]
     f48:	000003e4 	andeq	r0, r0, r4, ror #7
     f4c:	60070428 	andvs	r0, r7, r8, lsr #8
     f50:	05d80802 	ldrbeq	r0, [r8, #2050]	; 0x802
     f54:	4c180000 	ldcmi	0, cr0, [r8], {-0}
     f58:	07000003 	streq	r0, [r0, -r3]
     f5c:	25070262 	strcs	r0, [r7, #-610]	; 0xfffffd9e
     f60:	00000000 	andeq	r0, r0, r0
     f64:	00049118 	andeq	r9, r4, r8, lsl r1
     f68:	02670700 	rsbeq	r0, r7, #0, 14
     f6c:	0006b20b 	andeq	fp, r6, fp, lsl #4
     f70:	e1180400 	tst	r8, r0, lsl #8
     f74:	07000001 	streq	r0, [r0, -r1]
     f78:	b2140267 	andslt	r0, r4, #1879048198	; 0x70000006
     f7c:	08000006 	stmdaeq	r0, {r1, r2}
     f80:	0001a018 	andeq	sl, r1, r8, lsl r0
     f84:	02670700 	rsbeq	r0, r7, #0, 14
     f88:	0006b21e 	andeq	fp, r6, lr, lsl r2
     f8c:	af180c00 	svcge	0x00180c00
     f90:	07000003 	streq	r0, [r0, -r3]
     f94:	25080269 	strcs	r0, [r8, #-617]	; 0xfffffd97
     f98:	10000000 	andne	r0, r0, r0
     f9c:	00001a18 	andeq	r1, r0, r8, lsl sl
     fa0:	026a0700 	rsbeq	r0, sl, #0, 14
     fa4:	0008b208 	andeq	fp, r8, r8, lsl #4
     fa8:	c3181400 	tstgt	r8, #0, 8
     fac:	07000003 	streq	r0, [r0, -r3]
     fb0:	2507026d 	strcs	r0, [r7, #-621]	; 0xfffffd93
     fb4:	30000000 	andcc	r0, r0, r0
     fb8:	000a0118 	andeq	r0, sl, r8, lsl r1
     fbc:	026e0700 	rsbeq	r0, lr, #0, 14
     fc0:	0008c716 	andeq	ip, r8, r6, lsl r7
     fc4:	8e183400 	cfmulshi	mvf3, mvf8, mvf0
     fc8:	07000002 	streq	r0, [r0, -r2]
     fcc:	25070270 	strcs	r0, [r7, #-624]	; 0xfffffd90
     fd0:	38000000 	stmdacc	r0, {}	; <UNPREDICTABLE>
     fd4:	0003b918 	andeq	fp, r3, r8, lsl r9
     fd8:	02720700 	rsbseq	r0, r2, #0, 14
     fdc:	0008d80a 	andeq	sp, r8, sl, lsl #16
     fe0:	40183c00 	andsmi	r3, r8, r0, lsl #24
     fe4:	07000002 	streq	r0, [r0, -r2]
     fe8:	a7130275 			; <UNDEFINED> instruction: 0xa7130275
     fec:	40000001 	andmi	r0, r0, r1
     ff0:	0001bf18 	andeq	fp, r1, r8, lsl pc
     ff4:	02760700 	rsbseq	r0, r6, #0, 14
     ff8:	00002507 	andeq	r2, r0, r7, lsl #10
     ffc:	ff184400 			; <UNDEFINED> instruction: 0xff184400
    1000:	07000004 	streq	r0, [r0, -r4]
    1004:	a7130277 			; <UNDEFINED> instruction: 0xa7130277
    1008:	48000001 	stmdami	r0, {r0}
    100c:	0002a018 	andeq	sl, r2, r8, lsl r0
    1010:	02780700 	rsbseq	r0, r8, #0, 14
    1014:	0008de14 	andeq	sp, r8, r4, lsl lr
    1018:	e9184c00 	ldmdb	r8, {sl, fp, lr}
    101c:	07000001 	streq	r0, [r0, -r1]
    1020:	2507027b 	strcs	r0, [r7, #-635]	; 0xfffffd85
    1024:	50000000 	andpl	r0, r0, r0
    1028:	00013e18 	andeq	r3, r1, r8, lsl lr
    102c:	027c0700 	rsbseq	r0, ip, #0, 14
    1030:	00012f09 	andeq	r2, r1, r9, lsl #30
    1034:	c6185400 	ldrgt	r5, [r8], -r0, lsl #8
    1038:	07000002 	streq	r0, [r0, -r2]
    103c:	8d07029f 	sfmhi	f0, 4, [r7, #-636]	; 0xfffffd84
    1040:	58000008 	stmdapl	r0, {r3}
    1044:	00028619 	andeq	r8, r2, r9, lsl r6
    1048:	02a30700 	adceq	r0, r3, #0, 14
    104c:	0002d813 	andeq	sp, r2, r3, lsl r8
    1050:	19014800 	stmdbne	r1, {fp, lr}
    1054:	0000021e 	andeq	r0, r0, lr, lsl r2
    1058:	1202a407 	andne	sl, r2, #117440512	; 0x7000000
    105c:	00000295 	muleq	r0, r5, r2
    1060:	ab19014c 	blge	641598 <__bss_end__+0x637638>
    1064:	07000004 	streq	r0, [r0, -r4]
    1068:	ef0c02a8 	svc	0x000c02a8
    106c:	dc000008 	stcle	0, cr0, [r0], {8}
    1070:	01081902 	tsteq	r8, r2, lsl #18
    1074:	ad070000 	stcge	0, cr0, [r7, #-0]
    1078:	06731002 	ldrbteq	r1, [r3], -r2
    107c:	02e00000 	rsceq	r0, r0, #0
    1080:	0000ed19 	andeq	lr, r0, r9, lsl sp
    1084:	02af0700 	adceq	r0, pc, #0, 14
    1088:	0008fb0a 	andeq	pc, r8, sl, lsl #22
    108c:	0002ec00 	andeq	lr, r2, r0, lsl #24
    1090:	04660405 	strbteq	r0, [r6], #-1029	; 0xfffffbfb
    1094:	25150000 	ldrcs	r0, [r5, #-0]
    1098:	fc000000 	stc2	0, cr0, [r0], {-0}
    109c:	16000005 	strne	r0, [r0], -r5
    10a0:	00000484 	andeq	r0, r0, r4, lsl #9
    10a4:	00012d16 	andeq	r2, r1, r6, lsl sp
    10a8:	05fc1600 	ldrbeq	r1, [ip, #1536]!	; 0x600
    10ac:	25160000 	ldrcs	r0, [r6, #-0]
    10b0:	00000000 	andeq	r0, r0, r0
    10b4:	013c0405 	teqeq	ip, r5, lsl #8
    10b8:	04050000 	streq	r0, [r5], #-0
    10bc:	000005de 	ldrdeq	r0, [r0], -lr
    10c0:	0000a615 	andeq	sl, r0, r5, lsl r6
    10c4:	00062600 	andeq	r2, r6, r0, lsl #12
    10c8:	04841600 	streq	r1, [r4], #1536	; 0x600
    10cc:	2d160000 	ldccs	0, cr0, [r6, #-0]
    10d0:	16000001 	strne	r0, [r0], -r1
    10d4:	000000a6 	andeq	r0, r0, r6, lsr #1
    10d8:	00002516 	andeq	r2, r0, r6, lsl r5
    10dc:	04050000 	streq	r0, [r5], #-0
    10e0:	00000608 	andeq	r0, r0, r8, lsl #12
    10e4:	00002515 	andeq	r2, r0, r5, lsl r5
    10e8:	00064000 	andeq	r4, r6, r0
    10ec:	04841600 	streq	r1, [r4], #1536	; 0x600
    10f0:	2d160000 	ldccs	0, cr0, [r6, #-0]
    10f4:	00000001 	andeq	r0, r0, r1
    10f8:	062c0405 	strteq	r0, [ip], -r5, lsl #8
    10fc:	5b0a0000 	blpl	281104 <__bss_end__+0x2771a4>
    1100:	56000000 	strpl	r0, [r0], -r0
    1104:	0b000006 	bleq	1124 <_start-0x6edc>
    1108:	0000002c 	andeq	r0, r0, ip, lsr #32
    110c:	5b0a0002 	blpl	28111c <__bss_end__+0x2771bc>
    1110:	66000000 	strvs	r0, [r0], -r0
    1114:	0b000006 	bleq	1134 <_start-0x6ecc>
    1118:	0000002c 	andeq	r0, r0, ip, lsr #32
    111c:	74070000 	strvc	r0, [r7], #-0
    1120:	07000003 	streq	r0, [r0, -r3]
    1124:	231a011f 	tstcs	sl, #-1073741817	; 0xc0000007
    1128:	1a000003 	bne	113c <_start-0x6ec4>
    112c:	0000048b 	andeq	r0, r0, fp, lsl #9
    1130:	0123070c 			; <UNDEFINED> instruction: 0x0123070c
    1134:	0006ac08 	andeq	sl, r6, r8, lsl #24
    1138:	039c1800 	orrseq	r1, ip, #0, 16
    113c:	25070000 	strcs	r0, [r7, #-0]
    1140:	06ac1101 	strteq	r1, [ip], r1, lsl #2
    1144:	18000000 	stmdane	r0, {}	; <UNPREDICTABLE>
    1148:	00000204 	andeq	r0, r0, r4, lsl #4
    114c:	07012607 	streq	r2, [r1, -r7, lsl #12]
    1150:	00000025 	andeq	r0, r0, r5, lsr #32
    1154:	036e1804 	cmneq	lr, #4, 16	; 0x40000
    1158:	27070000 	strcs	r0, [r7, -r0]
    115c:	06b20b01 	ldrteq	r0, [r2], r1, lsl #22
    1160:	00080000 	andeq	r0, r8, r0
    1164:	06730405 	ldrbteq	r0, [r3], -r5, lsl #8
    1168:	04050000 	streq	r0, [r5], #-0
    116c:	00000666 	andeq	r0, r0, r6, ror #12
    1170:	0000121a 	andeq	r1, r0, sl, lsl r2
    1174:	3f070e00 	svccc	0x00070e00
    1178:	06f10801 	ldrbteq	r0, [r1], r1, lsl #16
    117c:	eb180000 	bl	601184 <__bss_end__+0x5f7224>
    1180:	07000003 	streq	r0, [r0, -r3]
    1184:	f1120140 			; <UNDEFINED> instruction: 0xf1120140
    1188:	00000006 	andeq	r0, r0, r6
    118c:	00041f18 	andeq	r1, r4, r8, lsl pc
    1190:	01410700 	cmpeq	r1, r0, lsl #14
    1194:	0006f112 	andeq	pc, r6, r2, lsl r1	; <UNPREDICTABLE>
    1198:	3b180600 	blcc	6029a0 <__bss_end__+0x5f8a40>
    119c:	07000004 	streq	r0, [r0, -r4]
    11a0:	62120142 	andsvs	r0, r2, #-2147483632	; 0x80000010
    11a4:	0c000000 	stceq	0, cr0, [r0], {-0}
    11a8:	00620a00 	rsbeq	r0, r2, r0, lsl #20
    11ac:	07010000 	streq	r0, [r1, -r0]
    11b0:	2c0b0000 	stccs	0, cr0, [fp], {-0}
    11b4:	02000000 	andeq	r0, r0, #0
    11b8:	07d01b00 	ldrbeq	r1, [r0, r0, lsl #22]
    11bc:	16070280 	strne	r0, [r7], -r0, lsl #5
    11c0:	18000008 	stmdane	r0, {r3}
    11c4:	0000046f 	andeq	r0, r0, pc, ror #8
    11c8:	18028207 	stmdane	r2, {r0, r1, r2, r9, pc}
    11cc:	0000002c 	andeq	r0, r0, ip, lsr #32
    11d0:	04251800 	strteq	r1, [r5], #-2048	; 0xfffff800
    11d4:	83070000 	movwhi	r0, #28672	; 0x7000
    11d8:	012f1202 			; <UNDEFINED> instruction: 0x012f1202
    11dc:	18040000 	stmdane	r4, {}	; <UNPREDICTABLE>
    11e0:	00000233 	andeq	r0, r0, r3, lsr r2
    11e4:	10028407 	andne	r8, r2, r7, lsl #8
    11e8:	00000816 	andeq	r0, r0, r6, lsl r8
    11ec:	04d61808 	ldrbeq	r1, [r6], #2056	; 0x808
    11f0:	85070000 	strhi	r0, [r7, #-0]
    11f4:	01bd1702 			; <UNDEFINED> instruction: 0x01bd1702
    11f8:	18240000 	stmdane	r4!, {}	; <UNPREDICTABLE>
    11fc:	000001b0 			; <UNDEFINED> instruction: 0x000001b0
    1200:	0f028607 	svceq	0x00028607
    1204:	00000025 	andeq	r0, r0, r5, lsr #32
    1208:	03971848 	orrseq	r1, r7, #72, 16	; 0x480000
    120c:	87070000 	strhi	r0, [r7, -r0]
    1210:	007c2c02 	rsbseq	r2, ip, r2, lsl #24
    1214:	18500000 	ldmdane	r0, {}^	; <UNPREDICTABLE>
    1218:	000004ec 	andeq	r0, r0, ip, ror #9
    121c:	1a028807 	bne	a3240 <__bss_end__+0x992e0>
    1220:	000006b8 			; <UNDEFINED> instruction: 0x000006b8
    1224:	03a21858 			; <UNDEFINED> instruction: 0x03a21858
    1228:	89070000 	stmdbhi	r7, {}	; <UNPREDICTABLE>
    122c:	01151602 	tsteq	r5, r2, lsl #12
    1230:	18680000 	stmdane	r8!, {}^	; <UNPREDICTABLE>
    1234:	000004f1 	strdeq	r0, [r0], -r1
    1238:	16028a07 	strne	r8, [r2], -r7, lsl #20
    123c:	00000115 	andeq	r0, r0, r5, lsl r1
    1240:	02aa1870 	adceq	r1, sl, #112, 16	; 0x700000
    1244:	8b070000 	blhi	1c124c <__bss_end__+0x1b72ec>
    1248:	01151602 	tsteq	r5, r2, lsl #12
    124c:	18780000 	ldmdane	r8!, {}^	; <UNPREDICTABLE>
    1250:	000004a1 	andeq	r0, r0, r1, lsr #9
    1254:	10028c07 	andne	r8, r2, r7, lsl #24
    1258:	00000826 	andeq	r0, r0, r6, lsr #16
    125c:	02271880 	eoreq	r1, r7, #128, 16	; 0x800000
    1260:	8d070000 	stchi	0, cr0, [r7, #-0]
    1264:	08361002 	ldmdaeq	r6!, {r1, ip}
    1268:	18880000 	stmne	r8, {}	; <UNPREDICTABLE>
    126c:	00000448 	andeq	r0, r0, r8, asr #8
    1270:	0f028e07 	svceq	0x00028e07
    1274:	00000025 	andeq	r0, r0, r5, lsr #32
    1278:	017618a0 	cmneq	r6, r0, lsr #17
    127c:	8f070000 	svchi	0x00070000
    1280:	01151602 	tsteq	r5, r2, lsl #12
    1284:	18a40000 	stmiane	r4!, {}	; <UNPREDICTABLE>
    1288:	00000080 	andeq	r0, r0, r0, lsl #1
    128c:	16029007 	strne	r9, [r2], -r7
    1290:	00000115 	andeq	r0, r0, r5, lsl r1
    1294:	016518ac 	cmneq	r5, ip, lsr #17
    1298:	91070000 	mrsls	r0, (UNDEF: 7)
    129c:	01151602 	tsteq	r5, r2, lsl #12
    12a0:	18b40000 	ldmne	r4!, {}	; <UNPREDICTABLE>
    12a4:	0000002d 	andeq	r0, r0, sp, lsr #32
    12a8:	16029207 	strne	r9, [r2], -r7, lsl #4
    12ac:	00000115 	andeq	r0, r0, r5, lsl r1
    12b0:	003c18bc 	ldrhteq	r1, [ip], -ip
    12b4:	93070000 	movwls	r0, #28672	; 0x7000
    12b8:	01151602 	tsteq	r5, r2, lsl #12
    12bc:	18c40000 	stmiane	r4, {}^	; <UNPREDICTABLE>
    12c0:	0000034a 	andeq	r0, r0, sl, asr #6
    12c4:	08029407 	stmdaeq	r2, {r0, r1, r2, sl, ip, pc}
    12c8:	00000025 	andeq	r0, r0, r5, lsr #32
    12cc:	350a00cc 	strcc	r0, [sl, #-204]	; 0xffffff34
    12d0:	26000001 	strcs	r0, [r0], -r1
    12d4:	0b000008 	bleq	12fc <_start-0x6d04>
    12d8:	0000002c 	andeq	r0, r0, ip, lsr #32
    12dc:	350a0019 	strcc	r0, [sl, #-25]	; 0xffffffe7
    12e0:	36000001 	strcc	r0, [r0], -r1
    12e4:	0b000008 	bleq	130c <_start-0x6cf4>
    12e8:	0000002c 	andeq	r0, r0, ip, lsr #32
    12ec:	350a0007 	strcc	r0, [sl, #-7]
    12f0:	46000001 	strmi	r0, [r0], -r1
    12f4:	0b000008 	bleq	131c <_start-0x6ce4>
    12f8:	0000002c 	andeq	r0, r0, ip, lsr #32
    12fc:	f01b0017 			; <UNDEFINED> instruction: 0xf01b0017
    1300:	07029907 	streq	r9, [r2, -r7, lsl #18]
    1304:	0000086d 	andeq	r0, r0, sp, ror #16
    1308:	00027618 	andeq	r7, r2, r8, lsl r6
    130c:	029c0700 	addseq	r0, ip, #0, 14
    1310:	00086d1b 	andeq	r6, r8, fp, lsl sp
    1314:	98180000 	ldmdals	r8, {}	; <UNPREDICTABLE>
    1318:	07000004 	streq	r0, [r0, -r4]
    131c:	7d18029d 	lfmvc	f0, 4, [r8, #-628]	; 0xfffffd8c
    1320:	78000008 	stmdavc	r0, {r3}
    1324:	031d0a00 	tsteq	sp, #0, 20
    1328:	087d0000 	ldmdaeq	sp!, {}^	; <UNPREDICTABLE>
    132c:	2c0b0000 	stccs	0, cr0, [fp], {-0}
    1330:	1d000000 	stcne	0, cr0, [r0, #-0]
    1334:	002c0a00 	eoreq	r0, ip, r0, lsl #20
    1338:	088d0000 	stmeq	sp, {}	; <UNPREDICTABLE>
    133c:	2c0b0000 	stccs	0, cr0, [fp], {-0}
    1340:	1d000000 	stcne	0, cr0, [r0, #-0]
    1344:	07f01c00 	ldrbeq	r1, [r0, r0, lsl #24]!
    1348:	b203027e 	andlt	r0, r3, #-536870905	; 0xe0000007
    134c:	1d000008 	stcne	0, cr0, [r0, #-32]	; 0xffffffe0
    1350:	000003e4 	andeq	r0, r0, r4, ror #7
    1354:	0b029507 	bleq	a6778 <__bss_end__+0x9c818>
    1358:	00000701 	andeq	r0, r0, r1, lsl #14
    135c:	0004c31d 	andeq	ip, r4, sp, lsl r3
    1360:	029e0700 	addseq	r0, lr, #0, 14
    1364:	0008460b 	andeq	r4, r8, fp, lsl #12
    1368:	350a0000 	strcc	r0, [sl, #-0]
    136c:	c2000001 	andgt	r0, r0, #1
    1370:	0b000008 	bleq	1398 <_start-0x6c68>
    1374:	0000002c 	andeq	r0, r0, ip, lsr #32
    1378:	75060018 	strvc	r0, [r6, #-24]	; 0xffffffe8
    137c:	05000000 	streq	r0, [r0, #-0]
    1380:	0008c204 	andeq	ip, r8, r4, lsl #4
    1384:	08d81e00 	ldmeq	r8, {r9, sl, fp, ip}^
    1388:	84160000 	ldrhi	r0, [r6], #-0
    138c:	00000004 	andeq	r0, r0, r4
    1390:	08cd0405 	stmiaeq	sp, {r0, r2, sl}^
    1394:	04050000 	streq	r0, [r5], #-0
    1398:	000001a7 	andeq	r0, r0, r7, lsr #3
    139c:	0008ef1e 	andeq	lr, r8, lr, lsl pc
    13a0:	00251600 	eoreq	r1, r5, r0, lsl #12
    13a4:	05000000 	streq	r0, [r0, #-0]
    13a8:	0008f504 	andeq	pc, r8, r4, lsl #10
    13ac:	e4040500 	str	r0, [r4], #-1280	; 0xfffffb00
    13b0:	0a000008 	beq	13d8 <_start-0x6c28>
    13b4:	00000666 	andeq	r0, r0, r6, ror #12
    13b8:	0000090b 	andeq	r0, r0, fp, lsl #18
    13bc:	00002c0b 	andeq	r2, r0, fp, lsl #24
    13c0:	1f000200 	svcne	0x00000200
    13c4:	0000045c 	andeq	r0, r0, ip, asr r4
    13c8:	17032e07 	strne	r2, [r3, -r7, lsl #28]
    13cc:	00000484 	andeq	r0, r0, r4, lsl #9
    13d0:	0004551f 	andeq	r5, r4, pc, lsl r5
    13d4:	032f0700 			; <UNDEFINED> instruction: 0x032f0700
    13d8:	00048a1d 	andeq	r8, r4, sp, lsl sl
    13dc:	00251500 	eoreq	r1, r5, r0, lsl #10
    13e0:	09340000 	ldmdbeq	r4!, {}	; <UNPREDICTABLE>
    13e4:	25160000 	ldrcs	r0, [r6, #-0]
    13e8:	00000000 	andeq	r0, r0, r0
    13ec:	0001c920 	andeq	ip, r1, r0, lsr #18
    13f0:	0e1d0800 	cdpeq	8, 1, cr0, cr13, cr0, {0}
    13f4:	00000940 	andeq	r0, r0, r0, asr #18
    13f8:	09250405 	stmdbeq	r5!, {r0, r2, sl}
    13fc:	25150000 	ldrcs	r0, [r5, #-0]
    1400:	55000000 	strpl	r0, [r0, #-0]
    1404:	16000009 	strne	r0, [r0], -r9
    1408:	000005fc 	strdeq	r0, [r0], -ip
    140c:	07682000 	strbeq	r2, [r8, -r0]!
    1410:	22080000 	andcs	r0, r8, #0
    1414:	0009610e 	andeq	r6, r9, lr, lsl #2
    1418:	46040500 	strmi	r0, [r4], -r0, lsl #10
    141c:	21000009 	tstcs	r0, r9
    1420:	005b0107 	subseq	r0, fp, r7, lsl #2
    1424:	24020000 	strcs	r0, [r2], #-0
    1428:	0009820e 	andeq	r8, r9, lr, lsl #4
    142c:	05542200 	ldrbeq	r2, [r4, #-512]	; 0xfffffe00
    1430:	220b0000 	andcs	r0, fp, #0
    1434:	0000054e 	andeq	r0, r0, lr, asr #10
    1438:	0c0c000c 	stceq	0, cr0, [ip], {12}
    143c:	b3092602 	movwlt	r2, #38402	; 0x9602
    1440:	0d000009 	stceq	0, cr0, [r0, #-36]	; 0xffffffdc
    1444:	000001f2 	strdeq	r0, [r0], -r2
    1448:	fc112702 	ldc2	7, cr2, [r1], {2}
    144c:	00000005 	andeq	r0, r0, r5
    1450:	0004b00d 	andeq	fp, r4, sp
    1454:	11280200 			; <UNDEFINED> instruction: 0x11280200
    1458:	000005fc 	strdeq	r0, [r0], -ip
    145c:	05250d04 	streq	r0, [r5, #-3332]!	; 0xfffff2fc
    1460:	29020000 	stmdbcs	r2, {}	; <UNPREDICTABLE>
    1464:	00002c0e 	andeq	r2, r0, lr, lsl #24
    1468:	04000800 	streq	r0, [r0], #-2048	; 0xfffff800
    146c:	0000063a 	andeq	r0, r0, sl, lsr r6
    1470:	82032a02 	andhi	r2, r3, #8192	; 0x2000
    1474:	10000009 	andne	r0, r0, r9
    1478:	000006ae 	andeq	r0, r0, lr, lsr #13
    147c:	102d0238 	eorne	r0, sp, r8, lsr r2
    1480:	00000a4f 	andeq	r0, r0, pc, asr #20
    1484:	0005f60d 	andeq	pc, r5, sp, lsl #12
    1488:	0e2e0200 	cdpeq	2, 2, cr0, cr14, cr0, {0}
    148c:	00000069 	andeq	r0, r0, r9, rrx
    1490:	06940d00 	ldreq	r0, [r4], r0, lsl #26
    1494:	2f020000 	svccs	0x00020000
    1498:	0000690e 	andeq	r6, r0, lr, lsl #18
    149c:	b20d0400 	andlt	r0, sp, #0, 8
    14a0:	02000002 	andeq	r0, r0, #2
    14a4:	00690e30 	rsbeq	r0, r9, r0, lsr lr
    14a8:	0d080000 	stceq	0, cr0, [r8, #-0]
    14ac:	000005f0 	strdeq	r0, [r0], -r0	; <UNPREDICTABLE>
    14b0:	690e3402 	stmdbvs	lr, {r1, sl, ip, sp}
    14b4:	0c000000 	stceq	0, cr0, [r0], {-0}
    14b8:	0005e20d 	andeq	lr, r5, sp, lsl #4
    14bc:	0f360200 	svceq	0x00360200
    14c0:	000009b3 			; <UNDEFINED> instruction: 0x000009b3
    14c4:	053b0d10 	ldreq	r0, [fp, #-3344]!	; 0xfffff2f0
    14c8:	37020000 	strcc	r0, [r2, -r0]
    14cc:	0009b30f 	andeq	fp, r9, pc, lsl #6
    14d0:	680d1c00 	stmdavs	sp, {sl, fp, ip}
    14d4:	02000005 	andeq	r0, r0, #5
    14d8:	00690e3b 	rsbeq	r0, r9, fp, lsr lr
    14dc:	0d280000 	stceq	0, cr0, [r8, #-0]
    14e0:	0000055c 	andeq	r0, r0, ip, asr r5
    14e4:	690e3c02 	stmdbvs	lr, {r1, sl, fp, ip, sp}
    14e8:	2c000000 	stccs	0, cr0, [r0], {-0}
    14ec:	00052c0d 	andeq	r2, r5, sp, lsl #24
    14f0:	153f0200 	ldrne	r0, [pc, #-512]!	; 12f8 <_start-0x6d08>
    14f4:	00000a4f 	andeq	r0, r0, pc, asr #20
    14f8:	050e0d30 	streq	r0, [lr, #-3376]	; 0xfffff2d0
    14fc:	41020000 	mrsmi	r0, (UNDEF: 2)
    1500:	0000690e 	andeq	r6, r0, lr, lsl #18
    1504:	05003400 	streq	r3, [r0, #-1024]	; 0xfffffc00
    1508:	0009bf04 	andeq	fp, r9, r4, lsl #30
    150c:	068e0400 	streq	r0, [lr], r0, lsl #8
    1510:	42020000 	andmi	r0, r2, #0
    1514:	0009bf03 	andeq	fp, r9, r3, lsl #30
    1518:	02072100 	andeq	r2, r7, #0, 2
    151c:	00000062 	andeq	r0, r0, r2, rrx
    1520:	89066202 	stmdbhi	r6, {r1, r9, sp, lr}
    1524:	2200000a 	andcs	r0, r0, #10
    1528:	00000664 	andeq	r0, r0, r4, ror #12
    152c:	058b22fe 	streq	r2, [fp, #766]	; 0x2fe
    1530:	22800000 	addcs	r0, r0, #0
    1534:	00000593 	muleq	r0, r3, r5
    1538:	057b23b8 	ldrbeq	r2, [fp, #-952]!	; 0xfffffc48
    153c:	01380000 	teqeq	r8, r0
    1540:	065f2400 	ldrbeq	r2, [pc], -r0, lsl #8
    1544:	07010000 	streq	r0, [r1, -r0]
    1548:	000a9b11 	andeq	r9, sl, r1, lsl fp
    154c:	54030500 	strpl	r0, [r3], #-1280	; 0xfffffb00
    1550:	0500009b 	streq	r0, [r0, #-155]	; 0xffffff65
    1554:	00004f04 	andeq	r4, r0, r4, lsl #30
    1558:	0c192400 	cfldrseq	mvf2, [r9], {-0}
    155c:	07010000 	streq	r0, [r1, -r0]
    1560:	000a9b1c 	andeq	r9, sl, ip, lsl fp
    1564:	58030500 	stmdapl	r3, {r8, sl}
    1568:	2400009b 	strcs	r0, [r0], #-155	; 0xffffff65
    156c:	00000c00 	andeq	r0, r0, r0, lsl #24
    1570:	9b270701 	blls	9c317c <__bss_end__+0x9b921c>
    1574:	0500000a 	streq	r0, [r0, #-10]
    1578:	009b5003 	addseq	r5, fp, r3
    157c:	05162500 	ldreq	r2, [r6, #-1280]	; 0xfffffb00
    1580:	aa010000 	bge	41588 <__bss_end__+0x37628>
    1584:	00002505 	andeq	r2, r0, r5, lsl #10
    1588:	0087a400 	addeq	sl, r7, r0, lsl #8
    158c:	00015000 	andeq	r5, r1, r0
    1590:	9a9c0100 	bls	fe701998 <__bss_end__+0xfe6f7a38>
    1594:	2600000c 	strcs	r0, [r0], -ip
    1598:	00000573 	andeq	r0, r0, r3, ror r5
    159c:	2c0eab01 			; <UNDEFINED> instruction: 0x2c0eab01
    15a0:	24000000 	strcs	r0, [r0], #-0
    15a4:	22000000 	andcs	r0, r0, #0
    15a8:	26000000 	strcs	r0, [r0], -r0
    15ac:	0000069f 	muleq	r0, pc, r6	; <UNPREDICTABLE>
    15b0:	2c0eac01 	stccs	12, cr10, [lr], {1}
    15b4:	39000000 	stmdbcc	r0, {}	; <UNPREDICTABLE>
    15b8:	37000000 	strcc	r0, [r0, -r0]
    15bc:	26000000 	strcs	r0, [r0], -r0
    15c0:	0000064d 	andeq	r0, r0, sp, asr #12
    15c4:	2c0eb001 	stccs	0, cr11, [lr], {1}
    15c8:	50000000 	andpl	r0, r0, r0
    15cc:	4c000000 	stcmi	0, cr0, [r0], {-0}
    15d0:	26000000 	strcs	r0, [r0], -r0
    15d4:	00000634 	andeq	r0, r0, r4, lsr r6
    15d8:	2c0eb101 	stfcsd	f3, [lr], {1}
    15dc:	73000000 	movwvc	r0, #0
    15e0:	6f000000 	svcvs	0x00000000
    15e4:	27000000 	strcs	r0, [r0, -r0]
    15e8:	00000048 	andeq	r0, r0, r8, asr #32
    15ec:	00000bf5 	strdeq	r0, [r0], -r5
    15f0:	00067326 	andeq	r7, r6, r6, lsr #6
    15f4:	11b40100 			; <UNDEFINED> instruction: 0x11b40100
    15f8:	00000c9a 	muleq	r0, sl, ip
    15fc:	00000094 	muleq	r0, r4, r0
    1600:	00000092 	muleq	r0, r2, r0
    1604:	00884c28 	addeq	r4, r8, r8, lsr #24
    1608:	0015c900 	andseq	ip, r5, r0, lsl #18
    160c:	000b6000 	andeq	r6, fp, r0
    1610:	50012900 	andpl	r2, r1, r0, lsl #18
    1614:	00007402 	andeq	r7, r0, r2, lsl #8
    1618:	00885c28 	addeq	r5, r8, r8, lsr #24
    161c:	00184800 	andseq	r4, r8, r0, lsl #16
    1620:	000b7400 	andeq	r7, fp, r0, lsl #8
    1624:	50012900 	andpl	r2, r1, r0, lsl #18
    1628:	00007402 	andeq	r7, r0, r2, lsl #8
    162c:	00886828 	addeq	r6, r8, r8, lsr #16
    1630:	00143b00 	andseq	r3, r4, r0, lsl #22
    1634:	000b8e00 	andeq	r8, fp, r0, lsl #28
    1638:	51012900 	tstpl	r1, r0, lsl #18
    163c:	29800802 	stmibcs	r0, {r1, fp}
    1640:	74025201 	strvc	r5, [r2], #-513	; 0xfffffdff
    1644:	78280000 	stmdavc	r8!, {}	; <UNPREDICTABLE>
    1648:	cd000088 	stcgt	0, cr0, [r0, #-544]	; 0xfffffde0
    164c:	a2000017 	andge	r0, r0, #23
    1650:	2900000b 	stmdbcs	r0, {r0, r1, r3}
    1654:	74025001 	strvc	r5, [r2], #-1
    1658:	84280000 	strthi	r0, [r8], #-0
    165c:	a0000088 	andge	r0, r0, r8, lsl #1
    1660:	b6000017 			; <UNDEFINED> instruction: 0xb6000017
    1664:	2900000b 	stmdbcs	r0, {r0, r1, r3}
    1668:	74025001 	strvc	r5, [r2], #-1
    166c:	94280000 	strtls	r0, [r8], #-0
    1670:	3b000088 	blcc	1898 <_start-0x6768>
    1674:	d0000014 	andle	r0, r0, r4, lsl r0
    1678:	2900000b 	stmdbcs	r0, {r0, r1, r3}
    167c:	77025001 	strvc	r5, [r2, -r1]
    1680:	52012900 	andpl	r2, r1, #0, 18
    1684:	00007402 	andeq	r7, r0, r2, lsl #8
    1688:	0088b028 	addeq	fp, r8, r8, lsr #32
    168c:	00180a00 	andseq	r0, r8, r0, lsl #20
    1690:	000be400 	andeq	lr, fp, r0, lsl #8
    1694:	50012900 	andpl	r2, r1, r0, lsl #18
    1698:	00007402 	andeq	r7, r0, r2, lsl #8
    169c:	0088bc2a 	addeq	fp, r8, sl, lsr #24
    16a0:	00127c00 	andseq	r7, r2, r0, lsl #24
    16a4:	52012900 	andpl	r2, r1, #0, 18
    16a8:	00007402 	andeq	r7, r0, r2, lsl #8
    16ac:	87c82800 	strbhi	r2, [r8, r0, lsl #16]
    16b0:	194c0000 	stmdbne	ip, {}^	; <UNPREDICTABLE>
    16b4:	0c0c0000 	stceq	0, cr0, [ip], {-0}
    16b8:	01290000 			; <UNDEFINED> instruction: 0x01290000
    16bc:	14030550 	strne	r0, [r3], #-1360	; 0xfffffab0
    16c0:	00000096 	muleq	r0, r6, r0
    16c4:	0087d828 	addeq	sp, r7, r8, lsr #16
    16c8:	00194c00 	andseq	r4, r9, r0, lsl #24
    16cc:	000c2f00 	andeq	r2, ip, r0, lsl #30
    16d0:	50012900 	andpl	r2, r1, r0, lsl #18
    16d4:	98780305 	ldmdals	r8!, {r0, r2, r8, r9}^
    16d8:	01290000 			; <UNDEFINED> instruction: 0x01290000
    16dc:	00750251 	rsbseq	r0, r5, r1, asr r2
    16e0:	02520129 	subseq	r0, r2, #1073741834	; 0x4000000a
    16e4:	28000076 	stmdacs	r0, {r1, r2, r4, r5, r6}
    16e8:	00008800 	andeq	r8, r0, r0, lsl #16
    16ec:	0000194c 	andeq	r1, r0, ip, asr #18
    16f0:	00000c46 	andeq	r0, r0, r6, asr #24
    16f4:	05500129 	ldrbeq	r0, [r0, #-297]	; 0xfffffed7
    16f8:	00961403 	addseq	r1, r6, r3, lsl #8
    16fc:	10280000 	eorne	r0, r8, r0
    1700:	4c000088 	stcmi	0, cr0, [r0], {136}	; 0x88
    1704:	69000019 	stmdbvs	r0, {r0, r3, r4}
    1708:	2900000c 	stmdbcs	r0, {r2, r3}
    170c:	03055001 	movweq	r5, #20481	; 0x5001
    1710:	000098b0 			; <UNDEFINED> instruction: 0x000098b0
    1714:	02510129 	subseq	r0, r1, #1073741834	; 0x4000000a
    1718:	01290075 			; <UNDEFINED> instruction: 0x01290075
    171c:	00760252 	rsbseq	r0, r6, r2, asr r2
    1720:	88d02800 	ldmhi	r0, {fp, sp}^
    1724:	194c0000 	stmdbne	ip, {}^	; <UNPREDICTABLE>
    1728:	0c800000 	stceq	0, cr0, [r0], {0}
    172c:	01290000 			; <UNDEFINED> instruction: 0x01290000
    1730:	14030550 	strne	r0, [r3], #-1360	; 0xfffffab0
    1734:	00000096 	muleq	r0, r6, r0
    1738:	0088dc2a 	addeq	sp, r8, sl, lsr #24
    173c:	00194c00 	andseq	r4, r9, r0, lsl #24
    1740:	50012900 	andpl	r2, r1, r0, lsl #18
    1744:	98d80305 	ldmls	r8, {r0, r2, r8, r9}^
    1748:	01290000 			; <UNDEFINED> instruction: 0x01290000
    174c:	00750251 	rsbseq	r0, r5, r1, asr r2
    1750:	04050000 	streq	r0, [r5], #-0
    1754:	00000a55 	andeq	r0, r0, r5, asr sl
    1758:	00006425 	andeq	r6, r0, r5, lsr #8
    175c:	08830100 	stmeq	r3, {r8}
    1760:	0000012d 	andeq	r0, r0, sp, lsr #2
    1764:	00008588 	andeq	r8, r0, r8, lsl #11
    1768:	0000021c 	andeq	r0, r0, ip, lsl r2
    176c:	0ff49c01 	svceq	0x00f49c01
    1770:	7f2b0000 	svcvc	0x002b0000
    1774:	01000006 	tsteq	r0, r6
    1778:	00691a83 	rsbeq	r1, r9, r3, lsl #21
    177c:	00b10000 	adcseq	r0, r1, r0
    1780:	00a70000 	adceq	r0, r7, r0
    1784:	f22b0000 	vhadd.s32	d0, d11, d0
    1788:	01000001 	tsteq	r0, r1
    178c:	05fc2e83 	ldrbeq	r2, [ip, #3715]!	; 0xe83
    1790:	00fd0000 	rscseq	r0, sp, r0
    1794:	00f30000 	rscseq	r0, r3, r0
    1798:	b02b0000 	eorlt	r0, fp, r0
    179c:	01000004 	tsteq	r0, r4
    17a0:	05fc4083 	ldrbeq	r4, [ip, #131]!	; 0x83
    17a4:	01490000 	mrseq	r0, (UNDEF: 73)
    17a8:	013f0000 	teqeq	pc, r0
    17ac:	252b0000 	strcs	r0, [fp, #-0]!
    17b0:	01000005 	tsteq	r0, r5
    17b4:	002c4f83 	eoreq	r4, ip, r3, lsl #31
    17b8:	01950000 	orrseq	r0, r5, r0
    17bc:	018b0000 	orreq	r0, fp, r0
    17c0:	682c0000 	stmdavs	ip!, {}	; <UNPREDICTABLE>
    17c4:	0c840100 	stfeqs	f0, [r4], {0}
    17c8:	00000c9a 	muleq	r0, sl, ip
    17cc:	000001e2 	andeq	r0, r0, r2, ror #3
    17d0:	000001da 	ldrdeq	r0, [r0], -sl
    17d4:	7274702c 	rsbsvc	r7, r4, #44	; 0x2c
    17d8:	0b850100 	bleq	fe141be0 <__bss_end__+0xfe137c80>
    17dc:	0000012d 	andeq	r0, r0, sp, lsr #2
    17e0:	00000220 	andeq	r0, r0, r0, lsr #4
    17e4:	00000218 	andeq	r0, r0, r8, lsl r2
    17e8:	0001f72d 	andeq	pc, r1, sp, lsr #14
    17ec:	00100400 	andseq	r0, r0, r0, lsl #8
    17f0:	18030500 	stmdane	r3, {r8, sl}
    17f4:	2c000099 	stccs	0, cr0, [r0], {153}	; 0x99
    17f8:	00746f74 	rsbseq	r6, r4, r4, ror pc
    17fc:	2c0e8a01 			; <UNDEFINED> instruction: 0x2c0e8a01
    1800:	62000000 	andvs	r0, r0, #0
    1804:	56000002 	strpl	r0, [r0], -r2
    1808:	2c000002 	stccs	0, cr0, [r0], {2}
    180c:	8b01006e 	blhi	419cc <__bss_end__+0x37a6c>
    1810:	00002c0e 	andeq	r2, r0, lr, lsl #24
    1814:	0002b900 	andeq	fp, r2, r0, lsl #18
    1818:	0002b500 	andeq	fp, r2, r0, lsl #10
    181c:	85b82800 	ldrhi	r2, [r8, #2048]!	; 0x800
    1820:	194c0000 	stmdbne	ip, {}^	; <UNPREDICTABLE>
    1824:	0d7c0000 	ldcleq	0, cr0, [ip, #-0]
    1828:	01290000 			; <UNDEFINED> instruction: 0x01290000
    182c:	14030550 	strne	r0, [r3], #-1360	; 0xfffffab0
    1830:	00000096 	muleq	r0, r6, r0
    1834:	0085c428 	addeq	ip, r5, r8, lsr #8
    1838:	00194c00 	andseq	r4, r9, r0, lsl #24
    183c:	000d9900 	andeq	r9, sp, r0, lsl #18
    1840:	50012900 	andpl	r2, r1, r0, lsl #18
    1844:	973c0305 	ldrls	r0, [ip, -r5, lsl #6]!
    1848:	01290000 			; <UNDEFINED> instruction: 0x01290000
    184c:	00750251 	rsbseq	r0, r5, r1, asr r2
    1850:	86282800 	strthi	r2, [r8], -r0, lsl #16
    1854:	18480000 	stmdane	r8, {}^	; <UNPREDICTABLE>
    1858:	0dad0000 	stceq	0, cr0, [sp]
    185c:	01290000 			; <UNDEFINED> instruction: 0x01290000
    1860:	00740250 	rsbseq	r0, r4, r0, asr r2
    1864:	86302800 	ldrthi	r2, [r0], -r0, lsl #16
    1868:	12210000 	eorne	r0, r1, #0
    186c:	0dc10000 	stcleq	0, cr0, [r1]
    1870:	01290000 			; <UNDEFINED> instruction: 0x01290000
    1874:	80080251 	andhi	r0, r8, r1, asr r2
    1878:	86382800 	ldrthi	r2, [r8], -r0, lsl #16
    187c:	17cd0000 	strbne	r0, [sp, r0]
    1880:	0dd50000 	ldcleq	0, cr0, [r5]
    1884:	01290000 			; <UNDEFINED> instruction: 0x01290000
    1888:	00740250 	rsbseq	r0, r4, r0, asr r2
    188c:	86442800 	strbhi	r2, [r4], -r0, lsl #16
    1890:	17a00000 	strne	r0, [r0, r0]!
    1894:	0de90000 	stcleq	0, cr0, [r9]
    1898:	01290000 			; <UNDEFINED> instruction: 0x01290000
    189c:	00740250 	rsbseq	r0, r4, r0, asr r2
    18a0:	86502800 	ldrbhi	r2, [r0], -r0, lsl #16
    18a4:	12210000 	eorne	r0, r1, #0
    18a8:	0dfd0000 	ldcleq	0, cr0, [sp]
    18ac:	01290000 			; <UNDEFINED> instruction: 0x01290000
    18b0:	00760250 	rsbseq	r0, r6, r0, asr r2
    18b4:	86582800 	ldrbhi	r2, [r8], -r0, lsl #16
    18b8:	17060000 	strne	r0, [r6, -r0]
    18bc:	0e110000 	cdpeq	0, 1, cr0, cr1, cr0, {0}
    18c0:	01290000 			; <UNDEFINED> instruction: 0x01290000
    18c4:	00740250 	rsbseq	r0, r4, r0, asr r2
    18c8:	86742800 	ldrbthi	r2, [r4], -r0, lsl #16
    18cc:	11740000 	cmnne	r4, r0
    18d0:	0e250000 	cdpeq	0, 2, cr0, cr5, cr0, {0}
    18d4:	01290000 			; <UNDEFINED> instruction: 0x01290000
    18d8:	00740250 	rsbseq	r0, r4, r0, asr r2
    18dc:	86842800 	strhi	r2, [r4], r0, lsl #16
    18e0:	180a0000 	stmdane	sl, {}	; <UNPREDICTABLE>
    18e4:	0e390000 	cdpeq	0, 3, cr0, cr9, cr0, {0}
    18e8:	01290000 			; <UNDEFINED> instruction: 0x01290000
    18ec:	00740250 	rsbseq	r0, r4, r0, asr r2
    18f0:	86902800 	ldrhi	r2, [r0], r0, lsl #16
    18f4:	194c0000 	stmdbne	ip, {}^	; <UNPREDICTABLE>
    18f8:	0e500000 	cdpeq	0, 5, cr0, cr0, cr0, {0}
    18fc:	01290000 			; <UNDEFINED> instruction: 0x01290000
    1900:	14030550 	strne	r0, [r3], #-1360	; 0xfffffab0
    1904:	00000096 	muleq	r0, r6, r0
    1908:	0086a428 	addeq	sl, r6, r8, lsr #8
    190c:	00194c00 	andseq	r4, r9, r0, lsl #24
    1910:	000e7900 	andeq	r7, lr, r0, lsl #18
    1914:	50012900 	andpl	r2, r1, r0, lsl #18
    1918:	98480305 	stmdals	r8, {r0, r2, r8, r9}^
    191c:	01290000 			; <UNDEFINED> instruction: 0x01290000
    1920:	00750251 	rsbseq	r0, r5, r1, asr r2
    1924:	02520129 	subseq	r0, r2, #1073741834	; 0x4000000a
    1928:	01290079 			; <UNDEFINED> instruction: 0x01290079
    192c:	00740253 	rsbseq	r0, r4, r3, asr r2
    1930:	86b42e00 	ldrthi	r2, [r4], r0, lsl #28
    1934:	19580000 	ldmdbne	r8, {}^	; <UNPREDICTABLE>
    1938:	c8280000 	stmdagt	r8!, {}	; <UNPREDICTABLE>
    193c:	4c000086 	stcmi	0, cr0, [r0], {134}	; 0x86
    1940:	b1000019 	tstlt	r0, r9, lsl r0
    1944:	2900000e 	stmdbcs	r0, {r1, r2, r3}
    1948:	03055001 	movweq	r5, #20481	; 0x5001
    194c:	000096fc 	strdeq	r9, [r0], -ip
    1950:	05510129 	ldrbeq	r0, [r1, #-297]	; 0xfffffed7
    1954:	0096ac03 	addseq	sl, r6, r3, lsl #24
    1958:	52012900 	andpl	r2, r1, #0, 18
    195c:	99180305 	ldmdbls	r8, {r0, r2, r8, r9}
    1960:	01290000 			; <UNDEFINED> instruction: 0x01290000
    1964:	87080253 	smlsdhi	r8, r3, r2, r0
    1968:	86cc2e00 	strbhi	r2, [ip], r0, lsl #28
    196c:	19640000 	stmdbne	r4!, {}^	; <UNPREDICTABLE>
    1970:	d4280000 	strtle	r0, [r8], #-0
    1974:	4c000086 	stcmi	0, cr0, [r0], {134}	; 0x86
    1978:	d1000019 	tstle	r0, r9, lsl r0
    197c:	2900000e 	stmdbcs	r0, {r1, r2, r3}
    1980:	03055001 	movweq	r5, #20481	; 0x5001
    1984:	00009754 	andeq	r9, r0, r4, asr r7
    1988:	86e02800 	strbthi	r2, [r0], r0, lsl #16
    198c:	194c0000 	stmdbne	ip, {}^	; <UNPREDICTABLE>
    1990:	0eee0000 	cdpeq	0, 14, cr0, cr14, cr0, {0}
    1994:	01290000 			; <UNDEFINED> instruction: 0x01290000
    1998:	60030550 	andvs	r0, r3, r0, asr r5
    199c:	29000097 	stmdbcs	r0, {r0, r1, r2, r4, r7}
    19a0:	75025101 	strvc	r5, [r2, #-257]	; 0xfffffeff
    19a4:	e42e0000 	strt	r0, [lr], #-0
    19a8:	58000086 	stmdapl	r0, {r1, r2, r7}
    19ac:	28000019 	stmdacs	r0, {r0, r3, r4}
    19b0:	000086fc 	strdeq	r8, [r0], -ip
    19b4:	0000194c 	andeq	r1, r0, ip, asr #18
    19b8:	00000f2d 	andeq	r0, r0, sp, lsr #30
    19bc:	05500129 	ldrbeq	r0, [r0, #-297]	; 0xfffffed7
    19c0:	00978803 	addseq	r8, r7, r3, lsl #16
    19c4:	51012900 	tstpl	r1, r0, lsl #18
    19c8:	96ac0305 	strtls	r0, [ip], r5, lsl #6
    19cc:	01290000 			; <UNDEFINED> instruction: 0x01290000
    19d0:	18030552 	stmdane	r3, {r1, r4, r6, r8, sl}
    19d4:	29000099 	stmdbcs	r0, {r0, r3, r4, r7}
    19d8:	08025301 	stmdaeq	r2, {r0, r8, r9, ip, lr}
    19dc:	7d02298f 	vstrvc.16	s4, [r2, #-286]	; 0xfffffee2	; <UNPREDICTABLE>
    19e0:	00750200 	rsbseq	r0, r5, r0, lsl #4
    19e4:	87002e00 	strhi	r2, [r0, -r0, lsl #28]
    19e8:	19640000 	stmdbne	r4!, {}^	; <UNPREDICTABLE>
    19ec:	08280000 	stmdaeq	r8!, {}	; <UNPREDICTABLE>
    19f0:	4c000087 	stcmi	0, cr0, [r0], {135}	; 0x87
    19f4:	4d000019 	stcmi	0, cr0, [r0, #-100]	; 0xffffff9c
    19f8:	2900000f 	stmdbcs	r0, {r0, r1, r2, r3}
    19fc:	03055001 	movweq	r5, #20481	; 0x5001
    1a00:	00009754 	andeq	r9, r0, r4, asr r7
    1a04:	87242800 	strhi	r2, [r4, -r0, lsl #16]!
    1a08:	194c0000 	stmdbne	ip, {}^	; <UNPREDICTABLE>
    1a0c:	0f6a0000 	svceq	0x006a0000
    1a10:	01290000 			; <UNDEFINED> instruction: 0x01290000
    1a14:	c0030550 	andgt	r0, r3, r0, asr r5
    1a18:	29000097 	stmdbcs	r0, {r0, r1, r2, r4, r7}
    1a1c:	79025201 	stmdbvc	r2, {r0, r9, ip, lr}
    1a20:	282e0000 	stmdacs	lr!, {}	; <UNPREDICTABLE>
    1a24:	58000087 	stmdapl	r0, {r0, r1, r2, r7}
    1a28:	28000019 	stmdacs	r0, {r0, r3, r4}
    1a2c:	00008750 	andeq	r8, r0, r0, asr r7
    1a30:	0000194c 	andeq	r1, r0, ip, asr #18
    1a34:	00000fa9 	andeq	r0, r0, r9, lsr #31
    1a38:	05500129 	ldrbeq	r0, [r0, #-297]	; 0xfffffed7
    1a3c:	0097ec03 	addseq	lr, r7, r3, lsl #24
    1a40:	51012900 	tstpl	r1, r0, lsl #18
    1a44:	96ac0305 	strtls	r0, [ip], r5, lsl #6
    1a48:	01290000 			; <UNDEFINED> instruction: 0x01290000
    1a4c:	18030552 	stmdane	r3, {r1, r4, r6, r8, sl}
    1a50:	29000099 	stmdbcs	r0, {r0, r3, r4, r7}
    1a54:	08025301 	stmdaeq	r2, {r0, r8, r9, ip, lr}
    1a58:	7d022992 	vstrvc.16	s4, [r2, #-292]	; 0xfffffedc	; <UNPREDICTABLE>
    1a5c:	00790204 	rsbseq	r0, r9, r4, lsl #4
    1a60:	87542e00 	ldrbhi	r2, [r4, -r0, lsl #28]
    1a64:	19640000 	stmdbne	r4!, {}^	; <UNPREDICTABLE>
    1a68:	582e0000 	stmdapl	lr!, {}	; <UNPREDICTABLE>
    1a6c:	58000087 	stmdapl	r0, {r0, r1, r2, r7}
    1a70:	28000019 	stmdacs	r0, {r0, r3, r4}
    1a74:	0000876c 	andeq	r8, r0, ip, ror #14
    1a78:	0000194c 	andeq	r1, r0, ip, asr #18
    1a7c:	00000fea 	andeq	r0, r0, sl, ror #31
    1a80:	05500129 	ldrbeq	r0, [r0, #-297]	; 0xfffffed7
    1a84:	00982803 	addseq	r2, r8, r3, lsl #16
    1a88:	51012900 	tstpl	r1, r0, lsl #18
    1a8c:	96ac0305 	strtls	r0, [ip], r5, lsl #6
    1a90:	01290000 			; <UNDEFINED> instruction: 0x01290000
    1a94:	18030552 	stmdane	r3, {r1, r4, r6, r8, sl}
    1a98:	29000099 	stmdbcs	r0, {r0, r3, r4, r7}
    1a9c:	08025301 	stmdaeq	r2, {r0, r8, r9, ip, lr}
    1aa0:	702e00a1 	eorvc	r0, lr, r1, lsr #1
    1aa4:	64000087 	strvs	r0, [r0], #-135	; 0xffffff79
    1aa8:	00000019 	andeq	r0, r0, r9, lsl r0
    1aac:	00013c0a 	andeq	r3, r1, sl, lsl #24
    1ab0:	00100400 	andseq	r0, r0, r0, lsl #8
    1ab4:	002c0b00 	eoreq	r0, ip, r0, lsl #22
    1ab8:	00070000 	andeq	r0, r7, r0
    1abc:	000ff40f 	andeq	pc, pc, pc, lsl #8
    1ac0:	025d2f00 	subseq	r2, sp, #0, 30
    1ac4:	71010000 	mrsvc	r0, (UNDEF: 1)
    1ac8:	0084d007 	addeq	sp, r4, r7
    1acc:	0000b800 	andeq	fp, r0, r0, lsl #16
    1ad0:	5f9c0100 	svcpl	0x009c0100
    1ad4:	2b000011 	blcs	1b20 <_start-0x64e0>
    1ad8:	00000c0c 	andeq	r0, r0, ip, lsl #24
    1adc:	2d157101 	ldfcss	f7, [r5, #-4]
    1ae0:	db000001 	blle	1aec <_start-0x6514>
    1ae4:	d7000002 	strle	r0, [r0, -r2]
    1ae8:	2b000002 	blcs	1af8 <_start-0x6508>
    1aec:	000001f2 	strdeq	r0, [r0], -r2
    1af0:	fc277101 	stc2	1, cr7, [r7], #-4
    1af4:	fd000005 	stc2	0, cr0, [r0, #-20]	; 0xffffffec
    1af8:	f9000002 			; <UNDEFINED> instruction: 0xf9000002
    1afc:	2b000002 	blcs	1b0c <_start-0x64f4>
    1b00:	000004b0 			; <UNDEFINED> instruction: 0x000004b0
    1b04:	fc397101 	ldc2	1, cr7, [r9], #-4
    1b08:	1f000005 	svcne	0x00000005
    1b0c:	1b000003 	blne	1b20 <_start-0x64e0>
    1b10:	2b000003 	blcs	1b24 <_start-0x64dc>
    1b14:	00000525 	andeq	r0, r0, r5, lsr #10
    1b18:	2c487101 	stfcse	f7, [r8], {1}
    1b1c:	41000000 	mrsmi	r0, (UNDEF: 0)
    1b20:	3d000003 	stccc	0, cr0, [r0, #-12]
    1b24:	2c000003 	stccs	0, cr0, [r0], {3}
    1b28:	72010068 	andvc	r0, r1, #104	; 0x68
    1b2c:	000c9a0c 	andeq	r9, ip, ip, lsl #20
    1b30:	00036500 	andeq	r6, r3, r0, lsl #10
    1b34:	00035f00 	andeq	r5, r3, r0, lsl #30
    1b38:	01f72d00 	mvnseq	r2, r0, lsl #26
    1b3c:	116f0000 	cmnne	pc, r0
    1b40:	03050000 	movweq	r0, #20480	; 0x5000
    1b44:	00009910 	andeq	r9, r0, r0, lsl r9
    1b48:	0084e828 	addeq	lr, r4, r8, lsr #16
    1b4c:	00177100 	andseq	r7, r7, r0, lsl #2
    1b50:	0010a400 	andseq	sl, r0, r0, lsl #8
    1b54:	50012900 	andpl	r2, r1, r0, lsl #18
    1b58:	00007502 	andeq	r7, r0, r2, lsl #10
    1b5c:	00850428 	addeq	r0, r5, r8, lsr #8
    1b60:	00194c00 	andseq	r4, r9, r0, lsl #24
    1b64:	0010bb00 	andseq	fp, r0, r0, lsl #22
    1b68:	50012900 	andpl	r2, r1, r0, lsl #18
    1b6c:	96140305 	ldrls	r0, [r4], -r5, lsl #6
    1b70:	28000000 	stmdacs	r0, {}	; <UNPREDICTABLE>
    1b74:	00008510 	andeq	r8, r0, r0, lsl r5
    1b78:	0000194c 	andeq	r1, r0, ip, asr #18
    1b7c:	000010d8 	ldrdeq	r1, [r0], -r8
    1b80:	05500129 	ldrbeq	r0, [r0, #-297]	; 0xfffffed7
    1b84:	00973003 	addseq	r3, r7, r3
    1b88:	51012900 	tstpl	r1, r0, lsl #18
    1b8c:	00007502 	andeq	r7, r0, r2, lsl #10
    1b90:	00851828 	addeq	r1, r5, r8, lsr #16
    1b94:	00117400 	andseq	r7, r1, r0, lsl #8
    1b98:	0010ec00 	andseq	lr, r0, r0, lsl #24
    1b9c:	50012900 	andpl	r2, r1, r0, lsl #18
    1ba0:	00007402 	andeq	r7, r0, r2, lsl #8
    1ba4:	00853c28 	addeq	r3, r5, r8, lsr #24
    1ba8:	00180a00 	andseq	r0, r8, r0, lsl #20
    1bac:	00110000 	andseq	r0, r1, r0
    1bb0:	50012900 	andpl	r2, r1, r0, lsl #18
    1bb4:	00007402 	andeq	r7, r0, r2, lsl #8
    1bb8:	0085442e 	addeq	r4, r5, lr, lsr #8
    1bbc:	00122100 	andseq	r2, r2, r0, lsl #2
    1bc0:	854c2800 	strbhi	r2, [ip, #-2048]	; 0xfffff800
    1bc4:	17060000 	strne	r0, [r6, -r0]
    1bc8:	111d0000 	tstne	sp, r0
    1bcc:	01290000 			; <UNDEFINED> instruction: 0x01290000
    1bd0:	00740250 	rsbseq	r0, r4, r0, asr r2
    1bd4:	85582e00 	ldrbhi	r2, [r8, #-3584]	; 0xfffff200
    1bd8:	19580000 	ldmdbne	r8, {}^	; <UNPREDICTABLE>
    1bdc:	6c280000 	stcvs	0, cr0, [r8], #-0
    1be0:	4c000085 	stcmi	0, cr0, [r0], {133}	; 0x85
    1be4:	55000019 	strpl	r0, [r0, #-25]	; 0xffffffe7
    1be8:	29000011 	stmdbcs	r0, {r0, r4}
    1bec:	03055001 	movweq	r5, #20481	; 0x5001
    1bf0:	000096fc 	strdeq	r9, [r0], -ip
    1bf4:	05510129 	ldrbeq	r0, [r1, #-297]	; 0xfffffed7
    1bf8:	0096ac03 	addseq	sl, r6, r3, lsl #24
    1bfc:	52012900 	andpl	r2, r1, #0, 18
    1c00:	99100305 	ldmdbls	r0, {r0, r2, r8, r9}
    1c04:	01290000 			; <UNDEFINED> instruction: 0x01290000
    1c08:	74080253 	strvc	r0, [r8], #-595	; 0xfffffdad
    1c0c:	85702e00 	ldrbhi	r2, [r0, #-3584]!	; 0xfffff200
    1c10:	19640000 	stmdbne	r4!, {}^	; <UNPREDICTABLE>
    1c14:	0a000000 	beq	1c1c <_start-0x63e4>
    1c18:	0000013c 	andeq	r0, r0, ip, lsr r1
    1c1c:	0000116f 	andeq	r1, r0, pc, ror #2
    1c20:	00002c0b 	andeq	r2, r0, fp, lsl #24
    1c24:	0f000600 	svceq	0x00000600
    1c28:	0000115f 	andeq	r1, r0, pc, asr r1
    1c2c:	00066d30 	andeq	r6, r6, r0, lsr sp
    1c30:	0c590100 	ldfeqe	f0, [r9], {-0}
    1c34:	00000025 	andeq	r0, r0, r5, lsr #32
    1c38:	000083f8 	strdeq	r8, [r0], -r8	; <UNPREDICTABLE>
    1c3c:	00000064 	andeq	r0, r0, r4, rrx
    1c40:	12219c01 	eorne	r9, r1, #256	; 0x100
    1c44:	68310000 	ldmdavs	r1!, {}	; <UNPREDICTABLE>
    1c48:	1f590100 	svcne	0x00590100
    1c4c:	00000c9a 	muleq	r0, sl, ip
    1c50:	00000392 	muleq	r0, r2, r3
    1c54:	0000038e 	andeq	r0, r0, lr, lsl #7
    1c58:	00840428 	addeq	r0, r4, r8, lsr #8
    1c5c:	0015c900 	andseq	ip, r5, r0, lsl #18
    1c60:	0011b400 	andseq	fp, r1, r0, lsl #8
    1c64:	50012900 	andpl	r2, r1, r0, lsl #18
    1c68:	00007402 	andeq	r7, r0, r2, lsl #8
    1c6c:	00841428 	addeq	r1, r4, r8, lsr #8
    1c70:	00184800 	andseq	r4, r8, r0, lsl #16
    1c74:	0011c800 	andseq	ip, r1, r0, lsl #16
    1c78:	50012900 	andpl	r2, r1, r0, lsl #18
    1c7c:	00007402 	andeq	r7, r0, r2, lsl #8
    1c80:	00842028 	addeq	r2, r4, r8, lsr #32
    1c84:	00143b00 	andseq	r3, r4, r0, lsl #22
    1c88:	0011e200 	andseq	lr, r1, r0, lsl #4
    1c8c:	51012900 	tstpl	r1, r0, lsl #18
    1c90:	29800802 	stmibcs	r0, {r1, fp}
    1c94:	74025201 	strvc	r5, [r2], #-513	; 0xfffffdff
    1c98:	30280000 	eorcc	r0, r8, r0
    1c9c:	cd000084 	stcgt	0, cr0, [r0, #-528]	; 0xfffffdf0
    1ca0:	f6000017 			; <UNDEFINED> instruction: 0xf6000017
    1ca4:	29000011 	stmdbcs	r0, {r0, r4}
    1ca8:	74025001 	strvc	r5, [r2], #-1
    1cac:	3c280000 	stccc	0, cr0, [r8], #-0
    1cb0:	a0000084 	andge	r0, r0, r4, lsl #1
    1cb4:	0a000017 	beq	1d18 <_start-0x62e8>
    1cb8:	29000012 	stmdbcs	r0, {r1, r4}
    1cbc:	74025001 	strvc	r5, [r2], #-1
    1cc0:	4c2a0000 	stcmi	0, cr0, [sl], #-0
    1cc4:	3b000084 	blcc	1edc <_start-0x6124>
    1cc8:	29000014 	stmdbcs	r0, {r2, r4}
    1ccc:	75025001 	strvc	r5, [r2, #-1]
    1cd0:	52012900 	andpl	r2, r1, #0, 18
    1cd4:	00007402 	andeq	r7, r0, r2, lsl #8
    1cd8:	05af3200 	streq	r3, [pc, #512]!	; 1ee0 <_start-0x6120>
    1cdc:	4f010000 	svcmi	0x00010000
    1ce0:	0081dc0d 	addeq	sp, r1, sp, lsl #24
    1ce4:	00001400 	andeq	r1, r0, r0, lsl #8
    1ce8:	7c9c0100 	ldfvcs	f0, [ip], {0}
    1cec:	31000012 	tstcc	r0, r2, lsl r0
    1cf0:	4f010070 	svcmi	0x00010070
    1cf4:	00012d1c 	andeq	r2, r1, ip, lsl sp
    1cf8:	0003b400 	andeq	fp, r3, r0, lsl #8
    1cfc:	0003b000 	andeq	fp, r3, r0
    1d00:	067f2b00 	ldrbteq	r2, [pc], -r0, lsl #22
    1d04:	4f010000 	svcmi	0x00010000
    1d08:	00002c28 	andeq	r2, r0, r8, lsr #24
    1d0c:	0003db00 	andeq	sp, r3, r0, lsl #22
    1d10:	0003d500 	andeq	sp, r3, r0, lsl #10
    1d14:	81ec2a00 	mvnhi	r2, r0, lsl #20
    1d18:	19700000 	ldmdbne	r0!, {}^	; <UNPREDICTABLE>
    1d1c:	01290000 			; <UNDEFINED> instruction: 0x01290000
    1d20:	01f30350 	mvnseq	r0, r0, asr r3
    1d24:	51012950 	tstpl	r1, r0, asr r9
    1d28:	29fe0802 	ldmibcs	lr!, {r1, fp}^
    1d2c:	f3035201 	vhsub.u8	d5, d3, d1
    1d30:	00005101 	andeq	r5, r0, r1, lsl #2
    1d34:	00060f30 	andeq	r0, r6, r0, lsr pc
    1d38:	0c410100 	stfeqe	f0, [r1], {-0}
    1d3c:	00000025 	andeq	r0, r0, r5, lsr #32
    1d40:	000080d0 	ldrdeq	r8, [r0], -r0
    1d44:	0000010c 	andeq	r0, r0, ip, lsl #2
    1d48:	143b9c01 	ldrtne	r9, [fp], #-3073	; 0xfffff3ff
    1d4c:	70310000 	eorsvc	r0, r1, r0
    1d50:	24410100 	strbcs	r0, [r1], #-256	; 0xffffff00
    1d54:	0000012f 	andeq	r0, r0, pc, lsr #2
    1d58:	0000040f 	andeq	r0, r0, pc, lsl #8
    1d5c:	00000407 	andeq	r0, r0, r7, lsl #8
    1d60:	00067f2b 	andeq	r7, r6, fp, lsr #30
    1d64:	30410100 	subcc	r0, r1, r0, lsl #2
    1d68:	0000002c 	andeq	r0, r0, ip, lsr #32
    1d6c:	00000449 	andeq	r0, r0, r9, asr #8
    1d70:	00000443 	andeq	r0, r0, r3, asr #8
    1d74:	01006831 	tsteq	r0, r1, lsr r8
    1d78:	0c9a3f41 	ldceq	15, cr3, [sl], {65}	; 0x41
    1d7c:	047b0000 	ldrbteq	r0, [fp], #-0
    1d80:	04750000 	ldrbteq	r0, [r5], #-0
    1d84:	692c0000 	stmdbvs	ip!, {}	; <UNPREDICTABLE>
    1d88:	09420100 	stmdbeq	r2, {r8}^
    1d8c:	00000025 	andeq	r0, r0, r5, lsr #32
    1d90:	000004aa 	andeq	r0, r0, sl, lsr #9
    1d94:	000004a4 	andeq	r0, r0, r4, lsr #9
    1d98:	0080f833 	addeq	pc, r0, r3, lsr r8	; <UNPREDICTABLE>
    1d9c:	0000c000 	andeq	ip, r0, r0
    1da0:	05d02600 	ldrbeq	r2, [r0, #1536]	; 0x600
    1da4:	45010000 	strmi	r0, [r1, #-0]
    1da8:	00002511 	andeq	r2, r0, r1, lsl r5
    1dac:	0004d600 	andeq	sp, r4, r0, lsl #12
    1db0:	0004d400 	andeq	sp, r4, r0, lsl #8
    1db4:	19243400 	stmdbne	r4!, {sl, ip, sp}
    1db8:	812c0000 			; <UNDEFINED> instruction: 0x812c0000
    1dbc:	00010000 	andeq	r0, r1, r0
    1dc0:	01000000 	mrseq	r0, (UNDEF: 0)
    1dc4:	13b00d46 	movsne	r0, #4480	; 0x1180
    1dc8:	31350000 	teqcc	r5, r0
    1dcc:	ed000019 	stc	0, cr0, [r0, #-100]	; 0xffffff9c
    1dd0:	e9000004 	stmdb	r0, {r2}
    1dd4:	36000004 	strcc	r0, [r0], -r4
    1dd8:	00000000 	andeq	r0, r0, r0
    1ddc:	00193b37 	andseq	r3, r9, r7, lsr fp
    1de0:	00050f00 	andeq	r0, r5, r0, lsl #30
    1de4:	00050b00 	andeq	r0, r5, r0, lsl #22
    1de8:	81342800 	teqhi	r4, r0, lsl #16
    1dec:	194c0000 	stmdbne	ip, {}^	; <UNPREDICTABLE>
    1df0:	13450000 	movtne	r0, #20480	; 0x5000
    1df4:	01290000 			; <UNDEFINED> instruction: 0x01290000
    1df8:	00770250 	rsbseq	r0, r7, r0, asr r2
    1dfc:	81402800 	cmphi	r0, r0, lsl #16
    1e00:	194c0000 	stmdbne	ip, {}^	; <UNPREDICTABLE>
    1e04:	135c0000 	cmpne	ip, #0
    1e08:	01290000 			; <UNDEFINED> instruction: 0x01290000
    1e0c:	48030550 	stmdami	r3, {r4, r6, r8, sl}
    1e10:	00000096 	muleq	r0, r6, r0
    1e14:	00815428 	addeq	r5, r1, r8, lsr #8
    1e18:	00194c00 	andseq	r4, r9, r0, lsl #24
    1e1c:	00137000 	andseq	r7, r3, r0
    1e20:	50012900 	andpl	r2, r1, r0, lsl #18
    1e24:	00007702 	andeq	r7, r0, r2, lsl #14
    1e28:	00816828 	addeq	r6, r1, r8, lsr #16
    1e2c:	00194c00 	andseq	r4, r9, r0, lsl #24
    1e30:	00138700 	andseq	r8, r3, r0, lsl #14
    1e34:	50012900 	andpl	r2, r1, r0, lsl #18
    1e38:	96540305 	ldrbls	r0, [r4], -r5, lsl #6
    1e3c:	28000000 	stmdacs	r0, {}	; <UNPREDICTABLE>
    1e40:	000081a0 	andeq	r8, r0, r0, lsr #3
    1e44:	0000194c 	andeq	r1, r0, ip, asr #18
    1e48:	0000139b 	muleq	r0, fp, r3
    1e4c:	02500129 	subseq	r0, r0, #1073741834	; 0x4000000a
    1e50:	2a000077 	bcs	2034 <_start-0x5fcc>
    1e54:	000081b4 			; <UNDEFINED> instruction: 0x000081b4
    1e58:	0000194c 	andeq	r1, r0, ip, asr #18
    1e5c:	05500129 	ldrbeq	r0, [r0, #-297]	; 0xfffffed7
    1e60:	00967403 	addseq	r7, r6, r3, lsl #8
    1e64:	00000000 	andeq	r0, r0, r0
    1e68:	00810028 	addeq	r0, r1, r8, lsr #32
    1e6c:	00180a00 	andseq	r0, r8, r0, lsl #20
    1e70:	0013c400 	andseq	ip, r3, r0, lsl #8
    1e74:	50012900 	andpl	r2, r1, r0, lsl #18
    1e78:	00007602 	andeq	r7, r0, r2, lsl #12
    1e7c:	00811428 	addeq	r1, r1, r8, lsr #8
    1e80:	00194c00 	andseq	r4, r9, r0, lsl #24
    1e84:	0013d800 	andseq	sp, r3, r0, lsl #16
    1e88:	50012900 	andpl	r2, r1, r0, lsl #18
    1e8c:	00007702 	andeq	r7, r0, r2, lsl #14
    1e90:	00811c28 	addeq	r1, r1, r8, lsr #24
    1e94:	00194c00 	andseq	r4, r9, r0, lsl #24
    1e98:	0013ef00 	andseq	lr, r3, r0, lsl #30
    1e9c:	50012900 	andpl	r2, r1, r0, lsl #18
    1ea0:	961c0305 	ldrls	r0, [ip], -r5, lsl #6
    1ea4:	28000000 	stmdacs	r0, {}	; <UNPREDICTABLE>
    1ea8:	0000812c 	andeq	r8, r0, ip, lsr #2
    1eac:	0000194c 	andeq	r1, r0, ip, asr #18
    1eb0:	00001412 	andeq	r1, r0, r2, lsl r4
    1eb4:	05500129 	ldrbeq	r0, [r0, #-297]	; 0xfffffed7
    1eb8:	00962403 	addseq	r2, r6, r3, lsl #8
    1ebc:	51012900 	tstpl	r1, r0, lsl #18
    1ec0:	29007502 	stmdbcs	r0, {r1, r8, sl, ip, sp, lr}
    1ec4:	74025201 	strvc	r5, [r2], #-513	; 0xfffffdff
    1ec8:	7c280000 	stcvc	0, cr0, [r8], #-0
    1ecc:	4c000081 	stcmi	0, cr0, [r0], {129}	; 0x81
    1ed0:	26000019 			; <UNDEFINED> instruction: 0x26000019
    1ed4:	29000014 	stmdbcs	r0, {r2, r4}
    1ed8:	77025001 	strvc	r5, [r2, -r1]
    1edc:	842a0000 	strthi	r0, [sl], #-0
    1ee0:	4c000081 	stcmi	0, cr0, [r0], {129}	; 0x81
    1ee4:	29000019 	stmdbcs	r0, {r0, r3, r4}
    1ee8:	03055001 	movweq	r5, #20481	; 0x5001
    1eec:	00009690 	muleq	r0, r0, r6
    1ef0:	30000000 	andcc	r0, r0, r0
    1ef4:	000006a4 	andeq	r0, r0, r4, lsr #13
    1ef8:	250c3401 	strcs	r3, [ip, #-1025]	; 0xfffffbff
    1efc:	fc000000 	stc2	0, cr0, [r0], {-0}
    1f00:	fc000082 	stc2	0, cr0, [r0], {130}	; 0x82
    1f04:	01000000 	mrseq	r0, (UNDEF: 0)
    1f08:	0015c99c 	mulseq	r5, ip, r9
    1f0c:	00703100 	rsbseq	r3, r0, r0, lsl #2
    1f10:	2f1c3401 	svccs	0x001c3401
    1f14:	39000001 	stmdbcc	r0, {r0}
    1f18:	31000005 	tstcc	r0, r5
    1f1c:	2b000005 	blcs	1f38 <_start-0x60c8>
    1f20:	0000067f 	andeq	r0, r0, pc, ror r6
    1f24:	2c283401 	cfstrscs	mvf3, [r8], #-4
    1f28:	73000000 	movwvc	r0, #0
    1f2c:	6d000005 	stcvs	0, cr0, [r0, #-20]	; 0xffffffec
    1f30:	31000005 	tstcc	r0, r5
    1f34:	34010068 	strcc	r0, [r1], #-104	; 0xffffff98
    1f38:	000c9a37 	andeq	r9, ip, r7, lsr sl
    1f3c:	0005a500 	andeq	sl, r5, r0, lsl #10
    1f40:	00059f00 	andeq	r9, r5, r0, lsl #30
    1f44:	00692c00 	rsbeq	r2, r9, r0, lsl #24
    1f48:	25093501 	strcs	r3, [r9, #-1281]	; 0xfffffaff
    1f4c:	d4000000 	strle	r0, [r0], #-0
    1f50:	ce000005 	cdpgt	0, 0, cr0, cr0, cr5, {0}
    1f54:	33000005 	movwcc	r0, #5
    1f58:	00008324 	andeq	r8, r0, r4, lsr #6
    1f5c:	000000b4 	strheq	r0, [r0], -r4
    1f60:	0005d026 	andeq	sp, r5, r6, lsr #32
    1f64:	11380100 	teqne	r8, r0, lsl #2
    1f68:	00000025 	andeq	r0, r0, r5, lsr #32
    1f6c:	00000600 	andeq	r0, r0, r0, lsl #12
    1f70:	000005fe 	strdeq	r0, [r0], -lr
    1f74:	00192434 	andseq	r2, r9, r4, lsr r4
    1f78:	00835c00 	addeq	r5, r3, r0, lsl #24
    1f7c:	00300100 	eorseq	r0, r0, r0, lsl #2
    1f80:	39010000 	stmdbcc	r1, {}	; <UNPREDICTABLE>
    1f84:	00156f0d 	andseq	r6, r5, sp, lsl #30
    1f88:	19313500 	ldmdbne	r1!, {r8, sl, ip, sp}
    1f8c:	06150000 	ldreq	r0, [r5], -r0
    1f90:	06130000 	ldreq	r0, [r3], -r0
    1f94:	30360000 	eorscc	r0, r6, r0
    1f98:	37000000 	strcc	r0, [r0, -r0]
    1f9c:	0000193b 	andeq	r1, r0, fp, lsr r9
    1fa0:	0000062c 	andeq	r0, r0, ip, lsr #12
    1fa4:	00000628 	andeq	r0, r0, r8, lsr #12
    1fa8:	00836428 	addeq	r6, r3, r8, lsr #8
    1fac:	00194c00 	andseq	r4, r9, r0, lsl #24
    1fb0:	00150400 	andseq	r0, r5, r0, lsl #8
    1fb4:	50012900 	andpl	r2, r1, r0, lsl #18
    1fb8:	00007702 	andeq	r7, r0, r2, lsl #14
    1fbc:	00837028 	addeq	r7, r3, r8, lsr #32
    1fc0:	00194c00 	andseq	r4, r9, r0, lsl #24
    1fc4:	00151b00 	andseq	r1, r5, r0, lsl #22
    1fc8:	50012900 	andpl	r2, r1, r0, lsl #18
    1fcc:	96480305 	strbls	r0, [r8], -r5, lsl #6
    1fd0:	28000000 	stmdacs	r0, {}	; <UNPREDICTABLE>
    1fd4:	00008384 	andeq	r8, r0, r4, lsl #7
    1fd8:	0000194c 	andeq	r1, r0, ip, asr #18
    1fdc:	0000152f 	andeq	r1, r0, pc, lsr #10
    1fe0:	02500129 	subseq	r0, r0, #1073741834	; 0x4000000a
    1fe4:	28000077 	stmdacs	r0, {r0, r1, r2, r4, r5, r6}
    1fe8:	00008398 	muleq	r0, r8, r3
    1fec:	0000194c 	andeq	r1, r0, ip, asr #18
    1ff0:	00001546 	andeq	r1, r0, r6, asr #10
    1ff4:	05500129 	ldrbeq	r0, [r0, #-297]	; 0xfffffed7
    1ff8:	00965403 	addseq	r5, r6, r3, lsl #8
    1ffc:	c0280000 	eorgt	r0, r8, r0
    2000:	4c000083 	stcmi	0, cr0, [r0], {131}	; 0x83
    2004:	5a000019 	bpl	2070 <_start-0x5f90>
    2008:	29000015 	stmdbcs	r0, {r0, r2, r4}
    200c:	77025001 	strvc	r5, [r2, -r1]
    2010:	d42a0000 	strtle	r0, [sl], #-0
    2014:	4c000083 	stcmi	0, cr0, [r0], {131}	; 0x83
    2018:	29000019 	stmdbcs	r0, {r0, r3, r4}
    201c:	03055001 	movweq	r5, #20481	; 0x5001
    2020:	00009674 	andeq	r9, r0, r4, ror r6
    2024:	28000000 	stmdacs	r0, {}	; <UNPREDICTABLE>
    2028:	0000832c 	andeq	r8, r0, ip, lsr #6
    202c:	0000180a 	andeq	r1, r0, sl, lsl #16
    2030:	00001583 	andeq	r1, r0, r3, lsl #11
    2034:	02500129 	subseq	r0, r0, #1073741834	; 0x4000000a
    2038:	28000076 	stmdacs	r0, {r1, r2, r4, r5, r6}
    203c:	00008340 	andeq	r8, r0, r0, asr #6
    2040:	0000194c 	andeq	r1, r0, ip, asr #18
    2044:	00001597 	muleq	r0, r7, r5
    2048:	02500129 	subseq	r0, r0, #1073741834	; 0x4000000a
    204c:	28000077 	stmdacs	r0, {r0, r1, r2, r4, r5, r6}
    2050:	00008348 	andeq	r8, r0, r8, asr #6
    2054:	0000194c 	andeq	r1, r0, ip, asr #18
    2058:	000015ae 	andeq	r1, r0, lr, lsr #11
    205c:	05500129 	ldrbeq	r0, [r0, #-297]	; 0xfffffed7
    2060:	00961c03 	addseq	r1, r6, r3, lsl #24
    2064:	5c2a0000 	stcpl	0, cr0, [sl], #-0
    2068:	4c000083 	stcmi	0, cr0, [r0], {131}	; 0x83
    206c:	29000019 	stmdbcs	r0, {r0, r3, r4}
    2070:	03055001 	movweq	r5, #20481	; 0x5001
    2074:	00009624 	andeq	r9, r0, r4, lsr #12
    2078:	02520129 	subseq	r0, r2, #1073741834	; 0x4000000a
    207c:	00000074 	andeq	r0, r0, r4, ror r0
    2080:	06203000 	strteq	r3, [r0], -r0
    2084:	2a010000 	bcs	4208c <__bss_end__+0x3812c>
    2088:	0000250c 	andeq	r2, r0, ip, lsl #10
    208c:	00821400 	addeq	r1, r2, r0, lsl #8
    2090:	0000e800 	andeq	lr, r0, r0, lsl #16
    2094:	069c0100 	ldreq	r0, [ip], r0, lsl #2
    2098:	31000017 	tstcc	r0, r7, lsl r0
    209c:	2a010068 	bcs	42244 <__bss_end__+0x382e4>
    20a0:	000c9a1d 	andeq	r9, ip, sp, lsl sl
    20a4:	00065200 	andeq	r5, r6, r0, lsl #4
    20a8:	00064e00 	andeq	r4, r6, r0, lsl #28
    20ac:	19243400 	stmdbne	r4!, {sl, ip, sp}
    20b0:	82600000 	rsbhi	r0, r0, #0
    20b4:	18010000 	stmdane	r1, {}	; <UNPREDICTABLE>
    20b8:	01000000 	mrseq	r0, (UNDEF: 0)
    20bc:	16a8092d 	strtne	r0, [r8], sp, lsr #18
    20c0:	31350000 	teqcc	r5, r0
    20c4:	72000019 	andvc	r0, r0, #25
    20c8:	70000006 	andvc	r0, r0, r6
    20cc:	36000006 	strcc	r0, [r0], -r6
    20d0:	00000018 	andeq	r0, r0, r8, lsl r0
    20d4:	00193b37 	andseq	r3, r9, r7, lsr fp
    20d8:	00068900 	andeq	r8, r6, r0, lsl #18
    20dc:	00068500 	andeq	r8, r6, r0, lsl #10
    20e0:	82682800 	rsbhi	r2, r8, #0, 16
    20e4:	194c0000 	stmdbne	ip, {}^	; <UNPREDICTABLE>
    20e8:	163d0000 	ldrtne	r0, [sp], -r0
    20ec:	01290000 			; <UNDEFINED> instruction: 0x01290000
    20f0:	00750250 	rsbseq	r0, r5, r0, asr r2
    20f4:	82742800 	rsbshi	r2, r4, #0, 16
    20f8:	194c0000 	stmdbne	ip, {}^	; <UNPREDICTABLE>
    20fc:	16540000 	ldrbne	r0, [r4], -r0
    2100:	01290000 			; <UNDEFINED> instruction: 0x01290000
    2104:	48030550 	stmdami	r3, {r4, r6, r8, sl}
    2108:	00000096 	muleq	r0, r6, r0
    210c:	00828828 	addeq	r8, r2, r8, lsr #16
    2110:	00194c00 	andseq	r4, r9, r0, lsl #24
    2114:	00166800 	andseq	r6, r6, r0, lsl #16
    2118:	50012900 	andpl	r2, r1, r0, lsl #18
    211c:	00007502 	andeq	r7, r0, r2, lsl #10
    2120:	00829c28 	addeq	r9, r2, r8, lsr #24
    2124:	00194c00 	andseq	r4, r9, r0, lsl #24
    2128:	00167f00 	andseq	r7, r6, r0, lsl #30
    212c:	50012900 	andpl	r2, r1, r0, lsl #18
    2130:	96540305 	ldrbls	r0, [r4], -r5, lsl #6
    2134:	28000000 	stmdacs	r0, {}	; <UNPREDICTABLE>
    2138:	000082c4 	andeq	r8, r0, r4, asr #5
    213c:	0000194c 	andeq	r1, r0, ip, asr #18
    2140:	00001693 	muleq	r0, r3, r6
    2144:	02500129 	subseq	r0, r0, #1073741834	; 0x4000000a
    2148:	2a000075 	bcs	2324 <_start-0x5cdc>
    214c:	000082d8 	ldrdeq	r8, [r0], -r8	; <UNPREDICTABLE>
    2150:	0000194c 	andeq	r1, r0, ip, asr #18
    2154:	05500129 	ldrbeq	r0, [r0, #-297]	; 0xfffffed7
    2158:	00967403 	addseq	r7, r6, r3, lsl #8
    215c:	00000000 	andeq	r0, r0, r0
    2160:	00823428 	addeq	r3, r2, r8, lsr #8
    2164:	00170600 	andseq	r0, r7, r0, lsl #12
    2168:	0016bc00 	andseq	fp, r6, r0, lsl #24
    216c:	50012900 	andpl	r2, r1, r0, lsl #18
    2170:	00007402 	andeq	r7, r0, r2, lsl #8
    2174:	00824828 	addeq	r4, r2, r8, lsr #16
    2178:	00194c00 	andseq	r4, r9, r0, lsl #24
    217c:	0016d000 	andseq	sp, r6, r0
    2180:	50012900 	andpl	r2, r1, r0, lsl #18
    2184:	00007502 	andeq	r7, r0, r2, lsl #10
    2188:	00825028 	addeq	r5, r2, r8, lsr #32
    218c:	00194c00 	andseq	r4, r9, r0, lsl #24
    2190:	0016e700 	andseq	lr, r6, r0, lsl #14
    2194:	50012900 	andpl	r2, r1, r0, lsl #18
    2198:	961c0305 	ldrls	r0, [ip], -r5, lsl #6
    219c:	2a000000 	bcs	21a4 <_start-0x5e5c>
    21a0:	00008260 	andeq	r8, r0, r0, ror #4
    21a4:	0000194c 	andeq	r1, r0, ip, asr #18
    21a8:	05500129 	ldrbeq	r0, [r0, #-297]	; 0xfffffed7
    21ac:	00962403 	addseq	r2, r6, r3, lsl #8
    21b0:	51012900 	tstpl	r1, r0, lsl #18
    21b4:	29007402 	stmdbcs	r0, {r1, sl, ip, sp, lr}
    21b8:	30015201 	andcc	r5, r1, r1, lsl #4
    21bc:	ec300000 	ldc	0, cr0, [r0], #-0
    21c0:	01000005 	tsteq	r0, r5
    21c4:	00691121 	rsbeq	r1, r9, r1, lsr #2
    21c8:	81f00000 	mvnshi	r0, r0
    21cc:	00240000 	eoreq	r0, r4, r0
    21d0:	9c010000 	stcls	0, cr0, [r1], {-0}
    21d4:	00001771 	andeq	r1, r0, r1, ror r7
    21d8:	01006831 	tsteq	r0, r1, lsr r8
    21dc:	0c9a2221 	lfmeq	f2, 4, [sl], {33}	; 0x21
    21e0:	06af0000 	strteq	r0, [pc], r0
    21e4:	06ab0000 	strteq	r0, [fp], r0
    21e8:	6f2c0000 	svcvs	0x002c0000
    21ec:	0100646c 	tsteq	r0, ip, ror #8
    21f0:	002c0e22 	eoreq	r0, ip, r2, lsr #28
    21f4:	06cf0000 	strbeq	r0, [pc], r0
    21f8:	06cd0000 	strbeq	r0, [sp], r0
    21fc:	f0260000 			; <UNDEFINED> instruction: 0xf0260000
    2200:	01000005 	tsteq	r0, r5
    2204:	00690e24 	rsbeq	r0, r9, r4, lsr #28
    2208:	06e40000 	strbteq	r0, [r4], r0
    220c:	06e20000 	strbteq	r0, [r2], r0
    2210:	0c2a0000 	stceq	0, cr0, [sl], #-0
    2214:	7c000082 	stcvc	0, cr0, [r0], {130}	; 0x82
    2218:	29000019 	stmdbcs	r0, {r0, r3, r4}
    221c:	74025001 	strvc	r5, [r2], #-1
    2220:	51012900 	tstpl	r1, r0, lsl #18
    2224:	00380802 	eorseq	r0, r8, r2, lsl #16
    2228:	05b83000 	ldreq	r3, [r8, #0]!
    222c:	1c010000 	stcne	0, cr0, [r1], {-0}
    2230:	000c9a0f 	andeq	r9, ip, pc, lsl #20
    2234:	0080c800 	addeq	ip, r0, r0, lsl #16
    2238:	00000800 	andeq	r0, r0, r0, lsl #16
    223c:	a09c0100 	addsge	r0, ip, r0, lsl #2
    2240:	2b000017 	blcs	22a4 <_start-0x5d5c>
    2244:	00000c0c 	andeq	r0, r0, ip, lsl #24
    2248:	2d231c01 	stccs	12, cr1, [r3, #-4]!
    224c:	fb000001 	blx	225a <_start-0x5da6>
    2250:	f7000006 			; <UNDEFINED> instruction: 0xf7000006
    2254:	00000006 	andeq	r0, r0, r6
    2258:	00067930 	andeq	r7, r6, r0, lsr r9
    225c:	11190100 	tstne	r9, r0, lsl #2
    2260:	0000002c 	andeq	r0, r0, ip, lsr #32
    2264:	000080bc 	strheq	r8, [r0], -ip
    2268:	0000000c 	andeq	r0, r0, ip
    226c:	17cd9c01 	strbne	r9, [sp, r1, lsl #24]
    2270:	68310000 	ldmdavs	r1!, {}	; <UNPREDICTABLE>
    2274:	25190100 	ldrcs	r0, [r9, #-256]	; 0xffffff00
    2278:	00000c9a 	muleq	r0, sl, ip
    227c:	00000720 	andeq	r0, r0, r0, lsr #14
    2280:	0000071c 	andeq	r0, r0, ip, lsl r7
    2284:	062a3000 	strteq	r3, [sl], -r0
    2288:	17010000 	strne	r0, [r1, -r0]
    228c:	00012d0e 	andeq	r2, r1, lr, lsl #26
    2290:	0080a400 	addeq	sl, r0, r0, lsl #8
    2294:	00001800 	andeq	r1, r0, r0, lsl #16
    2298:	0a9c0100 	beq	fe7026a0 <__bss_end__+0xfe6f8740>
    229c:	31000018 	tstcc	r0, r8, lsl r0
    22a0:	17010068 	strne	r0, [r1, -r8, rrx]
    22a4:	000c9a1f 	andeq	r9, ip, pc, lsl sl
    22a8:	00074500 	andeq	r4, r7, r0, lsl #10
    22ac:	00074100 	andeq	r4, r7, r0, lsl #2
    22b0:	80b02a00 	adcshi	r2, r0, r0, lsl #20
    22b4:	180a0000 	stmdane	sl, {}	; <UNPREDICTABLE>
    22b8:	01290000 			; <UNDEFINED> instruction: 0x01290000
    22bc:	00740250 	rsbseq	r0, r4, r0, asr r2
    22c0:	03300000 	teqeq	r0, #0
    22c4:	01000006 	tsteq	r0, r6
    22c8:	012d0e15 			; <UNDEFINED> instruction: 0x012d0e15
    22cc:	80940000 	addshi	r0, r4, r0
    22d0:	00100000 	andseq	r0, r0, r0
    22d4:	9c010000 	stcls	0, cr0, [r1], {-0}
    22d8:	00001848 	andeq	r1, r0, r8, asr #16
    22dc:	01006831 	tsteq	r0, r1, lsr r8
    22e0:	0c9a2115 	ldfeqs	f2, [sl], {21}
    22e4:	07670000 	strbeq	r0, [r7, -r0]!
    22e8:	07630000 	strbeq	r0, [r3, -r0]!
    22ec:	9c2a0000 	stcls	0, cr0, [sl], #-0
    22f0:	48000080 	stmdami	r0, {r7}
    22f4:	29000018 	stmdbcs	r0, {r3, r4}
    22f8:	f3035001 	vhadd.u8	d5, d3, d1
    22fc:	00005001 	andeq	r5, r0, r1
    2300:	00054430 	andeq	r4, r5, r0, lsr r4
    2304:	0e130100 	mufeqs	f0, f3, f0
    2308:	0000012d 	andeq	r0, r0, sp, lsr #2
    230c:	0000808c 	andeq	r8, r0, ip, lsl #1
    2310:	00000008 	andeq	r0, r0, r8
    2314:	18759c01 	ldmdane	r5!, {r0, sl, fp, ip, pc}^
    2318:	68310000 	ldmdavs	r1!, {}	; <UNPREDICTABLE>
    231c:	1f130100 	svcne	0x00130100
    2320:	00000c9a 	muleq	r0, sl, ip
    2324:	0000078c 	andeq	r0, r0, ip, lsl #15
    2328:	00000788 	andeq	r0, r0, r8, lsl #15
    232c:	012d2f00 			; <UNDEFINED> instruction: 0x012d2f00
    2330:	09010000 	stmdbeq	r1, {}	; <UNPREDICTABLE>
    2334:	00845c06 	addeq	r5, r4, r6, lsl #24
    2338:	00007400 	andeq	r7, r0, r0, lsl #8
    233c:	249c0100 	ldrcs	r0, [ip], #256	; 0x100
    2340:	2b000019 	blcs	23ac <_start-0x5c54>
    2344:	00000c05 	andeq	r0, r0, r5, lsl #24
    2348:	2d140901 	vldrcs.16	s0, [r4, #-2]	; <UNPREDICTABLE>
    234c:	b6000001 	strlt	r0, [r0], -r1
    2350:	ac000007 	stcge	0, cr0, [r0], {7}
    2354:	31000007 	tstcc	r0, r7
    2358:	0901006e 	stmdbeq	r1, {r1, r2, r3, r5, r6}
    235c:	00002c24 	andeq	r2, r0, r4, lsr #24
    2360:	00080400 	andeq	r0, r8, r0, lsl #8
    2364:	0007fc00 	andeq	pc, r7, r0, lsl #24
    2368:	01f72d00 	mvnseq	r2, r0, lsl #26
    236c:	10040000 	andne	r0, r4, r0
    2370:	03050000 	movweq	r0, #20480	; 0x5000
    2374:	00009908 	andeq	r9, r0, r8, lsl #18
    2378:	00848828 	addeq	r8, r4, r8, lsr #16
    237c:	00194c00 	andseq	r4, r9, r0, lsl #24
    2380:	0018e300 	andseq	lr, r8, r0, lsl #6
    2384:	50012900 	andpl	r2, r1, r0, lsl #18
    2388:	96e00305 	strbtls	r0, [r0], r5, lsl #6
    238c:	01290000 			; <UNDEFINED> instruction: 0x01290000
    2390:	38080251 	stmdacc	r8, {r0, r4, r6, r9}
    2394:	02520129 	subseq	r0, r2, #1073741834	; 0x4000000a
    2398:	2e008008 	cdpcs	0, 0, cr8, cr0, cr8, {0}
    239c:	000084a4 	andeq	r8, r0, r4, lsr #9
    23a0:	00001958 	andeq	r1, r0, r8, asr r9
    23a4:	0084b828 	addeq	fp, r4, r8, lsr #16
    23a8:	00194c00 	andseq	r4, r9, r0, lsl #24
    23ac:	00191a00 	andseq	r1, r9, r0, lsl #20
    23b0:	50012900 	andpl	r2, r1, r0, lsl #18
    23b4:	96b80305 	ldrtls	r0, [r8], r5, lsl #6
    23b8:	01290000 			; <UNDEFINED> instruction: 0x01290000
    23bc:	ac030551 	cfstr32ge	mvfx0, [r3], {81}	; 0x51
    23c0:	29000096 	stmdbcs	r0, {r1, r2, r4, r7}
    23c4:	03055201 	movweq	r5, #20993	; 0x5201
    23c8:	00009908 	andeq	r9, r0, r8, lsl #18
    23cc:	01530129 	cmpeq	r3, r9, lsr #2
    23d0:	bc2e003a 	stclt	0, cr0, [lr], #-232	; 0xffffff18
    23d4:	64000084 	strvs	r0, [r0], #-132	; 0xffffff7c
    23d8:	00000019 	andeq	r0, r0, r9, lsl r0
    23dc:	00065538 	andeq	r5, r6, r8, lsr r5
    23e0:	14550200 	ldrbne	r0, [r5], #-512	; 0xfffffe00
    23e4:	00194603 	andseq	r4, r9, r3, lsl #12
    23e8:	00683900 	rsbeq	r3, r8, r0, lsl #18
    23ec:	9a255502 	bls	9577fc <__bss_end__+0x94d89c>
    23f0:	3a00000c 	bcc	2428 <_start-0x5bd8>
    23f4:	5702006c 	strpl	r0, [r2, -ip, rrx]
    23f8:	00194610 	andseq	r4, r9, r0, lsl r6
    23fc:	04050000 	streq	r0, [r5], #-0
    2400:	000009b3 			; <UNDEFINED> instruction: 0x000009b3
    2404:	0006ff3b 	andeq	pc, r6, fp, lsr pc	; <UNPREDICTABLE>
    2408:	0006ff00 	andeq	pc, r6, r0, lsl #30
    240c:	05290800 	streq	r0, [r9, #-2048]!	; 0xfffff800
    2410:	0005a03b 	andeq	sl, r5, fp, lsr r0
    2414:	0005a000 	andeq	sl, r5, r0
    2418:	061e0800 	ldreq	r0, [lr], -r0, lsl #16
    241c:	0005d53b 	andeq	sp, r5, fp, lsr r5
    2420:	0005d500 	andeq	sp, r5, r0, lsl #10
    2424:	06650800 	strbteq	r0, [r5], -r0, lsl #16
    2428:	0004683b 	andeq	r6, r4, fp, lsr r8
    242c:	00046800 	andeq	r6, r4, r0, lsl #16
    2430:	09210900 	stmdbeq	r1!, {r8, fp}
    2434:	0005313b 	andeq	r3, r5, fp, lsr r1
    2438:	00053100 	andeq	r3, r5, r0, lsl #2
    243c:	0a050a00 	beq	144c44 <__bss_end__+0x13ace4>
    2440:	0009fe00 	andeq	pc, r9, r0, lsl #28
    2444:	ac000400 	cfstrsge	mvf0, [r0], {-0}
    2448:	04000005 	streq	r0, [r0], #-5
    244c:	0002cb01 	andeq	ip, r2, r1, lsl #22
    2450:	06b50c00 	ldrteq	r0, [r5], r0, lsl #24
    2454:	06c10000 	strbeq	r0, [r1], r0
    2458:	88f40000 	ldmhi	r4!, {}^	; <UNPREDICTABLE>
    245c:	00ec0000 	rsceq	r0, ip, r0
    2460:	08620000 	stmdaeq	r2!, {}^	; <UNPREDICTABLE>
    2464:	04020000 	streq	r0, [r2], #-0
    2468:	746e6905 	strbtvc	r6, [lr], #-2309	; 0xfffff6fb
    246c:	07040300 	streq	r0, [r4, -r0, lsl #6]
    2470:	00000057 	andeq	r0, r0, r7, asr r0
    2474:	ba060103 	blt	182888 <__bss_end__+0x178928>
    2478:	03000002 	movweq	r0, #2
    247c:	03530502 	cmpeq	r3, #8388608	; 0x800000
    2480:	04030000 	streq	r0, [r3], #-0
    2484:	00009d05 	andeq	r9, r0, r5, lsl #26
    2488:	05080300 	streq	r0, [r8, #-768]	; 0xfffffd00
    248c:	00000098 	muleq	r0, r8, r0
    2490:	00068604 	andeq	r8, r6, r4, lsl #12
    2494:	182e0200 	stmdane	lr!, {r9}
    2498:	0000005b 	andeq	r0, r0, fp, asr r0
    249c:	b8080103 	stmdalt	r8, {r0, r1, r8}
    24a0:	03000002 	movweq	r0, #2
    24a4:	020b0702 	andeq	r0, fp, #524288	; 0x80000
    24a8:	44040000 	strmi	r0, [r4], #-0
    24ac:	02000006 	andeq	r0, r0, #6
    24b0:	00751934 	rsbseq	r1, r5, r4, lsr r9
    24b4:	04030000 	streq	r0, [r3], #-0
    24b8:	00005207 	andeq	r5, r0, r7, lsl #4
    24bc:	07080300 	streq	r0, [r8, -r0, lsl #6]
    24c0:	0000004d 	andeq	r0, r0, sp, asr #32
    24c4:	00024e04 	andeq	r4, r2, r4, lsl #28
    24c8:	19220300 	stmdbne	r2!, {r8, r9}
    24cc:	0000008f 	andeq	r0, r0, pc, lsl #1
    24d0:	00950405 	addseq	r0, r5, r5, lsl #8
    24d4:	f9060000 			; <UNDEFINED> instruction: 0xf9060000
    24d8:	04000003 	streq	r0, [r0], #-3
    24dc:	00000299 	muleq	r0, r9, r2
    24e0:	410e2c04 	tstmi	lr, r4, lsl #24
    24e4:	04000000 	streq	r0, [r0], #-0
    24e8:	0000040e 	andeq	r0, r0, lr, lsl #8
    24ec:	410e7204 	tstmi	lr, r4, lsl #4
    24f0:	07000000 	streq	r0, [r0, -r0]
    24f4:	00000256 	andeq	r0, r0, r6, asr r2
    24f8:	17015e05 	strne	r5, [r1, -r5, lsl #28]
    24fc:	0000002c 	andeq	r0, r0, ip, lsr #32
    2500:	a6040408 	strge	r0, [r4], -r8, lsl #8
    2504:	0000e103 	andeq	lr, r0, r3, lsl #2
    2508:	02480900 	subeq	r0, r8, #0, 18
    250c:	a8040000 	stmdage	r4, {}	; <UNPREDICTABLE>
    2510:	0000b20c 	andeq	fp, r0, ip, lsl #4
    2514:	01da0900 	bicseq	r0, sl, r0, lsl #18
    2518:	a9040000 	stmdbge	r4, {}	; <UNPREDICTABLE>
    251c:	0000e113 	andeq	lr, r0, r3, lsl r1
    2520:	5b0a0000 	blpl	282528 <__bss_end__+0x2785c8>
    2524:	f1000000 	cps	#0
    2528:	0b000000 	bleq	2530 <_start-0x5ad0>
    252c:	0000002c 	andeq	r0, r0, ip, lsr #32
    2530:	080c0003 	stmdaeq	ip, {r0, r1}
    2534:	1509a304 	strne	sl, [r9, #-772]	; 0xfffffcfc
    2538:	0d000001 	stceq	0, cr0, [r0, #-4]
    253c:	000003f1 	strdeq	r0, [r0], -r1
    2540:	2507a504 	strcs	sl, [r7, #-1284]	; 0xfffffafc
    2544:	00000000 	andeq	r0, r0, r0
    2548:	0004000d 	andeq	r0, r4, sp
    254c:	05aa0400 	streq	r0, [sl, #1024]!	; 0x400
    2550:	000000bf 	strheq	r0, [r0], -pc	; <UNPREDICTABLE>
    2554:	7b040004 	blvc	10256c <__bss_end__+0xf860c>
    2558:	04000003 	streq	r0, [r0], #-3
    255c:	00f103ab 	rscseq	r0, r1, fp, lsr #7
    2560:	97040000 	strls	r0, [r4, -r0]
    2564:	04000001 	streq	r0, [r0], #-1
    2568:	00831baf 	addeq	r1, r3, pc, lsr #23
    256c:	040e0000 	streq	r0, [lr], #-0
    2570:	01350405 	teqeq	r5, r5, lsl #8
    2574:	01030000 	mrseq	r0, (UNDEF: 3)
    2578:	0002c108 	andeq	ip, r2, r8, lsl #2
    257c:	01350f00 	teqeq	r5, r0, lsl #30
    2580:	40040000 	andmi	r0, r4, r0
    2584:	06000004 	streq	r0, [r0], -r4
    2588:	00751916 	rsbseq	r1, r5, r6, lsl r9
    258c:	a8100000 	ldmdage	r0, {}	; <UNPREDICTABLE>
    2590:	18000001 	stmdane	r0, {r0}
    2594:	a7082f06 	strge	r2, [r8, -r6, lsl #30]
    2598:	0d000001 	stceq	0, cr0, [r0, #-4]
    259c:	0000039c 	muleq	r0, ip, r3
    25a0:	a7133106 	ldrge	r3, [r3, -r6, lsl #2]
    25a4:	00000001 	andeq	r0, r0, r1
    25a8:	006b5f11 	rsbeq	r5, fp, r1, lsl pc
    25ac:	25073206 	strcs	r3, [r7, #-518]	; 0xfffffdfa
    25b0:	04000000 	streq	r0, [r0], #-0
    25b4:	0003dc0d 	andeq	sp, r3, sp, lsl #24
    25b8:	0b320600 	bleq	c83dc0 <__bss_end__+0xc79e60>
    25bc:	00000025 	andeq	r0, r0, r5, lsr #32
    25c0:	01910d08 	orrseq	r0, r1, r8, lsl #26
    25c4:	32060000 	andcc	r0, r6, #0
    25c8:	00002514 	andeq	r2, r0, r4, lsl r5
    25cc:	7c0d0c00 	stcvc	12, cr0, [sp], {-0}
    25d0:	06000004 	streq	r0, [r0], -r4
    25d4:	00251b32 	eoreq	r1, r5, r2, lsr fp
    25d8:	11100000 	tstne	r0, r0
    25dc:	0600785f 			; <UNDEFINED> instruction: 0x0600785f
    25e0:	01ad0b33 			; <UNDEFINED> instruction: 0x01ad0b33
    25e4:	00140000 	andseq	r0, r4, r0
    25e8:	014d0405 	cmpeq	sp, r5, lsl #8
    25ec:	410a0000 	mrsmi	r0, (UNDEF: 10)
    25f0:	bd000001 	stclt	0, cr0, [r0, #-4]
    25f4:	0b000001 	bleq	2600 <_start-0x5a00>
    25f8:	0000002c 	andeq	r0, r0, ip, lsr #32
    25fc:	d5100000 	ldrle	r0, [r0, #-0]
    2600:	24000001 	strcs	r0, [r0], #-1
    2604:	40083706 	andmi	r3, r8, r6, lsl #14
    2608:	0d000002 	stceq	0, cr0, [r0, #-8]
    260c:	0000008f 	andeq	r0, r0, pc, lsl #1
    2610:	25093906 	strcs	r3, [r9, #-2310]	; 0xfffff6fa
    2614:	00000000 	andeq	r0, r0, r0
    2618:	0004160d 	andeq	r1, r4, sp, lsl #12
    261c:	093a0600 	ldmdbeq	sl!, {r9, sl}
    2620:	00000025 	andeq	r0, r0, r5, lsr #32
    2624:	00b20d04 	adcseq	r0, r2, r4, lsl #26
    2628:	3b060000 	blcc	182630 <__bss_end__+0x1786d0>
    262c:	00002509 	andeq	r2, r0, r9, lsl #10
    2630:	040d0800 	streq	r0, [sp], #-2048	; 0xfffff800
    2634:	06000005 	streq	r0, [r0], -r5
    2638:	0025093c 	eoreq	r0, r5, ip, lsr r9
    263c:	0d0c0000 	stceq	0, cr0, [ip, #-0]
    2640:	0000027d 	andeq	r0, r0, sp, ror r2
    2644:	25093d06 	strcs	r3, [r9, #-3334]	; 0xfffff2fa
    2648:	10000000 	andne	r0, r0, r0
    264c:	00026c0d 	andeq	r6, r2, sp, lsl #24
    2650:	093e0600 	ldmdbeq	lr!, {r9, sl}
    2654:	00000025 	andeq	r0, r0, r5, lsr #32
    2658:	04810d14 	streq	r0, [r1], #3348	; 0xd14
    265c:	3f060000 	svccc	0x00060000
    2660:	00002509 	andeq	r2, r0, r9, lsl #10
    2664:	5d0d1800 	stcpl	8, cr1, [sp, #-0]
    2668:	06000003 	streq	r0, [r0], -r3
    266c:	00250940 	eoreq	r0, r5, r0, asr #18
    2670:	0d1c0000 	ldceq	0, cr0, [ip, #-0]
    2674:	000004cb 	andeq	r0, r0, fp, asr #9
    2678:	25094106 	strcs	r4, [r9, #-262]	; 0xfffffefa
    267c:	20000000 	andcs	r0, r0, r0
    2680:	00f21200 	rscseq	r1, r2, r0, lsl #4
    2684:	01080000 	mrseq	r0, (UNDEF: 8)
    2688:	85084a06 	strhi	r4, [r8, #-2566]	; 0xfffff5fa
    268c:	0d000002 	stceq	0, cr0, [r0, #-8]
    2690:	00000184 	andeq	r0, r0, r4, lsl #3
    2694:	850a4b06 	strhi	r4, [sl, #-2822]	; 0xfffff4fa
    2698:	00000002 	andeq	r0, r0, r2
    269c:	0000000d 	andeq	r0, r0, sp
    26a0:	094c0600 	stmdbeq	ip, {r9, sl}^
    26a4:	00000285 	andeq	r0, r0, r5, lsl #5
    26a8:	04321380 	ldrteq	r1, [r2], #-896	; 0xfffffc80
    26ac:	4e060000 	cdpmi	0, 0, cr0, cr6, cr0, {0}
    26b0:	0001410a 	andeq	r4, r1, sl, lsl #2
    26b4:	13010000 	movwne	r0, #4096	; 0x1000
    26b8:	00000117 	andeq	r0, r0, r7, lsl r1
    26bc:	410a5106 	tstmi	sl, r6, lsl #2
    26c0:	04000001 	streq	r0, [r0], #-1
    26c4:	2d0a0001 	stccs	0, cr0, [sl, #-4]
    26c8:	95000001 	strls	r0, [r0, #-1]
    26cc:	0b000002 	bleq	26dc <_start-0x5924>
    26d0:	0000002c 	andeq	r0, r0, ip, lsr #32
    26d4:	8612001f 			; <UNDEFINED> instruction: 0x8612001f
    26d8:	90000002 	andls	r0, r0, r2
    26dc:	085d0601 	ldmdaeq	sp, {r0, r9, sl}^
    26e0:	000002d8 	ldrdeq	r0, [r0], -r8
    26e4:	00039c0d 	andeq	r9, r3, sp, lsl #24
    26e8:	125e0600 	subsne	r0, lr, #0, 12
    26ec:	000002d8 	ldrdeq	r0, [r0], -r8
    26f0:	03b40d00 			; <UNDEFINED> instruction: 0x03b40d00
    26f4:	5f060000 	svcpl	0x00060000
    26f8:	00002506 	andeq	r2, r0, r6, lsl #10
    26fc:	8c0d0400 	cfstrshi	mvf0, [sp], {-0}
    2700:	06000001 	streq	r0, [r0], -r1
    2704:	02de0961 	sbcseq	r0, lr, #1589248	; 0x184000
    2708:	0d080000 	stceq	0, cr0, [r8, #-0]
    270c:	000000f2 	strdeq	r0, [r0], -r2
    2710:	401e6206 	andsmi	r6, lr, r6, lsl #4
    2714:	88000002 	stmdahi	r0, {r1}
    2718:	95040500 	strls	r0, [r4, #-1280]	; 0xfffffb00
    271c:	0a000002 	beq	272c <_start-0x58d4>
    2720:	000002ee 	andeq	r0, r0, lr, ror #5
    2724:	000002ee 	andeq	r0, r0, lr, ror #5
    2728:	00002c0b 	andeq	r2, r0, fp, lsl #24
    272c:	05001f00 	streq	r1, [r0, #-3840]	; 0xfffff100
    2730:	0002f404 	andeq	pc, r2, r4, lsl #8
    2734:	67101400 	ldrvs	r1, [r0, -r0, lsl #8]
    2738:	08000003 	stmdaeq	r0, {r0, r1}
    273c:	1d087506 	cfstr32ne	mvfx7, [r8, #-24]	; 0xffffffe8
    2740:	0d000003 	stceq	0, cr0, [r0, #-12]
    2744:	000000ac 	andeq	r0, r0, ip, lsr #1
    2748:	1d117606 	ldcne	6, cr7, [r1, #-24]	; 0xffffffe8
    274c:	00000003 	andeq	r0, r0, r3
    2750:	00000c0d 	andeq	r0, r0, sp, lsl #24
    2754:	06770600 	ldrbteq	r0, [r7], -r0, lsl #12
    2758:	00000025 	andeq	r0, r0, r5, lsr #32
    275c:	04050004 	streq	r0, [r5], #-4
    2760:	0000005b 	andeq	r0, r0, fp, asr r0
    2764:	00038610 	andeq	r8, r3, r0, lsl r6
    2768:	b5066800 	strlt	r6, [r6, #-2048]	; 0xfffff800
    276c:	00046608 	andeq	r6, r4, r8, lsl #12
    2770:	705f1100 	subsvc	r1, pc, r0, lsl #2
    2774:	12b60600 	adcsne	r0, r6, #0, 12
    2778:	0000031d 	andeq	r0, r0, sp, lsl r3
    277c:	725f1100 	subsvc	r1, pc, #0, 2
    2780:	07b70600 	ldreq	r0, [r7, r0, lsl #12]!
    2784:	00000025 	andeq	r0, r0, r5, lsr #32
    2788:	775f1104 	ldrbvc	r1, [pc, -r4, lsl #2]
    278c:	07b80600 	ldreq	r0, [r8, r0, lsl #12]!
    2790:	00000025 	andeq	r0, r0, r5, lsr #32
    2794:	01100d08 	tsteq	r0, r8, lsl #26
    2798:	b9060000 	stmdblt	r6, {}	; <UNPREDICTABLE>
    279c:	00003a09 	andeq	r3, r0, r9, lsl #20
    27a0:	f10d0c00 			; <UNDEFINED> instruction: 0xf10d0c00
    27a4:	06000001 	streq	r0, [r0], -r1
    27a8:	003a09ba 	ldrhteq	r0, [sl], -sl
    27ac:	110e0000 	mrsne	r0, (UNDEF: 14)
    27b0:	0066625f 	rsbeq	r6, r6, pc, asr r2
    27b4:	f511bb06 			; <UNDEFINED> instruction: 0xf511bb06
    27b8:	10000002 	andne	r0, r0, r2
    27bc:	00006c0d 	andeq	r6, r0, sp, lsl #24
    27c0:	07bc0600 	ldreq	r0, [ip, r0, lsl #12]!
    27c4:	00000025 	andeq	r0, r0, r5, lsr #32
    27c8:	01000d18 	tsteq	r0, r8, lsl sp
    27cc:	c3060000 	movwgt	r0, #24576	; 0x6000
    27d0:	00012d0a 	andeq	r2, r1, sl, lsl #26
    27d4:	240d1c00 	strcs	r1, [sp], #-3072	; 0xfffff400
    27d8:	0600000b 	streq	r0, [r0], -fp
    27dc:	05d81dc5 	ldrbeq	r1, [r8, #3525]	; 0xdc5
    27e0:	0d200000 	stceq	0, cr0, [r0, #-0]
    27e4:	00000619 	andeq	r0, r0, r9, lsl r6
    27e8:	021dc706 	andseq	ip, sp, #1572864	; 0x180000
    27ec:	24000006 	strcs	r0, [r0], #-6
    27f0:	0004080d 	andeq	r0, r4, sp, lsl #16
    27f4:	0dca0600 	stcleq	6, cr0, [sl]
    27f8:	00000626 	andeq	r0, r0, r6, lsr #12
    27fc:	04e50d28 	strbteq	r0, [r5], #3368	; 0xd28
    2800:	cb060000 	blgt	182808 <__bss_end__+0x1788a8>
    2804:	00064009 	andeq	r4, r6, r9
    2808:	5f112c00 	svcpl	0x00112c00
    280c:	06006275 			; <UNDEFINED> instruction: 0x06006275
    2810:	02f511ce 	rscseq	r1, r5, #-2147483597	; 0x80000033
    2814:	11300000 	teqne	r0, r0
    2818:	0070755f 	rsbseq	r7, r0, pc, asr r5
    281c:	1d12cf06 	ldcne	15, cr12, [r2, #-24]	; 0xffffffe8
    2820:	38000003 	stmdacc	r0, {r0, r1}
    2824:	72755f11 	rsbsvc	r5, r5, #17, 30	; 0x44
    2828:	07d00600 	ldrbeq	r0, [r0, r0, lsl #12]
    282c:	00000025 	andeq	r0, r0, r5, lsr #32
    2830:	00a60d3c 	adceq	r0, r6, ip, lsr sp
    2834:	d3060000 	movwle	r0, #24576	; 0x6000
    2838:	00064611 	andeq	r4, r6, r1, lsl r6
    283c:	bd0d4000 	stclt	0, cr4, [sp, #-0]
    2840:	06000004 	streq	r0, [r0], -r4
    2844:	065611d4 			; <UNDEFINED> instruction: 0x065611d4
    2848:	11430000 	mrsne	r0, (UNDEF: 67)
    284c:	00626c5f 	rsbeq	r6, r2, pc, asr ip
    2850:	f511d706 			; <UNDEFINED> instruction: 0xf511d706
    2854:	44000002 	strmi	r0, [r0], #-2
    2858:	0001350d 	andeq	r3, r1, sp, lsl #10
    285c:	07da0600 	ldrbeq	r0, [sl, r0, lsl #12]
    2860:	00000025 	andeq	r0, r0, r5, lsr #32
    2864:	01460d4c 	cmpeq	r6, ip, asr #26
    2868:	db060000 	blle	182870 <__bss_end__+0x178910>
    286c:	00009a0a 	andeq	r9, r0, sl, lsl #20
    2870:	c50d5000 	strgt	r5, [sp, #-0]
    2874:	0600000a 	streq	r0, [r0], -sl
    2878:	048412de 	streq	r1, [r4], #734	; 0x2de
    287c:	0d540000 	ldcleq	0, cr0, [r4, #-0]
    2880:	000003fa 	strdeq	r0, [r0], -sl
    2884:	210ce206 	tstcs	ip, r6, lsl #4
    2888:	58000001 	stmdapl	r0, {r0}
    288c:	00038e0d 	andeq	r8, r3, sp, lsl #28
    2890:	0ee40600 	cdpeq	6, 14, cr0, cr4, cr0, {0}
    2894:	00000115 	andeq	r0, r0, r5, lsl r1
    2898:	02640d5c 	rsbeq	r0, r4, #92, 26	; 0x1700
    289c:	e5060000 	str	r0, [r6, #-0]
    28a0:	00002509 	andeq	r2, r0, r9, lsl #10
    28a4:	15006400 	strne	r6, [r0, #-1024]	; 0xfffffc00
    28a8:	00000025 	andeq	r0, r0, r5, lsr #32
    28ac:	00000484 	andeq	r0, r0, r4, lsl #9
    28b0:	00048416 	andeq	r8, r4, r6, lsl r4
    28b4:	012d1600 			; <UNDEFINED> instruction: 0x012d1600
    28b8:	2f160000 	svccs	0x00160000
    28bc:	16000001 	strne	r0, [r0], -r1
    28c0:	00000025 	andeq	r0, r0, r5, lsr #32
    28c4:	8f040500 	svchi	0x00040500
    28c8:	0f000004 	svceq	0x00000004
    28cc:	00000484 	andeq	r0, r0, r4, lsl #9
    28d0:	0003e417 	andeq	lr, r3, r7, lsl r4
    28d4:	06042800 	streq	r2, [r4], -r0, lsl #16
    28d8:	d8080260 	stmdale	r8, {r5, r6, r9}
    28dc:	18000005 	stmdane	r0, {r0, r2}
    28e0:	0000034c 	andeq	r0, r0, ip, asr #6
    28e4:	07026206 	streq	r6, [r2, -r6, lsl #4]
    28e8:	00000025 	andeq	r0, r0, r5, lsr #32
    28ec:	04911800 	ldreq	r1, [r1], #2048	; 0x800
    28f0:	67060000 	strvs	r0, [r6, -r0]
    28f4:	06b20b02 	ldrteq	r0, [r2], r2, lsl #22
    28f8:	18040000 	stmdane	r4, {}	; <UNPREDICTABLE>
    28fc:	000001e1 	andeq	r0, r0, r1, ror #3
    2900:	14026706 	strne	r6, [r2], #-1798	; 0xfffff8fa
    2904:	000006b2 			; <UNDEFINED> instruction: 0x000006b2
    2908:	01a01808 	lsleq	r1, r8, #16
    290c:	67060000 	strvs	r0, [r6, -r0]
    2910:	06b21e02 	ldrteq	r1, [r2], r2, lsl #28
    2914:	180c0000 	stmdane	ip, {}	; <UNPREDICTABLE>
    2918:	000003af 	andeq	r0, r0, pc, lsr #7
    291c:	08026906 	stmdaeq	r2, {r1, r2, r8, fp, sp, lr}
    2920:	00000025 	andeq	r0, r0, r5, lsr #32
    2924:	001a1810 	andseq	r1, sl, r0, lsl r8
    2928:	6a060000 	bvs	182930 <__bss_end__+0x1789d0>
    292c:	08b20802 	ldmeq	r2!, {r1, fp}
    2930:	18140000 	ldmdane	r4, {}	; <UNPREDICTABLE>
    2934:	000003c3 	andeq	r0, r0, r3, asr #7
    2938:	07026d06 	streq	r6, [r2, -r6, lsl #26]
    293c:	00000025 	andeq	r0, r0, r5, lsr #32
    2940:	0a011830 	beq	48a08 <__bss_end__+0x3eaa8>
    2944:	6e060000 	cdpvs	0, 0, cr0, cr6, cr0, {0}
    2948:	08c71602 	stmiaeq	r7, {r1, r9, sl, ip}^
    294c:	18340000 	ldmdane	r4!, {}	; <UNPREDICTABLE>
    2950:	0000028e 	andeq	r0, r0, lr, lsl #5
    2954:	07027006 	streq	r7, [r2, -r6]
    2958:	00000025 	andeq	r0, r0, r5, lsr #32
    295c:	03b91838 			; <UNDEFINED> instruction: 0x03b91838
    2960:	72060000 	andvc	r0, r6, #0
    2964:	08d80a02 	ldmeq	r8, {r1, r9, fp}^
    2968:	183c0000 	ldmdane	ip!, {}	; <UNPREDICTABLE>
    296c:	00000240 	andeq	r0, r0, r0, asr #4
    2970:	13027506 	movwne	r7, #9478	; 0x2506
    2974:	000001a7 	andeq	r0, r0, r7, lsr #3
    2978:	01bf1840 			; <UNDEFINED> instruction: 0x01bf1840
    297c:	76060000 	strvc	r0, [r6], -r0
    2980:	00250702 	eoreq	r0, r5, r2, lsl #14
    2984:	18440000 	stmdane	r4, {}^	; <UNPREDICTABLE>
    2988:	000004ff 	strdeq	r0, [r0], -pc	; <UNPREDICTABLE>
    298c:	13027706 	movwne	r7, #9990	; 0x2706
    2990:	000001a7 	andeq	r0, r0, r7, lsr #3
    2994:	02a01848 	adceq	r1, r0, #72, 16	; 0x480000
    2998:	78060000 	stmdavc	r6, {}	; <UNPREDICTABLE>
    299c:	08de1402 	ldmeq	lr, {r1, sl, ip}^
    29a0:	184c0000 	stmdane	ip, {}^	; <UNPREDICTABLE>
    29a4:	000001e9 	andeq	r0, r0, r9, ror #3
    29a8:	07027b06 	streq	r7, [r2, -r6, lsl #22]
    29ac:	00000025 	andeq	r0, r0, r5, lsr #32
    29b0:	013e1850 	teqeq	lr, r0, asr r8
    29b4:	7c060000 	stcvc	0, cr0, [r6], {-0}
    29b8:	012f0902 			; <UNDEFINED> instruction: 0x012f0902
    29bc:	18540000 	ldmdane	r4, {}^	; <UNPREDICTABLE>
    29c0:	000002c6 	andeq	r0, r0, r6, asr #5
    29c4:	07029f06 	streq	r9, [r2, -r6, lsl #30]
    29c8:	0000088d 	andeq	r0, r0, sp, lsl #17
    29cc:	02861958 	addeq	r1, r6, #88, 18	; 0x160000
    29d0:	a3060000 	movwge	r0, #24576	; 0x6000
    29d4:	02d81302 	sbcseq	r1, r8, #134217728	; 0x8000000
    29d8:	01480000 	mrseq	r0, (UNDEF: 72)
    29dc:	00021e19 	andeq	r1, r2, r9, lsl lr
    29e0:	02a40600 	adceq	r0, r4, #0, 12
    29e4:	00029512 	andeq	r9, r2, r2, lsl r5
    29e8:	19014c00 	stmdbne	r1, {sl, fp, lr}
    29ec:	000004ab 	andeq	r0, r0, fp, lsr #9
    29f0:	0c02a806 	stceq	8, cr10, [r2], {6}
    29f4:	000008ef 	andeq	r0, r0, pc, ror #17
    29f8:	081902dc 	ldmdaeq	r9, {r2, r3, r4, r6, r7, r9}
    29fc:	06000001 	streq	r0, [r0], -r1
    2a00:	731002ad 	tstvc	r0, #-805306358	; 0xd000000a
    2a04:	e0000006 	and	r0, r0, r6
    2a08:	00ed1902 	rsceq	r1, sp, r2, lsl #18
    2a0c:	af060000 	svcge	0x00060000
    2a10:	08fb0a02 	ldmeq	fp!, {r1, r9, fp}^
    2a14:	02ec0000 	rsceq	r0, ip, #0
    2a18:	66040500 	strvs	r0, [r4], -r0, lsl #10
    2a1c:	15000004 	strne	r0, [r0, #-4]
    2a20:	00000025 	andeq	r0, r0, r5, lsr #32
    2a24:	000005fc 	strdeq	r0, [r0], -ip
    2a28:	00048416 	andeq	r8, r4, r6, lsl r4
    2a2c:	012d1600 			; <UNDEFINED> instruction: 0x012d1600
    2a30:	fc160000 	ldc2	0, cr0, [r6], {-0}
    2a34:	16000005 	strne	r0, [r0], -r5
    2a38:	00000025 	andeq	r0, r0, r5, lsr #32
    2a3c:	3c040500 	cfstr32cc	mvfx0, [r4], {-0}
    2a40:	05000001 	streq	r0, [r0, #-1]
    2a44:	0005de04 	andeq	sp, r5, r4, lsl #28
    2a48:	00a61500 	adceq	r1, r6, r0, lsl #10
    2a4c:	06260000 	strteq	r0, [r6], -r0
    2a50:	84160000 	ldrhi	r0, [r6], #-0
    2a54:	16000004 	strne	r0, [r0], -r4
    2a58:	0000012d 	andeq	r0, r0, sp, lsr #2
    2a5c:	0000a616 	andeq	sl, r0, r6, lsl r6
    2a60:	00251600 	eoreq	r1, r5, r0, lsl #12
    2a64:	05000000 	streq	r0, [r0, #-0]
    2a68:	00060804 	andeq	r0, r6, r4, lsl #16
    2a6c:	00251500 	eoreq	r1, r5, r0, lsl #10
    2a70:	06400000 	strbeq	r0, [r0], -r0
    2a74:	84160000 	ldrhi	r0, [r6], #-0
    2a78:	16000004 	strne	r0, [r0], -r4
    2a7c:	0000012d 	andeq	r0, r0, sp, lsr #2
    2a80:	2c040500 	cfstr32cs	mvfx0, [r4], {-0}
    2a84:	0a000006 	beq	2aa4 <_start-0x555c>
    2a88:	0000005b 	andeq	r0, r0, fp, asr r0
    2a8c:	00000656 	andeq	r0, r0, r6, asr r6
    2a90:	00002c0b 	andeq	r2, r0, fp, lsl #24
    2a94:	0a000200 	beq	329c <_start-0x4d64>
    2a98:	0000005b 	andeq	r0, r0, fp, asr r0
    2a9c:	00000666 	andeq	r0, r0, r6, ror #12
    2aa0:	00002c0b 	andeq	r2, r0, fp, lsl #24
    2aa4:	07000000 	streq	r0, [r0, -r0]
    2aa8:	00000374 	andeq	r0, r0, r4, ror r3
    2aac:	1a011f06 	bne	4a6cc <__bss_end__+0x4076c>
    2ab0:	00000323 	andeq	r0, r0, r3, lsr #6
    2ab4:	00048b1a 	andeq	r8, r4, sl, lsl fp
    2ab8:	23060c00 	movwcs	r0, #27648	; 0x6c00
    2abc:	06ac0801 	strteq	r0, [ip], r1, lsl #16
    2ac0:	9c180000 	ldcls	0, cr0, [r8], {-0}
    2ac4:	06000003 	streq	r0, [r0], -r3
    2ac8:	ac110125 	ldfges	f0, [r1], {37}	; 0x25
    2acc:	00000006 	andeq	r0, r0, r6
    2ad0:	00020418 	andeq	r0, r2, r8, lsl r4
    2ad4:	01260600 			; <UNDEFINED> instruction: 0x01260600
    2ad8:	00002507 	andeq	r2, r0, r7, lsl #10
    2adc:	6e180400 	cfmulsvs	mvf0, mvf8, mvf0
    2ae0:	06000003 	streq	r0, [r0], -r3
    2ae4:	b20b0127 	andlt	r0, fp, #-1073741815	; 0xc0000009
    2ae8:	08000006 	stmdaeq	r0, {r1, r2}
    2aec:	73040500 	movwvc	r0, #17664	; 0x4500
    2af0:	05000006 	streq	r0, [r0, #-6]
    2af4:	00066604 	andeq	r6, r6, r4, lsl #12
    2af8:	00121a00 	andseq	r1, r2, r0, lsl #20
    2afc:	060e0000 	streq	r0, [lr], -r0
    2b00:	f108013f 			; <UNDEFINED> instruction: 0xf108013f
    2b04:	18000006 	stmdane	r0, {r1, r2}
    2b08:	000003eb 	andeq	r0, r0, fp, ror #7
    2b0c:	12014006 	andne	r4, r1, #6
    2b10:	000006f1 	strdeq	r0, [r0], -r1
    2b14:	041f1800 	ldreq	r1, [pc], #-2048	; 2b1c <_start-0x54e4>
    2b18:	41060000 	mrsmi	r0, (UNDEF: 6)
    2b1c:	06f11201 	ldrbteq	r1, [r1], r1, lsl #4
    2b20:	18060000 	stmdane	r6, {}	; <UNPREDICTABLE>
    2b24:	0000043b 	andeq	r0, r0, fp, lsr r4
    2b28:	12014206 	andne	r4, r1, #1610612736	; 0x60000000
    2b2c:	00000062 	andeq	r0, r0, r2, rrx
    2b30:	620a000c 	andvs	r0, sl, #12
    2b34:	01000000 	mrseq	r0, (UNDEF: 0)
    2b38:	0b000007 	bleq	2b5c <_start-0x54a4>
    2b3c:	0000002c 	andeq	r0, r0, ip, lsr #32
    2b40:	d01b0002 	andsle	r0, fp, r2
    2b44:	07028006 	streq	r8, [r2, -r6]
    2b48:	00000816 	andeq	r0, r0, r6, lsl r8
    2b4c:	00046f18 	andeq	r6, r4, r8, lsl pc
    2b50:	02820600 	addeq	r0, r2, #0, 12
    2b54:	00002c18 	andeq	r2, r0, r8, lsl ip
    2b58:	25180000 	ldrcs	r0, [r8, #-0]
    2b5c:	06000004 	streq	r0, [r0], -r4
    2b60:	2f120283 	svccs	0x00120283
    2b64:	04000001 	streq	r0, [r0], #-1
    2b68:	00023318 	andeq	r3, r2, r8, lsl r3
    2b6c:	02840600 	addeq	r0, r4, #0, 12
    2b70:	00081610 	andeq	r1, r8, r0, lsl r6
    2b74:	d6180800 	ldrle	r0, [r8], -r0, lsl #16
    2b78:	06000004 	streq	r0, [r0], -r4
    2b7c:	bd170285 	lfmlt	f0, 4, [r7, #-532]	; 0xfffffdec
    2b80:	24000001 	strcs	r0, [r0], #-1
    2b84:	0001b018 	andeq	fp, r1, r8, lsl r0
    2b88:	02860600 	addeq	r0, r6, #0, 12
    2b8c:	0000250f 	andeq	r2, r0, pc, lsl #10
    2b90:	97184800 	ldrls	r4, [r8, -r0, lsl #16]
    2b94:	06000003 	streq	r0, [r0], -r3
    2b98:	7c2c0287 	sfmvc	f0, 4, [ip], #-540	; 0xfffffde4
    2b9c:	50000000 	andpl	r0, r0, r0
    2ba0:	0004ec18 	andeq	lr, r4, r8, lsl ip
    2ba4:	02880600 	addeq	r0, r8, #0, 12
    2ba8:	0006b81a 	andeq	fp, r6, sl, lsl r8
    2bac:	a2185800 	andsge	r5, r8, #0, 16
    2bb0:	06000003 	streq	r0, [r0], -r3
    2bb4:	15160289 	ldrne	r0, [r6, #-649]	; 0xfffffd77
    2bb8:	68000001 	stmdavs	r0, {r0}
    2bbc:	0004f118 	andeq	pc, r4, r8, lsl r1	; <UNPREDICTABLE>
    2bc0:	028a0600 	addeq	r0, sl, #0, 12
    2bc4:	00011516 	andeq	r1, r1, r6, lsl r5
    2bc8:	aa187000 	bge	61ebd0 <__bss_end__+0x614c70>
    2bcc:	06000002 	streq	r0, [r0], -r2
    2bd0:	1516028b 	ldrne	r0, [r6, #-651]	; 0xfffffd75
    2bd4:	78000001 	stmdavc	r0, {r0}
    2bd8:	0004a118 	andeq	sl, r4, r8, lsl r1
    2bdc:	028c0600 	addeq	r0, ip, #0, 12
    2be0:	00082610 	andeq	r2, r8, r0, lsl r6
    2be4:	27188000 	ldrcs	r8, [r8, -r0]
    2be8:	06000002 	streq	r0, [r0], -r2
    2bec:	3610028d 	ldrcc	r0, [r0], -sp, lsl #5
    2bf0:	88000008 	stmdahi	r0, {r3}
    2bf4:	00044818 	andeq	r4, r4, r8, lsl r8
    2bf8:	028e0600 	addeq	r0, lr, #0, 12
    2bfc:	0000250f 	andeq	r2, r0, pc, lsl #10
    2c00:	7618a000 	ldrvc	sl, [r8], -r0
    2c04:	06000001 	streq	r0, [r0], -r1
    2c08:	1516028f 	ldrne	r0, [r6, #-655]	; 0xfffffd71
    2c0c:	a4000001 	strge	r0, [r0], #-1
    2c10:	00008018 	andeq	r8, r0, r8, lsl r0
    2c14:	02900600 	addseq	r0, r0, #0, 12
    2c18:	00011516 	andeq	r1, r1, r6, lsl r5
    2c1c:	6518ac00 	ldrvs	sl, [r8, #-3072]	; 0xfffff400
    2c20:	06000001 	streq	r0, [r0], -r1
    2c24:	15160291 	ldrne	r0, [r6, #-657]	; 0xfffffd6f
    2c28:	b4000001 	strlt	r0, [r0], #-1
    2c2c:	00002d18 	andeq	r2, r0, r8, lsl sp
    2c30:	02920600 	addseq	r0, r2, #0, 12
    2c34:	00011516 	andeq	r1, r1, r6, lsl r5
    2c38:	3c18bc00 	ldccc	12, cr11, [r8], {-0}
    2c3c:	06000000 	streq	r0, [r0], -r0
    2c40:	15160293 	ldrne	r0, [r6, #-659]	; 0xfffffd6d
    2c44:	c4000001 	strgt	r0, [r0], #-1
    2c48:	00034a18 	andeq	r4, r3, r8, lsl sl
    2c4c:	02940600 	addseq	r0, r4, #0, 12
    2c50:	00002508 	andeq	r2, r0, r8, lsl #10
    2c54:	0a00cc00 	beq	35c5c <__bss_end__+0x2bcfc>
    2c58:	00000135 	andeq	r0, r0, r5, lsr r1
    2c5c:	00000826 	andeq	r0, r0, r6, lsr #16
    2c60:	00002c0b 	andeq	r2, r0, fp, lsl #24
    2c64:	0a001900 	beq	906c <rpi_reboot+0xc>
    2c68:	00000135 	andeq	r0, r0, r5, lsr r1
    2c6c:	00000836 	andeq	r0, r0, r6, lsr r8
    2c70:	00002c0b 	andeq	r2, r0, fp, lsl #24
    2c74:	0a000700 	beq	487c <_start-0x3784>
    2c78:	00000135 	andeq	r0, r0, r5, lsr r1
    2c7c:	00000846 	andeq	r0, r0, r6, asr #16
    2c80:	00002c0b 	andeq	r2, r0, fp, lsl #24
    2c84:	1b001700 	blne	888c <ck_heap_errors+0xe8>
    2c88:	029906f0 	addseq	r0, r9, #240, 12	; 0xf000000
    2c8c:	00086d07 	andeq	r6, r8, r7, lsl #26
    2c90:	02761800 	rsbseq	r1, r6, #0, 16
    2c94:	9c060000 	stcls	0, cr0, [r6], {-0}
    2c98:	086d1b02 	stmdaeq	sp!, {r1, r8, r9, fp, ip}^
    2c9c:	18000000 	stmdane	r0, {}	; <UNPREDICTABLE>
    2ca0:	00000498 	muleq	r0, r8, r4
    2ca4:	18029d06 	stmdane	r2, {r1, r2, r8, sl, fp, ip, pc}
    2ca8:	0000087d 	andeq	r0, r0, sp, ror r8
    2cac:	1d0a0078 	stcne	0, cr0, [sl, #-480]	; 0xfffffe20
    2cb0:	7d000003 	stcvc	0, cr0, [r0, #-12]
    2cb4:	0b000008 	bleq	2cdc <_start-0x5324>
    2cb8:	0000002c 	andeq	r0, r0, ip, lsr #32
    2cbc:	2c0a001d 	stccs	0, cr0, [sl], {29}
    2cc0:	8d000000 	stchi	0, cr0, [r0, #-0]
    2cc4:	0b000008 	bleq	2cec <_start-0x5314>
    2cc8:	0000002c 	andeq	r0, r0, ip, lsr #32
    2ccc:	f01c001d 			; <UNDEFINED> instruction: 0xf01c001d
    2cd0:	03027e06 	movweq	r7, #11782	; 0x2e06
    2cd4:	000008b2 			; <UNDEFINED> instruction: 0x000008b2
    2cd8:	0003e41d 	andeq	lr, r3, sp, lsl r4
    2cdc:	02950600 	addseq	r0, r5, #0, 12
    2ce0:	0007010b 	andeq	r0, r7, fp, lsl #2
    2ce4:	04c31d00 	strbeq	r1, [r3], #3328	; 0xd00
    2ce8:	9e060000 	cdpls	0, 0, cr0, cr6, cr0, {0}
    2cec:	08460b02 	stmdaeq	r6, {r1, r8, r9, fp}^
    2cf0:	0a000000 	beq	2cf8 <_start-0x5308>
    2cf4:	00000135 	andeq	r0, r0, r5, lsr r1
    2cf8:	000008c2 	andeq	r0, r0, r2, asr #17
    2cfc:	00002c0b 	andeq	r2, r0, fp, lsl #24
    2d00:	06001800 	streq	r1, [r0], -r0, lsl #16
    2d04:	00000075 	andeq	r0, r0, r5, ror r0
    2d08:	08c20405 	stmiaeq	r2, {r0, r2, sl}^
    2d0c:	d81e0000 	ldmdale	lr, {}	; <UNPREDICTABLE>
    2d10:	16000008 	strne	r0, [r0], -r8
    2d14:	00000484 	andeq	r0, r0, r4, lsl #9
    2d18:	cd040500 	cfstr32gt	mvfx0, [r4, #-0]
    2d1c:	05000008 	streq	r0, [r0, #-8]
    2d20:	0001a704 	andeq	sl, r1, r4, lsl #14
    2d24:	08ef1e00 	stmiaeq	pc!, {r9, sl, fp, ip}^	; <UNPREDICTABLE>
    2d28:	25160000 	ldrcs	r0, [r6, #-0]
    2d2c:	00000000 	andeq	r0, r0, r0
    2d30:	08f50405 	ldmeq	r5!, {r0, r2, sl}^
    2d34:	04050000 	streq	r0, [r5], #-0
    2d38:	000008e4 	andeq	r0, r0, r4, ror #17
    2d3c:	0006660a 	andeq	r6, r6, sl, lsl #12
    2d40:	00090b00 	andeq	r0, r9, r0, lsl #22
    2d44:	002c0b00 	eoreq	r0, ip, r0, lsl #22
    2d48:	00020000 	andeq	r0, r2, r0
    2d4c:	00045c1f 	andeq	r5, r4, pc, lsl ip
    2d50:	032e0600 			; <UNDEFINED> instruction: 0x032e0600
    2d54:	00048417 	andeq	r8, r4, r7, lsl r4
    2d58:	04551f00 	ldrbeq	r1, [r5], #-3840	; 0xfffff100
    2d5c:	2f060000 	svccs	0x00060000
    2d60:	048a1d03 	streq	r1, [sl], #3331	; 0xd03
    2d64:	25150000 	ldrcs	r0, [r5, #-0]
    2d68:	34000000 	strcc	r0, [r0], #-0
    2d6c:	16000009 	strne	r0, [r0], -r9
    2d70:	00000025 	andeq	r0, r0, r5, lsr #32
    2d74:	01c92000 	biceq	r2, r9, r0
    2d78:	1d070000 	stcne	0, cr0, [r7, #-0]
    2d7c:	0009400e 	andeq	r4, r9, lr
    2d80:	25040500 	strcs	r0, [r4, #-1280]	; 0xfffffb00
    2d84:	15000009 	strne	r0, [r0, #-9]
    2d88:	00000025 	andeq	r0, r0, r5, lsr #32
    2d8c:	00000955 	andeq	r0, r0, r5, asr r9
    2d90:	0005fc16 	andeq	pc, r5, r6, lsl ip	; <UNPREDICTABLE>
    2d94:	68200000 	stmdavs	r0!, {}	; <UNPREDICTABLE>
    2d98:	07000007 	streq	r0, [r0, -r7]
    2d9c:	09610e22 	stmdbeq	r1!, {r1, r5, r9, sl, fp}^
    2da0:	04050000 	streq	r0, [r5], #-0
    2da4:	00000946 	andeq	r0, r0, r6, asr #18
    2da8:	00053121 	andeq	r3, r5, r1, lsr #2
    2dac:	0a0f0100 	beq	3c31b4 <__bss_end__+0x3b9254>
    2db0:	00000069 	andeq	r0, r0, r9, rrx
    2db4:	000088f4 	strdeq	r8, [r0], -r4
    2db8:	000000ec 	andeq	r0, r0, ip, ror #1
    2dbc:	09fa9c01 	ldmibeq	sl!, {r0, sl, fp, ip, pc}^
    2dc0:	c5220000 	strgt	r0, [r2, #-0]!
    2dc4:	0100000a 	tsteq	r0, sl
    2dc8:	09fa210f 	ldmibeq	sl!, {r0, r1, r2, r3, r8, sp}^
    2dcc:	08430000 	stmdaeq	r3, {}^	; <UNPREDICTABLE>
    2dd0:	083b0000 	ldmdaeq	fp!, {}	; <UNPREDICTABLE>
    2dd4:	6c230000 	stcvs	0, cr0, [r3], #-0
    2dd8:	01006e65 	tsteq	r0, r5, ror #28
    2ddc:	00252c0f 	eoreq	r2, r5, pc, lsl #24
    2de0:	08870000 	stmeq	r7, {}	; <UNPREDICTABLE>
    2de4:	087d0000 	ldmdaeq	sp!, {}^	; <UNPREDICTABLE>
    2de8:	c6240000 	strtgt	r0, [r4], -r0
    2dec:	0100000a 	tsteq	r0, sl
    2df0:	05fc1210 	ldrbeq	r1, [ip, #528]!	; 0x210
    2df4:	08ce0000 	stmiaeq	lr, {}^	; <UNPREDICTABLE>
    2df8:	08c60000 	stmiaeq	r6, {}^	; <UNPREDICTABLE>
    2dfc:	36240000 	strtcc	r0, [r4], -r0
    2e00:	01000005 	tsteq	r0, r5
    2e04:	00690a11 	rsbeq	r0, r9, r1, lsl sl
    2e08:	09130000 	ldmdbeq	r3, {}	; <UNPREDICTABLE>
    2e0c:	09050000 	stmdbeq	r5, {}	; <UNPREDICTABLE>
    2e10:	74250000 	strtvc	r0, [r5], #-0
    2e14:	0100706d 	tsteq	r0, sp, rrx
    2e18:	00691611 	rsbeq	r1, r9, r1, lsl r6
    2e1c:	096e0000 	stmdbeq	lr!, {}^	; <UNPREDICTABLE>
    2e20:	09680000 	stmdbeq	r8!, {}^	; <UNPREDICTABLE>
    2e24:	72250000 	eorvc	r0, r5, #0
    2e28:	01006d65 	tsteq	r0, r5, ror #26
    2e2c:	00250512 	eoreq	r0, r5, r2, lsl r5
    2e30:	09bb0000 	ldmibeq	fp!, {}	; <UNPREDICTABLE>
    2e34:	09b90000 	ldmibeq	r9!, {}	; <UNPREDICTABLE>
    2e38:	05000000 	streq	r0, [r0, #-0]
    2e3c:	000a0004 	andeq	r0, sl, r4
    2e40:	7c002600 	stcvc	6, cr2, [r0], {-0}
    2e44:	04000009 	streq	r0, [r0], #-9
    2e48:	0007d400 	andeq	sp, r7, r0, lsl #8
    2e4c:	cb010400 	blgt	43e54 <__bss_end__+0x39ef4>
    2e50:	0c000002 	stceq	0, cr0, [r0], {2}
    2e54:	000006e4 	andeq	r0, r0, r4, ror #13
    2e58:	000006c1 	andeq	r0, r0, r1, asr #13
    2e5c:	000089e0 	andeq	r8, r0, r0, ror #19
    2e60:	00000018 	andeq	r0, r0, r8, lsl r0
    2e64:	00000aa2 	andeq	r0, r0, r2, lsr #21
    2e68:	69050402 	stmdbvs	r5, {r1, sl}
    2e6c:	0300746e 	movweq	r7, #1134	; 0x46e
    2e70:	000006dd 	ldrdeq	r0, [r0], -sp
    2e74:	3817d102 	ldmdacc	r7, {r1, r8, ip, lr, pc}
    2e78:	04000000 	streq	r0, [r0], #-0
    2e7c:	00570704 	subseq	r0, r7, r4, lsl #14
    2e80:	01040000 	mrseq	r0, (UNDEF: 4)
    2e84:	0002ba06 	andeq	fp, r2, r6, lsl #20
    2e88:	08010400 	stmdaeq	r1, {sl}
    2e8c:	000002b8 			; <UNDEFINED> instruction: 0x000002b8
    2e90:	53050204 	movwpl	r0, #20996	; 0x5204
    2e94:	04000003 	streq	r0, [r0], #-3
    2e98:	020b0702 	andeq	r0, fp, #524288	; 0x80000
    2e9c:	04040000 	streq	r0, [r4], #-0
    2ea0:	00009d05 	andeq	r9, r0, r5, lsl #26
    2ea4:	07040400 	streq	r0, [r4, -r0, lsl #8]
    2ea8:	00000052 	andeq	r0, r0, r2, asr r0
    2eac:	98050804 	stmdals	r5, {r2, fp}
    2eb0:	04000000 	streq	r0, [r0], #-0
    2eb4:	004d0708 	subeq	r0, sp, r8, lsl #14
    2eb8:	4e030000 	cdpmi	0, 0, cr0, cr3, cr0, {0}
    2ebc:	03000002 	movweq	r0, #2
    2ec0:	00831922 	addeq	r1, r3, r2, lsr #18
    2ec4:	04050000 	streq	r0, [r5], #-0
    2ec8:	00000089 	andeq	r0, r0, r9, lsl #1
    2ecc:	0003f906 	andeq	pc, r3, r6, lsl #18
    2ed0:	02990300 	addseq	r0, r9, #0, 6
    2ed4:	2c040000 	stccs	0, cr0, [r4], {-0}
    2ed8:	00005b0e 	andeq	r5, r0, lr, lsl #22
    2edc:	040e0300 	streq	r0, [lr], #-768	; 0xfffffd00
    2ee0:	72040000 	andvc	r0, r4, #0
    2ee4:	00005b0e 	andeq	r5, r0, lr, lsl #22
    2ee8:	02560700 	subseq	r0, r6, #0, 14
    2eec:	5e020000 	cdppl	0, 0, cr0, cr2, cr0, {0}
    2ef0:	00381701 	eorseq	r1, r8, r1, lsl #14
    2ef4:	04080000 	streq	r0, [r8], #-0
    2ef8:	d503a604 	strle	sl, [r3, #-1540]	; 0xfffff9fc
    2efc:	09000000 	stmdbeq	r0, {}	; <UNPREDICTABLE>
    2f00:	00000248 	andeq	r0, r0, r8, asr #4
    2f04:	a60ca804 	strge	sl, [ip], -r4, lsl #16
    2f08:	09000000 	stmdbeq	r0, {}	; <UNPREDICTABLE>
    2f0c:	000001da 	ldrdeq	r0, [r0], -sl
    2f10:	d513a904 	ldrle	sl, [r3, #-2308]	; 0xfffff6fc
    2f14:	00000000 	andeq	r0, r0, r0
    2f18:	0000460a 	andeq	r4, r0, sl, lsl #12
    2f1c:	0000e500 	andeq	lr, r0, r0, lsl #10
    2f20:	00380b00 	eorseq	r0, r8, r0, lsl #22
    2f24:	00030000 	andeq	r0, r3, r0
    2f28:	a304080c 	movwge	r0, #18444	; 0x480c
    2f2c:	00010909 	andeq	r0, r1, r9, lsl #18
    2f30:	03f10d00 	mvnseq	r0, #0, 26
    2f34:	a5040000 	strge	r0, [r4, #-0]
    2f38:	00002507 	andeq	r2, r0, r7, lsl #10
    2f3c:	000d0000 	andeq	r0, sp, r0
    2f40:	04000004 	streq	r0, [r0], #-4
    2f44:	00b305aa 	adcseq	r0, r3, sl, lsr #11
    2f48:	00040000 	andeq	r0, r4, r0
    2f4c:	00037b03 	andeq	r7, r3, r3, lsl #22
    2f50:	03ab0400 			; <UNDEFINED> instruction: 0x03ab0400
    2f54:	000000e5 	andeq	r0, r0, r5, ror #1
    2f58:	00019703 	andeq	r9, r1, r3, lsl #14
    2f5c:	1baf0400 	blne	febc3f64 <__bss_end__+0xfebba004>
    2f60:	00000077 	andeq	r0, r0, r7, ror r0
    2f64:	0405040e 	streq	r0, [r5], #-1038	; 0xfffffbf2
    2f68:	00000129 	andeq	r0, r0, r9, lsr #2
    2f6c:	c1080104 	tstgt	r8, r4, lsl #2
    2f70:	0f000002 	svceq	0x00000002
    2f74:	00000129 	andeq	r0, r0, r9, lsr #2
    2f78:	00044003 	andeq	r4, r4, r3
    2f7c:	19160500 	ldmdbne	r6, {r8, sl}
    2f80:	00000062 	andeq	r0, r0, r2, rrx
    2f84:	0001a810 	andeq	sl, r1, r0, lsl r8
    2f88:	2f051800 	svccs	0x00051800
    2f8c:	00019b08 	andeq	r9, r1, r8, lsl #22
    2f90:	039c0d00 	orrseq	r0, ip, #0, 26
    2f94:	31050000 	mrscc	r0, (UNDEF: 5)
    2f98:	00019b13 	andeq	r9, r1, r3, lsl fp
    2f9c:	5f110000 	svcpl	0x00110000
    2fa0:	3205006b 	andcc	r0, r5, #107	; 0x6b
    2fa4:	00002507 	andeq	r2, r0, r7, lsl #10
    2fa8:	dc0d0400 	cfstrsle	mvf0, [sp], {-0}
    2fac:	05000003 	streq	r0, [r0, #-3]
    2fb0:	00250b32 	eoreq	r0, r5, r2, lsr fp
    2fb4:	0d080000 	stceq	0, cr0, [r8, #-0]
    2fb8:	00000191 	muleq	r0, r1, r1
    2fbc:	25143205 	ldrcs	r3, [r4, #-517]	; 0xfffffdfb
    2fc0:	0c000000 	stceq	0, cr0, [r0], {-0}
    2fc4:	00047c0d 	andeq	r7, r4, sp, lsl #24
    2fc8:	1b320500 	blne	c843d0 <__bss_end__+0xc7a470>
    2fcc:	00000025 	andeq	r0, r0, r5, lsr #32
    2fd0:	785f1110 	ldmdavc	pc, {r4, r8, ip}^	; <UNPREDICTABLE>
    2fd4:	0b330500 	bleq	cc43dc <__bss_end__+0xcba47c>
    2fd8:	000001a1 	andeq	r0, r0, r1, lsr #3
    2fdc:	04050014 	streq	r0, [r5], #-20	; 0xffffffec
    2fe0:	00000141 	andeq	r0, r0, r1, asr #2
    2fe4:	0001350a 	andeq	r3, r1, sl, lsl #10
    2fe8:	0001b100 	andeq	fp, r1, r0, lsl #2
    2fec:	00380b00 	eorseq	r0, r8, r0, lsl #22
    2ff0:	00000000 	andeq	r0, r0, r0
    2ff4:	0001d510 	andeq	sp, r1, r0, lsl r5
    2ff8:	37052400 	strcc	r2, [r5, -r0, lsl #8]
    2ffc:	00023408 	andeq	r3, r2, r8, lsl #8
    3000:	008f0d00 	addeq	r0, pc, r0, lsl #26
    3004:	39050000 	stmdbcc	r5, {}	; <UNPREDICTABLE>
    3008:	00002509 	andeq	r2, r0, r9, lsl #10
    300c:	160d0000 	strne	r0, [sp], -r0
    3010:	05000004 	streq	r0, [r0, #-4]
    3014:	0025093a 	eoreq	r0, r5, sl, lsr r9
    3018:	0d040000 	stceq	0, cr0, [r4, #-0]
    301c:	000000b2 	strheq	r0, [r0], -r2
    3020:	25093b05 	strcs	r3, [r9, #-2821]	; 0xfffff4fb
    3024:	08000000 	stmdaeq	r0, {}	; <UNPREDICTABLE>
    3028:	0005040d 	andeq	r0, r5, sp, lsl #8
    302c:	093c0500 	ldmdbeq	ip!, {r8, sl}
    3030:	00000025 	andeq	r0, r0, r5, lsr #32
    3034:	027d0d0c 	rsbseq	r0, sp, #12, 26	; 0x300
    3038:	3d050000 	stccc	0, cr0, [r5, #-0]
    303c:	00002509 	andeq	r2, r0, r9, lsl #10
    3040:	6c0d1000 	stcvs	0, cr1, [sp], {-0}
    3044:	05000002 	streq	r0, [r0, #-2]
    3048:	0025093e 	eoreq	r0, r5, lr, lsr r9
    304c:	0d140000 	ldceq	0, cr0, [r4, #-0]
    3050:	00000481 	andeq	r0, r0, r1, lsl #9
    3054:	25093f05 	strcs	r3, [r9, #-3845]	; 0xfffff0fb
    3058:	18000000 	stmdane	r0, {}	; <UNPREDICTABLE>
    305c:	00035d0d 	andeq	r5, r3, sp, lsl #26
    3060:	09400500 	stmdbeq	r0, {r8, sl}^
    3064:	00000025 	andeq	r0, r0, r5, lsr #32
    3068:	04cb0d1c 	strbeq	r0, [fp], #3356	; 0xd1c
    306c:	41050000 	mrsmi	r0, (UNDEF: 5)
    3070:	00002509 	andeq	r2, r0, r9, lsl #10
    3074:	12002000 	andne	r2, r0, #0
    3078:	000000f2 	strdeq	r0, [r0], -r2
    307c:	4a050108 	bmi	1434a4 <__bss_end__+0x139544>
    3080:	00027908 	andeq	r7, r2, r8, lsl #18
    3084:	01840d00 	orreq	r0, r4, r0, lsl #26
    3088:	4b050000 	blmi	143090 <__bss_end__+0x139130>
    308c:	0002790a 	andeq	r7, r2, sl, lsl #18
    3090:	000d0000 	andeq	r0, sp, r0
    3094:	05000000 	streq	r0, [r0, #-0]
    3098:	0279094c 	rsbseq	r0, r9, #76, 18	; 0x130000
    309c:	13800000 	orrne	r0, r0, #0
    30a0:	00000432 	andeq	r0, r0, r2, lsr r4
    30a4:	350a4e05 	strcc	r4, [sl, #-3589]	; 0xfffff1fb
    30a8:	00000001 	andeq	r0, r0, r1
    30ac:	01171301 	tsteq	r7, r1, lsl #6
    30b0:	51050000 	mrspl	r0, (UNDEF: 5)
    30b4:	0001350a 	andeq	r3, r1, sl, lsl #10
    30b8:	00010400 	andeq	r0, r1, r0, lsl #8
    30bc:	0001210a 	andeq	r2, r1, sl, lsl #2
    30c0:	00028900 	andeq	r8, r2, r0, lsl #18
    30c4:	00380b00 	eorseq	r0, r8, r0, lsl #22
    30c8:	001f0000 	andseq	r0, pc, r0
    30cc:	00028612 	andeq	r8, r2, r2, lsl r6
    30d0:	05019000 	streq	r9, [r1, #-0]
    30d4:	02cc085d 	sbceq	r0, ip, #6094848	; 0x5d0000
    30d8:	9c0d0000 	stcls	0, cr0, [sp], {-0}
    30dc:	05000003 	streq	r0, [r0, #-3]
    30e0:	02cc125e 	sbceq	r1, ip, #-536870907	; 0xe0000005
    30e4:	0d000000 	stceq	0, cr0, [r0, #-0]
    30e8:	000003b4 			; <UNDEFINED> instruction: 0x000003b4
    30ec:	25065f05 	strcs	r5, [r6, #-3845]	; 0xfffff0fb
    30f0:	04000000 	streq	r0, [r0], #-0
    30f4:	00018c0d 	andeq	r8, r1, sp, lsl #24
    30f8:	09610500 	stmdbeq	r1!, {r8, sl}^
    30fc:	000002d2 	ldrdeq	r0, [r0], -r2
    3100:	00f20d08 	rscseq	r0, r2, r8, lsl #26
    3104:	62050000 	andvs	r0, r5, #0
    3108:	0002341e 	andeq	r3, r2, lr, lsl r4
    310c:	05008800 	streq	r8, [r0, #-2048]	; 0xfffff800
    3110:	00028904 	andeq	r8, r2, r4, lsl #18
    3114:	02e20a00 	rsceq	r0, r2, #0, 20
    3118:	02e20000 	rsceq	r0, r2, #0
    311c:	380b0000 	stmdacc	fp, {}	; <UNPREDICTABLE>
    3120:	1f000000 	svcne	0x00000000
    3124:	e8040500 	stmda	r4, {r8, sl}
    3128:	14000002 	strne	r0, [r0], #-2
    312c:	00036710 	andeq	r6, r3, r0, lsl r7
    3130:	75050800 	strvc	r0, [r5, #-2048]	; 0xfffff800
    3134:	00031108 	andeq	r1, r3, r8, lsl #2
    3138:	00ac0d00 	adceq	r0, ip, r0, lsl #26
    313c:	76050000 	strvc	r0, [r5], -r0
    3140:	00031111 	andeq	r1, r3, r1, lsl r1
    3144:	0c0d0000 	stceq	0, cr0, [sp], {-0}
    3148:	05000000 	streq	r0, [r0, #-0]
    314c:	00250677 	eoreq	r0, r5, r7, ror r6
    3150:	00040000 	andeq	r0, r4, r0
    3154:	00460405 	subeq	r0, r6, r5, lsl #8
    3158:	86100000 	ldrhi	r0, [r0], -r0
    315c:	68000003 	stmdavs	r0, {r0, r1}
    3160:	5a08b505 	bpl	23057c <__bss_end__+0x22661c>
    3164:	11000004 	tstne	r0, r4
    3168:	0500705f 	streq	r7, [r0, #-95]	; 0xffffffa1
    316c:	031112b6 	tsteq	r1, #1610612747	; 0x6000000b
    3170:	11000000 	mrsne	r0, (UNDEF: 0)
    3174:	0500725f 	streq	r7, [r0, #-607]	; 0xfffffda1
    3178:	002507b7 	strhteq	r0, [r5], -r7
    317c:	11040000 	mrsne	r0, (UNDEF: 4)
    3180:	0500775f 	streq	r7, [r0, #-1887]	; 0xfffff8a1
    3184:	002507b8 	strhteq	r0, [r5], -r8
    3188:	0d080000 	stceq	0, cr0, [r8, #-0]
    318c:	00000110 	andeq	r0, r0, r0, lsl r1
    3190:	4d09b905 	vstrmi.16	s22, [r9, #-10]	; <UNPREDICTABLE>
    3194:	0c000000 	stceq	0, cr0, [r0], {-0}
    3198:	0001f10d 	andeq	pc, r1, sp, lsl #2
    319c:	09ba0500 	ldmibeq	sl!, {r8, sl}
    31a0:	0000004d 	andeq	r0, r0, sp, asr #32
    31a4:	625f110e 	subsvs	r1, pc, #-2147483645	; 0x80000003
    31a8:	bb050066 	bllt	143348 <__bss_end__+0x1393e8>
    31ac:	0002e911 	andeq	lr, r2, r1, lsl r9
    31b0:	6c0d1000 	stcvs	0, cr1, [sp], {-0}
    31b4:	05000000 	streq	r0, [r0, #-0]
    31b8:	002507bc 	strhteq	r0, [r5], -ip
    31bc:	0d180000 	ldceq	0, cr0, [r8, #-0]
    31c0:	00000100 	andeq	r0, r0, r0, lsl #2
    31c4:	210ac305 	tstcs	sl, r5, lsl #6
    31c8:	1c000001 	stcne	0, cr0, [r0], {1}
    31cc:	000b240d 	andeq	r2, fp, sp, lsl #8
    31d0:	1dc50500 	cfstr64ne	mvdx0, [r5]
    31d4:	000005cc 	andeq	r0, r0, ip, asr #11
    31d8:	06190d20 	ldreq	r0, [r9], -r0, lsr #26
    31dc:	c7050000 	strgt	r0, [r5, -r0]
    31e0:	0005f61d 	andeq	pc, r5, sp, lsl r6	; <UNPREDICTABLE>
    31e4:	080d2400 	stmdaeq	sp, {sl, sp}
    31e8:	05000004 	streq	r0, [r0, #-4]
    31ec:	061a0dca 	ldreq	r0, [sl], -sl, asr #27
    31f0:	0d280000 	stceq	0, cr0, [r8, #-0]
    31f4:	000004e5 	andeq	r0, r0, r5, ror #9
    31f8:	3409cb05 	strcc	ip, [r9], #-2821	; 0xfffff4fb
    31fc:	2c000006 	stccs	0, cr0, [r0], {6}
    3200:	62755f11 	rsbsvs	r5, r5, #17, 30	; 0x44
    3204:	11ce0500 	bicne	r0, lr, r0, lsl #10
    3208:	000002e9 	andeq	r0, r0, r9, ror #5
    320c:	755f1130 	ldrbvc	r1, [pc, #-304]	; 30e4 <_start-0x4f1c>
    3210:	cf050070 	svcgt	0x00050070
    3214:	00031112 	andeq	r1, r3, r2, lsl r1
    3218:	5f113800 	svcpl	0x00113800
    321c:	05007275 	streq	r7, [r0, #-629]	; 0xfffffd8b
    3220:	002507d0 	ldrdeq	r0, [r5], -r0	; <UNPREDICTABLE>
    3224:	0d3c0000 	ldceq	0, cr0, [ip, #-0]
    3228:	000000a6 	andeq	r0, r0, r6, lsr #1
    322c:	3a11d305 	bcc	477e48 <__bss_end__+0x46dee8>
    3230:	40000006 	andmi	r0, r0, r6
    3234:	0004bd0d 	andeq	fp, r4, sp, lsl #26
    3238:	11d40500 	bicsne	r0, r4, r0, lsl #10
    323c:	0000064a 	andeq	r0, r0, sl, asr #12
    3240:	6c5f1143 	ldfvse	f1, [pc], {67}	; 0x43
    3244:	d7050062 	strle	r0, [r5, -r2, rrx]
    3248:	0002e911 	andeq	lr, r2, r1, lsl r9
    324c:	350d4400 	strcc	r4, [sp, #-1024]	; 0xfffffc00
    3250:	05000001 	streq	r0, [r0, #-1]
    3254:	002507da 	ldrdeq	r0, [r5], -sl	; <UNPREDICTABLE>
    3258:	0d4c0000 	stcleq	0, cr0, [ip, #-0]
    325c:	00000146 	andeq	r0, r0, r6, asr #2
    3260:	8e0adb05 	vmlahi.f64	d13, d10, d5
    3264:	50000000 	andpl	r0, r0, r0
    3268:	000ac50d 	andeq	ip, sl, sp, lsl #10
    326c:	12de0500 	sbcsne	r0, lr, #0, 10
    3270:	00000478 	andeq	r0, r0, r8, ror r4
    3274:	03fa0d54 	mvnseq	r0, #84, 26	; 0x1500
    3278:	e2050000 	and	r0, r5, #0
    327c:	0001150c 	andeq	r1, r1, ip, lsl #10
    3280:	8e0d5800 	cdphi	8, 0, cr5, cr13, cr0, {0}
    3284:	05000003 	streq	r0, [r0, #-3]
    3288:	01090ee4 	smlatteq	r9, r4, lr, r0
    328c:	0d5c0000 	ldcleq	0, cr0, [ip, #-0]
    3290:	00000264 	andeq	r0, r0, r4, ror #4
    3294:	2509e505 	strcs	lr, [r9, #-1285]	; 0xfffffafb
    3298:	64000000 	strvs	r0, [r0], #-0
    329c:	00251500 	eoreq	r1, r5, r0, lsl #10
    32a0:	04780000 	ldrbteq	r0, [r8], #-0
    32a4:	78160000 	ldmdavc	r6, {}	; <UNPREDICTABLE>
    32a8:	16000004 	strne	r0, [r0], -r4
    32ac:	00000121 	andeq	r0, r0, r1, lsr #2
    32b0:	00012316 	andeq	r2, r1, r6, lsl r3
    32b4:	00251600 	eoreq	r1, r5, r0, lsl #12
    32b8:	05000000 	streq	r0, [r0, #-0]
    32bc:	00048304 	andeq	r8, r4, r4, lsl #6
    32c0:	04780f00 	ldrbteq	r0, [r8], #-3840	; 0xfffff100
    32c4:	e4170000 	ldr	r0, [r7], #-0
    32c8:	28000003 	stmdacs	r0, {r0, r1}
    32cc:	02600504 	rsbeq	r0, r0, #4, 10	; 0x1000000
    32d0:	0005cc08 	andeq	ip, r5, r8, lsl #24
    32d4:	034c1800 	movteq	r1, #51200	; 0xc800
    32d8:	62050000 	andvs	r0, r5, #0
    32dc:	00250702 	eoreq	r0, r5, r2, lsl #14
    32e0:	18000000 	stmdane	r0, {}	; <UNPREDICTABLE>
    32e4:	00000491 	muleq	r0, r1, r4
    32e8:	0b026705 	bleq	9cf04 <__bss_end__+0x92fa4>
    32ec:	000006a6 	andeq	r0, r0, r6, lsr #13
    32f0:	01e11804 	mvneq	r1, r4, lsl #16
    32f4:	67050000 	strvs	r0, [r5, -r0]
    32f8:	06a61402 	strteq	r1, [r6], r2, lsl #8
    32fc:	18080000 	stmdane	r8, {}	; <UNPREDICTABLE>
    3300:	000001a0 	andeq	r0, r0, r0, lsr #3
    3304:	1e026705 	cdpne	7, 0, cr6, cr2, cr5, {0}
    3308:	000006a6 	andeq	r0, r0, r6, lsr #13
    330c:	03af180c 			; <UNDEFINED> instruction: 0x03af180c
    3310:	69050000 	stmdbvs	r5, {}	; <UNPREDICTABLE>
    3314:	00250802 	eoreq	r0, r5, r2, lsl #16
    3318:	18100000 	ldmdane	r0, {}	; <UNPREDICTABLE>
    331c:	0000001a 	andeq	r0, r0, sl, lsl r0
    3320:	08026a05 	stmdaeq	r2, {r0, r2, r9, fp, sp, lr}
    3324:	000008a6 	andeq	r0, r0, r6, lsr #17
    3328:	03c31814 	biceq	r1, r3, #20, 16	; 0x140000
    332c:	6d050000 	stcvs	0, cr0, [r5, #-0]
    3330:	00250702 	eoreq	r0, r5, r2, lsl #14
    3334:	18300000 	ldmdane	r0!, {}	; <UNPREDICTABLE>
    3338:	00000a01 	andeq	r0, r0, r1, lsl #20
    333c:	16026e05 	strne	r6, [r2], -r5, lsl #28
    3340:	000008bb 			; <UNDEFINED> instruction: 0x000008bb
    3344:	028e1834 	addeq	r1, lr, #52, 16	; 0x340000
    3348:	70050000 	andvc	r0, r5, r0
    334c:	00250702 	eoreq	r0, r5, r2, lsl #14
    3350:	18380000 	ldmdane	r8!, {}	; <UNPREDICTABLE>
    3354:	000003b9 			; <UNDEFINED> instruction: 0x000003b9
    3358:	0a027205 	beq	9fb74 <__bss_end__+0x95c14>
    335c:	000008cc 	andeq	r0, r0, ip, asr #17
    3360:	0240183c 	subeq	r1, r0, #60, 16	; 0x3c0000
    3364:	75050000 	strvc	r0, [r5, #-0]
    3368:	019b1302 	orrseq	r1, fp, r2, lsl #6
    336c:	18400000 	stmdane	r0, {}^	; <UNPREDICTABLE>
    3370:	000001bf 			; <UNDEFINED> instruction: 0x000001bf
    3374:	07027605 	streq	r7, [r2, -r5, lsl #12]
    3378:	00000025 	andeq	r0, r0, r5, lsr #32
    337c:	04ff1844 	ldrbteq	r1, [pc], #2116	; 3384 <_start-0x4c7c>
    3380:	77050000 	strvc	r0, [r5, -r0]
    3384:	019b1302 	orrseq	r1, fp, r2, lsl #6
    3388:	18480000 	stmdane	r8, {}^	; <UNPREDICTABLE>
    338c:	000002a0 	andeq	r0, r0, r0, lsr #5
    3390:	14027805 	strne	r7, [r2], #-2053	; 0xfffff7fb
    3394:	000008d2 	ldrdeq	r0, [r0], -r2
    3398:	01e9184c 	mvneq	r1, ip, asr #16
    339c:	7b050000 	blvc	1433a4 <__bss_end__+0x139444>
    33a0:	00250702 	eoreq	r0, r5, r2, lsl #14
    33a4:	18500000 	ldmdane	r0, {}^	; <UNPREDICTABLE>
    33a8:	0000013e 	andeq	r0, r0, lr, lsr r1
    33ac:	09027c05 	stmdbeq	r2, {r0, r2, sl, fp, ip, sp, lr}
    33b0:	00000123 	andeq	r0, r0, r3, lsr #2
    33b4:	02c61854 	sbceq	r1, r6, #84, 16	; 0x540000
    33b8:	9f050000 	svcls	0x00050000
    33bc:	08810702 	stmeq	r1, {r1, r8, r9, sl}
    33c0:	19580000 	ldmdbne	r8, {}^	; <UNPREDICTABLE>
    33c4:	00000286 	andeq	r0, r0, r6, lsl #5
    33c8:	1302a305 	movwne	sl, #8965	; 0x2305
    33cc:	000002cc 	andeq	r0, r0, ip, asr #5
    33d0:	1e190148 	mufneem	f0, f1, #0.0
    33d4:	05000002 	streq	r0, [r0, #-2]
    33d8:	891202a4 	ldmdbhi	r2, {r2, r5, r7, r9}
    33dc:	4c000002 	stcmi	0, cr0, [r0], {2}
    33e0:	04ab1901 	strteq	r1, [fp], #2305	; 0x901
    33e4:	a8050000 	stmdage	r5, {}	; <UNPREDICTABLE>
    33e8:	08e30c02 	stmiaeq	r3!, {r1, sl, fp}^
    33ec:	02dc0000 	sbcseq	r0, ip, #0
    33f0:	00010819 	andeq	r0, r1, r9, lsl r8
    33f4:	02ad0500 	adceq	r0, sp, #0, 10
    33f8:	00066710 	andeq	r6, r6, r0, lsl r7
    33fc:	1902e000 	stmdbne	r2, {sp, lr, pc}
    3400:	000000ed 	andeq	r0, r0, sp, ror #1
    3404:	0a02af05 	beq	af020 <__bss_end__+0xa50c0>
    3408:	000008ef 	andeq	r0, r0, pc, ror #17
    340c:	050002ec 	streq	r0, [r0, #-748]	; 0xfffffd14
    3410:	00045a04 	andeq	r5, r4, r4, lsl #20
    3414:	00251500 	eoreq	r1, r5, r0, lsl #10
    3418:	05f00000 	ldrbeq	r0, [r0, #0]!
    341c:	78160000 	ldmdavc	r6, {}	; <UNPREDICTABLE>
    3420:	16000004 	strne	r0, [r0], -r4
    3424:	00000121 	andeq	r0, r0, r1, lsr #2
    3428:	0005f016 	andeq	pc, r5, r6, lsl r0	; <UNPREDICTABLE>
    342c:	00251600 	eoreq	r1, r5, r0, lsl #12
    3430:	05000000 	streq	r0, [r0, #-0]
    3434:	00013004 	andeq	r3, r1, r4
    3438:	d2040500 	andle	r0, r4, #0, 10
    343c:	15000005 	strne	r0, [r0, #-5]
    3440:	0000009a 	muleq	r0, sl, r0
    3444:	0000061a 	andeq	r0, r0, sl, lsl r6
    3448:	00047816 	andeq	r7, r4, r6, lsl r8
    344c:	01211600 			; <UNDEFINED> instruction: 0x01211600
    3450:	9a160000 	bls	583458 <__bss_end__+0x5794f8>
    3454:	16000000 	strne	r0, [r0], -r0
    3458:	00000025 	andeq	r0, r0, r5, lsr #32
    345c:	fc040500 	stc2	5, cr0, [r4], {-0}
    3460:	15000005 	strne	r0, [r0, #-5]
    3464:	00000025 	andeq	r0, r0, r5, lsr #32
    3468:	00000634 	andeq	r0, r0, r4, lsr r6
    346c:	00047816 	andeq	r7, r4, r6, lsl r8
    3470:	01211600 			; <UNDEFINED> instruction: 0x01211600
    3474:	05000000 	streq	r0, [r0, #-0]
    3478:	00062004 	andeq	r2, r6, r4
    347c:	00460a00 	subeq	r0, r6, r0, lsl #20
    3480:	064a0000 	strbeq	r0, [sl], -r0
    3484:	380b0000 	stmdacc	fp, {}	; <UNPREDICTABLE>
    3488:	02000000 	andeq	r0, r0, #0
    348c:	00460a00 	subeq	r0, r6, r0, lsl #20
    3490:	065a0000 	ldrbeq	r0, [sl], -r0
    3494:	380b0000 	stmdacc	fp, {}	; <UNPREDICTABLE>
    3498:	00000000 	andeq	r0, r0, r0
    349c:	03740700 	cmneq	r4, #0, 14
    34a0:	1f050000 	svcne	0x00050000
    34a4:	03171a01 	tsteq	r7, #4096	; 0x1000
    34a8:	8b1a0000 	blhi	6834b0 <__bss_end__+0x679550>
    34ac:	0c000004 	stceq	0, cr0, [r0], {4}
    34b0:	08012305 	stmdaeq	r1, {r0, r2, r8, r9, sp}
    34b4:	000006a0 	andeq	r0, r0, r0, lsr #13
    34b8:	00039c18 	andeq	r9, r3, r8, lsl ip
    34bc:	01250500 			; <UNDEFINED> instruction: 0x01250500
    34c0:	0006a011 	andeq	sl, r6, r1, lsl r0
    34c4:	04180000 	ldreq	r0, [r8], #-0
    34c8:	05000002 	streq	r0, [r0, #-2]
    34cc:	25070126 	strcs	r0, [r7, #-294]	; 0xfffffeda
    34d0:	04000000 	streq	r0, [r0], #-0
    34d4:	00036e18 	andeq	r6, r3, r8, lsl lr
    34d8:	01270500 			; <UNDEFINED> instruction: 0x01270500
    34dc:	0006a60b 	andeq	sl, r6, fp, lsl #12
    34e0:	05000800 	streq	r0, [r0, #-2048]	; 0xfffff800
    34e4:	00066704 	andeq	r6, r6, r4, lsl #14
    34e8:	5a040500 	bpl	1048f0 <__bss_end__+0xfa990>
    34ec:	1a000006 	bne	350c <_start-0x4af4>
    34f0:	00000012 	andeq	r0, r0, r2, lsl r0
    34f4:	013f050e 	teqeq	pc, lr, lsl #10
    34f8:	0006e508 	andeq	lr, r6, r8, lsl #10
    34fc:	03eb1800 	mvneq	r1, #0, 16
    3500:	40050000 	andmi	r0, r5, r0
    3504:	06e51201 	strbteq	r1, [r5], r1, lsl #4
    3508:	18000000 	stmdane	r0, {}	; <UNPREDICTABLE>
    350c:	0000041f 	andeq	r0, r0, pc, lsl r4
    3510:	12014105 	andne	r4, r1, #1073741825	; 0x40000001
    3514:	000006e5 	andeq	r0, r0, r5, ror #13
    3518:	043b1806 	ldrteq	r1, [fp], #-2054	; 0xfffff7fa
    351c:	42050000 	andmi	r0, r5, #0
    3520:	00541201 	subseq	r1, r4, r1, lsl #4
    3524:	000c0000 	andeq	r0, ip, r0
    3528:	0000540a 	andeq	r5, r0, sl, lsl #8
    352c:	0006f500 	andeq	pc, r6, r0, lsl #10
    3530:	00380b00 	eorseq	r0, r8, r0, lsl #22
    3534:	00020000 	andeq	r0, r2, r0
    3538:	8005d01b 	andhi	sp, r5, fp, lsl r0
    353c:	080a0702 	stmdaeq	sl, {r1, r8, r9, sl}
    3540:	6f180000 	svcvs	0x00180000
    3544:	05000004 	streq	r0, [r0, #-4]
    3548:	38180282 	ldmdacc	r8, {r1, r7, r9}
    354c:	00000000 	andeq	r0, r0, r0
    3550:	00042518 	andeq	r2, r4, r8, lsl r5
    3554:	02830500 	addeq	r0, r3, #0, 10
    3558:	00012312 	andeq	r2, r1, r2, lsl r3
    355c:	33180400 	tstcc	r8, #0, 8
    3560:	05000002 	streq	r0, [r0, #-2]
    3564:	0a100284 	beq	403f7c <__bss_end__+0x3fa01c>
    3568:	08000008 	stmdaeq	r0, {r3}
    356c:	0004d618 	andeq	sp, r4, r8, lsl r6
    3570:	02850500 	addeq	r0, r5, #0, 10
    3574:	0001b117 	andeq	fp, r1, r7, lsl r1
    3578:	b0182400 	andslt	r2, r8, r0, lsl #8
    357c:	05000001 	streq	r0, [r0, #-1]
    3580:	250f0286 	strcs	r0, [pc, #-646]	; 3302 <_start-0x4cfe>
    3584:	48000000 	stmdami	r0, {}	; <UNPREDICTABLE>
    3588:	00039718 	andeq	r9, r3, r8, lsl r7
    358c:	02870500 	addeq	r0, r7, #0, 10
    3590:	0000702c 	andeq	r7, r0, ip, lsr #32
    3594:	ec185000 	ldc	0, cr5, [r8], {-0}
    3598:	05000004 	streq	r0, [r0, #-4]
    359c:	ac1a0288 	lfmge	f0, 4, [sl], {136}	; 0x88
    35a0:	58000006 	stmdapl	r0, {r1, r2}
    35a4:	0003a218 	andeq	sl, r3, r8, lsl r2
    35a8:	02890500 	addeq	r0, r9, #0, 10
    35ac:	00010916 	andeq	r0, r1, r6, lsl r9
    35b0:	f1186800 			; <UNDEFINED> instruction: 0xf1186800
    35b4:	05000004 	streq	r0, [r0, #-4]
    35b8:	0916028a 	ldmdbeq	r6, {r1, r3, r7, r9}
    35bc:	70000001 	andvc	r0, r0, r1
    35c0:	0002aa18 	andeq	sl, r2, r8, lsl sl
    35c4:	028b0500 	addeq	r0, fp, #0, 10
    35c8:	00010916 	andeq	r0, r1, r6, lsl r9
    35cc:	a1187800 	tstge	r8, r0, lsl #16
    35d0:	05000004 	streq	r0, [r0, #-4]
    35d4:	1a10028c 	bne	40400c <__bss_end__+0x3fa0ac>
    35d8:	80000008 	andhi	r0, r0, r8
    35dc:	00022718 	andeq	r2, r2, r8, lsl r7
    35e0:	028d0500 	addeq	r0, sp, #0, 10
    35e4:	00082a10 	andeq	r2, r8, r0, lsl sl
    35e8:	48188800 	ldmdami	r8, {fp, pc}
    35ec:	05000004 	streq	r0, [r0, #-4]
    35f0:	250f028e 	strcs	r0, [pc, #-654]	; 336a <_start-0x4c96>
    35f4:	a0000000 	andge	r0, r0, r0
    35f8:	00017618 	andeq	r7, r1, r8, lsl r6
    35fc:	028f0500 	addeq	r0, pc, #0, 10
    3600:	00010916 	andeq	r0, r1, r6, lsl r9
    3604:	8018a400 	andshi	sl, r8, r0, lsl #8
    3608:	05000000 	streq	r0, [r0, #-0]
    360c:	09160290 	ldmdbeq	r6, {r4, r7, r9}
    3610:	ac000001 	stcge	0, cr0, [r0], {1}
    3614:	00016518 	andeq	r6, r1, r8, lsl r5
    3618:	02910500 	addseq	r0, r1, #0, 10
    361c:	00010916 	andeq	r0, r1, r6, lsl r9
    3620:	2d18b400 	cfldrscs	mvf11, [r8, #-0]
    3624:	05000000 	streq	r0, [r0, #-0]
    3628:	09160292 	ldmdbeq	r6, {r1, r4, r7, r9}
    362c:	bc000001 	stclt	0, cr0, [r0], {1}
    3630:	00003c18 	andeq	r3, r0, r8, lsl ip
    3634:	02930500 	addseq	r0, r3, #0, 10
    3638:	00010916 	andeq	r0, r1, r6, lsl r9
    363c:	4a18c400 	bmi	634644 <__bss_end__+0x62a6e4>
    3640:	05000003 	streq	r0, [r0, #-3]
    3644:	25080294 	strcs	r0, [r8, #-660]	; 0xfffffd6c
    3648:	cc000000 	stcgt	0, cr0, [r0], {-0}
    364c:	01290a00 			; <UNDEFINED> instruction: 0x01290a00
    3650:	081a0000 	ldmdaeq	sl, {}	; <UNPREDICTABLE>
    3654:	380b0000 	stmdacc	fp, {}	; <UNPREDICTABLE>
    3658:	19000000 	stmdbne	r0, {}	; <UNPREDICTABLE>
    365c:	01290a00 			; <UNDEFINED> instruction: 0x01290a00
    3660:	082a0000 	stmdaeq	sl!, {}	; <UNPREDICTABLE>
    3664:	380b0000 	stmdacc	fp, {}	; <UNPREDICTABLE>
    3668:	07000000 	streq	r0, [r0, -r0]
    366c:	01290a00 			; <UNDEFINED> instruction: 0x01290a00
    3670:	083a0000 	ldmdaeq	sl!, {}	; <UNPREDICTABLE>
    3674:	380b0000 	stmdacc	fp, {}	; <UNPREDICTABLE>
    3678:	17000000 	strne	r0, [r0, -r0]
    367c:	05f01b00 	ldrbeq	r1, [r0, #2816]!	; 0xb00
    3680:	61070299 			; <UNDEFINED> instruction: 0x61070299
    3684:	18000008 	stmdane	r0, {r3}
    3688:	00000276 	andeq	r0, r0, r6, ror r2
    368c:	1b029c05 	blne	aa6a8 <__bss_end__+0xa0748>
    3690:	00000861 	andeq	r0, r0, r1, ror #16
    3694:	04981800 	ldreq	r1, [r8], #2048	; 0x800
    3698:	9d050000 	stcls	0, cr0, [r5, #-0]
    369c:	08711802 	ldmdaeq	r1!, {r1, fp, ip}^
    36a0:	00780000 	rsbseq	r0, r8, r0
    36a4:	0003110a 	andeq	r1, r3, sl, lsl #2
    36a8:	00087100 	andeq	r7, r8, r0, lsl #2
    36ac:	00380b00 	eorseq	r0, r8, r0, lsl #22
    36b0:	001d0000 	andseq	r0, sp, r0
    36b4:	0000380a 	andeq	r3, r0, sl, lsl #16
    36b8:	00088100 	andeq	r8, r8, r0, lsl #2
    36bc:	00380b00 	eorseq	r0, r8, r0, lsl #22
    36c0:	001d0000 	andseq	r0, sp, r0
    36c4:	7e05f01c 	mcrvc	0, 0, pc, cr5, cr12, {0}	; <UNPREDICTABLE>
    36c8:	08a60302 	stmiaeq	r6!, {r1, r8, r9}
    36cc:	e41d0000 	ldr	r0, [sp], #-0
    36d0:	05000003 	streq	r0, [r0, #-3]
    36d4:	f50b0295 			; <UNDEFINED> instruction: 0xf50b0295
    36d8:	1d000006 	stcne	0, cr0, [r0, #-24]	; 0xffffffe8
    36dc:	000004c3 	andeq	r0, r0, r3, asr #9
    36e0:	0b029e05 	bleq	aaefc <__bss_end__+0xa0f9c>
    36e4:	0000083a 	andeq	r0, r0, sl, lsr r8
    36e8:	01290a00 			; <UNDEFINED> instruction: 0x01290a00
    36ec:	08b60000 	ldmeq	r6!, {}	; <UNPREDICTABLE>
    36f0:	380b0000 	stmdacc	fp, {}	; <UNPREDICTABLE>
    36f4:	18000000 	stmdane	r0, {}	; <UNPREDICTABLE>
    36f8:	00750600 	rsbseq	r0, r5, r0, lsl #12
    36fc:	04050000 	streq	r0, [r5], #-0
    3700:	000008b6 			; <UNDEFINED> instruction: 0x000008b6
    3704:	0008cc1e 	andeq	ip, r8, lr, lsl ip
    3708:	04781600 	ldrbteq	r1, [r8], #-1536	; 0xfffffa00
    370c:	05000000 	streq	r0, [r0, #-0]
    3710:	0008c104 	andeq	ip, r8, r4, lsl #2
    3714:	9b040500 	blls	104b1c <__bss_end__+0xfabbc>
    3718:	1e000001 	cdpne	0, 0, cr0, cr0, cr1, {0}
    371c:	000008e3 	andeq	r0, r0, r3, ror #17
    3720:	00002516 	andeq	r2, r0, r6, lsl r5
    3724:	04050000 	streq	r0, [r5], #-0
    3728:	000008e9 	andeq	r0, r0, r9, ror #17
    372c:	08d80405 	ldmeq	r8, {r0, r2, sl}^
    3730:	5a0a0000 	bpl	283738 <__bss_end__+0x2797d8>
    3734:	ff000006 			; <UNDEFINED> instruction: 0xff000006
    3738:	0b000008 	bleq	3760 <_start-0x48a0>
    373c:	00000038 	andeq	r0, r0, r8, lsr r0
    3740:	5c1f0002 	ldcpl	0, cr0, [pc], {2}
    3744:	05000004 	streq	r0, [r0, #-4]
    3748:	7817032e 	ldmdavc	r7, {r1, r2, r3, r5, r8, r9}
    374c:	1f000004 	svcne	0x00000004
    3750:	00000455 	andeq	r0, r0, r5, asr r4
    3754:	1d032f05 	stcne	15, cr2, [r3, #-20]	; 0xffffffec
    3758:	0000047e 	andeq	r0, r0, lr, ror r4
    375c:	00046820 	andeq	r6, r4, r0, lsr #16
    3760:	09210600 	stmdbeq	r1!, {r9, sl}
    3764:	00000121 	andeq	r0, r0, r1, lsr #2
    3768:	000089e0 	andeq	r8, r0, r0, ror #19
    376c:	00000018 	andeq	r0, r0, r8, lsl r0
    3770:	5f219c01 	svcpl	0x00219c01
    3774:	03010070 	movweq	r0, #4208	; 0x1070
    3778:	00012114 	andeq	r2, r1, r4, lsl r1
    377c:	21500100 	cmpcs	r0, r0, lsl #2
    3780:	03010063 	movweq	r0, #4195	; 0x1063
    3784:	0000251c 	andeq	r2, r0, ip, lsl r5
    3788:	22510100 	subscs	r0, r1, #0, 2
    378c:	0301006e 	movweq	r0, #4206	; 0x106e
    3790:	00002c26 	andeq	r2, r0, r6, lsr #24
    3794:	0009d200 	andeq	sp, r9, r0, lsl #4
    3798:	0009ce00 	andeq	ip, r9, r0, lsl #28
    379c:	00702300 	rsbseq	r2, r0, r0, lsl #6
    37a0:	230b0401 	movwcs	r0, #46081	; 0xb401
    37a4:	fb000001 	blx	37b2 <_start-0x484e>
    37a8:	f3000009 	vhadd.u8	d0, d0, d9
    37ac:	23000009 	movwcs	r0, #9
    37b0:	04010065 	streq	r0, [r1], #-101	; 0xffffff9b
    37b4:	00012314 	andeq	r2, r1, r4, lsl r3
    37b8:	000a3300 	andeq	r3, sl, r0, lsl #6
    37bc:	000a3100 	andeq	r3, sl, r0, lsl #2
    37c0:	2b000000 	blcs	37c8 <_start-0x4838>
    37c4:	0400000a 	streq	r0, [r0], #-10
    37c8:	0009cb00 	andeq	ip, r9, r0, lsl #22
    37cc:	cb010400 	blgt	447d4 <__bss_end__+0x3a874>
    37d0:	0c000002 	stceq	0, cr0, [r0], {2}
    37d4:	0000071a 	andeq	r0, r0, sl, lsl r7
    37d8:	000006c1 	andeq	r0, r0, r1, asr #13
    37dc:	000089f8 	strdeq	r8, [r0], -r8	; <UNPREDICTABLE>
    37e0:	00000058 	andeq	r0, r0, r8, asr r0
    37e4:	00000b96 	muleq	r0, r6, fp
    37e8:	00070602 	andeq	r0, r7, r2, lsl #12
    37ec:	1b280200 	blne	a03ff4 <__bss_end__+0x9fa094>
    37f0:	00000031 	andeq	r0, r0, r1, lsr r0
    37f4:	0006f203 	andeq	pc, r6, r3, lsl #4
    37f8:	00080400 	andeq	r0, r8, r0, lsl #8
    37fc:	00000048 	andeq	r0, r0, r8, asr #32
    3800:	00071504 	andeq	r1, r7, r4, lsl #10
    3804:	00004800 	andeq	r4, r0, r0, lsl #16
    3808:	05000000 	streq	r0, [r0, #-0]
    380c:	06f40204 	ldrbteq	r0, [r4], r4, lsl #4
    3810:	63020000 	movwvs	r0, #8192	; 0x2000
    3814:	00002518 	andeq	r2, r0, r8, lsl r5
    3818:	05040600 	streq	r0, [r4, #-1536]	; 0xfffffa00
    381c:	00746e69 	rsbseq	r6, r4, r9, ror #28
    3820:	57070407 	strpl	r0, [r7, -r7, lsl #8]
    3824:	07000000 	streq	r0, [r0, -r0]
    3828:	02ba0601 	adcseq	r0, sl, #1048576	; 0x100000
    382c:	02070000 	andeq	r0, r7, #0
    3830:	00035305 	andeq	r5, r3, r5, lsl #6
    3834:	05040700 	streq	r0, [r4, #-1792]	; 0xfffff900
    3838:	0000009d 	muleq	r0, sp, r0
    383c:	98050807 	stmdals	r5, {r0, r1, r2, fp}
    3840:	07000000 	streq	r0, [r0, -r0]
    3844:	02b80801 	adcseq	r0, r8, #65536	; 0x10000
    3848:	02070000 	andeq	r0, r7, #0
    384c:	00020b07 	andeq	r0, r2, r7, lsl #22
    3850:	07040700 	streq	r0, [r4, -r0, lsl #14]
    3854:	00000052 	andeq	r0, r0, r2, asr r0
    3858:	4d070807 	stcmi	8, cr0, [r7, #-28]	; 0xffffffe4
    385c:	02000000 	andeq	r0, r0, #0
    3860:	0000024e 	andeq	r0, r0, lr, asr #4
    3864:	a8192203 	ldmdage	r9, {r0, r1, r9, sp}
    3868:	08000000 	stmdaeq	r0, {}	; <UNPREDICTABLE>
    386c:	0000ae04 	andeq	sl, r0, r4, lsl #28
    3870:	03f90900 	mvnseq	r0, #0, 18
    3874:	99020000 	stmdbls	r2, {}	; <UNPREDICTABLE>
    3878:	04000002 	streq	r0, [r0], #-2
    387c:	00720e2c 	rsbseq	r0, r2, ip, lsr #28
    3880:	0e020000 	cdpeq	0, 0, cr0, cr2, cr0, {0}
    3884:	04000004 	streq	r0, [r0], #-4
    3888:	00720e72 	rsbseq	r0, r2, r2, ror lr
    388c:	560a0000 	strpl	r0, [sl], -r0
    3890:	05000002 	streq	r0, [r0, #-2]
    3894:	5d17015e 	ldfpls	f0, [r7, #-376]	; 0xfffffe88
    3898:	0b000000 	bleq	38a0 <_start-0x4760>
    389c:	03a60404 			; <UNDEFINED> instruction: 0x03a60404
    38a0:	000000fa 	strdeq	r0, [r0], -sl
    38a4:	0002480c 	andeq	r4, r2, ip, lsl #16
    38a8:	0ca80400 	cfstrseq	mvf0, [r8]
    38ac:	000000cb 	andeq	r0, r0, fp, asr #1
    38b0:	0001da0c 	andeq	sp, r1, ip, lsl #20
    38b4:	13a90400 			; <UNDEFINED> instruction: 0x13a90400
    38b8:	000000fa 	strdeq	r0, [r0], -sl
    38bc:	00800d00 	addeq	r0, r0, r0, lsl #26
    38c0:	010a0000 	mrseq	r0, (UNDEF: 10)
    38c4:	5d0e0000 	stcpl	0, cr0, [lr, #-0]
    38c8:	03000000 	movweq	r0, #0
    38cc:	04080f00 	streq	r0, [r8], #-3840	; 0xfffff100
    38d0:	012e09a3 	smulwbeq	lr, r3, r9
    38d4:	f1100000 	setpan	#0
    38d8:	04000003 	streq	r0, [r0], #-3
    38dc:	005607a5 	subseq	r0, r6, r5, lsr #15
    38e0:	10000000 	andne	r0, r0, r0
    38e4:	00000400 	andeq	r0, r0, r0, lsl #8
    38e8:	d805aa04 	stmdale	r5, {r2, r9, fp, sp, pc}
    38ec:	04000000 	streq	r0, [r0], #-0
    38f0:	037b0200 	cmneq	fp, #0, 4
    38f4:	ab040000 	blge	1038fc <__bss_end__+0xf999c>
    38f8:	00010a03 	andeq	r0, r1, r3, lsl #20
    38fc:	01970200 	orrseq	r0, r7, r0, lsl #4
    3900:	af040000 	svcge	0x00040000
    3904:	00009c1b 	andeq	r9, r0, fp, lsl ip
    3908:	4c040800 	stcmi	8, cr0, [r4], {-0}
    390c:	07000001 	streq	r0, [r0, -r1]
    3910:	02c10801 	sbceq	r0, r1, #65536	; 0x10000
    3914:	4c110000 	ldcmi	0, cr0, [r1], {-0}
    3918:	02000001 	andeq	r0, r0, #1
    391c:	00000440 	andeq	r0, r0, r0, asr #8
    3920:	8e191606 	cfmsub32hi	mvax0, mvfx1, mvfx9, mvfx6
    3924:	12000000 	andne	r0, r0, #0
    3928:	000001a8 	andeq	r0, r0, r8, lsr #3
    392c:	082f0618 	stmdaeq	pc!, {r3, r4, r9, sl}	; <UNPREDICTABLE>
    3930:	000001be 			; <UNDEFINED> instruction: 0x000001be
    3934:	00039c10 	andeq	r9, r3, r0, lsl ip
    3938:	13310600 	teqne	r1, #0, 12
    393c:	000001be 			; <UNDEFINED> instruction: 0x000001be
    3940:	6b5f1300 	blvs	17c8548 <__bss_end__+0x17be5e8>
    3944:	07320600 	ldreq	r0, [r2, -r0, lsl #12]!
    3948:	00000056 	andeq	r0, r0, r6, asr r0
    394c:	03dc1004 	bicseq	r1, ip, #4
    3950:	32060000 	andcc	r0, r6, #0
    3954:	0000560b 	andeq	r5, r0, fp, lsl #12
    3958:	91100800 	tstls	r0, r0, lsl #16
    395c:	06000001 	streq	r0, [r0], -r1
    3960:	00561432 	subseq	r1, r6, r2, lsr r4
    3964:	100c0000 	andne	r0, ip, r0
    3968:	0000047c 	andeq	r0, r0, ip, ror r4
    396c:	561b3206 	ldrpl	r3, [fp], -r6, lsl #4
    3970:	10000000 	andne	r0, r0, r0
    3974:	00785f13 	rsbseq	r5, r8, r3, lsl pc
    3978:	c40b3306 	strgt	r3, [fp], #-774	; 0xfffffcfa
    397c:	14000001 	strne	r0, [r0], #-1
    3980:	64040800 	strvs	r0, [r4], #-2048	; 0xfffff800
    3984:	0d000001 	stceq	0, cr0, [r0, #-4]
    3988:	00000158 	andeq	r0, r0, r8, asr r1
    398c:	000001d4 	ldrdeq	r0, [r0], -r4
    3990:	00005d0e 	andeq	r5, r0, lr, lsl #26
    3994:	12000000 	andne	r0, r0, #0
    3998:	000001d5 	ldrdeq	r0, [r0], -r5
    399c:	08370624 	ldmdaeq	r7!, {r2, r5, r9, sl}
    39a0:	00000257 	andeq	r0, r0, r7, asr r2
    39a4:	00008f10 	andeq	r8, r0, r0, lsl pc
    39a8:	09390600 	ldmdbeq	r9!, {r9, sl}
    39ac:	00000056 	andeq	r0, r0, r6, asr r0
    39b0:	04161000 	ldreq	r1, [r6], #-0
    39b4:	3a060000 	bcc	1839bc <__bss_end__+0x179a5c>
    39b8:	00005609 	andeq	r5, r0, r9, lsl #12
    39bc:	b2100400 	andslt	r0, r0, #0, 8
    39c0:	06000000 	streq	r0, [r0], -r0
    39c4:	0056093b 	subseq	r0, r6, fp, lsr r9
    39c8:	10080000 	andne	r0, r8, r0
    39cc:	00000504 	andeq	r0, r0, r4, lsl #10
    39d0:	56093c06 	strpl	r3, [r9], -r6, lsl #24
    39d4:	0c000000 	stceq	0, cr0, [r0], {-0}
    39d8:	00027d10 	andeq	r7, r2, r0, lsl sp
    39dc:	093d0600 	ldmdbeq	sp!, {r9, sl}
    39e0:	00000056 	andeq	r0, r0, r6, asr r0
    39e4:	026c1010 	rsbeq	r1, ip, #16
    39e8:	3e060000 	cdpcc	0, 0, cr0, cr6, cr0, {0}
    39ec:	00005609 	andeq	r5, r0, r9, lsl #12
    39f0:	81101400 	tsthi	r0, r0, lsl #8
    39f4:	06000004 	streq	r0, [r0], -r4
    39f8:	0056093f 	subseq	r0, r6, pc, lsr r9
    39fc:	10180000 	andsne	r0, r8, r0
    3a00:	0000035d 	andeq	r0, r0, sp, asr r3
    3a04:	56094006 	strpl	r4, [r9], -r6
    3a08:	1c000000 	stcne	0, cr0, [r0], {-0}
    3a0c:	0004cb10 	andeq	ip, r4, r0, lsl fp
    3a10:	09410600 	stmdbeq	r1, {r9, sl}^
    3a14:	00000056 	andeq	r0, r0, r6, asr r0
    3a18:	f2140020 	vhadd.s16	d0, d4, d16
    3a1c:	08000000 	stmdaeq	r0, {}	; <UNPREDICTABLE>
    3a20:	084a0601 	stmdaeq	sl, {r0, r9, sl}^
    3a24:	0000029c 	muleq	r0, ip, r2
    3a28:	00018410 	andeq	r8, r1, r0, lsl r4
    3a2c:	0a4b0600 	beq	12c5234 <__bss_end__+0x12bb2d4>
    3a30:	0000029c 	muleq	r0, ip, r2
    3a34:	00001000 	andeq	r1, r0, r0
    3a38:	4c060000 	stcmi	0, cr0, [r6], {-0}
    3a3c:	00029c09 	andeq	r9, r2, r9, lsl #24
    3a40:	32158000 	andscc	r8, r5, #0
    3a44:	06000004 	streq	r0, [r0], -r4
    3a48:	01580a4e 	cmpeq	r8, lr, asr #20
    3a4c:	01000000 	mrseq	r0, (UNDEF: 0)
    3a50:	00011715 	andeq	r1, r1, r5, lsl r7
    3a54:	0a510600 	beq	144525c <__bss_end__+0x143b2fc>
    3a58:	00000158 	andeq	r0, r0, r8, asr r1
    3a5c:	0d000104 	stfeqs	f0, [r0, #-16]
    3a60:	00000048 	andeq	r0, r0, r8, asr #32
    3a64:	000002ac 	andeq	r0, r0, ip, lsr #5
    3a68:	00005d0e 	andeq	r5, r0, lr, lsl #26
    3a6c:	14001f00 	strne	r1, [r0], #-3840	; 0xfffff100
    3a70:	00000286 	andeq	r0, r0, r6, lsl #5
    3a74:	5d060190 	stfpls	f0, [r6, #-576]	; 0xfffffdc0
    3a78:	0002ef08 	andeq	lr, r2, r8, lsl #30
    3a7c:	039c1000 	orrseq	r1, ip, #0
    3a80:	5e060000 	cdppl	0, 0, cr0, cr6, cr0, {0}
    3a84:	0002ef12 	andeq	lr, r2, r2, lsl pc
    3a88:	b4100000 	ldrlt	r0, [r0], #-0
    3a8c:	06000003 	streq	r0, [r0], -r3
    3a90:	0056065f 	subseq	r0, r6, pc, asr r6
    3a94:	10040000 	andne	r0, r4, r0
    3a98:	0000018c 	andeq	r0, r0, ip, lsl #3
    3a9c:	f5096106 			; <UNDEFINED> instruction: 0xf5096106
    3aa0:	08000002 	stmdaeq	r0, {r1}
    3aa4:	0000f210 	andeq	pc, r0, r0, lsl r2	; <UNPREDICTABLE>
    3aa8:	1e620600 	cdpne	6, 6, cr0, cr2, cr0, {0}
    3aac:	00000257 	andeq	r0, r0, r7, asr r2
    3ab0:	04080088 	streq	r0, [r8], #-136	; 0xffffff78
    3ab4:	000002ac 	andeq	r0, r0, ip, lsr #5
    3ab8:	0003050d 	andeq	r0, r3, sp, lsl #10
    3abc:	00030500 	andeq	r0, r3, r0, lsl #10
    3ac0:	005d0e00 	subseq	r0, sp, r0, lsl #28
    3ac4:	001f0000 	andseq	r0, pc, r0
    3ac8:	030b0408 	movweq	r0, #46088	; 0xb408
    3acc:	12160000 	andsne	r0, r6, #0
    3ad0:	00000367 	andeq	r0, r0, r7, ror #6
    3ad4:	08750608 	ldmdaeq	r5!, {r3, r9, sl}^
    3ad8:	00000334 	andeq	r0, r0, r4, lsr r3
    3adc:	0000ac10 	andeq	sl, r0, r0, lsl ip
    3ae0:	11760600 	cmnne	r6, r0, lsl #12
    3ae4:	00000334 	andeq	r0, r0, r4, lsr r3
    3ae8:	000c1000 	andeq	r1, ip, r0
    3aec:	77060000 	strvc	r0, [r6, -r0]
    3af0:	00005606 	andeq	r5, r0, r6, lsl #12
    3af4:	08000400 	stmdaeq	r0, {sl}
    3af8:	00008004 	andeq	r8, r0, r4
    3afc:	03861200 	orreq	r1, r6, #0, 4
    3b00:	06680000 	strbteq	r0, [r8], -r0
    3b04:	047d08b5 	ldrbteq	r0, [sp], #-2229	; 0xfffff74b
    3b08:	5f130000 	svcpl	0x00130000
    3b0c:	b6060070 			; <UNDEFINED> instruction: 0xb6060070
    3b10:	00033412 	andeq	r3, r3, r2, lsl r4
    3b14:	5f130000 	svcpl	0x00130000
    3b18:	b7060072 	smlsdxlt	r6, r2, r0, r0
    3b1c:	00005607 	andeq	r5, r0, r7, lsl #12
    3b20:	5f130400 	svcpl	0x00130400
    3b24:	b8060077 	stmdalt	r6, {r0, r1, r2, r4, r5, r6}
    3b28:	00005607 	andeq	r5, r0, r7, lsl #12
    3b2c:	10100800 	andsne	r0, r0, r0, lsl #16
    3b30:	06000001 	streq	r0, [r0], -r1
    3b34:	006b09b9 	strhteq	r0, [fp], #-153	; 0xffffff67
    3b38:	100c0000 	andne	r0, ip, r0
    3b3c:	000001f1 	strdeq	r0, [r0], -r1
    3b40:	6b09ba06 	blvs	272360 <__bss_end__+0x268400>
    3b44:	0e000000 	cdpeq	0, 0, cr0, cr0, cr0, {0}
    3b48:	66625f13 	uqadd16vs	r5, r2, r3
    3b4c:	11bb0600 			; <UNDEFINED> instruction: 0x11bb0600
    3b50:	0000030c 	andeq	r0, r0, ip, lsl #6
    3b54:	006c1010 	rsbeq	r1, ip, r0, lsl r0
    3b58:	bc060000 	stclt	0, cr0, [r6], {-0}
    3b5c:	00005607 	andeq	r5, r0, r7, lsl #12
    3b60:	00101800 	andseq	r1, r0, r0, lsl #16
    3b64:	06000001 	streq	r0, [r0], -r1
    3b68:	00480ac3 	subeq	r0, r8, r3, asr #21
    3b6c:	101c0000 	andsne	r0, ip, r0
    3b70:	00000b24 	andeq	r0, r0, r4, lsr #22
    3b74:	ef1dc506 	svc	0x001dc506
    3b78:	20000005 	andcs	r0, r0, r5
    3b7c:	00061910 	andeq	r1, r6, r0, lsl r9
    3b80:	1dc70600 	stclne	6, cr0, [r7]
    3b84:	00000619 	andeq	r0, r0, r9, lsl r6
    3b88:	04081024 	streq	r1, [r8], #-36	; 0xffffffdc
    3b8c:	ca060000 	bgt	183b94 <__bss_end__+0x179c34>
    3b90:	00063d0d 	andeq	r3, r6, sp, lsl #26
    3b94:	e5102800 	ldr	r2, [r0, #-2048]	; 0xfffff800
    3b98:	06000004 	streq	r0, [r0], -r4
    3b9c:	065709cb 	ldrbeq	r0, [r7], -fp, asr #19
    3ba0:	132c0000 			; <UNDEFINED> instruction: 0x132c0000
    3ba4:	0062755f 	rsbeq	r7, r2, pc, asr r5
    3ba8:	0c11ce06 	ldceq	14, cr12, [r1], {6}
    3bac:	30000003 	andcc	r0, r0, r3
    3bb0:	70755f13 	rsbsvc	r5, r5, r3, lsl pc
    3bb4:	12cf0600 	sbcne	r0, pc, #0, 12
    3bb8:	00000334 	andeq	r0, r0, r4, lsr r3
    3bbc:	755f1338 	ldrbvc	r1, [pc, #-824]	; 388c <_start-0x4774>
    3bc0:	d0060072 	andle	r0, r6, r2, ror r0
    3bc4:	00005607 	andeq	r5, r0, r7, lsl #12
    3bc8:	a6103c00 	ldrge	r3, [r0], -r0, lsl #24
    3bcc:	06000000 	streq	r0, [r0], -r0
    3bd0:	065d11d3 			; <UNDEFINED> instruction: 0x065d11d3
    3bd4:	10400000 	subne	r0, r0, r0
    3bd8:	000004bd 			; <UNDEFINED> instruction: 0x000004bd
    3bdc:	6d11d406 	cfldrsvs	mvf13, [r1, #-24]	; 0xffffffe8
    3be0:	43000006 	movwmi	r0, #6
    3be4:	626c5f13 	rsbvs	r5, ip, #19, 30	; 0x4c
    3be8:	11d70600 	bicsne	r0, r7, r0, lsl #12
    3bec:	0000030c 	andeq	r0, r0, ip, lsl #6
    3bf0:	01351044 	teqeq	r5, r4, asr #32
    3bf4:	da060000 	ble	183bfc <__bss_end__+0x179c9c>
    3bf8:	00005607 	andeq	r5, r0, r7, lsl #12
    3bfc:	46104c00 	ldrmi	r4, [r0], -r0, lsl #24
    3c00:	06000001 	streq	r0, [r0], -r1
    3c04:	00b30adb 	ldrsbteq	r0, [r3], fp
    3c08:	10500000 	subsne	r0, r0, r0
    3c0c:	00000ac5 	andeq	r0, r0, r5, asr #21
    3c10:	9b12de06 	blls	4bb430 <__bss_end__+0x4b14d0>
    3c14:	54000004 	strpl	r0, [r0], #-4
    3c18:	0003fa10 	andeq	pc, r3, r0, lsl sl	; <UNPREDICTABLE>
    3c1c:	0ce20600 	stcleq	6, cr0, [r2]
    3c20:	0000013a 	andeq	r0, r0, sl, lsr r1
    3c24:	038e1058 	orreq	r1, lr, #88	; 0x58
    3c28:	e4060000 	str	r0, [r6], #-0
    3c2c:	00012e0e 	andeq	r2, r1, lr, lsl #28
    3c30:	64105c00 	ldrvs	r5, [r0], #-3072	; 0xfffff400
    3c34:	06000002 	streq	r0, [r0], -r2
    3c38:	005609e5 	subseq	r0, r6, r5, ror #19
    3c3c:	00640000 	rsbeq	r0, r4, r0
    3c40:	00005617 	andeq	r5, r0, r7, lsl r6
    3c44:	00049b00 	andeq	r9, r4, r0, lsl #22
    3c48:	049b1800 	ldreq	r1, [fp], #2048	; 0x800
    3c4c:	48180000 	ldmdami	r8, {}	; <UNPREDICTABLE>
    3c50:	18000000 	stmdane	r0, {}	; <UNPREDICTABLE>
    3c54:	00000146 	andeq	r0, r0, r6, asr #2
    3c58:	00005618 	andeq	r5, r0, r8, lsl r6
    3c5c:	04080000 	streq	r0, [r8], #-0
    3c60:	000004a6 	andeq	r0, r0, r6, lsr #9
    3c64:	00049b11 	andeq	r9, r4, r1, lsl fp
    3c68:	03e41900 	mvneq	r1, #0, 18
    3c6c:	04280000 	strteq	r0, [r8], #-0
    3c70:	08026006 	stmdaeq	r2, {r1, r2, sp, lr}
    3c74:	000005ef 	andeq	r0, r0, pc, ror #11
    3c78:	00034c1a 	andeq	r4, r3, sl, lsl ip
    3c7c:	02620600 	rsbeq	r0, r2, #0, 12
    3c80:	00005607 	andeq	r5, r0, r7, lsl #12
    3c84:	911a0000 	tstls	sl, r0
    3c88:	06000004 	streq	r0, [r0], -r4
    3c8c:	c90b0267 	stmdbgt	fp, {r0, r1, r2, r5, r6, r9}
    3c90:	04000006 	streq	r0, [r0], #-6
    3c94:	0001e11a 	andeq	lr, r1, sl, lsl r1
    3c98:	02670600 	rsbeq	r0, r7, #0, 12
    3c9c:	0006c914 	andeq	ip, r6, r4, lsl r9
    3ca0:	a01a0800 	andsge	r0, sl, r0, lsl #16
    3ca4:	06000001 	streq	r0, [r0], -r1
    3ca8:	c91e0267 	ldmdbgt	lr, {r0, r1, r2, r5, r6, r9}
    3cac:	0c000006 	stceq	0, cr0, [r0], {6}
    3cb0:	0003af1a 	andeq	sl, r3, sl, lsl pc
    3cb4:	02690600 	rsbeq	r0, r9, #0, 12
    3cb8:	00005608 	andeq	r5, r0, r8, lsl #12
    3cbc:	1a1a1000 	bne	687cc4 <__bss_end__+0x67dd64>
    3cc0:	06000000 	streq	r0, [r0], -r0
    3cc4:	c908026a 	stmdbgt	r8, {r1, r3, r5, r6, r9}
    3cc8:	14000008 	strne	r0, [r0], #-8
    3ccc:	0003c31a 	andeq	ip, r3, sl, lsl r3
    3cd0:	026d0600 	rsbeq	r0, sp, #0, 12
    3cd4:	00005607 	andeq	r5, r0, r7, lsl #12
    3cd8:	011a3000 	tsteq	sl, r0
    3cdc:	0600000a 	streq	r0, [r0], -sl
    3ce0:	de16026e 	cdple	2, 1, cr0, cr6, cr14, {3}
    3ce4:	34000008 	strcc	r0, [r0], #-8
    3ce8:	00028e1a 	andeq	r8, r2, sl, lsl lr
    3cec:	02700600 	rsbseq	r0, r0, #0, 12
    3cf0:	00005607 	andeq	r5, r0, r7, lsl #12
    3cf4:	b91a3800 	ldmdblt	sl, {fp, ip, sp}
    3cf8:	06000003 	streq	r0, [r0], -r3
    3cfc:	ef0a0272 	svc	0x000a0272
    3d00:	3c000008 	stccc	0, cr0, [r0], {8}
    3d04:	0002401a 	andeq	r4, r2, sl, lsl r0
    3d08:	02750600 	rsbseq	r0, r5, #0, 12
    3d0c:	0001be13 	andeq	fp, r1, r3, lsl lr
    3d10:	bf1a4000 	svclt	0x001a4000
    3d14:	06000001 	streq	r0, [r0], -r1
    3d18:	56070276 			; <UNDEFINED> instruction: 0x56070276
    3d1c:	44000000 	strmi	r0, [r0], #-0
    3d20:	0004ff1a 	andeq	pc, r4, sl, lsl pc	; <UNPREDICTABLE>
    3d24:	02770600 	rsbseq	r0, r7, #0, 12
    3d28:	0001be13 	andeq	fp, r1, r3, lsl lr
    3d2c:	a01a4800 	andsge	r4, sl, r0, lsl #16
    3d30:	06000002 	streq	r0, [r0], -r2
    3d34:	f5140278 			; <UNDEFINED> instruction: 0xf5140278
    3d38:	4c000008 	stcmi	0, cr0, [r0], {8}
    3d3c:	0001e91a 	andeq	lr, r1, sl, lsl r9
    3d40:	027b0600 	rsbseq	r0, fp, #0, 12
    3d44:	00005607 	andeq	r5, r0, r7, lsl #12
    3d48:	3e1a5000 	cdpcc	0, 1, cr5, cr10, cr0, {0}
    3d4c:	06000001 	streq	r0, [r0], -r1
    3d50:	4609027c 			; <UNDEFINED> instruction: 0x4609027c
    3d54:	54000001 	strpl	r0, [r0], #-1
    3d58:	0002c61a 	andeq	ip, r2, sl, lsl r6
    3d5c:	029f0600 	addseq	r0, pc, #0, 12
    3d60:	0008a407 	andeq	sl, r8, r7, lsl #8
    3d64:	861b5800 	ldrhi	r5, [fp], -r0, lsl #16
    3d68:	06000002 	streq	r0, [r0], -r2
    3d6c:	ef1302a3 	svc	0x001302a3
    3d70:	48000002 	stmdami	r0, {r1}
    3d74:	021e1b01 	andseq	r1, lr, #1024	; 0x400
    3d78:	a4060000 	strge	r0, [r6], #-0
    3d7c:	02ac1202 	adceq	r1, ip, #536870912	; 0x20000000
    3d80:	014c0000 	mrseq	r0, (UNDEF: 76)
    3d84:	0004ab1b 	andeq	sl, r4, fp, lsl fp
    3d88:	02a80600 	adceq	r0, r8, #0, 12
    3d8c:	0009060c 	andeq	r0, r9, ip, lsl #12
    3d90:	1b02dc00 	blne	bad98 <__bss_end__+0xb0e38>
    3d94:	00000108 	andeq	r0, r0, r8, lsl #2
    3d98:	1002ad06 	andne	sl, r2, r6, lsl #26
    3d9c:	0000068a 	andeq	r0, r0, sl, lsl #13
    3da0:	ed1b02e0 	lfm	f0, 4, [fp, #-896]	; 0xfffffc80
    3da4:	06000000 	streq	r0, [r0], -r0
    3da8:	120a02af 	andne	r0, sl, #-268435446	; 0xf000000a
    3dac:	ec000009 	stc	0, cr0, [r0], {9}
    3db0:	04080002 	streq	r0, [r8], #-2
    3db4:	0000047d 	andeq	r0, r0, sp, ror r4
    3db8:	00005617 	andeq	r5, r0, r7, lsl r6
    3dbc:	00061300 	andeq	r1, r6, r0, lsl #6
    3dc0:	049b1800 	ldreq	r1, [fp], #2048	; 0x800
    3dc4:	48180000 	ldmdami	r8, {}	; <UNPREDICTABLE>
    3dc8:	18000000 	stmdane	r0, {}	; <UNPREDICTABLE>
    3dcc:	00000613 	andeq	r0, r0, r3, lsl r6
    3dd0:	00005618 	andeq	r5, r0, r8, lsl r6
    3dd4:	04080000 	streq	r0, [r8], #-0
    3dd8:	00000153 	andeq	r0, r0, r3, asr r1
    3ddc:	05f50408 	ldrbeq	r0, [r5, #1032]!	; 0x408
    3de0:	bf170000 	svclt	0x00170000
    3de4:	3d000000 	stccc	0, cr0, [r0, #-0]
    3de8:	18000006 	stmdane	r0, {r1, r2}
    3dec:	0000049b 	muleq	r0, fp, r4
    3df0:	00004818 	andeq	r4, r0, r8, lsl r8
    3df4:	00bf1800 	adcseq	r1, pc, r0, lsl #16
    3df8:	56180000 	ldrpl	r0, [r8], -r0
    3dfc:	00000000 	andeq	r0, r0, r0
    3e00:	061f0408 	ldreq	r0, [pc], -r8, lsl #8
    3e04:	56170000 	ldrpl	r0, [r7], -r0
    3e08:	57000000 	strpl	r0, [r0, -r0]
    3e0c:	18000006 	stmdane	r0, {r1, r2}
    3e10:	0000049b 	muleq	r0, fp, r4
    3e14:	00004818 	andeq	r4, r0, r8, lsl r8
    3e18:	04080000 	streq	r0, [r8], #-0
    3e1c:	00000643 	andeq	r0, r0, r3, asr #12
    3e20:	0000800d 	andeq	r8, r0, sp
    3e24:	00066d00 	andeq	r6, r6, r0, lsl #26
    3e28:	005d0e00 	subseq	r0, sp, r0, lsl #28
    3e2c:	00020000 	andeq	r0, r2, r0
    3e30:	0000800d 	andeq	r8, r0, sp
    3e34:	00067d00 	andeq	r7, r6, r0, lsl #26
    3e38:	005d0e00 	subseq	r0, sp, r0, lsl #28
    3e3c:	00000000 	andeq	r0, r0, r0
    3e40:	0003740a 	andeq	r7, r3, sl, lsl #8
    3e44:	011f0600 	tsteq	pc, r0, lsl #12
    3e48:	00033a1a 	andeq	r3, r3, sl, lsl sl
    3e4c:	048b1c00 	streq	r1, [fp], #3072	; 0xc00
    3e50:	060c0000 	streq	r0, [ip], -r0
    3e54:	c3080123 	movwgt	r0, #33059	; 0x8123
    3e58:	1a000006 	bne	3e78 <_start-0x4188>
    3e5c:	0000039c 	muleq	r0, ip, r3
    3e60:	11012506 	tstne	r1, r6, lsl #10
    3e64:	000006c3 	andeq	r0, r0, r3, asr #13
    3e68:	02041a00 	andeq	r1, r4, #0, 20
    3e6c:	26060000 	strcs	r0, [r6], -r0
    3e70:	00560701 	subseq	r0, r6, r1, lsl #14
    3e74:	1a040000 	bne	103e7c <__bss_end__+0xf9f1c>
    3e78:	0000036e 	andeq	r0, r0, lr, ror #6
    3e7c:	0b012706 	bleq	4da9c <__bss_end__+0x43b3c>
    3e80:	000006c9 	andeq	r0, r0, r9, asr #13
    3e84:	04080008 	streq	r0, [r8], #-8
    3e88:	0000068a 	andeq	r0, r0, sl, lsl #13
    3e8c:	067d0408 	ldrbteq	r0, [sp], -r8, lsl #8
    3e90:	121c0000 	andsne	r0, ip, #0
    3e94:	0e000000 	cdpeq	0, 0, cr0, cr0, cr0, {0}
    3e98:	08013f06 	stmdaeq	r1, {r1, r2, r8, r9, sl, fp, ip, sp}
    3e9c:	00000708 	andeq	r0, r0, r8, lsl #14
    3ea0:	0003eb1a 	andeq	lr, r3, sl, lsl fp
    3ea4:	01400600 	cmpeq	r0, r0, lsl #12
    3ea8:	00070812 	andeq	r0, r7, r2, lsl r8
    3eac:	1f1a0000 	svcne	0x001a0000
    3eb0:	06000004 	streq	r0, [r0], -r4
    3eb4:	08120141 	ldmdaeq	r2, {r0, r6, r8}
    3eb8:	06000007 	streq	r0, [r0], -r7
    3ebc:	00043b1a 	andeq	r3, r4, sl, lsl fp
    3ec0:	01420600 	cmpeq	r2, r0, lsl #12
    3ec4:	00008712 	andeq	r8, r0, r2, lsl r7
    3ec8:	0d000c00 	stceq	12, cr0, [r0, #-0]
    3ecc:	00000087 	andeq	r0, r0, r7, lsl #1
    3ed0:	00000718 	andeq	r0, r0, r8, lsl r7
    3ed4:	00005d0e 	andeq	r5, r0, lr, lsl #26
    3ed8:	1d000200 	sfmne	f0, 4, [r0, #-0]
    3edc:	028006d0 	addeq	r0, r0, #208, 12	; 0xd000000
    3ee0:	00082d07 	andeq	r2, r8, r7, lsl #26
    3ee4:	046f1a00 	strbteq	r1, [pc], #-2560	; 3eec <_start-0x4114>
    3ee8:	82060000 	andhi	r0, r6, #0
    3eec:	005d1802 	subseq	r1, sp, r2, lsl #16
    3ef0:	1a000000 	bne	3ef8 <_start-0x4108>
    3ef4:	00000425 	andeq	r0, r0, r5, lsr #8
    3ef8:	12028306 	andne	r8, r2, #402653184	; 0x18000000
    3efc:	00000146 	andeq	r0, r0, r6, asr #2
    3f00:	02331a04 	eorseq	r1, r3, #4, 20	; 0x4000
    3f04:	84060000 	strhi	r0, [r6], #-0
    3f08:	082d1002 	stmdaeq	sp!, {r1, ip}
    3f0c:	1a080000 	bne	203f14 <__bss_end__+0x1f9fb4>
    3f10:	000004d6 	ldrdeq	r0, [r0], -r6
    3f14:	17028506 	strne	r8, [r2, -r6, lsl #10]
    3f18:	000001d4 	ldrdeq	r0, [r0], -r4
    3f1c:	01b01a24 	lsrseq	r1, r4, #20
    3f20:	86060000 	strhi	r0, [r6], -r0
    3f24:	00560f02 	subseq	r0, r6, r2, lsl #30
    3f28:	1a480000 	bne	1203f30 <__bss_end__+0x11f9fd0>
    3f2c:	00000397 	muleq	r0, r7, r3
    3f30:	2c028706 	stccs	7, cr8, [r2], {6}
    3f34:	00000095 	muleq	r0, r5, r0
    3f38:	04ec1a50 	strbteq	r1, [ip], #2640	; 0xa50
    3f3c:	88060000 	stmdahi	r6, {}	; <UNPREDICTABLE>
    3f40:	06cf1a02 	strbeq	r1, [pc], r2, lsl #20
    3f44:	1a580000 	bne	1603f4c <__bss_end__+0x15f9fec>
    3f48:	000003a2 	andeq	r0, r0, r2, lsr #7
    3f4c:	16028906 	strne	r8, [r2], -r6, lsl #18
    3f50:	0000012e 	andeq	r0, r0, lr, lsr #2
    3f54:	04f11a68 	ldrbteq	r1, [r1], #2664	; 0xa68
    3f58:	8a060000 	bhi	183f60 <__bss_end__+0x17a000>
    3f5c:	012e1602 			; <UNDEFINED> instruction: 0x012e1602
    3f60:	1a700000 	bne	1c03f68 <__bss_end__+0x1bfa008>
    3f64:	000002aa 	andeq	r0, r0, sl, lsr #5
    3f68:	16028b06 	strne	r8, [r2], -r6, lsl #22
    3f6c:	0000012e 	andeq	r0, r0, lr, lsr #2
    3f70:	04a11a78 	strteq	r1, [r1], #2680	; 0xa78
    3f74:	8c060000 	stchi	0, cr0, [r6], {-0}
    3f78:	083d1002 	ldmdaeq	sp!, {r1, ip}
    3f7c:	1a800000 	bne	fe003f84 <__bss_end__+0xfdffa024>
    3f80:	00000227 	andeq	r0, r0, r7, lsr #4
    3f84:	10028d06 	andne	r8, r2, r6, lsl #26
    3f88:	0000084d 	andeq	r0, r0, sp, asr #16
    3f8c:	04481a88 	strbeq	r1, [r8], #-2696	; 0xfffff578
    3f90:	8e060000 	cdphi	0, 0, cr0, cr6, cr0, {0}
    3f94:	00560f02 	subseq	r0, r6, r2, lsl #30
    3f98:	1aa00000 	bne	fe803fa0 <__bss_end__+0xfe7fa040>
    3f9c:	00000176 	andeq	r0, r0, r6, ror r1
    3fa0:	16028f06 	strne	r8, [r2], -r6, lsl #30
    3fa4:	0000012e 	andeq	r0, r0, lr, lsr #2
    3fa8:	00801aa4 	addeq	r1, r0, r4, lsr #21
    3fac:	90060000 	andls	r0, r6, r0
    3fb0:	012e1602 			; <UNDEFINED> instruction: 0x012e1602
    3fb4:	1aac0000 	bne	feb03fbc <__bss_end__+0xfeafa05c>
    3fb8:	00000165 	andeq	r0, r0, r5, ror #2
    3fbc:	16029106 	strne	r9, [r2], -r6, lsl #2
    3fc0:	0000012e 	andeq	r0, r0, lr, lsr #2
    3fc4:	002d1ab4 	strhteq	r1, [sp], -r4
    3fc8:	92060000 	andls	r0, r6, #0
    3fcc:	012e1602 			; <UNDEFINED> instruction: 0x012e1602
    3fd0:	1abc0000 	bne	fef03fd8 <__bss_end__+0xfeefa078>
    3fd4:	0000003c 	andeq	r0, r0, ip, lsr r0
    3fd8:	16029306 	strne	r9, [r2], -r6, lsl #6
    3fdc:	0000012e 	andeq	r0, r0, lr, lsr #2
    3fe0:	034a1ac4 	movteq	r1, #43716	; 0xaac4
    3fe4:	94060000 	strls	r0, [r6], #-0
    3fe8:	00560802 	subseq	r0, r6, r2, lsl #16
    3fec:	00cc0000 	sbceq	r0, ip, r0
    3ff0:	00014c0d 	andeq	r4, r1, sp, lsl #24
    3ff4:	00083d00 	andeq	r3, r8, r0, lsl #26
    3ff8:	005d0e00 	subseq	r0, sp, r0, lsl #28
    3ffc:	00190000 	andseq	r0, r9, r0
    4000:	00014c0d 	andeq	r4, r1, sp, lsl #24
    4004:	00084d00 	andeq	r4, r8, r0, lsl #26
    4008:	005d0e00 	subseq	r0, sp, r0, lsl #28
    400c:	00070000 	andeq	r0, r7, r0
    4010:	00014c0d 	andeq	r4, r1, sp, lsl #24
    4014:	00085d00 	andeq	r5, r8, r0, lsl #26
    4018:	005d0e00 	subseq	r0, sp, r0, lsl #28
    401c:	00170000 	andseq	r0, r7, r0
    4020:	9906f01d 	stmdbls	r6, {r0, r2, r3, r4, ip, sp, lr, pc}
    4024:	08840702 	stmeq	r4, {r1, r8, r9, sl}
    4028:	761a0000 	ldrvc	r0, [sl], -r0
    402c:	06000002 	streq	r0, [r0], -r2
    4030:	841b029c 	ldrhi	r0, [fp], #-668	; 0xfffffd64
    4034:	00000008 	andeq	r0, r0, r8
    4038:	0004981a 	andeq	r9, r4, sl, lsl r8
    403c:	029d0600 	addseq	r0, sp, #0, 12
    4040:	00089418 	andeq	r9, r8, r8, lsl r4
    4044:	0d007800 	stceq	8, cr7, [r0, #-0]
    4048:	00000334 	andeq	r0, r0, r4, lsr r3
    404c:	00000894 	muleq	r0, r4, r8
    4050:	00005d0e 	andeq	r5, r0, lr, lsl #26
    4054:	0d001d00 	stceq	13, cr1, [r0, #-0]
    4058:	0000005d 	andeq	r0, r0, sp, asr r0
    405c:	000008a4 	andeq	r0, r0, r4, lsr #17
    4060:	00005d0e 	andeq	r5, r0, lr, lsl #26
    4064:	1e001d00 	cdpne	13, 0, cr1, cr0, cr0, {0}
    4068:	027e06f0 	rsbseq	r0, lr, #240, 12	; 0xf000000
    406c:	0008c903 	andeq	ip, r8, r3, lsl #18
    4070:	03e41f00 	mvneq	r1, #0, 30
    4074:	95060000 	strls	r0, [r6, #-0]
    4078:	07180b02 	ldreq	r0, [r8, -r2, lsl #22]
    407c:	c31f0000 	tstgt	pc, #0
    4080:	06000004 	streq	r0, [r0], -r4
    4084:	5d0b029e 	sfmpl	f0, 4, [fp, #-632]	; 0xfffffd88
    4088:	00000008 	andeq	r0, r0, r8
    408c:	00014c0d 	andeq	r4, r1, sp, lsl #24
    4090:	0008d900 	andeq	sp, r8, r0, lsl #18
    4094:	005d0e00 	subseq	r0, sp, r0, lsl #28
    4098:	00180000 	andseq	r0, r8, r0
    409c:	00007509 	andeq	r7, r0, r9, lsl #10
    40a0:	d9040800 	stmdble	r4, {fp}
    40a4:	20000008 	andcs	r0, r0, r8
    40a8:	000008ef 	andeq	r0, r0, pc, ror #17
    40ac:	00049b18 	andeq	r9, r4, r8, lsl fp
    40b0:	04080000 	streq	r0, [r8], #-0
    40b4:	000008e4 	andeq	r0, r0, r4, ror #17
    40b8:	01be0408 			; <UNDEFINED> instruction: 0x01be0408
    40bc:	06200000 	strteq	r0, [r0], -r0
    40c0:	18000009 	stmdane	r0, {r0, r3}
    40c4:	00000056 	andeq	r0, r0, r6, asr r0
    40c8:	0c040800 	stceq	8, cr0, [r4], {-0}
    40cc:	08000009 	stmdaeq	r0, {r0, r3}
    40d0:	0008fb04 	andeq	pc, r8, r4, lsl #22
    40d4:	067d0d00 	ldrbteq	r0, [sp], -r0, lsl #26
    40d8:	09220000 	stmdbeq	r2!, {}	; <UNPREDICTABLE>
    40dc:	5d0e0000 	stcpl	0, cr0, [lr, #-0]
    40e0:	02000000 	andeq	r0, r0, #0
    40e4:	045c2100 	ldrbeq	r2, [ip], #-256	; 0xffffff00
    40e8:	2e060000 	cdpcs	0, 0, cr0, cr6, cr0, {0}
    40ec:	049b1703 	ldreq	r1, [fp], #1795	; 0x703
    40f0:	55210000 	strpl	r0, [r1, #-0]!
    40f4:	06000004 	streq	r0, [r0], -r4
    40f8:	a11d032f 	tstge	sp, pc, lsr #6
    40fc:	17000004 	strne	r0, [r0, -r4]
    4100:	00000056 	andeq	r0, r0, r6, asr r0
    4104:	0000094b 	andeq	r0, r0, fp, asr #18
    4108:	00005618 	andeq	r5, r0, r8, lsl r6
    410c:	c9220000 	stmdbgt	r2!, {}	; <UNPREDICTABLE>
    4110:	07000001 	streq	r0, [r0, -r1]
    4114:	09570e1d 	ldmdbeq	r7, {r0, r2, r3, r4, r9, sl, fp}^
    4118:	04080000 	streq	r0, [r8], #-0
    411c:	0000093c 	andeq	r0, r0, ip, lsr r9
    4120:	00005617 	andeq	r5, r0, r7, lsl r6
    4124:	00096c00 	andeq	r6, r9, r0, lsl #24
    4128:	06131800 	ldreq	r1, [r3], -r0, lsl #16
    412c:	22000000 	andcs	r0, r0, #0
    4130:	00000768 	andeq	r0, r0, r8, ror #14
    4134:	780e2207 	stmdavc	lr, {r0, r1, r2, r9, sp}
    4138:	08000009 	stmdaeq	r0, {r0, r3}
    413c:	00095d04 	andeq	r5, r9, r4, lsl #26
    4140:	06ff2300 	ldrbteq	r2, [pc], r0, lsl #6
    4144:	06010000 	streq	r0, [r1], -r0
    4148:	00005605 	andeq	r5, r0, r5, lsl #12
    414c:	0089f800 	addeq	pc, r9, r0, lsl #16
    4150:	00005800 	andeq	r5, r0, r0, lsl #16
    4154:	119c0100 	orrsne	r0, ip, r0, lsl #2
    4158:	2400000a 	strcs	r0, [r0], #-10
    415c:	00746d66 	rsbseq	r6, r4, r6, ror #26
    4160:	13180601 	tstne	r8, #1048576	; 0x100000
    4164:	02000006 	andeq	r0, r0, #6
    4168:	26257091 			; <UNDEFINED> instruction: 0x26257091
    416c:	00667562 	rsbeq	r7, r6, r2, ror #10
    4170:	11110801 	tstne	r1, r1, lsl #16
    4174:	0500000a 	streq	r0, [r0, #-10]
    4178:	009b5c03 	addseq	r5, fp, r3, lsl #24
    417c:	00fb2700 	rscseq	r2, fp, r0, lsl #14
    4180:	09010000 	stmdbeq	r1, {}	; <UNPREDICTABLE>
    4184:	00004a0d 	andeq	r4, r0, sp, lsl #20
    4188:	5c910200 	lfmpl	f0, 4, [r1], {0}
    418c:	007a7328 	rsbseq	r7, sl, r8, lsr #6
    4190:	560d0c01 	strpl	r0, [sp], -r1, lsl #24
    4194:	4c000000 	stcmi	0, cr0, [r0], {-0}
    4198:	4600000a 	strmi	r0, [r0], -sl
    419c:	2900000a 	stmdbcs	r0, {r1, r3}
    41a0:	00008a20 	andeq	r8, r0, r0, lsr #20
    41a4:	00000a22 	andeq	r0, r0, r2, lsr #20
    41a8:	00000a04 	andeq	r0, r0, r4, lsl #20
    41ac:	0250012a 	subseq	r0, r0, #-2147483638	; 0x8000000a
    41b0:	012a0075 			; <UNDEFINED> instruction: 0x012a0075
    41b4:	000a0351 	andeq	r0, sl, r1, asr r3
    41b8:	52012a04 	andpl	r2, r1, #4, 20	; 0x4000
    41bc:	06489103 	strbeq	r9, [r8], -r3, lsl #2
    41c0:	0253012a 	subseq	r0, r3, #-2147483638	; 0x8000000a
    41c4:	2b004c91 	blcs	17410 <__bss_end__+0xd4b0>
    41c8:	00008a34 	andeq	r8, r0, r4, lsr sl
    41cc:	0250012a 	subseq	r0, r0, #-2147483638	; 0x8000000a
    41d0:	00000075 	andeq	r0, r0, r5, ror r0
    41d4:	00014c0d 	andeq	r4, r1, sp, lsl #24
    41d8:	000a2200 	andeq	r2, sl, r0, lsl #4
    41dc:	005d2c00 	subseq	r2, sp, r0, lsl #24
    41e0:	03ff0000 	mvnseq	r0, #0
    41e4:	06fc2d00 	ldrbteq	r2, [ip], r0, lsl #26
    41e8:	06fc0000 	ldrbteq	r0, [ip], r0
    41ec:	02090000 	andeq	r0, r9, #0
    41f0:	09d90005 	ldmibeq	r9, {r0, r2}^
    41f4:	00040000 	andeq	r0, r4, r0
    41f8:	00000c44 	andeq	r0, r0, r4, asr #24
    41fc:	02cb0104 	sbceq	r0, fp, #4, 2
    4200:	500c0000 	andpl	r0, ip, r0
    4204:	c1000007 	tstgt	r0, r7
    4208:	50000006 	andpl	r0, r0, r6
    420c:	3c00008a 	stccc	0, cr0, [r0], {138}	; 0x8a
    4210:	bb000000 	bllt	4218 <_start-0x3de8>
    4214:	0200000c 	andeq	r0, r0, #12
    4218:	6e690504 	cdpvs	5, 6, cr0, cr9, cr4, {0}
    421c:	04030074 	streq	r0, [r3], #-116	; 0xffffff8c
    4220:	00005707 	andeq	r5, r0, r7, lsl #14
    4224:	06010300 	streq	r0, [r1], -r0, lsl #6
    4228:	000002ba 			; <UNDEFINED> instruction: 0x000002ba
    422c:	53050203 	movwpl	r0, #20995	; 0x5203
    4230:	03000003 	movweq	r0, #3
    4234:	009d0504 	addseq	r0, sp, r4, lsl #10
    4238:	08030000 	stmdaeq	r3, {}	; <UNPREDICTABLE>
    423c:	00009805 	andeq	r9, r0, r5, lsl #16
    4240:	08010300 	stmdaeq	r1, {r8, r9}
    4244:	000002b8 			; <UNDEFINED> instruction: 0x000002b8
    4248:	0b070203 	bleq	1c4a5c <__bss_end__+0x1baafc>
    424c:	03000002 	movweq	r0, #2
    4250:	00520704 	subseq	r0, r2, r4, lsl #14
    4254:	08030000 	stmdaeq	r3, {}	; <UNPREDICTABLE>
    4258:	00004d07 	andeq	r4, r0, r7, lsl #26
    425c:	024e0400 	subeq	r0, lr, #0, 8
    4260:	22020000 	andcs	r0, r2, #0
    4264:	00007719 	andeq	r7, r0, r9, lsl r7
    4268:	7d040500 	cfstr32vc	mvfx0, [r4, #-0]
    426c:	06000000 	streq	r0, [r0], -r0
    4270:	000003f9 	strdeq	r0, [r0], -r9
    4274:	00029904 	andeq	r9, r2, r4, lsl #18
    4278:	0e2c0300 	cdpeq	3, 2, cr0, cr12, cr0, {0}
    427c:	00000041 	andeq	r0, r0, r1, asr #32
    4280:	00040e04 	andeq	r0, r4, r4, lsl #28
    4284:	0e720300 	cdpeq	3, 7, cr0, cr2, cr0, {0}
    4288:	00000041 	andeq	r0, r0, r1, asr #32
    428c:	00025607 	andeq	r5, r2, r7, lsl #12
    4290:	015e0400 	cmpeq	lr, r0, lsl #8
    4294:	00002c17 	andeq	r2, r0, r7, lsl ip
    4298:	03040800 	movweq	r0, #18432	; 0x4800
    429c:	00c903a6 	sbceq	r0, r9, r6, lsr #7
    42a0:	48090000 	stmdami	r9, {}	; <UNPREDICTABLE>
    42a4:	03000002 	movweq	r0, #2
    42a8:	009a0ca8 	addseq	r0, sl, r8, lsr #25
    42ac:	da090000 	ble	2442b4 <__bss_end__+0x23a354>
    42b0:	03000001 	movweq	r0, #1
    42b4:	00c913a9 	sbceq	r1, r9, r9, lsr #7
    42b8:	0a000000 	beq	42c0 <_start-0x3d40>
    42bc:	0000004f 	andeq	r0, r0, pc, asr #32
    42c0:	000000d9 	ldrdeq	r0, [r0], -r9
    42c4:	00002c0b 	andeq	r2, r0, fp, lsl #24
    42c8:	0c000300 	stceq	3, cr0, [r0], {-0}
    42cc:	09a30308 	stmibeq	r3!, {r3, r8, r9}
    42d0:	000000fd 	strdeq	r0, [r0], -sp
    42d4:	0003f10d 	andeq	pc, r3, sp, lsl #2
    42d8:	07a50300 	streq	r0, [r5, r0, lsl #6]!
    42dc:	00000025 	andeq	r0, r0, r5, lsr #32
    42e0:	04000d00 	streq	r0, [r0], #-3328	; 0xfffff300
    42e4:	aa030000 	bge	c42ec <__bss_end__+0xba38c>
    42e8:	0000a705 	andeq	sl, r0, r5, lsl #14
    42ec:	04000400 	streq	r0, [r0], #-1024	; 0xfffffc00
    42f0:	0000037b 	andeq	r0, r0, fp, ror r3
    42f4:	d903ab03 	stmdble	r3, {r0, r1, r8, r9, fp, sp, pc}
    42f8:	04000000 	streq	r0, [r0], #-0
    42fc:	00000197 	muleq	r0, r7, r1
    4300:	6b1baf03 	blvs	6eff14 <__bss_end__+0x6e5fb4>
    4304:	0e000000 	cdpeq	0, 0, cr0, cr0, cr0, {0}
    4308:	1d040504 	cfstr32ne	mvfx0, [r4, #-16]
    430c:	03000001 	movweq	r0, #1
    4310:	02c10801 	sbceq	r0, r1, #65536	; 0x10000
    4314:	1d0f0000 	stcne	0, cr0, [pc, #-0]	; 431c <_start-0x3ce4>
    4318:	04000001 	streq	r0, [r0], #-1
    431c:	00000440 	andeq	r0, r0, r0, asr #8
    4320:	5d191605 	ldcpl	6, cr1, [r9, #-20]	; 0xffffffec
    4324:	10000000 	andne	r0, r0, r0
    4328:	000001a8 	andeq	r0, r0, r8, lsr #3
    432c:	082f0518 	stmdaeq	pc!, {r3, r4, r8, sl}	; <UNPREDICTABLE>
    4330:	0000018f 	andeq	r0, r0, pc, lsl #3
    4334:	00039c0d 	andeq	r9, r3, sp, lsl #24
    4338:	13310500 	teqne	r1, #0, 10
    433c:	0000018f 	andeq	r0, r0, pc, lsl #3
    4340:	6b5f1100 	blvs	17c8748 <__bss_end__+0x17be7e8>
    4344:	07320500 	ldreq	r0, [r2, -r0, lsl #10]!
    4348:	00000025 	andeq	r0, r0, r5, lsr #32
    434c:	03dc0d04 	bicseq	r0, ip, #4, 26	; 0x100
    4350:	32050000 	andcc	r0, r5, #0
    4354:	0000250b 	andeq	r2, r0, fp, lsl #10
    4358:	910d0800 	tstls	sp, r0, lsl #16
    435c:	05000001 	streq	r0, [r0, #-1]
    4360:	00251432 	eoreq	r1, r5, r2, lsr r4
    4364:	0d0c0000 	stceq	0, cr0, [ip, #-0]
    4368:	0000047c 	andeq	r0, r0, ip, ror r4
    436c:	251b3205 	ldrcs	r3, [fp, #-517]	; 0xfffffdfb
    4370:	10000000 	andne	r0, r0, r0
    4374:	00785f11 	rsbseq	r5, r8, r1, lsl pc
    4378:	950b3305 	strls	r3, [fp, #-773]	; 0xfffffcfb
    437c:	14000001 	strne	r0, [r0], #-1
    4380:	35040500 	strcc	r0, [r4, #-1280]	; 0xfffffb00
    4384:	0a000001 	beq	4390 <_start-0x3c70>
    4388:	00000129 	andeq	r0, r0, r9, lsr #2
    438c:	000001a5 	andeq	r0, r0, r5, lsr #3
    4390:	00002c0b 	andeq	r2, r0, fp, lsl #24
    4394:	10000000 	andne	r0, r0, r0
    4398:	000001d5 	ldrdeq	r0, [r0], -r5
    439c:	08370524 	ldmdaeq	r7!, {r2, r5, r8, sl}
    43a0:	00000228 	andeq	r0, r0, r8, lsr #4
    43a4:	00008f0d 	andeq	r8, r0, sp, lsl #30
    43a8:	09390500 	ldmdbeq	r9!, {r8, sl}
    43ac:	00000025 	andeq	r0, r0, r5, lsr #32
    43b0:	04160d00 	ldreq	r0, [r6], #-3328	; 0xfffff300
    43b4:	3a050000 	bcc	1443bc <__bss_end__+0x13a45c>
    43b8:	00002509 	andeq	r2, r0, r9, lsl #10
    43bc:	b20d0400 	andlt	r0, sp, #0, 8
    43c0:	05000000 	streq	r0, [r0, #-0]
    43c4:	0025093b 	eoreq	r0, r5, fp, lsr r9
    43c8:	0d080000 	stceq	0, cr0, [r8, #-0]
    43cc:	00000504 	andeq	r0, r0, r4, lsl #10
    43d0:	25093c05 	strcs	r3, [r9, #-3077]	; 0xfffff3fb
    43d4:	0c000000 	stceq	0, cr0, [r0], {-0}
    43d8:	00027d0d 	andeq	r7, r2, sp, lsl #26
    43dc:	093d0500 	ldmdbeq	sp!, {r8, sl}
    43e0:	00000025 	andeq	r0, r0, r5, lsr #32
    43e4:	026c0d10 	rsbeq	r0, ip, #16, 26	; 0x400
    43e8:	3e050000 	cdpcc	0, 0, cr0, cr5, cr0, {0}
    43ec:	00002509 	andeq	r2, r0, r9, lsl #10
    43f0:	810d1400 	tsthi	sp, r0, lsl #8
    43f4:	05000004 	streq	r0, [r0, #-4]
    43f8:	0025093f 	eoreq	r0, r5, pc, lsr r9
    43fc:	0d180000 	ldceq	0, cr0, [r8, #-0]
    4400:	0000035d 	andeq	r0, r0, sp, asr r3
    4404:	25094005 	strcs	r4, [r9, #-5]
    4408:	1c000000 	stcne	0, cr0, [r0], {-0}
    440c:	0004cb0d 	andeq	ip, r4, sp, lsl #22
    4410:	09410500 	stmdbeq	r1, {r8, sl}^
    4414:	00000025 	andeq	r0, r0, r5, lsr #32
    4418:	f2120020 	vhadd.s16	d0, d2, d16
    441c:	08000000 	stmdaeq	r0, {}	; <UNPREDICTABLE>
    4420:	084a0501 	stmdaeq	sl, {r0, r8, sl}^
    4424:	0000026d 	andeq	r0, r0, sp, ror #4
    4428:	0001840d 	andeq	r8, r1, sp, lsl #8
    442c:	0a4b0500 	beq	12c5834 <__bss_end__+0x12bb8d4>
    4430:	0000026d 	andeq	r0, r0, sp, ror #4
    4434:	00000d00 	andeq	r0, r0, r0, lsl #26
    4438:	4c050000 	stcmi	0, cr0, [r5], {-0}
    443c:	00026d09 	andeq	r6, r2, r9, lsl #26
    4440:	32138000 	andscc	r8, r3, #0
    4444:	05000004 	streq	r0, [r0, #-4]
    4448:	01290a4e 			; <UNDEFINED> instruction: 0x01290a4e
    444c:	01000000 	mrseq	r0, (UNDEF: 0)
    4450:	00011713 	andeq	r1, r1, r3, lsl r7
    4454:	0a510500 	beq	144585c <__bss_end__+0x143b8fc>
    4458:	00000129 	andeq	r0, r0, r9, lsr #2
    445c:	0a000104 	beq	4874 <_start-0x378c>
    4460:	00000115 	andeq	r0, r0, r5, lsl r1
    4464:	0000027d 	andeq	r0, r0, sp, ror r2
    4468:	00002c0b 	andeq	r2, r0, fp, lsl #24
    446c:	12001f00 	andne	r1, r0, #0, 30
    4470:	00000286 	andeq	r0, r0, r6, lsl #5
    4474:	5d050190 	stfpls	f0, [r5, #-576]	; 0xfffffdc0
    4478:	0002c008 	andeq	ip, r2, r8
    447c:	039c0d00 	orrseq	r0, ip, #0, 26
    4480:	5e050000 	cdppl	0, 0, cr0, cr5, cr0, {0}
    4484:	0002c012 	andeq	ip, r2, r2, lsl r0
    4488:	b40d0000 	strlt	r0, [sp], #-0
    448c:	05000003 	streq	r0, [r0, #-3]
    4490:	0025065f 	eoreq	r0, r5, pc, asr r6
    4494:	0d040000 	stceq	0, cr0, [r4, #-0]
    4498:	0000018c 	andeq	r0, r0, ip, lsl #3
    449c:	c6096105 	strgt	r6, [r9], -r5, lsl #2
    44a0:	08000002 	stmdaeq	r0, {r1}
    44a4:	0000f20d 	andeq	pc, r0, sp, lsl #4
    44a8:	1e620500 	cdpne	5, 6, cr0, cr2, cr0, {0}
    44ac:	00000228 	andeq	r0, r0, r8, lsr #4
    44b0:	04050088 	streq	r0, [r5], #-136	; 0xffffff78
    44b4:	0000027d 	andeq	r0, r0, sp, ror r2
    44b8:	0002d60a 	andeq	sp, r2, sl, lsl #12
    44bc:	0002d600 	andeq	sp, r2, r0, lsl #12
    44c0:	002c0b00 	eoreq	r0, ip, r0, lsl #22
    44c4:	001f0000 	andseq	r0, pc, r0
    44c8:	02dc0405 	sbcseq	r0, ip, #83886080	; 0x5000000
    44cc:	10140000 	andsne	r0, r4, r0
    44d0:	00000367 	andeq	r0, r0, r7, ror #6
    44d4:	08750508 	ldmdaeq	r5!, {r3, r8, sl}^
    44d8:	00000305 	andeq	r0, r0, r5, lsl #6
    44dc:	0000ac0d 	andeq	sl, r0, sp, lsl #24
    44e0:	11760500 	cmnne	r6, r0, lsl #10
    44e4:	00000305 	andeq	r0, r0, r5, lsl #6
    44e8:	000c0d00 	andeq	r0, ip, r0, lsl #26
    44ec:	77050000 	strvc	r0, [r5, -r0]
    44f0:	00002506 	andeq	r2, r0, r6, lsl #10
    44f4:	05000400 	streq	r0, [r0, #-1024]	; 0xfffffc00
    44f8:	00004f04 	andeq	r4, r0, r4, lsl #30
    44fc:	03861000 	orreq	r1, r6, #0
    4500:	05680000 	strbeq	r0, [r8, #-0]!
    4504:	044e08b5 	strbeq	r0, [lr], #-2229	; 0xfffff74b
    4508:	5f110000 	svcpl	0x00110000
    450c:	b6050070 			; <UNDEFINED> instruction: 0xb6050070
    4510:	00030512 	andeq	r0, r3, r2, lsl r5
    4514:	5f110000 	svcpl	0x00110000
    4518:	b7050072 	smlsdxlt	r5, r2, r0, r0
    451c:	00002507 	andeq	r2, r0, r7, lsl #10
    4520:	5f110400 	svcpl	0x00110400
    4524:	b8050077 	stmdalt	r5, {r0, r1, r2, r4, r5, r6}
    4528:	00002507 	andeq	r2, r0, r7, lsl #10
    452c:	100d0800 	andne	r0, sp, r0, lsl #16
    4530:	05000001 	streq	r0, [r0, #-1]
    4534:	003a09b9 	ldrhteq	r0, [sl], -r9
    4538:	0d0c0000 	stceq	0, cr0, [ip, #-0]
    453c:	000001f1 	strdeq	r0, [r0], -r1
    4540:	3a09ba05 	bcc	272d5c <__bss_end__+0x268dfc>
    4544:	0e000000 	cdpeq	0, 0, cr0, cr0, cr0, {0}
    4548:	66625f11 	uqadd16vs	r5, r2, r1
    454c:	11bb0500 			; <UNDEFINED> instruction: 0x11bb0500
    4550:	000002dd 	ldrdeq	r0, [r0], -sp
    4554:	006c0d10 	rsbeq	r0, ip, r0, lsl sp
    4558:	bc050000 	stclt	0, cr0, [r5], {-0}
    455c:	00002507 	andeq	r2, r0, r7, lsl #10
    4560:	000d1800 	andeq	r1, sp, r0, lsl #16
    4564:	05000001 	streq	r0, [r0, #-1]
    4568:	01150ac3 	tsteq	r5, r3, asr #21
    456c:	0d1c0000 	ldceq	0, cr0, [ip, #-0]
    4570:	00000b24 	andeq	r0, r0, r4, lsr #22
    4574:	c01dc505 	andsgt	ip, sp, r5, lsl #10
    4578:	20000005 	andcs	r0, r0, r5
    457c:	0006190d 	andeq	r1, r6, sp, lsl #18
    4580:	1dc70500 	cfstr64ne	mvdx0, [r7]
    4584:	000005ea 	andeq	r0, r0, sl, ror #11
    4588:	04080d24 	streq	r0, [r8], #-3364	; 0xfffff2dc
    458c:	ca050000 	bgt	144594 <__bss_end__+0x13a634>
    4590:	00060e0d 	andeq	r0, r6, sp, lsl #28
    4594:	e50d2800 	str	r2, [sp, #-2048]	; 0xfffff800
    4598:	05000004 	streq	r0, [r0, #-4]
    459c:	062809cb 	strteq	r0, [r8], -fp, asr #19
    45a0:	112c0000 			; <UNDEFINED> instruction: 0x112c0000
    45a4:	0062755f 	rsbeq	r7, r2, pc, asr r5
    45a8:	dd11ce05 	ldcle	14, cr12, [r1, #-20]	; 0xffffffec
    45ac:	30000002 	andcc	r0, r0, r2
    45b0:	70755f11 	rsbsvc	r5, r5, r1, lsl pc
    45b4:	12cf0500 	sbcne	r0, pc, #0, 10
    45b8:	00000305 	andeq	r0, r0, r5, lsl #6
    45bc:	755f1138 	ldrbvc	r1, [pc, #-312]	; 448c <_start-0x3b74>
    45c0:	d0050072 	andle	r0, r5, r2, ror r0
    45c4:	00002507 	andeq	r2, r0, r7, lsl #10
    45c8:	a60d3c00 	strge	r3, [sp], -r0, lsl #24
    45cc:	05000000 	streq	r0, [r0, #-0]
    45d0:	062e11d3 			; <UNDEFINED> instruction: 0x062e11d3
    45d4:	0d400000 	stcleq	0, cr0, [r0, #-0]
    45d8:	000004bd 			; <UNDEFINED> instruction: 0x000004bd
    45dc:	3e11d405 	cfmulscc	mvf13, mvf1, mvf5
    45e0:	43000006 	movwmi	r0, #6
    45e4:	626c5f11 	rsbvs	r5, ip, #17, 30	; 0x44
    45e8:	11d70500 	bicsne	r0, r7, r0, lsl #10
    45ec:	000002dd 	ldrdeq	r0, [r0], -sp
    45f0:	01350d44 	teqeq	r5, r4, asr #26
    45f4:	da050000 	ble	1445fc <__bss_end__+0x13a69c>
    45f8:	00002507 	andeq	r2, r0, r7, lsl #10
    45fc:	460d4c00 	strmi	r4, [sp], -r0, lsl #24
    4600:	05000001 	streq	r0, [r0, #-1]
    4604:	00820adb 	ldrdeq	r0, [r2], fp
    4608:	0d500000 	ldcleq	0, cr0, [r0, #-0]
    460c:	00000ac5 	andeq	r0, r0, r5, asr #21
    4610:	6c12de05 	ldcvs	14, cr13, [r2], {5}
    4614:	54000004 	strpl	r0, [r0], #-4
    4618:	0003fa0d 	andeq	pc, r3, sp, lsl #20
    461c:	0ce20500 	cfstr64eq	mvdx0, [r2]
    4620:	00000109 	andeq	r0, r0, r9, lsl #2
    4624:	038e0d58 	orreq	r0, lr, #88, 26	; 0x1600
    4628:	e4050000 	str	r0, [r5], #-0
    462c:	0000fd0e 	andeq	pc, r0, lr, lsl #26
    4630:	640d5c00 	strvs	r5, [sp], #-3072	; 0xfffff400
    4634:	05000002 	streq	r0, [r0, #-2]
    4638:	002509e5 	eoreq	r0, r5, r5, ror #19
    463c:	00640000 	rsbeq	r0, r4, r0
    4640:	00002515 	andeq	r2, r0, r5, lsl r5
    4644:	00046c00 	andeq	r6, r4, r0, lsl #24
    4648:	046c1600 	strbteq	r1, [ip], #-1536	; 0xfffffa00
    464c:	15160000 	ldrne	r0, [r6, #-0]
    4650:	16000001 	strne	r0, [r0], -r1
    4654:	00000117 	andeq	r0, r0, r7, lsl r1
    4658:	00002516 	andeq	r2, r0, r6, lsl r5
    465c:	04050000 	streq	r0, [r5], #-0
    4660:	00000477 	andeq	r0, r0, r7, ror r4
    4664:	00046c0f 	andeq	r6, r4, pc, lsl #24
    4668:	03e41700 	mvneq	r1, #0, 14
    466c:	04280000 	strteq	r0, [r8], #-0
    4670:	08026005 	stmdaeq	r2, {r0, r2, sp, lr}
    4674:	000005c0 	andeq	r0, r0, r0, asr #11
    4678:	00034c18 	andeq	r4, r3, r8, lsl ip
    467c:	02620500 	rsbeq	r0, r2, #0, 10
    4680:	00002507 	andeq	r2, r0, r7, lsl #10
    4684:	91180000 	tstls	r8, r0
    4688:	05000004 	streq	r0, [r0, #-4]
    468c:	9a0b0267 	bls	2c5030 <__bss_end__+0x2bb0d0>
    4690:	04000006 	streq	r0, [r0], #-6
    4694:	0001e118 	andeq	lr, r1, r8, lsl r1
    4698:	02670500 	rsbeq	r0, r7, #0, 10
    469c:	00069a14 	andeq	r9, r6, r4, lsl sl
    46a0:	a0180800 	andsge	r0, r8, r0, lsl #16
    46a4:	05000001 	streq	r0, [r0, #-1]
    46a8:	9a1e0267 	bls	78504c <__bss_end__+0x77b0ec>
    46ac:	0c000006 	stceq	0, cr0, [r0], {6}
    46b0:	0003af18 	andeq	sl, r3, r8, lsl pc
    46b4:	02690500 	rsbeq	r0, r9, #0, 10
    46b8:	00002508 	andeq	r2, r0, r8, lsl #10
    46bc:	1a181000 	bne	6086c4 <__bss_end__+0x5fe764>
    46c0:	05000000 	streq	r0, [r0, #-0]
    46c4:	9a08026a 	bls	205074 <__bss_end__+0x1fb114>
    46c8:	14000008 	strne	r0, [r0], #-8
    46cc:	0003c318 	andeq	ip, r3, r8, lsl r3
    46d0:	026d0500 	rsbeq	r0, sp, #0, 10
    46d4:	00002507 	andeq	r2, r0, r7, lsl #10
    46d8:	01183000 	tsteq	r8, r0
    46dc:	0500000a 	streq	r0, [r0, #-10]
    46e0:	af16026e 	svcge	0x0016026e
    46e4:	34000008 	strcc	r0, [r0], #-8
    46e8:	00028e18 	andeq	r8, r2, r8, lsl lr
    46ec:	02700500 	rsbseq	r0, r0, #0, 10
    46f0:	00002507 	andeq	r2, r0, r7, lsl #10
    46f4:	b9183800 	ldmdblt	r8, {fp, ip, sp}
    46f8:	05000003 	streq	r0, [r0, #-3]
    46fc:	c00a0272 	andgt	r0, sl, r2, ror r2
    4700:	3c000008 	stccc	0, cr0, [r0], {8}
    4704:	00024018 	andeq	r4, r2, r8, lsl r0
    4708:	02750500 	rsbseq	r0, r5, #0, 10
    470c:	00018f13 	andeq	r8, r1, r3, lsl pc
    4710:	bf184000 	svclt	0x00184000
    4714:	05000001 	streq	r0, [r0, #-1]
    4718:	25070276 	strcs	r0, [r7, #-630]	; 0xfffffd8a
    471c:	44000000 	strmi	r0, [r0], #-0
    4720:	0004ff18 	andeq	pc, r4, r8, lsl pc	; <UNPREDICTABLE>
    4724:	02770500 	rsbseq	r0, r7, #0, 10
    4728:	00018f13 	andeq	r8, r1, r3, lsl pc
    472c:	a0184800 	andsge	r4, r8, r0, lsl #16
    4730:	05000002 	streq	r0, [r0, #-2]
    4734:	c6140278 			; <UNDEFINED> instruction: 0xc6140278
    4738:	4c000008 	stcmi	0, cr0, [r0], {8}
    473c:	0001e918 	andeq	lr, r1, r8, lsl r9
    4740:	027b0500 	rsbseq	r0, fp, #0, 10
    4744:	00002507 	andeq	r2, r0, r7, lsl #10
    4748:	3e185000 	cdpcc	0, 1, cr5, cr8, cr0, {0}
    474c:	05000001 	streq	r0, [r0, #-1]
    4750:	1709027c 	smlsdxne	r9, ip, r2, r0
    4754:	54000001 	strpl	r0, [r0], #-1
    4758:	0002c618 	andeq	ip, r2, r8, lsl r6
    475c:	029f0500 	addseq	r0, pc, #0, 10
    4760:	00087507 	andeq	r7, r8, r7, lsl #10
    4764:	86195800 	ldrhi	r5, [r9], -r0, lsl #16
    4768:	05000002 	streq	r0, [r0, #-2]
    476c:	c01302a3 	andsgt	r0, r3, r3, lsr #5
    4770:	48000002 	stmdami	r0, {r1}
    4774:	021e1901 	andseq	r1, lr, #16384	; 0x4000
    4778:	a4050000 	strge	r0, [r5], #-0
    477c:	027d1202 	rsbseq	r1, sp, #536870912	; 0x20000000
    4780:	014c0000 	mrseq	r0, (UNDEF: 76)
    4784:	0004ab19 	andeq	sl, r4, r9, lsl fp
    4788:	02a80500 	adceq	r0, r8, #0, 10
    478c:	0008d70c 	andeq	sp, r8, ip, lsl #14
    4790:	1902dc00 	stmdbne	r2, {sl, fp, ip, lr, pc}
    4794:	00000108 	andeq	r0, r0, r8, lsl #2
    4798:	1002ad05 	andne	sl, r2, r5, lsl #26
    479c:	0000065b 	andeq	r0, r0, fp, asr r6
    47a0:	ed1902e0 	lfm	f0, 4, [r9, #-896]	; 0xfffffc80
    47a4:	05000000 	streq	r0, [r0, #-0]
    47a8:	e30a02af 	movw	r0, #41647	; 0xa2af
    47ac:	ec000008 	stc	0, cr0, [r0], {8}
    47b0:	04050002 	streq	r0, [r5], #-2
    47b4:	0000044e 	andeq	r0, r0, lr, asr #8
    47b8:	00002515 	andeq	r2, r0, r5, lsl r5
    47bc:	0005e400 	andeq	lr, r5, r0, lsl #8
    47c0:	046c1600 	strbteq	r1, [ip], #-1536	; 0xfffffa00
    47c4:	15160000 	ldrne	r0, [r6, #-0]
    47c8:	16000001 	strne	r0, [r0], -r1
    47cc:	000005e4 	andeq	r0, r0, r4, ror #11
    47d0:	00002516 	andeq	r2, r0, r6, lsl r5
    47d4:	04050000 	streq	r0, [r5], #-0
    47d8:	00000124 	andeq	r0, r0, r4, lsr #2
    47dc:	05c60405 	strbeq	r0, [r6, #1029]	; 0x405
    47e0:	8e150000 	cdphi	0, 1, cr0, cr5, cr0, {0}
    47e4:	0e000000 	cdpeq	0, 0, cr0, cr0, cr0, {0}
    47e8:	16000006 	strne	r0, [r0], -r6
    47ec:	0000046c 	andeq	r0, r0, ip, ror #8
    47f0:	00011516 	andeq	r1, r1, r6, lsl r5
    47f4:	008e1600 	addeq	r1, lr, r0, lsl #12
    47f8:	25160000 	ldrcs	r0, [r6, #-0]
    47fc:	00000000 	andeq	r0, r0, r0
    4800:	05f00405 	ldrbeq	r0, [r0, #1029]!	; 0x405
    4804:	25150000 	ldrcs	r0, [r5, #-0]
    4808:	28000000 	stmdacs	r0, {}	; <UNPREDICTABLE>
    480c:	16000006 	strne	r0, [r0], -r6
    4810:	0000046c 	andeq	r0, r0, ip, ror #8
    4814:	00011516 	andeq	r1, r1, r6, lsl r5
    4818:	04050000 	streq	r0, [r5], #-0
    481c:	00000614 	andeq	r0, r0, r4, lsl r6
    4820:	00004f0a 	andeq	r4, r0, sl, lsl #30
    4824:	00063e00 	andeq	r3, r6, r0, lsl #28
    4828:	002c0b00 	eoreq	r0, ip, r0, lsl #22
    482c:	00020000 	andeq	r0, r2, r0
    4830:	00004f0a 	andeq	r4, r0, sl, lsl #30
    4834:	00064e00 	andeq	r4, r6, r0, lsl #28
    4838:	002c0b00 	eoreq	r0, ip, r0, lsl #22
    483c:	00000000 	andeq	r0, r0, r0
    4840:	00037407 	andeq	r7, r3, r7, lsl #8
    4844:	011f0500 	tsteq	pc, r0, lsl #10
    4848:	00030b1a 	andeq	r0, r3, sl, lsl fp
    484c:	048b1a00 	streq	r1, [fp], #2560	; 0xa00
    4850:	050c0000 	streq	r0, [ip, #-0]
    4854:	94080123 	strls	r0, [r8], #-291	; 0xfffffedd
    4858:	18000006 	stmdane	r0, {r1, r2}
    485c:	0000039c 	muleq	r0, ip, r3
    4860:	11012505 	tstne	r1, r5, lsl #10
    4864:	00000694 	muleq	r0, r4, r6
    4868:	02041800 	andeq	r1, r4, #0, 16
    486c:	26050000 	strcs	r0, [r5], -r0
    4870:	00250701 	eoreq	r0, r5, r1, lsl #14
    4874:	18040000 	stmdane	r4, {}	; <UNPREDICTABLE>
    4878:	0000036e 	andeq	r0, r0, lr, ror #6
    487c:	0b012705 	bleq	4e498 <__bss_end__+0x44538>
    4880:	0000069a 	muleq	r0, sl, r6
    4884:	04050008 	streq	r0, [r5], #-8
    4888:	0000065b 	andeq	r0, r0, fp, asr r6
    488c:	064e0405 	strbeq	r0, [lr], -r5, lsl #8
    4890:	121a0000 	andsne	r0, sl, #0
    4894:	0e000000 	cdpeq	0, 0, cr0, cr0, cr0, {0}
    4898:	08013f05 	stmdaeq	r1, {r0, r2, r8, r9, sl, fp, ip, sp}
    489c:	000006d9 	ldrdeq	r0, [r0], -r9
    48a0:	0003eb18 	andeq	lr, r3, r8, lsl fp
    48a4:	01400500 	cmpeq	r0, r0, lsl #10
    48a8:	0006d912 	andeq	sp, r6, r2, lsl r9
    48ac:	1f180000 	svcne	0x00180000
    48b0:	05000004 	streq	r0, [r0, #-4]
    48b4:	d9120141 	ldmdble	r2, {r0, r6, r8}
    48b8:	06000006 	streq	r0, [r0], -r6
    48bc:	00043b18 	andeq	r3, r4, r8, lsl fp
    48c0:	01420500 	cmpeq	r2, r0, lsl #10
    48c4:	00005612 	andeq	r5, r0, r2, lsl r6
    48c8:	0a000c00 	beq	78d0 <_start-0x730>
    48cc:	00000056 	andeq	r0, r0, r6, asr r0
    48d0:	000006e9 	andeq	r0, r0, r9, ror #13
    48d4:	00002c0b 	andeq	r2, r0, fp, lsl #24
    48d8:	1b000200 	blne	50e0 <_start-0x2f20>
    48dc:	028005d0 	addeq	r0, r0, #208, 10	; 0x34000000
    48e0:	0007fe07 	andeq	pc, r7, r7, lsl #28
    48e4:	046f1800 	strbteq	r1, [pc], #-2048	; 48ec <_start-0x3714>
    48e8:	82050000 	andhi	r0, r5, #0
    48ec:	002c1802 	eoreq	r1, ip, r2, lsl #16
    48f0:	18000000 	stmdane	r0, {}	; <UNPREDICTABLE>
    48f4:	00000425 	andeq	r0, r0, r5, lsr #8
    48f8:	12028305 	andne	r8, r2, #335544320	; 0x14000000
    48fc:	00000117 	andeq	r0, r0, r7, lsl r1
    4900:	02331804 	eorseq	r1, r3, #4, 16	; 0x40000
    4904:	84050000 	strhi	r0, [r5], #-0
    4908:	07fe1002 	ldrbeq	r1, [lr, r2]!
    490c:	18080000 	stmdane	r8, {}	; <UNPREDICTABLE>
    4910:	000004d6 	ldrdeq	r0, [r0], -r6
    4914:	17028505 	strne	r8, [r2, -r5, lsl #10]
    4918:	000001a5 	andeq	r0, r0, r5, lsr #3
    491c:	01b01824 	lsrseq	r1, r4, #16
    4920:	86050000 	strhi	r0, [r5], -r0
    4924:	00250f02 	eoreq	r0, r5, r2, lsl #30
    4928:	18480000 	stmdane	r8, {}^	; <UNPREDICTABLE>
    492c:	00000397 	muleq	r0, r7, r3
    4930:	2c028705 	stccs	7, cr8, [r2], {5}
    4934:	00000064 	andeq	r0, r0, r4, rrx
    4938:	04ec1850 	strbteq	r1, [ip], #2128	; 0x850
    493c:	88050000 	stmdahi	r5, {}	; <UNPREDICTABLE>
    4940:	06a01a02 	strteq	r1, [r0], r2, lsl #20
    4944:	18580000 	ldmdane	r8, {}^	; <UNPREDICTABLE>
    4948:	000003a2 	andeq	r0, r0, r2, lsr #7
    494c:	16028905 	strne	r8, [r2], -r5, lsl #18
    4950:	000000fd 	strdeq	r0, [r0], -sp
    4954:	04f11868 	ldrbteq	r1, [r1], #2152	; 0x868
    4958:	8a050000 	bhi	144960 <__bss_end__+0x13aa00>
    495c:	00fd1602 	rscseq	r1, sp, r2, lsl #12
    4960:	18700000 	ldmdane	r0!, {}^	; <UNPREDICTABLE>
    4964:	000002aa 	andeq	r0, r0, sl, lsr #5
    4968:	16028b05 	strne	r8, [r2], -r5, lsl #22
    496c:	000000fd 	strdeq	r0, [r0], -sp
    4970:	04a11878 	strteq	r1, [r1], #2168	; 0x878
    4974:	8c050000 	stchi	0, cr0, [r5], {-0}
    4978:	080e1002 	stmdaeq	lr, {r1, ip}
    497c:	18800000 	stmne	r0, {}	; <UNPREDICTABLE>
    4980:	00000227 	andeq	r0, r0, r7, lsr #4
    4984:	10028d05 	andne	r8, r2, r5, lsl #26
    4988:	0000081e 	andeq	r0, r0, lr, lsl r8
    498c:	04481888 	strbeq	r1, [r8], #-2184	; 0xfffff778
    4990:	8e050000 	cdphi	0, 0, cr0, cr5, cr0, {0}
    4994:	00250f02 	eoreq	r0, r5, r2, lsl #30
    4998:	18a00000 	stmiane	r0!, {}	; <UNPREDICTABLE>
    499c:	00000176 	andeq	r0, r0, r6, ror r1
    49a0:	16028f05 	strne	r8, [r2], -r5, lsl #30
    49a4:	000000fd 	strdeq	r0, [r0], -sp
    49a8:	008018a4 	addeq	r1, r0, r4, lsr #17
    49ac:	90050000 	andls	r0, r5, r0
    49b0:	00fd1602 	rscseq	r1, sp, r2, lsl #12
    49b4:	18ac0000 	stmiane	ip!, {}	; <UNPREDICTABLE>
    49b8:	00000165 	andeq	r0, r0, r5, ror #2
    49bc:	16029105 	strne	r9, [r2], -r5, lsl #2
    49c0:	000000fd 	strdeq	r0, [r0], -sp
    49c4:	002d18b4 	strhteq	r1, [sp], -r4
    49c8:	92050000 	andls	r0, r5, #0
    49cc:	00fd1602 	rscseq	r1, sp, r2, lsl #12
    49d0:	18bc0000 	ldmne	ip!, {}	; <UNPREDICTABLE>
    49d4:	0000003c 	andeq	r0, r0, ip, lsr r0
    49d8:	16029305 	strne	r9, [r2], -r5, lsl #6
    49dc:	000000fd 	strdeq	r0, [r0], -sp
    49e0:	034a18c4 	movteq	r1, #43204	; 0xa8c4
    49e4:	94050000 	strls	r0, [r5], #-0
    49e8:	00250802 	eoreq	r0, r5, r2, lsl #16
    49ec:	00cc0000 	sbceq	r0, ip, r0
    49f0:	00011d0a 	andeq	r1, r1, sl, lsl #26
    49f4:	00080e00 	andeq	r0, r8, r0, lsl #28
    49f8:	002c0b00 	eoreq	r0, ip, r0, lsl #22
    49fc:	00190000 	andseq	r0, r9, r0
    4a00:	00011d0a 	andeq	r1, r1, sl, lsl #26
    4a04:	00081e00 	andeq	r1, r8, r0, lsl #28
    4a08:	002c0b00 	eoreq	r0, ip, r0, lsl #22
    4a0c:	00070000 	andeq	r0, r7, r0
    4a10:	00011d0a 	andeq	r1, r1, sl, lsl #26
    4a14:	00082e00 	andeq	r2, r8, r0, lsl #28
    4a18:	002c0b00 	eoreq	r0, ip, r0, lsl #22
    4a1c:	00170000 	andseq	r0, r7, r0
    4a20:	9905f01b 	stmdbls	r5, {r0, r1, r3, r4, ip, sp, lr, pc}
    4a24:	08550702 	ldmdaeq	r5, {r1, r8, r9, sl}^
    4a28:	76180000 	ldrvc	r0, [r8], -r0
    4a2c:	05000002 	streq	r0, [r0, #-2]
    4a30:	551b029c 	ldrpl	r0, [fp, #-668]	; 0xfffffd64
    4a34:	00000008 	andeq	r0, r0, r8
    4a38:	00049818 	andeq	r9, r4, r8, lsl r8
    4a3c:	029d0500 	addseq	r0, sp, #0, 10
    4a40:	00086518 	andeq	r6, r8, r8, lsl r5
    4a44:	0a007800 	beq	22a4c <__bss_end__+0x18aec>
    4a48:	00000305 	andeq	r0, r0, r5, lsl #6
    4a4c:	00000865 	andeq	r0, r0, r5, ror #16
    4a50:	00002c0b 	andeq	r2, r0, fp, lsl #24
    4a54:	0a001d00 	beq	be5c <__bss_end__+0x1efc>
    4a58:	0000002c 	andeq	r0, r0, ip, lsr #32
    4a5c:	00000875 	andeq	r0, r0, r5, ror r8
    4a60:	00002c0b 	andeq	r2, r0, fp, lsl #24
    4a64:	1c001d00 	stcne	13, cr1, [r0], {-0}
    4a68:	027e05f0 	rsbseq	r0, lr, #240, 10	; 0x3c000000
    4a6c:	00089a03 	andeq	r9, r8, r3, lsl #20
    4a70:	03e41d00 	mvneq	r1, #0, 26
    4a74:	95050000 	strls	r0, [r5, #-0]
    4a78:	06e90b02 	strbteq	r0, [r9], r2, lsl #22
    4a7c:	c31d0000 	tstgt	sp, #0
    4a80:	05000004 	streq	r0, [r0, #-4]
    4a84:	2e0b029e 	mcrcs	2, 0, r0, cr11, cr14, {4}
    4a88:	00000008 	andeq	r0, r0, r8
    4a8c:	00011d0a 	andeq	r1, r1, sl, lsl #26
    4a90:	0008aa00 	andeq	sl, r8, r0, lsl #20
    4a94:	002c0b00 	eoreq	r0, ip, r0, lsl #22
    4a98:	00180000 	andseq	r0, r8, r0
    4a9c:	00007506 	andeq	r7, r0, r6, lsl #10
    4aa0:	aa040500 	bge	105ea8 <__bss_end__+0xfbf48>
    4aa4:	1e000008 	cdpne	0, 0, cr0, cr0, cr8, {0}
    4aa8:	000008c0 	andeq	r0, r0, r0, asr #17
    4aac:	00046c16 	andeq	r6, r4, r6, lsl ip
    4ab0:	04050000 	streq	r0, [r5], #-0
    4ab4:	000008b5 			; <UNDEFINED> instruction: 0x000008b5
    4ab8:	018f0405 	orreq	r0, pc, r5, lsl #8
    4abc:	d71e0000 	ldrle	r0, [lr, -r0]
    4ac0:	16000008 	strne	r0, [r0], -r8
    4ac4:	00000025 	andeq	r0, r0, r5, lsr #32
    4ac8:	dd040500 	cfstr32le	mvfx0, [r4, #-0]
    4acc:	05000008 	streq	r0, [r0, #-8]
    4ad0:	0008cc04 	andeq	ip, r8, r4, lsl #24
    4ad4:	064e0a00 	strbeq	r0, [lr], -r0, lsl #20
    4ad8:	08f30000 	ldmeq	r3!, {}^	; <UNPREDICTABLE>
    4adc:	2c0b0000 	stccs	0, cr0, [fp], {-0}
    4ae0:	02000000 	andeq	r0, r0, #0
    4ae4:	045c1f00 	ldrbeq	r1, [ip], #-3840	; 0xfffff100
    4ae8:	2e050000 	cdpcs	0, 0, cr0, cr5, cr0, {0}
    4aec:	046c1703 	strbteq	r1, [ip], #-1795	; 0xfffff8fd
    4af0:	551f0000 	ldrpl	r0, [pc, #-0]	; 4af8 <_start-0x3508>
    4af4:	05000004 	streq	r0, [r0, #-4]
    4af8:	721d032f 	andsvc	r0, sp, #-1140850688	; 0xbc000000
    4afc:	15000004 	strne	r0, [r0, #-4]
    4b00:	00000025 	andeq	r0, r0, r5, lsr #32
    4b04:	0000091c 	andeq	r0, r0, ip, lsl r9
    4b08:	00002516 	andeq	r2, r0, r6, lsl r5
    4b0c:	c9200000 	stmdbgt	r0!, {}	; <UNPREDICTABLE>
    4b10:	06000001 	streq	r0, [r0], -r1
    4b14:	09280e1d 	stmdbeq	r8!, {r0, r2, r3, r4, r9, sl, fp}
    4b18:	04050000 	streq	r0, [r5], #-0
    4b1c:	0000090d 	andeq	r0, r0, sp, lsl #18
    4b20:	00002515 	andeq	r2, r0, r5, lsl r5
    4b24:	00093d00 	andeq	r3, r9, r0, lsl #26
    4b28:	05e41600 	strbeq	r1, [r4, #1536]!	; 0x600
    4b2c:	20000000 	andcs	r0, r0, r0
    4b30:	00000768 	andeq	r0, r0, r8, ror #14
    4b34:	490e2206 	stmdbmi	lr, {r1, r2, r9, sp}
    4b38:	05000009 	streq	r0, [r0, #-9]
    4b3c:	00092e04 	andeq	r2, r9, r4, lsl #28
    4b40:	091c2100 	ldmdbeq	ip, {r8, sp}
    4b44:	06010000 	streq	r0, [r1], -r0
    4b48:	c8030507 	stmdagt	r3, {r0, r1, r2, r8, sl}
    4b4c:	22000095 	andcs	r0, r0, #149	; 0x95
    4b50:	00000728 	andeq	r0, r0, r8, lsr #14
    4b54:	7c060b01 			; <UNDEFINED> instruction: 0x7c060b01
    4b58:	1000008a 	andne	r0, r0, sl, lsl #1
    4b5c:	01000000 	mrseq	r0, (UNDEF: 0)
    4b60:	0009819c 	muleq	r9, ip, r1
    4b64:	70662300 	rsbvc	r2, r6, r0, lsl #6
    4b68:	190b0100 	stmdbne	fp, {r8}
    4b6c:	00000928 	andeq	r0, r0, r8, lsr #18
    4b70:	24005001 	strcs	r5, [r0], #-1
    4b74:	000005a0 	andeq	r0, r0, r0, lsr #11
    4b78:	64060801 	strvs	r0, [r6], #-2049	; 0xfffff7ff
    4b7c:	1800008a 	stmdane	r0, {r1, r3, r7}
    4b80:	01000000 	mrseq	r0, (UNDEF: 0)
    4b84:	073f259c 			; <UNDEFINED> instruction: 0x073f259c
    4b88:	03010000 	movweq	r0, #4096	; 0x1000
    4b8c:	0000250c 	andeq	r2, r0, ip, lsl #10
    4b90:	008a5000 	addeq	r5, sl, r0
    4b94:	00001400 	andeq	r1, r0, r0, lsl #8
    4b98:	d09c0100 	addsle	r0, ip, r0, lsl #2
    4b9c:	26000009 	strcs	r0, [r0], -r9
    4ba0:	03010063 	movweq	r0, #4195	; 0x1063
    4ba4:	00002521 	andeq	r2, r0, r1, lsr #10
    4ba8:	000a7900 	andeq	r7, sl, r0, lsl #18
    4bac:	000a7500 	andeq	r7, sl, r0, lsl #10
    4bb0:	8a5c2700 	bhi	170e7b8 <__bss_end__+0x1704858>
    4bb4:	09d00000 	ldmibeq	r0, {}^	; <UNPREDICTABLE>
    4bb8:	01280000 			; <UNDEFINED> instruction: 0x01280000
    4bbc:	00740250 	rsbseq	r0, r4, r0, asr r2
    4bc0:	35290000 	strcc	r0, [r9, #-0]!
    4bc4:	35000007 	strcc	r0, [r0, #-7]
    4bc8:	06000007 	streq	r0, [r0], -r7
    4bcc:	8300063c 	movwhi	r0, #1596	; 0x63c
    4bd0:	04000009 	streq	r0, [r0], #-9
    4bd4:	000ea900 	andeq	sl, lr, r0, lsl #18
    4bd8:	cb010400 	blgt	45be0 <__bss_end__+0x3bc80>
    4bdc:	0c000002 	stceq	0, cr0, [r0], {2}
    4be0:	0000076d 	andeq	r0, r0, sp, ror #14
    4be4:	000006c1 	andeq	r0, r0, r1, asr #13
    4be8:	00008a8c 	andeq	r8, r0, ip, lsl #21
    4bec:	00000034 	andeq	r0, r0, r4, lsr r0
    4bf0:	00000dc4 	andeq	r0, r0, r4, asr #27
    4bf4:	69050402 	stmdbvs	r5, {r1, sl}
    4bf8:	0300746e 	movweq	r7, #1134	; 0x46e
    4bfc:	00570704 	subseq	r0, r7, r4, lsl #14
    4c00:	01030000 	mrseq	r0, (UNDEF: 3)
    4c04:	0002ba06 	andeq	fp, r2, r6, lsl #20
    4c08:	05020300 	streq	r0, [r2, #-768]	; 0xfffffd00
    4c0c:	00000353 	andeq	r0, r0, r3, asr r3
    4c10:	9d050403 	cfstrsls	mvf0, [r5, #-12]
    4c14:	03000000 	movweq	r0, #0
    4c18:	00980508 	addseq	r0, r8, r8, lsl #10
    4c1c:	01030000 	mrseq	r0, (UNDEF: 3)
    4c20:	0002b808 	andeq	fp, r2, r8, lsl #16
    4c24:	07020300 	streq	r0, [r2, -r0, lsl #6]
    4c28:	0000020b 	andeq	r0, r0, fp, lsl #4
    4c2c:	52070403 	andpl	r0, r7, #50331648	; 0x3000000
    4c30:	03000000 	movweq	r0, #0
    4c34:	004d0708 	subeq	r0, sp, r8, lsl #14
    4c38:	4e040000 	cdpmi	0, 0, cr0, cr4, cr0, {0}
    4c3c:	02000002 	andeq	r0, r0, #2
    4c40:	00771922 	rsbseq	r1, r7, r2, lsr #18
    4c44:	04050000 	streq	r0, [r5], #-0
    4c48:	0000007d 	andeq	r0, r0, sp, ror r0
    4c4c:	0003f906 	andeq	pc, r3, r6, lsl #18
    4c50:	02990400 	addseq	r0, r9, #0, 8
    4c54:	2c030000 	stccs	0, cr0, [r3], {-0}
    4c58:	0000410e 	andeq	r4, r0, lr, lsl #2
    4c5c:	040e0400 	streq	r0, [lr], #-1024	; 0xfffffc00
    4c60:	72030000 	andvc	r0, r3, #0
    4c64:	0000410e 	andeq	r4, r0, lr, lsl #2
    4c68:	02560700 	subseq	r0, r6, #0, 14
    4c6c:	5e040000 	cdppl	0, 0, cr0, cr4, cr0, {0}
    4c70:	002c1701 	eoreq	r1, ip, r1, lsl #14
    4c74:	04080000 	streq	r0, [r8], #-0
    4c78:	c903a603 	stmdbgt	r3, {r0, r1, r9, sl, sp, pc}
    4c7c:	09000000 	stmdbeq	r0, {}	; <UNPREDICTABLE>
    4c80:	00000248 	andeq	r0, r0, r8, asr #4
    4c84:	9a0ca803 	bls	32ec98 <__bss_end__+0x324d38>
    4c88:	09000000 	stmdbeq	r0, {}	; <UNPREDICTABLE>
    4c8c:	000001da 	ldrdeq	r0, [r0], -sl
    4c90:	c913a903 	ldmdbgt	r3, {r0, r1, r8, fp, sp, pc}
    4c94:	00000000 	andeq	r0, r0, r0
    4c98:	00004f0a 	andeq	r4, r0, sl, lsl #30
    4c9c:	0000d900 	andeq	sp, r0, r0, lsl #18
    4ca0:	002c0b00 	eoreq	r0, ip, r0, lsl #22
    4ca4:	00030000 	andeq	r0, r3, r0
    4ca8:	a303080c 	movwge	r0, #14348	; 0x380c
    4cac:	0000fd09 	andeq	pc, r0, r9, lsl #26
    4cb0:	03f10d00 	mvnseq	r0, #0, 26
    4cb4:	a5030000 	strge	r0, [r3, #-0]
    4cb8:	00002507 	andeq	r2, r0, r7, lsl #10
    4cbc:	000d0000 	andeq	r0, sp, r0
    4cc0:	03000004 	movweq	r0, #4
    4cc4:	00a705aa 	adceq	r0, r7, sl, lsr #11
    4cc8:	00040000 	andeq	r0, r4, r0
    4ccc:	00037b04 	andeq	r7, r3, r4, lsl #22
    4cd0:	03ab0300 			; <UNDEFINED> instruction: 0x03ab0300
    4cd4:	000000d9 	ldrdeq	r0, [r0], -r9
    4cd8:	00019704 	andeq	r9, r1, r4, lsl #14
    4cdc:	1baf0300 	blne	febc58e4 <__bss_end__+0xfebbb984>
    4ce0:	0000006b 	andeq	r0, r0, fp, rrx
    4ce4:	0405040e 	streq	r0, [r5], #-1038	; 0xfffffbf2
    4ce8:	0000011d 	andeq	r0, r0, sp, lsl r1
    4cec:	c1080103 	tstgt	r8, r3, lsl #2
    4cf0:	0f000002 	svceq	0x00000002
    4cf4:	0000011d 	andeq	r0, r0, sp, lsl r1
    4cf8:	00044004 	andeq	r4, r4, r4
    4cfc:	19160500 	ldmdbne	r6, {r8, sl}
    4d00:	0000005d 	andeq	r0, r0, sp, asr r0
    4d04:	0001a810 	andeq	sl, r1, r0, lsl r8
    4d08:	2f051800 	svccs	0x00051800
    4d0c:	00018f08 	andeq	r8, r1, r8, lsl #30
    4d10:	039c0d00 	orrseq	r0, ip, #0, 26
    4d14:	31050000 	mrscc	r0, (UNDEF: 5)
    4d18:	00018f13 	andeq	r8, r1, r3, lsl pc
    4d1c:	5f110000 	svcpl	0x00110000
    4d20:	3205006b 	andcc	r0, r5, #107	; 0x6b
    4d24:	00002507 	andeq	r2, r0, r7, lsl #10
    4d28:	dc0d0400 	cfstrsle	mvf0, [sp], {-0}
    4d2c:	05000003 	streq	r0, [r0, #-3]
    4d30:	00250b32 	eoreq	r0, r5, r2, lsr fp
    4d34:	0d080000 	stceq	0, cr0, [r8, #-0]
    4d38:	00000191 	muleq	r0, r1, r1
    4d3c:	25143205 	ldrcs	r3, [r4, #-517]	; 0xfffffdfb
    4d40:	0c000000 	stceq	0, cr0, [r0], {-0}
    4d44:	00047c0d 	andeq	r7, r4, sp, lsl #24
    4d48:	1b320500 	blne	c86150 <__bss_end__+0xc7c1f0>
    4d4c:	00000025 	andeq	r0, r0, r5, lsr #32
    4d50:	785f1110 	ldmdavc	pc, {r4, r8, ip}^	; <UNPREDICTABLE>
    4d54:	0b330500 	bleq	cc615c <__bss_end__+0xcbc1fc>
    4d58:	00000195 	muleq	r0, r5, r1
    4d5c:	04050014 	streq	r0, [r5], #-20	; 0xffffffec
    4d60:	00000135 	andeq	r0, r0, r5, lsr r1
    4d64:	0001290a 	andeq	r2, r1, sl, lsl #18
    4d68:	0001a500 	andeq	sl, r1, r0, lsl #10
    4d6c:	002c0b00 	eoreq	r0, ip, r0, lsl #22
    4d70:	00000000 	andeq	r0, r0, r0
    4d74:	0001d510 	andeq	sp, r1, r0, lsl r5
    4d78:	37052400 	strcc	r2, [r5, -r0, lsl #8]
    4d7c:	00022808 	andeq	r2, r2, r8, lsl #16
    4d80:	008f0d00 	addeq	r0, pc, r0, lsl #26
    4d84:	39050000 	stmdbcc	r5, {}	; <UNPREDICTABLE>
    4d88:	00002509 	andeq	r2, r0, r9, lsl #10
    4d8c:	160d0000 	strne	r0, [sp], -r0
    4d90:	05000004 	streq	r0, [r0, #-4]
    4d94:	0025093a 	eoreq	r0, r5, sl, lsr r9
    4d98:	0d040000 	stceq	0, cr0, [r4, #-0]
    4d9c:	000000b2 	strheq	r0, [r0], -r2
    4da0:	25093b05 	strcs	r3, [r9, #-2821]	; 0xfffff4fb
    4da4:	08000000 	stmdaeq	r0, {}	; <UNPREDICTABLE>
    4da8:	0005040d 	andeq	r0, r5, sp, lsl #8
    4dac:	093c0500 	ldmdbeq	ip!, {r8, sl}
    4db0:	00000025 	andeq	r0, r0, r5, lsr #32
    4db4:	027d0d0c 	rsbseq	r0, sp, #12, 26	; 0x300
    4db8:	3d050000 	stccc	0, cr0, [r5, #-0]
    4dbc:	00002509 	andeq	r2, r0, r9, lsl #10
    4dc0:	6c0d1000 	stcvs	0, cr1, [sp], {-0}
    4dc4:	05000002 	streq	r0, [r0, #-2]
    4dc8:	0025093e 	eoreq	r0, r5, lr, lsr r9
    4dcc:	0d140000 	ldceq	0, cr0, [r4, #-0]
    4dd0:	00000481 	andeq	r0, r0, r1, lsl #9
    4dd4:	25093f05 	strcs	r3, [r9, #-3845]	; 0xfffff0fb
    4dd8:	18000000 	stmdane	r0, {}	; <UNPREDICTABLE>
    4ddc:	00035d0d 	andeq	r5, r3, sp, lsl #26
    4de0:	09400500 	stmdbeq	r0, {r8, sl}^
    4de4:	00000025 	andeq	r0, r0, r5, lsr #32
    4de8:	04cb0d1c 	strbeq	r0, [fp], #3356	; 0xd1c
    4dec:	41050000 	mrsmi	r0, (UNDEF: 5)
    4df0:	00002509 	andeq	r2, r0, r9, lsl #10
    4df4:	12002000 	andne	r2, r0, #0
    4df8:	000000f2 	strdeq	r0, [r0], -r2
    4dfc:	4a050108 	bmi	145224 <__bss_end__+0x13b2c4>
    4e00:	00026d08 	andeq	r6, r2, r8, lsl #26
    4e04:	01840d00 	orreq	r0, r4, r0, lsl #26
    4e08:	4b050000 	blmi	144e10 <__bss_end__+0x13aeb0>
    4e0c:	00026d0a 	andeq	r6, r2, sl, lsl #26
    4e10:	000d0000 	andeq	r0, sp, r0
    4e14:	05000000 	streq	r0, [r0, #-0]
    4e18:	026d094c 	rsbeq	r0, sp, #76, 18	; 0x130000
    4e1c:	13800000 	orrne	r0, r0, #0
    4e20:	00000432 	andeq	r0, r0, r2, lsr r4
    4e24:	290a4e05 	stmdbcs	sl, {r0, r2, r9, sl, fp, lr}
    4e28:	00000001 	andeq	r0, r0, r1
    4e2c:	01171301 	tsteq	r7, r1, lsl #6
    4e30:	51050000 	mrspl	r0, (UNDEF: 5)
    4e34:	0001290a 	andeq	r2, r1, sl, lsl #18
    4e38:	00010400 	andeq	r0, r1, r0, lsl #8
    4e3c:	0001150a 	andeq	r1, r1, sl, lsl #10
    4e40:	00027d00 	andeq	r7, r2, r0, lsl #26
    4e44:	002c0b00 	eoreq	r0, ip, r0, lsl #22
    4e48:	001f0000 	andseq	r0, pc, r0
    4e4c:	00028612 	andeq	r8, r2, r2, lsl r6
    4e50:	05019000 	streq	r9, [r1, #-0]
    4e54:	02c0085d 	sbceq	r0, r0, #6094848	; 0x5d0000
    4e58:	9c0d0000 	stcls	0, cr0, [sp], {-0}
    4e5c:	05000003 	streq	r0, [r0, #-3]
    4e60:	02c0125e 	sbceq	r1, r0, #-536870907	; 0xe0000005
    4e64:	0d000000 	stceq	0, cr0, [r0, #-0]
    4e68:	000003b4 			; <UNDEFINED> instruction: 0x000003b4
    4e6c:	25065f05 	strcs	r5, [r6, #-3845]	; 0xfffff0fb
    4e70:	04000000 	streq	r0, [r0], #-0
    4e74:	00018c0d 	andeq	r8, r1, sp, lsl #24
    4e78:	09610500 	stmdbeq	r1!, {r8, sl}^
    4e7c:	000002c6 	andeq	r0, r0, r6, asr #5
    4e80:	00f20d08 	rscseq	r0, r2, r8, lsl #26
    4e84:	62050000 	andvs	r0, r5, #0
    4e88:	0002281e 	andeq	r2, r2, lr, lsl r8
    4e8c:	05008800 	streq	r8, [r0, #-2048]	; 0xfffff800
    4e90:	00027d04 	andeq	r7, r2, r4, lsl #26
    4e94:	02d60a00 	sbcseq	r0, r6, #0, 20
    4e98:	02d60000 	sbcseq	r0, r6, #0
    4e9c:	2c0b0000 	stccs	0, cr0, [fp], {-0}
    4ea0:	1f000000 	svcne	0x00000000
    4ea4:	dc040500 	cfstr32le	mvfx0, [r4], {-0}
    4ea8:	14000002 	strne	r0, [r0], #-2
    4eac:	00036710 	andeq	r6, r3, r0, lsl r7
    4eb0:	75050800 	strvc	r0, [r5, #-2048]	; 0xfffff800
    4eb4:	00030508 	andeq	r0, r3, r8, lsl #10
    4eb8:	00ac0d00 	adceq	r0, ip, r0, lsl #26
    4ebc:	76050000 	strvc	r0, [r5], -r0
    4ec0:	00030511 	andeq	r0, r3, r1, lsl r5
    4ec4:	0c0d0000 	stceq	0, cr0, [sp], {-0}
    4ec8:	05000000 	streq	r0, [r0, #-0]
    4ecc:	00250677 	eoreq	r0, r5, r7, ror r6
    4ed0:	00040000 	andeq	r0, r4, r0
    4ed4:	004f0405 	subeq	r0, pc, r5, lsl #8
    4ed8:	86100000 	ldrhi	r0, [r0], -r0
    4edc:	68000003 	stmdavs	r0, {r0, r1}
    4ee0:	4e08b505 	cfsh32mi	mvfx11, mvfx8, #5
    4ee4:	11000004 	tstne	r0, r4
    4ee8:	0500705f 	streq	r7, [r0, #-95]	; 0xffffffa1
    4eec:	030512b6 	movweq	r1, #21174	; 0x52b6
    4ef0:	11000000 	mrsne	r0, (UNDEF: 0)
    4ef4:	0500725f 	streq	r7, [r0, #-607]	; 0xfffffda1
    4ef8:	002507b7 	strhteq	r0, [r5], -r7
    4efc:	11040000 	mrsne	r0, (UNDEF: 4)
    4f00:	0500775f 	streq	r7, [r0, #-1887]	; 0xfffff8a1
    4f04:	002507b8 	strhteq	r0, [r5], -r8
    4f08:	0d080000 	stceq	0, cr0, [r8, #-0]
    4f0c:	00000110 	andeq	r0, r0, r0, lsl r1
    4f10:	3a09b905 	bcc	27332c <__bss_end__+0x2693cc>
    4f14:	0c000000 	stceq	0, cr0, [r0], {-0}
    4f18:	0001f10d 	andeq	pc, r1, sp, lsl #2
    4f1c:	09ba0500 	ldmibeq	sl!, {r8, sl}
    4f20:	0000003a 	andeq	r0, r0, sl, lsr r0
    4f24:	625f110e 	subsvs	r1, pc, #-2147483645	; 0x80000003
    4f28:	bb050066 	bllt	1450c8 <__bss_end__+0x13b168>
    4f2c:	0002dd11 	andeq	sp, r2, r1, lsl sp
    4f30:	6c0d1000 	stcvs	0, cr1, [sp], {-0}
    4f34:	05000000 	streq	r0, [r0, #-0]
    4f38:	002507bc 	strhteq	r0, [r5], -ip
    4f3c:	0d180000 	ldceq	0, cr0, [r8, #-0]
    4f40:	00000100 	andeq	r0, r0, r0, lsl #2
    4f44:	150ac305 	strne	ip, [sl, #-773]	; 0xfffffcfb
    4f48:	1c000001 	stcne	0, cr0, [r0], {1}
    4f4c:	000b240d 	andeq	r2, fp, sp, lsl #8
    4f50:	1dc50500 	cfstr64ne	mvdx0, [r5]
    4f54:	000005c0 	andeq	r0, r0, r0, asr #11
    4f58:	06190d20 	ldreq	r0, [r9], -r0, lsr #26
    4f5c:	c7050000 	strgt	r0, [r5, -r0]
    4f60:	0005ea1d 	andeq	lr, r5, sp, lsl sl
    4f64:	080d2400 	stmdaeq	sp, {sl, sp}
    4f68:	05000004 	streq	r0, [r0, #-4]
    4f6c:	060e0dca 	streq	r0, [lr], -sl, asr #27
    4f70:	0d280000 	stceq	0, cr0, [r8, #-0]
    4f74:	000004e5 	andeq	r0, r0, r5, ror #9
    4f78:	2809cb05 	stmdacs	r9, {r0, r2, r8, r9, fp, lr, pc}
    4f7c:	2c000006 	stccs	0, cr0, [r0], {6}
    4f80:	62755f11 	rsbsvs	r5, r5, #17, 30	; 0x44
    4f84:	11ce0500 	bicne	r0, lr, r0, lsl #10
    4f88:	000002dd 	ldrdeq	r0, [r0], -sp
    4f8c:	755f1130 	ldrbvc	r1, [pc, #-304]	; 4e64 <_start-0x319c>
    4f90:	cf050070 	svcgt	0x00050070
    4f94:	00030512 	andeq	r0, r3, r2, lsl r5
    4f98:	5f113800 	svcpl	0x00113800
    4f9c:	05007275 	streq	r7, [r0, #-629]	; 0xfffffd8b
    4fa0:	002507d0 	ldrdeq	r0, [r5], -r0	; <UNPREDICTABLE>
    4fa4:	0d3c0000 	ldceq	0, cr0, [ip, #-0]
    4fa8:	000000a6 	andeq	r0, r0, r6, lsr #1
    4fac:	2e11d305 	cdpcs	3, 1, cr13, cr1, cr5, {0}
    4fb0:	40000006 	andmi	r0, r0, r6
    4fb4:	0004bd0d 	andeq	fp, r4, sp, lsl #26
    4fb8:	11d40500 	bicsne	r0, r4, r0, lsl #10
    4fbc:	0000063e 	andeq	r0, r0, lr, lsr r6
    4fc0:	6c5f1143 	ldfvse	f1, [pc], {67}	; 0x43
    4fc4:	d7050062 	strle	r0, [r5, -r2, rrx]
    4fc8:	0002dd11 	andeq	sp, r2, r1, lsl sp
    4fcc:	350d4400 	strcc	r4, [sp, #-1024]	; 0xfffffc00
    4fd0:	05000001 	streq	r0, [r0, #-1]
    4fd4:	002507da 	ldrdeq	r0, [r5], -sl	; <UNPREDICTABLE>
    4fd8:	0d4c0000 	stcleq	0, cr0, [ip, #-0]
    4fdc:	00000146 	andeq	r0, r0, r6, asr #2
    4fe0:	820adb05 	andhi	sp, sl, #5120	; 0x1400
    4fe4:	50000000 	andpl	r0, r0, r0
    4fe8:	000ac50d 	andeq	ip, sl, sp, lsl #10
    4fec:	12de0500 	sbcsne	r0, lr, #0, 10
    4ff0:	0000046c 	andeq	r0, r0, ip, ror #8
    4ff4:	03fa0d54 	mvnseq	r0, #84, 26	; 0x1500
    4ff8:	e2050000 	and	r0, r5, #0
    4ffc:	0001090c 	andeq	r0, r1, ip, lsl #18
    5000:	8e0d5800 	cdphi	8, 0, cr5, cr13, cr0, {0}
    5004:	05000003 	streq	r0, [r0, #-3]
    5008:	00fd0ee4 	rscseq	r0, sp, r4, ror #29
    500c:	0d5c0000 	ldcleq	0, cr0, [ip, #-0]
    5010:	00000264 	andeq	r0, r0, r4, ror #4
    5014:	2509e505 	strcs	lr, [r9, #-1285]	; 0xfffffafb
    5018:	64000000 	strvs	r0, [r0], #-0
    501c:	00251500 	eoreq	r1, r5, r0, lsl #10
    5020:	046c0000 	strbteq	r0, [ip], #-0
    5024:	6c160000 	ldcvs	0, cr0, [r6], {-0}
    5028:	16000004 	strne	r0, [r0], -r4
    502c:	00000115 	andeq	r0, r0, r5, lsl r1
    5030:	00011716 	andeq	r1, r1, r6, lsl r7
    5034:	00251600 	eoreq	r1, r5, r0, lsl #12
    5038:	05000000 	streq	r0, [r0, #-0]
    503c:	00047704 	andeq	r7, r4, r4, lsl #14
    5040:	046c0f00 	strbteq	r0, [ip], #-3840	; 0xfffff100
    5044:	e4170000 	ldr	r0, [r7], #-0
    5048:	28000003 	stmdacs	r0, {r0, r1}
    504c:	02600504 	rsbeq	r0, r0, #4, 10	; 0x1000000
    5050:	0005c008 	andeq	ip, r5, r8
    5054:	034c1800 	movteq	r1, #51200	; 0xc800
    5058:	62050000 	andvs	r0, r5, #0
    505c:	00250702 	eoreq	r0, r5, r2, lsl #14
    5060:	18000000 	stmdane	r0, {}	; <UNPREDICTABLE>
    5064:	00000491 	muleq	r0, r1, r4
    5068:	0b026705 	bleq	9ec84 <__bss_end__+0x94d24>
    506c:	0000069a 	muleq	r0, sl, r6
    5070:	01e11804 	mvneq	r1, r4, lsl #16
    5074:	67050000 	strvs	r0, [r5, -r0]
    5078:	069a1402 	ldreq	r1, [sl], r2, lsl #8
    507c:	18080000 	stmdane	r8, {}	; <UNPREDICTABLE>
    5080:	000001a0 	andeq	r0, r0, r0, lsr #3
    5084:	1e026705 	cdpne	7, 0, cr6, cr2, cr5, {0}
    5088:	0000069a 	muleq	r0, sl, r6
    508c:	03af180c 			; <UNDEFINED> instruction: 0x03af180c
    5090:	69050000 	stmdbvs	r5, {}	; <UNPREDICTABLE>
    5094:	00250802 	eoreq	r0, r5, r2, lsl #16
    5098:	18100000 	ldmdane	r0, {}	; <UNPREDICTABLE>
    509c:	0000001a 	andeq	r0, r0, sl, lsl r0
    50a0:	08026a05 	stmdaeq	r2, {r0, r2, r9, fp, sp, lr}
    50a4:	0000089a 	muleq	r0, sl, r8
    50a8:	03c31814 	biceq	r1, r3, #20, 16	; 0x140000
    50ac:	6d050000 	stcvs	0, cr0, [r5, #-0]
    50b0:	00250702 	eoreq	r0, r5, r2, lsl #14
    50b4:	18300000 	ldmdane	r0!, {}	; <UNPREDICTABLE>
    50b8:	00000a01 	andeq	r0, r0, r1, lsl #20
    50bc:	16026e05 	strne	r6, [r2], -r5, lsl #28
    50c0:	000008af 	andeq	r0, r0, pc, lsr #17
    50c4:	028e1834 	addeq	r1, lr, #52, 16	; 0x340000
    50c8:	70050000 	andvc	r0, r5, r0
    50cc:	00250702 	eoreq	r0, r5, r2, lsl #14
    50d0:	18380000 	ldmdane	r8!, {}	; <UNPREDICTABLE>
    50d4:	000003b9 			; <UNDEFINED> instruction: 0x000003b9
    50d8:	0a027205 	beq	a18f4 <__bss_end__+0x97994>
    50dc:	000008c0 	andeq	r0, r0, r0, asr #17
    50e0:	0240183c 	subeq	r1, r0, #60, 16	; 0x3c0000
    50e4:	75050000 	strvc	r0, [r5, #-0]
    50e8:	018f1302 	orreq	r1, pc, r2, lsl #6
    50ec:	18400000 	stmdane	r0, {}^	; <UNPREDICTABLE>
    50f0:	000001bf 			; <UNDEFINED> instruction: 0x000001bf
    50f4:	07027605 	streq	r7, [r2, -r5, lsl #12]
    50f8:	00000025 	andeq	r0, r0, r5, lsr #32
    50fc:	04ff1844 	ldrbteq	r1, [pc], #2116	; 5104 <_start-0x2efc>
    5100:	77050000 	strvc	r0, [r5, -r0]
    5104:	018f1302 	orreq	r1, pc, r2, lsl #6
    5108:	18480000 	stmdane	r8, {}^	; <UNPREDICTABLE>
    510c:	000002a0 	andeq	r0, r0, r0, lsr #5
    5110:	14027805 	strne	r7, [r2], #-2053	; 0xfffff7fb
    5114:	000008c6 	andeq	r0, r0, r6, asr #17
    5118:	01e9184c 	mvneq	r1, ip, asr #16
    511c:	7b050000 	blvc	145124 <__bss_end__+0x13b1c4>
    5120:	00250702 	eoreq	r0, r5, r2, lsl #14
    5124:	18500000 	ldmdane	r0, {}^	; <UNPREDICTABLE>
    5128:	0000013e 	andeq	r0, r0, lr, lsr r1
    512c:	09027c05 	stmdbeq	r2, {r0, r2, sl, fp, ip, sp, lr}
    5130:	00000117 	andeq	r0, r0, r7, lsl r1
    5134:	02c61854 	sbceq	r1, r6, #84, 16	; 0x540000
    5138:	9f050000 	svcls	0x00050000
    513c:	08750702 	ldmdaeq	r5!, {r1, r8, r9, sl}^
    5140:	19580000 	ldmdbne	r8, {}^	; <UNPREDICTABLE>
    5144:	00000286 	andeq	r0, r0, r6, lsl #5
    5148:	1302a305 	movwne	sl, #8965	; 0x2305
    514c:	000002c0 	andeq	r0, r0, r0, asr #5
    5150:	1e190148 	mufneem	f0, f1, #0.0
    5154:	05000002 	streq	r0, [r0, #-2]
    5158:	7d1202a4 	lfmvc	f0, 4, [r2, #-656]	; 0xfffffd70
    515c:	4c000002 	stcmi	0, cr0, [r0], {2}
    5160:	04ab1901 	strteq	r1, [fp], #2305	; 0x901
    5164:	a8050000 	stmdage	r5, {}	; <UNPREDICTABLE>
    5168:	08d70c02 	ldmeq	r7, {r1, sl, fp}^
    516c:	02dc0000 	sbcseq	r0, ip, #0
    5170:	00010819 	andeq	r0, r1, r9, lsl r8
    5174:	02ad0500 	adceq	r0, sp, #0, 10
    5178:	00065b10 	andeq	r5, r6, r0, lsl fp
    517c:	1902e000 	stmdbne	r2, {sp, lr, pc}
    5180:	000000ed 	andeq	r0, r0, sp, ror #1
    5184:	0a02af05 	beq	b0da0 <__bss_end__+0xa6e40>
    5188:	000008e3 	andeq	r0, r0, r3, ror #17
    518c:	050002ec 	streq	r0, [r0, #-748]	; 0xfffffd14
    5190:	00044e04 	andeq	r4, r4, r4, lsl #28
    5194:	00251500 	eoreq	r1, r5, r0, lsl #10
    5198:	05e40000 	strbeq	r0, [r4, #0]!
    519c:	6c160000 	ldcvs	0, cr0, [r6], {-0}
    51a0:	16000004 	strne	r0, [r0], -r4
    51a4:	00000115 	andeq	r0, r0, r5, lsl r1
    51a8:	0005e416 	andeq	lr, r5, r6, lsl r4
    51ac:	00251600 	eoreq	r1, r5, r0, lsl #12
    51b0:	05000000 	streq	r0, [r0, #-0]
    51b4:	00012404 	andeq	r2, r1, r4, lsl #8
    51b8:	c6040500 	strgt	r0, [r4], -r0, lsl #10
    51bc:	15000005 	strne	r0, [r0, #-5]
    51c0:	0000008e 	andeq	r0, r0, lr, lsl #1
    51c4:	0000060e 	andeq	r0, r0, lr, lsl #12
    51c8:	00046c16 	andeq	r6, r4, r6, lsl ip
    51cc:	01151600 	tsteq	r5, r0, lsl #12
    51d0:	8e160000 	cdphi	0, 1, cr0, cr6, cr0, {0}
    51d4:	16000000 	strne	r0, [r0], -r0
    51d8:	00000025 	andeq	r0, r0, r5, lsr #32
    51dc:	f0040500 			; <UNDEFINED> instruction: 0xf0040500
    51e0:	15000005 	strne	r0, [r0, #-5]
    51e4:	00000025 	andeq	r0, r0, r5, lsr #32
    51e8:	00000628 	andeq	r0, r0, r8, lsr #12
    51ec:	00046c16 	andeq	r6, r4, r6, lsl ip
    51f0:	01151600 	tsteq	r5, r0, lsl #12
    51f4:	05000000 	streq	r0, [r0, #-0]
    51f8:	00061404 	andeq	r1, r6, r4, lsl #8
    51fc:	004f0a00 	subeq	r0, pc, r0, lsl #20
    5200:	063e0000 	ldrteq	r0, [lr], -r0
    5204:	2c0b0000 	stccs	0, cr0, [fp], {-0}
    5208:	02000000 	andeq	r0, r0, #0
    520c:	004f0a00 	subeq	r0, pc, r0, lsl #20
    5210:	064e0000 	strbeq	r0, [lr], -r0
    5214:	2c0b0000 	stccs	0, cr0, [fp], {-0}
    5218:	00000000 	andeq	r0, r0, r0
    521c:	03740700 	cmneq	r4, #0, 14
    5220:	1f050000 	svcne	0x00050000
    5224:	030b1a01 	movweq	r1, #47617	; 0xba01
    5228:	8b1a0000 	blhi	685230 <__bss_end__+0x67b2d0>
    522c:	0c000004 	stceq	0, cr0, [r0], {4}
    5230:	08012305 	stmdaeq	r1, {r0, r2, r8, r9, sp}
    5234:	00000694 	muleq	r0, r4, r6
    5238:	00039c18 	andeq	r9, r3, r8, lsl ip
    523c:	01250500 			; <UNDEFINED> instruction: 0x01250500
    5240:	00069411 	andeq	r9, r6, r1, lsl r4
    5244:	04180000 	ldreq	r0, [r8], #-0
    5248:	05000002 	streq	r0, [r0, #-2]
    524c:	25070126 	strcs	r0, [r7, #-294]	; 0xfffffeda
    5250:	04000000 	streq	r0, [r0], #-0
    5254:	00036e18 	andeq	r6, r3, r8, lsl lr
    5258:	01270500 			; <UNDEFINED> instruction: 0x01270500
    525c:	00069a0b 	andeq	r9, r6, fp, lsl #20
    5260:	05000800 	streq	r0, [r0, #-2048]	; 0xfffff800
    5264:	00065b04 	andeq	r5, r6, r4, lsl #22
    5268:	4e040500 	cfsh32mi	mvfx0, mvfx4, #0
    526c:	1a000006 	bne	528c <_start-0x2d74>
    5270:	00000012 	andeq	r0, r0, r2, lsl r0
    5274:	013f050e 	teqeq	pc, lr, lsl #10
    5278:	0006d908 	andeq	sp, r6, r8, lsl #18
    527c:	03eb1800 	mvneq	r1, #0, 16
    5280:	40050000 	andmi	r0, r5, r0
    5284:	06d91201 	ldrbeq	r1, [r9], r1, lsl #4
    5288:	18000000 	stmdane	r0, {}	; <UNPREDICTABLE>
    528c:	0000041f 	andeq	r0, r0, pc, lsl r4
    5290:	12014105 	andne	r4, r1, #1073741825	; 0x40000001
    5294:	000006d9 	ldrdeq	r0, [r0], -r9
    5298:	043b1806 	ldrteq	r1, [fp], #-2054	; 0xfffff7fa
    529c:	42050000 	andmi	r0, r5, #0
    52a0:	00561201 	subseq	r1, r6, r1, lsl #4
    52a4:	000c0000 	andeq	r0, ip, r0
    52a8:	0000560a 	andeq	r5, r0, sl, lsl #12
    52ac:	0006e900 	andeq	lr, r6, r0, lsl #18
    52b0:	002c0b00 	eoreq	r0, ip, r0, lsl #22
    52b4:	00020000 	andeq	r0, r2, r0
    52b8:	8005d01b 	andhi	sp, r5, fp, lsl r0
    52bc:	07fe0702 	ldrbeq	r0, [lr, r2, lsl #14]!
    52c0:	6f180000 	svcvs	0x00180000
    52c4:	05000004 	streq	r0, [r0, #-4]
    52c8:	2c180282 	lfmcs	f0, 4, [r8], {130}	; 0x82
    52cc:	00000000 	andeq	r0, r0, r0
    52d0:	00042518 	andeq	r2, r4, r8, lsl r5
    52d4:	02830500 	addeq	r0, r3, #0, 10
    52d8:	00011712 	andeq	r1, r1, r2, lsl r7
    52dc:	33180400 	tstcc	r8, #0, 8
    52e0:	05000002 	streq	r0, [r0, #-2]
    52e4:	fe100284 	cdp2	2, 1, cr0, cr0, cr4, {4}
    52e8:	08000007 	stmdaeq	r0, {r0, r1, r2}
    52ec:	0004d618 	andeq	sp, r4, r8, lsl r6
    52f0:	02850500 	addeq	r0, r5, #0, 10
    52f4:	0001a517 	andeq	sl, r1, r7, lsl r5
    52f8:	b0182400 	andslt	r2, r8, r0, lsl #8
    52fc:	05000001 	streq	r0, [r0, #-1]
    5300:	250f0286 	strcs	r0, [pc, #-646]	; 5082 <_start-0x2f7e>
    5304:	48000000 	stmdami	r0, {}	; <UNPREDICTABLE>
    5308:	00039718 	andeq	r9, r3, r8, lsl r7
    530c:	02870500 	addeq	r0, r7, #0, 10
    5310:	0000642c 	andeq	r6, r0, ip, lsr #8
    5314:	ec185000 	ldc	0, cr5, [r8], {-0}
    5318:	05000004 	streq	r0, [r0, #-4]
    531c:	a01a0288 	andsge	r0, sl, r8, lsl #5
    5320:	58000006 	stmdapl	r0, {r1, r2}
    5324:	0003a218 	andeq	sl, r3, r8, lsl r2
    5328:	02890500 	addeq	r0, r9, #0, 10
    532c:	0000fd16 	andeq	pc, r0, r6, lsl sp	; <UNPREDICTABLE>
    5330:	f1186800 			; <UNDEFINED> instruction: 0xf1186800
    5334:	05000004 	streq	r0, [r0, #-4]
    5338:	fd16028a 	ldc2	2, cr0, [r6, #-552]	; 0xfffffdd8
    533c:	70000000 	andvc	r0, r0, r0
    5340:	0002aa18 	andeq	sl, r2, r8, lsl sl
    5344:	028b0500 	addeq	r0, fp, #0, 10
    5348:	0000fd16 	andeq	pc, r0, r6, lsl sp	; <UNPREDICTABLE>
    534c:	a1187800 	tstge	r8, r0, lsl #16
    5350:	05000004 	streq	r0, [r0, #-4]
    5354:	0e10028c 	cdpeq	2, 1, cr0, cr0, cr12, {4}
    5358:	80000008 	andhi	r0, r0, r8
    535c:	00022718 	andeq	r2, r2, r8, lsl r7
    5360:	028d0500 	addeq	r0, sp, #0, 10
    5364:	00081e10 	andeq	r1, r8, r0, lsl lr
    5368:	48188800 	ldmdami	r8, {fp, pc}
    536c:	05000004 	streq	r0, [r0, #-4]
    5370:	250f028e 	strcs	r0, [pc, #-654]	; 50ea <_start-0x2f16>
    5374:	a0000000 	andge	r0, r0, r0
    5378:	00017618 	andeq	r7, r1, r8, lsl r6
    537c:	028f0500 	addeq	r0, pc, #0, 10
    5380:	0000fd16 	andeq	pc, r0, r6, lsl sp	; <UNPREDICTABLE>
    5384:	8018a400 	andshi	sl, r8, r0, lsl #8
    5388:	05000000 	streq	r0, [r0, #-0]
    538c:	fd160290 	ldc2	2, cr0, [r6, #-576]	; 0xfffffdc0
    5390:	ac000000 	stcge	0, cr0, [r0], {-0}
    5394:	00016518 	andeq	r6, r1, r8, lsl r5
    5398:	02910500 	addseq	r0, r1, #0, 10
    539c:	0000fd16 	andeq	pc, r0, r6, lsl sp	; <UNPREDICTABLE>
    53a0:	2d18b400 	cfldrscs	mvf11, [r8, #-0]
    53a4:	05000000 	streq	r0, [r0, #-0]
    53a8:	fd160292 	ldc2	2, cr0, [r6, #-584]	; 0xfffffdb8
    53ac:	bc000000 	stclt	0, cr0, [r0], {-0}
    53b0:	00003c18 	andeq	r3, r0, r8, lsl ip
    53b4:	02930500 	addseq	r0, r3, #0, 10
    53b8:	0000fd16 	andeq	pc, r0, r6, lsl sp	; <UNPREDICTABLE>
    53bc:	4a18c400 	bmi	6363c4 <__bss_end__+0x62c464>
    53c0:	05000003 	streq	r0, [r0, #-3]
    53c4:	25080294 	strcs	r0, [r8, #-660]	; 0xfffffd6c
    53c8:	cc000000 	stcgt	0, cr0, [r0], {-0}
    53cc:	011d0a00 	tsteq	sp, r0, lsl #20
    53d0:	080e0000 	stmdaeq	lr, {}	; <UNPREDICTABLE>
    53d4:	2c0b0000 	stccs	0, cr0, [fp], {-0}
    53d8:	19000000 	stmdbne	r0, {}	; <UNPREDICTABLE>
    53dc:	011d0a00 	tsteq	sp, r0, lsl #20
    53e0:	081e0000 	ldmdaeq	lr, {}	; <UNPREDICTABLE>
    53e4:	2c0b0000 	stccs	0, cr0, [fp], {-0}
    53e8:	07000000 	streq	r0, [r0, -r0]
    53ec:	011d0a00 	tsteq	sp, r0, lsl #20
    53f0:	082e0000 	stmdaeq	lr!, {}	; <UNPREDICTABLE>
    53f4:	2c0b0000 	stccs	0, cr0, [fp], {-0}
    53f8:	17000000 	strne	r0, [r0, -r0]
    53fc:	05f01b00 	ldrbeq	r1, [r0, #2816]!	; 0xb00
    5400:	55070299 	strpl	r0, [r7, #-665]	; 0xfffffd67
    5404:	18000008 	stmdane	r0, {r3}
    5408:	00000276 	andeq	r0, r0, r6, ror r2
    540c:	1b029c05 	blne	ac428 <__bss_end__+0xa24c8>
    5410:	00000855 	andeq	r0, r0, r5, asr r8
    5414:	04981800 	ldreq	r1, [r8], #2048	; 0x800
    5418:	9d050000 	stcls	0, cr0, [r5, #-0]
    541c:	08651802 	stmdaeq	r5!, {r1, fp, ip}^
    5420:	00780000 	rsbseq	r0, r8, r0
    5424:	0003050a 	andeq	r0, r3, sl, lsl #10
    5428:	00086500 	andeq	r6, r8, r0, lsl #10
    542c:	002c0b00 	eoreq	r0, ip, r0, lsl #22
    5430:	001d0000 	andseq	r0, sp, r0
    5434:	00002c0a 	andeq	r2, r0, sl, lsl #24
    5438:	00087500 	andeq	r7, r8, r0, lsl #10
    543c:	002c0b00 	eoreq	r0, ip, r0, lsl #22
    5440:	001d0000 	andseq	r0, sp, r0
    5444:	7e05f01c 	mcrvc	0, 0, pc, cr5, cr12, {0}	; <UNPREDICTABLE>
    5448:	089a0302 	ldmeq	sl, {r1, r8, r9}
    544c:	e41d0000 	ldr	r0, [sp], #-0
    5450:	05000003 	streq	r0, [r0, #-3]
    5454:	e90b0295 	stmdb	fp, {r0, r2, r4, r7, r9}
    5458:	1d000006 	stcne	0, cr0, [r0, #-24]	; 0xffffffe8
    545c:	000004c3 	andeq	r0, r0, r3, asr #9
    5460:	0b029e05 	bleq	acc7c <__bss_end__+0xa2d1c>
    5464:	0000082e 	andeq	r0, r0, lr, lsr #16
    5468:	011d0a00 	tsteq	sp, r0, lsl #20
    546c:	08aa0000 	stmiaeq	sl!, {}	; <UNPREDICTABLE>
    5470:	2c0b0000 	stccs	0, cr0, [fp], {-0}
    5474:	18000000 	stmdane	r0, {}	; <UNPREDICTABLE>
    5478:	00750600 	rsbseq	r0, r5, r0, lsl #12
    547c:	04050000 	streq	r0, [r5], #-0
    5480:	000008aa 	andeq	r0, r0, sl, lsr #17
    5484:	0008c01e 	andeq	ip, r8, lr, lsl r0
    5488:	046c1600 	strbteq	r1, [ip], #-1536	; 0xfffffa00
    548c:	05000000 	streq	r0, [r0, #-0]
    5490:	0008b504 	andeq	fp, r8, r4, lsl #10
    5494:	8f040500 	svchi	0x00040500
    5498:	1e000001 	cdpne	0, 0, cr0, cr0, cr1, {0}
    549c:	000008d7 	ldrdeq	r0, [r0], -r7
    54a0:	00002516 	andeq	r2, r0, r6, lsl r5
    54a4:	04050000 	streq	r0, [r5], #-0
    54a8:	000008dd 	ldrdeq	r0, [r0], -sp
    54ac:	08cc0405 	stmiaeq	ip, {r0, r2, sl}^
    54b0:	4e0a0000 	cdpmi	0, 0, cr0, cr10, cr0, {0}
    54b4:	f3000006 	vhadd.u8	d0, d0, d6
    54b8:	0b000008 	bleq	54e0 <_start-0x2b20>
    54bc:	0000002c 	andeq	r0, r0, ip, lsr #32
    54c0:	5c1f0002 	ldcpl	0, cr0, [pc], {2}
    54c4:	05000004 	streq	r0, [r0, #-4]
    54c8:	6c17032e 	ldcvs	3, cr0, [r7], {46}	; 0x2e
    54cc:	1f000004 	svcne	0x00000004
    54d0:	00000455 	andeq	r0, r0, r5, asr r4
    54d4:	1d032f05 	stcne	15, cr2, [r3, #-20]	; 0xffffffec
    54d8:	00000472 	andeq	r0, r0, r2, ror r4
    54dc:	00002515 	andeq	r2, r0, r5, lsl r5
    54e0:	00091c00 	andeq	r1, r9, r0, lsl #24
    54e4:	00251600 	eoreq	r1, r5, r0, lsl #12
    54e8:	20000000 	andcs	r0, r0, r0
    54ec:	000001c9 	andeq	r0, r0, r9, asr #3
    54f0:	280e1d06 	stmdacs	lr, {r1, r2, r8, sl, fp, ip}
    54f4:	05000009 	streq	r0, [r0, #-9]
    54f8:	00090d04 	andeq	r0, r9, r4, lsl #26
    54fc:	00251500 	eoreq	r1, r5, r0, lsl #10
    5500:	093d0000 	ldmdbeq	sp!, {}	; <UNPREDICTABLE>
    5504:	e4160000 	ldr	r0, [r6], #-0
    5508:	00000005 	andeq	r0, r0, r5
    550c:	00076820 	andeq	r6, r7, r0, lsr #16
    5510:	0e220600 	cfmadda32eq	mvax0, mvax0, mvfx2, mvfx0
    5514:	00000949 	andeq	r0, r0, r9, asr #18
    5518:	092e0405 	stmdbeq	lr!, {r0, r2, sl}
    551c:	3d210000 	stccc	0, cr0, [r1, #-0]
    5520:	01000009 	tsteq	r0, r9
    5524:	0305070c 	movweq	r0, #22284	; 0x570c
    5528:	000095cc 	andeq	r9, r0, ip, asr #11
    552c:	00075f22 	andeq	r5, r7, r2, lsr #30
    5530:	05040100 	streq	r0, [r4, #-256]	; 0xffffff00
    5534:	00000025 	andeq	r0, r0, r5, lsr #32
    5538:	00008a8c 	andeq	r8, r0, ip, lsl #21
    553c:	00000034 	andeq	r0, r0, r4, lsr r0
    5540:	70239c01 	eorvc	r9, r3, r1, lsl #24
    5544:	1f040100 	svcne	0x00040100
    5548:	000005e4 	andeq	r0, r0, r4, ror #11
    554c:	00000a9b 	muleq	r0, fp, sl
    5550:	00000a97 	muleq	r0, r7, sl
    5554:	0fa00000 	svceq	0x00a00000
    5558:	00040000 	andeq	r0, r4, r0
    555c:	0000109d 	muleq	r0, sp, r0
    5560:	02cb0104 	sbceq	r0, fp, #4, 2
    5564:	790c0000 	stmdbvc	ip, {}	; <UNPREDICTABLE>
    5568:	c1000007 	tstgt	r0, r7
    556c:	c0000006 	andgt	r0, r0, r6
    5570:	2000008a 	andcs	r0, r0, sl, lsl #1
    5574:	da000005 	ble	5590 <_start-0x2a70>
    5578:	0200000e 	andeq	r0, r0, #14
    557c:	6e690504 	cdpvs	5, 6, cr0, cr9, cr4, {0}
    5580:	04030074 	streq	r0, [r3], #-116	; 0xffffff8c
    5584:	00005707 	andeq	r5, r0, r7, lsl #14
    5588:	06010300 	streq	r0, [r1], -r0, lsl #6
    558c:	000002ba 			; <UNDEFINED> instruction: 0x000002ba
    5590:	53050203 	movwpl	r0, #20995	; 0x5203
    5594:	03000003 	movweq	r0, #3
    5598:	009d0504 	addseq	r0, sp, r4, lsl #10
    559c:	08030000 	stmdaeq	r3, {}	; <UNPREDICTABLE>
    55a0:	00009805 	andeq	r9, r0, r5, lsl #16
    55a4:	08010300 	stmdaeq	r1, {r8, r9}
    55a8:	000002b8 			; <UNDEFINED> instruction: 0x000002b8
    55ac:	0b070203 	bleq	1c5dc0 <__bss_end__+0x1bbe60>
    55b0:	03000002 	movweq	r0, #2
    55b4:	00520704 	subseq	r0, r2, r4, lsl #14
    55b8:	08030000 	stmdaeq	r3, {}	; <UNPREDICTABLE>
    55bc:	00004d07 	andeq	r4, r0, r7, lsl #26
    55c0:	024e0400 	subeq	r0, lr, #0, 8
    55c4:	22020000 	andcs	r0, r2, #0
    55c8:	00007719 	andeq	r7, r0, r9, lsl r7
    55cc:	7d040500 	cfstr32vc	mvfx0, [r4, #-0]
    55d0:	06000000 	streq	r0, [r0], -r0
    55d4:	000003f9 	strdeq	r0, [r0], -r9
    55d8:	00029904 	andeq	r9, r2, r4, lsl #18
    55dc:	0e2c0300 	cdpeq	3, 2, cr0, cr12, cr0, {0}
    55e0:	00000041 	andeq	r0, r0, r1, asr #32
    55e4:	00040e04 	andeq	r0, r4, r4, lsl #28
    55e8:	0e720300 	cdpeq	3, 7, cr0, cr2, cr0, {0}
    55ec:	00000041 	andeq	r0, r0, r1, asr #32
    55f0:	00025607 	andeq	r5, r2, r7, lsl #12
    55f4:	015e0400 	cmpeq	lr, r0, lsl #8
    55f8:	00002c17 	andeq	r2, r0, r7, lsl ip
    55fc:	03040800 	movweq	r0, #18432	; 0x4800
    5600:	00c903a6 	sbceq	r0, r9, r6, lsr #7
    5604:	48090000 	stmdami	r9, {}	; <UNPREDICTABLE>
    5608:	03000002 	movweq	r0, #2
    560c:	009a0ca8 	addseq	r0, sl, r8, lsr #25
    5610:	da090000 	ble	245618 <__bss_end__+0x23b6b8>
    5614:	03000001 	movweq	r0, #1
    5618:	00c913a9 	sbceq	r1, r9, r9, lsr #7
    561c:	0a000000 	beq	5624 <_start-0x29dc>
    5620:	0000004f 	andeq	r0, r0, pc, asr #32
    5624:	000000d9 	ldrdeq	r0, [r0], -r9
    5628:	00002c0b 	andeq	r2, r0, fp, lsl #24
    562c:	0c000300 	stceq	3, cr0, [r0], {-0}
    5630:	09a30308 	stmibeq	r3!, {r3, r8, r9}
    5634:	000000fd 	strdeq	r0, [r0], -sp
    5638:	0003f10d 	andeq	pc, r3, sp, lsl #2
    563c:	07a50300 	streq	r0, [r5, r0, lsl #6]!
    5640:	00000025 	andeq	r0, r0, r5, lsr #32
    5644:	04000d00 	streq	r0, [r0], #-3328	; 0xfffff300
    5648:	aa030000 	bge	c5650 <__bss_end__+0xbb6f0>
    564c:	0000a705 	andeq	sl, r0, r5, lsl #14
    5650:	04000400 	streq	r0, [r0], #-1024	; 0xfffffc00
    5654:	0000037b 	andeq	r0, r0, fp, ror r3
    5658:	d903ab03 	stmdble	r3, {r0, r1, r8, r9, fp, sp, pc}
    565c:	04000000 	streq	r0, [r0], #-0
    5660:	00000197 	muleq	r0, r7, r1
    5664:	6b1baf03 	blvs	6f1278 <__bss_end__+0x6e7318>
    5668:	0e000000 	cdpeq	0, 0, cr0, cr0, cr0, {0}
    566c:	1d040504 	cfstr32ne	mvfx0, [r4, #-16]
    5670:	03000001 	movweq	r0, #1
    5674:	02c10801 	sbceq	r0, r1, #65536	; 0x10000
    5678:	1d0f0000 	stcne	0, cr0, [pc, #-0]	; 5680 <_start-0x2980>
    567c:	04000001 	streq	r0, [r0], #-1
    5680:	00000440 	andeq	r0, r0, r0, asr #8
    5684:	5d191605 	ldcpl	6, cr1, [r9, #-20]	; 0xffffffec
    5688:	10000000 	andne	r0, r0, r0
    568c:	000001a8 	andeq	r0, r0, r8, lsr #3
    5690:	082f0518 	stmdaeq	pc!, {r3, r4, r8, sl}	; <UNPREDICTABLE>
    5694:	0000018f 	andeq	r0, r0, pc, lsl #3
    5698:	00039c0d 	andeq	r9, r3, sp, lsl #24
    569c:	13310500 	teqne	r1, #0, 10
    56a0:	0000018f 	andeq	r0, r0, pc, lsl #3
    56a4:	6b5f1100 	blvs	17c9aac <__bss_end__+0x17bfb4c>
    56a8:	07320500 	ldreq	r0, [r2, -r0, lsl #10]!
    56ac:	00000025 	andeq	r0, r0, r5, lsr #32
    56b0:	03dc0d04 	bicseq	r0, ip, #4, 26	; 0x100
    56b4:	32050000 	andcc	r0, r5, #0
    56b8:	0000250b 	andeq	r2, r0, fp, lsl #10
    56bc:	910d0800 	tstls	sp, r0, lsl #16
    56c0:	05000001 	streq	r0, [r0, #-1]
    56c4:	00251432 	eoreq	r1, r5, r2, lsr r4
    56c8:	0d0c0000 	stceq	0, cr0, [ip, #-0]
    56cc:	0000047c 	andeq	r0, r0, ip, ror r4
    56d0:	251b3205 	ldrcs	r3, [fp, #-517]	; 0xfffffdfb
    56d4:	10000000 	andne	r0, r0, r0
    56d8:	00785f11 	rsbseq	r5, r8, r1, lsl pc
    56dc:	950b3305 	strls	r3, [fp, #-773]	; 0xfffffcfb
    56e0:	14000001 	strne	r0, [r0], #-1
    56e4:	35040500 	strcc	r0, [r4, #-1280]	; 0xfffffb00
    56e8:	0a000001 	beq	56f4 <_start-0x290c>
    56ec:	00000129 	andeq	r0, r0, r9, lsr #2
    56f0:	000001a5 	andeq	r0, r0, r5, lsr #3
    56f4:	00002c0b 	andeq	r2, r0, fp, lsl #24
    56f8:	10000000 	andne	r0, r0, r0
    56fc:	000001d5 	ldrdeq	r0, [r0], -r5
    5700:	08370524 	ldmdaeq	r7!, {r2, r5, r8, sl}
    5704:	00000228 	andeq	r0, r0, r8, lsr #4
    5708:	00008f0d 	andeq	r8, r0, sp, lsl #30
    570c:	09390500 	ldmdbeq	r9!, {r8, sl}
    5710:	00000025 	andeq	r0, r0, r5, lsr #32
    5714:	04160d00 	ldreq	r0, [r6], #-3328	; 0xfffff300
    5718:	3a050000 	bcc	145720 <__bss_end__+0x13b7c0>
    571c:	00002509 	andeq	r2, r0, r9, lsl #10
    5720:	b20d0400 	andlt	r0, sp, #0, 8
    5724:	05000000 	streq	r0, [r0, #-0]
    5728:	0025093b 	eoreq	r0, r5, fp, lsr r9
    572c:	0d080000 	stceq	0, cr0, [r8, #-0]
    5730:	00000504 	andeq	r0, r0, r4, lsl #10
    5734:	25093c05 	strcs	r3, [r9, #-3077]	; 0xfffff3fb
    5738:	0c000000 	stceq	0, cr0, [r0], {-0}
    573c:	00027d0d 	andeq	r7, r2, sp, lsl #26
    5740:	093d0500 	ldmdbeq	sp!, {r8, sl}
    5744:	00000025 	andeq	r0, r0, r5, lsr #32
    5748:	026c0d10 	rsbeq	r0, ip, #16, 26	; 0x400
    574c:	3e050000 	cdpcc	0, 0, cr0, cr5, cr0, {0}
    5750:	00002509 	andeq	r2, r0, r9, lsl #10
    5754:	810d1400 	tsthi	sp, r0, lsl #8
    5758:	05000004 	streq	r0, [r0, #-4]
    575c:	0025093f 	eoreq	r0, r5, pc, lsr r9
    5760:	0d180000 	ldceq	0, cr0, [r8, #-0]
    5764:	0000035d 	andeq	r0, r0, sp, asr r3
    5768:	25094005 	strcs	r4, [r9, #-5]
    576c:	1c000000 	stcne	0, cr0, [r0], {-0}
    5770:	0004cb0d 	andeq	ip, r4, sp, lsl #22
    5774:	09410500 	stmdbeq	r1, {r8, sl}^
    5778:	00000025 	andeq	r0, r0, r5, lsr #32
    577c:	f2120020 	vhadd.s16	d0, d2, d16
    5780:	08000000 	stmdaeq	r0, {}	; <UNPREDICTABLE>
    5784:	084a0501 	stmdaeq	sl, {r0, r8, sl}^
    5788:	0000026d 	andeq	r0, r0, sp, ror #4
    578c:	0001840d 	andeq	r8, r1, sp, lsl #8
    5790:	0a4b0500 	beq	12c6b98 <__bss_end__+0x12bcc38>
    5794:	0000026d 	andeq	r0, r0, sp, ror #4
    5798:	00000d00 	andeq	r0, r0, r0, lsl #26
    579c:	4c050000 	stcmi	0, cr0, [r5], {-0}
    57a0:	00026d09 	andeq	r6, r2, r9, lsl #26
    57a4:	32138000 	andscc	r8, r3, #0
    57a8:	05000004 	streq	r0, [r0, #-4]
    57ac:	01290a4e 			; <UNDEFINED> instruction: 0x01290a4e
    57b0:	01000000 	mrseq	r0, (UNDEF: 0)
    57b4:	00011713 	andeq	r1, r1, r3, lsl r7
    57b8:	0a510500 	beq	1446bc0 <__bss_end__+0x143cc60>
    57bc:	00000129 	andeq	r0, r0, r9, lsr #2
    57c0:	0a000104 	beq	5bd8 <_start-0x2428>
    57c4:	00000115 	andeq	r0, r0, r5, lsl r1
    57c8:	0000027d 	andeq	r0, r0, sp, ror r2
    57cc:	00002c0b 	andeq	r2, r0, fp, lsl #24
    57d0:	12001f00 	andne	r1, r0, #0, 30
    57d4:	00000286 	andeq	r0, r0, r6, lsl #5
    57d8:	5d050190 	stfpls	f0, [r5, #-576]	; 0xfffffdc0
    57dc:	0002c008 	andeq	ip, r2, r8
    57e0:	039c0d00 	orrseq	r0, ip, #0, 26
    57e4:	5e050000 	cdppl	0, 0, cr0, cr5, cr0, {0}
    57e8:	0002c012 	andeq	ip, r2, r2, lsl r0
    57ec:	b40d0000 	strlt	r0, [sp], #-0
    57f0:	05000003 	streq	r0, [r0, #-3]
    57f4:	0025065f 	eoreq	r0, r5, pc, asr r6
    57f8:	0d040000 	stceq	0, cr0, [r4, #-0]
    57fc:	0000018c 	andeq	r0, r0, ip, lsl #3
    5800:	c6096105 	strgt	r6, [r9], -r5, lsl #2
    5804:	08000002 	stmdaeq	r0, {r1}
    5808:	0000f20d 	andeq	pc, r0, sp, lsl #4
    580c:	1e620500 	cdpne	5, 6, cr0, cr2, cr0, {0}
    5810:	00000228 	andeq	r0, r0, r8, lsr #4
    5814:	04050088 	streq	r0, [r5], #-136	; 0xffffff78
    5818:	0000027d 	andeq	r0, r0, sp, ror r2
    581c:	0002d60a 	andeq	sp, r2, sl, lsl #12
    5820:	0002d600 	andeq	sp, r2, r0, lsl #12
    5824:	002c0b00 	eoreq	r0, ip, r0, lsl #22
    5828:	001f0000 	andseq	r0, pc, r0
    582c:	02dc0405 	sbcseq	r0, ip, #83886080	; 0x5000000
    5830:	10140000 	andsne	r0, r4, r0
    5834:	00000367 	andeq	r0, r0, r7, ror #6
    5838:	08750508 	ldmdaeq	r5!, {r3, r8, sl}^
    583c:	00000305 	andeq	r0, r0, r5, lsl #6
    5840:	0000ac0d 	andeq	sl, r0, sp, lsl #24
    5844:	11760500 	cmnne	r6, r0, lsl #10
    5848:	00000305 	andeq	r0, r0, r5, lsl #6
    584c:	000c0d00 	andeq	r0, ip, r0, lsl #26
    5850:	77050000 	strvc	r0, [r5, -r0]
    5854:	00002506 	andeq	r2, r0, r6, lsl #10
    5858:	05000400 	streq	r0, [r0, #-1024]	; 0xfffffc00
    585c:	00004f04 	andeq	r4, r0, r4, lsl #30
    5860:	03861000 	orreq	r1, r6, #0
    5864:	05680000 	strbeq	r0, [r8, #-0]!
    5868:	044e08b5 	strbeq	r0, [lr], #-2229	; 0xfffff74b
    586c:	5f110000 	svcpl	0x00110000
    5870:	b6050070 			; <UNDEFINED> instruction: 0xb6050070
    5874:	00030512 	andeq	r0, r3, r2, lsl r5
    5878:	5f110000 	svcpl	0x00110000
    587c:	b7050072 	smlsdxlt	r5, r2, r0, r0
    5880:	00002507 	andeq	r2, r0, r7, lsl #10
    5884:	5f110400 	svcpl	0x00110400
    5888:	b8050077 	stmdalt	r5, {r0, r1, r2, r4, r5, r6}
    588c:	00002507 	andeq	r2, r0, r7, lsl #10
    5890:	100d0800 	andne	r0, sp, r0, lsl #16
    5894:	05000001 	streq	r0, [r0, #-1]
    5898:	003a09b9 	ldrhteq	r0, [sl], -r9
    589c:	0d0c0000 	stceq	0, cr0, [ip, #-0]
    58a0:	000001f1 	strdeq	r0, [r0], -r1
    58a4:	3a09ba05 	bcc	2740c0 <__bss_end__+0x26a160>
    58a8:	0e000000 	cdpeq	0, 0, cr0, cr0, cr0, {0}
    58ac:	66625f11 	uqadd16vs	r5, r2, r1
    58b0:	11bb0500 			; <UNDEFINED> instruction: 0x11bb0500
    58b4:	000002dd 	ldrdeq	r0, [r0], -sp
    58b8:	006c0d10 	rsbeq	r0, ip, r0, lsl sp
    58bc:	bc050000 	stclt	0, cr0, [r5], {-0}
    58c0:	00002507 	andeq	r2, r0, r7, lsl #10
    58c4:	000d1800 	andeq	r1, sp, r0, lsl #16
    58c8:	05000001 	streq	r0, [r0, #-1]
    58cc:	01150ac3 	tsteq	r5, r3, asr #21
    58d0:	0d1c0000 	ldceq	0, cr0, [ip, #-0]
    58d4:	00000b24 	andeq	r0, r0, r4, lsr #22
    58d8:	c01dc505 	andsgt	ip, sp, r5, lsl #10
    58dc:	20000005 	andcs	r0, r0, r5
    58e0:	0006190d 	andeq	r1, r6, sp, lsl #18
    58e4:	1dc70500 	cfstr64ne	mvdx0, [r7]
    58e8:	000005ea 	andeq	r0, r0, sl, ror #11
    58ec:	04080d24 	streq	r0, [r8], #-3364	; 0xfffff2dc
    58f0:	ca050000 	bgt	1458f8 <__bss_end__+0x13b998>
    58f4:	00060e0d 	andeq	r0, r6, sp, lsl #28
    58f8:	e50d2800 	str	r2, [sp, #-2048]	; 0xfffff800
    58fc:	05000004 	streq	r0, [r0, #-4]
    5900:	062809cb 	strteq	r0, [r8], -fp, asr #19
    5904:	112c0000 			; <UNDEFINED> instruction: 0x112c0000
    5908:	0062755f 	rsbeq	r7, r2, pc, asr r5
    590c:	dd11ce05 	ldcle	14, cr12, [r1, #-20]	; 0xffffffec
    5910:	30000002 	andcc	r0, r0, r2
    5914:	70755f11 	rsbsvc	r5, r5, r1, lsl pc
    5918:	12cf0500 	sbcne	r0, pc, #0, 10
    591c:	00000305 	andeq	r0, r0, r5, lsl #6
    5920:	755f1138 	ldrbvc	r1, [pc, #-312]	; 57f0 <_start-0x2810>
    5924:	d0050072 	andle	r0, r5, r2, ror r0
    5928:	00002507 	andeq	r2, r0, r7, lsl #10
    592c:	a60d3c00 	strge	r3, [sp], -r0, lsl #24
    5930:	05000000 	streq	r0, [r0, #-0]
    5934:	062e11d3 			; <UNDEFINED> instruction: 0x062e11d3
    5938:	0d400000 	stcleq	0, cr0, [r0, #-0]
    593c:	000004bd 			; <UNDEFINED> instruction: 0x000004bd
    5940:	3e11d405 	cfmulscc	mvf13, mvf1, mvf5
    5944:	43000006 	movwmi	r0, #6
    5948:	626c5f11 	rsbvs	r5, ip, #17, 30	; 0x44
    594c:	11d70500 	bicsne	r0, r7, r0, lsl #10
    5950:	000002dd 	ldrdeq	r0, [r0], -sp
    5954:	01350d44 	teqeq	r5, r4, asr #26
    5958:	da050000 	ble	145960 <__bss_end__+0x13ba00>
    595c:	00002507 	andeq	r2, r0, r7, lsl #10
    5960:	460d4c00 	strmi	r4, [sp], -r0, lsl #24
    5964:	05000001 	streq	r0, [r0, #-1]
    5968:	00820adb 	ldrdeq	r0, [r2], fp
    596c:	0d500000 	ldcleq	0, cr0, [r0, #-0]
    5970:	00000ac5 	andeq	r0, r0, r5, asr #21
    5974:	6c12de05 	ldcvs	14, cr13, [r2], {5}
    5978:	54000004 	strpl	r0, [r0], #-4
    597c:	0003fa0d 	andeq	pc, r3, sp, lsl #20
    5980:	0ce20500 	cfstr64eq	mvdx0, [r2]
    5984:	00000109 	andeq	r0, r0, r9, lsl #2
    5988:	038e0d58 	orreq	r0, lr, #88, 26	; 0x1600
    598c:	e4050000 	str	r0, [r5], #-0
    5990:	0000fd0e 	andeq	pc, r0, lr, lsl #26
    5994:	640d5c00 	strvs	r5, [sp], #-3072	; 0xfffff400
    5998:	05000002 	streq	r0, [r0, #-2]
    599c:	002509e5 	eoreq	r0, r5, r5, ror #19
    59a0:	00640000 	rsbeq	r0, r4, r0
    59a4:	00002515 	andeq	r2, r0, r5, lsl r5
    59a8:	00046c00 	andeq	r6, r4, r0, lsl #24
    59ac:	046c1600 	strbteq	r1, [ip], #-1536	; 0xfffffa00
    59b0:	15160000 	ldrne	r0, [r6, #-0]
    59b4:	16000001 	strne	r0, [r0], -r1
    59b8:	00000117 	andeq	r0, r0, r7, lsl r1
    59bc:	00002516 	andeq	r2, r0, r6, lsl r5
    59c0:	04050000 	streq	r0, [r5], #-0
    59c4:	00000477 	andeq	r0, r0, r7, ror r4
    59c8:	00046c0f 	andeq	r6, r4, pc, lsl #24
    59cc:	03e41700 	mvneq	r1, #0, 14
    59d0:	04280000 	strteq	r0, [r8], #-0
    59d4:	08026005 	stmdaeq	r2, {r0, r2, sp, lr}
    59d8:	000005c0 	andeq	r0, r0, r0, asr #11
    59dc:	00034c18 	andeq	r4, r3, r8, lsl ip
    59e0:	02620500 	rsbeq	r0, r2, #0, 10
    59e4:	00002507 	andeq	r2, r0, r7, lsl #10
    59e8:	91180000 	tstls	r8, r0
    59ec:	05000004 	streq	r0, [r0, #-4]
    59f0:	9a0b0267 	bls	2c6394 <__bss_end__+0x2bc434>
    59f4:	04000006 	streq	r0, [r0], #-6
    59f8:	0001e118 	andeq	lr, r1, r8, lsl r1
    59fc:	02670500 	rsbeq	r0, r7, #0, 10
    5a00:	00069a14 	andeq	r9, r6, r4, lsl sl
    5a04:	a0180800 	andsge	r0, r8, r0, lsl #16
    5a08:	05000001 	streq	r0, [r0, #-1]
    5a0c:	9a1e0267 	bls	7863b0 <__bss_end__+0x77c450>
    5a10:	0c000006 	stceq	0, cr0, [r0], {6}
    5a14:	0003af18 	andeq	sl, r3, r8, lsl pc
    5a18:	02690500 	rsbeq	r0, r9, #0, 10
    5a1c:	00002508 	andeq	r2, r0, r8, lsl #10
    5a20:	1a181000 	bne	609a28 <__bss_end__+0x5ffac8>
    5a24:	05000000 	streq	r0, [r0, #-0]
    5a28:	9a08026a 	bls	2063d8 <__bss_end__+0x1fc478>
    5a2c:	14000008 	strne	r0, [r0], #-8
    5a30:	0003c318 	andeq	ip, r3, r8, lsl r3
    5a34:	026d0500 	rsbeq	r0, sp, #0, 10
    5a38:	00002507 	andeq	r2, r0, r7, lsl #10
    5a3c:	01183000 	tsteq	r8, r0
    5a40:	0500000a 	streq	r0, [r0, #-10]
    5a44:	af16026e 	svcge	0x0016026e
    5a48:	34000008 	strcc	r0, [r0], #-8
    5a4c:	00028e18 	andeq	r8, r2, r8, lsl lr
    5a50:	02700500 	rsbseq	r0, r0, #0, 10
    5a54:	00002507 	andeq	r2, r0, r7, lsl #10
    5a58:	b9183800 	ldmdblt	r8, {fp, ip, sp}
    5a5c:	05000003 	streq	r0, [r0, #-3]
    5a60:	c00a0272 	andgt	r0, sl, r2, ror r2
    5a64:	3c000008 	stccc	0, cr0, [r0], {8}
    5a68:	00024018 	andeq	r4, r2, r8, lsl r0
    5a6c:	02750500 	rsbseq	r0, r5, #0, 10
    5a70:	00018f13 	andeq	r8, r1, r3, lsl pc
    5a74:	bf184000 	svclt	0x00184000
    5a78:	05000001 	streq	r0, [r0, #-1]
    5a7c:	25070276 	strcs	r0, [r7, #-630]	; 0xfffffd8a
    5a80:	44000000 	strmi	r0, [r0], #-0
    5a84:	0004ff18 	andeq	pc, r4, r8, lsl pc	; <UNPREDICTABLE>
    5a88:	02770500 	rsbseq	r0, r7, #0, 10
    5a8c:	00018f13 	andeq	r8, r1, r3, lsl pc
    5a90:	a0184800 	andsge	r4, r8, r0, lsl #16
    5a94:	05000002 	streq	r0, [r0, #-2]
    5a98:	c6140278 			; <UNDEFINED> instruction: 0xc6140278
    5a9c:	4c000008 	stcmi	0, cr0, [r0], {8}
    5aa0:	0001e918 	andeq	lr, r1, r8, lsl r9
    5aa4:	027b0500 	rsbseq	r0, fp, #0, 10
    5aa8:	00002507 	andeq	r2, r0, r7, lsl #10
    5aac:	3e185000 	cdpcc	0, 1, cr5, cr8, cr0, {0}
    5ab0:	05000001 	streq	r0, [r0, #-1]
    5ab4:	1709027c 	smlsdxne	r9, ip, r2, r0
    5ab8:	54000001 	strpl	r0, [r0], #-1
    5abc:	0002c618 	andeq	ip, r2, r8, lsl r6
    5ac0:	029f0500 	addseq	r0, pc, #0, 10
    5ac4:	00087507 	andeq	r7, r8, r7, lsl #10
    5ac8:	86195800 	ldrhi	r5, [r9], -r0, lsl #16
    5acc:	05000002 	streq	r0, [r0, #-2]
    5ad0:	c01302a3 	andsgt	r0, r3, r3, lsr #5
    5ad4:	48000002 	stmdami	r0, {r1}
    5ad8:	021e1901 	andseq	r1, lr, #16384	; 0x4000
    5adc:	a4050000 	strge	r0, [r5], #-0
    5ae0:	027d1202 	rsbseq	r1, sp, #536870912	; 0x20000000
    5ae4:	014c0000 	mrseq	r0, (UNDEF: 76)
    5ae8:	0004ab19 	andeq	sl, r4, r9, lsl fp
    5aec:	02a80500 	adceq	r0, r8, #0, 10
    5af0:	0008d70c 	andeq	sp, r8, ip, lsl #14
    5af4:	1902dc00 	stmdbne	r2, {sl, fp, ip, lr, pc}
    5af8:	00000108 	andeq	r0, r0, r8, lsl #2
    5afc:	1002ad05 	andne	sl, r2, r5, lsl #26
    5b00:	0000065b 	andeq	r0, r0, fp, asr r6
    5b04:	ed1902e0 	lfm	f0, 4, [r9, #-896]	; 0xfffffc80
    5b08:	05000000 	streq	r0, [r0, #-0]
    5b0c:	e30a02af 	movw	r0, #41647	; 0xa2af
    5b10:	ec000008 	stc	0, cr0, [r0], {8}
    5b14:	04050002 	streq	r0, [r5], #-2
    5b18:	0000044e 	andeq	r0, r0, lr, asr #8
    5b1c:	00002515 	andeq	r2, r0, r5, lsl r5
    5b20:	0005e400 	andeq	lr, r5, r0, lsl #8
    5b24:	046c1600 	strbteq	r1, [ip], #-1536	; 0xfffffa00
    5b28:	15160000 	ldrne	r0, [r6, #-0]
    5b2c:	16000001 	strne	r0, [r0], -r1
    5b30:	000005e4 	andeq	r0, r0, r4, ror #11
    5b34:	00002516 	andeq	r2, r0, r6, lsl r5
    5b38:	04050000 	streq	r0, [r5], #-0
    5b3c:	00000124 	andeq	r0, r0, r4, lsr #2
    5b40:	05c60405 	strbeq	r0, [r6, #1029]	; 0x405
    5b44:	8e150000 	cdphi	0, 1, cr0, cr5, cr0, {0}
    5b48:	0e000000 	cdpeq	0, 0, cr0, cr0, cr0, {0}
    5b4c:	16000006 	strne	r0, [r0], -r6
    5b50:	0000046c 	andeq	r0, r0, ip, ror #8
    5b54:	00011516 	andeq	r1, r1, r6, lsl r5
    5b58:	008e1600 	addeq	r1, lr, r0, lsl #12
    5b5c:	25160000 	ldrcs	r0, [r6, #-0]
    5b60:	00000000 	andeq	r0, r0, r0
    5b64:	05f00405 	ldrbeq	r0, [r0, #1029]!	; 0x405
    5b68:	25150000 	ldrcs	r0, [r5, #-0]
    5b6c:	28000000 	stmdacs	r0, {}	; <UNPREDICTABLE>
    5b70:	16000006 	strne	r0, [r0], -r6
    5b74:	0000046c 	andeq	r0, r0, ip, ror #8
    5b78:	00011516 	andeq	r1, r1, r6, lsl r5
    5b7c:	04050000 	streq	r0, [r5], #-0
    5b80:	00000614 	andeq	r0, r0, r4, lsl r6
    5b84:	00004f0a 	andeq	r4, r0, sl, lsl #30
    5b88:	00063e00 	andeq	r3, r6, r0, lsl #28
    5b8c:	002c0b00 	eoreq	r0, ip, r0, lsl #22
    5b90:	00020000 	andeq	r0, r2, r0
    5b94:	00004f0a 	andeq	r4, r0, sl, lsl #30
    5b98:	00064e00 	andeq	r4, r6, r0, lsl #28
    5b9c:	002c0b00 	eoreq	r0, ip, r0, lsl #22
    5ba0:	00000000 	andeq	r0, r0, r0
    5ba4:	00037407 	andeq	r7, r3, r7, lsl #8
    5ba8:	011f0500 	tsteq	pc, r0, lsl #10
    5bac:	00030b1a 	andeq	r0, r3, sl, lsl fp
    5bb0:	048b1a00 	streq	r1, [fp], #2560	; 0xa00
    5bb4:	050c0000 	streq	r0, [ip, #-0]
    5bb8:	94080123 	strls	r0, [r8], #-291	; 0xfffffedd
    5bbc:	18000006 	stmdane	r0, {r1, r2}
    5bc0:	0000039c 	muleq	r0, ip, r3
    5bc4:	11012505 	tstne	r1, r5, lsl #10
    5bc8:	00000694 	muleq	r0, r4, r6
    5bcc:	02041800 	andeq	r1, r4, #0, 16
    5bd0:	26050000 	strcs	r0, [r5], -r0
    5bd4:	00250701 	eoreq	r0, r5, r1, lsl #14
    5bd8:	18040000 	stmdane	r4, {}	; <UNPREDICTABLE>
    5bdc:	0000036e 	andeq	r0, r0, lr, ror #6
    5be0:	0b012705 	bleq	4f7fc <__bss_end__+0x4589c>
    5be4:	0000069a 	muleq	r0, sl, r6
    5be8:	04050008 	streq	r0, [r5], #-8
    5bec:	0000065b 	andeq	r0, r0, fp, asr r6
    5bf0:	064e0405 	strbeq	r0, [lr], -r5, lsl #8
    5bf4:	121a0000 	andsne	r0, sl, #0
    5bf8:	0e000000 	cdpeq	0, 0, cr0, cr0, cr0, {0}
    5bfc:	08013f05 	stmdaeq	r1, {r0, r2, r8, r9, sl, fp, ip, sp}
    5c00:	000006d9 	ldrdeq	r0, [r0], -r9
    5c04:	0003eb18 	andeq	lr, r3, r8, lsl fp
    5c08:	01400500 	cmpeq	r0, r0, lsl #10
    5c0c:	0006d912 	andeq	sp, r6, r2, lsl r9
    5c10:	1f180000 	svcne	0x00180000
    5c14:	05000004 	streq	r0, [r0, #-4]
    5c18:	d9120141 	ldmdble	r2, {r0, r6, r8}
    5c1c:	06000006 	streq	r0, [r0], -r6
    5c20:	00043b18 	andeq	r3, r4, r8, lsl fp
    5c24:	01420500 	cmpeq	r2, r0, lsl #10
    5c28:	00005612 	andeq	r5, r0, r2, lsl r6
    5c2c:	0a000c00 	beq	8c34 <emit+0x104>
    5c30:	00000056 	andeq	r0, r0, r6, asr r0
    5c34:	000006e9 	andeq	r0, r0, r9, ror #13
    5c38:	00002c0b 	andeq	r2, r0, fp, lsl #24
    5c3c:	1b000200 	blne	6444 <_start-0x1bbc>
    5c40:	028005d0 	addeq	r0, r0, #208, 10	; 0x34000000
    5c44:	0007fe07 	andeq	pc, r7, r7, lsl #28
    5c48:	046f1800 	strbteq	r1, [pc], #-2048	; 5c50 <_start-0x23b0>
    5c4c:	82050000 	andhi	r0, r5, #0
    5c50:	002c1802 	eoreq	r1, ip, r2, lsl #16
    5c54:	18000000 	stmdane	r0, {}	; <UNPREDICTABLE>
    5c58:	00000425 	andeq	r0, r0, r5, lsr #8
    5c5c:	12028305 	andne	r8, r2, #335544320	; 0x14000000
    5c60:	00000117 	andeq	r0, r0, r7, lsl r1
    5c64:	02331804 	eorseq	r1, r3, #4, 16	; 0x40000
    5c68:	84050000 	strhi	r0, [r5], #-0
    5c6c:	07fe1002 	ldrbeq	r1, [lr, r2]!
    5c70:	18080000 	stmdane	r8, {}	; <UNPREDICTABLE>
    5c74:	000004d6 	ldrdeq	r0, [r0], -r6
    5c78:	17028505 	strne	r8, [r2, -r5, lsl #10]
    5c7c:	000001a5 	andeq	r0, r0, r5, lsr #3
    5c80:	01b01824 	lsrseq	r1, r4, #16
    5c84:	86050000 	strhi	r0, [r5], -r0
    5c88:	00250f02 	eoreq	r0, r5, r2, lsl #30
    5c8c:	18480000 	stmdane	r8, {}^	; <UNPREDICTABLE>
    5c90:	00000397 	muleq	r0, r7, r3
    5c94:	2c028705 	stccs	7, cr8, [r2], {5}
    5c98:	00000064 	andeq	r0, r0, r4, rrx
    5c9c:	04ec1850 	strbteq	r1, [ip], #2128	; 0x850
    5ca0:	88050000 	stmdahi	r5, {}	; <UNPREDICTABLE>
    5ca4:	06a01a02 	strteq	r1, [r0], r2, lsl #20
    5ca8:	18580000 	ldmdane	r8, {}^	; <UNPREDICTABLE>
    5cac:	000003a2 	andeq	r0, r0, r2, lsr #7
    5cb0:	16028905 	strne	r8, [r2], -r5, lsl #18
    5cb4:	000000fd 	strdeq	r0, [r0], -sp
    5cb8:	04f11868 	ldrbteq	r1, [r1], #2152	; 0x868
    5cbc:	8a050000 	bhi	145cc4 <__bss_end__+0x13bd64>
    5cc0:	00fd1602 	rscseq	r1, sp, r2, lsl #12
    5cc4:	18700000 	ldmdane	r0!, {}^	; <UNPREDICTABLE>
    5cc8:	000002aa 	andeq	r0, r0, sl, lsr #5
    5ccc:	16028b05 	strne	r8, [r2], -r5, lsl #22
    5cd0:	000000fd 	strdeq	r0, [r0], -sp
    5cd4:	04a11878 	strteq	r1, [r1], #2168	; 0x878
    5cd8:	8c050000 	stchi	0, cr0, [r5], {-0}
    5cdc:	080e1002 	stmdaeq	lr, {r1, ip}
    5ce0:	18800000 	stmne	r0, {}	; <UNPREDICTABLE>
    5ce4:	00000227 	andeq	r0, r0, r7, lsr #4
    5ce8:	10028d05 	andne	r8, r2, r5, lsl #26
    5cec:	0000081e 	andeq	r0, r0, lr, lsl r8
    5cf0:	04481888 	strbeq	r1, [r8], #-2184	; 0xfffff778
    5cf4:	8e050000 	cdphi	0, 0, cr0, cr5, cr0, {0}
    5cf8:	00250f02 	eoreq	r0, r5, r2, lsl #30
    5cfc:	18a00000 	stmiane	r0!, {}	; <UNPREDICTABLE>
    5d00:	00000176 	andeq	r0, r0, r6, ror r1
    5d04:	16028f05 	strne	r8, [r2], -r5, lsl #30
    5d08:	000000fd 	strdeq	r0, [r0], -sp
    5d0c:	008018a4 	addeq	r1, r0, r4, lsr #17
    5d10:	90050000 	andls	r0, r5, r0
    5d14:	00fd1602 	rscseq	r1, sp, r2, lsl #12
    5d18:	18ac0000 	stmiane	ip!, {}	; <UNPREDICTABLE>
    5d1c:	00000165 	andeq	r0, r0, r5, ror #2
    5d20:	16029105 	strne	r9, [r2], -r5, lsl #2
    5d24:	000000fd 	strdeq	r0, [r0], -sp
    5d28:	002d18b4 	strhteq	r1, [sp], -r4
    5d2c:	92050000 	andls	r0, r5, #0
    5d30:	00fd1602 	rscseq	r1, sp, r2, lsl #12
    5d34:	18bc0000 	ldmne	ip!, {}	; <UNPREDICTABLE>
    5d38:	0000003c 	andeq	r0, r0, ip, lsr r0
    5d3c:	16029305 	strne	r9, [r2], -r5, lsl #6
    5d40:	000000fd 	strdeq	r0, [r0], -sp
    5d44:	034a18c4 	movteq	r1, #43204	; 0xa8c4
    5d48:	94050000 	strls	r0, [r5], #-0
    5d4c:	00250802 	eoreq	r0, r5, r2, lsl #16
    5d50:	00cc0000 	sbceq	r0, ip, r0
    5d54:	00011d0a 	andeq	r1, r1, sl, lsl #26
    5d58:	00080e00 	andeq	r0, r8, r0, lsl #28
    5d5c:	002c0b00 	eoreq	r0, ip, r0, lsl #22
    5d60:	00190000 	andseq	r0, r9, r0
    5d64:	00011d0a 	andeq	r1, r1, sl, lsl #26
    5d68:	00081e00 	andeq	r1, r8, r0, lsl #28
    5d6c:	002c0b00 	eoreq	r0, ip, r0, lsl #22
    5d70:	00070000 	andeq	r0, r7, r0
    5d74:	00011d0a 	andeq	r1, r1, sl, lsl #26
    5d78:	00082e00 	andeq	r2, r8, r0, lsl #28
    5d7c:	002c0b00 	eoreq	r0, ip, r0, lsl #22
    5d80:	00170000 	andseq	r0, r7, r0
    5d84:	9905f01b 	stmdbls	r5, {r0, r1, r3, r4, ip, sp, lr, pc}
    5d88:	08550702 	ldmdaeq	r5, {r1, r8, r9, sl}^
    5d8c:	76180000 	ldrvc	r0, [r8], -r0
    5d90:	05000002 	streq	r0, [r0, #-2]
    5d94:	551b029c 	ldrpl	r0, [fp, #-668]	; 0xfffffd64
    5d98:	00000008 	andeq	r0, r0, r8
    5d9c:	00049818 	andeq	r9, r4, r8, lsl r8
    5da0:	029d0500 	addseq	r0, sp, #0, 10
    5da4:	00086518 	andeq	r6, r8, r8, lsl r5
    5da8:	0a007800 	beq	23db0 <__bss_end__+0x19e50>
    5dac:	00000305 	andeq	r0, r0, r5, lsl #6
    5db0:	00000865 	andeq	r0, r0, r5, ror #16
    5db4:	00002c0b 	andeq	r2, r0, fp, lsl #24
    5db8:	0a001d00 	beq	d1c0 <__bss_end__+0x3260>
    5dbc:	0000002c 	andeq	r0, r0, ip, lsr #32
    5dc0:	00000875 	andeq	r0, r0, r5, ror r8
    5dc4:	00002c0b 	andeq	r2, r0, fp, lsl #24
    5dc8:	1c001d00 	stcne	13, cr1, [r0], {-0}
    5dcc:	027e05f0 	rsbseq	r0, lr, #240, 10	; 0x3c000000
    5dd0:	00089a03 	andeq	r9, r8, r3, lsl #20
    5dd4:	03e41d00 	mvneq	r1, #0, 26
    5dd8:	95050000 	strls	r0, [r5, #-0]
    5ddc:	06e90b02 	strbteq	r0, [r9], r2, lsl #22
    5de0:	c31d0000 	tstgt	sp, #0
    5de4:	05000004 	streq	r0, [r0, #-4]
    5de8:	2e0b029e 	mcrcs	2, 0, r0, cr11, cr14, {4}
    5dec:	00000008 	andeq	r0, r0, r8
    5df0:	00011d0a 	andeq	r1, r1, sl, lsl #26
    5df4:	0008aa00 	andeq	sl, r8, r0, lsl #20
    5df8:	002c0b00 	eoreq	r0, ip, r0, lsl #22
    5dfc:	00180000 	andseq	r0, r8, r0
    5e00:	00007506 	andeq	r7, r0, r6, lsl #10
    5e04:	aa040500 	bge	10720c <__bss_end__+0xfd2ac>
    5e08:	1e000008 	cdpne	0, 0, cr0, cr0, cr8, {0}
    5e0c:	000008c0 	andeq	r0, r0, r0, asr #17
    5e10:	00046c16 	andeq	r6, r4, r6, lsl ip
    5e14:	04050000 	streq	r0, [r5], #-0
    5e18:	000008b5 			; <UNDEFINED> instruction: 0x000008b5
    5e1c:	018f0405 	orreq	r0, pc, r5, lsl #8
    5e20:	d71e0000 	ldrle	r0, [lr, -r0]
    5e24:	16000008 	strne	r0, [r0], -r8
    5e28:	00000025 	andeq	r0, r0, r5, lsr #32
    5e2c:	dd040500 	cfstr32le	mvfx0, [r4, #-0]
    5e30:	05000008 	streq	r0, [r0, #-8]
    5e34:	0008cc04 	andeq	ip, r8, r4, lsl #24
    5e38:	064e0a00 	strbeq	r0, [lr], -r0, lsl #20
    5e3c:	08f30000 	ldmeq	r3!, {}^	; <UNPREDICTABLE>
    5e40:	2c0b0000 	stccs	0, cr0, [fp], {-0}
    5e44:	02000000 	andeq	r0, r0, #0
    5e48:	045c1f00 	ldrbeq	r1, [ip], #-3840	; 0xfffff100
    5e4c:	2e050000 	cdpcs	0, 0, cr0, cr5, cr0, {0}
    5e50:	046c1703 	strbteq	r1, [ip], #-1795	; 0xfffff8fd
    5e54:	551f0000 	ldrpl	r0, [pc, #-0]	; 5e5c <_start-0x21a4>
    5e58:	05000004 	streq	r0, [r0, #-4]
    5e5c:	721d032f 	andsvc	r0, sp, #-1140850688	; 0xbc000000
    5e60:	15000004 	strne	r0, [r0, #-4]
    5e64:	00000025 	andeq	r0, r0, r5, lsr #32
    5e68:	0000091c 	andeq	r0, r0, ip, lsl r9
    5e6c:	00002516 	andeq	r2, r0, r6, lsl r5
    5e70:	c9200000 	stmdbgt	r0!, {}	; <UNPREDICTABLE>
    5e74:	06000001 	streq	r0, [r0], -r1
    5e78:	09280e1d 	stmdbeq	r8!, {r0, r2, r3, r4, r9, sl, fp}
    5e7c:	04050000 	streq	r0, [r5], #-0
    5e80:	0000090d 	andeq	r0, r0, sp, lsl #18
    5e84:	00002515 	andeq	r2, r0, r5, lsl r5
    5e88:	00093d00 	andeq	r3, r9, r0, lsl #26
    5e8c:	05e41600 	strbeq	r1, [r4, #1536]!	; 0x600
    5e90:	20000000 	andcs	r0, r0, r0
    5e94:	00000768 	andeq	r0, r0, r8, ror #14
    5e98:	490e2206 	stmdbmi	lr, {r1, r2, r9, sp}
    5e9c:	05000009 	streq	r0, [r0, #-9]
    5ea0:	00092e04 	andeq	r2, r9, r4, lsl #28
    5ea4:	07060400 	streq	r0, [r6, -r0, lsl #8]
    5ea8:	28070000 	stmdacs	r7, {}	; <UNPREDICTABLE>
    5eac:	00095b1b 	andeq	r5, r9, fp, lsl fp
    5eb0:	06f22100 	ldrbteq	r2, [r2], r0, lsl #2
    5eb4:	08040000 	stmdaeq	r4, {}	; <UNPREDICTABLE>
    5eb8:	00097200 	andeq	r7, r9, r0, lsl #4
    5ebc:	07152200 	ldreq	r2, [r5, -r0, lsl #4]
    5ec0:	01150000 	tsteq	r5, r0
    5ec4:	00000000 	andeq	r0, r0, r0
    5ec8:	0006f404 	andeq	pc, r6, r4, lsl #8
    5ecc:	18630700 	stmdane	r3!, {r8, r9, sl}^
    5ed0:	0000094f 	andeq	r0, r0, pc, asr #18
    5ed4:	0006fc23 	andeq	pc, r6, r3, lsr #24
    5ed8:	057f0100 	ldrbeq	r0, [pc, #-256]!	; 5de0 <_start-0x2220>
    5edc:	00000025 	andeq	r0, r0, r5, lsr #32
    5ee0:	00008d30 	andeq	r8, r0, r0, lsr sp
    5ee4:	000002b0 			; <UNDEFINED> instruction: 0x000002b0
    5ee8:	0c0e9c01 	stceq	12, cr9, [lr], {1}
    5eec:	62240000 	eorvs	r0, r4, #0
    5ef0:	01006675 	tsteq	r0, r5, ror r6
    5ef4:	0117157f 	tsteq	r7, pc, ror r5
    5ef8:	0abf0000 	beq	fefc5f00 <__bss_end__+0xfefbbfa0>
    5efc:	0ab90000 	beq	fee45f04 <__bss_end__+0xfee3bfa4>
    5f00:	6e240000 	cdpvs	0, 2, cr0, cr4, cr0, {0}
    5f04:	1e7f0100 	rpwnee	f0, f7, f0
    5f08:	00000025 	andeq	r0, r0, r5, lsr #32
    5f0c:	00000af1 	strdeq	r0, [r0], -r1
    5f10:	00000aeb 	andeq	r0, r0, fp, ror #21
    5f14:	746d6624 	strbtvc	r6, [sp], #-1572	; 0xfffff9dc
    5f18:	2d7f0100 	ldfcse	f0, [pc, #-0]	; 5f20 <_start-0x20e0>
    5f1c:	000005e4 	andeq	r0, r0, r4, ror #11
    5f20:	00000b23 	andeq	r0, r0, r3, lsr #22
    5f24:	00000b1f 	andeq	r0, r0, pc, lsl fp
    5f28:	0000fb25 	andeq	pc, r0, r5, lsr #22
    5f2c:	3a7f0100 	bcc	1fc6334 <__bss_end__+0x1fbc3d4>
    5f30:	00000972 	andeq	r0, r0, r2, ror r9
    5f34:	7edc9103 	atnvce	f1, f3
    5f38:	01007026 	tsteq	r0, r6, lsr #32
    5f3c:	01170880 	tsteq	r7, r0, lsl #17
    5f40:	0b550000 	bleq	1545f48 <__bss_end__+0x153bfe8>
    5f44:	0b410000 	bleq	1045f4c <__bss_end__+0x103bfec>
    5f48:	65260000 	strvs	r0, [r6, #-0]!
    5f4c:	12800100 	addne	r0, r0, #0, 2
    5f50:	00000117 	andeq	r0, r0, r7, lsl r1
    5f54:	00000bd7 	ldrdeq	r0, [r0], -r7
    5f58:	00000bd3 	ldrdeq	r0, [r0], -r3
    5f5c:	0001f727 	andeq	pc, r1, r7, lsr #14
    5f60:	000c1e00 	andeq	r1, ip, r0, lsl #28
    5f64:	18030500 	stmdane	r3, {r8, sl}
    5f68:	2800009a 	stmdacs	r0, {r1, r3, r4, r7}
    5f6c:	00008d94 	muleq	r0, r4, sp
    5f70:	00000224 	andeq	r0, r0, r4, lsr #4
    5f74:	01007326 	tsteq	r0, r6, lsr #6
    5f78:	01170a8d 	tsteq	r7, sp, lsl #21
    5f7c:	0c080000 	stceq	0, cr0, [r8], {-0}
    5f80:	0bfe0000 	bleq	fff85f88 <__bss_end__+0xfff7c028>
    5f84:	6e290000 	cdpvs	0, 2, cr0, cr9, cr0, {0}
    5f88:	01006d75 	tsteq	r0, r5, ror sp
    5f8c:	0c230d8d 	stceq	13, cr0, [r3], #-564	; 0xfffffdcc
    5f90:	91030000 	mrsls	r0, (UNDEF: 3)
    5f94:	aa2a7ee0 	bge	aa5b1c <__bss_end__+0xa9bbbc>
    5f98:	01000007 	tsteq	r0, r7
    5f9c:	002c0d8e 	eoreq	r0, ip, lr, lsl #27
    5fa0:	0c4d0000 	mareq	acc0, r0, sp
    5fa4:	0c470000 	mareq	acc0, r0, r7
    5fa8:	bc2b0000 	stclt	0, cr0, [fp], #-0
    5fac:	ae00008d 	cdpge	0, 0, cr0, cr0, cr13, {4}
    5fb0:	6800000e 	stmdavs	r0, {r1, r2, r3}
    5fb4:	2c00000a 	stccs	0, cr0, [r0], {10}
    5fb8:	75025001 	strvc	r5, [r2, #-1]
    5fbc:	3c2d0000 	stccc	0, cr0, [sp], #-0
    5fc0:	7f00008e 	svcvc	0x0000008e
    5fc4:	2b00000f 	blcs	6008 <_start-0x1ff8>
    5fc8:	00008e50 	andeq	r8, r0, r0, asr lr
    5fcc:	00000f8b 	andeq	r0, r0, fp, lsl #31
    5fd0:	00000aa0 	andeq	r0, r0, r0, lsr #21
    5fd4:	0550012c 	ldrbeq	r0, [r0, #-300]	; 0xfffffed4
    5fd8:	00998403 	addseq	r8, r9, r3, lsl #8
    5fdc:	51012c00 	tstpl	r1, r0, lsl #24
    5fe0:	99200305 	stmdbls	r0!, {r0, r2, r8, r9}
    5fe4:	012c0000 			; <UNDEFINED> instruction: 0x012c0000
    5fe8:	18030552 	stmdane	r3, {r1, r4, r6, r8, sl}
    5fec:	2c00009a 	stccs	0, cr0, [r0], {154}	; 0x9a
    5ff0:	08025301 	stmdaeq	r2, {r0, r8, r9, ip, lr}
    5ff4:	542d0094 	strtpl	r0, [sp], #-148	; 0xffffff6c
    5ff8:	9700008e 	strls	r0, [r0, -lr, lsl #1]
    5ffc:	2d00000f 	stccs	0, cr0, [r0, #-60]	; 0xffffffc4
    6000:	00008e58 	andeq	r8, r0, r8, asr lr
    6004:	00000f7f 	andeq	r0, r0, pc, ror pc
    6008:	008e6c2b 	addeq	r6, lr, fp, lsr #24
    600c:	000f8b00 	andeq	r8, pc, r0, lsl #22
    6010:	000ae100 	andeq	lr, sl, r0, lsl #2
    6014:	50012c00 	andpl	r2, r1, r0, lsl #24
    6018:	99a00305 	stmibls	r0!, {r0, r2, r8, r9}
    601c:	012c0000 			; <UNDEFINED> instruction: 0x012c0000
    6020:	20030551 	andcs	r0, r3, r1, asr r5
    6024:	2c000099 	stccs	0, cr0, [r0], {153}	; 0x99
    6028:	03055201 	movweq	r5, #20993	; 0x5201
    602c:	00009a18 	andeq	r9, r0, r8, lsl sl
    6030:	0253012c 	subseq	r0, r3, #44, 2
    6034:	2d009a08 	vstrcs	s18, [r0, #-32]	; 0xffffffe0
    6038:	00008e70 	andeq	r8, r0, r0, ror lr
    603c:	00000f97 	muleq	r0, r7, pc	; <UNPREDICTABLE>
    6040:	008e9c2b 	addeq	r9, lr, fp, lsr #24
    6044:	000c3300 	andeq	r3, ip, r0, lsl #6
    6048:	000b1700 	andeq	r1, fp, r0, lsl #14
    604c:	50012c00 	andpl	r2, r1, r0, lsl #24
    6050:	012c3a01 			; <UNDEFINED> instruction: 0x012c3a01
    6054:	d8910351 	ldmle	r1, {r0, r4, r6, r8, r9}
    6058:	52012c7e 	andpl	r2, r1, #32256	; 0x7e00
    605c:	2c800802 	stccs	8, cr0, [r0], {2}
    6060:	02007d02 	andeq	r7, r0, #2, 26	; 0x80
    6064:	022c0076 	eoreq	r0, ip, #118	; 0x76
    6068:	3101047d 	tstcc	r1, sp, ror r4
    606c:	8eec2b00 	vfmahi.f64	d18, d12, d0
    6070:	0c330000 	ldceq	0, cr0, [r3], #-0
    6074:	0b440000 	bleq	110607c <__bss_end__+0x10fc11c>
    6078:	012c0000 			; <UNDEFINED> instruction: 0x012c0000
    607c:	2c3a0150 	ldfcss	f0, [sl], #-320	; 0xfffffec0
    6080:	91035101 	tstls	r3, r1, lsl #2
    6084:	012c7ed8 	ldrdeq	r7, [ip, -r8]!
    6088:	80080252 	andhi	r0, r8, r2, asr r2
    608c:	007d022c 	rsbseq	r0, sp, ip, lsr #4
    6090:	2c007602 	stccs	6, cr7, [r0], {2}
    6094:	01047d02 	tsteq	r4, r2, lsl #26
    6098:	1c2b0030 	stcne	0, cr0, [fp], #-192	; 0xffffff40
    609c:	3300008f 	movwcc	r0, #143	; 0x8f
    60a0:	7100000c 	tstvc	r0, ip
    60a4:	2c00000b 	stccs	0, cr0, [r0], {11}
    60a8:	40015001 	andmi	r5, r1, r1
    60ac:	0351012c 	cmpeq	r1, #44, 2
    60b0:	2c7ed891 	ldclcs	8, cr13, [lr], #-580	; 0xfffffdbc
    60b4:	08025201 	stmdaeq	r2, {r0, r9, ip, lr}
    60b8:	7d022c80 	stcvc	12, cr2, [r2, #-512]	; 0xfffffe00
    60bc:	00760200 	rsbseq	r0, r6, r0, lsl #4
    60c0:	047d022c 	ldrbteq	r0, [sp], #-556	; 0xfffffdd4
    60c4:	2b003001 	blcs	120d0 <__bss_end__+0x8170>
    60c8:	00008f4c 	andeq	r8, r0, ip, asr #30
    60cc:	00000c33 	andeq	r0, r0, r3, lsr ip
    60d0:	00000b9e 	muleq	r0, lr, fp
    60d4:	0150012c 	cmpeq	r0, ip, lsr #2
    60d8:	51012c32 	tstpl	r1, r2, lsr ip
    60dc:	7ed89103 	atnvce	f1, f3
    60e0:	0252012c 	subseq	r0, r2, #44, 2
    60e4:	022c8008 	eoreq	r8, ip, #8
    60e8:	7602007d 			; <UNDEFINED> instruction: 0x7602007d
    60ec:	7d022c00 	stcvc	12, cr2, [r2, #-0]
    60f0:	00300104 	eorseq	r0, r0, r4, lsl #2
    60f4:	008f902b 	addeq	r9, pc, fp, lsr #32
    60f8:	000c3300 	andeq	r3, ip, r0, lsl #6
    60fc:	000bcb00 	andeq	ip, fp, r0, lsl #22
    6100:	50012c00 	andpl	r2, r1, r0, lsl #24
    6104:	012c3801 			; <UNDEFINED> instruction: 0x012c3801
    6108:	d8910351 	ldmle	r1, {r0, r4, r6, r8, r9}
    610c:	52012c7e 	andpl	r2, r1, #32256	; 0x7e00
    6110:	2c800802 	stccs	8, cr0, [r0], {2}
    6114:	02007d02 	andeq	r7, r0, #2, 26	; 0x80
    6118:	022c0076 	eoreq	r0, ip, #118	; 0x76
    611c:	3001047d 	andcc	r0, r1, sp, ror r4
    6120:	8f982d00 	svchi	0x00982d00
    6124:	0f7f0000 	svceq	0x007f0000
    6128:	b42b0000 	strtlt	r0, [fp], #-0
    612c:	8b00008f 	blhi	6370 <_start-0x1c90>
    6130:	0300000f 	movweq	r0, #15
    6134:	2c00000c 	stccs	0, cr0, [r0], {12}
    6138:	03055001 	movweq	r5, #20481	; 0x5001
    613c:	000099c8 	andeq	r9, r0, r8, asr #19
    6140:	0551012c 	ldrbeq	r0, [r1, #-300]	; 0xfffffed4
    6144:	00992003 	addseq	r2, r9, r3
    6148:	52012c00 	andpl	r2, r1, #0, 24
    614c:	9a180305 	bls	606d68 <__bss_end__+0x5fce08>
    6150:	012c0000 			; <UNDEFINED> instruction: 0x012c0000
    6154:	bb080253 	bllt	206aa8 <__bss_end__+0x1fcb48>
    6158:	8fb82d00 	svchi	0x00b82d00
    615c:	0f970000 	svceq	0x00970000
    6160:	00000000 	andeq	r0, r0, r0
    6164:	0001240a 	andeq	r2, r1, sl, lsl #8
    6168:	000c1e00 	andeq	r1, ip, r0, lsl #28
    616c:	002c0b00 	eoreq	r0, ip, r0, lsl #22
    6170:	00090000 	andeq	r0, r9, r0
    6174:	000c0e0f 	andeq	r0, ip, pc, lsl #28
    6178:	011d0a00 	tsteq	sp, r0, lsl #20
    617c:	0c330000 	ldceq	0, cr0, [r3], #-0
    6180:	2c0b0000 	stccs	0, cr0, [fp], {-0}
    6184:	7f000000 	svcvc	0x00000000
    6188:	07ce2e00 	strbeq	r2, [lr, r0, lsl #28]
    618c:	47010000 	strmi	r0, [r1, -r0]
    6190:	0001170e 	andeq	r1, r1, lr, lsl #14
    6194:	008b3000 	addeq	r3, fp, r0
    6198:	0001ac00 	andeq	sl, r1, r0, lsl #24
    619c:	999c0100 	ldmibls	ip, {r8}
    61a0:	2f00000d 	svccs	0x0000000d
    61a4:	000000ad 	andeq	r0, r0, sp, lsr #1
    61a8:	2c1c4701 	ldccs	7, cr4, [ip], {1}
    61ac:	7d000000 	stcvc	0, cr0, [r0, #-0]
    61b0:	7700000c 	strvc	r0, [r0, -ip]
    61b4:	2400000c 	strcs	r0, [r0], #-12
    61b8:	00747364 	rsbseq	r7, r4, r4, ror #6
    61bc:	17284701 	strne	r4, [r8, -r1, lsl #14]!
    61c0:	bb000001 	bllt	61cc <_start-0x1e34>
    61c4:	ab00000c 	blge	61fc <_start-0x1e04>
    61c8:	2400000c 	strcs	r0, [r0], #-12
    61cc:	4701006e 	strmi	r0, [r1, -lr, rrx]
    61d0:	00002531 	andeq	r2, r0, r1, lsr r5
    61d4:	000d1f00 	andeq	r1, sp, r0, lsl #30
    61d8:	000d1b00 	andeq	r1, sp, r0, lsl #22
    61dc:	61762400 	cmnvs	r6, r0, lsl #8
    61e0:	4701006c 	strmi	r0, [r1, -ip, rrx]
    61e4:	00002538 	andeq	r2, r0, r8, lsr r5
    61e8:	000d4700 	andeq	r4, sp, r0, lsl #14
    61ec:	000d3d00 	andeq	r3, sp, r0, lsl #26
    61f0:	07aa2f00 	streq	r2, [sl, r0, lsl #30]!
    61f4:	47010000 	strmi	r0, [r1, -r0]
    61f8:	00002541 	andeq	r2, r0, r1, asr #10
    61fc:	000d9200 	andeq	r9, sp, r0, lsl #4
    6200:	000d8c00 	andeq	r8, sp, r0, lsl #24
    6204:	07992500 	ldreq	r2, [r9, r0, lsl #10]
    6208:	47010000 	strmi	r0, [r1, -r0]
    620c:	0000254c 	andeq	r2, r0, ip, asr #10
    6210:	04910200 	ldreq	r0, [r1], #512	; 0x200
    6214:	66756229 	ldrbtvs	r6, [r5], -r9, lsr #4
    6218:	074c0100 	strbeq	r0, [ip, -r0, lsl #2]
    621c:	00000d99 	muleq	r0, r9, sp
    6220:	7fa89103 	svcvc	0x00a89103
    6224:	01007026 	tsteq	r0, r6, lsr #32
    6228:	0117114c 	tsteq	r7, ip, asr #2
    622c:	0ddc0000 	ldcleq	0, cr0, [ip]
    6230:	0dbc0000 	ldceq	0, cr0, [ip]
    6234:	75260000 	strvc	r0, [r6, #-0]!
    6238:	0b4d0100 	bleq	1346640 <__bss_end__+0x133c6e0>
    623c:	0000002c 	andeq	r0, r0, ip, lsr #32
    6240:	00000eb1 			; <UNDEFINED> instruction: 0x00000eb1
    6244:	00000e9f 	muleq	r0, pc, lr	; <UNPREDICTABLE>
    6248:	0001f727 	andeq	pc, r1, r7, lsr #14
    624c:	000db900 	andeq	fp, sp, r0, lsl #18
    6250:	00030500 	andeq	r0, r3, r0, lsl #10
    6254:	3000009a 	mulcc	r0, sl, r0
    6258:	00008b9c 	muleq	r0, ip, fp
    625c:	00000078 	andeq	r0, r0, r8, ror r0
    6260:	00000d23 	andeq	r0, r0, r3, lsr #26
    6264:	0007b82a 	andeq	fp, r7, sl, lsr #16
    6268:	0d520100 	ldfeqe	f0, [r2, #-0]
    626c:	0000002c 	andeq	r0, r0, ip, lsr #32
    6270:	00000f27 	andeq	r0, r0, r7, lsr #30
    6274:	00000f1f 	andeq	r0, r0, pc, lsl pc
    6278:	8c542b00 	mrrchi	11, 0, r2, r4, cr0
    627c:	0e4b0000 	cdpeq	0, 4, cr0, cr11, cr0, {0}
    6280:	0d370000 	ldceq	0, cr0, [r7, #-0]
    6284:	012c0000 			; <UNDEFINED> instruction: 0x012c0000
    6288:	007d0251 	rsbseq	r0, sp, r1, asr r2
    628c:	8c682b00 			; <UNDEFINED> instruction: 0x8c682b00
    6290:	0dbe0000 	ldceq	0, cr0, [lr]
    6294:	0d570000 	ldcleq	0, cr0, [r7, #-0]
    6298:	012c0000 			; <UNDEFINED> instruction: 0x012c0000
    629c:	00750250 	rsbseq	r0, r5, r0, asr r2
    62a0:	0251012c 	subseq	r0, r1, #44, 2
    62a4:	012c0074 			; <UNDEFINED> instruction: 0x012c0074
    62a8:	007d0253 	rsbseq	r0, sp, r3, asr r2
    62ac:	8ca82d00 	stchi	13, cr2, [r8]
    62b0:	0f7f0000 	svceq	0x007f0000
    62b4:	bc2b0000 	stclt	0, cr0, [fp], #-0
    62b8:	8b00008c 	blhi	64f0 <_start-0x1b10>
    62bc:	8f00000f 	svchi	0x0000000f
    62c0:	2c00000d 	stccs	0, cr0, [r0], {13}
    62c4:	03055001 	movweq	r5, #20481	; 0x5001
    62c8:	00009934 	andeq	r9, r0, r4, lsr r9
    62cc:	0551012c 	ldrbeq	r0, [r1, #-300]	; 0xfffffed4
    62d0:	00992003 	addseq	r2, r9, r3
    62d4:	52012c00 	andpl	r2, r1, #0, 24
    62d8:	9a000305 	bls	6ef4 <_start-0x110c>
    62dc:	012c0000 			; <UNDEFINED> instruction: 0x012c0000
    62e0:	77080253 	smlsdvc	r8, r3, r2, r0
    62e4:	8cc02d00 	stclhi	13, cr2, [r0], {0}
    62e8:	0f970000 	svceq	0x00970000
    62ec:	0a000000 	beq	62f4 <_start-0x1d0c>
    62f0:	0000011d 	andeq	r0, r0, sp, lsl r1
    62f4:	00000da9 	andeq	r0, r0, r9, lsr #27
    62f8:	00002c0b 	andeq	r2, r0, fp, lsl #24
    62fc:	0a003f00 	beq	15f04 <__bss_end__+0xbfa4>
    6300:	00000124 	andeq	r0, r0, r4, lsr #2
    6304:	00000db9 			; <UNDEFINED> instruction: 0x00000db9
    6308:	00002c0b 	andeq	r2, r0, fp, lsl #24
    630c:	0f000400 	svceq	0x00000400
    6310:	00000da9 	andeq	r0, r0, r9, lsr #27
    6314:	0007a22e 	andeq	sl, r7, lr, lsr #4
    6318:	0e370100 	rsfeqs	f0, f7, f0
    631c:	00000117 	andeq	r0, r0, r7, lsl r1
    6320:	00008af8 	strdeq	r8, [r0], -r8	; <UNPREDICTABLE>
    6324:	00000038 	andeq	r0, r0, r8, lsr r0
    6328:	0e4b9c01 	cdpeq	12, 4, cr9, cr11, cr1, {0}
    632c:	64240000 	strtvs	r0, [r4], #-0
    6330:	01007473 	tsteq	r0, r3, ror r4
    6334:	01171c37 	tsteq	r7, r7, lsr ip
    6338:	0f680000 	svceq	0x00680000
    633c:	0f5e0000 	svceq	0x005e0000
    6340:	6e240000 	cdpvs	0, 2, cr0, cr4, cr0, {0}
    6344:	25370100 	ldrcs	r0, [r7, #-256]!	; 0xffffff00
    6348:	00000025 	andeq	r0, r0, r5, lsr #32
    634c:	00000faf 	andeq	r0, r0, pc, lsr #31
    6350:	00000fab 	andeq	r0, r0, fp, lsr #31
    6354:	01007024 	tsteq	r0, r4, lsr #32
    6358:	01172e37 	tsteq	r7, r7, lsr lr
    635c:	0fd80000 	svceq	0x00d80000
    6360:	0fd00000 	svceq	0x00d00000
    6364:	052f0000 	streq	r0, [pc, #-0]!	; 636c <_start-0x1c94>
    6368:	0100000c 	tsteq	r0, ip
    636c:	01173737 	tsteq	r7, r7, lsr r7
    6370:	10120000 	andsne	r0, r2, r0
    6374:	100e0000 	andne	r0, lr, r0
    6378:	6c260000 	stcvs	0, cr0, [r6], #-0
    637c:	01006e65 	tsteq	r0, r5, ror #28
    6380:	00250639 	eoreq	r0, r5, r9, lsr r6
    6384:	10380000 	eorsne	r0, r8, r0
    6388:	10300000 	eorsne	r0, r0, r0
    638c:	73260000 			; <UNDEFINED> instruction: 0x73260000
    6390:	083d0100 	ldmdaeq	sp!, {r8}
    6394:	00000117 	andeq	r0, r0, r7, lsl r1
    6398:	00001086 	andeq	r1, r0, r6, lsl #1
    639c:	00001084 	andeq	r1, r0, r4, lsl #1
    63a0:	61703100 	cmnvs	r0, r0, lsl #2
    63a4:	2e010064 	cdpcs	0, 0, cr0, cr1, cr4, {3}
    63a8:	0001170e 	andeq	r1, r1, lr, lsl #14
    63ac:	008ad400 	addeq	sp, sl, r0, lsl #8
    63b0:	00002400 	andeq	r2, r0, r0, lsl #8
    63b4:	ae9c0100 	fmlgee	f0, f4, f0
    63b8:	2400000e 	strcs	r0, [r0], #-14
    63bc:	2e010070 	mcrcs	0, 0, r0, cr1, cr0, {3}
    63c0:	00011718 	andeq	r1, r1, r8, lsl r7
    63c4:	00109f00 	andseq	r9, r0, r0, lsl #30
    63c8:	00109900 	andseq	r9, r0, r0, lsl #18
    63cc:	00ad2f00 	adceq	r2, sp, r0, lsl #30
    63d0:	2e010000 	cdpcs	0, 0, cr0, cr1, cr0, {0}
    63d4:	00011722 	andeq	r1, r1, r2, lsr #14
    63d8:	0010ce00 	andseq	ip, r0, r0, lsl #28
    63dc:	0010ca00 	andseq	ip, r0, r0, lsl #20
    63e0:	07aa2500 	streq	r2, [sl, r0, lsl #10]!
    63e4:	2e010000 	cdpcs	0, 0, cr0, cr1, cr0, {0}
    63e8:	0000252c 	andeq	r2, r0, ip, lsr #10
    63ec:	26520100 	ldrbcs	r0, [r2], -r0, lsl #2
    63f0:	006e656c 	rsbeq	r6, lr, ip, ror #10
    63f4:	25062f01 	strcs	r2, [r6, #-3841]	; 0xfffff0ff
    63f8:	f1000000 	cps	#0
    63fc:	ef000010 	svc	0x00000010
    6400:	00000010 	andeq	r0, r0, r0, lsl r0
    6404:	0007c62e 	andeq	ip, r7, lr, lsr #12
    6408:	0c270100 	stfeqs	f0, [r7], #-0
    640c:	00000025 	andeq	r0, r0, r5, lsr #32
    6410:	00008ac0 	andeq	r8, r0, r0, asr #21
    6414:	00000014 	andeq	r0, r0, r4, lsl r0
    6418:	0edb9c01 	cdpeq	12, 13, cr9, cr11, cr1, {0}
    641c:	63240000 			; <UNDEFINED> instruction: 0x63240000
    6420:	18270100 	stmdane	r7!, {r8}
    6424:	00000025 	andeq	r0, r0, r5, lsr #32
    6428:	0000110a 	andeq	r1, r0, sl, lsl #2
    642c:	00001104 	andeq	r1, r0, r4, lsl #2
    6430:	078a3200 	streq	r3, [sl, r0, lsl #4]
    6434:	1f010000 	svcne	0x00010000
    6438:	008cdc06 	addeq	sp, ip, r6, lsl #24
    643c:	00005400 	andeq	r5, r0, r0, lsl #8
    6440:	6a9c0100 	bvs	fe706848 <__bss_end__+0xfe6fc8e8>
    6444:	2f00000f 	svccs	0x0000000f
    6448:	000007be 			; <UNDEFINED> instruction: 0x000007be
    644c:	281b1f01 	ldmdacs	fp, {r0, r8, r9, sl, fp, ip}
    6450:	3c000009 	stccc	0, cr0, [r0], {9}
    6454:	38000011 	stmdacc	r0, {r0, r4}
    6458:	2f000011 	svccs	0x00000011
    645c:	000007b0 			; <UNDEFINED> instruction: 0x000007b0
    6460:	49301f01 	ldmdbmi	r0!, {r0, r8, r9, sl, fp, ip}
    6464:	61000009 	tstvs	r0, r9
    6468:	5d000011 	stcpl	0, cr0, [r0, #-68]	; 0xffffffbc
    646c:	27000011 	smladcs	r0, r1, r0, r0
    6470:	000001f7 	strdeq	r0, [r0], -r7
    6474:	00000f7a 	andeq	r0, r0, sl, ror pc
    6478:	9a080305 	bls	207094 <__bss_end__+0x1fd134>
    647c:	042d0000 	strteq	r0, [sp], #-0
    6480:	7f00008d 	svcvc	0x0000008d
    6484:	2b00000f 	blcs	64c8 <_start-0x1b38>
    6488:	00008d18 	andeq	r8, r0, r8, lsl sp
    648c:	00000f8b 	andeq	r0, r0, fp, lsl #31
    6490:	00000f60 	andeq	r0, r0, r0, ror #30
    6494:	0550012c 	ldrbeq	r0, [r0, #-300]	; 0xfffffed4
    6498:	00996c03 	addseq	r6, r9, r3, lsl #24
    649c:	51012c00 	tstpl	r1, r0, lsl #24
    64a0:	99200305 	stmdbls	r0!, {r0, r2, r8, r9}
    64a4:	012c0000 			; <UNDEFINED> instruction: 0x012c0000
    64a8:	08030552 	stmdaeq	r3, {r1, r4, r6, r8, sl}
    64ac:	2c00009a 	stccs	0, cr0, [r0], {154}	; 0x9a
    64b0:	08025301 	stmdaeq	r2, {r0, r8, r9, ip, lr}
    64b4:	1c2d0020 	stcne	0, cr0, [sp], #-128	; 0xffffff80
    64b8:	9700008d 	strls	r0, [r0, -sp, lsl #1]
    64bc:	0000000f 	andeq	r0, r0, pc
    64c0:	0001240a 	andeq	r2, r1, sl, lsl #8
    64c4:	000f7a00 	andeq	r7, pc, r0, lsl #20
    64c8:	002c0b00 	eoreq	r0, ip, r0, lsl #22
    64cc:	000e0000 	andeq	r0, lr, r0
    64d0:	000f6a0f 	andeq	r6, pc, pc, lsl #20
    64d4:	05a03300 	streq	r3, [r0, #768]!	; 0x300
    64d8:	05a00000 	streq	r0, [r0, #0]!
    64dc:	1e060000 	cdpne	0, 0, cr0, cr6, cr0, {0}
    64e0:	06ff3306 	ldrbteq	r3, [pc], r6, lsl #6
    64e4:	06ff0000 	ldrbteq	r0, [pc], r0
    64e8:	29060000 	stmdbcs	r6, {}	; <UNPREDICTABLE>
    64ec:	05d53305 	ldrbeq	r3, [r5, #773]	; 0x305
    64f0:	05d50000 	ldrbeq	r0, [r5]
    64f4:	65060000 	strvs	r0, [r6, #-0]
    64f8:	09ab0006 	stmibeq	fp!, {r1, r2}
    64fc:	00040000 	andeq	r0, r4, r0
    6500:	000013aa 	andeq	r1, r0, sl, lsr #7
    6504:	02cb0104 	sbceq	r0, fp, #4, 2
    6508:	d30c0000 	movwle	r0, #49152	; 0xc000
    650c:	c1000007 	tstgt	r0, r7
    6510:	e0000006 	and	r0, r0, r6
    6514:	2800008f 	stmdacs	r0, {r0, r1, r2, r3, r7}
    6518:	eb000000 	bl	6520 <_start-0x1ae0>
    651c:	02000013 	andeq	r0, r0, #19
    6520:	6e690504 	cdpvs	5, 6, cr0, cr9, cr4, {0}
    6524:	04030074 	streq	r0, [r3], #-116	; 0xffffff8c
    6528:	00005707 	andeq	r5, r0, r7, lsl #14
    652c:	06010300 	streq	r0, [r1], -r0, lsl #6
    6530:	000002ba 			; <UNDEFINED> instruction: 0x000002ba
    6534:	53050203 	movwpl	r0, #20995	; 0x5203
    6538:	03000003 	movweq	r0, #3
    653c:	009d0504 	addseq	r0, sp, r4, lsl #10
    6540:	08030000 	stmdaeq	r3, {}	; <UNPREDICTABLE>
    6544:	00009805 	andeq	r9, r0, r5, lsl #16
    6548:	08010300 	stmdaeq	r1, {r8, r9}
    654c:	000002b8 			; <UNDEFINED> instruction: 0x000002b8
    6550:	0b070203 	bleq	1c6d64 <__bss_end__+0x1bce04>
    6554:	03000002 	movweq	r0, #2
    6558:	00520704 	subseq	r0, r2, r4, lsl #14
    655c:	08030000 	stmdaeq	r3, {}	; <UNPREDICTABLE>
    6560:	00004d07 	andeq	r4, r0, r7, lsl #26
    6564:	024e0400 	subeq	r0, lr, #0, 8
    6568:	22020000 	andcs	r0, r2, #0
    656c:	00007719 	andeq	r7, r0, r9, lsl r7
    6570:	7d040500 	cfstr32vc	mvfx0, [r4, #-0]
    6574:	06000000 	streq	r0, [r0], -r0
    6578:	000003f9 	strdeq	r0, [r0], -r9
    657c:	00029904 	andeq	r9, r2, r4, lsl #18
    6580:	0e2c0300 	cdpeq	3, 2, cr0, cr12, cr0, {0}
    6584:	00000041 	andeq	r0, r0, r1, asr #32
    6588:	00040e04 	andeq	r0, r4, r4, lsl #28
    658c:	0e720300 	cdpeq	3, 7, cr0, cr2, cr0, {0}
    6590:	00000041 	andeq	r0, r0, r1, asr #32
    6594:	00025607 	andeq	r5, r2, r7, lsl #12
    6598:	015e0400 	cmpeq	lr, r0, lsl #8
    659c:	00002c17 	andeq	r2, r0, r7, lsl ip
    65a0:	03040800 	movweq	r0, #18432	; 0x4800
    65a4:	00c903a6 	sbceq	r0, r9, r6, lsr #7
    65a8:	48090000 	stmdami	r9, {}	; <UNPREDICTABLE>
    65ac:	03000002 	movweq	r0, #2
    65b0:	009a0ca8 	addseq	r0, sl, r8, lsr #25
    65b4:	da090000 	ble	2465bc <__bss_end__+0x23c65c>
    65b8:	03000001 	movweq	r0, #1
    65bc:	00c913a9 	sbceq	r1, r9, r9, lsr #7
    65c0:	0a000000 	beq	65c8 <_start-0x1a38>
    65c4:	0000004f 	andeq	r0, r0, pc, asr #32
    65c8:	000000d9 	ldrdeq	r0, [r0], -r9
    65cc:	00002c0b 	andeq	r2, r0, fp, lsl #24
    65d0:	0c000300 	stceq	3, cr0, [r0], {-0}
    65d4:	09a30308 	stmibeq	r3!, {r3, r8, r9}
    65d8:	000000fd 	strdeq	r0, [r0], -sp
    65dc:	0003f10d 	andeq	pc, r3, sp, lsl #2
    65e0:	07a50300 	streq	r0, [r5, r0, lsl #6]!
    65e4:	00000025 	andeq	r0, r0, r5, lsr #32
    65e8:	04000d00 	streq	r0, [r0], #-3328	; 0xfffff300
    65ec:	aa030000 	bge	c65f4 <__bss_end__+0xbc694>
    65f0:	0000a705 	andeq	sl, r0, r5, lsl #14
    65f4:	04000400 	streq	r0, [r0], #-1024	; 0xfffffc00
    65f8:	0000037b 	andeq	r0, r0, fp, ror r3
    65fc:	d903ab03 	stmdble	r3, {r0, r1, r8, r9, fp, sp, pc}
    6600:	04000000 	streq	r0, [r0], #-0
    6604:	00000197 	muleq	r0, r7, r1
    6608:	6b1baf03 	blvs	6f221c <__bss_end__+0x6e82bc>
    660c:	0e000000 	cdpeq	0, 0, cr0, cr0, cr0, {0}
    6610:	1d040504 	cfstr32ne	mvfx0, [r4, #-16]
    6614:	03000001 	movweq	r0, #1
    6618:	02c10801 	sbceq	r0, r1, #65536	; 0x10000
    661c:	1d0f0000 	stcne	0, cr0, [pc, #-0]	; 6624 <_start-0x19dc>
    6620:	04000001 	streq	r0, [r0], #-1
    6624:	00000440 	andeq	r0, r0, r0, asr #8
    6628:	5d191605 	ldcpl	6, cr1, [r9, #-20]	; 0xffffffec
    662c:	10000000 	andne	r0, r0, r0
    6630:	000001a8 	andeq	r0, r0, r8, lsr #3
    6634:	082f0518 	stmdaeq	pc!, {r3, r4, r8, sl}	; <UNPREDICTABLE>
    6638:	0000018f 	andeq	r0, r0, pc, lsl #3
    663c:	00039c0d 	andeq	r9, r3, sp, lsl #24
    6640:	13310500 	teqne	r1, #0, 10
    6644:	0000018f 	andeq	r0, r0, pc, lsl #3
    6648:	6b5f1100 	blvs	17caa50 <__bss_end__+0x17c0af0>
    664c:	07320500 	ldreq	r0, [r2, -r0, lsl #10]!
    6650:	00000025 	andeq	r0, r0, r5, lsr #32
    6654:	03dc0d04 	bicseq	r0, ip, #4, 26	; 0x100
    6658:	32050000 	andcc	r0, r5, #0
    665c:	0000250b 	andeq	r2, r0, fp, lsl #10
    6660:	910d0800 	tstls	sp, r0, lsl #16
    6664:	05000001 	streq	r0, [r0, #-1]
    6668:	00251432 	eoreq	r1, r5, r2, lsr r4
    666c:	0d0c0000 	stceq	0, cr0, [ip, #-0]
    6670:	0000047c 	andeq	r0, r0, ip, ror r4
    6674:	251b3205 	ldrcs	r3, [fp, #-517]	; 0xfffffdfb
    6678:	10000000 	andne	r0, r0, r0
    667c:	00785f11 	rsbseq	r5, r8, r1, lsl pc
    6680:	950b3305 	strls	r3, [fp, #-773]	; 0xfffffcfb
    6684:	14000001 	strne	r0, [r0], #-1
    6688:	35040500 	strcc	r0, [r4, #-1280]	; 0xfffffb00
    668c:	0a000001 	beq	6698 <_start-0x1968>
    6690:	00000129 	andeq	r0, r0, r9, lsr #2
    6694:	000001a5 	andeq	r0, r0, r5, lsr #3
    6698:	00002c0b 	andeq	r2, r0, fp, lsl #24
    669c:	10000000 	andne	r0, r0, r0
    66a0:	000001d5 	ldrdeq	r0, [r0], -r5
    66a4:	08370524 	ldmdaeq	r7!, {r2, r5, r8, sl}
    66a8:	00000228 	andeq	r0, r0, r8, lsr #4
    66ac:	00008f0d 	andeq	r8, r0, sp, lsl #30
    66b0:	09390500 	ldmdbeq	r9!, {r8, sl}
    66b4:	00000025 	andeq	r0, r0, r5, lsr #32
    66b8:	04160d00 	ldreq	r0, [r6], #-3328	; 0xfffff300
    66bc:	3a050000 	bcc	1466c4 <__bss_end__+0x13c764>
    66c0:	00002509 	andeq	r2, r0, r9, lsl #10
    66c4:	b20d0400 	andlt	r0, sp, #0, 8
    66c8:	05000000 	streq	r0, [r0, #-0]
    66cc:	0025093b 	eoreq	r0, r5, fp, lsr r9
    66d0:	0d080000 	stceq	0, cr0, [r8, #-0]
    66d4:	00000504 	andeq	r0, r0, r4, lsl #10
    66d8:	25093c05 	strcs	r3, [r9, #-3077]	; 0xfffff3fb
    66dc:	0c000000 	stceq	0, cr0, [r0], {-0}
    66e0:	00027d0d 	andeq	r7, r2, sp, lsl #26
    66e4:	093d0500 	ldmdbeq	sp!, {r8, sl}
    66e8:	00000025 	andeq	r0, r0, r5, lsr #32
    66ec:	026c0d10 	rsbeq	r0, ip, #16, 26	; 0x400
    66f0:	3e050000 	cdpcc	0, 0, cr0, cr5, cr0, {0}
    66f4:	00002509 	andeq	r2, r0, r9, lsl #10
    66f8:	810d1400 	tsthi	sp, r0, lsl #8
    66fc:	05000004 	streq	r0, [r0, #-4]
    6700:	0025093f 	eoreq	r0, r5, pc, lsr r9
    6704:	0d180000 	ldceq	0, cr0, [r8, #-0]
    6708:	0000035d 	andeq	r0, r0, sp, asr r3
    670c:	25094005 	strcs	r4, [r9, #-5]
    6710:	1c000000 	stcne	0, cr0, [r0], {-0}
    6714:	0004cb0d 	andeq	ip, r4, sp, lsl #22
    6718:	09410500 	stmdbeq	r1, {r8, sl}^
    671c:	00000025 	andeq	r0, r0, r5, lsr #32
    6720:	f2120020 	vhadd.s16	d0, d2, d16
    6724:	08000000 	stmdaeq	r0, {}	; <UNPREDICTABLE>
    6728:	084a0501 	stmdaeq	sl, {r0, r8, sl}^
    672c:	0000026d 	andeq	r0, r0, sp, ror #4
    6730:	0001840d 	andeq	r8, r1, sp, lsl #8
    6734:	0a4b0500 	beq	12c7b3c <__bss_end__+0x12bdbdc>
    6738:	0000026d 	andeq	r0, r0, sp, ror #4
    673c:	00000d00 	andeq	r0, r0, r0, lsl #26
    6740:	4c050000 	stcmi	0, cr0, [r5], {-0}
    6744:	00026d09 	andeq	r6, r2, r9, lsl #26
    6748:	32138000 	andscc	r8, r3, #0
    674c:	05000004 	streq	r0, [r0, #-4]
    6750:	01290a4e 			; <UNDEFINED> instruction: 0x01290a4e
    6754:	01000000 	mrseq	r0, (UNDEF: 0)
    6758:	00011713 	andeq	r1, r1, r3, lsl r7
    675c:	0a510500 	beq	1447b64 <__bss_end__+0x143dc04>
    6760:	00000129 	andeq	r0, r0, r9, lsr #2
    6764:	0a000104 	beq	6b7c <_start-0x1484>
    6768:	00000115 	andeq	r0, r0, r5, lsl r1
    676c:	0000027d 	andeq	r0, r0, sp, ror r2
    6770:	00002c0b 	andeq	r2, r0, fp, lsl #24
    6774:	12001f00 	andne	r1, r0, #0, 30
    6778:	00000286 	andeq	r0, r0, r6, lsl #5
    677c:	5d050190 	stfpls	f0, [r5, #-576]	; 0xfffffdc0
    6780:	0002c008 	andeq	ip, r2, r8
    6784:	039c0d00 	orrseq	r0, ip, #0, 26
    6788:	5e050000 	cdppl	0, 0, cr0, cr5, cr0, {0}
    678c:	0002c012 	andeq	ip, r2, r2, lsl r0
    6790:	b40d0000 	strlt	r0, [sp], #-0
    6794:	05000003 	streq	r0, [r0, #-3]
    6798:	0025065f 	eoreq	r0, r5, pc, asr r6
    679c:	0d040000 	stceq	0, cr0, [r4, #-0]
    67a0:	0000018c 	andeq	r0, r0, ip, lsl #3
    67a4:	c6096105 	strgt	r6, [r9], -r5, lsl #2
    67a8:	08000002 	stmdaeq	r0, {r1}
    67ac:	0000f20d 	andeq	pc, r0, sp, lsl #4
    67b0:	1e620500 	cdpne	5, 6, cr0, cr2, cr0, {0}
    67b4:	00000228 	andeq	r0, r0, r8, lsr #4
    67b8:	04050088 	streq	r0, [r5], #-136	; 0xffffff78
    67bc:	0000027d 	andeq	r0, r0, sp, ror r2
    67c0:	0002d60a 	andeq	sp, r2, sl, lsl #12
    67c4:	0002d600 	andeq	sp, r2, r0, lsl #12
    67c8:	002c0b00 	eoreq	r0, ip, r0, lsl #22
    67cc:	001f0000 	andseq	r0, pc, r0
    67d0:	02dc0405 	sbcseq	r0, ip, #83886080	; 0x5000000
    67d4:	10140000 	andsne	r0, r4, r0
    67d8:	00000367 	andeq	r0, r0, r7, ror #6
    67dc:	08750508 	ldmdaeq	r5!, {r3, r8, sl}^
    67e0:	00000305 	andeq	r0, r0, r5, lsl #6
    67e4:	0000ac0d 	andeq	sl, r0, sp, lsl #24
    67e8:	11760500 	cmnne	r6, r0, lsl #10
    67ec:	00000305 	andeq	r0, r0, r5, lsl #6
    67f0:	000c0d00 	andeq	r0, ip, r0, lsl #26
    67f4:	77050000 	strvc	r0, [r5, -r0]
    67f8:	00002506 	andeq	r2, r0, r6, lsl #10
    67fc:	05000400 	streq	r0, [r0, #-1024]	; 0xfffffc00
    6800:	00004f04 	andeq	r4, r0, r4, lsl #30
    6804:	03861000 	orreq	r1, r6, #0
    6808:	05680000 	strbeq	r0, [r8, #-0]!
    680c:	044e08b5 	strbeq	r0, [lr], #-2229	; 0xfffff74b
    6810:	5f110000 	svcpl	0x00110000
    6814:	b6050070 			; <UNDEFINED> instruction: 0xb6050070
    6818:	00030512 	andeq	r0, r3, r2, lsl r5
    681c:	5f110000 	svcpl	0x00110000
    6820:	b7050072 	smlsdxlt	r5, r2, r0, r0
    6824:	00002507 	andeq	r2, r0, r7, lsl #10
    6828:	5f110400 	svcpl	0x00110400
    682c:	b8050077 	stmdalt	r5, {r0, r1, r2, r4, r5, r6}
    6830:	00002507 	andeq	r2, r0, r7, lsl #10
    6834:	100d0800 	andne	r0, sp, r0, lsl #16
    6838:	05000001 	streq	r0, [r0, #-1]
    683c:	003a09b9 	ldrhteq	r0, [sl], -r9
    6840:	0d0c0000 	stceq	0, cr0, [ip, #-0]
    6844:	000001f1 	strdeq	r0, [r0], -r1
    6848:	3a09ba05 	bcc	275064 <__bss_end__+0x26b104>
    684c:	0e000000 	cdpeq	0, 0, cr0, cr0, cr0, {0}
    6850:	66625f11 	uqadd16vs	r5, r2, r1
    6854:	11bb0500 			; <UNDEFINED> instruction: 0x11bb0500
    6858:	000002dd 	ldrdeq	r0, [r0], -sp
    685c:	006c0d10 	rsbeq	r0, ip, r0, lsl sp
    6860:	bc050000 	stclt	0, cr0, [r5], {-0}
    6864:	00002507 	andeq	r2, r0, r7, lsl #10
    6868:	000d1800 	andeq	r1, sp, r0, lsl #16
    686c:	05000001 	streq	r0, [r0, #-1]
    6870:	01150ac3 	tsteq	r5, r3, asr #21
    6874:	0d1c0000 	ldceq	0, cr0, [ip, #-0]
    6878:	00000b24 	andeq	r0, r0, r4, lsr #22
    687c:	c01dc505 	andsgt	ip, sp, r5, lsl #10
    6880:	20000005 	andcs	r0, r0, r5
    6884:	0006190d 	andeq	r1, r6, sp, lsl #18
    6888:	1dc70500 	cfstr64ne	mvdx0, [r7]
    688c:	000005ea 	andeq	r0, r0, sl, ror #11
    6890:	04080d24 	streq	r0, [r8], #-3364	; 0xfffff2dc
    6894:	ca050000 	bgt	14689c <__bss_end__+0x13c93c>
    6898:	00060e0d 	andeq	r0, r6, sp, lsl #28
    689c:	e50d2800 	str	r2, [sp, #-2048]	; 0xfffff800
    68a0:	05000004 	streq	r0, [r0, #-4]
    68a4:	062809cb 	strteq	r0, [r8], -fp, asr #19
    68a8:	112c0000 			; <UNDEFINED> instruction: 0x112c0000
    68ac:	0062755f 	rsbeq	r7, r2, pc, asr r5
    68b0:	dd11ce05 	ldcle	14, cr12, [r1, #-20]	; 0xffffffec
    68b4:	30000002 	andcc	r0, r0, r2
    68b8:	70755f11 	rsbsvc	r5, r5, r1, lsl pc
    68bc:	12cf0500 	sbcne	r0, pc, #0, 10
    68c0:	00000305 	andeq	r0, r0, r5, lsl #6
    68c4:	755f1138 	ldrbvc	r1, [pc, #-312]	; 6794 <_start-0x186c>
    68c8:	d0050072 	andle	r0, r5, r2, ror r0
    68cc:	00002507 	andeq	r2, r0, r7, lsl #10
    68d0:	a60d3c00 	strge	r3, [sp], -r0, lsl #24
    68d4:	05000000 	streq	r0, [r0, #-0]
    68d8:	062e11d3 			; <UNDEFINED> instruction: 0x062e11d3
    68dc:	0d400000 	stcleq	0, cr0, [r0, #-0]
    68e0:	000004bd 			; <UNDEFINED> instruction: 0x000004bd
    68e4:	3e11d405 	cfmulscc	mvf13, mvf1, mvf5
    68e8:	43000006 	movwmi	r0, #6
    68ec:	626c5f11 	rsbvs	r5, ip, #17, 30	; 0x44
    68f0:	11d70500 	bicsne	r0, r7, r0, lsl #10
    68f4:	000002dd 	ldrdeq	r0, [r0], -sp
    68f8:	01350d44 	teqeq	r5, r4, asr #26
    68fc:	da050000 	ble	146904 <__bss_end__+0x13c9a4>
    6900:	00002507 	andeq	r2, r0, r7, lsl #10
    6904:	460d4c00 	strmi	r4, [sp], -r0, lsl #24
    6908:	05000001 	streq	r0, [r0, #-1]
    690c:	00820adb 	ldrdeq	r0, [r2], fp
    6910:	0d500000 	ldcleq	0, cr0, [r0, #-0]
    6914:	00000ac5 	andeq	r0, r0, r5, asr #21
    6918:	6c12de05 	ldcvs	14, cr13, [r2], {5}
    691c:	54000004 	strpl	r0, [r0], #-4
    6920:	0003fa0d 	andeq	pc, r3, sp, lsl #20
    6924:	0ce20500 	cfstr64eq	mvdx0, [r2]
    6928:	00000109 	andeq	r0, r0, r9, lsl #2
    692c:	038e0d58 	orreq	r0, lr, #88, 26	; 0x1600
    6930:	e4050000 	str	r0, [r5], #-0
    6934:	0000fd0e 	andeq	pc, r0, lr, lsl #26
    6938:	640d5c00 	strvs	r5, [sp], #-3072	; 0xfffff400
    693c:	05000002 	streq	r0, [r0, #-2]
    6940:	002509e5 	eoreq	r0, r5, r5, ror #19
    6944:	00640000 	rsbeq	r0, r4, r0
    6948:	00002515 	andeq	r2, r0, r5, lsl r5
    694c:	00046c00 	andeq	r6, r4, r0, lsl #24
    6950:	046c1600 	strbteq	r1, [ip], #-1536	; 0xfffffa00
    6954:	15160000 	ldrne	r0, [r6, #-0]
    6958:	16000001 	strne	r0, [r0], -r1
    695c:	00000117 	andeq	r0, r0, r7, lsl r1
    6960:	00002516 	andeq	r2, r0, r6, lsl r5
    6964:	04050000 	streq	r0, [r5], #-0
    6968:	00000477 	andeq	r0, r0, r7, ror r4
    696c:	00046c0f 	andeq	r6, r4, pc, lsl #24
    6970:	03e41700 	mvneq	r1, #0, 14
    6974:	04280000 	strteq	r0, [r8], #-0
    6978:	08026005 	stmdaeq	r2, {r0, r2, sp, lr}
    697c:	000005c0 	andeq	r0, r0, r0, asr #11
    6980:	00034c18 	andeq	r4, r3, r8, lsl ip
    6984:	02620500 	rsbeq	r0, r2, #0, 10
    6988:	00002507 	andeq	r2, r0, r7, lsl #10
    698c:	91180000 	tstls	r8, r0
    6990:	05000004 	streq	r0, [r0, #-4]
    6994:	9a0b0267 	bls	2c7338 <__bss_end__+0x2bd3d8>
    6998:	04000006 	streq	r0, [r0], #-6
    699c:	0001e118 	andeq	lr, r1, r8, lsl r1
    69a0:	02670500 	rsbeq	r0, r7, #0, 10
    69a4:	00069a14 	andeq	r9, r6, r4, lsl sl
    69a8:	a0180800 	andsge	r0, r8, r0, lsl #16
    69ac:	05000001 	streq	r0, [r0, #-1]
    69b0:	9a1e0267 	bls	787354 <__bss_end__+0x77d3f4>
    69b4:	0c000006 	stceq	0, cr0, [r0], {6}
    69b8:	0003af18 	andeq	sl, r3, r8, lsl pc
    69bc:	02690500 	rsbeq	r0, r9, #0, 10
    69c0:	00002508 	andeq	r2, r0, r8, lsl #10
    69c4:	1a181000 	bne	60a9cc <__bss_end__+0x600a6c>
    69c8:	05000000 	streq	r0, [r0, #-0]
    69cc:	9a08026a 	bls	20737c <__bss_end__+0x1fd41c>
    69d0:	14000008 	strne	r0, [r0], #-8
    69d4:	0003c318 	andeq	ip, r3, r8, lsl r3
    69d8:	026d0500 	rsbeq	r0, sp, #0, 10
    69dc:	00002507 	andeq	r2, r0, r7, lsl #10
    69e0:	01183000 	tsteq	r8, r0
    69e4:	0500000a 	streq	r0, [r0, #-10]
    69e8:	af16026e 	svcge	0x0016026e
    69ec:	34000008 	strcc	r0, [r0], #-8
    69f0:	00028e18 	andeq	r8, r2, r8, lsl lr
    69f4:	02700500 	rsbseq	r0, r0, #0, 10
    69f8:	00002507 	andeq	r2, r0, r7, lsl #10
    69fc:	b9183800 	ldmdblt	r8, {fp, ip, sp}
    6a00:	05000003 	streq	r0, [r0, #-3]
    6a04:	c00a0272 	andgt	r0, sl, r2, ror r2
    6a08:	3c000008 	stccc	0, cr0, [r0], {8}
    6a0c:	00024018 	andeq	r4, r2, r8, lsl r0
    6a10:	02750500 	rsbseq	r0, r5, #0, 10
    6a14:	00018f13 	andeq	r8, r1, r3, lsl pc
    6a18:	bf184000 	svclt	0x00184000
    6a1c:	05000001 	streq	r0, [r0, #-1]
    6a20:	25070276 	strcs	r0, [r7, #-630]	; 0xfffffd8a
    6a24:	44000000 	strmi	r0, [r0], #-0
    6a28:	0004ff18 	andeq	pc, r4, r8, lsl pc	; <UNPREDICTABLE>
    6a2c:	02770500 	rsbseq	r0, r7, #0, 10
    6a30:	00018f13 	andeq	r8, r1, r3, lsl pc
    6a34:	a0184800 	andsge	r4, r8, r0, lsl #16
    6a38:	05000002 	streq	r0, [r0, #-2]
    6a3c:	c6140278 			; <UNDEFINED> instruction: 0xc6140278
    6a40:	4c000008 	stcmi	0, cr0, [r0], {8}
    6a44:	0001e918 	andeq	lr, r1, r8, lsl r9
    6a48:	027b0500 	rsbseq	r0, fp, #0, 10
    6a4c:	00002507 	andeq	r2, r0, r7, lsl #10
    6a50:	3e185000 	cdpcc	0, 1, cr5, cr8, cr0, {0}
    6a54:	05000001 	streq	r0, [r0, #-1]
    6a58:	1709027c 	smlsdxne	r9, ip, r2, r0
    6a5c:	54000001 	strpl	r0, [r0], #-1
    6a60:	0002c618 	andeq	ip, r2, r8, lsl r6
    6a64:	029f0500 	addseq	r0, pc, #0, 10
    6a68:	00087507 	andeq	r7, r8, r7, lsl #10
    6a6c:	86195800 	ldrhi	r5, [r9], -r0, lsl #16
    6a70:	05000002 	streq	r0, [r0, #-2]
    6a74:	c01302a3 	andsgt	r0, r3, r3, lsr #5
    6a78:	48000002 	stmdami	r0, {r1}
    6a7c:	021e1901 	andseq	r1, lr, #16384	; 0x4000
    6a80:	a4050000 	strge	r0, [r5], #-0
    6a84:	027d1202 	rsbseq	r1, sp, #536870912	; 0x20000000
    6a88:	014c0000 	mrseq	r0, (UNDEF: 76)
    6a8c:	0004ab19 	andeq	sl, r4, r9, lsl fp
    6a90:	02a80500 	adceq	r0, r8, #0, 10
    6a94:	0008d70c 	andeq	sp, r8, ip, lsl #14
    6a98:	1902dc00 	stmdbne	r2, {sl, fp, ip, lr, pc}
    6a9c:	00000108 	andeq	r0, r0, r8, lsl #2
    6aa0:	1002ad05 	andne	sl, r2, r5, lsl #26
    6aa4:	0000065b 	andeq	r0, r0, fp, asr r6
    6aa8:	ed1902e0 	lfm	f0, 4, [r9, #-896]	; 0xfffffc80
    6aac:	05000000 	streq	r0, [r0, #-0]
    6ab0:	e30a02af 	movw	r0, #41647	; 0xa2af
    6ab4:	ec000008 	stc	0, cr0, [r0], {8}
    6ab8:	04050002 	streq	r0, [r5], #-2
    6abc:	0000044e 	andeq	r0, r0, lr, asr #8
    6ac0:	00002515 	andeq	r2, r0, r5, lsl r5
    6ac4:	0005e400 	andeq	lr, r5, r0, lsl #8
    6ac8:	046c1600 	strbteq	r1, [ip], #-1536	; 0xfffffa00
    6acc:	15160000 	ldrne	r0, [r6, #-0]
    6ad0:	16000001 	strne	r0, [r0], -r1
    6ad4:	000005e4 	andeq	r0, r0, r4, ror #11
    6ad8:	00002516 	andeq	r2, r0, r6, lsl r5
    6adc:	04050000 	streq	r0, [r5], #-0
    6ae0:	00000124 	andeq	r0, r0, r4, lsr #2
    6ae4:	05c60405 	strbeq	r0, [r6, #1029]	; 0x405
    6ae8:	8e150000 	cdphi	0, 1, cr0, cr5, cr0, {0}
    6aec:	0e000000 	cdpeq	0, 0, cr0, cr0, cr0, {0}
    6af0:	16000006 	strne	r0, [r0], -r6
    6af4:	0000046c 	andeq	r0, r0, ip, ror #8
    6af8:	00011516 	andeq	r1, r1, r6, lsl r5
    6afc:	008e1600 	addeq	r1, lr, r0, lsl #12
    6b00:	25160000 	ldrcs	r0, [r6, #-0]
    6b04:	00000000 	andeq	r0, r0, r0
    6b08:	05f00405 	ldrbeq	r0, [r0, #1029]!	; 0x405
    6b0c:	25150000 	ldrcs	r0, [r5, #-0]
    6b10:	28000000 	stmdacs	r0, {}	; <UNPREDICTABLE>
    6b14:	16000006 	strne	r0, [r0], -r6
    6b18:	0000046c 	andeq	r0, r0, ip, ror #8
    6b1c:	00011516 	andeq	r1, r1, r6, lsl r5
    6b20:	04050000 	streq	r0, [r5], #-0
    6b24:	00000614 	andeq	r0, r0, r4, lsl r6
    6b28:	00004f0a 	andeq	r4, r0, sl, lsl #30
    6b2c:	00063e00 	andeq	r3, r6, r0, lsl #28
    6b30:	002c0b00 	eoreq	r0, ip, r0, lsl #22
    6b34:	00020000 	andeq	r0, r2, r0
    6b38:	00004f0a 	andeq	r4, r0, sl, lsl #30
    6b3c:	00064e00 	andeq	r4, r6, r0, lsl #28
    6b40:	002c0b00 	eoreq	r0, ip, r0, lsl #22
    6b44:	00000000 	andeq	r0, r0, r0
    6b48:	00037407 	andeq	r7, r3, r7, lsl #8
    6b4c:	011f0500 	tsteq	pc, r0, lsl #10
    6b50:	00030b1a 	andeq	r0, r3, sl, lsl fp
    6b54:	048b1a00 	streq	r1, [fp], #2560	; 0xa00
    6b58:	050c0000 	streq	r0, [ip, #-0]
    6b5c:	94080123 	strls	r0, [r8], #-291	; 0xfffffedd
    6b60:	18000006 	stmdane	r0, {r1, r2}
    6b64:	0000039c 	muleq	r0, ip, r3
    6b68:	11012505 	tstne	r1, r5, lsl #10
    6b6c:	00000694 	muleq	r0, r4, r6
    6b70:	02041800 	andeq	r1, r4, #0, 16
    6b74:	26050000 	strcs	r0, [r5], -r0
    6b78:	00250701 	eoreq	r0, r5, r1, lsl #14
    6b7c:	18040000 	stmdane	r4, {}	; <UNPREDICTABLE>
    6b80:	0000036e 	andeq	r0, r0, lr, ror #6
    6b84:	0b012705 	bleq	507a0 <__bss_end__+0x46840>
    6b88:	0000069a 	muleq	r0, sl, r6
    6b8c:	04050008 	streq	r0, [r5], #-8
    6b90:	0000065b 	andeq	r0, r0, fp, asr r6
    6b94:	064e0405 	strbeq	r0, [lr], -r5, lsl #8
    6b98:	121a0000 	andsne	r0, sl, #0
    6b9c:	0e000000 	cdpeq	0, 0, cr0, cr0, cr0, {0}
    6ba0:	08013f05 	stmdaeq	r1, {r0, r2, r8, r9, sl, fp, ip, sp}
    6ba4:	000006d9 	ldrdeq	r0, [r0], -r9
    6ba8:	0003eb18 	andeq	lr, r3, r8, lsl fp
    6bac:	01400500 	cmpeq	r0, r0, lsl #10
    6bb0:	0006d912 	andeq	sp, r6, r2, lsl r9
    6bb4:	1f180000 	svcne	0x00180000
    6bb8:	05000004 	streq	r0, [r0, #-4]
    6bbc:	d9120141 	ldmdble	r2, {r0, r6, r8}
    6bc0:	06000006 	streq	r0, [r0], -r6
    6bc4:	00043b18 	andeq	r3, r4, r8, lsl fp
    6bc8:	01420500 	cmpeq	r2, r0, lsl #10
    6bcc:	00005612 	andeq	r5, r0, r2, lsl r6
    6bd0:	0a000c00 	beq	9bd8 <buf.4297+0x7c>
    6bd4:	00000056 	andeq	r0, r0, r6, asr r0
    6bd8:	000006e9 	andeq	r0, r0, r9, ror #13
    6bdc:	00002c0b 	andeq	r2, r0, fp, lsl #24
    6be0:	1b000200 	blne	73e8 <_start-0xc18>
    6be4:	028005d0 	addeq	r0, r0, #208, 10	; 0x34000000
    6be8:	0007fe07 	andeq	pc, r7, r7, lsl #28
    6bec:	046f1800 	strbteq	r1, [pc], #-2048	; 6bf4 <_start-0x140c>
    6bf0:	82050000 	andhi	r0, r5, #0
    6bf4:	002c1802 	eoreq	r1, ip, r2, lsl #16
    6bf8:	18000000 	stmdane	r0, {}	; <UNPREDICTABLE>
    6bfc:	00000425 	andeq	r0, r0, r5, lsr #8
    6c00:	12028305 	andne	r8, r2, #335544320	; 0x14000000
    6c04:	00000117 	andeq	r0, r0, r7, lsl r1
    6c08:	02331804 	eorseq	r1, r3, #4, 16	; 0x40000
    6c0c:	84050000 	strhi	r0, [r5], #-0
    6c10:	07fe1002 	ldrbeq	r1, [lr, r2]!
    6c14:	18080000 	stmdane	r8, {}	; <UNPREDICTABLE>
    6c18:	000004d6 	ldrdeq	r0, [r0], -r6
    6c1c:	17028505 	strne	r8, [r2, -r5, lsl #10]
    6c20:	000001a5 	andeq	r0, r0, r5, lsr #3
    6c24:	01b01824 	lsrseq	r1, r4, #16
    6c28:	86050000 	strhi	r0, [r5], -r0
    6c2c:	00250f02 	eoreq	r0, r5, r2, lsl #30
    6c30:	18480000 	stmdane	r8, {}^	; <UNPREDICTABLE>
    6c34:	00000397 	muleq	r0, r7, r3
    6c38:	2c028705 	stccs	7, cr8, [r2], {5}
    6c3c:	00000064 	andeq	r0, r0, r4, rrx
    6c40:	04ec1850 	strbteq	r1, [ip], #2128	; 0x850
    6c44:	88050000 	stmdahi	r5, {}	; <UNPREDICTABLE>
    6c48:	06a01a02 	strteq	r1, [r0], r2, lsl #20
    6c4c:	18580000 	ldmdane	r8, {}^	; <UNPREDICTABLE>
    6c50:	000003a2 	andeq	r0, r0, r2, lsr #7
    6c54:	16028905 	strne	r8, [r2], -r5, lsl #18
    6c58:	000000fd 	strdeq	r0, [r0], -sp
    6c5c:	04f11868 	ldrbteq	r1, [r1], #2152	; 0x868
    6c60:	8a050000 	bhi	146c68 <__bss_end__+0x13cd08>
    6c64:	00fd1602 	rscseq	r1, sp, r2, lsl #12
    6c68:	18700000 	ldmdane	r0!, {}^	; <UNPREDICTABLE>
    6c6c:	000002aa 	andeq	r0, r0, sl, lsr #5
    6c70:	16028b05 	strne	r8, [r2], -r5, lsl #22
    6c74:	000000fd 	strdeq	r0, [r0], -sp
    6c78:	04a11878 	strteq	r1, [r1], #2168	; 0x878
    6c7c:	8c050000 	stchi	0, cr0, [r5], {-0}
    6c80:	080e1002 	stmdaeq	lr, {r1, ip}
    6c84:	18800000 	stmne	r0, {}	; <UNPREDICTABLE>
    6c88:	00000227 	andeq	r0, r0, r7, lsr #4
    6c8c:	10028d05 	andne	r8, r2, r5, lsl #26
    6c90:	0000081e 	andeq	r0, r0, lr, lsl r8
    6c94:	04481888 	strbeq	r1, [r8], #-2184	; 0xfffff778
    6c98:	8e050000 	cdphi	0, 0, cr0, cr5, cr0, {0}
    6c9c:	00250f02 	eoreq	r0, r5, r2, lsl #30
    6ca0:	18a00000 	stmiane	r0!, {}	; <UNPREDICTABLE>
    6ca4:	00000176 	andeq	r0, r0, r6, ror r1
    6ca8:	16028f05 	strne	r8, [r2], -r5, lsl #30
    6cac:	000000fd 	strdeq	r0, [r0], -sp
    6cb0:	008018a4 	addeq	r1, r0, r4, lsr #17
    6cb4:	90050000 	andls	r0, r5, r0
    6cb8:	00fd1602 	rscseq	r1, sp, r2, lsl #12
    6cbc:	18ac0000 	stmiane	ip!, {}	; <UNPREDICTABLE>
    6cc0:	00000165 	andeq	r0, r0, r5, ror #2
    6cc4:	16029105 	strne	r9, [r2], -r5, lsl #2
    6cc8:	000000fd 	strdeq	r0, [r0], -sp
    6ccc:	002d18b4 	strhteq	r1, [sp], -r4
    6cd0:	92050000 	andls	r0, r5, #0
    6cd4:	00fd1602 	rscseq	r1, sp, r2, lsl #12
    6cd8:	18bc0000 	ldmne	ip!, {}	; <UNPREDICTABLE>
    6cdc:	0000003c 	andeq	r0, r0, ip, lsr r0
    6ce0:	16029305 	strne	r9, [r2], -r5, lsl #6
    6ce4:	000000fd 	strdeq	r0, [r0], -sp
    6ce8:	034a18c4 	movteq	r1, #43204	; 0xa8c4
    6cec:	94050000 	strls	r0, [r5], #-0
    6cf0:	00250802 	eoreq	r0, r5, r2, lsl #16
    6cf4:	00cc0000 	sbceq	r0, ip, r0
    6cf8:	00011d0a 	andeq	r1, r1, sl, lsl #26
    6cfc:	00080e00 	andeq	r0, r8, r0, lsl #28
    6d00:	002c0b00 	eoreq	r0, ip, r0, lsl #22
    6d04:	00190000 	andseq	r0, r9, r0
    6d08:	00011d0a 	andeq	r1, r1, sl, lsl #26
    6d0c:	00081e00 	andeq	r1, r8, r0, lsl #28
    6d10:	002c0b00 	eoreq	r0, ip, r0, lsl #22
    6d14:	00070000 	andeq	r0, r7, r0
    6d18:	00011d0a 	andeq	r1, r1, sl, lsl #26
    6d1c:	00082e00 	andeq	r2, r8, r0, lsl #28
    6d20:	002c0b00 	eoreq	r0, ip, r0, lsl #22
    6d24:	00170000 	andseq	r0, r7, r0
    6d28:	9905f01b 	stmdbls	r5, {r0, r1, r3, r4, ip, sp, lr, pc}
    6d2c:	08550702 	ldmdaeq	r5, {r1, r8, r9, sl}^
    6d30:	76180000 	ldrvc	r0, [r8], -r0
    6d34:	05000002 	streq	r0, [r0, #-2]
    6d38:	551b029c 	ldrpl	r0, [fp, #-668]	; 0xfffffd64
    6d3c:	00000008 	andeq	r0, r0, r8
    6d40:	00049818 	andeq	r9, r4, r8, lsl r8
    6d44:	029d0500 	addseq	r0, sp, #0, 10
    6d48:	00086518 	andeq	r6, r8, r8, lsl r5
    6d4c:	0a007800 	beq	24d54 <__bss_end__+0x1adf4>
    6d50:	00000305 	andeq	r0, r0, r5, lsl #6
    6d54:	00000865 	andeq	r0, r0, r5, ror #16
    6d58:	00002c0b 	andeq	r2, r0, fp, lsl #24
    6d5c:	0a001d00 	beq	e164 <__bss_end__+0x4204>
    6d60:	0000002c 	andeq	r0, r0, ip, lsr #32
    6d64:	00000875 	andeq	r0, r0, r5, ror r8
    6d68:	00002c0b 	andeq	r2, r0, fp, lsl #24
    6d6c:	1c001d00 	stcne	13, cr1, [r0], {-0}
    6d70:	027e05f0 	rsbseq	r0, lr, #240, 10	; 0x3c000000
    6d74:	00089a03 	andeq	r9, r8, r3, lsl #20
    6d78:	03e41d00 	mvneq	r1, #0, 26
    6d7c:	95050000 	strls	r0, [r5, #-0]
    6d80:	06e90b02 	strbteq	r0, [r9], r2, lsl #22
    6d84:	c31d0000 	tstgt	sp, #0
    6d88:	05000004 	streq	r0, [r0, #-4]
    6d8c:	2e0b029e 	mcrcs	2, 0, r0, cr11, cr14, {4}
    6d90:	00000008 	andeq	r0, r0, r8
    6d94:	00011d0a 	andeq	r1, r1, sl, lsl #26
    6d98:	0008aa00 	andeq	sl, r8, r0, lsl #20
    6d9c:	002c0b00 	eoreq	r0, ip, r0, lsl #22
    6da0:	00180000 	andseq	r0, r8, r0
    6da4:	00007506 	andeq	r7, r0, r6, lsl #10
    6da8:	aa040500 	bge	1081b0 <__bss_end__+0xfe250>
    6dac:	1e000008 	cdpne	0, 0, cr0, cr0, cr8, {0}
    6db0:	000008c0 	andeq	r0, r0, r0, asr #17
    6db4:	00046c16 	andeq	r6, r4, r6, lsl ip
    6db8:	04050000 	streq	r0, [r5], #-0
    6dbc:	000008b5 			; <UNDEFINED> instruction: 0x000008b5
    6dc0:	018f0405 	orreq	r0, pc, r5, lsl #8
    6dc4:	d71e0000 	ldrle	r0, [lr, -r0]
    6dc8:	16000008 	strne	r0, [r0], -r8
    6dcc:	00000025 	andeq	r0, r0, r5, lsr #32
    6dd0:	dd040500 	cfstr32le	mvfx0, [r4, #-0]
    6dd4:	05000008 	streq	r0, [r0, #-8]
    6dd8:	0008cc04 	andeq	ip, r8, r4, lsl #24
    6ddc:	064e0a00 	strbeq	r0, [lr], -r0, lsl #20
    6de0:	08f30000 	ldmeq	r3!, {}^	; <UNPREDICTABLE>
    6de4:	2c0b0000 	stccs	0, cr0, [fp], {-0}
    6de8:	02000000 	andeq	r0, r0, #0
    6dec:	045c1f00 	ldrbeq	r1, [ip], #-3840	; 0xfffff100
    6df0:	2e050000 	cdpcs	0, 0, cr0, cr5, cr0, {0}
    6df4:	046c1703 	strbteq	r1, [ip], #-1795	; 0xfffff8fd
    6df8:	551f0000 	ldrpl	r0, [pc, #-0]	; 6e00 <_start-0x1200>
    6dfc:	05000004 	streq	r0, [r0, #-4]
    6e00:	721d032f 	andsvc	r0, sp, #-1140850688	; 0xbc000000
    6e04:	15000004 	strne	r0, [r0, #-4]
    6e08:	00000025 	andeq	r0, r0, r5, lsr #32
    6e0c:	0000091c 	andeq	r0, r0, ip, lsl r9
    6e10:	00002516 	andeq	r2, r0, r6, lsl r5
    6e14:	c9200000 	stmdbgt	r0!, {}	; <UNPREDICTABLE>
    6e18:	06000001 	streq	r0, [r0], -r1
    6e1c:	09280e1d 	stmdbeq	r8!, {r0, r2, r3, r4, r9, sl, fp}
    6e20:	04050000 	streq	r0, [r5], #-0
    6e24:	0000090d 	andeq	r0, r0, sp, lsl #18
    6e28:	00002515 	andeq	r2, r0, r5, lsl r5
    6e2c:	00093d00 	andeq	r3, r9, r0, lsl #26
    6e30:	05e41600 	strbeq	r1, [r4, #1536]!	; 0x600
    6e34:	20000000 	andcs	r0, r0, r0
    6e38:	00000768 	andeq	r0, r0, r8, ror #14
    6e3c:	490e2206 	stmdbmi	lr, {r1, r2, r9, sp}
    6e40:	05000009 	streq	r0, [r0, #-9]
    6e44:	00092e04 	andeq	r2, r9, r4, lsl #28
    6e48:	05d52100 	ldrbeq	r2, [r5, #256]	; 0x100
    6e4c:	04010000 	streq	r0, [r1], #-0
    6e50:	008fe006 	addeq	lr, pc, r6
    6e54:	00002800 	andeq	r2, r0, r0, lsl #16
    6e58:	969c0100 	ldrls	r0, [ip], r0, lsl #2
    6e5c:	22000009 	andcs	r0, r0, #9
    6e60:	00008ff4 	strdeq	r8, [r0], -r4
    6e64:	00000978 	andeq	r0, r0, r8, ror r9
    6e68:	05500123 	ldrbeq	r0, [r0, #-291]	; 0xfffffedd
    6e6c:	009a2403 	addseq	r2, sl, r3, lsl #8
    6e70:	fc240000 	stc2	0, cr0, [r4], #-0
    6e74:	9600008f 	strls	r0, [r0], -pc, lsl #1
    6e78:	8c000009 	stchi	0, cr0, [r0], {9}
    6e7c:	23000009 	movwcs	r0, #9
    6e80:	08025001 	stmdaeq	r2, {r0, ip, lr}
    6e84:	00250064 	eoreq	r0, r5, r4, rrx
    6e88:	a2000090 	andge	r0, r0, #144	; 0x90
    6e8c:	00000009 	andeq	r0, r0, r9
    6e90:	0007ec26 	andeq	lr, r7, r6, lsr #24
    6e94:	0007ec00 	andeq	lr, r7, r0, lsl #24
    6e98:	064f0600 	strbeq	r0, [pc], -r0, lsl #12
    6e9c:	0007f526 	andeq	pc, r7, r6, lsr #10
    6ea0:	0007f500 	andeq	pc, r7, r0, lsl #10
    6ea4:	06620600 	strbteq	r0, [r2], -r0, lsl #12
    6ea8:	0009d300 	andeq	sp, r9, r0, lsl #6
    6eac:	c0000400 	andgt	r0, r0, r0, lsl #8
    6eb0:	04000015 	streq	r0, [r0], #-21	; 0xffffffeb
    6eb4:	0002cb01 	andeq	ip, r2, r1, lsl #22
    6eb8:	08000c00 	stmdaeq	r0, {sl, fp}
    6ebc:	06c10000 	strbeq	r0, [r1], r0
    6ec0:	90080000 	andls	r0, r8, r0
    6ec4:	002c0000 	eoreq	r0, ip, r0
    6ec8:	14da0000 	ldrbne	r0, [sl], #0
    6ecc:	04020000 	streq	r0, [r2], #-0
    6ed0:	746e6905 	strbtvc	r6, [lr], #-2309	; 0xfffff6fb
    6ed4:	07040300 	streq	r0, [r4, -r0, lsl #6]
    6ed8:	00000057 	andeq	r0, r0, r7, asr r0
    6edc:	ba060103 	blt	1872f0 <__bss_end__+0x17d390>
    6ee0:	03000002 	movweq	r0, #2
    6ee4:	03530502 	cmpeq	r3, #8388608	; 0x800000
    6ee8:	04030000 	streq	r0, [r3], #-0
    6eec:	00009d05 	andeq	r9, r0, r5, lsl #26
    6ef0:	05080300 	streq	r0, [r8, #-768]	; 0xfffffd00
    6ef4:	00000098 	muleq	r0, r8, r0
    6ef8:	b8080103 	stmdalt	r8, {r0, r1, r8}
    6efc:	03000002 	movweq	r0, #2
    6f00:	020b0702 	andeq	r0, fp, #524288	; 0x80000
    6f04:	04030000 	streq	r0, [r3], #-0
    6f08:	00005207 	andeq	r5, r0, r7, lsl #4
    6f0c:	07080300 	streq	r0, [r8, -r0, lsl #6]
    6f10:	0000004d 	andeq	r0, r0, sp, asr #32
    6f14:	00024e04 	andeq	r4, r2, r4, lsl #28
    6f18:	19220200 	stmdbne	r2!, {r9}
    6f1c:	00000077 	andeq	r0, r0, r7, ror r0
    6f20:	007d0405 	rsbseq	r0, sp, r5, lsl #8
    6f24:	f9060000 			; <UNDEFINED> instruction: 0xf9060000
    6f28:	04000003 	streq	r0, [r0], #-3
    6f2c:	00000299 	muleq	r0, r9, r2
    6f30:	410e2c03 	tstmi	lr, r3, lsl #24
    6f34:	04000000 	streq	r0, [r0], #-0
    6f38:	0000040e 	andeq	r0, r0, lr, lsl #8
    6f3c:	410e7203 	tstmi	lr, r3, lsl #4
    6f40:	07000000 	streq	r0, [r0, -r0]
    6f44:	00000256 	andeq	r0, r0, r6, asr r2
    6f48:	17015e04 	strne	r5, [r1, -r4, lsl #28]
    6f4c:	0000002c 	andeq	r0, r0, ip, lsr #32
    6f50:	a6030408 	strge	r0, [r3], -r8, lsl #8
    6f54:	0000c903 	andeq	ip, r0, r3, lsl #18
    6f58:	02480900 	subeq	r0, r8, #0, 18
    6f5c:	a8030000 	stmdage	r3, {}	; <UNPREDICTABLE>
    6f60:	00009a0c 	andeq	r9, r0, ip, lsl #20
    6f64:	01da0900 	bicseq	r0, sl, r0, lsl #18
    6f68:	a9030000 	stmdbge	r3, {}	; <UNPREDICTABLE>
    6f6c:	0000c913 	andeq	ip, r0, r3, lsl r9
    6f70:	4f0a0000 	svcmi	0x000a0000
    6f74:	d9000000 	stmdble	r0, {}	; <UNPREDICTABLE>
    6f78:	0b000000 	bleq	6f80 <_start-0x1080>
    6f7c:	0000002c 	andeq	r0, r0, ip, lsr #32
    6f80:	080c0003 	stmdaeq	ip, {r0, r1}
    6f84:	fd09a303 	stc2	3, cr10, [r9, #-12]
    6f88:	0d000000 	stceq	0, cr0, [r0, #-0]
    6f8c:	000003f1 	strdeq	r0, [r0], -r1
    6f90:	2507a503 	strcs	sl, [r7, #-1283]	; 0xfffffafd
    6f94:	00000000 	andeq	r0, r0, r0
    6f98:	0004000d 	andeq	r0, r4, sp
    6f9c:	05aa0300 	streq	r0, [sl, #768]!	; 0x300
    6fa0:	000000a7 	andeq	r0, r0, r7, lsr #1
    6fa4:	7b040004 	blvc	106fbc <__bss_end__+0xfd05c>
    6fa8:	03000003 	movweq	r0, #3
    6fac:	00d903ab 	sbcseq	r0, r9, fp, lsr #7
    6fb0:	97040000 	strls	r0, [r4, -r0]
    6fb4:	03000001 	movweq	r0, #1
    6fb8:	006b1baf 	rsbeq	r1, fp, pc, lsr #23
    6fbc:	040e0000 	streq	r0, [lr], #-0
    6fc0:	011d0405 	tsteq	sp, r5, lsl #8
    6fc4:	01030000 	mrseq	r0, (UNDEF: 3)
    6fc8:	0002c108 	andeq	ip, r2, r8, lsl #2
    6fcc:	011d0f00 	tsteq	sp, r0, lsl #30
    6fd0:	40040000 	andmi	r0, r4, r0
    6fd4:	05000004 	streq	r0, [r0, #-4]
    6fd8:	005d1916 	subseq	r1, sp, r6, lsl r9
    6fdc:	a8100000 	ldmdage	r0, {}	; <UNPREDICTABLE>
    6fe0:	18000001 	stmdane	r0, {r0}
    6fe4:	8f082f05 	svchi	0x00082f05
    6fe8:	0d000001 	stceq	0, cr0, [r0, #-4]
    6fec:	0000039c 	muleq	r0, ip, r3
    6ff0:	8f133105 	svchi	0x00133105
    6ff4:	00000001 	andeq	r0, r0, r1
    6ff8:	006b5f11 	rsbeq	r5, fp, r1, lsl pc
    6ffc:	25073205 	strcs	r3, [r7, #-517]	; 0xfffffdfb
    7000:	04000000 	streq	r0, [r0], #-0
    7004:	0003dc0d 	andeq	sp, r3, sp, lsl #24
    7008:	0b320500 	bleq	c88410 <__bss_end__+0xc7e4b0>
    700c:	00000025 	andeq	r0, r0, r5, lsr #32
    7010:	01910d08 	orrseq	r0, r1, r8, lsl #26
    7014:	32050000 	andcc	r0, r5, #0
    7018:	00002514 	andeq	r2, r0, r4, lsl r5
    701c:	7c0d0c00 	stcvc	12, cr0, [sp], {-0}
    7020:	05000004 	streq	r0, [r0, #-4]
    7024:	00251b32 	eoreq	r1, r5, r2, lsr fp
    7028:	11100000 	tstne	r0, r0
    702c:	0500785f 	streq	r7, [r0, #-2143]	; 0xfffff7a1
    7030:	01950b33 	orrseq	r0, r5, r3, lsr fp
    7034:	00140000 	andseq	r0, r4, r0
    7038:	01350405 	teqeq	r5, r5, lsl #8
    703c:	290a0000 	stmdbcs	sl, {}	; <UNPREDICTABLE>
    7040:	a5000001 	strge	r0, [r0, #-1]
    7044:	0b000001 	bleq	7050 <_start-0xfb0>
    7048:	0000002c 	andeq	r0, r0, ip, lsr #32
    704c:	d5100000 	ldrle	r0, [r0, #-0]
    7050:	24000001 	strcs	r0, [r0], #-1
    7054:	28083705 	stmdacs	r8, {r0, r2, r8, r9, sl, ip, sp}
    7058:	0d000002 	stceq	0, cr0, [r0, #-8]
    705c:	0000008f 	andeq	r0, r0, pc, lsl #1
    7060:	25093905 	strcs	r3, [r9, #-2309]	; 0xfffff6fb
    7064:	00000000 	andeq	r0, r0, r0
    7068:	0004160d 	andeq	r1, r4, sp, lsl #12
    706c:	093a0500 	ldmdbeq	sl!, {r8, sl}
    7070:	00000025 	andeq	r0, r0, r5, lsr #32
    7074:	00b20d04 	adcseq	r0, r2, r4, lsl #26
    7078:	3b050000 	blcc	147080 <__bss_end__+0x13d120>
    707c:	00002509 	andeq	r2, r0, r9, lsl #10
    7080:	040d0800 	streq	r0, [sp], #-2048	; 0xfffff800
    7084:	05000005 	streq	r0, [r0, #-5]
    7088:	0025093c 	eoreq	r0, r5, ip, lsr r9
    708c:	0d0c0000 	stceq	0, cr0, [ip, #-0]
    7090:	0000027d 	andeq	r0, r0, sp, ror r2
    7094:	25093d05 	strcs	r3, [r9, #-3333]	; 0xfffff2fb
    7098:	10000000 	andne	r0, r0, r0
    709c:	00026c0d 	andeq	r6, r2, sp, lsl #24
    70a0:	093e0500 	ldmdbeq	lr!, {r8, sl}
    70a4:	00000025 	andeq	r0, r0, r5, lsr #32
    70a8:	04810d14 	streq	r0, [r1], #3348	; 0xd14
    70ac:	3f050000 	svccc	0x00050000
    70b0:	00002509 	andeq	r2, r0, r9, lsl #10
    70b4:	5d0d1800 	stcpl	8, cr1, [sp, #-0]
    70b8:	05000003 	streq	r0, [r0, #-3]
    70bc:	00250940 	eoreq	r0, r5, r0, asr #18
    70c0:	0d1c0000 	ldceq	0, cr0, [ip, #-0]
    70c4:	000004cb 	andeq	r0, r0, fp, asr #9
    70c8:	25094105 	strcs	r4, [r9, #-261]	; 0xfffffefb
    70cc:	20000000 	andcs	r0, r0, r0
    70d0:	00f21200 	rscseq	r1, r2, r0, lsl #4
    70d4:	01080000 	mrseq	r0, (UNDEF: 8)
    70d8:	6d084a05 	vstrvs	s8, [r8, #-20]	; 0xffffffec
    70dc:	0d000002 	stceq	0, cr0, [r0, #-8]
    70e0:	00000184 	andeq	r0, r0, r4, lsl #3
    70e4:	6d0a4b05 	vstrvs	d4, [sl, #-20]	; 0xffffffec
    70e8:	00000002 	andeq	r0, r0, r2
    70ec:	0000000d 	andeq	r0, r0, sp
    70f0:	094c0500 	stmdbeq	ip, {r8, sl}^
    70f4:	0000026d 	andeq	r0, r0, sp, ror #4
    70f8:	04321380 	ldrteq	r1, [r2], #-896	; 0xfffffc80
    70fc:	4e050000 	cdpmi	0, 0, cr0, cr5, cr0, {0}
    7100:	0001290a 	andeq	r2, r1, sl, lsl #18
    7104:	13010000 	movwne	r0, #4096	; 0x1000
    7108:	00000117 	andeq	r0, r0, r7, lsl r1
    710c:	290a5105 	stmdbcs	sl, {r0, r2, r8, ip, lr}
    7110:	04000001 	streq	r0, [r0], #-1
    7114:	150a0001 	strne	r0, [sl, #-1]
    7118:	7d000001 	stcvc	0, cr0, [r0, #-4]
    711c:	0b000002 	bleq	712c <_start-0xed4>
    7120:	0000002c 	andeq	r0, r0, ip, lsr #32
    7124:	8612001f 			; <UNDEFINED> instruction: 0x8612001f
    7128:	90000002 	andls	r0, r0, r2
    712c:	085d0501 	ldmdaeq	sp, {r0, r8, sl}^
    7130:	000002c0 	andeq	r0, r0, r0, asr #5
    7134:	00039c0d 	andeq	r9, r3, sp, lsl #24
    7138:	125e0500 	subsne	r0, lr, #0, 10
    713c:	000002c0 	andeq	r0, r0, r0, asr #5
    7140:	03b40d00 			; <UNDEFINED> instruction: 0x03b40d00
    7144:	5f050000 	svcpl	0x00050000
    7148:	00002506 	andeq	r2, r0, r6, lsl #10
    714c:	8c0d0400 	cfstrshi	mvf0, [sp], {-0}
    7150:	05000001 	streq	r0, [r0, #-1]
    7154:	02c60961 	sbceq	r0, r6, #1589248	; 0x184000
    7158:	0d080000 	stceq	0, cr0, [r8, #-0]
    715c:	000000f2 	strdeq	r0, [r0], -r2
    7160:	281e6205 	ldmdacs	lr, {r0, r2, r9, sp, lr}
    7164:	88000002 	stmdahi	r0, {r1}
    7168:	7d040500 	cfstr32vc	mvfx0, [r4, #-0]
    716c:	0a000002 	beq	717c <_start-0xe84>
    7170:	000002d6 	ldrdeq	r0, [r0], -r6
    7174:	000002d6 	ldrdeq	r0, [r0], -r6
    7178:	00002c0b 	andeq	r2, r0, fp, lsl #24
    717c:	05001f00 	streq	r1, [r0, #-3840]	; 0xfffff100
    7180:	0002dc04 	andeq	sp, r2, r4, lsl #24
    7184:	67101400 	ldrvs	r1, [r0, -r0, lsl #8]
    7188:	08000003 	stmdaeq	r0, {r0, r1}
    718c:	05087505 	streq	r7, [r8, #-1285]	; 0xfffffafb
    7190:	0d000003 	stceq	0, cr0, [r0, #-12]
    7194:	000000ac 	andeq	r0, r0, ip, lsr #1
    7198:	05117605 	ldreq	r7, [r1, #-1541]	; 0xfffff9fb
    719c:	00000003 	andeq	r0, r0, r3
    71a0:	00000c0d 	andeq	r0, r0, sp, lsl #24
    71a4:	06770500 	ldrbteq	r0, [r7], -r0, lsl #10
    71a8:	00000025 	andeq	r0, r0, r5, lsr #32
    71ac:	04050004 	streq	r0, [r5], #-4
    71b0:	0000004f 	andeq	r0, r0, pc, asr #32
    71b4:	00038610 	andeq	r8, r3, r0, lsl r6
    71b8:	b5056800 	strlt	r6, [r5, #-2048]	; 0xfffff800
    71bc:	00044e08 	andeq	r4, r4, r8, lsl #28
    71c0:	705f1100 	subsvc	r1, pc, r0, lsl #2
    71c4:	12b60500 	adcsne	r0, r6, #0, 10
    71c8:	00000305 	andeq	r0, r0, r5, lsl #6
    71cc:	725f1100 	subsvc	r1, pc, #0, 2
    71d0:	07b70500 	ldreq	r0, [r7, r0, lsl #10]!
    71d4:	00000025 	andeq	r0, r0, r5, lsr #32
    71d8:	775f1104 	ldrbvc	r1, [pc, -r4, lsl #2]
    71dc:	07b80500 	ldreq	r0, [r8, r0, lsl #10]!
    71e0:	00000025 	andeq	r0, r0, r5, lsr #32
    71e4:	01100d08 	tsteq	r0, r8, lsl #26
    71e8:	b9050000 	stmdblt	r5, {}	; <UNPREDICTABLE>
    71ec:	00003a09 	andeq	r3, r0, r9, lsl #20
    71f0:	f10d0c00 			; <UNDEFINED> instruction: 0xf10d0c00
    71f4:	05000001 	streq	r0, [r0, #-1]
    71f8:	003a09ba 	ldrhteq	r0, [sl], -sl
    71fc:	110e0000 	mrsne	r0, (UNDEF: 14)
    7200:	0066625f 	rsbeq	r6, r6, pc, asr r2
    7204:	dd11bb05 	vldrle	d11, [r1, #-20]	; 0xffffffec
    7208:	10000002 	andne	r0, r0, r2
    720c:	00006c0d 	andeq	r6, r0, sp, lsl #24
    7210:	07bc0500 	ldreq	r0, [ip, r0, lsl #10]!
    7214:	00000025 	andeq	r0, r0, r5, lsr #32
    7218:	01000d18 	tsteq	r0, r8, lsl sp
    721c:	c3050000 	movwgt	r0, #20480	; 0x5000
    7220:	0001150a 	andeq	r1, r1, sl, lsl #10
    7224:	240d1c00 	strcs	r1, [sp], #-3072	; 0xfffff400
    7228:	0500000b 	streq	r0, [r0, #-11]
    722c:	05c01dc5 	strbeq	r1, [r0, #3525]	; 0xdc5
    7230:	0d200000 	stceq	0, cr0, [r0, #-0]
    7234:	00000619 	andeq	r0, r0, r9, lsl r6
    7238:	ea1dc705 	b	778e54 <__bss_end__+0x76eef4>
    723c:	24000005 	strcs	r0, [r0], #-5
    7240:	0004080d 	andeq	r0, r4, sp, lsl #16
    7244:	0dca0500 	cfstr64eq	mvdx0, [sl]
    7248:	0000060e 	andeq	r0, r0, lr, lsl #12
    724c:	04e50d28 	strbteq	r0, [r5], #3368	; 0xd28
    7250:	cb050000 	blgt	147258 <__bss_end__+0x13d2f8>
    7254:	00062809 	andeq	r2, r6, r9, lsl #16
    7258:	5f112c00 	svcpl	0x00112c00
    725c:	05006275 	streq	r6, [r0, #-629]	; 0xfffffd8b
    7260:	02dd11ce 	sbcseq	r1, sp, #-2147483597	; 0x80000033
    7264:	11300000 	teqne	r0, r0
    7268:	0070755f 	rsbseq	r7, r0, pc, asr r5
    726c:	0512cf05 	ldreq	ip, [r2, #-3845]	; 0xfffff0fb
    7270:	38000003 	stmdacc	r0, {r0, r1}
    7274:	72755f11 	rsbsvc	r5, r5, #17, 30	; 0x44
    7278:	07d00500 	ldrbeq	r0, [r0, r0, lsl #10]
    727c:	00000025 	andeq	r0, r0, r5, lsr #32
    7280:	00a60d3c 	adceq	r0, r6, ip, lsr sp
    7284:	d3050000 	movwle	r0, #20480	; 0x5000
    7288:	00062e11 	andeq	r2, r6, r1, lsl lr
    728c:	bd0d4000 	stclt	0, cr4, [sp, #-0]
    7290:	05000004 	streq	r0, [r0, #-4]
    7294:	063e11d4 			; <UNDEFINED> instruction: 0x063e11d4
    7298:	11430000 	mrsne	r0, (UNDEF: 67)
    729c:	00626c5f 	rsbeq	r6, r2, pc, asr ip
    72a0:	dd11d705 	ldcle	7, cr13, [r1, #-20]	; 0xffffffec
    72a4:	44000002 	strmi	r0, [r0], #-2
    72a8:	0001350d 	andeq	r3, r1, sp, lsl #10
    72ac:	07da0500 	ldrbeq	r0, [sl, r0, lsl #10]
    72b0:	00000025 	andeq	r0, r0, r5, lsr #32
    72b4:	01460d4c 	cmpeq	r6, ip, asr #26
    72b8:	db050000 	blle	1472c0 <__bss_end__+0x13d360>
    72bc:	0000820a 	andeq	r8, r0, sl, lsl #4
    72c0:	c50d5000 	strgt	r5, [sp, #-0]
    72c4:	0500000a 	streq	r0, [r0, #-10]
    72c8:	046c12de 	strbteq	r1, [ip], #-734	; 0xfffffd22
    72cc:	0d540000 	ldcleq	0, cr0, [r4, #-0]
    72d0:	000003fa 	strdeq	r0, [r0], -sl
    72d4:	090ce205 	stmdbeq	ip, {r0, r2, r9, sp, lr, pc}
    72d8:	58000001 	stmdapl	r0, {r0}
    72dc:	00038e0d 	andeq	r8, r3, sp, lsl #28
    72e0:	0ee40500 	cdpeq	5, 14, cr0, cr4, cr0, {0}
    72e4:	000000fd 	strdeq	r0, [r0], -sp
    72e8:	02640d5c 	rsbeq	r0, r4, #92, 26	; 0x1700
    72ec:	e5050000 	str	r0, [r5, #-0]
    72f0:	00002509 	andeq	r2, r0, r9, lsl #10
    72f4:	15006400 	strne	r6, [r0, #-1024]	; 0xfffffc00
    72f8:	00000025 	andeq	r0, r0, r5, lsr #32
    72fc:	0000046c 	andeq	r0, r0, ip, ror #8
    7300:	00046c16 	andeq	r6, r4, r6, lsl ip
    7304:	01151600 	tsteq	r5, r0, lsl #12
    7308:	17160000 	ldrne	r0, [r6, -r0]
    730c:	16000001 	strne	r0, [r0], -r1
    7310:	00000025 	andeq	r0, r0, r5, lsr #32
    7314:	77040500 	strvc	r0, [r4, -r0, lsl #10]
    7318:	0f000004 	svceq	0x00000004
    731c:	0000046c 	andeq	r0, r0, ip, ror #8
    7320:	0003e417 	andeq	lr, r3, r7, lsl r4
    7324:	05042800 	streq	r2, [r4, #-2048]	; 0xfffff800
    7328:	c0080260 	andgt	r0, r8, r0, ror #4
    732c:	18000005 	stmdane	r0, {r0, r2}
    7330:	0000034c 	andeq	r0, r0, ip, asr #6
    7334:	07026205 	streq	r6, [r2, -r5, lsl #4]
    7338:	00000025 	andeq	r0, r0, r5, lsr #32
    733c:	04911800 	ldreq	r1, [r1], #2048	; 0x800
    7340:	67050000 	strvs	r0, [r5, -r0]
    7344:	069a0b02 	ldreq	r0, [sl], r2, lsl #22
    7348:	18040000 	stmdane	r4, {}	; <UNPREDICTABLE>
    734c:	000001e1 	andeq	r0, r0, r1, ror #3
    7350:	14026705 	strne	r6, [r2], #-1797	; 0xfffff8fb
    7354:	0000069a 	muleq	r0, sl, r6
    7358:	01a01808 	lsleq	r1, r8, #16
    735c:	67050000 	strvs	r0, [r5, -r0]
    7360:	069a1e02 	ldreq	r1, [sl], r2, lsl #28
    7364:	180c0000 	stmdane	ip, {}	; <UNPREDICTABLE>
    7368:	000003af 	andeq	r0, r0, pc, lsr #7
    736c:	08026905 	stmdaeq	r2, {r0, r2, r8, fp, sp, lr}
    7370:	00000025 	andeq	r0, r0, r5, lsr #32
    7374:	001a1810 	andseq	r1, sl, r0, lsl r8
    7378:	6a050000 	bvs	147380 <__bss_end__+0x13d420>
    737c:	089a0802 	ldmeq	sl, {r1, fp}
    7380:	18140000 	ldmdane	r4, {}	; <UNPREDICTABLE>
    7384:	000003c3 	andeq	r0, r0, r3, asr #7
    7388:	07026d05 	streq	r6, [r2, -r5, lsl #26]
    738c:	00000025 	andeq	r0, r0, r5, lsr #32
    7390:	0a011830 	beq	4d458 <__bss_end__+0x434f8>
    7394:	6e050000 	cdpvs	0, 0, cr0, cr5, cr0, {0}
    7398:	08af1602 	stmiaeq	pc!, {r1, r9, sl, ip}	; <UNPREDICTABLE>
    739c:	18340000 	ldmdane	r4!, {}	; <UNPREDICTABLE>
    73a0:	0000028e 	andeq	r0, r0, lr, lsl #5
    73a4:	07027005 	streq	r7, [r2, -r5]
    73a8:	00000025 	andeq	r0, r0, r5, lsr #32
    73ac:	03b91838 			; <UNDEFINED> instruction: 0x03b91838
    73b0:	72050000 	andvc	r0, r5, #0
    73b4:	08c00a02 	stmiaeq	r0, {r1, r9, fp}^
    73b8:	183c0000 	ldmdane	ip!, {}	; <UNPREDICTABLE>
    73bc:	00000240 	andeq	r0, r0, r0, asr #4
    73c0:	13027505 	movwne	r7, #9477	; 0x2505
    73c4:	0000018f 	andeq	r0, r0, pc, lsl #3
    73c8:	01bf1840 			; <UNDEFINED> instruction: 0x01bf1840
    73cc:	76050000 	strvc	r0, [r5], -r0
    73d0:	00250702 	eoreq	r0, r5, r2, lsl #14
    73d4:	18440000 	stmdane	r4, {}^	; <UNPREDICTABLE>
    73d8:	000004ff 	strdeq	r0, [r0], -pc	; <UNPREDICTABLE>
    73dc:	13027705 	movwne	r7, #9989	; 0x2705
    73e0:	0000018f 	andeq	r0, r0, pc, lsl #3
    73e4:	02a01848 	adceq	r1, r0, #72, 16	; 0x480000
    73e8:	78050000 	stmdavc	r5, {}	; <UNPREDICTABLE>
    73ec:	08c61402 	stmiaeq	r6, {r1, sl, ip}^
    73f0:	184c0000 	stmdane	ip, {}^	; <UNPREDICTABLE>
    73f4:	000001e9 	andeq	r0, r0, r9, ror #3
    73f8:	07027b05 	streq	r7, [r2, -r5, lsl #22]
    73fc:	00000025 	andeq	r0, r0, r5, lsr #32
    7400:	013e1850 	teqeq	lr, r0, asr r8
    7404:	7c050000 	stcvc	0, cr0, [r5], {-0}
    7408:	01170902 	tsteq	r7, r2, lsl #18
    740c:	18540000 	ldmdane	r4, {}^	; <UNPREDICTABLE>
    7410:	000002c6 	andeq	r0, r0, r6, asr #5
    7414:	07029f05 	streq	r9, [r2, -r5, lsl #30]
    7418:	00000875 	andeq	r0, r0, r5, ror r8
    741c:	02861958 	addeq	r1, r6, #88, 18	; 0x160000
    7420:	a3050000 	movwge	r0, #20480	; 0x5000
    7424:	02c01302 	sbceq	r1, r0, #134217728	; 0x8000000
    7428:	01480000 	mrseq	r0, (UNDEF: 72)
    742c:	00021e19 	andeq	r1, r2, r9, lsl lr
    7430:	02a40500 	adceq	r0, r4, #0, 10
    7434:	00027d12 	andeq	r7, r2, r2, lsl sp
    7438:	19014c00 	stmdbne	r1, {sl, fp, lr}
    743c:	000004ab 	andeq	r0, r0, fp, lsr #9
    7440:	0c02a805 	stceq	8, cr10, [r2], {5}
    7444:	000008d7 	ldrdeq	r0, [r0], -r7
    7448:	081902dc 	ldmdaeq	r9, {r2, r3, r4, r6, r7, r9}
    744c:	05000001 	streq	r0, [r0, #-1]
    7450:	5b1002ad 	blpl	407f0c <__bss_end__+0x3fdfac>
    7454:	e0000006 	and	r0, r0, r6
    7458:	00ed1902 	rsceq	r1, sp, r2, lsl #18
    745c:	af050000 	svcge	0x00050000
    7460:	08e30a02 	stmiaeq	r3!, {r1, r9, fp}^
    7464:	02ec0000 	rsceq	r0, ip, #0
    7468:	4e040500 	cfsh32mi	mvfx0, mvfx4, #0
    746c:	15000004 	strne	r0, [r0, #-4]
    7470:	00000025 	andeq	r0, r0, r5, lsr #32
    7474:	000005e4 	andeq	r0, r0, r4, ror #11
    7478:	00046c16 	andeq	r6, r4, r6, lsl ip
    747c:	01151600 	tsteq	r5, r0, lsl #12
    7480:	e4160000 	ldr	r0, [r6], #-0
    7484:	16000005 	strne	r0, [r0], -r5
    7488:	00000025 	andeq	r0, r0, r5, lsr #32
    748c:	24040500 	strcs	r0, [r4], #-1280	; 0xfffffb00
    7490:	05000001 	streq	r0, [r0, #-1]
    7494:	0005c604 	andeq	ip, r5, r4, lsl #12
    7498:	008e1500 	addeq	r1, lr, r0, lsl #10
    749c:	060e0000 	streq	r0, [lr], -r0
    74a0:	6c160000 	ldcvs	0, cr0, [r6], {-0}
    74a4:	16000004 	strne	r0, [r0], -r4
    74a8:	00000115 	andeq	r0, r0, r5, lsl r1
    74ac:	00008e16 	andeq	r8, r0, r6, lsl lr
    74b0:	00251600 	eoreq	r1, r5, r0, lsl #12
    74b4:	05000000 	streq	r0, [r0, #-0]
    74b8:	0005f004 	andeq	pc, r5, r4
    74bc:	00251500 	eoreq	r1, r5, r0, lsl #10
    74c0:	06280000 	strteq	r0, [r8], -r0
    74c4:	6c160000 	ldcvs	0, cr0, [r6], {-0}
    74c8:	16000004 	strne	r0, [r0], -r4
    74cc:	00000115 	andeq	r0, r0, r5, lsl r1
    74d0:	14040500 	strne	r0, [r4], #-1280	; 0xfffffb00
    74d4:	0a000006 	beq	74f4 <_start-0xb0c>
    74d8:	0000004f 	andeq	r0, r0, pc, asr #32
    74dc:	0000063e 	andeq	r0, r0, lr, lsr r6
    74e0:	00002c0b 	andeq	r2, r0, fp, lsl #24
    74e4:	0a000200 	beq	7cec <_start-0x314>
    74e8:	0000004f 	andeq	r0, r0, pc, asr #32
    74ec:	0000064e 	andeq	r0, r0, lr, asr #12
    74f0:	00002c0b 	andeq	r2, r0, fp, lsl #24
    74f4:	07000000 	streq	r0, [r0, -r0]
    74f8:	00000374 	andeq	r0, r0, r4, ror r3
    74fc:	1a011f05 	bne	4f118 <__bss_end__+0x451b8>
    7500:	0000030b 	andeq	r0, r0, fp, lsl #6
    7504:	00048b1a 	andeq	r8, r4, sl, lsl fp
    7508:	23050c00 	movwcs	r0, #23552	; 0x5c00
    750c:	06940801 	ldreq	r0, [r4], r1, lsl #16
    7510:	9c180000 	ldcls	0, cr0, [r8], {-0}
    7514:	05000003 	streq	r0, [r0, #-3]
    7518:	94110125 	ldrls	r0, [r1], #-293	; 0xfffffedb
    751c:	00000006 	andeq	r0, r0, r6
    7520:	00020418 	andeq	r0, r2, r8, lsl r4
    7524:	01260500 			; <UNDEFINED> instruction: 0x01260500
    7528:	00002507 	andeq	r2, r0, r7, lsl #10
    752c:	6e180400 	cfmulsvs	mvf0, mvf8, mvf0
    7530:	05000003 	streq	r0, [r0, #-3]
    7534:	9a0b0127 	bls	2c79d8 <__bss_end__+0x2bda78>
    7538:	08000006 	stmdaeq	r0, {r1, r2}
    753c:	5b040500 	blpl	108944 <__bss_end__+0xfe9e4>
    7540:	05000006 	streq	r0, [r0, #-6]
    7544:	00064e04 	andeq	r4, r6, r4, lsl #28
    7548:	00121a00 	andseq	r1, r2, r0, lsl #20
    754c:	050e0000 	streq	r0, [lr, #-0]
    7550:	d908013f 	stmdble	r8, {r0, r1, r2, r3, r4, r5, r8}
    7554:	18000006 	stmdane	r0, {r1, r2}
    7558:	000003eb 	andeq	r0, r0, fp, ror #7
    755c:	12014005 	andne	r4, r1, #5
    7560:	000006d9 	ldrdeq	r0, [r0], -r9
    7564:	041f1800 	ldreq	r1, [pc], #-2048	; 756c <_start-0xa94>
    7568:	41050000 	mrsmi	r0, (UNDEF: 5)
    756c:	06d91201 	ldrbeq	r1, [r9], r1, lsl #4
    7570:	18060000 	stmdane	r6, {}	; <UNPREDICTABLE>
    7574:	0000043b 	andeq	r0, r0, fp, lsr r4
    7578:	12014205 	andne	r4, r1, #1342177280	; 0x50000000
    757c:	00000056 	andeq	r0, r0, r6, asr r0
    7580:	560a000c 	strpl	r0, [sl], -ip
    7584:	e9000000 	stmdb	r0, {}	; <UNPREDICTABLE>
    7588:	0b000006 	bleq	75a8 <_start-0xa58>
    758c:	0000002c 	andeq	r0, r0, ip, lsr #32
    7590:	d01b0002 	andsle	r0, fp, r2
    7594:	07028005 	streq	r8, [r2, -r5]
    7598:	000007fe 	strdeq	r0, [r0], -lr
    759c:	00046f18 	andeq	r6, r4, r8, lsl pc
    75a0:	02820500 	addeq	r0, r2, #0, 10
    75a4:	00002c18 	andeq	r2, r0, r8, lsl ip
    75a8:	25180000 	ldrcs	r0, [r8, #-0]
    75ac:	05000004 	streq	r0, [r0, #-4]
    75b0:	17120283 	ldrne	r0, [r2, -r3, lsl #5]
    75b4:	04000001 	streq	r0, [r0], #-1
    75b8:	00023318 	andeq	r3, r2, r8, lsl r3
    75bc:	02840500 	addeq	r0, r4, #0, 10
    75c0:	0007fe10 	andeq	pc, r7, r0, lsl lr	; <UNPREDICTABLE>
    75c4:	d6180800 	ldrle	r0, [r8], -r0, lsl #16
    75c8:	05000004 	streq	r0, [r0, #-4]
    75cc:	a5170285 	ldrge	r0, [r7, #-645]	; 0xfffffd7b
    75d0:	24000001 	strcs	r0, [r0], #-1
    75d4:	0001b018 	andeq	fp, r1, r8, lsl r0
    75d8:	02860500 	addeq	r0, r6, #0, 10
    75dc:	0000250f 	andeq	r2, r0, pc, lsl #10
    75e0:	97184800 	ldrls	r4, [r8, -r0, lsl #16]
    75e4:	05000003 	streq	r0, [r0, #-3]
    75e8:	642c0287 	strtvs	r0, [ip], #-647	; 0xfffffd79
    75ec:	50000000 	andpl	r0, r0, r0
    75f0:	0004ec18 	andeq	lr, r4, r8, lsl ip
    75f4:	02880500 	addeq	r0, r8, #0, 10
    75f8:	0006a01a 	andeq	sl, r6, sl, lsl r0
    75fc:	a2185800 	andsge	r5, r8, #0, 16
    7600:	05000003 	streq	r0, [r0, #-3]
    7604:	fd160289 	ldc2	2, cr0, [r6, #-548]	; 0xfffffddc
    7608:	68000000 	stmdavs	r0, {}	; <UNPREDICTABLE>
    760c:	0004f118 	andeq	pc, r4, r8, lsl r1	; <UNPREDICTABLE>
    7610:	028a0500 	addeq	r0, sl, #0, 10
    7614:	0000fd16 	andeq	pc, r0, r6, lsl sp	; <UNPREDICTABLE>
    7618:	aa187000 	bge	623620 <__bss_end__+0x6196c0>
    761c:	05000002 	streq	r0, [r0, #-2]
    7620:	fd16028b 	ldc2	2, cr0, [r6, #-556]	; 0xfffffdd4
    7624:	78000000 	stmdavc	r0, {}	; <UNPREDICTABLE>
    7628:	0004a118 	andeq	sl, r4, r8, lsl r1
    762c:	028c0500 	addeq	r0, ip, #0, 10
    7630:	00080e10 	andeq	r0, r8, r0, lsl lr
    7634:	27188000 	ldrcs	r8, [r8, -r0]
    7638:	05000002 	streq	r0, [r0, #-2]
    763c:	1e10028d 	cdpne	2, 1, cr0, cr0, cr13, {4}
    7640:	88000008 	stmdahi	r0, {r3}
    7644:	00044818 	andeq	r4, r4, r8, lsl r8
    7648:	028e0500 	addeq	r0, lr, #0, 10
    764c:	0000250f 	andeq	r2, r0, pc, lsl #10
    7650:	7618a000 	ldrvc	sl, [r8], -r0
    7654:	05000001 	streq	r0, [r0, #-1]
    7658:	fd16028f 	ldc2	2, cr0, [r6, #-572]	; 0xfffffdc4
    765c:	a4000000 	strge	r0, [r0], #-0
    7660:	00008018 	andeq	r8, r0, r8, lsl r0
    7664:	02900500 	addseq	r0, r0, #0, 10
    7668:	0000fd16 	andeq	pc, r0, r6, lsl sp	; <UNPREDICTABLE>
    766c:	6518ac00 	ldrvs	sl, [r8, #-3072]	; 0xfffff400
    7670:	05000001 	streq	r0, [r0, #-1]
    7674:	fd160291 	ldc2	2, cr0, [r6, #-580]	; 0xfffffdbc
    7678:	b4000000 	strlt	r0, [r0], #-0
    767c:	00002d18 	andeq	r2, r0, r8, lsl sp
    7680:	02920500 	addseq	r0, r2, #0, 10
    7684:	0000fd16 	andeq	pc, r0, r6, lsl sp	; <UNPREDICTABLE>
    7688:	3c18bc00 	ldccc	12, cr11, [r8], {-0}
    768c:	05000000 	streq	r0, [r0, #-0]
    7690:	fd160293 	ldc2	2, cr0, [r6, #-588]	; 0xfffffdb4
    7694:	c4000000 	strgt	r0, [r0], #-0
    7698:	00034a18 	andeq	r4, r3, r8, lsl sl
    769c:	02940500 	addseq	r0, r4, #0, 10
    76a0:	00002508 	andeq	r2, r0, r8, lsl #10
    76a4:	0a00cc00 	beq	3a6ac <__bss_end__+0x3074c>
    76a8:	0000011d 	andeq	r0, r0, sp, lsl r1
    76ac:	0000080e 	andeq	r0, r0, lr, lsl #16
    76b0:	00002c0b 	andeq	r2, r0, fp, lsl #24
    76b4:	0a001900 	beq	dabc <__bss_end__+0x3b5c>
    76b8:	0000011d 	andeq	r0, r0, sp, lsl r1
    76bc:	0000081e 	andeq	r0, r0, lr, lsl r8
    76c0:	00002c0b 	andeq	r2, r0, fp, lsl #24
    76c4:	0a000700 	beq	92cc <uart_putc+0x10>
    76c8:	0000011d 	andeq	r0, r0, sp, lsl r1
    76cc:	0000082e 	andeq	r0, r0, lr, lsr #16
    76d0:	00002c0b 	andeq	r2, r0, fp, lsl #24
    76d4:	1b001700 	blne	d2dc <__bss_end__+0x337c>
    76d8:	029905f0 	addseq	r0, r9, #240, 10	; 0x3c000000
    76dc:	00085507 	andeq	r5, r8, r7, lsl #10
    76e0:	02761800 	rsbseq	r1, r6, #0, 16
    76e4:	9c050000 	stcls	0, cr0, [r5], {-0}
    76e8:	08551b02 	ldmdaeq	r5, {r1, r8, r9, fp, ip}^
    76ec:	18000000 	stmdane	r0, {}	; <UNPREDICTABLE>
    76f0:	00000498 	muleq	r0, r8, r4
    76f4:	18029d05 	stmdane	r2, {r0, r2, r8, sl, fp, ip, pc}
    76f8:	00000865 	andeq	r0, r0, r5, ror #16
    76fc:	050a0078 	streq	r0, [sl, #-120]	; 0xffffff88
    7700:	65000003 	strvs	r0, [r0, #-3]
    7704:	0b000008 	bleq	772c <_start-0x8d4>
    7708:	0000002c 	andeq	r0, r0, ip, lsr #32
    770c:	2c0a001d 	stccs	0, cr0, [sl], {29}
    7710:	75000000 	strvc	r0, [r0, #-0]
    7714:	0b000008 	bleq	773c <_start-0x8c4>
    7718:	0000002c 	andeq	r0, r0, ip, lsr #32
    771c:	f01c001d 			; <UNDEFINED> instruction: 0xf01c001d
    7720:	03027e05 	movweq	r7, #11781	; 0x2e05
    7724:	0000089a 	muleq	r0, sl, r8
    7728:	0003e41d 	andeq	lr, r3, sp, lsl r4
    772c:	02950500 	addseq	r0, r5, #0, 10
    7730:	0006e90b 	andeq	lr, r6, fp, lsl #18
    7734:	04c31d00 	strbeq	r1, [r3], #3328	; 0xd00
    7738:	9e050000 	cdpls	0, 0, cr0, cr5, cr0, {0}
    773c:	082e0b02 	stmdaeq	lr!, {r1, r8, r9, fp}
    7740:	0a000000 	beq	7748 <_start-0x8b8>
    7744:	0000011d 	andeq	r0, r0, sp, lsl r1
    7748:	000008aa 	andeq	r0, r0, sl, lsr #17
    774c:	00002c0b 	andeq	r2, r0, fp, lsl #24
    7750:	06001800 	streq	r1, [r0], -r0, lsl #16
    7754:	00000075 	andeq	r0, r0, r5, ror r0
    7758:	08aa0405 	stmiaeq	sl!, {r0, r2, sl}
    775c:	c01e0000 	andsgt	r0, lr, r0
    7760:	16000008 	strne	r0, [r0], -r8
    7764:	0000046c 	andeq	r0, r0, ip, ror #8
    7768:	b5040500 	strlt	r0, [r4, #-1280]	; 0xfffffb00
    776c:	05000008 	streq	r0, [r0, #-8]
    7770:	00018f04 	andeq	r8, r1, r4, lsl #30
    7774:	08d71e00 	ldmeq	r7, {r9, sl, fp, ip}^
    7778:	25160000 	ldrcs	r0, [r6, #-0]
    777c:	00000000 	andeq	r0, r0, r0
    7780:	08dd0405 	ldmeq	sp, {r0, r2, sl}^
    7784:	04050000 	streq	r0, [r5], #-0
    7788:	000008cc 	andeq	r0, r0, ip, asr #17
    778c:	00064e0a 	andeq	r4, r6, sl, lsl #28
    7790:	0008f300 	andeq	pc, r8, r0, lsl #6
    7794:	002c0b00 	eoreq	r0, ip, r0, lsl #22
    7798:	00020000 	andeq	r0, r2, r0
    779c:	00045c1f 	andeq	r5, r4, pc, lsl ip
    77a0:	032e0500 			; <UNDEFINED> instruction: 0x032e0500
    77a4:	00046c17 	andeq	r6, r4, r7, lsl ip
    77a8:	04551f00 	ldrbeq	r1, [r5], #-3840	; 0xfffff100
    77ac:	2f050000 	svccs	0x00050000
    77b0:	04721d03 	ldrbteq	r1, [r2], #-3331	; 0xfffff2fd
    77b4:	25150000 	ldrcs	r0, [r5, #-0]
    77b8:	1c000000 	stcne	0, cr0, [r0], {-0}
    77bc:	16000009 	strne	r0, [r0], -r9
    77c0:	00000025 	andeq	r0, r0, r5, lsr #32
    77c4:	01c92000 	biceq	r2, r9, r0
    77c8:	1d060000 	stcne	0, cr0, [r6, #-0]
    77cc:	0009280e 	andeq	r2, r9, lr, lsl #16
    77d0:	0d040500 	cfstr32eq	mvfx0, [r4, #-0]
    77d4:	15000009 	strne	r0, [r0, #-9]
    77d8:	00000025 	andeq	r0, r0, r5, lsr #32
    77dc:	0000093d 	andeq	r0, r0, sp, lsr r9
    77e0:	0005e416 	andeq	lr, r5, r6, lsl r4
    77e4:	68200000 	stmdavs	r0!, {}	; <UNPREDICTABLE>
    77e8:	06000007 	streq	r0, [r0], -r7
    77ec:	09490e22 	stmdbeq	r9, {r1, r5, r9, sl, fp}^
    77f0:	04050000 	streq	r0, [r5], #-0
    77f4:	0000092e 	andeq	r0, r0, lr, lsr #18
    77f8:	00081321 	andeq	r1, r8, r1, lsr #6
    77fc:	060d0100 	streq	r0, [sp], -r0, lsl #2
    7800:	00009008 	andeq	r9, r0, r8
    7804:	0000002c 	andeq	r0, r0, ip, lsr #32
    7808:	09b89c01 	ldmibeq	r8!, {r0, sl, fp, ip, pc}
    780c:	23200000 	nopcs	{0}	; <UNPREDICTABLE>
    7810:	01000008 	tsteq	r0, r8
    7814:	0025100e 	eoreq	r1, r5, lr
    7818:	31200000 			; <UNDEFINED> instruction: 0x31200000
    781c:	01000008 	tsteq	r0, r8
    7820:	00251f0e 	eoreq	r1, r5, lr, lsl #30
    7824:	25220000 	strcs	r0, [r2, #-0]!
    7828:	01000000 	mrseq	r0, (UNDEF: 0)
    782c:	6223070f 	eorvs	r0, r3, #3932160	; 0x3c0000
    7830:	01007373 	tsteq	r0, r3, ror r3
    7834:	09b80a11 	ldmibeq	r8!, {r0, r4, r9, fp}
    7838:	11880000 	orrne	r0, r8, r0
    783c:	11820000 	orrne	r0, r2, r0
    7840:	1b240000 	blne	907848 <__bss_end__+0x8fd8e8>
    7844:	01000008 	tsteq	r0, r8
    7848:	09b80a12 	ldmibeq	r8!, {r1, r4, r9, fp}
    784c:	28250000 	stmdacs	r5!, {}	; <UNPREDICTABLE>
    7850:	be000090 	mcrlt	0, 0, r0, cr0, cr0, {4}
    7854:	25000009 	strcs	r0, [r0, #-9]
    7858:	0000902c 	andeq	r9, r0, ip, lsr #32
    785c:	000009ca 	andeq	r0, r0, sl, asr #19
    7860:	25040500 	strcs	r0, [r4, #-1280]	; 0xfffffb00
    7864:	26000000 	strcs	r0, [r0], -r0
    7868:	00000025 	andeq	r0, r0, r5, lsr #32
    786c:	00000025 	andeq	r0, r0, r5, lsr #32
    7870:	2606d706 	strcs	sp, [r6], -r6, lsl #14
    7874:	000005d5 	ldrdeq	r0, [r0], -r5
    7878:	000005d5 	ldrdeq	r0, [r0], -r5
    787c:	00066506 	andeq	r6, r6, r6, lsl #10
    7880:	00000a9b 	muleq	r0, fp, sl
    7884:	17e30004 	strbne	r0, [r3, r4]!
    7888:	01040000 	mrseq	r0, (UNDEF: 4)
    788c:	000002cb 	andeq	r0, r0, fp, asr #5
    7890:	00087d0c 	andeq	r7, r8, ip, lsl #26
    7894:	0006c100 	andeq	ip, r6, r0, lsl #2
    7898:	00006800 	andeq	r6, r0, r0, lsl #16
    789c:	00000000 	andeq	r0, r0, r0
    78a0:	0015e200 	andseq	lr, r5, r0, lsl #4
    78a4:	05040200 	streq	r0, [r4, #-512]	; 0xfffffe00
    78a8:	00746e69 	rsbseq	r6, r4, r9, ror #28
    78ac:	00002503 	andeq	r2, r0, r3, lsl #10
    78b0:	07040400 	streq	r0, [r4, -r0, lsl #8]
    78b4:	00000057 	andeq	r0, r0, r7, asr r0
    78b8:	ba060104 	blt	187cd0 <__bss_end__+0x17dd70>
    78bc:	04000002 	streq	r0, [r0], #-2
    78c0:	03530502 	cmpeq	r3, #8388608	; 0x800000
    78c4:	04040000 	streq	r0, [r4], #-0
    78c8:	00009d05 	andeq	r9, r0, r5, lsl #26
    78cc:	05080400 	streq	r0, [r8, #-1024]	; 0xfffffc00
    78d0:	00000098 	muleq	r0, r8, r0
    78d4:	b8080104 	stmdalt	r8, {r2, r8}
    78d8:	04000002 	streq	r0, [r0], #-2
    78dc:	020b0702 	andeq	r0, fp, #524288	; 0x80000
    78e0:	04040000 	streq	r0, [r4], #-0
    78e4:	00005207 	andeq	r5, r0, r7, lsl #4
    78e8:	07080400 	streq	r0, [r8, -r0, lsl #8]
    78ec:	0000004d 	andeq	r0, r0, sp, asr #32
    78f0:	00024e05 	andeq	r4, r2, r5, lsl #28
    78f4:	19220200 	stmdbne	r2!, {r9}
    78f8:	0000007c 	andeq	r0, r0, ip, ror r0
    78fc:	00820406 	addeq	r0, r2, r6, lsl #8
    7900:	f9070000 			; <UNDEFINED> instruction: 0xf9070000
    7904:	05000003 	streq	r0, [r0, #-3]
    7908:	00000299 	muleq	r0, r9, r2
    790c:	460e2c03 	strmi	r2, [lr], -r3, lsl #24
    7910:	05000000 	streq	r0, [r0, #-0]
    7914:	0000040e 	andeq	r0, r0, lr, lsl #8
    7918:	460e7203 	strmi	r7, [lr], -r3, lsl #4
    791c:	08000000 	stmdaeq	r0, {}	; <UNPREDICTABLE>
    7920:	00000256 	andeq	r0, r0, r6, asr r2
    7924:	17015e04 	strne	r5, [r1, -r4, lsl #28]
    7928:	00000031 	andeq	r0, r0, r1, lsr r0
    792c:	a6030409 	strge	r0, [r3], -r9, lsl #8
    7930:	0000ce03 	andeq	ip, r0, r3, lsl #28
    7934:	02480a00 	subeq	r0, r8, #0, 20
    7938:	a8030000 	stmdage	r3, {}	; <UNPREDICTABLE>
    793c:	00009f0c 	andeq	r9, r0, ip, lsl #30
    7940:	01da0a00 	bicseq	r0, sl, r0, lsl #20
    7944:	a9030000 	stmdbge	r3, {}	; <UNPREDICTABLE>
    7948:	0000ce13 	andeq	ip, r0, r3, lsl lr
    794c:	540b0000 	strpl	r0, [fp], #-0
    7950:	de000000 	cdple	0, 0, cr0, cr0, cr0, {0}
    7954:	0c000000 	stceq	0, cr0, [r0], {-0}
    7958:	00000031 	andeq	r0, r0, r1, lsr r0
    795c:	080d0003 	stmdaeq	sp, {r0, r1}
    7960:	0209a303 	andeq	sl, r9, #201326592	; 0xc000000
    7964:	0e000001 	cdpeq	0, 0, cr0, cr0, cr1, {0}
    7968:	000003f1 	strdeq	r0, [r0], -r1
    796c:	2507a503 	strcs	sl, [r7, #-1283]	; 0xfffffafd
    7970:	00000000 	andeq	r0, r0, r0
    7974:	0004000e 	andeq	r0, r4, lr
    7978:	05aa0300 	streq	r0, [sl, #768]!	; 0x300
    797c:	000000ac 	andeq	r0, r0, ip, lsr #1
    7980:	7b050004 	blvc	147998 <__bss_end__+0x13da38>
    7984:	03000003 	movweq	r0, #3
    7988:	00de03ab 	sbcseq	r0, lr, fp, lsr #7
    798c:	97050000 	strls	r0, [r5, -r0]
    7990:	03000001 	movweq	r0, #1
    7994:	00701baf 	rsbseq	r1, r0, pc, lsr #23
    7998:	040f0000 	streq	r0, [pc], #-0	; 79a0 <_start-0x660>
    799c:	01220406 			; <UNDEFINED> instruction: 0x01220406
    79a0:	01040000 	mrseq	r0, (UNDEF: 4)
    79a4:	0002c108 	andeq	ip, r2, r8, lsl #2
    79a8:	01220300 			; <UNDEFINED> instruction: 0x01220300
    79ac:	40050000 	andmi	r0, r5, r0
    79b0:	05000004 	streq	r0, [r0, #-4]
    79b4:	00621916 	rsbeq	r1, r2, r6, lsl r9
    79b8:	a8100000 	ldmdage	r0, {}	; <UNPREDICTABLE>
    79bc:	18000001 	stmdane	r0, {r0}
    79c0:	94082f05 	strls	r2, [r8], #-3845	; 0xfffff0fb
    79c4:	0e000001 	cdpeq	0, 0, cr0, cr0, cr1, {0}
    79c8:	0000039c 	muleq	r0, ip, r3
    79cc:	94133105 	ldrls	r3, [r3], #-261	; 0xfffffefb
    79d0:	00000001 	andeq	r0, r0, r1
    79d4:	006b5f11 	rsbeq	r5, fp, r1, lsl pc
    79d8:	25073205 	strcs	r3, [r7, #-517]	; 0xfffffdfb
    79dc:	04000000 	streq	r0, [r0], #-0
    79e0:	0003dc0e 	andeq	sp, r3, lr, lsl #24
    79e4:	0b320500 	bleq	c88dec <__bss_end__+0xc7ee8c>
    79e8:	00000025 	andeq	r0, r0, r5, lsr #32
    79ec:	01910e08 	orrseq	r0, r1, r8, lsl #28
    79f0:	32050000 	andcc	r0, r5, #0
    79f4:	00002514 	andeq	r2, r0, r4, lsl r5
    79f8:	7c0e0c00 	stcvc	12, cr0, [lr], {-0}
    79fc:	05000004 	streq	r0, [r0, #-4]
    7a00:	00251b32 	eoreq	r1, r5, r2, lsr fp
    7a04:	11100000 	tstne	r0, r0
    7a08:	0500785f 	streq	r7, [r0, #-2143]	; 0xfffff7a1
    7a0c:	019a0b33 	orrseq	r0, sl, r3, lsr fp
    7a10:	00140000 	andseq	r0, r4, r0
    7a14:	013a0406 	teqeq	sl, r6, lsl #8
    7a18:	2e0b0000 	cdpcs	0, 0, cr0, cr11, cr0, {0}
    7a1c:	aa000001 	bge	7a28 <_start-0x5d8>
    7a20:	0c000001 	stceq	0, cr0, [r0], {1}
    7a24:	00000031 	andeq	r0, r0, r1, lsr r0
    7a28:	d5100000 	ldrle	r0, [r0, #-0]
    7a2c:	24000001 	strcs	r0, [r0], #-1
    7a30:	2d083705 	stccs	7, cr3, [r8, #-20]	; 0xffffffec
    7a34:	0e000002 	cdpeq	0, 0, cr0, cr0, cr2, {0}
    7a38:	0000008f 	andeq	r0, r0, pc, lsl #1
    7a3c:	25093905 	strcs	r3, [r9, #-2309]	; 0xfffff6fb
    7a40:	00000000 	andeq	r0, r0, r0
    7a44:	0004160e 	andeq	r1, r4, lr, lsl #12
    7a48:	093a0500 	ldmdbeq	sl!, {r8, sl}
    7a4c:	00000025 	andeq	r0, r0, r5, lsr #32
    7a50:	00b20e04 	adcseq	r0, r2, r4, lsl #28
    7a54:	3b050000 	blcc	147a5c <__bss_end__+0x13dafc>
    7a58:	00002509 	andeq	r2, r0, r9, lsl #10
    7a5c:	040e0800 	streq	r0, [lr], #-2048	; 0xfffff800
    7a60:	05000005 	streq	r0, [r0, #-5]
    7a64:	0025093c 	eoreq	r0, r5, ip, lsr r9
    7a68:	0e0c0000 	cdpeq	0, 0, cr0, cr12, cr0, {0}
    7a6c:	0000027d 	andeq	r0, r0, sp, ror r2
    7a70:	25093d05 	strcs	r3, [r9, #-3333]	; 0xfffff2fb
    7a74:	10000000 	andne	r0, r0, r0
    7a78:	00026c0e 	andeq	r6, r2, lr, lsl #24
    7a7c:	093e0500 	ldmdbeq	lr!, {r8, sl}
    7a80:	00000025 	andeq	r0, r0, r5, lsr #32
    7a84:	04810e14 	streq	r0, [r1], #3604	; 0xe14
    7a88:	3f050000 	svccc	0x00050000
    7a8c:	00002509 	andeq	r2, r0, r9, lsl #10
    7a90:	5d0e1800 	stcpl	8, cr1, [lr, #-0]
    7a94:	05000003 	streq	r0, [r0, #-3]
    7a98:	00250940 	eoreq	r0, r5, r0, asr #18
    7a9c:	0e1c0000 	cdpeq	0, 1, cr0, cr12, cr0, {0}
    7aa0:	000004cb 	andeq	r0, r0, fp, asr #9
    7aa4:	25094105 	strcs	r4, [r9, #-261]	; 0xfffffefb
    7aa8:	20000000 	andcs	r0, r0, r0
    7aac:	00f21200 	rscseq	r1, r2, r0, lsl #4
    7ab0:	01080000 	mrseq	r0, (UNDEF: 8)
    7ab4:	72084a05 	andvc	r4, r8, #20480	; 0x5000
    7ab8:	0e000002 	cdpeq	0, 0, cr0, cr0, cr2, {0}
    7abc:	00000184 	andeq	r0, r0, r4, lsl #3
    7ac0:	720a4b05 	andvc	r4, sl, #5120	; 0x1400
    7ac4:	00000002 	andeq	r0, r0, r2
    7ac8:	0000000e 	andeq	r0, r0, lr
    7acc:	094c0500 	stmdbeq	ip, {r8, sl}^
    7ad0:	00000272 	andeq	r0, r0, r2, ror r2
    7ad4:	04321380 	ldrteq	r1, [r2], #-896	; 0xfffffc80
    7ad8:	4e050000 	cdpmi	0, 0, cr0, cr5, cr0, {0}
    7adc:	00012e0a 	andeq	r2, r1, sl, lsl #28
    7ae0:	13010000 	movwne	r0, #4096	; 0x1000
    7ae4:	00000117 	andeq	r0, r0, r7, lsl r1
    7ae8:	2e0a5105 	adfcse	f5, f2, f5
    7aec:	04000001 	streq	r0, [r0], #-1
    7af0:	1a0b0001 	bne	2c7afc <__bss_end__+0x2bdb9c>
    7af4:	82000001 	andhi	r0, r0, #1
    7af8:	0c000002 	stceq	0, cr0, [r0], {2}
    7afc:	00000031 	andeq	r0, r0, r1, lsr r0
    7b00:	8612001f 			; <UNDEFINED> instruction: 0x8612001f
    7b04:	90000002 	andls	r0, r0, r2
    7b08:	085d0501 	ldmdaeq	sp, {r0, r8, sl}^
    7b0c:	000002c5 	andeq	r0, r0, r5, asr #5
    7b10:	00039c0e 	andeq	r9, r3, lr, lsl #24
    7b14:	125e0500 	subsne	r0, lr, #0, 10
    7b18:	000002c5 	andeq	r0, r0, r5, asr #5
    7b1c:	03b40e00 			; <UNDEFINED> instruction: 0x03b40e00
    7b20:	5f050000 	svcpl	0x00050000
    7b24:	00002506 	andeq	r2, r0, r6, lsl #10
    7b28:	8c0e0400 	cfstrshi	mvf0, [lr], {-0}
    7b2c:	05000001 	streq	r0, [r0, #-1]
    7b30:	02cb0961 	sbceq	r0, fp, #1589248	; 0x184000
    7b34:	0e080000 	cdpeq	0, 0, cr0, cr8, cr0, {0}
    7b38:	000000f2 	strdeq	r0, [r0], -r2
    7b3c:	2d1e6205 	lfmcs	f6, 4, [lr, #-20]	; 0xffffffec
    7b40:	88000002 	stmdahi	r0, {r1}
    7b44:	82040600 	andhi	r0, r4, #0, 12
    7b48:	0b000002 	bleq	7b58 <_start-0x4a8>
    7b4c:	000002db 	ldrdeq	r0, [r0], -fp
    7b50:	000002db 	ldrdeq	r0, [r0], -fp
    7b54:	0000310c 	andeq	r3, r0, ip, lsl #2
    7b58:	06001f00 	streq	r1, [r0], -r0, lsl #30
    7b5c:	0002e104 	andeq	lr, r2, r4, lsl #2
    7b60:	67101400 	ldrvs	r1, [r0, -r0, lsl #8]
    7b64:	08000003 	stmdaeq	r0, {r0, r1}
    7b68:	0a087505 	beq	224f84 <__bss_end__+0x21b024>
    7b6c:	0e000003 	cdpeq	0, 0, cr0, cr0, cr3, {0}
    7b70:	000000ac 	andeq	r0, r0, ip, lsr #1
    7b74:	0a117605 	beq	465390 <__bss_end__+0x45b430>
    7b78:	00000003 	andeq	r0, r0, r3
    7b7c:	00000c0e 	andeq	r0, r0, lr, lsl #24
    7b80:	06770500 	ldrbteq	r0, [r7], -r0, lsl #10
    7b84:	00000025 	andeq	r0, r0, r5, lsr #32
    7b88:	04060004 	streq	r0, [r6], #-4
    7b8c:	00000054 	andeq	r0, r0, r4, asr r0
    7b90:	00038610 	andeq	r8, r3, r0, lsl r6
    7b94:	b5056800 	strlt	r6, [r5, #-2048]	; 0xfffff800
    7b98:	00045308 	andeq	r5, r4, r8, lsl #6
    7b9c:	705f1100 	subsvc	r1, pc, r0, lsl #2
    7ba0:	12b60500 	adcsne	r0, r6, #0, 10
    7ba4:	0000030a 	andeq	r0, r0, sl, lsl #6
    7ba8:	725f1100 	subsvc	r1, pc, #0, 2
    7bac:	07b70500 	ldreq	r0, [r7, r0, lsl #10]!
    7bb0:	00000025 	andeq	r0, r0, r5, lsr #32
    7bb4:	775f1104 	ldrbvc	r1, [pc, -r4, lsl #2]
    7bb8:	07b80500 	ldreq	r0, [r8, r0, lsl #10]!
    7bbc:	00000025 	andeq	r0, r0, r5, lsr #32
    7bc0:	01100e08 	tsteq	r0, r8, lsl #28
    7bc4:	b9050000 	stmdblt	r5, {}	; <UNPREDICTABLE>
    7bc8:	00003f09 	andeq	r3, r0, r9, lsl #30
    7bcc:	f10e0c00 			; <UNDEFINED> instruction: 0xf10e0c00
    7bd0:	05000001 	streq	r0, [r0, #-1]
    7bd4:	003f09ba 	ldrhteq	r0, [pc], -sl
    7bd8:	110e0000 	mrsne	r0, (UNDEF: 14)
    7bdc:	0066625f 	rsbeq	r6, r6, pc, asr r2
    7be0:	e211bb05 	ands	fp, r1, #5120	; 0x1400
    7be4:	10000002 	andne	r0, r0, r2
    7be8:	00006c0e 	andeq	r6, r0, lr, lsl #24
    7bec:	07bc0500 	ldreq	r0, [ip, r0, lsl #10]!
    7bf0:	00000025 	andeq	r0, r0, r5, lsr #32
    7bf4:	01000e18 	tsteq	r0, r8, lsl lr
    7bf8:	c3050000 	movwgt	r0, #20480	; 0x5000
    7bfc:	00011a0a 	andeq	r1, r1, sl, lsl #20
    7c00:	240e1c00 	strcs	r1, [lr], #-3072	; 0xfffff400
    7c04:	0500000b 	streq	r0, [r0, #-11]
    7c08:	05c51dc5 	strbeq	r1, [r5, #3525]	; 0xdc5
    7c0c:	0e200000 	cdpeq	0, 2, cr0, cr0, cr0, {0}
    7c10:	00000619 	andeq	r0, r0, r9, lsl r6
    7c14:	ef1dc705 	svc	0x001dc705
    7c18:	24000005 	strcs	r0, [r0], #-5
    7c1c:	0004080e 	andeq	r0, r4, lr, lsl #16
    7c20:	0dca0500 	cfstr64eq	mvdx0, [sl]
    7c24:	00000613 	andeq	r0, r0, r3, lsl r6
    7c28:	04e50e28 	strbteq	r0, [r5], #3624	; 0xe28
    7c2c:	cb050000 	blgt	147c34 <__bss_end__+0x13dcd4>
    7c30:	00062d09 	andeq	r2, r6, r9, lsl #26
    7c34:	5f112c00 	svcpl	0x00112c00
    7c38:	05006275 	streq	r6, [r0, #-629]	; 0xfffffd8b
    7c3c:	02e211ce 	rsceq	r1, r2, #-2147483597	; 0x80000033
    7c40:	11300000 	teqne	r0, r0
    7c44:	0070755f 	rsbseq	r7, r0, pc, asr r5
    7c48:	0a12cf05 	beq	4bb864 <__bss_end__+0x4b1904>
    7c4c:	38000003 	stmdacc	r0, {r0, r1}
    7c50:	72755f11 	rsbsvc	r5, r5, #17, 30	; 0x44
    7c54:	07d00500 	ldrbeq	r0, [r0, r0, lsl #10]
    7c58:	00000025 	andeq	r0, r0, r5, lsr #32
    7c5c:	00a60e3c 	adceq	r0, r6, ip, lsr lr
    7c60:	d3050000 	movwle	r0, #20480	; 0x5000
    7c64:	00063311 	andeq	r3, r6, r1, lsl r3
    7c68:	bd0e4000 	stclt	0, cr4, [lr, #-0]
    7c6c:	05000004 	streq	r0, [r0, #-4]
    7c70:	064311d4 			; <UNDEFINED> instruction: 0x064311d4
    7c74:	11430000 	mrsne	r0, (UNDEF: 67)
    7c78:	00626c5f 	rsbeq	r6, r2, pc, asr ip
    7c7c:	e211d705 	ands	sp, r1, #1310720	; 0x140000
    7c80:	44000002 	strmi	r0, [r0], #-2
    7c84:	0001350e 	andeq	r3, r1, lr, lsl #10
    7c88:	07da0500 	ldrbeq	r0, [sl, r0, lsl #10]
    7c8c:	00000025 	andeq	r0, r0, r5, lsr #32
    7c90:	01460e4c 	cmpeq	r6, ip, asr #28
    7c94:	db050000 	blle	147c9c <__bss_end__+0x13dd3c>
    7c98:	0000870a 	andeq	r8, r0, sl, lsl #14
    7c9c:	c50e5000 	strgt	r5, [lr, #-0]
    7ca0:	0500000a 	streq	r0, [r0, #-10]
    7ca4:	047112de 	ldrbteq	r1, [r1], #-734	; 0xfffffd22
    7ca8:	0e540000 	cdpeq	0, 5, cr0, cr4, cr0, {0}
    7cac:	000003fa 	strdeq	r0, [r0], -sl
    7cb0:	0e0ce205 	cdpeq	2, 0, cr14, cr12, cr5, {0}
    7cb4:	58000001 	stmdapl	r0, {r0}
    7cb8:	00038e0e 	andeq	r8, r3, lr, lsl #28
    7cbc:	0ee40500 	cdpeq	5, 14, cr0, cr4, cr0, {0}
    7cc0:	00000102 	andeq	r0, r0, r2, lsl #2
    7cc4:	02640e5c 	rsbeq	r0, r4, #92, 28	; 0x5c0
    7cc8:	e5050000 	str	r0, [r5, #-0]
    7ccc:	00002509 	andeq	r2, r0, r9, lsl #10
    7cd0:	15006400 	strne	r6, [r0, #-1024]	; 0xfffffc00
    7cd4:	00000025 	andeq	r0, r0, r5, lsr #32
    7cd8:	00000471 	andeq	r0, r0, r1, ror r4
    7cdc:	00047116 	andeq	r7, r4, r6, lsl r1
    7ce0:	011a1600 	tsteq	sl, r0, lsl #12
    7ce4:	1c160000 	ldcne	0, cr0, [r6], {-0}
    7ce8:	16000001 	strne	r0, [r0], -r1
    7cec:	00000025 	andeq	r0, r0, r5, lsr #32
    7cf0:	7c040600 	stcvc	6, cr0, [r4], {-0}
    7cf4:	03000004 	movweq	r0, #4
    7cf8:	00000471 	andeq	r0, r0, r1, ror r4
    7cfc:	0003e417 	andeq	lr, r3, r7, lsl r4
    7d00:	05042800 	streq	r2, [r4, #-2048]	; 0xfffff800
    7d04:	c5080260 	strgt	r0, [r8, #-608]	; 0xfffffda0
    7d08:	18000005 	stmdane	r0, {r0, r2}
    7d0c:	0000034c 	andeq	r0, r0, ip, asr #6
    7d10:	07026205 	streq	r6, [r2, -r5, lsl #4]
    7d14:	00000025 	andeq	r0, r0, r5, lsr #32
    7d18:	04911800 	ldreq	r1, [r1], #2048	; 0x800
    7d1c:	67050000 	strvs	r0, [r5, -r0]
    7d20:	069f0b02 	ldreq	r0, [pc], r2, lsl #22
    7d24:	18040000 	stmdane	r4, {}	; <UNPREDICTABLE>
    7d28:	000001e1 	andeq	r0, r0, r1, ror #3
    7d2c:	14026705 	strne	r6, [r2], #-1797	; 0xfffff8fb
    7d30:	0000069f 	muleq	r0, pc, r6	; <UNPREDICTABLE>
    7d34:	01a01808 	lsleq	r1, r8, #16
    7d38:	67050000 	strvs	r0, [r5, -r0]
    7d3c:	069f1e02 	ldreq	r1, [pc], r2, lsl #28
    7d40:	180c0000 	stmdane	ip, {}	; <UNPREDICTABLE>
    7d44:	000003af 	andeq	r0, r0, pc, lsr #7
    7d48:	08026905 	stmdaeq	r2, {r0, r2, r8, fp, sp, lr}
    7d4c:	00000025 	andeq	r0, r0, r5, lsr #32
    7d50:	001a1810 	andseq	r1, sl, r0, lsl r8
    7d54:	6a050000 	bvs	147d5c <__bss_end__+0x13ddfc>
    7d58:	089f0802 	ldmeq	pc, {r1, fp}	; <UNPREDICTABLE>
    7d5c:	18140000 	ldmdane	r4, {}	; <UNPREDICTABLE>
    7d60:	000003c3 	andeq	r0, r0, r3, asr #7
    7d64:	07026d05 	streq	r6, [r2, -r5, lsl #26]
    7d68:	00000025 	andeq	r0, r0, r5, lsr #32
    7d6c:	0a011830 	beq	4de34 <__bss_end__+0x43ed4>
    7d70:	6e050000 	cdpvs	0, 0, cr0, cr5, cr0, {0}
    7d74:	08b41602 	ldmeq	r4!, {r1, r9, sl, ip}
    7d78:	18340000 	ldmdane	r4!, {}	; <UNPREDICTABLE>
    7d7c:	0000028e 	andeq	r0, r0, lr, lsl #5
    7d80:	07027005 	streq	r7, [r2, -r5]
    7d84:	00000025 	andeq	r0, r0, r5, lsr #32
    7d88:	03b91838 			; <UNDEFINED> instruction: 0x03b91838
    7d8c:	72050000 	andvc	r0, r5, #0
    7d90:	08c50a02 	stmiaeq	r5, {r1, r9, fp}^
    7d94:	183c0000 	ldmdane	ip!, {}	; <UNPREDICTABLE>
    7d98:	00000240 	andeq	r0, r0, r0, asr #4
    7d9c:	13027505 	movwne	r7, #9477	; 0x2505
    7da0:	00000194 	muleq	r0, r4, r1
    7da4:	01bf1840 			; <UNDEFINED> instruction: 0x01bf1840
    7da8:	76050000 	strvc	r0, [r5], -r0
    7dac:	00250702 	eoreq	r0, r5, r2, lsl #14
    7db0:	18440000 	stmdane	r4, {}^	; <UNPREDICTABLE>
    7db4:	000004ff 	strdeq	r0, [r0], -pc	; <UNPREDICTABLE>
    7db8:	13027705 	movwne	r7, #9989	; 0x2705
    7dbc:	00000194 	muleq	r0, r4, r1
    7dc0:	02a01848 	adceq	r1, r0, #72, 16	; 0x480000
    7dc4:	78050000 	stmdavc	r5, {}	; <UNPREDICTABLE>
    7dc8:	08cb1402 	stmiaeq	fp, {r1, sl, ip}^
    7dcc:	184c0000 	stmdane	ip, {}^	; <UNPREDICTABLE>
    7dd0:	000001e9 	andeq	r0, r0, r9, ror #3
    7dd4:	07027b05 	streq	r7, [r2, -r5, lsl #22]
    7dd8:	00000025 	andeq	r0, r0, r5, lsr #32
    7ddc:	013e1850 	teqeq	lr, r0, asr r8
    7de0:	7c050000 	stcvc	0, cr0, [r5], {-0}
    7de4:	011c0902 	tsteq	ip, r2, lsl #18
    7de8:	18540000 	ldmdane	r4, {}^	; <UNPREDICTABLE>
    7dec:	000002c6 	andeq	r0, r0, r6, asr #5
    7df0:	07029f05 	streq	r9, [r2, -r5, lsl #30]
    7df4:	0000087a 	andeq	r0, r0, sl, ror r8
    7df8:	02861958 	addeq	r1, r6, #88, 18	; 0x160000
    7dfc:	a3050000 	movwge	r0, #20480	; 0x5000
    7e00:	02c51302 	sbceq	r1, r5, #134217728	; 0x8000000
    7e04:	01480000 	mrseq	r0, (UNDEF: 72)
    7e08:	00021e19 	andeq	r1, r2, r9, lsl lr
    7e0c:	02a40500 	adceq	r0, r4, #0, 10
    7e10:	00028212 	andeq	r8, r2, r2, lsl r2
    7e14:	19014c00 	stmdbne	r1, {sl, fp, lr}
    7e18:	000004ab 	andeq	r0, r0, fp, lsr #9
    7e1c:	0c02a805 	stceq	8, cr10, [r2], {5}
    7e20:	000008dc 	ldrdeq	r0, [r0], -ip
    7e24:	081902dc 	ldmdaeq	r9, {r2, r3, r4, r6, r7, r9}
    7e28:	05000001 	streq	r0, [r0, #-1]
    7e2c:	601002ad 	andsvs	r0, r0, sp, lsr #5
    7e30:	e0000006 	and	r0, r0, r6
    7e34:	00ed1902 	rsceq	r1, sp, r2, lsl #18
    7e38:	af050000 	svcge	0x00050000
    7e3c:	08e80a02 	stmiaeq	r8!, {r1, r9, fp}^
    7e40:	02ec0000 	rsceq	r0, ip, #0
    7e44:	53040600 	movwpl	r0, #17920	; 0x4600
    7e48:	15000004 	strne	r0, [r0, #-4]
    7e4c:	00000025 	andeq	r0, r0, r5, lsr #32
    7e50:	000005e9 	andeq	r0, r0, r9, ror #11
    7e54:	00047116 	andeq	r7, r4, r6, lsl r1
    7e58:	011a1600 	tsteq	sl, r0, lsl #12
    7e5c:	e9160000 	ldmdb	r6, {}	; <UNPREDICTABLE>
    7e60:	16000005 	strne	r0, [r0], -r5
    7e64:	00000025 	andeq	r0, r0, r5, lsr #32
    7e68:	29040600 	stmdbcs	r4, {r9, sl}
    7e6c:	06000001 	streq	r0, [r0], -r1
    7e70:	0005cb04 	andeq	ip, r5, r4, lsl #22
    7e74:	00931500 	addseq	r1, r3, r0, lsl #10
    7e78:	06130000 	ldreq	r0, [r3], -r0
    7e7c:	71160000 	tstvc	r6, r0
    7e80:	16000004 	strne	r0, [r0], -r4
    7e84:	0000011a 	andeq	r0, r0, sl, lsl r1
    7e88:	00009316 	andeq	r9, r0, r6, lsl r3
    7e8c:	00251600 	eoreq	r1, r5, r0, lsl #12
    7e90:	06000000 	streq	r0, [r0], -r0
    7e94:	0005f504 	andeq	pc, r5, r4, lsl #10
    7e98:	00251500 	eoreq	r1, r5, r0, lsl #10
    7e9c:	062d0000 	strteq	r0, [sp], -r0
    7ea0:	71160000 	tstvc	r6, r0
    7ea4:	16000004 	strne	r0, [r0], -r4
    7ea8:	0000011a 	andeq	r0, r0, sl, lsl r1
    7eac:	19040600 	stmdbne	r4, {r9, sl}
    7eb0:	0b000006 	bleq	7ed0 <_start-0x130>
    7eb4:	00000054 	andeq	r0, r0, r4, asr r0
    7eb8:	00000643 	andeq	r0, r0, r3, asr #12
    7ebc:	0000310c 	andeq	r3, r0, ip, lsl #2
    7ec0:	0b000200 	bleq	86c8 <ckalloc+0x140>
    7ec4:	00000054 	andeq	r0, r0, r4, asr r0
    7ec8:	00000653 	andeq	r0, r0, r3, asr r6
    7ecc:	0000310c 	andeq	r3, r0, ip, lsl #2
    7ed0:	08000000 	stmdaeq	r0, {}	; <UNPREDICTABLE>
    7ed4:	00000374 	andeq	r0, r0, r4, ror r3
    7ed8:	1a011f05 	bne	4faf4 <__bss_end__+0x45b94>
    7edc:	00000310 	andeq	r0, r0, r0, lsl r3
    7ee0:	00048b1a 	andeq	r8, r4, sl, lsl fp
    7ee4:	23050c00 	movwcs	r0, #23552	; 0x5c00
    7ee8:	06990801 	ldreq	r0, [r9], r1, lsl #16
    7eec:	9c180000 	ldcls	0, cr0, [r8], {-0}
    7ef0:	05000003 	streq	r0, [r0, #-3]
    7ef4:	99110125 	ldmdbls	r1, {r0, r2, r5, r8}
    7ef8:	00000006 	andeq	r0, r0, r6
    7efc:	00020418 	andeq	r0, r2, r8, lsl r4
    7f00:	01260500 			; <UNDEFINED> instruction: 0x01260500
    7f04:	00002507 	andeq	r2, r0, r7, lsl #10
    7f08:	6e180400 	cfmulsvs	mvf0, mvf8, mvf0
    7f0c:	05000003 	streq	r0, [r0, #-3]
    7f10:	9f0b0127 	svcls	0x000b0127
    7f14:	08000006 	stmdaeq	r0, {r1, r2}
    7f18:	60040600 	andvs	r0, r4, r0, lsl #12
    7f1c:	06000006 	streq	r0, [r0], -r6
    7f20:	00065304 	andeq	r5, r6, r4, lsl #6
    7f24:	00121a00 	andseq	r1, r2, r0, lsl #20
    7f28:	050e0000 	streq	r0, [lr, #-0]
    7f2c:	de08013f 	mcrle	1, 0, r0, cr8, cr15, {1}
    7f30:	18000006 	stmdane	r0, {r1, r2}
    7f34:	000003eb 	andeq	r0, r0, fp, ror #7
    7f38:	12014005 	andne	r4, r1, #5
    7f3c:	000006de 	ldrdeq	r0, [r0], -lr
    7f40:	041f1800 	ldreq	r1, [pc], #-2048	; 7f48 <_start-0xb8>
    7f44:	41050000 	mrsmi	r0, (UNDEF: 5)
    7f48:	06de1201 	ldrbeq	r1, [lr], r1, lsl #4
    7f4c:	18060000 	stmdane	r6, {}	; <UNPREDICTABLE>
    7f50:	0000043b 	andeq	r0, r0, fp, lsr r4
    7f54:	12014205 	andne	r4, r1, #1342177280	; 0x50000000
    7f58:	0000005b 	andeq	r0, r0, fp, asr r0
    7f5c:	5b0b000c 	blpl	2c7f94 <__bss_end__+0x2be034>
    7f60:	ee000000 	cdp	0, 0, cr0, cr0, cr0, {0}
    7f64:	0c000006 	stceq	0, cr0, [r0], {6}
    7f68:	00000031 	andeq	r0, r0, r1, lsr r0
    7f6c:	d01b0002 	andsle	r0, fp, r2
    7f70:	07028005 	streq	r8, [r2, -r5]
    7f74:	00000803 	andeq	r0, r0, r3, lsl #16
    7f78:	00046f18 	andeq	r6, r4, r8, lsl pc
    7f7c:	02820500 	addeq	r0, r2, #0, 10
    7f80:	00003118 	andeq	r3, r0, r8, lsl r1
    7f84:	25180000 	ldrcs	r0, [r8, #-0]
    7f88:	05000004 	streq	r0, [r0, #-4]
    7f8c:	1c120283 	lfmne	f0, 4, [r2], {131}	; 0x83
    7f90:	04000001 	streq	r0, [r0], #-1
    7f94:	00023318 	andeq	r3, r2, r8, lsl r3
    7f98:	02840500 	addeq	r0, r4, #0, 10
    7f9c:	00080310 	andeq	r0, r8, r0, lsl r3
    7fa0:	d6180800 	ldrle	r0, [r8], -r0, lsl #16
    7fa4:	05000004 	streq	r0, [r0, #-4]
    7fa8:	aa170285 	bge	5c89c4 <__bss_end__+0x5bea64>
    7fac:	24000001 	strcs	r0, [r0], #-1
    7fb0:	0001b018 	andeq	fp, r1, r8, lsl r0
    7fb4:	02860500 	addeq	r0, r6, #0, 10
    7fb8:	0000250f 	andeq	r2, r0, pc, lsl #10
    7fbc:	97184800 	ldrls	r4, [r8, -r0, lsl #16]
    7fc0:	05000003 	streq	r0, [r0, #-3]
    7fc4:	692c0287 	stmdbvs	ip!, {r0, r1, r2, r7, r9}
    7fc8:	50000000 	andpl	r0, r0, r0
    7fcc:	0004ec18 	andeq	lr, r4, r8, lsl ip
    7fd0:	02880500 	addeq	r0, r8, #0, 10
    7fd4:	0006a51a 	andeq	sl, r6, sl, lsl r5
    7fd8:	a2185800 	andsge	r5, r8, #0, 16
    7fdc:	05000003 	streq	r0, [r0, #-3]
    7fe0:	02160289 	andseq	r0, r6, #-1879048184	; 0x90000008
    7fe4:	68000001 	stmdavs	r0, {r0}
    7fe8:	0004f118 	andeq	pc, r4, r8, lsl r1	; <UNPREDICTABLE>
    7fec:	028a0500 	addeq	r0, sl, #0, 10
    7ff0:	00010216 	andeq	r0, r1, r6, lsl r2
    7ff4:	aa187000 	bge	623ffc <__bss_end__+0x61a09c>
    7ff8:	05000002 	streq	r0, [r0, #-2]
    7ffc:	0216028b 	andseq	r0, r6, #-1342177272	; 0xb0000008
    8000:	78000001 	stmdavc	r0, {r0}
    8004:	0004a118 	andeq	sl, r4, r8, lsl r1
    8008:	028c0500 	addeq	r0, ip, #0, 10
    800c:	00081310 	andeq	r1, r8, r0, lsl r3
    8010:	27188000 	ldrcs	r8, [r8, -r0]
    8014:	05000002 	streq	r0, [r0, #-2]
    8018:	2310028d 	tstcs	r0, #-805306360	; 0xd0000008
    801c:	88000008 	stmdahi	r0, {r3}
    8020:	00044818 	andeq	r4, r4, r8, lsl r8
    8024:	028e0500 	addeq	r0, lr, #0, 10
    8028:	0000250f 	andeq	r2, r0, pc, lsl #10
    802c:	7618a000 	ldrvc	sl, [r8], -r0
    8030:	05000001 	streq	r0, [r0, #-1]
    8034:	0216028f 	andseq	r0, r6, #-268435448	; 0xf0000008
    8038:	a4000001 	strge	r0, [r0], #-1
    803c:	00008018 	andeq	r8, r0, r8, lsl r0
    8040:	02900500 	addseq	r0, r0, #0, 10
    8044:	00010216 	andeq	r0, r1, r6, lsl r2
    8048:	6518ac00 	ldrvs	sl, [r8, #-3072]	; 0xfffff400
    804c:	05000001 	streq	r0, [r0, #-1]
    8050:	02160291 	andseq	r0, r6, #268435465	; 0x10000009
    8054:	b4000001 	strlt	r0, [r0], #-1
    8058:	00002d18 	andeq	r2, r0, r8, lsl sp
    805c:	02920500 	addseq	r0, r2, #0, 10
    8060:	00010216 	andeq	r0, r1, r6, lsl r2
    8064:	3c18bc00 	ldccc	12, cr11, [r8], {-0}
    8068:	05000000 	streq	r0, [r0, #-0]
    806c:	02160293 	andseq	r0, r6, #805306377	; 0x30000009
    8070:	c4000001 	strgt	r0, [r0], #-1
    8074:	00034a18 	andeq	r4, r3, r8, lsl sl
    8078:	02940500 	addseq	r0, r4, #0, 10
    807c:	00002508 	andeq	r2, r0, r8, lsl #10
    8080:	0b00cc00 	bleq	3b088 <__bss_end__+0x31128>
    8084:	00000122 	andeq	r0, r0, r2, lsr #2
    8088:	00000813 	andeq	r0, r0, r3, lsl r8
    808c:	0000310c 	andeq	r3, r0, ip, lsl #2
    8090:	0b001900 	bleq	e498 <__bss_end__+0x4538>
    8094:	00000122 	andeq	r0, r0, r2, lsr #2
    8098:	00000823 	andeq	r0, r0, r3, lsr #16
    809c:	0000310c 	andeq	r3, r0, ip, lsl #2
    80a0:	0b000700 	bleq	9ca8 <buf.4297+0x14c>
    80a4:	00000122 	andeq	r0, r0, r2, lsr #2
    80a8:	00000833 	andeq	r0, r0, r3, lsr r8
    80ac:	0000310c 	andeq	r3, r0, ip, lsl #2
    80b0:	1b001700 	blne	dcb8 <__bss_end__+0x3d58>
    80b4:	029905f0 	addseq	r0, r9, #240, 10	; 0x3c000000
    80b8:	00085a07 	andeq	r5, r8, r7, lsl #20
    80bc:	02761800 	rsbseq	r1, r6, #0, 16
    80c0:	9c050000 	stcls	0, cr0, [r5], {-0}
    80c4:	085a1b02 	ldmdaeq	sl, {r1, r8, r9, fp, ip}^
    80c8:	18000000 	stmdane	r0, {}	; <UNPREDICTABLE>
    80cc:	00000498 	muleq	r0, r8, r4
    80d0:	18029d05 	stmdane	r2, {r0, r2, r8, sl, fp, ip, pc}
    80d4:	0000086a 	andeq	r0, r0, sl, ror #16
    80d8:	0a0b0078 	beq	2c82c0 <__bss_end__+0x2be360>
    80dc:	6a000003 	bvs	80f0 <check_free_write+0x20>
    80e0:	0c000008 	stceq	0, cr0, [r0], {8}
    80e4:	00000031 	andeq	r0, r0, r1, lsr r0
    80e8:	310b001d 	tstcc	fp, sp, lsl r0
    80ec:	7a000000 	bvc	80f4 <check_free_write+0x24>
    80f0:	0c000008 	stceq	0, cr0, [r0], {8}
    80f4:	00000031 	andeq	r0, r0, r1, lsr r0
    80f8:	f01c001d 			; <UNDEFINED> instruction: 0xf01c001d
    80fc:	03027e05 	movweq	r7, #11781	; 0x2e05
    8100:	0000089f 	muleq	r0, pc, r8	; <UNPREDICTABLE>
    8104:	0003e41d 	andeq	lr, r3, sp, lsl r4
    8108:	02950500 	addseq	r0, r5, #0, 10
    810c:	0006ee0b 	andeq	lr, r6, fp, lsl #28
    8110:	04c31d00 	strbeq	r1, [r3], #3328	; 0xd00
    8114:	9e050000 	cdpls	0, 0, cr0, cr5, cr0, {0}
    8118:	08330b02 	ldmdaeq	r3!, {r1, r8, r9, fp}
    811c:	0b000000 	bleq	8124 <check_free_write+0x54>
    8120:	00000122 	andeq	r0, r0, r2, lsr #2
    8124:	000008af 	andeq	r0, r0, pc, lsr #17
    8128:	0000310c 	andeq	r3, r0, ip, lsl #2
    812c:	07001800 	streq	r1, [r0, -r0, lsl #16]
    8130:	00000075 	andeq	r0, r0, r5, ror r0
    8134:	08af0406 	stmiaeq	pc!, {r1, r2, sl}	; <UNPREDICTABLE>
    8138:	c51e0000 	ldrgt	r0, [lr, #-0]
    813c:	16000008 	strne	r0, [r0], -r8
    8140:	00000471 	andeq	r0, r0, r1, ror r4
    8144:	ba040600 	blt	10994c <__bss_end__+0xff9ec>
    8148:	06000008 	streq	r0, [r0], -r8
    814c:	00019404 	andeq	r9, r1, r4, lsl #8
    8150:	08dc1e00 	ldmeq	ip, {r9, sl, fp, ip}^
    8154:	25160000 	ldrcs	r0, [r6, #-0]
    8158:	00000000 	andeq	r0, r0, r0
    815c:	08e20406 	stmiaeq	r2!, {r1, r2, sl}^
    8160:	04060000 	streq	r0, [r6], #-0
    8164:	000008d1 	ldrdeq	r0, [r0], -r1
    8168:	0006530b 	andeq	r5, r6, fp, lsl #6
    816c:	0008f800 	andeq	pc, r8, r0, lsl #16
    8170:	00310c00 	eorseq	r0, r1, r0, lsl #24
    8174:	00020000 	andeq	r0, r2, r0
    8178:	00045c1f 	andeq	r5, r4, pc, lsl ip
    817c:	032e0500 			; <UNDEFINED> instruction: 0x032e0500
    8180:	00047117 	andeq	r7, r4, r7, lsl r1
    8184:	04551f00 	ldrbeq	r1, [r5], #-3840	; 0xfffff100
    8188:	2f050000 	svccs	0x00050000
    818c:	04771d03 	ldrbteq	r1, [r7], #-3331	; 0xfffff2fd
    8190:	25150000 	ldrcs	r0, [r5, #-0]
    8194:	21000000 	mrscs	r0, (UNDEF: 0)
    8198:	16000009 	strne	r0, [r0], -r9
    819c:	00000025 	andeq	r0, r0, r5, lsr #32
    81a0:	01c92000 	biceq	r2, r9, r0
    81a4:	1d060000 	stcne	0, cr0, [r6, #-0]
    81a8:	00092d0e 	andeq	r2, r9, lr, lsl #26
    81ac:	12040600 	andne	r0, r4, #0, 12
    81b0:	15000009 	strne	r0, [r0, #-9]
    81b4:	00000025 	andeq	r0, r0, r5, lsr #32
    81b8:	00000942 	andeq	r0, r0, r2, asr #18
    81bc:	0005e916 	andeq	lr, r5, r6, lsl r9
    81c0:	68200000 	stmdavs	r0!, {}	; <UNPREDICTABLE>
    81c4:	06000007 	streq	r0, [r0], -r7
    81c8:	094e0e22 	stmdbeq	lr, {r1, r5, r9, sl, fp}^
    81cc:	04060000 	streq	r0, [r6], #-0
    81d0:	00000933 	andeq	r0, r0, r3, lsr r9
    81d4:	0008a221 	andeq	sl, r8, r1, lsr #4
    81d8:	110d0100 	mrsne	r0, (UNDEF: 29)
    81dc:	00000031 	andeq	r0, r0, r1, lsr r0
    81e0:	0007f522 	andeq	pc, r7, r2, lsr #10
    81e4:	061f0100 	ldreq	r0, [pc], -r0, lsl #2
    81e8:	00009060 	andeq	r9, r0, r0, rrx
    81ec:	0000004c 	andeq	r0, r0, ip, asr #32
    81f0:	0a2c9c01 	beq	b2f1fc <__bss_end__+0xb2529c>
    81f4:	3d230000 	stccc	0, cr0, [r3, #-0]
    81f8:	01000008 	tsteq	r0, r8
    81fc:	002c0f2a 	eoreq	r0, ip, sl, lsr #30
    8200:	11b50000 			; <UNDEFINED> instruction: 0x11b50000
    8204:	11b30000 			; <UNDEFINED> instruction: 0x11b30000
    8208:	64230000 	strtvs	r0, [r3], #-0
    820c:	01000008 	tsteq	r0, r8
    8210:	002c0f2b 	eoreq	r0, ip, fp, lsr #30
    8214:	11cf0000 	bicne	r0, pc, r0
    8218:	11cd0000 	bicne	r0, sp, r0
    821c:	71230000 			; <UNDEFINED> instruction: 0x71230000
    8220:	01000008 	tsteq	r0, r8
    8224:	002c0f2c 	eoreq	r0, ip, ip, lsr #30
    8228:	11e90000 	mvnne	r0, r0
    822c:	11e70000 	mvnne	r0, r0
    8230:	4b230000 	blmi	8c8238 <__bss_end__+0x8be2d8>
    8234:	01000008 	tsteq	r0, r8
    8238:	002c0f2d 	eoreq	r0, ip, sp, lsr #30
    823c:	12020000 	andne	r0, r2, #0
    8240:	12000000 	andne	r0, r0, #0
    8244:	68240000 	stmdavs	r4!, {}	; <UNPREDICTABLE>
    8248:	57000090 			; <UNDEFINED> instruction: 0x57000090
    824c:	2500000a 	strcs	r0, [r0, #-10]
    8250:	00009078 	andeq	r9, r0, r8, ror r0
    8254:	00000a86 	andeq	r0, r0, r6, lsl #21
    8258:	000009e2 	andeq	r0, r0, r2, ror #19
    825c:	01500126 	cmpeq	r0, r6, lsr #2
    8260:	8425004e 	strthi	r0, [r5], #-78	; 0xffffffb2
    8264:	92000090 	andls	r0, r0, #144	; 0x90
    8268:	0200000a 	andeq	r0, r0, #10
    826c:	2600000a 	strcs	r0, [r0], -sl
    8270:	0c055001 	stceq	0, cr5, [r5], {1}
    8274:	20100024 	andscs	r0, r0, r4, lsr #32
    8278:	05510126 	ldrbeq	r0, [r1, #-294]	; 0xfffffeda
    827c:	0000010c 	andeq	r0, r0, ip, lsl #2
    8280:	9025005a 	eorls	r0, r5, sl, asr r0
    8284:	92000090 	andls	r0, r0, #144	; 0x90
    8288:	2200000a 	andcs	r0, r0, #10
    828c:	2600000a 	strcs	r0, [r0], -sl
    8290:	0c055001 	stceq	0, cr5, [r5], {1}
    8294:	2010001c 	andscs	r0, r0, ip, lsl r0
    8298:	05510126 	ldrbeq	r0, [r1, #-294]	; 0xfffffeda
    829c:	0000200c 	andeq	r2, r0, ip
    82a0:	9824005a 	stmdals	r4!, {r1, r3, r4, r6}
    82a4:	2c000090 	stccs	0, cr0, [r0], {144}	; 0x90
    82a8:	0000000a 	andeq	r0, r0, sl
    82ac:	00089027 	andeq	r9, r8, r7, lsr #32
    82b0:	06170100 	ldreq	r0, [r7], -r0, lsl #2
    82b4:	0000904c 	andeq	r9, r0, ip, asr #32
    82b8:	00000014 	andeq	r0, r0, r4, lsl r0
    82bc:	0a579c01 	beq	15ef2c8 <__bss_end__+0x15e5368>
    82c0:	6c230000 	stcvs	0, cr0, [r3], #-0
    82c4:	01000008 	tsteq	r0, r8
    82c8:	00310e18 	eorseq	r0, r1, r8, lsl lr
    82cc:	121d0000 	andsne	r0, sp, #0
    82d0:	12170000 	andsne	r0, r7, #0
    82d4:	28000000 	stmdacs	r0, {}	; <UNPREDICTABLE>
    82d8:	0000089f 	muleq	r0, pc, r8	; <UNPREDICTABLE>
    82dc:	25050e01 	strcs	r0, [r5, #-3585]	; 0xfffff1ff
    82e0:	34000000 	strcc	r0, [r0], #-0
    82e4:	18000090 	stmdane	r0, {r4, r7}
    82e8:	01000000 	mrseq	r0, (UNDEF: 0)
    82ec:	000a869c 	muleq	sl, ip, r6
    82f0:	086c2300 	stmdaeq	ip!, {r8, r9, sp}^
    82f4:	0f010000 	svceq	0x00010000
    82f8:	0000310e 	andeq	r3, r0, lr, lsl #2
    82fc:	00124b00 	andseq	r4, r2, r0, lsl #22
    8300:	00124700 	andseq	r4, r2, r0, lsl #14
    8304:	ec290000 	stc	0, cr0, [r9], #-0
    8308:	ec000007 	stc	0, cr0, [r0], {7}
    830c:	06000007 	streq	r0, [r0], -r7
    8310:	4529064f 	strmi	r0, [r9, #-1615]!	; 0xfffff9b1
    8314:	45000008 	strmi	r0, [r0, #-8]
    8318:	06000008 	streq	r0, [r0], -r8
    831c:	ea00069b 	b	9d90 <buf.4297+0x234>
    8320:	0400000a 	streq	r0, [r0], #-10
    8324:	001a4b00 	andseq	r4, sl, r0, lsl #22
    8328:	cb010400 	blgt	49330 <__bss_end__+0x3f3d0>
    832c:	0c000002 	stceq	0, cr0, [r0], {2}
    8330:	000008d3 	ldrdeq	r0, [r0], -r3
    8334:	000006c1 	andeq	r0, r0, r1, asr #13
    8338:	000090ac 	andeq	r9, r0, ip, lsr #1
    833c:	0000008c 	andeq	r0, r0, ip, lsl #1
    8340:	0000171e 	andeq	r1, r0, lr, lsl r7
    8344:	69050402 	stmdbvs	r5, {r1, sl}
    8348:	0300746e 	movweq	r7, #1134	; 0x46e
    834c:	00570704 	subseq	r0, r7, r4, lsl #14
    8350:	01030000 	mrseq	r0, (UNDEF: 3)
    8354:	0002ba06 	andeq	fp, r2, r6, lsl #20
    8358:	05020300 	streq	r0, [r2, #-768]	; 0xfffffd00
    835c:	00000353 	andeq	r0, r0, r3, asr r3
    8360:	9d050403 	cfstrsls	mvf0, [r5, #-12]
    8364:	03000000 	movweq	r0, #0
    8368:	00980508 	addseq	r0, r8, r8, lsl #10
    836c:	01030000 	mrseq	r0, (UNDEF: 3)
    8370:	0002b808 	andeq	fp, r2, r8, lsl #16
    8374:	07020300 	streq	r0, [r2, -r0, lsl #6]
    8378:	0000020b 	andeq	r0, r0, fp, lsl #4
    837c:	52070403 	andpl	r0, r7, #50331648	; 0x3000000
    8380:	03000000 	movweq	r0, #0
    8384:	004d0708 	subeq	r0, sp, r8, lsl #14
    8388:	4e040000 	cdpmi	0, 0, cr0, cr4, cr0, {0}
    838c:	02000002 	andeq	r0, r0, #2
    8390:	00771922 	rsbseq	r1, r7, r2, lsr #18
    8394:	04050000 	streq	r0, [r5], #-0
    8398:	0000007d 	andeq	r0, r0, sp, ror r0
    839c:	0003f906 	andeq	pc, r3, r6, lsl #18
    83a0:	02990400 	addseq	r0, r9, #0, 8
    83a4:	2c030000 	stccs	0, cr0, [r3], {-0}
    83a8:	0000410e 	andeq	r4, r0, lr, lsl #2
    83ac:	040e0400 	streq	r0, [lr], #-1024	; 0xfffffc00
    83b0:	72030000 	andvc	r0, r3, #0
    83b4:	0000410e 	andeq	r4, r0, lr, lsl #2
    83b8:	02560700 	subseq	r0, r6, #0, 14
    83bc:	5e040000 	cdppl	0, 0, cr0, cr4, cr0, {0}
    83c0:	002c1701 	eoreq	r1, ip, r1, lsl #14
    83c4:	04080000 	streq	r0, [r8], #-0
    83c8:	c903a603 	stmdbgt	r3, {r0, r1, r9, sl, sp, pc}
    83cc:	09000000 	stmdbeq	r0, {}	; <UNPREDICTABLE>
    83d0:	00000248 	andeq	r0, r0, r8, asr #4
    83d4:	9a0ca803 	bls	3323e8 <__bss_end__+0x328488>
    83d8:	09000000 	stmdbeq	r0, {}	; <UNPREDICTABLE>
    83dc:	000001da 	ldrdeq	r0, [r0], -sl
    83e0:	c913a903 	ldmdbgt	r3, {r0, r1, r8, fp, sp, pc}
    83e4:	00000000 	andeq	r0, r0, r0
    83e8:	00004f0a 	andeq	r4, r0, sl, lsl #30
    83ec:	0000d900 	andeq	sp, r0, r0, lsl #18
    83f0:	002c0b00 	eoreq	r0, ip, r0, lsl #22
    83f4:	00030000 	andeq	r0, r3, r0
    83f8:	a303080c 	movwge	r0, #14348	; 0x380c
    83fc:	0000fd09 	andeq	pc, r0, r9, lsl #26
    8400:	03f10d00 	mvnseq	r0, #0, 26
    8404:	a5030000 	strge	r0, [r3, #-0]
    8408:	00002507 	andeq	r2, r0, r7, lsl #10
    840c:	000d0000 	andeq	r0, sp, r0
    8410:	03000004 	movweq	r0, #4
    8414:	00a705aa 	adceq	r0, r7, sl, lsr #11
    8418:	00040000 	andeq	r0, r4, r0
    841c:	00037b04 	andeq	r7, r3, r4, lsl #22
    8420:	03ab0300 			; <UNDEFINED> instruction: 0x03ab0300
    8424:	000000d9 	ldrdeq	r0, [r0], -r9
    8428:	00019704 	andeq	r9, r1, r4, lsl #14
    842c:	1baf0300 	blne	febc9034 <__bss_end__+0xfebbf0d4>
    8430:	0000006b 	andeq	r0, r0, fp, rrx
    8434:	0405040e 	streq	r0, [r5], #-1038	; 0xfffffbf2
    8438:	0000011d 	andeq	r0, r0, sp, lsl r1
    843c:	c1080103 	tstgt	r8, r3, lsl #2
    8440:	0f000002 	svceq	0x00000002
    8444:	0000011d 	andeq	r0, r0, sp, lsl r1
    8448:	00044004 	andeq	r4, r4, r4
    844c:	19160500 	ldmdbne	r6, {r8, sl}
    8450:	0000005d 	andeq	r0, r0, sp, asr r0
    8454:	0001a810 	andeq	sl, r1, r0, lsl r8
    8458:	2f051800 	svccs	0x00051800
    845c:	00018f08 	andeq	r8, r1, r8, lsl #30
    8460:	039c0d00 	orrseq	r0, ip, #0, 26
    8464:	31050000 	mrscc	r0, (UNDEF: 5)
    8468:	00018f13 	andeq	r8, r1, r3, lsl pc
    846c:	5f110000 	svcpl	0x00110000
    8470:	3205006b 	andcc	r0, r5, #107	; 0x6b
    8474:	00002507 	andeq	r2, r0, r7, lsl #10
    8478:	dc0d0400 	cfstrsle	mvf0, [sp], {-0}
    847c:	05000003 	streq	r0, [r0, #-3]
    8480:	00250b32 	eoreq	r0, r5, r2, lsr fp
    8484:	0d080000 	stceq	0, cr0, [r8, #-0]
    8488:	00000191 	muleq	r0, r1, r1
    848c:	25143205 	ldrcs	r3, [r4, #-517]	; 0xfffffdfb
    8490:	0c000000 	stceq	0, cr0, [r0], {-0}
    8494:	00047c0d 	andeq	r7, r4, sp, lsl #24
    8498:	1b320500 	blne	c898a0 <__bss_end__+0xc7f940>
    849c:	00000025 	andeq	r0, r0, r5, lsr #32
    84a0:	785f1110 	ldmdavc	pc, {r4, r8, ip}^	; <UNPREDICTABLE>
    84a4:	0b330500 	bleq	cc98ac <__bss_end__+0xcbf94c>
    84a8:	00000195 	muleq	r0, r5, r1
    84ac:	04050014 	streq	r0, [r5], #-20	; 0xffffffec
    84b0:	00000135 	andeq	r0, r0, r5, lsr r1
    84b4:	0001290a 	andeq	r2, r1, sl, lsl #18
    84b8:	0001a500 	andeq	sl, r1, r0, lsl #10
    84bc:	002c0b00 	eoreq	r0, ip, r0, lsl #22
    84c0:	00000000 	andeq	r0, r0, r0
    84c4:	0001d510 	andeq	sp, r1, r0, lsl r5
    84c8:	37052400 	strcc	r2, [r5, -r0, lsl #8]
    84cc:	00022808 	andeq	r2, r2, r8, lsl #16
    84d0:	008f0d00 	addeq	r0, pc, r0, lsl #26
    84d4:	39050000 	stmdbcc	r5, {}	; <UNPREDICTABLE>
    84d8:	00002509 	andeq	r2, r0, r9, lsl #10
    84dc:	160d0000 	strne	r0, [sp], -r0
    84e0:	05000004 	streq	r0, [r0, #-4]
    84e4:	0025093a 	eoreq	r0, r5, sl, lsr r9
    84e8:	0d040000 	stceq	0, cr0, [r4, #-0]
    84ec:	000000b2 	strheq	r0, [r0], -r2
    84f0:	25093b05 	strcs	r3, [r9, #-2821]	; 0xfffff4fb
    84f4:	08000000 	stmdaeq	r0, {}	; <UNPREDICTABLE>
    84f8:	0005040d 	andeq	r0, r5, sp, lsl #8
    84fc:	093c0500 	ldmdbeq	ip!, {r8, sl}
    8500:	00000025 	andeq	r0, r0, r5, lsr #32
    8504:	027d0d0c 	rsbseq	r0, sp, #12, 26	; 0x300
    8508:	3d050000 	stccc	0, cr0, [r5, #-0]
    850c:	00002509 	andeq	r2, r0, r9, lsl #10
    8510:	6c0d1000 	stcvs	0, cr1, [sp], {-0}
    8514:	05000002 	streq	r0, [r0, #-2]
    8518:	0025093e 	eoreq	r0, r5, lr, lsr r9
    851c:	0d140000 	ldceq	0, cr0, [r4, #-0]
    8520:	00000481 	andeq	r0, r0, r1, lsl #9
    8524:	25093f05 	strcs	r3, [r9, #-3845]	; 0xfffff0fb
    8528:	18000000 	stmdane	r0, {}	; <UNPREDICTABLE>
    852c:	00035d0d 	andeq	r5, r3, sp, lsl #26
    8530:	09400500 	stmdbeq	r0, {r8, sl}^
    8534:	00000025 	andeq	r0, r0, r5, lsr #32
    8538:	04cb0d1c 	strbeq	r0, [fp], #3356	; 0xd1c
    853c:	41050000 	mrsmi	r0, (UNDEF: 5)
    8540:	00002509 	andeq	r2, r0, r9, lsl #10
    8544:	12002000 	andne	r2, r0, #0
    8548:	000000f2 	strdeq	r0, [r0], -r2
    854c:	4a050108 	bmi	148974 <__bss_end__+0x13ea14>
    8550:	00026d08 	andeq	r6, r2, r8, lsl #26
    8554:	01840d00 	orreq	r0, r4, r0, lsl #26
    8558:	4b050000 	blmi	148560 <__bss_end__+0x13e600>
    855c:	00026d0a 	andeq	r6, r2, sl, lsl #26
    8560:	000d0000 	andeq	r0, sp, r0
    8564:	05000000 	streq	r0, [r0, #-0]
    8568:	026d094c 	rsbeq	r0, sp, #76, 18	; 0x130000
    856c:	13800000 	orrne	r0, r0, #0
    8570:	00000432 	andeq	r0, r0, r2, lsr r4
    8574:	290a4e05 	stmdbcs	sl, {r0, r2, r9, sl, fp, lr}
    8578:	00000001 	andeq	r0, r0, r1
    857c:	01171301 	tsteq	r7, r1, lsl #6
    8580:	51050000 	mrspl	r0, (UNDEF: 5)
    8584:	0001290a 	andeq	r2, r1, sl, lsl #18
    8588:	00010400 	andeq	r0, r1, r0, lsl #8
    858c:	0001150a 	andeq	r1, r1, sl, lsl #10
    8590:	00027d00 	andeq	r7, r2, r0, lsl #26
    8594:	002c0b00 	eoreq	r0, ip, r0, lsl #22
    8598:	001f0000 	andseq	r0, pc, r0
    859c:	00028612 	andeq	r8, r2, r2, lsl r6
    85a0:	05019000 	streq	r9, [r1, #-0]
    85a4:	02c0085d 	sbceq	r0, r0, #6094848	; 0x5d0000
    85a8:	9c0d0000 	stcls	0, cr0, [sp], {-0}
    85ac:	05000003 	streq	r0, [r0, #-3]
    85b0:	02c0125e 	sbceq	r1, r0, #-536870907	; 0xe0000005
    85b4:	0d000000 	stceq	0, cr0, [r0, #-0]
    85b8:	000003b4 			; <UNDEFINED> instruction: 0x000003b4
    85bc:	25065f05 	strcs	r5, [r6, #-3845]	; 0xfffff0fb
    85c0:	04000000 	streq	r0, [r0], #-0
    85c4:	00018c0d 	andeq	r8, r1, sp, lsl #24
    85c8:	09610500 	stmdbeq	r1!, {r8, sl}^
    85cc:	000002c6 	andeq	r0, r0, r6, asr #5
    85d0:	00f20d08 	rscseq	r0, r2, r8, lsl #26
    85d4:	62050000 	andvs	r0, r5, #0
    85d8:	0002281e 	andeq	r2, r2, lr, lsl r8
    85dc:	05008800 	streq	r8, [r0, #-2048]	; 0xfffff800
    85e0:	00027d04 	andeq	r7, r2, r4, lsl #26
    85e4:	02d60a00 	sbcseq	r0, r6, #0, 20
    85e8:	02d60000 	sbcseq	r0, r6, #0
    85ec:	2c0b0000 	stccs	0, cr0, [fp], {-0}
    85f0:	1f000000 	svcne	0x00000000
    85f4:	dc040500 	cfstr32le	mvfx0, [r4], {-0}
    85f8:	14000002 	strne	r0, [r0], #-2
    85fc:	00036710 	andeq	r6, r3, r0, lsl r7
    8600:	75050800 	strvc	r0, [r5, #-2048]	; 0xfffff800
    8604:	00030508 	andeq	r0, r3, r8, lsl #10
    8608:	00ac0d00 	adceq	r0, ip, r0, lsl #26
    860c:	76050000 	strvc	r0, [r5], -r0
    8610:	00030511 	andeq	r0, r3, r1, lsl r5
    8614:	0c0d0000 	stceq	0, cr0, [sp], {-0}
    8618:	05000000 	streq	r0, [r0, #-0]
    861c:	00250677 	eoreq	r0, r5, r7, ror r6
    8620:	00040000 	andeq	r0, r4, r0
    8624:	004f0405 	subeq	r0, pc, r5, lsl #8
    8628:	86100000 	ldrhi	r0, [r0], -r0
    862c:	68000003 	stmdavs	r0, {r0, r1}
    8630:	4e08b505 	cfsh32mi	mvfx11, mvfx8, #5
    8634:	11000004 	tstne	r0, r4
    8638:	0500705f 	streq	r7, [r0, #-95]	; 0xffffffa1
    863c:	030512b6 	movweq	r1, #21174	; 0x52b6
    8640:	11000000 	mrsne	r0, (UNDEF: 0)
    8644:	0500725f 	streq	r7, [r0, #-607]	; 0xfffffda1
    8648:	002507b7 	strhteq	r0, [r5], -r7
    864c:	11040000 	mrsne	r0, (UNDEF: 4)
    8650:	0500775f 	streq	r7, [r0, #-1887]	; 0xfffff8a1
    8654:	002507b8 	strhteq	r0, [r5], -r8
    8658:	0d080000 	stceq	0, cr0, [r8, #-0]
    865c:	00000110 	andeq	r0, r0, r0, lsl r1
    8660:	3a09b905 	bcc	276a7c <__bss_end__+0x26cb1c>
    8664:	0c000000 	stceq	0, cr0, [r0], {-0}
    8668:	0001f10d 	andeq	pc, r1, sp, lsl #2
    866c:	09ba0500 	ldmibeq	sl!, {r8, sl}
    8670:	0000003a 	andeq	r0, r0, sl, lsr r0
    8674:	625f110e 	subsvs	r1, pc, #-2147483645	; 0x80000003
    8678:	bb050066 	bllt	148818 <__bss_end__+0x13e8b8>
    867c:	0002dd11 	andeq	sp, r2, r1, lsl sp
    8680:	6c0d1000 	stcvs	0, cr1, [sp], {-0}
    8684:	05000000 	streq	r0, [r0, #-0]
    8688:	002507bc 	strhteq	r0, [r5], -ip
    868c:	0d180000 	ldceq	0, cr0, [r8, #-0]
    8690:	00000100 	andeq	r0, r0, r0, lsl #2
    8694:	150ac305 	strne	ip, [sl, #-773]	; 0xfffffcfb
    8698:	1c000001 	stcne	0, cr0, [r0], {1}
    869c:	000b240d 	andeq	r2, fp, sp, lsl #8
    86a0:	1dc50500 	cfstr64ne	mvdx0, [r5]
    86a4:	000005c0 	andeq	r0, r0, r0, asr #11
    86a8:	06190d20 	ldreq	r0, [r9], -r0, lsr #26
    86ac:	c7050000 	strgt	r0, [r5, -r0]
    86b0:	0005ea1d 	andeq	lr, r5, sp, lsl sl
    86b4:	080d2400 	stmdaeq	sp, {sl, sp}
    86b8:	05000004 	streq	r0, [r0, #-4]
    86bc:	060e0dca 	streq	r0, [lr], -sl, asr #27
    86c0:	0d280000 	stceq	0, cr0, [r8, #-0]
    86c4:	000004e5 	andeq	r0, r0, r5, ror #9
    86c8:	2809cb05 	stmdacs	r9, {r0, r2, r8, r9, fp, lr, pc}
    86cc:	2c000006 	stccs	0, cr0, [r0], {6}
    86d0:	62755f11 	rsbsvs	r5, r5, #17, 30	; 0x44
    86d4:	11ce0500 	bicne	r0, lr, r0, lsl #10
    86d8:	000002dd 	ldrdeq	r0, [r0], -sp
    86dc:	755f1130 	ldrbvc	r1, [pc, #-304]	; 85b4 <ckalloc+0x2c>
    86e0:	cf050070 	svcgt	0x00050070
    86e4:	00030512 	andeq	r0, r3, r2, lsl r5
    86e8:	5f113800 	svcpl	0x00113800
    86ec:	05007275 	streq	r7, [r0, #-629]	; 0xfffffd8b
    86f0:	002507d0 	ldrdeq	r0, [r5], -r0	; <UNPREDICTABLE>
    86f4:	0d3c0000 	ldceq	0, cr0, [ip, #-0]
    86f8:	000000a6 	andeq	r0, r0, r6, lsr #1
    86fc:	2e11d305 	cdpcs	3, 1, cr13, cr1, cr5, {0}
    8700:	40000006 	andmi	r0, r0, r6
    8704:	0004bd0d 	andeq	fp, r4, sp, lsl #26
    8708:	11d40500 	bicsne	r0, r4, r0, lsl #10
    870c:	0000063e 	andeq	r0, r0, lr, lsr r6
    8710:	6c5f1143 	ldfvse	f1, [pc], {67}	; 0x43
    8714:	d7050062 	strle	r0, [r5, -r2, rrx]
    8718:	0002dd11 	andeq	sp, r2, r1, lsl sp
    871c:	350d4400 	strcc	r4, [sp, #-1024]	; 0xfffffc00
    8720:	05000001 	streq	r0, [r0, #-1]
    8724:	002507da 	ldrdeq	r0, [r5], -sl	; <UNPREDICTABLE>
    8728:	0d4c0000 	stcleq	0, cr0, [ip, #-0]
    872c:	00000146 	andeq	r0, r0, r6, asr #2
    8730:	820adb05 	andhi	sp, sl, #5120	; 0x1400
    8734:	50000000 	andpl	r0, r0, r0
    8738:	000ac50d 	andeq	ip, sl, sp, lsl #10
    873c:	12de0500 	sbcsne	r0, lr, #0, 10
    8740:	0000046c 	andeq	r0, r0, ip, ror #8
    8744:	03fa0d54 	mvnseq	r0, #84, 26	; 0x1500
    8748:	e2050000 	and	r0, r5, #0
    874c:	0001090c 	andeq	r0, r1, ip, lsl #18
    8750:	8e0d5800 	cdphi	8, 0, cr5, cr13, cr0, {0}
    8754:	05000003 	streq	r0, [r0, #-3]
    8758:	00fd0ee4 	rscseq	r0, sp, r4, ror #29
    875c:	0d5c0000 	ldcleq	0, cr0, [ip, #-0]
    8760:	00000264 	andeq	r0, r0, r4, ror #4
    8764:	2509e505 	strcs	lr, [r9, #-1285]	; 0xfffffafb
    8768:	64000000 	strvs	r0, [r0], #-0
    876c:	00251500 	eoreq	r1, r5, r0, lsl #10
    8770:	046c0000 	strbteq	r0, [ip], #-0
    8774:	6c160000 	ldcvs	0, cr0, [r6], {-0}
    8778:	16000004 	strne	r0, [r0], -r4
    877c:	00000115 	andeq	r0, r0, r5, lsl r1
    8780:	00011716 	andeq	r1, r1, r6, lsl r7
    8784:	00251600 	eoreq	r1, r5, r0, lsl #12
    8788:	05000000 	streq	r0, [r0, #-0]
    878c:	00047704 	andeq	r7, r4, r4, lsl #14
    8790:	046c0f00 	strbteq	r0, [ip], #-3840	; 0xfffff100
    8794:	e4170000 	ldr	r0, [r7], #-0
    8798:	28000003 	stmdacs	r0, {r0, r1}
    879c:	02600504 	rsbeq	r0, r0, #4, 10	; 0x1000000
    87a0:	0005c008 	andeq	ip, r5, r8
    87a4:	034c1800 	movteq	r1, #51200	; 0xc800
    87a8:	62050000 	andvs	r0, r5, #0
    87ac:	00250702 	eoreq	r0, r5, r2, lsl #14
    87b0:	18000000 	stmdane	r0, {}	; <UNPREDICTABLE>
    87b4:	00000491 	muleq	r0, r1, r4
    87b8:	0b026705 	bleq	a23d4 <__bss_end__+0x98474>
    87bc:	0000069a 	muleq	r0, sl, r6
    87c0:	01e11804 	mvneq	r1, r4, lsl #16
    87c4:	67050000 	strvs	r0, [r5, -r0]
    87c8:	069a1402 	ldreq	r1, [sl], r2, lsl #8
    87cc:	18080000 	stmdane	r8, {}	; <UNPREDICTABLE>
    87d0:	000001a0 	andeq	r0, r0, r0, lsr #3
    87d4:	1e026705 	cdpne	7, 0, cr6, cr2, cr5, {0}
    87d8:	0000069a 	muleq	r0, sl, r6
    87dc:	03af180c 			; <UNDEFINED> instruction: 0x03af180c
    87e0:	69050000 	stmdbvs	r5, {}	; <UNPREDICTABLE>
    87e4:	00250802 	eoreq	r0, r5, r2, lsl #16
    87e8:	18100000 	ldmdane	r0, {}	; <UNPREDICTABLE>
    87ec:	0000001a 	andeq	r0, r0, sl, lsl r0
    87f0:	08026a05 	stmdaeq	r2, {r0, r2, r9, fp, sp, lr}
    87f4:	0000089a 	muleq	r0, sl, r8
    87f8:	03c31814 	biceq	r1, r3, #20, 16	; 0x140000
    87fc:	6d050000 	stcvs	0, cr0, [r5, #-0]
    8800:	00250702 	eoreq	r0, r5, r2, lsl #14
    8804:	18300000 	ldmdane	r0!, {}	; <UNPREDICTABLE>
    8808:	00000a01 	andeq	r0, r0, r1, lsl #20
    880c:	16026e05 	strne	r6, [r2], -r5, lsl #28
    8810:	000008af 	andeq	r0, r0, pc, lsr #17
    8814:	028e1834 	addeq	r1, lr, #52, 16	; 0x340000
    8818:	70050000 	andvc	r0, r5, r0
    881c:	00250702 	eoreq	r0, r5, r2, lsl #14
    8820:	18380000 	ldmdane	r8!, {}	; <UNPREDICTABLE>
    8824:	000003b9 			; <UNDEFINED> instruction: 0x000003b9
    8828:	0a027205 	beq	a5044 <__bss_end__+0x9b0e4>
    882c:	000008c0 	andeq	r0, r0, r0, asr #17
    8830:	0240183c 	subeq	r1, r0, #60, 16	; 0x3c0000
    8834:	75050000 	strvc	r0, [r5, #-0]
    8838:	018f1302 	orreq	r1, pc, r2, lsl #6
    883c:	18400000 	stmdane	r0, {}^	; <UNPREDICTABLE>
    8840:	000001bf 			; <UNDEFINED> instruction: 0x000001bf
    8844:	07027605 	streq	r7, [r2, -r5, lsl #12]
    8848:	00000025 	andeq	r0, r0, r5, lsr #32
    884c:	04ff1844 	ldrbteq	r1, [pc], #2116	; 8854 <ck_heap_errors+0xb0>
    8850:	77050000 	strvc	r0, [r5, -r0]
    8854:	018f1302 	orreq	r1, pc, r2, lsl #6
    8858:	18480000 	stmdane	r8, {}^	; <UNPREDICTABLE>
    885c:	000002a0 	andeq	r0, r0, r0, lsr #5
    8860:	14027805 	strne	r7, [r2], #-2053	; 0xfffff7fb
    8864:	000008c6 	andeq	r0, r0, r6, asr #17
    8868:	01e9184c 	mvneq	r1, ip, asr #16
    886c:	7b050000 	blvc	148874 <__bss_end__+0x13e914>
    8870:	00250702 	eoreq	r0, r5, r2, lsl #14
    8874:	18500000 	ldmdane	r0, {}^	; <UNPREDICTABLE>
    8878:	0000013e 	andeq	r0, r0, lr, lsr r1
    887c:	09027c05 	stmdbeq	r2, {r0, r2, sl, fp, ip, sp, lr}
    8880:	00000117 	andeq	r0, r0, r7, lsl r1
    8884:	02c61854 	sbceq	r1, r6, #84, 16	; 0x540000
    8888:	9f050000 	svcls	0x00050000
    888c:	08750702 	ldmdaeq	r5!, {r1, r8, r9, sl}^
    8890:	19580000 	ldmdbne	r8, {}^	; <UNPREDICTABLE>
    8894:	00000286 	andeq	r0, r0, r6, lsl #5
    8898:	1302a305 	movwne	sl, #8965	; 0x2305
    889c:	000002c0 	andeq	r0, r0, r0, asr #5
    88a0:	1e190148 	mufneem	f0, f1, #0.0
    88a4:	05000002 	streq	r0, [r0, #-2]
    88a8:	7d1202a4 	lfmvc	f0, 4, [r2, #-656]	; 0xfffffd70
    88ac:	4c000002 	stcmi	0, cr0, [r0], {2}
    88b0:	04ab1901 	strteq	r1, [fp], #2305	; 0x901
    88b4:	a8050000 	stmdage	r5, {}	; <UNPREDICTABLE>
    88b8:	08d70c02 	ldmeq	r7, {r1, sl, fp}^
    88bc:	02dc0000 	sbcseq	r0, ip, #0
    88c0:	00010819 	andeq	r0, r1, r9, lsl r8
    88c4:	02ad0500 	adceq	r0, sp, #0, 10
    88c8:	00065b10 	andeq	r5, r6, r0, lsl fp
    88cc:	1902e000 	stmdbne	r2, {sp, lr, pc}
    88d0:	000000ed 	andeq	r0, r0, sp, ror #1
    88d4:	0a02af05 	beq	b44f0 <__bss_end__+0xaa590>
    88d8:	000008e3 	andeq	r0, r0, r3, ror #17
    88dc:	050002ec 	streq	r0, [r0, #-748]	; 0xfffffd14
    88e0:	00044e04 	andeq	r4, r4, r4, lsl #28
    88e4:	00251500 	eoreq	r1, r5, r0, lsl #10
    88e8:	05e40000 	strbeq	r0, [r4, #0]!
    88ec:	6c160000 	ldcvs	0, cr0, [r6], {-0}
    88f0:	16000004 	strne	r0, [r0], -r4
    88f4:	00000115 	andeq	r0, r0, r5, lsl r1
    88f8:	0005e416 	andeq	lr, r5, r6, lsl r4
    88fc:	00251600 	eoreq	r1, r5, r0, lsl #12
    8900:	05000000 	streq	r0, [r0, #-0]
    8904:	00012404 	andeq	r2, r1, r4, lsl #8
    8908:	c6040500 	strgt	r0, [r4], -r0, lsl #10
    890c:	15000005 	strne	r0, [r0, #-5]
    8910:	0000008e 	andeq	r0, r0, lr, lsl #1
    8914:	0000060e 	andeq	r0, r0, lr, lsl #12
    8918:	00046c16 	andeq	r6, r4, r6, lsl ip
    891c:	01151600 	tsteq	r5, r0, lsl #12
    8920:	8e160000 	cdphi	0, 1, cr0, cr6, cr0, {0}
    8924:	16000000 	strne	r0, [r0], -r0
    8928:	00000025 	andeq	r0, r0, r5, lsr #32
    892c:	f0040500 			; <UNDEFINED> instruction: 0xf0040500
    8930:	15000005 	strne	r0, [r0, #-5]
    8934:	00000025 	andeq	r0, r0, r5, lsr #32
    8938:	00000628 	andeq	r0, r0, r8, lsr #12
    893c:	00046c16 	andeq	r6, r4, r6, lsl ip
    8940:	01151600 	tsteq	r5, r0, lsl #12
    8944:	05000000 	streq	r0, [r0, #-0]
    8948:	00061404 	andeq	r1, r6, r4, lsl #8
    894c:	004f0a00 	subeq	r0, pc, r0, lsl #20
    8950:	063e0000 	ldrteq	r0, [lr], -r0
    8954:	2c0b0000 	stccs	0, cr0, [fp], {-0}
    8958:	02000000 	andeq	r0, r0, #0
    895c:	004f0a00 	subeq	r0, pc, r0, lsl #20
    8960:	064e0000 	strbeq	r0, [lr], -r0
    8964:	2c0b0000 	stccs	0, cr0, [fp], {-0}
    8968:	00000000 	andeq	r0, r0, r0
    896c:	03740700 	cmneq	r4, #0, 14
    8970:	1f050000 	svcne	0x00050000
    8974:	030b1a01 	movweq	r1, #47617	; 0xba01
    8978:	8b1a0000 	blhi	688980 <__bss_end__+0x67ea20>
    897c:	0c000004 	stceq	0, cr0, [r0], {4}
    8980:	08012305 	stmdaeq	r1, {r0, r2, r8, r9, sp}
    8984:	00000694 	muleq	r0, r4, r6
    8988:	00039c18 	andeq	r9, r3, r8, lsl ip
    898c:	01250500 			; <UNDEFINED> instruction: 0x01250500
    8990:	00069411 	andeq	r9, r6, r1, lsl r4
    8994:	04180000 	ldreq	r0, [r8], #-0
    8998:	05000002 	streq	r0, [r0, #-2]
    899c:	25070126 	strcs	r0, [r7, #-294]	; 0xfffffeda
    89a0:	04000000 	streq	r0, [r0], #-0
    89a4:	00036e18 	andeq	r6, r3, r8, lsl lr
    89a8:	01270500 			; <UNDEFINED> instruction: 0x01270500
    89ac:	00069a0b 	andeq	r9, r6, fp, lsl #20
    89b0:	05000800 	streq	r0, [r0, #-2048]	; 0xfffff800
    89b4:	00065b04 	andeq	r5, r6, r4, lsl #22
    89b8:	4e040500 	cfsh32mi	mvfx0, mvfx4, #0
    89bc:	1a000006 	bne	89dc <fast_hash+0xe8>
    89c0:	00000012 	andeq	r0, r0, r2, lsl r0
    89c4:	013f050e 	teqeq	pc, lr, lsl #10
    89c8:	0006d908 	andeq	sp, r6, r8, lsl #18
    89cc:	03eb1800 	mvneq	r1, #0, 16
    89d0:	40050000 	andmi	r0, r5, r0
    89d4:	06d91201 	ldrbeq	r1, [r9], r1, lsl #4
    89d8:	18000000 	stmdane	r0, {}	; <UNPREDICTABLE>
    89dc:	0000041f 	andeq	r0, r0, pc, lsl r4
    89e0:	12014105 	andne	r4, r1, #1073741825	; 0x40000001
    89e4:	000006d9 	ldrdeq	r0, [r0], -r9
    89e8:	043b1806 	ldrteq	r1, [fp], #-2054	; 0xfffff7fa
    89ec:	42050000 	andmi	r0, r5, #0
    89f0:	00561201 	subseq	r1, r6, r1, lsl #4
    89f4:	000c0000 	andeq	r0, ip, r0
    89f8:	0000560a 	andeq	r5, r0, sl, lsl #12
    89fc:	0006e900 	andeq	lr, r6, r0, lsl #18
    8a00:	002c0b00 	eoreq	r0, ip, r0, lsl #22
    8a04:	00020000 	andeq	r0, r2, r0
    8a08:	8005d01b 	andhi	sp, r5, fp, lsl r0
    8a0c:	07fe0702 	ldrbeq	r0, [lr, r2, lsl #14]!
    8a10:	6f180000 	svcvs	0x00180000
    8a14:	05000004 	streq	r0, [r0, #-4]
    8a18:	2c180282 	lfmcs	f0, 4, [r8], {130}	; 0x82
    8a1c:	00000000 	andeq	r0, r0, r0
    8a20:	00042518 	andeq	r2, r4, r8, lsl r5
    8a24:	02830500 	addeq	r0, r3, #0, 10
    8a28:	00011712 	andeq	r1, r1, r2, lsl r7
    8a2c:	33180400 	tstcc	r8, #0, 8
    8a30:	05000002 	streq	r0, [r0, #-2]
    8a34:	fe100284 	cdp2	2, 1, cr0, cr0, cr4, {4}
    8a38:	08000007 	stmdaeq	r0, {r0, r1, r2}
    8a3c:	0004d618 	andeq	sp, r4, r8, lsl r6
    8a40:	02850500 	addeq	r0, r5, #0, 10
    8a44:	0001a517 	andeq	sl, r1, r7, lsl r5
    8a48:	b0182400 	andslt	r2, r8, r0, lsl #8
    8a4c:	05000001 	streq	r0, [r0, #-1]
    8a50:	250f0286 	strcs	r0, [pc, #-646]	; 87d2 <ck_heap_errors+0x2e>
    8a54:	48000000 	stmdami	r0, {}	; <UNPREDICTABLE>
    8a58:	00039718 	andeq	r9, r3, r8, lsl r7
    8a5c:	02870500 	addeq	r0, r7, #0, 10
    8a60:	0000642c 	andeq	r6, r0, ip, lsr #8
    8a64:	ec185000 	ldc	0, cr5, [r8], {-0}
    8a68:	05000004 	streq	r0, [r0, #-4]
    8a6c:	a01a0288 	andsge	r0, sl, r8, lsl #5
    8a70:	58000006 	stmdapl	r0, {r1, r2}
    8a74:	0003a218 	andeq	sl, r3, r8, lsl r2
    8a78:	02890500 	addeq	r0, r9, #0, 10
    8a7c:	0000fd16 	andeq	pc, r0, r6, lsl sp	; <UNPREDICTABLE>
    8a80:	f1186800 			; <UNDEFINED> instruction: 0xf1186800
    8a84:	05000004 	streq	r0, [r0, #-4]
    8a88:	fd16028a 	ldc2	2, cr0, [r6, #-552]	; 0xfffffdd8
    8a8c:	70000000 	andvc	r0, r0, r0
    8a90:	0002aa18 	andeq	sl, r2, r8, lsl sl
    8a94:	028b0500 	addeq	r0, fp, #0, 10
    8a98:	0000fd16 	andeq	pc, r0, r6, lsl sp	; <UNPREDICTABLE>
    8a9c:	a1187800 	tstge	r8, r0, lsl #16
    8aa0:	05000004 	streq	r0, [r0, #-4]
    8aa4:	0e10028c 	cdpeq	2, 1, cr0, cr0, cr12, {4}
    8aa8:	80000008 	andhi	r0, r0, r8
    8aac:	00022718 	andeq	r2, r2, r8, lsl r7
    8ab0:	028d0500 	addeq	r0, sp, #0, 10
    8ab4:	00081e10 	andeq	r1, r8, r0, lsl lr
    8ab8:	48188800 	ldmdami	r8, {fp, pc}
    8abc:	05000004 	streq	r0, [r0, #-4]
    8ac0:	250f028e 	strcs	r0, [pc, #-654]	; 883a <ck_heap_errors+0x96>
    8ac4:	a0000000 	andge	r0, r0, r0
    8ac8:	00017618 	andeq	r7, r1, r8, lsl r6
    8acc:	028f0500 	addeq	r0, pc, #0, 10
    8ad0:	0000fd16 	andeq	pc, r0, r6, lsl sp	; <UNPREDICTABLE>
    8ad4:	8018a400 	andshi	sl, r8, r0, lsl #8
    8ad8:	05000000 	streq	r0, [r0, #-0]
    8adc:	fd160290 	ldc2	2, cr0, [r6, #-576]	; 0xfffffdc0
    8ae0:	ac000000 	stcge	0, cr0, [r0], {-0}
    8ae4:	00016518 	andeq	r6, r1, r8, lsl r5
    8ae8:	02910500 	addseq	r0, r1, #0, 10
    8aec:	0000fd16 	andeq	pc, r0, r6, lsl sp	; <UNPREDICTABLE>
    8af0:	2d18b400 	cfldrscs	mvf11, [r8, #-0]
    8af4:	05000000 	streq	r0, [r0, #-0]
    8af8:	fd160292 	ldc2	2, cr0, [r6, #-584]	; 0xfffffdb8
    8afc:	bc000000 	stclt	0, cr0, [r0], {-0}
    8b00:	00003c18 	andeq	r3, r0, r8, lsl ip
    8b04:	02930500 	addseq	r0, r3, #0, 10
    8b08:	0000fd16 	andeq	pc, r0, r6, lsl sp	; <UNPREDICTABLE>
    8b0c:	4a18c400 	bmi	639b14 <__bss_end__+0x62fbb4>
    8b10:	05000003 	streq	r0, [r0, #-3]
    8b14:	25080294 	strcs	r0, [r8, #-660]	; 0xfffffd6c
    8b18:	cc000000 	stcgt	0, cr0, [r0], {-0}
    8b1c:	011d0a00 	tsteq	sp, r0, lsl #20
    8b20:	080e0000 	stmdaeq	lr, {}	; <UNPREDICTABLE>
    8b24:	2c0b0000 	stccs	0, cr0, [fp], {-0}
    8b28:	19000000 	stmdbne	r0, {}	; <UNPREDICTABLE>
    8b2c:	011d0a00 	tsteq	sp, r0, lsl #20
    8b30:	081e0000 	ldmdaeq	lr, {}	; <UNPREDICTABLE>
    8b34:	2c0b0000 	stccs	0, cr0, [fp], {-0}
    8b38:	07000000 	streq	r0, [r0, -r0]
    8b3c:	011d0a00 	tsteq	sp, r0, lsl #20
    8b40:	082e0000 	stmdaeq	lr!, {}	; <UNPREDICTABLE>
    8b44:	2c0b0000 	stccs	0, cr0, [fp], {-0}
    8b48:	17000000 	strne	r0, [r0, -r0]
    8b4c:	05f01b00 	ldrbeq	r1, [r0, #2816]!	; 0xb00
    8b50:	55070299 	strpl	r0, [r7, #-665]	; 0xfffffd67
    8b54:	18000008 	stmdane	r0, {r3}
    8b58:	00000276 	andeq	r0, r0, r6, ror r2
    8b5c:	1b029c05 	blne	afb78 <__bss_end__+0xa5c18>
    8b60:	00000855 	andeq	r0, r0, r5, asr r8
    8b64:	04981800 	ldreq	r1, [r8], #2048	; 0x800
    8b68:	9d050000 	stcls	0, cr0, [r5, #-0]
    8b6c:	08651802 	stmdaeq	r5!, {r1, fp, ip}^
    8b70:	00780000 	rsbseq	r0, r8, r0
    8b74:	0003050a 	andeq	r0, r3, sl, lsl #10
    8b78:	00086500 	andeq	r6, r8, r0, lsl #10
    8b7c:	002c0b00 	eoreq	r0, ip, r0, lsl #22
    8b80:	001d0000 	andseq	r0, sp, r0
    8b84:	00002c0a 	andeq	r2, r0, sl, lsl #24
    8b88:	00087500 	andeq	r7, r8, r0, lsl #10
    8b8c:	002c0b00 	eoreq	r0, ip, r0, lsl #22
    8b90:	001d0000 	andseq	r0, sp, r0
    8b94:	7e05f01c 	mcrvc	0, 0, pc, cr5, cr12, {0}	; <UNPREDICTABLE>
    8b98:	089a0302 	ldmeq	sl, {r1, r8, r9}
    8b9c:	e41d0000 	ldr	r0, [sp], #-0
    8ba0:	05000003 	streq	r0, [r0, #-3]
    8ba4:	e90b0295 	stmdb	fp, {r0, r2, r4, r7, r9}
    8ba8:	1d000006 	stcne	0, cr0, [r0, #-24]	; 0xffffffe8
    8bac:	000004c3 	andeq	r0, r0, r3, asr #9
    8bb0:	0b029e05 	bleq	b03cc <__bss_end__+0xa646c>
    8bb4:	0000082e 	andeq	r0, r0, lr, lsr #16
    8bb8:	011d0a00 	tsteq	sp, r0, lsl #20
    8bbc:	08aa0000 	stmiaeq	sl!, {}	; <UNPREDICTABLE>
    8bc0:	2c0b0000 	stccs	0, cr0, [fp], {-0}
    8bc4:	18000000 	stmdane	r0, {}	; <UNPREDICTABLE>
    8bc8:	00750600 	rsbseq	r0, r5, r0, lsl #12
    8bcc:	04050000 	streq	r0, [r5], #-0
    8bd0:	000008aa 	andeq	r0, r0, sl, lsr #17
    8bd4:	0008c01e 	andeq	ip, r8, lr, lsl r0
    8bd8:	046c1600 	strbteq	r1, [ip], #-1536	; 0xfffffa00
    8bdc:	05000000 	streq	r0, [r0, #-0]
    8be0:	0008b504 	andeq	fp, r8, r4, lsl #10
    8be4:	8f040500 	svchi	0x00040500
    8be8:	1e000001 	cdpne	0, 0, cr0, cr0, cr1, {0}
    8bec:	000008d7 	ldrdeq	r0, [r0], -r7
    8bf0:	00002516 	andeq	r2, r0, r6, lsl r5
    8bf4:	04050000 	streq	r0, [r5], #-0
    8bf8:	000008dd 	ldrdeq	r0, [r0], -sp
    8bfc:	08cc0405 	stmiaeq	ip, {r0, r2, sl}^
    8c00:	4e0a0000 	cdpmi	0, 0, cr0, cr10, cr0, {0}
    8c04:	f3000006 	vhadd.u8	d0, d0, d6
    8c08:	0b000008 	bleq	8c30 <emit+0x100>
    8c0c:	0000002c 	andeq	r0, r0, ip, lsr #32
    8c10:	5c1f0002 	ldcpl	0, cr0, [pc], {2}
    8c14:	05000004 	streq	r0, [r0, #-4]
    8c18:	6c17032e 	ldcvs	3, cr0, [r7], {46}	; 0x2e
    8c1c:	1f000004 	svcne	0x00000004
    8c20:	00000455 	andeq	r0, r0, r5, asr r4
    8c24:	1d032f05 	stcne	15, cr2, [r3, #-20]	; 0xffffffec
    8c28:	00000472 	andeq	r0, r0, r2, ror r4
    8c2c:	00002515 	andeq	r2, r0, r5, lsl r5
    8c30:	00091c00 	andeq	r1, r9, r0, lsl #24
    8c34:	00251600 	eoreq	r1, r5, r0, lsl #12
    8c38:	20000000 	andcs	r0, r0, r0
    8c3c:	000001c9 	andeq	r0, r0, r9, asr #3
    8c40:	280e1d06 	stmdacs	lr, {r1, r2, r8, sl, fp, ip}
    8c44:	05000009 	streq	r0, [r0, #-9]
    8c48:	00090d04 	andeq	r0, r9, r4, lsl #26
    8c4c:	00251500 	eoreq	r1, r5, r0, lsl #10
    8c50:	093d0000 	ldmdbeq	sp!, {}	; <UNPREDICTABLE>
    8c54:	e4160000 	ldr	r0, [r6], #-0
    8c58:	00000005 	andeq	r0, r0, r5
    8c5c:	00076820 	andeq	r6, r7, r0, lsr #16
    8c60:	0e220600 	cfmadda32eq	mvax0, mvax0, mvfx2, mvfx0
    8c64:	00000949 	andeq	r0, r0, r9, asr #18
    8c68:	092e0405 	stmdbeq	lr!, {r0, r2, sl}
    8c6c:	bc210000 	stclt	0, cr0, [r1], #-0
    8c70:	01000008 	tsteq	r0, r8
    8c74:	9120062b 			; <UNDEFINED> instruction: 0x9120062b
    8c78:	00180000 	andseq	r0, r8, r0
    8c7c:	9c010000 	stcls	0, cr0, [r1], {-0}
    8c80:	00000999 	muleq	r0, r9, r9
    8c84:	63657322 	cmnvs	r5, #-2013265920	; 0x88000000
    8c88:	192b0100 	stmdbne	fp!, {r8}
    8c8c:	0000002c 	andeq	r0, r0, ip, lsr #32
    8c90:	0000126e 	andeq	r1, r0, lr, ror #4
    8c94:	0000126a 	andeq	r1, r0, sl, ror #4
    8c98:	00913423 	addseq	r3, r1, r3, lsr #8
    8c9c:	00099900 	andeq	r9, r9, r0, lsl #18
    8ca0:	50012400 	andpl	r2, r1, r0, lsl #8
    8ca4:	5001f311 	andpl	pc, r1, r1, lsl r3	; <UNPREDICTABLE>
    8ca8:	01f32435 	mvnseq	r2, r5, lsr r4
    8cac:	24321c50 	ldrtcs	r1, [r2], #-3152	; 0xfffff3b0
    8cb0:	225001f3 	subscs	r0, r0, #-1073741764	; 0xc000003c
    8cb4:	00002433 	andeq	r2, r0, r3, lsr r4
    8cb8:	0007ec21 	andeq	lr, r7, r1, lsr #24
    8cbc:	06280100 	strteq	r0, [r8], -r0, lsl #2
    8cc0:	00009108 	andeq	r9, r0, r8, lsl #2
    8cc4:	00000018 	andeq	r0, r0, r8, lsl r0
    8cc8:	09e29c01 	stmibeq	r2!, {r0, sl, fp, ip, pc}^
    8ccc:	6d220000 	stcvs	0, cr0, [r2, #-0]
    8cd0:	28010073 	stmdacs	r1, {r0, r1, r4, r5, r6}
    8cd4:	00002c18 	andeq	r2, r0, r8, lsl ip
    8cd8:	00129300 	andseq	r9, r2, r0, lsl #6
    8cdc:	00128f00 	andseq	r8, r2, r0, lsl #30
    8ce0:	911c2300 	tstls	ip, r0, lsl #6
    8ce4:	09e20000 	stmibeq	r2!, {}^	; <UNPREDICTABLE>
    8ce8:	01240000 			; <UNDEFINED> instruction: 0x01240000
    8cec:	01f31150 	mvnseq	r1, r0, asr r1
    8cf0:	f3243550 	vqrshl.u32	<illegal reg q1.5>, q0, q2
    8cf4:	321c5001 	andscc	r5, ip, #1
    8cf8:	5001f324 	andpl	pc, r1, r4, lsr #6
    8cfc:	00243322 	eoreq	r3, r4, r2, lsr #6
    8d00:	09042100 	stmdbeq	r4, {r8, sp}
    8d04:	1f010000 	svcne	0x00010000
    8d08:	0090e406 	addseq	lr, r0, r6, lsl #8
    8d0c:	00002400 	andeq	r2, r0, r0, lsl #8
    8d10:	529c0100 	addspl	r0, ip, #0, 2
    8d14:	2200000a 	andcs	r0, r0, #10
    8d18:	01007375 	tsteq	r0, r5, ror r3
    8d1c:	002c181f 	eoreq	r1, ip, pc, lsl r8
    8d20:	12b80000 	adcsne	r0, r8, #0
    8d24:	12b40000 	adcsne	r0, r4, #0
    8d28:	72250000 	eorvc	r0, r5, #0
    8d2c:	20010062 	andcs	r0, r1, r2, rrx
    8d30:	00002c0e 	andeq	r2, r0, lr, lsl #24
    8d34:	0012d800 	andseq	sp, r2, r0, lsl #16
    8d38:	0012d600 	andseq	sp, r2, r0, lsl #12
    8d3c:	90f42600 	rscsls	r2, r4, r0, lsl #12
    8d40:	00140000 	andseq	r0, r4, r0
    8d44:	0a480000 	beq	1208d4c <__bss_end__+0x11fedec>
    8d48:	72250000 	eorvc	r0, r5, #0
    8d4c:	22010061 	andcs	r0, r1, #97	; 0x61
    8d50:	00002c12 	andeq	r2, r0, r2, lsl ip
    8d54:	0012ed00 	andseq	lr, r2, r0, lsl #26
    8d58:	0012eb00 	andseq	lr, r2, r0, lsl #22
    8d5c:	90f82700 	rscsls	r2, r8, r0, lsl #14
    8d60:	0a520000 	beq	1488d68 <__bss_end__+0x147ee08>
    8d64:	27000000 	strcs	r0, [r0, -r0]
    8d68:	000090f0 	strdeq	r9, [r0], -r0
    8d6c:	00000a52 	andeq	r0, r0, r2, asr sl
    8d70:	08ad2800 	stmiaeq	sp!, {fp, sp}
    8d74:	16010000 	strne	r0, [r1], -r0
    8d78:	00002c0a 	andeq	r2, r0, sl, lsl #24
    8d7c:	0090d800 	addseq	sp, r0, r0, lsl #16
    8d80:	00000c00 	andeq	r0, r0, r0, lsl #24
    8d84:	889c0100 	ldmhi	ip, {r8}
    8d88:	2500000a 	strcs	r0, [r0, #-10]
    8d8c:	1a010075 	bne	48f68 <__bss_end__+0x3f008>
    8d90:	00002c0e 	andeq	r2, r0, lr, lsl #24
    8d94:	00130200 	andseq	r0, r3, r0, lsl #4
    8d98:	00130000 	andseq	r0, r3, r0
    8d9c:	90e02700 	rscls	r2, r0, r0, lsl #14
    8da0:	0a880000 	beq	fe208da8 <__bss_end__+0xfe1fee48>
    8da4:	28000000 	stmdacs	r0, {}	; <UNPREDICTABLE>
    8da8:	000008f1 	strdeq	r0, [r0], -r1
    8dac:	2c0a1101 	stfcss	f1, [sl], {1}
    8db0:	c4000000 	strgt	r0, [r0], #-0
    8db4:	14000090 	strne	r0, [r0], #-144	; 0xffffff70
    8db8:	01000000 	mrseq	r0, (UNDEF: 0)
    8dbc:	000ab69c 	muleq	sl, ip, r6
    8dc0:	90d02300 	sbcsls	r2, r0, r0, lsl #6
    8dc4:	0ae10000 	beq	ff848dcc <__bss_end__+0xff83ee6c>
    8dc8:	01240000 			; <UNDEFINED> instruction: 0x01240000
    8dcc:	040c0550 	streq	r0, [ip], #-1360	; 0xfffffab0
    8dd0:	00200030 	eoreq	r0, r0, r0, lsr r0
    8dd4:	08c62100 	stmiaeq	r6, {r8, sp}^
    8dd8:	05010000 	streq	r0, [r1, #-0]
    8ddc:	0090ac06 	addseq	sl, r0, r6, lsl #24
    8de0:	00001800 	andeq	r1, r0, r0, lsl #16
    8de4:	e19c0100 	orrs	r0, ip, r0, lsl #2
    8de8:	2900000a 	stmdbcs	r0, {r1, r3}
    8dec:	000008e5 	andeq	r0, r0, r5, ror #17
    8df0:	2c1c0501 	cfldr32cs	mvfx0, [ip], {1}
    8df4:	19000000 	stmdbne	r0, {}	; <UNPREDICTABLE>
    8df8:	15000013 	strne	r0, [r0, #-19]	; 0xffffffed
    8dfc:	00000013 	andeq	r0, r0, r3, lsl r0
    8e00:	0008eb2a 	andeq	lr, r8, sl, lsr #22
    8e04:	0008eb00 	andeq	lr, r8, r0, lsl #22
    8e08:	0aa70600 	beq	fe9ca610 <__bss_end__+0xfe9c06b0>
    8e0c:	000cc500 	andeq	ip, ip, r0, lsl #10
    8e10:	b6000400 	strlt	r0, [r0], -r0, lsl #8
    8e14:	0400001c 	streq	r0, [r0], #-28	; 0xffffffe4
    8e18:	000a1c01 	andeq	r1, sl, r1, lsl #24
    8e1c:	09400c00 	stmdbeq	r0, {sl, fp}^
    8e20:	09530000 	ldmdbeq	r3, {}^	; <UNPREDICTABLE>
    8e24:	91840000 	orrls	r0, r4, r0
    8e28:	01780000 	cmneq	r8, r0
    8e2c:	187c0000 	ldmdane	ip!, {}^	; <UNPREDICTABLE>
    8e30:	04020000 	streq	r0, [r2], #-0
    8e34:	746e6905 	strbtvc	r6, [lr], #-2309	; 0xfffff6fb
    8e38:	07040300 	streq	r0, [r4, -r0, lsl #6]
    8e3c:	00000057 	andeq	r0, r0, r7, asr r0
    8e40:	00002c04 	andeq	r2, r0, r4, lsl #24
    8e44:	06010300 	streq	r0, [r1], -r0, lsl #6
    8e48:	000002ba 			; <UNDEFINED> instruction: 0x000002ba
    8e4c:	53050203 	movwpl	r0, #20995	; 0x5203
    8e50:	03000003 	movweq	r0, #3
    8e54:	009d0504 	addseq	r0, sp, r4, lsl #10
    8e58:	08030000 	stmdaeq	r3, {}	; <UNPREDICTABLE>
    8e5c:	00009805 	andeq	r9, r0, r5, lsl #16
    8e60:	08010300 	stmdaeq	r1, {r8, r9}
    8e64:	000002b8 			; <UNDEFINED> instruction: 0x000002b8
    8e68:	0b070203 	bleq	1c967c <__bss_end__+0x1bf71c>
    8e6c:	03000002 	movweq	r0, #2
    8e70:	00520704 	subseq	r0, r2, r4, lsl #14
    8e74:	08030000 	stmdaeq	r3, {}	; <UNPREDICTABLE>
    8e78:	00004d07 	andeq	r4, r0, r7, lsl #26
    8e7c:	09e70500 	stmibeq	r7!, {r8, sl}^
    8e80:	07020000 	streq	r0, [r2, -r0]
    8e84:	00000025 	andeq	r0, r0, r5, lsr #32
    8e88:	00029905 	andeq	r9, r2, r5, lsl #18
    8e8c:	462c0300 	strtmi	r0, [ip], -r0, lsl #6
    8e90:	05000000 	streq	r0, [r0, #-0]
    8e94:	0000040e 	andeq	r0, r0, lr, lsl #8
    8e98:	00467203 	subeq	r7, r6, r3, lsl #4
    8e9c:	56060000 	strpl	r0, [r6], -r0
    8ea0:	04000002 	streq	r0, [r0], #-2
    8ea4:	002c0165 	eoreq	r0, ip, r5, ror #2
    8ea8:	04070000 	streq	r0, [r7], #-0
    8eac:	00bca603 	adcseq	sl, ip, r3, lsl #12
    8eb0:	48080000 	stmdami	r8, {}	; <UNPREDICTABLE>
    8eb4:	03000002 	movweq	r0, #2
    8eb8:	000091a8 	andeq	r9, r0, r8, lsr #3
    8ebc:	01da0800 	bicseq	r0, sl, r0, lsl #16
    8ec0:	a9030000 	stmdbge	r3, {}	; <UNPREDICTABLE>
    8ec4:	000000bc 	strheq	r0, [r0], -ip
    8ec8:	00540900 	subseq	r0, r4, r0, lsl #18
    8ecc:	00cc0000 	sbceq	r0, ip, r0
    8ed0:	cc0a0000 	stcgt	0, cr0, [sl], {-0}
    8ed4:	03000000 	movweq	r0, #0
    8ed8:	07040300 	streq	r0, [r4, -r0, lsl #6]
    8edc:	000009c7 	andeq	r0, r0, r7, asr #19
    8ee0:	a303080b 	movwge	r0, #14347	; 0x380b
    8ee4:	000000f4 	strdeq	r0, [r0], -r4
    8ee8:	0003f10c 	andeq	pc, r3, ip, lsl #2
    8eec:	25a50300 	strcs	r0, [r5, #768]!	; 0x300
    8ef0:	00000000 	andeq	r0, r0, r0
    8ef4:	0004000c 	andeq	r0, r4, ip
    8ef8:	9daa0300 	stcls	3, cr0, [sl]
    8efc:	04000000 	streq	r0, [r0], #-0
    8f00:	037b0500 	cmneq	fp, #0, 10
    8f04:	ab030000 	blge	c8f0c <__bss_end__+0xbefac>
    8f08:	000000d3 	ldrdeq	r0, [r0], -r3
    8f0c:	00019705 	andeq	r9, r1, r5, lsl #14
    8f10:	70af0300 	adcvc	r0, pc, r0, lsl #6
    8f14:	0d000000 	stceq	0, cr0, [r0, #-0]
    8f18:	12040e04 	andne	r0, r4, #4, 28	; 0x40
    8f1c:	03000001 	movweq	r0, #1
    8f20:	02c10801 	sbceq	r0, r1, #65536	; 0x10000
    8f24:	120f0000 	andne	r0, pc, #0
    8f28:	05000001 	streq	r0, [r0, #-1]
    8f2c:	00000440 	andeq	r0, r0, r0, asr #8
    8f30:	00621605 	rsbeq	r1, r2, r5, lsl #12
    8f34:	a8100000 	ldmdage	r0, {}	; <UNPREDICTABLE>
    8f38:	18000001 	stmdane	r0, {r0}
    8f3c:	017c2d05 	cmneq	ip, r5, lsl #26
    8f40:	9c0c0000 	stcls	0, cr0, [ip], {-0}
    8f44:	05000003 	streq	r0, [r0, #-3]
    8f48:	00017c2f 	andeq	r7, r1, pc, lsr #24
    8f4c:	5f110000 	svcpl	0x00110000
    8f50:	3005006b 	andcc	r0, r5, fp, rrx
    8f54:	00000025 	andeq	r0, r0, r5, lsr #32
    8f58:	03dc0c04 	bicseq	r0, ip, #4, 24	; 0x400
    8f5c:	30050000 	andcc	r0, r5, r0
    8f60:	00000025 	andeq	r0, r0, r5, lsr #32
    8f64:	01910c08 	orrseq	r0, r1, r8, lsl #24
    8f68:	30050000 	andcc	r0, r5, r0
    8f6c:	00000025 	andeq	r0, r0, r5, lsr #32
    8f70:	047c0c0c 	ldrbteq	r0, [ip], #-3084	; 0xfffff3f4
    8f74:	30050000 	andcc	r0, r5, r0
    8f78:	00000025 	andeq	r0, r0, r5, lsr #32
    8f7c:	785f1110 	ldmdavc	pc, {r4, r8, ip}^	; <UNPREDICTABLE>
    8f80:	82310500 	eorshi	r0, r1, #0, 10
    8f84:	14000001 	strne	r0, [r0], #-1
    8f88:	29040e00 	stmdbcs	r4, {r9, sl, fp}
    8f8c:	09000001 	stmdbeq	r0, {r0}
    8f90:	0000011e 	andeq	r0, r0, lr, lsl r1
    8f94:	00000192 	muleq	r0, r2, r1
    8f98:	0000cc0a 	andeq	ip, r0, sl, lsl #24
    8f9c:	10000000 	andne	r0, r0, r0
    8fa0:	000001d5 	ldrdeq	r0, [r0], -r5
    8fa4:	0b350524 	bleq	d4a43c <__bss_end__+0xd404dc>
    8fa8:	0c000002 	stceq	0, cr0, [r0], {2}
    8fac:	0000008f 	andeq	r0, r0, pc, lsl #1
    8fb0:	00253705 	eoreq	r3, r5, r5, lsl #14
    8fb4:	0c000000 	stceq	0, cr0, [r0], {-0}
    8fb8:	00000416 	andeq	r0, r0, r6, lsl r4
    8fbc:	00253805 	eoreq	r3, r5, r5, lsl #16
    8fc0:	0c040000 	stceq	0, cr0, [r4], {-0}
    8fc4:	000000b2 	strheq	r0, [r0], -r2
    8fc8:	00253905 	eoreq	r3, r5, r5, lsl #18
    8fcc:	0c080000 	stceq	0, cr0, [r8], {-0}
    8fd0:	00000504 	andeq	r0, r0, r4, lsl #10
    8fd4:	00253a05 	eoreq	r3, r5, r5, lsl #20
    8fd8:	0c0c0000 	stceq	0, cr0, [ip], {-0}
    8fdc:	0000027d 	andeq	r0, r0, sp, ror r2
    8fe0:	00253b05 	eoreq	r3, r5, r5, lsl #22
    8fe4:	0c100000 	ldceq	0, cr0, [r0], {-0}
    8fe8:	0000026c 	andeq	r0, r0, ip, ror #4
    8fec:	00253c05 	eoreq	r3, r5, r5, lsl #24
    8ff0:	0c140000 	ldceq	0, cr0, [r4], {-0}
    8ff4:	00000481 	andeq	r0, r0, r1, lsl #9
    8ff8:	00253d05 	eoreq	r3, r5, r5, lsl #26
    8ffc:	0c180000 	ldceq	0, cr0, [r8], {-0}
    9000:	0000035d 	andeq	r0, r0, sp, asr r3
    9004:	00253e05 	eoreq	r3, r5, r5, lsl #28
    9008:	0c1c0000 	ldceq	0, cr0, [ip], {-0}
    900c:	000004cb 	andeq	r0, r0, fp, asr #9
    9010:	00253f05 	eoreq	r3, r5, r5, lsl #30
    9014:	00200000 	eoreq	r0, r0, r0
    9018:	0000f212 	andeq	pc, r0, r2, lsl r2	; <UNPREDICTABLE>
    901c:	05010800 	streq	r0, [r1, #-2048]	; 0xfffff800
    9020:	00024b48 	andeq	r4, r2, r8, asr #22
    9024:	01840c00 	orreq	r0, r4, r0, lsl #24
    9028:	49050000 	stmdbmi	r5, {}	; <UNPREDICTABLE>
    902c:	0000024b 	andeq	r0, r0, fp, asr #4
    9030:	00000c00 	andeq	r0, r0, r0, lsl #24
    9034:	4a050000 	bmi	14903c <__bss_end__+0x13f0dc>
    9038:	0000024b 	andeq	r0, r0, fp, asr #4
    903c:	04321380 	ldrteq	r1, [r2], #-896	; 0xfffffc80
    9040:	4c050000 	stcmi	0, cr0, [r5], {-0}
    9044:	0000011e 	andeq	r0, r0, lr, lsl r1
    9048:	17130100 	ldrne	r0, [r3, -r0, lsl #2]
    904c:	05000001 	streq	r0, [r0, #-1]
    9050:	00011e4f 	andeq	r1, r1, pc, asr #28
    9054:	00010400 	andeq	r0, r1, r0, lsl #8
    9058:	00010a09 	andeq	r0, r1, r9, lsl #20
    905c:	00025b00 	andeq	r5, r2, r0, lsl #22
    9060:	00cc0a00 	sbceq	r0, ip, r0, lsl #20
    9064:	001f0000 	andseq	r0, pc, r0
    9068:	00028612 	andeq	r8, r2, r2, lsl r6
    906c:	05019000 	streq	r9, [r1, #-0]
    9070:	0002995b 	andeq	r9, r2, fp, asr r9
    9074:	039c0c00 	orrseq	r0, ip, #0, 24
    9078:	5c050000 	stcpl	0, cr0, [r5], {-0}
    907c:	00000299 	muleq	r0, r9, r2
    9080:	03b40c00 			; <UNDEFINED> instruction: 0x03b40c00
    9084:	5d050000 	stcpl	0, cr0, [r5, #-0]
    9088:	00000025 	andeq	r0, r0, r5, lsr #32
    908c:	018c0c04 	orreq	r0, ip, r4, lsl #24
    9090:	5f050000 	svcpl	0x00050000
    9094:	0000029f 	muleq	r0, pc, r2	; <UNPREDICTABLE>
    9098:	00f20c08 	rscseq	r0, r2, r8, lsl #24
    909c:	60050000 	andvs	r0, r5, r0
    90a0:	0000020b 	andeq	r0, r0, fp, lsl #4
    90a4:	040e0088 	streq	r0, [lr], #-136	; 0xffffff78
    90a8:	0000025b 	andeq	r0, r0, fp, asr r2
    90ac:	0002af09 	andeq	sl, r2, r9, lsl #30
    90b0:	0002af00 	andeq	sl, r2, r0, lsl #30
    90b4:	00cc0a00 	sbceq	r0, ip, r0, lsl #20
    90b8:	001f0000 	andseq	r0, pc, r0
    90bc:	02b5040e 	adcseq	r0, r5, #234881024	; 0xe000000
    90c0:	10140000 	andsne	r0, r4, r0
    90c4:	00000367 	andeq	r0, r0, r7, ror #6
    90c8:	db730508 	blle	1cca4f0 <__bss_end__+0x1cc0590>
    90cc:	0c000002 	stceq	0, cr0, [r0], {2}
    90d0:	000000ac 	andeq	r0, r0, ip, lsr #1
    90d4:	02db7405 	sbcseq	r7, fp, #83886080	; 0x5000000
    90d8:	0c000000 	stceq	0, cr0, [r0], {-0}
    90dc:	0000000c 	andeq	r0, r0, ip
    90e0:	00257505 	eoreq	r7, r5, r5, lsl #10
    90e4:	00040000 	andeq	r0, r4, r0
    90e8:	0054040e 	subseq	r0, r4, lr, lsl #8
    90ec:	86100000 	ldrhi	r0, [r0], -r0
    90f0:	68000003 	stmdavs	r0, {r0, r1}
    90f4:	040bb305 	streq	fp, [fp], #-773	; 0xfffffcfb
    90f8:	5f110000 	svcpl	0x00110000
    90fc:	b4050070 	strlt	r0, [r5], #-112	; 0xffffff90
    9100:	000002db 	ldrdeq	r0, [r0], -fp
    9104:	725f1100 	subsvc	r1, pc, #0, 2
    9108:	25b50500 	ldrcs	r0, [r5, #1280]!	; 0x500
    910c:	04000000 	streq	r0, [r0], #-0
    9110:	00775f11 	rsbseq	r5, r7, r1, lsl pc
    9114:	0025b605 	eoreq	fp, r5, r5, lsl #12
    9118:	0c080000 	stceq	0, cr0, [r8], {-0}
    911c:	00000110 	andeq	r0, r0, r0, lsl r1
    9120:	003fb705 	eorseq	fp, pc, r5, lsl #14
    9124:	0c0c0000 	stceq	0, cr0, [ip], {-0}
    9128:	000001f1 	strdeq	r0, [r0], -r1
    912c:	003fb805 	eorseq	fp, pc, r5, lsl #16
    9130:	110e0000 	mrsne	r0, (UNDEF: 14)
    9134:	0066625f 	rsbeq	r6, r6, pc, asr r2
    9138:	02b6b905 	adcseq	fp, r6, #81920	; 0x14000
    913c:	0c100000 	ldceq	0, cr0, [r0], {-0}
    9140:	0000006c 	andeq	r0, r0, ip, rrx
    9144:	0025ba05 	eoreq	fp, r5, r5, lsl #20
    9148:	0c180000 	ldceq	0, cr0, [r8], {-0}
    914c:	00000100 	andeq	r0, r0, r0, lsl #2
    9150:	010ac105 	tsteq	sl, r5, lsl #2
    9154:	0c1c0000 	ldceq	0, cr0, [ip], {-0}
    9158:	00000b24 	andeq	r0, r0, r4, lsr #22
    915c:	0566c305 	strbeq	ip, [r6, #-773]!	; 0xfffffcfb
    9160:	0c200000 	stceq	0, cr0, [r0], #-0
    9164:	00000619 	andeq	r0, r0, r9, lsl r6
    9168:	0590c505 	ldreq	ip, [r0, #1285]	; 0x505
    916c:	0c240000 	stceq	0, cr0, [r4], #-0
    9170:	00000408 	andeq	r0, r0, r8, lsl #8
    9174:	05b4c805 	ldreq	ip, [r4, #2053]!	; 0x805
    9178:	0c280000 	stceq	0, cr0, [r8], #-0
    917c:	000004e5 	andeq	r0, r0, r5, ror #9
    9180:	05cec905 	strbeq	ip, [lr, #2309]	; 0x905
    9184:	112c0000 			; <UNDEFINED> instruction: 0x112c0000
    9188:	0062755f 	rsbeq	r7, r2, pc, asr r5
    918c:	02b6cc05 	adcseq	ip, r6, #1280	; 0x500
    9190:	11300000 	teqne	r0, r0
    9194:	0070755f 	rsbseq	r7, r0, pc, asr r5
    9198:	02dbcd05 	sbcseq	ip, fp, #320	; 0x140
    919c:	11380000 	teqne	r8, r0
    91a0:	0072755f 	rsbseq	r7, r2, pc, asr r5
    91a4:	0025ce05 	eoreq	ip, r5, r5, lsl #28
    91a8:	0c3c0000 	ldceq	0, cr0, [ip], #-0
    91ac:	000000a6 	andeq	r0, r0, r6, lsr #1
    91b0:	05d4d105 	ldrbeq	sp, [r4, #261]	; 0x105
    91b4:	0c400000 	mareq	acc0, r0, r0
    91b8:	000004bd 			; <UNDEFINED> instruction: 0x000004bd
    91bc:	05e4d205 	strbeq	sp, [r4, #517]!	; 0x205
    91c0:	11430000 	mrsne	r0, (UNDEF: 67)
    91c4:	00626c5f 	rsbeq	r6, r2, pc, asr ip
    91c8:	02b6d505 	adcseq	sp, r6, #20971520	; 0x1400000
    91cc:	0c440000 	mareq	acc0, r0, r4
    91d0:	00000135 	andeq	r0, r0, r5, lsr r1
    91d4:	0025d805 	eoreq	sp, r5, r5, lsl #16
    91d8:	0c4c0000 	mareq	acc0, r0, ip
    91dc:	00000146 	andeq	r0, r0, r6, asr #2
    91e0:	007bd905 	rsbseq	sp, fp, r5, lsl #18
    91e4:	0c500000 	mraeq	r0, r0, acc0
    91e8:	00000ac5 	andeq	r0, r0, r5, asr #21
    91ec:	0429dc05 	strteq	sp, [r9], #-3077	; 0xfffff3fb
    91f0:	0c540000 	mraeq	r0, r4, acc0
    91f4:	000003fa 	strdeq	r0, [r0], -sl
    91f8:	00ffe005 	rscseq	lr, pc, r5
    91fc:	0c580000 	mraeq	r0, r8, acc0
    9200:	0000038e 	andeq	r0, r0, lr, lsl #7
    9204:	00f4e205 	rscseq	lr, r4, r5, lsl #4
    9208:	0c5c0000 	mraeq	r0, ip, acc0
    920c:	00000264 	andeq	r0, r0, r4, ror #4
    9210:	0025e305 	eoreq	lr, r5, r5, lsl #6
    9214:	00640000 	rsbeq	r0, r4, r0
    9218:	00002515 	andeq	r2, r0, r5, lsl r5
    921c:	00042900 	andeq	r2, r4, r0, lsl #18
    9220:	04291600 	strteq	r1, [r9], #-1536	; 0xfffffa00
    9224:	0a160000 	beq	58922c <__bss_end__+0x57f2cc>
    9228:	16000001 	strne	r0, [r0], -r1
    922c:	0000010c 	andeq	r0, r0, ip, lsl #2
    9230:	00002516 	andeq	r2, r0, r6, lsl r5
    9234:	040e0000 	streq	r0, [lr], #-0
    9238:	00000434 	andeq	r0, r0, r4, lsr r4
    923c:	0004290f 	andeq	r2, r4, pc, lsl #18
    9240:	03e41700 	mvneq	r1, #0, 14
    9244:	04280000 	strteq	r0, [r8], #-0
    9248:	66023805 	strvs	r3, [r2], -r5, lsl #16
    924c:	18000005 	stmdane	r0, {r0, r2}
    9250:	0000034c 	andeq	r0, r0, ip, asr #6
    9254:	25023a05 	strcs	r3, [r2, #-2565]	; 0xfffff5fb
    9258:	00000000 	andeq	r0, r0, r0
    925c:	00049118 	andeq	r9, r4, r8, lsl r1
    9260:	023f0500 	eorseq	r0, pc, #0, 10
    9264:	0000063b 	andeq	r0, r0, fp, lsr r6
    9268:	01e11804 	mvneq	r1, r4, lsl #16
    926c:	3f050000 	svccc	0x00050000
    9270:	00063b02 	andeq	r3, r6, r2, lsl #22
    9274:	a0180800 	andsge	r0, r8, r0, lsl #16
    9278:	05000001 	streq	r0, [r0, #-1]
    927c:	063b023f 			; <UNDEFINED> instruction: 0x063b023f
    9280:	180c0000 	stmdane	ip, {}	; <UNPREDICTABLE>
    9284:	000003af 	andeq	r0, r0, pc, lsr #7
    9288:	25024105 	strcs	r4, [r2, #-261]	; 0xfffffefb
    928c:	10000000 	andne	r0, r0, r0
    9290:	00001a18 	andeq	r1, r0, r8, lsl sl
    9294:	02420500 	subeq	r0, r2, #0, 10
    9298:	0000081d 	andeq	r0, r0, sp, lsl r8
    929c:	0a7e1814 	beq	1f8f2f4 <__bss_end__+0x1f85394>
    92a0:	44050000 	strmi	r0, [r5], #-0
    92a4:	00002502 	andeq	r2, r0, r2, lsl #10
    92a8:	f9183000 			; <UNDEFINED> instruction: 0xf9183000
    92ac:	05000009 	streq	r0, [r0, #-9]
    92b0:	058a0245 	streq	r0, [sl, #581]	; 0x245
    92b4:	18340000 	ldmdane	r4!, {}	; <UNPREDICTABLE>
    92b8:	0000028e 	andeq	r0, r0, lr, lsl #5
    92bc:	25024705 	strcs	r4, [r2, #-1797]	; 0xfffff8fb
    92c0:	38000000 	stmdacc	r0, {}	; <UNPREDICTABLE>
    92c4:	0003b918 	andeq	fp, r3, r8, lsl r9
    92c8:	02490500 	subeq	r0, r9, #0, 10
    92cc:	00000838 	andeq	r0, r0, r8, lsr r8
    92d0:	0240183c 	subeq	r1, r0, #60, 16	; 0x3c0000
    92d4:	4c050000 	stcmi	0, cr0, [r5], {-0}
    92d8:	00017c02 	andeq	r7, r1, r2, lsl #24
    92dc:	bf184000 	svclt	0x00184000
    92e0:	05000001 	streq	r0, [r0, #-1]
    92e4:	0025024d 	eoreq	r0, r5, sp, asr #4
    92e8:	18440000 	stmdane	r4, {}^	; <UNPREDICTABLE>
    92ec:	000004ff 	strdeq	r0, [r0], -pc	; <UNPREDICTABLE>
    92f0:	7c024e05 	stcvc	14, cr4, [r2], {5}
    92f4:	48000001 	stmdami	r0, {r0}
    92f8:	0002a018 	andeq	sl, r2, r8, lsl r0
    92fc:	024f0500 	subeq	r0, pc, #0, 10
    9300:	0000083e 	andeq	r0, r0, lr, lsr r8
    9304:	01e9184c 	mvneq	r1, ip, asr #16
    9308:	52050000 	andpl	r0, r5, #0
    930c:	00002502 	andeq	r2, r0, r2, lsl #10
    9310:	3e185000 	cdpcc	0, 1, cr5, cr8, cr0, {0}
    9314:	05000001 	streq	r0, [r0, #-1]
    9318:	010c0253 	tsteq	ip, r3, asr r2
    931c:	18540000 	ldmdane	r4, {}^	; <UNPREDICTABLE>
    9320:	000002c6 	andeq	r0, r0, r6, asr #5
    9324:	fb027605 	blx	a6b42 <__bss_end__+0x9cbe2>
    9328:	58000007 	stmdapl	r0, {r0, r1, r2}
    932c:	00028619 	andeq	r8, r2, r9, lsl r6
    9330:	027a0500 	rsbseq	r0, sl, #0, 10
    9334:	00000299 	muleq	r0, r9, r2
    9338:	1e190148 	mufneem	f0, f1, #0.0
    933c:	05000002 	streq	r0, [r0, #-2]
    9340:	025b027b 	subseq	r0, fp, #-1342177273	; 0xb0000007
    9344:	014c0000 	mrseq	r0, (UNDEF: 76)
    9348:	0004ab19 	andeq	sl, r4, r9, lsl fp
    934c:	027f0500 	rsbseq	r0, pc, #0, 10
    9350:	0000084f 	andeq	r0, r0, pc, asr #16
    9354:	081902dc 	ldmdaeq	r9, {r2, r3, r4, r6, r7, r9}
    9358:	05000001 	streq	r0, [r0, #-1]
    935c:	06000284 	streq	r0, [r0], -r4, lsl #5
    9360:	02e00000 	rsceq	r0, r0, #0
    9364:	0000ed19 	andeq	lr, r0, r9, lsl sp
    9368:	02850500 	addeq	r0, r5, #0, 10
    936c:	0000085b 	andeq	r0, r0, fp, asr r8
    9370:	0e0002ec 	cdpeq	2, 0, cr0, cr0, cr12, {7}
    9374:	00040b04 	andeq	r0, r4, r4, lsl #22
    9378:	00251500 	eoreq	r1, r5, r0, lsl #10
    937c:	058a0000 	streq	r0, [sl]
    9380:	29160000 	ldmdbcs	r6, {}	; <UNPREDICTABLE>
    9384:	16000004 	strne	r0, [r0], -r4
    9388:	0000010a 	andeq	r0, r0, sl, lsl #2
    938c:	00058a16 	andeq	r8, r5, r6, lsl sl
    9390:	00251600 	eoreq	r1, r5, r0, lsl #12
    9394:	0e000000 	cdpeq	0, 0, cr0, cr0, cr0, {0}
    9398:	00011904 	andeq	r1, r1, r4, lsl #18
    939c:	6c040e00 	stcvs	14, cr0, [r4], {-0}
    93a0:	15000005 	strne	r0, [r0, #-5]
    93a4:	00000086 	andeq	r0, r0, r6, lsl #1
    93a8:	000005b4 			; <UNDEFINED> instruction: 0x000005b4
    93ac:	00042916 	andeq	r2, r4, r6, lsl r9
    93b0:	010a1600 	tsteq	sl, r0, lsl #12
    93b4:	86160000 	ldrhi	r0, [r6], -r0
    93b8:	16000000 	strne	r0, [r0], -r0
    93bc:	00000025 	andeq	r0, r0, r5, lsr #32
    93c0:	96040e00 	strls	r0, [r4], -r0, lsl #28
    93c4:	15000005 	strne	r0, [r0, #-5]
    93c8:	00000025 	andeq	r0, r0, r5, lsr #32
    93cc:	000005ce 	andeq	r0, r0, lr, asr #11
    93d0:	00042916 	andeq	r2, r4, r6, lsl r9
    93d4:	010a1600 	tsteq	sl, r0, lsl #12
    93d8:	0e000000 	cdpeq	0, 0, cr0, cr0, cr0, {0}
    93dc:	0005ba04 	andeq	fp, r5, r4, lsl #20
    93e0:	00540900 	subseq	r0, r4, r0, lsl #18
    93e4:	05e40000 	strbeq	r0, [r4, #0]!
    93e8:	cc0a0000 	stcgt	0, cr0, [sl], {-0}
    93ec:	02000000 	andeq	r0, r0, #0
    93f0:	00540900 	subseq	r0, r4, r0, lsl #18
    93f4:	05f40000 	ldrbeq	r0, [r4, #0]!
    93f8:	cc0a0000 	stcgt	0, cr0, [sl], {-0}
    93fc:	00000000 	andeq	r0, r0, r0
    9400:	03740600 	cmneq	r4, #0, 12
    9404:	1d050000 	stcne	0, cr0, [r5, #-0]
    9408:	0002e101 	andeq	lr, r2, r1, lsl #2
    940c:	048b1a00 	streq	r1, [fp], #2560	; 0xa00
    9410:	050c0000 	streq	r0, [ip, #-0]
    9414:	06350121 	ldrteq	r0, [r5], -r1, lsr #2
    9418:	9c180000 	ldcls	0, cr0, [r8], {-0}
    941c:	05000003 	streq	r0, [r0, #-3]
    9420:	06350123 	ldrteq	r0, [r5], -r3, lsr #2
    9424:	18000000 	stmdane	r0, {}	; <UNPREDICTABLE>
    9428:	00000204 	andeq	r0, r0, r4, lsl #4
    942c:	25012405 	strcs	r2, [r1, #-1029]	; 0xfffffbfb
    9430:	04000000 	streq	r0, [r0], #-0
    9434:	00036e18 	andeq	r6, r3, r8, lsl lr
    9438:	01250500 			; <UNDEFINED> instruction: 0x01250500
    943c:	0000063b 	andeq	r0, r0, fp, lsr r6
    9440:	040e0008 	streq	r0, [lr], #-8
    9444:	00000600 	andeq	r0, r0, r0, lsl #12
    9448:	05f4040e 	ldrbeq	r0, [r4, #1038]!	; 0x40e
    944c:	121a0000 	andsne	r0, sl, #0
    9450:	0e000000 	cdpeq	0, 0, cr0, cr0, cr0, {0}
    9454:	76013d05 	strvc	r3, [r1], -r5, lsl #26
    9458:	18000006 	stmdane	r0, {r1, r2}
    945c:	000003eb 	andeq	r0, r0, fp, ror #7
    9460:	76013e05 	strvc	r3, [r1], -r5, lsl #28
    9464:	00000006 	andeq	r0, r0, r6
    9468:	00041f18 	andeq	r1, r4, r8, lsl pc
    946c:	013f0500 	teqeq	pc, r0, lsl #10
    9470:	00000676 	andeq	r0, r0, r6, ror r6
    9474:	043b1806 	ldrteq	r1, [fp], #-2054	; 0xfffff7fa
    9478:	40050000 	andmi	r0, r5, r0
    947c:	00005b01 	andeq	r5, r0, r1, lsl #22
    9480:	09000c00 	stmdbeq	r0, {sl, fp}
    9484:	0000005b 	andeq	r0, r0, fp, asr r0
    9488:	00000686 	andeq	r0, r0, r6, lsl #13
    948c:	0000cc0a 	andeq	ip, r0, sl, lsl #24
    9490:	1b000200 	blne	9c98 <buf.4297+0x13c>
    9494:	025705d0 	subseq	r0, r7, #208, 10	; 0x34000000
    9498:	00000787 	andeq	r0, r0, r7, lsl #15
    949c:	00046f18 	andeq	r6, r4, r8, lsl pc
    94a0:	02590500 	subseq	r0, r9, #0, 10
    94a4:	0000002c 	andeq	r0, r0, ip, lsr #32
    94a8:	04251800 	strteq	r1, [r5], #-2048	; 0xfffff800
    94ac:	5a050000 	bpl	1494b4 <__bss_end__+0x13f554>
    94b0:	00010c02 	andeq	r0, r1, r2, lsl #24
    94b4:	33180400 	tstcc	r8, #0, 8
    94b8:	05000002 	streq	r0, [r0, #-2]
    94bc:	0787025b 			; <UNDEFINED> instruction: 0x0787025b
    94c0:	18080000 	stmdane	r8, {}	; <UNPREDICTABLE>
    94c4:	000004d6 	ldrdeq	r0, [r0], -r6
    94c8:	92025c05 	andls	r5, r2, #1280	; 0x500
    94cc:	24000001 	strcs	r0, [r0], #-1
    94d0:	0001b018 	andeq	fp, r1, r8, lsl r0
    94d4:	025d0500 	subseq	r0, sp, #0, 10
    94d8:	00000025 	andeq	r0, r0, r5, lsr #32
    94dc:	03971848 	orrseq	r1, r7, #72, 16	; 0x480000
    94e0:	5e050000 	cdppl	0, 0, cr0, cr5, cr0, {0}
    94e4:	00006902 	andeq	r6, r0, r2, lsl #18
    94e8:	ec185000 	ldc	0, cr5, [r8], {-0}
    94ec:	05000004 	streq	r0, [r0, #-4]
    94f0:	0641025f 			; <UNDEFINED> instruction: 0x0641025f
    94f4:	18580000 	ldmdane	r8, {}^	; <UNPREDICTABLE>
    94f8:	000003a2 	andeq	r0, r0, r2, lsr #7
    94fc:	f4026005 	vst4.8	{d6-d9}, [r2], r5
    9500:	68000000 	stmdavs	r0, {}	; <UNPREDICTABLE>
    9504:	0004f118 	andeq	pc, r4, r8, lsl r1	; <UNPREDICTABLE>
    9508:	02610500 	rsbeq	r0, r1, #0, 10
    950c:	000000f4 	strdeq	r0, [r0], -r4
    9510:	02aa1870 	adceq	r1, sl, #112, 16	; 0x700000
    9514:	62050000 	andvs	r0, r5, #0
    9518:	0000f402 	andeq	pc, r0, r2, lsl #8
    951c:	a1187800 	tstge	r8, r0, lsl #16
    9520:	05000004 	streq	r0, [r0, #-4]
    9524:	07970263 	ldreq	r0, [r7, r3, ror #4]
    9528:	18800000 	stmne	r0, {}	; <UNPREDICTABLE>
    952c:	00000227 	andeq	r0, r0, r7, lsr #4
    9530:	a7026405 	strge	r6, [r2, -r5, lsl #8]
    9534:	88000007 	stmdahi	r0, {r0, r1, r2}
    9538:	00044818 	andeq	r4, r4, r8, lsl r8
    953c:	02650500 	rsbeq	r0, r5, #0, 10
    9540:	00000025 	andeq	r0, r0, r5, lsr #32
    9544:	017618a0 	cmneq	r6, r0, lsr #17
    9548:	66050000 	strvs	r0, [r5], -r0
    954c:	0000f402 	andeq	pc, r0, r2, lsl #8
    9550:	8018a400 	andshi	sl, r8, r0, lsl #8
    9554:	05000000 	streq	r0, [r0, #-0]
    9558:	00f40267 	rscseq	r0, r4, r7, ror #4
    955c:	18ac0000 	stmiane	ip!, {}	; <UNPREDICTABLE>
    9560:	00000165 	andeq	r0, r0, r5, ror #2
    9564:	f4026805 	vst2.8	{d6-d7}, [r2], r5
    9568:	b4000000 	strlt	r0, [r0], #-0
    956c:	00002d18 	andeq	r2, r0, r8, lsl sp
    9570:	02690500 	rsbeq	r0, r9, #0, 10
    9574:	000000f4 	strdeq	r0, [r0], -r4
    9578:	003c18bc 	ldrhteq	r1, [ip], -ip
    957c:	6a050000 	bvs	149584 <__bss_end__+0x13f624>
    9580:	0000f402 	andeq	pc, r0, r2, lsl #8
    9584:	4a18c400 	bmi	63a58c <__bss_end__+0x63062c>
    9588:	05000003 	streq	r0, [r0, #-3]
    958c:	0025026b 	eoreq	r0, r5, fp, ror #4
    9590:	00cc0000 	sbceq	r0, ip, r0
    9594:	00011209 	andeq	r1, r1, r9, lsl #4
    9598:	00079700 	andeq	r9, r7, r0, lsl #14
    959c:	00cc0a00 	sbceq	r0, ip, r0, lsl #20
    95a0:	00190000 	andseq	r0, r9, r0
    95a4:	00011209 	andeq	r1, r1, r9, lsl #4
    95a8:	0007a700 	andeq	sl, r7, r0, lsl #14
    95ac:	00cc0a00 	sbceq	r0, ip, r0, lsl #20
    95b0:	00070000 	andeq	r0, r7, r0
    95b4:	00011209 	andeq	r1, r1, r9, lsl #4
    95b8:	0007b700 	andeq	fp, r7, r0, lsl #14
    95bc:	00cc0a00 	sbceq	r0, ip, r0, lsl #20
    95c0:	00170000 	andseq	r0, r7, r0
    95c4:	7005f01b 	andvc	pc, r5, fp, lsl r0	; <UNPREDICTABLE>
    95c8:	0007db02 	andeq	sp, r7, r2, lsl #22
    95cc:	02761800 	rsbseq	r1, r6, #0, 16
    95d0:	73050000 	movwvc	r0, #20480	; 0x5000
    95d4:	0007db02 	andeq	sp, r7, r2, lsl #22
    95d8:	98180000 	ldmdals	r8, {}	; <UNPREDICTABLE>
    95dc:	05000004 	streq	r0, [r0, #-4]
    95e0:	07eb0274 			; <UNDEFINED> instruction: 0x07eb0274
    95e4:	00780000 	rsbseq	r0, r8, r0
    95e8:	0002db09 	andeq	sp, r2, r9, lsl #22
    95ec:	0007eb00 	andeq	lr, r7, r0, lsl #22
    95f0:	00cc0a00 	sbceq	r0, ip, r0, lsl #20
    95f4:	001d0000 	andseq	r0, sp, r0
    95f8:	00002c09 	andeq	r2, r0, r9, lsl #24
    95fc:	0007fb00 	andeq	pc, r7, r0, lsl #22
    9600:	00cc0a00 	sbceq	r0, ip, r0, lsl #20
    9604:	001d0000 	andseq	r0, sp, r0
    9608:	5505f01c 	strpl	pc, [r5, #-28]	; 0xffffffe4
    960c:	00081d02 	andeq	r1, r8, r2, lsl #26
    9610:	03e41d00 	mvneq	r1, #0, 26
    9614:	6c050000 	stcvs	0, cr0, [r5], {-0}
    9618:	00068602 	andeq	r8, r6, r2, lsl #12
    961c:	04c31d00 	strbeq	r1, [r3], #3328	; 0xd00
    9620:	75050000 	strvc	r0, [r5, #-0]
    9624:	0007b702 	andeq	fp, r7, r2, lsl #14
    9628:	12090000 	andne	r0, r9, #0
    962c:	2d000001 	stccs	0, cr0, [r0, #-4]
    9630:	0a000008 	beq	9658 <__FUNCTION__.4337+0x4c>
    9634:	000000cc 	andeq	r0, r0, ip, asr #1
    9638:	381e0018 	ldmdacc	lr, {r3, r4}
    963c:	16000008 	strne	r0, [r0], -r8
    9640:	00000429 	andeq	r0, r0, r9, lsr #8
    9644:	2d040e00 	stccs	14, cr0, [r4, #-0]
    9648:	0e000008 	cdpeq	0, 0, cr0, cr0, cr8, {0}
    964c:	00017c04 	andeq	r7, r1, r4, lsl #24
    9650:	084f1e00 	stmdaeq	pc, {r9, sl, fp, ip}^	; <UNPREDICTABLE>
    9654:	25160000 	ldrcs	r0, [r6, #-0]
    9658:	00000000 	andeq	r0, r0, r0
    965c:	0855040e 	ldmdaeq	r5, {r1, r2, r3, sl}^
    9660:	040e0000 	streq	r0, [lr], #-0
    9664:	00000844 	andeq	r0, r0, r4, asr #16
    9668:	0005f409 	andeq	pc, r5, r9, lsl #8
    966c:	00086b00 	andeq	r6, r8, r0, lsl #22
    9670:	00cc0a00 	sbceq	r0, ip, r0, lsl #20
    9674:	00020000 	andeq	r0, r2, r0
    9678:	00045c1f 	andeq	r5, r4, pc, lsl ip
    967c:	02fd0500 	rscseq	r0, sp, #0, 10
    9680:	00000429 	andeq	r0, r0, r9, lsr #8
    9684:	0004551f 	andeq	r5, r4, pc, lsl r5
    9688:	02fe0500 	rscseq	r0, lr, #0, 10
    968c:	0000042f 	andeq	r0, r0, pc, lsr #8
    9690:	00002515 	andeq	r2, r0, r5, lsl r5
    9694:	00089200 	andeq	r9, r8, r0, lsl #4
    9698:	00251600 	eoreq	r1, r5, r0, lsl #12
    969c:	20000000 	andcs	r0, r0, r0
    96a0:	000001c9 	andeq	r0, r0, r9, asr #3
    96a4:	089d1d06 	ldmeq	sp, {r1, r2, r8, sl, fp, ip}
    96a8:	040e0000 	streq	r0, [lr], #-0
    96ac:	00000883 	andeq	r0, r0, r3, lsl #17
    96b0:	00002515 	andeq	r2, r0, r5, lsl r5
    96b4:	0008b200 	andeq	fp, r8, r0, lsl #4
    96b8:	058a1600 	streq	r1, [sl, #1536]	; 0x600
    96bc:	20000000 	andcs	r0, r0, r0
    96c0:	00000768 	andeq	r0, r0, r8, ror #14
    96c4:	08bd2206 	popeq	{r1, r2, r9, sp}
    96c8:	040e0000 	streq	r0, [lr], #-0
    96cc:	000008a3 	andeq	r0, r0, r3, lsr #17
    96d0:	00540121 	subseq	r0, r4, r1, lsr #2
    96d4:	0c080000 	stceq	0, cr0, [r8], {-0}
    96d8:	00000900 	andeq	r0, r0, r0, lsl #18
    96dc:	00091722 	andeq	r1, r9, r2, lsr #14
    96e0:	90220000 	eorls	r0, r2, r0
    96e4:	0100000a 	tsteq	r0, sl
    96e8:	000acb22 	andeq	ip, sl, r2, lsr #22
    96ec:	2c220400 	cfstrscs	mvf0, [r2], #-0
    96f0:	05000009 	streq	r0, [r0, #-9]
    96f4:	0009b822 	andeq	fp, r9, r2, lsr #16
    96f8:	da220600 	ble	88af00 <__bss_end__+0x880fa0>
    96fc:	0700000a 	streq	r0, [r0, -sl]
    9700:	000ae922 	andeq	lr, sl, r2, lsr #18
    9704:	f8220300 			; <UNDEFINED> instruction: 0xf8220300
    9708:	0200000a 	andeq	r0, r0, #10
    970c:	09471000 	stmdbeq	r7, {ip}^
    9710:	072c0000 	streq	r0, [ip, -r0]!
    9714:	00099006 	andeq	r9, r9, r6
    9718:	6f691100 	svcvs	0x00691100
    971c:	33090700 	movwcc	r0, #38656	; 0x9700
    9720:	00000000 	andeq	r0, r0, r0
    9724:	72656911 	rsbvc	r6, r5, #278528	; 0x44000
    9728:	330a0700 	movwcc	r0, #42752	; 0xa700
    972c:	04000000 	streq	r0, [r0], #-0
    9730:	72696911 	rsbvc	r6, r9, #278528	; 0x44000
    9734:	33110700 	tstcc	r1, #0, 14
    9738:	08000000 	stmdaeq	r0, {}	; <UNPREDICTABLE>
    973c:	72636c11 	rsbvc	r6, r3, #4352	; 0x1100
    9740:	33130700 	tstcc	r3, #0, 14
    9744:	0c000000 	stceq	0, cr0, [r0], {-0}
    9748:	72636d11 	rsbvc	r6, r3, #1088	; 0x440
    974c:	33140700 	tstcc	r4, #0, 14
    9750:	10000000 	andne	r0, r0, r0
    9754:	72736c11 	rsbsvc	r6, r3, #4352	; 0x1100
    9758:	33150700 	tstcc	r5, #0, 14
    975c:	14000000 	strne	r0, [r0], #-0
    9760:	72736d11 	rsbsvc	r6, r3, #1088	; 0x440
    9764:	33160700 	tstcc	r6, #0, 14
    9768:	18000000 	stmdane	r0, {}	; <UNPREDICTABLE>
    976c:	000a0e0c 	andeq	r0, sl, ip, lsl #28
    9770:	33170700 	tstcc	r7, #0, 14
    9774:	1c000000 	stcne	0, cr0, [r0], {-0}
    9778:	00093b0c 	andeq	r3, r9, ip, lsl #22
    977c:	331b0700 	tstcc	fp, #0, 14
    9780:	20000000 	andcs	r0, r0, r0
    9784:	0009270c 	andeq	r2, r9, ip, lsl #14
    9788:	331d0700 	tstcc	sp, #0, 14
    978c:	24000000 	strcs	r0, [r0], #-0
    9790:	000a090c 	andeq	r0, sl, ip, lsl #18
    9794:	331e0700 	tstcc	lr, #0, 14
    9798:	28000000 	stmdacs	r0, {}	; <UNPREDICTABLE>
    979c:	09882300 	stmibeq	r8, {r8, r9, sp}
    97a0:	07010000 	streq	r0, [r1, -r0]
    97a4:	000009a5 	andeq	r0, r0, r5, lsr #19
    97a8:	20215004 	eorcs	r5, r1, r4
    97ac:	0033040e 	eorseq	r0, r3, lr, lsl #8
    97b0:	9f0f0000 	svcls	0x000f0000
    97b4:	23000009 	movwcs	r0, #9
    97b8:	000009e2 	andeq	r0, r0, r2, ror #19
    97bc:	09bf2801 	ldmibeq	pc!, {r0, fp, sp}	; <UNPREDICTABLE>
    97c0:	50400000 	subpl	r0, r0, r0
    97c4:	040e2021 	streq	r2, [lr], #-33	; 0xffffffdf
    97c8:	00000900 	andeq	r0, r0, r0, lsl #18
    97cc:	0009b90f 	andeq	fp, r9, pc, lsl #18
    97d0:	0abd2400 	beq	fef527d8 <__bss_end__+0xfef48878>
    97d4:	a7010000 	strge	r0, [r1, -r0]
    97d8:	00000025 	andeq	r0, r0, r5, lsr #32
    97dc:	000092ec 	andeq	r9, r0, ip, ror #5
    97e0:	00000010 	andeq	r0, r0, r0, lsl r0
    97e4:	09f09c01 	ldmibeq	r0!, {r0, sl, fp, ip, pc}^
    97e8:	f4250000 	vld4.8	{d0-d3}, [r5], r0
    97ec:	9c000092 	stcls	0, cr0, [r0], {146}	; 0x92
    97f0:	2500000c 	strcs	r0, [r0, #-12]
    97f4:	000092f8 	strdeq	r9, [r0], -r8
    97f8:	00000ad2 	ldrdeq	r0, [r0], -r2
    97fc:	07352600 	ldreq	r2, [r5, -r0, lsl #12]!
    9800:	9f010000 	svcls	0x00010000
    9804:	000092bc 			; <UNDEFINED> instruction: 0x000092bc
    9808:	00000030 	andeq	r0, r0, r0, lsr r0
    980c:	0a4e9c01 	beq	13b0818 <__bss_end__+0x13a68b8>
    9810:	63270000 			; <UNDEFINED> instruction: 0x63270000
    9814:	2c9f0100 	ldfcss	f0, [pc], {0}
    9818:	37000000 	strcc	r0, [r0, -r0]
    981c:	25000013 	strcs	r0, [r0, #-19]	; 0xffffffed
    9820:	000092c8 	andeq	r9, r0, r8, asr #5
    9824:	00000c9c 	muleq	r0, ip, ip
    9828:	0092cc25 	addseq	ip, r2, r5, lsr #24
    982c:	000aa500 	andeq	sl, sl, r0, lsl #10
    9830:	92e02800 	rscls	r2, r0, #0, 16
    9834:	0ca70000 	stceq	0, cr0, [r7]
    9838:	0a440000 	beq	1109840 <__bss_end__+0x10ff8e0>
    983c:	01290000 			; <UNDEFINED> instruction: 0x01290000
    9840:	400c0550 	andmi	r0, ip, r0, asr r5
    9844:	29202150 	stmdbcs	r0!, {r4, r6, r8, sp}
    9848:	74055101 	strvc	r5, [r5], #-257	; 0xfffffeff
    984c:	1aff0800 	bne	fffcb854 <__bss_end__+0xfffc18f4>
    9850:	92e42500 	rscls	r2, r4, #0, 10
    9854:	0c9c0000 	ldceq	0, cr0, [ip], {0}
    9858:	24000000 	strcs	r0, [r0], #-0
    985c:	000009a2 	andeq	r0, r0, r2, lsr #19
    9860:	00259701 	eoreq	r9, r5, r1, lsl #14
    9864:	928c0000 	addls	r0, ip, #0
    9868:	00300000 	eorseq	r0, r0, r0
    986c:	9c010000 	stcls	0, cr0, [r1], {-0}
    9870:	00000aa5 	andeq	r0, r0, r5, lsr #21
    9874:	0100632a 	tsteq	r0, sl, lsr #6
    9878:	0000259b 	muleq	r0, fp, r5
    987c:	25540100 	ldrbcs	r0, [r4, #-256]	; 0xffffff00
    9880:	00009294 	muleq	r0, r4, r2
    9884:	00000c9c 	muleq	r0, ip, ip
    9888:	00929825 	addseq	r9, r2, r5, lsr #16
    988c:	000ad200 	andeq	sp, sl, r0, lsl #4
    9890:	92a82800 	adcls	r2, r8, #0, 16
    9894:	0cb20000 	ldceq	0, cr0, [r2]
    9898:	0a9b0000 	beq	fe6c98a0 <__bss_end__+0xfe6bf940>
    989c:	01290000 			; <UNDEFINED> instruction: 0x01290000
    98a0:	400c0550 	andmi	r0, ip, r0, asr r5
    98a4:	00202150 	eoreq	r2, r0, r0, asr r1
    98a8:	0092b025 	addseq	fp, r2, r5, lsr #32
    98ac:	000c9c00 	andeq	r9, ip, r0, lsl #24
    98b0:	94240000 	strtls	r0, [r4], #-0
    98b4:	01000009 	tsteq	r0, r9
    98b8:	00002588 	andeq	r2, r0, r8, lsl #11
    98bc:	00926c00 	addseq	r6, r2, r0, lsl #24
    98c0:	00002000 	andeq	r2, r0, r0
    98c4:	d29c0100 	addsle	r0, ip, #0, 2
    98c8:	2b00000a 	blcs	98f8 <__FUNCTION__.4337+0x2ec>
    98cc:	00009278 	andeq	r9, r0, r8, ror r2
    98d0:	00000cb2 			; <UNDEFINED> instruction: 0x00000cb2
    98d4:	05500129 	ldrbeq	r0, [r0, #-297]	; 0xfffffed7
    98d8:	2150640c 	cmpcs	r0, ip, lsl #8
    98dc:	24000020 	strcs	r0, [r0], #-32	; 0xffffffe0
    98e0:	00000aa7 	andeq	r0, r0, r7, lsr #21
    98e4:	00257f01 	eoreq	r7, r5, r1, lsl #30
    98e8:	92540000 	subsls	r0, r4, #0
    98ec:	00180000 	andseq	r0, r8, r0
    98f0:	9c010000 	stcls	0, cr0, [r1], {-0}
    98f4:	00000aff 	strdeq	r0, [r0], -pc	; <UNPREDICTABLE>
    98f8:	0092602b 	addseq	r6, r2, fp, lsr #32
    98fc:	000cb200 	andeq	fp, ip, r0, lsl #4
    9900:	50012900 	andpl	r2, r1, r0, lsl #18
    9904:	50640c05 	rsbpl	r0, r4, r5, lsl #24
    9908:	00002021 	andeq	r2, r0, r1, lsr #32
    990c:	00090d26 	andeq	r0, r9, r6, lsr #26
    9910:	a43a0100 	ldrtge	r0, [sl], #-256	; 0xffffff00
    9914:	b0000091 	mullt	r0, r1, r0
    9918:	01000000 	mrseq	r0, (UNDEF: 0)
    991c:	000c3d9c 	muleq	ip, ip, sp
    9920:	91b42800 			; <UNDEFINED> instruction: 0x91b42800
    9924:	0cbd0000 	ldceq	0, cr0, [sp]
    9928:	0b2c0000 	bleq	b09930 <__bss_end__+0xaff9d0>
    992c:	01290000 			; <UNDEFINED> instruction: 0x01290000
    9930:	293e0150 	ldmdbcs	lr!, {r4, r6, r8}
    9934:	32015101 	andcc	r5, r1, #1073741824	; 0x40000000
    9938:	91c02800 	bicls	r2, r0, r0, lsl #16
    993c:	0cbd0000 	ldceq	0, cr0, [sp]
    9940:	0b440000 	bleq	1109948 <__bss_end__+0x10ff9e8>
    9944:	01290000 			; <UNDEFINED> instruction: 0x01290000
    9948:	293f0150 	ldmdbcs	pc!, {r4, r6, r8}	; <UNPREDICTABLE>
    994c:	32015101 	andcc	r5, r1, #1073741824	; 0x40000000
    9950:	91c42500 	bicls	r2, r4, r0, lsl #10
    9954:	0c9c0000 	ldceq	0, cr0, [ip], {0}
    9958:	d0280000 	eorle	r0, r8, r0
    995c:	3d000091 	stccc	0, cr0, [r0, #-580]	; 0xfffffdbc
    9960:	6900000c 	stmdbvs	r0, {r2, r3}
    9964:	2900000b 	stmdbcs	r0, {r0, r1, r3}
    9968:	0c055001 	stceq	0, cr5, [r5], {1}
    996c:	20215004 	eorcs	r5, r1, r4
    9970:	01510129 	cmpeq	r1, r9, lsr #2
    9974:	d4250031 	strtle	r0, [r5], #-49	; 0xffffffcf
    9978:	9c000091 	stcls	0, cr0, [r0], {145}	; 0x91
    997c:	2800000c 	stmdacs	r0, {r2, r3}
    9980:	000091e4 	andeq	r9, r0, r4, ror #3
    9984:	00000ca7 	andeq	r0, r0, r7, lsr #25
    9988:	00000b8b 	andeq	r0, r0, fp, lsl #23
    998c:	02500129 	subseq	r0, r0, #1073741834	; 0x4000000a
    9990:	01290074 			; <UNDEFINED> instruction: 0x01290074
    9994:	00300151 	eorseq	r0, r0, r1, asr r1
    9998:	0091f028 	addseq	pc, r1, r8, lsr #32
    999c:	000ca700 	andeq	sl, ip, r0, lsl #14
    99a0:	000ba700 	andeq	sl, fp, r0, lsl #14
    99a4:	50012900 	andpl	r2, r1, r0, lsl #18
    99a8:	50440c05 	subpl	r0, r4, r5, lsl #24
    99ac:	01292021 			; <UNDEFINED> instruction: 0x01292021
    99b0:	00300151 	eorseq	r0, r0, r1, asr r1
    99b4:	0091fc28 	addseq	pc, r1, r8, lsr #24
    99b8:	000ca700 	andeq	sl, ip, r0, lsl #14
    99bc:	000bc300 	andeq	ip, fp, r0, lsl #6
    99c0:	50012900 	andpl	r2, r1, r0, lsl #18
    99c4:	504c0c05 	subpl	r0, ip, r5, lsl #24
    99c8:	01292021 			; <UNDEFINED> instruction: 0x01292021
    99cc:	00330151 	eorseq	r0, r3, r1, asr r1
    99d0:	00920828 	addseq	r0, r2, r8, lsr #16
    99d4:	000ca700 	andeq	sl, ip, r0, lsl #14
    99d8:	000bdf00 	andeq	sp, fp, r0, lsl #30
    99dc:	50012900 	andpl	r2, r1, r0, lsl #18
    99e0:	50500c05 	subspl	r0, r0, r5, lsl #24
    99e4:	01292021 			; <UNDEFINED> instruction: 0x01292021
    99e8:	00300151 	eorseq	r0, r0, r1, asr r1
    99ec:	00921428 	addseq	r1, r2, r8, lsr #8
    99f0:	000ca700 	andeq	sl, ip, r0, lsl #14
    99f4:	000bfc00 	andeq	pc, fp, r0, lsl #24
    99f8:	50012900 	andpl	r2, r1, r0, lsl #18
    99fc:	50480c05 	subpl	r0, r8, r5, lsl #24
    9a00:	01292021 			; <UNDEFINED> instruction: 0x01292021
    9a04:	c7080251 	smlsdgt	r8, r1, r2, r0
    9a08:	92202800 	eorls	r2, r0, #0, 16
    9a0c:	0ca70000 	stceq	0, cr0, [r7]
    9a10:	0c1a0000 	ldceq	0, cr0, [sl], {-0}
    9a14:	01290000 			; <UNDEFINED> instruction: 0x01290000
    9a18:	680c0550 	stmdavs	ip, {r4, r6, r8, sl}
    9a1c:	29202150 	stmdbcs	r0!, {r4, r6, r8, sp}
    9a20:	0a035101 	beq	dde2c <__bss_end__+0xd3ecc>
    9a24:	2800010e 	stmdacs	r0, {r1, r2, r3, r8}
    9a28:	0000922c 	andeq	r9, r0, ip, lsr #4
    9a2c:	00000ca7 	andeq	r0, r0, r7, lsr #25
    9a30:	00000c33 	andeq	r0, r0, r3, lsr ip
    9a34:	02500129 	subseq	r0, r0, #1073741834	; 0x4000000a
    9a38:	01290074 			; <UNDEFINED> instruction: 0x01290074
    9a3c:	00330151 	eorseq	r0, r3, r1, asr r1
    9a40:	00923025 	addseq	r3, r2, r5, lsr #32
    9a44:	000c9c00 	andeq	r9, ip, r0, lsl #24
    9a48:	b52c0000 	strlt	r0, [ip, #-0]!
    9a4c:	0100000a 	tsteq	r0, sl
    9a50:	0091842d 	addseq	r8, r1, sp, lsr #8
    9a54:	00002000 	andeq	r2, r0, r0
    9a58:	959c0100 	ldrls	r0, [ip, #256]	; 0x100
    9a5c:	2d00000c 	stccs	0, cr0, [r0, #-48]	; 0xffffffd0
    9a60:	00000c0c 	andeq	r0, r0, ip, lsl #24
    9a64:	0c952d01 	ldceq	13, cr2, [r5], {1}
    9a68:	13550000 	cmpne	r5, #0
    9a6c:	76270000 	strtvc	r0, [r7], -r0
    9a70:	01006c61 	tsteq	r0, r1, ror #24
    9a74:	00002c2d 	andeq	r2, r0, sp, lsr #24
    9a78:	00137300 	andseq	r7, r3, r0, lsl #6
    9a7c:	91942800 	orrsls	r2, r4, r0, lsl #16
    9a80:	0cb20000 	ldceq	0, cr0, [r2]
    9a84:	0c840000 	stceq	0, cr0, [r4], {0}
    9a88:	01290000 			; <UNDEFINED> instruction: 0x01290000
    9a8c:	00740250 	rsbseq	r0, r4, r0, asr r2
    9a90:	91a02b00 	lslls	r2, r0, #22
    9a94:	0ca70000 	stceq	0, cr0, [r7]
    9a98:	01290000 			; <UNDEFINED> instruction: 0x01290000
    9a9c:	00740250 	rsbseq	r0, r4, r0, asr r2
    9aa0:	040e0000 	streq	r0, [lr], #-0
    9aa4:	00000c9b 	muleq	r0, fp, ip
    9aa8:	09ac2f2e 	stmibeq	ip!, {r1, r2, r3, r5, r8, r9, sl, fp, sp}
    9aac:	09ac0000 	stmibeq	ip!, {}	; <UNPREDICTABLE>
    9ab0:	89060000 	stmdbhi	r6, {}	; <UNPREDICTABLE>
    9ab4:	000a162f 	andeq	r1, sl, pc, lsr #12
    9ab8:	000a1600 	andeq	r1, sl, r0, lsl #12
    9abc:	2f9c0600 	svccs	0x009c0600
    9ac0:	00000aa1 	andeq	r0, r0, r1, lsr #21
    9ac4:	00000aa1 	andeq	r0, r0, r1, lsr #21
    9ac8:	d02fa806 	eorle	sl, pc, r6, lsl #16
    9acc:	d0000009 	andle	r0, r0, r9
    9ad0:	08000009 	stmdaeq	r0, {r0, r3}
    9ad4:	0b700019 	bleq	1c09b40 <__bss_end__+0x1bffbe0>
    9ad8:	00040000 	andeq	r0, r4, r0
    9adc:	00001f2a 	andeq	r1, r0, sl, lsr #30
    9ae0:	0a1c0104 	beq	709ef8 <__bss_end__+0x6fff98>
    9ae4:	190c0000 	stmdbne	ip, {}	; <UNPREDICTABLE>
    9ae8:	5300000b 	movwpl	r0, #11
    9aec:	fc000009 	stc2	0, cr0, [r0], {9}
    9af0:	20000092 	mulcs	r0, r2, r0
    9af4:	c8000001 	stmdagt	r0, {r0}
    9af8:	02000019 	andeq	r0, r0, #25
    9afc:	6e690504 	cdpvs	5, 6, cr0, cr9, cr4, {0}
    9b00:	04030074 	streq	r0, [r3], #-116	; 0xffffff8c
    9b04:	00005707 	andeq	r5, r0, r7, lsl #14
    9b08:	002c0400 	eoreq	r0, ip, r0, lsl #8
    9b0c:	01030000 	mrseq	r0, (UNDEF: 3)
    9b10:	0002ba06 	andeq	fp, r2, r6, lsl #20
    9b14:	05020300 	streq	r0, [r2, #-768]	; 0xfffffd00
    9b18:	00000353 	andeq	r0, r0, r3, asr r3
    9b1c:	9d050403 	cfstrsls	mvf0, [r5, #-12]
    9b20:	03000000 	movweq	r0, #0
    9b24:	00980508 	addseq	r0, r8, r8, lsl #10
    9b28:	01030000 	mrseq	r0, (UNDEF: 3)
    9b2c:	0002b808 	andeq	fp, r2, r8, lsl #16
    9b30:	07020300 	streq	r0, [r2, -r0, lsl #6]
    9b34:	0000020b 	andeq	r0, r0, fp, lsl #4
    9b38:	52070403 	andpl	r0, r7, #50331648	; 0x3000000
    9b3c:	03000000 	movweq	r0, #0
    9b40:	004d0708 	subeq	r0, sp, r8, lsl #14
    9b44:	e7050000 	str	r0, [r5, -r0]
    9b48:	02000009 	andeq	r0, r0, #9
    9b4c:	00002507 	andeq	r2, r0, r7, lsl #10
    9b50:	02990500 	addseq	r0, r9, #0, 10
    9b54:	2c030000 	stccs	0, cr0, [r3], {-0}
    9b58:	00000046 	andeq	r0, r0, r6, asr #32
    9b5c:	00040e05 	andeq	r0, r4, r5, lsl #28
    9b60:	46720300 	ldrbtmi	r0, [r2], -r0, lsl #6
    9b64:	06000000 	streq	r0, [r0], -r0
    9b68:	00000256 	andeq	r0, r0, r6, asr r2
    9b6c:	2c016504 	cfstr32cs	mvfx6, [r1], {4}
    9b70:	07000000 	streq	r0, [r0, -r0]
    9b74:	bca60304 	stclt	3, cr0, [r6], #16
    9b78:	08000000 	stmdaeq	r0, {}	; <UNPREDICTABLE>
    9b7c:	00000248 	andeq	r0, r0, r8, asr #4
    9b80:	0091a803 	addseq	sl, r1, r3, lsl #16
    9b84:	da080000 	ble	209b8c <__bss_end__+0x1ffc2c>
    9b88:	03000001 	movweq	r0, #1
    9b8c:	0000bca9 	andeq	fp, r0, r9, lsr #25
    9b90:	54090000 	strpl	r0, [r9], #-0
    9b94:	cc000000 	stcgt	0, cr0, [r0], {-0}
    9b98:	0a000000 	beq	9ba0 <buf.4297+0x44>
    9b9c:	000000cc 	andeq	r0, r0, ip, asr #1
    9ba0:	04030003 	streq	r0, [r3], #-3
    9ba4:	0009c707 	andeq	ip, r9, r7, lsl #14
    9ba8:	03080b00 	movweq	r0, #35584	; 0x8b00
    9bac:	0000f4a3 	andeq	pc, r0, r3, lsr #9
    9bb0:	03f10c00 	mvnseq	r0, #0, 24
    9bb4:	a5030000 	strge	r0, [r3, #-0]
    9bb8:	00000025 	andeq	r0, r0, r5, lsr #32
    9bbc:	04000c00 	streq	r0, [r0], #-3072	; 0xfffff400
    9bc0:	aa030000 	bge	c9bc8 <__bss_end__+0xbfc68>
    9bc4:	0000009d 	muleq	r0, sp, r0
    9bc8:	7b050004 	blvc	149be0 <__bss_end__+0x13fc80>
    9bcc:	03000003 	movweq	r0, #3
    9bd0:	0000d3ab 	andeq	sp, r0, fp, lsr #7
    9bd4:	01970500 	orrseq	r0, r7, r0, lsl #10
    9bd8:	af030000 	svcge	0x00030000
    9bdc:	00000070 	andeq	r0, r0, r0, ror r0
    9be0:	040e040d 	streq	r0, [lr], #-1037	; 0xfffffbf3
    9be4:	00000112 	andeq	r0, r0, r2, lsl r1
    9be8:	c1080103 	tstgt	r8, r3, lsl #2
    9bec:	04000002 	streq	r0, [r0], #-2
    9bf0:	00000112 	andeq	r0, r0, r2, lsl r1
    9bf4:	00044005 	andeq	r4, r4, r5
    9bf8:	62160500 	andsvs	r0, r6, #0, 10
    9bfc:	0f000000 	svceq	0x00000000
    9c00:	000001a8 	andeq	r0, r0, r8, lsr #3
    9c04:	7c2d0518 	cfstr32vc	mvfx0, [sp], #-96	; 0xffffffa0
    9c08:	0c000001 	stceq	0, cr0, [r0], {1}
    9c0c:	0000039c 	muleq	r0, ip, r3
    9c10:	017c2f05 	cmneq	ip, r5, lsl #30
    9c14:	10000000 	andne	r0, r0, r0
    9c18:	05006b5f 	streq	r6, [r0, #-2911]	; 0xfffff4a1
    9c1c:	00002530 	andeq	r2, r0, r0, lsr r5
    9c20:	dc0c0400 	cfstrsle	mvf0, [ip], {-0}
    9c24:	05000003 	streq	r0, [r0, #-3]
    9c28:	00002530 	andeq	r2, r0, r0, lsr r5
    9c2c:	910c0800 	tstls	ip, r0, lsl #16
    9c30:	05000001 	streq	r0, [r0, #-1]
    9c34:	00002530 	andeq	r2, r0, r0, lsr r5
    9c38:	7c0c0c00 	stcvc	12, cr0, [ip], {-0}
    9c3c:	05000004 	streq	r0, [r0, #-4]
    9c40:	00002530 	andeq	r2, r0, r0, lsr r5
    9c44:	5f101000 	svcpl	0x00101000
    9c48:	31050078 	tstcc	r5, r8, ror r0
    9c4c:	00000182 	andeq	r0, r0, r2, lsl #3
    9c50:	040e0014 	streq	r0, [lr], #-20	; 0xffffffec
    9c54:	00000129 	andeq	r0, r0, r9, lsr #2
    9c58:	00011e09 	andeq	r1, r1, r9, lsl #28
    9c5c:	00019200 	andeq	r9, r1, r0, lsl #4
    9c60:	00cc0a00 	sbceq	r0, ip, r0, lsl #20
    9c64:	00000000 	andeq	r0, r0, r0
    9c68:	0001d50f 	andeq	sp, r1, pc, lsl #10
    9c6c:	35052400 	strcc	r2, [r5, #-1024]	; 0xfffffc00
    9c70:	0000020b 	andeq	r0, r0, fp, lsl #4
    9c74:	00008f0c 	andeq	r8, r0, ip, lsl #30
    9c78:	25370500 	ldrcs	r0, [r7, #-1280]!	; 0xfffffb00
    9c7c:	00000000 	andeq	r0, r0, r0
    9c80:	0004160c 	andeq	r1, r4, ip, lsl #12
    9c84:	25380500 	ldrcs	r0, [r8, #-1280]!	; 0xfffffb00
    9c88:	04000000 	streq	r0, [r0], #-0
    9c8c:	0000b20c 	andeq	fp, r0, ip, lsl #4
    9c90:	25390500 	ldrcs	r0, [r9, #-1280]!	; 0xfffffb00
    9c94:	08000000 	stmdaeq	r0, {}	; <UNPREDICTABLE>
    9c98:	0005040c 	andeq	r0, r5, ip, lsl #8
    9c9c:	253a0500 	ldrcs	r0, [sl, #-1280]!	; 0xfffffb00
    9ca0:	0c000000 	stceq	0, cr0, [r0], {-0}
    9ca4:	00027d0c 	andeq	r7, r2, ip, lsl #26
    9ca8:	253b0500 	ldrcs	r0, [fp, #-1280]!	; 0xfffffb00
    9cac:	10000000 	andne	r0, r0, r0
    9cb0:	00026c0c 	andeq	r6, r2, ip, lsl #24
    9cb4:	253c0500 	ldrcs	r0, [ip, #-1280]!	; 0xfffffb00
    9cb8:	14000000 	strne	r0, [r0], #-0
    9cbc:	0004810c 	andeq	r8, r4, ip, lsl #2
    9cc0:	253d0500 	ldrcs	r0, [sp, #-1280]!	; 0xfffffb00
    9cc4:	18000000 	stmdane	r0, {}	; <UNPREDICTABLE>
    9cc8:	00035d0c 	andeq	r5, r3, ip, lsl #26
    9ccc:	253e0500 	ldrcs	r0, [lr, #-1280]!	; 0xfffffb00
    9cd0:	1c000000 	stcne	0, cr0, [r0], {-0}
    9cd4:	0004cb0c 	andeq	ip, r4, ip, lsl #22
    9cd8:	253f0500 	ldrcs	r0, [pc, #-1280]!	; 97e0 <__FUNCTION__.4337+0x1d4>
    9cdc:	20000000 	andcs	r0, r0, r0
    9ce0:	00f21100 	rscseq	r1, r2, r0, lsl #2
    9ce4:	01080000 	mrseq	r0, (UNDEF: 8)
    9ce8:	024b4805 	subeq	r4, fp, #327680	; 0x50000
    9cec:	840c0000 	strhi	r0, [ip], #-0
    9cf0:	05000001 	streq	r0, [r0, #-1]
    9cf4:	00024b49 	andeq	r4, r2, r9, asr #22
    9cf8:	000c0000 	andeq	r0, ip, r0
    9cfc:	05000000 	streq	r0, [r0, #-0]
    9d00:	00024b4a 	andeq	r4, r2, sl, asr #22
    9d04:	32128000 	andscc	r8, r2, #0
    9d08:	05000004 	streq	r0, [r0, #-4]
    9d0c:	00011e4c 	andeq	r1, r1, ip, asr #28
    9d10:	12010000 	andne	r0, r1, #0
    9d14:	00000117 	andeq	r0, r0, r7, lsl r1
    9d18:	011e4f05 	tsteq	lr, r5, lsl #30
    9d1c:	01040000 	mrseq	r0, (UNDEF: 4)
    9d20:	010a0900 	tsteq	sl, r0, lsl #18
    9d24:	025b0000 	subseq	r0, fp, #0
    9d28:	cc0a0000 	stcgt	0, cr0, [sl], {-0}
    9d2c:	1f000000 	svcne	0x00000000
    9d30:	02861100 	addeq	r1, r6, #0, 2
    9d34:	01900000 	orrseq	r0, r0, r0
    9d38:	02995b05 	addseq	r5, r9, #5120	; 0x1400
    9d3c:	9c0c0000 	stcls	0, cr0, [ip], {-0}
    9d40:	05000003 	streq	r0, [r0, #-3]
    9d44:	0002995c 	andeq	r9, r2, ip, asr r9
    9d48:	b40c0000 	strlt	r0, [ip], #-0
    9d4c:	05000003 	streq	r0, [r0, #-3]
    9d50:	0000255d 	andeq	r2, r0, sp, asr r5
    9d54:	8c0c0400 	cfstrshi	mvf0, [ip], {-0}
    9d58:	05000001 	streq	r0, [r0, #-1]
    9d5c:	00029f5f 	andeq	r9, r2, pc, asr pc
    9d60:	f20c0800 	vadd.i8	d0, d12, d0
    9d64:	05000000 	streq	r0, [r0, #-0]
    9d68:	00020b60 	andeq	r0, r2, r0, ror #22
    9d6c:	0e008800 	cdpeq	8, 0, cr8, cr0, cr0, {0}
    9d70:	00025b04 	andeq	r5, r2, r4, lsl #22
    9d74:	02af0900 	adceq	r0, pc, #0, 18
    9d78:	02af0000 	adceq	r0, pc, #0
    9d7c:	cc0a0000 	stcgt	0, cr0, [sl], {-0}
    9d80:	1f000000 	svcne	0x00000000
    9d84:	b5040e00 	strlt	r0, [r4, #-3584]	; 0xfffff200
    9d88:	13000002 	movwne	r0, #2
    9d8c:	0003670f 	andeq	r6, r3, pc, lsl #14
    9d90:	73050800 	movwvc	r0, #22528	; 0x5800
    9d94:	000002db 	ldrdeq	r0, [r0], -fp
    9d98:	0000ac0c 	andeq	sl, r0, ip, lsl #24
    9d9c:	db740500 	blle	1d0b1a4 <__bss_end__+0x1d01244>
    9da0:	00000002 	andeq	r0, r0, r2
    9da4:	00000c0c 	andeq	r0, r0, ip, lsl #24
    9da8:	25750500 	ldrbcs	r0, [r5, #-1280]!	; 0xfffffb00
    9dac:	04000000 	streq	r0, [r0], #-0
    9db0:	54040e00 	strpl	r0, [r4], #-3584	; 0xfffff200
    9db4:	0f000000 	svceq	0x00000000
    9db8:	00000386 	andeq	r0, r0, r6, lsl #7
    9dbc:	0bb30568 	bleq	feccb364 <__bss_end__+0xfecc1404>
    9dc0:	10000004 	andne	r0, r0, r4
    9dc4:	0500705f 	streq	r7, [r0, #-95]	; 0xffffffa1
    9dc8:	0002dbb4 			; <UNDEFINED> instruction: 0x0002dbb4
    9dcc:	5f100000 	svcpl	0x00100000
    9dd0:	b5050072 	strlt	r0, [r5, #-114]	; 0xffffff8e
    9dd4:	00000025 	andeq	r0, r0, r5, lsr #32
    9dd8:	775f1004 	ldrbvc	r1, [pc, -r4]
    9ddc:	25b60500 	ldrcs	r0, [r6, #1280]!	; 0x500
    9de0:	08000000 	stmdaeq	r0, {}	; <UNPREDICTABLE>
    9de4:	0001100c 	andeq	r1, r1, ip
    9de8:	3fb70500 	svccc	0x00b70500
    9dec:	0c000000 	stceq	0, cr0, [r0], {-0}
    9df0:	0001f10c 	andeq	pc, r1, ip, lsl #2
    9df4:	3fb80500 	svccc	0x00b80500
    9df8:	0e000000 	cdpeq	0, 0, cr0, cr0, cr0, {0}
    9dfc:	66625f10 	uqadd16vs	r5, r2, r0
    9e00:	b6b90500 	ldrtlt	r0, [r9], r0, lsl #10
    9e04:	10000002 	andne	r0, r0, r2
    9e08:	00006c0c 	andeq	r6, r0, ip, lsl #24
    9e0c:	25ba0500 	ldrcs	r0, [sl, #1280]!	; 0x500
    9e10:	18000000 	stmdane	r0, {}	; <UNPREDICTABLE>
    9e14:	0001000c 	andeq	r0, r1, ip
    9e18:	0ac10500 	beq	ff04b220 <__bss_end__+0xff0412c0>
    9e1c:	1c000001 	stcne	0, cr0, [r0], {1}
    9e20:	000b240c 	andeq	r2, fp, ip, lsl #8
    9e24:	66c30500 	strbvs	r0, [r3], r0, lsl #10
    9e28:	20000005 	andcs	r0, r0, r5
    9e2c:	0006190c 	andeq	r1, r6, ip, lsl #18
    9e30:	90c50500 	sbcls	r0, r5, r0, lsl #10
    9e34:	24000005 	strcs	r0, [r0], #-5
    9e38:	0004080c 	andeq	r0, r4, ip, lsl #16
    9e3c:	b4c80500 	strblt	r0, [r8], #1280	; 0x500
    9e40:	28000005 	stmdacs	r0, {r0, r2}
    9e44:	0004e50c 	andeq	lr, r4, ip, lsl #10
    9e48:	cec90500 	cdpgt	5, 12, cr0, cr9, cr0, {0}
    9e4c:	2c000005 	stccs	0, cr0, [r0], {5}
    9e50:	62755f10 	rsbsvs	r5, r5, #16, 30	; 0x40
    9e54:	b6cc0500 	strblt	r0, [ip], r0, lsl #10
    9e58:	30000002 	andcc	r0, r0, r2
    9e5c:	70755f10 	rsbsvc	r5, r5, r0, lsl pc
    9e60:	dbcd0500 	blle	ff34b268 <__bss_end__+0xff341308>
    9e64:	38000002 	stmdacc	r0, {r1}
    9e68:	72755f10 	rsbsvc	r5, r5, #16, 30	; 0x40
    9e6c:	25ce0500 	strbcs	r0, [lr, #1280]	; 0x500
    9e70:	3c000000 	stccc	0, cr0, [r0], {-0}
    9e74:	0000a60c 	andeq	sl, r0, ip, lsl #12
    9e78:	d4d10500 	ldrble	r0, [r1], #1280	; 0x500
    9e7c:	40000005 	andmi	r0, r0, r5
    9e80:	0004bd0c 	andeq	fp, r4, ip, lsl #26
    9e84:	e4d20500 	ldrb	r0, [r2], #1280	; 0x500
    9e88:	43000005 	movwmi	r0, #5
    9e8c:	626c5f10 	rsbvs	r5, ip, #16, 30	; 0x40
    9e90:	b6d50500 	ldrblt	r0, [r5], r0, lsl #10
    9e94:	44000002 	strmi	r0, [r0], #-2
    9e98:	0001350c 	andeq	r3, r1, ip, lsl #10
    9e9c:	25d80500 	ldrbcs	r0, [r8, #1280]	; 0x500
    9ea0:	4c000000 	stcmi	0, cr0, [r0], {-0}
    9ea4:	0001460c 	andeq	r4, r1, ip, lsl #12
    9ea8:	7bd90500 	blvc	ff64b2b0 <__bss_end__+0xff641350>
    9eac:	50000000 	andpl	r0, r0, r0
    9eb0:	000ac50c 	andeq	ip, sl, ip, lsl #10
    9eb4:	29dc0500 	ldmibcs	ip, {r8, sl}^
    9eb8:	54000004 	strpl	r0, [r0], #-4
    9ebc:	0003fa0c 	andeq	pc, r3, ip, lsl #20
    9ec0:	ffe00500 			; <UNDEFINED> instruction: 0xffe00500
    9ec4:	58000000 	stmdapl	r0, {}	; <UNPREDICTABLE>
    9ec8:	00038e0c 	andeq	r8, r3, ip, lsl #28
    9ecc:	f4e20500 	vld2.16	{d16[0],d17[0]}, [r2], r0
    9ed0:	5c000000 	stcpl	0, cr0, [r0], {-0}
    9ed4:	0002640c 	andeq	r6, r2, ip, lsl #8
    9ed8:	25e30500 	strbcs	r0, [r3, #1280]!	; 0x500
    9edc:	64000000 	strvs	r0, [r0], #-0
    9ee0:	00251400 	eoreq	r1, r5, r0, lsl #8
    9ee4:	04290000 	strteq	r0, [r9], #-0
    9ee8:	29150000 	ldmdbcs	r5, {}	; <UNPREDICTABLE>
    9eec:	15000004 	strne	r0, [r0, #-4]
    9ef0:	0000010a 	andeq	r0, r0, sl, lsl #2
    9ef4:	00010c15 	andeq	r0, r1, r5, lsl ip
    9ef8:	00251500 	eoreq	r1, r5, r0, lsl #10
    9efc:	0e000000 	cdpeq	0, 0, cr0, cr0, cr0, {0}
    9f00:	00043404 	andeq	r3, r4, r4, lsl #8
    9f04:	04290400 	strteq	r0, [r9], #-1024	; 0xfffffc00
    9f08:	e4160000 	ldr	r0, [r6], #-0
    9f0c:	28000003 	stmdacs	r0, {r0, r1}
    9f10:	02380504 	eorseq	r0, r8, #4, 10	; 0x1000000
    9f14:	00000566 	andeq	r0, r0, r6, ror #10
    9f18:	00034c17 	andeq	r4, r3, r7, lsl ip
    9f1c:	023a0500 	eorseq	r0, sl, #0, 10
    9f20:	00000025 	andeq	r0, r0, r5, lsr #32
    9f24:	04911700 	ldreq	r1, [r1], #1792	; 0x700
    9f28:	3f050000 	svccc	0x00050000
    9f2c:	00063b02 	andeq	r3, r6, r2, lsl #22
    9f30:	e1170400 	tst	r7, r0, lsl #8
    9f34:	05000001 	streq	r0, [r0, #-1]
    9f38:	063b023f 			; <UNDEFINED> instruction: 0x063b023f
    9f3c:	17080000 	strne	r0, [r8, -r0]
    9f40:	000001a0 	andeq	r0, r0, r0, lsr #3
    9f44:	3b023f05 	blcc	99b60 <__bss_end__+0x8fc00>
    9f48:	0c000006 	stceq	0, cr0, [r0], {6}
    9f4c:	0003af17 	andeq	sl, r3, r7, lsl pc
    9f50:	02410500 	subeq	r0, r1, #0, 10
    9f54:	00000025 	andeq	r0, r0, r5, lsr #32
    9f58:	001a1710 	andseq	r1, sl, r0, lsl r7
    9f5c:	42050000 	andmi	r0, r5, #0
    9f60:	00081d02 	andeq	r1, r8, r2, lsl #26
    9f64:	7e171400 	cfmulsvc	mvf1, mvf7, mvf0
    9f68:	0500000a 	streq	r0, [r0, #-10]
    9f6c:	00250244 	eoreq	r0, r5, r4, asr #4
    9f70:	17300000 	ldrne	r0, [r0, -r0]!
    9f74:	000009f9 	strdeq	r0, [r0], -r9
    9f78:	8a024505 	bhi	9b394 <__bss_end__+0x91434>
    9f7c:	34000005 	strcc	r0, [r0], #-5
    9f80:	00028e17 	andeq	r8, r2, r7, lsl lr
    9f84:	02470500 	subeq	r0, r7, #0, 10
    9f88:	00000025 	andeq	r0, r0, r5, lsr #32
    9f8c:	03b91738 			; <UNDEFINED> instruction: 0x03b91738
    9f90:	49050000 	stmdbmi	r5, {}	; <UNPREDICTABLE>
    9f94:	00083802 	andeq	r3, r8, r2, lsl #16
    9f98:	40173c00 	andsmi	r3, r7, r0, lsl #24
    9f9c:	05000002 	streq	r0, [r0, #-2]
    9fa0:	017c024c 	cmneq	ip, ip, asr #4
    9fa4:	17400000 	strbne	r0, [r0, -r0]
    9fa8:	000001bf 			; <UNDEFINED> instruction: 0x000001bf
    9fac:	25024d05 	strcs	r4, [r2, #-3333]	; 0xfffff2fb
    9fb0:	44000000 	strmi	r0, [r0], #-0
    9fb4:	0004ff17 	andeq	pc, r4, r7, lsl pc	; <UNPREDICTABLE>
    9fb8:	024e0500 	subeq	r0, lr, #0, 10
    9fbc:	0000017c 	andeq	r0, r0, ip, ror r1
    9fc0:	02a01748 	adceq	r1, r0, #72, 14	; 0x1200000
    9fc4:	4f050000 	svcmi	0x00050000
    9fc8:	00083e02 	andeq	r3, r8, r2, lsl #28
    9fcc:	e9174c00 	ldmdb	r7, {sl, fp, lr}
    9fd0:	05000001 	streq	r0, [r0, #-1]
    9fd4:	00250252 	eoreq	r0, r5, r2, asr r2
    9fd8:	17500000 	ldrbne	r0, [r0, -r0]
    9fdc:	0000013e 	andeq	r0, r0, lr, lsr r1
    9fe0:	0c025305 	stceq	3, cr5, [r2], {5}
    9fe4:	54000001 	strpl	r0, [r0], #-1
    9fe8:	0002c617 	andeq	ip, r2, r7, lsl r6
    9fec:	02760500 	rsbseq	r0, r6, #0, 10
    9ff0:	000007fb 	strdeq	r0, [r0], -fp
    9ff4:	02861858 	addeq	r1, r6, #88, 16	; 0x580000
    9ff8:	7a050000 	bvc	14a000 <__bss_end__+0x1400a0>
    9ffc:	00029902 	andeq	r9, r2, r2, lsl #18
    a000:	18014800 	stmdane	r1, {fp, lr}
    a004:	0000021e 	andeq	r0, r0, lr, lsl r2
    a008:	5b027b05 	blpl	a8c24 <__bss_end__+0x9ecc4>
    a00c:	4c000002 	stcmi	0, cr0, [r0], {2}
    a010:	04ab1801 	strteq	r1, [fp], #2049	; 0x801
    a014:	7f050000 	svcvc	0x00050000
    a018:	00084f02 	andeq	r4, r8, r2, lsl #30
    a01c:	1802dc00 	stmdane	r2, {sl, fp, ip, lr, pc}
    a020:	00000108 	andeq	r0, r0, r8, lsl #2
    a024:	00028405 	andeq	r8, r2, r5, lsl #8
    a028:	e0000006 	and	r0, r0, r6
    a02c:	00ed1802 	rsceq	r1, sp, r2, lsl #16
    a030:	85050000 	strhi	r0, [r5, #-0]
    a034:	00085b02 	andeq	r5, r8, r2, lsl #22
    a038:	0002ec00 	andeq	lr, r2, r0, lsl #24
    a03c:	040b040e 	streq	r0, [fp], #-1038	; 0xfffffbf2
    a040:	25140000 	ldrcs	r0, [r4, #-0]
    a044:	8a000000 	bhi	a04c <__bss_end__+0xec>
    a048:	15000005 	strne	r0, [r0, #-5]
    a04c:	00000429 	andeq	r0, r0, r9, lsr #8
    a050:	00010a15 	andeq	r0, r1, r5, lsl sl
    a054:	058a1500 	streq	r1, [sl, #1280]	; 0x500
    a058:	25150000 	ldrcs	r0, [r5, #-0]
    a05c:	00000000 	andeq	r0, r0, r0
    a060:	0119040e 	tsteq	r9, lr, lsl #8
    a064:	040e0000 	streq	r0, [lr], #-0
    a068:	0000056c 	andeq	r0, r0, ip, ror #10
    a06c:	00008614 	andeq	r8, r0, r4, lsl r6
    a070:	0005b400 	andeq	fp, r5, r0, lsl #8
    a074:	04291500 	strteq	r1, [r9], #-1280	; 0xfffffb00
    a078:	0a150000 	beq	54a080 <__bss_end__+0x540120>
    a07c:	15000001 	strne	r0, [r0, #-1]
    a080:	00000086 	andeq	r0, r0, r6, lsl #1
    a084:	00002515 	andeq	r2, r0, r5, lsl r5
    a088:	040e0000 	streq	r0, [lr], #-0
    a08c:	00000596 	muleq	r0, r6, r5
    a090:	00002514 	andeq	r2, r0, r4, lsl r5
    a094:	0005ce00 	andeq	ip, r5, r0, lsl #28
    a098:	04291500 	strteq	r1, [r9], #-1280	; 0xfffffb00
    a09c:	0a150000 	beq	54a0a4 <__bss_end__+0x540144>
    a0a0:	00000001 	andeq	r0, r0, r1
    a0a4:	05ba040e 	ldreq	r0, [sl, #1038]!	; 0x40e
    a0a8:	54090000 	strpl	r0, [r9], #-0
    a0ac:	e4000000 	str	r0, [r0], #-0
    a0b0:	0a000005 	beq	a0cc <__bss_end__+0x16c>
    a0b4:	000000cc 	andeq	r0, r0, ip, asr #1
    a0b8:	54090002 	strpl	r0, [r9], #-2
    a0bc:	f4000000 	vst4.8	{d0-d3}, [r0], r0
    a0c0:	0a000005 	beq	a0dc <__bss_end__+0x17c>
    a0c4:	000000cc 	andeq	r0, r0, ip, asr #1
    a0c8:	74060000 	strvc	r0, [r6], #-0
    a0cc:	05000003 	streq	r0, [r0, #-3]
    a0d0:	02e1011d 	rsceq	r0, r1, #1073741831	; 0x40000007
    a0d4:	8b190000 	blhi	64a0dc <__bss_end__+0x64017c>
    a0d8:	0c000004 	stceq	0, cr0, [r0], {4}
    a0dc:	35012105 	strcc	r2, [r1, #-261]	; 0xfffffefb
    a0e0:	17000006 	strne	r0, [r0, -r6]
    a0e4:	0000039c 	muleq	r0, ip, r3
    a0e8:	35012305 	strcc	r2, [r1, #-773]	; 0xfffffcfb
    a0ec:	00000006 	andeq	r0, r0, r6
    a0f0:	00020417 	andeq	r0, r2, r7, lsl r4
    a0f4:	01240500 			; <UNDEFINED> instruction: 0x01240500
    a0f8:	00000025 	andeq	r0, r0, r5, lsr #32
    a0fc:	036e1704 	cmneq	lr, #4, 14	; 0x100000
    a100:	25050000 	strcs	r0, [r5, #-0]
    a104:	00063b01 	andeq	r3, r6, r1, lsl #22
    a108:	0e000800 	cdpeq	8, 0, cr0, cr0, cr0, {0}
    a10c:	00060004 	andeq	r0, r6, r4
    a110:	f4040e00 			; <UNDEFINED> instruction: 0xf4040e00
    a114:	19000005 	stmdbne	r0, {r0, r2}
    a118:	00000012 	andeq	r0, r0, r2, lsl r0
    a11c:	013d050e 	teqeq	sp, lr, lsl #10
    a120:	00000676 	andeq	r0, r0, r6, ror r6
    a124:	0003eb17 	andeq	lr, r3, r7, lsl fp
    a128:	013e0500 	teqeq	lr, r0, lsl #10
    a12c:	00000676 	andeq	r0, r0, r6, ror r6
    a130:	041f1700 	ldreq	r1, [pc], #-1792	; a138 <__bss_end__+0x1d8>
    a134:	3f050000 	svccc	0x00050000
    a138:	00067601 	andeq	r7, r6, r1, lsl #12
    a13c:	3b170600 	blcc	5cb944 <__bss_end__+0x5c19e4>
    a140:	05000004 	streq	r0, [r0, #-4]
    a144:	005b0140 	subseq	r0, fp, r0, asr #2
    a148:	000c0000 	andeq	r0, ip, r0
    a14c:	00005b09 	andeq	r5, r0, r9, lsl #22
    a150:	00068600 	andeq	r8, r6, r0, lsl #12
    a154:	00cc0a00 	sbceq	r0, ip, r0, lsl #20
    a158:	00020000 	andeq	r0, r2, r0
    a15c:	5705d01a 	smladpl	r5, sl, r0, sp
    a160:	00078702 	andeq	r8, r7, r2, lsl #14
    a164:	046f1700 	strbteq	r1, [pc], #-1792	; a16c <__bss_end__+0x20c>
    a168:	59050000 	stmdbpl	r5, {}	; <UNPREDICTABLE>
    a16c:	00002c02 	andeq	r2, r0, r2, lsl #24
    a170:	25170000 	ldrcs	r0, [r7, #-0]
    a174:	05000004 	streq	r0, [r0, #-4]
    a178:	010c025a 	tsteq	ip, sl, asr r2
    a17c:	17040000 	strne	r0, [r4, -r0]
    a180:	00000233 	andeq	r0, r0, r3, lsr r2
    a184:	87025b05 	strhi	r5, [r2, -r5, lsl #22]
    a188:	08000007 	stmdaeq	r0, {r0, r1, r2}
    a18c:	0004d617 	andeq	sp, r4, r7, lsl r6
    a190:	025c0500 	subseq	r0, ip, #0, 10
    a194:	00000192 	muleq	r0, r2, r1
    a198:	01b01724 	lsrseq	r1, r4, #14
    a19c:	5d050000 	stcpl	0, cr0, [r5, #-0]
    a1a0:	00002502 	andeq	r2, r0, r2, lsl #10
    a1a4:	97174800 	ldrls	r4, [r7, -r0, lsl #16]
    a1a8:	05000003 	streq	r0, [r0, #-3]
    a1ac:	0069025e 	rsbeq	r0, r9, lr, asr r2
    a1b0:	17500000 	ldrbne	r0, [r0, -r0]
    a1b4:	000004ec 	andeq	r0, r0, ip, ror #9
    a1b8:	41025f05 	tstmi	r2, r5, lsl #30
    a1bc:	58000006 	stmdapl	r0, {r1, r2}
    a1c0:	0003a217 	andeq	sl, r3, r7, lsl r2
    a1c4:	02600500 	rsbeq	r0, r0, #0, 10
    a1c8:	000000f4 	strdeq	r0, [r0], -r4
    a1cc:	04f11768 	ldrbteq	r1, [r1], #1896	; 0x768
    a1d0:	61050000 	mrsvs	r0, (UNDEF: 5)
    a1d4:	0000f402 	andeq	pc, r0, r2, lsl #8
    a1d8:	aa177000 	bge	5e61e0 <__bss_end__+0x5dc280>
    a1dc:	05000002 	streq	r0, [r0, #-2]
    a1e0:	00f40262 	rscseq	r0, r4, r2, ror #4
    a1e4:	17780000 	ldrbne	r0, [r8, -r0]!
    a1e8:	000004a1 	andeq	r0, r0, r1, lsr #9
    a1ec:	97026305 	strls	r6, [r2, -r5, lsl #6]
    a1f0:	80000007 	andhi	r0, r0, r7
    a1f4:	00022717 	andeq	r2, r2, r7, lsl r7
    a1f8:	02640500 	rsbeq	r0, r4, #0, 10
    a1fc:	000007a7 	andeq	r0, r0, r7, lsr #15
    a200:	04481788 	strbeq	r1, [r8], #-1928	; 0xfffff878
    a204:	65050000 	strvs	r0, [r5, #-0]
    a208:	00002502 	andeq	r2, r0, r2, lsl #10
    a20c:	7617a000 	ldrvc	sl, [r7], -r0
    a210:	05000001 	streq	r0, [r0, #-1]
    a214:	00f40266 	rscseq	r0, r4, r6, ror #4
    a218:	17a40000 	strne	r0, [r4, r0]!
    a21c:	00000080 	andeq	r0, r0, r0, lsl #1
    a220:	f4026705 	vst1.8	{d6}, [r2], r5
    a224:	ac000000 	stcge	0, cr0, [r0], {-0}
    a228:	00016517 	andeq	r6, r1, r7, lsl r5
    a22c:	02680500 	rsbeq	r0, r8, #0, 10
    a230:	000000f4 	strdeq	r0, [r0], -r4
    a234:	002d17b4 	strhteq	r1, [sp], -r4
    a238:	69050000 	stmdbvs	r5, {}	; <UNPREDICTABLE>
    a23c:	0000f402 	andeq	pc, r0, r2, lsl #8
    a240:	3c17bc00 	ldccc	12, cr11, [r7], {-0}
    a244:	05000000 	streq	r0, [r0, #-0]
    a248:	00f4026a 	rscseq	r0, r4, sl, ror #4
    a24c:	17c40000 	strbne	r0, [r4, r0]
    a250:	0000034a 	andeq	r0, r0, sl, asr #6
    a254:	25026b05 	strcs	r6, [r2, #-2821]	; 0xfffff4fb
    a258:	cc000000 	stcgt	0, cr0, [r0], {-0}
    a25c:	01120900 	tsteq	r2, r0, lsl #18
    a260:	07970000 	ldreq	r0, [r7, r0]
    a264:	cc0a0000 	stcgt	0, cr0, [sl], {-0}
    a268:	19000000 	stmdbne	r0, {}	; <UNPREDICTABLE>
    a26c:	01120900 	tsteq	r2, r0, lsl #18
    a270:	07a70000 	streq	r0, [r7, r0]!
    a274:	cc0a0000 	stcgt	0, cr0, [sl], {-0}
    a278:	07000000 	streq	r0, [r0, -r0]
    a27c:	01120900 	tsteq	r2, r0, lsl #18
    a280:	07b70000 	ldreq	r0, [r7, r0]!
    a284:	cc0a0000 	stcgt	0, cr0, [sl], {-0}
    a288:	17000000 	strne	r0, [r0, -r0]
    a28c:	05f01a00 	ldrbeq	r1, [r0, #2560]!	; 0xa00
    a290:	07db0270 			; <UNDEFINED> instruction: 0x07db0270
    a294:	76170000 	ldrvc	r0, [r7], -r0
    a298:	05000002 	streq	r0, [r0, #-2]
    a29c:	07db0273 			; <UNDEFINED> instruction: 0x07db0273
    a2a0:	17000000 	strne	r0, [r0, -r0]
    a2a4:	00000498 	muleq	r0, r8, r4
    a2a8:	eb027405 	bl	a72c4 <__bss_end__+0x9d364>
    a2ac:	78000007 	stmdavc	r0, {r0, r1, r2}
    a2b0:	02db0900 	sbcseq	r0, fp, #0, 18
    a2b4:	07eb0000 	strbeq	r0, [fp, r0]!
    a2b8:	cc0a0000 	stcgt	0, cr0, [sl], {-0}
    a2bc:	1d000000 	stcne	0, cr0, [r0, #-0]
    a2c0:	002c0900 	eoreq	r0, ip, r0, lsl #18
    a2c4:	07fb0000 	ldrbeq	r0, [fp, r0]!
    a2c8:	cc0a0000 	stcgt	0, cr0, [sl], {-0}
    a2cc:	1d000000 	stcne	0, cr0, [r0, #-0]
    a2d0:	05f01b00 	ldrbeq	r1, [r0, #2816]!	; 0xb00
    a2d4:	081d0255 	ldmdaeq	sp, {r0, r2, r4, r6, r9}
    a2d8:	e41c0000 	ldr	r0, [ip], #-0
    a2dc:	05000003 	streq	r0, [r0, #-3]
    a2e0:	0686026c 	streq	r0, [r6], ip, ror #4
    a2e4:	c31c0000 	tstgt	ip, #0
    a2e8:	05000004 	streq	r0, [r0, #-4]
    a2ec:	07b70275 			; <UNDEFINED> instruction: 0x07b70275
    a2f0:	09000000 	stmdbeq	r0, {}	; <UNPREDICTABLE>
    a2f4:	00000112 	andeq	r0, r0, r2, lsl r1
    a2f8:	0000082d 	andeq	r0, r0, sp, lsr #16
    a2fc:	0000cc0a 	andeq	ip, r0, sl, lsl #24
    a300:	1d001800 	stcne	8, cr1, [r0, #-0]
    a304:	00000838 	andeq	r0, r0, r8, lsr r8
    a308:	00042915 	andeq	r2, r4, r5, lsl r9
    a30c:	040e0000 	streq	r0, [lr], #-0
    a310:	0000082d 	andeq	r0, r0, sp, lsr #16
    a314:	017c040e 	cmneq	ip, lr, lsl #8
    a318:	4f1d0000 	svcmi	0x001d0000
    a31c:	15000008 	strne	r0, [r0, #-8]
    a320:	00000025 	andeq	r0, r0, r5, lsr #32
    a324:	55040e00 	strpl	r0, [r4, #-3584]	; 0xfffff200
    a328:	0e000008 	cdpeq	0, 0, cr0, cr0, cr8, {0}
    a32c:	00084404 	andeq	r4, r8, r4, lsl #8
    a330:	05f40900 	ldrbeq	r0, [r4, #2304]!	; 0x900
    a334:	086b0000 	stmdaeq	fp!, {}^	; <UNPREDICTABLE>
    a338:	cc0a0000 	stcgt	0, cr0, [sl], {-0}
    a33c:	02000000 	andeq	r0, r0, #0
    a340:	045c1e00 	ldrbeq	r1, [ip], #-3584	; 0xfffff200
    a344:	fd050000 	stc2	0, cr0, [r5, #-0]
    a348:	00042902 	andeq	r2, r4, r2, lsl #18
    a34c:	04551e00 	ldrbeq	r1, [r5], #-3584	; 0xfffff200
    a350:	fe050000 	cdp2	0, 0, cr0, cr5, cr0, {0}
    a354:	00042f02 	andeq	r2, r4, r2, lsl #30
    a358:	00251400 	eoreq	r1, r5, r0, lsl #8
    a35c:	08920000 	ldmeq	r2, {}	; <UNPREDICTABLE>
    a360:	25150000 	ldrcs	r0, [r5, #-0]
    a364:	00000000 	andeq	r0, r0, r0
    a368:	0001c91f 	andeq	ip, r1, pc, lsl r9
    a36c:	9d1d0600 	ldcls	6, cr0, [sp, #-0]
    a370:	0e000008 	cdpeq	0, 0, cr0, cr0, cr8, {0}
    a374:	00088304 	andeq	r8, r8, r4, lsl #6
    a378:	00251400 	eoreq	r1, r5, r0, lsl #8
    a37c:	08b20000 	ldmeq	r2!, {}	; <UNPREDICTABLE>
    a380:	8a150000 	bhi	54a388 <__bss_end__+0x540428>
    a384:	00000005 	andeq	r0, r0, r5
    a388:	0007681f 	andeq	r6, r7, pc, lsl r8
    a38c:	bd220600 	stclt	6, cr0, [r2, #-0]
    a390:	0e000008 	cdpeq	0, 0, cr0, cr0, cr8, {0}
    a394:	0008a304 	andeq	sl, r8, r4, lsl #6
    a398:	54012000 	strpl	r2, [r1], #-0
    a39c:	07000000 	streq	r0, [r0, -r0]
    a3a0:	0009000c 	andeq	r0, r9, ip
    a3a4:	09172100 	ldmdbeq	r7, {r8, sp}
    a3a8:	21000000 	mrscs	r0, (UNDEF: 0)
    a3ac:	00000a90 	muleq	r0, r0, sl
    a3b0:	0acb2101 	beq	ff2d27bc <__bss_end__+0xff2c885c>
    a3b4:	21040000 	mrscs	r0, (UNDEF: 4)
    a3b8:	0000092c 	andeq	r0, r0, ip, lsr #18
    a3bc:	09b82105 	ldmibeq	r8!, {r0, r2, r8, sp}
    a3c0:	21060000 	mrscs	r0, (UNDEF: 6)
    a3c4:	00000ada 	ldrdeq	r0, [r0], -sl
    a3c8:	0ae92107 	beq	ffa527ec <__bss_end__+0xffa4888c>
    a3cc:	21030000 	mrscs	r0, (UNDEF: 3)
    a3d0:	00000af8 	strdeq	r0, [r0], -r8
    a3d4:	74050002 	strvc	r0, [r5], #-2
    a3d8:	0700000b 	streq	r0, [r0, -fp]
    a3dc:	0008c315 	andeq	ip, r8, r5, lsl r3
    a3e0:	0b452200 	bleq	1152be8 <__bss_end__+0x1148c88>
    a3e4:	1d010000 	stcne	0, cr0, [r1, #-0]
    a3e8:	00000033 	andeq	r0, r0, r3, lsr r0
    a3ec:	2020001c 	eorcs	r0, r0, ip, lsl r0
    a3f0:	000b8022 	andeq	r8, fp, r2, lsr #32
    a3f4:	331e0100 	tstcc	lr, #0, 2
    a3f8:	28000000 	stmdacs	r0, {}	; <UNPREDICTABLE>
    a3fc:	22202000 	eorcs	r2, r0, #0
    a400:	00000b4f 	andeq	r0, r0, pc, asr #22
    a404:	00331f01 	eorseq	r1, r3, r1, lsl #30
    a408:	00340000 	eorseq	r0, r4, r0
    a40c:	20232020 	eorcs	r2, r3, r0, lsr #32
    a410:	0100000b 	tsteq	r0, fp
    a414:	00002556 	andeq	r2, r0, r6, asr r5
    a418:	0093e800 	addseq	lr, r3, r0, lsl #16
    a41c:	00003400 	andeq	r3, r0, r0, lsl #8
    a420:	989c0100 	ldmls	ip, {r8}
    a424:	24000009 	strcs	r0, [r0], #-9
    a428:	006e6970 	rsbeq	r6, lr, r0, ror r9
    a42c:	002c5601 	eoreq	r5, ip, r1, lsl #12
    a430:	13910000 	orrsne	r0, r1, #0
    a434:	14250000 	strtne	r0, [r5], #-0
    a438:	0100000b 	tsteq	r0, fp
    a43c:	00002c59 	andeq	r2, r0, r9, asr ip
    a440:	0013cb00 	andseq	ip, r3, r0, lsl #22
    a444:	666f2600 	strbtvs	r2, [pc], -r0, lsl #12
    a448:	5a010066 	bpl	4a5e8 <__bss_end__+0x40688>
    a44c:	0000002c 	andeq	r0, r0, ip, lsr #32
    a450:	00001409 	andeq	r1, r0, r9, lsl #8
    a454:	00940427 	addseq	r0, r4, r7, lsr #8
    a458:	000b5d00 	andeq	r5, fp, r0, lsl #26
    a45c:	50012800 	andpl	r2, r1, r0, lsl #16
    a460:	5001f30b 	andpl	pc, r1, fp, lsl #6
    a464:	b4232535 	strtlt	r2, [r3], #-1333	; 0xfffffacb
    a468:	02818080 	addeq	r8, r1, #128	; 0x80
    a46c:	3a290000 	bcc	a4a474 <__bss_end__+0xa40514>
    a470:	0100000b 	tsteq	r0, fp
    a474:	0093cc4f 	addseq	ip, r3, pc, asr #24
    a478:	00001c00 	andeq	r1, r0, r0, lsl #24
    a47c:	e89c0100 	ldm	ip, {r8}
    a480:	24000009 	strcs	r0, [r0], #-9
    a484:	006e6970 	rsbeq	r6, lr, r0, ror r9
    a488:	002c4f01 	eoreq	r4, ip, r1, lsl #30
    a48c:	141c0000 	ldrne	r0, [ip], #-0
    a490:	76240000 	strtvc	r0, [r4], -r0
    a494:	2c4f0100 	stfcse	f0, [pc], {-0}
    a498:	56000000 	strpl	r0, [r0], -r0
    a49c:	2a000014 	bcs	a4f4 <__bss_end__+0x594>
    a4a0:	000093dc 	ldrdeq	r9, [r0], -ip
    a4a4:	00000a23 	andeq	r0, r0, r3, lsr #20
    a4a8:	000009de 	ldrdeq	r0, [r0], -lr
    a4ac:	03500128 	cmpeq	r0, #40, 2
    a4b0:	005001f3 	ldrsheq	r0, [r0], #-19	; 0xffffffed
    a4b4:	0093e42b 	addseq	lr, r3, fp, lsr #8
    a4b8:	000a6400 	andeq	r6, sl, r0, lsl #8
    a4bc:	59290000 	stmdbpl	r9!, {}	; <UNPREDICTABLE>
    a4c0:	0100000b 	tsteq	r0, fp
    a4c4:	0093bc4a 	addseq	fp, r3, sl, asr #24
    a4c8:	00001000 	andeq	r1, r0, r0
    a4cc:	239c0100 	orrscs	r0, ip, #0, 2
    a4d0:	2400000a 	strcs	r0, [r0], #-10
    a4d4:	006e6970 	rsbeq	r6, lr, r0, ror r9
    a4d8:	002c4a01 	eoreq	r4, ip, r1, lsl #20
    a4dc:	14900000 	ldrne	r0, [r0], #0
    a4e0:	c8270000 	stmdagt	r7!, {}	; <UNPREDICTABLE>
    a4e4:	e0000093 	mul	r0, r3, r0
    a4e8:	2800000a 	stmdacs	r0, {r1, r3}
    a4ec:	f3035001 	vhadd.u8	d5, d3, d1
    a4f0:	01285001 			; <UNDEFINED> instruction: 0x01285001
    a4f4:	00300151 	eorseq	r0, r0, r1, asr r1
    a4f8:	0b072900 	bleq	1d4900 <__bss_end__+0x1ca9a0>
    a4fc:	43010000 	movwmi	r0, #4096	; 0x1000
    a500:	00009398 	muleq	r0, r8, r3
    a504:	00000024 	andeq	r0, r0, r4, lsr #32
    a508:	0a649c01 	beq	1931514 <__bss_end__+0x19275b4>
    a50c:	70240000 	eorvc	r0, r4, r0
    a510:	01006e69 	tsteq	r0, r9, ror #28
    a514:	00002c43 	andeq	r2, r0, r3, asr #24
    a518:	0014b100 	andseq	fp, r4, r0, lsl #2
    a51c:	93b42700 			; <UNDEFINED> instruction: 0x93b42700
    a520:	0b680000 	bleq	1a0a528 <__bss_end__+0x1a005c8>
    a524:	01280000 			; <UNDEFINED> instruction: 0x01280000
    a528:	280c0550 	stmdacs	ip, {r4, r6, r8, sl}
    a52c:	28202000 	stmdacs	r0!, {sp}
    a530:	31055101 	tstcc	r5, r1, lsl #2
    a534:	245001f3 	ldrbcs	r0, [r0], #-499	; 0xfffffe0d
    a538:	68290000 	stmdavs	r9!, {}	; <UNPREDICTABLE>
    a53c:	0100000b 	tsteq	r0, fp
    a540:	0093743c 	addseq	r7, r3, ip, lsr r4
    a544:	00002400 	andeq	r2, r0, r0, lsl #8
    a548:	a59c0100 	ldrge	r0, [ip, #256]	; 0x100
    a54c:	2400000a 	strcs	r0, [r0], #-10
    a550:	006e6970 	rsbeq	r6, lr, r0, ror r9
    a554:	002c3c01 	eoreq	r3, ip, r1, lsl #24
    a558:	14d20000 	ldrbne	r0, [r2], #0
    a55c:	90270000 	eorls	r0, r7, r0
    a560:	68000093 	stmdavs	r0, {r0, r1, r4, r7}
    a564:	2800000b 	stmdacs	r0, {r0, r1, r3}
    a568:	0c055001 	stceq	0, cr5, [r5], {1}
    a56c:	2020001c 	eorcs	r0, r0, ip, lsl r0
    a570:	05510128 	ldrbeq	r0, [r1, #-296]	; 0xfffffed8
    a574:	5001f331 	andpl	pc, r1, r1, lsr r3	; <UNPREDICTABLE>
    a578:	29000024 	stmdbcs	r0, {r2, r5}
    a57c:	00000b2a 	andeq	r0, r0, sl, lsr #22
    a580:	93643701 	cmnls	r4, #262144	; 0x40000
    a584:	00100000 	andseq	r0, r0, r0
    a588:	9c010000 	stcls	0, cr0, [r1], {-0}
    a58c:	00000ae0 	andeq	r0, r0, r0, ror #21
    a590:	6e697024 	cdpvs	0, 6, cr7, cr9, cr4, {1}
    a594:	2c370100 	ldfcss	f0, [r7], #-0
    a598:	f3000000 	vhadd.u8	d0, d0, d0
    a59c:	27000014 	smladcs	r0, r4, r0, r0
    a5a0:	00009370 	andeq	r9, r0, r0, ror r3
    a5a4:	00000ae0 	andeq	r0, r0, r0, ror #21
    a5a8:	03500128 	cmpeq	r0, #40, 2
    a5ac:	285001f3 	ldmdacs	r0, {r0, r1, r4, r5, r6, r7, r8}^
    a5b0:	31015101 	tstcc	r1, r1, lsl #2
    a5b4:	d0290000 	eorle	r0, r9, r0
    a5b8:	01000009 	tsteq	r0, r9
    a5bc:	0092fc28 	addseq	pc, r2, r8, lsr #24
    a5c0:	00006800 	andeq	r6, r0, r0, lsl #16
    a5c4:	5d9c0100 	ldfpls	f0, [ip]
    a5c8:	2400000b 	strcs	r0, [r0], #-11
    a5cc:	006e6970 	rsbeq	r6, lr, r0, ror r9
    a5d0:	002c2801 	eoreq	r2, ip, r1, lsl #16
    a5d4:	15140000 	ldrne	r0, [r4, #-0]
    a5d8:	b02c0000 	eorlt	r0, ip, r0
    a5dc:	01000004 	tsteq	r0, r4
    a5e0:	00090028 	andeq	r0, r9, r8, lsr #32
    a5e4:	00153500 	andseq	r3, r5, r0, lsl #10
    a5e8:	666f2d00 	strbtvs	r2, [pc], -r0, lsl #26
    a5ec:	2d010066 	stccs	0, cr0, [r1, #-408]	; 0xfffffe68
    a5f0:	0000002c 	andeq	r0, r0, ip, lsr #32
    a5f4:	672d5401 	strvs	r5, [sp, -r1, lsl #8]!
    a5f8:	2c2f0100 	stfcss	f0, [pc], #-0	; a600 <__bss_end__+0x6a0>
    a5fc:	01000000 	mrseq	r0, (UNDEF: 0)
    a600:	00762656 	rsbseq	r2, r6, r6, asr r6
    a604:	002c3101 	eoreq	r3, ip, r1, lsl #2
    a608:	15560000 	ldrbne	r0, [r6, #-0]
    a60c:	482a0000 	stmdami	sl!, {}	; <UNPREDICTABLE>
    a610:	5d000093 	stcpl	0, cr0, [r0, #-588]	; 0xfffffdb4
    a614:	4c00000b 	stcmi	0, cr0, [r0], {11}
    a618:	2800000b 	stmdacs	r0, {r0, r1, r3}
    a61c:	76025001 	strvc	r5, [r2], -r1
    a620:	5c270000 	stcpl	0, cr0, [r7], #-0
    a624:	68000093 	stmdavs	r0, {r0, r1, r4, r7}
    a628:	2800000b 	stmdacs	r0, {r0, r1, r3}
    a62c:	76025001 	strvc	r5, [r2], -r1
    a630:	2e000000 	cdpcs	0, 0, cr0, cr0, cr0, {0}
    a634:	000008eb 	andeq	r0, r0, fp, ror #17
    a638:	000008eb 	andeq	r0, r0, fp, ror #17
    a63c:	452ea706 	strmi	sl, [lr, #-1798]!	; 0xfffff8fa
    a640:	45000008 	strmi	r0, [r0, #-8]
    a644:	06000008 	streq	r0, [r0], -r8
    a648:	0c24009b 	stceq	0, cr0, [r4], #-620	; 0xfffffd94
    a64c:	00040000 	andeq	r0, r4, r0
    a650:	00002198 	muleq	r0, r8, r1
    a654:	0a1c0104 	beq	70aa6c <__bss_end__+0x700b0c>
    a658:	8a0c0000 	bhi	30a660 <__bss_end__+0x300700>
    a65c:	5300000b 	movwpl	r0, #11
    a660:	1c000009 	stcne	0, cr0, [r0], {9}
    a664:	94000094 	strls	r0, [r0], #-148	; 0xffffff6c
    a668:	f7000001 			; <UNDEFINED> instruction: 0xf7000001
    a66c:	0200001a 	andeq	r0, r0, #26
    a670:	6e690504 	cdpvs	5, 6, cr0, cr9, cr4, {0}
    a674:	04030074 	streq	r0, [r3], #-116	; 0xffffff8c
    a678:	00005707 	andeq	r5, r0, r7, lsl #14
    a67c:	06010300 	streq	r0, [r1], -r0, lsl #6
    a680:	000002ba 			; <UNDEFINED> instruction: 0x000002ba
    a684:	53050203 	movwpl	r0, #20995	; 0x5203
    a688:	03000003 	movweq	r0, #3
    a68c:	009d0504 	addseq	r0, sp, r4, lsl #10
    a690:	08030000 	stmdaeq	r3, {}	; <UNPREDICTABLE>
    a694:	00009805 	andeq	r9, r0, r5, lsl #16
    a698:	08010300 	stmdaeq	r1, {r8, r9}
    a69c:	000002b8 			; <UNDEFINED> instruction: 0x000002b8
    a6a0:	0b070203 	bleq	1caeb4 <__bss_end__+0x1c0f54>
    a6a4:	03000002 	movweq	r0, #2
    a6a8:	00520704 	subseq	r0, r2, r4, lsl #14
    a6ac:	08030000 	stmdaeq	r3, {}	; <UNPREDICTABLE>
    a6b0:	00004d07 	andeq	r4, r0, r7, lsl #26
    a6b4:	09e70400 	stmibeq	r7!, {sl}^
    a6b8:	07020000 	streq	r0, [r2, -r0]
    a6bc:	00000025 	andeq	r0, r0, r5, lsr #32
    a6c0:	00029904 	andeq	r9, r2, r4, lsl #18
    a6c4:	412c0300 			; <UNDEFINED> instruction: 0x412c0300
    a6c8:	04000000 	streq	r0, [r0], #-0
    a6cc:	0000040e 	andeq	r0, r0, lr, lsl #8
    a6d0:	00417203 	subeq	r7, r1, r3, lsl #4
    a6d4:	56050000 	strpl	r0, [r5], -r0
    a6d8:	04000002 	streq	r0, [r0], #-2
    a6dc:	002c0165 	eoreq	r0, ip, r5, ror #2
    a6e0:	04060000 	streq	r0, [r6], #-0
    a6e4:	00b7a603 	adcseq	sl, r7, r3, lsl #12
    a6e8:	48070000 	stmdami	r7, {}	; <UNPREDICTABLE>
    a6ec:	03000002 	movweq	r0, #2
    a6f0:	00008ca8 	andeq	r8, r0, r8, lsr #25
    a6f4:	01da0700 	bicseq	r0, sl, r0, lsl #14
    a6f8:	a9030000 	stmdbge	r3, {}	; <UNPREDICTABLE>
    a6fc:	000000b7 	strheq	r0, [r0], -r7
    a700:	004f0800 	subeq	r0, pc, r0, lsl #16
    a704:	00c70000 	sbceq	r0, r7, r0
    a708:	c7090000 	strgt	r0, [r9, -r0]
    a70c:	03000000 	movweq	r0, #0
    a710:	07040300 	streq	r0, [r4, -r0, lsl #6]
    a714:	000009c7 	andeq	r0, r0, r7, asr #19
    a718:	a303080a 	movwge	r0, #14346	; 0x380a
    a71c:	000000ef 	andeq	r0, r0, pc, ror #1
    a720:	0003f10b 	andeq	pc, r3, fp, lsl #2
    a724:	25a50300 	strcs	r0, [r5, #768]!	; 0x300
    a728:	00000000 	andeq	r0, r0, r0
    a72c:	0004000b 	andeq	r0, r4, fp
    a730:	98aa0300 	stmials	sl!, {r8, r9}
    a734:	04000000 	streq	r0, [r0], #-0
    a738:	037b0400 	cmneq	fp, #0, 8
    a73c:	ab030000 	blge	ca744 <__bss_end__+0xc07e4>
    a740:	000000ce 	andeq	r0, r0, lr, asr #1
    a744:	00019704 	andeq	r9, r1, r4, lsl #14
    a748:	6baf0300 	blvs	febcb350 <__bss_end__+0xfebc13f0>
    a74c:	0c000000 	stceq	0, cr0, [r0], {-0}
    a750:	0d040d04 	stceq	13, cr0, [r4, #-16]
    a754:	03000001 	movweq	r0, #1
    a758:	02c10801 	sbceq	r0, r1, #65536	; 0x10000
    a75c:	0d0e0000 	stceq	0, cr0, [lr, #-0]
    a760:	04000001 	streq	r0, [r0], #-1
    a764:	00000440 	andeq	r0, r0, r0, asr #8
    a768:	005d1605 	subseq	r1, sp, r5, lsl #12
    a76c:	a80f0000 	stmdage	pc, {}	; <UNPREDICTABLE>
    a770:	18000001 	stmdane	r0, {r0}
    a774:	01772d05 	cmneq	r7, r5, lsl #26
    a778:	9c0b0000 	stcls	0, cr0, [fp], {-0}
    a77c:	05000003 	streq	r0, [r0, #-3]
    a780:	0001772f 	andeq	r7, r1, pc, lsr #14
    a784:	5f100000 	svcpl	0x00100000
    a788:	3005006b 	andcc	r0, r5, fp, rrx
    a78c:	00000025 	andeq	r0, r0, r5, lsr #32
    a790:	03dc0b04 	bicseq	r0, ip, #4, 22	; 0x1000
    a794:	30050000 	andcc	r0, r5, r0
    a798:	00000025 	andeq	r0, r0, r5, lsr #32
    a79c:	01910b08 	orrseq	r0, r1, r8, lsl #22
    a7a0:	30050000 	andcc	r0, r5, r0
    a7a4:	00000025 	andeq	r0, r0, r5, lsr #32
    a7a8:	047c0b0c 	ldrbteq	r0, [ip], #-2828	; 0xfffff4f4
    a7ac:	30050000 	andcc	r0, r5, r0
    a7b0:	00000025 	andeq	r0, r0, r5, lsr #32
    a7b4:	785f1010 	ldmdavc	pc, {r4, ip}^	; <UNPREDICTABLE>
    a7b8:	7d310500 	cfldr32vc	mvfx0, [r1, #-0]
    a7bc:	14000001 	strne	r0, [r0], #-1
    a7c0:	24040d00 	strcs	r0, [r4], #-3328	; 0xfffff300
    a7c4:	08000001 	stmdaeq	r0, {r0}
    a7c8:	00000119 	andeq	r0, r0, r9, lsl r1
    a7cc:	0000018d 	andeq	r0, r0, sp, lsl #3
    a7d0:	0000c709 	andeq	ip, r0, r9, lsl #14
    a7d4:	0f000000 	svceq	0x00000000
    a7d8:	000001d5 	ldrdeq	r0, [r0], -r5
    a7dc:	06350524 	ldrteq	r0, [r5], -r4, lsr #10
    a7e0:	0b000002 	bleq	a7f0 <__bss_end__+0x890>
    a7e4:	0000008f 	andeq	r0, r0, pc, lsl #1
    a7e8:	00253705 	eoreq	r3, r5, r5, lsl #14
    a7ec:	0b000000 	bleq	a7f4 <__bss_end__+0x894>
    a7f0:	00000416 	andeq	r0, r0, r6, lsl r4
    a7f4:	00253805 	eoreq	r3, r5, r5, lsl #16
    a7f8:	0b040000 	bleq	10a800 <__bss_end__+0x1008a0>
    a7fc:	000000b2 	strheq	r0, [r0], -r2
    a800:	00253905 	eoreq	r3, r5, r5, lsl #18
    a804:	0b080000 	bleq	20a80c <__bss_end__+0x2008ac>
    a808:	00000504 	andeq	r0, r0, r4, lsl #10
    a80c:	00253a05 	eoreq	r3, r5, r5, lsl #20
    a810:	0b0c0000 	bleq	30a818 <__bss_end__+0x3008b8>
    a814:	0000027d 	andeq	r0, r0, sp, ror r2
    a818:	00253b05 	eoreq	r3, r5, r5, lsl #22
    a81c:	0b100000 	bleq	40a824 <__bss_end__+0x4008c4>
    a820:	0000026c 	andeq	r0, r0, ip, ror #4
    a824:	00253c05 	eoreq	r3, r5, r5, lsl #24
    a828:	0b140000 	bleq	50a830 <__bss_end__+0x5008d0>
    a82c:	00000481 	andeq	r0, r0, r1, lsl #9
    a830:	00253d05 	eoreq	r3, r5, r5, lsl #26
    a834:	0b180000 	bleq	60a83c <__bss_end__+0x6008dc>
    a838:	0000035d 	andeq	r0, r0, sp, asr r3
    a83c:	00253e05 	eoreq	r3, r5, r5, lsl #28
    a840:	0b1c0000 	bleq	70a848 <__bss_end__+0x7008e8>
    a844:	000004cb 	andeq	r0, r0, fp, asr #9
    a848:	00253f05 	eoreq	r3, r5, r5, lsl #30
    a84c:	00200000 	eoreq	r0, r0, r0
    a850:	0000f211 	andeq	pc, r0, r1, lsl r2	; <UNPREDICTABLE>
    a854:	05010800 	streq	r0, [r1, #-2048]	; 0xfffff800
    a858:	00024648 	andeq	r4, r2, r8, asr #12
    a85c:	01840b00 	orreq	r0, r4, r0, lsl #22
    a860:	49050000 	stmdbmi	r5, {}	; <UNPREDICTABLE>
    a864:	00000246 	andeq	r0, r0, r6, asr #4
    a868:	00000b00 	andeq	r0, r0, r0, lsl #22
    a86c:	4a050000 	bmi	14a874 <__bss_end__+0x140914>
    a870:	00000246 	andeq	r0, r0, r6, asr #4
    a874:	04321280 	ldrteq	r1, [r2], #-640	; 0xfffffd80
    a878:	4c050000 	stcmi	0, cr0, [r5], {-0}
    a87c:	00000119 	andeq	r0, r0, r9, lsl r1
    a880:	17120100 	ldrne	r0, [r2, -r0, lsl #2]
    a884:	05000001 	streq	r0, [r0, #-1]
    a888:	0001194f 	andeq	r1, r1, pc, asr #18
    a88c:	00010400 	andeq	r0, r1, r0, lsl #8
    a890:	00010508 	andeq	r0, r1, r8, lsl #10
    a894:	00025600 	andeq	r5, r2, r0, lsl #12
    a898:	00c70900 	sbceq	r0, r7, r0, lsl #18
    a89c:	001f0000 	andseq	r0, pc, r0
    a8a0:	00028611 	andeq	r8, r2, r1, lsl r6
    a8a4:	05019000 	streq	r9, [r1, #-0]
    a8a8:	0002945b 	andeq	r9, r2, fp, asr r4
    a8ac:	039c0b00 	orrseq	r0, ip, #0, 22
    a8b0:	5c050000 	stcpl	0, cr0, [r5], {-0}
    a8b4:	00000294 	muleq	r0, r4, r2
    a8b8:	03b40b00 			; <UNDEFINED> instruction: 0x03b40b00
    a8bc:	5d050000 	stcpl	0, cr0, [r5, #-0]
    a8c0:	00000025 	andeq	r0, r0, r5, lsr #32
    a8c4:	018c0b04 	orreq	r0, ip, r4, lsl #22
    a8c8:	5f050000 	svcpl	0x00050000
    a8cc:	0000029a 	muleq	r0, sl, r2
    a8d0:	00f20b08 	rscseq	r0, r2, r8, lsl #22
    a8d4:	60050000 	andvs	r0, r5, r0
    a8d8:	00000206 	andeq	r0, r0, r6, lsl #4
    a8dc:	040d0088 	streq	r0, [sp], #-136	; 0xffffff78
    a8e0:	00000256 	andeq	r0, r0, r6, asr r2
    a8e4:	0002aa08 	andeq	sl, r2, r8, lsl #20
    a8e8:	0002aa00 	andeq	sl, r2, r0, lsl #20
    a8ec:	00c70900 	sbceq	r0, r7, r0, lsl #18
    a8f0:	001f0000 	andseq	r0, pc, r0
    a8f4:	02b0040d 	adcseq	r0, r0, #218103808	; 0xd000000
    a8f8:	0f130000 	svceq	0x00130000
    a8fc:	00000367 	andeq	r0, r0, r7, ror #6
    a900:	d6730508 	ldrbtle	r0, [r3], -r8, lsl #10
    a904:	0b000002 	bleq	a914 <__bss_end__+0x9b4>
    a908:	000000ac 	andeq	r0, r0, ip, lsr #1
    a90c:	02d67405 	sbcseq	r7, r6, #83886080	; 0x5000000
    a910:	0b000000 	bleq	a918 <__bss_end__+0x9b8>
    a914:	0000000c 	andeq	r0, r0, ip
    a918:	00257505 	eoreq	r7, r5, r5, lsl #10
    a91c:	00040000 	andeq	r0, r4, r0
    a920:	004f040d 	subeq	r0, pc, sp, lsl #8
    a924:	860f0000 	strhi	r0, [pc], -r0
    a928:	68000003 	stmdavs	r0, {r0, r1}
    a92c:	0406b305 	streq	fp, [r6], #-773	; 0xfffffcfb
    a930:	5f100000 	svcpl	0x00100000
    a934:	b4050070 	strlt	r0, [r5], #-112	; 0xffffff90
    a938:	000002d6 	ldrdeq	r0, [r0], -r6
    a93c:	725f1000 	subsvc	r1, pc, #0
    a940:	25b50500 	ldrcs	r0, [r5, #1280]!	; 0x500
    a944:	04000000 	streq	r0, [r0], #-0
    a948:	00775f10 	rsbseq	r5, r7, r0, lsl pc
    a94c:	0025b605 	eoreq	fp, r5, r5, lsl #12
    a950:	0b080000 	bleq	20a958 <__bss_end__+0x2009f8>
    a954:	00000110 	andeq	r0, r0, r0, lsl r1
    a958:	003ab705 	eorseq	fp, sl, r5, lsl #14
    a95c:	0b0c0000 	bleq	30a964 <__bss_end__+0x300a04>
    a960:	000001f1 	strdeq	r0, [r0], -r1
    a964:	003ab805 	eorseq	fp, sl, r5, lsl #16
    a968:	100e0000 	andne	r0, lr, r0
    a96c:	0066625f 	rsbeq	r6, r6, pc, asr r2
    a970:	02b1b905 	adcseq	fp, r1, #81920	; 0x14000
    a974:	0b100000 	bleq	40a97c <__bss_end__+0x400a1c>
    a978:	0000006c 	andeq	r0, r0, ip, rrx
    a97c:	0025ba05 	eoreq	fp, r5, r5, lsl #20
    a980:	0b180000 	bleq	60a988 <__bss_end__+0x600a28>
    a984:	00000100 	andeq	r0, r0, r0, lsl #2
    a988:	0105c105 	tsteq	r5, r5, lsl #2
    a98c:	0b1c0000 	bleq	70a994 <__bss_end__+0x700a34>
    a990:	00000b24 	andeq	r0, r0, r4, lsr #22
    a994:	0561c305 	strbeq	ip, [r1, #-773]!	; 0xfffffcfb
    a998:	0b200000 	bleq	80a9a0 <__bss_end__+0x800a40>
    a99c:	00000619 	andeq	r0, r0, r9, lsl r6
    a9a0:	058bc505 	streq	ip, [fp, #1285]	; 0x505
    a9a4:	0b240000 	bleq	90a9ac <__bss_end__+0x900a4c>
    a9a8:	00000408 	andeq	r0, r0, r8, lsl #8
    a9ac:	05afc805 	streq	ip, [pc, #2053]!	; b1b9 <__bss_end__+0x1259>
    a9b0:	0b280000 	bleq	a0a9b8 <__bss_end__+0xa00a58>
    a9b4:	000004e5 	andeq	r0, r0, r5, ror #9
    a9b8:	05c9c905 	strbeq	ip, [r9, #2309]	; 0x905
    a9bc:	102c0000 	eorne	r0, ip, r0
    a9c0:	0062755f 	rsbeq	r7, r2, pc, asr r5
    a9c4:	02b1cc05 	adcseq	ip, r1, #1280	; 0x500
    a9c8:	10300000 	eorsne	r0, r0, r0
    a9cc:	0070755f 	rsbseq	r7, r0, pc, asr r5
    a9d0:	02d6cd05 	sbcseq	ip, r6, #320	; 0x140
    a9d4:	10380000 	eorsne	r0, r8, r0
    a9d8:	0072755f 	rsbseq	r7, r2, pc, asr r5
    a9dc:	0025ce05 	eoreq	ip, r5, r5, lsl #28
    a9e0:	0b3c0000 	bleq	f0a9e8 <__bss_end__+0xf00a88>
    a9e4:	000000a6 	andeq	r0, r0, r6, lsr #1
    a9e8:	05cfd105 	strbeq	sp, [pc, #261]	; aaf5 <__bss_end__+0xb95>
    a9ec:	0b400000 	bleq	100a9f4 <__bss_end__+0x1000a94>
    a9f0:	000004bd 			; <UNDEFINED> instruction: 0x000004bd
    a9f4:	05dfd205 	ldrbeq	sp, [pc, #517]	; ac01 <__bss_end__+0xca1>
    a9f8:	10430000 	subne	r0, r3, r0
    a9fc:	00626c5f 	rsbeq	r6, r2, pc, asr ip
    aa00:	02b1d505 	adcseq	sp, r1, #20971520	; 0x1400000
    aa04:	0b440000 	bleq	110aa0c <__bss_end__+0x1100aac>
    aa08:	00000135 	andeq	r0, r0, r5, lsr r1
    aa0c:	0025d805 	eoreq	sp, r5, r5, lsl #16
    aa10:	0b4c0000 	bleq	130aa18 <__bss_end__+0x1300ab8>
    aa14:	00000146 	andeq	r0, r0, r6, asr #2
    aa18:	0076d905 	rsbseq	sp, r6, r5, lsl #18
    aa1c:	0b500000 	bleq	140aa24 <__bss_end__+0x1400ac4>
    aa20:	00000ac5 	andeq	r0, r0, r5, asr #21
    aa24:	0424dc05 	strteq	sp, [r4], #-3077	; 0xfffff3fb
    aa28:	0b540000 	bleq	150aa30 <__bss_end__+0x1500ad0>
    aa2c:	000003fa 	strdeq	r0, [r0], -sl
    aa30:	00fae005 	rscseq	lr, sl, r5
    aa34:	0b580000 	bleq	160aa3c <__bss_end__+0x1600adc>
    aa38:	0000038e 	andeq	r0, r0, lr, lsl #7
    aa3c:	00efe205 	rsceq	lr, pc, r5, lsl #4
    aa40:	0b5c0000 	bleq	170aa48 <__bss_end__+0x1700ae8>
    aa44:	00000264 	andeq	r0, r0, r4, ror #4
    aa48:	0025e305 	eoreq	lr, r5, r5, lsl #6
    aa4c:	00640000 	rsbeq	r0, r4, r0
    aa50:	00002514 	andeq	r2, r0, r4, lsl r5
    aa54:	00042400 	andeq	r2, r4, r0, lsl #8
    aa58:	04241500 	strteq	r1, [r4], #-1280	; 0xfffffb00
    aa5c:	05150000 	ldreq	r0, [r5, #-0]
    aa60:	15000001 	strne	r0, [r0, #-1]
    aa64:	00000107 	andeq	r0, r0, r7, lsl #2
    aa68:	00002515 	andeq	r2, r0, r5, lsl r5
    aa6c:	040d0000 	streq	r0, [sp], #-0
    aa70:	0000042f 	andeq	r0, r0, pc, lsr #8
    aa74:	0004240e 	andeq	r2, r4, lr, lsl #8
    aa78:	03e41600 	mvneq	r1, #0, 12
    aa7c:	04280000 	strteq	r0, [r8], #-0
    aa80:	61023805 	tstvs	r2, r5, lsl #16
    aa84:	17000005 	strne	r0, [r0, -r5]
    aa88:	0000034c 	andeq	r0, r0, ip, asr #6
    aa8c:	25023a05 	strcs	r3, [r2, #-2565]	; 0xfffff5fb
    aa90:	00000000 	andeq	r0, r0, r0
    aa94:	00049117 	andeq	r9, r4, r7, lsl r1
    aa98:	023f0500 	eorseq	r0, pc, #0, 10
    aa9c:	00000636 	andeq	r0, r0, r6, lsr r6
    aaa0:	01e11704 	mvneq	r1, r4, lsl #14
    aaa4:	3f050000 	svccc	0x00050000
    aaa8:	00063602 	andeq	r3, r6, r2, lsl #12
    aaac:	a0170800 	andsge	r0, r7, r0, lsl #16
    aab0:	05000001 	streq	r0, [r0, #-1]
    aab4:	0636023f 			; <UNDEFINED> instruction: 0x0636023f
    aab8:	170c0000 	strne	r0, [ip, -r0]
    aabc:	000003af 	andeq	r0, r0, pc, lsr #7
    aac0:	25024105 	strcs	r4, [r2, #-261]	; 0xfffffefb
    aac4:	10000000 	andne	r0, r0, r0
    aac8:	00001a17 	andeq	r1, r0, r7, lsl sl
    aacc:	02420500 	subeq	r0, r2, #0, 10
    aad0:	00000818 	andeq	r0, r0, r8, lsl r8
    aad4:	0a7e1714 	beq	1f9072c <__bss_end__+0x1f867cc>
    aad8:	44050000 	strmi	r0, [r5], #-0
    aadc:	00002502 	andeq	r2, r0, r2, lsl #10
    aae0:	f9173000 			; <UNDEFINED> instruction: 0xf9173000
    aae4:	05000009 	streq	r0, [r0, #-9]
    aae8:	05850245 	streq	r0, [r5, #581]	; 0x245
    aaec:	17340000 	ldrne	r0, [r4, -r0]!
    aaf0:	0000028e 	andeq	r0, r0, lr, lsl #5
    aaf4:	25024705 	strcs	r4, [r2, #-1797]	; 0xfffff8fb
    aaf8:	38000000 	stmdacc	r0, {}	; <UNPREDICTABLE>
    aafc:	0003b917 	andeq	fp, r3, r7, lsl r9
    ab00:	02490500 	subeq	r0, r9, #0, 10
    ab04:	00000833 	andeq	r0, r0, r3, lsr r8
    ab08:	0240173c 	subeq	r1, r0, #60, 14	; 0xf00000
    ab0c:	4c050000 	stcmi	0, cr0, [r5], {-0}
    ab10:	00017702 	andeq	r7, r1, r2, lsl #14
    ab14:	bf174000 	svclt	0x00174000
    ab18:	05000001 	streq	r0, [r0, #-1]
    ab1c:	0025024d 	eoreq	r0, r5, sp, asr #4
    ab20:	17440000 	strbne	r0, [r4, -r0]
    ab24:	000004ff 	strdeq	r0, [r0], -pc	; <UNPREDICTABLE>
    ab28:	77024e05 	strvc	r4, [r2, -r5, lsl #28]
    ab2c:	48000001 	stmdami	r0, {r0}
    ab30:	0002a017 	andeq	sl, r2, r7, lsl r0
    ab34:	024f0500 	subeq	r0, pc, #0, 10
    ab38:	00000839 	andeq	r0, r0, r9, lsr r8
    ab3c:	01e9174c 	mvneq	r1, ip, asr #14
    ab40:	52050000 	andpl	r0, r5, #0
    ab44:	00002502 	andeq	r2, r0, r2, lsl #10
    ab48:	3e175000 	cdpcc	0, 1, cr5, cr7, cr0, {0}
    ab4c:	05000001 	streq	r0, [r0, #-1]
    ab50:	01070253 	tsteq	r7, r3, asr r2
    ab54:	17540000 	ldrbne	r0, [r4, -r0]
    ab58:	000002c6 	andeq	r0, r0, r6, asr #5
    ab5c:	f6027605 			; <UNDEFINED> instruction: 0xf6027605
    ab60:	58000007 	stmdapl	r0, {r0, r1, r2}
    ab64:	00028618 	andeq	r8, r2, r8, lsl r6
    ab68:	027a0500 	rsbseq	r0, sl, #0, 10
    ab6c:	00000294 	muleq	r0, r4, r2
    ab70:	1e180148 	mufneem	f0, f0, #0.0
    ab74:	05000002 	streq	r0, [r0, #-2]
    ab78:	0256027b 	subseq	r0, r6, #-1342177273	; 0xb0000007
    ab7c:	014c0000 	mrseq	r0, (UNDEF: 76)
    ab80:	0004ab18 	andeq	sl, r4, r8, lsl fp
    ab84:	027f0500 	rsbseq	r0, pc, #0, 10
    ab88:	0000084a 	andeq	r0, r0, sl, asr #16
    ab8c:	081802dc 	ldmdaeq	r8, {r2, r3, r4, r6, r7, r9}
    ab90:	05000001 	streq	r0, [r0, #-1]
    ab94:	05fb0284 	ldrbeq	r0, [fp, #644]!	; 0x284
    ab98:	02e00000 	rsceq	r0, r0, #0
    ab9c:	0000ed18 	andeq	lr, r0, r8, lsl sp
    aba0:	02850500 	addeq	r0, r5, #0, 10
    aba4:	00000856 	andeq	r0, r0, r6, asr r8
    aba8:	0d0002ec 	sfmeq	f0, 4, [r0, #-944]	; 0xfffffc50
    abac:	00040604 	andeq	r0, r4, r4, lsl #12
    abb0:	00251400 	eoreq	r1, r5, r0, lsl #8
    abb4:	05850000 	streq	r0, [r5]
    abb8:	24150000 	ldrcs	r0, [r5], #-0
    abbc:	15000004 	strne	r0, [r0, #-4]
    abc0:	00000105 	andeq	r0, r0, r5, lsl #2
    abc4:	00058515 	andeq	r8, r5, r5, lsl r5
    abc8:	00251500 	eoreq	r1, r5, r0, lsl #10
    abcc:	0d000000 	stceq	0, cr0, [r0, #-0]
    abd0:	00011404 	andeq	r1, r1, r4, lsl #8
    abd4:	67040d00 	strvs	r0, [r4, -r0, lsl #26]
    abd8:	14000005 	strne	r0, [r0], #-5
    abdc:	00000081 	andeq	r0, r0, r1, lsl #1
    abe0:	000005af 	andeq	r0, r0, pc, lsr #11
    abe4:	00042415 	andeq	r2, r4, r5, lsl r4
    abe8:	01051500 	tsteq	r5, r0, lsl #10
    abec:	81150000 	tsthi	r5, r0
    abf0:	15000000 	strne	r0, [r0, #-0]
    abf4:	00000025 	andeq	r0, r0, r5, lsr #32
    abf8:	91040d00 	tstls	r4, r0, lsl #26
    abfc:	14000005 	strne	r0, [r0], #-5
    ac00:	00000025 	andeq	r0, r0, r5, lsr #32
    ac04:	000005c9 	andeq	r0, r0, r9, asr #11
    ac08:	00042415 	andeq	r2, r4, r5, lsl r4
    ac0c:	01051500 	tsteq	r5, r0, lsl #10
    ac10:	0d000000 	stceq	0, cr0, [r0, #-0]
    ac14:	0005b504 	andeq	fp, r5, r4, lsl #10
    ac18:	004f0800 	subeq	r0, pc, r0, lsl #16
    ac1c:	05df0000 	ldrbeq	r0, [pc]	; ac24 <__bss_end__+0xcc4>
    ac20:	c7090000 	strgt	r0, [r9, -r0]
    ac24:	02000000 	andeq	r0, r0, #0
    ac28:	004f0800 	subeq	r0, pc, r0, lsl #16
    ac2c:	05ef0000 	strbeq	r0, [pc, #0]!	; ac34 <__bss_end__+0xcd4>
    ac30:	c7090000 	strgt	r0, [r9, -r0]
    ac34:	00000000 	andeq	r0, r0, r0
    ac38:	03740500 	cmneq	r4, #0, 10
    ac3c:	1d050000 	stcne	0, cr0, [r5, #-0]
    ac40:	0002dc01 	andeq	sp, r2, r1, lsl #24
    ac44:	048b1900 	streq	r1, [fp], #2304	; 0x900
    ac48:	050c0000 	streq	r0, [ip, #-0]
    ac4c:	06300121 	ldrteq	r0, [r0], -r1, lsr #2
    ac50:	9c170000 	ldcls	0, cr0, [r7], {-0}
    ac54:	05000003 	streq	r0, [r0, #-3]
    ac58:	06300123 	ldrteq	r0, [r0], -r3, lsr #2
    ac5c:	17000000 	strne	r0, [r0, -r0]
    ac60:	00000204 	andeq	r0, r0, r4, lsl #4
    ac64:	25012405 	strcs	r2, [r1, #-1029]	; 0xfffffbfb
    ac68:	04000000 	streq	r0, [r0], #-0
    ac6c:	00036e17 	andeq	r6, r3, r7, lsl lr
    ac70:	01250500 			; <UNDEFINED> instruction: 0x01250500
    ac74:	00000636 	andeq	r0, r0, r6, lsr r6
    ac78:	040d0008 	streq	r0, [sp], #-8
    ac7c:	000005fb 	strdeq	r0, [r0], -fp
    ac80:	05ef040d 	strbeq	r0, [pc, #1037]!	; b095 <__bss_end__+0x1135>
    ac84:	12190000 	andsne	r0, r9, #0
    ac88:	0e000000 	cdpeq	0, 0, cr0, cr0, cr0, {0}
    ac8c:	71013d05 	tstvc	r1, r5, lsl #26
    ac90:	17000006 	strne	r0, [r0, -r6]
    ac94:	000003eb 	andeq	r0, r0, fp, ror #7
    ac98:	71013e05 	tstvc	r1, r5, lsl #28
    ac9c:	00000006 	andeq	r0, r0, r6
    aca0:	00041f17 	andeq	r1, r4, r7, lsl pc
    aca4:	013f0500 	teqeq	pc, r0, lsl #10
    aca8:	00000671 	andeq	r0, r0, r1, ror r6
    acac:	043b1706 	ldrteq	r1, [fp], #-1798	; 0xfffff8fa
    acb0:	40050000 	andmi	r0, r5, r0
    acb4:	00005601 	andeq	r5, r0, r1, lsl #12
    acb8:	08000c00 	stmdaeq	r0, {sl, fp}
    acbc:	00000056 	andeq	r0, r0, r6, asr r0
    acc0:	00000681 	andeq	r0, r0, r1, lsl #13
    acc4:	0000c709 	andeq	ip, r0, r9, lsl #14
    acc8:	1a000200 	bne	b4d0 <__bss_end__+0x1570>
    accc:	025705d0 	subseq	r0, r7, #208, 10	; 0x34000000
    acd0:	00000782 	andeq	r0, r0, r2, lsl #15
    acd4:	00046f17 	andeq	r6, r4, r7, lsl pc
    acd8:	02590500 	subseq	r0, r9, #0, 10
    acdc:	0000002c 	andeq	r0, r0, ip, lsr #32
    ace0:	04251700 	strteq	r1, [r5], #-1792	; 0xfffff900
    ace4:	5a050000 	bpl	14acec <__bss_end__+0x140d8c>
    ace8:	00010702 	andeq	r0, r1, r2, lsl #14
    acec:	33170400 	tstcc	r7, #0, 8
    acf0:	05000002 	streq	r0, [r0, #-2]
    acf4:	0782025b 			; <UNDEFINED> instruction: 0x0782025b
    acf8:	17080000 	strne	r0, [r8, -r0]
    acfc:	000004d6 	ldrdeq	r0, [r0], -r6
    ad00:	8d025c05 	stchi	12, cr5, [r2, #-20]	; 0xffffffec
    ad04:	24000001 	strcs	r0, [r0], #-1
    ad08:	0001b017 	andeq	fp, r1, r7, lsl r0
    ad0c:	025d0500 	subseq	r0, sp, #0, 10
    ad10:	00000025 	andeq	r0, r0, r5, lsr #32
    ad14:	03971748 	orrseq	r1, r7, #72, 14	; 0x1200000
    ad18:	5e050000 	cdppl	0, 0, cr0, cr5, cr0, {0}
    ad1c:	00006402 	andeq	r6, r0, r2, lsl #8
    ad20:	ec175000 	ldc	0, cr5, [r7], {-0}
    ad24:	05000004 	streq	r0, [r0, #-4]
    ad28:	063c025f 			; <UNDEFINED> instruction: 0x063c025f
    ad2c:	17580000 	ldrbne	r0, [r8, -r0]
    ad30:	000003a2 	andeq	r0, r0, r2, lsr #7
    ad34:	ef026005 	svc	0x00026005
    ad38:	68000000 	stmdavs	r0, {}	; <UNPREDICTABLE>
    ad3c:	0004f117 	andeq	pc, r4, r7, lsl r1	; <UNPREDICTABLE>
    ad40:	02610500 	rsbeq	r0, r1, #0, 10
    ad44:	000000ef 	andeq	r0, r0, pc, ror #1
    ad48:	02aa1770 	adceq	r1, sl, #112, 14	; 0x1c00000
    ad4c:	62050000 	andvs	r0, r5, #0
    ad50:	0000ef02 	andeq	lr, r0, r2, lsl #30
    ad54:	a1177800 	tstge	r7, r0, lsl #16
    ad58:	05000004 	streq	r0, [r0, #-4]
    ad5c:	07920263 	ldreq	r0, [r2, r3, ror #4]
    ad60:	17800000 	strne	r0, [r0, r0]
    ad64:	00000227 	andeq	r0, r0, r7, lsr #4
    ad68:	a2026405 	andge	r6, r2, #83886080	; 0x5000000
    ad6c:	88000007 	stmdahi	r0, {r0, r1, r2}
    ad70:	00044817 	andeq	r4, r4, r7, lsl r8
    ad74:	02650500 	rsbeq	r0, r5, #0, 10
    ad78:	00000025 	andeq	r0, r0, r5, lsr #32
    ad7c:	017617a0 	cmneq	r6, r0, lsr #15
    ad80:	66050000 	strvs	r0, [r5], -r0
    ad84:	0000ef02 	andeq	lr, r0, r2, lsl #30
    ad88:	8017a400 	andshi	sl, r7, r0, lsl #8
    ad8c:	05000000 	streq	r0, [r0, #-0]
    ad90:	00ef0267 	rsceq	r0, pc, r7, ror #4
    ad94:	17ac0000 	strne	r0, [ip, r0]!
    ad98:	00000165 	andeq	r0, r0, r5, ror #2
    ad9c:	ef026805 	svc	0x00026805
    ada0:	b4000000 	strlt	r0, [r0], #-0
    ada4:	00002d17 	andeq	r2, r0, r7, lsl sp
    ada8:	02690500 	rsbeq	r0, r9, #0, 10
    adac:	000000ef 	andeq	r0, r0, pc, ror #1
    adb0:	003c17bc 	ldrhteq	r1, [ip], -ip
    adb4:	6a050000 	bvs	14adbc <__bss_end__+0x140e5c>
    adb8:	0000ef02 	andeq	lr, r0, r2, lsl #30
    adbc:	4a17c400 	bmi	5fbdc4 <__bss_end__+0x5f1e64>
    adc0:	05000003 	streq	r0, [r0, #-3]
    adc4:	0025026b 	eoreq	r0, r5, fp, ror #4
    adc8:	00cc0000 	sbceq	r0, ip, r0
    adcc:	00010d08 	andeq	r0, r1, r8, lsl #26
    add0:	00079200 	andeq	r9, r7, r0, lsl #4
    add4:	00c70900 	sbceq	r0, r7, r0, lsl #18
    add8:	00190000 	andseq	r0, r9, r0
    addc:	00010d08 	andeq	r0, r1, r8, lsl #26
    ade0:	0007a200 	andeq	sl, r7, r0, lsl #4
    ade4:	00c70900 	sbceq	r0, r7, r0, lsl #18
    ade8:	00070000 	andeq	r0, r7, r0
    adec:	00010d08 	andeq	r0, r1, r8, lsl #26
    adf0:	0007b200 	andeq	fp, r7, r0, lsl #4
    adf4:	00c70900 	sbceq	r0, r7, r0, lsl #18
    adf8:	00170000 	andseq	r0, r7, r0
    adfc:	7005f01a 	andvc	pc, r5, sl, lsl r0	; <UNPREDICTABLE>
    ae00:	0007d602 	andeq	sp, r7, r2, lsl #12
    ae04:	02761700 	rsbseq	r1, r6, #0, 14
    ae08:	73050000 	movwvc	r0, #20480	; 0x5000
    ae0c:	0007d602 	andeq	sp, r7, r2, lsl #12
    ae10:	98170000 	ldmdals	r7, {}	; <UNPREDICTABLE>
    ae14:	05000004 	streq	r0, [r0, #-4]
    ae18:	07e60274 			; <UNDEFINED> instruction: 0x07e60274
    ae1c:	00780000 	rsbseq	r0, r8, r0
    ae20:	0002d608 	andeq	sp, r2, r8, lsl #12
    ae24:	0007e600 	andeq	lr, r7, r0, lsl #12
    ae28:	00c70900 	sbceq	r0, r7, r0, lsl #18
    ae2c:	001d0000 	andseq	r0, sp, r0
    ae30:	00002c08 	andeq	r2, r0, r8, lsl #24
    ae34:	0007f600 	andeq	pc, r7, r0, lsl #12
    ae38:	00c70900 	sbceq	r0, r7, r0, lsl #18
    ae3c:	001d0000 	andseq	r0, sp, r0
    ae40:	5505f01b 	strpl	pc, [r5, #-27]	; 0xffffffe5
    ae44:	00081802 	andeq	r1, r8, r2, lsl #16
    ae48:	03e41c00 	mvneq	r1, #0, 24
    ae4c:	6c050000 	stcvs	0, cr0, [r5], {-0}
    ae50:	00068102 	andeq	r8, r6, r2, lsl #2
    ae54:	04c31c00 	strbeq	r1, [r3], #3072	; 0xc00
    ae58:	75050000 	strvc	r0, [r5, #-0]
    ae5c:	0007b202 	andeq	fp, r7, r2, lsl #4
    ae60:	0d080000 	stceq	0, cr0, [r8, #-0]
    ae64:	28000001 	stmdacs	r0, {r0}
    ae68:	09000008 	stmdbeq	r0, {r3}
    ae6c:	000000c7 	andeq	r0, r0, r7, asr #1
    ae70:	331d0018 	tstcc	sp, #24
    ae74:	15000008 	strne	r0, [r0, #-8]
    ae78:	00000424 	andeq	r0, r0, r4, lsr #8
    ae7c:	28040d00 	stmdacs	r4, {r8, sl, fp}
    ae80:	0d000008 	stceq	0, cr0, [r0, #-32]	; 0xffffffe0
    ae84:	00017704 	andeq	r7, r1, r4, lsl #14
    ae88:	084a1d00 	stmdaeq	sl, {r8, sl, fp, ip}^
    ae8c:	25150000 	ldrcs	r0, [r5, #-0]
    ae90:	00000000 	andeq	r0, r0, r0
    ae94:	0850040d 	ldmdaeq	r0, {r0, r2, r3, sl}^
    ae98:	040d0000 	streq	r0, [sp], #-0
    ae9c:	0000083f 	andeq	r0, r0, pc, lsr r8
    aea0:	0005ef08 	andeq	lr, r5, r8, lsl #30
    aea4:	00086600 	andeq	r6, r8, r0, lsl #12
    aea8:	00c70900 	sbceq	r0, r7, r0, lsl #18
    aeac:	00020000 	andeq	r0, r2, r0
    aeb0:	00045c1e 	andeq	r5, r4, lr, lsl ip
    aeb4:	02fd0500 	rscseq	r0, sp, #0, 10
    aeb8:	00000424 	andeq	r0, r0, r4, lsr #8
    aebc:	0004551e 	andeq	r5, r4, lr, lsl r5
    aec0:	02fe0500 	rscseq	r0, lr, #0, 10
    aec4:	0000042a 	andeq	r0, r0, sl, lsr #8
    aec8:	00002514 	andeq	r2, r0, r4, lsl r5
    aecc:	00088d00 	andeq	r8, r8, r0, lsl #26
    aed0:	00251500 	eoreq	r1, r5, r0, lsl #10
    aed4:	1f000000 	svcne	0x00000000
    aed8:	000001c9 	andeq	r0, r0, r9, asr #3
    aedc:	08981d06 	ldmeq	r8, {r1, r2, r8, sl, fp, ip}
    aee0:	040d0000 	streq	r0, [sp], #-0
    aee4:	0000087e 	andeq	r0, r0, lr, ror r8
    aee8:	00002514 	andeq	r2, r0, r4, lsl r5
    aeec:	0008ad00 	andeq	sl, r8, r0, lsl #26
    aef0:	05851500 	streq	r1, [r5, #1280]	; 0x500
    aef4:	1f000000 	svcne	0x00000000
    aef8:	00000768 	andeq	r0, r0, r8, ror #14
    aefc:	08b82206 	ldmeq	r8!, {r1, r2, r9, sp}
    af00:	040d0000 	streq	r0, [sp], #-0
    af04:	0000089e 	muleq	r0, lr, r8
    af08:	b1040803 	tstlt	r4, r3, lsl #16
    af0c:	1f00000b 	svcne	0x0000000b
    af10:	00000be9 	andeq	r0, r0, r9, ror #23
    af14:	010d0d01 	tsteq	sp, r1, lsl #26
    af18:	5f200000 	svcpl	0x00200000
    af1c:	01000006 	tsteq	r0, r6
    af20:	0001070e 	andeq	r0, r1, lr, lsl #14
    af24:	d0030500 	andle	r0, r3, r0, lsl #10
    af28:	20000095 	mulcs	r0, r5, r0
    af2c:	00000c00 	andeq	r0, r0, r0, lsl #24
    af30:	01070f01 	tsteq	r7, r1, lsl #30
    af34:	03050000 	movweq	r0, #20480	; 0x5000
    af38:	000095d4 	ldrdeq	r9, [r0], -r4
    af3c:	000bc221 	andeq	ip, fp, r1, lsr #4
    af40:	a0380100 	eorsge	r0, r8, r0, lsl #2
    af44:	10000095 	mulne	r0, r5, r0
    af48:	01000000 	mrseq	r0, (UNDEF: 0)
    af4c:	0009139c 	muleq	r9, ip, r3
    af50:	00702200 	rsbseq	r2, r0, r0, lsl #4
    af54:	01053801 	tsteq	r5, r1, lsl #16
    af58:	50010000 	andpl	r0, r1, r0
    af5c:	0bb82300 	bleq	fee13b64 <__bss_end__+0xfee09c04>
    af60:	37010000 	strcc	r0, [r1, -r0]
    af64:	0000958c 	andeq	r9, r0, ip, lsl #11
    af68:	00000014 	andeq	r0, r0, r4, lsl r0
    af6c:	5e219c01 	cdppl	12, 2, cr9, cr1, cr1, {0}
    af70:	01000002 	tsteq	r0, r2
    af74:	00958836 	addseq	r8, r5, r6, lsr r8
    af78:	00000400 	andeq	r0, r0, r0, lsl #8
    af7c:	459c0100 	ldrmi	r0, [ip, #256]	; 0x100
    af80:	22000009 	andcs	r0, r0, #9
    af84:	36010070 			; <UNDEFINED> instruction: 0x36010070
    af88:	00000105 	andeq	r0, r0, r5, lsl #2
    af8c:	24005001 	strcs	r5, [r0], #-1
    af90:	00000ba1 	andeq	r0, r0, r1, lsr #23
    af94:	01052901 	tsteq	r5, r1, lsl #18
    af98:	94fc0000 	ldrbtls	r0, [ip], #0
    af9c:	008c0000 	addeq	r0, ip, r0
    afa0:	9c010000 	stcls	0, cr0, [r1], {-0}
    afa4:	00000a30 	andeq	r0, r0, r0, lsr sl
    afa8:	00067f25 	andeq	r7, r6, r5, lsr #30
    afac:	2c290100 	stfcss	f0, [r9], #-0
    afb0:	87000000 	strhi	r0, [r0, -r0]
    afb4:	25000015 	strcs	r0, [r0, #-21]	; 0xffffffeb
    afb8:	00000bdf 	ldrdeq	r0, [r0], -pc	; <UNPREDICTABLE>
    afbc:	002c2901 	eoreq	r2, ip, r1, lsl #18
    afc0:	15da0000 	ldrbne	r0, [sl]
    afc4:	f7260000 			; <UNDEFINED> instruction: 0xf7260000
    afc8:	40000001 	andmi	r0, r0, r1
    afcc:	0500000a 	streq	r0, [r0, #-10]
    afd0:	009a5003 	addseq	r5, sl, r3
    afd4:	00682700 	rsbeq	r2, r8, r0, lsl #14
    afd8:	002c2e01 	eoreq	r2, ip, r1, lsl #28
    afdc:	16210000 	strtne	r0, [r1], -r0
    afe0:	38280000 	stmdacc	r8!, {}	; <UNPREDICTABLE>
    afe4:	79000095 	stmdbvc	r0, {r0, r2, r4, r7}
    afe8:	ad00000a 	stcge	0, cr0, [r0, #-40]	; 0xffffffd8
    afec:	29000009 	stmdbcs	r0, {r0, r3}
    aff0:	f3035001 	vhadd.u8	d5, d3, d1
    aff4:	2a005001 	bcs	1f000 <__bss_end__+0x150a0>
    aff8:	00009540 	andeq	r9, r0, r0, asr #10
    affc:	00000bfb 	strdeq	r0, [r0], -fp
    b000:	00955428 	addseq	r5, r5, r8, lsr #8
    b004:	000c0600 	andeq	r0, ip, r0, lsl #12
    b008:	0009e500 	andeq	lr, r9, r0, lsl #10
    b00c:	50012900 	andpl	r2, r1, r0, lsl #18
    b010:	9a9c0305 	bls	fe70bc2c <__bss_end__+0xfe701ccc>
    b014:	01290000 			; <UNDEFINED> instruction: 0x01290000
    b018:	60030551 	andvs	r0, r3, r1, asr r5
    b01c:	2900009a 	stmdbcs	r0, {r1, r3, r4, r7}
    b020:	03055201 	movweq	r5, #20993	; 0x5201
    b024:	00009a50 	andeq	r9, r0, r0, asr sl
    b028:	02530129 	subseq	r0, r3, #1073741834	; 0x4000000a
    b02c:	2a002a08 	bcs	15854 <__bss_end__+0xb8f4>
    b030:	00009558 	andeq	r9, r0, r8, asr r5
    b034:	00000c11 	andeq	r0, r0, r1, lsl ip
    b038:	00955c2a 	addseq	r5, r5, sl, lsr #24
    b03c:	000bfb00 	andeq	pc, fp, r0, lsl #22
    b040:	95702800 	ldrbls	r2, [r0, #-2048]!	; 0xfffff800
    b044:	0c060000 	stceq	0, cr0, [r6], {-0}
    b048:	0a260000 	beq	98b050 <__bss_end__+0x9810f0>
    b04c:	01290000 			; <UNDEFINED> instruction: 0x01290000
    b050:	fc030550 	stc2	5, cr0, [r3], {80}	; 0x50
    b054:	2900009a 	stmdbcs	r0, {r1, r3, r4, r7}
    b058:	03055101 	movweq	r5, #20737	; 0x5101
    b05c:	00009a60 	andeq	r9, r0, r0, ror #20
    b060:	05520129 	ldrbeq	r0, [r2, #-297]	; 0xfffffed7
    b064:	009a5003 	addseq	r5, sl, r3
    b068:	53012900 	movwpl	r2, #6400	; 0x1900
    b06c:	00300802 	eorseq	r0, r0, r2, lsl #16
    b070:	0095742a 	addseq	r7, r5, sl, lsr #8
    b074:	000c1100 	andeq	r1, ip, r0, lsl #2
    b078:	14080000 	strne	r0, [r8], #-0
    b07c:	40000001 	andmi	r0, r0, r1
    b080:	0900000a 	stmdbeq	r0, {r1, r3}
    b084:	000000c7 	andeq	r0, r0, r7, asr #1
    b088:	300e000f 	andcc	r0, lr, pc
    b08c:	2400000a 	strcs	r0, [r0], #-10
    b090:	00000bce 	andeq	r0, r0, lr, asr #23
    b094:	01052501 	tsteq	r5, r1, lsl #10
    b098:	94f00000 	ldrbtls	r0, [r0], #0
    b09c:	000c0000 	andeq	r0, ip, r0
    b0a0:	9c010000 	stcls	0, cr0, [r1], {-0}
    b0a4:	00000a68 	andeq	r0, r0, r8, ror #20
    b0a8:	0094f82a 	addseq	pc, r4, sl, lsr #16
    b0ac:	000bd100 	andeq	sp, fp, r0, lsl #2
    b0b0:	94230000 	strtls	r0, [r3], #-0
    b0b4:	0100000b 	tsteq	r0, fp
    b0b8:	0094ec24 	addseq	lr, r4, r4, lsr #24
    b0bc:	00000400 	andeq	r0, r0, r0, lsl #8
    b0c0:	249c0100 	ldrcs	r0, [ip], #256	; 0x100
    b0c4:	000004b5 			; <UNDEFINED> instruction: 0x000004b5
    b0c8:	01051a01 	tsteq	r5, r1, lsl #20
    b0cc:	94880000 	strls	r0, [r8], #0
    b0d0:	00640000 	rsbeq	r0, r4, r0
    b0d4:	9c010000 	stcls	0, cr0, [r1], {-0}
    b0d8:	00000b24 	andeq	r0, r0, r4, lsr #22
    b0dc:	007a732b 	rsbseq	r7, sl, fp, lsr #6
    b0e0:	002c1a01 	eoreq	r1, ip, r1, lsl #20
    b0e4:	16590000 	ldrbne	r0, [r9], -r0
    b0e8:	f7260000 			; <UNDEFINED> instruction: 0xf7260000
    b0ec:	34000001 	strcc	r0, [r0], #-1
    b0f0:	0500000b 	streq	r0, [r0, #-11]
    b0f4:	009a4803 	addseq	r4, sl, r3, lsl #16
    b0f8:	0c0c2c00 	stceq	12, cr2, [ip], {-0}
    b0fc:	1e010000 	cdpne	0, 0, cr0, cr1, cr0, {0}
    b100:	00000105 	andeq	r0, r0, r5, lsl #2
    b104:	000016a3 	andeq	r1, r0, r3, lsr #13
    b108:	0094b828 	addseq	fp, r4, r8, lsr #16
    b10c:	000c1c00 	andeq	r1, ip, r0, lsl #24
    b110:	000ae300 	andeq	lr, sl, r0, lsl #6
    b114:	50012900 	andpl	r2, r1, r0, lsl #18
    b118:	29007402 	stmdbcs	r0, {r1, sl, ip, sp, lr}
    b11c:	30015101 	andcc	r5, r1, r1, lsl #2
    b120:	08520129 	ldmdaeq	r2, {r0, r3, r5, r8}^
    b124:	235001f3 	cmpcs	r0, #-1073741764	; 0xc000003c
    b128:	1af80907 	bne	ffe0d54c <__bss_end__+0xffe035ec>
    b12c:	94c42a00 	strbls	r2, [r4], #2560	; 0xa00
    b130:	0bfb0000 	bleq	ffecb138 <__bss_end__+0xffec11d8>
    b134:	d8280000 	stmdale	r8!, {}	; <UNPREDICTABLE>
    b138:	06000094 			; <UNDEFINED> instruction: 0x06000094
    b13c:	1a00000c 	bne	b174 <__bss_end__+0x1214>
    b140:	2900000b 	stmdbcs	r0, {r0, r1, r3}
    b144:	03055001 	movweq	r5, #20481	; 0x5001
    b148:	00009a88 	andeq	r9, r0, r8, lsl #21
    b14c:	05510129 	ldrbeq	r0, [r1, #-297]	; 0xfffffed7
    b150:	009a6003 	addseq	r6, sl, r3
    b154:	52012900 	andpl	r2, r1, #0, 18
    b158:	9a480305 	bls	120bd74 <__bss_end__+0x1201e14>
    b15c:	01290000 			; <UNDEFINED> instruction: 0x01290000
    b160:	004b0153 	subeq	r0, fp, r3, asr r1
    b164:	0094dc2a 	addseq	sp, r4, sl, lsr #24
    b168:	000c1100 	andeq	r1, ip, r0, lsl #2
    b16c:	14080000 	strne	r0, [r8], #-0
    b170:	34000001 	strcc	r0, [r0], #-1
    b174:	0900000b 	stmdbeq	r0, {r0, r1, r3}
    b178:	000000c7 	andeq	r0, r0, r7, asr #1
    b17c:	240e0007 	strcs	r0, [lr], #-7
    b180:	2100000b 	tstcs	r0, fp
    b184:	0000014e 	andeq	r0, r0, lr, asr #2
    b188:	94381401 	ldrtls	r1, [r8], #-1025	; 0xfffffbff
    b18c:	00500000 	subseq	r0, r0, r0
    b190:	9c010000 	stcls	0, cr0, [r1], {-0}
    b194:	00000bbc 			; <UNDEFINED> instruction: 0x00000bbc
    b198:	000c0b25 	andeq	r0, ip, r5, lsr #22
    b19c:	2c140100 	ldfcss	f0, [r4], {-0}
    b1a0:	b6000000 	strlt	r0, [r0], -r0
    b1a4:	2c000016 	stccs	0, cr0, [r0], {22}
    b1a8:	00000c0c 	andeq	r0, r0, ip, lsl #24
    b1ac:	01071501 	tsteq	r7, r1, lsl #10
    b1b0:	16d70000 	ldrbne	r0, [r7], r0
    b1b4:	f7260000 			; <UNDEFINED> instruction: 0xf7260000
    b1b8:	cc000001 	stcgt	0, cr0, [r0], {1}
    b1bc:	0500000b 	streq	r0, [r0, #-11]
    b1c0:	009a3003 	addseq	r3, sl, r3
    b1c4:	94602a00 	strbtls	r2, [r0], #-2560	; 0xfffff600
    b1c8:	0bfb0000 	bleq	ffecb1d0 <__bss_end__+0xffec1270>
    b1cc:	74280000 	strtvc	r0, [r8], #-0
    b1d0:	06000094 			; <UNDEFINED> instruction: 0x06000094
    b1d4:	b200000c 	andlt	r0, r0, #12
    b1d8:	2900000b 	stmdbcs	r0, {r0, r1, r3}
    b1dc:	03055001 	movweq	r5, #20481	; 0x5001
    b1e0:	00009a6c 	andeq	r9, r0, ip, ror #20
    b1e4:	05510129 	ldrbeq	r0, [r1, #-297]	; 0xfffffed7
    b1e8:	009a6003 	addseq	r6, sl, r3
    b1ec:	52012900 	andpl	r2, r1, #0, 18
    b1f0:	9a300305 	bls	c0be0c <__bss_end__+0xc01eac>
    b1f4:	01290000 			; <UNDEFINED> instruction: 0x01290000
    b1f8:	00460153 	subeq	r0, r6, r3, asr r1
    b1fc:	0094782a 	addseq	r7, r4, sl, lsr #16
    b200:	000c1100 	andeq	r1, ip, r0, lsl #2
    b204:	14080000 	strne	r0, [r8], #-0
    b208:	cc000001 	stcgt	0, cr0, [r0], {1}
    b20c:	0900000b 	stmdbeq	r0, {r0, r1, r3}
    b210:	000000c7 	andeq	r0, r0, r7, asr #1
    b214:	bc0e0016 	stclt	0, cr0, [lr], {22}
    b218:	2d00000b 	stccs	0, cr0, [r0, #-44]	; 0xffffffd4
    b21c:	00000bf8 	strdeq	r0, [r0], -r8
    b220:	01051201 	tsteq	r5, r1, lsl #4
    b224:	942c0000 	strtls	r0, [ip], #-0
    b228:	000c0000 	andeq	r0, ip, r0
    b22c:	9c010000 	stcls	0, cr0, [r1], {-0}
    b230:	000c112d 	andeq	r1, ip, sp, lsr #2
    b234:	05110100 	ldreq	r0, [r1, #-256]	; 0xffffff00
    b238:	1c000001 	stcne	0, cr0, [r0], {1}
    b23c:	10000094 	mulne	r0, r4, r0
    b240:	01000000 	mrseq	r0, (UNDEF: 0)
    b244:	05a02e9c 	streq	r2, [r0, #3740]!	; 0xe9c
    b248:	05a00000 	streq	r0, [r0, #0]!
    b24c:	1e060000 	cdpne	0, 0, cr0, cr6, cr0, {0}
    b250:	0006ff2e 	andeq	pc, r6, lr, lsr #30
    b254:	0006ff00 	andeq	pc, r6, r0, lsl #30
    b258:	2e290600 	cfmadda32cs	mvax0, mvax0, mvfx9, mvfx0
    b25c:	000005d5 	ldrdeq	r0, [r0], -r5
    b260:	000005d5 	ldrdeq	r0, [r0], -r5
    b264:	682e6506 	stmdavs	lr!, {r1, r2, r8, sl, sp, lr}
    b268:	68000004 	stmdavs	r0, {r2}
    b26c:	07000004 	streq	r0, [r0, -r4]
    b270:	Address 0x000000000000b270 is out of bounds.


Disassembly of section .debug_abbrev:

00000000 <.debug_abbrev>:
       0:	25011101 	strcs	r1, [r1, #-257]	; 0xfffffeff
       4:	030b130e 	movweq	r1, #45838	; 0xb30e
       8:	110e1b0e 	tstne	lr, lr, lsl #22
       c:	10061201 	andne	r1, r6, r1, lsl #4
      10:	02000017 	andeq	r0, r0, #23
      14:	0b0b0024 	bleq	2c00ac <__bss_end__+0x2b614c>
      18:	08030b3e 	stmdaeq	r3, {r1, r2, r3, r4, r5, r8, r9, fp}
      1c:	24030000 	strcs	r0, [r3], #-0
      20:	3e0b0b00 	vmlacc.f64	d0, d11, d0
      24:	000e030b 	andeq	r0, lr, fp, lsl #6
      28:	00160400 	andseq	r0, r6, r0, lsl #8
      2c:	0b3a0e03 	bleq	e83840 <__bss_end__+0xe798e0>
      30:	0b390b3b 	bleq	e42d24 <__bss_end__+0xe38dc4>
      34:	00001349 	andeq	r1, r0, r9, asr #6
      38:	0b000f05 	bleq	3c54 <_start-0x43ac>
      3c:	0013490b 	andseq	r4, r3, fp, lsl #18
      40:	00130600 	andseq	r0, r3, r0, lsl #12
      44:	193c0e03 	ldmdbne	ip!, {r0, r1, r9, sl, fp}
      48:	16070000 	strne	r0, [r7], -r0
      4c:	3a0e0300 	bcc	380c54 <__bss_end__+0x376cf4>
      50:	39053b0b 	stmdbcc	r5, {r0, r1, r3, r8, r9, fp, ip, sp}
      54:	0013490b 	andseq	r4, r3, fp, lsl #18
      58:	01170800 	tsteq	r7, r0, lsl #16
      5c:	0b3a0b0b 	bleq	e82c90 <__bss_end__+0xe78d30>
      60:	0b390b3b 	bleq	e42d54 <__bss_end__+0xe38df4>
      64:	00001301 	andeq	r1, r0, r1, lsl #6
      68:	03000d09 	movweq	r0, #3337	; 0xd09
      6c:	3b0b3a0e 	blcc	2ce8ac <__bss_end__+0x2c494c>
      70:	490b390b 	stmdbmi	fp, {r0, r1, r3, r8, fp, ip, sp}
      74:	0a000013 	beq	c8 <_start-0x7f38>
      78:	13490101 	movtne	r0, #37121	; 0x9101
      7c:	00001301 	andeq	r1, r0, r1, lsl #6
      80:	4900210b 	stmdbmi	r0, {r0, r1, r3, r8, sp}
      84:	000b2f13 	andeq	r2, fp, r3, lsl pc
      88:	01130c00 	tsteq	r3, r0, lsl #24
      8c:	0b3a0b0b 	bleq	e82cc0 <__bss_end__+0xe78d60>
      90:	0b390b3b 	bleq	e42d84 <__bss_end__+0xe38e24>
      94:	00001301 	andeq	r1, r0, r1, lsl #6
      98:	03000d0d 	movweq	r0, #3341	; 0xd0d
      9c:	3b0b3a0e 	blcc	2ce8dc <__bss_end__+0x2c497c>
      a0:	490b390b 	stmdbmi	fp, {r0, r1, r3, r8, fp, ip, sp}
      a4:	000b3813 	andeq	r3, fp, r3, lsl r8
      a8:	000f0e00 	andeq	r0, pc, r0, lsl #28
      ac:	00000b0b 	andeq	r0, r0, fp, lsl #22
      b0:	4900260f 	stmdbmi	r0, {r0, r1, r2, r3, r9, sl, sp}
      b4:	10000013 	andne	r0, r0, r3, lsl r0
      b8:	0e030113 	mcreq	1, 0, r0, cr3, cr3, {0}
      bc:	0b3a0b0b 	bleq	e82cf0 <__bss_end__+0xe78d90>
      c0:	0b390b3b 	bleq	e42db4 <__bss_end__+0xe38e54>
      c4:	00001301 	andeq	r1, r0, r1, lsl #6
      c8:	03000d11 	movweq	r0, #3345	; 0xd11
      cc:	3b0b3a08 	blcc	2ce8f4 <__bss_end__+0x2c4994>
      d0:	490b390b 	stmdbmi	fp, {r0, r1, r3, r8, fp, ip, sp}
      d4:	000b3813 	andeq	r3, fp, r3, lsl r8
      d8:	01131200 	tsteq	r3, r0, lsl #4
      dc:	050b0e03 	streq	r0, [fp, #-3587]	; 0xfffff1fd
      e0:	0b3b0b3a 	bleq	ec2dd0 <__bss_end__+0xeb8e70>
      e4:	13010b39 	movwne	r0, #6969	; 0x1b39
      e8:	0d130000 	ldceq	0, cr0, [r3, #-0]
      ec:	3a0e0300 	bcc	380cf4 <__bss_end__+0x376d94>
      f0:	390b3b0b 	stmdbcc	fp, {r0, r1, r3, r8, r9, fp, ip, sp}
      f4:	3813490b 	ldmdacc	r3, {r0, r1, r3, r8, fp, lr}
      f8:	14000005 	strne	r0, [r0], #-5
      fc:	19270015 	stmdbne	r7!, {r0, r2, r4}
     100:	15150000 	ldrne	r0, [r5, #-0]
     104:	49192701 	ldmdbmi	r9, {r0, r8, r9, sl, sp}
     108:	00130113 	andseq	r0, r3, r3, lsl r1
     10c:	00051600 	andeq	r1, r5, r0, lsl #12
     110:	00001349 	andeq	r1, r0, r9, asr #6
     114:	03011317 	movweq	r1, #4887	; 0x1317
     118:	3a050b0e 	bcc	142d58 <__bss_end__+0x138df8>
     11c:	39053b0b 	stmdbcc	r5, {r0, r1, r3, r8, r9, fp, ip, sp}
     120:	0013010b 	andseq	r0, r3, fp, lsl #2
     124:	000d1800 	andeq	r1, sp, r0, lsl #16
     128:	0b3a0e03 	bleq	e8393c <__bss_end__+0xe799dc>
     12c:	0b39053b 	bleq	e41620 <__bss_end__+0xe376c0>
     130:	0b381349 	bleq	e04e5c <__bss_end__+0xdfaefc>
     134:	0d190000 	ldceq	0, cr0, [r9, #-0]
     138:	3a0e0300 	bcc	380d40 <__bss_end__+0x376de0>
     13c:	39053b0b 	stmdbcc	r5, {r0, r1, r3, r8, r9, fp, ip, sp}
     140:	3813490b 	ldmdacc	r3, {r0, r1, r3, r8, fp, lr}
     144:	1a000005 	bne	160 <_start-0x7ea0>
     148:	0e030113 	mcreq	1, 0, r0, cr3, cr3, {0}
     14c:	0b3a0b0b 	bleq	e82d80 <__bss_end__+0xe78e20>
     150:	0b39053b 	bleq	e41644 <__bss_end__+0xe376e4>
     154:	00001301 	andeq	r1, r0, r1, lsl #6
     158:	0b01131b 	bleq	44dcc <__bss_end__+0x3ae6c>
     15c:	3b0b3a0b 	blcc	2ce990 <__bss_end__+0x2c4a30>
     160:	010b3905 	tsteq	fp, r5, lsl #18
     164:	1c000013 	stcne	0, cr0, [r0], {19}
     168:	0b0b0117 	bleq	2c05cc <__bss_end__+0x2b666c>
     16c:	053b0b3a 	ldreq	r0, [fp, #-2874]!	; 0xfffff4c6
     170:	13010b39 	movwne	r0, #6969	; 0x1b39
     174:	0d1d0000 	ldceq	0, cr0, [sp, #-0]
     178:	3a0e0300 	bcc	380d80 <__bss_end__+0x376e20>
     17c:	39053b0b 	stmdbcc	r5, {r0, r1, r3, r8, r9, fp, ip, sp}
     180:	0013490b 	andseq	r4, r3, fp, lsl #18
     184:	01151e00 	tsteq	r5, r0, lsl #28
     188:	13011927 	movwne	r1, #6439	; 0x1927
     18c:	341f0000 	ldrcc	r0, [pc], #-0	; 194 <_start-0x7e6c>
     190:	3a0e0300 	bcc	380d98 <__bss_end__+0x376e38>
     194:	39053b0b 	stmdbcc	r5, {r0, r1, r3, r8, r9, fp, ip, sp}
     198:	3f13490b 	svccc	0x0013490b
     19c:	00193c19 	andseq	r3, r9, r9, lsl ip
     1a0:	00342000 	eorseq	r2, r4, r0
     1a4:	0b3a0e03 	bleq	e839b8 <__bss_end__+0xe79a58>
     1a8:	0b390b3b 	bleq	e42e9c <__bss_end__+0xe38f3c>
     1ac:	193f1349 	ldmdbne	pc!, {r0, r3, r6, r8, r9, ip}	; <UNPREDICTABLE>
     1b0:	0000193c 	andeq	r1, r0, ip, lsr r9
     1b4:	3f012e21 	svccc	0x00012e21
     1b8:	3a0e0319 	bcc	380e24 <__bss_end__+0x376ec4>
     1bc:	390b3b0b 	stmdbcc	fp, {r0, r1, r3, r8, r9, fp, ip, sp}
     1c0:	1119270b 	tstne	r9, fp, lsl #14
     1c4:	40061201 	andmi	r1, r6, r1, lsl #4
     1c8:	19429718 	stmdbne	r2, {r3, r4, r8, r9, sl, ip, pc}^
     1cc:	00001301 	andeq	r1, r0, r1, lsl #6
     1d0:	03003422 	movweq	r3, #1058	; 0x422
     1d4:	3b0b3a08 	blcc	2ce9fc <__bss_end__+0x2c4a9c>
     1d8:	490b390b 	stmdbmi	fp, {r0, r1, r3, r8, fp, ip, sp}
     1dc:	00061c13 	andeq	r1, r6, r3, lsl ip
     1e0:	00342300 	eorseq	r2, r4, r0, lsl #6
     1e4:	0b3a0803 	bleq	e821f8 <__bss_end__+0xe78298>
     1e8:	0b390b3b 	bleq	e42edc <__bss_end__+0xe38f7c>
     1ec:	17021349 	strne	r1, [r2, -r9, asr #6]
     1f0:	001742b7 			; <UNDEFINED> instruction: 0x001742b7
     1f4:	00342400 	eorseq	r2, r4, r0, lsl #8
     1f8:	13490e03 	movtne	r0, #40451	; 0x9e03
     1fc:	18021934 	stmdane	r2, {r2, r4, r5, r8, fp, ip}
     200:	89250000 	stmdbhi	r5!, {}	; <UNPREDICTABLE>
     204:	11010182 	smlabbne	r1, r2, r1, r0
     208:	01133101 	tsteq	r3, r1, lsl #2
     20c:	26000013 			; <UNDEFINED> instruction: 0x26000013
     210:	0001828a 	andeq	r8, r1, sl, lsl #5
     214:	42911802 	addsmi	r1, r1, #131072	; 0x20000
     218:	27000018 	smladcs	r0, r8, r0, r0
     21c:	01018289 	smlabbeq	r1, r9, r2, r8
     220:	13310111 	teqne	r1, #1073741828	; 0x40000004
     224:	2e280000 	cdpcs	0, 2, cr0, cr8, cr0, {0}
     228:	3c193f00 	ldccc	15, cr3, [r9], {-0}
     22c:	030e6e19 	movweq	r6, #60953	; 0xee19
     230:	3b0b3a0e 	blcc	2cea70 <__bss_end__+0x2c4b10>
     234:	000b390b 	andeq	r3, fp, fp, lsl #18
     238:	11010000 	mrsne	r0, (UNDEF: 1)
     23c:	130e2501 	movwne	r2, #58625	; 0xe501
     240:	1b0e030b 	blne	380e74 <__bss_end__+0x376f14>
     244:	1201110e 	andne	r1, r1, #-2147483645	; 0x80000003
     248:	00171006 	andseq	r1, r7, r6
     24c:	00240200 	eoreq	r0, r4, r0, lsl #4
     250:	0b3e0b0b 	bleq	f82e84 <__bss_end__+0xf78f24>
     254:	00000803 	andeq	r0, r0, r3, lsl #16
     258:	0b002403 	bleq	926c <uart_can_putc>
     25c:	030b3e0b 	movweq	r3, #48651	; 0xbe0b
     260:	0400000e 	streq	r0, [r0], #-14
     264:	0e030016 	mcreq	0, 0, r0, cr3, cr6, {0}
     268:	0b3b0b3a 	bleq	ec2f58 <__bss_end__+0xeb8ff8>
     26c:	13490b39 	movtne	r0, #39737	; 0x9b39
     270:	0f050000 	svceq	0x00050000
     274:	490b0b00 	stmdbmi	fp, {r8, r9, fp}
     278:	06000013 			; <UNDEFINED> instruction: 0x06000013
     27c:	0e030013 	mcreq	0, 0, r0, cr3, cr3, {0}
     280:	0000193c 	andeq	r1, r0, ip, lsr r9
     284:	03001607 	movweq	r1, #1543	; 0x607
     288:	3b0b3a0e 	blcc	2ceac8 <__bss_end__+0x2c4b68>
     28c:	490b3905 	stmdbmi	fp, {r0, r2, r8, fp, ip, sp}
     290:	08000013 	stmdaeq	r0, {r0, r1, r4}
     294:	0b0b0117 	bleq	2c06f8 <__bss_end__+0x2b6798>
     298:	0b3b0b3a 	bleq	ec2f88 <__bss_end__+0xeb9028>
     29c:	13010b39 	movwne	r0, #6969	; 0x1b39
     2a0:	0d090000 	stceq	0, cr0, [r9, #-0]
     2a4:	3a0e0300 	bcc	380eac <__bss_end__+0x376f4c>
     2a8:	390b3b0b 	stmdbcc	fp, {r0, r1, r3, r8, r9, fp, ip, sp}
     2ac:	0013490b 	andseq	r4, r3, fp, lsl #18
     2b0:	01010a00 	tsteq	r1, r0, lsl #20
     2b4:	13011349 	movwne	r1, #4937	; 0x1349
     2b8:	210b0000 	mrscs	r0, (UNDEF: 11)
     2bc:	2f134900 	svccs	0x00134900
     2c0:	0c00000b 	stceq	0, cr0, [r0], {11}
     2c4:	0b0b0113 	bleq	2c0718 <__bss_end__+0x2b67b8>
     2c8:	0b3b0b3a 	bleq	ec2fb8 <__bss_end__+0xeb9058>
     2cc:	13010b39 	movwne	r0, #6969	; 0x1b39
     2d0:	0d0d0000 	stceq	0, cr0, [sp, #-0]
     2d4:	3a0e0300 	bcc	380edc <__bss_end__+0x376f7c>
     2d8:	390b3b0b 	stmdbcc	fp, {r0, r1, r3, r8, r9, fp, ip, sp}
     2dc:	3813490b 	ldmdacc	r3, {r0, r1, r3, r8, fp, lr}
     2e0:	0e00000b 	cdpeq	0, 0, cr0, cr0, cr11, {0}
     2e4:	0b0b000f 	bleq	2c0328 <__bss_end__+0x2b63c8>
     2e8:	260f0000 	strcs	r0, [pc], -r0
     2ec:	00134900 	andseq	r4, r3, r0, lsl #18
     2f0:	01131000 	tsteq	r3, r0
     2f4:	0b0b0e03 	bleq	2c3b08 <__bss_end__+0x2b9ba8>
     2f8:	0b3b0b3a 	bleq	ec2fe8 <__bss_end__+0xeb9088>
     2fc:	13010b39 	movwne	r0, #6969	; 0x1b39
     300:	0d110000 	ldceq	0, cr0, [r1, #-0]
     304:	3a080300 	bcc	200f0c <__bss_end__+0x1f6fac>
     308:	390b3b0b 	stmdbcc	fp, {r0, r1, r3, r8, r9, fp, ip, sp}
     30c:	3813490b 	ldmdacc	r3, {r0, r1, r3, r8, fp, lr}
     310:	1200000b 	andne	r0, r0, #11
     314:	0e030113 	mcreq	1, 0, r0, cr3, cr3, {0}
     318:	0b3a050b 	bleq	e8174c <__bss_end__+0xe777ec>
     31c:	0b390b3b 	bleq	e43010 <__bss_end__+0xe390b0>
     320:	00001301 	andeq	r1, r0, r1, lsl #6
     324:	03000d13 	movweq	r0, #3347	; 0xd13
     328:	3b0b3a0e 	blcc	2ceb68 <__bss_end__+0x2c4c08>
     32c:	490b390b 	stmdbmi	fp, {r0, r1, r3, r8, fp, ip, sp}
     330:	00053813 	andeq	r3, r5, r3, lsl r8
     334:	00151400 	andseq	r1, r5, r0, lsl #8
     338:	00001927 	andeq	r1, r0, r7, lsr #18
     33c:	27011515 	smladcs	r1, r5, r5, r1
     340:	01134919 	tsteq	r3, r9, lsl r9
     344:	16000013 			; <UNDEFINED> instruction: 0x16000013
     348:	13490005 	movtne	r0, #36869	; 0x9005
     34c:	13170000 	tstne	r7, #0
     350:	0b0e0301 	bleq	380f5c <__bss_end__+0x376ffc>
     354:	3b0b3a05 	blcc	2ceb70 <__bss_end__+0x2c4c10>
     358:	010b3905 	tsteq	fp, r5, lsl #18
     35c:	18000013 	stmdane	r0, {r0, r1, r4}
     360:	0e03000d 	cdpeq	0, 0, cr0, cr3, cr13, {0}
     364:	053b0b3a 	ldreq	r0, [fp, #-2874]!	; 0xfffff4c6
     368:	13490b39 	movtne	r0, #39737	; 0x9b39
     36c:	00000b38 	andeq	r0, r0, r8, lsr fp
     370:	03000d19 	movweq	r0, #3353	; 0xd19
     374:	3b0b3a0e 	blcc	2cebb4 <__bss_end__+0x2c4c54>
     378:	490b3905 	stmdbmi	fp, {r0, r2, r8, fp, ip, sp}
     37c:	00053813 	andeq	r3, r5, r3, lsl r8
     380:	01131a00 	tsteq	r3, r0, lsl #20
     384:	0b0b0e03 	bleq	2c3b98 <__bss_end__+0x2b9c38>
     388:	053b0b3a 	ldreq	r0, [fp, #-2874]!	; 0xfffff4c6
     38c:	13010b39 	movwne	r0, #6969	; 0x1b39
     390:	131b0000 	tstne	fp, #0
     394:	3a0b0b01 	bcc	2c2fa0 <__bss_end__+0x2b9040>
     398:	39053b0b 	stmdbcc	r5, {r0, r1, r3, r8, r9, fp, ip, sp}
     39c:	0013010b 	andseq	r0, r3, fp, lsl #2
     3a0:	01171c00 	tsteq	r7, r0, lsl #24
     3a4:	0b3a0b0b 	bleq	e82fd8 <__bss_end__+0xe79078>
     3a8:	0b39053b 	bleq	e4189c <__bss_end__+0xe3793c>
     3ac:	00001301 	andeq	r1, r0, r1, lsl #6
     3b0:	03000d1d 	movweq	r0, #3357	; 0xd1d
     3b4:	3b0b3a0e 	blcc	2cebf4 <__bss_end__+0x2c4c94>
     3b8:	490b3905 	stmdbmi	fp, {r0, r2, r8, fp, ip, sp}
     3bc:	1e000013 	mcrne	0, 0, r0, cr0, cr3, {0}
     3c0:	19270115 	stmdbne	r7!, {r0, r2, r4, r8}
     3c4:	00001301 	andeq	r1, r0, r1, lsl #6
     3c8:	0300341f 	movweq	r3, #1055	; 0x41f
     3cc:	3b0b3a0e 	blcc	2cec0c <__bss_end__+0x2c4cac>
     3d0:	490b3905 	stmdbmi	fp, {r0, r2, r8, fp, ip, sp}
     3d4:	3c193f13 	ldccc	15, cr3, [r9], {19}
     3d8:	20000019 	andcs	r0, r0, r9, lsl r0
     3dc:	0e030034 	mcreq	0, 0, r0, cr3, cr4, {1}
     3e0:	0b3b0b3a 	bleq	ec30d0 <__bss_end__+0xeb9170>
     3e4:	13490b39 	movtne	r0, #39737	; 0x9b39
     3e8:	193c193f 	ldmdbne	ip!, {r0, r1, r2, r3, r4, r5, r8, fp, ip}
     3ec:	04210000 	strteq	r0, [r1], #-0
     3f0:	0b0b3e01 	bleq	2cfbfc <__bss_end__+0x2c5c9c>
     3f4:	3a13490b 	bcc	4d2828 <__bss_end__+0x4c88c8>
     3f8:	390b3b0b 	stmdbcc	fp, {r0, r1, r3, r8, r9, fp, ip, sp}
     3fc:	0013010b 	andseq	r0, r3, fp, lsl #2
     400:	00282200 	eoreq	r2, r8, r0, lsl #4
     404:	0b1c0e03 	bleq	703c18 <__bss_end__+0x6f9cb8>
     408:	28230000 	stmdacs	r3!, {}	; <UNPREDICTABLE>
     40c:	1c0e0300 	stcne	3, cr0, [lr], {-0}
     410:	24000005 	strcs	r0, [r0], #-5
     414:	0e030034 	mcreq	0, 0, r0, cr3, cr4, {1}
     418:	0b3b0b3a 	bleq	ec3108 <__bss_end__+0xeb91a8>
     41c:	13490b39 	movtne	r0, #39737	; 0x9b39
     420:	00001802 	andeq	r1, r0, r2, lsl #16
     424:	3f012e25 	svccc	0x00012e25
     428:	3a0e0319 	bcc	381094 <__bss_end__+0x377134>
     42c:	390b3b0b 	stmdbcc	fp, {r0, r1, r3, r8, r9, fp, ip, sp}
     430:	4919270b 	ldmdbmi	r9, {r0, r1, r3, r8, r9, sl, sp}
     434:	12011113 	andne	r1, r1, #-1073741820	; 0xc0000004
     438:	97184006 	ldrls	r4, [r8, -r6]
     43c:	13011942 	movwne	r1, #6466	; 0x1942
     440:	34260000 	strtcc	r0, [r6], #-0
     444:	3a0e0300 	bcc	38104c <__bss_end__+0x3770ec>
     448:	390b3b0b 	stmdbcc	fp, {r0, r1, r3, r8, r9, fp, ip, sp}
     44c:	0213490b 	andseq	r4, r3, #180224	; 0x2c000
     450:	1742b717 	smlaldne	fp, r2, r7, r7
     454:	0b270000 	bleq	9c045c <__bss_end__+0x9b64fc>
     458:	01175501 	tsteq	r7, r1, lsl #10
     45c:	28000013 	stmdacs	r0, {r0, r1, r4}
     460:	01018289 	smlabbeq	r1, r9, r2, r8
     464:	13310111 	teqne	r1, #1073741828	; 0x40000004
     468:	00001301 	andeq	r1, r0, r1, lsl #6
     46c:	01828a29 	orreq	r8, r2, r9, lsr #20
     470:	91180200 	tstls	r8, r0, lsl #4
     474:	00001842 	andeq	r1, r0, r2, asr #16
     478:	0182892a 	orreq	r8, r2, sl, lsr #18
     47c:	31011101 	tstcc	r1, r1, lsl #2
     480:	2b000013 	blcs	4d4 <_start-0x7b2c>
     484:	0e030005 	cdpeq	0, 0, cr0, cr3, cr5, {0}
     488:	0b3b0b3a 	bleq	ec3178 <__bss_end__+0xeb9218>
     48c:	13490b39 	movtne	r0, #39737	; 0x9b39
     490:	42b71702 	adcsmi	r1, r7, #524288	; 0x80000
     494:	2c000017 	stccs	0, cr0, [r0], {23}
     498:	08030034 	stmdaeq	r3, {r2, r4, r5}
     49c:	0b3b0b3a 	bleq	ec318c <__bss_end__+0xeb922c>
     4a0:	13490b39 	movtne	r0, #39737	; 0x9b39
     4a4:	42b71702 	adcsmi	r1, r7, #524288	; 0x80000
     4a8:	2d000017 	stccs	0, cr0, [r0, #-92]	; 0xffffffa4
     4ac:	0e030034 	mcreq	0, 0, r0, cr3, cr4, {1}
     4b0:	19341349 	ldmdbne	r4!, {r0, r3, r6, r8, r9, ip}
     4b4:	00001802 	andeq	r1, r0, r2, lsl #16
     4b8:	0182892e 	orreq	r8, r2, lr, lsr #18
     4bc:	31011100 	mrscc	r1, (UNDEF: 17)
     4c0:	2f000013 	svccs	0x00000013
     4c4:	193f012e 	ldmdbne	pc!, {r1, r2, r3, r5, r8}	; <UNPREDICTABLE>
     4c8:	0b3a0e03 	bleq	e83cdc <__bss_end__+0xe79d7c>
     4cc:	0b390b3b 	bleq	e431c0 <__bss_end__+0xe39260>
     4d0:	01111927 	tsteq	r1, r7, lsr #18
     4d4:	18400612 	stmdane	r0, {r1, r4, r9, sl}^
     4d8:	01194297 			; <UNDEFINED> instruction: 0x01194297
     4dc:	30000013 	andcc	r0, r0, r3, lsl r0
     4e0:	0e03012e 	adfeqsp	f0, f3, #0.5
     4e4:	0b3b0b3a 	bleq	ec31d4 <__bss_end__+0xeb9274>
     4e8:	19270b39 	stmdbne	r7!, {r0, r3, r4, r5, r8, r9, fp}
     4ec:	01111349 	tsteq	r1, r9, asr #6
     4f0:	18400612 	stmdane	r0, {r1, r4, r9, sl}^
     4f4:	01194297 			; <UNDEFINED> instruction: 0x01194297
     4f8:	31000013 	tstcc	r0, r3, lsl r0
     4fc:	08030005 	stmdaeq	r3, {r0, r2}
     500:	0b3b0b3a 	bleq	ec31f0 <__bss_end__+0xeb9290>
     504:	13490b39 	movtne	r0, #39737	; 0x9b39
     508:	42b71702 	adcsmi	r1, r7, #524288	; 0x80000
     50c:	32000017 	andcc	r0, r0, #23
     510:	0e03012e 	adfeqsp	f0, f3, #0.5
     514:	0b3b0b3a 	bleq	ec3204 <__bss_end__+0xeb92a4>
     518:	19270b39 	stmdbne	r7!, {r0, r3, r4, r5, r8, r9, fp}
     51c:	06120111 			; <UNDEFINED> instruction: 0x06120111
     520:	42971840 	addsmi	r1, r7, #64, 16	; 0x400000
     524:	00130119 	andseq	r0, r3, r9, lsl r1
     528:	010b3300 	mrseq	r3, (UNDEF: 59)
     52c:	06120111 			; <UNDEFINED> instruction: 0x06120111
     530:	1d340000 	ldcne	0, cr0, [r4, #-0]
     534:	52133101 	andspl	r3, r3, #1073741824	; 0x40000000
     538:	0b42b801 	bleq	10ae544 <__bss_end__+0x10a45e4>
     53c:	0b581755 	bleq	1606298 <__bss_end__+0x15fc338>
     540:	0b570b59 	bleq	15c32ac <__bss_end__+0x15b934c>
     544:	00001301 	andeq	r1, r0, r1, lsl #6
     548:	31000535 	tstcc	r0, r5, lsr r5
     54c:	b7170213 			; <UNDEFINED> instruction: 0xb7170213
     550:	00001742 	andeq	r1, r0, r2, asr #14
     554:	55010b36 	strpl	r0, [r1, #-2870]	; 0xfffff4ca
     558:	37000017 	smladcc	r0, r7, r0, r0
     55c:	13310034 	teqne	r1, #52	; 0x34
     560:	42b71702 	adcsmi	r1, r7, #524288	; 0x80000
     564:	38000017 	stmdacc	r0, {r0, r1, r2, r4}
     568:	0e03012e 	adfeqsp	f0, f3, #0.5
     56c:	0b3b0b3a 	bleq	ec325c <__bss_end__+0xeb92fc>
     570:	19270b39 	stmdbne	r7!, {r0, r3, r4, r5, r8, r9, fp}
     574:	13010b20 	movwne	r0, #6944	; 0x1b20
     578:	05390000 	ldreq	r0, [r9, #-0]!
     57c:	3a080300 	bcc	201184 <__bss_end__+0x1f7224>
     580:	390b3b0b 	stmdbcc	fp, {r0, r1, r3, r8, r9, fp, ip, sp}
     584:	0013490b 	andseq	r4, r3, fp, lsl #18
     588:	00343a00 	eorseq	r3, r4, r0, lsl #20
     58c:	0b3a0803 	bleq	e825a0 <__bss_end__+0xe78640>
     590:	0b390b3b 	bleq	e43284 <__bss_end__+0xe39324>
     594:	00001349 	andeq	r1, r0, r9, asr #6
     598:	3f002e3b 	svccc	0x00002e3b
     59c:	6e193c19 	mrcvs	12, 0, r3, cr9, cr9, {0}
     5a0:	3a0e030e 	bcc	3811e0 <__bss_end__+0x377280>
     5a4:	390b3b0b 	stmdbcc	fp, {r0, r1, r3, r8, r9, fp, ip, sp}
     5a8:	0000000b 	andeq	r0, r0, fp
     5ac:	25011101 	strcs	r1, [r1, #-257]	; 0xfffffeff
     5b0:	030b130e 	movweq	r1, #45838	; 0xb30e
     5b4:	110e1b0e 	tstne	lr, lr, lsl #22
     5b8:	10061201 	andne	r1, r6, r1, lsl #4
     5bc:	02000017 	andeq	r0, r0, #23
     5c0:	0b0b0024 	bleq	2c0658 <__bss_end__+0x2b66f8>
     5c4:	08030b3e 	stmdaeq	r3, {r1, r2, r3, r4, r5, r8, r9, fp}
     5c8:	24030000 	strcs	r0, [r3], #-0
     5cc:	3e0b0b00 	vmlacc.f64	d0, d11, d0
     5d0:	000e030b 	andeq	r0, lr, fp, lsl #6
     5d4:	00160400 	andseq	r0, r6, r0, lsl #8
     5d8:	0b3a0e03 	bleq	e83dec <__bss_end__+0xe79e8c>
     5dc:	0b390b3b 	bleq	e432d0 <__bss_end__+0xe39370>
     5e0:	00001349 	andeq	r1, r0, r9, asr #6
     5e4:	0b000f05 	bleq	4200 <_start-0x3e00>
     5e8:	0013490b 	andseq	r4, r3, fp, lsl #18
     5ec:	00130600 	andseq	r0, r3, r0, lsl #12
     5f0:	193c0e03 	ldmdbne	ip!, {r0, r1, r9, sl, fp}
     5f4:	16070000 	strne	r0, [r7], -r0
     5f8:	3a0e0300 	bcc	381200 <__bss_end__+0x3772a0>
     5fc:	39053b0b 	stmdbcc	r5, {r0, r1, r3, r8, r9, fp, ip, sp}
     600:	0013490b 	andseq	r4, r3, fp, lsl #18
     604:	01170800 	tsteq	r7, r0, lsl #16
     608:	0b3a0b0b 	bleq	e8323c <__bss_end__+0xe792dc>
     60c:	0b390b3b 	bleq	e43300 <__bss_end__+0xe393a0>
     610:	00001301 	andeq	r1, r0, r1, lsl #6
     614:	03000d09 	movweq	r0, #3337	; 0xd09
     618:	3b0b3a0e 	blcc	2cee58 <__bss_end__+0x2c4ef8>
     61c:	490b390b 	stmdbmi	fp, {r0, r1, r3, r8, fp, ip, sp}
     620:	0a000013 	beq	674 <_start-0x798c>
     624:	13490101 	movtne	r0, #37121	; 0x9101
     628:	00001301 	andeq	r1, r0, r1, lsl #6
     62c:	4900210b 	stmdbmi	r0, {r0, r1, r3, r8, sp}
     630:	000b2f13 	andeq	r2, fp, r3, lsl pc
     634:	01130c00 	tsteq	r3, r0, lsl #24
     638:	0b3a0b0b 	bleq	e8326c <__bss_end__+0xe7930c>
     63c:	0b390b3b 	bleq	e43330 <__bss_end__+0xe393d0>
     640:	00001301 	andeq	r1, r0, r1, lsl #6
     644:	03000d0d 	movweq	r0, #3341	; 0xd0d
     648:	3b0b3a0e 	blcc	2cee88 <__bss_end__+0x2c4f28>
     64c:	490b390b 	stmdbmi	fp, {r0, r1, r3, r8, fp, ip, sp}
     650:	000b3813 	andeq	r3, fp, r3, lsl r8
     654:	000f0e00 	andeq	r0, pc, r0, lsl #28
     658:	00000b0b 	andeq	r0, r0, fp, lsl #22
     65c:	4900260f 	stmdbmi	r0, {r0, r1, r2, r3, r9, sl, sp}
     660:	10000013 	andne	r0, r0, r3, lsl r0
     664:	0e030113 	mcreq	1, 0, r0, cr3, cr3, {0}
     668:	0b3a0b0b 	bleq	e8329c <__bss_end__+0xe7933c>
     66c:	0b390b3b 	bleq	e43360 <__bss_end__+0xe39400>
     670:	00001301 	andeq	r1, r0, r1, lsl #6
     674:	03000d11 	movweq	r0, #3345	; 0xd11
     678:	3b0b3a08 	blcc	2ceea0 <__bss_end__+0x2c4f40>
     67c:	490b390b 	stmdbmi	fp, {r0, r1, r3, r8, fp, ip, sp}
     680:	000b3813 	andeq	r3, fp, r3, lsl r8
     684:	01131200 	tsteq	r3, r0, lsl #4
     688:	050b0e03 	streq	r0, [fp, #-3587]	; 0xfffff1fd
     68c:	0b3b0b3a 	bleq	ec337c <__bss_end__+0xeb941c>
     690:	13010b39 	movwne	r0, #6969	; 0x1b39
     694:	0d130000 	ldceq	0, cr0, [r3, #-0]
     698:	3a0e0300 	bcc	3812a0 <__bss_end__+0x377340>
     69c:	390b3b0b 	stmdbcc	fp, {r0, r1, r3, r8, r9, fp, ip, sp}
     6a0:	3813490b 	ldmdacc	r3, {r0, r1, r3, r8, fp, lr}
     6a4:	14000005 	strne	r0, [r0], #-5
     6a8:	19270015 	stmdbne	r7!, {r0, r2, r4}
     6ac:	15150000 	ldrne	r0, [r5, #-0]
     6b0:	49192701 	ldmdbmi	r9, {r0, r8, r9, sl, sp}
     6b4:	00130113 	andseq	r0, r3, r3, lsl r1
     6b8:	00051600 	andeq	r1, r5, r0, lsl #12
     6bc:	00001349 	andeq	r1, r0, r9, asr #6
     6c0:	03011317 	movweq	r1, #4887	; 0x1317
     6c4:	3a050b0e 	bcc	143304 <__bss_end__+0x1393a4>
     6c8:	39053b0b 	stmdbcc	r5, {r0, r1, r3, r8, r9, fp, ip, sp}
     6cc:	0013010b 	andseq	r0, r3, fp, lsl #2
     6d0:	000d1800 	andeq	r1, sp, r0, lsl #16
     6d4:	0b3a0e03 	bleq	e83ee8 <__bss_end__+0xe79f88>
     6d8:	0b39053b 	bleq	e41bcc <__bss_end__+0xe37c6c>
     6dc:	0b381349 	bleq	e05408 <__bss_end__+0xdfb4a8>
     6e0:	0d190000 	ldceq	0, cr0, [r9, #-0]
     6e4:	3a0e0300 	bcc	3812ec <__bss_end__+0x37738c>
     6e8:	39053b0b 	stmdbcc	r5, {r0, r1, r3, r8, r9, fp, ip, sp}
     6ec:	3813490b 	ldmdacc	r3, {r0, r1, r3, r8, fp, lr}
     6f0:	1a000005 	bne	70c <_start-0x78f4>
     6f4:	0e030113 	mcreq	1, 0, r0, cr3, cr3, {0}
     6f8:	0b3a0b0b 	bleq	e8332c <__bss_end__+0xe793cc>
     6fc:	0b39053b 	bleq	e41bf0 <__bss_end__+0xe37c90>
     700:	00001301 	andeq	r1, r0, r1, lsl #6
     704:	0b01131b 	bleq	45378 <__bss_end__+0x3b418>
     708:	3b0b3a0b 	blcc	2cef3c <__bss_end__+0x2c4fdc>
     70c:	010b3905 	tsteq	fp, r5, lsl #18
     710:	1c000013 	stcne	0, cr0, [r0], {19}
     714:	0b0b0117 	bleq	2c0b78 <__bss_end__+0x2b6c18>
     718:	053b0b3a 	ldreq	r0, [fp, #-2874]!	; 0xfffff4c6
     71c:	13010b39 	movwne	r0, #6969	; 0x1b39
     720:	0d1d0000 	ldceq	0, cr0, [sp, #-0]
     724:	3a0e0300 	bcc	38132c <__bss_end__+0x3773cc>
     728:	39053b0b 	stmdbcc	r5, {r0, r1, r3, r8, r9, fp, ip, sp}
     72c:	0013490b 	andseq	r4, r3, fp, lsl #18
     730:	01151e00 	tsteq	r5, r0, lsl #28
     734:	13011927 	movwne	r1, #6439	; 0x1927
     738:	341f0000 	ldrcc	r0, [pc], #-0	; 740 <_start-0x78c0>
     73c:	3a0e0300 	bcc	381344 <__bss_end__+0x3773e4>
     740:	39053b0b 	stmdbcc	r5, {r0, r1, r3, r8, r9, fp, ip, sp}
     744:	3f13490b 	svccc	0x0013490b
     748:	00193c19 	andseq	r3, r9, r9, lsl ip
     74c:	00342000 	eorseq	r2, r4, r0
     750:	0b3a0e03 	bleq	e83f64 <__bss_end__+0xe7a004>
     754:	0b390b3b 	bleq	e43448 <__bss_end__+0xe394e8>
     758:	193f1349 	ldmdbne	pc!, {r0, r3, r6, r8, r9, ip}	; <UNPREDICTABLE>
     75c:	0000193c 	andeq	r1, r0, ip, lsr r9
     760:	3f012e21 	svccc	0x00012e21
     764:	3a0e0319 	bcc	3813d0 <__bss_end__+0x377470>
     768:	390b3b0b 	stmdbcc	fp, {r0, r1, r3, r8, r9, fp, ip, sp}
     76c:	4919270b 	ldmdbmi	r9, {r0, r1, r3, r8, r9, sl, sp}
     770:	12011113 	andne	r1, r1, #-1073741820	; 0xc0000004
     774:	97184006 	ldrls	r4, [r8, -r6]
     778:	13011942 	movwne	r1, #6466	; 0x1942
     77c:	05220000 	streq	r0, [r2, #-0]!
     780:	3a0e0300 	bcc	381388 <__bss_end__+0x377428>
     784:	390b3b0b 	stmdbcc	fp, {r0, r1, r3, r8, r9, fp, ip, sp}
     788:	0213490b 	andseq	r4, r3, #180224	; 0x2c000
     78c:	1742b717 	smlaldne	fp, r2, r7, r7
     790:	05230000 	streq	r0, [r3, #-0]!
     794:	3a080300 	bcc	20139c <__bss_end__+0x1f743c>
     798:	390b3b0b 	stmdbcc	fp, {r0, r1, r3, r8, r9, fp, ip, sp}
     79c:	0213490b 	andseq	r4, r3, #180224	; 0x2c000
     7a0:	1742b717 	smlaldne	fp, r2, r7, r7
     7a4:	34240000 	strtcc	r0, [r4], #-0
     7a8:	3a0e0300 	bcc	3813b0 <__bss_end__+0x377450>
     7ac:	390b3b0b 	stmdbcc	fp, {r0, r1, r3, r8, r9, fp, ip, sp}
     7b0:	0213490b 	andseq	r4, r3, #180224	; 0x2c000
     7b4:	1742b717 	smlaldne	fp, r2, r7, r7
     7b8:	34250000 	strtcc	r0, [r5], #-0
     7bc:	3a080300 	bcc	2013c4 <__bss_end__+0x1f7464>
     7c0:	390b3b0b 	stmdbcc	fp, {r0, r1, r3, r8, r9, fp, ip, sp}
     7c4:	0213490b 	andseq	r4, r3, #180224	; 0x2c000
     7c8:	1742b717 	smlaldne	fp, r2, r7, r7
     7cc:	26260000 	strtcs	r0, [r6], -r0
     7d0:	00000000 	andeq	r0, r0, r0
     7d4:	25011101 	strcs	r1, [r1, #-257]	; 0xfffffeff
     7d8:	030b130e 	movweq	r1, #45838	; 0xb30e
     7dc:	110e1b0e 	tstne	lr, lr, lsl #22
     7e0:	10061201 	andne	r1, r6, r1, lsl #4
     7e4:	02000017 	andeq	r0, r0, #23
     7e8:	0b0b0024 	bleq	2c0880 <__bss_end__+0x2b6920>
     7ec:	08030b3e 	stmdaeq	r3, {r1, r2, r3, r4, r5, r8, r9, fp}
     7f0:	16030000 	strne	r0, [r3], -r0
     7f4:	3a0e0300 	bcc	3813fc <__bss_end__+0x37749c>
     7f8:	390b3b0b 	stmdbcc	fp, {r0, r1, r3, r8, r9, fp, ip, sp}
     7fc:	0013490b 	andseq	r4, r3, fp, lsl #18
     800:	00240400 	eoreq	r0, r4, r0, lsl #8
     804:	0b3e0b0b 	bleq	f83438 <__bss_end__+0xf794d8>
     808:	00000e03 	andeq	r0, r0, r3, lsl #28
     80c:	0b000f05 	bleq	4428 <_start-0x3bd8>
     810:	0013490b 	andseq	r4, r3, fp, lsl #18
     814:	00130600 	andseq	r0, r3, r0, lsl #12
     818:	193c0e03 	ldmdbne	ip!, {r0, r1, r9, sl, fp}
     81c:	16070000 	strne	r0, [r7], -r0
     820:	3a0e0300 	bcc	381428 <__bss_end__+0x3774c8>
     824:	39053b0b 	stmdbcc	r5, {r0, r1, r3, r8, r9, fp, ip, sp}
     828:	0013490b 	andseq	r4, r3, fp, lsl #18
     82c:	01170800 	tsteq	r7, r0, lsl #16
     830:	0b3a0b0b 	bleq	e83464 <__bss_end__+0xe79504>
     834:	0b390b3b 	bleq	e43528 <__bss_end__+0xe395c8>
     838:	00001301 	andeq	r1, r0, r1, lsl #6
     83c:	03000d09 	movweq	r0, #3337	; 0xd09
     840:	3b0b3a0e 	blcc	2cf080 <__bss_end__+0x2c5120>
     844:	490b390b 	stmdbmi	fp, {r0, r1, r3, r8, fp, ip, sp}
     848:	0a000013 	beq	89c <_start-0x7764>
     84c:	13490101 	movtne	r0, #37121	; 0x9101
     850:	00001301 	andeq	r1, r0, r1, lsl #6
     854:	4900210b 	stmdbmi	r0, {r0, r1, r3, r8, sp}
     858:	000b2f13 	andeq	r2, fp, r3, lsl pc
     85c:	01130c00 	tsteq	r3, r0, lsl #24
     860:	0b3a0b0b 	bleq	e83494 <__bss_end__+0xe79534>
     864:	0b390b3b 	bleq	e43558 <__bss_end__+0xe395f8>
     868:	00001301 	andeq	r1, r0, r1, lsl #6
     86c:	03000d0d 	movweq	r0, #3341	; 0xd0d
     870:	3b0b3a0e 	blcc	2cf0b0 <__bss_end__+0x2c5150>
     874:	490b390b 	stmdbmi	fp, {r0, r1, r3, r8, fp, ip, sp}
     878:	000b3813 	andeq	r3, fp, r3, lsl r8
     87c:	000f0e00 	andeq	r0, pc, r0, lsl #28
     880:	00000b0b 	andeq	r0, r0, fp, lsl #22
     884:	4900260f 	stmdbmi	r0, {r0, r1, r2, r3, r9, sl, sp}
     888:	10000013 	andne	r0, r0, r3, lsl r0
     88c:	0e030113 	mcreq	1, 0, r0, cr3, cr3, {0}
     890:	0b3a0b0b 	bleq	e834c4 <__bss_end__+0xe79564>
     894:	0b390b3b 	bleq	e43588 <__bss_end__+0xe39628>
     898:	00001301 	andeq	r1, r0, r1, lsl #6
     89c:	03000d11 	movweq	r0, #3345	; 0xd11
     8a0:	3b0b3a08 	blcc	2cf0c8 <__bss_end__+0x2c5168>
     8a4:	490b390b 	stmdbmi	fp, {r0, r1, r3, r8, fp, ip, sp}
     8a8:	000b3813 	andeq	r3, fp, r3, lsl r8
     8ac:	01131200 	tsteq	r3, r0, lsl #4
     8b0:	050b0e03 	streq	r0, [fp, #-3587]	; 0xfffff1fd
     8b4:	0b3b0b3a 	bleq	ec35a4 <__bss_end__+0xeb9644>
     8b8:	13010b39 	movwne	r0, #6969	; 0x1b39
     8bc:	0d130000 	ldceq	0, cr0, [r3, #-0]
     8c0:	3a0e0300 	bcc	3814c8 <__bss_end__+0x377568>
     8c4:	390b3b0b 	stmdbcc	fp, {r0, r1, r3, r8, r9, fp, ip, sp}
     8c8:	3813490b 	ldmdacc	r3, {r0, r1, r3, r8, fp, lr}
     8cc:	14000005 	strne	r0, [r0], #-5
     8d0:	19270015 	stmdbne	r7!, {r0, r2, r4}
     8d4:	15150000 	ldrne	r0, [r5, #-0]
     8d8:	49192701 	ldmdbmi	r9, {r0, r8, r9, sl, sp}
     8dc:	00130113 	andseq	r0, r3, r3, lsl r1
     8e0:	00051600 	andeq	r1, r5, r0, lsl #12
     8e4:	00001349 	andeq	r1, r0, r9, asr #6
     8e8:	03011317 	movweq	r1, #4887	; 0x1317
     8ec:	3a050b0e 	bcc	14352c <__bss_end__+0x1395cc>
     8f0:	39053b0b 	stmdbcc	r5, {r0, r1, r3, r8, r9, fp, ip, sp}
     8f4:	0013010b 	andseq	r0, r3, fp, lsl #2
     8f8:	000d1800 	andeq	r1, sp, r0, lsl #16
     8fc:	0b3a0e03 	bleq	e84110 <__bss_end__+0xe7a1b0>
     900:	0b39053b 	bleq	e41df4 <__bss_end__+0xe37e94>
     904:	0b381349 	bleq	e05630 <__bss_end__+0xdfb6d0>
     908:	0d190000 	ldceq	0, cr0, [r9, #-0]
     90c:	3a0e0300 	bcc	381514 <__bss_end__+0x3775b4>
     910:	39053b0b 	stmdbcc	r5, {r0, r1, r3, r8, r9, fp, ip, sp}
     914:	3813490b 	ldmdacc	r3, {r0, r1, r3, r8, fp, lr}
     918:	1a000005 	bne	934 <_start-0x76cc>
     91c:	0e030113 	mcreq	1, 0, r0, cr3, cr3, {0}
     920:	0b3a0b0b 	bleq	e83554 <__bss_end__+0xe795f4>
     924:	0b39053b 	bleq	e41e18 <__bss_end__+0xe37eb8>
     928:	00001301 	andeq	r1, r0, r1, lsl #6
     92c:	0b01131b 	bleq	455a0 <__bss_end__+0x3b640>
     930:	3b0b3a0b 	blcc	2cf164 <__bss_end__+0x2c5204>
     934:	010b3905 	tsteq	fp, r5, lsl #18
     938:	1c000013 	stcne	0, cr0, [r0], {19}
     93c:	0b0b0117 	bleq	2c0da0 <__bss_end__+0x2b6e40>
     940:	053b0b3a 	ldreq	r0, [fp, #-2874]!	; 0xfffff4c6
     944:	13010b39 	movwne	r0, #6969	; 0x1b39
     948:	0d1d0000 	ldceq	0, cr0, [sp, #-0]
     94c:	3a0e0300 	bcc	381554 <__bss_end__+0x3775f4>
     950:	39053b0b 	stmdbcc	r5, {r0, r1, r3, r8, r9, fp, ip, sp}
     954:	0013490b 	andseq	r4, r3, fp, lsl #18
     958:	01151e00 	tsteq	r5, r0, lsl #28
     95c:	13011927 	movwne	r1, #6439	; 0x1927
     960:	341f0000 	ldrcc	r0, [pc], #-0	; 968 <_start-0x7698>
     964:	3a0e0300 	bcc	38156c <__bss_end__+0x37760c>
     968:	39053b0b 	stmdbcc	r5, {r0, r1, r3, r8, r9, fp, ip, sp}
     96c:	3f13490b 	svccc	0x0013490b
     970:	00193c19 	andseq	r3, r9, r9, lsl ip
     974:	012e2000 			; <UNDEFINED> instruction: 0x012e2000
     978:	0e03193f 			; <UNDEFINED> instruction: 0x0e03193f
     97c:	0b3b0b3a 	bleq	ec366c <__bss_end__+0xeb970c>
     980:	19270b39 	stmdbne	r7!, {r0, r3, r4, r5, r8, r9, fp}
     984:	01111349 	tsteq	r1, r9, asr #6
     988:	18400612 	stmdane	r0, {r1, r4, r9, sl}^
     98c:	00194297 	mulseq	r9, r7, r2
     990:	00052100 	andeq	r2, r5, r0, lsl #2
     994:	0b3a0803 	bleq	e829a8 <__bss_end__+0xe78a48>
     998:	0b390b3b 	bleq	e4368c <__bss_end__+0xe3972c>
     99c:	18021349 	stmdane	r2, {r0, r3, r6, r8, r9, ip}
     9a0:	05220000 	streq	r0, [r2, #-0]!
     9a4:	3a080300 	bcc	2015ac <__bss_end__+0x1f764c>
     9a8:	390b3b0b 	stmdbcc	fp, {r0, r1, r3, r8, r9, fp, ip, sp}
     9ac:	0213490b 	andseq	r4, r3, #180224	; 0x2c000
     9b0:	1742b717 	smlaldne	fp, r2, r7, r7
     9b4:	34230000 	strtcc	r0, [r3], #-0
     9b8:	3a080300 	bcc	2015c0 <__bss_end__+0x1f7660>
     9bc:	390b3b0b 	stmdbcc	fp, {r0, r1, r3, r8, r9, fp, ip, sp}
     9c0:	0213490b 	andseq	r4, r3, #180224	; 0x2c000
     9c4:	1742b717 	smlaldne	fp, r2, r7, r7
     9c8:	01000000 	mrseq	r0, (UNDEF: 0)
     9cc:	0e250111 	mcreq	1, 1, r0, cr5, cr1, {0}
     9d0:	0e030b13 	vmoveq.32	d3[0], r0
     9d4:	01110e1b 	tsteq	r1, fp, lsl lr
     9d8:	17100612 			; <UNDEFINED> instruction: 0x17100612
     9dc:	16020000 	strne	r0, [r2], -r0
     9e0:	3a0e0300 	bcc	3815e8 <__bss_end__+0x377688>
     9e4:	390b3b0b 	stmdbcc	fp, {r0, r1, r3, r8, r9, fp, ip, sp}
     9e8:	0013490b 	andseq	r4, r3, fp, lsl #18
     9ec:	01130300 	tsteq	r3, r0, lsl #6
     9f0:	0b0b0e03 	bleq	2c4204 <__bss_end__+0x2ba2a4>
     9f4:	0b3b0b3a 	bleq	ec36e4 <__bss_end__+0xeb9784>
     9f8:	00001301 	andeq	r1, r0, r1, lsl #6
     9fc:	03000d04 	movweq	r0, #3332	; 0xd04
     a00:	3813490e 	ldmdacc	r3, {r1, r2, r3, r8, fp, lr}
     a04:	0019340b 	andseq	r3, r9, fp, lsl #8
     a08:	000f0500 	andeq	r0, pc, r0, lsl #10
     a0c:	00000b0b 	andeq	r0, r0, fp, lsl #22
     a10:	0b002406 	bleq	9a30 <__FUNCTION__.4237>
     a14:	030b3e0b 	movweq	r3, #48651	; 0xbe0b
     a18:	07000008 	streq	r0, [r0, -r8]
     a1c:	0b0b0024 	bleq	2c0ab4 <__bss_end__+0x2b6b54>
     a20:	0e030b3e 	vmoveq.16	d3[0], r0
     a24:	0f080000 	svceq	0x00080000
     a28:	490b0b00 	stmdbmi	fp, {r8, r9, fp}
     a2c:	09000013 	stmdbeq	r0, {r0, r1, r4}
     a30:	0e030013 	mcreq	0, 0, r0, cr3, cr3, {0}
     a34:	0000193c 	andeq	r1, r0, ip, lsr r9
     a38:	0300160a 	movweq	r1, #1546	; 0x60a
     a3c:	3b0b3a0e 	blcc	2cf27c <__bss_end__+0x2c531c>
     a40:	490b3905 	stmdbmi	fp, {r0, r2, r8, fp, ip, sp}
     a44:	0b000013 	bleq	a98 <_start-0x7568>
     a48:	0b0b0117 	bleq	2c0eac <__bss_end__+0x2b6f4c>
     a4c:	0b3b0b3a 	bleq	ec373c <__bss_end__+0xeb97dc>
     a50:	13010b39 	movwne	r0, #6969	; 0x1b39
     a54:	0d0c0000 	stceq	0, cr0, [ip, #-0]
     a58:	3a0e0300 	bcc	381660 <__bss_end__+0x377700>
     a5c:	390b3b0b 	stmdbcc	fp, {r0, r1, r3, r8, r9, fp, ip, sp}
     a60:	0013490b 	andseq	r4, r3, fp, lsl #18
     a64:	01010d00 	tsteq	r1, r0, lsl #26
     a68:	13011349 	movwne	r1, #4937	; 0x1349
     a6c:	210e0000 	mrscs	r0, (UNDEF: 14)
     a70:	2f134900 	svccs	0x00134900
     a74:	0f00000b 	svceq	0x0000000b
     a78:	0b0b0113 	bleq	2c0ecc <__bss_end__+0x2b6f6c>
     a7c:	0b3b0b3a 	bleq	ec376c <__bss_end__+0xeb980c>
     a80:	13010b39 	movwne	r0, #6969	; 0x1b39
     a84:	0d100000 	ldceq	0, cr0, [r0, #-0]
     a88:	3a0e0300 	bcc	381690 <__bss_end__+0x377730>
     a8c:	390b3b0b 	stmdbcc	fp, {r0, r1, r3, r8, r9, fp, ip, sp}
     a90:	3813490b 	ldmdacc	r3, {r0, r1, r3, r8, fp, lr}
     a94:	1100000b 	tstne	r0, fp
     a98:	13490026 	movtne	r0, #36902	; 0x9026
     a9c:	13120000 	tstne	r2, #0
     aa0:	0b0e0301 	bleq	3816ac <__bss_end__+0x37774c>
     aa4:	3b0b3a0b 	blcc	2cf2d8 <__bss_end__+0x2c5378>
     aa8:	010b390b 	tsteq	fp, fp, lsl #18
     aac:	13000013 	movwne	r0, #19
     ab0:	0803000d 	stmdaeq	r3, {r0, r2, r3}
     ab4:	0b3b0b3a 	bleq	ec37a4 <__bss_end__+0xeb9844>
     ab8:	13490b39 	movtne	r0, #39737	; 0x9b39
     abc:	00000b38 	andeq	r0, r0, r8, lsr fp
     ac0:	03011314 	movweq	r1, #4884	; 0x1314
     ac4:	3a050b0e 	bcc	143704 <__bss_end__+0x1397a4>
     ac8:	390b3b0b 	stmdbcc	fp, {r0, r1, r3, r8, r9, fp, ip, sp}
     acc:	0013010b 	andseq	r0, r3, fp, lsl #2
     ad0:	000d1500 	andeq	r1, sp, r0, lsl #10
     ad4:	0b3a0e03 	bleq	e842e8 <__bss_end__+0xe7a388>
     ad8:	0b390b3b 	bleq	e437cc <__bss_end__+0xe3986c>
     adc:	05381349 	ldreq	r1, [r8, #-841]!	; 0xfffffcb7
     ae0:	15160000 	ldrne	r0, [r6, #-0]
     ae4:	00192700 	andseq	r2, r9, r0, lsl #14
     ae8:	01151700 	tsteq	r5, r0, lsl #14
     aec:	13491927 	movtne	r1, #39207	; 0x9927
     af0:	00001301 	andeq	r1, r0, r1, lsl #6
     af4:	49000518 	stmdbmi	r0, {r3, r4, r8, sl}
     af8:	19000013 	stmdbne	r0, {r0, r1, r4}
     afc:	0e030113 	mcreq	1, 0, r0, cr3, cr3, {0}
     b00:	0b3a050b 	bleq	e81f34 <__bss_end__+0xe77fd4>
     b04:	0b39053b 	bleq	e41ff8 <__bss_end__+0xe38098>
     b08:	00001301 	andeq	r1, r0, r1, lsl #6
     b0c:	03000d1a 	movweq	r0, #3354	; 0xd1a
     b10:	3b0b3a0e 	blcc	2cf350 <__bss_end__+0x2c53f0>
     b14:	490b3905 	stmdbmi	fp, {r0, r2, r8, fp, ip, sp}
     b18:	000b3813 	andeq	r3, fp, r3, lsl r8
     b1c:	000d1b00 	andeq	r1, sp, r0, lsl #22
     b20:	0b3a0e03 	bleq	e84334 <__bss_end__+0xe7a3d4>
     b24:	0b39053b 	bleq	e42018 <__bss_end__+0xe380b8>
     b28:	05381349 	ldreq	r1, [r8, #-841]!	; 0xfffffcb7
     b2c:	131c0000 	tstne	ip, #0
     b30:	0b0e0301 	bleq	38173c <__bss_end__+0x3777dc>
     b34:	3b0b3a0b 	blcc	2cf368 <__bss_end__+0x2c5408>
     b38:	010b3905 	tsteq	fp, r5, lsl #18
     b3c:	1d000013 	stcne	0, cr0, [r0, #-76]	; 0xffffffb4
     b40:	0b0b0113 	bleq	2c0f94 <__bss_end__+0x2b7034>
     b44:	053b0b3a 	ldreq	r0, [fp, #-2874]!	; 0xfffff4c6
     b48:	13010b39 	movwne	r0, #6969	; 0x1b39
     b4c:	171e0000 	ldrne	r0, [lr, -r0]
     b50:	3a0b0b01 	bcc	2c375c <__bss_end__+0x2b97fc>
     b54:	39053b0b 	stmdbcc	r5, {r0, r1, r3, r8, r9, fp, ip, sp}
     b58:	0013010b 	andseq	r0, r3, fp, lsl #2
     b5c:	000d1f00 	andeq	r1, sp, r0, lsl #30
     b60:	0b3a0e03 	bleq	e84374 <__bss_end__+0xe7a414>
     b64:	0b39053b 	bleq	e42058 <__bss_end__+0xe380f8>
     b68:	00001349 	andeq	r1, r0, r9, asr #6
     b6c:	27011520 	strcs	r1, [r1, -r0, lsr #10]
     b70:	00130119 	andseq	r0, r3, r9, lsl r1
     b74:	00342100 	eorseq	r2, r4, r0, lsl #2
     b78:	0b3a0e03 	bleq	e8438c <__bss_end__+0xe7a42c>
     b7c:	0b39053b 	bleq	e42070 <__bss_end__+0xe38110>
     b80:	193f1349 	ldmdbne	pc!, {r0, r3, r6, r8, r9, ip}	; <UNPREDICTABLE>
     b84:	0000193c 	andeq	r1, r0, ip, lsr r9
     b88:	03003422 	movweq	r3, #1058	; 0x422
     b8c:	3b0b3a0e 	blcc	2cf3cc <__bss_end__+0x2c546c>
     b90:	490b390b 	stmdbmi	fp, {r0, r1, r3, r8, fp, ip, sp}
     b94:	3c193f13 	ldccc	15, cr3, [r9], {19}
     b98:	23000019 	movwcs	r0, #25
     b9c:	193f012e 	ldmdbne	pc!, {r1, r2, r3, r5, r8}	; <UNPREDICTABLE>
     ba0:	0b3a0e03 	bleq	e843b4 <__bss_end__+0xe7a454>
     ba4:	0b390b3b 	bleq	e43898 <__bss_end__+0xe39938>
     ba8:	13491927 	movtne	r1, #39207	; 0x9927
     bac:	06120111 			; <UNDEFINED> instruction: 0x06120111
     bb0:	42971840 	addsmi	r1, r7, #64, 16	; 0x400000
     bb4:	00130119 	andseq	r0, r3, r9, lsl r1
     bb8:	00052400 	andeq	r2, r5, r0, lsl #8
     bbc:	0b3a0803 	bleq	e82bd0 <__bss_end__+0xe78c70>
     bc0:	0b390b3b 	bleq	e438b4 <__bss_end__+0xe39954>
     bc4:	18021349 	stmdane	r2, {r0, r3, r6, r8, r9, ip}
     bc8:	18250000 	stmdane	r5!, {}	; <UNPREDICTABLE>
     bcc:	26000000 	strcs	r0, [r0], -r0
     bd0:	08030034 	stmdaeq	r3, {r2, r4, r5}
     bd4:	0b3b0b3a 	bleq	ec38c4 <__bss_end__+0xeb9964>
     bd8:	13490b39 	movtne	r0, #39737	; 0x9b39
     bdc:	00001802 	andeq	r1, r0, r2, lsl #16
     be0:	03003427 	movweq	r3, #1063	; 0x427
     be4:	3b0b3a0e 	blcc	2cf424 <__bss_end__+0x2c54c4>
     be8:	490b390b 	stmdbmi	fp, {r0, r1, r3, r8, fp, ip, sp}
     bec:	00180213 	andseq	r0, r8, r3, lsl r2
     bf0:	00342800 	eorseq	r2, r4, r0, lsl #16
     bf4:	0b3a0803 	bleq	e82c08 <__bss_end__+0xe78ca8>
     bf8:	0b390b3b 	bleq	e438ec <__bss_end__+0xe3998c>
     bfc:	17021349 	strne	r1, [r2, -r9, asr #6]
     c00:	001742b7 			; <UNDEFINED> instruction: 0x001742b7
     c04:	82892900 	addhi	r2, r9, #0, 18
     c08:	01110101 	tsteq	r1, r1, lsl #2
     c0c:	13011331 	movwne	r1, #4913	; 0x1331
     c10:	8a2a0000 	bhi	a80c18 <__bss_end__+0xa76cb8>
     c14:	02000182 	andeq	r0, r0, #-2147483616	; 0x80000020
     c18:	18429118 	stmdane	r2, {r3, r4, r8, ip, pc}^
     c1c:	892b0000 	stmdbhi	fp!, {}	; <UNPREDICTABLE>
     c20:	11010182 	smlabbne	r1, r2, r1, r0
     c24:	2c000001 	stccs	0, cr0, [r0], {1}
     c28:	13490021 	movtne	r0, #36897	; 0x9021
     c2c:	0000052f 	andeq	r0, r0, pc, lsr #10
     c30:	3f002e2d 	svccc	0x00002e2d
     c34:	6e193c19 	mrcvs	12, 0, r3, cr9, cr9, {0}
     c38:	3a0e030e 	bcc	381878 <__bss_end__+0x377918>
     c3c:	390b3b0b 	stmdbcc	fp, {r0, r1, r3, r8, r9, fp, ip, sp}
     c40:	0000000b 	andeq	r0, r0, fp
     c44:	25011101 	strcs	r1, [r1, #-257]	; 0xfffffeff
     c48:	030b130e 	movweq	r1, #45838	; 0xb30e
     c4c:	110e1b0e 	tstne	lr, lr, lsl #22
     c50:	10061201 	andne	r1, r6, r1, lsl #4
     c54:	02000017 	andeq	r0, r0, #23
     c58:	0b0b0024 	bleq	2c0cf0 <__bss_end__+0x2b6d90>
     c5c:	08030b3e 	stmdaeq	r3, {r1, r2, r3, r4, r5, r8, r9, fp}
     c60:	24030000 	strcs	r0, [r3], #-0
     c64:	3e0b0b00 	vmlacc.f64	d0, d11, d0
     c68:	000e030b 	andeq	r0, lr, fp, lsl #6
     c6c:	00160400 	andseq	r0, r6, r0, lsl #8
     c70:	0b3a0e03 	bleq	e84484 <__bss_end__+0xe7a524>
     c74:	0b390b3b 	bleq	e43968 <__bss_end__+0xe39a08>
     c78:	00001349 	andeq	r1, r0, r9, asr #6
     c7c:	0b000f05 	bleq	4898 <_start-0x3768>
     c80:	0013490b 	andseq	r4, r3, fp, lsl #18
     c84:	00130600 	andseq	r0, r3, r0, lsl #12
     c88:	193c0e03 	ldmdbne	ip!, {r0, r1, r9, sl, fp}
     c8c:	16070000 	strne	r0, [r7], -r0
     c90:	3a0e0300 	bcc	381898 <__bss_end__+0x377938>
     c94:	39053b0b 	stmdbcc	r5, {r0, r1, r3, r8, r9, fp, ip, sp}
     c98:	0013490b 	andseq	r4, r3, fp, lsl #18
     c9c:	01170800 	tsteq	r7, r0, lsl #16
     ca0:	0b3a0b0b 	bleq	e838d4 <__bss_end__+0xe79974>
     ca4:	0b390b3b 	bleq	e43998 <__bss_end__+0xe39a38>
     ca8:	00001301 	andeq	r1, r0, r1, lsl #6
     cac:	03000d09 	movweq	r0, #3337	; 0xd09
     cb0:	3b0b3a0e 	blcc	2cf4f0 <__bss_end__+0x2c5590>
     cb4:	490b390b 	stmdbmi	fp, {r0, r1, r3, r8, fp, ip, sp}
     cb8:	0a000013 	beq	d0c <_start-0x72f4>
     cbc:	13490101 	movtne	r0, #37121	; 0x9101
     cc0:	00001301 	andeq	r1, r0, r1, lsl #6
     cc4:	4900210b 	stmdbmi	r0, {r0, r1, r3, r8, sp}
     cc8:	000b2f13 	andeq	r2, fp, r3, lsl pc
     ccc:	01130c00 	tsteq	r3, r0, lsl #24
     cd0:	0b3a0b0b 	bleq	e83904 <__bss_end__+0xe799a4>
     cd4:	0b390b3b 	bleq	e439c8 <__bss_end__+0xe39a68>
     cd8:	00001301 	andeq	r1, r0, r1, lsl #6
     cdc:	03000d0d 	movweq	r0, #3341	; 0xd0d
     ce0:	3b0b3a0e 	blcc	2cf520 <__bss_end__+0x2c55c0>
     ce4:	490b390b 	stmdbmi	fp, {r0, r1, r3, r8, fp, ip, sp}
     ce8:	000b3813 	andeq	r3, fp, r3, lsl r8
     cec:	000f0e00 	andeq	r0, pc, r0, lsl #28
     cf0:	00000b0b 	andeq	r0, r0, fp, lsl #22
     cf4:	4900260f 	stmdbmi	r0, {r0, r1, r2, r3, r9, sl, sp}
     cf8:	10000013 	andne	r0, r0, r3, lsl r0
     cfc:	0e030113 	mcreq	1, 0, r0, cr3, cr3, {0}
     d00:	0b3a0b0b 	bleq	e83934 <__bss_end__+0xe799d4>
     d04:	0b390b3b 	bleq	e439f8 <__bss_end__+0xe39a98>
     d08:	00001301 	andeq	r1, r0, r1, lsl #6
     d0c:	03000d11 	movweq	r0, #3345	; 0xd11
     d10:	3b0b3a08 	blcc	2cf538 <__bss_end__+0x2c55d8>
     d14:	490b390b 	stmdbmi	fp, {r0, r1, r3, r8, fp, ip, sp}
     d18:	000b3813 	andeq	r3, fp, r3, lsl r8
     d1c:	01131200 	tsteq	r3, r0, lsl #4
     d20:	050b0e03 	streq	r0, [fp, #-3587]	; 0xfffff1fd
     d24:	0b3b0b3a 	bleq	ec3a14 <__bss_end__+0xeb9ab4>
     d28:	13010b39 	movwne	r0, #6969	; 0x1b39
     d2c:	0d130000 	ldceq	0, cr0, [r3, #-0]
     d30:	3a0e0300 	bcc	381938 <__bss_end__+0x3779d8>
     d34:	390b3b0b 	stmdbcc	fp, {r0, r1, r3, r8, r9, fp, ip, sp}
     d38:	3813490b 	ldmdacc	r3, {r0, r1, r3, r8, fp, lr}
     d3c:	14000005 	strne	r0, [r0], #-5
     d40:	19270015 	stmdbne	r7!, {r0, r2, r4}
     d44:	15150000 	ldrne	r0, [r5, #-0]
     d48:	49192701 	ldmdbmi	r9, {r0, r8, r9, sl, sp}
     d4c:	00130113 	andseq	r0, r3, r3, lsl r1
     d50:	00051600 	andeq	r1, r5, r0, lsl #12
     d54:	00001349 	andeq	r1, r0, r9, asr #6
     d58:	03011317 	movweq	r1, #4887	; 0x1317
     d5c:	3a050b0e 	bcc	14399c <__bss_end__+0x139a3c>
     d60:	39053b0b 	stmdbcc	r5, {r0, r1, r3, r8, r9, fp, ip, sp}
     d64:	0013010b 	andseq	r0, r3, fp, lsl #2
     d68:	000d1800 	andeq	r1, sp, r0, lsl #16
     d6c:	0b3a0e03 	bleq	e84580 <__bss_end__+0xe7a620>
     d70:	0b39053b 	bleq	e42264 <__bss_end__+0xe38304>
     d74:	0b381349 	bleq	e05aa0 <__bss_end__+0xdfbb40>
     d78:	0d190000 	ldceq	0, cr0, [r9, #-0]
     d7c:	3a0e0300 	bcc	381984 <__bss_end__+0x377a24>
     d80:	39053b0b 	stmdbcc	r5, {r0, r1, r3, r8, r9, fp, ip, sp}
     d84:	3813490b 	ldmdacc	r3, {r0, r1, r3, r8, fp, lr}
     d88:	1a000005 	bne	da4 <_start-0x725c>
     d8c:	0e030113 	mcreq	1, 0, r0, cr3, cr3, {0}
     d90:	0b3a0b0b 	bleq	e839c4 <__bss_end__+0xe79a64>
     d94:	0b39053b 	bleq	e42288 <__bss_end__+0xe38328>
     d98:	00001301 	andeq	r1, r0, r1, lsl #6
     d9c:	0b01131b 	bleq	45a10 <__bss_end__+0x3bab0>
     da0:	3b0b3a0b 	blcc	2cf5d4 <__bss_end__+0x2c5674>
     da4:	010b3905 	tsteq	fp, r5, lsl #18
     da8:	1c000013 	stcne	0, cr0, [r0], {19}
     dac:	0b0b0117 	bleq	2c1210 <__bss_end__+0x2b72b0>
     db0:	053b0b3a 	ldreq	r0, [fp, #-2874]!	; 0xfffff4c6
     db4:	13010b39 	movwne	r0, #6969	; 0x1b39
     db8:	0d1d0000 	ldceq	0, cr0, [sp, #-0]
     dbc:	3a0e0300 	bcc	3819c4 <__bss_end__+0x377a64>
     dc0:	39053b0b 	stmdbcc	r5, {r0, r1, r3, r8, r9, fp, ip, sp}
     dc4:	0013490b 	andseq	r4, r3, fp, lsl #18
     dc8:	01151e00 	tsteq	r5, r0, lsl #28
     dcc:	13011927 	movwne	r1, #6439	; 0x1927
     dd0:	341f0000 	ldrcc	r0, [pc], #-0	; dd8 <_start-0x7228>
     dd4:	3a0e0300 	bcc	3819dc <__bss_end__+0x377a7c>
     dd8:	39053b0b 	stmdbcc	r5, {r0, r1, r3, r8, r9, fp, ip, sp}
     ddc:	3f13490b 	svccc	0x0013490b
     de0:	00193c19 	andseq	r3, r9, r9, lsl ip
     de4:	00342000 	eorseq	r2, r4, r0
     de8:	0b3a0e03 	bleq	e845fc <__bss_end__+0xe7a69c>
     dec:	0b390b3b 	bleq	e43ae0 <__bss_end__+0xe39b80>
     df0:	193f1349 	ldmdbne	pc!, {r0, r3, r6, r8, r9, ip}	; <UNPREDICTABLE>
     df4:	0000193c 	andeq	r1, r0, ip, lsr r9
     df8:	47003421 	strmi	r3, [r0, -r1, lsr #8]
     dfc:	3b0b3a13 	blcc	2cf650 <__bss_end__+0x2c56f0>
     e00:	020b390b 	andeq	r3, fp, #180224	; 0x2c000
     e04:	22000018 	andcs	r0, r0, #24
     e08:	193f012e 	ldmdbne	pc!, {r1, r2, r3, r5, r8}	; <UNPREDICTABLE>
     e0c:	0b3a0e03 	bleq	e84620 <__bss_end__+0xe7a6c0>
     e10:	0b390b3b 	bleq	e43b04 <__bss_end__+0xe39ba4>
     e14:	01111927 	tsteq	r1, r7, lsr #18
     e18:	18400612 	stmdane	r0, {r1, r4, r9, sl}^
     e1c:	01194297 			; <UNDEFINED> instruction: 0x01194297
     e20:	23000013 	movwcs	r0, #19
     e24:	08030005 	stmdaeq	r3, {r0, r2}
     e28:	0b3b0b3a 	bleq	ec3b18 <__bss_end__+0xeb9bb8>
     e2c:	13490b39 	movtne	r0, #39737	; 0x9b39
     e30:	00001802 	andeq	r1, r0, r2, lsl #16
     e34:	3f002e24 	svccc	0x00002e24
     e38:	3a0e0319 	bcc	381aa4 <__bss_end__+0x377b44>
     e3c:	390b3b0b 	stmdbcc	fp, {r0, r1, r3, r8, r9, fp, ip, sp}
     e40:	1119270b 	tstne	r9, fp, lsl #14
     e44:	40061201 	andmi	r1, r6, r1, lsl #4
     e48:	19429718 	stmdbne	r2, {r3, r4, r8, r9, sl, ip, pc}^
     e4c:	2e250000 	cdpcs	0, 2, cr0, cr5, cr0, {0}
     e50:	3a0e0301 	bcc	381a5c <__bss_end__+0x377afc>
     e54:	390b3b0b 	stmdbcc	fp, {r0, r1, r3, r8, r9, fp, ip, sp}
     e58:	4919270b 	ldmdbmi	r9, {r0, r1, r3, r8, r9, sl, sp}
     e5c:	12011113 	andne	r1, r1, #-1073741820	; 0xc0000004
     e60:	97184006 	ldrls	r4, [r8, -r6]
     e64:	13011942 	movwne	r1, #6466	; 0x1942
     e68:	05260000 	streq	r0, [r6, #-0]!
     e6c:	3a080300 	bcc	201a74 <__bss_end__+0x1f7b14>
     e70:	390b3b0b 	stmdbcc	fp, {r0, r1, r3, r8, r9, fp, ip, sp}
     e74:	0213490b 	andseq	r4, r3, #180224	; 0x2c000
     e78:	1742b717 	smlaldne	fp, r2, r7, r7
     e7c:	89270000 	stmdbhi	r7!, {}	; <UNPREDICTABLE>
     e80:	11010182 	smlabbne	r1, r2, r1, r0
     e84:	00133101 	andseq	r3, r3, r1, lsl #2
     e88:	828a2800 	addhi	r2, sl, #0, 16
     e8c:	18020001 	stmdane	r2, {r0}
     e90:	00184291 	mulseq	r8, r1, r2
     e94:	002e2900 	eoreq	r2, lr, r0, lsl #18
     e98:	193c193f 	ldmdbne	ip!, {r0, r1, r2, r3, r4, r5, r8, fp, ip}
     e9c:	0e030e6e 	cdpeq	14, 0, cr0, cr3, cr14, {3}
     ea0:	0b3b0b3a 	bleq	ec3b90 <__bss_end__+0xeb9c30>
     ea4:	00000b39 	andeq	r0, r0, r9, lsr fp
     ea8:	01110100 	tsteq	r1, r0, lsl #2
     eac:	0b130e25 	bleq	4c4748 <__bss_end__+0x4ba7e8>
     eb0:	0e1b0e03 	cdpeq	14, 1, cr0, cr11, cr3, {0}
     eb4:	06120111 			; <UNDEFINED> instruction: 0x06120111
     eb8:	00001710 	andeq	r1, r0, r0, lsl r7
     ebc:	0b002402 	bleq	9ecc <buf.4297+0x370>
     ec0:	030b3e0b 	movweq	r3, #48651	; 0xbe0b
     ec4:	03000008 	movweq	r0, #8
     ec8:	0b0b0024 	bleq	2c0f60 <__bss_end__+0x2b7000>
     ecc:	0e030b3e 	vmoveq.16	d3[0], r0
     ed0:	16040000 	strne	r0, [r4], -r0
     ed4:	3a0e0300 	bcc	381adc <__bss_end__+0x377b7c>
     ed8:	390b3b0b 	stmdbcc	fp, {r0, r1, r3, r8, r9, fp, ip, sp}
     edc:	0013490b 	andseq	r4, r3, fp, lsl #18
     ee0:	000f0500 	andeq	r0, pc, r0, lsl #10
     ee4:	13490b0b 	movtne	r0, #39691	; 0x9b0b
     ee8:	13060000 	movwne	r0, #24576	; 0x6000
     eec:	3c0e0300 	stccc	3, cr0, [lr], {-0}
     ef0:	07000019 	smladeq	r0, r9, r0, r0
     ef4:	0e030016 	mcreq	0, 0, r0, cr3, cr6, {0}
     ef8:	053b0b3a 	ldreq	r0, [fp, #-2874]!	; 0xfffff4c6
     efc:	13490b39 	movtne	r0, #39737	; 0x9b39
     f00:	17080000 	strne	r0, [r8, -r0]
     f04:	3a0b0b01 	bcc	2c3b10 <__bss_end__+0x2b9bb0>
     f08:	390b3b0b 	stmdbcc	fp, {r0, r1, r3, r8, r9, fp, ip, sp}
     f0c:	0013010b 	andseq	r0, r3, fp, lsl #2
     f10:	000d0900 	andeq	r0, sp, r0, lsl #18
     f14:	0b3a0e03 	bleq	e84728 <__bss_end__+0xe7a7c8>
     f18:	0b390b3b 	bleq	e43c0c <__bss_end__+0xe39cac>
     f1c:	00001349 	andeq	r1, r0, r9, asr #6
     f20:	4901010a 	stmdbmi	r1, {r1, r3, r8}
     f24:	00130113 	andseq	r0, r3, r3, lsl r1
     f28:	00210b00 	eoreq	r0, r1, r0, lsl #22
     f2c:	0b2f1349 	bleq	bc5c58 <__bss_end__+0xbbbcf8>
     f30:	130c0000 	movwne	r0, #49152	; 0xc000
     f34:	3a0b0b01 	bcc	2c3b40 <__bss_end__+0x2b9be0>
     f38:	390b3b0b 	stmdbcc	fp, {r0, r1, r3, r8, r9, fp, ip, sp}
     f3c:	0013010b 	andseq	r0, r3, fp, lsl #2
     f40:	000d0d00 	andeq	r0, sp, r0, lsl #26
     f44:	0b3a0e03 	bleq	e84758 <__bss_end__+0xe7a7f8>
     f48:	0b390b3b 	bleq	e43c3c <__bss_end__+0xe39cdc>
     f4c:	0b381349 	bleq	e05c78 <__bss_end__+0xdfbd18>
     f50:	0f0e0000 	svceq	0x000e0000
     f54:	000b0b00 	andeq	r0, fp, r0, lsl #22
     f58:	00260f00 	eoreq	r0, r6, r0, lsl #30
     f5c:	00001349 	andeq	r1, r0, r9, asr #6
     f60:	03011310 	movweq	r1, #4880	; 0x1310
     f64:	3a0b0b0e 	bcc	2c3ba4 <__bss_end__+0x2b9c44>
     f68:	390b3b0b 	stmdbcc	fp, {r0, r1, r3, r8, r9, fp, ip, sp}
     f6c:	0013010b 	andseq	r0, r3, fp, lsl #2
     f70:	000d1100 	andeq	r1, sp, r0, lsl #2
     f74:	0b3a0803 	bleq	e82f88 <__bss_end__+0xe79028>
     f78:	0b390b3b 	bleq	e43c6c <__bss_end__+0xe39d0c>
     f7c:	0b381349 	bleq	e05ca8 <__bss_end__+0xdfbd48>
     f80:	13120000 	tstne	r2, #0
     f84:	0b0e0301 	bleq	381b90 <__bss_end__+0x377c30>
     f88:	3b0b3a05 	blcc	2cf7a4 <__bss_end__+0x2c5844>
     f8c:	010b390b 	tsteq	fp, fp, lsl #18
     f90:	13000013 	movwne	r0, #19
     f94:	0e03000d 	cdpeq	0, 0, cr0, cr3, cr13, {0}
     f98:	0b3b0b3a 	bleq	ec3c88 <__bss_end__+0xeb9d28>
     f9c:	13490b39 	movtne	r0, #39737	; 0x9b39
     fa0:	00000538 	andeq	r0, r0, r8, lsr r5
     fa4:	27001514 	smladcs	r0, r4, r5, r1
     fa8:	15000019 	strne	r0, [r0, #-25]	; 0xffffffe7
     fac:	19270115 	stmdbne	r7!, {r0, r2, r4, r8}
     fb0:	13011349 	movwne	r1, #4937	; 0x1349
     fb4:	05160000 	ldreq	r0, [r6, #-0]
     fb8:	00134900 	andseq	r4, r3, r0, lsl #18
     fbc:	01131700 	tsteq	r3, r0, lsl #14
     fc0:	050b0e03 	streq	r0, [fp, #-3587]	; 0xfffff1fd
     fc4:	053b0b3a 	ldreq	r0, [fp, #-2874]!	; 0xfffff4c6
     fc8:	13010b39 	movwne	r0, #6969	; 0x1b39
     fcc:	0d180000 	ldceq	0, cr0, [r8, #-0]
     fd0:	3a0e0300 	bcc	381bd8 <__bss_end__+0x377c78>
     fd4:	39053b0b 	stmdbcc	r5, {r0, r1, r3, r8, r9, fp, ip, sp}
     fd8:	3813490b 	ldmdacc	r3, {r0, r1, r3, r8, fp, lr}
     fdc:	1900000b 	stmdbne	r0, {r0, r1, r3}
     fe0:	0e03000d 	cdpeq	0, 0, cr0, cr3, cr13, {0}
     fe4:	053b0b3a 	ldreq	r0, [fp, #-2874]!	; 0xfffff4c6
     fe8:	13490b39 	movtne	r0, #39737	; 0x9b39
     fec:	00000538 	andeq	r0, r0, r8, lsr r5
     ff0:	0301131a 	movweq	r1, #4890	; 0x131a
     ff4:	3a0b0b0e 	bcc	2c3c34 <__bss_end__+0x2b9cd4>
     ff8:	39053b0b 	stmdbcc	r5, {r0, r1, r3, r8, r9, fp, ip, sp}
     ffc:	0013010b 	andseq	r0, r3, fp, lsl #2
    1000:	01131b00 	tsteq	r3, r0, lsl #22
    1004:	0b3a0b0b 	bleq	e83c38 <__bss_end__+0xe79cd8>
    1008:	0b39053b 	bleq	e424fc <__bss_end__+0xe3859c>
    100c:	00001301 	andeq	r1, r0, r1, lsl #6
    1010:	0b01171c 	bleq	46c88 <__bss_end__+0x3cd28>
    1014:	3b0b3a0b 	blcc	2cf848 <__bss_end__+0x2c58e8>
    1018:	010b3905 	tsteq	fp, r5, lsl #18
    101c:	1d000013 	stcne	0, cr0, [r0, #-76]	; 0xffffffb4
    1020:	0e03000d 	cdpeq	0, 0, cr0, cr3, cr13, {0}
    1024:	053b0b3a 	ldreq	r0, [fp, #-2874]!	; 0xfffff4c6
    1028:	13490b39 	movtne	r0, #39737	; 0x9b39
    102c:	151e0000 	ldrne	r0, [lr, #-0]
    1030:	01192701 	tsteq	r9, r1, lsl #14
    1034:	1f000013 	svcne	0x00000013
    1038:	0e030034 	mcreq	0, 0, r0, cr3, cr4, {1}
    103c:	053b0b3a 	ldreq	r0, [fp, #-2874]!	; 0xfffff4c6
    1040:	13490b39 	movtne	r0, #39737	; 0x9b39
    1044:	193c193f 	ldmdbne	ip!, {r0, r1, r2, r3, r4, r5, r8, fp, ip}
    1048:	34200000 	strtcc	r0, [r0], #-0
    104c:	3a0e0300 	bcc	381c54 <__bss_end__+0x377cf4>
    1050:	390b3b0b 	stmdbcc	fp, {r0, r1, r3, r8, r9, fp, ip, sp}
    1054:	3f13490b 	svccc	0x0013490b
    1058:	00193c19 	andseq	r3, r9, r9, lsl ip
    105c:	00342100 	eorseq	r2, r4, r0, lsl #2
    1060:	0b3a1347 	bleq	e85d84 <__bss_end__+0xe7be24>
    1064:	0b390b3b 	bleq	e43d58 <__bss_end__+0xe39df8>
    1068:	00001802 	andeq	r1, r0, r2, lsl #16
    106c:	3f012e22 	svccc	0x00012e22
    1070:	3a0e0319 	bcc	381cdc <__bss_end__+0x377d7c>
    1074:	390b3b0b 	stmdbcc	fp, {r0, r1, r3, r8, r9, fp, ip, sp}
    1078:	4919270b 	ldmdbmi	r9, {r0, r1, r3, r8, r9, sl, sp}
    107c:	12011113 	andne	r1, r1, #-1073741820	; 0xc0000004
    1080:	96184006 	ldrls	r4, [r8], -r6
    1084:	00001942 	andeq	r1, r0, r2, asr #18
    1088:	03000523 	movweq	r0, #1315	; 0x523
    108c:	3b0b3a08 	blcc	2cf8b4 <__bss_end__+0x2c5954>
    1090:	490b390b 	stmdbmi	fp, {r0, r1, r3, r8, fp, ip, sp}
    1094:	b7170213 			; <UNDEFINED> instruction: 0xb7170213
    1098:	00001742 	andeq	r1, r0, r2, asr #14
    109c:	01110100 	tsteq	r1, r0, lsl #2
    10a0:	0b130e25 	bleq	4c493c <__bss_end__+0x4ba9dc>
    10a4:	0e1b0e03 	cdpeq	14, 1, cr0, cr11, cr3, {0}
    10a8:	06120111 			; <UNDEFINED> instruction: 0x06120111
    10ac:	00001710 	andeq	r1, r0, r0, lsl r7
    10b0:	0b002402 	bleq	a0c0 <__bss_end__+0x160>
    10b4:	030b3e0b 	movweq	r3, #48651	; 0xbe0b
    10b8:	03000008 	movweq	r0, #8
    10bc:	0b0b0024 	bleq	2c1154 <__bss_end__+0x2b71f4>
    10c0:	0e030b3e 	vmoveq.16	d3[0], r0
    10c4:	16040000 	strne	r0, [r4], -r0
    10c8:	3a0e0300 	bcc	381cd0 <__bss_end__+0x377d70>
    10cc:	390b3b0b 	stmdbcc	fp, {r0, r1, r3, r8, r9, fp, ip, sp}
    10d0:	0013490b 	andseq	r4, r3, fp, lsl #18
    10d4:	000f0500 	andeq	r0, pc, r0, lsl #10
    10d8:	13490b0b 	movtne	r0, #39691	; 0x9b0b
    10dc:	13060000 	movwne	r0, #24576	; 0x6000
    10e0:	3c0e0300 	stccc	3, cr0, [lr], {-0}
    10e4:	07000019 	smladeq	r0, r9, r0, r0
    10e8:	0e030016 	mcreq	0, 0, r0, cr3, cr6, {0}
    10ec:	053b0b3a 	ldreq	r0, [fp, #-2874]!	; 0xfffff4c6
    10f0:	13490b39 	movtne	r0, #39737	; 0x9b39
    10f4:	17080000 	strne	r0, [r8, -r0]
    10f8:	3a0b0b01 	bcc	2c3d04 <__bss_end__+0x2b9da4>
    10fc:	390b3b0b 	stmdbcc	fp, {r0, r1, r3, r8, r9, fp, ip, sp}
    1100:	0013010b 	andseq	r0, r3, fp, lsl #2
    1104:	000d0900 	andeq	r0, sp, r0, lsl #18
    1108:	0b3a0e03 	bleq	e8491c <__bss_end__+0xe7a9bc>
    110c:	0b390b3b 	bleq	e43e00 <__bss_end__+0xe39ea0>
    1110:	00001349 	andeq	r1, r0, r9, asr #6
    1114:	4901010a 	stmdbmi	r1, {r1, r3, r8}
    1118:	00130113 	andseq	r0, r3, r3, lsl r1
    111c:	00210b00 	eoreq	r0, r1, r0, lsl #22
    1120:	0b2f1349 	bleq	bc5e4c <__bss_end__+0xbbbeec>
    1124:	130c0000 	movwne	r0, #49152	; 0xc000
    1128:	3a0b0b01 	bcc	2c3d34 <__bss_end__+0x2b9dd4>
    112c:	390b3b0b 	stmdbcc	fp, {r0, r1, r3, r8, r9, fp, ip, sp}
    1130:	0013010b 	andseq	r0, r3, fp, lsl #2
    1134:	000d0d00 	andeq	r0, sp, r0, lsl #26
    1138:	0b3a0e03 	bleq	e8494c <__bss_end__+0xe7a9ec>
    113c:	0b390b3b 	bleq	e43e30 <__bss_end__+0xe39ed0>
    1140:	0b381349 	bleq	e05e6c <__bss_end__+0xdfbf0c>
    1144:	0f0e0000 	svceq	0x000e0000
    1148:	000b0b00 	andeq	r0, fp, r0, lsl #22
    114c:	00260f00 	eoreq	r0, r6, r0, lsl #30
    1150:	00001349 	andeq	r1, r0, r9, asr #6
    1154:	03011310 	movweq	r1, #4880	; 0x1310
    1158:	3a0b0b0e 	bcc	2c3d98 <__bss_end__+0x2b9e38>
    115c:	390b3b0b 	stmdbcc	fp, {r0, r1, r3, r8, r9, fp, ip, sp}
    1160:	0013010b 	andseq	r0, r3, fp, lsl #2
    1164:	000d1100 	andeq	r1, sp, r0, lsl #2
    1168:	0b3a0803 	bleq	e8317c <__bss_end__+0xe7921c>
    116c:	0b390b3b 	bleq	e43e60 <__bss_end__+0xe39f00>
    1170:	0b381349 	bleq	e05e9c <__bss_end__+0xdfbf3c>
    1174:	13120000 	tstne	r2, #0
    1178:	0b0e0301 	bleq	381d84 <__bss_end__+0x377e24>
    117c:	3b0b3a05 	blcc	2cf998 <__bss_end__+0x2c5a38>
    1180:	010b390b 	tsteq	fp, fp, lsl #18
    1184:	13000013 	movwne	r0, #19
    1188:	0e03000d 	cdpeq	0, 0, cr0, cr3, cr13, {0}
    118c:	0b3b0b3a 	bleq	ec3e7c <__bss_end__+0xeb9f1c>
    1190:	13490b39 	movtne	r0, #39737	; 0x9b39
    1194:	00000538 	andeq	r0, r0, r8, lsr r5
    1198:	27001514 	smladcs	r0, r4, r5, r1
    119c:	15000019 	strne	r0, [r0, #-25]	; 0xffffffe7
    11a0:	19270115 	stmdbne	r7!, {r0, r2, r4, r8}
    11a4:	13011349 	movwne	r1, #4937	; 0x1349
    11a8:	05160000 	ldreq	r0, [r6, #-0]
    11ac:	00134900 	andseq	r4, r3, r0, lsl #18
    11b0:	01131700 	tsteq	r3, r0, lsl #14
    11b4:	050b0e03 	streq	r0, [fp, #-3587]	; 0xfffff1fd
    11b8:	053b0b3a 	ldreq	r0, [fp, #-2874]!	; 0xfffff4c6
    11bc:	13010b39 	movwne	r0, #6969	; 0x1b39
    11c0:	0d180000 	ldceq	0, cr0, [r8, #-0]
    11c4:	3a0e0300 	bcc	381dcc <__bss_end__+0x377e6c>
    11c8:	39053b0b 	stmdbcc	r5, {r0, r1, r3, r8, r9, fp, ip, sp}
    11cc:	3813490b 	ldmdacc	r3, {r0, r1, r3, r8, fp, lr}
    11d0:	1900000b 	stmdbne	r0, {r0, r1, r3}
    11d4:	0e03000d 	cdpeq	0, 0, cr0, cr3, cr13, {0}
    11d8:	053b0b3a 	ldreq	r0, [fp, #-2874]!	; 0xfffff4c6
    11dc:	13490b39 	movtne	r0, #39737	; 0x9b39
    11e0:	00000538 	andeq	r0, r0, r8, lsr r5
    11e4:	0301131a 	movweq	r1, #4890	; 0x131a
    11e8:	3a0b0b0e 	bcc	2c3e28 <__bss_end__+0x2b9ec8>
    11ec:	39053b0b 	stmdbcc	r5, {r0, r1, r3, r8, r9, fp, ip, sp}
    11f0:	0013010b 	andseq	r0, r3, fp, lsl #2
    11f4:	01131b00 	tsteq	r3, r0, lsl #22
    11f8:	0b3a0b0b 	bleq	e83e2c <__bss_end__+0xe79ecc>
    11fc:	0b39053b 	bleq	e426f0 <__bss_end__+0xe38790>
    1200:	00001301 	andeq	r1, r0, r1, lsl #6
    1204:	0b01171c 	bleq	46e7c <__bss_end__+0x3cf1c>
    1208:	3b0b3a0b 	blcc	2cfa3c <__bss_end__+0x2c5adc>
    120c:	010b3905 	tsteq	fp, r5, lsl #18
    1210:	1d000013 	stcne	0, cr0, [r0, #-76]	; 0xffffffb4
    1214:	0e03000d 	cdpeq	0, 0, cr0, cr3, cr13, {0}
    1218:	053b0b3a 	ldreq	r0, [fp, #-2874]!	; 0xfffff4c6
    121c:	13490b39 	movtne	r0, #39737	; 0x9b39
    1220:	151e0000 	ldrne	r0, [lr, #-0]
    1224:	01192701 	tsteq	r9, r1, lsl #14
    1228:	1f000013 	svcne	0x00000013
    122c:	0e030034 	mcreq	0, 0, r0, cr3, cr4, {1}
    1230:	053b0b3a 	ldreq	r0, [fp, #-2874]!	; 0xfffff4c6
    1234:	13490b39 	movtne	r0, #39737	; 0x9b39
    1238:	193c193f 	ldmdbne	ip!, {r0, r1, r2, r3, r4, r5, r8, fp, ip}
    123c:	34200000 	strtcc	r0, [r0], #-0
    1240:	3a0e0300 	bcc	381e48 <__bss_end__+0x377ee8>
    1244:	390b3b0b 	stmdbcc	fp, {r0, r1, r3, r8, r9, fp, ip, sp}
    1248:	3f13490b 	svccc	0x0013490b
    124c:	00193c19 	andseq	r3, r9, r9, lsl ip
    1250:	01132100 	tsteq	r3, r0, lsl #2
    1254:	0b0b0e03 	bleq	2c4a68 <__bss_end__+0x2bab08>
    1258:	0b3b0b3a 	bleq	ec3f48 <__bss_end__+0xeb9fe8>
    125c:	00001301 	andeq	r1, r0, r1, lsl #6
    1260:	03000d22 	movweq	r0, #3362	; 0xd22
    1264:	3813490e 	ldmdacc	r3, {r1, r2, r3, r8, fp, lr}
    1268:	0019340b 	andseq	r3, r9, fp, lsl #8
    126c:	012e2300 			; <UNDEFINED> instruction: 0x012e2300
    1270:	0e03193f 			; <UNDEFINED> instruction: 0x0e03193f
    1274:	0b3b0b3a 	bleq	ec3f64 <__bss_end__+0xeba004>
    1278:	19270b39 	stmdbne	r7!, {r0, r3, r4, r5, r8, r9, fp}
    127c:	01111349 	tsteq	r1, r9, asr #6
    1280:	18400612 	stmdane	r0, {r1, r4, r9, sl}^
    1284:	01194297 			; <UNDEFINED> instruction: 0x01194297
    1288:	24000013 	strcs	r0, [r0], #-19	; 0xffffffed
    128c:	08030005 	stmdaeq	r3, {r0, r2}
    1290:	0b3b0b3a 	bleq	ec3f80 <__bss_end__+0xeba020>
    1294:	13490b39 	movtne	r0, #39737	; 0x9b39
    1298:	42b71702 	adcsmi	r1, r7, #524288	; 0x80000
    129c:	25000017 	strcs	r0, [r0, #-23]	; 0xffffffe9
    12a0:	0e030005 	cdpeq	0, 0, cr0, cr3, cr5, {0}
    12a4:	0b3b0b3a 	bleq	ec3f94 <__bss_end__+0xeba034>
    12a8:	13490b39 	movtne	r0, #39737	; 0x9b39
    12ac:	00001802 	andeq	r1, r0, r2, lsl #16
    12b0:	03003426 	movweq	r3, #1062	; 0x426
    12b4:	3b0b3a08 	blcc	2cfadc <__bss_end__+0x2c5b7c>
    12b8:	490b390b 	stmdbmi	fp, {r0, r1, r3, r8, fp, ip, sp}
    12bc:	b7170213 			; <UNDEFINED> instruction: 0xb7170213
    12c0:	00001742 	andeq	r1, r0, r2, asr #14
    12c4:	03003427 	movweq	r3, #1063	; 0x427
    12c8:	3413490e 	ldrcc	r4, [r3], #-2318	; 0xfffff6f2
    12cc:	00180219 	andseq	r0, r8, r9, lsl r2
    12d0:	010b2800 	tsteq	fp, r0, lsl #16
    12d4:	06120111 			; <UNDEFINED> instruction: 0x06120111
    12d8:	34290000 	strtcc	r0, [r9], #-0
    12dc:	3a080300 	bcc	201ee4 <__bss_end__+0x1f7f84>
    12e0:	390b3b0b 	stmdbcc	fp, {r0, r1, r3, r8, r9, fp, ip, sp}
    12e4:	0213490b 	andseq	r4, r3, #180224	; 0x2c000
    12e8:	2a000018 	bcs	1350 <_start-0x6cb0>
    12ec:	0e030034 	mcreq	0, 0, r0, cr3, cr4, {1}
    12f0:	0b3b0b3a 	bleq	ec3fe0 <__bss_end__+0xeba080>
    12f4:	13490b39 	movtne	r0, #39737	; 0x9b39
    12f8:	42b71702 	adcsmi	r1, r7, #524288	; 0x80000
    12fc:	2b000017 	blcs	1360 <_start-0x6ca0>
    1300:	01018289 	smlabbeq	r1, r9, r2, r8
    1304:	13310111 	teqne	r1, #1073741828	; 0x40000004
    1308:	00001301 	andeq	r1, r0, r1, lsl #6
    130c:	01828a2c 	orreq	r8, r2, ip, lsr #20
    1310:	91180200 	tstls	r8, r0, lsl #4
    1314:	00001842 	andeq	r1, r0, r2, asr #16
    1318:	0182892d 	orreq	r8, r2, sp, lsr #18
    131c:	31011100 	mrscc	r1, (UNDEF: 17)
    1320:	2e000013 	mcrcs	0, 0, r0, cr0, cr3, {0}
    1324:	0e03012e 	adfeqsp	f0, f3, #0.5
    1328:	0b3b0b3a 	bleq	ec4018 <__bss_end__+0xeba0b8>
    132c:	19270b39 	stmdbne	r7!, {r0, r3, r4, r5, r8, r9, fp}
    1330:	01111349 	tsteq	r1, r9, asr #6
    1334:	18400612 	stmdane	r0, {r1, r4, r9, sl}^
    1338:	01194297 			; <UNDEFINED> instruction: 0x01194297
    133c:	2f000013 	svccs	0x00000013
    1340:	0e030005 	cdpeq	0, 0, cr0, cr3, cr5, {0}
    1344:	0b3b0b3a 	bleq	ec4034 <__bss_end__+0xeba0d4>
    1348:	13490b39 	movtne	r0, #39737	; 0x9b39
    134c:	42b71702 	adcsmi	r1, r7, #524288	; 0x80000
    1350:	30000017 	andcc	r0, r0, r7, lsl r0
    1354:	0111010b 	tsteq	r1, fp, lsl #2
    1358:	13010612 	movwne	r0, #5650	; 0x1612
    135c:	2e310000 	cdpcs	0, 3, cr0, cr1, cr0, {0}
    1360:	3a080301 	bcc	201f6c <__bss_end__+0x1f800c>
    1364:	390b3b0b 	stmdbcc	fp, {r0, r1, r3, r8, r9, fp, ip, sp}
    1368:	4919270b 	ldmdbmi	r9, {r0, r1, r3, r8, r9, sl, sp}
    136c:	12011113 	andne	r1, r1, #-1073741820	; 0xc0000004
    1370:	97184006 	ldrls	r4, [r8, -r6]
    1374:	13011942 	movwne	r1, #6466	; 0x1942
    1378:	2e320000 	cdpcs	0, 3, cr0, cr2, cr0, {0}
    137c:	03193f01 	tsteq	r9, #1, 30
    1380:	3b0b3a0e 	blcc	2cfbc0 <__bss_end__+0x2c5c60>
    1384:	270b390b 	strcs	r3, [fp, -fp, lsl #18]
    1388:	12011119 	andne	r1, r1, #1073741830	; 0x40000006
    138c:	97184006 	ldrls	r4, [r8, -r6]
    1390:	13011942 	movwne	r1, #6466	; 0x1942
    1394:	2e330000 	cdpcs	0, 3, cr0, cr3, cr0, {0}
    1398:	3c193f00 	ldccc	15, cr3, [r9], {-0}
    139c:	030e6e19 	movweq	r6, #60953	; 0xee19
    13a0:	3b0b3a0e 	blcc	2cfbe0 <__bss_end__+0x2c5c80>
    13a4:	000b390b 	andeq	r3, fp, fp, lsl #18
    13a8:	11010000 	mrsne	r0, (UNDEF: 1)
    13ac:	130e2501 	movwne	r2, #58625	; 0xe501
    13b0:	1b0e030b 	blne	381fe4 <__bss_end__+0x378084>
    13b4:	1201110e 	andne	r1, r1, #-2147483645	; 0x80000003
    13b8:	00171006 	andseq	r1, r7, r6
    13bc:	00240200 	eoreq	r0, r4, r0, lsl #4
    13c0:	0b3e0b0b 	bleq	f83ff4 <__bss_end__+0xf7a094>
    13c4:	00000803 	andeq	r0, r0, r3, lsl #16
    13c8:	0b002403 	bleq	a3dc <__bss_end__+0x47c>
    13cc:	030b3e0b 	movweq	r3, #48651	; 0xbe0b
    13d0:	0400000e 	streq	r0, [r0], #-14
    13d4:	0e030016 	mcreq	0, 0, r0, cr3, cr6, {0}
    13d8:	0b3b0b3a 	bleq	ec40c8 <__bss_end__+0xeba168>
    13dc:	13490b39 	movtne	r0, #39737	; 0x9b39
    13e0:	0f050000 	svceq	0x00050000
    13e4:	490b0b00 	stmdbmi	fp, {r8, r9, fp}
    13e8:	06000013 			; <UNDEFINED> instruction: 0x06000013
    13ec:	0e030013 	mcreq	0, 0, r0, cr3, cr3, {0}
    13f0:	0000193c 	andeq	r1, r0, ip, lsr r9
    13f4:	03001607 	movweq	r1, #1543	; 0x607
    13f8:	3b0b3a0e 	blcc	2cfc38 <__bss_end__+0x2c5cd8>
    13fc:	490b3905 	stmdbmi	fp, {r0, r2, r8, fp, ip, sp}
    1400:	08000013 	stmdaeq	r0, {r0, r1, r4}
    1404:	0b0b0117 	bleq	2c1868 <__bss_end__+0x2b7908>
    1408:	0b3b0b3a 	bleq	ec40f8 <__bss_end__+0xeba198>
    140c:	13010b39 	movwne	r0, #6969	; 0x1b39
    1410:	0d090000 	stceq	0, cr0, [r9, #-0]
    1414:	3a0e0300 	bcc	38201c <__bss_end__+0x3780bc>
    1418:	390b3b0b 	stmdbcc	fp, {r0, r1, r3, r8, r9, fp, ip, sp}
    141c:	0013490b 	andseq	r4, r3, fp, lsl #18
    1420:	01010a00 	tsteq	r1, r0, lsl #20
    1424:	13011349 	movwne	r1, #4937	; 0x1349
    1428:	210b0000 	mrscs	r0, (UNDEF: 11)
    142c:	2f134900 	svccs	0x00134900
    1430:	0c00000b 	stceq	0, cr0, [r0], {11}
    1434:	0b0b0113 	bleq	2c1888 <__bss_end__+0x2b7928>
    1438:	0b3b0b3a 	bleq	ec4128 <__bss_end__+0xeba1c8>
    143c:	13010b39 	movwne	r0, #6969	; 0x1b39
    1440:	0d0d0000 	stceq	0, cr0, [sp, #-0]
    1444:	3a0e0300 	bcc	38204c <__bss_end__+0x3780ec>
    1448:	390b3b0b 	stmdbcc	fp, {r0, r1, r3, r8, r9, fp, ip, sp}
    144c:	3813490b 	ldmdacc	r3, {r0, r1, r3, r8, fp, lr}
    1450:	0e00000b 	cdpeq	0, 0, cr0, cr0, cr11, {0}
    1454:	0b0b000f 	bleq	2c1498 <__bss_end__+0x2b7538>
    1458:	260f0000 	strcs	r0, [pc], -r0
    145c:	00134900 	andseq	r4, r3, r0, lsl #18
    1460:	01131000 	tsteq	r3, r0
    1464:	0b0b0e03 	bleq	2c4c78 <__bss_end__+0x2bad18>
    1468:	0b3b0b3a 	bleq	ec4158 <__bss_end__+0xeba1f8>
    146c:	13010b39 	movwne	r0, #6969	; 0x1b39
    1470:	0d110000 	ldceq	0, cr0, [r1, #-0]
    1474:	3a080300 	bcc	20207c <__bss_end__+0x1f811c>
    1478:	390b3b0b 	stmdbcc	fp, {r0, r1, r3, r8, r9, fp, ip, sp}
    147c:	3813490b 	ldmdacc	r3, {r0, r1, r3, r8, fp, lr}
    1480:	1200000b 	andne	r0, r0, #11
    1484:	0e030113 	mcreq	1, 0, r0, cr3, cr3, {0}
    1488:	0b3a050b 	bleq	e828bc <__bss_end__+0xe7895c>
    148c:	0b390b3b 	bleq	e44180 <__bss_end__+0xe3a220>
    1490:	00001301 	andeq	r1, r0, r1, lsl #6
    1494:	03000d13 	movweq	r0, #3347	; 0xd13
    1498:	3b0b3a0e 	blcc	2cfcd8 <__bss_end__+0x2c5d78>
    149c:	490b390b 	stmdbmi	fp, {r0, r1, r3, r8, fp, ip, sp}
    14a0:	00053813 	andeq	r3, r5, r3, lsl r8
    14a4:	00151400 	andseq	r1, r5, r0, lsl #8
    14a8:	00001927 	andeq	r1, r0, r7, lsr #18
    14ac:	27011515 	smladcs	r1, r5, r5, r1
    14b0:	01134919 	tsteq	r3, r9, lsl r9
    14b4:	16000013 			; <UNDEFINED> instruction: 0x16000013
    14b8:	13490005 	movtne	r0, #36869	; 0x9005
    14bc:	13170000 	tstne	r7, #0
    14c0:	0b0e0301 	bleq	3820cc <__bss_end__+0x37816c>
    14c4:	3b0b3a05 	blcc	2cfce0 <__bss_end__+0x2c5d80>
    14c8:	010b3905 	tsteq	fp, r5, lsl #18
    14cc:	18000013 	stmdane	r0, {r0, r1, r4}
    14d0:	0e03000d 	cdpeq	0, 0, cr0, cr3, cr13, {0}
    14d4:	053b0b3a 	ldreq	r0, [fp, #-2874]!	; 0xfffff4c6
    14d8:	13490b39 	movtne	r0, #39737	; 0x9b39
    14dc:	00000b38 	andeq	r0, r0, r8, lsr fp
    14e0:	03000d19 	movweq	r0, #3353	; 0xd19
    14e4:	3b0b3a0e 	blcc	2cfd24 <__bss_end__+0x2c5dc4>
    14e8:	490b3905 	stmdbmi	fp, {r0, r2, r8, fp, ip, sp}
    14ec:	00053813 	andeq	r3, r5, r3, lsl r8
    14f0:	01131a00 	tsteq	r3, r0, lsl #20
    14f4:	0b0b0e03 	bleq	2c4d08 <__bss_end__+0x2bada8>
    14f8:	053b0b3a 	ldreq	r0, [fp, #-2874]!	; 0xfffff4c6
    14fc:	13010b39 	movwne	r0, #6969	; 0x1b39
    1500:	131b0000 	tstne	fp, #0
    1504:	3a0b0b01 	bcc	2c4110 <__bss_end__+0x2ba1b0>
    1508:	39053b0b 	stmdbcc	r5, {r0, r1, r3, r8, r9, fp, ip, sp}
    150c:	0013010b 	andseq	r0, r3, fp, lsl #2
    1510:	01171c00 	tsteq	r7, r0, lsl #24
    1514:	0b3a0b0b 	bleq	e84148 <__bss_end__+0xe7a1e8>
    1518:	0b39053b 	bleq	e42a0c <__bss_end__+0xe38aac>
    151c:	00001301 	andeq	r1, r0, r1, lsl #6
    1520:	03000d1d 	movweq	r0, #3357	; 0xd1d
    1524:	3b0b3a0e 	blcc	2cfd64 <__bss_end__+0x2c5e04>
    1528:	490b3905 	stmdbmi	fp, {r0, r2, r8, fp, ip, sp}
    152c:	1e000013 	mcrne	0, 0, r0, cr0, cr3, {0}
    1530:	19270115 	stmdbne	r7!, {r0, r2, r4, r8}
    1534:	00001301 	andeq	r1, r0, r1, lsl #6
    1538:	0300341f 	movweq	r3, #1055	; 0x41f
    153c:	3b0b3a0e 	blcc	2cfd7c <__bss_end__+0x2c5e1c>
    1540:	490b3905 	stmdbmi	fp, {r0, r2, r8, fp, ip, sp}
    1544:	3c193f13 	ldccc	15, cr3, [r9], {19}
    1548:	20000019 	andcs	r0, r0, r9, lsl r0
    154c:	0e030034 	mcreq	0, 0, r0, cr3, cr4, {1}
    1550:	0b3b0b3a 	bleq	ec4240 <__bss_end__+0xeba2e0>
    1554:	13490b39 	movtne	r0, #39737	; 0x9b39
    1558:	193c193f 	ldmdbne	ip!, {r0, r1, r2, r3, r4, r5, r8, fp, ip}
    155c:	2e210000 	cdpcs	0, 2, cr0, cr1, cr0, {0}
    1560:	03193f01 	tsteq	r9, #1, 30
    1564:	3b0b3a0e 	blcc	2cfda4 <__bss_end__+0x2c5e44>
    1568:	270b390b 	strcs	r3, [fp, -fp, lsl #18]
    156c:	19018719 	stmdbne	r1, {r0, r3, r4, r8, r9, sl, pc}
    1570:	06120111 			; <UNDEFINED> instruction: 0x06120111
    1574:	42971840 	addsmi	r1, r7, #64, 16	; 0x400000
    1578:	00130119 	andseq	r0, r3, r9, lsl r1
    157c:	82892200 	addhi	r2, r9, #0, 4
    1580:	01110101 	tsteq	r1, r1, lsl #2
    1584:	00001301 	andeq	r1, r0, r1, lsl #6
    1588:	01828a23 	orreq	r8, r2, r3, lsr #20
    158c:	91180200 	tstls	r8, r0, lsl #4
    1590:	00001842 	andeq	r1, r0, r2, asr #16
    1594:	01828924 	orreq	r8, r2, r4, lsr #18
    1598:	31011101 	tstcc	r1, r1, lsl #2
    159c:	00130113 	andseq	r0, r3, r3, lsl r1
    15a0:	82892500 	addhi	r2, r9, #0, 10
    15a4:	01110001 	tsteq	r1, r1
    15a8:	00001331 	andeq	r1, r0, r1, lsr r3
    15ac:	3f002e26 	svccc	0x00002e26
    15b0:	6e193c19 	mrcvs	12, 0, r3, cr9, cr9, {0}
    15b4:	3a0e030e 	bcc	3821f4 <__bss_end__+0x378294>
    15b8:	390b3b0b 	stmdbcc	fp, {r0, r1, r3, r8, r9, fp, ip, sp}
    15bc:	0000000b 	andeq	r0, r0, fp
    15c0:	25011101 	strcs	r1, [r1, #-257]	; 0xfffffeff
    15c4:	030b130e 	movweq	r1, #45838	; 0xb30e
    15c8:	110e1b0e 	tstne	lr, lr, lsl #22
    15cc:	10061201 	andne	r1, r6, r1, lsl #4
    15d0:	02000017 	andeq	r0, r0, #23
    15d4:	0b0b0024 	bleq	2c166c <__bss_end__+0x2b770c>
    15d8:	08030b3e 	stmdaeq	r3, {r1, r2, r3, r4, r5, r8, r9, fp}
    15dc:	24030000 	strcs	r0, [r3], #-0
    15e0:	3e0b0b00 	vmlacc.f64	d0, d11, d0
    15e4:	000e030b 	andeq	r0, lr, fp, lsl #6
    15e8:	00160400 	andseq	r0, r6, r0, lsl #8
    15ec:	0b3a0e03 	bleq	e84e00 <__bss_end__+0xe7aea0>
    15f0:	0b390b3b 	bleq	e442e4 <__bss_end__+0xe3a384>
    15f4:	00001349 	andeq	r1, r0, r9, asr #6
    15f8:	0b000f05 	bleq	5214 <_start-0x2dec>
    15fc:	0013490b 	andseq	r4, r3, fp, lsl #18
    1600:	00130600 	andseq	r0, r3, r0, lsl #12
    1604:	193c0e03 	ldmdbne	ip!, {r0, r1, r9, sl, fp}
    1608:	16070000 	strne	r0, [r7], -r0
    160c:	3a0e0300 	bcc	382214 <__bss_end__+0x3782b4>
    1610:	39053b0b 	stmdbcc	r5, {r0, r1, r3, r8, r9, fp, ip, sp}
    1614:	0013490b 	andseq	r4, r3, fp, lsl #18
    1618:	01170800 	tsteq	r7, r0, lsl #16
    161c:	0b3a0b0b 	bleq	e84250 <__bss_end__+0xe7a2f0>
    1620:	0b390b3b 	bleq	e44314 <__bss_end__+0xe3a3b4>
    1624:	00001301 	andeq	r1, r0, r1, lsl #6
    1628:	03000d09 	movweq	r0, #3337	; 0xd09
    162c:	3b0b3a0e 	blcc	2cfe6c <__bss_end__+0x2c5f0c>
    1630:	490b390b 	stmdbmi	fp, {r0, r1, r3, r8, fp, ip, sp}
    1634:	0a000013 	beq	1688 <_start-0x6978>
    1638:	13490101 	movtne	r0, #37121	; 0x9101
    163c:	00001301 	andeq	r1, r0, r1, lsl #6
    1640:	4900210b 	stmdbmi	r0, {r0, r1, r3, r8, sp}
    1644:	000b2f13 	andeq	r2, fp, r3, lsl pc
    1648:	01130c00 	tsteq	r3, r0, lsl #24
    164c:	0b3a0b0b 	bleq	e84280 <__bss_end__+0xe7a320>
    1650:	0b390b3b 	bleq	e44344 <__bss_end__+0xe3a3e4>
    1654:	00001301 	andeq	r1, r0, r1, lsl #6
    1658:	03000d0d 	movweq	r0, #3341	; 0xd0d
    165c:	3b0b3a0e 	blcc	2cfe9c <__bss_end__+0x2c5f3c>
    1660:	490b390b 	stmdbmi	fp, {r0, r1, r3, r8, fp, ip, sp}
    1664:	000b3813 	andeq	r3, fp, r3, lsl r8
    1668:	000f0e00 	andeq	r0, pc, r0, lsl #28
    166c:	00000b0b 	andeq	r0, r0, fp, lsl #22
    1670:	4900260f 	stmdbmi	r0, {r0, r1, r2, r3, r9, sl, sp}
    1674:	10000013 	andne	r0, r0, r3, lsl r0
    1678:	0e030113 	mcreq	1, 0, r0, cr3, cr3, {0}
    167c:	0b3a0b0b 	bleq	e842b0 <__bss_end__+0xe7a350>
    1680:	0b390b3b 	bleq	e44374 <__bss_end__+0xe3a414>
    1684:	00001301 	andeq	r1, r0, r1, lsl #6
    1688:	03000d11 	movweq	r0, #3345	; 0xd11
    168c:	3b0b3a08 	blcc	2cfeb4 <__bss_end__+0x2c5f54>
    1690:	490b390b 	stmdbmi	fp, {r0, r1, r3, r8, fp, ip, sp}
    1694:	000b3813 	andeq	r3, fp, r3, lsl r8
    1698:	01131200 	tsteq	r3, r0, lsl #4
    169c:	050b0e03 	streq	r0, [fp, #-3587]	; 0xfffff1fd
    16a0:	0b3b0b3a 	bleq	ec4390 <__bss_end__+0xeba430>
    16a4:	13010b39 	movwne	r0, #6969	; 0x1b39
    16a8:	0d130000 	ldceq	0, cr0, [r3, #-0]
    16ac:	3a0e0300 	bcc	3822b4 <__bss_end__+0x378354>
    16b0:	390b3b0b 	stmdbcc	fp, {r0, r1, r3, r8, r9, fp, ip, sp}
    16b4:	3813490b 	ldmdacc	r3, {r0, r1, r3, r8, fp, lr}
    16b8:	14000005 	strne	r0, [r0], #-5
    16bc:	19270015 	stmdbne	r7!, {r0, r2, r4}
    16c0:	15150000 	ldrne	r0, [r5, #-0]
    16c4:	49192701 	ldmdbmi	r9, {r0, r8, r9, sl, sp}
    16c8:	00130113 	andseq	r0, r3, r3, lsl r1
    16cc:	00051600 	andeq	r1, r5, r0, lsl #12
    16d0:	00001349 	andeq	r1, r0, r9, asr #6
    16d4:	03011317 	movweq	r1, #4887	; 0x1317
    16d8:	3a050b0e 	bcc	144318 <__bss_end__+0x13a3b8>
    16dc:	39053b0b 	stmdbcc	r5, {r0, r1, r3, r8, r9, fp, ip, sp}
    16e0:	0013010b 	andseq	r0, r3, fp, lsl #2
    16e4:	000d1800 	andeq	r1, sp, r0, lsl #16
    16e8:	0b3a0e03 	bleq	e84efc <__bss_end__+0xe7af9c>
    16ec:	0b39053b 	bleq	e42be0 <__bss_end__+0xe38c80>
    16f0:	0b381349 	bleq	e0641c <__bss_end__+0xdfc4bc>
    16f4:	0d190000 	ldceq	0, cr0, [r9, #-0]
    16f8:	3a0e0300 	bcc	382300 <__bss_end__+0x3783a0>
    16fc:	39053b0b 	stmdbcc	r5, {r0, r1, r3, r8, r9, fp, ip, sp}
    1700:	3813490b 	ldmdacc	r3, {r0, r1, r3, r8, fp, lr}
    1704:	1a000005 	bne	1720 <_start-0x68e0>
    1708:	0e030113 	mcreq	1, 0, r0, cr3, cr3, {0}
    170c:	0b3a0b0b 	bleq	e84340 <__bss_end__+0xe7a3e0>
    1710:	0b39053b 	bleq	e42c04 <__bss_end__+0xe38ca4>
    1714:	00001301 	andeq	r1, r0, r1, lsl #6
    1718:	0b01131b 	bleq	4638c <__bss_end__+0x3c42c>
    171c:	3b0b3a0b 	blcc	2cff50 <__bss_end__+0x2c5ff0>
    1720:	010b3905 	tsteq	fp, r5, lsl #18
    1724:	1c000013 	stcne	0, cr0, [r0], {19}
    1728:	0b0b0117 	bleq	2c1b8c <__bss_end__+0x2b7c2c>
    172c:	053b0b3a 	ldreq	r0, [fp, #-2874]!	; 0xfffff4c6
    1730:	13010b39 	movwne	r0, #6969	; 0x1b39
    1734:	0d1d0000 	ldceq	0, cr0, [sp, #-0]
    1738:	3a0e0300 	bcc	382340 <__bss_end__+0x3783e0>
    173c:	39053b0b 	stmdbcc	r5, {r0, r1, r3, r8, r9, fp, ip, sp}
    1740:	0013490b 	andseq	r4, r3, fp, lsl #18
    1744:	01151e00 	tsteq	r5, r0, lsl #28
    1748:	13011927 	movwne	r1, #6439	; 0x1927
    174c:	341f0000 	ldrcc	r0, [pc], #-0	; 1754 <_start-0x68ac>
    1750:	3a0e0300 	bcc	382358 <__bss_end__+0x3783f8>
    1754:	39053b0b 	stmdbcc	r5, {r0, r1, r3, r8, r9, fp, ip, sp}
    1758:	3f13490b 	svccc	0x0013490b
    175c:	00193c19 	andseq	r3, r9, r9, lsl ip
    1760:	00342000 	eorseq	r2, r4, r0
    1764:	0b3a0e03 	bleq	e84f78 <__bss_end__+0xe7b018>
    1768:	0b390b3b 	bleq	e4445c <__bss_end__+0xe3a4fc>
    176c:	193f1349 	ldmdbne	pc!, {r0, r3, r6, r8, r9, ip}	; <UNPREDICTABLE>
    1770:	0000193c 	andeq	r1, r0, ip, lsr r9
    1774:	3f012e21 	svccc	0x00012e21
    1778:	3a0e0319 	bcc	3823e4 <__bss_end__+0x378484>
    177c:	390b3b0b 	stmdbcc	fp, {r0, r1, r3, r8, r9, fp, ip, sp}
    1780:	1201110b 	andne	r1, r1, #-1073741822	; 0xc0000002
    1784:	97184006 	ldrls	r4, [r8, -r6]
    1788:	13011942 	movwne	r1, #6466	; 0x1942
    178c:	2e220000 	cdpcs	0, 2, cr0, cr2, cr0, {0}
    1790:	03193f00 	tsteq	r9, #0, 30
    1794:	3b0b3a0e 	blcc	2cffd4 <__bss_end__+0x2c6074>
    1798:	270b390b 	strcs	r3, [fp, -fp, lsl #18]
    179c:	00193c19 	andseq	r3, r9, r9, lsl ip
    17a0:	00342300 	eorseq	r2, r4, r0, lsl #6
    17a4:	0b3a0803 	bleq	e837b8 <__bss_end__+0xe79858>
    17a8:	0b390b3b 	bleq	e4449c <__bss_end__+0xe3a53c>
    17ac:	17021349 	strne	r1, [r2, -r9, asr #6]
    17b0:	001742b7 			; <UNDEFINED> instruction: 0x001742b7
    17b4:	00342400 	eorseq	r2, r4, r0, lsl #8
    17b8:	0b3a0e03 	bleq	e84fcc <__bss_end__+0xe7b06c>
    17bc:	0b390b3b 	bleq	e444b0 <__bss_end__+0xe3a550>
    17c0:	00001349 	andeq	r1, r0, r9, asr #6
    17c4:	01828925 	orreq	r8, r2, r5, lsr #18
    17c8:	31011100 	mrscc	r1, (UNDEF: 17)
    17cc:	26000013 			; <UNDEFINED> instruction: 0x26000013
    17d0:	193f002e 	ldmdbne	pc!, {r1, r2, r3, r5}	; <UNPREDICTABLE>
    17d4:	0e6e193c 			; <UNDEFINED> instruction: 0x0e6e193c
    17d8:	0b3a0e03 	bleq	e84fec <__bss_end__+0xe7b08c>
    17dc:	0b390b3b 	bleq	e444d0 <__bss_end__+0xe3a570>
    17e0:	01000000 	mrseq	r0, (UNDEF: 0)
    17e4:	0e250111 	mcreq	1, 1, r0, cr5, cr1, {0}
    17e8:	0e030b13 	vmoveq.32	d3[0], r0
    17ec:	17550e1b 	smmlane	r5, fp, lr, r0
    17f0:	17100111 			; <UNDEFINED> instruction: 0x17100111
    17f4:	24020000 	strcs	r0, [r2], #-0
    17f8:	3e0b0b00 	vmlacc.f64	d0, d11, d0
    17fc:	0008030b 	andeq	r0, r8, fp, lsl #6
    1800:	00260300 	eoreq	r0, r6, r0, lsl #6
    1804:	00001349 	andeq	r1, r0, r9, asr #6
    1808:	0b002404 	bleq	a820 <__bss_end__+0x8c0>
    180c:	030b3e0b 	movweq	r3, #48651	; 0xbe0b
    1810:	0500000e 	streq	r0, [r0, #-14]
    1814:	0e030016 	mcreq	0, 0, r0, cr3, cr6, {0}
    1818:	0b3b0b3a 	bleq	ec4508 <__bss_end__+0xeba5a8>
    181c:	13490b39 	movtne	r0, #39737	; 0x9b39
    1820:	0f060000 	svceq	0x00060000
    1824:	490b0b00 	stmdbmi	fp, {r8, r9, fp}
    1828:	07000013 	smladeq	r0, r3, r0, r0
    182c:	0e030013 	mcreq	0, 0, r0, cr3, cr3, {0}
    1830:	0000193c 	andeq	r1, r0, ip, lsr r9
    1834:	03001608 	movweq	r1, #1544	; 0x608
    1838:	3b0b3a0e 	blcc	2d0078 <__bss_end__+0x2c6118>
    183c:	490b3905 	stmdbmi	fp, {r0, r2, r8, fp, ip, sp}
    1840:	09000013 	stmdbeq	r0, {r0, r1, r4}
    1844:	0b0b0117 	bleq	2c1ca8 <__bss_end__+0x2b7d48>
    1848:	0b3b0b3a 	bleq	ec4538 <__bss_end__+0xeba5d8>
    184c:	13010b39 	movwne	r0, #6969	; 0x1b39
    1850:	0d0a0000 	stceq	0, cr0, [sl, #-0]
    1854:	3a0e0300 	bcc	38245c <__bss_end__+0x3784fc>
    1858:	390b3b0b 	stmdbcc	fp, {r0, r1, r3, r8, r9, fp, ip, sp}
    185c:	0013490b 	andseq	r4, r3, fp, lsl #18
    1860:	01010b00 	tsteq	r1, r0, lsl #22
    1864:	13011349 	movwne	r1, #4937	; 0x1349
    1868:	210c0000 	mrscs	r0, (UNDEF: 12)
    186c:	2f134900 	svccs	0x00134900
    1870:	0d00000b 	stceq	0, cr0, [r0, #-44]	; 0xffffffd4
    1874:	0b0b0113 	bleq	2c1cc8 <__bss_end__+0x2b7d68>
    1878:	0b3b0b3a 	bleq	ec4568 <__bss_end__+0xeba608>
    187c:	13010b39 	movwne	r0, #6969	; 0x1b39
    1880:	0d0e0000 	stceq	0, cr0, [lr, #-0]
    1884:	3a0e0300 	bcc	38248c <__bss_end__+0x37852c>
    1888:	390b3b0b 	stmdbcc	fp, {r0, r1, r3, r8, r9, fp, ip, sp}
    188c:	3813490b 	ldmdacc	r3, {r0, r1, r3, r8, fp, lr}
    1890:	0f00000b 	svceq	0x0000000b
    1894:	0b0b000f 	bleq	2c18d8 <__bss_end__+0x2b7978>
    1898:	13100000 	tstne	r0, #0
    189c:	0b0e0301 	bleq	3824a8 <__bss_end__+0x378548>
    18a0:	3b0b3a0b 	blcc	2d00d4 <__bss_end__+0x2c6174>
    18a4:	010b390b 	tsteq	fp, fp, lsl #18
    18a8:	11000013 	tstne	r0, r3, lsl r0
    18ac:	0803000d 	stmdaeq	r3, {r0, r2, r3}
    18b0:	0b3b0b3a 	bleq	ec45a0 <__bss_end__+0xeba640>
    18b4:	13490b39 	movtne	r0, #39737	; 0x9b39
    18b8:	00000b38 	andeq	r0, r0, r8, lsr fp
    18bc:	03011312 	movweq	r1, #4882	; 0x1312
    18c0:	3a050b0e 	bcc	144500 <__bss_end__+0x13a5a0>
    18c4:	390b3b0b 	stmdbcc	fp, {r0, r1, r3, r8, r9, fp, ip, sp}
    18c8:	0013010b 	andseq	r0, r3, fp, lsl #2
    18cc:	000d1300 	andeq	r1, sp, r0, lsl #6
    18d0:	0b3a0e03 	bleq	e850e4 <__bss_end__+0xe7b184>
    18d4:	0b390b3b 	bleq	e445c8 <__bss_end__+0xe3a668>
    18d8:	05381349 	ldreq	r1, [r8, #-841]!	; 0xfffffcb7
    18dc:	15140000 	ldrne	r0, [r4, #-0]
    18e0:	00192700 	andseq	r2, r9, r0, lsl #14
    18e4:	01151500 	tsteq	r5, r0, lsl #10
    18e8:	13491927 	movtne	r1, #39207	; 0x9927
    18ec:	00001301 	andeq	r1, r0, r1, lsl #6
    18f0:	49000516 	stmdbmi	r0, {r1, r2, r4, r8, sl}
    18f4:	17000013 	smladne	r0, r3, r0, r0
    18f8:	0e030113 	mcreq	1, 0, r0, cr3, cr3, {0}
    18fc:	0b3a050b 	bleq	e82d30 <__bss_end__+0xe78dd0>
    1900:	0b39053b 	bleq	e42df4 <__bss_end__+0xe38e94>
    1904:	00001301 	andeq	r1, r0, r1, lsl #6
    1908:	03000d18 	movweq	r0, #3352	; 0xd18
    190c:	3b0b3a0e 	blcc	2d014c <__bss_end__+0x2c61ec>
    1910:	490b3905 	stmdbmi	fp, {r0, r2, r8, fp, ip, sp}
    1914:	000b3813 	andeq	r3, fp, r3, lsl r8
    1918:	000d1900 	andeq	r1, sp, r0, lsl #18
    191c:	0b3a0e03 	bleq	e85130 <__bss_end__+0xe7b1d0>
    1920:	0b39053b 	bleq	e42e14 <__bss_end__+0xe38eb4>
    1924:	05381349 	ldreq	r1, [r8, #-841]!	; 0xfffffcb7
    1928:	131a0000 	tstne	sl, #0
    192c:	0b0e0301 	bleq	382538 <__bss_end__+0x3785d8>
    1930:	3b0b3a0b 	blcc	2d0164 <__bss_end__+0x2c6204>
    1934:	010b3905 	tsteq	fp, r5, lsl #18
    1938:	1b000013 	blne	198c <_start-0x6674>
    193c:	0b0b0113 	bleq	2c1d90 <__bss_end__+0x2b7e30>
    1940:	053b0b3a 	ldreq	r0, [fp, #-2874]!	; 0xfffff4c6
    1944:	13010b39 	movwne	r0, #6969	; 0x1b39
    1948:	171c0000 	ldrne	r0, [ip, -r0]
    194c:	3a0b0b01 	bcc	2c4558 <__bss_end__+0x2ba5f8>
    1950:	39053b0b 	stmdbcc	r5, {r0, r1, r3, r8, r9, fp, ip, sp}
    1954:	0013010b 	andseq	r0, r3, fp, lsl #2
    1958:	000d1d00 	andeq	r1, sp, r0, lsl #26
    195c:	0b3a0e03 	bleq	e85170 <__bss_end__+0xe7b210>
    1960:	0b39053b 	bleq	e42e54 <__bss_end__+0xe38ef4>
    1964:	00001349 	andeq	r1, r0, r9, asr #6
    1968:	2701151e 	smladcs	r1, lr, r5, r1
    196c:	00130119 	andseq	r0, r3, r9, lsl r1
    1970:	00341f00 	eorseq	r1, r4, r0, lsl #30
    1974:	0b3a0e03 	bleq	e85188 <__bss_end__+0xe7b228>
    1978:	0b39053b 	bleq	e42e6c <__bss_end__+0xe38f0c>
    197c:	193f1349 	ldmdbne	pc!, {r0, r3, r6, r8, r9, ip}	; <UNPREDICTABLE>
    1980:	0000193c 	andeq	r1, r0, ip, lsr r9
    1984:	03003420 	movweq	r3, #1056	; 0x420
    1988:	3b0b3a0e 	blcc	2d01c8 <__bss_end__+0x2c6268>
    198c:	490b390b 	stmdbmi	fp, {r0, r1, r3, r8, fp, ip, sp}
    1990:	3c193f13 	ldccc	15, cr3, [r9], {19}
    1994:	21000019 	tstcs	r0, r9, lsl r0
    1998:	0e030034 	mcreq	0, 0, r0, cr3, cr4, {1}
    199c:	0b3b0b3a 	bleq	ec468c <__bss_end__+0xeba72c>
    19a0:	13490b39 	movtne	r0, #39737	; 0x9b39
    19a4:	2e220000 	cdpcs	0, 2, cr0, cr2, cr0, {0}
    19a8:	03193f01 	tsteq	r9, #1, 30
    19ac:	3b0b3a0e 	blcc	2d01ec <__bss_end__+0x2c628c>
    19b0:	270b390b 	strcs	r3, [fp, -fp, lsl #18]
    19b4:	19018719 	stmdbne	r1, {r0, r3, r4, r8, r9, sl, pc}
    19b8:	06120111 			; <UNDEFINED> instruction: 0x06120111
    19bc:	42971840 	addsmi	r1, r7, #64, 16	; 0x400000
    19c0:	00130119 	andseq	r0, r3, r9, lsl r1
    19c4:	00342300 	eorseq	r2, r4, r0, lsl #6
    19c8:	0b3a0e03 	bleq	e851dc <__bss_end__+0xe7b27c>
    19cc:	0b390b3b 	bleq	e446c0 <__bss_end__+0xe3a760>
    19d0:	17021349 	strne	r1, [r2, -r9, asr #6]
    19d4:	001742b7 			; <UNDEFINED> instruction: 0x001742b7
    19d8:	82892400 	addhi	r2, r9, #0, 8
    19dc:	01110001 	tsteq	r1, r1
    19e0:	00001331 	andeq	r1, r0, r1, lsr r3
    19e4:	01828925 	orreq	r8, r2, r5, lsr #18
    19e8:	31011101 	tstcc	r1, r1, lsl #2
    19ec:	00130113 	andseq	r0, r3, r3, lsl r1
    19f0:	828a2600 	addhi	r2, sl, #0, 12
    19f4:	18020001 	stmdane	r2, {r0}
    19f8:	00184291 	mulseq	r8, r1, r2
    19fc:	012e2700 			; <UNDEFINED> instruction: 0x012e2700
    1a00:	0e03193f 			; <UNDEFINED> instruction: 0x0e03193f
    1a04:	0b3b0b3a 	bleq	ec46f4 <__bss_end__+0xeba794>
    1a08:	19270b39 	stmdbne	r7!, {r0, r3, r4, r5, r8, r9, fp}
    1a0c:	06120111 			; <UNDEFINED> instruction: 0x06120111
    1a10:	42971840 	addsmi	r1, r7, #64, 16	; 0x400000
    1a14:	00130119 	andseq	r0, r3, r9, lsl r1
    1a18:	012e2800 			; <UNDEFINED> instruction: 0x012e2800
    1a1c:	0e03193f 			; <UNDEFINED> instruction: 0x0e03193f
    1a20:	0b3b0b3a 	bleq	ec4710 <__bss_end__+0xeba7b0>
    1a24:	19270b39 	stmdbne	r7!, {r0, r3, r4, r5, r8, r9, fp}
    1a28:	01111349 	tsteq	r1, r9, asr #6
    1a2c:	18400612 	stmdane	r0, {r1, r4, r9, sl}^
    1a30:	01194297 			; <UNDEFINED> instruction: 0x01194297
    1a34:	29000013 	stmdbcs	r0, {r0, r1, r4}
    1a38:	193f002e 	ldmdbne	pc!, {r1, r2, r3, r5}	; <UNPREDICTABLE>
    1a3c:	0e6e193c 			; <UNDEFINED> instruction: 0x0e6e193c
    1a40:	0b3a0e03 	bleq	e85254 <__bss_end__+0xe7b2f4>
    1a44:	0b390b3b 	bleq	e44738 <__bss_end__+0xe3a7d8>
    1a48:	01000000 	mrseq	r0, (UNDEF: 0)
    1a4c:	0e250111 	mcreq	1, 1, r0, cr5, cr1, {0}
    1a50:	0e030b13 	vmoveq.32	d3[0], r0
    1a54:	01110e1b 	tsteq	r1, fp, lsl lr
    1a58:	17100612 			; <UNDEFINED> instruction: 0x17100612
    1a5c:	24020000 	strcs	r0, [r2], #-0
    1a60:	3e0b0b00 	vmlacc.f64	d0, d11, d0
    1a64:	0008030b 	andeq	r0, r8, fp, lsl #6
    1a68:	00240300 	eoreq	r0, r4, r0, lsl #6
    1a6c:	0b3e0b0b 	bleq	f846a0 <__bss_end__+0xf7a740>
    1a70:	00000e03 	andeq	r0, r0, r3, lsl #28
    1a74:	03001604 	movweq	r1, #1540	; 0x604
    1a78:	3b0b3a0e 	blcc	2d02b8 <__bss_end__+0x2c6358>
    1a7c:	490b390b 	stmdbmi	fp, {r0, r1, r3, r8, fp, ip, sp}
    1a80:	05000013 	streq	r0, [r0, #-19]	; 0xffffffed
    1a84:	0b0b000f 	bleq	2c1ac8 <__bss_end__+0x2b7b68>
    1a88:	00001349 	andeq	r1, r0, r9, asr #6
    1a8c:	03001306 	movweq	r1, #774	; 0x306
    1a90:	00193c0e 	andseq	r3, r9, lr, lsl #24
    1a94:	00160700 	andseq	r0, r6, r0, lsl #14
    1a98:	0b3a0e03 	bleq	e852ac <__bss_end__+0xe7b34c>
    1a9c:	0b39053b 	bleq	e42f90 <__bss_end__+0xe39030>
    1aa0:	00001349 	andeq	r1, r0, r9, asr #6
    1aa4:	0b011708 	bleq	476cc <__bss_end__+0x3d76c>
    1aa8:	3b0b3a0b 	blcc	2d02dc <__bss_end__+0x2c637c>
    1aac:	010b390b 	tsteq	fp, fp, lsl #18
    1ab0:	09000013 	stmdbeq	r0, {r0, r1, r4}
    1ab4:	0e03000d 	cdpeq	0, 0, cr0, cr3, cr13, {0}
    1ab8:	0b3b0b3a 	bleq	ec47a8 <__bss_end__+0xeba848>
    1abc:	13490b39 	movtne	r0, #39737	; 0x9b39
    1ac0:	010a0000 	mrseq	r0, (UNDEF: 10)
    1ac4:	01134901 	tsteq	r3, r1, lsl #18
    1ac8:	0b000013 	bleq	1b1c <_start-0x64e4>
    1acc:	13490021 	movtne	r0, #36897	; 0x9021
    1ad0:	00000b2f 	andeq	r0, r0, pc, lsr #22
    1ad4:	0b01130c 	bleq	4670c <__bss_end__+0x3c7ac>
    1ad8:	3b0b3a0b 	blcc	2d030c <__bss_end__+0x2c63ac>
    1adc:	010b390b 	tsteq	fp, fp, lsl #18
    1ae0:	0d000013 	stceq	0, cr0, [r0, #-76]	; 0xffffffb4
    1ae4:	0e03000d 	cdpeq	0, 0, cr0, cr3, cr13, {0}
    1ae8:	0b3b0b3a 	bleq	ec47d8 <__bss_end__+0xeba878>
    1aec:	13490b39 	movtne	r0, #39737	; 0x9b39
    1af0:	00000b38 	andeq	r0, r0, r8, lsr fp
    1af4:	0b000f0e 	bleq	5734 <_start-0x28cc>
    1af8:	0f00000b 	svceq	0x0000000b
    1afc:	13490026 	movtne	r0, #36902	; 0x9026
    1b00:	13100000 	tstne	r0, #0
    1b04:	0b0e0301 	bleq	382710 <__bss_end__+0x3787b0>
    1b08:	3b0b3a0b 	blcc	2d033c <__bss_end__+0x2c63dc>
    1b0c:	010b390b 	tsteq	fp, fp, lsl #18
    1b10:	11000013 	tstne	r0, r3, lsl r0
    1b14:	0803000d 	stmdaeq	r3, {r0, r2, r3}
    1b18:	0b3b0b3a 	bleq	ec4808 <__bss_end__+0xeba8a8>
    1b1c:	13490b39 	movtne	r0, #39737	; 0x9b39
    1b20:	00000b38 	andeq	r0, r0, r8, lsr fp
    1b24:	03011312 	movweq	r1, #4882	; 0x1312
    1b28:	3a050b0e 	bcc	144768 <__bss_end__+0x13a808>
    1b2c:	390b3b0b 	stmdbcc	fp, {r0, r1, r3, r8, r9, fp, ip, sp}
    1b30:	0013010b 	andseq	r0, r3, fp, lsl #2
    1b34:	000d1300 	andeq	r1, sp, r0, lsl #6
    1b38:	0b3a0e03 	bleq	e8534c <__bss_end__+0xe7b3ec>
    1b3c:	0b390b3b 	bleq	e44830 <__bss_end__+0xe3a8d0>
    1b40:	05381349 	ldreq	r1, [r8, #-841]!	; 0xfffffcb7
    1b44:	15140000 	ldrne	r0, [r4, #-0]
    1b48:	00192700 	andseq	r2, r9, r0, lsl #14
    1b4c:	01151500 	tsteq	r5, r0, lsl #10
    1b50:	13491927 	movtne	r1, #39207	; 0x9927
    1b54:	00001301 	andeq	r1, r0, r1, lsl #6
    1b58:	49000516 	stmdbmi	r0, {r1, r2, r4, r8, sl}
    1b5c:	17000013 	smladne	r0, r3, r0, r0
    1b60:	0e030113 	mcreq	1, 0, r0, cr3, cr3, {0}
    1b64:	0b3a050b 	bleq	e82f98 <__bss_end__+0xe79038>
    1b68:	0b39053b 	bleq	e4305c <__bss_end__+0xe390fc>
    1b6c:	00001301 	andeq	r1, r0, r1, lsl #6
    1b70:	03000d18 	movweq	r0, #3352	; 0xd18
    1b74:	3b0b3a0e 	blcc	2d03b4 <__bss_end__+0x2c6454>
    1b78:	490b3905 	stmdbmi	fp, {r0, r2, r8, fp, ip, sp}
    1b7c:	000b3813 	andeq	r3, fp, r3, lsl r8
    1b80:	000d1900 	andeq	r1, sp, r0, lsl #18
    1b84:	0b3a0e03 	bleq	e85398 <__bss_end__+0xe7b438>
    1b88:	0b39053b 	bleq	e4307c <__bss_end__+0xe3911c>
    1b8c:	05381349 	ldreq	r1, [r8, #-841]!	; 0xfffffcb7
    1b90:	131a0000 	tstne	sl, #0
    1b94:	0b0e0301 	bleq	3827a0 <__bss_end__+0x378840>
    1b98:	3b0b3a0b 	blcc	2d03cc <__bss_end__+0x2c646c>
    1b9c:	010b3905 	tsteq	fp, r5, lsl #18
    1ba0:	1b000013 	blne	1bf4 <_start-0x640c>
    1ba4:	0b0b0113 	bleq	2c1ff8 <__bss_end__+0x2b8098>
    1ba8:	053b0b3a 	ldreq	r0, [fp, #-2874]!	; 0xfffff4c6
    1bac:	13010b39 	movwne	r0, #6969	; 0x1b39
    1bb0:	171c0000 	ldrne	r0, [ip, -r0]
    1bb4:	3a0b0b01 	bcc	2c47c0 <__bss_end__+0x2ba860>
    1bb8:	39053b0b 	stmdbcc	r5, {r0, r1, r3, r8, r9, fp, ip, sp}
    1bbc:	0013010b 	andseq	r0, r3, fp, lsl #2
    1bc0:	000d1d00 	andeq	r1, sp, r0, lsl #26
    1bc4:	0b3a0e03 	bleq	e853d8 <__bss_end__+0xe7b478>
    1bc8:	0b39053b 	bleq	e430bc <__bss_end__+0xe3915c>
    1bcc:	00001349 	andeq	r1, r0, r9, asr #6
    1bd0:	2701151e 	smladcs	r1, lr, r5, r1
    1bd4:	00130119 	andseq	r0, r3, r9, lsl r1
    1bd8:	00341f00 	eorseq	r1, r4, r0, lsl #30
    1bdc:	0b3a0e03 	bleq	e853f0 <__bss_end__+0xe7b490>
    1be0:	0b39053b 	bleq	e430d4 <__bss_end__+0xe39174>
    1be4:	193f1349 	ldmdbne	pc!, {r0, r3, r6, r8, r9, ip}	; <UNPREDICTABLE>
    1be8:	0000193c 	andeq	r1, r0, ip, lsr r9
    1bec:	03003420 	movweq	r3, #1056	; 0x420
    1bf0:	3b0b3a0e 	blcc	2d0430 <__bss_end__+0x2c64d0>
    1bf4:	490b390b 	stmdbmi	fp, {r0, r1, r3, r8, fp, ip, sp}
    1bf8:	3c193f13 	ldccc	15, cr3, [r9], {19}
    1bfc:	21000019 	tstcs	r0, r9, lsl r0
    1c00:	193f012e 	ldmdbne	pc!, {r1, r2, r3, r5, r8}	; <UNPREDICTABLE>
    1c04:	0b3a0e03 	bleq	e85418 <__bss_end__+0xe7b4b8>
    1c08:	0b390b3b 	bleq	e448fc <__bss_end__+0xe3a99c>
    1c0c:	01111927 	tsteq	r1, r7, lsr #18
    1c10:	18400612 	stmdane	r0, {r1, r4, r9, sl}^
    1c14:	01194297 			; <UNDEFINED> instruction: 0x01194297
    1c18:	22000013 	andcs	r0, r0, #19
    1c1c:	08030005 	stmdaeq	r3, {r0, r2}
    1c20:	0b3b0b3a 	bleq	ec4910 <__bss_end__+0xeba9b0>
    1c24:	13490b39 	movtne	r0, #39737	; 0x9b39
    1c28:	42b71702 	adcsmi	r1, r7, #524288	; 0x80000
    1c2c:	23000017 	movwcs	r0, #23
    1c30:	01018289 	smlabbeq	r1, r9, r2, r8
    1c34:	13310111 	teqne	r1, #1073741828	; 0x40000004
    1c38:	8a240000 	bhi	901c40 <__bss_end__+0x8f7ce0>
    1c3c:	02000182 	andeq	r0, r0, #-2147483616	; 0x80000020
    1c40:	18429118 	stmdane	r2, {r3, r4, r8, ip, pc}^
    1c44:	34250000 	strtcc	r0, [r5], #-0
    1c48:	3a080300 	bcc	202850 <__bss_end__+0x1f88f0>
    1c4c:	390b3b0b 	stmdbcc	fp, {r0, r1, r3, r8, r9, fp, ip, sp}
    1c50:	0213490b 	andseq	r4, r3, #180224	; 0x2c000
    1c54:	1742b717 	smlaldne	fp, r2, r7, r7
    1c58:	0b260000 	bleq	981c60 <__bss_end__+0x977d00>
    1c5c:	12011101 	andne	r1, r1, #1073741824	; 0x40000000
    1c60:	00130106 	andseq	r0, r3, r6, lsl #2
    1c64:	82892700 	addhi	r2, r9, #0, 14
    1c68:	01110001 	tsteq	r1, r1
    1c6c:	00001331 	andeq	r1, r0, r1, lsr r3
    1c70:	3f012e28 	svccc	0x00012e28
    1c74:	3a0e0319 	bcc	3828e0 <__bss_end__+0x378980>
    1c78:	390b3b0b 	stmdbcc	fp, {r0, r1, r3, r8, r9, fp, ip, sp}
    1c7c:	4919270b 	ldmdbmi	r9, {r0, r1, r3, r8, r9, sl, sp}
    1c80:	12011113 	andne	r1, r1, #-1073741820	; 0xc0000004
    1c84:	97184006 	ldrls	r4, [r8, -r6]
    1c88:	13011942 	movwne	r1, #6466	; 0x1942
    1c8c:	05290000 	streq	r0, [r9, #-0]!
    1c90:	3a0e0300 	bcc	382898 <__bss_end__+0x378938>
    1c94:	390b3b0b 	stmdbcc	fp, {r0, r1, r3, r8, r9, fp, ip, sp}
    1c98:	0213490b 	andseq	r4, r3, #180224	; 0x2c000
    1c9c:	1742b717 	smlaldne	fp, r2, r7, r7
    1ca0:	2e2a0000 	cdpcs	0, 2, cr0, cr10, cr0, {0}
    1ca4:	3c193f00 	ldccc	15, cr3, [r9], {-0}
    1ca8:	030e6e19 	movweq	r6, #60953	; 0xee19
    1cac:	3b0b3a0e 	blcc	2d04ec <__bss_end__+0x2c658c>
    1cb0:	000b390b 	andeq	r3, fp, fp, lsl #18
    1cb4:	11010000 	mrsne	r0, (UNDEF: 1)
    1cb8:	130e2501 	movwne	r2, #58625	; 0xe501
    1cbc:	1b0e030b 	blne	3828f0 <__bss_end__+0x378990>
    1cc0:	1201110e 	andne	r1, r1, #-2147483645	; 0x80000003
    1cc4:	00171006 	andseq	r1, r7, r6
    1cc8:	00240200 	eoreq	r0, r4, r0, lsl #4
    1ccc:	0b3e0b0b 	bleq	f84900 <__bss_end__+0xf7a9a0>
    1cd0:	00000803 	andeq	r0, r0, r3, lsl #16
    1cd4:	0b002403 	bleq	ace8 <__bss_end__+0xd88>
    1cd8:	030b3e0b 	movweq	r3, #48651	; 0xbe0b
    1cdc:	0400000e 	streq	r0, [r0], #-14
    1ce0:	13490035 	movtne	r0, #36917	; 0x9035
    1ce4:	16050000 	strne	r0, [r5], -r0
    1ce8:	3a0e0300 	bcc	3828f0 <__bss_end__+0x378990>
    1cec:	490b3b0b 	stmdbmi	fp, {r0, r1, r3, r8, r9, fp, ip, sp}
    1cf0:	06000013 			; <UNDEFINED> instruction: 0x06000013
    1cf4:	0e030016 	mcreq	0, 0, r0, cr3, cr6, {0}
    1cf8:	053b0b3a 	ldreq	r0, [fp, #-2874]!	; 0xfffff4c6
    1cfc:	00001349 	andeq	r1, r0, r9, asr #6
    1d00:	0b011707 	bleq	47924 <__bss_end__+0x3d9c4>
    1d04:	3b0b3a0b 	blcc	2d0538 <__bss_end__+0x2c65d8>
    1d08:	0013010b 	andseq	r0, r3, fp, lsl #2
    1d0c:	000d0800 	andeq	r0, sp, r0, lsl #16
    1d10:	0b3a0e03 	bleq	e85524 <__bss_end__+0xe7b5c4>
    1d14:	13490b3b 	movtne	r0, #39739	; 0x9b3b
    1d18:	01090000 	mrseq	r0, (UNDEF: 9)
    1d1c:	01134901 	tsteq	r3, r1, lsl #18
    1d20:	0a000013 	beq	1d74 <_start-0x628c>
    1d24:	13490021 	movtne	r0, #36897	; 0x9021
    1d28:	00000b2f 	andeq	r0, r0, pc, lsr #22
    1d2c:	0b01130b 	bleq	46960 <__bss_end__+0x3ca00>
    1d30:	3b0b3a0b 	blcc	2d0564 <__bss_end__+0x2c6604>
    1d34:	0013010b 	andseq	r0, r3, fp, lsl #2
    1d38:	000d0c00 	andeq	r0, sp, r0, lsl #24
    1d3c:	0b3a0e03 	bleq	e85550 <__bss_end__+0xe7b5f0>
    1d40:	13490b3b 	movtne	r0, #39739	; 0x9b3b
    1d44:	00000b38 	andeq	r0, r0, r8, lsr fp
    1d48:	0b000f0d 	bleq	5984 <_start-0x267c>
    1d4c:	0e00000b 	cdpeq	0, 0, cr0, cr0, cr11, {0}
    1d50:	0b0b000f 	bleq	2c1d94 <__bss_end__+0x2b7e34>
    1d54:	00001349 	andeq	r1, r0, r9, asr #6
    1d58:	4900260f 	stmdbmi	r0, {r0, r1, r2, r3, r9, sl, sp}
    1d5c:	10000013 	andne	r0, r0, r3, lsl r0
    1d60:	0e030113 	mcreq	1, 0, r0, cr3, cr3, {0}
    1d64:	0b3a0b0b 	bleq	e84998 <__bss_end__+0xe7aa38>
    1d68:	13010b3b 	movwne	r0, #6971	; 0x1b3b
    1d6c:	0d110000 	ldceq	0, cr0, [r1, #-0]
    1d70:	3a080300 	bcc	202978 <__bss_end__+0x1f8a18>
    1d74:	490b3b0b 	stmdbmi	fp, {r0, r1, r3, r8, r9, fp, ip, sp}
    1d78:	000b3813 	andeq	r3, fp, r3, lsl r8
    1d7c:	01131200 	tsteq	r3, r0, lsl #4
    1d80:	050b0e03 	streq	r0, [fp, #-3587]	; 0xfffff1fd
    1d84:	0b3b0b3a 	bleq	ec4a74 <__bss_end__+0xebab14>
    1d88:	00001301 	andeq	r1, r0, r1, lsl #6
    1d8c:	03000d13 	movweq	r0, #3347	; 0xd13
    1d90:	3b0b3a0e 	blcc	2d05d0 <__bss_end__+0x2c6670>
    1d94:	3813490b 	ldmdacc	r3, {r0, r1, r3, r8, fp, lr}
    1d98:	14000005 	strne	r0, [r0], #-5
    1d9c:	19270015 	stmdbne	r7!, {r0, r2, r4}
    1da0:	15150000 	ldrne	r0, [r5, #-0]
    1da4:	49192701 	ldmdbmi	r9, {r0, r8, r9, sl, sp}
    1da8:	00130113 	andseq	r0, r3, r3, lsl r1
    1dac:	00051600 	andeq	r1, r5, r0, lsl #12
    1db0:	00001349 	andeq	r1, r0, r9, asr #6
    1db4:	03011317 	movweq	r1, #4887	; 0x1317
    1db8:	3a050b0e 	bcc	1449f8 <__bss_end__+0x13aa98>
    1dbc:	01053b0b 	tsteq	r5, fp, lsl #22
    1dc0:	18000013 	stmdane	r0, {r0, r1, r4}
    1dc4:	0e03000d 	cdpeq	0, 0, cr0, cr3, cr13, {0}
    1dc8:	053b0b3a 	ldreq	r0, [fp, #-2874]!	; 0xfffff4c6
    1dcc:	0b381349 	bleq	e06af8 <__bss_end__+0xdfcb98>
    1dd0:	0d190000 	ldceq	0, cr0, [r9, #-0]
    1dd4:	3a0e0300 	bcc	3829dc <__bss_end__+0x378a7c>
    1dd8:	49053b0b 	stmdbmi	r5, {r0, r1, r3, r8, r9, fp, ip, sp}
    1ddc:	00053813 	andeq	r3, r5, r3, lsl r8
    1de0:	01131a00 	tsteq	r3, r0, lsl #20
    1de4:	0b0b0e03 	bleq	2c55f8 <__bss_end__+0x2bb698>
    1de8:	053b0b3a 	ldreq	r0, [fp, #-2874]!	; 0xfffff4c6
    1dec:	00001301 	andeq	r1, r0, r1, lsl #6
    1df0:	0b01131b 	bleq	46a64 <__bss_end__+0x3cb04>
    1df4:	3b0b3a0b 	blcc	2d0628 <__bss_end__+0x2c66c8>
    1df8:	00130105 	andseq	r0, r3, r5, lsl #2
    1dfc:	01171c00 	tsteq	r7, r0, lsl #24
    1e00:	0b3a0b0b 	bleq	e84a34 <__bss_end__+0xe7aad4>
    1e04:	1301053b 	movwne	r0, #5435	; 0x153b
    1e08:	0d1d0000 	ldceq	0, cr0, [sp, #-0]
    1e0c:	3a0e0300 	bcc	382a14 <__bss_end__+0x378ab4>
    1e10:	49053b0b 	stmdbmi	r5, {r0, r1, r3, r8, r9, fp, ip, sp}
    1e14:	1e000013 	mcrne	0, 0, r0, cr0, cr3, {0}
    1e18:	19270115 	stmdbne	r7!, {r0, r2, r4, r8}
    1e1c:	00001301 	andeq	r1, r0, r1, lsl #6
    1e20:	0300341f 	movweq	r3, #1055	; 0x41f
    1e24:	3b0b3a0e 	blcc	2d0664 <__bss_end__+0x2c6704>
    1e28:	3f134905 	svccc	0x00134905
    1e2c:	00193c19 	andseq	r3, r9, r9, lsl ip
    1e30:	00342000 	eorseq	r2, r4, r0
    1e34:	0b3a0e03 	bleq	e85648 <__bss_end__+0xe7b6e8>
    1e38:	13490b3b 	movtne	r0, #39739	; 0x9b3b
    1e3c:	193c193f 	ldmdbne	ip!, {r0, r1, r2, r3, r4, r5, r8, fp, ip}
    1e40:	04210000 	strteq	r0, [r1], #-0
    1e44:	490b0b01 	stmdbmi	fp, {r0, r8, r9, fp}
    1e48:	3b0b3a13 	blcc	2d069c <__bss_end__+0x2c673c>
    1e4c:	0013010b 	andseq	r0, r3, fp, lsl #2
    1e50:	00282200 	eoreq	r2, r8, r0, lsl #4
    1e54:	0b1c0e03 	bleq	705668 <__bss_end__+0x6fb708>
    1e58:	34230000 	strtcc	r0, [r3], #-0
    1e5c:	3a0e0300 	bcc	382a64 <__bss_end__+0x378b04>
    1e60:	490b3b0b 	stmdbmi	fp, {r0, r1, r3, r8, r9, fp, ip, sp}
    1e64:	00061c13 	andeq	r1, r6, r3, lsl ip
    1e68:	012e2400 			; <UNDEFINED> instruction: 0x012e2400
    1e6c:	0e03193f 			; <UNDEFINED> instruction: 0x0e03193f
    1e70:	0b3b0b3a 	bleq	ec4b60 <__bss_end__+0xebac00>
    1e74:	13491927 	movtne	r1, #39207	; 0x9927
    1e78:	06120111 			; <UNDEFINED> instruction: 0x06120111
    1e7c:	42971840 	addsmi	r1, r7, #64, 16	; 0x400000
    1e80:	00130119 	andseq	r0, r3, r9, lsl r1
    1e84:	82892500 	addhi	r2, r9, #0, 10
    1e88:	01110001 	tsteq	r1, r1
    1e8c:	00001331 	andeq	r1, r0, r1, lsr r3
    1e90:	3f012e26 	svccc	0x00012e26
    1e94:	3a0e0319 	bcc	382b00 <__bss_end__+0x378ba0>
    1e98:	270b3b0b 	strcs	r3, [fp, -fp, lsl #22]
    1e9c:	12011119 	andne	r1, r1, #1073741830	; 0x40000006
    1ea0:	97184006 	ldrls	r4, [r8, -r6]
    1ea4:	13011942 	movwne	r1, #6466	; 0x1942
    1ea8:	05270000 	streq	r0, [r7, #-0]!
    1eac:	3a080300 	bcc	202ab4 <__bss_end__+0x1f8b54>
    1eb0:	490b3b0b 	stmdbmi	fp, {r0, r1, r3, r8, r9, fp, ip, sp}
    1eb4:	00170213 	andseq	r0, r7, r3, lsl r2
    1eb8:	82892800 	addhi	r2, r9, #0, 16
    1ebc:	01110101 	tsteq	r1, r1, lsl #2
    1ec0:	13011331 	movwne	r1, #4913	; 0x1331
    1ec4:	8a290000 	bhi	a41ecc <__bss_end__+0xa37f6c>
    1ec8:	02000182 	andeq	r0, r0, #-2147483616	; 0x80000020
    1ecc:	18429118 	stmdane	r2, {r3, r4, r8, ip, pc}^
    1ed0:	342a0000 	strtcc	r0, [sl], #-0
    1ed4:	3a080300 	bcc	202adc <__bss_end__+0x1f8b7c>
    1ed8:	490b3b0b 	stmdbmi	fp, {r0, r1, r3, r8, r9, fp, ip, sp}
    1edc:	00180213 	andseq	r0, r8, r3, lsl r2
    1ee0:	82892b00 	addhi	r2, r9, #0, 22
    1ee4:	01110101 	tsteq	r1, r1, lsl #2
    1ee8:	00001331 	andeq	r1, r0, r1, lsr r3
    1eec:	03012e2c 	movweq	r2, #7724	; 0x1e2c
    1ef0:	3b0b3a0e 	blcc	2d0730 <__bss_end__+0x2c67d0>
    1ef4:	1119270b 	tstne	r9, fp, lsl #14
    1ef8:	40061201 	andmi	r1, r6, r1, lsl #4
    1efc:	19429718 	stmdbne	r2, {r3, r4, r8, r9, sl, ip, pc}^
    1f00:	00001301 	andeq	r1, r0, r1, lsl #6
    1f04:	0300052d 	movweq	r0, #1325	; 0x52d
    1f08:	3b0b3a0e 	blcc	2d0748 <__bss_end__+0x2c67e8>
    1f0c:	0213490b 	andseq	r4, r3, #180224	; 0x2c000
    1f10:	2e000017 	mcrcs	0, 0, r0, cr0, cr7, {0}
    1f14:	00000035 	andeq	r0, r0, r5, lsr r0
    1f18:	3f002e2f 	svccc	0x00002e2f
    1f1c:	6e193c19 	mrcvs	12, 0, r3, cr9, cr9, {0}
    1f20:	3a0e030e 	bcc	382b60 <__bss_end__+0x378c00>
    1f24:	000b3b0b 	andeq	r3, fp, fp, lsl #22
    1f28:	11010000 	mrsne	r0, (UNDEF: 1)
    1f2c:	130e2501 	movwne	r2, #58625	; 0xe501
    1f30:	1b0e030b 	blne	382b64 <__bss_end__+0x378c04>
    1f34:	1201110e 	andne	r1, r1, #-2147483645	; 0x80000003
    1f38:	00171006 	andseq	r1, r7, r6
    1f3c:	00240200 	eoreq	r0, r4, r0, lsl #4
    1f40:	0b3e0b0b 	bleq	f84b74 <__bss_end__+0xf7ac14>
    1f44:	00000803 	andeq	r0, r0, r3, lsl #16
    1f48:	0b002403 	bleq	af5c <__bss_end__+0xffc>
    1f4c:	030b3e0b 	movweq	r3, #48651	; 0xbe0b
    1f50:	0400000e 	streq	r0, [r0], #-14
    1f54:	13490026 	movtne	r0, #36902	; 0x9026
    1f58:	16050000 	strne	r0, [r5], -r0
    1f5c:	3a0e0300 	bcc	382b64 <__bss_end__+0x378c04>
    1f60:	490b3b0b 	stmdbmi	fp, {r0, r1, r3, r8, r9, fp, ip, sp}
    1f64:	06000013 			; <UNDEFINED> instruction: 0x06000013
    1f68:	0e030016 	mcreq	0, 0, r0, cr3, cr6, {0}
    1f6c:	053b0b3a 	ldreq	r0, [fp, #-2874]!	; 0xfffff4c6
    1f70:	00001349 	andeq	r1, r0, r9, asr #6
    1f74:	0b011707 	bleq	47b98 <__bss_end__+0x3dc38>
    1f78:	3b0b3a0b 	blcc	2d07ac <__bss_end__+0x2c684c>
    1f7c:	0013010b 	andseq	r0, r3, fp, lsl #2
    1f80:	000d0800 	andeq	r0, sp, r0, lsl #16
    1f84:	0b3a0e03 	bleq	e85798 <__bss_end__+0xe7b838>
    1f88:	13490b3b 	movtne	r0, #39739	; 0x9b3b
    1f8c:	01090000 	mrseq	r0, (UNDEF: 9)
    1f90:	01134901 	tsteq	r3, r1, lsl #18
    1f94:	0a000013 	beq	1fe8 <_start-0x6018>
    1f98:	13490021 	movtne	r0, #36897	; 0x9021
    1f9c:	00000b2f 	andeq	r0, r0, pc, lsr #22
    1fa0:	0b01130b 	bleq	46bd4 <__bss_end__+0x3cc74>
    1fa4:	3b0b3a0b 	blcc	2d07d8 <__bss_end__+0x2c6878>
    1fa8:	0013010b 	andseq	r0, r3, fp, lsl #2
    1fac:	000d0c00 	andeq	r0, sp, r0, lsl #24
    1fb0:	0b3a0e03 	bleq	e857c4 <__bss_end__+0xe7b864>
    1fb4:	13490b3b 	movtne	r0, #39739	; 0x9b3b
    1fb8:	00000b38 	andeq	r0, r0, r8, lsr fp
    1fbc:	0b000f0d 	bleq	5bf8 <_start-0x2408>
    1fc0:	0e00000b 	cdpeq	0, 0, cr0, cr0, cr11, {0}
    1fc4:	0b0b000f 	bleq	2c2008 <__bss_end__+0x2b80a8>
    1fc8:	00001349 	andeq	r1, r0, r9, asr #6
    1fcc:	0301130f 	movweq	r1, #4879	; 0x130f
    1fd0:	3a0b0b0e 	bcc	2c4c10 <__bss_end__+0x2bacb0>
    1fd4:	010b3b0b 	tsteq	fp, fp, lsl #22
    1fd8:	10000013 	andne	r0, r0, r3, lsl r0
    1fdc:	0803000d 	stmdaeq	r3, {r0, r2, r3}
    1fe0:	0b3b0b3a 	bleq	ec4cd0 <__bss_end__+0xebad70>
    1fe4:	0b381349 	bleq	e06d10 <__bss_end__+0xdfcdb0>
    1fe8:	13110000 	tstne	r1, #0
    1fec:	0b0e0301 	bleq	382bf8 <__bss_end__+0x378c98>
    1ff0:	3b0b3a05 	blcc	2d080c <__bss_end__+0x2c68ac>
    1ff4:	0013010b 	andseq	r0, r3, fp, lsl #2
    1ff8:	000d1200 	andeq	r1, sp, r0, lsl #4
    1ffc:	0b3a0e03 	bleq	e85810 <__bss_end__+0xe7b8b0>
    2000:	13490b3b 	movtne	r0, #39739	; 0x9b3b
    2004:	00000538 	andeq	r0, r0, r8, lsr r5
    2008:	27001513 	smladcs	r0, r3, r5, r1
    200c:	14000019 	strne	r0, [r0], #-25	; 0xffffffe7
    2010:	19270115 	stmdbne	r7!, {r0, r2, r4, r8}
    2014:	13011349 	movwne	r1, #4937	; 0x1349
    2018:	05150000 	ldreq	r0, [r5, #-0]
    201c:	00134900 	andseq	r4, r3, r0, lsl #18
    2020:	01131600 	tsteq	r3, r0, lsl #12
    2024:	050b0e03 	streq	r0, [fp, #-3587]	; 0xfffff1fd
    2028:	053b0b3a 	ldreq	r0, [fp, #-2874]!	; 0xfffff4c6
    202c:	00001301 	andeq	r1, r0, r1, lsl #6
    2030:	03000d17 	movweq	r0, #3351	; 0xd17
    2034:	3b0b3a0e 	blcc	2d0874 <__bss_end__+0x2c6914>
    2038:	38134905 	ldmdacc	r3, {r0, r2, r8, fp, lr}
    203c:	1800000b 	stmdane	r0, {r0, r1, r3}
    2040:	0e03000d 	cdpeq	0, 0, cr0, cr3, cr13, {0}
    2044:	053b0b3a 	ldreq	r0, [fp, #-2874]!	; 0xfffff4c6
    2048:	05381349 	ldreq	r1, [r8, #-841]!	; 0xfffffcb7
    204c:	13190000 	tstne	r9, #0
    2050:	0b0e0301 	bleq	382c5c <__bss_end__+0x378cfc>
    2054:	3b0b3a0b 	blcc	2d0888 <__bss_end__+0x2c6928>
    2058:	00130105 	andseq	r0, r3, r5, lsl #2
    205c:	01131a00 	tsteq	r3, r0, lsl #20
    2060:	0b3a0b0b 	bleq	e84c94 <__bss_end__+0xe7ad34>
    2064:	1301053b 	movwne	r0, #5435	; 0x153b
    2068:	171b0000 	ldrne	r0, [fp, -r0]
    206c:	3a0b0b01 	bcc	2c4c78 <__bss_end__+0x2bad18>
    2070:	01053b0b 	tsteq	r5, fp, lsl #22
    2074:	1c000013 	stcne	0, cr0, [r0], {19}
    2078:	0e03000d 	cdpeq	0, 0, cr0, cr3, cr13, {0}
    207c:	053b0b3a 	ldreq	r0, [fp, #-2874]!	; 0xfffff4c6
    2080:	00001349 	andeq	r1, r0, r9, asr #6
    2084:	2701151d 	smladcs	r1, sp, r5, r1
    2088:	00130119 	andseq	r0, r3, r9, lsl r1
    208c:	00341e00 	eorseq	r1, r4, r0, lsl #28
    2090:	0b3a0e03 	bleq	e858a4 <__bss_end__+0xe7b944>
    2094:	1349053b 	movtne	r0, #38203	; 0x953b
    2098:	193c193f 	ldmdbne	ip!, {r0, r1, r2, r3, r4, r5, r8, fp, ip}
    209c:	341f0000 	ldrcc	r0, [pc], #-0	; 20a4 <_start-0x5f5c>
    20a0:	3a0e0300 	bcc	382ca8 <__bss_end__+0x378d48>
    20a4:	490b3b0b 	stmdbmi	fp, {r0, r1, r3, r8, r9, fp, ip, sp}
    20a8:	3c193f13 	ldccc	15, cr3, [r9], {19}
    20ac:	20000019 	andcs	r0, r0, r9, lsl r0
    20b0:	0b0b0104 	bleq	2c24c8 <__bss_end__+0x2b8568>
    20b4:	0b3a1349 	bleq	e86de0 <__bss_end__+0xe7ce80>
    20b8:	13010b3b 	movwne	r0, #6971	; 0x1b3b
    20bc:	28210000 	stmdacs	r1!, {}	; <UNPREDICTABLE>
    20c0:	1c0e0300 	stcne	3, cr0, [lr], {-0}
    20c4:	2200000b 	andcs	r0, r0, #11
    20c8:	0e030034 	mcreq	0, 0, r0, cr3, cr4, {1}
    20cc:	0b3b0b3a 	bleq	ec4dbc <__bss_end__+0xebae5c>
    20d0:	061c1349 	ldreq	r1, [ip], -r9, asr #6
    20d4:	2e230000 	cdpcs	0, 2, cr0, cr3, cr0, {0}
    20d8:	03193f01 	tsteq	r9, #1, 30
    20dc:	3b0b3a0e 	blcc	2d091c <__bss_end__+0x2c69bc>
    20e0:	4919270b 	ldmdbmi	r9, {r0, r1, r3, r8, r9, sl, sp}
    20e4:	12011113 	andne	r1, r1, #-1073741820	; 0xc0000004
    20e8:	97184006 	ldrls	r4, [r8, -r6]
    20ec:	13011942 	movwne	r1, #6466	; 0x1942
    20f0:	05240000 	streq	r0, [r4, #-0]!
    20f4:	3a080300 	bcc	202cfc <__bss_end__+0x1f8d9c>
    20f8:	490b3b0b 	stmdbmi	fp, {r0, r1, r3, r8, r9, fp, ip, sp}
    20fc:	00170213 	andseq	r0, r7, r3, lsl r2
    2100:	00342500 	eorseq	r2, r4, r0, lsl #10
    2104:	0b3a0e03 	bleq	e85918 <__bss_end__+0xe7b9b8>
    2108:	13490b3b 	movtne	r0, #39739	; 0x9b3b
    210c:	00001702 	andeq	r1, r0, r2, lsl #14
    2110:	03003426 	movweq	r3, #1062	; 0x426
    2114:	3b0b3a08 	blcc	2d093c <__bss_end__+0x2c69dc>
    2118:	0213490b 	andseq	r4, r3, #180224	; 0x2c000
    211c:	27000017 	smladcs	r0, r7, r0, r0
    2120:	01018289 	smlabbeq	r1, r9, r2, r8
    2124:	13310111 	teqne	r1, #1073741828	; 0x40000004
    2128:	8a280000 	bhi	a02130 <__bss_end__+0x9f81d0>
    212c:	02000182 	andeq	r0, r0, #-2147483616	; 0x80000020
    2130:	18429118 	stmdane	r2, {r3, r4, r8, ip, pc}^
    2134:	2e290000 	cdpcs	0, 2, cr0, cr9, cr0, {0}
    2138:	03193f01 	tsteq	r9, #1, 30
    213c:	3b0b3a0e 	blcc	2d097c <__bss_end__+0x2c6a1c>
    2140:	1119270b 	tstne	r9, fp, lsl #14
    2144:	40061201 	andmi	r1, r6, r1, lsl #4
    2148:	19429718 	stmdbne	r2, {r3, r4, r8, r9, sl, ip, pc}^
    214c:	00001301 	andeq	r1, r0, r1, lsl #6
    2150:	0182892a 	orreq	r8, r2, sl, lsr #18
    2154:	31011101 	tstcc	r1, r1, lsl #2
    2158:	00130113 	andseq	r0, r3, r3, lsl r1
    215c:	82892b00 	addhi	r2, r9, #0, 22
    2160:	01110001 	tsteq	r1, r1
    2164:	00001331 	andeq	r1, r0, r1, lsr r3
    2168:	0300052c 	movweq	r0, #1324	; 0x52c
    216c:	3b0b3a0e 	blcc	2d09ac <__bss_end__+0x2c6a4c>
    2170:	0213490b 	andseq	r4, r3, #180224	; 0x2c000
    2174:	2d000017 	stccs	0, cr0, [r0, #-92]	; 0xffffffa4
    2178:	08030034 	stmdaeq	r3, {r2, r4, r5}
    217c:	0b3b0b3a 	bleq	ec4e6c <__bss_end__+0xebaf0c>
    2180:	18021349 	stmdane	r2, {r0, r3, r6, r8, r9, ip}
    2184:	2e2e0000 	cdpcs	0, 2, cr0, cr14, cr0, {0}
    2188:	3c193f00 	ldccc	15, cr3, [r9], {-0}
    218c:	030e6e19 	movweq	r6, #60953	; 0xee19
    2190:	3b0b3a0e 	blcc	2d09d0 <__bss_end__+0x2c6a70>
    2194:	0000000b 	andeq	r0, r0, fp
    2198:	25011101 	strcs	r1, [r1, #-257]	; 0xfffffeff
    219c:	030b130e 	movweq	r1, #45838	; 0xb30e
    21a0:	110e1b0e 	tstne	lr, lr, lsl #22
    21a4:	10061201 	andne	r1, r6, r1, lsl #4
    21a8:	02000017 	andeq	r0, r0, #23
    21ac:	0b0b0024 	bleq	2c2244 <__bss_end__+0x2b82e4>
    21b0:	08030b3e 	stmdaeq	r3, {r1, r2, r3, r4, r5, r8, r9, fp}
    21b4:	24030000 	strcs	r0, [r3], #-0
    21b8:	3e0b0b00 	vmlacc.f64	d0, d11, d0
    21bc:	000e030b 	andeq	r0, lr, fp, lsl #6
    21c0:	00160400 	andseq	r0, r6, r0, lsl #8
    21c4:	0b3a0e03 	bleq	e859d8 <__bss_end__+0xe7ba78>
    21c8:	13490b3b 	movtne	r0, #39739	; 0x9b3b
    21cc:	16050000 	strne	r0, [r5], -r0
    21d0:	3a0e0300 	bcc	382dd8 <__bss_end__+0x378e78>
    21d4:	49053b0b 	stmdbmi	r5, {r0, r1, r3, r8, r9, fp, ip, sp}
    21d8:	06000013 			; <UNDEFINED> instruction: 0x06000013
    21dc:	0b0b0117 	bleq	2c2640 <__bss_end__+0x2b86e0>
    21e0:	0b3b0b3a 	bleq	ec4ed0 <__bss_end__+0xebaf70>
    21e4:	00001301 	andeq	r1, r0, r1, lsl #6
    21e8:	03000d07 	movweq	r0, #3335	; 0xd07
    21ec:	3b0b3a0e 	blcc	2d0a2c <__bss_end__+0x2c6acc>
    21f0:	0013490b 	andseq	r4, r3, fp, lsl #18
    21f4:	01010800 	tsteq	r1, r0, lsl #16
    21f8:	13011349 	movwne	r1, #4937	; 0x1349
    21fc:	21090000 	mrscs	r0, (UNDEF: 9)
    2200:	2f134900 	svccs	0x00134900
    2204:	0a00000b 	beq	2238 <_start-0x5dc8>
    2208:	0b0b0113 	bleq	2c265c <__bss_end__+0x2b86fc>
    220c:	0b3b0b3a 	bleq	ec4efc <__bss_end__+0xebaf9c>
    2210:	00001301 	andeq	r1, r0, r1, lsl #6
    2214:	03000d0b 	movweq	r0, #3339	; 0xd0b
    2218:	3b0b3a0e 	blcc	2d0a58 <__bss_end__+0x2c6af8>
    221c:	3813490b 	ldmdacc	r3, {r0, r1, r3, r8, fp, lr}
    2220:	0c00000b 	stceq	0, cr0, [r0], {11}
    2224:	0b0b000f 	bleq	2c2268 <__bss_end__+0x2b8308>
    2228:	0f0d0000 	svceq	0x000d0000
    222c:	490b0b00 	stmdbmi	fp, {r8, r9, fp}
    2230:	0e000013 	mcreq	0, 0, r0, cr0, cr3, {0}
    2234:	13490026 	movtne	r0, #36902	; 0x9026
    2238:	130f0000 	movwne	r0, #61440	; 0xf000
    223c:	0b0e0301 	bleq	382e48 <__bss_end__+0x378ee8>
    2240:	3b0b3a0b 	blcc	2d0a74 <__bss_end__+0x2c6b14>
    2244:	0013010b 	andseq	r0, r3, fp, lsl #2
    2248:	000d1000 	andeq	r1, sp, r0
    224c:	0b3a0803 	bleq	e84260 <__bss_end__+0xe7a300>
    2250:	13490b3b 	movtne	r0, #39739	; 0x9b3b
    2254:	00000b38 	andeq	r0, r0, r8, lsr fp
    2258:	03011311 	movweq	r1, #4881	; 0x1311
    225c:	3a050b0e 	bcc	144e9c <__bss_end__+0x13af3c>
    2260:	010b3b0b 	tsteq	fp, fp, lsl #22
    2264:	12000013 	andne	r0, r0, #19
    2268:	0e03000d 	cdpeq	0, 0, cr0, cr3, cr13, {0}
    226c:	0b3b0b3a 	bleq	ec4f5c <__bss_end__+0xebaffc>
    2270:	05381349 	ldreq	r1, [r8, #-841]!	; 0xfffffcb7
    2274:	15130000 	ldrne	r0, [r3, #-0]
    2278:	00192700 	andseq	r2, r9, r0, lsl #14
    227c:	01151400 	tsteq	r5, r0, lsl #8
    2280:	13491927 	movtne	r1, #39207	; 0x9927
    2284:	00001301 	andeq	r1, r0, r1, lsl #6
    2288:	49000515 	stmdbmi	r0, {r0, r2, r4, r8, sl}
    228c:	16000013 			; <UNDEFINED> instruction: 0x16000013
    2290:	0e030113 	mcreq	1, 0, r0, cr3, cr3, {0}
    2294:	0b3a050b 	bleq	e836c8 <__bss_end__+0xe79768>
    2298:	1301053b 	movwne	r0, #5435	; 0x153b
    229c:	0d170000 	ldceq	0, cr0, [r7, #-0]
    22a0:	3a0e0300 	bcc	382ea8 <__bss_end__+0x378f48>
    22a4:	49053b0b 	stmdbmi	r5, {r0, r1, r3, r8, r9, fp, ip, sp}
    22a8:	000b3813 	andeq	r3, fp, r3, lsl r8
    22ac:	000d1800 	andeq	r1, sp, r0, lsl #16
    22b0:	0b3a0e03 	bleq	e85ac4 <__bss_end__+0xe7bb64>
    22b4:	1349053b 	movtne	r0, #38203	; 0x953b
    22b8:	00000538 	andeq	r0, r0, r8, lsr r5
    22bc:	03011319 	movweq	r1, #4889	; 0x1319
    22c0:	3a0b0b0e 	bcc	2c4f00 <__bss_end__+0x2bafa0>
    22c4:	01053b0b 	tsteq	r5, fp, lsl #22
    22c8:	1a000013 	bne	231c <_start-0x5ce4>
    22cc:	0b0b0113 	bleq	2c2720 <__bss_end__+0x2b87c0>
    22d0:	053b0b3a 	ldreq	r0, [fp, #-2874]!	; 0xfffff4c6
    22d4:	00001301 	andeq	r1, r0, r1, lsl #6
    22d8:	0b01171b 	bleq	47f4c <__bss_end__+0x3dfec>
    22dc:	3b0b3a0b 	blcc	2d0b10 <__bss_end__+0x2c6bb0>
    22e0:	00130105 	andseq	r0, r3, r5, lsl #2
    22e4:	000d1c00 	andeq	r1, sp, r0, lsl #24
    22e8:	0b3a0e03 	bleq	e85afc <__bss_end__+0xe7bb9c>
    22ec:	1349053b 	movtne	r0, #38203	; 0x953b
    22f0:	151d0000 	ldrne	r0, [sp, #-0]
    22f4:	01192701 	tsteq	r9, r1, lsl #14
    22f8:	1e000013 	mcrne	0, 0, r0, cr0, cr3, {0}
    22fc:	0e030034 	mcreq	0, 0, r0, cr3, cr4, {1}
    2300:	053b0b3a 	ldreq	r0, [fp, #-2874]!	; 0xfffff4c6
    2304:	193f1349 	ldmdbne	pc!, {r0, r3, r6, r8, r9, ip}	; <UNPREDICTABLE>
    2308:	0000193c 	andeq	r1, r0, ip, lsr r9
    230c:	0300341f 	movweq	r3, #1055	; 0x41f
    2310:	3b0b3a0e 	blcc	2d0b50 <__bss_end__+0x2c6bf0>
    2314:	3f13490b 	svccc	0x0013490b
    2318:	00193c19 	andseq	r3, r9, r9, lsl ip
    231c:	00342000 	eorseq	r2, r4, r0
    2320:	0b3a0e03 	bleq	e85b34 <__bss_end__+0xe7bbd4>
    2324:	13490b3b 	movtne	r0, #39739	; 0x9b3b
    2328:	00001802 	andeq	r1, r0, r2, lsl #16
    232c:	3f012e21 	svccc	0x00012e21
    2330:	3a0e0319 	bcc	382f9c <__bss_end__+0x37903c>
    2334:	270b3b0b 	strcs	r3, [fp, -fp, lsl #22]
    2338:	12011119 	andne	r1, r1, #1073741830	; 0x40000006
    233c:	97184006 	ldrls	r4, [r8, -r6]
    2340:	13011942 	movwne	r1, #6466	; 0x1942
    2344:	05220000 	streq	r0, [r2, #-0]!
    2348:	3a080300 	bcc	202f50 <__bss_end__+0x1f8ff0>
    234c:	490b3b0b 	stmdbmi	fp, {r0, r1, r3, r8, r9, fp, ip, sp}
    2350:	00180213 	andseq	r0, r8, r3, lsl r2
    2354:	002e2300 	eoreq	r2, lr, r0, lsl #6
    2358:	0e03193f 			; <UNDEFINED> instruction: 0x0e03193f
    235c:	0b3b0b3a 	bleq	ec504c <__bss_end__+0xebb0ec>
    2360:	01111927 	tsteq	r1, r7, lsr #18
    2364:	18400612 	stmdane	r0, {r1, r4, r9, sl}^
    2368:	00194297 	mulseq	r9, r7, r2
    236c:	012e2400 			; <UNDEFINED> instruction: 0x012e2400
    2370:	0e03193f 			; <UNDEFINED> instruction: 0x0e03193f
    2374:	0b3b0b3a 	bleq	ec5064 <__bss_end__+0xebb104>
    2378:	13491927 	movtne	r1, #39207	; 0x9927
    237c:	06120111 			; <UNDEFINED> instruction: 0x06120111
    2380:	42971840 	addsmi	r1, r7, #64, 16	; 0x400000
    2384:	00130119 	andseq	r0, r3, r9, lsl r1
    2388:	00052500 	andeq	r2, r5, r0, lsl #10
    238c:	0b3a0e03 	bleq	e85ba0 <__bss_end__+0xe7bc40>
    2390:	13490b3b 	movtne	r0, #39739	; 0x9b3b
    2394:	00001702 	andeq	r1, r0, r2, lsl #14
    2398:	03003426 	movweq	r3, #1062	; 0x426
    239c:	3413490e 	ldrcc	r4, [r3], #-2318	; 0xfffff6f2
    23a0:	00180219 	andseq	r0, r8, r9, lsl r2
    23a4:	00342700 	eorseq	r2, r4, r0, lsl #14
    23a8:	0b3a0803 	bleq	e843bc <__bss_end__+0xe7a45c>
    23ac:	13490b3b 	movtne	r0, #39739	; 0x9b3b
    23b0:	00001702 	andeq	r1, r0, r2, lsl #14
    23b4:	01828928 	orreq	r8, r2, r8, lsr #18
    23b8:	31011101 	tstcc	r1, r1, lsl #2
    23bc:	00130113 	andseq	r0, r3, r3, lsl r1
    23c0:	828a2900 	addhi	r2, sl, #0, 18
    23c4:	18020001 	stmdane	r2, {r0}
    23c8:	00184291 	mulseq	r8, r1, r2
    23cc:	82892a00 	addhi	r2, r9, #0, 20
    23d0:	01110001 	tsteq	r1, r1
    23d4:	00001331 	andeq	r1, r0, r1, lsr r3
    23d8:	0300052b 	movweq	r0, #1323	; 0x52b
    23dc:	3b0b3a08 	blcc	2d0c04 <__bss_end__+0x2c6ca4>
    23e0:	0213490b 	andseq	r4, r3, #180224	; 0x2c000
    23e4:	2c000017 	stccs	0, cr0, [r0], {23}
    23e8:	0e030034 	mcreq	0, 0, r0, cr3, cr4, {1}
    23ec:	0b3b0b3a 	bleq	ec50dc <__bss_end__+0xebb17c>
    23f0:	17021349 	strne	r1, [r2, -r9, asr #6]
    23f4:	2e2d0000 	cdpcs	0, 2, cr0, cr13, cr0, {0}
    23f8:	03193f00 	tsteq	r9, #0, 30
    23fc:	3b0b3a0e 	blcc	2d0c3c <__bss_end__+0x2c6cdc>
    2400:	4919270b 	ldmdbmi	r9, {r0, r1, r3, r8, r9, sl, sp}
    2404:	12011113 	andne	r1, r1, #-1073741820	; 0xc0000004
    2408:	97184006 	ldrls	r4, [r8, -r6]
    240c:	00001942 	andeq	r1, r0, r2, asr #18
    2410:	3f002e2e 	svccc	0x00002e2e
    2414:	6e193c19 	mrcvs	12, 0, r3, cr9, cr9, {0}
    2418:	3a0e030e 	bcc	383058 <__bss_end__+0x3790f8>
    241c:	000b3b0b 	andeq	r3, fp, fp, lsl #22
	...

Disassembly of section .debug_loc:

00000000 <.debug_loc>:
       0:	00000000 	andeq	r0, r0, r0
       4:	00000044 	andeq	r0, r0, r4, asr #32
       8:	0000004f 	andeq	r0, r0, pc, asr #32
       c:	4f500001 	svcmi	0x00500001
      10:	7c000000 	stcvc	0, cr0, [r0], {-0}
      14:	01000000 	mrseq	r0, (UNDEF: 0)
      18:	00005400 	andeq	r5, r0, r0, lsl #8
	...
      24:	0000072c 	andeq	r0, r0, ip, lsr #14
      28:	00000754 	andeq	r0, r0, r4, asr r7
      2c:	00550001 	subseq	r0, r5, r1
	...
      38:	00073400 	andeq	r3, r7, r0, lsl #8
      3c:	00075800 	andeq	r5, r7, r0, lsl #16
      40:	56000100 	strpl	r0, [r0], -r0, lsl #2
	...
      4c:	00000002 	andeq	r0, r0, r2
      50:	0000074c 	andeq	r0, r0, ip, asr #14
      54:	0000075c 	andeq	r0, r0, ip, asr r7
      58:	9f300002 	svcls	0x00300002
      5c:	0000075c 	andeq	r0, r0, ip, asr r7
      60:	00000868 	andeq	r0, r0, r8, ror #16
      64:	00560001 	subseq	r0, r6, r1
      68:	00000000 	andeq	r0, r0, r0
      6c:	03000000 	movweq	r0, #0
      70:	4c000000 	stcmi	0, cr0, [r0], {-0}
      74:	5c000007 	stcpl	0, cr0, [r0], {7}
      78:	02000007 	andeq	r0, r0, #7
      7c:	5c9f3000 	ldcpl	0, cr3, [pc], {0}
      80:	68000007 	stmdavs	r0, {r0, r1, r2}
      84:	01000008 	tsteq	r0, r8
      88:	00005500 	andeq	r5, r0, r0, lsl #10
	...
      94:	00000750 	andeq	r0, r0, r0, asr r7
      98:	00000868 	andeq	r0, r0, r8, ror #16
      9c:	00540001 	subseq	r0, r4, r1
	...
      b0:	0004fc00 	andeq	pc, r4, r0, lsl #24
      b4:	00052800 	andeq	r2, r5, r0, lsl #16
      b8:	50000100 	andpl	r0, r0, r0, lsl #2
      bc:	00000528 	andeq	r0, r0, r8, lsr #10
      c0:	00000624 	andeq	r0, r0, r4, lsr #12
      c4:	24550001 	ldrbcs	r0, [r5], #-1
      c8:	27000006 	strcs	r0, [r0, -r6]
      cc:	01000006 	tsteq	r0, r6
      d0:	06275000 	strteq	r5, [r7], -r0
      d4:	06400000 	strbeq	r0, [r0], -r0
      d8:	00040000 	andeq	r0, r4, r0
      dc:	9f5001f3 	svcls	0x005001f3
      e0:	00000640 	andeq	r0, r0, r0, asr #12
      e4:	00000718 	andeq	r0, r0, r8, lsl r7
      e8:	00550001 	subseq	r0, r5, r1
	...
      fc:	0004fc00 	andeq	pc, r4, r0, lsl #24
     100:	00052b00 	andeq	r2, r5, r0, lsl #22
     104:	51000100 	mrspl	r0, (UNDEF: 16)
     108:	0000052b 	andeq	r0, r0, fp, lsr #10
     10c:	00000624 	andeq	r0, r0, r4, lsr #12
     110:	24580001 	ldrbcs	r0, [r8], #-1
     114:	27000006 	strcs	r0, [r0, -r6]
     118:	01000006 	tsteq	r0, r6
     11c:	06275100 	strteq	r5, [r7], -r0, lsl #2
     120:	06400000 	strbeq	r0, [r0], -r0
     124:	00040000 	andeq	r0, r4, r0
     128:	9f5101f3 	svcls	0x005101f3
     12c:	00000640 	andeq	r0, r0, r0, asr #12
     130:	00000718 	andeq	r0, r0, r8, lsl r7
     134:	00580001 	subseq	r0, r8, r1
	...
     148:	0004fc00 	andeq	pc, r4, r0, lsl #24
     14c:	00052b00 	andeq	r2, r5, r0, lsl #22
     150:	52000100 	andpl	r0, r0, #0, 2
     154:	0000052b 	andeq	r0, r0, fp, lsr #10
     158:	00000624 	andeq	r0, r0, r4, lsr #12
     15c:	24570001 	ldrbcs	r0, [r7], #-1
     160:	27000006 	strcs	r0, [r0, -r6]
     164:	01000006 	tsteq	r0, r6
     168:	06275200 	strteq	r5, [r7], -r0, lsl #4
     16c:	06400000 	strbeq	r0, [r0], -r0
     170:	00040000 	andeq	r0, r4, r0
     174:	9f5201f3 	svcls	0x005201f3
     178:	00000640 	andeq	r0, r0, r0, asr #12
     17c:	00000718 	andeq	r0, r0, r8, lsl r7
     180:	00570001 	subseq	r0, r7, r1
	...
     194:	0004fc00 	andeq	pc, r4, r0, lsl #24
     198:	00050c00 	andeq	r0, r5, r0, lsl #24
     19c:	53000100 	movwpl	r0, #256	; 0x100
     1a0:	0000050c 	andeq	r0, r0, ip, lsl #10
     1a4:	000005b0 			; <UNDEFINED> instruction: 0x000005b0
     1a8:	b0560001 	subslt	r0, r6, r1
     1ac:	24000005 	strcs	r0, [r0], #-5
     1b0:	04000006 	streq	r0, [r0], #-6
     1b4:	5301f300 	movwpl	pc, #4864	; 0x1300	; <UNPREDICTABLE>
     1b8:	0006249f 	muleq	r6, pc, r4	; <UNPREDICTABLE>
     1bc:	0006c800 	andeq	ip, r6, r0, lsl #16
     1c0:	56000100 	strpl	r0, [r0], -r0, lsl #2
     1c4:	000006c8 	andeq	r0, r0, r8, asr #13
     1c8:	00000718 	andeq	r0, r0, r8, lsl r7
     1cc:	01f30004 	mvnseq	r0, r4
     1d0:	00009f53 	andeq	r9, r0, r3, asr pc
     1d4:	00000000 	andeq	r0, r0, r0
     1d8:	03010000 	movweq	r0, #4096	; 0x1000
     1dc:	00000003 	andeq	r0, r0, r3
     1e0:	05080000 	streq	r0, [r8, #-0]
     1e4:	05640000 	strbeq	r0, [r4, #-0]!
     1e8:	00020000 	andeq	r0, r2, r0
     1ec:	05649f30 	strbeq	r9, [r4, #-3888]!	; 0xfffff0d0
     1f0:	05fc0000 	ldrbeq	r0, [ip, #0]!
     1f4:	00010000 	andeq	r0, r1, r0
     1f8:	00062454 	andeq	r2, r6, r4, asr r4
     1fc:	0006c800 	andeq	ip, r6, r0, lsl #16
     200:	30000200 	andcc	r0, r0, r0, lsl #4
     204:	0006c89f 	muleq	r6, pc, r8	; <UNPREDICTABLE>
     208:	00071800 	andeq	r1, r7, r0, lsl #16
     20c:	54000100 	strpl	r0, [r0], #-256	; 0xffffff00
	...
     218:	00000002 	andeq	r0, r0, r2
     21c:	00000000 	andeq	r0, r0, r0
     220:	00000508 	andeq	r0, r0, r8, lsl #10
     224:	000005fc 	strdeq	r0, [r0], -ip
     228:	9f300002 	svcls	0x00300002
     22c:	000005fc 	strdeq	r0, [r0], -ip
     230:	00000600 	andeq	r0, r0, r0, lsl #12
     234:	00500001 	subseq	r0, r0, r1
     238:	24000006 	strcs	r0, [r0], #-6
     23c:	01000006 	tsteq	r0, r6
     240:	06245400 	strteq	r5, [r4], -r0, lsl #8
     244:	07180000 	ldreq	r0, [r8, -r0]
     248:	00020000 	andeq	r0, r2, r0
     24c:	00009f30 	andeq	r9, r0, r0, lsr pc
	...
     260:	05400000 	strbeq	r0, [r0, #-0]
     264:	056c0000 	strbeq	r0, [ip, #-0]!
     268:	00010000 	andeq	r0, r1, r0
     26c:	00056c50 	andeq	r6, r5, r0, asr ip
     270:	00062400 	andeq	r2, r6, r0, lsl #8
     274:	79000400 	stmdbvc	r0, {sl}
     278:	409f7dc8 	addsmi	r7, pc, r8, asr #27
     27c:	44000006 	strmi	r0, [r0], #-6
     280:	01000006 	tsteq	r0, r6
     284:	06445000 	strbeq	r5, [r4], -r0
     288:	06740000 	ldrbteq	r0, [r4], -r0
     28c:	00040000 	andeq	r0, r4, r0
     290:	9f7dc879 	svcls	0x007dc879
     294:	00000674 	andeq	r0, r0, r4, ror r6
     298:	00000678 	andeq	r0, r0, r8, ror r6
     29c:	78500001 	ldmdavc	r0, {r0}^
     2a0:	18000006 	stmdane	r0, {r1, r2}
     2a4:	04000007 	streq	r0, [r0], #-7
     2a8:	7dc87900 	vstrvc.16	s15, [r8]	; <UNPREDICTABLE>
     2ac:	0000009f 	muleq	r0, pc, r0	; <UNPREDICTABLE>
	...
     2b8:	00054400 	andeq	r4, r5, r0, lsl #8
     2bc:	00062400 	andeq	r2, r6, r0, lsl #8
     2c0:	59000100 	stmdbpl	r0, {r8}
     2c4:	00000640 	andeq	r0, r0, r0, asr #12
     2c8:	00000718 	andeq	r0, r0, r8, lsl r7
     2cc:	00590001 	subseq	r0, r9, r1
	...
     2d8:	44000000 	strmi	r0, [r0], #-0
     2dc:	5b000004 	blpl	2f4 <_start-0x7d0c>
     2e0:	01000004 	tsteq	r0, r4
     2e4:	045b5000 	ldrbeq	r5, [fp], #-0
     2e8:	04fc0000 	ldrbteq	r0, [ip], #0
     2ec:	00010000 	andeq	r0, r1, r0
     2f0:	00000055 	andeq	r0, r0, r5, asr r0
	...
     2fc:	00044400 	andeq	r4, r4, r0, lsl #8
     300:	00045b00 	andeq	r5, r4, r0, lsl #22
     304:	51000100 	mrspl	r0, (UNDEF: 16)
     308:	0000045b 	andeq	r0, r0, fp, asr r4
     30c:	000004fc 	strdeq	r0, [r0], -ip
     310:	00570001 	subseq	r0, r7, r1
	...
     31c:	44000000 	strmi	r0, [r0], #-0
     320:	5b000004 	blpl	338 <_start-0x7cc8>
     324:	01000004 	tsteq	r0, r4
     328:	045b5200 	ldrbeq	r5, [fp], #-512	; 0xfffffe00
     32c:	04fc0000 	ldrbteq	r0, [ip], #0
     330:	00010000 	andeq	r0, r1, r0
     334:	00000056 	andeq	r0, r0, r6, asr r0
	...
     340:	00044400 	andeq	r4, r4, r0, lsl #8
     344:	00045b00 	andeq	r5, r4, r0, lsl #22
     348:	53000100 	movwpl	r0, #256	; 0x100
     34c:	0000045b 	andeq	r0, r0, fp, asr r4
     350:	000004fc 	strdeq	r0, [r0], -ip
     354:	00580001 	subseq	r0, r8, r1
	...
     364:	00045c00 	andeq	r5, r4, r0, lsl #24
     368:	00047400 	andeq	r7, r4, r0, lsl #8
     36c:	50000100 	andpl	r0, r0, r0, lsl #2
     370:	00000474 	andeq	r0, r0, r4, ror r4
     374:	000004c8 	andeq	r0, r0, r8, asr #9
     378:	c8540001 	ldmdagt	r4, {r0}^
     37c:	cb000004 	blgt	394 <_start-0x7c6c>
     380:	01000004 	tsteq	r0, r4
     384:	00005000 	andeq	r5, r0, r0
	...
     390:	036c0000 	cmneq	ip, #0
     394:	03770000 	cmneq	r7, #0
     398:	00010000 	andeq	r0, r1, r0
     39c:	00037750 	andeq	r7, r3, r0, asr r7
     3a0:	0003d000 	andeq	sp, r3, r0
     3a4:	54000100 	strpl	r0, [r0], #-256	; 0xffffff00
	...
     3b4:	00000150 	andeq	r0, r0, r0, asr r1
     3b8:	0000015f 	andeq	r0, r0, pc, asr r1
     3bc:	5f500001 	svcpl	0x00500001
     3c0:	64000001 	strvs	r0, [r0], #-1
     3c4:	04000001 	streq	r0, [r0], #-1
     3c8:	5001f300 	andpl	pc, r1, r0, lsl #6
     3cc:	0000009f 	muleq	r0, pc, r0	; <UNPREDICTABLE>
	...
     3d8:	50000000 	andpl	r0, r0, r0
     3dc:	5c000001 	stcpl	0, cr0, [r0], {1}
     3e0:	01000001 	tsteq	r0, r1
     3e4:	015c5100 	cmpeq	ip, r0, lsl #2
     3e8:	015f0000 	cmpeq	pc, r0
     3ec:	00010000 	andeq	r0, r1, r0
     3f0:	00015f52 	andeq	r5, r1, r2, asr pc
     3f4:	00016400 	andeq	r6, r1, r0, lsl #8
     3f8:	f3000400 	vshl.u8	d0, d0, d0
     3fc:	009f5101 	addseq	r5, pc, r1, lsl #2
	...
     40c:	44000000 	strmi	r0, [r0], #-0
     410:	70000000 	andvc	r0, r0, r0
     414:	01000000 	mrseq	r0, (UNDEF: 0)
     418:	00705000 	rsbseq	r5, r0, r0
     41c:	012c0000 			; <UNDEFINED> instruction: 0x012c0000
     420:	00010000 	andeq	r0, r1, r0
     424:	00012c55 	andeq	r2, r1, r5, asr ip
     428:	00013000 	andeq	r3, r1, r0
     42c:	50000100 	andpl	r0, r0, r0, lsl #2
     430:	00000130 	andeq	r0, r0, r0, lsr r1
     434:	00000150 	andeq	r0, r0, r0, asr r1
     438:	00550001 	subseq	r0, r5, r1
	...
     448:	00004400 	andeq	r4, r0, r0, lsl #8
     44c:	00007300 	andeq	r7, r0, r0, lsl #6
     450:	51000100 	mrspl	r0, (UNDEF: 16)
     454:	00000073 	andeq	r0, r0, r3, ror r0
     458:	0000012c 	andeq	r0, r0, ip, lsr #2
     45c:	01f30004 	mvnseq	r0, r4
     460:	012c9f51 			; <UNDEFINED> instruction: 0x012c9f51
     464:	01500000 	cmpeq	r0, r0
     468:	00010000 	andeq	r0, r1, r0
     46c:	00000051 	andeq	r0, r0, r1, asr r0
	...
     478:	44000000 	strmi	r0, [r0], #-0
     47c:	73000000 	movwvc	r0, #0
     480:	01000000 	mrseq	r0, (UNDEF: 0)
     484:	00735200 	rsbseq	r5, r3, r0, lsl #4
     488:	012c0000 			; <UNDEFINED> instruction: 0x012c0000
     48c:	00010000 	andeq	r0, r1, r0
     490:	00012c56 	andeq	r2, r1, r6, asr ip
     494:	00015000 	andeq	r5, r1, r0
     498:	52000100 	andpl	r0, r0, #0, 2
	...
     4a4:	00000002 	andeq	r0, r0, r2
     4a8:	00500000 	subseq	r0, r0, r0
     4ac:	00540000 	subseq	r0, r4, r0
     4b0:	00020000 	andeq	r0, r2, r0
     4b4:	00549f30 	subseq	r9, r4, r0, lsr pc
     4b8:	007c0000 	rsbseq	r0, ip, r0
     4bc:	00010000 	andeq	r0, r1, r0
     4c0:	00012c54 	andeq	r2, r1, r4, asr ip
     4c4:	00015000 	andeq	r5, r1, r0
     4c8:	54000100 	strpl	r0, [r0], #-256	; 0xffffff00
	...
     4d4:	007c0000 	rsbseq	r0, ip, r0
     4d8:	012c0000 			; <UNDEFINED> instruction: 0x012c0000
     4dc:	00010000 	andeq	r0, r1, r0
     4e0:	00000054 	andeq	r0, r0, r4, asr r0
     4e4:	00000000 	andeq	r0, r0, r0
     4e8:	00010100 	andeq	r0, r1, r0, lsl #2
     4ec:	0000a000 	andeq	sl, r0, r0
     4f0:	0000e800 	andeq	lr, r0, r0, lsl #16
     4f4:	56000100 	strpl	r0, [r0], -r0, lsl #2
     4f8:	00000100 	andeq	r0, r0, r0, lsl #2
     4fc:	0000012c 	andeq	r0, r0, ip, lsr #2
     500:	00560001 	subseq	r0, r6, r1
     504:	00000000 	andeq	r0, r0, r0
     508:	02000000 	andeq	r0, r0, #0
     50c:	b4000202 	strlt	r0, [r0], #-514	; 0xfffffdfe
     510:	dc000000 	stcle	0, cr0, [r0], {-0}
     514:	03000000 	movweq	r0, #0
     518:	9f107600 	svcls	0x00107600
     51c:	000000dc 	ldrdeq	r0, [r0], -ip
     520:	0000012c 	andeq	r0, r0, ip, lsr #2
     524:	1c760003 	ldclne	0, cr0, [r6], #-12
     528:	0000009f 	muleq	r0, pc, r0	; <UNPREDICTABLE>
	...
     538:	00027000 	andeq	r7, r2, r0
     53c:	00029c00 	andeq	r9, r2, r0, lsl #24
     540:	50000100 	andpl	r0, r0, r0, lsl #2
     544:	0000029c 	muleq	r0, ip, r2
     548:	0000034c 	andeq	r0, r0, ip, asr #6
     54c:	4c550001 	mrrcmi	0, 0, r0, r5, cr1
     550:	50000003 	andpl	r0, r0, r3
     554:	01000003 	tsteq	r0, r3
     558:	03505000 	cmpeq	r0, #0
     55c:	036c0000 	cmneq	ip, #0
     560:	00010000 	andeq	r0, r1, r0
     564:	00000055 	andeq	r0, r0, r5, asr r0
	...
     570:	70000000 	andvc	r0, r0, r0
     574:	9f000002 	svcls	0x00000002
     578:	01000002 	tsteq	r0, r2
     57c:	029f5100 	addseq	r5, pc, #0, 2
     580:	034c0000 	movteq	r0, #49152	; 0xc000
     584:	00040000 	andeq	r0, r4, r0
     588:	9f5101f3 	svcls	0x005101f3
     58c:	0000034c 	andeq	r0, r0, ip, asr #6
     590:	0000036c 	andeq	r0, r0, ip, ror #6
     594:	00510001 	subseq	r0, r1, r1
	...
     5a4:	00027000 	andeq	r7, r2, r0
     5a8:	00029f00 	andeq	r9, r2, r0, lsl #30
     5ac:	52000100 	andpl	r0, r0, #0, 2
     5b0:	0000029f 	muleq	r0, pc, r2	; <UNPREDICTABLE>
     5b4:	0000034c 	andeq	r0, r0, ip, asr #6
     5b8:	4c560001 	mrrcmi	0, 0, r0, r6, cr1
     5bc:	6c000003 	stcvs	0, cr0, [r0], {3}
     5c0:	01000003 	tsteq	r0, r3
     5c4:	00005200 	andeq	r5, r0, r0, lsl #4
     5c8:	00000000 	andeq	r0, r0, r0
     5cc:	00020000 	andeq	r0, r2, r0
     5d0:	00000000 	andeq	r0, r0, r0
     5d4:	0000027c 	andeq	r0, r0, ip, ror r2
     5d8:	00000280 	andeq	r0, r0, r0, lsl #5
     5dc:	9f300002 	svcls	0x00300002
     5e0:	00000280 	andeq	r0, r0, r0, lsl #5
     5e4:	000002a8 	andeq	r0, r0, r8, lsr #5
     5e8:	4c540001 	mrrcmi	0, 0, r0, r4, cr1
     5ec:	6c000003 	stcvs	0, cr0, [r0], {3}
     5f0:	01000003 	tsteq	r0, r3
     5f4:	00005400 	andeq	r5, r0, r0, lsl #8
	...
     600:	000002a8 	andeq	r0, r0, r8, lsr #5
     604:	0000034c 	andeq	r0, r0, ip, asr #6
     608:	00540001 	subseq	r0, r4, r1
     60c:	00000000 	andeq	r0, r0, r0
     610:	01000000 	mrseq	r0, (UNDEF: 0)
     614:	0002d000 	andeq	sp, r2, r0
     618:	00034c00 	andeq	r4, r3, r0, lsl #24
     61c:	56000100 	strpl	r0, [r0], -r0, lsl #2
	...
     628:	00020202 	andeq	r0, r2, r2, lsl #4
     62c:	000002e4 	andeq	r0, r0, r4, ror #5
     630:	0000030c 	andeq	r0, r0, ip, lsl #6
     634:	10760003 	rsbsne	r0, r6, r3
     638:	00030c9f 	muleq	r3, pc, ip	; <UNPREDICTABLE>
     63c:	00034c00 	andeq	r4, r3, r0, lsl #24
     640:	76000300 	strvc	r0, [r0], -r0, lsl #6
     644:	00009f1c 	andeq	r9, r0, ip, lsl pc
	...
     650:	01880000 	orreq	r0, r8, r0
     654:	01a70000 			; <UNDEFINED> instruction: 0x01a70000
     658:	00010000 	andeq	r0, r1, r0
     65c:	0001a750 	andeq	sl, r1, r0, asr r7
     660:	00027000 	andeq	r7, r2, r0
     664:	54000100 	strpl	r0, [r0], #-256	; 0xffffff00
	...
     670:	01d40001 	bicseq	r0, r4, r1
     674:	02500000 	subseq	r0, r0, #0
     678:	00010000 	andeq	r0, r1, r0
     67c:	00000054 	andeq	r0, r0, r4, asr r0
     680:	00000000 	andeq	r0, r0, r0
     684:	02020200 	andeq	r0, r2, #0, 4
     688:	0001e800 	andeq	lr, r1, r0, lsl #16
     68c:	00021000 	andeq	r1, r2, r0
     690:	74000300 	strvc	r0, [r0], #-768	; 0xfffffd00
     694:	02109f10 	andseq	r9, r0, #16, 30	; 0x40
     698:	02500000 	subseq	r0, r0, #0
     69c:	00030000 	andeq	r0, r3, r0
     6a0:	009f1c74 	addseq	r1, pc, r4, ror ip	; <UNPREDICTABLE>
	...
     6ac:	64000000 	strvs	r0, [r0], #-0
     6b0:	7f000001 	svcvc	0x00000001
     6b4:	01000001 	tsteq	r0, r1
     6b8:	017f5000 	cmneq	pc, r0
     6bc:	01880000 	orreq	r0, r8, r0
     6c0:	00010000 	andeq	r0, r1, r0
     6c4:	00000054 	andeq	r0, r0, r4, asr r0
     6c8:	00000000 	andeq	r0, r0, r0
     6cc:	70000000 	andvc	r0, r0, r0
     6d0:	88000001 	stmdahi	r0, {r0}
     6d4:	01000001 	tsteq	r0, r1
     6d8:	00005500 	andeq	r5, r0, r0, lsl #10
	...
     6e4:	00000180 	andeq	r0, r0, r0, lsl #3
     6e8:	00000188 	andeq	r0, r0, r8, lsl #3
     6ec:	00500001 	subseq	r0, r0, r1
	...
     6f8:	3c000000 	stccc	0, cr0, [r0], {-0}
     6fc:	40000000 	andmi	r0, r0, r0
     700:	01000000 	mrseq	r0, (UNDEF: 0)
     704:	00405000 	subeq	r5, r0, r0
     708:	00440000 	subeq	r0, r4, r0
     70c:	00040000 	andeq	r0, r4, r0
     710:	9f01b870 	svcls	0x0001b870
	...
     720:	00000030 	andeq	r0, r0, r0, lsr r0
     724:	00000034 	andeq	r0, r0, r4, lsr r0
     728:	34500001 	ldrbcc	r0, [r0], #-1
     72c:	3c000000 	stccc	0, cr0, [r0], {-0}
     730:	04000000 	streq	r0, [r0], #-0
     734:	5001f300 	andpl	pc, r1, r0, lsl #6
     738:	0000009f 	muleq	r0, pc, r0	; <UNPREDICTABLE>
	...
     744:	00001800 	andeq	r1, r0, r0, lsl #16
     748:	00002300 	andeq	r2, r0, r0, lsl #6
     74c:	50000100 	andpl	r0, r0, r0, lsl #2
     750:	00000023 	andeq	r0, r0, r3, lsr #32
     754:	00000030 	andeq	r0, r0, r0, lsr r0
     758:	00540001 	subseq	r0, r4, r1
	...
     764:	08000000 	stmdaeq	r0, {}	; <UNPREDICTABLE>
     768:	0f000000 	svceq	0x00000000
     76c:	01000000 	mrseq	r0, (UNDEF: 0)
     770:	000f5000 	andeq	r5, pc, r0
     774:	00180000 	andseq	r0, r8, r0
     778:	00040000 	andeq	r0, r4, r0
     77c:	9f5001f3 	svcls	0x005001f3
	...
     790:	00000004 	andeq	r0, r0, r4
     794:	04500001 	ldrbeq	r0, [r0], #-1
     798:	08000000 	stmdaeq	r0, {}	; <UNPREDICTABLE>
     79c:	03000000 	movweq	r0, #0
     7a0:	9f487000 	svcls	0x00487000
	...
     7b4:	03d00000 	bicseq	r0, r0, #0
     7b8:	03f80000 	mvnseq	r0, #0
     7bc:	00010000 	andeq	r0, r1, r0
     7c0:	0003f850 	andeq	pc, r3, r0, asr r8	; <UNPREDICTABLE>
     7c4:	00040c00 	andeq	r0, r4, r0, lsl #24
     7c8:	54000100 	strpl	r0, [r0], #-256	; 0xffffff00
     7cc:	0000040c 	andeq	r0, r0, ip, lsl #8
     7d0:	00000414 	andeq	r0, r0, r4, lsl r4
     7d4:	50030005 	andpl	r0, r3, r5
     7d8:	1400009b 	strne	r0, [r0], #-155	; 0xffffff65
     7dc:	17000004 	strne	r0, [r0, -r4]
     7e0:	01000004 	tsteq	r0, r4
     7e4:	04175000 	ldreq	r5, [r7], #-0
     7e8:	04440000 	strbeq	r0, [r4], #-0
     7ec:	00040000 	andeq	r0, r4, r0
     7f0:	9f5001f3 	svcls	0x005001f3
	...
     804:	000003d0 	ldrdeq	r0, [r0], -r0	; <UNPREDICTABLE>
     808:	000003f4 	strdeq	r0, [r0], -r4
     80c:	f4510001 			; <UNDEFINED> instruction: 0xf4510001
     810:	14000003 	strne	r0, [r0], #-3
     814:	01000004 	tsteq	r0, r4
     818:	04145500 	ldreq	r5, [r4], #-1280	; 0xfffffb00
     81c:	04170000 	ldreq	r0, [r7], #-0
     820:	00010000 	andeq	r0, r1, r0
     824:	00041751 	andeq	r1, r4, r1, asr r7
     828:	00044400 	andeq	r4, r4, r0, lsl #8
     82c:	f3000400 	vshl.u8	d0, d0, d0
     830:	009f5101 	addseq	r5, pc, r1, lsl #2
	...
     83c:	00000101 	andeq	r0, r0, r1, lsl #2
     840:	00000000 	andeq	r0, r0, r0
     844:	20000000 	andcs	r0, r0, r0
     848:	01000000 	mrseq	r0, (UNDEF: 0)
     84c:	00205000 	eoreq	r5, r0, r0
     850:	00e40000 	rsceq	r0, r4, r0
     854:	00040000 	andeq	r0, r4, r0
     858:	9f5001f3 	svcls	0x005001f3
     85c:	000000e4 	andeq	r0, r0, r4, ror #1
     860:	000000e8 	andeq	r0, r0, r8, ror #1
     864:	e8500001 	ldmda	r0, {r0}^
     868:	ec000000 	stc	0, cr0, [r0], {-0}
     86c:	04000000 	streq	r0, [r0], #-0
     870:	5001f300 	andpl	pc, r1, r0, lsl #6
     874:	0000009f 	muleq	r0, pc, r0	; <UNPREDICTABLE>
	...
     888:	20000000 	andcs	r0, r0, r0
     88c:	01000000 	mrseq	r0, (UNDEF: 0)
     890:	00205100 	eoreq	r5, r0, r0, lsl #2
     894:	00740000 	rsbseq	r0, r4, r0
     898:	00010000 	andeq	r0, r1, r0
     89c:	00009051 	andeq	r9, r0, r1, asr r0
     8a0:	00009400 	andeq	r9, r0, r0, lsl #8
     8a4:	51000100 	mrspl	r0, (UNDEF: 16)
     8a8:	000000b4 	strheq	r0, [r0], -r4
     8ac:	000000b8 	strheq	r0, [r0], -r8
     8b0:	d0510001 	subsle	r0, r1, r1
     8b4:	ec000000 	stc	0, cr0, [r0], {-0}
     8b8:	01000000 	mrseq	r0, (UNDEF: 0)
     8bc:	00005100 	andeq	r5, r0, r0, lsl #2
     8c0:	00000000 	andeq	r0, r0, r0
     8c4:	01020000 	mrseq	r0, (UNDEF: 2)
     8c8:	00000001 	andeq	r0, r0, r1
     8cc:	00000000 	andeq	r0, r0, r0
     8d0:	00200000 	eoreq	r0, r0, r0
     8d4:	00010000 	andeq	r0, r1, r0
     8d8:	00002050 	andeq	r2, r0, r0, asr r0
     8dc:	0000e400 	andeq	lr, r0, r0, lsl #8
     8e0:	5c000100 	stfpls	f0, [r0], {-0}
     8e4:	000000e4 	andeq	r0, r0, r4, ror #1
     8e8:	000000e8 	andeq	r0, r0, r8, ror #1
     8ec:	e8500001 	ldmda	r0, {r0}^
     8f0:	ec000000 	stc	0, cr0, [r0], {-0}
     8f4:	04000000 	streq	r0, [r0], #-0
     8f8:	5001f300 	andpl	pc, r1, r0, lsl #6
     8fc:	0000009f 	muleq	r0, pc, r0	; <UNPREDICTABLE>
     900:	00000000 	andeq	r0, r0, r0
     904:	00000300 	andeq	r0, r0, r0, lsl #6
	...
     914:	20000000 	andcs	r0, r0, r0
     918:	01000000 	mrseq	r0, (UNDEF: 0)
     91c:	00205100 	eoreq	r5, r0, r0, lsl #2
     920:	00380000 	eorseq	r0, r8, r0
     924:	00010000 	andeq	r0, r1, r0
     928:	00003853 	andeq	r3, r0, r3, asr r8
     92c:	00004c00 	andeq	r4, r0, r0, lsl #24
     930:	52000100 	andpl	r0, r0, #0, 2
     934:	0000004c 	andeq	r0, r0, ip, asr #32
     938:	00000078 	andeq	r0, r0, r8, ror r0
     93c:	78530001 	ldmdavc	r3, {r0}^
     940:	90000000 	andls	r0, r0, r0
     944:	01000000 	mrseq	r0, (UNDEF: 0)
     948:	00905000 	addseq	r5, r0, r0
     94c:	00e40000 	rsceq	r0, r4, r0
     950:	00010000 	andeq	r0, r1, r0
     954:	0000e453 	andeq	lr, r0, r3, asr r4
     958:	0000ec00 	andeq	lr, r0, r0, lsl #24
     95c:	51000100 	mrspl	r0, (UNDEF: 16)
	...
     96c:	00480000 	subeq	r0, r8, r0
     970:	004c0000 	subeq	r0, ip, r0
     974:	00010000 	andeq	r0, r1, r0
     978:	00004c53 	andeq	r4, r0, r3, asr ip
     97c:	00005000 	andeq	r5, r0, r0
     980:	70001200 	andvc	r1, r0, r0, lsl #4
     984:	7c243800 	stcvc	8, cr3, [r4], #-0
     988:	08019402 	stmdaeq	r1, {r1, sl, ip, pc}
     98c:	3b221aff 	blcc	887590 <__bss_end__+0x87d630>
     990:	27007224 	strcs	r7, [r0, -r4, lsr #4]
     994:	0000509f 	muleq	r0, pc, r0	; <UNPREDICTABLE>
     998:	00005c00 	andeq	r5, r0, r0, lsl #24
     99c:	70001200 	andvc	r1, r0, r0, lsl #4
     9a0:	7c243800 	stcvc	8, cr3, [r4], #-0
     9a4:	0801947e 	stmdaeq	r1, {r1, r2, r3, r4, r5, r6, sl, ip, pc}
     9a8:	3b221aff 	blcc	8875ac <__bss_end__+0x87d64c>
     9ac:	27007224 	strcs	r7, [r0, -r4, lsr #4]
     9b0:	0000009f 	muleq	r0, pc, r0	; <UNPREDICTABLE>
     9b4:	00000000 	andeq	r0, r0, r0
     9b8:	1c000000 	stcne	0, cr0, [r0], {-0}
     9bc:	e4000000 	str	r0, [r0], #-0
     9c0:	01000000 	mrseq	r0, (UNDEF: 0)
     9c4:	00005e00 	andeq	r5, r0, r0, lsl #28
	...
     9d4:	00040000 	andeq	r0, r4, r0
     9d8:	00010000 	andeq	r0, r1, r0
     9dc:	00000452 	andeq	r0, r0, r2, asr r4
     9e0:	00001800 	andeq	r1, r0, r0, lsl #16
     9e4:	f3000400 	vshl.u8	d0, d0, d0
     9e8:	009f5201 	addseq	r5, pc, r1, lsl #4
     9ec:	00000000 	andeq	r0, r0, r0
     9f0:	02000000 	andeq	r0, r0, #0
     9f4:	01010000 	mrseq	r0, (UNDEF: 1)
     9f8:	00000000 	andeq	r0, r0, r0
     9fc:	08000000 	stmdaeq	r0, {}	; <UNPREDICTABLE>
     a00:	01000000 	mrseq	r0, (UNDEF: 0)
     a04:	00085000 	andeq	r5, r8, r0
     a08:	00100000 	andseq	r0, r0, r0
     a0c:	00010000 	andeq	r0, r1, r0
     a10:	00001053 	andeq	r1, r0, r3, asr r0
     a14:	00001400 	andeq	r1, r0, r0, lsl #8
     a18:	73000300 	movwvc	r0, #768	; 0x300
     a1c:	00149f01 	andseq	r9, r4, r1, lsl #30
     a20:	00180000 	andseq	r0, r8, r0
     a24:	00010000 	andeq	r0, r1, r0
     a28:	00000053 	andeq	r0, r0, r3, asr r0
     a2c:	00000000 	andeq	r0, r0, r0
     a30:	04000000 	streq	r0, [r0], #-0
     a34:	18000000 	stmdane	r0, {}	; <UNPREDICTABLE>
     a38:	01000000 	mrseq	r0, (UNDEF: 0)
     a3c:	00005200 	andeq	r5, r0, r0, lsl #4
	...
     a4c:	0000002c 	andeq	r0, r0, ip, lsr #32
     a50:	00000038 	andeq	r0, r0, r8, lsr r0
     a54:	38500001 	ldmdacc	r0, {r0}^
     a58:	48000000 	stmdami	r0, {}	; <UNPREDICTABLE>
     a5c:	01000000 	mrseq	r0, (UNDEF: 0)
     a60:	00485400 	subeq	r5, r8, r0, lsl #8
     a64:	00580000 	subseq	r0, r8, r0
     a68:	00010000 	andeq	r0, r1, r0
     a6c:	00000050 	andeq	r0, r0, r0, asr r0
	...
     a7c:	00000b00 	andeq	r0, r0, r0, lsl #22
     a80:	50000100 	andpl	r0, r0, r0, lsl #2
     a84:	0000000b 	andeq	r0, r0, fp
     a88:	00000014 	andeq	r0, r0, r4, lsl r0
     a8c:	00540001 	subseq	r0, r4, r1
	...
     a98:	00000101 	andeq	r0, r0, r1, lsl #2
     a9c:	08000000 	stmdaeq	r0, {}	; <UNPREDICTABLE>
     aa0:	01000000 	mrseq	r0, (UNDEF: 0)
     aa4:	00085000 	andeq	r5, r8, r0
     aa8:	00340000 	eorseq	r0, r4, r0
     aac:	00010000 	andeq	r0, r1, r0
     ab0:	00000054 	andeq	r0, r0, r4, asr r0
	...
     abc:	70000000 	andvc	r0, r0, r0
     ac0:	9c000002 	stcls	0, cr0, [r0], {2}
     ac4:	01000002 	tsteq	r0, r2
     ac8:	029c5000 	addseq	r5, ip, #0
     acc:	050c0000 	streq	r0, [ip, #-0]
     ad0:	00010000 	andeq	r0, r1, r0
     ad4:	00050c57 	andeq	r0, r5, r7, asr ip
     ad8:	00052000 	andeq	r2, r5, r0
     adc:	f3000400 	vshl.u8	d0, d0, d0
     ae0:	009f5001 	addseq	r5, pc, r1
	...
     af0:	00027000 	andeq	r7, r2, r0
     af4:	00028800 	andeq	r8, r2, r0, lsl #16
     af8:	51000100 	mrspl	r0, (UNDEF: 16)
     afc:	00000288 	andeq	r0, r0, r8, lsl #5
     b00:	0000029c 	muleq	r0, ip, r2
     b04:	01710003 	cmneq	r1, r3
     b08:	00029c9f 	muleq	r2, pc, ip	; <UNPREDICTABLE>
     b0c:	00052000 	andeq	r2, r5, r0
     b10:	f3000400 	vshl.u8	d0, d0, d0
     b14:	009f5101 	addseq	r5, pc, r1, lsl #2
	...
     b20:	70000000 	andvc	r0, r0, r0
     b24:	9c000002 	stcls	0, cr0, [r0], {2}
     b28:	01000002 	tsteq	r0, r2
     b2c:	029c5200 	addseq	r5, ip, #0, 4
     b30:	050c0000 	streq	r0, [ip, #-0]
     b34:	00010000 	andeq	r0, r1, r0
     b38:	00000059 	andeq	r0, r0, r9, asr r0
     b3c:	00000000 	andeq	r0, r0, r0
     b40:	00000100 	andeq	r0, r0, r0, lsl #2
     b44:	00000000 	andeq	r0, r0, r0
     b48:	00000101 	andeq	r0, r0, r1, lsl #2
     b4c:	00000000 	andeq	r0, r0, r0
     b50:	00000202 	andeq	r0, r0, r2, lsl #4
     b54:	00028400 	andeq	r8, r2, r0, lsl #8
     b58:	00029c00 	andeq	r9, r2, r0, lsl #24
     b5c:	50000100 	andpl	r0, r0, r0, lsl #2
     b60:	0000029c 	muleq	r0, ip, r2
     b64:	000002a0 	andeq	r0, r0, r0, lsr #5
     b68:	a0540001 	subsge	r0, r4, r1
     b6c:	a4000002 	strge	r0, [r0], #-2
     b70:	03000002 	movweq	r0, #2
     b74:	9f017400 	svcls	0x00017400
     b78:	000002a4 	andeq	r0, r0, r4, lsr #5
     b7c:	000002c8 	andeq	r0, r0, r8, asr #5
     b80:	c8540001 	ldmdagt	r4, {r0}^
     b84:	cc000002 	stcgt	0, cr0, [r0], {2}
     b88:	03000002 	movweq	r0, #2
     b8c:	9f017400 	svcls	0x00017400
     b90:	000002cc 	andeq	r0, r0, ip, asr #5
     b94:	000003f8 	strdeq	r0, [r0], -r8
     b98:	f8540001 			; <UNDEFINED> instruction: 0xf8540001
     b9c:	fc000003 	stc2	0, cr0, [r0], {3}
     ba0:	03000003 	movweq	r0, #3
     ba4:	9f017400 	svcls	0x00017400
     ba8:	000003fc 	strdeq	r0, [r0], -ip
     bac:	000004f8 	strdeq	r0, [r0], -r8
     bb0:	f8540001 			; <UNDEFINED> instruction: 0xf8540001
     bb4:	00000004 	andeq	r0, r0, r4
     bb8:	03000005 	movweq	r0, #5
     bbc:	9f017400 	svcls	0x00017400
     bc0:	00000500 	andeq	r0, r0, r0, lsl #10
     bc4:	0000050c 	andeq	r0, r0, ip, lsl #10
     bc8:	00540001 	subseq	r0, r4, r1
	...
     bd4:	8c000000 	stchi	0, cr0, [r0], {-0}
     bd8:	0c000002 	stceq	0, cr0, [r0], {2}
     bdc:	01000005 	tsteq	r0, r5
     be0:	050c5800 	streq	r5, [ip, #-2048]	; 0xfffff800
     be4:	05200000 	streq	r0, [r0, #-0]!
     be8:	000a0000 	andeq	r0, sl, r0
     bec:	f35101f3 	vbsl	q8, <illegal reg q8.5>, <illegal reg q9.5>
     bf0:	31225001 			; <UNDEFINED> instruction: 0x31225001
     bf4:	00009f1c 	andeq	r9, r0, ip, lsl pc
	...
     c08:	000003dc 	ldrdeq	r0, [r0], -ip
     c0c:	00000400 	andeq	r0, r0, r0, lsl #8
     c10:	2c500001 	mrrccs	0, 0, r0, r0, cr1	; <UNPREDICTABLE>
     c14:	30000004 	andcc	r0, r0, r4
     c18:	01000004 	tsteq	r0, r4
     c1c:	045c5000 	ldrbeq	r5, [ip], #-0
     c20:	04600000 	strbteq	r0, [r0], #-0
     c24:	00010000 	andeq	r0, r1, r0
     c28:	00048c50 	andeq	r8, r4, r0, asr ip
     c2c:	00049000 	andeq	r9, r4, r0
     c30:	50000100 	andpl	r0, r0, r0, lsl #2
     c34:	000004d0 	ldrdeq	r0, [r0], -r0	; <UNPREDICTABLE>
     c38:	000004d4 	ldrdeq	r0, [r0], -r4
     c3c:	00500001 	subseq	r0, r0, r1
     c40:	00000000 	andeq	r0, r0, r0
     c44:	02000000 	andeq	r0, r0, #0
     c48:	00000000 	andeq	r0, r0, r0
     c4c:	0002d800 	andeq	sp, r2, r0, lsl #16
     c50:	0002e000 	andeq	lr, r2, r0
     c54:	30000200 	andcc	r0, r0, r0, lsl #4
     c58:	0002e09f 	muleq	r2, pc, r0	; <UNPREDICTABLE>
     c5c:	0002e400 	andeq	lr, r2, r0, lsl #8
     c60:	56000100 	strpl	r0, [r0], -r0, lsl #2
     c64:	000002ec 	andeq	r0, r0, ip, ror #5
     c68:	000004f8 	strdeq	r0, [r0], -r8
     c6c:	00560001 	subseq	r0, r6, r1
	...
     c7c:	00007000 	andeq	r7, r0, r0
     c80:	00009400 	andeq	r9, r0, r0, lsl #8
     c84:	50000100 	andpl	r0, r0, r0, lsl #2
     c88:	00000094 	muleq	r0, r4, r0
     c8c:	000000fc 	strdeq	r0, [r0], -ip
     c90:	02700003 	rsbseq	r0, r0, #3
     c94:	0000fc9f 	muleq	r0, pc, ip	; <UNPREDICTABLE>
     c98:	00021c00 	andeq	r1, r2, r0, lsl #24
     c9c:	f3000400 	vshl.u8	d0, d0, d0
     ca0:	009f5001 	addseq	r5, pc, r1
	...
     cb8:	70000000 	andvc	r0, r0, r0
     cbc:	e0000000 	and	r0, r0, r0
     cc0:	01000000 	mrseq	r0, (UNDEF: 0)
     cc4:	00e05100 	rsceq	r5, r0, r0, lsl #2
     cc8:	01540000 	cmpeq	r4, r0
     ccc:	00010000 	andeq	r0, r1, r0
     cd0:	00015455 	andeq	r5, r1, r5, asr r4
     cd4:	00015800 	andeq	r5, r1, r0, lsl #16
     cd8:	51000100 	mrspl	r0, (UNDEF: 16)
     cdc:	00000158 	andeq	r0, r0, r8, asr r1
     ce0:	000001b0 			; <UNDEFINED> instruction: 0x000001b0
     ce4:	b0550001 	subslt	r0, r5, r1
     ce8:	c0000001 	andgt	r0, r0, r1
     cec:	01000001 	tsteq	r0, r1
     cf0:	01c05100 	biceq	r5, r0, r0, lsl #2
     cf4:	01e40000 	mvneq	r0, r0
     cf8:	00010000 	andeq	r0, r1, r0
     cfc:	0001e455 	andeq	lr, r1, r5, asr r4
     d00:	0001e700 	andeq	lr, r1, r0, lsl #14
     d04:	51000100 	mrspl	r0, (UNDEF: 16)
     d08:	000001e7 	andeq	r0, r0, r7, ror #3
     d0c:	0000021c 	andeq	r0, r0, ip, lsl r2
     d10:	00550001 	subseq	r0, r5, r1
	...
     d1c:	70000000 	andvc	r0, r0, r0
     d20:	84000000 	strhi	r0, [r0], #-0
     d24:	01000000 	mrseq	r0, (UNDEF: 0)
     d28:	00845200 	addeq	r5, r4, r0, lsl #4
     d2c:	021c0000 	andseq	r0, ip, #0
     d30:	00010000 	andeq	r0, r1, r0
     d34:	00000054 	andeq	r0, r0, r4, asr r0
	...
     d40:	00010000 	andeq	r0, r1, r0
     d44:	70000000 	andvc	r0, r0, r0
     d48:	f4000000 	vst4.8	{d0-d3}, [r0], r0
     d4c:	01000000 	mrseq	r0, (UNDEF: 0)
     d50:	014c5300 	mrseq	r5, SPSR_mon
     d54:	01800000 	orreq	r0, r0, r0
     d58:	00010000 	andeq	r0, r1, r0
     d5c:	00018053 	andeq	r8, r1, r3, asr r0
     d60:	00018c00 	andeq	r8, r1, r0, lsl #24
     d64:	f3000400 	vshl.u8	d0, d0, d0
     d68:	b09f5301 	addslt	r5, pc, r1, lsl #6
     d6c:	e7000001 	str	r0, [r0, -r1]
     d70:	01000001 	tsteq	r0, r1
     d74:	01e75300 	mvneq	r5, r0, lsl #6
     d78:	021c0000 	andseq	r0, ip, #0
     d7c:	00040000 	andeq	r0, r4, r0
     d80:	9f5301f3 	svcls	0x005301f3
	...
     d90:	00700000 	rsbseq	r0, r0, r0
     d94:	008c0000 	addeq	r0, ip, r0
     d98:	00020000 	andeq	r0, r2, r0
     d9c:	008c0091 	umulleq	r0, ip, r1, r0
     da0:	01930000 	orrseq	r0, r3, r0
     da4:	00010000 	andeq	r0, r1, r0
     da8:	0001b052 	andeq	fp, r1, r2, asr r0
     dac:	0001e700 	andeq	lr, r1, r0, lsl #14
     db0:	52000100 	andpl	r0, r0, #0, 2
	...
     dbc:	01000001 	tsteq	r0, r1
     dc0:	00000001 	andeq	r0, r0, r1
     dc4:	00000000 	andeq	r0, r0, r0
     dc8:	01010100 	mrseq	r0, (UNDEF: 17)
     dcc:	01000001 	tsteq	r0, r1
     dd0:	00000001 	andeq	r0, r0, r1
	...
     ddc:	0000008c 	andeq	r0, r0, ip, lsl #1
     de0:	000000fc 	strdeq	r0, [r0], -ip
     de4:	fc5d0001 	mrrc2	0, 0, r0, sp, cr1
     de8:	3c000000 	stccc	0, cr0, [r0], {-0}
     dec:	01000001 	tsteq	r0, r1
     df0:	013c5000 	teqeq	ip, r0
     df4:	01480000 	mrseq	r0, (UNDEF: 72)
     df8:	00030000 	andeq	r0, r3, r0
     dfc:	489f0271 	ldmmi	pc, {r0, r4, r5, r6, r9}	; <UNPREDICTABLE>
     e00:	4c000001 	stcmi	0, cr0, [r0], {1}
     e04:	01000001 	tsteq	r0, r1
     e08:	014c5000 	mrseq	r5, (UNDEF: 76)
     e0c:	01580000 	cmpeq	r8, r0
     e10:	00010000 	andeq	r0, r1, r0
     e14:	0001585d 	andeq	r5, r1, sp, asr r8
     e18:	00016c00 	andeq	r6, r1, r0, lsl #24
     e1c:	51000100 	mrspl	r0, (UNDEF: 16)
     e20:	0000016c 	andeq	r0, r0, ip, ror #2
     e24:	00000178 	andeq	r0, r0, r8, ror r1
     e28:	7f710003 	svcvc	0x00710003
     e2c:	0001789f 	muleq	r1, pc, r8	; <UNPREDICTABLE>
     e30:	00018400 	andeq	r8, r1, r0, lsl #8
     e34:	71000300 	mrsvc	r0, LR_irq
     e38:	01849f01 	orreq	r9, r4, r1, lsl #30
     e3c:	01930000 	orrseq	r0, r3, r0
     e40:	00010000 	andeq	r0, r1, r0
     e44:	0001b050 	andeq	fp, r1, r0, asr r0
     e48:	0001b000 	andeq	fp, r1, r0
     e4c:	5d000100 	stfpls	f0, [r0, #-0]
     e50:	000001b0 			; <UNDEFINED> instruction: 0x000001b0
     e54:	000001b8 			; <UNDEFINED> instruction: 0x000001b8
     e58:	a1910004 	orrsge	r0, r1, r4
     e5c:	01b89f7f 			; <UNDEFINED> instruction: 0x01b89f7f
     e60:	01bc0000 			; <UNDEFINED> instruction: 0x01bc0000
     e64:	00010000 	andeq	r0, r1, r0
     e68:	0001bc50 	andeq	fp, r1, r0, asr ip
     e6c:	0001c000 	andeq	ip, r1, r0
     e70:	5d000100 	stfpls	f0, [r0, #-0]
     e74:	000001c0 	andeq	r0, r0, r0, asr #3
     e78:	000001d4 	ldrdeq	r0, [r0], -r4
     e7c:	d4500001 	ldrble	r0, [r0], #-1
     e80:	e4000001 	str	r0, [r0], #-1
     e84:	03000001 	movweq	r0, #1
     e88:	9f7f7000 	svcls	0x007f7000
     e8c:	000001e4 	andeq	r0, r0, r4, ror #3
     e90:	0000021c 	andeq	r0, r0, ip, lsl r2
     e94:	005d0001 	subseq	r0, sp, r1
	...
     ea0:	01010000 	mrseq	r0, (UNDEF: 1)
	...
     eb0:	00009000 	andeq	r9, r0, r0
     eb4:	0000dc00 	andeq	sp, r0, r0, lsl #24
     eb8:	5c000100 	stfpls	f0, [r0], {-0}
     ebc:	000000dc 	ldrdeq	r0, [r0], -ip
     ec0:	000000f4 	strdeq	r0, [r0], -r4
     ec4:	f4530001 			; <UNDEFINED> instruction: 0xf4530001
     ec8:	4c000000 	stcmi	0, cr0, [r0], {-0}
     ecc:	01000001 	tsteq	r0, r1
     ed0:	014c5c00 	cmpeq	ip, r0, lsl #24
     ed4:	01580000 	cmpeq	r8, r0
     ed8:	00010000 	andeq	r0, r1, r0
     edc:	00015853 	andeq	r5, r1, r3, asr r8
     ee0:	00017400 	andeq	r7, r1, r0, lsl #8
     ee4:	5c000100 	stfpls	f0, [r0], {-0}
     ee8:	000001b0 			; <UNDEFINED> instruction: 0x000001b0
     eec:	000001c0 	andeq	r0, r0, r0, asr #3
     ef0:	c0530001 	subsgt	r0, r3, r1
     ef4:	dc000001 	stcle	0, cr0, [r0], {1}
     ef8:	01000001 	tsteq	r0, r1
     efc:	01e45c00 	mvneq	r5, r0, lsl #24
     f00:	01e70000 	mvneq	r0, r0
     f04:	00010000 	andeq	r0, r1, r0
     f08:	0001e753 	andeq	lr, r1, r3, asr r7
     f0c:	00021c00 	andeq	r1, r2, r0, lsl #24
     f10:	f3000400 	vshl.u8	d0, d0, d0
     f14:	009f5301 	addseq	r5, pc, r1, lsl #6
     f18:	00000000 	andeq	r0, r0, r0
     f1c:	01000000 	mrseq	r0, (UNDEF: 0)
     f20:	00000101 	andeq	r0, r0, r1, lsl #2
     f24:	dc000000 	stcle	0, cr0, [r0], {-0}
     f28:	f0000000 			; <UNDEFINED> instruction: 0xf0000000
     f2c:	02000000 	andeq	r0, r0, #0
     f30:	f09f3000 			; <UNDEFINED> instruction: 0xf09f3000
     f34:	f8000000 			; <UNDEFINED> instruction: 0xf8000000
     f38:	02000000 	andeq	r0, r0, #0
     f3c:	fc9f3100 	ldc2	1, cr3, [pc], {0}
     f40:	4c000000 	stcmi	0, cr0, [r0], {-0}
     f44:	01000001 	tsteq	r0, r1
     f48:	014c5600 	cmpeq	ip, r0, lsl #12
     f4c:	01540000 	cmpeq	r4, r0
     f50:	00020000 	andeq	r0, r2, r0
     f54:	00009f30 	andeq	r9, r0, r0, lsr pc
	...
     f60:	00010100 	andeq	r0, r1, r0, lsl #2
     f64:	00010100 	andeq	r0, r1, r0, lsl #2
     f68:	00000038 	andeq	r0, r0, r8, lsr r0
     f6c:	00000054 	andeq	r0, r0, r4, asr r0
     f70:	54500001 	ldrbpl	r0, [r0], #-1
     f74:	58000000 	stmdapl	r0, {}	; <UNPREDICTABLE>
     f78:	01000000 	mrseq	r0, (UNDEF: 0)
     f7c:	00585200 	subseq	r5, r8, r0, lsl #4
     f80:	00600000 	rsbeq	r0, r0, r0
     f84:	00030000 	andeq	r0, r3, r0
     f88:	609f0172 	addsvs	r0, pc, r2, ror r1	; <UNPREDICTABLE>
     f8c:	64000000 	strvs	r0, [r0], #-0
     f90:	01000000 	mrseq	r0, (UNDEF: 0)
     f94:	00645200 	rsbeq	r5, r4, r0, lsl #4
     f98:	00700000 	rsbseq	r0, r0, r0
     f9c:	00030000 	andeq	r0, r3, r0
     fa0:	009f0172 	addseq	r0, pc, r2, ror r1	; <UNPREDICTABLE>
	...
     fac:	38000000 	stmdacc	r0, {}	; <UNPREDICTABLE>
     fb0:	50000000 	andpl	r0, r0, r0
     fb4:	01000000 	mrseq	r0, (UNDEF: 0)
     fb8:	00505100 	subseq	r5, r0, r0, lsl #2
     fbc:	00700000 	rsbseq	r0, r0, r0
     fc0:	00040000 	andeq	r0, r4, r0
     fc4:	9f5101f3 	svcls	0x005101f3
	...
     fd4:	00010100 	andeq	r0, r1, r0, lsl #2
     fd8:	00000038 	andeq	r0, r0, r8, lsr r0
     fdc:	00000050 	andeq	r0, r0, r0, asr r0
     fe0:	50520001 	subspl	r0, r2, r1
     fe4:	5c000000 	stcpl	0, cr0, [r0], {-0}
     fe8:	01000000 	mrseq	r0, (UNDEF: 0)
     fec:	005c5100 	subseq	r5, ip, r0, lsl #2
     ff0:	00600000 	rsbeq	r0, r0, r0
     ff4:	00030000 	andeq	r0, r3, r0
     ff8:	609f0171 	addsvs	r0, pc, r1, ror r1	; <UNPREDICTABLE>
     ffc:	70000000 	andvc	r0, r0, r0
    1000:	01000000 	mrseq	r0, (UNDEF: 0)
    1004:	00005100 	andeq	r5, r0, r0, lsl #2
	...
    1010:	00380000 	eorseq	r0, r8, r0
    1014:	004c0000 	subeq	r0, ip, r0
    1018:	00010000 	andeq	r0, r1, r0
    101c:	00004c53 	andeq	r4, r0, r3, asr ip
    1020:	00006800 	andeq	r6, r0, r0, lsl #16
    1024:	53000100 	movwpl	r0, #256	; 0x100
	...
    1038:	00000040 	andeq	r0, r0, r0, asr #32
    103c:	00000048 	andeq	r0, r0, r8, asr #32
    1040:	485c0001 	ldmdami	ip, {r0}^
    1044:	4c000000 	stcmi	0, cr0, [r0], {-0}
    1048:	08000000 	stmdaeq	r0, {}	; <UNPREDICTABLE>
    104c:	73007200 	movwvc	r7, #512	; 0x200
    1050:	01231c00 			; <UNDEFINED> instruction: 0x01231c00
    1054:	00004c9f 	muleq	r0, pc, ip	; <UNPREDICTABLE>
    1058:	00005400 	andeq	r5, r0, r0, lsl #8
    105c:	72000900 	andvc	r0, r0, #0, 18
    1060:	5301f300 	movwpl	pc, #4864	; 0x1300	; <UNPREDICTABLE>
    1064:	9f01231c 	svcls	0x0001231c
    1068:	00000054 	andeq	r0, r0, r4, asr r0
    106c:	00000070 	andeq	r0, r0, r0, ror r0
    1070:	01f3000a 	mvnseq	r0, sl
    1074:	5301f352 	movwpl	pc, #4946	; 0x1352	; <UNPREDICTABLE>
    1078:	9f01231c 	svcls	0x0001231c
	...
    1084:	004c0001 	subeq	r0, ip, r1
    1088:	00700000 	rsbseq	r0, r0, r0
    108c:	00010000 	andeq	r0, r1, r0
    1090:	00000050 	andeq	r0, r0, r0, asr r0
    1094:	00000000 	andeq	r0, r0, r0
    1098:	01010000 	mrseq	r0, (UNDEF: 1)
    109c:	14000000 	strne	r0, [r0], #-0
    10a0:	1c000000 	stcne	0, cr0, [r0], {-0}
    10a4:	01000000 	mrseq	r0, (UNDEF: 0)
    10a8:	001c5000 	andseq	r5, ip, r0
    10ac:	00240000 	eoreq	r0, r4, r0
    10b0:	00030000 	andeq	r0, r3, r0
    10b4:	249f0170 	ldrcs	r0, [pc], #368	; 10bc <_start-0x6f44>
    10b8:	38000000 	stmdacc	r0, {}	; <UNPREDICTABLE>
    10bc:	01000000 	mrseq	r0, (UNDEF: 0)
    10c0:	00005000 	andeq	r5, r0, r0
	...
    10cc:	00140000 	andseq	r0, r4, r0
    10d0:	00180000 	andseq	r0, r8, r0
    10d4:	00010000 	andeq	r0, r1, r0
    10d8:	00001851 	andeq	r1, r0, r1, asr r8
    10dc:	00003800 	andeq	r3, r0, r0, lsl #16
    10e0:	f3000400 	vshl.u8	d0, d0, d0
    10e4:	009f5101 	addseq	r5, pc, r1, lsl #2
	...
    10f0:	00001800 	andeq	r1, r0, r0, lsl #16
    10f4:	00003800 	andeq	r3, r0, r0, lsl #16
    10f8:	51000100 	mrspl	r0, (UNDEF: 16)
	...
    110c:	00040000 	andeq	r0, r4, r0
    1110:	00010000 	andeq	r0, r1, r0
    1114:	00000450 	andeq	r0, r0, r0, asr r4
    1118:	00000c00 	andeq	r0, r0, r0, lsl #24
    111c:	70000300 	andvc	r0, r0, r0, lsl #6
    1120:	000c9f30 	andeq	r9, ip, r0, lsr pc
    1124:	00140000 	andseq	r0, r4, r0
    1128:	00040000 	andeq	r0, r4, r0
    112c:	9f5001f3 	svcls	0x005001f3
	...
    113c:	0000021c 	andeq	r0, r0, ip, lsl r2
    1140:	00000243 	andeq	r0, r0, r3, asr #4
    1144:	43500001 	cmpmi	r0, #1
    1148:	70000002 	andvc	r0, r0, r2
    114c:	04000002 	streq	r0, [r0], #-2
    1150:	5001f300 	andpl	pc, r1, r0, lsl #6
    1154:	0000009f 	muleq	r0, pc, r0	; <UNPREDICTABLE>
	...
    1160:	00021c00 	andeq	r1, r2, r0, lsl #24
    1164:	00024300 	andeq	r4, r2, r0, lsl #6
    1168:	51000100 	mrspl	r0, (UNDEF: 16)
    116c:	00000243 	andeq	r0, r0, r3, asr #4
    1170:	00000270 	andeq	r0, r0, r0, ror r2
    1174:	01f30004 	mvnseq	r0, r4
    1178:	00009f51 	andeq	r9, r0, r1, asr pc
    117c:	00000000 	andeq	r0, r0, r0
    1180:	01000000 	mrseq	r0, (UNDEF: 0)
    1184:	00000001 	andeq	r0, r0, r1
    1188:	00000008 	andeq	r0, r0, r8
    118c:	00000010 	andeq	r0, r0, r0, lsl r0
    1190:	10530001 	subsne	r0, r3, r1
    1194:	18000000 	stmdane	r0, {}	; <UNPREDICTABLE>
    1198:	03000000 	movweq	r0, #0
    119c:	9f047300 	svcls	0x00047300
    11a0:	00000018 	andeq	r0, r0, r8, lsl r0
    11a4:	0000001f 	andeq	r0, r0, pc, lsl r0
    11a8:	00530001 	subseq	r0, r3, r1
    11ac:	00000000 	andeq	r0, r0, r0
    11b0:	01000000 	mrseq	r0, (UNDEF: 0)
    11b4:	00907800 	addseq	r7, r0, r0, lsl #16
    11b8:	00909400 	addseq	r9, r0, r0, lsl #8
    11bc:	0c000600 	stceq	6, cr0, [r0], {-0}
    11c0:	2010001c 	andscs	r0, r0, ip, lsl r0
    11c4:	0000009f 	muleq	r0, pc, r0	; <UNPREDICTABLE>
    11c8:	00000000 	andeq	r0, r0, r0
    11cc:	78000200 	stmdavc	r0, {r9}
    11d0:	94000090 	strls	r0, [r0], #-144	; 0xffffff70
    11d4:	06000090 			; <UNDEFINED> instruction: 0x06000090
    11d8:	00240c00 	eoreq	r0, r4, r0, lsl #24
    11dc:	009f2010 	addseq	r2, pc, r0, lsl r0	; <UNPREDICTABLE>
    11e0:	00000000 	andeq	r0, r0, r0
    11e4:	03000000 	movweq	r0, #0
    11e8:	00907800 	addseq	r7, r0, r0, lsl #16
    11ec:	00909400 	addseq	r9, r0, r0, lsl #8
    11f0:	08000500 	stmdaeq	r0, {r8, sl}
    11f4:	9f2447b4 	svcls	0x002447b4
	...
    1200:	90780004 	rsbsls	r0, r8, r4
    1204:	90940000 	addsls	r0, r4, r0
    1208:	00030000 	andeq	r0, r3, r0
    120c:	009f2008 	addseq	r2, pc, r8
    1210:	00000000 	andeq	r0, r0, r0
    1214:	02000000 	andeq	r0, r0, #0
    1218:	00000000 	andeq	r0, r0, r0
    121c:	00904c00 	addseq	r4, r0, r0, lsl #24
    1220:	00905000 	addseq	r5, r0, r0
    1224:	30000200 	andcc	r0, r0, r0, lsl #4
    1228:	0090509f 	umullseq	r5, r0, pc, r0	; <UNPREDICTABLE>
    122c:	00905400 	addseq	r5, r0, r0, lsl #8
    1230:	53000100 	movwpl	r0, #256	; 0x100
    1234:	00009058 	andeq	r9, r0, r8, asr r0
    1238:	00009060 	andeq	r9, r0, r0, rrx
    123c:	00530001 	subseq	r0, r3, r1
    1240:	00000000 	andeq	r0, r0, r0
    1244:	02000000 	andeq	r0, r0, #0
    1248:	34000000 	strcc	r0, [r0], #-0
    124c:	38000090 	stmdacc	r0, {r4, r7}
    1250:	02000090 	andeq	r0, r0, #144	; 0x90
    1254:	389f3000 	ldmcc	pc, {ip, sp}	; <UNPREDICTABLE>
    1258:	3c000090 	stccc	0, cr0, [r0], {144}	; 0x90
    125c:	01000090 	swpeq	r0, r0, [r0]	; <UNPREDICTABLE>
    1260:	00005000 	andeq	r5, r0, r0
	...
    126c:	00740000 	rsbseq	r0, r4, r0
    1270:	00800000 	addeq	r0, r0, r0
    1274:	00010000 	andeq	r0, r1, r0
    1278:	00008050 	andeq	r8, r0, r0, asr r0
    127c:	00008c00 	andeq	r8, r0, r0, lsl #24
    1280:	f3000400 	vshl.u8	d0, d0, d0
    1284:	009f5001 	addseq	r5, pc, r1
	...
    1290:	5c000000 	stcpl	0, cr0, [r0], {-0}
    1294:	68000000 	stmdavs	r0, {}	; <UNPREDICTABLE>
    1298:	01000000 	mrseq	r0, (UNDEF: 0)
    129c:	00685000 	rsbeq	r5, r8, r0
    12a0:	00740000 	rsbseq	r0, r4, r0
    12a4:	00040000 	andeq	r0, r4, r0
    12a8:	9f5001f3 	svcls	0x005001f3
	...
    12b8:	00000038 	andeq	r0, r0, r8, lsr r0
    12bc:	00000043 	andeq	r0, r0, r3, asr #32
    12c0:	43500001 	cmpmi	r0, #1
    12c4:	5c000000 	stcpl	0, cr0, [r0], {-0}
    12c8:	01000000 	mrseq	r0, (UNDEF: 0)
    12cc:	00005500 	andeq	r5, r0, r0, lsl #10
	...
    12d8:	00000048 	andeq	r0, r0, r8, asr #32
    12dc:	0000005c 	andeq	r0, r0, ip, asr r0
    12e0:	00540001 	subseq	r0, r4, r1
	...
    12ec:	00004c00 	andeq	r4, r0, r0, lsl #24
    12f0:	00005000 	andeq	r5, r0, r0
    12f4:	50000100 	andpl	r0, r0, r0, lsl #2
	...
    1300:	00340000 	eorseq	r0, r4, r0
    1304:	00380000 	eorseq	r0, r8, r0
    1308:	00010000 	andeq	r0, r1, r0
    130c:	00000050 	andeq	r0, r0, r0, asr r0
	...
    131c:	00000400 	andeq	r0, r0, r0, lsl #8
    1320:	50000100 	andpl	r0, r0, r0, lsl #2
    1324:	00000004 	andeq	r0, r0, r4
    1328:	00000018 	andeq	r0, r0, r8, lsl r0
    132c:	00530001 	subseq	r0, r3, r1
    1330:	00000000 	andeq	r0, r0, r0
    1334:	38000000 	stmdacc	r0, {}	; <UNPREDICTABLE>
    1338:	43000001 	movwmi	r0, #1
    133c:	01000001 	tsteq	r0, r1
    1340:	01435000 	mrseq	r5, (UNDEF: 67)
    1344:	01680000 	cmneq	r8, r0
    1348:	00010000 	andeq	r0, r1, r0
    134c:	00000054 	andeq	r0, r0, r4, asr r0
	...
    1358:	00000f00 	andeq	r0, r0, r0, lsl #30
    135c:	50000100 	andpl	r0, r0, r0, lsl #2
    1360:	0000000f 	andeq	r0, r0, pc
    1364:	00000020 	andeq	r0, r0, r0, lsr #32
    1368:	00540001 	subseq	r0, r4, r1
	...
    1374:	0f000000 	svceq	0x00000000
    1378:	01000000 	mrseq	r0, (UNDEF: 0)
    137c:	000f5100 	andeq	r5, pc, r0, lsl #2
    1380:	00200000 	eoreq	r0, r0, r0
    1384:	00010000 	andeq	r0, r1, r0
    1388:	00000055 	andeq	r0, r0, r5, asr r0
    138c:	00000000 	andeq	r0, r0, r0
    1390:	0000ec00 	andeq	lr, r0, r0, lsl #24
    1394:	00010400 	andeq	r0, r1, r0, lsl #8
    1398:	50000100 	andpl	r0, r0, r0, lsl #2
    139c:	00000104 	andeq	r0, r0, r4, lsl #2
    13a0:	00000114 	andeq	r0, r0, r4, lsl r1
    13a4:	01f30004 	mvnseq	r0, r4
    13a8:	01149f50 	tsteq	r4, r0, asr pc
    13ac:	01180000 	tsteq	r8, r0
    13b0:	00010000 	andeq	r0, r1, r0
    13b4:	00011850 	andeq	r1, r1, r0, asr r8
    13b8:	00012000 	andeq	r2, r1, r0
    13bc:	f3000400 	vshl.u8	d0, d0, d0
    13c0:	009f5001 	addseq	r5, pc, r1
    13c4:	00000000 	andeq	r0, r0, r0
    13c8:	f8000000 			; <UNDEFINED> instruction: 0xf8000000
    13cc:	04000000 	streq	r0, [r0], #-0
    13d0:	0b000001 	bleq	13dc <_start-0x6c24>
    13d4:	35007000 	strcc	r7, [r0, #-0]
    13d8:	80b42325 	adcshi	r2, r4, r5, lsr #6
    13dc:	9f028180 	svcls	0x00028180
    13e0:	00000104 	andeq	r0, r0, r4, lsl #2
    13e4:	00000107 	andeq	r0, r0, r7, lsl #2
    13e8:	07500001 	ldrbeq	r0, [r0, -r1]
    13ec:	14000001 	strne	r0, [r0], #-1
    13f0:	0c000001 	stceq	0, cr0, [r0], {1}
    13f4:	5001f300 	andpl	pc, r1, r0, lsl #6
    13f8:	b4232535 	strtlt	r2, [r3], #-1333	; 0xfffffacb
    13fc:	02818080 	addeq	r8, r1, #128	; 0x80
    1400:	0000009f 	muleq	r0, pc, r0	; <UNPREDICTABLE>
    1404:	00000000 	andeq	r0, r0, r0
    1408:	0000fc00 	andeq	pc, r0, r0, lsl #24
    140c:	00011400 	andeq	r1, r1, r0, lsl #8
    1410:	54000100 	strpl	r0, [r0], #-256	; 0xffffff00
	...
    141c:	000000d0 	ldrdeq	r0, [r0], -r0	; <UNPREDICTABLE>
    1420:	000000df 	ldrdeq	r0, [r0], -pc	; <UNPREDICTABLE>
    1424:	df500001 	svcle	0x00500001
    1428:	e4000000 	str	r0, [r0], #-0
    142c:	04000000 	streq	r0, [r0], #-0
    1430:	5001f300 	andpl	pc, r1, r0, lsl #6
    1434:	0000e49f 	muleq	r0, pc, r4	; <UNPREDICTABLE>
    1438:	0000e700 	andeq	lr, r0, r0, lsl #14
    143c:	50000100 	andpl	r0, r0, r0, lsl #2
    1440:	000000e7 	andeq	r0, r0, r7, ror #1
    1444:	000000ec 	andeq	r0, r0, ip, ror #1
    1448:	01f30004 	mvnseq	r0, r4
    144c:	00009f50 	andeq	r9, r0, r0, asr pc
    1450:	00000000 	andeq	r0, r0, r0
    1454:	00d00000 	sbcseq	r0, r0, r0
    1458:	00df0000 	sbcseq	r0, pc, r0
    145c:	00010000 	andeq	r0, r1, r0
    1460:	0000df51 	andeq	sp, r0, r1, asr pc
    1464:	0000e400 	andeq	lr, r0, r0, lsl #8
    1468:	f3000400 	vshl.u8	d0, d0, d0
    146c:	e49f5101 	ldr	r5, [pc], #257	; 1474 <_start-0x6b8c>
    1470:	e7000000 	str	r0, [r0, -r0]
    1474:	01000000 	mrseq	r0, (UNDEF: 0)
    1478:	00e75100 	rsceq	r5, r7, r0, lsl #2
    147c:	00ec0000 	rsceq	r0, ip, r0
    1480:	00040000 	andeq	r0, r4, r0
    1484:	9f5101f3 	svcls	0x005101f3
	...
    1490:	000000c0 	andeq	r0, r0, r0, asr #1
    1494:	000000cb 	andeq	r0, r0, fp, asr #1
    1498:	cb500001 	blgt	14014a4 <__bss_end__+0x13f7544>
    149c:	d0000000 	andle	r0, r0, r0
    14a0:	04000000 	streq	r0, [r0], #-0
    14a4:	5001f300 	andpl	pc, r1, r0, lsl #6
    14a8:	0000009f 	muleq	r0, pc, r0	; <UNPREDICTABLE>
    14ac:	00000000 	andeq	r0, r0, r0
    14b0:	00009c00 	andeq	r9, r0, r0, lsl #24
    14b4:	0000b400 	andeq	fp, r0, r0, lsl #8
    14b8:	50000100 	andpl	r0, r0, r0, lsl #2
    14bc:	000000b4 	strheq	r0, [r0], -r4
    14c0:	000000c0 	andeq	r0, r0, r0, asr #1
    14c4:	01f30004 	mvnseq	r0, r4
    14c8:	00009f50 	andeq	r9, r0, r0, asr pc
    14cc:	00000000 	andeq	r0, r0, r0
    14d0:	00780000 	rsbseq	r0, r8, r0
    14d4:	00900000 	addseq	r0, r0, r0
    14d8:	00010000 	andeq	r0, r1, r0
    14dc:	00009050 	andeq	r9, r0, r0, asr r0
    14e0:	00009c00 	andeq	r9, r0, r0, lsl #24
    14e4:	f3000400 	vshl.u8	d0, d0, d0
    14e8:	009f5001 	addseq	r5, pc, r1
    14ec:	00000000 	andeq	r0, r0, r0
    14f0:	68000000 	stmdavs	r0, {}	; <UNPREDICTABLE>
    14f4:	73000000 	movwvc	r0, #0
    14f8:	01000000 	mrseq	r0, (UNDEF: 0)
    14fc:	00735000 	rsbseq	r5, r3, r0
    1500:	00780000 	rsbseq	r0, r8, r0
    1504:	00040000 	andeq	r0, r4, r0
    1508:	9f5001f3 	svcls	0x005001f3
	...
    1518:	00000048 	andeq	r0, r0, r8, asr #32
    151c:	48500001 	ldmdami	r0, {r0}^
    1520:	68000000 	stmdavs	r0, {}	; <UNPREDICTABLE>
    1524:	04000000 	streq	r0, [r0], #-0
    1528:	5001f300 	andpl	pc, r1, r0, lsl #6
    152c:	0000009f 	muleq	r0, pc, r0	; <UNPREDICTABLE>
	...
    1538:	00004b00 	andeq	r4, r0, r0, lsl #22
    153c:	51000100 	mrspl	r0, (UNDEF: 16)
    1540:	0000004b 	andeq	r0, r0, fp, asr #32
    1544:	00000068 	andeq	r0, r0, r8, rrx
    1548:	01f30004 	mvnseq	r0, r4
    154c:	00009f51 	andeq	r9, r0, r1, asr pc
    1550:	00000000 	andeq	r0, r0, r0
    1554:	004c0000 	subeq	r0, ip, r0
    1558:	00540000 	subseq	r0, r4, r0
    155c:	00010000 	andeq	r0, r1, r0
    1560:	00005450 	andeq	r5, r0, r0, asr r4
    1564:	00005800 	andeq	r5, r0, r0, lsl #16
    1568:	75000900 	strvc	r0, [r0, #-2304]	; 0xfffff700
    156c:	24007400 	strcs	r7, [r0], #-1024	; 0xfffffc00
    1570:	9f210071 	svcls	0x00210071
    1574:	00000058 	andeq	r0, r0, r8, asr r0
    1578:	0000005f 	andeq	r0, r0, pc, asr r0
    157c:	00510001 	subseq	r0, r1, r1
    1580:	00000000 	andeq	r0, r0, r0
    1584:	e0000000 	and	r0, r0, r0
    1588:	1b000000 	blne	1590 <_start-0x6a70>
    158c:	01000001 	tsteq	r0, r1
    1590:	011b5000 	tsteq	fp, r0
    1594:	01200000 			; <UNDEFINED> instruction: 0x01200000
    1598:	00040000 	andeq	r0, r4, r0
    159c:	9f5001f3 	svcls	0x005001f3
    15a0:	00000120 	andeq	r0, r0, r0, lsr #2
    15a4:	00000123 	andeq	r0, r0, r3, lsr #2
    15a8:	23500001 	cmpcs	r0, #1
    15ac:	3c000001 	stccc	0, cr0, [r0], {1}
    15b0:	04000001 	streq	r0, [r0], #-1
    15b4:	5001f300 	andpl	pc, r1, r0, lsl #6
    15b8:	00013c9f 	muleq	r1, pc, ip	; <UNPREDICTABLE>
    15bc:	00013f00 	andeq	r3, r1, r0, lsl #30
    15c0:	50000100 	andpl	r0, r0, r0, lsl #2
    15c4:	0000013f 	andeq	r0, r0, pc, lsr r1
    15c8:	0000016c 	andeq	r0, r0, ip, ror #2
    15cc:	01f30004 	mvnseq	r0, r4
    15d0:	00009f50 	andeq	r9, r0, r0, asr pc
    15d4:	00000000 	andeq	r0, r0, r0
    15d8:	00e00000 	rsceq	r0, r0, r0
    15dc:	01080000 	mrseq	r0, (UNDEF: 8)
    15e0:	00010000 	andeq	r0, r1, r0
    15e4:	00010851 	andeq	r0, r1, r1, asr r8
    15e8:	00011b00 	andeq	r1, r1, r0, lsl #22
    15ec:	71000300 	mrsvc	r0, LR_irq
    15f0:	011b9f01 	tsteq	fp, r1, lsl #30
    15f4:	01200000 			; <UNDEFINED> instruction: 0x01200000
    15f8:	00040000 	andeq	r0, r4, r0
    15fc:	9f5101f3 	svcls	0x005101f3
    1600:	00000120 	andeq	r0, r0, r0, lsr #2
    1604:	00000123 	andeq	r0, r0, r3, lsr #2
    1608:	23510001 	cmpcs	r1, #1
    160c:	6c000001 	stcvs	0, cr0, [r0], {1}
    1610:	04000001 	streq	r0, [r0], #-1
    1614:	5101f300 	mrspl	pc, SP_irq	; <UNPREDICTABLE>
    1618:	0000009f 	muleq	r0, pc, r0	; <UNPREDICTABLE>
    161c:	00000000 	andeq	r0, r0, r0
    1620:	0000f800 	andeq	pc, r0, r0, lsl #16
    1624:	0000fc00 	andeq	pc, r0, r0, lsl #24
    1628:	52000100 	andpl	r0, r0, #0, 2
    162c:	000000fc 	strdeq	r0, [r0], -ip
    1630:	00000104 	andeq	r0, r0, r4, lsl #2
    1634:	d0030005 	andle	r0, r3, r5
    1638:	04000095 	streq	r0, [r0], #-149	; 0xffffff6b
    163c:	1b000001 	blne	1648 <_start-0x69b8>
    1640:	01000001 	tsteq	r0, r1
    1644:	013c5300 	teqeq	ip, r0, lsl #6
    1648:	013f0000 	teqeq	pc, r0
    164c:	00010000 	andeq	r0, r1, r0
    1650:	00000053 	andeq	r0, r0, r3, asr r0
    1654:	00000000 	andeq	r0, r0, r0
    1658:	00006c00 	andeq	r6, r0, r0, lsl #24
    165c:	00008000 	andeq	r8, r0, r0
    1660:	50000100 	andpl	r0, r0, r0, lsl #2
    1664:	00000080 	andeq	r0, r0, r0, lsl #1
    1668:	0000009b 	muleq	r0, fp, r0
    166c:	9b520001 	blls	1481678 <__bss_end__+0x1477718>
    1670:	a4000000 	strge	r0, [r0], #-0
    1674:	09000000 	stmdbeq	r0, {}	; <UNPREDICTABLE>
    1678:	5001f300 	andpl	pc, r1, r0, lsl #6
    167c:	f8090723 			; <UNDEFINED> instruction: 0xf8090723
    1680:	00a49f1a 	adceq	r9, r4, sl, lsl pc
    1684:	00a70000 	adceq	r0, r7, r0
    1688:	00010000 	andeq	r0, r1, r0
    168c:	0000a750 	andeq	sl, r0, r0, asr r7
    1690:	0000d000 	andeq	sp, r0, r0
    1694:	f3000400 	vshl.u8	d0, d0, d0
    1698:	009f5001 	addseq	r5, pc, r1
    169c:	00000000 	andeq	r0, r0, r0
    16a0:	88000000 	stmdahi	r0, {}	; <UNPREDICTABLE>
    16a4:	a4000000 	strge	r0, [r0], #-0
    16a8:	01000000 	mrseq	r0, (UNDEF: 0)
    16ac:	00005400 	andeq	r5, r0, r0, lsl #8
    16b0:	00000000 	andeq	r0, r0, r0
    16b4:	001c0000 	andseq	r0, ip, r0
    16b8:	00430000 	subeq	r0, r3, r0
    16bc:	00010000 	andeq	r0, r1, r0
    16c0:	00004350 	andeq	r4, r0, r0, asr r3
    16c4:	00006c00 	andeq	r6, r0, r0, lsl #24
    16c8:	f3000400 	vshl.u8	d0, d0, d0
    16cc:	009f5001 	addseq	r5, pc, r1
    16d0:	00000000 	andeq	r0, r0, r0
    16d4:	1c000000 	stcne	0, cr0, [r0], {-0}
    16d8:	43000000 	movwmi	r0, #0
    16dc:	01000000 	mrseq	r0, (UNDEF: 0)
    16e0:	00435000 	subeq	r5, r3, r0
    16e4:	006c0000 	rsbeq	r0, ip, r0
    16e8:	00040000 	andeq	r0, r4, r0
    16ec:	9f5001f3 	svcls	0x005001f3
	...

Disassembly of section .debug_aranges:

00000000 <.debug_aranges>:
   0:	0000001c 	andeq	r0, r0, ip, lsl r0
   4:	00000002 	andeq	r0, r0, r2
   8:	00040000 	andeq	r0, r4, r0
   c:	00000000 	andeq	r0, r0, r0
  10:	00008010 	andeq	r8, r0, r0, lsl r0
  14:	0000007c 	andeq	r0, r0, ip, ror r0
	...
  20:	0000001c 	andeq	r0, r0, ip, lsl r0
  24:	0ab80002 	beq	fee00034 <__bss_end__+0xfedf60d4>
  28:	00040000 	andeq	r0, r4, r0
  2c:	00000000 	andeq	r0, r0, r0
  30:	0000808c 	andeq	r8, r0, ip, lsl #1
  34:	00000868 	andeq	r0, r0, r8, ror #16
	...
  40:	0000001c 	andeq	r0, r0, ip, lsl r0
  44:	24410002 	strbcs	r0, [r1], #-2
  48:	00040000 	andeq	r0, r4, r0
  4c:	00000000 	andeq	r0, r0, r0
  50:	000088f4 	strdeq	r8, [r0], -r4
  54:	000000ec 	andeq	r0, r0, ip, ror #1
	...
  60:	0000001c 	andeq	r0, r0, ip, lsl r0
  64:	2e430002 	cdpcs	0, 4, cr0, cr3, cr2, {0}
  68:	00040000 	andeq	r0, r4, r0
  6c:	00000000 	andeq	r0, r0, r0
  70:	000089e0 	andeq	r8, r0, r0, ror #19
  74:	00000018 	andeq	r0, r0, r8, lsl r0
	...
  80:	0000001c 	andeq	r0, r0, ip, lsl r0
  84:	37c30002 	strbcc	r0, [r3, r2]
  88:	00040000 	andeq	r0, r4, r0
  8c:	00000000 	andeq	r0, r0, r0
  90:	000089f8 	strdeq	r8, [r0], -r8	; <UNPREDICTABLE>
  94:	00000058 	andeq	r0, r0, r8, asr r0
	...
  a0:	0000001c 	andeq	r0, r0, ip, lsl r0
  a4:	41f20002 	mvnsmi	r0, r2
  a8:	00040000 	andeq	r0, r4, r0
  ac:	00000000 	andeq	r0, r0, r0
  b0:	00008a50 	andeq	r8, r0, r0, asr sl
  b4:	0000003c 	andeq	r0, r0, ip, lsr r0
	...
  c0:	0000001c 	andeq	r0, r0, ip, lsl r0
  c4:	4bcf0002 	blmi	ff3c00d4 <__bss_end__+0xff3b6174>
  c8:	00040000 	andeq	r0, r4, r0
  cc:	00000000 	andeq	r0, r0, r0
  d0:	00008a8c 	andeq	r8, r0, ip, lsl #21
  d4:	00000034 	andeq	r0, r0, r4, lsr r0
	...
  e0:	0000001c 	andeq	r0, r0, ip, lsl r0
  e4:	55560002 	ldrbpl	r0, [r6, #-2]
  e8:	00040000 	andeq	r0, r4, r0
  ec:	00000000 	andeq	r0, r0, r0
  f0:	00008ac0 	andeq	r8, r0, r0, asr #21
  f4:	00000520 	andeq	r0, r0, r0, lsr #10
	...
 100:	0000001c 	andeq	r0, r0, ip, lsl r0
 104:	64fa0002 	ldrbtvs	r0, [sl], #2
 108:	00040000 	andeq	r0, r4, r0
 10c:	00000000 	andeq	r0, r0, r0
 110:	00008fe0 	andeq	r8, r0, r0, ror #31
 114:	00000028 	andeq	r0, r0, r8, lsr #32
	...
 120:	0000001c 	andeq	r0, r0, ip, lsl r0
 124:	6ea90002 	cdpvs	0, 10, cr0, cr9, cr2, {0}
 128:	00040000 	andeq	r0, r4, r0
 12c:	00000000 	andeq	r0, r0, r0
 130:	00009008 	andeq	r9, r0, r8
 134:	0000002c 	andeq	r0, r0, ip, lsr #32
	...
 140:	0000001c 	andeq	r0, r0, ip, lsl r0
 144:	78800002 	stmvc	r0, {r1}
 148:	00040000 	andeq	r0, r4, r0
 14c:	00000000 	andeq	r0, r0, r0
 150:	00009034 	andeq	r9, r0, r4, lsr r0
 154:	00000078 	andeq	r0, r0, r8, ror r0
	...
 160:	0000001c 	andeq	r0, r0, ip, lsl r0
 164:	831f0002 	tsthi	pc, #2
 168:	00040000 	andeq	r0, r4, r0
 16c:	00000000 	andeq	r0, r0, r0
 170:	000090ac 	andeq	r9, r0, ip, lsr #1
 174:	0000008c 	andeq	r0, r0, ip, lsl #1
	...
 180:	0000001c 	andeq	r0, r0, ip, lsl r0
 184:	8e0d0002 	cdphi	0, 0, cr0, cr13, cr2, {0}
 188:	00040000 	andeq	r0, r4, r0
 18c:	00000000 	andeq	r0, r0, r0
 190:	00009184 	andeq	r9, r0, r4, lsl #3
 194:	00000178 	andeq	r0, r0, r8, ror r1
	...
 1a0:	0000001c 	andeq	r0, r0, ip, lsl r0
 1a4:	9ad60002 	bls	ff5801b4 <__bss_end__+0xff576254>
 1a8:	00040000 	andeq	r0, r4, r0
 1ac:	00000000 	andeq	r0, r0, r0
 1b0:	000092fc 	strdeq	r9, [r0], -ip
 1b4:	00000120 	andeq	r0, r0, r0, lsr #2
	...
 1c0:	0000001c 	andeq	r0, r0, ip, lsl r0
 1c4:	a64a0002 	strbge	r0, [sl], -r2
 1c8:	00040000 	andeq	r0, r4, r0
 1cc:	00000000 	andeq	r0, r0, r0
 1d0:	0000941c 	andeq	r9, r0, ip, lsl r4
 1d4:	00000194 	muleq	r0, r4, r1
	...

Disassembly of section .debug_line:

00000000 <.debug_line>:
       0:	0000012b 	andeq	r0, r0, fp, lsr #2
       4:	00fa0003 	rscseq	r0, sl, r3
       8:	01020000 	mrseq	r0, (UNDEF: 2)
       c:	000d0efb 	strdeq	r0, [sp], -fp
      10:	01010101 	tsteq	r1, r1, lsl #2
      14:	01000000 	mrseq	r0, (UNDEF: 0)
      18:	2f010000 	svccs	0x00010000
      1c:	2f727375 	svccs	0x00727375
      20:	2d6d7261 	sfmcs	f7, 2, [sp, #-388]!	; 0xfffffe7c
      24:	656e6f6e 	strbvs	r6, [lr, #-3950]!	; 0xfffff092
      28:	6261652d 	rsbvs	r6, r1, #188743680	; 0xb400000
      2c:	6e692f69 	cdpvs	15, 6, cr2, cr9, cr9, {3}
      30:	64756c63 	ldrbtvs	r6, [r5], #-3171	; 0xfffff39d
      34:	79732f65 	ldmdbvc	r3!, {r0, r2, r5, r6, r8, r9, sl, fp, sp}^
      38:	752f0073 	strvc	r0, [pc, #-115]!	; ffffffcd <__bss_end__+0xffff606d>
      3c:	6c2f7273 	sfmvs	f7, 4, [pc], #-460	; fffffe78 <__bss_end__+0xffff5f18>
      40:	672f6269 	strvs	r6, [pc, -r9, ror #4]!
      44:	612f6363 			; <UNDEFINED> instruction: 0x612f6363
      48:	6e2d6d72 	mcrvs	13, 1, r6, cr13, cr2, {3}
      4c:	2d656e6f 	stclcs	14, cr6, [r5, #-444]!	; 0xfffffe44
      50:	69626165 	stmdbvs	r2!, {r0, r2, r5, r6, r8, sp, lr}^
      54:	322e392f 	eorcc	r3, lr, #770048	; 0xbc000
      58:	692f302e 	stmdbvs	pc!, {r1, r2, r3, r5, ip, sp}	; <UNPREDICTABLE>
      5c:	756c636e 	strbvc	r6, [ip, #-878]!	; 0xfffffc92
      60:	2f006564 	svccs	0x00006564
      64:	656d6f68 	strbvs	r6, [sp, #-3944]!	; 0xfffff098
      68:	6573752f 	ldrbvs	r7, [r3, #-1327]!	; 0xfffffad1
      6c:	65442f72 	strbvs	r2, [r4, #-3954]	; 0xfffff08e
      70:	53432f76 	movtpl	r2, #16246	; 0x3f76
      74:	58303432 	ldmdapl	r0!, {r1, r4, r5, sl, ip, sp}
      78:	62696c2f 	rsbvs	r6, r9, #12032	; 0x2f00
      7c:	692f6970 	stmdbvs	pc!, {r4, r5, r6, r8, fp, sp, lr}	; <UNPREDICTABLE>
      80:	756c636e 	strbvc	r6, [ip, #-878]!	; 0xfffffc92
      84:	2f006564 	svccs	0x00006564
      88:	2f727375 	svccs	0x00727375
      8c:	2d6d7261 	sfmcs	f7, 2, [sp, #-388]!	; 0xfffffe7c
      90:	656e6f6e 	strbvs	r6, [lr, #-3950]!	; 0xfffff092
      94:	6261652d 	rsbvs	r6, r1, #188743680	; 0xb400000
      98:	6e692f69 	cdpvs	15, 6, cr2, cr9, cr9, {3}
      9c:	64756c63 	ldrbtvs	r6, [r5], #-3171	; 0xfffff39d
      a0:	70000065 	andvc	r0, r0, r5, rrx
      a4:	31747261 	cmncc	r4, r1, ror #4
      a8:	7365742d 	cmnvc	r5, #754974720	; 0x2d000000
      ac:	632e3274 			; <UNDEFINED> instruction: 0x632e3274
      b0:	00000000 	andeq	r0, r0, r0
      b4:	6b636f6c 	blvs	18dbe6c <__bss_end__+0x18d1f0c>
      b8:	0100682e 	tsteq	r0, lr, lsr #16
      bc:	745f0000 	ldrbvc	r0, [pc], #-0	; c4 <_start-0x7f3c>
      c0:	73657079 	cmnvc	r5, #121	; 0x79
      c4:	0100682e 	tsteq	r0, lr, lsr #16
      c8:	74730000 	ldrbtvc	r0, [r3], #-0
      cc:	66656464 	strbtvs	r6, [r5], -r4, ror #8
      d0:	0200682e 	andeq	r6, r0, #3014656	; 0x2e0000
      d4:	65720000 	ldrbvs	r0, [r2, #-0]!
      d8:	2e746e65 	cdpcs	14, 7, cr6, cr4, cr5, {3}
      dc:	00010068 	andeq	r0, r1, r8, rrx
      e0:	69707200 	ldmdbvs	r0!, {r9, ip, sp, lr}^
      e4:	0300682e 	movweq	r6, #2094	; 0x82e
      e8:	6b630000 	blvs	18c00f0 <__bss_end__+0x18b6190>
      ec:	6f6c6c61 	svcvs	0x006c6c61
      f0:	00682e63 	rsbeq	r2, r8, r3, ror #28
      f4:	73000000 	movwvc	r0, #0
      f8:	6e697274 	mcrvs	2, 3, r7, cr9, cr4, {3}
      fc:	00682e67 	rsbeq	r2, r8, r7, ror #28
     100:	00000004 	andeq	r0, r0, r4
     104:	05001405 	streq	r1, [r0, #-1029]	; 0xfffffbfb
     108:	00801002 	addeq	r1, r0, r2
     10c:	05051600 	streq	r1, [r5, #-1536]	; 0xfffffa00
     110:	134b4d2f 	movtne	r4, #48431	; 0xbd2f
     114:	060f0584 	streq	r0, [pc], -r4, lsl #11
     118:	06050501 	streq	r0, [r5], -r1, lsl #10
     11c:	0a0567f3 	beq	15a0f0 <__bss_end__+0x150190>
     120:	05050106 	streq	r0, [r5, #-262]	; 0xfffffefa
     124:	01054b06 	tsteq	r5, r6, lsl #22
     128:	08029f06 	stmdaeq	r2, {r1, r2, r8, r9, sl, fp, ip, pc}
     12c:	2f010100 	svccs	0x00010100
     130:	03000007 	movweq	r0, #7
     134:	00013700 	andeq	r3, r1, r0, lsl #14
     138:	fb010200 	blx	40942 <__bss_end__+0x369e2>
     13c:	01000d0e 	tsteq	r0, lr, lsl #26
     140:	00010101 	andeq	r0, r1, r1, lsl #2
     144:	00010000 	andeq	r0, r1, r0
     148:	752f0100 	strvc	r0, [pc, #-256]!	; 50 <_start-0x7fb0>
     14c:	6c2f7273 	sfmvs	f7, 4, [pc], #-460	; ffffff88 <__bss_end__+0xffff6028>
     150:	672f6269 	strvs	r6, [pc, -r9, ror #4]!
     154:	612f6363 			; <UNDEFINED> instruction: 0x612f6363
     158:	6e2d6d72 	mcrvs	13, 1, r6, cr13, cr2, {3}
     15c:	2d656e6f 	stclcs	14, cr6, [r5, #-444]!	; 0xfffffe44
     160:	69626165 	stmdbvs	r2!, {r0, r2, r5, r6, r8, sp, lr}^
     164:	322e392f 	eorcc	r3, lr, #770048	; 0xbc000
     168:	692f302e 	stmdbvs	pc!, {r1, r2, r3, r5, ip, sp}	; <UNPREDICTABLE>
     16c:	756c636e 	strbvc	r6, [ip, #-878]!	; 0xfffffc92
     170:	2f006564 	svccs	0x00006564
     174:	2f727375 	svccs	0x00727375
     178:	2d6d7261 	sfmcs	f7, 2, [sp, #-388]!	; 0xfffffe7c
     17c:	656e6f6e 	strbvs	r6, [lr, #-3950]!	; 0xfffff092
     180:	6261652d 	rsbvs	r6, r1, #188743680	; 0xb400000
     184:	6e692f69 	cdpvs	15, 6, cr2, cr9, cr9, {3}
     188:	64756c63 	ldrbtvs	r6, [r5], #-3171	; 0xfffff39d
     18c:	79732f65 	ldmdbvc	r3!, {r0, r2, r5, r6, r8, r9, sl, fp, sp}^
     190:	682f0073 	stmdavs	pc!, {r0, r1, r4, r5, r6}	; <UNPREDICTABLE>
     194:	2f656d6f 	svccs	0x00656d6f
     198:	72657375 	rsbvc	r7, r5, #-738197503	; 0xd4000001
     19c:	7665442f 	strbtvc	r4, [r5], -pc, lsr #8
     1a0:	3253432f 	subscc	r4, r3, #-1140850688	; 0xbc000000
     1a4:	2f583034 	svccs	0x00583034
     1a8:	7062696c 	rsbvc	r6, r2, ip, ror #18
     1ac:	6e692f69 	cdpvs	15, 6, cr2, cr9, cr9, {3}
     1b0:	64756c63 	ldrbtvs	r6, [r5], #-3171	; 0xfffff39d
     1b4:	752f0065 	strvc	r0, [pc, #-101]!	; 157 <_start-0x7ea9>
     1b8:	612f7273 			; <UNDEFINED> instruction: 0x612f7273
     1bc:	6e2d6d72 	mcrvs	13, 1, r6, cr13, cr2, {3}
     1c0:	2d656e6f 	stclcs	14, cr6, [r5, #-444]!	; 0xfffffe44
     1c4:	69626165 	stmdbvs	r2!, {r0, r2, r5, r6, r8, sp, lr}^
     1c8:	636e692f 	cmnvs	lr, #770048	; 0xbc000
     1cc:	6564756c 	strbvs	r7, [r4, #-1388]!	; 0xfffffa94
     1d0:	6f682f00 	svcvs	0x00682f00
     1d4:	752f656d 	strvc	r6, [pc, #-1389]!	; fffffc6f <__bss_end__+0xffff5d0f>
     1d8:	2f726573 	svccs	0x00726573
     1dc:	2f766544 	svccs	0x00766544
     1e0:	34325343 	ldrtcc	r5, [r2], #-835	; 0xfffffcbd
     1e4:	6c2f5830 	stcvs	8, cr5, [pc], #-192	; 12c <_start-0x7ed4>
     1e8:	69706269 	ldmdbvs	r0!, {r0, r3, r5, r6, r9, sp, lr}^
     1ec:	62696c2f 	rsbvs	r6, r9, #12032	; 0x2f00
     1f0:	63000063 	movwvs	r0, #99	; 0x63
     1f4:	6c6c616b 	stfvse	f6, [ip], #-428	; 0xfffffe54
     1f8:	632e636f 			; <UNDEFINED> instruction: 0x632e636f
     1fc:	00000000 	andeq	r0, r0, r0
     200:	6c616b63 			; <UNDEFINED> instruction: 0x6c616b63
     204:	2e636f6c 	cdpcs	15, 6, cr6, cr3, cr12, {3}
     208:	00000068 	andeq	r0, r0, r8, rrx
     20c:	64747300 	ldrbtvs	r7, [r4], #-768	; 0xfffffd00
     210:	2d746e69 	ldclcs	14, cr6, [r4, #-420]!	; 0xfffffe5c
     214:	2e636367 	cdpcs	3, 6, cr6, cr3, cr7, {3}
     218:	00010068 	andeq	r0, r1, r8, rrx
     21c:	636f6c00 	cmnvs	pc, #0, 24
     220:	00682e6b 	rsbeq	r2, r8, fp, ror #28
     224:	5f000002 	svcpl	0x00000002
     228:	65707974 	ldrbvs	r7, [r0, #-2420]!	; 0xfffff68c
     22c:	00682e73 	rsbeq	r2, r8, r3, ror lr
     230:	73000002 	movwvc	r0, #2
     234:	65646474 	strbvs	r6, [r4, #-1140]!	; 0xfffffb8c
     238:	00682e66 	rsbeq	r2, r8, r6, ror #28
     23c:	72000001 	andvc	r0, r0, #1
     240:	746e6565 	strbtvc	r6, [lr], #-1381	; 0xfffffa9b
     244:	0200682e 	andeq	r6, r0, #3014656	; 0x2e0000
     248:	70720000 	rsbsvc	r0, r2, r0
     24c:	00682e69 	rsbeq	r2, r8, r9, ror #28
     250:	73000003 	movwvc	r0, #3
     254:	6e697274 	mcrvs	2, 3, r7, cr9, cr4, {3}
     258:	00682e67 	rsbeq	r2, r8, r7, ror #28
     25c:	6c000004 	stcvs	0, cr0, [r0], {4}
     260:	2d636269 	sfmcs	f6, 2, [r3, #-420]!	; 0xfffffe5c
     264:	72747865 	rsbsvc	r7, r4, #6619136	; 0x650000
     268:	00682e61 	rsbeq	r2, r8, r1, ror #28
     26c:	00000005 	andeq	r0, r0, r5
     270:	05002205 	streq	r2, [r0, #-517]	; 0xfffffdfb
     274:	00808c02 	addeq	r8, r0, r2, lsl #24
     278:	01120300 	tsteq	r2, r0, lsl #6
     27c:	05012405 	streq	r2, [r1, #-1029]	; 0xfffffbfb
     280:	2e010601 	cfmadd32cs	mvax0, mvfx0, mvfx1, mvfx1
     284:	30062405 	andcc	r2, r6, r5, lsl #8
     288:	26050106 	strcs	r0, [r5], -r6, lsl #2
     28c:	2d052e06 	stccs	14, cr2, [r5, #-24]	; 0xffffffe8
     290:	01050106 	tsteq	r5, r6, lsl #2
     294:	0622052e 	strteq	r0, [r2], -lr, lsr #10
     298:	0501064c 	streq	r0, [r1, #-1612]	; 0xfffff9b4
     29c:	054a0624 	strbeq	r0, [sl, #-1572]	; 0xfffff9dc
     2a0:	0501062b 	streq	r0, [r1, #-1579]	; 0xfffff9d5
     2a4:	01052e3d 	tsteq	r5, sp, lsr lr
     2a8:	0628052e 	strteq	r0, [r8], -lr, lsr #10
     2ac:	012a054c 			; <UNDEFINED> instruction: 0x012a054c
     2b0:	01063c05 	tsteq	r6, r5, lsl #24
     2b4:	052e0105 	streq	r0, [lr, #-261]!	; 0xfffffefb
     2b8:	054d0629 	strbeq	r0, [sp, #-1577]	; 0xfffff9d7
     2bc:	01051305 	tsteq	r5, r5, lsl #6
     2c0:	052e1306 	streq	r1, [lr, #-774]!	; 0xfffffcfa
     2c4:	23030642 	movwcs	r0, #13890	; 0x3642
     2c8:	0501062e 	streq	r0, [r1, #-1582]	; 0xfffff9d2
     2cc:	13670605 	cmnne	r7, #5242880	; 0x500000
     2d0:	01060b05 	tsteq	r6, r5, lsl #22
     2d4:	02001005 	andeq	r1, r0, #5
     2d8:	2e060104 	adfcss	f0, f6, f4
     2dc:	02000505 	andeq	r0, r0, #20971520	; 0x1400000
     2e0:	01060104 	tsteq	r6, r4, lsl #2
     2e4:	4b060905 	blmi	182700 <__bss_end__+0x1787a0>
     2e8:	01060d05 	tsteq	r6, r5, lsl #26
     2ec:	052e0b05 	streq	r0, [lr, #-2821]!	; 0xfffff4fb
     2f0:	0402001c 	streq	r0, [r2], #-28	; 0xffffffe4
     2f4:	052d0602 	streq	r0, [sp, #-1538]!	; 0xfffff9fe
     2f8:	0402001d 	streq	r0, [r2], #-29	; 0xffffffe3
     2fc:	00010602 	andeq	r0, r1, r2, lsl #12
     300:	2e020402 	cdpcs	4, 0, cr0, cr2, cr2, {0}
     304:	30060d05 	andcc	r0, r6, r5, lsl #26
     308:	01062405 	tsteq	r6, r5, lsl #8
     30c:	2e1a052e 	cfmul64cs	mvdx0, mvdx10, mvdx14
     310:	052e1105 	streq	r1, [lr, #-261]!	; 0xfffffefb
     314:	012f060d 			; <UNDEFINED> instruction: 0x012f060d
     318:	014a6601 	cmpeq	sl, r1, lsl #12
     31c:	05020482 	streq	r0, [r2, #-1154]	; 0xfffffb7e
     320:	010f0314 	tsteq	pc, r4, lsl r3	; <UNPREDICTABLE>
     324:	01130505 	tsteq	r3, r5, lsl #10
     328:	1313664a 	tstne	r3, #77594624	; 0x4a00000
     32c:	01060905 	tsteq	r6, r5, lsl #18
     330:	052e0705 	streq	r0, [lr, #-1797]!	; 0xfffff8fb
     334:	014b0609 	cmpeq	fp, r9, lsl #12
     338:	05059e4a 	streq	r9, [r5, #-3658]	; 0xfffff1b6
     33c:	09051314 	stmdbeq	r5, {r2, r4, r8, r9, ip}
     340:	07050106 	streq	r0, [r5, -r6, lsl #2]
     344:	0609052e 	streq	r0, [r9], -lr, lsr #10
     348:	0401064b 	streq	r0, [r1], #-1611	; 0xfffff9b5
     34c:	060d0501 	streq	r0, [sp], -r1, lsl #10
     350:	13016903 	movwne	r6, #6403	; 0x1903
     354:	134a4a01 	movtne	r4, #43521	; 0xaa01
     358:	01061405 	tsteq	r6, r5, lsl #8
     35c:	1e050204 	cdpne	2, 0, cr0, cr5, cr4, {0}
     360:	054a1403 	strbeq	r1, [sl, #-1027]	; 0xfffffbfd
     364:	09052e1a 	stmdbeq	r5, {r1, r3, r4, r9, sl, fp, sp}
     368:	4a014b06 	bmi	52f88 <__bss_end__+0x49028>
     36c:	0104ba06 	tsteq	r4, r6, lsl #20
     370:	6f030c05 	svcvs	0x00030c05
     374:	2f010501 	svccs	0x00010501
     378:	f4063005 	vst4.8	{d3-d6}, [r6], r5
     37c:	05050106 	streq	r0, [r5, #-262]	; 0xfffffefa
     380:	2e064b06 	vmlacs.f64	d4, d6, d6
     384:	052f0105 	streq	r0, [pc, #-261]!	; 287 <_start-0x7d79>
     388:	50030625 	andpl	r0, r3, r5, lsr #12
     38c:	0501062e 	streq	r0, [r1, #-1582]	; 0xfffff9d2
     390:	054b0605 	strbeq	r0, [fp, #-1541]	; 0xfffff9fb
     394:	0501060e 	streq	r0, [r1, #-1550]	; 0xfffff9f2
     398:	052f0605 	streq	r0, [pc, #-1541]!	; fffffd9b <__bss_end__+0xffff5e3b>
     39c:	0501060e 	streq	r0, [r1, #-1550]	; 0xfffff9f2
     3a0:	054b0605 	strbeq	r0, [fp, #-1541]	; 0xfffff9fb
     3a4:	05010616 	streq	r0, [r1, #-1558]	; 0xfffff9ea
     3a8:	054b0605 	strbeq	r0, [fp, #-1541]	; 0xfffff9fb
     3ac:	0501060e 	streq	r0, [r1, #-1550]	; 0xfffff9f2
     3b0:	052f0605 	streq	r0, [pc, #-1541]!	; fffffdb3 <__bss_end__+0xffff5e53>
     3b4:	05130601 	ldreq	r0, [r3, #-1537]	; 0xfffff9ff
     3b8:	06310620 	ldrteq	r0, [r1], -r0, lsr #12
     3bc:	06050501 	streq	r0, [r5], -r1, lsl #10
     3c0:	060c054b 	streq	r0, [ip], -fp, asr #10
     3c4:	2e1f0501 	cfmul32cs	mvfx0, mvfx15, mvfx1
     3c8:	052e0905 	streq	r0, [lr, #-2309]!	; 0xfffff6fb
     3cc:	04020039 	streq	r0, [r2], #-57	; 0xffffffc7
     3d0:	44054a01 	strmi	r4, [r5], #-2561	; 0xfffff5ff
     3d4:	01040200 	mrseq	r0, R12_usr
     3d8:	0035052e 	eorseq	r0, r5, lr, lsr #10
     3dc:	2e010402 	cdpcs	4, 0, cr0, cr1, cr2, {0}
     3e0:	4c060905 			; <UNDEFINED> instruction: 0x4c060905
     3e4:	4a660101 	bmi	19807f0 <__bss_end__+0x1976890>
     3e8:	02048201 	andeq	r8, r4, #268435456	; 0x10000000
     3ec:	28031405 	stmdacs	r3, {r0, r2, sl, ip}
     3f0:	13050501 	movwne	r0, #21761	; 0x5501
     3f4:	13664a01 	cmnne	r6, #4096	; 0x1000
     3f8:	06090513 			; <UNDEFINED> instruction: 0x06090513
     3fc:	2e070501 	cfsh32cs	mvfx0, mvfx7, #1
     400:	4b060905 	blmi	18281c <__bss_end__+0x1788bc>
     404:	059e4a01 	ldreq	r4, [lr, #2561]	; 0xa01
     408:	05131405 	ldreq	r1, [r3, #-1029]	; 0xfffffbfb
     40c:	05010609 	streq	r0, [r1, #-1545]	; 0xfffff9f7
     410:	09052e07 	stmdbeq	r5, {r0, r1, r2, r9, sl, fp, sp}
     414:	01044b06 	tsteq	r4, r6, lsl #22
     418:	03061005 	movweq	r1, #24581	; 0x6005
     41c:	02040151 	andeq	r0, r4, #1073741844	; 0x40000014
     420:	30030105 	andcc	r0, r3, r5, lsl #2
     424:	2c1e052e 	cfldr32cs	mvfx0, [lr], {46}	; 0x2e
     428:	052e1a05 	streq	r1, [lr, #-2565]!	; 0xfffff5fb
     42c:	014b0609 	cmpeq	fp, r9, lsl #12
     430:	04ba064a 	ldrteq	r0, [sl], #1610	; 0x64a
     434:	030c0501 	movweq	r0, #50433	; 0xc501
     438:	01050154 	tsteq	r5, r4, asr r1
     43c:	063a052f 	ldrteq	r0, [sl], -pc, lsr #10
     440:	050106d8 	streq	r0, [r1, #-1752]	; 0xfffff928
     444:	13670605 	cmnne	r7, #5242880	; 0x500000
     448:	01060b05 	tsteq	r6, r5, lsl #22
     44c:	02001005 	andeq	r1, r0, #5
     450:	2e060104 	adfcss	f0, f6, f4
     454:	02000505 	andeq	r0, r0, #20971520	; 0x1400000
     458:	01060104 	tsteq	r6, r4, lsl #2
     45c:	4b060905 	blmi	182878 <__bss_end__+0x178918>
     460:	01060d05 	tsteq	r6, r5, lsl #26
     464:	052e0b05 	streq	r0, [lr, #-2821]!	; 0xfffff4fb
     468:	0402001c 	streq	r0, [r2], #-28	; 0xffffffe4
     46c:	052d0602 	streq	r0, [sp, #-1538]!	; 0xfffff9fe
     470:	0402001d 	streq	r0, [r2], #-29	; 0xffffffe3
     474:	00010602 	andeq	r0, r1, r2, lsl #12
     478:	2e020402 	cdpcs	4, 0, cr0, cr2, cr2, {0}
     47c:	30060d05 	andcc	r0, r6, r5, lsl #26
     480:	01062405 	tsteq	r6, r5, lsl #8
     484:	2e1a052e 	cfmul64cs	mvdx0, mvdx10, mvdx14
     488:	052e1105 	streq	r1, [lr, #-261]!	; 0xfffffefb
     48c:	012f060d 			; <UNDEFINED> instruction: 0x012f060d
     490:	014a6601 	cmpeq	sl, r1, lsl #12
     494:	0502049e 	streq	r0, [r2, #-1182]	; 0xfffffb62
     498:	011c0314 	tsteq	ip, r4, lsl r3
     49c:	01130505 	tsteq	r3, r5, lsl #10
     4a0:	1313664a 	tstne	r3, #77594624	; 0x4a00000
     4a4:	01060905 	tsteq	r6, r5, lsl #18
     4a8:	052e0705 	streq	r0, [lr, #-1797]!	; 0xfffff8fb
     4ac:	014b0609 	cmpeq	fp, r9, lsl #12
     4b0:	05059e4a 	streq	r9, [r5, #-3658]	; 0xfffff1b6
     4b4:	09051314 	stmdbeq	r5, {r2, r4, r8, r9, ip}
     4b8:	07050106 	streq	r0, [r5, -r6, lsl #2]
     4bc:	0609052e 	streq	r0, [r9], -lr, lsr #10
     4c0:	0501044b 	streq	r0, [r1, #-1099]	; 0xfffffbb5
     4c4:	5d030614 	stcpl	6, cr0, [r3, #-80]	; 0xffffffb0
     4c8:	05020401 	streq	r0, [r2, #-1025]	; 0xfffffbff
     4cc:	2e240301 	cdpcs	3, 2, cr0, cr4, cr1, {0}
     4d0:	052c1e05 	streq	r1, [ip, #-3589]!	; 0xfffff1fb
     4d4:	09052e1a 	stmdbeq	r5, {r1, r3, r4, r9, sl, fp, sp}
     4d8:	4a014b06 	bmi	530f8 <__bss_end__+0x49198>
     4dc:	0104ba06 	tsteq	r4, r6, lsl #20
     4e0:	61030c05 	tstvs	r3, r5, lsl #24
     4e4:	2f010501 	svccs	0x00010501
     4e8:	03062205 	movweq	r2, #25093	; 0x6205
     4ec:	0106d61a 	tsteq	r6, sl, lsl r6
     4f0:	4c060505 	cfstr32mi	mvfx0, [r6], {5}
     4f4:	01060c05 	tsteq	r6, r5, lsl #24
     4f8:	05300905 	ldreq	r0, [r0, #-2309]!	; 0xfffff6fb
     4fc:	0c054916 			; <UNDEFINED> instruction: 0x0c054916
     500:	6609054a 	strvs	r0, [r9], -sl, asr #10
     504:	02001605 	andeq	r1, r0, #5242880	; 0x500000
     508:	054b0304 	strbeq	r0, [fp, #-772]	; 0xfffffcfc
     50c:	0402000c 	streq	r0, [r2], #-12
     510:	09056603 	stmdbeq	r5, {r0, r1, r9, sl, sp, lr}
     514:	03040200 	movweq	r0, #16896	; 0x4200
     518:	01054aba 			; <UNDEFINED> instruction: 0x01054aba
     51c:	0627052f 	strteq	r0, [r7], -pc, lsr #10
     520:	2e7fab03 	vaddcs.f64	d26, d15, d3
     524:	05050106 	streq	r0, [r5, #-262]	; 0xfffffefa
     528:	00012f06 	andeq	r2, r1, r6, lsl #30
     52c:	ba020402 	blt	8153c <__bss_end__+0x775dc>
     530:	02040200 	andeq	r0, r4, #0, 4
     534:	04020001 	streq	r0, [r2], #-1
     538:	02001302 	andeq	r1, r0, #134217728	; 0x8000000
     53c:	4a060204 	bmi	180d54 <__bss_end__+0x176df4>
     540:	02040200 	andeq	r0, r4, #0, 4
     544:	0402002e 	streq	r0, [r2], #-46	; 0xffffffd2
     548:	052f0602 	streq	r0, [pc, #-1538]!	; ffffff4e <__bss_end__+0xffff5fee>
     54c:	04020017 	streq	r0, [r2], #-23	; 0xffffffe9
     550:	05010602 	streq	r0, [r1, #-1538]	; 0xfffff9fe
     554:	0402000a 	streq	r0, [r2], #-10
     558:	05054a02 	streq	r4, [r5, #-2562]	; 0xfffff5fe
     55c:	02040200 	andeq	r0, r4, #0, 4
     560:	15052f06 	strne	r2, [r5, #-3846]	; 0xfffff0fa
     564:	02040200 	andeq	r0, r4, #0, 4
     568:	0e050106 	adfeqs	f0, f5, f6
     56c:	02040200 	andeq	r0, r4, #0, 4
     570:	0001052e 	andeq	r0, r1, lr, lsr #10
     574:	2f020402 	svccs	0x00020402
     578:	02000505 	andeq	r0, r0, #20971520	; 0x1400000
     57c:	2a060104 	bcs	180994 <__bss_end__+0x176a34>
     580:	01040200 	mrseq	r0, R12_usr
     584:	04020001 	streq	r0, [r2], #-1
     588:	02002e01 	andeq	r2, r0, #1, 28
     58c:	059e0104 	ldreq	r0, [lr, #260]	; 0x104
     590:	00e70350 	rsceq	r0, r7, r0, asr r3
     594:	050106ba 	streq	r0, [r1, #-1722]	; 0xfffff946
     598:	059f0605 	ldreq	r0, [pc, #1541]	; ba5 <_start-0x745b>
     59c:	05010610 	streq	r0, [r1, #-1552]	; 0xfffff9f0
     5a0:	01300605 	teqeq	r0, r5, lsl #12
     5a4:	02040200 	andeq	r0, r4, #0, 4
     5a8:	0402009e 	streq	r0, [r2], #-158	; 0xffffff62
     5ac:	02001302 	andeq	r1, r0, #134217728	; 0x8000000
     5b0:	00010204 	andeq	r0, r1, r4, lsl #4
     5b4:	06020402 	streq	r0, [r2], -r2, lsl #8
     5b8:	0402002e 	streq	r0, [r2], #-46	; 0xffffffd2
     5bc:	002e0602 	eoreq	r0, lr, r2, lsl #12
     5c0:	66020402 	strvs	r0, [r2], -r2, lsl #8
     5c4:	02040200 	andeq	r0, r4, #0, 4
     5c8:	000a0513 	andeq	r0, sl, r3, lsl r5
     5cc:	06020402 	streq	r0, [r2], -r2, lsl #8
     5d0:	00080501 	andeq	r0, r8, r1, lsl #10
     5d4:	4a020402 	bmi	815e4 <__bss_end__+0x77684>
     5d8:	4c060505 	cfstr32mi	mvfx0, [r6], {5}
     5dc:	01061105 	tsteq	r6, r5, lsl #2
     5e0:	6b060505 	blvs	1819fc <__bss_end__+0x177a9c>
     5e4:	01060e05 	tsteq	r6, r5, lsl #28
     5e8:	4b060505 	blmi	181a04 <__bss_end__+0x177aa4>
     5ec:	06100583 	ldreq	r0, [r0], -r3, lsl #11
     5f0:	4a0e0501 	bmi	3819fc <__bss_end__+0x377a9c>
     5f4:	052f0105 	streq	r0, [pc, #-261]!	; 4f7 <_start-0x7b09>
     5f8:	04020005 	streq	r0, [r2], #-5
     5fc:	74030601 	strvc	r0, [r3], #-1537	; 0xfffff9ff
     600:	0402002e 	streq	r0, [r2], #-46	; 0xffffffd2
     604:	02002e01 	andeq	r2, r0, #1, 28
     608:	059e0104 	ldreq	r0, [lr, #260]	; 0x104
     60c:	d60f0357 			; <UNDEFINED> instruction: 0xd60f0357
     610:	05050106 	streq	r0, [r5, #-262]	; 0xfffffefa
     614:	14136706 	ldrne	r6, [r3], #-1798	; 0xfffff8fa
     618:	002e0601 	eoreq	r0, lr, r1, lsl #12
     61c:	06020402 	streq	r0, [r2], -r2, lsl #8
     620:	040200ba 	streq	r0, [r2], #-186	; 0xffffff46
     624:	02001302 	andeq	r1, r0, #134217728	; 0x8000000
     628:	00010204 	andeq	r0, r1, r4, lsl #4
     62c:	06020402 	streq	r0, [r2], -r2, lsl #8
     630:	0402002e 	streq	r0, [r2], #-46	; 0xffffffd2
     634:	002e0602 	eoreq	r0, lr, r2, lsl #12
     638:	66020402 	strvs	r0, [r2], -r2, lsl #8
     63c:	02040200 	andeq	r0, r4, #0, 4
     640:	00140514 	andseq	r0, r4, r4, lsl r5
     644:	06020402 	streq	r0, [r2], -r2, lsl #8
     648:	000e0501 	andeq	r0, lr, r1, lsl #10
     64c:	2e020402 	cdpcs	4, 0, cr0, cr2, cr2, {0}
     650:	02000505 	andeq	r0, r0, #20971520	; 0x1400000
     654:	2f060204 	svccs	0x00060204
     658:	02000e05 	andeq	r0, r0, #5, 28	; 0x50
     65c:	01060204 	tsteq	r6, r4, lsl #4
     660:	02000505 	andeq	r0, r0, #20971520	; 0x1400000
     664:	31060204 	tstcc	r6, r4, lsl #4
     668:	02000705 	andeq	r0, r0, #1310720	; 0x140000
     66c:	01060204 	tsteq	r6, r4, lsl #4
     670:	4b060905 	blmi	182a8c <__bss_end__+0x178b2c>
     674:	14050501 	strne	r0, [r5], #-1281	; 0xfffffaff
     678:	01060e05 	tsteq	r6, r5, lsl #28
     67c:	05661305 	strbeq	r1, [r6, #-773]!	; 0xfffffcfb
     680:	09052e07 	stmdbeq	r5, {r0, r1, r2, r9, sl, fp, sp}
     684:	05014b06 	streq	r4, [r1, #-2822]	; 0xfffff4fa
     688:	05131505 	ldreq	r1, [r3, #-1285]	; 0xfffffafb
     68c:	05010615 	streq	r0, [r1, #-1557]	; 0xfffff9eb
     690:	052f0605 	streq	r0, [pc, #-1541]!	; 93 <_start-0x7f6d>
     694:	05010619 	streq	r0, [r1, #-1561]	; 0xfffff9e7
     698:	05052e13 	streq	r2, [r5, #-3603]	; 0xfffff1ed
     69c:	0e052f06 	cdpeq	15, 0, cr2, cr5, cr6, {0}
     6a0:	05050106 	streq	r0, [r5, #-262]	; 0xfffffefa
     6a4:	12054b06 	andne	r4, r5, #6144	; 0x1800
     6a8:	05050106 	streq	r0, [r5, #-262]	; 0xfffffefa
     6ac:	13056706 	movwne	r6, #22278	; 0x5706
     6b0:	05050106 	streq	r0, [r5, #-262]	; 0xfffffefa
     6b4:	14054b06 	strne	r4, [r5], #-2822	; 0xfffff4fa
     6b8:	05050106 	streq	r0, [r5, #-262]	; 0xfffffefa
     6bc:	06834b06 	streq	r4, [r3], r6, lsl #22
     6c0:	059f0666 	ldreq	r0, [pc, #1638]	; d2e <_start-0x72d2>
     6c4:	05010610 	streq	r0, [r1, #-1552]	; 0xfffff9f0
     6c8:	05054a0e 	streq	r4, [r5, #-2574]	; 0xfffff5f2
     6cc:	0a053006 	beq	14c6ec <__bss_end__+0x14278c>
     6d0:	05050106 	streq	r0, [r5, #-262]	; 0xfffffefa
     6d4:	00018306 	andeq	r8, r1, r6, lsl #6
     6d8:	82020402 	andhi	r0, r2, #33554432	; 0x2000000
     6dc:	02040200 	andeq	r0, r4, #0, 4
     6e0:	04020001 	streq	r0, [r2], #-1
     6e4:	0b051302 	bleq	1452f4 <__bss_end__+0x13b394>
     6e8:	02040200 	andeq	r0, r4, #0, 4
     6ec:	05050106 	streq	r0, [r5, #-262]	; 0xfffffefa
     6f0:	02040200 	andeq	r0, r4, #0, 4
     6f4:	02006706 	andeq	r6, r0, #1572864	; 0x180000
     6f8:	00010204 	andeq	r0, r1, r4, lsl #4
     6fc:	06020402 	streq	r0, [r2], -r2, lsl #8
     700:	0402002e 	streq	r0, [r2], #-46	; 0xffffffd2
     704:	002e0602 	eoreq	r0, lr, r2, lsl #12
     708:	9e020402 	cdpls	4, 0, cr0, cr2, cr2, {0}
     70c:	02040200 	andeq	r0, r4, #0, 4
     710:	00010513 	andeq	r0, r1, r3, lsl r5
     714:	06020402 	streq	r0, [r2], -r2, lsl #8
     718:	00050513 	andeq	r0, r5, r3, lsl r5
     71c:	06010402 	streq	r0, [r1], -r2, lsl #8
     720:	00666203 	rsbeq	r6, r6, r3, lsl #4
     724:	2e010402 	cdpcs	4, 0, cr0, cr1, cr2, {0}
     728:	01040200 	mrseq	r0, R12_usr
     72c:	3609059e 			; <UNDEFINED> instruction: 0x3609059e
     730:	062e0601 	strteq	r0, [lr], -r1, lsl #12
     734:	2e01662e 	cfmadd32cs	mvax1, mvfx6, mvfx1, mvfx14
     738:	060131ba 			; <UNDEFINED> instruction: 0x060131ba
     73c:	d62e062e 	strtle	r0, [lr], -lr, lsr #12
     740:	3c082e01 	stccc	14, cr2, [r8], {1}
     744:	02000505 	andeq	r0, r0, #20971520	; 0x1400000
     748:	0f030104 	svceq	0x00030104
     74c:	0402002e 	streq	r0, [r2], #-46	; 0xffffffd2
     750:	02000101 	andeq	r0, r0, #1073741824	; 0x40000000
     754:	002e0104 	eoreq	r0, lr, r4, lsl #2
     758:	9e010402 	cdpls	4, 0, cr0, cr1, cr2, {0}
     75c:	09031a05 	stmdbeq	r3, {r0, r2, r9, fp, ip}
     760:	0505ac08 	streq	sl, [r5, #-3080]	; 0xfffff3f8
     764:	061d052f 	ldreq	r0, [sp], -pc, lsr #10
     768:	06050501 	streq	r0, [r5], -r1, lsl #10
     76c:	061e0583 	ldreq	r0, [lr], -r3, lsl #11
     770:	06050501 	streq	r0, [r5], -r1, lsl #10
     774:	824a014c 	subhi	r0, sl, #76, 2
     778:	05151314 	ldreq	r1, [r5, #-788]	; 0xfffffcec
     77c:	1105010a 	tstne	r5, sl, lsl #2
     780:	052e0106 	streq	r0, [lr, #-262]!	; 0xfffffefa
     784:	052d0f0e 	streq	r0, [sp, #-3854]!	; 0xfffff0f2
     788:	0d053205 	sfmeq	f3, 4, [r5, #-20]	; 0xffffffec
     78c:	14053306 	strne	r3, [r5], #-774	; 0xfffffcfa
     790:	0d050106 	stfeqs	f0, [r5, #-24]	; 0xffffffe8
     794:	12052f06 	andne	r2, r5, #6, 30
     798:	0d050106 	stfeqs	f0, [r5, #-24]	; 0xffffffe8
     79c:	01062f06 	tsteq	r6, r6, lsl #30
     7a0:	03060505 	movweq	r0, #25861	; 0x6505
     7a4:	0705010f 	streq	r0, [r5, -pc, lsl #2]
     7a8:	09050106 	stmdbeq	r5, {r1, r2, r8}
     7ac:	4a014b06 	bmi	533cc <__bss_end__+0x4946c>
     7b0:	04020082 	streq	r0, [r2], #-130	; 0xffffff7e
     7b4:	05051401 	streq	r1, [r5, #-1025]	; 0xfffffbff
     7b8:	01040200 	mrseq	r0, R12_usr
     7bc:	00010513 	andeq	r0, r1, r3, lsl r5
     7c0:	06010402 	streq	r0, [r1], -r2, lsl #8
     7c4:	060d0513 			; <UNDEFINED> instruction: 0x060d0513
     7c8:	054a7003 	strbeq	r7, [sl, #-3]
     7cc:	05010614 	streq	r0, [r1, #-1556]	; 0xfffff9ec
     7d0:	05350609 	ldreq	r0, [r5, #-1545]!	; 0xfffff9f7
     7d4:	0501060e 	streq	r0, [r1, #-1550]	; 0xfffff9f2
     7d8:	6f03060a 	svcvs	0x0003060a
     7dc:	0633052e 	ldrteq	r0, [r3], -lr, lsr #10
     7e0:	2e490501 	cdpcs	5, 4, cr0, cr9, cr1, {0}
     7e4:	052e4205 	streq	r4, [lr, #-517]!	; 0xfffffdfb
     7e8:	10052e56 	andne	r2, r5, r6, asr lr
     7ec:	002f052e 	eoreq	r0, pc, lr, lsr #10
     7f0:	06010402 	streq	r0, [r1], -r2, lsl #8
     7f4:	0037052d 	eorseq	r0, r7, sp, lsr #10
     7f8:	06010402 	streq	r0, [r1], -r2, lsl #8
     7fc:	00050501 	andeq	r0, r5, r1, lsl #10
     800:	4a010402 	bmi	41810 <__bss_end__+0x378b0>
     804:	4d060905 	vstrmi.16	s0, [r6, #-10]	; <UNPREDICTABLE>
     808:	01060e05 	tsteq	r6, r5, lsl #28
     80c:	054a0c05 	strbeq	r0, [sl, #-3077]	; 0xfffff3fb
     810:	05510609 	ldrbeq	r0, [r1, #-1545]	; 0xfffff9f7
     814:	05010618 	streq	r0, [r1, #-1560]	; 0xfffff9e8
     818:	0c054a0e 			; <UNDEFINED> instruction: 0x0c054a0e
     81c:	00480566 	subeq	r0, r8, r6, ror #10
     820:	4a010402 	bmi	41830 <__bss_end__+0x378d0>
     824:	02003e05 	andeq	r3, r0, #5, 28	; 0x50
     828:	05660104 	strbeq	r0, [r6, #-260]!	; 0xfffffefc
     82c:	0402003a 	streq	r0, [r2], #-58	; 0xffffffc6
     830:	0e05ba01 	vmlaeq.f32	s22, s10, s2
     834:	17054c06 	strne	r4, [r5, -r6, lsl #24]
     838:	11050106 	tstne	r5, r6, lsl #2
     83c:	060d052e 	streq	r0, [sp], -lr, lsr #10
     840:	0624054c 	strteq	r0, [r4], -ip, asr #10
     844:	4a120501 	bmi	481c50 <__bss_end__+0x477cf0>
     848:	05661005 	strbeq	r1, [r6, #-5]!
     84c:	052f0611 	streq	r0, [pc, #-1553]!	; 243 <_start-0x7dbd>
     850:	2e010618 	mcrcs	6, 0, r0, cr1, cr8, {0}
     854:	0609052e 	streq	r0, [r9], -lr, lsr #10
     858:	01010a03 	tsteq	r1, r3, lsl #20
     85c:	0012024a 	andseq	r0, r2, sl, asr #4
     860:	023c0101 	eorseq	r0, ip, #1073741824	; 0x40000000
     864:	00030000 	andeq	r0, r3, r0
     868:	000000d4 	ldrdeq	r0, [r0], -r4
     86c:	0efb0102 	cdpeq	1, 15, cr0, cr11, cr2, {0}
     870:	0101000d 	tsteq	r1, sp
     874:	00000101 	andeq	r0, r0, r1, lsl #2
     878:	00000100 	andeq	r0, r0, r0, lsl #2
     87c:	62696c01 	rsbvs	r6, r9, #256	; 0x100
     880:	752f0063 	strvc	r0, [pc, #-99]!	; 825 <_start-0x77db>
     884:	6c2f7273 	sfmvs	f7, 4, [pc], #-460	; 6c0 <_start-0x7940>
     888:	672f6269 	strvs	r6, [pc, -r9, ror #4]!
     88c:	612f6363 			; <UNDEFINED> instruction: 0x612f6363
     890:	6e2d6d72 	mcrvs	13, 1, r6, cr13, cr2, {3}
     894:	2d656e6f 	stclcs	14, cr6, [r5, #-444]!	; 0xfffffe44
     898:	69626165 	stmdbvs	r2!, {r0, r2, r5, r6, r8, sp, lr}^
     89c:	322e392f 	eorcc	r3, lr, #770048	; 0xbc000
     8a0:	692f302e 	stmdbvs	pc!, {r1, r2, r3, r5, ip, sp}	; <UNPREDICTABLE>
     8a4:	756c636e 	strbvc	r6, [ip, #-878]!	; 0xfffffc92
     8a8:	2f006564 	svccs	0x00006564
     8ac:	2f727375 	svccs	0x00727375
     8b0:	2d6d7261 	sfmcs	f7, 2, [sp, #-388]!	; 0xfffffe7c
     8b4:	656e6f6e 	strbvs	r6, [lr, #-3950]!	; 0xfffff092
     8b8:	6261652d 	rsbvs	r6, r1, #188743680	; 0xb400000
     8bc:	6e692f69 	cdpvs	15, 6, cr2, cr9, cr9, {3}
     8c0:	64756c63 	ldrbtvs	r6, [r5], #-3171	; 0xfffff39d
     8c4:	79732f65 	ldmdbvc	r3!, {r0, r2, r5, r6, r8, r9, sl, fp, sp}^
     8c8:	682f0073 	stmdavs	pc!, {r0, r1, r4, r5, r6}	; <UNPREDICTABLE>
     8cc:	2f656d6f 	svccs	0x00656d6f
     8d0:	72657375 	rsbvc	r7, r5, #-738197503	; 0xd4000001
     8d4:	7665442f 	strbtvc	r4, [r5], -pc, lsr #8
     8d8:	3253432f 	subscc	r4, r3, #-1140850688	; 0xbc000000
     8dc:	2f583034 	svccs	0x00583034
     8e0:	7062696c 	rsbvc	r6, r2, ip, ror #18
     8e4:	6e692f69 	cdpvs	15, 6, cr2, cr9, cr9, {3}
     8e8:	64756c63 	ldrbtvs	r6, [r5], #-3171	; 0xfffff39d
     8ec:	68000065 	stmdavs	r0, {r0, r2, r5, r6}
     8f0:	2e687361 	cdpcs	3, 6, cr7, cr8, cr1, {3}
     8f4:	00010063 	andeq	r0, r1, r3, rrx
     8f8:	64747300 	ldrbtvs	r7, [r4], #-768	; 0xfffffd00
     8fc:	2d746e69 	ldclcs	14, cr6, [r4, #-420]!	; 0xfffffe5c
     900:	2e636367 	cdpcs	3, 6, cr6, cr3, cr7, {3}
     904:	00020068 	andeq	r0, r2, r8, rrx
     908:	636f6c00 	cmnvs	pc, #0, 24
     90c:	00682e6b 	rsbeq	r2, r8, fp, ror #28
     910:	5f000003 	svcpl	0x00000003
     914:	65707974 	ldrbvs	r7, [r0, #-2420]!	; 0xfffff68c
     918:	00682e73 	rsbeq	r2, r8, r3, ror lr
     91c:	73000003 	movwvc	r0, #3
     920:	65646474 	strbvs	r6, [r4, #-1140]!	; 0xfffffb8c
     924:	00682e66 	rsbeq	r2, r8, r6, ror #28
     928:	72000002 	andvc	r0, r0, #2
     92c:	746e6565 	strbtvc	r6, [lr], #-1381	; 0xfffffa9b
     930:	0300682e 	movweq	r6, #2094	; 0x82e
     934:	70720000 	rsbsvc	r0, r2, r0
     938:	00682e69 	rsbeq	r2, r8, r9, ror #28
     93c:	00000004 	andeq	r0, r0, r4
     940:	05003105 	streq	r3, [r0, #-261]	; 0xfffffefb
     944:	0088f402 	addeq	pc, r8, r2, lsl #8
     948:	010e0300 	mrseq	r0, ELR_hyp
     94c:	05130505 	ldreq	r0, [r3, #-1285]	; 0xfffffafb
     950:	05131301 	ldreq	r1, [r3, #-769]	; 0xfffffcff
     954:	08051405 	stmdaeq	r5, {r0, r2, sl, ip}
     958:	31050106 	tstcc	r5, r6, lsl #2
     95c:	06050561 	streq	r0, [r5], -r1, ror #10
     960:	0609056d 	streq	r0, [r9], -sp, ror #10
     964:	06050501 	streq	r0, [r5], -r1, lsl #10
     968:	0609052f 	streq	r0, [r9], -pc, lsr #10
     96c:	06050501 	streq	r0, [r5], -r1, lsl #10
     970:	000b0531 	andeq	r0, fp, r1, lsr r5
     974:	01010402 	tsteq	r1, r2, lsl #8
     978:	02000505 	andeq	r0, r0, #20971520	; 0x1400000
     97c:	01060104 	tsteq	r6, r4, lsl #2
     980:	02000905 	andeq	r0, r0, #81920	; 0x14000
     984:	4b060204 	blmi	18119c <__bss_end__+0x17723c>
     988:	02001205 	andeq	r1, r0, #1342177280	; 0x50000000
     98c:	01060204 	tsteq	r6, r4, lsl #4
     990:	02000f05 	andeq	r0, r0, #5, 30
     994:	05660204 	strbeq	r0, [r6, #-516]!	; 0xfffffdfc
     998:	04020009 	streq	r0, [r2], #-9
     99c:	052f0602 	streq	r0, [pc, #-1538]!	; 3a2 <_start-0x7c5e>
     9a0:	04020013 	streq	r0, [r2], #-19	; 0xffffffed
     9a4:	05010602 	streq	r0, [r1, #-1538]	; 0xfffff9fe
     9a8:	04020010 	streq	r0, [r2], #-16
     9ac:	09056602 	stmdbeq	r5, {r1, r9, sl, sp, lr}
     9b0:	02040200 	andeq	r0, r4, #0, 4
     9b4:	10052f06 	andne	r2, r5, r6, lsl #30
     9b8:	02040200 	andeq	r0, r4, #0, 4
     9bc:	09050106 	stmdbeq	r5, {r1, r2, r8}
     9c0:	02040200 	andeq	r0, r4, #0, 4
     9c4:	0f052f06 	svceq	0x00052f06
     9c8:	02040200 	andeq	r0, r4, #0, 4
     9cc:	09050106 	stmdbeq	r5, {r1, r2, r8}
     9d0:	02040200 	andeq	r0, r4, #0, 4
     9d4:	0f052f06 	svceq	0x00052f06
     9d8:	02040200 	andeq	r0, r4, #0, 4
     9dc:	14050106 	strne	r0, [r5], #-262	; 0xfffffefa
     9e0:	02040200 	andeq	r0, r4, #0, 4
     9e4:	17052906 	strne	r2, [r5, -r6, lsl #18]
     9e8:	02040200 	andeq	r0, r4, #0, 4
     9ec:	02000106 	andeq	r0, r0, #-2147483647	; 0x80000001
     9f0:	052e0204 	streq	r0, [lr, #-516]!	; 0xfffffdfc
     9f4:	09030605 	stmdbeq	r3, {r0, r2, r9, sl}
     9f8:	ba10032e 	blt	4016b8 <__bss_end__+0x3f7758>
     9fc:	01060a05 	tsteq	r6, r5, lsl #20
     a00:	2f060505 	svccs	0x00060505
     a04:	01060a05 	tsteq	r6, r5, lsl #20
     a08:	2f060505 	svccs	0x00060505
     a0c:	01060a05 	tsteq	r6, r5, lsl #20
     a10:	2f060505 	svccs	0x00060505
     a14:	01060a05 	tsteq	r6, r5, lsl #20
     a18:	2f060505 	svccs	0x00060505
     a1c:	01060a05 	tsteq	r6, r5, lsl #20
     a20:	2f060505 	svccs	0x00060505
     a24:	01060a05 	tsteq	r6, r5, lsl #20
     a28:	30060505 	andcc	r0, r6, r5, lsl #10
     a2c:	13060105 	movwne	r0, #24837	; 0x6105
     a30:	03061105 	movweq	r1, #24837	; 0x6105
     a34:	19052e69 	stmdbne	r5, {r0, r3, r5, r6, r9, sl, fp, sp}
     a38:	052e0106 	streq	r0, [lr, #-262]!	; 0xfffffefa
     a3c:	11054a16 	tstne	r5, r6, lsl sl
     a40:	16052f06 	strne	r2, [r5], -r6, lsl #30
     a44:	11050106 	tstne	r5, r6, lsl #2
     a48:	1a052f06 	bne	14c668 <__bss_end__+0x142708>
     a4c:	16050106 	strne	r0, [r5], -r6, lsl #2
     a50:	0611052e 	ldreq	r0, [r1], -lr, lsr #10
     a54:	0616052f 	ldreq	r0, [r6], -pc, lsr #10
     a58:	06110501 	ldreq	r0, [r1], -r1, lsl #10
     a5c:	19052f2f 	stmdbne	r5, {r0, r1, r2, r3, r5, r8, r9, sl, fp, sp}
     a60:	052e0106 	streq	r0, [lr, #-262]!	; 0xfffffefa
     a64:	11054a16 	tstne	r5, r6, lsl sl
     a68:	16052f06 	strne	r2, [r5], -r6, lsl #30
     a6c:	11050106 	tstne	r5, r6, lsl #2
     a70:	16052f06 	strne	r2, [r5], -r6, lsl #30
     a74:	11050106 	tstne	r5, r6, lsl #2
     a78:	052f2f06 	streq	r2, [pc, #-3846]!	; fffffb7a <__bss_end__+0xffff5c1a>
     a7c:	05010619 	streq	r0, [r1, #-1561]	; 0xfffff9e7
     a80:	11052e16 	tstne	r5, r6, lsl lr
     a84:	16052f06 	strne	r2, [r5], -r6, lsl #30
     a88:	11050106 	tstne	r5, r6, lsl #2
     a8c:	16052f06 	strne	r2, [r5], -r6, lsl #30
     a90:	052e0106 	streq	r0, [lr, #-262]!	; 0xfffffefa
     a94:	2e65032a 	cdpcs	3, 6, cr0, cr5, cr10, {1}
     a98:	27030105 	strcs	r0, [r3, -r5, lsl #2]
     a9c:	0002022e 	andeq	r0, r2, lr, lsr #4
     aa0:	00f00101 	rscseq	r0, r0, r1, lsl #2
     aa4:	00030000 	andeq	r0, r3, r0
     aa8:	000000c0 	andeq	r0, r0, r0, asr #1
     aac:	0efb0102 	cdpeq	1, 15, cr0, cr11, cr2, {0}
     ab0:	0101000d 	tsteq	r1, sp
     ab4:	00000101 	andeq	r0, r0, r1, lsl #2
     ab8:	00000100 	andeq	r0, r0, r0, lsl #2
     abc:	62696c01 	rsbvs	r6, r9, #256	; 0x100
     ac0:	752f0063 	strvc	r0, [pc, #-99]!	; a65 <_start-0x759b>
     ac4:	6c2f7273 	sfmvs	f7, 4, [pc], #-460	; 900 <_start-0x7700>
     ac8:	672f6269 	strvs	r6, [pc, -r9, ror #4]!
     acc:	612f6363 			; <UNDEFINED> instruction: 0x612f6363
     ad0:	6e2d6d72 	mcrvs	13, 1, r6, cr13, cr2, {3}
     ad4:	2d656e6f 	stclcs	14, cr6, [r5, #-444]!	; 0xfffffe44
     ad8:	69626165 	stmdbvs	r2!, {r0, r2, r5, r6, r8, sp, lr}^
     adc:	322e392f 	eorcc	r3, lr, #770048	; 0xbc000
     ae0:	692f302e 	stmdbvs	pc!, {r1, r2, r3, r5, ip, sp}	; <UNPREDICTABLE>
     ae4:	756c636e 	strbvc	r6, [ip, #-878]!	; 0xfffffc92
     ae8:	2f006564 	svccs	0x00006564
     aec:	2f727375 	svccs	0x00727375
     af0:	2d6d7261 	sfmcs	f7, 2, [sp, #-388]!	; 0xfffffe7c
     af4:	656e6f6e 	strbvs	r6, [lr, #-3950]!	; 0xfffff092
     af8:	6261652d 	rsbvs	r6, r1, #188743680	; 0xb400000
     afc:	6e692f69 	cdpvs	15, 6, cr2, cr9, cr9, {3}
     b00:	64756c63 	ldrbtvs	r6, [r5], #-3171	; 0xfffff39d
     b04:	79732f65 	ldmdbvc	r3!, {r0, r2, r5, r6, r8, r9, sl, fp, sp}^
     b08:	752f0073 	strvc	r0, [pc, #-115]!	; a9d <_start-0x7563>
     b0c:	612f7273 			; <UNDEFINED> instruction: 0x612f7273
     b10:	6e2d6d72 	mcrvs	13, 1, r6, cr13, cr2, {3}
     b14:	2d656e6f 	stclcs	14, cr6, [r5, #-444]!	; 0xfffffe44
     b18:	69626165 	stmdbvs	r2!, {r0, r2, r5, r6, r8, sp, lr}^
     b1c:	636e692f 	cmnvs	lr, #770048	; 0xbc000
     b20:	6564756c 	strbvs	r7, [r4, #-1388]!	; 0xfffffa94
     b24:	656d0000 	strbvs	r0, [sp, #-0]!
     b28:	7465736d 	strbtvc	r7, [r5], #-877	; 0xfffffc93
     b2c:	0100632e 	tsteq	r0, lr, lsr #6
     b30:	74730000 	ldrbtvc	r0, [r3], #-0
     b34:	66656464 	strbtvs	r6, [r5], -r4, ror #8
     b38:	0200682e 	andeq	r6, r0, #3014656	; 0x2e0000
     b3c:	6f6c0000 	svcvs	0x006c0000
     b40:	682e6b63 	stmdavs	lr!, {r0, r1, r5, r6, r8, r9, fp, sp, lr}
     b44:	00000300 	andeq	r0, r0, r0, lsl #6
     b48:	7079745f 	rsbsvc	r7, r9, pc, asr r4
     b4c:	682e7365 	stmdavs	lr!, {r0, r2, r5, r6, r8, r9, ip, sp, lr}
     b50:	00000300 	andeq	r0, r0, r0, lsl #6
     b54:	6e656572 	mcrvs	5, 3, r6, cr5, cr2, {3}
     b58:	00682e74 	rsbeq	r2, r8, r4, ror lr
     b5c:	73000003 	movwvc	r0, #3
     b60:	6e697274 	mcrvs	2, 3, r7, cr9, cr4, {3}
     b64:	00682e67 	rsbeq	r2, r8, r7, ror #28
     b68:	00000004 	andeq	r0, r0, r4
     b6c:	05002905 	streq	r2, [r0, #-2309]	; 0xfffff6fb
     b70:	0089e002 	addeq	lr, r9, r2
     b74:	05051400 	streq	r1, [r5, #-1024]	; 0xfffffc00
     b78:	06140513 			; <UNDEFINED> instruction: 0x06140513
     b7c:	06050501 	streq	r0, [r5], -r1, lsl #10
     b80:	060b0530 			; <UNDEFINED> instruction: 0x060b0530
     b84:	060a0510 			; <UNDEFINED> instruction: 0x060a0510
     b88:	4b090530 	blmi	242050 <__bss_end__+0x2380f0>
     b8c:	01060e05 	tsteq	r6, r5, lsl #28
     b90:	0002022e 	andeq	r0, r2, lr, lsr #4
     b94:	01210101 			; <UNDEFINED> instruction: 0x01210101
     b98:	00030000 	andeq	r0, r3, r0
     b9c:	000000ef 	andeq	r0, r0, pc, ror #1
     ba0:	0efb0102 	cdpeq	1, 15, cr0, cr11, cr2, {0}
     ba4:	0101000d 	tsteq	r1, sp
     ba8:	00000101 	andeq	r0, r0, r1, lsl #2
     bac:	00000100 	andeq	r0, r0, r0, lsl #2
     bb0:	62696c01 	rsbvs	r6, r9, #256	; 0x100
     bb4:	752f0063 	strvc	r0, [pc, #-99]!	; b59 <_start-0x74a7>
     bb8:	6c2f7273 	sfmvs	f7, 4, [pc], #-460	; 9f4 <_start-0x760c>
     bbc:	672f6269 	strvs	r6, [pc, -r9, ror #4]!
     bc0:	612f6363 			; <UNDEFINED> instruction: 0x612f6363
     bc4:	6e2d6d72 	mcrvs	13, 1, r6, cr13, cr2, {3}
     bc8:	2d656e6f 	stclcs	14, cr6, [r5, #-444]!	; 0xfffffe44
     bcc:	69626165 	stmdbvs	r2!, {r0, r2, r5, r6, r8, sp, lr}^
     bd0:	322e392f 	eorcc	r3, lr, #770048	; 0xbc000
     bd4:	692f302e 	stmdbvs	pc!, {r1, r2, r3, r5, ip, sp}	; <UNPREDICTABLE>
     bd8:	756c636e 	strbvc	r6, [ip, #-878]!	; 0xfffffc92
     bdc:	2f006564 	svccs	0x00006564
     be0:	2f727375 	svccs	0x00727375
     be4:	2d6d7261 	sfmcs	f7, 2, [sp, #-388]!	; 0xfffffe7c
     be8:	656e6f6e 	strbvs	r6, [lr, #-3950]!	; 0xfffff092
     bec:	6261652d 	rsbvs	r6, r1, #188743680	; 0xb400000
     bf0:	6e692f69 	cdpvs	15, 6, cr2, cr9, cr9, {3}
     bf4:	64756c63 	ldrbtvs	r6, [r5], #-3171	; 0xfffff39d
     bf8:	79732f65 	ldmdbvc	r3!, {r0, r2, r5, r6, r8, r9, sl, fp, sp}^
     bfc:	682f0073 	stmdavs	pc!, {r0, r1, r4, r5, r6}	; <UNPREDICTABLE>
     c00:	2f656d6f 	svccs	0x00656d6f
     c04:	72657375 	rsbvc	r7, r5, #-738197503	; 0xd4000001
     c08:	7665442f 	strbtvc	r4, [r5], -pc, lsr #8
     c0c:	3253432f 	subscc	r4, r3, #-1140850688	; 0xbc000000
     c10:	2f583034 	svccs	0x00583034
     c14:	7062696c 	rsbvc	r6, r2, ip, ror #18
     c18:	6e692f69 	cdpvs	15, 6, cr2, cr9, cr9, {3}
     c1c:	64756c63 	ldrbtvs	r6, [r5], #-3171	; 0xfffff39d
     c20:	70000065 	andvc	r0, r0, r5, rrx
     c24:	746e6972 	strbtvc	r6, [lr], #-2418	; 0xfffff68e
     c28:	00632e6b 	rsbeq	r2, r3, fp, ror #28
     c2c:	73000001 	movwvc	r0, #1
     c30:	72616474 	rsbvc	r6, r1, #116, 8	; 0x74000000
     c34:	00682e67 	rsbeq	r2, r8, r7, ror #28
     c38:	6c000002 	stcvs	0, cr0, [r0], {2}
     c3c:	2e6b636f 	cdpcs	3, 6, cr6, cr11, cr15, {3}
     c40:	00030068 	andeq	r0, r3, r8, rrx
     c44:	79745f00 	ldmdbvc	r4!, {r8, r9, sl, fp, ip, lr}^
     c48:	2e736570 	mrccs	5, 3, r6, cr3, cr0, {3}
     c4c:	00030068 	andeq	r0, r3, r8, rrx
     c50:	64747300 	ldrbtvs	r7, [r4], #-768	; 0xfffffd00
     c54:	2e666564 	cdpcs	5, 6, cr6, cr6, cr4, {3}
     c58:	00020068 	andeq	r0, r2, r8, rrx
     c5c:	65657200 	strbvs	r7, [r5, #-512]!	; 0xfffffe00
     c60:	682e746e 	stmdavs	lr!, {r1, r2, r3, r5, r6, sl, ip, sp, lr}
     c64:	00000300 	andeq	r0, r0, r0, lsl #6
     c68:	2e697072 	mcrcs	0, 3, r7, cr9, cr2, {3}
     c6c:	00040068 	andeq	r0, r4, r8, rrx
     c70:	75623c00 	strbvc	r3, [r2, #-3072]!	; 0xfffff400
     c74:	2d746c69 	ldclcs	12, cr6, [r4, #-420]!	; 0xfffffe5c
     c78:	003e6e69 	eorseq	r6, lr, r9, ror #28
     c7c:	76000000 	strvc	r0, [r0], -r0
     c80:	72702d61 	rsbsvc	r2, r0, #6208	; 0x1840
     c84:	6b746e69 	blvs	1d1c630 <__bss_end__+0x1d126d0>
     c88:	0100682e 	tsteq	r0, lr, lsr #16
     c8c:	05000000 	streq	r0, [r0, #-0]
     c90:	02050022 	andeq	r0, r5, #34	; 0x22
     c94:	000089f8 	strdeq	r8, [r0], -r8	; <UNPREDICTABLE>
     c98:	05010617 	streq	r0, [r1, #-1559]	; 0xfffff9e9
     c9c:	13680605 	cmnne	r8, #5242880	; 0x500000
     ca0:	4b090514 	blmi	2420f8 <__bss_end__+0x238198>
     ca4:	01061205 	tsteq	r6, r5, lsl #4
     ca8:	bb060505 	bllt	1820c4 <__bss_end__+0x178164>
     cac:	06660616 			; <UNDEFINED> instruction: 0x06660616
     cb0:	06010534 			; <UNDEFINED> instruction: 0x06010534
     cb4:	08026613 	stmdaeq	r2, {r0, r1, r4, r9, sl, sp, lr}
     cb8:	05010100 	streq	r0, [r1, #-256]	; 0xffffff00
     cbc:	03000001 	movweq	r0, #1
     cc0:	0000c700 	andeq	ip, r0, r0, lsl #14
     cc4:	fb010200 	blx	414ce <__bss_end__+0x3756e>
     cc8:	01000d0e 	tsteq	r0, lr, lsl #26
     ccc:	00010101 	andeq	r0, r1, r1, lsl #2
     cd0:	00010000 	andeq	r0, r1, r0
     cd4:	696c0100 	stmdbvs	ip!, {r8}^
     cd8:	2f006362 	svccs	0x00006362
     cdc:	2f727375 	svccs	0x00727375
     ce0:	2d6d7261 	sfmcs	f7, 2, [sp, #-388]!	; 0xfffffe7c
     ce4:	656e6f6e 	strbvs	r6, [lr, #-3950]!	; 0xfffff092
     ce8:	6261652d 	rsbvs	r6, r1, #188743680	; 0xb400000
     cec:	6e692f69 	cdpvs	15, 6, cr2, cr9, cr9, {3}
     cf0:	64756c63 	ldrbtvs	r6, [r5], #-3171	; 0xfffff39d
     cf4:	79732f65 	ldmdbvc	r3!, {r0, r2, r5, r6, r8, r9, sl, fp, sp}^
     cf8:	752f0073 	strvc	r0, [pc, #-115]!	; c8d <_start-0x7373>
     cfc:	6c2f7273 	sfmvs	f7, 4, [pc], #-460	; b38 <_start-0x74c8>
     d00:	672f6269 	strvs	r6, [pc, -r9, ror #4]!
     d04:	612f6363 			; <UNDEFINED> instruction: 0x612f6363
     d08:	6e2d6d72 	mcrvs	13, 1, r6, cr13, cr2, {3}
     d0c:	2d656e6f 	stclcs	14, cr6, [r5, #-444]!	; 0xfffffe44
     d10:	69626165 	stmdbvs	r2!, {r0, r2, r5, r6, r8, sp, lr}^
     d14:	322e392f 	eorcc	r3, lr, #770048	; 0xbc000
     d18:	692f302e 	stmdbvs	pc!, {r1, r2, r3, r5, ip, sp}	; <UNPREDICTABLE>
     d1c:	756c636e 	strbvc	r6, [ip, #-878]!	; 0xfffffc92
     d20:	2f006564 	svccs	0x00006564
     d24:	656d6f68 	strbvs	r6, [sp, #-3944]!	; 0xfffff098
     d28:	6573752f 	ldrbvs	r7, [r3, #-1327]!	; 0xfffffad1
     d2c:	65442f72 	strbvs	r2, [r4, #-3954]	; 0xfffff08e
     d30:	53432f76 	movtpl	r2, #16246	; 0x3f76
     d34:	58303432 	ldmdapl	r0!, {r1, r4, r5, sl, ip, sp}
     d38:	62696c2f 	rsbvs	r6, r9, #12032	; 0x2f00
     d3c:	692f6970 	stmdbvs	pc!, {r4, r5, r6, r8, fp, sp, lr}	; <UNPREDICTABLE>
     d40:	756c636e 	strbvc	r6, [ip, #-878]!	; 0xfffffc92
     d44:	00006564 	andeq	r6, r0, r4, ror #10
     d48:	63747570 	cmnvs	r4, #112, 10	; 0x1c000000
     d4c:	2e726168 	rpwcssz	f6, f2, #0.0
     d50:	00010063 	andeq	r0, r1, r3, rrx
     d54:	636f6c00 	cmnvs	pc, #0, 24
     d58:	00682e6b 	rsbeq	r2, r8, fp, ror #28
     d5c:	5f000002 	svcpl	0x00000002
     d60:	65707974 	ldrbvs	r7, [r0, #-2420]!	; 0xfffff68c
     d64:	00682e73 	rsbeq	r2, r8, r3, ror lr
     d68:	73000002 	movwvc	r0, #2
     d6c:	65646474 	strbvs	r6, [r4, #-1140]!	; 0xfffffb8c
     d70:	00682e66 	rsbeq	r2, r8, r6, ror #28
     d74:	72000003 	andvc	r0, r0, #3
     d78:	746e6565 	strbtvc	r6, [lr], #-1381	; 0xfffffa9b
     d7c:	0200682e 	andeq	r6, r0, #3014656	; 0x2e0000
     d80:	70720000 	rsbsvc	r0, r2, r0
     d84:	00682e69 	rsbeq	r2, r8, r9, ror #28
     d88:	00000004 	andeq	r0, r0, r4
     d8c:	05002405 	streq	r2, [r0, #-1029]	; 0xfffffbfb
     d90:	008a5002 	addeq	r5, sl, r2
     d94:	01061400 	tsteq	r6, r0, lsl #8
     d98:	4a062605 	bmi	18a5b4 <__bss_end__+0x180654>
     d9c:	052e3405 	streq	r3, [lr, #-1029]!	; 0xfffffbfb
     da0:	05010601 	streq	r0, [r1, #-1537]	; 0xfffff9ff
     da4:	054f061b 	strbeq	r0, [pc, #-1563]	; 791 <_start-0x786f>
     da8:	11051305 	tstne	r5, r5, lsl #6
     dac:	01050106 	tsteq	r5, r6, lsl #2
     db0:	06230567 	strteq	r0, [r3], -r7, ror #10
     db4:	13050567 	movwne	r0, #21863	; 0x5567
     db8:	01061105 	tsteq	r6, r5, lsl #2
     dbc:	024b0105 	subeq	r0, fp, #1073741825	; 0x40000001
     dc0:	01010004 	tsteq	r1, r4
     dc4:	00000112 	andeq	r0, r0, r2, lsl r1
     dc8:	00c40003 	sbceq	r0, r4, r3
     dcc:	01020000 	mrseq	r0, (UNDEF: 2)
     dd0:	000d0efb 	strdeq	r0, [sp], -fp
     dd4:	01010101 	tsteq	r1, r1, lsl #2
     dd8:	01000000 	mrseq	r0, (UNDEF: 0)
     ddc:	6c010000 	stcvs	0, cr0, [r1], {-0}
     de0:	00636269 	rsbeq	r6, r3, r9, ror #4
     de4:	7273752f 	rsbsvc	r7, r3, #197132288	; 0xbc00000
     de8:	6d72612f 	ldfvse	f6, [r2, #-188]!	; 0xffffff44
     dec:	6e6f6e2d 	cdpvs	14, 6, cr6, cr15, cr13, {1}
     df0:	61652d65 	cmnvs	r5, r5, ror #26
     df4:	692f6962 	stmdbvs	pc!, {r1, r5, r6, r8, fp, sp, lr}	; <UNPREDICTABLE>
     df8:	756c636e 	strbvc	r6, [ip, #-878]!	; 0xfffffc92
     dfc:	732f6564 			; <UNDEFINED> instruction: 0x732f6564
     e00:	2f007379 	svccs	0x00007379
     e04:	2f727375 	svccs	0x00727375
     e08:	2f62696c 	svccs	0x0062696c
     e0c:	2f636367 	svccs	0x00636367
     e10:	2d6d7261 	sfmcs	f7, 2, [sp, #-388]!	; 0xfffffe7c
     e14:	656e6f6e 	strbvs	r6, [lr, #-3950]!	; 0xfffff092
     e18:	6261652d 	rsbvs	r6, r1, #188743680	; 0xb400000
     e1c:	2e392f69 	cdpcs	15, 3, cr2, cr9, cr9, {3}
     e20:	2f302e32 	svccs	0x00302e32
     e24:	6c636e69 	stclvs	14, cr6, [r3], #-420	; 0xfffffe5c
     e28:	00656475 	rsbeq	r6, r5, r5, ror r4
     e2c:	6d6f682f 	stclvs	8, cr6, [pc, #-188]!	; d78 <_start-0x7288>
     e30:	73752f65 	cmnvc	r5, #404	; 0x194
     e34:	442f7265 	strtmi	r7, [pc], #-613	; e3c <_start-0x71c4>
     e38:	432f7665 			; <UNDEFINED> instruction: 0x432f7665
     e3c:	30343253 	eorscc	r3, r4, r3, asr r2
     e40:	696c2f58 	stmdbvs	ip!, {r3, r4, r6, r8, r9, sl, fp, sp}^
     e44:	2f697062 	svccs	0x00697062
     e48:	6c636e69 	stclvs	14, cr6, [r3], #-420	; 0xfffffe5c
     e4c:	00656475 	rsbeq	r6, r5, r5, ror r4
     e50:	74757000 	ldrbtvc	r7, [r5], #-0
     e54:	00632e6b 	rsbeq	r2, r3, fp, ror #28
     e58:	6c000001 	stcvs	0, cr0, [r0], {1}
     e5c:	2e6b636f 	cdpcs	3, 6, cr6, cr11, cr15, {3}
     e60:	00020068 	andeq	r0, r2, r8, rrx
     e64:	79745f00 	ldmdbvc	r4!, {r8, r9, sl, fp, ip, lr}^
     e68:	2e736570 	mrccs	5, 3, r6, cr3, cr0, {3}
     e6c:	00020068 	andeq	r0, r2, r8, rrx
     e70:	64747300 	ldrbtvs	r7, [r4], #-768	; 0xfffffd00
     e74:	2e666564 	cdpcs	5, 6, cr6, cr6, cr4, {3}
     e78:	00030068 	andeq	r0, r3, r8, rrx
     e7c:	65657200 	strbvs	r7, [r5, #-512]!	; 0xfffffe00
     e80:	682e746e 	stmdavs	lr!, {r1, r2, r3, r5, r6, sl, ip, sp, lr}
     e84:	00000200 	andeq	r0, r0, r0, lsl #4
     e88:	2e697072 	mcrcs	0, 3, r7, cr9, cr2, {3}
     e8c:	00040068 	andeq	r0, r4, r8, rrx
     e90:	22050000 	andcs	r0, r5, #0
     e94:	8c020500 	cfstr32hi	mvfx0, [r2], {-0}
     e98:	1500008a 	strne	r0, [r0, #-138]	; 0xffffff76
     e9c:	05050106 	streq	r0, [r5, #-262]	; 0xfffffefa
     ea0:	0b054b06 	bleq	153ac0 <__bss_end__+0x149b60>
     ea4:	01040200 	mrseq	r0, R12_usr
     ea8:	00050501 	andeq	r0, r5, r1, lsl #10
     eac:	06010402 	streq	r0, [r1], -r2, lsl #8
     eb0:	0009052e 	andeq	r0, r9, lr, lsr #10
     eb4:	06020402 	streq	r0, [r2], -r2, lsl #8
     eb8:	000f054b 	andeq	r0, pc, fp, asr #10
     ebc:	65020402 	strvs	r0, [r2, #-1026]	; 0xfffffbfe
     ec0:	02001005 	andeq	r1, r0, #5
     ec4:	01060204 	tsteq	r6, r4, lsl #4
     ec8:	02040200 	andeq	r0, r4, #0, 4
     ecc:	0605052e 	streq	r0, [r5], -lr, lsr #10
     ed0:	06010532 			; <UNDEFINED> instruction: 0x06010532
     ed4:	00060213 	andeq	r0, r6, r3, lsl r2
     ed8:	050d0101 	streq	r0, [sp, #-257]	; 0xfffffeff
     edc:	00030000 	andeq	r0, r3, r0
     ee0:	000000e3 	andeq	r0, r0, r3, ror #1
     ee4:	0efb0102 	cdpeq	1, 15, cr0, cr11, cr2, {0}
     ee8:	0101000d 	tsteq	r1, sp
     eec:	00000101 	andeq	r0, r0, r1, lsl #2
     ef0:	00000100 	andeq	r0, r0, r0, lsl #2
     ef4:	62696c01 	rsbvs	r6, r9, #256	; 0x100
     ef8:	752f0063 	strvc	r0, [pc, #-99]!	; e9d <_start-0x7163>
     efc:	612f7273 			; <UNDEFINED> instruction: 0x612f7273
     f00:	6e2d6d72 	mcrvs	13, 1, r6, cr13, cr2, {3}
     f04:	2d656e6f 	stclcs	14, cr6, [r5, #-444]!	; 0xfffffe44
     f08:	69626165 	stmdbvs	r2!, {r0, r2, r5, r6, r8, sp, lr}^
     f0c:	636e692f 	cmnvs	lr, #770048	; 0xbc000
     f10:	6564756c 	strbvs	r7, [r4, #-1388]!	; 0xfffffa94
     f14:	7379732f 	cmnvc	r9, #-1140850688	; 0xbc000000
     f18:	73752f00 	cmnvc	r5, #0, 30
     f1c:	696c2f72 	stmdbvs	ip!, {r1, r4, r5, r6, r8, r9, sl, fp, sp}^
     f20:	63672f62 	cmnvs	r7, #392	; 0x188
     f24:	72612f63 	rsbvc	r2, r1, #396	; 0x18c
     f28:	6f6e2d6d 	svcvs	0x006e2d6d
     f2c:	652d656e 	strvs	r6, [sp, #-1390]!	; 0xfffffa92
     f30:	2f696261 	svccs	0x00696261
     f34:	2e322e39 	mrccs	14, 1, r2, cr2, cr9, {1}
     f38:	6e692f30 	mcrvs	15, 3, r2, cr9, cr0, {1}
     f3c:	64756c63 	ldrbtvs	r6, [r5], #-3171	; 0xfffff39d
     f40:	682f0065 	stmdavs	pc!, {r0, r2, r5, r6}	; <UNPREDICTABLE>
     f44:	2f656d6f 	svccs	0x00656d6f
     f48:	72657375 	rsbvc	r7, r5, #-738197503	; 0xd4000001
     f4c:	7665442f 	strbtvc	r4, [r5], -pc, lsr #8
     f50:	3253432f 	subscc	r4, r3, #-1140850688	; 0xbc000000
     f54:	2f583034 	svccs	0x00583034
     f58:	7062696c 	rsbvc	r6, r2, ip, ror #18
     f5c:	6e692f69 	cdpvs	15, 6, cr2, cr9, cr9, {3}
     f60:	64756c63 	ldrbtvs	r6, [r5], #-3171	; 0xfffff39d
     f64:	76000065 	strvc	r0, [r0], -r5, rrx
     f68:	72702d61 	rsbsvc	r2, r0, #6208	; 0x1840
     f6c:	6b746e69 	blvs	1d1c918 <__bss_end__+0x1d129b8>
     f70:	0100632e 	tsteq	r0, lr, lsr #6
     f74:	6f6c0000 	svcvs	0x006c0000
     f78:	682e6b63 	stmdavs	lr!, {r0, r1, r5, r6, r8, r9, fp, sp, lr}
     f7c:	00000200 	andeq	r0, r0, r0, lsl #4
     f80:	7079745f 	rsbsvc	r7, r9, pc, asr r4
     f84:	682e7365 	stmdavs	lr!, {r0, r2, r5, r6, r8, r9, ip, sp, lr}
     f88:	00000200 	andeq	r0, r0, r0, lsl #4
     f8c:	64647473 	strbtvs	r7, [r4], #-1139	; 0xfffffb8d
     f90:	682e6665 	stmdavs	lr!, {r0, r2, r5, r6, r9, sl, sp, lr}
     f94:	00000300 	andeq	r0, r0, r0, lsl #6
     f98:	6e656572 	mcrvs	5, 3, r6, cr5, cr2, {3}
     f9c:	00682e74 	rsbeq	r2, r8, r4, ror lr
     fa0:	72000002 	andvc	r0, r0, #2
     fa4:	682e6970 	stmdavs	lr!, {r4, r5, r6, r8, fp, sp, lr}
     fa8:	00000400 	andeq	r0, r0, r0, lsl #8
     fac:	61647473 	smcvs	18243	; 0x4743
     fb0:	682e6772 	stmdavs	lr!, {r1, r4, r5, r6, r8, r9, sl, sp, lr}
     fb4:	00000300 	andeq	r0, r0, r0, lsl #6
     fb8:	6975623c 	ldmdbvs	r5!, {r2, r3, r4, r5, r9, sp, lr}^
     fbc:	692d746c 	pushvs	{r2, r3, r5, r6, sl, ip, sp, lr}
     fc0:	00003e6e 	andeq	r3, r0, lr, ror #28
     fc4:	05000000 	streq	r0, [r0, #-0]
     fc8:	0205001b 	andeq	r0, r5, #27
     fcc:	00008ac0 	andeq	r8, r0, r0, asr #21
     fd0:	05012603 	streq	r2, [r1, #-1539]	; 0xfffff9fd
     fd4:	2d05011d 	stfcss	f0, [r5, #-116]	; 0xffffff8c
     fd8:	01050106 	tsteq	r5, r6, lsl #2
     fdc:	33054a2e 	movwcc	r4, #23086	; 0x5a2e
     fe0:	02055106 	andeq	r5, r5, #-2147483647	; 0x80000001
     fe4:	06060513 			; <UNDEFINED> instruction: 0x06060513
     fe8:	06020501 	streq	r0, [r2], -r1, lsl #10
     fec:	00080530 	andeq	r0, r8, r0, lsr r5
     ff0:	01010402 	tsteq	r1, r2, lsl #8
     ff4:	02000205 	andeq	r0, r0, #1342177280	; 0x50000000
     ff8:	01060104 	tsteq	r6, r4, lsl #2
     ffc:	02000305 	andeq	r0, r0, #335544320	; 0x14000000
    1000:	2f060204 	svccs	0x00060204
    1004:	02000805 	andeq	r0, r0, #327680	; 0x50000
    1008:	01060204 	tsteq	r6, r4, lsl #4
    100c:	02001505 	andeq	r1, r0, #20971520	; 0x1400000
    1010:	49060204 	stmdbmi	r6, {r2, r9}
    1014:	02001805 	andeq	r1, r0, #327680	; 0x50000
    1018:	01060204 	tsteq	r6, r4, lsl #4
    101c:	02040200 	andeq	r0, r4, #0, 4
    1020:	0602052e 	streq	r0, [r2], -lr, lsr #10
    1024:	06050530 			; <UNDEFINED> instruction: 0x06050530
    1028:	06020501 	streq	r0, [r2], -r1, lsl #10
    102c:	0601054b 	streq	r0, [r1], -fp, asr #10
    1030:	063e0513 			; <UNDEFINED> instruction: 0x063e0513
    1034:	14020530 	strne	r0, [r2], #-1328	; 0xfffffad0
    1038:	01060e05 	tsteq	r6, r5, lsl #28
    103c:	052e0605 	streq	r0, [lr, #-1541]!	; 0xfffff9fb
    1040:	052f0602 	streq	r0, [pc, #-1538]!	; a46 <_start-0x75ba>
    1044:	05010604 	streq	r0, [r1, #-1540]	; 0xfffff9fc
    1048:	052f0603 	streq	r0, [pc, #-1539]!	; a4d <_start-0x75b3>
    104c:	05010611 	streq	r0, [r1, #-1553]	; 0xfffff9ef
    1050:	02052e09 	andeq	r2, r5, #9, 28	; 0x90
    1054:	05153006 	ldreq	r3, [r5, #-6]
    1058:	05010607 	streq	r0, [r1, #-1543]	; 0xfffff9f9
    105c:	0b052e02 	bleq	14c86c <__bss_end__+0x14290c>
    1060:	01040200 	mrseq	r0, R12_usr
    1064:	02052e06 	andeq	r2, r5, #6, 28	; 0x60
    1068:	01040200 	mrseq	r0, R12_usr
    106c:	03050106 	movweq	r0, #20742	; 0x5106
    1070:	03040200 	movweq	r0, #16896	; 0x4200
    1074:	0c052f06 	stceq	15, cr2, [r5], {6}
    1078:	03040200 	movweq	r0, #16896	; 0x4200
    107c:	0a050106 	beq	14149c <__bss_end__+0x13753c>
    1080:	03040200 	movweq	r0, #16896	; 0x4200
    1084:	0017052e 	andseq	r0, r7, lr, lsr #10
    1088:	06030402 	streq	r0, [r3], -r2, lsl #8
    108c:	0402002d 	streq	r0, [r2], #-45	; 0xffffffd3
    1090:	05010603 	streq	r0, [r1, #-1539]	; 0xfffff9fd
    1094:	05300602 	ldreq	r0, [r0, #-1538]!	; 0xfffff9fe
    1098:	2e010609 	cfmadd32cs	mvax0, mvfx0, mvfx1, mvfx9
    109c:	30060205 	andcc	r0, r6, r5, lsl #4
    10a0:	13060105 	movwne	r0, #24837	; 0x6105
    10a4:	30065605 	andcc	r5, r6, r5, lsl #12
    10a8:	02050106 	andeq	r0, r5, #-2147483647	; 0x80000001
    10ac:	0405a006 	streq	sl, [r5], #-6
    10b0:	03050106 	movweq	r0, #20742	; 0x5106
    10b4:	09052f06 	stmdbeq	r5, {r1, r2, r8, r9, sl, fp, sp}
    10b8:	02050106 	andeq	r0, r5, #-2147483647	; 0x80000001
    10bc:	05133006 	ldreq	r3, [r3, #-6]
    10c0:	0501060b 	streq	r0, [r1, #-1547]	; 0xfffff9f5
    10c4:	06300602 	ldrteq	r0, [r0], -r2, lsl #12
    10c8:	0604052e 	streq	r0, [r4], -lr, lsr #10
    10cc:	13152402 	tstne	r5, #33554432	; 0x2000000
    10d0:	01060f05 	tsteq	r6, r5, lsl #30
    10d4:	4a06052e 	bmi	182594 <__bss_end__+0x178634>
    10d8:	4b060505 	blmi	1824f4 <__bss_end__+0x178594>
    10dc:	06090513 			; <UNDEFINED> instruction: 0x06090513
    10e0:	06050501 	streq	r0, [r5], -r1, lsl #10
    10e4:	060b052f 	streq	r0, [fp], -pc, lsr #10
    10e8:	000d0510 	andeq	r0, sp, r0, lsl r5
    10ec:	2c010402 	cfstrscs	mvf0, [r1], {2}
    10f0:	02000405 	andeq	r0, r0, #83886080	; 0x5000000
    10f4:	34060104 	strcc	r0, [r6], #-260	; 0xfffffefc
    10f8:	02000505 	andeq	r0, r0, #20971520	; 0x1400000
    10fc:	05130104 	ldreq	r0, [r3, #-260]	; 0xfffffefc
    1100:	0402001b 	streq	r0, [r2], #-27	; 0xffffffe5
    1104:	05010601 	streq	r0, [r1, #-1537]	; 0xfffff9ff
    1108:	04020007 	streq	r0, [r2], #-7
    110c:	1805d601 	stmdane	r5, {r0, r9, sl, ip, lr, pc}
    1110:	01040200 	mrseq	r0, R12_usr
    1114:	000a052e 	andeq	r0, sl, lr, lsr #10
    1118:	4a010402 	bmi	42128 <__bss_end__+0x381c8>
    111c:	02000b05 	andeq	r0, r0, #5120	; 0x1400
    1120:	2f060104 	svccs	0x00060104
    1124:	02000e05 	andeq	r0, r0, #5, 28	; 0x50
    1128:	2e060104 	adfcss	f0, f6, f4
    112c:	02000405 	andeq	r0, r0, #83886080	; 0x5000000
    1130:	062e0104 	strteq	r0, [lr], -r4, lsl #2
    1134:	0606054b 	streq	r0, [r6], -fp, asr #10
    1138:	06050501 	streq	r0, [r5], -r1, lsl #10
    113c:	060a052f 	streq	r0, [sl], -pc, lsr #10
    1140:	4a070501 	bmi	1c254c <__bss_end__+0x1b85ec>
    1144:	030d052e 	movweq	r0, #54574	; 0xd52e
    1148:	054a2e76 	strbeq	r2, [sl, #-3702]	; 0xfffff18a
    114c:	0d050d0b 	stceq	13, cr0, [r5, #-44]	; 0xffffffd4
    1150:	01040200 	mrseq	r0, R12_usr
    1154:	2e140306 	cdpcs	3, 1, cr0, cr4, cr6, {0}
    1158:	02001105 	andeq	r1, r0, #1073741825	; 0x40000001
    115c:	05130104 	ldreq	r0, [r3, #-260]	; 0xfffffefc
    1160:	0402002d 	streq	r0, [r2], #-45	; 0xffffffd3
    1164:	05010601 	streq	r0, [r1, #-1537]	; 0xfffff9ff
    1168:	0402002a 	streq	r0, [r2], #-42	; 0xffffffd6
    116c:	16052e01 	strne	r2, [r5], -r1, lsl #28
    1170:	01040200 	mrseq	r0, R12_usr
    1174:	0014054a 	andseq	r0, r4, sl, asr #10
    1178:	06010402 	streq	r0, [r1], -r2, lsl #8
    117c:	000d054b 	andeq	r0, sp, fp, asr #10
    1180:	06010402 	streq	r0, [r1], -r2, lsl #8
    1184:	04020001 	streq	r0, [r2], #-1
    1188:	2f064a01 	svccs	0x00064a01
    118c:	01061205 	tsteq	r6, r5, lsl #4
    1190:	060d054a 	streq	r0, [sp], -sl, asr #10
    1194:	0612052f 	ldreq	r0, [r2], -pc, lsr #10
    1198:	06190501 	ldreq	r0, [r9], -r1, lsl #10
    119c:	0004054b 	andeq	r0, r4, fp, asr #10
    11a0:	03020402 	movweq	r0, #9218	; 0x2402
    11a4:	02000111 	andeq	r0, r0, #1073741828	; 0x40000004
    11a8:	05010204 	streq	r0, [r1, #-516]	; 0xfffffdfc
    11ac:	04020002 	streq	r0, [r2], #-2
    11b0:	09051502 	stmdbeq	r5, {r1, r8, sl, ip}
    11b4:	02040200 	andeq	r0, r4, #0, 4
    11b8:	02000106 	andeq	r0, r0, #-2147483647	; 0x80000001
    11bc:	054a0204 	strbeq	r0, [sl, #-516]	; 0xfffffdfc
    11c0:	04020001 	streq	r0, [r2], #-1
    11c4:	04059f02 	streq	r9, [r5], #-3842	; 0xfffff0fe
    11c8:	4a6e0306 	bmi	1b81de8 <__bss_end__+0x1b77e88>
    11cc:	01060905 	tsteq	r6, r5, lsl #18
    11d0:	2f060405 	svccs	0x00060405
    11d4:	11060605 	tstne	r6, r5, lsl #12
    11d8:	052f0405 	streq	r0, [pc, #-1029]!	; ddb <_start-0x7225>
    11dc:	2e63030b 	cdpcs	3, 6, cr0, cr3, cr11, {0}
    11e0:	02001905 	andeq	r1, r0, #81920	; 0x14000
    11e4:	03060104 	movweq	r0, #24836	; 0x6104
    11e8:	1a052e24 	bne	14ca80 <__bss_end__+0x142b20>
    11ec:	01040200 	mrseq	r0, R12_usr
    11f0:	00280513 	eoreq	r0, r8, r3, lsl r5
    11f4:	06010402 	streq	r0, [r1], -r2, lsl #8
    11f8:	00250501 	eoreq	r0, r5, r1, lsl #10
    11fc:	2e010402 	cdpcs	4, 0, cr0, cr1, cr2, {0}
    1200:	02001f05 	andeq	r1, r0, #5, 30
    1204:	054a0104 	strbeq	r0, [sl, #-260]	; 0xfffffefc
    1208:	0402000b 	streq	r0, [r2], #-11
    120c:	054b0601 	strbeq	r0, [fp, #-1537]	; 0xfffff9ff
    1210:	04020004 	streq	r0, [r2], #-4
    1214:	00010601 	andeq	r0, r1, r1, lsl #12
    1218:	4a010402 	bmi	42228 <__bss_end__+0x382c8>
    121c:	01040200 	mrseq	r0, R12_usr
    1220:	02004e06 	andeq	r4, r0, #6, 28	; 0x60
    1224:	00010104 	andeq	r0, r1, r4, lsl #2
    1228:	01010402 	tsteq	r1, r2, lsl #8
    122c:	01040200 	mrseq	r0, R12_usr
    1230:	04020001 	streq	r0, [r2], #-1
    1234:	02002e01 	andeq	r2, r0, #1, 28
    1238:	059e0104 	ldreq	r0, [lr, #260]	; 0x104
    123c:	7fa80348 	svcvc	0x00a80348
    1240:	130505f2 	movwne	r0, #22002	; 0x55f2
    1244:	002e0601 	eoreq	r0, lr, r1, lsl #12
    1248:	06020402 	streq	r0, [r2], -r2, lsl #8
    124c:	0402002e 	streq	r0, [r2], #-46	; 0xffffffd2
    1250:	02000102 	andeq	r0, r0, #-2147483648	; 0x80000000
    1254:	05130204 	ldreq	r0, [r3, #-516]	; 0xfffffdfc
    1258:	04020011 	streq	r0, [r2], #-17	; 0xffffffef
    125c:	05010602 	streq	r0, [r1, #-1538]	; 0xfffff9fe
    1260:	04020005 	streq	r0, [r2], #-5
    1264:	054b0602 	strbeq	r0, [fp, #-1538]	; 0xfffff9fe
    1268:	04020007 	streq	r0, [r2], #-7
    126c:	05010602 	streq	r0, [r1, #-1538]	; 0xfffff9fe
    1270:	052f0609 	streq	r0, [pc, #-1545]!	; c6f <_start-0x7391>
    1274:	0501060e 	streq	r0, [r1, #-1550]	; 0xfffff9f2
    1278:	04020048 	streq	r0, [r2], #-72	; 0xffffffb8
    127c:	05056201 	streq	r6, [r5, #-513]	; 0xfffffdff
    1280:	01040200 	mrseq	r0, R12_usr
    1284:	02002f06 	andeq	r2, r0, #6, 30
    1288:	00010104 	andeq	r0, r1, r4, lsl #2
    128c:	2e010402 	cdpcs	4, 0, cr0, cr1, cr2, {0}
    1290:	01040200 	mrseq	r0, R12_usr
    1294:	0340059e 	movteq	r0, #1438	; 0x59e
    1298:	06ba00df 	ssateq	r0, #27, pc, asr #1	; <UNPREDICTABLE>
    129c:	06020501 	streq	r0, [r2], -r1, lsl #10
    12a0:	061e059f 			; <UNDEFINED> instruction: 0x061e059f
    12a4:	2e120501 	cfmul32cs	mvfx0, mvfx2, mvfx1
    12a8:	30060205 	andcc	r0, r6, r5, lsl #4
    12ac:	01060905 	tsteq	r6, r5, lsl #18
    12b0:	4b060205 	blmi	181acc <__bss_end__+0x177b6c>
    12b4:	0f060805 	svceq	0x00060805
    12b8:	05310205 	ldreq	r0, [r1, #-517]!	; 0xfffffdfb
    12bc:	05300604 	ldreq	r0, [r0, #-1540]!	; 0xfffff9fc
    12c0:	0501060f 	streq	r0, [r1, #-1551]	; 0xfffff9f1
    12c4:	08052e09 	stmdaeq	r5, {r0, r3, r9, sl, fp, sp}
    12c8:	02052c06 	andeq	r2, r5, #1536	; 0x600
    12cc:	0d052e06 	stceq	14, cr2, [r5, #-24]	; 0xffffffe8
    12d0:	01040200 	mrseq	r0, R12_usr
    12d4:	0603054a 	streq	r0, [r3], -sl, asr #10
    12d8:	0605054b 	streq	r0, [r5], -fp, asr #10
    12dc:	06080501 	streq	r0, [r8], -r1, lsl #10
    12e0:	060e054d 	streq	r0, [lr], -sp, asr #10
    12e4:	2e0a0501 	cfsh32cs	mvfx0, mvfx10, #1
    12e8:	2f060405 	svccs	0x00060405
    12ec:	01060905 	tsteq	r6, r5, lsl #18
    12f0:	2f060405 	svccs	0x00060405
    12f4:	01060705 	tsteq	r6, r5, lsl #14
    12f8:	0604052e 	streq	r0, [r4], -lr, lsr #10
    12fc:	06070530 			; <UNDEFINED> instruction: 0x06070530
    1300:	06040501 	streq	r0, [r4], -r1, lsl #10
    1304:	05141330 	ldreq	r1, [r4, #-816]	; 0xfffffcd0
    1308:	0510060d 	ldreq	r0, [r0, #-1549]	; 0xfffff9f3
    130c:	05053009 	streq	r3, [r5, #-9]
    1310:	12052f06 	andne	r2, r5, #6, 30
    1314:	16050106 	strne	r0, [r5], -r6, lsl #2
    1318:	2e0b052e 	cfsh32cs	mvfx0, mvfx11, #30
    131c:	2f060505 	svccs	0x00060505
    1320:	01060805 	tsteq	r6, r5, lsl #16
    1324:	2c060905 			; <UNDEFINED> instruction: 0x2c060905
    1328:	01061205 	tsteq	r6, r5, lsl #4
    132c:	052e0a05 	streq	r0, [lr, #-2565]!	; 0xfffff5fb
    1330:	04054a09 	streq	r4, [r5], #-2569	; 0xfffff5f7
    1334:	4a014e06 	bmi	54b54 <__bss_end__+0x4abf4>
    1338:	02001401 	andeq	r1, r0, #16777216	; 0x1000000
    133c:	36020104 	strcc	r0, [r2], -r4, lsl #2
    1340:	04020010 	streq	r0, [r2], #-16
    1344:	02000101 	andeq	r0, r0, #1073741824	; 0x40000000
    1348:	002e0104 	eoreq	r0, lr, r4, lsl #2
    134c:	9e010402 	cdpls	4, 0, cr0, cr1, cr2, {0}
    1350:	01340505 	teqeq	r4, r5, lsl #10
    1354:	032e9e2e 			; <UNDEFINED> instruction: 0x032e9e2e
    1358:	0905010e 	stmdbeq	r5, {r1, r2, r3, r8}
    135c:	05050106 	streq	r0, [r5, #-262]	; 0xfffffefa
    1360:	05590806 	ldrbeq	r0, [r9, #-2054]	; 0xfffff7fa
    1364:	01150304 	tsteq	r5, r4, lsl #6
    1368:	01060705 	tsteq	r6, r5, lsl #14
    136c:	31060405 	tstcc	r6, r5, lsl #8
    1370:	05010a05 	streq	r0, [r1, #-2565]	; 0xfffff5fb
    1374:	05010604 	streq	r0, [r1, #-1540]	; 0xfffff9fc
    1378:	04020013 	streq	r0, [r2], #-19	; 0xffffffed
    137c:	10054a01 	andne	r4, r5, r1, lsl #20
    1380:	01040200 	mrseq	r0, R12_usr
    1384:	0605052e 	streq	r0, [r5], -lr, lsr #10
    1388:	060e054b 	streq	r0, [lr], -fp, asr #10
    138c:	2e0a0501 	cfsh32cs	mvfx0, mvfx10, #1
    1390:	0605052e 	streq	r0, [r5], -lr, lsr #10
    1394:	052e6903 	streq	r6, [lr, #-2307]!	; 0xfffff6fd
    1398:	0501061c 	streq	r0, [r1, #-1564]	; 0xfffff9e4
    139c:	05058209 	streq	r8, [r5, #-521]	; 0xfffffdf7
    13a0:	0531d706 	ldreq	sp, [r1, #-1798]!	; 0xfffff8fa
    13a4:	0501061c 	streq	r0, [r1, #-1564]	; 0xfffff9e4
    13a8:	05058209 	streq	r8, [r5, #-521]	; 0xfffffdf7
    13ac:	0530d706 	ldreq	sp, [r0, #-1798]!	; 0xfffff8fa
    13b0:	0501061b 	streq	r0, [r1, #-1563]	; 0xfffff9e5
    13b4:	05058209 	streq	r8, [r5, #-521]	; 0xfffffdf7
    13b8:	0530d706 	ldreq	sp, [r0, #-1798]!	; 0xfffff8fa
    13bc:	05010607 	streq	r0, [r1, #-1543]	; 0xfffff9f9
    13c0:	30830605 	addcc	r0, r3, r5, lsl #12
    13c4:	01060905 	tsteq	r6, r5, lsl #18
    13c8:	08060505 	stmdaeq	r6, {r0, r2, r8, sl}
    13cc:	2e013059 	mcrcs	0, 0, r3, cr1, cr9, {2}
    13d0:	052e06d6 	streq	r0, [lr, #-1750]!	; 0xfffff92a
    13d4:	0a030602 	beq	c2be4 <__bss_end__+0xb8c84>
    13d8:	06070501 	streq	r0, [r7], -r1, lsl #10
    13dc:	06020501 	streq	r0, [r2], -r1, lsl #10
    13e0:	0601054b 	streq	r0, [r1], -fp, asr #10
    13e4:	0a026613 	beq	9ac38 <__bss_end__+0x90cd8>
    13e8:	eb010100 	bl	417f0 <__bss_end__+0x37890>
    13ec:	03000000 	movweq	r0, #0
    13f0:	0000d100 	andeq	sp, r0, r0, lsl #2
    13f4:	fb010200 	blx	41bfe <__bss_end__+0x37c9e>
    13f8:	01000d0e 	tsteq	r0, lr, lsl #26
    13fc:	00010101 	andeq	r0, r1, r1, lsl #2
    1400:	00010000 	andeq	r0, r1, r0
    1404:	74730100 	ldrbtvc	r0, [r3], #-256	; 0xffffff00
    1408:	2d666661 	stclcs	6, cr6, [r6, #-388]!	; 0xfffffe7c
    140c:	00637273 	rsbeq	r7, r3, r3, ror r2
    1410:	7273752f 	rsbsvc	r7, r3, #197132288	; 0xbc00000
    1414:	6d72612f 	ldfvse	f6, [r2, #-188]!	; 0xffffff44
    1418:	6e6f6e2d 	cdpvs	14, 6, cr6, cr15, cr13, {1}
    141c:	61652d65 	cmnvs	r5, r5, ror #26
    1420:	692f6962 	stmdbvs	pc!, {r1, r5, r6, r8, fp, sp, lr}	; <UNPREDICTABLE>
    1424:	756c636e 	strbvc	r6, [ip, #-878]!	; 0xfffffc92
    1428:	732f6564 			; <UNDEFINED> instruction: 0x732f6564
    142c:	2f007379 	svccs	0x00007379
    1430:	2f727375 	svccs	0x00727375
    1434:	2f62696c 	svccs	0x0062696c
    1438:	2f636367 	svccs	0x00636367
    143c:	2d6d7261 	sfmcs	f7, 2, [sp, #-388]!	; 0xfffffe7c
    1440:	656e6f6e 	strbvs	r6, [lr, #-3950]!	; 0xfffff092
    1444:	6261652d 	rsbvs	r6, r1, #188743680	; 0xb400000
    1448:	2e392f69 	cdpcs	15, 3, cr2, cr9, cr9, {3}
    144c:	2f302e32 	svccs	0x00302e32
    1450:	6c636e69 	stclvs	14, cr6, [r3], #-420	; 0xfffffe5c
    1454:	00656475 	rsbeq	r6, r5, r5, ror r4
    1458:	6d6f682f 	stclvs	8, cr6, [pc, #-188]!	; 13a4 <_start-0x6c5c>
    145c:	73752f65 	cmnvc	r5, #404	; 0x194
    1460:	442f7265 	strtmi	r7, [pc], #-613	; 1468 <_start-0x6b98>
    1464:	432f7665 			; <UNDEFINED> instruction: 0x432f7665
    1468:	30343253 	eorscc	r3, r4, r3, asr r2
    146c:	696c2f58 	stmdbvs	ip!, {r3, r4, r6, r8, r9, sl, fp, sp}^
    1470:	2f697062 	svccs	0x00697062
    1474:	6c636e69 	stclvs	14, cr6, [r3], #-420	; 0xfffffe5c
    1478:	00656475 	rsbeq	r6, r5, r5, ror r4
    147c:	656c6300 	strbvs	r6, [ip, #-768]!	; 0xfffffd00
    1480:	722d6e61 	eorvc	r6, sp, #1552	; 0x610
    1484:	6f6f6265 	svcvs	0x006f6265
    1488:	00632e74 	rsbeq	r2, r3, r4, ror lr
    148c:	6c000001 	stcvs	0, cr0, [r0], {1}
    1490:	2e6b636f 	cdpcs	3, 6, cr6, cr11, cr15, {3}
    1494:	00020068 	andeq	r0, r2, r8, rrx
    1498:	79745f00 	ldmdbvc	r4!, {r8, r9, sl, fp, ip, lr}^
    149c:	2e736570 	mrccs	5, 3, r6, cr3, cr0, {3}
    14a0:	00020068 	andeq	r0, r2, r8, rrx
    14a4:	64747300 	ldrbtvs	r7, [r4], #-768	; 0xfffffd00
    14a8:	2e666564 	cdpcs	5, 6, cr6, cr6, cr4, {3}
    14ac:	00030068 	andeq	r0, r3, r8, rrx
    14b0:	65657200 	strbvs	r7, [r5, #-512]!	; 0xfffffe00
    14b4:	682e746e 	stmdavs	lr!, {r1, r2, r3, r5, r6, sl, ip, sp, lr}
    14b8:	00000200 	andeq	r0, r0, r0, lsl #4
    14bc:	2e697072 	mcrcs	0, 3, r7, cr9, cr2, {3}
    14c0:	00040068 	andeq	r0, r4, r8, rrx
    14c4:	19050000 	stmdbne	r5, {}	; <UNPREDICTABLE>
    14c8:	e0020500 	and	r0, r2, r0, lsl #10
    14cc:	1500008f 	strne	r0, [r0, #-143]	; 0xffffff71
    14d0:	832f0505 			; <UNDEFINED> instruction: 0x832f0505
    14d4:	0006024b 	andeq	r0, r6, fp, asr #4
    14d8:	01040101 	tsteq	r4, r1, lsl #2
    14dc:	00030000 	andeq	r0, r3, r0
    14e0:	000000cb 	andeq	r0, r0, fp, asr #1
    14e4:	0efb0102 	cdpeq	1, 15, cr0, cr11, cr2, {0}
    14e8:	0101000d 	tsteq	r1, sp
    14ec:	00000101 	andeq	r0, r0, r1, lsl #2
    14f0:	00000100 	andeq	r0, r0, r0, lsl #2
    14f4:	61747301 	cmnvs	r4, r1, lsl #6
    14f8:	732d6666 			; <UNDEFINED> instruction: 0x732d6666
    14fc:	2f006372 	svccs	0x00006372
    1500:	2f727375 	svccs	0x00727375
    1504:	2d6d7261 	sfmcs	f7, 2, [sp, #-388]!	; 0xfffffe7c
    1508:	656e6f6e 	strbvs	r6, [lr, #-3950]!	; 0xfffff092
    150c:	6261652d 	rsbvs	r6, r1, #188743680	; 0xb400000
    1510:	6e692f69 	cdpvs	15, 6, cr2, cr9, cr9, {3}
    1514:	64756c63 	ldrbtvs	r6, [r5], #-3171	; 0xfffff39d
    1518:	79732f65 	ldmdbvc	r3!, {r0, r2, r5, r6, r8, r9, sl, fp, sp}^
    151c:	752f0073 	strvc	r0, [pc, #-115]!	; 14b1 <_start-0x6b4f>
    1520:	6c2f7273 	sfmvs	f7, 4, [pc], #-460	; 135c <_start-0x6ca4>
    1524:	672f6269 	strvs	r6, [pc, -r9, ror #4]!
    1528:	612f6363 			; <UNDEFINED> instruction: 0x612f6363
    152c:	6e2d6d72 	mcrvs	13, 1, r6, cr13, cr2, {3}
    1530:	2d656e6f 	stclcs	14, cr6, [r5, #-444]!	; 0xfffffe44
    1534:	69626165 	stmdbvs	r2!, {r0, r2, r5, r6, r8, sp, lr}^
    1538:	322e392f 	eorcc	r3, lr, #770048	; 0xbc000
    153c:	692f302e 	stmdbvs	pc!, {r1, r2, r3, r5, ip, sp}	; <UNPREDICTABLE>
    1540:	756c636e 	strbvc	r6, [ip, #-878]!	; 0xfffffc92
    1544:	2f006564 	svccs	0x00006564
    1548:	656d6f68 	strbvs	r6, [sp, #-3944]!	; 0xfffff098
    154c:	6573752f 	ldrbvs	r7, [r3, #-1327]!	; 0xfffffad1
    1550:	65442f72 	strbvs	r2, [r4, #-3954]	; 0xfffff08e
    1554:	53432f76 	movtpl	r2, #16246	; 0x3f76
    1558:	58303432 	ldmdapl	r0!, {r1, r4, r5, sl, ip, sp}
    155c:	62696c2f 	rsbvs	r6, r9, #12032	; 0x2f00
    1560:	692f6970 	stmdbvs	pc!, {r4, r5, r6, r8, fp, sp, lr}	; <UNPREDICTABLE>
    1564:	756c636e 	strbvc	r6, [ip, #-878]!	; 0xfffffc92
    1568:	00006564 	andeq	r6, r0, r4, ror #10
    156c:	61747363 	cmnvs	r4, r3, ror #6
    1570:	632e7472 			; <UNDEFINED> instruction: 0x632e7472
    1574:	00000100 	andeq	r0, r0, r0, lsl #2
    1578:	6b636f6c 	blvs	18dd330 <__bss_end__+0x18d33d0>
    157c:	0200682e 	andeq	r6, r0, #3014656	; 0x2e0000
    1580:	745f0000 	ldrbvc	r0, [pc], #-0	; 1588 <_start-0x6a78>
    1584:	73657079 	cmnvc	r5, #121	; 0x79
    1588:	0200682e 	andeq	r6, r0, #3014656	; 0x2e0000
    158c:	74730000 	ldrbtvc	r0, [r3], #-0
    1590:	66656464 	strbtvs	r6, [r5], -r4, ror #8
    1594:	0300682e 	movweq	r6, #2094	; 0x82e
    1598:	65720000 	ldrbvs	r0, [r2, #-0]!
    159c:	2e746e65 	cdpcs	14, 7, cr6, cr4, cr5, {3}
    15a0:	00020068 	andeq	r0, r2, r8, rrx
    15a4:	69707200 	ldmdbvs	r0!, {r9, ip, sp, lr}^
    15a8:	0400682e 	streq	r6, [r0], #-2094	; 0xfffff7d2
    15ac:	05000000 	streq	r0, [r0, #-0]
    15b0:	02050010 	andeq	r0, r5, #16
    15b4:	00009008 	andeq	r9, r0, r8
    15b8:	05010c03 	streq	r0, [r1, #-3075]	; 0xfffff3fd
    15bc:	02052f05 	andeq	r2, r5, #5, 30
    15c0:	14050513 	strne	r0, [r5], #-1299	; 0xfffffaed
    15c4:	0a051413 	beq	146618 <__bss_end__+0x13c6b8>
    15c8:	31060f06 	tstcc	r6, r6, lsl #30
    15cc:	054b0905 	strbeq	r0, [fp, #-2309]	; 0xfffff6fb
    15d0:	4a010610 	bmi	42e18 <__bss_end__+0x38eb8>
    15d4:	03060505 	movweq	r0, #25861	; 0x6505
    15d8:	02052e14 	andeq	r2, r5, #20, 28	; 0x140
    15dc:	0006022f 	andeq	r0, r6, pc, lsr #4
    15e0:	01380101 	teqeq	r8, r1, lsl #2
    15e4:	00030000 	andeq	r0, r3, r0
    15e8:	000000cb 	andeq	r0, r0, fp, asr #1
    15ec:	0efb0102 	cdpeq	1, 15, cr0, cr11, cr2, {0}
    15f0:	0101000d 	tsteq	r1, sp
    15f4:	00000101 	andeq	r0, r0, r1, lsl #2
    15f8:	00000100 	andeq	r0, r0, r0, lsl #2
    15fc:	61747301 	cmnvs	r4, r1, lsl #6
    1600:	732d6666 			; <UNDEFINED> instruction: 0x732d6666
    1604:	2f006372 	svccs	0x00006372
    1608:	2f727375 	svccs	0x00727375
    160c:	2d6d7261 	sfmcs	f7, 2, [sp, #-388]!	; 0xfffffe7c
    1610:	656e6f6e 	strbvs	r6, [lr, #-3950]!	; 0xfffff092
    1614:	6261652d 	rsbvs	r6, r1, #188743680	; 0xb400000
    1618:	6e692f69 	cdpvs	15, 6, cr2, cr9, cr9, {3}
    161c:	64756c63 	ldrbtvs	r6, [r5], #-3171	; 0xfffff39d
    1620:	79732f65 	ldmdbvc	r3!, {r0, r2, r5, r6, r8, r9, sl, fp, sp}^
    1624:	752f0073 	strvc	r0, [pc, #-115]!	; 15b9 <_start-0x6a47>
    1628:	6c2f7273 	sfmvs	f7, 4, [pc], #-460	; 1464 <_start-0x6b9c>
    162c:	672f6269 	strvs	r6, [pc, -r9, ror #4]!
    1630:	612f6363 			; <UNDEFINED> instruction: 0x612f6363
    1634:	6e2d6d72 	mcrvs	13, 1, r6, cr13, cr2, {3}
    1638:	2d656e6f 	stclcs	14, cr6, [r5, #-444]!	; 0xfffffe44
    163c:	69626165 	stmdbvs	r2!, {r0, r2, r5, r6, r8, sp, lr}^
    1640:	322e392f 	eorcc	r3, lr, #770048	; 0xbc000
    1644:	692f302e 	stmdbvs	pc!, {r1, r2, r3, r5, ip, sp}	; <UNPREDICTABLE>
    1648:	756c636e 	strbvc	r6, [ip, #-878]!	; 0xfffffc92
    164c:	2f006564 	svccs	0x00006564
    1650:	656d6f68 	strbvs	r6, [sp, #-3944]!	; 0xfffff098
    1654:	6573752f 	ldrbvs	r7, [r3, #-1327]!	; 0xfffffad1
    1658:	65442f72 	strbvs	r2, [r4, #-3954]	; 0xfffff08e
    165c:	53432f76 	movtpl	r2, #16246	; 0x3f76
    1660:	58303432 	ldmdapl	r0!, {r1, r4, r5, sl, ip, sp}
    1664:	62696c2f 	rsbvs	r6, r9, #12032	; 0x2f00
    1668:	692f6970 	stmdbvs	pc!, {r4, r5, r6, r8, fp, sp, lr}	; <UNPREDICTABLE>
    166c:	756c636e 	strbvc	r6, [ip, #-878]!	; 0xfffffc92
    1670:	00006564 	andeq	r6, r0, r4, ror #10
    1674:	6f626572 	svcvs	0x00626572
    1678:	632e746f 			; <UNDEFINED> instruction: 0x632e746f
    167c:	00000100 	andeq	r0, r0, r0, lsl #2
    1680:	6b636f6c 	blvs	18dd438 <__bss_end__+0x18d34d8>
    1684:	0200682e 	andeq	r6, r0, #3014656	; 0x2e0000
    1688:	745f0000 	ldrbvc	r0, [pc], #-0	; 1690 <_start-0x6970>
    168c:	73657079 	cmnvc	r5, #121	; 0x79
    1690:	0200682e 	andeq	r6, r0, #3014656	; 0x2e0000
    1694:	74730000 	ldrbtvc	r0, [r3], #-0
    1698:	66656464 	strbtvs	r6, [r5], -r4, ror #8
    169c:	0300682e 	movweq	r6, #2094	; 0x82e
    16a0:	65720000 	ldrbvs	r0, [r2, #-0]!
    16a4:	2e746e65 	cdpcs	14, 7, cr6, cr4, cr5, {3}
    16a8:	00020068 	andeq	r0, r2, r8, rrx
    16ac:	69707200 	ldmdbvs	r0!, {r9, ip, sp, lr}^
    16b0:	0400682e 	streq	r6, [r0], #-2094	; 0xfffff7d2
    16b4:	05000000 	streq	r0, [r0, #-0]
    16b8:	02050019 	andeq	r0, r5, #25
    16bc:	00009034 	andeq	r9, r0, r4, lsr r0
    16c0:	05010d03 	streq	r0, [r1, #-3331]	; 0xfffff2fd
    16c4:	31131305 	tstcc	r3, r5, lsl #6
    16c8:	01061305 	tsteq	r6, r5, lsl #6
    16cc:	052f0105 	streq	r0, [pc, #-261]!	; 15cf <_start-0x6a31>
    16d0:	0585061b 	streq	r0, [r5, #1563]	; 0x61b
    16d4:	05141305 	ldreq	r1, [r4, #-773]	; 0xfffffcfb
    16d8:	16052f09 	strne	r2, [r5], -r9, lsl #30
    16dc:	0e050106 	adfeqs	f0, f5, f6
    16e0:	0605052e 	streq	r0, [r5], -lr, lsr #10
    16e4:	0601052f 	streq	r0, [r1], -pc, lsr #10
    16e8:	0617052f 	ldreq	r0, [r7], -pc, lsr #10
    16ec:	2f050530 	svccs	0x00050530
    16f0:	01060805 	tsteq	r6, r5, lsl #16
    16f4:	052e0705 	streq	r0, [lr, #-1797]!	; 0xfffff8fb
    16f8:	4c520605 	mrrcmi	6, 0, r0, r2, cr5
    16fc:	15131313 	ldrne	r1, [r3, #-787]	; 0xfffffced
    1700:	04020067 	streq	r0, [r2], #-103	; 0xffffff99
    1704:	0d056701 	stceq	7, cr6, [r5, #-4]
    1708:	01040200 	mrseq	r0, R12_usr
    170c:	000a0501 	andeq	r0, sl, r1, lsl #10
    1710:	01010402 	tsteq	r1, r2, lsl #8
    1714:	6f030905 	svcvs	0x00030905
    1718:	000c022e 	andeq	r0, ip, lr, lsr #4
    171c:	015a0101 	cmpeq	sl, r1, lsl #2
    1720:	00030000 	andeq	r0, r3, r0
    1724:	000000ca 	andeq	r0, r0, sl, asr #1
    1728:	0efb0102 	cdpeq	1, 15, cr0, cr11, cr2, {0}
    172c:	0101000d 	tsteq	r1, sp
    1730:	00000101 	andeq	r0, r0, r1, lsl #2
    1734:	00000100 	andeq	r0, r0, r0, lsl #2
    1738:	61747301 	cmnvs	r4, r1, lsl #6
    173c:	732d6666 			; <UNDEFINED> instruction: 0x732d6666
    1740:	2f006372 	svccs	0x00006372
    1744:	2f727375 	svccs	0x00727375
    1748:	2d6d7261 	sfmcs	f7, 2, [sp, #-388]!	; 0xfffffe7c
    174c:	656e6f6e 	strbvs	r6, [lr, #-3950]!	; 0xfffff092
    1750:	6261652d 	rsbvs	r6, r1, #188743680	; 0xb400000
    1754:	6e692f69 	cdpvs	15, 6, cr2, cr9, cr9, {3}
    1758:	64756c63 	ldrbtvs	r6, [r5], #-3171	; 0xfffff39d
    175c:	79732f65 	ldmdbvc	r3!, {r0, r2, r5, r6, r8, r9, sl, fp, sp}^
    1760:	752f0073 	strvc	r0, [pc, #-115]!	; 16f5 <_start-0x690b>
    1764:	6c2f7273 	sfmvs	f7, 4, [pc], #-460	; 15a0 <_start-0x6a60>
    1768:	672f6269 	strvs	r6, [pc, -r9, ror #4]!
    176c:	612f6363 			; <UNDEFINED> instruction: 0x612f6363
    1770:	6e2d6d72 	mcrvs	13, 1, r6, cr13, cr2, {3}
    1774:	2d656e6f 	stclcs	14, cr6, [r5, #-444]!	; 0xfffffe44
    1778:	69626165 	stmdbvs	r2!, {r0, r2, r5, r6, r8, sp, lr}^
    177c:	322e392f 	eorcc	r3, lr, #770048	; 0xbc000
    1780:	692f302e 	stmdbvs	pc!, {r1, r2, r3, r5, ip, sp}	; <UNPREDICTABLE>
    1784:	756c636e 	strbvc	r6, [ip, #-878]!	; 0xfffffc92
    1788:	2f006564 	svccs	0x00006564
    178c:	656d6f68 	strbvs	r6, [sp, #-3944]!	; 0xfffff098
    1790:	6573752f 	ldrbvs	r7, [r3, #-1327]!	; 0xfffffad1
    1794:	65442f72 	strbvs	r2, [r4, #-3954]	; 0xfffff08e
    1798:	53432f76 	movtpl	r2, #16246	; 0x3f76
    179c:	58303432 	ldmdapl	r0!, {r1, r4, r5, sl, ip, sp}
    17a0:	62696c2f 	rsbvs	r6, r9, #12032	; 0x2f00
    17a4:	692f6970 	stmdbvs	pc!, {r4, r5, r6, r8, fp, sp, lr}	; <UNPREDICTABLE>
    17a8:	756c636e 	strbvc	r6, [ip, #-878]!	; 0xfffffc92
    17ac:	00006564 	andeq	r6, r0, r4, ror #10
    17b0:	656d6974 	strbvs	r6, [sp, #-2420]!	; 0xfffff68c
    17b4:	00632e72 	rsbeq	r2, r3, r2, ror lr
    17b8:	6c000001 	stcvs	0, cr0, [r0], {1}
    17bc:	2e6b636f 	cdpcs	3, 6, cr6, cr11, cr15, {3}
    17c0:	00020068 	andeq	r0, r2, r8, rrx
    17c4:	79745f00 	ldmdbvc	r4!, {r8, r9, sl, fp, ip, lr}^
    17c8:	2e736570 	mrccs	5, 3, r6, cr3, cr0, {3}
    17cc:	00020068 	andeq	r0, r2, r8, rrx
    17d0:	64747300 	ldrbtvs	r7, [r4], #-768	; 0xfffffd00
    17d4:	2e666564 	cdpcs	5, 6, cr6, cr6, cr4, {3}
    17d8:	00030068 	andeq	r0, r3, r8, rrx
    17dc:	65657200 	strbvs	r7, [r5, #-512]!	; 0xfffffe00
    17e0:	682e746e 	stmdavs	lr!, {r1, r2, r3, r5, r6, sl, ip, sp, lr}
    17e4:	00000200 	andeq	r0, r0, r0, lsl #4
    17e8:	2e697072 	mcrcs	0, 3, r7, cr9, cr2, {3}
    17ec:	00040068 	andeq	r0, r4, r8, rrx
    17f0:	23050000 	movwcs	r0, #20480	; 0x5000
    17f4:	ac020500 	cfstr32ge	mvfx0, [r2], {-0}
    17f8:	16000090 			; <UNDEFINED> instruction: 0x16000090
    17fc:	05140505 	ldreq	r0, [r4, #-1285]	; 0xfffffafb
    1800:	1005010a 	andne	r0, r5, sl, lsl #2
    1804:	0a050106 	beq	141c24 <__bss_end__+0x137cc4>
    1808:	0609052e 	streq	r0, [r9], -lr, lsr #10
    180c:	0610054b 	ldreq	r0, [r0], -fp, asr #10
    1810:	0623052d 	strteq	r0, [r3], -sp, lsr #10
    1814:	054a0a03 	strbeq	r0, [sl, #-2563]	; 0xfffff5fd
    1818:	0c052f05 	stceq	15, cr2, [r5], {5}
    181c:	01050106 	tsteq	r5, r6, lsl #2
    1820:	061f054b 	ldreq	r0, [pc], -fp, asr #10
    1824:	3205054d 	andcc	r0, r5, #322961408	; 0x13400000
    1828:	01061205 	tsteq	r6, r5, lsl #4
    182c:	30060505 	andcc	r0, r6, r5, lsl #10
    1830:	13060105 	movwne	r0, #24837	; 0x6105
    1834:	30061c05 	andcc	r1, r6, r5, lsl #24
    1838:	05050106 	streq	r0, [r5, #-262]	; 0xfffffefa
    183c:	13054b06 	movwne	r4, #23302	; 0x5b06
    1840:	052e0106 	streq	r0, [lr, #-262]!	; 0xfffffefa
    1844:	052f0605 	streq	r0, [pc, #-1541]!	; 1247 <_start-0x6db9>
    1848:	17051309 	strne	r1, [r5, -r9, lsl #6]
    184c:	09050106 	stmdbeq	r5, {r1, r2, r8}
    1850:	11052f06 	tstne	r5, r6, lsl #30
    1854:	0c050106 	stfeqs	f0, [r5], {6}
    1858:	061c052e 	ldreq	r0, [ip], -lr, lsr #10
    185c:	0501066b 	streq	r0, [r1, #-1643]	; 0xfffff995
    1860:	062f0605 	strteq	r0, [pc], -r5, lsl #12
    1864:	4b01054a 	blmi	42d94 <__bss_end__+0x38e34>
    1868:	2f061e05 	svccs	0x00061e05
    186c:	05050106 	streq	r0, [r5, #-262]	; 0xfffffefa
    1870:	4a062f06 	bmi	18d490 <__bss_end__+0x183530>
    1874:	024b0105 	subeq	r0, fp, #1073741825	; 0x40000001
    1878:	01010002 	tsteq	r1, r2
    187c:	00000148 	andeq	r0, r0, r8, asr #2
    1880:	01020002 	tsteq	r2, r2
    1884:	01020000 	mrseq	r0, (UNDEF: 2)
    1888:	000d0efb 	strdeq	r0, [sp], -fp
    188c:	01010101 	tsteq	r1, r1, lsl #2
    1890:	01000000 	mrseq	r0, (UNDEF: 0)
    1894:	2f010000 	svccs	0x00010000
    1898:	2f727375 	svccs	0x00727375
    189c:	6c636e69 	stclvs	14, cr6, [r3], #-420	; 0xfffffe5c
    18a0:	2f656475 	svccs	0x00656475
    18a4:	6c77656e 	cfldr64vs	mvdx6, [r7], #-440	; 0xfffffe48
    18a8:	732f6269 			; <UNDEFINED> instruction: 0x732f6269
    18ac:	2f007379 	svccs	0x00007379
    18b0:	2f727375 	svccs	0x00727375
    18b4:	2f62696c 	svccs	0x0062696c
    18b8:	2f636367 	svccs	0x00636367
    18bc:	2d6d7261 	sfmcs	f7, 2, [sp, #-388]!	; 0xfffffe7c
    18c0:	656e6f6e 	strbvs	r6, [lr, #-3950]!	; 0xfffff092
    18c4:	6261652d 	rsbvs	r6, r1, #188743680	; 0xb400000
    18c8:	2e362f69 	cdpcs	15, 3, cr2, cr6, cr9, {3}
    18cc:	2f312e33 	svccs	0x00312e33
    18d0:	6c636e69 	stclvs	14, cr6, [r3], #-420	; 0xfffffe5c
    18d4:	00656475 	rsbeq	r6, r5, r5, ror r4
    18d8:	6d6f682f 	stclvs	8, cr6, [pc, #-188]!	; 1824 <_start-0x67dc>
    18dc:	6e652f65 	cdpvs	15, 6, cr2, cr5, cr5, {3}
    18e0:	72656c67 	rsbvc	r6, r5, #26368	; 0x6700
    18e4:	616c632f 	cmnvs	ip, pc, lsr #6
    18e8:	632f7373 			; <UNDEFINED> instruction: 0x632f7373
    18ec:	30343273 	eorscc	r3, r4, r3, ror r2
    18f0:	322d786c 	eorcc	r7, sp, #108, 16	; 0x6c0000
    18f4:	72707330 	rsbsvc	r7, r0, #48, 6	; 0xc0000000
    18f8:	696c2f2f 	stmdbvs	ip!, {r0, r1, r2, r3, r5, r8, r9, sl, fp, sp}^
    18fc:	00697062 	rsbeq	r7, r9, r2, rrx
    1900:	6d6f682f 	stclvs	8, cr6, [pc, #-188]!	; 184c <_start-0x67b4>
    1904:	6e652f65 	cdpvs	15, 6, cr2, cr5, cr5, {3}
    1908:	72656c67 	rsbvc	r6, r5, #26368	; 0x6700
    190c:	616c632f 	cmnvs	ip, pc, lsr #6
    1910:	632f7373 			; <UNDEFINED> instruction: 0x632f7373
    1914:	30343273 	eorscc	r3, r4, r3, ror r2
    1918:	322d786c 	eorcc	r7, sp, #108, 16	; 0x6c0000
    191c:	72707330 	rsbsvc	r7, r0, #48, 6	; 0xc0000000
    1920:	696c2f2f 	stmdbvs	ip!, {r0, r1, r2, r3, r5, r8, r9, sl, fp, sp}^
    1924:	2f697062 	svccs	0x00697062
    1928:	66617473 			; <UNDEFINED> instruction: 0x66617473
    192c:	72732d66 	rsbsvc	r2, r3, #6528	; 0x1980
    1930:	75000063 	strvc	r0, [r0, #-99]	; 0xffffff9d
    1934:	2e747261 	cdpcs	2, 7, cr7, cr4, cr1, {3}
    1938:	00000063 	andeq	r0, r0, r3, rrx
    193c:	636f6c00 	cmnvs	pc, #0, 24
    1940:	00682e6b 	rsbeq	r2, r8, fp, ror #28
    1944:	5f000001 	svcpl	0x00000001
    1948:	65707974 	ldrbvs	r7, [r0, #-2420]!	; 0xfffff68c
    194c:	00682e73 	rsbeq	r2, r8, r3, ror lr
    1950:	73000001 	movwvc	r0, #1
    1954:	65646474 	strbvs	r6, [r4, #-1140]!	; 0xfffffb8c
    1958:	00682e66 	rsbeq	r2, r8, r6, ror #28
    195c:	72000002 	andvc	r0, r0, #2
    1960:	746e6565 	strbtvc	r6, [lr], #-1381	; 0xfffffa9b
    1964:	0100682e 	tsteq	r0, lr, lsr #16
    1968:	70720000 	rsbsvc	r0, r2, r0
    196c:	00682e69 	rsbeq	r2, r8, r9, ror #28
    1970:	75000003 	strvc	r0, [r0, #-3]
    1974:	2e747261 	cdpcs	2, 7, cr7, cr4, cr1, {3}
    1978:	00040068 	andeq	r0, r4, r8, rrx
    197c:	69706700 	ldmdbvs	r0!, {r8, r9, sl, sp, lr}^
    1980:	00682e6f 	rsbeq	r2, r8, pc, ror #28
    1984:	00000004 	andeq	r0, r0, r4
    1988:	84020500 	strhi	r0, [r2], #-1280	; 0xfffffb00
    198c:	03000091 	movweq	r0, #145	; 0x91
    1990:	0367012c 	cmneq	r7, #44, 2
    1994:	67359e0c 	ldrvs	r9, [r5, -ip, lsl #28]!
    1998:	03683568 	cmneq	r8, #104, 10	; 0x1a000000
    199c:	6b852e0c 	blvs	fe14d1d4 <__bss_end__+0xfe143274>
    19a0:	0c036969 			; <UNDEFINED> instruction: 0x0c036969
    19a4:	08676b66 	stmdaeq	r7!, {r1, r2, r5, r6, r8, r9, fp, sp, lr}^
    19a8:	4b683442 	blmi	1a0eab8 <__bss_end__+0x1a04b58>
    19ac:	2f876836 	svccs	0x00876836
    19b0:	01040200 	mrseq	r0, R12_usr
    19b4:	3067682f 	rsbcc	r6, r7, pc, lsr #16
    19b8:	02004b67 	andeq	r4, r0, #105472	; 0x19c00
    19bc:	682f0104 	stmdavs	pc!, {r2, r8}	; <UNPREDICTABLE>
    19c0:	022e6967 	eoreq	r6, lr, #1687552	; 0x19c000
    19c4:	01010006 	tsteq	r1, r6
    19c8:	0000012b 	andeq	r0, r0, fp, lsr #2
    19cc:	00f80002 	rscseq	r0, r8, r2
    19d0:	01020000 	mrseq	r0, (UNDEF: 2)
    19d4:	000d0efb 	strdeq	r0, [sp], -fp
    19d8:	01010101 	tsteq	r1, r1, lsl #2
    19dc:	01000000 	mrseq	r0, (UNDEF: 0)
    19e0:	2f010000 	svccs	0x00010000
    19e4:	2f727375 	svccs	0x00727375
    19e8:	6c636e69 	stclvs	14, cr6, [r3], #-420	; 0xfffffe5c
    19ec:	2f656475 	svccs	0x00656475
    19f0:	6c77656e 	cfldr64vs	mvdx6, [r7], #-440	; 0xfffffe48
    19f4:	732f6269 			; <UNDEFINED> instruction: 0x732f6269
    19f8:	2f007379 	svccs	0x00007379
    19fc:	2f727375 	svccs	0x00727375
    1a00:	2f62696c 	svccs	0x0062696c
    1a04:	2f636367 	svccs	0x00636367
    1a08:	2d6d7261 	sfmcs	f7, 2, [sp, #-388]!	; 0xfffffe7c
    1a0c:	656e6f6e 	strbvs	r6, [lr, #-3950]!	; 0xfffff092
    1a10:	6261652d 	rsbvs	r6, r1, #188743680	; 0xb400000
    1a14:	2e362f69 	cdpcs	15, 3, cr2, cr6, cr9, {3}
    1a18:	2f312e33 	svccs	0x00312e33
    1a1c:	6c636e69 	stclvs	14, cr6, [r3], #-420	; 0xfffffe5c
    1a20:	00656475 	rsbeq	r6, r5, r5, ror r4
    1a24:	6d6f682f 	stclvs	8, cr6, [pc, #-188]!	; 1970 <_start-0x6690>
    1a28:	6e652f65 	cdpvs	15, 6, cr2, cr5, cr5, {3}
    1a2c:	72656c67 	rsbvc	r6, r5, #26368	; 0x6700
    1a30:	616c632f 	cmnvs	ip, pc, lsr #6
    1a34:	632f7373 			; <UNDEFINED> instruction: 0x632f7373
    1a38:	30343273 	eorscc	r3, r4, r3, ror r2
    1a3c:	322d786c 	eorcc	r7, sp, #108, 16	; 0x6c0000
    1a40:	72707330 	rsbsvc	r7, r0, #48, 6	; 0xc0000000
    1a44:	696c2f2f 	stmdbvs	ip!, {r0, r1, r2, r3, r5, r8, r9, sl, fp, sp}^
    1a48:	00697062 	rsbeq	r7, r9, r2, rrx
    1a4c:	6d6f682f 	stclvs	8, cr6, [pc, #-188]!	; 1998 <_start-0x6668>
    1a50:	6e652f65 	cdpvs	15, 6, cr2, cr5, cr5, {3}
    1a54:	72656c67 	rsbvc	r6, r5, #26368	; 0x6700
    1a58:	616c632f 	cmnvs	ip, pc, lsr #6
    1a5c:	632f7373 			; <UNDEFINED> instruction: 0x632f7373
    1a60:	30343273 	eorscc	r3, r4, r3, ror r2
    1a64:	322d786c 	eorcc	r7, sp, #108, 16	; 0x6c0000
    1a68:	72707330 	rsbsvc	r7, r0, #48, 6	; 0xc0000000
    1a6c:	696c2f2f 	stmdbvs	ip!, {r0, r1, r2, r3, r5, r8, r9, sl, fp, sp}^
    1a70:	2f697062 	svccs	0x00697062
    1a74:	66617473 			; <UNDEFINED> instruction: 0x66617473
    1a78:	72732d66 	rsbsvc	r2, r3, #6528	; 0x1980
    1a7c:	67000063 	strvs	r0, [r0, -r3, rrx]
    1a80:	2e6f6970 			; <UNDEFINED> instruction: 0x2e6f6970
    1a84:	00000063 	andeq	r0, r0, r3, rrx
    1a88:	636f6c00 	cmnvs	pc, #0, 24
    1a8c:	00682e6b 	rsbeq	r2, r8, fp, ror #28
    1a90:	5f000001 	svcpl	0x00000001
    1a94:	65707974 	ldrbvs	r7, [r0, #-2420]!	; 0xfffff68c
    1a98:	00682e73 	rsbeq	r2, r8, r3, ror lr
    1a9c:	73000001 	movwvc	r0, #1
    1aa0:	65646474 	strbvs	r6, [r4, #-1140]!	; 0xfffffb8c
    1aa4:	00682e66 	rsbeq	r2, r8, r6, ror #28
    1aa8:	72000002 	andvc	r0, r0, #2
    1aac:	746e6565 	strbtvc	r6, [lr], #-1381	; 0xfffffa9b
    1ab0:	0100682e 	tsteq	r0, lr, lsr #16
    1ab4:	70720000 	rsbsvc	r0, r2, r0
    1ab8:	00682e69 	rsbeq	r2, r8, r9, ror #28
    1abc:	67000003 	strvs	r0, [r0, -r3]
    1ac0:	2e6f6970 			; <UNDEFINED> instruction: 0x2e6f6970
    1ac4:	00040068 	andeq	r0, r4, r8, rrx
    1ac8:	05000000 	streq	r0, [r0, #-0]
    1acc:	0092fc02 	addseq	pc, r2, r2, lsl #24
    1ad0:	01270300 			; <UNDEFINED> instruction: 0x01270300
    1ad4:	4f474c13 	svcmi	0x00474c13
    1ad8:	4c4b68f4 	mcrrmi	8, 15, r6, fp, cr4
    1adc:	136a2fa1 	cmnne	sl, #644	; 0x284
    1ae0:	13be3149 			; <UNDEFINED> instruction: 0x13be3149
    1ae4:	2fbe3149 	svccs	0x00be3149
    1ae8:	484d2f6a 	stmdami	sp, {r1, r3, r5, r6, r8, r9, sl, fp, sp}^
    1aec:	3249134f 	subcc	r1, r9, #1006632961	; 0x3c000001
    1af0:	0602b72f 	streq	fp, [r2], -pc, lsr #14
    1af4:	34010100 	strcc	r0, [r1], #-256	; 0xffffff00
    1af8:	02000001 	andeq	r0, r0, #1
    1afc:	0000df00 	andeq	sp, r0, r0, lsl #30
    1b00:	fb010200 	blx	4230a <__bss_end__+0x383aa>
    1b04:	01000d0e 	tsteq	r0, lr, lsl #26
    1b08:	00010101 	andeq	r0, r1, r1, lsl #2
    1b0c:	00010000 	andeq	r0, r1, r0
    1b10:	752f0100 	strvc	r0, [pc, #-256]!	; 1a18 <_start-0x65e8>
    1b14:	692f7273 	stmdbvs	pc!, {r0, r1, r4, r5, r6, r9, ip, sp, lr}	; <UNPREDICTABLE>
    1b18:	756c636e 	strbvc	r6, [ip, #-878]!	; 0xfffffc92
    1b1c:	6e2f6564 	cfsh64vs	mvdx6, mvdx15, #52
    1b20:	696c7765 	stmdbvs	ip!, {r0, r2, r5, r6, r8, r9, sl, ip, sp, lr}^
    1b24:	79732f62 	ldmdbvc	r3!, {r1, r5, r6, r8, r9, sl, fp, sp}^
    1b28:	752f0073 	strvc	r0, [pc, #-115]!	; 1abd <_start-0x6543>
    1b2c:	6c2f7273 	sfmvs	f7, 4, [pc], #-460	; 1968 <_start-0x6698>
    1b30:	672f6269 	strvs	r6, [pc, -r9, ror #4]!
    1b34:	612f6363 			; <UNDEFINED> instruction: 0x612f6363
    1b38:	6e2d6d72 	mcrvs	13, 1, r6, cr13, cr2, {3}
    1b3c:	2d656e6f 	stclcs	14, cr6, [r5, #-444]!	; 0xfffffe44
    1b40:	69626165 	stmdbvs	r2!, {r0, r2, r5, r6, r8, sp, lr}^
    1b44:	332e362f 			; <UNDEFINED> instruction: 0x332e362f
    1b48:	692f312e 	stmdbvs	pc!, {r1, r2, r3, r5, r8, ip, sp}	; <UNPREDICTABLE>
    1b4c:	756c636e 	strbvc	r6, [ip, #-878]!	; 0xfffffc92
    1b50:	2f006564 	svccs	0x00006564
    1b54:	656d6f68 	strbvs	r6, [sp, #-3944]!	; 0xfffff098
    1b58:	676e652f 	strbvs	r6, [lr, -pc, lsr #10]!
    1b5c:	2f72656c 	svccs	0x0072656c
    1b60:	73616c63 	cmnvc	r1, #25344	; 0x6300
    1b64:	73632f73 	cmnvc	r3, #460	; 0x1cc
    1b68:	6c303432 	cfldrsvs	mvf3, [r0], #-200	; 0xffffff38
    1b6c:	30322d78 	eorscc	r2, r2, r8, ror sp
    1b70:	2f727073 	svccs	0x00727073
    1b74:	62696c2f 	rsbvs	r6, r9, #12032	; 0x2f00
    1b78:	2f006970 	svccs	0x00006970
    1b7c:	2f727375 	svccs	0x00727375
    1b80:	6c636e69 	stclvs	14, cr6, [r3], #-420	; 0xfffffe5c
    1b84:	2f656475 	svccs	0x00656475
    1b88:	6c77656e 	cfldr64vs	mvdx6, [r7], #-440	; 0xfffffe48
    1b8c:	00006269 	andeq	r6, r0, r9, ror #4
    1b90:	6c616d6b 	stclvs	13, cr6, [r1], #-428	; 0xfffffe54
    1b94:	2e636f6c 	cdpcs	15, 6, cr6, cr3, cr12, {3}
    1b98:	00000063 	andeq	r0, r0, r3, rrx
    1b9c:	636f6c00 	cmnvs	pc, #0, 24
    1ba0:	00682e6b 	rsbeq	r2, r8, fp, ror #28
    1ba4:	5f000001 	svcpl	0x00000001
    1ba8:	65707974 	ldrbvs	r7, [r0, #-2420]!	; 0xfffff68c
    1bac:	00682e73 	rsbeq	r2, r8, r3, ror lr
    1bb0:	73000001 	movwvc	r0, #1
    1bb4:	65646474 	strbvs	r6, [r4, #-1140]!	; 0xfffffb8c
    1bb8:	00682e66 	rsbeq	r2, r8, r6, ror #28
    1bbc:	72000002 	andvc	r0, r0, #2
    1bc0:	746e6565 	strbtvc	r6, [lr], #-1381	; 0xfffffa9b
    1bc4:	0100682e 	tsteq	r0, lr, lsr #16
    1bc8:	70720000 	rsbsvc	r0, r2, r0
    1bcc:	00682e69 	rsbeq	r2, r8, r9, ror #28
    1bd0:	73000003 	movwvc	r0, #3
    1bd4:	6e697274 	mcrvs	2, 3, r7, cr9, cr4, {3}
    1bd8:	00682e67 	rsbeq	r2, r8, r7, ror #28
    1bdc:	00000004 	andeq	r0, r0, r4
    1be0:	1c020500 	cfstr32ne	mvfx0, [r2], {-0}
    1be4:	03000094 	movweq	r0, #148	; 0x94
    1be8:	83010110 	movwhi	r0, #4368	; 0x1110
    1bec:	83146801 	tsthi	r4, #65536	; 0x10000
    1bf0:	01040200 	mrseq	r0, R12_usr
    1bf4:	0402007f 	streq	r0, [r2], #-127	; 0xffffff81
    1bf8:	5c083001 	stcpl	0, cr3, [r8], {1}
    1bfc:	4b4c4b2f 	blmi	13148c0 <__bss_end__+0x130a960>
    1c00:	0200684b 	andeq	r6, r0, #4915200	; 0x4b0000
    1c04:	79030104 	stmdbvc	r3, {r2, r8}
    1c08:	0809034a 	stmdaeq	r9, {r1, r3, r6, r8, r9}
    1c0c:	2e012f58 	mcrcs	15, 0, r2, cr1, cr8, {2}
    1c10:	4b6a2f4e 	blmi	1a8d950 <__bss_end__+0x1a839f0>
    1c14:	2f4c6767 	svccs	0x004c6767
    1c18:	01040200 	mrseq	r0, R12_usr
    1c1c:	002e7603 	eoreq	r7, lr, r3, lsl #12
    1c20:	dc010402 	cfstrsle	mvf0, [r1], {2}
    1c24:	012f7a08 			; <UNDEFINED> instruction: 0x012f7a08
    1c28:	0802019f 	stmdaeq	r2, {r0, r1, r2, r3, r4, r7, r8}
    1c2c:	Address 0x0000000000001c2c is out of bounds.


Disassembly of section .debug_str:

00000000 <.debug_str>:
   0:	6f73645f 	svcvs	0x0073645f
   4:	6e61685f 	mcrvs	8, 3, r6, cr1, cr15, {2}
   8:	00656c64 	rsbeq	r6, r5, r4, ror #24
   c:	7a69735f 	bvc	1a5cd90 <__bss_end__+0x1a52e30>
  10:	725f0065 	subsvc	r0, pc, #101	; 0x65
  14:	34646e61 	strbtcc	r6, [r4], #-3681	; 0xfffff19f
  18:	655f0038 	ldrbvs	r0, [pc, #-56]	; ffffffe8 <__bss_end__+0xffff6088>
  1c:	6772656d 	ldrbvs	r6, [r2, -sp, ror #10]!
  20:	79636e65 	stmdbvc	r3!, {r0, r2, r5, r6, r9, sl, fp, sp, lr}^
  24:	746f6e00 	strbtvc	r6, [pc], #-3584	; 2c <_start-0x7fd4>
  28:	6e69616d 	powvsez	f6, f1, #5.0
  2c:	63775f00 	cmnvs	r7, #0, 30
  30:	6d6f7472 	cfstrdvs	mvd7, [pc, #-456]!	; fffffe70 <__bss_end__+0xffff5f10>
  34:	74735f62 	ldrbtvc	r5, [r3], #-3938	; 0xfffff09e
  38:	00657461 	rsbeq	r7, r5, r1, ror #8
  3c:	7363775f 	cmnvc	r3, #24903680	; 0x17c0000
  40:	6d6f7472 	cfstrdvs	mvd7, [pc, #-456]!	; fffffe80 <__bss_end__+0xffff5f20>
  44:	735f7362 	cmpvc	pc, #-2013265919	; 0x88000001
  48:	65746174 	ldrbvs	r6, [r4, #-372]!	; 0xfffffe8c
  4c:	6e6f6c00 	cdpvs	12, 6, cr6, cr15, cr0, {0}
  50:	6f6c2067 	svcvs	0x006c2067
  54:	7520676e 	strvc	r6, [r0, #-1902]!	; 0xfffff892
  58:	6769736e 	strbvs	r7, [r9, -lr, ror #6]!
  5c:	2064656e 	rsbcs	r6, r4, lr, ror #10
  60:	00746e69 	rsbseq	r6, r4, r9, ror #28
  64:	6c616b63 			; <UNDEFINED> instruction: 0x6c616b63
  68:	00636f6c 	rsbeq	r6, r3, ip, ror #30
  6c:	66626c5f 			; <UNDEFINED> instruction: 0x66626c5f
  70:	657a6973 	ldrbvs	r6, [sl, #-2419]!	; 0xfffff68d
  74:	6c5f5f00 	mrrcvs	15, 0, r5, pc, cr0	; <UNPREDICTABLE>
  78:	6c61636f 	stclvs	3, cr6, [r1], #-444	; 0xfffffe44
  7c:	00745f65 	rsbseq	r5, r4, r5, ror #30
  80:	72626d5f 	rsbvc	r6, r2, #6080	; 0x17c0
  84:	63776f74 	cmnvs	r7, #116, 30	; 0x1d0
  88:	6174735f 	cmnvs	r4, pc, asr r3
  8c:	5f006574 	svcpl	0x00006574
  90:	5f6d745f 	svcpl	0x006d745f
  94:	00636573 	rsbeq	r6, r3, r3, ror r5
  98:	676e6f6c 	strbvs	r6, [lr, -ip, ror #30]!
  9c:	6e6f6c20 	cdpvs	12, 6, cr6, cr15, cr0, {1}
  a0:	6e692067 	cdpvs	0, 6, cr2, cr9, cr7, {3}
  a4:	755f0074 	ldrbvc	r0, [pc, #-116]	; 38 <_start-0x7fc8>
  a8:	00667562 	rsbeq	r7, r6, r2, ror #10
  ac:	7361625f 	cmnvc	r1, #-268435451	; 0xf0000005
  b0:	5f5f0065 	svcpl	0x005f0065
  b4:	685f6d74 	ldmdavs	pc, {r2, r4, r5, r6, r8, sl, fp, sp, lr}^	; <UNPREDICTABLE>
  b8:	0072756f 	rsbseq	r7, r2, pc, ror #10
  bc:	6d6f682f 	stclvs	8, cr6, [pc, #-188]!	; 8 <_start-0x7ff8>
  c0:	73752f65 	cmnvc	r5, #404	; 0x194
  c4:	442f7265 	strtmi	r7, [pc], #-613	; cc <_start-0x7f34>
  c8:	432f7665 			; <UNDEFINED> instruction: 0x432f7665
  cc:	30343253 	eorscc	r3, r4, r3, asr r2
  d0:	616c2f58 	cmnvs	ip, r8, asr pc
  d4:	312f7362 			; <UNDEFINED> instruction: 0x312f7362
  d8:	656d2d30 	strbvs	r2, [sp, #-3376]!	; 0xfffff2d0
  dc:	6568636d 	strbvs	r6, [r8, #-877]!	; 0xfffffc93
  e0:	732d6b63 			; <UNDEFINED> instruction: 0x732d6b63
  e4:	2f746174 	svccs	0x00746174
  e8:	65646f63 	strbvs	r6, [r4, #-3939]!	; 0xfffff09d
  ec:	735f5f00 	cmpvc	pc, #0, 30
  f0:	6f5f0066 	svcvs	0x005f0066
  f4:	78655f6e 	stmdavc	r5!, {r1, r2, r3, r5, r6, r8, r9, sl, fp, ip, lr}^
  f8:	615f7469 	cmpvs	pc, r9, ror #8
  fc:	00736772 	rsbseq	r6, r3, r2, ror r7
 100:	6f6f635f 	svcvs	0x006f635f
 104:	0065696b 	rsbeq	r6, r5, fp, ror #18
 108:	67735f5f 			; <UNDEFINED> instruction: 0x67735f5f
 10c:	0065756c 	rsbeq	r7, r5, ip, ror #10
 110:	616c665f 	cmnvs	ip, pc, asr r6
 114:	5f007367 	svcpl	0x00007367
 118:	635f7369 	cmpvs	pc, #-1543503871	; 0xa4000001
 11c:	70006178 	andvc	r6, r0, r8, ror r1
 120:	31747261 	cmncc	r4, r1, ror #4
 124:	7365742d 	cmnvc	r5, #754974720	; 0x2d000000
 128:	632e3274 			; <UNDEFINED> instruction: 0x632e3274
 12c:	5f6b6300 	svcpl	0x006b6300
 130:	74696e69 	strbtvc	r6, [r9], #-3689	; 0xfffff197
 134:	6c625f00 	stclvs	15, cr5, [r2], #-0
 138:	7a69736b 	bvc	1a5ceec <__bss_end__+0x1a52f8c>
 13c:	635f0065 	cmpvs	pc, #101	; 0x65
 140:	75627476 	strbvc	r7, [r2, #-1142]!	; 0xfffffb8a
 144:	6f5f0066 	svcvs	0x005f0066
 148:	65736666 	ldrbvs	r6, [r3, #-1638]!	; 0xfffff99a
 14c:	6d6b0074 	stclvs	0, cr0, [fp, #-464]!	; 0xfffffe30
 150:	6f6c6c61 	svcvs	0x006c6c61
 154:	6e695f63 	cdpvs	15, 6, cr5, cr9, cr3, {3}
 158:	735f7469 	cmpvc	pc, #1761607680	; 0x69000000
 15c:	735f7465 	cmpvc	pc, #1694498816	; 0x65000000
 160:	74726174 	ldrbtvc	r6, [r2], #-372	; 0xfffffe8c
 164:	626d5f00 	rsbvs	r5, sp, #0, 30
 168:	6f747273 	svcvs	0x00747273
 16c:	5f736377 	svcpl	0x00736377
 170:	74617473 	strbtvc	r7, [r1], #-1139	; 0xfffffb8d
 174:	6d5f0065 	ldclvs	0, cr0, [pc, #-404]	; ffffffe8 <__bss_end__+0xffff6088>
 178:	656c7262 	strbvs	r7, [ip, #-610]!	; 0xfffffd9e
 17c:	74735f6e 	ldrbtvc	r5, [r3], #-3950	; 0xfffff092
 180:	00657461 	rsbeq	r7, r5, r1, ror #8
 184:	616e665f 	cmnvs	lr, pc, asr r6
 188:	00736772 	rsbseq	r6, r3, r2, ror r7
 18c:	736e665f 	cmnvc	lr, #99614720	; 0x5f00000
 190:	69735f00 	ldmdbvs	r3!, {r8, r9, sl, fp, ip, lr}^
 194:	5f006e67 	svcpl	0x00006e67
 198:	636f6c66 	cmnvs	pc, #26112	; 0x6600
 19c:	00745f6b 	rsbseq	r5, r4, fp, ror #30
 1a0:	6474735f 	ldrbtvs	r7, [r4], #-863	; 0xfffffca1
 1a4:	00727265 	rsbseq	r7, r2, r5, ror #4
 1a8:	6769425f 			; <UNDEFINED> instruction: 0x6769425f
 1ac:	00746e69 	rsbseq	r6, r4, r9, ror #28
 1b0:	6d61675f 	stclvs	7, cr6, [r1, #-380]!	; 0xfffffe84
 1b4:	735f616d 	cmpvc	pc, #1073741851	; 0x4000001b
 1b8:	676e6769 	strbvs	r6, [lr, -r9, ror #14]!
 1bc:	5f006d61 	svcpl	0x00006d61
 1c0:	75736572 	ldrbvc	r6, [r3, #-1394]!	; 0xfffffa8e
 1c4:	6b5f746c 	blvs	17dd37c <__bss_end__+0x17d341c>
 1c8:	69707200 	ldmdbvs	r0!, {r9, ip, sp, lr}^
 1cc:	7475705f 	ldrbtvc	r7, [r5], #-95	; 0xffffffa1
 1d0:	72616863 	rsbvc	r6, r1, #6488064	; 0x630000
 1d4:	745f5f00 	ldrbvc	r5, [pc], #-3840	; 1dc <_start-0x7e24>
 1d8:	5f5f006d 	svcpl	0x005f006d
 1dc:	62686377 	rsbvs	r6, r8, #-603979775	; 0xdc000001
 1e0:	74735f00 	ldrbtvc	r5, [r3], #-3840	; 0xfffff100
 1e4:	74756f64 	ldrbtvc	r6, [r5], #-3940	; 0xfffff09c
 1e8:	76635f00 	strbtvc	r5, [r3], -r0, lsl #30
 1ec:	6e656c74 	mcrvs	12, 3, r6, cr5, cr4, {3}
 1f0:	69665f00 	stmdbvs	r6!, {r8, r9, sl, fp, ip, lr}^
 1f4:	5f00656c 	svcpl	0x0000656c
 1f8:	4e55465f 	mrcmi	6, 2, r4, cr5, cr15, {2}
 1fc:	4f495443 	svcmi	0x00495443
 200:	005f5f4e 	subseq	r5, pc, lr, asr #30
 204:	6f696e5f 	svcvs	0x00696e5f
 208:	73007362 	movwvc	r7, #866	; 0x362
 20c:	74726f68 	ldrbtvc	r6, [r2], #-3944	; 0xfffff098
 210:	736e7520 	cmnvc	lr, #32, 10	; 0x8000000
 214:	656e6769 	strbvs	r6, [lr, #-1897]!	; 0xfffff897
 218:	6e692064 	cdpvs	0, 6, cr2, cr9, cr4, {3}
 21c:	615f0074 	cmpvs	pc, r4, ror r0	; <UNPREDICTABLE>
 220:	69786574 	ldmdbvs	r8!, {r2, r4, r5, r6, r8, sl, sp, lr}^
 224:	5f003074 	svcpl	0x00003074
 228:	6e676973 			; <UNDEFINED> instruction: 0x6e676973
 22c:	625f6c61 	subsvs	r6, pc, #24832	; 0x6100
 230:	5f006675 	svcpl	0x00006675
 234:	74637361 	strbtvc	r7, [r3], #-865	; 0xfffffc9f
 238:	5f656d69 	svcpl	0x00656d69
 23c:	00667562 	rsbeq	r7, r6, r2, ror #10
 240:	7365725f 	cmnvc	r5, #-268435451	; 0xf0000005
 244:	00746c75 	rsbseq	r6, r4, r5, ror ip
 248:	63775f5f 	cmnvs	r7, #380	; 0x17c
 24c:	4c5f0068 	mrrcmi	0, 6, r0, pc, cr8	; <UNPREDICTABLE>
 250:	5f4b434f 	svcpl	0x004b434f
 254:	69770054 	ldmdbvs	r7!, {r2, r4, r6}^
 258:	745f746e 	ldrbvc	r7, [pc], #-1134	; 260 <_start-0x7da0>
 25c:	666b6300 	strbtvs	r6, [fp], -r0, lsl #6
 260:	00656572 	rsbeq	r6, r5, r2, ror r5
 264:	616c665f 	cmnvs	ip, pc, asr r6
 268:	00327367 	eorseq	r7, r2, r7, ror #6
 26c:	6d745f5f 	ldclvs	15, cr5, [r4, #-380]!	; 0xfffffe84
 270:	6165795f 	cmnvs	r5, pc, asr r9
 274:	6e5f0072 	mrcvs	0, 2, r0, cr15, cr2, {3}
 278:	66747865 	ldrbtvs	r7, [r4], -r5, ror #16
 27c:	745f5f00 	ldrbvc	r5, [pc], #-3840	; 284 <_start-0x7d7c>
 280:	6f6d5f6d 	svcvs	0x006d5f6d
 284:	615f006e 	cmpvs	pc, lr, rrx
 288:	69786574 	ldmdbvs	r8!, {r2, r4, r5, r6, r8, sl, sp, lr}^
 28c:	5f5f0074 	svcpl	0x005f0074
 290:	64696473 	strbtvs	r6, [r9], #-1139	; 0xfffffb8d
 294:	74696e69 	strbtvc	r6, [r9], #-3689	; 0xfffff197
 298:	666f5f00 	strbtvs	r5, [pc], -r0, lsl #30
 29c:	00745f66 	rsbseq	r5, r4, r6, ror #30
 2a0:	6572665f 	ldrbvs	r6, [r2, #-1631]!	; 0xfffff9a1
 2a4:	73696c65 	cmnvc	r9, #25856	; 0x6500
 2a8:	775f0074 			; <UNDEFINED> instruction: 0x775f0074
 2ac:	6d6f7463 	cfstrdvs	mvd7, [pc, #-396]!	; 128 <_start-0x7ed8>
 2b0:	74735f62 	ldrbtvc	r5, [r3], #-3938	; 0xfffff09e
 2b4:	00657461 	rsbeq	r7, r5, r1, ror #8
 2b8:	69736e75 	ldmdbvs	r3!, {r0, r2, r4, r5, r6, r9, sl, fp, sp, lr}^
 2bc:	64656e67 	strbtvs	r6, [r5], #-3687	; 0xfffff199
 2c0:	61686320 	cmnvs	r8, r0, lsr #6
 2c4:	6e5f0072 	mrcvs	0, 2, r0, cr15, cr2, {3}
 2c8:	47007765 	strmi	r7, [r0, -r5, ror #14]
 2cc:	4320554e 			; <UNDEFINED> instruction: 0x4320554e
 2d0:	39203939 	stmdbcc	r0!, {r0, r3, r4, r5, r8, fp, ip, sp}
 2d4:	302e322e 	eorcc	r3, lr, lr, lsr #4
 2d8:	636d2d20 	cmnvs	sp, #32, 26	; 0x800
 2dc:	613d7570 	teqvs	sp, r0, ror r5
 2e0:	31316d72 	teqcc	r1, r2, ror sp
 2e4:	7a6a3637 	bvc	1a8dbc8 <__bss_end__+0x1a83c68>
 2e8:	20732d66 	rsbscs	r2, r3, r6, ror #26
 2ec:	75746d2d 	ldrbvc	r6, [r4, #-3373]!	; 0xfffff2d3
 2f0:	613d656e 	teqvs	sp, lr, ror #10
 2f4:	31316d72 	teqcc	r1, r2, ror sp
 2f8:	7a6a3637 	bvc	1a8dbdc <__bss_end__+0x1a83c7c>
 2fc:	20732d66 	rsbscs	r2, r3, r6, ror #26
 300:	6c666d2d 	stclvs	13, cr6, [r6], #-180	; 0xffffff4c
 304:	2d74616f 	ldfcse	f6, [r4, #-444]!	; 0xfffffe44
 308:	3d696261 	sfmcc	f6, 2, [r9, #-388]!	; 0xfffffe7c
 30c:	74666f73 	strbtvc	r6, [r6], #-3955	; 0xfffff08d
 310:	616d2d20 	cmnvs	sp, r0, lsr #26
 314:	2d206d72 	stccs	13, cr6, [r0, #-456]!	; 0xfffffe38
 318:	6372616d 	cmnvs	r2, #1073741851	; 0x4000001b
 31c:	72613d68 	rsbvc	r3, r1, #104, 26	; 0x1a00
 320:	6b36766d 	blvs	d9dcdc <__bss_end__+0xd93d7c>
 324:	672d207a 			; <UNDEFINED> instruction: 0x672d207a
 328:	20626467 	rsbcs	r6, r2, r7, ror #8
 32c:	20674f2d 	rsbcs	r4, r7, sp, lsr #30
 330:	6474732d 	ldrbtvs	r7, [r4], #-813	; 0xfffffcd3
 334:	756e673d 	strbvc	r6, [lr, #-1853]!	; 0xfffff8c3
 338:	2d203939 			; <UNDEFINED> instruction: 0x2d203939
 33c:	65726666 	ldrbvs	r6, [r2, #-1638]!	; 0xfffff99a
 340:	61747365 	cmnvs	r4, r5, ror #6
 344:	6e69646e 	cdpvs	4, 6, cr6, cr9, cr14, {3}
 348:	685f0067 	ldmdavs	pc, {r0, r1, r2, r5, r6}^	; <UNPREDICTABLE>
 34c:	7272655f 	rsbsvc	r6, r2, #398458880	; 0x17c00000
 350:	73006f6e 	movwvc	r6, #3950	; 0xf6e
 354:	74726f68 	ldrbtvc	r6, [r2], #-3944	; 0xfffff098
 358:	746e6920 	strbtvc	r6, [lr], #-2336	; 0xfffff6e0
 35c:	745f5f00 	ldrbvc	r5, [pc], #-3840	; 364 <_start-0x7c9c>
 360:	64795f6d 	ldrbtvs	r5, [r9], #-3949	; 0xfffff093
 364:	5f007961 	svcpl	0x00007961
 368:	7562735f 	strbvc	r7, [r2, #-863]!	; 0xfffffca1
 36c:	695f0066 	ldmdbvs	pc, {r1, r2, r5, r6}^	; <UNPREDICTABLE>
 370:	0073626f 	rsbseq	r6, r3, pc, ror #4
 374:	49465f5f 	stmdbmi	r6, {r0, r1, r2, r3, r4, r6, r8, r9, sl, fp, ip, lr}^
 378:	5f00454c 	svcpl	0x0000454c
 37c:	7473626d 	ldrbtvc	r6, [r3], #-621	; 0xfffffd93
 380:	5f657461 	svcpl	0x00657461
 384:	5f5f0074 	svcpl	0x005f0074
 388:	4c494673 	mcrrmi	6, 7, r4, r9, cr3
 38c:	6d5f0045 	ldclvs	0, cr0, [pc, #-276]	; 280 <_start-0x7d80>
 390:	61747362 	cmnvs	r4, r2, ror #6
 394:	5f006574 	svcpl	0x00006574
 398:	646e6172 	strbtvs	r6, [lr], #-370	; 0xfffffe8e
 39c:	78656e5f 	stmdavc	r5!, {r0, r1, r2, r3, r4, r6, r9, sl, fp, sp, lr}^
 3a0:	6d5f0074 	ldclvs	0, cr0, [pc, #-464]	; 1d8 <_start-0x7e28>
 3a4:	6e656c62 	cdpvs	12, 6, cr6, cr5, cr2, {3}
 3a8:	6174735f 	cmnvs	r4, pc, asr r3
 3ac:	5f006574 	svcpl	0x00006574
 3b0:	00636e69 	rsbeq	r6, r3, r9, ror #28
 3b4:	646e695f 	strbtvs	r6, [lr], #-2399	; 0xfffff6a1
 3b8:	635f5f00 	cmpvs	pc, #0, 30
 3bc:	6e61656c 	cdpvs	5, 6, cr6, cr1, cr12, {3}
 3c0:	5f007075 	svcpl	0x00007075
 3c4:	70736e75 	rsbsvc	r6, r3, r5, ror lr
 3c8:	66696365 	strbtvs	r6, [r9], -r5, ror #6
 3cc:	5f646569 	svcpl	0x00646569
 3d0:	61636f6c 	cmnvs	r3, ip, ror #30
 3d4:	695f656c 	ldmdbvs	pc, {r2, r3, r5, r6, r8, sl, sp, lr}^	; <UNPREDICTABLE>
 3d8:	006f666e 	rsbeq	r6, pc, lr, ror #12
 3dc:	78616d5f 	stmdavc	r1!, {r0, r1, r2, r3, r4, r6, r8, sl, fp, sp, lr}^
 3e0:	00736477 	rsbseq	r6, r3, r7, ror r4
 3e4:	6565725f 	strbvs	r7, [r5, #-607]!	; 0xfffffda1
 3e8:	5f00746e 	svcpl	0x0000746e
 3ec:	64656573 	strbtvs	r6, [r5], #-1395	; 0xfffffa8d
 3f0:	635f5f00 	cmpvs	pc, #0, 30
 3f4:	746e756f 	strbtvc	r7, [lr], #-1391	; 0xfffffa91
 3f8:	6c5f5f00 	mrrcvs	15, 0, r5, pc, cr0	; <UNPREDICTABLE>
 3fc:	006b636f 	rsbeq	r6, fp, pc, ror #6
 400:	61765f5f 	cmnvs	r6, pc, asr pc
 404:	0065756c 	rsbeq	r7, r5, ip, ror #10
 408:	6565735f 	strbvs	r7, [r5, #-863]!	; 0xfffffca1
 40c:	665f006b 	ldrbvs	r0, [pc], -fp, rrx
 410:	5f736f70 	svcpl	0x00736f70
 414:	5f5f0074 	svcpl	0x005f0074
 418:	6d5f6d74 	ldclvs	13, cr6, [pc, #-464]	; 250 <_start-0x7db0>
 41c:	5f006e69 	svcpl	0x00006e69
 420:	746c756d 	strbtvc	r7, [ip], #-1389	; 0xfffffa93
 424:	74735f00 	ldrbtvc	r5, [r3], #-3840	; 0xfffff100
 428:	6b6f7472 	blvs	1bdd5f8 <__bss_end__+0x1bd3698>
 42c:	73616c5f 	cmnvc	r1, #24320	; 0x5f00
 430:	665f0074 			; <UNDEFINED> instruction: 0x665f0074
 434:	7079746e 	rsbsvc	r7, r9, lr, ror #8
 438:	5f007365 	svcpl	0x00007365
 43c:	00646461 	rsbeq	r6, r4, r1, ror #8
 440:	4c555f5f 	mrrcmi	15, 5, r5, r5, cr15	; <UNPREDICTABLE>
 444:	00676e6f 	rsbeq	r6, r7, pc, ror #28
 448:	7465675f 	strbtvc	r6, [r5], #-1887	; 0xfffff8a1
 44c:	65746164 	ldrbvs	r6, [r4, #-356]!	; 0xfffffe9c
 450:	7272655f 	rsbsvc	r6, r2, #398458880	; 0x17c00000
 454:	6c675f00 	stclvs	15, cr5, [r7], #-0
 458:	6c61626f 	sfmvs	f6, 2, [r1], #-444	; 0xfffffe44
 45c:	706d695f 	rsbvc	r6, sp, pc, asr r9
 460:	5f657275 	svcpl	0x00657275
 464:	00727470 	rsbseq	r7, r2, r0, ror r4
 468:	736d656d 	cmnvc	sp, #457179136	; 0x1b400000
 46c:	5f007465 	svcpl	0x00007465
 470:	73756e75 	cmnvc	r5, #1872	; 0x750
 474:	725f6465 	subsvc	r6, pc, #1694498816	; 0x65000000
 478:	00646e61 	rsbeq	r6, r4, r1, ror #28
 47c:	7364775f 	cmnvc	r4, #24903680	; 0x17c0000
 480:	745f5f00 	ldrbvc	r5, [pc], #-3840	; 488 <_start-0x7b78>
 484:	64775f6d 	ldrbtvs	r5, [r7], #-3949	; 0xfffff093
 488:	5f007961 	svcpl	0x00007961
 48c:	65756c67 	ldrbvs	r6, [r5, #-3175]!	; 0xfffff399
 490:	74735f00 	ldrbtvc	r5, [r3], #-3840	; 0xfffff100
 494:	006e6964 	rsbeq	r6, lr, r4, ror #18
 498:	616d6e5f 	cmnvs	sp, pc, asr lr
 49c:	636f6c6c 	cmnvs	pc, #108, 24	; 0x6c00
 4a0:	366c5f00 	strbtcc	r5, [ip], -r0, lsl #30
 4a4:	625f6134 	subsvs	r6, pc, #52, 2
 4a8:	5f006675 	svcpl	0x00006675
 4ac:	5f676973 	svcpl	0x00676973
 4b0:	636e7566 	cmnvs	lr, #427819008	; 0x19800000
 4b4:	616d6b00 	cmnvs	sp, r0, lsl #22
 4b8:	636f6c6c 	cmnvs	pc, #108, 24	; 0x6c00
 4bc:	626e5f00 	rsbvs	r5, lr, #0, 30
 4c0:	5f006675 	svcpl	0x00006675
 4c4:	73756e75 	cmnvc	r5, #1872	; 0x750
 4c8:	5f006465 	svcpl	0x00006465
 4cc:	5f6d745f 	svcpl	0x006d745f
 4d0:	73647369 	cmnvc	r4, #-1543503871	; 0xa4000001
 4d4:	6c5f0074 	mrrcvs	0, 7, r0, pc, cr4	; <UNPREDICTABLE>
 4d8:	6c61636f 	stclvs	3, cr6, [r1], #-444	; 0xfffffe44
 4dc:	656d6974 	strbvs	r6, [sp, #-2420]!	; 0xfffff68c
 4e0:	6675625f 			; <UNDEFINED> instruction: 0x6675625f
 4e4:	6c635f00 	stclvs	15, cr5, [r3], #-0
 4e8:	0065736f 	rsbeq	r7, r5, pc, ror #6
 4ec:	3834725f 	ldmdacc	r4!, {r0, r1, r2, r3, r4, r6, r9, ip, sp, lr}
 4f0:	626d5f00 	rsbvs	r5, sp, #0, 30
 4f4:	63776f74 	cmnvs	r7, #116, 30	; 0x1d0
 4f8:	6174735f 	cmnvs	r4, pc, asr r3
 4fc:	5f006574 	svcpl	0x00006574
 500:	00733570 	rsbseq	r3, r3, r0, ror r5
 504:	6d745f5f 	ldclvs	15, cr5, [r4, #-380]!	; 0xfffffe84
 508:	61646d5f 	cmnvs	r4, pc, asr sp
 50c:	61700079 	cmnvs	r0, r9, ror r0
 510:	6e696464 	cdpvs	4, 6, cr6, cr9, cr4, {3}
 514:	6b630067 	blvs	18c06b8 <__bss_end__+0x18b6758>
 518:	6165685f 	cmnvs	r5, pc, asr r8
 51c:	72655f70 	rsbvc	r5, r5, #112, 30	; 0x1c0
 520:	73726f72 	cmnvc	r2, #456	; 0x1c8
 524:	6e696c00 	cdpvs	12, 6, cr6, cr9, cr0, {0}
 528:	006f6e65 	rsbeq	r6, pc, r5, ror #28
 52c:	76657270 			; <UNDEFINED> instruction: 0x76657270
 530:	73616600 	cmnvc	r1, #0, 12
 534:	61685f74 	smcvs	34292	; 0x85f4
 538:	66006873 			; <UNDEFINED> instruction: 0x66006873
 53c:	5f656572 	svcpl	0x00656572
 540:	00636f6c 	rsbeq	r6, r3, ip, ror #30
 544:	7a725f62 	bvc	1c982d4 <__bss_end__+0x1c8e374>
 548:	74705f31 	ldrbtvc	r5, [r0], #-3889	; 0xfffff0cf
 54c:	52460072 	subpl	r0, r6, #114	; 0x72
 550:	00444545 	subeq	r4, r4, r5, asr #10
 554:	4f4c4c41 	svcmi	0x004c4c41
 558:	00444543 	subeq	r4, r4, r3, asr #10
 55c:	73666572 	cmnvc	r6, #478150656	; 0x1c800000
 560:	64696d5f 	strbtvs	r6, [r9], #-3423	; 0xfffff2a1
 564:	00656c64 	rsbeq	r6, r5, r4, ror #24
 568:	73666572 	cmnvc	r6, #478150656	; 0x1c800000
 56c:	6174735f 	cmnvs	r4, pc, asr r3
 570:	61007472 	tstvs	r0, r2, ror r4
 574:	636f6c6c 	cmnvs	pc, #108, 24	; 0x6c00
 578:	4f006465 	svcmi	0x00006465
 57c:	48524556 	ldmdami	r2, {r1, r2, r4, r6, r8, sl, lr}^
 580:	5f444145 	svcpl	0x00444145
 584:	5459424e 	ldrbpl	r4, [r9], #-590	; 0xfffffdb2
 588:	52005345 	andpl	r5, r0, #335544321	; 0x14000001
 58c:	4f5a4445 	svcmi	0x005a4445
 590:	4100454e 	tstmi	r0, lr, asr #10
 594:	434f4c4c 	movtmi	r4, #64588	; 0xfc4c
 598:	46464f5f 			; <UNDEFINED> instruction: 0x46464f5f
 59c:	00544553 	subseq	r4, r4, r3, asr r5
 5a0:	5f697072 	svcpl	0x00697072
 5a4:	65736572 	ldrbvs	r6, [r3, #-1394]!	; 0xfffffa8e
 5a8:	75705f74 	ldrbvc	r5, [r0, #-3956]!	; 0xfffff08c
 5ac:	6d006374 	stcvs	3, cr6, [r0, #-464]	; 0xfffffe30
 5b0:	5f6b7261 	svcpl	0x006b7261
 5b4:	006d656d 	rsbeq	r6, sp, sp, ror #10
 5b8:	64615f62 	strbtvs	r5, [r1], #-3938	; 0xfffff09e
 5bc:	745f7264 	ldrbvc	r7, [pc], #-612	; 5c4 <_start-0x7a3c>
 5c0:	64685f6f 	strbtvs	r5, [r8], #-3951	; 0xfffff091
 5c4:	6b630072 	blvs	18c0794 <__bss_end__+0x18b6834>
 5c8:	6f6c6c61 	svcvs	0x006c6c61
 5cc:	00632e63 	rsbeq	r2, r3, r3, ror #28
 5d0:	7366666f 	cmnvc	r6, #116391936	; 0x6f00000
 5d4:	656c6300 	strbvs	r6, [ip, #-768]!	; 0xfffffd00
 5d8:	725f6e61 	subsvc	r6, pc, #1552	; 0x610
 5dc:	6f6f6265 	svcvs	0x006f6265
 5e0:	6c610074 	stclvs	0, cr0, [r1], #-464	; 0xfffffe30
 5e4:	5f636f6c 	svcpl	0x00636f6c
 5e8:	00636f6c 	rsbeq	r6, r3, ip, ror #30
 5ec:	5f726468 	svcpl	0x00726468
 5f0:	75736b63 	ldrbvc	r6, [r3, #-2915]!	; 0xfffff49d
 5f4:	626e006d 	rsbvs	r0, lr, #109	; 0x6d
 5f8:	73657479 	cmnvc	r5, #2030043136	; 0x79000000
 5fc:	6c6c615f 	stfvse	f6, [ip], #-380	; 0xfffffe84
 600:	6200636f 	andvs	r6, r0, #-1140850687	; 0xbc000001
 604:	6c6c615f 	stfvse	f6, [ip], #-380	; 0xfffffe84
 608:	705f636f 	subsvc	r6, pc, pc, ror #6
 60c:	63007274 	movwvs	r7, #628	; 0x274
 610:	6b636568 	blvs	18d9bb8 <__bss_end__+0x18cfc58>
 614:	6572665f 	ldrbvs	r6, [r2, #-1631]!	; 0xfffff9a1
 618:	72775f65 	rsbsvc	r5, r7, #404	; 0x194
 61c:	00657469 	rsbeq	r7, r5, r9, ror #8
 620:	63656863 	cmnvs	r5, #6488064	; 0x630000
 624:	64685f6b 	strbtvs	r5, [r8], #-3947	; 0xfffff095
 628:	5f620072 	svcpl	0x00620072
 62c:	5f327a72 	svcpl	0x00327a72
 630:	00727470 	rsbseq	r7, r2, r0, ror r4
 634:	6b6c626e 	blvs	1b18ff4 <__bss_end__+0x1b0f094>
 638:	72730073 	rsbsvc	r0, r3, #115	; 0x73
 63c:	6f6c5f63 	svcvs	0x006c5f63
 640:	00745f63 	rsbseq	r5, r4, r3, ror #30
 644:	746e6975 	strbtvc	r6, [lr], #-2421	; 0xfffff68b
 648:	745f3233 	ldrbvc	r3, [pc], #-563	; 650 <_start-0x79b0>
 64c:	72656e00 	rsbvc	r6, r5, #0, 28
 650:	73726f72 	cmnvc	r2, #456	; 0x1c8
 654:	72646800 	rsbvc	r6, r4, #0, 16
 658:	6972705f 	ldmdbvs	r2!, {r0, r1, r2, r3, r4, r6, ip, sp, lr}^
 65c:	6800746e 	stmdavs	r0, {r1, r2, r3, r5, r6, sl, ip, sp, lr}
 660:	00706165 	rsbseq	r6, r0, r5, ror #2
 664:	544e4553 	strbpl	r4, [lr], #-1363	; 0xfffffaad
 668:	4c414e49 	mcrrmi	14, 4, r4, r1, cr9
 66c:	65686300 	strbvs	r6, [r8, #-768]!	; 0xfffffd00
 670:	625f6b63 	subsvs	r6, pc, #101376	; 0x18c00
 674:	6b636f6c 	blvs	18dc42c <__bss_end__+0x18d24cc>
 678:	725f6200 	subsvc	r6, pc, #0, 4
 67c:	6e5f327a 	mrcvs	2, 2, r3, cr15, cr10, {3}
 680:	65747962 	ldrbvs	r7, [r4, #-2402]!	; 0xfffff69e
 684:	69750073 	ldmdbvs	r5!, {r0, r1, r4, r5, r6}^
 688:	5f38746e 	svcpl	0x0038746e
 68c:	64680074 	strbtvs	r0, [r8], #-116	; 0xffffff8c
 690:	00745f72 	rsbseq	r5, r4, r2, ror pc
 694:	7479626e 	ldrbtvc	r6, [r9], #-622	; 0xfffffd92
 698:	725f7365 	subsvc	r7, pc, #-1811939327	; 0x94000001
 69c:	6c006d65 	stcvs	13, cr6, [r0], {101}	; 0x65
 6a0:	00746665 	rsbseq	r6, r4, r5, ror #12
 6a4:	63656863 	cmnvs	r5, #6488064	; 0x630000
 6a8:	656d5f6b 	strbvs	r5, [sp, #-3947]!	; 0xfffff095
 6ac:	6568006d 	strbvs	r0, [r8, #-109]!	; 0xffffff93
 6b0:	72656461 	rsbvc	r6, r5, #1627389952	; 0x61000000
 6b4:	62696c00 	rsbvs	r6, r9, #0, 24
 6b8:	61682f63 	cmnvs	r8, r3, ror #30
 6bc:	632e6873 			; <UNDEFINED> instruction: 0x632e6873
 6c0:	6f682f00 	svcvs	0x00682f00
 6c4:	752f656d 	strvc	r6, [pc, #-1389]!	; 15f <_start-0x7ea1>
 6c8:	2f726573 	svccs	0x00726573
 6cc:	2f766544 	svccs	0x00766544
 6d0:	34325343 	ldrtcc	r5, [r2], #-835	; 0xfffffcbd
 6d4:	6c2f5830 	stcvs	8, cr5, [pc], #-192	; 61c <_start-0x79e4>
 6d8:	69706269 	ldmdbvs	r0!, {r0, r3, r5, r6, r9, sp, lr}^
 6dc:	7a697300 	bvc	1a5d2e4 <__bss_end__+0x1a53384>
 6e0:	00745f65 	rsbseq	r5, r4, r5, ror #30
 6e4:	6362696c 	cmnvs	r2, #108, 18	; 0x1b0000
 6e8:	6d656d2f 	stclvs	13, cr6, [r5, #-188]!	; 0xffffff44
 6ec:	2e746573 	mrccs	5, 3, r6, cr4, cr3, {3}
 6f0:	5f5f0063 	svcpl	0x005f0063
 6f4:	6c5f6176 	ldfvse	f6, [pc], {118}	; 0x76
 6f8:	00747369 	rsbseq	r7, r4, r9, ror #6
 6fc:	705f6176 	subsvc	r6, pc, r6, ror r1	; <UNPREDICTABLE>
 700:	746e6972 	strbtvc	r6, [lr], #-2418	; 0xfffff68e
 704:	5f5f006b 	svcpl	0x005f006b
 708:	63756e67 	cmnvs	r5, #1648	; 0x670
 70c:	5f61765f 	svcpl	0x0061765f
 710:	7473696c 	ldrbtvc	r6, [r3], #-2412	; 0xfffff694
 714:	615f5f00 	cmpvs	pc, r0, lsl #30
 718:	696c0070 	stmdbvs	ip!, {r4, r5, r6}^
 71c:	702f6362 	eorvc	r6, pc, r2, ror #6
 720:	746e6972 	strbtvc	r6, [lr], #-2418	; 0xfffff68e
 724:	00632e6b 	rsbeq	r2, r3, fp, ror #28
 728:	5f697072 	svcpl	0x00697072
 72c:	5f746573 	svcpl	0x00746573
 730:	63747570 	cmnvs	r4, #112, 10	; 0x1c000000
 734:	72617500 	rsbvc	r7, r1, #0, 10
 738:	75705f74 	ldrbvc	r5, [r0, #-3956]!	; 0xfffff08c
 73c:	69006374 	stmdbvs	r0, {r2, r4, r5, r6, r8, r9, sp, lr}
 740:	7265746e 	rsbvc	r7, r5, #1845493760	; 0x6e000000
 744:	5f6c616e 	svcpl	0x006c616e
 748:	63747570 	cmnvs	r4, #112, 10	; 0x1c000000
 74c:	00726168 	rsbseq	r6, r2, r8, ror #2
 750:	6362696c 	cmnvs	r2, #108, 18	; 0x1b0000
 754:	7475702f 	ldrbtvc	r7, [r5], #-47	; 0xffffffd1
 758:	72616863 	rsbvc	r6, r1, #6488064	; 0x630000
 75c:	6900632e 	stmdbvs	r0, {r1, r2, r3, r5, r8, r9, sp, lr}
 760:	7265746e 	rsbvc	r7, r5, #1845493760	; 0x6e000000
 764:	5f6c616e 	svcpl	0x006c616e
 768:	6b747570 	blvs	1d1dd30 <__bss_end__+0x1d13dd0>
 76c:	62696c00 	rsbvs	r6, r9, #0, 24
 770:	75702f63 	ldrbvc	r2, [r0, #-3939]!	; 0xfffff09d
 774:	632e6b74 			; <UNDEFINED> instruction: 0x632e6b74
 778:	62696c00 	rsbvs	r6, r9, #0, 24
 77c:	61762f63 	cmnvs	r6, r3, ror #30
 780:	6972702d 	ldmdbvs	r2!, {r0, r2, r3, r5, ip, sp, lr}^
 784:	2e6b746e 	cdpcs	4, 6, cr7, cr11, cr14, {3}
 788:	70720063 	rsbsvc	r0, r2, r3, rrx
 78c:	65735f69 	ldrbvs	r5, [r3, #-3945]!	; 0xfffff097
 790:	756f5f74 	strbvc	r5, [pc, #-3956]!	; fffff824 <__bss_end__+0xffff58c4>
 794:	74757074 	ldrbtvc	r7, [r5], #-116	; 0xffffff8c
 798:	67697300 	strbvs	r7, [r9, -r0, lsl #6]!
 79c:	5f64656e 	svcpl	0x0064656e
 7a0:	65720070 	ldrbvs	r0, [r2, #-112]!	; 0xffffff90
 7a4:	73726576 	cmnvc	r2, #494927872	; 0x1d800000
 7a8:	69770065 	ldmdbvs	r7!, {r0, r2, r5, r6}^
 7ac:	00687464 	rsbeq	r7, r8, r4, ror #8
 7b0:	73747570 	cmnvc	r4, #112, 10	; 0x1c000000
 7b4:	0070665f 	rsbseq	r6, r0, pc, asr r6
 7b8:	5f67656e 	svcpl	0x0067656e
 7bc:	75700070 	ldrbvc	r0, [r0, #-112]!	; 0xffffff90
 7c0:	665f6374 			; <UNDEFINED> instruction: 0x665f6374
 7c4:	73690070 	cmnvc	r9, #112	; 0x70
 7c8:	69676964 	stmdbvs	r7!, {r2, r5, r6, r8, fp, sp, lr}^
 7cc:	6d650074 	stclvs	0, cr0, [r5, #-464]!	; 0xfffffe30
 7d0:	73007469 	movwvc	r7, #1129	; 0x469
 7d4:	66666174 			; <UNDEFINED> instruction: 0x66666174
 7d8:	6372732d 	cmnvs	r2, #-1275068416	; 0xb4000000
 7dc:	656c632f 	strbvs	r6, [ip, #-815]!	; 0xfffffcd1
 7e0:	722d6e61 	eorvc	r6, sp, #1552	; 0x610
 7e4:	6f6f6265 	svcvs	0x006f6265
 7e8:	00632e74 	rsbeq	r2, r3, r4, ror lr
 7ec:	616c6564 	cmnvs	ip, r4, ror #10
 7f0:	736d5f79 	cmnvc	sp, #484	; 0x1e4
 7f4:	69707200 	ldmdbvs	r0!, {r9, ip, sp, lr}^
 7f8:	6265725f 	rsbvs	r7, r5, #-268435451	; 0xf0000005
 7fc:	00746f6f 	rsbseq	r6, r4, pc, ror #30
 800:	66617473 			; <UNDEFINED> instruction: 0x66617473
 804:	72732d66 	rsbsvc	r2, r3, #6528	; 0x1980
 808:	73632f63 	cmnvc	r3, #396	; 0x18c
 80c:	74726174 	ldrbtvc	r6, [r2], #-372	; 0xfffffe8c
 810:	5f00632e 	svcpl	0x0000632e
 814:	61747363 	cmnvs	r4, r3, ror #6
 818:	62007472 	andvs	r7, r0, #1912602624	; 0x72000000
 81c:	655f7373 	ldrbvs	r7, [pc, #-883]	; 4b1 <_start-0x7b4f>
 820:	5f00646e 	svcpl	0x0000646e
 824:	7373625f 	cmnvc	r3, #-268435451	; 0xf0000005
 828:	6174735f 	cmnvs	r4, pc, asr r3
 82c:	5f5f7472 	svcpl	0x005f7472
 830:	625f5f00 	subsvs	r5, pc, #0, 30
 834:	655f7373 	ldrbvs	r7, [pc, #-883]	; 4c9 <_start-0x7b37>
 838:	5f5f646e 	svcpl	0x005f646e
 83c:	5f4d5000 	svcpl	0x004d5000
 840:	43545352 	cmpmi	r4, #1207959553	; 0x48000001
 844:	54555000 	ldrbpl	r5, [r5], #-0
 848:	50003233 	andpl	r3, r0, r3, lsr r2
 84c:	53525f4d 	cmppl	r2, #308	; 0x134
 850:	575f4354 			; <UNDEFINED> instruction: 0x575f4354
 854:	47464352 	smlsldmi	r4, r6, r2, r3
 858:	4c55465f 	mrrcmi	6, 5, r4, r5, cr15
 85c:	45525f4c 	ldrbmi	r5, [r2, #-3916]	; 0xfffff0b4
 860:	00544553 	subseq	r4, r4, r3, asr r5
 864:	575f4d50 			; <UNDEFINED> instruction: 0x575f4d50
 868:	00474f44 	subeq	r4, r7, r4, asr #30
 86c:	72737063 	rsbsvc	r7, r3, #99	; 0x63
 870:	5f4d5000 	svcpl	0x004d5000
 874:	53534150 	cmppl	r3, #80, 2
 878:	44524f57 	ldrbmi	r4, [r2], #-3927	; 0xfffff0a9
 87c:	61747300 	cmnvs	r4, r0, lsl #6
 880:	732d6666 			; <UNDEFINED> instruction: 0x732d6666
 884:	722f6372 	eorvc	r6, pc, #-939524095	; 0xc8000001
 888:	6f6f6265 	svcvs	0x006f6265
 88c:	00632e74 	rsbeq	r2, r3, r4, ror lr
 890:	5f746573 	svcpl	0x00746573
 894:	72657375 	rsbvc	r7, r5, #-738197503	; 0xd4000001
 898:	76656c5f 			; <UNDEFINED> instruction: 0x76656c5f
 89c:	61006c65 	tstvs	r0, r5, ror #24
 8a0:	73755f74 	cmnvc	r5, #116, 30	; 0x1d0
 8a4:	6c5f7265 	lfmvs	f7, 2, [pc], {101}	; 0x65
 8a8:	6c657665 	stclvs	6, cr7, [r5], #-404	; 0xfffffe6c
 8ac:	6d697400 	cfstrdvs	mvd7, [r9, #-0]
 8b0:	675f7265 	ldrbvs	r7, [pc, -r5, ror #4]
 8b4:	755f7465 	ldrbvc	r7, [pc, #-1125]	; 457 <_start-0x7ba9>
 8b8:	00636573 	rsbeq	r6, r3, r3, ror r5
 8bc:	616c6564 	cmnvs	ip, r4, ror #10
 8c0:	65735f79 	ldrbvs	r5, [r3, #-3961]!	; 0xfffff087
 8c4:	65640063 	strbvs	r0, [r4, #-99]!	; 0xffffff9d
 8c8:	5f79616c 	svcpl	0x0079616c
 8cc:	6c637963 			; <UNDEFINED> instruction: 0x6c637963
 8d0:	73007365 	movwvc	r7, #869	; 0x365
 8d4:	66666174 			; <UNDEFINED> instruction: 0x66666174
 8d8:	6372732d 	cmnvs	r2, #-1275068416	; 0xb4000000
 8dc:	6d69742f 	cfstrdvs	mvd7, [r9, #-188]!	; 0xffffff44
 8e0:	632e7265 			; <UNDEFINED> instruction: 0x632e7265
 8e4:	63697400 	cmnvs	r9, #0, 8
 8e8:	4700736b 	strmi	r7, [r0, -fp, ror #6]
 8ec:	32335445 	eorscc	r5, r3, #1157627904	; 0x45000000
 8f0:	6d697400 	cfstrdvs	mvd7, [r9, #-0]
 8f4:	675f7265 	ldrbvs	r7, [pc, -r5, ror #4]
 8f8:	755f7465 	ldrbvc	r7, [pc, #-1125]	; 49b <_start-0x7b65>
 8fc:	5f636573 	svcpl	0x00636573
 900:	00776172 	rsbseq	r6, r7, r2, ror r1
 904:	616c6564 	cmnvs	ip, r4, ror #10
 908:	73755f79 	cmnvc	r5, #484	; 0x1e4
 90c:	72617500 	rsbvc	r7, r1, #0, 10
 910:	6e695f74 	mcrvs	15, 3, r5, cr9, cr4, {3}
 914:	47007469 	strmi	r7, [r0, -r9, ror #8]
 918:	5f4f4950 	svcpl	0x004f4950
 91c:	434e5546 	movtmi	r5, #58694	; 0xe546
 920:	504e495f 	subpl	r4, lr, pc, asr r9
 924:	73005455 	movwvc	r5, #1109	; 0x455
 928:	00746174 	rsbseq	r6, r4, r4, ror r1
 92c:	4f495047 	svcmi	0x00495047
 930:	4e55465f 	mrcmi	6, 2, r4, cr5, cr15, {2}
 934:	4c415f43 	mcrrmi	15, 4, r5, r1, cr3
 938:	63003154 	movwvs	r3, #340	; 0x154
 93c:	006c746e 	rsbeq	r7, ip, lr, ror #8
 940:	74726175 	ldrbtvc	r6, [r2], #-373	; 0xfffffe8b
 944:	6100632e 	tstvs	r0, lr, lsr #6
 948:	705f7875 	subsvc	r7, pc, r5, ror r8	; <UNPREDICTABLE>
 94c:	70697265 	rsbvc	r7, r9, r5, ror #4
 950:	2f007368 	svccs	0x00007368
 954:	656d6f68 	strbvs	r6, [sp, #-3944]!	; 0xfffff098
 958:	676e652f 	strbvs	r6, [lr, -pc, lsr #10]!
 95c:	2f72656c 	svccs	0x0072656c
 960:	73616c63 	cmnvc	r1, #25344	; 0x6300
 964:	73632f73 	cmnvc	r3, #460	; 0x1cc
 968:	6c303432 	cfldrsvs	mvf3, [r0], #-200	; 0xffffff38
 96c:	30322d78 	eorscc	r2, r2, r8, ror sp
 970:	2f727073 	svccs	0x00727073
 974:	7062696c 	rsbvc	r6, r2, ip, ror #18
 978:	74732f69 	ldrbtvc	r2, [r3], #-3945	; 0xfffff097
 97c:	2d666661 	stclcs	6, cr6, [r6, #-388]!	; 0xfffffe7c
 980:	76697270 			; <UNDEFINED> instruction: 0x76697270
 984:	00657461 	rsbeq	r7, r5, r1, ror #8
 988:	5f787561 	svcpl	0x00787561
 98c:	62616e65 	rsbvs	r6, r1, #1616	; 0x650
 990:	0073656c 	rsbseq	r6, r3, ip, ror #10
 994:	74726175 	ldrbtvc	r6, [r2], #-373	; 0xfffffe8b
 998:	6e61635f 	mcrvs	3, 3, r6, cr1, cr15, {2}
 99c:	7475705f 	ldrbtvc	r7, [r5], #-95	; 0xffffffa1
 9a0:	61750063 	cmnvs	r5, r3, rrx
 9a4:	675f7472 			; <UNDEFINED> instruction: 0x675f7472
 9a8:	00637465 	rsbeq	r7, r3, r5, ror #8
 9ac:	5f766564 	svcpl	0x00766564
 9b0:	72726162 	rsbsvc	r6, r2, #-2147483624	; 0x80000018
 9b4:	00726569 	rsbseq	r6, r2, r9, ror #10
 9b8:	4f495047 	svcmi	0x00495047
 9bc:	4e55465f 	mrcmi	6, 2, r4, cr5, cr15, {2}
 9c0:	4c415f43 	mcrrmi	15, 4, r5, r1, cr3
 9c4:	73003254 	movwvc	r3, #596	; 0x254
 9c8:	74657a69 	strbtvc	r7, [r5], #-2665	; 0xfffff597
 9cc:	00657079 	rsbeq	r7, r5, r9, ror r0
 9d0:	6f697067 	svcvs	0x00697067
 9d4:	7465735f 	strbtvc	r7, [r5], #-863	; 0xfffffca1
 9d8:	6e75665f 	mrcvs	6, 3, r6, cr5, cr15, {2}
 9dc:	6f697463 	svcvs	0x00697463
 9e0:	6175006e 	cmnvs	r5, lr, rrx
 9e4:	5f007472 	svcpl	0x00007472
 9e8:	4b434f4c 	blmi	10d4720 <__bss_end__+0x10ca7c0>
 9ec:	4345525f 	movtmi	r5, #21087	; 0x525f
 9f0:	49535255 	ldmdbmi	r3, {r0, r2, r4, r6, r9, ip, lr}^
 9f4:	545f4556 	ldrbpl	r4, [pc], #-1366	; 9fc <_start-0x7604>
 9f8:	75635f00 	strbvc	r5, [r3, #-3840]!	; 0xfffff100
 9fc:	6e657272 	mcrvs	2, 3, r7, cr5, cr2, {3}
 a00:	6f6c5f74 	svcvs	0x006c5f74
 a04:	656c6163 	strbvs	r6, [ip, #-355]!	; 0xfffffe9d
 a08:	75616200 	strbvc	r6, [r1, #-512]!	; 0xfffffe00
 a0c:	63730064 	cmnvs	r3, #100	; 0x64
 a10:	63746172 	cmnvs	r4, #-2147483620	; 0x8000001c
 a14:	75700068 	ldrbvc	r0, [r0, #-104]!	; 0xffffff98
 a18:	00323374 	eorseq	r3, r2, r4, ror r3
 a1c:	20554e47 	subscs	r4, r5, r7, asr #28
 a20:	20393943 	eorscs	r3, r9, r3, asr #18
 a24:	2e332e36 	mrccs	14, 1, r2, cr3, cr6, {1}
 a28:	30322031 	eorscc	r2, r2, r1, lsr r0
 a2c:	36303731 			; <UNDEFINED> instruction: 0x36303731
 a30:	2d203032 	stccs	0, cr3, [r0, #-200]!	; 0xffffff38
 a34:	7570636d 	ldrbvc	r6, [r0, #-877]!	; 0xfffffc93
 a38:	6d72613d 	ldfvse	f6, [r2, #-244]!	; 0xffffff0c
 a3c:	36373131 			; <UNDEFINED> instruction: 0x36373131
 a40:	2d667a6a 	vstmdbcs	r6!, {s15-s120}
 a44:	6d2d2073 	stcvs	0, cr2, [sp, #-460]!	; 0xfffffe34
 a48:	656e7574 	strbvs	r7, [lr, #-1396]!	; 0xfffffa8c
 a4c:	6d72613d 	ldfvse	f6, [r2, #-244]!	; 0xffffff0c
 a50:	36373131 			; <UNDEFINED> instruction: 0x36373131
 a54:	2d667a6a 	vstmdbcs	r6!, {s15-s120}
 a58:	672d2073 			; <UNDEFINED> instruction: 0x672d2073
 a5c:	20626467 	rsbcs	r6, r2, r7, ror #8
 a60:	20674f2d 	rsbcs	r4, r7, sp, lsr #30
 a64:	6474732d 	ldrbtvs	r7, [r4], #-813	; 0xfffffcd3
 a68:	756e673d 	strbvc	r6, [lr, #-1853]!	; 0xfffff8c3
 a6c:	2d203939 			; <UNDEFINED> instruction: 0x2d203939
 a70:	65726666 	ldrbvs	r6, [r2, #-1638]!	; 0xfffff99a
 a74:	61747365 	cmnvs	r4, r5, ror #6
 a78:	6e69646e 	cdpvs	4, 6, cr6, cr9, cr14, {3}
 a7c:	635f0067 	cmpvs	pc, #103	; 0x67
 a80:	65727275 	ldrbvs	r7, [r2, #-629]!	; 0xfffffd8b
 a84:	635f746e 	cmpvs	pc, #1845493760	; 0x6e000000
 a88:	67657461 	strbvs	r7, [r5, -r1, ror #8]!
 a8c:	0079726f 	rsbseq	r7, r9, pc, ror #4
 a90:	4f495047 	svcmi	0x00495047
 a94:	4e55465f 	mrcmi	6, 2, r4, cr5, cr15, {2}
 a98:	554f5f43 	strbpl	r5, [pc, #-3907]	; fffffb5d <__bss_end__+0xffff5bfd>
 a9c:	54555054 	ldrbpl	r5, [r5], #-84	; 0xffffffac
 aa0:	74656700 	strbtvc	r6, [r5], #-1792	; 0xfffff900
 aa4:	75003233 	strvc	r3, [r0, #-563]	; 0xfffffdcd
 aa8:	5f747261 	svcpl	0x00747261
 aac:	5f6e6163 	svcpl	0x006e6163
 ab0:	63746567 	cmnvs	r4, #432013312	; 0x19c00000
 ab4:	5f726f00 	svcpl	0x00726f00
 ab8:	32336e69 	eorscc	r6, r3, #1680	; 0x690
 abc:	72617500 	rsbvc	r7, r1, #0, 10
 ac0:	61685f74 	smcvs	34292	; 0x85f4
 ac4:	61645f73 	smcvs	17907	; 0x45f3
 ac8:	47006174 	smlsdxmi	r0, r4, r1, r6
 acc:	5f4f4950 	svcpl	0x004f4950
 ad0:	434e5546 	movtmi	r5, #58694	; 0xe546
 ad4:	544c415f 	strbpl	r4, [ip], #-351	; 0xfffffea1
 ad8:	50470030 	subpl	r0, r7, r0, lsr r0
 adc:	465f4f49 	ldrbmi	r4, [pc], -r9, asr #30
 ae0:	5f434e55 	svcpl	0x00434e55
 ae4:	33544c41 	cmpcc	r4, #16640	; 0x4100
 ae8:	49504700 	ldmdbmi	r0, {r8, r9, sl, lr}^
 aec:	55465f4f 	strbpl	r5, [r6, #-3919]	; 0xfffff0b1
 af0:	415f434e 	cmpmi	pc, lr, asr #6
 af4:	0034544c 	eorseq	r5, r4, ip, asr #8
 af8:	4f495047 	svcmi	0x00495047
 afc:	4e55465f 	mrcmi	6, 2, r4, cr5, cr15, {2}
 b00:	4c415f43 	mcrrmi	15, 4, r5, r1, cr3
 b04:	67003554 	smlsdvs	r0, r4, r5, r3
 b08:	5f6f6970 	svcpl	0x006f6970
 b0c:	5f746573 	svcpl	0x00746573
 b10:	0066666f 	rsbeq	r6, r6, pc, ror #12
 b14:	6b6e6162 	blvs	1b990a4 <__bss_end__+0x1b8f144>
 b18:	69706700 	ldmdbvs	r0!, {r8, r9, sl, sp, lr}^
 b1c:	00632e6f 	rsbeq	r2, r3, pc, ror #28
 b20:	6f697067 	svcvs	0x00697067
 b24:	6165725f 	cmnvs	r5, pc, asr r2
 b28:	70670064 	rsbvc	r0, r7, r4, rrx
 b2c:	735f6f69 	cmpvc	pc, #420	; 0x1a4
 b30:	6f5f7465 	svcvs	0x005f7465
 b34:	75707475 	ldrbvc	r7, [r0, #-1141]!	; 0xfffffb8b
 b38:	70670074 	rsbvc	r0, r7, r4, ror r0
 b3c:	775f6f69 	ldrbvc	r6, [pc, -r9, ror #30]
 b40:	65746972 	ldrbvs	r6, [r4, #-2418]!	; 0xfffff68e
 b44:	69706700 	ldmdbvs	r0!, {r8, r9, sl, sp, lr}^
 b48:	65735f6f 	ldrbvs	r5, [r3, #-3951]!	; 0xfffff091
 b4c:	67003074 	smlsdxvs	r0, r4, r0, r3
 b50:	5f6f6970 	svcpl	0x006f6970
 b54:	3076656c 	rsbscc	r6, r6, ip, ror #10
 b58:	69706700 	ldmdbvs	r0!, {r8, r9, sl, sp, lr}^
 b5c:	65735f6f 	ldrbvs	r5, [r3, #-3951]!	; 0xfffff091
 b60:	6e695f74 	mcrvs	15, 3, r5, cr9, cr4, {3}
 b64:	00747570 	rsbseq	r7, r4, r0, ror r5
 b68:	6f697067 	svcvs	0x00697067
 b6c:	7465735f 	strbtvc	r7, [r5], #-863	; 0xfffffca1
 b70:	006e6f5f 	rsbeq	r6, lr, pc, asr pc
 b74:	6f697067 	svcvs	0x00697067
 b78:	6e75665f 	mrcvs	6, 3, r6, cr5, cr15, {2}
 b7c:	00745f63 	rsbseq	r5, r4, r3, ror #30
 b80:	6f697067 	svcvs	0x00697067
 b84:	726c635f 	rsbvc	r6, ip, #2080374785	; 0x7c000001
 b88:	6d6b0030 	stclvs	0, cr0, [fp, #-192]!	; 0xffffff40
 b8c:	6f6c6c61 	svcvs	0x006c6c61
 b90:	00632e63 	rsbeq	r2, r3, r3, ror #28
 b94:	6c616d6b 	stclvs	13, cr6, [r1], #-428	; 0xfffffe54
 b98:	5f636f6c 	svcpl	0x00636f6c
 b9c:	74696e69 	strbtvc	r6, [r9], #-3689	; 0xfffff197
 ba0:	616d6b00 	cmnvs	sp, r0, lsl #22
 ba4:	636f6c6c 	cmnvs	pc, #108, 24	; 0x6c00
 ba8:	696c615f 	stmdbvs	ip!, {r0, r1, r2, r3, r4, r6, r8, sp, lr}^
 bac:	64656e67 	strbtvs	r6, [r5], #-3687	; 0xfffff199
 bb0:	756f6400 	strbvc	r6, [pc, #-1024]!	; 7b8 <_start-0x7848>
 bb4:	00656c62 	rsbeq	r6, r5, r2, ror #24
 bb8:	6572666b 	ldrbvs	r6, [r2, #-1643]!	; 0xfffff995
 bbc:	6c615f65 	stclvs	15, cr5, [r1], #-404	; 0xfffffe6c
 bc0:	666b006c 	strbtvs	r0, [fp], -ip, rrx
 bc4:	5f656572 	svcpl	0x00656572
 bc8:	65746661 	ldrbvs	r6, [r4, #-1633]!	; 0xfffff99f
 bcc:	6d6b0072 	stclvs	0, cr0, [fp, #-456]!	; 0xfffffe38
 bd0:	6f6c6c61 	svcvs	0x006c6c61
 bd4:	65685f63 	strbvs	r5, [r8, #-3939]!	; 0xfffff09d
 bd8:	705f7061 	subsvc	r7, pc, r1, rrx
 bdc:	61007274 	tstvs	r0, r4, ror r2
 be0:	6e67696c 	vnmulvs.f16	s13, s14, s25	; <UNPREDICTABLE>
 be4:	746e656d 	strbtvc	r6, [lr], #-1389	; 0xfffffa93
 be8:	685f5f00 	ldmdavs	pc, {r8, r9, sl, fp, ip, lr}^	; <UNPREDICTABLE>
 bec:	5f706165 	svcpl	0x00706165
 bf0:	72617473 	rsbvc	r7, r1, #1929379840	; 0x73000000
 bf4:	005f5f74 	subseq	r5, pc, r4, ror pc	; <UNPREDICTABLE>
 bf8:	6c616d6b 	stclvs	13, cr6, [r1], #-428	; 0xfffffe54
 bfc:	5f636f6c 	svcpl	0x00636f6c
 c00:	70616568 	rsbvc	r6, r1, r8, ror #10
 c04:	6174735f 	cmnvs	r4, pc, asr r3
 c08:	5f007472 	svcpl	0x00007472
 c0c:	72646461 	rsbvc	r6, r4, #1627389952	; 0x61000000
 c10:	616d6b00 	cmnvs	sp, r0, lsl #22
 c14:	636f6c6c 	cmnvs	pc, #108, 24	; 0x6c00
 c18:	6165685f 	cmnvs	r5, pc, asr r8
 c1c:	6e655f70 	mcrvs	15, 3, r5, cr5, cr0, {3}
 c20:	Address 0x0000000000000c20 is out of bounds.


Disassembly of section .debug_frame:

00000000 <.debug_frame>:
   0:	0000000c 	andeq	r0, r0, ip
   4:	ffffffff 			; <UNDEFINED> instruction: 0xffffffff
   8:	7c020001 	stcvc	0, cr0, [r2], {1}
   c:	000d0c0e 	andeq	r0, sp, lr, lsl #24
  10:	00000018 	andeq	r0, r0, r8, lsl r0
  14:	00000000 	andeq	r0, r0, r0
  18:	00008010 	andeq	r8, r0, r0, lsl r0
  1c:	0000007c 	andeq	r0, r0, ip, ror r0
  20:	84100e42 	ldrhi	r0, [r0], #-3650	; 0xfffff1be
  24:	86038504 	strhi	r8, [r3], -r4, lsl #10
  28:	00018e02 	andeq	r8, r1, r2, lsl #28
  2c:	0000000c 	andeq	r0, r0, ip
  30:	ffffffff 			; <UNDEFINED> instruction: 0xffffffff
  34:	7c020001 	stcvc	0, cr0, [r2], {1}
  38:	000d0c0e 	andeq	r0, sp, lr, lsl #24
  3c:	0000000c 	andeq	r0, r0, ip
  40:	0000002c 	andeq	r0, r0, ip, lsr #32
  44:	0000808c 	andeq	r8, r0, ip, lsl #1
  48:	00000008 	andeq	r0, r0, r8
  4c:	00000014 	andeq	r0, r0, r4, lsl r0
  50:	0000002c 	andeq	r0, r0, ip, lsr #32
  54:	00008094 	muleq	r0, r4, r0
  58:	00000010 	andeq	r0, r0, r0, lsl r0
  5c:	84080e42 	strhi	r0, [r8], #-3650	; 0xfffff1be
  60:	00018e02 	andeq	r8, r1, r2, lsl #28
  64:	00000014 	andeq	r0, r0, r4, lsl r0
  68:	0000002c 	andeq	r0, r0, ip, lsr #32
  6c:	000080a4 	andeq	r8, r0, r4, lsr #1
  70:	00000018 	andeq	r0, r0, r8, lsl r0
  74:	84080e42 	strhi	r0, [r8], #-3650	; 0xfffff1be
  78:	00018e02 	andeq	r8, r1, r2, lsl #28
  7c:	0000000c 	andeq	r0, r0, ip
  80:	0000002c 	andeq	r0, r0, ip, lsr #32
  84:	000080bc 	strheq	r8, [r0], -ip
  88:	0000000c 	andeq	r0, r0, ip
  8c:	0000000c 	andeq	r0, r0, ip
  90:	0000002c 	andeq	r0, r0, ip, lsr #32
  94:	000080c8 	andeq	r8, r0, r8, asr #1
  98:	00000008 	andeq	r0, r0, r8
  9c:	0000001c 	andeq	r0, r0, ip, lsl r0
  a0:	0000002c 	andeq	r0, r0, ip, lsr #32
  a4:	000080d0 	ldrdeq	r8, [r0], -r0
  a8:	0000010c 	andeq	r0, r0, ip, lsl #2
  ac:	84180e42 	ldrhi	r0, [r8], #-3650	; 0xfffff1be
  b0:	86058506 	strhi	r8, [r5], -r6, lsl #10
  b4:	88038704 	stmdahi	r3, {r2, r8, r9, sl, pc}
  b8:	00018e02 	andeq	r8, r1, r2, lsl #28
  bc:	00000014 	andeq	r0, r0, r4, lsl r0
  c0:	0000002c 	andeq	r0, r0, ip, lsr #32
  c4:	000081dc 	ldrdeq	r8, [r0], -ip
  c8:	00000014 	andeq	r0, r0, r4, lsl r0
  cc:	84080e42 	strhi	r0, [r8], #-3650	; 0xfffff1be
  d0:	00018e02 	andeq	r8, r1, r2, lsl #28
  d4:	00000018 	andeq	r0, r0, r8, lsl r0
  d8:	0000002c 	andeq	r0, r0, ip, lsr #32
  dc:	000081f0 	strdeq	r8, [r0], -r0
  e0:	00000024 	andeq	r0, r0, r4, lsr #32
  e4:	84100e42 	ldrhi	r0, [r0], #-3650	; 0xfffff1be
  e8:	86038504 	strhi	r8, [r3], -r4, lsl #10
  ec:	00018e02 	andeq	r8, r1, r2, lsl #28
  f0:	00000018 	andeq	r0, r0, r8, lsl r0
  f4:	0000002c 	andeq	r0, r0, ip, lsr #32
  f8:	00008214 	andeq	r8, r0, r4, lsl r2
  fc:	000000e8 	andeq	r0, r0, r8, ror #1
 100:	84100e42 	ldrhi	r0, [r0], #-3650	; 0xfffff1be
 104:	86038504 	strhi	r8, [r3], -r4, lsl #10
 108:	00018e02 	andeq	r8, r1, r2, lsl #28
 10c:	0000001c 	andeq	r0, r0, ip, lsl r0
 110:	0000002c 	andeq	r0, r0, ip, lsr #32
 114:	000082fc 	strdeq	r8, [r0], -ip
 118:	000000fc 	strdeq	r0, [r0], -ip
 11c:	84180e42 	ldrhi	r0, [r8], #-3650	; 0xfffff1be
 120:	86058506 	strhi	r8, [r5], -r6, lsl #10
 124:	88038704 	stmdahi	r3, {r2, r8, r9, sl, pc}
 128:	00018e02 	andeq	r8, r1, r2, lsl #28
 12c:	00000018 	andeq	r0, r0, r8, lsl r0
 130:	0000002c 	andeq	r0, r0, ip, lsr #32
 134:	000083f8 	strdeq	r8, [r0], -r8	; <UNPREDICTABLE>
 138:	00000064 	andeq	r0, r0, r4, rrx
 13c:	84100e42 	ldrhi	r0, [r0], #-3650	; 0xfffff1be
 140:	86038504 	strhi	r8, [r3], -r4, lsl #10
 144:	00018e02 	andeq	r8, r1, r2, lsl #28
 148:	00000018 	andeq	r0, r0, r8, lsl r0
 14c:	0000002c 	andeq	r0, r0, ip, lsr #32
 150:	0000845c 	andeq	r8, r0, ip, asr r4
 154:	00000074 	andeq	r0, r0, r4, ror r0
 158:	84100e42 	ldrhi	r0, [r0], #-3650	; 0xfffff1be
 15c:	86038504 	strhi	r8, [r3], -r4, lsl #10
 160:	00018e02 	andeq	r8, r1, r2, lsl #28
 164:	0000001c 	andeq	r0, r0, ip, lsl r0
 168:	0000002c 	andeq	r0, r0, ip, lsr #32
 16c:	000084d0 	ldrdeq	r8, [r0], -r0
 170:	000000b8 	strheq	r0, [r0], -r8
 174:	84180e42 	ldrhi	r0, [r8], #-3650	; 0xfffff1be
 178:	86058506 	strhi	r8, [r5], -r6, lsl #10
 17c:	88038704 	stmdahi	r3, {r2, r8, r9, sl, pc}
 180:	00018e02 	andeq	r8, r1, r2, lsl #28
 184:	00000028 	andeq	r0, r0, r8, lsr #32
 188:	0000002c 	andeq	r0, r0, ip, lsr #32
 18c:	00008588 	andeq	r8, r0, r8, lsl #11
 190:	0000021c 	andeq	r0, r0, ip, lsl r2
 194:	841c0e42 	ldrhi	r0, [ip], #-3650	; 0xfffff1be
 198:	86068507 	strhi	r8, [r6], -r7, lsl #10
 19c:	88048705 	stmdahi	r4, {r0, r2, r8, r9, sl, pc}
 1a0:	8e028903 	vmlahi.f16	s16, s4, s6	; <UNPREDICTABLE>
 1a4:	280e4201 	stmdacs	lr, {r0, r9, lr}
 1a8:	0e0a8e02 	cdpeq	14, 0, cr8, cr10, cr2, {0}
 1ac:	000b421c 	andeq	r4, fp, ip, lsl r2
 1b0:	0000001c 	andeq	r0, r0, ip, lsl r0
 1b4:	0000002c 	andeq	r0, r0, ip, lsr #32
 1b8:	000087a4 	andeq	r8, r0, r4, lsr #15
 1bc:	00000150 	andeq	r0, r0, r0, asr r1
 1c0:	84180e42 	ldrhi	r0, [r8], #-3650	; 0xfffff1be
 1c4:	86058506 	strhi	r8, [r5], -r6, lsl #10
 1c8:	88038704 	stmdahi	r3, {r2, r8, r9, sl, pc}
 1cc:	00018e02 	andeq	r8, r1, r2, lsl #28
 1d0:	0000000c 	andeq	r0, r0, ip
 1d4:	ffffffff 			; <UNDEFINED> instruction: 0xffffffff
 1d8:	7c020001 	stcvc	0, cr0, [r2], {1}
 1dc:	000d0c0e 	andeq	r0, sp, lr, lsl #24
 1e0:	00000018 	andeq	r0, r0, r8, lsl r0
 1e4:	000001d0 	ldrdeq	r0, [r0], -r0	; <UNPREDICTABLE>
 1e8:	000088f4 	strdeq	r8, [r0], -r4
 1ec:	000000ec 	andeq	r0, r0, ip, ror #1
 1f0:	8e040e48 	cdphi	14, 0, cr0, cr4, cr8, {2}
 1f4:	0e6a0201 	cdpeq	2, 6, cr0, cr10, cr1, {0}
 1f8:	0000ce00 	andeq	ip, r0, r0, lsl #28
 1fc:	0000000c 	andeq	r0, r0, ip
 200:	ffffffff 			; <UNDEFINED> instruction: 0xffffffff
 204:	7c020001 	stcvc	0, cr0, [r2], {1}
 208:	000d0c0e 	andeq	r0, sp, lr, lsl #24
 20c:	0000000c 	andeq	r0, r0, ip
 210:	000001fc 	strdeq	r0, [r0], -ip
 214:	000089e0 	andeq	r8, r0, r0, ror #19
 218:	00000018 	andeq	r0, r0, r8, lsl r0
 21c:	0000000c 	andeq	r0, r0, ip
 220:	ffffffff 			; <UNDEFINED> instruction: 0xffffffff
 224:	7c020001 	stcvc	0, cr0, [r2], {1}
 228:	000d0c0e 	andeq	r0, sp, lr, lsl #24
 22c:	00000034 	andeq	r0, r0, r4, lsr r0
 230:	0000021c 	andeq	r0, r0, ip, lsl r2
 234:	000089f8 	strdeq	r8, [r0], -r8	; <UNPREDICTABLE>
 238:	00000058 	andeq	r0, r0, r8, asr r0
 23c:	80100e42 	andshi	r0, r0, r2, asr #28
 240:	82038104 	andhi	r8, r3, #4, 2
 244:	42018302 	andmi	r8, r1, #134217728	; 0x8000000
 248:	07841c0e 	streq	r1, [r4, lr, lsl #24]
 24c:	058e0685 	streq	r0, [lr, #1669]	; 0x685
 250:	5c280e42 	stcpl	14, cr0, [r8], #-264	; 0xfffffef8
 254:	ce421c0e 	cdpgt	12, 4, cr1, cr2, cr14, {0}
 258:	100ec4c5 	andne	ip, lr, r5, asr #9
 25c:	c1c2c342 	bicgt	ip, r2, r2, asr #6
 260:	00000ec0 	andeq	r0, r0, r0, asr #29
 264:	0000000c 	andeq	r0, r0, ip
 268:	ffffffff 			; <UNDEFINED> instruction: 0xffffffff
 26c:	7c020001 	stcvc	0, cr0, [r2], {1}
 270:	000d0c0e 	andeq	r0, sp, lr, lsl #24
 274:	00000014 	andeq	r0, r0, r4, lsl r0
 278:	00000264 	andeq	r0, r0, r4, ror #4
 27c:	00008a50 	andeq	r8, r0, r0, asr sl
 280:	00000014 	andeq	r0, r0, r4, lsl r0
 284:	84080e42 	strhi	r0, [r8], #-3650	; 0xfffff1be
 288:	00018e02 	andeq	r8, r1, r2, lsl #28
 28c:	0000000c 	andeq	r0, r0, ip
 290:	00000264 	andeq	r0, r0, r4, ror #4
 294:	00008a64 	andeq	r8, r0, r4, ror #20
 298:	00000018 	andeq	r0, r0, r8, lsl r0
 29c:	0000000c 	andeq	r0, r0, ip
 2a0:	00000264 	andeq	r0, r0, r4, ror #4
 2a4:	00008a7c 	andeq	r8, r0, ip, ror sl
 2a8:	00000010 	andeq	r0, r0, r0, lsl r0
 2ac:	0000000c 	andeq	r0, r0, ip
 2b0:	ffffffff 			; <UNDEFINED> instruction: 0xffffffff
 2b4:	7c020001 	stcvc	0, cr0, [r2], {1}
 2b8:	000d0c0e 	andeq	r0, sp, lr, lsl #24
 2bc:	00000014 	andeq	r0, r0, r4, lsl r0
 2c0:	000002ac 	andeq	r0, r0, ip, lsr #5
 2c4:	00008a8c 	andeq	r8, r0, ip, lsl #21
 2c8:	00000034 	andeq	r0, r0, r4, lsr r0
 2cc:	84080e42 	strhi	r0, [r8], #-3650	; 0xfffff1be
 2d0:	00018e02 	andeq	r8, r1, r2, lsl #28
 2d4:	0000000c 	andeq	r0, r0, ip
 2d8:	ffffffff 			; <UNDEFINED> instruction: 0xffffffff
 2dc:	7c020001 	stcvc	0, cr0, [r2], {1}
 2e0:	000d0c0e 	andeq	r0, sp, lr, lsl #24
 2e4:	0000000c 	andeq	r0, r0, ip
 2e8:	000002d4 	ldrdeq	r0, [r0], -r4
 2ec:	00008ac0 	andeq	r8, r0, r0, asr #21
 2f0:	00000014 	andeq	r0, r0, r4, lsl r0
 2f4:	0000000c 	andeq	r0, r0, ip
 2f8:	000002d4 	ldrdeq	r0, [r0], -r4
 2fc:	00008ad4 	ldrdeq	r8, [r0], -r4
 300:	00000024 	andeq	r0, r0, r4, lsr #32
 304:	0000000c 	andeq	r0, r0, ip
 308:	000002d4 	ldrdeq	r0, [r0], -r4
 30c:	00008af8 	strdeq	r8, [r0], -r8	; <UNPREDICTABLE>
 310:	00000038 	andeq	r0, r0, r8, lsr r0
 314:	00000024 	andeq	r0, r0, r4, lsr #32
 318:	000002d4 	ldrdeq	r0, [r0], -r4
 31c:	00008b30 	andeq	r8, r0, r0, lsr fp
 320:	000001ac 	andeq	r0, r0, ip, lsr #3
 324:	84140e42 	ldrhi	r0, [r4], #-3650	; 0xfffff1be
 328:	86048505 	strhi	r8, [r4], -r5, lsl #10
 32c:	8e028703 	cdphi	7, 0, cr8, cr2, cr3, {0}
 330:	580e4201 	stmdapl	lr, {r0, r9, lr}
 334:	0e0a9a02 	vmlaeq.f32	s18, s20, s4
 338:	000b4214 	andeq	r4, fp, r4, lsl r2
 33c:	00000014 	andeq	r0, r0, r4, lsl r0
 340:	000002d4 	ldrdeq	r0, [r0], -r4
 344:	00008cdc 	ldrdeq	r8, [r0], -ip
 348:	00000054 	andeq	r0, r0, r4, asr r0
 34c:	84080e52 	strhi	r0, [r8], #-3666	; 0xfffff1ae
 350:	00018e02 	andeq	r8, r1, r2, lsl #28
 354:	00000028 	andeq	r0, r0, r8, lsr #32
 358:	000002d4 	ldrdeq	r0, [r0], -r4
 35c:	00008d30 	andeq	r8, r0, r0, lsr sp
 360:	000002b0 			; <UNDEFINED> instruction: 0x000002b0
 364:	841c0e42 	ldrhi	r0, [ip], #-3650	; 0xfffff1be
 368:	86068507 	strhi	r8, [r6], -r7, lsl #10
 36c:	88048705 	stmdahi	r4, {r0, r2, r8, r9, sl, pc}
 370:	8e028903 	vmlahi.f16	s16, s4, s6	; <UNPREDICTABLE>
 374:	b00e4201 	andlt	r4, lr, r1, lsl #4
 378:	01480301 	cmpeq	r8, r1, lsl #6
 37c:	00001c0e 	andeq	r1, r0, lr, lsl #24
 380:	0000000c 	andeq	r0, r0, ip
 384:	ffffffff 			; <UNDEFINED> instruction: 0xffffffff
 388:	7c020001 	stcvc	0, cr0, [r2], {1}
 38c:	000d0c0e 	andeq	r0, sp, lr, lsl #24
 390:	00000014 	andeq	r0, r0, r4, lsl r0
 394:	00000380 	andeq	r0, r0, r0, lsl #7
 398:	00008fe0 	andeq	r8, r0, r0, ror #31
 39c:	00000028 	andeq	r0, r0, r8, lsr #32
 3a0:	84080e42 	strhi	r0, [r8], #-3650	; 0xfffff1be
 3a4:	00018e02 	andeq	r8, r1, r2, lsl #28
 3a8:	0000000c 	andeq	r0, r0, ip
 3ac:	ffffffff 			; <UNDEFINED> instruction: 0xffffffff
 3b0:	7c020001 	stcvc	0, cr0, [r2], {1}
 3b4:	000d0c0e 	andeq	r0, sp, lr, lsl #24
 3b8:	00000014 	andeq	r0, r0, r4, lsl r0
 3bc:	000003a8 	andeq	r0, r0, r8, lsr #7
 3c0:	00009008 	andeq	r9, r0, r8
 3c4:	0000002c 	andeq	r0, r0, ip, lsr #32
 3c8:	84080e42 	strhi	r0, [r8], #-3650	; 0xfffff1be
 3cc:	00018e02 	andeq	r8, r1, r2, lsl #28
 3d0:	0000000c 	andeq	r0, r0, ip
 3d4:	ffffffff 			; <UNDEFINED> instruction: 0xffffffff
 3d8:	7c020001 	stcvc	0, cr0, [r2], {1}
 3dc:	000d0c0e 	andeq	r0, sp, lr, lsl #24
 3e0:	0000000c 	andeq	r0, r0, ip
 3e4:	000003d0 	ldrdeq	r0, [r0], -r0	; <UNPREDICTABLE>
 3e8:	00009034 	andeq	r9, r0, r4, lsr r0
 3ec:	00000018 	andeq	r0, r0, r8, lsl r0
 3f0:	0000000c 	andeq	r0, r0, ip
 3f4:	000003d0 	ldrdeq	r0, [r0], -r0	; <UNPREDICTABLE>
 3f8:	0000904c 	andeq	r9, r0, ip, asr #32
 3fc:	00000014 	andeq	r0, r0, r4, lsl r0
 400:	00000014 	andeq	r0, r0, r4, lsl r0
 404:	000003d0 	ldrdeq	r0, [r0], -r0	; <UNPREDICTABLE>
 408:	00009060 	andeq	r9, r0, r0, rrx
 40c:	0000004c 	andeq	r0, r0, ip, asr #32
 410:	84080e42 	strhi	r0, [r8], #-3650	; 0xfffff1be
 414:	00018e02 	andeq	r8, r1, r2, lsl #28
 418:	0000000c 	andeq	r0, r0, ip
 41c:	ffffffff 			; <UNDEFINED> instruction: 0xffffffff
 420:	7c020001 	stcvc	0, cr0, [r2], {1}
 424:	000d0c0e 	andeq	r0, sp, lr, lsl #24
 428:	0000000c 	andeq	r0, r0, ip
 42c:	00000418 	andeq	r0, r0, r8, lsl r4
 430:	000090ac 	andeq	r9, r0, ip, lsr #1
 434:	00000018 	andeq	r0, r0, r8, lsl r0
 438:	00000014 	andeq	r0, r0, r4, lsl r0
 43c:	00000418 	andeq	r0, r0, r8, lsl r4
 440:	000090c4 	andeq	r9, r0, r4, asr #1
 444:	00000014 	andeq	r0, r0, r4, lsl r0
 448:	84080e42 	strhi	r0, [r8], #-3650	; 0xfffff1be
 44c:	00018e02 	andeq	r8, r1, r2, lsl #28
 450:	00000014 	andeq	r0, r0, r4, lsl r0
 454:	00000418 	andeq	r0, r0, r8, lsl r4
 458:	000090d8 	ldrdeq	r9, [r0], -r8
 45c:	0000000c 	andeq	r0, r0, ip
 460:	84080e42 	strhi	r0, [r8], #-3650	; 0xfffff1be
 464:	00018e02 	andeq	r8, r1, r2, lsl #28
 468:	00000018 	andeq	r0, r0, r8, lsl r0
 46c:	00000418 	andeq	r0, r0, r8, lsl r4
 470:	000090e4 	andeq	r9, r0, r4, ror #1
 474:	00000024 	andeq	r0, r0, r4, lsr #32
 478:	84100e42 	ldrhi	r0, [r0], #-3650	; 0xfffff1be
 47c:	86038504 	strhi	r8, [r3], -r4, lsl #10
 480:	00018e02 	andeq	r8, r1, r2, lsl #28
 484:	00000014 	andeq	r0, r0, r4, lsl r0
 488:	00000418 	andeq	r0, r0, r8, lsl r4
 48c:	00009108 	andeq	r9, r0, r8, lsl #2
 490:	00000018 	andeq	r0, r0, r8, lsl r0
 494:	84080e42 	strhi	r0, [r8], #-3650	; 0xfffff1be
 498:	00018e02 	andeq	r8, r1, r2, lsl #28
 49c:	00000014 	andeq	r0, r0, r4, lsl r0
 4a0:	00000418 	andeq	r0, r0, r8, lsl r4
 4a4:	00009120 	andeq	r9, r0, r0, lsr #2
 4a8:	00000018 	andeq	r0, r0, r8, lsl r0
 4ac:	84080e42 	strhi	r0, [r8], #-3650	; 0xfffff1be
 4b0:	00018e02 	andeq	r8, r1, r2, lsl #28
 4b4:	0000000c 	andeq	r0, r0, ip
 4b8:	ffffffff 			; <UNDEFINED> instruction: 0xffffffff
 4bc:	7c020001 	stcvc	0, cr0, [r2], {1}
 4c0:	000d0c0e 	andeq	r0, sp, lr, lsl #24
 4c4:	00000018 	andeq	r0, r0, r8, lsl r0
 4c8:	000004b4 			; <UNDEFINED> instruction: 0x000004b4
 4cc:	00009184 	andeq	r9, r0, r4, lsl #3
 4d0:	00000020 	andeq	r0, r0, r0, lsr #32
 4d4:	84100e42 	ldrhi	r0, [r0], #-3650	; 0xfffff1be
 4d8:	86038504 	strhi	r8, [r3], -r4, lsl #10
 4dc:	00018e02 	andeq	r8, r1, r2, lsl #28
 4e0:	00000014 	andeq	r0, r0, r4, lsl r0
 4e4:	000004b4 			; <UNDEFINED> instruction: 0x000004b4
 4e8:	000091a4 	andeq	r9, r0, r4, lsr #3
 4ec:	000000b0 	strheq	r0, [r0], -r0	; <UNPREDICTABLE>
 4f0:	84080e42 	strhi	r0, [r8], #-3650	; 0xfffff1be
 4f4:	00018e02 	andeq	r8, r1, r2, lsl #28
 4f8:	00000014 	andeq	r0, r0, r4, lsl r0
 4fc:	000004b4 			; <UNDEFINED> instruction: 0x000004b4
 500:	00009254 	andeq	r9, r0, r4, asr r2
 504:	00000018 	andeq	r0, r0, r8, lsl r0
 508:	84080e42 	strhi	r0, [r8], #-3650	; 0xfffff1be
 50c:	00018e02 	andeq	r8, r1, r2, lsl #28
 510:	00000014 	andeq	r0, r0, r4, lsl r0
 514:	000004b4 			; <UNDEFINED> instruction: 0x000004b4
 518:	0000926c 	andeq	r9, r0, ip, ror #4
 51c:	00000020 	andeq	r0, r0, r0, lsr #32
 520:	84080e42 	strhi	r0, [r8], #-3650	; 0xfffff1be
 524:	00018e02 	andeq	r8, r1, r2, lsl #28
 528:	00000014 	andeq	r0, r0, r4, lsl r0
 52c:	000004b4 			; <UNDEFINED> instruction: 0x000004b4
 530:	0000928c 	andeq	r9, r0, ip, lsl #5
 534:	00000030 	andeq	r0, r0, r0, lsr r0
 538:	84080e42 	strhi	r0, [r8], #-3650	; 0xfffff1be
 53c:	00018e02 	andeq	r8, r1, r2, lsl #28
 540:	00000014 	andeq	r0, r0, r4, lsl r0
 544:	000004b4 			; <UNDEFINED> instruction: 0x000004b4
 548:	000092bc 			; <UNDEFINED> instruction: 0x000092bc
 54c:	00000030 	andeq	r0, r0, r0, lsr r0
 550:	84080e42 	strhi	r0, [r8], #-3650	; 0xfffff1be
 554:	00018e02 	andeq	r8, r1, r2, lsl #28
 558:	00000014 	andeq	r0, r0, r4, lsl r0
 55c:	000004b4 			; <UNDEFINED> instruction: 0x000004b4
 560:	000092ec 	andeq	r9, r0, ip, ror #5
 564:	00000010 	andeq	r0, r0, r0, lsl r0
 568:	84080e42 	strhi	r0, [r8], #-3650	; 0xfffff1be
 56c:	00018e02 	andeq	r8, r1, r2, lsl #28
 570:	0000000c 	andeq	r0, r0, ip
 574:	ffffffff 			; <UNDEFINED> instruction: 0xffffffff
 578:	7c020001 	stcvc	0, cr0, [r2], {1}
 57c:	000d0c0e 	andeq	r0, sp, lr, lsl #24
 580:	00000018 	andeq	r0, r0, r8, lsl r0
 584:	00000570 	andeq	r0, r0, r0, ror r5
 588:	000092fc 	strdeq	r9, [r0], -ip
 58c:	00000068 	andeq	r0, r0, r8, rrx
 590:	84100e4a 	ldrhi	r0, [r0], #-3658	; 0xfffff1b6
 594:	86038504 	strhi	r8, [r3], -r4, lsl #10
 598:	00018e02 	andeq	r8, r1, r2, lsl #28
 59c:	00000014 	andeq	r0, r0, r4, lsl r0
 5a0:	00000570 	andeq	r0, r0, r0, ror r5
 5a4:	00009364 	andeq	r9, r0, r4, ror #6
 5a8:	00000010 	andeq	r0, r0, r0, lsl r0
 5ac:	84080e42 	strhi	r0, [r8], #-3650	; 0xfffff1be
 5b0:	00018e02 	andeq	r8, r1, r2, lsl #28
 5b4:	00000014 	andeq	r0, r0, r4, lsl r0
 5b8:	00000570 	andeq	r0, r0, r0, ror r5
 5bc:	00009374 	andeq	r9, r0, r4, ror r3
 5c0:	00000024 	andeq	r0, r0, r4, lsr #32
 5c4:	84080e46 	strhi	r0, [r8], #-3654	; 0xfffff1ba
 5c8:	00018e02 	andeq	r8, r1, r2, lsl #28
 5cc:	00000014 	andeq	r0, r0, r4, lsl r0
 5d0:	00000570 	andeq	r0, r0, r0, ror r5
 5d4:	00009398 	muleq	r0, r8, r3
 5d8:	00000024 	andeq	r0, r0, r4, lsr #32
 5dc:	84080e46 	strhi	r0, [r8], #-3654	; 0xfffff1ba
 5e0:	00018e02 	andeq	r8, r1, r2, lsl #28
 5e4:	00000014 	andeq	r0, r0, r4, lsl r0
 5e8:	00000570 	andeq	r0, r0, r0, ror r5
 5ec:	000093bc 			; <UNDEFINED> instruction: 0x000093bc
 5f0:	00000010 	andeq	r0, r0, r0, lsl r0
 5f4:	84080e42 	strhi	r0, [r8], #-3650	; 0xfffff1be
 5f8:	00018e02 	andeq	r8, r1, r2, lsl #28
 5fc:	00000014 	andeq	r0, r0, r4, lsl r0
 600:	00000570 	andeq	r0, r0, r0, ror r5
 604:	000093cc 	andeq	r9, r0, ip, asr #7
 608:	0000001c 	andeq	r0, r0, ip, lsl r0
 60c:	84080e42 	strhi	r0, [r8], #-3650	; 0xfffff1be
 610:	00018e02 	andeq	r8, r1, r2, lsl #28
 614:	00000018 	andeq	r0, r0, r8, lsl r0
 618:	00000570 	andeq	r0, r0, r0, ror r5
 61c:	000093e8 	andeq	r9, r0, r8, ror #7
 620:	00000034 	andeq	r0, r0, r4, lsr r0
 624:	84080e46 	strhi	r0, [r8], #-3654	; 0xfffff1ba
 628:	4e018e02 	cdpmi	14, 0, cr8, cr1, cr2, {0}
 62c:	cec4000e 	cdpgt	0, 12, cr0, cr4, cr14, {0}
 630:	0000000c 	andeq	r0, r0, ip
 634:	ffffffff 			; <UNDEFINED> instruction: 0xffffffff
 638:	7c020001 	stcvc	0, cr0, [r2], {1}
 63c:	000d0c0e 	andeq	r0, sp, lr, lsl #24
 640:	0000000c 	andeq	r0, r0, ip
 644:	00000630 	andeq	r0, r0, r0, lsr r6
 648:	0000941c 	andeq	r9, r0, ip, lsl r4
 64c:	00000010 	andeq	r0, r0, r0, lsl r0
 650:	0000000c 	andeq	r0, r0, ip
 654:	00000630 	andeq	r0, r0, r0, lsr r6
 658:	0000942c 	andeq	r9, r0, ip, lsr #8
 65c:	0000000c 	andeq	r0, r0, ip
 660:	00000014 	andeq	r0, r0, r4, lsl r0
 664:	00000630 	andeq	r0, r0, r0, lsr r6
 668:	00009438 	andeq	r9, r0, r8, lsr r4
 66c:	00000050 	andeq	r0, r0, r0, asr r0
 670:	84080e52 	strhi	r0, [r8], #-3666	; 0xfffff1ae
 674:	00018e02 	andeq	r8, r1, r2, lsl #28
 678:	00000014 	andeq	r0, r0, r4, lsl r0
 67c:	00000630 	andeq	r0, r0, r0, lsr r6
 680:	00009488 	andeq	r9, r0, r8, lsl #9
 684:	00000064 	andeq	r0, r0, r4, rrx
 688:	84080e42 	strhi	r0, [r8], #-3650	; 0xfffff1be
 68c:	00018e02 	andeq	r8, r1, r2, lsl #28
 690:	0000000c 	andeq	r0, r0, ip
 694:	00000630 	andeq	r0, r0, r0, lsr r6
 698:	000094ec 	andeq	r9, r0, ip, ror #9
 69c:	00000004 	andeq	r0, r0, r4
 6a0:	00000014 	andeq	r0, r0, r4, lsl r0
 6a4:	00000630 	andeq	r0, r0, r0, lsr r6
 6a8:	000094f0 	strdeq	r9, [r0], -r0
 6ac:	0000000c 	andeq	r0, r0, ip
 6b0:	84080e42 	strhi	r0, [r8], #-3650	; 0xfffff1be
 6b4:	00018e02 	andeq	r8, r1, r2, lsl #28
 6b8:	00000014 	andeq	r0, r0, r4, lsl r0
 6bc:	00000630 	andeq	r0, r0, r0, lsr r6
 6c0:	000094fc 	strdeq	r9, [r0], -ip
 6c4:	0000008c 	andeq	r0, r0, ip, lsl #1
 6c8:	84080e42 	strhi	r0, [r8], #-3650	; 0xfffff1be
 6cc:	00018e02 	andeq	r8, r1, r2, lsl #28
 6d0:	0000000c 	andeq	r0, r0, ip
 6d4:	00000630 	andeq	r0, r0, r0, lsr r6
 6d8:	00009588 	andeq	r9, r0, r8, lsl #11
 6dc:	00000004 	andeq	r0, r0, r4
 6e0:	0000000c 	andeq	r0, r0, ip
 6e4:	00000630 	andeq	r0, r0, r0, lsr r6
 6e8:	0000958c 	andeq	r9, r0, ip, lsl #11
 6ec:	00000014 	andeq	r0, r0, r4, lsl r0
 6f0:	0000000c 	andeq	r0, r0, ip
 6f4:	00000630 	andeq	r0, r0, r0, lsr r6
 6f8:	000095a0 	andeq	r9, r0, r0, lsr #11
 6fc:	00000010 	andeq	r0, r0, r0, lsl r0

Disassembly of section .debug_ranges:

00000000 <.debug_ranges>:
   0:	000000a0 	andeq	r0, r0, r0, lsr #1
   4:	000000e8 	andeq	r0, r0, r8, ror #1
   8:	00000100 	andeq	r0, r0, r0, lsl #2
   c:	0000012c 	andeq	r0, r0, ip, lsr #2
	...
  18:	000001d4 	ldrdeq	r0, [r0], -r4
  1c:	0000021c 	andeq	r0, r0, ip, lsl r2
  20:	00000220 	andeq	r0, r0, r0, lsr #4
  24:	00000250 	andeq	r0, r0, r0, asr r2
	...
  30:	000002d0 	ldrdeq	r0, [r0], -r0	; <UNPREDICTABLE>
  34:	00000318 	andeq	r0, r0, r8, lsl r3
  38:	0000031c 	andeq	r0, r0, ip, lsl r3
  3c:	0000034c 	andeq	r0, r0, ip, asr #6
	...
  48:	0000074c 	andeq	r0, r0, ip, asr #14
  4c:	00000750 	andeq	r0, r0, r0, asr r7
  50:	00000758 	andeq	r0, r0, r8, asr r7
  54:	00000764 	andeq	r0, r0, r4, ror #14
  58:	0000078c 	andeq	r0, r0, ip, lsl #15
  5c:	0000083c 	andeq	r0, r0, ip, lsr r8
	...
  68:	00009034 	andeq	r9, r0, r4, lsr r0
  6c:	000090ac 	andeq	r9, r0, ip, lsr #1
	...
