
part1-test2.elf:     file format elf32-littlearm


Disassembly of section .text:

00008000 <_start>:
    8000:	e3a0d302 	mov	sp, #134217728	; 0x8000000
    8004:	e3a0b000 	mov	fp, #0
    8008:	eb000402 	bl	9018 <_cstart>
    800c:	eb000419 	bl	9078 <rpi_reboot>

00008010 <notmain>:
    8010:	e92d4070 	push	{r4, r5, r6, lr}
    8014:	e59f0064 	ldr	r0, [pc, #100]	; 8080 <notmain+0x70>
    8018:	eb000239 	bl	8904 <printk>
    801c:	e3a00601 	mov	r0, #1048576	; 0x100000
    8020:	eb000513 	bl	9474 <kmalloc_init_set_start>
    8024:	e3a00601 	mov	r0, #1048576	; 0x100000
    8028:	eb000525 	bl	94c4 <kmalloc>
    802c:	e3a01601 	mov	r1, #1048576	; 0x100000
    8030:	eb00010f 	bl	8474 <ck_init>
    8034:	e59f6048 	ldr	r6, [pc, #72]	; 8084 <notmain+0x74>
    8038:	e59f5048 	ldr	r5, [pc, #72]	; 8088 <notmain+0x78>
    803c:	e3a0300d 	mov	r3, #13
    8040:	e1a02006 	mov	r2, r6
    8044:	e1a01005 	mov	r1, r5
    8048:	e3a00004 	mov	r0, #4
    804c:	eb000153 	bl	85a0 <ckalloc>
    8050:	e1a04000 	mov	r4, r0
    8054:	e3a02004 	mov	r2, #4
    8058:	e3a01000 	mov	r1, #0
    805c:	eb0003e5 	bl	8ff8 <memset>
    8060:	e3a03001 	mov	r3, #1
    8064:	e5c43004 	strb	r3, [r4, #4]
    8068:	e3a03010 	mov	r3, #16
    806c:	e1a02006 	mov	r2, r6
    8070:	e1a01005 	mov	r1, r5
    8074:	e1a00004 	mov	r0, r4
    8078:	eb00011a 	bl	84e8 <ckfree>
    807c:	e8bd8070 	pop	{r4, r5, r6, pc}
    8080:	0000961c 	andeq	r9, r0, ip, lsl r6
    8084:	00009614 	andeq	r9, r0, r4, lsl r6
    8088:	00009640 	andeq	r9, r0, r0, asr #12

0000808c <b_rz1_ptr>:
    808c:	e2800038 	add	r0, r0, #56	; 0x38
    8090:	e12fff1e 	bx	lr

00008094 <b_alloc_ptr>:
    8094:	e92d4010 	push	{r4, lr}
    8098:	ebfffffb 	bl	808c <b_rz1_ptr>
    809c:	e2800080 	add	r0, r0, #128	; 0x80
    80a0:	e8bd8010 	pop	{r4, pc}

000080a4 <b_rz2_ptr>:
    80a4:	e92d4010 	push	{r4, lr}
    80a8:	e1a04000 	mov	r4, r0
    80ac:	ebfffff8 	bl	8094 <b_alloc_ptr>
    80b0:	e5943000 	ldr	r3, [r4]
    80b4:	e0800003 	add	r0, r0, r3
    80b8:	e8bd8010 	pop	{r4, pc}

000080bc <b_rz2_nbytes>:
    80bc:	e5900004 	ldr	r0, [r0, #4]
    80c0:	e2800080 	add	r0, r0, #128	; 0x80
    80c4:	e12fff1e 	bx	lr

000080c8 <b_addr_to_hdr>:
    80c8:	e24000b8 	sub	r0, r0, #184	; 0xb8
    80cc:	e12fff1e 	bx	lr

000080d0 <check_free_write>:
    80d0:	e92d41f0 	push	{r4, r5, r6, r7, r8, lr}
    80d4:	e3a04000 	mov	r4, #0
    80d8:	e1540001 	cmp	r4, r1
    80dc:	2a000035 	bcs	81b8 <check_free_write+0xe8>
    80e0:	e7d03004 	ldrb	r3, [r0, r4]
    80e4:	e35300fe 	cmp	r3, #254	; 0xfe
    80e8:	02844001 	addeq	r4, r4, #1
    80ec:	0afffff9 	beq	80d8 <check_free_write+0x8>
    80f0:	e1a06002 	mov	r6, r2
    80f4:	e1a05000 	mov	r5, r0
    80f8:	e1a00002 	mov	r0, r2
    80fc:	ebffffe4 	bl	8094 <b_alloc_ptr>
    8100:	e0450000 	sub	r0, r5, r0
    8104:	e0844000 	add	r4, r4, r0
    8108:	e59f70b0 	ldr	r7, [pc, #176]	; 81c0 <check_free_write+0xf0>
    810c:	e1a00007 	mov	r0, r7
    8110:	eb0001fb 	bl	8904 <printk>
    8114:	e59f00a8 	ldr	r0, [pc, #168]	; 81c4 <check_free_write+0xf4>
    8118:	eb0001f9 	bl	8904 <printk>
    811c:	e1a02004 	mov	r2, r4
    8120:	e1a01005 	mov	r1, r5
    8124:	e59f009c 	ldr	r0, [pc, #156]	; 81c8 <check_free_write+0xf8>
    8128:	eb0001f5 	bl	8904 <printk>
    812c:	e1a00007 	mov	r0, r7
    8130:	eb0001f3 	bl	8904 <printk>
    8134:	e5961000 	ldr	r1, [r6]
    8138:	e59f008c 	ldr	r0, [pc, #140]	; 81cc <check_free_write+0xfc>
    813c:	eb0001f0 	bl	8904 <printk>
    8140:	e5963010 	ldr	r3, [r6, #16]
    8144:	e3530000 	cmp	r3, #0
    8148:	0a000006 	beq	8168 <check_free_write+0x98>
    814c:	e1a00007 	mov	r0, r7
    8150:	eb0001eb 	bl	8904 <printk>
    8154:	e5963018 	ldr	r3, [r6, #24]
    8158:	e5962014 	ldr	r2, [r6, #20]
    815c:	e5961010 	ldr	r1, [r6, #16]
    8160:	e59f0068 	ldr	r0, [pc, #104]	; 81d0 <check_free_write+0x100>
    8164:	eb0001e6 	bl	8904 <printk>
    8168:	e5963008 	ldr	r3, [r6, #8]
    816c:	e353000c 	cmp	r3, #12
    8170:	0a000005 	beq	818c <check_free_write+0xbc>
    8174:	e59f0044 	ldr	r0, [pc, #68]	; 81c0 <check_free_write+0xf0>
    8178:	eb0001e1 	bl	8904 <printk>
    817c:	e59f0050 	ldr	r0, [pc, #80]	; 81d4 <check_free_write+0x104>
    8180:	eb0001df 	bl	8904 <printk>
    8184:	e3a00000 	mov	r0, #0
    8188:	e8bd81f0 	pop	{r4, r5, r6, r7, r8, pc}
    818c:	e596301c 	ldr	r3, [r6, #28]
    8190:	e3530000 	cmp	r3, #0
    8194:	0afffff6 	beq	8174 <check_free_write+0xa4>
    8198:	e59f0020 	ldr	r0, [pc, #32]	; 81c0 <check_free_write+0xf0>
    819c:	eb0001d8 	bl	8904 <printk>
    81a0:	e5963024 	ldr	r3, [r6, #36]	; 0x24
    81a4:	e5962020 	ldr	r2, [r6, #32]
    81a8:	e596101c 	ldr	r1, [r6, #28]
    81ac:	e59f0024 	ldr	r0, [pc, #36]	; 81d8 <check_free_write+0x108>
    81b0:	eb0001d3 	bl	8904 <printk>
    81b4:	eaffffee 	b	8174 <check_free_write+0xa4>
    81b8:	e3a00001 	mov	r0, #1
    81bc:	e8bd81f0 	pop	{r4, r5, r6, r7, r8, pc}
    81c0:	00009668 	andeq	r9, r0, r8, ror #12
    81c4:	00009670 	andeq	r9, r0, r0, ror r6
    81c8:	00009678 	andeq	r9, r0, r8, ror r6
    81cc:	0000969c 	muleq	r0, ip, r6
    81d0:	000096a8 	andeq	r9, r0, r8, lsr #13
    81d4:	000096e4 	andeq	r9, r0, r4, ror #13
    81d8:	000096c8 	andeq	r9, r0, r8, asr #13

000081dc <mark_mem>:
    81dc:	e92d4010 	push	{r4, lr}
    81e0:	e1a02001 	mov	r2, r1
    81e4:	e3a010fe 	mov	r1, #254	; 0xfe
    81e8:	eb000382 	bl	8ff8 <memset>
    81ec:	e8bd8010 	pop	{r4, pc}

000081f0 <hdr_cksum>:
    81f0:	e92d4070 	push	{r4, r5, r6, lr}
    81f4:	e1a04000 	mov	r4, r0
    81f8:	e590500c 	ldr	r5, [r0, #12]
    81fc:	e3a03000 	mov	r3, #0
    8200:	e580300c 	str	r3, [r0, #12]
    8204:	e3a01038 	mov	r1, #56	; 0x38
    8208:	eb000324 	bl	8ea0 <fast_hash>
    820c:	e584500c 	str	r5, [r4, #12]
    8210:	e8bd8070 	pop	{r4, r5, r6, pc}

00008214 <check_hdr>:
    8214:	e92d4070 	push	{r4, r5, r6, lr}
    8218:	e1a04000 	mov	r4, r0
    821c:	e5903008 	ldr	r3, [r0, #8]
    8220:	e243300b 	sub	r3, r3, #11
    8224:	e3530001 	cmp	r3, #1
    8228:	9a00001c 	bls	82a0 <check_hdr+0x8c>
    822c:	e59f50bc 	ldr	r5, [pc, #188]	; 82f0 <check_hdr+0xdc>
    8230:	e1a00005 	mov	r0, r5
    8234:	eb0001b2 	bl	8904 <printk>
    8238:	e59f00b4 	ldr	r0, [pc, #180]	; 82f4 <check_hdr+0xe0>
    823c:	eb0001b0 	bl	8904 <printk>
    8240:	e3a02000 	mov	r2, #0
    8244:	e1a01004 	mov	r1, r4
    8248:	e59f00a8 	ldr	r0, [pc, #168]	; 82f8 <check_hdr+0xe4>
    824c:	eb0001ac 	bl	8904 <printk>
    8250:	e1a00005 	mov	r0, r5
    8254:	eb0001aa 	bl	8904 <printk>
    8258:	e5941000 	ldr	r1, [r4]
    825c:	e59f0098 	ldr	r0, [pc, #152]	; 82fc <check_hdr+0xe8>
    8260:	eb0001a7 	bl	8904 <printk>
    8264:	e5943010 	ldr	r3, [r4, #16]
    8268:	e3530000 	cmp	r3, #0
    826c:	0a000006 	beq	828c <check_hdr+0x78>
    8270:	e1a00005 	mov	r0, r5
    8274:	eb0001a2 	bl	8904 <printk>
    8278:	e5943018 	ldr	r3, [r4, #24]
    827c:	e5942014 	ldr	r2, [r4, #20]
    8280:	e5941010 	ldr	r1, [r4, #16]
    8284:	e59f0074 	ldr	r0, [pc, #116]	; 8300 <check_hdr+0xec>
    8288:	eb00019d 	bl	8904 <printk>
    828c:	e5943008 	ldr	r3, [r4, #8]
    8290:	e353000c 	cmp	r3, #12
    8294:	0a000007 	beq	82b8 <check_hdr+0xa4>
    8298:	e3a00000 	mov	r0, #0
    829c:	e8bd8070 	pop	{r4, r5, r6, pc}
    82a0:	e590500c 	ldr	r5, [r0, #12]
    82a4:	ebffffd1 	bl	81f0 <hdr_cksum>
    82a8:	e1550000 	cmp	r5, r0
    82ac:	1affffde 	bne	822c <check_hdr+0x18>
    82b0:	e3a00001 	mov	r0, #1
    82b4:	e8bd8070 	pop	{r4, r5, r6, pc}
    82b8:	e594301c 	ldr	r3, [r4, #28]
    82bc:	e3530000 	cmp	r3, #0
    82c0:	0a000008 	beq	82e8 <check_hdr+0xd4>
    82c4:	e59f0024 	ldr	r0, [pc, #36]	; 82f0 <check_hdr+0xdc>
    82c8:	eb00018d 	bl	8904 <printk>
    82cc:	e5943024 	ldr	r3, [r4, #36]	; 0x24
    82d0:	e5942020 	ldr	r2, [r4, #32]
    82d4:	e594101c 	ldr	r1, [r4, #28]
    82d8:	e59f0024 	ldr	r0, [pc, #36]	; 8304 <check_hdr+0xf0>
    82dc:	eb000188 	bl	8904 <printk>
    82e0:	e3a00000 	mov	r0, #0
    82e4:	e8bd8070 	pop	{r4, r5, r6, pc}
    82e8:	e3a00000 	mov	r0, #0
    82ec:	e8bd8070 	pop	{r4, r5, r6, pc}
    82f0:	00009668 	andeq	r9, r0, r8, ror #12
    82f4:	00009670 	andeq	r9, r0, r0, ror r6
    82f8:	00009678 	andeq	r9, r0, r8, ror r6
    82fc:	0000969c 	muleq	r0, ip, r6
    8300:	000096a8 	andeq	r9, r0, r8, lsr #13
    8304:	000096c8 	andeq	r9, r0, r8, asr #13

00008308 <check_mem>:
    8308:	e92d41f0 	push	{r4, r5, r6, r7, r8, lr}
    830c:	e3a04000 	mov	r4, #0
    8310:	e1540001 	cmp	r4, r1
    8314:	2a000033 	bcs	83e8 <check_mem+0xe0>
    8318:	e7d03004 	ldrb	r3, [r0, r4]
    831c:	e35300fe 	cmp	r3, #254	; 0xfe
    8320:	02844001 	addeq	r4, r4, #1
    8324:	0afffff9 	beq	8310 <check_mem+0x8>
    8328:	e1a06002 	mov	r6, r2
    832c:	e1a05000 	mov	r5, r0
    8330:	e1a00002 	mov	r0, r2
    8334:	ebffff56 	bl	8094 <b_alloc_ptr>
    8338:	e0450000 	sub	r0, r5, r0
    833c:	e0844000 	add	r4, r4, r0
    8340:	e59f70b0 	ldr	r7, [pc, #176]	; 83f8 <check_mem+0xf0>
    8344:	e1a00007 	mov	r0, r7
    8348:	eb00016d 	bl	8904 <printk>
    834c:	e59f00a8 	ldr	r0, [pc, #168]	; 83fc <check_mem+0xf4>
    8350:	eb00016b 	bl	8904 <printk>
    8354:	e5961000 	ldr	r1, [r6]
    8358:	e1a02004 	mov	r2, r4
    835c:	e0451001 	sub	r1, r5, r1
    8360:	e59f0098 	ldr	r0, [pc, #152]	; 8400 <check_mem+0xf8>
    8364:	eb000166 	bl	8904 <printk>
    8368:	e1a00007 	mov	r0, r7
    836c:	eb000164 	bl	8904 <printk>
    8370:	e5961000 	ldr	r1, [r6]
    8374:	e59f0088 	ldr	r0, [pc, #136]	; 8404 <check_mem+0xfc>
    8378:	eb000161 	bl	8904 <printk>
    837c:	e5963010 	ldr	r3, [r6, #16]
    8380:	e3530000 	cmp	r3, #0
    8384:	0a000006 	beq	83a4 <check_mem+0x9c>
    8388:	e1a00007 	mov	r0, r7
    838c:	eb00015c 	bl	8904 <printk>
    8390:	e5963018 	ldr	r3, [r6, #24]
    8394:	e5962014 	ldr	r2, [r6, #20]
    8398:	e5961010 	ldr	r1, [r6, #16]
    839c:	e59f0064 	ldr	r0, [pc, #100]	; 8408 <check_mem+0x100>
    83a0:	eb000157 	bl	8904 <printk>
    83a4:	e5963008 	ldr	r3, [r6, #8]
    83a8:	e353000c 	cmp	r3, #12
    83ac:	0a000001 	beq	83b8 <check_mem+0xb0>
    83b0:	e3a00000 	mov	r0, #0
    83b4:	e8bd81f0 	pop	{r4, r5, r6, r7, r8, pc}
    83b8:	e596301c 	ldr	r3, [r6, #28]
    83bc:	e3530000 	cmp	r3, #0
    83c0:	0a00000a 	beq	83f0 <check_mem+0xe8>
    83c4:	e59f002c 	ldr	r0, [pc, #44]	; 83f8 <check_mem+0xf0>
    83c8:	eb00014d 	bl	8904 <printk>
    83cc:	e5963024 	ldr	r3, [r6, #36]	; 0x24
    83d0:	e5962020 	ldr	r2, [r6, #32]
    83d4:	e596101c 	ldr	r1, [r6, #28]
    83d8:	e59f002c 	ldr	r0, [pc, #44]	; 840c <check_mem+0x104>
    83dc:	eb000148 	bl	8904 <printk>
    83e0:	e3a00000 	mov	r0, #0
    83e4:	e8bd81f0 	pop	{r4, r5, r6, r7, r8, pc}
    83e8:	e3a00001 	mov	r0, #1
    83ec:	e8bd81f0 	pop	{r4, r5, r6, r7, r8, pc}
    83f0:	e3a00000 	mov	r0, #0
    83f4:	e8bd81f0 	pop	{r4, r5, r6, r7, r8, pc}
    83f8:	00009668 	andeq	r9, r0, r8, ror #12
    83fc:	00009670 	andeq	r9, r0, r0, ror r6
    8400:	00009678 	andeq	r9, r0, r8, ror r6
    8404:	0000969c 	muleq	r0, ip, r6
    8408:	000096a8 	andeq	r9, r0, r8, lsr #13
    840c:	000096c8 	andeq	r9, r0, r8, asr #13

00008410 <check_block>:
    8410:	e92d4070 	push	{r4, r5, r6, lr}
    8414:	e1a04000 	mov	r4, r0
    8418:	ebffff7d 	bl	8214 <check_hdr>
    841c:	e3500000 	cmp	r0, #0
    8420:	08bd8070 	popeq	{r4, r5, r6, pc}
    8424:	e1a00004 	mov	r0, r4
    8428:	ebffff17 	bl	808c <b_rz1_ptr>
    842c:	e1a02004 	mov	r2, r4
    8430:	e3a01080 	mov	r1, #128	; 0x80
    8434:	ebffffb3 	bl	8308 <check_mem>
    8438:	e3500000 	cmp	r0, #0
    843c:	08bd8070 	popeq	{r4, r5, r6, pc}
    8440:	e1a00004 	mov	r0, r4
    8444:	ebffff16 	bl	80a4 <b_rz2_ptr>
    8448:	e1a05000 	mov	r5, r0
    844c:	e1a00004 	mov	r0, r4
    8450:	ebffff19 	bl	80bc <b_rz2_nbytes>
    8454:	e1a02004 	mov	r2, r4
    8458:	e1a01000 	mov	r1, r0
    845c:	e1a00005 	mov	r0, r5
    8460:	ebffffa8 	bl	8308 <check_mem>
    8464:	e3500000 	cmp	r0, #0
    8468:	08bd8070 	popeq	{r4, r5, r6, pc}
    846c:	e3a00001 	mov	r0, #1
    8470:	e8bd8070 	pop	{r4, r5, r6, pc}

00008474 <ck_init>:
    8474:	e92d4070 	push	{r4, r5, r6, lr}
    8478:	e59f3054 	ldr	r3, [pc, #84]	; 84d4 <ck_init+0x60>
    847c:	e5933000 	ldr	r3, [r3]
    8480:	e3130007 	tst	r3, #7
    8484:	1a00000b 	bne	84b8 <ck_init+0x44>
    8488:	e1a04000 	mov	r4, r0
    848c:	e1a05001 	mov	r5, r1
    8490:	e3a02080 	mov	r2, #128	; 0x80
    8494:	e3a01038 	mov	r1, #56	; 0x38
    8498:	e59f0038 	ldr	r0, [pc, #56]	; 84d8 <ck_init+0x64>
    849c:	eb000118 	bl	8904 <printk>
    84a0:	e59f302c 	ldr	r3, [pc, #44]	; 84d4 <ck_init+0x60>
    84a4:	e5834000 	str	r4, [r3]
    84a8:	e5834004 	str	r4, [r3, #4]
    84ac:	e0844005 	add	r4, r4, r5
    84b0:	e5834008 	str	r4, [r3, #8]
    84b4:	e8bd8070 	pop	{r4, r5, r6, pc}
    84b8:	eb0002c4 	bl	8fd0 <rpi_reset_putc>
    84bc:	e3a0300a 	mov	r3, #10
    84c0:	e59f2014 	ldr	r2, [pc, #20]	; 84dc <ck_init+0x68>
    84c4:	e59f1014 	ldr	r1, [pc, #20]	; 84e0 <ck_init+0x6c>
    84c8:	e59f0014 	ldr	r0, [pc, #20]	; 84e4 <ck_init+0x70>
    84cc:	eb00010c 	bl	8904 <printk>
    84d0:	eb0002fb 	bl	90c4 <clean_reboot>
    84d4:	00009b8c 	andeq	r9, r0, ip, lsl #23
    84d8:	00009734 	andeq	r9, r0, r4, lsr r7
    84dc:	00009650 	andeq	r9, r0, r0, asr r6
    84e0:	00009700 	andeq	r9, r0, r0, lsl #14
    84e4:	0000970c 	andeq	r9, r0, ip, lsl #14

000084e8 <ckfree>:
    84e8:	e92d41f0 	push	{r4, r5, r6, r7, r8, lr}
    84ec:	e1a05000 	mov	r5, r0
    84f0:	e1a08001 	mov	r8, r1
    84f4:	e1a07002 	mov	r7, r2
    84f8:	e1a06003 	mov	r6, r3
    84fc:	ebfffef1 	bl	80c8 <b_addr_to_hdr>
    8500:	e59f3080 	ldr	r3, [pc, #128]	; 8588 <ckfree+0xa0>
    8504:	e5933004 	ldr	r3, [r3, #4]
    8508:	e3530000 	cmp	r3, #0
    850c:	0a000016 	beq	856c <ckfree+0x84>
    8510:	e1a04000 	mov	r4, r0
    8514:	e59f0070 	ldr	r0, [pc, #112]	; 858c <ckfree+0xa4>
    8518:	eb0000f9 	bl	8904 <printk>
    851c:	e1a01005 	mov	r1, r5
    8520:	e59f0068 	ldr	r0, [pc, #104]	; 8590 <ckfree+0xa8>
    8524:	eb0000f6 	bl	8904 <printk>
    8528:	e1a00004 	mov	r0, r4
    852c:	ebffffb7 	bl	8410 <check_block>
    8530:	e3500000 	cmp	r0, #0
    8534:	08bd81f0 	popeq	{r4, r5, r6, r7, r8, pc}
    8538:	e584801c 	str	r8, [r4, #28]
    853c:	e5847020 	str	r7, [r4, #32]
    8540:	e5846024 	str	r6, [r4, #36]	; 0x24
    8544:	e3a0300c 	mov	r3, #12
    8548:	e5843008 	str	r3, [r4, #8]
    854c:	e1a00004 	mov	r0, r4
    8550:	ebfffecf 	bl	8094 <b_alloc_ptr>
    8554:	e5941000 	ldr	r1, [r4]
    8558:	ebffff1f 	bl	81dc <mark_mem>
    855c:	e1a00004 	mov	r0, r4
    8560:	ebffff22 	bl	81f0 <hdr_cksum>
    8564:	e584000c 	str	r0, [r4, #12]
    8568:	e8bd81f0 	pop	{r4, r5, r6, r7, r8, pc}
    856c:	eb000297 	bl	8fd0 <rpi_reset_putc>
    8570:	e3a03075 	mov	r3, #117	; 0x75
    8574:	e59f2018 	ldr	r2, [pc, #24]	; 8594 <ckfree+0xac>
    8578:	e59f1018 	ldr	r1, [pc, #24]	; 8598 <ckfree+0xb0>
    857c:	e59f0018 	ldr	r0, [pc, #24]	; 859c <ckfree+0xb4>
    8580:	eb0000df 	bl	8904 <printk>
    8584:	eb0002ce 	bl	90c4 <clean_reboot>
    8588:	00009b8c 	andeq	r9, r0, ip, lsl #23
    858c:	00009668 	andeq	r9, r0, r8, ror #12
    8590:	00009784 	andeq	r9, r0, r4, lsl #15
    8594:	00009658 	andeq	r9, r0, r8, asr r6
    8598:	00009700 	andeq	r9, r0, r0, lsl #14
    859c:	00009750 	andeq	r9, r0, r0, asr r7

000085a0 <ckalloc>:
    85a0:	e92d43f0 	push	{r4, r5, r6, r7, r8, r9, lr}
    85a4:	e24dd00c 	sub	sp, sp, #12
    85a8:	e1a07003 	mov	r7, r3
    85ac:	e59f31d0 	ldr	r3, [pc, #464]	; 8784 <ckalloc+0x1e4>
    85b0:	e5933004 	ldr	r3, [r3, #4]
    85b4:	e3530000 	cmp	r3, #0
    85b8:	0a000041 	beq	86c4 <ckalloc+0x124>
    85bc:	e1a05000 	mov	r5, r0
    85c0:	e1a09001 	mov	r9, r1
    85c4:	e1a08002 	mov	r8, r2
    85c8:	e59f01b8 	ldr	r0, [pc, #440]	; 8788 <ckalloc+0x1e8>
    85cc:	eb0000cc 	bl	8904 <printk>
    85d0:	e1a01005 	mov	r1, r5
    85d4:	e59f01b0 	ldr	r0, [pc, #432]	; 878c <ckalloc+0x1ec>
    85d8:	eb0000c9 	bl	8904 <printk>
    85dc:	e2853007 	add	r3, r5, #7
    85e0:	e3c33007 	bic	r3, r3, #7
    85e4:	e2836f4e 	add	r6, r3, #312	; 0x138
    85e8:	e1550006 	cmp	r5, r6
    85ec:	8a00003b 	bhi	86e0 <ckalloc+0x140>
    85f0:	e59f218c 	ldr	r2, [pc, #396]	; 8784 <ckalloc+0x1e4>
    85f4:	e5924004 	ldr	r4, [r2, #4]
    85f8:	e0841006 	add	r1, r4, r6
    85fc:	e5922008 	ldr	r2, [r2, #8]
    8600:	e1510002 	cmp	r1, r2
    8604:	2a000042 	bcs	8714 <ckalloc+0x174>
    8608:	e5845000 	str	r5, [r4]
    860c:	e5843004 	str	r3, [r4, #4]
    8610:	e3a0300b 	mov	r3, #11
    8614:	e5843008 	str	r3, [r4, #8]
    8618:	e5849010 	str	r9, [r4, #16]
    861c:	e5848014 	str	r8, [r4, #20]
    8620:	e5847018 	str	r7, [r4, #24]
    8624:	e3a03001 	mov	r3, #1
    8628:	e5843028 	str	r3, [r4, #40]	; 0x28
    862c:	e3a03000 	mov	r3, #0
    8630:	e584302c 	str	r3, [r4, #44]	; 0x2c
    8634:	e1a00004 	mov	r0, r4
    8638:	ebfffe93 	bl	808c <b_rz1_ptr>
    863c:	e3a01080 	mov	r1, #128	; 0x80
    8640:	ebfffee5 	bl	81dc <mark_mem>
    8644:	e1a00004 	mov	r0, r4
    8648:	ebfffe95 	bl	80a4 <b_rz2_ptr>
    864c:	e1a07000 	mov	r7, r0
    8650:	e1a00004 	mov	r0, r4
    8654:	ebfffe98 	bl	80bc <b_rz2_nbytes>
    8658:	e1a01000 	mov	r1, r0
    865c:	e1a00007 	mov	r0, r7
    8660:	ebfffedd 	bl	81dc <mark_mem>
    8664:	e1a00004 	mov	r0, r4
    8668:	ebfffee0 	bl	81f0 <hdr_cksum>
    866c:	e584000c 	str	r0, [r4, #12]
    8670:	e59f210c 	ldr	r2, [pc, #268]	; 8784 <ckalloc+0x1e4>
    8674:	e5923004 	ldr	r3, [r2, #4]
    8678:	e0833006 	add	r3, r3, r6
    867c:	e5823004 	str	r3, [r2, #4]
    8680:	e1a00004 	mov	r0, r4
    8684:	ebffff61 	bl	8410 <check_block>
    8688:	e3500000 	cmp	r0, #0
    868c:	0a000035 	beq	8768 <ckalloc+0x1c8>
    8690:	e1a00004 	mov	r0, r4
    8694:	ebfffe7e 	bl	8094 <b_alloc_ptr>
    8698:	e1a04000 	mov	r4, r0
    869c:	e59f00e4 	ldr	r0, [pc, #228]	; 8788 <ckalloc+0x1e8>
    86a0:	eb000097 	bl	8904 <printk>
    86a4:	e1a03004 	mov	r3, r4
    86a8:	e1a02006 	mov	r2, r6
    86ac:	e1a01005 	mov	r1, r5
    86b0:	e59f00d8 	ldr	r0, [pc, #216]	; 8790 <ckalloc+0x1f0>
    86b4:	eb000092 	bl	8904 <printk>
    86b8:	e1a00004 	mov	r0, r4
    86bc:	e28dd00c 	add	sp, sp, #12
    86c0:	e8bd83f0 	pop	{r4, r5, r6, r7, r8, r9, pc}
    86c4:	eb000241 	bl	8fd0 <rpi_reset_putc>
    86c8:	e3a0308b 	mov	r3, #139	; 0x8b
    86cc:	e59f20c0 	ldr	r2, [pc, #192]	; 8794 <ckalloc+0x1f4>
    86d0:	e59f10c0 	ldr	r1, [pc, #192]	; 8798 <ckalloc+0x1f8>
    86d4:	e59f00c0 	ldr	r0, [pc, #192]	; 879c <ckalloc+0x1fc>
    86d8:	eb000089 	bl	8904 <printk>
    86dc:	eb000278 	bl	90c4 <clean_reboot>
    86e0:	e59f00b8 	ldr	r0, [pc, #184]	; 87a0 <ckalloc+0x200>
    86e4:	eb000086 	bl	8904 <printk>
    86e8:	e1a01005 	mov	r1, r5
    86ec:	e59f00b0 	ldr	r0, [pc, #176]	; 87a4 <ckalloc+0x204>
    86f0:	eb000083 	bl	8904 <printk>
    86f4:	eb000235 	bl	8fd0 <rpi_reset_putc>
    86f8:	e58d5000 	str	r5, [sp]
    86fc:	e3a03093 	mov	r3, #147	; 0x93
    8700:	e59f208c 	ldr	r2, [pc, #140]	; 8794 <ckalloc+0x1f4>
    8704:	e59f108c 	ldr	r1, [pc, #140]	; 8798 <ckalloc+0x1f8>
    8708:	e59f0098 	ldr	r0, [pc, #152]	; 87a8 <ckalloc+0x208>
    870c:	eb00007c 	bl	8904 <printk>
    8710:	eb00026b 	bl	90c4 <clean_reboot>
    8714:	e59f0084 	ldr	r0, [pc, #132]	; 87a0 <ckalloc+0x200>
    8718:	eb000079 	bl	8904 <printk>
    871c:	e59f4060 	ldr	r4, [pc, #96]	; 8784 <ckalloc+0x1e4>
    8720:	e5941008 	ldr	r1, [r4, #8]
    8724:	e5943004 	ldr	r3, [r4, #4]
    8728:	e1a02006 	mov	r2, r6
    872c:	e0411003 	sub	r1, r1, r3
    8730:	e59f0074 	ldr	r0, [pc, #116]	; 87ac <ckalloc+0x20c>
    8734:	eb000072 	bl	8904 <printk>
    8738:	eb000224 	bl	8fd0 <rpi_reset_putc>
    873c:	e58d6004 	str	r6, [sp, #4]
    8740:	e5943008 	ldr	r3, [r4, #8]
    8744:	e5942004 	ldr	r2, [r4, #4]
    8748:	e0433002 	sub	r3, r3, r2
    874c:	e58d3000 	str	r3, [sp]
    8750:	e3a03097 	mov	r3, #151	; 0x97
    8754:	e59f2038 	ldr	r2, [pc, #56]	; 8794 <ckalloc+0x1f4>
    8758:	e59f1038 	ldr	r1, [pc, #56]	; 8798 <ckalloc+0x1f8>
    875c:	e59f004c 	ldr	r0, [pc, #76]	; 87b0 <ckalloc+0x210>
    8760:	eb000067 	bl	8904 <printk>
    8764:	eb000256 	bl	90c4 <clean_reboot>
    8768:	eb000218 	bl	8fd0 <rpi_reset_putc>
    876c:	e3a030a5 	mov	r3, #165	; 0xa5
    8770:	e59f201c 	ldr	r2, [pc, #28]	; 8794 <ckalloc+0x1f4>
    8774:	e59f101c 	ldr	r1, [pc, #28]	; 8798 <ckalloc+0x1f8>
    8778:	e59f0034 	ldr	r0, [pc, #52]	; 87b4 <ckalloc+0x214>
    877c:	eb000060 	bl	8904 <printk>
    8780:	eb00024f 	bl	90c4 <clean_reboot>
    8784:	00009b8c 	andeq	r9, r0, ip, lsl #23
    8788:	00009668 	andeq	r9, r0, r8, ror #12
    878c:	00009790 	muleq	r0, r0, r7
    8790:	0000989c 	muleq	r0, ip, r8
    8794:	00009660 	andeq	r9, r0, r0, ror #12
    8798:	00009700 	andeq	r9, r0, r0, lsl #14
    879c:	00009750 	andeq	r9, r0, r0, asr r7
    87a0:	000097a8 	andeq	r9, r0, r8, lsr #15
    87a4:	000097b4 			; <UNDEFINED> instruction: 0x000097b4
    87a8:	000097dc 	ldrdeq	r9, [r0], -ip
    87ac:	00009814 	andeq	r9, r0, r4, lsl r8
    87b0:	00009840 	andeq	r9, r0, r0, asr #16
    87b4:	0000987c 	andeq	r9, r0, ip, ror r8

000087b8 <ck_heap_errors>:
    87b8:	e92d41f0 	push	{r4, r5, r6, r7, r8, lr}
    87bc:	e59f412c 	ldr	r4, [pc, #300]	; 88f0 <ck_heap_errors+0x138>
    87c0:	e5943004 	ldr	r3, [r4, #4]
    87c4:	e5945000 	ldr	r5, [r4]
    87c8:	e0435005 	sub	r5, r3, r5
    87cc:	e5946008 	ldr	r6, [r4, #8]
    87d0:	e0466003 	sub	r6, r6, r3
    87d4:	e59f0118 	ldr	r0, [pc, #280]	; 88f4 <ck_heap_errors+0x13c>
    87d8:	eb000049 	bl	8904 <printk>
    87dc:	e1a02006 	mov	r2, r6
    87e0:	e1a01005 	mov	r1, r5
    87e4:	e59f010c 	ldr	r0, [pc, #268]	; 88f8 <ck_heap_errors+0x140>
    87e8:	eb000045 	bl	8904 <printk>
    87ec:	e5944000 	ldr	r4, [r4]
    87f0:	e3a05000 	mov	r5, #0
    87f4:	e1a06005 	mov	r6, r5
    87f8:	ea000011 	b	8844 <ck_heap_errors+0x8c>
    87fc:	e2866001 	add	r6, r6, #1
    8800:	e2855001 	add	r5, r5, #1
    8804:	e3560000 	cmp	r6, #0
    8808:	1a000031 	bne	88d4 <ck_heap_errors+0x11c>
    880c:	e59f00e0 	ldr	r0, [pc, #224]	; 88f4 <ck_heap_errors+0x13c>
    8810:	eb00003b 	bl	8904 <printk>
    8814:	e1a01005 	mov	r1, r5
    8818:	e59f00dc 	ldr	r0, [pc, #220]	; 88fc <ck_heap_errors+0x144>
    881c:	eb000038 	bl	8904 <printk>
    8820:	e1a00006 	mov	r0, r6
    8824:	e8bd81f0 	pop	{r4, r5, r6, r7, r8, pc}
    8828:	e2866001 	add	r6, r6, #1
    882c:	e2855001 	add	r5, r5, #1
    8830:	e5943000 	ldr	r3, [r4]
    8834:	e5942004 	ldr	r2, [r4, #4]
    8838:	e0833002 	add	r3, r3, r2
    883c:	e2833f4e 	add	r3, r3, #312	; 0x138
    8840:	e0844003 	add	r4, r4, r3
    8844:	e59f30a4 	ldr	r3, [pc, #164]	; 88f0 <ck_heap_errors+0x138>
    8848:	e5933004 	ldr	r3, [r3, #4]
    884c:	e1540003 	cmp	r4, r3
    8850:	2affffeb 	bcs	8804 <ck_heap_errors+0x4c>
    8854:	e1a00004 	mov	r0, r4
    8858:	ebfffe6d 	bl	8214 <check_hdr>
    885c:	e3500000 	cmp	r0, #0
    8860:	0affffe5 	beq	87fc <ck_heap_errors+0x44>
    8864:	e1a00004 	mov	r0, r4
    8868:	ebfffe07 	bl	808c <b_rz1_ptr>
    886c:	e1a02004 	mov	r2, r4
    8870:	e3a01080 	mov	r1, #128	; 0x80
    8874:	ebfffea3 	bl	8308 <check_mem>
    8878:	e3500000 	cmp	r0, #0
    887c:	0affffe9 	beq	8828 <ck_heap_errors+0x70>
    8880:	e1a00004 	mov	r0, r4
    8884:	ebfffe06 	bl	80a4 <b_rz2_ptr>
    8888:	e1a07000 	mov	r7, r0
    888c:	e1a00004 	mov	r0, r4
    8890:	ebfffe09 	bl	80bc <b_rz2_nbytes>
    8894:	e1a02004 	mov	r2, r4
    8898:	e1a01000 	mov	r1, r0
    889c:	e1a00007 	mov	r0, r7
    88a0:	ebfffe98 	bl	8308 <check_mem>
    88a4:	e3500000 	cmp	r0, #0
    88a8:	0affffde 	beq	8828 <ck_heap_errors+0x70>
    88ac:	e3a0300c 	mov	r3, #12
    88b0:	e5843008 	str	r3, [r4, #8]
    88b4:	e1a00004 	mov	r0, r4
    88b8:	ebfffdf5 	bl	8094 <b_alloc_ptr>
    88bc:	e1a02004 	mov	r2, r4
    88c0:	e5941000 	ldr	r1, [r4]
    88c4:	ebfffe01 	bl	80d0 <check_free_write>
    88c8:	e3500000 	cmp	r0, #0
    88cc:	02866001 	addeq	r6, r6, #1
    88d0:	eaffffd5 	b	882c <ck_heap_errors+0x74>
    88d4:	e59f0018 	ldr	r0, [pc, #24]	; 88f4 <ck_heap_errors+0x13c>
    88d8:	eb000009 	bl	8904 <printk>
    88dc:	e1a02006 	mov	r2, r6
    88e0:	e1a01005 	mov	r1, r5
    88e4:	e59f0014 	ldr	r0, [pc, #20]	; 8900 <ck_heap_errors+0x148>
    88e8:	eb000005 	bl	8904 <printk>
    88ec:	eaffffcb 	b	8820 <ck_heap_errors+0x68>
    88f0:	00009b8c 	andeq	r9, r0, ip, lsl #23
    88f4:	00009668 	andeq	r9, r0, r8, ror #12
    88f8:	000098cc 	andeq	r9, r0, ip, asr #17
    88fc:	0000992c 	andeq	r9, r0, ip, lsr #18
    8900:	00009904 	andeq	r9, r0, r4, lsl #18

00008904 <printk>:
    8904:	e92d000f 	push	{r0, r1, r2, r3}
    8908:	e92d4030 	push	{r4, r5, lr}
    890c:	e24dd00c 	sub	sp, sp, #12
    8910:	e28d301c 	add	r3, sp, #28
    8914:	e58d3004 	str	r3, [sp, #4]
    8918:	e59f4034 	ldr	r4, [pc, #52]	; 8954 <printk+0x50>
    891c:	e59d2018 	ldr	r2, [sp, #24]
    8920:	e3a01b01 	mov	r1, #1024	; 0x400
    8924:	e1a00004 	mov	r0, r4
    8928:	eb0000ac 	bl	8be0 <va_printk>
    892c:	e1a05000 	mov	r5, r0
    8930:	e59f3020 	ldr	r3, [pc, #32]	; 8958 <printk+0x54>
    8934:	e5933000 	ldr	r3, [r3]
    8938:	e1a00004 	mov	r0, r4
    893c:	e12fff33 	blx	r3
    8940:	e1a00005 	mov	r0, r5
    8944:	e28dd00c 	add	sp, sp, #12
    8948:	e8bd4030 	pop	{r4, r5, lr}
    894c:	e28dd010 	add	sp, sp, #16
    8950:	e12fff1e 	bx	lr
    8954:	00009b98 	muleq	r0, r8, fp
    8958:	00009604 	andeq	r9, r0, r4, lsl #12

0000895c <isdigit>:
    895c:	e2400030 	sub	r0, r0, #48	; 0x30
    8960:	e3500009 	cmp	r0, #9
    8964:	83a00000 	movhi	r0, #0
    8968:	93a00001 	movls	r0, #1
    896c:	e12fff1e 	bx	lr

00008970 <pad>:
    8970:	e0401001 	sub	r1, r0, r1
    8974:	ea000003 	b	8988 <pad+0x18>
    8978:	e3a03020 	mov	r3, #32
    897c:	e5c03000 	strb	r3, [r0]
    8980:	e2811001 	add	r1, r1, #1
    8984:	e2800001 	add	r0, r0, #1
    8988:	e1510002 	cmp	r1, r2
    898c:	bafffff9 	blt	8978 <pad+0x8>
    8990:	e3a03000 	mov	r3, #0
    8994:	e5c03000 	strb	r3, [r0]
    8998:	e12fff1e 	bx	lr

0000899c <reverse>:
    899c:	e042c003 	sub	ip, r2, r3
    89a0:	e28cc001 	add	ip, ip, #1
    89a4:	e15c0001 	cmp	ip, r1
    89a8:	c04cc001 	subgt	ip, ip, r1
    89ac:	c083300c 	addgt	r3, r3, ip
    89b0:	e2422001 	sub	r2, r2, #1
    89b4:	e1a01000 	mov	r1, r0
    89b8:	ea000002 	b	89c8 <reverse+0x2c>
    89bc:	e452c001 	ldrb	ip, [r2], #-1
    89c0:	e5c1c000 	strb	ip, [r1]
    89c4:	e2811001 	add	r1, r1, #1
    89c8:	e1520003 	cmp	r2, r3
    89cc:	2afffffa 	bcs	89bc <reverse+0x20>
    89d0:	e3a03000 	mov	r3, #0
    89d4:	e5c13000 	strb	r3, [r1]
    89d8:	e12fff1e 	bx	lr

000089dc <emit>:
    89dc:	e92d40f0 	push	{r4, r5, r6, r7, lr}
    89e0:	e24dd044 	sub	sp, sp, #68	; 0x44
    89e4:	e1a05001 	mov	r5, r1
    89e8:	e1a04002 	mov	r4, r2
    89ec:	e59d2058 	ldr	r2, [sp, #88]	; 0x58
    89f0:	e1520004 	cmp	r2, r4
    89f4:	c2442001 	subgt	r2, r4, #1
    89f8:	e1a01003 	mov	r1, r3
    89fc:	e2400002 	sub	r0, r0, #2
    8a00:	e350000e 	cmp	r0, #14
    8a04:	979ff100 	ldrls	pc, [pc, r0, lsl #2]
    8a08:	ea000051 	b	8b54 <emit+0x178>
    8a0c:	00008b2c 	andeq	r8, r0, ip, lsr #22
    8a10:	00008b54 	andeq	r8, r0, r4, asr fp
    8a14:	00008b54 	andeq	r8, r0, r4, asr fp
    8a18:	00008b54 	andeq	r8, r0, r4, asr fp
    8a1c:	00008b54 	andeq	r8, r0, r4, asr fp
    8a20:	00008b54 	andeq	r8, r0, r4, asr fp
    8a24:	00008b20 	andeq	r8, r0, r0, lsr #22
    8a28:	00008b54 	andeq	r8, r0, r4, asr fp
    8a2c:	00008a48 	andeq	r8, r0, r8, asr #20
    8a30:	00008b54 	andeq	r8, r0, r4, asr fp
    8a34:	00008b54 	andeq	r8, r0, r4, asr fp
    8a38:	00008b54 	andeq	r8, r0, r4, asr fp
    8a3c:	00008b54 	andeq	r8, r0, r4, asr fp
    8a40:	00008b54 	andeq	r8, r0, r4, asr fp
    8a44:	00008ac4 	andeq	r8, r0, r4, asr #21
    8a48:	e59d005c 	ldr	r0, [sp, #92]	; 0x5c
    8a4c:	e2900000 	adds	r0, r0, #0
    8a50:	13a00001 	movne	r0, #1
    8a54:	e0100fa3 	ands	r0, r0, r3, lsr #31
    8a58:	0a000003 	beq	8a6c <emit+0x90>
    8a5c:	e2631000 	rsb	r1, r3, #0
    8a60:	e3a07001 	mov	r7, #1
    8a64:	e1a0c00d 	mov	ip, sp
    8a68:	ea000002 	b	8a78 <emit+0x9c>
    8a6c:	e3a07000 	mov	r7, #0
    8a70:	eafffffb 	b	8a64 <emit+0x88>
    8a74:	e1a0c000 	mov	ip, r0
    8a78:	e28c0001 	add	r0, ip, #1
    8a7c:	e59f30ec 	ldr	r3, [pc, #236]	; 8b70 <emit+0x194>
    8a80:	e083e193 	umull	lr, r3, r3, r1
    8a84:	e1a031a3 	lsr	r3, r3, #3
    8a88:	e1a0e003 	mov	lr, r3
    8a8c:	e0833103 	add	r3, r3, r3, lsl #2
    8a90:	e1a06083 	lsl	r6, r3, #1
    8a94:	e0413006 	sub	r3, r1, r6
    8a98:	e59f10d4 	ldr	r1, [pc, #212]	; 8b74 <emit+0x198>
    8a9c:	e7d13003 	ldrb	r3, [r1, r3]
    8aa0:	e5cc3000 	strb	r3, [ip]
    8aa4:	e1a0100e 	mov	r1, lr
    8aa8:	e35e0000 	cmp	lr, #0
    8aac:	1afffff0 	bne	8a74 <emit+0x98>
    8ab0:	e3570000 	cmp	r7, #0
    8ab4:	13a0302d 	movne	r3, #45	; 0x2d
    8ab8:	15c03000 	strbne	r3, [r0]
    8abc:	128c0002 	addne	r0, ip, #2
    8ac0:	ea00000d 	b	8afc <emit+0x120>
    8ac4:	e1a0300d 	mov	r3, sp
    8ac8:	e283c001 	add	ip, r3, #1
    8acc:	e201000f 	and	r0, r1, #15
    8ad0:	e59fe0a0 	ldr	lr, [pc, #160]	; 8b78 <emit+0x19c>
    8ad4:	e7de0000 	ldrb	r0, [lr, r0]
    8ad8:	e5c30000 	strb	r0, [r3]
    8adc:	e1a0300c 	mov	r3, ip
    8ae0:	e1b01221 	lsrs	r1, r1, #4
    8ae4:	1afffff7 	bne	8ac8 <emit+0xec>
    8ae8:	e1a0000c 	mov	r0, ip
    8aec:	e3a03078 	mov	r3, #120	; 0x78
    8af0:	e4c03002 	strb	r3, [r0], #2
    8af4:	e3a03030 	mov	r3, #48	; 0x30
    8af8:	e5cc3001 	strb	r3, [ip, #1]
    8afc:	e1a0100d 	mov	r1, sp
    8b00:	ebffff9a 	bl	8970 <pad>
    8b04:	e1a0300d 	mov	r3, sp
    8b08:	e1a02000 	mov	r2, r0
    8b0c:	e1a01004 	mov	r1, r4
    8b10:	e1a00005 	mov	r0, r5
    8b14:	ebffffa0 	bl	899c <reverse>
    8b18:	e28dd044 	add	sp, sp, #68	; 0x44
    8b1c:	e8bd80f0 	pop	{r4, r5, r6, r7, pc}
    8b20:	e5cd3000 	strb	r3, [sp]
    8b24:	e28d0001 	add	r0, sp, #1
    8b28:	eafffff3 	b	8afc <emit+0x120>
    8b2c:	e1a0300d 	mov	r3, sp
    8b30:	e2830001 	add	r0, r3, #1
    8b34:	e201c001 	and	ip, r1, #1
    8b38:	e59fe03c 	ldr	lr, [pc, #60]	; 8b7c <emit+0x1a0>
    8b3c:	e7dec00c 	ldrb	ip, [lr, ip]
    8b40:	e5c3c000 	strb	ip, [r3]
    8b44:	e1a03000 	mov	r3, r0
    8b48:	e1b010a1 	lsrs	r1, r1, #1
    8b4c:	1afffff7 	bne	8b30 <emit+0x154>
    8b50:	eaffffe9 	b	8afc <emit+0x120>
    8b54:	eb00011d 	bl	8fd0 <rpi_reset_putc>
    8b58:	e3a03077 	mov	r3, #119	; 0x77
    8b5c:	e59f201c 	ldr	r2, [pc, #28]	; 8b80 <emit+0x1a4>
    8b60:	e59f101c 	ldr	r1, [pc, #28]	; 8b84 <emit+0x1a8>
    8b64:	e59f001c 	ldr	r0, [pc, #28]	; 8b88 <emit+0x1ac>
    8b68:	ebffff65 	bl	8904 <printk>
    8b6c:	eb000154 	bl	90c4 <clean_reboot>
    8b70:	cccccccd 	stclgt	12, cr12, [ip], {205}	; 0xcd
    8b74:	000099a8 	andeq	r9, r0, r8, lsr #19
    8b78:	000099b4 			; <UNDEFINED> instruction: 0x000099b4
    8b7c:	000099c8 	andeq	r9, r0, r8, asr #19
    8b80:	0000995c 	andeq	r9, r0, ip, asr r9
    8b84:	00009980 	andeq	r9, r0, r0, lsl #19
    8b88:	00009994 	muleq	r0, r4, r9

00008b8c <rpi_set_output>:
    8b8c:	e3500000 	cmp	r0, #0
    8b90:	0a000005 	beq	8bac <rpi_set_output+0x20>
    8b94:	e59f3030 	ldr	r3, [pc, #48]	; 8bcc <rpi_set_output+0x40>
    8b98:	e5830000 	str	r0, [r3]
    8b9c:	e3510000 	cmp	r1, #0
    8ba0:	159f3028 	ldrne	r3, [pc, #40]	; 8bd0 <rpi_set_output+0x44>
    8ba4:	15831000 	strne	r1, [r3]
    8ba8:	e12fff1e 	bx	lr
    8bac:	e92d4010 	push	{r4, lr}
    8bb0:	eb000106 	bl	8fd0 <rpi_reset_putc>
    8bb4:	e3a03020 	mov	r3, #32
    8bb8:	e59f2014 	ldr	r2, [pc, #20]	; 8bd4 <rpi_set_output+0x48>
    8bbc:	e59f1014 	ldr	r1, [pc, #20]	; 8bd8 <rpi_set_output+0x4c>
    8bc0:	e59f0014 	ldr	r0, [pc, #20]	; 8bdc <rpi_set_output+0x50>
    8bc4:	ebffff4e 	bl	8904 <printk>
    8bc8:	eb00013d 	bl	90c4 <clean_reboot>
    8bcc:	00009608 	andeq	r9, r0, r8, lsl #12
    8bd0:	00009604 	andeq	r9, r0, r4, lsl #12
    8bd4:	00009964 	andeq	r9, r0, r4, ror #18
    8bd8:	00009980 	andeq	r9, r0, r0, lsl #19
    8bdc:	000099cc 	andeq	r9, r0, ip, asr #19

00008be0 <va_printk>:
    8be0:	e92d43f0 	push	{r4, r5, r6, r7, r8, r9, lr}
    8be4:	e24dd094 	sub	sp, sp, #148	; 0x94
    8be8:	e1a09000 	mov	r9, r0
    8bec:	e58d300c 	str	r3, [sp, #12]
    8bf0:	e2411001 	sub	r1, r1, #1
    8bf4:	e0808001 	add	r8, r0, r1
    8bf8:	e3a03000 	mov	r3, #0
    8bfc:	e5c03000 	strb	r3, [r0]
    8c00:	e1a06000 	mov	r6, r0
    8c04:	e5d23000 	ldrb	r3, [r2]
    8c08:	e3530000 	cmp	r3, #0
    8c0c:	0a000098 	beq	8e74 <va_printk+0x294>
    8c10:	e1560008 	cmp	r6, r8
    8c14:	2a000096 	bcs	8e74 <va_printk+0x294>
    8c18:	e3530025 	cmp	r3, #37	; 0x25
    8c1c:	12822001 	addne	r2, r2, #1
    8c20:	15c63000 	strbne	r3, [r6]
    8c24:	12866001 	addne	r6, r6, #1
    8c28:	1afffff5 	bne	8c04 <va_printk+0x24>
    8c2c:	e5d21001 	ldrb	r1, [r2, #1]
    8c30:	e3510025 	cmp	r1, #37	; 0x25
    8c34:	12825001 	addne	r5, r2, #1
    8c38:	13a04000 	movne	r4, #0
    8c3c:	1a000008 	bne	8c64 <va_printk+0x84>
    8c40:	e5c63000 	strb	r3, [r6]
    8c44:	e2822002 	add	r2, r2, #2
    8c48:	e2866001 	add	r6, r6, #1
    8c4c:	eaffffec 	b	8c04 <va_printk+0x24>
    8c50:	e0844104 	add	r4, r4, r4, lsl #2
    8c54:	e1a03084 	lsl	r3, r4, #1
    8c58:	e0834007 	add	r4, r3, r7
    8c5c:	e2444030 	sub	r4, r4, #48	; 0x30
    8c60:	e2855001 	add	r5, r5, #1
    8c64:	e5d57000 	ldrb	r7, [r5]
    8c68:	e1a00007 	mov	r0, r7
    8c6c:	ebffff3a 	bl	895c <isdigit>
    8c70:	e3500000 	cmp	r0, #0
    8c74:	1afffff5 	bne	8c50 <va_printk+0x70>
    8c78:	e354001f 	cmp	r4, #31
    8c7c:	8a00001a 	bhi	8cec <va_printk+0x10c>
    8c80:	e2477062 	sub	r7, r7, #98	; 0x62
    8c84:	e3570016 	cmp	r7, #22
    8c88:	979ff107 	ldrls	pc, [pc, r7, lsl #2]
    8c8c:	ea000066 	b	8e2c <va_printk+0x24c>
    8c90:	00008db8 			; <UNDEFINED> instruction: 0x00008db8
    8c94:	00008dfc 	strdeq	r8, [r0], -ip
    8c98:	00008d24 	andeq	r8, r0, r4, lsr #26
    8c9c:	00008e2c 	andeq	r8, r0, ip, lsr #28
    8ca0:	00008d08 	andeq	r8, r0, r8, lsl #26
    8ca4:	00008e2c 	andeq	r8, r0, ip, lsr #28
    8ca8:	00008e2c 	andeq	r8, r0, ip, lsr #28
    8cac:	00008e2c 	andeq	r8, r0, ip, lsr #28
    8cb0:	00008e2c 	andeq	r8, r0, ip, lsr #28
    8cb4:	00008e2c 	andeq	r8, r0, ip, lsr #28
    8cb8:	00008e2c 	andeq	r8, r0, ip, lsr #28
    8cbc:	00008e2c 	andeq	r8, r0, ip, lsr #28
    8cc0:	00008e2c 	andeq	r8, r0, ip, lsr #28
    8cc4:	00008e2c 	andeq	r8, r0, ip, lsr #28
    8cc8:	00008d88 	andeq	r8, r0, r8, lsl #27
    8ccc:	00008e2c 	andeq	r8, r0, ip, lsr #28
    8cd0:	00008e2c 	andeq	r8, r0, ip, lsr #28
    8cd4:	00008de8 	andeq	r8, r0, r8, ror #27
    8cd8:	00008e2c 	andeq	r8, r0, ip, lsr #28
    8cdc:	00008d58 	andeq	r8, r0, r8, asr sp
    8ce0:	00008e2c 	andeq	r8, r0, ip, lsr #28
    8ce4:	00008e2c 	andeq	r8, r0, ip, lsr #28
    8ce8:	00008d88 	andeq	r8, r0, r8, lsl #27
    8cec:	eb0000b7 	bl	8fd0 <rpi_reset_putc>
    8cf0:	e3a03094 	mov	r3, #148	; 0x94
    8cf4:	e59f2190 	ldr	r2, [pc, #400]	; 8e8c <va_printk+0x2ac>
    8cf8:	e59f1190 	ldr	r1, [pc, #400]	; 8e90 <va_printk+0x2b0>
    8cfc:	e59f0190 	ldr	r0, [pc, #400]	; 8e94 <va_printk+0x2b4>
    8d00:	ebfffeff 	bl	8904 <printk>
    8d04:	eb0000ee 	bl	90c4 <clean_reboot>
    8d08:	eb0000b0 	bl	8fd0 <rpi_reset_putc>
    8d0c:	e3a0309a 	mov	r3, #154	; 0x9a
    8d10:	e59f2174 	ldr	r2, [pc, #372]	; 8e8c <va_printk+0x2ac>
    8d14:	e59f1174 	ldr	r1, [pc, #372]	; 8e90 <va_printk+0x2b0>
    8d18:	e59f0178 	ldr	r0, [pc, #376]	; 8e98 <va_printk+0x2b8>
    8d1c:	ebfffef8 	bl	8904 <printk>
    8d20:	eb0000e7 	bl	90c4 <clean_reboot>
    8d24:	e59d300c 	ldr	r3, [sp, #12]
    8d28:	e2832004 	add	r2, r3, #4
    8d2c:	e58d200c 	str	r2, [sp, #12]
    8d30:	e5933000 	ldr	r3, [r3]
    8d34:	e3a02001 	mov	r2, #1
    8d38:	e58d2004 	str	r2, [sp, #4]
    8d3c:	e58d4000 	str	r4, [sp]
    8d40:	e3a02080 	mov	r2, #128	; 0x80
    8d44:	e28d1010 	add	r1, sp, #16
    8d48:	e3a0000a 	mov	r0, #10
    8d4c:	ebffff22 	bl	89dc <emit>
    8d50:	e2852001 	add	r2, r5, #1
    8d54:	ea000040 	b	8e5c <va_printk+0x27c>
    8d58:	e59d300c 	ldr	r3, [sp, #12]
    8d5c:	e2832004 	add	r2, r3, #4
    8d60:	e58d200c 	str	r2, [sp, #12]
    8d64:	e5933000 	ldr	r3, [r3]
    8d68:	e3a02000 	mov	r2, #0
    8d6c:	e58d2004 	str	r2, [sp, #4]
    8d70:	e58d4000 	str	r4, [sp]
    8d74:	e3a02080 	mov	r2, #128	; 0x80
    8d78:	e28d1010 	add	r1, sp, #16
    8d7c:	e3a0000a 	mov	r0, #10
    8d80:	ebffff15 	bl	89dc <emit>
    8d84:	eafffff1 	b	8d50 <va_printk+0x170>
    8d88:	e59d300c 	ldr	r3, [sp, #12]
    8d8c:	e2832004 	add	r2, r3, #4
    8d90:	e58d200c 	str	r2, [sp, #12]
    8d94:	e5933000 	ldr	r3, [r3]
    8d98:	e3a02000 	mov	r2, #0
    8d9c:	e58d2004 	str	r2, [sp, #4]
    8da0:	e58d4000 	str	r4, [sp]
    8da4:	e3a02080 	mov	r2, #128	; 0x80
    8da8:	e28d1010 	add	r1, sp, #16
    8dac:	e3a00010 	mov	r0, #16
    8db0:	ebffff09 	bl	89dc <emit>
    8db4:	eaffffe5 	b	8d50 <va_printk+0x170>
    8db8:	e59d300c 	ldr	r3, [sp, #12]
    8dbc:	e2832004 	add	r2, r3, #4
    8dc0:	e58d200c 	str	r2, [sp, #12]
    8dc4:	e5933000 	ldr	r3, [r3]
    8dc8:	e3a02000 	mov	r2, #0
    8dcc:	e58d2004 	str	r2, [sp, #4]
    8dd0:	e58d4000 	str	r4, [sp]
    8dd4:	e3a02080 	mov	r2, #128	; 0x80
    8dd8:	e28d1010 	add	r1, sp, #16
    8ddc:	e3a00002 	mov	r0, #2
    8de0:	ebfffefd 	bl	89dc <emit>
    8de4:	eaffffd9 	b	8d50 <va_printk+0x170>
    8de8:	e59d300c 	ldr	r3, [sp, #12]
    8dec:	e2832004 	add	r2, r3, #4
    8df0:	e58d200c 	str	r2, [sp, #12]
    8df4:	e5930000 	ldr	r0, [r3]
    8df8:	eaffffd4 	b	8d50 <va_printk+0x170>
    8dfc:	e59d300c 	ldr	r3, [sp, #12]
    8e00:	e2832004 	add	r2, r3, #4
    8e04:	e58d200c 	str	r2, [sp, #12]
    8e08:	e5933000 	ldr	r3, [r3]
    8e0c:	e3a02000 	mov	r2, #0
    8e10:	e58d2004 	str	r2, [sp, #4]
    8e14:	e58d4000 	str	r4, [sp]
    8e18:	e3a02080 	mov	r2, #128	; 0x80
    8e1c:	e28d1010 	add	r1, sp, #16
    8e20:	e3a00008 	mov	r0, #8
    8e24:	ebfffeec 	bl	89dc <emit>
    8e28:	eaffffc8 	b	8d50 <va_printk+0x170>
    8e2c:	eb000067 	bl	8fd0 <rpi_reset_putc>
    8e30:	e5d53000 	ldrb	r3, [r5]
    8e34:	e58d3000 	str	r3, [sp]
    8e38:	e3a030bb 	mov	r3, #187	; 0xbb
    8e3c:	e59f2048 	ldr	r2, [pc, #72]	; 8e8c <va_printk+0x2ac>
    8e40:	e59f1048 	ldr	r1, [pc, #72]	; 8e90 <va_printk+0x2b0>
    8e44:	e59f0050 	ldr	r0, [pc, #80]	; 8e9c <va_printk+0x2bc>
    8e48:	ebfffead 	bl	8904 <printk>
    8e4c:	eb00009c 	bl	90c4 <clean_reboot>
    8e50:	e2800001 	add	r0, r0, #1
    8e54:	e5c63000 	strb	r3, [r6]
    8e58:	e2866001 	add	r6, r6, #1
    8e5c:	e1560008 	cmp	r6, r8
    8e60:	2affff67 	bcs	8c04 <va_printk+0x24>
    8e64:	e5d03000 	ldrb	r3, [r0]
    8e68:	e3530000 	cmp	r3, #0
    8e6c:	1afffff7 	bne	8e50 <va_printk+0x270>
    8e70:	eaffff63 	b	8c04 <va_printk+0x24>
    8e74:	e2860001 	add	r0, r6, #1
    8e78:	e3a03000 	mov	r3, #0
    8e7c:	e5c63000 	strb	r3, [r6]
    8e80:	e0400009 	sub	r0, r0, r9
    8e84:	e28dd094 	add	sp, sp, #148	; 0x94
    8e88:	e8bd83f0 	pop	{r4, r5, r6, r7, r8, r9, pc}
    8e8c:	00009974 	andeq	r9, r0, r4, ror r9
    8e90:	00009980 	andeq	r9, r0, r0, lsl #19
    8e94:	000099e4 	andeq	r9, r0, r4, ror #19
    8e98:	00009a00 	andeq	r9, r0, r0, lsl #20
    8e9c:	00009a28 	andeq	r9, r0, r8, lsr #20

00008ea0 <fast_hash>:
    8ea0:	e3500000 	cmp	r0, #0
    8ea4:	13510000 	cmpne	r1, #0
    8ea8:	da000034 	ble	8f80 <fast_hash+0xe0>
    8eac:	e52de004 	push	{lr}		; (str lr, [sp, #-4]!)
    8eb0:	e1a03001 	mov	r3, r1
    8eb4:	e201e003 	and	lr, r1, #3
    8eb8:	e1a01141 	asr	r1, r1, #2
    8ebc:	ea00000b 	b	8ef0 <fast_hash+0x50>
    8ec0:	e5d0c001 	ldrb	ip, [r0, #1]
    8ec4:	e5d02000 	ldrb	r2, [r0]
    8ec8:	e082240c 	add	r2, r2, ip, lsl #8
    8ecc:	e0832002 	add	r2, r3, r2
    8ed0:	e5d0c003 	ldrb	ip, [r0, #3]
    8ed4:	e5d03002 	ldrb	r3, [r0, #2]
    8ed8:	e083340c 	add	r3, r3, ip, lsl #8
    8edc:	e0223583 	eor	r3, r2, r3, lsl #11
    8ee0:	e0233802 	eor	r3, r3, r2, lsl #16
    8ee4:	e2800004 	add	r0, r0, #4
    8ee8:	e08335a3 	add	r3, r3, r3, lsr #11
    8eec:	e2411001 	sub	r1, r1, #1
    8ef0:	e3510000 	cmp	r1, #0
    8ef4:	cafffff1 	bgt	8ec0 <fast_hash+0x20>
    8ef8:	e35e0002 	cmp	lr, #2
    8efc:	0a000013 	beq	8f50 <fast_hash+0xb0>
    8f00:	e35e0003 	cmp	lr, #3
    8f04:	0a000008 	beq	8f2c <fast_hash+0x8c>
    8f08:	e35e0001 	cmp	lr, #1
    8f0c:	0a000016 	beq	8f6c <fast_hash+0xcc>
    8f10:	e0230183 	eor	r0, r3, r3, lsl #3
    8f14:	e08002a0 	add	r0, r0, r0, lsr #5
    8f18:	e0200200 	eor	r0, r0, r0, lsl #4
    8f1c:	e08008a0 	add	r0, r0, r0, lsr #17
    8f20:	e0200c80 	eor	r0, r0, r0, lsl #25
    8f24:	e0800320 	add	r0, r0, r0, lsr #6
    8f28:	e49df004 	pop	{pc}		; (ldr pc, [sp], #4)
    8f2c:	e5d01001 	ldrb	r1, [r0, #1]
    8f30:	e5d02000 	ldrb	r2, [r0]
    8f34:	e0822401 	add	r2, r2, r1, lsl #8
    8f38:	e0833002 	add	r3, r3, r2
    8f3c:	e0233803 	eor	r3, r3, r3, lsl #16
    8f40:	e1d020d2 	ldrsb	r2, [r0, #2]
    8f44:	e0233902 	eor	r3, r3, r2, lsl #18
    8f48:	e08335a3 	add	r3, r3, r3, lsr #11
    8f4c:	eaffffef 	b	8f10 <fast_hash+0x70>
    8f50:	e5d01001 	ldrb	r1, [r0, #1]
    8f54:	e5d02000 	ldrb	r2, [r0]
    8f58:	e0822401 	add	r2, r2, r1, lsl #8
    8f5c:	e0833002 	add	r3, r3, r2
    8f60:	e0233583 	eor	r3, r3, r3, lsl #11
    8f64:	e08338a3 	add	r3, r3, r3, lsr #17
    8f68:	eaffffe8 	b	8f10 <fast_hash+0x70>
    8f6c:	e1d020d0 	ldrsb	r2, [r0]
    8f70:	e0833002 	add	r3, r3, r2
    8f74:	e0233503 	eor	r3, r3, r3, lsl #10
    8f78:	e08330a3 	add	r3, r3, r3, lsr #1
    8f7c:	eaffffe3 	b	8f10 <fast_hash+0x70>
    8f80:	e3a00000 	mov	r0, #0
    8f84:	e12fff1e 	bx	lr

00008f88 <internal_putk>:
    8f88:	e92d4010 	push	{r4, lr}
    8f8c:	e1a04000 	mov	r4, r0
    8f90:	ea000003 	b	8fa4 <internal_putk+0x1c>
    8f94:	e59f301c 	ldr	r3, [pc, #28]	; 8fb8 <internal_putk+0x30>
    8f98:	e5933000 	ldr	r3, [r3]
    8f9c:	e12fff33 	blx	r3
    8fa0:	e2844001 	add	r4, r4, #1
    8fa4:	e5d40000 	ldrb	r0, [r4]
    8fa8:	e3500000 	cmp	r0, #0
    8fac:	1afffff8 	bne	8f94 <internal_putk+0xc>
    8fb0:	e3a00001 	mov	r0, #1
    8fb4:	e8bd8010 	pop	{r4, pc}
    8fb8:	00009608 	andeq	r9, r0, r8, lsl #12

00008fbc <internal_putchar>:
    8fbc:	e92d4010 	push	{r4, lr}
    8fc0:	e1a04000 	mov	r4, r0
    8fc4:	eb0000cb 	bl	92f8 <uart_putc>
    8fc8:	e1a00004 	mov	r0, r4
    8fcc:	e8bd8010 	pop	{r4, pc}

00008fd0 <rpi_reset_putc>:
    8fd0:	e59f2008 	ldr	r2, [pc, #8]	; 8fe0 <rpi_reset_putc+0x10>
    8fd4:	e59f3008 	ldr	r3, [pc, #8]	; 8fe4 <rpi_reset_putc+0x14>
    8fd8:	e5832000 	str	r2, [r3]
    8fdc:	e12fff1e 	bx	lr
    8fe0:	00008fbc 			; <UNDEFINED> instruction: 0x00008fbc
    8fe4:	00009608 	andeq	r9, r0, r8, lsl #12

00008fe8 <rpi_set_putc>:
    8fe8:	e59f3004 	ldr	r3, [pc, #4]	; 8ff4 <rpi_set_putc+0xc>
    8fec:	e5830000 	str	r0, [r3]
    8ff0:	e12fff1e 	bx	lr
    8ff4:	00009608 	andeq	r9, r0, r8, lsl #12

00008ff8 <memset>:
    8ff8:	e0802002 	add	r2, r0, r2
    8ffc:	e1a03000 	mov	r3, r0
    9000:	ea000001 	b	900c <memset+0x14>
    9004:	e5c31000 	strb	r1, [r3]
    9008:	e2833001 	add	r3, r3, #1
    900c:	e1530002 	cmp	r3, r2
    9010:	3afffffb 	bcc	9004 <memset+0xc>
    9014:	e12fff1e 	bx	lr

00009018 <_cstart>:
    9018:	e92d4010 	push	{r4, lr}
    901c:	e59f3020 	ldr	r3, [pc, #32]	; 9044 <_cstart+0x2c>
    9020:	ea000002 	b	9030 <_cstart+0x18>
    9024:	e3a02000 	mov	r2, #0
    9028:	e5832000 	str	r2, [r3]
    902c:	e2833004 	add	r3, r3, #4
    9030:	e59f2010 	ldr	r2, [pc, #16]	; 9048 <_cstart+0x30>
    9034:	e1530002 	cmp	r3, r2
    9038:	3afffff9 	bcc	9024 <_cstart+0xc>
    903c:	ebfffbf3 	bl	8010 <notmain>
    9040:	eb00001f 	bl	90c4 <clean_reboot>
    9044:	00009b8c 	andeq	r9, r0, ip, lsl #23
    9048:	00009f98 	muleq	r0, r8, pc	; <UNPREDICTABLE>

0000904c <at_user_level>:
    904c:	e10f0000 	mrs	r0, CPSR
    9050:	e200001f 	and	r0, r0, #31
    9054:	e3500010 	cmp	r0, #16
    9058:	13a00000 	movne	r0, #0
    905c:	03a00001 	moveq	r0, #1
    9060:	e12fff1e 	bx	lr

00009064 <set_user_level>:
    9064:	e10f3000 	mrs	r3, CPSR
    9068:	e3c3301f 	bic	r3, r3, #31
    906c:	e3833010 	orr	r3, r3, #16
    9070:	e129f003 	msr	CPSR_fc, r3
    9074:	e12fff1e 	bx	lr

00009078 <rpi_reboot>:
    9078:	e92d4010 	push	{r4, lr}
    907c:	ebfffff2 	bl	904c <at_user_level>
    9080:	e3500000 	cmp	r0, #0
    9084:	1a000008 	bne	90ac <rpi_reboot+0x34>
    9088:	e3a0001e 	mov	r0, #30
    908c:	eb00002e 	bl	914c <delay_ms>
    9090:	e59f101c 	ldr	r1, [pc, #28]	; 90b4 <rpi_reboot+0x3c>
    9094:	e59f001c 	ldr	r0, [pc, #28]	; 90b8 <rpi_reboot+0x40>
    9098:	eb000037 	bl	917c <PUT32>
    909c:	e59f1018 	ldr	r1, [pc, #24]	; 90bc <rpi_reboot+0x44>
    90a0:	e59f0018 	ldr	r0, [pc, #24]	; 90c0 <rpi_reboot+0x48>
    90a4:	eb000034 	bl	917c <PUT32>
    90a8:	eafffffe 	b	90a8 <rpi_reboot+0x30>
    90ac:	ebffffec 	bl	9064 <set_user_level>
    90b0:	eafffff4 	b	9088 <rpi_reboot+0x10>
    90b4:	5a000001 	bpl	90c0 <rpi_reboot+0x48>
    90b8:	20100024 	andscs	r0, r0, r4, lsr #32
    90bc:	5a000020 	bpl	9144 <delay_us+0x1c>
    90c0:	2010001c 	andscs	r0, r0, ip, lsl r0

000090c4 <clean_reboot>:
    90c4:	e92d4010 	push	{r4, lr}
    90c8:	e59f3014 	ldr	r3, [pc, #20]	; 90e4 <clean_reboot+0x20>
    90cc:	e5933000 	ldr	r3, [r3]
    90d0:	e59f0010 	ldr	r0, [pc, #16]	; 90e8 <clean_reboot+0x24>
    90d4:	e12fff33 	blx	r3
    90d8:	e3a00064 	mov	r0, #100	; 0x64
    90dc:	eb00001a 	bl	914c <delay_ms>
    90e0:	ebffffe4 	bl	9078 <rpi_reboot>
    90e4:	00009604 	andeq	r9, r0, r4, lsl #12
    90e8:	00009a60 	andeq	r9, r0, r0, ror #20

000090ec <delay_cycles>:
    90ec:	ea000001 	b	90f8 <delay_cycles+0xc>
    90f0:	e2811000 	add	r1, r1, #0
    90f4:	e1a00003 	mov	r0, r3
    90f8:	e2403001 	sub	r3, r0, #1
    90fc:	e3500000 	cmp	r0, #0
    9100:	1afffffa 	bne	90f0 <delay_cycles+0x4>
    9104:	e12fff1e 	bx	lr

00009108 <timer_get_usec_raw>:
    9108:	e92d4010 	push	{r4, lr}
    910c:	e59f0004 	ldr	r0, [pc, #4]	; 9118 <timer_get_usec_raw+0x10>
    9110:	eb000025 	bl	91ac <GET32>
    9114:	e8bd8010 	pop	{r4, pc}
    9118:	20003004 	andcs	r3, r0, r4

0000911c <timer_get_usec>:
    911c:	e92d4010 	push	{r4, lr}
    9120:	ebfffff8 	bl	9108 <timer_get_usec_raw>
    9124:	e8bd8010 	pop	{r4, pc}

00009128 <delay_us>:
    9128:	e92d4070 	push	{r4, r5, r6, lr}
    912c:	e1a05000 	mov	r5, r0
    9130:	ebfffff9 	bl	911c <timer_get_usec>
    9134:	e1a04000 	mov	r4, r0
    9138:	ebfffff7 	bl	911c <timer_get_usec>
    913c:	e0400004 	sub	r0, r0, r4
    9140:	e1500005 	cmp	r0, r5
    9144:	3afffffb 	bcc	9138 <delay_us+0x10>
    9148:	e8bd8070 	pop	{r4, r5, r6, pc}

0000914c <delay_ms>:
    914c:	e92d4010 	push	{r4, lr}
    9150:	e3a03ffa 	mov	r3, #1000	; 0x3e8
    9154:	e0000093 	mul	r0, r3, r0
    9158:	ebfffff2 	bl	9128 <delay_us>
    915c:	e8bd8010 	pop	{r4, pc}

00009160 <delay_sec>:
    9160:	e92d4010 	push	{r4, lr}
    9164:	e3a03ffa 	mov	r3, #1000	; 0x3e8
    9168:	e0000093 	mul	r0, r3, r0
    916c:	ebfffff6 	bl	914c <delay_ms>
    9170:	e8bd8010 	pop	{r4, pc}

00009174 <put32>:
    9174:	e5801000 	str	r1, [r0]
    9178:	e12fff1e 	bx	lr

0000917c <PUT32>:
    917c:	e5801000 	str	r1, [r0]
    9180:	e12fff1e 	bx	lr

00009184 <put16>:
    9184:	e1c010b0 	strh	r1, [r0]
    9188:	e12fff1e 	bx	lr

0000918c <PUT16>:
    918c:	e1c010b0 	strh	r1, [r0]
    9190:	e12fff1e 	bx	lr

00009194 <put8>:
    9194:	e5c01000 	strb	r1, [r0]
    9198:	e12fff1e 	bx	lr

0000919c <PUT8>:
    919c:	e5c01000 	strb	r1, [r0]
    91a0:	e12fff1e 	bx	lr

000091a4 <get32>:
    91a4:	e5900000 	ldr	r0, [r0]
    91a8:	e12fff1e 	bx	lr

000091ac <GET32>:
    91ac:	e5900000 	ldr	r0, [r0]
    91b0:	e12fff1e 	bx	lr

000091b4 <GETPC>:
    91b4:	e1a0000e 	mov	r0, lr
    91b8:	e12fff1e 	bx	lr

000091bc <dummy>:
    91bc:	e12fff1e 	bx	lr

000091c0 <or_in32>:
    91c0:	e92d4070 	push	{r4, r5, r6, lr}
    91c4:	e1a04000 	mov	r4, r0
    91c8:	e1a05001 	mov	r5, r1
    91cc:	ebfffff4 	bl	91a4 <get32>
    91d0:	e1801005 	orr	r1, r0, r5
    91d4:	e1a00004 	mov	r0, r4
    91d8:	ebffffe5 	bl	9174 <put32>
    91dc:	e8bd8070 	pop	{r4, r5, r6, pc}

000091e0 <uart_init>:
    91e0:	e92d4010 	push	{r4, lr}
    91e4:	e3a01002 	mov	r1, #2
    91e8:	e3a0000e 	mov	r0, #14
    91ec:	eb000051 	bl	9338 <gpio_set_function>
    91f0:	e3a01002 	mov	r1, #2
    91f4:	e3a0000f 	mov	r0, #15
    91f8:	eb00004e 	bl	9338 <gpio_set_function>
    91fc:	eb0000fa 	bl	95ec <dev_barrier>
    9200:	e3a01001 	mov	r1, #1
    9204:	e59f0064 	ldr	r0, [pc, #100]	; 9270 <uart_init+0x90>
    9208:	ebffffec 	bl	91c0 <or_in32>
    920c:	eb0000f6 	bl	95ec <dev_barrier>
    9210:	e59f405c 	ldr	r4, [pc, #92]	; 9274 <uart_init+0x94>
    9214:	e3a01000 	mov	r1, #0
    9218:	e1a00004 	mov	r0, r4
    921c:	ebffffd4 	bl	9174 <put32>
    9220:	e3a01000 	mov	r1, #0
    9224:	e59f004c 	ldr	r0, [pc, #76]	; 9278 <uart_init+0x98>
    9228:	ebffffd1 	bl	9174 <put32>
    922c:	e3a01003 	mov	r1, #3
    9230:	e59f0044 	ldr	r0, [pc, #68]	; 927c <uart_init+0x9c>
    9234:	ebffffce 	bl	9174 <put32>
    9238:	e3a01000 	mov	r1, #0
    923c:	e59f003c 	ldr	r0, [pc, #60]	; 9280 <uart_init+0xa0>
    9240:	ebffffcb 	bl	9174 <put32>
    9244:	e3a010c7 	mov	r1, #199	; 0xc7
    9248:	e59f0034 	ldr	r0, [pc, #52]	; 9284 <uart_init+0xa4>
    924c:	ebffffc8 	bl	9174 <put32>
    9250:	e59f1030 	ldr	r1, [pc, #48]	; 9288 <uart_init+0xa8>
    9254:	e59f0030 	ldr	r0, [pc, #48]	; 928c <uart_init+0xac>
    9258:	ebffffc5 	bl	9174 <put32>
    925c:	e3a01003 	mov	r1, #3
    9260:	e1a00004 	mov	r0, r4
    9264:	ebffffc2 	bl	9174 <put32>
    9268:	eb0000df 	bl	95ec <dev_barrier>
    926c:	e8bd8010 	pop	{r4, pc}
    9270:	20215004 	eorcs	r5, r1, r4
    9274:	20215060 	eorcs	r5, r1, r0, rrx
    9278:	20215044 	eorcs	r5, r1, r4, asr #32
    927c:	2021504c 	eorcs	r5, r1, ip, asr #32
    9280:	20215050 	eorcs	r5, r1, r0, asr r0
    9284:	20215048 	eorcs	r5, r1, r8, asr #32
    9288:	0000010e 	andeq	r0, r0, lr, lsl #2
    928c:	20215068 	eorcs	r5, r1, r8, rrx

00009290 <uart_can_getc>:
    9290:	e92d4010 	push	{r4, lr}
    9294:	e59f0008 	ldr	r0, [pc, #8]	; 92a4 <uart_can_getc+0x14>
    9298:	ebffffc1 	bl	91a4 <get32>
    929c:	e2000001 	and	r0, r0, #1
    92a0:	e8bd8010 	pop	{r4, pc}
    92a4:	20215064 	eorcs	r5, r1, r4, rrx

000092a8 <uart_can_putc>:
    92a8:	e92d4010 	push	{r4, lr}
    92ac:	e59f0010 	ldr	r0, [pc, #16]	; 92c4 <uart_can_putc+0x1c>
    92b0:	ebffffbb 	bl	91a4 <get32>
    92b4:	e3100002 	tst	r0, #2
    92b8:	13a00001 	movne	r0, #1
    92bc:	03a00000 	moveq	r0, #0
    92c0:	e8bd8010 	pop	{r4, pc}
    92c4:	20215064 	eorcs	r5, r1, r4, rrx

000092c8 <uart_getc>:
    92c8:	e92d4010 	push	{r4, lr}
    92cc:	eb0000c6 	bl	95ec <dev_barrier>
    92d0:	ebffffee 	bl	9290 <uart_can_getc>
    92d4:	e3500000 	cmp	r0, #0
    92d8:	0afffffc 	beq	92d0 <uart_getc+0x8>
    92dc:	e59f0010 	ldr	r0, [pc, #16]	; 92f4 <uart_getc+0x2c>
    92e0:	ebffffaf 	bl	91a4 <get32>
    92e4:	e6ef4070 	uxtb	r4, r0
    92e8:	eb0000bf 	bl	95ec <dev_barrier>
    92ec:	e1a00004 	mov	r0, r4
    92f0:	e8bd8010 	pop	{r4, pc}
    92f4:	20215040 	eorcs	r5, r1, r0, asr #32

000092f8 <uart_putc>:
    92f8:	e92d4010 	push	{r4, lr}
    92fc:	e1a04000 	mov	r4, r0
    9300:	eb0000b9 	bl	95ec <dev_barrier>
    9304:	ebffffe7 	bl	92a8 <uart_can_putc>
    9308:	e3500000 	cmp	r0, #0
    930c:	0afffffc 	beq	9304 <uart_putc+0xc>
    9310:	e6ef1074 	uxtb	r1, r4
    9314:	e59f0008 	ldr	r0, [pc, #8]	; 9324 <uart_putc+0x2c>
    9318:	ebffff95 	bl	9174 <put32>
    931c:	eb0000b2 	bl	95ec <dev_barrier>
    9320:	e8bd8010 	pop	{r4, pc}
    9324:	20215040 	eorcs	r5, r1, r0, asr #32

00009328 <uart_has_data>:
    9328:	e92d4010 	push	{r4, lr}
    932c:	eb0000ae 	bl	95ec <dev_barrier>
    9330:	ebffffd6 	bl	9290 <uart_can_getc>
    9334:	e8bd8010 	pop	{r4, pc}

00009338 <gpio_set_function>:
    9338:	e350001f 	cmp	r0, #31
    933c:	812fff1e 	bxhi	lr
    9340:	e3d13007 	bics	r3, r1, #7
    9344:	112fff1e 	bxne	lr
    9348:	e92d4070 	push	{r4, r5, r6, lr}
    934c:	e1a05001 	mov	r5, r1
    9350:	e59f3044 	ldr	r3, [pc, #68]	; 939c <gpio_set_function+0x64>
    9354:	e0832093 	umull	r2, r3, r3, r0
    9358:	e1a031a3 	lsr	r3, r3, #3
    935c:	e1a06003 	mov	r6, r3
    9360:	e0833103 	add	r3, r3, r3, lsl #2
    9364:	e1a02083 	lsl	r2, r3, #1
    9368:	e0403002 	sub	r3, r0, r2
    936c:	e0834083 	add	r4, r3, r3, lsl #1
    9370:	e2866302 	add	r6, r6, #134217728	; 0x8000000
    9374:	e2866702 	add	r6, r6, #524288	; 0x80000
    9378:	e1a06106 	lsl	r6, r6, #2
    937c:	e1a00006 	mov	r0, r6
    9380:	ebffff89 	bl	91ac <GET32>
    9384:	e3a01007 	mov	r1, #7
    9388:	e1c01411 	bic	r1, r0, r1, lsl r4
    938c:	e1811415 	orr	r1, r1, r5, lsl r4
    9390:	e1a00006 	mov	r0, r6
    9394:	ebffff78 	bl	917c <PUT32>
    9398:	e8bd8070 	pop	{r4, r5, r6, pc}
    939c:	cccccccd 	stclgt	12, cr12, [ip], {205}	; 0xcd

000093a0 <gpio_set_output>:
    93a0:	e92d4010 	push	{r4, lr}
    93a4:	e3a01001 	mov	r1, #1
    93a8:	ebffffe2 	bl	9338 <gpio_set_function>
    93ac:	e8bd8010 	pop	{r4, pc}

000093b0 <gpio_set_on>:
    93b0:	e350001f 	cmp	r0, #31
    93b4:	812fff1e 	bxhi	lr
    93b8:	e92d4010 	push	{r4, lr}
    93bc:	e3a01001 	mov	r1, #1
    93c0:	e1a01011 	lsl	r1, r1, r0
    93c4:	e59f0004 	ldr	r0, [pc, #4]	; 93d0 <gpio_set_on+0x20>
    93c8:	ebffff6b 	bl	917c <PUT32>
    93cc:	e8bd8010 	pop	{r4, pc}
    93d0:	2020001c 	eorcs	r0, r0, ip, lsl r0

000093d4 <gpio_set_off>:
    93d4:	e350001f 	cmp	r0, #31
    93d8:	812fff1e 	bxhi	lr
    93dc:	e92d4010 	push	{r4, lr}
    93e0:	e3a01001 	mov	r1, #1
    93e4:	e1a01011 	lsl	r1, r1, r0
    93e8:	e59f0004 	ldr	r0, [pc, #4]	; 93f4 <gpio_set_off+0x20>
    93ec:	ebffff62 	bl	917c <PUT32>
    93f0:	e8bd8010 	pop	{r4, pc}
    93f4:	20200028 	eorcs	r0, r0, r8, lsr #32

000093f8 <gpio_set_input>:
    93f8:	e92d4010 	push	{r4, lr}
    93fc:	e3a01000 	mov	r1, #0
    9400:	ebffffcc 	bl	9338 <gpio_set_function>
    9404:	e8bd8010 	pop	{r4, pc}

00009408 <gpio_write>:
    9408:	e92d4010 	push	{r4, lr}
    940c:	e3510000 	cmp	r1, #0
    9410:	1a000001 	bne	941c <gpio_write+0x14>
    9414:	ebffffee 	bl	93d4 <gpio_set_off>
    9418:	e8bd8010 	pop	{r4, pc}
    941c:	ebffffe3 	bl	93b0 <gpio_set_on>
    9420:	e8bd8010 	pop	{r4, pc}

00009424 <gpio_read>:
    9424:	e350001f 	cmp	r0, #31
    9428:	8a000007 	bhi	944c <gpio_read+0x28>
    942c:	e92d4010 	push	{r4, lr}
    9430:	e200401f 	and	r4, r0, #31
    9434:	e59f3018 	ldr	r3, [pc, #24]	; 9454 <gpio_read+0x30>
    9438:	e08302a0 	add	r0, r3, r0, lsr #5
    943c:	ebffff5a 	bl	91ac <GET32>
    9440:	e1a00430 	lsr	r0, r0, r4
    9444:	e2000001 	and	r0, r0, #1
    9448:	e8bd8010 	pop	{r4, pc}
    944c:	e3e00000 	mvn	r0, #0
    9450:	e12fff1e 	bx	lr
    9454:	20200034 	eorcs	r0, r0, r4, lsr r0

00009458 <kmalloc_heap_end>:
    9458:	e59f3004 	ldr	r3, [pc, #4]	; 9464 <kmalloc_heap_end+0xc>
    945c:	e5930000 	ldr	r0, [r3]
    9460:	e12fff1e 	bx	lr
    9464:	0000960c 	andeq	r9, r0, ip, lsl #12

00009468 <kmalloc_heap_start>:
    9468:	e59f0000 	ldr	r0, [pc]	; 9470 <kmalloc_heap_start+0x8>
    946c:	e12fff1e 	bx	lr
    9470:	00009f98 	muleq	r0, r8, pc	; <UNPREDICTABLE>

00009474 <kmalloc_init_set_start>:
    9474:	e59f3038 	ldr	r3, [pc, #56]	; 94b4 <kmalloc_init_set_start+0x40>
    9478:	e5933000 	ldr	r3, [r3]
    947c:	e1500003 	cmp	r0, r3
    9480:	9a000003 	bls	9494 <kmalloc_init_set_start+0x20>
    9484:	e59f3028 	ldr	r3, [pc, #40]	; 94b4 <kmalloc_init_set_start+0x40>
    9488:	e5830000 	str	r0, [r3]
    948c:	e5830004 	str	r0, [r3, #4]
    9490:	e12fff1e 	bx	lr
    9494:	e92d4010 	push	{r4, lr}
    9498:	ebfffecc 	bl	8fd0 <rpi_reset_putc>
    949c:	e3a03016 	mov	r3, #22
    94a0:	e59f2010 	ldr	r2, [pc, #16]	; 94b8 <kmalloc_init_set_start+0x44>
    94a4:	e59f1010 	ldr	r1, [pc, #16]	; 94bc <kmalloc_init_set_start+0x48>
    94a8:	e59f0010 	ldr	r0, [pc, #16]	; 94c0 <kmalloc_init_set_start+0x4c>
    94ac:	ebfffd14 	bl	8904 <printk>
    94b0:	ebffff03 	bl	90c4 <clean_reboot>
    94b4:	0000960c 	andeq	r9, r0, ip, lsl #12
    94b8:	00009a6c 	andeq	r9, r0, ip, ror #20
    94bc:	00009a9c 	muleq	r0, ip, sl
    94c0:	00009aa8 	andeq	r9, r0, r8, lsr #21

000094c4 <kmalloc>:
    94c4:	e92d4010 	push	{r4, lr}
    94c8:	e3500000 	cmp	r0, #0
    94cc:	0a00000a 	beq	94fc <kmalloc+0x38>
    94d0:	e2802007 	add	r2, r0, #7
    94d4:	e3c22007 	bic	r2, r2, #7
    94d8:	e59f3038 	ldr	r3, [pc, #56]	; 9518 <kmalloc+0x54>
    94dc:	e5934000 	ldr	r4, [r3]
    94e0:	e0841002 	add	r1, r4, r2
    94e4:	e5831000 	str	r1, [r3]
    94e8:	e3a01000 	mov	r1, #0
    94ec:	e1a00004 	mov	r0, r4
    94f0:	ebfffec0 	bl	8ff8 <memset>
    94f4:	e1a00004 	mov	r0, r4
    94f8:	e8bd8010 	pop	{r4, pc}
    94fc:	ebfffeb3 	bl	8fd0 <rpi_reset_putc>
    9500:	e3a0301b 	mov	r3, #27
    9504:	e59f2010 	ldr	r2, [pc, #16]	; 951c <kmalloc+0x58>
    9508:	e59f1010 	ldr	r1, [pc, #16]	; 9520 <kmalloc+0x5c>
    950c:	e59f0010 	ldr	r0, [pc, #16]	; 9524 <kmalloc+0x60>
    9510:	ebfffcfb 	bl	8904 <printk>
    9514:	ebfffeea 	bl	90c4 <clean_reboot>
    9518:	0000960c 	andeq	r9, r0, ip, lsl #12
    951c:	00009a84 	andeq	r9, r0, r4, lsl #21
    9520:	00009a9c 	muleq	r0, ip, sl
    9524:	00009ac4 	andeq	r9, r0, r4, asr #21

00009528 <kmalloc_init>:
    9528:	e12fff1e 	bx	lr

0000952c <kmalloc_heap_ptr>:
    952c:	e92d4010 	push	{r4, lr}
    9530:	ebffffcc 	bl	9468 <kmalloc_heap_start>
    9534:	e8bd8010 	pop	{r4, pc}

00009538 <kmalloc_aligned>:
    9538:	e92d4010 	push	{r4, lr}
    953c:	e2613000 	rsb	r3, r1, #0
    9540:	e1d12003 	bics	r2, r1, r3
    9544:	1a00000b 	bne	9578 <kmalloc_aligned+0x40>
    9548:	e59f2060 	ldr	r2, [pc, #96]	; 95b0 <kmalloc_aligned+0x78>
    954c:	e5922000 	ldr	r2, [r2]
    9550:	e0812002 	add	r2, r1, r2
    9554:	e2422001 	sub	r2, r2, #1
    9558:	e0033002 	and	r3, r3, r2
    955c:	e2411001 	sub	r1, r1, #1
    9560:	e1130001 	tst	r3, r1
    9564:	1a00000a 	bne	9594 <kmalloc_aligned+0x5c>
    9568:	e59f2040 	ldr	r2, [pc, #64]	; 95b0 <kmalloc_aligned+0x78>
    956c:	e5823000 	str	r3, [r2]
    9570:	ebffffd3 	bl	94c4 <kmalloc>
    9574:	e8bd8010 	pop	{r4, pc}
    9578:	ebfffe94 	bl	8fd0 <rpi_reset_putc>
    957c:	e3a0302a 	mov	r3, #42	; 0x2a
    9580:	e59f202c 	ldr	r2, [pc, #44]	; 95b4 <kmalloc_aligned+0x7c>
    9584:	e59f102c 	ldr	r1, [pc, #44]	; 95b8 <kmalloc_aligned+0x80>
    9588:	e59f002c 	ldr	r0, [pc, #44]	; 95bc <kmalloc_aligned+0x84>
    958c:	ebfffcdc 	bl	8904 <printk>
    9590:	ebfffecb 	bl	90c4 <clean_reboot>
    9594:	ebfffe8d 	bl	8fd0 <rpi_reset_putc>
    9598:	e3a03030 	mov	r3, #48	; 0x30
    959c:	e59f2010 	ldr	r2, [pc, #16]	; 95b4 <kmalloc_aligned+0x7c>
    95a0:	e59f1010 	ldr	r1, [pc, #16]	; 95b8 <kmalloc_aligned+0x80>
    95a4:	e59f0014 	ldr	r0, [pc, #20]	; 95c0 <kmalloc_aligned+0x88>
    95a8:	ebfffcd5 	bl	8904 <printk>
    95ac:	ebfffec4 	bl	90c4 <clean_reboot>
    95b0:	0000960c 	andeq	r9, r0, ip, lsl #12
    95b4:	00009a8c 	andeq	r9, r0, ip, lsl #21
    95b8:	00009a9c 	muleq	r0, ip, sl
    95bc:	00009ad8 	ldrdeq	r9, [r0], -r8
    95c0:	00009b38 	andeq	r9, r0, r8, lsr fp

000095c4 <kfree>:
    95c4:	e12fff1e 	bx	lr

000095c8 <kfree_all>:
    95c8:	e59f3008 	ldr	r3, [pc, #8]	; 95d8 <kfree_all+0x10>
    95cc:	e5932004 	ldr	r2, [r3, #4]
    95d0:	e5832000 	str	r2, [r3]
    95d4:	e12fff1e 	bx	lr
    95d8:	0000960c 	andeq	r9, r0, ip, lsl #12

000095dc <kfree_after>:
    95dc:	e59f3004 	ldr	r3, [pc, #4]	; 95e8 <kfree_after+0xc>
    95e0:	e5830000 	str	r0, [r3]
    95e4:	e12fff1e 	bx	lr
    95e8:	0000960c 	andeq	r9, r0, ip, lsl #12

000095ec <dev_barrier>:
    95ec:	ea000002 	b	95fc <dsb>

000095f0 <dmb>:
    95f0:	e3a00000 	mov	r0, #0
    95f4:	ee070fba 	mcr	15, 0, r0, cr7, cr10, {5}
    95f8:	e12fff1e 	bx	lr

000095fc <dsb>:
    95fc:	ee070f9a 	mcr	15, 0, r0, cr7, cr10, {4}
    9600:	e12fff1e 	bx	lr

Disassembly of section .data:

00009604 <putk>:
    9604:	00008f88 	andeq	r8, r0, r8, lsl #31

00009608 <rpi_putchar>:
    9608:	00008fbc 			; <UNDEFINED> instruction: 0x00008fbc

0000960c <heap>:
    960c:	00009f98 	muleq	r0, r8, pc	; <UNPREDICTABLE>

00009610 <heap_start>:
    9610:	00009f98 	muleq	r0, r8, pc	; <UNPREDICTABLE>

Disassembly of section .rodata:

00009614 <__FUNCTION__.4269>:
    9614:	6d746f6e 	ldclvs	15, cr6, [r4, #-440]!	; 0xfffffe48
    9618:	006e6961 	rsbeq	r6, lr, r1, ror #18
    961c:	74736574 	ldrbtvc	r6, [r3], #-1396	; 0xfffffa8c
    9620:	6d203a32 	vstmdbvs	r0!, {s6-s55}
    9624:	726f6d65 	rsbvc	r6, pc, #6464	; 0x1940
    9628:	766f2079 			; <UNDEFINED> instruction: 0x766f2079
    962c:	6c667265 	sfmvs	f7, 2, [r6], #-404	; 0xfffffe6c
    9630:	6120776f 			; <UNDEFINED> instruction: 0x6120776f
    9634:	666f2074 			; <UNDEFINED> instruction: 0x666f2074
    9638:	74657366 	strbtvc	r7, [r5], #-870	; 0xfffffc9a
    963c:	000a3420 	andeq	r3, sl, r0, lsr #8
    9640:	74726170 	ldrbtvc	r6, [r2], #-368	; 0xfffffe90
    9644:	65742d31 	ldrbvs	r2, [r4, #-3377]!	; 0xfffff2cf
    9648:	2e327473 	mrccs	4, 1, r7, cr2, cr3, {3}
    964c:	00000063 	andeq	r0, r0, r3, rrx

00009650 <__FUNCTION__.4271>:
    9650:	695f6b63 	ldmdbvs	pc, {r0, r1, r5, r6, r8, r9, fp, sp, lr}^	; <UNPREDICTABLE>
    9654:	0074696e 	rsbseq	r6, r4, lr, ror #18

00009658 <__FUNCTION__.4329>:
    9658:	72666b63 	rsbvc	r6, r6, #101376	; 0x18c00
    965c:	00006565 	andeq	r6, r0, r5, ror #10

00009660 <__FUNCTION__.4339>:
    9660:	6c616b63 			; <UNDEFINED> instruction: 0x6c616b63
    9664:	00636f6c 	rsbeq	r6, r3, ip, ror #30
    9668:	43415254 	movtmi	r5, #4692	; 0x1254
    966c:	00003a45 	andeq	r3, r0, r5, asr #20
    9670:	4f525245 	svcmi	0x00525245
    9674:	00003a52 	andeq	r3, r0, r2, asr sl
    9678:	636f6c62 	cmnvs	pc, #25088	; 0x6200
    967c:	7025206b 	eorvc	r2, r5, fp, rrx
    9680:	726f6320 	rsbvc	r6, pc, #32, 6	; 0x80000000
    9684:	74707572 	ldrbtvc	r7, [r0], #-1394	; 0xfffffa8e
    9688:	61206465 			; <UNDEFINED> instruction: 0x61206465
    968c:	666f2074 			; <UNDEFINED> instruction: 0x666f2074
    9690:	74657366 	strbtvc	r7, [r5], #-870	; 0xfffffc9a
    9694:	0a642520 	beq	1912b1c <__bss_end__+0x1908b84>
    9698:	00000000 	andeq	r0, r0, r0
    969c:	79626e09 	stmdbvc	r2!, {r0, r3, r9, sl, fp, sp, lr}^
    96a0:	3d736574 	cfldr64cc	mvdx6, [r3, #-464]!	; 0xfffffe30
    96a4:	000a6425 	andeq	r6, sl, r5, lsr #8
    96a8:	6f6c4209 	svcvs	0x006c4209
    96ac:	61206b63 			; <UNDEFINED> instruction: 0x61206b63
    96b0:	636f6c6c 	cmnvs	pc, #108, 24	; 0x6c00
    96b4:	64657461 	strbtvs	r7, [r5], #-1121	; 0xfffffb9f
    96b8:	3a746120 	bcc	1d21b40 <__bss_end__+0x1d17ba8>
    96bc:	3a732520 	bcc	1cd2b44 <__bss_end__+0x1cc8bac>
    96c0:	253a7325 	ldrcs	r7, [sl, #-805]!	; 0xfffffcdb
    96c4:	00000a64 	andeq	r0, r0, r4, ror #20
    96c8:	6f6c4209 	svcvs	0x006c4209
    96cc:	66206b63 	strtvs	r6, [r0], -r3, ror #22
    96d0:	64656572 	strbtvs	r6, [r5], #-1394	; 0xfffffa8e
    96d4:	3a746120 	bcc	1d21b5c <__bss_end__+0x1d17bc4>
    96d8:	3a732520 	bcc	1cd2b60 <__bss_end__+0x1cc8bc8>
    96dc:	253a7325 	ldrcs	r7, [sl, #-805]!	; 0xfffffcdb
    96e0:	00000a64 	andeq	r0, r0, r4, ror #20
    96e4:	6f725709 	svcvs	0x00725709
    96e8:	62206574 	eorvs	r6, r0, #116, 10	; 0x1d000000
    96ec:	6b636f6c 	blvs	18e54a4 <__bss_end__+0x18db50c>
    96f0:	74666120 	strbtvc	r6, [r6], #-288	; 0xfffffee0
    96f4:	66207265 	strtvs	r7, [r0], -r5, ror #4
    96f8:	21656572 	smccs	22098	; 0x5652
    96fc:	0000000a 	andeq	r0, r0, sl
    9700:	6c616b63 			; <UNDEFINED> instruction: 0x6c616b63
    9704:	2e636f6c 	cdpcs	15, 6, cr6, cr3, cr12, {3}
    9708:	00000063 	andeq	r0, r0, r3, rrx
    970c:	494e4150 	stmdbmi	lr, {r4, r6, r8, lr}^
    9710:	73253a43 			; <UNDEFINED> instruction: 0x73253a43
    9714:	3a73253a 	bcc	1cd2c04 <__bss_end__+0x1cc8c6c>
    9718:	613a6425 	teqvs	sl, r5, lsr #8
    971c:	6e67696c 	vnmulvs.f16	s13, s14, s25	; <UNPREDICTABLE>
    9720:	68286465 	stmdavs	r8!, {r0, r2, r5, r6, sl, sp, lr}
    9724:	5f706165 	svcpl	0x00706165
    9728:	72617473 	rsbvc	r7, r1, #1929379840	; 0x73000000
    972c:	38202c74 	stmdacc	r0!, {r2, r4, r5, r6, sl, fp, sp}
    9730:	00000a29 	andeq	r0, r0, r9, lsr #20
    9734:	657a6973 	ldrbvs	r6, [sl, #-2419]!	; 0xfffff68d
    9738:	6820666f 	stmdavs	r0!, {r0, r1, r2, r3, r5, r6, r9, sl, sp, lr}
    973c:	253d7264 	ldrcs	r7, [sp, #-612]!	; 0xfffffd9c
    9740:	72202c64 	eorvc	r2, r0, #100, 24	; 0x6400
    9744:	6f7a6465 	svcvs	0x007a6465
    9748:	253d656e 	ldrcs	r6, [sp, #-1390]!	; 0xfffffa92
    974c:	00000a64 	andeq	r0, r0, r4, ror #20
    9750:	4f525245 	svcmi	0x00525245
    9754:	73253a52 			; <UNDEFINED> instruction: 0x73253a52
    9758:	3a73253a 	bcc	1cd2c48 <__bss_end__+0x1cc8cb0>
    975c:	203a6425 	eorscs	r6, sl, r5, lsr #8
    9760:	534c4146 	movtpl	r4, #49478	; 0xc146
    9764:	683c2845 	ldmdavs	ip!, {r0, r2, r6, fp, sp}
    9768:	3e706165 	rpwccsz	f6, f0, f5
    976c:	6e203a29 	vmulvs.f32	s6, s0, s19
    9770:	6920746f 	stmdbvs	r0!, {r0, r1, r2, r3, r5, r6, sl, ip, sp, lr}
    9774:	6974696e 	ldmdbvs	r4!, {r1, r2, r3, r5, r6, r8, fp, sp, lr}^
    9778:	7a696c61 	bvc	1a64904 <__bss_end__+0x1a5a96c>
    977c:	0a3f6465 	beq	fe2918 <__bss_end__+0xfd8980>
    9780:	00000000 	andeq	r0, r0, r0
    9784:	65657266 	strbvs	r7, [r5, #-614]!	; 0xfffffd9a
    9788:	20676e69 	rsbcs	r6, r7, r9, ror #28
    978c:	000a7025 	andeq	r7, sl, r5, lsr #32
    9790:	6f6c6c61 	svcvs	0x006c6c61
    9794:	69746163 	ldmdbvs	r4!, {r0, r1, r5, r6, r8, sp, lr}^
    9798:	2520676e 	strcs	r6, [r0, #-1902]!	; 0xfffff892
    979c:	79622064 	stmdbvc	r2!, {r2, r5, r6, sp}^
    97a0:	0a736574 	beq	1ce2d78 <__bss_end__+0x1cd8de0>
    97a4:	00000000 	andeq	r0, r0, r0
    97a8:	43415254 	movtmi	r5, #4692	; 0x1254
    97ac:	52453a45 	subpl	r3, r5, #282624	; 0x45000
    97b0:	00524f52 	subseq	r4, r2, r2, asr pc
    97b4:	657a6973 	ldrbvs	r6, [sl, #-2419]!	; 0xfffff68d
    97b8:	65766f20 	ldrbvs	r6, [r6, #-3872]!	; 0xfffff0e0
    97bc:	6f6c6672 	svcvs	0x006c6672
    97c0:	3a646577 	bcc	1922da4 <__bss_end__+0x1918e0c>
    97c4:	20642520 	rsbcs	r2, r4, r0, lsr #10
    97c8:	65747962 	ldrbvs	r7, [r4, #-2402]!	; 0xfffff69e
    97cc:	73692073 	cmnvc	r9, #115	; 0x73
    97d0:	6f6f7420 	svcvs	0x006f7420
    97d4:	72616c20 	rsbvc	r6, r1, #32, 24	; 0x2000
    97d8:	000a6567 	andeq	r6, sl, r7, ror #10
    97dc:	494e4150 	stmdbmi	lr, {r4, r6, r8, lr}^
    97e0:	73253a43 			; <UNDEFINED> instruction: 0x73253a43
    97e4:	3a73253a 	bcc	1cd2cd4 <__bss_end__+0x1cc8d3c>
    97e8:	733a6425 	teqvc	sl, #620756992	; 0x25000000
    97ec:	20657a69 	rsbcs	r7, r5, r9, ror #20
    97f0:	7265766f 	rsbvc	r7, r5, #116391936	; 0x6f00000
    97f4:	776f6c66 	strbvc	r6, [pc, -r6, ror #24]!
    97f8:	203a6465 	eorscs	r6, sl, r5, ror #8
    97fc:	62206425 	eorvs	r6, r0, #620756992	; 0x25000000
    9800:	73657479 	cmnvc	r5, #2030043136	; 0x79000000
    9804:	20736920 	rsbscs	r6, r3, r0, lsr #18
    9808:	206f6f74 	rsbcs	r6, pc, r4, ror pc	; <UNPREDICTABLE>
    980c:	6772616c 	ldrbvs	r6, [r2, -ip, ror #2]!
    9810:	000a0a65 	andeq	r0, sl, r5, ror #20
    9814:	2074756f 	rsbscs	r7, r4, pc, ror #10
    9818:	6d20666f 	stcvs	6, cr6, [r0, #-444]!	; 0xfffffe44
    981c:	726f6d65 	rsbvc	r6, pc, #6464	; 0x1940
    9820:	20202179 	eorcs	r2, r0, r9, ror r1
    9824:	65766168 	ldrbvs	r6, [r6, #-360]!	; 0xfffffe98
    9828:	6c6e6f20 	stclvs	15, cr6, [lr], #-128	; 0xffffff80
    982c:	64252079 	strtvs	r2, [r5], #-121	; 0xffffff87
    9830:	66656c20 	strbtvs	r6, [r5], -r0, lsr #24
    9834:	6e202c74 	mcrvs	12, 1, r2, cr0, cr4, {3}
    9838:	20646565 	rsbcs	r6, r4, r5, ror #10
    983c:	000a6425 	andeq	r6, sl, r5, lsr #8
    9840:	494e4150 	stmdbmi	lr, {r4, r6, r8, lr}^
    9844:	73253a43 			; <UNDEFINED> instruction: 0x73253a43
    9848:	3a73253a 	bcc	1cd2d38 <__bss_end__+0x1cc8da0>
    984c:	6f3a6425 	svcvs	0x003a6425
    9850:	6f207475 	svcvs	0x00207475
    9854:	656d2066 	strbvs	r2, [sp, #-102]!	; 0xffffff9a
    9858:	79726f6d 	ldmdbvc	r2!, {r0, r2, r3, r5, r6, r8, r9, sl, fp, sp, lr}^
    985c:	68202021 	stmdavs	r0!, {r0, r5, sp}
    9860:	20657661 	rsbcs	r7, r5, r1, ror #12
    9864:	796c6e6f 	stmdbvc	ip!, {r0, r1, r2, r3, r5, r6, r9, sl, fp, sp, lr}^
    9868:	20642520 	rsbcs	r2, r4, r0, lsr #10
    986c:	7466656c 	strbtvc	r6, [r6], #-1388	; 0xfffffa94
    9870:	656e202c 	strbvs	r2, [lr, #-44]!	; 0xffffffd4
    9874:	25206465 	strcs	r6, [r0, #-1125]!	; 0xfffffb9b
    9878:	000a0a64 	andeq	r0, sl, r4, ror #20
    987c:	494e4150 	stmdbmi	lr, {r4, r6, r8, lr}^
    9880:	73253a43 			; <UNDEFINED> instruction: 0x73253a43
    9884:	3a73253a 	bcc	1cd2d74 <__bss_end__+0x1cc8ddc>
    9888:	633a6425 	teqvs	sl, #620756992	; 0x25000000
    988c:	6b636568 	blvs	18e2e34 <__bss_end__+0x18d8e9c>
    9890:	6f6c625f 	svcvs	0x006c625f
    9894:	68286b63 	stmdavs	r8!, {r0, r1, r5, r6, r8, r9, fp, sp, lr}
    9898:	00000a29 	andeq	r0, r0, r9, lsr #20
    989c:	6c616b63 			; <UNDEFINED> instruction: 0x6c616b63
    98a0:	3a636f6c 	bcc	18e5658 <__bss_end__+0x18db6c0>
    98a4:	6f6c6c61 	svcvs	0x006c6c61
    98a8:	65746163 	ldrbvs	r6, [r4, #-355]!	; 0xfffffe9d
    98ac:	64252064 	strtvs	r2, [r5], #-100	; 0xffffff9c
    98b0:	74796220 	ldrbtvc	r6, [r9], #-544	; 0xfffffde0
    98b4:	202c7365 	eorcs	r7, ip, r5, ror #6
    98b8:	746f7428 	strbtvc	r7, [pc], #-1064	; 98c0 <__FUNCTION__.4339+0x260>
    98bc:	253d6c61 	ldrcs	r6, [sp, #-3169]!	; 0xfffff39f
    98c0:	202c2964 	eorcs	r2, ip, r4, ror #18
    98c4:	3d727470 	cfldrdcc	mvd7, [r2, #-448]!	; 0xfffffe40
    98c8:	000a7025 	andeq	r7, sl, r5, lsr #32
    98cc:	6e696f67 	cdpvs	15, 6, cr6, cr9, cr7, {3}
    98d0:	6f742067 	svcvs	0x00742067
    98d4:	65686320 	strbvs	r6, [r8, #-800]!	; 0xfffffce0
    98d8:	68206b63 	stmdavs	r0!, {r0, r1, r5, r6, r8, r9, fp, sp, lr}
    98dc:	3a706165 	bcc	1c21e78 <__bss_end__+0x1c17ee0>
    98e0:	20642520 	rsbcs	r2, r4, r0, lsr #10
    98e4:	65747962 	ldrbvs	r7, [r4, #-2402]!	; 0xfffff69e
    98e8:	6c612073 	stclvs	0, cr2, [r1], #-460	; 0xfffffe34
    98ec:	61636f6c 	cmnvs	r3, ip, ror #30
    98f0:	2c646574 	cfstr64cs	mvdx6, [r4], #-464	; 0xfffffe30
    98f4:	20642520 	rsbcs	r2, r4, r0, lsr #10
    98f8:	65747962 	ldrbvs	r7, [r4, #-2402]!	; 0xfffff69e
    98fc:	656c2073 	strbvs	r2, [ip, #-115]!	; 0xffffff8d
    9900:	000a7466 	andeq	r7, sl, r6, ror #8
    9904:	63656863 	cmnvs	r5, #6488064	; 0x630000
    9908:	2064656b 	rsbcs	r6, r4, fp, ror #10
    990c:	62206425 	eorvs	r6, r0, #620756992	; 0x25000000
    9910:	6b636f6c 	blvs	18e56c8 <__bss_end__+0x18db730>
    9914:	64202c73 	strtvs	r2, [r0], #-3187	; 0xfffff38d
    9918:	63657465 	cmnvs	r5, #1694498816	; 0x65000000
    991c:	20646574 	rsbcs	r6, r4, r4, ror r5
    9920:	65206425 	strvs	r6, [r0, #-1061]!	; 0xfffffbdb
    9924:	726f7272 	rsbvc	r7, pc, #536870919	; 0x20000007
    9928:	00000a73 	andeq	r0, r0, r3, ror sl
    992c:	43435553 	movtmi	r5, #13651	; 0x3553
    9930:	3a535345 	bcc	14de64c <__bss_end__+0x14d46b4>
    9934:	65686320 	strbvs	r6, [r8, #-800]!	; 0xfffffce0
    9938:	64656b63 	strbtvs	r6, [r5], #-2915	; 0xfffff49d
    993c:	20642520 	rsbcs	r2, r4, r0, lsr #10
    9940:	636f6c62 	cmnvs	pc, #25088	; 0x6200
    9944:	202c736b 	eorcs	r7, ip, fp, ror #6
    9948:	65746564 	ldrbvs	r6, [r4, #-1380]!	; 0xfffffa9c
    994c:	64657463 	strbtvs	r7, [r5], #-1123	; 0xfffffb9d
    9950:	206f6e20 	rsbcs	r6, pc, r0, lsr #28
    9954:	6f727265 	svcvs	0x00727265
    9958:	000a7372 	andeq	r7, sl, r2, ror r3

0000995c <__FUNCTION__.4281>:
    995c:	74696d65 	strbtvc	r6, [r9], #-3429	; 0xfffff29b
    9960:	00000000 	andeq	r0, r0, r0

00009964 <__FUNCTION__.4229>:
    9964:	5f697072 	svcpl	0x00697072
    9968:	5f746573 	svcpl	0x00746573
    996c:	7074756f 	rsbsvc	r7, r4, pc, ror #10
    9970:	00007475 	andeq	r7, r0, r5, ror r4

00009974 <__FUNCTION__.4303>:
    9974:	705f6176 	subsvc	r6, pc, r6, ror r1	; <UNPREDICTABLE>
    9978:	746e6972 	strbtvc	r6, [lr], #-2418	; 0xfffff68e
    997c:	0000006b 	andeq	r0, r0, fp, rrx
    9980:	6362696c 	cmnvs	r2, #108, 18	; 0x1b0000
    9984:	2d61762f 	stclcs	6, cr7, [r1, #-188]!	; 0xffffff44
    9988:	6e697270 	mcrvs	2, 3, r7, cr9, cr0, {3}
    998c:	632e6b74 			; <UNDEFINED> instruction: 0x632e6b74
    9990:	00000000 	andeq	r0, r0, r0
    9994:	494e4150 	stmdbmi	lr, {r4, r6, r8, lr}^
    9998:	73253a43 			; <UNDEFINED> instruction: 0x73253a43
    999c:	3a73253a 	bcc	1cd2e8c <__bss_end__+0x1cc8ef4>
    99a0:	303a6425 	eorscc	r6, sl, r5, lsr #8
    99a4:	0000000a 	andeq	r0, r0, sl
    99a8:	33323130 	teqcc	r2, #48, 2
    99ac:	37363534 			; <UNDEFINED> instruction: 0x37363534
    99b0:	00003938 	andeq	r3, r0, r8, lsr r9
    99b4:	33323130 	teqcc	r2, #48, 2
    99b8:	37363534 			; <UNDEFINED> instruction: 0x37363534
    99bc:	62613938 	rsbvs	r3, r1, #56, 18	; 0xe0000
    99c0:	66656463 	strbtvs	r6, [r5], -r3, ror #8
    99c4:	00000000 	andeq	r0, r0, r0
    99c8:	00003130 	andeq	r3, r0, r0, lsr r1
    99cc:	494e4150 	stmdbmi	lr, {r4, r6, r8, lr}^
    99d0:	73253a43 			; <UNDEFINED> instruction: 0x73253a43
    99d4:	3a73253a 	bcc	1cd2ec4 <__bss_end__+0x1cc8f2c>
    99d8:	703a6425 	eorsvc	r6, sl, r5, lsr #8
    99dc:	5f637475 	svcpl	0x00637475
    99e0:	000a7066 	andeq	r7, sl, r6, rrx
    99e4:	494e4150 	stmdbmi	lr, {r4, r6, r8, lr}^
    99e8:	73253a43 			; <UNDEFINED> instruction: 0x73253a43
    99ec:	3a73253a 	bcc	1cd2edc <__bss_end__+0x1cc8f44>
    99f0:	773a6425 	ldrvc	r6, [sl, -r5, lsr #8]!
    99f4:	68746469 	ldmdavs	r4!, {r0, r3, r5, r6, sl, sp, lr}^
    99f8:	33203c20 			; <UNDEFINED> instruction: 0x33203c20
    99fc:	00000a32 	andeq	r0, r0, r2, lsr sl
    9a00:	494e4150 	stmdbmi	lr, {r4, r6, r8, lr}^
    9a04:	73253a43 			; <UNDEFINED> instruction: 0x73253a43
    9a08:	3a73253a 	bcc	1cd2ef8 <__bss_end__+0x1cc8f60>
    9a0c:	663a6425 	ldrtvs	r6, [sl], -r5, lsr #8
    9a10:	74616f6c 	strbtvc	r6, [r1], #-3948	; 0xfffff094
    9a14:	746f6e20 	strbtvc	r6, [pc], #-3616	; 9a1c <__FUNCTION__.4303+0xa8>
    9a18:	616e6520 	cmnvs	lr, r0, lsr #10
    9a1c:	64656c62 	strbtvs	r6, [r5], #-3170	; 0xfffff39e
    9a20:	0a212121 	beq	851eac <__bss_end__+0x847f14>
    9a24:	00000000 	andeq	r0, r0, r0
    9a28:	494e4150 	stmdbmi	lr, {r4, r6, r8, lr}^
    9a2c:	73253a43 			; <UNDEFINED> instruction: 0x73253a43
    9a30:	3a73253a 	bcc	1cd2f20 <__bss_end__+0x1cc8f88>
    9a34:	703a6425 	eorsvc	r6, sl, r5, lsr #8
    9a38:	746e6972 	strbtvc	r6, [lr], #-2418	; 0xfffff68e
    9a3c:	6e203a6b 	vnmulvs.f32	s6, s0, s23
    9a40:	6820746f 	stmdavs	r0!, {r0, r1, r2, r3, r5, r6, sl, ip, sp, lr}
    9a44:	6c646e61 	stclvs	14, cr6, [r4], #-388	; 0xfffffe7c
    9a48:	20676e69 	rsbcs	r6, r7, r9, ror #28
    9a4c:	63657073 	cmnvs	r5, #115	; 0x73
    9a50:	65696669 	strbvs	r6, [r9, #-1641]!	; 0xfffff997
    9a54:	25272072 	strcs	r2, [r7, #-114]!	; 0xffffff8e
    9a58:	0a0a2763 	beq	2937ec <__bss_end__+0x289854>
    9a5c:	00000000 	andeq	r0, r0, r0
    9a60:	454e4f44 	strbmi	r4, [lr, #-3908]	; 0xfffff0bc
    9a64:	0a212121 	beq	851ef0 <__bss_end__+0x847f58>
    9a68:	00000000 	andeq	r0, r0, r0

00009a6c <__FUNCTION__.4237>:
    9a6c:	6c616d6b 	stclvs	13, cr6, [r1], #-428	; 0xfffffe54
    9a70:	5f636f6c 	svcpl	0x00636f6c
    9a74:	74696e69 	strbtvc	r6, [r9], #-3689	; 0xfffff197
    9a78:	7465735f 	strbtvc	r7, [r5], #-863	; 0xfffffca1
    9a7c:	6174735f 	cmnvs	r4, pc, asr r3
    9a80:	00007472 	andeq	r7, r0, r2, ror r4

00009a84 <__FUNCTION__.4241>:
    9a84:	6c616d6b 	stclvs	13, cr6, [r1], #-428	; 0xfffffe54
    9a88:	00636f6c 	rsbeq	r6, r3, ip, ror #30

00009a8c <__FUNCTION__.4253>:
    9a8c:	6c616d6b 	stclvs	13, cr6, [r1], #-428	; 0xfffffe54
    9a90:	5f636f6c 	svcpl	0x00636f6c
    9a94:	67696c61 	strbvs	r6, [r9, -r1, ror #24]!
    9a98:	0064656e 	rsbeq	r6, r4, lr, ror #10
    9a9c:	6c616d6b 	stclvs	13, cr6, [r1], #-428	; 0xfffffe54
    9aa0:	2e636f6c 	cdpcs	15, 6, cr6, cr3, cr12, {3}
    9aa4:	00000063 	andeq	r0, r0, r3, rrx
    9aa8:	494e4150 	stmdbmi	lr, {r4, r6, r8, lr}^
    9aac:	73253a43 			; <UNDEFINED> instruction: 0x73253a43
    9ab0:	3a73253a 	bcc	1cd2fa0 <__bss_end__+0x1cc9008>
    9ab4:	613a6425 	teqvs	sl, r5, lsr #8
    9ab8:	20726464 	rsbscs	r6, r2, r4, ror #8
    9abc:	6568203e 	strbvs	r2, [r8, #-62]!	; 0xffffffc2
    9ac0:	000a7061 	andeq	r7, sl, r1, rrx
    9ac4:	494e4150 	stmdbmi	lr, {r4, r6, r8, lr}^
    9ac8:	73253a43 			; <UNDEFINED> instruction: 0x73253a43
    9acc:	3a73253a 	bcc	1cd2fbc <__bss_end__+0x1cc9024>
    9ad0:	733a6425 	teqvc	sl, #620756992	; 0x25000000
    9ad4:	00000a7a 	andeq	r0, r0, sl, ror sl
    9ad8:	4f525245 	svcmi	0x00525245
    9adc:	73253a52 			; <UNDEFINED> instruction: 0x73253a52
    9ae0:	3a73253a 	bcc	1cd2fd0 <__bss_end__+0x1cc9038>
    9ae4:	203a6425 	eorscs	r6, sl, r5, lsr #8
    9ae8:	534c4146 	movtpl	r4, #49478	; 0xc146
    9aec:	283c2845 	ldmdacs	ip!, {r0, r2, r6, fp, sp}
    9af0:	6c612828 	stclvs	8, cr2, [r1], #-160	; 0xffffff60
    9af4:	6d6e6769 	stclvs	7, cr6, [lr, #-420]!	; 0xfffffe5c
    9af8:	29746e65 	ldmdbcs	r4!, {r0, r2, r5, r6, r9, sl, fp, sp, lr}^
    9afc:	61282d26 			; <UNDEFINED> instruction: 0x61282d26
    9b00:	6e67696c 	vnmulvs.f16	s13, s14, s25	; <UNPREDICTABLE>
    9b04:	746e656d 	strbtvc	r6, [lr], #-1389	; 0xfffffa93
    9b08:	3d202929 			; <UNDEFINED> instruction: 0x3d202929
    9b0c:	6128203d 			; <UNDEFINED> instruction: 0x6128203d
    9b10:	6e67696c 	vnmulvs.f16	s13, s14, s25	; <UNPREDICTABLE>
    9b14:	746e656d 	strbtvc	r6, [lr], #-1389	; 0xfffffa93
    9b18:	293e2929 	ldmdbcs	lr!, {r0, r3, r5, r8, fp, sp}
    9b1c:	7361203a 	cmnvc	r1, #58	; 0x3a
    9b20:	696d7573 	stmdbvs	sp!, {r0, r1, r4, r5, r6, r8, sl, ip, sp, lr}^
    9b24:	7020676e 	eorvc	r6, r0, lr, ror #14
    9b28:	7265776f 	rsbvc	r7, r5, #29097984	; 0x1bc0000
    9b2c:	20666f20 	rsbcs	r6, r6, r0, lsr #30
    9b30:	0a6f7774 	beq	1be7908 <__bss_end__+0x1bdd970>
    9b34:	00000000 	andeq	r0, r0, r0
    9b38:	4f525245 	svcmi	0x00525245
    9b3c:	73253a52 			; <UNDEFINED> instruction: 0x73253a52
    9b40:	3a73253a 	bcc	1cd3030 <__bss_end__+0x1cc9098>
    9b44:	203a6425 	eorscs	r6, sl, r5, lsr #8
    9b48:	534c4146 	movtpl	r4, #49478	; 0xc146
    9b4c:	283c2845 	ldmdacs	ip!, {r0, r2, r6, fp, sp}
    9b50:	29682828 	stmdbcs	r8!, {r3, r5, fp, sp}^
    9b54:	28202620 	stmdacs	r0!, {r5, r9, sl, sp}
    9b58:	70797428 	rsbsvc	r7, r9, r8, lsr #8
    9b5c:	28666f65 	stmdacs	r6!, {r0, r2, r5, r6, r8, r9, sl, fp, sp, lr}^
    9b60:	28292968 	stmdacs	r9!, {r3, r5, r6, r8, fp, sp}
    9b64:	67696c61 	strbvs	r6, [r9, -r1, ror #24]!
    9b68:	6e656d6e 	cdpvs	13, 6, cr6, cr5, cr14, {3}
    9b6c:	2d202974 			; <UNDEFINED> instruction: 0x2d202974
    9b70:	29293120 	stmdbcs	r9!, {r5, r8, ip, sp}
    9b74:	203d3d20 	eorscs	r3, sp, r0, lsr #26
    9b78:	293e2930 	ldmdbcs	lr!, {r4, r5, r8, fp, sp}
    9b7c:	6d69203a 	stclvs	0, cr2, [r9, #-232]!	; 0xffffff18
    9b80:	73736f70 	cmnvc	r3, #112, 30	; 0x1c0
    9b84:	656c6269 	strbvs	r6, [ip, #-617]!	; 0xfffffd97
    9b88:	0000000a 	andeq	r0, r0, sl

Disassembly of section .bss:

00009b8c <__bss_start__>:
    9b8c:	00000000 	andeq	r0, r0, r0

00009b90 <heap>:
    9b90:	00000000 	andeq	r0, r0, r0

00009b94 <heap_end>:
    9b94:	00000000 	andeq	r0, r0, r0

00009b98 <buf.4229>:
	...

Disassembly of section .ARM.attributes:

00000000 <.ARM.attributes>:
   0:	00002a41 	andeq	r2, r0, r1, asr #20
   4:	61656100 	cmnvs	r5, r0, lsl #2
   8:	01006962 	tsteq	r0, r2, ror #18
   c:	00000020 	andeq	r0, r0, r0, lsr #32
  10:	4b5a3605 	blmi	168d82c <__bss_end__+0x1683894>
  14:	08070600 	stmdaeq	r7, {r9, sl}
  18:	12010901 	andne	r0, r1, #16384	; 0x4000
  1c:	15011404 	strne	r1, [r1, #-1028]	; 0xfffffbfc
  20:	18031701 	stmdane	r3, {r0, r8, r9, sl, ip}
  24:	22011a01 	andcs	r1, r1, #4096	; 0x1000
  28:	Address 0x0000000000000028 is out of bounds.


Disassembly of section .comment:

00000000 <.comment>:
   0:	3a434347 	bcc	10d0d24 <__bss_end__+0x10c6d8c>
   4:	35312820 	ldrcc	r2, [r1, #-2080]!	; 0xfffff7e0
   8:	332e363a 			; <UNDEFINED> instruction: 0x332e363a
   c:	732b312e 			; <UNDEFINED> instruction: 0x732b312e
  10:	35326e76 	ldrcc	r6, [r2, #-3702]!	; 0xfffff18a
  14:	39333033 	ldmdbcc	r3!, {r0, r1, r4, r5, ip, sp}
  18:	7562312d 	strbvc	r3, [r2, #-301]!	; 0xfffffed3
  1c:	31646c69 	cmncc	r4, r9, ror #24
  20:	2e362029 	cdpcs	0, 3, cr2, cr6, cr9, {1}
  24:	20312e33 	eorscs	r2, r1, r3, lsr lr
  28:	37313032 			; <UNDEFINED> instruction: 0x37313032
  2c:	30323630 	eorscc	r3, r2, r0, lsr r6
	...

Disassembly of section .debug_info:

00000000 <.debug_info>:
       0:	00000a15 	andeq	r0, r0, r5, lsl sl
       4:	00000004 	andeq	r0, r0, r4
       8:	01040000 	mrseq	r0, (UNDEF: 4)
       c:	000003a4 	andeq	r0, r0, r4, lsr #7
      10:	0001220c 	andeq	r2, r1, ip, lsl #4
      14:	0000bf00 	andeq	fp, r0, r0, lsl #30
      18:	00801000 	addeq	r1, r0, r0
      1c:	00007c00 	andeq	r7, r0, r0, lsl #24
      20:	00000000 	andeq	r0, r0, r0
      24:	05040200 	streq	r0, [r4, #-512]	; 0xfffffe00
      28:	00746e69 	rsbseq	r6, r4, r9, ror #28
      2c:	57070403 	strpl	r0, [r7, -r3, lsl #8]
      30:	03000000 	movweq	r0, #0
      34:	02c80601 	sbceq	r0, r8, #1048576	; 0x100000
      38:	02030000 	andeq	r0, r3, #0
      3c:	0002e205 	andeq	lr, r2, r5, lsl #4
      40:	05040300 	streq	r0, [r4, #-768]	; 0xfffffd00
      44:	000000a0 	andeq	r0, r0, r0, lsr #1
      48:	9b050803 	blls	14205c <__bss_end__+0x1380c4>
      4c:	03000000 	movweq	r0, #0
      50:	02c60801 	sbceq	r0, r6, #65536	; 0x10000
      54:	02030000 	andeq	r0, r3, #0
      58:	00020e07 	andeq	r0, r2, r7, lsl #28
      5c:	07040300 	streq	r0, [r4, -r0, lsl #6]
      60:	00000052 	andeq	r0, r0, r2, asr r0
      64:	4d070803 	stcmi	8, cr0, [r7, #-12]
      68:	04000000 	streq	r0, [r0], #-0
      6c:	000002b4 			; <UNDEFINED> instruction: 0x000002b4
      70:	00250702 	eoreq	r0, r5, r2, lsl #14
      74:	a3040000 	movwge	r0, #16384	; 0x4000
      78:	03000002 	movweq	r0, #2
      7c:	0000412c 	andeq	r4, r0, ip, lsr #2
      80:	038d0400 	orreq	r0, sp, #0, 8
      84:	72030000 	andvc	r0, r3, #0
      88:	00000041 	andeq	r0, r0, r1, asr #32
      8c:	00025105 	andeq	r5, r2, r5, lsl #2
      90:	01650400 	cmneq	r5, r0, lsl #8
      94:	0000002c 	andeq	r0, r0, ip, lsr #32
      98:	a6030406 	strge	r0, [r3], -r6, lsl #8
      9c:	000000b7 	strheq	r0, [r0], -r7
      a0:	00024b07 	andeq	r4, r2, r7, lsl #22
      a4:	8ca80300 	stchi	3, cr0, [r8]
      a8:	07000000 	streq	r0, [r0, -r0]
      ac:	000001dd 	ldrdeq	r0, [r0], -sp
      b0:	00b7a903 	adcseq	sl, r7, r3, lsl #18
      b4:	08000000 	stmdaeq	r0, {}	; <UNPREDICTABLE>
      b8:	0000004f 	andeq	r0, r0, pc, asr #32
      bc:	000000c7 	andeq	r0, r0, r7, asr #1
      c0:	0000c709 	andeq	ip, r0, r9, lsl #14
      c4:	03000300 	movweq	r0, #768	; 0x300
      c8:	02770704 	rsbseq	r0, r7, #4, 14	; 0x100000
      cc:	080a0000 	stmdaeq	sl, {}	; <UNPREDICTABLE>
      d0:	00efa303 	rsceq	sl, pc, r3, lsl #6
      d4:	770b0000 	strvc	r0, [fp, -r0]
      d8:	03000003 	movweq	r0, #3
      dc:	000025a5 	andeq	r2, r0, r5, lsr #11
      e0:	7f0b0000 	svcvc	0x000b0000
      e4:	03000003 	movweq	r0, #3
      e8:	000098aa 	andeq	r9, r0, sl, lsr #17
      ec:	04000400 	streq	r0, [r0], #-1024	; 0xfffffc00
      f0:	0000030a 	andeq	r0, r0, sl, lsl #6
      f4:	00ceab03 	sbceq	sl, lr, r3, lsl #22
      f8:	9a040000 	bls	100100 <__bss_end__+0xf6168>
      fc:	03000001 	movweq	r0, #1
     100:	00006baf 	andeq	r6, r0, pc, lsr #23
     104:	0d040c00 	stceq	12, cr0, [r4, #-0]
     108:	00010d04 	andeq	r0, r1, r4, lsl #26
     10c:	08010300 	stmdaeq	r1, {r8, r9}
     110:	000002cf 	andeq	r0, r0, pc, asr #5
     114:	00010d0e 	andeq	r0, r1, lr, lsl #26
     118:	04210400 	strteq	r0, [r1], #-1024	; 0xfffffc00
     11c:	16050000 	strne	r0, [r5], -r0
     120:	0000005d 	andeq	r0, r0, sp, asr r0
     124:	0001ab0f 	andeq	sl, r1, pc, lsl #22
     128:	2d051800 	stccs	8, cr1, [r5, #-0]
     12c:	00000177 	andeq	r0, r0, r7, ror r1
     130:	00032b0b 	andeq	r2, r3, fp, lsl #22
     134:	772f0500 	strvc	r0, [pc, -r0, lsl #10]!
     138:	00000001 	andeq	r0, r0, r1
     13c:	006b5f10 	rsbeq	r5, fp, r0, lsl pc
     140:	00253005 	eoreq	r3, r5, r5
     144:	0b040000 	bleq	10014c <__bss_end__+0xf61b4>
     148:	00000362 	andeq	r0, r0, r2, ror #6
     14c:	00253005 	eoreq	r3, r5, r5
     150:	0b080000 	bleq	200158 <__bss_end__+0x1f61c0>
     154:	00000194 	muleq	r0, r4, r1
     158:	00253005 	eoreq	r3, r5, r5
     15c:	0b0c0000 	bleq	300164 <__bss_end__+0x2f61cc>
     160:	0000046f 	andeq	r0, r0, pc, ror #8
     164:	00253005 	eoreq	r3, r5, r5
     168:	10100000 	andsne	r0, r0, r0
     16c:	0500785f 	streq	r7, [r0, #-2143]	; 0xfffff7a1
     170:	00017d31 	andeq	r7, r1, r1, lsr sp
     174:	0d001400 	cfstrseq	mvf1, [r0, #-0]
     178:	00012404 	andeq	r2, r1, r4, lsl #8
     17c:	01190800 	tsteq	r9, r0, lsl #16
     180:	018d0000 	orreq	r0, sp, r0
     184:	c7090000 	strgt	r0, [r9, -r0]
     188:	00000000 	andeq	r0, r0, r0
     18c:	01d80f00 	bicseq	r0, r8, r0, lsl #30
     190:	05240000 	streq	r0, [r4, #-0]!
     194:	00020635 	andeq	r0, r2, r5, lsr r6
     198:	00920b00 	addseq	r0, r2, r0, lsl #22
     19c:	37050000 	strcc	r0, [r5, -r0]
     1a0:	00000025 	andeq	r0, r0, r5, lsr #32
     1a4:	03950b00 	orrseq	r0, r5, #0, 22
     1a8:	38050000 	stmdacc	r5, {}	; <UNPREDICTABLE>
     1ac:	00000025 	andeq	r0, r0, r5, lsr #32
     1b0:	00b50b04 	adcseq	r0, r5, r4, lsl #22
     1b4:	39050000 	stmdbcc	r5, {}	; <UNPREDICTABLE>
     1b8:	00000025 	andeq	r0, r0, r5, lsr #32
     1bc:	04f70b08 	ldrbteq	r0, [r7], #2824	; 0xb08
     1c0:	3a050000 	bcc	1401c8 <__bss_end__+0x136230>
     1c4:	00000025 	andeq	r0, r0, r5, lsr #32
     1c8:	02870b0c 	addeq	r0, r7, #12, 22	; 0x3000
     1cc:	3b050000 	blcc	1401d4 <__bss_end__+0x13623c>
     1d0:	00000025 	andeq	r0, r0, r5, lsr #32
     1d4:	026d0b10 	rsbeq	r0, sp, #16, 22	; 0x4000
     1d8:	3c050000 	stccc	0, cr0, [r5], {-0}
     1dc:	00000025 	andeq	r0, r0, r5, lsr #32
     1e0:	04740b14 	ldrbteq	r0, [r4], #-2836	; 0xfffff4ec
     1e4:	3d050000 	stccc	0, cr0, [r5, #-0]
     1e8:	00000025 	andeq	r0, r0, r5, lsr #32
     1ec:	02ec0b18 	rsceq	r0, ip, #24, 22	; 0x6000
     1f0:	3e050000 	cdpcc	0, 0, cr0, cr5, cr0, {0}
     1f4:	00000025 	andeq	r0, r0, r5, lsr #32
     1f8:	04be0b1c 	ldrteq	r0, [lr], #2844	; 0xb1c
     1fc:	3f050000 	svccc	0x00050000
     200:	00000025 	andeq	r0, r0, r5, lsr #32
     204:	f5110020 			; <UNDEFINED> instruction: 0xf5110020
     208:	08000000 	stmdaeq	r0, {}	; <UNPREDICTABLE>
     20c:	46480501 	strbmi	r0, [r8], -r1, lsl #10
     210:	0b000002 	bleq	220 <_start-0x7de0>
     214:	00000187 	andeq	r0, r0, r7, lsl #3
     218:	02464905 	subeq	r4, r6, #81920	; 0x14000
     21c:	0b000000 	bleq	224 <_start-0x7ddc>
     220:	00000000 	andeq	r0, r0, r0
     224:	02464a05 	subeq	r4, r6, #20480	; 0x5000
     228:	12800000 	addne	r0, r0, #0
     22c:	00000413 	andeq	r0, r0, r3, lsl r4
     230:	01194c05 	tsteq	r9, r5, lsl #24
     234:	01000000 	mrseq	r0, (UNDEF: 0)
     238:	00011a12 	andeq	r1, r1, r2, lsl sl
     23c:	194f0500 	stmdbne	pc, {r8, sl}^	; <UNPREDICTABLE>
     240:	04000001 	streq	r0, [r0], #-1
     244:	05080001 	streq	r0, [r8, #-1]
     248:	56000001 	strpl	r0, [r0], -r1
     24c:	09000002 	stmdbeq	r0, {r1}
     250:	000000c7 	andeq	r0, r0, r7, asr #1
     254:	9011001f 	andsls	r0, r1, pc, lsl r0
     258:	90000002 	andls	r0, r0, r2
     25c:	945b0501 	ldrbls	r0, [fp], #-1281	; 0xfffffaff
     260:	0b000002 	bleq	270 <_start-0x7d90>
     264:	0000032b 	andeq	r0, r0, fp, lsr #6
     268:	02945c05 	addseq	r5, r4, #1280	; 0x500
     26c:	0b000000 	bleq	274 <_start-0x7d8c>
     270:	00000343 	andeq	r0, r0, r3, asr #6
     274:	00255d05 	eoreq	r5, r5, r5, lsl #26
     278:	0b040000 	bleq	100280 <__bss_end__+0xf62e8>
     27c:	0000018f 	andeq	r0, r0, pc, lsl #3
     280:	029a5f05 	addseq	r5, sl, #5, 30
     284:	0b080000 	bleq	20028c <__bss_end__+0x1f62f4>
     288:	000000f5 	strdeq	r0, [r0], -r5
     28c:	02066005 	andeq	r6, r6, #5
     290:	00880000 	addeq	r0, r8, r0
     294:	0256040d 	subseq	r0, r6, #218103808	; 0xd000000
     298:	aa080000 	bge	2002a0 <__bss_end__+0x1f6308>
     29c:	aa000002 	bge	2ac <_start-0x7d54>
     2a0:	09000002 	stmdbeq	r0, {r1}
     2a4:	000000c7 	andeq	r0, r0, r7, asr #1
     2a8:	040d001f 	streq	r0, [sp], #-31	; 0xffffffe1
     2ac:	000002b0 			; <UNDEFINED> instruction: 0x000002b0
     2b0:	02f60f13 	rscseq	r0, r6, #19, 30	; 0x4c
     2b4:	05080000 	streq	r0, [r8, #-0]
     2b8:	0002d673 	andeq	sp, r2, r3, ror r6
     2bc:	00af0b00 	adceq	r0, pc, r0, lsl #22
     2c0:	74050000 	strvc	r0, [r5], #-0
     2c4:	000002d6 	ldrdeq	r0, [r0], -r6
     2c8:	000c0b00 	andeq	r0, ip, r0, lsl #22
     2cc:	75050000 	strvc	r0, [r5, #-0]
     2d0:	00000025 	andeq	r0, r0, r5, lsr #32
     2d4:	040d0004 	streq	r0, [sp], #-4
     2d8:	0000004f 	andeq	r0, r0, pc, asr #32
     2dc:	0003150f 	andeq	r1, r3, pc, lsl #10
     2e0:	b3056800 	movwlt	r6, #22528	; 0x5800
     2e4:	00000406 	andeq	r0, r0, r6, lsl #8
     2e8:	00705f10 	rsbseq	r5, r0, r0, lsl pc
     2ec:	02d6b405 	sbcseq	fp, r6, #83886080	; 0x5000000
     2f0:	10000000 	andne	r0, r0, r0
     2f4:	0500725f 	streq	r7, [r0, #-607]	; 0xfffffda1
     2f8:	000025b5 			; <UNDEFINED> instruction: 0x000025b5
     2fc:	5f100400 	svcpl	0x00100400
     300:	b6050077 			; <UNDEFINED> instruction: 0xb6050077
     304:	00000025 	andeq	r0, r0, r5, lsr #32
     308:	01130b08 	tsteq	r3, r8, lsl #22
     30c:	b7050000 	strlt	r0, [r5, -r0]
     310:	0000003a 	andeq	r0, r0, sl, lsr r0
     314:	01f40b0c 	mvnseq	r0, ip, lsl #22
     318:	b8050000 	stmdalt	r5, {}	; <UNPREDICTABLE>
     31c:	0000003a 	andeq	r0, r0, sl, lsr r0
     320:	625f100e 	subsvs	r1, pc, #14
     324:	b9050066 	stmdblt	r5, {r1, r2, r5, r6}
     328:	000002b1 			; <UNDEFINED> instruction: 0x000002b1
     32c:	006c0b10 	rsbeq	r0, ip, r0, lsl fp
     330:	ba050000 	blt	140338 <__bss_end__+0x1363a0>
     334:	00000025 	andeq	r0, r0, r5, lsr #32
     338:	01030b18 	tsteq	r3, r8, lsl fp
     33c:	c1050000 	mrsgt	r0, (UNDEF: 5)
     340:	00000105 	andeq	r0, r0, r5, lsl #2
     344:	0a780b1c 	beq	1e02fbc <__bss_end__+0x1df9024>
     348:	c3050000 	movwgt	r0, #20480	; 0x5000
     34c:	00000561 	andeq	r0, r0, r1, ror #10
     350:	060c0b20 	streq	r0, [ip], -r0, lsr #22
     354:	c5050000 	strgt	r0, [r5, #-0]
     358:	0000058b 	andeq	r0, r0, fp, lsl #11
     35c:	03870b24 	orreq	r0, r7, #36, 22	; 0x9000
     360:	c8050000 	stmdagt	r5, {}	; <UNPREDICTABLE>
     364:	000005af 	andeq	r0, r0, pc, lsr #11
     368:	04d80b28 	ldrbeq	r0, [r8], #2856	; 0xb28
     36c:	c9050000 	stmdbgt	r5, {}	; <UNPREDICTABLE>
     370:	000005c9 	andeq	r0, r0, r9, asr #11
     374:	755f102c 	ldrbvc	r1, [pc, #-44]	; 350 <_start-0x7cb0>
     378:	cc050062 	stcgt	0, cr0, [r5], {98}	; 0x62
     37c:	000002b1 			; <UNDEFINED> instruction: 0x000002b1
     380:	755f1030 	ldrbvc	r1, [pc, #-48]	; 358 <_start-0x7ca8>
     384:	cd050070 	stcgt	0, cr0, [r5, #-448]	; 0xfffffe40
     388:	000002d6 	ldrdeq	r0, [r0], -r6
     38c:	755f1038 	ldrbvc	r1, [pc, #-56]	; 35c <_start-0x7ca4>
     390:	ce050072 	mcrgt	0, 0, r0, cr5, cr2, {3}
     394:	00000025 	andeq	r0, r0, r5, lsr #32
     398:	00a90b3c 	adceq	r0, r9, ip, lsr fp
     39c:	d1050000 	mrsle	r0, (UNDEF: 5)
     3a0:	000005cf 	andeq	r0, r0, pc, asr #11
     3a4:	04b00b40 	ldrteq	r0, [r0], #2880	; 0xb40
     3a8:	d2050000 	andle	r0, r5, #0
     3ac:	000005df 	ldrdeq	r0, [r0], -pc	; <UNPREDICTABLE>
     3b0:	6c5f1043 	mrrcvs	0, 4, r1, pc, cr3	; <UNPREDICTABLE>
     3b4:	d5050062 	strle	r0, [r5, #-98]	; 0xffffff9e
     3b8:	000002b1 			; <UNDEFINED> instruction: 0x000002b1
     3bc:	01380b44 	teqeq	r8, r4, asr #22
     3c0:	d8050000 	stmdale	r5, {}	; <UNPREDICTABLE>
     3c4:	00000025 	andeq	r0, r0, r5, lsr #32
     3c8:	01490b4c 	cmpeq	r9, ip, asr #22
     3cc:	d9050000 	stmdble	r5, {}	; <UNPREDICTABLE>
     3d0:	00000076 	andeq	r0, r0, r6, ror r0
     3d4:	0a190b50 	beq	64311c <__bss_end__+0x639184>
     3d8:	dc050000 	stcle	0, cr0, [r5], {-0}
     3dc:	00000424 	andeq	r0, r0, r4, lsr #8
     3e0:	025f0b54 	subseq	r0, pc, #84, 22	; 0x15000
     3e4:	e0050000 	and	r0, r5, r0
     3e8:	000000fa 	strdeq	r0, [r0], -sl
     3ec:	031d0b58 	tsteq	sp, #88, 22	; 0x16000
     3f0:	e2050000 	and	r0, r5, #0
     3f4:	000000ef 	andeq	r0, r0, pc, ror #1
     3f8:	02650b5c 	rsbeq	r0, r5, #92, 22	; 0x17000
     3fc:	e3050000 	movw	r0, #20480	; 0x5000
     400:	00000025 	andeq	r0, r0, r5, lsr #32
     404:	25140064 	ldrcs	r0, [r4, #-100]	; 0xffffff9c
     408:	24000000 	strcs	r0, [r0], #-0
     40c:	15000004 	strne	r0, [r0, #-4]
     410:	00000424 	andeq	r0, r0, r4, lsr #8
     414:	00010515 	andeq	r0, r1, r5, lsl r5
     418:	01071500 	tsteq	r7, r0, lsl #10
     41c:	25150000 	ldrcs	r0, [r5, #-0]
     420:	00000000 	andeq	r0, r0, r0
     424:	042f040d 	strteq	r0, [pc], #-1037	; 42c <_start-0x7bd4>
     428:	240e0000 	strcs	r0, [lr], #-0
     42c:	16000004 	strne	r0, [r0], -r4
     430:	0000036a 	andeq	r0, r0, sl, ror #6
     434:	38050428 	stmdacc	r5, {r3, r5, sl}
     438:	00056102 	andeq	r6, r5, r2, lsl #2
     43c:	02db1700 	sbcseq	r1, fp, #0, 14
     440:	3a050000 	bcc	140448 <__bss_end__+0x1364b0>
     444:	00002502 	andeq	r2, r0, r2, lsl #10
     448:	84170000 	ldrhi	r0, [r7], #-0
     44c:	05000004 	streq	r0, [r0, #-4]
     450:	0636023f 			; <UNDEFINED> instruction: 0x0636023f
     454:	17040000 	strne	r0, [r4, -r0]
     458:	000001e4 	andeq	r0, r0, r4, ror #3
     45c:	36023f05 	strcc	r3, [r2], -r5, lsl #30
     460:	08000006 	stmdaeq	r0, {r1, r2}
     464:	0001a317 	andeq	sl, r1, r7, lsl r3
     468:	023f0500 	eorseq	r0, pc, #0, 10
     46c:	00000636 	andeq	r0, r0, r6, lsr r6
     470:	033e170c 	teqeq	lr, #12, 14	; 0x300000
     474:	41050000 	mrsmi	r0, (UNDEF: 5)
     478:	00002502 	andeq	r2, r0, r2, lsl #10
     47c:	1a171000 	bne	5c4484 <__bss_end__+0x5ba4ec>
     480:	05000000 	streq	r0, [r0, #-0]
     484:	08180242 	ldmdaeq	r8, {r1, r6, r9}
     488:	17140000 	ldrne	r0, [r4, -r0]
     48c:	00000449 	andeq	r0, r0, r9, asr #8
     490:	25024405 	strcs	r4, [r2, #-1029]	; 0xfffffbfb
     494:	30000000 	andcc	r0, r0, r0
     498:	00034817 	andeq	r4, r3, r7, lsl r8
     49c:	02450500 	subeq	r0, r5, #0, 10
     4a0:	00000585 	andeq	r0, r0, r5, lsl #11
     4a4:	02981734 	addseq	r1, r8, #52, 14	; 0xd00000
     4a8:	47050000 	strmi	r0, [r5, -r0]
     4ac:	00002502 	andeq	r2, r0, r2, lsl #10
     4b0:	58173800 	ldmdapl	r7, {fp, ip, sp}
     4b4:	05000003 	streq	r0, [r0, #-3]
     4b8:	08330249 	ldmdaeq	r3!, {r0, r3, r6, r9}
     4bc:	173c0000 	ldrne	r0, [ip, -r0]!
     4c0:	00000243 	andeq	r0, r0, r3, asr #4
     4c4:	77024c05 	strvc	r4, [r2, -r5, lsl #24]
     4c8:	40000001 	andmi	r0, r0, r1
     4cc:	0001c217 	andeq	ip, r1, r7, lsl r2
     4d0:	024d0500 	subeq	r0, sp, #0, 10
     4d4:	00000025 	andeq	r0, r0, r5, lsr #32
     4d8:	04f21744 	ldrbteq	r1, [r2], #1860	; 0x744
     4dc:	4e050000 	cdpmi	0, 0, cr0, cr5, cr0, {0}
     4e0:	00017702 	andeq	r7, r1, r2, lsl #14
     4e4:	aa174800 	bge	5d24ec <__bss_end__+0x5c8554>
     4e8:	05000002 	streq	r0, [r0, #-2]
     4ec:	0839024f 	ldmdaeq	r9!, {r0, r1, r2, r3, r6, r9}
     4f0:	174c0000 	strbne	r0, [ip, -r0]
     4f4:	000001ec 	andeq	r0, r0, ip, ror #3
     4f8:	25025205 	strcs	r5, [r2, #-517]	; 0xfffffdfb
     4fc:	50000000 	andpl	r0, r0, r0
     500:	00014117 	andeq	r4, r1, r7, lsl r1
     504:	02530500 	subseq	r0, r3, #0, 10
     508:	00000107 	andeq	r0, r0, r7, lsl #2
     50c:	02d41754 	sbcseq	r1, r4, #84, 14	; 0x1500000
     510:	76050000 	strvc	r0, [r5], -r0
     514:	0007f602 	andeq	pc, r7, r2, lsl #12
     518:	90185800 	andsls	r5, r8, r0, lsl #16
     51c:	05000002 	streq	r0, [r0, #-2]
     520:	0294027a 	addseq	r0, r4, #-1610612729	; 0xa0000007
     524:	01480000 	mrseq	r0, (UNDEF: 72)
     528:	00022118 	andeq	r2, r2, r8, lsl r1
     52c:	027b0500 	rsbseq	r0, fp, #0, 10
     530:	00000256 	andeq	r0, r0, r6, asr r2
     534:	9e18014c 	muflsem	f0, f0, #4.0
     538:	05000004 	streq	r0, [r0, #-4]
     53c:	084a027f 	stmdaeq	sl, {r0, r1, r2, r3, r4, r5, r6, r9}^
     540:	02dc0000 	sbcseq	r0, ip, #0
     544:	00010b18 	andeq	r0, r1, r8, lsl fp
     548:	02840500 	addeq	r0, r4, #0, 10
     54c:	000005fb 	strdeq	r0, [r0], -fp
     550:	f01802e0 			; <UNDEFINED> instruction: 0xf01802e0
     554:	05000000 	streq	r0, [r0, #-0]
     558:	08560285 	ldmdaeq	r6, {r0, r2, r7, r9}^
     55c:	02ec0000 	rsceq	r0, ip, #0
     560:	06040d00 	streq	r0, [r4], -r0, lsl #26
     564:	14000004 	strne	r0, [r0], #-4
     568:	00000025 	andeq	r0, r0, r5, lsr #32
     56c:	00000585 	andeq	r0, r0, r5, lsl #11
     570:	00042415 	andeq	r2, r4, r5, lsl r4
     574:	01051500 	tsteq	r5, r0, lsl #10
     578:	85150000 	ldrhi	r0, [r5, #-0]
     57c:	15000005 	strne	r0, [r0, #-5]
     580:	00000025 	andeq	r0, r0, r5, lsr #32
     584:	14040d00 	strne	r0, [r4], #-3328	; 0xfffff300
     588:	0d000001 	stceq	0, cr0, [r0, #-4]
     58c:	00056704 	andeq	r6, r5, r4, lsl #14
     590:	00811400 	addeq	r1, r1, r0, lsl #8
     594:	05af0000 	streq	r0, [pc, #0]!	; 59c <_start-0x7a64>
     598:	24150000 	ldrcs	r0, [r5], #-0
     59c:	15000004 	strne	r0, [r0, #-4]
     5a0:	00000105 	andeq	r0, r0, r5, lsl #2
     5a4:	00008115 	andeq	r8, r0, r5, lsl r1
     5a8:	00251500 	eoreq	r1, r5, r0, lsl #10
     5ac:	0d000000 	stceq	0, cr0, [r0, #-0]
     5b0:	00059104 	andeq	r9, r5, r4, lsl #2
     5b4:	00251400 	eoreq	r1, r5, r0, lsl #8
     5b8:	05c90000 	strbeq	r0, [r9]
     5bc:	24150000 	ldrcs	r0, [r5], #-0
     5c0:	15000004 	strne	r0, [r0, #-4]
     5c4:	00000105 	andeq	r0, r0, r5, lsl #2
     5c8:	b5040d00 	strlt	r0, [r4, #-3328]	; 0xfffff300
     5cc:	08000005 	stmdaeq	r0, {r0, r2}
     5d0:	0000004f 	andeq	r0, r0, pc, asr #32
     5d4:	000005df 	ldrdeq	r0, [r0], -pc	; <UNPREDICTABLE>
     5d8:	0000c709 	andeq	ip, r0, r9, lsl #14
     5dc:	08000200 	stmdaeq	r0, {r9}
     5e0:	0000004f 	andeq	r0, r0, pc, asr #32
     5e4:	000005ef 	andeq	r0, r0, pc, ror #11
     5e8:	0000c709 	andeq	ip, r0, r9, lsl #14
     5ec:	05000000 	streq	r0, [r0, #-0]
     5f0:	00000303 	andeq	r0, r0, r3, lsl #6
     5f4:	dc011d05 	stcle	13, cr1, [r1], {5}
     5f8:	19000002 	stmdbne	r0, {r1}
     5fc:	0000047e 	andeq	r0, r0, lr, ror r4
     600:	0121050c 			; <UNDEFINED> instruction: 0x0121050c
     604:	00000630 	andeq	r0, r0, r0, lsr r6
     608:	00032b17 	andeq	r2, r3, r7, lsl fp
     60c:	01230500 			; <UNDEFINED> instruction: 0x01230500
     610:	00000630 	andeq	r0, r0, r0, lsr r6
     614:	02071700 	andeq	r1, r7, #0, 14
     618:	24050000 	strcs	r0, [r5], #-0
     61c:	00002501 	andeq	r2, r0, r1, lsl #10
     620:	fd170400 	ldc2	4, cr0, [r7, #-0]
     624:	05000002 	streq	r0, [r0, #-2]
     628:	06360125 	ldrteq	r0, [r6], -r5, lsr #2
     62c:	00080000 	andeq	r0, r8, r0
     630:	05fb040d 	ldrbeq	r0, [fp, #1037]!	; 0x40d
     634:	040d0000 	streq	r0, [sp], #-0
     638:	000005ef 	andeq	r0, r0, pc, ror #11
     63c:	00001219 	andeq	r1, r0, r9, lsl r2
     640:	3d050e00 	stccc	14, cr0, [r5, #-0]
     644:	00067101 	andeq	r7, r6, r1, lsl #2
     648:	03711700 	cmneq	r1, #0, 14
     64c:	3e050000 	cdpcc	0, 0, cr0, cr5, cr0, {0}
     650:	00067101 	andeq	r7, r6, r1, lsl #2
     654:	9e170000 	cdpls	0, 1, cr0, cr7, cr0, {0}
     658:	05000003 	streq	r0, [r0, #-3]
     65c:	0671013f 			; <UNDEFINED> instruction: 0x0671013f
     660:	17060000 	strne	r0, [r6, -r0]
     664:	0000041c 	andeq	r0, r0, ip, lsl r4
     668:	56014005 	strpl	r4, [r1], -r5
     66c:	0c000000 	stceq	0, cr0, [r0], {-0}
     670:	00560800 	subseq	r0, r6, r0, lsl #16
     674:	06810000 	streq	r0, [r1], r0
     678:	c7090000 	strgt	r0, [r9, -r0]
     67c:	02000000 	andeq	r0, r0, #0
     680:	05d01a00 	ldrbeq	r1, [r0, #2560]	; 0xa00
     684:	07820257 			; <UNDEFINED> instruction: 0x07820257
     688:	62170000 	andsvs	r0, r7, #0
     68c:	05000004 	streq	r0, [r0, #-4]
     690:	002c0259 	eoreq	r0, ip, r9, asr r2
     694:	17000000 	strne	r0, [r0, -r0]
     698:	00000406 	andeq	r0, r0, r6, lsl #8
     69c:	07025a05 	streq	r5, [r2, -r5, lsl #20]
     6a0:	04000001 	streq	r0, [r0], #-1
     6a4:	00023617 	andeq	r3, r2, r7, lsl r6
     6a8:	025b0500 	subseq	r0, fp, #0, 10
     6ac:	00000782 	andeq	r0, r0, r2, lsl #15
     6b0:	04c91708 	strbeq	r1, [r9], #1800	; 0x708
     6b4:	5c050000 	stcpl	0, cr0, [r5], {-0}
     6b8:	00018d02 	andeq	r8, r1, r2, lsl #26
     6bc:	b3172400 	tstlt	r7, #0, 8
     6c0:	05000001 	streq	r0, [r0, #-1]
     6c4:	0025025d 	eoreq	r0, r5, sp, asr r2
     6c8:	17480000 	strbne	r0, [r8, -r0]
     6cc:	00000326 	andeq	r0, r0, r6, lsr #6
     6d0:	64025e05 	strvs	r5, [r2], #-3589	; 0xfffff1fb
     6d4:	50000000 	andpl	r0, r0, r0
     6d8:	0004df17 	andeq	sp, r4, r7, lsl pc
     6dc:	025f0500 	subseq	r0, pc, #0, 10
     6e0:	0000063c 	andeq	r0, r0, ip, lsr r6
     6e4:	03311758 	teqeq	r1, #88, 14	; 0x1600000
     6e8:	60050000 	andvs	r0, r5, r0
     6ec:	0000ef02 	andeq	lr, r0, r2, lsl #30
     6f0:	e4176800 	ldr	r6, [r7], #-2048	; 0xfffff800
     6f4:	05000004 	streq	r0, [r0, #-4]
     6f8:	00ef0261 	rsceq	r0, pc, r1, ror #4
     6fc:	17700000 	ldrbne	r0, [r0, -r0]!
     700:	00000084 	andeq	r0, r0, r4, lsl #1
     704:	ef026205 	svc	0x00026205
     708:	78000000 	stmdavc	r0, {}	; <UNPREDICTABLE>
     70c:	00049417 	andeq	r9, r4, r7, lsl r4
     710:	02630500 	rsbeq	r0, r3, #0, 10
     714:	00000792 	muleq	r0, r2, r7
     718:	022a1780 	eoreq	r1, sl, #128, 14	; 0x2000000
     71c:	64050000 	strvs	r0, [r5], #-0
     720:	0007a202 	andeq	sl, r7, r2, lsl #4
     724:	29178800 	ldmdbcs	r7, {fp, pc}
     728:	05000004 	streq	r0, [r0, #-4]
     72c:	00250265 	eoreq	r0, r5, r5, ror #4
     730:	17a00000 	strne	r0, [r0, r0]!
     734:	00000179 	andeq	r0, r0, r9, ror r1
     738:	ef026605 	svc	0x00026605
     73c:	a4000000 	strge	r0, [r0], #-0
     740:	00007517 	andeq	r7, r0, r7, lsl r5
     744:	02670500 	rsbeq	r0, r7, #0, 10
     748:	000000ef 	andeq	r0, r0, pc, ror #1
     74c:	016817ac 	cmneq	r8, ip, lsr #15
     750:	68050000 	stmdavs	r5, {}	; <UNPREDICTABLE>
     754:	0000ef02 	andeq	lr, r0, r2, lsl #30
     758:	2d17b400 	cfldrscs	mvf11, [r7, #-0]
     75c:	05000000 	streq	r0, [r0, #-0]
     760:	00ef0269 	rsceq	r0, pc, r9, ror #4
     764:	17bc0000 	ldrne	r0, [ip, r0]!
     768:	0000003c 	andeq	r0, r0, ip, lsr r0
     76c:	ef026a05 	svc	0x00026a05
     770:	c4000000 	strgt	r0, [r0], #-0
     774:	0002d917 	andeq	sp, r2, r7, lsl r9
     778:	026b0500 	rsbeq	r0, fp, #0, 10
     77c:	00000025 	andeq	r0, r0, r5, lsr #32
     780:	0d0800cc 	stceq	0, cr0, [r8, #-816]	; 0xfffffcd0
     784:	92000001 	andls	r0, r0, #1
     788:	09000007 	stmdbeq	r0, {r0, r1, r2}
     78c:	000000c7 	andeq	r0, r0, r7, asr #1
     790:	0d080019 	stceq	0, cr0, [r8, #-100]	; 0xffffff9c
     794:	a2000001 	andge	r0, r0, #1
     798:	09000007 	stmdbeq	r0, {r0, r1, r2}
     79c:	000000c7 	andeq	r0, r0, r7, asr #1
     7a0:	0d080007 	stceq	0, cr0, [r8, #-28]	; 0xffffffe4
     7a4:	b2000001 	andlt	r0, r0, #1
     7a8:	09000007 	stmdbeq	r0, {r0, r1, r2}
     7ac:	000000c7 	andeq	r0, r0, r7, asr #1
     7b0:	f01a0017 			; <UNDEFINED> instruction: 0xf01a0017
     7b4:	d6027005 	strle	r7, [r2], -r5
     7b8:	17000007 	strne	r0, [r0, -r7]
     7bc:	00000280 	andeq	r0, r0, r0, lsl #5
     7c0:	d6027305 	strle	r7, [r2], -r5, lsl #6
     7c4:	00000007 	andeq	r0, r0, r7
     7c8:	00048b17 	andeq	r8, r4, r7, lsl fp
     7cc:	02740500 	rsbseq	r0, r4, #0, 10
     7d0:	000007e6 	andeq	r0, r0, r6, ror #15
     7d4:	d6080078 			; <UNDEFINED> instruction: 0xd6080078
     7d8:	e6000002 	str	r0, [r0], -r2
     7dc:	09000007 	stmdbeq	r0, {r0, r1, r2}
     7e0:	000000c7 	andeq	r0, r0, r7, asr #1
     7e4:	2c08001d 	stccs	0, cr0, [r8], {29}
     7e8:	f6000000 			; <UNDEFINED> instruction: 0xf6000000
     7ec:	09000007 	stmdbeq	r0, {r0, r1, r2}
     7f0:	000000c7 	andeq	r0, r0, r7, asr #1
     7f4:	f01b001d 			; <UNDEFINED> instruction: 0xf01b001d
     7f8:	18025505 	stmdane	r2, {r0, r2, r8, sl, ip, lr}
     7fc:	1c000008 	stcne	0, cr0, [r0], {8}
     800:	0000036a 	andeq	r0, r0, sl, ror #6
     804:	81026c05 	tsthi	r2, r5, lsl #24
     808:	1c000006 	stcne	0, cr0, [r0], {6}
     80c:	000004b6 			; <UNDEFINED> instruction: 0x000004b6
     810:	b2027505 	andlt	r7, r2, #20971520	; 0x1400000
     814:	00000007 	andeq	r0, r0, r7
     818:	00010d08 	andeq	r0, r1, r8, lsl #26
     81c:	00082800 	andeq	r2, r8, r0, lsl #16
     820:	00c70900 	sbceq	r0, r7, r0, lsl #18
     824:	00180000 	andseq	r0, r8, r0
     828:	0008331d 	andeq	r3, r8, sp, lsl r3
     82c:	04241500 	strteq	r1, [r4], #-1280	; 0xfffffb00
     830:	0d000000 	stceq	0, cr0, [r0, #-0]
     834:	00082804 	andeq	r2, r8, r4, lsl #16
     838:	77040d00 	strvc	r0, [r4, -r0, lsl #26]
     83c:	1d000001 	stcne	0, cr0, [r0, #-4]
     840:	0000084a 	andeq	r0, r0, sl, asr #16
     844:	00002515 	andeq	r2, r0, r5, lsl r5
     848:	040d0000 	streq	r0, [sp], #-0
     84c:	00000850 	andeq	r0, r0, r0, asr r8
     850:	083f040d 	ldmdaeq	pc!, {r0, r2, r3, sl}	; <UNPREDICTABLE>
     854:	ef080000 	svc	0x00080000
     858:	66000005 	strvs	r0, [r0], -r5
     85c:	09000008 	stmdbeq	r0, {r3}
     860:	000000c7 	andeq	r0, r0, r7, asr #1
     864:	3d1e0002 	ldccc	0, cr0, [lr, #-8]
     868:	05000004 	streq	r0, [r0, #-4]
     86c:	042402fd 	strteq	r0, [r4], #-765	; 0xfffffd03
     870:	361e0000 	ldrcc	r0, [lr], -r0
     874:	05000004 	streq	r0, [r0, #-4]
     878:	042a02fe 	strteq	r0, [sl], #-766	; 0xfffffd02
     87c:	25140000 	ldrcs	r0, [r4, #-0]
     880:	8d000000 	stchi	0, cr0, [r0, #-0]
     884:	15000008 	strne	r0, [r0, #-8]
     888:	00000025 	andeq	r0, r0, r5, lsr #32
     88c:	01cc1f00 	biceq	r1, ip, r0, lsl #30
     890:	1d060000 	stcne	0, cr0, [r6, #-0]
     894:	00000898 	muleq	r0, r8, r8
     898:	087e040d 	ldmdaeq	lr!, {r0, r2, r3, sl}^
     89c:	25140000 	ldrcs	r0, [r4, #-0]
     8a0:	ad000000 	stcge	0, cr0, [r0, #-0]
     8a4:	15000008 	strne	r0, [r0, #-8]
     8a8:	00000585 	andeq	r0, r0, r5, lsl #11
     8ac:	07691f00 	strbeq	r1, [r9, -r0, lsl #30]!
     8b0:	22060000 	andcs	r0, r6, #0
     8b4:	000008b8 			; <UNDEFINED> instruction: 0x000008b8
     8b8:	089e040d 	ldmeq	lr, {r0, r2, r3, sl}
     8bc:	25200000 	strcs	r0, [r0, #-0]!
     8c0:	01000000 	mrseq	r0, (UNDEF: 0)
     8c4:	00801005 	addeq	r1, r0, r5
     8c8:	00007c00 	andeq	r7, r0, r0, lsl #24
     8cc:	b69c0100 	ldrlt	r0, [ip], r0, lsl #2
     8d0:	21000009 	tstcs	r0, r9
     8d4:	0a01006e 	beq	40a94 <__bss_end__+0x36afc>
     8d8:	0000002c 	andeq	r0, r0, ip, lsr #32
     8dc:	00100000 	andseq	r0, r0, r0
     8e0:	01007022 	tsteq	r0, r2, lsr #32
     8e4:	0001070d 	andeq	r0, r1, sp, lsl #14
     8e8:	00000000 	andeq	r0, r0, r0
     8ec:	01fa2300 	mvnseq	r2, r0, lsl #6
     8f0:	09c60000 	stmibeq	r6, {}^	; <UNPREDICTABLE>
     8f4:	03050000 	movweq	r0, #20480	; 0x5000
     8f8:	00009614 	andeq	r9, r0, r4, lsl r6
     8fc:	00801c24 	addeq	r1, r0, r4, lsr #24
     900:	0009cb00 	andeq	ip, r9, r0, lsl #22
     904:	00091300 	andeq	r1, r9, r0, lsl #6
     908:	50012500 	andpl	r2, r1, r0, lsl #10
     90c:	961c0305 	ldrls	r0, [ip], -r5, lsl #6
     910:	24000000 	strcs	r0, [r0], #-0
     914:	00008024 	andeq	r8, r0, r4, lsr #32
     918:	000009d6 	ldrdeq	r0, [r0], -r6
     91c:	00000928 	andeq	r0, r0, r8, lsr #18
     920:	03500125 	cmpeq	r0, #1073741833	; 0x40000009
     924:	00244040 	eoreq	r4, r4, r0, asr #32
     928:	00802c24 	addeq	r2, r0, r4, lsr #24
     92c:	0009e100 	andeq	lr, r9, r0, lsl #2
     930:	00093d00 	andeq	r3, r9, r0, lsl #26
     934:	50012500 	andpl	r2, r1, r0, lsl #10
     938:	24404003 	strbcs	r4, [r0], #-3
     93c:	80342400 	eorshi	r2, r4, r0, lsl #8
     940:	09ec0000 	stmibeq	ip!, {}^	; <UNPREDICTABLE>
     944:	09520000 	ldmdbeq	r2, {}^	; <UNPREDICTABLE>
     948:	01250000 			; <UNDEFINED> instruction: 0x01250000
     94c:	40400351 	submi	r0, r0, r1, asr r3
     950:	50240024 	eorpl	r0, r4, r4, lsr #32
     954:	f7000080 			; <UNDEFINED> instruction: 0xf7000080
     958:	76000009 	strvc	r0, [r0], -r9
     95c:	25000009 	strcs	r0, [r0, #-9]
     960:	34015001 	strcc	r5, [r1], #-1
     964:	02510125 	subseq	r0, r1, #1073741833	; 0x40000009
     968:	01250075 			; <UNDEFINED> instruction: 0x01250075
     96c:	00760252 	rsbseq	r0, r6, r2, asr r2
     970:	01530125 	cmpeq	r3, r5, lsr #2
     974:	6024003d 	eorvs	r0, r4, sp, lsr r0
     978:	02000080 	andeq	r0, r0, #128	; 0x80
     97c:	9400000a 	strls	r0, [r0], #-10
     980:	25000009 	strcs	r0, [r0, #-9]
     984:	74025001 	strvc	r5, [r2], #-1
     988:	51012500 	tstpl	r1, r0, lsl #10
     98c:	01253001 			; <UNDEFINED> instruction: 0x01253001
     990:	00340152 	eorseq	r0, r4, r2, asr r1
     994:	00807c26 	addeq	r7, r0, r6, lsr #24
     998:	000a0d00 	andeq	r0, sl, r0, lsl #26
     99c:	50012500 	andpl	r2, r1, r0, lsl #10
     9a0:	25007402 	strcs	r7, [r0, #-1026]	; 0xfffffbfe
     9a4:	75025101 	strvc	r5, [r2, #-257]	; 0xfffffeff
     9a8:	52012500 	andpl	r2, r1, #0, 10
     9ac:	25007602 	strcs	r7, [r0, #-1538]	; 0xfffff9fe
     9b0:	40015301 	andmi	r5, r1, r1, lsl #6
     9b4:	14080000 	strne	r0, [r8], #-0
     9b8:	c6000001 	strgt	r0, [r0], -r1
     9bc:	09000009 	stmdbeq	r0, {r0, r3}
     9c0:	000000c7 	andeq	r0, r0, r7, asr #1
     9c4:	b60e0007 	strlt	r0, [lr], -r7
     9c8:	27000009 	strcs	r0, [r0, -r9]
     9cc:	000006b5 			; <UNDEFINED> instruction: 0x000006b5
     9d0:	000006b5 			; <UNDEFINED> instruction: 0x000006b5
     9d4:	51272906 			; <UNDEFINED> instruction: 0x51272906
     9d8:	51000001 	tstpl	r0, r1
     9dc:	06000001 	streq	r0, [r0], -r1
     9e0:	04a82772 	strteq	r2, [r8], #1906	; 0x772
     9e4:	04a80000 	strteq	r0, [r8], #0
     9e8:	6c060000 	stcvs	0, cr0, [r6], {-0}
     9ec:	00013027 	andeq	r3, r1, r7, lsr #32
     9f0:	00013000 	andeq	r3, r1, r0
     9f4:	27770700 	ldrbcs	r0, [r7, -r0, lsl #14]!
     9f8:	00000064 	andeq	r0, r0, r4, rrx
     9fc:	00000064 	andeq	r0, r0, r4, rrx
     a00:	5b277407 	blpl	9dda24 <__bss_end__+0x9d3a8c>
     a04:	5b000004 	blpl	a1c <_start-0x75e4>
     a08:	08000004 	stmdaeq	r0, {r2}
     a0c:	02582719 	subseq	r2, r8, #6553600	; 0x640000
     a10:	02580000 	subseq	r0, r8, #0
     a14:	75070000 	strvc	r0, [r7, #-0]
     a18:	0017c900 	andseq	ip, r7, r0, lsl #18
     a1c:	00000400 	andeq	r0, r0, r0, lsl #8
     a20:	04000002 	streq	r0, [r0], #-2
     a24:	0003a401 	andeq	sl, r3, r1, lsl #8
     a28:	05b90c00 	ldreq	r0, [r9, #3072]!	; 0xc00
     a2c:	00bf0000 	adcseq	r0, pc, r0
     a30:	808c0000 	addhi	r0, ip, r0
     a34:	08780000 	ldmdaeq	r8!, {}^	; <UNPREDICTABLE>
     a38:	010b0000 	mrseq	r0, (UNDEF: 11)
     a3c:	04020000 	streq	r0, [r2], #-0
     a40:	746e6905 	strbtvc	r6, [lr], #-2309	; 0xfffff6fb
     a44:	07040300 	streq	r0, [r4, -r0, lsl #6]
     a48:	00000057 	andeq	r0, r0, r7, asr r0
     a4c:	c8060103 	stmdagt	r6, {r0, r1, r8}
     a50:	03000002 	movweq	r0, #2
     a54:	02e20502 	rsceq	r0, r2, #8388608	; 0x800000
     a58:	04030000 	streq	r0, [r3], #-0
     a5c:	0000a005 	andeq	sl, r0, r5
     a60:	05080300 	streq	r0, [r8, #-768]	; 0xfffffd00
     a64:	0000009b 	muleq	r0, fp, r0
     a68:	00067904 	andeq	r7, r6, r4, lsl #18
     a6c:	5a2e0300 	bpl	b81674 <__bss_end__+0xb776dc>
     a70:	03000000 	movweq	r0, #0
     a74:	02c60801 	sbceq	r0, r6, #65536	; 0x10000
     a78:	02030000 	andeq	r0, r3, #0
     a7c:	00020e07 	andeq	r0, r2, r7, lsl #28
     a80:	06370400 	ldrteq	r0, [r7], -r0, lsl #8
     a84:	34030000 	strcc	r0, [r3], #-0
     a88:	00000073 	andeq	r0, r0, r3, ror r0
     a8c:	52070403 	andpl	r0, r7, #50331648	; 0x3000000
     a90:	03000000 	movweq	r0, #0
     a94:	004d0708 	subeq	r0, sp, r8, lsl #14
     a98:	b4040000 	strlt	r0, [r4], #-0
     a9c:	04000002 	streq	r0, [r0], #-2
     aa0:	00002507 	andeq	r2, r0, r7, lsl #10
     aa4:	02a30400 	adceq	r0, r3, #0, 8
     aa8:	2c050000 	stccs	0, cr0, [r5], {-0}
     aac:	00000041 	andeq	r0, r0, r1, asr #32
     ab0:	00038d04 	andeq	r8, r3, r4, lsl #26
     ab4:	41720500 	cmnmi	r2, r0, lsl #10
     ab8:	05000000 	streq	r0, [r0, #-0]
     abc:	00000251 	andeq	r0, r0, r1, asr r2
     ac0:	2c016506 	cfstr32cs	mvfx6, [r1], {6}
     ac4:	06000000 	streq	r0, [r0], -r0
     ac8:	cda60504 	cfstr32gt	mvfx0, [r6, #16]!
     acc:	07000000 	streq	r0, [r0, -r0]
     ad0:	0000024b 	andeq	r0, r0, fp, asr #4
     ad4:	00a2a805 	adceq	sl, r2, r5, lsl #16
     ad8:	dd070000 	stcle	0, cr0, [r7, #-0]
     adc:	05000001 	streq	r0, [r0, #-1]
     ae0:	0000cda9 	andeq	ip, r0, r9, lsr #27
     ae4:	5a080000 	bpl	200aec <__bss_end__+0x1f6b54>
     ae8:	dd000000 	stcle	0, cr0, [r0, #-0]
     aec:	09000000 	stmdbeq	r0, {}	; <UNPREDICTABLE>
     af0:	000000dd 	ldrdeq	r0, [r0], -sp
     af4:	04030003 	streq	r0, [r3], #-3
     af8:	00027707 	andeq	r7, r2, r7, lsl #14
     afc:	05080a00 	streq	r0, [r8, #-2560]	; 0xfffff600
     b00:	000105a3 	andeq	r0, r1, r3, lsr #11
     b04:	03770b00 	cmneq	r7, #0, 22
     b08:	a5050000 	strge	r0, [r5, #-0]
     b0c:	00000025 	andeq	r0, r0, r5, lsr #32
     b10:	037f0b00 	cmneq	pc, #0, 22
     b14:	aa050000 	bge	140b1c <__bss_end__+0x136b84>
     b18:	000000ae 	andeq	r0, r0, lr, lsr #1
     b1c:	0a040004 	beq	100b34 <__bss_end__+0xf6b9c>
     b20:	05000003 	streq	r0, [r0, #-3]
     b24:	0000e4ab 	andeq	lr, r0, fp, lsr #9
     b28:	019a0400 	orrseq	r0, sl, r0, lsl #8
     b2c:	af050000 	svcge	0x00050000
     b30:	00000081 	andeq	r0, r0, r1, lsl #1
     b34:	040d040c 	streq	r0, [sp], #-1036	; 0xfffffbf4
     b38:	00000123 	andeq	r0, r0, r3, lsr #2
     b3c:	cf080103 	svcgt	0x00080103
     b40:	0e000002 	cdpeq	0, 0, cr0, cr0, cr2, {0}
     b44:	00000123 	andeq	r0, r0, r3, lsr #2
     b48:	00042104 	andeq	r2, r4, r4, lsl #2
     b4c:	73160700 	tstvc	r6, #0, 14
     b50:	0f000000 	svceq	0x00000000
     b54:	000001ab 	andeq	r0, r0, fp, lsr #3
     b58:	8d2d0718 	stchi	7, cr0, [sp, #-96]!	; 0xffffffa0
     b5c:	0b000001 	bleq	b68 <_start-0x7498>
     b60:	0000032b 	andeq	r0, r0, fp, lsr #6
     b64:	018d2f07 	orreq	r2, sp, r7, lsl #30
     b68:	10000000 	andne	r0, r0, r0
     b6c:	07006b5f 	smlsdeq	r0, pc, fp, r6	; <UNPREDICTABLE>
     b70:	00002530 	andeq	r2, r0, r0, lsr r5
     b74:	620b0400 	andvs	r0, fp, #0, 8
     b78:	07000003 	streq	r0, [r0, -r3]
     b7c:	00002530 	andeq	r2, r0, r0, lsr r5
     b80:	940b0800 	strls	r0, [fp], #-2048	; 0xfffff800
     b84:	07000001 	streq	r0, [r0, -r1]
     b88:	00002530 	andeq	r2, r0, r0, lsr r5
     b8c:	6f0b0c00 	svcvs	0x000b0c00
     b90:	07000004 	streq	r0, [r0, -r4]
     b94:	00002530 	andeq	r2, r0, r0, lsr r5
     b98:	5f101000 	svcpl	0x00101000
     b9c:	31070078 	tstcc	r7, r8, ror r0
     ba0:	00000193 	muleq	r0, r3, r1
     ba4:	040d0014 	streq	r0, [sp], #-20	; 0xffffffec
     ba8:	0000013a 	andeq	r0, r0, sl, lsr r1
     bac:	00012f08 	andeq	r2, r1, r8, lsl #30
     bb0:	0001a300 	andeq	sl, r1, r0, lsl #6
     bb4:	00dd0900 	sbcseq	r0, sp, r0, lsl #18
     bb8:	00000000 	andeq	r0, r0, r0
     bbc:	0001d80f 	andeq	sp, r1, pc, lsl #16
     bc0:	35072400 	strcc	r2, [r7, #-1024]	; 0xfffffc00
     bc4:	0000021c 	andeq	r0, r0, ip, lsl r2
     bc8:	0000920b 	andeq	r9, r0, fp, lsl #4
     bcc:	25370700 	ldrcs	r0, [r7, #-1792]!	; 0xfffff900
     bd0:	00000000 	andeq	r0, r0, r0
     bd4:	0003950b 	andeq	r9, r3, fp, lsl #10
     bd8:	25380700 	ldrcs	r0, [r8, #-1792]!	; 0xfffff900
     bdc:	04000000 	streq	r0, [r0], #-0
     be0:	0000b50b 	andeq	fp, r0, fp, lsl #10
     be4:	25390700 	ldrcs	r0, [r9, #-1792]!	; 0xfffff900
     be8:	08000000 	stmdaeq	r0, {}	; <UNPREDICTABLE>
     bec:	0004f70b 	andeq	pc, r4, fp, lsl #14
     bf0:	253a0700 	ldrcs	r0, [sl, #-1792]!	; 0xfffff900
     bf4:	0c000000 	stceq	0, cr0, [r0], {-0}
     bf8:	0002870b 	andeq	r8, r2, fp, lsl #14
     bfc:	253b0700 	ldrcs	r0, [fp, #-1792]!	; 0xfffff900
     c00:	10000000 	andne	r0, r0, r0
     c04:	00026d0b 	andeq	r6, r2, fp, lsl #26
     c08:	253c0700 	ldrcs	r0, [ip, #-1792]!	; 0xfffff900
     c0c:	14000000 	strne	r0, [r0], #-0
     c10:	0004740b 	andeq	r7, r4, fp, lsl #8
     c14:	253d0700 	ldrcs	r0, [sp, #-1792]!	; 0xfffff900
     c18:	18000000 	stmdane	r0, {}	; <UNPREDICTABLE>
     c1c:	0002ec0b 	andeq	lr, r2, fp, lsl #24
     c20:	253e0700 	ldrcs	r0, [lr, #-1792]!	; 0xfffff900
     c24:	1c000000 	stcne	0, cr0, [r0], {-0}
     c28:	0004be0b 	andeq	fp, r4, fp, lsl #28
     c2c:	253f0700 	ldrcs	r0, [pc, #-1792]!	; 534 <_start-0x7acc>
     c30:	20000000 	andcs	r0, r0, r0
     c34:	00f51100 	rscseq	r1, r5, r0, lsl #2
     c38:	01080000 	mrseq	r0, (UNDEF: 8)
     c3c:	025c4807 	subseq	r4, ip, #458752	; 0x70000
     c40:	870b0000 	strhi	r0, [fp, -r0]
     c44:	07000001 	streq	r0, [r0, -r1]
     c48:	00025c49 	andeq	r5, r2, r9, asr #24
     c4c:	000b0000 	andeq	r0, fp, r0
     c50:	07000000 	streq	r0, [r0, -r0]
     c54:	00025c4a 	andeq	r5, r2, sl, asr #24
     c58:	13128000 	tstne	r2, #0
     c5c:	07000004 	streq	r0, [r0, -r4]
     c60:	00012f4c 	andeq	r2, r1, ip, asr #30
     c64:	12010000 	andne	r0, r1, #0
     c68:	0000011a 	andeq	r0, r0, sl, lsl r1
     c6c:	012f4f07 			; <UNDEFINED> instruction: 0x012f4f07
     c70:	01040000 	mrseq	r0, (UNDEF: 4)
     c74:	011b0800 	tsteq	fp, r0, lsl #16
     c78:	026c0000 	rsbeq	r0, ip, #0
     c7c:	dd090000 	stcle	0, cr0, [r9, #-0]
     c80:	1f000000 	svcne	0x00000000
     c84:	02901100 	addseq	r1, r0, #0, 2
     c88:	01900000 	orrseq	r0, r0, r0
     c8c:	02aa5b07 	adceq	r5, sl, #7168	; 0x1c00
     c90:	2b0b0000 	blcs	2c0c98 <__bss_end__+0x2b6d00>
     c94:	07000003 	streq	r0, [r0, -r3]
     c98:	0002aa5c 	andeq	sl, r2, ip, asr sl
     c9c:	430b0000 	movwmi	r0, #45056	; 0xb000
     ca0:	07000003 	streq	r0, [r0, -r3]
     ca4:	0000255d 	andeq	r2, r0, sp, asr r5
     ca8:	8f0b0400 	svchi	0x000b0400
     cac:	07000001 	streq	r0, [r0, -r1]
     cb0:	0002b05f 	andeq	fp, r2, pc, asr r0
     cb4:	f50b0800 			; <UNDEFINED> instruction: 0xf50b0800
     cb8:	07000000 	streq	r0, [r0, -r0]
     cbc:	00021c60 	andeq	r1, r2, r0, ror #24
     cc0:	0d008800 	stceq	8, cr8, [r0, #-0]
     cc4:	00026c04 	andeq	r6, r2, r4, lsl #24
     cc8:	02c00800 	sbceq	r0, r0, #0, 16
     ccc:	02c00000 	sbceq	r0, r0, #0
     cd0:	dd090000 	stcle	0, cr0, [r9, #-0]
     cd4:	1f000000 	svcne	0x00000000
     cd8:	c6040d00 	strgt	r0, [r4], -r0, lsl #26
     cdc:	13000002 	movwne	r0, #2
     ce0:	0002f60f 	andeq	pc, r2, pc, lsl #12
     ce4:	73070800 	movwvc	r0, #30720	; 0x7800
     ce8:	000002ec 	andeq	r0, r0, ip, ror #5
     cec:	0000af0b 	andeq	sl, r0, fp, lsl #30
     cf0:	ec740700 	ldcl	7, cr0, [r4], #-0
     cf4:	00000002 	andeq	r0, r0, r2
     cf8:	00000c0b 	andeq	r0, r0, fp, lsl #24
     cfc:	25750700 	ldrbcs	r0, [r5, #-1792]!	; 0xfffff900
     d00:	04000000 	streq	r0, [r0], #-0
     d04:	5a040d00 	bpl	10410c <__bss_end__+0xfa174>
     d08:	0f000000 	svceq	0x00000000
     d0c:	00000315 	andeq	r0, r0, r5, lsl r3
     d10:	1cb30768 	ldcne	7, cr0, [r3], #416	; 0x1a0
     d14:	10000004 	andne	r0, r0, r4
     d18:	0700705f 	smlsdeq	r0, pc, r0, r7	; <UNPREDICTABLE>
     d1c:	0002ecb4 			; <UNDEFINED> instruction: 0x0002ecb4
     d20:	5f100000 	svcpl	0x00100000
     d24:	b5070072 	strlt	r0, [r7, #-114]	; 0xffffff8e
     d28:	00000025 	andeq	r0, r0, r5, lsr #32
     d2c:	775f1004 	ldrbvc	r1, [pc, -r4]
     d30:	25b60700 	ldrcs	r0, [r6, #1792]!	; 0x700
     d34:	08000000 	stmdaeq	r0, {}	; <UNPREDICTABLE>
     d38:	0001130b 	andeq	r1, r1, fp, lsl #6
     d3c:	3ab70700 	bcc	fedc2944 <__bss_end__+0xfedb89ac>
     d40:	0c000000 	stceq	0, cr0, [r0], {-0}
     d44:	0001f40b 	andeq	pc, r1, fp, lsl #8
     d48:	3ab80700 	bcc	fee02950 <__bss_end__+0xfedf89b8>
     d4c:	0e000000 	cdpeq	0, 0, cr0, cr0, cr0, {0}
     d50:	66625f10 	uqadd16vs	r5, r2, r0
     d54:	c7b90700 	ldrgt	r0, [r9, r0, lsl #14]!
     d58:	10000002 	andne	r0, r0, r2
     d5c:	00006c0b 	andeq	r6, r0, fp, lsl #24
     d60:	25ba0700 	ldrcs	r0, [sl, #1792]!	; 0x700
     d64:	18000000 	stmdane	r0, {}	; <UNPREDICTABLE>
     d68:	0001030b 	andeq	r0, r1, fp, lsl #6
     d6c:	1bc10700 	blne	ff042974 <__bss_end__+0xff0389dc>
     d70:	1c000001 	stcne	0, cr0, [r0], {1}
     d74:	000a780b 	andeq	r7, sl, fp, lsl #16
     d78:	77c30700 	strbvc	r0, [r3, r0, lsl #14]
     d7c:	20000005 	andcs	r0, r0, r5
     d80:	00060c0b 	andeq	r0, r6, fp, lsl #24
     d84:	a1c50700 	bicge	r0, r5, r0, lsl #14
     d88:	24000005 	strcs	r0, [r0], #-5
     d8c:	0003870b 	andeq	r8, r3, fp, lsl #14
     d90:	c5c80700 	strbgt	r0, [r8, #1792]	; 0x700
     d94:	28000005 	stmdacs	r0, {r0, r2}
     d98:	0004d80b 	andeq	sp, r4, fp, lsl #16
     d9c:	dfc90700 	svcle	0x00c90700
     da0:	2c000005 	stccs	0, cr0, [r0], {5}
     da4:	62755f10 	rsbsvs	r5, r5, #16, 30	; 0x40
     da8:	c7cc0700 	strbgt	r0, [ip, r0, lsl #14]
     dac:	30000002 	andcc	r0, r0, r2
     db0:	70755f10 	rsbsvc	r5, r5, r0, lsl pc
     db4:	eccd0700 	stcl	7, cr0, [sp], {0}
     db8:	38000002 	stmdacc	r0, {r1}
     dbc:	72755f10 	rsbsvc	r5, r5, #16, 30	; 0x40
     dc0:	25ce0700 	strbcs	r0, [lr, #1792]	; 0x700
     dc4:	3c000000 	stccc	0, cr0, [r0], {-0}
     dc8:	0000a90b 	andeq	sl, r0, fp, lsl #18
     dcc:	e5d10700 	ldrb	r0, [r1, #1792]	; 0x700
     dd0:	40000005 	andmi	r0, r0, r5
     dd4:	0004b00b 	andeq	fp, r4, fp
     dd8:	f5d20700 			; <UNDEFINED> instruction: 0xf5d20700
     ddc:	43000005 	movwmi	r0, #5
     de0:	626c5f10 	rsbvs	r5, ip, #16, 30	; 0x40
     de4:	c7d50700 	ldrbgt	r0, [r5, r0, lsl #14]
     de8:	44000002 	strmi	r0, [r0], #-2
     dec:	0001380b 	andeq	r3, r1, fp, lsl #16
     df0:	25d80700 	ldrbcs	r0, [r8, #1792]	; 0x700
     df4:	4c000000 	stcmi	0, cr0, [r0], {-0}
     df8:	0001490b 	andeq	r4, r1, fp, lsl #18
     dfc:	8cd90700 	ldclhi	7, cr0, [r9], {0}
     e00:	50000000 	andpl	r0, r0, r0
     e04:	000a190b 	andeq	r1, sl, fp, lsl #18
     e08:	3adc0700 	bcc	ff702a10 <__bss_end__+0xff6f8a78>
     e0c:	54000004 	strpl	r0, [r0], #-4
     e10:	00025f0b 	andeq	r5, r2, fp, lsl #30
     e14:	10e00700 	rscne	r0, r0, r0, lsl #14
     e18:	58000001 	stmdapl	r0, {r0}
     e1c:	00031d0b 	andeq	r1, r3, fp, lsl #26
     e20:	05e20700 	strbeq	r0, [r2, #1792]!	; 0x700
     e24:	5c000001 	stcpl	0, cr0, [r0], {1}
     e28:	0002650b 	andeq	r6, r2, fp, lsl #10
     e2c:	25e30700 	strbcs	r0, [r3, #1792]!	; 0x700
     e30:	64000000 	strvs	r0, [r0], #-0
     e34:	00251400 	eoreq	r1, r5, r0, lsl #8
     e38:	043a0000 	ldrteq	r0, [sl], #-0
     e3c:	3a150000 	bcc	540e44 <__bss_end__+0x536eac>
     e40:	15000004 	strne	r0, [r0, #-4]
     e44:	0000011b 	andeq	r0, r0, fp, lsl r1
     e48:	00011d15 	andeq	r1, r1, r5, lsl sp
     e4c:	00251500 	eoreq	r1, r5, r0, lsl #10
     e50:	0d000000 	stceq	0, cr0, [r0, #-0]
     e54:	00044504 	andeq	r4, r4, r4, lsl #10
     e58:	043a0e00 	ldrteq	r0, [sl], #-3584	; 0xfffff200
     e5c:	6a160000 	bvs	580e64 <__bss_end__+0x576ecc>
     e60:	28000003 	stmdacs	r0, {r0, r1}
     e64:	02380704 	eorseq	r0, r8, #4, 14	; 0x100000
     e68:	00000577 	andeq	r0, r0, r7, ror r5
     e6c:	0002db17 	andeq	sp, r2, r7, lsl fp
     e70:	023a0700 	eorseq	r0, sl, #0, 14
     e74:	00000025 	andeq	r0, r0, r5, lsr #32
     e78:	04841700 	streq	r1, [r4], #1792	; 0x700
     e7c:	3f070000 	svccc	0x00070000
     e80:	00064c02 	andeq	r4, r6, r2, lsl #24
     e84:	e4170400 	ldr	r0, [r7], #-1024	; 0xfffffc00
     e88:	07000001 	streq	r0, [r0, -r1]
     e8c:	064c023f 			; <UNDEFINED> instruction: 0x064c023f
     e90:	17080000 	strne	r0, [r8, -r0]
     e94:	000001a3 	andeq	r0, r0, r3, lsr #3
     e98:	4c023f07 	stcmi	15, cr3, [r2], {7}
     e9c:	0c000006 	stceq	0, cr0, [r0], {6}
     ea0:	00033e17 	andeq	r3, r3, r7, lsl lr
     ea4:	02410700 	subeq	r0, r1, #0, 14
     ea8:	00000025 	andeq	r0, r0, r5, lsr #32
     eac:	001a1710 	andseq	r1, sl, r0, lsl r7
     eb0:	42070000 	andmi	r0, r7, #0
     eb4:	00082e02 	andeq	r2, r8, r2, lsl #28
     eb8:	49171400 	ldmdbmi	r7, {sl, ip}
     ebc:	07000004 	streq	r0, [r0, -r4]
     ec0:	00250244 	eoreq	r0, r5, r4, asr #4
     ec4:	17300000 	ldrne	r0, [r0, -r0]!
     ec8:	00000348 	andeq	r0, r0, r8, asr #6
     ecc:	9b024507 	blls	922f0 <__bss_end__+0x88358>
     ed0:	34000005 	strcc	r0, [r0], #-5
     ed4:	00029817 	andeq	r9, r2, r7, lsl r8
     ed8:	02470700 	subeq	r0, r7, #0, 14
     edc:	00000025 	andeq	r0, r0, r5, lsr #32
     ee0:	03581738 	cmpeq	r8, #56, 14	; 0xe00000
     ee4:	49070000 	stmdbmi	r7, {}	; <UNPREDICTABLE>
     ee8:	00084902 	andeq	r4, r8, r2, lsl #18
     eec:	43173c00 	tstmi	r7, #0, 24
     ef0:	07000002 	streq	r0, [r0, -r2]
     ef4:	018d024c 	orreq	r0, sp, ip, asr #4
     ef8:	17400000 	strbne	r0, [r0, -r0]
     efc:	000001c2 	andeq	r0, r0, r2, asr #3
     f00:	25024d07 	strcs	r4, [r2, #-3335]	; 0xfffff2f9
     f04:	44000000 	strmi	r0, [r0], #-0
     f08:	0004f217 	andeq	pc, r4, r7, lsl r2	; <UNPREDICTABLE>
     f0c:	024e0700 	subeq	r0, lr, #0, 14
     f10:	0000018d 	andeq	r0, r0, sp, lsl #3
     f14:	02aa1748 	adceq	r1, sl, #72, 14	; 0x1200000
     f18:	4f070000 	svcmi	0x00070000
     f1c:	00084f02 	andeq	r4, r8, r2, lsl #30
     f20:	ec174c00 	ldc	12, cr4, [r7], {-0}
     f24:	07000001 	streq	r0, [r0, -r1]
     f28:	00250252 	eoreq	r0, r5, r2, asr r2
     f2c:	17500000 	ldrbne	r0, [r0, -r0]
     f30:	00000141 	andeq	r0, r0, r1, asr #2
     f34:	1d025307 	stcne	3, cr5, [r2, #-28]	; 0xffffffe4
     f38:	54000001 	strpl	r0, [r0], #-1
     f3c:	0002d417 	andeq	sp, r2, r7, lsl r4
     f40:	02760700 	rsbseq	r0, r6, #0, 14
     f44:	0000080c 	andeq	r0, r0, ip, lsl #16
     f48:	02901858 	addseq	r1, r0, #88, 16	; 0x580000
     f4c:	7a070000 	bvc	1c0f54 <__bss_end__+0x1b6fbc>
     f50:	0002aa02 	andeq	sl, r2, r2, lsl #20
     f54:	18014800 	stmdane	r1, {fp, lr}
     f58:	00000221 	andeq	r0, r0, r1, lsr #4
     f5c:	6c027b07 			; <UNDEFINED> instruction: 0x6c027b07
     f60:	4c000002 	stcmi	0, cr0, [r0], {2}
     f64:	049e1801 	ldreq	r1, [lr], #2049	; 0x801
     f68:	7f070000 	svcvc	0x00070000
     f6c:	00086002 	andeq	r6, r8, r2
     f70:	1802dc00 	stmdane	r2, {sl, fp, ip, lr, pc}
     f74:	0000010b 	andeq	r0, r0, fp, lsl #2
     f78:	11028407 	tstne	r2, r7, lsl #8
     f7c:	e0000006 	and	r0, r0, r6
     f80:	00f01802 	rscseq	r1, r0, r2, lsl #16
     f84:	85070000 	strhi	r0, [r7, #-0]
     f88:	00086c02 	andeq	r6, r8, r2, lsl #24
     f8c:	0002ec00 	andeq	lr, r2, r0, lsl #24
     f90:	041c040d 	ldreq	r0, [ip], #-1037	; 0xfffffbf3
     f94:	25140000 	ldrcs	r0, [r4, #-0]
     f98:	9b000000 	blls	fa0 <_start-0x7060>
     f9c:	15000005 	strne	r0, [r0, #-5]
     fa0:	0000043a 	andeq	r0, r0, sl, lsr r4
     fa4:	00011b15 	andeq	r1, r1, r5, lsl fp
     fa8:	059b1500 	ldreq	r1, [fp, #1280]	; 0x500
     fac:	25150000 	ldrcs	r0, [r5, #-0]
     fb0:	00000000 	andeq	r0, r0, r0
     fb4:	012a040d 			; <UNDEFINED> instruction: 0x012a040d
     fb8:	040d0000 	streq	r0, [sp], #-0
     fbc:	0000057d 	andeq	r0, r0, sp, ror r5
     fc0:	00009714 	andeq	r9, r0, r4, lsl r7
     fc4:	0005c500 	andeq	ip, r5, r0, lsl #10
     fc8:	043a1500 	ldrteq	r1, [sl], #-1280	; 0xfffffb00
     fcc:	1b150000 	blne	540fd4 <__bss_end__+0x53703c>
     fd0:	15000001 	strne	r0, [r0, #-1]
     fd4:	00000097 	muleq	r0, r7, r0
     fd8:	00002515 	andeq	r2, r0, r5, lsl r5
     fdc:	040d0000 	streq	r0, [sp], #-0
     fe0:	000005a7 	andeq	r0, r0, r7, lsr #11
     fe4:	00002514 	andeq	r2, r0, r4, lsl r5
     fe8:	0005df00 	andeq	sp, r5, r0, lsl #30
     fec:	043a1500 	ldrteq	r1, [sl], #-1280	; 0xfffffb00
     ff0:	1b150000 	blne	540ff8 <__bss_end__+0x537060>
     ff4:	00000001 	andeq	r0, r0, r1
     ff8:	05cb040d 	strbeq	r0, [fp, #1037]	; 0x40d
     ffc:	5a080000 	bpl	201004 <__bss_end__+0x1f706c>
    1000:	f5000000 			; <UNDEFINED> instruction: 0xf5000000
    1004:	09000005 	stmdbeq	r0, {r0, r2}
    1008:	000000dd 	ldrdeq	r0, [r0], -sp
    100c:	5a080002 	bpl	20101c <__bss_end__+0x1f7084>
    1010:	05000000 	streq	r0, [r0, #-0]
    1014:	09000006 	stmdbeq	r0, {r1, r2}
    1018:	000000dd 	ldrdeq	r0, [r0], -sp
    101c:	03050000 	movweq	r0, #20480	; 0x5000
    1020:	07000003 	streq	r0, [r0, -r3]
    1024:	02f2011d 	rscseq	r0, r2, #1073741831	; 0x40000007
    1028:	7e190000 	cdpvc	0, 1, cr0, cr9, cr0, {0}
    102c:	0c000004 	stceq	0, cr0, [r0], {4}
    1030:	46012107 	strmi	r2, [r1], -r7, lsl #2
    1034:	17000006 	strne	r0, [r0, -r6]
    1038:	0000032b 	andeq	r0, r0, fp, lsr #6
    103c:	46012307 	strmi	r2, [r1], -r7, lsl #6
    1040:	00000006 	andeq	r0, r0, r6
    1044:	00020717 	andeq	r0, r2, r7, lsl r7
    1048:	01240700 			; <UNDEFINED> instruction: 0x01240700
    104c:	00000025 	andeq	r0, r0, r5, lsr #32
    1050:	02fd1704 	rscseq	r1, sp, #4, 14	; 0x100000
    1054:	25070000 	strcs	r0, [r7, #-0]
    1058:	00064c01 	andeq	r4, r6, r1, lsl #24
    105c:	0d000800 	stceq	8, cr0, [r0, #-0]
    1060:	00061104 	andeq	r1, r6, r4, lsl #2
    1064:	05040d00 	streq	r0, [r4, #-3328]	; 0xfffff300
    1068:	19000006 	stmdbne	r0, {r1, r2}
    106c:	00000012 	andeq	r0, r0, r2, lsl r0
    1070:	013d070e 	teqeq	sp, lr, lsl #14
    1074:	00000687 	andeq	r0, r0, r7, lsl #13
    1078:	00037117 	andeq	r7, r3, r7, lsl r1
    107c:	013e0700 	teqeq	lr, r0, lsl #14
    1080:	00000687 	andeq	r0, r0, r7, lsl #13
    1084:	039e1700 	orrseq	r1, lr, #0, 14
    1088:	3f070000 	svccc	0x00070000
    108c:	00068701 	andeq	r8, r6, r1, lsl #14
    1090:	1c170600 	ldcne	6, cr0, [r7], {-0}
    1094:	07000004 	streq	r0, [r0, -r4]
    1098:	00610140 	rsbeq	r0, r1, r0, asr #2
    109c:	000c0000 	andeq	r0, ip, r0
    10a0:	00006108 	andeq	r6, r0, r8, lsl #2
    10a4:	00069700 	andeq	r9, r6, r0, lsl #14
    10a8:	00dd0900 	sbcseq	r0, sp, r0, lsl #18
    10ac:	00020000 	andeq	r0, r2, r0
    10b0:	5707d01a 	smladpl	r7, sl, r0, sp
    10b4:	00079802 	andeq	r9, r7, r2, lsl #16
    10b8:	04621700 	strbteq	r1, [r2], #-1792	; 0xfffff900
    10bc:	59070000 	stmdbpl	r7, {}	; <UNPREDICTABLE>
    10c0:	00002c02 	andeq	r2, r0, r2, lsl #24
    10c4:	06170000 	ldreq	r0, [r7], -r0
    10c8:	07000004 	streq	r0, [r0, -r4]
    10cc:	011d025a 	tsteq	sp, sl, asr r2
    10d0:	17040000 	strne	r0, [r4, -r0]
    10d4:	00000236 	andeq	r0, r0, r6, lsr r2
    10d8:	98025b07 	stmdals	r2, {r0, r1, r2, r8, r9, fp, ip, lr}
    10dc:	08000007 	stmdaeq	r0, {r0, r1, r2}
    10e0:	0004c917 	andeq	ip, r4, r7, lsl r9
    10e4:	025c0700 	subseq	r0, ip, #0, 14
    10e8:	000001a3 	andeq	r0, r0, r3, lsr #3
    10ec:	01b31724 			; <UNDEFINED> instruction: 0x01b31724
    10f0:	5d070000 	stcpl	0, cr0, [r7, #-0]
    10f4:	00002502 	andeq	r2, r0, r2, lsl #10
    10f8:	26174800 	ldrcs	r4, [r7], -r0, lsl #16
    10fc:	07000003 	streq	r0, [r0, -r3]
    1100:	007a025e 	rsbseq	r0, sl, lr, asr r2
    1104:	17500000 	ldrbne	r0, [r0, -r0]
    1108:	000004df 	ldrdeq	r0, [r0], -pc	; <UNPREDICTABLE>
    110c:	52025f07 	andpl	r5, r2, #7, 30
    1110:	58000006 	stmdapl	r0, {r1, r2}
    1114:	00033117 	andeq	r3, r3, r7, lsl r1
    1118:	02600700 	rsbeq	r0, r0, #0, 14
    111c:	00000105 	andeq	r0, r0, r5, lsl #2
    1120:	04e41768 	strbteq	r1, [r4], #1896	; 0x768
    1124:	61070000 	mrsvs	r0, (UNDEF: 7)
    1128:	00010502 	andeq	r0, r1, r2, lsl #10
    112c:	84177000 	ldrhi	r7, [r7], #-0
    1130:	07000000 	streq	r0, [r0, -r0]
    1134:	01050262 	tsteq	r5, r2, ror #4
    1138:	17780000 	ldrbne	r0, [r8, -r0]!
    113c:	00000494 	muleq	r0, r4, r4
    1140:	a8026307 	stmdage	r2, {r0, r1, r2, r8, r9, sp, lr}
    1144:	80000007 	andhi	r0, r0, r7
    1148:	00022a17 	andeq	r2, r2, r7, lsl sl
    114c:	02640700 	rsbeq	r0, r4, #0, 14
    1150:	000007b8 			; <UNDEFINED> instruction: 0x000007b8
    1154:	04291788 	strteq	r1, [r9], #-1928	; 0xfffff878
    1158:	65070000 	strvs	r0, [r7, #-0]
    115c:	00002502 	andeq	r2, r0, r2, lsl #10
    1160:	7917a000 	ldmdbvc	r7, {sp, pc}
    1164:	07000001 	streq	r0, [r0, -r1]
    1168:	01050266 	tsteq	r5, r6, ror #4
    116c:	17a40000 	strne	r0, [r4, r0]!
    1170:	00000075 	andeq	r0, r0, r5, ror r0
    1174:	05026707 	streq	r6, [r2, #-1799]	; 0xfffff8f9
    1178:	ac000001 	stcge	0, cr0, [r0], {1}
    117c:	00016817 	andeq	r6, r1, r7, lsl r8
    1180:	02680700 	rsbeq	r0, r8, #0, 14
    1184:	00000105 	andeq	r0, r0, r5, lsl #2
    1188:	002d17b4 	strhteq	r1, [sp], -r4
    118c:	69070000 	stmdbvs	r7, {}	; <UNPREDICTABLE>
    1190:	00010502 	andeq	r0, r1, r2, lsl #10
    1194:	3c17bc00 	ldccc	12, cr11, [r7], {-0}
    1198:	07000000 	streq	r0, [r0, -r0]
    119c:	0105026a 	tsteq	r5, sl, ror #4
    11a0:	17c40000 	strbne	r0, [r4, r0]
    11a4:	000002d9 	ldrdeq	r0, [r0], -r9
    11a8:	25026b07 	strcs	r6, [r2, #-2823]	; 0xfffff4f9
    11ac:	cc000000 	stcgt	0, cr0, [r0], {-0}
    11b0:	01230800 			; <UNDEFINED> instruction: 0x01230800
    11b4:	07a80000 	streq	r0, [r8, r0]!
    11b8:	dd090000 	stcle	0, cr0, [r9, #-0]
    11bc:	19000000 	stmdbne	r0, {}	; <UNPREDICTABLE>
    11c0:	01230800 			; <UNDEFINED> instruction: 0x01230800
    11c4:	07b80000 	ldreq	r0, [r8, r0]!
    11c8:	dd090000 	stcle	0, cr0, [r9, #-0]
    11cc:	07000000 	streq	r0, [r0, -r0]
    11d0:	01230800 			; <UNDEFINED> instruction: 0x01230800
    11d4:	07c80000 	strbeq	r0, [r8, r0]
    11d8:	dd090000 	stcle	0, cr0, [r9, #-0]
    11dc:	17000000 	strne	r0, [r0, -r0]
    11e0:	07f01a00 	ldrbeq	r1, [r0, r0, lsl #20]!
    11e4:	07ec0270 			; <UNDEFINED> instruction: 0x07ec0270
    11e8:	80170000 	andshi	r0, r7, r0
    11ec:	07000002 	streq	r0, [r0, -r2]
    11f0:	07ec0273 			; <UNDEFINED> instruction: 0x07ec0273
    11f4:	17000000 	strne	r0, [r0, -r0]
    11f8:	0000048b 	andeq	r0, r0, fp, lsl #9
    11fc:	fc027407 	stc2	4, cr7, [r2], {7}
    1200:	78000007 	stmdavc	r0, {r0, r1, r2}
    1204:	02ec0800 	rsceq	r0, ip, #0, 16
    1208:	07fc0000 	ldrbeq	r0, [ip, r0]!
    120c:	dd090000 	stcle	0, cr0, [r9, #-0]
    1210:	1d000000 	stcne	0, cr0, [r0, #-0]
    1214:	002c0800 	eoreq	r0, ip, r0, lsl #16
    1218:	080c0000 	stmdaeq	ip, {}	; <UNPREDICTABLE>
    121c:	dd090000 	stcle	0, cr0, [r9, #-0]
    1220:	1d000000 	stcne	0, cr0, [r0, #-0]
    1224:	07f01b00 	ldrbeq	r1, [r0, r0, lsl #22]!
    1228:	082e0255 	stmdaeq	lr!, {r0, r2, r4, r6, r9}
    122c:	6a1c0000 	bvs	701234 <__bss_end__+0x6f729c>
    1230:	07000003 	streq	r0, [r0, -r3]
    1234:	0697026c 	ldreq	r0, [r7], ip, ror #4
    1238:	b61c0000 	ldrlt	r0, [ip], -r0
    123c:	07000004 	streq	r0, [r0, -r4]
    1240:	07c80275 			; <UNDEFINED> instruction: 0x07c80275
    1244:	08000000 	stmdaeq	r0, {}	; <UNPREDICTABLE>
    1248:	00000123 	andeq	r0, r0, r3, lsr #2
    124c:	0000083e 	andeq	r0, r0, lr, lsr r8
    1250:	0000dd09 	andeq	sp, r0, r9, lsl #26
    1254:	1d001800 	stcne	8, cr1, [r0, #-0]
    1258:	00000849 	andeq	r0, r0, r9, asr #16
    125c:	00043a15 	andeq	r3, r4, r5, lsl sl
    1260:	040d0000 	streq	r0, [sp], #-0
    1264:	0000083e 	andeq	r0, r0, lr, lsr r8
    1268:	018d040d 	orreq	r0, sp, sp, lsl #8
    126c:	601d0000 	andsvs	r0, sp, r0
    1270:	15000008 	strne	r0, [r0, #-8]
    1274:	00000025 	andeq	r0, r0, r5, lsr #32
    1278:	66040d00 	strvs	r0, [r4], -r0, lsl #26
    127c:	0d000008 	stceq	0, cr0, [r0, #-32]	; 0xffffffe0
    1280:	00085504 	andeq	r5, r8, r4, lsl #10
    1284:	06050800 	streq	r0, [r5], -r0, lsl #16
    1288:	087c0000 	ldmdaeq	ip!, {}^	; <UNPREDICTABLE>
    128c:	dd090000 	stcle	0, cr0, [r9, #-0]
    1290:	02000000 	andeq	r0, r0, #0
    1294:	043d1e00 	ldrteq	r1, [sp], #-3584	; 0xfffff200
    1298:	fd070000 	stc2	0, cr0, [r7, #-0]
    129c:	00043a02 	andeq	r3, r4, r2, lsl #20
    12a0:	04361e00 	ldrteq	r1, [r6], #-3584	; 0xfffff200
    12a4:	fe070000 	cdp2	0, 0, cr0, cr7, cr0, {0}
    12a8:	00044002 	andeq	r4, r4, r2
    12ac:	00251400 	eoreq	r1, r5, r0, lsl #8
    12b0:	08a30000 	stmiaeq	r3!, {}	; <UNPREDICTABLE>
    12b4:	25150000 	ldrcs	r0, [r5, #-0]
    12b8:	00000000 	andeq	r0, r0, r0
    12bc:	0001cc1f 	andeq	ip, r1, pc, lsl ip
    12c0:	ae1d0800 	cdpge	8, 1, cr0, cr13, cr0, {0}
    12c4:	0d000008 	stceq	0, cr0, [r0, #-32]	; 0xffffffe0
    12c8:	00089404 	andeq	r9, r8, r4, lsl #8
    12cc:	00251400 	eoreq	r1, r5, r0, lsl #8
    12d0:	08c30000 	stmiaeq	r3, {}^	; <UNPREDICTABLE>
    12d4:	9b150000 	blls	5412dc <__bss_end__+0x537344>
    12d8:	00000005 	andeq	r0, r0, r5
    12dc:	0007691f 	andeq	r6, r7, pc, lsl r9
    12e0:	ce220800 	cdpgt	8, 2, cr0, cr2, cr0, {0}
    12e4:	0d000008 	stceq	0, cr0, [r0, #-32]	; 0xffffffe0
    12e8:	0008b404 	andeq	fp, r8, r4, lsl #8
    12ec:	5a012000 	bpl	492f4 <__bss_end__+0x3f35c>
    12f0:	02000000 	andeq	r0, r0, #0
    12f4:	0008ed24 	andeq	lr, r8, r4, lsr #26
    12f8:	05472100 	strbeq	r2, [r7, #-256]	; 0xffffff00
    12fc:	210b0000 	mrscs	r0, (UNDEF: 11)
    1300:	00000541 	andeq	r0, r0, r1, asr #10
    1304:	0c0a000c 	stceq	0, cr0, [sl], {12}
    1308:	091a2602 	ldmdbeq	sl, {r1, r9, sl, sp}
    130c:	f50b0000 			; <UNDEFINED> instruction: 0xf50b0000
    1310:	02000001 	andeq	r0, r0, #1
    1314:	00059b27 	andeq	r9, r5, r7, lsr #22
    1318:	a30b0000 	movwge	r0, #45056	; 0xb000
    131c:	02000004 	andeq	r0, r0, #4
    1320:	00059b28 	andeq	r9, r5, r8, lsr #22
    1324:	180b0400 	stmdane	fp, {sl}
    1328:	02000005 	andeq	r0, r0, #5
    132c:	00002c29 	andeq	r2, r0, r9, lsr #24
    1330:	04000800 	streq	r0, [r0], #-2048	; 0xfffff800
    1334:	0000062d 	andeq	r0, r0, sp, lsr #12
    1338:	08ed2a02 	stmiaeq	sp!, {r1, r9, fp, sp}^
    133c:	a10f0000 	mrsge	r0, CPSR
    1340:	38000006 	stmdacc	r0, {r1, r2}
    1344:	09aa2d02 	stmibeq	sl!, {r1, r8, sl, fp, sp}
    1348:	e90b0000 	stmdb	fp, {}	; <UNPREDICTABLE>
    134c:	02000005 	andeq	r0, r0, #5
    1350:	0000682e 	andeq	r6, r0, lr, lsr #16
    1354:	870b0000 	strhi	r0, [fp, -r0]
    1358:	02000006 	andeq	r0, r0, #6
    135c:	0000682f 	andeq	r6, r0, pc, lsr #16
    1360:	8c0b0400 	cfstrshi	mvf0, [fp], {-0}
    1364:	02000000 	andeq	r0, r0, #0
    1368:	00006830 	andeq	r6, r0, r0, lsr r8
    136c:	e30b0800 	movw	r0, #47104	; 0xb800
    1370:	02000005 	andeq	r0, r0, #5
    1374:	00006834 	andeq	r6, r0, r4, lsr r8
    1378:	d50b0c00 	strle	r0, [fp, #-3072]	; 0xfffff400
    137c:	02000005 	andeq	r0, r0, #5
    1380:	00091a36 	andeq	r1, r9, r6, lsr sl
    1384:	2e0b1000 	cdpcs	0, 0, cr1, cr11, cr0, {0}
    1388:	02000005 	andeq	r0, r0, #5
    138c:	00091a37 	andeq	r1, r9, r7, lsr sl
    1390:	5b0b1c00 	blpl	2c8398 <__bss_end__+0x2be400>
    1394:	02000005 	andeq	r0, r0, #5
    1398:	0000683b 	andeq	r6, r0, fp, lsr r8
    139c:	4f0b2800 	svcmi	0x000b2800
    13a0:	02000005 	andeq	r0, r0, #5
    13a4:	0000683c 	andeq	r6, r0, ip, lsr r8
    13a8:	1f0b2c00 	svcne	0x000b2c00
    13ac:	02000005 	andeq	r0, r0, #5
    13b0:	0009aa3f 	andeq	sl, r9, pc, lsr sl
    13b4:	010b3000 	mrseq	r3, (UNDEF: 11)
    13b8:	02000005 	andeq	r0, r0, #5
    13bc:	00006841 	andeq	r6, r0, r1, asr #16
    13c0:	0d003400 	cfstrseq	mvf3, [r0, #-0]
    13c4:	00092504 	andeq	r2, r9, r4, lsl #10
    13c8:	06810400 	streq	r0, [r1], r0, lsl #8
    13cc:	42020000 	andmi	r0, r2, #0
    13d0:	00000925 	andeq	r0, r0, r5, lsr #18
    13d4:	00610220 	rsbeq	r0, r1, r0, lsr #4
    13d8:	62020000 	andvs	r0, r2, #0
    13dc:	000009e1 	andeq	r0, r0, r1, ror #19
    13e0:	00065721 	andeq	r5, r6, r1, lsr #14
    13e4:	7e21fe00 	cdpvc	14, 2, cr15, cr1, cr0, {0}
    13e8:	80000005 	andhi	r0, r0, r5
    13ec:	00058621 	andeq	r8, r5, r1, lsr #12
    13f0:	6e22b800 	cdpvs	8, 2, cr11, cr2, cr0, {0}
    13f4:	38000005 	stmdacc	r0, {r0, r2}
    13f8:	52230001 	eorpl	r0, r3, #1
    13fc:	01000006 	tsteq	r0, r6
    1400:	0009f207 	andeq	pc, r9, r7, lsl #4
    1404:	90030500 	andls	r0, r3, r0, lsl #10
    1408:	0d00009b 	stceq	0, cr0, [r0, #-620]	; 0xfffffd94
    140c:	00004f04 	andeq	r4, r0, r4, lsl #30
    1410:	0b6d2300 	bleq	1b4a018 <__bss_end__+0x1b40080>
    1414:	07010000 	streq	r0, [r1, -r0]
    1418:	000009f2 	strdeq	r0, [r0], -r2
    141c:	9b940305 	blls	fe502038 <__bss_end__+0xfe4f80a0>
    1420:	54230000 	strtpl	r0, [r3], #-0
    1424:	0100000b 	tsteq	r0, fp
    1428:	0009f207 	andeq	pc, r9, r7, lsl #4
    142c:	8c030500 	cfstr32hi	mvfx0, [r3], {-0}
    1430:	2400009b 	strcs	r0, [r0], #-155	; 0xffffff65
    1434:	00000509 	andeq	r0, r0, r9, lsl #10
    1438:	0025ae01 	eoreq	sl, r5, r1, lsl #28
    143c:	87b80000 	ldrhi	r0, [r8, r0]!
    1440:	014c0000 	mrseq	r0, (UNDEF: 76)
    1444:	9c010000 	stcls	0, cr0, [r1], {-0}
    1448:	00000bd3 	ldrdeq	r0, [r0], -r3
    144c:	00056625 	andeq	r6, r5, r5, lsr #12
    1450:	2caf0100 	stfcss	f0, [pc]	; 1458 <_start-0x6ba8>
    1454:	1e000000 	cdpne	0, 0, cr0, cr0, cr0, {0}
    1458:	25000000 	strcs	r0, [r0, #-0]
    145c:	00000692 	muleq	r0, r2, r6
    1460:	002cb001 	eoreq	fp, ip, r1
    1464:	00310000 	eorseq	r0, r1, r0
    1468:	40250000 	eormi	r0, r5, r0
    146c:	01000006 	tsteq	r0, r6
    1470:	00002cb4 			; <UNDEFINED> instruction: 0x00002cb4
    1474:	00004400 	andeq	r4, r0, r0, lsl #8
    1478:	06272500 	strteq	r2, [r7], -r0, lsl #10
    147c:	b5010000 	strlt	r0, [r1, #-0]
    1480:	0000002c 	andeq	r0, r0, ip, lsr #32
    1484:	00000063 	andeq	r0, r0, r3, rrx
    1488:	00006026 	andeq	r6, r0, r6, lsr #32
    148c:	000b2e00 	andeq	r2, fp, r0, lsl #28
    1490:	06662300 	strbteq	r2, [r6], -r0, lsl #6
    1494:	b8010000 	stmdalt	r1, {}	; <UNPREDICTABLE>
    1498:	00000bd3 	ldrdeq	r0, [r0], -r3
    149c:	5c275401 	cfstrspl	mvf5, [r7], #-4
    14a0:	62000088 	andvs	r0, r0, #136	; 0x88
    14a4:	99000014 	stmdbls	r0, {r2, r4}
    14a8:	2800000a 	stmdacs	r0, {r1, r3}
    14ac:	74025001 	strvc	r5, [r2], #-1
    14b0:	6c270000 	stcvs	0, cr0, [r7], #-0
    14b4:	a5000088 	strge	r0, [r0, #-136]	; 0xffffff78
    14b8:	ad000016 	stcge	0, cr0, [r0, #-88]	; 0xffffffa8
    14bc:	2800000a 	stmdacs	r0, {r1, r3}
    14c0:	74025001 	strvc	r5, [r2], #-1
    14c4:	78270000 	stmdavc	r7!, {}	; <UNPREDICTABLE>
    14c8:	fc000088 	stc2	0, cr0, [r0], {136}	; 0x88
    14cc:	c7000012 	smladgt	r0, r2, r0, r0
    14d0:	2800000a 	stmdacs	r0, {r1, r3}
    14d4:	08025101 	stmdaeq	r2, {r0, r8, ip, lr}
    14d8:	52012880 	andpl	r2, r1, #128, 16	; 0x800000
    14dc:	00007402 	andeq	r7, r0, r2, lsl #8
    14e0:	00888827 	addeq	r8, r8, r7, lsr #16
    14e4:	00163600 	andseq	r3, r6, r0, lsl #12
    14e8:	000adb00 	andeq	sp, sl, r0, lsl #22
    14ec:	50012800 	andpl	r2, r1, r0, lsl #16
    14f0:	00007402 	andeq	r7, r0, r2, lsl #8
    14f4:	00889427 	addeq	r9, r8, r7, lsr #8
    14f8:	00160f00 	andseq	r0, r6, r0, lsl #30
    14fc:	000aef00 	andeq	lr, sl, r0, lsl #30
    1500:	50012800 	andpl	r2, r1, r0, lsl #16
    1504:	00007402 	andeq	r7, r0, r2, lsl #8
    1508:	0088a427 	addeq	sl, r8, r7, lsr #8
    150c:	0012fc00 	andseq	pc, r2, r0, lsl #24
    1510:	000b0900 	andeq	r0, fp, r0, lsl #18
    1514:	50012800 	andpl	r2, r1, r0, lsl #16
    1518:	28007702 	stmdacs	r0, {r1, r8, r9, sl, ip, sp, lr}
    151c:	74025201 	strvc	r5, [r2], #-513	; 0xfffffdff
    1520:	bc270000 	stclt	0, cr0, [r7], #-0
    1524:	6d000088 	stcvs	0, cr0, [r0, #-544]	; 0xfffffde0
    1528:	1d000016 	stcne	0, cr0, [r0, #-88]	; 0xffffffa8
    152c:	2800000b 	stmdacs	r0, {r0, r1, r3}
    1530:	74025001 	strvc	r5, [r2], #-1
    1534:	c8290000 	stmdagt	r9!, {}	; <UNPREDICTABLE>
    1538:	61000088 	smlabbvs	r0, r8, r0, r0
    153c:	28000011 	stmdacs	r0, {r0, r4}
    1540:	74025201 	strvc	r5, [r2], #-513	; 0xfffffdff
    1544:	27000000 	strcs	r0, [r0, -r0]
    1548:	000087dc 	ldrdeq	r8, [r0], -ip
    154c:	00001795 	muleq	r0, r5, r7
    1550:	00000b45 	andeq	r0, r0, r5, asr #22
    1554:	05500128 	ldrbeq	r0, [r0, #-296]	; 0xfffffed8
    1558:	00966803 	addseq	r6, r6, r3, lsl #16
    155c:	ec270000 	stc	0, cr0, [r7], #-0
    1560:	95000087 	strls	r0, [r0, #-135]	; 0xffffff79
    1564:	68000017 	stmdavs	r0, {r0, r1, r2, r4}
    1568:	2800000b 	stmdacs	r0, {r0, r1, r3}
    156c:	03055001 	movweq	r5, #20481	; 0x5001
    1570:	000098cc 	andeq	r9, r0, ip, asr #17
    1574:	02510128 	subseq	r0, r1, #40, 2
    1578:	01280075 			; <UNDEFINED> instruction: 0x01280075
    157c:	00760252 	rsbseq	r0, r6, r2, asr r2
    1580:	88142700 	ldmdahi	r4, {r8, r9, sl, sp}
    1584:	17950000 	ldrne	r0, [r5, r0]
    1588:	0b7f0000 	bleq	1fc1590 <__bss_end__+0x1fb75f8>
    158c:	01280000 			; <UNDEFINED> instruction: 0x01280000
    1590:	68030550 	stmdavs	r3, {r4, r6, r8, sl}
    1594:	00000096 	muleq	r0, r6, r0
    1598:	00882027 	addeq	r2, r8, r7, lsr #32
    159c:	00179500 	andseq	r9, r7, r0, lsl #10
    15a0:	000b9c00 	andeq	r9, fp, r0, lsl #24
    15a4:	50012800 	andpl	r2, r1, r0, lsl #16
    15a8:	992c0305 	stmdbls	ip!, {r0, r2, r8, r9}
    15ac:	01280000 			; <UNDEFINED> instruction: 0x01280000
    15b0:	00750251 	rsbseq	r0, r5, r1, asr r2
    15b4:	88dc2700 	ldmhi	ip, {r8, r9, sl, sp}^
    15b8:	17950000 	ldrne	r0, [r5, r0]
    15bc:	0bb30000 	bleq	fecc15c4 <__bss_end__+0xfecb762c>
    15c0:	01280000 			; <UNDEFINED> instruction: 0x01280000
    15c4:	68030550 	stmdavs	r3, {r4, r6, r8, sl}
    15c8:	00000096 	muleq	r0, r6, r0
    15cc:	0088ec29 	addeq	lr, r8, r9, lsr #24
    15d0:	00179500 	andseq	r9, r7, r0, lsl #10
    15d4:	50012800 	andpl	r2, r1, r0, lsl #16
    15d8:	99040305 	stmdbls	r4, {r0, r2, r8, r9}
    15dc:	01280000 			; <UNDEFINED> instruction: 0x01280000
    15e0:	00750251 	rsbseq	r0, r5, r1, asr r2
    15e4:	02520128 	subseq	r0, r2, #40, 2
    15e8:	00000076 	andeq	r0, r0, r6, ror r0
    15ec:	09b0040d 	ldmibeq	r0!, {r0, r2, r3, sl}
    15f0:	64240000 	strtvs	r0, [r4], #-0
    15f4:	01000000 	mrseq	r0, (UNDEF: 0)
    15f8:	00011b87 	andeq	r1, r1, r7, lsl #23
    15fc:	0085a000 	addeq	sl, r5, r0
    1600:	00021800 	andeq	r1, r2, r0, lsl #16
    1604:	049c0100 	ldreq	r0, [ip], #256	; 0x100
    1608:	2a00000f 	bcs	164c <_start-0x69b4>
    160c:	00000672 	andeq	r0, r0, r2, ror r6
    1610:	00688701 	rsbeq	r8, r8, r1, lsl #14
    1614:	00820000 	addeq	r0, r2, r0
    1618:	f52a0000 			; <UNDEFINED> instruction: 0xf52a0000
    161c:	01000001 	tsteq	r0, r1
    1620:	00059b87 	andeq	r9, r5, r7, lsl #23
    1624:	0000c400 	andeq	ip, r0, r0, lsl #8
    1628:	04a32a00 	strteq	r2, [r3], #2560	; 0xa00
    162c:	87010000 	strhi	r0, [r1, -r0]
    1630:	0000059b 	muleq	r0, fp, r5
    1634:	00000106 	andeq	r0, r0, r6, lsl #2
    1638:	0005182a 	andeq	r1, r5, sl, lsr #16
    163c:	2c870100 	stfcss	f0, [r7], {0}
    1640:	48000000 	stmdami	r0, {}	; <UNPREDICTABLE>
    1644:	2b000001 	blcs	1650 <_start-0x69b0>
    1648:	88010068 	stmdahi	r1, {r3, r5, r6}
    164c:	00000bd3 	ldrdeq	r0, [r0], -r3
    1650:	0000018d 	andeq	r0, r0, sp, lsl #3
    1654:	7274702b 	rsbsvc	r7, r4, #43	; 0x2b
    1658:	1b890100 	blne	fe241a60 <__bss_end__+0xfe237ac8>
    165c:	c3000001 	movwgt	r0, #1
    1660:	2c000001 	stccs	0, cr0, [r0], {1}
    1664:	000001fa 	strdeq	r0, [r0], -sl
    1668:	00000f14 	andeq	r0, r0, r4, lsl pc
    166c:	96600305 	strbtls	r0, [r0], -r5, lsl #6
    1670:	742b0000 	strtvc	r0, [fp], #-0
    1674:	0100746f 	tsteq	r0, pc, ror #8
    1678:	00002c8e 	andeq	r2, r0, lr, lsl #25
    167c:	0001f900 	andeq	pc, r1, r0, lsl #18
    1680:	006e2b00 	rsbeq	r2, lr, r0, lsl #22
    1684:	002c8f01 	eoreq	r8, ip, r1, lsl #30
    1688:	02580000 	subseq	r0, r8, #0
    168c:	d0270000 	eorle	r0, r7, r0
    1690:	95000085 	strls	r0, [r0, #-133]	; 0xffffff7b
    1694:	8c000017 	stchi	0, cr0, [r0], {23}
    1698:	2800000c 	stmdacs	r0, {r2, r3}
    169c:	03055001 	movweq	r5, #20481	; 0x5001
    16a0:	00009668 	andeq	r9, r0, r8, ror #12
    16a4:	85dc2700 	ldrbhi	r2, [ip, #1792]	; 0x700
    16a8:	17950000 	ldrne	r0, [r5, r0]
    16ac:	0ca90000 	stceq	0, cr0, [r9]
    16b0:	01280000 			; <UNDEFINED> instruction: 0x01280000
    16b4:	90030550 	andls	r0, r3, r0, asr r5
    16b8:	28000097 	stmdacs	r0, {r0, r1, r2, r4, r7}
    16bc:	75025101 	strvc	r5, [r2, #-257]	; 0xfffffeff
    16c0:	3c270000 	stccc	0, cr0, [r7], #-0
    16c4:	a5000086 	strge	r0, [r0, #-134]	; 0xffffff7a
    16c8:	bd000016 	stclt	0, cr0, [r0, #-88]	; 0xffffffa8
    16cc:	2800000c 	stmdacs	r0, {r2, r3}
    16d0:	74025001 	strvc	r5, [r2], #-1
    16d4:	44270000 	strtmi	r0, [r7], #-0
    16d8:	11000086 	smlabbne	r0, r6, r0, r0
    16dc:	d1000011 	tstle	r0, r1, lsl r0
    16e0:	2800000c 	stmdacs	r0, {r2, r3}
    16e4:	08025101 	stmdaeq	r2, {r0, r8, ip, lr}
    16e8:	4c270080 	stcmi	0, cr0, [r7], #-512	; 0xfffffe00
    16ec:	36000086 	strcc	r0, [r0], -r6, lsl #1
    16f0:	e5000016 	str	r0, [r0, #-22]	; 0xffffffea
    16f4:	2800000c 	stmdacs	r0, {r2, r3}
    16f8:	74025001 	strvc	r5, [r2], #-1
    16fc:	58270000 	stmdapl	r7!, {}	; <UNPREDICTABLE>
    1700:	0f000086 	svceq	0x00000086
    1704:	f9000016 			; <UNDEFINED> instruction: 0xf9000016
    1708:	2800000c 	stmdacs	r0, {r2, r3}
    170c:	74025001 	strvc	r5, [r2], #-1
    1710:	64270000 	strtvs	r0, [r7], #-0
    1714:	11000086 	smlabbne	r0, r6, r0, r0
    1718:	0d000011 	stceq	0, cr0, [r0, #-68]	; 0xffffffbc
    171c:	2800000d 	stmdacs	r0, {r0, r2, r3}
    1720:	77025001 	strvc	r5, [r2, -r1]
    1724:	6c270000 	stcvs	0, cr0, [r7], #-0
    1728:	8f000086 	svchi	0x00000086
    172c:	21000015 	tstcs	r0, r5, lsl r0
    1730:	2800000d 	stmdacs	r0, {r0, r2, r3}
    1734:	74025001 	strvc	r5, [r2], #-1
    1738:	88270000 	stmdahi	r7!, {}	; <UNPREDICTABLE>
    173c:	6a000086 	bvs	195c <_start-0x66a4>
    1740:	35000010 	strcc	r0, [r0, #-16]
    1744:	2800000d 	stmdacs	r0, {r0, r2, r3}
    1748:	74025001 	strvc	r5, [r2], #-1
    174c:	98270000 	stmdals	r7!, {}	; <UNPREDICTABLE>
    1750:	6d000086 	stcvs	0, cr0, [r0, #-536]	; 0xfffffde8
    1754:	49000016 	stmdbmi	r0, {r1, r2, r4}
    1758:	2800000d 	stmdacs	r0, {r0, r2, r3}
    175c:	74025001 	strvc	r5, [r2], #-1
    1760:	a4270000 	strtge	r0, [r7], #-0
    1764:	95000086 	strls	r0, [r0, #-134]	; 0xffffff7a
    1768:	60000017 	andvs	r0, r0, r7, lsl r0
    176c:	2800000d 	stmdacs	r0, {r0, r2, r3}
    1770:	03055001 	movweq	r5, #20481	; 0x5001
    1774:	00009668 	andeq	r9, r0, r8, ror #12
    1778:	86b82700 	ldrthi	r2, [r8], r0, lsl #14
    177c:	17950000 	ldrne	r0, [r5, r0]
    1780:	0d890000 	stceq	0, cr0, [r9]
    1784:	01280000 			; <UNDEFINED> instruction: 0x01280000
    1788:	9c030550 	cfstr32ls	mvfx0, [r3], {80}	; 0x50
    178c:	28000098 	stmdacs	r0, {r3, r4, r7}
    1790:	75025101 	strvc	r5, [r2, #-257]	; 0xfffffeff
    1794:	52012800 	andpl	r2, r1, #0, 16
    1798:	28007602 	stmdacs	r0, {r1, r9, sl, ip, sp, lr}
    179c:	74025301 	strvc	r5, [r2], #-769	; 0xfffffcff
    17a0:	c82d0000 	stmdagt	sp!, {}	; <UNPREDICTABLE>
    17a4:	a0000086 	andge	r0, r0, r6, lsl #1
    17a8:	27000017 	smladcs	r0, r7, r0, r0
    17ac:	000086dc 	ldrdeq	r8, [r0], -ip
    17b0:	00001795 	muleq	r0, r5, r7
    17b4:	00000dc1 	andeq	r0, r0, r1, asr #27
    17b8:	05500128 	ldrbeq	r0, [r0, #-296]	; 0xfffffed8
    17bc:	00975003 	addseq	r5, r7, r3
    17c0:	51012800 	tstpl	r1, r0, lsl #16
    17c4:	97000305 	strls	r0, [r0, -r5, lsl #6]
    17c8:	01280000 			; <UNDEFINED> instruction: 0x01280000
    17cc:	60030552 	andvs	r0, r3, r2, asr r5
    17d0:	28000096 	stmdacs	r0, {r1, r2, r4, r7}
    17d4:	08025301 	stmdaeq	r2, {r0, r8, r9, ip, lr}
    17d8:	e02d008b 	eor	r0, sp, fp, lsl #1
    17dc:	ab000086 	blge	19fc <_start-0x6604>
    17e0:	27000017 	smladcs	r0, r7, r0, r0
    17e4:	000086e8 	andeq	r8, r0, r8, ror #13
    17e8:	00001795 	muleq	r0, r5, r7
    17ec:	00000de1 	andeq	r0, r0, r1, ror #27
    17f0:	05500128 	ldrbeq	r0, [r0, #-296]	; 0xfffffed8
    17f4:	0097a803 	addseq	sl, r7, r3, lsl #16
    17f8:	f4270000 	vld4.8	{d0-d3}, [r7], r0
    17fc:	95000086 	strls	r0, [r0, #-134]	; 0xffffff7a
    1800:	fe000017 	mcr2	0, 0, r0, cr0, cr7, {0}
    1804:	2800000d 	stmdacs	r0, {r0, r2, r3}
    1808:	03055001 	movweq	r5, #20481	; 0x5001
    180c:	000097b4 			; <UNDEFINED> instruction: 0x000097b4
    1810:	02510128 	subseq	r0, r1, #40, 2
    1814:	2d000075 	stccs	0, cr0, [r0, #-468]	; 0xfffffe2c
    1818:	000086f8 	strdeq	r8, [r0], -r8	; <UNPREDICTABLE>
    181c:	000017a0 	andeq	r1, r0, r0, lsr #15
    1820:	00871027 	addeq	r1, r7, r7, lsr #32
    1824:	00179500 	andseq	r9, r7, r0, lsl #10
    1828:	000e3d00 	andeq	r3, lr, r0, lsl #26
    182c:	50012800 	andpl	r2, r1, r0, lsl #16
    1830:	97dc0305 	ldrbls	r0, [ip, r5, lsl #6]
    1834:	01280000 			; <UNDEFINED> instruction: 0x01280000
    1838:	00030551 	andeq	r0, r3, r1, asr r5
    183c:	28000097 	stmdacs	r0, {r0, r1, r2, r4, r7}
    1840:	03055201 	movweq	r5, #20993	; 0x5201
    1844:	00009660 	andeq	r9, r0, r0, ror #12
    1848:	02530128 	subseq	r0, r3, #40, 2
    184c:	02289308 	eoreq	r9, r8, #8, 6	; 0x20000000
    1850:	7502007d 	strvc	r0, [r2, #-125]	; 0xffffff83
    1854:	142d0000 	strtne	r0, [sp], #-0
    1858:	ab000087 	blge	1a7c <_start-0x6584>
    185c:	27000017 	smladcs	r0, r7, r0, r0
    1860:	0000871c 	andeq	r8, r0, ip, lsl r7
    1864:	00001795 	muleq	r0, r5, r7
    1868:	00000e5d 	andeq	r0, r0, sp, asr lr
    186c:	05500128 	ldrbeq	r0, [r0, #-296]	; 0xfffffed8
    1870:	0097a803 	addseq	sl, r7, r3, lsl #16
    1874:	38270000 	stmdacc	r7!, {}	; <UNPREDICTABLE>
    1878:	95000087 	strls	r0, [r0, #-135]	; 0xffffff79
    187c:	7a000017 	bvc	18e0 <_start-0x6720>
    1880:	2800000e 	stmdacs	r0, {r1, r2, r3}
    1884:	03055001 	movweq	r5, #20481	; 0x5001
    1888:	00009814 	andeq	r9, r0, r4, lsl r8
    188c:	02520128 	subseq	r0, r2, #40, 2
    1890:	2d000076 	stccs	0, cr0, [r0, #-472]	; 0xfffffe28
    1894:	0000873c 	andeq	r8, r0, ip, lsr r7
    1898:	000017a0 	andeq	r1, r0, r0, lsr #15
    189c:	00876427 	addeq	r6, r7, r7, lsr #8
    18a0:	00179500 	andseq	r9, r7, r0, lsl #10
    18a4:	000eb900 	andeq	fp, lr, r0, lsl #18
    18a8:	50012800 	andpl	r2, r1, r0, lsl #16
    18ac:	98400305 	stmdals	r0, {r0, r2, r8, r9}^
    18b0:	01280000 			; <UNDEFINED> instruction: 0x01280000
    18b4:	00030551 	andeq	r0, r3, r1, asr r5
    18b8:	28000097 	stmdacs	r0, {r0, r1, r2, r4, r7}
    18bc:	03055201 	movweq	r5, #20993	; 0x5201
    18c0:	00009660 	andeq	r9, r0, r0, ror #12
    18c4:	02530128 	subseq	r0, r3, #40, 2
    18c8:	02289708 	eoreq	r9, r8, #8, 14	; 0x200000
    18cc:	7602047d 			; <UNDEFINED> instruction: 0x7602047d
    18d0:	682d0000 	stmdavs	sp!, {}	; <UNPREDICTABLE>
    18d4:	ab000087 	blge	1af8 <_start-0x6508>
    18d8:	2d000017 	stccs	0, cr0, [r0, #-92]	; 0xffffffa4
    18dc:	0000876c 	andeq	r8, r0, ip, ror #14
    18e0:	000017a0 	andeq	r1, r0, r0, lsr #15
    18e4:	00878027 	addeq	r8, r7, r7, lsr #32
    18e8:	00179500 	andseq	r9, r7, r0, lsl #10
    18ec:	000efa00 	andeq	pc, lr, r0, lsl #20
    18f0:	50012800 	andpl	r2, r1, r0, lsl #16
    18f4:	987c0305 	ldmdals	ip!, {r0, r2, r8, r9}^
    18f8:	01280000 			; <UNDEFINED> instruction: 0x01280000
    18fc:	00030551 	andeq	r0, r3, r1, asr r5
    1900:	28000097 	stmdacs	r0, {r0, r1, r2, r4, r7}
    1904:	03055201 	movweq	r5, #20993	; 0x5201
    1908:	00009660 	andeq	r9, r0, r0, ror #12
    190c:	02530128 	subseq	r0, r3, #40, 2
    1910:	2d00a508 	cfstr32cs	mvfx10, [r0, #-32]	; 0xffffffe0
    1914:	00008784 	andeq	r8, r0, r4, lsl #15
    1918:	000017ab 	andeq	r1, r0, fp, lsr #15
    191c:	012a0800 			; <UNDEFINED> instruction: 0x012a0800
    1920:	0f140000 	svceq	0x00140000
    1924:	dd090000 	stcle	0, cr0, [r9, #-0]
    1928:	07000000 	streq	r0, [r0, -r0]
    192c:	0f040e00 	svceq	0x00040e00
    1930:	582e0000 	stmdapl	lr!, {}	; <UNPREDICTABLE>
    1934:	01000002 	tsteq	r0, r2
    1938:	0084e872 	addeq	lr, r4, r2, ror r8
    193c:	0000b800 	andeq	fp, r0, r0, lsl #16
    1940:	559c0100 	ldrpl	r0, [ip, #256]	; 0x100
    1944:	2a000010 	bcs	198c <_start-0x6674>
    1948:	00000b60 	andeq	r0, r0, r0, ror #22
    194c:	011b7201 	tsteq	fp, r1, lsl #4
    1950:	02760000 	rsbseq	r0, r6, #0
    1954:	f52a0000 			; <UNDEFINED> instruction: 0xf52a0000
    1958:	01000001 	tsteq	r0, r1
    195c:	00059b72 	andeq	r9, r5, r2, ror fp
    1960:	00029400 	andeq	r9, r2, r0, lsl #8
    1964:	04a32a00 	strteq	r2, [r3], #2560	; 0xa00
    1968:	72010000 	andvc	r0, r1, #0
    196c:	0000059b 	muleq	r0, fp, r5
    1970:	000002b2 			; <UNDEFINED> instruction: 0x000002b2
    1974:	0005182a 	andeq	r1, r5, sl, lsr #16
    1978:	2c720100 	ldfcse	f0, [r2], #-0
    197c:	d0000000 	andle	r0, r0, r0
    1980:	2b000002 	blcs	1990 <_start-0x6670>
    1984:	73010068 	movwvc	r0, #4200	; 0x1068
    1988:	00000bd3 	ldrdeq	r0, [r0], -r3
    198c:	000002ee 	andeq	r0, r0, lr, ror #5
    1990:	0001fa2c 	andeq	pc, r1, ip, lsr #20
    1994:	00106500 	andseq	r6, r0, r0, lsl #10
    1998:	58030500 	stmdapl	r3, {r8, sl}
    199c:	27000096 			; <UNDEFINED> instruction: 0x27000096
    19a0:	00008500 	andeq	r8, r0, r0, lsl #10
    19a4:	000015e6 	andeq	r1, r0, r6, ror #11
    19a8:	00000f9a 	muleq	r0, sl, pc	; <UNPREDICTABLE>
    19ac:	02500128 	subseq	r0, r0, #40, 2
    19b0:	27000075 	smlsdxcs	r0, r5, r0, r0
    19b4:	0000851c 	andeq	r8, r0, ip, lsl r5
    19b8:	00001795 	muleq	r0, r5, r7
    19bc:	00000fb1 			; <UNDEFINED> instruction: 0x00000fb1
    19c0:	05500128 	ldrbeq	r0, [r0, #-296]	; 0xfffffed8
    19c4:	00966803 	addseq	r6, r6, r3, lsl #16
    19c8:	28270000 	stmdacs	r7!, {}	; <UNPREDICTABLE>
    19cc:	95000085 	strls	r0, [r0, #-133]	; 0xffffff7b
    19d0:	ce000017 	mcrgt	0, 0, r0, cr0, cr7, {0}
    19d4:	2800000f 	stmdacs	r0, {r0, r1, r2, r3}
    19d8:	03055001 	movweq	r5, #20481	; 0x5001
    19dc:	00009784 	andeq	r9, r0, r4, lsl #15
    19e0:	02510128 	subseq	r0, r1, #40, 2
    19e4:	27000075 	smlsdxcs	r0, r5, r0, r0
    19e8:	00008530 	andeq	r8, r0, r0, lsr r5
    19ec:	0000106a 	andeq	r1, r0, sl, rrx
    19f0:	00000fe2 	andeq	r0, r0, r2, ror #31
    19f4:	02500128 	subseq	r0, r0, #40, 2
    19f8:	27000074 	smlsdxcs	r0, r4, r0, r0
    19fc:	00008554 	andeq	r8, r0, r4, asr r5
    1a00:	0000166d 	andeq	r1, r0, sp, ror #12
    1a04:	00000ff6 	strdeq	r0, [r0], -r6
    1a08:	02500128 	subseq	r0, r0, #40, 2
    1a0c:	2d000074 	stccs	0, cr0, [r0, #-464]	; 0xfffffe30
    1a10:	0000855c 	andeq	r8, r0, ip, asr r5
    1a14:	00001111 	andeq	r1, r0, r1, lsl r1
    1a18:	00856427 	addeq	r6, r5, r7, lsr #8
    1a1c:	00158f00 	andseq	r8, r5, r0, lsl #30
    1a20:	00101300 	andseq	r1, r0, r0, lsl #6
    1a24:	50012800 	andpl	r2, r1, r0, lsl #16
    1a28:	00007402 	andeq	r7, r0, r2, lsl #8
    1a2c:	0085702d 	addeq	r7, r5, sp, lsr #32
    1a30:	0017a000 	andseq	sl, r7, r0
    1a34:	85842700 	strhi	r2, [r4, #1792]	; 0x700
    1a38:	17950000 	ldrne	r0, [r5, r0]
    1a3c:	104b0000 	subne	r0, fp, r0
    1a40:	01280000 			; <UNDEFINED> instruction: 0x01280000
    1a44:	50030550 	andpl	r0, r3, r0, asr r5
    1a48:	28000097 	stmdacs	r0, {r0, r1, r2, r4, r7}
    1a4c:	03055101 	movweq	r5, #20737	; 0x5101
    1a50:	00009700 	andeq	r9, r0, r0, lsl #14
    1a54:	05520128 	ldrbeq	r0, [r2, #-296]	; 0xfffffed8
    1a58:	00965803 	addseq	r5, r6, r3, lsl #16
    1a5c:	53012800 	movwpl	r2, #6144	; 0x1800
    1a60:	00750802 	rsbseq	r0, r5, r2, lsl #16
    1a64:	0085882d 	addeq	r8, r5, sp, lsr #16
    1a68:	0017ab00 	andseq	sl, r7, r0, lsl #22
    1a6c:	2a080000 	bcs	201a74 <__bss_end__+0x1f7adc>
    1a70:	65000001 	strvs	r0, [r0, #-1]
    1a74:	09000010 	stmdbeq	r0, {r4}
    1a78:	000000dd 	ldrdeq	r0, [r0], -sp
    1a7c:	550e0006 	strpl	r0, [lr, #-6]
    1a80:	2f000010 	svccs	0x00000010
    1a84:	00000660 	andeq	r0, r0, r0, ror #12
    1a88:	00255901 	eoreq	r5, r5, r1, lsl #18
    1a8c:	84100000 	ldrhi	r0, [r0], #-0
    1a90:	00640000 	rsbeq	r0, r4, r0
    1a94:	9c010000 	stcls	0, cr0, [r1], {-0}
    1a98:	00001111 	andeq	r1, r0, r1, lsl r1
    1a9c:	01006830 	tsteq	r0, r0, lsr r8
    1aa0:	000bd359 	andeq	sp, fp, r9, asr r3
    1aa4:	00031700 	andeq	r1, r3, r0, lsl #14
    1aa8:	841c2700 	ldrhi	r2, [ip], #-1792	; 0xfffff900
    1aac:	14620000 	strbtne	r0, [r2], #-0
    1ab0:	10a40000 	adcne	r0, r4, r0
    1ab4:	01280000 			; <UNDEFINED> instruction: 0x01280000
    1ab8:	00740250 	rsbseq	r0, r4, r0, asr r2
    1abc:	842c2700 	strthi	r2, [ip], #-1792	; 0xfffff900
    1ac0:	16a50000 	strtne	r0, [r5], r0
    1ac4:	10b80000 	adcsne	r0, r8, r0
    1ac8:	01280000 			; <UNDEFINED> instruction: 0x01280000
    1acc:	00740250 	rsbseq	r0, r4, r0, asr r2
    1ad0:	84382700 	ldrthi	r2, [r8], #-1792	; 0xfffff900
    1ad4:	12fc0000 	rscsne	r0, ip, #0
    1ad8:	10d20000 	sbcsne	r0, r2, r0
    1adc:	01280000 			; <UNDEFINED> instruction: 0x01280000
    1ae0:	80080251 	andhi	r0, r8, r1, asr r2
    1ae4:	02520128 	subseq	r0, r2, #40, 2
    1ae8:	27000074 	smlsdxcs	r0, r4, r0, r0
    1aec:	00008448 	andeq	r8, r0, r8, asr #8
    1af0:	00001636 	andeq	r1, r0, r6, lsr r6
    1af4:	000010e6 	andeq	r1, r0, r6, ror #1
    1af8:	02500128 	subseq	r0, r0, #40, 2
    1afc:	27000074 	smlsdxcs	r0, r4, r0, r0
    1b00:	00008454 	andeq	r8, r0, r4, asr r4
    1b04:	0000160f 	andeq	r1, r0, pc, lsl #12
    1b08:	000010fa 	strdeq	r1, [r0], -sl
    1b0c:	02500128 	subseq	r0, r0, #40, 2
    1b10:	29000074 	stmdbcs	r0, {r2, r4, r5, r6}
    1b14:	00008464 	andeq	r8, r0, r4, ror #8
    1b18:	000012fc 	strdeq	r1, [r0], -ip
    1b1c:	02500128 	subseq	r0, r0, #40, 2
    1b20:	01280075 			; <UNDEFINED> instruction: 0x01280075
    1b24:	00740252 	rsbseq	r0, r4, r2, asr r2
    1b28:	a2310000 	eorsge	r0, r1, #0
    1b2c:	01000005 	tsteq	r0, r5
    1b30:	0081dc4f 	addeq	sp, r1, pc, asr #24
    1b34:	00001400 	andeq	r1, r0, r0, lsl #8
    1b38:	619c0100 	orrsvs	r0, ip, r0, lsl #2
    1b3c:	30000011 	andcc	r0, r0, r1, lsl r0
    1b40:	4f010070 	svcmi	0x00010070
    1b44:	0000011b 	andeq	r0, r0, fp, lsl r1
    1b48:	00000335 	andeq	r0, r0, r5, lsr r3
    1b4c:	0006722a 	andeq	r7, r6, sl, lsr #4
    1b50:	2c4f0100 	stfcse	f0, [pc], {-0}
    1b54:	56000000 	strpl	r0, [r0], -r0
    1b58:	29000003 	stmdbcs	r0, {r0, r1}
    1b5c:	000081ec 	andeq	r8, r0, ip, ror #3
    1b60:	000017b6 			; <UNDEFINED> instruction: 0x000017b6
    1b64:	03500128 	cmpeq	r0, #40, 2
    1b68:	285001f3 	ldmdacs	r0, {r0, r1, r4, r5, r6, r7, r8}^
    1b6c:	08025101 	stmdaeq	r2, {r0, r8, ip, lr}
    1b70:	520128fe 	andpl	r2, r1, #16646144	; 0xfe0000
    1b74:	5101f303 	tstpl	r1, r3, lsl #6	; <UNPREDICTABLE>
    1b78:	022f0000 	eoreq	r0, pc, #0
    1b7c:	01000006 	tsteq	r0, r6
    1b80:	00002541 	andeq	r2, r0, r1, asr #10
    1b84:	0080d000 	addeq	sp, r0, r0
    1b88:	00010c00 	andeq	r0, r1, r0, lsl #24
    1b8c:	fc9c0100 	ldc2	1, cr0, [ip], {0}
    1b90:	30000012 	andcc	r0, r0, r2, lsl r0
    1b94:	41010070 	tstmi	r1, r0, ror r0
    1b98:	0000011d 	andeq	r0, r0, sp, lsl r1
    1b9c:	00000382 	andeq	r0, r0, r2, lsl #7
    1ba0:	0006722a 	andeq	r7, r6, sl, lsr #4
    1ba4:	2c410100 	stfcse	f0, [r1], {-0}
    1ba8:	b9000000 	stmdblt	r0, {}	; <UNPREDICTABLE>
    1bac:	30000003 	andcc	r0, r0, r3
    1bb0:	41010068 	tstmi	r1, r8, rrx
    1bb4:	00000bd3 	ldrdeq	r0, [r0], -r3
    1bb8:	000003e5 	andeq	r0, r0, r5, ror #7
    1bbc:	0100692b 	tsteq	r0, fp, lsr #18
    1bc0:	00002542 	andeq	r2, r0, r2, asr #10
    1bc4:	00040e00 	andeq	r0, r4, r0, lsl #28
    1bc8:	80f83200 	rscshi	r3, r8, r0, lsl #4
    1bcc:	00c00000 	sbceq	r0, r0, r0
    1bd0:	c3250000 			; <UNDEFINED> instruction: 0xc3250000
    1bd4:	01000005 	tsteq	r0, r5
    1bd8:	00002545 	andeq	r2, r0, r5, asr #10
    1bdc:	00043800 	andeq	r3, r4, r0, lsl #16
    1be0:	17703300 	ldrbne	r3, [r0, -r0, lsl #6]!
    1be4:	812c0000 			; <UNDEFINED> instruction: 0x812c0000
    1be8:	00000000 	andeq	r0, r0, r0
    1bec:	46010000 	strmi	r0, [r1], -r0
    1bf0:	00001271 	andeq	r1, r0, r1, ror r2
    1bf4:	00177c34 	andseq	r7, r7, r4, lsr ip
    1bf8:	00044b00 	andeq	r4, r4, r0, lsl #22
    1bfc:	00003500 	andeq	r3, r0, r0, lsl #10
    1c00:	85360000 	ldrhi	r0, [r6, #-0]!
    1c04:	69000017 	stmdbvs	r0, {r0, r1, r2, r4}
    1c08:	27000004 	strcs	r0, [r0, -r4]
    1c0c:	00008134 	andeq	r8, r0, r4, lsr r1
    1c10:	00001795 	muleq	r0, r5, r7
    1c14:	00001206 	andeq	r1, r0, r6, lsl #4
    1c18:	02500128 	subseq	r0, r0, #40, 2
    1c1c:	27000077 	smlsdxcs	r0, r7, r0, r0
    1c20:	00008140 	andeq	r8, r0, r0, asr #2
    1c24:	00001795 	muleq	r0, r5, r7
    1c28:	0000121d 	andeq	r1, r0, sp, lsl r2
    1c2c:	05500128 	ldrbeq	r0, [r0, #-296]	; 0xfffffed8
    1c30:	00969c03 	addseq	r9, r6, r3, lsl #24
    1c34:	54270000 	strtpl	r0, [r7], #-0
    1c38:	95000081 	strls	r0, [r0, #-129]	; 0xffffff7f
    1c3c:	31000017 	tstcc	r0, r7, lsl r0
    1c40:	28000012 	stmdacs	r0, {r1, r4}
    1c44:	77025001 	strvc	r5, [r2, -r1]
    1c48:	68270000 	stmdavs	r7!, {}	; <UNPREDICTABLE>
    1c4c:	95000081 	strls	r0, [r0, #-129]	; 0xffffff7f
    1c50:	48000017 	stmdami	r0, {r0, r1, r2, r4}
    1c54:	28000012 	stmdacs	r0, {r1, r4}
    1c58:	03055001 	movweq	r5, #20481	; 0x5001
    1c5c:	000096a8 	andeq	r9, r0, r8, lsr #13
    1c60:	81a02700 	lslhi	r2, r0, #14
    1c64:	17950000 	ldrne	r0, [r5, r0]
    1c68:	125c0000 	subsne	r0, ip, #0
    1c6c:	01280000 			; <UNDEFINED> instruction: 0x01280000
    1c70:	00770250 	rsbseq	r0, r7, r0, asr r2
    1c74:	81b42900 			; <UNDEFINED> instruction: 0x81b42900
    1c78:	17950000 	ldrne	r0, [r5, r0]
    1c7c:	01280000 			; <UNDEFINED> instruction: 0x01280000
    1c80:	c8030550 	stmdagt	r3, {r4, r6, r8, sl}
    1c84:	00000096 	muleq	r0, r6, r0
    1c88:	00270000 	eoreq	r0, r7, r0
    1c8c:	6d000081 	stcvs	0, cr0, [r0, #-516]	; 0xfffffdfc
    1c90:	85000016 	strhi	r0, [r0, #-22]	; 0xffffffea
    1c94:	28000012 	stmdacs	r0, {r1, r4}
    1c98:	76025001 	strvc	r5, [r2], -r1
    1c9c:	14270000 	strtne	r0, [r7], #-0
    1ca0:	95000081 	strls	r0, [r0, #-129]	; 0xffffff7f
    1ca4:	99000017 	stmdbls	r0, {r0, r1, r2, r4}
    1ca8:	28000012 	stmdacs	r0, {r1, r4}
    1cac:	77025001 	strvc	r5, [r2, -r1]
    1cb0:	1c270000 	stcne	0, cr0, [r7], #-0
    1cb4:	95000081 	strls	r0, [r0, #-129]	; 0xffffff7f
    1cb8:	b0000017 	andlt	r0, r0, r7, lsl r0
    1cbc:	28000012 	stmdacs	r0, {r1, r4}
    1cc0:	03055001 	movweq	r5, #20481	; 0x5001
    1cc4:	00009670 	andeq	r9, r0, r0, ror r6
    1cc8:	812c2700 			; <UNDEFINED> instruction: 0x812c2700
    1ccc:	17950000 	ldrne	r0, [r5, r0]
    1cd0:	12d30000 	sbcsne	r0, r3, #0
    1cd4:	01280000 			; <UNDEFINED> instruction: 0x01280000
    1cd8:	78030550 	stmdavc	r3, {r4, r6, r8, sl}
    1cdc:	28000096 	stmdacs	r0, {r1, r2, r4, r7}
    1ce0:	75025101 	strvc	r5, [r2, #-257]	; 0xfffffeff
    1ce4:	52012800 	andpl	r2, r1, #0, 16
    1ce8:	00007402 	andeq	r7, r0, r2, lsl #8
    1cec:	00817c27 	addeq	r7, r1, r7, lsr #24
    1cf0:	00179500 	andseq	r9, r7, r0, lsl #10
    1cf4:	0012e700 	andseq	lr, r2, r0, lsl #14
    1cf8:	50012800 	andpl	r2, r1, r0, lsl #16
    1cfc:	00007702 	andeq	r7, r0, r2, lsl #14
    1d00:	00818429 	addeq	r8, r1, r9, lsr #8
    1d04:	00179500 	andseq	r9, r7, r0, lsl #10
    1d08:	50012800 	andpl	r2, r1, r0, lsl #16
    1d0c:	96e40305 	strbtls	r0, [r4], r5, lsl #6
    1d10:	00000000 	andeq	r0, r0, r0
    1d14:	06972f00 	ldreq	r2, [r7], r0, lsl #30
    1d18:	34010000 	strcc	r0, [r1], #-0
    1d1c:	00000025 	andeq	r0, r0, r5, lsr #32
    1d20:	00008308 	andeq	r8, r0, r8, lsl #6
    1d24:	00000108 	andeq	r0, r0, r8, lsl #2
    1d28:	14629c01 	strbtne	r9, [r2], #-3073	; 0xfffff3ff
    1d2c:	70300000 	eorsvc	r0, r0, r0
    1d30:	1d340100 	ldfnes	f0, [r4, #-0]
    1d34:	8b000001 	blhi	1d40 <_start-0x62c0>
    1d38:	2a000004 	bcs	1d50 <_start-0x62b0>
    1d3c:	00000672 	andeq	r0, r0, r2, ror r6
    1d40:	002c3401 	eoreq	r3, ip, r1, lsl #8
    1d44:	04cd0000 	strbeq	r0, [sp], #0
    1d48:	68300000 	ldmdavs	r0!, {}	; <UNPREDICTABLE>
    1d4c:	d3340100 	teqle	r4, #0, 2
    1d50:	0700000b 	streq	r0, [r0, -fp]
    1d54:	2b000005 	blcs	1d70 <_start-0x6290>
    1d58:	35010069 	strcc	r0, [r1, #-105]	; 0xffffff97
    1d5c:	00000025 	andeq	r0, r0, r5, lsr #32
    1d60:	0000053b 	andeq	r0, r0, fp, lsr r5
    1d64:	00003035 	andeq	r3, r0, r5, lsr r0
    1d68:	05c32500 	strbeq	r2, [r3, #1280]	; 0x500
    1d6c:	38010000 	stmdacc	r1, {}	; <UNPREDICTABLE>
    1d70:	00000025 	andeq	r0, r0, r5, lsr #32
    1d74:	00000565 	andeq	r0, r0, r5, ror #10
    1d78:	00177033 	andseq	r7, r7, r3, lsr r0
    1d7c:	00836800 	addeq	r6, r3, r0, lsl #16
    1d80:	00004800 	andeq	r4, r0, r0, lsl #16
    1d84:	08390100 	ldmdaeq	r9!, {r8}
    1d88:	34000014 	strcc	r0, [r0], #-20	; 0xffffffec
    1d8c:	0000177c 	andeq	r1, r0, ip, ror r7
    1d90:	00000583 	andeq	r0, r0, r3, lsl #11
    1d94:	00004835 	andeq	r4, r0, r5, lsr r8
    1d98:	17853600 	strne	r3, [r5, r0, lsl #12]
    1d9c:	05a10000 	streq	r0, [r1, #0]!
    1da0:	70270000 	eorvc	r0, r7, r0
    1da4:	95000083 	strls	r0, [r0, #-131]	; 0xffffff7d
    1da8:	9d000017 	stcls	0, cr0, [r0, #-92]	; 0xffffffa4
    1dac:	28000013 	stmdacs	r0, {r0, r1, r4}
    1db0:	77025001 	strvc	r5, [r2, -r1]
    1db4:	7c270000 	stcvc	0, cr0, [r7], #-0
    1db8:	95000083 	strls	r0, [r0, #-131]	; 0xffffff7d
    1dbc:	b4000017 	strlt	r0, [r0], #-23	; 0xffffffe9
    1dc0:	28000013 	stmdacs	r0, {r0, r1, r4}
    1dc4:	03055001 	movweq	r5, #20481	; 0x5001
    1dc8:	0000969c 	muleq	r0, ip, r6
    1dcc:	83902700 	orrshi	r2, r0, #0, 14
    1dd0:	17950000 	ldrne	r0, [r5, r0]
    1dd4:	13c80000 	bicne	r0, r8, #0
    1dd8:	01280000 			; <UNDEFINED> instruction: 0x01280000
    1ddc:	00770250 	rsbseq	r0, r7, r0, asr r2
    1de0:	83a42700 			; <UNDEFINED> instruction: 0x83a42700
    1de4:	17950000 	ldrne	r0, [r5, r0]
    1de8:	13df0000 	bicsne	r0, pc, #0
    1dec:	01280000 			; <UNDEFINED> instruction: 0x01280000
    1df0:	a8030550 	stmdage	r3, {r4, r6, r8, sl}
    1df4:	00000096 	muleq	r0, r6, r0
    1df8:	0083cc27 	addeq	ip, r3, r7, lsr #24
    1dfc:	00179500 	andseq	r9, r7, r0, lsl #10
    1e00:	0013f300 	andseq	pc, r3, r0, lsl #6
    1e04:	50012800 	andpl	r2, r1, r0, lsl #16
    1e08:	00007702 	andeq	r7, r0, r2, lsl #14
    1e0c:	0083e029 	addeq	lr, r3, r9, lsr #32
    1e10:	00179500 	andseq	r9, r7, r0, lsl #10
    1e14:	50012800 	andpl	r2, r1, r0, lsl #16
    1e18:	96c80305 	strbls	r0, [r8], r5, lsl #6
    1e1c:	00000000 	andeq	r0, r0, r0
    1e20:	83382700 	teqhi	r8, #0, 14
    1e24:	166d0000 	strbtne	r0, [sp], -r0
    1e28:	141c0000 	ldrne	r0, [ip], #-0
    1e2c:	01280000 			; <UNDEFINED> instruction: 0x01280000
    1e30:	00760250 	rsbseq	r0, r6, r0, asr r2
    1e34:	834c2700 	movthi	r2, #50944	; 0xc700
    1e38:	17950000 	ldrne	r0, [r5, r0]
    1e3c:	14300000 	ldrtne	r0, [r0], #-0
    1e40:	01280000 			; <UNDEFINED> instruction: 0x01280000
    1e44:	00770250 	rsbseq	r0, r7, r0, asr r2
    1e48:	83542700 	cmphi	r4, #0, 14
    1e4c:	17950000 	ldrne	r0, [r5, r0]
    1e50:	14470000 	strbne	r0, [r7], #-0
    1e54:	01280000 			; <UNDEFINED> instruction: 0x01280000
    1e58:	70030550 	andvc	r0, r3, r0, asr r5
    1e5c:	00000096 	muleq	r0, r6, r0
    1e60:	00836829 	addeq	r6, r3, r9, lsr #16
    1e64:	00179500 	andseq	r9, r7, r0, lsl #10
    1e68:	50012800 	andpl	r2, r1, r0, lsl #16
    1e6c:	96780305 	ldrbtls	r0, [r8], -r5, lsl #6
    1e70:	01280000 			; <UNDEFINED> instruction: 0x01280000
    1e74:	00740252 	rsbseq	r0, r4, r2, asr r2
    1e78:	2f000000 	svccs	0x00000000
    1e7c:	00000613 	andeq	r0, r0, r3, lsl r6
    1e80:	00252a01 	eoreq	r2, r5, r1, lsl #20
    1e84:	82140000 	andshi	r0, r4, #0
    1e88:	00f40000 	rscseq	r0, r4, r0
    1e8c:	9c010000 	stcls	0, cr0, [r1], {-0}
    1e90:	0000158f 	andeq	r1, r0, pc, lsl #11
    1e94:	01006830 	tsteq	r0, r0, lsr r8
    1e98:	000bd32a 	andeq	sp, fp, sl, lsr #6
    1e9c:	0005d000 	andeq	sp, r5, r0
    1ea0:	17703300 	ldrbne	r3, [r0, -r0, lsl #6]!
    1ea4:	82500000 	subshi	r0, r0, #0
    1ea8:	00180000 	andseq	r0, r8, r0
    1eac:	2d010000 	stccs	0, cr0, [r1, #-0]
    1eb0:	00001531 	andeq	r1, r0, r1, lsr r5
    1eb4:	00177c34 	andseq	r7, r7, r4, lsr ip
    1eb8:	00060400 	andeq	r0, r6, r0, lsl #8
    1ebc:	00183500 	andseq	r3, r8, r0, lsl #10
    1ec0:	85360000 	ldrhi	r0, [r6, #-0]!
    1ec4:	22000017 	andcs	r0, r0, #23
    1ec8:	27000006 	strcs	r0, [r0, -r6]
    1ecc:	00008258 	andeq	r8, r0, r8, asr r2
    1ed0:	00001795 	muleq	r0, r5, r7
    1ed4:	000014c6 	andeq	r1, r0, r6, asr #9
    1ed8:	02500128 	subseq	r0, r0, #40, 2
    1edc:	27000075 	smlsdxcs	r0, r5, r0, r0
    1ee0:	00008264 	andeq	r8, r0, r4, ror #4
    1ee4:	00001795 	muleq	r0, r5, r7
    1ee8:	000014dd 	ldrdeq	r1, [r0], -sp
    1eec:	05500128 	ldrbeq	r0, [r0, #-296]	; 0xfffffed8
    1ef0:	00969c03 	addseq	r9, r6, r3, lsl #24
    1ef4:	78270000 	stmdavc	r7!, {}	; <UNPREDICTABLE>
    1ef8:	95000082 	strls	r0, [r0, #-130]	; 0xffffff7e
    1efc:	f1000017 	cps	#23
    1f00:	28000014 	stmdacs	r0, {r2, r4}
    1f04:	75025001 	strvc	r5, [r2, #-1]
    1f08:	8c270000 	stchi	0, cr0, [r7], #-0
    1f0c:	95000082 	strls	r0, [r0, #-130]	; 0xffffff7e
    1f10:	08000017 	stmdaeq	r0, {r0, r1, r2, r4}
    1f14:	28000015 	stmdacs	r0, {r0, r2, r4}
    1f18:	03055001 	movweq	r5, #20481	; 0x5001
    1f1c:	000096a8 	andeq	r9, r0, r8, lsr #13
    1f20:	82cc2700 	sbchi	r2, ip, #0, 14
    1f24:	17950000 	ldrne	r0, [r5, r0]
    1f28:	151c0000 	ldrne	r0, [ip, #-0]
    1f2c:	01280000 			; <UNDEFINED> instruction: 0x01280000
    1f30:	00750250 	rsbseq	r0, r5, r0, asr r2
    1f34:	82e02900 	rschi	r2, r0, #0, 18
    1f38:	17950000 	ldrne	r0, [r5, r0]
    1f3c:	01280000 			; <UNDEFINED> instruction: 0x01280000
    1f40:	c8030550 	stmdagt	r3, {r4, r6, r8, sl}
    1f44:	00000096 	muleq	r0, r6, r0
    1f48:	38270000 	stmdacc	r7!, {}	; <UNPREDICTABLE>
    1f4c:	95000082 	strls	r0, [r0, #-130]	; 0xffffff7e
    1f50:	45000017 	strmi	r0, [r0, #-23]	; 0xffffffe9
    1f54:	28000015 	stmdacs	r0, {r0, r2, r4}
    1f58:	75025001 	strvc	r5, [r2, #-1]
    1f5c:	40270000 	eormi	r0, r7, r0
    1f60:	95000082 	strls	r0, [r0, #-130]	; 0xffffff7e
    1f64:	5c000017 	stcpl	0, cr0, [r0], {23}
    1f68:	28000015 	stmdacs	r0, {r0, r2, r4}
    1f6c:	03055001 	movweq	r5, #20481	; 0x5001
    1f70:	00009670 	andeq	r9, r0, r0, ror r6
    1f74:	82502700 	subshi	r2, r0, #0, 14
    1f78:	17950000 	ldrne	r0, [r5, r0]
    1f7c:	157e0000 	ldrbne	r0, [lr, #-0]!
    1f80:	01280000 			; <UNDEFINED> instruction: 0x01280000
    1f84:	78030550 	stmdavc	r3, {r4, r6, r8, sl}
    1f88:	28000096 	stmdacs	r0, {r1, r2, r4, r7}
    1f8c:	74025101 	strvc	r5, [r2], #-257	; 0xfffffeff
    1f90:	52012800 	andpl	r2, r1, #0, 16
    1f94:	29003001 	stmdbcs	r0, {r0, ip, sp}
    1f98:	000082a8 	andeq	r8, r0, r8, lsr #5
    1f9c:	0000158f 	andeq	r1, r0, pc, lsl #11
    1fa0:	02500128 	subseq	r0, r0, #40, 2
    1fa4:	00000074 	andeq	r0, r0, r4, ror r0
    1fa8:	0005df2f 	andeq	sp, r5, pc, lsr #30
    1fac:	68210100 	stmdavs	r1!, {r8}
    1fb0:	f0000000 			; <UNDEFINED> instruction: 0xf0000000
    1fb4:	24000081 	strcs	r0, [r0], #-129	; 0xffffff7f
    1fb8:	01000000 	mrseq	r0, (UNDEF: 0)
    1fbc:	0015e69c 	mulseq	r5, ip, r6
    1fc0:	00683000 	rsbeq	r3, r8, r0
    1fc4:	0bd32101 	bleq	ff4ca3d0 <__bss_end__+0xff4c0438>
    1fc8:	06510000 	ldrbeq	r0, [r1], -r0
    1fcc:	6f370000 	svcvs	0x00370000
    1fd0:	0100646c 	tsteq	r0, ip, ror #8
    1fd4:	00002c22 	andeq	r2, r0, r2, lsr #24
    1fd8:	23550100 	cmpcs	r5, #0, 2
    1fdc:	000005e3 	andeq	r0, r0, r3, ror #11
    1fe0:	00682401 	rsbeq	r2, r8, r1, lsl #8
    1fe4:	50010000 	andpl	r0, r1, r0
    1fe8:	00820c29 	addeq	r0, r2, r9, lsr #24
    1fec:	0017c100 	andseq	ip, r7, r0, lsl #2
    1ff0:	50012800 	andpl	r2, r1, r0, lsl #16
    1ff4:	28007402 	stmdacs	r0, {r1, sl, ip, sp, lr}
    1ff8:	08025101 	stmdaeq	r2, {r0, r8, ip, lr}
    1ffc:	2f000038 	svccs	0x00000038
    2000:	000005ab 	andeq	r0, r0, fp, lsr #11
    2004:	0bd31c01 	bleq	ff4c9010 <__bss_end__+0xff4bf078>
    2008:	80c80000 	sbchi	r0, r8, r0
    200c:	00080000 	andeq	r0, r8, r0
    2010:	9c010000 	stcls	0, cr0, [r1], {-0}
    2014:	0000160f 	andeq	r1, r0, pc, lsl #12
    2018:	000b602a 	andeq	r6, fp, sl, lsr #32
    201c:	1b1c0100 	blne	702424 <__bss_end__+0x6f848c>
    2020:	6f000001 	svcvs	0x00000001
    2024:	00000006 	andeq	r0, r0, r6
    2028:	00066c2f 	andeq	r6, r6, pc, lsr #24
    202c:	2c190100 	ldfcss	f0, [r9], {-0}
    2030:	bc000000 	stclt	0, cr0, [r0], {-0}
    2034:	0c000080 	stceq	0, cr0, [r0], {128}	; 0x80
    2038:	01000000 	mrseq	r0, (UNDEF: 0)
    203c:	0016369c 	mulseq	r6, ip, r6
    2040:	00683000 	rsbeq	r3, r8, r0
    2044:	0bd31901 	bleq	ff4c8450 <__bss_end__+0xff4be4b8>
    2048:	06900000 	ldreq	r0, [r0], r0
    204c:	2f000000 	svccs	0x00000000
    2050:	0000061d 	andeq	r0, r0, sp, lsl r6
    2054:	011b1701 	tsteq	fp, r1, lsl #14
    2058:	80a40000 	adchi	r0, r4, r0
    205c:	00180000 	andseq	r0, r8, r0
    2060:	9c010000 	stcls	0, cr0, [r1], {-0}
    2064:	0000166d 	andeq	r1, r0, sp, ror #12
    2068:	01006830 	tsteq	r0, r0, lsr r8
    206c:	000bd317 	andeq	sp, fp, r7, lsl r3
    2070:	0006b100 	andeq	fp, r6, r0, lsl #2
    2074:	80b02900 	adcshi	r2, r0, r0, lsl #18
    2078:	166d0000 	strbtne	r0, [sp], -r0
    207c:	01280000 			; <UNDEFINED> instruction: 0x01280000
    2080:	00740250 	rsbseq	r0, r4, r0, asr r2
    2084:	f62f0000 			; <UNDEFINED> instruction: 0xf62f0000
    2088:	01000005 	tsteq	r0, r5
    208c:	00011b15 	andeq	r1, r1, r5, lsl fp
    2090:	00809400 	addeq	r9, r0, r0, lsl #8
    2094:	00001000 	andeq	r1, r0, r0
    2098:	a59c0100 	ldrge	r0, [ip, #256]	; 0x100
    209c:	30000016 	andcc	r0, r0, r6, lsl r0
    20a0:	15010068 	strne	r0, [r1, #-104]	; 0xffffff98
    20a4:	00000bd3 	ldrdeq	r0, [r0], -r3
    20a8:	000006cf 	andeq	r0, r0, pc, asr #13
    20ac:	00809c29 	addeq	r9, r0, r9, lsr #24
    20b0:	0016a500 	andseq	sl, r6, r0, lsl #10
    20b4:	50012800 	andpl	r2, r1, r0, lsl #16
    20b8:	5001f303 	andpl	pc, r1, r3, lsl #6
    20bc:	372f0000 	strcc	r0, [pc, -r0]!
    20c0:	01000005 	tsteq	r0, r5
    20c4:	00011b13 	andeq	r1, r1, r3, lsl fp
    20c8:	00808c00 	addeq	r8, r0, r0, lsl #24
    20cc:	00000800 	andeq	r0, r0, r0, lsl #16
    20d0:	cc9c0100 	ldfgts	f0, [ip], {0}
    20d4:	30000016 	andcc	r0, r0, r6, lsl r0
    20d8:	13010068 	movwne	r0, #4200	; 0x1068
    20dc:	00000bd3 	ldrdeq	r0, [r0], -r3
    20e0:	000006f0 	strdeq	r0, [r0], -r0	; <UNPREDICTABLE>
    20e4:	01302e00 	teqeq	r0, r0, lsl #28
    20e8:	09010000 	stmdbeq	r1, {}	; <UNPREDICTABLE>
    20ec:	00008474 	andeq	r8, r0, r4, ror r4
    20f0:	00000074 	andeq	r0, r0, r4, ror r0
    20f4:	17709c01 	ldrbne	r9, [r0, -r1, lsl #24]!
    20f8:	592a0000 	stmdbpl	sl!, {}	; <UNPREDICTABLE>
    20fc:	0100000b 	tsteq	r0, fp
    2100:	00011b09 	andeq	r1, r1, r9, lsl #22
    2104:	00071000 	andeq	r1, r7, r0
    2108:	006e3000 	rsbeq	r3, lr, r0
    210c:	002c0901 	eoreq	r0, ip, r1, lsl #18
    2110:	07560000 	ldrbeq	r0, [r6, -r0]
    2114:	fa2c0000 	blx	b0211c <__bss_end__+0xaf8184>
    2118:	14000001 	strne	r0, [r0], #-1
    211c:	0500000f 	streq	r0, [r0, #-15]
    2120:	00965003 	addseq	r5, r6, r3
    2124:	84a02700 	strthi	r2, [r0], #1792	; 0x700
    2128:	17950000 	ldrne	r0, [r5, r0]
    212c:	172f0000 	strne	r0, [pc, -r0]!
    2130:	01280000 			; <UNDEFINED> instruction: 0x01280000
    2134:	34030550 	strcc	r0, [r3], #-1360	; 0xfffffab0
    2138:	28000097 	stmdacs	r0, {r0, r1, r2, r4, r7}
    213c:	08025101 	stmdaeq	r2, {r0, r8, ip, lr}
    2140:	52012838 	andpl	r2, r1, #56, 16	; 0x380000
    2144:	00800802 	addeq	r0, r0, r2, lsl #16
    2148:	0084bc2d 	addeq	fp, r4, sp, lsr #24
    214c:	0017a000 	andseq	sl, r7, r0
    2150:	84d02700 	ldrbhi	r2, [r0], #1792	; 0x700
    2154:	17950000 	ldrne	r0, [r5, r0]
    2158:	17660000 	strbne	r0, [r6, -r0]!
    215c:	01280000 			; <UNDEFINED> instruction: 0x01280000
    2160:	0c030550 	cfstr32eq	mvfx0, [r3], {80}	; 0x50
    2164:	28000097 	stmdacs	r0, {r0, r1, r2, r4, r7}
    2168:	03055101 	movweq	r5, #20737	; 0x5101
    216c:	00009700 	andeq	r9, r0, r0, lsl #14
    2170:	05520128 	ldrbeq	r0, [r2, #-296]	; 0xfffffed8
    2174:	00965003 	addseq	r5, r6, r3
    2178:	53012800 	movwpl	r2, #6144	; 0x1800
    217c:	2d003a01 	vstrcs	s6, [r0, #-4]
    2180:	000084d4 	ldrdeq	r8, [r0], -r4
    2184:	000017ab 	andeq	r1, r0, fp, lsr #15
    2188:	06483800 	strbeq	r3, [r8], -r0, lsl #16
    218c:	55020000 	strpl	r0, [r2, #-0]
    2190:	00178f03 	andseq	r8, r7, r3, lsl #30
    2194:	00683900 	rsbeq	r3, r8, r0, lsl #18
    2198:	0bd35502 	bleq	ff4d75a8 <__bss_end__+0xff4cd610>
    219c:	6c3a0000 	ldcvs	0, cr0, [sl], #-0
    21a0:	8f570200 	svchi	0x00570200
    21a4:	00000017 	andeq	r0, r0, r7, lsl r0
    21a8:	091a040d 	ldmdbeq	sl, {r0, r2, r3, sl}
    21ac:	b53b0000 	ldrlt	r0, [fp, #-0]!
    21b0:	b5000006 	strlt	r0, [r0, #-6]
    21b4:	08000006 	stmdaeq	r0, {r1, r2}
    21b8:	05933b29 	ldreq	r3, [r3, #2857]	; 0xb29
    21bc:	05930000 	ldreq	r0, [r3]
    21c0:	1e080000 	cdpne	0, 0, cr0, cr8, cr0, {0}
    21c4:	0005c83b 	andeq	ip, r5, fp, lsr r8
    21c8:	0005c800 	andeq	ip, r5, r0, lsl #16
    21cc:	3b650800 	blcc	19441d4 <__bss_end__+0x193a23c>
    21d0:	0000045b 	andeq	r0, r0, fp, asr r4
    21d4:	0000045b 	andeq	r0, r0, fp, asr r4
    21d8:	243b1909 	ldrtcs	r1, [fp], #-2313	; 0xfffff6f7
    21dc:	24000005 	strcs	r0, [r0], #-5
    21e0:	0a000005 	beq	21fc <_start-0x5e04>
    21e4:	098e0005 	stmibeq	lr, {r0, r2}
    21e8:	00040000 	andeq	r0, r4, r0
    21ec:	0000051d 	andeq	r0, r0, sp, lsl r5
    21f0:	03a40104 			; <UNDEFINED> instruction: 0x03a40104
    21f4:	d00c0000 	andle	r0, ip, r0
    21f8:	de000006 	cdple	0, 0, cr0, cr0, cr6, {0}
    21fc:	04000006 	streq	r0, [r0], #-6
    2200:	58000089 	stmdapl	r0, {r0, r3, r7}
    2204:	69000000 	stmdbvs	r0, {}	; <UNPREDICTABLE>
    2208:	02000003 	andeq	r0, r0, #3
    220c:	000006bc 			; <UNDEFINED> instruction: 0x000006bc
    2210:	00302802 	eorseq	r2, r0, r2, lsl #16
    2214:	a8030000 	stmdage	r3, {}	; <UNPREDICTABLE>
    2218:	04000006 	streq	r0, [r0], #-6
    221c:	00470007 	subeq	r0, r7, r7
    2220:	cb040000 	blgt	102228 <__bss_end__+0xf8290>
    2224:	47000006 	strmi	r0, [r0, -r6]
    2228:	00000000 	andeq	r0, r0, r0
    222c:	02040500 	andeq	r0, r4, #0, 10
    2230:	000006aa 	andeq	r0, r0, sl, lsr #13
    2234:	00256302 	eoreq	r6, r5, r2, lsl #6
    2238:	04060000 	streq	r0, [r6], #-0
    223c:	746e6905 	strbtvc	r6, [lr], #-2309	; 0xfffff6fb
    2240:	07040700 	streq	r0, [r4, -r0, lsl #14]
    2244:	00000057 	andeq	r0, r0, r7, asr r0
    2248:	c8060107 	stmdagt	r6, {r0, r1, r2, r8}
    224c:	07000002 	streq	r0, [r0, -r2]
    2250:	02e20502 	rsceq	r0, r2, #8388608	; 0x800000
    2254:	04070000 	streq	r0, [r7], #-0
    2258:	0000a005 	andeq	sl, r0, r5
    225c:	05080700 	streq	r0, [r8, #-1792]	; 0xfffff900
    2260:	0000009b 	muleq	r0, fp, r0
    2264:	c6080107 	strgt	r0, [r8], -r7, lsl #2
    2268:	07000002 	streq	r0, [r0, -r2]
    226c:	020e0702 	andeq	r0, lr, #524288	; 0x80000
    2270:	04070000 	streq	r0, [r7], #-0
    2274:	00005207 	andeq	r5, r0, r7, lsl #4
    2278:	07080700 	streq	r0, [r8, -r0, lsl #14]
    227c:	0000004d 	andeq	r0, r0, sp, asr #32
    2280:	0002b402 	andeq	fp, r2, r2, lsl #8
    2284:	54070300 	strpl	r0, [r7], #-768	; 0xfffffd00
    2288:	02000000 	andeq	r0, r0, #0
    228c:	000002a3 	andeq	r0, r0, r3, lsr #5
    2290:	00702c04 	rsbseq	r2, r0, r4, lsl #24
    2294:	8d020000 	stchi	0, cr0, [r2, #-0]
    2298:	04000003 	streq	r0, [r0], #-3
    229c:	00007072 	andeq	r7, r0, r2, ror r0
    22a0:	02510800 	subseq	r0, r1, #0, 16
    22a4:	65050000 	strvs	r0, [r5, #-0]
    22a8:	00005b01 	andeq	r5, r0, r1, lsl #22
    22ac:	04040900 	streq	r0, [r4], #-2304	; 0xfffff700
    22b0:	0000e6a6 	andeq	lr, r0, r6, lsr #13
    22b4:	024b0a00 	subeq	r0, fp, #0, 20
    22b8:	a8040000 	stmdage	r4, {}	; <UNPREDICTABLE>
    22bc:	000000bb 	strheq	r0, [r0], -fp
    22c0:	0001dd0a 	andeq	sp, r1, sl, lsl #26
    22c4:	e6a90400 	strt	r0, [r9], r0, lsl #8
    22c8:	00000000 	andeq	r0, r0, r0
    22cc:	00007e0b 	andeq	r7, r0, fp, lsl #28
    22d0:	0000f600 	andeq	pc, r0, r0, lsl #12
    22d4:	00f60c00 	rscseq	r0, r6, r0, lsl #24
    22d8:	00030000 	andeq	r0, r3, r0
    22dc:	77070407 	strvc	r0, [r7, -r7, lsl #8]
    22e0:	0d000002 	stceq	0, cr0, [r0, #-8]
    22e4:	1ea30408 	cdpne	4, 10, cr0, cr3, cr8, {0}
    22e8:	0e000001 	cdpeq	0, 0, cr0, cr0, cr1, {0}
    22ec:	00000377 	andeq	r0, r0, r7, ror r3
    22f0:	0054a504 	subseq	sl, r4, r4, lsl #10
    22f4:	0e000000 	cdpeq	0, 0, cr0, cr0, cr0, {0}
    22f8:	0000037f 	andeq	r0, r0, pc, ror r3
    22fc:	00c7aa04 	sbceq	sl, r7, r4, lsl #20
    2300:	00040000 	andeq	r0, r4, r0
    2304:	00030a02 	andeq	r0, r3, r2, lsl #20
    2308:	fdab0400 	stc2	4, cr0, [fp]
    230c:	02000000 	andeq	r0, r0, #0
    2310:	0000019a 	muleq	r0, sl, r1
    2314:	009aaf04 	addseq	sl, sl, r4, lsl #30
    2318:	040f0000 	streq	r0, [pc], #-0	; 2320 <_start-0x5ce0>
    231c:	0000013a 	andeq	r0, r0, sl, lsr r1
    2320:	cf080107 	svcgt	0x00080107
    2324:	10000002 	andne	r0, r0, r2
    2328:	0000013a 	andeq	r0, r0, sl, lsr r1
    232c:	00042102 	andeq	r2, r4, r2, lsl #2
    2330:	8c160600 	ldchi	6, cr0, [r6], {-0}
    2334:	03000000 	movweq	r0, #0
    2338:	000001ab 	andeq	r0, r0, fp, lsr #3
    233c:	a42d0618 	strtge	r0, [sp], #-1560	; 0xfffff9e8
    2340:	0e000001 	cdpeq	0, 0, cr0, cr0, cr1, {0}
    2344:	0000032b 	andeq	r0, r0, fp, lsr #6
    2348:	01a42f06 			; <UNDEFINED> instruction: 0x01a42f06
    234c:	11000000 	mrsne	r0, (UNDEF: 0)
    2350:	06006b5f 			; <UNDEFINED> instruction: 0x06006b5f
    2354:	00005430 	andeq	r5, r0, r0, lsr r4
    2358:	620e0400 	andvs	r0, lr, #0, 8
    235c:	06000003 	streq	r0, [r0], -r3
    2360:	00005430 	andeq	r5, r0, r0, lsr r4
    2364:	940e0800 	strls	r0, [lr], #-2048	; 0xfffff800
    2368:	06000001 	streq	r0, [r0], -r1
    236c:	00005430 	andeq	r5, r0, r0, lsr r4
    2370:	6f0e0c00 	svcvs	0x000e0c00
    2374:	06000004 	streq	r0, [r0], -r4
    2378:	00005430 	andeq	r5, r0, r0, lsr r4
    237c:	5f111000 	svcpl	0x00111000
    2380:	31060078 	tstcc	r6, r8, ror r0
    2384:	000001aa 	andeq	r0, r0, sl, lsr #3
    2388:	040f0014 	streq	r0, [pc], #-20	; 2390 <_start-0x5c70>
    238c:	00000151 	andeq	r0, r0, r1, asr r1
    2390:	0001460b 	andeq	r4, r1, fp, lsl #12
    2394:	0001ba00 	andeq	fp, r1, r0, lsl #20
    2398:	00f60c00 	rscseq	r0, r6, r0, lsl #24
    239c:	00000000 	andeq	r0, r0, r0
    23a0:	0001d803 	andeq	sp, r1, r3, lsl #16
    23a4:	35062400 	strcc	r2, [r6, #-1024]	; 0xfffffc00
    23a8:	00000233 	andeq	r0, r0, r3, lsr r2
    23ac:	0000920e 	andeq	r9, r0, lr, lsl #4
    23b0:	54370600 	ldrtpl	r0, [r7], #-1536	; 0xfffffa00
    23b4:	00000000 	andeq	r0, r0, r0
    23b8:	0003950e 	andeq	r9, r3, lr, lsl #10
    23bc:	54380600 	ldrtpl	r0, [r8], #-1536	; 0xfffffa00
    23c0:	04000000 	streq	r0, [r0], #-0
    23c4:	0000b50e 	andeq	fp, r0, lr, lsl #10
    23c8:	54390600 	ldrtpl	r0, [r9], #-1536	; 0xfffffa00
    23cc:	08000000 	stmdaeq	r0, {}	; <UNPREDICTABLE>
    23d0:	0004f70e 	andeq	pc, r4, lr, lsl #14
    23d4:	543a0600 	ldrtpl	r0, [sl], #-1536	; 0xfffffa00
    23d8:	0c000000 	stceq	0, cr0, [r0], {-0}
    23dc:	0002870e 	andeq	r8, r2, lr, lsl #14
    23e0:	543b0600 	ldrtpl	r0, [fp], #-1536	; 0xfffffa00
    23e4:	10000000 	andne	r0, r0, r0
    23e8:	00026d0e 	andeq	r6, r2, lr, lsl #26
    23ec:	543c0600 	ldrtpl	r0, [ip], #-1536	; 0xfffffa00
    23f0:	14000000 	strne	r0, [r0], #-0
    23f4:	0004740e 	andeq	r7, r4, lr, lsl #8
    23f8:	543d0600 	ldrtpl	r0, [sp], #-1536	; 0xfffffa00
    23fc:	18000000 	stmdane	r0, {}	; <UNPREDICTABLE>
    2400:	0002ec0e 	andeq	lr, r2, lr, lsl #24
    2404:	543e0600 	ldrtpl	r0, [lr], #-1536	; 0xfffffa00
    2408:	1c000000 	stcne	0, cr0, [r0], {-0}
    240c:	0004be0e 	andeq	fp, r4, lr, lsl #28
    2410:	543f0600 	ldrtpl	r0, [pc], #-1536	; 2418 <_start-0x5be8>
    2414:	20000000 	andcs	r0, r0, r0
    2418:	00f51200 	rscseq	r1, r5, r0, lsl #4
    241c:	01080000 	mrseq	r0, (UNDEF: 8)
    2420:	02734806 	rsbseq	r4, r3, #393216	; 0x60000
    2424:	870e0000 	strhi	r0, [lr, -r0]
    2428:	06000001 	streq	r0, [r0], -r1
    242c:	00027349 	andeq	r7, r2, r9, asr #6
    2430:	000e0000 	andeq	r0, lr, r0
    2434:	06000000 	streq	r0, [r0], -r0
    2438:	0002734a 	andeq	r7, r2, sl, asr #6
    243c:	13138000 	tstne	r3, #0
    2440:	06000004 	streq	r0, [r0], -r4
    2444:	0001464c 	andeq	r4, r1, ip, asr #12
    2448:	13010000 	movwne	r0, #4096	; 0x1000
    244c:	0000011a 	andeq	r0, r0, sl, lsl r1
    2450:	01464f06 	cmpeq	r6, r6, lsl #30
    2454:	01040000 	mrseq	r0, (UNDEF: 4)
    2458:	00470b00 	subeq	r0, r7, r0, lsl #22
    245c:	02830000 	addeq	r0, r3, #0
    2460:	f60c0000 			; <UNDEFINED> instruction: 0xf60c0000
    2464:	1f000000 	svcne	0x00000000
    2468:	02901200 	addseq	r1, r0, #0, 4
    246c:	01900000 	orrseq	r0, r0, r0
    2470:	02c15b06 	sbceq	r5, r1, #6144	; 0x1800
    2474:	2b0e0000 	blcs	38247c <__bss_end__+0x3784e4>
    2478:	06000003 	streq	r0, [r0], -r3
    247c:	0002c15c 	andeq	ip, r2, ip, asr r1
    2480:	430e0000 	movwmi	r0, #57344	; 0xe000
    2484:	06000003 	streq	r0, [r0], -r3
    2488:	0000545d 	andeq	r5, r0, sp, asr r4
    248c:	8f0e0400 	svchi	0x000e0400
    2490:	06000001 	streq	r0, [r0], -r1
    2494:	0002c75f 	andeq	ip, r2, pc, asr r7
    2498:	f50e0800 			; <UNDEFINED> instruction: 0xf50e0800
    249c:	06000000 	streq	r0, [r0], -r0
    24a0:	00023360 	andeq	r3, r2, r0, ror #6
    24a4:	0f008800 	svceq	0x00008800
    24a8:	00028304 	andeq	r8, r2, r4, lsl #6
    24ac:	02d70b00 	sbcseq	r0, r7, #0, 22
    24b0:	02d70000 	sbcseq	r0, r7, #0
    24b4:	f60c0000 			; <UNDEFINED> instruction: 0xf60c0000
    24b8:	1f000000 	svcne	0x00000000
    24bc:	dd040f00 	stcle	15, cr0, [r4, #-0]
    24c0:	14000002 	strne	r0, [r0], #-2
    24c4:	0002f603 	andeq	pc, r2, r3, lsl #12
    24c8:	73060800 	movwvc	r0, #26624	; 0x6800
    24cc:	00000303 	andeq	r0, r0, r3, lsl #6
    24d0:	0000af0e 	andeq	sl, r0, lr, lsl #30
    24d4:	03740600 	cmneq	r4, #0, 12
    24d8:	00000003 	andeq	r0, r0, r3
    24dc:	00000c0e 	andeq	r0, r0, lr, lsl #24
    24e0:	54750600 	ldrbtpl	r0, [r5], #-1536	; 0xfffffa00
    24e4:	04000000 	streq	r0, [r0], #-0
    24e8:	7e040f00 	cdpvc	15, 0, cr0, cr4, cr0, {0}
    24ec:	03000000 	movweq	r0, #0
    24f0:	00000315 	andeq	r0, r0, r5, lsl r3
    24f4:	33b30668 			; <UNDEFINED> instruction: 0x33b30668
    24f8:	11000004 	tstne	r0, r4
    24fc:	0600705f 			; <UNDEFINED> instruction: 0x0600705f
    2500:	000303b4 			; <UNDEFINED> instruction: 0x000303b4
    2504:	5f110000 	svcpl	0x00110000
    2508:	b5060072 	strlt	r0, [r6, #-114]	; 0xffffff8e
    250c:	00000054 	andeq	r0, r0, r4, asr r0
    2510:	775f1104 	ldrbvc	r1, [pc, -r4, lsl #2]
    2514:	54b60600 	ldrtpl	r0, [r6], #1536	; 0x600
    2518:	08000000 	stmdaeq	r0, {}	; <UNPREDICTABLE>
    251c:	0001130e 	andeq	r1, r1, lr, lsl #6
    2520:	69b70600 	ldmibvs	r7!, {r9, sl}
    2524:	0c000000 	stceq	0, cr0, [r0], {-0}
    2528:	0001f40e 	andeq	pc, r1, lr, lsl #8
    252c:	69b80600 	ldmibvs	r8!, {r9, sl}
    2530:	0e000000 	cdpeq	0, 0, cr0, cr0, cr0, {0}
    2534:	66625f11 	uqadd16vs	r5, r2, r1
    2538:	deb90600 	cdple	6, 11, cr0, cr9, cr0, {0}
    253c:	10000002 	andne	r0, r0, r2
    2540:	00006c0e 	andeq	r6, r0, lr, lsl #24
    2544:	54ba0600 	ldrtpl	r0, [sl], #1536	; 0x600
    2548:	18000000 	stmdane	r0, {}	; <UNPREDICTABLE>
    254c:	0001030e 	andeq	r0, r1, lr, lsl #6
    2550:	47c10600 	strbmi	r0, [r1, r0, lsl #12]
    2554:	1c000000 	stcne	0, cr0, [r0], {-0}
    2558:	000a780e 	andeq	r7, sl, lr, lsl #16
    255c:	8ec30600 	cdphi	6, 12, cr0, cr3, cr0, {0}
    2560:	20000005 	andcs	r0, r0, r5
    2564:	00060c0e 	andeq	r0, r6, lr, lsl #24
    2568:	b8c50600 	stmialt	r5, {r9, sl}^
    256c:	24000005 	strcs	r0, [r0], #-5
    2570:	0003870e 	andeq	r8, r3, lr, lsl #14
    2574:	dcc80600 	stclle	6, cr0, [r8], {0}
    2578:	28000005 	stmdacs	r0, {r0, r2}
    257c:	0004d80e 	andeq	sp, r4, lr, lsl #16
    2580:	f6c90600 			; <UNDEFINED> instruction: 0xf6c90600
    2584:	2c000005 	stccs	0, cr0, [r0], {5}
    2588:	62755f11 	rsbsvs	r5, r5, #17, 30	; 0x44
    258c:	decc0600 	cdple	6, 12, cr0, cr12, cr0, {0}
    2590:	30000002 	andcc	r0, r0, r2
    2594:	70755f11 	rsbsvc	r5, r5, r1, lsl pc
    2598:	03cd0600 	biceq	r0, sp, #0, 12
    259c:	38000003 	stmdacc	r0, {r0, r1}
    25a0:	72755f11 	rsbsvc	r5, r5, #17, 30	; 0x44
    25a4:	54ce0600 	strbpl	r0, [lr], #1536	; 0x600
    25a8:	3c000000 	stccc	0, cr0, [r0], {-0}
    25ac:	0000a90e 	andeq	sl, r0, lr, lsl #18
    25b0:	fcd10600 	ldc2l	6, cr0, [r1], {0}
    25b4:	40000005 	andmi	r0, r0, r5
    25b8:	0004b00e 	andeq	fp, r4, lr
    25bc:	0cd20600 	ldcleq	6, cr0, [r2], {0}
    25c0:	43000006 	movwmi	r0, #6
    25c4:	626c5f11 	rsbvs	r5, ip, #17, 30	; 0x44
    25c8:	ded50600 	cdple	6, 13, cr0, cr5, cr0, {0}
    25cc:	44000002 	strmi	r0, [r0], #-2
    25d0:	0001380e 	andeq	r3, r1, lr, lsl #16
    25d4:	54d80600 	ldrbpl	r0, [r8], #1536	; 0x600
    25d8:	4c000000 	stcmi	0, cr0, [r0], {-0}
    25dc:	0001490e 	andeq	r4, r1, lr, lsl #18
    25e0:	a5d90600 	ldrbge	r0, [r9, #1536]	; 0x600
    25e4:	50000000 	andpl	r0, r0, r0
    25e8:	000a190e 	andeq	r1, sl, lr, lsl #18
    25ec:	51dc0600 	bicspl	r0, ip, r0, lsl #12
    25f0:	54000004 	strpl	r0, [r0], #-4
    25f4:	00025f0e 	andeq	r5, r2, lr, lsl #30
    25f8:	29e00600 	stmibcs	r0!, {r9, sl}^
    25fc:	58000001 	stmdapl	r0, {r0}
    2600:	00031d0e 	andeq	r1, r3, lr, lsl #26
    2604:	1ee20600 	cdpne	6, 14, cr0, cr2, cr0, {0}
    2608:	5c000001 	stcpl	0, cr0, [r0], {1}
    260c:	0002650e 	andeq	r6, r2, lr, lsl #10
    2610:	54e30600 	strbtpl	r0, [r3], #1536	; 0x600
    2614:	64000000 	strvs	r0, [r0], #-0
    2618:	00541500 	subseq	r1, r4, r0, lsl #10
    261c:	04510000 	ldrbeq	r0, [r1], #-0
    2620:	51160000 	tstpl	r6, r0
    2624:	16000004 	strne	r0, [r0], -r4
    2628:	00000047 	andeq	r0, r0, r7, asr #32
    262c:	00013416 	andeq	r3, r1, r6, lsl r4
    2630:	00541600 	subseq	r1, r4, r0, lsl #12
    2634:	0f000000 	svceq	0x00000000
    2638:	00045c04 	andeq	r5, r4, r4, lsl #24
    263c:	04511000 	ldrbeq	r1, [r1], #-0
    2640:	6a170000 	bvs	5c2648 <__bss_end__+0x5b86b0>
    2644:	28000003 	stmdacs	r0, {r0, r1}
    2648:	02380604 	eorseq	r0, r8, #4, 12	; 0x400000
    264c:	0000058e 	andeq	r0, r0, lr, lsl #11
    2650:	0002db18 	andeq	sp, r2, r8, lsl fp
    2654:	023a0600 	eorseq	r0, sl, #0, 12
    2658:	00000054 	andeq	r0, r0, r4, asr r0
    265c:	04841800 	streq	r1, [r4], #2048	; 0x800
    2660:	3f060000 	svccc	0x00060000
    2664:	00066302 	andeq	r6, r6, r2, lsl #6
    2668:	e4180400 	ldr	r0, [r8], #-1024	; 0xfffffc00
    266c:	06000001 	streq	r0, [r0], -r1
    2670:	0663023f 			; <UNDEFINED> instruction: 0x0663023f
    2674:	18080000 	stmdane	r8, {}	; <UNPREDICTABLE>
    2678:	000001a3 	andeq	r0, r0, r3, lsr #3
    267c:	63023f06 	movwvs	r3, #12038	; 0x2f06
    2680:	0c000006 	stceq	0, cr0, [r0], {6}
    2684:	00033e18 	andeq	r3, r3, r8, lsl lr
    2688:	02410600 	subeq	r0, r1, #0, 12
    268c:	00000054 	andeq	r0, r0, r4, asr r0
    2690:	001a1810 	andseq	r1, sl, r0, lsl r8
    2694:	42060000 	andmi	r0, r6, #0
    2698:	00084502 	andeq	r4, r8, r2, lsl #10
    269c:	49181400 	ldmdbmi	r8, {sl, ip}
    26a0:	06000004 	streq	r0, [r0], -r4
    26a4:	00540244 	subseq	r0, r4, r4, asr #4
    26a8:	18300000 	ldmdane	r0!, {}	; <UNPREDICTABLE>
    26ac:	00000348 	andeq	r0, r0, r8, asr #6
    26b0:	b2024506 	andlt	r4, r2, #25165824	; 0x1800000
    26b4:	34000005 	strcc	r0, [r0], #-5
    26b8:	00029818 	andeq	r9, r2, r8, lsl r8
    26bc:	02470600 	subeq	r0, r7, #0, 12
    26c0:	00000054 	andeq	r0, r0, r4, asr r0
    26c4:	03581838 	cmpeq	r8, #56, 16	; 0x380000
    26c8:	49060000 	stmdbmi	r6, {}	; <UNPREDICTABLE>
    26cc:	00086002 	andeq	r6, r8, r2
    26d0:	43183c00 	tstmi	r8, #0, 24
    26d4:	06000002 	streq	r0, [r0], -r2
    26d8:	01a4024c 			; <UNDEFINED> instruction: 0x01a4024c
    26dc:	18400000 	stmdane	r0, {}^	; <UNPREDICTABLE>
    26e0:	000001c2 	andeq	r0, r0, r2, asr #3
    26e4:	54024d06 	strpl	r4, [r2], #-3334	; 0xfffff2fa
    26e8:	44000000 	strmi	r0, [r0], #-0
    26ec:	0004f218 	andeq	pc, r4, r8, lsl r2	; <UNPREDICTABLE>
    26f0:	024e0600 	subeq	r0, lr, #0, 12
    26f4:	000001a4 	andeq	r0, r0, r4, lsr #3
    26f8:	02aa1848 	adceq	r1, sl, #72, 16	; 0x480000
    26fc:	4f060000 	svcmi	0x00060000
    2700:	00086602 	andeq	r6, r8, r2, lsl #12
    2704:	ec184c00 	ldc	12, cr4, [r8], {-0}
    2708:	06000001 	streq	r0, [r0], -r1
    270c:	00540252 	subseq	r0, r4, r2, asr r2
    2710:	18500000 	ldmdane	r0, {}^	; <UNPREDICTABLE>
    2714:	00000141 	andeq	r0, r0, r1, asr #2
    2718:	34025306 	strcc	r5, [r2], #-774	; 0xfffffcfa
    271c:	54000001 	strpl	r0, [r0], #-1
    2720:	0002d418 	andeq	sp, r2, r8, lsl r4
    2724:	02760600 	rsbseq	r0, r6, #0, 12
    2728:	00000823 	andeq	r0, r0, r3, lsr #16
    272c:	02901958 	addseq	r1, r0, #88, 18	; 0x160000
    2730:	7a060000 	bvc	182738 <__bss_end__+0x1787a0>
    2734:	0002c102 	andeq	ip, r2, r2, lsl #2
    2738:	19014800 	stmdbne	r1, {fp, lr}
    273c:	00000221 	andeq	r0, r0, r1, lsr #4
    2740:	83027b06 	movwhi	r7, #11014	; 0x2b06
    2744:	4c000002 	stcmi	0, cr0, [r0], {2}
    2748:	049e1901 	ldreq	r1, [lr], #2305	; 0x901
    274c:	7f060000 	svcvc	0x00060000
    2750:	00087702 	andeq	r7, r8, r2, lsl #14
    2754:	1902dc00 	stmdbne	r2, {sl, fp, ip, lr, pc}
    2758:	0000010b 	andeq	r0, r0, fp, lsl #2
    275c:	28028406 	stmdacs	r2, {r1, r2, sl, pc}
    2760:	e0000006 	and	r0, r0, r6
    2764:	00f01902 	rscseq	r1, r0, r2, lsl #18
    2768:	85060000 	strhi	r0, [r6, #-0]
    276c:	00088302 	andeq	r8, r8, r2, lsl #6
    2770:	0002ec00 	andeq	lr, r2, r0, lsl #24
    2774:	0433040f 	ldrteq	r0, [r3], #-1039	; 0xfffffbf1
    2778:	54150000 	ldrpl	r0, [r5], #-0
    277c:	b2000000 	andlt	r0, r0, #0
    2780:	16000005 	strne	r0, [r0], -r5
    2784:	00000451 	andeq	r0, r0, r1, asr r4
    2788:	00004716 	andeq	r4, r0, r6, lsl r7
    278c:	05b21600 	ldreq	r1, [r2, #1536]!	; 0x600
    2790:	54160000 	ldrpl	r0, [r6], #-0
    2794:	00000000 	andeq	r0, r0, r0
    2798:	0141040f 	cmpeq	r1, pc, lsl #8
    279c:	040f0000 	streq	r0, [pc], #-0	; 27a4 <_start-0x585c>
    27a0:	00000594 	muleq	r0, r4, r5
    27a4:	0000b015 	andeq	fp, r0, r5, lsl r0
    27a8:	0005dc00 	andeq	sp, r5, r0, lsl #24
    27ac:	04511600 	ldrbeq	r1, [r1], #-1536	; 0xfffffa00
    27b0:	47160000 	ldrmi	r0, [r6, -r0]
    27b4:	16000000 	strne	r0, [r0], -r0
    27b8:	000000b0 	strheq	r0, [r0], -r0	; <UNPREDICTABLE>
    27bc:	00005416 	andeq	r5, r0, r6, lsl r4
    27c0:	040f0000 	streq	r0, [pc], #-0	; 27c8 <_start-0x5838>
    27c4:	000005be 			; <UNDEFINED> instruction: 0x000005be
    27c8:	00005415 	andeq	r5, r0, r5, lsl r4
    27cc:	0005f600 	andeq	pc, r5, r0, lsl #12
    27d0:	04511600 	ldrbeq	r1, [r1], #-1536	; 0xfffffa00
    27d4:	47160000 	ldrmi	r0, [r6, -r0]
    27d8:	00000000 	andeq	r0, r0, r0
    27dc:	05e2040f 	strbeq	r0, [r2, #1039]!	; 0x40f
    27e0:	7e0b0000 	cdpvc	0, 0, cr0, cr11, cr0, {0}
    27e4:	0c000000 	stceq	0, cr0, [r0], {-0}
    27e8:	0c000006 	stceq	0, cr0, [r0], {6}
    27ec:	000000f6 	strdeq	r0, [r0], -r6
    27f0:	7e0b0002 	cdpvc	0, 0, cr0, cr11, cr2, {0}
    27f4:	1c000000 	stcne	0, cr0, [r0], {-0}
    27f8:	0c000006 	stceq	0, cr0, [r0], {6}
    27fc:	000000f6 	strdeq	r0, [r0], -r6
    2800:	03080000 	movweq	r0, #32768	; 0x8000
    2804:	06000003 	streq	r0, [r0], -r3
    2808:	0309011d 	movweq	r0, #37149	; 0x911d
    280c:	7e1a0000 	cdpvc	0, 1, cr0, cr10, cr0, {0}
    2810:	0c000004 	stceq	0, cr0, [r0], {4}
    2814:	5d012106 	stfpls	f2, [r1, #-24]	; 0xffffffe8
    2818:	18000006 	stmdane	r0, {r1, r2}
    281c:	0000032b 	andeq	r0, r0, fp, lsr #6
    2820:	5d012306 	stcpl	3, cr2, [r1, #-24]	; 0xffffffe8
    2824:	00000006 	andeq	r0, r0, r6
    2828:	00020718 	andeq	r0, r2, r8, lsl r7
    282c:	01240600 			; <UNDEFINED> instruction: 0x01240600
    2830:	00000054 	andeq	r0, r0, r4, asr r0
    2834:	02fd1804 	rscseq	r1, sp, #4, 16	; 0x40000
    2838:	25060000 	strcs	r0, [r6, #-0]
    283c:	00066301 	andeq	r6, r6, r1, lsl #6
    2840:	0f000800 	svceq	0x00000800
    2844:	00062804 	andeq	r2, r6, r4, lsl #16
    2848:	1c040f00 	stcne	15, cr0, [r4], {-0}
    284c:	1a000006 	bne	286c <_start-0x5794>
    2850:	00000012 	andeq	r0, r0, r2, lsl r0
    2854:	013d060e 	teqeq	sp, lr, lsl #12
    2858:	0000069e 	muleq	r0, lr, r6
    285c:	00037118 	andeq	r7, r3, r8, lsl r1
    2860:	013e0600 	teqeq	lr, r0, lsl #12
    2864:	0000069e 	muleq	r0, lr, r6
    2868:	039e1800 	orrseq	r1, lr, #0, 16
    286c:	3f060000 	svccc	0x00060000
    2870:	00069e01 	andeq	r9, r6, r1, lsl #28
    2874:	1c180600 	ldcne	6, cr0, [r8], {-0}
    2878:	06000004 	streq	r0, [r0], -r4
    287c:	00850140 	addeq	r0, r5, r0, asr #2
    2880:	000c0000 	andeq	r0, ip, r0
    2884:	0000850b 	andeq	r8, r0, fp, lsl #10
    2888:	0006ae00 	andeq	sl, r6, r0, lsl #28
    288c:	00f60c00 	rscseq	r0, r6, r0, lsl #24
    2890:	00020000 	andeq	r0, r2, r0
    2894:	5706d01b 	smladpl	r6, fp, r0, sp
    2898:	0007af02 	andeq	sl, r7, r2, lsl #30
    289c:	04621800 	strbteq	r1, [r2], #-2048	; 0xfffff800
    28a0:	59060000 	stmdbpl	r6, {}	; <UNPREDICTABLE>
    28a4:	00005b02 	andeq	r5, r0, r2, lsl #22
    28a8:	06180000 	ldreq	r0, [r8], -r0
    28ac:	06000004 	streq	r0, [r0], -r4
    28b0:	0134025a 	teqeq	r4, sl, asr r2
    28b4:	18040000 	stmdane	r4, {}	; <UNPREDICTABLE>
    28b8:	00000236 	andeq	r0, r0, r6, lsr r2
    28bc:	af025b06 	svcge	0x00025b06
    28c0:	08000007 	stmdaeq	r0, {r0, r1, r2}
    28c4:	0004c918 	andeq	ip, r4, r8, lsl r9
    28c8:	025c0600 	subseq	r0, ip, #0, 12
    28cc:	000001ba 			; <UNDEFINED> instruction: 0x000001ba
    28d0:	01b31824 			; <UNDEFINED> instruction: 0x01b31824
    28d4:	5d060000 	stcpl	0, cr0, [r6, #-0]
    28d8:	00005402 	andeq	r5, r0, r2, lsl #8
    28dc:	26184800 	ldrcs	r4, [r8], -r0, lsl #16
    28e0:	06000003 	streq	r0, [r0], -r3
    28e4:	0093025e 	addseq	r0, r3, lr, asr r2
    28e8:	18500000 	ldmdane	r0, {}^	; <UNPREDICTABLE>
    28ec:	000004df 	ldrdeq	r0, [r0], -pc	; <UNPREDICTABLE>
    28f0:	69025f06 	stmdbvs	r2, {r1, r2, r8, r9, sl, fp, ip, lr}
    28f4:	58000006 	stmdapl	r0, {r1, r2}
    28f8:	00033118 	andeq	r3, r3, r8, lsl r1
    28fc:	02600600 	rsbeq	r0, r0, #0, 12
    2900:	0000011e 	andeq	r0, r0, lr, lsl r1
    2904:	04e41868 	strbteq	r1, [r4], #2152	; 0x868
    2908:	61060000 	mrsvs	r0, (UNDEF: 6)
    290c:	00011e02 	andeq	r1, r1, r2, lsl #28
    2910:	84187000 	ldrhi	r7, [r8], #-0
    2914:	06000000 	streq	r0, [r0], -r0
    2918:	011e0262 	tsteq	lr, r2, ror #4
    291c:	18780000 	ldmdane	r8!, {}^	; <UNPREDICTABLE>
    2920:	00000494 	muleq	r0, r4, r4
    2924:	bf026306 	svclt	0x00026306
    2928:	80000007 	andhi	r0, r0, r7
    292c:	00022a18 	andeq	r2, r2, r8, lsl sl
    2930:	02640600 	rsbeq	r0, r4, #0, 12
    2934:	000007cf 	andeq	r0, r0, pc, asr #15
    2938:	04291888 	strteq	r1, [r9], #-2184	; 0xfffff778
    293c:	65060000 	strvs	r0, [r6, #-0]
    2940:	00005402 	andeq	r5, r0, r2, lsl #8
    2944:	7918a000 	ldmdbvc	r8, {sp, pc}
    2948:	06000001 	streq	r0, [r0], -r1
    294c:	011e0266 	tsteq	lr, r6, ror #4
    2950:	18a40000 	stmiane	r4!, {}	; <UNPREDICTABLE>
    2954:	00000075 	andeq	r0, r0, r5, ror r0
    2958:	1e026706 	cdpne	7, 0, cr6, cr2, cr6, {0}
    295c:	ac000001 	stcge	0, cr0, [r0], {1}
    2960:	00016818 	andeq	r6, r1, r8, lsl r8
    2964:	02680600 	rsbeq	r0, r8, #0, 12
    2968:	0000011e 	andeq	r0, r0, lr, lsl r1
    296c:	002d18b4 	strhteq	r1, [sp], -r4
    2970:	69060000 	stmdbvs	r6, {}	; <UNPREDICTABLE>
    2974:	00011e02 	andeq	r1, r1, r2, lsl #28
    2978:	3c18bc00 	ldccc	12, cr11, [r8], {-0}
    297c:	06000000 	streq	r0, [r0], -r0
    2980:	011e026a 	tsteq	lr, sl, ror #4
    2984:	18c40000 	stmiane	r4, {}^	; <UNPREDICTABLE>
    2988:	000002d9 	ldrdeq	r0, [r0], -r9
    298c:	54026b06 	strpl	r6, [r2], #-2822	; 0xfffff4fa
    2990:	cc000000 	stcgt	0, cr0, [r0], {-0}
    2994:	013a0b00 	teqeq	sl, r0, lsl #22
    2998:	07bf0000 	ldreq	r0, [pc, r0]!
    299c:	f60c0000 			; <UNDEFINED> instruction: 0xf60c0000
    29a0:	19000000 	stmdbne	r0, {}	; <UNPREDICTABLE>
    29a4:	013a0b00 	teqeq	sl, r0, lsl #22
    29a8:	07cf0000 	strbeq	r0, [pc, r0]
    29ac:	f60c0000 			; <UNDEFINED> instruction: 0xf60c0000
    29b0:	07000000 	streq	r0, [r0, -r0]
    29b4:	013a0b00 	teqeq	sl, r0, lsl #22
    29b8:	07df0000 	ldrbeq	r0, [pc, r0]
    29bc:	f60c0000 			; <UNDEFINED> instruction: 0xf60c0000
    29c0:	17000000 	strne	r0, [r0, -r0]
    29c4:	06f01b00 	ldrbteq	r1, [r0], r0, lsl #22
    29c8:	08030270 	stmdaeq	r3, {r4, r5, r6, r9}
    29cc:	80180000 	andshi	r0, r8, r0
    29d0:	06000002 	streq	r0, [r0], -r2
    29d4:	08030273 	stmdaeq	r3, {r0, r1, r4, r5, r6, r9}
    29d8:	18000000 	stmdane	r0, {}	; <UNPREDICTABLE>
    29dc:	0000048b 	andeq	r0, r0, fp, lsl #9
    29e0:	13027406 	movwne	r7, #9222	; 0x2406
    29e4:	78000008 	stmdavc	r0, {r3}
    29e8:	03030b00 	movweq	r0, #15104	; 0x3b00
    29ec:	08130000 	ldmdaeq	r3, {}	; <UNPREDICTABLE>
    29f0:	f60c0000 			; <UNDEFINED> instruction: 0xf60c0000
    29f4:	1d000000 	stcne	0, cr0, [r0, #-0]
    29f8:	005b0b00 	subseq	r0, fp, r0, lsl #22
    29fc:	08230000 	stmdaeq	r3!, {}	; <UNPREDICTABLE>
    2a00:	f60c0000 			; <UNDEFINED> instruction: 0xf60c0000
    2a04:	1d000000 	stcne	0, cr0, [r0, #-0]
    2a08:	06f01c00 	ldrbteq	r1, [r0], r0, lsl #24
    2a0c:	08450255 	stmdaeq	r5, {r0, r2, r4, r6, r9}^
    2a10:	6a1d0000 	bvs	742a18 <__bss_end__+0x738a80>
    2a14:	06000003 	streq	r0, [r0], -r3
    2a18:	06ae026c 	strteq	r0, [lr], ip, ror #4
    2a1c:	b61d0000 	ldrlt	r0, [sp], -r0
    2a20:	06000004 	streq	r0, [r0], -r4
    2a24:	07df0275 			; <UNDEFINED> instruction: 0x07df0275
    2a28:	0b000000 	bleq	2a30 <_start-0x55d0>
    2a2c:	0000013a 	andeq	r0, r0, sl, lsr r1
    2a30:	00000855 	andeq	r0, r0, r5, asr r8
    2a34:	0000f60c 	andeq	pc, r0, ip, lsl #12
    2a38:	1e001800 	cdpne	8, 0, cr1, cr0, cr0, {0}
    2a3c:	00000860 	andeq	r0, r0, r0, ror #16
    2a40:	00045116 	andeq	r5, r4, r6, lsl r1
    2a44:	040f0000 	streq	r0, [pc], #-0	; 2a4c <_start-0x55b4>
    2a48:	00000855 	andeq	r0, r0, r5, asr r8
    2a4c:	01a4040f 			; <UNDEFINED> instruction: 0x01a4040f
    2a50:	771e0000 	ldrvc	r0, [lr, -r0]
    2a54:	16000008 	strne	r0, [r0], -r8
    2a58:	00000054 	andeq	r0, r0, r4, asr r0
    2a5c:	7d040f00 	stcvc	15, cr0, [r4, #-0]
    2a60:	0f000008 	svceq	0x00000008
    2a64:	00086c04 	andeq	r6, r8, r4, lsl #24
    2a68:	061c0b00 	ldreq	r0, [ip], -r0, lsl #22
    2a6c:	08930000 	ldmeq	r3, {}	; <UNPREDICTABLE>
    2a70:	f60c0000 			; <UNDEFINED> instruction: 0xf60c0000
    2a74:	02000000 	andeq	r0, r0, #0
    2a78:	043d1f00 	ldrteq	r1, [sp], #-3840	; 0xfffff100
    2a7c:	fd060000 	stc2	0, cr0, [r6, #-0]
    2a80:	00045102 	andeq	r5, r4, r2, lsl #2
    2a84:	04361f00 	ldrteq	r1, [r6], #-3840	; 0xfffff100
    2a88:	fe060000 	cdp2	0, 0, cr0, cr6, cr0, {0}
    2a8c:	00045702 	andeq	r5, r4, r2, lsl #14
    2a90:	00541500 	subseq	r1, r4, r0, lsl #10
    2a94:	08ba0000 	ldmeq	sl!, {}	; <UNPREDICTABLE>
    2a98:	54160000 	ldrpl	r0, [r6], #-0
    2a9c:	00000000 	andeq	r0, r0, r0
    2aa0:	0001cc20 	andeq	ip, r1, r0, lsr #24
    2aa4:	c51d0800 	ldrgt	r0, [sp, #-2048]	; 0xfffff800
    2aa8:	0f000008 	svceq	0x00000008
    2aac:	0008ab04 	andeq	sl, r8, r4, lsl #22
    2ab0:	00541500 	subseq	r1, r4, r0, lsl #10
    2ab4:	08da0000 	ldmeq	sl, {}^	; <UNPREDICTABLE>
    2ab8:	b2160000 	andslt	r0, r6, #0
    2abc:	00000005 	andeq	r0, r0, r5
    2ac0:	00076920 	andeq	r6, r7, r0, lsr #18
    2ac4:	e5220800 	str	r0, [r2, #-2048]!	; 0xfffff800
    2ac8:	0f000008 	svceq	0x00000008
    2acc:	0008cb04 	andeq	ip, r8, r4, lsl #22
    2ad0:	06b52100 	ldrteq	r2, [r5], r0, lsl #2
    2ad4:	06010000 	streq	r0, [r1], -r0
    2ad8:	00000054 	andeq	r0, r0, r4, asr r0
    2adc:	00008904 	andeq	r8, r0, r4, lsl #18
    2ae0:	00000058 	andeq	r0, r0, r8, asr r0
    2ae4:	09759c01 	ldmdbeq	r5!, {r0, sl, fp, ip, pc}^
    2ae8:	66220000 	strtvs	r0, [r2], -r0
    2aec:	0100746d 	tsteq	r0, sp, ror #8
    2af0:	0005b206 	andeq	fp, r5, r6, lsl #4
    2af4:	70910200 	addsvc	r0, r1, r0, lsl #4
    2af8:	75622423 	strbvc	r2, [r2, #-1059]!	; 0xfffffbdd
    2afc:	08010066 	stmdaeq	r1, {r1, r2, r5, r6}
    2b00:	00000975 	andeq	r0, r0, r5, ror r9
    2b04:	9b980305 	blls	fe603720 <__bss_end__+0xfe5f9788>
    2b08:	fe250000 	cdp2	0, 2, cr0, cr5, cr0, {0}
    2b0c:	01000000 	mrseq	r0, (UNDEF: 0)
    2b10:	00004909 	andeq	r4, r0, r9, lsl #18
    2b14:	5c910200 	lfmpl	f0, 4, [r1], {0}
    2b18:	007a7326 	rsbseq	r7, sl, r6, lsr #6
    2b1c:	00540c01 	subseq	r0, r4, r1, lsl #24
    2b20:	078d0000 	streq	r0, [sp, r0]
    2b24:	2c270000 	stccs	0, cr0, [r7], #-0
    2b28:	86000089 	strhi	r0, [r0], -r9, lsl #1
    2b2c:	68000009 	stmdavs	r0, {r0, r3}
    2b30:	28000009 	stmdacs	r0, {r0, r3}
    2b34:	74025001 	strvc	r5, [r2], #-1
    2b38:	51012800 	tstpl	r1, r0, lsl #16
    2b3c:	04000a03 	streq	r0, [r0], #-2563	; 0xfffff5fd
    2b40:	03520128 	cmpeq	r2, #40, 2
    2b44:	28064891 	stmdacs	r6, {r0, r4, r7, fp, lr}
    2b48:	91025301 	tstls	r2, r1, lsl #6
    2b4c:	4029004c 	eormi	r0, r9, ip, asr #32
    2b50:	28000089 	stmdacs	r0, {r0, r3, r7}
    2b54:	74025001 	strvc	r5, [r2], #-1
    2b58:	0b000000 	bleq	2b60 <_start-0x54a0>
    2b5c:	0000013a 	andeq	r0, r0, sl, lsr r1
    2b60:	00000986 	andeq	r0, r0, r6, lsl #19
    2b64:	0000f62a 	andeq	pc, r0, sl, lsr #12
    2b68:	0003ff00 	andeq	pc, r3, r0, lsl #30
    2b6c:	0006b22b 	andeq	fp, r6, fp, lsr #4
    2b70:	0006b200 	andeq	fp, r6, r0, lsl #4
    2b74:	00020900 	andeq	r0, r2, r0, lsl #18
    2b78:	00000e70 	andeq	r0, r0, r0, ror lr
    2b7c:	07490004 	strbeq	r0, [r9, -r4]
    2b80:	01040000 	mrseq	r0, (UNDEF: 4)
    2b84:	000003a4 	andeq	r0, r0, r4, lsr #7
    2b88:	0006fa0c 	andeq	pc, r6, ip, lsl #20
    2b8c:	0006de00 	andeq	sp, r6, r0, lsl #28
    2b90:	00895c00 	addeq	r5, r9, r0, lsl #24
    2b94:	00054400 	andeq	r4, r5, r0, lsl #8
    2b98:	00046d00 	andeq	r6, r4, r0, lsl #26
    2b9c:	05040200 	streq	r0, [r4, #-512]	; 0xfffffe00
    2ba0:	00746e69 	rsbseq	r6, r4, r9, ror #28
    2ba4:	57070403 	strpl	r0, [r7, -r3, lsl #8]
    2ba8:	03000000 	movweq	r0, #0
    2bac:	02c80601 	sbceq	r0, r8, #1048576	; 0x100000
    2bb0:	02030000 	andeq	r0, r3, #0
    2bb4:	0002e205 	andeq	lr, r2, r5, lsl #4
    2bb8:	05040300 	streq	r0, [r4, #-768]	; 0xfffffd00
    2bbc:	000000a0 	andeq	r0, r0, r0, lsr #1
    2bc0:	9b050803 	blls	144bd4 <__bss_end__+0x13ac3c>
    2bc4:	03000000 	movweq	r0, #0
    2bc8:	02c60801 	sbceq	r0, r6, #65536	; 0x10000
    2bcc:	02030000 	andeq	r0, r3, #0
    2bd0:	00020e07 	andeq	r0, r2, r7, lsl #28
    2bd4:	07040300 	streq	r0, [r4, -r0, lsl #6]
    2bd8:	00000052 	andeq	r0, r0, r2, asr r0
    2bdc:	4d070803 	stcmi	8, cr0, [r7, #-12]
    2be0:	04000000 	streq	r0, [r0], #-0
    2be4:	000002b4 			; <UNDEFINED> instruction: 0x000002b4
    2be8:	00250702 	eoreq	r0, r5, r2, lsl #14
    2bec:	a3040000 	movwge	r0, #16384	; 0x4000
    2bf0:	03000002 	movweq	r0, #2
    2bf4:	0000412c 	andeq	r4, r0, ip, lsr #2
    2bf8:	038d0400 	orreq	r0, sp, #0, 8
    2bfc:	72030000 	andvc	r0, r3, #0
    2c00:	00000041 	andeq	r0, r0, r1, asr #32
    2c04:	00025105 	andeq	r5, r2, r5, lsl #2
    2c08:	01650400 	cmneq	r5, r0, lsl #8
    2c0c:	0000002c 	andeq	r0, r0, ip, lsr #32
    2c10:	a6030406 	strge	r0, [r3], -r6, lsl #8
    2c14:	000000b7 	strheq	r0, [r0], -r7
    2c18:	00024b07 	andeq	r4, r2, r7, lsl #22
    2c1c:	8ca80300 	stchi	3, cr0, [r8]
    2c20:	07000000 	streq	r0, [r0, -r0]
    2c24:	000001dd 	ldrdeq	r0, [r0], -sp
    2c28:	00b7a903 	adcseq	sl, r7, r3, lsl #18
    2c2c:	08000000 	stmdaeq	r0, {}	; <UNPREDICTABLE>
    2c30:	0000004f 	andeq	r0, r0, pc, asr #32
    2c34:	000000c7 	andeq	r0, r0, r7, asr #1
    2c38:	0000c709 	andeq	ip, r0, r9, lsl #14
    2c3c:	03000300 	movweq	r0, #768	; 0x300
    2c40:	02770704 	rsbseq	r0, r7, #4, 14	; 0x100000
    2c44:	080a0000 	stmdaeq	sl, {}	; <UNPREDICTABLE>
    2c48:	00efa303 	rsceq	sl, pc, r3, lsl #6
    2c4c:	770b0000 	strvc	r0, [fp, -r0]
    2c50:	03000003 	movweq	r0, #3
    2c54:	000025a5 	andeq	r2, r0, r5, lsr #11
    2c58:	7f0b0000 	svcvc	0x000b0000
    2c5c:	03000003 	movweq	r0, #3
    2c60:	000098aa 	andeq	r9, r0, sl, lsr #17
    2c64:	04000400 	streq	r0, [r0], #-1024	; 0xfffffc00
    2c68:	0000030a 	andeq	r0, r0, sl, lsl #6
    2c6c:	00ceab03 	sbceq	sl, lr, r3, lsl #22
    2c70:	9a040000 	bls	102c78 <__bss_end__+0xf8ce0>
    2c74:	03000001 	movweq	r0, #1
    2c78:	00006baf 	andeq	r6, r0, pc, lsr #23
    2c7c:	0d040c00 	stceq	12, cr0, [r4, #-0]
    2c80:	00010d04 	andeq	r0, r1, r4, lsl #26
    2c84:	08010300 	stmdaeq	r1, {r8, r9}
    2c88:	000002cf 	andeq	r0, r0, pc, asr #5
    2c8c:	00010d0e 	andeq	r0, r1, lr, lsl #26
    2c90:	04210400 	strteq	r0, [r1], #-1024	; 0xfffffc00
    2c94:	16050000 	strne	r0, [r5], -r0
    2c98:	0000005d 	andeq	r0, r0, sp, asr r0
    2c9c:	0001ab0f 	andeq	sl, r1, pc, lsl #22
    2ca0:	2d051800 	stccs	8, cr1, [r5, #-0]
    2ca4:	00000177 	andeq	r0, r0, r7, ror r1
    2ca8:	00032b0b 	andeq	r2, r3, fp, lsl #22
    2cac:	772f0500 	strvc	r0, [pc, -r0, lsl #10]!
    2cb0:	00000001 	andeq	r0, r0, r1
    2cb4:	006b5f10 	rsbeq	r5, fp, r0, lsl pc
    2cb8:	00253005 	eoreq	r3, r5, r5
    2cbc:	0b040000 	bleq	102cc4 <__bss_end__+0xf8d2c>
    2cc0:	00000362 	andeq	r0, r0, r2, ror #6
    2cc4:	00253005 	eoreq	r3, r5, r5
    2cc8:	0b080000 	bleq	202cd0 <__bss_end__+0x1f8d38>
    2ccc:	00000194 	muleq	r0, r4, r1
    2cd0:	00253005 	eoreq	r3, r5, r5
    2cd4:	0b0c0000 	bleq	302cdc <__bss_end__+0x2f8d44>
    2cd8:	0000046f 	andeq	r0, r0, pc, ror #8
    2cdc:	00253005 	eoreq	r3, r5, r5
    2ce0:	10100000 	andsne	r0, r0, r0
    2ce4:	0500785f 	streq	r7, [r0, #-2143]	; 0xfffff7a1
    2ce8:	00017d31 	andeq	r7, r1, r1, lsr sp
    2cec:	0d001400 	cfstrseq	mvf1, [r0, #-0]
    2cf0:	00012404 	andeq	r2, r1, r4, lsl #8
    2cf4:	01190800 	tsteq	r9, r0, lsl #16
    2cf8:	018d0000 	orreq	r0, sp, r0
    2cfc:	c7090000 	strgt	r0, [r9, -r0]
    2d00:	00000000 	andeq	r0, r0, r0
    2d04:	01d80f00 	bicseq	r0, r8, r0, lsl #30
    2d08:	05240000 	streq	r0, [r4, #-0]!
    2d0c:	00020635 	andeq	r0, r2, r5, lsr r6
    2d10:	00920b00 	addseq	r0, r2, r0, lsl #22
    2d14:	37050000 	strcc	r0, [r5, -r0]
    2d18:	00000025 	andeq	r0, r0, r5, lsr #32
    2d1c:	03950b00 	orrseq	r0, r5, #0, 22
    2d20:	38050000 	stmdacc	r5, {}	; <UNPREDICTABLE>
    2d24:	00000025 	andeq	r0, r0, r5, lsr #32
    2d28:	00b50b04 	adcseq	r0, r5, r4, lsl #22
    2d2c:	39050000 	stmdbcc	r5, {}	; <UNPREDICTABLE>
    2d30:	00000025 	andeq	r0, r0, r5, lsr #32
    2d34:	04f70b08 	ldrbteq	r0, [r7], #2824	; 0xb08
    2d38:	3a050000 	bcc	142d40 <__bss_end__+0x138da8>
    2d3c:	00000025 	andeq	r0, r0, r5, lsr #32
    2d40:	02870b0c 	addeq	r0, r7, #12, 22	; 0x3000
    2d44:	3b050000 	blcc	142d4c <__bss_end__+0x138db4>
    2d48:	00000025 	andeq	r0, r0, r5, lsr #32
    2d4c:	026d0b10 	rsbeq	r0, sp, #16, 22	; 0x4000
    2d50:	3c050000 	stccc	0, cr0, [r5], {-0}
    2d54:	00000025 	andeq	r0, r0, r5, lsr #32
    2d58:	04740b14 	ldrbteq	r0, [r4], #-2836	; 0xfffff4ec
    2d5c:	3d050000 	stccc	0, cr0, [r5, #-0]
    2d60:	00000025 	andeq	r0, r0, r5, lsr #32
    2d64:	02ec0b18 	rsceq	r0, ip, #24, 22	; 0x6000
    2d68:	3e050000 	cdpcc	0, 0, cr0, cr5, cr0, {0}
    2d6c:	00000025 	andeq	r0, r0, r5, lsr #32
    2d70:	04be0b1c 	ldrteq	r0, [lr], #2844	; 0xb1c
    2d74:	3f050000 	svccc	0x00050000
    2d78:	00000025 	andeq	r0, r0, r5, lsr #32
    2d7c:	f5110020 			; <UNDEFINED> instruction: 0xf5110020
    2d80:	08000000 	stmdaeq	r0, {}	; <UNPREDICTABLE>
    2d84:	46480501 	strbmi	r0, [r8], -r1, lsl #10
    2d88:	0b000002 	bleq	2d98 <_start-0x5268>
    2d8c:	00000187 	andeq	r0, r0, r7, lsl #3
    2d90:	02464905 	subeq	r4, r6, #81920	; 0x14000
    2d94:	0b000000 	bleq	2d9c <_start-0x5264>
    2d98:	00000000 	andeq	r0, r0, r0
    2d9c:	02464a05 	subeq	r4, r6, #20480	; 0x5000
    2da0:	12800000 	addne	r0, r0, #0
    2da4:	00000413 	andeq	r0, r0, r3, lsl r4
    2da8:	01194c05 	tsteq	r9, r5, lsl #24
    2dac:	01000000 	mrseq	r0, (UNDEF: 0)
    2db0:	00011a12 	andeq	r1, r1, r2, lsl sl
    2db4:	194f0500 	stmdbne	pc, {r8, sl}^	; <UNPREDICTABLE>
    2db8:	04000001 	streq	r0, [r0], #-1
    2dbc:	05080001 	streq	r0, [r8, #-1]
    2dc0:	56000001 	strpl	r0, [r0], -r1
    2dc4:	09000002 	stmdbeq	r0, {r1}
    2dc8:	000000c7 	andeq	r0, r0, r7, asr #1
    2dcc:	9011001f 	andsls	r0, r1, pc, lsl r0
    2dd0:	90000002 	andls	r0, r0, r2
    2dd4:	945b0501 	ldrbls	r0, [fp], #-1281	; 0xfffffaff
    2dd8:	0b000002 	bleq	2de8 <_start-0x5218>
    2ddc:	0000032b 	andeq	r0, r0, fp, lsr #6
    2de0:	02945c05 	addseq	r5, r4, #1280	; 0x500
    2de4:	0b000000 	bleq	2dec <_start-0x5214>
    2de8:	00000343 	andeq	r0, r0, r3, asr #6
    2dec:	00255d05 	eoreq	r5, r5, r5, lsl #26
    2df0:	0b040000 	bleq	102df8 <__bss_end__+0xf8e60>
    2df4:	0000018f 	andeq	r0, r0, pc, lsl #3
    2df8:	029a5f05 	addseq	r5, sl, #5, 30
    2dfc:	0b080000 	bleq	202e04 <__bss_end__+0x1f8e6c>
    2e00:	000000f5 	strdeq	r0, [r0], -r5
    2e04:	02066005 	andeq	r6, r6, #5
    2e08:	00880000 	addeq	r0, r8, r0
    2e0c:	0256040d 	subseq	r0, r6, #218103808	; 0xd000000
    2e10:	aa080000 	bge	202e18 <__bss_end__+0x1f8e80>
    2e14:	aa000002 	bge	2e24 <_start-0x51dc>
    2e18:	09000002 	stmdbeq	r0, {r1}
    2e1c:	000000c7 	andeq	r0, r0, r7, asr #1
    2e20:	040d001f 	streq	r0, [sp], #-31	; 0xffffffe1
    2e24:	000002b0 			; <UNDEFINED> instruction: 0x000002b0
    2e28:	02f60f13 	rscseq	r0, r6, #19, 30	; 0x4c
    2e2c:	05080000 	streq	r0, [r8, #-0]
    2e30:	0002d673 	andeq	sp, r2, r3, ror r6
    2e34:	00af0b00 	adceq	r0, pc, r0, lsl #22
    2e38:	74050000 	strvc	r0, [r5], #-0
    2e3c:	000002d6 	ldrdeq	r0, [r0], -r6
    2e40:	000c0b00 	andeq	r0, ip, r0, lsl #22
    2e44:	75050000 	strvc	r0, [r5, #-0]
    2e48:	00000025 	andeq	r0, r0, r5, lsr #32
    2e4c:	040d0004 	streq	r0, [sp], #-4
    2e50:	0000004f 	andeq	r0, r0, pc, asr #32
    2e54:	0003150f 	andeq	r1, r3, pc, lsl #10
    2e58:	b3056800 	movwlt	r6, #22528	; 0x5800
    2e5c:	00000406 	andeq	r0, r0, r6, lsl #8
    2e60:	00705f10 	rsbseq	r5, r0, r0, lsl pc
    2e64:	02d6b405 	sbcseq	fp, r6, #83886080	; 0x5000000
    2e68:	10000000 	andne	r0, r0, r0
    2e6c:	0500725f 	streq	r7, [r0, #-607]	; 0xfffffda1
    2e70:	000025b5 			; <UNDEFINED> instruction: 0x000025b5
    2e74:	5f100400 	svcpl	0x00100400
    2e78:	b6050077 			; <UNDEFINED> instruction: 0xb6050077
    2e7c:	00000025 	andeq	r0, r0, r5, lsr #32
    2e80:	01130b08 	tsteq	r3, r8, lsl #22
    2e84:	b7050000 	strlt	r0, [r5, -r0]
    2e88:	0000003a 	andeq	r0, r0, sl, lsr r0
    2e8c:	01f40b0c 	mvnseq	r0, ip, lsl #22
    2e90:	b8050000 	stmdalt	r5, {}	; <UNPREDICTABLE>
    2e94:	0000003a 	andeq	r0, r0, sl, lsr r0
    2e98:	625f100e 	subsvs	r1, pc, #14
    2e9c:	b9050066 	stmdblt	r5, {r1, r2, r5, r6}
    2ea0:	000002b1 			; <UNDEFINED> instruction: 0x000002b1
    2ea4:	006c0b10 	rsbeq	r0, ip, r0, lsl fp
    2ea8:	ba050000 	blt	142eb0 <__bss_end__+0x138f18>
    2eac:	00000025 	andeq	r0, r0, r5, lsr #32
    2eb0:	01030b18 	tsteq	r3, r8, lsl fp
    2eb4:	c1050000 	mrsgt	r0, (UNDEF: 5)
    2eb8:	00000105 	andeq	r0, r0, r5, lsl #2
    2ebc:	0a780b1c 	beq	1e05b34 <__bss_end__+0x1dfbb9c>
    2ec0:	c3050000 	movwgt	r0, #20480	; 0x5000
    2ec4:	00000561 	andeq	r0, r0, r1, ror #10
    2ec8:	060c0b20 	streq	r0, [ip], -r0, lsr #22
    2ecc:	c5050000 	strgt	r0, [r5, #-0]
    2ed0:	0000058b 	andeq	r0, r0, fp, lsl #11
    2ed4:	03870b24 	orreq	r0, r7, #36, 22	; 0x9000
    2ed8:	c8050000 	stmdagt	r5, {}	; <UNPREDICTABLE>
    2edc:	000005af 	andeq	r0, r0, pc, lsr #11
    2ee0:	04d80b28 	ldrbeq	r0, [r8], #2856	; 0xb28
    2ee4:	c9050000 	stmdbgt	r5, {}	; <UNPREDICTABLE>
    2ee8:	000005c9 	andeq	r0, r0, r9, asr #11
    2eec:	755f102c 	ldrbvc	r1, [pc, #-44]	; 2ec8 <_start-0x5138>
    2ef0:	cc050062 	stcgt	0, cr0, [r5], {98}	; 0x62
    2ef4:	000002b1 			; <UNDEFINED> instruction: 0x000002b1
    2ef8:	755f1030 	ldrbvc	r1, [pc, #-48]	; 2ed0 <_start-0x5130>
    2efc:	cd050070 	stcgt	0, cr0, [r5, #-448]	; 0xfffffe40
    2f00:	000002d6 	ldrdeq	r0, [r0], -r6
    2f04:	755f1038 	ldrbvc	r1, [pc, #-56]	; 2ed4 <_start-0x512c>
    2f08:	ce050072 	mcrgt	0, 0, r0, cr5, cr2, {3}
    2f0c:	00000025 	andeq	r0, r0, r5, lsr #32
    2f10:	00a90b3c 	adceq	r0, r9, ip, lsr fp
    2f14:	d1050000 	mrsle	r0, (UNDEF: 5)
    2f18:	000005cf 	andeq	r0, r0, pc, asr #11
    2f1c:	04b00b40 	ldrteq	r0, [r0], #2880	; 0xb40
    2f20:	d2050000 	andle	r0, r5, #0
    2f24:	000005df 	ldrdeq	r0, [r0], -pc	; <UNPREDICTABLE>
    2f28:	6c5f1043 	mrrcvs	0, 4, r1, pc, cr3	; <UNPREDICTABLE>
    2f2c:	d5050062 	strle	r0, [r5, #-98]	; 0xffffff9e
    2f30:	000002b1 			; <UNDEFINED> instruction: 0x000002b1
    2f34:	01380b44 	teqeq	r8, r4, asr #22
    2f38:	d8050000 	stmdale	r5, {}	; <UNPREDICTABLE>
    2f3c:	00000025 	andeq	r0, r0, r5, lsr #32
    2f40:	01490b4c 	cmpeq	r9, ip, asr #22
    2f44:	d9050000 	stmdble	r5, {}	; <UNPREDICTABLE>
    2f48:	00000076 	andeq	r0, r0, r6, ror r0
    2f4c:	0a190b50 	beq	645c94 <__bss_end__+0x63bcfc>
    2f50:	dc050000 	stcle	0, cr0, [r5], {-0}
    2f54:	00000424 	andeq	r0, r0, r4, lsr #8
    2f58:	025f0b54 	subseq	r0, pc, #84, 22	; 0x15000
    2f5c:	e0050000 	and	r0, r5, r0
    2f60:	000000fa 	strdeq	r0, [r0], -sl
    2f64:	031d0b58 	tsteq	sp, #88, 22	; 0x16000
    2f68:	e2050000 	and	r0, r5, #0
    2f6c:	000000ef 	andeq	r0, r0, pc, ror #1
    2f70:	02650b5c 	rsbeq	r0, r5, #92, 22	; 0x17000
    2f74:	e3050000 	movw	r0, #20480	; 0x5000
    2f78:	00000025 	andeq	r0, r0, r5, lsr #32
    2f7c:	25140064 	ldrcs	r0, [r4, #-100]	; 0xffffff9c
    2f80:	24000000 	strcs	r0, [r0], #-0
    2f84:	15000004 	strne	r0, [r0, #-4]
    2f88:	00000424 	andeq	r0, r0, r4, lsr #8
    2f8c:	00010515 	andeq	r0, r1, r5, lsl r5
    2f90:	01071500 	tsteq	r7, r0, lsl #10
    2f94:	25150000 	ldrcs	r0, [r5, #-0]
    2f98:	00000000 	andeq	r0, r0, r0
    2f9c:	042f040d 	strteq	r0, [pc], #-1037	; 2fa4 <_start-0x505c>
    2fa0:	240e0000 	strcs	r0, [lr], #-0
    2fa4:	16000004 	strne	r0, [r0], -r4
    2fa8:	0000036a 	andeq	r0, r0, sl, ror #6
    2fac:	38050428 	stmdacc	r5, {r3, r5, sl}
    2fb0:	00056102 	andeq	r6, r5, r2, lsl #2
    2fb4:	02db1700 	sbcseq	r1, fp, #0, 14
    2fb8:	3a050000 	bcc	142fc0 <__bss_end__+0x139028>
    2fbc:	00002502 	andeq	r2, r0, r2, lsl #10
    2fc0:	84170000 	ldrhi	r0, [r7], #-0
    2fc4:	05000004 	streq	r0, [r0, #-4]
    2fc8:	0636023f 			; <UNDEFINED> instruction: 0x0636023f
    2fcc:	17040000 	strne	r0, [r4, -r0]
    2fd0:	000001e4 	andeq	r0, r0, r4, ror #3
    2fd4:	36023f05 	strcc	r3, [r2], -r5, lsl #30
    2fd8:	08000006 	stmdaeq	r0, {r1, r2}
    2fdc:	0001a317 	andeq	sl, r1, r7, lsl r3
    2fe0:	023f0500 	eorseq	r0, pc, #0, 10
    2fe4:	00000636 	andeq	r0, r0, r6, lsr r6
    2fe8:	033e170c 	teqeq	lr, #12, 14	; 0x300000
    2fec:	41050000 	mrsmi	r0, (UNDEF: 5)
    2ff0:	00002502 	andeq	r2, r0, r2, lsl #10
    2ff4:	1a171000 	bne	5c6ffc <__bss_end__+0x5bd064>
    2ff8:	05000000 	streq	r0, [r0, #-0]
    2ffc:	08180242 	ldmdaeq	r8, {r1, r6, r9}
    3000:	17140000 	ldrne	r0, [r4, -r0]
    3004:	00000449 	andeq	r0, r0, r9, asr #8
    3008:	25024405 	strcs	r4, [r2, #-1029]	; 0xfffffbfb
    300c:	30000000 	andcc	r0, r0, r0
    3010:	00034817 	andeq	r4, r3, r7, lsl r8
    3014:	02450500 	subeq	r0, r5, #0, 10
    3018:	00000585 	andeq	r0, r0, r5, lsl #11
    301c:	02981734 	addseq	r1, r8, #52, 14	; 0xd00000
    3020:	47050000 	strmi	r0, [r5, -r0]
    3024:	00002502 	andeq	r2, r0, r2, lsl #10
    3028:	58173800 	ldmdapl	r7, {fp, ip, sp}
    302c:	05000003 	streq	r0, [r0, #-3]
    3030:	08330249 	ldmdaeq	r3!, {r0, r3, r6, r9}
    3034:	173c0000 	ldrne	r0, [ip, -r0]!
    3038:	00000243 	andeq	r0, r0, r3, asr #4
    303c:	77024c05 	strvc	r4, [r2, -r5, lsl #24]
    3040:	40000001 	andmi	r0, r0, r1
    3044:	0001c217 	andeq	ip, r1, r7, lsl r2
    3048:	024d0500 	subeq	r0, sp, #0, 10
    304c:	00000025 	andeq	r0, r0, r5, lsr #32
    3050:	04f21744 	ldrbteq	r1, [r2], #1860	; 0x744
    3054:	4e050000 	cdpmi	0, 0, cr0, cr5, cr0, {0}
    3058:	00017702 	andeq	r7, r1, r2, lsl #14
    305c:	aa174800 	bge	5d5064 <__bss_end__+0x5cb0cc>
    3060:	05000002 	streq	r0, [r0, #-2]
    3064:	0839024f 	ldmdaeq	r9!, {r0, r1, r2, r3, r6, r9}
    3068:	174c0000 	strbne	r0, [ip, -r0]
    306c:	000001ec 	andeq	r0, r0, ip, ror #3
    3070:	25025205 	strcs	r5, [r2, #-517]	; 0xfffffdfb
    3074:	50000000 	andpl	r0, r0, r0
    3078:	00014117 	andeq	r4, r1, r7, lsl r1
    307c:	02530500 	subseq	r0, r3, #0, 10
    3080:	00000107 	andeq	r0, r0, r7, lsl #2
    3084:	02d41754 	sbcseq	r1, r4, #84, 14	; 0x1500000
    3088:	76050000 	strvc	r0, [r5], -r0
    308c:	0007f602 	andeq	pc, r7, r2, lsl #12
    3090:	90185800 	andsls	r5, r8, r0, lsl #16
    3094:	05000002 	streq	r0, [r0, #-2]
    3098:	0294027a 	addseq	r0, r4, #-1610612729	; 0xa0000007
    309c:	01480000 	mrseq	r0, (UNDEF: 72)
    30a0:	00022118 	andeq	r2, r2, r8, lsl r1
    30a4:	027b0500 	rsbseq	r0, fp, #0, 10
    30a8:	00000256 	andeq	r0, r0, r6, asr r2
    30ac:	9e18014c 	muflsem	f0, f0, #4.0
    30b0:	05000004 	streq	r0, [r0, #-4]
    30b4:	084a027f 	stmdaeq	sl, {r0, r1, r2, r3, r4, r5, r6, r9}^
    30b8:	02dc0000 	sbcseq	r0, ip, #0
    30bc:	00010b18 	andeq	r0, r1, r8, lsl fp
    30c0:	02840500 	addeq	r0, r4, #0, 10
    30c4:	000005fb 	strdeq	r0, [r0], -fp
    30c8:	f01802e0 			; <UNDEFINED> instruction: 0xf01802e0
    30cc:	05000000 	streq	r0, [r0, #-0]
    30d0:	08560285 	ldmdaeq	r6, {r0, r2, r7, r9}^
    30d4:	02ec0000 	rsceq	r0, ip, #0
    30d8:	06040d00 	streq	r0, [r4], -r0, lsl #26
    30dc:	14000004 	strne	r0, [r0], #-4
    30e0:	00000025 	andeq	r0, r0, r5, lsr #32
    30e4:	00000585 	andeq	r0, r0, r5, lsl #11
    30e8:	00042415 	andeq	r2, r4, r5, lsl r4
    30ec:	01051500 	tsteq	r5, r0, lsl #10
    30f0:	85150000 	ldrhi	r0, [r5, #-0]
    30f4:	15000005 	strne	r0, [r0, #-5]
    30f8:	00000025 	andeq	r0, r0, r5, lsr #32
    30fc:	14040d00 	strne	r0, [r4], #-3328	; 0xfffff300
    3100:	0d000001 	stceq	0, cr0, [r0, #-4]
    3104:	00056704 	andeq	r6, r5, r4, lsl #14
    3108:	00811400 	addeq	r1, r1, r0, lsl #8
    310c:	05af0000 	streq	r0, [pc, #0]!	; 3114 <_start-0x4eec>
    3110:	24150000 	ldrcs	r0, [r5], #-0
    3114:	15000004 	strne	r0, [r0, #-4]
    3118:	00000105 	andeq	r0, r0, r5, lsl #2
    311c:	00008115 	andeq	r8, r0, r5, lsl r1
    3120:	00251500 	eoreq	r1, r5, r0, lsl #10
    3124:	0d000000 	stceq	0, cr0, [r0, #-0]
    3128:	00059104 	andeq	r9, r5, r4, lsl #2
    312c:	00251400 	eoreq	r1, r5, r0, lsl #8
    3130:	05c90000 	strbeq	r0, [r9]
    3134:	24150000 	ldrcs	r0, [r5], #-0
    3138:	15000004 	strne	r0, [r0, #-4]
    313c:	00000105 	andeq	r0, r0, r5, lsl #2
    3140:	b5040d00 	strlt	r0, [r4, #-3328]	; 0xfffff300
    3144:	08000005 	stmdaeq	r0, {r0, r2}
    3148:	0000004f 	andeq	r0, r0, pc, asr #32
    314c:	000005df 	ldrdeq	r0, [r0], -pc	; <UNPREDICTABLE>
    3150:	0000c709 	andeq	ip, r0, r9, lsl #14
    3154:	08000200 	stmdaeq	r0, {r9}
    3158:	0000004f 	andeq	r0, r0, pc, asr #32
    315c:	000005ef 	andeq	r0, r0, pc, ror #11
    3160:	0000c709 	andeq	ip, r0, r9, lsl #14
    3164:	05000000 	streq	r0, [r0, #-0]
    3168:	00000303 	andeq	r0, r0, r3, lsl #6
    316c:	dc011d05 	stcle	13, cr1, [r1], {5}
    3170:	19000002 	stmdbne	r0, {r1}
    3174:	0000047e 	andeq	r0, r0, lr, ror r4
    3178:	0121050c 			; <UNDEFINED> instruction: 0x0121050c
    317c:	00000630 	andeq	r0, r0, r0, lsr r6
    3180:	00032b17 	andeq	r2, r3, r7, lsl fp
    3184:	01230500 			; <UNDEFINED> instruction: 0x01230500
    3188:	00000630 	andeq	r0, r0, r0, lsr r6
    318c:	02071700 	andeq	r1, r7, #0, 14
    3190:	24050000 	strcs	r0, [r5], #-0
    3194:	00002501 	andeq	r2, r0, r1, lsl #10
    3198:	fd170400 	ldc2	4, cr0, [r7, #-0]
    319c:	05000002 	streq	r0, [r0, #-2]
    31a0:	06360125 	ldrteq	r0, [r6], -r5, lsr #2
    31a4:	00080000 	andeq	r0, r8, r0
    31a8:	05fb040d 	ldrbeq	r0, [fp, #1037]!	; 0x40d
    31ac:	040d0000 	streq	r0, [sp], #-0
    31b0:	000005ef 	andeq	r0, r0, pc, ror #11
    31b4:	00001219 	andeq	r1, r0, r9, lsl r2
    31b8:	3d050e00 	stccc	14, cr0, [r5, #-0]
    31bc:	00067101 	andeq	r7, r6, r1, lsl #2
    31c0:	03711700 	cmneq	r1, #0, 14
    31c4:	3e050000 	cdpcc	0, 0, cr0, cr5, cr0, {0}
    31c8:	00067101 	andeq	r7, r6, r1, lsl #2
    31cc:	9e170000 	cdpls	0, 1, cr0, cr7, cr0, {0}
    31d0:	05000003 	streq	r0, [r0, #-3]
    31d4:	0671013f 			; <UNDEFINED> instruction: 0x0671013f
    31d8:	17060000 	strne	r0, [r6, -r0]
    31dc:	0000041c 	andeq	r0, r0, ip, lsl r4
    31e0:	56014005 	strpl	r4, [r1], -r5
    31e4:	0c000000 	stceq	0, cr0, [r0], {-0}
    31e8:	00560800 	subseq	r0, r6, r0, lsl #16
    31ec:	06810000 	streq	r0, [r1], r0
    31f0:	c7090000 	strgt	r0, [r9, -r0]
    31f4:	02000000 	andeq	r0, r0, #0
    31f8:	05d01a00 	ldrbeq	r1, [r0, #2560]	; 0xa00
    31fc:	07820257 			; <UNDEFINED> instruction: 0x07820257
    3200:	62170000 	andsvs	r0, r7, #0
    3204:	05000004 	streq	r0, [r0, #-4]
    3208:	002c0259 	eoreq	r0, ip, r9, asr r2
    320c:	17000000 	strne	r0, [r0, -r0]
    3210:	00000406 	andeq	r0, r0, r6, lsl #8
    3214:	07025a05 	streq	r5, [r2, -r5, lsl #20]
    3218:	04000001 	streq	r0, [r0], #-1
    321c:	00023617 	andeq	r3, r2, r7, lsl r6
    3220:	025b0500 	subseq	r0, fp, #0, 10
    3224:	00000782 	andeq	r0, r0, r2, lsl #15
    3228:	04c91708 	strbeq	r1, [r9], #1800	; 0x708
    322c:	5c050000 	stcpl	0, cr0, [r5], {-0}
    3230:	00018d02 	andeq	r8, r1, r2, lsl #26
    3234:	b3172400 	tstlt	r7, #0, 8
    3238:	05000001 	streq	r0, [r0, #-1]
    323c:	0025025d 	eoreq	r0, r5, sp, asr r2
    3240:	17480000 	strbne	r0, [r8, -r0]
    3244:	00000326 	andeq	r0, r0, r6, lsr #6
    3248:	64025e05 	strvs	r5, [r2], #-3589	; 0xfffff1fb
    324c:	50000000 	andpl	r0, r0, r0
    3250:	0004df17 	andeq	sp, r4, r7, lsl pc
    3254:	025f0500 	subseq	r0, pc, #0, 10
    3258:	0000063c 	andeq	r0, r0, ip, lsr r6
    325c:	03311758 	teqeq	r1, #88, 14	; 0x1600000
    3260:	60050000 	andvs	r0, r5, r0
    3264:	0000ef02 	andeq	lr, r0, r2, lsl #30
    3268:	e4176800 	ldr	r6, [r7], #-2048	; 0xfffff800
    326c:	05000004 	streq	r0, [r0, #-4]
    3270:	00ef0261 	rsceq	r0, pc, r1, ror #4
    3274:	17700000 	ldrbne	r0, [r0, -r0]!
    3278:	00000084 	andeq	r0, r0, r4, lsl #1
    327c:	ef026205 	svc	0x00026205
    3280:	78000000 	stmdavc	r0, {}	; <UNPREDICTABLE>
    3284:	00049417 	andeq	r9, r4, r7, lsl r4
    3288:	02630500 	rsbeq	r0, r3, #0, 10
    328c:	00000792 	muleq	r0, r2, r7
    3290:	022a1780 	eoreq	r1, sl, #128, 14	; 0x2000000
    3294:	64050000 	strvs	r0, [r5], #-0
    3298:	0007a202 	andeq	sl, r7, r2, lsl #4
    329c:	29178800 	ldmdbcs	r7, {fp, pc}
    32a0:	05000004 	streq	r0, [r0, #-4]
    32a4:	00250265 	eoreq	r0, r5, r5, ror #4
    32a8:	17a00000 	strne	r0, [r0, r0]!
    32ac:	00000179 	andeq	r0, r0, r9, ror r1
    32b0:	ef026605 	svc	0x00026605
    32b4:	a4000000 	strge	r0, [r0], #-0
    32b8:	00007517 	andeq	r7, r0, r7, lsl r5
    32bc:	02670500 	rsbeq	r0, r7, #0, 10
    32c0:	000000ef 	andeq	r0, r0, pc, ror #1
    32c4:	016817ac 	cmneq	r8, ip, lsr #15
    32c8:	68050000 	stmdavs	r5, {}	; <UNPREDICTABLE>
    32cc:	0000ef02 	andeq	lr, r0, r2, lsl #30
    32d0:	2d17b400 	cfldrscs	mvf11, [r7, #-0]
    32d4:	05000000 	streq	r0, [r0, #-0]
    32d8:	00ef0269 	rsceq	r0, pc, r9, ror #4
    32dc:	17bc0000 	ldrne	r0, [ip, r0]!
    32e0:	0000003c 	andeq	r0, r0, ip, lsr r0
    32e4:	ef026a05 	svc	0x00026a05
    32e8:	c4000000 	strgt	r0, [r0], #-0
    32ec:	0002d917 	andeq	sp, r2, r7, lsl r9
    32f0:	026b0500 	rsbeq	r0, fp, #0, 10
    32f4:	00000025 	andeq	r0, r0, r5, lsr #32
    32f8:	0d0800cc 	stceq	0, cr0, [r8, #-816]	; 0xfffffcd0
    32fc:	92000001 	andls	r0, r0, #1
    3300:	09000007 	stmdbeq	r0, {r0, r1, r2}
    3304:	000000c7 	andeq	r0, r0, r7, asr #1
    3308:	0d080019 	stceq	0, cr0, [r8, #-100]	; 0xffffff9c
    330c:	a2000001 	andge	r0, r0, #1
    3310:	09000007 	stmdbeq	r0, {r0, r1, r2}
    3314:	000000c7 	andeq	r0, r0, r7, asr #1
    3318:	0d080007 	stceq	0, cr0, [r8, #-28]	; 0xffffffe4
    331c:	b2000001 	andlt	r0, r0, #1
    3320:	09000007 	stmdbeq	r0, {r0, r1, r2}
    3324:	000000c7 	andeq	r0, r0, r7, asr #1
    3328:	f01a0017 			; <UNDEFINED> instruction: 0xf01a0017
    332c:	d6027005 	strle	r7, [r2], -r5
    3330:	17000007 	strne	r0, [r0, -r7]
    3334:	00000280 	andeq	r0, r0, r0, lsl #5
    3338:	d6027305 	strle	r7, [r2], -r5, lsl #6
    333c:	00000007 	andeq	r0, r0, r7
    3340:	00048b17 	andeq	r8, r4, r7, lsl fp
    3344:	02740500 	rsbseq	r0, r4, #0, 10
    3348:	000007e6 	andeq	r0, r0, r6, ror #15
    334c:	d6080078 			; <UNDEFINED> instruction: 0xd6080078
    3350:	e6000002 	str	r0, [r0], -r2
    3354:	09000007 	stmdbeq	r0, {r0, r1, r2}
    3358:	000000c7 	andeq	r0, r0, r7, asr #1
    335c:	2c08001d 	stccs	0, cr0, [r8], {29}
    3360:	f6000000 			; <UNDEFINED> instruction: 0xf6000000
    3364:	09000007 	stmdbeq	r0, {r0, r1, r2}
    3368:	000000c7 	andeq	r0, r0, r7, asr #1
    336c:	f01b001d 			; <UNDEFINED> instruction: 0xf01b001d
    3370:	18025505 	stmdane	r2, {r0, r2, r8, sl, ip, lr}
    3374:	1c000008 	stcne	0, cr0, [r0], {8}
    3378:	0000036a 	andeq	r0, r0, sl, ror #6
    337c:	81026c05 	tsthi	r2, r5, lsl #24
    3380:	1c000006 	stcne	0, cr0, [r0], {6}
    3384:	000004b6 			; <UNDEFINED> instruction: 0x000004b6
    3388:	b2027505 	andlt	r7, r2, #20971520	; 0x1400000
    338c:	00000007 	andeq	r0, r0, r7
    3390:	00010d08 	andeq	r0, r1, r8, lsl #26
    3394:	00082800 	andeq	r2, r8, r0, lsl #16
    3398:	00c70900 	sbceq	r0, r7, r0, lsl #18
    339c:	00180000 	andseq	r0, r8, r0
    33a0:	0008331d 	andeq	r3, r8, sp, lsl r3
    33a4:	04241500 	strteq	r1, [r4], #-1280	; 0xfffffb00
    33a8:	0d000000 	stceq	0, cr0, [r0, #-0]
    33ac:	00082804 	andeq	r2, r8, r4, lsl #16
    33b0:	77040d00 	strvc	r0, [r4, -r0, lsl #26]
    33b4:	1d000001 	stcne	0, cr0, [r0, #-4]
    33b8:	0000084a 	andeq	r0, r0, sl, asr #16
    33bc:	00002515 	andeq	r2, r0, r5, lsl r5
    33c0:	040d0000 	streq	r0, [sp], #-0
    33c4:	00000850 	andeq	r0, r0, r0, asr r8
    33c8:	083f040d 	ldmdaeq	pc!, {r0, r2, r3, sl}	; <UNPREDICTABLE>
    33cc:	ef080000 	svc	0x00080000
    33d0:	66000005 	strvs	r0, [r0], -r5
    33d4:	09000008 	stmdbeq	r0, {r3}
    33d8:	000000c7 	andeq	r0, r0, r7, asr #1
    33dc:	3d1e0002 	ldccc	0, cr0, [lr, #-8]
    33e0:	05000004 	streq	r0, [r0, #-4]
    33e4:	042402fd 	strteq	r0, [r4], #-765	; 0xfffffd03
    33e8:	361e0000 	ldrcc	r0, [lr], -r0
    33ec:	05000004 	streq	r0, [r0, #-4]
    33f0:	042a02fe 	strteq	r0, [sl], #-766	; 0xfffffd02
    33f4:	25140000 	ldrcs	r0, [r4, #-0]
    33f8:	8d000000 	stchi	0, cr0, [r0, #-0]
    33fc:	15000008 	strne	r0, [r0, #-8]
    3400:	00000025 	andeq	r0, r0, r5, lsr #32
    3404:	01cc1f00 	biceq	r1, ip, r0, lsl #30
    3408:	1d060000 	stcne	0, cr0, [r6, #-0]
    340c:	00000898 	muleq	r0, r8, r8
    3410:	087e040d 	ldmdaeq	lr!, {r0, r2, r3, sl}^
    3414:	25140000 	ldrcs	r0, [r4, #-0]
    3418:	ad000000 	stcge	0, cr0, [r0, #-0]
    341c:	15000008 	strne	r0, [r0, #-8]
    3420:	00000585 	andeq	r0, r0, r5, lsl #11
    3424:	07691f00 	strbeq	r1, [r9, -r0, lsl #30]!
    3428:	22060000 	andcs	r0, r6, #0
    342c:	000008b8 			; <UNDEFINED> instruction: 0x000008b8
    3430:	089e040d 	ldmeq	lr, {r0, r2, r3, sl}
    3434:	bc040000 	stclt	0, cr0, [r4], {-0}
    3438:	07000006 	streq	r0, [r0, -r6]
    343c:	0008c928 	andeq	ip, r8, r8, lsr #18
    3440:	06a80f00 	strteq	r0, [r8], r0, lsl #30
    3444:	08040000 	stmdaeq	r4, {}	; <UNPREDICTABLE>
    3448:	0008e000 	andeq	lr, r8, r0
    344c:	06cb2000 	strbeq	r2, [fp], r0
    3450:	01050000 	mrseq	r0, (UNDEF: 5)
    3454:	00000000 	andeq	r0, r0, r0
    3458:	0006aa04 	andeq	sl, r6, r4, lsl #20
    345c:	be630700 	cdplt	7, 6, cr0, cr3, cr0, {0}
    3460:	21000008 	tstcs	r0, r8
    3464:	000006b2 			; <UNDEFINED> instruction: 0x000006b2
    3468:	00257f01 	eoreq	r7, r5, r1, lsl #30
    346c:	8be00000 	blhi	ff803474 <__bss_end__+0xff7f94dc>
    3470:	02c00000 	sbceq	r0, r0, #0
    3474:	9c010000 	stcls	0, cr0, [r1], {-0}
    3478:	00000b51 	andeq	r0, r0, r1, asr fp
    347c:	66756222 	ldrbtvs	r6, [r5], -r2, lsr #4
    3480:	077f0100 	ldrbeq	r0, [pc, -r0, lsl #2]!
    3484:	b6000001 	strlt	r0, [r0], -r1
    3488:	22000007 	andcs	r0, r0, #7
    348c:	7f01006e 	svcvc	0x0001006e
    3490:	00000025 	andeq	r0, r0, r5, lsr #32
    3494:	000007e2 	andeq	r0, r0, r2, ror #15
    3498:	746d6622 	strbtvc	r6, [sp], #-1570	; 0xfffff9de
    349c:	857f0100 	ldrbhi	r0, [pc, #-256]!	; 33a4 <_start-0x4c5c>
    34a0:	10000005 	andne	r0, r0, r5
    34a4:	23000008 	movwcs	r0, #8
    34a8:	000000fe 	strdeq	r0, [r0], -lr
    34ac:	08e07f01 	stmiaeq	r0!, {r0, r8, r9, sl, fp, ip, sp, lr}^
    34b0:	91030000 	mrsls	r0, (UNDEF: 3)
    34b4:	70247edc 	ldrdvc	r7, [r4], -ip	; <UNPREDICTABLE>
    34b8:	07800100 	streq	r0, [r0, r0, lsl #2]
    34bc:	70000001 	andvc	r0, r0, r1
    34c0:	24000008 	strcs	r0, [r0], #-8
    34c4:	80010065 	andhi	r0, r1, r5, rrx
    34c8:	00000107 	andeq	r0, r0, r7, lsl #2
    34cc:	000008ee 	andeq	r0, r0, lr, ror #17
    34d0:	0001fa25 	andeq	pc, r1, r5, lsr #20
    34d4:	000b6100 	andeq	r6, fp, r0, lsl #2
    34d8:	74030500 	strvc	r0, [r3], #-1280	; 0xfffffb00
    34dc:	26000099 			; <UNDEFINED> instruction: 0x26000099
    34e0:	00000080 	andeq	r0, r0, r0, lsl #1
    34e4:	01007324 	tsteq	r0, r4, lsr #6
    34e8:	0001078d 	andeq	r0, r1, sp, lsl #15
    34ec:	00091500 	andeq	r1, r9, r0, lsl #10
    34f0:	756e2700 	strbvc	r2, [lr, #-1792]!	; 0xfffff900
    34f4:	8d01006d 	stchi	0, cr0, [r1, #-436]	; 0xfffffe4c
    34f8:	00000b66 	andeq	r0, r0, r6, ror #22
    34fc:	7ee09103 	urdvcs	f1, f3
    3500:	00072b28 	andeq	r2, r7, r8, lsr #22
    3504:	2c8e0100 	stfcss	f0, [lr], {0}
    3508:	5f000000 	svcpl	0x00000000
    350c:	29000009 	stmdbcs	r0, {r0, r3}
    3510:	00008c70 	andeq	r8, r0, r0, ror ip
    3514:	00000d92 	muleq	r0, r2, sp
    3518:	000009ab 	andeq	r0, r0, fp, lsr #19
    351c:	0250012a 	subseq	r0, r0, #-2147483638	; 0x8000000a
    3520:	2b000077 	blcs	3704 <_start-0x48fc>
    3524:	00008cf0 	strdeq	r8, [r0], -r0
    3528:	00000e52 	andeq	r0, r0, r2, asr lr
    352c:	008d0429 	addeq	r0, sp, r9, lsr #8
    3530:	000e5d00 	andeq	r5, lr, r0, lsl #26
    3534:	0009e300 	andeq	lr, r9, r0, lsl #6
    3538:	50012a00 	andpl	r2, r1, r0, lsl #20
    353c:	99e40305 	stmibls	r4!, {r0, r2, r8, r9}^
    3540:	012a0000 			; <UNDEFINED> instruction: 0x012a0000
    3544:	80030551 	andhi	r0, r3, r1, asr r5
    3548:	2a000099 	bcs	37b4 <_start-0x484c>
    354c:	03055201 	movweq	r5, #20993	; 0x5201
    3550:	00009974 	andeq	r9, r0, r4, ror r9
    3554:	0253012a 	subseq	r0, r3, #-2147483638	; 0x8000000a
    3558:	2b009408 	blcs	28580 <__bss_end__+0x1e5e8>
    355c:	00008d08 	andeq	r8, r0, r8, lsl #26
    3560:	00000e68 	andeq	r0, r0, r8, ror #28
    3564:	008d0c2b 	addeq	r0, sp, fp, lsr #24
    3568:	000e5200 	andeq	r5, lr, r0, lsl #4
    356c:	8d202900 			; <UNDEFINED> instruction: 0x8d202900
    3570:	0e5d0000 	cdpeq	0, 5, cr0, cr13, cr0, {0}
    3574:	0a240000 	beq	90357c <__bss_end__+0x8f95e4>
    3578:	012a0000 			; <UNDEFINED> instruction: 0x012a0000
    357c:	00030550 	andeq	r0, r3, r0, asr r5
    3580:	2a00009a 	bcs	37f0 <_start-0x4810>
    3584:	03055101 	movweq	r5, #20737	; 0x5101
    3588:	00009980 	andeq	r9, r0, r0, lsl #19
    358c:	0552012a 	ldrbeq	r0, [r2, #-298]	; 0xfffffed6
    3590:	00997403 	addseq	r7, r9, r3, lsl #8
    3594:	53012a00 	movwpl	r2, #6656	; 0x1a00
    3598:	009a0802 	addseq	r0, sl, r2, lsl #16
    359c:	008d242b 	addeq	r2, sp, fp, lsr #8
    35a0:	000e6800 	andeq	r6, lr, r0, lsl #16
    35a4:	8d502900 	vldrhi.16	s5, [r0, #-0]	; <UNPREDICTABLE>
    35a8:	0b760000 	bleq	1d835b0 <__bss_end__+0x1d79618>
    35ac:	0a5a0000 	beq	16835b4 <__bss_end__+0x167961c>
    35b0:	012a0000 			; <UNDEFINED> instruction: 0x012a0000
    35b4:	2a3a0150 	bcs	e83afc <__bss_end__+0xe79b64>
    35b8:	91035101 	tstls	r3, r1, lsl #2
    35bc:	012a7ed8 	ldrdeq	r7, [sl, -r8]!
    35c0:	80080252 	andhi	r0, r8, r2, asr r2
    35c4:	007d022a 	rsbseq	r0, sp, sl, lsr #4
    35c8:	2a007402 	bcs	205d8 <__bss_end__+0x16640>
    35cc:	01047d02 	tsteq	r4, r2, lsl #26
    35d0:	84290031 	strthi	r0, [r9], #-49	; 0xffffffcf
    35d4:	7600008d 	strvc	r0, [r0], -sp, lsl #1
    35d8:	8700000b 	strhi	r0, [r0, -fp]
    35dc:	2a00000a 	bcs	360c <_start-0x49f4>
    35e0:	3a015001 	bcc	575ec <__bss_end__+0x4d654>
    35e4:	0351012a 	cmpeq	r1, #-2147483638	; 0x8000000a
    35e8:	2a7ed891 	bcs	1fb9834 <__bss_end__+0x1faf89c>
    35ec:	08025201 	stmdaeq	r2, {r0, r9, ip, lr}
    35f0:	7d022a80 	vstrvc	s4, [r2, #-512]	; 0xfffffe00
    35f4:	00740200 	rsbseq	r0, r4, r0, lsl #4
    35f8:	047d022a 	ldrbteq	r0, [sp], #-554	; 0xfffffdd6
    35fc:	29003001 	stmdbcs	r0, {r0, ip, sp}
    3600:	00008db4 			; <UNDEFINED> instruction: 0x00008db4
    3604:	00000b76 	andeq	r0, r0, r6, ror fp
    3608:	00000ab4 			; <UNDEFINED> instruction: 0x00000ab4
    360c:	0150012a 	cmpeq	r0, sl, lsr #2
    3610:	51012a40 	tstpl	r1, r0, asr #20
    3614:	7ed89103 	atnvce	f1, f3
    3618:	0252012a 	subseq	r0, r2, #-2147483638	; 0x8000000a
    361c:	022a8008 	eoreq	r8, sl, #8
    3620:	7402007d 	strvc	r0, [r2], #-125	; 0xffffff83
    3624:	7d022a00 	vstrvc	s4, [r2, #-0]
    3628:	00300104 	eorseq	r0, r0, r4, lsl #2
    362c:	008de429 	addeq	lr, sp, r9, lsr #8
    3630:	000b7600 	andeq	r7, fp, r0, lsl #12
    3634:	000ae100 	andeq	lr, sl, r0, lsl #2
    3638:	50012a00 	andpl	r2, r1, r0, lsl #20
    363c:	012a3201 			; <UNDEFINED> instruction: 0x012a3201
    3640:	d8910351 	ldmle	r1, {r0, r4, r6, r8, r9}
    3644:	52012a7e 	andpl	r2, r1, #516096	; 0x7e000
    3648:	2a800802 	bcs	fe005658 <__bss_end__+0xfdffb6c0>
    364c:	02007d02 	andeq	r7, r0, #2, 26	; 0x80
    3650:	022a0074 	eoreq	r0, sl, #116	; 0x74
    3654:	3001047d 	andcc	r0, r1, sp, ror r4
    3658:	8e282900 	vmulhi.f16	s4, s16, s0	; <UNPREDICTABLE>
    365c:	0b760000 	bleq	1d83664 <__bss_end__+0x1d796cc>
    3660:	0b0e0000 	bleq	383668 <__bss_end__+0x3796d0>
    3664:	012a0000 			; <UNDEFINED> instruction: 0x012a0000
    3668:	2a380150 	bcs	e03bb0 <__bss_end__+0xdf9c18>
    366c:	91035101 	tstls	r3, r1, lsl #2
    3670:	012a7ed8 	ldrdeq	r7, [sl, -r8]!
    3674:	80080252 	andhi	r0, r8, r2, asr r2
    3678:	007d022a 	rsbseq	r0, sp, sl, lsr #4
    367c:	2a007402 	bcs	2068c <__bss_end__+0x166f4>
    3680:	01047d02 	tsteq	r4, r2, lsl #26
    3684:	302b0030 	eorcc	r0, fp, r0, lsr r0
    3688:	5200008e 	andpl	r0, r0, #142	; 0x8e
    368c:	2900000e 	stmdbcs	r0, {r1, r2, r3}
    3690:	00008e4c 	andeq	r8, r0, ip, asr #28
    3694:	00000e5d 	andeq	r0, r0, sp, asr lr
    3698:	00000b46 	andeq	r0, r0, r6, asr #22
    369c:	0550012a 	ldrbeq	r0, [r0, #-298]	; 0xfffffed6
    36a0:	009a2803 	addseq	r2, sl, r3, lsl #16
    36a4:	51012a00 	tstpl	r1, r0, lsl #20
    36a8:	99800305 	stmibls	r0, {r0, r2, r8, r9}
    36ac:	012a0000 			; <UNDEFINED> instruction: 0x012a0000
    36b0:	74030552 	strvc	r0, [r3], #-1362	; 0xfffffaae
    36b4:	2a000099 	bcs	3920 <_start-0x46e0>
    36b8:	08025301 	stmdaeq	r2, {r0, r8, r9, ip, lr}
    36bc:	502b00bb 	strhtpl	r0, [fp], -fp
    36c0:	6800008e 	stmdavs	r0, {r1, r2, r3, r7}
    36c4:	0000000e 	andeq	r0, r0, lr
    36c8:	01140800 	tsteq	r4, r0, lsl #16
    36cc:	0b610000 	bleq	18436d4 <__bss_end__+0x183973c>
    36d0:	c7090000 	strgt	r0, [r9, -r0]
    36d4:	09000000 	stmdbeq	r0, {}	; <UNPREDICTABLE>
    36d8:	0b510e00 	bleq	1446ee0 <__bss_end__+0x143cf48>
    36dc:	0d080000 	stceq	0, cr0, [r8, #-0]
    36e0:	76000001 	strvc	r0, [r0], -r1
    36e4:	0900000b 	stmdbeq	r0, {r0, r1, r3}
    36e8:	000000c7 	andeq	r0, r0, r7, asr #1
    36ec:	4f2c007f 	svcmi	0x002c007f
    36f0:	01000007 	tsteq	r0, r7
    36f4:	00010747 	andeq	r0, r1, r7, asr #14
    36f8:	0089dc00 	addeq	sp, r9, r0, lsl #24
    36fc:	0001b000 	andeq	fp, r1, r0
    3700:	b19c0100 	orrslt	r0, ip, r0, lsl #2
    3704:	2d00000c 	stccs	0, cr0, [r0, #-48]	; 0xffffffd0
    3708:	000000b0 	strheq	r0, [r0], -r0	; <UNPREDICTABLE>
    370c:	002c4701 	eoreq	r4, ip, r1, lsl #14
    3710:	09890000 	stmibeq	r9, {}	; <UNPREDICTABLE>
    3714:	64220000 	strtvs	r0, [r2], #-0
    3718:	01007473 	tsteq	r0, r3, ror r4
    371c:	00010747 	andeq	r0, r1, r7, asr #14
    3720:	0009b700 	andeq	fp, r9, r0, lsl #14
    3724:	006e2200 	rsbeq	r2, lr, r0, lsl #4
    3728:	00254701 	eoreq	r4, r5, r1, lsl #14
    372c:	09d50000 	ldmibeq	r5, {}^	; <UNPREDICTABLE>
    3730:	76220000 	strtvc	r0, [r2], -r0
    3734:	01006c61 	tsteq	r0, r1, ror #24
    3738:	00002547 	andeq	r2, r0, r7, asr #10
    373c:	0009f300 	andeq	pc, r9, r0, lsl #6
    3740:	072b2d00 	streq	r2, [fp, -r0, lsl #26]!
    3744:	47010000 	strmi	r0, [r1, -r0]
    3748:	00000025 	andeq	r0, r0, r5, lsr #32
    374c:	00000a67 	andeq	r0, r0, r7, ror #20
    3750:	00071a23 	andeq	r1, r7, r3, lsr #20
    3754:	25470100 	strbcs	r0, [r7, #-256]	; 0xffffff00
    3758:	02000000 	andeq	r0, r0, #0
    375c:	62270491 	eorvs	r0, r7, #-1862270976	; 0x91000000
    3760:	01006675 	tsteq	r0, r5, ror r6
    3764:	000cb14c 	andeq	fp, ip, ip, asr #2
    3768:	a8910300 	ldmge	r1, {r8, r9}
    376c:	0070247f 	rsbseq	r2, r0, pc, ror r4
    3770:	01074c01 	tsteq	r7, r1, lsl #24
    3774:	0a910000 	beq	fe44377c <__bss_end__+0xfe4397e4>
    3778:	75240000 	strvc	r0, [r4, #-0]!
    377c:	2c4d0100 	stfcse	f0, [sp], {-0}
    3780:	5b000000 	blpl	3788 <_start-0x4878>
    3784:	2500000b 	strcs	r0, [r0, #-11]
    3788:	000001fa 	strdeq	r0, [r0], -sl
    378c:	00000cd1 	ldrdeq	r0, [r0], -r1
    3790:	995c0305 	ldmdbls	ip, {r0, r2, r8, r9}^
    3794:	482e0000 	stmdami	lr!, {}	; <UNPREDICTABLE>
    3798:	7c00008a 	stcvc	0, cr0, [r0], {138}	; 0x8a
    379c:	3b000000 	blcc	37a4 <_start-0x485c>
    37a0:	2800000c 	stmdacs	r0, {r2, r3}
    37a4:	00000739 	andeq	r0, r0, r9, lsr r7
    37a8:	002c5201 	eoreq	r5, ip, r1, lsl #4
    37ac:	0bc60000 	bleq	ff1837b4 <__bss_end__+0xff17981c>
    37b0:	29000000 	stmdbcs	r0, {}	; <UNPREDICTABLE>
    37b4:	00008b04 	andeq	r8, r0, r4, lsl #22
    37b8:	00000d42 	andeq	r0, r0, r2, asr #26
    37bc:	00000c4f 	andeq	r0, r0, pc, asr #24
    37c0:	0251012a 	subseq	r0, r1, #-2147483638	; 0x8000000a
    37c4:	2900007d 	stmdbcs	r0, {r0, r2, r3, r4, r5, r6}
    37c8:	00008b18 	andeq	r8, r0, r8, lsl fp
    37cc:	00000cd6 	ldrdeq	r0, [r0], -r6
    37d0:	00000c6f 	andeq	r0, r0, pc, ror #24
    37d4:	0250012a 	subseq	r0, r0, #-2147483638	; 0x8000000a
    37d8:	012a0075 			; <UNDEFINED> instruction: 0x012a0075
    37dc:	00740251 	rsbseq	r0, r4, r1, asr r2
    37e0:	0253012a 	subseq	r0, r3, #-2147483638	; 0x8000000a
    37e4:	2b00007d 	blcs	39e0 <_start-0x4620>
    37e8:	00008b58 	andeq	r8, r0, r8, asr fp
    37ec:	00000e52 	andeq	r0, r0, r2, asr lr
    37f0:	008b6c29 	addeq	r6, fp, r9, lsr #24
    37f4:	000e5d00 	andeq	r5, lr, r0, lsl #26
    37f8:	000ca700 	andeq	sl, ip, r0, lsl #14
    37fc:	50012a00 	andpl	r2, r1, r0, lsl #20
    3800:	99940305 	ldmibls	r4, {r0, r2, r8, r9}
    3804:	012a0000 			; <UNDEFINED> instruction: 0x012a0000
    3808:	80030551 	andhi	r0, r3, r1, asr r5
    380c:	2a000099 	bcs	3a78 <_start-0x4588>
    3810:	03055201 	movweq	r5, #20993	; 0x5201
    3814:	0000995c 	andeq	r9, r0, ip, asr r9
    3818:	0253012a 	subseq	r0, r3, #-2147483638	; 0x8000000a
    381c:	2b007708 	blcs	21444 <__bss_end__+0x174ac>
    3820:	00008b70 	andeq	r8, r0, r0, ror fp
    3824:	00000e68 	andeq	r0, r0, r8, ror #28
    3828:	010d0800 	tsteq	sp, r0, lsl #16
    382c:	0cc10000 	stcleq	0, cr0, [r1], {0}
    3830:	c7090000 	strgt	r0, [r9, -r0]
    3834:	3f000000 	svccc	0x00000000
    3838:	01140800 	tsteq	r4, r0, lsl #16
    383c:	0cd10000 	ldcleq	0, cr0, [r1], {0}
    3840:	c7090000 	strgt	r0, [r9, -r0]
    3844:	04000000 	streq	r0, [r0], #-0
    3848:	0cc10e00 	stcleq	14, cr0, [r1], {0}
    384c:	232c0000 			; <UNDEFINED> instruction: 0x232c0000
    3850:	01000007 	tsteq	r0, r7
    3854:	00010737 	andeq	r0, r1, r7, lsr r7
    3858:	00899c00 	addeq	r9, r9, r0, lsl #24
    385c:	00004000 	andeq	r4, r0, r0
    3860:	429c0100 	addsmi	r0, ip, #0, 2
    3864:	2200000d 	andcs	r0, r0, #13
    3868:	00747364 	rsbseq	r7, r4, r4, ror #6
    386c:	01073701 	tsteq	r7, r1, lsl #14
    3870:	0bfd0000 	bleq	fff43878 <__bss_end__+0xfff398e0>
    3874:	6e220000 	cdpvs	0, 2, cr0, cr2, cr0, {0}
    3878:	25370100 	ldrcs	r0, [r7, #-256]!	; 0xffffff00
    387c:	35000000 	strcc	r0, [r0, #-0]
    3880:	2200000c 	andcs	r0, r0, #12
    3884:	37010070 	smlsdxcc	r1, r0, r0, r0
    3888:	00000107 	andeq	r0, r0, r7, lsl #2
    388c:	00000c56 	andeq	r0, r0, r6, asr ip
    3890:	000b592d 	andeq	r5, fp, sp, lsr #18
    3894:	07370100 	ldreq	r0, [r7, -r0, lsl #2]!
    3898:	8c000001 	stchi	0, cr0, [r0], {1}
    389c:	2400000c 	strcs	r0, [r0], #-12
    38a0:	006e656c 	rsbeq	r6, lr, ip, ror #10
    38a4:	00253901 	eoreq	r3, r5, r1, lsl #18
    38a8:	0caa0000 	stceq	0, cr0, [sl]
    38ac:	73270000 			; <UNDEFINED> instruction: 0x73270000
    38b0:	073d0100 	ldreq	r0, [sp, -r0, lsl #2]!
    38b4:	01000001 	tsteq	r0, r1
    38b8:	702f0050 	eorvc	r0, pc, r0, asr r0	; <UNPREDICTABLE>
    38bc:	01006461 	tsteq	r0, r1, ror #8
    38c0:	0001072e 	andeq	r0, r1, lr, lsr #14
    38c4:	00897000 	addeq	r7, r9, r0
    38c8:	00002c00 	andeq	r2, r0, r0, lsl #24
    38cc:	929c0100 	addsls	r0, ip, #0, 2
    38d0:	2200000d 	andcs	r0, r0, #13
    38d4:	2e010070 	mcrcs	0, 0, r0, cr1, cr0, {3}
    38d8:	00000107 	andeq	r0, r0, r7, lsl #2
    38dc:	00000d09 	andeq	r0, r0, r9, lsl #26
    38e0:	0000b02d 	andeq	fp, r0, sp, lsr #32
    38e4:	072e0100 	streq	r0, [lr, -r0, lsl #2]!
    38e8:	34000001 	strcc	r0, [r0], #-1
    38ec:	2300000d 	movwcs	r0, #13
    38f0:	0000072b 	andeq	r0, r0, fp, lsr #14
    38f4:	00252e01 	eoreq	r2, r5, r1, lsl #28
    38f8:	52010000 	andpl	r0, r1, #0
    38fc:	6e656c27 	cdpvs	12, 6, cr6, cr5, cr7, {1}
    3900:	252f0100 	strcs	r0, [pc, #-256]!	; 3808 <_start-0x47f8>
    3904:	01000000 	mrseq	r0, (UNDEF: 0)
    3908:	472c0051 			; <UNDEFINED> instruction: 0x472c0051
    390c:	01000007 	tsteq	r0, r7
    3910:	00002527 	andeq	r2, r0, r7, lsr #10
    3914:	00895c00 	addeq	r5, r9, r0, lsl #24
    3918:	00001400 	andeq	r1, r0, r0, lsl #8
    391c:	b99c0100 	ldmiblt	ip, {r8}
    3920:	2200000d 	andcs	r0, r0, #13
    3924:	27010063 	strcs	r0, [r1, -r3, rrx]
    3928:	00000025 	andeq	r0, r0, r5, lsr #32
    392c:	00000d55 	andeq	r0, r0, r5, asr sp
    3930:	070b3000 	streq	r3, [fp, -r0]
    3934:	1f010000 	svcne	0x00010000
    3938:	00008b8c 	andeq	r8, r0, ip, lsl #23
    393c:	00000054 	andeq	r0, r0, r4, asr r0
    3940:	0e3d9c01 	cdpeq	12, 3, cr9, cr13, cr1, {0}
    3944:	3f2d0000 	svccc	0x002d0000
    3948:	01000007 	tsteq	r0, r7
    394c:	0008981f 	andeq	r9, r8, pc, lsl r8
    3950:	000d8300 	andeq	r8, sp, r0, lsl #6
    3954:	07312d00 	ldreq	r2, [r1, -r0, lsl #26]!
    3958:	1f010000 	svcne	0x00010000
    395c:	000008b8 			; <UNDEFINED> instruction: 0x000008b8
    3960:	00000da4 	andeq	r0, r0, r4, lsr #27
    3964:	0001fa25 	andeq	pc, r1, r5, lsr #20
    3968:	000e4d00 	andeq	r4, lr, r0, lsl #26
    396c:	64030500 	strvs	r0, [r3], #-1280	; 0xfffffb00
    3970:	2b000099 	blcs	3bdc <_start-0x4424>
    3974:	00008bb4 			; <UNDEFINED> instruction: 0x00008bb4
    3978:	00000e52 	andeq	r0, r0, r2, asr lr
    397c:	008bc829 	addeq	ip, fp, r9, lsr #16
    3980:	000e5d00 	andeq	r5, lr, r0, lsl #26
    3984:	000e3300 	andeq	r3, lr, r0, lsl #6
    3988:	50012a00 	andpl	r2, r1, r0, lsl #20
    398c:	99cc0305 	stmibls	ip, {r0, r2, r8, r9}^
    3990:	012a0000 			; <UNDEFINED> instruction: 0x012a0000
    3994:	80030551 	andhi	r0, r3, r1, asr r5
    3998:	2a000099 	bcs	3c04 <_start-0x43fc>
    399c:	03055201 	movweq	r5, #20993	; 0x5201
    39a0:	00009964 	andeq	r9, r0, r4, ror #18
    39a4:	0253012a 	subseq	r0, r3, #-2147483638	; 0x8000000a
    39a8:	2b002008 	blcs	b9d0 <__bss_end__+0x1a38>
    39ac:	00008bcc 	andeq	r8, r0, ip, asr #23
    39b0:	00000e68 	andeq	r0, r0, r8, ror #28
    39b4:	01140800 	tsteq	r4, r0, lsl #16
    39b8:	0e4d0000 	cdpeq	0, 4, cr0, cr13, cr0, {0}
    39bc:	c7090000 	strgt	r0, [r9, -r0]
    39c0:	0e000000 	cdpeq	0, 0, cr0, cr0, cr0, {0}
    39c4:	0e3d0e00 	cdpeq	14, 3, cr0, cr13, cr0, {0}
    39c8:	93310000 	teqls	r1, #0
    39cc:	93000005 	movwls	r0, #5
    39d0:	06000005 	streq	r0, [r0], -r5
    39d4:	06b5311e 	ssateq	r3, #22, lr, lsl #2
    39d8:	06b50000 	ldrteq	r0, [r5], r0
    39dc:	29060000 	stmdbcs	r6, {}	; <UNPREDICTABLE>
    39e0:	0005c831 	andeq	ip, r5, r1, lsr r8
    39e4:	0005c800 	andeq	ip, r5, r0, lsl #16
    39e8:	00650600 	rsbeq	r0, r5, r0, lsl #12
    39ec:	0000094c 	andeq	r0, r0, ip, asr #18
    39f0:	09f40004 	ldmibeq	r4!, {r2}^
    39f4:	01040000 	mrseq	r0, (UNDEF: 4)
    39f8:	000003a4 	andeq	r0, r0, r4, lsr #7
    39fc:	0007540c 	andeq	r5, r7, ip, lsl #8
    3a00:	0006de00 	andeq	sp, r6, r0, lsl #28
    3a04:	008ea000 	addeq	sl, lr, r0
    3a08:	0000e800 	andeq	lr, r0, r0, lsl #16
    3a0c:	00063f00 	andeq	r3, r6, r0, lsl #30
    3a10:	05040200 	streq	r0, [r4, #-512]	; 0xfffffe00
    3a14:	00746e69 	rsbseq	r6, r4, r9, ror #28
    3a18:	57070403 	strpl	r0, [r7, -r3, lsl #8]
    3a1c:	03000000 	movweq	r0, #0
    3a20:	02c80601 	sbceq	r0, r8, #1048576	; 0x100000
    3a24:	02030000 	andeq	r0, r3, #0
    3a28:	0002e205 	andeq	lr, r2, r5, lsl #4
    3a2c:	05040300 	streq	r0, [r4, #-768]	; 0xfffffd00
    3a30:	000000a0 	andeq	r0, r0, r0, lsr #1
    3a34:	9b050803 	blls	145a48 <__bss_end__+0x13bab0>
    3a38:	04000000 	streq	r0, [r0], #-0
    3a3c:	00000679 	andeq	r0, r0, r9, ror r6
    3a40:	005a2e02 	subseq	r2, sl, r2, lsl #28
    3a44:	01030000 	mrseq	r0, (UNDEF: 3)
    3a48:	0002c608 	andeq	ip, r2, r8, lsl #12
    3a4c:	07020300 	streq	r0, [r2, -r0, lsl #6]
    3a50:	0000020e 	andeq	r0, r0, lr, lsl #4
    3a54:	00063704 	andeq	r3, r6, r4, lsl #14
    3a58:	73340200 	teqvc	r4, #0, 4
    3a5c:	03000000 	movweq	r0, #0
    3a60:	00520704 	subseq	r0, r2, r4, lsl #14
    3a64:	08030000 	stmdaeq	r3, {}	; <UNPREDICTABLE>
    3a68:	00004d07 	andeq	r4, r0, r7, lsl #26
    3a6c:	02b40400 	adcseq	r0, r4, #0, 8
    3a70:	07030000 	streq	r0, [r3, -r0]
    3a74:	00000025 	andeq	r0, r0, r5, lsr #32
    3a78:	0002a304 	andeq	sl, r2, r4, lsl #6
    3a7c:	412c0400 			; <UNDEFINED> instruction: 0x412c0400
    3a80:	04000000 	streq	r0, [r0], #-0
    3a84:	0000038d 	andeq	r0, r0, sp, lsl #7
    3a88:	00417204 	subeq	r7, r1, r4, lsl #4
    3a8c:	51050000 	mrspl	r0, (UNDEF: 5)
    3a90:	05000002 	streq	r0, [r0, #-2]
    3a94:	002c0165 	eoreq	r0, ip, r5, ror #2
    3a98:	04060000 	streq	r0, [r6], #-0
    3a9c:	00cda604 	sbceq	sl, sp, r4, lsl #12
    3aa0:	4b070000 	blmi	1c3aa8 <__bss_end__+0x1b9b10>
    3aa4:	04000002 	streq	r0, [r0], #-2
    3aa8:	0000a2a8 	andeq	sl, r0, r8, lsr #5
    3aac:	01dd0700 	bicseq	r0, sp, r0, lsl #14
    3ab0:	a9040000 	stmdbge	r4, {}	; <UNPREDICTABLE>
    3ab4:	000000cd 	andeq	r0, r0, sp, asr #1
    3ab8:	005a0800 	subseq	r0, sl, r0, lsl #16
    3abc:	00dd0000 	sbcseq	r0, sp, r0
    3ac0:	dd090000 	stcle	0, cr0, [r9, #-0]
    3ac4:	03000000 	movweq	r0, #0
    3ac8:	07040300 	streq	r0, [r4, -r0, lsl #6]
    3acc:	00000277 	andeq	r0, r0, r7, ror r2
    3ad0:	a304080a 	movwge	r0, #18442	; 0x480a
    3ad4:	00000105 	andeq	r0, r0, r5, lsl #2
    3ad8:	0003770b 	andeq	r7, r3, fp, lsl #14
    3adc:	25a50400 	strcs	r0, [r5, #1024]!	; 0x400
    3ae0:	00000000 	andeq	r0, r0, r0
    3ae4:	00037f0b 	andeq	r7, r3, fp, lsl #30
    3ae8:	aeaa0400 	cdpge	4, 10, cr0, cr10, cr0, {0}
    3aec:	04000000 	streq	r0, [r0], #-0
    3af0:	030a0400 	movweq	r0, #41984	; 0xa400
    3af4:	ab040000 	blge	103afc <__bss_end__+0xf9b64>
    3af8:	000000e4 	andeq	r0, r0, r4, ror #1
    3afc:	00019a04 	andeq	r9, r1, r4, lsl #20
    3b00:	81af0400 			; <UNDEFINED> instruction: 0x81af0400
    3b04:	0c000000 	stceq	0, cr0, [r0], {-0}
    3b08:	23040d04 	movwcs	r0, #19716	; 0x4d04
    3b0c:	03000001 	movweq	r0, #1
    3b10:	02cf0801 	sbceq	r0, pc, #65536	; 0x10000
    3b14:	230e0000 	movwcs	r0, #57344	; 0xe000
    3b18:	04000001 	streq	r0, [r0], #-1
    3b1c:	00000421 	andeq	r0, r0, r1, lsr #8
    3b20:	00731606 	rsbseq	r1, r3, r6, lsl #12
    3b24:	ab0f0000 	blge	3c3b2c <__bss_end__+0x3b9b94>
    3b28:	18000001 	stmdane	r0, {r0}
    3b2c:	018d2d06 	orreq	r2, sp, r6, lsl #26
    3b30:	2b0b0000 	blcs	2c3b38 <__bss_end__+0x2b9ba0>
    3b34:	06000003 	streq	r0, [r0], -r3
    3b38:	00018d2f 	andeq	r8, r1, pc, lsr #26
    3b3c:	5f100000 	svcpl	0x00100000
    3b40:	3006006b 	andcc	r0, r6, fp, rrx
    3b44:	00000025 	andeq	r0, r0, r5, lsr #32
    3b48:	03620b04 	cmneq	r2, #4, 22	; 0x1000
    3b4c:	30060000 	andcc	r0, r6, r0
    3b50:	00000025 	andeq	r0, r0, r5, lsr #32
    3b54:	01940b08 	orrseq	r0, r4, r8, lsl #22
    3b58:	30060000 	andcc	r0, r6, r0
    3b5c:	00000025 	andeq	r0, r0, r5, lsr #32
    3b60:	046f0b0c 	strbteq	r0, [pc], #-2828	; 3b68 <_start-0x4498>
    3b64:	30060000 	andcc	r0, r6, r0
    3b68:	00000025 	andeq	r0, r0, r5, lsr #32
    3b6c:	785f1010 	ldmdavc	pc, {r4, ip}^	; <UNPREDICTABLE>
    3b70:	93310600 	teqls	r1, #0, 12
    3b74:	14000001 	strne	r0, [r0], #-1
    3b78:	3a040d00 	bcc	106f80 <__bss_end__+0xfcfe8>
    3b7c:	08000001 	stmdaeq	r0, {r0}
    3b80:	0000012f 	andeq	r0, r0, pc, lsr #2
    3b84:	000001a3 	andeq	r0, r0, r3, lsr #3
    3b88:	0000dd09 	andeq	sp, r0, r9, lsl #26
    3b8c:	0f000000 	svceq	0x00000000
    3b90:	000001d8 	ldrdeq	r0, [r0], -r8
    3b94:	1c350624 	ldcne	6, cr0, [r5], #-144	; 0xffffff70
    3b98:	0b000002 	bleq	3ba8 <_start-0x4458>
    3b9c:	00000092 	muleq	r0, r2, r0
    3ba0:	00253706 	eoreq	r3, r5, r6, lsl #14
    3ba4:	0b000000 	bleq	3bac <_start-0x4454>
    3ba8:	00000395 	muleq	r0, r5, r3
    3bac:	00253806 	eoreq	r3, r5, r6, lsl #16
    3bb0:	0b040000 	bleq	103bb8 <__bss_end__+0xf9c20>
    3bb4:	000000b5 	strheq	r0, [r0], -r5
    3bb8:	00253906 	eoreq	r3, r5, r6, lsl #18
    3bbc:	0b080000 	bleq	203bc4 <__bss_end__+0x1f9c2c>
    3bc0:	000004f7 	strdeq	r0, [r0], -r7
    3bc4:	00253a06 	eoreq	r3, r5, r6, lsl #20
    3bc8:	0b0c0000 	bleq	303bd0 <__bss_end__+0x2f9c38>
    3bcc:	00000287 	andeq	r0, r0, r7, lsl #5
    3bd0:	00253b06 	eoreq	r3, r5, r6, lsl #22
    3bd4:	0b100000 	bleq	403bdc <__bss_end__+0x3f9c44>
    3bd8:	0000026d 	andeq	r0, r0, sp, ror #4
    3bdc:	00253c06 	eoreq	r3, r5, r6, lsl #24
    3be0:	0b140000 	bleq	503be8 <__bss_end__+0x4f9c50>
    3be4:	00000474 	andeq	r0, r0, r4, ror r4
    3be8:	00253d06 	eoreq	r3, r5, r6, lsl #26
    3bec:	0b180000 	bleq	603bf4 <__bss_end__+0x5f9c5c>
    3bf0:	000002ec 	andeq	r0, r0, ip, ror #5
    3bf4:	00253e06 	eoreq	r3, r5, r6, lsl #28
    3bf8:	0b1c0000 	bleq	703c00 <__bss_end__+0x6f9c68>
    3bfc:	000004be 			; <UNDEFINED> instruction: 0x000004be
    3c00:	00253f06 	eoreq	r3, r5, r6, lsl #30
    3c04:	00200000 	eoreq	r0, r0, r0
    3c08:	0000f511 	andeq	pc, r0, r1, lsl r5	; <UNPREDICTABLE>
    3c0c:	06010800 	streq	r0, [r1], -r0, lsl #16
    3c10:	00025c48 	andeq	r5, r2, r8, asr #24
    3c14:	01870b00 	orreq	r0, r7, r0, lsl #22
    3c18:	49060000 	stmdbmi	r6, {}	; <UNPREDICTABLE>
    3c1c:	0000025c 	andeq	r0, r0, ip, asr r2
    3c20:	00000b00 	andeq	r0, r0, r0, lsl #22
    3c24:	4a060000 	bmi	183c2c <__bss_end__+0x179c94>
    3c28:	0000025c 	andeq	r0, r0, ip, asr r2
    3c2c:	04131280 	ldreq	r1, [r3], #-640	; 0xfffffd80
    3c30:	4c060000 	stcmi	0, cr0, [r6], {-0}
    3c34:	0000012f 	andeq	r0, r0, pc, lsr #2
    3c38:	1a120100 	bne	484040 <__bss_end__+0x47a0a8>
    3c3c:	06000001 	streq	r0, [r0], -r1
    3c40:	00012f4f 	andeq	r2, r1, pc, asr #30
    3c44:	00010400 	andeq	r0, r1, r0, lsl #8
    3c48:	00011b08 	andeq	r1, r1, r8, lsl #22
    3c4c:	00026c00 	andeq	r6, r2, r0, lsl #24
    3c50:	00dd0900 	sbcseq	r0, sp, r0, lsl #18
    3c54:	001f0000 	andseq	r0, pc, r0
    3c58:	00029011 	andeq	r9, r2, r1, lsl r0
    3c5c:	06019000 	streq	r9, [r1], -r0
    3c60:	0002aa5b 	andeq	sl, r2, fp, asr sl
    3c64:	032b0b00 			; <UNDEFINED> instruction: 0x032b0b00
    3c68:	5c060000 	stcpl	0, cr0, [r6], {-0}
    3c6c:	000002aa 	andeq	r0, r0, sl, lsr #5
    3c70:	03430b00 	movteq	r0, #15104	; 0x3b00
    3c74:	5d060000 	stcpl	0, cr0, [r6, #-0]
    3c78:	00000025 	andeq	r0, r0, r5, lsr #32
    3c7c:	018f0b04 	orreq	r0, pc, r4, lsl #22
    3c80:	5f060000 	svcpl	0x00060000
    3c84:	000002b0 			; <UNDEFINED> instruction: 0x000002b0
    3c88:	00f50b08 	rscseq	r0, r5, r8, lsl #22
    3c8c:	60060000 	andvs	r0, r6, r0
    3c90:	0000021c 	andeq	r0, r0, ip, lsl r2
    3c94:	040d0088 	streq	r0, [sp], #-136	; 0xffffff78
    3c98:	0000026c 	andeq	r0, r0, ip, ror #4
    3c9c:	0002c008 	andeq	ip, r2, r8
    3ca0:	0002c000 	andeq	ip, r2, r0
    3ca4:	00dd0900 	sbcseq	r0, sp, r0, lsl #18
    3ca8:	001f0000 	andseq	r0, pc, r0
    3cac:	02c6040d 	sbceq	r0, r6, #218103808	; 0xd000000
    3cb0:	0f130000 	svceq	0x00130000
    3cb4:	000002f6 	strdeq	r0, [r0], -r6
    3cb8:	ec730608 	ldcl	6, cr0, [r3], #-32	; 0xffffffe0
    3cbc:	0b000002 	bleq	3ccc <_start-0x4334>
    3cc0:	000000af 	andeq	r0, r0, pc, lsr #1
    3cc4:	02ec7406 	rsceq	r7, ip, #100663296	; 0x6000000
    3cc8:	0b000000 	bleq	3cd0 <_start-0x4330>
    3ccc:	0000000c 	andeq	r0, r0, ip
    3cd0:	00257506 	eoreq	r7, r5, r6, lsl #10
    3cd4:	00040000 	andeq	r0, r4, r0
    3cd8:	005a040d 	subseq	r0, sl, sp, lsl #8
    3cdc:	150f0000 	strne	r0, [pc, #-0]	; 3ce4 <_start-0x431c>
    3ce0:	68000003 	stmdavs	r0, {r0, r1}
    3ce4:	041cb306 	ldreq	fp, [ip], #-774	; 0xfffffcfa
    3ce8:	5f100000 	svcpl	0x00100000
    3cec:	b4060070 	strlt	r0, [r6], #-112	; 0xffffff90
    3cf0:	000002ec 	andeq	r0, r0, ip, ror #5
    3cf4:	725f1000 	subsvc	r1, pc, #0
    3cf8:	25b50600 	ldrcs	r0, [r5, #1536]!	; 0x600
    3cfc:	04000000 	streq	r0, [r0], #-0
    3d00:	00775f10 	rsbseq	r5, r7, r0, lsl pc
    3d04:	0025b606 	eoreq	fp, r5, r6, lsl #12
    3d08:	0b080000 	bleq	203d10 <__bss_end__+0x1f9d78>
    3d0c:	00000113 	andeq	r0, r0, r3, lsl r1
    3d10:	003ab706 	eorseq	fp, sl, r6, lsl #14
    3d14:	0b0c0000 	bleq	303d1c <__bss_end__+0x2f9d84>
    3d18:	000001f4 	strdeq	r0, [r0], -r4
    3d1c:	003ab806 	eorseq	fp, sl, r6, lsl #16
    3d20:	100e0000 	andne	r0, lr, r0
    3d24:	0066625f 	rsbeq	r6, r6, pc, asr r2
    3d28:	02c7b906 	sbceq	fp, r7, #98304	; 0x18000
    3d2c:	0b100000 	bleq	403d34 <__bss_end__+0x3f9d9c>
    3d30:	0000006c 	andeq	r0, r0, ip, rrx
    3d34:	0025ba06 	eoreq	fp, r5, r6, lsl #20
    3d38:	0b180000 	bleq	603d40 <__bss_end__+0x5f9da8>
    3d3c:	00000103 	andeq	r0, r0, r3, lsl #2
    3d40:	011bc106 	tsteq	fp, r6, lsl #2
    3d44:	0b1c0000 	bleq	703d4c <__bss_end__+0x6f9db4>
    3d48:	00000a78 	andeq	r0, r0, r8, ror sl
    3d4c:	0577c306 	ldrbeq	ip, [r7, #-774]!	; 0xfffffcfa
    3d50:	0b200000 	bleq	803d58 <__bss_end__+0x7f9dc0>
    3d54:	0000060c 	andeq	r0, r0, ip, lsl #12
    3d58:	05a1c506 	streq	ip, [r1, #1286]!	; 0x506
    3d5c:	0b240000 	bleq	903d64 <__bss_end__+0x8f9dcc>
    3d60:	00000387 	andeq	r0, r0, r7, lsl #7
    3d64:	05c5c806 	strbeq	ip, [r5, #2054]	; 0x806
    3d68:	0b280000 	bleq	a03d70 <__bss_end__+0x9f9dd8>
    3d6c:	000004d8 	ldrdeq	r0, [r0], -r8
    3d70:	05dfc906 	ldrbeq	ip, [pc, #2310]	; 467e <_start-0x3982>
    3d74:	102c0000 	eorne	r0, ip, r0
    3d78:	0062755f 	rsbeq	r7, r2, pc, asr r5
    3d7c:	02c7cc06 	sbceq	ip, r7, #1536	; 0x600
    3d80:	10300000 	eorsne	r0, r0, r0
    3d84:	0070755f 	rsbseq	r7, r0, pc, asr r5
    3d88:	02eccd06 	rsceq	ip, ip, #384	; 0x180
    3d8c:	10380000 	eorsne	r0, r8, r0
    3d90:	0072755f 	rsbseq	r7, r2, pc, asr r5
    3d94:	0025ce06 	eoreq	ip, r5, r6, lsl #28
    3d98:	0b3c0000 	bleq	f03da0 <__bss_end__+0xef9e08>
    3d9c:	000000a9 	andeq	r0, r0, r9, lsr #1
    3da0:	05e5d106 	strbeq	sp, [r5, #262]!	; 0x106
    3da4:	0b400000 	bleq	1003dac <__bss_end__+0xff9e14>
    3da8:	000004b0 			; <UNDEFINED> instruction: 0x000004b0
    3dac:	05f5d206 	ldrbeq	sp, [r5, #518]!	; 0x206
    3db0:	10430000 	subne	r0, r3, r0
    3db4:	00626c5f 	rsbeq	r6, r2, pc, asr ip
    3db8:	02c7d506 	sbceq	sp, r7, #25165824	; 0x1800000
    3dbc:	0b440000 	bleq	1103dc4 <__bss_end__+0x10f9e2c>
    3dc0:	00000138 	andeq	r0, r0, r8, lsr r1
    3dc4:	0025d806 	eoreq	sp, r5, r6, lsl #16
    3dc8:	0b4c0000 	bleq	1303dd0 <__bss_end__+0x12f9e38>
    3dcc:	00000149 	andeq	r0, r0, r9, asr #2
    3dd0:	008cd906 	addeq	sp, ip, r6, lsl #18
    3dd4:	0b500000 	bleq	1403ddc <__bss_end__+0x13f9e44>
    3dd8:	00000a19 	andeq	r0, r0, r9, lsl sl
    3ddc:	043adc06 	ldrteq	sp, [sl], #-3078	; 0xfffff3fa
    3de0:	0b540000 	bleq	1503de8 <__bss_end__+0x14f9e50>
    3de4:	0000025f 	andeq	r0, r0, pc, asr r2
    3de8:	0110e006 	tsteq	r0, r6
    3dec:	0b580000 	bleq	1603df4 <__bss_end__+0x15f9e5c>
    3df0:	0000031d 	andeq	r0, r0, sp, lsl r3
    3df4:	0105e206 	tsteq	r5, r6, lsl #4
    3df8:	0b5c0000 	bleq	1703e00 <__bss_end__+0x16f9e68>
    3dfc:	00000265 	andeq	r0, r0, r5, ror #4
    3e00:	0025e306 	eoreq	lr, r5, r6, lsl #6
    3e04:	00640000 	rsbeq	r0, r4, r0
    3e08:	00002514 	andeq	r2, r0, r4, lsl r5
    3e0c:	00043a00 	andeq	r3, r4, r0, lsl #20
    3e10:	043a1500 	ldrteq	r1, [sl], #-1280	; 0xfffffb00
    3e14:	1b150000 	blne	543e1c <__bss_end__+0x539e84>
    3e18:	15000001 	strne	r0, [r0, #-1]
    3e1c:	0000011d 	andeq	r0, r0, sp, lsl r1
    3e20:	00002515 	andeq	r2, r0, r5, lsl r5
    3e24:	040d0000 	streq	r0, [sp], #-0
    3e28:	00000445 	andeq	r0, r0, r5, asr #8
    3e2c:	00043a0e 	andeq	r3, r4, lr, lsl #20
    3e30:	036a1600 	cmneq	sl, #0, 12
    3e34:	04280000 	strteq	r0, [r8], #-0
    3e38:	77023806 	strvc	r3, [r2, -r6, lsl #16]
    3e3c:	17000005 	strne	r0, [r0, -r5]
    3e40:	000002db 	ldrdeq	r0, [r0], -fp
    3e44:	25023a06 	strcs	r3, [r2, #-2566]	; 0xfffff5fa
    3e48:	00000000 	andeq	r0, r0, r0
    3e4c:	00048417 	andeq	r8, r4, r7, lsl r4
    3e50:	023f0600 	eorseq	r0, pc, #0, 12
    3e54:	0000064c 	andeq	r0, r0, ip, asr #12
    3e58:	01e41704 	mvneq	r1, r4, lsl #14
    3e5c:	3f060000 	svccc	0x00060000
    3e60:	00064c02 	andeq	r4, r6, r2, lsl #24
    3e64:	a3170800 	tstge	r7, #0, 16
    3e68:	06000001 	streq	r0, [r0], -r1
    3e6c:	064c023f 			; <UNDEFINED> instruction: 0x064c023f
    3e70:	170c0000 	strne	r0, [ip, -r0]
    3e74:	0000033e 	andeq	r0, r0, lr, lsr r3
    3e78:	25024106 	strcs	r4, [r2, #-262]	; 0xfffffefa
    3e7c:	10000000 	andne	r0, r0, r0
    3e80:	00001a17 	andeq	r1, r0, r7, lsl sl
    3e84:	02420600 	subeq	r0, r2, #0, 12
    3e88:	0000082e 	andeq	r0, r0, lr, lsr #16
    3e8c:	04491714 	strbeq	r1, [r9], #-1812	; 0xfffff8ec
    3e90:	44060000 	strmi	r0, [r6], #-0
    3e94:	00002502 	andeq	r2, r0, r2, lsl #10
    3e98:	48173000 	ldmdami	r7, {ip, sp}
    3e9c:	06000003 	streq	r0, [r0], -r3
    3ea0:	059b0245 	ldreq	r0, [fp, #581]	; 0x245
    3ea4:	17340000 	ldrne	r0, [r4, -r0]!
    3ea8:	00000298 	muleq	r0, r8, r2
    3eac:	25024706 	strcs	r4, [r2, #-1798]	; 0xfffff8fa
    3eb0:	38000000 	stmdacc	r0, {}	; <UNPREDICTABLE>
    3eb4:	00035817 	andeq	r5, r3, r7, lsl r8
    3eb8:	02490600 	subeq	r0, r9, #0, 12
    3ebc:	00000849 	andeq	r0, r0, r9, asr #16
    3ec0:	0243173c 	subeq	r1, r3, #60, 14	; 0xf00000
    3ec4:	4c060000 	stcmi	0, cr0, [r6], {-0}
    3ec8:	00018d02 	andeq	r8, r1, r2, lsl #26
    3ecc:	c2174000 	andsgt	r4, r7, #0
    3ed0:	06000001 	streq	r0, [r0], -r1
    3ed4:	0025024d 	eoreq	r0, r5, sp, asr #4
    3ed8:	17440000 	strbne	r0, [r4, -r0]
    3edc:	000004f2 	strdeq	r0, [r0], -r2
    3ee0:	8d024e06 	stchi	14, cr4, [r2, #-24]	; 0xffffffe8
    3ee4:	48000001 	stmdami	r0, {r0}
    3ee8:	0002aa17 	andeq	sl, r2, r7, lsl sl
    3eec:	024f0600 	subeq	r0, pc, #0, 12
    3ef0:	0000084f 	andeq	r0, r0, pc, asr #16
    3ef4:	01ec174c 	mvneq	r1, ip, asr #14
    3ef8:	52060000 	andpl	r0, r6, #0
    3efc:	00002502 	andeq	r2, r0, r2, lsl #10
    3f00:	41175000 	tstmi	r7, r0
    3f04:	06000001 	streq	r0, [r0], -r1
    3f08:	011d0253 	tsteq	sp, r3, asr r2
    3f0c:	17540000 	ldrbne	r0, [r4, -r0]
    3f10:	000002d4 	ldrdeq	r0, [r0], -r4
    3f14:	0c027606 	stceq	6, cr7, [r2], {6}
    3f18:	58000008 	stmdapl	r0, {r3}
    3f1c:	00029018 	andeq	r9, r2, r8, lsl r0
    3f20:	027a0600 	rsbseq	r0, sl, #0, 12
    3f24:	000002aa 	andeq	r0, r0, sl, lsr #5
    3f28:	21180148 	tstcs	r8, r8, asr #2
    3f2c:	06000002 	streq	r0, [r0], -r2
    3f30:	026c027b 	rsbeq	r0, ip, #-1342177273	; 0xb0000007
    3f34:	014c0000 	mrseq	r0, (UNDEF: 76)
    3f38:	00049e18 	andeq	r9, r4, r8, lsl lr
    3f3c:	027f0600 	rsbseq	r0, pc, #0, 12
    3f40:	00000860 	andeq	r0, r0, r0, ror #16
    3f44:	0b1802dc 	bleq	604abc <__bss_end__+0x5fab24>
    3f48:	06000001 	streq	r0, [r0], -r1
    3f4c:	06110284 	ldreq	r0, [r1], -r4, lsl #5
    3f50:	02e00000 	rsceq	r0, r0, #0
    3f54:	0000f018 	andeq	pc, r0, r8, lsl r0	; <UNPREDICTABLE>
    3f58:	02850600 	addeq	r0, r5, #0, 12
    3f5c:	0000086c 	andeq	r0, r0, ip, ror #16
    3f60:	0d0002ec 	sfmeq	f0, 4, [r0, #-944]	; 0xfffffc50
    3f64:	00041c04 	andeq	r1, r4, r4, lsl #24
    3f68:	00251400 	eoreq	r1, r5, r0, lsl #8
    3f6c:	059b0000 	ldreq	r0, [fp]
    3f70:	3a150000 	bcc	543f78 <__bss_end__+0x539fe0>
    3f74:	15000004 	strne	r0, [r0, #-4]
    3f78:	0000011b 	andeq	r0, r0, fp, lsl r1
    3f7c:	00059b15 	andeq	r9, r5, r5, lsl fp
    3f80:	00251500 	eoreq	r1, r5, r0, lsl #10
    3f84:	0d000000 	stceq	0, cr0, [r0, #-0]
    3f88:	00012a04 	andeq	r2, r1, r4, lsl #20
    3f8c:	7d040d00 	stcvc	13, cr0, [r4, #-0]
    3f90:	14000005 	strne	r0, [r0], #-5
    3f94:	00000097 	muleq	r0, r7, r0
    3f98:	000005c5 	andeq	r0, r0, r5, asr #11
    3f9c:	00043a15 	andeq	r3, r4, r5, lsl sl
    3fa0:	011b1500 	tsteq	fp, r0, lsl #10
    3fa4:	97150000 	ldrls	r0, [r5, -r0]
    3fa8:	15000000 	strne	r0, [r0, #-0]
    3fac:	00000025 	andeq	r0, r0, r5, lsr #32
    3fb0:	a7040d00 	strge	r0, [r4, -r0, lsl #26]
    3fb4:	14000005 	strne	r0, [r0], #-5
    3fb8:	00000025 	andeq	r0, r0, r5, lsr #32
    3fbc:	000005df 	ldrdeq	r0, [r0], -pc	; <UNPREDICTABLE>
    3fc0:	00043a15 	andeq	r3, r4, r5, lsl sl
    3fc4:	011b1500 	tsteq	fp, r0, lsl #10
    3fc8:	0d000000 	stceq	0, cr0, [r0, #-0]
    3fcc:	0005cb04 	andeq	ip, r5, r4, lsl #22
    3fd0:	005a0800 	subseq	r0, sl, r0, lsl #16
    3fd4:	05f50000 	ldrbeq	r0, [r5, #0]!
    3fd8:	dd090000 	stcle	0, cr0, [r9, #-0]
    3fdc:	02000000 	andeq	r0, r0, #0
    3fe0:	005a0800 	subseq	r0, sl, r0, lsl #16
    3fe4:	06050000 	streq	r0, [r5], -r0
    3fe8:	dd090000 	stcle	0, cr0, [r9, #-0]
    3fec:	00000000 	andeq	r0, r0, r0
    3ff0:	03030500 	movweq	r0, #13568	; 0x3500
    3ff4:	1d060000 	stcne	0, cr0, [r6, #-0]
    3ff8:	0002f201 	andeq	pc, r2, r1, lsl #4
    3ffc:	047e1900 	ldrbteq	r1, [lr], #-2304	; 0xfffff700
    4000:	060c0000 	streq	r0, [ip], -r0
    4004:	06460121 	strbeq	r0, [r6], -r1, lsr #2
    4008:	2b170000 	blcs	5c4010 <__bss_end__+0x5ba078>
    400c:	06000003 	streq	r0, [r0], -r3
    4010:	06460123 	strbeq	r0, [r6], -r3, lsr #2
    4014:	17000000 	strne	r0, [r0, -r0]
    4018:	00000207 	andeq	r0, r0, r7, lsl #4
    401c:	25012406 	strcs	r2, [r1, #-1030]	; 0xfffffbfa
    4020:	04000000 	streq	r0, [r0], #-0
    4024:	0002fd17 	andeq	pc, r2, r7, lsl sp	; <UNPREDICTABLE>
    4028:	01250600 			; <UNDEFINED> instruction: 0x01250600
    402c:	0000064c 	andeq	r0, r0, ip, asr #12
    4030:	040d0008 	streq	r0, [sp], #-8
    4034:	00000611 	andeq	r0, r0, r1, lsl r6
    4038:	0605040d 	streq	r0, [r5], -sp, lsl #8
    403c:	12190000 	andsne	r0, r9, #0
    4040:	0e000000 	cdpeq	0, 0, cr0, cr0, cr0, {0}
    4044:	87013d06 	strhi	r3, [r1, -r6, lsl #26]
    4048:	17000006 	strne	r0, [r0, -r6]
    404c:	00000371 	andeq	r0, r0, r1, ror r3
    4050:	87013e06 	strhi	r3, [r1, -r6, lsl #28]
    4054:	00000006 	andeq	r0, r0, r6
    4058:	00039e17 	andeq	r9, r3, r7, lsl lr
    405c:	013f0600 	teqeq	pc, r0, lsl #12
    4060:	00000687 	andeq	r0, r0, r7, lsl #13
    4064:	041c1706 	ldreq	r1, [ip], #-1798	; 0xfffff8fa
    4068:	40060000 	andmi	r0, r6, r0
    406c:	00006101 	andeq	r6, r0, r1, lsl #2
    4070:	08000c00 	stmdaeq	r0, {sl, fp}
    4074:	00000061 	andeq	r0, r0, r1, rrx
    4078:	00000697 	muleq	r0, r7, r6
    407c:	0000dd09 	andeq	sp, r0, r9, lsl #26
    4080:	1a000200 	bne	4888 <_start-0x3778>
    4084:	025706d0 	subseq	r0, r7, #208, 12	; 0xd000000
    4088:	00000798 	muleq	r0, r8, r7
    408c:	00046217 	andeq	r6, r4, r7, lsl r2
    4090:	02590600 	subseq	r0, r9, #0, 12
    4094:	0000002c 	andeq	r0, r0, ip, lsr #32
    4098:	04061700 	streq	r1, [r6], #-1792	; 0xfffff900
    409c:	5a060000 	bpl	1840a4 <__bss_end__+0x17a10c>
    40a0:	00011d02 	andeq	r1, r1, r2, lsl #26
    40a4:	36170400 	ldrcc	r0, [r7], -r0, lsl #8
    40a8:	06000002 	streq	r0, [r0], -r2
    40ac:	0798025b 			; <UNDEFINED> instruction: 0x0798025b
    40b0:	17080000 	strne	r0, [r8, -r0]
    40b4:	000004c9 	andeq	r0, r0, r9, asr #9
    40b8:	a3025c06 	movwge	r5, #11270	; 0x2c06
    40bc:	24000001 	strcs	r0, [r0], #-1
    40c0:	0001b317 	andeq	fp, r1, r7, lsl r3
    40c4:	025d0600 	subseq	r0, sp, #0, 12
    40c8:	00000025 	andeq	r0, r0, r5, lsr #32
    40cc:	03261748 			; <UNDEFINED> instruction: 0x03261748
    40d0:	5e060000 	cdppl	0, 0, cr0, cr6, cr0, {0}
    40d4:	00007a02 	andeq	r7, r0, r2, lsl #20
    40d8:	df175000 	svcle	0x00175000
    40dc:	06000004 	streq	r0, [r0], -r4
    40e0:	0652025f 			; <UNDEFINED> instruction: 0x0652025f
    40e4:	17580000 	ldrbne	r0, [r8, -r0]
    40e8:	00000331 	andeq	r0, r0, r1, lsr r3
    40ec:	05026006 	streq	r6, [r2, #-6]
    40f0:	68000001 	stmdavs	r0, {r0}
    40f4:	0004e417 	andeq	lr, r4, r7, lsl r4
    40f8:	02610600 	rsbeq	r0, r1, #0, 12
    40fc:	00000105 	andeq	r0, r0, r5, lsl #2
    4100:	00841770 	addeq	r1, r4, r0, ror r7
    4104:	62060000 	andvs	r0, r6, #0
    4108:	00010502 	andeq	r0, r1, r2, lsl #10
    410c:	94177800 	ldrls	r7, [r7], #-2048	; 0xfffff800
    4110:	06000004 	streq	r0, [r0], -r4
    4114:	07a80263 	streq	r0, [r8, r3, ror #4]!
    4118:	17800000 	strne	r0, [r0, r0]
    411c:	0000022a 	andeq	r0, r0, sl, lsr #4
    4120:	b8026406 	stmdalt	r2, {r1, r2, sl, sp, lr}
    4124:	88000007 	stmdahi	r0, {r0, r1, r2}
    4128:	00042917 	andeq	r2, r4, r7, lsl r9
    412c:	02650600 	rsbeq	r0, r5, #0, 12
    4130:	00000025 	andeq	r0, r0, r5, lsr #32
    4134:	017917a0 	cmneq	r9, r0, lsr #15
    4138:	66060000 	strvs	r0, [r6], -r0
    413c:	00010502 	andeq	r0, r1, r2, lsl #10
    4140:	7517a400 	ldrvc	sl, [r7, #-1024]	; 0xfffffc00
    4144:	06000000 	streq	r0, [r0], -r0
    4148:	01050267 	tsteq	r5, r7, ror #4
    414c:	17ac0000 	strne	r0, [ip, r0]!
    4150:	00000168 	andeq	r0, r0, r8, ror #2
    4154:	05026806 	streq	r6, [r2, #-2054]	; 0xfffff7fa
    4158:	b4000001 	strlt	r0, [r0], #-1
    415c:	00002d17 	andeq	r2, r0, r7, lsl sp
    4160:	02690600 	rsbeq	r0, r9, #0, 12
    4164:	00000105 	andeq	r0, r0, r5, lsl #2
    4168:	003c17bc 	ldrhteq	r1, [ip], -ip
    416c:	6a060000 	bvs	184174 <__bss_end__+0x17a1dc>
    4170:	00010502 	andeq	r0, r1, r2, lsl #10
    4174:	d917c400 	ldmdble	r7, {sl, lr, pc}
    4178:	06000002 	streq	r0, [r0], -r2
    417c:	0025026b 	eoreq	r0, r5, fp, ror #4
    4180:	00cc0000 	sbceq	r0, ip, r0
    4184:	00012308 	andeq	r2, r1, r8, lsl #6
    4188:	0007a800 	andeq	sl, r7, r0, lsl #16
    418c:	00dd0900 	sbcseq	r0, sp, r0, lsl #18
    4190:	00190000 	andseq	r0, r9, r0
    4194:	00012308 	andeq	r2, r1, r8, lsl #6
    4198:	0007b800 	andeq	fp, r7, r0, lsl #16
    419c:	00dd0900 	sbcseq	r0, sp, r0, lsl #18
    41a0:	00070000 	andeq	r0, r7, r0
    41a4:	00012308 	andeq	r2, r1, r8, lsl #6
    41a8:	0007c800 	andeq	ip, r7, r0, lsl #16
    41ac:	00dd0900 	sbcseq	r0, sp, r0, lsl #18
    41b0:	00170000 	andseq	r0, r7, r0
    41b4:	7006f01a 	andvc	pc, r6, sl, lsl r0	; <UNPREDICTABLE>
    41b8:	0007ec02 	andeq	lr, r7, r2, lsl #24
    41bc:	02801700 	addeq	r1, r0, #0, 14
    41c0:	73060000 	movwvc	r0, #24576	; 0x6000
    41c4:	0007ec02 	andeq	lr, r7, r2, lsl #24
    41c8:	8b170000 	blhi	5c41d0 <__bss_end__+0x5ba238>
    41cc:	06000004 	streq	r0, [r0], -r4
    41d0:	07fc0274 			; <UNDEFINED> instruction: 0x07fc0274
    41d4:	00780000 	rsbseq	r0, r8, r0
    41d8:	0002ec08 	andeq	lr, r2, r8, lsl #24
    41dc:	0007fc00 	andeq	pc, r7, r0, lsl #24
    41e0:	00dd0900 	sbcseq	r0, sp, r0, lsl #18
    41e4:	001d0000 	andseq	r0, sp, r0
    41e8:	00002c08 	andeq	r2, r0, r8, lsl #24
    41ec:	00080c00 	andeq	r0, r8, r0, lsl #24
    41f0:	00dd0900 	sbcseq	r0, sp, r0, lsl #18
    41f4:	001d0000 	andseq	r0, sp, r0
    41f8:	5506f01b 	strpl	pc, [r6, #-27]	; 0xffffffe5
    41fc:	00082e02 	andeq	r2, r8, r2, lsl #28
    4200:	036a1c00 	cmneq	sl, #0, 24
    4204:	6c060000 	stcvs	0, cr0, [r6], {-0}
    4208:	00069702 	andeq	r9, r6, r2, lsl #14
    420c:	04b61c00 	ldrteq	r1, [r6], #3072	; 0xc00
    4210:	75060000 	strvc	r0, [r6, #-0]
    4214:	0007c802 	andeq	ip, r7, r2, lsl #16
    4218:	23080000 	movwcs	r0, #32768	; 0x8000
    421c:	3e000001 	cdpcc	0, 0, cr0, cr0, cr1, {0}
    4220:	09000008 	stmdbeq	r0, {r3}
    4224:	000000dd 	ldrdeq	r0, [r0], -sp
    4228:	491d0018 	ldmdbmi	sp, {r3, r4}
    422c:	15000008 	strne	r0, [r0, #-8]
    4230:	0000043a 	andeq	r0, r0, sl, lsr r4
    4234:	3e040d00 	cdpcc	13, 0, cr0, cr4, cr0, {0}
    4238:	0d000008 	stceq	0, cr0, [r0, #-32]	; 0xffffffe0
    423c:	00018d04 	andeq	r8, r1, r4, lsl #26
    4240:	08601d00 	stmdaeq	r0!, {r8, sl, fp, ip}^
    4244:	25150000 	ldrcs	r0, [r5, #-0]
    4248:	00000000 	andeq	r0, r0, r0
    424c:	0866040d 	stmdaeq	r6!, {r0, r2, r3, sl}^
    4250:	040d0000 	streq	r0, [sp], #-0
    4254:	00000855 	andeq	r0, r0, r5, asr r8
    4258:	00060508 	andeq	r0, r6, r8, lsl #10
    425c:	00087c00 	andeq	r7, r8, r0, lsl #24
    4260:	00dd0900 	sbcseq	r0, sp, r0, lsl #18
    4264:	00020000 	andeq	r0, r2, r0
    4268:	00043d1e 	andeq	r3, r4, lr, lsl sp
    426c:	02fd0600 	rscseq	r0, sp, #0, 12
    4270:	0000043a 	andeq	r0, r0, sl, lsr r4
    4274:	0004361e 	andeq	r3, r4, lr, lsl r6
    4278:	02fe0600 	rscseq	r0, lr, #0, 12
    427c:	00000440 	andeq	r0, r0, r0, asr #8
    4280:	00002514 	andeq	r2, r0, r4, lsl r5
    4284:	0008a300 	andeq	sl, r8, r0, lsl #6
    4288:	00251500 	eoreq	r1, r5, r0, lsl #10
    428c:	1f000000 	svcne	0x00000000
    4290:	000001cc 	andeq	r0, r0, ip, asr #3
    4294:	08ae1d07 	stmiaeq	lr!, {r0, r1, r2, r8, sl, fp, ip}
    4298:	040d0000 	streq	r0, [sp], #-0
    429c:	00000894 	muleq	r0, r4, r8
    42a0:	00002514 	andeq	r2, r0, r4, lsl r5
    42a4:	0008c300 	andeq	ip, r8, r0, lsl #6
    42a8:	059b1500 	ldreq	r1, [fp, #1280]	; 0x500
    42ac:	1f000000 	svcne	0x00000000
    42b0:	00000769 	andeq	r0, r0, r9, ror #14
    42b4:	08ce2207 	stmiaeq	lr, {r0, r1, r2, r9, sp}^
    42b8:	040d0000 	streq	r0, [sp], #-0
    42bc:	000008b4 			; <UNDEFINED> instruction: 0x000008b4
    42c0:	00052420 	andeq	r2, r5, r0, lsr #8
    42c4:	680f0100 	stmdavs	pc, {r8}	; <UNPREDICTABLE>
    42c8:	a0000000 	andge	r0, r0, r0
    42cc:	e800008e 	stmda	r0, {r1, r2, r3, r7}
    42d0:	01000000 	mrseq	r0, (UNDEF: 0)
    42d4:	0009489c 	muleq	r9, ip, r8
    42d8:	0a192100 	beq	64c6e0 <__bss_end__+0x642748>
    42dc:	0f010000 	svceq	0x00010000
    42e0:	00000948 	andeq	r0, r0, r8, asr #18
    42e4:	00000dc5 	andeq	r0, r0, r5, asr #27
    42e8:	6e656c22 	cdpvs	12, 6, cr6, cr5, cr2, {1}
    42ec:	250f0100 	strcs	r0, [pc, #-256]	; 41f4 <_start-0x3e0c>
    42f0:	ff000000 			; <UNDEFINED> instruction: 0xff000000
    42f4:	2300000d 	movwcs	r0, #13
    42f8:	00000a1a 	andeq	r0, r0, sl, lsl sl
    42fc:	059b1001 	ldreq	r1, [fp, #1]
    4300:	0e3e0000 	cdpeq	0, 3, cr0, cr14, cr0, {0}
    4304:	29230000 	stmdbcs	r3!, {}	; <UNPREDICTABLE>
    4308:	01000005 	tsteq	r0, r5
    430c:	00006811 	andeq	r6, r0, r1, lsl r8
    4310:	000e6a00 	andeq	r6, lr, r0, lsl #20
    4314:	6d742400 	cfldrdvs	mvd2, [r4, #-0]
    4318:	11010070 	tstne	r1, r0, ror r0
    431c:	00000068 	andeq	r0, r0, r8, rrx
    4320:	00000ebf 			; <UNDEFINED> instruction: 0x00000ebf
    4324:	6d657224 	sfmvs	f7, 2, [r5, #-144]!	; 0xffffff70
    4328:	25120100 	ldrcs	r0, [r2, #-256]	; 0xffffff00
    432c:	0a000000 	beq	4334 <_start-0x3ccc>
    4330:	0000000f 	andeq	r0, r0, pc
    4334:	094e040d 	stmdbeq	lr, {r0, r2, r3, sl}^
    4338:	00250000 	eoreq	r0, r5, r0
    433c:	000008eb 	andeq	r0, r0, fp, ror #17
    4340:	0bd70004 	bleq	ff5c4358 <__bss_end__+0xff5ba3c0>
    4344:	01040000 	mrseq	r0, (UNDEF: 4)
    4348:	000003a4 	andeq	r0, r0, r4, lsr #7
    434c:	00076e0c 	andeq	r6, r7, ip, lsl #28
    4350:	0006de00 	andeq	sp, r6, r0, lsl #28
    4354:	008f8800 	addeq	r8, pc, r0, lsl #16
    4358:	00003400 	andeq	r3, r0, r0, lsl #8
    435c:	00076d00 	andeq	r6, r7, r0, lsl #26
    4360:	05040200 	streq	r0, [r4, #-512]	; 0xfffffe00
    4364:	00746e69 	rsbseq	r6, r4, r9, ror #28
    4368:	57070403 	strpl	r0, [r7, -r3, lsl #8]
    436c:	03000000 	movweq	r0, #0
    4370:	02c80601 	sbceq	r0, r8, #1048576	; 0x100000
    4374:	02030000 	andeq	r0, r3, #0
    4378:	0002e205 	andeq	lr, r2, r5, lsl #4
    437c:	05040300 	streq	r0, [r4, #-768]	; 0xfffffd00
    4380:	000000a0 	andeq	r0, r0, r0, lsr #1
    4384:	9b050803 	blls	146398 <__bss_end__+0x13c400>
    4388:	03000000 	movweq	r0, #0
    438c:	02c60801 	sbceq	r0, r6, #65536	; 0x10000
    4390:	02030000 	andeq	r0, r3, #0
    4394:	00020e07 	andeq	r0, r2, r7, lsl #28
    4398:	07040300 	streq	r0, [r4, -r0, lsl #6]
    439c:	00000052 	andeq	r0, r0, r2, asr r0
    43a0:	4d070803 	stcmi	8, cr0, [r7, #-12]
    43a4:	04000000 	streq	r0, [r0], #-0
    43a8:	000002b4 			; <UNDEFINED> instruction: 0x000002b4
    43ac:	00250702 	eoreq	r0, r5, r2, lsl #14
    43b0:	a3040000 	movwge	r0, #16384	; 0x4000
    43b4:	03000002 	movweq	r0, #2
    43b8:	0000412c 	andeq	r4, r0, ip, lsr #2
    43bc:	038d0400 	orreq	r0, sp, #0, 8
    43c0:	72030000 	andvc	r0, r3, #0
    43c4:	00000041 	andeq	r0, r0, r1, asr #32
    43c8:	00025105 	andeq	r5, r2, r5, lsl #2
    43cc:	01650400 	cmneq	r5, r0, lsl #8
    43d0:	0000002c 	andeq	r0, r0, ip, lsr #32
    43d4:	a6030406 	strge	r0, [r3], -r6, lsl #8
    43d8:	000000b7 	strheq	r0, [r0], -r7
    43dc:	00024b07 	andeq	r4, r2, r7, lsl #22
    43e0:	8ca80300 	stchi	3, cr0, [r8]
    43e4:	07000000 	streq	r0, [r0, -r0]
    43e8:	000001dd 	ldrdeq	r0, [r0], -sp
    43ec:	00b7a903 	adcseq	sl, r7, r3, lsl #18
    43f0:	08000000 	stmdaeq	r0, {}	; <UNPREDICTABLE>
    43f4:	0000004f 	andeq	r0, r0, pc, asr #32
    43f8:	000000c7 	andeq	r0, r0, r7, asr #1
    43fc:	0000c709 	andeq	ip, r0, r9, lsl #14
    4400:	03000300 	movweq	r0, #768	; 0x300
    4404:	02770704 	rsbseq	r0, r7, #4, 14	; 0x100000
    4408:	080a0000 	stmdaeq	sl, {}	; <UNPREDICTABLE>
    440c:	00efa303 	rsceq	sl, pc, r3, lsl #6
    4410:	770b0000 	strvc	r0, [fp, -r0]
    4414:	03000003 	movweq	r0, #3
    4418:	000025a5 	andeq	r2, r0, r5, lsr #11
    441c:	7f0b0000 	svcvc	0x000b0000
    4420:	03000003 	movweq	r0, #3
    4424:	000098aa 	andeq	r9, r0, sl, lsr #17
    4428:	04000400 	streq	r0, [r0], #-1024	; 0xfffffc00
    442c:	0000030a 	andeq	r0, r0, sl, lsl #6
    4430:	00ceab03 	sbceq	sl, lr, r3, lsl #22
    4434:	9a040000 	bls	10443c <__bss_end__+0xfa4a4>
    4438:	03000001 	movweq	r0, #1
    443c:	00006baf 	andeq	r6, r0, pc, lsr #23
    4440:	0d040c00 	stceq	12, cr0, [r4, #-0]
    4444:	00010d04 	andeq	r0, r1, r4, lsl #26
    4448:	08010300 	stmdaeq	r1, {r8, r9}
    444c:	000002cf 	andeq	r0, r0, pc, asr #5
    4450:	00010d0e 	andeq	r0, r1, lr, lsl #26
    4454:	04210400 	strteq	r0, [r1], #-1024	; 0xfffffc00
    4458:	16050000 	strne	r0, [r5], -r0
    445c:	0000005d 	andeq	r0, r0, sp, asr r0
    4460:	0001ab0f 	andeq	sl, r1, pc, lsl #22
    4464:	2d051800 	stccs	8, cr1, [r5, #-0]
    4468:	00000177 	andeq	r0, r0, r7, ror r1
    446c:	00032b0b 	andeq	r2, r3, fp, lsl #22
    4470:	772f0500 	strvc	r0, [pc, -r0, lsl #10]!
    4474:	00000001 	andeq	r0, r0, r1
    4478:	006b5f10 	rsbeq	r5, fp, r0, lsl pc
    447c:	00253005 	eoreq	r3, r5, r5
    4480:	0b040000 	bleq	104488 <__bss_end__+0xfa4f0>
    4484:	00000362 	andeq	r0, r0, r2, ror #6
    4488:	00253005 	eoreq	r3, r5, r5
    448c:	0b080000 	bleq	204494 <__bss_end__+0x1fa4fc>
    4490:	00000194 	muleq	r0, r4, r1
    4494:	00253005 	eoreq	r3, r5, r5
    4498:	0b0c0000 	bleq	3044a0 <__bss_end__+0x2fa508>
    449c:	0000046f 	andeq	r0, r0, pc, ror #8
    44a0:	00253005 	eoreq	r3, r5, r5
    44a4:	10100000 	andsne	r0, r0, r0
    44a8:	0500785f 	streq	r7, [r0, #-2143]	; 0xfffff7a1
    44ac:	00017d31 	andeq	r7, r1, r1, lsr sp
    44b0:	0d001400 	cfstrseq	mvf1, [r0, #-0]
    44b4:	00012404 	andeq	r2, r1, r4, lsl #8
    44b8:	01190800 	tsteq	r9, r0, lsl #16
    44bc:	018d0000 	orreq	r0, sp, r0
    44c0:	c7090000 	strgt	r0, [r9, -r0]
    44c4:	00000000 	andeq	r0, r0, r0
    44c8:	01d80f00 	bicseq	r0, r8, r0, lsl #30
    44cc:	05240000 	streq	r0, [r4, #-0]!
    44d0:	00020635 	andeq	r0, r2, r5, lsr r6
    44d4:	00920b00 	addseq	r0, r2, r0, lsl #22
    44d8:	37050000 	strcc	r0, [r5, -r0]
    44dc:	00000025 	andeq	r0, r0, r5, lsr #32
    44e0:	03950b00 	orrseq	r0, r5, #0, 22
    44e4:	38050000 	stmdacc	r5, {}	; <UNPREDICTABLE>
    44e8:	00000025 	andeq	r0, r0, r5, lsr #32
    44ec:	00b50b04 	adcseq	r0, r5, r4, lsl #22
    44f0:	39050000 	stmdbcc	r5, {}	; <UNPREDICTABLE>
    44f4:	00000025 	andeq	r0, r0, r5, lsr #32
    44f8:	04f70b08 	ldrbteq	r0, [r7], #2824	; 0xb08
    44fc:	3a050000 	bcc	144504 <__bss_end__+0x13a56c>
    4500:	00000025 	andeq	r0, r0, r5, lsr #32
    4504:	02870b0c 	addeq	r0, r7, #12, 22	; 0x3000
    4508:	3b050000 	blcc	144510 <__bss_end__+0x13a578>
    450c:	00000025 	andeq	r0, r0, r5, lsr #32
    4510:	026d0b10 	rsbeq	r0, sp, #16, 22	; 0x4000
    4514:	3c050000 	stccc	0, cr0, [r5], {-0}
    4518:	00000025 	andeq	r0, r0, r5, lsr #32
    451c:	04740b14 	ldrbteq	r0, [r4], #-2836	; 0xfffff4ec
    4520:	3d050000 	stccc	0, cr0, [r5, #-0]
    4524:	00000025 	andeq	r0, r0, r5, lsr #32
    4528:	02ec0b18 	rsceq	r0, ip, #24, 22	; 0x6000
    452c:	3e050000 	cdpcc	0, 0, cr0, cr5, cr0, {0}
    4530:	00000025 	andeq	r0, r0, r5, lsr #32
    4534:	04be0b1c 	ldrteq	r0, [lr], #2844	; 0xb1c
    4538:	3f050000 	svccc	0x00050000
    453c:	00000025 	andeq	r0, r0, r5, lsr #32
    4540:	f5110020 			; <UNDEFINED> instruction: 0xf5110020
    4544:	08000000 	stmdaeq	r0, {}	; <UNPREDICTABLE>
    4548:	46480501 	strbmi	r0, [r8], -r1, lsl #10
    454c:	0b000002 	bleq	455c <_start-0x3aa4>
    4550:	00000187 	andeq	r0, r0, r7, lsl #3
    4554:	02464905 	subeq	r4, r6, #81920	; 0x14000
    4558:	0b000000 	bleq	4560 <_start-0x3aa0>
    455c:	00000000 	andeq	r0, r0, r0
    4560:	02464a05 	subeq	r4, r6, #20480	; 0x5000
    4564:	12800000 	addne	r0, r0, #0
    4568:	00000413 	andeq	r0, r0, r3, lsl r4
    456c:	01194c05 	tsteq	r9, r5, lsl #24
    4570:	01000000 	mrseq	r0, (UNDEF: 0)
    4574:	00011a12 	andeq	r1, r1, r2, lsl sl
    4578:	194f0500 	stmdbne	pc, {r8, sl}^	; <UNPREDICTABLE>
    457c:	04000001 	streq	r0, [r0], #-1
    4580:	05080001 	streq	r0, [r8, #-1]
    4584:	56000001 	strpl	r0, [r0], -r1
    4588:	09000002 	stmdbeq	r0, {r1}
    458c:	000000c7 	andeq	r0, r0, r7, asr #1
    4590:	9011001f 	andsls	r0, r1, pc, lsl r0
    4594:	90000002 	andls	r0, r0, r2
    4598:	945b0501 	ldrbls	r0, [fp], #-1281	; 0xfffffaff
    459c:	0b000002 	bleq	45ac <_start-0x3a54>
    45a0:	0000032b 	andeq	r0, r0, fp, lsr #6
    45a4:	02945c05 	addseq	r5, r4, #1280	; 0x500
    45a8:	0b000000 	bleq	45b0 <_start-0x3a50>
    45ac:	00000343 	andeq	r0, r0, r3, asr #6
    45b0:	00255d05 	eoreq	r5, r5, r5, lsl #26
    45b4:	0b040000 	bleq	1045bc <__bss_end__+0xfa624>
    45b8:	0000018f 	andeq	r0, r0, pc, lsl #3
    45bc:	029a5f05 	addseq	r5, sl, #5, 30
    45c0:	0b080000 	bleq	2045c8 <__bss_end__+0x1fa630>
    45c4:	000000f5 	strdeq	r0, [r0], -r5
    45c8:	02066005 	andeq	r6, r6, #5
    45cc:	00880000 	addeq	r0, r8, r0
    45d0:	0256040d 	subseq	r0, r6, #218103808	; 0xd000000
    45d4:	aa080000 	bge	2045dc <__bss_end__+0x1fa644>
    45d8:	aa000002 	bge	45e8 <_start-0x3a18>
    45dc:	09000002 	stmdbeq	r0, {r1}
    45e0:	000000c7 	andeq	r0, r0, r7, asr #1
    45e4:	040d001f 	streq	r0, [sp], #-31	; 0xffffffe1
    45e8:	000002b0 			; <UNDEFINED> instruction: 0x000002b0
    45ec:	02f60f13 	rscseq	r0, r6, #19, 30	; 0x4c
    45f0:	05080000 	streq	r0, [r8, #-0]
    45f4:	0002d673 	andeq	sp, r2, r3, ror r6
    45f8:	00af0b00 	adceq	r0, pc, r0, lsl #22
    45fc:	74050000 	strvc	r0, [r5], #-0
    4600:	000002d6 	ldrdeq	r0, [r0], -r6
    4604:	000c0b00 	andeq	r0, ip, r0, lsl #22
    4608:	75050000 	strvc	r0, [r5, #-0]
    460c:	00000025 	andeq	r0, r0, r5, lsr #32
    4610:	040d0004 	streq	r0, [sp], #-4
    4614:	0000004f 	andeq	r0, r0, pc, asr #32
    4618:	0003150f 	andeq	r1, r3, pc, lsl #10
    461c:	b3056800 	movwlt	r6, #22528	; 0x5800
    4620:	00000406 	andeq	r0, r0, r6, lsl #8
    4624:	00705f10 	rsbseq	r5, r0, r0, lsl pc
    4628:	02d6b405 	sbcseq	fp, r6, #83886080	; 0x5000000
    462c:	10000000 	andne	r0, r0, r0
    4630:	0500725f 	streq	r7, [r0, #-607]	; 0xfffffda1
    4634:	000025b5 			; <UNDEFINED> instruction: 0x000025b5
    4638:	5f100400 	svcpl	0x00100400
    463c:	b6050077 			; <UNDEFINED> instruction: 0xb6050077
    4640:	00000025 	andeq	r0, r0, r5, lsr #32
    4644:	01130b08 	tsteq	r3, r8, lsl #22
    4648:	b7050000 	strlt	r0, [r5, -r0]
    464c:	0000003a 	andeq	r0, r0, sl, lsr r0
    4650:	01f40b0c 	mvnseq	r0, ip, lsl #22
    4654:	b8050000 	stmdalt	r5, {}	; <UNPREDICTABLE>
    4658:	0000003a 	andeq	r0, r0, sl, lsr r0
    465c:	625f100e 	subsvs	r1, pc, #14
    4660:	b9050066 	stmdblt	r5, {r1, r2, r5, r6}
    4664:	000002b1 			; <UNDEFINED> instruction: 0x000002b1
    4668:	006c0b10 	rsbeq	r0, ip, r0, lsl fp
    466c:	ba050000 	blt	144674 <__bss_end__+0x13a6dc>
    4670:	00000025 	andeq	r0, r0, r5, lsr #32
    4674:	01030b18 	tsteq	r3, r8, lsl fp
    4678:	c1050000 	mrsgt	r0, (UNDEF: 5)
    467c:	00000105 	andeq	r0, r0, r5, lsl #2
    4680:	0a780b1c 	beq	1e072f8 <__bss_end__+0x1dfd360>
    4684:	c3050000 	movwgt	r0, #20480	; 0x5000
    4688:	00000561 	andeq	r0, r0, r1, ror #10
    468c:	060c0b20 	streq	r0, [ip], -r0, lsr #22
    4690:	c5050000 	strgt	r0, [r5, #-0]
    4694:	0000058b 	andeq	r0, r0, fp, lsl #11
    4698:	03870b24 	orreq	r0, r7, #36, 22	; 0x9000
    469c:	c8050000 	stmdagt	r5, {}	; <UNPREDICTABLE>
    46a0:	000005af 	andeq	r0, r0, pc, lsr #11
    46a4:	04d80b28 	ldrbeq	r0, [r8], #2856	; 0xb28
    46a8:	c9050000 	stmdbgt	r5, {}	; <UNPREDICTABLE>
    46ac:	000005c9 	andeq	r0, r0, r9, asr #11
    46b0:	755f102c 	ldrbvc	r1, [pc, #-44]	; 468c <_start-0x3974>
    46b4:	cc050062 	stcgt	0, cr0, [r5], {98}	; 0x62
    46b8:	000002b1 			; <UNDEFINED> instruction: 0x000002b1
    46bc:	755f1030 	ldrbvc	r1, [pc, #-48]	; 4694 <_start-0x396c>
    46c0:	cd050070 	stcgt	0, cr0, [r5, #-448]	; 0xfffffe40
    46c4:	000002d6 	ldrdeq	r0, [r0], -r6
    46c8:	755f1038 	ldrbvc	r1, [pc, #-56]	; 4698 <_start-0x3968>
    46cc:	ce050072 	mcrgt	0, 0, r0, cr5, cr2, {3}
    46d0:	00000025 	andeq	r0, r0, r5, lsr #32
    46d4:	00a90b3c 	adceq	r0, r9, ip, lsr fp
    46d8:	d1050000 	mrsle	r0, (UNDEF: 5)
    46dc:	000005cf 	andeq	r0, r0, pc, asr #11
    46e0:	04b00b40 	ldrteq	r0, [r0], #2880	; 0xb40
    46e4:	d2050000 	andle	r0, r5, #0
    46e8:	000005df 	ldrdeq	r0, [r0], -pc	; <UNPREDICTABLE>
    46ec:	6c5f1043 	mrrcvs	0, 4, r1, pc, cr3	; <UNPREDICTABLE>
    46f0:	d5050062 	strle	r0, [r5, #-98]	; 0xffffff9e
    46f4:	000002b1 			; <UNDEFINED> instruction: 0x000002b1
    46f8:	01380b44 	teqeq	r8, r4, asr #22
    46fc:	d8050000 	stmdale	r5, {}	; <UNPREDICTABLE>
    4700:	00000025 	andeq	r0, r0, r5, lsr #32
    4704:	01490b4c 	cmpeq	r9, ip, asr #22
    4708:	d9050000 	stmdble	r5, {}	; <UNPREDICTABLE>
    470c:	00000076 	andeq	r0, r0, r6, ror r0
    4710:	0a190b50 	beq	647458 <__bss_end__+0x63d4c0>
    4714:	dc050000 	stcle	0, cr0, [r5], {-0}
    4718:	00000424 	andeq	r0, r0, r4, lsr #8
    471c:	025f0b54 	subseq	r0, pc, #84, 22	; 0x15000
    4720:	e0050000 	and	r0, r5, r0
    4724:	000000fa 	strdeq	r0, [r0], -sl
    4728:	031d0b58 	tsteq	sp, #88, 22	; 0x16000
    472c:	e2050000 	and	r0, r5, #0
    4730:	000000ef 	andeq	r0, r0, pc, ror #1
    4734:	02650b5c 	rsbeq	r0, r5, #92, 22	; 0x17000
    4738:	e3050000 	movw	r0, #20480	; 0x5000
    473c:	00000025 	andeq	r0, r0, r5, lsr #32
    4740:	25140064 	ldrcs	r0, [r4, #-100]	; 0xffffff9c
    4744:	24000000 	strcs	r0, [r0], #-0
    4748:	15000004 	strne	r0, [r0, #-4]
    474c:	00000424 	andeq	r0, r0, r4, lsr #8
    4750:	00010515 	andeq	r0, r1, r5, lsl r5
    4754:	01071500 	tsteq	r7, r0, lsl #10
    4758:	25150000 	ldrcs	r0, [r5, #-0]
    475c:	00000000 	andeq	r0, r0, r0
    4760:	042f040d 	strteq	r0, [pc], #-1037	; 4768 <_start-0x3898>
    4764:	240e0000 	strcs	r0, [lr], #-0
    4768:	16000004 	strne	r0, [r0], -r4
    476c:	0000036a 	andeq	r0, r0, sl, ror #6
    4770:	38050428 	stmdacc	r5, {r3, r5, sl}
    4774:	00056102 	andeq	r6, r5, r2, lsl #2
    4778:	02db1700 	sbcseq	r1, fp, #0, 14
    477c:	3a050000 	bcc	144784 <__bss_end__+0x13a7ec>
    4780:	00002502 	andeq	r2, r0, r2, lsl #10
    4784:	84170000 	ldrhi	r0, [r7], #-0
    4788:	05000004 	streq	r0, [r0, #-4]
    478c:	0636023f 			; <UNDEFINED> instruction: 0x0636023f
    4790:	17040000 	strne	r0, [r4, -r0]
    4794:	000001e4 	andeq	r0, r0, r4, ror #3
    4798:	36023f05 	strcc	r3, [r2], -r5, lsl #30
    479c:	08000006 	stmdaeq	r0, {r1, r2}
    47a0:	0001a317 	andeq	sl, r1, r7, lsl r3
    47a4:	023f0500 	eorseq	r0, pc, #0, 10
    47a8:	00000636 	andeq	r0, r0, r6, lsr r6
    47ac:	033e170c 	teqeq	lr, #12, 14	; 0x300000
    47b0:	41050000 	mrsmi	r0, (UNDEF: 5)
    47b4:	00002502 	andeq	r2, r0, r2, lsl #10
    47b8:	1a171000 	bne	5c87c0 <__bss_end__+0x5be828>
    47bc:	05000000 	streq	r0, [r0, #-0]
    47c0:	08180242 	ldmdaeq	r8, {r1, r6, r9}
    47c4:	17140000 	ldrne	r0, [r4, -r0]
    47c8:	00000449 	andeq	r0, r0, r9, asr #8
    47cc:	25024405 	strcs	r4, [r2, #-1029]	; 0xfffffbfb
    47d0:	30000000 	andcc	r0, r0, r0
    47d4:	00034817 	andeq	r4, r3, r7, lsl r8
    47d8:	02450500 	subeq	r0, r5, #0, 10
    47dc:	00000585 	andeq	r0, r0, r5, lsl #11
    47e0:	02981734 	addseq	r1, r8, #52, 14	; 0xd00000
    47e4:	47050000 	strmi	r0, [r5, -r0]
    47e8:	00002502 	andeq	r2, r0, r2, lsl #10
    47ec:	58173800 	ldmdapl	r7, {fp, ip, sp}
    47f0:	05000003 	streq	r0, [r0, #-3]
    47f4:	08330249 	ldmdaeq	r3!, {r0, r3, r6, r9}
    47f8:	173c0000 	ldrne	r0, [ip, -r0]!
    47fc:	00000243 	andeq	r0, r0, r3, asr #4
    4800:	77024c05 	strvc	r4, [r2, -r5, lsl #24]
    4804:	40000001 	andmi	r0, r0, r1
    4808:	0001c217 	andeq	ip, r1, r7, lsl r2
    480c:	024d0500 	subeq	r0, sp, #0, 10
    4810:	00000025 	andeq	r0, r0, r5, lsr #32
    4814:	04f21744 	ldrbteq	r1, [r2], #1860	; 0x744
    4818:	4e050000 	cdpmi	0, 0, cr0, cr5, cr0, {0}
    481c:	00017702 	andeq	r7, r1, r2, lsl #14
    4820:	aa174800 	bge	5d6828 <__bss_end__+0x5cc890>
    4824:	05000002 	streq	r0, [r0, #-2]
    4828:	0839024f 	ldmdaeq	r9!, {r0, r1, r2, r3, r6, r9}
    482c:	174c0000 	strbne	r0, [ip, -r0]
    4830:	000001ec 	andeq	r0, r0, ip, ror #3
    4834:	25025205 	strcs	r5, [r2, #-517]	; 0xfffffdfb
    4838:	50000000 	andpl	r0, r0, r0
    483c:	00014117 	andeq	r4, r1, r7, lsl r1
    4840:	02530500 	subseq	r0, r3, #0, 10
    4844:	00000107 	andeq	r0, r0, r7, lsl #2
    4848:	02d41754 	sbcseq	r1, r4, #84, 14	; 0x1500000
    484c:	76050000 	strvc	r0, [r5], -r0
    4850:	0007f602 	andeq	pc, r7, r2, lsl #12
    4854:	90185800 	andsls	r5, r8, r0, lsl #16
    4858:	05000002 	streq	r0, [r0, #-2]
    485c:	0294027a 	addseq	r0, r4, #-1610612729	; 0xa0000007
    4860:	01480000 	mrseq	r0, (UNDEF: 72)
    4864:	00022118 	andeq	r2, r2, r8, lsl r1
    4868:	027b0500 	rsbseq	r0, fp, #0, 10
    486c:	00000256 	andeq	r0, r0, r6, asr r2
    4870:	9e18014c 	muflsem	f0, f0, #4.0
    4874:	05000004 	streq	r0, [r0, #-4]
    4878:	084a027f 	stmdaeq	sl, {r0, r1, r2, r3, r4, r5, r6, r9}^
    487c:	02dc0000 	sbcseq	r0, ip, #0
    4880:	00010b18 	andeq	r0, r1, r8, lsl fp
    4884:	02840500 	addeq	r0, r4, #0, 10
    4888:	000005fb 	strdeq	r0, [r0], -fp
    488c:	f01802e0 			; <UNDEFINED> instruction: 0xf01802e0
    4890:	05000000 	streq	r0, [r0, #-0]
    4894:	08560285 	ldmdaeq	r6, {r0, r2, r7, r9}^
    4898:	02ec0000 	rsceq	r0, ip, #0
    489c:	06040d00 	streq	r0, [r4], -r0, lsl #26
    48a0:	14000004 	strne	r0, [r0], #-4
    48a4:	00000025 	andeq	r0, r0, r5, lsr #32
    48a8:	00000585 	andeq	r0, r0, r5, lsl #11
    48ac:	00042415 	andeq	r2, r4, r5, lsl r4
    48b0:	01051500 	tsteq	r5, r0, lsl #10
    48b4:	85150000 	ldrhi	r0, [r5, #-0]
    48b8:	15000005 	strne	r0, [r0, #-5]
    48bc:	00000025 	andeq	r0, r0, r5, lsr #32
    48c0:	14040d00 	strne	r0, [r4], #-3328	; 0xfffff300
    48c4:	0d000001 	stceq	0, cr0, [r0, #-4]
    48c8:	00056704 	andeq	r6, r5, r4, lsl #14
    48cc:	00811400 	addeq	r1, r1, r0, lsl #8
    48d0:	05af0000 	streq	r0, [pc, #0]!	; 48d8 <_start-0x3728>
    48d4:	24150000 	ldrcs	r0, [r5], #-0
    48d8:	15000004 	strne	r0, [r0, #-4]
    48dc:	00000105 	andeq	r0, r0, r5, lsl #2
    48e0:	00008115 	andeq	r8, r0, r5, lsl r1
    48e4:	00251500 	eoreq	r1, r5, r0, lsl #10
    48e8:	0d000000 	stceq	0, cr0, [r0, #-0]
    48ec:	00059104 	andeq	r9, r5, r4, lsl #2
    48f0:	00251400 	eoreq	r1, r5, r0, lsl #8
    48f4:	05c90000 	strbeq	r0, [r9]
    48f8:	24150000 	ldrcs	r0, [r5], #-0
    48fc:	15000004 	strne	r0, [r0, #-4]
    4900:	00000105 	andeq	r0, r0, r5, lsl #2
    4904:	b5040d00 	strlt	r0, [r4, #-3328]	; 0xfffff300
    4908:	08000005 	stmdaeq	r0, {r0, r2}
    490c:	0000004f 	andeq	r0, r0, pc, asr #32
    4910:	000005df 	ldrdeq	r0, [r0], -pc	; <UNPREDICTABLE>
    4914:	0000c709 	andeq	ip, r0, r9, lsl #14
    4918:	08000200 	stmdaeq	r0, {r9}
    491c:	0000004f 	andeq	r0, r0, pc, asr #32
    4920:	000005ef 	andeq	r0, r0, pc, ror #11
    4924:	0000c709 	andeq	ip, r0, r9, lsl #14
    4928:	05000000 	streq	r0, [r0, #-0]
    492c:	00000303 	andeq	r0, r0, r3, lsl #6
    4930:	dc011d05 	stcle	13, cr1, [r1], {5}
    4934:	19000002 	stmdbne	r0, {r1}
    4938:	0000047e 	andeq	r0, r0, lr, ror r4
    493c:	0121050c 			; <UNDEFINED> instruction: 0x0121050c
    4940:	00000630 	andeq	r0, r0, r0, lsr r6
    4944:	00032b17 	andeq	r2, r3, r7, lsl fp
    4948:	01230500 			; <UNDEFINED> instruction: 0x01230500
    494c:	00000630 	andeq	r0, r0, r0, lsr r6
    4950:	02071700 	andeq	r1, r7, #0, 14
    4954:	24050000 	strcs	r0, [r5], #-0
    4958:	00002501 	andeq	r2, r0, r1, lsl #10
    495c:	fd170400 	ldc2	4, cr0, [r7, #-0]
    4960:	05000002 	streq	r0, [r0, #-2]
    4964:	06360125 	ldrteq	r0, [r6], -r5, lsr #2
    4968:	00080000 	andeq	r0, r8, r0
    496c:	05fb040d 	ldrbeq	r0, [fp, #1037]!	; 0x40d
    4970:	040d0000 	streq	r0, [sp], #-0
    4974:	000005ef 	andeq	r0, r0, pc, ror #11
    4978:	00001219 	andeq	r1, r0, r9, lsl r2
    497c:	3d050e00 	stccc	14, cr0, [r5, #-0]
    4980:	00067101 	andeq	r7, r6, r1, lsl #2
    4984:	03711700 	cmneq	r1, #0, 14
    4988:	3e050000 	cdpcc	0, 0, cr0, cr5, cr0, {0}
    498c:	00067101 	andeq	r7, r6, r1, lsl #2
    4990:	9e170000 	cdpls	0, 1, cr0, cr7, cr0, {0}
    4994:	05000003 	streq	r0, [r0, #-3]
    4998:	0671013f 			; <UNDEFINED> instruction: 0x0671013f
    499c:	17060000 	strne	r0, [r6, -r0]
    49a0:	0000041c 	andeq	r0, r0, ip, lsl r4
    49a4:	56014005 	strpl	r4, [r1], -r5
    49a8:	0c000000 	stceq	0, cr0, [r0], {-0}
    49ac:	00560800 	subseq	r0, r6, r0, lsl #16
    49b0:	06810000 	streq	r0, [r1], r0
    49b4:	c7090000 	strgt	r0, [r9, -r0]
    49b8:	02000000 	andeq	r0, r0, #0
    49bc:	05d01a00 	ldrbeq	r1, [r0, #2560]	; 0xa00
    49c0:	07820257 			; <UNDEFINED> instruction: 0x07820257
    49c4:	62170000 	andsvs	r0, r7, #0
    49c8:	05000004 	streq	r0, [r0, #-4]
    49cc:	002c0259 	eoreq	r0, ip, r9, asr r2
    49d0:	17000000 	strne	r0, [r0, -r0]
    49d4:	00000406 	andeq	r0, r0, r6, lsl #8
    49d8:	07025a05 	streq	r5, [r2, -r5, lsl #20]
    49dc:	04000001 	streq	r0, [r0], #-1
    49e0:	00023617 	andeq	r3, r2, r7, lsl r6
    49e4:	025b0500 	subseq	r0, fp, #0, 10
    49e8:	00000782 	andeq	r0, r0, r2, lsl #15
    49ec:	04c91708 	strbeq	r1, [r9], #1800	; 0x708
    49f0:	5c050000 	stcpl	0, cr0, [r5], {-0}
    49f4:	00018d02 	andeq	r8, r1, r2, lsl #26
    49f8:	b3172400 	tstlt	r7, #0, 8
    49fc:	05000001 	streq	r0, [r0, #-1]
    4a00:	0025025d 	eoreq	r0, r5, sp, asr r2
    4a04:	17480000 	strbne	r0, [r8, -r0]
    4a08:	00000326 	andeq	r0, r0, r6, lsr #6
    4a0c:	64025e05 	strvs	r5, [r2], #-3589	; 0xfffff1fb
    4a10:	50000000 	andpl	r0, r0, r0
    4a14:	0004df17 	andeq	sp, r4, r7, lsl pc
    4a18:	025f0500 	subseq	r0, pc, #0, 10
    4a1c:	0000063c 	andeq	r0, r0, ip, lsr r6
    4a20:	03311758 	teqeq	r1, #88, 14	; 0x1600000
    4a24:	60050000 	andvs	r0, r5, r0
    4a28:	0000ef02 	andeq	lr, r0, r2, lsl #30
    4a2c:	e4176800 	ldr	r6, [r7], #-2048	; 0xfffff800
    4a30:	05000004 	streq	r0, [r0, #-4]
    4a34:	00ef0261 	rsceq	r0, pc, r1, ror #4
    4a38:	17700000 	ldrbne	r0, [r0, -r0]!
    4a3c:	00000084 	andeq	r0, r0, r4, lsl #1
    4a40:	ef026205 	svc	0x00026205
    4a44:	78000000 	stmdavc	r0, {}	; <UNPREDICTABLE>
    4a48:	00049417 	andeq	r9, r4, r7, lsl r4
    4a4c:	02630500 	rsbeq	r0, r3, #0, 10
    4a50:	00000792 	muleq	r0, r2, r7
    4a54:	022a1780 	eoreq	r1, sl, #128, 14	; 0x2000000
    4a58:	64050000 	strvs	r0, [r5], #-0
    4a5c:	0007a202 	andeq	sl, r7, r2, lsl #4
    4a60:	29178800 	ldmdbcs	r7, {fp, pc}
    4a64:	05000004 	streq	r0, [r0, #-4]
    4a68:	00250265 	eoreq	r0, r5, r5, ror #4
    4a6c:	17a00000 	strne	r0, [r0, r0]!
    4a70:	00000179 	andeq	r0, r0, r9, ror r1
    4a74:	ef026605 	svc	0x00026605
    4a78:	a4000000 	strge	r0, [r0], #-0
    4a7c:	00007517 	andeq	r7, r0, r7, lsl r5
    4a80:	02670500 	rsbeq	r0, r7, #0, 10
    4a84:	000000ef 	andeq	r0, r0, pc, ror #1
    4a88:	016817ac 	cmneq	r8, ip, lsr #15
    4a8c:	68050000 	stmdavs	r5, {}	; <UNPREDICTABLE>
    4a90:	0000ef02 	andeq	lr, r0, r2, lsl #30
    4a94:	2d17b400 	cfldrscs	mvf11, [r7, #-0]
    4a98:	05000000 	streq	r0, [r0, #-0]
    4a9c:	00ef0269 	rsceq	r0, pc, r9, ror #4
    4aa0:	17bc0000 	ldrne	r0, [ip, r0]!
    4aa4:	0000003c 	andeq	r0, r0, ip, lsr r0
    4aa8:	ef026a05 	svc	0x00026a05
    4aac:	c4000000 	strgt	r0, [r0], #-0
    4ab0:	0002d917 	andeq	sp, r2, r7, lsl r9
    4ab4:	026b0500 	rsbeq	r0, fp, #0, 10
    4ab8:	00000025 	andeq	r0, r0, r5, lsr #32
    4abc:	0d0800cc 	stceq	0, cr0, [r8, #-816]	; 0xfffffcd0
    4ac0:	92000001 	andls	r0, r0, #1
    4ac4:	09000007 	stmdbeq	r0, {r0, r1, r2}
    4ac8:	000000c7 	andeq	r0, r0, r7, asr #1
    4acc:	0d080019 	stceq	0, cr0, [r8, #-100]	; 0xffffff9c
    4ad0:	a2000001 	andge	r0, r0, #1
    4ad4:	09000007 	stmdbeq	r0, {r0, r1, r2}
    4ad8:	000000c7 	andeq	r0, r0, r7, asr #1
    4adc:	0d080007 	stceq	0, cr0, [r8, #-28]	; 0xffffffe4
    4ae0:	b2000001 	andlt	r0, r0, #1
    4ae4:	09000007 	stmdbeq	r0, {r0, r1, r2}
    4ae8:	000000c7 	andeq	r0, r0, r7, asr #1
    4aec:	f01a0017 			; <UNDEFINED> instruction: 0xf01a0017
    4af0:	d6027005 	strle	r7, [r2], -r5
    4af4:	17000007 	strne	r0, [r0, -r7]
    4af8:	00000280 	andeq	r0, r0, r0, lsl #5
    4afc:	d6027305 	strle	r7, [r2], -r5, lsl #6
    4b00:	00000007 	andeq	r0, r0, r7
    4b04:	00048b17 	andeq	r8, r4, r7, lsl fp
    4b08:	02740500 	rsbseq	r0, r4, #0, 10
    4b0c:	000007e6 	andeq	r0, r0, r6, ror #15
    4b10:	d6080078 			; <UNDEFINED> instruction: 0xd6080078
    4b14:	e6000002 	str	r0, [r0], -r2
    4b18:	09000007 	stmdbeq	r0, {r0, r1, r2}
    4b1c:	000000c7 	andeq	r0, r0, r7, asr #1
    4b20:	2c08001d 	stccs	0, cr0, [r8], {29}
    4b24:	f6000000 			; <UNDEFINED> instruction: 0xf6000000
    4b28:	09000007 	stmdbeq	r0, {r0, r1, r2}
    4b2c:	000000c7 	andeq	r0, r0, r7, asr #1
    4b30:	f01b001d 			; <UNDEFINED> instruction: 0xf01b001d
    4b34:	18025505 	stmdane	r2, {r0, r2, r8, sl, ip, lr}
    4b38:	1c000008 	stcne	0, cr0, [r0], {8}
    4b3c:	0000036a 	andeq	r0, r0, sl, ror #6
    4b40:	81026c05 	tsthi	r2, r5, lsl #24
    4b44:	1c000006 	stcne	0, cr0, [r0], {6}
    4b48:	000004b6 			; <UNDEFINED> instruction: 0x000004b6
    4b4c:	b2027505 	andlt	r7, r2, #20971520	; 0x1400000
    4b50:	00000007 	andeq	r0, r0, r7
    4b54:	00010d08 	andeq	r0, r1, r8, lsl #26
    4b58:	00082800 	andeq	r2, r8, r0, lsl #16
    4b5c:	00c70900 	sbceq	r0, r7, r0, lsl #18
    4b60:	00180000 	andseq	r0, r8, r0
    4b64:	0008331d 	andeq	r3, r8, sp, lsl r3
    4b68:	04241500 	strteq	r1, [r4], #-1280	; 0xfffffb00
    4b6c:	0d000000 	stceq	0, cr0, [r0, #-0]
    4b70:	00082804 	andeq	r2, r8, r4, lsl #16
    4b74:	77040d00 	strvc	r0, [r4, -r0, lsl #26]
    4b78:	1d000001 	stcne	0, cr0, [r0, #-4]
    4b7c:	0000084a 	andeq	r0, r0, sl, asr #16
    4b80:	00002515 	andeq	r2, r0, r5, lsl r5
    4b84:	040d0000 	streq	r0, [sp], #-0
    4b88:	00000850 	andeq	r0, r0, r0, asr r8
    4b8c:	083f040d 	ldmdaeq	pc!, {r0, r2, r3, sl}	; <UNPREDICTABLE>
    4b90:	ef080000 	svc	0x00080000
    4b94:	66000005 	strvs	r0, [r0], -r5
    4b98:	09000008 	stmdbeq	r0, {r3}
    4b9c:	000000c7 	andeq	r0, r0, r7, asr #1
    4ba0:	3d1e0002 	ldccc	0, cr0, [lr, #-8]
    4ba4:	05000004 	streq	r0, [r0, #-4]
    4ba8:	042402fd 	strteq	r0, [r4], #-765	; 0xfffffd03
    4bac:	361e0000 	ldrcc	r0, [lr], -r0
    4bb0:	05000004 	streq	r0, [r0, #-4]
    4bb4:	042a02fe 	strteq	r0, [sl], #-766	; 0xfffffd02
    4bb8:	25140000 	ldrcs	r0, [r4, #-0]
    4bbc:	8d000000 	stchi	0, cr0, [r0, #-0]
    4bc0:	15000008 	strne	r0, [r0, #-8]
    4bc4:	00000025 	andeq	r0, r0, r5, lsr #32
    4bc8:	01cc1f00 	biceq	r1, ip, r0, lsl #30
    4bcc:	1d060000 	stcne	0, cr0, [r6, #-0]
    4bd0:	00000898 	muleq	r0, r8, r8
    4bd4:	087e040d 	ldmdaeq	lr!, {r0, r2, r3, sl}^
    4bd8:	25140000 	ldrcs	r0, [r4, #-0]
    4bdc:	ad000000 	stcge	0, cr0, [r0, #-0]
    4be0:	15000008 	strne	r0, [r0, #-8]
    4be4:	00000585 	andeq	r0, r0, r5, lsl #11
    4be8:	07691f00 	strbeq	r1, [r9, -r0, lsl #30]!
    4bec:	22060000 	andcs	r0, r6, #0
    4bf0:	000008b8 			; <UNDEFINED> instruction: 0x000008b8
    4bf4:	089e040d 	ldmeq	lr, {r0, r2, r3, sl}
    4bf8:	ad200000 	stcge	0, cr0, [r0, #-0]
    4bfc:	01000008 	tsteq	r0, r8
    4c00:	0403050c 	streq	r0, [r3], #-1292	; 0xfffffaf4
    4c04:	21000096 	swpcs	r0, r6, [r0]	; <UNPREDICTABLE>
    4c08:	00000760 	andeq	r0, r0, r0, ror #14
    4c0c:	00250401 	eoreq	r0, r5, r1, lsl #8
    4c10:	8f880000 	svchi	0x00880000
    4c14:	00340000 	eorseq	r0, r4, r0
    4c18:	9c010000 	stcls	0, cr0, [r1], {-0}
    4c1c:	01007022 	tsteq	r0, r2, lsr #32
    4c20:	00058504 	andeq	r8, r5, r4, lsl #10
    4c24:	000f1d00 	andeq	r1, pc, r0, lsl #26
    4c28:	3d000000 	stccc	0, cr0, [r0, #-0]
    4c2c:	04000009 	streq	r0, [r0], #-9
    4c30:	000d9300 	andeq	r9, sp, r0, lsl #6
    4c34:	a4010400 	strge	r0, [r1], #-1024	; 0xfffffc00
    4c38:	0c000003 	stceq	0, cr0, [r0], {3}
    4c3c:	000007a2 	andeq	r0, r0, r2, lsr #15
    4c40:	000006de 	ldrdeq	r0, [r0], -lr
    4c44:	00008fbc 			; <UNDEFINED> instruction: 0x00008fbc
    4c48:	0000003c 	andeq	r0, r0, ip, lsr r0
    4c4c:	00000855 	andeq	r0, r0, r5, asr r8
    4c50:	69050402 	stmdbvs	r5, {r1, sl}
    4c54:	0300746e 	movweq	r7, #1134	; 0x46e
    4c58:	00570704 	subseq	r0, r7, r4, lsl #14
    4c5c:	01030000 	mrseq	r0, (UNDEF: 3)
    4c60:	0002c806 	andeq	ip, r2, r6, lsl #16
    4c64:	05020300 	streq	r0, [r2, #-768]	; 0xfffffd00
    4c68:	000002e2 	andeq	r0, r0, r2, ror #5
    4c6c:	a0050403 	andge	r0, r5, r3, lsl #8
    4c70:	03000000 	movweq	r0, #0
    4c74:	009b0508 	addseq	r0, fp, r8, lsl #10
    4c78:	01030000 	mrseq	r0, (UNDEF: 3)
    4c7c:	0002c608 	andeq	ip, r2, r8, lsl #12
    4c80:	07020300 	streq	r0, [r2, -r0, lsl #6]
    4c84:	0000020e 	andeq	r0, r0, lr, lsl #4
    4c88:	52070403 	andpl	r0, r7, #50331648	; 0x3000000
    4c8c:	03000000 	movweq	r0, #0
    4c90:	004d0708 	subeq	r0, sp, r8, lsl #14
    4c94:	b4040000 	strlt	r0, [r4], #-0
    4c98:	02000002 	andeq	r0, r0, #2
    4c9c:	00002507 	andeq	r2, r0, r7, lsl #10
    4ca0:	02a30400 	adceq	r0, r3, #0, 8
    4ca4:	2c030000 	stccs	0, cr0, [r3], {-0}
    4ca8:	00000041 	andeq	r0, r0, r1, asr #32
    4cac:	00038d04 	andeq	r8, r3, r4, lsl #26
    4cb0:	41720300 	cmnmi	r2, r0, lsl #6
    4cb4:	05000000 	streq	r0, [r0, #-0]
    4cb8:	00000251 	andeq	r0, r0, r1, asr r2
    4cbc:	2c016504 	cfstr32cs	mvfx6, [r1], {4}
    4cc0:	06000000 	streq	r0, [r0], -r0
    4cc4:	b7a60304 	strlt	r0, [r6, r4, lsl #6]!
    4cc8:	07000000 	streq	r0, [r0, -r0]
    4ccc:	0000024b 	andeq	r0, r0, fp, asr #4
    4cd0:	008ca803 	addeq	sl, ip, r3, lsl #16
    4cd4:	dd070000 	stcle	0, cr0, [r7, #-0]
    4cd8:	03000001 	movweq	r0, #1
    4cdc:	0000b7a9 	andeq	fp, r0, r9, lsr #15
    4ce0:	4f080000 	svcmi	0x00080000
    4ce4:	c7000000 	strgt	r0, [r0, -r0]
    4ce8:	09000000 	stmdbeq	r0, {}	; <UNPREDICTABLE>
    4cec:	000000c7 	andeq	r0, r0, r7, asr #1
    4cf0:	04030003 	streq	r0, [r3], #-3
    4cf4:	00027707 	andeq	r7, r2, r7, lsl #14
    4cf8:	03080a00 	movweq	r0, #35328	; 0x8a00
    4cfc:	0000efa3 	andeq	lr, r0, r3, lsr #31
    4d00:	03770b00 	cmneq	r7, #0, 22
    4d04:	a5030000 	strge	r0, [r3, #-0]
    4d08:	00000025 	andeq	r0, r0, r5, lsr #32
    4d0c:	037f0b00 	cmneq	pc, #0, 22
    4d10:	aa030000 	bge	c4d18 <__bss_end__+0xbad80>
    4d14:	00000098 	muleq	r0, r8, r0
    4d18:	0a040004 	beq	104d30 <__bss_end__+0xfad98>
    4d1c:	03000003 	movweq	r0, #3
    4d20:	0000ceab 	andeq	ip, r0, fp, lsr #29
    4d24:	019a0400 	orrseq	r0, sl, r0, lsl #8
    4d28:	af030000 	svcge	0x00030000
    4d2c:	0000006b 	andeq	r0, r0, fp, rrx
    4d30:	040d040c 	streq	r0, [sp], #-1036	; 0xfffffbf4
    4d34:	0000010d 	andeq	r0, r0, sp, lsl #2
    4d38:	cf080103 	svcgt	0x00080103
    4d3c:	0e000002 	cdpeq	0, 0, cr0, cr0, cr2, {0}
    4d40:	0000010d 	andeq	r0, r0, sp, lsl #2
    4d44:	00042104 	andeq	r2, r4, r4, lsl #2
    4d48:	5d160500 	cfldr32pl	mvfx0, [r6, #-0]
    4d4c:	0f000000 	svceq	0x00000000
    4d50:	000001ab 	andeq	r0, r0, fp, lsr #3
    4d54:	772d0518 			; <UNDEFINED> instruction: 0x772d0518
    4d58:	0b000001 	bleq	4d64 <_start-0x329c>
    4d5c:	0000032b 	andeq	r0, r0, fp, lsr #6
    4d60:	01772f05 	cmneq	r7, r5, lsl #30
    4d64:	10000000 	andne	r0, r0, r0
    4d68:	05006b5f 	streq	r6, [r0, #-2911]	; 0xfffff4a1
    4d6c:	00002530 	andeq	r2, r0, r0, lsr r5
    4d70:	620b0400 	andvs	r0, fp, #0, 8
    4d74:	05000003 	streq	r0, [r0, #-3]
    4d78:	00002530 	andeq	r2, r0, r0, lsr r5
    4d7c:	940b0800 	strls	r0, [fp], #-2048	; 0xfffff800
    4d80:	05000001 	streq	r0, [r0, #-1]
    4d84:	00002530 	andeq	r2, r0, r0, lsr r5
    4d88:	6f0b0c00 	svcvs	0x000b0c00
    4d8c:	05000004 	streq	r0, [r0, #-4]
    4d90:	00002530 	andeq	r2, r0, r0, lsr r5
    4d94:	5f101000 	svcpl	0x00101000
    4d98:	31050078 	tstcc	r5, r8, ror r0
    4d9c:	0000017d 	andeq	r0, r0, sp, ror r1
    4da0:	040d0014 	streq	r0, [sp], #-20	; 0xffffffec
    4da4:	00000124 	andeq	r0, r0, r4, lsr #2
    4da8:	00011908 	andeq	r1, r1, r8, lsl #18
    4dac:	00018d00 	andeq	r8, r1, r0, lsl #26
    4db0:	00c70900 	sbceq	r0, r7, r0, lsl #18
    4db4:	00000000 	andeq	r0, r0, r0
    4db8:	0001d80f 	andeq	sp, r1, pc, lsl #16
    4dbc:	35052400 	strcc	r2, [r5, #-1024]	; 0xfffffc00
    4dc0:	00000206 	andeq	r0, r0, r6, lsl #4
    4dc4:	0000920b 	andeq	r9, r0, fp, lsl #4
    4dc8:	25370500 	ldrcs	r0, [r7, #-1280]!	; 0xfffffb00
    4dcc:	00000000 	andeq	r0, r0, r0
    4dd0:	0003950b 	andeq	r9, r3, fp, lsl #10
    4dd4:	25380500 	ldrcs	r0, [r8, #-1280]!	; 0xfffffb00
    4dd8:	04000000 	streq	r0, [r0], #-0
    4ddc:	0000b50b 	andeq	fp, r0, fp, lsl #10
    4de0:	25390500 	ldrcs	r0, [r9, #-1280]!	; 0xfffffb00
    4de4:	08000000 	stmdaeq	r0, {}	; <UNPREDICTABLE>
    4de8:	0004f70b 	andeq	pc, r4, fp, lsl #14
    4dec:	253a0500 	ldrcs	r0, [sl, #-1280]!	; 0xfffffb00
    4df0:	0c000000 	stceq	0, cr0, [r0], {-0}
    4df4:	0002870b 	andeq	r8, r2, fp, lsl #14
    4df8:	253b0500 	ldrcs	r0, [fp, #-1280]!	; 0xfffffb00
    4dfc:	10000000 	andne	r0, r0, r0
    4e00:	00026d0b 	andeq	r6, r2, fp, lsl #26
    4e04:	253c0500 	ldrcs	r0, [ip, #-1280]!	; 0xfffffb00
    4e08:	14000000 	strne	r0, [r0], #-0
    4e0c:	0004740b 	andeq	r7, r4, fp, lsl #8
    4e10:	253d0500 	ldrcs	r0, [sp, #-1280]!	; 0xfffffb00
    4e14:	18000000 	stmdane	r0, {}	; <UNPREDICTABLE>
    4e18:	0002ec0b 	andeq	lr, r2, fp, lsl #24
    4e1c:	253e0500 	ldrcs	r0, [lr, #-1280]!	; 0xfffffb00
    4e20:	1c000000 	stcne	0, cr0, [r0], {-0}
    4e24:	0004be0b 	andeq	fp, r4, fp, lsl #28
    4e28:	253f0500 	ldrcs	r0, [pc, #-1280]!	; 4930 <_start-0x36d0>
    4e2c:	20000000 	andcs	r0, r0, r0
    4e30:	00f51100 	rscseq	r1, r5, r0, lsl #2
    4e34:	01080000 	mrseq	r0, (UNDEF: 8)
    4e38:	02464805 	subeq	r4, r6, #327680	; 0x50000
    4e3c:	870b0000 	strhi	r0, [fp, -r0]
    4e40:	05000001 	streq	r0, [r0, #-1]
    4e44:	00024649 	andeq	r4, r2, r9, asr #12
    4e48:	000b0000 	andeq	r0, fp, r0
    4e4c:	05000000 	streq	r0, [r0, #-0]
    4e50:	0002464a 	andeq	r4, r2, sl, asr #12
    4e54:	13128000 	tstne	r2, #0
    4e58:	05000004 	streq	r0, [r0, #-4]
    4e5c:	0001194c 	andeq	r1, r1, ip, asr #18
    4e60:	12010000 	andne	r0, r1, #0
    4e64:	0000011a 	andeq	r0, r0, sl, lsl r1
    4e68:	01194f05 	tsteq	r9, r5, lsl #30
    4e6c:	01040000 	mrseq	r0, (UNDEF: 4)
    4e70:	01050800 	tsteq	r5, r0, lsl #16
    4e74:	02560000 	subseq	r0, r6, #0
    4e78:	c7090000 	strgt	r0, [r9, -r0]
    4e7c:	1f000000 	svcne	0x00000000
    4e80:	02901100 	addseq	r1, r0, #0, 2
    4e84:	01900000 	orrseq	r0, r0, r0
    4e88:	02945b05 	addseq	r5, r4, #5120	; 0x1400
    4e8c:	2b0b0000 	blcs	2c4e94 <__bss_end__+0x2baefc>
    4e90:	05000003 	streq	r0, [r0, #-3]
    4e94:	0002945c 	andeq	r9, r2, ip, asr r4
    4e98:	430b0000 	movwmi	r0, #45056	; 0xb000
    4e9c:	05000003 	streq	r0, [r0, #-3]
    4ea0:	0000255d 	andeq	r2, r0, sp, asr r5
    4ea4:	8f0b0400 	svchi	0x000b0400
    4ea8:	05000001 	streq	r0, [r0, #-1]
    4eac:	00029a5f 	andeq	r9, r2, pc, asr sl
    4eb0:	f50b0800 			; <UNDEFINED> instruction: 0xf50b0800
    4eb4:	05000000 	streq	r0, [r0, #-0]
    4eb8:	00020660 	andeq	r0, r2, r0, ror #12
    4ebc:	0d008800 	stceq	8, cr8, [r0, #-0]
    4ec0:	00025604 	andeq	r5, r2, r4, lsl #12
    4ec4:	02aa0800 	adceq	r0, sl, #0, 16
    4ec8:	02aa0000 	adceq	r0, sl, #0
    4ecc:	c7090000 	strgt	r0, [r9, -r0]
    4ed0:	1f000000 	svcne	0x00000000
    4ed4:	b0040d00 	andlt	r0, r4, r0, lsl #26
    4ed8:	13000002 	movwne	r0, #2
    4edc:	0002f60f 	andeq	pc, r2, pc, lsl #12
    4ee0:	73050800 	movwvc	r0, #22528	; 0x5800
    4ee4:	000002d6 	ldrdeq	r0, [r0], -r6
    4ee8:	0000af0b 	andeq	sl, r0, fp, lsl #30
    4eec:	d6740500 	ldrbtle	r0, [r4], -r0, lsl #10
    4ef0:	00000002 	andeq	r0, r0, r2
    4ef4:	00000c0b 	andeq	r0, r0, fp, lsl #24
    4ef8:	25750500 	ldrbcs	r0, [r5, #-1280]!	; 0xfffffb00
    4efc:	04000000 	streq	r0, [r0], #-0
    4f00:	4f040d00 	svcmi	0x00040d00
    4f04:	0f000000 	svceq	0x00000000
    4f08:	00000315 	andeq	r0, r0, r5, lsl r3
    4f0c:	06b30568 	ldrteq	r0, [r3], r8, ror #10
    4f10:	10000004 	andne	r0, r0, r4
    4f14:	0500705f 	streq	r7, [r0, #-95]	; 0xffffffa1
    4f18:	0002d6b4 			; <UNDEFINED> instruction: 0x0002d6b4
    4f1c:	5f100000 	svcpl	0x00100000
    4f20:	b5050072 	strlt	r0, [r5, #-114]	; 0xffffff8e
    4f24:	00000025 	andeq	r0, r0, r5, lsr #32
    4f28:	775f1004 	ldrbvc	r1, [pc, -r4]
    4f2c:	25b60500 	ldrcs	r0, [r6, #1280]!	; 0x500
    4f30:	08000000 	stmdaeq	r0, {}	; <UNPREDICTABLE>
    4f34:	0001130b 	andeq	r1, r1, fp, lsl #6
    4f38:	3ab70500 	bcc	fedc6340 <__bss_end__+0xfedbc3a8>
    4f3c:	0c000000 	stceq	0, cr0, [r0], {-0}
    4f40:	0001f40b 	andeq	pc, r1, fp, lsl #8
    4f44:	3ab80500 	bcc	fee0634c <__bss_end__+0xfedfc3b4>
    4f48:	0e000000 	cdpeq	0, 0, cr0, cr0, cr0, {0}
    4f4c:	66625f10 	uqadd16vs	r5, r2, r0
    4f50:	b1b90500 			; <UNDEFINED> instruction: 0xb1b90500
    4f54:	10000002 	andne	r0, r0, r2
    4f58:	00006c0b 	andeq	r6, r0, fp, lsl #24
    4f5c:	25ba0500 	ldrcs	r0, [sl, #1280]!	; 0x500
    4f60:	18000000 	stmdane	r0, {}	; <UNPREDICTABLE>
    4f64:	0001030b 	andeq	r0, r1, fp, lsl #6
    4f68:	05c10500 	strbeq	r0, [r1, #1280]	; 0x500
    4f6c:	1c000001 	stcne	0, cr0, [r0], {1}
    4f70:	000a780b 	andeq	r7, sl, fp, lsl #16
    4f74:	61c30500 	bicvs	r0, r3, r0, lsl #10
    4f78:	20000005 	andcs	r0, r0, r5
    4f7c:	00060c0b 	andeq	r0, r6, fp, lsl #24
    4f80:	8bc50500 	blhi	ff146388 <__bss_end__+0xff13c3f0>
    4f84:	24000005 	strcs	r0, [r0], #-5
    4f88:	0003870b 	andeq	r8, r3, fp, lsl #14
    4f8c:	afc80500 	svcge	0x00c80500
    4f90:	28000005 	stmdacs	r0, {r0, r2}
    4f94:	0004d80b 	andeq	sp, r4, fp, lsl #16
    4f98:	c9c90500 	stmibgt	r9, {r8, sl}^
    4f9c:	2c000005 	stccs	0, cr0, [r0], {5}
    4fa0:	62755f10 	rsbsvs	r5, r5, #16, 30	; 0x40
    4fa4:	b1cc0500 	biclt	r0, ip, r0, lsl #10
    4fa8:	30000002 	andcc	r0, r0, r2
    4fac:	70755f10 	rsbsvc	r5, r5, r0, lsl pc
    4fb0:	d6cd0500 	strble	r0, [sp], r0, lsl #10
    4fb4:	38000002 	stmdacc	r0, {r1}
    4fb8:	72755f10 	rsbsvc	r5, r5, #16, 30	; 0x40
    4fbc:	25ce0500 	strbcs	r0, [lr, #1280]	; 0x500
    4fc0:	3c000000 	stccc	0, cr0, [r0], {-0}
    4fc4:	0000a90b 	andeq	sl, r0, fp, lsl #18
    4fc8:	cfd10500 	svcgt	0x00d10500
    4fcc:	40000005 	andmi	r0, r0, r5
    4fd0:	0004b00b 	andeq	fp, r4, fp
    4fd4:	dfd20500 	svcle	0x00d20500
    4fd8:	43000005 	movwmi	r0, #5
    4fdc:	626c5f10 	rsbvs	r5, ip, #16, 30	; 0x40
    4fe0:	b1d50500 	bicslt	r0, r5, r0, lsl #10
    4fe4:	44000002 	strmi	r0, [r0], #-2
    4fe8:	0001380b 	andeq	r3, r1, fp, lsl #16
    4fec:	25d80500 	ldrbcs	r0, [r8, #1280]	; 0x500
    4ff0:	4c000000 	stcmi	0, cr0, [r0], {-0}
    4ff4:	0001490b 	andeq	r4, r1, fp, lsl #18
    4ff8:	76d90500 	ldrbvc	r0, [r9], r0, lsl #10
    4ffc:	50000000 	andpl	r0, r0, r0
    5000:	000a190b 	andeq	r1, sl, fp, lsl #18
    5004:	24dc0500 	ldrbcs	r0, [ip], #1280	; 0x500
    5008:	54000004 	strpl	r0, [r0], #-4
    500c:	00025f0b 	andeq	r5, r2, fp, lsl #30
    5010:	fae00500 	blx	ff806418 <__bss_end__+0xff7fc480>
    5014:	58000000 	stmdapl	r0, {}	; <UNPREDICTABLE>
    5018:	00031d0b 	andeq	r1, r3, fp, lsl #26
    501c:	efe20500 	svc	0x00e20500
    5020:	5c000000 	stcpl	0, cr0, [r0], {-0}
    5024:	0002650b 	andeq	r6, r2, fp, lsl #10
    5028:	25e30500 	strbcs	r0, [r3, #1280]!	; 0x500
    502c:	64000000 	strvs	r0, [r0], #-0
    5030:	00251400 	eoreq	r1, r5, r0, lsl #8
    5034:	04240000 	strteq	r0, [r4], #-0
    5038:	24150000 	ldrcs	r0, [r5], #-0
    503c:	15000004 	strne	r0, [r0, #-4]
    5040:	00000105 	andeq	r0, r0, r5, lsl #2
    5044:	00010715 	andeq	r0, r1, r5, lsl r7
    5048:	00251500 	eoreq	r1, r5, r0, lsl #10
    504c:	0d000000 	stceq	0, cr0, [r0, #-0]
    5050:	00042f04 	andeq	r2, r4, r4, lsl #30
    5054:	04240e00 	strteq	r0, [r4], #-3584	; 0xfffff200
    5058:	6a160000 	bvs	585060 <__bss_end__+0x57b0c8>
    505c:	28000003 	stmdacs	r0, {r0, r1}
    5060:	02380504 	eorseq	r0, r8, #4, 10	; 0x1000000
    5064:	00000561 	andeq	r0, r0, r1, ror #10
    5068:	0002db17 	andeq	sp, r2, r7, lsl fp
    506c:	023a0500 	eorseq	r0, sl, #0, 10
    5070:	00000025 	andeq	r0, r0, r5, lsr #32
    5074:	04841700 	streq	r1, [r4], #1792	; 0x700
    5078:	3f050000 	svccc	0x00050000
    507c:	00063602 	andeq	r3, r6, r2, lsl #12
    5080:	e4170400 	ldr	r0, [r7], #-1024	; 0xfffffc00
    5084:	05000001 	streq	r0, [r0, #-1]
    5088:	0636023f 			; <UNDEFINED> instruction: 0x0636023f
    508c:	17080000 	strne	r0, [r8, -r0]
    5090:	000001a3 	andeq	r0, r0, r3, lsr #3
    5094:	36023f05 	strcc	r3, [r2], -r5, lsl #30
    5098:	0c000006 	stceq	0, cr0, [r0], {6}
    509c:	00033e17 	andeq	r3, r3, r7, lsl lr
    50a0:	02410500 	subeq	r0, r1, #0, 10
    50a4:	00000025 	andeq	r0, r0, r5, lsr #32
    50a8:	001a1710 	andseq	r1, sl, r0, lsl r7
    50ac:	42050000 	andmi	r0, r5, #0
    50b0:	00081802 	andeq	r1, r8, r2, lsl #16
    50b4:	49171400 	ldmdbmi	r7, {sl, ip}
    50b8:	05000004 	streq	r0, [r0, #-4]
    50bc:	00250244 	eoreq	r0, r5, r4, asr #4
    50c0:	17300000 	ldrne	r0, [r0, -r0]!
    50c4:	00000348 	andeq	r0, r0, r8, asr #6
    50c8:	85024505 	strhi	r4, [r2, #-1285]	; 0xfffffafb
    50cc:	34000005 	strcc	r0, [r0], #-5
    50d0:	00029817 	andeq	r9, r2, r7, lsl r8
    50d4:	02470500 	subeq	r0, r7, #0, 10
    50d8:	00000025 	andeq	r0, r0, r5, lsr #32
    50dc:	03581738 	cmpeq	r8, #56, 14	; 0xe00000
    50e0:	49050000 	stmdbmi	r5, {}	; <UNPREDICTABLE>
    50e4:	00083302 	andeq	r3, r8, r2, lsl #6
    50e8:	43173c00 	tstmi	r7, #0, 24
    50ec:	05000002 	streq	r0, [r0, #-2]
    50f0:	0177024c 	cmneq	r7, ip, asr #4
    50f4:	17400000 	strbne	r0, [r0, -r0]
    50f8:	000001c2 	andeq	r0, r0, r2, asr #3
    50fc:	25024d05 	strcs	r4, [r2, #-3333]	; 0xfffff2fb
    5100:	44000000 	strmi	r0, [r0], #-0
    5104:	0004f217 	andeq	pc, r4, r7, lsl r2	; <UNPREDICTABLE>
    5108:	024e0500 	subeq	r0, lr, #0, 10
    510c:	00000177 	andeq	r0, r0, r7, ror r1
    5110:	02aa1748 	adceq	r1, sl, #72, 14	; 0x1200000
    5114:	4f050000 	svcmi	0x00050000
    5118:	00083902 	andeq	r3, r8, r2, lsl #18
    511c:	ec174c00 	ldc	12, cr4, [r7], {-0}
    5120:	05000001 	streq	r0, [r0, #-1]
    5124:	00250252 	eoreq	r0, r5, r2, asr r2
    5128:	17500000 	ldrbne	r0, [r0, -r0]
    512c:	00000141 	andeq	r0, r0, r1, asr #2
    5130:	07025305 	streq	r5, [r2, -r5, lsl #6]
    5134:	54000001 	strpl	r0, [r0], #-1
    5138:	0002d417 	andeq	sp, r2, r7, lsl r4
    513c:	02760500 	rsbseq	r0, r6, #0, 10
    5140:	000007f6 	strdeq	r0, [r0], -r6
    5144:	02901858 	addseq	r1, r0, #88, 16	; 0x580000
    5148:	7a050000 	bvc	145150 <__bss_end__+0x13b1b8>
    514c:	00029402 	andeq	r9, r2, r2, lsl #8
    5150:	18014800 	stmdane	r1, {fp, lr}
    5154:	00000221 	andeq	r0, r0, r1, lsr #4
    5158:	56027b05 	strpl	r7, [r2], -r5, lsl #22
    515c:	4c000002 	stcmi	0, cr0, [r0], {2}
    5160:	049e1801 	ldreq	r1, [lr], #2049	; 0x801
    5164:	7f050000 	svcvc	0x00050000
    5168:	00084a02 	andeq	r4, r8, r2, lsl #20
    516c:	1802dc00 	stmdane	r2, {sl, fp, ip, lr, pc}
    5170:	0000010b 	andeq	r0, r0, fp, lsl #2
    5174:	fb028405 	blx	a6192 <__bss_end__+0x9c1fa>
    5178:	e0000005 	and	r0, r0, r5
    517c:	00f01802 	rscseq	r1, r0, r2, lsl #16
    5180:	85050000 	strhi	r0, [r5, #-0]
    5184:	00085602 	andeq	r5, r8, r2, lsl #12
    5188:	0002ec00 	andeq	lr, r2, r0, lsl #24
    518c:	0406040d 	streq	r0, [r6], #-1037	; 0xfffffbf3
    5190:	25140000 	ldrcs	r0, [r4, #-0]
    5194:	85000000 	strhi	r0, [r0, #-0]
    5198:	15000005 	strne	r0, [r0, #-5]
    519c:	00000424 	andeq	r0, r0, r4, lsr #8
    51a0:	00010515 	andeq	r0, r1, r5, lsl r5
    51a4:	05851500 	streq	r1, [r5, #1280]	; 0x500
    51a8:	25150000 	ldrcs	r0, [r5, #-0]
    51ac:	00000000 	andeq	r0, r0, r0
    51b0:	0114040d 	tsteq	r4, sp, lsl #8
    51b4:	040d0000 	streq	r0, [sp], #-0
    51b8:	00000567 	andeq	r0, r0, r7, ror #10
    51bc:	00008114 	andeq	r8, r0, r4, lsl r1
    51c0:	0005af00 	andeq	sl, r5, r0, lsl #30
    51c4:	04241500 	strteq	r1, [r4], #-1280	; 0xfffffb00
    51c8:	05150000 	ldreq	r0, [r5, #-0]
    51cc:	15000001 	strne	r0, [r0, #-1]
    51d0:	00000081 	andeq	r0, r0, r1, lsl #1
    51d4:	00002515 	andeq	r2, r0, r5, lsl r5
    51d8:	040d0000 	streq	r0, [sp], #-0
    51dc:	00000591 	muleq	r0, r1, r5
    51e0:	00002514 	andeq	r2, r0, r4, lsl r5
    51e4:	0005c900 	andeq	ip, r5, r0, lsl #18
    51e8:	04241500 	strteq	r1, [r4], #-1280	; 0xfffffb00
    51ec:	05150000 	ldreq	r0, [r5, #-0]
    51f0:	00000001 	andeq	r0, r0, r1
    51f4:	05b5040d 	ldreq	r0, [r5, #1037]!	; 0x40d
    51f8:	4f080000 	svcmi	0x00080000
    51fc:	df000000 	svcle	0x00000000
    5200:	09000005 	stmdbeq	r0, {r0, r2}
    5204:	000000c7 	andeq	r0, r0, r7, asr #1
    5208:	4f080002 	svcmi	0x00080002
    520c:	ef000000 	svc	0x00000000
    5210:	09000005 	stmdbeq	r0, {r0, r2}
    5214:	000000c7 	andeq	r0, r0, r7, asr #1
    5218:	03050000 	movweq	r0, #20480	; 0x5000
    521c:	05000003 	streq	r0, [r0, #-3]
    5220:	02dc011d 	sbcseq	r0, ip, #1073741831	; 0x40000007
    5224:	7e190000 	cdpvc	0, 1, cr0, cr9, cr0, {0}
    5228:	0c000004 	stceq	0, cr0, [r0], {4}
    522c:	30012105 	andcc	r2, r1, r5, lsl #2
    5230:	17000006 	strne	r0, [r0, -r6]
    5234:	0000032b 	andeq	r0, r0, fp, lsr #6
    5238:	30012305 	andcc	r2, r1, r5, lsl #6
    523c:	00000006 	andeq	r0, r0, r6
    5240:	00020717 	andeq	r0, r2, r7, lsl r7
    5244:	01240500 			; <UNDEFINED> instruction: 0x01240500
    5248:	00000025 	andeq	r0, r0, r5, lsr #32
    524c:	02fd1704 	rscseq	r1, sp, #4, 14	; 0x100000
    5250:	25050000 	strcs	r0, [r5, #-0]
    5254:	00063601 	andeq	r3, r6, r1, lsl #12
    5258:	0d000800 	stceq	8, cr0, [r0, #-0]
    525c:	0005fb04 	andeq	pc, r5, r4, lsl #22
    5260:	ef040d00 	svc	0x00040d00
    5264:	19000005 	stmdbne	r0, {r0, r2}
    5268:	00000012 	andeq	r0, r0, r2, lsl r0
    526c:	013d050e 	teqeq	sp, lr, lsl #10
    5270:	00000671 	andeq	r0, r0, r1, ror r6
    5274:	00037117 	andeq	r7, r3, r7, lsl r1
    5278:	013e0500 	teqeq	lr, r0, lsl #10
    527c:	00000671 	andeq	r0, r0, r1, ror r6
    5280:	039e1700 	orrseq	r1, lr, #0, 14
    5284:	3f050000 	svccc	0x00050000
    5288:	00067101 	andeq	r7, r6, r1, lsl #2
    528c:	1c170600 	ldcne	6, cr0, [r7], {-0}
    5290:	05000004 	streq	r0, [r0, #-4]
    5294:	00560140 	subseq	r0, r6, r0, asr #2
    5298:	000c0000 	andeq	r0, ip, r0
    529c:	00005608 	andeq	r5, r0, r8, lsl #12
    52a0:	00068100 	andeq	r8, r6, r0, lsl #2
    52a4:	00c70900 	sbceq	r0, r7, r0, lsl #18
    52a8:	00020000 	andeq	r0, r2, r0
    52ac:	5705d01a 	smladpl	r5, sl, r0, sp
    52b0:	00078202 	andeq	r8, r7, r2, lsl #4
    52b4:	04621700 	strbteq	r1, [r2], #-1792	; 0xfffff900
    52b8:	59050000 	stmdbpl	r5, {}	; <UNPREDICTABLE>
    52bc:	00002c02 	andeq	r2, r0, r2, lsl #24
    52c0:	06170000 	ldreq	r0, [r7], -r0
    52c4:	05000004 	streq	r0, [r0, #-4]
    52c8:	0107025a 	tsteq	r7, sl, asr r2
    52cc:	17040000 	strne	r0, [r4, -r0]
    52d0:	00000236 	andeq	r0, r0, r6, lsr r2
    52d4:	82025b05 	andhi	r5, r2, #5120	; 0x1400
    52d8:	08000007 	stmdaeq	r0, {r0, r1, r2}
    52dc:	0004c917 	andeq	ip, r4, r7, lsl r9
    52e0:	025c0500 	subseq	r0, ip, #0, 10
    52e4:	0000018d 	andeq	r0, r0, sp, lsl #3
    52e8:	01b31724 			; <UNDEFINED> instruction: 0x01b31724
    52ec:	5d050000 	stcpl	0, cr0, [r5, #-0]
    52f0:	00002502 	andeq	r2, r0, r2, lsl #10
    52f4:	26174800 	ldrcs	r4, [r7], -r0, lsl #16
    52f8:	05000003 	streq	r0, [r0, #-3]
    52fc:	0064025e 	rsbeq	r0, r4, lr, asr r2
    5300:	17500000 	ldrbne	r0, [r0, -r0]
    5304:	000004df 	ldrdeq	r0, [r0], -pc	; <UNPREDICTABLE>
    5308:	3c025f05 	stccc	15, cr5, [r2], {5}
    530c:	58000006 	stmdapl	r0, {r1, r2}
    5310:	00033117 	andeq	r3, r3, r7, lsl r1
    5314:	02600500 	rsbeq	r0, r0, #0, 10
    5318:	000000ef 	andeq	r0, r0, pc, ror #1
    531c:	04e41768 	strbteq	r1, [r4], #1896	; 0x768
    5320:	61050000 	mrsvs	r0, (UNDEF: 5)
    5324:	0000ef02 	andeq	lr, r0, r2, lsl #30
    5328:	84177000 	ldrhi	r7, [r7], #-0
    532c:	05000000 	streq	r0, [r0, #-0]
    5330:	00ef0262 	rsceq	r0, pc, r2, ror #4
    5334:	17780000 	ldrbne	r0, [r8, -r0]!
    5338:	00000494 	muleq	r0, r4, r4
    533c:	92026305 	andls	r6, r2, #335544320	; 0x14000000
    5340:	80000007 	andhi	r0, r0, r7
    5344:	00022a17 	andeq	r2, r2, r7, lsl sl
    5348:	02640500 	rsbeq	r0, r4, #0, 10
    534c:	000007a2 	andeq	r0, r0, r2, lsr #15
    5350:	04291788 	strteq	r1, [r9], #-1928	; 0xfffff878
    5354:	65050000 	strvs	r0, [r5, #-0]
    5358:	00002502 	andeq	r2, r0, r2, lsl #10
    535c:	7917a000 	ldmdbvc	r7, {sp, pc}
    5360:	05000001 	streq	r0, [r0, #-1]
    5364:	00ef0266 	rsceq	r0, pc, r6, ror #4
    5368:	17a40000 	strne	r0, [r4, r0]!
    536c:	00000075 	andeq	r0, r0, r5, ror r0
    5370:	ef026705 	svc	0x00026705
    5374:	ac000000 	stcge	0, cr0, [r0], {-0}
    5378:	00016817 	andeq	r6, r1, r7, lsl r8
    537c:	02680500 	rsbeq	r0, r8, #0, 10
    5380:	000000ef 	andeq	r0, r0, pc, ror #1
    5384:	002d17b4 	strhteq	r1, [sp], -r4
    5388:	69050000 	stmdbvs	r5, {}	; <UNPREDICTABLE>
    538c:	0000ef02 	andeq	lr, r0, r2, lsl #30
    5390:	3c17bc00 	ldccc	12, cr11, [r7], {-0}
    5394:	05000000 	streq	r0, [r0, #-0]
    5398:	00ef026a 	rsceq	r0, pc, sl, ror #4
    539c:	17c40000 	strbne	r0, [r4, r0]
    53a0:	000002d9 	ldrdeq	r0, [r0], -r9
    53a4:	25026b05 	strcs	r6, [r2, #-2821]	; 0xfffff4fb
    53a8:	cc000000 	stcgt	0, cr0, [r0], {-0}
    53ac:	010d0800 	tsteq	sp, r0, lsl #16
    53b0:	07920000 	ldreq	r0, [r2, r0]
    53b4:	c7090000 	strgt	r0, [r9, -r0]
    53b8:	19000000 	stmdbne	r0, {}	; <UNPREDICTABLE>
    53bc:	010d0800 	tsteq	sp, r0, lsl #16
    53c0:	07a20000 	streq	r0, [r2, r0]!
    53c4:	c7090000 	strgt	r0, [r9, -r0]
    53c8:	07000000 	streq	r0, [r0, -r0]
    53cc:	010d0800 	tsteq	sp, r0, lsl #16
    53d0:	07b20000 	ldreq	r0, [r2, r0]!
    53d4:	c7090000 	strgt	r0, [r9, -r0]
    53d8:	17000000 	strne	r0, [r0, -r0]
    53dc:	05f01a00 	ldrbeq	r1, [r0, #2560]!	; 0xa00
    53e0:	07d60270 			; <UNDEFINED> instruction: 0x07d60270
    53e4:	80170000 	andshi	r0, r7, r0
    53e8:	05000002 	streq	r0, [r0, #-2]
    53ec:	07d60273 			; <UNDEFINED> instruction: 0x07d60273
    53f0:	17000000 	strne	r0, [r0, -r0]
    53f4:	0000048b 	andeq	r0, r0, fp, lsl #9
    53f8:	e6027405 	str	r7, [r2], -r5, lsl #8
    53fc:	78000007 	stmdavc	r0, {r0, r1, r2}
    5400:	02d60800 	sbcseq	r0, r6, #0, 16
    5404:	07e60000 	strbeq	r0, [r6, r0]!
    5408:	c7090000 	strgt	r0, [r9, -r0]
    540c:	1d000000 	stcne	0, cr0, [r0, #-0]
    5410:	002c0800 	eoreq	r0, ip, r0, lsl #16
    5414:	07f60000 	ldrbeq	r0, [r6, r0]!
    5418:	c7090000 	strgt	r0, [r9, -r0]
    541c:	1d000000 	stcne	0, cr0, [r0, #-0]
    5420:	05f01b00 	ldrbeq	r1, [r0, #2816]!	; 0xb00
    5424:	08180255 	ldmdaeq	r8, {r0, r2, r4, r6, r9}
    5428:	6a1c0000 	bvs	705430 <__bss_end__+0x6fb498>
    542c:	05000003 	streq	r0, [r0, #-3]
    5430:	0681026c 	streq	r0, [r1], ip, ror #4
    5434:	b61c0000 	ldrlt	r0, [ip], -r0
    5438:	05000004 	streq	r0, [r0, #-4]
    543c:	07b20275 			; <UNDEFINED> instruction: 0x07b20275
    5440:	08000000 	stmdaeq	r0, {}	; <UNPREDICTABLE>
    5444:	0000010d 	andeq	r0, r0, sp, lsl #2
    5448:	00000828 	andeq	r0, r0, r8, lsr #16
    544c:	0000c709 	andeq	ip, r0, r9, lsl #14
    5450:	1d001800 	stcne	8, cr1, [r0, #-0]
    5454:	00000833 	andeq	r0, r0, r3, lsr r8
    5458:	00042415 	andeq	r2, r4, r5, lsl r4
    545c:	040d0000 	streq	r0, [sp], #-0
    5460:	00000828 	andeq	r0, r0, r8, lsr #16
    5464:	0177040d 	cmneq	r7, sp, lsl #8
    5468:	4a1d0000 	bmi	745470 <__bss_end__+0x73b4d8>
    546c:	15000008 	strne	r0, [r0, #-8]
    5470:	00000025 	andeq	r0, r0, r5, lsr #32
    5474:	50040d00 	andpl	r0, r4, r0, lsl #26
    5478:	0d000008 	stceq	0, cr0, [r0, #-32]	; 0xffffffe0
    547c:	00083f04 	andeq	r3, r8, r4, lsl #30
    5480:	05ef0800 	strbeq	r0, [pc, #2048]!	; 5c88 <_start-0x2378>
    5484:	08660000 	stmdaeq	r6!, {}^	; <UNPREDICTABLE>
    5488:	c7090000 	strgt	r0, [r9, -r0]
    548c:	02000000 	andeq	r0, r0, #0
    5490:	043d1e00 	ldrteq	r1, [sp], #-3584	; 0xfffff200
    5494:	fd050000 	stc2	0, cr0, [r5, #-0]
    5498:	00042402 	andeq	r2, r4, r2, lsl #8
    549c:	04361e00 	ldrteq	r1, [r6], #-3584	; 0xfffff200
    54a0:	fe050000 	cdp2	0, 0, cr0, cr5, cr0, {0}
    54a4:	00042a02 	andeq	r2, r4, r2, lsl #20
    54a8:	00251400 	eoreq	r1, r5, r0, lsl #8
    54ac:	088d0000 	stmeq	sp, {}	; <UNPREDICTABLE>
    54b0:	25150000 	ldrcs	r0, [r5, #-0]
    54b4:	00000000 	andeq	r0, r0, r0
    54b8:	0001cc1f 	andeq	ip, r1, pc, lsl ip
    54bc:	981d0600 	ldmdals	sp, {r9, sl}
    54c0:	0d000008 	stceq	0, cr0, [r0, #-32]	; 0xffffffe0
    54c4:	00087e04 	andeq	r7, r8, r4, lsl #28
    54c8:	00251400 	eoreq	r1, r5, r0, lsl #8
    54cc:	08ad0000 	stmiaeq	sp!, {}	; <UNPREDICTABLE>
    54d0:	85150000 	ldrhi	r0, [r5, #-0]
    54d4:	00000005 	andeq	r0, r0, r5
    54d8:	0007691f 	andeq	r6, r7, pc, lsl r9
    54dc:	b8220600 	stmdalt	r2!, {r9, sl}
    54e0:	0d000008 	stceq	0, cr0, [r0, #-32]	; 0xffffffe0
    54e4:	00089e04 	andeq	r9, r8, r4, lsl #28
    54e8:	088d2000 	stmeq	sp, {sp}
    54ec:	06010000 	streq	r0, [r1], -r0
    54f0:	96080305 	strls	r0, [r8], -r5, lsl #6
    54f4:	7a210000 	bvc	8454fc <__bss_end__+0x83b564>
    54f8:	01000007 	tsteq	r0, r7
    54fc:	008fe80b 	addeq	lr, pc, fp, lsl #16
    5500:	00001000 	andeq	r1, r0, r0
    5504:	ed9c0100 	ldfs	f0, [ip]
    5508:	22000008 	andcs	r0, r0, #8
    550c:	01007066 	tsteq	r0, r6, rrx
    5510:	0008980b 	andeq	r9, r8, fp, lsl #16
    5514:	00500100 	subseq	r0, r0, r0, lsl #2
    5518:	00059323 	andeq	r9, r5, r3, lsr #6
    551c:	d0080100 	andle	r0, r8, r0, lsl #2
    5520:	1800008f 	stmdane	r0, {r0, r1, r2, r3, r7}
    5524:	01000000 	mrseq	r0, (UNDEF: 0)
    5528:	0791249c 			; <UNDEFINED> instruction: 0x0791249c
    552c:	03010000 	movweq	r0, #4096	; 0x1000
    5530:	00000025 	andeq	r0, r0, r5, lsr #32
    5534:	00008fbc 			; <UNDEFINED> instruction: 0x00008fbc
    5538:	00000014 	andeq	r0, r0, r4, lsl r0
    553c:	09359c01 	ldmdbeq	r5!, {r0, sl, fp, ip, pc}
    5540:	63250000 			; <UNDEFINED> instruction: 0x63250000
    5544:	25030100 	strcs	r0, [r3, #-256]	; 0xffffff00
    5548:	3b000000 	blcc	5550 <_start-0x2ab0>
    554c:	2600000f 	strcs	r0, [r0], -pc
    5550:	00008fc8 	andeq	r8, r0, r8, asr #31
    5554:	00000935 	andeq	r0, r0, r5, lsr r9
    5558:	02500127 	subseq	r0, r0, #-1073741815	; 0xc0000009
    555c:	00000074 	andeq	r0, r0, r4, ror r0
    5560:	00078728 	andeq	r8, r7, r8, lsr #14
    5564:	00078700 	andeq	r8, r7, r0, lsl #14
    5568:	003c0600 	eorseq	r0, ip, r0, lsl #12
    556c:	000008d8 	ldrdeq	r0, [r0], -r8
    5570:	0fb80004 	svceq	0x00b80004
    5574:	01040000 	mrseq	r0, (UNDEF: 4)
    5578:	000003a4 	andeq	r0, r0, r4, lsr #7
    557c:	0007b80c 	andeq	fp, r7, ip, lsl #16
    5580:	0006de00 	andeq	sp, r6, r0, lsl #28
    5584:	008ff800 	addeq	pc, pc, r0, lsl #16
    5588:	00002000 	andeq	r2, r0, r0
    558c:	00093200 	andeq	r3, r9, r0, lsl #4
    5590:	05040200 	streq	r0, [r4, #-512]	; 0xfffffe00
    5594:	00746e69 	rsbseq	r6, r4, r9, ror #28
    5598:	0007b103 	andeq	fp, r7, r3, lsl #2
    559c:	37d80200 	ldrbcc	r0, [r8, r0, lsl #4]
    55a0:	04000000 	streq	r0, [r0], #-0
    55a4:	00570704 	subseq	r0, r7, r4, lsl #14
    55a8:	01040000 	mrseq	r0, (UNDEF: 4)
    55ac:	0002c806 	andeq	ip, r2, r6, lsl #16
    55b0:	08010400 	stmdaeq	r1, {sl}
    55b4:	000002c6 	andeq	r0, r0, r6, asr #5
    55b8:	e2050204 	and	r0, r5, #4, 4	; 0x40000000
    55bc:	04000002 	streq	r0, [r0], #-2
    55c0:	020e0702 	andeq	r0, lr, #524288	; 0x80000
    55c4:	04040000 	streq	r0, [r4], #-0
    55c8:	0000a005 	andeq	sl, r0, r5
    55cc:	07040400 	streq	r0, [r4, -r0, lsl #8]
    55d0:	00000052 	andeq	r0, r0, r2, asr r0
    55d4:	9b050804 	blls	1475ec <__bss_end__+0x13d654>
    55d8:	04000000 	streq	r0, [r0], #-0
    55dc:	004d0708 	subeq	r0, sp, r8, lsl #14
    55e0:	b4030000 	strlt	r0, [r3], #-0
    55e4:	03000002 	movweq	r0, #2
    55e8:	00002507 	andeq	r2, r0, r7, lsl #10
    55ec:	02a30300 	adceq	r0, r3, #0, 6
    55f0:	2c040000 	stccs	0, cr0, [r4], {-0}
    55f4:	0000005a 	andeq	r0, r0, sl, asr r0
    55f8:	00038d03 	andeq	r8, r3, r3, lsl #26
    55fc:	5a720400 	bpl	1c86604 <__bss_end__+0x1c7c66c>
    5600:	05000000 	streq	r0, [r0, #-0]
    5604:	00000251 	andeq	r0, r0, r1, asr r2
    5608:	37016502 	strcc	r6, [r1, -r2, lsl #10]
    560c:	06000000 	streq	r0, [r0], -r0
    5610:	c2a60404 	adcgt	r0, r6, #4, 8	; 0x4000000
    5614:	07000000 	streq	r0, [r0, -r0]
    5618:	0000024b 	andeq	r0, r0, fp, asr #4
    561c:	0097a804 	addseq	sl, r7, r4, lsl #16
    5620:	dd070000 	stcle	0, cr0, [r7, #-0]
    5624:	04000001 	streq	r0, [r0], #-1
    5628:	0000c2a9 	andeq	ip, r0, r9, lsr #5
    562c:	45080000 	strmi	r0, [r8, #-0]
    5630:	d2000000 	andle	r0, r0, #0
    5634:	09000000 	stmdbeq	r0, {}	; <UNPREDICTABLE>
    5638:	000000d2 	ldrdeq	r0, [r0], -r2
    563c:	04040003 	streq	r0, [r4], #-3
    5640:	00027707 	andeq	r7, r2, r7, lsl #14
    5644:	04080a00 	streq	r0, [r8], #-2560	; 0xfffff600
    5648:	0000faa3 	andeq	pc, r0, r3, lsr #21
    564c:	03770b00 	cmneq	r7, #0, 22
    5650:	a5040000 	strge	r0, [r4, #-0]
    5654:	00000025 	andeq	r0, r0, r5, lsr #32
    5658:	037f0b00 	cmneq	pc, #0, 22
    565c:	aa040000 	bge	105664 <__bss_end__+0xfb6cc>
    5660:	000000a3 	andeq	r0, r0, r3, lsr #1
    5664:	0a030004 	beq	c567c <__bss_end__+0xbb6e4>
    5668:	04000003 	streq	r0, [r0], #-3
    566c:	0000d9ab 	andeq	sp, r0, fp, lsr #19
    5670:	019a0300 	orrseq	r0, sl, r0, lsl #6
    5674:	af040000 	svcge	0x00040000
    5678:	00000076 	andeq	r0, r0, r6, ror r0
    567c:	040d040c 	streq	r0, [sp], #-1036	; 0xfffffbf4
    5680:	00000118 	andeq	r0, r0, r8, lsl r1
    5684:	cf080104 	svcgt	0x00080104
    5688:	0e000002 	cdpeq	0, 0, cr0, cr0, cr2, {0}
    568c:	00000118 	andeq	r0, r0, r8, lsl r1
    5690:	00042103 	andeq	r2, r4, r3, lsl #2
    5694:	61160500 	tstvs	r6, r0, lsl #10
    5698:	0f000000 	svceq	0x00000000
    569c:	000001ab 	andeq	r0, r0, fp, lsr #3
    56a0:	822d0518 	eorhi	r0, sp, #24, 10	; 0x6000000
    56a4:	0b000001 	bleq	56b0 <_start-0x2950>
    56a8:	0000032b 	andeq	r0, r0, fp, lsr #6
    56ac:	01822f05 	orreq	r2, r2, r5, lsl #30
    56b0:	10000000 	andne	r0, r0, r0
    56b4:	05006b5f 	streq	r6, [r0, #-2911]	; 0xfffff4a1
    56b8:	00002530 	andeq	r2, r0, r0, lsr r5
    56bc:	620b0400 	andvs	r0, fp, #0, 8
    56c0:	05000003 	streq	r0, [r0, #-3]
    56c4:	00002530 	andeq	r2, r0, r0, lsr r5
    56c8:	940b0800 	strls	r0, [fp], #-2048	; 0xfffff800
    56cc:	05000001 	streq	r0, [r0, #-1]
    56d0:	00002530 	andeq	r2, r0, r0, lsr r5
    56d4:	6f0b0c00 	svcvs	0x000b0c00
    56d8:	05000004 	streq	r0, [r0, #-4]
    56dc:	00002530 	andeq	r2, r0, r0, lsr r5
    56e0:	5f101000 	svcpl	0x00101000
    56e4:	31050078 	tstcc	r5, r8, ror r0
    56e8:	00000188 	andeq	r0, r0, r8, lsl #3
    56ec:	040d0014 	streq	r0, [sp], #-20	; 0xffffffec
    56f0:	0000012f 	andeq	r0, r0, pc, lsr #2
    56f4:	00012408 	andeq	r2, r1, r8, lsl #8
    56f8:	00019800 	andeq	r9, r1, r0, lsl #16
    56fc:	00d20900 	sbcseq	r0, r2, r0, lsl #18
    5700:	00000000 	andeq	r0, r0, r0
    5704:	0001d80f 	andeq	sp, r1, pc, lsl #16
    5708:	35052400 	strcc	r2, [r5, #-1024]	; 0xfffffc00
    570c:	00000211 	andeq	r0, r0, r1, lsl r2
    5710:	0000920b 	andeq	r9, r0, fp, lsl #4
    5714:	25370500 	ldrcs	r0, [r7, #-1280]!	; 0xfffffb00
    5718:	00000000 	andeq	r0, r0, r0
    571c:	0003950b 	andeq	r9, r3, fp, lsl #10
    5720:	25380500 	ldrcs	r0, [r8, #-1280]!	; 0xfffffb00
    5724:	04000000 	streq	r0, [r0], #-0
    5728:	0000b50b 	andeq	fp, r0, fp, lsl #10
    572c:	25390500 	ldrcs	r0, [r9, #-1280]!	; 0xfffffb00
    5730:	08000000 	stmdaeq	r0, {}	; <UNPREDICTABLE>
    5734:	0004f70b 	andeq	pc, r4, fp, lsl #14
    5738:	253a0500 	ldrcs	r0, [sl, #-1280]!	; 0xfffffb00
    573c:	0c000000 	stceq	0, cr0, [r0], {-0}
    5740:	0002870b 	andeq	r8, r2, fp, lsl #14
    5744:	253b0500 	ldrcs	r0, [fp, #-1280]!	; 0xfffffb00
    5748:	10000000 	andne	r0, r0, r0
    574c:	00026d0b 	andeq	r6, r2, fp, lsl #26
    5750:	253c0500 	ldrcs	r0, [ip, #-1280]!	; 0xfffffb00
    5754:	14000000 	strne	r0, [r0], #-0
    5758:	0004740b 	andeq	r7, r4, fp, lsl #8
    575c:	253d0500 	ldrcs	r0, [sp, #-1280]!	; 0xfffffb00
    5760:	18000000 	stmdane	r0, {}	; <UNPREDICTABLE>
    5764:	0002ec0b 	andeq	lr, r2, fp, lsl #24
    5768:	253e0500 	ldrcs	r0, [lr, #-1280]!	; 0xfffffb00
    576c:	1c000000 	stcne	0, cr0, [r0], {-0}
    5770:	0004be0b 	andeq	fp, r4, fp, lsl #28
    5774:	253f0500 	ldrcs	r0, [pc, #-1280]!	; 527c <_start-0x2d84>
    5778:	20000000 	andcs	r0, r0, r0
    577c:	00f51100 	rscseq	r1, r5, r0, lsl #2
    5780:	01080000 	mrseq	r0, (UNDEF: 8)
    5784:	02514805 	subseq	r4, r1, #327680	; 0x50000
    5788:	870b0000 	strhi	r0, [fp, -r0]
    578c:	05000001 	streq	r0, [r0, #-1]
    5790:	00025149 	andeq	r5, r2, r9, asr #2
    5794:	000b0000 	andeq	r0, fp, r0
    5798:	05000000 	streq	r0, [r0, #-0]
    579c:	0002514a 	andeq	r5, r2, sl, asr #2
    57a0:	13128000 	tstne	r2, #0
    57a4:	05000004 	streq	r0, [r0, #-4]
    57a8:	0001244c 	andeq	r2, r1, ip, asr #8
    57ac:	12010000 	andne	r0, r1, #0
    57b0:	0000011a 	andeq	r0, r0, sl, lsl r1
    57b4:	01244f05 			; <UNDEFINED> instruction: 0x01244f05
    57b8:	01040000 	mrseq	r0, (UNDEF: 4)
    57bc:	01100800 	tsteq	r0, r0, lsl #16
    57c0:	02610000 	rsbeq	r0, r1, #0
    57c4:	d2090000 	andle	r0, r9, #0
    57c8:	1f000000 	svcne	0x00000000
    57cc:	02901100 	addseq	r1, r0, #0, 2
    57d0:	01900000 	orrseq	r0, r0, r0
    57d4:	029f5b05 	addseq	r5, pc, #5120	; 0x1400
    57d8:	2b0b0000 	blcs	2c57e0 <__bss_end__+0x2bb848>
    57dc:	05000003 	streq	r0, [r0, #-3]
    57e0:	00029f5c 	andeq	r9, r2, ip, asr pc
    57e4:	430b0000 	movwmi	r0, #45056	; 0xb000
    57e8:	05000003 	streq	r0, [r0, #-3]
    57ec:	0000255d 	andeq	r2, r0, sp, asr r5
    57f0:	8f0b0400 	svchi	0x000b0400
    57f4:	05000001 	streq	r0, [r0, #-1]
    57f8:	0002a55f 	andeq	sl, r2, pc, asr r5
    57fc:	f50b0800 			; <UNDEFINED> instruction: 0xf50b0800
    5800:	05000000 	streq	r0, [r0, #-0]
    5804:	00021160 	andeq	r1, r2, r0, ror #2
    5808:	0d008800 	stceq	8, cr8, [r0, #-0]
    580c:	00026104 	andeq	r6, r2, r4, lsl #2
    5810:	02b50800 	adcseq	r0, r5, #0, 16
    5814:	02b50000 	adcseq	r0, r5, #0
    5818:	d2090000 	andle	r0, r9, #0
    581c:	1f000000 	svcne	0x00000000
    5820:	bb040d00 	bllt	108c28 <__bss_end__+0xfec90>
    5824:	13000002 	movwne	r0, #2
    5828:	0002f60f 	andeq	pc, r2, pc, lsl #12
    582c:	73050800 	movwvc	r0, #22528	; 0x5800
    5830:	000002e1 	andeq	r0, r0, r1, ror #5
    5834:	0000af0b 	andeq	sl, r0, fp, lsl #30
    5838:	e1740500 	cmn	r4, r0, lsl #10
    583c:	00000002 	andeq	r0, r0, r2
    5840:	00000c0b 	andeq	r0, r0, fp, lsl #24
    5844:	25750500 	ldrbcs	r0, [r5, #-1280]!	; 0xfffffb00
    5848:	04000000 	streq	r0, [r0], #-0
    584c:	45040d00 	strmi	r0, [r4, #-3328]	; 0xfffff300
    5850:	0f000000 	svceq	0x00000000
    5854:	00000315 	andeq	r0, r0, r5, lsl r3
    5858:	11b30568 			; <UNDEFINED> instruction: 0x11b30568
    585c:	10000004 	andne	r0, r0, r4
    5860:	0500705f 	streq	r7, [r0, #-95]	; 0xffffffa1
    5864:	0002e1b4 			; <UNDEFINED> instruction: 0x0002e1b4
    5868:	5f100000 	svcpl	0x00100000
    586c:	b5050072 	strlt	r0, [r5, #-114]	; 0xffffff8e
    5870:	00000025 	andeq	r0, r0, r5, lsr #32
    5874:	775f1004 	ldrbvc	r1, [pc, -r4]
    5878:	25b60500 	ldrcs	r0, [r6, #1280]!	; 0x500
    587c:	08000000 	stmdaeq	r0, {}	; <UNPREDICTABLE>
    5880:	0001130b 	andeq	r1, r1, fp, lsl #6
    5884:	4cb70500 	cfldr32mi	mvfx0, [r7]
    5888:	0c000000 	stceq	0, cr0, [r0], {-0}
    588c:	0001f40b 	andeq	pc, r1, fp, lsl #8
    5890:	4cb80500 	cfldr32mi	mvfx0, [r8]
    5894:	0e000000 	cdpeq	0, 0, cr0, cr0, cr0, {0}
    5898:	66625f10 	uqadd16vs	r5, r2, r0
    589c:	bcb90500 	cfldr32lt	mvfx0, [r9]
    58a0:	10000002 	andne	r0, r0, r2
    58a4:	00006c0b 	andeq	r6, r0, fp, lsl #24
    58a8:	25ba0500 	ldrcs	r0, [sl, #1280]!	; 0x500
    58ac:	18000000 	stmdane	r0, {}	; <UNPREDICTABLE>
    58b0:	0001030b 	andeq	r0, r1, fp, lsl #6
    58b4:	10c10500 	sbcne	r0, r1, r0, lsl #10
    58b8:	1c000001 	stcne	0, cr0, [r0], {1}
    58bc:	000a780b 	andeq	r7, sl, fp, lsl #16
    58c0:	6cc30500 	cfstr64vs	mvdx0, [r3], {0}
    58c4:	20000005 	andcs	r0, r0, r5
    58c8:	00060c0b 	andeq	r0, r6, fp, lsl #24
    58cc:	96c50500 	strbls	r0, [r5], r0, lsl #10
    58d0:	24000005 	strcs	r0, [r0], #-5
    58d4:	0003870b 	andeq	r8, r3, fp, lsl #14
    58d8:	bac80500 	blt	ff206ce0 <__bss_end__+0xff1fcd48>
    58dc:	28000005 	stmdacs	r0, {r0, r2}
    58e0:	0004d80b 	andeq	sp, r4, fp, lsl #16
    58e4:	d4c90500 	strble	r0, [r9], #1280	; 0x500
    58e8:	2c000005 	stccs	0, cr0, [r0], {5}
    58ec:	62755f10 	rsbsvs	r5, r5, #16, 30	; 0x40
    58f0:	bccc0500 	cfstr64lt	mvdx0, [ip], {0}
    58f4:	30000002 	andcc	r0, r0, r2
    58f8:	70755f10 	rsbsvc	r5, r5, r0, lsl pc
    58fc:	e1cd0500 	bic	r0, sp, r0, lsl #10
    5900:	38000002 	stmdacc	r0, {r1}
    5904:	72755f10 	rsbsvc	r5, r5, #16, 30	; 0x40
    5908:	25ce0500 	strbcs	r0, [lr, #1280]	; 0x500
    590c:	3c000000 	stccc	0, cr0, [r0], {-0}
    5910:	0000a90b 	andeq	sl, r0, fp, lsl #18
    5914:	dad10500 	ble	ff446d1c <__bss_end__+0xff43cd84>
    5918:	40000005 	andmi	r0, r0, r5
    591c:	0004b00b 	andeq	fp, r4, fp
    5920:	ead20500 	b	ff486d28 <__bss_end__+0xff47cd90>
    5924:	43000005 	movwmi	r0, #5
    5928:	626c5f10 	rsbvs	r5, ip, #16, 30	; 0x40
    592c:	bcd50500 	cfldr64lt	mvdx0, [r5], {0}
    5930:	44000002 	strmi	r0, [r0], #-2
    5934:	0001380b 	andeq	r3, r1, fp, lsl #16
    5938:	25d80500 	ldrbcs	r0, [r8, #1280]	; 0x500
    593c:	4c000000 	stcmi	0, cr0, [r0], {-0}
    5940:	0001490b 	andeq	r4, r1, fp, lsl #18
    5944:	81d90500 	bicshi	r0, r9, r0, lsl #10
    5948:	50000000 	andpl	r0, r0, r0
    594c:	000a190b 	andeq	r1, sl, fp, lsl #18
    5950:	2fdc0500 	svccs	0x00dc0500
    5954:	54000004 	strpl	r0, [r0], #-4
    5958:	00025f0b 	andeq	r5, r2, fp, lsl #30
    595c:	05e00500 	strbeq	r0, [r0, #1280]!	; 0x500
    5960:	58000001 	stmdapl	r0, {r0}
    5964:	00031d0b 	andeq	r1, r3, fp, lsl #26
    5968:	fae20500 	blx	ff886d70 <__bss_end__+0xff87cdd8>
    596c:	5c000000 	stcpl	0, cr0, [r0], {-0}
    5970:	0002650b 	andeq	r6, r2, fp, lsl #10
    5974:	25e30500 	strbcs	r0, [r3, #1280]!	; 0x500
    5978:	64000000 	strvs	r0, [r0], #-0
    597c:	00251400 	eoreq	r1, r5, r0, lsl #8
    5980:	042f0000 	strteq	r0, [pc], #-0	; 5988 <_start-0x2678>
    5984:	2f150000 	svccs	0x00150000
    5988:	15000004 	strne	r0, [r0, #-4]
    598c:	00000110 	andeq	r0, r0, r0, lsl r1
    5990:	00011215 	andeq	r1, r1, r5, lsl r2
    5994:	00251500 	eoreq	r1, r5, r0, lsl #10
    5998:	0d000000 	stceq	0, cr0, [r0, #-0]
    599c:	00043a04 	andeq	r3, r4, r4, lsl #20
    59a0:	042f0e00 	strteq	r0, [pc], #-3584	; 59a8 <_start-0x2658>
    59a4:	6a160000 	bvs	5859ac <__bss_end__+0x57ba14>
    59a8:	28000003 	stmdacs	r0, {r0, r1}
    59ac:	02380504 	eorseq	r0, r8, #4, 10	; 0x1000000
    59b0:	0000056c 	andeq	r0, r0, ip, ror #10
    59b4:	0002db17 	andeq	sp, r2, r7, lsl fp
    59b8:	023a0500 	eorseq	r0, sl, #0, 10
    59bc:	00000025 	andeq	r0, r0, r5, lsr #32
    59c0:	04841700 	streq	r1, [r4], #1792	; 0x700
    59c4:	3f050000 	svccc	0x00050000
    59c8:	00064102 	andeq	r4, r6, r2, lsl #2
    59cc:	e4170400 	ldr	r0, [r7], #-1024	; 0xfffffc00
    59d0:	05000001 	streq	r0, [r0, #-1]
    59d4:	0641023f 			; <UNDEFINED> instruction: 0x0641023f
    59d8:	17080000 	strne	r0, [r8, -r0]
    59dc:	000001a3 	andeq	r0, r0, r3, lsr #3
    59e0:	41023f05 	tstmi	r2, r5, lsl #30
    59e4:	0c000006 	stceq	0, cr0, [r0], {6}
    59e8:	00033e17 	andeq	r3, r3, r7, lsl lr
    59ec:	02410500 	subeq	r0, r1, #0, 10
    59f0:	00000025 	andeq	r0, r0, r5, lsr #32
    59f4:	001a1710 	andseq	r1, sl, r0, lsl r7
    59f8:	42050000 	andmi	r0, r5, #0
    59fc:	00082302 	andeq	r2, r8, r2, lsl #6
    5a00:	49171400 	ldmdbmi	r7, {sl, ip}
    5a04:	05000004 	streq	r0, [r0, #-4]
    5a08:	00250244 	eoreq	r0, r5, r4, asr #4
    5a0c:	17300000 	ldrne	r0, [r0, -r0]!
    5a10:	00000348 	andeq	r0, r0, r8, asr #6
    5a14:	90024505 	andls	r4, r2, r5, lsl #10
    5a18:	34000005 	strcc	r0, [r0], #-5
    5a1c:	00029817 	andeq	r9, r2, r7, lsl r8
    5a20:	02470500 	subeq	r0, r7, #0, 10
    5a24:	00000025 	andeq	r0, r0, r5, lsr #32
    5a28:	03581738 	cmpeq	r8, #56, 14	; 0xe00000
    5a2c:	49050000 	stmdbmi	r5, {}	; <UNPREDICTABLE>
    5a30:	00083e02 	andeq	r3, r8, r2, lsl #28
    5a34:	43173c00 	tstmi	r7, #0, 24
    5a38:	05000002 	streq	r0, [r0, #-2]
    5a3c:	0182024c 	orreq	r0, r2, ip, asr #4
    5a40:	17400000 	strbne	r0, [r0, -r0]
    5a44:	000001c2 	andeq	r0, r0, r2, asr #3
    5a48:	25024d05 	strcs	r4, [r2, #-3333]	; 0xfffff2fb
    5a4c:	44000000 	strmi	r0, [r0], #-0
    5a50:	0004f217 	andeq	pc, r4, r7, lsl r2	; <UNPREDICTABLE>
    5a54:	024e0500 	subeq	r0, lr, #0, 10
    5a58:	00000182 	andeq	r0, r0, r2, lsl #3
    5a5c:	02aa1748 	adceq	r1, sl, #72, 14	; 0x1200000
    5a60:	4f050000 	svcmi	0x00050000
    5a64:	00084402 	andeq	r4, r8, r2, lsl #8
    5a68:	ec174c00 	ldc	12, cr4, [r7], {-0}
    5a6c:	05000001 	streq	r0, [r0, #-1]
    5a70:	00250252 	eoreq	r0, r5, r2, asr r2
    5a74:	17500000 	ldrbne	r0, [r0, -r0]
    5a78:	00000141 	andeq	r0, r0, r1, asr #2
    5a7c:	12025305 	andne	r5, r2, #335544320	; 0x14000000
    5a80:	54000001 	strpl	r0, [r0], #-1
    5a84:	0002d417 	andeq	sp, r2, r7, lsl r4
    5a88:	02760500 	rsbseq	r0, r6, #0, 10
    5a8c:	00000801 	andeq	r0, r0, r1, lsl #16
    5a90:	02901858 	addseq	r1, r0, #88, 16	; 0x580000
    5a94:	7a050000 	bvc	145a9c <__bss_end__+0x13bb04>
    5a98:	00029f02 	andeq	r9, r2, r2, lsl #30
    5a9c:	18014800 	stmdane	r1, {fp, lr}
    5aa0:	00000221 	andeq	r0, r0, r1, lsr #4
    5aa4:	61027b05 	tstvs	r2, r5, lsl #22
    5aa8:	4c000002 	stcmi	0, cr0, [r0], {2}
    5aac:	049e1801 	ldreq	r1, [lr], #2049	; 0x801
    5ab0:	7f050000 	svcvc	0x00050000
    5ab4:	00085502 	andeq	r5, r8, r2, lsl #10
    5ab8:	1802dc00 	stmdane	r2, {sl, fp, ip, lr, pc}
    5abc:	0000010b 	andeq	r0, r0, fp, lsl #2
    5ac0:	06028405 	streq	r8, [r2], -r5, lsl #8
    5ac4:	e0000006 	and	r0, r0, r6
    5ac8:	00f01802 	rscseq	r1, r0, r2, lsl #16
    5acc:	85050000 	strhi	r0, [r5, #-0]
    5ad0:	00086102 	andeq	r6, r8, r2, lsl #2
    5ad4:	0002ec00 	andeq	lr, r2, r0, lsl #24
    5ad8:	0411040d 	ldreq	r0, [r1], #-1037	; 0xfffffbf3
    5adc:	25140000 	ldrcs	r0, [r4, #-0]
    5ae0:	90000000 	andls	r0, r0, r0
    5ae4:	15000005 	strne	r0, [r0, #-5]
    5ae8:	0000042f 	andeq	r0, r0, pc, lsr #8
    5aec:	00011015 	andeq	r1, r1, r5, lsl r0
    5af0:	05901500 	ldreq	r1, [r0, #1280]	; 0x500
    5af4:	25150000 	ldrcs	r0, [r5, #-0]
    5af8:	00000000 	andeq	r0, r0, r0
    5afc:	011f040d 	tsteq	pc, sp, lsl #8
    5b00:	040d0000 	streq	r0, [sp], #-0
    5b04:	00000572 	andeq	r0, r0, r2, ror r5
    5b08:	00008c14 	andeq	r8, r0, r4, lsl ip
    5b0c:	0005ba00 	andeq	fp, r5, r0, lsl #20
    5b10:	042f1500 	strteq	r1, [pc], #-1280	; 5b18 <_start-0x24e8>
    5b14:	10150000 	andsne	r0, r5, r0
    5b18:	15000001 	strne	r0, [r0, #-1]
    5b1c:	0000008c 	andeq	r0, r0, ip, lsl #1
    5b20:	00002515 	andeq	r2, r0, r5, lsl r5
    5b24:	040d0000 	streq	r0, [sp], #-0
    5b28:	0000059c 	muleq	r0, ip, r5
    5b2c:	00002514 	andeq	r2, r0, r4, lsl r5
    5b30:	0005d400 	andeq	sp, r5, r0, lsl #8
    5b34:	042f1500 	strteq	r1, [pc], #-1280	; 5b3c <_start-0x24c4>
    5b38:	10150000 	andsne	r0, r5, r0
    5b3c:	00000001 	andeq	r0, r0, r1
    5b40:	05c0040d 	strbeq	r0, [r0, #1037]	; 0x40d
    5b44:	45080000 	strmi	r0, [r8, #-0]
    5b48:	ea000000 	b	5b50 <_start-0x24b0>
    5b4c:	09000005 	stmdbeq	r0, {r0, r2}
    5b50:	000000d2 	ldrdeq	r0, [r0], -r2
    5b54:	45080002 	strmi	r0, [r8, #-2]
    5b58:	fa000000 	blx	5b60 <_start-0x24a0>
    5b5c:	09000005 	stmdbeq	r0, {r0, r2}
    5b60:	000000d2 	ldrdeq	r0, [r0], -r2
    5b64:	03050000 	movweq	r0, #20480	; 0x5000
    5b68:	05000003 	streq	r0, [r0, #-3]
    5b6c:	02e7011d 	rsceq	r0, r7, #1073741831	; 0x40000007
    5b70:	7e190000 	cdpvc	0, 1, cr0, cr9, cr0, {0}
    5b74:	0c000004 	stceq	0, cr0, [r0], {4}
    5b78:	3b012105 	blcc	4df94 <__bss_end__+0x43ffc>
    5b7c:	17000006 	strne	r0, [r0, -r6]
    5b80:	0000032b 	andeq	r0, r0, fp, lsr #6
    5b84:	3b012305 	blcc	4e7a0 <__bss_end__+0x44808>
    5b88:	00000006 	andeq	r0, r0, r6
    5b8c:	00020717 	andeq	r0, r2, r7, lsl r7
    5b90:	01240500 			; <UNDEFINED> instruction: 0x01240500
    5b94:	00000025 	andeq	r0, r0, r5, lsr #32
    5b98:	02fd1704 	rscseq	r1, sp, #4, 14	; 0x100000
    5b9c:	25050000 	strcs	r0, [r5, #-0]
    5ba0:	00064101 	andeq	r4, r6, r1, lsl #2
    5ba4:	0d000800 	stceq	8, cr0, [r0, #-0]
    5ba8:	00060604 	andeq	r0, r6, r4, lsl #12
    5bac:	fa040d00 	blx	108fb4 <__bss_end__+0xff01c>
    5bb0:	19000005 	stmdbne	r0, {r0, r2}
    5bb4:	00000012 	andeq	r0, r0, r2, lsl r0
    5bb8:	013d050e 	teqeq	sp, lr, lsl #10
    5bbc:	0000067c 	andeq	r0, r0, ip, ror r6
    5bc0:	00037117 	andeq	r7, r3, r7, lsl r1
    5bc4:	013e0500 	teqeq	lr, r0, lsl #10
    5bc8:	0000067c 	andeq	r0, r0, ip, ror r6
    5bcc:	039e1700 	orrseq	r1, lr, #0, 14
    5bd0:	3f050000 	svccc	0x00050000
    5bd4:	00067c01 	andeq	r7, r6, r1, lsl #24
    5bd8:	1c170600 	ldcne	6, cr0, [r7], {-0}
    5bdc:	05000004 	streq	r0, [r0, #-4]
    5be0:	00530140 	subseq	r0, r3, r0, asr #2
    5be4:	000c0000 	andeq	r0, ip, r0
    5be8:	00005308 	andeq	r5, r0, r8, lsl #6
    5bec:	00068c00 	andeq	r8, r6, r0, lsl #24
    5bf0:	00d20900 	sbcseq	r0, r2, r0, lsl #18
    5bf4:	00020000 	andeq	r0, r2, r0
    5bf8:	5705d01a 	smladpl	r5, sl, r0, sp
    5bfc:	00078d02 	andeq	r8, r7, r2, lsl #26
    5c00:	04621700 	strbteq	r1, [r2], #-1792	; 0xfffff900
    5c04:	59050000 	stmdbpl	r5, {}	; <UNPREDICTABLE>
    5c08:	00003702 	andeq	r3, r0, r2, lsl #14
    5c0c:	06170000 	ldreq	r0, [r7], -r0
    5c10:	05000004 	streq	r0, [r0, #-4]
    5c14:	0112025a 	tsteq	r2, sl, asr r2
    5c18:	17040000 	strne	r0, [r4, -r0]
    5c1c:	00000236 	andeq	r0, r0, r6, lsr r2
    5c20:	8d025b05 	vstrhi	d5, [r2, #-20]	; 0xffffffec
    5c24:	08000007 	stmdaeq	r0, {r0, r1, r2}
    5c28:	0004c917 	andeq	ip, r4, r7, lsl r9
    5c2c:	025c0500 	subseq	r0, ip, #0, 10
    5c30:	00000198 	muleq	r0, r8, r1
    5c34:	01b31724 			; <UNDEFINED> instruction: 0x01b31724
    5c38:	5d050000 	stcpl	0, cr0, [r5, #-0]
    5c3c:	00002502 	andeq	r2, r0, r2, lsl #10
    5c40:	26174800 	ldrcs	r4, [r7], -r0, lsl #16
    5c44:	05000003 	streq	r0, [r0, #-3]
    5c48:	006f025e 	rsbeq	r0, pc, lr, asr r2	; <UNPREDICTABLE>
    5c4c:	17500000 	ldrbne	r0, [r0, -r0]
    5c50:	000004df 	ldrdeq	r0, [r0], -pc	; <UNPREDICTABLE>
    5c54:	47025f05 	strmi	r5, [r2, -r5, lsl #30]
    5c58:	58000006 	stmdapl	r0, {r1, r2}
    5c5c:	00033117 	andeq	r3, r3, r7, lsl r1
    5c60:	02600500 	rsbeq	r0, r0, #0, 10
    5c64:	000000fa 	strdeq	r0, [r0], -sl
    5c68:	04e41768 	strbteq	r1, [r4], #1896	; 0x768
    5c6c:	61050000 	mrsvs	r0, (UNDEF: 5)
    5c70:	0000fa02 	andeq	pc, r0, r2, lsl #20
    5c74:	84177000 	ldrhi	r7, [r7], #-0
    5c78:	05000000 	streq	r0, [r0, #-0]
    5c7c:	00fa0262 	rscseq	r0, sl, r2, ror #4
    5c80:	17780000 	ldrbne	r0, [r8, -r0]!
    5c84:	00000494 	muleq	r0, r4, r4
    5c88:	9d026305 	stcls	3, cr6, [r2, #-20]	; 0xffffffec
    5c8c:	80000007 	andhi	r0, r0, r7
    5c90:	00022a17 	andeq	r2, r2, r7, lsl sl
    5c94:	02640500 	rsbeq	r0, r4, #0, 10
    5c98:	000007ad 	andeq	r0, r0, sp, lsr #15
    5c9c:	04291788 	strteq	r1, [r9], #-1928	; 0xfffff878
    5ca0:	65050000 	strvs	r0, [r5, #-0]
    5ca4:	00002502 	andeq	r2, r0, r2, lsl #10
    5ca8:	7917a000 	ldmdbvc	r7, {sp, pc}
    5cac:	05000001 	streq	r0, [r0, #-1]
    5cb0:	00fa0266 	rscseq	r0, sl, r6, ror #4
    5cb4:	17a40000 	strne	r0, [r4, r0]!
    5cb8:	00000075 	andeq	r0, r0, r5, ror r0
    5cbc:	fa026705 	blx	9f8d8 <__bss_end__+0x95940>
    5cc0:	ac000000 	stcge	0, cr0, [r0], {-0}
    5cc4:	00016817 	andeq	r6, r1, r7, lsl r8
    5cc8:	02680500 	rsbeq	r0, r8, #0, 10
    5ccc:	000000fa 	strdeq	r0, [r0], -sl
    5cd0:	002d17b4 	strhteq	r1, [sp], -r4
    5cd4:	69050000 	stmdbvs	r5, {}	; <UNPREDICTABLE>
    5cd8:	0000fa02 	andeq	pc, r0, r2, lsl #20
    5cdc:	3c17bc00 	ldccc	12, cr11, [r7], {-0}
    5ce0:	05000000 	streq	r0, [r0, #-0]
    5ce4:	00fa026a 	rscseq	r0, sl, sl, ror #4
    5ce8:	17c40000 	strbne	r0, [r4, r0]
    5cec:	000002d9 	ldrdeq	r0, [r0], -r9
    5cf0:	25026b05 	strcs	r6, [r2, #-2821]	; 0xfffff4fb
    5cf4:	cc000000 	stcgt	0, cr0, [r0], {-0}
    5cf8:	01180800 	tsteq	r8, r0, lsl #16
    5cfc:	079d0000 	ldreq	r0, [sp, r0]
    5d00:	d2090000 	andle	r0, r9, #0
    5d04:	19000000 	stmdbne	r0, {}	; <UNPREDICTABLE>
    5d08:	01180800 	tsteq	r8, r0, lsl #16
    5d0c:	07ad0000 	streq	r0, [sp, r0]!
    5d10:	d2090000 	andle	r0, r9, #0
    5d14:	07000000 	streq	r0, [r0, -r0]
    5d18:	01180800 	tsteq	r8, r0, lsl #16
    5d1c:	07bd0000 	ldreq	r0, [sp, r0]!
    5d20:	d2090000 	andle	r0, r9, #0
    5d24:	17000000 	strne	r0, [r0, -r0]
    5d28:	05f01a00 	ldrbeq	r1, [r0, #2560]!	; 0xa00
    5d2c:	07e10270 			; <UNDEFINED> instruction: 0x07e10270
    5d30:	80170000 	andshi	r0, r7, r0
    5d34:	05000002 	streq	r0, [r0, #-2]
    5d38:	07e10273 			; <UNDEFINED> instruction: 0x07e10273
    5d3c:	17000000 	strne	r0, [r0, -r0]
    5d40:	0000048b 	andeq	r0, r0, fp, lsl #9
    5d44:	f1027405 			; <UNDEFINED> instruction: 0xf1027405
    5d48:	78000007 	stmdavc	r0, {r0, r1, r2}
    5d4c:	02e10800 	rsceq	r0, r1, #0, 16
    5d50:	07f10000 	ldrbeq	r0, [r1, r0]!
    5d54:	d2090000 	andle	r0, r9, #0
    5d58:	1d000000 	stcne	0, cr0, [r0, #-0]
    5d5c:	00370800 	eorseq	r0, r7, r0, lsl #16
    5d60:	08010000 	stmdaeq	r1, {}	; <UNPREDICTABLE>
    5d64:	d2090000 	andle	r0, r9, #0
    5d68:	1d000000 	stcne	0, cr0, [r0, #-0]
    5d6c:	05f01b00 	ldrbeq	r1, [r0, #2816]!	; 0xb00
    5d70:	08230255 	stmdaeq	r3!, {r0, r2, r4, r6, r9}
    5d74:	6a1c0000 	bvs	705d7c <__bss_end__+0x6fbde4>
    5d78:	05000003 	streq	r0, [r0, #-3]
    5d7c:	068c026c 	streq	r0, [ip], ip, ror #4
    5d80:	b61c0000 	ldrlt	r0, [ip], -r0
    5d84:	05000004 	streq	r0, [r0, #-4]
    5d88:	07bd0275 			; <UNDEFINED> instruction: 0x07bd0275
    5d8c:	08000000 	stmdaeq	r0, {}	; <UNPREDICTABLE>
    5d90:	00000118 	andeq	r0, r0, r8, lsl r1
    5d94:	00000833 	andeq	r0, r0, r3, lsr r8
    5d98:	0000d209 	andeq	sp, r0, r9, lsl #4
    5d9c:	1d001800 	stcne	8, cr1, [r0, #-0]
    5da0:	0000083e 	andeq	r0, r0, lr, lsr r8
    5da4:	00042f15 	andeq	r2, r4, r5, lsl pc
    5da8:	040d0000 	streq	r0, [sp], #-0
    5dac:	00000833 	andeq	r0, r0, r3, lsr r8
    5db0:	0182040d 	orreq	r0, r2, sp, lsl #8
    5db4:	551d0000 	ldrpl	r0, [sp, #-0]
    5db8:	15000008 	strne	r0, [r0, #-8]
    5dbc:	00000025 	andeq	r0, r0, r5, lsr #32
    5dc0:	5b040d00 	blpl	1091c8 <__bss_end__+0xff230>
    5dc4:	0d000008 	stceq	0, cr0, [r0, #-32]	; 0xffffffe0
    5dc8:	00084a04 	andeq	r4, r8, r4, lsl #20
    5dcc:	05fa0800 	ldrbeq	r0, [sl, #2048]!	; 0x800
    5dd0:	08710000 	ldmdaeq	r1!, {}^	; <UNPREDICTABLE>
    5dd4:	d2090000 	andle	r0, r9, #0
    5dd8:	02000000 	andeq	r0, r0, #0
    5ddc:	043d1e00 	ldrteq	r1, [sp], #-3584	; 0xfffff200
    5de0:	fd050000 	stc2	0, cr0, [r5, #-0]
    5de4:	00042f02 	andeq	r2, r4, r2, lsl #30
    5de8:	04361e00 	ldrteq	r1, [r6], #-3584	; 0xfffff200
    5dec:	fe050000 	cdp2	0, 0, cr0, cr5, cr0, {0}
    5df0:	00043502 	andeq	r3, r4, r2, lsl #10
    5df4:	045b1f00 	ldrbeq	r1, [fp], #-3840	; 0xfffff100
    5df8:	19060000 	stmdbne	r6, {}	; <UNPREDICTABLE>
    5dfc:	00000110 	andeq	r0, r0, r0, lsl r1
    5e00:	00008ff8 	strdeq	r8, [r0], -r8	; <UNPREDICTABLE>
    5e04:	00000020 	andeq	r0, r0, r0, lsr #32
    5e08:	5f209c01 	svcpl	0x00209c01
    5e0c:	03010070 	movweq	r0, #4208	; 0x1070
    5e10:	00000110 	andeq	r0, r0, r0, lsl r1
    5e14:	63205001 			; <UNDEFINED> instruction: 0x63205001
    5e18:	25030100 	strcs	r0, [r3, #-256]	; 0xffffff00
    5e1c:	01000000 	mrseq	r0, (UNDEF: 0)
    5e20:	006e2151 	rsbeq	r2, lr, r1, asr r1
    5e24:	002c0301 	eoreq	r0, ip, r1, lsl #6
    5e28:	0f590000 	svceq	0x00590000
    5e2c:	70220000 	eorvc	r0, r2, r0
    5e30:	12040100 	andne	r0, r4, #0, 2
    5e34:	7a000001 	bvc	5e40 <_start-0x21c0>
    5e38:	2300000f 	movwcs	r0, #15
    5e3c:	04010065 	streq	r0, [r1], #-101	; 0xffffff9b
    5e40:	00000112 	andeq	r0, r0, r2, lsl r1
    5e44:	00005201 	andeq	r5, r0, r1, lsl #4
    5e48:	00000936 	andeq	r0, r0, r6, lsr r9
    5e4c:	11830004 	orrne	r0, r3, r4
    5e50:	01040000 	mrseq	r0, (UNDEF: 4)
    5e54:	000003a4 	andeq	r0, r0, r4, lsr #7
    5e58:	0007c60c 	andeq	ip, r7, ip, lsl #12
    5e5c:	0006de00 	andeq	sp, r6, r0, lsl #28
    5e60:	00901800 	addseq	r1, r0, r0, lsl #16
    5e64:	00003400 	andeq	r3, r0, r0, lsl #8
    5e68:	000a0000 	andeq	r0, sl, r0
    5e6c:	05040200 	streq	r0, [r4, #-512]	; 0xfffffe00
    5e70:	00746e69 	rsbseq	r6, r4, r9, ror #28
    5e74:	57070403 	strpl	r0, [r7, -r3, lsl #8]
    5e78:	03000000 	movweq	r0, #0
    5e7c:	02c80601 	sbceq	r0, r8, #1048576	; 0x100000
    5e80:	02030000 	andeq	r0, r3, #0
    5e84:	0002e205 	andeq	lr, r2, r5, lsl #4
    5e88:	05040300 	streq	r0, [r4, #-768]	; 0xfffffd00
    5e8c:	000000a0 	andeq	r0, r0, r0, lsr #1
    5e90:	9b050803 	blls	147ea4 <__bss_end__+0x13df0c>
    5e94:	03000000 	movweq	r0, #0
    5e98:	02c60801 	sbceq	r0, r6, #65536	; 0x10000
    5e9c:	02030000 	andeq	r0, r3, #0
    5ea0:	00020e07 	andeq	r0, r2, r7, lsl #28
    5ea4:	07040300 	streq	r0, [r4, -r0, lsl #6]
    5ea8:	00000052 	andeq	r0, r0, r2, asr r0
    5eac:	4d070803 	stcmi	8, cr0, [r7, #-12]
    5eb0:	04000000 	streq	r0, [r0], #-0
    5eb4:	000002b4 			; <UNDEFINED> instruction: 0x000002b4
    5eb8:	00250702 	eoreq	r0, r5, r2, lsl #14
    5ebc:	a3040000 	movwge	r0, #16384	; 0x4000
    5ec0:	03000002 	movweq	r0, #2
    5ec4:	0000412c 	andeq	r4, r0, ip, lsr #2
    5ec8:	038d0400 	orreq	r0, sp, #0, 8
    5ecc:	72030000 	andvc	r0, r3, #0
    5ed0:	00000041 	andeq	r0, r0, r1, asr #32
    5ed4:	00025105 	andeq	r5, r2, r5, lsl #2
    5ed8:	01650400 	cmneq	r5, r0, lsl #8
    5edc:	0000002c 	andeq	r0, r0, ip, lsr #32
    5ee0:	a6030406 	strge	r0, [r3], -r6, lsl #8
    5ee4:	000000b7 	strheq	r0, [r0], -r7
    5ee8:	00024b07 	andeq	r4, r2, r7, lsl #22
    5eec:	8ca80300 	stchi	3, cr0, [r8]
    5ef0:	07000000 	streq	r0, [r0, -r0]
    5ef4:	000001dd 	ldrdeq	r0, [r0], -sp
    5ef8:	00b7a903 	adcseq	sl, r7, r3, lsl #18
    5efc:	08000000 	stmdaeq	r0, {}	; <UNPREDICTABLE>
    5f00:	0000004f 	andeq	r0, r0, pc, asr #32
    5f04:	000000c7 	andeq	r0, r0, r7, asr #1
    5f08:	0000c709 	andeq	ip, r0, r9, lsl #14
    5f0c:	03000300 	movweq	r0, #768	; 0x300
    5f10:	02770704 	rsbseq	r0, r7, #4, 14	; 0x100000
    5f14:	080a0000 	stmdaeq	sl, {}	; <UNPREDICTABLE>
    5f18:	00efa303 	rsceq	sl, pc, r3, lsl #6
    5f1c:	770b0000 	strvc	r0, [fp, -r0]
    5f20:	03000003 	movweq	r0, #3
    5f24:	000025a5 	andeq	r2, r0, r5, lsr #11
    5f28:	7f0b0000 	svcvc	0x000b0000
    5f2c:	03000003 	movweq	r0, #3
    5f30:	000098aa 	andeq	r9, r0, sl, lsr #17
    5f34:	04000400 	streq	r0, [r0], #-1024	; 0xfffffc00
    5f38:	0000030a 	andeq	r0, r0, sl, lsl #6
    5f3c:	00ceab03 	sbceq	sl, lr, r3, lsl #22
    5f40:	9a040000 	bls	105f48 <__bss_end__+0xfbfb0>
    5f44:	03000001 	movweq	r0, #1
    5f48:	00006baf 	andeq	r6, r0, pc, lsr #23
    5f4c:	0d040c00 	stceq	12, cr0, [r4, #-0]
    5f50:	00010d04 	andeq	r0, r1, r4, lsl #26
    5f54:	08010300 	stmdaeq	r1, {r8, r9}
    5f58:	000002cf 	andeq	r0, r0, pc, asr #5
    5f5c:	00010d0e 	andeq	r0, r1, lr, lsl #26
    5f60:	04210400 	strteq	r0, [r1], #-1024	; 0xfffffc00
    5f64:	16050000 	strne	r0, [r5], -r0
    5f68:	0000005d 	andeq	r0, r0, sp, asr r0
    5f6c:	0001ab0f 	andeq	sl, r1, pc, lsl #22
    5f70:	2d051800 	stccs	8, cr1, [r5, #-0]
    5f74:	00000177 	andeq	r0, r0, r7, ror r1
    5f78:	00032b0b 	andeq	r2, r3, fp, lsl #22
    5f7c:	772f0500 	strvc	r0, [pc, -r0, lsl #10]!
    5f80:	00000001 	andeq	r0, r0, r1
    5f84:	006b5f10 	rsbeq	r5, fp, r0, lsl pc
    5f88:	00253005 	eoreq	r3, r5, r5
    5f8c:	0b040000 	bleq	105f94 <__bss_end__+0xfbffc>
    5f90:	00000362 	andeq	r0, r0, r2, ror #6
    5f94:	00253005 	eoreq	r3, r5, r5
    5f98:	0b080000 	bleq	205fa0 <__bss_end__+0x1fc008>
    5f9c:	00000194 	muleq	r0, r4, r1
    5fa0:	00253005 	eoreq	r3, r5, r5
    5fa4:	0b0c0000 	bleq	305fac <__bss_end__+0x2fc014>
    5fa8:	0000046f 	andeq	r0, r0, pc, ror #8
    5fac:	00253005 	eoreq	r3, r5, r5
    5fb0:	10100000 	andsne	r0, r0, r0
    5fb4:	0500785f 	streq	r7, [r0, #-2143]	; 0xfffff7a1
    5fb8:	00017d31 	andeq	r7, r1, r1, lsr sp
    5fbc:	0d001400 	cfstrseq	mvf1, [r0, #-0]
    5fc0:	00012404 	andeq	r2, r1, r4, lsl #8
    5fc4:	01190800 	tsteq	r9, r0, lsl #16
    5fc8:	018d0000 	orreq	r0, sp, r0
    5fcc:	c7090000 	strgt	r0, [r9, -r0]
    5fd0:	00000000 	andeq	r0, r0, r0
    5fd4:	01d80f00 	bicseq	r0, r8, r0, lsl #30
    5fd8:	05240000 	streq	r0, [r4, #-0]!
    5fdc:	00020635 	andeq	r0, r2, r5, lsr r6
    5fe0:	00920b00 	addseq	r0, r2, r0, lsl #22
    5fe4:	37050000 	strcc	r0, [r5, -r0]
    5fe8:	00000025 	andeq	r0, r0, r5, lsr #32
    5fec:	03950b00 	orrseq	r0, r5, #0, 22
    5ff0:	38050000 	stmdacc	r5, {}	; <UNPREDICTABLE>
    5ff4:	00000025 	andeq	r0, r0, r5, lsr #32
    5ff8:	00b50b04 	adcseq	r0, r5, r4, lsl #22
    5ffc:	39050000 	stmdbcc	r5, {}	; <UNPREDICTABLE>
    6000:	00000025 	andeq	r0, r0, r5, lsr #32
    6004:	04f70b08 	ldrbteq	r0, [r7], #2824	; 0xb08
    6008:	3a050000 	bcc	146010 <__bss_end__+0x13c078>
    600c:	00000025 	andeq	r0, r0, r5, lsr #32
    6010:	02870b0c 	addeq	r0, r7, #12, 22	; 0x3000
    6014:	3b050000 	blcc	14601c <__bss_end__+0x13c084>
    6018:	00000025 	andeq	r0, r0, r5, lsr #32
    601c:	026d0b10 	rsbeq	r0, sp, #16, 22	; 0x4000
    6020:	3c050000 	stccc	0, cr0, [r5], {-0}
    6024:	00000025 	andeq	r0, r0, r5, lsr #32
    6028:	04740b14 	ldrbteq	r0, [r4], #-2836	; 0xfffff4ec
    602c:	3d050000 	stccc	0, cr0, [r5, #-0]
    6030:	00000025 	andeq	r0, r0, r5, lsr #32
    6034:	02ec0b18 	rsceq	r0, ip, #24, 22	; 0x6000
    6038:	3e050000 	cdpcc	0, 0, cr0, cr5, cr0, {0}
    603c:	00000025 	andeq	r0, r0, r5, lsr #32
    6040:	04be0b1c 	ldrteq	r0, [lr], #2844	; 0xb1c
    6044:	3f050000 	svccc	0x00050000
    6048:	00000025 	andeq	r0, r0, r5, lsr #32
    604c:	f5110020 			; <UNDEFINED> instruction: 0xf5110020
    6050:	08000000 	stmdaeq	r0, {}	; <UNPREDICTABLE>
    6054:	46480501 	strbmi	r0, [r8], -r1, lsl #10
    6058:	0b000002 	bleq	6068 <_start-0x1f98>
    605c:	00000187 	andeq	r0, r0, r7, lsl #3
    6060:	02464905 	subeq	r4, r6, #81920	; 0x14000
    6064:	0b000000 	bleq	606c <_start-0x1f94>
    6068:	00000000 	andeq	r0, r0, r0
    606c:	02464a05 	subeq	r4, r6, #20480	; 0x5000
    6070:	12800000 	addne	r0, r0, #0
    6074:	00000413 	andeq	r0, r0, r3, lsl r4
    6078:	01194c05 	tsteq	r9, r5, lsl #24
    607c:	01000000 	mrseq	r0, (UNDEF: 0)
    6080:	00011a12 	andeq	r1, r1, r2, lsl sl
    6084:	194f0500 	stmdbne	pc, {r8, sl}^	; <UNPREDICTABLE>
    6088:	04000001 	streq	r0, [r0], #-1
    608c:	05080001 	streq	r0, [r8, #-1]
    6090:	56000001 	strpl	r0, [r0], -r1
    6094:	09000002 	stmdbeq	r0, {r1}
    6098:	000000c7 	andeq	r0, r0, r7, asr #1
    609c:	9011001f 	andsls	r0, r1, pc, lsl r0
    60a0:	90000002 	andls	r0, r0, r2
    60a4:	945b0501 	ldrbls	r0, [fp], #-1281	; 0xfffffaff
    60a8:	0b000002 	bleq	60b8 <_start-0x1f48>
    60ac:	0000032b 	andeq	r0, r0, fp, lsr #6
    60b0:	02945c05 	addseq	r5, r4, #1280	; 0x500
    60b4:	0b000000 	bleq	60bc <_start-0x1f44>
    60b8:	00000343 	andeq	r0, r0, r3, asr #6
    60bc:	00255d05 	eoreq	r5, r5, r5, lsl #26
    60c0:	0b040000 	bleq	1060c8 <__bss_end__+0xfc130>
    60c4:	0000018f 	andeq	r0, r0, pc, lsl #3
    60c8:	029a5f05 	addseq	r5, sl, #5, 30
    60cc:	0b080000 	bleq	2060d4 <__bss_end__+0x1fc13c>
    60d0:	000000f5 	strdeq	r0, [r0], -r5
    60d4:	02066005 	andeq	r6, r6, #5
    60d8:	00880000 	addeq	r0, r8, r0
    60dc:	0256040d 	subseq	r0, r6, #218103808	; 0xd000000
    60e0:	aa080000 	bge	2060e8 <__bss_end__+0x1fc150>
    60e4:	aa000002 	bge	60f4 <_start-0x1f0c>
    60e8:	09000002 	stmdbeq	r0, {r1}
    60ec:	000000c7 	andeq	r0, r0, r7, asr #1
    60f0:	040d001f 	streq	r0, [sp], #-31	; 0xffffffe1
    60f4:	000002b0 			; <UNDEFINED> instruction: 0x000002b0
    60f8:	02f60f13 	rscseq	r0, r6, #19, 30	; 0x4c
    60fc:	05080000 	streq	r0, [r8, #-0]
    6100:	0002d673 	andeq	sp, r2, r3, ror r6
    6104:	00af0b00 	adceq	r0, pc, r0, lsl #22
    6108:	74050000 	strvc	r0, [r5], #-0
    610c:	000002d6 	ldrdeq	r0, [r0], -r6
    6110:	000c0b00 	andeq	r0, ip, r0, lsl #22
    6114:	75050000 	strvc	r0, [r5, #-0]
    6118:	00000025 	andeq	r0, r0, r5, lsr #32
    611c:	040d0004 	streq	r0, [sp], #-4
    6120:	0000004f 	andeq	r0, r0, pc, asr #32
    6124:	0003150f 	andeq	r1, r3, pc, lsl #10
    6128:	b3056800 	movwlt	r6, #22528	; 0x5800
    612c:	00000406 	andeq	r0, r0, r6, lsl #8
    6130:	00705f10 	rsbseq	r5, r0, r0, lsl pc
    6134:	02d6b405 	sbcseq	fp, r6, #83886080	; 0x5000000
    6138:	10000000 	andne	r0, r0, r0
    613c:	0500725f 	streq	r7, [r0, #-607]	; 0xfffffda1
    6140:	000025b5 			; <UNDEFINED> instruction: 0x000025b5
    6144:	5f100400 	svcpl	0x00100400
    6148:	b6050077 			; <UNDEFINED> instruction: 0xb6050077
    614c:	00000025 	andeq	r0, r0, r5, lsr #32
    6150:	01130b08 	tsteq	r3, r8, lsl #22
    6154:	b7050000 	strlt	r0, [r5, -r0]
    6158:	0000003a 	andeq	r0, r0, sl, lsr r0
    615c:	01f40b0c 	mvnseq	r0, ip, lsl #22
    6160:	b8050000 	stmdalt	r5, {}	; <UNPREDICTABLE>
    6164:	0000003a 	andeq	r0, r0, sl, lsr r0
    6168:	625f100e 	subsvs	r1, pc, #14
    616c:	b9050066 	stmdblt	r5, {r1, r2, r5, r6}
    6170:	000002b1 			; <UNDEFINED> instruction: 0x000002b1
    6174:	006c0b10 	rsbeq	r0, ip, r0, lsl fp
    6178:	ba050000 	blt	146180 <__bss_end__+0x13c1e8>
    617c:	00000025 	andeq	r0, r0, r5, lsr #32
    6180:	01030b18 	tsteq	r3, r8, lsl fp
    6184:	c1050000 	mrsgt	r0, (UNDEF: 5)
    6188:	00000105 	andeq	r0, r0, r5, lsl #2
    618c:	0a780b1c 	beq	1e08e04 <__bss_end__+0x1dfee6c>
    6190:	c3050000 	movwgt	r0, #20480	; 0x5000
    6194:	00000561 	andeq	r0, r0, r1, ror #10
    6198:	060c0b20 	streq	r0, [ip], -r0, lsr #22
    619c:	c5050000 	strgt	r0, [r5, #-0]
    61a0:	0000058b 	andeq	r0, r0, fp, lsl #11
    61a4:	03870b24 	orreq	r0, r7, #36, 22	; 0x9000
    61a8:	c8050000 	stmdagt	r5, {}	; <UNPREDICTABLE>
    61ac:	000005af 	andeq	r0, r0, pc, lsr #11
    61b0:	04d80b28 	ldrbeq	r0, [r8], #2856	; 0xb28
    61b4:	c9050000 	stmdbgt	r5, {}	; <UNPREDICTABLE>
    61b8:	000005c9 	andeq	r0, r0, r9, asr #11
    61bc:	755f102c 	ldrbvc	r1, [pc, #-44]	; 6198 <_start-0x1e68>
    61c0:	cc050062 	stcgt	0, cr0, [r5], {98}	; 0x62
    61c4:	000002b1 			; <UNDEFINED> instruction: 0x000002b1
    61c8:	755f1030 	ldrbvc	r1, [pc, #-48]	; 61a0 <_start-0x1e60>
    61cc:	cd050070 	stcgt	0, cr0, [r5, #-448]	; 0xfffffe40
    61d0:	000002d6 	ldrdeq	r0, [r0], -r6
    61d4:	755f1038 	ldrbvc	r1, [pc, #-56]	; 61a4 <_start-0x1e5c>
    61d8:	ce050072 	mcrgt	0, 0, r0, cr5, cr2, {3}
    61dc:	00000025 	andeq	r0, r0, r5, lsr #32
    61e0:	00a90b3c 	adceq	r0, r9, ip, lsr fp
    61e4:	d1050000 	mrsle	r0, (UNDEF: 5)
    61e8:	000005cf 	andeq	r0, r0, pc, asr #11
    61ec:	04b00b40 	ldrteq	r0, [r0], #2880	; 0xb40
    61f0:	d2050000 	andle	r0, r5, #0
    61f4:	000005df 	ldrdeq	r0, [r0], -pc	; <UNPREDICTABLE>
    61f8:	6c5f1043 	mrrcvs	0, 4, r1, pc, cr3	; <UNPREDICTABLE>
    61fc:	d5050062 	strle	r0, [r5, #-98]	; 0xffffff9e
    6200:	000002b1 			; <UNDEFINED> instruction: 0x000002b1
    6204:	01380b44 	teqeq	r8, r4, asr #22
    6208:	d8050000 	stmdale	r5, {}	; <UNPREDICTABLE>
    620c:	00000025 	andeq	r0, r0, r5, lsr #32
    6210:	01490b4c 	cmpeq	r9, ip, asr #22
    6214:	d9050000 	stmdble	r5, {}	; <UNPREDICTABLE>
    6218:	00000076 	andeq	r0, r0, r6, ror r0
    621c:	0a190b50 	beq	648f64 <__bss_end__+0x63efcc>
    6220:	dc050000 	stcle	0, cr0, [r5], {-0}
    6224:	00000424 	andeq	r0, r0, r4, lsr #8
    6228:	025f0b54 	subseq	r0, pc, #84, 22	; 0x15000
    622c:	e0050000 	and	r0, r5, r0
    6230:	000000fa 	strdeq	r0, [r0], -sl
    6234:	031d0b58 	tsteq	sp, #88, 22	; 0x16000
    6238:	e2050000 	and	r0, r5, #0
    623c:	000000ef 	andeq	r0, r0, pc, ror #1
    6240:	02650b5c 	rsbeq	r0, r5, #92, 22	; 0x17000
    6244:	e3050000 	movw	r0, #20480	; 0x5000
    6248:	00000025 	andeq	r0, r0, r5, lsr #32
    624c:	25140064 	ldrcs	r0, [r4, #-100]	; 0xffffff9c
    6250:	24000000 	strcs	r0, [r0], #-0
    6254:	15000004 	strne	r0, [r0, #-4]
    6258:	00000424 	andeq	r0, r0, r4, lsr #8
    625c:	00010515 	andeq	r0, r1, r5, lsl r5
    6260:	01071500 	tsteq	r7, r0, lsl #10
    6264:	25150000 	ldrcs	r0, [r5, #-0]
    6268:	00000000 	andeq	r0, r0, r0
    626c:	042f040d 	strteq	r0, [pc], #-1037	; 6274 <_start-0x1d8c>
    6270:	240e0000 	strcs	r0, [lr], #-0
    6274:	16000004 	strne	r0, [r0], -r4
    6278:	0000036a 	andeq	r0, r0, sl, ror #6
    627c:	38050428 	stmdacc	r5, {r3, r5, sl}
    6280:	00056102 	andeq	r6, r5, r2, lsl #2
    6284:	02db1700 	sbcseq	r1, fp, #0, 14
    6288:	3a050000 	bcc	146290 <__bss_end__+0x13c2f8>
    628c:	00002502 	andeq	r2, r0, r2, lsl #10
    6290:	84170000 	ldrhi	r0, [r7], #-0
    6294:	05000004 	streq	r0, [r0, #-4]
    6298:	0636023f 			; <UNDEFINED> instruction: 0x0636023f
    629c:	17040000 	strne	r0, [r4, -r0]
    62a0:	000001e4 	andeq	r0, r0, r4, ror #3
    62a4:	36023f05 	strcc	r3, [r2], -r5, lsl #30
    62a8:	08000006 	stmdaeq	r0, {r1, r2}
    62ac:	0001a317 	andeq	sl, r1, r7, lsl r3
    62b0:	023f0500 	eorseq	r0, pc, #0, 10
    62b4:	00000636 	andeq	r0, r0, r6, lsr r6
    62b8:	033e170c 	teqeq	lr, #12, 14	; 0x300000
    62bc:	41050000 	mrsmi	r0, (UNDEF: 5)
    62c0:	00002502 	andeq	r2, r0, r2, lsl #10
    62c4:	1a171000 	bne	5ca2cc <__bss_end__+0x5c0334>
    62c8:	05000000 	streq	r0, [r0, #-0]
    62cc:	08180242 	ldmdaeq	r8, {r1, r6, r9}
    62d0:	17140000 	ldrne	r0, [r4, -r0]
    62d4:	00000449 	andeq	r0, r0, r9, asr #8
    62d8:	25024405 	strcs	r4, [r2, #-1029]	; 0xfffffbfb
    62dc:	30000000 	andcc	r0, r0, r0
    62e0:	00034817 	andeq	r4, r3, r7, lsl r8
    62e4:	02450500 	subeq	r0, r5, #0, 10
    62e8:	00000585 	andeq	r0, r0, r5, lsl #11
    62ec:	02981734 	addseq	r1, r8, #52, 14	; 0xd00000
    62f0:	47050000 	strmi	r0, [r5, -r0]
    62f4:	00002502 	andeq	r2, r0, r2, lsl #10
    62f8:	58173800 	ldmdapl	r7, {fp, ip, sp}
    62fc:	05000003 	streq	r0, [r0, #-3]
    6300:	08330249 	ldmdaeq	r3!, {r0, r3, r6, r9}
    6304:	173c0000 	ldrne	r0, [ip, -r0]!
    6308:	00000243 	andeq	r0, r0, r3, asr #4
    630c:	77024c05 	strvc	r4, [r2, -r5, lsl #24]
    6310:	40000001 	andmi	r0, r0, r1
    6314:	0001c217 	andeq	ip, r1, r7, lsl r2
    6318:	024d0500 	subeq	r0, sp, #0, 10
    631c:	00000025 	andeq	r0, r0, r5, lsr #32
    6320:	04f21744 	ldrbteq	r1, [r2], #1860	; 0x744
    6324:	4e050000 	cdpmi	0, 0, cr0, cr5, cr0, {0}
    6328:	00017702 	andeq	r7, r1, r2, lsl #14
    632c:	aa174800 	bge	5d8334 <__bss_end__+0x5ce39c>
    6330:	05000002 	streq	r0, [r0, #-2]
    6334:	0839024f 	ldmdaeq	r9!, {r0, r1, r2, r3, r6, r9}
    6338:	174c0000 	strbne	r0, [ip, -r0]
    633c:	000001ec 	andeq	r0, r0, ip, ror #3
    6340:	25025205 	strcs	r5, [r2, #-517]	; 0xfffffdfb
    6344:	50000000 	andpl	r0, r0, r0
    6348:	00014117 	andeq	r4, r1, r7, lsl r1
    634c:	02530500 	subseq	r0, r3, #0, 10
    6350:	00000107 	andeq	r0, r0, r7, lsl #2
    6354:	02d41754 	sbcseq	r1, r4, #84, 14	; 0x1500000
    6358:	76050000 	strvc	r0, [r5], -r0
    635c:	0007f602 	andeq	pc, r7, r2, lsl #12
    6360:	90185800 	andsls	r5, r8, r0, lsl #16
    6364:	05000002 	streq	r0, [r0, #-2]
    6368:	0294027a 	addseq	r0, r4, #-1610612729	; 0xa0000007
    636c:	01480000 	mrseq	r0, (UNDEF: 72)
    6370:	00022118 	andeq	r2, r2, r8, lsl r1
    6374:	027b0500 	rsbseq	r0, fp, #0, 10
    6378:	00000256 	andeq	r0, r0, r6, asr r2
    637c:	9e18014c 	muflsem	f0, f0, #4.0
    6380:	05000004 	streq	r0, [r0, #-4]
    6384:	084a027f 	stmdaeq	sl, {r0, r1, r2, r3, r4, r5, r6, r9}^
    6388:	02dc0000 	sbcseq	r0, ip, #0
    638c:	00010b18 	andeq	r0, r1, r8, lsl fp
    6390:	02840500 	addeq	r0, r4, #0, 10
    6394:	000005fb 	strdeq	r0, [r0], -fp
    6398:	f01802e0 			; <UNDEFINED> instruction: 0xf01802e0
    639c:	05000000 	streq	r0, [r0, #-0]
    63a0:	08560285 	ldmdaeq	r6, {r0, r2, r7, r9}^
    63a4:	02ec0000 	rsceq	r0, ip, #0
    63a8:	06040d00 	streq	r0, [r4], -r0, lsl #26
    63ac:	14000004 	strne	r0, [r0], #-4
    63b0:	00000025 	andeq	r0, r0, r5, lsr #32
    63b4:	00000585 	andeq	r0, r0, r5, lsl #11
    63b8:	00042415 	andeq	r2, r4, r5, lsl r4
    63bc:	01051500 	tsteq	r5, r0, lsl #10
    63c0:	85150000 	ldrhi	r0, [r5, #-0]
    63c4:	15000005 	strne	r0, [r0, #-5]
    63c8:	00000025 	andeq	r0, r0, r5, lsr #32
    63cc:	14040d00 	strne	r0, [r4], #-3328	; 0xfffff300
    63d0:	0d000001 	stceq	0, cr0, [r0, #-4]
    63d4:	00056704 	andeq	r6, r5, r4, lsl #14
    63d8:	00811400 	addeq	r1, r1, r0, lsl #8
    63dc:	05af0000 	streq	r0, [pc, #0]!	; 63e4 <_start-0x1c1c>
    63e0:	24150000 	ldrcs	r0, [r5], #-0
    63e4:	15000004 	strne	r0, [r0, #-4]
    63e8:	00000105 	andeq	r0, r0, r5, lsl #2
    63ec:	00008115 	andeq	r8, r0, r5, lsl r1
    63f0:	00251500 	eoreq	r1, r5, r0, lsl #10
    63f4:	0d000000 	stceq	0, cr0, [r0, #-0]
    63f8:	00059104 	andeq	r9, r5, r4, lsl #2
    63fc:	00251400 	eoreq	r1, r5, r0, lsl #8
    6400:	05c90000 	strbeq	r0, [r9]
    6404:	24150000 	ldrcs	r0, [r5], #-0
    6408:	15000004 	strne	r0, [r0, #-4]
    640c:	00000105 	andeq	r0, r0, r5, lsl #2
    6410:	b5040d00 	strlt	r0, [r4, #-3328]	; 0xfffff300
    6414:	08000005 	stmdaeq	r0, {r0, r2}
    6418:	0000004f 	andeq	r0, r0, pc, asr #32
    641c:	000005df 	ldrdeq	r0, [r0], -pc	; <UNPREDICTABLE>
    6420:	0000c709 	andeq	ip, r0, r9, lsl #14
    6424:	08000200 	stmdaeq	r0, {r9}
    6428:	0000004f 	andeq	r0, r0, pc, asr #32
    642c:	000005ef 	andeq	r0, r0, pc, ror #11
    6430:	0000c709 	andeq	ip, r0, r9, lsl #14
    6434:	05000000 	streq	r0, [r0, #-0]
    6438:	00000303 	andeq	r0, r0, r3, lsl #6
    643c:	dc011d05 	stcle	13, cr1, [r1], {5}
    6440:	19000002 	stmdbne	r0, {r1}
    6444:	0000047e 	andeq	r0, r0, lr, ror r4
    6448:	0121050c 			; <UNDEFINED> instruction: 0x0121050c
    644c:	00000630 	andeq	r0, r0, r0, lsr r6
    6450:	00032b17 	andeq	r2, r3, r7, lsl fp
    6454:	01230500 			; <UNDEFINED> instruction: 0x01230500
    6458:	00000630 	andeq	r0, r0, r0, lsr r6
    645c:	02071700 	andeq	r1, r7, #0, 14
    6460:	24050000 	strcs	r0, [r5], #-0
    6464:	00002501 	andeq	r2, r0, r1, lsl #10
    6468:	fd170400 	ldc2	4, cr0, [r7, #-0]
    646c:	05000002 	streq	r0, [r0, #-2]
    6470:	06360125 	ldrteq	r0, [r6], -r5, lsr #2
    6474:	00080000 	andeq	r0, r8, r0
    6478:	05fb040d 	ldrbeq	r0, [fp, #1037]!	; 0x40d
    647c:	040d0000 	streq	r0, [sp], #-0
    6480:	000005ef 	andeq	r0, r0, pc, ror #11
    6484:	00001219 	andeq	r1, r0, r9, lsl r2
    6488:	3d050e00 	stccc	14, cr0, [r5, #-0]
    648c:	00067101 	andeq	r7, r6, r1, lsl #2
    6490:	03711700 	cmneq	r1, #0, 14
    6494:	3e050000 	cdpcc	0, 0, cr0, cr5, cr0, {0}
    6498:	00067101 	andeq	r7, r6, r1, lsl #2
    649c:	9e170000 	cdpls	0, 1, cr0, cr7, cr0, {0}
    64a0:	05000003 	streq	r0, [r0, #-3]
    64a4:	0671013f 			; <UNDEFINED> instruction: 0x0671013f
    64a8:	17060000 	strne	r0, [r6, -r0]
    64ac:	0000041c 	andeq	r0, r0, ip, lsl r4
    64b0:	56014005 	strpl	r4, [r1], -r5
    64b4:	0c000000 	stceq	0, cr0, [r0], {-0}
    64b8:	00560800 	subseq	r0, r6, r0, lsl #16
    64bc:	06810000 	streq	r0, [r1], r0
    64c0:	c7090000 	strgt	r0, [r9, -r0]
    64c4:	02000000 	andeq	r0, r0, #0
    64c8:	05d01a00 	ldrbeq	r1, [r0, #2560]	; 0xa00
    64cc:	07820257 			; <UNDEFINED> instruction: 0x07820257
    64d0:	62170000 	andsvs	r0, r7, #0
    64d4:	05000004 	streq	r0, [r0, #-4]
    64d8:	002c0259 	eoreq	r0, ip, r9, asr r2
    64dc:	17000000 	strne	r0, [r0, -r0]
    64e0:	00000406 	andeq	r0, r0, r6, lsl #8
    64e4:	07025a05 	streq	r5, [r2, -r5, lsl #20]
    64e8:	04000001 	streq	r0, [r0], #-1
    64ec:	00023617 	andeq	r3, r2, r7, lsl r6
    64f0:	025b0500 	subseq	r0, fp, #0, 10
    64f4:	00000782 	andeq	r0, r0, r2, lsl #15
    64f8:	04c91708 	strbeq	r1, [r9], #1800	; 0x708
    64fc:	5c050000 	stcpl	0, cr0, [r5], {-0}
    6500:	00018d02 	andeq	r8, r1, r2, lsl #26
    6504:	b3172400 	tstlt	r7, #0, 8
    6508:	05000001 	streq	r0, [r0, #-1]
    650c:	0025025d 	eoreq	r0, r5, sp, asr r2
    6510:	17480000 	strbne	r0, [r8, -r0]
    6514:	00000326 	andeq	r0, r0, r6, lsr #6
    6518:	64025e05 	strvs	r5, [r2], #-3589	; 0xfffff1fb
    651c:	50000000 	andpl	r0, r0, r0
    6520:	0004df17 	andeq	sp, r4, r7, lsl pc
    6524:	025f0500 	subseq	r0, pc, #0, 10
    6528:	0000063c 	andeq	r0, r0, ip, lsr r6
    652c:	03311758 	teqeq	r1, #88, 14	; 0x1600000
    6530:	60050000 	andvs	r0, r5, r0
    6534:	0000ef02 	andeq	lr, r0, r2, lsl #30
    6538:	e4176800 	ldr	r6, [r7], #-2048	; 0xfffff800
    653c:	05000004 	streq	r0, [r0, #-4]
    6540:	00ef0261 	rsceq	r0, pc, r1, ror #4
    6544:	17700000 	ldrbne	r0, [r0, -r0]!
    6548:	00000084 	andeq	r0, r0, r4, lsl #1
    654c:	ef026205 	svc	0x00026205
    6550:	78000000 	stmdavc	r0, {}	; <UNPREDICTABLE>
    6554:	00049417 	andeq	r9, r4, r7, lsl r4
    6558:	02630500 	rsbeq	r0, r3, #0, 10
    655c:	00000792 	muleq	r0, r2, r7
    6560:	022a1780 	eoreq	r1, sl, #128, 14	; 0x2000000
    6564:	64050000 	strvs	r0, [r5], #-0
    6568:	0007a202 	andeq	sl, r7, r2, lsl #4
    656c:	29178800 	ldmdbcs	r7, {fp, pc}
    6570:	05000004 	streq	r0, [r0, #-4]
    6574:	00250265 	eoreq	r0, r5, r5, ror #4
    6578:	17a00000 	strne	r0, [r0, r0]!
    657c:	00000179 	andeq	r0, r0, r9, ror r1
    6580:	ef026605 	svc	0x00026605
    6584:	a4000000 	strge	r0, [r0], #-0
    6588:	00007517 	andeq	r7, r0, r7, lsl r5
    658c:	02670500 	rsbeq	r0, r7, #0, 10
    6590:	000000ef 	andeq	r0, r0, pc, ror #1
    6594:	016817ac 	cmneq	r8, ip, lsr #15
    6598:	68050000 	stmdavs	r5, {}	; <UNPREDICTABLE>
    659c:	0000ef02 	andeq	lr, r0, r2, lsl #30
    65a0:	2d17b400 	cfldrscs	mvf11, [r7, #-0]
    65a4:	05000000 	streq	r0, [r0, #-0]
    65a8:	00ef0269 	rsceq	r0, pc, r9, ror #4
    65ac:	17bc0000 	ldrne	r0, [ip, r0]!
    65b0:	0000003c 	andeq	r0, r0, ip, lsr r0
    65b4:	ef026a05 	svc	0x00026a05
    65b8:	c4000000 	strgt	r0, [r0], #-0
    65bc:	0002d917 	andeq	sp, r2, r7, lsl r9
    65c0:	026b0500 	rsbeq	r0, fp, #0, 10
    65c4:	00000025 	andeq	r0, r0, r5, lsr #32
    65c8:	0d0800cc 	stceq	0, cr0, [r8, #-816]	; 0xfffffcd0
    65cc:	92000001 	andls	r0, r0, #1
    65d0:	09000007 	stmdbeq	r0, {r0, r1, r2}
    65d4:	000000c7 	andeq	r0, r0, r7, asr #1
    65d8:	0d080019 	stceq	0, cr0, [r8, #-100]	; 0xffffff9c
    65dc:	a2000001 	andge	r0, r0, #1
    65e0:	09000007 	stmdbeq	r0, {r0, r1, r2}
    65e4:	000000c7 	andeq	r0, r0, r7, asr #1
    65e8:	0d080007 	stceq	0, cr0, [r8, #-28]	; 0xffffffe4
    65ec:	b2000001 	andlt	r0, r0, #1
    65f0:	09000007 	stmdbeq	r0, {r0, r1, r2}
    65f4:	000000c7 	andeq	r0, r0, r7, asr #1
    65f8:	f01a0017 			; <UNDEFINED> instruction: 0xf01a0017
    65fc:	d6027005 	strle	r7, [r2], -r5
    6600:	17000007 	strne	r0, [r0, -r7]
    6604:	00000280 	andeq	r0, r0, r0, lsl #5
    6608:	d6027305 	strle	r7, [r2], -r5, lsl #6
    660c:	00000007 	andeq	r0, r0, r7
    6610:	00048b17 	andeq	r8, r4, r7, lsl fp
    6614:	02740500 	rsbseq	r0, r4, #0, 10
    6618:	000007e6 	andeq	r0, r0, r6, ror #15
    661c:	d6080078 			; <UNDEFINED> instruction: 0xd6080078
    6620:	e6000002 	str	r0, [r0], -r2
    6624:	09000007 	stmdbeq	r0, {r0, r1, r2}
    6628:	000000c7 	andeq	r0, r0, r7, asr #1
    662c:	2c08001d 	stccs	0, cr0, [r8], {29}
    6630:	f6000000 			; <UNDEFINED> instruction: 0xf6000000
    6634:	09000007 	stmdbeq	r0, {r0, r1, r2}
    6638:	000000c7 	andeq	r0, r0, r7, asr #1
    663c:	f01b001d 			; <UNDEFINED> instruction: 0xf01b001d
    6640:	18025505 	stmdane	r2, {r0, r2, r8, sl, ip, lr}
    6644:	1c000008 	stcne	0, cr0, [r0], {8}
    6648:	0000036a 	andeq	r0, r0, sl, ror #6
    664c:	81026c05 	tsthi	r2, r5, lsl #24
    6650:	1c000006 	stcne	0, cr0, [r0], {6}
    6654:	000004b6 			; <UNDEFINED> instruction: 0x000004b6
    6658:	b2027505 	andlt	r7, r2, #20971520	; 0x1400000
    665c:	00000007 	andeq	r0, r0, r7
    6660:	00010d08 	andeq	r0, r1, r8, lsl #26
    6664:	00082800 	andeq	r2, r8, r0, lsl #16
    6668:	00c70900 	sbceq	r0, r7, r0, lsl #18
    666c:	00180000 	andseq	r0, r8, r0
    6670:	0008331d 	andeq	r3, r8, sp, lsl r3
    6674:	04241500 	strteq	r1, [r4], #-1280	; 0xfffffb00
    6678:	0d000000 	stceq	0, cr0, [r0, #-0]
    667c:	00082804 	andeq	r2, r8, r4, lsl #16
    6680:	77040d00 	strvc	r0, [r4, -r0, lsl #26]
    6684:	1d000001 	stcne	0, cr0, [r0, #-4]
    6688:	0000084a 	andeq	r0, r0, sl, asr #16
    668c:	00002515 	andeq	r2, r0, r5, lsl r5
    6690:	040d0000 	streq	r0, [sp], #-0
    6694:	00000850 	andeq	r0, r0, r0, asr r8
    6698:	083f040d 	ldmdaeq	pc!, {r0, r2, r3, sl}	; <UNPREDICTABLE>
    669c:	ef080000 	svc	0x00080000
    66a0:	66000005 	strvs	r0, [r0], -r5
    66a4:	09000008 	stmdbeq	r0, {r3}
    66a8:	000000c7 	andeq	r0, r0, r7, asr #1
    66ac:	3d1e0002 	ldccc	0, cr0, [lr, #-8]
    66b0:	05000004 	streq	r0, [r0, #-4]
    66b4:	042402fd 	strteq	r0, [r4], #-765	; 0xfffffd03
    66b8:	361e0000 	ldrcc	r0, [lr], -r0
    66bc:	05000004 	streq	r0, [r0, #-4]
    66c0:	042a02fe 	strteq	r0, [sl], #-766	; 0xfffffd02
    66c4:	25140000 	ldrcs	r0, [r4, #-0]
    66c8:	8d000000 	stchi	0, cr0, [r0, #-0]
    66cc:	15000008 	strne	r0, [r0, #-8]
    66d0:	00000025 	andeq	r0, r0, r5, lsr #32
    66d4:	01cc1f00 	biceq	r1, ip, r0, lsl #30
    66d8:	1d060000 	stcne	0, cr0, [r6, #-0]
    66dc:	00000898 	muleq	r0, r8, r8
    66e0:	087e040d 	ldmdaeq	lr!, {r0, r2, r3, sl}^
    66e4:	25140000 	ldrcs	r0, [r4, #-0]
    66e8:	ad000000 	stcge	0, cr0, [r0, #-0]
    66ec:	15000008 	strne	r0, [r0, #-8]
    66f0:	00000585 	andeq	r0, r0, r5, lsl #11
    66f4:	07691f00 	strbeq	r1, [r9, -r0, lsl #30]!
    66f8:	22060000 	andcs	r0, r6, #0
    66fc:	000008b8 			; <UNDEFINED> instruction: 0x000008b8
    6700:	089e040d 	ldmeq	lr, {r0, r2, r3, sl}
    6704:	d9200000 	stmdble	r0!, {}	; <UNPREDICTABLE>
    6708:	01000007 	tsteq	r0, r7
    670c:	0090180d 	addseq	r1, r0, sp, lsl #16
    6710:	00003400 	andeq	r3, r0, r0, lsl #8
    6714:	1d9c0100 	ldfnes	f0, [ip]
    6718:	1f000009 	svcne	0x00000009
    671c:	000007e9 	andeq	r0, r0, r9, ror #15
    6720:	00250e01 	eoreq	r0, r5, r1, lsl #28
    6724:	f71f0000 			; <UNDEFINED> instruction: 0xf71f0000
    6728:	01000007 	tsteq	r0, r7
    672c:	0000250e 	andeq	r2, r0, lr, lsl #10
    6730:	00252100 	eoreq	r2, r5, r0, lsl #2
    6734:	0f010000 	svceq	0x00010000
    6738:	73736222 	cmnvc	r3, #536870914	; 0x20000002
    673c:	1d110100 	ldfnes	f0, [r1, #-0]
    6740:	a5000009 	strge	r0, [r0, #-9]
    6744:	2300000f 	movwcs	r0, #15
    6748:	000007e1 	andeq	r0, r0, r1, ror #15
    674c:	091d1201 	ldmdbeq	sp, {r0, r9, ip}
    6750:	40240000 	eormi	r0, r4, r0
    6754:	23000090 	movwcs	r0, #144	; 0x90
    6758:	24000009 	strcs	r0, [r0], #-9
    675c:	00009044 	andeq	r9, r0, r4, asr #32
    6760:	0000092e 	andeq	r0, r0, lr, lsr #18
    6764:	25040d00 	strcs	r0, [r4, #-3328]	; 0xfffff300
    6768:	25000000 	strcs	r0, [r0, #-0]
    676c:	00000025 	andeq	r0, r0, r5, lsr #32
    6770:	00000025 	andeq	r0, r0, r5, lsr #32
    6774:	c825d706 	stmdagt	r5!, {r1, r2, r8, r9, sl, ip, lr, pc}
    6778:	c8000005 	stmdagt	r0, {r0, r2}
    677c:	06000005 	streq	r0, [r0], -r5
    6780:	09e60065 	stmibeq	r6!, {r0, r2, r5, r6}^
    6784:	00040000 	andeq	r0, r4, r0
    6788:	0000136a 	andeq	r1, r0, sl, ror #6
    678c:	03a40104 			; <UNDEFINED> instruction: 0x03a40104
    6790:	570c0000 	strpl	r0, [ip, -r0]
    6794:	de000008 	cdple	0, 0, cr0, cr0, cr8, {0}
    6798:	98000006 	stmdals	r0, {r1, r2}
    679c:	00000000 	andeq	r0, r0, r0
    67a0:	e6000000 	str	r0, [r0], -r0
    67a4:	0200000a 	andeq	r0, r0, #10
    67a8:	6e690504 	cdpvs	5, 6, cr0, cr9, cr4, {0}
    67ac:	25030074 	strcs	r0, [r3, #-116]	; 0xffffff8c
    67b0:	04000000 	streq	r0, [r0], #-0
    67b4:	00570704 	subseq	r0, r7, r4, lsl #14
    67b8:	01040000 	mrseq	r0, (UNDEF: 4)
    67bc:	0002c806 	andeq	ip, r2, r6, lsl #16
    67c0:	05020400 	streq	r0, [r2, #-1024]	; 0xfffffc00
    67c4:	000002e2 	andeq	r0, r0, r2, ror #5
    67c8:	a0050404 	andge	r0, r5, r4, lsl #8
    67cc:	04000000 	streq	r0, [r0], #-0
    67d0:	009b0508 	addseq	r0, fp, r8, lsl #10
    67d4:	01040000 	mrseq	r0, (UNDEF: 4)
    67d8:	0002c608 	andeq	ip, r2, r8, lsl #12
    67dc:	07020400 	streq	r0, [r2, -r0, lsl #8]
    67e0:	0000020e 	andeq	r0, r0, lr, lsl #4
    67e4:	52070404 	andpl	r0, r7, #4, 8	; 0x4000000
    67e8:	04000000 	streq	r0, [r0], #-0
    67ec:	004d0708 	subeq	r0, sp, r8, lsl #14
    67f0:	b4050000 	strlt	r0, [r5], #-0
    67f4:	02000002 	andeq	r0, r0, #2
    67f8:	00002507 	andeq	r2, r0, r7, lsl #10
    67fc:	02a30500 	adceq	r0, r3, #0, 10
    6800:	2c030000 	stccs	0, cr0, [r3], {-0}
    6804:	00000046 	andeq	r0, r0, r6, asr #32
    6808:	00038d05 	andeq	r8, r3, r5, lsl #26
    680c:	46720300 	ldrbtmi	r0, [r2], -r0, lsl #6
    6810:	06000000 	streq	r0, [r0], -r0
    6814:	00000251 	andeq	r0, r0, r1, asr r2
    6818:	31016504 	tstcc	r1, r4, lsl #10
    681c:	07000000 	streq	r0, [r0, -r0]
    6820:	bca60304 	stclt	3, cr0, [r6], #16
    6824:	08000000 	stmdaeq	r0, {}	; <UNPREDICTABLE>
    6828:	0000024b 	andeq	r0, r0, fp, asr #4
    682c:	0091a803 	addseq	sl, r1, r3, lsl #16
    6830:	dd080000 	stcle	0, cr0, [r8, #-0]
    6834:	03000001 	movweq	r0, #1
    6838:	0000bca9 	andeq	fp, r0, r9, lsr #25
    683c:	54090000 	strpl	r0, [r9], #-0
    6840:	cc000000 	stcgt	0, cr0, [r0], {-0}
    6844:	0a000000 	beq	684c <_start-0x17b4>
    6848:	000000cc 	andeq	r0, r0, ip, asr #1
    684c:	04040003 	streq	r0, [r4], #-3
    6850:	00027707 	andeq	r7, r2, r7, lsl #14
    6854:	03080b00 	movweq	r0, #35584	; 0x8b00
    6858:	0000f4a3 	andeq	pc, r0, r3, lsr #9
    685c:	03770c00 	cmneq	r7, #0, 24
    6860:	a5030000 	strge	r0, [r3, #-0]
    6864:	00000025 	andeq	r0, r0, r5, lsr #32
    6868:	037f0c00 	cmneq	pc, #0, 24
    686c:	aa030000 	bge	c6874 <__bss_end__+0xbc8dc>
    6870:	0000009d 	muleq	r0, sp, r0
    6874:	0a050004 	beq	14688c <__bss_end__+0x13c8f4>
    6878:	03000003 	movweq	r0, #3
    687c:	0000d3ab 	andeq	sp, r0, fp, lsr #7
    6880:	019a0500 	orrseq	r0, sl, r0, lsl #10
    6884:	af030000 	svcge	0x00030000
    6888:	00000070 	andeq	r0, r0, r0, ror r0
    688c:	040e040d 	streq	r0, [lr], #-1037	; 0xfffffbf3
    6890:	00000112 	andeq	r0, r0, r2, lsl r1
    6894:	cf080104 	svcgt	0x00080104
    6898:	03000002 	movweq	r0, #2
    689c:	00000112 	andeq	r0, r0, r2, lsl r1
    68a0:	00042105 	andeq	r2, r4, r5, lsl #2
    68a4:	62160500 	andsvs	r0, r6, #0, 10
    68a8:	0f000000 	svceq	0x00000000
    68ac:	000001ab 	andeq	r0, r0, fp, lsr #3
    68b0:	7c2d0518 	cfstr32vc	mvfx0, [sp], #-96	; 0xffffffa0
    68b4:	0c000001 	stceq	0, cr0, [r0], {1}
    68b8:	0000032b 	andeq	r0, r0, fp, lsr #6
    68bc:	017c2f05 	cmneq	ip, r5, lsl #30
    68c0:	10000000 	andne	r0, r0, r0
    68c4:	05006b5f 	streq	r6, [r0, #-2911]	; 0xfffff4a1
    68c8:	00002530 	andeq	r2, r0, r0, lsr r5
    68cc:	620c0400 	andvs	r0, ip, #0, 8
    68d0:	05000003 	streq	r0, [r0, #-3]
    68d4:	00002530 	andeq	r2, r0, r0, lsr r5
    68d8:	940c0800 	strls	r0, [ip], #-2048	; 0xfffff800
    68dc:	05000001 	streq	r0, [r0, #-1]
    68e0:	00002530 	andeq	r2, r0, r0, lsr r5
    68e4:	6f0c0c00 	svcvs	0x000c0c00
    68e8:	05000004 	streq	r0, [r0, #-4]
    68ec:	00002530 	andeq	r2, r0, r0, lsr r5
    68f0:	5f101000 	svcpl	0x00101000
    68f4:	31050078 	tstcc	r5, r8, ror r0
    68f8:	00000182 	andeq	r0, r0, r2, lsl #3
    68fc:	040e0014 	streq	r0, [lr], #-20	; 0xffffffec
    6900:	00000129 	andeq	r0, r0, r9, lsr #2
    6904:	00011e09 	andeq	r1, r1, r9, lsl #28
    6908:	00019200 	andeq	r9, r1, r0, lsl #4
    690c:	00cc0a00 	sbceq	r0, ip, r0, lsl #20
    6910:	00000000 	andeq	r0, r0, r0
    6914:	0001d80f 	andeq	sp, r1, pc, lsl #16
    6918:	35052400 	strcc	r2, [r5, #-1024]	; 0xfffffc00
    691c:	0000020b 	andeq	r0, r0, fp, lsl #4
    6920:	0000920c 	andeq	r9, r0, ip, lsl #4
    6924:	25370500 	ldrcs	r0, [r7, #-1280]!	; 0xfffffb00
    6928:	00000000 	andeq	r0, r0, r0
    692c:	0003950c 	andeq	r9, r3, ip, lsl #10
    6930:	25380500 	ldrcs	r0, [r8, #-1280]!	; 0xfffffb00
    6934:	04000000 	streq	r0, [r0], #-0
    6938:	0000b50c 	andeq	fp, r0, ip, lsl #10
    693c:	25390500 	ldrcs	r0, [r9, #-1280]!	; 0xfffffb00
    6940:	08000000 	stmdaeq	r0, {}	; <UNPREDICTABLE>
    6944:	0004f70c 	andeq	pc, r4, ip, lsl #14
    6948:	253a0500 	ldrcs	r0, [sl, #-1280]!	; 0xfffffb00
    694c:	0c000000 	stceq	0, cr0, [r0], {-0}
    6950:	0002870c 	andeq	r8, r2, ip, lsl #14
    6954:	253b0500 	ldrcs	r0, [fp, #-1280]!	; 0xfffffb00
    6958:	10000000 	andne	r0, r0, r0
    695c:	00026d0c 	andeq	r6, r2, ip, lsl #26
    6960:	253c0500 	ldrcs	r0, [ip, #-1280]!	; 0xfffffb00
    6964:	14000000 	strne	r0, [r0], #-0
    6968:	0004740c 	andeq	r7, r4, ip, lsl #8
    696c:	253d0500 	ldrcs	r0, [sp, #-1280]!	; 0xfffffb00
    6970:	18000000 	stmdane	r0, {}	; <UNPREDICTABLE>
    6974:	0002ec0c 	andeq	lr, r2, ip, lsl #24
    6978:	253e0500 	ldrcs	r0, [lr, #-1280]!	; 0xfffffb00
    697c:	1c000000 	stcne	0, cr0, [r0], {-0}
    6980:	0004be0c 	andeq	fp, r4, ip, lsl #28
    6984:	253f0500 	ldrcs	r0, [pc, #-1280]!	; 648c <_start-0x1b74>
    6988:	20000000 	andcs	r0, r0, r0
    698c:	00f51100 	rscseq	r1, r5, r0, lsl #2
    6990:	01080000 	mrseq	r0, (UNDEF: 8)
    6994:	024b4805 	subeq	r4, fp, #327680	; 0x50000
    6998:	870c0000 	strhi	r0, [ip, -r0]
    699c:	05000001 	streq	r0, [r0, #-1]
    69a0:	00024b49 	andeq	r4, r2, r9, asr #22
    69a4:	000c0000 	andeq	r0, ip, r0
    69a8:	05000000 	streq	r0, [r0, #-0]
    69ac:	00024b4a 	andeq	r4, r2, sl, asr #22
    69b0:	13128000 	tstne	r2, #0
    69b4:	05000004 	streq	r0, [r0, #-4]
    69b8:	00011e4c 	andeq	r1, r1, ip, asr #28
    69bc:	12010000 	andne	r0, r1, #0
    69c0:	0000011a 	andeq	r0, r0, sl, lsl r1
    69c4:	011e4f05 	tsteq	lr, r5, lsl #30
    69c8:	01040000 	mrseq	r0, (UNDEF: 4)
    69cc:	010a0900 	tsteq	sl, r0, lsl #18
    69d0:	025b0000 	subseq	r0, fp, #0
    69d4:	cc0a0000 	stcgt	0, cr0, [sl], {-0}
    69d8:	1f000000 	svcne	0x00000000
    69dc:	02901100 	addseq	r1, r0, #0, 2
    69e0:	01900000 	orrseq	r0, r0, r0
    69e4:	02995b05 	addseq	r5, r9, #5120	; 0x1400
    69e8:	2b0c0000 	blcs	3069f0 <__bss_end__+0x2fca58>
    69ec:	05000003 	streq	r0, [r0, #-3]
    69f0:	0002995c 	andeq	r9, r2, ip, asr r9
    69f4:	430c0000 	movwmi	r0, #49152	; 0xc000
    69f8:	05000003 	streq	r0, [r0, #-3]
    69fc:	0000255d 	andeq	r2, r0, sp, asr r5
    6a00:	8f0c0400 	svchi	0x000c0400
    6a04:	05000001 	streq	r0, [r0, #-1]
    6a08:	00029f5f 	andeq	r9, r2, pc, asr pc
    6a0c:	f50c0800 			; <UNDEFINED> instruction: 0xf50c0800
    6a10:	05000000 	streq	r0, [r0, #-0]
    6a14:	00020b60 	andeq	r0, r2, r0, ror #22
    6a18:	0e008800 	cdpeq	8, 0, cr8, cr0, cr0, {0}
    6a1c:	00025b04 	andeq	r5, r2, r4, lsl #22
    6a20:	02af0900 	adceq	r0, pc, #0, 18
    6a24:	02af0000 	adceq	r0, pc, #0
    6a28:	cc0a0000 	stcgt	0, cr0, [sl], {-0}
    6a2c:	1f000000 	svcne	0x00000000
    6a30:	b5040e00 	strlt	r0, [r4, #-3584]	; 0xfffff200
    6a34:	13000002 	movwne	r0, #2
    6a38:	0002f60f 	andeq	pc, r2, pc, lsl #12
    6a3c:	73050800 	movwvc	r0, #22528	; 0x5800
    6a40:	000002db 	ldrdeq	r0, [r0], -fp
    6a44:	0000af0c 	andeq	sl, r0, ip, lsl #30
    6a48:	db740500 	blle	1d07e50 <__bss_end__+0x1cfdeb8>
    6a4c:	00000002 	andeq	r0, r0, r2
    6a50:	00000c0c 	andeq	r0, r0, ip, lsl #24
    6a54:	25750500 	ldrbcs	r0, [r5, #-1280]!	; 0xfffffb00
    6a58:	04000000 	streq	r0, [r0], #-0
    6a5c:	54040e00 	strpl	r0, [r4], #-3584	; 0xfffff200
    6a60:	0f000000 	svceq	0x00000000
    6a64:	00000315 	andeq	r0, r0, r5, lsl r3
    6a68:	0bb30568 	bleq	fecc8010 <__bss_end__+0xfecbe078>
    6a6c:	10000004 	andne	r0, r0, r4
    6a70:	0500705f 	streq	r7, [r0, #-95]	; 0xffffffa1
    6a74:	0002dbb4 			; <UNDEFINED> instruction: 0x0002dbb4
    6a78:	5f100000 	svcpl	0x00100000
    6a7c:	b5050072 	strlt	r0, [r5, #-114]	; 0xffffff8e
    6a80:	00000025 	andeq	r0, r0, r5, lsr #32
    6a84:	775f1004 	ldrbvc	r1, [pc, -r4]
    6a88:	25b60500 	ldrcs	r0, [r6, #1280]!	; 0x500
    6a8c:	08000000 	stmdaeq	r0, {}	; <UNPREDICTABLE>
    6a90:	0001130c 	andeq	r1, r1, ip, lsl #6
    6a94:	3fb70500 	svccc	0x00b70500
    6a98:	0c000000 	stceq	0, cr0, [r0], {-0}
    6a9c:	0001f40c 	andeq	pc, r1, ip, lsl #8
    6aa0:	3fb80500 	svccc	0x00b80500
    6aa4:	0e000000 	cdpeq	0, 0, cr0, cr0, cr0, {0}
    6aa8:	66625f10 	uqadd16vs	r5, r2, r0
    6aac:	b6b90500 	ldrtlt	r0, [r9], r0, lsl #10
    6ab0:	10000002 	andne	r0, r0, r2
    6ab4:	00006c0c 	andeq	r6, r0, ip, lsl #24
    6ab8:	25ba0500 	ldrcs	r0, [sl, #1280]!	; 0x500
    6abc:	18000000 	stmdane	r0, {}	; <UNPREDICTABLE>
    6ac0:	0001030c 	andeq	r0, r1, ip, lsl #6
    6ac4:	0ac10500 	beq	ff047ecc <__bss_end__+0xff03df34>
    6ac8:	1c000001 	stcne	0, cr0, [r0], {1}
    6acc:	000a780c 	andeq	r7, sl, ip, lsl #16
    6ad0:	66c30500 	strbvs	r0, [r3], r0, lsl #10
    6ad4:	20000005 	andcs	r0, r0, r5
    6ad8:	00060c0c 	andeq	r0, r6, ip, lsl #24
    6adc:	90c50500 	sbcls	r0, r5, r0, lsl #10
    6ae0:	24000005 	strcs	r0, [r0], #-5
    6ae4:	0003870c 	andeq	r8, r3, ip, lsl #14
    6ae8:	b4c80500 	strblt	r0, [r8], #1280	; 0x500
    6aec:	28000005 	stmdacs	r0, {r0, r2}
    6af0:	0004d80c 	andeq	sp, r4, ip, lsl #16
    6af4:	cec90500 	cdpgt	5, 12, cr0, cr9, cr0, {0}
    6af8:	2c000005 	stccs	0, cr0, [r0], {5}
    6afc:	62755f10 	rsbsvs	r5, r5, #16, 30	; 0x40
    6b00:	b6cc0500 	strblt	r0, [ip], r0, lsl #10
    6b04:	30000002 	andcc	r0, r0, r2
    6b08:	70755f10 	rsbsvc	r5, r5, r0, lsl pc
    6b0c:	dbcd0500 	blle	ff347f14 <__bss_end__+0xff33df7c>
    6b10:	38000002 	stmdacc	r0, {r1}
    6b14:	72755f10 	rsbsvc	r5, r5, #16, 30	; 0x40
    6b18:	25ce0500 	strbcs	r0, [lr, #1280]	; 0x500
    6b1c:	3c000000 	stccc	0, cr0, [r0], {-0}
    6b20:	0000a90c 	andeq	sl, r0, ip, lsl #18
    6b24:	d4d10500 	ldrble	r0, [r1], #1280	; 0x500
    6b28:	40000005 	andmi	r0, r0, r5
    6b2c:	0004b00c 	andeq	fp, r4, ip
    6b30:	e4d20500 	ldrb	r0, [r2], #1280	; 0x500
    6b34:	43000005 	movwmi	r0, #5
    6b38:	626c5f10 	rsbvs	r5, ip, #16, 30	; 0x40
    6b3c:	b6d50500 	ldrblt	r0, [r5], r0, lsl #10
    6b40:	44000002 	strmi	r0, [r0], #-2
    6b44:	0001380c 	andeq	r3, r1, ip, lsl #16
    6b48:	25d80500 	ldrbcs	r0, [r8, #1280]	; 0x500
    6b4c:	4c000000 	stcmi	0, cr0, [r0], {-0}
    6b50:	0001490c 	andeq	r4, r1, ip, lsl #18
    6b54:	7bd90500 	blvc	ff647f5c <__bss_end__+0xff63dfc4>
    6b58:	50000000 	andpl	r0, r0, r0
    6b5c:	000a190c 	andeq	r1, sl, ip, lsl #18
    6b60:	29dc0500 	ldmibcs	ip, {r8, sl}^
    6b64:	54000004 	strpl	r0, [r0], #-4
    6b68:	00025f0c 	andeq	r5, r2, ip, lsl #30
    6b6c:	ffe00500 			; <UNDEFINED> instruction: 0xffe00500
    6b70:	58000000 	stmdapl	r0, {}	; <UNPREDICTABLE>
    6b74:	00031d0c 	andeq	r1, r3, ip, lsl #26
    6b78:	f4e20500 	vld2.16	{d16[0],d17[0]}, [r2], r0
    6b7c:	5c000000 	stcpl	0, cr0, [r0], {-0}
    6b80:	0002650c 	andeq	r6, r2, ip, lsl #10
    6b84:	25e30500 	strbcs	r0, [r3, #1280]!	; 0x500
    6b88:	64000000 	strvs	r0, [r0], #-0
    6b8c:	00251400 	eoreq	r1, r5, r0, lsl #8
    6b90:	04290000 	strteq	r0, [r9], #-0
    6b94:	29150000 	ldmdbcs	r5, {}	; <UNPREDICTABLE>
    6b98:	15000004 	strne	r0, [r0, #-4]
    6b9c:	0000010a 	andeq	r0, r0, sl, lsl #2
    6ba0:	00010c15 	andeq	r0, r1, r5, lsl ip
    6ba4:	00251500 	eoreq	r1, r5, r0, lsl #10
    6ba8:	0e000000 	cdpeq	0, 0, cr0, cr0, cr0, {0}
    6bac:	00043404 	andeq	r3, r4, r4, lsl #8
    6bb0:	04290300 	strteq	r0, [r9], #-768	; 0xfffffd00
    6bb4:	6a160000 	bvs	586bbc <__bss_end__+0x57cc24>
    6bb8:	28000003 	stmdacs	r0, {r0, r1}
    6bbc:	02380504 	eorseq	r0, r8, #4, 10	; 0x1000000
    6bc0:	00000566 	andeq	r0, r0, r6, ror #10
    6bc4:	0002db17 	andeq	sp, r2, r7, lsl fp
    6bc8:	023a0500 	eorseq	r0, sl, #0, 10
    6bcc:	00000025 	andeq	r0, r0, r5, lsr #32
    6bd0:	04841700 	streq	r1, [r4], #1792	; 0x700
    6bd4:	3f050000 	svccc	0x00050000
    6bd8:	00063b02 	andeq	r3, r6, r2, lsl #22
    6bdc:	e4170400 	ldr	r0, [r7], #-1024	; 0xfffffc00
    6be0:	05000001 	streq	r0, [r0, #-1]
    6be4:	063b023f 			; <UNDEFINED> instruction: 0x063b023f
    6be8:	17080000 	strne	r0, [r8, -r0]
    6bec:	000001a3 	andeq	r0, r0, r3, lsr #3
    6bf0:	3b023f05 	blcc	9680c <__bss_end__+0x8c874>
    6bf4:	0c000006 	stceq	0, cr0, [r0], {6}
    6bf8:	00033e17 	andeq	r3, r3, r7, lsl lr
    6bfc:	02410500 	subeq	r0, r1, #0, 10
    6c00:	00000025 	andeq	r0, r0, r5, lsr #32
    6c04:	001a1710 	andseq	r1, sl, r0, lsl r7
    6c08:	42050000 	andmi	r0, r5, #0
    6c0c:	00081d02 	andeq	r1, r8, r2, lsl #26
    6c10:	49171400 	ldmdbmi	r7, {sl, ip}
    6c14:	05000004 	streq	r0, [r0, #-4]
    6c18:	00250244 	eoreq	r0, r5, r4, asr #4
    6c1c:	17300000 	ldrne	r0, [r0, -r0]!
    6c20:	00000348 	andeq	r0, r0, r8, asr #6
    6c24:	8a024505 	bhi	98040 <__bss_end__+0x8e0a8>
    6c28:	34000005 	strcc	r0, [r0], #-5
    6c2c:	00029817 	andeq	r9, r2, r7, lsl r8
    6c30:	02470500 	subeq	r0, r7, #0, 10
    6c34:	00000025 	andeq	r0, r0, r5, lsr #32
    6c38:	03581738 	cmpeq	r8, #56, 14	; 0xe00000
    6c3c:	49050000 	stmdbmi	r5, {}	; <UNPREDICTABLE>
    6c40:	00083802 	andeq	r3, r8, r2, lsl #16
    6c44:	43173c00 	tstmi	r7, #0, 24
    6c48:	05000002 	streq	r0, [r0, #-2]
    6c4c:	017c024c 	cmneq	ip, ip, asr #4
    6c50:	17400000 	strbne	r0, [r0, -r0]
    6c54:	000001c2 	andeq	r0, r0, r2, asr #3
    6c58:	25024d05 	strcs	r4, [r2, #-3333]	; 0xfffff2fb
    6c5c:	44000000 	strmi	r0, [r0], #-0
    6c60:	0004f217 	andeq	pc, r4, r7, lsl r2	; <UNPREDICTABLE>
    6c64:	024e0500 	subeq	r0, lr, #0, 10
    6c68:	0000017c 	andeq	r0, r0, ip, ror r1
    6c6c:	02aa1748 	adceq	r1, sl, #72, 14	; 0x1200000
    6c70:	4f050000 	svcmi	0x00050000
    6c74:	00083e02 	andeq	r3, r8, r2, lsl #28
    6c78:	ec174c00 	ldc	12, cr4, [r7], {-0}
    6c7c:	05000001 	streq	r0, [r0, #-1]
    6c80:	00250252 	eoreq	r0, r5, r2, asr r2
    6c84:	17500000 	ldrbne	r0, [r0, -r0]
    6c88:	00000141 	andeq	r0, r0, r1, asr #2
    6c8c:	0c025305 	stceq	3, cr5, [r2], {5}
    6c90:	54000001 	strpl	r0, [r0], #-1
    6c94:	0002d417 	andeq	sp, r2, r7, lsl r4
    6c98:	02760500 	rsbseq	r0, r6, #0, 10
    6c9c:	000007fb 	strdeq	r0, [r0], -fp
    6ca0:	02901858 	addseq	r1, r0, #88, 16	; 0x580000
    6ca4:	7a050000 	bvc	146cac <__bss_end__+0x13cd14>
    6ca8:	00029902 	andeq	r9, r2, r2, lsl #18
    6cac:	18014800 	stmdane	r1, {fp, lr}
    6cb0:	00000221 	andeq	r0, r0, r1, lsr #4
    6cb4:	5b027b05 	blpl	a58d0 <__bss_end__+0x9b938>
    6cb8:	4c000002 	stcmi	0, cr0, [r0], {2}
    6cbc:	049e1801 	ldreq	r1, [lr], #2049	; 0x801
    6cc0:	7f050000 	svcvc	0x00050000
    6cc4:	00084f02 	andeq	r4, r8, r2, lsl #30
    6cc8:	1802dc00 	stmdane	r2, {sl, fp, ip, lr, pc}
    6ccc:	0000010b 	andeq	r0, r0, fp, lsl #2
    6cd0:	00028405 	andeq	r8, r2, r5, lsl #8
    6cd4:	e0000006 	and	r0, r0, r6
    6cd8:	00f01802 	rscseq	r1, r0, r2, lsl #16
    6cdc:	85050000 	strhi	r0, [r5, #-0]
    6ce0:	00085b02 	andeq	r5, r8, r2, lsl #22
    6ce4:	0002ec00 	andeq	lr, r2, r0, lsl #24
    6ce8:	040b040e 	streq	r0, [fp], #-1038	; 0xfffffbf2
    6cec:	25140000 	ldrcs	r0, [r4, #-0]
    6cf0:	8a000000 	bhi	6cf8 <_start-0x1308>
    6cf4:	15000005 	strne	r0, [r0, #-5]
    6cf8:	00000429 	andeq	r0, r0, r9, lsr #8
    6cfc:	00010a15 	andeq	r0, r1, r5, lsl sl
    6d00:	058a1500 	streq	r1, [sl, #1280]	; 0x500
    6d04:	25150000 	ldrcs	r0, [r5, #-0]
    6d08:	00000000 	andeq	r0, r0, r0
    6d0c:	0119040e 	tsteq	r9, lr, lsl #8
    6d10:	040e0000 	streq	r0, [lr], #-0
    6d14:	0000056c 	andeq	r0, r0, ip, ror #10
    6d18:	00008614 	andeq	r8, r0, r4, lsl r6
    6d1c:	0005b400 	andeq	fp, r5, r0, lsl #8
    6d20:	04291500 	strteq	r1, [r9], #-1280	; 0xfffffb00
    6d24:	0a150000 	beq	546d2c <__bss_end__+0x53cd94>
    6d28:	15000001 	strne	r0, [r0, #-1]
    6d2c:	00000086 	andeq	r0, r0, r6, lsl #1
    6d30:	00002515 	andeq	r2, r0, r5, lsl r5
    6d34:	040e0000 	streq	r0, [lr], #-0
    6d38:	00000596 	muleq	r0, r6, r5
    6d3c:	00002514 	andeq	r2, r0, r4, lsl r5
    6d40:	0005ce00 	andeq	ip, r5, r0, lsl #28
    6d44:	04291500 	strteq	r1, [r9], #-1280	; 0xfffffb00
    6d48:	0a150000 	beq	546d50 <__bss_end__+0x53cdb8>
    6d4c:	00000001 	andeq	r0, r0, r1
    6d50:	05ba040e 	ldreq	r0, [sl, #1038]!	; 0x40e
    6d54:	54090000 	strpl	r0, [r9], #-0
    6d58:	e4000000 	str	r0, [r0], #-0
    6d5c:	0a000005 	beq	6d78 <_start-0x1288>
    6d60:	000000cc 	andeq	r0, r0, ip, asr #1
    6d64:	54090002 	strpl	r0, [r9], #-2
    6d68:	f4000000 	vst4.8	{d0-d3}, [r0], r0
    6d6c:	0a000005 	beq	6d88 <_start-0x1278>
    6d70:	000000cc 	andeq	r0, r0, ip, asr #1
    6d74:	03060000 	movweq	r0, #24576	; 0x6000
    6d78:	05000003 	streq	r0, [r0, #-3]
    6d7c:	02e1011d 	rsceq	r0, r1, #1073741831	; 0x40000007
    6d80:	7e190000 	cdpvc	0, 1, cr0, cr9, cr0, {0}
    6d84:	0c000004 	stceq	0, cr0, [r0], {4}
    6d88:	35012105 	strcc	r2, [r1, #-261]	; 0xfffffefb
    6d8c:	17000006 	strne	r0, [r0, -r6]
    6d90:	0000032b 	andeq	r0, r0, fp, lsr #6
    6d94:	35012305 	strcc	r2, [r1, #-773]	; 0xfffffcfb
    6d98:	00000006 	andeq	r0, r0, r6
    6d9c:	00020717 	andeq	r0, r2, r7, lsl r7
    6da0:	01240500 			; <UNDEFINED> instruction: 0x01240500
    6da4:	00000025 	andeq	r0, r0, r5, lsr #32
    6da8:	02fd1704 	rscseq	r1, sp, #4, 14	; 0x100000
    6dac:	25050000 	strcs	r0, [r5, #-0]
    6db0:	00063b01 	andeq	r3, r6, r1, lsl #22
    6db4:	0e000800 	cdpeq	8, 0, cr0, cr0, cr0, {0}
    6db8:	00060004 	andeq	r0, r6, r4
    6dbc:	f4040e00 			; <UNDEFINED> instruction: 0xf4040e00
    6dc0:	19000005 	stmdbne	r0, {r0, r2}
    6dc4:	00000012 	andeq	r0, r0, r2, lsl r0
    6dc8:	013d050e 	teqeq	sp, lr, lsl #10
    6dcc:	00000676 	andeq	r0, r0, r6, ror r6
    6dd0:	00037117 	andeq	r7, r3, r7, lsl r1
    6dd4:	013e0500 	teqeq	lr, r0, lsl #10
    6dd8:	00000676 	andeq	r0, r0, r6, ror r6
    6ddc:	039e1700 	orrseq	r1, lr, #0, 14
    6de0:	3f050000 	svccc	0x00050000
    6de4:	00067601 	andeq	r7, r6, r1, lsl #12
    6de8:	1c170600 	ldcne	6, cr0, [r7], {-0}
    6dec:	05000004 	streq	r0, [r0, #-4]
    6df0:	005b0140 	subseq	r0, fp, r0, asr #2
    6df4:	000c0000 	andeq	r0, ip, r0
    6df8:	00005b09 	andeq	r5, r0, r9, lsl #22
    6dfc:	00068600 	andeq	r8, r6, r0, lsl #12
    6e00:	00cc0a00 	sbceq	r0, ip, r0, lsl #20
    6e04:	00020000 	andeq	r0, r2, r0
    6e08:	5705d01a 	smladpl	r5, sl, r0, sp
    6e0c:	00078702 	andeq	r8, r7, r2, lsl #14
    6e10:	04621700 	strbteq	r1, [r2], #-1792	; 0xfffff900
    6e14:	59050000 	stmdbpl	r5, {}	; <UNPREDICTABLE>
    6e18:	00003102 	andeq	r3, r0, r2, lsl #2
    6e1c:	06170000 	ldreq	r0, [r7], -r0
    6e20:	05000004 	streq	r0, [r0, #-4]
    6e24:	010c025a 	tsteq	ip, sl, asr r2
    6e28:	17040000 	strne	r0, [r4, -r0]
    6e2c:	00000236 	andeq	r0, r0, r6, lsr r2
    6e30:	87025b05 	strhi	r5, [r2, -r5, lsl #22]
    6e34:	08000007 	stmdaeq	r0, {r0, r1, r2}
    6e38:	0004c917 	andeq	ip, r4, r7, lsl r9
    6e3c:	025c0500 	subseq	r0, ip, #0, 10
    6e40:	00000192 	muleq	r0, r2, r1
    6e44:	01b31724 			; <UNDEFINED> instruction: 0x01b31724
    6e48:	5d050000 	stcpl	0, cr0, [r5, #-0]
    6e4c:	00002502 	andeq	r2, r0, r2, lsl #10
    6e50:	26174800 	ldrcs	r4, [r7], -r0, lsl #16
    6e54:	05000003 	streq	r0, [r0, #-3]
    6e58:	0069025e 	rsbeq	r0, r9, lr, asr r2
    6e5c:	17500000 	ldrbne	r0, [r0, -r0]
    6e60:	000004df 	ldrdeq	r0, [r0], -pc	; <UNPREDICTABLE>
    6e64:	41025f05 	tstmi	r2, r5, lsl #30
    6e68:	58000006 	stmdapl	r0, {r1, r2}
    6e6c:	00033117 	andeq	r3, r3, r7, lsl r1
    6e70:	02600500 	rsbeq	r0, r0, #0, 10
    6e74:	000000f4 	strdeq	r0, [r0], -r4
    6e78:	04e41768 	strbteq	r1, [r4], #1896	; 0x768
    6e7c:	61050000 	mrsvs	r0, (UNDEF: 5)
    6e80:	0000f402 	andeq	pc, r0, r2, lsl #8
    6e84:	84177000 	ldrhi	r7, [r7], #-0
    6e88:	05000000 	streq	r0, [r0, #-0]
    6e8c:	00f40262 	rscseq	r0, r4, r2, ror #4
    6e90:	17780000 	ldrbne	r0, [r8, -r0]!
    6e94:	00000494 	muleq	r0, r4, r4
    6e98:	97026305 	strls	r6, [r2, -r5, lsl #6]
    6e9c:	80000007 	andhi	r0, r0, r7
    6ea0:	00022a17 	andeq	r2, r2, r7, lsl sl
    6ea4:	02640500 	rsbeq	r0, r4, #0, 10
    6ea8:	000007a7 	andeq	r0, r0, r7, lsr #15
    6eac:	04291788 	strteq	r1, [r9], #-1928	; 0xfffff878
    6eb0:	65050000 	strvs	r0, [r5, #-0]
    6eb4:	00002502 	andeq	r2, r0, r2, lsl #10
    6eb8:	7917a000 	ldmdbvc	r7, {sp, pc}
    6ebc:	05000001 	streq	r0, [r0, #-1]
    6ec0:	00f40266 	rscseq	r0, r4, r6, ror #4
    6ec4:	17a40000 	strne	r0, [r4, r0]!
    6ec8:	00000075 	andeq	r0, r0, r5, ror r0
    6ecc:	f4026705 	vst1.8	{d6}, [r2], r5
    6ed0:	ac000000 	stcge	0, cr0, [r0], {-0}
    6ed4:	00016817 	andeq	r6, r1, r7, lsl r8
    6ed8:	02680500 	rsbeq	r0, r8, #0, 10
    6edc:	000000f4 	strdeq	r0, [r0], -r4
    6ee0:	002d17b4 	strhteq	r1, [sp], -r4
    6ee4:	69050000 	stmdbvs	r5, {}	; <UNPREDICTABLE>
    6ee8:	0000f402 	andeq	pc, r0, r2, lsl #8
    6eec:	3c17bc00 	ldccc	12, cr11, [r7], {-0}
    6ef0:	05000000 	streq	r0, [r0, #-0]
    6ef4:	00f4026a 	rscseq	r0, r4, sl, ror #4
    6ef8:	17c40000 	strbne	r0, [r4, r0]
    6efc:	000002d9 	ldrdeq	r0, [r0], -r9
    6f00:	25026b05 	strcs	r6, [r2, #-2821]	; 0xfffff4fb
    6f04:	cc000000 	stcgt	0, cr0, [r0], {-0}
    6f08:	01120900 	tsteq	r2, r0, lsl #18
    6f0c:	07970000 	ldreq	r0, [r7, r0]
    6f10:	cc0a0000 	stcgt	0, cr0, [sl], {-0}
    6f14:	19000000 	stmdbne	r0, {}	; <UNPREDICTABLE>
    6f18:	01120900 	tsteq	r2, r0, lsl #18
    6f1c:	07a70000 	streq	r0, [r7, r0]!
    6f20:	cc0a0000 	stcgt	0, cr0, [sl], {-0}
    6f24:	07000000 	streq	r0, [r0, -r0]
    6f28:	01120900 	tsteq	r2, r0, lsl #18
    6f2c:	07b70000 	ldreq	r0, [r7, r0]!
    6f30:	cc0a0000 	stcgt	0, cr0, [sl], {-0}
    6f34:	17000000 	strne	r0, [r0, -r0]
    6f38:	05f01a00 	ldrbeq	r1, [r0, #2560]!	; 0xa00
    6f3c:	07db0270 			; <UNDEFINED> instruction: 0x07db0270
    6f40:	80170000 	andshi	r0, r7, r0
    6f44:	05000002 	streq	r0, [r0, #-2]
    6f48:	07db0273 			; <UNDEFINED> instruction: 0x07db0273
    6f4c:	17000000 	strne	r0, [r0, -r0]
    6f50:	0000048b 	andeq	r0, r0, fp, lsl #9
    6f54:	eb027405 	bl	a3f70 <__bss_end__+0x99fd8>
    6f58:	78000007 	stmdavc	r0, {r0, r1, r2}
    6f5c:	02db0900 	sbcseq	r0, fp, #0, 18
    6f60:	07eb0000 	strbeq	r0, [fp, r0]!
    6f64:	cc0a0000 	stcgt	0, cr0, [sl], {-0}
    6f68:	1d000000 	stcne	0, cr0, [r0, #-0]
    6f6c:	00310900 	eorseq	r0, r1, r0, lsl #18
    6f70:	07fb0000 	ldrbeq	r0, [fp, r0]!
    6f74:	cc0a0000 	stcgt	0, cr0, [sl], {-0}
    6f78:	1d000000 	stcne	0, cr0, [r0, #-0]
    6f7c:	05f01b00 	ldrbeq	r1, [r0, #2816]!	; 0xb00
    6f80:	081d0255 	ldmdaeq	sp, {r0, r2, r4, r6, r9}
    6f84:	6a1c0000 	bvs	706f8c <__bss_end__+0x6fcff4>
    6f88:	05000003 	streq	r0, [r0, #-3]
    6f8c:	0686026c 	streq	r0, [r6], ip, ror #4
    6f90:	b61c0000 	ldrlt	r0, [ip], -r0
    6f94:	05000004 	streq	r0, [r0, #-4]
    6f98:	07b70275 			; <UNDEFINED> instruction: 0x07b70275
    6f9c:	09000000 	stmdbeq	r0, {}	; <UNPREDICTABLE>
    6fa0:	00000112 	andeq	r0, r0, r2, lsl r1
    6fa4:	0000082d 	andeq	r0, r0, sp, lsr #16
    6fa8:	0000cc0a 	andeq	ip, r0, sl, lsl #24
    6fac:	1d001800 	stcne	8, cr1, [r0, #-0]
    6fb0:	00000838 	andeq	r0, r0, r8, lsr r8
    6fb4:	00042915 	andeq	r2, r4, r5, lsl r9
    6fb8:	040e0000 	streq	r0, [lr], #-0
    6fbc:	0000082d 	andeq	r0, r0, sp, lsr #16
    6fc0:	017c040e 	cmneq	ip, lr, lsl #8
    6fc4:	4f1d0000 	svcmi	0x001d0000
    6fc8:	15000008 	strne	r0, [r0, #-8]
    6fcc:	00000025 	andeq	r0, r0, r5, lsr #32
    6fd0:	55040e00 	strpl	r0, [r4, #-3584]	; 0xfffff200
    6fd4:	0e000008 	cdpeq	0, 0, cr0, cr0, cr8, {0}
    6fd8:	00084404 	andeq	r4, r8, r4, lsl #8
    6fdc:	05f40900 	ldrbeq	r0, [r4, #2304]!	; 0x900
    6fe0:	086b0000 	stmdaeq	fp!, {}^	; <UNPREDICTABLE>
    6fe4:	cc0a0000 	stcgt	0, cr0, [sl], {-0}
    6fe8:	02000000 	andeq	r0, r0, #0
    6fec:	043d1e00 	ldrteq	r1, [sp], #-3584	; 0xfffff200
    6ff0:	fd050000 	stc2	0, cr0, [r5, #-0]
    6ff4:	00042902 	andeq	r2, r4, r2, lsl #18
    6ff8:	04361e00 	ldrteq	r1, [r6], #-3584	; 0xfffff200
    6ffc:	fe050000 	cdp2	0, 0, cr0, cr5, cr0, {0}
    7000:	00042f02 	andeq	r2, r4, r2, lsl #30
    7004:	00251400 	eoreq	r1, r5, r0, lsl #8
    7008:	08920000 	ldmeq	r2, {}	; <UNPREDICTABLE>
    700c:	25150000 	ldrcs	r0, [r5, #-0]
    7010:	00000000 	andeq	r0, r0, r0
    7014:	0001cc1f 	andeq	ip, r1, pc, lsl ip
    7018:	9d1d0600 	ldcls	6, cr0, [sp, #-0]
    701c:	0e000008 	cdpeq	0, 0, cr0, cr0, cr8, {0}
    7020:	00088304 	andeq	r8, r8, r4, lsl #6
    7024:	00251400 	eoreq	r1, r5, r0, lsl #8
    7028:	08b20000 	ldmeq	r2!, {}	; <UNPREDICTABLE>
    702c:	8a150000 	bhi	547034 <__bss_end__+0x53d09c>
    7030:	00000005 	andeq	r0, r0, r5
    7034:	0007691f 	andeq	r6, r7, pc, lsl r9
    7038:	bd220600 	stclt	6, cr0, [r2, #-0]
    703c:	0e000008 	cdpeq	0, 0, cr0, cr0, cr8, {0}
    7040:	0008a304 	andeq	sl, r8, r4, lsl #6
    7044:	087c2000 	ldmdaeq	ip!, {sp}^
    7048:	0d010000 	stceq	0, cr0, [r1, #-0]
    704c:	00000031 	andeq	r0, r0, r1, lsr r0
    7050:	00084c21 	andeq	r4, r8, r1, lsr #24
    7054:	781f0100 	ldmdavc	pc, {r8}	; <UNPREDICTABLE>
    7058:	4c000090 	stcmi	0, cr0, [r0], {144}	; 0x90
    705c:	01000000 	mrseq	r0, (UNDEF: 0)
    7060:	0009859c 	muleq	r9, ip, r5
    7064:	08032200 	stmdaeq	r3, {r9, sp}
    7068:	2a010000 	bcs	47070 <__bss_end__+0x3d0d8>
    706c:	0000002c 	andeq	r0, r0, ip, lsr #32
    7070:	00000fc5 	andeq	r0, r0, r5, asr #31
    7074:	00082a22 	andeq	r2, r8, r2, lsr #20
    7078:	2c2b0100 	stfcss	f0, [fp], #-0
    707c:	dd000000 	stcle	0, cr0, [r0, #-0]
    7080:	2200000f 	andcs	r0, r0, #15
    7084:	00000837 	andeq	r0, r0, r7, lsr r8
    7088:	002c2c01 	eoreq	r2, ip, r1, lsl #24
    708c:	0ff50000 	svceq	0x00f50000
    7090:	11220000 			; <UNDEFINED> instruction: 0x11220000
    7094:	01000008 	tsteq	r0, r8
    7098:	00002c2d 	andeq	r2, r0, sp, lsr #24
    709c:	00100c00 	andseq	r0, r0, r0, lsl #24
    70a0:	90802300 	addls	r2, r0, r0, lsl #6
    70a4:	09aa0000 	stmibeq	sl!, {}	; <UNPREDICTABLE>
    70a8:	90240000 	eorls	r0, r4, r0
    70ac:	d3000090 	movwle	r0, #144	; 0x90
    70b0:	3b000009 	blcc	70dc <_start-0xf24>
    70b4:	25000009 	strcs	r0, [r0, #-9]
    70b8:	4e015001 	cdpmi	0, 0, cr5, cr1, cr1, {0}
    70bc:	909c2400 	addsls	r2, ip, r0, lsl #8
    70c0:	09de0000 	ldmibeq	lr, {}^	; <UNPREDICTABLE>
    70c4:	095b0000 	ldmdbeq	fp, {}^	; <UNPREDICTABLE>
    70c8:	01250000 			; <UNDEFINED> instruction: 0x01250000
    70cc:	240c0550 	strcs	r0, [ip], #-1360	; 0xfffffab0
    70d0:	25201000 	strcs	r1, [r0, #-0]!
    70d4:	0c055101 	stfeqs	f5, [r5], {1}
    70d8:	5a000001 	bpl	70e4 <_start-0xf1c>
    70dc:	90a82400 	adcls	r2, r8, r0, lsl #8
    70e0:	09de0000 	ldmibeq	lr, {}^	; <UNPREDICTABLE>
    70e4:	097b0000 	ldmdbeq	fp!, {}^	; <UNPREDICTABLE>
    70e8:	01250000 			; <UNDEFINED> instruction: 0x01250000
    70ec:	1c0c0550 	cfstr32ne	mvfx0, [ip], {80}	; 0x50
    70f0:	25201000 	strcs	r1, [r0, #-0]!
    70f4:	0c055101 	stfeqs	f5, [r5], {1}
    70f8:	5a000020 	bpl	7180 <_start-0xe80>
    70fc:	90b02300 	adcsls	r2, r0, r0, lsl #6
    7100:	09850000 	stmibeq	r5, {}	; <UNPREDICTABLE>
    7104:	26000000 	strcs	r0, [r0], -r0
    7108:	0000086a 	andeq	r0, r0, sl, ror #16
    710c:	90641701 	rsbls	r1, r4, r1, lsl #14
    7110:	00140000 	andseq	r0, r4, r0
    7114:	9c010000 	stcls	0, cr0, [r1], {-0}
    7118:	000009aa 	andeq	r0, r0, sl, lsr #19
    711c:	00083222 	andeq	r3, r8, r2, lsr #4
    7120:	31180100 	tstcc	r8, r0, lsl #2
    7124:	21000000 	mrscs	r0, (UNDEF: 0)
    7128:	00000010 	andeq	r0, r0, r0, lsl r0
    712c:	00087927 	andeq	r7, r8, r7, lsr #18
    7130:	250e0100 	strcs	r0, [lr, #-256]	; 0xffffff00
    7134:	4c000000 	stcmi	0, cr0, [r0], {-0}
    7138:	18000090 	stmdane	r0, {r4, r7}
    713c:	01000000 	mrseq	r0, (UNDEF: 0)
    7140:	0009d39c 	muleq	r9, ip, r3
    7144:	08322200 	ldmdaeq	r2!, {r9, sp}
    7148:	0f010000 	svceq	0x00010000
    714c:	00000031 	andeq	r0, r0, r1, lsr r0
    7150:	0000104b 	andeq	r1, r0, fp, asr #32
    7154:	08432800 	stmdaeq	r3, {fp, sp}^
    7158:	08430000 	stmdaeq	r3, {}^	; <UNPREDICTABLE>
    715c:	4f060000 	svcmi	0x00060000
    7160:	00080b28 	andeq	r0, r8, r8, lsr #22
    7164:	00080b00 	andeq	r0, r8, r0, lsl #22
    7168:	009b0600 	addseq	r0, fp, r0, lsl #12
    716c:	00000917 	andeq	r0, r0, r7, lsl r9
    7170:	15940004 	ldrne	r0, [r4, #4]
    7174:	01040000 	mrseq	r0, (UNDEF: 4)
    7178:	000003a4 	andeq	r0, r0, r4, lsr #7
    717c:	0008870c 	andeq	r8, r8, ip, lsl #14
    7180:	0006de00 	andeq	sp, r6, r0, lsl #28
    7184:	0090c400 	addseq	ip, r0, r0, lsl #8
    7188:	00002800 	andeq	r2, r0, r0, lsl #16
    718c:	000bd300 	andeq	sp, fp, r0, lsl #6
    7190:	05040200 	streq	r0, [r4, #-512]	; 0xfffffe00
    7194:	00746e69 	rsbseq	r6, r4, r9, ror #28
    7198:	57070403 	strpl	r0, [r7, -r3, lsl #8]
    719c:	03000000 	movweq	r0, #0
    71a0:	02c80601 	sbceq	r0, r8, #1048576	; 0x100000
    71a4:	02030000 	andeq	r0, r3, #0
    71a8:	0002e205 	andeq	lr, r2, r5, lsl #4
    71ac:	05040300 	streq	r0, [r4, #-768]	; 0xfffffd00
    71b0:	000000a0 	andeq	r0, r0, r0, lsr #1
    71b4:	9b050803 	blls	1491c8 <__bss_end__+0x13f230>
    71b8:	03000000 	movweq	r0, #0
    71bc:	02c60801 	sbceq	r0, r6, #65536	; 0x10000
    71c0:	02030000 	andeq	r0, r3, #0
    71c4:	00020e07 	andeq	r0, r2, r7, lsl #28
    71c8:	07040300 	streq	r0, [r4, -r0, lsl #6]
    71cc:	00000052 	andeq	r0, r0, r2, asr r0
    71d0:	4d070803 	stcmi	8, cr0, [r7, #-12]
    71d4:	04000000 	streq	r0, [r0], #-0
    71d8:	000002b4 			; <UNDEFINED> instruction: 0x000002b4
    71dc:	00250702 	eoreq	r0, r5, r2, lsl #14
    71e0:	a3040000 	movwge	r0, #16384	; 0x4000
    71e4:	03000002 	movweq	r0, #2
    71e8:	0000412c 	andeq	r4, r0, ip, lsr #2
    71ec:	038d0400 	orreq	r0, sp, #0, 8
    71f0:	72030000 	andvc	r0, r3, #0
    71f4:	00000041 	andeq	r0, r0, r1, asr #32
    71f8:	00025105 	andeq	r5, r2, r5, lsl #2
    71fc:	01650400 	cmneq	r5, r0, lsl #8
    7200:	0000002c 	andeq	r0, r0, ip, lsr #32
    7204:	a6030406 	strge	r0, [r3], -r6, lsl #8
    7208:	000000b7 	strheq	r0, [r0], -r7
    720c:	00024b07 	andeq	r4, r2, r7, lsl #22
    7210:	8ca80300 	stchi	3, cr0, [r8]
    7214:	07000000 	streq	r0, [r0, -r0]
    7218:	000001dd 	ldrdeq	r0, [r0], -sp
    721c:	00b7a903 	adcseq	sl, r7, r3, lsl #18
    7220:	08000000 	stmdaeq	r0, {}	; <UNPREDICTABLE>
    7224:	0000004f 	andeq	r0, r0, pc, asr #32
    7228:	000000c7 	andeq	r0, r0, r7, asr #1
    722c:	0000c709 	andeq	ip, r0, r9, lsl #14
    7230:	03000300 	movweq	r0, #768	; 0x300
    7234:	02770704 	rsbseq	r0, r7, #4, 14	; 0x100000
    7238:	080a0000 	stmdaeq	sl, {}	; <UNPREDICTABLE>
    723c:	00efa303 	rsceq	sl, pc, r3, lsl #6
    7240:	770b0000 	strvc	r0, [fp, -r0]
    7244:	03000003 	movweq	r0, #3
    7248:	000025a5 	andeq	r2, r0, r5, lsr #11
    724c:	7f0b0000 	svcvc	0x000b0000
    7250:	03000003 	movweq	r0, #3
    7254:	000098aa 	andeq	r9, r0, sl, lsr #17
    7258:	04000400 	streq	r0, [r0], #-1024	; 0xfffffc00
    725c:	0000030a 	andeq	r0, r0, sl, lsl #6
    7260:	00ceab03 	sbceq	sl, lr, r3, lsl #22
    7264:	9a040000 	bls	10726c <__bss_end__+0xfd2d4>
    7268:	03000001 	movweq	r0, #1
    726c:	00006baf 	andeq	r6, r0, pc, lsr #23
    7270:	0d040c00 	stceq	12, cr0, [r4, #-0]
    7274:	00010d04 	andeq	r0, r1, r4, lsl #26
    7278:	08010300 	stmdaeq	r1, {r8, r9}
    727c:	000002cf 	andeq	r0, r0, pc, asr #5
    7280:	00010d0e 	andeq	r0, r1, lr, lsl #26
    7284:	04210400 	strteq	r0, [r1], #-1024	; 0xfffffc00
    7288:	16050000 	strne	r0, [r5], -r0
    728c:	0000005d 	andeq	r0, r0, sp, asr r0
    7290:	0001ab0f 	andeq	sl, r1, pc, lsl #22
    7294:	2d051800 	stccs	8, cr1, [r5, #-0]
    7298:	00000177 	andeq	r0, r0, r7, ror r1
    729c:	00032b0b 	andeq	r2, r3, fp, lsl #22
    72a0:	772f0500 	strvc	r0, [pc, -r0, lsl #10]!
    72a4:	00000001 	andeq	r0, r0, r1
    72a8:	006b5f10 	rsbeq	r5, fp, r0, lsl pc
    72ac:	00253005 	eoreq	r3, r5, r5
    72b0:	0b040000 	bleq	1072b8 <__bss_end__+0xfd320>
    72b4:	00000362 	andeq	r0, r0, r2, ror #6
    72b8:	00253005 	eoreq	r3, r5, r5
    72bc:	0b080000 	bleq	2072c4 <__bss_end__+0x1fd32c>
    72c0:	00000194 	muleq	r0, r4, r1
    72c4:	00253005 	eoreq	r3, r5, r5
    72c8:	0b0c0000 	bleq	3072d0 <__bss_end__+0x2fd338>
    72cc:	0000046f 	andeq	r0, r0, pc, ror #8
    72d0:	00253005 	eoreq	r3, r5, r5
    72d4:	10100000 	andsne	r0, r0, r0
    72d8:	0500785f 	streq	r7, [r0, #-2143]	; 0xfffff7a1
    72dc:	00017d31 	andeq	r7, r1, r1, lsr sp
    72e0:	0d001400 	cfstrseq	mvf1, [r0, #-0]
    72e4:	00012404 	andeq	r2, r1, r4, lsl #8
    72e8:	01190800 	tsteq	r9, r0, lsl #16
    72ec:	018d0000 	orreq	r0, sp, r0
    72f0:	c7090000 	strgt	r0, [r9, -r0]
    72f4:	00000000 	andeq	r0, r0, r0
    72f8:	01d80f00 	bicseq	r0, r8, r0, lsl #30
    72fc:	05240000 	streq	r0, [r4, #-0]!
    7300:	00020635 	andeq	r0, r2, r5, lsr r6
    7304:	00920b00 	addseq	r0, r2, r0, lsl #22
    7308:	37050000 	strcc	r0, [r5, -r0]
    730c:	00000025 	andeq	r0, r0, r5, lsr #32
    7310:	03950b00 	orrseq	r0, r5, #0, 22
    7314:	38050000 	stmdacc	r5, {}	; <UNPREDICTABLE>
    7318:	00000025 	andeq	r0, r0, r5, lsr #32
    731c:	00b50b04 	adcseq	r0, r5, r4, lsl #22
    7320:	39050000 	stmdbcc	r5, {}	; <UNPREDICTABLE>
    7324:	00000025 	andeq	r0, r0, r5, lsr #32
    7328:	04f70b08 	ldrbteq	r0, [r7], #2824	; 0xb08
    732c:	3a050000 	bcc	147334 <__bss_end__+0x13d39c>
    7330:	00000025 	andeq	r0, r0, r5, lsr #32
    7334:	02870b0c 	addeq	r0, r7, #12, 22	; 0x3000
    7338:	3b050000 	blcc	147340 <__bss_end__+0x13d3a8>
    733c:	00000025 	andeq	r0, r0, r5, lsr #32
    7340:	026d0b10 	rsbeq	r0, sp, #16, 22	; 0x4000
    7344:	3c050000 	stccc	0, cr0, [r5], {-0}
    7348:	00000025 	andeq	r0, r0, r5, lsr #32
    734c:	04740b14 	ldrbteq	r0, [r4], #-2836	; 0xfffff4ec
    7350:	3d050000 	stccc	0, cr0, [r5, #-0]
    7354:	00000025 	andeq	r0, r0, r5, lsr #32
    7358:	02ec0b18 	rsceq	r0, ip, #24, 22	; 0x6000
    735c:	3e050000 	cdpcc	0, 0, cr0, cr5, cr0, {0}
    7360:	00000025 	andeq	r0, r0, r5, lsr #32
    7364:	04be0b1c 	ldrteq	r0, [lr], #2844	; 0xb1c
    7368:	3f050000 	svccc	0x00050000
    736c:	00000025 	andeq	r0, r0, r5, lsr #32
    7370:	f5110020 			; <UNDEFINED> instruction: 0xf5110020
    7374:	08000000 	stmdaeq	r0, {}	; <UNPREDICTABLE>
    7378:	46480501 	strbmi	r0, [r8], -r1, lsl #10
    737c:	0b000002 	bleq	738c <_start-0xc74>
    7380:	00000187 	andeq	r0, r0, r7, lsl #3
    7384:	02464905 	subeq	r4, r6, #81920	; 0x14000
    7388:	0b000000 	bleq	7390 <_start-0xc70>
    738c:	00000000 	andeq	r0, r0, r0
    7390:	02464a05 	subeq	r4, r6, #20480	; 0x5000
    7394:	12800000 	addne	r0, r0, #0
    7398:	00000413 	andeq	r0, r0, r3, lsl r4
    739c:	01194c05 	tsteq	r9, r5, lsl #24
    73a0:	01000000 	mrseq	r0, (UNDEF: 0)
    73a4:	00011a12 	andeq	r1, r1, r2, lsl sl
    73a8:	194f0500 	stmdbne	pc, {r8, sl}^	; <UNPREDICTABLE>
    73ac:	04000001 	streq	r0, [r0], #-1
    73b0:	05080001 	streq	r0, [r8, #-1]
    73b4:	56000001 	strpl	r0, [r0], -r1
    73b8:	09000002 	stmdbeq	r0, {r1}
    73bc:	000000c7 	andeq	r0, r0, r7, asr #1
    73c0:	9011001f 	andsls	r0, r1, pc, lsl r0
    73c4:	90000002 	andls	r0, r0, r2
    73c8:	945b0501 	ldrbls	r0, [fp], #-1281	; 0xfffffaff
    73cc:	0b000002 	bleq	73dc <_start-0xc24>
    73d0:	0000032b 	andeq	r0, r0, fp, lsr #6
    73d4:	02945c05 	addseq	r5, r4, #1280	; 0x500
    73d8:	0b000000 	bleq	73e0 <_start-0xc20>
    73dc:	00000343 	andeq	r0, r0, r3, asr #6
    73e0:	00255d05 	eoreq	r5, r5, r5, lsl #26
    73e4:	0b040000 	bleq	1073ec <__bss_end__+0xfd454>
    73e8:	0000018f 	andeq	r0, r0, pc, lsl #3
    73ec:	029a5f05 	addseq	r5, sl, #5, 30
    73f0:	0b080000 	bleq	2073f8 <__bss_end__+0x1fd460>
    73f4:	000000f5 	strdeq	r0, [r0], -r5
    73f8:	02066005 	andeq	r6, r6, #5
    73fc:	00880000 	addeq	r0, r8, r0
    7400:	0256040d 	subseq	r0, r6, #218103808	; 0xd000000
    7404:	aa080000 	bge	20740c <__bss_end__+0x1fd474>
    7408:	aa000002 	bge	7418 <_start-0xbe8>
    740c:	09000002 	stmdbeq	r0, {r1}
    7410:	000000c7 	andeq	r0, r0, r7, asr #1
    7414:	040d001f 	streq	r0, [sp], #-31	; 0xffffffe1
    7418:	000002b0 			; <UNDEFINED> instruction: 0x000002b0
    741c:	02f60f13 	rscseq	r0, r6, #19, 30	; 0x4c
    7420:	05080000 	streq	r0, [r8, #-0]
    7424:	0002d673 	andeq	sp, r2, r3, ror r6
    7428:	00af0b00 	adceq	r0, pc, r0, lsl #22
    742c:	74050000 	strvc	r0, [r5], #-0
    7430:	000002d6 	ldrdeq	r0, [r0], -r6
    7434:	000c0b00 	andeq	r0, ip, r0, lsl #22
    7438:	75050000 	strvc	r0, [r5, #-0]
    743c:	00000025 	andeq	r0, r0, r5, lsr #32
    7440:	040d0004 	streq	r0, [sp], #-4
    7444:	0000004f 	andeq	r0, r0, pc, asr #32
    7448:	0003150f 	andeq	r1, r3, pc, lsl #10
    744c:	b3056800 	movwlt	r6, #22528	; 0x5800
    7450:	00000406 	andeq	r0, r0, r6, lsl #8
    7454:	00705f10 	rsbseq	r5, r0, r0, lsl pc
    7458:	02d6b405 	sbcseq	fp, r6, #83886080	; 0x5000000
    745c:	10000000 	andne	r0, r0, r0
    7460:	0500725f 	streq	r7, [r0, #-607]	; 0xfffffda1
    7464:	000025b5 			; <UNDEFINED> instruction: 0x000025b5
    7468:	5f100400 	svcpl	0x00100400
    746c:	b6050077 			; <UNDEFINED> instruction: 0xb6050077
    7470:	00000025 	andeq	r0, r0, r5, lsr #32
    7474:	01130b08 	tsteq	r3, r8, lsl #22
    7478:	b7050000 	strlt	r0, [r5, -r0]
    747c:	0000003a 	andeq	r0, r0, sl, lsr r0
    7480:	01f40b0c 	mvnseq	r0, ip, lsl #22
    7484:	b8050000 	stmdalt	r5, {}	; <UNPREDICTABLE>
    7488:	0000003a 	andeq	r0, r0, sl, lsr r0
    748c:	625f100e 	subsvs	r1, pc, #14
    7490:	b9050066 	stmdblt	r5, {r1, r2, r5, r6}
    7494:	000002b1 			; <UNDEFINED> instruction: 0x000002b1
    7498:	006c0b10 	rsbeq	r0, ip, r0, lsl fp
    749c:	ba050000 	blt	1474a4 <__bss_end__+0x13d50c>
    74a0:	00000025 	andeq	r0, r0, r5, lsr #32
    74a4:	01030b18 	tsteq	r3, r8, lsl fp
    74a8:	c1050000 	mrsgt	r0, (UNDEF: 5)
    74ac:	00000105 	andeq	r0, r0, r5, lsl #2
    74b0:	0a780b1c 	beq	1e0a128 <__bss_end__+0x1e00190>
    74b4:	c3050000 	movwgt	r0, #20480	; 0x5000
    74b8:	00000561 	andeq	r0, r0, r1, ror #10
    74bc:	060c0b20 	streq	r0, [ip], -r0, lsr #22
    74c0:	c5050000 	strgt	r0, [r5, #-0]
    74c4:	0000058b 	andeq	r0, r0, fp, lsl #11
    74c8:	03870b24 	orreq	r0, r7, #36, 22	; 0x9000
    74cc:	c8050000 	stmdagt	r5, {}	; <UNPREDICTABLE>
    74d0:	000005af 	andeq	r0, r0, pc, lsr #11
    74d4:	04d80b28 	ldrbeq	r0, [r8], #2856	; 0xb28
    74d8:	c9050000 	stmdbgt	r5, {}	; <UNPREDICTABLE>
    74dc:	000005c9 	andeq	r0, r0, r9, asr #11
    74e0:	755f102c 	ldrbvc	r1, [pc, #-44]	; 74bc <_start-0xb44>
    74e4:	cc050062 	stcgt	0, cr0, [r5], {98}	; 0x62
    74e8:	000002b1 			; <UNDEFINED> instruction: 0x000002b1
    74ec:	755f1030 	ldrbvc	r1, [pc, #-48]	; 74c4 <_start-0xb3c>
    74f0:	cd050070 	stcgt	0, cr0, [r5, #-448]	; 0xfffffe40
    74f4:	000002d6 	ldrdeq	r0, [r0], -r6
    74f8:	755f1038 	ldrbvc	r1, [pc, #-56]	; 74c8 <_start-0xb38>
    74fc:	ce050072 	mcrgt	0, 0, r0, cr5, cr2, {3}
    7500:	00000025 	andeq	r0, r0, r5, lsr #32
    7504:	00a90b3c 	adceq	r0, r9, ip, lsr fp
    7508:	d1050000 	mrsle	r0, (UNDEF: 5)
    750c:	000005cf 	andeq	r0, r0, pc, asr #11
    7510:	04b00b40 	ldrteq	r0, [r0], #2880	; 0xb40
    7514:	d2050000 	andle	r0, r5, #0
    7518:	000005df 	ldrdeq	r0, [r0], -pc	; <UNPREDICTABLE>
    751c:	6c5f1043 	mrrcvs	0, 4, r1, pc, cr3	; <UNPREDICTABLE>
    7520:	d5050062 	strle	r0, [r5, #-98]	; 0xffffff9e
    7524:	000002b1 			; <UNDEFINED> instruction: 0x000002b1
    7528:	01380b44 	teqeq	r8, r4, asr #22
    752c:	d8050000 	stmdale	r5, {}	; <UNPREDICTABLE>
    7530:	00000025 	andeq	r0, r0, r5, lsr #32
    7534:	01490b4c 	cmpeq	r9, ip, asr #22
    7538:	d9050000 	stmdble	r5, {}	; <UNPREDICTABLE>
    753c:	00000076 	andeq	r0, r0, r6, ror r0
    7540:	0a190b50 	beq	64a288 <__bss_end__+0x6402f0>
    7544:	dc050000 	stcle	0, cr0, [r5], {-0}
    7548:	00000424 	andeq	r0, r0, r4, lsr #8
    754c:	025f0b54 	subseq	r0, pc, #84, 22	; 0x15000
    7550:	e0050000 	and	r0, r5, r0
    7554:	000000fa 	strdeq	r0, [r0], -sl
    7558:	031d0b58 	tsteq	sp, #88, 22	; 0x16000
    755c:	e2050000 	and	r0, r5, #0
    7560:	000000ef 	andeq	r0, r0, pc, ror #1
    7564:	02650b5c 	rsbeq	r0, r5, #92, 22	; 0x17000
    7568:	e3050000 	movw	r0, #20480	; 0x5000
    756c:	00000025 	andeq	r0, r0, r5, lsr #32
    7570:	25140064 	ldrcs	r0, [r4, #-100]	; 0xffffff9c
    7574:	24000000 	strcs	r0, [r0], #-0
    7578:	15000004 	strne	r0, [r0, #-4]
    757c:	00000424 	andeq	r0, r0, r4, lsr #8
    7580:	00010515 	andeq	r0, r1, r5, lsl r5
    7584:	01071500 	tsteq	r7, r0, lsl #10
    7588:	25150000 	ldrcs	r0, [r5, #-0]
    758c:	00000000 	andeq	r0, r0, r0
    7590:	042f040d 	strteq	r0, [pc], #-1037	; 7598 <_start-0xa68>
    7594:	240e0000 	strcs	r0, [lr], #-0
    7598:	16000004 	strne	r0, [r0], -r4
    759c:	0000036a 	andeq	r0, r0, sl, ror #6
    75a0:	38050428 	stmdacc	r5, {r3, r5, sl}
    75a4:	00056102 	andeq	r6, r5, r2, lsl #2
    75a8:	02db1700 	sbcseq	r1, fp, #0, 14
    75ac:	3a050000 	bcc	1475b4 <__bss_end__+0x13d61c>
    75b0:	00002502 	andeq	r2, r0, r2, lsl #10
    75b4:	84170000 	ldrhi	r0, [r7], #-0
    75b8:	05000004 	streq	r0, [r0, #-4]
    75bc:	0636023f 			; <UNDEFINED> instruction: 0x0636023f
    75c0:	17040000 	strne	r0, [r4, -r0]
    75c4:	000001e4 	andeq	r0, r0, r4, ror #3
    75c8:	36023f05 	strcc	r3, [r2], -r5, lsl #30
    75cc:	08000006 	stmdaeq	r0, {r1, r2}
    75d0:	0001a317 	andeq	sl, r1, r7, lsl r3
    75d4:	023f0500 	eorseq	r0, pc, #0, 10
    75d8:	00000636 	andeq	r0, r0, r6, lsr r6
    75dc:	033e170c 	teqeq	lr, #12, 14	; 0x300000
    75e0:	41050000 	mrsmi	r0, (UNDEF: 5)
    75e4:	00002502 	andeq	r2, r0, r2, lsl #10
    75e8:	1a171000 	bne	5cb5f0 <__bss_end__+0x5c1658>
    75ec:	05000000 	streq	r0, [r0, #-0]
    75f0:	08180242 	ldmdaeq	r8, {r1, r6, r9}
    75f4:	17140000 	ldrne	r0, [r4, -r0]
    75f8:	00000449 	andeq	r0, r0, r9, asr #8
    75fc:	25024405 	strcs	r4, [r2, #-1029]	; 0xfffffbfb
    7600:	30000000 	andcc	r0, r0, r0
    7604:	00034817 	andeq	r4, r3, r7, lsl r8
    7608:	02450500 	subeq	r0, r5, #0, 10
    760c:	00000585 	andeq	r0, r0, r5, lsl #11
    7610:	02981734 	addseq	r1, r8, #52, 14	; 0xd00000
    7614:	47050000 	strmi	r0, [r5, -r0]
    7618:	00002502 	andeq	r2, r0, r2, lsl #10
    761c:	58173800 	ldmdapl	r7, {fp, ip, sp}
    7620:	05000003 	streq	r0, [r0, #-3]
    7624:	08330249 	ldmdaeq	r3!, {r0, r3, r6, r9}
    7628:	173c0000 	ldrne	r0, [ip, -r0]!
    762c:	00000243 	andeq	r0, r0, r3, asr #4
    7630:	77024c05 	strvc	r4, [r2, -r5, lsl #24]
    7634:	40000001 	andmi	r0, r0, r1
    7638:	0001c217 	andeq	ip, r1, r7, lsl r2
    763c:	024d0500 	subeq	r0, sp, #0, 10
    7640:	00000025 	andeq	r0, r0, r5, lsr #32
    7644:	04f21744 	ldrbteq	r1, [r2], #1860	; 0x744
    7648:	4e050000 	cdpmi	0, 0, cr0, cr5, cr0, {0}
    764c:	00017702 	andeq	r7, r1, r2, lsl #14
    7650:	aa174800 	bge	5d9658 <__bss_end__+0x5cf6c0>
    7654:	05000002 	streq	r0, [r0, #-2]
    7658:	0839024f 	ldmdaeq	r9!, {r0, r1, r2, r3, r6, r9}
    765c:	174c0000 	strbne	r0, [ip, -r0]
    7660:	000001ec 	andeq	r0, r0, ip, ror #3
    7664:	25025205 	strcs	r5, [r2, #-517]	; 0xfffffdfb
    7668:	50000000 	andpl	r0, r0, r0
    766c:	00014117 	andeq	r4, r1, r7, lsl r1
    7670:	02530500 	subseq	r0, r3, #0, 10
    7674:	00000107 	andeq	r0, r0, r7, lsl #2
    7678:	02d41754 	sbcseq	r1, r4, #84, 14	; 0x1500000
    767c:	76050000 	strvc	r0, [r5], -r0
    7680:	0007f602 	andeq	pc, r7, r2, lsl #12
    7684:	90185800 	andsls	r5, r8, r0, lsl #16
    7688:	05000002 	streq	r0, [r0, #-2]
    768c:	0294027a 	addseq	r0, r4, #-1610612729	; 0xa0000007
    7690:	01480000 	mrseq	r0, (UNDEF: 72)
    7694:	00022118 	andeq	r2, r2, r8, lsl r1
    7698:	027b0500 	rsbseq	r0, fp, #0, 10
    769c:	00000256 	andeq	r0, r0, r6, asr r2
    76a0:	9e18014c 	muflsem	f0, f0, #4.0
    76a4:	05000004 	streq	r0, [r0, #-4]
    76a8:	084a027f 	stmdaeq	sl, {r0, r1, r2, r3, r4, r5, r6, r9}^
    76ac:	02dc0000 	sbcseq	r0, ip, #0
    76b0:	00010b18 	andeq	r0, r1, r8, lsl fp
    76b4:	02840500 	addeq	r0, r4, #0, 10
    76b8:	000005fb 	strdeq	r0, [r0], -fp
    76bc:	f01802e0 			; <UNDEFINED> instruction: 0xf01802e0
    76c0:	05000000 	streq	r0, [r0, #-0]
    76c4:	08560285 	ldmdaeq	r6, {r0, r2, r7, r9}^
    76c8:	02ec0000 	rsceq	r0, ip, #0
    76cc:	06040d00 	streq	r0, [r4], -r0, lsl #26
    76d0:	14000004 	strne	r0, [r0], #-4
    76d4:	00000025 	andeq	r0, r0, r5, lsr #32
    76d8:	00000585 	andeq	r0, r0, r5, lsl #11
    76dc:	00042415 	andeq	r2, r4, r5, lsl r4
    76e0:	01051500 	tsteq	r5, r0, lsl #10
    76e4:	85150000 	ldrhi	r0, [r5, #-0]
    76e8:	15000005 	strne	r0, [r0, #-5]
    76ec:	00000025 	andeq	r0, r0, r5, lsr #32
    76f0:	14040d00 	strne	r0, [r4], #-3328	; 0xfffff300
    76f4:	0d000001 	stceq	0, cr0, [r0, #-4]
    76f8:	00056704 	andeq	r6, r5, r4, lsl #14
    76fc:	00811400 	addeq	r1, r1, r0, lsl #8
    7700:	05af0000 	streq	r0, [pc, #0]!	; 7708 <_start-0x8f8>
    7704:	24150000 	ldrcs	r0, [r5], #-0
    7708:	15000004 	strne	r0, [r0, #-4]
    770c:	00000105 	andeq	r0, r0, r5, lsl #2
    7710:	00008115 	andeq	r8, r0, r5, lsl r1
    7714:	00251500 	eoreq	r1, r5, r0, lsl #10
    7718:	0d000000 	stceq	0, cr0, [r0, #-0]
    771c:	00059104 	andeq	r9, r5, r4, lsl #2
    7720:	00251400 	eoreq	r1, r5, r0, lsl #8
    7724:	05c90000 	strbeq	r0, [r9]
    7728:	24150000 	ldrcs	r0, [r5], #-0
    772c:	15000004 	strne	r0, [r0, #-4]
    7730:	00000105 	andeq	r0, r0, r5, lsl #2
    7734:	b5040d00 	strlt	r0, [r4, #-3328]	; 0xfffff300
    7738:	08000005 	stmdaeq	r0, {r0, r2}
    773c:	0000004f 	andeq	r0, r0, pc, asr #32
    7740:	000005df 	ldrdeq	r0, [r0], -pc	; <UNPREDICTABLE>
    7744:	0000c709 	andeq	ip, r0, r9, lsl #14
    7748:	08000200 	stmdaeq	r0, {r9}
    774c:	0000004f 	andeq	r0, r0, pc, asr #32
    7750:	000005ef 	andeq	r0, r0, pc, ror #11
    7754:	0000c709 	andeq	ip, r0, r9, lsl #14
    7758:	05000000 	streq	r0, [r0, #-0]
    775c:	00000303 	andeq	r0, r0, r3, lsl #6
    7760:	dc011d05 	stcle	13, cr1, [r1], {5}
    7764:	19000002 	stmdbne	r0, {r1}
    7768:	0000047e 	andeq	r0, r0, lr, ror r4
    776c:	0121050c 			; <UNDEFINED> instruction: 0x0121050c
    7770:	00000630 	andeq	r0, r0, r0, lsr r6
    7774:	00032b17 	andeq	r2, r3, r7, lsl fp
    7778:	01230500 			; <UNDEFINED> instruction: 0x01230500
    777c:	00000630 	andeq	r0, r0, r0, lsr r6
    7780:	02071700 	andeq	r1, r7, #0, 14
    7784:	24050000 	strcs	r0, [r5], #-0
    7788:	00002501 	andeq	r2, r0, r1, lsl #10
    778c:	fd170400 	ldc2	4, cr0, [r7, #-0]
    7790:	05000002 	streq	r0, [r0, #-2]
    7794:	06360125 	ldrteq	r0, [r6], -r5, lsr #2
    7798:	00080000 	andeq	r0, r8, r0
    779c:	05fb040d 	ldrbeq	r0, [fp, #1037]!	; 0x40d
    77a0:	040d0000 	streq	r0, [sp], #-0
    77a4:	000005ef 	andeq	r0, r0, pc, ror #11
    77a8:	00001219 	andeq	r1, r0, r9, lsl r2
    77ac:	3d050e00 	stccc	14, cr0, [r5, #-0]
    77b0:	00067101 	andeq	r7, r6, r1, lsl #2
    77b4:	03711700 	cmneq	r1, #0, 14
    77b8:	3e050000 	cdpcc	0, 0, cr0, cr5, cr0, {0}
    77bc:	00067101 	andeq	r7, r6, r1, lsl #2
    77c0:	9e170000 	cdpls	0, 1, cr0, cr7, cr0, {0}
    77c4:	05000003 	streq	r0, [r0, #-3]
    77c8:	0671013f 			; <UNDEFINED> instruction: 0x0671013f
    77cc:	17060000 	strne	r0, [r6, -r0]
    77d0:	0000041c 	andeq	r0, r0, ip, lsl r4
    77d4:	56014005 	strpl	r4, [r1], -r5
    77d8:	0c000000 	stceq	0, cr0, [r0], {-0}
    77dc:	00560800 	subseq	r0, r6, r0, lsl #16
    77e0:	06810000 	streq	r0, [r1], r0
    77e4:	c7090000 	strgt	r0, [r9, -r0]
    77e8:	02000000 	andeq	r0, r0, #0
    77ec:	05d01a00 	ldrbeq	r1, [r0, #2560]	; 0xa00
    77f0:	07820257 			; <UNDEFINED> instruction: 0x07820257
    77f4:	62170000 	andsvs	r0, r7, #0
    77f8:	05000004 	streq	r0, [r0, #-4]
    77fc:	002c0259 	eoreq	r0, ip, r9, asr r2
    7800:	17000000 	strne	r0, [r0, -r0]
    7804:	00000406 	andeq	r0, r0, r6, lsl #8
    7808:	07025a05 	streq	r5, [r2, -r5, lsl #20]
    780c:	04000001 	streq	r0, [r0], #-1
    7810:	00023617 	andeq	r3, r2, r7, lsl r6
    7814:	025b0500 	subseq	r0, fp, #0, 10
    7818:	00000782 	andeq	r0, r0, r2, lsl #15
    781c:	04c91708 	strbeq	r1, [r9], #1800	; 0x708
    7820:	5c050000 	stcpl	0, cr0, [r5], {-0}
    7824:	00018d02 	andeq	r8, r1, r2, lsl #26
    7828:	b3172400 	tstlt	r7, #0, 8
    782c:	05000001 	streq	r0, [r0, #-1]
    7830:	0025025d 	eoreq	r0, r5, sp, asr r2
    7834:	17480000 	strbne	r0, [r8, -r0]
    7838:	00000326 	andeq	r0, r0, r6, lsr #6
    783c:	64025e05 	strvs	r5, [r2], #-3589	; 0xfffff1fb
    7840:	50000000 	andpl	r0, r0, r0
    7844:	0004df17 	andeq	sp, r4, r7, lsl pc
    7848:	025f0500 	subseq	r0, pc, #0, 10
    784c:	0000063c 	andeq	r0, r0, ip, lsr r6
    7850:	03311758 	teqeq	r1, #88, 14	; 0x1600000
    7854:	60050000 	andvs	r0, r5, r0
    7858:	0000ef02 	andeq	lr, r0, r2, lsl #30
    785c:	e4176800 	ldr	r6, [r7], #-2048	; 0xfffff800
    7860:	05000004 	streq	r0, [r0, #-4]
    7864:	00ef0261 	rsceq	r0, pc, r1, ror #4
    7868:	17700000 	ldrbne	r0, [r0, -r0]!
    786c:	00000084 	andeq	r0, r0, r4, lsl #1
    7870:	ef026205 	svc	0x00026205
    7874:	78000000 	stmdavc	r0, {}	; <UNPREDICTABLE>
    7878:	00049417 	andeq	r9, r4, r7, lsl r4
    787c:	02630500 	rsbeq	r0, r3, #0, 10
    7880:	00000792 	muleq	r0, r2, r7
    7884:	022a1780 	eoreq	r1, sl, #128, 14	; 0x2000000
    7888:	64050000 	strvs	r0, [r5], #-0
    788c:	0007a202 	andeq	sl, r7, r2, lsl #4
    7890:	29178800 	ldmdbcs	r7, {fp, pc}
    7894:	05000004 	streq	r0, [r0, #-4]
    7898:	00250265 	eoreq	r0, r5, r5, ror #4
    789c:	17a00000 	strne	r0, [r0, r0]!
    78a0:	00000179 	andeq	r0, r0, r9, ror r1
    78a4:	ef026605 	svc	0x00026605
    78a8:	a4000000 	strge	r0, [r0], #-0
    78ac:	00007517 	andeq	r7, r0, r7, lsl r5
    78b0:	02670500 	rsbeq	r0, r7, #0, 10
    78b4:	000000ef 	andeq	r0, r0, pc, ror #1
    78b8:	016817ac 	cmneq	r8, ip, lsr #15
    78bc:	68050000 	stmdavs	r5, {}	; <UNPREDICTABLE>
    78c0:	0000ef02 	andeq	lr, r0, r2, lsl #30
    78c4:	2d17b400 	cfldrscs	mvf11, [r7, #-0]
    78c8:	05000000 	streq	r0, [r0, #-0]
    78cc:	00ef0269 	rsceq	r0, pc, r9, ror #4
    78d0:	17bc0000 	ldrne	r0, [ip, r0]!
    78d4:	0000003c 	andeq	r0, r0, ip, lsr r0
    78d8:	ef026a05 	svc	0x00026a05
    78dc:	c4000000 	strgt	r0, [r0], #-0
    78e0:	0002d917 	andeq	sp, r2, r7, lsl r9
    78e4:	026b0500 	rsbeq	r0, fp, #0, 10
    78e8:	00000025 	andeq	r0, r0, r5, lsr #32
    78ec:	0d0800cc 	stceq	0, cr0, [r8, #-816]	; 0xfffffcd0
    78f0:	92000001 	andls	r0, r0, #1
    78f4:	09000007 	stmdbeq	r0, {r0, r1, r2}
    78f8:	000000c7 	andeq	r0, r0, r7, asr #1
    78fc:	0d080019 	stceq	0, cr0, [r8, #-100]	; 0xffffff9c
    7900:	a2000001 	andge	r0, r0, #1
    7904:	09000007 	stmdbeq	r0, {r0, r1, r2}
    7908:	000000c7 	andeq	r0, r0, r7, asr #1
    790c:	0d080007 	stceq	0, cr0, [r8, #-28]	; 0xffffffe4
    7910:	b2000001 	andlt	r0, r0, #1
    7914:	09000007 	stmdbeq	r0, {r0, r1, r2}
    7918:	000000c7 	andeq	r0, r0, r7, asr #1
    791c:	f01a0017 			; <UNDEFINED> instruction: 0xf01a0017
    7920:	d6027005 	strle	r7, [r2], -r5
    7924:	17000007 	strne	r0, [r0, -r7]
    7928:	00000280 	andeq	r0, r0, r0, lsl #5
    792c:	d6027305 	strle	r7, [r2], -r5, lsl #6
    7930:	00000007 	andeq	r0, r0, r7
    7934:	00048b17 	andeq	r8, r4, r7, lsl fp
    7938:	02740500 	rsbseq	r0, r4, #0, 10
    793c:	000007e6 	andeq	r0, r0, r6, ror #15
    7940:	d6080078 			; <UNDEFINED> instruction: 0xd6080078
    7944:	e6000002 	str	r0, [r0], -r2
    7948:	09000007 	stmdbeq	r0, {r0, r1, r2}
    794c:	000000c7 	andeq	r0, r0, r7, asr #1
    7950:	2c08001d 	stccs	0, cr0, [r8], {29}
    7954:	f6000000 			; <UNDEFINED> instruction: 0xf6000000
    7958:	09000007 	stmdbeq	r0, {r0, r1, r2}
    795c:	000000c7 	andeq	r0, r0, r7, asr #1
    7960:	f01b001d 			; <UNDEFINED> instruction: 0xf01b001d
    7964:	18025505 	stmdane	r2, {r0, r2, r8, sl, ip, lr}
    7968:	1c000008 	stcne	0, cr0, [r0], {8}
    796c:	0000036a 	andeq	r0, r0, sl, ror #6
    7970:	81026c05 	tsthi	r2, r5, lsl #24
    7974:	1c000006 	stcne	0, cr0, [r0], {6}
    7978:	000004b6 			; <UNDEFINED> instruction: 0x000004b6
    797c:	b2027505 	andlt	r7, r2, #20971520	; 0x1400000
    7980:	00000007 	andeq	r0, r0, r7
    7984:	00010d08 	andeq	r0, r1, r8, lsl #26
    7988:	00082800 	andeq	r2, r8, r0, lsl #16
    798c:	00c70900 	sbceq	r0, r7, r0, lsl #18
    7990:	00180000 	andseq	r0, r8, r0
    7994:	0008331d 	andeq	r3, r8, sp, lsl r3
    7998:	04241500 	strteq	r1, [r4], #-1280	; 0xfffffb00
    799c:	0d000000 	stceq	0, cr0, [r0, #-0]
    79a0:	00082804 	andeq	r2, r8, r4, lsl #16
    79a4:	77040d00 	strvc	r0, [r4, -r0, lsl #26]
    79a8:	1d000001 	stcne	0, cr0, [r0, #-4]
    79ac:	0000084a 	andeq	r0, r0, sl, asr #16
    79b0:	00002515 	andeq	r2, r0, r5, lsl r5
    79b4:	040d0000 	streq	r0, [sp], #-0
    79b8:	00000850 	andeq	r0, r0, r0, asr r8
    79bc:	083f040d 	ldmdaeq	pc!, {r0, r2, r3, sl}	; <UNPREDICTABLE>
    79c0:	ef080000 	svc	0x00080000
    79c4:	66000005 	strvs	r0, [r0], -r5
    79c8:	09000008 	stmdbeq	r0, {r3}
    79cc:	000000c7 	andeq	r0, r0, r7, asr #1
    79d0:	3d1e0002 	ldccc	0, cr0, [lr, #-8]
    79d4:	05000004 	streq	r0, [r0, #-4]
    79d8:	042402fd 	strteq	r0, [r4], #-765	; 0xfffffd03
    79dc:	361e0000 	ldrcc	r0, [lr], -r0
    79e0:	05000004 	streq	r0, [r0, #-4]
    79e4:	042a02fe 	strteq	r0, [sl], #-766	; 0xfffffd02
    79e8:	25140000 	ldrcs	r0, [r4, #-0]
    79ec:	8d000000 	stchi	0, cr0, [r0, #-0]
    79f0:	15000008 	strne	r0, [r0, #-8]
    79f4:	00000025 	andeq	r0, r0, r5, lsr #32
    79f8:	01cc1f00 	biceq	r1, ip, r0, lsl #30
    79fc:	1d060000 	stcne	0, cr0, [r6, #-0]
    7a00:	00000898 	muleq	r0, r8, r8
    7a04:	087e040d 	ldmdaeq	lr!, {r0, r2, r3, sl}^
    7a08:	25140000 	ldrcs	r0, [r4, #-0]
    7a0c:	ad000000 	stcge	0, cr0, [r0, #-0]
    7a10:	15000008 	strne	r0, [r0, #-8]
    7a14:	00000585 	andeq	r0, r0, r5, lsl #11
    7a18:	07691f00 	strbeq	r1, [r9, -r0, lsl #30]!
    7a1c:	22060000 	andcs	r0, r6, #0
    7a20:	000008b8 			; <UNDEFINED> instruction: 0x000008b8
    7a24:	089e040d 	ldmeq	lr, {r0, r2, r3, sl}
    7a28:	c8200000 	stmdagt	r0!, {}	; <UNPREDICTABLE>
    7a2c:	01000005 	tsteq	r0, r5
    7a30:	0090c404 	addseq	ip, r0, r4, lsl #8
    7a34:	00002800 	andeq	r2, r0, r0, lsl #16
    7a38:	049c0100 	ldreq	r0, [ip], #256	; 0x100
    7a3c:	21000009 	tstcs	r0, r9
    7a40:	000090d8 	ldrdeq	r9, [r0], -r8
    7a44:	000008e6 	andeq	r0, r0, r6, ror #17
    7a48:	05500122 	ldrbeq	r0, [r0, #-290]	; 0xfffffede
    7a4c:	009a6003 	addseq	r6, sl, r3
    7a50:	e0230000 	eor	r0, r3, r0
    7a54:	04000090 	streq	r0, [r0], #-144	; 0xffffff70
    7a58:	fa000009 	blx	7a84 <_start-0x57c>
    7a5c:	22000008 	andcs	r0, r0, #8
    7a60:	08025001 	stmdaeq	r2, {r0, ip, lr}
    7a64:	e4240064 	strt	r0, [r4], #-100	; 0xffffff9c
    7a68:	0f000090 	svceq	0x00000090
    7a6c:	00000009 	andeq	r0, r0, r9
    7a70:	00084325 	andeq	r4, r8, r5, lsr #6
    7a74:	00084300 	andeq	r4, r8, r0, lsl #6
    7a78:	254f0600 	strbcs	r0, [pc, #-1536]	; 7480 <_start-0xb80>
    7a7c:	0000084c 	andeq	r0, r0, ip, asr #16
    7a80:	0000084c 	andeq	r0, r0, ip, asr #16
    7a84:	17006206 	strne	r6, [r0, -r6, lsl #4]
    7a88:	0400000a 	streq	r0, [r0], #-10
    7a8c:	00177700 	andseq	r7, r7, r0, lsl #14
    7a90:	a4010400 	strge	r0, [r1], #-1024	; 0xfffffc00
    7a94:	0c000003 	stceq	0, cr0, [r0], {3}
    7a98:	000008c6 	andeq	r0, r0, r6, asr #17
    7a9c:	000006de 	ldrdeq	r0, [r0], -lr
    7aa0:	000090ec 	andeq	r9, r0, ip, ror #1
    7aa4:	00000088 	andeq	r0, r0, r8, lsl #1
    7aa8:	00000cb8 			; <UNDEFINED> instruction: 0x00000cb8
    7aac:	69050402 	stmdbvs	r5, {r1, sl}
    7ab0:	0300746e 	movweq	r7, #1134	; 0x46e
    7ab4:	00570704 	subseq	r0, r7, r4, lsl #14
    7ab8:	01030000 	mrseq	r0, (UNDEF: 3)
    7abc:	0002c806 	andeq	ip, r2, r6, lsl #16
    7ac0:	05020300 	streq	r0, [r2, #-768]	; 0xfffffd00
    7ac4:	000002e2 	andeq	r0, r0, r2, ror #5
    7ac8:	a0050403 	andge	r0, r5, r3, lsl #8
    7acc:	03000000 	movweq	r0, #0
    7ad0:	009b0508 	addseq	r0, fp, r8, lsl #10
    7ad4:	01030000 	mrseq	r0, (UNDEF: 3)
    7ad8:	0002c608 	andeq	ip, r2, r8, lsl #12
    7adc:	07020300 	streq	r0, [r2, -r0, lsl #6]
    7ae0:	0000020e 	andeq	r0, r0, lr, lsl #4
    7ae4:	52070403 	andpl	r0, r7, #50331648	; 0x3000000
    7ae8:	03000000 	movweq	r0, #0
    7aec:	004d0708 	subeq	r0, sp, r8, lsl #14
    7af0:	b4040000 	strlt	r0, [r4], #-0
    7af4:	02000002 	andeq	r0, r0, #2
    7af8:	00002507 	andeq	r2, r0, r7, lsl #10
    7afc:	02a30400 	adceq	r0, r3, #0, 8
    7b00:	2c030000 	stccs	0, cr0, [r3], {-0}
    7b04:	00000041 	andeq	r0, r0, r1, asr #32
    7b08:	00038d04 	andeq	r8, r3, r4, lsl #26
    7b0c:	41720300 	cmnmi	r2, r0, lsl #6
    7b10:	05000000 	streq	r0, [r0, #-0]
    7b14:	00000251 	andeq	r0, r0, r1, asr r2
    7b18:	2c016504 	cfstr32cs	mvfx6, [r1], {4}
    7b1c:	06000000 	streq	r0, [r0], -r0
    7b20:	b7a60304 	strlt	r0, [r6, r4, lsl #6]!
    7b24:	07000000 	streq	r0, [r0, -r0]
    7b28:	0000024b 	andeq	r0, r0, fp, asr #4
    7b2c:	008ca803 	addeq	sl, ip, r3, lsl #16
    7b30:	dd070000 	stcle	0, cr0, [r7, #-0]
    7b34:	03000001 	movweq	r0, #1
    7b38:	0000b7a9 	andeq	fp, r0, r9, lsr #15
    7b3c:	4f080000 	svcmi	0x00080000
    7b40:	c7000000 	strgt	r0, [r0, -r0]
    7b44:	09000000 	stmdbeq	r0, {}	; <UNPREDICTABLE>
    7b48:	000000c7 	andeq	r0, r0, r7, asr #1
    7b4c:	04030003 	streq	r0, [r3], #-3
    7b50:	00027707 	andeq	r7, r2, r7, lsl #14
    7b54:	03080a00 	movweq	r0, #35328	; 0x8a00
    7b58:	0000efa3 	andeq	lr, r0, r3, lsr #31
    7b5c:	03770b00 	cmneq	r7, #0, 22
    7b60:	a5030000 	strge	r0, [r3, #-0]
    7b64:	00000025 	andeq	r0, r0, r5, lsr #32
    7b68:	037f0b00 	cmneq	pc, #0, 22
    7b6c:	aa030000 	bge	c7b74 <__bss_end__+0xbdbdc>
    7b70:	00000098 	muleq	r0, r8, r0
    7b74:	0a040004 	beq	107b8c <__bss_end__+0xfdbf4>
    7b78:	03000003 	movweq	r0, #3
    7b7c:	0000ceab 	andeq	ip, r0, fp, lsr #29
    7b80:	019a0400 	orrseq	r0, sl, r0, lsl #8
    7b84:	af030000 	svcge	0x00030000
    7b88:	0000006b 	andeq	r0, r0, fp, rrx
    7b8c:	040d040c 	streq	r0, [sp], #-1036	; 0xfffffbf4
    7b90:	0000010d 	andeq	r0, r0, sp, lsl #2
    7b94:	cf080103 	svcgt	0x00080103
    7b98:	0e000002 	cdpeq	0, 0, cr0, cr0, cr2, {0}
    7b9c:	0000010d 	andeq	r0, r0, sp, lsl #2
    7ba0:	00042104 	andeq	r2, r4, r4, lsl #2
    7ba4:	5d160500 	cfldr32pl	mvfx0, [r6, #-0]
    7ba8:	0f000000 	svceq	0x00000000
    7bac:	000001ab 	andeq	r0, r0, fp, lsr #3
    7bb0:	772d0518 			; <UNDEFINED> instruction: 0x772d0518
    7bb4:	0b000001 	bleq	7bc0 <_start-0x440>
    7bb8:	0000032b 	andeq	r0, r0, fp, lsr #6
    7bbc:	01772f05 	cmneq	r7, r5, lsl #30
    7bc0:	10000000 	andne	r0, r0, r0
    7bc4:	05006b5f 	streq	r6, [r0, #-2911]	; 0xfffff4a1
    7bc8:	00002530 	andeq	r2, r0, r0, lsr r5
    7bcc:	620b0400 	andvs	r0, fp, #0, 8
    7bd0:	05000003 	streq	r0, [r0, #-3]
    7bd4:	00002530 	andeq	r2, r0, r0, lsr r5
    7bd8:	940b0800 	strls	r0, [fp], #-2048	; 0xfffff800
    7bdc:	05000001 	streq	r0, [r0, #-1]
    7be0:	00002530 	andeq	r2, r0, r0, lsr r5
    7be4:	6f0b0c00 	svcvs	0x000b0c00
    7be8:	05000004 	streq	r0, [r0, #-4]
    7bec:	00002530 	andeq	r2, r0, r0, lsr r5
    7bf0:	5f101000 	svcpl	0x00101000
    7bf4:	31050078 	tstcc	r5, r8, ror r0
    7bf8:	0000017d 	andeq	r0, r0, sp, ror r1
    7bfc:	040d0014 	streq	r0, [sp], #-20	; 0xffffffec
    7c00:	00000124 	andeq	r0, r0, r4, lsr #2
    7c04:	00011908 	andeq	r1, r1, r8, lsl #18
    7c08:	00018d00 	andeq	r8, r1, r0, lsl #26
    7c0c:	00c70900 	sbceq	r0, r7, r0, lsl #18
    7c10:	00000000 	andeq	r0, r0, r0
    7c14:	0001d80f 	andeq	sp, r1, pc, lsl #16
    7c18:	35052400 	strcc	r2, [r5, #-1024]	; 0xfffffc00
    7c1c:	00000206 	andeq	r0, r0, r6, lsl #4
    7c20:	0000920b 	andeq	r9, r0, fp, lsl #4
    7c24:	25370500 	ldrcs	r0, [r7, #-1280]!	; 0xfffffb00
    7c28:	00000000 	andeq	r0, r0, r0
    7c2c:	0003950b 	andeq	r9, r3, fp, lsl #10
    7c30:	25380500 	ldrcs	r0, [r8, #-1280]!	; 0xfffffb00
    7c34:	04000000 	streq	r0, [r0], #-0
    7c38:	0000b50b 	andeq	fp, r0, fp, lsl #10
    7c3c:	25390500 	ldrcs	r0, [r9, #-1280]!	; 0xfffffb00
    7c40:	08000000 	stmdaeq	r0, {}	; <UNPREDICTABLE>
    7c44:	0004f70b 	andeq	pc, r4, fp, lsl #14
    7c48:	253a0500 	ldrcs	r0, [sl, #-1280]!	; 0xfffffb00
    7c4c:	0c000000 	stceq	0, cr0, [r0], {-0}
    7c50:	0002870b 	andeq	r8, r2, fp, lsl #14
    7c54:	253b0500 	ldrcs	r0, [fp, #-1280]!	; 0xfffffb00
    7c58:	10000000 	andne	r0, r0, r0
    7c5c:	00026d0b 	andeq	r6, r2, fp, lsl #26
    7c60:	253c0500 	ldrcs	r0, [ip, #-1280]!	; 0xfffffb00
    7c64:	14000000 	strne	r0, [r0], #-0
    7c68:	0004740b 	andeq	r7, r4, fp, lsl #8
    7c6c:	253d0500 	ldrcs	r0, [sp, #-1280]!	; 0xfffffb00
    7c70:	18000000 	stmdane	r0, {}	; <UNPREDICTABLE>
    7c74:	0002ec0b 	andeq	lr, r2, fp, lsl #24
    7c78:	253e0500 	ldrcs	r0, [lr, #-1280]!	; 0xfffffb00
    7c7c:	1c000000 	stcne	0, cr0, [r0], {-0}
    7c80:	0004be0b 	andeq	fp, r4, fp, lsl #28
    7c84:	253f0500 	ldrcs	r0, [pc, #-1280]!	; 778c <_start-0x874>
    7c88:	20000000 	andcs	r0, r0, r0
    7c8c:	00f51100 	rscseq	r1, r5, r0, lsl #2
    7c90:	01080000 	mrseq	r0, (UNDEF: 8)
    7c94:	02464805 	subeq	r4, r6, #327680	; 0x50000
    7c98:	870b0000 	strhi	r0, [fp, -r0]
    7c9c:	05000001 	streq	r0, [r0, #-1]
    7ca0:	00024649 	andeq	r4, r2, r9, asr #12
    7ca4:	000b0000 	andeq	r0, fp, r0
    7ca8:	05000000 	streq	r0, [r0, #-0]
    7cac:	0002464a 	andeq	r4, r2, sl, asr #12
    7cb0:	13128000 	tstne	r2, #0
    7cb4:	05000004 	streq	r0, [r0, #-4]
    7cb8:	0001194c 	andeq	r1, r1, ip, asr #18
    7cbc:	12010000 	andne	r0, r1, #0
    7cc0:	0000011a 	andeq	r0, r0, sl, lsl r1
    7cc4:	01194f05 	tsteq	r9, r5, lsl #30
    7cc8:	01040000 	mrseq	r0, (UNDEF: 4)
    7ccc:	01050800 	tsteq	r5, r0, lsl #16
    7cd0:	02560000 	subseq	r0, r6, #0
    7cd4:	c7090000 	strgt	r0, [r9, -r0]
    7cd8:	1f000000 	svcne	0x00000000
    7cdc:	02901100 	addseq	r1, r0, #0, 2
    7ce0:	01900000 	orrseq	r0, r0, r0
    7ce4:	02945b05 	addseq	r5, r4, #5120	; 0x1400
    7ce8:	2b0b0000 	blcs	2c7cf0 <__bss_end__+0x2bdd58>
    7cec:	05000003 	streq	r0, [r0, #-3]
    7cf0:	0002945c 	andeq	r9, r2, ip, asr r4
    7cf4:	430b0000 	movwmi	r0, #45056	; 0xb000
    7cf8:	05000003 	streq	r0, [r0, #-3]
    7cfc:	0000255d 	andeq	r2, r0, sp, asr r5
    7d00:	8f0b0400 	svchi	0x000b0400
    7d04:	05000001 	streq	r0, [r0, #-1]
    7d08:	00029a5f 	andeq	r9, r2, pc, asr sl
    7d0c:	f50b0800 			; <UNDEFINED> instruction: 0xf50b0800
    7d10:	05000000 	streq	r0, [r0, #-0]
    7d14:	00020660 	andeq	r0, r2, r0, ror #12
    7d18:	0d008800 	stceq	8, cr8, [r0, #-0]
    7d1c:	00025604 	andeq	r5, r2, r4, lsl #12
    7d20:	02aa0800 	adceq	r0, sl, #0, 16
    7d24:	02aa0000 	adceq	r0, sl, #0
    7d28:	c7090000 	strgt	r0, [r9, -r0]
    7d2c:	1f000000 	svcne	0x00000000
    7d30:	b0040d00 	andlt	r0, r4, r0, lsl #26
    7d34:	13000002 	movwne	r0, #2
    7d38:	0002f60f 	andeq	pc, r2, pc, lsl #12
    7d3c:	73050800 	movwvc	r0, #22528	; 0x5800
    7d40:	000002d6 	ldrdeq	r0, [r0], -r6
    7d44:	0000af0b 	andeq	sl, r0, fp, lsl #30
    7d48:	d6740500 	ldrbtle	r0, [r4], -r0, lsl #10
    7d4c:	00000002 	andeq	r0, r0, r2
    7d50:	00000c0b 	andeq	r0, r0, fp, lsl #24
    7d54:	25750500 	ldrbcs	r0, [r5, #-1280]!	; 0xfffffb00
    7d58:	04000000 	streq	r0, [r0], #-0
    7d5c:	4f040d00 	svcmi	0x00040d00
    7d60:	0f000000 	svceq	0x00000000
    7d64:	00000315 	andeq	r0, r0, r5, lsl r3
    7d68:	06b30568 	ldrteq	r0, [r3], r8, ror #10
    7d6c:	10000004 	andne	r0, r0, r4
    7d70:	0500705f 	streq	r7, [r0, #-95]	; 0xffffffa1
    7d74:	0002d6b4 			; <UNDEFINED> instruction: 0x0002d6b4
    7d78:	5f100000 	svcpl	0x00100000
    7d7c:	b5050072 	strlt	r0, [r5, #-114]	; 0xffffff8e
    7d80:	00000025 	andeq	r0, r0, r5, lsr #32
    7d84:	775f1004 	ldrbvc	r1, [pc, -r4]
    7d88:	25b60500 	ldrcs	r0, [r6, #1280]!	; 0x500
    7d8c:	08000000 	stmdaeq	r0, {}	; <UNPREDICTABLE>
    7d90:	0001130b 	andeq	r1, r1, fp, lsl #6
    7d94:	3ab70500 	bcc	fedc919c <__bss_end__+0xfedbf204>
    7d98:	0c000000 	stceq	0, cr0, [r0], {-0}
    7d9c:	0001f40b 	andeq	pc, r1, fp, lsl #8
    7da0:	3ab80500 	bcc	fee091a8 <__bss_end__+0xfedff210>
    7da4:	0e000000 	cdpeq	0, 0, cr0, cr0, cr0, {0}
    7da8:	66625f10 	uqadd16vs	r5, r2, r0
    7dac:	b1b90500 			; <UNDEFINED> instruction: 0xb1b90500
    7db0:	10000002 	andne	r0, r0, r2
    7db4:	00006c0b 	andeq	r6, r0, fp, lsl #24
    7db8:	25ba0500 	ldrcs	r0, [sl, #1280]!	; 0x500
    7dbc:	18000000 	stmdane	r0, {}	; <UNPREDICTABLE>
    7dc0:	0001030b 	andeq	r0, r1, fp, lsl #6
    7dc4:	05c10500 	strbeq	r0, [r1, #1280]	; 0x500
    7dc8:	1c000001 	stcne	0, cr0, [r0], {1}
    7dcc:	000a780b 	andeq	r7, sl, fp, lsl #16
    7dd0:	61c30500 	bicvs	r0, r3, r0, lsl #10
    7dd4:	20000005 	andcs	r0, r0, r5
    7dd8:	00060c0b 	andeq	r0, r6, fp, lsl #24
    7ddc:	8bc50500 	blhi	ff1491e4 <__bss_end__+0xff13f24c>
    7de0:	24000005 	strcs	r0, [r0], #-5
    7de4:	0003870b 	andeq	r8, r3, fp, lsl #14
    7de8:	afc80500 	svcge	0x00c80500
    7dec:	28000005 	stmdacs	r0, {r0, r2}
    7df0:	0004d80b 	andeq	sp, r4, fp, lsl #16
    7df4:	c9c90500 	stmibgt	r9, {r8, sl}^
    7df8:	2c000005 	stccs	0, cr0, [r0], {5}
    7dfc:	62755f10 	rsbsvs	r5, r5, #16, 30	; 0x40
    7e00:	b1cc0500 	biclt	r0, ip, r0, lsl #10
    7e04:	30000002 	andcc	r0, r0, r2
    7e08:	70755f10 	rsbsvc	r5, r5, r0, lsl pc
    7e0c:	d6cd0500 	strble	r0, [sp], r0, lsl #10
    7e10:	38000002 	stmdacc	r0, {r1}
    7e14:	72755f10 	rsbsvc	r5, r5, #16, 30	; 0x40
    7e18:	25ce0500 	strbcs	r0, [lr, #1280]	; 0x500
    7e1c:	3c000000 	stccc	0, cr0, [r0], {-0}
    7e20:	0000a90b 	andeq	sl, r0, fp, lsl #18
    7e24:	cfd10500 	svcgt	0x00d10500
    7e28:	40000005 	andmi	r0, r0, r5
    7e2c:	0004b00b 	andeq	fp, r4, fp
    7e30:	dfd20500 	svcle	0x00d20500
    7e34:	43000005 	movwmi	r0, #5
    7e38:	626c5f10 	rsbvs	r5, ip, #16, 30	; 0x40
    7e3c:	b1d50500 	bicslt	r0, r5, r0, lsl #10
    7e40:	44000002 	strmi	r0, [r0], #-2
    7e44:	0001380b 	andeq	r3, r1, fp, lsl #16
    7e48:	25d80500 	ldrbcs	r0, [r8, #1280]	; 0x500
    7e4c:	4c000000 	stcmi	0, cr0, [r0], {-0}
    7e50:	0001490b 	andeq	r4, r1, fp, lsl #18
    7e54:	76d90500 	ldrbvc	r0, [r9], r0, lsl #10
    7e58:	50000000 	andpl	r0, r0, r0
    7e5c:	000a190b 	andeq	r1, sl, fp, lsl #18
    7e60:	24dc0500 	ldrbcs	r0, [ip], #1280	; 0x500
    7e64:	54000004 	strpl	r0, [r0], #-4
    7e68:	00025f0b 	andeq	r5, r2, fp, lsl #30
    7e6c:	fae00500 	blx	ff809274 <__bss_end__+0xff7ff2dc>
    7e70:	58000000 	stmdapl	r0, {}	; <UNPREDICTABLE>
    7e74:	00031d0b 	andeq	r1, r3, fp, lsl #26
    7e78:	efe20500 	svc	0x00e20500
    7e7c:	5c000000 	stcpl	0, cr0, [r0], {-0}
    7e80:	0002650b 	andeq	r6, r2, fp, lsl #10
    7e84:	25e30500 	strbcs	r0, [r3, #1280]!	; 0x500
    7e88:	64000000 	strvs	r0, [r0], #-0
    7e8c:	00251400 	eoreq	r1, r5, r0, lsl #8
    7e90:	04240000 	strteq	r0, [r4], #-0
    7e94:	24150000 	ldrcs	r0, [r5], #-0
    7e98:	15000004 	strne	r0, [r0, #-4]
    7e9c:	00000105 	andeq	r0, r0, r5, lsl #2
    7ea0:	00010715 	andeq	r0, r1, r5, lsl r7
    7ea4:	00251500 	eoreq	r1, r5, r0, lsl #10
    7ea8:	0d000000 	stceq	0, cr0, [r0, #-0]
    7eac:	00042f04 	andeq	r2, r4, r4, lsl #30
    7eb0:	04240e00 	strteq	r0, [r4], #-3584	; 0xfffff200
    7eb4:	6a160000 	bvs	587ebc <__bss_end__+0x57df24>
    7eb8:	28000003 	stmdacs	r0, {r0, r1}
    7ebc:	02380504 	eorseq	r0, r8, #4, 10	; 0x1000000
    7ec0:	00000561 	andeq	r0, r0, r1, ror #10
    7ec4:	0002db17 	andeq	sp, r2, r7, lsl fp
    7ec8:	023a0500 	eorseq	r0, sl, #0, 10
    7ecc:	00000025 	andeq	r0, r0, r5, lsr #32
    7ed0:	04841700 	streq	r1, [r4], #1792	; 0x700
    7ed4:	3f050000 	svccc	0x00050000
    7ed8:	00063602 	andeq	r3, r6, r2, lsl #12
    7edc:	e4170400 	ldr	r0, [r7], #-1024	; 0xfffffc00
    7ee0:	05000001 	streq	r0, [r0, #-1]
    7ee4:	0636023f 			; <UNDEFINED> instruction: 0x0636023f
    7ee8:	17080000 	strne	r0, [r8, -r0]
    7eec:	000001a3 	andeq	r0, r0, r3, lsr #3
    7ef0:	36023f05 	strcc	r3, [r2], -r5, lsl #30
    7ef4:	0c000006 	stceq	0, cr0, [r0], {6}
    7ef8:	00033e17 	andeq	r3, r3, r7, lsl lr
    7efc:	02410500 	subeq	r0, r1, #0, 10
    7f00:	00000025 	andeq	r0, r0, r5, lsr #32
    7f04:	001a1710 	andseq	r1, sl, r0, lsl r7
    7f08:	42050000 	andmi	r0, r5, #0
    7f0c:	00081802 	andeq	r1, r8, r2, lsl #16
    7f10:	49171400 	ldmdbmi	r7, {sl, ip}
    7f14:	05000004 	streq	r0, [r0, #-4]
    7f18:	00250244 	eoreq	r0, r5, r4, asr #4
    7f1c:	17300000 	ldrne	r0, [r0, -r0]!
    7f20:	00000348 	andeq	r0, r0, r8, asr #6
    7f24:	85024505 	strhi	r4, [r2, #-1285]	; 0xfffffafb
    7f28:	34000005 	strcc	r0, [r0], #-5
    7f2c:	00029817 	andeq	r9, r2, r7, lsl r8
    7f30:	02470500 	subeq	r0, r7, #0, 10
    7f34:	00000025 	andeq	r0, r0, r5, lsr #32
    7f38:	03581738 	cmpeq	r8, #56, 14	; 0xe00000
    7f3c:	49050000 	stmdbmi	r5, {}	; <UNPREDICTABLE>
    7f40:	00083302 	andeq	r3, r8, r2, lsl #6
    7f44:	43173c00 	tstmi	r7, #0, 24
    7f48:	05000002 	streq	r0, [r0, #-2]
    7f4c:	0177024c 	cmneq	r7, ip, asr #4
    7f50:	17400000 	strbne	r0, [r0, -r0]
    7f54:	000001c2 	andeq	r0, r0, r2, asr #3
    7f58:	25024d05 	strcs	r4, [r2, #-3333]	; 0xfffff2fb
    7f5c:	44000000 	strmi	r0, [r0], #-0
    7f60:	0004f217 	andeq	pc, r4, r7, lsl r2	; <UNPREDICTABLE>
    7f64:	024e0500 	subeq	r0, lr, #0, 10
    7f68:	00000177 	andeq	r0, r0, r7, ror r1
    7f6c:	02aa1748 	adceq	r1, sl, #72, 14	; 0x1200000
    7f70:	4f050000 	svcmi	0x00050000
    7f74:	00083902 	andeq	r3, r8, r2, lsl #18
    7f78:	ec174c00 	ldc	12, cr4, [r7], {-0}
    7f7c:	05000001 	streq	r0, [r0, #-1]
    7f80:	00250252 	eoreq	r0, r5, r2, asr r2
    7f84:	17500000 	ldrbne	r0, [r0, -r0]
    7f88:	00000141 	andeq	r0, r0, r1, asr #2
    7f8c:	07025305 	streq	r5, [r2, -r5, lsl #6]
    7f90:	54000001 	strpl	r0, [r0], #-1
    7f94:	0002d417 	andeq	sp, r2, r7, lsl r4
    7f98:	02760500 	rsbseq	r0, r6, #0, 10
    7f9c:	000007f6 	strdeq	r0, [r0], -r6
    7fa0:	02901858 	addseq	r1, r0, #88, 16	; 0x580000
    7fa4:	7a050000 	bvc	147fac <__bss_end__+0x13e014>
    7fa8:	00029402 	andeq	r9, r2, r2, lsl #8
    7fac:	18014800 	stmdane	r1, {fp, lr}
    7fb0:	00000221 	andeq	r0, r0, r1, lsr #4
    7fb4:	56027b05 	strpl	r7, [r2], -r5, lsl #22
    7fb8:	4c000002 	stcmi	0, cr0, [r0], {2}
    7fbc:	049e1801 	ldreq	r1, [lr], #2049	; 0x801
    7fc0:	7f050000 	svcvc	0x00050000
    7fc4:	00084a02 	andeq	r4, r8, r2, lsl #20
    7fc8:	1802dc00 	stmdane	r2, {sl, fp, ip, lr, pc}
    7fcc:	0000010b 	andeq	r0, r0, fp, lsl #2
    7fd0:	fb028405 	blx	a8fee <__bss_end__+0x9f056>
    7fd4:	e0000005 	and	r0, r0, r5
    7fd8:	00f01802 	rscseq	r1, r0, r2, lsl #16
    7fdc:	85050000 	strhi	r0, [r5, #-0]
    7fe0:	00085602 	andeq	r5, r8, r2, lsl #12
    7fe4:	0002ec00 	andeq	lr, r2, r0, lsl #24
    7fe8:	0406040d 	streq	r0, [r6], #-1037	; 0xfffffbf3
    7fec:	25140000 	ldrcs	r0, [r4, #-0]
    7ff0:	85000000 	strhi	r0, [r0, #-0]
    7ff4:	15000005 	strne	r0, [r0, #-5]
    7ff8:	00000424 	andeq	r0, r0, r4, lsr #8
    7ffc:	00010515 	andeq	r0, r1, r5, lsl r5
    8000:	05851500 	streq	r1, [r5, #1280]	; 0x500
    8004:	25150000 	ldrcs	r0, [r5, #-0]
    8008:	00000000 	andeq	r0, r0, r0
    800c:	0114040d 	tsteq	r4, sp, lsl #8
    8010:	040d0000 	streq	r0, [sp], #-0
    8014:	00000567 	andeq	r0, r0, r7, ror #10
    8018:	00008114 	andeq	r8, r0, r4, lsl r1
    801c:	0005af00 	andeq	sl, r5, r0, lsl #30
    8020:	04241500 	strteq	r1, [r4], #-1280	; 0xfffffb00
    8024:	05150000 	ldreq	r0, [r5, #-0]
    8028:	15000001 	strne	r0, [r0, #-1]
    802c:	00000081 	andeq	r0, r0, r1, lsl #1
    8030:	00002515 	andeq	r2, r0, r5, lsl r5
    8034:	040d0000 	streq	r0, [sp], #-0
    8038:	00000591 	muleq	r0, r1, r5
    803c:	00002514 	andeq	r2, r0, r4, lsl r5
    8040:	0005c900 	andeq	ip, r5, r0, lsl #18
    8044:	04241500 	strteq	r1, [r4], #-1280	; 0xfffffb00
    8048:	05150000 	ldreq	r0, [r5, #-0]
    804c:	00000001 	andeq	r0, r0, r1
    8050:	05b5040d 	ldreq	r0, [r5, #1037]!	; 0x40d
    8054:	4f080000 	svcmi	0x00080000
    8058:	df000000 	svcle	0x00000000
    805c:	09000005 	stmdbeq	r0, {r0, r2}
    8060:	000000c7 	andeq	r0, r0, r7, asr #1
    8064:	4f080002 	svcmi	0x00080002
    8068:	ef000000 	svc	0x00000000
    806c:	09000005 	stmdbeq	r0, {r0, r2}
    8070:	000000c7 	andeq	r0, r0, r7, asr #1
    8074:	03050000 	movweq	r0, #20480	; 0x5000
    8078:	05000003 	streq	r0, [r0, #-3]
    807c:	02dc011d 	sbcseq	r0, ip, #1073741831	; 0x40000007
    8080:	7e190000 	cdpvc	0, 1, cr0, cr9, cr0, {0}
    8084:	0c000004 	stceq	0, cr0, [r0], {4}
    8088:	30012105 	andcc	r2, r1, r5, lsl #2
    808c:	17000006 	strne	r0, [r0, -r6]
    8090:	0000032b 	andeq	r0, r0, fp, lsr #6
    8094:	30012305 	andcc	r2, r1, r5, lsl #6
    8098:	00000006 	andeq	r0, r0, r6
    809c:	00020717 	andeq	r0, r2, r7, lsl r7
    80a0:	01240500 			; <UNDEFINED> instruction: 0x01240500
    80a4:	00000025 	andeq	r0, r0, r5, lsr #32
    80a8:	02fd1704 	rscseq	r1, sp, #4, 14	; 0x100000
    80ac:	25050000 	strcs	r0, [r5, #-0]
    80b0:	00063601 	andeq	r3, r6, r1, lsl #12
    80b4:	0d000800 	stceq	8, cr0, [r0, #-0]
    80b8:	0005fb04 	andeq	pc, r5, r4, lsl #22
    80bc:	ef040d00 	svc	0x00040d00
    80c0:	19000005 	stmdbne	r0, {r0, r2}
    80c4:	00000012 	andeq	r0, r0, r2, lsl r0
    80c8:	013d050e 	teqeq	sp, lr, lsl #10
    80cc:	00000671 	andeq	r0, r0, r1, ror r6
    80d0:	00037117 	andeq	r7, r3, r7, lsl r1
    80d4:	013e0500 	teqeq	lr, r0, lsl #10
    80d8:	00000671 	andeq	r0, r0, r1, ror r6
    80dc:	039e1700 	orrseq	r1, lr, #0, 14
    80e0:	3f050000 	svccc	0x00050000
    80e4:	00067101 	andeq	r7, r6, r1, lsl #2
    80e8:	1c170600 	ldcne	6, cr0, [r7], {-0}
    80ec:	05000004 	streq	r0, [r0, #-4]
    80f0:	00560140 	subseq	r0, r6, r0, asr #2
    80f4:	000c0000 	andeq	r0, ip, r0
    80f8:	00005608 	andeq	r5, r0, r8, lsl #12
    80fc:	00068100 	andeq	r8, r6, r0, lsl #2
    8100:	00c70900 	sbceq	r0, r7, r0, lsl #18
    8104:	00020000 	andeq	r0, r2, r0
    8108:	5705d01a 	smladpl	r5, sl, r0, sp
    810c:	00078202 	andeq	r8, r7, r2, lsl #4
    8110:	04621700 	strbteq	r1, [r2], #-1792	; 0xfffff900
    8114:	59050000 	stmdbpl	r5, {}	; <UNPREDICTABLE>
    8118:	00002c02 	andeq	r2, r0, r2, lsl #24
    811c:	06170000 	ldreq	r0, [r7], -r0
    8120:	05000004 	streq	r0, [r0, #-4]
    8124:	0107025a 	tsteq	r7, sl, asr r2
    8128:	17040000 	strne	r0, [r4, -r0]
    812c:	00000236 	andeq	r0, r0, r6, lsr r2
    8130:	82025b05 	andhi	r5, r2, #5120	; 0x1400
    8134:	08000007 	stmdaeq	r0, {r0, r1, r2}
    8138:	0004c917 	andeq	ip, r4, r7, lsl r9
    813c:	025c0500 	subseq	r0, ip, #0, 10
    8140:	0000018d 	andeq	r0, r0, sp, lsl #3
    8144:	01b31724 			; <UNDEFINED> instruction: 0x01b31724
    8148:	5d050000 	stcpl	0, cr0, [r5, #-0]
    814c:	00002502 	andeq	r2, r0, r2, lsl #10
    8150:	26174800 	ldrcs	r4, [r7], -r0, lsl #16
    8154:	05000003 	streq	r0, [r0, #-3]
    8158:	0064025e 	rsbeq	r0, r4, lr, asr r2
    815c:	17500000 	ldrbne	r0, [r0, -r0]
    8160:	000004df 	ldrdeq	r0, [r0], -pc	; <UNPREDICTABLE>
    8164:	3c025f05 	stccc	15, cr5, [r2], {5}
    8168:	58000006 	stmdapl	r0, {r1, r2}
    816c:	00033117 	andeq	r3, r3, r7, lsl r1
    8170:	02600500 	rsbeq	r0, r0, #0, 10
    8174:	000000ef 	andeq	r0, r0, pc, ror #1
    8178:	04e41768 	strbteq	r1, [r4], #1896	; 0x768
    817c:	61050000 	mrsvs	r0, (UNDEF: 5)
    8180:	0000ef02 	andeq	lr, r0, r2, lsl #30
    8184:	84177000 	ldrhi	r7, [r7], #-0
    8188:	05000000 	streq	r0, [r0, #-0]
    818c:	00ef0262 	rsceq	r0, pc, r2, ror #4
    8190:	17780000 	ldrbne	r0, [r8, -r0]!
    8194:	00000494 	muleq	r0, r4, r4
    8198:	92026305 	andls	r6, r2, #335544320	; 0x14000000
    819c:	80000007 	andhi	r0, r0, r7
    81a0:	00022a17 	andeq	r2, r2, r7, lsl sl
    81a4:	02640500 	rsbeq	r0, r4, #0, 10
    81a8:	000007a2 	andeq	r0, r0, r2, lsr #15
    81ac:	04291788 	strteq	r1, [r9], #-1928	; 0xfffff878
    81b0:	65050000 	strvs	r0, [r5, #-0]
    81b4:	00002502 	andeq	r2, r0, r2, lsl #10
    81b8:	7917a000 	ldmdbvc	r7, {sp, pc}
    81bc:	05000001 	streq	r0, [r0, #-1]
    81c0:	00ef0266 	rsceq	r0, pc, r6, ror #4
    81c4:	17a40000 	strne	r0, [r4, r0]!
    81c8:	00000075 	andeq	r0, r0, r5, ror r0
    81cc:	ef026705 	svc	0x00026705
    81d0:	ac000000 	stcge	0, cr0, [r0], {-0}
    81d4:	00016817 	andeq	r6, r1, r7, lsl r8
    81d8:	02680500 	rsbeq	r0, r8, #0, 10
    81dc:	000000ef 	andeq	r0, r0, pc, ror #1
    81e0:	002d17b4 	strhteq	r1, [sp], -r4
    81e4:	69050000 	stmdbvs	r5, {}	; <UNPREDICTABLE>
    81e8:	0000ef02 	andeq	lr, r0, r2, lsl #30
    81ec:	3c17bc00 	ldccc	12, cr11, [r7], {-0}
    81f0:	05000000 	streq	r0, [r0, #-0]
    81f4:	00ef026a 	rsceq	r0, pc, sl, ror #4
    81f8:	17c40000 	strbne	r0, [r4, r0]
    81fc:	000002d9 	ldrdeq	r0, [r0], -r9
    8200:	25026b05 	strcs	r6, [r2, #-2821]	; 0xfffff4fb
    8204:	cc000000 	stcgt	0, cr0, [r0], {-0}
    8208:	010d0800 	tsteq	sp, r0, lsl #16
    820c:	07920000 	ldreq	r0, [r2, r0]
    8210:	c7090000 	strgt	r0, [r9, -r0]
    8214:	19000000 	stmdbne	r0, {}	; <UNPREDICTABLE>
    8218:	010d0800 	tsteq	sp, r0, lsl #16
    821c:	07a20000 	streq	r0, [r2, r0]!
    8220:	c7090000 	strgt	r0, [r9, -r0]
    8224:	07000000 	streq	r0, [r0, -r0]
    8228:	010d0800 	tsteq	sp, r0, lsl #16
    822c:	07b20000 	ldreq	r0, [r2, r0]!
    8230:	c7090000 	strgt	r0, [r9, -r0]
    8234:	17000000 	strne	r0, [r0, -r0]
    8238:	05f01a00 	ldrbeq	r1, [r0, #2560]!	; 0xa00
    823c:	07d60270 			; <UNDEFINED> instruction: 0x07d60270
    8240:	80170000 	andshi	r0, r7, r0
    8244:	05000002 	streq	r0, [r0, #-2]
    8248:	07d60273 			; <UNDEFINED> instruction: 0x07d60273
    824c:	17000000 	strne	r0, [r0, -r0]
    8250:	0000048b 	andeq	r0, r0, fp, lsl #9
    8254:	e6027405 	str	r7, [r2], -r5, lsl #8
    8258:	78000007 	stmdavc	r0, {r0, r1, r2}
    825c:	02d60800 	sbcseq	r0, r6, #0, 16
    8260:	07e60000 	strbeq	r0, [r6, r0]!
    8264:	c7090000 	strgt	r0, [r9, -r0]
    8268:	1d000000 	stcne	0, cr0, [r0, #-0]
    826c:	002c0800 	eoreq	r0, ip, r0, lsl #16
    8270:	07f60000 	ldrbeq	r0, [r6, r0]!
    8274:	c7090000 	strgt	r0, [r9, -r0]
    8278:	1d000000 	stcne	0, cr0, [r0, #-0]
    827c:	05f01b00 	ldrbeq	r1, [r0, #2816]!	; 0xb00
    8280:	08180255 	ldmdaeq	r8, {r0, r2, r4, r6, r9}
    8284:	6a1c0000 	bvs	70828c <__bss_end__+0x6fe2f4>
    8288:	05000003 	streq	r0, [r0, #-3]
    828c:	0681026c 	streq	r0, [r1], ip, ror #4
    8290:	b61c0000 	ldrlt	r0, [ip], -r0
    8294:	05000004 	streq	r0, [r0, #-4]
    8298:	07b20275 			; <UNDEFINED> instruction: 0x07b20275
    829c:	08000000 	stmdaeq	r0, {}	; <UNPREDICTABLE>
    82a0:	0000010d 	andeq	r0, r0, sp, lsl #2
    82a4:	00000828 	andeq	r0, r0, r8, lsr #16
    82a8:	0000c709 	andeq	ip, r0, r9, lsl #14
    82ac:	1d001800 	stcne	8, cr1, [r0, #-0]
    82b0:	00000833 	andeq	r0, r0, r3, lsr r8
    82b4:	00042415 	andeq	r2, r4, r5, lsl r4
    82b8:	040d0000 	streq	r0, [sp], #-0
    82bc:	00000828 	andeq	r0, r0, r8, lsr #16
    82c0:	0177040d 	cmneq	r7, sp, lsl #8
    82c4:	4a1d0000 	bmi	7482cc <__bss_end__+0x73e334>
    82c8:	15000008 	strne	r0, [r0, #-8]
    82cc:	00000025 	andeq	r0, r0, r5, lsr #32
    82d0:	50040d00 	andpl	r0, r4, r0, lsl #26
    82d4:	0d000008 	stceq	0, cr0, [r0, #-32]	; 0xffffffe0
    82d8:	00083f04 	andeq	r3, r8, r4, lsl #30
    82dc:	05ef0800 	strbeq	r0, [pc, #2048]!	; 8ae4 <emit+0x108>
    82e0:	08660000 	stmdaeq	r6!, {}^	; <UNPREDICTABLE>
    82e4:	c7090000 	strgt	r0, [r9, -r0]
    82e8:	02000000 	andeq	r0, r0, #0
    82ec:	043d1e00 	ldrteq	r1, [sp], #-3584	; 0xfffff200
    82f0:	fd050000 	stc2	0, cr0, [r5, #-0]
    82f4:	00042402 	andeq	r2, r4, r2, lsl #8
    82f8:	04361e00 	ldrteq	r1, [r6], #-3584	; 0xfffff200
    82fc:	fe050000 	cdp2	0, 0, cr0, cr5, cr0, {0}
    8300:	00042a02 	andeq	r2, r4, r2, lsl #20
    8304:	00251400 	eoreq	r1, r5, r0, lsl #8
    8308:	088d0000 	stmeq	sp, {}	; <UNPREDICTABLE>
    830c:	25150000 	ldrcs	r0, [r5, #-0]
    8310:	00000000 	andeq	r0, r0, r0
    8314:	0001cc1f 	andeq	ip, r1, pc, lsl ip
    8318:	981d0600 	ldmdals	sp, {r9, sl}
    831c:	0d000008 	stceq	0, cr0, [r0, #-32]	; 0xffffffe0
    8320:	00087e04 	andeq	r7, r8, r4, lsl #28
    8324:	00251400 	eoreq	r1, r5, r0, lsl #8
    8328:	08ad0000 	stmiaeq	sp!, {}	; <UNPREDICTABLE>
    832c:	85150000 	ldrhi	r0, [r5, #-0]
    8330:	00000005 	andeq	r0, r0, r5
    8334:	0007691f 	andeq	r6, r7, pc, lsl r9
    8338:	b8220600 	stmdalt	r2!, {r9, sl}
    833c:	0d000008 	stceq	0, cr0, [r0, #-32]	; 0xffffffe0
    8340:	00089e04 	andeq	r9, r8, r4, lsl #28
    8344:	08af2000 	stmiaeq	pc!, {sp}	; <UNPREDICTABLE>
    8348:	2b010000 	blcs	48350 <__bss_end__+0x3e3b8>
    834c:	00009160 	andeq	r9, r0, r0, ror #2
    8350:	00000014 	andeq	r0, r0, r4, lsl r0
    8354:	08f89c01 	ldmeq	r8!, {r0, sl, fp, ip, pc}^
    8358:	73210000 			; <UNDEFINED> instruction: 0x73210000
    835c:	01006365 	tsteq	r0, r5, ror #6
    8360:	00002c2b 	andeq	r2, r0, fp, lsr #24
    8364:	00106a00 	andseq	r6, r0, r0, lsl #20
    8368:	91702200 	cmnls	r0, r0, lsl #4
    836c:	08f80000 	ldmeq	r8!, {}^	; <UNPREDICTABLE>
    8370:	01230000 			; <UNDEFINED> instruction: 0x01230000
    8374:	01f30750 	mvnseq	r0, r0, asr r7
    8378:	03e80a50 	mvneq	r0, #80, 20	; 0x50000
    837c:	2000001e 	andcs	r0, r0, lr, lsl r0
    8380:	00000843 	andeq	r0, r0, r3, asr #16
    8384:	914c2801 	cmpls	ip, r1, lsl #16
    8388:	00140000 	andseq	r0, r4, r0
    838c:	9c010000 	stcls	0, cr0, [r1], {-0}
    8390:	00000931 	andeq	r0, r0, r1, lsr r9
    8394:	00736d21 	rsbseq	r6, r3, r1, lsr #26
    8398:	002c2801 	eoreq	r2, ip, r1, lsl #16
    839c:	108b0000 	addne	r0, fp, r0
    83a0:	5c220000 	stcpl	0, cr0, [r2], #-0
    83a4:	31000091 	swpcc	r0, r1, [r0]	; <UNPREDICTABLE>
    83a8:	23000009 	movwcs	r0, #9
    83ac:	f3075001 	vhadd.u8	d5, d7, d1
    83b0:	e80a5001 	stmda	sl, {r0, ip, lr}
    83b4:	00001e03 	andeq	r1, r0, r3, lsl #28
    83b8:	0008f720 	andeq	pc, r8, r0, lsr #14
    83bc:	281f0100 	ldmdacs	pc, {r8}	; <UNPREDICTABLE>
    83c0:	24000091 	strcs	r0, [r0], #-145	; 0xffffff6f
    83c4:	01000000 	mrseq	r0, (UNDEF: 0)
    83c8:	00098f9c 	muleq	r9, ip, pc	; <UNPREDICTABLE>
    83cc:	73752100 	cmnvc	r5, #0, 2
    83d0:	2c1f0100 	ldfcss	f0, [pc], {-0}
    83d4:	ac000000 	stcge	0, cr0, [r0], {-0}
    83d8:	24000010 	strcs	r0, [r0], #-16
    83dc:	01006272 	tsteq	r0, r2, ror r2
    83e0:	00002c20 	andeq	r2, r0, r0, lsr #24
    83e4:	25540100 	ldrbcs	r0, [r4, #-256]	; 0xffffff00
    83e8:	00009138 	andeq	r9, r0, r8, lsr r1
    83ec:	00000010 	andeq	r0, r0, r0, lsl r0
    83f0:	00000985 	andeq	r0, r0, r5, lsl #19
    83f4:	00617226 	rsbeq	r7, r1, r6, lsr #4
    83f8:	002c2201 	eoreq	r2, ip, r1, lsl #4
    83fc:	10ca0000 	sbcne	r0, sl, r0
    8400:	3c270000 	stccc	0, cr0, [r7], #-0
    8404:	8f000091 	svchi	0x00000091
    8408:	00000009 	andeq	r0, r0, r9
    840c:	00913427 	addseq	r3, r1, r7, lsr #8
    8410:	00098f00 	andeq	r8, r9, r0, lsl #30
    8414:	a0280000 	eorge	r0, r8, r0
    8418:	01000008 	tsteq	r0, r8
    841c:	00002c16 	andeq	r2, r0, r6, lsl ip
    8420:	00911c00 	addseq	r1, r1, r0, lsl #24
    8424:	00000c00 	andeq	r0, r0, r0, lsl #24
    8428:	bd9c0100 	ldflts	f0, [ip]
    842c:	24000009 	strcs	r0, [r0], #-9
    8430:	1a010075 	bne	4860c <__bss_end__+0x3e674>
    8434:	0000002c 	andeq	r0, r0, ip, lsr #32
    8438:	24275001 	strtcs	r5, [r7], #-1
    843c:	bd000091 	stclt	0, cr0, [r0, #-580]	; 0xfffffdbc
    8440:	00000009 	andeq	r0, r0, r9
    8444:	0008e428 	andeq	lr, r8, r8, lsr #8
    8448:	2c110100 	ldfcss	f0, [r1], {-0}
    844c:	08000000 	stmdaeq	r0, {}	; <UNPREDICTABLE>
    8450:	14000091 	strne	r0, [r0], #-145	; 0xffffff6f
    8454:	01000000 	mrseq	r0, (UNDEF: 0)
    8458:	0009ea9c 	muleq	r9, ip, sl
    845c:	91142200 	tstls	r4, r0, lsl #4
    8460:	0a0f0000 	beq	3c8468 <__bss_end__+0x3be4d0>
    8464:	01230000 			; <UNDEFINED> instruction: 0x01230000
    8468:	040c0550 	streq	r0, [ip], #-1360	; 0xfffffab0
    846c:	00200030 	eoreq	r0, r0, r0, lsr r0
    8470:	08b92000 	ldmeq	r9!, {sp}
    8474:	05010000 	streq	r0, [r1, #-0]
    8478:	000090ec 	andeq	r9, r0, ip, ror #1
    847c:	0000001c 	andeq	r0, r0, ip, lsl r0
    8480:	0a0f9c01 	beq	3ef48c <__bss_end__+0x3e54f4>
    8484:	d8290000 	stmdale	r9!, {}	; <UNPREDICTABLE>
    8488:	01000008 	tsteq	r0, r8
    848c:	00002c05 	andeq	r2, r0, r5, lsl #24
    8490:	0010dd00 	andseq	sp, r0, r0, lsl #26
    8494:	de2a0000 	cdple	0, 2, cr0, cr10, cr0, {0}
    8498:	de000008 	cdple	0, 0, cr0, cr0, cr8, {0}
    849c:	06000008 	streq	r0, [r0], -r8
    84a0:	0cc500a7 	stcleq	0, cr0, [r5], {167}	; 0xa7
    84a4:	00040000 	andeq	r0, r4, r0
    84a8:	000019ad 	andeq	r1, r0, sp, lsr #19
    84ac:	03a40104 			; <UNDEFINED> instruction: 0x03a40104
    84b0:	330c0000 	movwcc	r0, #49152	; 0xc000
    84b4:	46000009 	strmi	r0, [r0], -r9
    84b8:	c0000009 	andgt	r0, r0, r9
    84bc:	78000091 	stmdavc	r0, {r0, r4, r7}
    84c0:	a6000001 	strge	r0, [r0], -r1
    84c4:	0200000d 	andeq	r0, r0, #13
    84c8:	6e690504 	cdpvs	5, 6, cr0, cr9, cr4, {0}
    84cc:	04030074 	streq	r0, [r3], #-116	; 0xffffff8c
    84d0:	00005707 	andeq	r5, r0, r7, lsl #14
    84d4:	002c0400 	eoreq	r0, ip, r0, lsl #8
    84d8:	01030000 	mrseq	r0, (UNDEF: 3)
    84dc:	0002c806 	andeq	ip, r2, r6, lsl #16
    84e0:	05020300 	streq	r0, [r2, #-768]	; 0xfffffd00
    84e4:	000002e2 	andeq	r0, r0, r2, ror #5
    84e8:	a0050403 	andge	r0, r5, r3, lsl #8
    84ec:	03000000 	movweq	r0, #0
    84f0:	009b0508 	addseq	r0, fp, r8, lsl #10
    84f4:	01030000 	mrseq	r0, (UNDEF: 3)
    84f8:	0002c608 	andeq	ip, r2, r8, lsl #12
    84fc:	07020300 	streq	r0, [r2, -r0, lsl #6]
    8500:	0000020e 	andeq	r0, r0, lr, lsl #4
    8504:	52070403 	andpl	r0, r7, #50331648	; 0x3000000
    8508:	03000000 	movweq	r0, #0
    850c:	004d0708 	subeq	r0, sp, r8, lsl #14
    8510:	b4050000 	strlt	r0, [r5], #-0
    8514:	02000002 	andeq	r0, r0, #2
    8518:	00002507 	andeq	r2, r0, r7, lsl #10
    851c:	02a30500 	adceq	r0, r3, #0, 10
    8520:	2c030000 	stccs	0, cr0, [r3], {-0}
    8524:	00000046 	andeq	r0, r0, r6, asr #32
    8528:	00038d05 	andeq	r8, r3, r5, lsl #26
    852c:	46720300 	ldrbtmi	r0, [r2], -r0, lsl #6
    8530:	06000000 	streq	r0, [r0], -r0
    8534:	00000251 	andeq	r0, r0, r1, asr r2
    8538:	2c016504 	cfstr32cs	mvfx6, [r1], {4}
    853c:	07000000 	streq	r0, [r0, -r0]
    8540:	bca60304 	stclt	3, cr0, [r6], #16
    8544:	08000000 	stmdaeq	r0, {}	; <UNPREDICTABLE>
    8548:	0000024b 	andeq	r0, r0, fp, asr #4
    854c:	0091a803 	addseq	sl, r1, r3, lsl #16
    8550:	dd080000 	stcle	0, cr0, [r8, #-0]
    8554:	03000001 	movweq	r0, #1
    8558:	0000bca9 	andeq	fp, r0, r9, lsr #25
    855c:	54090000 	strpl	r0, [r9], #-0
    8560:	cc000000 	stcgt	0, cr0, [r0], {-0}
    8564:	0a000000 	beq	856c <ckfree+0x84>
    8568:	000000cc 	andeq	r0, r0, ip, asr #1
    856c:	04030003 	streq	r0, [r3], #-3
    8570:	00027707 	andeq	r7, r2, r7, lsl #14
    8574:	03080b00 	movweq	r0, #35584	; 0x8b00
    8578:	0000f4a3 	andeq	pc, r0, r3, lsr #9
    857c:	03770c00 	cmneq	r7, #0, 24
    8580:	a5030000 	strge	r0, [r3, #-0]
    8584:	00000025 	andeq	r0, r0, r5, lsr #32
    8588:	037f0c00 	cmneq	pc, #0, 24
    858c:	aa030000 	bge	c8594 <__bss_end__+0xbe5fc>
    8590:	0000009d 	muleq	r0, sp, r0
    8594:	0a050004 	beq	1485ac <__bss_end__+0x13e614>
    8598:	03000003 	movweq	r0, #3
    859c:	0000d3ab 	andeq	sp, r0, fp, lsr #7
    85a0:	019a0500 	orrseq	r0, sl, r0, lsl #10
    85a4:	af030000 	svcge	0x00030000
    85a8:	00000070 	andeq	r0, r0, r0, ror r0
    85ac:	040e040d 	streq	r0, [lr], #-1037	; 0xfffffbf3
    85b0:	00000112 	andeq	r0, r0, r2, lsl r1
    85b4:	cf080103 	svcgt	0x00080103
    85b8:	0f000002 	svceq	0x00000002
    85bc:	00000112 	andeq	r0, r0, r2, lsl r1
    85c0:	00042105 	andeq	r2, r4, r5, lsl #2
    85c4:	62160500 	andsvs	r0, r6, #0, 10
    85c8:	10000000 	andne	r0, r0, r0
    85cc:	000001ab 	andeq	r0, r0, fp, lsr #3
    85d0:	7c2d0518 	cfstr32vc	mvfx0, [sp], #-96	; 0xffffffa0
    85d4:	0c000001 	stceq	0, cr0, [r0], {1}
    85d8:	0000032b 	andeq	r0, r0, fp, lsr #6
    85dc:	017c2f05 	cmneq	ip, r5, lsl #30
    85e0:	11000000 	mrsne	r0, (UNDEF: 0)
    85e4:	05006b5f 	streq	r6, [r0, #-2911]	; 0xfffff4a1
    85e8:	00002530 	andeq	r2, r0, r0, lsr r5
    85ec:	620c0400 	andvs	r0, ip, #0, 8
    85f0:	05000003 	streq	r0, [r0, #-3]
    85f4:	00002530 	andeq	r2, r0, r0, lsr r5
    85f8:	940c0800 	strls	r0, [ip], #-2048	; 0xfffff800
    85fc:	05000001 	streq	r0, [r0, #-1]
    8600:	00002530 	andeq	r2, r0, r0, lsr r5
    8604:	6f0c0c00 	svcvs	0x000c0c00
    8608:	05000004 	streq	r0, [r0, #-4]
    860c:	00002530 	andeq	r2, r0, r0, lsr r5
    8610:	5f111000 	svcpl	0x00111000
    8614:	31050078 	tstcc	r5, r8, ror r0
    8618:	00000182 	andeq	r0, r0, r2, lsl #3
    861c:	040e0014 	streq	r0, [lr], #-20	; 0xffffffec
    8620:	00000129 	andeq	r0, r0, r9, lsr #2
    8624:	00011e09 	andeq	r1, r1, r9, lsl #28
    8628:	00019200 	andeq	r9, r1, r0, lsl #4
    862c:	00cc0a00 	sbceq	r0, ip, r0, lsl #20
    8630:	00000000 	andeq	r0, r0, r0
    8634:	0001d810 	andeq	sp, r1, r0, lsl r8
    8638:	35052400 	strcc	r2, [r5, #-1024]	; 0xfffffc00
    863c:	0000020b 	andeq	r0, r0, fp, lsl #4
    8640:	0000920c 	andeq	r9, r0, ip, lsl #4
    8644:	25370500 	ldrcs	r0, [r7, #-1280]!	; 0xfffffb00
    8648:	00000000 	andeq	r0, r0, r0
    864c:	0003950c 	andeq	r9, r3, ip, lsl #10
    8650:	25380500 	ldrcs	r0, [r8, #-1280]!	; 0xfffffb00
    8654:	04000000 	streq	r0, [r0], #-0
    8658:	0000b50c 	andeq	fp, r0, ip, lsl #10
    865c:	25390500 	ldrcs	r0, [r9, #-1280]!	; 0xfffffb00
    8660:	08000000 	stmdaeq	r0, {}	; <UNPREDICTABLE>
    8664:	0004f70c 	andeq	pc, r4, ip, lsl #14
    8668:	253a0500 	ldrcs	r0, [sl, #-1280]!	; 0xfffffb00
    866c:	0c000000 	stceq	0, cr0, [r0], {-0}
    8670:	0002870c 	andeq	r8, r2, ip, lsl #14
    8674:	253b0500 	ldrcs	r0, [fp, #-1280]!	; 0xfffffb00
    8678:	10000000 	andne	r0, r0, r0
    867c:	00026d0c 	andeq	r6, r2, ip, lsl #26
    8680:	253c0500 	ldrcs	r0, [ip, #-1280]!	; 0xfffffb00
    8684:	14000000 	strne	r0, [r0], #-0
    8688:	0004740c 	andeq	r7, r4, ip, lsl #8
    868c:	253d0500 	ldrcs	r0, [sp, #-1280]!	; 0xfffffb00
    8690:	18000000 	stmdane	r0, {}	; <UNPREDICTABLE>
    8694:	0002ec0c 	andeq	lr, r2, ip, lsl #24
    8698:	253e0500 	ldrcs	r0, [lr, #-1280]!	; 0xfffffb00
    869c:	1c000000 	stcne	0, cr0, [r0], {-0}
    86a0:	0004be0c 	andeq	fp, r4, ip, lsl #28
    86a4:	253f0500 	ldrcs	r0, [pc, #-1280]!	; 81ac <check_free_write+0xdc>
    86a8:	20000000 	andcs	r0, r0, r0
    86ac:	00f51200 	rscseq	r1, r5, r0, lsl #4
    86b0:	01080000 	mrseq	r0, (UNDEF: 8)
    86b4:	024b4805 	subeq	r4, fp, #327680	; 0x50000
    86b8:	870c0000 	strhi	r0, [ip, -r0]
    86bc:	05000001 	streq	r0, [r0, #-1]
    86c0:	00024b49 	andeq	r4, r2, r9, asr #22
    86c4:	000c0000 	andeq	r0, ip, r0
    86c8:	05000000 	streq	r0, [r0, #-0]
    86cc:	00024b4a 	andeq	r4, r2, sl, asr #22
    86d0:	13138000 	tstne	r3, #0
    86d4:	05000004 	streq	r0, [r0, #-4]
    86d8:	00011e4c 	andeq	r1, r1, ip, asr #28
    86dc:	13010000 	movwne	r0, #4096	; 0x1000
    86e0:	0000011a 	andeq	r0, r0, sl, lsl r1
    86e4:	011e4f05 	tsteq	lr, r5, lsl #30
    86e8:	01040000 	mrseq	r0, (UNDEF: 4)
    86ec:	010a0900 	tsteq	sl, r0, lsl #18
    86f0:	025b0000 	subseq	r0, fp, #0
    86f4:	cc0a0000 	stcgt	0, cr0, [sl], {-0}
    86f8:	1f000000 	svcne	0x00000000
    86fc:	02901200 	addseq	r1, r0, #0, 4
    8700:	01900000 	orrseq	r0, r0, r0
    8704:	02995b05 	addseq	r5, r9, #5120	; 0x1400
    8708:	2b0c0000 	blcs	308710 <__bss_end__+0x2fe778>
    870c:	05000003 	streq	r0, [r0, #-3]
    8710:	0002995c 	andeq	r9, r2, ip, asr r9
    8714:	430c0000 	movwmi	r0, #49152	; 0xc000
    8718:	05000003 	streq	r0, [r0, #-3]
    871c:	0000255d 	andeq	r2, r0, sp, asr r5
    8720:	8f0c0400 	svchi	0x000c0400
    8724:	05000001 	streq	r0, [r0, #-1]
    8728:	00029f5f 	andeq	r9, r2, pc, asr pc
    872c:	f50c0800 			; <UNDEFINED> instruction: 0xf50c0800
    8730:	05000000 	streq	r0, [r0, #-0]
    8734:	00020b60 	andeq	r0, r2, r0, ror #22
    8738:	0e008800 	cdpeq	8, 0, cr8, cr0, cr0, {0}
    873c:	00025b04 	andeq	r5, r2, r4, lsl #22
    8740:	02af0900 	adceq	r0, pc, #0, 18
    8744:	02af0000 	adceq	r0, pc, #0
    8748:	cc0a0000 	stcgt	0, cr0, [sl], {-0}
    874c:	1f000000 	svcne	0x00000000
    8750:	b5040e00 	strlt	r0, [r4, #-3584]	; 0xfffff200
    8754:	14000002 	strne	r0, [r0], #-2
    8758:	0002f610 	andeq	pc, r2, r0, lsl r6	; <UNPREDICTABLE>
    875c:	73050800 	movwvc	r0, #22528	; 0x5800
    8760:	000002db 	ldrdeq	r0, [r0], -fp
    8764:	0000af0c 	andeq	sl, r0, ip, lsl #30
    8768:	db740500 	blle	1d09b70 <__bss_end__+0x1cffbd8>
    876c:	00000002 	andeq	r0, r0, r2
    8770:	00000c0c 	andeq	r0, r0, ip, lsl #24
    8774:	25750500 	ldrbcs	r0, [r5, #-1280]!	; 0xfffffb00
    8778:	04000000 	streq	r0, [r0], #-0
    877c:	54040e00 	strpl	r0, [r4], #-3584	; 0xfffff200
    8780:	10000000 	andne	r0, r0, r0
    8784:	00000315 	andeq	r0, r0, r5, lsl r3
    8788:	0bb30568 	bleq	fecc9d30 <__bss_end__+0xfecbfd98>
    878c:	11000004 	tstne	r0, r4
    8790:	0500705f 	streq	r7, [r0, #-95]	; 0xffffffa1
    8794:	0002dbb4 			; <UNDEFINED> instruction: 0x0002dbb4
    8798:	5f110000 	svcpl	0x00110000
    879c:	b5050072 	strlt	r0, [r5, #-114]	; 0xffffff8e
    87a0:	00000025 	andeq	r0, r0, r5, lsr #32
    87a4:	775f1104 	ldrbvc	r1, [pc, -r4, lsl #2]
    87a8:	25b60500 	ldrcs	r0, [r6, #1280]!	; 0x500
    87ac:	08000000 	stmdaeq	r0, {}	; <UNPREDICTABLE>
    87b0:	0001130c 	andeq	r1, r1, ip, lsl #6
    87b4:	3fb70500 	svccc	0x00b70500
    87b8:	0c000000 	stceq	0, cr0, [r0], {-0}
    87bc:	0001f40c 	andeq	pc, r1, ip, lsl #8
    87c0:	3fb80500 	svccc	0x00b80500
    87c4:	0e000000 	cdpeq	0, 0, cr0, cr0, cr0, {0}
    87c8:	66625f11 	uqadd16vs	r5, r2, r1
    87cc:	b6b90500 	ldrtlt	r0, [r9], r0, lsl #10
    87d0:	10000002 	andne	r0, r0, r2
    87d4:	00006c0c 	andeq	r6, r0, ip, lsl #24
    87d8:	25ba0500 	ldrcs	r0, [sl, #1280]!	; 0x500
    87dc:	18000000 	stmdane	r0, {}	; <UNPREDICTABLE>
    87e0:	0001030c 	andeq	r0, r1, ip, lsl #6
    87e4:	0ac10500 	beq	ff049bec <__bss_end__+0xff03fc54>
    87e8:	1c000001 	stcne	0, cr0, [r0], {1}
    87ec:	000a780c 	andeq	r7, sl, ip, lsl #16
    87f0:	66c30500 	strbvs	r0, [r3], r0, lsl #10
    87f4:	20000005 	andcs	r0, r0, r5
    87f8:	00060c0c 	andeq	r0, r6, ip, lsl #24
    87fc:	90c50500 	sbcls	r0, r5, r0, lsl #10
    8800:	24000005 	strcs	r0, [r0], #-5
    8804:	0003870c 	andeq	r8, r3, ip, lsl #14
    8808:	b4c80500 	strblt	r0, [r8], #1280	; 0x500
    880c:	28000005 	stmdacs	r0, {r0, r2}
    8810:	0004d80c 	andeq	sp, r4, ip, lsl #16
    8814:	cec90500 	cdpgt	5, 12, cr0, cr9, cr0, {0}
    8818:	2c000005 	stccs	0, cr0, [r0], {5}
    881c:	62755f11 	rsbsvs	r5, r5, #17, 30	; 0x44
    8820:	b6cc0500 	strblt	r0, [ip], r0, lsl #10
    8824:	30000002 	andcc	r0, r0, r2
    8828:	70755f11 	rsbsvc	r5, r5, r1, lsl pc
    882c:	dbcd0500 	blle	ff349c34 <__bss_end__+0xff33fc9c>
    8830:	38000002 	stmdacc	r0, {r1}
    8834:	72755f11 	rsbsvc	r5, r5, #17, 30	; 0x44
    8838:	25ce0500 	strbcs	r0, [lr, #1280]	; 0x500
    883c:	3c000000 	stccc	0, cr0, [r0], {-0}
    8840:	0000a90c 	andeq	sl, r0, ip, lsl #18
    8844:	d4d10500 	ldrble	r0, [r1], #1280	; 0x500
    8848:	40000005 	andmi	r0, r0, r5
    884c:	0004b00c 	andeq	fp, r4, ip
    8850:	e4d20500 	ldrb	r0, [r2], #1280	; 0x500
    8854:	43000005 	movwmi	r0, #5
    8858:	626c5f11 	rsbvs	r5, ip, #17, 30	; 0x44
    885c:	b6d50500 	ldrblt	r0, [r5], r0, lsl #10
    8860:	44000002 	strmi	r0, [r0], #-2
    8864:	0001380c 	andeq	r3, r1, ip, lsl #16
    8868:	25d80500 	ldrbcs	r0, [r8, #1280]	; 0x500
    886c:	4c000000 	stcmi	0, cr0, [r0], {-0}
    8870:	0001490c 	andeq	r4, r1, ip, lsl #18
    8874:	7bd90500 	blvc	ff649c7c <__bss_end__+0xff63fce4>
    8878:	50000000 	andpl	r0, r0, r0
    887c:	000a190c 	andeq	r1, sl, ip, lsl #18
    8880:	29dc0500 	ldmibcs	ip, {r8, sl}^
    8884:	54000004 	strpl	r0, [r0], #-4
    8888:	00025f0c 	andeq	r5, r2, ip, lsl #30
    888c:	ffe00500 			; <UNDEFINED> instruction: 0xffe00500
    8890:	58000000 	stmdapl	r0, {}	; <UNPREDICTABLE>
    8894:	00031d0c 	andeq	r1, r3, ip, lsl #26
    8898:	f4e20500 	vld2.16	{d16[0],d17[0]}, [r2], r0
    889c:	5c000000 	stcpl	0, cr0, [r0], {-0}
    88a0:	0002650c 	andeq	r6, r2, ip, lsl #10
    88a4:	25e30500 	strbcs	r0, [r3, #1280]!	; 0x500
    88a8:	64000000 	strvs	r0, [r0], #-0
    88ac:	00251500 	eoreq	r1, r5, r0, lsl #10
    88b0:	04290000 	strteq	r0, [r9], #-0
    88b4:	29160000 	ldmdbcs	r6, {}	; <UNPREDICTABLE>
    88b8:	16000004 	strne	r0, [r0], -r4
    88bc:	0000010a 	andeq	r0, r0, sl, lsl #2
    88c0:	00010c16 	andeq	r0, r1, r6, lsl ip
    88c4:	00251600 	eoreq	r1, r5, r0, lsl #12
    88c8:	0e000000 	cdpeq	0, 0, cr0, cr0, cr0, {0}
    88cc:	00043404 	andeq	r3, r4, r4, lsl #8
    88d0:	04290f00 	strteq	r0, [r9], #-3840	; 0xfffff100
    88d4:	6a170000 	bvs	5c88dc <__bss_end__+0x5be944>
    88d8:	28000003 	stmdacs	r0, {r0, r1}
    88dc:	02380504 	eorseq	r0, r8, #4, 10	; 0x1000000
    88e0:	00000566 	andeq	r0, r0, r6, ror #10
    88e4:	0002db18 	andeq	sp, r2, r8, lsl fp
    88e8:	023a0500 	eorseq	r0, sl, #0, 10
    88ec:	00000025 	andeq	r0, r0, r5, lsr #32
    88f0:	04841800 	streq	r1, [r4], #2048	; 0x800
    88f4:	3f050000 	svccc	0x00050000
    88f8:	00063b02 	andeq	r3, r6, r2, lsl #22
    88fc:	e4180400 	ldr	r0, [r8], #-1024	; 0xfffffc00
    8900:	05000001 	streq	r0, [r0, #-1]
    8904:	063b023f 			; <UNDEFINED> instruction: 0x063b023f
    8908:	18080000 	stmdane	r8, {}	; <UNPREDICTABLE>
    890c:	000001a3 	andeq	r0, r0, r3, lsr #3
    8910:	3b023f05 	blcc	9852c <__bss_end__+0x8e594>
    8914:	0c000006 	stceq	0, cr0, [r0], {6}
    8918:	00033e18 	andeq	r3, r3, r8, lsl lr
    891c:	02410500 	subeq	r0, r1, #0, 10
    8920:	00000025 	andeq	r0, r0, r5, lsr #32
    8924:	001a1810 	andseq	r1, sl, r0, lsl r8
    8928:	42050000 	andmi	r0, r5, #0
    892c:	00081d02 	andeq	r1, r8, r2, lsl #26
    8930:	49181400 	ldmdbmi	r8, {sl, ip}
    8934:	05000004 	streq	r0, [r0, #-4]
    8938:	00250244 	eoreq	r0, r5, r4, asr #4
    893c:	18300000 	ldmdane	r0!, {}	; <UNPREDICTABLE>
    8940:	00000348 	andeq	r0, r0, r8, asr #6
    8944:	8a024505 	bhi	99d60 <__bss_end__+0x8fdc8>
    8948:	34000005 	strcc	r0, [r0], #-5
    894c:	00029818 	andeq	r9, r2, r8, lsl r8
    8950:	02470500 	subeq	r0, r7, #0, 10
    8954:	00000025 	andeq	r0, r0, r5, lsr #32
    8958:	03581838 	cmpeq	r8, #56, 16	; 0x380000
    895c:	49050000 	stmdbmi	r5, {}	; <UNPREDICTABLE>
    8960:	00083802 	andeq	r3, r8, r2, lsl #16
    8964:	43183c00 	tstmi	r8, #0, 24
    8968:	05000002 	streq	r0, [r0, #-2]
    896c:	017c024c 	cmneq	ip, ip, asr #4
    8970:	18400000 	stmdane	r0, {}^	; <UNPREDICTABLE>
    8974:	000001c2 	andeq	r0, r0, r2, asr #3
    8978:	25024d05 	strcs	r4, [r2, #-3333]	; 0xfffff2fb
    897c:	44000000 	strmi	r0, [r0], #-0
    8980:	0004f218 	andeq	pc, r4, r8, lsl r2	; <UNPREDICTABLE>
    8984:	024e0500 	subeq	r0, lr, #0, 10
    8988:	0000017c 	andeq	r0, r0, ip, ror r1
    898c:	02aa1848 	adceq	r1, sl, #72, 16	; 0x480000
    8990:	4f050000 	svcmi	0x00050000
    8994:	00083e02 	andeq	r3, r8, r2, lsl #28
    8998:	ec184c00 	ldc	12, cr4, [r8], {-0}
    899c:	05000001 	streq	r0, [r0, #-1]
    89a0:	00250252 	eoreq	r0, r5, r2, asr r2
    89a4:	18500000 	ldmdane	r0, {}^	; <UNPREDICTABLE>
    89a8:	00000141 	andeq	r0, r0, r1, asr #2
    89ac:	0c025305 	stceq	3, cr5, [r2], {5}
    89b0:	54000001 	strpl	r0, [r0], #-1
    89b4:	0002d418 	andeq	sp, r2, r8, lsl r4
    89b8:	02760500 	rsbseq	r0, r6, #0, 10
    89bc:	000007fb 	strdeq	r0, [r0], -fp
    89c0:	02901958 	addseq	r1, r0, #88, 18	; 0x160000
    89c4:	7a050000 	bvc	1489cc <__bss_end__+0x13ea34>
    89c8:	00029902 	andeq	r9, r2, r2, lsl #18
    89cc:	19014800 	stmdbne	r1, {fp, lr}
    89d0:	00000221 	andeq	r0, r0, r1, lsr #4
    89d4:	5b027b05 	blpl	a75f0 <__bss_end__+0x9d658>
    89d8:	4c000002 	stcmi	0, cr0, [r0], {2}
    89dc:	049e1901 	ldreq	r1, [lr], #2305	; 0x901
    89e0:	7f050000 	svcvc	0x00050000
    89e4:	00084f02 	andeq	r4, r8, r2, lsl #30
    89e8:	1902dc00 	stmdbne	r2, {sl, fp, ip, lr, pc}
    89ec:	0000010b 	andeq	r0, r0, fp, lsl #2
    89f0:	00028405 	andeq	r8, r2, r5, lsl #8
    89f4:	e0000006 	and	r0, r0, r6
    89f8:	00f01902 	rscseq	r1, r0, r2, lsl #18
    89fc:	85050000 	strhi	r0, [r5, #-0]
    8a00:	00085b02 	andeq	r5, r8, r2, lsl #22
    8a04:	0002ec00 	andeq	lr, r2, r0, lsl #24
    8a08:	040b040e 	streq	r0, [fp], #-1038	; 0xfffffbf2
    8a0c:	25150000 	ldrcs	r0, [r5, #-0]
    8a10:	8a000000 	bhi	8a18 <emit+0x3c>
    8a14:	16000005 	strne	r0, [r0], -r5
    8a18:	00000429 	andeq	r0, r0, r9, lsr #8
    8a1c:	00010a16 	andeq	r0, r1, r6, lsl sl
    8a20:	058a1600 	streq	r1, [sl, #1536]	; 0x600
    8a24:	25160000 	ldrcs	r0, [r6, #-0]
    8a28:	00000000 	andeq	r0, r0, r0
    8a2c:	0119040e 	tsteq	r9, lr, lsl #8
    8a30:	040e0000 	streq	r0, [lr], #-0
    8a34:	0000056c 	andeq	r0, r0, ip, ror #10
    8a38:	00008615 	andeq	r8, r0, r5, lsl r6
    8a3c:	0005b400 	andeq	fp, r5, r0, lsl #8
    8a40:	04291600 	strteq	r1, [r9], #-1536	; 0xfffffa00
    8a44:	0a160000 	beq	588a4c <__bss_end__+0x57eab4>
    8a48:	16000001 	strne	r0, [r0], -r1
    8a4c:	00000086 	andeq	r0, r0, r6, lsl #1
    8a50:	00002516 	andeq	r2, r0, r6, lsl r5
    8a54:	040e0000 	streq	r0, [lr], #-0
    8a58:	00000596 	muleq	r0, r6, r5
    8a5c:	00002515 	andeq	r2, r0, r5, lsl r5
    8a60:	0005ce00 	andeq	ip, r5, r0, lsl #28
    8a64:	04291600 	strteq	r1, [r9], #-1536	; 0xfffffa00
    8a68:	0a160000 	beq	588a70 <__bss_end__+0x57ead8>
    8a6c:	00000001 	andeq	r0, r0, r1
    8a70:	05ba040e 	ldreq	r0, [sl, #1038]!	; 0x40e
    8a74:	54090000 	strpl	r0, [r9], #-0
    8a78:	e4000000 	str	r0, [r0], #-0
    8a7c:	0a000005 	beq	8a98 <emit+0xbc>
    8a80:	000000cc 	andeq	r0, r0, ip, asr #1
    8a84:	54090002 	strpl	r0, [r9], #-2
    8a88:	f4000000 	vst4.8	{d0-d3}, [r0], r0
    8a8c:	0a000005 	beq	8aa8 <emit+0xcc>
    8a90:	000000cc 	andeq	r0, r0, ip, asr #1
    8a94:	03060000 	movweq	r0, #24576	; 0x6000
    8a98:	05000003 	streq	r0, [r0, #-3]
    8a9c:	02e1011d 	rsceq	r0, r1, #1073741831	; 0x40000007
    8aa0:	7e1a0000 	cdpvc	0, 1, cr0, cr10, cr0, {0}
    8aa4:	0c000004 	stceq	0, cr0, [r0], {4}
    8aa8:	35012105 	strcc	r2, [r1, #-261]	; 0xfffffefb
    8aac:	18000006 	stmdane	r0, {r1, r2}
    8ab0:	0000032b 	andeq	r0, r0, fp, lsr #6
    8ab4:	35012305 	strcc	r2, [r1, #-773]	; 0xfffffcfb
    8ab8:	00000006 	andeq	r0, r0, r6
    8abc:	00020718 	andeq	r0, r2, r8, lsl r7
    8ac0:	01240500 			; <UNDEFINED> instruction: 0x01240500
    8ac4:	00000025 	andeq	r0, r0, r5, lsr #32
    8ac8:	02fd1804 	rscseq	r1, sp, #4, 16	; 0x40000
    8acc:	25050000 	strcs	r0, [r5, #-0]
    8ad0:	00063b01 	andeq	r3, r6, r1, lsl #22
    8ad4:	0e000800 	cdpeq	8, 0, cr0, cr0, cr0, {0}
    8ad8:	00060004 	andeq	r0, r6, r4
    8adc:	f4040e00 			; <UNDEFINED> instruction: 0xf4040e00
    8ae0:	1a000005 	bne	8afc <emit+0x120>
    8ae4:	00000012 	andeq	r0, r0, r2, lsl r0
    8ae8:	013d050e 	teqeq	sp, lr, lsl #10
    8aec:	00000676 	andeq	r0, r0, r6, ror r6
    8af0:	00037118 	andeq	r7, r3, r8, lsl r1
    8af4:	013e0500 	teqeq	lr, r0, lsl #10
    8af8:	00000676 	andeq	r0, r0, r6, ror r6
    8afc:	039e1800 	orrseq	r1, lr, #0, 16
    8b00:	3f050000 	svccc	0x00050000
    8b04:	00067601 	andeq	r7, r6, r1, lsl #12
    8b08:	1c180600 	ldcne	6, cr0, [r8], {-0}
    8b0c:	05000004 	streq	r0, [r0, #-4]
    8b10:	005b0140 	subseq	r0, fp, r0, asr #2
    8b14:	000c0000 	andeq	r0, ip, r0
    8b18:	00005b09 	andeq	r5, r0, r9, lsl #22
    8b1c:	00068600 	andeq	r8, r6, r0, lsl #12
    8b20:	00cc0a00 	sbceq	r0, ip, r0, lsl #20
    8b24:	00020000 	andeq	r0, r2, r0
    8b28:	5705d01b 	smladpl	r5, fp, r0, sp
    8b2c:	00078702 	andeq	r8, r7, r2, lsl #14
    8b30:	04621800 	strbteq	r1, [r2], #-2048	; 0xfffff800
    8b34:	59050000 	stmdbpl	r5, {}	; <UNPREDICTABLE>
    8b38:	00002c02 	andeq	r2, r0, r2, lsl #24
    8b3c:	06180000 	ldreq	r0, [r8], -r0
    8b40:	05000004 	streq	r0, [r0, #-4]
    8b44:	010c025a 	tsteq	ip, sl, asr r2
    8b48:	18040000 	stmdane	r4, {}	; <UNPREDICTABLE>
    8b4c:	00000236 	andeq	r0, r0, r6, lsr r2
    8b50:	87025b05 	strhi	r5, [r2, -r5, lsl #22]
    8b54:	08000007 	stmdaeq	r0, {r0, r1, r2}
    8b58:	0004c918 	andeq	ip, r4, r8, lsl r9
    8b5c:	025c0500 	subseq	r0, ip, #0, 10
    8b60:	00000192 	muleq	r0, r2, r1
    8b64:	01b31824 			; <UNDEFINED> instruction: 0x01b31824
    8b68:	5d050000 	stcpl	0, cr0, [r5, #-0]
    8b6c:	00002502 	andeq	r2, r0, r2, lsl #10
    8b70:	26184800 	ldrcs	r4, [r8], -r0, lsl #16
    8b74:	05000003 	streq	r0, [r0, #-3]
    8b78:	0069025e 	rsbeq	r0, r9, lr, asr r2
    8b7c:	18500000 	ldmdane	r0, {}^	; <UNPREDICTABLE>
    8b80:	000004df 	ldrdeq	r0, [r0], -pc	; <UNPREDICTABLE>
    8b84:	41025f05 	tstmi	r2, r5, lsl #30
    8b88:	58000006 	stmdapl	r0, {r1, r2}
    8b8c:	00033118 	andeq	r3, r3, r8, lsl r1
    8b90:	02600500 	rsbeq	r0, r0, #0, 10
    8b94:	000000f4 	strdeq	r0, [r0], -r4
    8b98:	04e41868 	strbteq	r1, [r4], #2152	; 0x868
    8b9c:	61050000 	mrsvs	r0, (UNDEF: 5)
    8ba0:	0000f402 	andeq	pc, r0, r2, lsl #8
    8ba4:	84187000 	ldrhi	r7, [r8], #-0
    8ba8:	05000000 	streq	r0, [r0, #-0]
    8bac:	00f40262 	rscseq	r0, r4, r2, ror #4
    8bb0:	18780000 	ldmdane	r8!, {}^	; <UNPREDICTABLE>
    8bb4:	00000494 	muleq	r0, r4, r4
    8bb8:	97026305 	strls	r6, [r2, -r5, lsl #6]
    8bbc:	80000007 	andhi	r0, r0, r7
    8bc0:	00022a18 	andeq	r2, r2, r8, lsl sl
    8bc4:	02640500 	rsbeq	r0, r4, #0, 10
    8bc8:	000007a7 	andeq	r0, r0, r7, lsr #15
    8bcc:	04291888 	strteq	r1, [r9], #-2184	; 0xfffff778
    8bd0:	65050000 	strvs	r0, [r5, #-0]
    8bd4:	00002502 	andeq	r2, r0, r2, lsl #10
    8bd8:	7918a000 	ldmdbvc	r8, {sp, pc}
    8bdc:	05000001 	streq	r0, [r0, #-1]
    8be0:	00f40266 	rscseq	r0, r4, r6, ror #4
    8be4:	18a40000 	stmiane	r4!, {}	; <UNPREDICTABLE>
    8be8:	00000075 	andeq	r0, r0, r5, ror r0
    8bec:	f4026705 	vst1.8	{d6}, [r2], r5
    8bf0:	ac000000 	stcge	0, cr0, [r0], {-0}
    8bf4:	00016818 	andeq	r6, r1, r8, lsl r8
    8bf8:	02680500 	rsbeq	r0, r8, #0, 10
    8bfc:	000000f4 	strdeq	r0, [r0], -r4
    8c00:	002d18b4 	strhteq	r1, [sp], -r4
    8c04:	69050000 	stmdbvs	r5, {}	; <UNPREDICTABLE>
    8c08:	0000f402 	andeq	pc, r0, r2, lsl #8
    8c0c:	3c18bc00 	ldccc	12, cr11, [r8], {-0}
    8c10:	05000000 	streq	r0, [r0, #-0]
    8c14:	00f4026a 	rscseq	r0, r4, sl, ror #4
    8c18:	18c40000 	stmiane	r4, {}^	; <UNPREDICTABLE>
    8c1c:	000002d9 	ldrdeq	r0, [r0], -r9
    8c20:	25026b05 	strcs	r6, [r2, #-2821]	; 0xfffff4fb
    8c24:	cc000000 	stcgt	0, cr0, [r0], {-0}
    8c28:	01120900 	tsteq	r2, r0, lsl #18
    8c2c:	07970000 	ldreq	r0, [r7, r0]
    8c30:	cc0a0000 	stcgt	0, cr0, [sl], {-0}
    8c34:	19000000 	stmdbne	r0, {}	; <UNPREDICTABLE>
    8c38:	01120900 	tsteq	r2, r0, lsl #18
    8c3c:	07a70000 	streq	r0, [r7, r0]!
    8c40:	cc0a0000 	stcgt	0, cr0, [sl], {-0}
    8c44:	07000000 	streq	r0, [r0, -r0]
    8c48:	01120900 	tsteq	r2, r0, lsl #18
    8c4c:	07b70000 	ldreq	r0, [r7, r0]!
    8c50:	cc0a0000 	stcgt	0, cr0, [sl], {-0}
    8c54:	17000000 	strne	r0, [r0, -r0]
    8c58:	05f01b00 	ldrbeq	r1, [r0, #2816]!	; 0xb00
    8c5c:	07db0270 			; <UNDEFINED> instruction: 0x07db0270
    8c60:	80180000 	andshi	r0, r8, r0
    8c64:	05000002 	streq	r0, [r0, #-2]
    8c68:	07db0273 			; <UNDEFINED> instruction: 0x07db0273
    8c6c:	18000000 	stmdane	r0, {}	; <UNPREDICTABLE>
    8c70:	0000048b 	andeq	r0, r0, fp, lsl #9
    8c74:	eb027405 	bl	a5c90 <__bss_end__+0x9bcf8>
    8c78:	78000007 	stmdavc	r0, {r0, r1, r2}
    8c7c:	02db0900 	sbcseq	r0, fp, #0, 18
    8c80:	07eb0000 	strbeq	r0, [fp, r0]!
    8c84:	cc0a0000 	stcgt	0, cr0, [sl], {-0}
    8c88:	1d000000 	stcne	0, cr0, [r0, #-0]
    8c8c:	002c0900 	eoreq	r0, ip, r0, lsl #18
    8c90:	07fb0000 	ldrbeq	r0, [fp, r0]!
    8c94:	cc0a0000 	stcgt	0, cr0, [sl], {-0}
    8c98:	1d000000 	stcne	0, cr0, [r0, #-0]
    8c9c:	05f01c00 	ldrbeq	r1, [r0, #3072]!	; 0xc00
    8ca0:	081d0255 	ldmdaeq	sp, {r0, r2, r4, r6, r9}
    8ca4:	6a1d0000 	bvs	748cac <__bss_end__+0x73ed14>
    8ca8:	05000003 	streq	r0, [r0, #-3]
    8cac:	0686026c 	streq	r0, [r6], ip, ror #4
    8cb0:	b61d0000 	ldrlt	r0, [sp], -r0
    8cb4:	05000004 	streq	r0, [r0, #-4]
    8cb8:	07b70275 			; <UNDEFINED> instruction: 0x07b70275
    8cbc:	09000000 	stmdbeq	r0, {}	; <UNPREDICTABLE>
    8cc0:	00000112 	andeq	r0, r0, r2, lsl r1
    8cc4:	0000082d 	andeq	r0, r0, sp, lsr #16
    8cc8:	0000cc0a 	andeq	ip, r0, sl, lsl #24
    8ccc:	1e001800 	cdpne	8, 0, cr1, cr0, cr0, {0}
    8cd0:	00000838 	andeq	r0, r0, r8, lsr r8
    8cd4:	00042916 	andeq	r2, r4, r6, lsl r9
    8cd8:	040e0000 	streq	r0, [lr], #-0
    8cdc:	0000082d 	andeq	r0, r0, sp, lsr #16
    8ce0:	017c040e 	cmneq	ip, lr, lsl #8
    8ce4:	4f1e0000 	svcmi	0x001e0000
    8ce8:	16000008 	strne	r0, [r0], -r8
    8cec:	00000025 	andeq	r0, r0, r5, lsr #32
    8cf0:	55040e00 	strpl	r0, [r4, #-3584]	; 0xfffff200
    8cf4:	0e000008 	cdpeq	0, 0, cr0, cr0, cr8, {0}
    8cf8:	00084404 	andeq	r4, r8, r4, lsl #8
    8cfc:	05f40900 	ldrbeq	r0, [r4, #2304]!	; 0x900
    8d00:	086b0000 	stmdaeq	fp!, {}^	; <UNPREDICTABLE>
    8d04:	cc0a0000 	stcgt	0, cr0, [sl], {-0}
    8d08:	02000000 	andeq	r0, r0, #0
    8d0c:	043d1f00 	ldrteq	r1, [sp], #-3840	; 0xfffff100
    8d10:	fd050000 	stc2	0, cr0, [r5, #-0]
    8d14:	00042902 	andeq	r2, r4, r2, lsl #18
    8d18:	04361f00 	ldrteq	r1, [r6], #-3840	; 0xfffff100
    8d1c:	fe050000 	cdp2	0, 0, cr0, cr5, cr0, {0}
    8d20:	00042f02 	andeq	r2, r4, r2, lsl #30
    8d24:	00251500 	eoreq	r1, r5, r0, lsl #10
    8d28:	08920000 	ldmeq	r2, {}	; <UNPREDICTABLE>
    8d2c:	25160000 	ldrcs	r0, [r6, #-0]
    8d30:	00000000 	andeq	r0, r0, r0
    8d34:	0001cc20 	andeq	ip, r1, r0, lsr #24
    8d38:	9d1d0600 	ldcls	6, cr0, [sp, #-0]
    8d3c:	0e000008 	cdpeq	0, 0, cr0, cr0, cr8, {0}
    8d40:	00088304 	andeq	r8, r8, r4, lsl #6
    8d44:	00251500 	eoreq	r1, r5, r0, lsl #10
    8d48:	08b20000 	ldmeq	r2!, {}	; <UNPREDICTABLE>
    8d4c:	8a160000 	bhi	588d54 <__bss_end__+0x57edbc>
    8d50:	00000005 	andeq	r0, r0, r5
    8d54:	00076920 	andeq	r6, r7, r0, lsr #18
    8d58:	bd220600 	stclt	6, cr0, [r2, #-0]
    8d5c:	0e000008 	cdpeq	0, 0, cr0, cr0, cr8, {0}
    8d60:	0008a304 	andeq	sl, r8, r4, lsl #6
    8d64:	54012100 	strpl	r2, [r1], #-256	; 0xffffff00
    8d68:	08000000 	stmdaeq	r0, {}	; <UNPREDICTABLE>
    8d6c:	0009000c 	andeq	r0, r9, ip
    8d70:	090a2200 	stmdbeq	sl, {r9, sp}
    8d74:	22000000 	andcs	r0, r0, #0
    8d78:	000009e4 	andeq	r0, r0, r4, ror #19
    8d7c:	0a1f2201 	beq	7d1588 <__bss_end__+0x7c75f0>
    8d80:	22040000 	andcs	r0, r4, #0
    8d84:	0000091f 	andeq	r0, r0, pc, lsl r9
    8d88:	09ab2205 	stmibeq	fp!, {r0, r2, r9, sp}
    8d8c:	22060000 	andcs	r0, r6, #0
    8d90:	00000a2e 	andeq	r0, r0, lr, lsr #20
    8d94:	0a3d2207 	beq	f515b8 <__bss_end__+0xf47620>
    8d98:	22030000 	andcs	r0, r3, #0
    8d9c:	00000a4c 	andeq	r0, r0, ip, asr #20
    8da0:	3a100002 	bcc	408db0 <__bss_end__+0x3fee18>
    8da4:	2c000009 	stccs	0, cr0, [r0], {9}
    8da8:	09900607 	ldmibeq	r0, {r0, r1, r2, r9, sl}
    8dac:	69110000 	ldmdbvs	r1, {}	; <UNPREDICTABLE>
    8db0:	0907006f 	stmdbeq	r7, {r0, r1, r2, r3, r5, r6}
    8db4:	00000033 	andeq	r0, r0, r3, lsr r0
    8db8:	65691100 	strbvs	r1, [r9, #-256]!	; 0xffffff00
    8dbc:	0a070072 	beq	1c8f8c <__bss_end__+0x1beff4>
    8dc0:	00000033 	andeq	r0, r0, r3, lsr r0
    8dc4:	69691104 	stmdbvs	r9!, {r2, r8, ip}^
    8dc8:	11070072 	tstne	r7, r2, ror r0
    8dcc:	00000033 	andeq	r0, r0, r3, lsr r0
    8dd0:	636c1108 	cmnvs	ip, #8, 2
    8dd4:	13070072 	movwne	r0, #28786	; 0x7072
    8dd8:	00000033 	andeq	r0, r0, r3, lsr r0
    8ddc:	636d110c 	cmnvs	sp, #12, 2
    8de0:	14070072 	strne	r0, [r7], #-114	; 0xffffff8e
    8de4:	00000033 	andeq	r0, r0, r3, lsr r0
    8de8:	736c1110 	cmnvc	ip, #16, 2
    8dec:	15070072 	strne	r0, [r7, #-114]	; 0xffffff8e
    8df0:	00000033 	andeq	r0, r0, r3, lsr r0
    8df4:	736d1114 	cmnvc	sp, #20, 2
    8df8:	16070072 			; <UNDEFINED> instruction: 0x16070072
    8dfc:	00000033 	andeq	r0, r0, r3, lsr r0
    8e00:	09d60c18 	ldmibeq	r6, {r3, r4, sl, fp}^
    8e04:	17070000 	strne	r0, [r7, -r0]
    8e08:	00000033 	andeq	r0, r0, r3, lsr r0
    8e0c:	092e0c1c 	stmdbeq	lr!, {r2, r3, r4, sl, fp}
    8e10:	1b070000 	blne	1c8e18 <__bss_end__+0x1bee80>
    8e14:	00000033 	andeq	r0, r0, r3, lsr r0
    8e18:	091a0c20 	ldmdbeq	sl, {r5, sl, fp}
    8e1c:	1d070000 	stcne	0, cr0, [r7, #-0]
    8e20:	00000033 	andeq	r0, r0, r3, lsr r0
    8e24:	09d10c24 	ldmibeq	r1, {r2, r5, sl, fp}^
    8e28:	1e070000 	cdpne	0, 0, cr0, cr7, cr0, {0}
    8e2c:	00000033 	andeq	r0, r0, r3, lsr r0
    8e30:	7b230028 	blvc	8c8ed8 <__bss_end__+0x8bef40>
    8e34:	01000009 	tsteq	r0, r9
    8e38:	0009a507 	andeq	sl, r9, r7, lsl #10
    8e3c:	21500400 	cmpcs	r0, r0, lsl #8
    8e40:	33040e20 	movwcc	r0, #20000	; 0x4e20
    8e44:	0f000000 	svceq	0x00000000
    8e48:	0000099f 	muleq	r0, pc, r9	; <UNPREDICTABLE>
    8e4c:	0009cc23 	andeq	ip, r9, r3, lsr #24
    8e50:	bf280100 	svclt	0x00280100
    8e54:	40000009 	andmi	r0, r0, r9
    8e58:	0e202150 	mcreq	1, 1, r2, cr0, cr0, {2}
    8e5c:	00090004 	andeq	r0, r9, r4
    8e60:	09b90f00 	ldmibeq	r9!, {r8, r9, sl, fp}
    8e64:	11240000 			; <UNDEFINED> instruction: 0x11240000
    8e68:	0100000a 	tsteq	r0, sl
    8e6c:	000025a7 	andeq	r2, r0, r7, lsr #11
    8e70:	00932800 	addseq	r2, r3, r0, lsl #16
    8e74:	00001000 	andeq	r1, r0, r0
    8e78:	f09c0100 			; <UNDEFINED> instruction: 0xf09c0100
    8e7c:	25000009 	strcs	r0, [r0, #-9]
    8e80:	00009330 	andeq	r9, r0, r0, lsr r3
    8e84:	00000c9c 	muleq	r0, ip, ip
    8e88:	00933425 	addseq	r3, r3, r5, lsr #8
    8e8c:	000ad200 	andeq	sp, sl, r0, lsl #4
    8e90:	87260000 	strhi	r0, [r6, -r0]!
    8e94:	01000007 	tsteq	r0, r7
    8e98:	0092f89f 	umullseq	pc, r2, pc, r8	; <UNPREDICTABLE>
    8e9c:	00003000 	andeq	r3, r0, r0
    8ea0:	4e9c0100 	fmlmie	f0, f4, f0
    8ea4:	2700000a 	strcs	r0, [r0, -sl]
    8ea8:	9f010063 	svcls	0x00010063
    8eac:	0000002c 	andeq	r0, r0, ip, lsr #32
    8eb0:	00001111 	andeq	r1, r0, r1, lsl r1
    8eb4:	00930425 	addseq	r0, r3, r5, lsr #8
    8eb8:	000c9c00 	andeq	r9, ip, r0, lsl #24
    8ebc:	93082500 	movwls	r2, #34048	; 0x8500
    8ec0:	0aa50000 	beq	fe948ec8 <__bss_end__+0xfe93ef30>
    8ec4:	1c280000 	stcne	0, cr0, [r8], #-0
    8ec8:	a7000093 			; <UNDEFINED> instruction: 0xa7000093
    8ecc:	4400000c 	strmi	r0, [r0], #-12
    8ed0:	2900000a 	stmdbcs	r0, {r1, r3}
    8ed4:	0c055001 	stceq	0, cr5, [r5], {1}
    8ed8:	20215040 	eorcs	r5, r1, r0, asr #32
    8edc:	05510129 	ldrbeq	r0, [r1, #-297]	; 0xfffffed7
    8ee0:	ff080074 			; <UNDEFINED> instruction: 0xff080074
    8ee4:	2025001a 	eorcs	r0, r5, sl, lsl r0
    8ee8:	9c000093 	stcls	0, cr0, [r0], {147}	; 0x93
    8eec:	0000000c 	andeq	r0, r0, ip
    8ef0:	00099524 	andeq	r9, r9, r4, lsr #10
    8ef4:	25970100 	ldrcs	r0, [r7, #256]	; 0x100
    8ef8:	c8000000 	stmdagt	r0, {}	; <UNPREDICTABLE>
    8efc:	30000092 	mulcc	r0, r2, r0
    8f00:	01000000 	mrseq	r0, (UNDEF: 0)
    8f04:	000aa59c 	muleq	sl, ip, r5
    8f08:	00632a00 	rsbeq	r2, r3, r0, lsl #20
    8f0c:	00259b01 	eoreq	r9, r5, r1, lsl #22
    8f10:	54010000 	strpl	r0, [r1], #-0
    8f14:	0092d025 	addseq	sp, r2, r5, lsr #32
    8f18:	000c9c00 	andeq	r9, ip, r0, lsl #24
    8f1c:	92d42500 	sbcsls	r2, r4, #0, 10
    8f20:	0ad20000 	beq	ff488f28 <__bss_end__+0xff47ef90>
    8f24:	e4280000 	strt	r0, [r8], #-0
    8f28:	b2000092 	andlt	r0, r0, #146	; 0x92
    8f2c:	9b00000c 	blls	8f64 <fast_hash+0xc4>
    8f30:	2900000a 	stmdbcs	r0, {r1, r3}
    8f34:	0c055001 	stceq	0, cr5, [r5], {1}
    8f38:	20215040 	eorcs	r5, r1, r0, asr #32
    8f3c:	92ec2500 	rscls	r2, ip, #0, 10
    8f40:	0c9c0000 	ldceq	0, cr0, [ip], {0}
    8f44:	24000000 	strcs	r0, [r0], #-0
    8f48:	00000987 	andeq	r0, r0, r7, lsl #19
    8f4c:	00258801 	eoreq	r8, r5, r1, lsl #16
    8f50:	92a80000 	adcls	r0, r8, #0
    8f54:	00200000 	eoreq	r0, r0, r0
    8f58:	9c010000 	stcls	0, cr0, [r1], {-0}
    8f5c:	00000ad2 	ldrdeq	r0, [r0], -r2
    8f60:	0092b42b 	addseq	fp, r2, fp, lsr #8
    8f64:	000cb200 	andeq	fp, ip, r0, lsl #4
    8f68:	50012900 	andpl	r2, r1, r0, lsl #18
    8f6c:	50640c05 	rsbpl	r0, r4, r5, lsl #24
    8f70:	00002021 	andeq	r2, r0, r1, lsr #32
    8f74:	0009fb24 	andeq	pc, r9, r4, lsr #22
    8f78:	257f0100 	ldrbcs	r0, [pc, #-256]!	; 8e80 <va_printk+0x2a0>
    8f7c:	90000000 	andls	r0, r0, r0
    8f80:	18000092 	stmdane	r0, {r1, r4, r7}
    8f84:	01000000 	mrseq	r0, (UNDEF: 0)
    8f88:	000aff9c 	muleq	sl, ip, pc	; <UNPREDICTABLE>
    8f8c:	929c2b00 	addsls	r2, ip, #0, 22
    8f90:	0cb20000 	ldceq	0, cr0, [r2]
    8f94:	01290000 			; <UNDEFINED> instruction: 0x01290000
    8f98:	640c0550 	strvs	r0, [ip], #-1360	; 0xfffffab0
    8f9c:	00202150 	eoreq	r2, r0, r0, asr r1
    8fa0:	09002600 	stmdbeq	r0, {r9, sl, sp}
    8fa4:	3a010000 	bcc	48fac <__bss_end__+0x3f014>
    8fa8:	000091e0 	andeq	r9, r0, r0, ror #3
    8fac:	000000b0 	strheq	r0, [r0], -r0	; <UNPREDICTABLE>
    8fb0:	0c3d9c01 	ldceq	12, cr9, [sp], #-4
    8fb4:	f0280000 			; <UNDEFINED> instruction: 0xf0280000
    8fb8:	bd000091 	stclt	0, cr0, [r0, #-580]	; 0xfffffdbc
    8fbc:	2c00000c 	stccs	0, cr0, [r0], {12}
    8fc0:	2900000b 	stmdbcs	r0, {r0, r1, r3}
    8fc4:	3e015001 	cdpcc	0, 0, cr5, cr1, cr1, {0}
    8fc8:	01510129 	cmpeq	r1, r9, lsr #2
    8fcc:	fc280032 	stc2	0, cr0, [r8], #-200	; 0xffffff38
    8fd0:	bd000091 	stclt	0, cr0, [r0, #-580]	; 0xfffffdbc
    8fd4:	4400000c 	strmi	r0, [r0], #-12
    8fd8:	2900000b 	stmdbcs	r0, {r0, r1, r3}
    8fdc:	3f015001 	svccc	0x00015001
    8fe0:	01510129 	cmpeq	r1, r9, lsr #2
    8fe4:	00250032 	eoreq	r0, r5, r2, lsr r0
    8fe8:	9c000092 	stcls	0, cr0, [r0], {146}	; 0x92
    8fec:	2800000c 	stmdacs	r0, {r2, r3}
    8ff0:	0000920c 	andeq	r9, r0, ip, lsl #4
    8ff4:	00000c3d 	andeq	r0, r0, sp, lsr ip
    8ff8:	00000b69 	andeq	r0, r0, r9, ror #22
    8ffc:	05500129 	ldrbeq	r0, [r0, #-297]	; 0xfffffed7
    9000:	2150040c 	cmpcs	r0, ip, lsl #8
    9004:	51012920 	tstpl	r1, r0, lsr #18
    9008:	25003101 	strcs	r3, [r0, #-257]	; 0xfffffeff
    900c:	00009210 	andeq	r9, r0, r0, lsl r2
    9010:	00000c9c 	muleq	r0, ip, ip
    9014:	00922028 	addseq	r2, r2, r8, lsr #32
    9018:	000ca700 	andeq	sl, ip, r0, lsl #14
    901c:	000b8b00 	andeq	r8, fp, r0, lsl #22
    9020:	50012900 	andpl	r2, r1, r0, lsl #18
    9024:	29007402 	stmdbcs	r0, {r1, sl, ip, sp, lr}
    9028:	30015101 	andcc	r5, r1, r1, lsl #2
    902c:	922c2800 	eorls	r2, ip, #0, 16
    9030:	0ca70000 	stceq	0, cr0, [r7]
    9034:	0ba70000 	bleq	fe9c903c <__bss_end__+0xfe9bf0a4>
    9038:	01290000 			; <UNDEFINED> instruction: 0x01290000
    903c:	440c0550 	strmi	r0, [ip], #-1360	; 0xfffffab0
    9040:	29202150 	stmdbcs	r0!, {r4, r6, r8, sp}
    9044:	30015101 	andcc	r5, r1, r1, lsl #2
    9048:	92382800 	eorsls	r2, r8, #0, 16
    904c:	0ca70000 	stceq	0, cr0, [r7]
    9050:	0bc30000 	bleq	ff0c9058 <__bss_end__+0xff0bf0c0>
    9054:	01290000 			; <UNDEFINED> instruction: 0x01290000
    9058:	4c0c0550 	cfstr32mi	mvfx0, [ip], {80}	; 0x50
    905c:	29202150 	stmdbcs	r0!, {r4, r6, r8, sp}
    9060:	33015101 	movwcc	r5, #4353	; 0x1101
    9064:	92442800 	subls	r2, r4, #0, 16
    9068:	0ca70000 	stceq	0, cr0, [r7]
    906c:	0bdf0000 	bleq	ff7c9074 <__bss_end__+0xff7bf0dc>
    9070:	01290000 			; <UNDEFINED> instruction: 0x01290000
    9074:	500c0550 	andpl	r0, ip, r0, asr r5
    9078:	29202150 	stmdbcs	r0!, {r4, r6, r8, sp}
    907c:	30015101 	andcc	r5, r1, r1, lsl #2
    9080:	92502800 	subsls	r2, r0, #0, 16
    9084:	0ca70000 	stceq	0, cr0, [r7]
    9088:	0bfc0000 	bleq	fff09090 <__bss_end__+0xffeff0f8>
    908c:	01290000 			; <UNDEFINED> instruction: 0x01290000
    9090:	480c0550 	stmdami	ip, {r4, r6, r8, sl}
    9094:	29202150 	stmdbcs	r0!, {r4, r6, r8, sp}
    9098:	08025101 	stmdaeq	r2, {r0, r8, ip, lr}
    909c:	5c2800c7 	stcpl	0, cr0, [r8], #-796	; 0xfffffce4
    90a0:	a7000092 			; <UNDEFINED> instruction: 0xa7000092
    90a4:	1a00000c 	bne	90dc <clean_reboot+0x18>
    90a8:	2900000c 	stmdbcs	r0, {r2, r3}
    90ac:	0c055001 	stceq	0, cr5, [r5], {1}
    90b0:	20215068 	eorcs	r5, r1, r8, rrx
    90b4:	03510129 	cmpeq	r1, #1073741834	; 0x4000000a
    90b8:	00010e0a 	andeq	r0, r1, sl, lsl #28
    90bc:	00926828 	addseq	r6, r2, r8, lsr #16
    90c0:	000ca700 	andeq	sl, ip, r0, lsl #14
    90c4:	000c3300 	andeq	r3, ip, r0, lsl #6
    90c8:	50012900 	andpl	r2, r1, r0, lsl #18
    90cc:	29007402 	stmdbcs	r0, {r1, sl, ip, sp, lr}
    90d0:	33015101 	movwcc	r5, #4353	; 0x1101
    90d4:	926c2500 	rsbls	r2, ip, #0, 10
    90d8:	0c9c0000 	ldceq	0, cr0, [ip], {0}
    90dc:	2c000000 	stccs	0, cr0, [r0], {-0}
    90e0:	00000a09 	andeq	r0, r0, r9, lsl #20
    90e4:	91c02d01 	bicls	r2, r0, r1, lsl #26
    90e8:	00200000 	eoreq	r0, r0, r0
    90ec:	9c010000 	stcls	0, cr0, [r1], {-0}
    90f0:	00000c95 	muleq	r0, r5, ip
    90f4:	000b602d 	andeq	r6, fp, sp, lsr #32
    90f8:	952d0100 	strls	r0, [sp, #-256]!	; 0xffffff00
    90fc:	2f00000c 	svccs	0x0000000c
    9100:	27000011 	smladcs	r0, r1, r0, r0
    9104:	006c6176 	rsbeq	r6, ip, r6, ror r1
    9108:	002c2d01 	eoreq	r2, ip, r1, lsl #26
    910c:	114d0000 	mrsne	r0, (UNDEF: 77)
    9110:	d0280000 	eorle	r0, r8, r0
    9114:	b2000091 	andlt	r0, r0, #145	; 0x91
    9118:	8400000c 	strhi	r0, [r0], #-12
    911c:	2900000c 	stmdbcs	r0, {r2, r3}
    9120:	74025001 	strvc	r5, [r2], #-1
    9124:	dc2b0000 	stcle	0, cr0, [fp], #-0
    9128:	a7000091 			; <UNDEFINED> instruction: 0xa7000091
    912c:	2900000c 	stmdbcs	r0, {r2, r3}
    9130:	74025001 	strvc	r5, [r2], #-1
    9134:	0e000000 	cdpeq	0, 0, cr0, cr0, cr0, {0}
    9138:	000c9b04 	andeq	r9, ip, r4, lsl #22
    913c:	9f2f2e00 	svcls	0x002f2e00
    9140:	9f000009 	svcls	0x00000009
    9144:	06000009 	streq	r0, [r0], -r9
    9148:	09de2f89 	ldmibeq	lr, {r0, r3, r7, r8, r9, sl, fp, sp}^
    914c:	09de0000 	ldmibeq	lr, {}^	; <UNPREDICTABLE>
    9150:	9c060000 	stcls	0, cr0, [r6], {-0}
    9154:	0009f52f 	andeq	pc, r9, pc, lsr #10
    9158:	0009f500 	andeq	pc, r9, r0, lsl #10
    915c:	2fa80600 	svccs	0x00a80600
    9160:	000009ba 			; <UNDEFINED> instruction: 0x000009ba
    9164:	000009ba 			; <UNDEFINED> instruction: 0x000009ba
    9168:	70001908 	andvc	r1, r0, r8, lsl #18
    916c:	0400000b 	streq	r0, [r0], #-11
    9170:	001c2100 	andseq	r2, ip, r0, lsl #2
    9174:	a4010400 	strge	r0, [r1], #-1024	; 0xfffffc00
    9178:	0c000003 	stceq	0, cr0, [r0], {3}
    917c:	00000a6d 	andeq	r0, r0, sp, ror #20
    9180:	00000946 	andeq	r0, r0, r6, asr #18
    9184:	00009338 	andeq	r9, r0, r8, lsr r3
    9188:	00000120 	andeq	r0, r0, r0, lsr #2
    918c:	00000ef2 	strdeq	r0, [r0], -r2
    9190:	69050402 	stmdbvs	r5, {r1, sl}
    9194:	0300746e 	movweq	r7, #1134	; 0x46e
    9198:	00570704 	subseq	r0, r7, r4, lsl #14
    919c:	2c040000 	stccs	0, cr0, [r4], {-0}
    91a0:	03000000 	movweq	r0, #0
    91a4:	02c80601 	sbceq	r0, r8, #1048576	; 0x100000
    91a8:	02030000 	andeq	r0, r3, #0
    91ac:	0002e205 	andeq	lr, r2, r5, lsl #4
    91b0:	05040300 	streq	r0, [r4, #-768]	; 0xfffffd00
    91b4:	000000a0 	andeq	r0, r0, r0, lsr #1
    91b8:	9b050803 	blls	14b1cc <__bss_end__+0x141234>
    91bc:	03000000 	movweq	r0, #0
    91c0:	02c60801 	sbceq	r0, r6, #65536	; 0x10000
    91c4:	02030000 	andeq	r0, r3, #0
    91c8:	00020e07 	andeq	r0, r2, r7, lsl #28
    91cc:	07040300 	streq	r0, [r4, -r0, lsl #6]
    91d0:	00000052 	andeq	r0, r0, r2, asr r0
    91d4:	4d070803 	stcmi	8, cr0, [r7, #-12]
    91d8:	05000000 	streq	r0, [r0, #-0]
    91dc:	000002b4 			; <UNDEFINED> instruction: 0x000002b4
    91e0:	00250702 	eoreq	r0, r5, r2, lsl #14
    91e4:	a3050000 	movwge	r0, #20480	; 0x5000
    91e8:	03000002 	movweq	r0, #2
    91ec:	0000462c 	andeq	r4, r0, ip, lsr #12
    91f0:	038d0500 	orreq	r0, sp, #0, 10
    91f4:	72030000 	andvc	r0, r3, #0
    91f8:	00000046 	andeq	r0, r0, r6, asr #32
    91fc:	00025106 	andeq	r5, r2, r6, lsl #2
    9200:	01650400 	cmneq	r5, r0, lsl #8
    9204:	0000002c 	andeq	r0, r0, ip, lsr #32
    9208:	a6030407 	strge	r0, [r3], -r7, lsl #8
    920c:	000000bc 	strheq	r0, [r0], -ip
    9210:	00024b08 	andeq	r4, r2, r8, lsl #22
    9214:	91a80300 			; <UNDEFINED> instruction: 0x91a80300
    9218:	08000000 	stmdaeq	r0, {}	; <UNPREDICTABLE>
    921c:	000001dd 	ldrdeq	r0, [r0], -sp
    9220:	00bca903 	adcseq	sl, ip, r3, lsl #18
    9224:	09000000 	stmdbeq	r0, {}	; <UNPREDICTABLE>
    9228:	00000054 	andeq	r0, r0, r4, asr r0
    922c:	000000cc 	andeq	r0, r0, ip, asr #1
    9230:	0000cc0a 	andeq	ip, r0, sl, lsl #24
    9234:	03000300 	movweq	r0, #768	; 0x300
    9238:	02770704 	rsbseq	r0, r7, #4, 14	; 0x100000
    923c:	080b0000 	stmdaeq	fp, {}	; <UNPREDICTABLE>
    9240:	00f4a303 	rscseq	sl, r4, r3, lsl #6
    9244:	770c0000 	strvc	r0, [ip, -r0]
    9248:	03000003 	movweq	r0, #3
    924c:	000025a5 	andeq	r2, r0, r5, lsr #11
    9250:	7f0c0000 	svcvc	0x000c0000
    9254:	03000003 	movweq	r0, #3
    9258:	00009daa 	andeq	r9, r0, sl, lsr #27
    925c:	05000400 	streq	r0, [r0, #-1024]	; 0xfffffc00
    9260:	0000030a 	andeq	r0, r0, sl, lsl #6
    9264:	00d3ab03 	sbcseq	sl, r3, r3, lsl #22
    9268:	9a050000 	bls	149270 <__bss_end__+0x13f2d8>
    926c:	03000001 	movweq	r0, #1
    9270:	000070af 	andeq	r7, r0, pc, lsr #1
    9274:	0e040d00 	cdpeq	13, 0, cr0, cr4, cr0, {0}
    9278:	00011204 	andeq	r1, r1, r4, lsl #4
    927c:	08010300 	stmdaeq	r1, {r8, r9}
    9280:	000002cf 	andeq	r0, r0, pc, asr #5
    9284:	00011204 	andeq	r1, r1, r4, lsl #4
    9288:	04210500 	strteq	r0, [r1], #-1280	; 0xfffffb00
    928c:	16050000 	strne	r0, [r5], -r0
    9290:	00000062 	andeq	r0, r0, r2, rrx
    9294:	0001ab0f 	andeq	sl, r1, pc, lsl #22
    9298:	2d051800 	stccs	8, cr1, [r5, #-0]
    929c:	0000017c 	andeq	r0, r0, ip, ror r1
    92a0:	00032b0c 	andeq	r2, r3, ip, lsl #22
    92a4:	7c2f0500 	cfstr32vc	mvfx0, [pc], #-0	; 92ac <uart_can_putc+0x4>
    92a8:	00000001 	andeq	r0, r0, r1
    92ac:	006b5f10 	rsbeq	r5, fp, r0, lsl pc
    92b0:	00253005 	eoreq	r3, r5, r5
    92b4:	0c040000 	stceq	0, cr0, [r4], {-0}
    92b8:	00000362 	andeq	r0, r0, r2, ror #6
    92bc:	00253005 	eoreq	r3, r5, r5
    92c0:	0c080000 	stceq	0, cr0, [r8], {-0}
    92c4:	00000194 	muleq	r0, r4, r1
    92c8:	00253005 	eoreq	r3, r5, r5
    92cc:	0c0c0000 	stceq	0, cr0, [ip], {-0}
    92d0:	0000046f 	andeq	r0, r0, pc, ror #8
    92d4:	00253005 	eoreq	r3, r5, r5
    92d8:	10100000 	andsne	r0, r0, r0
    92dc:	0500785f 	streq	r7, [r0, #-2143]	; 0xfffff7a1
    92e0:	00018231 	andeq	r8, r1, r1, lsr r2
    92e4:	0e001400 	cfcpyseq	mvf1, mvf0
    92e8:	00012904 	andeq	r2, r1, r4, lsl #18
    92ec:	011e0900 	tsteq	lr, r0, lsl #18
    92f0:	01920000 	orrseq	r0, r2, r0
    92f4:	cc0a0000 	stcgt	0, cr0, [sl], {-0}
    92f8:	00000000 	andeq	r0, r0, r0
    92fc:	01d80f00 	bicseq	r0, r8, r0, lsl #30
    9300:	05240000 	streq	r0, [r4, #-0]!
    9304:	00020b35 	andeq	r0, r2, r5, lsr fp
    9308:	00920c00 	addseq	r0, r2, r0, lsl #24
    930c:	37050000 	strcc	r0, [r5, -r0]
    9310:	00000025 	andeq	r0, r0, r5, lsr #32
    9314:	03950c00 	orrseq	r0, r5, #0, 24
    9318:	38050000 	stmdacc	r5, {}	; <UNPREDICTABLE>
    931c:	00000025 	andeq	r0, r0, r5, lsr #32
    9320:	00b50c04 	adcseq	r0, r5, r4, lsl #24
    9324:	39050000 	stmdbcc	r5, {}	; <UNPREDICTABLE>
    9328:	00000025 	andeq	r0, r0, r5, lsr #32
    932c:	04f70c08 	ldrbteq	r0, [r7], #3080	; 0xc08
    9330:	3a050000 	bcc	149338 <__bss_end__+0x13f3a0>
    9334:	00000025 	andeq	r0, r0, r5, lsr #32
    9338:	02870c0c 	addeq	r0, r7, #12, 24	; 0xc00
    933c:	3b050000 	blcc	149344 <__bss_end__+0x13f3ac>
    9340:	00000025 	andeq	r0, r0, r5, lsr #32
    9344:	026d0c10 	rsbeq	r0, sp, #16, 24	; 0x1000
    9348:	3c050000 	stccc	0, cr0, [r5], {-0}
    934c:	00000025 	andeq	r0, r0, r5, lsr #32
    9350:	04740c14 	ldrbteq	r0, [r4], #-3092	; 0xfffff3ec
    9354:	3d050000 	stccc	0, cr0, [r5, #-0]
    9358:	00000025 	andeq	r0, r0, r5, lsr #32
    935c:	02ec0c18 	rsceq	r0, ip, #24, 24	; 0x1800
    9360:	3e050000 	cdpcc	0, 0, cr0, cr5, cr0, {0}
    9364:	00000025 	andeq	r0, r0, r5, lsr #32
    9368:	04be0c1c 	ldrteq	r0, [lr], #3100	; 0xc1c
    936c:	3f050000 	svccc	0x00050000
    9370:	00000025 	andeq	r0, r0, r5, lsr #32
    9374:	f5110020 			; <UNDEFINED> instruction: 0xf5110020
    9378:	08000000 	stmdaeq	r0, {}	; <UNPREDICTABLE>
    937c:	4b480501 	blmi	120a788 <__bss_end__+0x12007f0>
    9380:	0c000002 	stceq	0, cr0, [r0], {2}
    9384:	00000187 	andeq	r0, r0, r7, lsl #3
    9388:	024b4905 	subeq	r4, fp, #81920	; 0x14000
    938c:	0c000000 	stceq	0, cr0, [r0], {-0}
    9390:	00000000 	andeq	r0, r0, r0
    9394:	024b4a05 	subeq	r4, fp, #20480	; 0x5000
    9398:	12800000 	addne	r0, r0, #0
    939c:	00000413 	andeq	r0, r0, r3, lsl r4
    93a0:	011e4c05 	tsteq	lr, r5, lsl #24
    93a4:	01000000 	mrseq	r0, (UNDEF: 0)
    93a8:	00011a12 	andeq	r1, r1, r2, lsl sl
    93ac:	1e4f0500 	cdpne	5, 4, cr0, cr15, cr0, {0}
    93b0:	04000001 	streq	r0, [r0], #-1
    93b4:	0a090001 	beq	2493c0 <__bss_end__+0x23f428>
    93b8:	5b000001 	blpl	93c4 <gpio_set_on+0x14>
    93bc:	0a000002 	beq	93cc <gpio_set_on+0x1c>
    93c0:	000000cc 	andeq	r0, r0, ip, asr #1
    93c4:	9011001f 	andsls	r0, r1, pc, lsl r0
    93c8:	90000002 	andls	r0, r0, r2
    93cc:	995b0501 	ldmdbls	fp, {r0, r8, sl}^
    93d0:	0c000002 	stceq	0, cr0, [r0], {2}
    93d4:	0000032b 	andeq	r0, r0, fp, lsr #6
    93d8:	02995c05 	addseq	r5, r9, #1280	; 0x500
    93dc:	0c000000 	stceq	0, cr0, [r0], {-0}
    93e0:	00000343 	andeq	r0, r0, r3, asr #6
    93e4:	00255d05 	eoreq	r5, r5, r5, lsl #26
    93e8:	0c040000 	stceq	0, cr0, [r4], {-0}
    93ec:	0000018f 	andeq	r0, r0, pc, lsl #3
    93f0:	029f5f05 	addseq	r5, pc, #5, 30
    93f4:	0c080000 	stceq	0, cr0, [r8], {-0}
    93f8:	000000f5 	strdeq	r0, [r0], -r5
    93fc:	020b6005 	andeq	r6, fp, #5
    9400:	00880000 	addeq	r0, r8, r0
    9404:	025b040e 	subseq	r0, fp, #234881024	; 0xe000000
    9408:	af090000 	svcge	0x00090000
    940c:	af000002 	svcge	0x00000002
    9410:	0a000002 	beq	9420 <gpio_write+0x18>
    9414:	000000cc 	andeq	r0, r0, ip, asr #1
    9418:	040e001f 	streq	r0, [lr], #-31	; 0xffffffe1
    941c:	000002b5 			; <UNDEFINED> instruction: 0x000002b5
    9420:	02f60f13 	rscseq	r0, r6, #19, 30	; 0x4c
    9424:	05080000 	streq	r0, [r8, #-0]
    9428:	0002db73 	andeq	sp, r2, r3, ror fp
    942c:	00af0c00 	adceq	r0, pc, r0, lsl #24
    9430:	74050000 	strvc	r0, [r5], #-0
    9434:	000002db 	ldrdeq	r0, [r0], -fp
    9438:	000c0c00 	andeq	r0, ip, r0, lsl #24
    943c:	75050000 	strvc	r0, [r5, #-0]
    9440:	00000025 	andeq	r0, r0, r5, lsr #32
    9444:	040e0004 	streq	r0, [lr], #-4
    9448:	00000054 	andeq	r0, r0, r4, asr r0
    944c:	0003150f 	andeq	r1, r3, pc, lsl #10
    9450:	b3056800 	movwlt	r6, #22528	; 0x5800
    9454:	0000040b 	andeq	r0, r0, fp, lsl #8
    9458:	00705f10 	rsbseq	r5, r0, r0, lsl pc
    945c:	02dbb405 	sbcseq	fp, fp, #83886080	; 0x5000000
    9460:	10000000 	andne	r0, r0, r0
    9464:	0500725f 	streq	r7, [r0, #-607]	; 0xfffffda1
    9468:	000025b5 			; <UNDEFINED> instruction: 0x000025b5
    946c:	5f100400 	svcpl	0x00100400
    9470:	b6050077 			; <UNDEFINED> instruction: 0xb6050077
    9474:	00000025 	andeq	r0, r0, r5, lsr #32
    9478:	01130c08 	tsteq	r3, r8, lsl #24
    947c:	b7050000 	strlt	r0, [r5, -r0]
    9480:	0000003f 	andeq	r0, r0, pc, lsr r0
    9484:	01f40c0c 	mvnseq	r0, ip, lsl #24
    9488:	b8050000 	stmdalt	r5, {}	; <UNPREDICTABLE>
    948c:	0000003f 	andeq	r0, r0, pc, lsr r0
    9490:	625f100e 	subsvs	r1, pc, #14
    9494:	b9050066 	stmdblt	r5, {r1, r2, r5, r6}
    9498:	000002b6 			; <UNDEFINED> instruction: 0x000002b6
    949c:	006c0c10 	rsbeq	r0, ip, r0, lsl ip
    94a0:	ba050000 	blt	1494a8 <__bss_end__+0x13f510>
    94a4:	00000025 	andeq	r0, r0, r5, lsr #32
    94a8:	01030c18 	tsteq	r3, r8, lsl ip
    94ac:	c1050000 	mrsgt	r0, (UNDEF: 5)
    94b0:	0000010a 	andeq	r0, r0, sl, lsl #2
    94b4:	0a780c1c 	beq	1e0c52c <__bss_end__+0x1e02594>
    94b8:	c3050000 	movwgt	r0, #20480	; 0x5000
    94bc:	00000566 	andeq	r0, r0, r6, ror #10
    94c0:	060c0c20 	streq	r0, [ip], -r0, lsr #24
    94c4:	c5050000 	strgt	r0, [r5, #-0]
    94c8:	00000590 	muleq	r0, r0, r5
    94cc:	03870c24 	orreq	r0, r7, #36, 24	; 0x2400
    94d0:	c8050000 	stmdagt	r5, {}	; <UNPREDICTABLE>
    94d4:	000005b4 			; <UNDEFINED> instruction: 0x000005b4
    94d8:	04d80c28 	ldrbeq	r0, [r8], #3112	; 0xc28
    94dc:	c9050000 	stmdbgt	r5, {}	; <UNPREDICTABLE>
    94e0:	000005ce 	andeq	r0, r0, lr, asr #11
    94e4:	755f102c 	ldrbvc	r1, [pc, #-44]	; 94c0 <kmalloc_init_set_start+0x4c>
    94e8:	cc050062 	stcgt	0, cr0, [r5], {98}	; 0x62
    94ec:	000002b6 			; <UNDEFINED> instruction: 0x000002b6
    94f0:	755f1030 	ldrbvc	r1, [pc, #-48]	; 94c8 <kmalloc+0x4>
    94f4:	cd050070 	stcgt	0, cr0, [r5, #-448]	; 0xfffffe40
    94f8:	000002db 	ldrdeq	r0, [r0], -fp
    94fc:	755f1038 	ldrbvc	r1, [pc, #-56]	; 94cc <kmalloc+0x8>
    9500:	ce050072 	mcrgt	0, 0, r0, cr5, cr2, {3}
    9504:	00000025 	andeq	r0, r0, r5, lsr #32
    9508:	00a90c3c 	adceq	r0, r9, ip, lsr ip
    950c:	d1050000 	mrsle	r0, (UNDEF: 5)
    9510:	000005d4 	ldrdeq	r0, [r0], -r4
    9514:	04b00c40 	ldrteq	r0, [r0], #3136	; 0xc40
    9518:	d2050000 	andle	r0, r5, #0
    951c:	000005e4 	andeq	r0, r0, r4, ror #11
    9520:	6c5f1043 	mrrcvs	0, 4, r1, pc, cr3	; <UNPREDICTABLE>
    9524:	d5050062 	strle	r0, [r5, #-98]	; 0xffffff9e
    9528:	000002b6 			; <UNDEFINED> instruction: 0x000002b6
    952c:	01380c44 	teqeq	r8, r4, asr #24
    9530:	d8050000 	stmdale	r5, {}	; <UNPREDICTABLE>
    9534:	00000025 	andeq	r0, r0, r5, lsr #32
    9538:	01490c4c 	cmpeq	r9, ip, asr #24
    953c:	d9050000 	stmdble	r5, {}	; <UNPREDICTABLE>
    9540:	0000007b 	andeq	r0, r0, fp, ror r0
    9544:	0a190c50 	beq	64c68c <__bss_end__+0x6426f4>
    9548:	dc050000 	stcle	0, cr0, [r5], {-0}
    954c:	00000429 	andeq	r0, r0, r9, lsr #8
    9550:	025f0c54 	subseq	r0, pc, #84, 24	; 0x5400
    9554:	e0050000 	and	r0, r5, r0
    9558:	000000ff 	strdeq	r0, [r0], -pc	; <UNPREDICTABLE>
    955c:	031d0c58 	tsteq	sp, #88, 24	; 0x5800
    9560:	e2050000 	and	r0, r5, #0
    9564:	000000f4 	strdeq	r0, [r0], -r4
    9568:	02650c5c 	rsbeq	r0, r5, #92, 24	; 0x5c00
    956c:	e3050000 	movw	r0, #20480	; 0x5000
    9570:	00000025 	andeq	r0, r0, r5, lsr #32
    9574:	25140064 	ldrcs	r0, [r4, #-100]	; 0xffffff9c
    9578:	29000000 	stmdbcs	r0, {}	; <UNPREDICTABLE>
    957c:	15000004 	strne	r0, [r0, #-4]
    9580:	00000429 	andeq	r0, r0, r9, lsr #8
    9584:	00010a15 	andeq	r0, r1, r5, lsl sl
    9588:	010c1500 	tsteq	ip, r0, lsl #10
    958c:	25150000 	ldrcs	r0, [r5, #-0]
    9590:	00000000 	andeq	r0, r0, r0
    9594:	0434040e 	ldrteq	r0, [r4], #-1038	; 0xfffffbf2
    9598:	29040000 	stmdbcs	r4, {}	; <UNPREDICTABLE>
    959c:	16000004 	strne	r0, [r0], -r4
    95a0:	0000036a 	andeq	r0, r0, sl, ror #6
    95a4:	38050428 	stmdacc	r5, {r3, r5, sl}
    95a8:	00056602 	andeq	r6, r5, r2, lsl #12
    95ac:	02db1700 	sbcseq	r1, fp, #0, 14
    95b0:	3a050000 	bcc	1495b8 <__bss_end__+0x13f620>
    95b4:	00002502 	andeq	r2, r0, r2, lsl #10
    95b8:	84170000 	ldrhi	r0, [r7], #-0
    95bc:	05000004 	streq	r0, [r0, #-4]
    95c0:	063b023f 			; <UNDEFINED> instruction: 0x063b023f
    95c4:	17040000 	strne	r0, [r4, -r0]
    95c8:	000001e4 	andeq	r0, r0, r4, ror #3
    95cc:	3b023f05 	blcc	991e8 <__bss_end__+0x8f250>
    95d0:	08000006 	stmdaeq	r0, {r1, r2}
    95d4:	0001a317 	andeq	sl, r1, r7, lsl r3
    95d8:	023f0500 	eorseq	r0, pc, #0, 10
    95dc:	0000063b 	andeq	r0, r0, fp, lsr r6
    95e0:	033e170c 	teqeq	lr, #12, 14	; 0x300000
    95e4:	41050000 	mrsmi	r0, (UNDEF: 5)
    95e8:	00002502 	andeq	r2, r0, r2, lsl #10
    95ec:	1a171000 	bne	5cd5f4 <__bss_end__+0x5c365c>
    95f0:	05000000 	streq	r0, [r0, #-0]
    95f4:	081d0242 	ldmdaeq	sp, {r1, r6, r9}
    95f8:	17140000 	ldrne	r0, [r4, -r0]
    95fc:	00000449 	andeq	r0, r0, r9, asr #8
    9600:	25024405 	strcs	r4, [r2, #-1029]	; 0xfffffbfb
    9604:	30000000 	andcc	r0, r0, r0
    9608:	00034817 	andeq	r4, r3, r7, lsl r8
    960c:	02450500 	subeq	r0, r5, #0, 10
    9610:	0000058a 	andeq	r0, r0, sl, lsl #11
    9614:	02981734 	addseq	r1, r8, #52, 14	; 0xd00000
    9618:	47050000 	strmi	r0, [r5, -r0]
    961c:	00002502 	andeq	r2, r0, r2, lsl #10
    9620:	58173800 	ldmdapl	r7, {fp, ip, sp}
    9624:	05000003 	streq	r0, [r0, #-3]
    9628:	08380249 	ldmdaeq	r8!, {r0, r3, r6, r9}
    962c:	173c0000 	ldrne	r0, [ip, -r0]!
    9630:	00000243 	andeq	r0, r0, r3, asr #4
    9634:	7c024c05 	stcvc	12, cr4, [r2], {5}
    9638:	40000001 	andmi	r0, r0, r1
    963c:	0001c217 	andeq	ip, r1, r7, lsl r2
    9640:	024d0500 	subeq	r0, sp, #0, 10
    9644:	00000025 	andeq	r0, r0, r5, lsr #32
    9648:	04f21744 	ldrbteq	r1, [r2], #1860	; 0x744
    964c:	4e050000 	cdpmi	0, 0, cr0, cr5, cr0, {0}
    9650:	00017c02 	andeq	r7, r1, r2, lsl #24
    9654:	aa174800 	bge	5db65c <__bss_end__+0x5d16c4>
    9658:	05000002 	streq	r0, [r0, #-2]
    965c:	083e024f 	ldmdaeq	lr!, {r0, r1, r2, r3, r6, r9}
    9660:	174c0000 	strbne	r0, [ip, -r0]
    9664:	000001ec 	andeq	r0, r0, ip, ror #3
    9668:	25025205 	strcs	r5, [r2, #-517]	; 0xfffffdfb
    966c:	50000000 	andpl	r0, r0, r0
    9670:	00014117 	andeq	r4, r1, r7, lsl r1
    9674:	02530500 	subseq	r0, r3, #0, 10
    9678:	0000010c 	andeq	r0, r0, ip, lsl #2
    967c:	02d41754 	sbcseq	r1, r4, #84, 14	; 0x1500000
    9680:	76050000 	strvc	r0, [r5], -r0
    9684:	0007fb02 	andeq	pc, r7, r2, lsl #22
    9688:	90185800 	andsls	r5, r8, r0, lsl #16
    968c:	05000002 	streq	r0, [r0, #-2]
    9690:	0299027a 	addseq	r0, r9, #-1610612729	; 0xa0000007
    9694:	01480000 	mrseq	r0, (UNDEF: 72)
    9698:	00022118 	andeq	r2, r2, r8, lsl r1
    969c:	027b0500 	rsbseq	r0, fp, #0, 10
    96a0:	0000025b 	andeq	r0, r0, fp, asr r2
    96a4:	9e18014c 	muflsem	f0, f0, #4.0
    96a8:	05000004 	streq	r0, [r0, #-4]
    96ac:	084f027f 	stmdaeq	pc, {r0, r1, r2, r3, r4, r5, r6, r9}^	; <UNPREDICTABLE>
    96b0:	02dc0000 	sbcseq	r0, ip, #0
    96b4:	00010b18 	andeq	r0, r1, r8, lsl fp
    96b8:	02840500 	addeq	r0, r4, #0, 10
    96bc:	00000600 	andeq	r0, r0, r0, lsl #12
    96c0:	f01802e0 			; <UNDEFINED> instruction: 0xf01802e0
    96c4:	05000000 	streq	r0, [r0, #-0]
    96c8:	085b0285 	ldmdaeq	fp, {r0, r2, r7, r9}^
    96cc:	02ec0000 	rsceq	r0, ip, #0
    96d0:	0b040e00 	bleq	10ced8 <__bss_end__+0x102f40>
    96d4:	14000004 	strne	r0, [r0], #-4
    96d8:	00000025 	andeq	r0, r0, r5, lsr #32
    96dc:	0000058a 	andeq	r0, r0, sl, lsl #11
    96e0:	00042915 	andeq	r2, r4, r5, lsl r9
    96e4:	010a1500 	tsteq	sl, r0, lsl #10
    96e8:	8a150000 	bhi	5496f0 <__bss_end__+0x53f758>
    96ec:	15000005 	strne	r0, [r0, #-5]
    96f0:	00000025 	andeq	r0, r0, r5, lsr #32
    96f4:	19040e00 	stmdbne	r4, {r9, sl, fp}
    96f8:	0e000001 	cdpeq	0, 0, cr0, cr0, cr1, {0}
    96fc:	00056c04 	andeq	r6, r5, r4, lsl #24
    9700:	00861400 	addeq	r1, r6, r0, lsl #8
    9704:	05b40000 	ldreq	r0, [r4, #0]!
    9708:	29150000 	ldmdbcs	r5, {}	; <UNPREDICTABLE>
    970c:	15000004 	strne	r0, [r0, #-4]
    9710:	0000010a 	andeq	r0, r0, sl, lsl #2
    9714:	00008615 	andeq	r8, r0, r5, lsl r6
    9718:	00251500 	eoreq	r1, r5, r0, lsl #10
    971c:	0e000000 	cdpeq	0, 0, cr0, cr0, cr0, {0}
    9720:	00059604 	andeq	r9, r5, r4, lsl #12
    9724:	00251400 	eoreq	r1, r5, r0, lsl #8
    9728:	05ce0000 	strbeq	r0, [lr]
    972c:	29150000 	ldmdbcs	r5, {}	; <UNPREDICTABLE>
    9730:	15000004 	strne	r0, [r0, #-4]
    9734:	0000010a 	andeq	r0, r0, sl, lsl #2
    9738:	ba040e00 	blt	10cf40 <__bss_end__+0x102fa8>
    973c:	09000005 	stmdbeq	r0, {r0, r2}
    9740:	00000054 	andeq	r0, r0, r4, asr r0
    9744:	000005e4 	andeq	r0, r0, r4, ror #11
    9748:	0000cc0a 	andeq	ip, r0, sl, lsl #24
    974c:	09000200 	stmdbeq	r0, {r9}
    9750:	00000054 	andeq	r0, r0, r4, asr r0
    9754:	000005f4 	strdeq	r0, [r0], -r4
    9758:	0000cc0a 	andeq	ip, r0, sl, lsl #24
    975c:	06000000 	streq	r0, [r0], -r0
    9760:	00000303 	andeq	r0, r0, r3, lsl #6
    9764:	e1011d05 	tst	r1, r5, lsl #26
    9768:	19000002 	stmdbne	r0, {r1}
    976c:	0000047e 	andeq	r0, r0, lr, ror r4
    9770:	0121050c 			; <UNDEFINED> instruction: 0x0121050c
    9774:	00000635 	andeq	r0, r0, r5, lsr r6
    9778:	00032b17 	andeq	r2, r3, r7, lsl fp
    977c:	01230500 			; <UNDEFINED> instruction: 0x01230500
    9780:	00000635 	andeq	r0, r0, r5, lsr r6
    9784:	02071700 	andeq	r1, r7, #0, 14
    9788:	24050000 	strcs	r0, [r5], #-0
    978c:	00002501 	andeq	r2, r0, r1, lsl #10
    9790:	fd170400 	ldc2	4, cr0, [r7, #-0]
    9794:	05000002 	streq	r0, [r0, #-2]
    9798:	063b0125 	ldrteq	r0, [fp], -r5, lsr #2
    979c:	00080000 	andeq	r0, r8, r0
    97a0:	0600040e 	streq	r0, [r0], -lr, lsl #8
    97a4:	040e0000 	streq	r0, [lr], #-0
    97a8:	000005f4 	strdeq	r0, [r0], -r4
    97ac:	00001219 	andeq	r1, r0, r9, lsl r2
    97b0:	3d050e00 	stccc	14, cr0, [r5, #-0]
    97b4:	00067601 	andeq	r7, r6, r1, lsl #12
    97b8:	03711700 	cmneq	r1, #0, 14
    97bc:	3e050000 	cdpcc	0, 0, cr0, cr5, cr0, {0}
    97c0:	00067601 	andeq	r7, r6, r1, lsl #12
    97c4:	9e170000 	cdpls	0, 1, cr0, cr7, cr0, {0}
    97c8:	05000003 	streq	r0, [r0, #-3]
    97cc:	0676013f 			; <UNDEFINED> instruction: 0x0676013f
    97d0:	17060000 	strne	r0, [r6, -r0]
    97d4:	0000041c 	andeq	r0, r0, ip, lsl r4
    97d8:	5b014005 	blpl	597f4 <__bss_end__+0x4f85c>
    97dc:	0c000000 	stceq	0, cr0, [r0], {-0}
    97e0:	005b0900 	subseq	r0, fp, r0, lsl #18
    97e4:	06860000 	streq	r0, [r6], r0
    97e8:	cc0a0000 	stcgt	0, cr0, [sl], {-0}
    97ec:	02000000 	andeq	r0, r0, #0
    97f0:	05d01a00 	ldrbeq	r1, [r0, #2560]	; 0xa00
    97f4:	07870257 			; <UNDEFINED> instruction: 0x07870257
    97f8:	62170000 	andsvs	r0, r7, #0
    97fc:	05000004 	streq	r0, [r0, #-4]
    9800:	002c0259 	eoreq	r0, ip, r9, asr r2
    9804:	17000000 	strne	r0, [r0, -r0]
    9808:	00000406 	andeq	r0, r0, r6, lsl #8
    980c:	0c025a05 			; <UNDEFINED> instruction: 0x0c025a05
    9810:	04000001 	streq	r0, [r0], #-1
    9814:	00023617 	andeq	r3, r2, r7, lsl r6
    9818:	025b0500 	subseq	r0, fp, #0, 10
    981c:	00000787 	andeq	r0, r0, r7, lsl #15
    9820:	04c91708 	strbeq	r1, [r9], #1800	; 0x708
    9824:	5c050000 	stcpl	0, cr0, [r5], {-0}
    9828:	00019202 	andeq	r9, r1, r2, lsl #4
    982c:	b3172400 	tstlt	r7, #0, 8
    9830:	05000001 	streq	r0, [r0, #-1]
    9834:	0025025d 	eoreq	r0, r5, sp, asr r2
    9838:	17480000 	strbne	r0, [r8, -r0]
    983c:	00000326 	andeq	r0, r0, r6, lsr #6
    9840:	69025e05 	stmdbvs	r2, {r0, r2, r9, sl, fp, ip, lr}
    9844:	50000000 	andpl	r0, r0, r0
    9848:	0004df17 	andeq	sp, r4, r7, lsl pc
    984c:	025f0500 	subseq	r0, pc, #0, 10
    9850:	00000641 	andeq	r0, r0, r1, asr #12
    9854:	03311758 	teqeq	r1, #88, 14	; 0x1600000
    9858:	60050000 	andvs	r0, r5, r0
    985c:	0000f402 	andeq	pc, r0, r2, lsl #8
    9860:	e4176800 	ldr	r6, [r7], #-2048	; 0xfffff800
    9864:	05000004 	streq	r0, [r0, #-4]
    9868:	00f40261 	rscseq	r0, r4, r1, ror #4
    986c:	17700000 	ldrbne	r0, [r0, -r0]!
    9870:	00000084 	andeq	r0, r0, r4, lsl #1
    9874:	f4026205 	vst1.8	{d6-d9}, [r2], r5
    9878:	78000000 	stmdavc	r0, {}	; <UNPREDICTABLE>
    987c:	00049417 	andeq	r9, r4, r7, lsl r4
    9880:	02630500 	rsbeq	r0, r3, #0, 10
    9884:	00000797 	muleq	r0, r7, r7
    9888:	022a1780 	eoreq	r1, sl, #128, 14	; 0x2000000
    988c:	64050000 	strvs	r0, [r5], #-0
    9890:	0007a702 	andeq	sl, r7, r2, lsl #14
    9894:	29178800 	ldmdbcs	r7, {fp, pc}
    9898:	05000004 	streq	r0, [r0, #-4]
    989c:	00250265 	eoreq	r0, r5, r5, ror #4
    98a0:	17a00000 	strne	r0, [r0, r0]!
    98a4:	00000179 	andeq	r0, r0, r9, ror r1
    98a8:	f4026605 	vst1.8	{d6-d8}, [r2], r5
    98ac:	a4000000 	strge	r0, [r0], #-0
    98b0:	00007517 	andeq	r7, r0, r7, lsl r5
    98b4:	02670500 	rsbeq	r0, r7, #0, 10
    98b8:	000000f4 	strdeq	r0, [r0], -r4
    98bc:	016817ac 	cmneq	r8, ip, lsr #15
    98c0:	68050000 	stmdavs	r5, {}	; <UNPREDICTABLE>
    98c4:	0000f402 	andeq	pc, r0, r2, lsl #8
    98c8:	2d17b400 	cfldrscs	mvf11, [r7, #-0]
    98cc:	05000000 	streq	r0, [r0, #-0]
    98d0:	00f40269 	rscseq	r0, r4, r9, ror #4
    98d4:	17bc0000 	ldrne	r0, [ip, r0]!
    98d8:	0000003c 	andeq	r0, r0, ip, lsr r0
    98dc:	f4026a05 	vst1.8	{d6-d7}, [r2], r5
    98e0:	c4000000 	strgt	r0, [r0], #-0
    98e4:	0002d917 	andeq	sp, r2, r7, lsl r9
    98e8:	026b0500 	rsbeq	r0, fp, #0, 10
    98ec:	00000025 	andeq	r0, r0, r5, lsr #32
    98f0:	120900cc 	andne	r0, r9, #204	; 0xcc
    98f4:	97000001 	strls	r0, [r0, -r1]
    98f8:	0a000007 	beq	991c <__FUNCTION__.4339+0x2bc>
    98fc:	000000cc 	andeq	r0, r0, ip, asr #1
    9900:	12090019 	andne	r0, r9, #25
    9904:	a7000001 	strge	r0, [r0, -r1]
    9908:	0a000007 	beq	992c <__FUNCTION__.4339+0x2cc>
    990c:	000000cc 	andeq	r0, r0, ip, asr #1
    9910:	12090007 	andne	r0, r9, #7
    9914:	b7000001 	strlt	r0, [r0, -r1]
    9918:	0a000007 	beq	993c <__FUNCTION__.4339+0x2dc>
    991c:	000000cc 	andeq	r0, r0, ip, asr #1
    9920:	f01a0017 			; <UNDEFINED> instruction: 0xf01a0017
    9924:	db027005 	blle	a5940 <__bss_end__+0x9b9a8>
    9928:	17000007 	strne	r0, [r0, -r7]
    992c:	00000280 	andeq	r0, r0, r0, lsl #5
    9930:	db027305 	blle	a654c <__bss_end__+0x9c5b4>
    9934:	00000007 	andeq	r0, r0, r7
    9938:	00048b17 	andeq	r8, r4, r7, lsl fp
    993c:	02740500 	rsbseq	r0, r4, #0, 10
    9940:	000007eb 	andeq	r0, r0, fp, ror #15
    9944:	db090078 	blle	249b2c <__bss_end__+0x23fb94>
    9948:	eb000002 	bl	9958 <__FUNCTION__.4339+0x2f8>
    994c:	0a000007 	beq	9970 <__FUNCTION__.4229+0xc>
    9950:	000000cc 	andeq	r0, r0, ip, asr #1
    9954:	2c09001d 	stccs	0, cr0, [r9], {29}
    9958:	fb000000 	blx	9962 <__FUNCTION__.4281+0x6>
    995c:	0a000007 	beq	9980 <__FUNCTION__.4303+0xc>
    9960:	000000cc 	andeq	r0, r0, ip, asr #1
    9964:	f01b001d 			; <UNDEFINED> instruction: 0xf01b001d
    9968:	1d025505 	cfstr32ne	mvfx5, [r2, #-20]	; 0xffffffec
    996c:	1c000008 	stcne	0, cr0, [r0], {8}
    9970:	0000036a 	andeq	r0, r0, sl, ror #6
    9974:	86026c05 	strhi	r6, [r2], -r5, lsl #24
    9978:	1c000006 	stcne	0, cr0, [r0], {6}
    997c:	000004b6 			; <UNDEFINED> instruction: 0x000004b6
    9980:	b7027505 	strlt	r7, [r2, -r5, lsl #10]
    9984:	00000007 	andeq	r0, r0, r7
    9988:	00011209 	andeq	r1, r1, r9, lsl #4
    998c:	00082d00 	andeq	r2, r8, r0, lsl #26
    9990:	00cc0a00 	sbceq	r0, ip, r0, lsl #20
    9994:	00180000 	andseq	r0, r8, r0
    9998:	0008381d 	andeq	r3, r8, sp, lsl r8
    999c:	04291500 	strteq	r1, [r9], #-1280	; 0xfffffb00
    99a0:	0e000000 	cdpeq	0, 0, cr0, cr0, cr0, {0}
    99a4:	00082d04 	andeq	r2, r8, r4, lsl #26
    99a8:	7c040e00 	stcvc	14, cr0, [r4], {-0}
    99ac:	1d000001 	stcne	0, cr0, [r0, #-4]
    99b0:	0000084f 	andeq	r0, r0, pc, asr #16
    99b4:	00002515 	andeq	r2, r0, r5, lsl r5
    99b8:	040e0000 	streq	r0, [lr], #-0
    99bc:	00000855 	andeq	r0, r0, r5, asr r8
    99c0:	0844040e 	stmdaeq	r4, {r1, r2, r3, sl}^
    99c4:	f4090000 	vst4.8	{d0-d3}, [r9], r0
    99c8:	6b000005 	blvs	99e4 <__FUNCTION__.4303+0x70>
    99cc:	0a000008 	beq	99f4 <__FUNCTION__.4303+0x80>
    99d0:	000000cc 	andeq	r0, r0, ip, asr #1
    99d4:	3d1e0002 	ldccc	0, cr0, [lr, #-8]
    99d8:	05000004 	streq	r0, [r0, #-4]
    99dc:	042902fd 	strteq	r0, [r9], #-765	; 0xfffffd03
    99e0:	361e0000 	ldrcc	r0, [lr], -r0
    99e4:	05000004 	streq	r0, [r0, #-4]
    99e8:	042f02fe 	strteq	r0, [pc], #-766	; 99f0 <__FUNCTION__.4303+0x7c>
    99ec:	25140000 	ldrcs	r0, [r4, #-0]
    99f0:	92000000 	andls	r0, r0, #0
    99f4:	15000008 	strne	r0, [r0, #-8]
    99f8:	00000025 	andeq	r0, r0, r5, lsr #32
    99fc:	01cc1f00 	biceq	r1, ip, r0, lsl #30
    9a00:	1d060000 	stcne	0, cr0, [r6, #-0]
    9a04:	0000089d 	muleq	r0, sp, r8
    9a08:	0883040e 	stmeq	r3, {r1, r2, r3, sl}
    9a0c:	25140000 	ldrcs	r0, [r4, #-0]
    9a10:	b2000000 	andlt	r0, r0, #0
    9a14:	15000008 	strne	r0, [r0, #-8]
    9a18:	0000058a 	andeq	r0, r0, sl, lsl #11
    9a1c:	07691f00 	strbeq	r1, [r9, -r0, lsl #30]!
    9a20:	22060000 	andcs	r0, r6, #0
    9a24:	000008bd 			; <UNDEFINED> instruction: 0x000008bd
    9a28:	08a3040e 	stmiaeq	r3!, {r1, r2, r3, sl}
    9a2c:	01200000 			; <UNDEFINED> instruction: 0x01200000
    9a30:	00000054 	andeq	r0, r0, r4, asr r0
    9a34:	09000c07 	stmdbeq	r0, {r0, r1, r2, sl, fp}
    9a38:	0a210000 	beq	849a40 <__bss_end__+0x83faa8>
    9a3c:	00000009 	andeq	r0, r0, r9
    9a40:	0009e421 	andeq	lr, r9, r1, lsr #8
    9a44:	1f210100 	svcne	0x00210100
    9a48:	0400000a 	streq	r0, [r0], #-10
    9a4c:	00091f21 	andeq	r1, r9, r1, lsr #30
    9a50:	ab210500 	blge	84ae58 <__bss_end__+0x840ec0>
    9a54:	06000009 	streq	r0, [r0], -r9
    9a58:	000a2e21 	andeq	r2, sl, r1, lsr #28
    9a5c:	3d210700 	stccc	7, cr0, [r1, #-0]
    9a60:	0300000a 	movweq	r0, #10
    9a64:	000a4c21 	andeq	r4, sl, r1, lsr #24
    9a68:	05000200 	streq	r0, [r0, #-512]	; 0xfffffe00
    9a6c:	00000ac8 	andeq	r0, r0, r8, asr #21
    9a70:	08c31507 	stmiaeq	r3, {r0, r1, r2, r8, sl, ip}^
    9a74:	99220000 	stmdbls	r2!, {}	; <UNPREDICTABLE>
    9a78:	0100000a 	tsteq	r0, sl
    9a7c:	0000331d 	andeq	r3, r0, sp, lsl r3
    9a80:	20001c00 	andcs	r1, r0, r0, lsl #24
    9a84:	0ad42220 	beq	ff51230c <__bss_end__+0xff508374>
    9a88:	1e010000 	cdpne	0, 0, cr0, cr1, cr0, {0}
    9a8c:	00000033 	andeq	r0, r0, r3, lsr r0
    9a90:	20200028 	eorcs	r0, r0, r8, lsr #32
    9a94:	000aa322 	andeq	sl, sl, r2, lsr #6
    9a98:	331f0100 	tstcc	pc, #0, 2
    9a9c:	34000000 	strcc	r0, [r0], #-0
    9aa0:	23202000 	nopcs	{0}	; <UNPREDICTABLE>
    9aa4:	00000a74 	andeq	r0, r0, r4, ror sl
    9aa8:	00255601 	eoreq	r5, r5, r1, lsl #12
    9aac:	94240000 	strtls	r0, [r4], #-0
    9ab0:	00340000 	eorseq	r0, r4, r0
    9ab4:	9c010000 	stcls	0, cr0, [r1], {-0}
    9ab8:	00000998 	muleq	r0, r8, r9
    9abc:	6e697024 	cdpvs	0, 6, cr7, cr9, cr4, {1}
    9ac0:	2c560100 	ldfcse	f0, [r6], {-0}
    9ac4:	6b000000 	blvs	9acc <__FUNCTION__.4253+0x40>
    9ac8:	25000011 	strcs	r0, [r0, #-17]	; 0xffffffef
    9acc:	00000a68 	andeq	r0, r0, r8, ror #20
    9ad0:	002c5901 	eoreq	r5, ip, r1, lsl #18
    9ad4:	11a50000 			; <UNDEFINED> instruction: 0x11a50000
    9ad8:	6f260000 	svcvs	0x00260000
    9adc:	01006666 	tsteq	r0, r6, ror #12
    9ae0:	00002c5a 	andeq	r2, r0, sl, asr ip
    9ae4:	0011e300 	andseq	lr, r1, r0, lsl #6
    9ae8:	94402700 	strbls	r2, [r0], #-1792	; 0xfffff900
    9aec:	0b5d0000 	bleq	1749af4 <__bss_end__+0x173fb5c>
    9af0:	01280000 			; <UNDEFINED> instruction: 0x01280000
    9af4:	01f30b50 	mvnseq	r0, r0, asr fp
    9af8:	23253550 			; <UNDEFINED> instruction: 0x23253550
    9afc:	818080b4 	strhhi	r8, [r0, r4]
    9b00:	29000002 	stmdbcs	r0, {r1}
    9b04:	00000a8e 	andeq	r0, r0, lr, lsl #21
    9b08:	94084f01 	strls	r4, [r8], #-3841	; 0xfffff0ff
    9b0c:	001c0000 	andseq	r0, ip, r0
    9b10:	9c010000 	stcls	0, cr0, [r1], {-0}
    9b14:	000009e8 	andeq	r0, r0, r8, ror #19
    9b18:	6e697024 	cdpvs	0, 6, cr7, cr9, cr4, {1}
    9b1c:	2c4f0100 	stfcse	f0, [pc], {-0}
    9b20:	f6000000 			; <UNDEFINED> instruction: 0xf6000000
    9b24:	24000011 	strcs	r0, [r0], #-17	; 0xffffffef
    9b28:	4f010076 	svcmi	0x00010076
    9b2c:	0000002c 	andeq	r0, r0, ip, lsr #32
    9b30:	00001230 	andeq	r1, r0, r0, lsr r2
    9b34:	0094182a 	addseq	r1, r4, sl, lsr #16
    9b38:	000a2300 	andeq	r2, sl, r0, lsl #6
    9b3c:	0009de00 	andeq	sp, r9, r0, lsl #28
    9b40:	50012800 	andpl	r2, r1, r0, lsl #16
    9b44:	5001f303 	andpl	pc, r1, r3, lsl #6
    9b48:	94202b00 	strtls	r2, [r0], #-2816	; 0xfffff500
    9b4c:	0a640000 	beq	1909b54 <__bss_end__+0x18ffbbc>
    9b50:	29000000 	stmdbcs	r0, {}	; <UNPREDICTABLE>
    9b54:	00000aad 	andeq	r0, r0, sp, lsr #21
    9b58:	93f84a01 	mvnsls	r4, #4096	; 0x1000
    9b5c:	00100000 	andseq	r0, r0, r0
    9b60:	9c010000 	stcls	0, cr0, [r1], {-0}
    9b64:	00000a23 	andeq	r0, r0, r3, lsr #20
    9b68:	6e697024 	cdpvs	0, 6, cr7, cr9, cr4, {1}
    9b6c:	2c4a0100 	stfcse	f0, [sl], {-0}
    9b70:	6a000000 	bvs	9b78 <__FUNCTION__.4253+0xec>
    9b74:	27000012 	smladcs	r0, r2, r0, r0
    9b78:	00009404 	andeq	r9, r0, r4, lsl #8
    9b7c:	00000ae0 	andeq	r0, r0, r0, ror #21
    9b80:	03500128 	cmpeq	r0, #40, 2
    9b84:	285001f3 	ldmdacs	r0, {r0, r1, r4, r5, r6, r7, r8}^
    9b88:	30015101 	andcc	r5, r1, r1, lsl #2
    9b8c:	5b290000 	blpl	a49b94 <__bss_end__+0xa3fbfc>
    9b90:	0100000a 	tsteq	r0, sl
    9b94:	0093d443 	addseq	sp, r3, r3, asr #8
    9b98:	00002400 	andeq	r2, r0, r0, lsl #8
    9b9c:	649c0100 	ldrvs	r0, [ip], #256	; 0x100
    9ba0:	2400000a 	strcs	r0, [r0], #-10
    9ba4:	006e6970 	rsbeq	r6, lr, r0, ror r9
    9ba8:	002c4301 	eoreq	r4, ip, r1, lsl #6
    9bac:	128b0000 	addne	r0, fp, #0
    9bb0:	f0270000 			; <UNDEFINED> instruction: 0xf0270000
    9bb4:	68000093 	stmdavs	r0, {r0, r1, r4, r7}
    9bb8:	2800000b 	stmdacs	r0, {r0, r1, r3}
    9bbc:	0c055001 	stceq	0, cr5, [r5], {1}
    9bc0:	20200028 	eorcs	r0, r0, r8, lsr #32
    9bc4:	05510128 	ldrbeq	r0, [r1, #-296]	; 0xfffffed8
    9bc8:	5001f331 	andpl	pc, r1, r1, lsr r3	; <UNPREDICTABLE>
    9bcc:	29000024 	stmdbcs	r0, {r2, r5}
    9bd0:	00000abc 			; <UNDEFINED> instruction: 0x00000abc
    9bd4:	93b03c01 	movsls	r3, #256	; 0x100
    9bd8:	00240000 	eoreq	r0, r4, r0
    9bdc:	9c010000 	stcls	0, cr0, [r1], {-0}
    9be0:	00000aa5 	andeq	r0, r0, r5, lsr #21
    9be4:	6e697024 	cdpvs	0, 6, cr7, cr9, cr4, {1}
    9be8:	2c3c0100 	ldfcss	f0, [ip], #-0
    9bec:	ac000000 	stcge	0, cr0, [r0], {-0}
    9bf0:	27000012 	smladcs	r0, r2, r0, r0
    9bf4:	000093cc 	andeq	r9, r0, ip, asr #7
    9bf8:	00000b68 	andeq	r0, r0, r8, ror #22
    9bfc:	05500128 	ldrbeq	r0, [r0, #-296]	; 0xfffffed8
    9c00:	20001c0c 	andcs	r1, r0, ip, lsl #24
    9c04:	51012820 	tstpl	r1, r0, lsr #16
    9c08:	01f33105 	mvnseq	r3, r5, lsl #2
    9c0c:	00002450 	andeq	r2, r0, r0, asr r4
    9c10:	000a7e29 	andeq	r7, sl, r9, lsr #28
    9c14:	a0370100 	eorsge	r0, r7, r0, lsl #2
    9c18:	10000093 	mulne	r0, r3, r0
    9c1c:	01000000 	mrseq	r0, (UNDEF: 0)
    9c20:	000ae09c 	muleq	sl, ip, r0
    9c24:	69702400 	ldmdbvs	r0!, {sl, sp}^
    9c28:	3701006e 	strcc	r0, [r1, -lr, rrx]
    9c2c:	0000002c 	andeq	r0, r0, ip, lsr #32
    9c30:	000012cd 	andeq	r1, r0, sp, asr #5
    9c34:	0093ac27 	addseq	sl, r3, r7, lsr #24
    9c38:	000ae000 	andeq	lr, sl, r0
    9c3c:	50012800 	andpl	r2, r1, r0, lsl #16
    9c40:	5001f303 	andpl	pc, r1, r3, lsl #6
    9c44:	01510128 	cmpeq	r1, r8, lsr #2
    9c48:	29000031 	stmdbcs	r0, {r0, r4, r5}
    9c4c:	000009ba 			; <UNDEFINED> instruction: 0x000009ba
    9c50:	93382801 	teqls	r8, #65536	; 0x10000
    9c54:	00680000 	rsbeq	r0, r8, r0
    9c58:	9c010000 	stcls	0, cr0, [r1], {-0}
    9c5c:	00000b5d 	andeq	r0, r0, sp, asr fp
    9c60:	6e697024 	cdpvs	0, 6, cr7, cr9, cr4, {1}
    9c64:	2c280100 	stfcss	f0, [r8], #-0
    9c68:	ee000000 	cdp	0, 0, cr0, cr0, cr0, {0}
    9c6c:	2c000012 	stccs	0, cr0, [r0], {18}
    9c70:	000004a3 	andeq	r0, r0, r3, lsr #9
    9c74:	09002801 	stmdbeq	r0, {r0, fp, sp}
    9c78:	130f0000 	movwne	r0, #61440	; 0xf000
    9c7c:	6f2d0000 	svcvs	0x002d0000
    9c80:	01006666 	tsteq	r0, r6, ror #12
    9c84:	00002c2d 	andeq	r2, r0, sp, lsr #24
    9c88:	2d540100 	ldfcse	f0, [r4, #-0]
    9c8c:	2f010067 	svccs	0x00010067
    9c90:	0000002c 	andeq	r0, r0, ip, lsr #32
    9c94:	76265601 	strtvc	r5, [r6], -r1, lsl #12
    9c98:	2c310100 	ldfcss	f0, [r1], #-0
    9c9c:	30000000 	andcc	r0, r0, r0
    9ca0:	2a000013 	bcs	9cf4 <buf.4229+0x15c>
    9ca4:	00009384 	andeq	r9, r0, r4, lsl #7
    9ca8:	00000b5d 	andeq	r0, r0, sp, asr fp
    9cac:	00000b4c 	andeq	r0, r0, ip, asr #22
    9cb0:	02500128 	subseq	r0, r0, #40, 2
    9cb4:	27000076 	smlsdxcs	r0, r6, r0, r0
    9cb8:	00009398 	muleq	r0, r8, r3
    9cbc:	00000b68 	andeq	r0, r0, r8, ror #22
    9cc0:	02500128 	subseq	r0, r0, #40, 2
    9cc4:	00000076 	andeq	r0, r0, r6, ror r0
    9cc8:	0008de2e 	andeq	sp, r8, lr, lsr #28
    9ccc:	0008de00 	andeq	sp, r8, r0, lsl #28
    9cd0:	2ea70600 	cdpcs	6, 10, cr0, cr7, cr0, {0}
    9cd4:	0000080b 	andeq	r0, r0, fp, lsl #16
    9cd8:	0000080b 	andeq	r0, r0, fp, lsl #16
    9cdc:	24009b06 	strcs	r9, [r0], #-2822	; 0xfffff4fa
    9ce0:	0400000c 	streq	r0, [r0], #-12
    9ce4:	001e8f00 	andseq	r8, lr, r0, lsl #30
    9ce8:	a4010400 	strge	r0, [r1], #-1024	; 0xfffffc00
    9cec:	0c000003 	stceq	0, cr0, [r0], {3}
    9cf0:	00000ade 	ldrdeq	r0, [r0], -lr
    9cf4:	00000946 	andeq	r0, r0, r6, asr #18
    9cf8:	00009458 	andeq	r9, r0, r8, asr r4
    9cfc:	00000194 	muleq	r0, r4, r1
    9d00:	00001021 	andeq	r1, r0, r1, lsr #32
    9d04:	69050402 	stmdbvs	r5, {r1, sl}
    9d08:	0300746e 	movweq	r7, #1134	; 0x46e
    9d0c:	00570704 	subseq	r0, r7, r4, lsl #14
    9d10:	01030000 	mrseq	r0, (UNDEF: 3)
    9d14:	0002c806 	andeq	ip, r2, r6, lsl #16
    9d18:	05020300 	streq	r0, [r2, #-768]	; 0xfffffd00
    9d1c:	000002e2 	andeq	r0, r0, r2, ror #5
    9d20:	a0050403 	andge	r0, r5, r3, lsl #8
    9d24:	03000000 	movweq	r0, #0
    9d28:	009b0508 	addseq	r0, fp, r8, lsl #10
    9d2c:	01030000 	mrseq	r0, (UNDEF: 3)
    9d30:	0002c608 	andeq	ip, r2, r8, lsl #12
    9d34:	07020300 	streq	r0, [r2, -r0, lsl #6]
    9d38:	0000020e 	andeq	r0, r0, lr, lsl #4
    9d3c:	52070403 	andpl	r0, r7, #50331648	; 0x3000000
    9d40:	03000000 	movweq	r0, #0
    9d44:	004d0708 	subeq	r0, sp, r8, lsl #14
    9d48:	b4040000 	strlt	r0, [r4], #-0
    9d4c:	02000002 	andeq	r0, r0, #2
    9d50:	00002507 	andeq	r2, r0, r7, lsl #10
    9d54:	02a30400 	adceq	r0, r3, #0, 8
    9d58:	2c030000 	stccs	0, cr0, [r3], {-0}
    9d5c:	00000041 	andeq	r0, r0, r1, asr #32
    9d60:	00038d04 	andeq	r8, r3, r4, lsl #26
    9d64:	41720300 	cmnmi	r2, r0, lsl #6
    9d68:	05000000 	streq	r0, [r0, #-0]
    9d6c:	00000251 	andeq	r0, r0, r1, asr r2
    9d70:	2c016504 	cfstr32cs	mvfx6, [r1], {4}
    9d74:	06000000 	streq	r0, [r0], -r0
    9d78:	b7a60304 	strlt	r0, [r6, r4, lsl #6]!
    9d7c:	07000000 	streq	r0, [r0, -r0]
    9d80:	0000024b 	andeq	r0, r0, fp, asr #4
    9d84:	008ca803 	addeq	sl, ip, r3, lsl #16
    9d88:	dd070000 	stcle	0, cr0, [r7, #-0]
    9d8c:	03000001 	movweq	r0, #1
    9d90:	0000b7a9 	andeq	fp, r0, r9, lsr #15
    9d94:	4f080000 	svcmi	0x00080000
    9d98:	c7000000 	strgt	r0, [r0, -r0]
    9d9c:	09000000 	stmdbeq	r0, {}	; <UNPREDICTABLE>
    9da0:	000000c7 	andeq	r0, r0, r7, asr #1
    9da4:	04030003 	streq	r0, [r3], #-3
    9da8:	00027707 	andeq	r7, r2, r7, lsl #14
    9dac:	03080a00 	movweq	r0, #35328	; 0x8a00
    9db0:	0000efa3 	andeq	lr, r0, r3, lsr #31
    9db4:	03770b00 	cmneq	r7, #0, 22
    9db8:	a5030000 	strge	r0, [r3, #-0]
    9dbc:	00000025 	andeq	r0, r0, r5, lsr #32
    9dc0:	037f0b00 	cmneq	pc, #0, 22
    9dc4:	aa030000 	bge	c9dcc <__bss_end__+0xbfe34>
    9dc8:	00000098 	muleq	r0, r8, r0
    9dcc:	0a040004 	beq	109de4 <__bss_end__+0xffe4c>
    9dd0:	03000003 	movweq	r0, #3
    9dd4:	0000ceab 	andeq	ip, r0, fp, lsr #29
    9dd8:	019a0400 	orrseq	r0, sl, r0, lsl #8
    9ddc:	af030000 	svcge	0x00030000
    9de0:	0000006b 	andeq	r0, r0, fp, rrx
    9de4:	040d040c 	streq	r0, [sp], #-1036	; 0xfffffbf4
    9de8:	0000010d 	andeq	r0, r0, sp, lsl #2
    9dec:	cf080103 	svcgt	0x00080103
    9df0:	0e000002 	cdpeq	0, 0, cr0, cr0, cr2, {0}
    9df4:	0000010d 	andeq	r0, r0, sp, lsl #2
    9df8:	00042104 	andeq	r2, r4, r4, lsl #2
    9dfc:	5d160500 	cfldr32pl	mvfx0, [r6, #-0]
    9e00:	0f000000 	svceq	0x00000000
    9e04:	000001ab 	andeq	r0, r0, fp, lsr #3
    9e08:	772d0518 			; <UNDEFINED> instruction: 0x772d0518
    9e0c:	0b000001 	bleq	9e18 <buf.4229+0x280>
    9e10:	0000032b 	andeq	r0, r0, fp, lsr #6
    9e14:	01772f05 	cmneq	r7, r5, lsl #30
    9e18:	10000000 	andne	r0, r0, r0
    9e1c:	05006b5f 	streq	r6, [r0, #-2911]	; 0xfffff4a1
    9e20:	00002530 	andeq	r2, r0, r0, lsr r5
    9e24:	620b0400 	andvs	r0, fp, #0, 8
    9e28:	05000003 	streq	r0, [r0, #-3]
    9e2c:	00002530 	andeq	r2, r0, r0, lsr r5
    9e30:	940b0800 	strls	r0, [fp], #-2048	; 0xfffff800
    9e34:	05000001 	streq	r0, [r0, #-1]
    9e38:	00002530 	andeq	r2, r0, r0, lsr r5
    9e3c:	6f0b0c00 	svcvs	0x000b0c00
    9e40:	05000004 	streq	r0, [r0, #-4]
    9e44:	00002530 	andeq	r2, r0, r0, lsr r5
    9e48:	5f101000 	svcpl	0x00101000
    9e4c:	31050078 	tstcc	r5, r8, ror r0
    9e50:	0000017d 	andeq	r0, r0, sp, ror r1
    9e54:	040d0014 	streq	r0, [sp], #-20	; 0xffffffec
    9e58:	00000124 	andeq	r0, r0, r4, lsr #2
    9e5c:	00011908 	andeq	r1, r1, r8, lsl #18
    9e60:	00018d00 	andeq	r8, r1, r0, lsl #26
    9e64:	00c70900 	sbceq	r0, r7, r0, lsl #18
    9e68:	00000000 	andeq	r0, r0, r0
    9e6c:	0001d80f 	andeq	sp, r1, pc, lsl #16
    9e70:	35052400 	strcc	r2, [r5, #-1024]	; 0xfffffc00
    9e74:	00000206 	andeq	r0, r0, r6, lsl #4
    9e78:	0000920b 	andeq	r9, r0, fp, lsl #4
    9e7c:	25370500 	ldrcs	r0, [r7, #-1280]!	; 0xfffffb00
    9e80:	00000000 	andeq	r0, r0, r0
    9e84:	0003950b 	andeq	r9, r3, fp, lsl #10
    9e88:	25380500 	ldrcs	r0, [r8, #-1280]!	; 0xfffffb00
    9e8c:	04000000 	streq	r0, [r0], #-0
    9e90:	0000b50b 	andeq	fp, r0, fp, lsl #10
    9e94:	25390500 	ldrcs	r0, [r9, #-1280]!	; 0xfffffb00
    9e98:	08000000 	stmdaeq	r0, {}	; <UNPREDICTABLE>
    9e9c:	0004f70b 	andeq	pc, r4, fp, lsl #14
    9ea0:	253a0500 	ldrcs	r0, [sl, #-1280]!	; 0xfffffb00
    9ea4:	0c000000 	stceq	0, cr0, [r0], {-0}
    9ea8:	0002870b 	andeq	r8, r2, fp, lsl #14
    9eac:	253b0500 	ldrcs	r0, [fp, #-1280]!	; 0xfffffb00
    9eb0:	10000000 	andne	r0, r0, r0
    9eb4:	00026d0b 	andeq	r6, r2, fp, lsl #26
    9eb8:	253c0500 	ldrcs	r0, [ip, #-1280]!	; 0xfffffb00
    9ebc:	14000000 	strne	r0, [r0], #-0
    9ec0:	0004740b 	andeq	r7, r4, fp, lsl #8
    9ec4:	253d0500 	ldrcs	r0, [sp, #-1280]!	; 0xfffffb00
    9ec8:	18000000 	stmdane	r0, {}	; <UNPREDICTABLE>
    9ecc:	0002ec0b 	andeq	lr, r2, fp, lsl #24
    9ed0:	253e0500 	ldrcs	r0, [lr, #-1280]!	; 0xfffffb00
    9ed4:	1c000000 	stcne	0, cr0, [r0], {-0}
    9ed8:	0004be0b 	andeq	fp, r4, fp, lsl #28
    9edc:	253f0500 	ldrcs	r0, [pc, #-1280]!	; 99e4 <__FUNCTION__.4303+0x70>
    9ee0:	20000000 	andcs	r0, r0, r0
    9ee4:	00f51100 	rscseq	r1, r5, r0, lsl #2
    9ee8:	01080000 	mrseq	r0, (UNDEF: 8)
    9eec:	02464805 	subeq	r4, r6, #327680	; 0x50000
    9ef0:	870b0000 	strhi	r0, [fp, -r0]
    9ef4:	05000001 	streq	r0, [r0, #-1]
    9ef8:	00024649 	andeq	r4, r2, r9, asr #12
    9efc:	000b0000 	andeq	r0, fp, r0
    9f00:	05000000 	streq	r0, [r0, #-0]
    9f04:	0002464a 	andeq	r4, r2, sl, asr #12
    9f08:	13128000 	tstne	r2, #0
    9f0c:	05000004 	streq	r0, [r0, #-4]
    9f10:	0001194c 	andeq	r1, r1, ip, asr #18
    9f14:	12010000 	andne	r0, r1, #0
    9f18:	0000011a 	andeq	r0, r0, sl, lsl r1
    9f1c:	01194f05 	tsteq	r9, r5, lsl #30
    9f20:	01040000 	mrseq	r0, (UNDEF: 4)
    9f24:	01050800 	tsteq	r5, r0, lsl #16
    9f28:	02560000 	subseq	r0, r6, #0
    9f2c:	c7090000 	strgt	r0, [r9, -r0]
    9f30:	1f000000 	svcne	0x00000000
    9f34:	02901100 	addseq	r1, r0, #0, 2
    9f38:	01900000 	orrseq	r0, r0, r0
    9f3c:	02945b05 	addseq	r5, r4, #5120	; 0x1400
    9f40:	2b0b0000 	blcs	2c9f48 <__bss_end__+0x2bffb0>
    9f44:	05000003 	streq	r0, [r0, #-3]
    9f48:	0002945c 	andeq	r9, r2, ip, asr r4
    9f4c:	430b0000 	movwmi	r0, #45056	; 0xb000
    9f50:	05000003 	streq	r0, [r0, #-3]
    9f54:	0000255d 	andeq	r2, r0, sp, asr r5
    9f58:	8f0b0400 	svchi	0x000b0400
    9f5c:	05000001 	streq	r0, [r0, #-1]
    9f60:	00029a5f 	andeq	r9, r2, pc, asr sl
    9f64:	f50b0800 			; <UNDEFINED> instruction: 0xf50b0800
    9f68:	05000000 	streq	r0, [r0, #-0]
    9f6c:	00020660 	andeq	r0, r2, r0, ror #12
    9f70:	0d008800 	stceq	8, cr8, [r0, #-0]
    9f74:	00025604 	andeq	r5, r2, r4, lsl #12
    9f78:	02aa0800 	adceq	r0, sl, #0, 16
    9f7c:	02aa0000 	adceq	r0, sl, #0
    9f80:	c7090000 	strgt	r0, [r9, -r0]
    9f84:	1f000000 	svcne	0x00000000
    9f88:	b0040d00 	andlt	r0, r4, r0, lsl #26
    9f8c:	13000002 	movwne	r0, #2
    9f90:	0002f60f 	andeq	pc, r2, pc, lsl #12
    9f94:	73050800 	movwvc	r0, #22528	; 0x5800
    9f98:	000002d6 	ldrdeq	r0, [r0], -r6
    9f9c:	0000af0b 	andeq	sl, r0, fp, lsl #30
    9fa0:	d6740500 	ldrbtle	r0, [r4], -r0, lsl #10
    9fa4:	00000002 	andeq	r0, r0, r2
    9fa8:	00000c0b 	andeq	r0, r0, fp, lsl #24
    9fac:	25750500 	ldrbcs	r0, [r5, #-1280]!	; 0xfffffb00
    9fb0:	04000000 	streq	r0, [r0], #-0
    9fb4:	4f040d00 	svcmi	0x00040d00
    9fb8:	0f000000 	svceq	0x00000000
    9fbc:	00000315 	andeq	r0, r0, r5, lsl r3
    9fc0:	06b30568 	ldrteq	r0, [r3], r8, ror #10
    9fc4:	10000004 	andne	r0, r0, r4
    9fc8:	0500705f 	streq	r7, [r0, #-95]	; 0xffffffa1
    9fcc:	0002d6b4 			; <UNDEFINED> instruction: 0x0002d6b4
    9fd0:	5f100000 	svcpl	0x00100000
    9fd4:	b5050072 	strlt	r0, [r5, #-114]	; 0xffffff8e
    9fd8:	00000025 	andeq	r0, r0, r5, lsr #32
    9fdc:	775f1004 	ldrbvc	r1, [pc, -r4]
    9fe0:	25b60500 	ldrcs	r0, [r6, #1280]!	; 0x500
    9fe4:	08000000 	stmdaeq	r0, {}	; <UNPREDICTABLE>
    9fe8:	0001130b 	andeq	r1, r1, fp, lsl #6
    9fec:	3ab70500 	bcc	fedcb3f4 <__bss_end__+0xfedc145c>
    9ff0:	0c000000 	stceq	0, cr0, [r0], {-0}
    9ff4:	0001f40b 	andeq	pc, r1, fp, lsl #8
    9ff8:	3ab80500 	bcc	fee0b400 <__bss_end__+0xfee01468>
    9ffc:	0e000000 	cdpeq	0, 0, cr0, cr0, cr0, {0}
    a000:	66625f10 	uqadd16vs	r5, r2, r0
    a004:	b1b90500 			; <UNDEFINED> instruction: 0xb1b90500
    a008:	10000002 	andne	r0, r0, r2
    a00c:	00006c0b 	andeq	r6, r0, fp, lsl #24
    a010:	25ba0500 	ldrcs	r0, [sl, #1280]!	; 0x500
    a014:	18000000 	stmdane	r0, {}	; <UNPREDICTABLE>
    a018:	0001030b 	andeq	r0, r1, fp, lsl #6
    a01c:	05c10500 	strbeq	r0, [r1, #1280]	; 0x500
    a020:	1c000001 	stcne	0, cr0, [r0], {1}
    a024:	000a780b 	andeq	r7, sl, fp, lsl #16
    a028:	61c30500 	bicvs	r0, r3, r0, lsl #10
    a02c:	20000005 	andcs	r0, r0, r5
    a030:	00060c0b 	andeq	r0, r6, fp, lsl #24
    a034:	8bc50500 	blhi	ff14b43c <__bss_end__+0xff1414a4>
    a038:	24000005 	strcs	r0, [r0], #-5
    a03c:	0003870b 	andeq	r8, r3, fp, lsl #14
    a040:	afc80500 	svcge	0x00c80500
    a044:	28000005 	stmdacs	r0, {r0, r2}
    a048:	0004d80b 	andeq	sp, r4, fp, lsl #16
    a04c:	c9c90500 	stmibgt	r9, {r8, sl}^
    a050:	2c000005 	stccs	0, cr0, [r0], {5}
    a054:	62755f10 	rsbsvs	r5, r5, #16, 30	; 0x40
    a058:	b1cc0500 	biclt	r0, ip, r0, lsl #10
    a05c:	30000002 	andcc	r0, r0, r2
    a060:	70755f10 	rsbsvc	r5, r5, r0, lsl pc
    a064:	d6cd0500 	strble	r0, [sp], r0, lsl #10
    a068:	38000002 	stmdacc	r0, {r1}
    a06c:	72755f10 	rsbsvc	r5, r5, #16, 30	; 0x40
    a070:	25ce0500 	strbcs	r0, [lr, #1280]	; 0x500
    a074:	3c000000 	stccc	0, cr0, [r0], {-0}
    a078:	0000a90b 	andeq	sl, r0, fp, lsl #18
    a07c:	cfd10500 	svcgt	0x00d10500
    a080:	40000005 	andmi	r0, r0, r5
    a084:	0004b00b 	andeq	fp, r4, fp
    a088:	dfd20500 	svcle	0x00d20500
    a08c:	43000005 	movwmi	r0, #5
    a090:	626c5f10 	rsbvs	r5, ip, #16, 30	; 0x40
    a094:	b1d50500 	bicslt	r0, r5, r0, lsl #10
    a098:	44000002 	strmi	r0, [r0], #-2
    a09c:	0001380b 	andeq	r3, r1, fp, lsl #16
    a0a0:	25d80500 	ldrbcs	r0, [r8, #1280]	; 0x500
    a0a4:	4c000000 	stcmi	0, cr0, [r0], {-0}
    a0a8:	0001490b 	andeq	r4, r1, fp, lsl #18
    a0ac:	76d90500 	ldrbvc	r0, [r9], r0, lsl #10
    a0b0:	50000000 	andpl	r0, r0, r0
    a0b4:	000a190b 	andeq	r1, sl, fp, lsl #18
    a0b8:	24dc0500 	ldrbcs	r0, [ip], #1280	; 0x500
    a0bc:	54000004 	strpl	r0, [r0], #-4
    a0c0:	00025f0b 	andeq	r5, r2, fp, lsl #30
    a0c4:	fae00500 	blx	ff80b4cc <__bss_end__+0xff801534>
    a0c8:	58000000 	stmdapl	r0, {}	; <UNPREDICTABLE>
    a0cc:	00031d0b 	andeq	r1, r3, fp, lsl #26
    a0d0:	efe20500 	svc	0x00e20500
    a0d4:	5c000000 	stcpl	0, cr0, [r0], {-0}
    a0d8:	0002650b 	andeq	r6, r2, fp, lsl #10
    a0dc:	25e30500 	strbcs	r0, [r3, #1280]!	; 0x500
    a0e0:	64000000 	strvs	r0, [r0], #-0
    a0e4:	00251400 	eoreq	r1, r5, r0, lsl #8
    a0e8:	04240000 	strteq	r0, [r4], #-0
    a0ec:	24150000 	ldrcs	r0, [r5], #-0
    a0f0:	15000004 	strne	r0, [r0, #-4]
    a0f4:	00000105 	andeq	r0, r0, r5, lsl #2
    a0f8:	00010715 	andeq	r0, r1, r5, lsl r7
    a0fc:	00251500 	eoreq	r1, r5, r0, lsl #10
    a100:	0d000000 	stceq	0, cr0, [r0, #-0]
    a104:	00042f04 	andeq	r2, r4, r4, lsl #30
    a108:	04240e00 	strteq	r0, [r4], #-3584	; 0xfffff200
    a10c:	6a160000 	bvs	58a114 <__bss_end__+0x58017c>
    a110:	28000003 	stmdacs	r0, {r0, r1}
    a114:	02380504 	eorseq	r0, r8, #4, 10	; 0x1000000
    a118:	00000561 	andeq	r0, r0, r1, ror #10
    a11c:	0002db17 	andeq	sp, r2, r7, lsl fp
    a120:	023a0500 	eorseq	r0, sl, #0, 10
    a124:	00000025 	andeq	r0, r0, r5, lsr #32
    a128:	04841700 	streq	r1, [r4], #1792	; 0x700
    a12c:	3f050000 	svccc	0x00050000
    a130:	00063602 	andeq	r3, r6, r2, lsl #12
    a134:	e4170400 	ldr	r0, [r7], #-1024	; 0xfffffc00
    a138:	05000001 	streq	r0, [r0, #-1]
    a13c:	0636023f 			; <UNDEFINED> instruction: 0x0636023f
    a140:	17080000 	strne	r0, [r8, -r0]
    a144:	000001a3 	andeq	r0, r0, r3, lsr #3
    a148:	36023f05 	strcc	r3, [r2], -r5, lsl #30
    a14c:	0c000006 	stceq	0, cr0, [r0], {6}
    a150:	00033e17 	andeq	r3, r3, r7, lsl lr
    a154:	02410500 	subeq	r0, r1, #0, 10
    a158:	00000025 	andeq	r0, r0, r5, lsr #32
    a15c:	001a1710 	andseq	r1, sl, r0, lsl r7
    a160:	42050000 	andmi	r0, r5, #0
    a164:	00081802 	andeq	r1, r8, r2, lsl #16
    a168:	49171400 	ldmdbmi	r7, {sl, ip}
    a16c:	05000004 	streq	r0, [r0, #-4]
    a170:	00250244 	eoreq	r0, r5, r4, asr #4
    a174:	17300000 	ldrne	r0, [r0, -r0]!
    a178:	00000348 	andeq	r0, r0, r8, asr #6
    a17c:	85024505 	strhi	r4, [r2, #-1285]	; 0xfffffafb
    a180:	34000005 	strcc	r0, [r0], #-5
    a184:	00029817 	andeq	r9, r2, r7, lsl r8
    a188:	02470500 	subeq	r0, r7, #0, 10
    a18c:	00000025 	andeq	r0, r0, r5, lsr #32
    a190:	03581738 	cmpeq	r8, #56, 14	; 0xe00000
    a194:	49050000 	stmdbmi	r5, {}	; <UNPREDICTABLE>
    a198:	00083302 	andeq	r3, r8, r2, lsl #6
    a19c:	43173c00 	tstmi	r7, #0, 24
    a1a0:	05000002 	streq	r0, [r0, #-2]
    a1a4:	0177024c 	cmneq	r7, ip, asr #4
    a1a8:	17400000 	strbne	r0, [r0, -r0]
    a1ac:	000001c2 	andeq	r0, r0, r2, asr #3
    a1b0:	25024d05 	strcs	r4, [r2, #-3333]	; 0xfffff2fb
    a1b4:	44000000 	strmi	r0, [r0], #-0
    a1b8:	0004f217 	andeq	pc, r4, r7, lsl r2	; <UNPREDICTABLE>
    a1bc:	024e0500 	subeq	r0, lr, #0, 10
    a1c0:	00000177 	andeq	r0, r0, r7, ror r1
    a1c4:	02aa1748 	adceq	r1, sl, #72, 14	; 0x1200000
    a1c8:	4f050000 	svcmi	0x00050000
    a1cc:	00083902 	andeq	r3, r8, r2, lsl #18
    a1d0:	ec174c00 	ldc	12, cr4, [r7], {-0}
    a1d4:	05000001 	streq	r0, [r0, #-1]
    a1d8:	00250252 	eoreq	r0, r5, r2, asr r2
    a1dc:	17500000 	ldrbne	r0, [r0, -r0]
    a1e0:	00000141 	andeq	r0, r0, r1, asr #2
    a1e4:	07025305 	streq	r5, [r2, -r5, lsl #6]
    a1e8:	54000001 	strpl	r0, [r0], #-1
    a1ec:	0002d417 	andeq	sp, r2, r7, lsl r4
    a1f0:	02760500 	rsbseq	r0, r6, #0, 10
    a1f4:	000007f6 	strdeq	r0, [r0], -r6
    a1f8:	02901858 	addseq	r1, r0, #88, 16	; 0x580000
    a1fc:	7a050000 	bvc	14a204 <__bss_end__+0x14026c>
    a200:	00029402 	andeq	r9, r2, r2, lsl #8
    a204:	18014800 	stmdane	r1, {fp, lr}
    a208:	00000221 	andeq	r0, r0, r1, lsr #4
    a20c:	56027b05 	strpl	r7, [r2], -r5, lsl #22
    a210:	4c000002 	stcmi	0, cr0, [r0], {2}
    a214:	049e1801 	ldreq	r1, [lr], #2049	; 0x801
    a218:	7f050000 	svcvc	0x00050000
    a21c:	00084a02 	andeq	r4, r8, r2, lsl #20
    a220:	1802dc00 	stmdane	r2, {sl, fp, ip, lr, pc}
    a224:	0000010b 	andeq	r0, r0, fp, lsl #2
    a228:	fb028405 	blx	ab246 <__bss_end__+0xa12ae>
    a22c:	e0000005 	and	r0, r0, r5
    a230:	00f01802 	rscseq	r1, r0, r2, lsl #16
    a234:	85050000 	strhi	r0, [r5, #-0]
    a238:	00085602 	andeq	r5, r8, r2, lsl #12
    a23c:	0002ec00 	andeq	lr, r2, r0, lsl #24
    a240:	0406040d 	streq	r0, [r6], #-1037	; 0xfffffbf3
    a244:	25140000 	ldrcs	r0, [r4, #-0]
    a248:	85000000 	strhi	r0, [r0, #-0]
    a24c:	15000005 	strne	r0, [r0, #-5]
    a250:	00000424 	andeq	r0, r0, r4, lsr #8
    a254:	00010515 	andeq	r0, r1, r5, lsl r5
    a258:	05851500 	streq	r1, [r5, #1280]	; 0x500
    a25c:	25150000 	ldrcs	r0, [r5, #-0]
    a260:	00000000 	andeq	r0, r0, r0
    a264:	0114040d 	tsteq	r4, sp, lsl #8
    a268:	040d0000 	streq	r0, [sp], #-0
    a26c:	00000567 	andeq	r0, r0, r7, ror #10
    a270:	00008114 	andeq	r8, r0, r4, lsl r1
    a274:	0005af00 	andeq	sl, r5, r0, lsl #30
    a278:	04241500 	strteq	r1, [r4], #-1280	; 0xfffffb00
    a27c:	05150000 	ldreq	r0, [r5, #-0]
    a280:	15000001 	strne	r0, [r0, #-1]
    a284:	00000081 	andeq	r0, r0, r1, lsl #1
    a288:	00002515 	andeq	r2, r0, r5, lsl r5
    a28c:	040d0000 	streq	r0, [sp], #-0
    a290:	00000591 	muleq	r0, r1, r5
    a294:	00002514 	andeq	r2, r0, r4, lsl r5
    a298:	0005c900 	andeq	ip, r5, r0, lsl #18
    a29c:	04241500 	strteq	r1, [r4], #-1280	; 0xfffffb00
    a2a0:	05150000 	ldreq	r0, [r5, #-0]
    a2a4:	00000001 	andeq	r0, r0, r1
    a2a8:	05b5040d 	ldreq	r0, [r5, #1037]!	; 0x40d
    a2ac:	4f080000 	svcmi	0x00080000
    a2b0:	df000000 	svcle	0x00000000
    a2b4:	09000005 	stmdbeq	r0, {r0, r2}
    a2b8:	000000c7 	andeq	r0, r0, r7, asr #1
    a2bc:	4f080002 	svcmi	0x00080002
    a2c0:	ef000000 	svc	0x00000000
    a2c4:	09000005 	stmdbeq	r0, {r0, r2}
    a2c8:	000000c7 	andeq	r0, r0, r7, asr #1
    a2cc:	03050000 	movweq	r0, #20480	; 0x5000
    a2d0:	05000003 	streq	r0, [r0, #-3]
    a2d4:	02dc011d 	sbcseq	r0, ip, #1073741831	; 0x40000007
    a2d8:	7e190000 	cdpvc	0, 1, cr0, cr9, cr0, {0}
    a2dc:	0c000004 	stceq	0, cr0, [r0], {4}
    a2e0:	30012105 	andcc	r2, r1, r5, lsl #2
    a2e4:	17000006 	strne	r0, [r0, -r6]
    a2e8:	0000032b 	andeq	r0, r0, fp, lsr #6
    a2ec:	30012305 	andcc	r2, r1, r5, lsl #6
    a2f0:	00000006 	andeq	r0, r0, r6
    a2f4:	00020717 	andeq	r0, r2, r7, lsl r7
    a2f8:	01240500 			; <UNDEFINED> instruction: 0x01240500
    a2fc:	00000025 	andeq	r0, r0, r5, lsr #32
    a300:	02fd1704 	rscseq	r1, sp, #4, 14	; 0x100000
    a304:	25050000 	strcs	r0, [r5, #-0]
    a308:	00063601 	andeq	r3, r6, r1, lsl #12
    a30c:	0d000800 	stceq	8, cr0, [r0, #-0]
    a310:	0005fb04 	andeq	pc, r5, r4, lsl #22
    a314:	ef040d00 	svc	0x00040d00
    a318:	19000005 	stmdbne	r0, {r0, r2}
    a31c:	00000012 	andeq	r0, r0, r2, lsl r0
    a320:	013d050e 	teqeq	sp, lr, lsl #10
    a324:	00000671 	andeq	r0, r0, r1, ror r6
    a328:	00037117 	andeq	r7, r3, r7, lsl r1
    a32c:	013e0500 	teqeq	lr, r0, lsl #10
    a330:	00000671 	andeq	r0, r0, r1, ror r6
    a334:	039e1700 	orrseq	r1, lr, #0, 14
    a338:	3f050000 	svccc	0x00050000
    a33c:	00067101 	andeq	r7, r6, r1, lsl #2
    a340:	1c170600 	ldcne	6, cr0, [r7], {-0}
    a344:	05000004 	streq	r0, [r0, #-4]
    a348:	00560140 	subseq	r0, r6, r0, asr #2
    a34c:	000c0000 	andeq	r0, ip, r0
    a350:	00005608 	andeq	r5, r0, r8, lsl #12
    a354:	00068100 	andeq	r8, r6, r0, lsl #2
    a358:	00c70900 	sbceq	r0, r7, r0, lsl #18
    a35c:	00020000 	andeq	r0, r2, r0
    a360:	5705d01a 	smladpl	r5, sl, r0, sp
    a364:	00078202 	andeq	r8, r7, r2, lsl #4
    a368:	04621700 	strbteq	r1, [r2], #-1792	; 0xfffff900
    a36c:	59050000 	stmdbpl	r5, {}	; <UNPREDICTABLE>
    a370:	00002c02 	andeq	r2, r0, r2, lsl #24
    a374:	06170000 	ldreq	r0, [r7], -r0
    a378:	05000004 	streq	r0, [r0, #-4]
    a37c:	0107025a 	tsteq	r7, sl, asr r2
    a380:	17040000 	strne	r0, [r4, -r0]
    a384:	00000236 	andeq	r0, r0, r6, lsr r2
    a388:	82025b05 	andhi	r5, r2, #5120	; 0x1400
    a38c:	08000007 	stmdaeq	r0, {r0, r1, r2}
    a390:	0004c917 	andeq	ip, r4, r7, lsl r9
    a394:	025c0500 	subseq	r0, ip, #0, 10
    a398:	0000018d 	andeq	r0, r0, sp, lsl #3
    a39c:	01b31724 			; <UNDEFINED> instruction: 0x01b31724
    a3a0:	5d050000 	stcpl	0, cr0, [r5, #-0]
    a3a4:	00002502 	andeq	r2, r0, r2, lsl #10
    a3a8:	26174800 	ldrcs	r4, [r7], -r0, lsl #16
    a3ac:	05000003 	streq	r0, [r0, #-3]
    a3b0:	0064025e 	rsbeq	r0, r4, lr, asr r2
    a3b4:	17500000 	ldrbne	r0, [r0, -r0]
    a3b8:	000004df 	ldrdeq	r0, [r0], -pc	; <UNPREDICTABLE>
    a3bc:	3c025f05 	stccc	15, cr5, [r2], {5}
    a3c0:	58000006 	stmdapl	r0, {r1, r2}
    a3c4:	00033117 	andeq	r3, r3, r7, lsl r1
    a3c8:	02600500 	rsbeq	r0, r0, #0, 10
    a3cc:	000000ef 	andeq	r0, r0, pc, ror #1
    a3d0:	04e41768 	strbteq	r1, [r4], #1896	; 0x768
    a3d4:	61050000 	mrsvs	r0, (UNDEF: 5)
    a3d8:	0000ef02 	andeq	lr, r0, r2, lsl #30
    a3dc:	84177000 	ldrhi	r7, [r7], #-0
    a3e0:	05000000 	streq	r0, [r0, #-0]
    a3e4:	00ef0262 	rsceq	r0, pc, r2, ror #4
    a3e8:	17780000 	ldrbne	r0, [r8, -r0]!
    a3ec:	00000494 	muleq	r0, r4, r4
    a3f0:	92026305 	andls	r6, r2, #335544320	; 0x14000000
    a3f4:	80000007 	andhi	r0, r0, r7
    a3f8:	00022a17 	andeq	r2, r2, r7, lsl sl
    a3fc:	02640500 	rsbeq	r0, r4, #0, 10
    a400:	000007a2 	andeq	r0, r0, r2, lsr #15
    a404:	04291788 	strteq	r1, [r9], #-1928	; 0xfffff878
    a408:	65050000 	strvs	r0, [r5, #-0]
    a40c:	00002502 	andeq	r2, r0, r2, lsl #10
    a410:	7917a000 	ldmdbvc	r7, {sp, pc}
    a414:	05000001 	streq	r0, [r0, #-1]
    a418:	00ef0266 	rsceq	r0, pc, r6, ror #4
    a41c:	17a40000 	strne	r0, [r4, r0]!
    a420:	00000075 	andeq	r0, r0, r5, ror r0
    a424:	ef026705 	svc	0x00026705
    a428:	ac000000 	stcge	0, cr0, [r0], {-0}
    a42c:	00016817 	andeq	r6, r1, r7, lsl r8
    a430:	02680500 	rsbeq	r0, r8, #0, 10
    a434:	000000ef 	andeq	r0, r0, pc, ror #1
    a438:	002d17b4 	strhteq	r1, [sp], -r4
    a43c:	69050000 	stmdbvs	r5, {}	; <UNPREDICTABLE>
    a440:	0000ef02 	andeq	lr, r0, r2, lsl #30
    a444:	3c17bc00 	ldccc	12, cr11, [r7], {-0}
    a448:	05000000 	streq	r0, [r0, #-0]
    a44c:	00ef026a 	rsceq	r0, pc, sl, ror #4
    a450:	17c40000 	strbne	r0, [r4, r0]
    a454:	000002d9 	ldrdeq	r0, [r0], -r9
    a458:	25026b05 	strcs	r6, [r2, #-2821]	; 0xfffff4fb
    a45c:	cc000000 	stcgt	0, cr0, [r0], {-0}
    a460:	010d0800 	tsteq	sp, r0, lsl #16
    a464:	07920000 	ldreq	r0, [r2, r0]
    a468:	c7090000 	strgt	r0, [r9, -r0]
    a46c:	19000000 	stmdbne	r0, {}	; <UNPREDICTABLE>
    a470:	010d0800 	tsteq	sp, r0, lsl #16
    a474:	07a20000 	streq	r0, [r2, r0]!
    a478:	c7090000 	strgt	r0, [r9, -r0]
    a47c:	07000000 	streq	r0, [r0, -r0]
    a480:	010d0800 	tsteq	sp, r0, lsl #16
    a484:	07b20000 	ldreq	r0, [r2, r0]!
    a488:	c7090000 	strgt	r0, [r9, -r0]
    a48c:	17000000 	strne	r0, [r0, -r0]
    a490:	05f01a00 	ldrbeq	r1, [r0, #2560]!	; 0xa00
    a494:	07d60270 			; <UNDEFINED> instruction: 0x07d60270
    a498:	80170000 	andshi	r0, r7, r0
    a49c:	05000002 	streq	r0, [r0, #-2]
    a4a0:	07d60273 			; <UNDEFINED> instruction: 0x07d60273
    a4a4:	17000000 	strne	r0, [r0, -r0]
    a4a8:	0000048b 	andeq	r0, r0, fp, lsl #9
    a4ac:	e6027405 	str	r7, [r2], -r5, lsl #8
    a4b0:	78000007 	stmdavc	r0, {r0, r1, r2}
    a4b4:	02d60800 	sbcseq	r0, r6, #0, 16
    a4b8:	07e60000 	strbeq	r0, [r6, r0]!
    a4bc:	c7090000 	strgt	r0, [r9, -r0]
    a4c0:	1d000000 	stcne	0, cr0, [r0, #-0]
    a4c4:	002c0800 	eoreq	r0, ip, r0, lsl #16
    a4c8:	07f60000 	ldrbeq	r0, [r6, r0]!
    a4cc:	c7090000 	strgt	r0, [r9, -r0]
    a4d0:	1d000000 	stcne	0, cr0, [r0, #-0]
    a4d4:	05f01b00 	ldrbeq	r1, [r0, #2816]!	; 0xb00
    a4d8:	08180255 	ldmdaeq	r8, {r0, r2, r4, r6, r9}
    a4dc:	6a1c0000 	bvs	70a4e4 <__bss_end__+0x70054c>
    a4e0:	05000003 	streq	r0, [r0, #-3]
    a4e4:	0681026c 	streq	r0, [r1], ip, ror #4
    a4e8:	b61c0000 	ldrlt	r0, [ip], -r0
    a4ec:	05000004 	streq	r0, [r0, #-4]
    a4f0:	07b20275 			; <UNDEFINED> instruction: 0x07b20275
    a4f4:	08000000 	stmdaeq	r0, {}	; <UNPREDICTABLE>
    a4f8:	0000010d 	andeq	r0, r0, sp, lsl #2
    a4fc:	00000828 	andeq	r0, r0, r8, lsr #16
    a500:	0000c709 	andeq	ip, r0, r9, lsl #14
    a504:	1d001800 	stcne	8, cr1, [r0, #-0]
    a508:	00000833 	andeq	r0, r0, r3, lsr r8
    a50c:	00042415 	andeq	r2, r4, r5, lsl r4
    a510:	040d0000 	streq	r0, [sp], #-0
    a514:	00000828 	andeq	r0, r0, r8, lsr #16
    a518:	0177040d 	cmneq	r7, sp, lsl #8
    a51c:	4a1d0000 	bmi	74a524 <__bss_end__+0x74058c>
    a520:	15000008 	strne	r0, [r0, #-8]
    a524:	00000025 	andeq	r0, r0, r5, lsr #32
    a528:	50040d00 	andpl	r0, r4, r0, lsl #26
    a52c:	0d000008 	stceq	0, cr0, [r0, #-32]	; 0xffffffe0
    a530:	00083f04 	andeq	r3, r8, r4, lsl #30
    a534:	05ef0800 	strbeq	r0, [pc, #2048]!	; ad3c <__bss_end__+0xda4>
    a538:	08660000 	stmdaeq	r6!, {}^	; <UNPREDICTABLE>
    a53c:	c7090000 	strgt	r0, [r9, -r0]
    a540:	02000000 	andeq	r0, r0, #0
    a544:	043d1e00 	ldrteq	r1, [sp], #-3584	; 0xfffff200
    a548:	fd050000 	stc2	0, cr0, [r5, #-0]
    a54c:	00042402 	andeq	r2, r4, r2, lsl #8
    a550:	04361e00 	ldrteq	r1, [r6], #-3584	; 0xfffff200
    a554:	fe050000 	cdp2	0, 0, cr0, cr5, cr0, {0}
    a558:	00042a02 	andeq	r2, r4, r2, lsl #20
    a55c:	00251400 	eoreq	r1, r5, r0, lsl #8
    a560:	088d0000 	stmeq	sp, {}	; <UNPREDICTABLE>
    a564:	25150000 	ldrcs	r0, [r5, #-0]
    a568:	00000000 	andeq	r0, r0, r0
    a56c:	0001cc1f 	andeq	ip, r1, pc, lsl ip
    a570:	981d0600 	ldmdals	sp, {r9, sl}
    a574:	0d000008 	stceq	0, cr0, [r0, #-32]	; 0xffffffe0
    a578:	00087e04 	andeq	r7, r8, r4, lsl #28
    a57c:	00251400 	eoreq	r1, r5, r0, lsl #8
    a580:	08ad0000 	stmiaeq	sp!, {}	; <UNPREDICTABLE>
    a584:	85150000 	ldrhi	r0, [r5, #-0]
    a588:	00000005 	andeq	r0, r0, r5
    a58c:	0007691f 	andeq	r6, r7, pc, lsl r9
    a590:	b8220600 	stmdalt	r2!, {r9, sl}
    a594:	0d000008 	stceq	0, cr0, [r0, #-32]	; 0xffffffe0
    a598:	00089e04 	andeq	r9, r8, r4, lsl #28
    a59c:	04080300 	streq	r0, [r8], #-768	; 0xfffffd00
    a5a0:	00000b05 	andeq	r0, r0, r5, lsl #22
    a5a4:	000b3d1f 	andeq	r3, fp, pc, lsl sp
    a5a8:	0d0d0100 	stfeqs	f0, [sp, #-0]
    a5ac:	20000001 	andcs	r0, r0, r1
    a5b0:	00000652 	andeq	r0, r0, r2, asr r6
    a5b4:	01070e01 	tsteq	r7, r1, lsl #28
    a5b8:	03050000 	movweq	r0, #20480	; 0x5000
    a5bc:	0000960c 	andeq	r9, r0, ip, lsl #12
    a5c0:	000b5420 	andeq	r5, fp, r0, lsr #8
    a5c4:	070f0100 	streq	r0, [pc, -r0, lsl #2]
    a5c8:	05000001 	streq	r0, [r0, #-1]
    a5cc:	00961003 	addseq	r1, r6, r3
    a5d0:	0b162100 	bleq	5929d8 <__bss_end__+0x588a40>
    a5d4:	38010000 	stmdacc	r1, {}	; <UNPREDICTABLE>
    a5d8:	000095dc 	ldrdeq	r9, [r0], -ip
    a5dc:	00000010 	andeq	r0, r0, r0, lsl r0
    a5e0:	09139c01 	ldmdbeq	r3, {r0, sl, fp, ip, pc}
    a5e4:	70220000 	eorvc	r0, r2, r0
    a5e8:	05380100 	ldreq	r0, [r8, #-256]!	; 0xffffff00
    a5ec:	01000001 	tsteq	r0, r1
    a5f0:	0c230050 	stceq	0, cr0, [r3], #-320	; 0xfffffec0
    a5f4:	0100000b 	tsteq	r0, fp
    a5f8:	0095c837 	addseq	ip, r5, r7, lsr r8
    a5fc:	00001400 	andeq	r1, r0, r0, lsl #8
    a600:	219c0100 	orrscs	r0, ip, r0, lsl #2
    a604:	00000259 	andeq	r0, r0, r9, asr r2
    a608:	95c43601 	strbls	r3, [r4, #1537]	; 0x601
    a60c:	00040000 	andeq	r0, r4, r0
    a610:	9c010000 	stcls	0, cr0, [r1], {-0}
    a614:	00000945 	andeq	r0, r0, r5, asr #18
    a618:	01007022 	tsteq	r0, r2, lsr #32
    a61c:	00010536 	andeq	r0, r1, r6, lsr r5
    a620:	00500100 	subseq	r0, r0, r0, lsl #2
    a624:	000af524 	andeq	pc, sl, r4, lsr #10
    a628:	05290100 	streq	r0, [r9, #-256]!	; 0xffffff00
    a62c:	38000001 	stmdacc	r0, {r0}
    a630:	8c000095 	stchi	0, cr0, [r0], {149}	; 0x95
    a634:	01000000 	mrseq	r0, (UNDEF: 0)
    a638:	000a309c 	muleq	sl, ip, r0
    a63c:	06722500 	ldrbteq	r2, [r2], -r0, lsl #10
    a640:	29010000 	stmdbcs	r1, {}	; <UNPREDICTABLE>
    a644:	0000002c 	andeq	r0, r0, ip, lsr #32
    a648:	00001361 	andeq	r1, r0, r1, ror #6
    a64c:	000b3325 	andeq	r3, fp, r5, lsr #6
    a650:	2c290100 	stfcss	f0, [r9], #-0
    a654:	b4000000 	strlt	r0, [r0], #-0
    a658:	26000013 			; <UNDEFINED> instruction: 0x26000013
    a65c:	000001fa 	strdeq	r0, [r0], -sl
    a660:	00000a40 	andeq	r0, r0, r0, asr #20
    a664:	9a8c0305 	bls	fe30b280 <__bss_end__+0xfe3012e8>
    a668:	68270000 	stmdavs	r7!, {}	; <UNPREDICTABLE>
    a66c:	2c2e0100 	stfcss	f0, [lr], #-0
    a670:	fb000000 	blx	a67a <__bss_end__+0x6e2>
    a674:	28000013 	stmdacs	r0, {r0, r1, r4}
    a678:	00009574 	andeq	r9, r0, r4, ror r5
    a67c:	00000a79 	andeq	r0, r0, r9, ror sl
    a680:	000009ad 	andeq	r0, r0, sp, lsr #19
    a684:	03500129 	cmpeq	r0, #1073741834	; 0x4000000a
    a688:	005001f3 	ldrsheq	r0, [r0], #-19	; 0xffffffed
    a68c:	00957c2a 	addseq	r7, r5, sl, lsr #24
    a690:	000bfb00 	andeq	pc, fp, r0, lsl #22
    a694:	95902800 	ldrls	r2, [r0, #2048]	; 0x800
    a698:	0c060000 	stceq	0, cr0, [r6], {-0}
    a69c:	09e50000 	stmibeq	r5!, {}^	; <UNPREDICTABLE>
    a6a0:	01290000 			; <UNDEFINED> instruction: 0x01290000
    a6a4:	d8030550 	stmdale	r3, {r4, r6, r8, sl}
    a6a8:	2900009a 	stmdbcs	r0, {r1, r3, r4, r7}
    a6ac:	03055101 	movweq	r5, #20737	; 0x5101
    a6b0:	00009a9c 	muleq	r0, ip, sl
    a6b4:	05520129 	ldrbeq	r0, [r2, #-297]	; 0xfffffed7
    a6b8:	009a8c03 	addseq	r8, sl, r3, lsl #24
    a6bc:	53012900 	movwpl	r2, #6400	; 0x1900
    a6c0:	002a0802 	eoreq	r0, sl, r2, lsl #16
    a6c4:	0095942a 	addseq	r9, r5, sl, lsr #8
    a6c8:	000c1100 	andeq	r1, ip, r0, lsl #2
    a6cc:	95982a00 	ldrls	r2, [r8, #2560]	; 0xa00
    a6d0:	0bfb0000 	bleq	ffeca6d8 <__bss_end__+0xffec0740>
    a6d4:	ac280000 	stcge	0, cr0, [r8], #-0
    a6d8:	06000095 			; <UNDEFINED> instruction: 0x06000095
    a6dc:	2600000c 	strcs	r0, [r0], -ip
    a6e0:	2900000a 	stmdbcs	r0, {r1, r3}
    a6e4:	03055001 	movweq	r5, #20481	; 0x5001
    a6e8:	00009b38 	andeq	r9, r0, r8, lsr fp
    a6ec:	05510129 	ldrbeq	r0, [r1, #-297]	; 0xfffffed7
    a6f0:	009a9c03 	addseq	r9, sl, r3, lsl #24
    a6f4:	52012900 	andpl	r2, r1, #0, 18
    a6f8:	9a8c0305 	bls	fe30b314 <__bss_end__+0xfe30137c>
    a6fc:	01290000 			; <UNDEFINED> instruction: 0x01290000
    a700:	30080253 	andcc	r0, r8, r3, asr r2
    a704:	95b02a00 	ldrls	r2, [r0, #2560]!	; 0xa00
    a708:	0c110000 	ldceq	0, cr0, [r1], {-0}
    a70c:	08000000 	stmdaeq	r0, {}	; <UNPREDICTABLE>
    a710:	00000114 	andeq	r0, r0, r4, lsl r1
    a714:	00000a40 	andeq	r0, r0, r0, asr #20
    a718:	0000c709 	andeq	ip, r0, r9, lsl #14
    a71c:	0e000f00 	cdpeq	15, 0, cr0, cr0, cr0, {0}
    a720:	00000a30 	andeq	r0, r0, r0, lsr sl
    a724:	000b2224 	andeq	r2, fp, r4, lsr #4
    a728:	05250100 	streq	r0, [r5, #-256]!	; 0xffffff00
    a72c:	2c000001 	stccs	0, cr0, [r0], {1}
    a730:	0c000095 	stceq	0, cr0, [r0], {149}	; 0x95
    a734:	01000000 	mrseq	r0, (UNDEF: 0)
    a738:	000a689c 	muleq	sl, ip, r8
    a73c:	95342a00 	ldrls	r2, [r4, #-2560]!	; 0xfffff600
    a740:	0bd10000 	bleq	ff44a748 <__bss_end__+0xff4407b0>
    a744:	23000000 	movwcs	r0, #0
    a748:	00000ae8 	andeq	r0, r0, r8, ror #21
    a74c:	95282401 	strls	r2, [r8, #-1025]!	; 0xfffffbff
    a750:	00040000 	andeq	r0, r4, r0
    a754:	9c010000 	stcls	0, cr0, [r1], {-0}
    a758:	0004a824 	andeq	sl, r4, r4, lsr #16
    a75c:	051a0100 	ldreq	r0, [sl, #-256]	; 0xffffff00
    a760:	c4000001 	strgt	r0, [r0], #-1
    a764:	64000094 	strvs	r0, [r0], #-148	; 0xffffff6c
    a768:	01000000 	mrseq	r0, (UNDEF: 0)
    a76c:	000b249c 	muleq	fp, ip, r4
    a770:	7a732b00 	bvc	1cd5378 <__bss_end__+0x1ccb3e0>
    a774:	2c1a0100 	ldfcss	f0, [sl], {-0}
    a778:	33000000 	movwcc	r0, #0
    a77c:	26000014 			; <UNDEFINED> instruction: 0x26000014
    a780:	000001fa 	strdeq	r0, [r0], -sl
    a784:	00000b34 	andeq	r0, r0, r4, lsr fp
    a788:	9a840305 	bls	fe10b3a4 <__bss_end__+0xfe10140c>
    a78c:	602c0000 	eorvs	r0, ip, r0
    a790:	0100000b 	tsteq	r0, fp
    a794:	0001051e 	andeq	r0, r1, lr, lsl r5
    a798:	00147d00 	andseq	r7, r4, r0, lsl #26
    a79c:	94f42800 	ldrbtls	r2, [r4], #2048	; 0x800
    a7a0:	0c1c0000 	ldceq	0, cr0, [ip], {-0}
    a7a4:	0ae30000 	beq	ff8ca7ac <__bss_end__+0xff8c0814>
    a7a8:	01290000 			; <UNDEFINED> instruction: 0x01290000
    a7ac:	00740250 	rsbseq	r0, r4, r0, asr r2
    a7b0:	01510129 	cmpeq	r1, r9, lsr #2
    a7b4:	52012930 	andpl	r2, r1, #48, 18	; 0xc0000
    a7b8:	5001f308 	andpl	pc, r1, r8, lsl #6
    a7bc:	f8090723 			; <UNDEFINED> instruction: 0xf8090723
    a7c0:	002a001a 	eoreq	r0, sl, sl, lsl r0
    a7c4:	fb000095 	blx	aa22 <__bss_end__+0xa8a>
    a7c8:	2800000b 	stmdacs	r0, {r0, r1, r3}
    a7cc:	00009514 	andeq	r9, r0, r4, lsl r5
    a7d0:	00000c06 	andeq	r0, r0, r6, lsl #24
    a7d4:	00000b1a 	andeq	r0, r0, sl, lsl fp
    a7d8:	05500129 	ldrbeq	r0, [r0, #-297]	; 0xfffffed7
    a7dc:	009ac403 	addseq	ip, sl, r3, lsl #8
    a7e0:	51012900 	tstpl	r1, r0, lsl #18
    a7e4:	9a9c0305 	bls	fe70b400 <__bss_end__+0xfe701468>
    a7e8:	01290000 			; <UNDEFINED> instruction: 0x01290000
    a7ec:	84030552 	strhi	r0, [r3], #-1362	; 0xfffffaae
    a7f0:	2900009a 	stmdbcs	r0, {r1, r3, r4, r7}
    a7f4:	4b015301 	blmi	5f400 <__bss_end__+0x55468>
    a7f8:	95182a00 	ldrls	r2, [r8, #-2560]	; 0xfffff600
    a7fc:	0c110000 	ldceq	0, cr0, [r1], {-0}
    a800:	08000000 	stmdaeq	r0, {}	; <UNPREDICTABLE>
    a804:	00000114 	andeq	r0, r0, r4, lsl r1
    a808:	00000b34 	andeq	r0, r0, r4, lsr fp
    a80c:	0000c709 	andeq	ip, r0, r9, lsl #14
    a810:	0e000700 	cdpeq	7, 0, cr0, cr0, cr0, {0}
    a814:	00000b24 	andeq	r0, r0, r4, lsr #22
    a818:	00015121 	andeq	r5, r1, r1, lsr #2
    a81c:	74140100 	ldrvc	r0, [r4], #-256	; 0xffffff00
    a820:	50000094 	mulpl	r0, r4, r0
    a824:	01000000 	mrseq	r0, (UNDEF: 0)
    a828:	000bbc9c 	muleq	fp, ip, ip
    a82c:	0b5f2500 	bleq	17d3c34 <__bss_end__+0x17c9c9c>
    a830:	14010000 	strne	r0, [r1], #-0
    a834:	0000002c 	andeq	r0, r0, ip, lsr #32
    a838:	00001490 	muleq	r0, r0, r4
    a83c:	000b602c 	andeq	r6, fp, ip, lsr #32
    a840:	07150100 	ldreq	r0, [r5, -r0, lsl #2]
    a844:	b1000001 	tstlt	r0, r1
    a848:	26000014 			; <UNDEFINED> instruction: 0x26000014
    a84c:	000001fa 	strdeq	r0, [r0], -sl
    a850:	00000bcc 	andeq	r0, r0, ip, asr #23
    a854:	9a6c0305 	bls	1b0b470 <__bss_end__+0x1b014d8>
    a858:	9c2a0000 	stcls	0, cr0, [sl], #-0
    a85c:	fb000094 	blx	aab6 <__bss_end__+0xb1e>
    a860:	2800000b 	stmdacs	r0, {r0, r1, r3}
    a864:	000094b0 			; <UNDEFINED> instruction: 0x000094b0
    a868:	00000c06 	andeq	r0, r0, r6, lsl #24
    a86c:	00000bb2 			; <UNDEFINED> instruction: 0x00000bb2
    a870:	05500129 	ldrbeq	r0, [r0, #-297]	; 0xfffffed7
    a874:	009aa803 	addseq	sl, sl, r3, lsl #16
    a878:	51012900 	tstpl	r1, r0, lsl #18
    a87c:	9a9c0305 	bls	fe70b498 <__bss_end__+0xfe701500>
    a880:	01290000 			; <UNDEFINED> instruction: 0x01290000
    a884:	6c030552 	cfstr32vs	mvfx0, [r3], {82}	; 0x52
    a888:	2900009a 	stmdbcs	r0, {r1, r3, r4, r7}
    a88c:	46015301 	strmi	r5, [r1], -r1, lsl #6
    a890:	94b42a00 	ldrtls	r2, [r4], #2560	; 0xa00
    a894:	0c110000 	ldceq	0, cr0, [r1], {-0}
    a898:	08000000 	stmdaeq	r0, {}	; <UNPREDICTABLE>
    a89c:	00000114 	andeq	r0, r0, r4, lsl r1
    a8a0:	00000bcc 	andeq	r0, r0, ip, asr #23
    a8a4:	0000c709 	andeq	ip, r0, r9, lsl #14
    a8a8:	0e001600 	cfmadd32eq	mvax0, mvfx1, mvfx0, mvfx0
    a8ac:	00000bbc 			; <UNDEFINED> instruction: 0x00000bbc
    a8b0:	000b4c2d 	andeq	r4, fp, sp, lsr #24
    a8b4:	05120100 	ldreq	r0, [r2, #-256]	; 0xffffff00
    a8b8:	68000001 	stmdavs	r0, {r0}
    a8bc:	0c000094 	stceq	0, cr0, [r0], {148}	; 0x94
    a8c0:	01000000 	mrseq	r0, (UNDEF: 0)
    a8c4:	0b652d9c 	bleq	1955f3c <__bss_end__+0x194bfa4>
    a8c8:	11010000 	mrsne	r0, (UNDEF: 1)
    a8cc:	00000105 	andeq	r0, r0, r5, lsl #2
    a8d0:	00009458 	andeq	r9, r0, r8, asr r4
    a8d4:	00000010 	andeq	r0, r0, r0, lsl r0
    a8d8:	932e9c01 			; <UNDEFINED> instruction: 0x932e9c01
    a8dc:	93000005 	movwls	r0, #5
    a8e0:	06000005 	streq	r0, [r0], -r5
    a8e4:	06b52e1e 	ssateq	r2, #22, lr, lsl #28
    a8e8:	06b50000 	ldrteq	r0, [r5], r0
    a8ec:	29060000 	stmdbcs	r6, {}	; <UNPREDICTABLE>
    a8f0:	0005c82e 	andeq	ip, r5, lr, lsr #16
    a8f4:	0005c800 	andeq	ip, r5, r0, lsl #16
    a8f8:	2e650600 	cdpcs	6, 6, cr0, cr5, cr0, {0}
    a8fc:	0000045b 	andeq	r0, r0, fp, asr r4
    a900:	0000045b 	andeq	r0, r0, fp, asr r4
    a904:	Address 0x000000000000a904 is out of bounds.


Disassembly of section .debug_abbrev:

00000000 <.debug_abbrev>:
       0:	25011101 	strcs	r1, [r1, #-257]	; 0xfffffeff
       4:	030b130e 	movweq	r1, #45838	; 0xb30e
       8:	110e1b0e 	tstne	lr, lr, lsl #22
       c:	10061201 	andne	r1, r6, r1, lsl #4
      10:	02000017 	andeq	r0, r0, #23
      14:	0b0b0024 	bleq	2c00ac <__bss_end__+0x2b6114>
      18:	08030b3e 	stmdaeq	r3, {r1, r2, r3, r4, r5, r8, r9, fp}
      1c:	24030000 	strcs	r0, [r3], #-0
      20:	3e0b0b00 	vmlacc.f64	d0, d11, d0
      24:	000e030b 	andeq	r0, lr, fp, lsl #6
      28:	00160400 	andseq	r0, r6, r0, lsl #8
      2c:	0b3a0e03 	bleq	e83840 <__bss_end__+0xe798a8>
      30:	13490b3b 	movtne	r0, #39739	; 0x9b3b
      34:	16050000 	strne	r0, [r5], -r0
      38:	3a0e0300 	bcc	380c40 <__bss_end__+0x376ca8>
      3c:	49053b0b 	stmdbmi	r5, {r0, r1, r3, r8, r9, fp, ip, sp}
      40:	06000013 			; <UNDEFINED> instruction: 0x06000013
      44:	0b0b0117 	bleq	2c04a8 <__bss_end__+0x2b6510>
      48:	0b3b0b3a 	bleq	ec2d38 <__bss_end__+0xeb8da0>
      4c:	00001301 	andeq	r1, r0, r1, lsl #6
      50:	03000d07 	movweq	r0, #3335	; 0xd07
      54:	3b0b3a0e 	blcc	2ce894 <__bss_end__+0x2c48fc>
      58:	0013490b 	andseq	r4, r3, fp, lsl #18
      5c:	01010800 	tsteq	r1, r0, lsl #16
      60:	13011349 	movwne	r1, #4937	; 0x1349
      64:	21090000 	mrscs	r0, (UNDEF: 9)
      68:	2f134900 	svccs	0x00134900
      6c:	0a00000b 	beq	a0 <_start-0x7f60>
      70:	0b0b0113 	bleq	2c04c4 <__bss_end__+0x2b652c>
      74:	0b3b0b3a 	bleq	ec2d64 <__bss_end__+0xeb8dcc>
      78:	00001301 	andeq	r1, r0, r1, lsl #6
      7c:	03000d0b 	movweq	r0, #3339	; 0xd0b
      80:	3b0b3a0e 	blcc	2ce8c0 <__bss_end__+0x2c4928>
      84:	3813490b 	ldmdacc	r3, {r0, r1, r3, r8, fp, lr}
      88:	0c00000b 	stceq	0, cr0, [r0], {11}
      8c:	0b0b000f 	bleq	2c00d0 <__bss_end__+0x2b6138>
      90:	0f0d0000 	svceq	0x000d0000
      94:	490b0b00 	stmdbmi	fp, {r8, r9, fp}
      98:	0e000013 	mcreq	0, 0, r0, cr0, cr3, {0}
      9c:	13490026 	movtne	r0, #36902	; 0x9026
      a0:	130f0000 	movwne	r0, #61440	; 0xf000
      a4:	0b0e0301 	bleq	380cb0 <__bss_end__+0x376d18>
      a8:	3b0b3a0b 	blcc	2ce8dc <__bss_end__+0x2c4944>
      ac:	0013010b 	andseq	r0, r3, fp, lsl #2
      b0:	000d1000 	andeq	r1, sp, r0
      b4:	0b3a0803 	bleq	e820c8 <__bss_end__+0xe78130>
      b8:	13490b3b 	movtne	r0, #39739	; 0x9b3b
      bc:	00000b38 	andeq	r0, r0, r8, lsr fp
      c0:	03011311 	movweq	r1, #4881	; 0x1311
      c4:	3a050b0e 	bcc	142d04 <__bss_end__+0x138d6c>
      c8:	010b3b0b 	tsteq	fp, fp, lsl #22
      cc:	12000013 	andne	r0, r0, #19
      d0:	0e03000d 	cdpeq	0, 0, cr0, cr3, cr13, {0}
      d4:	0b3b0b3a 	bleq	ec2dc4 <__bss_end__+0xeb8e2c>
      d8:	05381349 	ldreq	r1, [r8, #-841]!	; 0xfffffcb7
      dc:	15130000 	ldrne	r0, [r3, #-0]
      e0:	00192700 	andseq	r2, r9, r0, lsl #14
      e4:	01151400 	tsteq	r5, r0, lsl #8
      e8:	13491927 	movtne	r1, #39207	; 0x9927
      ec:	00001301 	andeq	r1, r0, r1, lsl #6
      f0:	49000515 	stmdbmi	r0, {r0, r2, r4, r8, sl}
      f4:	16000013 			; <UNDEFINED> instruction: 0x16000013
      f8:	0e030113 	mcreq	1, 0, r0, cr3, cr3, {0}
      fc:	0b3a050b 	bleq	e81530 <__bss_end__+0xe77598>
     100:	1301053b 	movwne	r0, #5435	; 0x153b
     104:	0d170000 	ldceq	0, cr0, [r7, #-0]
     108:	3a0e0300 	bcc	380d10 <__bss_end__+0x376d78>
     10c:	49053b0b 	stmdbmi	r5, {r0, r1, r3, r8, r9, fp, ip, sp}
     110:	000b3813 	andeq	r3, fp, r3, lsl r8
     114:	000d1800 	andeq	r1, sp, r0, lsl #16
     118:	0b3a0e03 	bleq	e8392c <__bss_end__+0xe79994>
     11c:	1349053b 	movtne	r0, #38203	; 0x953b
     120:	00000538 	andeq	r0, r0, r8, lsr r5
     124:	03011319 	movweq	r1, #4889	; 0x1319
     128:	3a0b0b0e 	bcc	2c2d68 <__bss_end__+0x2b8dd0>
     12c:	01053b0b 	tsteq	r5, fp, lsl #22
     130:	1a000013 	bne	184 <_start-0x7e7c>
     134:	0b0b0113 	bleq	2c0588 <__bss_end__+0x2b65f0>
     138:	053b0b3a 	ldreq	r0, [fp, #-2874]!	; 0xfffff4c6
     13c:	00001301 	andeq	r1, r0, r1, lsl #6
     140:	0b01171b 	bleq	45db4 <__bss_end__+0x3be1c>
     144:	3b0b3a0b 	blcc	2ce978 <__bss_end__+0x2c49e0>
     148:	00130105 	andseq	r0, r3, r5, lsl #2
     14c:	000d1c00 	andeq	r1, sp, r0, lsl #24
     150:	0b3a0e03 	bleq	e83964 <__bss_end__+0xe799cc>
     154:	1349053b 	movtne	r0, #38203	; 0x953b
     158:	151d0000 	ldrne	r0, [sp, #-0]
     15c:	01192701 	tsteq	r9, r1, lsl #14
     160:	1e000013 	mcrne	0, 0, r0, cr0, cr3, {0}
     164:	0e030034 	mcreq	0, 0, r0, cr3, cr4, {1}
     168:	053b0b3a 	ldreq	r0, [fp, #-2874]!	; 0xfffff4c6
     16c:	193f1349 	ldmdbne	pc!, {r0, r3, r6, r8, r9, ip}	; <UNPREDICTABLE>
     170:	0000193c 	andeq	r1, r0, ip, lsr r9
     174:	0300341f 	movweq	r3, #1055	; 0x41f
     178:	3b0b3a0e 	blcc	2ce9b8 <__bss_end__+0x2c4a20>
     17c:	3f13490b 	svccc	0x0013490b
     180:	00193c19 	andseq	r3, r9, r9, lsl ip
     184:	012e2000 			; <UNDEFINED> instruction: 0x012e2000
     188:	0e03193f 			; <UNDEFINED> instruction: 0x0e03193f
     18c:	0b3b0b3a 	bleq	ec2e7c <__bss_end__+0xeb8ee4>
     190:	01111927 	tsteq	r1, r7, lsr #18
     194:	18400612 	stmdane	r0, {r1, r4, r9, sl}^
     198:	01194297 			; <UNDEFINED> instruction: 0x01194297
     19c:	21000013 	tstcs	r0, r3, lsl r0
     1a0:	08030034 	stmdaeq	r3, {r2, r4, r5}
     1a4:	0b3b0b3a 	bleq	ec2e94 <__bss_end__+0xeb8efc>
     1a8:	061c1349 	ldreq	r1, [ip], -r9, asr #6
     1ac:	34220000 	strtcc	r0, [r2], #-0
     1b0:	3a080300 	bcc	200db8 <__bss_end__+0x1f6e20>
     1b4:	490b3b0b 	stmdbmi	fp, {r0, r1, r3, r8, r9, fp, ip, sp}
     1b8:	00170213 	andseq	r0, r7, r3, lsl r2
     1bc:	00342300 	eorseq	r2, r4, r0, lsl #6
     1c0:	13490e03 	movtne	r0, #40451	; 0x9e03
     1c4:	18021934 	stmdane	r2, {r2, r4, r5, r8, fp, ip}
     1c8:	89240000 	stmdbhi	r4!, {}	; <UNPREDICTABLE>
     1cc:	11010182 	smlabbne	r1, r2, r1, r0
     1d0:	01133101 	tsteq	r3, r1, lsl #2
     1d4:	25000013 	strcs	r0, [r0, #-19]	; 0xffffffed
     1d8:	0001828a 	andeq	r8, r1, sl, lsl #5
     1dc:	42911802 	addsmi	r1, r1, #131072	; 0x20000
     1e0:	26000018 			; <UNDEFINED> instruction: 0x26000018
     1e4:	01018289 	smlabbeq	r1, r9, r2, r8
     1e8:	13310111 	teqne	r1, #1073741828	; 0x40000004
     1ec:	2e270000 	cdpcs	0, 2, cr0, cr7, cr0, {0}
     1f0:	3c193f00 	ldccc	15, cr3, [r9], {-0}
     1f4:	030e6e19 	movweq	r6, #60953	; 0xee19
     1f8:	3b0b3a0e 	blcc	2cea38 <__bss_end__+0x2c4aa0>
     1fc:	0000000b 	andeq	r0, r0, fp
     200:	25011101 	strcs	r1, [r1, #-257]	; 0xfffffeff
     204:	030b130e 	movweq	r1, #45838	; 0xb30e
     208:	110e1b0e 	tstne	lr, lr, lsl #22
     20c:	10061201 	andne	r1, r6, r1, lsl #4
     210:	02000017 	andeq	r0, r0, #23
     214:	0b0b0024 	bleq	2c02ac <__bss_end__+0x2b6314>
     218:	08030b3e 	stmdaeq	r3, {r1, r2, r3, r4, r5, r8, r9, fp}
     21c:	24030000 	strcs	r0, [r3], #-0
     220:	3e0b0b00 	vmlacc.f64	d0, d11, d0
     224:	000e030b 	andeq	r0, lr, fp, lsl #6
     228:	00160400 	andseq	r0, r6, r0, lsl #8
     22c:	0b3a0e03 	bleq	e83a40 <__bss_end__+0xe79aa8>
     230:	13490b3b 	movtne	r0, #39739	; 0x9b3b
     234:	16050000 	strne	r0, [r5], -r0
     238:	3a0e0300 	bcc	380e40 <__bss_end__+0x376ea8>
     23c:	49053b0b 	stmdbmi	r5, {r0, r1, r3, r8, r9, fp, ip, sp}
     240:	06000013 			; <UNDEFINED> instruction: 0x06000013
     244:	0b0b0117 	bleq	2c06a8 <__bss_end__+0x2b6710>
     248:	0b3b0b3a 	bleq	ec2f38 <__bss_end__+0xeb8fa0>
     24c:	00001301 	andeq	r1, r0, r1, lsl #6
     250:	03000d07 	movweq	r0, #3335	; 0xd07
     254:	3b0b3a0e 	blcc	2cea94 <__bss_end__+0x2c4afc>
     258:	0013490b 	andseq	r4, r3, fp, lsl #18
     25c:	01010800 	tsteq	r1, r0, lsl #16
     260:	13011349 	movwne	r1, #4937	; 0x1349
     264:	21090000 	mrscs	r0, (UNDEF: 9)
     268:	2f134900 	svccs	0x00134900
     26c:	0a00000b 	beq	2a0 <_start-0x7d60>
     270:	0b0b0113 	bleq	2c06c4 <__bss_end__+0x2b672c>
     274:	0b3b0b3a 	bleq	ec2f64 <__bss_end__+0xeb8fcc>
     278:	00001301 	andeq	r1, r0, r1, lsl #6
     27c:	03000d0b 	movweq	r0, #3339	; 0xd0b
     280:	3b0b3a0e 	blcc	2ceac0 <__bss_end__+0x2c4b28>
     284:	3813490b 	ldmdacc	r3, {r0, r1, r3, r8, fp, lr}
     288:	0c00000b 	stceq	0, cr0, [r0], {11}
     28c:	0b0b000f 	bleq	2c02d0 <__bss_end__+0x2b6338>
     290:	0f0d0000 	svceq	0x000d0000
     294:	490b0b00 	stmdbmi	fp, {r8, r9, fp}
     298:	0e000013 	mcreq	0, 0, r0, cr0, cr3, {0}
     29c:	13490026 	movtne	r0, #36902	; 0x9026
     2a0:	130f0000 	movwne	r0, #61440	; 0xf000
     2a4:	0b0e0301 	bleq	380eb0 <__bss_end__+0x376f18>
     2a8:	3b0b3a0b 	blcc	2ceadc <__bss_end__+0x2c4b44>
     2ac:	0013010b 	andseq	r0, r3, fp, lsl #2
     2b0:	000d1000 	andeq	r1, sp, r0
     2b4:	0b3a0803 	bleq	e822c8 <__bss_end__+0xe78330>
     2b8:	13490b3b 	movtne	r0, #39739	; 0x9b3b
     2bc:	00000b38 	andeq	r0, r0, r8, lsr fp
     2c0:	03011311 	movweq	r1, #4881	; 0x1311
     2c4:	3a050b0e 	bcc	142f04 <__bss_end__+0x138f6c>
     2c8:	010b3b0b 	tsteq	fp, fp, lsl #22
     2cc:	12000013 	andne	r0, r0, #19
     2d0:	0e03000d 	cdpeq	0, 0, cr0, cr3, cr13, {0}
     2d4:	0b3b0b3a 	bleq	ec2fc4 <__bss_end__+0xeb902c>
     2d8:	05381349 	ldreq	r1, [r8, #-841]!	; 0xfffffcb7
     2dc:	15130000 	ldrne	r0, [r3, #-0]
     2e0:	00192700 	andseq	r2, r9, r0, lsl #14
     2e4:	01151400 	tsteq	r5, r0, lsl #8
     2e8:	13491927 	movtne	r1, #39207	; 0x9927
     2ec:	00001301 	andeq	r1, r0, r1, lsl #6
     2f0:	49000515 	stmdbmi	r0, {r0, r2, r4, r8, sl}
     2f4:	16000013 			; <UNDEFINED> instruction: 0x16000013
     2f8:	0e030113 	mcreq	1, 0, r0, cr3, cr3, {0}
     2fc:	0b3a050b 	bleq	e81730 <__bss_end__+0xe77798>
     300:	1301053b 	movwne	r0, #5435	; 0x153b
     304:	0d170000 	ldceq	0, cr0, [r7, #-0]
     308:	3a0e0300 	bcc	380f10 <__bss_end__+0x376f78>
     30c:	49053b0b 	stmdbmi	r5, {r0, r1, r3, r8, r9, fp, ip, sp}
     310:	000b3813 	andeq	r3, fp, r3, lsl r8
     314:	000d1800 	andeq	r1, sp, r0, lsl #16
     318:	0b3a0e03 	bleq	e83b2c <__bss_end__+0xe79b94>
     31c:	1349053b 	movtne	r0, #38203	; 0x953b
     320:	00000538 	andeq	r0, r0, r8, lsr r5
     324:	03011319 	movweq	r1, #4889	; 0x1319
     328:	3a0b0b0e 	bcc	2c2f68 <__bss_end__+0x2b8fd0>
     32c:	01053b0b 	tsteq	r5, fp, lsl #22
     330:	1a000013 	bne	384 <_start-0x7c7c>
     334:	0b0b0113 	bleq	2c0788 <__bss_end__+0x2b67f0>
     338:	053b0b3a 	ldreq	r0, [fp, #-2874]!	; 0xfffff4c6
     33c:	00001301 	andeq	r1, r0, r1, lsl #6
     340:	0b01171b 	bleq	45fb4 <__bss_end__+0x3c01c>
     344:	3b0b3a0b 	blcc	2ceb78 <__bss_end__+0x2c4be0>
     348:	00130105 	andseq	r0, r3, r5, lsl #2
     34c:	000d1c00 	andeq	r1, sp, r0, lsl #24
     350:	0b3a0e03 	bleq	e83b64 <__bss_end__+0xe79bcc>
     354:	1349053b 	movtne	r0, #38203	; 0x953b
     358:	151d0000 	ldrne	r0, [sp, #-0]
     35c:	01192701 	tsteq	r9, r1, lsl #14
     360:	1e000013 	mcrne	0, 0, r0, cr0, cr3, {0}
     364:	0e030034 	mcreq	0, 0, r0, cr3, cr4, {1}
     368:	053b0b3a 	ldreq	r0, [fp, #-2874]!	; 0xfffff4c6
     36c:	193f1349 	ldmdbne	pc!, {r0, r3, r6, r8, r9, ip}	; <UNPREDICTABLE>
     370:	0000193c 	andeq	r1, r0, ip, lsr r9
     374:	0300341f 	movweq	r3, #1055	; 0x41f
     378:	3b0b3a0e 	blcc	2cebb8 <__bss_end__+0x2c4c20>
     37c:	3f13490b 	svccc	0x0013490b
     380:	00193c19 	andseq	r3, r9, r9, lsl ip
     384:	01042000 	mrseq	r2, (UNDEF: 4)
     388:	13490b0b 	movtne	r0, #39691	; 0x9b0b
     38c:	0b3b0b3a 	bleq	ec307c <__bss_end__+0xeb90e4>
     390:	00001301 	andeq	r1, r0, r1, lsl #6
     394:	03002821 	movweq	r2, #2081	; 0x821
     398:	000b1c0e 	andeq	r1, fp, lr, lsl #24
     39c:	00282200 	eoreq	r2, r8, r0, lsl #4
     3a0:	051c0e03 	ldreq	r0, [ip, #-3587]	; 0xfffff1fd
     3a4:	34230000 	strtcc	r0, [r3], #-0
     3a8:	3a0e0300 	bcc	380fb0 <__bss_end__+0x377018>
     3ac:	490b3b0b 	stmdbmi	fp, {r0, r1, r3, r8, r9, fp, ip, sp}
     3b0:	00180213 	andseq	r0, r8, r3, lsl r2
     3b4:	012e2400 			; <UNDEFINED> instruction: 0x012e2400
     3b8:	0e03193f 			; <UNDEFINED> instruction: 0x0e03193f
     3bc:	0b3b0b3a 	bleq	ec30ac <__bss_end__+0xeb9114>
     3c0:	13491927 	movtne	r1, #39207	; 0x9927
     3c4:	06120111 			; <UNDEFINED> instruction: 0x06120111
     3c8:	42971840 	addsmi	r1, r7, #64, 16	; 0x400000
     3cc:	00130119 	andseq	r0, r3, r9, lsl r1
     3d0:	00342500 	eorseq	r2, r4, r0, lsl #10
     3d4:	0b3a0e03 	bleq	e83be8 <__bss_end__+0xe79c50>
     3d8:	13490b3b 	movtne	r0, #39739	; 0x9b3b
     3dc:	00001702 	andeq	r1, r0, r2, lsl #14
     3e0:	55010b26 	strpl	r0, [r1, #-2854]	; 0xfffff4da
     3e4:	00130117 	andseq	r0, r3, r7, lsl r1
     3e8:	82892700 	addhi	r2, r9, #0, 14
     3ec:	01110101 	tsteq	r1, r1, lsl #2
     3f0:	13011331 	movwne	r1, #4913	; 0x1331
     3f4:	8a280000 	bhi	a003fc <__bss_end__+0x9f6464>
     3f8:	02000182 	andeq	r0, r0, #-2147483616	; 0x80000020
     3fc:	18429118 	stmdane	r2, {r3, r4, r8, ip, pc}^
     400:	89290000 	stmdbhi	r9!, {}	; <UNPREDICTABLE>
     404:	11010182 	smlabbne	r1, r2, r1, r0
     408:	00133101 	andseq	r3, r3, r1, lsl #2
     40c:	00052a00 	andeq	r2, r5, r0, lsl #20
     410:	0b3a0e03 	bleq	e83c24 <__bss_end__+0xe79c8c>
     414:	13490b3b 	movtne	r0, #39739	; 0x9b3b
     418:	00001702 	andeq	r1, r0, r2, lsl #14
     41c:	0300342b 	movweq	r3, #1067	; 0x42b
     420:	3b0b3a08 	blcc	2cec48 <__bss_end__+0x2c4cb0>
     424:	0213490b 	andseq	r4, r3, #180224	; 0x2c000
     428:	2c000017 	stccs	0, cr0, [r0], {23}
     42c:	0e030034 	mcreq	0, 0, r0, cr3, cr4, {1}
     430:	19341349 	ldmdbne	r4!, {r0, r3, r6, r8, r9, ip}
     434:	00001802 	andeq	r1, r0, r2, lsl #16
     438:	0182892d 	orreq	r8, r2, sp, lsr #18
     43c:	31011100 	mrscc	r1, (UNDEF: 17)
     440:	2e000013 	mcrcs	0, 0, r0, cr0, cr3, {0}
     444:	193f012e 	ldmdbne	pc!, {r1, r2, r3, r5, r8}	; <UNPREDICTABLE>
     448:	0b3a0e03 	bleq	e83c5c <__bss_end__+0xe79cc4>
     44c:	19270b3b 	stmdbne	r7!, {r0, r1, r3, r4, r5, r8, r9, fp}
     450:	06120111 			; <UNDEFINED> instruction: 0x06120111
     454:	42971840 	addsmi	r1, r7, #64, 16	; 0x400000
     458:	00130119 	andseq	r0, r3, r9, lsl r1
     45c:	012e2f00 			; <UNDEFINED> instruction: 0x012e2f00
     460:	0b3a0e03 	bleq	e83c74 <__bss_end__+0xe79cdc>
     464:	19270b3b 	stmdbne	r7!, {r0, r1, r3, r4, r5, r8, r9, fp}
     468:	01111349 	tsteq	r1, r9, asr #6
     46c:	18400612 	stmdane	r0, {r1, r4, r9, sl}^
     470:	01194297 			; <UNDEFINED> instruction: 0x01194297
     474:	30000013 	andcc	r0, r0, r3, lsl r0
     478:	08030005 	stmdaeq	r3, {r0, r2}
     47c:	0b3b0b3a 	bleq	ec316c <__bss_end__+0xeb91d4>
     480:	17021349 	strne	r1, [r2, -r9, asr #6]
     484:	2e310000 	cdpcs	0, 3, cr0, cr1, cr0, {0}
     488:	3a0e0301 	bcc	381094 <__bss_end__+0x3770fc>
     48c:	270b3b0b 	strcs	r3, [fp, -fp, lsl #22]
     490:	12011119 	andne	r1, r1, #1073741830	; 0x40000006
     494:	97184006 	ldrls	r4, [r8, -r6]
     498:	13011942 	movwne	r1, #6466	; 0x1942
     49c:	0b320000 	bleq	c804a4 <__bss_end__+0xc7650c>
     4a0:	12011101 	andne	r1, r1, #1073741824	; 0x40000000
     4a4:	33000006 	movwcc	r0, #6
     4a8:	1331011d 	teqne	r1, #1073741831	; 0x40000007
     4ac:	17550152 			; <UNDEFINED> instruction: 0x17550152
     4b0:	0b590b58 	bleq	1643218 <__bss_end__+0x1639280>
     4b4:	00001301 	andeq	r1, r0, r1, lsl #6
     4b8:	31000534 	tstcc	r0, r4, lsr r5
     4bc:	00170213 	andseq	r0, r7, r3, lsl r2
     4c0:	010b3500 	tsteq	fp, r0, lsl #10
     4c4:	00001755 	andeq	r1, r0, r5, asr r7
     4c8:	31003436 	tstcc	r0, r6, lsr r4
     4cc:	00170213 	andseq	r0, r7, r3, lsl r2
     4d0:	00343700 	eorseq	r3, r4, r0, lsl #14
     4d4:	0b3a0803 	bleq	e824e8 <__bss_end__+0xe78550>
     4d8:	13490b3b 	movtne	r0, #39739	; 0x9b3b
     4dc:	00001802 	andeq	r1, r0, r2, lsl #16
     4e0:	03012e38 	movweq	r2, #7736	; 0x1e38
     4e4:	3b0b3a0e 	blcc	2ced24 <__bss_end__+0x2c4d8c>
     4e8:	2019270b 	andscs	r2, r9, fp, lsl #14
     4ec:	0013010b 	andseq	r0, r3, fp, lsl #2
     4f0:	00053900 	andeq	r3, r5, r0, lsl #18
     4f4:	0b3a0803 	bleq	e82508 <__bss_end__+0xe78570>
     4f8:	13490b3b 	movtne	r0, #39739	; 0x9b3b
     4fc:	343a0000 	ldrtcc	r0, [sl], #-0
     500:	3a080300 	bcc	201108 <__bss_end__+0x1f7170>
     504:	490b3b0b 	stmdbmi	fp, {r0, r1, r3, r8, r9, fp, ip, sp}
     508:	3b000013 	blcc	55c <_start-0x7aa4>
     50c:	193f002e 	ldmdbne	pc!, {r1, r2, r3, r5}	; <UNPREDICTABLE>
     510:	0e6e193c 			; <UNDEFINED> instruction: 0x0e6e193c
     514:	0b3a0e03 	bleq	e83d28 <__bss_end__+0xe79d90>
     518:	00000b3b 	andeq	r0, r0, fp, lsr fp
     51c:	01110100 	tsteq	r1, r0, lsl #2
     520:	0b130e25 	bleq	4c3dbc <__bss_end__+0x4b9e24>
     524:	0e1b0e03 	cdpeq	14, 1, cr0, cr11, cr3, {0}
     528:	06120111 			; <UNDEFINED> instruction: 0x06120111
     52c:	00001710 	andeq	r1, r0, r0, lsl r7
     530:	03001602 	movweq	r1, #1538	; 0x602
     534:	3b0b3a0e 	blcc	2ced74 <__bss_end__+0x2c4ddc>
     538:	0013490b 	andseq	r4, r3, fp, lsl #18
     53c:	01130300 	tsteq	r3, r0, lsl #6
     540:	0b0b0e03 	bleq	2c3d54 <__bss_end__+0x2b9dbc>
     544:	0b3b0b3a 	bleq	ec3234 <__bss_end__+0xeb929c>
     548:	00001301 	andeq	r1, r0, r1, lsl #6
     54c:	03000d04 	movweq	r0, #3332	; 0xd04
     550:	3813490e 	ldmdacc	r3, {r1, r2, r3, r8, fp, lr}
     554:	0019340b 	andseq	r3, r9, fp, lsl #8
     558:	000f0500 	andeq	r0, pc, r0, lsl #10
     55c:	00000b0b 	andeq	r0, r0, fp, lsl #22
     560:	0b002406 	bleq	9580 <kmalloc_aligned+0x48>
     564:	030b3e0b 	movweq	r3, #48651	; 0xbe0b
     568:	07000008 	streq	r0, [r0, -r8]
     56c:	0b0b0024 	bleq	2c0604 <__bss_end__+0x2b666c>
     570:	0e030b3e 	vmoveq.16	d3[0], r0
     574:	16080000 	strne	r0, [r8], -r0
     578:	3a0e0300 	bcc	381180 <__bss_end__+0x3771e8>
     57c:	49053b0b 	stmdbmi	r5, {r0, r1, r3, r8, r9, fp, ip, sp}
     580:	09000013 	stmdbeq	r0, {r0, r1, r4}
     584:	0b0b0117 	bleq	2c09e8 <__bss_end__+0x2b6a50>
     588:	0b3b0b3a 	bleq	ec3278 <__bss_end__+0xeb92e0>
     58c:	00001301 	andeq	r1, r0, r1, lsl #6
     590:	03000d0a 	movweq	r0, #3338	; 0xd0a
     594:	3b0b3a0e 	blcc	2cedd4 <__bss_end__+0x2c4e3c>
     598:	0013490b 	andseq	r4, r3, fp, lsl #18
     59c:	01010b00 	tsteq	r1, r0, lsl #22
     5a0:	13011349 	movwne	r1, #4937	; 0x1349
     5a4:	210c0000 	mrscs	r0, (UNDEF: 12)
     5a8:	2f134900 	svccs	0x00134900
     5ac:	0d00000b 	stceq	0, cr0, [r0, #-44]	; 0xffffffd4
     5b0:	0b0b0113 	bleq	2c0a04 <__bss_end__+0x2b6a6c>
     5b4:	0b3b0b3a 	bleq	ec32a4 <__bss_end__+0xeb930c>
     5b8:	00001301 	andeq	r1, r0, r1, lsl #6
     5bc:	03000d0e 	movweq	r0, #3342	; 0xd0e
     5c0:	3b0b3a0e 	blcc	2cee00 <__bss_end__+0x2c4e68>
     5c4:	3813490b 	ldmdacc	r3, {r0, r1, r3, r8, fp, lr}
     5c8:	0f00000b 	svceq	0x0000000b
     5cc:	0b0b000f 	bleq	2c0610 <__bss_end__+0x2b6678>
     5d0:	00001349 	andeq	r1, r0, r9, asr #6
     5d4:	49002610 	stmdbmi	r0, {r4, r9, sl, sp}
     5d8:	11000013 	tstne	r0, r3, lsl r0
     5dc:	0803000d 	stmdaeq	r3, {r0, r2, r3}
     5e0:	0b3b0b3a 	bleq	ec32d0 <__bss_end__+0xeb9338>
     5e4:	0b381349 	bleq	e05310 <__bss_end__+0xdfb378>
     5e8:	13120000 	tstne	r2, #0
     5ec:	0b0e0301 	bleq	3811f8 <__bss_end__+0x377260>
     5f0:	3b0b3a05 	blcc	2cee0c <__bss_end__+0x2c4e74>
     5f4:	0013010b 	andseq	r0, r3, fp, lsl #2
     5f8:	000d1300 	andeq	r1, sp, r0, lsl #6
     5fc:	0b3a0e03 	bleq	e83e10 <__bss_end__+0xe79e78>
     600:	13490b3b 	movtne	r0, #39739	; 0x9b3b
     604:	00000538 	andeq	r0, r0, r8, lsr r5
     608:	27001514 	smladcs	r0, r4, r5, r1
     60c:	15000019 	strne	r0, [r0, #-25]	; 0xffffffe7
     610:	19270115 	stmdbne	r7!, {r0, r2, r4, r8}
     614:	13011349 	movwne	r1, #4937	; 0x1349
     618:	05160000 	ldreq	r0, [r6, #-0]
     61c:	00134900 	andseq	r4, r3, r0, lsl #18
     620:	01131700 	tsteq	r3, r0, lsl #14
     624:	050b0e03 	streq	r0, [fp, #-3587]	; 0xfffff1fd
     628:	053b0b3a 	ldreq	r0, [fp, #-2874]!	; 0xfffff4c6
     62c:	00001301 	andeq	r1, r0, r1, lsl #6
     630:	03000d18 	movweq	r0, #3352	; 0xd18
     634:	3b0b3a0e 	blcc	2cee74 <__bss_end__+0x2c4edc>
     638:	38134905 	ldmdacc	r3, {r0, r2, r8, fp, lr}
     63c:	1900000b 	stmdbne	r0, {r0, r1, r3}
     640:	0e03000d 	cdpeq	0, 0, cr0, cr3, cr13, {0}
     644:	053b0b3a 	ldreq	r0, [fp, #-2874]!	; 0xfffff4c6
     648:	05381349 	ldreq	r1, [r8, #-841]!	; 0xfffffcb7
     64c:	131a0000 	tstne	sl, #0
     650:	0b0e0301 	bleq	38125c <__bss_end__+0x3772c4>
     654:	3b0b3a0b 	blcc	2cee88 <__bss_end__+0x2c4ef0>
     658:	00130105 	andseq	r0, r3, r5, lsl #2
     65c:	01131b00 	tsteq	r3, r0, lsl #22
     660:	0b3a0b0b 	bleq	e83294 <__bss_end__+0xe792fc>
     664:	1301053b 	movwne	r0, #5435	; 0x153b
     668:	171c0000 	ldrne	r0, [ip, -r0]
     66c:	3a0b0b01 	bcc	2c3278 <__bss_end__+0x2b92e0>
     670:	01053b0b 	tsteq	r5, fp, lsl #22
     674:	1d000013 	stcne	0, cr0, [r0, #-76]	; 0xffffffb4
     678:	0e03000d 	cdpeq	0, 0, cr0, cr3, cr13, {0}
     67c:	053b0b3a 	ldreq	r0, [fp, #-2874]!	; 0xfffff4c6
     680:	00001349 	andeq	r1, r0, r9, asr #6
     684:	2701151e 	smladcs	r1, lr, r5, r1
     688:	00130119 	andseq	r0, r3, r9, lsl r1
     68c:	00341f00 	eorseq	r1, r4, r0, lsl #30
     690:	0b3a0e03 	bleq	e83ea4 <__bss_end__+0xe79f0c>
     694:	1349053b 	movtne	r0, #38203	; 0x953b
     698:	193c193f 	ldmdbne	ip!, {r0, r1, r2, r3, r4, r5, r8, fp, ip}
     69c:	34200000 	strtcc	r0, [r0], #-0
     6a0:	3a0e0300 	bcc	3812a8 <__bss_end__+0x377310>
     6a4:	490b3b0b 	stmdbmi	fp, {r0, r1, r3, r8, r9, fp, ip, sp}
     6a8:	3c193f13 	ldccc	15, cr3, [r9], {19}
     6ac:	21000019 	tstcs	r0, r9, lsl r0
     6b0:	193f012e 	ldmdbne	pc!, {r1, r2, r3, r5, r8}	; <UNPREDICTABLE>
     6b4:	0b3a0e03 	bleq	e83ec8 <__bss_end__+0xe79f30>
     6b8:	19270b3b 	stmdbne	r7!, {r0, r1, r3, r4, r5, r8, r9, fp}
     6bc:	01111349 	tsteq	r1, r9, asr #6
     6c0:	18400612 	stmdane	r0, {r1, r4, r9, sl}^
     6c4:	01194297 			; <UNDEFINED> instruction: 0x01194297
     6c8:	22000013 	andcs	r0, r0, #19
     6cc:	08030005 	stmdaeq	r3, {r0, r2}
     6d0:	0b3b0b3a 	bleq	ec33c0 <__bss_end__+0xeb9428>
     6d4:	18021349 	stmdane	r2, {r0, r3, r6, r8, r9, ip}
     6d8:	18230000 	stmdane	r3!, {}	; <UNPREDICTABLE>
     6dc:	24000000 	strcs	r0, [r0], #-0
     6e0:	08030034 	stmdaeq	r3, {r2, r4, r5}
     6e4:	0b3b0b3a 	bleq	ec33d4 <__bss_end__+0xeb943c>
     6e8:	18021349 	stmdane	r2, {r0, r3, r6, r8, r9, ip}
     6ec:	34250000 	strtcc	r0, [r5], #-0
     6f0:	3a0e0300 	bcc	3812f8 <__bss_end__+0x377360>
     6f4:	490b3b0b 	stmdbmi	fp, {r0, r1, r3, r8, r9, fp, ip, sp}
     6f8:	00180213 	andseq	r0, r8, r3, lsl r2
     6fc:	00342600 	eorseq	r2, r4, r0, lsl #12
     700:	0b3a0803 	bleq	e82714 <__bss_end__+0xe7877c>
     704:	13490b3b 	movtne	r0, #39739	; 0x9b3b
     708:	00001702 	andeq	r1, r0, r2, lsl #14
     70c:	01828927 	orreq	r8, r2, r7, lsr #18
     710:	31011101 	tstcc	r1, r1, lsl #2
     714:	00130113 	andseq	r0, r3, r3, lsl r1
     718:	828a2800 	addhi	r2, sl, #0, 16
     71c:	18020001 	stmdane	r2, {r0}
     720:	00184291 	mulseq	r8, r1, r2
     724:	82892900 	addhi	r2, r9, #0, 18
     728:	01110101 	tsteq	r1, r1, lsl #2
     72c:	212a0000 			; <UNDEFINED> instruction: 0x212a0000
     730:	2f134900 	svccs	0x00134900
     734:	2b000005 	blcs	750 <_start-0x78b0>
     738:	193f002e 	ldmdbne	pc!, {r1, r2, r3, r5}	; <UNPREDICTABLE>
     73c:	0e6e193c 			; <UNDEFINED> instruction: 0x0e6e193c
     740:	0b3a0e03 	bleq	e83f54 <__bss_end__+0xe79fbc>
     744:	00000b3b 	andeq	r0, r0, fp, lsr fp
     748:	01110100 	tsteq	r1, r0, lsl #2
     74c:	0b130e25 	bleq	4c3fe8 <__bss_end__+0x4ba050>
     750:	0e1b0e03 	cdpeq	14, 1, cr0, cr11, cr3, {0}
     754:	06120111 			; <UNDEFINED> instruction: 0x06120111
     758:	00001710 	andeq	r1, r0, r0, lsl r7
     75c:	0b002402 	bleq	976c <__FUNCTION__.4339+0x10c>
     760:	030b3e0b 	movweq	r3, #48651	; 0xbe0b
     764:	03000008 	movweq	r0, #8
     768:	0b0b0024 	bleq	2c0800 <__bss_end__+0x2b6868>
     76c:	0e030b3e 	vmoveq.16	d3[0], r0
     770:	16040000 	strne	r0, [r4], -r0
     774:	3a0e0300 	bcc	38137c <__bss_end__+0x3773e4>
     778:	490b3b0b 	stmdbmi	fp, {r0, r1, r3, r8, r9, fp, ip, sp}
     77c:	05000013 	streq	r0, [r0, #-19]	; 0xffffffed
     780:	0e030016 	mcreq	0, 0, r0, cr3, cr6, {0}
     784:	053b0b3a 	ldreq	r0, [fp, #-2874]!	; 0xfffff4c6
     788:	00001349 	andeq	r1, r0, r9, asr #6
     78c:	0b011706 	bleq	463ac <__bss_end__+0x3c414>
     790:	3b0b3a0b 	blcc	2cefc4 <__bss_end__+0x2c502c>
     794:	0013010b 	andseq	r0, r3, fp, lsl #2
     798:	000d0700 	andeq	r0, sp, r0, lsl #14
     79c:	0b3a0e03 	bleq	e83fb0 <__bss_end__+0xe7a018>
     7a0:	13490b3b 	movtne	r0, #39739	; 0x9b3b
     7a4:	01080000 	mrseq	r0, (UNDEF: 8)
     7a8:	01134901 	tsteq	r3, r1, lsl #18
     7ac:	09000013 	stmdbeq	r0, {r0, r1, r4}
     7b0:	13490021 	movtne	r0, #36897	; 0x9021
     7b4:	00000b2f 	andeq	r0, r0, pc, lsr #22
     7b8:	0b01130a 	bleq	453e8 <__bss_end__+0x3b450>
     7bc:	3b0b3a0b 	blcc	2ceff0 <__bss_end__+0x2c5058>
     7c0:	0013010b 	andseq	r0, r3, fp, lsl #2
     7c4:	000d0b00 	andeq	r0, sp, r0, lsl #22
     7c8:	0b3a0e03 	bleq	e83fdc <__bss_end__+0xe7a044>
     7cc:	13490b3b 	movtne	r0, #39739	; 0x9b3b
     7d0:	00000b38 	andeq	r0, r0, r8, lsr fp
     7d4:	0b000f0c 	bleq	440c <_start-0x3bf4>
     7d8:	0d00000b 	stceq	0, cr0, [r0, #-44]	; 0xffffffd4
     7dc:	0b0b000f 	bleq	2c0820 <__bss_end__+0x2b6888>
     7e0:	00001349 	andeq	r1, r0, r9, asr #6
     7e4:	4900260e 	stmdbmi	r0, {r1, r2, r3, r9, sl, sp}
     7e8:	0f000013 	svceq	0x00000013
     7ec:	0e030113 	mcreq	1, 0, r0, cr3, cr3, {0}
     7f0:	0b3a0b0b 	bleq	e83424 <__bss_end__+0xe7948c>
     7f4:	13010b3b 	movwne	r0, #6971	; 0x1b3b
     7f8:	0d100000 	ldceq	0, cr0, [r0, #-0]
     7fc:	3a080300 	bcc	201404 <__bss_end__+0x1f746c>
     800:	490b3b0b 	stmdbmi	fp, {r0, r1, r3, r8, r9, fp, ip, sp}
     804:	000b3813 	andeq	r3, fp, r3, lsl r8
     808:	01131100 	tsteq	r3, r0, lsl #2
     80c:	050b0e03 	streq	r0, [fp, #-3587]	; 0xfffff1fd
     810:	0b3b0b3a 	bleq	ec3500 <__bss_end__+0xeb9568>
     814:	00001301 	andeq	r1, r0, r1, lsl #6
     818:	03000d12 	movweq	r0, #3346	; 0xd12
     81c:	3b0b3a0e 	blcc	2cf05c <__bss_end__+0x2c50c4>
     820:	3813490b 	ldmdacc	r3, {r0, r1, r3, r8, fp, lr}
     824:	13000005 	movwne	r0, #5
     828:	19270015 	stmdbne	r7!, {r0, r2, r4}
     82c:	15140000 	ldrne	r0, [r4, #-0]
     830:	49192701 	ldmdbmi	r9, {r0, r8, r9, sl, sp}
     834:	00130113 	andseq	r0, r3, r3, lsl r1
     838:	00051500 	andeq	r1, r5, r0, lsl #10
     83c:	00001349 	andeq	r1, r0, r9, asr #6
     840:	03011316 	movweq	r1, #4886	; 0x1316
     844:	3a050b0e 	bcc	143484 <__bss_end__+0x1394ec>
     848:	01053b0b 	tsteq	r5, fp, lsl #22
     84c:	17000013 	smladne	r0, r3, r0, r0
     850:	0e03000d 	cdpeq	0, 0, cr0, cr3, cr13, {0}
     854:	053b0b3a 	ldreq	r0, [fp, #-2874]!	; 0xfffff4c6
     858:	0b381349 	bleq	e05584 <__bss_end__+0xdfb5ec>
     85c:	0d180000 	ldceq	0, cr0, [r8, #-0]
     860:	3a0e0300 	bcc	381468 <__bss_end__+0x3774d0>
     864:	49053b0b 	stmdbmi	r5, {r0, r1, r3, r8, r9, fp, ip, sp}
     868:	00053813 	andeq	r3, r5, r3, lsl r8
     86c:	01131900 	tsteq	r3, r0, lsl #18
     870:	0b0b0e03 	bleq	2c4084 <__bss_end__+0x2ba0ec>
     874:	053b0b3a 	ldreq	r0, [fp, #-2874]!	; 0xfffff4c6
     878:	00001301 	andeq	r1, r0, r1, lsl #6
     87c:	0b01131a 	bleq	454ec <__bss_end__+0x3b554>
     880:	3b0b3a0b 	blcc	2cf0b4 <__bss_end__+0x2c511c>
     884:	00130105 	andseq	r0, r3, r5, lsl #2
     888:	01171b00 	tsteq	r7, r0, lsl #22
     88c:	0b3a0b0b 	bleq	e834c0 <__bss_end__+0xe79528>
     890:	1301053b 	movwne	r0, #5435	; 0x153b
     894:	0d1c0000 	ldceq	0, cr0, [ip, #-0]
     898:	3a0e0300 	bcc	3814a0 <__bss_end__+0x377508>
     89c:	49053b0b 	stmdbmi	r5, {r0, r1, r3, r8, r9, fp, ip, sp}
     8a0:	1d000013 	stcne	0, cr0, [r0, #-76]	; 0xffffffb4
     8a4:	19270115 	stmdbne	r7!, {r0, r2, r4, r8}
     8a8:	00001301 	andeq	r1, r0, r1, lsl #6
     8ac:	0300341e 	movweq	r3, #1054	; 0x41e
     8b0:	3b0b3a0e 	blcc	2cf0f0 <__bss_end__+0x2c5158>
     8b4:	3f134905 	svccc	0x00134905
     8b8:	00193c19 	andseq	r3, r9, r9, lsl ip
     8bc:	00341f00 	eorseq	r1, r4, r0, lsl #30
     8c0:	0b3a0e03 	bleq	e840d4 <__bss_end__+0xe7a13c>
     8c4:	13490b3b 	movtne	r0, #39739	; 0x9b3b
     8c8:	193c193f 	ldmdbne	ip!, {r0, r1, r2, r3, r4, r5, r8, fp, ip}
     8cc:	0d200000 	stceq	0, cr0, [r0, #-0]
     8d0:	490e0300 	stmdbmi	lr, {r8, r9}
     8d4:	340b3813 	strcc	r3, [fp], #-2067	; 0xfffff7ed
     8d8:	21000019 	tstcs	r0, r9, lsl r0
     8dc:	193f012e 	ldmdbne	pc!, {r1, r2, r3, r5, r8}	; <UNPREDICTABLE>
     8e0:	0b3a0e03 	bleq	e840f4 <__bss_end__+0xe7a15c>
     8e4:	19270b3b 	stmdbne	r7!, {r0, r1, r3, r4, r5, r8, r9, fp}
     8e8:	01111349 	tsteq	r1, r9, asr #6
     8ec:	18400612 	stmdane	r0, {r1, r4, r9, sl}^
     8f0:	01194297 			; <UNDEFINED> instruction: 0x01194297
     8f4:	22000013 	andcs	r0, r0, #19
     8f8:	08030005 	stmdaeq	r3, {r0, r2}
     8fc:	0b3b0b3a 	bleq	ec35ec <__bss_end__+0xeb9654>
     900:	17021349 	strne	r1, [r2, -r9, asr #6]
     904:	05230000 	streq	r0, [r3, #-0]!
     908:	3a0e0300 	bcc	381510 <__bss_end__+0x377578>
     90c:	490b3b0b 	stmdbmi	fp, {r0, r1, r3, r8, r9, fp, ip, sp}
     910:	00180213 	andseq	r0, r8, r3, lsl r2
     914:	00342400 	eorseq	r2, r4, r0, lsl #8
     918:	0b3a0803 	bleq	e8292c <__bss_end__+0xe78994>
     91c:	13490b3b 	movtne	r0, #39739	; 0x9b3b
     920:	00001702 	andeq	r1, r0, r2, lsl #14
     924:	03003425 	movweq	r3, #1061	; 0x425
     928:	3413490e 	ldrcc	r4, [r3], #-2318	; 0xfffff6f2
     92c:	00180219 	andseq	r0, r8, r9, lsl r2
     930:	010b2600 	tsteq	fp, r0, lsl #12
     934:	00001755 	andeq	r1, r0, r5, asr r7
     938:	03003427 	movweq	r3, #1063	; 0x427
     93c:	3b0b3a08 	blcc	2cf164 <__bss_end__+0x2c51cc>
     940:	0213490b 	andseq	r4, r3, #180224	; 0x2c000
     944:	28000018 	stmdacs	r0, {r3, r4}
     948:	0e030034 	mcreq	0, 0, r0, cr3, cr4, {1}
     94c:	0b3b0b3a 	bleq	ec363c <__bss_end__+0xeb96a4>
     950:	17021349 	strne	r1, [r2, -r9, asr #6]
     954:	89290000 	stmdbhi	r9!, {}	; <UNPREDICTABLE>
     958:	11010182 	smlabbne	r1, r2, r1, r0
     95c:	01133101 	tsteq	r3, r1, lsl #2
     960:	2a000013 	bcs	9b4 <_start-0x764c>
     964:	0001828a 	andeq	r8, r1, sl, lsl #5
     968:	42911802 	addsmi	r1, r1, #131072	; 0x20000
     96c:	2b000018 	blcs	9d4 <_start-0x762c>
     970:	00018289 	andeq	r8, r1, r9, lsl #5
     974:	13310111 	teqne	r1, #1073741828	; 0x40000004
     978:	2e2c0000 	cdpcs	0, 2, cr0, cr12, cr0, {0}
     97c:	3a0e0301 	bcc	381588 <__bss_end__+0x3775f0>
     980:	270b3b0b 	strcs	r3, [fp, -fp, lsl #22]
     984:	11134919 	tstne	r3, r9, lsl r9
     988:	40061201 	andmi	r1, r6, r1, lsl #4
     98c:	19429718 	stmdbne	r2, {r3, r4, r8, r9, sl, ip, pc}^
     990:	00001301 	andeq	r1, r0, r1, lsl #6
     994:	0300052d 	movweq	r0, #1325	; 0x52d
     998:	3b0b3a0e 	blcc	2cf1d8 <__bss_end__+0x2c5240>
     99c:	0213490b 	andseq	r4, r3, #180224	; 0x2c000
     9a0:	2e000017 	mcrcs	0, 0, r0, cr0, cr7, {0}
     9a4:	0111010b 	tsteq	r1, fp, lsl #2
     9a8:	13010612 	movwne	r0, #5650	; 0x1612
     9ac:	2e2f0000 	cdpcs	0, 2, cr0, cr15, cr0, {0}
     9b0:	3a080301 	bcc	2015bc <__bss_end__+0x1f7624>
     9b4:	270b3b0b 	strcs	r3, [fp, -fp, lsl #22]
     9b8:	11134919 	tstne	r3, r9, lsl r9
     9bc:	40061201 	andmi	r1, r6, r1, lsl #4
     9c0:	19429718 	stmdbne	r2, {r3, r4, r8, r9, sl, ip, pc}^
     9c4:	00001301 	andeq	r1, r0, r1, lsl #6
     9c8:	3f012e30 	svccc	0x00012e30
     9cc:	3a0e0319 	bcc	381638 <__bss_end__+0x3776a0>
     9d0:	270b3b0b 	strcs	r3, [fp, -fp, lsl #22]
     9d4:	12011119 	andne	r1, r1, #1073741830	; 0x40000006
     9d8:	97184006 	ldrls	r4, [r8, -r6]
     9dc:	13011942 	movwne	r1, #6466	; 0x1942
     9e0:	2e310000 	cdpcs	0, 3, cr0, cr1, cr0, {0}
     9e4:	3c193f00 	ldccc	15, cr3, [r9], {-0}
     9e8:	030e6e19 	movweq	r6, #60953	; 0xee19
     9ec:	3b0b3a0e 	blcc	2cf22c <__bss_end__+0x2c5294>
     9f0:	0000000b 	andeq	r0, r0, fp
     9f4:	25011101 	strcs	r1, [r1, #-257]	; 0xfffffeff
     9f8:	030b130e 	movweq	r1, #45838	; 0xb30e
     9fc:	110e1b0e 	tstne	lr, lr, lsl #22
     a00:	10061201 	andne	r1, r6, r1, lsl #4
     a04:	02000017 	andeq	r0, r0, #23
     a08:	0b0b0024 	bleq	2c0aa0 <__bss_end__+0x2b6b08>
     a0c:	08030b3e 	stmdaeq	r3, {r1, r2, r3, r4, r5, r8, r9, fp}
     a10:	24030000 	strcs	r0, [r3], #-0
     a14:	3e0b0b00 	vmlacc.f64	d0, d11, d0
     a18:	000e030b 	andeq	r0, lr, fp, lsl #6
     a1c:	00160400 	andseq	r0, r6, r0, lsl #8
     a20:	0b3a0e03 	bleq	e84234 <__bss_end__+0xe7a29c>
     a24:	13490b3b 	movtne	r0, #39739	; 0x9b3b
     a28:	16050000 	strne	r0, [r5], -r0
     a2c:	3a0e0300 	bcc	381634 <__bss_end__+0x37769c>
     a30:	49053b0b 	stmdbmi	r5, {r0, r1, r3, r8, r9, fp, ip, sp}
     a34:	06000013 			; <UNDEFINED> instruction: 0x06000013
     a38:	0b0b0117 	bleq	2c0e9c <__bss_end__+0x2b6f04>
     a3c:	0b3b0b3a 	bleq	ec372c <__bss_end__+0xeb9794>
     a40:	00001301 	andeq	r1, r0, r1, lsl #6
     a44:	03000d07 	movweq	r0, #3335	; 0xd07
     a48:	3b0b3a0e 	blcc	2cf288 <__bss_end__+0x2c52f0>
     a4c:	0013490b 	andseq	r4, r3, fp, lsl #18
     a50:	01010800 	tsteq	r1, r0, lsl #16
     a54:	13011349 	movwne	r1, #4937	; 0x1349
     a58:	21090000 	mrscs	r0, (UNDEF: 9)
     a5c:	2f134900 	svccs	0x00134900
     a60:	0a00000b 	beq	a94 <_start-0x756c>
     a64:	0b0b0113 	bleq	2c0eb8 <__bss_end__+0x2b6f20>
     a68:	0b3b0b3a 	bleq	ec3758 <__bss_end__+0xeb97c0>
     a6c:	00001301 	andeq	r1, r0, r1, lsl #6
     a70:	03000d0b 	movweq	r0, #3339	; 0xd0b
     a74:	3b0b3a0e 	blcc	2cf2b4 <__bss_end__+0x2c531c>
     a78:	3813490b 	ldmdacc	r3, {r0, r1, r3, r8, fp, lr}
     a7c:	0c00000b 	stceq	0, cr0, [r0], {11}
     a80:	0b0b000f 	bleq	2c0ac4 <__bss_end__+0x2b6b2c>
     a84:	0f0d0000 	svceq	0x000d0000
     a88:	490b0b00 	stmdbmi	fp, {r8, r9, fp}
     a8c:	0e000013 	mcreq	0, 0, r0, cr0, cr3, {0}
     a90:	13490026 	movtne	r0, #36902	; 0x9026
     a94:	130f0000 	movwne	r0, #61440	; 0xf000
     a98:	0b0e0301 	bleq	3816a4 <__bss_end__+0x37770c>
     a9c:	3b0b3a0b 	blcc	2cf2d0 <__bss_end__+0x2c5338>
     aa0:	0013010b 	andseq	r0, r3, fp, lsl #2
     aa4:	000d1000 	andeq	r1, sp, r0
     aa8:	0b3a0803 	bleq	e82abc <__bss_end__+0xe78b24>
     aac:	13490b3b 	movtne	r0, #39739	; 0x9b3b
     ab0:	00000b38 	andeq	r0, r0, r8, lsr fp
     ab4:	03011311 	movweq	r1, #4881	; 0x1311
     ab8:	3a050b0e 	bcc	1436f8 <__bss_end__+0x139760>
     abc:	010b3b0b 	tsteq	fp, fp, lsl #22
     ac0:	12000013 	andne	r0, r0, #19
     ac4:	0e03000d 	cdpeq	0, 0, cr0, cr3, cr13, {0}
     ac8:	0b3b0b3a 	bleq	ec37b8 <__bss_end__+0xeb9820>
     acc:	05381349 	ldreq	r1, [r8, #-841]!	; 0xfffffcb7
     ad0:	15130000 	ldrne	r0, [r3, #-0]
     ad4:	00192700 	andseq	r2, r9, r0, lsl #14
     ad8:	01151400 	tsteq	r5, r0, lsl #8
     adc:	13491927 	movtne	r1, #39207	; 0x9927
     ae0:	00001301 	andeq	r1, r0, r1, lsl #6
     ae4:	49000515 	stmdbmi	r0, {r0, r2, r4, r8, sl}
     ae8:	16000013 			; <UNDEFINED> instruction: 0x16000013
     aec:	0e030113 	mcreq	1, 0, r0, cr3, cr3, {0}
     af0:	0b3a050b 	bleq	e81f24 <__bss_end__+0xe77f8c>
     af4:	1301053b 	movwne	r0, #5435	; 0x153b
     af8:	0d170000 	ldceq	0, cr0, [r7, #-0]
     afc:	3a0e0300 	bcc	381704 <__bss_end__+0x37776c>
     b00:	49053b0b 	stmdbmi	r5, {r0, r1, r3, r8, r9, fp, ip, sp}
     b04:	000b3813 	andeq	r3, fp, r3, lsl r8
     b08:	000d1800 	andeq	r1, sp, r0, lsl #16
     b0c:	0b3a0e03 	bleq	e84320 <__bss_end__+0xe7a388>
     b10:	1349053b 	movtne	r0, #38203	; 0x953b
     b14:	00000538 	andeq	r0, r0, r8, lsr r5
     b18:	03011319 	movweq	r1, #4889	; 0x1319
     b1c:	3a0b0b0e 	bcc	2c375c <__bss_end__+0x2b97c4>
     b20:	01053b0b 	tsteq	r5, fp, lsl #22
     b24:	1a000013 	bne	b78 <_start-0x7488>
     b28:	0b0b0113 	bleq	2c0f7c <__bss_end__+0x2b6fe4>
     b2c:	053b0b3a 	ldreq	r0, [fp, #-2874]!	; 0xfffff4c6
     b30:	00001301 	andeq	r1, r0, r1, lsl #6
     b34:	0b01171b 	bleq	467a8 <__bss_end__+0x3c810>
     b38:	3b0b3a0b 	blcc	2cf36c <__bss_end__+0x2c53d4>
     b3c:	00130105 	andseq	r0, r3, r5, lsl #2
     b40:	000d1c00 	andeq	r1, sp, r0, lsl #24
     b44:	0b3a0e03 	bleq	e84358 <__bss_end__+0xe7a3c0>
     b48:	1349053b 	movtne	r0, #38203	; 0x953b
     b4c:	151d0000 	ldrne	r0, [sp, #-0]
     b50:	01192701 	tsteq	r9, r1, lsl #14
     b54:	1e000013 	mcrne	0, 0, r0, cr0, cr3, {0}
     b58:	0e030034 	mcreq	0, 0, r0, cr3, cr4, {1}
     b5c:	053b0b3a 	ldreq	r0, [fp, #-2874]!	; 0xfffff4c6
     b60:	193f1349 	ldmdbne	pc!, {r0, r3, r6, r8, r9, ip}	; <UNPREDICTABLE>
     b64:	0000193c 	andeq	r1, r0, ip, lsr r9
     b68:	0300341f 	movweq	r3, #1055	; 0x41f
     b6c:	3b0b3a0e 	blcc	2cf3ac <__bss_end__+0x2c5414>
     b70:	3f13490b 	svccc	0x0013490b
     b74:	00193c19 	andseq	r3, r9, r9, lsl ip
     b78:	012e2000 			; <UNDEFINED> instruction: 0x012e2000
     b7c:	0e03193f 			; <UNDEFINED> instruction: 0x0e03193f
     b80:	0b3b0b3a 	bleq	ec3870 <__bss_end__+0xeb98d8>
     b84:	13491927 	movtne	r1, #39207	; 0x9927
     b88:	06120111 			; <UNDEFINED> instruction: 0x06120111
     b8c:	42971840 	addsmi	r1, r7, #64, 16	; 0x400000
     b90:	00130119 	andseq	r0, r3, r9, lsl r1
     b94:	00052100 	andeq	r2, r5, r0, lsl #2
     b98:	0b3a0e03 	bleq	e843ac <__bss_end__+0xe7a414>
     b9c:	13490b3b 	movtne	r0, #39739	; 0x9b3b
     ba0:	00001702 	andeq	r1, r0, r2, lsl #14
     ba4:	03000522 	movweq	r0, #1314	; 0x522
     ba8:	3b0b3a08 	blcc	2cf3d0 <__bss_end__+0x2c5438>
     bac:	0213490b 	andseq	r4, r3, #180224	; 0x2c000
     bb0:	23000017 	movwcs	r0, #23
     bb4:	0e030034 	mcreq	0, 0, r0, cr3, cr4, {1}
     bb8:	0b3b0b3a 	bleq	ec38a8 <__bss_end__+0xeb9910>
     bbc:	17021349 	strne	r1, [r2, -r9, asr #6]
     bc0:	34240000 	strtcc	r0, [r4], #-0
     bc4:	3a080300 	bcc	2017cc <__bss_end__+0x1f7834>
     bc8:	490b3b0b 	stmdbmi	fp, {r0, r1, r3, r8, r9, fp, ip, sp}
     bcc:	00170213 	andseq	r0, r7, r3, lsl r2
     bd0:	00262500 	eoreq	r2, r6, r0, lsl #10
     bd4:	01000000 	mrseq	r0, (UNDEF: 0)
     bd8:	0e250111 	mcreq	1, 1, r0, cr5, cr1, {0}
     bdc:	0e030b13 	vmoveq.32	d3[0], r0
     be0:	01110e1b 	tsteq	r1, fp, lsl lr
     be4:	17100612 			; <UNDEFINED> instruction: 0x17100612
     be8:	24020000 	strcs	r0, [r2], #-0
     bec:	3e0b0b00 	vmlacc.f64	d0, d11, d0
     bf0:	0008030b 	andeq	r0, r8, fp, lsl #6
     bf4:	00240300 	eoreq	r0, r4, r0, lsl #6
     bf8:	0b3e0b0b 	bleq	f8382c <__bss_end__+0xf79894>
     bfc:	00000e03 	andeq	r0, r0, r3, lsl #28
     c00:	03001604 	movweq	r1, #1540	; 0x604
     c04:	3b0b3a0e 	blcc	2cf444 <__bss_end__+0x2c54ac>
     c08:	0013490b 	andseq	r4, r3, fp, lsl #18
     c0c:	00160500 	andseq	r0, r6, r0, lsl #10
     c10:	0b3a0e03 	bleq	e84424 <__bss_end__+0xe7a48c>
     c14:	1349053b 	movtne	r0, #38203	; 0x953b
     c18:	17060000 	strne	r0, [r6, -r0]
     c1c:	3a0b0b01 	bcc	2c3828 <__bss_end__+0x2b9890>
     c20:	010b3b0b 	tsteq	fp, fp, lsl #22
     c24:	07000013 	smladeq	r0, r3, r0, r0
     c28:	0e03000d 	cdpeq	0, 0, cr0, cr3, cr13, {0}
     c2c:	0b3b0b3a 	bleq	ec391c <__bss_end__+0xeb9984>
     c30:	00001349 	andeq	r1, r0, r9, asr #6
     c34:	49010108 	stmdbmi	r1, {r3, r8}
     c38:	00130113 	andseq	r0, r3, r3, lsl r1
     c3c:	00210900 	eoreq	r0, r1, r0, lsl #18
     c40:	0b2f1349 	bleq	bc596c <__bss_end__+0xbbb9d4>
     c44:	130a0000 	movwne	r0, #40960	; 0xa000
     c48:	3a0b0b01 	bcc	2c3854 <__bss_end__+0x2b98bc>
     c4c:	010b3b0b 	tsteq	fp, fp, lsl #22
     c50:	0b000013 	bleq	ca4 <_start-0x735c>
     c54:	0e03000d 	cdpeq	0, 0, cr0, cr3, cr13, {0}
     c58:	0b3b0b3a 	bleq	ec3948 <__bss_end__+0xeb99b0>
     c5c:	0b381349 	bleq	e05988 <__bss_end__+0xdfb9f0>
     c60:	0f0c0000 	svceq	0x000c0000
     c64:	000b0b00 	andeq	r0, fp, r0, lsl #22
     c68:	000f0d00 	andeq	r0, pc, r0, lsl #26
     c6c:	13490b0b 	movtne	r0, #39691	; 0x9b0b
     c70:	260e0000 	strcs	r0, [lr], -r0
     c74:	00134900 	andseq	r4, r3, r0, lsl #18
     c78:	01130f00 	tsteq	r3, r0, lsl #30
     c7c:	0b0b0e03 	bleq	2c4490 <__bss_end__+0x2ba4f8>
     c80:	0b3b0b3a 	bleq	ec3970 <__bss_end__+0xeb99d8>
     c84:	00001301 	andeq	r1, r0, r1, lsl #6
     c88:	03000d10 	movweq	r0, #3344	; 0xd10
     c8c:	3b0b3a08 	blcc	2cf4b4 <__bss_end__+0x2c551c>
     c90:	3813490b 	ldmdacc	r3, {r0, r1, r3, r8, fp, lr}
     c94:	1100000b 	tstne	r0, fp
     c98:	0e030113 	mcreq	1, 0, r0, cr3, cr3, {0}
     c9c:	0b3a050b 	bleq	e820d0 <__bss_end__+0xe78138>
     ca0:	13010b3b 	movwne	r0, #6971	; 0x1b3b
     ca4:	0d120000 	ldceq	0, cr0, [r2, #-0]
     ca8:	3a0e0300 	bcc	3818b0 <__bss_end__+0x377918>
     cac:	490b3b0b 	stmdbmi	fp, {r0, r1, r3, r8, r9, fp, ip, sp}
     cb0:	00053813 	andeq	r3, r5, r3, lsl r8
     cb4:	00151300 	andseq	r1, r5, r0, lsl #6
     cb8:	00001927 	andeq	r1, r0, r7, lsr #18
     cbc:	27011514 	smladcs	r1, r4, r5, r1
     cc0:	01134919 	tsteq	r3, r9, lsl r9
     cc4:	15000013 	strne	r0, [r0, #-19]	; 0xffffffed
     cc8:	13490005 	movtne	r0, #36869	; 0x9005
     ccc:	13160000 	tstne	r6, #0
     cd0:	0b0e0301 	bleq	3818dc <__bss_end__+0x377944>
     cd4:	3b0b3a05 	blcc	2cf4f0 <__bss_end__+0x2c5558>
     cd8:	00130105 	andseq	r0, r3, r5, lsl #2
     cdc:	000d1700 	andeq	r1, sp, r0, lsl #14
     ce0:	0b3a0e03 	bleq	e844f4 <__bss_end__+0xe7a55c>
     ce4:	1349053b 	movtne	r0, #38203	; 0x953b
     ce8:	00000b38 	andeq	r0, r0, r8, lsr fp
     cec:	03000d18 	movweq	r0, #3352	; 0xd18
     cf0:	3b0b3a0e 	blcc	2cf530 <__bss_end__+0x2c5598>
     cf4:	38134905 	ldmdacc	r3, {r0, r2, r8, fp, lr}
     cf8:	19000005 	stmdbne	r0, {r0, r2}
     cfc:	0e030113 	mcreq	1, 0, r0, cr3, cr3, {0}
     d00:	0b3a0b0b 	bleq	e83934 <__bss_end__+0xe7999c>
     d04:	1301053b 	movwne	r0, #5435	; 0x153b
     d08:	131a0000 	tstne	sl, #0
     d0c:	3a0b0b01 	bcc	2c3918 <__bss_end__+0x2b9980>
     d10:	01053b0b 	tsteq	r5, fp, lsl #22
     d14:	1b000013 	blne	d68 <_start-0x7298>
     d18:	0b0b0117 	bleq	2c117c <__bss_end__+0x2b71e4>
     d1c:	053b0b3a 	ldreq	r0, [fp, #-2874]!	; 0xfffff4c6
     d20:	00001301 	andeq	r1, r0, r1, lsl #6
     d24:	03000d1c 	movweq	r0, #3356	; 0xd1c
     d28:	3b0b3a0e 	blcc	2cf568 <__bss_end__+0x2c55d0>
     d2c:	00134905 	andseq	r4, r3, r5, lsl #18
     d30:	01151d00 	tsteq	r5, r0, lsl #26
     d34:	13011927 	movwne	r1, #6439	; 0x1927
     d38:	341e0000 	ldrcc	r0, [lr], #-0
     d3c:	3a0e0300 	bcc	381944 <__bss_end__+0x3779ac>
     d40:	49053b0b 	stmdbmi	r5, {r0, r1, r3, r8, r9, fp, ip, sp}
     d44:	3c193f13 	ldccc	15, cr3, [r9], {19}
     d48:	1f000019 	svcne	0x00000019
     d4c:	0e030034 	mcreq	0, 0, r0, cr3, cr4, {1}
     d50:	0b3b0b3a 	bleq	ec3a40 <__bss_end__+0xeb9aa8>
     d54:	193f1349 	ldmdbne	pc!, {r0, r3, r6, r8, r9, ip}	; <UNPREDICTABLE>
     d58:	0000193c 	andeq	r1, r0, ip, lsr r9
     d5c:	47003420 	strmi	r3, [r0, -r0, lsr #8]
     d60:	3b0b3a13 	blcc	2cf5b4 <__bss_end__+0x2c561c>
     d64:	0018020b 	andseq	r0, r8, fp, lsl #4
     d68:	012e2100 			; <UNDEFINED> instruction: 0x012e2100
     d6c:	0e03193f 			; <UNDEFINED> instruction: 0x0e03193f
     d70:	0b3b0b3a 	bleq	ec3a60 <__bss_end__+0xeb9ac8>
     d74:	13491927 	movtne	r1, #39207	; 0x9927
     d78:	06120111 			; <UNDEFINED> instruction: 0x06120111
     d7c:	42961840 	addsmi	r1, r6, #64, 16	; 0x400000
     d80:	22000019 	andcs	r0, r0, #25
     d84:	08030005 	stmdaeq	r3, {r0, r2}
     d88:	0b3b0b3a 	bleq	ec3a78 <__bss_end__+0xeb9ae0>
     d8c:	17021349 	strne	r1, [r2, -r9, asr #6]
     d90:	01000000 	mrseq	r0, (UNDEF: 0)
     d94:	0e250111 	mcreq	1, 1, r0, cr5, cr1, {0}
     d98:	0e030b13 	vmoveq.32	d3[0], r0
     d9c:	01110e1b 	tsteq	r1, fp, lsl lr
     da0:	17100612 			; <UNDEFINED> instruction: 0x17100612
     da4:	24020000 	strcs	r0, [r2], #-0
     da8:	3e0b0b00 	vmlacc.f64	d0, d11, d0
     dac:	0008030b 	andeq	r0, r8, fp, lsl #6
     db0:	00240300 	eoreq	r0, r4, r0, lsl #6
     db4:	0b3e0b0b 	bleq	f839e8 <__bss_end__+0xf79a50>
     db8:	00000e03 	andeq	r0, r0, r3, lsl #28
     dbc:	03001604 	movweq	r1, #1540	; 0x604
     dc0:	3b0b3a0e 	blcc	2cf600 <__bss_end__+0x2c5668>
     dc4:	0013490b 	andseq	r4, r3, fp, lsl #18
     dc8:	00160500 	andseq	r0, r6, r0, lsl #10
     dcc:	0b3a0e03 	bleq	e845e0 <__bss_end__+0xe7a648>
     dd0:	1349053b 	movtne	r0, #38203	; 0x953b
     dd4:	17060000 	strne	r0, [r6, -r0]
     dd8:	3a0b0b01 	bcc	2c39e4 <__bss_end__+0x2b9a4c>
     ddc:	010b3b0b 	tsteq	fp, fp, lsl #22
     de0:	07000013 	smladeq	r0, r3, r0, r0
     de4:	0e03000d 	cdpeq	0, 0, cr0, cr3, cr13, {0}
     de8:	0b3b0b3a 	bleq	ec3ad8 <__bss_end__+0xeb9b40>
     dec:	00001349 	andeq	r1, r0, r9, asr #6
     df0:	49010108 	stmdbmi	r1, {r3, r8}
     df4:	00130113 	andseq	r0, r3, r3, lsl r1
     df8:	00210900 	eoreq	r0, r1, r0, lsl #18
     dfc:	0b2f1349 	bleq	bc5b28 <__bss_end__+0xbbbb90>
     e00:	130a0000 	movwne	r0, #40960	; 0xa000
     e04:	3a0b0b01 	bcc	2c3a10 <__bss_end__+0x2b9a78>
     e08:	010b3b0b 	tsteq	fp, fp, lsl #22
     e0c:	0b000013 	bleq	e60 <_start-0x71a0>
     e10:	0e03000d 	cdpeq	0, 0, cr0, cr3, cr13, {0}
     e14:	0b3b0b3a 	bleq	ec3b04 <__bss_end__+0xeb9b6c>
     e18:	0b381349 	bleq	e05b44 <__bss_end__+0xdfbbac>
     e1c:	0f0c0000 	svceq	0x000c0000
     e20:	000b0b00 	andeq	r0, fp, r0, lsl #22
     e24:	000f0d00 	andeq	r0, pc, r0, lsl #26
     e28:	13490b0b 	movtne	r0, #39691	; 0x9b0b
     e2c:	260e0000 	strcs	r0, [lr], -r0
     e30:	00134900 	andseq	r4, r3, r0, lsl #18
     e34:	01130f00 	tsteq	r3, r0, lsl #30
     e38:	0b0b0e03 	bleq	2c464c <__bss_end__+0x2ba6b4>
     e3c:	0b3b0b3a 	bleq	ec3b2c <__bss_end__+0xeb9b94>
     e40:	00001301 	andeq	r1, r0, r1, lsl #6
     e44:	03000d10 	movweq	r0, #3344	; 0xd10
     e48:	3b0b3a08 	blcc	2cf670 <__bss_end__+0x2c56d8>
     e4c:	3813490b 	ldmdacc	r3, {r0, r1, r3, r8, fp, lr}
     e50:	1100000b 	tstne	r0, fp
     e54:	0e030113 	mcreq	1, 0, r0, cr3, cr3, {0}
     e58:	0b3a050b 	bleq	e8228c <__bss_end__+0xe782f4>
     e5c:	13010b3b 	movwne	r0, #6971	; 0x1b3b
     e60:	0d120000 	ldceq	0, cr0, [r2, #-0]
     e64:	3a0e0300 	bcc	381a6c <__bss_end__+0x377ad4>
     e68:	490b3b0b 	stmdbmi	fp, {r0, r1, r3, r8, r9, fp, ip, sp}
     e6c:	00053813 	andeq	r3, r5, r3, lsl r8
     e70:	00151300 	andseq	r1, r5, r0, lsl #6
     e74:	00001927 	andeq	r1, r0, r7, lsr #18
     e78:	27011514 	smladcs	r1, r4, r5, r1
     e7c:	01134919 	tsteq	r3, r9, lsl r9
     e80:	15000013 	strne	r0, [r0, #-19]	; 0xffffffed
     e84:	13490005 	movtne	r0, #36869	; 0x9005
     e88:	13160000 	tstne	r6, #0
     e8c:	0b0e0301 	bleq	381a98 <__bss_end__+0x377b00>
     e90:	3b0b3a05 	blcc	2cf6ac <__bss_end__+0x2c5714>
     e94:	00130105 	andseq	r0, r3, r5, lsl #2
     e98:	000d1700 	andeq	r1, sp, r0, lsl #14
     e9c:	0b3a0e03 	bleq	e846b0 <__bss_end__+0xe7a718>
     ea0:	1349053b 	movtne	r0, #38203	; 0x953b
     ea4:	00000b38 	andeq	r0, r0, r8, lsr fp
     ea8:	03000d18 	movweq	r0, #3352	; 0xd18
     eac:	3b0b3a0e 	blcc	2cf6ec <__bss_end__+0x2c5754>
     eb0:	38134905 	ldmdacc	r3, {r0, r2, r8, fp, lr}
     eb4:	19000005 	stmdbne	r0, {r0, r2}
     eb8:	0e030113 	mcreq	1, 0, r0, cr3, cr3, {0}
     ebc:	0b3a0b0b 	bleq	e83af0 <__bss_end__+0xe79b58>
     ec0:	1301053b 	movwne	r0, #5435	; 0x153b
     ec4:	131a0000 	tstne	sl, #0
     ec8:	3a0b0b01 	bcc	2c3ad4 <__bss_end__+0x2b9b3c>
     ecc:	01053b0b 	tsteq	r5, fp, lsl #22
     ed0:	1b000013 	blne	f24 <_start-0x70dc>
     ed4:	0b0b0117 	bleq	2c1338 <__bss_end__+0x2b73a0>
     ed8:	053b0b3a 	ldreq	r0, [fp, #-2874]!	; 0xfffff4c6
     edc:	00001301 	andeq	r1, r0, r1, lsl #6
     ee0:	03000d1c 	movweq	r0, #3356	; 0xd1c
     ee4:	3b0b3a0e 	blcc	2cf724 <__bss_end__+0x2c578c>
     ee8:	00134905 	andseq	r4, r3, r5, lsl #18
     eec:	01151d00 	tsteq	r5, r0, lsl #26
     ef0:	13011927 	movwne	r1, #6439	; 0x1927
     ef4:	341e0000 	ldrcc	r0, [lr], #-0
     ef8:	3a0e0300 	bcc	381b00 <__bss_end__+0x377b68>
     efc:	49053b0b 	stmdbmi	r5, {r0, r1, r3, r8, r9, fp, ip, sp}
     f00:	3c193f13 	ldccc	15, cr3, [r9], {19}
     f04:	1f000019 	svcne	0x00000019
     f08:	0e030034 	mcreq	0, 0, r0, cr3, cr4, {1}
     f0c:	0b3b0b3a 	bleq	ec3bfc <__bss_end__+0xeb9c64>
     f10:	193f1349 	ldmdbne	pc!, {r0, r3, r6, r8, r9, ip}	; <UNPREDICTABLE>
     f14:	0000193c 	andeq	r1, r0, ip, lsr r9
     f18:	47003420 	strmi	r3, [r0, -r0, lsr #8]
     f1c:	3b0b3a13 	blcc	2cf770 <__bss_end__+0x2c57d8>
     f20:	0018020b 	andseq	r0, r8, fp, lsl #4
     f24:	012e2100 			; <UNDEFINED> instruction: 0x012e2100
     f28:	0e03193f 			; <UNDEFINED> instruction: 0x0e03193f
     f2c:	0b3b0b3a 	bleq	ec3c1c <__bss_end__+0xeb9c84>
     f30:	01111927 	tsteq	r1, r7, lsr #18
     f34:	18400612 	stmdane	r0, {r1, r4, r9, sl}^
     f38:	01194297 			; <UNDEFINED> instruction: 0x01194297
     f3c:	22000013 	andcs	r0, r0, #19
     f40:	08030005 	stmdaeq	r3, {r0, r2}
     f44:	0b3b0b3a 	bleq	ec3c34 <__bss_end__+0xeb9c9c>
     f48:	18021349 	stmdane	r2, {r0, r3, r6, r8, r9, ip}
     f4c:	2e230000 	cdpcs	0, 2, cr0, cr3, cr0, {0}
     f50:	03193f00 	tsteq	r9, #0, 30
     f54:	3b0b3a0e 	blcc	2cf794 <__bss_end__+0x2c57fc>
     f58:	1119270b 	tstne	r9, fp, lsl #14
     f5c:	40061201 	andmi	r1, r6, r1, lsl #4
     f60:	19429718 	stmdbne	r2, {r3, r4, r8, r9, sl, ip, pc}^
     f64:	2e240000 	cdpcs	0, 2, cr0, cr4, cr0, {0}
     f68:	3a0e0301 	bcc	381b74 <__bss_end__+0x377bdc>
     f6c:	270b3b0b 	strcs	r3, [fp, -fp, lsl #22]
     f70:	11134919 	tstne	r3, r9, lsl r9
     f74:	40061201 	andmi	r1, r6, r1, lsl #4
     f78:	19429718 	stmdbne	r2, {r3, r4, r8, r9, sl, ip, pc}^
     f7c:	00001301 	andeq	r1, r0, r1, lsl #6
     f80:	03000525 	movweq	r0, #1317	; 0x525
     f84:	3b0b3a08 	blcc	2cf7ac <__bss_end__+0x2c5814>
     f88:	0213490b 	andseq	r4, r3, #180224	; 0x2c000
     f8c:	26000017 			; <UNDEFINED> instruction: 0x26000017
     f90:	01018289 	smlabbeq	r1, r9, r2, r8
     f94:	13310111 	teqne	r1, #1073741828	; 0x40000004
     f98:	8a270000 	bhi	9c0fa0 <__bss_end__+0x9b7008>
     f9c:	02000182 	andeq	r0, r0, #-2147483616	; 0x80000020
     fa0:	18429118 	stmdane	r2, {r3, r4, r8, ip, pc}^
     fa4:	2e280000 	cdpcs	0, 2, cr0, cr8, cr0, {0}
     fa8:	3c193f00 	ldccc	15, cr3, [r9], {-0}
     fac:	030e6e19 	movweq	r6, #60953	; 0xee19
     fb0:	3b0b3a0e 	blcc	2cf7f0 <__bss_end__+0x2c5858>
     fb4:	0000000b 	andeq	r0, r0, fp
     fb8:	25011101 	strcs	r1, [r1, #-257]	; 0xfffffeff
     fbc:	030b130e 	movweq	r1, #45838	; 0xb30e
     fc0:	110e1b0e 	tstne	lr, lr, lsl #22
     fc4:	10061201 	andne	r1, r6, r1, lsl #4
     fc8:	02000017 	andeq	r0, r0, #23
     fcc:	0b0b0024 	bleq	2c1064 <__bss_end__+0x2b70cc>
     fd0:	08030b3e 	stmdaeq	r3, {r1, r2, r3, r4, r5, r8, r9, fp}
     fd4:	16030000 	strne	r0, [r3], -r0
     fd8:	3a0e0300 	bcc	381be0 <__bss_end__+0x377c48>
     fdc:	490b3b0b 	stmdbmi	fp, {r0, r1, r3, r8, r9, fp, ip, sp}
     fe0:	04000013 	streq	r0, [r0], #-19	; 0xffffffed
     fe4:	0b0b0024 	bleq	2c107c <__bss_end__+0x2b70e4>
     fe8:	0e030b3e 	vmoveq.16	d3[0], r0
     fec:	16050000 	strne	r0, [r5], -r0
     ff0:	3a0e0300 	bcc	381bf8 <__bss_end__+0x377c60>
     ff4:	49053b0b 	stmdbmi	r5, {r0, r1, r3, r8, r9, fp, ip, sp}
     ff8:	06000013 			; <UNDEFINED> instruction: 0x06000013
     ffc:	0b0b0117 	bleq	2c1460 <__bss_end__+0x2b74c8>
    1000:	0b3b0b3a 	bleq	ec3cf0 <__bss_end__+0xeb9d58>
    1004:	00001301 	andeq	r1, r0, r1, lsl #6
    1008:	03000d07 	movweq	r0, #3335	; 0xd07
    100c:	3b0b3a0e 	blcc	2cf84c <__bss_end__+0x2c58b4>
    1010:	0013490b 	andseq	r4, r3, fp, lsl #18
    1014:	01010800 	tsteq	r1, r0, lsl #16
    1018:	13011349 	movwne	r1, #4937	; 0x1349
    101c:	21090000 	mrscs	r0, (UNDEF: 9)
    1020:	2f134900 	svccs	0x00134900
    1024:	0a00000b 	beq	1058 <_start-0x6fa8>
    1028:	0b0b0113 	bleq	2c147c <__bss_end__+0x2b74e4>
    102c:	0b3b0b3a 	bleq	ec3d1c <__bss_end__+0xeb9d84>
    1030:	00001301 	andeq	r1, r0, r1, lsl #6
    1034:	03000d0b 	movweq	r0, #3339	; 0xd0b
    1038:	3b0b3a0e 	blcc	2cf878 <__bss_end__+0x2c58e0>
    103c:	3813490b 	ldmdacc	r3, {r0, r1, r3, r8, fp, lr}
    1040:	0c00000b 	stceq	0, cr0, [r0], {11}
    1044:	0b0b000f 	bleq	2c1088 <__bss_end__+0x2b70f0>
    1048:	0f0d0000 	svceq	0x000d0000
    104c:	490b0b00 	stmdbmi	fp, {r8, r9, fp}
    1050:	0e000013 	mcreq	0, 0, r0, cr0, cr3, {0}
    1054:	13490026 	movtne	r0, #36902	; 0x9026
    1058:	130f0000 	movwne	r0, #61440	; 0xf000
    105c:	0b0e0301 	bleq	381c68 <__bss_end__+0x377cd0>
    1060:	3b0b3a0b 	blcc	2cf894 <__bss_end__+0x2c58fc>
    1064:	0013010b 	andseq	r0, r3, fp, lsl #2
    1068:	000d1000 	andeq	r1, sp, r0
    106c:	0b3a0803 	bleq	e83080 <__bss_end__+0xe790e8>
    1070:	13490b3b 	movtne	r0, #39739	; 0x9b3b
    1074:	00000b38 	andeq	r0, r0, r8, lsr fp
    1078:	03011311 	movweq	r1, #4881	; 0x1311
    107c:	3a050b0e 	bcc	143cbc <__bss_end__+0x139d24>
    1080:	010b3b0b 	tsteq	fp, fp, lsl #22
    1084:	12000013 	andne	r0, r0, #19
    1088:	0e03000d 	cdpeq	0, 0, cr0, cr3, cr13, {0}
    108c:	0b3b0b3a 	bleq	ec3d7c <__bss_end__+0xeb9de4>
    1090:	05381349 	ldreq	r1, [r8, #-841]!	; 0xfffffcb7
    1094:	15130000 	ldrne	r0, [r3, #-0]
    1098:	00192700 	andseq	r2, r9, r0, lsl #14
    109c:	01151400 	tsteq	r5, r0, lsl #8
    10a0:	13491927 	movtne	r1, #39207	; 0x9927
    10a4:	00001301 	andeq	r1, r0, r1, lsl #6
    10a8:	49000515 	stmdbmi	r0, {r0, r2, r4, r8, sl}
    10ac:	16000013 			; <UNDEFINED> instruction: 0x16000013
    10b0:	0e030113 	mcreq	1, 0, r0, cr3, cr3, {0}
    10b4:	0b3a050b 	bleq	e824e8 <__bss_end__+0xe78550>
    10b8:	1301053b 	movwne	r0, #5435	; 0x153b
    10bc:	0d170000 	ldceq	0, cr0, [r7, #-0]
    10c0:	3a0e0300 	bcc	381cc8 <__bss_end__+0x377d30>
    10c4:	49053b0b 	stmdbmi	r5, {r0, r1, r3, r8, r9, fp, ip, sp}
    10c8:	000b3813 	andeq	r3, fp, r3, lsl r8
    10cc:	000d1800 	andeq	r1, sp, r0, lsl #16
    10d0:	0b3a0e03 	bleq	e848e4 <__bss_end__+0xe7a94c>
    10d4:	1349053b 	movtne	r0, #38203	; 0x953b
    10d8:	00000538 	andeq	r0, r0, r8, lsr r5
    10dc:	03011319 	movweq	r1, #4889	; 0x1319
    10e0:	3a0b0b0e 	bcc	2c3d20 <__bss_end__+0x2b9d88>
    10e4:	01053b0b 	tsteq	r5, fp, lsl #22
    10e8:	1a000013 	bne	113c <_start-0x6ec4>
    10ec:	0b0b0113 	bleq	2c1540 <__bss_end__+0x2b75a8>
    10f0:	053b0b3a 	ldreq	r0, [fp, #-2874]!	; 0xfffff4c6
    10f4:	00001301 	andeq	r1, r0, r1, lsl #6
    10f8:	0b01171b 	bleq	46d6c <__bss_end__+0x3cdd4>
    10fc:	3b0b3a0b 	blcc	2cf930 <__bss_end__+0x2c5998>
    1100:	00130105 	andseq	r0, r3, r5, lsl #2
    1104:	000d1c00 	andeq	r1, sp, r0, lsl #24
    1108:	0b3a0e03 	bleq	e8491c <__bss_end__+0xe7a984>
    110c:	1349053b 	movtne	r0, #38203	; 0x953b
    1110:	151d0000 	ldrne	r0, [sp, #-0]
    1114:	01192701 	tsteq	r9, r1, lsl #14
    1118:	1e000013 	mcrne	0, 0, r0, cr0, cr3, {0}
    111c:	0e030034 	mcreq	0, 0, r0, cr3, cr4, {1}
    1120:	053b0b3a 	ldreq	r0, [fp, #-2874]!	; 0xfffff4c6
    1124:	193f1349 	ldmdbne	pc!, {r0, r3, r6, r8, r9, ip}	; <UNPREDICTABLE>
    1128:	0000193c 	andeq	r1, r0, ip, lsr r9
    112c:	3f012e1f 	svccc	0x00012e1f
    1130:	3a0e0319 	bcc	381d9c <__bss_end__+0x377e04>
    1134:	270b3b0b 	strcs	r3, [fp, -fp, lsl #22]
    1138:	11134919 	tstne	r3, r9, lsl r9
    113c:	40061201 	andmi	r1, r6, r1, lsl #4
    1140:	19429718 	stmdbne	r2, {r3, r4, r8, r9, sl, ip, pc}^
    1144:	05200000 	streq	r0, [r0, #-0]!
    1148:	3a080300 	bcc	201d50 <__bss_end__+0x1f7db8>
    114c:	490b3b0b 	stmdbmi	fp, {r0, r1, r3, r8, r9, fp, ip, sp}
    1150:	00180213 	andseq	r0, r8, r3, lsl r2
    1154:	00052100 	andeq	r2, r5, r0, lsl #2
    1158:	0b3a0803 	bleq	e8316c <__bss_end__+0xe791d4>
    115c:	13490b3b 	movtne	r0, #39739	; 0x9b3b
    1160:	00001702 	andeq	r1, r0, r2, lsl #14
    1164:	03003422 	movweq	r3, #1058	; 0x422
    1168:	3b0b3a08 	blcc	2cf990 <__bss_end__+0x2c59f8>
    116c:	0213490b 	andseq	r4, r3, #180224	; 0x2c000
    1170:	23000017 	movwcs	r0, #23
    1174:	08030034 	stmdaeq	r3, {r2, r4, r5}
    1178:	0b3b0b3a 	bleq	ec3e68 <__bss_end__+0xeb9ed0>
    117c:	18021349 	stmdane	r2, {r0, r3, r6, r8, r9, ip}
    1180:	01000000 	mrseq	r0, (UNDEF: 0)
    1184:	0e250111 	mcreq	1, 1, r0, cr5, cr1, {0}
    1188:	0e030b13 	vmoveq.32	d3[0], r0
    118c:	01110e1b 	tsteq	r1, fp, lsl lr
    1190:	17100612 			; <UNDEFINED> instruction: 0x17100612
    1194:	24020000 	strcs	r0, [r2], #-0
    1198:	3e0b0b00 	vmlacc.f64	d0, d11, d0
    119c:	0008030b 	andeq	r0, r8, fp, lsl #6
    11a0:	00240300 	eoreq	r0, r4, r0, lsl #6
    11a4:	0b3e0b0b 	bleq	f83dd8 <__bss_end__+0xf79e40>
    11a8:	00000e03 	andeq	r0, r0, r3, lsl #28
    11ac:	03001604 	movweq	r1, #1540	; 0x604
    11b0:	3b0b3a0e 	blcc	2cf9f0 <__bss_end__+0x2c5a58>
    11b4:	0013490b 	andseq	r4, r3, fp, lsl #18
    11b8:	00160500 	andseq	r0, r6, r0, lsl #10
    11bc:	0b3a0e03 	bleq	e849d0 <__bss_end__+0xe7aa38>
    11c0:	1349053b 	movtne	r0, #38203	; 0x953b
    11c4:	17060000 	strne	r0, [r6, -r0]
    11c8:	3a0b0b01 	bcc	2c3dd4 <__bss_end__+0x2b9e3c>
    11cc:	010b3b0b 	tsteq	fp, fp, lsl #22
    11d0:	07000013 	smladeq	r0, r3, r0, r0
    11d4:	0e03000d 	cdpeq	0, 0, cr0, cr3, cr13, {0}
    11d8:	0b3b0b3a 	bleq	ec3ec8 <__bss_end__+0xeb9f30>
    11dc:	00001349 	andeq	r1, r0, r9, asr #6
    11e0:	49010108 	stmdbmi	r1, {r3, r8}
    11e4:	00130113 	andseq	r0, r3, r3, lsl r1
    11e8:	00210900 	eoreq	r0, r1, r0, lsl #18
    11ec:	0b2f1349 	bleq	bc5f18 <__bss_end__+0xbbbf80>
    11f0:	130a0000 	movwne	r0, #40960	; 0xa000
    11f4:	3a0b0b01 	bcc	2c3e00 <__bss_end__+0x2b9e68>
    11f8:	010b3b0b 	tsteq	fp, fp, lsl #22
    11fc:	0b000013 	bleq	1250 <_start-0x6db0>
    1200:	0e03000d 	cdpeq	0, 0, cr0, cr3, cr13, {0}
    1204:	0b3b0b3a 	bleq	ec3ef4 <__bss_end__+0xeb9f5c>
    1208:	0b381349 	bleq	e05f34 <__bss_end__+0xdfbf9c>
    120c:	0f0c0000 	svceq	0x000c0000
    1210:	000b0b00 	andeq	r0, fp, r0, lsl #22
    1214:	000f0d00 	andeq	r0, pc, r0, lsl #26
    1218:	13490b0b 	movtne	r0, #39691	; 0x9b0b
    121c:	260e0000 	strcs	r0, [lr], -r0
    1220:	00134900 	andseq	r4, r3, r0, lsl #18
    1224:	01130f00 	tsteq	r3, r0, lsl #30
    1228:	0b0b0e03 	bleq	2c4a3c <__bss_end__+0x2baaa4>
    122c:	0b3b0b3a 	bleq	ec3f1c <__bss_end__+0xeb9f84>
    1230:	00001301 	andeq	r1, r0, r1, lsl #6
    1234:	03000d10 	movweq	r0, #3344	; 0xd10
    1238:	3b0b3a08 	blcc	2cfa60 <__bss_end__+0x2c5ac8>
    123c:	3813490b 	ldmdacc	r3, {r0, r1, r3, r8, fp, lr}
    1240:	1100000b 	tstne	r0, fp
    1244:	0e030113 	mcreq	1, 0, r0, cr3, cr3, {0}
    1248:	0b3a050b 	bleq	e8267c <__bss_end__+0xe786e4>
    124c:	13010b3b 	movwne	r0, #6971	; 0x1b3b
    1250:	0d120000 	ldceq	0, cr0, [r2, #-0]
    1254:	3a0e0300 	bcc	381e5c <__bss_end__+0x377ec4>
    1258:	490b3b0b 	stmdbmi	fp, {r0, r1, r3, r8, r9, fp, ip, sp}
    125c:	00053813 	andeq	r3, r5, r3, lsl r8
    1260:	00151300 	andseq	r1, r5, r0, lsl #6
    1264:	00001927 	andeq	r1, r0, r7, lsr #18
    1268:	27011514 	smladcs	r1, r4, r5, r1
    126c:	01134919 	tsteq	r3, r9, lsl r9
    1270:	15000013 	strne	r0, [r0, #-19]	; 0xffffffed
    1274:	13490005 	movtne	r0, #36869	; 0x9005
    1278:	13160000 	tstne	r6, #0
    127c:	0b0e0301 	bleq	381e88 <__bss_end__+0x377ef0>
    1280:	3b0b3a05 	blcc	2cfa9c <__bss_end__+0x2c5b04>
    1284:	00130105 	andseq	r0, r3, r5, lsl #2
    1288:	000d1700 	andeq	r1, sp, r0, lsl #14
    128c:	0b3a0e03 	bleq	e84aa0 <__bss_end__+0xe7ab08>
    1290:	1349053b 	movtne	r0, #38203	; 0x953b
    1294:	00000b38 	andeq	r0, r0, r8, lsr fp
    1298:	03000d18 	movweq	r0, #3352	; 0xd18
    129c:	3b0b3a0e 	blcc	2cfadc <__bss_end__+0x2c5b44>
    12a0:	38134905 	ldmdacc	r3, {r0, r2, r8, fp, lr}
    12a4:	19000005 	stmdbne	r0, {r0, r2}
    12a8:	0e030113 	mcreq	1, 0, r0, cr3, cr3, {0}
    12ac:	0b3a0b0b 	bleq	e83ee0 <__bss_end__+0xe79f48>
    12b0:	1301053b 	movwne	r0, #5435	; 0x153b
    12b4:	131a0000 	tstne	sl, #0
    12b8:	3a0b0b01 	bcc	2c3ec4 <__bss_end__+0x2b9f2c>
    12bc:	01053b0b 	tsteq	r5, fp, lsl #22
    12c0:	1b000013 	blne	1314 <_start-0x6cec>
    12c4:	0b0b0117 	bleq	2c1728 <__bss_end__+0x2b7790>
    12c8:	053b0b3a 	ldreq	r0, [fp, #-2874]!	; 0xfffff4c6
    12cc:	00001301 	andeq	r1, r0, r1, lsl #6
    12d0:	03000d1c 	movweq	r0, #3356	; 0xd1c
    12d4:	3b0b3a0e 	blcc	2cfb14 <__bss_end__+0x2c5b7c>
    12d8:	00134905 	andseq	r4, r3, r5, lsl #18
    12dc:	01151d00 	tsteq	r5, r0, lsl #26
    12e0:	13011927 	movwne	r1, #6439	; 0x1927
    12e4:	341e0000 	ldrcc	r0, [lr], #-0
    12e8:	3a0e0300 	bcc	381ef0 <__bss_end__+0x377f58>
    12ec:	49053b0b 	stmdbmi	r5, {r0, r1, r3, r8, r9, fp, ip, sp}
    12f0:	3c193f13 	ldccc	15, cr3, [r9], {19}
    12f4:	1f000019 	svcne	0x00000019
    12f8:	0e030034 	mcreq	0, 0, r0, cr3, cr4, {1}
    12fc:	0b3b0b3a 	bleq	ec3fec <__bss_end__+0xeba054>
    1300:	193f1349 	ldmdbne	pc!, {r0, r3, r6, r8, r9, ip}	; <UNPREDICTABLE>
    1304:	0000193c 	andeq	r1, r0, ip, lsr r9
    1308:	3f012e20 	svccc	0x00012e20
    130c:	3a0e0319 	bcc	381f78 <__bss_end__+0x377fe0>
    1310:	110b3b0b 	tstne	fp, fp, lsl #22
    1314:	40061201 	andmi	r1, r6, r1, lsl #4
    1318:	19429718 	stmdbne	r2, {r3, r4, r8, r9, sl, ip, pc}^
    131c:	00001301 	andeq	r1, r0, r1, lsl #6
    1320:	3f002e21 	svccc	0x00002e21
    1324:	3a0e0319 	bcc	381f90 <__bss_end__+0x377ff8>
    1328:	270b3b0b 	strcs	r3, [fp, -fp, lsl #22]
    132c:	00193c19 	andseq	r3, r9, r9, lsl ip
    1330:	00342200 	eorseq	r2, r4, r0, lsl #4
    1334:	0b3a0803 	bleq	e83348 <__bss_end__+0xe793b0>
    1338:	13490b3b 	movtne	r0, #39739	; 0x9b3b
    133c:	00001702 	andeq	r1, r0, r2, lsl #14
    1340:	03003423 	movweq	r3, #1059	; 0x423
    1344:	3b0b3a0e 	blcc	2cfb84 <__bss_end__+0x2c5bec>
    1348:	0013490b 	andseq	r4, r3, fp, lsl #18
    134c:	82892400 	addhi	r2, r9, #0, 8
    1350:	01110001 	tsteq	r1, r1
    1354:	00001331 	andeq	r1, r0, r1, lsr r3
    1358:	3f002e25 	svccc	0x00002e25
    135c:	6e193c19 	mrcvs	12, 0, r3, cr9, cr9, {0}
    1360:	3a0e030e 	bcc	381fa0 <__bss_end__+0x378008>
    1364:	000b3b0b 	andeq	r3, fp, fp, lsl #22
    1368:	11010000 	mrsne	r0, (UNDEF: 1)
    136c:	130e2501 	movwne	r2, #58625	; 0xe501
    1370:	1b0e030b 	blne	381fa4 <__bss_end__+0x37800c>
    1374:	1117550e 	tstne	r7, lr, lsl #10
    1378:	00171001 	andseq	r1, r7, r1
    137c:	00240200 	eoreq	r0, r4, r0, lsl #4
    1380:	0b3e0b0b 	bleq	f83fb4 <__bss_end__+0xf7a01c>
    1384:	00000803 	andeq	r0, r0, r3, lsl #16
    1388:	49002603 	stmdbmi	r0, {r0, r1, r9, sl, sp}
    138c:	04000013 	streq	r0, [r0], #-19	; 0xffffffed
    1390:	0b0b0024 	bleq	2c1428 <__bss_end__+0x2b7490>
    1394:	0e030b3e 	vmoveq.16	d3[0], r0
    1398:	16050000 	strne	r0, [r5], -r0
    139c:	3a0e0300 	bcc	381fa4 <__bss_end__+0x37800c>
    13a0:	490b3b0b 	stmdbmi	fp, {r0, r1, r3, r8, r9, fp, ip, sp}
    13a4:	06000013 			; <UNDEFINED> instruction: 0x06000013
    13a8:	0e030016 	mcreq	0, 0, r0, cr3, cr6, {0}
    13ac:	053b0b3a 	ldreq	r0, [fp, #-2874]!	; 0xfffff4c6
    13b0:	00001349 	andeq	r1, r0, r9, asr #6
    13b4:	0b011707 	bleq	46fd8 <__bss_end__+0x3d040>
    13b8:	3b0b3a0b 	blcc	2cfbec <__bss_end__+0x2c5c54>
    13bc:	0013010b 	andseq	r0, r3, fp, lsl #2
    13c0:	000d0800 	andeq	r0, sp, r0, lsl #16
    13c4:	0b3a0e03 	bleq	e84bd8 <__bss_end__+0xe7ac40>
    13c8:	13490b3b 	movtne	r0, #39739	; 0x9b3b
    13cc:	01090000 	mrseq	r0, (UNDEF: 9)
    13d0:	01134901 	tsteq	r3, r1, lsl #18
    13d4:	0a000013 	beq	1428 <_start-0x6bd8>
    13d8:	13490021 	movtne	r0, #36897	; 0x9021
    13dc:	00000b2f 	andeq	r0, r0, pc, lsr #22
    13e0:	0b01130b 	bleq	46014 <__bss_end__+0x3c07c>
    13e4:	3b0b3a0b 	blcc	2cfc18 <__bss_end__+0x2c5c80>
    13e8:	0013010b 	andseq	r0, r3, fp, lsl #2
    13ec:	000d0c00 	andeq	r0, sp, r0, lsl #24
    13f0:	0b3a0e03 	bleq	e84c04 <__bss_end__+0xe7ac6c>
    13f4:	13490b3b 	movtne	r0, #39739	; 0x9b3b
    13f8:	00000b38 	andeq	r0, r0, r8, lsr fp
    13fc:	0b000f0d 	bleq	5038 <_start-0x2fc8>
    1400:	0e00000b 	cdpeq	0, 0, cr0, cr0, cr11, {0}
    1404:	0b0b000f 	bleq	2c1448 <__bss_end__+0x2b74b0>
    1408:	00001349 	andeq	r1, r0, r9, asr #6
    140c:	0301130f 	movweq	r1, #4879	; 0x130f
    1410:	3a0b0b0e 	bcc	2c4050 <__bss_end__+0x2ba0b8>
    1414:	010b3b0b 	tsteq	fp, fp, lsl #22
    1418:	10000013 	andne	r0, r0, r3, lsl r0
    141c:	0803000d 	stmdaeq	r3, {r0, r2, r3}
    1420:	0b3b0b3a 	bleq	ec4110 <__bss_end__+0xeba178>
    1424:	0b381349 	bleq	e06150 <__bss_end__+0xdfc1b8>
    1428:	13110000 	tstne	r1, #0
    142c:	0b0e0301 	bleq	382038 <__bss_end__+0x3780a0>
    1430:	3b0b3a05 	blcc	2cfc4c <__bss_end__+0x2c5cb4>
    1434:	0013010b 	andseq	r0, r3, fp, lsl #2
    1438:	000d1200 	andeq	r1, sp, r0, lsl #4
    143c:	0b3a0e03 	bleq	e84c50 <__bss_end__+0xe7acb8>
    1440:	13490b3b 	movtne	r0, #39739	; 0x9b3b
    1444:	00000538 	andeq	r0, r0, r8, lsr r5
    1448:	27001513 	smladcs	r0, r3, r5, r1
    144c:	14000019 	strne	r0, [r0], #-25	; 0xffffffe7
    1450:	19270115 	stmdbne	r7!, {r0, r2, r4, r8}
    1454:	13011349 	movwne	r1, #4937	; 0x1349
    1458:	05150000 	ldreq	r0, [r5, #-0]
    145c:	00134900 	andseq	r4, r3, r0, lsl #18
    1460:	01131600 	tsteq	r3, r0, lsl #12
    1464:	050b0e03 	streq	r0, [fp, #-3587]	; 0xfffff1fd
    1468:	053b0b3a 	ldreq	r0, [fp, #-2874]!	; 0xfffff4c6
    146c:	00001301 	andeq	r1, r0, r1, lsl #6
    1470:	03000d17 	movweq	r0, #3351	; 0xd17
    1474:	3b0b3a0e 	blcc	2cfcb4 <__bss_end__+0x2c5d1c>
    1478:	38134905 	ldmdacc	r3, {r0, r2, r8, fp, lr}
    147c:	1800000b 	stmdane	r0, {r0, r1, r3}
    1480:	0e03000d 	cdpeq	0, 0, cr0, cr3, cr13, {0}
    1484:	053b0b3a 	ldreq	r0, [fp, #-2874]!	; 0xfffff4c6
    1488:	05381349 	ldreq	r1, [r8, #-841]!	; 0xfffffcb7
    148c:	13190000 	tstne	r9, #0
    1490:	0b0e0301 	bleq	38209c <__bss_end__+0x378104>
    1494:	3b0b3a0b 	blcc	2cfcc8 <__bss_end__+0x2c5d30>
    1498:	00130105 	andseq	r0, r3, r5, lsl #2
    149c:	01131a00 	tsteq	r3, r0, lsl #20
    14a0:	0b3a0b0b 	bleq	e840d4 <__bss_end__+0xe7a13c>
    14a4:	1301053b 	movwne	r0, #5435	; 0x153b
    14a8:	171b0000 	ldrne	r0, [fp, -r0]
    14ac:	3a0b0b01 	bcc	2c40b8 <__bss_end__+0x2ba120>
    14b0:	01053b0b 	tsteq	r5, fp, lsl #22
    14b4:	1c000013 	stcne	0, cr0, [r0], {19}
    14b8:	0e03000d 	cdpeq	0, 0, cr0, cr3, cr13, {0}
    14bc:	053b0b3a 	ldreq	r0, [fp, #-2874]!	; 0xfffff4c6
    14c0:	00001349 	andeq	r1, r0, r9, asr #6
    14c4:	2701151d 	smladcs	r1, sp, r5, r1
    14c8:	00130119 	andseq	r0, r3, r9, lsl r1
    14cc:	00341e00 	eorseq	r1, r4, r0, lsl #28
    14d0:	0b3a0e03 	bleq	e84ce4 <__bss_end__+0xe7ad4c>
    14d4:	1349053b 	movtne	r0, #38203	; 0x953b
    14d8:	193c193f 	ldmdbne	ip!, {r0, r1, r2, r3, r4, r5, r8, fp, ip}
    14dc:	341f0000 	ldrcc	r0, [pc], #-0	; 14e4 <_start-0x6b1c>
    14e0:	3a0e0300 	bcc	3820e8 <__bss_end__+0x378150>
    14e4:	490b3b0b 	stmdbmi	fp, {r0, r1, r3, r8, r9, fp, ip, sp}
    14e8:	3c193f13 	ldccc	15, cr3, [r9], {19}
    14ec:	20000019 	andcs	r0, r0, r9, lsl r0
    14f0:	0e030034 	mcreq	0, 0, r0, cr3, cr4, {1}
    14f4:	0b3b0b3a 	bleq	ec41e4 <__bss_end__+0xeba24c>
    14f8:	00001349 	andeq	r1, r0, r9, asr #6
    14fc:	3f012e21 	svccc	0x00012e21
    1500:	3a0e0319 	bcc	38216c <__bss_end__+0x3781d4>
    1504:	270b3b0b 	strcs	r3, [fp, -fp, lsl #22]
    1508:	19018719 	stmdbne	r1, {r0, r3, r4, r8, r9, sl, pc}
    150c:	06120111 			; <UNDEFINED> instruction: 0x06120111
    1510:	42971840 	addsmi	r1, r7, #64, 16	; 0x400000
    1514:	00130119 	andseq	r0, r3, r9, lsl r1
    1518:	00342200 	eorseq	r2, r4, r0, lsl #4
    151c:	0b3a0e03 	bleq	e84d30 <__bss_end__+0xe7ad98>
    1520:	13490b3b 	movtne	r0, #39739	; 0x9b3b
    1524:	00001702 	andeq	r1, r0, r2, lsl #14
    1528:	01828923 	orreq	r8, r2, r3, lsr #18
    152c:	31011100 	mrscc	r1, (UNDEF: 17)
    1530:	24000013 	strcs	r0, [r0], #-19	; 0xffffffed
    1534:	01018289 	smlabbeq	r1, r9, r2, r8
    1538:	13310111 	teqne	r1, #1073741828	; 0x40000004
    153c:	00001301 	andeq	r1, r0, r1, lsl #6
    1540:	01828a25 	orreq	r8, r2, r5, lsr #20
    1544:	91180200 	tstls	r8, r0, lsl #4
    1548:	00001842 	andeq	r1, r0, r2, asr #16
    154c:	3f012e26 	svccc	0x00012e26
    1550:	3a0e0319 	bcc	3821bc <__bss_end__+0x378224>
    1554:	270b3b0b 	strcs	r3, [fp, -fp, lsl #22]
    1558:	12011119 	andne	r1, r1, #1073741830	; 0x40000006
    155c:	97184006 	ldrls	r4, [r8, -r6]
    1560:	13011942 	movwne	r1, #6466	; 0x1942
    1564:	2e270000 	cdpcs	0, 2, cr0, cr7, cr0, {0}
    1568:	03193f01 	tsteq	r9, #1, 30
    156c:	3b0b3a0e 	blcc	2cfdac <__bss_end__+0x2c5e14>
    1570:	4919270b 	ldmdbmi	r9, {r0, r1, r3, r8, r9, sl, sp}
    1574:	12011113 	andne	r1, r1, #-1073741820	; 0xc0000004
    1578:	97184006 	ldrls	r4, [r8, -r6]
    157c:	13011942 	movwne	r1, #6466	; 0x1942
    1580:	2e280000 	cdpcs	0, 2, cr0, cr8, cr0, {0}
    1584:	3c193f00 	ldccc	15, cr3, [r9], {-0}
    1588:	030e6e19 	movweq	r6, #60953	; 0xee19
    158c:	3b0b3a0e 	blcc	2cfdcc <__bss_end__+0x2c5e34>
    1590:	0000000b 	andeq	r0, r0, fp
    1594:	25011101 	strcs	r1, [r1, #-257]	; 0xfffffeff
    1598:	030b130e 	movweq	r1, #45838	; 0xb30e
    159c:	110e1b0e 	tstne	lr, lr, lsl #22
    15a0:	10061201 	andne	r1, r6, r1, lsl #4
    15a4:	02000017 	andeq	r0, r0, #23
    15a8:	0b0b0024 	bleq	2c1640 <__bss_end__+0x2b76a8>
    15ac:	08030b3e 	stmdaeq	r3, {r1, r2, r3, r4, r5, r8, r9, fp}
    15b0:	24030000 	strcs	r0, [r3], #-0
    15b4:	3e0b0b00 	vmlacc.f64	d0, d11, d0
    15b8:	000e030b 	andeq	r0, lr, fp, lsl #6
    15bc:	00160400 	andseq	r0, r6, r0, lsl #8
    15c0:	0b3a0e03 	bleq	e84dd4 <__bss_end__+0xe7ae3c>
    15c4:	13490b3b 	movtne	r0, #39739	; 0x9b3b
    15c8:	16050000 	strne	r0, [r5], -r0
    15cc:	3a0e0300 	bcc	3821d4 <__bss_end__+0x37823c>
    15d0:	49053b0b 	stmdbmi	r5, {r0, r1, r3, r8, r9, fp, ip, sp}
    15d4:	06000013 			; <UNDEFINED> instruction: 0x06000013
    15d8:	0b0b0117 	bleq	2c1a3c <__bss_end__+0x2b7aa4>
    15dc:	0b3b0b3a 	bleq	ec42cc <__bss_end__+0xeba334>
    15e0:	00001301 	andeq	r1, r0, r1, lsl #6
    15e4:	03000d07 	movweq	r0, #3335	; 0xd07
    15e8:	3b0b3a0e 	blcc	2cfe28 <__bss_end__+0x2c5e90>
    15ec:	0013490b 	andseq	r4, r3, fp, lsl #18
    15f0:	01010800 	tsteq	r1, r0, lsl #16
    15f4:	13011349 	movwne	r1, #4937	; 0x1349
    15f8:	21090000 	mrscs	r0, (UNDEF: 9)
    15fc:	2f134900 	svccs	0x00134900
    1600:	0a00000b 	beq	1634 <_start-0x69cc>
    1604:	0b0b0113 	bleq	2c1a58 <__bss_end__+0x2b7ac0>
    1608:	0b3b0b3a 	bleq	ec42f8 <__bss_end__+0xeba360>
    160c:	00001301 	andeq	r1, r0, r1, lsl #6
    1610:	03000d0b 	movweq	r0, #3339	; 0xd0b
    1614:	3b0b3a0e 	blcc	2cfe54 <__bss_end__+0x2c5ebc>
    1618:	3813490b 	ldmdacc	r3, {r0, r1, r3, r8, fp, lr}
    161c:	0c00000b 	stceq	0, cr0, [r0], {11}
    1620:	0b0b000f 	bleq	2c1664 <__bss_end__+0x2b76cc>
    1624:	0f0d0000 	svceq	0x000d0000
    1628:	490b0b00 	stmdbmi	fp, {r8, r9, fp}
    162c:	0e000013 	mcreq	0, 0, r0, cr0, cr3, {0}
    1630:	13490026 	movtne	r0, #36902	; 0x9026
    1634:	130f0000 	movwne	r0, #61440	; 0xf000
    1638:	0b0e0301 	bleq	382244 <__bss_end__+0x3782ac>
    163c:	3b0b3a0b 	blcc	2cfe70 <__bss_end__+0x2c5ed8>
    1640:	0013010b 	andseq	r0, r3, fp, lsl #2
    1644:	000d1000 	andeq	r1, sp, r0
    1648:	0b3a0803 	bleq	e8365c <__bss_end__+0xe796c4>
    164c:	13490b3b 	movtne	r0, #39739	; 0x9b3b
    1650:	00000b38 	andeq	r0, r0, r8, lsr fp
    1654:	03011311 	movweq	r1, #4881	; 0x1311
    1658:	3a050b0e 	bcc	144298 <__bss_end__+0x13a300>
    165c:	010b3b0b 	tsteq	fp, fp, lsl #22
    1660:	12000013 	andne	r0, r0, #19
    1664:	0e03000d 	cdpeq	0, 0, cr0, cr3, cr13, {0}
    1668:	0b3b0b3a 	bleq	ec4358 <__bss_end__+0xeba3c0>
    166c:	05381349 	ldreq	r1, [r8, #-841]!	; 0xfffffcb7
    1670:	15130000 	ldrne	r0, [r3, #-0]
    1674:	00192700 	andseq	r2, r9, r0, lsl #14
    1678:	01151400 	tsteq	r5, r0, lsl #8
    167c:	13491927 	movtne	r1, #39207	; 0x9927
    1680:	00001301 	andeq	r1, r0, r1, lsl #6
    1684:	49000515 	stmdbmi	r0, {r0, r2, r4, r8, sl}
    1688:	16000013 			; <UNDEFINED> instruction: 0x16000013
    168c:	0e030113 	mcreq	1, 0, r0, cr3, cr3, {0}
    1690:	0b3a050b 	bleq	e82ac4 <__bss_end__+0xe78b2c>
    1694:	1301053b 	movwne	r0, #5435	; 0x153b
    1698:	0d170000 	ldceq	0, cr0, [r7, #-0]
    169c:	3a0e0300 	bcc	3822a4 <__bss_end__+0x37830c>
    16a0:	49053b0b 	stmdbmi	r5, {r0, r1, r3, r8, r9, fp, ip, sp}
    16a4:	000b3813 	andeq	r3, fp, r3, lsl r8
    16a8:	000d1800 	andeq	r1, sp, r0, lsl #16
    16ac:	0b3a0e03 	bleq	e84ec0 <__bss_end__+0xe7af28>
    16b0:	1349053b 	movtne	r0, #38203	; 0x953b
    16b4:	00000538 	andeq	r0, r0, r8, lsr r5
    16b8:	03011319 	movweq	r1, #4889	; 0x1319
    16bc:	3a0b0b0e 	bcc	2c42fc <__bss_end__+0x2ba364>
    16c0:	01053b0b 	tsteq	r5, fp, lsl #22
    16c4:	1a000013 	bne	1718 <_start-0x68e8>
    16c8:	0b0b0113 	bleq	2c1b1c <__bss_end__+0x2b7b84>
    16cc:	053b0b3a 	ldreq	r0, [fp, #-2874]!	; 0xfffff4c6
    16d0:	00001301 	andeq	r1, r0, r1, lsl #6
    16d4:	0b01171b 	bleq	47348 <__bss_end__+0x3d3b0>
    16d8:	3b0b3a0b 	blcc	2cff0c <__bss_end__+0x2c5f74>
    16dc:	00130105 	andseq	r0, r3, r5, lsl #2
    16e0:	000d1c00 	andeq	r1, sp, r0, lsl #24
    16e4:	0b3a0e03 	bleq	e84ef8 <__bss_end__+0xe7af60>
    16e8:	1349053b 	movtne	r0, #38203	; 0x953b
    16ec:	151d0000 	ldrne	r0, [sp, #-0]
    16f0:	01192701 	tsteq	r9, r1, lsl #14
    16f4:	1e000013 	mcrne	0, 0, r0, cr0, cr3, {0}
    16f8:	0e030034 	mcreq	0, 0, r0, cr3, cr4, {1}
    16fc:	053b0b3a 	ldreq	r0, [fp, #-2874]!	; 0xfffff4c6
    1700:	193f1349 	ldmdbne	pc!, {r0, r3, r6, r8, r9, ip}	; <UNPREDICTABLE>
    1704:	0000193c 	andeq	r1, r0, ip, lsr r9
    1708:	0300341f 	movweq	r3, #1055	; 0x41f
    170c:	3b0b3a0e 	blcc	2cff4c <__bss_end__+0x2c5fb4>
    1710:	3f13490b 	svccc	0x0013490b
    1714:	00193c19 	andseq	r3, r9, r9, lsl ip
    1718:	012e2000 			; <UNDEFINED> instruction: 0x012e2000
    171c:	0e03193f 			; <UNDEFINED> instruction: 0x0e03193f
    1720:	0b3b0b3a 	bleq	ec4410 <__bss_end__+0xeba478>
    1724:	01871927 	orreq	r1, r7, r7, lsr #18
    1728:	12011119 	andne	r1, r1, #1073741830	; 0x40000006
    172c:	97184006 	ldrls	r4, [r8, -r6]
    1730:	13011942 	movwne	r1, #6466	; 0x1942
    1734:	89210000 	stmdbhi	r1!, {}	; <UNPREDICTABLE>
    1738:	11010182 	smlabbne	r1, r2, r1, r0
    173c:	00130101 	andseq	r0, r3, r1, lsl #2
    1740:	828a2200 	addhi	r2, sl, #0, 4
    1744:	18020001 	stmdane	r2, {r0}
    1748:	00184291 	mulseq	r8, r1, r2
    174c:	82892300 	addhi	r2, r9, #0, 6
    1750:	01110101 	tsteq	r1, r1, lsl #2
    1754:	13011331 	movwne	r1, #4913	; 0x1331
    1758:	89240000 	stmdbhi	r4!, {}	; <UNPREDICTABLE>
    175c:	11000182 	smlabbne	r0, r2, r1, r0
    1760:	00133101 	andseq	r3, r3, r1, lsl #2
    1764:	002e2500 	eoreq	r2, lr, r0, lsl #10
    1768:	193c193f 	ldmdbne	ip!, {r0, r1, r2, r3, r4, r5, r8, fp, ip}
    176c:	0e030e6e 	cdpeq	14, 0, cr0, cr3, cr14, {3}
    1770:	0b3b0b3a 	bleq	ec4460 <__bss_end__+0xeba4c8>
    1774:	01000000 	mrseq	r0, (UNDEF: 0)
    1778:	0e250111 	mcreq	1, 1, r0, cr5, cr1, {0}
    177c:	0e030b13 	vmoveq.32	d3[0], r0
    1780:	01110e1b 	tsteq	r1, fp, lsl lr
    1784:	17100612 			; <UNDEFINED> instruction: 0x17100612
    1788:	24020000 	strcs	r0, [r2], #-0
    178c:	3e0b0b00 	vmlacc.f64	d0, d11, d0
    1790:	0008030b 	andeq	r0, r8, fp, lsl #6
    1794:	00240300 	eoreq	r0, r4, r0, lsl #6
    1798:	0b3e0b0b 	bleq	f843cc <__bss_end__+0xf7a434>
    179c:	00000e03 	andeq	r0, r0, r3, lsl #28
    17a0:	03001604 	movweq	r1, #1540	; 0x604
    17a4:	3b0b3a0e 	blcc	2cffe4 <__bss_end__+0x2c604c>
    17a8:	0013490b 	andseq	r4, r3, fp, lsl #18
    17ac:	00160500 	andseq	r0, r6, r0, lsl #10
    17b0:	0b3a0e03 	bleq	e84fc4 <__bss_end__+0xe7b02c>
    17b4:	1349053b 	movtne	r0, #38203	; 0x953b
    17b8:	17060000 	strne	r0, [r6, -r0]
    17bc:	3a0b0b01 	bcc	2c43c8 <__bss_end__+0x2ba430>
    17c0:	010b3b0b 	tsteq	fp, fp, lsl #22
    17c4:	07000013 	smladeq	r0, r3, r0, r0
    17c8:	0e03000d 	cdpeq	0, 0, cr0, cr3, cr13, {0}
    17cc:	0b3b0b3a 	bleq	ec44bc <__bss_end__+0xeba524>
    17d0:	00001349 	andeq	r1, r0, r9, asr #6
    17d4:	49010108 	stmdbmi	r1, {r3, r8}
    17d8:	00130113 	andseq	r0, r3, r3, lsl r1
    17dc:	00210900 	eoreq	r0, r1, r0, lsl #18
    17e0:	0b2f1349 	bleq	bc650c <__bss_end__+0xbbc574>
    17e4:	130a0000 	movwne	r0, #40960	; 0xa000
    17e8:	3a0b0b01 	bcc	2c43f4 <__bss_end__+0x2ba45c>
    17ec:	010b3b0b 	tsteq	fp, fp, lsl #22
    17f0:	0b000013 	bleq	1844 <_start-0x67bc>
    17f4:	0e03000d 	cdpeq	0, 0, cr0, cr3, cr13, {0}
    17f8:	0b3b0b3a 	bleq	ec44e8 <__bss_end__+0xeba550>
    17fc:	0b381349 	bleq	e06528 <__bss_end__+0xdfc590>
    1800:	0f0c0000 	svceq	0x000c0000
    1804:	000b0b00 	andeq	r0, fp, r0, lsl #22
    1808:	000f0d00 	andeq	r0, pc, r0, lsl #26
    180c:	13490b0b 	movtne	r0, #39691	; 0x9b0b
    1810:	260e0000 	strcs	r0, [lr], -r0
    1814:	00134900 	andseq	r4, r3, r0, lsl #18
    1818:	01130f00 	tsteq	r3, r0, lsl #30
    181c:	0b0b0e03 	bleq	2c5030 <__bss_end__+0x2bb098>
    1820:	0b3b0b3a 	bleq	ec4510 <__bss_end__+0xeba578>
    1824:	00001301 	andeq	r1, r0, r1, lsl #6
    1828:	03000d10 	movweq	r0, #3344	; 0xd10
    182c:	3b0b3a08 	blcc	2d0054 <__bss_end__+0x2c60bc>
    1830:	3813490b 	ldmdacc	r3, {r0, r1, r3, r8, fp, lr}
    1834:	1100000b 	tstne	r0, fp
    1838:	0e030113 	mcreq	1, 0, r0, cr3, cr3, {0}
    183c:	0b3a050b 	bleq	e82c70 <__bss_end__+0xe78cd8>
    1840:	13010b3b 	movwne	r0, #6971	; 0x1b3b
    1844:	0d120000 	ldceq	0, cr0, [r2, #-0]
    1848:	3a0e0300 	bcc	382450 <__bss_end__+0x3784b8>
    184c:	490b3b0b 	stmdbmi	fp, {r0, r1, r3, r8, r9, fp, ip, sp}
    1850:	00053813 	andeq	r3, r5, r3, lsl r8
    1854:	00151300 	andseq	r1, r5, r0, lsl #6
    1858:	00001927 	andeq	r1, r0, r7, lsr #18
    185c:	27011514 	smladcs	r1, r4, r5, r1
    1860:	01134919 	tsteq	r3, r9, lsl r9
    1864:	15000013 	strne	r0, [r0, #-19]	; 0xffffffed
    1868:	13490005 	movtne	r0, #36869	; 0x9005
    186c:	13160000 	tstne	r6, #0
    1870:	0b0e0301 	bleq	38247c <__bss_end__+0x3784e4>
    1874:	3b0b3a05 	blcc	2d0090 <__bss_end__+0x2c60f8>
    1878:	00130105 	andseq	r0, r3, r5, lsl #2
    187c:	000d1700 	andeq	r1, sp, r0, lsl #14
    1880:	0b3a0e03 	bleq	e85094 <__bss_end__+0xe7b0fc>
    1884:	1349053b 	movtne	r0, #38203	; 0x953b
    1888:	00000b38 	andeq	r0, r0, r8, lsr fp
    188c:	03000d18 	movweq	r0, #3352	; 0xd18
    1890:	3b0b3a0e 	blcc	2d00d0 <__bss_end__+0x2c6138>
    1894:	38134905 	ldmdacc	r3, {r0, r2, r8, fp, lr}
    1898:	19000005 	stmdbne	r0, {r0, r2}
    189c:	0e030113 	mcreq	1, 0, r0, cr3, cr3, {0}
    18a0:	0b3a0b0b 	bleq	e844d4 <__bss_end__+0xe7a53c>
    18a4:	1301053b 	movwne	r0, #5435	; 0x153b
    18a8:	131a0000 	tstne	sl, #0
    18ac:	3a0b0b01 	bcc	2c44b8 <__bss_end__+0x2ba520>
    18b0:	01053b0b 	tsteq	r5, fp, lsl #22
    18b4:	1b000013 	blne	1908 <_start-0x66f8>
    18b8:	0b0b0117 	bleq	2c1d1c <__bss_end__+0x2b7d84>
    18bc:	053b0b3a 	ldreq	r0, [fp, #-2874]!	; 0xfffff4c6
    18c0:	00001301 	andeq	r1, r0, r1, lsl #6
    18c4:	03000d1c 	movweq	r0, #3356	; 0xd1c
    18c8:	3b0b3a0e 	blcc	2d0108 <__bss_end__+0x2c6170>
    18cc:	00134905 	andseq	r4, r3, r5, lsl #18
    18d0:	01151d00 	tsteq	r5, r0, lsl #26
    18d4:	13011927 	movwne	r1, #6439	; 0x1927
    18d8:	341e0000 	ldrcc	r0, [lr], #-0
    18dc:	3a0e0300 	bcc	3824e4 <__bss_end__+0x37854c>
    18e0:	49053b0b 	stmdbmi	r5, {r0, r1, r3, r8, r9, fp, ip, sp}
    18e4:	3c193f13 	ldccc	15, cr3, [r9], {19}
    18e8:	1f000019 	svcne	0x00000019
    18ec:	0e030034 	mcreq	0, 0, r0, cr3, cr4, {1}
    18f0:	0b3b0b3a 	bleq	ec45e0 <__bss_end__+0xeba648>
    18f4:	193f1349 	ldmdbne	pc!, {r0, r3, r6, r8, r9, ip}	; <UNPREDICTABLE>
    18f8:	0000193c 	andeq	r1, r0, ip, lsr r9
    18fc:	3f012e20 	svccc	0x00012e20
    1900:	3a0e0319 	bcc	38256c <__bss_end__+0x3785d4>
    1904:	270b3b0b 	strcs	r3, [fp, -fp, lsl #22]
    1908:	12011119 	andne	r1, r1, #1073741830	; 0x40000006
    190c:	97184006 	ldrls	r4, [r8, -r6]
    1910:	13011942 	movwne	r1, #6466	; 0x1942
    1914:	05210000 	streq	r0, [r1, #-0]!
    1918:	3a080300 	bcc	202520 <__bss_end__+0x1f8588>
    191c:	490b3b0b 	stmdbmi	fp, {r0, r1, r3, r8, r9, fp, ip, sp}
    1920:	00170213 	andseq	r0, r7, r3, lsl r2
    1924:	82892200 	addhi	r2, r9, #0, 4
    1928:	01110101 	tsteq	r1, r1, lsl #2
    192c:	00001331 	andeq	r1, r0, r1, lsr r3
    1930:	01828a23 	orreq	r8, r2, r3, lsr #20
    1934:	91180200 	tstls	r8, r0, lsl #4
    1938:	00001842 	andeq	r1, r0, r2, asr #16
    193c:	03003424 	movweq	r3, #1060	; 0x424
    1940:	3b0b3a08 	blcc	2d0168 <__bss_end__+0x2c61d0>
    1944:	0213490b 	andseq	r4, r3, #180224	; 0x2c000
    1948:	25000018 	strcs	r0, [r0, #-24]	; 0xffffffe8
    194c:	0111010b 	tsteq	r1, fp, lsl #2
    1950:	13010612 	movwne	r0, #5650	; 0x1612
    1954:	34260000 	strtcc	r0, [r6], #-0
    1958:	3a080300 	bcc	202560 <__bss_end__+0x1f85c8>
    195c:	490b3b0b 	stmdbmi	fp, {r0, r1, r3, r8, r9, fp, ip, sp}
    1960:	00170213 	andseq	r0, r7, r3, lsl r2
    1964:	82892700 	addhi	r2, r9, #0, 14
    1968:	01110001 	tsteq	r1, r1
    196c:	00001331 	andeq	r1, r0, r1, lsr r3
    1970:	3f012e28 	svccc	0x00012e28
    1974:	3a0e0319 	bcc	3825e0 <__bss_end__+0x378648>
    1978:	270b3b0b 	strcs	r3, [fp, -fp, lsl #22]
    197c:	11134919 	tstne	r3, r9, lsl r9
    1980:	40061201 	andmi	r1, r6, r1, lsl #4
    1984:	19429718 	stmdbne	r2, {r3, r4, r8, r9, sl, ip, pc}^
    1988:	00001301 	andeq	r1, r0, r1, lsl #6
    198c:	03000529 	movweq	r0, #1321	; 0x529
    1990:	3b0b3a0e 	blcc	2d01d0 <__bss_end__+0x2c6238>
    1994:	0213490b 	andseq	r4, r3, #180224	; 0x2c000
    1998:	2a000017 	bcs	19fc <_start-0x6604>
    199c:	193f002e 	ldmdbne	pc!, {r1, r2, r3, r5}	; <UNPREDICTABLE>
    19a0:	0e6e193c 			; <UNDEFINED> instruction: 0x0e6e193c
    19a4:	0b3a0e03 	bleq	e851b8 <__bss_end__+0xe7b220>
    19a8:	00000b3b 	andeq	r0, r0, fp, lsr fp
    19ac:	01110100 	tsteq	r1, r0, lsl #2
    19b0:	0b130e25 	bleq	4c524c <__bss_end__+0x4bb2b4>
    19b4:	0e1b0e03 	cdpeq	14, 1, cr0, cr11, cr3, {0}
    19b8:	06120111 			; <UNDEFINED> instruction: 0x06120111
    19bc:	00001710 	andeq	r1, r0, r0, lsl r7
    19c0:	0b002402 	bleq	a9d0 <__bss_end__+0xa38>
    19c4:	030b3e0b 	movweq	r3, #48651	; 0xbe0b
    19c8:	03000008 	movweq	r0, #8
    19cc:	0b0b0024 	bleq	2c1a64 <__bss_end__+0x2b7acc>
    19d0:	0e030b3e 	vmoveq.16	d3[0], r0
    19d4:	35040000 	strcc	r0, [r4, #-0]
    19d8:	00134900 	andseq	r4, r3, r0, lsl #18
    19dc:	00160500 	andseq	r0, r6, r0, lsl #10
    19e0:	0b3a0e03 	bleq	e851f4 <__bss_end__+0xe7b25c>
    19e4:	13490b3b 	movtne	r0, #39739	; 0x9b3b
    19e8:	16060000 	strne	r0, [r6], -r0
    19ec:	3a0e0300 	bcc	3825f4 <__bss_end__+0x37865c>
    19f0:	49053b0b 	stmdbmi	r5, {r0, r1, r3, r8, r9, fp, ip, sp}
    19f4:	07000013 	smladeq	r0, r3, r0, r0
    19f8:	0b0b0117 	bleq	2c1e5c <__bss_end__+0x2b7ec4>
    19fc:	0b3b0b3a 	bleq	ec46ec <__bss_end__+0xeba754>
    1a00:	00001301 	andeq	r1, r0, r1, lsl #6
    1a04:	03000d08 	movweq	r0, #3336	; 0xd08
    1a08:	3b0b3a0e 	blcc	2d0248 <__bss_end__+0x2c62b0>
    1a0c:	0013490b 	andseq	r4, r3, fp, lsl #18
    1a10:	01010900 	tsteq	r1, r0, lsl #18
    1a14:	13011349 	movwne	r1, #4937	; 0x1349
    1a18:	210a0000 	mrscs	r0, (UNDEF: 10)
    1a1c:	2f134900 	svccs	0x00134900
    1a20:	0b00000b 	bleq	1a54 <_start-0x65ac>
    1a24:	0b0b0113 	bleq	2c1e78 <__bss_end__+0x2b7ee0>
    1a28:	0b3b0b3a 	bleq	ec4718 <__bss_end__+0xeba780>
    1a2c:	00001301 	andeq	r1, r0, r1, lsl #6
    1a30:	03000d0c 	movweq	r0, #3340	; 0xd0c
    1a34:	3b0b3a0e 	blcc	2d0274 <__bss_end__+0x2c62dc>
    1a38:	3813490b 	ldmdacc	r3, {r0, r1, r3, r8, fp, lr}
    1a3c:	0d00000b 	stceq	0, cr0, [r0, #-44]	; 0xffffffd4
    1a40:	0b0b000f 	bleq	2c1a84 <__bss_end__+0x2b7aec>
    1a44:	0f0e0000 	svceq	0x000e0000
    1a48:	490b0b00 	stmdbmi	fp, {r8, r9, fp}
    1a4c:	0f000013 	svceq	0x00000013
    1a50:	13490026 	movtne	r0, #36902	; 0x9026
    1a54:	13100000 	tstne	r0, #0
    1a58:	0b0e0301 	bleq	382664 <__bss_end__+0x3786cc>
    1a5c:	3b0b3a0b 	blcc	2d0290 <__bss_end__+0x2c62f8>
    1a60:	0013010b 	andseq	r0, r3, fp, lsl #2
    1a64:	000d1100 	andeq	r1, sp, r0, lsl #2
    1a68:	0b3a0803 	bleq	e83a7c <__bss_end__+0xe79ae4>
    1a6c:	13490b3b 	movtne	r0, #39739	; 0x9b3b
    1a70:	00000b38 	andeq	r0, r0, r8, lsr fp
    1a74:	03011312 	movweq	r1, #4882	; 0x1312
    1a78:	3a050b0e 	bcc	1446b8 <__bss_end__+0x13a720>
    1a7c:	010b3b0b 	tsteq	fp, fp, lsl #22
    1a80:	13000013 	movwne	r0, #19
    1a84:	0e03000d 	cdpeq	0, 0, cr0, cr3, cr13, {0}
    1a88:	0b3b0b3a 	bleq	ec4778 <__bss_end__+0xeba7e0>
    1a8c:	05381349 	ldreq	r1, [r8, #-841]!	; 0xfffffcb7
    1a90:	15140000 	ldrne	r0, [r4, #-0]
    1a94:	00192700 	andseq	r2, r9, r0, lsl #14
    1a98:	01151500 	tsteq	r5, r0, lsl #10
    1a9c:	13491927 	movtne	r1, #39207	; 0x9927
    1aa0:	00001301 	andeq	r1, r0, r1, lsl #6
    1aa4:	49000516 	stmdbmi	r0, {r1, r2, r4, r8, sl}
    1aa8:	17000013 	smladne	r0, r3, r0, r0
    1aac:	0e030113 	mcreq	1, 0, r0, cr3, cr3, {0}
    1ab0:	0b3a050b 	bleq	e82ee4 <__bss_end__+0xe78f4c>
    1ab4:	1301053b 	movwne	r0, #5435	; 0x153b
    1ab8:	0d180000 	ldceq	0, cr0, [r8, #-0]
    1abc:	3a0e0300 	bcc	3826c4 <__bss_end__+0x37872c>
    1ac0:	49053b0b 	stmdbmi	r5, {r0, r1, r3, r8, r9, fp, ip, sp}
    1ac4:	000b3813 	andeq	r3, fp, r3, lsl r8
    1ac8:	000d1900 	andeq	r1, sp, r0, lsl #18
    1acc:	0b3a0e03 	bleq	e852e0 <__bss_end__+0xe7b348>
    1ad0:	1349053b 	movtne	r0, #38203	; 0x953b
    1ad4:	00000538 	andeq	r0, r0, r8, lsr r5
    1ad8:	0301131a 	movweq	r1, #4890	; 0x131a
    1adc:	3a0b0b0e 	bcc	2c471c <__bss_end__+0x2ba784>
    1ae0:	01053b0b 	tsteq	r5, fp, lsl #22
    1ae4:	1b000013 	blne	1b38 <_start-0x64c8>
    1ae8:	0b0b0113 	bleq	2c1f3c <__bss_end__+0x2b7fa4>
    1aec:	053b0b3a 	ldreq	r0, [fp, #-2874]!	; 0xfffff4c6
    1af0:	00001301 	andeq	r1, r0, r1, lsl #6
    1af4:	0b01171c 	bleq	4776c <__bss_end__+0x3d7d4>
    1af8:	3b0b3a0b 	blcc	2d032c <__bss_end__+0x2c6394>
    1afc:	00130105 	andseq	r0, r3, r5, lsl #2
    1b00:	000d1d00 	andeq	r1, sp, r0, lsl #26
    1b04:	0b3a0e03 	bleq	e85318 <__bss_end__+0xe7b380>
    1b08:	1349053b 	movtne	r0, #38203	; 0x953b
    1b0c:	151e0000 	ldrne	r0, [lr, #-0]
    1b10:	01192701 	tsteq	r9, r1, lsl #14
    1b14:	1f000013 	svcne	0x00000013
    1b18:	0e030034 	mcreq	0, 0, r0, cr3, cr4, {1}
    1b1c:	053b0b3a 	ldreq	r0, [fp, #-2874]!	; 0xfffff4c6
    1b20:	193f1349 	ldmdbne	pc!, {r0, r3, r6, r8, r9, ip}	; <UNPREDICTABLE>
    1b24:	0000193c 	andeq	r1, r0, ip, lsr r9
    1b28:	03003420 	movweq	r3, #1056	; 0x420
    1b2c:	3b0b3a0e 	blcc	2d036c <__bss_end__+0x2c63d4>
    1b30:	3f13490b 	svccc	0x0013490b
    1b34:	00193c19 	andseq	r3, r9, r9, lsl ip
    1b38:	01042100 	mrseq	r2, (UNDEF: 20)
    1b3c:	13490b0b 	movtne	r0, #39691	; 0x9b0b
    1b40:	0b3b0b3a 	bleq	ec4830 <__bss_end__+0xeba898>
    1b44:	00001301 	andeq	r1, r0, r1, lsl #6
    1b48:	03002822 	movweq	r2, #2082	; 0x822
    1b4c:	000b1c0e 	andeq	r1, fp, lr, lsl #24
    1b50:	00342300 	eorseq	r2, r4, r0, lsl #6
    1b54:	0b3a0e03 	bleq	e85368 <__bss_end__+0xe7b3d0>
    1b58:	13490b3b 	movtne	r0, #39739	; 0x9b3b
    1b5c:	0000061c 	andeq	r0, r0, ip, lsl r6
    1b60:	3f012e24 	svccc	0x00012e24
    1b64:	3a0e0319 	bcc	3827d0 <__bss_end__+0x378838>
    1b68:	270b3b0b 	strcs	r3, [fp, -fp, lsl #22]
    1b6c:	11134919 	tstne	r3, r9, lsl r9
    1b70:	40061201 	andmi	r1, r6, r1, lsl #4
    1b74:	19429718 	stmdbne	r2, {r3, r4, r8, r9, sl, ip, pc}^
    1b78:	00001301 	andeq	r1, r0, r1, lsl #6
    1b7c:	01828925 	orreq	r8, r2, r5, lsr #18
    1b80:	31011100 	mrscc	r1, (UNDEF: 17)
    1b84:	26000013 			; <UNDEFINED> instruction: 0x26000013
    1b88:	193f012e 	ldmdbne	pc!, {r1, r2, r3, r5, r8}	; <UNPREDICTABLE>
    1b8c:	0b3a0e03 	bleq	e853a0 <__bss_end__+0xe7b408>
    1b90:	19270b3b 	stmdbne	r7!, {r0, r1, r3, r4, r5, r8, r9, fp}
    1b94:	06120111 			; <UNDEFINED> instruction: 0x06120111
    1b98:	42971840 	addsmi	r1, r7, #64, 16	; 0x400000
    1b9c:	00130119 	andseq	r0, r3, r9, lsl r1
    1ba0:	00052700 	andeq	r2, r5, r0, lsl #14
    1ba4:	0b3a0803 	bleq	e83bb8 <__bss_end__+0xe79c20>
    1ba8:	13490b3b 	movtne	r0, #39739	; 0x9b3b
    1bac:	00001702 	andeq	r1, r0, r2, lsl #14
    1bb0:	01828928 	orreq	r8, r2, r8, lsr #18
    1bb4:	31011101 	tstcc	r1, r1, lsl #2
    1bb8:	00130113 	andseq	r0, r3, r3, lsl r1
    1bbc:	828a2900 	addhi	r2, sl, #0, 18
    1bc0:	18020001 	stmdane	r2, {r0}
    1bc4:	00184291 	mulseq	r8, r1, r2
    1bc8:	00342a00 	eorseq	r2, r4, r0, lsl #20
    1bcc:	0b3a0803 	bleq	e83be0 <__bss_end__+0xe79c48>
    1bd0:	13490b3b 	movtne	r0, #39739	; 0x9b3b
    1bd4:	00001802 	andeq	r1, r0, r2, lsl #16
    1bd8:	0182892b 	orreq	r8, r2, fp, lsr #18
    1bdc:	31011101 	tstcc	r1, r1, lsl #2
    1be0:	2c000013 	stccs	0, cr0, [r0], {19}
    1be4:	0e03012e 	adfeqsp	f0, f3, #0.5
    1be8:	0b3b0b3a 	bleq	ec48d8 <__bss_end__+0xeba940>
    1bec:	01111927 	tsteq	r1, r7, lsr #18
    1bf0:	18400612 	stmdane	r0, {r1, r4, r9, sl}^
    1bf4:	01194297 			; <UNDEFINED> instruction: 0x01194297
    1bf8:	2d000013 	stccs	0, cr0, [r0, #-76]	; 0xffffffb4
    1bfc:	0e030005 	cdpeq	0, 0, cr0, cr3, cr5, {0}
    1c00:	0b3b0b3a 	bleq	ec48f0 <__bss_end__+0xeba958>
    1c04:	17021349 	strne	r1, [r2, -r9, asr #6]
    1c08:	352e0000 	strcc	r0, [lr, #-0]!
    1c0c:	2f000000 	svccs	0x00000000
    1c10:	193f002e 	ldmdbne	pc!, {r1, r2, r3, r5}	; <UNPREDICTABLE>
    1c14:	0e6e193c 			; <UNDEFINED> instruction: 0x0e6e193c
    1c18:	0b3a0e03 	bleq	e8542c <__bss_end__+0xe7b494>
    1c1c:	00000b3b 	andeq	r0, r0, fp, lsr fp
    1c20:	01110100 	tsteq	r1, r0, lsl #2
    1c24:	0b130e25 	bleq	4c54c0 <__bss_end__+0x4bb528>
    1c28:	0e1b0e03 	cdpeq	14, 1, cr0, cr11, cr3, {0}
    1c2c:	06120111 			; <UNDEFINED> instruction: 0x06120111
    1c30:	00001710 	andeq	r1, r0, r0, lsl r7
    1c34:	0b002402 	bleq	ac44 <__bss_end__+0xcac>
    1c38:	030b3e0b 	movweq	r3, #48651	; 0xbe0b
    1c3c:	03000008 	movweq	r0, #8
    1c40:	0b0b0024 	bleq	2c1cd8 <__bss_end__+0x2b7d40>
    1c44:	0e030b3e 	vmoveq.16	d3[0], r0
    1c48:	26040000 	strcs	r0, [r4], -r0
    1c4c:	00134900 	andseq	r4, r3, r0, lsl #18
    1c50:	00160500 	andseq	r0, r6, r0, lsl #10
    1c54:	0b3a0e03 	bleq	e85468 <__bss_end__+0xe7b4d0>
    1c58:	13490b3b 	movtne	r0, #39739	; 0x9b3b
    1c5c:	16060000 	strne	r0, [r6], -r0
    1c60:	3a0e0300 	bcc	382868 <__bss_end__+0x3788d0>
    1c64:	49053b0b 	stmdbmi	r5, {r0, r1, r3, r8, r9, fp, ip, sp}
    1c68:	07000013 	smladeq	r0, r3, r0, r0
    1c6c:	0b0b0117 	bleq	2c20d0 <__bss_end__+0x2b8138>
    1c70:	0b3b0b3a 	bleq	ec4960 <__bss_end__+0xeba9c8>
    1c74:	00001301 	andeq	r1, r0, r1, lsl #6
    1c78:	03000d08 	movweq	r0, #3336	; 0xd08
    1c7c:	3b0b3a0e 	blcc	2d04bc <__bss_end__+0x2c6524>
    1c80:	0013490b 	andseq	r4, r3, fp, lsl #18
    1c84:	01010900 	tsteq	r1, r0, lsl #18
    1c88:	13011349 	movwne	r1, #4937	; 0x1349
    1c8c:	210a0000 	mrscs	r0, (UNDEF: 10)
    1c90:	2f134900 	svccs	0x00134900
    1c94:	0b00000b 	bleq	1cc8 <_start-0x6338>
    1c98:	0b0b0113 	bleq	2c20ec <__bss_end__+0x2b8154>
    1c9c:	0b3b0b3a 	bleq	ec498c <__bss_end__+0xeba9f4>
    1ca0:	00001301 	andeq	r1, r0, r1, lsl #6
    1ca4:	03000d0c 	movweq	r0, #3340	; 0xd0c
    1ca8:	3b0b3a0e 	blcc	2d04e8 <__bss_end__+0x2c6550>
    1cac:	3813490b 	ldmdacc	r3, {r0, r1, r3, r8, fp, lr}
    1cb0:	0d00000b 	stceq	0, cr0, [r0, #-44]	; 0xffffffd4
    1cb4:	0b0b000f 	bleq	2c1cf8 <__bss_end__+0x2b7d60>
    1cb8:	0f0e0000 	svceq	0x000e0000
    1cbc:	490b0b00 	stmdbmi	fp, {r8, r9, fp}
    1cc0:	0f000013 	svceq	0x00000013
    1cc4:	0e030113 	mcreq	1, 0, r0, cr3, cr3, {0}
    1cc8:	0b3a0b0b 	bleq	e848fc <__bss_end__+0xe7a964>
    1ccc:	13010b3b 	movwne	r0, #6971	; 0x1b3b
    1cd0:	0d100000 	ldceq	0, cr0, [r0, #-0]
    1cd4:	3a080300 	bcc	2028dc <__bss_end__+0x1f8944>
    1cd8:	490b3b0b 	stmdbmi	fp, {r0, r1, r3, r8, r9, fp, ip, sp}
    1cdc:	000b3813 	andeq	r3, fp, r3, lsl r8
    1ce0:	01131100 	tsteq	r3, r0, lsl #2
    1ce4:	050b0e03 	streq	r0, [fp, #-3587]	; 0xfffff1fd
    1ce8:	0b3b0b3a 	bleq	ec49d8 <__bss_end__+0xebaa40>
    1cec:	00001301 	andeq	r1, r0, r1, lsl #6
    1cf0:	03000d12 	movweq	r0, #3346	; 0xd12
    1cf4:	3b0b3a0e 	blcc	2d0534 <__bss_end__+0x2c659c>
    1cf8:	3813490b 	ldmdacc	r3, {r0, r1, r3, r8, fp, lr}
    1cfc:	13000005 	movwne	r0, #5
    1d00:	19270015 	stmdbne	r7!, {r0, r2, r4}
    1d04:	15140000 	ldrne	r0, [r4, #-0]
    1d08:	49192701 	ldmdbmi	r9, {r0, r8, r9, sl, sp}
    1d0c:	00130113 	andseq	r0, r3, r3, lsl r1
    1d10:	00051500 	andeq	r1, r5, r0, lsl #10
    1d14:	00001349 	andeq	r1, r0, r9, asr #6
    1d18:	03011316 	movweq	r1, #4886	; 0x1316
    1d1c:	3a050b0e 	bcc	14495c <__bss_end__+0x13a9c4>
    1d20:	01053b0b 	tsteq	r5, fp, lsl #22
    1d24:	17000013 	smladne	r0, r3, r0, r0
    1d28:	0e03000d 	cdpeq	0, 0, cr0, cr3, cr13, {0}
    1d2c:	053b0b3a 	ldreq	r0, [fp, #-2874]!	; 0xfffff4c6
    1d30:	0b381349 	bleq	e06a5c <__bss_end__+0xdfcac4>
    1d34:	0d180000 	ldceq	0, cr0, [r8, #-0]
    1d38:	3a0e0300 	bcc	382940 <__bss_end__+0x3789a8>
    1d3c:	49053b0b 	stmdbmi	r5, {r0, r1, r3, r8, r9, fp, ip, sp}
    1d40:	00053813 	andeq	r3, r5, r3, lsl r8
    1d44:	01131900 	tsteq	r3, r0, lsl #18
    1d48:	0b0b0e03 	bleq	2c555c <__bss_end__+0x2bb5c4>
    1d4c:	053b0b3a 	ldreq	r0, [fp, #-2874]!	; 0xfffff4c6
    1d50:	00001301 	andeq	r1, r0, r1, lsl #6
    1d54:	0b01131a 	bleq	469c4 <__bss_end__+0x3ca2c>
    1d58:	3b0b3a0b 	blcc	2d058c <__bss_end__+0x2c65f4>
    1d5c:	00130105 	andseq	r0, r3, r5, lsl #2
    1d60:	01171b00 	tsteq	r7, r0, lsl #22
    1d64:	0b3a0b0b 	bleq	e84998 <__bss_end__+0xe7aa00>
    1d68:	1301053b 	movwne	r0, #5435	; 0x153b
    1d6c:	0d1c0000 	ldceq	0, cr0, [ip, #-0]
    1d70:	3a0e0300 	bcc	382978 <__bss_end__+0x3789e0>
    1d74:	49053b0b 	stmdbmi	r5, {r0, r1, r3, r8, r9, fp, ip, sp}
    1d78:	1d000013 	stcne	0, cr0, [r0, #-76]	; 0xffffffb4
    1d7c:	19270115 	stmdbne	r7!, {r0, r2, r4, r8}
    1d80:	00001301 	andeq	r1, r0, r1, lsl #6
    1d84:	0300341e 	movweq	r3, #1054	; 0x41e
    1d88:	3b0b3a0e 	blcc	2d05c8 <__bss_end__+0x2c6630>
    1d8c:	3f134905 	svccc	0x00134905
    1d90:	00193c19 	andseq	r3, r9, r9, lsl ip
    1d94:	00341f00 	eorseq	r1, r4, r0, lsl #30
    1d98:	0b3a0e03 	bleq	e855ac <__bss_end__+0xe7b614>
    1d9c:	13490b3b 	movtne	r0, #39739	; 0x9b3b
    1da0:	193c193f 	ldmdbne	ip!, {r0, r1, r2, r3, r4, r5, r8, fp, ip}
    1da4:	04200000 	strteq	r0, [r0], #-0
    1da8:	490b0b01 	stmdbmi	fp, {r0, r8, r9, fp}
    1dac:	3b0b3a13 	blcc	2d0600 <__bss_end__+0x2c6668>
    1db0:	0013010b 	andseq	r0, r3, fp, lsl #2
    1db4:	00282100 	eoreq	r2, r8, r0, lsl #2
    1db8:	0b1c0e03 	bleq	7055cc <__bss_end__+0x6fb634>
    1dbc:	34220000 	strtcc	r0, [r2], #-0
    1dc0:	3a0e0300 	bcc	3829c8 <__bss_end__+0x378a30>
    1dc4:	490b3b0b 	stmdbmi	fp, {r0, r1, r3, r8, r9, fp, ip, sp}
    1dc8:	00061c13 	andeq	r1, r6, r3, lsl ip
    1dcc:	012e2300 			; <UNDEFINED> instruction: 0x012e2300
    1dd0:	0e03193f 			; <UNDEFINED> instruction: 0x0e03193f
    1dd4:	0b3b0b3a 	bleq	ec4ac4 <__bss_end__+0xebab2c>
    1dd8:	13491927 	movtne	r1, #39207	; 0x9927
    1ddc:	06120111 			; <UNDEFINED> instruction: 0x06120111
    1de0:	42971840 	addsmi	r1, r7, #64, 16	; 0x400000
    1de4:	00130119 	andseq	r0, r3, r9, lsl r1
    1de8:	00052400 	andeq	r2, r5, r0, lsl #8
    1dec:	0b3a0803 	bleq	e83e00 <__bss_end__+0xe79e68>
    1df0:	13490b3b 	movtne	r0, #39739	; 0x9b3b
    1df4:	00001702 	andeq	r1, r0, r2, lsl #14
    1df8:	03003425 	movweq	r3, #1061	; 0x425
    1dfc:	3b0b3a0e 	blcc	2d063c <__bss_end__+0x2c66a4>
    1e00:	0213490b 	andseq	r4, r3, #180224	; 0x2c000
    1e04:	26000017 			; <UNDEFINED> instruction: 0x26000017
    1e08:	08030034 	stmdaeq	r3, {r2, r4, r5}
    1e0c:	0b3b0b3a 	bleq	ec4afc <__bss_end__+0xebab64>
    1e10:	17021349 	strne	r1, [r2, -r9, asr #6]
    1e14:	89270000 	stmdbhi	r7!, {}	; <UNPREDICTABLE>
    1e18:	11010182 	smlabbne	r1, r2, r1, r0
    1e1c:	00133101 	andseq	r3, r3, r1, lsl #2
    1e20:	828a2800 	addhi	r2, sl, #0, 16
    1e24:	18020001 	stmdane	r2, {r0}
    1e28:	00184291 	mulseq	r8, r1, r2
    1e2c:	012e2900 			; <UNDEFINED> instruction: 0x012e2900
    1e30:	0e03193f 			; <UNDEFINED> instruction: 0x0e03193f
    1e34:	0b3b0b3a 	bleq	ec4b24 <__bss_end__+0xebab8c>
    1e38:	01111927 	tsteq	r1, r7, lsr #18
    1e3c:	18400612 	stmdane	r0, {r1, r4, r9, sl}^
    1e40:	01194297 			; <UNDEFINED> instruction: 0x01194297
    1e44:	2a000013 	bcs	1e98 <_start-0x6168>
    1e48:	01018289 	smlabbeq	r1, r9, r2, r8
    1e4c:	13310111 	teqne	r1, #1073741828	; 0x40000004
    1e50:	00001301 	andeq	r1, r0, r1, lsl #6
    1e54:	0182892b 	orreq	r8, r2, fp, lsr #18
    1e58:	31011100 	mrscc	r1, (UNDEF: 17)
    1e5c:	2c000013 	stccs	0, cr0, [r0], {19}
    1e60:	0e030005 	cdpeq	0, 0, cr0, cr3, cr5, {0}
    1e64:	0b3b0b3a 	bleq	ec4b54 <__bss_end__+0xebabbc>
    1e68:	17021349 	strne	r1, [r2, -r9, asr #6]
    1e6c:	342d0000 	strtcc	r0, [sp], #-0
    1e70:	3a080300 	bcc	202a78 <__bss_end__+0x1f8ae0>
    1e74:	490b3b0b 	stmdbmi	fp, {r0, r1, r3, r8, r9, fp, ip, sp}
    1e78:	00180213 	andseq	r0, r8, r3, lsl r2
    1e7c:	002e2e00 	eoreq	r2, lr, r0, lsl #28
    1e80:	193c193f 	ldmdbne	ip!, {r0, r1, r2, r3, r4, r5, r8, fp, ip}
    1e84:	0e030e6e 	cdpeq	14, 0, cr0, cr3, cr14, {3}
    1e88:	0b3b0b3a 	bleq	ec4b78 <__bss_end__+0xebabe0>
    1e8c:	01000000 	mrseq	r0, (UNDEF: 0)
    1e90:	0e250111 	mcreq	1, 1, r0, cr5, cr1, {0}
    1e94:	0e030b13 	vmoveq.32	d3[0], r0
    1e98:	01110e1b 	tsteq	r1, fp, lsl lr
    1e9c:	17100612 			; <UNDEFINED> instruction: 0x17100612
    1ea0:	24020000 	strcs	r0, [r2], #-0
    1ea4:	3e0b0b00 	vmlacc.f64	d0, d11, d0
    1ea8:	0008030b 	andeq	r0, r8, fp, lsl #6
    1eac:	00240300 	eoreq	r0, r4, r0, lsl #6
    1eb0:	0b3e0b0b 	bleq	f84ae4 <__bss_end__+0xf7ab4c>
    1eb4:	00000e03 	andeq	r0, r0, r3, lsl #28
    1eb8:	03001604 	movweq	r1, #1540	; 0x604
    1ebc:	3b0b3a0e 	blcc	2d06fc <__bss_end__+0x2c6764>
    1ec0:	0013490b 	andseq	r4, r3, fp, lsl #18
    1ec4:	00160500 	andseq	r0, r6, r0, lsl #10
    1ec8:	0b3a0e03 	bleq	e856dc <__bss_end__+0xe7b744>
    1ecc:	1349053b 	movtne	r0, #38203	; 0x953b
    1ed0:	17060000 	strne	r0, [r6, -r0]
    1ed4:	3a0b0b01 	bcc	2c4ae0 <__bss_end__+0x2bab48>
    1ed8:	010b3b0b 	tsteq	fp, fp, lsl #22
    1edc:	07000013 	smladeq	r0, r3, r0, r0
    1ee0:	0e03000d 	cdpeq	0, 0, cr0, cr3, cr13, {0}
    1ee4:	0b3b0b3a 	bleq	ec4bd4 <__bss_end__+0xebac3c>
    1ee8:	00001349 	andeq	r1, r0, r9, asr #6
    1eec:	49010108 	stmdbmi	r1, {r3, r8}
    1ef0:	00130113 	andseq	r0, r3, r3, lsl r1
    1ef4:	00210900 	eoreq	r0, r1, r0, lsl #18
    1ef8:	0b2f1349 	bleq	bc6c24 <__bss_end__+0xbbcc8c>
    1efc:	130a0000 	movwne	r0, #40960	; 0xa000
    1f00:	3a0b0b01 	bcc	2c4b0c <__bss_end__+0x2bab74>
    1f04:	010b3b0b 	tsteq	fp, fp, lsl #22
    1f08:	0b000013 	bleq	1f5c <_start-0x60a4>
    1f0c:	0e03000d 	cdpeq	0, 0, cr0, cr3, cr13, {0}
    1f10:	0b3b0b3a 	bleq	ec4c00 <__bss_end__+0xebac68>
    1f14:	0b381349 	bleq	e06c40 <__bss_end__+0xdfcca8>
    1f18:	0f0c0000 	svceq	0x000c0000
    1f1c:	000b0b00 	andeq	r0, fp, r0, lsl #22
    1f20:	000f0d00 	andeq	r0, pc, r0, lsl #26
    1f24:	13490b0b 	movtne	r0, #39691	; 0x9b0b
    1f28:	260e0000 	strcs	r0, [lr], -r0
    1f2c:	00134900 	andseq	r4, r3, r0, lsl #18
    1f30:	01130f00 	tsteq	r3, r0, lsl #30
    1f34:	0b0b0e03 	bleq	2c5748 <__bss_end__+0x2bb7b0>
    1f38:	0b3b0b3a 	bleq	ec4c28 <__bss_end__+0xebac90>
    1f3c:	00001301 	andeq	r1, r0, r1, lsl #6
    1f40:	03000d10 	movweq	r0, #3344	; 0xd10
    1f44:	3b0b3a08 	blcc	2d076c <__bss_end__+0x2c67d4>
    1f48:	3813490b 	ldmdacc	r3, {r0, r1, r3, r8, fp, lr}
    1f4c:	1100000b 	tstne	r0, fp
    1f50:	0e030113 	mcreq	1, 0, r0, cr3, cr3, {0}
    1f54:	0b3a050b 	bleq	e83388 <__bss_end__+0xe793f0>
    1f58:	13010b3b 	movwne	r0, #6971	; 0x1b3b
    1f5c:	0d120000 	ldceq	0, cr0, [r2, #-0]
    1f60:	3a0e0300 	bcc	382b68 <__bss_end__+0x378bd0>
    1f64:	490b3b0b 	stmdbmi	fp, {r0, r1, r3, r8, r9, fp, ip, sp}
    1f68:	00053813 	andeq	r3, r5, r3, lsl r8
    1f6c:	00151300 	andseq	r1, r5, r0, lsl #6
    1f70:	00001927 	andeq	r1, r0, r7, lsr #18
    1f74:	27011514 	smladcs	r1, r4, r5, r1
    1f78:	01134919 	tsteq	r3, r9, lsl r9
    1f7c:	15000013 	strne	r0, [r0, #-19]	; 0xffffffed
    1f80:	13490005 	movtne	r0, #36869	; 0x9005
    1f84:	13160000 	tstne	r6, #0
    1f88:	0b0e0301 	bleq	382b94 <__bss_end__+0x378bfc>
    1f8c:	3b0b3a05 	blcc	2d07a8 <__bss_end__+0x2c6810>
    1f90:	00130105 	andseq	r0, r3, r5, lsl #2
    1f94:	000d1700 	andeq	r1, sp, r0, lsl #14
    1f98:	0b3a0e03 	bleq	e857ac <__bss_end__+0xe7b814>
    1f9c:	1349053b 	movtne	r0, #38203	; 0x953b
    1fa0:	00000b38 	andeq	r0, r0, r8, lsr fp
    1fa4:	03000d18 	movweq	r0, #3352	; 0xd18
    1fa8:	3b0b3a0e 	blcc	2d07e8 <__bss_end__+0x2c6850>
    1fac:	38134905 	ldmdacc	r3, {r0, r2, r8, fp, lr}
    1fb0:	19000005 	stmdbne	r0, {r0, r2}
    1fb4:	0e030113 	mcreq	1, 0, r0, cr3, cr3, {0}
    1fb8:	0b3a0b0b 	bleq	e84bec <__bss_end__+0xe7ac54>
    1fbc:	1301053b 	movwne	r0, #5435	; 0x153b
    1fc0:	131a0000 	tstne	sl, #0
    1fc4:	3a0b0b01 	bcc	2c4bd0 <__bss_end__+0x2bac38>
    1fc8:	01053b0b 	tsteq	r5, fp, lsl #22
    1fcc:	1b000013 	blne	2020 <_start-0x5fe0>
    1fd0:	0b0b0117 	bleq	2c2434 <__bss_end__+0x2b849c>
    1fd4:	053b0b3a 	ldreq	r0, [fp, #-2874]!	; 0xfffff4c6
    1fd8:	00001301 	andeq	r1, r0, r1, lsl #6
    1fdc:	03000d1c 	movweq	r0, #3356	; 0xd1c
    1fe0:	3b0b3a0e 	blcc	2d0820 <__bss_end__+0x2c6888>
    1fe4:	00134905 	andseq	r4, r3, r5, lsl #18
    1fe8:	01151d00 	tsteq	r5, r0, lsl #26
    1fec:	13011927 	movwne	r1, #6439	; 0x1927
    1ff0:	341e0000 	ldrcc	r0, [lr], #-0
    1ff4:	3a0e0300 	bcc	382bfc <__bss_end__+0x378c64>
    1ff8:	49053b0b 	stmdbmi	r5, {r0, r1, r3, r8, r9, fp, ip, sp}
    1ffc:	3c193f13 	ldccc	15, cr3, [r9], {19}
    2000:	1f000019 	svcne	0x00000019
    2004:	0e030034 	mcreq	0, 0, r0, cr3, cr4, {1}
    2008:	0b3b0b3a 	bleq	ec4cf8 <__bss_end__+0xebad60>
    200c:	193f1349 	ldmdbne	pc!, {r0, r3, r6, r8, r9, ip}	; <UNPREDICTABLE>
    2010:	0000193c 	andeq	r1, r0, ip, lsr r9
    2014:	03003420 	movweq	r3, #1056	; 0x420
    2018:	3b0b3a0e 	blcc	2d0858 <__bss_end__+0x2c68c0>
    201c:	0213490b 	andseq	r4, r3, #180224	; 0x2c000
    2020:	21000018 	tstcs	r0, r8, lsl r0
    2024:	193f012e 	ldmdbne	pc!, {r1, r2, r3, r5, r8}	; <UNPREDICTABLE>
    2028:	0b3a0e03 	bleq	e8583c <__bss_end__+0xe7b8a4>
    202c:	19270b3b 	stmdbne	r7!, {r0, r1, r3, r4, r5, r8, r9, fp}
    2030:	06120111 			; <UNDEFINED> instruction: 0x06120111
    2034:	42971840 	addsmi	r1, r7, #64, 16	; 0x400000
    2038:	00130119 	andseq	r0, r3, r9, lsl r1
    203c:	00052200 	andeq	r2, r5, r0, lsl #4
    2040:	0b3a0803 	bleq	e84054 <__bss_end__+0xe7a0bc>
    2044:	13490b3b 	movtne	r0, #39739	; 0x9b3b
    2048:	00001802 	andeq	r1, r0, r2, lsl #16
    204c:	3f002e23 	svccc	0x00002e23
    2050:	3a0e0319 	bcc	382cbc <__bss_end__+0x378d24>
    2054:	270b3b0b 	strcs	r3, [fp, -fp, lsl #22]
    2058:	12011119 	andne	r1, r1, #1073741830	; 0x40000006
    205c:	97184006 	ldrls	r4, [r8, -r6]
    2060:	00001942 	andeq	r1, r0, r2, asr #18
    2064:	3f012e24 	svccc	0x00012e24
    2068:	3a0e0319 	bcc	382cd4 <__bss_end__+0x378d3c>
    206c:	270b3b0b 	strcs	r3, [fp, -fp, lsl #22]
    2070:	11134919 	tstne	r3, r9, lsl r9
    2074:	40061201 	andmi	r1, r6, r1, lsl #4
    2078:	19429718 	stmdbne	r2, {r3, r4, r8, r9, sl, ip, pc}^
    207c:	00001301 	andeq	r1, r0, r1, lsl #6
    2080:	03000525 	movweq	r0, #1317	; 0x525
    2084:	3b0b3a0e 	blcc	2d08c4 <__bss_end__+0x2c692c>
    2088:	0213490b 	andseq	r4, r3, #180224	; 0x2c000
    208c:	26000017 			; <UNDEFINED> instruction: 0x26000017
    2090:	0e030034 	mcreq	0, 0, r0, cr3, cr4, {1}
    2094:	19341349 	ldmdbne	r4!, {r0, r3, r6, r8, r9, ip}
    2098:	00001802 	andeq	r1, r0, r2, lsl #16
    209c:	03003427 	movweq	r3, #1063	; 0x427
    20a0:	3b0b3a08 	blcc	2d08c8 <__bss_end__+0x2c6930>
    20a4:	0213490b 	andseq	r4, r3, #180224	; 0x2c000
    20a8:	28000017 	stmdacs	r0, {r0, r1, r2, r4}
    20ac:	01018289 	smlabbeq	r1, r9, r2, r8
    20b0:	13310111 	teqne	r1, #1073741828	; 0x40000004
    20b4:	00001301 	andeq	r1, r0, r1, lsl #6
    20b8:	01828a29 	orreq	r8, r2, r9, lsr #20
    20bc:	91180200 	tstls	r8, r0, lsl #4
    20c0:	00001842 	andeq	r1, r0, r2, asr #16
    20c4:	0182892a 	orreq	r8, r2, sl, lsr #18
    20c8:	31011100 	mrscc	r1, (UNDEF: 17)
    20cc:	2b000013 	blcs	2120 <_start-0x5ee0>
    20d0:	08030005 	stmdaeq	r3, {r0, r2}
    20d4:	0b3b0b3a 	bleq	ec4dc4 <__bss_end__+0xebae2c>
    20d8:	17021349 	strne	r1, [r2, -r9, asr #6]
    20dc:	342c0000 	strtcc	r0, [ip], #-0
    20e0:	3a0e0300 	bcc	382ce8 <__bss_end__+0x378d50>
    20e4:	490b3b0b 	stmdbmi	fp, {r0, r1, r3, r8, r9, fp, ip, sp}
    20e8:	00170213 	andseq	r0, r7, r3, lsl r2
    20ec:	002e2d00 	eoreq	r2, lr, r0, lsl #26
    20f0:	0e03193f 			; <UNDEFINED> instruction: 0x0e03193f
    20f4:	0b3b0b3a 	bleq	ec4de4 <__bss_end__+0xebae4c>
    20f8:	13491927 	movtne	r1, #39207	; 0x9927
    20fc:	06120111 			; <UNDEFINED> instruction: 0x06120111
    2100:	42971840 	addsmi	r1, r7, #64, 16	; 0x400000
    2104:	2e000019 	mcrcs	0, 0, r0, cr0, cr9, {0}
    2108:	193f002e 	ldmdbne	pc!, {r1, r2, r3, r5}	; <UNPREDICTABLE>
    210c:	0e6e193c 			; <UNDEFINED> instruction: 0x0e6e193c
    2110:	0b3a0e03 	bleq	e85924 <__bss_end__+0xe7b98c>
    2114:	00000b3b 	andeq	r0, r0, fp, lsr fp
	...

Disassembly of section .debug_loc:

00000000 <.debug_loc>:
       0:	00000044 	andeq	r0, r0, r4, asr #32
       4:	0000004f 	andeq	r0, r0, pc, asr #32
       8:	4f500001 	svcmi	0x00500001
       c:	7c000000 	stcvc	0, cr0, [r0], {-0}
      10:	01000000 	mrseq	r0, (UNDEF: 0)
      14:	00005400 	andeq	r5, r0, r0, lsl #8
      18:	00000000 	andeq	r0, r0, r0
      1c:	07400000 	strbeq	r0, [r0, -r0]
      20:	07680000 	strbeq	r0, [r8, -r0]!
      24:	00010000 	andeq	r0, r1, r0
      28:	00000055 	andeq	r0, r0, r5, asr r0
      2c:	00000000 	andeq	r0, r0, r0
      30:	00074800 	andeq	r4, r7, r0, lsl #16
      34:	00076c00 	andeq	r6, r7, r0, lsl #24
      38:	56000100 	strpl	r0, [r0], -r0, lsl #2
	...
      44:	00000760 	andeq	r0, r0, r0, ror #14
      48:	00000770 	andeq	r0, r0, r0, ror r7
      4c:	9f300002 	svcls	0x00300002
      50:	00000770 	andeq	r0, r0, r0, ror r7
      54:	00000878 	andeq	r0, r0, r8, ror r8
      58:	00560001 	subseq	r0, r6, r1
      5c:	00000000 	andeq	r0, r0, r0
      60:	60000000 	andvs	r0, r0, r0
      64:	70000007 	andvc	r0, r0, r7
      68:	02000007 	andeq	r0, r0, #7
      6c:	709f3000 	addsvc	r3, pc, r0
      70:	78000007 	stmdavc	r0, {r0, r1, r2}
      74:	01000008 	tsteq	r0, r8
      78:	00005500 	andeq	r5, r0, r0, lsl #10
      7c:	00000000 	andeq	r0, r0, r0
      80:	05140000 	ldreq	r0, [r4, #-0]
      84:	05400000 	strbeq	r0, [r0, #-0]
      88:	00010000 	andeq	r0, r1, r0
      8c:	00054050 	andeq	r4, r5, r0, asr r0
      90:	00063800 	andeq	r3, r6, r0, lsl #16
      94:	55000100 	strpl	r0, [r0, #-256]	; 0xffffff00
      98:	00000638 	andeq	r0, r0, r8, lsr r6
      9c:	0000063b 	andeq	r0, r0, fp, lsr r6
      a0:	3b500001 	blcc	14000ac <__bss_end__+0x13f6114>
      a4:	54000006 	strpl	r0, [r0], #-6
      a8:	04000006 	streq	r0, [r0], #-6
      ac:	5001f300 	andpl	pc, r1, r0, lsl #6
      b0:	0006549f 	muleq	r6, pc, r4	; <UNPREDICTABLE>
      b4:	00072c00 	andeq	r2, r7, r0, lsl #24
      b8:	55000100 	strpl	r0, [r0, #-256]	; 0xffffff00
	...
      c4:	00000514 	andeq	r0, r0, r4, lsl r5
      c8:	00000543 	andeq	r0, r0, r3, asr #10
      cc:	43510001 	cmpmi	r1, #1
      d0:	38000005 	stmdacc	r0, {r0, r2}
      d4:	01000006 	tsteq	r0, r6
      d8:	06385900 	ldrteq	r5, [r8], -r0, lsl #18
      dc:	063b0000 	ldrteq	r0, [fp], -r0
      e0:	00010000 	andeq	r0, r1, r0
      e4:	00063b51 	andeq	r3, r6, r1, asr fp
      e8:	00065400 	andeq	r5, r6, r0, lsl #8
      ec:	f3000400 	vshl.u8	d0, d0, d0
      f0:	549f5101 	ldrpl	r5, [pc], #257	; f8 <_start-0x7f08>
      f4:	2c000006 	stccs	0, cr0, [r0], {6}
      f8:	01000007 	tsteq	r0, r7
      fc:	00005900 	andeq	r5, r0, r0, lsl #18
     100:	00000000 	andeq	r0, r0, r0
     104:	05140000 	ldreq	r0, [r4, #-0]
     108:	05430000 	strbeq	r0, [r3, #-0]
     10c:	00010000 	andeq	r0, r1, r0
     110:	00054352 	andeq	r4, r5, r2, asr r3
     114:	00063800 	andeq	r3, r6, r0, lsl #16
     118:	58000100 	stmdapl	r0, {r8}
     11c:	00000638 	andeq	r0, r0, r8, lsr r6
     120:	0000063b 	andeq	r0, r0, fp, lsr r6
     124:	3b520001 	blcc	1480130 <__bss_end__+0x1476198>
     128:	54000006 	strpl	r0, [r0], #-6
     12c:	04000006 	streq	r0, [r0], #-6
     130:	5201f300 	andpl	pc, r1, #0, 6
     134:	0006549f 	muleq	r6, pc, r4	; <UNPREDICTABLE>
     138:	00072c00 	andeq	r2, r7, r0, lsl #24
     13c:	58000100 	stmdapl	r0, {r8}
	...
     148:	00000514 	andeq	r0, r0, r4, lsl r5
     14c:	00000524 	andeq	r0, r0, r4, lsr #10
     150:	24530001 	ldrbcs	r0, [r3], #-1
     154:	c4000005 	strgt	r0, [r0], #-5
     158:	01000005 	tsteq	r0, r5
     15c:	05c45700 	strbeq	r5, [r4, #1792]	; 0x700
     160:	06380000 	ldrteq	r0, [r8], -r0
     164:	00040000 	andeq	r0, r4, r0
     168:	9f5301f3 	svcls	0x005301f3
     16c:	00000638 	andeq	r0, r0, r8, lsr r6
     170:	000006dc 	ldrdeq	r0, [r0], -ip
     174:	dc570001 	mrrcle	0, 0, r0, r7, cr1
     178:	2c000006 	stccs	0, cr0, [r0], {6}
     17c:	04000007 	streq	r0, [r0], #-7
     180:	5301f300 	movwpl	pc, #4864	; 0x1300	; <UNPREDICTABLE>
     184:	0000009f 	muleq	r0, pc, r0	; <UNPREDICTABLE>
     188:	00000000 	andeq	r0, r0, r0
     18c:	00052000 	andeq	r2, r5, r0
     190:	00057c00 	andeq	r7, r5, r0, lsl #24
     194:	30000200 	andcc	r0, r0, r0, lsl #4
     198:	00057c9f 	muleq	r5, pc, ip	; <UNPREDICTABLE>
     19c:	00061000 	andeq	r1, r6, r0
     1a0:	54000100 	strpl	r0, [r0], #-256	; 0xffffff00
     1a4:	00000638 	andeq	r0, r0, r8, lsr r6
     1a8:	000006dc 	ldrdeq	r0, [r0], -ip
     1ac:	9f300002 	svcls	0x00300002
     1b0:	000006dc 	ldrdeq	r0, [r0], -ip
     1b4:	0000072c 	andeq	r0, r0, ip, lsr #14
     1b8:	00540001 	subseq	r0, r4, r1
     1bc:	00000000 	andeq	r0, r0, r0
     1c0:	20000000 	andcs	r0, r0, r0
     1c4:	10000005 	andne	r0, r0, r5
     1c8:	02000006 	andeq	r0, r0, #6
     1cc:	109f3000 	addsne	r3, pc, r0
     1d0:	14000006 	strne	r0, [r0], #-6
     1d4:	01000006 	tsteq	r0, r6
     1d8:	06145000 	ldreq	r5, [r4], -r0
     1dc:	06380000 	ldrteq	r0, [r8], -r0
     1e0:	00010000 	andeq	r0, r1, r0
     1e4:	00063854 	andeq	r3, r6, r4, asr r8
     1e8:	00072c00 	andeq	r2, r7, r0, lsl #24
     1ec:	30000200 	andcc	r0, r0, r0, lsl #4
     1f0:	0000009f 	muleq	r0, pc, r0	; <UNPREDICTABLE>
     1f4:	00000000 	andeq	r0, r0, r0
     1f8:	00055800 	andeq	r5, r5, r0, lsl #16
     1fc:	00058800 	andeq	r8, r5, r0, lsl #16
     200:	53000100 	movwpl	r0, #256	; 0x100
     204:	00000588 	andeq	r0, r0, r8, lsl #11
     208:	000005af 	andeq	r0, r0, pc, lsr #11
     20c:	04740002 	ldrbteq	r0, [r4], #-2
     210:	000005af 	andeq	r0, r0, pc, lsr #11
     214:	00000638 	andeq	r0, r0, r8, lsr r6
     218:	c8760004 	ldmdagt	r6!, {r2}^
     21c:	06549f7d 	usub16eq	r9, r4, sp
     220:	065b0000 	ldrbeq	r0, [fp], -r0
     224:	00010000 	andeq	r0, r1, r0
     228:	00065b53 	andeq	r5, r6, r3, asr fp
     22c:	00068800 	andeq	r8, r6, r0, lsl #16
     230:	76000400 	strvc	r0, [r0], -r0, lsl #8
     234:	889f7dc8 	ldmhi	pc, {r3, r6, r7, r8, sl, fp, ip, sp, lr}	; <UNPREDICTABLE>
     238:	8f000006 	svchi	0x00000006
     23c:	01000006 	tsteq	r0, r6
     240:	068f5300 	streq	r5, [pc], r0, lsl #6
     244:	072c0000 	streq	r0, [ip, -r0]!
     248:	00040000 	andeq	r0, r4, r0
     24c:	9f7dc876 	svcls	0x007dc876
	...
     258:	0000055c 	andeq	r0, r0, ip, asr r5
     25c:	00000638 	andeq	r0, r0, r8, lsr r6
     260:	54560001 	ldrbpl	r0, [r6], #-1
     264:	2c000006 	stccs	0, cr0, [r0], {6}
     268:	01000007 	tsteq	r0, r7
     26c:	00005600 	andeq	r5, r0, r0, lsl #12
     270:	00000000 	andeq	r0, r0, r0
     274:	045c0000 	ldrbeq	r0, [ip], #-0
     278:	04730000 	ldrbteq	r0, [r3], #-0
     27c:	00010000 	andeq	r0, r1, r0
     280:	00047350 	andeq	r7, r4, r0, asr r3
     284:	00051400 	andeq	r1, r5, r0, lsl #8
     288:	55000100 	strpl	r0, [r0, #-256]	; 0xffffff00
	...
     294:	0000045c 	andeq	r0, r0, ip, asr r4
     298:	00000473 	andeq	r0, r0, r3, ror r4
     29c:	73510001 	cmpvc	r1, #1
     2a0:	14000004 	strne	r0, [r0], #-4
     2a4:	01000005 	tsteq	r0, r5
     2a8:	00005800 	andeq	r5, r0, r0, lsl #16
     2ac:	00000000 	andeq	r0, r0, r0
     2b0:	045c0000 	ldrbeq	r0, [ip], #-0
     2b4:	04730000 	ldrbteq	r0, [r3], #-0
     2b8:	00010000 	andeq	r0, r1, r0
     2bc:	00047352 	andeq	r7, r4, r2, asr r3
     2c0:	00051400 	andeq	r1, r5, r0, lsl #8
     2c4:	57000100 	strpl	r0, [r0, -r0, lsl #2]
	...
     2d0:	0000045c 	andeq	r0, r0, ip, asr r4
     2d4:	00000473 	andeq	r0, r0, r3, ror r4
     2d8:	73530001 	cmpvc	r3, #1
     2dc:	14000004 	strne	r0, [r0], #-4
     2e0:	01000005 	tsteq	r0, r5
     2e4:	00005600 	andeq	r5, r0, r0, lsl #12
     2e8:	00000000 	andeq	r0, r0, r0
     2ec:	04740000 	ldrbteq	r0, [r4], #-0
     2f0:	048c0000 	streq	r0, [ip], #0
     2f4:	00010000 	andeq	r0, r1, r0
     2f8:	00048c50 	andeq	r8, r4, r0, asr ip
     2fc:	0004e000 	andeq	lr, r4, r0
     300:	54000100 	strpl	r0, [r0], #-256	; 0xffffff00
     304:	000004e0 	andeq	r0, r0, r0, ror #9
     308:	000004e3 	andeq	r0, r0, r3, ror #9
     30c:	00500001 	subseq	r0, r0, r1
     310:	00000000 	andeq	r0, r0, r0
     314:	84000000 	strhi	r0, [r0], #-0
     318:	8f000003 	svchi	0x00000003
     31c:	01000003 	tsteq	r0, r3
     320:	038f5000 	orreq	r5, pc, #0
     324:	03e80000 	mvneq	r0, #0
     328:	00010000 	andeq	r0, r1, r0
     32c:	00000054 	andeq	r0, r0, r4, asr r0
     330:	00000000 	andeq	r0, r0, r0
     334:	00015000 	andeq	r5, r1, r0
     338:	00015f00 	andeq	r5, r1, r0, lsl #30
     33c:	50000100 	andpl	r0, r0, r0, lsl #2
     340:	0000015f 	andeq	r0, r0, pc, asr r1
     344:	00000164 	andeq	r0, r0, r4, ror #2
     348:	01f30004 	mvnseq	r0, r4
     34c:	00009f50 	andeq	r9, r0, r0, asr pc
     350:	00000000 	andeq	r0, r0, r0
     354:	01500000 	cmpeq	r0, r0
     358:	015c0000 	cmpeq	ip, r0
     35c:	00010000 	andeq	r0, r1, r0
     360:	00015c51 	andeq	r5, r1, r1, asr ip
     364:	00015f00 	andeq	r5, r1, r0, lsl #30
     368:	52000100 	andpl	r0, r0, #0, 2
     36c:	0000015f 	andeq	r0, r0, pc, asr r1
     370:	00000164 	andeq	r0, r0, r4, ror #2
     374:	01f30004 	mvnseq	r0, r4
     378:	00009f51 	andeq	r9, r0, r1, asr pc
     37c:	00000000 	andeq	r0, r0, r0
     380:	00440000 	subeq	r0, r4, r0
     384:	00700000 	rsbseq	r0, r0, r0
     388:	00010000 	andeq	r0, r1, r0
     38c:	00007050 	andeq	r7, r0, r0, asr r0
     390:	00012c00 	andeq	r2, r1, r0, lsl #24
     394:	55000100 	strpl	r0, [r0, #-256]	; 0xffffff00
     398:	0000012c 	andeq	r0, r0, ip, lsr #2
     39c:	00000130 	andeq	r0, r0, r0, lsr r1
     3a0:	30500001 	subscc	r0, r0, r1
     3a4:	50000001 	andpl	r0, r0, r1
     3a8:	04000001 	streq	r0, [r0], #-1
     3ac:	5001f300 	andpl	pc, r1, r0, lsl #6
     3b0:	0000009f 	muleq	r0, pc, r0	; <UNPREDICTABLE>
     3b4:	00000000 	andeq	r0, r0, r0
     3b8:	00004400 	andeq	r4, r0, r0, lsl #8
     3bc:	00007300 	andeq	r7, r0, r0, lsl #6
     3c0:	51000100 	mrspl	r0, (UNDEF: 16)
     3c4:	00000073 	andeq	r0, r0, r3, ror r0
     3c8:	0000012c 	andeq	r0, r0, ip, lsr #2
     3cc:	01f30004 	mvnseq	r0, r4
     3d0:	012c9f51 			; <UNDEFINED> instruction: 0x012c9f51
     3d4:	01500000 	cmpeq	r0, r0
     3d8:	00010000 	andeq	r0, r1, r0
     3dc:	00000051 	andeq	r0, r0, r1, asr r0
     3e0:	00000000 	andeq	r0, r0, r0
     3e4:	00004400 	andeq	r4, r0, r0, lsl #8
     3e8:	00007300 	andeq	r7, r0, r0, lsl #6
     3ec:	52000100 	andpl	r0, r0, #0, 2
     3f0:	00000073 	andeq	r0, r0, r3, ror r0
     3f4:	0000012c 	andeq	r0, r0, ip, lsr #2
     3f8:	2c560001 	mrrccs	0, 0, r0, r6, cr1
     3fc:	50000001 	andpl	r0, r0, r1
     400:	01000001 	tsteq	r0, r1
     404:	00005200 	andeq	r5, r0, r0, lsl #4
     408:	00000000 	andeq	r0, r0, r0
     40c:	00480000 	subeq	r0, r8, r0
     410:	004c0000 	subeq	r0, ip, r0
     414:	00020000 	andeq	r0, r2, r0
     418:	004c9f30 	subeq	r9, ip, r0, lsr pc
     41c:	007c0000 	rsbseq	r0, ip, r0
     420:	00010000 	andeq	r0, r1, r0
     424:	00012c54 	andeq	r2, r1, r4, asr ip
     428:	00015000 	andeq	r5, r1, r0
     42c:	54000100 	strpl	r0, [r0], #-256	; 0xffffff00
	...
     438:	0000007c 	andeq	r0, r0, ip, ror r0
     43c:	0000012c 	andeq	r0, r0, ip, lsr #2
     440:	00540001 	subseq	r0, r4, r1
     444:	00000000 	andeq	r0, r0, r0
     448:	a0000000 	andge	r0, r0, r0
     44c:	e8000000 	stmda	r0, {}	; <UNPREDICTABLE>
     450:	01000000 	mrseq	r0, (UNDEF: 0)
     454:	01005600 	tsteq	r0, r0, lsl #12
     458:	012c0000 			; <UNDEFINED> instruction: 0x012c0000
     45c:	00010000 	andeq	r0, r1, r0
     460:	00000056 	andeq	r0, r0, r6, asr r0
     464:	00000000 	andeq	r0, r0, r0
     468:	0000b400 	andeq	fp, r0, r0, lsl #8
     46c:	0000dc00 	andeq	sp, r0, r0, lsl #24
     470:	76000300 	strvc	r0, [r0], -r0, lsl #6
     474:	00dc9f10 	sbcseq	r9, ip, r0, lsl pc
     478:	012c0000 			; <UNDEFINED> instruction: 0x012c0000
     47c:	00030000 	andeq	r0, r3, r0
     480:	009f1c76 	addseq	r1, pc, r6, ror ip	; <UNPREDICTABLE>
     484:	00000000 	andeq	r0, r0, r0
     488:	7c000000 	stcvc	0, cr0, [r0], {-0}
     48c:	a8000002 	stmdage	r0, {r1}
     490:	01000002 	tsteq	r0, r2
     494:	02a85000 	adceq	r5, r8, #0
     498:	035c0000 	cmpeq	ip, #0
     49c:	00010000 	andeq	r0, r1, r0
     4a0:	00035c55 	andeq	r5, r3, r5, asr ip
     4a4:	00036000 	andeq	r6, r3, r0
     4a8:	50000100 	andpl	r0, r0, r0, lsl #2
     4ac:	00000360 	andeq	r0, r0, r0, ror #6
     4b0:	00000364 	andeq	r0, r0, r4, ror #6
     4b4:	01f30004 	mvnseq	r0, r4
     4b8:	03649f50 	cmneq	r4, #80, 30	; 0x140
     4bc:	03840000 	orreq	r0, r4, #0
     4c0:	00010000 	andeq	r0, r1, r0
     4c4:	00000055 	andeq	r0, r0, r5, asr r0
     4c8:	00000000 	andeq	r0, r0, r0
     4cc:	00027c00 	andeq	r7, r2, r0, lsl #24
     4d0:	0002ab00 	andeq	sl, r2, r0, lsl #22
     4d4:	51000100 	mrspl	r0, (UNDEF: 16)
     4d8:	000002ab 	andeq	r0, r0, fp, lsr #5
     4dc:	0000035c 	andeq	r0, r0, ip, asr r3
     4e0:	01f30004 	mvnseq	r0, r4
     4e4:	035c9f51 	cmpeq	ip, #324	; 0x144
     4e8:	03640000 	cmneq	r4, #0
     4ec:	00010000 	andeq	r0, r1, r0
     4f0:	00036451 	andeq	r6, r3, r1, asr r4
     4f4:	00038400 	andeq	r8, r3, r0, lsl #8
     4f8:	f3000400 	vshl.u8	d0, d0, d0
     4fc:	009f5101 	addseq	r5, pc, r1, lsl #2
     500:	00000000 	andeq	r0, r0, r0
     504:	7c000000 	stcvc	0, cr0, [r0], {-0}
     508:	ab000002 	blge	518 <_start-0x7ae8>
     50c:	01000002 	tsteq	r0, r2
     510:	02ab5200 	adceq	r5, fp, #0, 4
     514:	035c0000 	cmpeq	ip, #0
     518:	00010000 	andeq	r0, r1, r0
     51c:	00035c56 	andeq	r5, r3, r6, asr ip
     520:	00036400 	andeq	r6, r3, r0, lsl #8
     524:	52000100 	andpl	r0, r0, #0, 2
     528:	00000364 	andeq	r0, r0, r4, ror #6
     52c:	00000384 	andeq	r0, r0, r4, lsl #7
     530:	00560001 	subseq	r0, r6, r1
     534:	00000000 	andeq	r0, r0, r0
     538:	80000000 	andhi	r0, r0, r0
     53c:	84000002 	strhi	r0, [r0], #-2
     540:	02000002 	andeq	r0, r0, #2
     544:	849f3000 	ldrhi	r3, [pc], #0	; 54c <_start-0x7ab4>
     548:	b4000002 	strlt	r0, [r0], #-2
     54c:	01000002 	tsteq	r0, r2
     550:	035c5400 	cmpeq	ip, #0, 8
     554:	03640000 	cmneq	r4, #0
     558:	00010000 	andeq	r0, r1, r0
     55c:	00000054 	andeq	r0, r0, r4, asr r0
     560:	00000000 	andeq	r0, r0, r0
     564:	0002b400 	andeq	fp, r2, r0, lsl #8
     568:	00035c00 	andeq	r5, r3, r0, lsl #24
     56c:	54000100 	strpl	r0, [r0], #-256	; 0xffffff00
     570:	00000364 	andeq	r0, r0, r4, ror #6
     574:	00000384 	andeq	r0, r0, r4, lsl #7
     578:	00540001 	subseq	r0, r4, r1
     57c:	00000000 	andeq	r0, r0, r0
     580:	dc000000 	stcle	0, cr0, [r0], {-0}
     584:	5c000002 	stcpl	0, cr0, [r0], {2}
     588:	01000003 	tsteq	r0, r3
     58c:	03645600 	cmneq	r4, #0, 12
     590:	03840000 	orreq	r0, r4, #0
     594:	00010000 	andeq	r0, r1, r0
     598:	00000056 	andeq	r0, r0, r6, asr r0
     59c:	00000000 	andeq	r0, r0, r0
     5a0:	0002f000 	andeq	pc, r2, r0
     5a4:	00031800 	andeq	r1, r3, r0, lsl #16
     5a8:	76000300 	strvc	r0, [r0], -r0, lsl #6
     5ac:	03189f10 	tsteq	r8, #16, 30	; 0x40
     5b0:	035c0000 	cmpeq	ip, #0
     5b4:	00030000 	andeq	r0, r3, r0
     5b8:	649f1c76 	ldrvs	r1, [pc], #3190	; 5c0 <_start-0x7a40>
     5bc:	84000003 	strhi	r0, [r0], #-3
     5c0:	03000003 	movweq	r0, #3
     5c4:	9f1c7600 	svcls	0x001c7600
	...
     5d0:	00000188 	andeq	r0, r0, r8, lsl #3
     5d4:	000001a0 	andeq	r0, r0, r0, lsr #3
     5d8:	a0500001 	subsge	r0, r0, r1
     5dc:	14000001 	strne	r0, [r0], #-1
     5e0:	01000002 	tsteq	r0, r2
     5e4:	02145400 	andseq	r5, r4, #0, 8
     5e8:	021b0000 	andseq	r0, fp, #0
     5ec:	00010000 	andeq	r0, r1, r0
     5f0:	00021b50 	andeq	r1, r2, r0, asr fp
     5f4:	00027c00 	andeq	r7, r2, r0, lsl #24
     5f8:	54000100 	strpl	r0, [r0], #-256	; 0xffffff00
	...
     604:	000001c4 	andeq	r0, r0, r4, asr #3
     608:	00000214 	andeq	r0, r0, r4, lsl r2
     60c:	2c540001 	mrrccs	0, 0, r0, r4, cr1
     610:	7c000002 	stcvc	0, cr0, [r0], {2}
     614:	01000002 	tsteq	r0, r2
     618:	00005400 	andeq	r5, r0, r0, lsl #8
     61c:	00000000 	andeq	r0, r0, r0
     620:	01d80000 	bicseq	r0, r8, r0
     624:	02000000 	andeq	r0, r0, #0
     628:	00030000 	andeq	r0, r3, r0
     62c:	009f1074 	addseq	r1, pc, r4, ror r0	; <UNPREDICTABLE>
     630:	14000002 	strne	r0, [r0], #-2
     634:	03000002 	movweq	r0, #2
     638:	9f1c7400 	svcls	0x001c7400
     63c:	0000022c 	andeq	r0, r0, ip, lsr #4
     640:	0000027c 	andeq	r0, r0, ip, ror r2
     644:	1c740003 	ldclne	0, cr0, [r4], #-12
     648:	0000009f 	muleq	r0, pc, r0	; <UNPREDICTABLE>
     64c:	00000000 	andeq	r0, r0, r0
     650:	00016400 	andeq	r6, r1, r0, lsl #8
     654:	00017f00 	andeq	r7, r1, r0, lsl #30
     658:	50000100 	andpl	r0, r0, r0, lsl #2
     65c:	0000017f 	andeq	r0, r0, pc, ror r1
     660:	00000188 	andeq	r0, r0, r8, lsl #3
     664:	00540001 	subseq	r0, r4, r1
     668:	00000000 	andeq	r0, r0, r0
     66c:	3c000000 	stccc	0, cr0, [r0], {-0}
     670:	40000000 	andmi	r0, r0, r0
     674:	01000000 	mrseq	r0, (UNDEF: 0)
     678:	00405000 	subeq	r5, r0, r0
     67c:	00440000 	subeq	r0, r4, r0
     680:	00040000 	andeq	r0, r4, r0
     684:	9f01b870 	svcls	0x0001b870
	...
     690:	00000030 	andeq	r0, r0, r0, lsr r0
     694:	00000034 	andeq	r0, r0, r4, lsr r0
     698:	34500001 	ldrbcc	r0, [r0], #-1
     69c:	3c000000 	stccc	0, cr0, [r0], {-0}
     6a0:	04000000 	streq	r0, [r0], #-0
     6a4:	5001f300 	andpl	pc, r1, r0, lsl #6
     6a8:	0000009f 	muleq	r0, pc, r0	; <UNPREDICTABLE>
     6ac:	00000000 	andeq	r0, r0, r0
     6b0:	00001800 	andeq	r1, r0, r0, lsl #16
     6b4:	00002300 	andeq	r2, r0, r0, lsl #6
     6b8:	50000100 	andpl	r0, r0, r0, lsl #2
     6bc:	00000023 	andeq	r0, r0, r3, lsr #32
     6c0:	00000030 	andeq	r0, r0, r0, lsr r0
     6c4:	00540001 	subseq	r0, r4, r1
     6c8:	00000000 	andeq	r0, r0, r0
     6cc:	08000000 	stmdaeq	r0, {}	; <UNPREDICTABLE>
     6d0:	0f000000 	svceq	0x00000000
     6d4:	01000000 	mrseq	r0, (UNDEF: 0)
     6d8:	000f5000 	andeq	r5, pc, r0
     6dc:	00180000 	andseq	r0, r8, r0
     6e0:	00040000 	andeq	r0, r4, r0
     6e4:	9f5001f3 	svcls	0x005001f3
	...
     6f4:	00000004 	andeq	r0, r0, r4
     6f8:	04500001 	ldrbeq	r0, [r0], #-1
     6fc:	08000000 	stmdaeq	r0, {}	; <UNPREDICTABLE>
     700:	03000000 	movweq	r0, #0
     704:	9f487000 	svcls	0x00487000
	...
     710:	000003e8 	andeq	r0, r0, r8, ror #7
     714:	00000410 	andeq	r0, r0, r0, lsl r4
     718:	10500001 	subsne	r0, r0, r1
     71c:	24000004 	strcs	r0, [r0], #-4
     720:	01000004 	tsteq	r0, r4
     724:	04245400 	strteq	r5, [r4], #-1024	; 0xfffffc00
     728:	042c0000 	strteq	r0, [ip], #-0
     72c:	00050000 	andeq	r0, r5, r0
     730:	009b8c03 	addseq	r8, fp, r3, lsl #24
     734:	00042c00 	andeq	r2, r4, r0, lsl #24
     738:	00042f00 	andeq	r2, r4, r0, lsl #30
     73c:	50000100 	andpl	r0, r0, r0, lsl #2
     740:	0000042f 	andeq	r0, r0, pc, lsr #8
     744:	0000045c 	andeq	r0, r0, ip, asr r4
     748:	01f30004 	mvnseq	r0, r4
     74c:	00009f50 	andeq	r9, r0, r0, asr pc
     750:	00000000 	andeq	r0, r0, r0
     754:	03e80000 	mvneq	r0, #0
     758:	040c0000 	streq	r0, [ip], #-0
     75c:	00010000 	andeq	r0, r1, r0
     760:	00040c51 	andeq	r0, r4, r1, asr ip
     764:	00042c00 	andeq	r2, r4, r0, lsl #24
     768:	55000100 	strpl	r0, [r0, #-256]	; 0xffffff00
     76c:	0000042c 	andeq	r0, r0, ip, lsr #8
     770:	0000042f 	andeq	r0, r0, pc, lsr #8
     774:	2f510001 	svccs	0x00510001
     778:	5c000004 	stcpl	0, cr0, [r0], {4}
     77c:	04000004 	streq	r0, [r0], #-4
     780:	5101f300 	mrspl	pc, SP_irq	; <UNPREDICTABLE>
     784:	0000009f 	muleq	r0, pc, r0	; <UNPREDICTABLE>
     788:	00000000 	andeq	r0, r0, r0
     78c:	00002c00 	andeq	r2, r0, r0, lsl #24
     790:	00003800 	andeq	r3, r0, r0, lsl #16
     794:	50000100 	andpl	r0, r0, r0, lsl #2
     798:	00000038 	andeq	r0, r0, r8, lsr r0
     79c:	00000048 	andeq	r0, r0, r8, asr #32
     7a0:	48550001 	ldmdami	r5, {r0}^
     7a4:	58000000 	stmdapl	r0, {}	; <UNPREDICTABLE>
     7a8:	01000000 	mrseq	r0, (UNDEF: 0)
     7ac:	00005000 	andeq	r5, r0, r0
     7b0:	00000000 	andeq	r0, r0, r0
     7b4:	02840000 	addeq	r0, r4, #0
     7b8:	02a80000 	adceq	r0, r8, #0
     7bc:	00010000 	andeq	r0, r1, r0
     7c0:	0002a850 	andeq	sl, r2, r0, asr r8
     7c4:	00053000 	andeq	r3, r5, r0
     7c8:	59000100 	stmdbpl	r0, {r8}
     7cc:	00000530 	andeq	r0, r0, r0, lsr r5
     7d0:	00000544 	andeq	r0, r0, r4, asr #10
     7d4:	01f30004 	mvnseq	r0, r4
     7d8:	00009f50 	andeq	r9, r0, r0, asr pc
     7dc:	00000000 	andeq	r0, r0, r0
     7e0:	02840000 	addeq	r0, r4, #0
     7e4:	02980000 	addseq	r0, r8, #0
     7e8:	00010000 	andeq	r0, r1, r0
     7ec:	00029851 	andeq	r9, r2, r1, asr r8
     7f0:	0002a800 	andeq	sl, r2, r0, lsl #16
     7f4:	71000300 	mrsvc	r0, LR_irq
     7f8:	02a89f01 	adceq	r9, r8, #1, 30
     7fc:	05440000 	strbeq	r0, [r4, #-0]
     800:	00040000 	andeq	r0, r4, r0
     804:	9f5101f3 	svcls	0x005101f3
	...
     810:	00000284 	andeq	r0, r0, r4, lsl #5
     814:	000002c4 	andeq	r0, r0, r4, asr #5
     818:	c4520001 	ldrbgt	r0, [r2], #-1
     81c:	dc000002 	stcle	0, cr0, [r0], {2}
     820:	01000002 	tsteq	r0, r2
     824:	02dc5200 	sbcseq	r5, ip, #0, 4
     828:	02e40000 	rsceq	r0, r4, #0
     82c:	00010000 	andeq	r0, r1, r0
     830:	0002e455 	andeq	lr, r2, r5, asr r4
     834:	0002f400 	andeq	pc, r2, r0, lsl #8
     838:	52000100 	andpl	r0, r0, #0, 2
     83c:	000002f4 	strdeq	r0, [r0], -r4
     840:	000003f8 	strdeq	r0, [r0], -r8
     844:	f8550001 			; <UNDEFINED> instruction: 0xf8550001
     848:	fc000003 	stc2	0, cr0, [r0], {3}
     84c:	01000003 	tsteq	r0, r3
     850:	03fc5200 	mvnseq	r5, #0, 4
     854:	04f40000 	ldrbteq	r0, [r4], #0
     858:	00010000 	andeq	r0, r1, r0
     85c:	0004f455 	andeq	pc, r4, r5, asr r4	; <UNPREDICTABLE>
     860:	00054400 	andeq	r4, r5, r0, lsl #8
     864:	52000100 	andpl	r0, r0, #0, 2
	...
     870:	00000294 	muleq	r0, r4, r2
     874:	000002a8 	andeq	r0, r0, r8, lsr #5
     878:	a8500001 	ldmdage	r0, {r0}^
     87c:	c0000002 	andgt	r0, r0, r2
     880:	01000002 	tsteq	r0, r2
     884:	02c05600 	sbceq	r5, r0, #0, 12
     888:	02cc0000 	sbceq	r0, ip, #0
     88c:	00030000 	andeq	r0, r3, r0
     890:	cc9f0176 	ldfgts	f0, [pc], {118}	; 0x76
     894:	e4000002 	str	r0, [r0], #-2
     898:	01000002 	tsteq	r0, r2
     89c:	02e45600 	rsceq	r5, r4, #0, 12
     8a0:	02f00000 	rscseq	r0, r0, #0
     8a4:	00030000 	andeq	r0, r3, r0
     8a8:	f09f0176 			; <UNDEFINED> instruction: 0xf09f0176
     8ac:	f4000002 	vst4.8	{d0-d3}, [r0], r2
     8b0:	01000004 	tsteq	r0, r4
     8b4:	04f45600 	ldrbteq	r5, [r4], #1536	; 0x600
     8b8:	05000000 	streq	r0, [r0, #-0]
     8bc:	00030000 	andeq	r0, r3, r0
     8c0:	009f0176 	addseq	r0, pc, r6, ror r1	; <UNPREDICTABLE>
     8c4:	1c000005 	stcne	0, cr0, [r0], {5}
     8c8:	01000005 	tsteq	r0, r5
     8cc:	051c5600 	ldreq	r5, [ip, #-1536]	; 0xfffffa00
     8d0:	05280000 	streq	r0, [r8, #-0]!
     8d4:	00010000 	andeq	r0, r1, r0
     8d8:	00052850 	andeq	r2, r5, r0, asr r8
     8dc:	00053000 	andeq	r3, r5, r0
     8e0:	76000300 	strvc	r0, [r0], -r0, lsl #6
     8e4:	00009f01 	andeq	r9, r0, r1, lsl #30
     8e8:	00000000 	andeq	r0, r0, r0
     8ec:	029c0000 	addseq	r0, ip, #0
     8f0:	05300000 	ldreq	r0, [r0, #-0]!
     8f4:	00010000 	andeq	r0, r1, r0
     8f8:	00053058 	andeq	r3, r5, r8, asr r0
     8fc:	00054400 	andeq	r4, r5, r0, lsl #8
     900:	f3000a00 	vpmax.u8	d0, d0, d0
     904:	01f35101 	mvnseq	r5, r1, lsl #2
     908:	1c312250 	lfmne	f2, 4, [r1], #-320	; 0xfffffec0
     90c:	0000009f 	muleq	r0, pc, r0	; <UNPREDICTABLE>
     910:	00000000 	andeq	r0, r0, r0
     914:	0003f400 	andeq	pc, r3, r0, lsl #8
     918:	0003fc00 	andeq	pc, r3, r0, lsl #24
     91c:	50000100 	andpl	r0, r0, r0, lsl #2
     920:	00000428 	andeq	r0, r0, r8, lsr #8
     924:	0000042c 	andeq	r0, r0, ip, lsr #8
     928:	58500001 	ldmdapl	r0, {r0}^
     92c:	5c000004 	stcpl	0, cr0, [r0], {4}
     930:	01000004 	tsteq	r0, r4
     934:	04885000 	streq	r5, [r8], #0
     938:	048c0000 	streq	r0, [ip], #0
     93c:	00010000 	andeq	r0, r1, r0
     940:	0004cc50 	andeq	ip, r4, r0, asr ip
     944:	0004d000 	andeq	sp, r4, r0
     948:	50000100 	andpl	r0, r0, r0, lsl #2
     94c:	000004f4 	strdeq	r0, [r0], -r4
     950:	00000518 	andeq	r0, r0, r8, lsl r5
     954:	00500001 	subseq	r0, r0, r1
     958:	00000000 	andeq	r0, r0, r0
     95c:	dc000000 	stcle	0, cr0, [r0], {-0}
     960:	e4000002 	str	r0, [r0], #-2
     964:	02000002 	andeq	r0, r0, #2
     968:	f49f3000 			; <UNDEFINED> instruction: 0xf49f3000
     96c:	f8000002 			; <UNDEFINED> instruction: 0xf8000002
     970:	01000002 	tsteq	r0, r2
     974:	03045400 	movweq	r5, #17408	; 0x4400
     978:	05180000 	ldreq	r0, [r8, #-0]
     97c:	00010000 	andeq	r0, r1, r0
     980:	00000054 	andeq	r0, r0, r4, asr r0
     984:	00000000 	andeq	r0, r0, r0
     988:	00008000 	andeq	r8, r0, r0
     98c:	0000a400 	andeq	sl, r0, r0, lsl #8
     990:	50000100 	andpl	r0, r0, r0, lsl #2
     994:	000000a4 	andeq	r0, r0, r4, lsr #1
     998:	000000f0 	strdeq	r0, [r0], -r0	; <UNPREDICTABLE>
     99c:	02700003 	rsbseq	r0, r0, #3
     9a0:	0000f09f 	muleq	r0, pc, r0	; <UNPREDICTABLE>
     9a4:	00023000 	andeq	r3, r2, r0
     9a8:	f3000400 	vshl.u8	d0, d0, d0
     9ac:	009f5001 	addseq	r5, pc, r1
     9b0:	00000000 	andeq	r0, r0, r0
     9b4:	80000000 	andhi	r0, r0, r0
     9b8:	a0000000 	andge	r0, r0, r0
     9bc:	01000000 	mrseq	r0, (UNDEF: 0)
     9c0:	00a05100 	adceq	r5, r0, r0, lsl #2
     9c4:	02300000 	eorseq	r0, r0, #0
     9c8:	00010000 	andeq	r0, r1, r0
     9cc:	00000055 	andeq	r0, r0, r5, asr r0
     9d0:	00000000 	andeq	r0, r0, r0
     9d4:	00008000 	andeq	r8, r0, r0
     9d8:	00009400 	andeq	r9, r0, r0, lsl #8
     9dc:	52000100 	andpl	r0, r0, #0, 2
     9e0:	00000094 	muleq	r0, r4, r0
     9e4:	00000230 	andeq	r0, r0, r0, lsr r2
     9e8:	00540001 	subseq	r0, r4, r1
     9ec:	00000000 	andeq	r0, r0, r0
     9f0:	80000000 	andhi	r0, r0, r0
     9f4:	ec000000 	stc	0, cr0, [r0], {-0}
     9f8:	01000000 	mrseq	r0, (UNDEF: 0)
     9fc:	00ec5300 	rsceq	r5, ip, r0, lsl #6
     a00:	01040000 	mrseq	r0, (UNDEF: 4)
     a04:	00010000 	andeq	r0, r1, r0
     a08:	00011051 	andeq	r1, r1, r1, asr r0
     a0c:	00011800 	andeq	r1, r1, r0, lsl #16
     a10:	51000100 	mrspl	r0, (UNDEF: 16)
     a14:	00000168 	andeq	r0, r0, r8, ror #2
     a18:	0000016c 	andeq	r0, r0, ip, ror #2
     a1c:	6c510001 	mrrcvs	0, 0, r0, r1, cr1
     a20:	a0000001 	andge	r0, r0, r1
     a24:	04000001 	streq	r0, [r0], #-1
     a28:	5301f300 	movwpl	pc, #4864	; 0x1300	; <UNPREDICTABLE>
     a2c:	0001c49f 	muleq	r1, pc, r4	; <UNPREDICTABLE>
     a30:	0001d400 	andeq	sp, r1, r0, lsl #8
     a34:	51000100 	mrspl	r0, (UNDEF: 16)
     a38:	000001d4 	ldrdeq	r0, [r0], -r4
     a3c:	000001f8 	strdeq	r0, [r0], -r8
     a40:	01f30004 	mvnseq	r0, r4
     a44:	01f89f53 	mvnseq	r9, r3, asr pc
     a48:	01fb0000 	mvnseq	r0, r0
     a4c:	00010000 	andeq	r0, r1, r0
     a50:	0001fb51 	andeq	pc, r1, r1, asr fp	; <UNPREDICTABLE>
     a54:	00023000 	andeq	r3, r2, r0
     a58:	f3000400 	vshl.u8	d0, d0, d0
     a5c:	009f5301 	addseq	r5, pc, r1, lsl #6
     a60:	00000000 	andeq	r0, r0, r0
     a64:	80000000 	andhi	r0, r0, r0
     a68:	9c000000 	stcls	0, cr0, [r0], {-0}
     a6c:	02000000 	andeq	r0, r0, #0
     a70:	9c009100 	stflsd	f1, [r0], {-0}
     a74:	a7000000 	strge	r0, [r0, -r0]
     a78:	01000001 	tsteq	r0, r1
     a7c:	01c45200 	biceq	r5, r4, r0, lsl #4
     a80:	01fb0000 	mvnseq	r0, r0
     a84:	00010000 	andeq	r0, r1, r0
     a88:	00000052 	andeq	r0, r0, r2, asr r0
     a8c:	00000000 	andeq	r0, r0, r0
     a90:	00009c00 	andeq	r9, r0, r0, lsl #24
     a94:	00011800 	andeq	r1, r1, r0, lsl #16
     a98:	5d000100 	stfpls	f0, [r0, #-0]
     a9c:	00000118 	andeq	r0, r0, r8, lsl r1
     aa0:	0000011c 	andeq	r0, r0, ip, lsl r1
     aa4:	1c500001 	mrrcne	0, 0, r0, r0, cr1	; <UNPREDICTABLE>
     aa8:	20000001 	andcs	r0, r0, r1
     aac:	01000001 	tsteq	r0, r1
     ab0:	01205c00 			; <UNDEFINED> instruction: 0x01205c00
     ab4:	01580000 	cmpeq	r8, r0
     ab8:	00010000 	andeq	r0, r1, r0
     abc:	00015850 	andeq	r5, r1, r0, asr r8
     ac0:	00016400 	andeq	r6, r1, r0, lsl #8
     ac4:	7c000300 	stcvc	3, cr0, [r0], {-0}
     ac8:	01649f02 	cmneq	r4, r2, lsl #30
     acc:	01680000 	cmneq	r8, r0
     ad0:	00010000 	andeq	r0, r1, r0
     ad4:	00016850 	andeq	r6, r1, r0, asr r8
     ad8:	00016c00 	andeq	r6, r1, r0, lsl #24
     adc:	5d000100 	stfpls	f0, [r0, #-0]
     ae0:	0000016c 	andeq	r0, r0, ip, ror #2
     ae4:	00000170 	andeq	r0, r0, r0, ror r1
     ae8:	70530001 	subsvc	r0, r3, r1
     aec:	8c000001 	stchi	0, cr0, [r0], {1}
     af0:	01000001 	tsteq	r0, r1
     af4:	018c5c00 	orreq	r5, ip, r0, lsl #24
     af8:	01980000 	orrseq	r0, r8, r0
     afc:	00030000 	andeq	r0, r3, r0
     b00:	989f027c 	ldmls	pc, {r2, r3, r4, r5, r6, r9}	; <UNPREDICTABLE>
     b04:	a7000001 	strge	r0, [r0, -r1]
     b08:	01000001 	tsteq	r0, r1
     b0c:	01c45000 	biceq	r5, r4, r0
     b10:	01cc0000 	biceq	r0, ip, r0
     b14:	00040000 	andeq	r0, r4, r0
     b18:	9f7fa191 	svcls	0x007fa191
     b1c:	000001cc 	andeq	r0, r0, ip, asr #3
     b20:	000001d0 	ldrdeq	r0, [r0], -r0	; <UNPREDICTABLE>
     b24:	d0500001 	subsle	r0, r0, r1
     b28:	d4000001 	strle	r0, [r0], #-1
     b2c:	01000001 	tsteq	r0, r1
     b30:	01d45d00 	bicseq	r5, r4, r0, lsl #26
     b34:	01d80000 	bicseq	r0, r8, r0
     b38:	00010000 	andeq	r0, r1, r0
     b3c:	0001d853 	andeq	sp, r1, r3, asr r8
     b40:	0001f800 	andeq	pc, r1, r0, lsl #16
     b44:	50000100 	andpl	r0, r0, r0, lsl #2
     b48:	000001f8 	strdeq	r0, [r0], -r8
     b4c:	00000230 	andeq	r0, r0, r0, lsr r2
     b50:	005d0001 	subseq	r0, sp, r1
     b54:	00000000 	andeq	r0, r0, r0
     b58:	a0000000 	andge	r0, r0, r0
     b5c:	40000000 	andmi	r0, r0, r0
     b60:	01000001 	tsteq	r0, r1
     b64:	014c5100 	mrseq	r5, (UNDEF: 92)
     b68:	01800000 	orreq	r0, r0, r0
     b6c:	00010000 	andeq	r0, r1, r0
     b70:	00018051 	andeq	r8, r1, r1, asr r0
     b74:	00018800 	andeq	r8, r1, r0, lsl #16
     b78:	71000500 	tstvc	r0, r0, lsl #10
     b7c:	9f253400 	svcls	0x00253400
     b80:	00000188 	andeq	r0, r0, r8, lsl #3
     b84:	000001a4 	andeq	r0, r0, r4, lsr #3
     b88:	c4510001 	ldrbgt	r0, [r1], #-1
     b8c:	e8000001 	stmda	r0, {r0}
     b90:	01000001 	tsteq	r0, r1
     b94:	01e85100 	mvneq	r5, r0, lsl #2
     b98:	01f00000 	mvnseq	r0, r0
     b9c:	00050000 	andeq	r0, r5, r0
     ba0:	25310071 	ldrcs	r0, [r1, #-113]!	; 0xffffff8f
     ba4:	0001f09f 	muleq	r1, pc, r0	; <UNPREDICTABLE>
     ba8:	0001fb00 	andeq	pc, r1, r0, lsl #22
     bac:	51000100 	mrspl	r0, (UNDEF: 16)
     bb0:	000001fb 	strdeq	r0, [r0], -fp
     bb4:	00000230 	andeq	r0, r0, r0, lsr r2
     bb8:	01f30004 	mvnseq	r0, r4
     bbc:	00009f53 	andeq	r9, r0, r3, asr pc
     bc0:	00000000 	andeq	r0, r0, r0
     bc4:	00ec0000 	rsceq	r0, ip, r0
     bc8:	01000000 	mrseq	r0, (UNDEF: 0)
     bcc:	00020000 	andeq	r0, r2, r0
     bd0:	01009f30 	tsteq	r0, r0, lsr pc
     bd4:	01080000 	mrseq	r0, (UNDEF: 8)
     bd8:	00020000 	andeq	r0, r2, r0
     bdc:	01109f31 	tsteq	r0, r1, lsr pc
     be0:	01180000 	tsteq	r8, r0
     be4:	00020000 	andeq	r0, r2, r0
     be8:	01189f30 	tsteq	r8, r0, lsr pc
     bec:	01680000 	cmneq	r8, r0
     bf0:	00010000 	andeq	r0, r1, r0
     bf4:	00000057 	andeq	r0, r0, r7, asr r0
     bf8:	00000000 	andeq	r0, r0, r0
     bfc:	00004000 	andeq	r4, r0, r0
     c00:	00006000 	andeq	r6, r0, r0
     c04:	50000100 	andpl	r0, r0, r0, lsl #2
     c08:	00000060 	andeq	r0, r0, r0, rrx
     c0c:	0000006c 	andeq	r0, r0, ip, rrx
     c10:	01710003 	cmneq	r1, r3
     c14:	00006c9f 	muleq	r0, pc, ip	; <UNPREDICTABLE>
     c18:	00007400 	andeq	r7, r0, r0, lsl #8
     c1c:	51000100 	mrspl	r0, (UNDEF: 16)
     c20:	00000074 	andeq	r0, r0, r4, ror r0
     c24:	00000080 	andeq	r0, r0, r0, lsl #1
     c28:	01710003 	cmneq	r1, r3
     c2c:	0000009f 	muleq	r0, pc, r0	; <UNPREDICTABLE>
     c30:	00000000 	andeq	r0, r0, r0
     c34:	00004000 	andeq	r4, r0, r0
     c38:	00005c00 	andeq	r5, r0, r0, lsl #24
     c3c:	51000100 	mrspl	r0, (UNDEF: 16)
     c40:	0000005c 	andeq	r0, r0, ip, asr r0
     c44:	00000080 	andeq	r0, r0, r0, lsl #1
     c48:	01f30004 	mvnseq	r0, r4
     c4c:	00009f51 	andeq	r9, r0, r1, asr pc
     c50:	00000000 	andeq	r0, r0, r0
     c54:	00400000 	subeq	r0, r0, r0
     c58:	00580000 	subseq	r0, r8, r0
     c5c:	00010000 	andeq	r0, r1, r0
     c60:	00005852 	andeq	r5, r0, r2, asr r8
     c64:	00006400 	andeq	r6, r0, r0, lsl #8
     c68:	52000100 	andpl	r0, r0, #0, 2
     c6c:	00000064 	andeq	r0, r0, r4, rrx
     c70:	00000068 	andeq	r0, r0, r8, rrx
     c74:	01720003 	cmneq	r2, r3
     c78:	0000689f 	muleq	r0, pc, r8	; <UNPREDICTABLE>
     c7c:	00008000 	andeq	r8, r0, r0
     c80:	52000100 	andpl	r0, r0, #0, 2
	...
     c8c:	00000040 	andeq	r0, r0, r0, asr #32
     c90:	00000054 	andeq	r0, r0, r4, asr r0
     c94:	54530001 	ldrbpl	r0, [r3], #-1
     c98:	78000000 	stmdavc	r0, {}	; <UNPREDICTABLE>
     c9c:	01000000 	mrseq	r0, (UNDEF: 0)
     ca0:	00005300 	andeq	r5, r0, r0, lsl #6
     ca4:	00000000 	andeq	r0, r0, r0
     ca8:	00480000 	subeq	r0, r8, r0
     cac:	00500000 	subseq	r0, r0, r0
     cb0:	00010000 	andeq	r0, r1, r0
     cb4:	0000505c 	andeq	r5, r0, ip, asr r0
     cb8:	00005400 	andeq	r5, r0, r0, lsl #8
     cbc:	72000800 	andvc	r0, r0, #0, 16
     cc0:	1c007300 	stcne	3, cr7, [r0], {-0}
     cc4:	549f0123 	ldrpl	r0, [pc], #291	; ccc <_start-0x7334>
     cc8:	58000000 	stmdapl	r0, {}	; <UNPREDICTABLE>
     ccc:	09000000 	stmdbeq	r0, {}	; <UNPREDICTABLE>
     cd0:	f3007200 	vhsub.u8	d7, d0, d0
     cd4:	231c5301 	tstcs	ip, #67108864	; 0x4000000
     cd8:	00589f01 	subseq	r9, r8, r1, lsl #30
     cdc:	00600000 	rsbeq	r0, r0, r0
     ce0:	00090000 	andeq	r0, r9, r0
     ce4:	01f30072 	mvnseq	r0, r2, ror r0
     ce8:	02231c53 	eoreq	r1, r3, #21248	; 0x5300
     cec:	0000609f 	muleq	r0, pc, r0	; <UNPREDICTABLE>
     cf0:	00008000 	andeq	r8, r0, r0
     cf4:	f3000a00 	vpmax.u8	d0, d0, d0
     cf8:	01f35201 	mvnseq	r5, r1, lsl #4
     cfc:	01231c53 			; <UNDEFINED> instruction: 0x01231c53
     d00:	0000009f 	muleq	r0, pc, r0	; <UNPREDICTABLE>
     d04:	00000000 	andeq	r0, r0, r0
     d08:	00001400 	andeq	r1, r0, r0, lsl #8
     d0c:	00001c00 	andeq	r1, r0, r0, lsl #24
     d10:	50000100 	andpl	r0, r0, r0, lsl #2
     d14:	0000001c 	andeq	r0, r0, ip, lsl r0
     d18:	0000002c 	andeq	r0, r0, ip, lsr #32
     d1c:	01700003 	cmneq	r0, r3
     d20:	00002c9f 	muleq	r0, pc, ip	; <UNPREDICTABLE>
     d24:	00004000 	andeq	r4, r0, r0
     d28:	50000100 	andpl	r0, r0, r0, lsl #2
	...
     d34:	00000014 	andeq	r0, r0, r4, lsl r0
     d38:	00000018 	andeq	r0, r0, r8, lsl r0
     d3c:	18510001 	ldmdane	r1, {r0}^
     d40:	40000000 	andmi	r0, r0, r0
     d44:	04000000 	streq	r0, [r0], #-0
     d48:	5101f300 	mrspl	pc, SP_irq	; <UNPREDICTABLE>
     d4c:	0000009f 	muleq	r0, pc, r0	; <UNPREDICTABLE>
	...
     d58:	00000400 	andeq	r0, r0, r0, lsl #8
     d5c:	50000100 	andpl	r0, r0, r0, lsl #2
     d60:	00000004 	andeq	r0, r0, r4
     d64:	0000000c 	andeq	r0, r0, ip
     d68:	30700003 	rsbscc	r0, r0, r3
     d6c:	00000c9f 	muleq	r0, pc, ip	; <UNPREDICTABLE>
     d70:	00001400 	andeq	r1, r0, r0, lsl #8
     d74:	f3000400 	vshl.u8	d0, d0, d0
     d78:	009f5001 	addseq	r5, pc, r1
     d7c:	00000000 	andeq	r0, r0, r0
     d80:	30000000 	andcc	r0, r0, r0
     d84:	57000002 	strpl	r0, [r0, -r2]
     d88:	01000002 	tsteq	r0, r2
     d8c:	02575000 	subseq	r5, r7, #0
     d90:	02840000 	addeq	r0, r4, #0
     d94:	00040000 	andeq	r0, r4, r0
     d98:	9f5001f3 	svcls	0x005001f3
	...
     da4:	00000230 	andeq	r0, r0, r0, lsr r2
     da8:	00000257 	andeq	r0, r0, r7, asr r2
     dac:	57510001 	ldrbpl	r0, [r1, -r1]
     db0:	84000002 	strhi	r0, [r0], #-2
     db4:	04000002 	streq	r0, [r0], #-2
     db8:	5101f300 	mrspl	pc, SP_irq	; <UNPREDICTABLE>
     dbc:	0000009f 	muleq	r0, pc, r0	; <UNPREDICTABLE>
	...
     dc8:	00002000 	andeq	r2, r0, r0
     dcc:	50000100 	andpl	r0, r0, r0, lsl #2
     dd0:	00000020 	andeq	r0, r0, r0, lsr #32
     dd4:	000000e0 	andeq	r0, r0, r0, ror #1
     dd8:	01f30004 	mvnseq	r0, r4
     ddc:	00e09f50 	rsceq	r9, r0, r0, asr pc
     de0:	00e40000 	rsceq	r0, r4, r0
     de4:	00010000 	andeq	r0, r1, r0
     de8:	0000e450 	andeq	lr, r0, r0, asr r4
     dec:	0000e800 	andeq	lr, r0, r0, lsl #16
     df0:	f3000400 	vshl.u8	d0, d0, d0
     df4:	009f5001 	addseq	r5, pc, r1
	...
     e00:	1c000000 	stcne	0, cr0, [r0], {-0}
     e04:	01000000 	mrseq	r0, (UNDEF: 0)
     e08:	001c5100 	andseq	r5, ip, r0, lsl #2
     e0c:	00700000 	rsbseq	r0, r0, r0
     e10:	00010000 	andeq	r0, r1, r0
     e14:	00008c51 	andeq	r8, r0, r1, asr ip
     e18:	00009000 	andeq	r9, r0, r0
     e1c:	51000100 	mrspl	r0, (UNDEF: 16)
     e20:	000000b0 	strheq	r0, [r0], -r0	; <UNPREDICTABLE>
     e24:	000000b4 	strheq	r0, [r0], -r4
     e28:	cc510001 	mrrcgt	0, 0, r0, r1, cr1
     e2c:	e8000000 	stmda	r0, {}	; <UNPREDICTABLE>
     e30:	01000000 	mrseq	r0, (UNDEF: 0)
     e34:	00005100 	andeq	r5, r0, r0, lsl #2
	...
     e40:	00740000 	rsbseq	r0, r4, r0
     e44:	00010000 	andeq	r0, r1, r0
     e48:	00008c50 	andeq	r8, r0, r0, asr ip
     e4c:	0000e400 	andeq	lr, r0, r0, lsl #8
     e50:	50000100 	andpl	r0, r0, r0, lsl #2
     e54:	000000e4 	andeq	r0, r0, r4, ror #1
     e58:	000000e8 	andeq	r0, r0, r8, ror #1
     e5c:	01f30004 	mvnseq	r0, r4
     e60:	00009f50 	andeq	r9, r0, r0, asr pc
	...
     e6c:	001c0000 	andseq	r0, ip, r0
     e70:	00010000 	andeq	r0, r1, r0
     e74:	00001c51 	andeq	r1, r0, r1, asr ip
     e78:	00003000 	andeq	r3, r0, r0
     e7c:	53000100 	movwpl	r0, #256	; 0x100
     e80:	00000030 	andeq	r0, r0, r0, lsr r0
     e84:	00000044 	andeq	r0, r0, r4, asr #32
     e88:	44520001 	ldrbmi	r0, [r2], #-1
     e8c:	74000000 	strvc	r0, [r0], #-0
     e90:	01000000 	mrseq	r0, (UNDEF: 0)
     e94:	00745300 	rsbseq	r5, r4, r0, lsl #6
     e98:	008c0000 	addeq	r0, ip, r0
     e9c:	00010000 	andeq	r0, r1, r0
     ea0:	00008c50 	andeq	r8, r0, r0, asr ip
     ea4:	0000e000 	andeq	lr, r0, r0
     ea8:	53000100 	movwpl	r0, #256	; 0x100
     eac:	000000e0 	andeq	r0, r0, r0, ror #1
     eb0:	000000e8 	andeq	r0, r0, r8, ror #1
     eb4:	00510001 	subseq	r0, r1, r1
     eb8:	00000000 	andeq	r0, r0, r0
     ebc:	40000000 	andmi	r0, r0, r0
     ec0:	44000000 	strmi	r0, [r0], #-0
     ec4:	01000000 	mrseq	r0, (UNDEF: 0)
     ec8:	00445300 	subeq	r5, r4, r0, lsl #6
     ecc:	00480000 	subeq	r0, r8, r0
     ed0:	00120000 	andseq	r0, r2, r0
     ed4:	2438007c 	ldrtcs	r0, [r8], #-124	; 0xffffff84
     ed8:	01940270 	orrseq	r0, r4, r0, ror r2
     edc:	221aff08 	andscs	pc, sl, #8, 30
     ee0:	0072243b 	rsbseq	r2, r2, fp, lsr r4
     ee4:	00489f27 	subeq	r9, r8, r7, lsr #30
     ee8:	00500000 	subseq	r0, r0, r0
     eec:	00120000 	andseq	r0, r2, r0
     ef0:	2438007c 	ldrtcs	r0, [r8], #-124	; 0xffffff84
     ef4:	01947e70 	orrseq	r7, r4, r0, ror lr
     ef8:	221aff08 	andscs	pc, sl, #8, 30
     efc:	0072243b 	rsbseq	r2, r2, fp, lsr r4
     f00:	00009f27 	andeq	r9, r0, r7, lsr #30
     f04:	00000000 	andeq	r0, r0, r0
     f08:	00180000 	andseq	r0, r8, r0
     f0c:	00e00000 	rsceq	r0, r0, r0
     f10:	00010000 	andeq	r0, r1, r0
     f14:	0000005e 	andeq	r0, r0, lr, asr r0
	...
     f20:	00000c00 	andeq	r0, r0, r0, lsl #24
     f24:	50000100 	andpl	r0, r0, r0, lsl #2
     f28:	0000000c 	andeq	r0, r0, ip
     f2c:	00000034 	andeq	r0, r0, r4, lsr r0
     f30:	00540001 	subseq	r0, r4, r1
	...
     f3c:	0b000000 	bleq	f44 <_start-0x70bc>
     f40:	01000000 	mrseq	r0, (UNDEF: 0)
     f44:	000b5000 	andeq	r5, fp, r0
     f48:	00140000 	andseq	r0, r4, r0
     f4c:	00010000 	andeq	r0, r1, r0
     f50:	00000054 	andeq	r0, r0, r4, asr r0
	...
     f5c:	00000400 	andeq	r0, r0, r0, lsl #8
     f60:	52000100 	andpl	r0, r0, #0, 2
     f64:	00000004 	andeq	r0, r0, r4
     f68:	00000020 	andeq	r0, r0, r0, lsr #32
     f6c:	01f30004 	mvnseq	r0, r4
     f70:	00009f52 	andeq	r9, r0, r2, asr pc
	...
     f7c:	000c0000 	andeq	r0, ip, r0
     f80:	00010000 	andeq	r0, r1, r0
     f84:	00000c50 	andeq	r0, r0, r0, asr ip
     f88:	00001400 	andeq	r1, r0, r0, lsl #8
     f8c:	73000300 	movwvc	r0, #768	; 0x300
     f90:	00149f01 	andseq	r9, r4, r1, lsl #30
     f94:	00200000 	eoreq	r0, r0, r0
     f98:	00010000 	andeq	r0, r1, r0
     f9c:	00000053 	andeq	r0, r0, r3, asr r0
     fa0:	00000000 	andeq	r0, r0, r0
     fa4:	00000c00 	andeq	r0, r0, r0, lsl #24
     fa8:	00001800 	andeq	r1, r0, r0, lsl #16
     fac:	73000300 	movwvc	r0, #768	; 0x300
     fb0:	00189f04 	andseq	r9, r8, r4, lsl #30
     fb4:	00270000 	eoreq	r0, r7, r0
     fb8:	00010000 	andeq	r0, r1, r0
     fbc:	00000053 	andeq	r0, r0, r3, asr r0
     fc0:	00000000 	andeq	r0, r0, r0
     fc4:	00909000 	addseq	r9, r0, r0
     fc8:	0090ac00 	addseq	sl, r0, r0, lsl #24
     fcc:	0c000600 	stceq	6, cr0, [r0], {-0}
     fd0:	2010001c 	andscs	r0, r0, ip, lsl r0
     fd4:	0000009f 	muleq	r0, pc, r0	; <UNPREDICTABLE>
     fd8:	00000000 	andeq	r0, r0, r0
     fdc:	00909000 	addseq	r9, r0, r0
     fe0:	0090ac00 	addseq	sl, r0, r0, lsl #24
     fe4:	0c000600 	stceq	6, cr0, [r0], {-0}
     fe8:	20100024 	andscs	r0, r0, r4, lsr #32
     fec:	0000009f 	muleq	r0, pc, r0	; <UNPREDICTABLE>
     ff0:	00000000 	andeq	r0, r0, r0
     ff4:	00909000 	addseq	r9, r0, r0
     ff8:	0090ac00 	addseq	sl, r0, r0, lsl #24
     ffc:	08000500 	stmdaeq	r0, {r8, sl}
    1000:	9f2447b4 	svcls	0x002447b4
	...
    100c:	00009090 	muleq	r0, r0, r0
    1010:	000090ac 	andeq	r9, r0, ip, lsr #1
    1014:	20080003 	andcs	r0, r8, r3
    1018:	0000009f 	muleq	r0, pc, r0	; <UNPREDICTABLE>
    101c:	00000000 	andeq	r0, r0, r0
    1020:	00906400 	addseq	r6, r0, r0, lsl #8
    1024:	00906800 	addseq	r6, r0, r0, lsl #16
    1028:	30000200 	andcc	r0, r0, r0, lsl #4
    102c:	0090689f 	umullseq	r6, r0, pc, r8	; <UNPREDICTABLE>
    1030:	00906c00 	addseq	r6, r0, r0, lsl #24
    1034:	53000100 	movwpl	r0, #256	; 0x100
    1038:	00009070 	andeq	r9, r0, r0, ror r0
    103c:	00009078 	andeq	r9, r0, r8, ror r0
    1040:	00530001 	subseq	r0, r3, r1
    1044:	00000000 	andeq	r0, r0, r0
    1048:	4c000000 	stcmi	0, cr0, [r0], {-0}
    104c:	50000090 	mulpl	r0, r0, r0
    1050:	02000090 	andeq	r0, r0, #144	; 0x90
    1054:	509f3000 	addspl	r3, pc, r0
    1058:	54000090 	strpl	r0, [r0], #-144	; 0xffffff70
    105c:	01000090 	swpeq	r0, r0, [r0]	; <UNPREDICTABLE>
    1060:	00005000 	andeq	r5, r0, r0
    1064:	00000000 	andeq	r0, r0, r0
    1068:	00740000 	rsbseq	r0, r4, r0
    106c:	00800000 	addeq	r0, r0, r0
    1070:	00010000 	andeq	r0, r1, r0
    1074:	00008050 	andeq	r8, r0, r0, asr r0
    1078:	00008800 	andeq	r8, r0, r0, lsl #16
    107c:	f3000400 	vshl.u8	d0, d0, d0
    1080:	009f5001 	addseq	r5, pc, r1
    1084:	00000000 	andeq	r0, r0, r0
    1088:	60000000 	andvs	r0, r0, r0
    108c:	6c000000 	stcvs	0, cr0, [r0], {-0}
    1090:	01000000 	mrseq	r0, (UNDEF: 0)
    1094:	006c5000 	rsbeq	r5, ip, r0
    1098:	00740000 	rsbseq	r0, r4, r0
    109c:	00040000 	andeq	r0, r4, r0
    10a0:	9f5001f3 	svcls	0x005001f3
	...
    10ac:	0000003c 	andeq	r0, r0, ip, lsr r0
    10b0:	00000047 	andeq	r0, r0, r7, asr #32
    10b4:	47500001 	ldrbmi	r0, [r0, -r1]
    10b8:	60000000 	andvs	r0, r0, r0
    10bc:	01000000 	mrseq	r0, (UNDEF: 0)
    10c0:	00005500 	andeq	r5, r0, r0, lsl #10
    10c4:	00000000 	andeq	r0, r0, r0
    10c8:	00500000 	subseq	r0, r0, r0
    10cc:	00540000 	subseq	r0, r4, r0
    10d0:	00010000 	andeq	r0, r1, r0
    10d4:	00000050 	andeq	r0, r0, r0, asr r0
	...
    10e0:	00000400 	andeq	r0, r0, r0, lsl #8
    10e4:	50000100 	andpl	r0, r0, r0, lsl #2
    10e8:	00000004 	andeq	r0, r0, r4
    10ec:	0000000c 	andeq	r0, r0, ip
    10f0:	0c530001 	mrrceq	0, 0, r0, r3, cr1
    10f4:	10000000 	andne	r0, r0, r0
    10f8:	01000000 	mrseq	r0, (UNDEF: 0)
    10fc:	00105000 	andseq	r5, r0, r0
    1100:	001c0000 	andseq	r0, ip, r0
    1104:	00010000 	andeq	r0, r1, r0
    1108:	00000053 	andeq	r0, r0, r3, asr r0
    110c:	00000000 	andeq	r0, r0, r0
    1110:	00013800 	andeq	r3, r1, r0, lsl #16
    1114:	00014300 	andeq	r4, r1, r0, lsl #6
    1118:	50000100 	andpl	r0, r0, r0, lsl #2
    111c:	00000143 	andeq	r0, r0, r3, asr #2
    1120:	00000168 	andeq	r0, r0, r8, ror #2
    1124:	00540001 	subseq	r0, r4, r1
	...
    1130:	0f000000 	svceq	0x00000000
    1134:	01000000 	mrseq	r0, (UNDEF: 0)
    1138:	000f5000 	andeq	r5, pc, r0
    113c:	00200000 	eoreq	r0, r0, r0
    1140:	00010000 	andeq	r0, r1, r0
    1144:	00000054 	andeq	r0, r0, r4, asr r0
	...
    1150:	00000f00 	andeq	r0, r0, r0, lsl #30
    1154:	51000100 	mrspl	r0, (UNDEF: 16)
    1158:	0000000f 	andeq	r0, r0, pc
    115c:	00000020 	andeq	r0, r0, r0, lsr #32
    1160:	00550001 	subseq	r0, r5, r1
    1164:	00000000 	andeq	r0, r0, r0
    1168:	ec000000 	stc	0, cr0, [r0], {-0}
    116c:	04000000 	streq	r0, [r0], #-0
    1170:	01000001 	tsteq	r0, r1
    1174:	01045000 	mrseq	r5, (UNDEF: 4)
    1178:	01140000 	tsteq	r4, r0
    117c:	00040000 	andeq	r0, r4, r0
    1180:	9f5001f3 	svcls	0x005001f3
    1184:	00000114 	andeq	r0, r0, r4, lsl r1
    1188:	00000118 	andeq	r0, r0, r8, lsl r1
    118c:	18500001 	ldmdane	r0, {r0}^
    1190:	20000001 	andcs	r0, r0, r1
    1194:	04000001 	streq	r0, [r0], #-1
    1198:	5001f300 	andpl	pc, r1, r0, lsl #6
    119c:	0000009f 	muleq	r0, pc, r0	; <UNPREDICTABLE>
    11a0:	00000000 	andeq	r0, r0, r0
    11a4:	0000f800 	andeq	pc, r0, r0, lsl #16
    11a8:	00010400 	andeq	r0, r1, r0, lsl #8
    11ac:	70000b00 	andvc	r0, r0, r0, lsl #22
    11b0:	23253500 			; <UNDEFINED> instruction: 0x23253500
    11b4:	818080b4 	strhhi	r8, [r0, r4]
    11b8:	01049f02 	tsteq	r4, r2, lsl #30
    11bc:	01070000 	mrseq	r0, (UNDEF: 7)
    11c0:	00010000 	andeq	r0, r1, r0
    11c4:	00010750 	andeq	r0, r1, r0, asr r7
    11c8:	00011400 	andeq	r1, r1, r0, lsl #8
    11cc:	f3000c00 			; <UNDEFINED> instruction: 0xf3000c00
    11d0:	25355001 	ldrcs	r5, [r5, #-1]!
    11d4:	8080b423 	addhi	fp, r0, r3, lsr #8
    11d8:	009f0281 	addseq	r0, pc, r1, lsl #5
    11dc:	00000000 	andeq	r0, r0, r0
    11e0:	fc000000 	stc2	0, cr0, [r0], {-0}
    11e4:	14000000 	strne	r0, [r0], #-0
    11e8:	01000001 	tsteq	r0, r1
    11ec:	00005400 	andeq	r5, r0, r0, lsl #8
    11f0:	00000000 	andeq	r0, r0, r0
    11f4:	00d00000 	sbcseq	r0, r0, r0
    11f8:	00df0000 	sbcseq	r0, pc, r0
    11fc:	00010000 	andeq	r0, r1, r0
    1200:	0000df50 	andeq	sp, r0, r0, asr pc
    1204:	0000e400 	andeq	lr, r0, r0, lsl #8
    1208:	f3000400 	vshl.u8	d0, d0, d0
    120c:	e49f5001 	ldr	r5, [pc], #1	; 1214 <_start-0x6dec>
    1210:	e7000000 	str	r0, [r0, -r0]
    1214:	01000000 	mrseq	r0, (UNDEF: 0)
    1218:	00e75000 	rsceq	r5, r7, r0
    121c:	00ec0000 	rsceq	r0, ip, r0
    1220:	00040000 	andeq	r0, r4, r0
    1224:	9f5001f3 	svcls	0x005001f3
	...
    1230:	000000d0 	ldrdeq	r0, [r0], -r0	; <UNPREDICTABLE>
    1234:	000000df 	ldrdeq	r0, [r0], -pc	; <UNPREDICTABLE>
    1238:	df510001 	svcle	0x00510001
    123c:	e4000000 	str	r0, [r0], #-0
    1240:	04000000 	streq	r0, [r0], #-0
    1244:	5101f300 	mrspl	pc, SP_irq	; <UNPREDICTABLE>
    1248:	0000e49f 	muleq	r0, pc, r4	; <UNPREDICTABLE>
    124c:	0000e700 	andeq	lr, r0, r0, lsl #14
    1250:	51000100 	mrspl	r0, (UNDEF: 16)
    1254:	000000e7 	andeq	r0, r0, r7, ror #1
    1258:	000000ec 	andeq	r0, r0, ip, ror #1
    125c:	01f30004 	mvnseq	r0, r4
    1260:	00009f51 	andeq	r9, r0, r1, asr pc
    1264:	00000000 	andeq	r0, r0, r0
    1268:	00c00000 	sbceq	r0, r0, r0
    126c:	00cb0000 	sbceq	r0, fp, r0
    1270:	00010000 	andeq	r0, r1, r0
    1274:	0000cb50 	andeq	ip, r0, r0, asr fp
    1278:	0000d000 	andeq	sp, r0, r0
    127c:	f3000400 	vshl.u8	d0, d0, d0
    1280:	009f5001 	addseq	r5, pc, r1
    1284:	00000000 	andeq	r0, r0, r0
    1288:	9c000000 	stcls	0, cr0, [r0], {-0}
    128c:	b4000000 	strlt	r0, [r0], #-0
    1290:	01000000 	mrseq	r0, (UNDEF: 0)
    1294:	00b45000 	adcseq	r5, r4, r0
    1298:	00c00000 	sbceq	r0, r0, r0
    129c:	00040000 	andeq	r0, r4, r0
    12a0:	9f5001f3 	svcls	0x005001f3
	...
    12ac:	00000078 	andeq	r0, r0, r8, ror r0
    12b0:	00000090 	muleq	r0, r0, r0
    12b4:	90500001 	subsls	r0, r0, r1
    12b8:	9c000000 	stcls	0, cr0, [r0], {-0}
    12bc:	04000000 	streq	r0, [r0], #-0
    12c0:	5001f300 	andpl	pc, r1, r0, lsl #6
    12c4:	0000009f 	muleq	r0, pc, r0	; <UNPREDICTABLE>
    12c8:	00000000 	andeq	r0, r0, r0
    12cc:	00006800 	andeq	r6, r0, r0, lsl #16
    12d0:	00007300 	andeq	r7, r0, r0, lsl #6
    12d4:	50000100 	andpl	r0, r0, r0, lsl #2
    12d8:	00000073 	andeq	r0, r0, r3, ror r0
    12dc:	00000078 	andeq	r0, r0, r8, ror r0
    12e0:	01f30004 	mvnseq	r0, r4
    12e4:	00009f50 	andeq	r9, r0, r0, asr pc
	...
    12f0:	00480000 	subeq	r0, r8, r0
    12f4:	00010000 	andeq	r0, r1, r0
    12f8:	00004850 	andeq	r4, r0, r0, asr r8
    12fc:	00006800 	andeq	r6, r0, r0, lsl #16
    1300:	f3000400 	vshl.u8	d0, d0, d0
    1304:	009f5001 	addseq	r5, pc, r1
	...
    1310:	4b000000 	blmi	1318 <_start-0x6ce8>
    1314:	01000000 	mrseq	r0, (UNDEF: 0)
    1318:	004b5100 	subeq	r5, fp, r0, lsl #2
    131c:	00680000 	rsbeq	r0, r8, r0
    1320:	00040000 	andeq	r0, r4, r0
    1324:	9f5101f3 	svcls	0x005101f3
	...
    1330:	0000004c 	andeq	r0, r0, ip, asr #32
    1334:	00000054 	andeq	r0, r0, r4, asr r0
    1338:	54500001 	ldrbpl	r0, [r0], #-1
    133c:	58000000 	stmdapl	r0, {}	; <UNPREDICTABLE>
    1340:	09000000 	stmdbeq	r0, {}	; <UNPREDICTABLE>
    1344:	74007500 	strvc	r7, [r0], #-1280	; 0xfffffb00
    1348:	00712400 	rsbseq	r2, r1, r0, lsl #8
    134c:	00589f21 	subseq	r9, r8, r1, lsr #30
    1350:	005f0000 	subseq	r0, pc, r0
    1354:	00010000 	andeq	r0, r1, r0
    1358:	00000051 	andeq	r0, r0, r1, asr r0
    135c:	00000000 	andeq	r0, r0, r0
    1360:	0000e000 	andeq	lr, r0, r0
    1364:	00011b00 	andeq	r1, r1, r0, lsl #22
    1368:	50000100 	andpl	r0, r0, r0, lsl #2
    136c:	0000011b 	andeq	r0, r0, fp, lsl r1
    1370:	00000120 	andeq	r0, r0, r0, lsr #2
    1374:	01f30004 	mvnseq	r0, r4
    1378:	01209f50 			; <UNDEFINED> instruction: 0x01209f50
    137c:	01230000 			; <UNDEFINED> instruction: 0x01230000
    1380:	00010000 	andeq	r0, r1, r0
    1384:	00012350 	andeq	r2, r1, r0, asr r3
    1388:	00013c00 	andeq	r3, r1, r0, lsl #24
    138c:	f3000400 	vshl.u8	d0, d0, d0
    1390:	3c9f5001 	ldccc	0, cr5, [pc], {1}
    1394:	3f000001 	svccc	0x00000001
    1398:	01000001 	tsteq	r0, r1
    139c:	013f5000 	teqeq	pc, r0
    13a0:	016c0000 	cmneq	ip, r0
    13a4:	00040000 	andeq	r0, r4, r0
    13a8:	9f5001f3 	svcls	0x005001f3
	...
    13b4:	000000e0 	andeq	r0, r0, r0, ror #1
    13b8:	00000108 	andeq	r0, r0, r8, lsl #2
    13bc:	08510001 	ldmdaeq	r1, {r0}^
    13c0:	1b000001 	blne	13cc <_start-0x6c34>
    13c4:	03000001 	movweq	r0, #1
    13c8:	9f017100 	svcls	0x00017100
    13cc:	0000011b 	andeq	r0, r0, fp, lsl r1
    13d0:	00000120 	andeq	r0, r0, r0, lsr #2
    13d4:	01f30004 	mvnseq	r0, r4
    13d8:	01209f51 			; <UNDEFINED> instruction: 0x01209f51
    13dc:	01230000 			; <UNDEFINED> instruction: 0x01230000
    13e0:	00010000 	andeq	r0, r1, r0
    13e4:	00012351 	andeq	r2, r1, r1, asr r3
    13e8:	00016c00 	andeq	r6, r1, r0, lsl #24
    13ec:	f3000400 	vshl.u8	d0, d0, d0
    13f0:	009f5101 	addseq	r5, pc, r1, lsl #2
    13f4:	00000000 	andeq	r0, r0, r0
    13f8:	f8000000 			; <UNDEFINED> instruction: 0xf8000000
    13fc:	fc000000 	stc2	0, cr0, [r0], {-0}
    1400:	01000000 	mrseq	r0, (UNDEF: 0)
    1404:	00fc5200 	rscseq	r5, ip, r0, lsl #4
    1408:	01040000 	mrseq	r0, (UNDEF: 4)
    140c:	00050000 	andeq	r0, r5, r0
    1410:	00960c03 	addseq	r0, r6, r3, lsl #24
    1414:	00010400 	andeq	r0, r1, r0, lsl #8
    1418:	00011b00 	andeq	r1, r1, r0, lsl #22
    141c:	53000100 	movwpl	r0, #256	; 0x100
    1420:	0000013c 	andeq	r0, r0, ip, lsr r1
    1424:	0000013f 	andeq	r0, r0, pc, lsr r1
    1428:	00530001 	subseq	r0, r3, r1
    142c:	00000000 	andeq	r0, r0, r0
    1430:	6c000000 	stcvs	0, cr0, [r0], {-0}
    1434:	80000000 	andhi	r0, r0, r0
    1438:	01000000 	mrseq	r0, (UNDEF: 0)
    143c:	00805000 	addeq	r5, r0, r0
    1440:	009b0000 	addseq	r0, fp, r0
    1444:	00010000 	andeq	r0, r1, r0
    1448:	00009b52 	andeq	r9, r0, r2, asr fp
    144c:	0000a400 	andeq	sl, r0, r0, lsl #8
    1450:	f3000900 	vmls.i8	d0, d0, d0
    1454:	07235001 	streq	r5, [r3, -r1]!
    1458:	9f1af809 	svcls	0x001af809
    145c:	000000a4 	andeq	r0, r0, r4, lsr #1
    1460:	000000a7 	andeq	r0, r0, r7, lsr #1
    1464:	a7500001 	ldrbge	r0, [r0, -r1]
    1468:	d0000000 	andle	r0, r0, r0
    146c:	04000000 	streq	r0, [r0], #-0
    1470:	5001f300 	andpl	pc, r1, r0, lsl #6
    1474:	0000009f 	muleq	r0, pc, r0	; <UNPREDICTABLE>
    1478:	00000000 	andeq	r0, r0, r0
    147c:	00008800 	andeq	r8, r0, r0, lsl #16
    1480:	0000a400 	andeq	sl, r0, r0, lsl #8
    1484:	54000100 	strpl	r0, [r0], #-256	; 0xffffff00
	...
    1490:	0000001c 	andeq	r0, r0, ip, lsl r0
    1494:	00000043 	andeq	r0, r0, r3, asr #32
    1498:	43500001 	cmpmi	r0, #1
    149c:	6c000000 	stcvs	0, cr0, [r0], {-0}
    14a0:	04000000 	streq	r0, [r0], #-0
    14a4:	5001f300 	andpl	pc, r1, r0, lsl #6
    14a8:	0000009f 	muleq	r0, pc, r0	; <UNPREDICTABLE>
    14ac:	00000000 	andeq	r0, r0, r0
    14b0:	00001c00 	andeq	r1, r0, r0, lsl #24
    14b4:	00004300 	andeq	r4, r0, r0, lsl #6
    14b8:	50000100 	andpl	r0, r0, r0, lsl #2
    14bc:	00000043 	andeq	r0, r0, r3, asr #32
    14c0:	0000006c 	andeq	r0, r0, ip, rrx
    14c4:	01f30004 	mvnseq	r0, r4
    14c8:	00009f50 	andeq	r9, r0, r0, asr pc
    14cc:	00000000 	andeq	r0, r0, r0
	...

Disassembly of section .debug_aranges:

00000000 <.debug_aranges>:
   0:	0000001c 	andeq	r0, r0, ip, lsl r0
   4:	00000002 	andeq	r0, r0, r2
   8:	00040000 	andeq	r0, r4, r0
   c:	00000000 	andeq	r0, r0, r0
  10:	00008010 	andeq	r8, r0, r0, lsl r0
  14:	0000007c 	andeq	r0, r0, ip, ror r0
	...
  20:	0000001c 	andeq	r0, r0, ip, lsl r0
  24:	0a190002 	beq	640034 <__bss_end__+0x63609c>
  28:	00040000 	andeq	r0, r4, r0
  2c:	00000000 	andeq	r0, r0, r0
  30:	0000808c 	andeq	r8, r0, ip, lsl #1
  34:	00000878 	andeq	r0, r0, r8, ror r8
	...
  40:	0000001c 	andeq	r0, r0, ip, lsl r0
  44:	21e60002 	mvncs	r0, r2
  48:	00040000 	andeq	r0, r4, r0
  4c:	00000000 	andeq	r0, r0, r0
  50:	00008904 	andeq	r8, r0, r4, lsl #18
  54:	00000058 	andeq	r0, r0, r8, asr r0
	...
  60:	0000001c 	andeq	r0, r0, ip, lsl r0
  64:	2b780002 	blcs	1e00074 <__bss_end__+0x1df60dc>
  68:	00040000 	andeq	r0, r4, r0
  6c:	00000000 	andeq	r0, r0, r0
  70:	0000895c 	andeq	r8, r0, ip, asr r9
  74:	00000544 	andeq	r0, r0, r4, asr #10
	...
  80:	0000001c 	andeq	r0, r0, ip, lsl r0
  84:	39ec0002 	stmibcc	ip!, {r1}^
  88:	00040000 	andeq	r0, r4, r0
  8c:	00000000 	andeq	r0, r0, r0
  90:	00008ea0 	andeq	r8, r0, r0, lsr #29
  94:	000000e8 	andeq	r0, r0, r8, ror #1
	...
  a0:	0000001c 	andeq	r0, r0, ip, lsl r0
  a4:	433c0002 	teqmi	ip, #2
  a8:	00040000 	andeq	r0, r4, r0
  ac:	00000000 	andeq	r0, r0, r0
  b0:	00008f88 	andeq	r8, r0, r8, lsl #31
  b4:	00000034 	andeq	r0, r0, r4, lsr r0
	...
  c0:	0000001c 	andeq	r0, r0, ip, lsl r0
  c4:	4c2b0002 	stcmi	0, cr0, [fp], #-8
  c8:	00040000 	andeq	r0, r4, r0
  cc:	00000000 	andeq	r0, r0, r0
  d0:	00008fbc 			; <UNDEFINED> instruction: 0x00008fbc
  d4:	0000003c 	andeq	r0, r0, ip, lsr r0
	...
  e0:	0000001c 	andeq	r0, r0, ip, lsl r0
  e4:	556c0002 	strbpl	r0, [ip, #-2]!
  e8:	00040000 	andeq	r0, r4, r0
  ec:	00000000 	andeq	r0, r0, r0
  f0:	00008ff8 	strdeq	r8, [r0], -r8	; <UNPREDICTABLE>
  f4:	00000020 	andeq	r0, r0, r0, lsr #32
	...
 100:	0000001c 	andeq	r0, r0, ip, lsl r0
 104:	5e480002 	cdppl	0, 4, cr0, cr8, cr2, {0}
 108:	00040000 	andeq	r0, r4, r0
 10c:	00000000 	andeq	r0, r0, r0
 110:	00009018 	andeq	r9, r0, r8, lsl r0
 114:	00000034 	andeq	r0, r0, r4, lsr r0
	...
 120:	0000001c 	andeq	r0, r0, ip, lsl r0
 124:	67820002 	strvs	r0, [r2, r2]
 128:	00040000 	andeq	r0, r4, r0
 12c:	00000000 	andeq	r0, r0, r0
 130:	0000904c 	andeq	r9, r0, ip, asr #32
 134:	00000078 	andeq	r0, r0, r8, ror r0
	...
 140:	0000001c 	andeq	r0, r0, ip, lsl r0
 144:	716c0002 	cmnvc	ip, r2
 148:	00040000 	andeq	r0, r4, r0
 14c:	00000000 	andeq	r0, r0, r0
 150:	000090c4 	andeq	r9, r0, r4, asr #1
 154:	00000028 	andeq	r0, r0, r8, lsr #32
	...
 160:	0000001c 	andeq	r0, r0, ip, lsl r0
 164:	7a870002 	bvc	fe1c0174 <__bss_end__+0xfe1b61dc>
 168:	00040000 	andeq	r0, r4, r0
 16c:	00000000 	andeq	r0, r0, r0
 170:	000090ec 	andeq	r9, r0, ip, ror #1
 174:	00000088 	andeq	r0, r0, r8, lsl #1
	...
 180:	0000001c 	andeq	r0, r0, ip, lsl r0
 184:	84a20002 	strthi	r0, [r2], #2
 188:	00040000 	andeq	r0, r4, r0
 18c:	00000000 	andeq	r0, r0, r0
 190:	000091c0 	andeq	r9, r0, r0, asr #3
 194:	00000178 	andeq	r0, r0, r8, ror r1
	...
 1a0:	0000001c 	andeq	r0, r0, ip, lsl r0
 1a4:	916b0002 	cmnls	fp, r2
 1a8:	00040000 	andeq	r0, r4, r0
 1ac:	00000000 	andeq	r0, r0, r0
 1b0:	00009338 	andeq	r9, r0, r8, lsr r3
 1b4:	00000120 	andeq	r0, r0, r0, lsr #2
	...
 1c0:	0000001c 	andeq	r0, r0, ip, lsl r0
 1c4:	9cdf0002 	ldclls	0, cr0, [pc], {2}
 1c8:	00040000 	andeq	r0, r4, r0
 1cc:	00000000 	andeq	r0, r0, r0
 1d0:	00009458 	andeq	r9, r0, r8, asr r4
 1d4:	00000194 	muleq	r0, r4, r1
	...

Disassembly of section .debug_line:

00000000 <.debug_line>:
       0:	00000107 	andeq	r0, r0, r7, lsl #2
       4:	00ed0002 	rsceq	r0, sp, r2
       8:	01020000 	mrseq	r0, (UNDEF: 2)
       c:	000d0efb 	strdeq	r0, [sp], -fp
      10:	01010101 	tsteq	r1, r1, lsl #2
      14:	01000000 	mrseq	r0, (UNDEF: 0)
      18:	2f010000 	svccs	0x00010000
      1c:	2f727375 	svccs	0x00727375
      20:	6c636e69 	stclvs	14, cr6, [r3], #-420	; 0xfffffe5c
      24:	2f656475 	svccs	0x00656475
      28:	6c77656e 	cfldr64vs	mvdx6, [r7], #-440	; 0xfffffe48
      2c:	732f6269 			; <UNDEFINED> instruction: 0x732f6269
      30:	2f007379 	svccs	0x00007379
      34:	2f727375 	svccs	0x00727375
      38:	2f62696c 	svccs	0x0062696c
      3c:	2f636367 	svccs	0x00636367
      40:	2d6d7261 	sfmcs	f7, 2, [sp, #-388]!	; 0xfffffe7c
      44:	656e6f6e 	strbvs	r6, [lr, #-3950]!	; 0xfffff092
      48:	6261652d 	rsbvs	r6, r1, #188743680	; 0xb400000
      4c:	2e362f69 	cdpcs	15, 3, cr2, cr6, cr9, {3}
      50:	2f312e33 	svccs	0x00312e33
      54:	6c636e69 	stclvs	14, cr6, [r3], #-420	; 0xfffffe5c
      58:	00656475 	rsbeq	r6, r5, r5, ror r4
      5c:	6d6f682f 	stclvs	8, cr6, [pc, #-188]!	; ffffffa8 <__bss_end__+0xffff6010>
      60:	73752f65 	cmnvc	r5, #404	; 0x194
      64:	442f7265 	strtmi	r7, [pc], #-613	; 6c <_start-0x7f94>
      68:	432f7665 			; <UNDEFINED> instruction: 0x432f7665
      6c:	30343253 	eorscc	r3, r4, r3, asr r2
      70:	6c2f2f58 	stcvs	15, cr2, [pc], #-352	; ffffff18 <__bss_end__+0xffff5f80>
      74:	69706269 	ldmdbvs	r0!, {r0, r3, r5, r6, r9, sp, lr}^
      78:	636e692f 	cmnvs	lr, #770048	; 0xbc000
      7c:	6564756c 	strbvs	r7, [r4, #-1388]!	; 0xfffffa94
      80:	73752f00 	cmnvc	r5, #0, 30
      84:	6e692f72 	mcrvs	15, 3, r2, cr9, cr2, {3}
      88:	64756c63 	ldrbtvs	r6, [r5], #-3171	; 0xfffff39d
      8c:	656e2f65 	strbvs	r2, [lr, #-3941]!	; 0xfffff09b
      90:	62696c77 	rsbvs	r6, r9, #30464	; 0x7700
      94:	61700000 	cmnvs	r0, r0
      98:	2d317472 	cfldrscs	mvf7, [r1, #-456]!	; 0xfffffe38
      9c:	74736574 	ldrbtvc	r6, [r3], #-1396	; 0xfffffa8c
      a0:	00632e32 	rsbeq	r2, r3, r2, lsr lr
      a4:	6c000000 	stcvs	0, cr0, [r0], {-0}
      a8:	2e6b636f 	cdpcs	3, 6, cr6, cr11, cr15, {3}
      ac:	00010068 	andeq	r0, r1, r8, rrx
      b0:	79745f00 	ldmdbvc	r4!, {r8, r9, sl, fp, ip, lr}^
      b4:	2e736570 	mrccs	5, 3, r6, cr3, cr0, {3}
      b8:	00010068 	andeq	r0, r1, r8, rrx
      bc:	64747300 	ldrbtvs	r7, [r4], #-768	; 0xfffffd00
      c0:	2e666564 	cdpcs	5, 6, cr6, cr6, cr4, {3}
      c4:	00020068 	andeq	r0, r2, r8, rrx
      c8:	65657200 	strbvs	r7, [r5, #-512]!	; 0xfffffe00
      cc:	682e746e 	stmdavs	lr!, {r1, r2, r3, r5, r6, sl, ip, sp, lr}
      d0:	00000100 	andeq	r0, r0, r0, lsl #2
      d4:	2e697072 	mcrcs	0, 3, r7, cr9, cr2, {3}
      d8:	00030068 	andeq	r0, r3, r8, rrx
      dc:	616b6300 	cmnvs	fp, r0, lsl #6
      e0:	636f6c6c 	cmnvs	pc, #108, 24	; 0x6c00
      e4:	0000682e 	andeq	r6, r0, lr, lsr #16
      e8:	74730000 	ldrbtvc	r0, [r3], #-0
      ec:	676e6972 			; <UNDEFINED> instruction: 0x676e6972
      f0:	0400682e 	streq	r6, [r0], #-2094	; 0xfffff7d2
      f4:	00000000 	andeq	r0, r0, r0
      f8:	80100205 	andshi	r0, r0, r5, lsl #4
      fc:	2f160000 	svccs	0x00160000
     100:	f3844c4d 	vqdmulh.s<illegal width 8>	q2, q2, d1[3]
     104:	12024b67 	andne	r4, r2, #105472	; 0x19c00
     108:	5a010100 	bpl	40510 <__bss_end__+0x36578>
     10c:	02000002 	andeq	r0, r0, #2
     110:	00012b00 	andeq	r2, r1, r0, lsl #22
     114:	fb010200 	blx	4091e <__bss_end__+0x36986>
     118:	01000d0e 	tsteq	r0, lr, lsl #26
     11c:	00010101 	andeq	r0, r1, r1, lsl #2
     120:	00010000 	andeq	r0, r1, r0
     124:	752f0100 	strvc	r0, [pc, #-256]!	; 2c <_start-0x7fd4>
     128:	6c2f7273 	sfmvs	f7, 4, [pc], #-460	; ffffff64 <__bss_end__+0xffff5fcc>
     12c:	672f6269 	strvs	r6, [pc, -r9, ror #4]!
     130:	612f6363 			; <UNDEFINED> instruction: 0x612f6363
     134:	6e2d6d72 	mcrvs	13, 1, r6, cr13, cr2, {3}
     138:	2d656e6f 	stclcs	14, cr6, [r5, #-444]!	; 0xfffffe44
     13c:	69626165 	stmdbvs	r2!, {r0, r2, r5, r6, r8, sp, lr}^
     140:	332e362f 			; <UNDEFINED> instruction: 0x332e362f
     144:	692f312e 	stmdbvs	pc!, {r1, r2, r3, r5, r8, ip, sp}	; <UNPREDICTABLE>
     148:	756c636e 	strbvc	r6, [ip, #-878]!	; 0xfffffc92
     14c:	2f006564 	svccs	0x00006564
     150:	2f727375 	svccs	0x00727375
     154:	6c636e69 	stclvs	14, cr6, [r3], #-420	; 0xfffffe5c
     158:	2f656475 	svccs	0x00656475
     15c:	6c77656e 	cfldr64vs	mvdx6, [r7], #-440	; 0xfffffe48
     160:	732f6269 			; <UNDEFINED> instruction: 0x732f6269
     164:	2f007379 	svccs	0x00007379
     168:	656d6f68 	strbvs	r6, [sp, #-3944]!	; 0xfffff098
     16c:	6573752f 	ldrbvs	r7, [r3, #-1327]!	; 0xfffffad1
     170:	65442f72 	strbvs	r2, [r4, #-3954]	; 0xfffff08e
     174:	53432f76 	movtpl	r2, #16246	; 0x3f76
     178:	58303432 	ldmdapl	r0!, {r1, r4, r5, sl, ip, sp}
     17c:	696c2f2f 	stmdbvs	ip!, {r0, r1, r2, r3, r5, r8, r9, sl, fp, sp}^
     180:	2f697062 	svccs	0x00697062
     184:	6c636e69 	stclvs	14, cr6, [r3], #-420	; 0xfffffe5c
     188:	00656475 	rsbeq	r6, r5, r5, ror r4
     18c:	7273752f 	rsbsvc	r7, r3, #197132288	; 0xbc00000
     190:	636e692f 	cmnvs	lr, #770048	; 0xbc000
     194:	6564756c 	strbvs	r7, [r4, #-1388]!	; 0xfffffa94
     198:	77656e2f 	strbvc	r6, [r5, -pc, lsr #28]!
     19c:	0062696c 	rsbeq	r6, r2, ip, ror #18
     1a0:	6d6f682f 	stclvs	8, cr6, [pc, #-188]!	; ec <_start-0x7f14>
     1a4:	73752f65 	cmnvc	r5, #404	; 0x194
     1a8:	442f7265 	strtmi	r7, [pc], #-613	; 1b0 <_start-0x7e50>
     1ac:	432f7665 			; <UNDEFINED> instruction: 0x432f7665
     1b0:	30343253 	eorscc	r3, r4, r3, asr r2
     1b4:	6c2f2f58 	stcvs	15, cr2, [pc], #-352	; 5c <_start-0x7fa4>
     1b8:	69706269 	ldmdbvs	r0!, {r0, r3, r5, r6, r9, sp, lr}^
     1bc:	62696c2f 	rsbvs	r6, r9, #12032	; 0x2f00
     1c0:	63000063 	movwvs	r0, #99	; 0x63
     1c4:	6c6c616b 	stfvse	f6, [ip], #-428	; 0xfffffe54
     1c8:	632e636f 			; <UNDEFINED> instruction: 0x632e636f
     1cc:	00000000 	andeq	r0, r0, r0
     1d0:	6c616b63 			; <UNDEFINED> instruction: 0x6c616b63
     1d4:	2e636f6c 	cdpcs	15, 6, cr6, cr3, cr12, {3}
     1d8:	00000068 	andeq	r0, r0, r8, rrx
     1dc:	64747300 	ldrbtvs	r7, [r4], #-768	; 0xfffffd00
     1e0:	2d746e69 	ldclcs	14, cr6, [r4, #-420]!	; 0xfffffe5c
     1e4:	2e636367 	cdpcs	3, 6, cr6, cr3, cr7, {3}
     1e8:	00010068 	andeq	r0, r1, r8, rrx
     1ec:	636f6c00 	cmnvs	pc, #0, 24
     1f0:	00682e6b 	rsbeq	r2, r8, fp, ror #28
     1f4:	5f000002 	svcpl	0x00000002
     1f8:	65707974 	ldrbvs	r7, [r0, #-2420]!	; 0xfffff68c
     1fc:	00682e73 	rsbeq	r2, r8, r3, ror lr
     200:	73000002 	movwvc	r0, #2
     204:	65646474 	strbvs	r6, [r4, #-1140]!	; 0xfffffb8c
     208:	00682e66 	rsbeq	r2, r8, r6, ror #28
     20c:	72000001 	andvc	r0, r0, #1
     210:	746e6565 	strbtvc	r6, [lr], #-1381	; 0xfffffa9b
     214:	0200682e 	andeq	r6, r0, #3014656	; 0x2e0000
     218:	70720000 	rsbsvc	r0, r2, r0
     21c:	00682e69 	rsbeq	r2, r8, r9, ror #28
     220:	73000003 	movwvc	r0, #3
     224:	6e697274 	mcrvs	2, 3, r7, cr9, cr4, {3}
     228:	00682e67 	rsbeq	r2, r8, r7, ror #28
     22c:	6c000004 	stcvs	0, cr0, [r0], {4}
     230:	2d636269 	sfmcs	f6, 2, [r3, #-420]!	; 0xfffffe5c
     234:	72747865 	rsbsvc	r7, r4, #6619136	; 0x650000
     238:	00682e61 	rsbeq	r2, r8, r1, ror #28
     23c:	00000005 	andeq	r0, r0, r5
     240:	8c020500 	cfstr32hi	mvfx0, [r2], {-0}
     244:	03000080 	movweq	r0, #128	; 0x80
     248:	4c010112 	stfmis	f0, [r1], {18}
     24c:	844a682e 	strbhi	r6, [sl], #-2094	; 0xfffff7d2
     250:	03146901 	tsteq	r4, #16384	; 0x4000
     254:	00304a23 	eorseq	r4, r0, r3, lsr #20
     258:	06010402 	streq	r0, [r1], -r2, lsl #8
     25c:	004b062e 	subeq	r0, fp, lr, lsr #12
     260:	49020402 	stmdbmi	r2, {r1, sl}
     264:	02048384 	andeq	r8, r4, #132, 6	; 0x10000002
     268:	20081003 	andcs	r1, r8, r3
     26c:	04d967a0 	ldrbeq	r6, [r9], #1952	; 0x7a0
     270:	666b0301 	strbtvs	r0, [fp], -r1, lsl #6
     274:	03020483 	movweq	r0, #9347	; 0x2483
     278:	04674a14 	strbteq	r4, [r7], #-2580	; 0xfffff5ec
     27c:	f26f0301 	vcgt.s32	d16, d15, d1
     280:	032ff42f 	msreq	CPSR_fsxc, #788529152	; 0x2f000000
     284:	2f4b8251 	svccs	0x004b8251
     288:	31304b4b 	teqcc	r0, fp, asr #22
     28c:	0204844b 	andeq	r8, r4, #1258291200	; 0x4b000000
     290:	20082903 	andcs	r2, r8, r3, lsl #18
     294:	04d967a0 	ldrbeq	r6, [r9], #1952	; 0x7a0
     298:	66520301 	ldrbvs	r0, [r2], -r1, lsl #6
     29c:	01040200 	mrseq	r0, R12_usr
     2a0:	02048847 	andeq	r8, r4, #4653056	; 0x470000
     2a4:	674a2b03 	strbvs	r2, [sl, -r3, lsl #22]
     2a8:	51030104 	tstpl	r3, r4, lsl #2
     2ac:	30d86ad6 	ldrsbcc	r6, [r8], #166	; 0xa6
     2b0:	01040200 	mrseq	r0, R12_usr
     2b4:	4b062e06 	blmi	18bad4 <__bss_end__+0x181b3c>
     2b8:	02040200 	andeq	r0, r4, #0, 4
     2bc:	04838449 	streq	r8, [r3], #1097	; 0x449
     2c0:	081d0302 	ldmdaeq	sp, {r1, r8, r9}
     2c4:	d967a03c 	stmdble	r7!, {r2, r3, r4, r5, sp, pc}^
     2c8:	5e030104 	adfpls	f0, f3, f4
     2cc:	03020466 	movweq	r0, #9318	; 0x2466
     2d0:	04674a22 	strbteq	r4, [r7], #-2594	; 0xfffff5de
     2d4:	d65d0301 	ldrble	r0, [sp], -r1, lsl #6
     2d8:	0333464e 	teqeq	r3, #81788928	; 0x4e00000
     2dc:	304cd61a 	subcc	sp, ip, sl, lsl r6
     2e0:	04020049 	streq	r0, [r2], #-73	; 0xffffffb7
     2e4:	0806d703 	stmdaeq	r6, {r0, r1, r8, r9, sl, ip, lr, pc}
     2e8:	032f0658 			; <UNDEFINED> instruction: 0x032f0658
     2ec:	2f2e7fab 	svccs	0x002e7fab
     2f0:	006783bb 	strhteq	r8, [r7], #-59	; 0xffffffc5
     2f4:	63010402 	movwvs	r0, #5122	; 0x1402
     2f8:	0800e803 	stmdaeq	r0, {r0, r1, fp, sp, lr, pc}
     2fc:	9f309f74 	svcls	0x00309f74
     300:	4e6b849f 	mcrmi	4, 3, r8, cr11, cr15, {4}
     304:	04020083 	streq	r0, [r2], #-131	; 0xffffff7d
     308:	82720301 	rsbshi	r0, r2, #67108864	; 0x4000000
     30c:	90081203 	andls	r1, r8, r3, lsl #4
     310:	4ba0d76a 	blmi	fe8360c0 <__bss_end__+0xfe82c128>
     314:	2fbf4d31 	svccs	0x00bf4d31
     318:	4b674b2f 	blmi	19d2fdc <__bss_end__+0x19c9044>
     31c:	68f3834b 	ldmvs	r3!, {r0, r1, r3, r6, r8, r9, pc}^
     320:	d8678383 	stmdale	r7!, {r0, r1, r7, r8, r9, pc}^
     324:	01040200 	mrseq	r0, R12_usr
     328:	de666203 	cdple	2, 6, cr6, cr6, cr3, {0}
     32c:	02009308 	andeq	r9, r0, #8, 6	; 0x20000000
     330:	0f030104 	svceq	0x00030104
     334:	03012a02 	movweq	r2, #6658	; 0x1a02
     338:	01280209 			; <UNDEFINED> instruction: 0x01280209
     33c:	c04c832f 	subgt	r8, ip, pc, lsr #6
     340:	33322d2b 	teqcc	r2, #2752	; 0xac0
     344:	2e10032f 	cdpcs	3, 1, cr0, cr0, cr15, {1}
     348:	7003a04d 	andvc	sl, r3, sp, asr #32
     34c:	6f03354a 	svcvs	0x0003354a
     350:	0402002e 	streq	r0, [r2], #-46	; 0xffffffd2
     354:	89859d01 	stmibhi	r5, {r0, r8, sl, fp, ip, pc}
     358:	01040200 	mrseq	r0, R12_usr
     35c:	0806d606 	stmdaeq	r6, {r1, r2, r9, sl, ip, lr, pc}
     360:	52bb4c5a 	adcspl	r4, fp, #23040	; 0x5a00
     364:	01001802 	tsteq	r0, r2, lsl #16
     368:	00010001 	andeq	r0, r1, r1
     36c:	e9000200 	stmdb	r0, {r9}
     370:	02000000 	andeq	r0, r0, #0
     374:	0d0efb01 	vstreq	d15, [lr, #-4]
     378:	01010100 	mrseq	r0, (UNDEF: 17)
     37c:	00000001 	andeq	r0, r0, r1
     380:	01000001 	tsteq	r0, r1
     384:	6362696c 	cmnvs	r2, #108, 18	; 0x1b0000
     388:	73752f00 	cmnvc	r5, #0, 30
     38c:	696c2f72 	stmdbvs	ip!, {r1, r4, r5, r6, r8, r9, sl, fp, sp}^
     390:	63672f62 	cmnvs	r7, #392	; 0x188
     394:	72612f63 	rsbvc	r2, r1, #396	; 0x18c
     398:	6f6e2d6d 	svcvs	0x006e2d6d
     39c:	652d656e 	strvs	r6, [sp, #-1390]!	; 0xfffffa92
     3a0:	2f696261 	svccs	0x00696261
     3a4:	2e332e36 	mrccs	14, 1, r2, cr3, cr6, {1}
     3a8:	6e692f31 	mcrvs	15, 3, r2, cr9, cr1, {1}
     3ac:	64756c63 	ldrbtvs	r6, [r5], #-3171	; 0xfffff39d
     3b0:	752f0065 	strvc	r0, [pc, #-101]!	; 353 <_start-0x7cad>
     3b4:	692f7273 	stmdbvs	pc!, {r0, r1, r4, r5, r6, r9, ip, sp, lr}	; <UNPREDICTABLE>
     3b8:	756c636e 	strbvc	r6, [ip, #-878]!	; 0xfffffc92
     3bc:	6e2f6564 	cfsh64vs	mvdx6, mvdx15, #52
     3c0:	696c7765 	stmdbvs	ip!, {r0, r2, r5, r6, r8, r9, sl, ip, sp, lr}^
     3c4:	79732f62 	ldmdbvc	r3!, {r1, r5, r6, r8, r9, sl, fp, sp}^
     3c8:	682f0073 	stmdavs	pc!, {r0, r1, r4, r5, r6}	; <UNPREDICTABLE>
     3cc:	2f656d6f 	svccs	0x00656d6f
     3d0:	72657375 	rsbvc	r7, r5, #-738197503	; 0xd4000001
     3d4:	7665442f 	strbtvc	r4, [r5], -pc, lsr #8
     3d8:	3253432f 	subscc	r4, r3, #-1140850688	; 0xbc000000
     3dc:	2f583034 	svccs	0x00583034
     3e0:	62696c2f 	rsbvs	r6, r9, #12032	; 0x2f00
     3e4:	692f6970 	stmdbvs	pc!, {r4, r5, r6, r8, fp, sp, lr}	; <UNPREDICTABLE>
     3e8:	756c636e 	strbvc	r6, [ip, #-878]!	; 0xfffffc92
     3ec:	00006564 	andeq	r6, r0, r4, ror #10
     3f0:	6e697270 	mcrvs	2, 3, r7, cr9, cr0, {3}
     3f4:	632e6b74 			; <UNDEFINED> instruction: 0x632e6b74
     3f8:	00000100 	andeq	r0, r0, r0, lsl #2
     3fc:	61647473 	smcvs	18243	; 0x4743
     400:	682e6772 	stmdavs	lr!, {r1, r4, r5, r6, r8, r9, sl, sp, lr}
     404:	00000200 	andeq	r0, r0, r0, lsl #4
     408:	6b636f6c 	blvs	18dc1c0 <__bss_end__+0x18d2228>
     40c:	0300682e 	movweq	r6, #2094	; 0x82e
     410:	745f0000 	ldrbvc	r0, [pc], #-0	; 418 <_start-0x7be8>
     414:	73657079 	cmnvc	r5, #121	; 0x79
     418:	0300682e 	movweq	r6, #2094	; 0x82e
     41c:	74730000 	ldrbtvc	r0, [r3], #-0
     420:	66656464 	strbtvs	r6, [r5], -r4, ror #8
     424:	0200682e 	andeq	r6, r0, #3014656	; 0x2e0000
     428:	65720000 	ldrbvs	r0, [r2, #-0]!
     42c:	2e746e65 	cdpcs	14, 7, cr6, cr4, cr5, {3}
     430:	00030068 	andeq	r0, r3, r8, rrx
     434:	75623c00 	strbvc	r3, [r2, #-3072]!	; 0xfffff400
     438:	2d746c69 	ldclcs	12, cr6, [r4, #-420]!	; 0xfffffe5c
     43c:	003e6e69 	eorseq	r6, lr, r9, ror #28
     440:	72000000 	andvc	r0, r0, #0
     444:	682e6970 	stmdavs	lr!, {r4, r5, r6, r8, fp, sp, lr}
     448:	00000400 	andeq	r0, r0, r0, lsl #8
     44c:	702d6176 	eorvc	r6, sp, r6, ror r1
     450:	746e6972 	strbtvc	r6, [lr], #-2418	; 0xfffff68e
     454:	00682e6b 	rsbeq	r2, r8, fp, ror #28
     458:	00000001 	andeq	r0, r0, r1
     45c:	04020500 	streq	r0, [r2], #-1280	; 0xfffffb00
     460:	17000089 	strne	r0, [r0, -r9, lsl #1]
     464:	89bf4b6b 	ldmibhi	pc!, {r0, r1, r3, r5, r6, r8, r9, fp, lr}	; <UNPREDICTABLE>
     468:	01000e02 	tsteq	r0, r2, lsl #28
     46c:	0001ce01 	andeq	ip, r1, r1, lsl #28
     470:	dd000200 	sfmle	f0, 4, [r0, #-0]
     474:	02000000 	andeq	r0, r0, #0
     478:	0d0efb01 	vstreq	d15, [lr, #-4]
     47c:	01010100 	mrseq	r0, (UNDEF: 17)
     480:	00000001 	andeq	r0, r0, r1
     484:	01000001 	tsteq	r0, r1
     488:	6362696c 	cmnvs	r2, #108, 18	; 0x1b0000
     48c:	73752f00 	cmnvc	r5, #0, 30
     490:	6e692f72 	mcrvs	15, 3, r2, cr9, cr2, {3}
     494:	64756c63 	ldrbtvs	r6, [r5], #-3171	; 0xfffff39d
     498:	656e2f65 	strbvs	r2, [lr, #-3941]!	; 0xfffff09b
     49c:	62696c77 	rsbvs	r6, r9, #30464	; 0x7700
     4a0:	7379732f 	cmnvc	r9, #-1140850688	; 0xbc000000
     4a4:	73752f00 	cmnvc	r5, #0, 30
     4a8:	696c2f72 	stmdbvs	ip!, {r1, r4, r5, r6, r8, r9, sl, fp, sp}^
     4ac:	63672f62 	cmnvs	r7, #392	; 0x188
     4b0:	72612f63 	rsbvc	r2, r1, #396	; 0x18c
     4b4:	6f6e2d6d 	svcvs	0x006e2d6d
     4b8:	652d656e 	strvs	r6, [sp, #-1390]!	; 0xfffffa92
     4bc:	2f696261 	svccs	0x00696261
     4c0:	2e332e36 	mrccs	14, 1, r2, cr3, cr6, {1}
     4c4:	6e692f31 	mcrvs	15, 3, r2, cr9, cr1, {1}
     4c8:	64756c63 	ldrbtvs	r6, [r5], #-3171	; 0xfffff39d
     4cc:	682f0065 	stmdavs	pc!, {r0, r2, r5, r6}	; <UNPREDICTABLE>
     4d0:	2f656d6f 	svccs	0x00656d6f
     4d4:	72657375 	rsbvc	r7, r5, #-738197503	; 0xd4000001
     4d8:	7665442f 	strbtvc	r4, [r5], -pc, lsr #8
     4dc:	3253432f 	subscc	r4, r3, #-1140850688	; 0xbc000000
     4e0:	2f583034 	svccs	0x00583034
     4e4:	62696c2f 	rsbvs	r6, r9, #12032	; 0x2f00
     4e8:	692f6970 	stmdbvs	pc!, {r4, r5, r6, r8, fp, sp, lr}	; <UNPREDICTABLE>
     4ec:	756c636e 	strbvc	r6, [ip, #-878]!	; 0xfffffc92
     4f0:	00006564 	andeq	r6, r0, r4, ror #10
     4f4:	702d6176 	eorvc	r6, sp, r6, ror r1
     4f8:	746e6972 	strbtvc	r6, [lr], #-2418	; 0xfffff68e
     4fc:	00632e6b 	rsbeq	r2, r3, fp, ror #28
     500:	6c000001 	stcvs	0, cr0, [r0], {1}
     504:	2e6b636f 	cdpcs	3, 6, cr6, cr11, cr15, {3}
     508:	00020068 	andeq	r0, r2, r8, rrx
     50c:	79745f00 	ldmdbvc	r4!, {r8, r9, sl, fp, ip, lr}^
     510:	2e736570 	mrccs	5, 3, r6, cr3, cr0, {3}
     514:	00020068 	andeq	r0, r2, r8, rrx
     518:	64747300 	ldrbtvs	r7, [r4], #-768	; 0xfffffd00
     51c:	2e666564 	cdpcs	5, 6, cr6, cr6, cr4, {3}
     520:	00030068 	andeq	r0, r3, r8, rrx
     524:	65657200 	strbvs	r7, [r5, #-512]!	; 0xfffffe00
     528:	682e746e 	stmdavs	lr!, {r1, r2, r3, r5, r6, sl, ip, sp, lr}
     52c:	00000200 	andeq	r0, r0, r0, lsl #4
     530:	2e697072 	mcrcs	0, 3, r7, cr9, cr2, {3}
     534:	00040068 	andeq	r0, r4, r8, rrx
     538:	64747300 	ldrbtvs	r7, [r4], #-768	; 0xfffffd00
     53c:	2e677261 	cdpcs	2, 6, cr7, cr7, cr1, {3}
     540:	00030068 	andeq	r0, r3, r8, rrx
     544:	75623c00 	strbvc	r3, [r2, #-3072]!	; 0xfffff400
     548:	2d746c69 	ldclcs	12, cr6, [r4, #-420]!	; 0xfffffe5c
     54c:	003e6e69 	eorseq	r6, lr, r9, ror #28
     550:	00000000 	andeq	r0, r0, r0
     554:	5c020500 	cfstr32pl	mvfx0, [r2], {-0}
     558:	03000089 	movweq	r0, #137	; 0x89
     55c:	a5010126 	strge	r0, [r1, #-294]	; 0xfffffeda
     560:	02003013 	andeq	r3, r0, #19
     564:	002f0204 	eoreq	r0, pc, r4, lsl #4
     568:	49020402 	stmdbmi	r2, {r1, sl}
     56c:	02040200 	andeq	r0, r4, #0, 4
     570:	0402002f 	streq	r0, [r2], #-47	; 0xffffffd1
     574:	4c4c2d01 	mcrrmi	13, 0, r2, ip, cr1
     578:	2f4b1430 	svccs	0x004b1430
     57c:	0402004f 	streq	r0, [r2], #-79	; 0xffffffb1
     580:	02006703 	andeq	r6, r0, #786432	; 0xc0000
     584:	4c650104 	stfmie	f0, [r5], #-16
     588:	2fa0304d 	svccs	0x00a0304d
     58c:	26023031 			; <UNDEFINED> instruction: 0x26023031
     590:	002da016 	eoreq	sl, sp, r6, lsl r0
     594:	06010402 	streq	r0, [r1], -r2, lsl #8
     598:	5148062e 	cmppl	r8, lr, lsr #12
     59c:	01040200 	mrseq	r0, R12_usr
     5a0:	02002e06 	andeq	r2, r0, #6, 28	; 0x60
     5a4:	08060104 	stmdaeq	r6, {r2, r8}
     5a8:	032f6759 			; <UNDEFINED> instruction: 0x032f6759
     5ac:	02008273 	andeq	r8, r0, #805306375	; 0x30000007
     5b0:	13030104 	movwne	r0, #12548	; 0x3104
     5b4:	0402002e 	streq	r0, [r2], #-46	; 0xffffffd2
     5b8:	674bbb01 	strbvs	fp, [fp, -r1, lsl #22]
     5bc:	d74a1503 	strble	r1, [sl, -r3, lsl #10]
     5c0:	4b4a6e03 	blmi	129bdd4 <__bss_end__+0x1291e3c>
     5c4:	002e6503 	eoreq	r6, lr, r3, lsl #10
     5c8:	03010402 	movweq	r0, #5122	; 0x1402
     5cc:	02002e23 	andeq	r2, r0, #560	; 0x230
     5d0:	00bb0104 	adcseq	r0, fp, r4, lsl #2
     5d4:	6a010402 	bvs	415e4 <__bss_end__+0x3764c>
     5d8:	087fa803 	ldmdaeq	pc!, {r0, r1, fp, sp, pc}^	; <UNPREDICTABLE>
     5dc:	4b4b13ac 	blmi	12c5494 <__bss_end__+0x12bb4fc>
     5e0:	0402002f 	streq	r0, [r2], #-47	; 0xffffffd1
     5e4:	02006201 	andeq	r6, r0, #268435456	; 0x10000000
     5e8:	032f0104 			; <UNDEFINED> instruction: 0x032f0104
     5ec:	740800df 	strvc	r0, [r8], #-223	; 0xffffff21
     5f0:	31484c83 	smlalbbcc	r4, r8, r3, ip
     5f4:	01040200 	mrseq	r0, R12_usr
     5f8:	4b066606 	blmi	199e18 <__bss_end__+0x18fe80>
     5fc:	314e842f 	cmpcc	lr, pc, lsr #8
     600:	2e780330 	mrccs	3, 3, r0, cr8, cr0, {1}
     604:	09032d2f 	stmdbeq	r3, {r0, r1, r2, r3, r5, r8, sl, fp, sp}
     608:	a22c834a 	eorge	r8, ip, #671088641	; 0x28000001
     60c:	0402004c 	streq	r0, [r2], #-76	; 0xffffffb4
     610:	10360201 	eorsne	r0, r6, r1, lsl #4
     614:	d60e03dc 			; <UNDEFINED> instruction: 0xd60e03dc
     618:	58081603 	stmdapl	r8, {r0, r1, r9, sl, ip}
     61c:	2e6a0331 	mcrcs	3, 3, r0, cr10, cr1, {1}
     620:	08315908 	ldmdaeq	r1!, {r3, r8, fp, ip, lr}
     624:	59083059 	stmdbpl	r8, {r0, r3, r4, r6, ip, sp}
     628:	08308330 	ldmdaeq	r0!, {r4, r5, r8, r9, pc}
     62c:	27083059 	smlsdcs	r8, r9, r0, r3
     630:	04020065 	streq	r0, [r2], #-101	; 0xffffff9b
     634:	064a0601 	strbeq	r0, [sl], -r1, lsl #12
     638:	10026886 	andne	r6, r2, r6, lsl #17
     63c:	2a010100 	bcs	40a44 <__bss_end__+0x36aac>
     640:	02000001 	andeq	r0, r0, #1
     644:	0000ce00 	andeq	ip, r0, r0, lsl #28
     648:	fb010200 	blx	40e52 <__bss_end__+0x36eba>
     64c:	01000d0e 	tsteq	r0, lr, lsl #26
     650:	00010101 	andeq	r0, r1, r1, lsl #2
     654:	00010000 	andeq	r0, r1, r0
     658:	696c0100 	stmdbvs	ip!, {r8}^
     65c:	2f006362 	svccs	0x00006362
     660:	2f727375 	svccs	0x00727375
     664:	2f62696c 	svccs	0x0062696c
     668:	2f636367 	svccs	0x00636367
     66c:	2d6d7261 	sfmcs	f7, 2, [sp, #-388]!	; 0xfffffe7c
     670:	656e6f6e 	strbvs	r6, [lr, #-3950]!	; 0xfffff092
     674:	6261652d 	rsbvs	r6, r1, #188743680	; 0xb400000
     678:	2e362f69 	cdpcs	15, 3, cr2, cr6, cr9, {3}
     67c:	2f312e33 	svccs	0x00312e33
     680:	6c636e69 	stclvs	14, cr6, [r3], #-420	; 0xfffffe5c
     684:	00656475 	rsbeq	r6, r5, r5, ror r4
     688:	7273752f 	rsbsvc	r7, r3, #197132288	; 0xbc00000
     68c:	636e692f 	cmnvs	lr, #770048	; 0xbc000
     690:	6564756c 	strbvs	r7, [r4, #-1388]!	; 0xfffffa94
     694:	77656e2f 	strbvc	r6, [r5, -pc, lsr #28]!
     698:	2f62696c 	svccs	0x0062696c
     69c:	00737973 	rsbseq	r7, r3, r3, ror r9
     6a0:	6d6f682f 	stclvs	8, cr6, [pc, #-188]!	; 5ec <_start-0x7a14>
     6a4:	73752f65 	cmnvc	r5, #404	; 0x194
     6a8:	442f7265 	strtmi	r7, [pc], #-613	; 6b0 <_start-0x7950>
     6ac:	432f7665 			; <UNDEFINED> instruction: 0x432f7665
     6b0:	30343253 	eorscc	r3, r4, r3, asr r2
     6b4:	6c2f2f58 	stcvs	15, cr2, [pc], #-352	; 55c <_start-0x7aa4>
     6b8:	69706269 	ldmdbvs	r0!, {r0, r3, r5, r6, r9, sp, lr}^
     6bc:	636e692f 	cmnvs	lr, #770048	; 0xbc000
     6c0:	6564756c 	strbvs	r7, [r4, #-1388]!	; 0xfffffa94
     6c4:	61680000 	cmnvs	r8, r0
     6c8:	632e6873 			; <UNDEFINED> instruction: 0x632e6873
     6cc:	00000100 	andeq	r0, r0, r0, lsl #2
     6d0:	69647473 	stmdbvs	r4!, {r0, r1, r4, r5, r6, sl, ip, sp, lr}^
     6d4:	672d746e 	strvs	r7, [sp, -lr, ror #8]!
     6d8:	682e6363 	stmdavs	lr!, {r0, r1, r5, r6, r8, r9, sp, lr}
     6dc:	00000200 	andeq	r0, r0, r0, lsl #4
     6e0:	6b636f6c 	blvs	18dc498 <__bss_end__+0x18d2500>
     6e4:	0300682e 	movweq	r6, #2094	; 0x82e
     6e8:	745f0000 	ldrbvc	r0, [pc], #-0	; 6f0 <_start-0x7910>
     6ec:	73657079 	cmnvc	r5, #121	; 0x79
     6f0:	0300682e 	movweq	r6, #2094	; 0x82e
     6f4:	74730000 	ldrbtvc	r0, [r3], #-0
     6f8:	66656464 	strbtvs	r6, [r5], -r4, ror #8
     6fc:	0200682e 	andeq	r6, r0, #3014656	; 0x2e0000
     700:	65720000 	ldrbvs	r0, [r2, #-0]!
     704:	2e746e65 	cdpcs	14, 7, cr6, cr4, cr5, {3}
     708:	00030068 	andeq	r0, r3, r8, rrx
     70c:	69707200 	ldmdbvs	r0!, {r9, ip, sp, lr}^
     710:	0400682e 	streq	r6, [r0], #-2094	; 0xfffff7d2
     714:	00000000 	andeq	r0, r0, r0
     718:	8ea00205 	cdphi	2, 10, cr0, cr0, cr5, {0}
     71c:	0e030000 	cdpeq	0, 0, cr0, cr3, cr0, {0}
     720:	51611701 	cmnpl	r1, r1, lsl #14
     724:	0200312f 	andeq	r3, r0, #-1073741813	; 0xc000000b
     728:	002f0204 	eoreq	r0, pc, r4, lsl #4
     72c:	83020402 	movwhi	r0, #9218	; 0x2402
     730:	02040200 	andeq	r0, r4, #0, 4
     734:	04020083 	streq	r0, [r2], #-131	; 0xffffff7d
     738:	02002f02 	andeq	r2, r0, #2, 30
     73c:	002f0204 	eoreq	r0, pc, r4, lsl #4
     740:	29020402 	stmdbcs	r2, {r1, sl}
     744:	01040200 	mrseq	r0, R12_usr
     748:	03062e06 	movweq	r2, #28166	; 0x6e06
     74c:	10034a09 	andne	r4, r3, r9, lsl #20
     750:	2f2f2fba 	svccs	0x002f2fba
     754:	03302f2f 	teqeq	r0, #47, 30	; 0xbc
     758:	2f832e6a 	svccs	0x00832e6a
     75c:	832f2f4b 			; <UNDEFINED> instruction: 0x832f2f4b
     760:	4b2f2f2f 	blmi	bcc424 <__bss_end__+0xbc248c>
     764:	4a65032f 	bmi	1941428 <__bss_end__+0x1937490>
     768:	01000402 	tsteq	r0, r2, lsl #8
     76c:	0000e401 	andeq	lr, r0, r1, lsl #8
     770:	be000200 	cdplt	2, 0, cr0, cr0, cr0, {0}
     774:	02000000 	andeq	r0, r0, #0
     778:	0d0efb01 	vstreq	d15, [lr, #-4]
     77c:	01010100 	mrseq	r0, (UNDEF: 17)
     780:	00000001 	andeq	r0, r0, r1
     784:	01000001 	tsteq	r0, r1
     788:	6362696c 	cmnvs	r2, #108, 18	; 0x1b0000
     78c:	73752f00 	cmnvc	r5, #0, 30
     790:	6e692f72 	mcrvs	15, 3, r2, cr9, cr2, {3}
     794:	64756c63 	ldrbtvs	r6, [r5], #-3171	; 0xfffff39d
     798:	656e2f65 	strbvs	r2, [lr, #-3941]!	; 0xfffff09b
     79c:	62696c77 	rsbvs	r6, r9, #30464	; 0x7700
     7a0:	7379732f 	cmnvc	r9, #-1140850688	; 0xbc000000
     7a4:	73752f00 	cmnvc	r5, #0, 30
     7a8:	696c2f72 	stmdbvs	ip!, {r1, r4, r5, r6, r8, r9, sl, fp, sp}^
     7ac:	63672f62 	cmnvs	r7, #392	; 0x188
     7b0:	72612f63 	rsbvc	r2, r1, #396	; 0x18c
     7b4:	6f6e2d6d 	svcvs	0x006e2d6d
     7b8:	652d656e 	strvs	r6, [sp, #-1390]!	; 0xfffffa92
     7bc:	2f696261 	svccs	0x00696261
     7c0:	2e332e36 	mrccs	14, 1, r2, cr3, cr6, {1}
     7c4:	6e692f31 	mcrvs	15, 3, r2, cr9, cr1, {1}
     7c8:	64756c63 	ldrbtvs	r6, [r5], #-3171	; 0xfffff39d
     7cc:	682f0065 	stmdavs	pc!, {r0, r2, r5, r6}	; <UNPREDICTABLE>
     7d0:	2f656d6f 	svccs	0x00656d6f
     7d4:	72657375 	rsbvc	r7, r5, #-738197503	; 0xd4000001
     7d8:	7665442f 	strbtvc	r4, [r5], -pc, lsr #8
     7dc:	3253432f 	subscc	r4, r3, #-1140850688	; 0xbc000000
     7e0:	2f583034 	svccs	0x00583034
     7e4:	62696c2f 	rsbvs	r6, r9, #12032	; 0x2f00
     7e8:	692f6970 	stmdbvs	pc!, {r4, r5, r6, r8, fp, sp, lr}	; <UNPREDICTABLE>
     7ec:	756c636e 	strbvc	r6, [ip, #-878]!	; 0xfffffc92
     7f0:	00006564 	andeq	r6, r0, r4, ror #10
     7f4:	6b747570 	blvs	1d1ddbc <__bss_end__+0x1d13e24>
     7f8:	0100632e 	tsteq	r0, lr, lsr #6
     7fc:	6f6c0000 	svcvs	0x006c0000
     800:	682e6b63 	stmdavs	lr!, {r0, r1, r5, r6, r8, r9, fp, sp, lr}
     804:	00000200 	andeq	r0, r0, r0, lsl #4
     808:	7079745f 	rsbsvc	r7, r9, pc, asr r4
     80c:	682e7365 	stmdavs	lr!, {r0, r2, r5, r6, r8, r9, ip, sp, lr}
     810:	00000200 	andeq	r0, r0, r0, lsl #4
     814:	64647473 	strbtvs	r7, [r4], #-1139	; 0xfffffb8d
     818:	682e6665 	stmdavs	lr!, {r0, r2, r5, r6, r9, sl, sp, lr}
     81c:	00000300 	andeq	r0, r0, r0, lsl #6
     820:	6e656572 	mcrvs	5, 3, r6, cr5, cr2, {3}
     824:	00682e74 	rsbeq	r2, r8, r4, ror lr
     828:	72000002 	andvc	r0, r0, #2
     82c:	682e6970 	stmdavs	lr!, {r4, r5, r6, r8, fp, sp, lr}
     830:	00000400 	andeq	r0, r0, r0, lsl #8
     834:	02050000 	andeq	r0, r5, #0
     838:	00008f88 	andeq	r8, r0, r8, lsl #31
     83c:	02004b15 	andeq	r4, r0, #21504	; 0x5400
     840:	002f0204 	eoreq	r0, pc, r4, lsl #4
     844:	65020402 	strvs	r0, [r2, #-1026]	; 0xfffffbfe
     848:	01040200 	mrseq	r0, R12_usr
     84c:	6b062e06 	blvs	18c06c <__bss_end__+0x1820d4>
     850:	01000602 	tsteq	r0, r2, lsl #12
     854:	0000d901 	andeq	sp, r0, r1, lsl #18
     858:	c1000200 	mrsgt	r0, R8_usr
     85c:	02000000 	andeq	r0, r0, #0
     860:	0d0efb01 	vstreq	d15, [lr, #-4]
     864:	01010100 	mrseq	r0, (UNDEF: 17)
     868:	00000001 	andeq	r0, r0, r1
     86c:	01000001 	tsteq	r0, r1
     870:	6362696c 	cmnvs	r2, #108, 18	; 0x1b0000
     874:	73752f00 	cmnvc	r5, #0, 30
     878:	6e692f72 	mcrvs	15, 3, r2, cr9, cr2, {3}
     87c:	64756c63 	ldrbtvs	r6, [r5], #-3171	; 0xfffff39d
     880:	656e2f65 	strbvs	r2, [lr, #-3941]!	; 0xfffff09b
     884:	62696c77 	rsbvs	r6, r9, #30464	; 0x7700
     888:	7379732f 	cmnvc	r9, #-1140850688	; 0xbc000000
     88c:	73752f00 	cmnvc	r5, #0, 30
     890:	696c2f72 	stmdbvs	ip!, {r1, r4, r5, r6, r8, r9, sl, fp, sp}^
     894:	63672f62 	cmnvs	r7, #392	; 0x188
     898:	72612f63 	rsbvc	r2, r1, #396	; 0x18c
     89c:	6f6e2d6d 	svcvs	0x006e2d6d
     8a0:	652d656e 	strvs	r6, [sp, #-1390]!	; 0xfffffa92
     8a4:	2f696261 	svccs	0x00696261
     8a8:	2e332e36 	mrccs	14, 1, r2, cr3, cr6, {1}
     8ac:	6e692f31 	mcrvs	15, 3, r2, cr9, cr1, {1}
     8b0:	64756c63 	ldrbtvs	r6, [r5], #-3171	; 0xfffff39d
     8b4:	682f0065 	stmdavs	pc!, {r0, r2, r5, r6}	; <UNPREDICTABLE>
     8b8:	2f656d6f 	svccs	0x00656d6f
     8bc:	72657375 	rsbvc	r7, r5, #-738197503	; 0xd4000001
     8c0:	7665442f 	strbtvc	r4, [r5], -pc, lsr #8
     8c4:	3253432f 	subscc	r4, r3, #-1140850688	; 0xbc000000
     8c8:	2f583034 	svccs	0x00583034
     8cc:	62696c2f 	rsbvs	r6, r9, #12032	; 0x2f00
     8d0:	692f6970 	stmdbvs	pc!, {r4, r5, r6, r8, fp, sp, lr}	; <UNPREDICTABLE>
     8d4:	756c636e 	strbvc	r6, [ip, #-878]!	; 0xfffffc92
     8d8:	00006564 	andeq	r6, r0, r4, ror #10
     8dc:	63747570 	cmnvs	r4, #112, 10	; 0x1c000000
     8e0:	2e726168 	rpwcssz	f6, f2, #0.0
     8e4:	00010063 	andeq	r0, r1, r3, rrx
     8e8:	636f6c00 	cmnvs	pc, #0, 24
     8ec:	00682e6b 	rsbeq	r2, r8, fp, ror #28
     8f0:	5f000002 	svcpl	0x00000002
     8f4:	65707974 	ldrbvs	r7, [r0, #-2420]!	; 0xfffff68c
     8f8:	00682e73 	rsbeq	r2, r8, r3, ror lr
     8fc:	73000002 	movwvc	r0, #2
     900:	65646474 	strbvs	r6, [r4, #-1140]!	; 0xfffffb8c
     904:	00682e66 	rsbeq	r2, r8, r6, ror #28
     908:	72000003 	andvc	r0, r0, #3
     90c:	746e6565 	strbtvc	r6, [lr], #-1381	; 0xfffffa9b
     910:	0200682e 	andeq	r6, r0, #3014656	; 0x2e0000
     914:	70720000 	rsbsvc	r0, r2, r0
     918:	00682e69 	rsbeq	r2, r8, r9, ror #28
     91c:	00000004 	andeq	r0, r0, r4
     920:	bc020500 	cfstr32lt	mvfx0, [r2], {-0}
     924:	1400008f 	strne	r0, [r0], #-143	; 0xffffff71
     928:	bc136b4a 			; <UNDEFINED> instruction: 0xbc136b4a
     92c:	00080213 	andeq	r0, r8, r3, lsl r2
     930:	00ca0101 	sbceq	r0, sl, r1, lsl #2
     934:	00020000 	andeq	r0, r2, r0
     938:	000000b2 	strheq	r0, [r0], -r2
     93c:	0efb0102 	cdpeq	1, 15, cr0, cr11, cr2, {0}
     940:	0101000d 	tsteq	r1, sp
     944:	00000101 	andeq	r0, r0, r1, lsl #2
     948:	00000100 	andeq	r0, r0, r0, lsl #2
     94c:	62696c01 	rsbvs	r6, r9, #256	; 0x100
     950:	752f0063 	strvc	r0, [pc, #-99]!	; 8f5 <_start-0x770b>
     954:	6c2f7273 	sfmvs	f7, 4, [pc], #-460	; 790 <_start-0x7870>
     958:	672f6269 	strvs	r6, [pc, -r9, ror #4]!
     95c:	612f6363 			; <UNDEFINED> instruction: 0x612f6363
     960:	6e2d6d72 	mcrvs	13, 1, r6, cr13, cr2, {3}
     964:	2d656e6f 	stclcs	14, cr6, [r5, #-444]!	; 0xfffffe44
     968:	69626165 	stmdbvs	r2!, {r0, r2, r5, r6, r8, sp, lr}^
     96c:	332e362f 			; <UNDEFINED> instruction: 0x332e362f
     970:	692f312e 	stmdbvs	pc!, {r1, r2, r3, r5, r8, ip, sp}	; <UNPREDICTABLE>
     974:	756c636e 	strbvc	r6, [ip, #-878]!	; 0xfffffc92
     978:	2f006564 	svccs	0x00006564
     97c:	2f727375 	svccs	0x00727375
     980:	6c636e69 	stclvs	14, cr6, [r3], #-420	; 0xfffffe5c
     984:	2f656475 	svccs	0x00656475
     988:	6c77656e 	cfldr64vs	mvdx6, [r7], #-440	; 0xfffffe48
     98c:	732f6269 			; <UNDEFINED> instruction: 0x732f6269
     990:	2f007379 	svccs	0x00007379
     994:	2f727375 	svccs	0x00727375
     998:	6c636e69 	stclvs	14, cr6, [r3], #-420	; 0xfffffe5c
     99c:	2f656475 	svccs	0x00656475
     9a0:	6c77656e 	cfldr64vs	mvdx6, [r7], #-440	; 0xfffffe48
     9a4:	00006269 	andeq	r6, r0, r9, ror #4
     9a8:	736d656d 	cmnvc	sp, #457179136	; 0x1b400000
     9ac:	632e7465 			; <UNDEFINED> instruction: 0x632e7465
     9b0:	00000100 	andeq	r0, r0, r0, lsl #2
     9b4:	64647473 	strbtvs	r7, [r4], #-1139	; 0xfffffb8d
     9b8:	682e6665 	stmdavs	lr!, {r0, r2, r5, r6, r9, sl, sp, lr}
     9bc:	00000200 	andeq	r0, r0, r0, lsl #4
     9c0:	6b636f6c 	blvs	18dc778 <__bss_end__+0x18d27e0>
     9c4:	0300682e 	movweq	r6, #2094	; 0x82e
     9c8:	745f0000 	ldrbvc	r0, [pc], #-0	; 9d0 <_start-0x7630>
     9cc:	73657079 	cmnvc	r5, #121	; 0x79
     9d0:	0300682e 	movweq	r6, #2094	; 0x82e
     9d4:	65720000 	ldrbvs	r0, [r2, #-0]!
     9d8:	2e746e65 	cdpcs	14, 7, cr6, cr4, cr5, {3}
     9dc:	00030068 	andeq	r0, r3, r8, rrx
     9e0:	72747300 	rsbsvc	r7, r4, #0, 6
     9e4:	2e676e69 	cdpcs	14, 6, cr6, cr7, cr9, {3}
     9e8:	00040068 	andeq	r0, r4, r8, rrx
     9ec:	05000000 	streq	r0, [r0, #-0]
     9f0:	008ff802 	addeq	pc, pc, r2, lsl #16
     9f4:	4c131400 	cfldrsmi	mvf1, [r3], {-0}
     9f8:	024d492f 	subeq	r4, sp, #770048	; 0xbc000
     9fc:	01010002 	tsteq	r1, r2
     a00:	000000e2 	andeq	r0, r0, r2, ror #1
     a04:	00c50002 	sbceq	r0, r5, r2
     a08:	01020000 	mrseq	r0, (UNDEF: 2)
     a0c:	000d0efb 	strdeq	r0, [sp], -fp
     a10:	01010101 	tsteq	r1, r1, lsl #2
     a14:	01000000 	mrseq	r0, (UNDEF: 0)
     a18:	73010000 	movwvc	r0, #4096	; 0x1000
     a1c:	66666174 			; <UNDEFINED> instruction: 0x66666174
     a20:	6372732d 	cmnvs	r2, #-1275068416	; 0xb4000000
     a24:	73752f00 	cmnvc	r5, #0, 30
     a28:	6e692f72 	mcrvs	15, 3, r2, cr9, cr2, {3}
     a2c:	64756c63 	ldrbtvs	r6, [r5], #-3171	; 0xfffff39d
     a30:	656e2f65 	strbvs	r2, [lr, #-3941]!	; 0xfffff09b
     a34:	62696c77 	rsbvs	r6, r9, #30464	; 0x7700
     a38:	7379732f 	cmnvc	r9, #-1140850688	; 0xbc000000
     a3c:	73752f00 	cmnvc	r5, #0, 30
     a40:	696c2f72 	stmdbvs	ip!, {r1, r4, r5, r6, r8, r9, sl, fp, sp}^
     a44:	63672f62 	cmnvs	r7, #392	; 0x188
     a48:	72612f63 	rsbvc	r2, r1, #396	; 0x18c
     a4c:	6f6e2d6d 	svcvs	0x006e2d6d
     a50:	652d656e 	strvs	r6, [sp, #-1390]!	; 0xfffffa92
     a54:	2f696261 	svccs	0x00696261
     a58:	2e332e36 	mrccs	14, 1, r2, cr3, cr6, {1}
     a5c:	6e692f31 	mcrvs	15, 3, r2, cr9, cr1, {1}
     a60:	64756c63 	ldrbtvs	r6, [r5], #-3171	; 0xfffff39d
     a64:	682f0065 	stmdavs	pc!, {r0, r2, r5, r6}	; <UNPREDICTABLE>
     a68:	2f656d6f 	svccs	0x00656d6f
     a6c:	72657375 	rsbvc	r7, r5, #-738197503	; 0xd4000001
     a70:	7665442f 	strbtvc	r4, [r5], -pc, lsr #8
     a74:	3253432f 	subscc	r4, r3, #-1140850688	; 0xbc000000
     a78:	2f583034 	svccs	0x00583034
     a7c:	62696c2f 	rsbvs	r6, r9, #12032	; 0x2f00
     a80:	692f6970 	stmdbvs	pc!, {r4, r5, r6, r8, fp, sp, lr}	; <UNPREDICTABLE>
     a84:	756c636e 	strbvc	r6, [ip, #-878]!	; 0xfffffc92
     a88:	00006564 	andeq	r6, r0, r4, ror #10
     a8c:	61747363 	cmnvs	r4, r3, ror #6
     a90:	632e7472 			; <UNDEFINED> instruction: 0x632e7472
     a94:	00000100 	andeq	r0, r0, r0, lsl #2
     a98:	6b636f6c 	blvs	18dc850 <__bss_end__+0x18d28b8>
     a9c:	0200682e 	andeq	r6, r0, #3014656	; 0x2e0000
     aa0:	745f0000 	ldrbvc	r0, [pc], #-0	; aa8 <_start-0x7558>
     aa4:	73657079 	cmnvc	r5, #121	; 0x79
     aa8:	0200682e 	andeq	r6, r0, #3014656	; 0x2e0000
     aac:	74730000 	ldrbtvc	r0, [r3], #-0
     ab0:	66656464 	strbtvs	r6, [r5], -r4, ror #8
     ab4:	0300682e 	movweq	r6, #2094	; 0x82e
     ab8:	65720000 	ldrbvs	r0, [r2, #-0]!
     abc:	2e746e65 	cdpcs	14, 7, cr6, cr4, cr5, {3}
     ac0:	00020068 	andeq	r0, r2, r8, rrx
     ac4:	69707200 	ldmdbvs	r0!, {r9, ip, sp, lr}^
     ac8:	0400682e 	streq	r6, [r0], #-2094	; 0xfffff7d2
     acc:	00000000 	andeq	r0, r0, r0
     ad0:	90180205 	andsls	r0, r8, r5, lsl #4
     ad4:	0c030000 	stceq	0, cr0, [r3], {-0}
     ad8:	2f313201 	svccs	0x00313201
     adc:	66150365 	ldrvs	r0, [r5], -r5, ror #6
     ae0:	0006022f 	andeq	r0, r6, pc, lsr #4
     ae4:	00e90101 	rsceq	r0, r9, r1, lsl #2
     ae8:	00020000 	andeq	r0, r2, r0
     aec:	000000c5 	andeq	r0, r0, r5, asr #1
     af0:	0efb0102 	cdpeq	1, 15, cr0, cr11, cr2, {0}
     af4:	0101000d 	tsteq	r1, sp
     af8:	00000101 	andeq	r0, r0, r1, lsl #2
     afc:	00000100 	andeq	r0, r0, r0, lsl #2
     b00:	61747301 	cmnvs	r4, r1, lsl #6
     b04:	732d6666 			; <UNDEFINED> instruction: 0x732d6666
     b08:	2f006372 	svccs	0x00006372
     b0c:	2f727375 	svccs	0x00727375
     b10:	6c636e69 	stclvs	14, cr6, [r3], #-420	; 0xfffffe5c
     b14:	2f656475 	svccs	0x00656475
     b18:	6c77656e 	cfldr64vs	mvdx6, [r7], #-440	; 0xfffffe48
     b1c:	732f6269 			; <UNDEFINED> instruction: 0x732f6269
     b20:	2f007379 	svccs	0x00007379
     b24:	2f727375 	svccs	0x00727375
     b28:	2f62696c 	svccs	0x0062696c
     b2c:	2f636367 	svccs	0x00636367
     b30:	2d6d7261 	sfmcs	f7, 2, [sp, #-388]!	; 0xfffffe7c
     b34:	656e6f6e 	strbvs	r6, [lr, #-3950]!	; 0xfffff092
     b38:	6261652d 	rsbvs	r6, r1, #188743680	; 0xb400000
     b3c:	2e362f69 	cdpcs	15, 3, cr2, cr6, cr9, {3}
     b40:	2f312e33 	svccs	0x00312e33
     b44:	6c636e69 	stclvs	14, cr6, [r3], #-420	; 0xfffffe5c
     b48:	00656475 	rsbeq	r6, r5, r5, ror r4
     b4c:	6d6f682f 	stclvs	8, cr6, [pc, #-188]!	; a98 <_start-0x7568>
     b50:	73752f65 	cmnvc	r5, #404	; 0x194
     b54:	442f7265 	strtmi	r7, [pc], #-613	; b5c <_start-0x74a4>
     b58:	432f7665 			; <UNDEFINED> instruction: 0x432f7665
     b5c:	30343253 	eorscc	r3, r4, r3, asr r2
     b60:	6c2f2f58 	stcvs	15, cr2, [pc], #-352	; a08 <_start-0x75f8>
     b64:	69706269 	ldmdbvs	r0!, {r0, r3, r5, r6, r9, sp, lr}^
     b68:	636e692f 	cmnvs	lr, #770048	; 0xbc000
     b6c:	6564756c 	strbvs	r7, [r4, #-1388]!	; 0xfffffa94
     b70:	65720000 	ldrbvs	r0, [r2, #-0]!
     b74:	746f6f62 	strbtvc	r6, [pc], #-3938	; b7c <_start-0x7484>
     b78:	0100632e 	tsteq	r0, lr, lsr #6
     b7c:	6f6c0000 	svcvs	0x006c0000
     b80:	682e6b63 	stmdavs	lr!, {r0, r1, r5, r6, r8, r9, fp, sp, lr}
     b84:	00000200 	andeq	r0, r0, r0, lsl #4
     b88:	7079745f 	rsbsvc	r7, r9, pc, asr r4
     b8c:	682e7365 	stmdavs	lr!, {r0, r2, r5, r6, r8, r9, ip, sp, lr}
     b90:	00000200 	andeq	r0, r0, r0, lsl #4
     b94:	64647473 	strbtvs	r7, [r4], #-1139	; 0xfffffb8d
     b98:	682e6665 	stmdavs	lr!, {r0, r2, r5, r6, r9, sl, sp, lr}
     b9c:	00000300 	andeq	r0, r0, r0, lsl #6
     ba0:	6e656572 	mcrvs	5, 3, r6, cr5, cr2, {3}
     ba4:	00682e74 	rsbeq	r2, r8, r4, ror lr
     ba8:	72000002 	andvc	r0, r0, #2
     bac:	682e6970 	stmdavs	lr!, {r4, r5, r6, r8, fp, sp, lr}
     bb0:	00000400 	andeq	r0, r0, r0, lsl #8
     bb4:	02050000 	andeq	r0, r5, #0
     bb8:	0000904c 	andeq	r9, r0, ip, asr #32
     bbc:	14010d03 	strne	r0, [r1], #-3331	; 0xfffff2fd
     bc0:	15852f31 	strne	r2, [r5, #3889]	; 0xf31
     bc4:	2f4d4b2f 	svccs	0x004d4b2f
     bc8:	0367526e 	cmneq	r7, #-536870906	; 0xe0000006
     bcc:	0c028270 	sfmeq	f0, 1, [r2], {112}	; 0x70
     bd0:	e1010100 	mrs	r0, (UNDEF: 17)
     bd4:	02000000 	andeq	r0, r0, #0
     bd8:	0000cb00 	andeq	ip, r0, r0, lsl #22
     bdc:	fb010200 	blx	413e6 <__bss_end__+0x3744e>
     be0:	01000d0e 	tsteq	r0, lr, lsl #26
     be4:	00010101 	andeq	r0, r1, r1, lsl #2
     be8:	00010000 	andeq	r0, r1, r0
     bec:	74730100 	ldrbtvc	r0, [r3], #-256	; 0xffffff00
     bf0:	2d666661 	stclcs	6, cr6, [r6, #-388]!	; 0xfffffe7c
     bf4:	00637273 	rsbeq	r7, r3, r3, ror r2
     bf8:	7273752f 	rsbsvc	r7, r3, #197132288	; 0xbc00000
     bfc:	636e692f 	cmnvs	lr, #770048	; 0xbc000
     c00:	6564756c 	strbvs	r7, [r4, #-1388]!	; 0xfffffa94
     c04:	77656e2f 	strbvc	r6, [r5, -pc, lsr #28]!
     c08:	2f62696c 	svccs	0x0062696c
     c0c:	00737973 	rsbseq	r7, r3, r3, ror r9
     c10:	7273752f 	rsbsvc	r7, r3, #197132288	; 0xbc00000
     c14:	62696c2f 	rsbvs	r6, r9, #12032	; 0x2f00
     c18:	6363672f 	cmnvs	r3, #12320768	; 0xbc0000
     c1c:	6d72612f 	ldfvse	f6, [r2, #-188]!	; 0xffffff44
     c20:	6e6f6e2d 	cdpvs	14, 6, cr6, cr15, cr13, {1}
     c24:	61652d65 	cmnvs	r5, r5, ror #26
     c28:	362f6962 	strtcc	r6, [pc], -r2, ror #18
     c2c:	312e332e 			; <UNDEFINED> instruction: 0x312e332e
     c30:	636e692f 	cmnvs	lr, #770048	; 0xbc000
     c34:	6564756c 	strbvs	r7, [r4, #-1388]!	; 0xfffffa94
     c38:	6f682f00 	svcvs	0x00682f00
     c3c:	752f656d 	strvc	r6, [pc, #-1389]!	; 6d7 <_start-0x7929>
     c40:	2f726573 	svccs	0x00726573
     c44:	2f766544 	svccs	0x00766544
     c48:	34325343 	ldrtcc	r5, [r2], #-835	; 0xfffffcbd
     c4c:	2f2f5830 	svccs	0x002f5830
     c50:	7062696c 	rsbvc	r6, r2, ip, ror #18
     c54:	6e692f69 	cdpvs	15, 6, cr2, cr9, cr9, {3}
     c58:	64756c63 	ldrbtvs	r6, [r5], #-3171	; 0xfffff39d
     c5c:	63000065 	movwvs	r0, #101	; 0x65
     c60:	6e61656c 	cdpvs	5, 6, cr6, cr1, cr12, {3}
     c64:	6265722d 	rsbvs	r7, r5, #-805306366	; 0xd0000002
     c68:	2e746f6f 	cdpcs	15, 7, cr6, cr4, cr15, {3}
     c6c:	00010063 	andeq	r0, r1, r3, rrx
     c70:	636f6c00 	cmnvs	pc, #0, 24
     c74:	00682e6b 	rsbeq	r2, r8, fp, ror #28
     c78:	5f000002 	svcpl	0x00000002
     c7c:	65707974 	ldrbvs	r7, [r0, #-2420]!	; 0xfffff68c
     c80:	00682e73 	rsbeq	r2, r8, r3, ror lr
     c84:	73000002 	movwvc	r0, #2
     c88:	65646474 	strbvs	r6, [r4, #-1140]!	; 0xfffffb8c
     c8c:	00682e66 	rsbeq	r2, r8, r6, ror #28
     c90:	72000003 	andvc	r0, r0, #3
     c94:	746e6565 	strbtvc	r6, [lr], #-1381	; 0xfffffa9b
     c98:	0200682e 	andeq	r6, r0, #3014656	; 0x2e0000
     c9c:	70720000 	rsbsvc	r0, r2, r0
     ca0:	00682e69 	rsbeq	r2, r8, r9, ror #28
     ca4:	00000004 	andeq	r0, r0, r4
     ca8:	c4020500 	strgt	r0, [r2], #-1280	; 0xfffffb00
     cac:	15000090 	strne	r0, [r0, #-144]	; 0xffffff70
     cb0:	024b832f 	subeq	r8, fp, #-1140850688	; 0xbc000000
     cb4:	01010006 	tsteq	r1, r6
     cb8:	000000ea 	andeq	r0, r0, sl, ror #1
     cbc:	00c40002 	sbceq	r0, r4, r2
     cc0:	01020000 	mrseq	r0, (UNDEF: 2)
     cc4:	000d0efb 	strdeq	r0, [sp], -fp
     cc8:	01010101 	tsteq	r1, r1, lsl #2
     ccc:	01000000 	mrseq	r0, (UNDEF: 0)
     cd0:	73010000 	movwvc	r0, #4096	; 0x1000
     cd4:	66666174 			; <UNDEFINED> instruction: 0x66666174
     cd8:	6372732d 	cmnvs	r2, #-1275068416	; 0xb4000000
     cdc:	73752f00 	cmnvc	r5, #0, 30
     ce0:	6e692f72 	mcrvs	15, 3, r2, cr9, cr2, {3}
     ce4:	64756c63 	ldrbtvs	r6, [r5], #-3171	; 0xfffff39d
     ce8:	656e2f65 	strbvs	r2, [lr, #-3941]!	; 0xfffff09b
     cec:	62696c77 	rsbvs	r6, r9, #30464	; 0x7700
     cf0:	7379732f 	cmnvc	r9, #-1140850688	; 0xbc000000
     cf4:	73752f00 	cmnvc	r5, #0, 30
     cf8:	696c2f72 	stmdbvs	ip!, {r1, r4, r5, r6, r8, r9, sl, fp, sp}^
     cfc:	63672f62 	cmnvs	r7, #392	; 0x188
     d00:	72612f63 	rsbvc	r2, r1, #396	; 0x18c
     d04:	6f6e2d6d 	svcvs	0x006e2d6d
     d08:	652d656e 	strvs	r6, [sp, #-1390]!	; 0xfffffa92
     d0c:	2f696261 	svccs	0x00696261
     d10:	2e332e36 	mrccs	14, 1, r2, cr3, cr6, {1}
     d14:	6e692f31 	mcrvs	15, 3, r2, cr9, cr1, {1}
     d18:	64756c63 	ldrbtvs	r6, [r5], #-3171	; 0xfffff39d
     d1c:	682f0065 	stmdavs	pc!, {r0, r2, r5, r6}	; <UNPREDICTABLE>
     d20:	2f656d6f 	svccs	0x00656d6f
     d24:	72657375 	rsbvc	r7, r5, #-738197503	; 0xd4000001
     d28:	7665442f 	strbtvc	r4, [r5], -pc, lsr #8
     d2c:	3253432f 	subscc	r4, r3, #-1140850688	; 0xbc000000
     d30:	2f583034 	svccs	0x00583034
     d34:	62696c2f 	rsbvs	r6, r9, #12032	; 0x2f00
     d38:	692f6970 	stmdbvs	pc!, {r4, r5, r6, r8, fp, sp, lr}	; <UNPREDICTABLE>
     d3c:	756c636e 	strbvc	r6, [ip, #-878]!	; 0xfffffc92
     d40:	00006564 	andeq	r6, r0, r4, ror #10
     d44:	656d6974 	strbvs	r6, [sp, #-2420]!	; 0xfffff68c
     d48:	00632e72 	rsbeq	r2, r3, r2, ror lr
     d4c:	6c000001 	stcvs	0, cr0, [r0], {1}
     d50:	2e6b636f 	cdpcs	3, 6, cr6, cr11, cr15, {3}
     d54:	00020068 	andeq	r0, r2, r8, rrx
     d58:	79745f00 	ldmdbvc	r4!, {r8, r9, sl, fp, ip, lr}^
     d5c:	2e736570 	mrccs	5, 3, r6, cr3, cr0, {3}
     d60:	00020068 	andeq	r0, r2, r8, rrx
     d64:	64747300 	ldrbtvs	r7, [r4], #-768	; 0xfffffd00
     d68:	2e666564 	cdpcs	5, 6, cr6, cr6, cr4, {3}
     d6c:	00030068 	andeq	r0, r3, r8, rrx
     d70:	65657200 	strbvs	r7, [r5, #-512]!	; 0xfffffe00
     d74:	682e746e 	stmdavs	lr!, {r1, r2, r3, r5, r6, sl, ip, sp, lr}
     d78:	00000200 	andeq	r0, r0, r0, lsl #4
     d7c:	2e697072 	mcrcs	0, 3, r7, cr9, cr2, {3}
     d80:	00040068 	andeq	r0, r4, r8, rrx
     d84:	05000000 	streq	r0, [r0, #-0]
     d88:	0090ec02 	addseq	lr, r0, r2, lsl #24
     d8c:	2f141600 	svccs	0x00141600
     d90:	2f31892d 	svccs	0x0031892d
     d94:	31324d4b 	teqcc	r2, fp, asr #26
     d98:	2f4c4b30 	svccs	0x004c4b30
     d9c:	842f2f6a 	strthi	r2, [pc], #-3946	; da4 <_start-0x725c>
     da0:	0008022f 	andeq	r0, r8, pc, lsr #4
     da4:	01480101 	cmpeq	r8, r1, lsl #2
     da8:	00020000 	andeq	r0, r2, r0
     dac:	00000102 	andeq	r0, r0, r2, lsl #2
     db0:	0efb0102 	cdpeq	1, 15, cr0, cr11, cr2, {0}
     db4:	0101000d 	tsteq	r1, sp
     db8:	00000101 	andeq	r0, r0, r1, lsl #2
     dbc:	00000100 	andeq	r0, r0, r0, lsl #2
     dc0:	73752f01 	cmnvc	r5, #1, 30
     dc4:	6e692f72 	mcrvs	15, 3, r2, cr9, cr2, {3}
     dc8:	64756c63 	ldrbtvs	r6, [r5], #-3171	; 0xfffff39d
     dcc:	656e2f65 	strbvs	r2, [lr, #-3941]!	; 0xfffff09b
     dd0:	62696c77 	rsbvs	r6, r9, #30464	; 0x7700
     dd4:	7379732f 	cmnvc	r9, #-1140850688	; 0xbc000000
     dd8:	73752f00 	cmnvc	r5, #0, 30
     ddc:	696c2f72 	stmdbvs	ip!, {r1, r4, r5, r6, r8, r9, sl, fp, sp}^
     de0:	63672f62 	cmnvs	r7, #392	; 0x188
     de4:	72612f63 	rsbvc	r2, r1, #396	; 0x18c
     de8:	6f6e2d6d 	svcvs	0x006e2d6d
     dec:	652d656e 	strvs	r6, [sp, #-1390]!	; 0xfffffa92
     df0:	2f696261 	svccs	0x00696261
     df4:	2e332e36 	mrccs	14, 1, r2, cr3, cr6, {1}
     df8:	6e692f31 	mcrvs	15, 3, r2, cr9, cr1, {1}
     dfc:	64756c63 	ldrbtvs	r6, [r5], #-3171	; 0xfffff39d
     e00:	682f0065 	stmdavs	pc!, {r0, r2, r5, r6}	; <UNPREDICTABLE>
     e04:	2f656d6f 	svccs	0x00656d6f
     e08:	6c676e65 	stclvs	14, cr6, [r7], #-404	; 0xfffffe6c
     e0c:	632f7265 			; <UNDEFINED> instruction: 0x632f7265
     e10:	7373616c 	cmnvc	r3, #108, 2
     e14:	3273632f 	rsbscc	r6, r3, #-1140850688	; 0xbc000000
     e18:	786c3034 	stmdavc	ip!, {r2, r4, r5, ip, sp}^
     e1c:	7330322d 	teqvc	r0, #-805306366	; 0xd0000002
     e20:	2f2f7270 	svccs	0x002f7270
     e24:	7062696c 	rsbvc	r6, r2, ip, ror #18
     e28:	682f0069 	stmdavs	pc!, {r0, r3, r5, r6}	; <UNPREDICTABLE>
     e2c:	2f656d6f 	svccs	0x00656d6f
     e30:	6c676e65 	stclvs	14, cr6, [r7], #-404	; 0xfffffe6c
     e34:	632f7265 			; <UNDEFINED> instruction: 0x632f7265
     e38:	7373616c 	cmnvc	r3, #108, 2
     e3c:	3273632f 	rsbscc	r6, r3, #-1140850688	; 0xbc000000
     e40:	786c3034 	stmdavc	ip!, {r2, r4, r5, ip, sp}^
     e44:	7330322d 	teqvc	r0, #-805306366	; 0xd0000002
     e48:	2f2f7270 	svccs	0x002f7270
     e4c:	7062696c 	rsbvc	r6, r2, ip, ror #18
     e50:	74732f69 	ldrbtvc	r2, [r3], #-3945	; 0xfffff097
     e54:	2d666661 	stclcs	6, cr6, [r6, #-388]!	; 0xfffffe7c
     e58:	00637273 	rsbeq	r7, r3, r3, ror r2
     e5c:	72617500 	rsbvc	r7, r1, #0, 10
     e60:	00632e74 	rsbeq	r2, r3, r4, ror lr
     e64:	6c000000 	stcvs	0, cr0, [r0], {-0}
     e68:	2e6b636f 	cdpcs	3, 6, cr6, cr11, cr15, {3}
     e6c:	00010068 	andeq	r0, r1, r8, rrx
     e70:	79745f00 	ldmdbvc	r4!, {r8, r9, sl, fp, ip, lr}^
     e74:	2e736570 	mrccs	5, 3, r6, cr3, cr0, {3}
     e78:	00010068 	andeq	r0, r1, r8, rrx
     e7c:	64747300 	ldrbtvs	r7, [r4], #-768	; 0xfffffd00
     e80:	2e666564 	cdpcs	5, 6, cr6, cr6, cr4, {3}
     e84:	00020068 	andeq	r0, r2, r8, rrx
     e88:	65657200 	strbvs	r7, [r5, #-512]!	; 0xfffffe00
     e8c:	682e746e 	stmdavs	lr!, {r1, r2, r3, r5, r6, sl, ip, sp, lr}
     e90:	00000100 	andeq	r0, r0, r0, lsl #2
     e94:	2e697072 	mcrcs	0, 3, r7, cr9, cr2, {3}
     e98:	00030068 	andeq	r0, r3, r8, rrx
     e9c:	72617500 	rsbvc	r7, r1, #0, 10
     ea0:	00682e74 	rsbeq	r2, r8, r4, ror lr
     ea4:	67000004 	strvs	r0, [r0, -r4]
     ea8:	2e6f6970 			; <UNDEFINED> instruction: 0x2e6f6970
     eac:	00040068 	andeq	r0, r4, r8, rrx
     eb0:	05000000 	streq	r0, [r0, #-0]
     eb4:	0091c002 	addseq	ip, r1, r2
     eb8:	012c0300 			; <UNDEFINED> instruction: 0x012c0300
     ebc:	9e0c0367 	cdpls	3, 0, cr0, cr12, cr7, {3}
     ec0:	35686735 	strbcc	r6, [r8, #-1845]!	; 0xfffff8cb
     ec4:	2e0c0368 	cdpcs	3, 0, cr0, cr12, cr8, {3}
     ec8:	69696b85 	stmdbvs	r9!, {r0, r2, r7, r8, r9, fp, sp, lr}^
     ecc:	6b660c03 	blvs	1983ee0 <__bss_end__+0x1979f48>
     ed0:	34420867 	strbcc	r0, [r2], #-2151	; 0xfffff799
     ed4:	68364b68 	ldmdavs	r6!, {r3, r5, r6, r8, r9, fp, lr}
     ed8:	02002f87 	andeq	r2, r0, #540	; 0x21c
     edc:	682f0104 	stmdavs	pc!, {r2, r8}	; <UNPREDICTABLE>
     ee0:	4b673067 	blmi	19cd084 <__bss_end__+0x19c30ec>
     ee4:	01040200 	mrseq	r0, R12_usr
     ee8:	6967682f 	stmdbvs	r7!, {r0, r1, r2, r3, r5, fp, sp, lr}^
     eec:	0006022e 	andeq	r0, r6, lr, lsr #4
     ef0:	012b0101 			; <UNDEFINED> instruction: 0x012b0101
     ef4:	00020000 	andeq	r0, r2, r0
     ef8:	000000f8 	strdeq	r0, [r0], -r8
     efc:	0efb0102 	cdpeq	1, 15, cr0, cr11, cr2, {0}
     f00:	0101000d 	tsteq	r1, sp
     f04:	00000101 	andeq	r0, r0, r1, lsl #2
     f08:	00000100 	andeq	r0, r0, r0, lsl #2
     f0c:	73752f01 	cmnvc	r5, #1, 30
     f10:	6e692f72 	mcrvs	15, 3, r2, cr9, cr2, {3}
     f14:	64756c63 	ldrbtvs	r6, [r5], #-3171	; 0xfffff39d
     f18:	656e2f65 	strbvs	r2, [lr, #-3941]!	; 0xfffff09b
     f1c:	62696c77 	rsbvs	r6, r9, #30464	; 0x7700
     f20:	7379732f 	cmnvc	r9, #-1140850688	; 0xbc000000
     f24:	73752f00 	cmnvc	r5, #0, 30
     f28:	696c2f72 	stmdbvs	ip!, {r1, r4, r5, r6, r8, r9, sl, fp, sp}^
     f2c:	63672f62 	cmnvs	r7, #392	; 0x188
     f30:	72612f63 	rsbvc	r2, r1, #396	; 0x18c
     f34:	6f6e2d6d 	svcvs	0x006e2d6d
     f38:	652d656e 	strvs	r6, [sp, #-1390]!	; 0xfffffa92
     f3c:	2f696261 	svccs	0x00696261
     f40:	2e332e36 	mrccs	14, 1, r2, cr3, cr6, {1}
     f44:	6e692f31 	mcrvs	15, 3, r2, cr9, cr1, {1}
     f48:	64756c63 	ldrbtvs	r6, [r5], #-3171	; 0xfffff39d
     f4c:	682f0065 	stmdavs	pc!, {r0, r2, r5, r6}	; <UNPREDICTABLE>
     f50:	2f656d6f 	svccs	0x00656d6f
     f54:	6c676e65 	stclvs	14, cr6, [r7], #-404	; 0xfffffe6c
     f58:	632f7265 			; <UNDEFINED> instruction: 0x632f7265
     f5c:	7373616c 	cmnvc	r3, #108, 2
     f60:	3273632f 	rsbscc	r6, r3, #-1140850688	; 0xbc000000
     f64:	786c3034 	stmdavc	ip!, {r2, r4, r5, ip, sp}^
     f68:	7330322d 	teqvc	r0, #-805306366	; 0xd0000002
     f6c:	2f2f7270 	svccs	0x002f7270
     f70:	7062696c 	rsbvc	r6, r2, ip, ror #18
     f74:	682f0069 	stmdavs	pc!, {r0, r3, r5, r6}	; <UNPREDICTABLE>
     f78:	2f656d6f 	svccs	0x00656d6f
     f7c:	6c676e65 	stclvs	14, cr6, [r7], #-404	; 0xfffffe6c
     f80:	632f7265 			; <UNDEFINED> instruction: 0x632f7265
     f84:	7373616c 	cmnvc	r3, #108, 2
     f88:	3273632f 	rsbscc	r6, r3, #-1140850688	; 0xbc000000
     f8c:	786c3034 	stmdavc	ip!, {r2, r4, r5, ip, sp}^
     f90:	7330322d 	teqvc	r0, #-805306366	; 0xd0000002
     f94:	2f2f7270 	svccs	0x002f7270
     f98:	7062696c 	rsbvc	r6, r2, ip, ror #18
     f9c:	74732f69 	ldrbtvc	r2, [r3], #-3945	; 0xfffff097
     fa0:	2d666661 	stclcs	6, cr6, [r6, #-388]!	; 0xfffffe7c
     fa4:	00637273 	rsbeq	r7, r3, r3, ror r2
     fa8:	69706700 	ldmdbvs	r0!, {r8, r9, sl, sp, lr}^
     fac:	00632e6f 	rsbeq	r2, r3, pc, ror #28
     fb0:	6c000000 	stcvs	0, cr0, [r0], {-0}
     fb4:	2e6b636f 	cdpcs	3, 6, cr6, cr11, cr15, {3}
     fb8:	00010068 	andeq	r0, r1, r8, rrx
     fbc:	79745f00 	ldmdbvc	r4!, {r8, r9, sl, fp, ip, lr}^
     fc0:	2e736570 	mrccs	5, 3, r6, cr3, cr0, {3}
     fc4:	00010068 	andeq	r0, r1, r8, rrx
     fc8:	64747300 	ldrbtvs	r7, [r4], #-768	; 0xfffffd00
     fcc:	2e666564 	cdpcs	5, 6, cr6, cr6, cr4, {3}
     fd0:	00020068 	andeq	r0, r2, r8, rrx
     fd4:	65657200 	strbvs	r7, [r5, #-512]!	; 0xfffffe00
     fd8:	682e746e 	stmdavs	lr!, {r1, r2, r3, r5, r6, sl, ip, sp, lr}
     fdc:	00000100 	andeq	r0, r0, r0, lsl #2
     fe0:	2e697072 	mcrcs	0, 3, r7, cr9, cr2, {3}
     fe4:	00030068 	andeq	r0, r3, r8, rrx
     fe8:	69706700 	ldmdbvs	r0!, {r8, r9, sl, sp, lr}^
     fec:	00682e6f 	rsbeq	r2, r8, pc, ror #28
     ff0:	00000004 	andeq	r0, r0, r4
     ff4:	38020500 	stmdacc	r2, {r8, sl}
     ff8:	03000093 	movweq	r0, #147	; 0x93
     ffc:	4c130127 	ldfmis	f0, [r3], {39}	; 0x27
    1000:	68f44f47 	ldmvs	r4!, {r0, r1, r2, r6, r8, r9, sl, fp, lr}^
    1004:	2fa14c4b 	svccs	0x00a14c4b
    1008:	3149136a 	cmpcc	r9, sl, ror #6
    100c:	314913be 	strhcc	r1, [r9, #-62]	; 0xffffffc2
    1010:	2f6a2fbe 	svccs	0x006a2fbe
    1014:	134f484d 	movtne	r4, #63565	; 0xf84d
    1018:	b72f3249 	strlt	r3, [pc, -r9, asr #4]!
    101c:	01000602 	tsteq	r0, r2, lsl #12
    1020:	00013401 	andeq	r3, r1, r1, lsl #8
    1024:	df000200 	svcle	0x00000200
    1028:	02000000 	andeq	r0, r0, #0
    102c:	0d0efb01 	vstreq	d15, [lr, #-4]
    1030:	01010100 	mrseq	r0, (UNDEF: 17)
    1034:	00000001 	andeq	r0, r0, r1
    1038:	01000001 	tsteq	r0, r1
    103c:	7273752f 	rsbsvc	r7, r3, #197132288	; 0xbc00000
    1040:	636e692f 	cmnvs	lr, #770048	; 0xbc000
    1044:	6564756c 	strbvs	r7, [r4, #-1388]!	; 0xfffffa94
    1048:	77656e2f 	strbvc	r6, [r5, -pc, lsr #28]!
    104c:	2f62696c 	svccs	0x0062696c
    1050:	00737973 	rsbseq	r7, r3, r3, ror r9
    1054:	7273752f 	rsbsvc	r7, r3, #197132288	; 0xbc00000
    1058:	62696c2f 	rsbvs	r6, r9, #12032	; 0x2f00
    105c:	6363672f 	cmnvs	r3, #12320768	; 0xbc0000
    1060:	6d72612f 	ldfvse	f6, [r2, #-188]!	; 0xffffff44
    1064:	6e6f6e2d 	cdpvs	14, 6, cr6, cr15, cr13, {1}
    1068:	61652d65 	cmnvs	r5, r5, ror #26
    106c:	362f6962 	strtcc	r6, [pc], -r2, ror #18
    1070:	312e332e 			; <UNDEFINED> instruction: 0x312e332e
    1074:	636e692f 	cmnvs	lr, #770048	; 0xbc000
    1078:	6564756c 	strbvs	r7, [r4, #-1388]!	; 0xfffffa94
    107c:	6f682f00 	svcvs	0x00682f00
    1080:	652f656d 	strvs	r6, [pc, #-1389]!	; b1b <_start-0x74e5>
    1084:	656c676e 	strbvs	r6, [ip, #-1902]!	; 0xfffff892
    1088:	6c632f72 	stclvs	15, cr2, [r3], #-456	; 0xfffffe38
    108c:	2f737361 	svccs	0x00737361
    1090:	34327363 	ldrtcc	r7, [r2], #-867	; 0xfffffc9d
    1094:	2d786c30 	ldclcs	12, cr6, [r8, #-192]!	; 0xffffff40
    1098:	70733032 	rsbsvc	r3, r3, r2, lsr r0
    109c:	6c2f2f72 	stcvs	15, cr2, [pc], #-456	; edc <_start-0x7124>
    10a0:	69706269 	ldmdbvs	r0!, {r0, r3, r5, r6, r9, sp, lr}^
    10a4:	73752f00 	cmnvc	r5, #0, 30
    10a8:	6e692f72 	mcrvs	15, 3, r2, cr9, cr2, {3}
    10ac:	64756c63 	ldrbtvs	r6, [r5], #-3171	; 0xfffff39d
    10b0:	656e2f65 	strbvs	r2, [lr, #-3941]!	; 0xfffff09b
    10b4:	62696c77 	rsbvs	r6, r9, #30464	; 0x7700
    10b8:	6d6b0000 	stclvs	0, cr0, [fp, #-0]
    10bc:	6f6c6c61 	svcvs	0x006c6c61
    10c0:	00632e63 	rsbeq	r2, r3, r3, ror #28
    10c4:	6c000000 	stcvs	0, cr0, [r0], {-0}
    10c8:	2e6b636f 	cdpcs	3, 6, cr6, cr11, cr15, {3}
    10cc:	00010068 	andeq	r0, r1, r8, rrx
    10d0:	79745f00 	ldmdbvc	r4!, {r8, r9, sl, fp, ip, lr}^
    10d4:	2e736570 	mrccs	5, 3, r6, cr3, cr0, {3}
    10d8:	00010068 	andeq	r0, r1, r8, rrx
    10dc:	64747300 	ldrbtvs	r7, [r4], #-768	; 0xfffffd00
    10e0:	2e666564 	cdpcs	5, 6, cr6, cr6, cr4, {3}
    10e4:	00020068 	andeq	r0, r2, r8, rrx
    10e8:	65657200 	strbvs	r7, [r5, #-512]!	; 0xfffffe00
    10ec:	682e746e 	stmdavs	lr!, {r1, r2, r3, r5, r6, sl, ip, sp, lr}
    10f0:	00000100 	andeq	r0, r0, r0, lsl #2
    10f4:	2e697072 	mcrcs	0, 3, r7, cr9, cr2, {3}
    10f8:	00030068 	andeq	r0, r3, r8, rrx
    10fc:	72747300 	rsbsvc	r7, r4, #0, 6
    1100:	2e676e69 	cdpcs	14, 6, cr6, cr7, cr9, {3}
    1104:	00040068 	andeq	r0, r4, r8, rrx
    1108:	05000000 	streq	r0, [r0, #-0]
    110c:	00945802 	addseq	r5, r4, r2, lsl #16
    1110:	01100300 	tsteq	r0, r0, lsl #6
    1114:	68018301 	stmdavs	r1, {r0, r8, r9, pc}
    1118:	02008314 	andeq	r8, r0, #20, 6	; 0x50000000
    111c:	007f0104 	rsbseq	r0, pc, r4, lsl #2
    1120:	30010402 	andcc	r0, r1, r2, lsl #8
    1124:	4b2f5c08 	blmi	bd814c <__bss_end__+0xbce1b4>
    1128:	684b4b4c 	stmdavs	fp, {r2, r3, r6, r8, r9, fp, lr}^
    112c:	01040200 	mrseq	r0, R12_usr
    1130:	034a7903 	movteq	r7, #43267	; 0xa903
    1134:	2f580809 	svccs	0x00580809
    1138:	2f4e2e01 	svccs	0x004e2e01
    113c:	67674b6a 	strbvs	r4, [r7, -sl, ror #22]!
    1140:	02002f4c 	andeq	r2, r0, #76, 30	; 0x130
    1144:	76030104 	strvc	r0, [r3], -r4, lsl #2
    1148:	0402002e 	streq	r0, [r2], #-46	; 0xffffffd2
    114c:	7a08dc01 	bvc	238158 <__bss_end__+0x22e1c0>
    1150:	019f012f 	orrseq	r0, pc, pc, lsr #2
    1154:	01000802 	tsteq	r0, r2, lsl #16
    1158:	Address 0x0000000000001158 is out of bounds.


Disassembly of section .debug_str:

00000000 <.debug_str>:
   0:	6f73645f 	svcvs	0x0073645f
   4:	6e61685f 	mcrvs	8, 3, r6, cr1, cr15, {2}
   8:	00656c64 	rsbeq	r6, r5, r4, ror #24
   c:	7a69735f 	bvc	1a5cd90 <__bss_end__+0x1a52df8>
  10:	725f0065 	subsvc	r0, pc, #101	; 0x65
  14:	34646e61 	strbtcc	r6, [r4], #-3681	; 0xfffff19f
  18:	655f0038 	ldrbvs	r0, [pc, #-56]	; ffffffe8 <__bss_end__+0xffff6050>
  1c:	6772656d 	ldrbvs	r6, [r2, -sp, ror #10]!
  20:	79636e65 	stmdbvc	r3!, {r0, r2, r5, r6, r9, sl, fp, sp, lr}^
  24:	746f6e00 	strbtvc	r6, [pc], #-3584	; 2c <_start-0x7fd4>
  28:	6e69616d 	powvsez	f6, f1, #5.0
  2c:	63775f00 	cmnvs	r7, #0, 30
  30:	6d6f7472 	cfstrdvs	mvd7, [pc, #-456]!	; fffffe70 <__bss_end__+0xffff5ed8>
  34:	74735f62 	ldrbtvc	r5, [r3], #-3938	; 0xfffff09e
  38:	00657461 	rsbeq	r7, r5, r1, ror #8
  3c:	7363775f 	cmnvc	r3, #24903680	; 0x17c0000
  40:	6d6f7472 	cfstrdvs	mvd7, [pc, #-456]!	; fffffe80 <__bss_end__+0xffff5ee8>
  44:	735f7362 	cmpvc	pc, #-2013265919	; 0x88000001
  48:	65746174 	ldrbvs	r6, [r4, #-372]!	; 0xfffffe8c
  4c:	6e6f6c00 	cdpvs	12, 6, cr6, cr15, cr0, {0}
  50:	6f6c2067 	svcvs	0x006c2067
  54:	7520676e 	strvc	r6, [r0, #-1902]!	; 0xfffff892
  58:	6769736e 	strbvs	r7, [r9, -lr, ror #6]!
  5c:	2064656e 	rsbcs	r6, r4, lr, ror #10
  60:	00746e69 	rsbseq	r6, r4, r9, ror #28
  64:	6c616b63 			; <UNDEFINED> instruction: 0x6c616b63
  68:	00636f6c 	rsbeq	r6, r3, ip, ror #30
  6c:	66626c5f 			; <UNDEFINED> instruction: 0x66626c5f
  70:	657a6973 	ldrbvs	r6, [sl, #-2419]!	; 0xfffff68d
  74:	626d5f00 	rsbvs	r5, sp, #0, 30
  78:	776f7472 			; <UNDEFINED> instruction: 0x776f7472
  7c:	74735f63 	ldrbtvc	r5, [r3], #-3939	; 0xfffff09d
  80:	00657461 	rsbeq	r7, r5, r1, ror #8
  84:	7463775f 	strbtvc	r7, [r3], #-1887	; 0xfffff8a1
  88:	5f626d6f 	svcpl	0x00626d6f
  8c:	74617473 	strbtvc	r7, [r1], #-1139	; 0xfffffb8d
  90:	5f5f0065 	svcpl	0x005f0065
  94:	735f6d74 	cmpvc	pc, #116, 26	; 0x1d00
  98:	6c006365 	stcvs	3, cr6, [r0], {101}	; 0x65
  9c:	20676e6f 	rsbcs	r6, r7, pc, ror #28
  a0:	676e6f6c 	strbvs	r6, [lr, -ip, ror #30]!
  a4:	746e6920 	strbtvc	r6, [lr], #-2336	; 0xfffff6e0
  a8:	62755f00 	rsbsvs	r5, r5, #0, 30
  ac:	5f006675 	svcpl	0x00006675
  b0:	65736162 	ldrbvs	r6, [r3, #-354]!	; 0xfffffe9e
  b4:	745f5f00 	ldrbvc	r5, [pc], #-3840	; bc <_start-0x7f44>
  b8:	6f685f6d 	svcvs	0x00685f6d
  bc:	2f007275 	svccs	0x00007275
  c0:	656d6f68 	strbvs	r6, [sp, #-3944]!	; 0xfffff098
  c4:	6573752f 	ldrbvs	r7, [r3, #-1327]!	; 0xfffffad1
  c8:	65442f72 	strbvs	r2, [r4, #-3954]	; 0xfffff08e
  cc:	53432f76 	movtpl	r2, #16246	; 0x3f76
  d0:	58303432 	ldmdapl	r0!, {r1, r4, r5, sl, ip, sp}
  d4:	62616c2f 	rsbvs	r6, r1, #12032	; 0x2f00
  d8:	30312f73 	eorscc	r2, r1, r3, ror pc
  dc:	6d656d2d 	stclvs	13, cr6, [r5, #-180]!	; 0xffffff4c
  e0:	63656863 	cmnvs	r5, #6488064	; 0x630000
  e4:	74732d6b 	ldrbtvc	r2, [r3], #-3435	; 0xfffff295
  e8:	632f7461 			; <UNDEFINED> instruction: 0x632f7461
  ec:	0065646f 	rsbeq	r6, r5, pc, ror #8
  f0:	66735f5f 	uhsaxvs	r5, r3, pc	; <UNPREDICTABLE>
  f4:	6e6f5f00 	cdpvs	15, 6, cr5, cr15, cr0, {0}
  f8:	6978655f 	ldmdbvs	r8!, {r0, r1, r2, r3, r4, r6, r8, sl, sp, lr}^
  fc:	72615f74 	rsbvc	r5, r1, #116, 30	; 0x1d0
 100:	5f007367 	svcpl	0x00007367
 104:	6b6f6f63 	blvs	1bdbe98 <__bss_end__+0x1bd1f00>
 108:	5f006569 	svcpl	0x00006569
 10c:	6c67735f 	stclvs	3, cr7, [r7], #-380	; 0xfffffe84
 110:	5f006575 	svcpl	0x00006575
 114:	67616c66 	strbvs	r6, [r1, -r6, ror #24]!
 118:	695f0073 	ldmdbvs	pc, {r0, r1, r4, r5, r6}^	; <UNPREDICTABLE>
 11c:	78635f73 	stmdavc	r3!, {r0, r1, r4, r5, r6, r8, r9, sl, fp, ip, lr}^
 120:	61700061 	cmnvs	r0, r1, rrx
 124:	2d317472 	cfldrscs	mvf7, [r1, #-456]!	; 0xfffffe38
 128:	74736574 	ldrbtvc	r6, [r3], #-1396	; 0xfffffa8c
 12c:	00632e32 	rsbeq	r2, r3, r2, lsr lr
 130:	695f6b63 	ldmdbvs	pc, {r0, r1, r5, r6, r8, r9, fp, sp, lr}^	; <UNPREDICTABLE>
 134:	0074696e 	rsbseq	r6, r4, lr, ror #18
 138:	6b6c625f 	blvs	1b18abc <__bss_end__+0x1b0eb24>
 13c:	657a6973 	ldrbvs	r6, [sl, #-2419]!	; 0xfffff68d
 140:	76635f00 	strbtvc	r5, [r3], -r0, lsl #30
 144:	66756274 			; <UNDEFINED> instruction: 0x66756274
 148:	666f5f00 	strbtvs	r5, [pc], -r0, lsl #30
 14c:	74657366 	strbtvc	r7, [r5], #-870	; 0xfffffc9a
 150:	616d6b00 	cmnvs	sp, r0, lsl #22
 154:	636f6c6c 	cmnvs	pc, #108, 24	; 0x6c00
 158:	696e695f 	stmdbvs	lr!, {r0, r1, r2, r3, r4, r6, r8, fp, sp, lr}^
 15c:	65735f74 	ldrbvs	r5, [r3, #-3956]!	; 0xfffff08c
 160:	74735f74 	ldrbtvc	r5, [r3], #-3956	; 0xfffff08c
 164:	00747261 	rsbseq	r7, r4, r1, ror #4
 168:	73626d5f 	cmnvc	r2, #6080	; 0x17c0
 16c:	776f7472 			; <UNDEFINED> instruction: 0x776f7472
 170:	735f7363 	cmpvc	pc, #-1946157055	; 0x8c000001
 174:	65746174 	ldrbvs	r6, [r4, #-372]!	; 0xfffffe8c
 178:	626d5f00 	rsbvs	r5, sp, #0, 30
 17c:	6e656c72 	mcrvs	12, 3, r6, cr5, cr2, {3}
 180:	6174735f 	cmnvs	r4, pc, asr r3
 184:	5f006574 	svcpl	0x00006574
 188:	72616e66 	rsbvc	r6, r1, #1632	; 0x660
 18c:	5f007367 	svcpl	0x00007367
 190:	00736e66 	rsbseq	r6, r3, r6, ror #28
 194:	6769735f 			; <UNDEFINED> instruction: 0x6769735f
 198:	665f006e 	ldrbvs	r0, [pc], -lr, rrx
 19c:	6b636f6c 	blvs	18dbf54 <__bss_end__+0x18d1fbc>
 1a0:	5f00745f 	svcpl	0x0000745f
 1a4:	65647473 	strbvs	r7, [r4, #-1139]!	; 0xfffffb8d
 1a8:	5f007272 	svcpl	0x00007272
 1ac:	69676942 	stmdbvs	r7!, {r1, r6, r8, fp, sp, lr}^
 1b0:	5f00746e 	svcpl	0x0000746e
 1b4:	6d6d6167 	stfvse	f6, [sp, #-412]!	; 0xfffffe64
 1b8:	69735f61 	ldmdbvs	r3!, {r0, r5, r6, r8, r9, sl, fp, ip, lr}^
 1bc:	61676e67 	cmnvs	r7, r7, ror #28
 1c0:	725f006d 	subsvc	r0, pc, #109	; 0x6d
 1c4:	6c757365 	ldclvs	3, cr7, [r5], #-404	; 0xfffffe6c
 1c8:	006b5f74 	rsbeq	r5, fp, r4, ror pc
 1cc:	5f697072 	svcpl	0x00697072
 1d0:	63747570 	cmnvs	r4, #112, 10	; 0x1c000000
 1d4:	00726168 	rsbseq	r6, r2, r8, ror #2
 1d8:	6d745f5f 	ldclvs	15, cr5, [r4, #-380]!	; 0xfffffe84
 1dc:	775f5f00 	ldrbvc	r5, [pc, -r0, lsl #30]
 1e0:	00626863 	rsbeq	r6, r2, r3, ror #16
 1e4:	6474735f 	ldrbtvs	r7, [r4], #-863	; 0xfffffca1
 1e8:	0074756f 	rsbseq	r7, r4, pc, ror #10
 1ec:	7476635f 	ldrbtvc	r6, [r6], #-863	; 0xfffffca1
 1f0:	006e656c 	rsbeq	r6, lr, ip, ror #10
 1f4:	6c69665f 	stclvs	6, cr6, [r9], #-380	; 0xfffffe84
 1f8:	5f5f0065 	svcpl	0x005f0065
 1fc:	434e5546 	movtmi	r5, #58694	; 0xe546
 200:	4e4f4954 			; <UNDEFINED> instruction: 0x4e4f4954
 204:	5f005f5f 	svcpl	0x00005f5f
 208:	626f696e 	rsbvs	r6, pc, #1802240	; 0x1b8000
 20c:	68730073 	ldmdavs	r3!, {r0, r1, r4, r5, r6}^
 210:	2074726f 	rsbscs	r7, r4, pc, ror #4
 214:	69736e75 	ldmdbvs	r3!, {r0, r2, r4, r5, r6, r9, sl, fp, sp, lr}^
 218:	64656e67 	strbtvs	r6, [r5], #-3687	; 0xfffff199
 21c:	746e6920 	strbtvc	r6, [lr], #-2336	; 0xfffff6e0
 220:	74615f00 	strbtvc	r5, [r1], #-3840	; 0xfffff100
 224:	74697865 	strbtvc	r7, [r9], #-2149	; 0xfffff79b
 228:	735f0030 	cmpvc	pc, #48	; 0x30
 22c:	616e6769 	cmnvs	lr, r9, ror #14
 230:	75625f6c 	strbvc	r5, [r2, #-3948]!	; 0xfffff094
 234:	615f0066 	cmpvs	pc, r6, rrx
 238:	69746373 	ldmdbvs	r4!, {r0, r1, r4, r5, r6, r8, r9, sp, lr}^
 23c:	625f656d 	subsvs	r6, pc, #457179136	; 0x1b400000
 240:	5f006675 	svcpl	0x00006675
 244:	75736572 	ldrbvc	r6, [r3, #-1394]!	; 0xfffffa8e
 248:	5f00746c 	svcpl	0x0000746c
 24c:	6863775f 	stmdavs	r3!, {r0, r1, r2, r3, r4, r6, r8, r9, sl, ip, sp, lr}^
 250:	6e697700 	cdpvs	7, 6, cr7, cr9, cr0, {0}
 254:	00745f74 	rsbseq	r5, r4, r4, ror pc
 258:	72666b63 	rsbvc	r6, r6, #101376	; 0x18c00
 25c:	5f006565 	svcpl	0x00006565
 260:	6b636f6c 	blvs	18dc018 <__bss_end__+0x18d2080>
 264:	6c665f00 	stclvs	15, cr5, [r6], #-0
 268:	32736761 	rsbscc	r6, r3, #25427968	; 0x1840000
 26c:	745f5f00 	ldrbvc	r5, [pc], #-3840	; 274 <_start-0x7d8c>
 270:	65795f6d 	ldrbvs	r5, [r9, #-3949]!	; 0xfffff093
 274:	73007261 	movwvc	r7, #609	; 0x261
 278:	74657a69 	strbtvc	r7, [r5], #-2665	; 0xfffff597
 27c:	00657079 	rsbeq	r7, r5, r9, ror r0
 280:	78656e5f 	stmdavc	r5!, {r0, r1, r2, r3, r4, r6, r9, sl, fp, sp, lr}^
 284:	5f006674 	svcpl	0x00006674
 288:	5f6d745f 	svcpl	0x006d745f
 28c:	006e6f6d 	rsbeq	r6, lr, sp, ror #30
 290:	6574615f 	ldrbvs	r6, [r4, #-351]!	; 0xfffffea1
 294:	00746978 	rsbseq	r6, r4, r8, ror r9
 298:	64735f5f 	ldrbtvs	r5, [r3], #-3935	; 0xfffff0a1
 29c:	6e696469 	cdpvs	4, 6, cr6, cr9, cr9, {3}
 2a0:	5f007469 	svcpl	0x00007469
 2a4:	5f66666f 	svcpl	0x0066666f
 2a8:	665f0074 			; <UNDEFINED> instruction: 0x665f0074
 2ac:	6c656572 	cfstr64vs	mvdx6, [r5], #-456	; 0xfffffe38
 2b0:	00747369 	rsbseq	r7, r4, r9, ror #6
 2b4:	434f4c5f 	movtmi	r4, #64607	; 0xfc5f
 2b8:	45525f4b 	ldrbmi	r5, [r2, #-3915]	; 0xfffff0b5
 2bc:	53525543 	cmppl	r2, #281018368	; 0x10c00000
 2c0:	5f455649 	svcpl	0x00455649
 2c4:	6e750054 	mrcvs	0, 3, r0, cr5, cr4, {2}
 2c8:	6e676973 			; <UNDEFINED> instruction: 0x6e676973
 2cc:	63206465 			; <UNDEFINED> instruction: 0x63206465
 2d0:	00726168 	rsbseq	r6, r2, r8, ror #2
 2d4:	77656e5f 			; <UNDEFINED> instruction: 0x77656e5f
 2d8:	5f685f00 	svcpl	0x00685f00
 2dc:	6e727265 	cdpvs	2, 7, cr7, cr2, cr5, {3}
 2e0:	6873006f 	ldmdavs	r3!, {r0, r1, r2, r3, r5, r6}^
 2e4:	2074726f 	rsbscs	r7, r4, pc, ror #4
 2e8:	00746e69 	rsbseq	r6, r4, r9, ror #28
 2ec:	6d745f5f 	ldclvs	15, cr5, [r4, #-380]!	; 0xfffffe84
 2f0:	6164795f 	cmnvs	r4, pc, asr r9
 2f4:	5f5f0079 	svcpl	0x005f0079
 2f8:	66756273 			; <UNDEFINED> instruction: 0x66756273
 2fc:	6f695f00 	svcvs	0x00695f00
 300:	5f007362 	svcpl	0x00007362
 304:	4c49465f 	mcrrmi	6, 5, r4, r9, cr15
 308:	6d5f0045 	ldclvs	0, cr0, [pc, #-276]	; 1fc <_start-0x7e04>
 30c:	61747362 	cmnvs	r4, r2, ror #6
 310:	745f6574 	ldrbvc	r6, [pc], #-1396	; 318 <_start-0x7ce8>
 314:	735f5f00 	cmpvc	pc, #0, 30
 318:	454c4946 	strbmi	r4, [ip, #-2374]	; 0xfffff6ba
 31c:	626d5f00 	rsbvs	r5, sp, #0, 30
 320:	74617473 	strbtvc	r7, [r1], #-1139	; 0xfffffb8d
 324:	725f0065 	subsvc	r0, pc, #101	; 0x65
 328:	5f646e61 	svcpl	0x00646e61
 32c:	7478656e 	ldrbtvc	r6, [r8], #-1390	; 0xfffffa92
 330:	626d5f00 	rsbvs	r5, sp, #0, 30
 334:	5f6e656c 	svcpl	0x006e656c
 338:	74617473 	strbtvc	r7, [r1], #-1139	; 0xfffffb8d
 33c:	695f0065 	ldmdbvs	pc, {r0, r2, r5, r6}^	; <UNPREDICTABLE>
 340:	5f00636e 	svcpl	0x0000636e
 344:	00646e69 	rsbeq	r6, r4, r9, ror #28
 348:	7275635f 	rsbsvc	r6, r5, #2080374785	; 0x7c000001
 34c:	746e6572 	strbtvc	r6, [lr], #-1394	; 0xfffffa8e
 350:	636f6c5f 	cmnvs	pc, #24320	; 0x5f00
 354:	00656c61 	rsbeq	r6, r5, r1, ror #24
 358:	6c635f5f 	stclvs	15, cr5, [r3], #-380	; 0xfffffe84
 35c:	756e6165 	strbvc	r6, [lr, #-357]!	; 0xfffffe9b
 360:	6d5f0070 	ldclvs	0, cr0, [pc, #-448]	; 1a8 <_start-0x7e58>
 364:	64777861 	ldrbtvs	r7, [r7], #-2145	; 0xfffff79f
 368:	725f0073 	subsvc	r0, pc, #115	; 0x73
 36c:	746e6565 	strbtvc	r6, [lr], #-1381	; 0xfffffa9b
 370:	65735f00 	ldrbvs	r5, [r3, #-3840]!	; 0xfffff100
 374:	5f006465 	svcpl	0x00006465
 378:	756f635f 	strbvc	r6, [pc, #-863]!	; 21 <_start-0x7fdf>
 37c:	5f00746e 	svcpl	0x0000746e
 380:	6c61765f 	stclvs	6, cr7, [r1], #-380	; 0xfffffe84
 384:	5f006575 	svcpl	0x00006575
 388:	6b656573 	blvs	195995c <__bss_end__+0x194f9c4>
 38c:	70665f00 	rsbvc	r5, r6, r0, lsl #30
 390:	745f736f 	ldrbvc	r7, [pc], #-879	; 398 <_start-0x7c68>
 394:	745f5f00 	ldrbvc	r5, [pc], #-3840	; 39c <_start-0x7c64>
 398:	696d5f6d 	stmdbvs	sp!, {r0, r2, r3, r5, r6, r8, r9, sl, fp, ip, lr}^
 39c:	6d5f006e 	ldclvs	0, cr0, [pc, #-440]	; 1ec <_start-0x7e14>
 3a0:	00746c75 	rsbseq	r6, r4, r5, ror ip
 3a4:	20554e47 	subscs	r4, r5, r7, asr #28
 3a8:	20393943 	eorscs	r3, r9, r3, asr #18
 3ac:	2e332e36 	mrccs	14, 1, r2, cr3, cr6, {1}
 3b0:	30322031 	eorscc	r2, r2, r1, lsr r0
 3b4:	36303731 			; <UNDEFINED> instruction: 0x36303731
 3b8:	2d203032 	stccs	0, cr3, [r0, #-200]!	; 0xffffff38
 3bc:	7570636d 	ldrbvc	r6, [r0, #-877]!	; 0xfffffc93
 3c0:	6d72613d 	ldfvse	f6, [r2, #-244]!	; 0xffffff0c
 3c4:	36373131 			; <UNDEFINED> instruction: 0x36373131
 3c8:	2d667a6a 	vstmdbcs	r6!, {s15-s120}
 3cc:	6d2d2073 	stcvs	0, cr2, [sp, #-460]!	; 0xfffffe34
 3d0:	656e7574 	strbvs	r7, [lr, #-1396]!	; 0xfffffa8c
 3d4:	6d72613d 	ldfvse	f6, [r2, #-244]!	; 0xffffff0c
 3d8:	36373131 			; <UNDEFINED> instruction: 0x36373131
 3dc:	2d667a6a 	vstmdbcs	r6!, {s15-s120}
 3e0:	672d2073 			; <UNDEFINED> instruction: 0x672d2073
 3e4:	20626467 	rsbcs	r6, r2, r7, ror #8
 3e8:	20674f2d 	rsbcs	r4, r7, sp, lsr #30
 3ec:	6474732d 	ldrbtvs	r7, [r4], #-813	; 0xfffffcd3
 3f0:	756e673d 	strbvc	r6, [lr, #-1853]!	; 0xfffff8c3
 3f4:	2d203939 			; <UNDEFINED> instruction: 0x2d203939
 3f8:	65726666 	ldrbvs	r6, [r2, #-1638]!	; 0xfffff99a
 3fc:	61747365 	cmnvs	r4, r5, ror #6
 400:	6e69646e 	cdpvs	4, 6, cr6, cr9, cr14, {3}
 404:	735f0067 	cmpvc	pc, #103	; 0x67
 408:	6f747274 	svcvs	0x00747274
 40c:	616c5f6b 	cmnvs	ip, fp, ror #30
 410:	5f007473 	svcpl	0x00007473
 414:	79746e66 	ldmdbvc	r4!, {r1, r2, r5, r6, r9, sl, fp, sp, lr}^
 418:	00736570 	rsbseq	r6, r3, r0, ror r5
 41c:	6464615f 	strbtvs	r6, [r4], #-351	; 0xfffffea1
 420:	555f5f00 	ldrbpl	r5, [pc, #-3840]	; fffff528 <__bss_end__+0xffff5590>
 424:	676e6f4c 	strbvs	r6, [lr, -ip, asr #30]!
 428:	65675f00 	strbvs	r5, [r7, #-3840]!	; 0xfffff100
 42c:	74616474 	strbtvc	r6, [r1], #-1140	; 0xfffffb8c
 430:	72655f65 	rsbvc	r5, r5, #404	; 0x194
 434:	675f0072 			; <UNDEFINED> instruction: 0x675f0072
 438:	61626f6c 	cmnvs	r2, ip, ror #30
 43c:	6d695f6c 	stclvs	15, cr5, [r9, #-432]!	; 0xfffffe50
 440:	65727570 	ldrbvs	r7, [r2, #-1392]!	; 0xfffffa90
 444:	7274705f 	rsbsvc	r7, r4, #95	; 0x5f
 448:	75635f00 	strbvc	r5, [r3, #-3840]!	; 0xfffff100
 44c:	6e657272 	mcrvs	2, 3, r7, cr5, cr2, {3}
 450:	61635f74 	smcvs	13812	; 0x35f4
 454:	6f676574 	svcvs	0x00676574
 458:	6d007972 	vstrvs.16	s14, [r0, #-228]	; 0xffffff1c	; <UNPREDICTABLE>
 45c:	65736d65 	ldrbvs	r6, [r3, #-3429]!	; 0xfffff29b
 460:	755f0074 	ldrbvc	r0, [pc, #-116]	; 3f4 <_start-0x7c0c>
 464:	6573756e 	ldrbvs	r7, [r3, #-1390]!	; 0xfffffa92
 468:	61725f64 	cmnvs	r2, r4, ror #30
 46c:	5f00646e 	svcpl	0x0000646e
 470:	00736477 	rsbseq	r6, r3, r7, ror r4
 474:	6d745f5f 	ldclvs	15, cr5, [r4, #-380]!	; 0xfffffe84
 478:	6164775f 	cmnvs	r4, pc, asr r7
 47c:	675f0079 			; <UNDEFINED> instruction: 0x675f0079
 480:	0065756c 	rsbeq	r7, r5, ip, ror #10
 484:	6474735f 	ldrbtvs	r7, [r4], #-863	; 0xfffffca1
 488:	5f006e69 	svcpl	0x00006e69
 48c:	6c616d6e 	stclvs	13, cr6, [r1], #-440	; 0xfffffe48
 490:	00636f6c 	rsbeq	r6, r3, ip, ror #30
 494:	34366c5f 	ldrtcc	r6, [r6], #-3167	; 0xfffff3a1
 498:	75625f61 	strbvc	r5, [r2, #-3937]!	; 0xfffff09f
 49c:	735f0066 	cmpvc	pc, #102	; 0x66
 4a0:	665f6769 	ldrbvs	r6, [pc], -r9, ror #14
 4a4:	00636e75 	rsbeq	r6, r3, r5, ror lr
 4a8:	6c616d6b 	stclvs	13, cr6, [r1], #-428	; 0xfffffe54
 4ac:	00636f6c 	rsbeq	r6, r3, ip, ror #30
 4b0:	75626e5f 	strbvc	r6, [r2, #-3679]!	; 0xfffff1a1
 4b4:	755f0066 	ldrbvc	r0, [pc, #-102]	; 456 <_start-0x7baa>
 4b8:	6573756e 	ldrbvs	r7, [r3, #-1390]!	; 0xfffffa92
 4bc:	5f5f0064 	svcpl	0x005f0064
 4c0:	695f6d74 	ldmdbvs	pc, {r2, r4, r5, r6, r8, sl, fp, sp, lr}^	; <UNPREDICTABLE>
 4c4:	74736473 	ldrbtvc	r6, [r3], #-1139	; 0xfffffb8d
 4c8:	6f6c5f00 	svcvs	0x006c5f00
 4cc:	746c6163 	strbtvc	r6, [ip], #-355	; 0xfffffe9d
 4d0:	5f656d69 	svcpl	0x00656d69
 4d4:	00667562 	rsbeq	r7, r6, r2, ror #10
 4d8:	6f6c635f 	svcvs	0x006c635f
 4dc:	5f006573 	svcpl	0x00006573
 4e0:	00383472 	eorseq	r3, r8, r2, ror r4
 4e4:	74626d5f 	strbtvc	r6, [r2], #-3423	; 0xfffff2a1
 4e8:	5f63776f 	svcpl	0x0063776f
 4ec:	74617473 	strbtvc	r7, [r1], #-1139	; 0xfffffb8d
 4f0:	705f0065 	subsvc	r0, pc, r5, rrx
 4f4:	5f007335 	svcpl	0x00007335
 4f8:	5f6d745f 	svcpl	0x006d745f
 4fc:	7961646d 	stmdbvc	r1!, {r0, r2, r3, r5, r6, sl, sp, lr}^
 500:	64617000 	strbtvs	r7, [r1], #-0
 504:	676e6964 	strbvs	r6, [lr, -r4, ror #18]!
 508:	5f6b6300 	svcpl	0x006b6300
 50c:	70616568 	rsbvc	r6, r1, r8, ror #10
 510:	7272655f 	rsbsvc	r6, r2, #398458880	; 0x17c00000
 514:	0073726f 	rsbseq	r7, r3, pc, ror #4
 518:	656e696c 	strbvs	r6, [lr, #-2412]!	; 0xfffff694
 51c:	70006f6e 	andvc	r6, r0, lr, ror #30
 520:	00766572 	rsbseq	r6, r6, r2, ror r5
 524:	74736166 	ldrbtvc	r6, [r3], #-358	; 0xfffffe9a
 528:	7361685f 	cmnvc	r1, #6225920	; 0x5f0000
 52c:	72660068 	rsbvc	r0, r6, #104	; 0x68
 530:	6c5f6565 	cfldr64vs	mvdx6, [pc], {101}	; 0x65
 534:	6200636f 	andvs	r6, r0, #-1140850687	; 0xbc000001
 538:	317a725f 	cmncc	sl, pc, asr r2
 53c:	7274705f 	rsbsvc	r7, r4, #95	; 0x5f
 540:	45524600 	ldrbmi	r4, [r2, #-1536]	; 0xfffffa00
 544:	41004445 	tstmi	r0, r5, asr #8
 548:	434f4c4c 	movtmi	r4, #64588	; 0xfc4c
 54c:	72004445 	andvc	r4, r0, #1157627904	; 0x45000000
 550:	5f736665 	svcpl	0x00736665
 554:	6464696d 	strbtvs	r6, [r4], #-2413	; 0xfffff693
 558:	7200656c 	andvc	r6, r0, #108, 10	; 0x1b000000
 55c:	5f736665 	svcpl	0x00736665
 560:	72617473 	rsbvc	r7, r1, #1929379840	; 0x73000000
 564:	6c610074 	stclvs	0, cr0, [r1], #-464	; 0xfffffe30
 568:	65636f6c 	strbvs	r6, [r3, #-3948]!	; 0xfffff094
 56c:	564f0064 	strbpl	r0, [pc], -r4, rrx
 570:	45485245 	strbmi	r5, [r8, #-581]	; 0xfffffdbb
 574:	4e5f4441 	cdpmi	4, 5, cr4, cr15, cr1, {2}
 578:	45545942 	ldrbmi	r5, [r4, #-2370]	; 0xfffff6be
 57c:	45520053 	ldrbmi	r0, [r2, #-83]	; 0xffffffad
 580:	4e4f5a44 	vmlsmi.f32	s11, s30, s8
 584:	4c410045 	mcrrmi	0, 4, r0, r1, cr5
 588:	5f434f4c 	svcpl	0x00434f4c
 58c:	5346464f 	movtpl	r4, #26191	; 0x664f
 590:	72005445 	andvc	r5, r0, #1157627904	; 0x45000000
 594:	725f6970 	subsvc	r6, pc, #112, 18	; 0x1c0000
 598:	74657365 	strbtvc	r7, [r5], #-869	; 0xfffffc9b
 59c:	7475705f 	ldrbtvc	r7, [r5], #-95	; 0xffffffa1
 5a0:	616d0063 	cmnvs	sp, r3, rrx
 5a4:	6d5f6b72 	vldrvs	d22, [pc, #-456]	; 3e4 <_start-0x7c1c>
 5a8:	62006d65 	andvs	r6, r0, #6464	; 0x1940
 5ac:	6464615f 	strbtvs	r6, [r4], #-351	; 0xfffffea1
 5b0:	6f745f72 	svcvs	0x00745f72
 5b4:	7264685f 	rsbvc	r6, r4, #6225920	; 0x5f0000
 5b8:	616b6300 	cmnvs	fp, r0, lsl #6
 5bc:	636f6c6c 	cmnvs	pc, #108, 24	; 0x6c00
 5c0:	6f00632e 	svcvs	0x0000632e
 5c4:	00736666 	rsbseq	r6, r3, r6, ror #12
 5c8:	61656c63 	cmnvs	r5, r3, ror #24
 5cc:	65725f6e 	ldrbvs	r5, [r2, #-3950]!	; 0xfffff092
 5d0:	746f6f62 	strbtvc	r6, [pc], #-3938	; 5d8 <_start-0x7a28>
 5d4:	6c6c6100 	stfvse	f6, [ip], #-0
 5d8:	6c5f636f 	mrrcvs	3, 6, r6, pc, cr15	; <UNPREDICTABLE>
 5dc:	6800636f 	stmdavs	r0, {r0, r1, r2, r3, r5, r6, r8, r9, sp, lr}
 5e0:	635f7264 	cmpvs	pc, #100, 4	; 0x40000006
 5e4:	6d75736b 	ldclvs	3, cr7, [r5, #-428]!	; 0xfffffe54
 5e8:	79626e00 	stmdbvc	r2!, {r9, sl, fp, sp, lr}^
 5ec:	5f736574 	svcpl	0x00736574
 5f0:	6f6c6c61 	svcvs	0x006c6c61
 5f4:	5f620063 	svcpl	0x00620063
 5f8:	6f6c6c61 	svcvs	0x006c6c61
 5fc:	74705f63 	ldrbtvc	r5, [r0], #-3939	; 0xfffff09d
 600:	68630072 	stmdavs	r3!, {r1, r4, r5, r6}^
 604:	5f6b6365 	svcpl	0x006b6365
 608:	65657266 	strbvs	r7, [r5, #-614]!	; 0xfffffd9a
 60c:	6972775f 	ldmdbvs	r2!, {r0, r1, r2, r3, r4, r6, r8, r9, sl, ip, sp, lr}^
 610:	63006574 	movwvs	r6, #1396	; 0x574
 614:	6b636568 	blvs	18d9bbc <__bss_end__+0x18cfc24>
 618:	7264685f 	rsbvc	r6, r4, #6225920	; 0x5f0000
 61c:	725f6200 	subsvc	r6, pc, #0, 4
 620:	705f327a 	subsvc	r3, pc, sl, ror r2	; <UNPREDICTABLE>
 624:	6e007274 	mcrvs	2, 0, r7, cr0, cr4, {3}
 628:	736b6c62 	cmnvc	fp, #25088	; 0x6200
 62c:	63727300 	cmnvs	r2, #0, 6
 630:	636f6c5f 	cmnvs	pc, #24320	; 0x5f00
 634:	7500745f 	strvc	r7, [r0, #-1119]	; 0xfffffba1
 638:	33746e69 	cmncc	r4, #1680	; 0x690
 63c:	00745f32 	rsbseq	r5, r4, r2, lsr pc
 640:	7272656e 	rsbsvc	r6, r2, #461373440	; 0x1b800000
 644:	0073726f 	rsbseq	r7, r3, pc, ror #4
 648:	5f726468 	svcpl	0x00726468
 64c:	6e697270 	mcrvs	2, 3, r7, cr9, cr0, {3}
 650:	65680074 	strbvs	r0, [r8, #-116]!	; 0xffffff8c
 654:	53007061 	movwpl	r7, #97	; 0x61
 658:	49544e45 	ldmdbmi	r4, {r0, r2, r6, r9, sl, fp, lr}^
 65c:	004c414e 	subeq	r4, ip, lr, asr #2
 660:	63656863 	cmnvs	r5, #6488064	; 0x630000
 664:	6c625f6b 	stclvs	15, cr5, [r2], #-428	; 0xfffffe54
 668:	006b636f 	rsbeq	r6, fp, pc, ror #6
 66c:	7a725f62 	bvc	1c983fc <__bss_end__+0x1c8e464>
 670:	626e5f32 	rsbvs	r5, lr, #50, 30	; 0xc8
 674:	73657479 	cmnvc	r5, #2030043136	; 0x79000000
 678:	6e697500 	cdpvs	5, 6, cr7, cr9, cr0, {0}
 67c:	745f3874 	ldrbvc	r3, [pc], #-2164	; 684 <_start-0x797c>
 680:	72646800 	rsbvc	r6, r4, #0, 16
 684:	6e00745f 	cfmvsrvs	mvf0, r7
 688:	65747962 	ldrbvs	r7, [r4, #-2402]!	; 0xfffff69e
 68c:	65725f73 	ldrbvs	r5, [r2, #-3955]!	; 0xfffff08d
 690:	656c006d 	strbvs	r0, [ip, #-109]!	; 0xffffff93
 694:	63007466 	movwvs	r7, #1126	; 0x466
 698:	6b636568 	blvs	18d9c40 <__bss_end__+0x18cfca8>
 69c:	6d656d5f 	stclvs	13, cr6, [r5, #-380]!	; 0xfffffe84
 6a0:	61656800 	cmnvs	r5, r0, lsl #16
 6a4:	00726564 	rsbseq	r6, r2, r4, ror #10
 6a8:	61765f5f 	cmnvs	r6, pc, asr pc
 6ac:	73696c5f 	cmnvc	r9, #24320	; 0x5f00
 6b0:	61760074 	cmnvs	r6, r4, ror r0
 6b4:	6972705f 	ldmdbvs	r2!, {r0, r1, r2, r3, r4, r6, ip, sp, lr}^
 6b8:	006b746e 	rsbeq	r7, fp, lr, ror #8
 6bc:	6e675f5f 	mcrvs	15, 3, r5, cr7, cr15, {2}
 6c0:	765f6375 			; <UNDEFINED> instruction: 0x765f6375
 6c4:	696c5f61 	stmdbvs	ip!, {r0, r5, r6, r8, r9, sl, fp, ip, lr}^
 6c8:	5f007473 	svcpl	0x00007473
 6cc:	0070615f 	rsbseq	r6, r0, pc, asr r1
 6d0:	6362696c 	cmnvs	r2, #108, 18	; 0x1b0000
 6d4:	6972702f 	ldmdbvs	r2!, {r0, r1, r2, r3, r5, ip, sp, lr}^
 6d8:	2e6b746e 	cdpcs	4, 6, cr7, cr11, cr14, {3}
 6dc:	682f0063 	stmdavs	pc!, {r0, r1, r5, r6}	; <UNPREDICTABLE>
 6e0:	2f656d6f 	svccs	0x00656d6f
 6e4:	72657375 	rsbvc	r7, r5, #-738197503	; 0xd4000001
 6e8:	7665442f 	strbtvc	r4, [r5], -pc, lsr #8
 6ec:	3253432f 	subscc	r4, r3, #-1140850688	; 0xbc000000
 6f0:	2f583034 	svccs	0x00583034
 6f4:	7062696c 	rsbvc	r6, r2, ip, ror #18
 6f8:	696c0069 	stmdbvs	ip!, {r0, r3, r5, r6}^
 6fc:	762f6362 	strtvc	r6, [pc], -r2, ror #6
 700:	72702d61 	rsbsvc	r2, r0, #6208	; 0x1840
 704:	6b746e69 	blvs	1d1c0b0 <__bss_end__+0x1d12118>
 708:	7200632e 	andvc	r6, r0, #-1207959552	; 0xb8000000
 70c:	735f6970 	cmpvc	pc, #112, 18	; 0x1c0000
 710:	6f5f7465 	svcvs	0x005f7465
 714:	75707475 	ldrbvc	r7, [r0, #-1141]!	; 0xfffffb8b
 718:	69730074 	ldmdbvs	r3!, {r2, r4, r5, r6}^
 71c:	64656e67 	strbtvs	r6, [r5], #-3687	; 0xfffff199
 720:	7200705f 	andvc	r7, r0, #95	; 0x5f
 724:	72657665 	rsbvc	r7, r5, #105906176	; 0x6500000
 728:	77006573 	smlsdxvc	r0, r3, r5, r6
 72c:	68746469 	ldmdavs	r4!, {r0, r3, r5, r6, sl, sp, lr}^
 730:	74757000 	ldrbtvc	r7, [r5], #-0
 734:	70665f73 	rsbvc	r5, r6, r3, ror pc
 738:	67656e00 	strbvs	r6, [r5, -r0, lsl #28]!
 73c:	7000705f 	andvc	r7, r0, pc, asr r0
 740:	5f637475 	svcpl	0x00637475
 744:	69007066 	stmdbvs	r0, {r1, r2, r5, r6, ip, sp, lr}
 748:	67696473 			; <UNDEFINED> instruction: 0x67696473
 74c:	65007469 	strvs	r7, [r0, #-1129]	; 0xfffffb97
 750:	0074696d 	rsbseq	r6, r4, sp, ror #18
 754:	6362696c 	cmnvs	r2, #108, 18	; 0x1b0000
 758:	7361682f 	cmnvc	r1, #3080192	; 0x2f0000
 75c:	00632e68 	rsbeq	r2, r3, r8, ror #28
 760:	65746e69 	ldrbvs	r6, [r4, #-3689]!	; 0xfffff197
 764:	6c616e72 	stclvs	14, cr6, [r1], #-456	; 0xfffffe38
 768:	7475705f 	ldrbtvc	r7, [r5], #-95	; 0xffffffa1
 76c:	696c006b 	stmdbvs	ip!, {r0, r1, r3, r5, r6}^
 770:	702f6362 	eorvc	r6, pc, r2, ror #6
 774:	2e6b7475 	mcrcs	4, 3, r7, cr11, cr5, {3}
 778:	70720063 	rsbsvc	r0, r2, r3, rrx
 77c:	65735f69 	ldrbvs	r5, [r3, #-3945]!	; 0xfffff097
 780:	75705f74 	ldrbvc	r5, [r0, #-3956]!	; 0xfffff08c
 784:	75006374 	strvc	r6, [r0, #-884]	; 0xfffffc8c
 788:	5f747261 	svcpl	0x00747261
 78c:	63747570 	cmnvs	r4, #112, 10	; 0x1c000000
 790:	746e6900 	strbtvc	r6, [lr], #-2304	; 0xfffff700
 794:	616e7265 	cmnvs	lr, r5, ror #4
 798:	75705f6c 	ldrbvc	r5, [r0, #-3948]!	; 0xfffff094
 79c:	61686374 	smcvs	34356	; 0x8634
 7a0:	696c0072 	stmdbvs	ip!, {r1, r4, r5, r6}^
 7a4:	702f6362 	eorvc	r6, pc, r2, ror #6
 7a8:	68637475 	stmdavs	r3!, {r0, r2, r4, r5, r6, sl, ip, sp, lr}^
 7ac:	632e7261 			; <UNDEFINED> instruction: 0x632e7261
 7b0:	7a697300 	bvc	1a5d3b8 <__bss_end__+0x1a53420>
 7b4:	00745f65 	rsbseq	r5, r4, r5, ror #30
 7b8:	6362696c 	cmnvs	r2, #108, 18	; 0x1b0000
 7bc:	6d656d2f 	stclvs	13, cr6, [r5, #-188]!	; 0xffffff44
 7c0:	2e746573 	mrccs	5, 3, r6, cr4, cr3, {3}
 7c4:	74730063 	ldrbtvc	r0, [r3], #-99	; 0xffffff9d
 7c8:	2d666661 	stclcs	6, cr6, [r6, #-388]!	; 0xfffffe7c
 7cc:	2f637273 	svccs	0x00637273
 7d0:	61747363 	cmnvs	r4, r3, ror #6
 7d4:	632e7472 			; <UNDEFINED> instruction: 0x632e7472
 7d8:	73635f00 	cmnvc	r3, #0, 30
 7dc:	74726174 	ldrbtvc	r6, [r2], #-372	; 0xfffffe8c
 7e0:	73736200 	cmnvc	r3, #0, 4
 7e4:	646e655f 	strbtvs	r6, [lr], #-1375	; 0xfffffaa1
 7e8:	625f5f00 	subsvs	r5, pc, #0, 30
 7ec:	735f7373 	cmpvc	pc, #-872415231	; 0xcc000001
 7f0:	74726174 	ldrbtvc	r6, [r2], #-372	; 0xfffffe8c
 7f4:	5f005f5f 	svcpl	0x00005f5f
 7f8:	7373625f 	cmnvc	r3, #-268435451	; 0xf0000005
 7fc:	646e655f 	strbtvs	r6, [lr], #-1375	; 0xfffffaa1
 800:	50005f5f 	andpl	r5, r0, pc, asr pc
 804:	53525f4d 	cmppl	r2, #308	; 0x134
 808:	50004354 	andpl	r4, r0, r4, asr r3
 80c:	32335455 	eorscc	r5, r3, #1426063360	; 0x55000000
 810:	5f4d5000 	svcpl	0x004d5000
 814:	43545352 	cmpmi	r4, #1207959553	; 0x48000001
 818:	4352575f 	cmpmi	r2, #24903680	; 0x17c0000
 81c:	465f4746 	ldrbmi	r4, [pc], -r6, asr #14
 820:	5f4c4c55 	svcpl	0x004c4c55
 824:	45534552 	ldrbmi	r4, [r3, #-1362]	; 0xfffffaae
 828:	4d500054 	ldclmi	0, cr0, [r0, #-336]	; 0xfffffeb0
 82c:	4f44575f 	svcmi	0x0044575f
 830:	70630047 	rsbvc	r0, r3, r7, asr #32
 834:	50007273 	andpl	r7, r0, r3, ror r2
 838:	41505f4d 	cmpmi	r0, sp, asr #30
 83c:	4f575353 	svcmi	0x00575353
 840:	64004452 	strvs	r4, [r0], #-1106	; 0xfffffbae
 844:	79616c65 	stmdbvc	r1!, {r0, r2, r5, r6, sl, fp, sp, lr}^
 848:	00736d5f 	rsbseq	r6, r3, pc, asr sp
 84c:	5f697072 	svcpl	0x00697072
 850:	6f626572 	svcvs	0x00626572
 854:	7300746f 	movwvc	r7, #1135	; 0x46f
 858:	66666174 			; <UNDEFINED> instruction: 0x66666174
 85c:	6372732d 	cmnvs	r2, #-1275068416	; 0xb4000000
 860:	6265722f 	rsbvs	r7, r5, #-268435454	; 0xf0000002
 864:	2e746f6f 	cdpcs	15, 7, cr6, cr4, cr15, {3}
 868:	65730063 	ldrbvs	r0, [r3, #-99]!	; 0xffffff9d
 86c:	73755f74 	cmnvc	r5, #116, 30	; 0x1d0
 870:	6c5f7265 	lfmvs	f7, 2, [pc], {101}	; 0x65
 874:	6c657665 	stclvs	6, cr7, [r5], #-404	; 0xfffffe6c
 878:	5f746100 	svcpl	0x00746100
 87c:	72657375 	rsbvc	r7, r5, #-738197503	; 0xd4000001
 880:	76656c5f 			; <UNDEFINED> instruction: 0x76656c5f
 884:	73006c65 	movwvc	r6, #3173	; 0xc65
 888:	66666174 			; <UNDEFINED> instruction: 0x66666174
 88c:	6372732d 	cmnvs	r2, #-1275068416	; 0xb4000000
 890:	656c632f 	strbvs	r6, [ip, #-815]!	; 0xfffffcd1
 894:	722d6e61 	eorvc	r6, sp, #1552	; 0x610
 898:	6f6f6265 	svcvs	0x006f6265
 89c:	00632e74 	rsbeq	r2, r3, r4, ror lr
 8a0:	656d6974 	strbvs	r6, [sp, #-2420]!	; 0xfffff68c
 8a4:	65675f72 	strbvs	r5, [r7, #-3954]!	; 0xfffff08e
 8a8:	73755f74 	cmnvc	r5, #116, 30	; 0x1d0
 8ac:	64006365 	strvs	r6, [r0], #-869	; 0xfffffc9b
 8b0:	79616c65 	stmdbvc	r1!, {r0, r2, r5, r6, sl, fp, sp, lr}^
 8b4:	6365735f 	cmnvs	r5, #2080374785	; 0x7c000001
 8b8:	6c656400 	cfstrdvs	mvd6, [r5], #-0
 8bc:	635f7961 	cmpvs	pc, #1589248	; 0x184000
 8c0:	656c6379 	strbvs	r6, [ip, #-889]!	; 0xfffffc87
 8c4:	74730073 	ldrbtvc	r0, [r3], #-115	; 0xffffff8d
 8c8:	2d666661 	stclcs	6, cr6, [r6, #-388]!	; 0xfffffe7c
 8cc:	2f637273 	svccs	0x00637273
 8d0:	656d6974 	strbvs	r6, [sp, #-2420]!	; 0xfffff68c
 8d4:	00632e72 	rsbeq	r2, r3, r2, ror lr
 8d8:	6b636974 	blvs	18daeb0 <__bss_end__+0x18d0f18>
 8dc:	45470073 	strbmi	r0, [r7, #-115]	; 0xffffff8d
 8e0:	00323354 	eorseq	r3, r2, r4, asr r3
 8e4:	656d6974 	strbvs	r6, [sp, #-2420]!	; 0xfffff68c
 8e8:	65675f72 	strbvs	r5, [r7, #-3954]!	; 0xfffff08e
 8ec:	73755f74 	cmnvc	r5, #116, 30	; 0x1d0
 8f0:	725f6365 	subsvc	r6, pc, #-1811939327	; 0x94000001
 8f4:	64007761 	strvs	r7, [r0], #-1889	; 0xfffff89f
 8f8:	79616c65 	stmdbvc	r1!, {r0, r2, r5, r6, sl, fp, sp, lr}^
 8fc:	0073755f 	rsbseq	r7, r3, pc, asr r5
 900:	74726175 	ldrbtvc	r6, [r2], #-373	; 0xfffffe8b
 904:	696e695f 	stmdbvs	lr!, {r0, r1, r2, r3, r4, r6, r8, fp, sp, lr}^
 908:	50470074 	subpl	r0, r7, r4, ror r0
 90c:	465f4f49 	ldrbmi	r4, [pc], -r9, asr #30
 910:	5f434e55 	svcpl	0x00434e55
 914:	55504e49 	ldrbpl	r4, [r0, #-3657]	; 0xfffff1b7
 918:	74730054 	ldrbtvc	r0, [r3], #-84	; 0xffffffac
 91c:	47007461 	strmi	r7, [r0, -r1, ror #8]
 920:	5f4f4950 	svcpl	0x004f4950
 924:	434e5546 	movtmi	r5, #58694	; 0xe546
 928:	544c415f 	strbpl	r4, [ip], #-351	; 0xfffffea1
 92c:	6e630031 	mcrvs	0, 3, r0, cr3, cr1, {1}
 930:	75006c74 	strvc	r6, [r0, #-3188]	; 0xfffff38c
 934:	2e747261 	cdpcs	2, 7, cr7, cr4, cr1, {3}
 938:	75610063 	strbvc	r0, [r1, #-99]!	; 0xffffff9d
 93c:	65705f78 	ldrbvs	r5, [r0, #-3960]!	; 0xfffff088
 940:	68706972 	ldmdavs	r0!, {r1, r4, r5, r6, r8, fp, sp, lr}^
 944:	682f0073 	stmdavs	pc!, {r0, r1, r4, r5, r6}	; <UNPREDICTABLE>
 948:	2f656d6f 	svccs	0x00656d6f
 94c:	6c676e65 	stclvs	14, cr6, [r7], #-404	; 0xfffffe6c
 950:	632f7265 			; <UNDEFINED> instruction: 0x632f7265
 954:	7373616c 	cmnvc	r3, #108, 2
 958:	3273632f 	rsbscc	r6, r3, #-1140850688	; 0xbc000000
 95c:	786c3034 	stmdavc	ip!, {r2, r4, r5, ip, sp}^
 960:	7330322d 	teqvc	r0, #-805306366	; 0xd0000002
 964:	6c2f7270 	sfmvs	f7, 4, [pc], #-448	; 7ac <_start-0x7854>
 968:	69706269 	ldmdbvs	r0!, {r0, r3, r5, r6, r9, sp, lr}^
 96c:	6174732f 	cmnvs	r4, pc, lsr #6
 970:	702d6666 	eorvc	r6, sp, r6, ror #12
 974:	61766972 	cmnvs	r6, r2, ror r9
 978:	61006574 	tstvs	r0, r4, ror r5
 97c:	655f7875 	ldrbvs	r7, [pc, #-2165]	; 10f <_start-0x7ef1>
 980:	6c62616e 	stfvse	f6, [r2], #-440	; 0xfffffe48
 984:	75007365 	strvc	r7, [r0, #-869]	; 0xfffffc9b
 988:	5f747261 	svcpl	0x00747261
 98c:	5f6e6163 	svcpl	0x006e6163
 990:	63747570 	cmnvs	r4, #112, 10	; 0x1c000000
 994:	72617500 	rsbvc	r7, r1, #0, 10
 998:	65675f74 	strbvs	r5, [r7, #-3956]!	; 0xfffff08c
 99c:	64006374 	strvs	r6, [r0], #-884	; 0xfffffc8c
 9a0:	625f7665 	subsvs	r7, pc, #105906176	; 0x6500000
 9a4:	69727261 	ldmdbvs	r2!, {r0, r5, r6, r9, ip, sp, lr}^
 9a8:	47007265 	strmi	r7, [r0, -r5, ror #4]
 9ac:	5f4f4950 	svcpl	0x004f4950
 9b0:	434e5546 	movtmi	r5, #58694	; 0xe546
 9b4:	544c415f 	strbpl	r4, [ip], #-351	; 0xfffffea1
 9b8:	70670032 	rsbvc	r0, r7, r2, lsr r0
 9bc:	735f6f69 	cmpvc	pc, #420	; 0x1a4
 9c0:	665f7465 	ldrbvs	r7, [pc], -r5, ror #8
 9c4:	74636e75 	strbtvc	r6, [r3], #-3701	; 0xfffff18b
 9c8:	006e6f69 	rsbeq	r6, lr, r9, ror #30
 9cc:	74726175 	ldrbtvc	r6, [r2], #-373	; 0xfffffe8b
 9d0:	75616200 	strbvc	r6, [r1, #-512]!	; 0xfffffe00
 9d4:	63730064 	cmnvs	r3, #100	; 0x64
 9d8:	63746172 	cmnvs	r4, #-2147483620	; 0x8000001c
 9dc:	75700068 	ldrbvc	r0, [r0, #-104]!	; 0xffffff98
 9e0:	00323374 	eorseq	r3, r2, r4, ror r3
 9e4:	4f495047 	svcmi	0x00495047
 9e8:	4e55465f 	mrcmi	6, 2, r4, cr5, cr15, {2}
 9ec:	554f5f43 	strbpl	r5, [pc, #-3907]	; fffffab1 <__bss_end__+0xffff5b19>
 9f0:	54555054 	ldrbpl	r5, [r5], #-84	; 0xffffffac
 9f4:	74656700 	strbtvc	r6, [r5], #-1792	; 0xfffff900
 9f8:	75003233 	strvc	r3, [r0, #-563]	; 0xfffffdcd
 9fc:	5f747261 	svcpl	0x00747261
 a00:	5f6e6163 	svcpl	0x006e6163
 a04:	63746567 	cmnvs	r4, #432013312	; 0x19c00000
 a08:	5f726f00 	svcpl	0x00726f00
 a0c:	32336e69 	eorscc	r6, r3, #1680	; 0x690
 a10:	72617500 	rsbvc	r7, r1, #0, 10
 a14:	61685f74 	smcvs	34292	; 0x85f4
 a18:	61645f73 	smcvs	17907	; 0x45f3
 a1c:	47006174 	smlsdxmi	r0, r4, r1, r6
 a20:	5f4f4950 	svcpl	0x004f4950
 a24:	434e5546 	movtmi	r5, #58694	; 0xe546
 a28:	544c415f 	strbpl	r4, [ip], #-351	; 0xfffffea1
 a2c:	50470030 	subpl	r0, r7, r0, lsr r0
 a30:	465f4f49 	ldrbmi	r4, [pc], -r9, asr #30
 a34:	5f434e55 	svcpl	0x00434e55
 a38:	33544c41 	cmpcc	r4, #16640	; 0x4100
 a3c:	49504700 	ldmdbmi	r0, {r8, r9, sl, lr}^
 a40:	55465f4f 	strbpl	r5, [r6, #-3919]	; 0xfffff0b1
 a44:	415f434e 	cmpmi	pc, lr, asr #6
 a48:	0034544c 	eorseq	r5, r4, ip, asr #8
 a4c:	4f495047 	svcmi	0x00495047
 a50:	4e55465f 	mrcmi	6, 2, r4, cr5, cr15, {2}
 a54:	4c415f43 	mcrrmi	15, 4, r5, r1, cr3
 a58:	67003554 	smlsdvs	r0, r4, r5, r3
 a5c:	5f6f6970 	svcpl	0x006f6970
 a60:	5f746573 	svcpl	0x00746573
 a64:	0066666f 	rsbeq	r6, r6, pc, ror #12
 a68:	6b6e6162 	blvs	1b98ff8 <__bss_end__+0x1b8f060>
 a6c:	69706700 	ldmdbvs	r0!, {r8, r9, sl, sp, lr}^
 a70:	00632e6f 	rsbeq	r2, r3, pc, ror #28
 a74:	6f697067 	svcvs	0x00697067
 a78:	6165725f 	cmnvs	r5, pc, asr r2
 a7c:	70670064 	rsbvc	r0, r7, r4, rrx
 a80:	735f6f69 	cmpvc	pc, #420	; 0x1a4
 a84:	6f5f7465 	svcvs	0x005f7465
 a88:	75707475 	ldrbvc	r7, [r0, #-1141]!	; 0xfffffb8b
 a8c:	70670074 	rsbvc	r0, r7, r4, ror r0
 a90:	775f6f69 	ldrbvc	r6, [pc, -r9, ror #30]
 a94:	65746972 	ldrbvs	r6, [r4, #-2418]!	; 0xfffff68e
 a98:	69706700 	ldmdbvs	r0!, {r8, r9, sl, sp, lr}^
 a9c:	65735f6f 	ldrbvs	r5, [r3, #-3951]!	; 0xfffff091
 aa0:	67003074 	smlsdxvs	r0, r4, r0, r3
 aa4:	5f6f6970 	svcpl	0x006f6970
 aa8:	3076656c 	rsbscc	r6, r6, ip, ror #10
 aac:	69706700 	ldmdbvs	r0!, {r8, r9, sl, sp, lr}^
 ab0:	65735f6f 	ldrbvs	r5, [r3, #-3951]!	; 0xfffff091
 ab4:	6e695f74 	mcrvs	15, 3, r5, cr9, cr4, {3}
 ab8:	00747570 	rsbseq	r7, r4, r0, ror r5
 abc:	6f697067 	svcvs	0x00697067
 ac0:	7465735f 	strbtvc	r7, [r5], #-863	; 0xfffffca1
 ac4:	006e6f5f 	rsbeq	r6, lr, pc, asr pc
 ac8:	6f697067 	svcvs	0x00697067
 acc:	6e75665f 	mrcvs	6, 3, r6, cr5, cr15, {2}
 ad0:	00745f63 	rsbseq	r5, r4, r3, ror #30
 ad4:	6f697067 	svcvs	0x00697067
 ad8:	726c635f 	rsbvc	r6, ip, #2080374785	; 0x7c000001
 adc:	6d6b0030 	stclvs	0, cr0, [fp, #-192]!	; 0xffffff40
 ae0:	6f6c6c61 	svcvs	0x006c6c61
 ae4:	00632e63 	rsbeq	r2, r3, r3, ror #28
 ae8:	6c616d6b 	stclvs	13, cr6, [r1], #-428	; 0xfffffe54
 aec:	5f636f6c 	svcpl	0x00636f6c
 af0:	74696e69 	strbtvc	r6, [r9], #-3689	; 0xfffff197
 af4:	616d6b00 	cmnvs	sp, r0, lsl #22
 af8:	636f6c6c 	cmnvs	pc, #108, 24	; 0x6c00
 afc:	696c615f 	stmdbvs	ip!, {r0, r1, r2, r3, r4, r6, r8, sp, lr}^
 b00:	64656e67 	strbtvs	r6, [r5], #-3687	; 0xfffff199
 b04:	756f6400 	strbvc	r6, [pc, #-1024]!	; 70c <_start-0x78f4>
 b08:	00656c62 	rsbeq	r6, r5, r2, ror #24
 b0c:	6572666b 	ldrbvs	r6, [r2, #-1643]!	; 0xfffff995
 b10:	6c615f65 	stclvs	15, cr5, [r1], #-404	; 0xfffffe6c
 b14:	666b006c 	strbtvs	r0, [fp], -ip, rrx
 b18:	5f656572 	svcpl	0x00656572
 b1c:	65746661 	ldrbvs	r6, [r4, #-1633]!	; 0xfffff99f
 b20:	6d6b0072 	stclvs	0, cr0, [fp, #-456]!	; 0xfffffe38
 b24:	6f6c6c61 	svcvs	0x006c6c61
 b28:	65685f63 	strbvs	r5, [r8, #-3939]!	; 0xfffff09d
 b2c:	705f7061 	subsvc	r7, pc, r1, rrx
 b30:	61007274 	tstvs	r0, r4, ror r2
 b34:	6e67696c 	vnmulvs.f16	s13, s14, s25	; <UNPREDICTABLE>
 b38:	746e656d 	strbtvc	r6, [lr], #-1389	; 0xfffffa93
 b3c:	685f5f00 	ldmdavs	pc, {r8, r9, sl, fp, ip, lr}^	; <UNPREDICTABLE>
 b40:	5f706165 	svcpl	0x00706165
 b44:	72617473 	rsbvc	r7, r1, #1929379840	; 0x73000000
 b48:	005f5f74 	subseq	r5, pc, r4, ror pc	; <UNPREDICTABLE>
 b4c:	6c616d6b 	stclvs	13, cr6, [r1], #-428	; 0xfffffe54
 b50:	5f636f6c 	svcpl	0x00636f6c
 b54:	70616568 	rsbvc	r6, r1, r8, ror #10
 b58:	6174735f 	cmnvs	r4, pc, asr r3
 b5c:	5f007472 	svcpl	0x00007472
 b60:	72646461 	rsbvc	r6, r4, #1627389952	; 0x61000000
 b64:	616d6b00 	cmnvs	sp, r0, lsl #22
 b68:	636f6c6c 	cmnvs	pc, #108, 24	; 0x6c00
 b6c:	6165685f 	cmnvs	r5, pc, asr r8
 b70:	6e655f70 	mcrvs	15, 3, r5, cr5, cr0, {3}
 b74:	Address 0x0000000000000b74 is out of bounds.


Disassembly of section .debug_frame:

00000000 <.debug_frame>:
   0:	0000000c 	andeq	r0, r0, ip
   4:	ffffffff 			; <UNDEFINED> instruction: 0xffffffff
   8:	7c020001 	stcvc	0, cr0, [r2], {1}
   c:	000d0c0e 	andeq	r0, sp, lr, lsl #24
  10:	00000018 	andeq	r0, r0, r8, lsl r0
  14:	00000000 	andeq	r0, r0, r0
  18:	00008010 	andeq	r8, r0, r0, lsl r0
  1c:	0000007c 	andeq	r0, r0, ip, ror r0
  20:	84100e42 	ldrhi	r0, [r0], #-3650	; 0xfffff1be
  24:	86038504 	strhi	r8, [r3], -r4, lsl #10
  28:	00018e02 	andeq	r8, r1, r2, lsl #28
  2c:	0000000c 	andeq	r0, r0, ip
  30:	ffffffff 			; <UNDEFINED> instruction: 0xffffffff
  34:	7c020001 	stcvc	0, cr0, [r2], {1}
  38:	000d0c0e 	andeq	r0, sp, lr, lsl #24
  3c:	0000000c 	andeq	r0, r0, ip
  40:	0000002c 	andeq	r0, r0, ip, lsr #32
  44:	0000808c 	andeq	r8, r0, ip, lsl #1
  48:	00000008 	andeq	r0, r0, r8
  4c:	00000014 	andeq	r0, r0, r4, lsl r0
  50:	0000002c 	andeq	r0, r0, ip, lsr #32
  54:	00008094 	muleq	r0, r4, r0
  58:	00000010 	andeq	r0, r0, r0, lsl r0
  5c:	84080e42 	strhi	r0, [r8], #-3650	; 0xfffff1be
  60:	00018e02 	andeq	r8, r1, r2, lsl #28
  64:	00000014 	andeq	r0, r0, r4, lsl r0
  68:	0000002c 	andeq	r0, r0, ip, lsr #32
  6c:	000080a4 	andeq	r8, r0, r4, lsr #1
  70:	00000018 	andeq	r0, r0, r8, lsl r0
  74:	84080e42 	strhi	r0, [r8], #-3650	; 0xfffff1be
  78:	00018e02 	andeq	r8, r1, r2, lsl #28
  7c:	0000000c 	andeq	r0, r0, ip
  80:	0000002c 	andeq	r0, r0, ip, lsr #32
  84:	000080bc 	strheq	r8, [r0], -ip
  88:	0000000c 	andeq	r0, r0, ip
  8c:	0000000c 	andeq	r0, r0, ip
  90:	0000002c 	andeq	r0, r0, ip, lsr #32
  94:	000080c8 	andeq	r8, r0, r8, asr #1
  98:	00000008 	andeq	r0, r0, r8
  9c:	0000001c 	andeq	r0, r0, ip, lsl r0
  a0:	0000002c 	andeq	r0, r0, ip, lsr #32
  a4:	000080d0 	ldrdeq	r8, [r0], -r0
  a8:	0000010c 	andeq	r0, r0, ip, lsl #2
  ac:	84180e42 	ldrhi	r0, [r8], #-3650	; 0xfffff1be
  b0:	86058506 	strhi	r8, [r5], -r6, lsl #10
  b4:	88038704 	stmdahi	r3, {r2, r8, r9, sl, pc}
  b8:	00018e02 	andeq	r8, r1, r2, lsl #28
  bc:	00000014 	andeq	r0, r0, r4, lsl r0
  c0:	0000002c 	andeq	r0, r0, ip, lsr #32
  c4:	000081dc 	ldrdeq	r8, [r0], -ip
  c8:	00000014 	andeq	r0, r0, r4, lsl r0
  cc:	84080e42 	strhi	r0, [r8], #-3650	; 0xfffff1be
  d0:	00018e02 	andeq	r8, r1, r2, lsl #28
  d4:	00000018 	andeq	r0, r0, r8, lsl r0
  d8:	0000002c 	andeq	r0, r0, ip, lsr #32
  dc:	000081f0 	strdeq	r8, [r0], -r0
  e0:	00000024 	andeq	r0, r0, r4, lsr #32
  e4:	84100e42 	ldrhi	r0, [r0], #-3650	; 0xfffff1be
  e8:	86038504 	strhi	r8, [r3], -r4, lsl #10
  ec:	00018e02 	andeq	r8, r1, r2, lsl #28
  f0:	00000018 	andeq	r0, r0, r8, lsl r0
  f4:	0000002c 	andeq	r0, r0, ip, lsr #32
  f8:	00008214 	andeq	r8, r0, r4, lsl r2
  fc:	000000f4 	strdeq	r0, [r0], -r4
 100:	84100e42 	ldrhi	r0, [r0], #-3650	; 0xfffff1be
 104:	86038504 	strhi	r8, [r3], -r4, lsl #10
 108:	00018e02 	andeq	r8, r1, r2, lsl #28
 10c:	0000001c 	andeq	r0, r0, ip, lsl r0
 110:	0000002c 	andeq	r0, r0, ip, lsr #32
 114:	00008308 	andeq	r8, r0, r8, lsl #6
 118:	00000108 	andeq	r0, r0, r8, lsl #2
 11c:	84180e42 	ldrhi	r0, [r8], #-3650	; 0xfffff1be
 120:	86058506 	strhi	r8, [r5], -r6, lsl #10
 124:	88038704 	stmdahi	r3, {r2, r8, r9, sl, pc}
 128:	00018e02 	andeq	r8, r1, r2, lsl #28
 12c:	00000018 	andeq	r0, r0, r8, lsl r0
 130:	0000002c 	andeq	r0, r0, ip, lsr #32
 134:	00008410 	andeq	r8, r0, r0, lsl r4
 138:	00000064 	andeq	r0, r0, r4, rrx
 13c:	84100e42 	ldrhi	r0, [r0], #-3650	; 0xfffff1be
 140:	86038504 	strhi	r8, [r3], -r4, lsl #10
 144:	00018e02 	andeq	r8, r1, r2, lsl #28
 148:	00000018 	andeq	r0, r0, r8, lsl r0
 14c:	0000002c 	andeq	r0, r0, ip, lsr #32
 150:	00008474 	andeq	r8, r0, r4, ror r4
 154:	00000074 	andeq	r0, r0, r4, ror r0
 158:	84100e42 	ldrhi	r0, [r0], #-3650	; 0xfffff1be
 15c:	86038504 	strhi	r8, [r3], -r4, lsl #10
 160:	00018e02 	andeq	r8, r1, r2, lsl #28
 164:	0000001c 	andeq	r0, r0, ip, lsl r0
 168:	0000002c 	andeq	r0, r0, ip, lsr #32
 16c:	000084e8 	andeq	r8, r0, r8, ror #9
 170:	000000b8 	strheq	r0, [r0], -r8
 174:	84180e42 	ldrhi	r0, [r8], #-3650	; 0xfffff1be
 178:	86058506 	strhi	r8, [r5], -r6, lsl #10
 17c:	88038704 	stmdahi	r3, {r2, r8, r9, sl, pc}
 180:	00018e02 	andeq	r8, r1, r2, lsl #28
 184:	00000028 	andeq	r0, r0, r8, lsr #32
 188:	0000002c 	andeq	r0, r0, ip, lsr #32
 18c:	000085a0 	andeq	r8, r0, r0, lsr #11
 190:	00000218 	andeq	r0, r0, r8, lsl r2
 194:	841c0e42 	ldrhi	r0, [ip], #-3650	; 0xfffff1be
 198:	86068507 	strhi	r8, [r6], -r7, lsl #10
 19c:	88048705 	stmdahi	r4, {r0, r2, r8, r9, sl, pc}
 1a0:	8e028903 	vmlahi.f16	s16, s4, s6	; <UNPREDICTABLE>
 1a4:	280e4201 	stmdacs	lr, {r0, r9, lr}
 1a8:	0e0a8c02 	cdpeq	12, 0, cr8, cr10, cr2, {0}
 1ac:	000b421c 	andeq	r4, fp, ip, lsl r2
 1b0:	0000001c 	andeq	r0, r0, ip, lsl r0
 1b4:	0000002c 	andeq	r0, r0, ip, lsr #32
 1b8:	000087b8 			; <UNDEFINED> instruction: 0x000087b8
 1bc:	0000014c 	andeq	r0, r0, ip, asr #2
 1c0:	84180e42 	ldrhi	r0, [r8], #-3650	; 0xfffff1be
 1c4:	86058506 	strhi	r8, [r5], -r6, lsl #10
 1c8:	88038704 	stmdahi	r3, {r2, r8, r9, sl, pc}
 1cc:	00018e02 	andeq	r8, r1, r2, lsl #28
 1d0:	0000000c 	andeq	r0, r0, ip
 1d4:	ffffffff 			; <UNDEFINED> instruction: 0xffffffff
 1d8:	7c020001 	stcvc	0, cr0, [r2], {1}
 1dc:	000d0c0e 	andeq	r0, sp, lr, lsl #24
 1e0:	00000034 	andeq	r0, r0, r4, lsr r0
 1e4:	000001d0 	ldrdeq	r0, [r0], -r0	; <UNPREDICTABLE>
 1e8:	00008904 	andeq	r8, r0, r4, lsl #18
 1ec:	00000058 	andeq	r0, r0, r8, asr r0
 1f0:	80100e42 	andshi	r0, r0, r2, asr #28
 1f4:	82038104 	andhi	r8, r3, #4, 2
 1f8:	42018302 	andmi	r8, r1, #134217728	; 0x8000000
 1fc:	07841c0e 	streq	r1, [r4, lr, lsl #24]
 200:	058e0685 	streq	r0, [lr, #1669]	; 0x685
 204:	5c280e42 	stcpl	14, cr0, [r8], #-264	; 0xfffffef8
 208:	ce421c0e 	cdpgt	12, 4, cr1, cr2, cr14, {0}
 20c:	100ec4c5 	andne	ip, lr, r5, asr #9
 210:	c1c2c342 	bicgt	ip, r2, r2, asr #6
 214:	00000ec0 	andeq	r0, r0, r0, asr #29
 218:	0000000c 	andeq	r0, r0, ip
 21c:	ffffffff 			; <UNDEFINED> instruction: 0xffffffff
 220:	7c020001 	stcvc	0, cr0, [r2], {1}
 224:	000d0c0e 	andeq	r0, sp, lr, lsl #24
 228:	0000000c 	andeq	r0, r0, ip
 22c:	00000218 	andeq	r0, r0, r8, lsl r2
 230:	0000895c 	andeq	r8, r0, ip, asr r9
 234:	00000014 	andeq	r0, r0, r4, lsl r0
 238:	0000000c 	andeq	r0, r0, ip
 23c:	00000218 	andeq	r0, r0, r8, lsl r2
 240:	00008970 	andeq	r8, r0, r0, ror r9
 244:	0000002c 	andeq	r0, r0, ip, lsr #32
 248:	0000000c 	andeq	r0, r0, ip
 24c:	00000218 	andeq	r0, r0, r8, lsl r2
 250:	0000899c 	muleq	r0, ip, r9
 254:	00000040 	andeq	r0, r0, r0, asr #32
 258:	00000024 	andeq	r0, r0, r4, lsr #32
 25c:	00000218 	andeq	r0, r0, r8, lsl r2
 260:	000089dc 	ldrdeq	r8, [r0], -ip
 264:	000001b0 			; <UNDEFINED> instruction: 0x000001b0
 268:	84140e42 	ldrhi	r0, [r4], #-3650	; 0xfffff1be
 26c:	86048505 	strhi	r8, [r4], -r5, lsl #10
 270:	8e028703 	cdphi	7, 0, cr8, cr2, cr3, {0}
 274:	580e4201 	stmdapl	lr, {r0, r9, lr}
 278:	0e0a9c02 	cdpeq	12, 0, cr9, cr10, cr2, {0}
 27c:	000b4214 	andeq	r4, fp, r4, lsl r2
 280:	00000014 	andeq	r0, r0, r4, lsl r0
 284:	00000218 	andeq	r0, r0, r8, lsl r2
 288:	00008b8c 	andeq	r8, r0, ip, lsl #23
 28c:	00000054 	andeq	r0, r0, r4, asr r0
 290:	84080e52 	strhi	r0, [r8], #-3666	; 0xfffff1ae
 294:	00018e02 	andeq	r8, r1, r2, lsl #28
 298:	00000028 	andeq	r0, r0, r8, lsr #32
 29c:	00000218 	andeq	r0, r0, r8, lsl r2
 2a0:	00008be0 	andeq	r8, r0, r0, ror #23
 2a4:	000002c0 	andeq	r0, r0, r0, asr #5
 2a8:	841c0e42 	ldrhi	r0, [ip], #-3650	; 0xfffff1be
 2ac:	86068507 	strhi	r8, [r6], -r7, lsl #10
 2b0:	88048705 	stmdahi	r4, {r0, r2, r8, r9, sl, pc}
 2b4:	8e028903 	vmlahi.f16	s16, s4, s6	; <UNPREDICTABLE>
 2b8:	b00e4201 	andlt	r4, lr, r1, lsl #4
 2bc:	01500301 	cmpeq	r0, r1, lsl #6
 2c0:	00001c0e 	andeq	r1, r0, lr, lsl #24
 2c4:	0000000c 	andeq	r0, r0, ip
 2c8:	ffffffff 			; <UNDEFINED> instruction: 0xffffffff
 2cc:	7c020001 	stcvc	0, cr0, [r2], {1}
 2d0:	000d0c0e 	andeq	r0, sp, lr, lsl #24
 2d4:	00000018 	andeq	r0, r0, r8, lsl r0
 2d8:	000002c4 	andeq	r0, r0, r4, asr #5
 2dc:	00008ea0 	andeq	r8, r0, r0, lsr #29
 2e0:	000000e8 	andeq	r0, r0, r8, ror #1
 2e4:	8e040e48 	cdphi	14, 0, cr0, cr4, cr8, {2}
 2e8:	0e680201 	cdpeq	2, 6, cr0, cr8, cr1, {0}
 2ec:	0000ce00 	andeq	ip, r0, r0, lsl #28
 2f0:	0000000c 	andeq	r0, r0, ip
 2f4:	ffffffff 			; <UNDEFINED> instruction: 0xffffffff
 2f8:	7c020001 	stcvc	0, cr0, [r2], {1}
 2fc:	000d0c0e 	andeq	r0, sp, lr, lsl #24
 300:	00000014 	andeq	r0, r0, r4, lsl r0
 304:	000002f0 	strdeq	r0, [r0], -r0	; <UNPREDICTABLE>
 308:	00008f88 	andeq	r8, r0, r8, lsl #31
 30c:	00000034 	andeq	r0, r0, r4, lsr r0
 310:	84080e42 	strhi	r0, [r8], #-3650	; 0xfffff1be
 314:	00018e02 	andeq	r8, r1, r2, lsl #28
 318:	0000000c 	andeq	r0, r0, ip
 31c:	ffffffff 			; <UNDEFINED> instruction: 0xffffffff
 320:	7c020001 	stcvc	0, cr0, [r2], {1}
 324:	000d0c0e 	andeq	r0, sp, lr, lsl #24
 328:	00000014 	andeq	r0, r0, r4, lsl r0
 32c:	00000318 	andeq	r0, r0, r8, lsl r3
 330:	00008fbc 			; <UNDEFINED> instruction: 0x00008fbc
 334:	00000014 	andeq	r0, r0, r4, lsl r0
 338:	84080e42 	strhi	r0, [r8], #-3650	; 0xfffff1be
 33c:	00018e02 	andeq	r8, r1, r2, lsl #28
 340:	0000000c 	andeq	r0, r0, ip
 344:	00000318 	andeq	r0, r0, r8, lsl r3
 348:	00008fd0 	ldrdeq	r8, [r0], -r0
 34c:	00000018 	andeq	r0, r0, r8, lsl r0
 350:	0000000c 	andeq	r0, r0, ip
 354:	00000318 	andeq	r0, r0, r8, lsl r3
 358:	00008fe8 	andeq	r8, r0, r8, ror #31
 35c:	00000010 	andeq	r0, r0, r0, lsl r0
 360:	0000000c 	andeq	r0, r0, ip
 364:	ffffffff 			; <UNDEFINED> instruction: 0xffffffff
 368:	7c020001 	stcvc	0, cr0, [r2], {1}
 36c:	000d0c0e 	andeq	r0, sp, lr, lsl #24
 370:	0000000c 	andeq	r0, r0, ip
 374:	00000360 	andeq	r0, r0, r0, ror #6
 378:	00008ff8 	strdeq	r8, [r0], -r8	; <UNPREDICTABLE>
 37c:	00000020 	andeq	r0, r0, r0, lsr #32
 380:	0000000c 	andeq	r0, r0, ip
 384:	ffffffff 			; <UNDEFINED> instruction: 0xffffffff
 388:	7c020001 	stcvc	0, cr0, [r2], {1}
 38c:	000d0c0e 	andeq	r0, sp, lr, lsl #24
 390:	00000014 	andeq	r0, r0, r4, lsl r0
 394:	00000380 	andeq	r0, r0, r0, lsl #7
 398:	00009018 	andeq	r9, r0, r8, lsl r0
 39c:	00000034 	andeq	r0, r0, r4, lsr r0
 3a0:	84080e42 	strhi	r0, [r8], #-3650	; 0xfffff1be
 3a4:	00018e02 	andeq	r8, r1, r2, lsl #28
 3a8:	0000000c 	andeq	r0, r0, ip
 3ac:	ffffffff 			; <UNDEFINED> instruction: 0xffffffff
 3b0:	7c020001 	stcvc	0, cr0, [r2], {1}
 3b4:	000d0c0e 	andeq	r0, sp, lr, lsl #24
 3b8:	0000000c 	andeq	r0, r0, ip
 3bc:	000003a8 	andeq	r0, r0, r8, lsr #7
 3c0:	0000904c 	andeq	r9, r0, ip, asr #32
 3c4:	00000018 	andeq	r0, r0, r8, lsl r0
 3c8:	0000000c 	andeq	r0, r0, ip
 3cc:	000003a8 	andeq	r0, r0, r8, lsr #7
 3d0:	00009064 	andeq	r9, r0, r4, rrx
 3d4:	00000014 	andeq	r0, r0, r4, lsl r0
 3d8:	00000014 	andeq	r0, r0, r4, lsl r0
 3dc:	000003a8 	andeq	r0, r0, r8, lsr #7
 3e0:	00009078 	andeq	r9, r0, r8, ror r0
 3e4:	0000004c 	andeq	r0, r0, ip, asr #32
 3e8:	84080e42 	strhi	r0, [r8], #-3650	; 0xfffff1be
 3ec:	00018e02 	andeq	r8, r1, r2, lsl #28
 3f0:	0000000c 	andeq	r0, r0, ip
 3f4:	ffffffff 			; <UNDEFINED> instruction: 0xffffffff
 3f8:	7c020001 	stcvc	0, cr0, [r2], {1}
 3fc:	000d0c0e 	andeq	r0, sp, lr, lsl #24
 400:	00000014 	andeq	r0, r0, r4, lsl r0
 404:	000003f0 	strdeq	r0, [r0], -r0	; <UNPREDICTABLE>
 408:	000090c4 	andeq	r9, r0, r4, asr #1
 40c:	00000028 	andeq	r0, r0, r8, lsr #32
 410:	84080e42 	strhi	r0, [r8], #-3650	; 0xfffff1be
 414:	00018e02 	andeq	r8, r1, r2, lsl #28
 418:	0000000c 	andeq	r0, r0, ip
 41c:	ffffffff 			; <UNDEFINED> instruction: 0xffffffff
 420:	7c020001 	stcvc	0, cr0, [r2], {1}
 424:	000d0c0e 	andeq	r0, sp, lr, lsl #24
 428:	0000000c 	andeq	r0, r0, ip
 42c:	00000418 	andeq	r0, r0, r8, lsl r4
 430:	000090ec 	andeq	r9, r0, ip, ror #1
 434:	0000001c 	andeq	r0, r0, ip, lsl r0
 438:	00000014 	andeq	r0, r0, r4, lsl r0
 43c:	00000418 	andeq	r0, r0, r8, lsl r4
 440:	00009108 	andeq	r9, r0, r8, lsl #2
 444:	00000014 	andeq	r0, r0, r4, lsl r0
 448:	84080e42 	strhi	r0, [r8], #-3650	; 0xfffff1be
 44c:	00018e02 	andeq	r8, r1, r2, lsl #28
 450:	00000014 	andeq	r0, r0, r4, lsl r0
 454:	00000418 	andeq	r0, r0, r8, lsl r4
 458:	0000911c 	andeq	r9, r0, ip, lsl r1
 45c:	0000000c 	andeq	r0, r0, ip
 460:	84080e42 	strhi	r0, [r8], #-3650	; 0xfffff1be
 464:	00018e02 	andeq	r8, r1, r2, lsl #28
 468:	00000018 	andeq	r0, r0, r8, lsl r0
 46c:	00000418 	andeq	r0, r0, r8, lsl r4
 470:	00009128 	andeq	r9, r0, r8, lsr #2
 474:	00000024 	andeq	r0, r0, r4, lsr #32
 478:	84100e42 	ldrhi	r0, [r0], #-3650	; 0xfffff1be
 47c:	86038504 	strhi	r8, [r3], -r4, lsl #10
 480:	00018e02 	andeq	r8, r1, r2, lsl #28
 484:	00000014 	andeq	r0, r0, r4, lsl r0
 488:	00000418 	andeq	r0, r0, r8, lsl r4
 48c:	0000914c 	andeq	r9, r0, ip, asr #2
 490:	00000014 	andeq	r0, r0, r4, lsl r0
 494:	84080e42 	strhi	r0, [r8], #-3650	; 0xfffff1be
 498:	00018e02 	andeq	r8, r1, r2, lsl #28
 49c:	00000014 	andeq	r0, r0, r4, lsl r0
 4a0:	00000418 	andeq	r0, r0, r8, lsl r4
 4a4:	00009160 	andeq	r9, r0, r0, ror #2
 4a8:	00000014 	andeq	r0, r0, r4, lsl r0
 4ac:	84080e42 	strhi	r0, [r8], #-3650	; 0xfffff1be
 4b0:	00018e02 	andeq	r8, r1, r2, lsl #28
 4b4:	0000000c 	andeq	r0, r0, ip
 4b8:	ffffffff 			; <UNDEFINED> instruction: 0xffffffff
 4bc:	7c020001 	stcvc	0, cr0, [r2], {1}
 4c0:	000d0c0e 	andeq	r0, sp, lr, lsl #24
 4c4:	00000018 	andeq	r0, r0, r8, lsl r0
 4c8:	000004b4 			; <UNDEFINED> instruction: 0x000004b4
 4cc:	000091c0 	andeq	r9, r0, r0, asr #3
 4d0:	00000020 	andeq	r0, r0, r0, lsr #32
 4d4:	84100e42 	ldrhi	r0, [r0], #-3650	; 0xfffff1be
 4d8:	86038504 	strhi	r8, [r3], -r4, lsl #10
 4dc:	00018e02 	andeq	r8, r1, r2, lsl #28
 4e0:	00000014 	andeq	r0, r0, r4, lsl r0
 4e4:	000004b4 			; <UNDEFINED> instruction: 0x000004b4
 4e8:	000091e0 	andeq	r9, r0, r0, ror #3
 4ec:	000000b0 	strheq	r0, [r0], -r0	; <UNPREDICTABLE>
 4f0:	84080e42 	strhi	r0, [r8], #-3650	; 0xfffff1be
 4f4:	00018e02 	andeq	r8, r1, r2, lsl #28
 4f8:	00000014 	andeq	r0, r0, r4, lsl r0
 4fc:	000004b4 			; <UNDEFINED> instruction: 0x000004b4
 500:	00009290 	muleq	r0, r0, r2
 504:	00000018 	andeq	r0, r0, r8, lsl r0
 508:	84080e42 	strhi	r0, [r8], #-3650	; 0xfffff1be
 50c:	00018e02 	andeq	r8, r1, r2, lsl #28
 510:	00000014 	andeq	r0, r0, r4, lsl r0
 514:	000004b4 			; <UNDEFINED> instruction: 0x000004b4
 518:	000092a8 	andeq	r9, r0, r8, lsr #5
 51c:	00000020 	andeq	r0, r0, r0, lsr #32
 520:	84080e42 	strhi	r0, [r8], #-3650	; 0xfffff1be
 524:	00018e02 	andeq	r8, r1, r2, lsl #28
 528:	00000014 	andeq	r0, r0, r4, lsl r0
 52c:	000004b4 			; <UNDEFINED> instruction: 0x000004b4
 530:	000092c8 	andeq	r9, r0, r8, asr #5
 534:	00000030 	andeq	r0, r0, r0, lsr r0
 538:	84080e42 	strhi	r0, [r8], #-3650	; 0xfffff1be
 53c:	00018e02 	andeq	r8, r1, r2, lsl #28
 540:	00000014 	andeq	r0, r0, r4, lsl r0
 544:	000004b4 			; <UNDEFINED> instruction: 0x000004b4
 548:	000092f8 	strdeq	r9, [r0], -r8
 54c:	00000030 	andeq	r0, r0, r0, lsr r0
 550:	84080e42 	strhi	r0, [r8], #-3650	; 0xfffff1be
 554:	00018e02 	andeq	r8, r1, r2, lsl #28
 558:	00000014 	andeq	r0, r0, r4, lsl r0
 55c:	000004b4 			; <UNDEFINED> instruction: 0x000004b4
 560:	00009328 	andeq	r9, r0, r8, lsr #6
 564:	00000010 	andeq	r0, r0, r0, lsl r0
 568:	84080e42 	strhi	r0, [r8], #-3650	; 0xfffff1be
 56c:	00018e02 	andeq	r8, r1, r2, lsl #28
 570:	0000000c 	andeq	r0, r0, ip
 574:	ffffffff 			; <UNDEFINED> instruction: 0xffffffff
 578:	7c020001 	stcvc	0, cr0, [r2], {1}
 57c:	000d0c0e 	andeq	r0, sp, lr, lsl #24
 580:	00000018 	andeq	r0, r0, r8, lsl r0
 584:	00000570 	andeq	r0, r0, r0, ror r5
 588:	00009338 	andeq	r9, r0, r8, lsr r3
 58c:	00000068 	andeq	r0, r0, r8, rrx
 590:	84100e4a 	ldrhi	r0, [r0], #-3658	; 0xfffff1b6
 594:	86038504 	strhi	r8, [r3], -r4, lsl #10
 598:	00018e02 	andeq	r8, r1, r2, lsl #28
 59c:	00000014 	andeq	r0, r0, r4, lsl r0
 5a0:	00000570 	andeq	r0, r0, r0, ror r5
 5a4:	000093a0 	andeq	r9, r0, r0, lsr #7
 5a8:	00000010 	andeq	r0, r0, r0, lsl r0
 5ac:	84080e42 	strhi	r0, [r8], #-3650	; 0xfffff1be
 5b0:	00018e02 	andeq	r8, r1, r2, lsl #28
 5b4:	00000014 	andeq	r0, r0, r4, lsl r0
 5b8:	00000570 	andeq	r0, r0, r0, ror r5
 5bc:	000093b0 			; <UNDEFINED> instruction: 0x000093b0
 5c0:	00000024 	andeq	r0, r0, r4, lsr #32
 5c4:	84080e46 	strhi	r0, [r8], #-3654	; 0xfffff1ba
 5c8:	00018e02 	andeq	r8, r1, r2, lsl #28
 5cc:	00000014 	andeq	r0, r0, r4, lsl r0
 5d0:	00000570 	andeq	r0, r0, r0, ror r5
 5d4:	000093d4 	ldrdeq	r9, [r0], -r4
 5d8:	00000024 	andeq	r0, r0, r4, lsr #32
 5dc:	84080e46 	strhi	r0, [r8], #-3654	; 0xfffff1ba
 5e0:	00018e02 	andeq	r8, r1, r2, lsl #28
 5e4:	00000014 	andeq	r0, r0, r4, lsl r0
 5e8:	00000570 	andeq	r0, r0, r0, ror r5
 5ec:	000093f8 	strdeq	r9, [r0], -r8
 5f0:	00000010 	andeq	r0, r0, r0, lsl r0
 5f4:	84080e42 	strhi	r0, [r8], #-3650	; 0xfffff1be
 5f8:	00018e02 	andeq	r8, r1, r2, lsl #28
 5fc:	00000014 	andeq	r0, r0, r4, lsl r0
 600:	00000570 	andeq	r0, r0, r0, ror r5
 604:	00009408 	andeq	r9, r0, r8, lsl #8
 608:	0000001c 	andeq	r0, r0, ip, lsl r0
 60c:	84080e42 	strhi	r0, [r8], #-3650	; 0xfffff1be
 610:	00018e02 	andeq	r8, r1, r2, lsl #28
 614:	00000018 	andeq	r0, r0, r8, lsl r0
 618:	00000570 	andeq	r0, r0, r0, ror r5
 61c:	00009424 	andeq	r9, r0, r4, lsr #8
 620:	00000034 	andeq	r0, r0, r4, lsr r0
 624:	84080e46 	strhi	r0, [r8], #-3654	; 0xfffff1ba
 628:	4e018e02 	cdpmi	14, 0, cr8, cr1, cr2, {0}
 62c:	cec4000e 	cdpgt	0, 12, cr0, cr4, cr14, {0}
 630:	0000000c 	andeq	r0, r0, ip
 634:	ffffffff 			; <UNDEFINED> instruction: 0xffffffff
 638:	7c020001 	stcvc	0, cr0, [r2], {1}
 63c:	000d0c0e 	andeq	r0, sp, lr, lsl #24
 640:	0000000c 	andeq	r0, r0, ip
 644:	00000630 	andeq	r0, r0, r0, lsr r6
 648:	00009458 	andeq	r9, r0, r8, asr r4
 64c:	00000010 	andeq	r0, r0, r0, lsl r0
 650:	0000000c 	andeq	r0, r0, ip
 654:	00000630 	andeq	r0, r0, r0, lsr r6
 658:	00009468 	andeq	r9, r0, r8, ror #8
 65c:	0000000c 	andeq	r0, r0, ip
 660:	00000014 	andeq	r0, r0, r4, lsl r0
 664:	00000630 	andeq	r0, r0, r0, lsr r6
 668:	00009474 	andeq	r9, r0, r4, ror r4
 66c:	00000050 	andeq	r0, r0, r0, asr r0
 670:	84080e52 	strhi	r0, [r8], #-3666	; 0xfffff1ae
 674:	00018e02 	andeq	r8, r1, r2, lsl #28
 678:	00000014 	andeq	r0, r0, r4, lsl r0
 67c:	00000630 	andeq	r0, r0, r0, lsr r6
 680:	000094c4 	andeq	r9, r0, r4, asr #9
 684:	00000064 	andeq	r0, r0, r4, rrx
 688:	84080e42 	strhi	r0, [r8], #-3650	; 0xfffff1be
 68c:	00018e02 	andeq	r8, r1, r2, lsl #28
 690:	0000000c 	andeq	r0, r0, ip
 694:	00000630 	andeq	r0, r0, r0, lsr r6
 698:	00009528 	andeq	r9, r0, r8, lsr #10
 69c:	00000004 	andeq	r0, r0, r4
 6a0:	00000014 	andeq	r0, r0, r4, lsl r0
 6a4:	00000630 	andeq	r0, r0, r0, lsr r6
 6a8:	0000952c 	andeq	r9, r0, ip, lsr #10
 6ac:	0000000c 	andeq	r0, r0, ip
 6b0:	84080e42 	strhi	r0, [r8], #-3650	; 0xfffff1be
 6b4:	00018e02 	andeq	r8, r1, r2, lsl #28
 6b8:	00000014 	andeq	r0, r0, r4, lsl r0
 6bc:	00000630 	andeq	r0, r0, r0, lsr r6
 6c0:	00009538 	andeq	r9, r0, r8, lsr r5
 6c4:	0000008c 	andeq	r0, r0, ip, lsl #1
 6c8:	84080e42 	strhi	r0, [r8], #-3650	; 0xfffff1be
 6cc:	00018e02 	andeq	r8, r1, r2, lsl #28
 6d0:	0000000c 	andeq	r0, r0, ip
 6d4:	00000630 	andeq	r0, r0, r0, lsr r6
 6d8:	000095c4 	andeq	r9, r0, r4, asr #11
 6dc:	00000004 	andeq	r0, r0, r4
 6e0:	0000000c 	andeq	r0, r0, ip
 6e4:	00000630 	andeq	r0, r0, r0, lsr r6
 6e8:	000095c8 	andeq	r9, r0, r8, asr #11
 6ec:	00000014 	andeq	r0, r0, r4, lsl r0
 6f0:	0000000c 	andeq	r0, r0, ip
 6f4:	00000630 	andeq	r0, r0, r0, lsr r6
 6f8:	000095dc 	ldrdeq	r9, [r0], -ip
 6fc:	00000010 	andeq	r0, r0, r0, lsl r0

Disassembly of section .debug_ranges:

00000000 <.debug_ranges>:
   0:	000000a0 	andeq	r0, r0, r0, lsr #1
   4:	000000e8 	andeq	r0, r0, r8, ror #1
   8:	00000100 	andeq	r0, r0, r0, lsl #2
   c:	0000012c 	andeq	r0, r0, ip, lsr #2
	...
  18:	000001c4 	andeq	r0, r0, r4, asr #3
  1c:	0000020c 	andeq	r0, r0, ip, lsl #4
  20:	0000022c 	andeq	r0, r0, ip, lsr #4
  24:	00000254 	andeq	r0, r0, r4, asr r2
	...
  30:	000002a4 	andeq	r0, r0, r4, lsr #5
  34:	0000035c 	andeq	r0, r0, ip, asr r3
  38:	00000364 	andeq	r0, r0, r4, ror #6
  3c:	00000368 	andeq	r0, r0, r8, ror #6
	...
  48:	000002dc 	ldrdeq	r0, [r0], -ip
  4c:	00000324 	andeq	r0, r0, r4, lsr #6
  50:	0000032c 	andeq	r0, r0, ip, lsr #6
  54:	00000354 	andeq	r0, r0, r4, asr r3
	...
  60:	00000760 	andeq	r0, r0, r0, ror #14
  64:	00000764 	andeq	r0, r0, r4, ror #14
  68:	0000076c 	andeq	r0, r0, ip, ror #14
  6c:	00000778 	andeq	r0, r0, r8, ror r7
  70:	0000079c 	muleq	r0, ip, r7
  74:	00000848 	andeq	r0, r0, r8, asr #16
	...
  80:	000002d8 	ldrdeq	r0, [r0], -r8
  84:	000002e4 	andeq	r0, r0, r4, ror #5
  88:	000002f4 	strdeq	r0, [r0], -r4
  8c:	00000518 	andeq	r0, r0, r8, lsl r5
	...
  98:	0000904c 	andeq	r9, r0, ip, asr #32
  9c:	000090c4 	andeq	r9, r0, r4, asr #1
	...
