
part1-test1.elf:     file format elf32-littlearm


Disassembly of section .text:

00008000 <_start>:
    8000:	e3a0d302 	mov	sp, #134217728	; 0x8000000
    8004:	e3a0b000 	mov	fp, #0
    8008:	eb000430 	bl	90d0 <_cstart>
    800c:	eb000445 	bl	9128 <rpi_reboot>

00008010 <notmain>:
    8010:	e92d4070 	push	{r4, r5, r6, lr}
    8014:	e59f00ac 	ldr	r0, [pc, #172]	; 80c8 <notmain+0xb8>
    8018:	eb0002a8 	bl	8ac0 <printk>
    801c:	e3a00601 	mov	r0, #1048576	; 0x100000
    8020:	eb000536 	bl	9500 <kmalloc_init_set_start>
    8024:	e3a00601 	mov	r0, #1048576	; 0x100000
    8028:	eb000548 	bl	9550 <kmalloc>
    802c:	e3a01601 	mov	r1, #1048576	; 0x100000
    8030:	eb00011f 	bl	84b4 <ck_init>
    8034:	e59f6090 	ldr	r6, [pc, #144]	; 80cc <notmain+0xbc>
    8038:	e59f5090 	ldr	r5, [pc, #144]	; 80d0 <notmain+0xc0>
    803c:	e3a03015 	mov	r3, #21
    8040:	e1a02006 	mov	r2, r6
    8044:	e1a01005 	mov	r1, r5
    8048:	e3a00004 	mov	r0, #4
    804c:	eb000163 	bl	85e0 <ckalloc>
    8050:	e1a04000 	mov	r4, r0
    8054:	e59f0078 	ldr	r0, [pc, #120]	; 80d4 <notmain+0xc4>
    8058:	eb000298 	bl	8ac0 <printk>
    805c:	e1a01004 	mov	r1, r4
    8060:	e59f0070 	ldr	r0, [pc, #112]	; 80d8 <notmain+0xc8>
    8064:	eb000295 	bl	8ac0 <printk>
    8068:	e3a02004 	mov	r2, #4
    806c:	e3a01000 	mov	r1, #0
    8070:	e1a00004 	mov	r0, r4
    8074:	eb00028b 	bl	8aa8 <memset>
    8078:	e3a03018 	mov	r3, #24
    807c:	e1a02006 	mov	r2, r6
    8080:	e1a01005 	mov	r1, r5
    8084:	e1a00004 	mov	r0, r4
    8088:	eb000126 	bl	8528 <ckfree>
    808c:	eb0001f9 	bl	8878 <ck_heap_errors>
    8090:	e3500000 	cmp	r0, #0
    8094:	1a000004 	bne	80ac <notmain+0x9c>
    8098:	e59f0034 	ldr	r0, [pc, #52]	; 80d4 <notmain+0xc4>
    809c:	eb000287 	bl	8ac0 <printk>
    80a0:	e59f0034 	ldr	r0, [pc, #52]	; 80dc <notmain+0xcc>
    80a4:	eb000285 	bl	8ac0 <printk>
    80a8:	e8bd8070 	pop	{r4, r5, r6, pc}
    80ac:	eb00029e 	bl	8b2c <rpi_reset_putc>
    80b0:	e3a0301a 	mov	r3, #26
    80b4:	e1a02006 	mov	r2, r6
    80b8:	e1a01005 	mov	r1, r5
    80bc:	e59f001c 	ldr	r0, [pc, #28]	; 80e0 <notmain+0xd0>
    80c0:	eb00027e 	bl	8ac0 <printk>
    80c4:	eb0003f7 	bl	90a8 <clean_reboot>
    80c8:	000096a0 	andeq	r9, r0, r0, lsr #13
    80cc:	00009714 	andeq	r9, r0, r4, lsl r7
    80d0:	000096a8 	andeq	r9, r0, r8, lsr #13
    80d4:	000096b8 			; <UNDEFINED> instruction: 0x000096b8
    80d8:	000096c0 	andeq	r9, r0, r0, asr #13
    80dc:	000096f8 	strdeq	r9, [r0], -r8
    80e0:	000096d4 	ldrdeq	r9, [r0], -r4

000080e4 <b_rz1_ptr>:
    80e4:	e2800038 	add	r0, r0, #56	; 0x38
    80e8:	e12fff1e 	bx	lr

000080ec <b_alloc_ptr>:
    80ec:	e92d4010 	push	{r4, lr}
    80f0:	ebfffffb 	bl	80e4 <b_rz1_ptr>
    80f4:	e2800080 	add	r0, r0, #128	; 0x80
    80f8:	e8bd8010 	pop	{r4, pc}

000080fc <b_rz2_ptr>:
    80fc:	e92d4010 	push	{r4, lr}
    8100:	e1a04000 	mov	r4, r0
    8104:	ebfffff8 	bl	80ec <b_alloc_ptr>
    8108:	e5943000 	ldr	r3, [r4]
    810c:	e0800003 	add	r0, r0, r3
    8110:	e8bd8010 	pop	{r4, pc}

00008114 <b_rz2_nbytes>:
    8114:	e5900004 	ldr	r0, [r0, #4]
    8118:	e2800080 	add	r0, r0, #128	; 0x80
    811c:	e12fff1e 	bx	lr

00008120 <b_addr_to_hdr>:
    8120:	e24000b8 	sub	r0, r0, #184	; 0xb8
    8124:	e12fff1e 	bx	lr

00008128 <check_free_write>:
    8128:	e92d41f0 	push	{r4, r5, r6, r7, r8, lr}
    812c:	e1a05000 	mov	r5, r0
    8130:	e1a06002 	mov	r6, r2
    8134:	e3a04000 	mov	r4, #0
    8138:	e1540001 	cmp	r4, r1
    813c:	2a000033 	bcs	8210 <check_free_write+0xe8>
    8140:	e7d53004 	ldrb	r3, [r5, r4]
    8144:	e35300fe 	cmp	r3, #254	; 0xfe
    8148:	02844001 	addeq	r4, r4, #1
    814c:	0afffff9 	beq	8138 <check_free_write+0x10>
    8150:	e1a00006 	mov	r0, r6
    8154:	ebffffe4 	bl	80ec <b_alloc_ptr>
    8158:	e0450000 	sub	r0, r5, r0
    815c:	e0804004 	add	r4, r0, r4
    8160:	e59f70b0 	ldr	r7, [pc, #176]	; 8218 <check_free_write+0xf0>
    8164:	e1a00007 	mov	r0, r7
    8168:	eb000254 	bl	8ac0 <printk>
    816c:	e59f00a8 	ldr	r0, [pc, #168]	; 821c <check_free_write+0xf4>
    8170:	eb000252 	bl	8ac0 <printk>
    8174:	e1a02004 	mov	r2, r4
    8178:	e1a01005 	mov	r1, r5
    817c:	e59f009c 	ldr	r0, [pc, #156]	; 8220 <check_free_write+0xf8>
    8180:	eb00024e 	bl	8ac0 <printk>
    8184:	e1a00007 	mov	r0, r7
    8188:	eb00024c 	bl	8ac0 <printk>
    818c:	e5961000 	ldr	r1, [r6]
    8190:	e59f008c 	ldr	r0, [pc, #140]	; 8224 <check_free_write+0xfc>
    8194:	eb000249 	bl	8ac0 <printk>
    8198:	e5963010 	ldr	r3, [r6, #16]
    819c:	e3530000 	cmp	r3, #0
    81a0:	0a000006 	beq	81c0 <check_free_write+0x98>
    81a4:	e1a00007 	mov	r0, r7
    81a8:	eb000244 	bl	8ac0 <printk>
    81ac:	e5963018 	ldr	r3, [r6, #24]
    81b0:	e5962014 	ldr	r2, [r6, #20]
    81b4:	e5961010 	ldr	r1, [r6, #16]
    81b8:	e59f0068 	ldr	r0, [pc, #104]	; 8228 <check_free_write+0x100>
    81bc:	eb00023f 	bl	8ac0 <printk>
    81c0:	e5963008 	ldr	r3, [r6, #8]
    81c4:	e353000c 	cmp	r3, #12
    81c8:	0a000005 	beq	81e4 <check_free_write+0xbc>
    81cc:	e59f0044 	ldr	r0, [pc, #68]	; 8218 <check_free_write+0xf0>
    81d0:	eb00023a 	bl	8ac0 <printk>
    81d4:	e59f0050 	ldr	r0, [pc, #80]	; 822c <check_free_write+0x104>
    81d8:	eb000238 	bl	8ac0 <printk>
    81dc:	e3a00000 	mov	r0, #0
    81e0:	e8bd81f0 	pop	{r4, r5, r6, r7, r8, pc}
    81e4:	e596301c 	ldr	r3, [r6, #28]
    81e8:	e3530000 	cmp	r3, #0
    81ec:	0afffff6 	beq	81cc <check_free_write+0xa4>
    81f0:	e59f0020 	ldr	r0, [pc, #32]	; 8218 <check_free_write+0xf0>
    81f4:	eb000231 	bl	8ac0 <printk>
    81f8:	e5963024 	ldr	r3, [r6, #36]	; 0x24
    81fc:	e5962020 	ldr	r2, [r6, #32]
    8200:	e596101c 	ldr	r1, [r6, #28]
    8204:	e59f0024 	ldr	r0, [pc, #36]	; 8230 <check_free_write+0x108>
    8208:	eb00022c 	bl	8ac0 <printk>
    820c:	eaffffee 	b	81cc <check_free_write+0xa4>
    8210:	e3a00001 	mov	r0, #1
    8214:	e8bd81f0 	pop	{r4, r5, r6, r7, r8, pc}
    8218:	000096b8 			; <UNDEFINED> instruction: 0x000096b8
    821c:	0000971c 	andeq	r9, r0, ip, lsl r7
    8220:	00009724 	andeq	r9, r0, r4, lsr #14
    8224:	00009748 	andeq	r9, r0, r8, asr #14
    8228:	00009754 	andeq	r9, r0, r4, asr r7
    822c:	00009790 	muleq	r0, r0, r7
    8230:	00009774 	andeq	r9, r0, r4, ror r7

00008234 <mark_mem>:
    8234:	e92d4010 	push	{r4, lr}
    8238:	e1a02001 	mov	r2, r1
    823c:	e3a010fe 	mov	r1, #254	; 0xfe
    8240:	eb000218 	bl	8aa8 <memset>
    8244:	e8bd8010 	pop	{r4, pc}

00008248 <hdr_cksum>:
    8248:	e92d4070 	push	{r4, r5, r6, lr}
    824c:	e1a04000 	mov	r4, r0
    8250:	e590500c 	ldr	r5, [r0, #12]
    8254:	e3a03000 	mov	r3, #0
    8258:	e580300c 	str	r3, [r0, #12]
    825c:	e3a01038 	mov	r1, #56	; 0x38
    8260:	eb0001d5 	bl	89bc <fast_hash>
    8264:	e584500c 	str	r5, [r4, #12]
    8268:	e8bd8070 	pop	{r4, r5, r6, pc}

0000826c <check_hdr>:
    826c:	e92d4070 	push	{r4, r5, r6, lr}
    8270:	e1a04000 	mov	r4, r0
    8274:	e5903008 	ldr	r3, [r0, #8]
    8278:	e243300b 	sub	r3, r3, #11
    827c:	e3530001 	cmp	r3, #1
    8280:	8a000003 	bhi	8294 <check_hdr+0x28>
    8284:	e590500c 	ldr	r5, [r0, #12]
    8288:	ebffffee 	bl	8248 <hdr_cksum>
    828c:	e1550000 	cmp	r5, r0
    8290:	0a000027 	beq	8334 <check_hdr+0xc8>
    8294:	e59f50a0 	ldr	r5, [pc, #160]	; 833c <check_hdr+0xd0>
    8298:	e1a00005 	mov	r0, r5
    829c:	eb000207 	bl	8ac0 <printk>
    82a0:	e59f0098 	ldr	r0, [pc, #152]	; 8340 <check_hdr+0xd4>
    82a4:	eb000205 	bl	8ac0 <printk>
    82a8:	e3a02000 	mov	r2, #0
    82ac:	e1a01004 	mov	r1, r4
    82b0:	e59f008c 	ldr	r0, [pc, #140]	; 8344 <check_hdr+0xd8>
    82b4:	eb000201 	bl	8ac0 <printk>
    82b8:	e1a00005 	mov	r0, r5
    82bc:	eb0001ff 	bl	8ac0 <printk>
    82c0:	e5941000 	ldr	r1, [r4]
    82c4:	e59f007c 	ldr	r0, [pc, #124]	; 8348 <check_hdr+0xdc>
    82c8:	eb0001fc 	bl	8ac0 <printk>
    82cc:	e5943010 	ldr	r3, [r4, #16]
    82d0:	e3530000 	cmp	r3, #0
    82d4:	0a000006 	beq	82f4 <check_hdr+0x88>
    82d8:	e1a00005 	mov	r0, r5
    82dc:	eb0001f7 	bl	8ac0 <printk>
    82e0:	e5943018 	ldr	r3, [r4, #24]
    82e4:	e5942014 	ldr	r2, [r4, #20]
    82e8:	e5941010 	ldr	r1, [r4, #16]
    82ec:	e59f0058 	ldr	r0, [pc, #88]	; 834c <check_hdr+0xe0>
    82f0:	eb0001f2 	bl	8ac0 <printk>
    82f4:	e5943008 	ldr	r3, [r4, #8]
    82f8:	e353000c 	cmp	r3, #12
    82fc:	0a000001 	beq	8308 <check_hdr+0x9c>
    8300:	e3a00000 	mov	r0, #0
    8304:	e8bd8070 	pop	{r4, r5, r6, pc}
    8308:	e594301c 	ldr	r3, [r4, #28]
    830c:	e3530000 	cmp	r3, #0
    8310:	0afffffa 	beq	8300 <check_hdr+0x94>
    8314:	e59f0020 	ldr	r0, [pc, #32]	; 833c <check_hdr+0xd0>
    8318:	eb0001e8 	bl	8ac0 <printk>
    831c:	e5943024 	ldr	r3, [r4, #36]	; 0x24
    8320:	e5942020 	ldr	r2, [r4, #32]
    8324:	e594101c 	ldr	r1, [r4, #28]
    8328:	e59f0020 	ldr	r0, [pc, #32]	; 8350 <check_hdr+0xe4>
    832c:	eb0001e3 	bl	8ac0 <printk>
    8330:	eafffff2 	b	8300 <check_hdr+0x94>
    8334:	e3a00001 	mov	r0, #1
    8338:	e8bd8070 	pop	{r4, r5, r6, pc}
    833c:	000096b8 			; <UNDEFINED> instruction: 0x000096b8
    8340:	0000971c 	andeq	r9, r0, ip, lsl r7
    8344:	00009724 	andeq	r9, r0, r4, lsr #14
    8348:	00009748 	andeq	r9, r0, r8, asr #14
    834c:	00009754 	andeq	r9, r0, r4, asr r7
    8350:	00009774 	andeq	r9, r0, r4, ror r7

00008354 <check_mem>:
    8354:	e92d41f0 	push	{r4, r5, r6, r7, r8, lr}
    8358:	e1a05000 	mov	r5, r0
    835c:	e1a06002 	mov	r6, r2
    8360:	e3a04000 	mov	r4, #0
    8364:	e1540001 	cmp	r4, r1
    8368:	2a000030 	bcs	8430 <check_mem+0xdc>
    836c:	e7d53004 	ldrb	r3, [r5, r4]
    8370:	e35300fe 	cmp	r3, #254	; 0xfe
    8374:	02844001 	addeq	r4, r4, #1
    8378:	0afffff9 	beq	8364 <check_mem+0x10>
    837c:	e1a00006 	mov	r0, r6
    8380:	ebffff59 	bl	80ec <b_alloc_ptr>
    8384:	e0450000 	sub	r0, r5, r0
    8388:	e0804004 	add	r4, r0, r4
    838c:	e59f70a4 	ldr	r7, [pc, #164]	; 8438 <check_mem+0xe4>
    8390:	e1a00007 	mov	r0, r7
    8394:	eb0001c9 	bl	8ac0 <printk>
    8398:	e59f009c 	ldr	r0, [pc, #156]	; 843c <check_mem+0xe8>
    839c:	eb0001c7 	bl	8ac0 <printk>
    83a0:	e5961000 	ldr	r1, [r6]
    83a4:	e1a02004 	mov	r2, r4
    83a8:	e0451001 	sub	r1, r5, r1
    83ac:	e59f008c 	ldr	r0, [pc, #140]	; 8440 <check_mem+0xec>
    83b0:	eb0001c2 	bl	8ac0 <printk>
    83b4:	e1a00007 	mov	r0, r7
    83b8:	eb0001c0 	bl	8ac0 <printk>
    83bc:	e5961000 	ldr	r1, [r6]
    83c0:	e59f007c 	ldr	r0, [pc, #124]	; 8444 <check_mem+0xf0>
    83c4:	eb0001bd 	bl	8ac0 <printk>
    83c8:	e5963010 	ldr	r3, [r6, #16]
    83cc:	e3530000 	cmp	r3, #0
    83d0:	0a000006 	beq	83f0 <check_mem+0x9c>
    83d4:	e1a00007 	mov	r0, r7
    83d8:	eb0001b8 	bl	8ac0 <printk>
    83dc:	e5963018 	ldr	r3, [r6, #24]
    83e0:	e5962014 	ldr	r2, [r6, #20]
    83e4:	e5961010 	ldr	r1, [r6, #16]
    83e8:	e59f0058 	ldr	r0, [pc, #88]	; 8448 <check_mem+0xf4>
    83ec:	eb0001b3 	bl	8ac0 <printk>
    83f0:	e5963008 	ldr	r3, [r6, #8]
    83f4:	e353000c 	cmp	r3, #12
    83f8:	0a000001 	beq	8404 <check_mem+0xb0>
    83fc:	e3a00000 	mov	r0, #0
    8400:	e8bd81f0 	pop	{r4, r5, r6, r7, r8, pc}
    8404:	e596301c 	ldr	r3, [r6, #28]
    8408:	e3530000 	cmp	r3, #0
    840c:	0afffffa 	beq	83fc <check_mem+0xa8>
    8410:	e59f0020 	ldr	r0, [pc, #32]	; 8438 <check_mem+0xe4>
    8414:	eb0001a9 	bl	8ac0 <printk>
    8418:	e5963024 	ldr	r3, [r6, #36]	; 0x24
    841c:	e5962020 	ldr	r2, [r6, #32]
    8420:	e596101c 	ldr	r1, [r6, #28]
    8424:	e59f0020 	ldr	r0, [pc, #32]	; 844c <check_mem+0xf8>
    8428:	eb0001a4 	bl	8ac0 <printk>
    842c:	eafffff2 	b	83fc <check_mem+0xa8>
    8430:	e3a00001 	mov	r0, #1
    8434:	e8bd81f0 	pop	{r4, r5, r6, r7, r8, pc}
    8438:	000096b8 			; <UNDEFINED> instruction: 0x000096b8
    843c:	0000971c 	andeq	r9, r0, ip, lsl r7
    8440:	00009724 	andeq	r9, r0, r4, lsr #14
    8444:	00009748 	andeq	r9, r0, r8, asr #14
    8448:	00009754 	andeq	r9, r0, r4, asr r7
    844c:	00009774 	andeq	r9, r0, r4, ror r7

00008450 <check_block>:
    8450:	e92d4070 	push	{r4, r5, r6, lr}
    8454:	e1a04000 	mov	r4, r0
    8458:	ebffff83 	bl	826c <check_hdr>
    845c:	e3500000 	cmp	r0, #0
    8460:	08bd8070 	popeq	{r4, r5, r6, pc}
    8464:	e1a00004 	mov	r0, r4
    8468:	ebffff1d 	bl	80e4 <b_rz1_ptr>
    846c:	e1a02004 	mov	r2, r4
    8470:	e3a01080 	mov	r1, #128	; 0x80
    8474:	ebffffb6 	bl	8354 <check_mem>
    8478:	e3500000 	cmp	r0, #0
    847c:	08bd8070 	popeq	{r4, r5, r6, pc}
    8480:	e1a00004 	mov	r0, r4
    8484:	ebffff1c 	bl	80fc <b_rz2_ptr>
    8488:	e1a05000 	mov	r5, r0
    848c:	e1a00004 	mov	r0, r4
    8490:	ebffff1f 	bl	8114 <b_rz2_nbytes>
    8494:	e1a01000 	mov	r1, r0
    8498:	e1a02004 	mov	r2, r4
    849c:	e1a00005 	mov	r0, r5
    84a0:	ebffffab 	bl	8354 <check_mem>
    84a4:	e3500000 	cmp	r0, #0
    84a8:	08bd8070 	popeq	{r4, r5, r6, pc}
    84ac:	e3a00001 	mov	r0, #1
    84b0:	e8bd8070 	pop	{r4, r5, r6, pc}

000084b4 <ck_init>:
    84b4:	e92d4070 	push	{r4, r5, r6, lr}
    84b8:	e59f3054 	ldr	r3, [pc, #84]	; 8514 <ck_init+0x60>
    84bc:	e5933000 	ldr	r3, [r3]
    84c0:	e3130007 	tst	r3, #7
    84c4:	1a00000b 	bne	84f8 <ck_init+0x44>
    84c8:	e1a04000 	mov	r4, r0
    84cc:	e1a05001 	mov	r5, r1
    84d0:	e3a02080 	mov	r2, #128	; 0x80
    84d4:	e3a01038 	mov	r1, #56	; 0x38
    84d8:	e59f0038 	ldr	r0, [pc, #56]	; 8518 <ck_init+0x64>
    84dc:	eb000177 	bl	8ac0 <printk>
    84e0:	e59f302c 	ldr	r3, [pc, #44]	; 8514 <ck_init+0x60>
    84e4:	e5834000 	str	r4, [r3]
    84e8:	e5834004 	str	r4, [r3, #4]
    84ec:	e0844005 	add	r4, r4, r5
    84f0:	e5834008 	str	r4, [r3, #8]
    84f4:	e8bd8070 	pop	{r4, r5, r6, pc}
    84f8:	eb00018b 	bl	8b2c <rpi_reset_putc>
    84fc:	e3a0300a 	mov	r3, #10
    8500:	e59f2014 	ldr	r2, [pc, #20]	; 851c <ck_init+0x68>
    8504:	e59f1014 	ldr	r1, [pc, #20]	; 8520 <ck_init+0x6c>
    8508:	e59f0014 	ldr	r0, [pc, #20]	; 8524 <ck_init+0x70>
    850c:	eb00016b 	bl	8ac0 <printk>
    8510:	eb0002e4 	bl	90a8 <clean_reboot>
    8514:	00009c50 	andeq	r9, r0, r0, asr ip
    8518:	000097e0 	andeq	r9, r0, r0, ror #15
    851c:	00009a08 	andeq	r9, r0, r8, lsl #20
    8520:	000097ac 	andeq	r9, r0, ip, lsr #15
    8524:	000097b8 			; <UNDEFINED> instruction: 0x000097b8

00008528 <ckfree>:
    8528:	e92d41f0 	push	{r4, r5, r6, r7, r8, lr}
    852c:	e1a05000 	mov	r5, r0
    8530:	e1a07001 	mov	r7, r1
    8534:	e1a06002 	mov	r6, r2
    8538:	e1a08003 	mov	r8, r3
    853c:	ebfffef7 	bl	8120 <b_addr_to_hdr>
    8540:	e59fc080 	ldr	ip, [pc, #128]	; 85c8 <ckfree+0xa0>
    8544:	e59cc004 	ldr	ip, [ip, #4]
    8548:	e35c0000 	cmp	ip, #0
    854c:	0a000016 	beq	85ac <ckfree+0x84>
    8550:	e1a04000 	mov	r4, r0
    8554:	e59f0070 	ldr	r0, [pc, #112]	; 85cc <ckfree+0xa4>
    8558:	eb000158 	bl	8ac0 <printk>
    855c:	e1a01005 	mov	r1, r5
    8560:	e59f0068 	ldr	r0, [pc, #104]	; 85d0 <ckfree+0xa8>
    8564:	eb000155 	bl	8ac0 <printk>
    8568:	e1a00004 	mov	r0, r4
    856c:	ebffffb7 	bl	8450 <check_block>
    8570:	e3500000 	cmp	r0, #0
    8574:	08bd81f0 	popeq	{r4, r5, r6, r7, r8, pc}
    8578:	e584701c 	str	r7, [r4, #28]
    857c:	e5846020 	str	r6, [r4, #32]
    8580:	e5848024 	str	r8, [r4, #36]	; 0x24
    8584:	e3a0300c 	mov	r3, #12
    8588:	e5843008 	str	r3, [r4, #8]
    858c:	e1a00004 	mov	r0, r4
    8590:	ebfffed5 	bl	80ec <b_alloc_ptr>
    8594:	e5941000 	ldr	r1, [r4]
    8598:	ebffff25 	bl	8234 <mark_mem>
    859c:	e1a00004 	mov	r0, r4
    85a0:	ebffff28 	bl	8248 <hdr_cksum>
    85a4:	e584000c 	str	r0, [r4, #12]
    85a8:	e8bd81f0 	pop	{r4, r5, r6, r7, r8, pc}
    85ac:	eb00015e 	bl	8b2c <rpi_reset_putc>
    85b0:	e3a03074 	mov	r3, #116	; 0x74
    85b4:	e59f2018 	ldr	r2, [pc, #24]	; 85d4 <ckfree+0xac>
    85b8:	e59f1018 	ldr	r1, [pc, #24]	; 85d8 <ckfree+0xb0>
    85bc:	e59f0018 	ldr	r0, [pc, #24]	; 85dc <ckfree+0xb4>
    85c0:	eb00013e 	bl	8ac0 <printk>
    85c4:	eb0002b7 	bl	90a8 <clean_reboot>
    85c8:	00009c50 	andeq	r9, r0, r0, asr ip
    85cc:	000096b8 			; <UNDEFINED> instruction: 0x000096b8
    85d0:	00009830 	andeq	r9, r0, r0, lsr r8
    85d4:	00009a10 	andeq	r9, r0, r0, lsl sl
    85d8:	000097ac 	andeq	r9, r0, ip, lsr #15
    85dc:	000097fc 	strdeq	r9, [r0], -ip

000085e0 <ckalloc>:
    85e0:	e92d43f0 	push	{r4, r5, r6, r7, r8, r9, lr}
    85e4:	e24dd00c 	sub	sp, sp, #12
    85e8:	e1a06003 	mov	r6, r3
    85ec:	e59f31d4 	ldr	r3, [pc, #468]	; 87c8 <ckalloc+0x1e8>
    85f0:	e5933004 	ldr	r3, [r3, #4]
    85f4:	e3530000 	cmp	r3, #0
    85f8:	0a000042 	beq	8708 <ckalloc+0x128>
    85fc:	e1a05000 	mov	r5, r0
    8600:	e1a08001 	mov	r8, r1
    8604:	e1a07002 	mov	r7, r2
    8608:	e59f01bc 	ldr	r0, [pc, #444]	; 87cc <ckalloc+0x1ec>
    860c:	eb00012b 	bl	8ac0 <printk>
    8610:	e1a01005 	mov	r1, r5
    8614:	e59f01b4 	ldr	r0, [pc, #436]	; 87d0 <ckalloc+0x1f0>
    8618:	eb000128 	bl	8ac0 <printk>
    861c:	e2850007 	add	r0, r5, #7
    8620:	e3c00007 	bic	r0, r0, #7
    8624:	e2809f4e 	add	r9, r0, #312	; 0x138
    8628:	e1550009 	cmp	r5, r9
    862c:	8a00003c 	bhi	8724 <ckalloc+0x144>
    8630:	e59f3190 	ldr	r3, [pc, #400]	; 87c8 <ckalloc+0x1e8>
    8634:	e5934004 	ldr	r4, [r3, #4]
    8638:	e0842009 	add	r2, r4, r9
    863c:	e5933008 	ldr	r3, [r3, #8]
    8640:	e1520003 	cmp	r2, r3
    8644:	2a000043 	bcs	8758 <ckalloc+0x178>
    8648:	e5845000 	str	r5, [r4]
    864c:	e0400005 	sub	r0, r0, r5
    8650:	e5840004 	str	r0, [r4, #4]
    8654:	e3a0300b 	mov	r3, #11
    8658:	e5843008 	str	r3, [r4, #8]
    865c:	e5848010 	str	r8, [r4, #16]
    8660:	e5847014 	str	r7, [r4, #20]
    8664:	e5846018 	str	r6, [r4, #24]
    8668:	e3a03001 	mov	r3, #1
    866c:	e5843028 	str	r3, [r4, #40]	; 0x28
    8670:	e3a03000 	mov	r3, #0
    8674:	e584302c 	str	r3, [r4, #44]	; 0x2c
    8678:	e1a00004 	mov	r0, r4
    867c:	ebfffe98 	bl	80e4 <b_rz1_ptr>
    8680:	e3a01080 	mov	r1, #128	; 0x80
    8684:	ebfffeea 	bl	8234 <mark_mem>
    8688:	e1a00004 	mov	r0, r4
    868c:	ebfffe9a 	bl	80fc <b_rz2_ptr>
    8690:	e1a06000 	mov	r6, r0
    8694:	e1a00004 	mov	r0, r4
    8698:	ebfffe9d 	bl	8114 <b_rz2_nbytes>
    869c:	e1a01000 	mov	r1, r0
    86a0:	e1a00006 	mov	r0, r6
    86a4:	ebfffee2 	bl	8234 <mark_mem>
    86a8:	e1a00004 	mov	r0, r4
    86ac:	ebfffee5 	bl	8248 <hdr_cksum>
    86b0:	e584000c 	str	r0, [r4, #12]
    86b4:	e59f210c 	ldr	r2, [pc, #268]	; 87c8 <ckalloc+0x1e8>
    86b8:	e5923004 	ldr	r3, [r2, #4]
    86bc:	e0833009 	add	r3, r3, r9
    86c0:	e5823004 	str	r3, [r2, #4]
    86c4:	e1a00004 	mov	r0, r4
    86c8:	ebffff60 	bl	8450 <check_block>
    86cc:	e3500000 	cmp	r0, #0
    86d0:	0a000035 	beq	87ac <ckalloc+0x1cc>
    86d4:	e1a00004 	mov	r0, r4
    86d8:	ebfffe83 	bl	80ec <b_alloc_ptr>
    86dc:	e1a04000 	mov	r4, r0
    86e0:	e59f00e4 	ldr	r0, [pc, #228]	; 87cc <ckalloc+0x1ec>
    86e4:	eb0000f5 	bl	8ac0 <printk>
    86e8:	e1a03004 	mov	r3, r4
    86ec:	e1a02009 	mov	r2, r9
    86f0:	e1a01005 	mov	r1, r5
    86f4:	e59f00d8 	ldr	r0, [pc, #216]	; 87d4 <ckalloc+0x1f4>
    86f8:	eb0000f0 	bl	8ac0 <printk>
    86fc:	e1a00004 	mov	r0, r4
    8700:	e28dd00c 	add	sp, sp, #12
    8704:	e8bd83f0 	pop	{r4, r5, r6, r7, r8, r9, pc}
    8708:	eb000107 	bl	8b2c <rpi_reset_putc>
    870c:	e3a03087 	mov	r3, #135	; 0x87
    8710:	e59f20c0 	ldr	r2, [pc, #192]	; 87d8 <ckalloc+0x1f8>
    8714:	e59f10c0 	ldr	r1, [pc, #192]	; 87dc <ckalloc+0x1fc>
    8718:	e59f00c0 	ldr	r0, [pc, #192]	; 87e0 <ckalloc+0x200>
    871c:	eb0000e7 	bl	8ac0 <printk>
    8720:	eb000260 	bl	90a8 <clean_reboot>
    8724:	e59f00b8 	ldr	r0, [pc, #184]	; 87e4 <ckalloc+0x204>
    8728:	eb0000e4 	bl	8ac0 <printk>
    872c:	e1a01005 	mov	r1, r5
    8730:	e59f00b0 	ldr	r0, [pc, #176]	; 87e8 <ckalloc+0x208>
    8734:	eb0000e1 	bl	8ac0 <printk>
    8738:	eb0000fb 	bl	8b2c <rpi_reset_putc>
    873c:	e58d5000 	str	r5, [sp]
    8740:	e3a0308f 	mov	r3, #143	; 0x8f
    8744:	e59f208c 	ldr	r2, [pc, #140]	; 87d8 <ckalloc+0x1f8>
    8748:	e59f108c 	ldr	r1, [pc, #140]	; 87dc <ckalloc+0x1fc>
    874c:	e59f0098 	ldr	r0, [pc, #152]	; 87ec <ckalloc+0x20c>
    8750:	eb0000da 	bl	8ac0 <printk>
    8754:	eb000253 	bl	90a8 <clean_reboot>
    8758:	e59f0084 	ldr	r0, [pc, #132]	; 87e4 <ckalloc+0x204>
    875c:	eb0000d7 	bl	8ac0 <printk>
    8760:	e59f4060 	ldr	r4, [pc, #96]	; 87c8 <ckalloc+0x1e8>
    8764:	e5941008 	ldr	r1, [r4, #8]
    8768:	e5943004 	ldr	r3, [r4, #4]
    876c:	e1a02009 	mov	r2, r9
    8770:	e0411003 	sub	r1, r1, r3
    8774:	e59f0074 	ldr	r0, [pc, #116]	; 87f0 <ckalloc+0x210>
    8778:	eb0000d0 	bl	8ac0 <printk>
    877c:	eb0000ea 	bl	8b2c <rpi_reset_putc>
    8780:	e58d9004 	str	r9, [sp, #4]
    8784:	e5943008 	ldr	r3, [r4, #8]
    8788:	e5942004 	ldr	r2, [r4, #4]
    878c:	e0433002 	sub	r3, r3, r2
    8790:	e58d3000 	str	r3, [sp]
    8794:	e3a03092 	mov	r3, #146	; 0x92
    8798:	e59f2038 	ldr	r2, [pc, #56]	; 87d8 <ckalloc+0x1f8>
    879c:	e59f1038 	ldr	r1, [pc, #56]	; 87dc <ckalloc+0x1fc>
    87a0:	e59f004c 	ldr	r0, [pc, #76]	; 87f4 <ckalloc+0x214>
    87a4:	eb0000c5 	bl	8ac0 <printk>
    87a8:	eb00023e 	bl	90a8 <clean_reboot>
    87ac:	eb0000de 	bl	8b2c <rpi_reset_putc>
    87b0:	e3a030a1 	mov	r3, #161	; 0xa1
    87b4:	e59f201c 	ldr	r2, [pc, #28]	; 87d8 <ckalloc+0x1f8>
    87b8:	e59f101c 	ldr	r1, [pc, #28]	; 87dc <ckalloc+0x1fc>
    87bc:	e59f0034 	ldr	r0, [pc, #52]	; 87f8 <ckalloc+0x218>
    87c0:	eb0000be 	bl	8ac0 <printk>
    87c4:	eb000237 	bl	90a8 <clean_reboot>
    87c8:	00009c50 	andeq	r9, r0, r0, asr ip
    87cc:	000096b8 			; <UNDEFINED> instruction: 0x000096b8
    87d0:	0000983c 	andeq	r9, r0, ip, lsr r8
    87d4:	00009948 	andeq	r9, r0, r8, asr #18
    87d8:	00009a18 	andeq	r9, r0, r8, lsl sl
    87dc:	000097ac 	andeq	r9, r0, ip, lsr #15
    87e0:	000097fc 	strdeq	r9, [r0], -ip
    87e4:	00009854 	andeq	r9, r0, r4, asr r8
    87e8:	00009860 	andeq	r9, r0, r0, ror #16
    87ec:	00009888 	andeq	r9, r0, r8, lsl #17
    87f0:	000098c0 	andeq	r9, r0, r0, asr #17
    87f4:	000098ec 	andeq	r9, r0, ip, ror #17
    87f8:	00009928 	andeq	r9, r0, r8, lsr #18

000087fc <ck_first_hdr>:
    87fc:	e92d4010 	push	{r4, lr}
    8800:	e59f3020 	ldr	r3, [pc, #32]	; 8828 <ck_first_hdr+0x2c>
    8804:	e5934000 	ldr	r4, [r3]
    8808:	e1a00004 	mov	r0, r4
    880c:	ebfffe96 	bl	826c <check_hdr>
    8810:	e3500000 	cmp	r0, #0
    8814:	0a000001 	beq	8820 <ck_first_hdr+0x24>
    8818:	e1a00004 	mov	r0, r4
    881c:	e8bd8010 	pop	{r4, pc}
    8820:	e3a04000 	mov	r4, #0
    8824:	eafffffb 	b	8818 <ck_first_hdr+0x1c>
    8828:	00009c50 	andeq	r9, r0, r0, asr ip

0000882c <ck_next_hdr>:
    882c:	e92d4010 	push	{r4, lr}
    8830:	e5904000 	ldr	r4, [r0]
    8834:	e5903004 	ldr	r3, [r0, #4]
    8838:	e0844003 	add	r4, r4, r3
    883c:	e2844f4e 	add	r4, r4, #312	; 0x138
    8840:	e0804004 	add	r4, r0, r4
    8844:	e59f3028 	ldr	r3, [pc, #40]	; 8874 <ck_next_hdr+0x48>
    8848:	e5933004 	ldr	r3, [r3, #4]
    884c:	e1530004 	cmp	r3, r4
    8850:	9a000004 	bls	8868 <ck_next_hdr+0x3c>
    8854:	e1a00004 	mov	r0, r4
    8858:	ebfffe83 	bl	826c <check_hdr>
    885c:	e3500000 	cmp	r0, #0
    8860:	03a04000 	moveq	r4, #0
    8864:	ea000000 	b	886c <ck_next_hdr+0x40>
    8868:	e3a04000 	mov	r4, #0
    886c:	e1a00004 	mov	r0, r4
    8870:	e8bd8010 	pop	{r4, pc}
    8874:	00009c50 	andeq	r9, r0, r0, asr ip

00008878 <ck_heap_errors>:
    8878:	e92d41f0 	push	{r4, r5, r6, r7, r8, lr}
    887c:	e59f3124 	ldr	r3, [pc, #292]	; 89a8 <ck_heap_errors+0x130>
    8880:	e5932004 	ldr	r2, [r3, #4]
    8884:	e5934000 	ldr	r4, [r3]
    8888:	e0424004 	sub	r4, r2, r4
    888c:	e5935008 	ldr	r5, [r3, #8]
    8890:	e0455002 	sub	r5, r5, r2
    8894:	e59f0110 	ldr	r0, [pc, #272]	; 89ac <ck_heap_errors+0x134>
    8898:	eb000088 	bl	8ac0 <printk>
    889c:	e1a02005 	mov	r2, r5
    88a0:	e1a01004 	mov	r1, r4
    88a4:	e59f0104 	ldr	r0, [pc, #260]	; 89b0 <ck_heap_errors+0x138>
    88a8:	eb000084 	bl	8ac0 <printk>
    88ac:	ebffffd2 	bl	87fc <ck_first_hdr>
    88b0:	e1a04000 	mov	r4, r0
    88b4:	e3a05000 	mov	r5, #0
    88b8:	e1a06005 	mov	r6, r5
    88bc:	ea000010 	b	8904 <ck_heap_errors+0x8c>
    88c0:	e2866001 	add	r6, r6, #1
    88c4:	e2855001 	add	r5, r5, #1
    88c8:	e3560000 	cmp	r6, #0
    88cc:	0a00002f 	beq	8990 <ck_heap_errors+0x118>
    88d0:	e59f00d4 	ldr	r0, [pc, #212]	; 89ac <ck_heap_errors+0x134>
    88d4:	eb000079 	bl	8ac0 <printk>
    88d8:	e1a02006 	mov	r2, r6
    88dc:	e1a01005 	mov	r1, r5
    88e0:	e59f00cc 	ldr	r0, [pc, #204]	; 89b4 <ck_heap_errors+0x13c>
    88e4:	eb000075 	bl	8ac0 <printk>
    88e8:	e1a00006 	mov	r0, r6
    88ec:	e8bd81f0 	pop	{r4, r5, r6, r7, r8, pc}
    88f0:	e2866001 	add	r6, r6, #1
    88f4:	e2855001 	add	r5, r5, #1
    88f8:	e1a00004 	mov	r0, r4
    88fc:	ebffffca 	bl	882c <ck_next_hdr>
    8900:	e1a04000 	mov	r4, r0
    8904:	e3540000 	cmp	r4, #0
    8908:	0affffee 	beq	88c8 <ck_heap_errors+0x50>
    890c:	e1a00004 	mov	r0, r4
    8910:	ebfffe55 	bl	826c <check_hdr>
    8914:	e3500000 	cmp	r0, #0
    8918:	0affffe8 	beq	88c0 <ck_heap_errors+0x48>
    891c:	e1a00004 	mov	r0, r4
    8920:	ebfffdef 	bl	80e4 <b_rz1_ptr>
    8924:	e1a02004 	mov	r2, r4
    8928:	e3a01080 	mov	r1, #128	; 0x80
    892c:	ebfffe88 	bl	8354 <check_mem>
    8930:	e3500000 	cmp	r0, #0
    8934:	0affffed 	beq	88f0 <ck_heap_errors+0x78>
    8938:	e1a00004 	mov	r0, r4
    893c:	ebfffdee 	bl	80fc <b_rz2_ptr>
    8940:	e1a07000 	mov	r7, r0
    8944:	e1a00004 	mov	r0, r4
    8948:	ebfffdf1 	bl	8114 <b_rz2_nbytes>
    894c:	e1a01000 	mov	r1, r0
    8950:	e1a02004 	mov	r2, r4
    8954:	e1a00007 	mov	r0, r7
    8958:	ebfffe7d 	bl	8354 <check_mem>
    895c:	e3500000 	cmp	r0, #0
    8960:	0affffe2 	beq	88f0 <ck_heap_errors+0x78>
    8964:	e5943008 	ldr	r3, [r4, #8]
    8968:	e353000c 	cmp	r3, #12
    896c:	1affffe0 	bne	88f4 <ck_heap_errors+0x7c>
    8970:	e1a00004 	mov	r0, r4
    8974:	ebfffddc 	bl	80ec <b_alloc_ptr>
    8978:	e1a02004 	mov	r2, r4
    897c:	e5941000 	ldr	r1, [r4]
    8980:	ebfffde8 	bl	8128 <check_free_write>
    8984:	e3500000 	cmp	r0, #0
    8988:	02866001 	addeq	r6, r6, #1
    898c:	eaffffd8 	b	88f4 <ck_heap_errors+0x7c>
    8990:	e59f0014 	ldr	r0, [pc, #20]	; 89ac <ck_heap_errors+0x134>
    8994:	eb000049 	bl	8ac0 <printk>
    8998:	e1a01005 	mov	r1, r5
    899c:	e59f0014 	ldr	r0, [pc, #20]	; 89b8 <ck_heap_errors+0x140>
    89a0:	eb000046 	bl	8ac0 <printk>
    89a4:	eaffffcf 	b	88e8 <ck_heap_errors+0x70>
    89a8:	00009c50 	andeq	r9, r0, r0, asr ip
    89ac:	000096b8 			; <UNDEFINED> instruction: 0x000096b8
    89b0:	00009978 	andeq	r9, r0, r8, ror r9
    89b4:	000099b0 			; <UNDEFINED> instruction: 0x000099b0
    89b8:	000099d8 	ldrdeq	r9, [r0], -r8

000089bc <fast_hash>:
    89bc:	e3500000 	cmp	r0, #0
    89c0:	13510000 	cmpne	r1, #0
    89c4:	da000035 	ble	8aa0 <fast_hash+0xe4>
    89c8:	e52de004 	push	{lr}		; (str lr, [sp, #-4]!)
    89cc:	e1a03001 	mov	r3, r1
    89d0:	e1a0c000 	mov	ip, r0
    89d4:	e201e003 	and	lr, r1, #3
    89d8:	e1a01141 	asr	r1, r1, #2
    89dc:	e3510000 	cmp	r1, #0
    89e0:	da00000c 	ble	8a18 <fast_hash+0x5c>
    89e4:	e5dc0001 	ldrb	r0, [ip, #1]
    89e8:	e5dc2000 	ldrb	r2, [ip]
    89ec:	e0822400 	add	r2, r2, r0, lsl #8
    89f0:	e0822003 	add	r2, r2, r3
    89f4:	e5dc0003 	ldrb	r0, [ip, #3]
    89f8:	e5dc3002 	ldrb	r3, [ip, #2]
    89fc:	e0833400 	add	r3, r3, r0, lsl #8
    8a00:	e0223583 	eor	r3, r2, r3, lsl #11
    8a04:	e0233802 	eor	r3, r3, r2, lsl #16
    8a08:	e28cc004 	add	ip, ip, #4
    8a0c:	e08335a3 	add	r3, r3, r3, lsr #11
    8a10:	e2411001 	sub	r1, r1, #1
    8a14:	eafffff0 	b	89dc <fast_hash+0x20>
    8a18:	e35e0002 	cmp	lr, #2
    8a1c:	0a000013 	beq	8a70 <fast_hash+0xb4>
    8a20:	e35e0003 	cmp	lr, #3
    8a24:	0a000008 	beq	8a4c <fast_hash+0x90>
    8a28:	e35e0001 	cmp	lr, #1
    8a2c:	0a000016 	beq	8a8c <fast_hash+0xd0>
    8a30:	e0230183 	eor	r0, r3, r3, lsl #3
    8a34:	e08002a0 	add	r0, r0, r0, lsr #5
    8a38:	e0200200 	eor	r0, r0, r0, lsl #4
    8a3c:	e08008a0 	add	r0, r0, r0, lsr #17
    8a40:	e0200c80 	eor	r0, r0, r0, lsl #25
    8a44:	e0800320 	add	r0, r0, r0, lsr #6
    8a48:	e49df004 	pop	{pc}		; (ldr pc, [sp], #4)
    8a4c:	e5dc1001 	ldrb	r1, [ip, #1]
    8a50:	e5dc2000 	ldrb	r2, [ip]
    8a54:	e0822401 	add	r2, r2, r1, lsl #8
    8a58:	e0823003 	add	r3, r2, r3
    8a5c:	e0233803 	eor	r3, r3, r3, lsl #16
    8a60:	e1dc20d2 	ldrsb	r2, [ip, #2]
    8a64:	e0233902 	eor	r3, r3, r2, lsl #18
    8a68:	e08335a3 	add	r3, r3, r3, lsr #11
    8a6c:	eaffffef 	b	8a30 <fast_hash+0x74>
    8a70:	e5dc1001 	ldrb	r1, [ip, #1]
    8a74:	e5dc2000 	ldrb	r2, [ip]
    8a78:	e0822401 	add	r2, r2, r1, lsl #8
    8a7c:	e0823003 	add	r3, r2, r3
    8a80:	e0233583 	eor	r3, r3, r3, lsl #11
    8a84:	e08338a3 	add	r3, r3, r3, lsr #17
    8a88:	eaffffe8 	b	8a30 <fast_hash+0x74>
    8a8c:	e1dc20d0 	ldrsb	r2, [ip]
    8a90:	e0823003 	add	r3, r2, r3
    8a94:	e0233503 	eor	r3, r3, r3, lsl #10
    8a98:	e08330a3 	add	r3, r3, r3, lsr #1
    8a9c:	eaffffe3 	b	8a30 <fast_hash+0x74>
    8aa0:	e3a00000 	mov	r0, #0
    8aa4:	e12fff1e 	bx	lr

00008aa8 <memset>:
    8aa8:	e0802002 	add	r2, r0, r2
    8aac:	e1a03000 	mov	r3, r0
    8ab0:	e1530002 	cmp	r3, r2
    8ab4:	212fff1e 	bxcs	lr
    8ab8:	e4c31001 	strb	r1, [r3], #1
    8abc:	eafffffb 	b	8ab0 <memset+0x8>

00008ac0 <printk>:
    8ac0:	e92d000f 	push	{r0, r1, r2, r3}
    8ac4:	e92d4030 	push	{r4, r5, lr}
    8ac8:	e24dd00c 	sub	sp, sp, #12
    8acc:	e28d301c 	add	r3, sp, #28
    8ad0:	e58d3004 	str	r3, [sp, #4]
    8ad4:	e59f5034 	ldr	r5, [pc, #52]	; 8b10 <printk+0x50>
    8ad8:	e59d2018 	ldr	r2, [sp, #24]
    8adc:	e3a01b01 	mov	r1, #1024	; 0x400
    8ae0:	e1a00005 	mov	r0, r5
    8ae4:	eb0000c3 	bl	8df8 <va_printk>
    8ae8:	e1a04000 	mov	r4, r0
    8aec:	e59f3020 	ldr	r3, [pc, #32]	; 8b14 <printk+0x54>
    8af0:	e5933000 	ldr	r3, [r3]
    8af4:	e1a00005 	mov	r0, r5
    8af8:	e12fff33 	blx	r3
    8afc:	e1a00004 	mov	r0, r4
    8b00:	e28dd00c 	add	sp, sp, #12
    8b04:	e8bd4030 	pop	{r4, r5, lr}
    8b08:	e28dd010 	add	sp, sp, #16
    8b0c:	e12fff1e 	bx	lr
    8b10:	00009c5c 	andeq	r9, r0, ip, asr ip
    8b14:	00009694 	muleq	r0, r4, r6

00008b18 <internal_putchar>:
    8b18:	e92d4010 	push	{r4, lr}
    8b1c:	e1a04000 	mov	r4, r0
    8b20:	eb000217 	bl	9384 <uart_putc>
    8b24:	e1a00004 	mov	r0, r4
    8b28:	e8bd8010 	pop	{r4, pc}

00008b2c <rpi_reset_putc>:
    8b2c:	e59f3008 	ldr	r3, [pc, #8]	; 8b3c <rpi_reset_putc+0x10>
    8b30:	e59f2008 	ldr	r2, [pc, #8]	; 8b40 <rpi_reset_putc+0x14>
    8b34:	e5832000 	str	r2, [r3]
    8b38:	e12fff1e 	bx	lr
    8b3c:	00009690 	muleq	r0, r0, r6
    8b40:	00008b18 	andeq	r8, r0, r8, lsl fp

00008b44 <rpi_set_putc>:
    8b44:	e59f3004 	ldr	r3, [pc, #4]	; 8b50 <rpi_set_putc+0xc>
    8b48:	e5830000 	str	r0, [r3]
    8b4c:	e12fff1e 	bx	lr
    8b50:	00009690 	muleq	r0, r0, r6

00008b54 <internal_putk>:
    8b54:	e92d4010 	push	{r4, lr}
    8b58:	e1a04000 	mov	r4, r0
    8b5c:	e5d40000 	ldrb	r0, [r4]
    8b60:	e3500000 	cmp	r0, #0
    8b64:	0a000004 	beq	8b7c <internal_putk+0x28>
    8b68:	e59f3014 	ldr	r3, [pc, #20]	; 8b84 <internal_putk+0x30>
    8b6c:	e5933000 	ldr	r3, [r3]
    8b70:	e12fff33 	blx	r3
    8b74:	e2844001 	add	r4, r4, #1
    8b78:	eafffff7 	b	8b5c <internal_putk+0x8>
    8b7c:	e3a00001 	mov	r0, #1
    8b80:	e8bd8010 	pop	{r4, pc}
    8b84:	00009690 	muleq	r0, r0, r6

00008b88 <isdigit>:
    8b88:	e2400030 	sub	r0, r0, #48	; 0x30
    8b8c:	e3500009 	cmp	r0, #9
    8b90:	83a00000 	movhi	r0, #0
    8b94:	93a00001 	movls	r0, #1
    8b98:	e12fff1e 	bx	lr

00008b9c <pad>:
    8b9c:	e0401001 	sub	r1, r0, r1
    8ba0:	e1510002 	cmp	r1, r2
    8ba4:	b3a03020 	movlt	r3, #32
    8ba8:	b4c03001 	strblt	r3, [r0], #1
    8bac:	b2811001 	addlt	r1, r1, #1
    8bb0:	bafffffa 	blt	8ba0 <pad+0x4>
    8bb4:	e3a03000 	mov	r3, #0
    8bb8:	e5c03000 	strb	r3, [r0]
    8bbc:	e12fff1e 	bx	lr

00008bc0 <reverse>:
    8bc0:	e042c003 	sub	ip, r2, r3
    8bc4:	e28cc001 	add	ip, ip, #1
    8bc8:	e15c0001 	cmp	ip, r1
    8bcc:	c04cc001 	subgt	ip, ip, r1
    8bd0:	c083300c 	addgt	r3, r3, ip
    8bd4:	e2421001 	sub	r1, r2, #1
    8bd8:	e1a02000 	mov	r2, r0
    8bdc:	e1510003 	cmp	r1, r3
    8be0:	2451c001 	ldrbcs	ip, [r1], #-1
    8be4:	24c2c001 	strbcs	ip, [r2], #1
    8be8:	2afffffb 	bcs	8bdc <reverse+0x1c>
    8bec:	e3a03000 	mov	r3, #0
    8bf0:	e5c23000 	strb	r3, [r2]
    8bf4:	e12fff1e 	bx	lr

00008bf8 <emit>:
    8bf8:	e92d40f0 	push	{r4, r5, r6, r7, lr}
    8bfc:	e24dd044 	sub	sp, sp, #68	; 0x44
    8c00:	e1a05001 	mov	r5, r1
    8c04:	e1a04002 	mov	r4, r2
    8c08:	e59d2058 	ldr	r2, [sp, #88]	; 0x58
    8c0c:	e1520004 	cmp	r2, r4
    8c10:	c2442001 	subgt	r2, r4, #1
    8c14:	e1a0c003 	mov	ip, r3
    8c18:	e2400002 	sub	r0, r0, #2
    8c1c:	e350000e 	cmp	r0, #14
    8c20:	979ff100 	ldrls	pc, [pc, r0, lsl #2]
    8c24:	ea000050 	b	8d6c <emit+0x174>
    8c28:	00008d44 	andeq	r8, r0, r4, asr #26
    8c2c:	00008d6c 	andeq	r8, r0, ip, ror #26
    8c30:	00008d6c 	andeq	r8, r0, ip, ror #26
    8c34:	00008d6c 	andeq	r8, r0, ip, ror #26
    8c38:	00008d6c 	andeq	r8, r0, ip, ror #26
    8c3c:	00008d6c 	andeq	r8, r0, ip, ror #26
    8c40:	00008d38 	andeq	r8, r0, r8, lsr sp
    8c44:	00008d6c 	andeq	r8, r0, ip, ror #26
    8c48:	00008c64 	andeq	r8, r0, r4, ror #24
    8c4c:	00008d6c 	andeq	r8, r0, ip, ror #26
    8c50:	00008d6c 	andeq	r8, r0, ip, ror #26
    8c54:	00008d6c 	andeq	r8, r0, ip, ror #26
    8c58:	00008d6c 	andeq	r8, r0, ip, ror #26
    8c5c:	00008d6c 	andeq	r8, r0, ip, ror #26
    8c60:	00008cdc 	ldrdeq	r8, [r0], -ip
    8c64:	e59d105c 	ldr	r1, [sp, #92]	; 0x5c
    8c68:	e2511000 	subs	r1, r1, #0
    8c6c:	13a01001 	movne	r1, #1
    8c70:	e0111fa3 	ands	r1, r1, r3, lsr #31
    8c74:	0a000016 	beq	8cd4 <emit+0xdc>
    8c78:	e263c000 	rsb	ip, r3, #0
    8c7c:	e3a06001 	mov	r6, #1
    8c80:	e1a0000d 	mov	r0, sp
    8c84:	e59f30fc 	ldr	r3, [pc, #252]	; 8d88 <emit+0x190>
    8c88:	e0831c93 	umull	r1, r3, r3, ip
    8c8c:	e1a031a3 	lsr	r3, r3, #3
    8c90:	e1a0e003 	mov	lr, r3
    8c94:	e0833103 	add	r3, r3, r3, lsl #2
    8c98:	e04c3083 	sub	r3, ip, r3, lsl #1
    8c9c:	e1a01000 	mov	r1, r0
    8ca0:	e2800001 	add	r0, r0, #1
    8ca4:	e59f70e0 	ldr	r7, [pc, #224]	; 8d8c <emit+0x194>
    8ca8:	e7d73003 	ldrb	r3, [r7, r3]
    8cac:	e5c13000 	strb	r3, [r1]
    8cb0:	e1a0300c 	mov	r3, ip
    8cb4:	e1a0c00e 	mov	ip, lr
    8cb8:	e3530009 	cmp	r3, #9
    8cbc:	8afffff0 	bhi	8c84 <emit+0x8c>
    8cc0:	e3560000 	cmp	r6, #0
    8cc4:	13a0302d 	movne	r3, #45	; 0x2d
    8cc8:	15c03000 	strbne	r3, [r0]
    8ccc:	12810002 	addne	r0, r1, #2
    8cd0:	ea00000f 	b	8d14 <emit+0x11c>
    8cd4:	e3a06000 	mov	r6, #0
    8cd8:	eaffffe8 	b	8c80 <emit+0x88>
    8cdc:	e1a0100d 	mov	r1, sp
    8ce0:	e20c000f 	and	r0, ip, #15
    8ce4:	e59fe0a4 	ldr	lr, [pc, #164]	; 8d90 <emit+0x198>
    8ce8:	e7de0000 	ldrb	r0, [lr, r0]
    8cec:	e5c10000 	strb	r0, [r1]
    8cf0:	e2811001 	add	r1, r1, #1
    8cf4:	e35c000f 	cmp	ip, #15
    8cf8:	e1a0c22c 	lsr	ip, ip, #4
    8cfc:	8afffff7 	bhi	8ce0 <emit+0xe8>
    8d00:	e1a00001 	mov	r0, r1
    8d04:	e3a03078 	mov	r3, #120	; 0x78
    8d08:	e4c03002 	strb	r3, [r0], #2
    8d0c:	e3a03030 	mov	r3, #48	; 0x30
    8d10:	e5c13001 	strb	r3, [r1, #1]
    8d14:	e1a0100d 	mov	r1, sp
    8d18:	ebffff9f 	bl	8b9c <pad>
    8d1c:	e1a02000 	mov	r2, r0
    8d20:	e1a0300d 	mov	r3, sp
    8d24:	e1a01004 	mov	r1, r4
    8d28:	e1a00005 	mov	r0, r5
    8d2c:	ebffffa3 	bl	8bc0 <reverse>
    8d30:	e28dd044 	add	sp, sp, #68	; 0x44
    8d34:	e8bd80f0 	pop	{r4, r5, r6, r7, pc}
    8d38:	e5cd3000 	strb	r3, [sp]
    8d3c:	e28d0001 	add	r0, sp, #1
    8d40:	eafffff3 	b	8d14 <emit+0x11c>
    8d44:	e1a0000d 	mov	r0, sp
    8d48:	e20c1001 	and	r1, ip, #1
    8d4c:	e59fe040 	ldr	lr, [pc, #64]	; 8d94 <emit+0x19c>
    8d50:	e7de1001 	ldrb	r1, [lr, r1]
    8d54:	e5c01000 	strb	r1, [r0]
    8d58:	e2800001 	add	r0, r0, #1
    8d5c:	e35c0001 	cmp	ip, #1
    8d60:	e1a0c0ac 	lsr	ip, ip, #1
    8d64:	8afffff7 	bhi	8d48 <emit+0x150>
    8d68:	eaffffe9 	b	8d14 <emit+0x11c>
    8d6c:	ebffff6e 	bl	8b2c <rpi_reset_putc>
    8d70:	e3a03077 	mov	r3, #119	; 0x77
    8d74:	e59f201c 	ldr	r2, [pc, #28]	; 8d98 <emit+0x1a0>
    8d78:	e59f101c 	ldr	r1, [pc, #28]	; 8d9c <emit+0x1a4>
    8d7c:	e59f001c 	ldr	r0, [pc, #28]	; 8da0 <emit+0x1a8>
    8d80:	ebffff4e 	bl	8ac0 <printk>
    8d84:	eb0000c7 	bl	90a8 <clean_reboot>
    8d88:	cccccccd 	stclgt	12, cr12, [ip], {205}	; 0xcd
    8d8c:	00009a48 	andeq	r9, r0, r8, asr #20
    8d90:	00009a54 	andeq	r9, r0, r4, asr sl
    8d94:	00009a68 	andeq	r9, r0, r8, ror #20
    8d98:	00009b00 	andeq	r9, r0, r0, lsl #22
    8d9c:	00009a20 	andeq	r9, r0, r0, lsr #20
    8da0:	00009a34 	andeq	r9, r0, r4, lsr sl

00008da4 <rpi_set_output>:
    8da4:	e3500000 	cmp	r0, #0
    8da8:	0a000005 	beq	8dc4 <rpi_set_output+0x20>
    8dac:	e59f3030 	ldr	r3, [pc, #48]	; 8de4 <rpi_set_output+0x40>
    8db0:	e5830000 	str	r0, [r3]
    8db4:	e3510000 	cmp	r1, #0
    8db8:	159f3028 	ldrne	r3, [pc, #40]	; 8de8 <rpi_set_output+0x44>
    8dbc:	15831000 	strne	r1, [r3]
    8dc0:	e12fff1e 	bx	lr
    8dc4:	e92d4010 	push	{r4, lr}
    8dc8:	ebffff57 	bl	8b2c <rpi_reset_putc>
    8dcc:	e3a03020 	mov	r3, #32
    8dd0:	e59f2014 	ldr	r2, [pc, #20]	; 8dec <rpi_set_output+0x48>
    8dd4:	e59f1014 	ldr	r1, [pc, #20]	; 8df0 <rpi_set_output+0x4c>
    8dd8:	e59f0014 	ldr	r0, [pc, #20]	; 8df4 <rpi_set_output+0x50>
    8ddc:	ebffff37 	bl	8ac0 <printk>
    8de0:	eb0000b0 	bl	90a8 <clean_reboot>
    8de4:	00009690 	muleq	r0, r0, r6
    8de8:	00009694 	muleq	r0, r4, r6
    8dec:	00009b08 	andeq	r9, r0, r8, lsl #22
    8df0:	00009a20 	andeq	r9, r0, r0, lsr #20
    8df4:	00009a6c 	andeq	r9, r0, ip, ror #20

00008df8 <va_printk>:
    8df8:	e92d43f0 	push	{r4, r5, r6, r7, r8, r9, lr}
    8dfc:	e24dd094 	sub	sp, sp, #148	; 0x94
    8e00:	e1a07000 	mov	r7, r0
    8e04:	e1a09002 	mov	r9, r2
    8e08:	e58d300c 	str	r3, [sp, #12]
    8e0c:	e2411001 	sub	r1, r1, #1
    8e10:	e0808001 	add	r8, r0, r1
    8e14:	e3a03000 	mov	r3, #0
    8e18:	e5c03000 	strb	r3, [r0]
    8e1c:	e1a04000 	mov	r4, r0
    8e20:	ea000001 	b	8e2c <va_printk+0x34>
    8e24:	e2899001 	add	r9, r9, #1
    8e28:	e4c43001 	strb	r3, [r4], #1
    8e2c:	e5d93000 	ldrb	r3, [r9]
    8e30:	e3530000 	cmp	r3, #0
    8e34:	0a000091 	beq	9080 <va_printk+0x288>
    8e38:	e1540008 	cmp	r4, r8
    8e3c:	2a00008f 	bcs	9080 <va_printk+0x288>
    8e40:	e3530025 	cmp	r3, #37	; 0x25
    8e44:	1afffff6 	bne	8e24 <va_printk+0x2c>
    8e48:	e5d92001 	ldrb	r2, [r9, #1]
    8e4c:	e3520025 	cmp	r2, #37	; 0x25
    8e50:	04c43001 	strbeq	r3, [r4], #1
    8e54:	02899002 	addeq	r9, r9, #2
    8e58:	0afffff3 	beq	8e2c <va_printk+0x34>
    8e5c:	e2899001 	add	r9, r9, #1
    8e60:	e3a06000 	mov	r6, #0
    8e64:	ea000003 	b	8e78 <va_printk+0x80>
    8e68:	e0866106 	add	r6, r6, r6, lsl #2
    8e6c:	e0855086 	add	r5, r5, r6, lsl #1
    8e70:	e2456030 	sub	r6, r5, #48	; 0x30
    8e74:	e2899001 	add	r9, r9, #1
    8e78:	e5d95000 	ldrb	r5, [r9]
    8e7c:	e1a00005 	mov	r0, r5
    8e80:	ebffff40 	bl	8b88 <isdigit>
    8e84:	e3500000 	cmp	r0, #0
    8e88:	1afffff6 	bne	8e68 <va_printk+0x70>
    8e8c:	e356001f 	cmp	r6, #31
    8e90:	8a00001a 	bhi	8f00 <va_printk+0x108>
    8e94:	e2455062 	sub	r5, r5, #98	; 0x62
    8e98:	e3550016 	cmp	r5, #22
    8e9c:	979ff105 	ldrls	pc, [pc, r5, lsl #2]
    8ea0:	ea00006d 	b	905c <va_printk+0x264>
    8ea4:	00008fe8 	andeq	r8, r0, r8, ror #31
    8ea8:	0000902c 	andeq	r9, r0, ip, lsr #32
    8eac:	00008f38 	andeq	r8, r0, r8, lsr pc
    8eb0:	0000905c 	andeq	r9, r0, ip, asr r0
    8eb4:	00008f1c 	andeq	r8, r0, ip, lsl pc
    8eb8:	0000905c 	andeq	r9, r0, ip, asr r0
    8ebc:	0000905c 	andeq	r9, r0, ip, asr r0
    8ec0:	0000905c 	andeq	r9, r0, ip, asr r0
    8ec4:	0000905c 	andeq	r9, r0, ip, asr r0
    8ec8:	0000905c 	andeq	r9, r0, ip, asr r0
    8ecc:	0000905c 	andeq	r9, r0, ip, asr r0
    8ed0:	0000905c 	andeq	r9, r0, ip, asr r0
    8ed4:	0000905c 	andeq	r9, r0, ip, asr r0
    8ed8:	0000905c 	andeq	r9, r0, ip, asr r0
    8edc:	00008fb8 			; <UNDEFINED> instruction: 0x00008fb8
    8ee0:	0000905c 	andeq	r9, r0, ip, asr r0
    8ee4:	0000905c 	andeq	r9, r0, ip, asr r0
    8ee8:	00009018 	andeq	r9, r0, r8, lsl r0
    8eec:	0000905c 	andeq	r9, r0, ip, asr r0
    8ef0:	00008f88 	andeq	r8, r0, r8, lsl #31
    8ef4:	0000905c 	andeq	r9, r0, ip, asr r0
    8ef8:	0000905c 	andeq	r9, r0, ip, asr r0
    8efc:	00008fb8 			; <UNDEFINED> instruction: 0x00008fb8
    8f00:	ebffff09 	bl	8b2c <rpi_reset_putc>
    8f04:	e3a03094 	mov	r3, #148	; 0x94
    8f08:	e59f2184 	ldr	r2, [pc, #388]	; 9094 <va_printk+0x29c>
    8f0c:	e59f1184 	ldr	r1, [pc, #388]	; 9098 <va_printk+0x2a0>
    8f10:	e59f0184 	ldr	r0, [pc, #388]	; 909c <va_printk+0x2a4>
    8f14:	ebfffee9 	bl	8ac0 <printk>
    8f18:	eb000062 	bl	90a8 <clean_reboot>
    8f1c:	ebffff02 	bl	8b2c <rpi_reset_putc>
    8f20:	e3a0309a 	mov	r3, #154	; 0x9a
    8f24:	e59f2168 	ldr	r2, [pc, #360]	; 9094 <va_printk+0x29c>
    8f28:	e59f1168 	ldr	r1, [pc, #360]	; 9098 <va_printk+0x2a0>
    8f2c:	e59f016c 	ldr	r0, [pc, #364]	; 90a0 <va_printk+0x2a8>
    8f30:	ebfffee2 	bl	8ac0 <printk>
    8f34:	eb00005b 	bl	90a8 <clean_reboot>
    8f38:	e59d300c 	ldr	r3, [sp, #12]
    8f3c:	e2832004 	add	r2, r3, #4
    8f40:	e58d200c 	str	r2, [sp, #12]
    8f44:	e5933000 	ldr	r3, [r3]
    8f48:	e3a02001 	mov	r2, #1
    8f4c:	e58d2004 	str	r2, [sp, #4]
    8f50:	e58d6000 	str	r6, [sp]
    8f54:	e3a02080 	mov	r2, #128	; 0x80
    8f58:	e28d1010 	add	r1, sp, #16
    8f5c:	e3a0000a 	mov	r0, #10
    8f60:	ebffff24 	bl	8bf8 <emit>
    8f64:	e2899001 	add	r9, r9, #1
    8f68:	e1540008 	cmp	r4, r8
    8f6c:	2affffae 	bcs	8e2c <va_printk+0x34>
    8f70:	e5d03000 	ldrb	r3, [r0]
    8f74:	e3530000 	cmp	r3, #0
    8f78:	0affffab 	beq	8e2c <va_printk+0x34>
    8f7c:	e2800001 	add	r0, r0, #1
    8f80:	e4c43001 	strb	r3, [r4], #1
    8f84:	eafffff7 	b	8f68 <va_printk+0x170>
    8f88:	e59d300c 	ldr	r3, [sp, #12]
    8f8c:	e2832004 	add	r2, r3, #4
    8f90:	e58d200c 	str	r2, [sp, #12]
    8f94:	e5933000 	ldr	r3, [r3]
    8f98:	e3a02000 	mov	r2, #0
    8f9c:	e58d2004 	str	r2, [sp, #4]
    8fa0:	e58d6000 	str	r6, [sp]
    8fa4:	e3a02080 	mov	r2, #128	; 0x80
    8fa8:	e28d1010 	add	r1, sp, #16
    8fac:	e3a0000a 	mov	r0, #10
    8fb0:	ebffff10 	bl	8bf8 <emit>
    8fb4:	eaffffea 	b	8f64 <va_printk+0x16c>
    8fb8:	e59d300c 	ldr	r3, [sp, #12]
    8fbc:	e2832004 	add	r2, r3, #4
    8fc0:	e58d200c 	str	r2, [sp, #12]
    8fc4:	e5933000 	ldr	r3, [r3]
    8fc8:	e3a02000 	mov	r2, #0
    8fcc:	e58d2004 	str	r2, [sp, #4]
    8fd0:	e58d6000 	str	r6, [sp]
    8fd4:	e3a02080 	mov	r2, #128	; 0x80
    8fd8:	e28d1010 	add	r1, sp, #16
    8fdc:	e3a00010 	mov	r0, #16
    8fe0:	ebffff04 	bl	8bf8 <emit>
    8fe4:	eaffffde 	b	8f64 <va_printk+0x16c>
    8fe8:	e59d300c 	ldr	r3, [sp, #12]
    8fec:	e2832004 	add	r2, r3, #4
    8ff0:	e58d200c 	str	r2, [sp, #12]
    8ff4:	e5933000 	ldr	r3, [r3]
    8ff8:	e3a02000 	mov	r2, #0
    8ffc:	e58d2004 	str	r2, [sp, #4]
    9000:	e58d6000 	str	r6, [sp]
    9004:	e3a02080 	mov	r2, #128	; 0x80
    9008:	e28d1010 	add	r1, sp, #16
    900c:	e3a00002 	mov	r0, #2
    9010:	ebfffef8 	bl	8bf8 <emit>
    9014:	eaffffd2 	b	8f64 <va_printk+0x16c>
    9018:	e59d300c 	ldr	r3, [sp, #12]
    901c:	e2832004 	add	r2, r3, #4
    9020:	e58d200c 	str	r2, [sp, #12]
    9024:	e5930000 	ldr	r0, [r3]
    9028:	eaffffcd 	b	8f64 <va_printk+0x16c>
    902c:	e59d300c 	ldr	r3, [sp, #12]
    9030:	e2832004 	add	r2, r3, #4
    9034:	e58d200c 	str	r2, [sp, #12]
    9038:	e5933000 	ldr	r3, [r3]
    903c:	e3a02000 	mov	r2, #0
    9040:	e58d2004 	str	r2, [sp, #4]
    9044:	e58d6000 	str	r6, [sp]
    9048:	e3a02080 	mov	r2, #128	; 0x80
    904c:	e28d1010 	add	r1, sp, #16
    9050:	e3a00008 	mov	r0, #8
    9054:	ebfffee7 	bl	8bf8 <emit>
    9058:	eaffffc1 	b	8f64 <va_printk+0x16c>
    905c:	ebfffeb2 	bl	8b2c <rpi_reset_putc>
    9060:	e5d93000 	ldrb	r3, [r9]
    9064:	e58d3000 	str	r3, [sp]
    9068:	e3a030bb 	mov	r3, #187	; 0xbb
    906c:	e59f2020 	ldr	r2, [pc, #32]	; 9094 <va_printk+0x29c>
    9070:	e59f1020 	ldr	r1, [pc, #32]	; 9098 <va_printk+0x2a0>
    9074:	e59f0028 	ldr	r0, [pc, #40]	; 90a4 <va_printk+0x2ac>
    9078:	ebfffe90 	bl	8ac0 <printk>
    907c:	eb000009 	bl	90a8 <clean_reboot>
    9080:	e3a03000 	mov	r3, #0
    9084:	e4c43001 	strb	r3, [r4], #1
    9088:	e0440007 	sub	r0, r4, r7
    908c:	e28dd094 	add	sp, sp, #148	; 0x94
    9090:	e8bd83f0 	pop	{r4, r5, r6, r7, r8, r9, pc}
    9094:	00009b18 	andeq	r9, r0, r8, lsl fp
    9098:	00009a20 	andeq	r9, r0, r0, lsr #20
    909c:	00009a84 	andeq	r9, r0, r4, lsl #21
    90a0:	00009aa0 	andeq	r9, r0, r0, lsr #21
    90a4:	00009ac8 	andeq	r9, r0, r8, asr #21

000090a8 <clean_reboot>:
    90a8:	e92d4010 	push	{r4, lr}
    90ac:	e59f3014 	ldr	r3, [pc, #20]	; 90c8 <clean_reboot+0x20>
    90b0:	e5933000 	ldr	r3, [r3]
    90b4:	e59f0010 	ldr	r0, [pc, #16]	; 90cc <clean_reboot+0x24>
    90b8:	e12fff33 	blx	r3
    90bc:	e3a00064 	mov	r0, #100	; 0x64
    90c0:	eb000042 	bl	91d0 <delay_ms>
    90c4:	eb000017 	bl	9128 <rpi_reboot>
    90c8:	00009694 	muleq	r0, r4, r6
    90cc:	00009b24 	andeq	r9, r0, r4, lsr #22

000090d0 <_cstart>:
    90d0:	e92d4010 	push	{r4, lr}
    90d4:	e59f3018 	ldr	r3, [pc, #24]	; 90f4 <_cstart+0x24>
    90d8:	e59f2018 	ldr	r2, [pc, #24]	; 90f8 <_cstart+0x28>
    90dc:	e1530002 	cmp	r3, r2
    90e0:	33a02000 	movcc	r2, #0
    90e4:	34832004 	strcc	r2, [r3], #4
    90e8:	3afffffa 	bcc	90d8 <_cstart+0x8>
    90ec:	ebfffbc7 	bl	8010 <notmain>
    90f0:	ebffffec 	bl	90a8 <clean_reboot>
    90f4:	00009c50 	andeq	r9, r0, r0, asr ip
    90f8:	0000a060 	andeq	sl, r0, r0, rrx

000090fc <at_user_level>:
    90fc:	e10f0000 	mrs	r0, CPSR
    9100:	e200001f 	and	r0, r0, #31
    9104:	e3500010 	cmp	r0, #16
    9108:	13a00000 	movne	r0, #0
    910c:	03a00001 	moveq	r0, #1
    9110:	e12fff1e 	bx	lr

00009114 <set_user_level>:
    9114:	e10f3000 	mrs	r3, CPSR
    9118:	e3c3301f 	bic	r3, r3, #31
    911c:	e3833010 	orr	r3, r3, #16
    9120:	e129f003 	msr	CPSR_fc, r3
    9124:	e12fff1e 	bx	lr

00009128 <rpi_reboot>:
    9128:	e92d4010 	push	{r4, lr}
    912c:	ebfffff2 	bl	90fc <at_user_level>
    9130:	e3500000 	cmp	r0, #0
    9134:	1a000008 	bne	915c <rpi_reboot+0x34>
    9138:	e3a0001e 	mov	r0, #30
    913c:	eb000023 	bl	91d0 <delay_ms>
    9140:	e59f101c 	ldr	r1, [pc, #28]	; 9164 <rpi_reboot+0x3c>
    9144:	e59f001c 	ldr	r0, [pc, #28]	; 9168 <rpi_reboot+0x40>
    9148:	eb00002e 	bl	9208 <PUT32>
    914c:	e59f1018 	ldr	r1, [pc, #24]	; 916c <rpi_reboot+0x44>
    9150:	e59f0018 	ldr	r0, [pc, #24]	; 9170 <rpi_reboot+0x48>
    9154:	eb00002b 	bl	9208 <PUT32>
    9158:	eafffffe 	b	9158 <rpi_reboot+0x30>
    915c:	ebffffec 	bl	9114 <set_user_level>
    9160:	eafffff4 	b	9138 <rpi_reboot+0x10>
    9164:	5a000001 	bpl	9170 <rpi_reboot+0x48>
    9168:	20100024 	andscs	r0, r0, r4, lsr #32
    916c:	5a000020 	bpl	91f4 <delay_sec+0xc>
    9170:	2010001c 	andscs	r0, r0, ip, lsl r0

00009174 <delay_cycles>:
    9174:	e2403001 	sub	r3, r0, #1
    9178:	e3500000 	cmp	r0, #0
    917c:	012fff1e 	bxeq	lr
    9180:	e2811000 	add	r1, r1, #0
    9184:	e1a00003 	mov	r0, r3
    9188:	eafffff9 	b	9174 <delay_cycles>

0000918c <timer_get_usec_raw>:
    918c:	e92d4010 	push	{r4, lr}
    9190:	e59f0004 	ldr	r0, [pc, #4]	; 919c <timer_get_usec_raw+0x10>
    9194:	eb000027 	bl	9238 <GET32>
    9198:	e8bd8010 	pop	{r4, pc}
    919c:	20003004 	andcs	r3, r0, r4

000091a0 <timer_get_usec>:
    91a0:	e92d4010 	push	{r4, lr}
    91a4:	ebfffff8 	bl	918c <timer_get_usec_raw>
    91a8:	e8bd8010 	pop	{r4, pc}

000091ac <delay_us>:
    91ac:	e92d4070 	push	{r4, r5, r6, lr}
    91b0:	e1a05000 	mov	r5, r0
    91b4:	ebfffff9 	bl	91a0 <timer_get_usec>
    91b8:	e1a04000 	mov	r4, r0
    91bc:	ebfffff7 	bl	91a0 <timer_get_usec>
    91c0:	e0400004 	sub	r0, r0, r4
    91c4:	e1500005 	cmp	r0, r5
    91c8:	3afffffb 	bcc	91bc <delay_us+0x10>
    91cc:	e8bd8070 	pop	{r4, r5, r6, pc}

000091d0 <delay_ms>:
    91d0:	e92d4010 	push	{r4, lr}
    91d4:	e0603280 	rsb	r3, r0, r0, lsl #5
    91d8:	e0800103 	add	r0, r0, r3, lsl #2
    91dc:	e1a00180 	lsl	r0, r0, #3
    91e0:	ebfffff1 	bl	91ac <delay_us>
    91e4:	e8bd8010 	pop	{r4, pc}

000091e8 <delay_sec>:
    91e8:	e92d4010 	push	{r4, lr}
    91ec:	e0603280 	rsb	r3, r0, r0, lsl #5
    91f0:	e0800103 	add	r0, r0, r3, lsl #2
    91f4:	e1a00180 	lsl	r0, r0, #3
    91f8:	ebfffff4 	bl	91d0 <delay_ms>
    91fc:	e8bd8010 	pop	{r4, pc}

00009200 <put32>:
    9200:	e5801000 	str	r1, [r0]
    9204:	e12fff1e 	bx	lr

00009208 <PUT32>:
    9208:	e5801000 	str	r1, [r0]
    920c:	e12fff1e 	bx	lr

00009210 <put16>:
    9210:	e1c010b0 	strh	r1, [r0]
    9214:	e12fff1e 	bx	lr

00009218 <PUT16>:
    9218:	e1c010b0 	strh	r1, [r0]
    921c:	e12fff1e 	bx	lr

00009220 <put8>:
    9220:	e5c01000 	strb	r1, [r0]
    9224:	e12fff1e 	bx	lr

00009228 <PUT8>:
    9228:	e5c01000 	strb	r1, [r0]
    922c:	e12fff1e 	bx	lr

00009230 <get32>:
    9230:	e5900000 	ldr	r0, [r0]
    9234:	e12fff1e 	bx	lr

00009238 <GET32>:
    9238:	e5900000 	ldr	r0, [r0]
    923c:	e12fff1e 	bx	lr

00009240 <GETPC>:
    9240:	e1a0000e 	mov	r0, lr
    9244:	e12fff1e 	bx	lr

00009248 <dummy>:
    9248:	e12fff1e 	bx	lr

0000924c <or_in32>:
    924c:	e92d4070 	push	{r4, r5, r6, lr}
    9250:	e1a04000 	mov	r4, r0
    9254:	e1a05001 	mov	r5, r1
    9258:	ebfffff4 	bl	9230 <get32>
    925c:	e1801005 	orr	r1, r0, r5
    9260:	e1a00004 	mov	r0, r4
    9264:	ebffffe5 	bl	9200 <put32>
    9268:	e8bd8070 	pop	{r4, r5, r6, pc}

0000926c <uart_init>:
    926c:	e92d4010 	push	{r4, lr}
    9270:	e3a01002 	mov	r1, #2
    9274:	e3a0000e 	mov	r0, #14
    9278:	eb000051 	bl	93c4 <gpio_set_function>
    927c:	e3a01002 	mov	r1, #2
    9280:	e3a0000f 	mov	r0, #15
    9284:	eb00004e 	bl	93c4 <gpio_set_function>
    9288:	eb0000fa 	bl	9678 <dev_barrier>
    928c:	e3a01001 	mov	r1, #1
    9290:	e59f0064 	ldr	r0, [pc, #100]	; 92fc <uart_init+0x90>
    9294:	ebffffec 	bl	924c <or_in32>
    9298:	eb0000f6 	bl	9678 <dev_barrier>
    929c:	e59f405c 	ldr	r4, [pc, #92]	; 9300 <uart_init+0x94>
    92a0:	e3a01000 	mov	r1, #0
    92a4:	e1a00004 	mov	r0, r4
    92a8:	ebffffd4 	bl	9200 <put32>
    92ac:	e3a01000 	mov	r1, #0
    92b0:	e59f004c 	ldr	r0, [pc, #76]	; 9304 <uart_init+0x98>
    92b4:	ebffffd1 	bl	9200 <put32>
    92b8:	e3a01003 	mov	r1, #3
    92bc:	e59f0044 	ldr	r0, [pc, #68]	; 9308 <uart_init+0x9c>
    92c0:	ebffffce 	bl	9200 <put32>
    92c4:	e3a01000 	mov	r1, #0
    92c8:	e59f003c 	ldr	r0, [pc, #60]	; 930c <uart_init+0xa0>
    92cc:	ebffffcb 	bl	9200 <put32>
    92d0:	e3a010c7 	mov	r1, #199	; 0xc7
    92d4:	e59f0034 	ldr	r0, [pc, #52]	; 9310 <uart_init+0xa4>
    92d8:	ebffffc8 	bl	9200 <put32>
    92dc:	e59f1030 	ldr	r1, [pc, #48]	; 9314 <uart_init+0xa8>
    92e0:	e59f0030 	ldr	r0, [pc, #48]	; 9318 <uart_init+0xac>
    92e4:	ebffffc5 	bl	9200 <put32>
    92e8:	e3a01003 	mov	r1, #3
    92ec:	e1a00004 	mov	r0, r4
    92f0:	ebffffc2 	bl	9200 <put32>
    92f4:	eb0000df 	bl	9678 <dev_barrier>
    92f8:	e8bd8010 	pop	{r4, pc}
    92fc:	20215004 	eorcs	r5, r1, r4
    9300:	20215060 	eorcs	r5, r1, r0, rrx
    9304:	20215044 	eorcs	r5, r1, r4, asr #32
    9308:	2021504c 	eorcs	r5, r1, ip, asr #32
    930c:	20215050 	eorcs	r5, r1, r0, asr r0
    9310:	20215048 	eorcs	r5, r1, r8, asr #32
    9314:	0000010e 	andeq	r0, r0, lr, lsl #2
    9318:	20215068 	eorcs	r5, r1, r8, rrx

0000931c <uart_can_getc>:
    931c:	e92d4010 	push	{r4, lr}
    9320:	e59f0008 	ldr	r0, [pc, #8]	; 9330 <uart_can_getc+0x14>
    9324:	ebffffc1 	bl	9230 <get32>
    9328:	e2000001 	and	r0, r0, #1
    932c:	e8bd8010 	pop	{r4, pc}
    9330:	20215064 	eorcs	r5, r1, r4, rrx

00009334 <uart_can_putc>:
    9334:	e92d4010 	push	{r4, lr}
    9338:	e59f0010 	ldr	r0, [pc, #16]	; 9350 <uart_can_putc+0x1c>
    933c:	ebffffbb 	bl	9230 <get32>
    9340:	e3100002 	tst	r0, #2
    9344:	13a00001 	movne	r0, #1
    9348:	03a00000 	moveq	r0, #0
    934c:	e8bd8010 	pop	{r4, pc}
    9350:	20215064 	eorcs	r5, r1, r4, rrx

00009354 <uart_getc>:
    9354:	e92d4010 	push	{r4, lr}
    9358:	eb0000c6 	bl	9678 <dev_barrier>
    935c:	ebffffee 	bl	931c <uart_can_getc>
    9360:	e3500000 	cmp	r0, #0
    9364:	0afffffc 	beq	935c <uart_getc+0x8>
    9368:	e59f0010 	ldr	r0, [pc, #16]	; 9380 <uart_getc+0x2c>
    936c:	ebffffaf 	bl	9230 <get32>
    9370:	e6ef4070 	uxtb	r4, r0
    9374:	eb0000bf 	bl	9678 <dev_barrier>
    9378:	e1a00004 	mov	r0, r4
    937c:	e8bd8010 	pop	{r4, pc}
    9380:	20215040 	eorcs	r5, r1, r0, asr #32

00009384 <uart_putc>:
    9384:	e92d4010 	push	{r4, lr}
    9388:	e1a04000 	mov	r4, r0
    938c:	eb0000b9 	bl	9678 <dev_barrier>
    9390:	ebffffe7 	bl	9334 <uart_can_putc>
    9394:	e3500000 	cmp	r0, #0
    9398:	0afffffc 	beq	9390 <uart_putc+0xc>
    939c:	e6ef1074 	uxtb	r1, r4
    93a0:	e59f0008 	ldr	r0, [pc, #8]	; 93b0 <uart_putc+0x2c>
    93a4:	ebffff95 	bl	9200 <put32>
    93a8:	eb0000b2 	bl	9678 <dev_barrier>
    93ac:	e8bd8010 	pop	{r4, pc}
    93b0:	20215040 	eorcs	r5, r1, r0, asr #32

000093b4 <uart_has_data>:
    93b4:	e92d4010 	push	{r4, lr}
    93b8:	eb0000ae 	bl	9678 <dev_barrier>
    93bc:	ebffffd6 	bl	931c <uart_can_getc>
    93c0:	e8bd8010 	pop	{r4, pc}

000093c4 <gpio_set_function>:
    93c4:	e350001f 	cmp	r0, #31
    93c8:	812fff1e 	bxhi	lr
    93cc:	e3d13007 	bics	r3, r1, #7
    93d0:	112fff1e 	bxne	lr
    93d4:	e92d4070 	push	{r4, r5, r6, lr}
    93d8:	e1a05001 	mov	r5, r1
    93dc:	e59f3044 	ldr	r3, [pc, #68]	; 9428 <gpio_set_function+0x64>
    93e0:	e0832093 	umull	r2, r3, r3, r0
    93e4:	e1a031a3 	lsr	r3, r3, #3
    93e8:	e1a06003 	mov	r6, r3
    93ec:	e0833103 	add	r3, r3, r3, lsl #2
    93f0:	e1a02083 	lsl	r2, r3, #1
    93f4:	e0403002 	sub	r3, r0, r2
    93f8:	e0834083 	add	r4, r3, r3, lsl #1
    93fc:	e2866302 	add	r6, r6, #134217728	; 0x8000000
    9400:	e2866702 	add	r6, r6, #524288	; 0x80000
    9404:	e1a06106 	lsl	r6, r6, #2
    9408:	e1a00006 	mov	r0, r6
    940c:	ebffff89 	bl	9238 <GET32>
    9410:	e3a01007 	mov	r1, #7
    9414:	e1c01411 	bic	r1, r0, r1, lsl r4
    9418:	e1811415 	orr	r1, r1, r5, lsl r4
    941c:	e1a00006 	mov	r0, r6
    9420:	ebffff78 	bl	9208 <PUT32>
    9424:	e8bd8070 	pop	{r4, r5, r6, pc}
    9428:	cccccccd 	stclgt	12, cr12, [ip], {205}	; 0xcd

0000942c <gpio_set_output>:
    942c:	e92d4010 	push	{r4, lr}
    9430:	e3a01001 	mov	r1, #1
    9434:	ebffffe2 	bl	93c4 <gpio_set_function>
    9438:	e8bd8010 	pop	{r4, pc}

0000943c <gpio_set_on>:
    943c:	e350001f 	cmp	r0, #31
    9440:	812fff1e 	bxhi	lr
    9444:	e92d4010 	push	{r4, lr}
    9448:	e3a01001 	mov	r1, #1
    944c:	e1a01011 	lsl	r1, r1, r0
    9450:	e59f0004 	ldr	r0, [pc, #4]	; 945c <gpio_set_on+0x20>
    9454:	ebffff6b 	bl	9208 <PUT32>
    9458:	e8bd8010 	pop	{r4, pc}
    945c:	2020001c 	eorcs	r0, r0, ip, lsl r0

00009460 <gpio_set_off>:
    9460:	e350001f 	cmp	r0, #31
    9464:	812fff1e 	bxhi	lr
    9468:	e92d4010 	push	{r4, lr}
    946c:	e3a01001 	mov	r1, #1
    9470:	e1a01011 	lsl	r1, r1, r0
    9474:	e59f0004 	ldr	r0, [pc, #4]	; 9480 <gpio_set_off+0x20>
    9478:	ebffff62 	bl	9208 <PUT32>
    947c:	e8bd8010 	pop	{r4, pc}
    9480:	20200028 	eorcs	r0, r0, r8, lsr #32

00009484 <gpio_set_input>:
    9484:	e92d4010 	push	{r4, lr}
    9488:	e3a01000 	mov	r1, #0
    948c:	ebffffcc 	bl	93c4 <gpio_set_function>
    9490:	e8bd8010 	pop	{r4, pc}

00009494 <gpio_write>:
    9494:	e92d4010 	push	{r4, lr}
    9498:	e3510000 	cmp	r1, #0
    949c:	1a000001 	bne	94a8 <gpio_write+0x14>
    94a0:	ebffffee 	bl	9460 <gpio_set_off>
    94a4:	e8bd8010 	pop	{r4, pc}
    94a8:	ebffffe3 	bl	943c <gpio_set_on>
    94ac:	e8bd8010 	pop	{r4, pc}

000094b0 <gpio_read>:
    94b0:	e350001f 	cmp	r0, #31
    94b4:	8a000007 	bhi	94d8 <gpio_read+0x28>
    94b8:	e92d4010 	push	{r4, lr}
    94bc:	e200401f 	and	r4, r0, #31
    94c0:	e59f3018 	ldr	r3, [pc, #24]	; 94e0 <gpio_read+0x30>
    94c4:	e08302a0 	add	r0, r3, r0, lsr #5
    94c8:	ebffff5a 	bl	9238 <GET32>
    94cc:	e1a00430 	lsr	r0, r0, r4
    94d0:	e2000001 	and	r0, r0, #1
    94d4:	e8bd8010 	pop	{r4, pc}
    94d8:	e3e00000 	mvn	r0, #0
    94dc:	e12fff1e 	bx	lr
    94e0:	20200034 	eorcs	r0, r0, r4, lsr r0

000094e4 <kmalloc_heap_end>:
    94e4:	e59f3004 	ldr	r3, [pc, #4]	; 94f0 <kmalloc_heap_end+0xc>
    94e8:	e5930000 	ldr	r0, [r3]
    94ec:	e12fff1e 	bx	lr
    94f0:	00009698 	muleq	r0, r8, r6

000094f4 <kmalloc_heap_start>:
    94f4:	e59f0000 	ldr	r0, [pc]	; 94fc <kmalloc_heap_start+0x8>
    94f8:	e12fff1e 	bx	lr
    94fc:	0000a060 	andeq	sl, r0, r0, rrx

00009500 <kmalloc_init_set_start>:
    9500:	e59f3038 	ldr	r3, [pc, #56]	; 9540 <kmalloc_init_set_start+0x40>
    9504:	e5933000 	ldr	r3, [r3]
    9508:	e1500003 	cmp	r0, r3
    950c:	9a000003 	bls	9520 <kmalloc_init_set_start+0x20>
    9510:	e59f3028 	ldr	r3, [pc, #40]	; 9540 <kmalloc_init_set_start+0x40>
    9514:	e5830000 	str	r0, [r3]
    9518:	e5830004 	str	r0, [r3, #4]
    951c:	e12fff1e 	bx	lr
    9520:	e92d4010 	push	{r4, lr}
    9524:	ebfffd80 	bl	8b2c <rpi_reset_putc>
    9528:	e3a03016 	mov	r3, #22
    952c:	e59f2010 	ldr	r2, [pc, #16]	; 9544 <kmalloc_init_set_start+0x44>
    9530:	e59f1010 	ldr	r1, [pc, #16]	; 9548 <kmalloc_init_set_start+0x48>
    9534:	e59f0010 	ldr	r0, [pc, #16]	; 954c <kmalloc_init_set_start+0x4c>
    9538:	ebfffd60 	bl	8ac0 <printk>
    953c:	ebfffed9 	bl	90a8 <clean_reboot>
    9540:	00009698 	muleq	r0, r8, r6
    9544:	00009b30 	andeq	r9, r0, r0, lsr fp
    9548:	00009b60 	andeq	r9, r0, r0, ror #22
    954c:	00009b6c 	andeq	r9, r0, ip, ror #22

00009550 <kmalloc>:
    9550:	e92d4010 	push	{r4, lr}
    9554:	e3500000 	cmp	r0, #0
    9558:	0a00000a 	beq	9588 <kmalloc+0x38>
    955c:	e2802007 	add	r2, r0, #7
    9560:	e3c22007 	bic	r2, r2, #7
    9564:	e59f3038 	ldr	r3, [pc, #56]	; 95a4 <kmalloc+0x54>
    9568:	e5934000 	ldr	r4, [r3]
    956c:	e0841002 	add	r1, r4, r2
    9570:	e5831000 	str	r1, [r3]
    9574:	e3a01000 	mov	r1, #0
    9578:	e1a00004 	mov	r0, r4
    957c:	ebfffd49 	bl	8aa8 <memset>
    9580:	e1a00004 	mov	r0, r4
    9584:	e8bd8010 	pop	{r4, pc}
    9588:	ebfffd67 	bl	8b2c <rpi_reset_putc>
    958c:	e3a0301b 	mov	r3, #27
    9590:	e59f2010 	ldr	r2, [pc, #16]	; 95a8 <kmalloc+0x58>
    9594:	e59f1010 	ldr	r1, [pc, #16]	; 95ac <kmalloc+0x5c>
    9598:	e59f0010 	ldr	r0, [pc, #16]	; 95b0 <kmalloc+0x60>
    959c:	ebfffd47 	bl	8ac0 <printk>
    95a0:	ebfffec0 	bl	90a8 <clean_reboot>
    95a4:	00009698 	muleq	r0, r8, r6
    95a8:	00009b48 	andeq	r9, r0, r8, asr #22
    95ac:	00009b60 	andeq	r9, r0, r0, ror #22
    95b0:	00009b88 	andeq	r9, r0, r8, lsl #23

000095b4 <kmalloc_init>:
    95b4:	e12fff1e 	bx	lr

000095b8 <kmalloc_heap_ptr>:
    95b8:	e92d4010 	push	{r4, lr}
    95bc:	ebffffcc 	bl	94f4 <kmalloc_heap_start>
    95c0:	e8bd8010 	pop	{r4, pc}

000095c4 <kmalloc_aligned>:
    95c4:	e92d4010 	push	{r4, lr}
    95c8:	e2613000 	rsb	r3, r1, #0
    95cc:	e1d12003 	bics	r2, r1, r3
    95d0:	1a00000b 	bne	9604 <kmalloc_aligned+0x40>
    95d4:	e59f2060 	ldr	r2, [pc, #96]	; 963c <kmalloc_aligned+0x78>
    95d8:	e5922000 	ldr	r2, [r2]
    95dc:	e0812002 	add	r2, r1, r2
    95e0:	e2422001 	sub	r2, r2, #1
    95e4:	e0033002 	and	r3, r3, r2
    95e8:	e2411001 	sub	r1, r1, #1
    95ec:	e1130001 	tst	r3, r1
    95f0:	1a00000a 	bne	9620 <kmalloc_aligned+0x5c>
    95f4:	e59f2040 	ldr	r2, [pc, #64]	; 963c <kmalloc_aligned+0x78>
    95f8:	e5823000 	str	r3, [r2]
    95fc:	ebffffd3 	bl	9550 <kmalloc>
    9600:	e8bd8010 	pop	{r4, pc}
    9604:	ebfffd48 	bl	8b2c <rpi_reset_putc>
    9608:	e3a0302a 	mov	r3, #42	; 0x2a
    960c:	e59f202c 	ldr	r2, [pc, #44]	; 9640 <kmalloc_aligned+0x7c>
    9610:	e59f102c 	ldr	r1, [pc, #44]	; 9644 <kmalloc_aligned+0x80>
    9614:	e59f002c 	ldr	r0, [pc, #44]	; 9648 <kmalloc_aligned+0x84>
    9618:	ebfffd28 	bl	8ac0 <printk>
    961c:	ebfffea1 	bl	90a8 <clean_reboot>
    9620:	ebfffd41 	bl	8b2c <rpi_reset_putc>
    9624:	e3a03030 	mov	r3, #48	; 0x30
    9628:	e59f2010 	ldr	r2, [pc, #16]	; 9640 <kmalloc_aligned+0x7c>
    962c:	e59f1010 	ldr	r1, [pc, #16]	; 9644 <kmalloc_aligned+0x80>
    9630:	e59f0014 	ldr	r0, [pc, #20]	; 964c <kmalloc_aligned+0x88>
    9634:	ebfffd21 	bl	8ac0 <printk>
    9638:	ebfffe9a 	bl	90a8 <clean_reboot>
    963c:	00009698 	muleq	r0, r8, r6
    9640:	00009b50 	andeq	r9, r0, r0, asr fp
    9644:	00009b60 	andeq	r9, r0, r0, ror #22
    9648:	00009b9c 	muleq	r0, ip, fp
    964c:	00009bfc 	strdeq	r9, [r0], -ip

00009650 <kfree>:
    9650:	e12fff1e 	bx	lr

00009654 <kfree_all>:
    9654:	e59f3008 	ldr	r3, [pc, #8]	; 9664 <kfree_all+0x10>
    9658:	e5932004 	ldr	r2, [r3, #4]
    965c:	e5832000 	str	r2, [r3]
    9660:	e12fff1e 	bx	lr
    9664:	00009698 	muleq	r0, r8, r6

00009668 <kfree_after>:
    9668:	e59f3004 	ldr	r3, [pc, #4]	; 9674 <kfree_after+0xc>
    966c:	e5830000 	str	r0, [r3]
    9670:	e12fff1e 	bx	lr
    9674:	00009698 	muleq	r0, r8, r6

00009678 <dev_barrier>:
    9678:	ea000002 	b	9688 <dsb>

0000967c <dmb>:
    967c:	e3a00000 	mov	r0, #0
    9680:	ee070fba 	mcr	15, 0, r0, cr7, cr10, {5}
    9684:	e12fff1e 	bx	lr

00009688 <dsb>:
    9688:	ee070f9a 	mcr	15, 0, r0, cr7, cr10, {4}
    968c:	e12fff1e 	bx	lr

Disassembly of section .data:

00009690 <rpi_putchar>:
    9690:	00008b18 	andeq	r8, r0, r8, lsl fp

00009694 <putk>:
    9694:	00008b54 	andeq	r8, r0, r4, asr fp

00009698 <heap>:
    9698:	0000a060 	andeq	sl, r0, r0, rrx

0000969c <heap_start>:
    969c:	0000a060 	andeq	sl, r0, r0, rrx

Disassembly of section .rodata:

000096a0 <__FUNCTION__.4337-0x74>:
    96a0:	74736574 	ldrbtvc	r6, [r3], #-1396	; 0xfffffa8c
    96a4:	00000a31 	andeq	r0, r0, r1, lsr sl
    96a8:	74726170 	ldrbtvc	r6, [r2], #-368	; 0xfffffe90
    96ac:	65742d31 	ldrbvs	r2, [r4, #-3377]!	; 0xfffff2cf
    96b0:	2e317473 	mrccs	4, 1, r7, cr1, cr3, {3}
    96b4:	00000063 	andeq	r0, r0, r3, rrx
    96b8:	43415254 	movtmi	r5, #4692	; 0x1254
    96bc:	00003a45 	andeq	r3, r0, r5, asr #20
    96c0:	6f6c6c61 	svcvs	0x006c6c61
    96c4:	65722063 	ldrbvs	r2, [r2, #-99]!	; 0xffffff9d
    96c8:	6e727574 	mrcvs	5, 3, r7, cr2, cr4, {3}
    96cc:	25206465 	strcs	r6, [r0, #-1125]!	; 0xfffffb9b
    96d0:	00000a70 	andeq	r0, r0, r0, ror sl
    96d4:	494e4150 	stmdbmi	lr, {r4, r6, r8, lr}^
    96d8:	73253a43 			; <UNDEFINED> instruction: 0x73253a43
    96dc:	3a73253a 	bcc	1cd2bcc <__bss_end__+0x1cc8b6c>
    96e0:	693a6425 	ldmdbvs	sl!, {r0, r2, r5, sl, sp, lr}
    96e4:	6c61766e 	stclvs	6, cr7, [r1], #-440	; 0xfffffe48
    96e8:	65206469 	strvs	r6, [r0, #-1129]!	; 0xfffffb97
    96ec:	726f7272 	rsbvc	r7, pc, #536870919	; 0x20000007
    96f0:	0a0a2121 	beq	291b7c <__bss_end__+0x287b1c>
    96f4:	00000000 	andeq	r0, r0, r0
    96f8:	43435553 	movtmi	r5, #13651	; 0x3553
    96fc:	20535345 	subscs	r5, r3, r5, asr #6
    9700:	70616568 	rsbvc	r6, r1, r8, ror #10
    9704:	65686320 	strbvs	r6, [r8, #-800]!	; 0xfffffce0
    9708:	64656b63 	strbtvs	r6, [r5], #-2915	; 0xfffff49d
    970c:	74756f20 	ldrbtvc	r6, [r5], #-3872	; 0xfffff0e0
    9710:	0000000a 	andeq	r0, r0, sl

00009714 <__FUNCTION__.4337>:
    9714:	6d746f6e 	ldclvs	15, cr6, [r4, #-440]!	; 0xfffffe48
    9718:	006e6961 	rsbeq	r6, lr, r1, ror #18
    971c:	4f525245 	svcmi	0x00525245
    9720:	00003a52 	andeq	r3, r0, r2, asr sl
    9724:	636f6c62 	cmnvs	pc, #25088	; 0x6200
    9728:	7025206b 	eorvc	r2, r5, fp, rrx
    972c:	726f6320 	rsbvc	r6, pc, #32, 6	; 0x80000000
    9730:	74707572 	ldrbtvc	r7, [r0], #-1394	; 0xfffffa8e
    9734:	61206465 			; <UNDEFINED> instruction: 0x61206465
    9738:	666f2074 			; <UNDEFINED> instruction: 0x666f2074
    973c:	74657366 	strbtvc	r7, [r5], #-870	; 0xfffffc9a
    9740:	0a642520 	beq	1912bc8 <__bss_end__+0x1908b68>
    9744:	00000000 	andeq	r0, r0, r0
    9748:	79626e09 	stmdbvc	r2!, {r0, r3, r9, sl, fp, sp, lr}^
    974c:	3d736574 	cfldr64cc	mvdx6, [r3, #-464]!	; 0xfffffe30
    9750:	000a6425 	andeq	r6, sl, r5, lsr #8
    9754:	6f6c4209 	svcvs	0x006c4209
    9758:	61206b63 			; <UNDEFINED> instruction: 0x61206b63
    975c:	636f6c6c 	cmnvs	pc, #108, 24	; 0x6c00
    9760:	64657461 	strbtvs	r7, [r5], #-1121	; 0xfffffb9f
    9764:	3a746120 	bcc	1d21bec <__bss_end__+0x1d17b8c>
    9768:	3a732520 	bcc	1cd2bf0 <__bss_end__+0x1cc8b90>
    976c:	253a7325 	ldrcs	r7, [sl, #-805]!	; 0xfffffcdb
    9770:	00000a64 	andeq	r0, r0, r4, ror #20
    9774:	6f6c4209 	svcvs	0x006c4209
    9778:	66206b63 	strtvs	r6, [r0], -r3, ror #22
    977c:	64656572 	strbtvs	r6, [r5], #-1394	; 0xfffffa8e
    9780:	3a746120 	bcc	1d21c08 <__bss_end__+0x1d17ba8>
    9784:	3a732520 	bcc	1cd2c0c <__bss_end__+0x1cc8bac>
    9788:	253a7325 	ldrcs	r7, [sl, #-805]!	; 0xfffffcdb
    978c:	00000a64 	andeq	r0, r0, r4, ror #20
    9790:	6f725709 	svcvs	0x00725709
    9794:	62206574 	eorvs	r6, r0, #116, 10	; 0x1d000000
    9798:	6b636f6c 	blvs	18e5550 <__bss_end__+0x18db4f0>
    979c:	74666120 	strbtvc	r6, [r6], #-288	; 0xfffffee0
    97a0:	66207265 	strtvs	r7, [r0], -r5, ror #4
    97a4:	21656572 	smccs	22098	; 0x5652
    97a8:	0000000a 	andeq	r0, r0, sl
    97ac:	6c616b63 			; <UNDEFINED> instruction: 0x6c616b63
    97b0:	2e636f6c 	cdpcs	15, 6, cr6, cr3, cr12, {3}
    97b4:	00000063 	andeq	r0, r0, r3, rrx
    97b8:	494e4150 	stmdbmi	lr, {r4, r6, r8, lr}^
    97bc:	73253a43 			; <UNDEFINED> instruction: 0x73253a43
    97c0:	3a73253a 	bcc	1cd2cb0 <__bss_end__+0x1cc8c50>
    97c4:	613a6425 	teqvs	sl, r5, lsr #8
    97c8:	6e67696c 	vnmulvs.f16	s13, s14, s25	; <UNPREDICTABLE>
    97cc:	68286465 	stmdavs	r8!, {r0, r2, r5, r6, sl, sp, lr}
    97d0:	5f706165 	svcpl	0x00706165
    97d4:	72617473 	rsbvc	r7, r1, #1929379840	; 0x73000000
    97d8:	38202c74 	stmdacc	r0!, {r2, r4, r5, r6, sl, fp, sp}
    97dc:	00000a29 	andeq	r0, r0, r9, lsr #20
    97e0:	657a6973 	ldrbvs	r6, [sl, #-2419]!	; 0xfffff68d
    97e4:	6820666f 	stmdavs	r0!, {r0, r1, r2, r3, r5, r6, r9, sl, sp, lr}
    97e8:	253d7264 	ldrcs	r7, [sp, #-612]!	; 0xfffffd9c
    97ec:	72202c64 	eorvc	r2, r0, #100, 24	; 0x6400
    97f0:	6f7a6465 	svcvs	0x007a6465
    97f4:	253d656e 	ldrcs	r6, [sp, #-1390]!	; 0xfffffa92
    97f8:	00000a64 	andeq	r0, r0, r4, ror #20
    97fc:	4f525245 	svcmi	0x00525245
    9800:	73253a52 			; <UNDEFINED> instruction: 0x73253a52
    9804:	3a73253a 	bcc	1cd2cf4 <__bss_end__+0x1cc8c94>
    9808:	203a6425 	eorscs	r6, sl, r5, lsr #8
    980c:	534c4146 	movtpl	r4, #49478	; 0xc146
    9810:	683c2845 	ldmdavs	ip!, {r0, r2, r6, fp, sp}
    9814:	3e706165 	rpwccsz	f6, f0, f5
    9818:	6e203a29 	vmulvs.f32	s6, s0, s19
    981c:	6920746f 	stmdbvs	r0!, {r0, r1, r2, r3, r5, r6, sl, ip, sp, lr}
    9820:	6974696e 	ldmdbvs	r4!, {r1, r2, r3, r5, r6, r8, fp, sp, lr}^
    9824:	7a696c61 	bvc	1a649b0 <__bss_end__+0x1a5a950>
    9828:	0a3f6465 	beq	fe29c4 <__bss_end__+0xfd8964>
    982c:	00000000 	andeq	r0, r0, r0
    9830:	65657266 	strbvs	r7, [r5, #-614]!	; 0xfffffd9a
    9834:	20676e69 	rsbcs	r6, r7, r9, ror #28
    9838:	000a7025 	andeq	r7, sl, r5, lsr #32
    983c:	6f6c6c61 	svcvs	0x006c6c61
    9840:	69746163 	ldmdbvs	r4!, {r0, r1, r5, r6, r8, sp, lr}^
    9844:	2520676e 	strcs	r6, [r0, #-1902]!	; 0xfffff892
    9848:	79622064 	stmdbvc	r2!, {r2, r5, r6, sp}^
    984c:	0a736574 	beq	1ce2e24 <__bss_end__+0x1cd8dc4>
    9850:	00000000 	andeq	r0, r0, r0
    9854:	43415254 	movtmi	r5, #4692	; 0x1254
    9858:	52453a45 	subpl	r3, r5, #282624	; 0x45000
    985c:	00524f52 	subseq	r4, r2, r2, asr pc
    9860:	657a6973 	ldrbvs	r6, [sl, #-2419]!	; 0xfffff68d
    9864:	65766f20 	ldrbvs	r6, [r6, #-3872]!	; 0xfffff0e0
    9868:	6f6c6672 	svcvs	0x006c6672
    986c:	3a646577 	bcc	1922e50 <__bss_end__+0x1918df0>
    9870:	20642520 	rsbcs	r2, r4, r0, lsr #10
    9874:	65747962 	ldrbvs	r7, [r4, #-2402]!	; 0xfffff69e
    9878:	73692073 	cmnvc	r9, #115	; 0x73
    987c:	6f6f7420 	svcvs	0x006f7420
    9880:	72616c20 	rsbvc	r6, r1, #32, 24	; 0x2000
    9884:	000a6567 	andeq	r6, sl, r7, ror #10
    9888:	494e4150 	stmdbmi	lr, {r4, r6, r8, lr}^
    988c:	73253a43 			; <UNDEFINED> instruction: 0x73253a43
    9890:	3a73253a 	bcc	1cd2d80 <__bss_end__+0x1cc8d20>
    9894:	733a6425 	teqvc	sl, #620756992	; 0x25000000
    9898:	20657a69 	rsbcs	r7, r5, r9, ror #20
    989c:	7265766f 	rsbvc	r7, r5, #116391936	; 0x6f00000
    98a0:	776f6c66 	strbvc	r6, [pc, -r6, ror #24]!
    98a4:	203a6465 	eorscs	r6, sl, r5, ror #8
    98a8:	62206425 	eorvs	r6, r0, #620756992	; 0x25000000
    98ac:	73657479 	cmnvc	r5, #2030043136	; 0x79000000
    98b0:	20736920 	rsbscs	r6, r3, r0, lsr #18
    98b4:	206f6f74 	rsbcs	r6, pc, r4, ror pc	; <UNPREDICTABLE>
    98b8:	6772616c 	ldrbvs	r6, [r2, -ip, ror #2]!
    98bc:	000a0a65 	andeq	r0, sl, r5, ror #20
    98c0:	2074756f 	rsbscs	r7, r4, pc, ror #10
    98c4:	6d20666f 	stcvs	6, cr6, [r0, #-444]!	; 0xfffffe44
    98c8:	726f6d65 	rsbvc	r6, pc, #6464	; 0x1940
    98cc:	20202179 	eorcs	r2, r0, r9, ror r1
    98d0:	65766168 	ldrbvs	r6, [r6, #-360]!	; 0xfffffe98
    98d4:	6c6e6f20 	stclvs	15, cr6, [lr], #-128	; 0xffffff80
    98d8:	64252079 	strtvs	r2, [r5], #-121	; 0xffffff87
    98dc:	66656c20 	strbtvs	r6, [r5], -r0, lsr #24
    98e0:	6e202c74 	mcrvs	12, 1, r2, cr0, cr4, {3}
    98e4:	20646565 	rsbcs	r6, r4, r5, ror #10
    98e8:	000a6425 	andeq	r6, sl, r5, lsr #8
    98ec:	494e4150 	stmdbmi	lr, {r4, r6, r8, lr}^
    98f0:	73253a43 			; <UNDEFINED> instruction: 0x73253a43
    98f4:	3a73253a 	bcc	1cd2de4 <__bss_end__+0x1cc8d84>
    98f8:	6f3a6425 	svcvs	0x003a6425
    98fc:	6f207475 	svcvs	0x00207475
    9900:	656d2066 	strbvs	r2, [sp, #-102]!	; 0xffffff9a
    9904:	79726f6d 	ldmdbvc	r2!, {r0, r2, r3, r5, r6, r8, r9, sl, fp, sp, lr}^
    9908:	68202021 	stmdavs	r0!, {r0, r5, sp}
    990c:	20657661 	rsbcs	r7, r5, r1, ror #12
    9910:	796c6e6f 	stmdbvc	ip!, {r0, r1, r2, r3, r5, r6, r9, sl, fp, sp, lr}^
    9914:	20642520 	rsbcs	r2, r4, r0, lsr #10
    9918:	7466656c 	strbtvc	r6, [r6], #-1388	; 0xfffffa94
    991c:	656e202c 	strbvs	r2, [lr, #-44]!	; 0xffffffd4
    9920:	25206465 	strcs	r6, [r0, #-1125]!	; 0xfffffb9b
    9924:	000a0a64 	andeq	r0, sl, r4, ror #20
    9928:	494e4150 	stmdbmi	lr, {r4, r6, r8, lr}^
    992c:	73253a43 			; <UNDEFINED> instruction: 0x73253a43
    9930:	3a73253a 	bcc	1cd2e20 <__bss_end__+0x1cc8dc0>
    9934:	633a6425 	teqvs	sl, #620756992	; 0x25000000
    9938:	6b636568 	blvs	18e2ee0 <__bss_end__+0x18d8e80>
    993c:	6f6c625f 	svcvs	0x006c625f
    9940:	68286b63 	stmdavs	r8!, {r0, r1, r5, r6, r8, r9, fp, sp, lr}
    9944:	00000a29 	andeq	r0, r0, r9, lsr #20
    9948:	6c616b63 			; <UNDEFINED> instruction: 0x6c616b63
    994c:	3a636f6c 	bcc	18e5704 <__bss_end__+0x18db6a4>
    9950:	6f6c6c61 	svcvs	0x006c6c61
    9954:	65746163 	ldrbvs	r6, [r4, #-355]!	; 0xfffffe9d
    9958:	64252064 	strtvs	r2, [r5], #-100	; 0xffffff9c
    995c:	74796220 	ldrbtvc	r6, [r9], #-544	; 0xfffffde0
    9960:	202c7365 	eorcs	r7, ip, r5, ror #6
    9964:	746f7428 	strbtvc	r7, [pc], #-1064	; 996c <__FUNCTION__.4337+0x258>
    9968:	253d6c61 	ldrcs	r6, [sp, #-3169]!	; 0xfffff39f
    996c:	202c2964 	eorcs	r2, ip, r4, ror #18
    9970:	3d727470 	cfldrdcc	mvd7, [r2, #-448]!	; 0xfffffe40
    9974:	000a7025 	andeq	r7, sl, r5, lsr #32
    9978:	6e696f67 	cdpvs	15, 6, cr6, cr9, cr7, {3}
    997c:	6f742067 	svcvs	0x00742067
    9980:	65686320 	strbvs	r6, [r8, #-800]!	; 0xfffffce0
    9984:	68206b63 	stmdavs	r0!, {r0, r1, r5, r6, r8, r9, fp, sp, lr}
    9988:	3a706165 	bcc	1c21f24 <__bss_end__+0x1c17ec4>
    998c:	20642520 	rsbcs	r2, r4, r0, lsr #10
    9990:	65747962 	ldrbvs	r7, [r4, #-2402]!	; 0xfffff69e
    9994:	6c612073 	stclvs	0, cr2, [r1], #-460	; 0xfffffe34
    9998:	61636f6c 	cmnvs	r3, ip, ror #30
    999c:	2c646574 	cfstr64cs	mvdx6, [r4], #-464	; 0xfffffe30
    99a0:	20642520 	rsbcs	r2, r4, r0, lsr #10
    99a4:	65747962 	ldrbvs	r7, [r4, #-2402]!	; 0xfffff69e
    99a8:	656c2073 	strbvs	r2, [ip, #-115]!	; 0xffffff8d
    99ac:	000a7466 	andeq	r7, sl, r6, ror #8
    99b0:	63656863 	cmnvs	r5, #6488064	; 0x630000
    99b4:	2064656b 	rsbcs	r6, r4, fp, ror #10
    99b8:	62206425 	eorvs	r6, r0, #620756992	; 0x25000000
    99bc:	6b636f6c 	blvs	18e5774 <__bss_end__+0x18db714>
    99c0:	64202c73 	strtvs	r2, [r0], #-3187	; 0xfffff38d
    99c4:	63657465 	cmnvs	r5, #1694498816	; 0x65000000
    99c8:	20646574 	rsbcs	r6, r4, r4, ror r5
    99cc:	65206425 	strvs	r6, [r0, #-1061]!	; 0xfffffbdb
    99d0:	726f7272 	rsbvc	r7, pc, #536870919	; 0x20000007
    99d4:	00000a73 	andeq	r0, r0, r3, ror sl
    99d8:	43435553 	movtmi	r5, #13651	; 0x3553
    99dc:	3a535345 	bcc	14de6f8 <__bss_end__+0x14d4698>
    99e0:	65686320 	strbvs	r6, [r8, #-800]!	; 0xfffffce0
    99e4:	64656b63 	strbtvs	r6, [r5], #-2915	; 0xfffff49d
    99e8:	20642520 	rsbcs	r2, r4, r0, lsr #10
    99ec:	636f6c62 	cmnvs	pc, #25088	; 0x6200
    99f0:	202c736b 	eorcs	r7, ip, fp, ror #6
    99f4:	65746564 	ldrbvs	r6, [r4, #-1380]!	; 0xfffffa9c
    99f8:	64657463 	strbtvs	r7, [r5], #-1123	; 0xfffffb9d
    99fc:	206f6e20 	rsbcs	r6, pc, r0, lsr #28
    9a00:	6f727265 	svcvs	0x00727265
    9a04:	000a7372 	andeq	r7, sl, r2, ror r3

00009a08 <__FUNCTION__.4339>:
    9a08:	695f6b63 	ldmdbvs	pc, {r0, r1, r5, r6, r8, r9, fp, sp, lr}^	; <UNPREDICTABLE>
    9a0c:	0074696e 	rsbseq	r6, r4, lr, ror #18

00009a10 <__FUNCTION__.4397>:
    9a10:	72666b63 	rsbvc	r6, r6, #101376	; 0x18c00
    9a14:	00006565 	andeq	r6, r0, r5, ror #10

00009a18 <__FUNCTION__.4407>:
    9a18:	6c616b63 			; <UNDEFINED> instruction: 0x6c616b63
    9a1c:	00636f6c 	rsbeq	r6, r3, ip, ror #30
    9a20:	6362696c 	cmnvs	r2, #108, 18	; 0x1b0000
    9a24:	2d61762f 	stclcs	6, cr7, [r1, #-188]!	; 0xffffff44
    9a28:	6e697270 	mcrvs	2, 3, r7, cr9, cr0, {3}
    9a2c:	632e6b74 			; <UNDEFINED> instruction: 0x632e6b74
    9a30:	00000000 	andeq	r0, r0, r0
    9a34:	494e4150 	stmdbmi	lr, {r4, r6, r8, lr}^
    9a38:	73253a43 			; <UNDEFINED> instruction: 0x73253a43
    9a3c:	3a73253a 	bcc	1cd2f2c <__bss_end__+0x1cc8ecc>
    9a40:	303a6425 	eorscc	r6, sl, r5, lsr #8
    9a44:	0000000a 	andeq	r0, r0, sl
    9a48:	33323130 	teqcc	r2, #48, 2
    9a4c:	37363534 			; <UNDEFINED> instruction: 0x37363534
    9a50:	00003938 	andeq	r3, r0, r8, lsr r9
    9a54:	33323130 	teqcc	r2, #48, 2
    9a58:	37363534 			; <UNDEFINED> instruction: 0x37363534
    9a5c:	62613938 	rsbvs	r3, r1, #56, 18	; 0xe0000
    9a60:	66656463 	strbtvs	r6, [r5], -r3, ror #8
    9a64:	00000000 	andeq	r0, r0, r0
    9a68:	00003130 	andeq	r3, r0, r0, lsr r1
    9a6c:	494e4150 	stmdbmi	lr, {r4, r6, r8, lr}^
    9a70:	73253a43 			; <UNDEFINED> instruction: 0x73253a43
    9a74:	3a73253a 	bcc	1cd2f64 <__bss_end__+0x1cc8f04>
    9a78:	703a6425 	eorsvc	r6, sl, r5, lsr #8
    9a7c:	5f637475 	svcpl	0x00637475
    9a80:	000a7066 	andeq	r7, sl, r6, rrx
    9a84:	494e4150 	stmdbmi	lr, {r4, r6, r8, lr}^
    9a88:	73253a43 			; <UNDEFINED> instruction: 0x73253a43
    9a8c:	3a73253a 	bcc	1cd2f7c <__bss_end__+0x1cc8f1c>
    9a90:	773a6425 	ldrvc	r6, [sl, -r5, lsr #8]!
    9a94:	68746469 	ldmdavs	r4!, {r0, r3, r5, r6, sl, sp, lr}^
    9a98:	33203c20 			; <UNDEFINED> instruction: 0x33203c20
    9a9c:	00000a32 	andeq	r0, r0, r2, lsr sl
    9aa0:	494e4150 	stmdbmi	lr, {r4, r6, r8, lr}^
    9aa4:	73253a43 			; <UNDEFINED> instruction: 0x73253a43
    9aa8:	3a73253a 	bcc	1cd2f98 <__bss_end__+0x1cc8f38>
    9aac:	663a6425 	ldrtvs	r6, [sl], -r5, lsr #8
    9ab0:	74616f6c 	strbtvc	r6, [r1], #-3948	; 0xfffff094
    9ab4:	746f6e20 	strbtvc	r6, [pc], #-3616	; 9abc <__FUNCTION__.4407+0xa4>
    9ab8:	616e6520 	cmnvs	lr, r0, lsr #10
    9abc:	64656c62 	strbtvs	r6, [r5], #-3170	; 0xfffff39e
    9ac0:	0a212121 	beq	851f4c <__bss_end__+0x847eec>
    9ac4:	00000000 	andeq	r0, r0, r0
    9ac8:	494e4150 	stmdbmi	lr, {r4, r6, r8, lr}^
    9acc:	73253a43 			; <UNDEFINED> instruction: 0x73253a43
    9ad0:	3a73253a 	bcc	1cd2fc0 <__bss_end__+0x1cc8f60>
    9ad4:	703a6425 	eorsvc	r6, sl, r5, lsr #8
    9ad8:	746e6972 	strbtvc	r6, [lr], #-2418	; 0xfffff68e
    9adc:	6e203a6b 	vnmulvs.f32	s6, s0, s23
    9ae0:	6820746f 	stmdavs	r0!, {r0, r1, r2, r3, r5, r6, sl, ip, sp, lr}
    9ae4:	6c646e61 	stclvs	14, cr6, [r4], #-388	; 0xfffffe7c
    9ae8:	20676e69 	rsbcs	r6, r7, r9, ror #28
    9aec:	63657073 	cmnvs	r5, #115	; 0x73
    9af0:	65696669 	strbvs	r6, [r9, #-1641]!	; 0xfffff997
    9af4:	25272072 	strcs	r2, [r7, #-114]!	; 0xffffff8e
    9af8:	0a0a2763 	beq	29388c <__bss_end__+0x28982c>
    9afc:	00000000 	andeq	r0, r0, r0

00009b00 <__FUNCTION__.4349>:
    9b00:	74696d65 	strbtvc	r6, [r9], #-3429	; 0xfffff29b
    9b04:	00000000 	andeq	r0, r0, r0

00009b08 <__FUNCTION__.4297>:
    9b08:	5f697072 	svcpl	0x00697072
    9b0c:	5f746573 	svcpl	0x00746573
    9b10:	7074756f 	rsbsvc	r7, r4, pc, ror #10
    9b14:	00007475 	andeq	r7, r0, r5, ror r4

00009b18 <__FUNCTION__.4371>:
    9b18:	705f6176 	subsvc	r6, pc, r6, ror r1	; <UNPREDICTABLE>
    9b1c:	746e6972 	strbtvc	r6, [lr], #-2418	; 0xfffff68e
    9b20:	0000006b 	andeq	r0, r0, fp, rrx
    9b24:	454e4f44 	strbmi	r4, [lr, #-3908]	; 0xfffff0bc
    9b28:	0a212121 	beq	851fb4 <__bss_end__+0x847f54>
    9b2c:	00000000 	andeq	r0, r0, r0

00009b30 <__FUNCTION__.4237>:
    9b30:	6c616d6b 	stclvs	13, cr6, [r1], #-428	; 0xfffffe54
    9b34:	5f636f6c 	svcpl	0x00636f6c
    9b38:	74696e69 	strbtvc	r6, [r9], #-3689	; 0xfffff197
    9b3c:	7465735f 	strbtvc	r7, [r5], #-863	; 0xfffffca1
    9b40:	6174735f 	cmnvs	r4, pc, asr r3
    9b44:	00007472 	andeq	r7, r0, r2, ror r4

00009b48 <__FUNCTION__.4241>:
    9b48:	6c616d6b 	stclvs	13, cr6, [r1], #-428	; 0xfffffe54
    9b4c:	00636f6c 	rsbeq	r6, r3, ip, ror #30

00009b50 <__FUNCTION__.4253>:
    9b50:	6c616d6b 	stclvs	13, cr6, [r1], #-428	; 0xfffffe54
    9b54:	5f636f6c 	svcpl	0x00636f6c
    9b58:	67696c61 	strbvs	r6, [r9, -r1, ror #24]!
    9b5c:	0064656e 	rsbeq	r6, r4, lr, ror #10
    9b60:	6c616d6b 	stclvs	13, cr6, [r1], #-428	; 0xfffffe54
    9b64:	2e636f6c 	cdpcs	15, 6, cr6, cr3, cr12, {3}
    9b68:	00000063 	andeq	r0, r0, r3, rrx
    9b6c:	494e4150 	stmdbmi	lr, {r4, r6, r8, lr}^
    9b70:	73253a43 			; <UNDEFINED> instruction: 0x73253a43
    9b74:	3a73253a 	bcc	1cd3064 <__bss_end__+0x1cc9004>
    9b78:	613a6425 	teqvs	sl, r5, lsr #8
    9b7c:	20726464 	rsbscs	r6, r2, r4, ror #8
    9b80:	6568203e 	strbvs	r2, [r8, #-62]!	; 0xffffffc2
    9b84:	000a7061 	andeq	r7, sl, r1, rrx
    9b88:	494e4150 	stmdbmi	lr, {r4, r6, r8, lr}^
    9b8c:	73253a43 			; <UNDEFINED> instruction: 0x73253a43
    9b90:	3a73253a 	bcc	1cd3080 <__bss_end__+0x1cc9020>
    9b94:	733a6425 	teqvc	sl, #620756992	; 0x25000000
    9b98:	00000a7a 	andeq	r0, r0, sl, ror sl
    9b9c:	4f525245 	svcmi	0x00525245
    9ba0:	73253a52 			; <UNDEFINED> instruction: 0x73253a52
    9ba4:	3a73253a 	bcc	1cd3094 <__bss_end__+0x1cc9034>
    9ba8:	203a6425 	eorscs	r6, sl, r5, lsr #8
    9bac:	534c4146 	movtpl	r4, #49478	; 0xc146
    9bb0:	283c2845 	ldmdacs	ip!, {r0, r2, r6, fp, sp}
    9bb4:	6c612828 	stclvs	8, cr2, [r1], #-160	; 0xffffff60
    9bb8:	6d6e6769 	stclvs	7, cr6, [lr, #-420]!	; 0xfffffe5c
    9bbc:	29746e65 	ldmdbcs	r4!, {r0, r2, r5, r6, r9, sl, fp, sp, lr}^
    9bc0:	61282d26 			; <UNDEFINED> instruction: 0x61282d26
    9bc4:	6e67696c 	vnmulvs.f16	s13, s14, s25	; <UNPREDICTABLE>
    9bc8:	746e656d 	strbtvc	r6, [lr], #-1389	; 0xfffffa93
    9bcc:	3d202929 			; <UNDEFINED> instruction: 0x3d202929
    9bd0:	6128203d 			; <UNDEFINED> instruction: 0x6128203d
    9bd4:	6e67696c 	vnmulvs.f16	s13, s14, s25	; <UNPREDICTABLE>
    9bd8:	746e656d 	strbtvc	r6, [lr], #-1389	; 0xfffffa93
    9bdc:	293e2929 	ldmdbcs	lr!, {r0, r3, r5, r8, fp, sp}
    9be0:	7361203a 	cmnvc	r1, #58	; 0x3a
    9be4:	696d7573 	stmdbvs	sp!, {r0, r1, r4, r5, r6, r8, sl, ip, sp, lr}^
    9be8:	7020676e 	eorvc	r6, r0, lr, ror #14
    9bec:	7265776f 	rsbvc	r7, r5, #29097984	; 0x1bc0000
    9bf0:	20666f20 	rsbcs	r6, r6, r0, lsr #30
    9bf4:	0a6f7774 	beq	1be79cc <__bss_end__+0x1bdd96c>
    9bf8:	00000000 	andeq	r0, r0, r0
    9bfc:	4f525245 	svcmi	0x00525245
    9c00:	73253a52 			; <UNDEFINED> instruction: 0x73253a52
    9c04:	3a73253a 	bcc	1cd30f4 <__bss_end__+0x1cc9094>
    9c08:	203a6425 	eorscs	r6, sl, r5, lsr #8
    9c0c:	534c4146 	movtpl	r4, #49478	; 0xc146
    9c10:	283c2845 	ldmdacs	ip!, {r0, r2, r6, fp, sp}
    9c14:	29682828 	stmdbcs	r8!, {r3, r5, fp, sp}^
    9c18:	28202620 	stmdacs	r0!, {r5, r9, sl, sp}
    9c1c:	70797428 	rsbsvc	r7, r9, r8, lsr #8
    9c20:	28666f65 	stmdacs	r6!, {r0, r2, r5, r6, r8, r9, sl, fp, sp, lr}^
    9c24:	28292968 	stmdacs	r9!, {r3, r5, r6, r8, fp, sp}
    9c28:	67696c61 	strbvs	r6, [r9, -r1, ror #24]!
    9c2c:	6e656d6e 	cdpvs	13, 6, cr6, cr5, cr14, {3}
    9c30:	2d202974 			; <UNDEFINED> instruction: 0x2d202974
    9c34:	29293120 	stmdbcs	r9!, {r5, r8, ip, sp}
    9c38:	203d3d20 	eorscs	r3, sp, r0, lsr #26
    9c3c:	293e2930 	ldmdbcs	lr!, {r4, r5, r8, fp, sp}
    9c40:	6d69203a 	stclvs	0, cr2, [r9, #-232]!	; 0xffffff18
    9c44:	73736f70 	cmnvc	r3, #112, 30	; 0x1c0
    9c48:	656c6269 	strbvs	r6, [ip, #-617]!	; 0xfffffd97
    9c4c:	Address 0x0000000000009c4c is out of bounds.


Disassembly of section .bss:

00009c50 <__bss_start__>:
    9c50:	00000000 	andeq	r0, r0, r0

00009c54 <heap>:
    9c54:	00000000 	andeq	r0, r0, r0

00009c58 <heap_end>:
    9c58:	00000000 	andeq	r0, r0, r0

00009c5c <buf.4297>:
	...

Disassembly of section .ARM.attributes:

00000000 <.ARM.attributes>:
   0:	00002c41 	andeq	r2, r0, r1, asr #24
   4:	61656100 	cmnvs	r5, r0, lsl #2
   8:	01006962 	tsteq	r0, r2, ror #18
   c:	00000022 	andeq	r0, r0, r2, lsr #32
  10:	4b5a3605 	blmi	168d82c <__bss_end__+0x16837cc>
  14:	08070600 	stmdaeq	r7, {r9, sl}
  18:	0a010901 	beq	42424 <__bss_end__+0x383c4>
  1c:	14041202 	strne	r1, [r4], #-514	; 0xfffffdfe
  20:	17011501 	strne	r1, [r1, -r1, lsl #10]
  24:	1a011803 	bne	46038 <__bss_end__+0x3bfd8>
  28:	44012201 	strmi	r2, [r1], #-513	; 0xfffffdff
  2c:	Address 0x000000000000002c is out of bounds.


Disassembly of section .comment:

00000000 <.comment>:
   0:	3a434347 	bcc	10d0d24 <__bss_end__+0x10c6cc4>
   4:	72412820 	subvc	r2, r1, #32, 16	; 0x200000
   8:	52206863 	eorpl	r6, r0, #6488064	; 0x630000
   c:	736f7065 	cmnvc	pc, #101	; 0x65
  10:	726f7469 	rsbvc	r7, pc, #1761607680	; 0x69000000
  14:	39202979 	stmdbcc	r0!, {r0, r3, r4, r5, r6, r8, fp, sp}
  18:	302e322e 	eorcc	r3, lr, lr, lsr #4
  1c:	43434700 	movtmi	r4, #14080	; 0x3700
  20:	3128203a 			; <UNDEFINED> instruction: 0x3128203a
  24:	2e363a35 			; <UNDEFINED> instruction: 0x2e363a35
  28:	2b312e33 	blcs	c4b8fc <__bss_end__+0xc4189c>
  2c:	326e7673 	rsbcc	r7, lr, #120586240	; 0x7300000
  30:	33303335 	teqcc	r0, #-738197504	; 0xd4000000
  34:	62312d39 	eorsvs	r2, r1, #3648	; 0xe40
  38:	646c6975 	strbtvs	r6, [ip], #-2421	; 0xfffff68b
  3c:	36202931 			; <UNDEFINED> instruction: 0x36202931
  40:	312e332e 			; <UNDEFINED> instruction: 0x312e332e
  44:	31303220 	teqcc	r0, r0, lsr #4
  48:	32363037 	eorscc	r3, r6, #55	; 0x37
  4c:	Address 0x000000000000004c is out of bounds.


Disassembly of section .debug_info:

00000000 <.debug_info>:
       0:	00000b81 	andeq	r0, r0, r1, lsl #23
       4:	00000004 	andeq	r0, r0, r4
       8:	01040000 	mrseq	r0, (UNDEF: 4)
       c:	000002fd 	strdeq	r0, [r0], -sp
      10:	0002350c 	andeq	r3, r2, ip, lsl #10
      14:	0000cb00 	andeq	ip, r0, r0, lsl #22
      18:	00801000 	addeq	r1, r0, r0
      1c:	0000d400 	andeq	sp, r0, r0, lsl #8
      20:	00000000 	andeq	r0, r0, r0
      24:	05040200 	streq	r0, [r4, #-512]	; 0xfffffe00
      28:	00746e69 	rsbseq	r6, r4, r9, ror #28
      2c:	66070403 	strvs	r0, [r7], -r3, lsl #8
      30:	03000000 	movweq	r0, #0
      34:	02ec0601 	rsceq	r0, ip, #1048576	; 0x100000
      38:	02030000 	andeq	r0, r3, #0
      3c:	00038505 	andeq	r8, r3, r5, lsl #10
      40:	05040300 	streq	r0, [r4, #-768]	; 0xfffffd00
      44:	000000ac 	andeq	r0, r0, ip, lsr #1
      48:	a7050803 	strge	r0, [r5, -r3, lsl #16]
      4c:	03000000 	movweq	r0, #0
      50:	02ea0801 	rsceq	r0, sl, #65536	; 0x10000
      54:	02030000 	andeq	r0, r3, #0
      58:	00022207 	andeq	r2, r2, r7, lsl #4
      5c:	07040300 	streq	r0, [r4, -r0, lsl #6]
      60:	00000061 	andeq	r0, r0, r1, rrx
      64:	5c070803 	stcpl	8, cr0, [r7], {3}
      68:	04000000 	streq	r0, [r0], #-0
      6c:	00000273 	andeq	r0, r0, r3, ror r2
      70:	77192202 	ldrvc	r2, [r9, -r2, lsl #4]
      74:	05000000 	streq	r0, [r0, #-0]
      78:	00007d04 	andeq	r7, r0, r4, lsl #26
      7c:	042b0600 	strteq	r0, [fp], #-1536	; 0xfffffa00
      80:	cb040000 	blgt	100088 <__bss_end__+0xf6028>
      84:	03000002 	movweq	r0, #2
      88:	00410e2c 	subeq	r0, r1, ip, lsr #28
      8c:	40040000 	andmi	r0, r4, r0
      90:	03000004 	movweq	r0, #4
      94:	00410e72 	subeq	r0, r1, r2, ror lr
      98:	7b070000 	blvc	1c00a0 <__bss_end__+0x1b6040>
      9c:	04000002 	streq	r0, [r0], #-2
      a0:	2c17015e 	ldfcss	f0, [r7], {94}	; 0x5e
      a4:	08000000 	stmdaeq	r0, {}	; <UNPREDICTABLE>
      a8:	03a60304 			; <UNDEFINED> instruction: 0x03a60304
      ac:	000000c9 	andeq	r0, r0, r9, asr #1
      b0:	00026d09 	andeq	r6, r2, r9, lsl #26
      b4:	0ca80300 	stceq	3, cr0, [r8]
      b8:	0000009a 	muleq	r0, sl, r0
      bc:	0001e209 	andeq	lr, r1, r9, lsl #4
      c0:	13a90300 			; <UNDEFINED> instruction: 0x13a90300
      c4:	000000c9 	andeq	r0, r0, r9, asr #1
      c8:	004f0a00 	subeq	r0, pc, r0, lsl #20
      cc:	00d90000 	sbcseq	r0, r9, r0
      d0:	2c0b0000 	stccs	0, cr0, [fp], {-0}
      d4:	03000000 	movweq	r0, #0
      d8:	03080c00 	movweq	r0, #35840	; 0x8c00
      dc:	00fd09a3 	rscseq	r0, sp, r3, lsr #19
      e0:	230d0000 	movwcs	r0, #53248	; 0xd000
      e4:	03000004 	movweq	r0, #4
      e8:	002507a5 	eoreq	r0, r5, r5, lsr #15
      ec:	0d000000 	stceq	0, cr0, [r0, #-0]
      f0:	00000432 	andeq	r0, r0, r2, lsr r4
      f4:	a705aa03 	strge	sl, [r5, -r3, lsl #20]
      f8:	04000000 	streq	r0, [r0], #-0
      fc:	03ad0400 			; <UNDEFINED> instruction: 0x03ad0400
     100:	ab030000 	blge	c0108 <__bss_end__+0xb60a8>
     104:	0000d903 	andeq	sp, r0, r3, lsl #18
     108:	019f0400 	orrseq	r0, pc, r0, lsl #8
     10c:	af030000 	svcge	0x00030000
     110:	00006b1b 	andeq	r6, r0, fp, lsl fp
     114:	05040e00 	streq	r0, [r4, #-3584]	; 0xfffff200
     118:	00011d04 	andeq	r1, r1, r4, lsl #26
     11c:	08010300 	stmdaeq	r1, {r8, r9}
     120:	000002f3 	strdeq	r0, [r0], -r3
     124:	00011d0f 	andeq	r1, r1, pc, lsl #26
     128:	04720400 	ldrbteq	r0, [r2], #-1024	; 0xfffffc00
     12c:	16050000 	strne	r0, [r5], -r0
     130:	00005d19 	andeq	r5, r0, r9, lsl sp
     134:	01b01000 	movseq	r1, r0
     138:	05180000 	ldreq	r0, [r8, #-0]
     13c:	018f082f 	orreq	r0, pc, pc, lsr #16
     140:	ce0d0000 	cdpgt	0, 0, cr0, cr13, cr0, {0}
     144:	05000003 	streq	r0, [r0, #-3]
     148:	018f1331 	orreq	r1, pc, r1, lsr r3	; <UNPREDICTABLE>
     14c:	11000000 	mrsne	r0, (UNDEF: 0)
     150:	05006b5f 	streq	r6, [r0, #-2911]	; 0xfffff4a1
     154:	00250732 	eoreq	r0, r5, r2, lsr r7
     158:	0d040000 	stceq	0, cr0, [r4, #-0]
     15c:	0000040e 	andeq	r0, r0, lr, lsl #8
     160:	250b3205 	strcs	r3, [fp, #-517]	; 0xfffffdfb
     164:	08000000 	stmdaeq	r0, {}	; <UNPREDICTABLE>
     168:	0001990d 	andeq	r9, r1, sp, lsl #18
     16c:	14320500 	ldrtne	r0, [r2], #-1280	; 0xfffffb00
     170:	00000025 	andeq	r0, r0, r5, lsr #32
     174:	04ae0d0c 	strteq	r0, [lr], #3340	; 0xd0c
     178:	32050000 	andcc	r0, r5, #0
     17c:	0000251b 	andeq	r2, r0, fp, lsl r5
     180:	5f111000 	svcpl	0x00111000
     184:	33050078 	movwcc	r0, #20600	; 0x5078
     188:	0001950b 	andeq	r9, r1, fp, lsl #10
     18c:	05001400 	streq	r1, [r0, #-1024]	; 0xfffffc00
     190:	00013504 	andeq	r3, r1, r4, lsl #10
     194:	01290a00 			; <UNDEFINED> instruction: 0x01290a00
     198:	01a50000 			; <UNDEFINED> instruction: 0x01a50000
     19c:	2c0b0000 	stccs	0, cr0, [fp], {-0}
     1a0:	00000000 	andeq	r0, r0, r0
     1a4:	01dd1000 	bicseq	r1, sp, r0
     1a8:	05240000 	streq	r0, [r4, #-0]!
     1ac:	02280837 	eoreq	r0, r8, #3604480	; 0x370000
     1b0:	9e0d0000 	cdpls	0, 0, cr0, cr13, cr0, {0}
     1b4:	05000000 	streq	r0, [r0, #-0]
     1b8:	00250939 	eoreq	r0, r5, r9, lsr r9
     1bc:	0d000000 	stceq	0, cr0, [r0, #-0]
     1c0:	00000448 	andeq	r0, r0, r8, asr #8
     1c4:	25093a05 	strcs	r3, [r9, #-2565]	; 0xfffff5fb
     1c8:	04000000 	streq	r0, [r0], #-0
     1cc:	0000c10d 	andeq	ip, r0, sp, lsl #2
     1d0:	093b0500 	ldmdbeq	fp!, {r8, sl}
     1d4:	00000025 	andeq	r0, r0, r5, lsr #32
     1d8:	052f0d08 	streq	r0, [pc, #-3336]!	; fffff4d8 <__bss_end__+0xffff5478>
     1dc:	3c050000 	stccc	0, cr0, [r5], {-0}
     1e0:	00002509 	andeq	r2, r0, r9, lsl #10
     1e4:	af0d0c00 	svcge	0x000d0c00
     1e8:	05000002 	streq	r0, [r0, #-2]
     1ec:	0025093d 	eoreq	r0, r5, sp, lsr r9
     1f0:	0d100000 	ldceq	0, cr0, [r0, #-0]
     1f4:	00000291 	muleq	r0, r1, r2
     1f8:	25093e05 	strcs	r3, [r9, #-3589]	; 0xfffff1fb
     1fc:	14000000 	strne	r0, [r0], #-0
     200:	0004b30d 	andeq	fp, r4, sp, lsl #6
     204:	093f0500 	ldmdbeq	pc!, {r8, sl}	; <UNPREDICTABLE>
     208:	00000025 	andeq	r0, r0, r5, lsr #32
     20c:	038f0d18 	orreq	r0, pc, #24, 26	; 0x600
     210:	40050000 	andmi	r0, r5, r0
     214:	00002509 	andeq	r2, r0, r9, lsl #10
     218:	f60d1c00 			; <UNDEFINED> instruction: 0xf60d1c00
     21c:	05000004 	streq	r0, [r0, #-4]
     220:	00250941 	eoreq	r0, r5, r1, asr #18
     224:	00200000 	eoreq	r0, r0, r0
     228:	00010112 	andeq	r0, r1, r2, lsl r1
     22c:	05010800 	streq	r0, [r1, #-2048]	; 0xfffff800
     230:	026d084a 	rsbeq	r0, sp, #4849664	; 0x4a0000
     234:	8c0d0000 	stchi	0, cr0, [sp], {-0}
     238:	05000001 	streq	r0, [r0, #-1]
     23c:	026d0a4b 	rsbeq	r0, sp, #307200	; 0x4b000
     240:	0d000000 	stceq	0, cr0, [r0, #-0]
     244:	00000000 	andeq	r0, r0, r0
     248:	6d094c05 	stcvs	12, cr4, [r9, #-20]	; 0xffffffec
     24c:	80000002 	andhi	r0, r0, r2
     250:	00046413 	andeq	r6, r4, r3, lsl r4
     254:	0a4e0500 	beq	138165c <__bss_end__+0x13775fc>
     258:	00000129 	andeq	r0, r0, r9, lsr #2
     25c:	26130100 	ldrcs	r0, [r3], -r0, lsl #2
     260:	05000001 	streq	r0, [r0, #-1]
     264:	01290a51 			; <UNDEFINED> instruction: 0x01290a51
     268:	01040000 	mrseq	r0, (UNDEF: 4)
     26c:	01150a00 	tsteq	r5, r0, lsl #20
     270:	027d0000 	rsbseq	r0, sp, #0
     274:	2c0b0000 	stccs	0, cr0, [fp], {-0}
     278:	1f000000 	svcne	0x00000000
     27c:	02b81200 	adcseq	r1, r8, #0, 4
     280:	01900000 	orrseq	r0, r0, r0
     284:	c0085d05 	andgt	r5, r8, r5, lsl #26
     288:	0d000002 	stceq	0, cr0, [r0, #-8]
     28c:	000003ce 	andeq	r0, r0, lr, asr #7
     290:	c0125e05 	andsgt	r5, r2, r5, lsl #28
     294:	00000002 	andeq	r0, r0, r2
     298:	0003e60d 	andeq	lr, r3, sp, lsl #12
     29c:	065f0500 	ldrbeq	r0, [pc], -r0, lsl #10
     2a0:	00000025 	andeq	r0, r0, r5, lsr #32
     2a4:	01940d04 	orrseq	r0, r4, r4, lsl #26
     2a8:	61050000 	mrsvs	r0, (UNDEF: 5)
     2ac:	0002c609 	andeq	ip, r2, r9, lsl #12
     2b0:	010d0800 	tsteq	sp, r0, lsl #16
     2b4:	05000001 	streq	r0, [r0, #-1]
     2b8:	02281e62 	eoreq	r1, r8, #1568	; 0x620
     2bc:	00880000 	addeq	r0, r8, r0
     2c0:	027d0405 	rsbseq	r0, sp, #83886080	; 0x5000000
     2c4:	d60a0000 	strle	r0, [sl], -r0
     2c8:	d6000002 	strle	r0, [r0], -r2
     2cc:	0b000002 	bleq	2dc <_start-0x7d24>
     2d0:	0000002c 	andeq	r0, r0, ip, lsr #32
     2d4:	0405001f 	streq	r0, [r5], #-31	; 0xffffffe1
     2d8:	000002dc 	ldrdeq	r0, [r0], -ip
     2dc:	03991014 	orrseq	r1, r9, #20
     2e0:	05080000 	streq	r0, [r8, #-0]
     2e4:	03050875 	movweq	r0, #22645	; 0x5875
     2e8:	bb0d0000 	bllt	3402f0 <__bss_end__+0x336290>
     2ec:	05000000 	streq	r0, [r0, #-0]
     2f0:	03051176 	movweq	r1, #20854	; 0x5176
     2f4:	0d000000 	stceq	0, cr0, [r0, #-0]
     2f8:	0000001b 	andeq	r0, r0, fp, lsl r0
     2fc:	25067705 	strcs	r7, [r6, #-1797]	; 0xfffff8fb
     300:	04000000 	streq	r0, [r0], #-0
     304:	4f040500 	svcmi	0x00040500
     308:	10000000 	andne	r0, r0, r0
     30c:	000003b8 			; <UNDEFINED> instruction: 0x000003b8
     310:	08b50568 	ldmeq	r5!, {r3, r5, r6, r8, sl}
     314:	0000044e 	andeq	r0, r0, lr, asr #8
     318:	00705f11 	rsbseq	r5, r0, r1, lsl pc
     31c:	0512b605 	ldreq	fp, [r2, #-1541]	; 0xfffff9fb
     320:	00000003 	andeq	r0, r0, r3
     324:	00725f11 	rsbseq	r5, r2, r1, lsl pc
     328:	2507b705 	strcs	fp, [r7, #-1797]	; 0xfffff8fb
     32c:	04000000 	streq	r0, [r0], #-0
     330:	00775f11 	rsbseq	r5, r7, r1, lsl pc
     334:	2507b805 	strcs	fp, [r7, #-2053]	; 0xfffff7fb
     338:	08000000 	stmdaeq	r0, {}	; <UNPREDICTABLE>
     33c:	00011f0d 	andeq	r1, r1, sp, lsl #30
     340:	09b90500 	ldmibeq	r9!, {r8, sl}
     344:	0000003a 	andeq	r0, r0, sl, lsr r0
     348:	02080d0c 	andeq	r0, r8, #12, 26	; 0x300
     34c:	ba050000 	blt	140354 <__bss_end__+0x1362f4>
     350:	00003a09 	andeq	r3, r0, r9, lsl #20
     354:	5f110e00 	svcpl	0x00110e00
     358:	05006662 	streq	r6, [r0, #-1634]	; 0xfffff99e
     35c:	02dd11bb 	sbcseq	r1, sp, #-1073741778	; 0xc000002e
     360:	0d100000 	ldceq	0, cr0, [r0, #-0]
     364:	0000007b 	andeq	r0, r0, fp, ror r0
     368:	2507bc05 	strcs	fp, [r7, #-3077]	; 0xfffff3fb
     36c:	18000000 	stmdane	r0, {}	; <UNPREDICTABLE>
     370:	00010f0d 	andeq	r0, r1, sp, lsl #30
     374:	0ac30500 	beq	ff0c177c <__bss_end__+0xff0b771c>
     378:	00000115 	andeq	r0, r0, r5, lsl r1
     37c:	0b3d0d1c 	bleq	f437f4 <__bss_end__+0xf39794>
     380:	c5050000 	strgt	r0, [r5, #-0]
     384:	0005c01d 	andeq	ip, r5, sp, lsl r0
     388:	320d2000 	andcc	r2, sp, #0
     38c:	05000006 	streq	r0, [r0, #-6]
     390:	05ea1dc7 	strbeq	r1, [sl, #3527]!	; 0xdc7
     394:	0d240000 	stceq	0, cr0, [r4, #-0]
     398:	0000043a 	andeq	r0, r0, sl, lsr r4
     39c:	0e0dca05 	vmlaeq.f32	s24, s26, s10
     3a0:	28000006 	stmdacs	r0, {r1, r2}
     3a4:	0005100d 	andeq	r1, r5, sp
     3a8:	09cb0500 	stmibeq	fp, {r8, sl}^
     3ac:	00000628 	andeq	r0, r0, r8, lsr #12
     3b0:	755f112c 	ldrbvc	r1, [pc, #-300]	; 28c <_start-0x7d74>
     3b4:	ce050062 	cdpgt	0, 0, cr0, cr5, cr2, {3}
     3b8:	0002dd11 	andeq	sp, r2, r1, lsl sp
     3bc:	5f113000 	svcpl	0x00113000
     3c0:	05007075 	streq	r7, [r0, #-117]	; 0xffffff8b
     3c4:	030512cf 	movweq	r1, #21199	; 0x52cf
     3c8:	11380000 	teqne	r8, r0
     3cc:	0072755f 	rsbseq	r7, r2, pc, asr r5
     3d0:	2507d005 	strcs	sp, [r7, #-5]
     3d4:	3c000000 	stccc	0, cr0, [r0], {-0}
     3d8:	0000b50d 	andeq	fp, r0, sp, lsl #10
     3dc:	11d30500 	bicsne	r0, r3, r0, lsl #10
     3e0:	0000062e 	andeq	r0, r0, lr, lsr #12
     3e4:	04e80d40 	strbteq	r0, [r8], #3392	; 0xd40
     3e8:	d4050000 	strle	r0, [r5], #-0
     3ec:	00063e11 	andeq	r3, r6, r1, lsl lr
     3f0:	5f114300 	svcpl	0x00114300
     3f4:	0500626c 	streq	r6, [r0, #-620]	; 0xfffffd94
     3f8:	02dd11d7 	sbcseq	r1, sp, #-1073741771	; 0xc0000035
     3fc:	0d440000 	stcleq	0, cr0, [r4, #-0]
     400:	0000013d 	andeq	r0, r0, sp, lsr r1
     404:	2507da05 	strcs	sp, [r7, #-2565]	; 0xfffff5fb
     408:	4c000000 	stcmi	0, cr0, [r0], {-0}
     40c:	00014e0d 	andeq	r4, r1, sp, lsl #28
     410:	0adb0500 	beq	ff6c1818 <__bss_end__+0xff6b77b8>
     414:	00000082 	andeq	r0, r0, r2, lsl #1
     418:	0ade0d50 	beq	ff783960 <__bss_end__+0xff779900>
     41c:	de050000 	cdple	0, 0, cr0, cr5, cr0, {0}
     420:	00046c12 	andeq	r6, r4, r2, lsl ip
     424:	2c0d5400 	cfstrscs	mvf5, [sp], {-0}
     428:	05000004 	streq	r0, [r0, #-4]
     42c:	01090ce2 	smlatteq	r9, r2, ip, r0
     430:	0d580000 	ldcleq	0, cr0, [r8, #-0]
     434:	000003c0 	andeq	r0, r0, r0, asr #7
     438:	fd0ee405 	stc2	4, cr14, [lr, #-20]	; 0xffffffec
     43c:	5c000000 	stcpl	0, cr0, [r0], {-0}
     440:	0002890d 	andeq	r8, r2, sp, lsl #18
     444:	09e50500 	stmibeq	r5!, {r8, sl}^
     448:	00000025 	andeq	r0, r0, r5, lsr #32
     44c:	25150064 	ldrcs	r0, [r5, #-100]	; 0xffffff9c
     450:	6c000000 	stcvs	0, cr0, [r0], {-0}
     454:	16000004 	strne	r0, [r0], -r4
     458:	0000046c 	andeq	r0, r0, ip, ror #8
     45c:	00011516 	andeq	r1, r1, r6, lsl r5
     460:	01171600 	tsteq	r7, r0, lsl #12
     464:	25160000 	ldrcs	r0, [r6, #-0]
     468:	00000000 	andeq	r0, r0, r0
     46c:	04770405 	ldrbteq	r0, [r7], #-1029	; 0xfffffbfb
     470:	6c0f0000 	stcvs	0, cr0, [pc], {-0}
     474:	17000004 	strne	r0, [r0, -r4]
     478:	00000416 	andeq	r0, r0, r6, lsl r4
     47c:	60050428 	andvs	r0, r5, r8, lsr #8
     480:	05c00802 	strbeq	r0, [r0, #2050]	; 0x802
     484:	7e180000 	cdpvc	0, 1, cr0, cr8, cr0, {0}
     488:	05000003 	streq	r0, [r0, #-3]
     48c:	25070262 	strcs	r0, [r7, #-610]	; 0xfffffd9e
     490:	00000000 	andeq	r0, r0, r0
     494:	00012e18 	andeq	r2, r1, r8, lsl lr
     498:	02670500 	rsbeq	r0, r7, #0, 10
     49c:	00069a0b 	andeq	r9, r6, fp, lsl #20
     4a0:	f8180400 			; <UNDEFINED> instruction: 0xf8180400
     4a4:	05000001 	streq	r0, [r0, #-1]
     4a8:	9a140267 	bls	500e4c <__bss_end__+0x4f6dec>
     4ac:	08000006 	stmdaeq	r0, {r1, r2}
     4b0:	0001a818 	andeq	sl, r1, r8, lsl r8
     4b4:	02670500 	rsbeq	r0, r7, #0, 10
     4b8:	00069a1e 	andeq	r9, r6, lr, lsl sl
     4bc:	e1180c00 	tst	r8, r0, lsl #24
     4c0:	05000003 	streq	r0, [r0, #-3]
     4c4:	25080269 	strcs	r0, [r8, #-617]	; 0xfffffd97
     4c8:	10000000 	andne	r0, r0, r0
     4cc:	00002918 	andeq	r2, r0, r8, lsl r9
     4d0:	026a0500 	rsbeq	r0, sl, #0, 10
     4d4:	00089a08 	andeq	r9, r8, r8, lsl #20
     4d8:	f5181400 			; <UNDEFINED> instruction: 0xf5181400
     4dc:	05000003 	streq	r0, [r0, #-3]
     4e0:	2507026d 	strcs	r0, [r7, #-621]	; 0xfffffd93
     4e4:	30000000 	andcc	r0, r0, r0
     4e8:	000a1a18 	andeq	r1, sl, r8, lsl sl
     4ec:	026e0500 	rsbeq	r0, lr, #0, 10
     4f0:	0008af16 	andeq	sl, r8, r6, lsl pc
     4f4:	c0183400 	andsgt	r3, r8, r0, lsl #8
     4f8:	05000002 	streq	r0, [r0, #-2]
     4fc:	25070270 	strcs	r0, [r7, #-624]	; 0xfffffd90
     500:	38000000 	stmdacc	r0, {}	; <UNPREDICTABLE>
     504:	0003eb18 	andeq	lr, r3, r8, lsl fp
     508:	02720500 	rsbseq	r0, r2, #0, 10
     50c:	0008c00a 	andeq	ip, r8, sl
     510:	65183c00 	ldrvs	r3, [r8, #-3072]	; 0xfffff400
     514:	05000002 	streq	r0, [r0, #-2]
     518:	8f130275 	svchi	0x00130275
     51c:	40000001 	andmi	r0, r0, r1
     520:	0001c718 	andeq	ip, r1, r8, lsl r7
     524:	02760500 	rsbseq	r0, r6, #0, 10
     528:	00002507 	andeq	r2, r0, r7, lsl #10
     52c:	2a184400 	bcs	611534 <__bss_end__+0x6074d4>
     530:	05000005 	streq	r0, [r0, #-5]
     534:	8f130277 	svchi	0x00130277
     538:	48000001 	stmdami	r0, {r0}
     53c:	0002d218 	andeq	sp, r2, r8, lsl r2
     540:	02780500 	rsbseq	r0, r8, #0, 10
     544:	0008c614 	andeq	ip, r8, r4, lsl r6
     548:	00184c00 	andseq	r4, r8, r0, lsl #24
     54c:	05000002 	streq	r0, [r0, #-2]
     550:	2507027b 	strcs	r0, [r7, #-635]	; 0xfffffd85
     554:	50000000 	andpl	r0, r0, r0
     558:	00014618 	andeq	r4, r1, r8, lsl r6
     55c:	027c0500 	rsbseq	r0, ip, #0, 10
     560:	00011709 	andeq	r1, r1, r9, lsl #14
     564:	f8185400 			; <UNDEFINED> instruction: 0xf8185400
     568:	05000002 	streq	r0, [r0, #-2]
     56c:	7507029f 	strvc	r0, [r7, #-671]	; 0xfffffd61
     570:	58000008 	stmdapl	r0, {r3}
     574:	0002b819 	andeq	fp, r2, r9, lsl r8
     578:	02a30500 	adceq	r0, r3, #0, 10
     57c:	0002c013 	andeq	ip, r2, r3, lsl r0
     580:	19014800 	stmdbne	r1, {fp, lr}
     584:	00000243 	andeq	r0, r0, r3, asr #4
     588:	1202a405 	andne	sl, r2, #83886080	; 0x5000000
     58c:	0000027d 	andeq	r0, r0, sp, ror r2
     590:	d619014c 	ldrle	r0, [r9], -ip, asr #2
     594:	05000004 	streq	r0, [r0, #-4]
     598:	d70c02a8 	strle	r0, [ip, -r8, lsr #5]
     59c:	dc000008 	stcle	0, cr0, [r0], {8}
     5a0:	01171902 	tsteq	r7, r2, lsl #18
     5a4:	ad050000 	stcge	0, cr0, [r5, #-0]
     5a8:	065b1002 	ldrbeq	r1, [fp], -r2
     5ac:	02e00000 	rsceq	r0, r0, #0
     5b0:	0000fc19 	andeq	pc, r0, r9, lsl ip	; <UNPREDICTABLE>
     5b4:	02af0500 	adceq	r0, pc, #0, 10
     5b8:	0008e30a 	andeq	lr, r8, sl, lsl #6
     5bc:	0002ec00 	andeq	lr, r2, r0, lsl #24
     5c0:	044e0405 	strbeq	r0, [lr], #-1029	; 0xfffffbfb
     5c4:	25150000 	ldrcs	r0, [r5, #-0]
     5c8:	e4000000 	str	r0, [r0], #-0
     5cc:	16000005 	strne	r0, [r0], -r5
     5d0:	0000046c 	andeq	r0, r0, ip, ror #8
     5d4:	00011516 	andeq	r1, r1, r6, lsl r5
     5d8:	05e41600 	strbeq	r1, [r4, #1536]!	; 0x600
     5dc:	25160000 	ldrcs	r0, [r6, #-0]
     5e0:	00000000 	andeq	r0, r0, r0
     5e4:	01240405 			; <UNDEFINED> instruction: 0x01240405
     5e8:	04050000 	streq	r0, [r5], #-0
     5ec:	000005c6 	andeq	r0, r0, r6, asr #11
     5f0:	00008e15 	andeq	r8, r0, r5, lsl lr
     5f4:	00060e00 	andeq	r0, r6, r0, lsl #28
     5f8:	046c1600 	strbteq	r1, [ip], #-1536	; 0xfffffa00
     5fc:	15160000 	ldrne	r0, [r6, #-0]
     600:	16000001 	strne	r0, [r0], -r1
     604:	0000008e 	andeq	r0, r0, lr, lsl #1
     608:	00002516 	andeq	r2, r0, r6, lsl r5
     60c:	04050000 	streq	r0, [r5], #-0
     610:	000005f0 	strdeq	r0, [r0], -r0	; <UNPREDICTABLE>
     614:	00002515 	andeq	r2, r0, r5, lsl r5
     618:	00062800 	andeq	r2, r6, r0, lsl #16
     61c:	046c1600 	strbteq	r1, [ip], #-1536	; 0xfffffa00
     620:	15160000 	ldrne	r0, [r6, #-0]
     624:	00000001 	andeq	r0, r0, r1
     628:	06140405 	ldreq	r0, [r4], -r5, lsl #8
     62c:	4f0a0000 	svcmi	0x000a0000
     630:	3e000000 	cdpcc	0, 0, cr0, cr0, cr0, {0}
     634:	0b000006 	bleq	654 <_start-0x79ac>
     638:	0000002c 	andeq	r0, r0, ip, lsr #32
     63c:	4f0a0002 	svcmi	0x000a0002
     640:	4e000000 	cdpmi	0, 0, cr0, cr0, cr0, {0}
     644:	0b000006 	bleq	664 <_start-0x799c>
     648:	0000002c 	andeq	r0, r0, ip, lsr #32
     64c:	a6070000 	strge	r0, [r7], -r0
     650:	05000003 	streq	r0, [r0, #-3]
     654:	0b1a011f 	bleq	680ad8 <__bss_end__+0x676a78>
     658:	1a000003 	bne	66c <_start-0x7994>
     65c:	000004bd 			; <UNDEFINED> instruction: 0x000004bd
     660:	0123050c 			; <UNDEFINED> instruction: 0x0123050c
     664:	00069408 	andeq	r9, r6, r8, lsl #8
     668:	03ce1800 	biceq	r1, lr, #0, 16
     66c:	25050000 	strcs	r0, [r5, #-0]
     670:	06941101 	ldreq	r1, [r4], r1, lsl #2
     674:	18000000 	stmdane	r0, {}	; <UNPREDICTABLE>
     678:	0000021b 	andeq	r0, r0, fp, lsl r2
     67c:	07012605 	streq	r2, [r1, -r5, lsl #12]
     680:	00000025 	andeq	r0, r0, r5, lsr #32
     684:	03a01804 	moveq	r1, #4, 16	; 0x40000
     688:	27050000 	strcs	r0, [r5, -r0]
     68c:	069a0b01 	ldreq	r0, [sl], r1, lsl #22
     690:	00080000 	andeq	r0, r8, r0
     694:	065b0405 	ldrbeq	r0, [fp], -r5, lsl #8
     698:	04050000 	streq	r0, [r5], #-0
     69c:	0000064e 	andeq	r0, r0, lr, asr #12
     6a0:	0000211a 	andeq	r2, r0, sl, lsl r1
     6a4:	3f050e00 	svccc	0x00050e00
     6a8:	06d90801 	ldrbeq	r0, [r9], r1, lsl #16
     6ac:	1d180000 	ldcne	0, cr0, [r8, #-0]
     6b0:	05000004 	streq	r0, [r0, #-4]
     6b4:	d9120140 	ldmdble	r2, {r6, r8}
     6b8:	00000006 	andeq	r0, r0, r6
     6bc:	00045118 	andeq	r5, r4, r8, lsl r1
     6c0:	01410500 	cmpeq	r1, r0, lsl #10
     6c4:	0006d912 	andeq	sp, r6, r2, lsl r9
     6c8:	6d180600 	ldcvs	6, cr0, [r8, #-0]
     6cc:	05000004 	streq	r0, [r0, #-4]
     6d0:	56120142 	ldrpl	r0, [r2], -r2, asr #2
     6d4:	0c000000 	stceq	0, cr0, [r0], {-0}
     6d8:	00560a00 	subseq	r0, r6, r0, lsl #20
     6dc:	06e90000 	strbteq	r0, [r9], r0
     6e0:	2c0b0000 	stccs	0, cr0, [fp], {-0}
     6e4:	02000000 	andeq	r0, r0, #0
     6e8:	05d01b00 	ldrbeq	r1, [r0, #2816]	; 0xb00
     6ec:	fe070280 	cdp2	2, 0, cr0, cr7, cr0, {4}
     6f0:	18000007 	stmdane	r0, {r0, r1, r2}
     6f4:	000004a1 	andeq	r0, r0, r1, lsr #9
     6f8:	18028205 	stmdane	r2, {r0, r2, r9, pc}
     6fc:	0000002c 	andeq	r0, r0, ip, lsr #32
     700:	04571800 	ldrbeq	r1, [r7], #-2048	; 0xfffff800
     704:	83050000 	movwhi	r0, #20480	; 0x5000
     708:	01171202 	tsteq	r7, r2, lsl #4
     70c:	18040000 	stmdane	r4, {}	; <UNPREDICTABLE>
     710:	00000258 	andeq	r0, r0, r8, asr r2
     714:	10028405 	andne	r8, r2, r5, lsl #8
     718:	000007fe 	strdeq	r0, [r0], -lr
     71c:	05011808 	streq	r1, [r1, #-2056]	; 0xfffff7f8
     720:	85050000 	strhi	r0, [r5, #-0]
     724:	01a51702 			; <UNDEFINED> instruction: 0x01a51702
     728:	18240000 	stmdane	r4!, {}	; <UNPREDICTABLE>
     72c:	000001b8 			; <UNDEFINED> instruction: 0x000001b8
     730:	0f028605 	svceq	0x00028605
     734:	00000025 	andeq	r0, r0, r5, lsr #32
     738:	03c91848 	biceq	r1, r9, #72, 16	; 0x480000
     73c:	87050000 	strhi	r0, [r5, -r0]
     740:	00642c02 	rsbeq	r2, r4, r2, lsl #24
     744:	18500000 	ldmdane	r0, {}^	; <UNPREDICTABLE>
     748:	00000517 	andeq	r0, r0, r7, lsl r5
     74c:	1a028805 	bne	a2768 <__bss_end__+0x98708>
     750:	000006a0 	andeq	r0, r0, r0, lsr #13
     754:	03d41858 	bicseq	r1, r4, #88, 16	; 0x580000
     758:	89050000 	stmdbhi	r5, {}	; <UNPREDICTABLE>
     75c:	00fd1602 	rscseq	r1, sp, r2, lsl #12
     760:	18680000 	stmdane	r8!, {}^	; <UNPREDICTABLE>
     764:	0000051c 	andeq	r0, r0, ip, lsl r5
     768:	16028a05 	strne	r8, [r2], -r5, lsl #20
     76c:	000000fd 	strdeq	r0, [r0], -sp
     770:	02dc1870 	sbcseq	r1, ip, #112, 16	; 0x700000
     774:	8b050000 	blhi	14077c <__bss_end__+0x13671c>
     778:	00fd1602 	rscseq	r1, sp, r2, lsl #12
     77c:	18780000 	ldmdane	r8!, {}^	; <UNPREDICTABLE>
     780:	000004cc 	andeq	r0, r0, ip, asr #9
     784:	10028c05 	andne	r8, r2, r5, lsl #24
     788:	0000080e 	andeq	r0, r0, lr, lsl #16
     78c:	024c1880 	subeq	r1, ip, #128, 16	; 0x800000
     790:	8d050000 	stchi	0, cr0, [r5, #-0]
     794:	081e1002 	ldmdaeq	lr, {r1, ip}
     798:	18880000 	stmne	r8, {}	; <UNPREDICTABLE>
     79c:	0000047a 	andeq	r0, r0, sl, ror r4
     7a0:	0f028e05 	svceq	0x00028e05
     7a4:	00000025 	andeq	r0, r0, r5, lsr #32
     7a8:	017e18a0 	cmneq	lr, r0, lsr #17
     7ac:	8f050000 	svchi	0x00050000
     7b0:	00fd1602 	rscseq	r1, sp, r2, lsl #12
     7b4:	18a40000 	stmiane	r4!, {}	; <UNPREDICTABLE>
     7b8:	0000008f 	andeq	r0, r0, pc, lsl #1
     7bc:	16029005 	strne	r9, [r2], -r5
     7c0:	000000fd 	strdeq	r0, [r0], -sp
     7c4:	016d18ac 	cmneq	sp, ip, lsr #17
     7c8:	91050000 	mrsls	r0, (UNDEF: 5)
     7cc:	00fd1602 	rscseq	r1, sp, r2, lsl #12
     7d0:	18b40000 	ldmne	r4!, {}	; <UNPREDICTABLE>
     7d4:	0000003c 	andeq	r0, r0, ip, lsr r0
     7d8:	16029205 	strne	r9, [r2], -r5, lsl #4
     7dc:	000000fd 	strdeq	r0, [r0], -sp
     7e0:	004b18bc 	strheq	r1, [fp], #-140	; 0xffffff74
     7e4:	93050000 	movwls	r0, #20480	; 0x5000
     7e8:	00fd1602 	rscseq	r1, sp, r2, lsl #12
     7ec:	18c40000 	stmiane	r4, {}^	; <UNPREDICTABLE>
     7f0:	0000037c 	andeq	r0, r0, ip, ror r3
     7f4:	08029405 	stmdaeq	r2, {r0, r2, sl, ip, pc}
     7f8:	00000025 	andeq	r0, r0, r5, lsr #32
     7fc:	1d0a00cc 	stcne	0, cr0, [sl, #-816]	; 0xfffffcd0
     800:	0e000001 	cdpeq	0, 0, cr0, cr0, cr1, {0}
     804:	0b000008 	bleq	82c <_start-0x77d4>
     808:	0000002c 	andeq	r0, r0, ip, lsr #32
     80c:	1d0a0019 	stcne	0, cr0, [sl, #-100]	; 0xffffff9c
     810:	1e000001 	cdpne	0, 0, cr0, cr0, cr1, {0}
     814:	0b000008 	bleq	83c <_start-0x77c4>
     818:	0000002c 	andeq	r0, r0, ip, lsr #32
     81c:	1d0a0007 	stcne	0, cr0, [sl, #-28]	; 0xffffffe4
     820:	2e000001 	cdpcs	0, 0, cr0, cr0, cr1, {0}
     824:	0b000008 	bleq	84c <_start-0x77b4>
     828:	0000002c 	andeq	r0, r0, ip, lsr #32
     82c:	f01b0017 			; <UNDEFINED> instruction: 0xf01b0017
     830:	07029905 	streq	r9, [r2, -r5, lsl #18]
     834:	00000855 	andeq	r0, r0, r5, asr r8
     838:	0002a818 	andeq	sl, r2, r8, lsl r8
     83c:	029c0500 	addseq	r0, ip, #0, 10
     840:	0008551b 	andeq	r5, r8, fp, lsl r5
     844:	c3180000 	tstgt	r8, #0
     848:	05000004 	streq	r0, [r0, #-4]
     84c:	6518029d 	ldrvs	r0, [r8, #-669]	; 0xfffffd63
     850:	78000008 	stmdavc	r0, {r3}
     854:	03050a00 	movweq	r0, #23040	; 0x5a00
     858:	08650000 	stmdaeq	r5!, {}^	; <UNPREDICTABLE>
     85c:	2c0b0000 	stccs	0, cr0, [fp], {-0}
     860:	1d000000 	stcne	0, cr0, [r0, #-0]
     864:	002c0a00 	eoreq	r0, ip, r0, lsl #20
     868:	08750000 	ldmdaeq	r5!, {}^	; <UNPREDICTABLE>
     86c:	2c0b0000 	stccs	0, cr0, [fp], {-0}
     870:	1d000000 	stcne	0, cr0, [r0, #-0]
     874:	05f01c00 	ldrbeq	r1, [r0, #3072]!	; 0xc00
     878:	9a03027e 	bls	c1278 <__bss_end__+0xb7218>
     87c:	1d000008 	stcne	0, cr0, [r0, #-32]	; 0xffffffe0
     880:	00000416 	andeq	r0, r0, r6, lsl r4
     884:	0b029505 	bleq	a5ca0 <__bss_end__+0x9bc40>
     888:	000006e9 	andeq	r0, r0, r9, ror #13
     88c:	0004ee1d 	andeq	lr, r4, sp, lsl lr
     890:	029e0500 	addseq	r0, lr, #0, 10
     894:	00082e0b 	andeq	r2, r8, fp, lsl #28
     898:	1d0a0000 	stcne	0, cr0, [sl, #-0]
     89c:	aa000001 	bge	8a8 <_start-0x7758>
     8a0:	0b000008 	bleq	8c8 <_start-0x7738>
     8a4:	0000002c 	andeq	r0, r0, ip, lsr #32
     8a8:	84060018 	strhi	r0, [r6], #-24	; 0xffffffe8
     8ac:	05000000 	streq	r0, [r0, #-0]
     8b0:	0008aa04 	andeq	sl, r8, r4, lsl #20
     8b4:	08c01e00 	stmiaeq	r0, {r9, sl, fp, ip}^
     8b8:	6c160000 	ldcvs	0, cr0, [r6], {-0}
     8bc:	00000004 	andeq	r0, r0, r4
     8c0:	08b50405 	ldmeq	r5!, {r0, r2, sl}
     8c4:	04050000 	streq	r0, [r5], #-0
     8c8:	0000018f 	andeq	r0, r0, pc, lsl #3
     8cc:	0008d71e 	andeq	sp, r8, lr, lsl r7
     8d0:	00251600 	eoreq	r1, r5, r0, lsl #12
     8d4:	05000000 	streq	r0, [r0, #-0]
     8d8:	0008dd04 	andeq	sp, r8, r4, lsl #26
     8dc:	cc040500 	cfstr32gt	mvfx0, [r4], {-0}
     8e0:	0a000008 	beq	908 <_start-0x76f8>
     8e4:	0000064e 	andeq	r0, r0, lr, asr #12
     8e8:	000008f3 	strdeq	r0, [r0], -r3
     8ec:	00002c0b 	andeq	r2, r0, fp, lsl #24
     8f0:	1f000200 	svcne	0x00000200
     8f4:	0000048e 	andeq	r0, r0, lr, lsl #9
     8f8:	17032e05 	strne	r2, [r3, -r5, lsl #28]
     8fc:	0000046c 	andeq	r0, r0, ip, ror #8
     900:	0004871f 	andeq	r8, r4, pc, lsl r7
     904:	032f0500 			; <UNDEFINED> instruction: 0x032f0500
     908:	0004721d 	andeq	r7, r4, sp, lsl r2
     90c:	00251500 	eoreq	r1, r5, r0, lsl #10
     910:	091c0000 	ldmdbeq	ip, {}	; <UNPREDICTABLE>
     914:	25160000 	ldrcs	r0, [r6, #-0]
     918:	00000000 	andeq	r0, r0, r0
     91c:	0001d120 	andeq	sp, r1, r0, lsr #2
     920:	0e1d0600 	cfmsub32eq	mvax0, mvfx0, mvfx13, mvfx0
     924:	00000928 	andeq	r0, r0, r8, lsr #18
     928:	090d0405 	stmdbeq	sp, {r0, r2, sl}
     92c:	25150000 	ldrcs	r0, [r5, #-0]
     930:	3d000000 	stccc	0, cr0, [r0, #-0]
     934:	16000009 	strne	r0, [r0], -r9
     938:	000005e4 	andeq	r0, r0, r4, ror #11
     93c:	07812000 	streq	r2, [r1, r0]
     940:	22060000 	andcs	r0, r6, #0
     944:	0009490e 	andeq	r4, r9, lr, lsl #18
     948:	2e040500 	cfsh32cs	mvfx0, mvfx4, #0
     94c:	21000009 	tstcs	r0, r9
     950:	00000034 	andeq	r0, r0, r4, lsr r0
     954:	10060d01 	andne	r0, r6, r1, lsl #26
     958:	d4000080 	strle	r0, [r0], #-128	; 0xffffff80
     95c:	01000000 	mrseq	r0, (UNDEF: 0)
     960:	000af79c 	muleq	sl, ip, r7
     964:	006e2200 	rsbeq	r2, lr, r0, lsl #4
     968:	2c0e1201 	sfmcs	f1, 4, [lr], {1}
     96c:	00000000 	andeq	r0, r0, r0
     970:	23001000 	movwcs	r1, #0
     974:	15010070 	strne	r0, [r1, #-112]	; 0xffffff90
     978:	0001170b 	andeq	r1, r1, fp, lsl #14
     97c:	00000400 	andeq	r0, r0, r0, lsl #8
     980:	00000000 	andeq	r0, r0, r0
     984:	020e2400 	andeq	r2, lr, #0, 8
     988:	0b070000 	bleq	1c0990 <__bss_end__+0x1b6930>
     98c:	03050000 	movweq	r0, #20480	; 0x5000
     990:	00009714 	andeq	r9, r0, r4, lsl r7
     994:	00801c25 	addeq	r1, r0, r5, lsr #24
     998:	000b0c00 	andeq	r0, fp, r0, lsl #24
     99c:	0009ab00 	andeq	sl, r9, r0, lsl #22
     9a0:	50012600 	andpl	r2, r1, r0, lsl #12
     9a4:	96a00305 	strtls	r0, [r0], r5, lsl #6
     9a8:	25000000 	strcs	r0, [r0, #-0]
     9ac:	00008024 	andeq	r8, r0, r4, lsr #32
     9b0:	00000b18 	andeq	r0, r0, r8, lsl fp
     9b4:	000009c0 	andeq	r0, r0, r0, asr #19
     9b8:	03500126 	cmpeq	r0, #-2147483639	; 0x80000009
     9bc:	00244040 	eoreq	r4, r4, r0, asr #32
     9c0:	00802c25 	addeq	r2, r0, r5, lsr #24
     9c4:	000b2400 	andeq	r2, fp, r0, lsl #8
     9c8:	0009d500 	andeq	sp, r9, r0, lsl #10
     9cc:	50012600 	andpl	r2, r1, r0, lsl #12
     9d0:	24404003 	strbcs	r4, [r0], #-3
     9d4:	80342500 	eorshi	r2, r4, r0, lsl #10
     9d8:	0b300000 	bleq	c009e0 <__bss_end__+0xbf6980>
     9dc:	09ea0000 	stmibeq	sl!, {}^	; <UNPREDICTABLE>
     9e0:	01260000 			; <UNDEFINED> instruction: 0x01260000
     9e4:	40400351 	submi	r0, r0, r1, asr r3
     9e8:	50250024 	eorpl	r0, r5, r4, lsr #32
     9ec:	3c000080 	stccc	0, cr0, [r0], {128}	; 0x80
     9f0:	0e00000b 	cdpeq	0, 0, cr0, cr0, cr11, {0}
     9f4:	2600000a 	strcs	r0, [r0], -sl
     9f8:	34015001 	strcc	r5, [r1], #-1
     9fc:	02510126 	subseq	r0, r1, #-2147483639	; 0x80000009
     a00:	01260075 			; <UNDEFINED> instruction: 0x01260075
     a04:	00760252 	rsbseq	r0, r6, r2, asr r2
     a08:	01530126 	cmpeq	r3, r6, lsr #2
     a0c:	5c250045 	stcpl	0, cr0, [r5], #-276	; 0xfffffeec
     a10:	0c000080 	stceq	0, cr0, [r0], {128}	; 0x80
     a14:	2500000b 	strcs	r0, [r0, #-11]
     a18:	2600000a 	strcs	r0, [r0], -sl
     a1c:	03055001 	movweq	r5, #20481	; 0x5001
     a20:	000096b8 			; <UNDEFINED> instruction: 0x000096b8
     a24:	80682500 	rsbhi	r2, r8, r0, lsl #10
     a28:	0b0c0000 	bleq	300a30 <__bss_end__+0x2f69d0>
     a2c:	0a420000 	beq	1080a34 <__bss_end__+0x10769d4>
     a30:	01260000 			; <UNDEFINED> instruction: 0x01260000
     a34:	c0030550 	andgt	r0, r3, r0, asr r5
     a38:	26000096 			; <UNDEFINED> instruction: 0x26000096
     a3c:	74025101 	strvc	r5, [r2], #-257	; 0xfffffeff
     a40:	78250000 	stmdavc	r5!, {}	; <UNPREDICTABLE>
     a44:	48000080 	stmdami	r0, {r7}
     a48:	6000000b 	andvs	r0, r0, fp
     a4c:	2600000a 	strcs	r0, [r0], -sl
     a50:	74025001 	strvc	r5, [r2], #-1
     a54:	51012600 	tstpl	r1, r0, lsl #12
     a58:	01263001 			; <UNDEFINED> instruction: 0x01263001
     a5c:	00340152 	eorseq	r0, r4, r2, asr r1
     a60:	00808c25 	addeq	r8, r0, r5, lsr #24
     a64:	000b5400 	andeq	r5, fp, r0, lsl #8
     a68:	000a8500 	andeq	r8, sl, r0, lsl #10
     a6c:	50012600 	andpl	r2, r1, r0, lsl #12
     a70:	26007402 	strcs	r7, [r0], -r2, lsl #8
     a74:	75025101 	strvc	r5, [r2, #-257]	; 0xfffffeff
     a78:	52012600 	andpl	r2, r1, #0, 12
     a7c:	26007602 	strcs	r7, [r0], -r2, lsl #12
     a80:	48015301 	stmdami	r1, {r0, r8, r9, ip, lr}
     a84:	80902700 	addshi	r2, r0, r0, lsl #14
     a88:	0b600000 	bleq	1800a90 <__bss_end__+0x17f6a30>
     a8c:	a0250000 	eorge	r0, r5, r0
     a90:	0c000080 	stceq	0, cr0, [r0], {128}	; 0x80
     a94:	a500000b 	strge	r0, [r0, #-11]
     a98:	2600000a 	strcs	r0, [r0], -sl
     a9c:	03055001 	movweq	r5, #20481	; 0x5001
     aa0:	000096b8 			; <UNDEFINED> instruction: 0x000096b8
     aa4:	80a82500 	adchi	r2, r8, r0, lsl #10
     aa8:	0b0c0000 	bleq	300ab0 <__bss_end__+0x2f6a50>
     aac:	0abc0000 	beq	fef00ab4 <__bss_end__+0xfeef6a54>
     ab0:	01260000 			; <UNDEFINED> instruction: 0x01260000
     ab4:	f8030550 			; <UNDEFINED> instruction: 0xf8030550
     ab8:	00000096 	muleq	r0, r6, r0
     abc:	0080b027 	addeq	fp, r0, r7, lsr #32
     ac0:	000b6c00 	andeq	r6, fp, r0, lsl #24
     ac4:	80c42500 	sbchi	r2, r4, r0, lsl #10
     ac8:	0b0c0000 	bleq	300ad0 <__bss_end__+0x2f6a70>
     acc:	0aed0000 	beq	ffb40ad4 <__bss_end__+0xffb36a74>
     ad0:	01260000 			; <UNDEFINED> instruction: 0x01260000
     ad4:	d4030550 	strle	r0, [r3], #-1360	; 0xfffffab0
     ad8:	26000096 			; <UNDEFINED> instruction: 0x26000096
     adc:	75025101 	strvc	r5, [r2, #-257]	; 0xfffffeff
     ae0:	52012600 	andpl	r2, r1, #0, 12
     ae4:	26007602 	strcs	r7, [r0], -r2, lsl #12
     ae8:	4a015301 	bmi	556f4 <__bss_end__+0x4b694>
     aec:	80c82700 	sbchi	r2, r8, r0, lsl #14
     af0:	0b780000 	bleq	1e00af8 <__bss_end__+0x1df6a98>
     af4:	0a000000 	beq	afc <_start-0x7504>
     af8:	00000124 	andeq	r0, r0, r4, lsr #2
     afc:	00000b07 	andeq	r0, r0, r7, lsl #22
     b00:	00002c0b 	andeq	r2, r0, fp, lsl #24
     b04:	0f000700 	svceq	0x00000700
     b08:	00000af7 	strdeq	r0, [r0], -r7
     b0c:	00071828 	andeq	r1, r7, r8, lsr #16
     b10:	00071800 	andeq	r1, r7, r0, lsl #16
     b14:	05290600 	streq	r0, [r9, #-1536]!	; 0xfffffa00
     b18:	00015628 	andeq	r5, r1, r8, lsr #12
     b1c:	00015600 	andeq	r5, r1, r0, lsl #12
     b20:	06720600 	ldrbteq	r0, [r2], -r0, lsl #12
     b24:	0004e028 	andeq	lr, r4, r8, lsr #32
     b28:	0004e000 	andeq	lr, r4, r0
     b2c:	076c0600 	strbeq	r0, [ip, -r0, lsl #12]!
     b30:	00013528 	andeq	r3, r1, r8, lsr #10
     b34:	00013500 	andeq	r3, r1, r0, lsl #10
     b38:	06770700 	ldrbteq	r0, [r7], -r0, lsl #14
     b3c:	00007328 	andeq	r7, r0, r8, lsr #6
     b40:	00007300 	andeq	r7, r0, r0, lsl #6
     b44:	08740700 	ldmdaeq	r4!, {r8, r9, sl}^
     b48:	00049a28 	andeq	r9, r4, r8, lsr #20
     b4c:	00049a00 	andeq	r9, r4, r0, lsl #20
     b50:	09210800 	stmdbeq	r1!, {fp}
     b54:	00028228 	andeq	r8, r2, r8, lsr #4
     b58:	00028200 	andeq	r8, r2, r0, lsl #4
     b5c:	07750700 	ldrbeq	r0, [r5, -r0, lsl #14]!
     b60:	00000c28 	andeq	r0, r0, r8, lsr #24
     b64:	00000c00 	andeq	r0, r0, r0, lsl #24
     b68:	057d0700 	ldrbeq	r0, [sp, #-1792]!	; 0xfffff900
     b6c:	0001e928 	andeq	lr, r1, r8, lsr #18
     b70:	0001e900 	andeq	lr, r1, r0, lsl #18
     b74:	061e0600 	ldreq	r0, [lr], -r0, lsl #12
     b78:	00029b28 	andeq	r9, r2, r8, lsr #22
     b7c:	00029b00 	andeq	r9, r2, r0, lsl #22
     b80:	06650600 	strbteq	r0, [r5], -r0, lsl #12
     b84:	001a3200 	andseq	r3, sl, r0, lsl #4
     b88:	3a000400 	bcc	1b90 <_start-0x6470>
     b8c:	04000002 	streq	r0, [r0], #-2
     b90:	0002fd01 	andeq	pc, r2, r1, lsl #26
     b94:	05e00c00 	strbeq	r0, [r0, #3072]!	; 0xc00
     b98:	00cb0000 	sbceq	r0, fp, r0
     b9c:	80e40000 	rschi	r0, r4, r0
     ba0:	08d80000 	ldmeq	r8, {}^	; <UNPREDICTABLE>
     ba4:	01470000 	mrseq	r0, (UNDEF: 71)
     ba8:	04020000 	streq	r0, [r2], #-0
     bac:	746e6905 	strbtvc	r6, [lr], #-2309	; 0xfffff6fb
     bb0:	07040300 	streq	r0, [r4, -r0, lsl #6]
     bb4:	00000066 	andeq	r0, r0, r6, rrx
     bb8:	ec060103 	stfs	f0, [r6], {3}
     bbc:	03000002 	movweq	r0, #2
     bc0:	03850502 	orreq	r0, r5, #8388608	; 0x800000
     bc4:	04030000 	streq	r0, [r3], #-0
     bc8:	0000ac05 	andeq	sl, r0, r5, lsl #24
     bcc:	05080300 	streq	r0, [r8, #-768]	; 0xfffffd00
     bd0:	000000a7 	andeq	r0, r0, r7, lsr #1
     bd4:	00069f04 	andeq	r9, r6, r4, lsl #30
     bd8:	182e0300 	stmdane	lr!, {r8, r9}
     bdc:	0000005b 	andeq	r0, r0, fp, asr r0
     be0:	ea080103 	b	200ff4 <__bss_end__+0x1f6f94>
     be4:	03000002 	movweq	r0, #2
     be8:	02220702 	eoreq	r0, r2, #524288	; 0x80000
     bec:	5d040000 	stcpl	0, cr0, [r4, #-0]
     bf0:	03000006 	movweq	r0, #6
     bf4:	00751934 	rsbseq	r1, r5, r4, lsr r9
     bf8:	04030000 	streq	r0, [r3], #-0
     bfc:	00006107 	andeq	r6, r0, r7, lsl #2
     c00:	07080300 	streq	r0, [r8, -r0, lsl #6]
     c04:	0000005c 	andeq	r0, r0, ip, asr r0
     c08:	00027304 	andeq	r7, r2, r4, lsl #6
     c0c:	19220400 	stmdbne	r2!, {sl}
     c10:	0000008f 	andeq	r0, r0, pc, lsl #1
     c14:	00950405 	addseq	r0, r5, r5, lsl #8
     c18:	2b060000 	blcs	180c20 <__bss_end__+0x176bc0>
     c1c:	04000004 	streq	r0, [r0], #-4
     c20:	000002cb 	andeq	r0, r0, fp, asr #5
     c24:	410e2c05 	tstmi	lr, r5, lsl #24
     c28:	04000000 	streq	r0, [r0], #-0
     c2c:	00000440 	andeq	r0, r0, r0, asr #8
     c30:	410e7205 	tstmi	lr, r5, lsl #4
     c34:	07000000 	streq	r0, [r0, -r0]
     c38:	0000027b 	andeq	r0, r0, fp, ror r2
     c3c:	17015e06 	strne	r5, [r1, -r6, lsl #28]
     c40:	0000002c 	andeq	r0, r0, ip, lsr #32
     c44:	a6050408 	strge	r0, [r5], -r8, lsl #8
     c48:	0000e103 	andeq	lr, r0, r3, lsl #2
     c4c:	026d0900 	rsbeq	r0, sp, #0, 18
     c50:	a8050000 	stmdage	r5, {}	; <UNPREDICTABLE>
     c54:	0000b20c 	andeq	fp, r0, ip, lsl #4
     c58:	01e20900 	mvneq	r0, r0, lsl #18
     c5c:	a9050000 	stmdbge	r5, {}	; <UNPREDICTABLE>
     c60:	0000e113 	andeq	lr, r0, r3, lsl r1
     c64:	5b0a0000 	blpl	280c6c <__bss_end__+0x276c0c>
     c68:	f1000000 	cps	#0
     c6c:	0b000000 	bleq	c74 <_start-0x738c>
     c70:	0000002c 	andeq	r0, r0, ip, lsr #32
     c74:	080c0003 	stmdaeq	ip, {r0, r1}
     c78:	1509a305 	strne	sl, [r9, #-773]	; 0xfffffcfb
     c7c:	0d000001 	stceq	0, cr0, [r0, #-4]
     c80:	00000423 	andeq	r0, r0, r3, lsr #8
     c84:	2507a505 	strcs	sl, [r7, #-1285]	; 0xfffffafb
     c88:	00000000 	andeq	r0, r0, r0
     c8c:	0004320d 	andeq	r3, r4, sp, lsl #4
     c90:	05aa0500 	streq	r0, [sl, #1280]!	; 0x500
     c94:	000000bf 	strheq	r0, [r0], -pc	; <UNPREDICTABLE>
     c98:	ad040004 	stcge	0, cr0, [r4, #-16]
     c9c:	05000003 	streq	r0, [r0, #-3]
     ca0:	00f103ab 	rscseq	r0, r1, fp, lsr #7
     ca4:	9f040000 	svcls	0x00040000
     ca8:	05000001 	streq	r0, [r0, #-1]
     cac:	00831baf 	addeq	r1, r3, pc, lsr #23
     cb0:	040e0000 	streq	r0, [lr], #-0
     cb4:	01350405 	teqeq	r5, r5, lsl #8
     cb8:	01030000 	mrseq	r0, (UNDEF: 3)
     cbc:	0002f308 	andeq	pc, r2, r8, lsl #6
     cc0:	01350f00 	teqeq	r5, r0, lsl #30
     cc4:	72040000 	andvc	r0, r4, #0
     cc8:	07000004 	streq	r0, [r0, -r4]
     ccc:	00751916 	rsbseq	r1, r5, r6, lsl r9
     cd0:	b0100000 	andslt	r0, r0, r0
     cd4:	18000001 	stmdane	r0, {r0}
     cd8:	a7082f07 	strge	r2, [r8, -r7, lsl #30]
     cdc:	0d000001 	stceq	0, cr0, [r0, #-4]
     ce0:	000003ce 	andeq	r0, r0, lr, asr #7
     ce4:	a7133107 	ldrge	r3, [r3, -r7, lsl #2]
     ce8:	00000001 	andeq	r0, r0, r1
     cec:	006b5f11 	rsbeq	r5, fp, r1, lsl pc
     cf0:	25073207 	strcs	r3, [r7, #-519]	; 0xfffffdf9
     cf4:	04000000 	streq	r0, [r0], #-0
     cf8:	00040e0d 	andeq	r0, r4, sp, lsl #28
     cfc:	0b320700 	bleq	c82904 <__bss_end__+0xc788a4>
     d00:	00000025 	andeq	r0, r0, r5, lsr #32
     d04:	01990d08 	orrseq	r0, r9, r8, lsl #26
     d08:	32070000 	andcc	r0, r7, #0
     d0c:	00002514 	andeq	r2, r0, r4, lsl r5
     d10:	ae0d0c00 	cdpge	12, 0, cr0, cr13, cr0, {0}
     d14:	07000004 	streq	r0, [r0, -r4]
     d18:	00251b32 	eoreq	r1, r5, r2, lsr fp
     d1c:	11100000 	tstne	r0, r0
     d20:	0700785f 	smlsdeq	r0, pc, r8, r7	; <UNPREDICTABLE>
     d24:	01ad0b33 			; <UNDEFINED> instruction: 0x01ad0b33
     d28:	00140000 	andseq	r0, r4, r0
     d2c:	014d0405 	cmpeq	sp, r5, lsl #8
     d30:	410a0000 	mrsmi	r0, (UNDEF: 10)
     d34:	bd000001 	stclt	0, cr0, [r0, #-4]
     d38:	0b000001 	bleq	d44 <_start-0x72bc>
     d3c:	0000002c 	andeq	r0, r0, ip, lsr #32
     d40:	dd100000 	ldcle	0, cr0, [r0, #-0]
     d44:	24000001 	strcs	r0, [r0], #-1
     d48:	40083707 	andmi	r3, r8, r7, lsl #14
     d4c:	0d000002 	stceq	0, cr0, [r0, #-8]
     d50:	0000009e 	muleq	r0, lr, r0
     d54:	25093907 	strcs	r3, [r9, #-2311]	; 0xfffff6f9
     d58:	00000000 	andeq	r0, r0, r0
     d5c:	0004480d 	andeq	r4, r4, sp, lsl #16
     d60:	093a0700 	ldmdbeq	sl!, {r8, r9, sl}
     d64:	00000025 	andeq	r0, r0, r5, lsr #32
     d68:	00c10d04 	sbceq	r0, r1, r4, lsl #26
     d6c:	3b070000 	blcc	1c0d74 <__bss_end__+0x1b6d14>
     d70:	00002509 	andeq	r2, r0, r9, lsl #10
     d74:	2f0d0800 	svccs	0x000d0800
     d78:	07000005 	streq	r0, [r0, -r5]
     d7c:	0025093c 	eoreq	r0, r5, ip, lsr r9
     d80:	0d0c0000 	stceq	0, cr0, [ip, #-0]
     d84:	000002af 	andeq	r0, r0, pc, lsr #5
     d88:	25093d07 	strcs	r3, [r9, #-3335]	; 0xfffff2f9
     d8c:	10000000 	andne	r0, r0, r0
     d90:	0002910d 	andeq	r9, r2, sp, lsl #2
     d94:	093e0700 	ldmdbeq	lr!, {r8, r9, sl}
     d98:	00000025 	andeq	r0, r0, r5, lsr #32
     d9c:	04b30d14 	ldrteq	r0, [r3], #3348	; 0xd14
     da0:	3f070000 	svccc	0x00070000
     da4:	00002509 	andeq	r2, r0, r9, lsl #10
     da8:	8f0d1800 	svchi	0x000d1800
     dac:	07000003 	streq	r0, [r0, -r3]
     db0:	00250940 	eoreq	r0, r5, r0, asr #18
     db4:	0d1c0000 	ldceq	0, cr0, [ip, #-0]
     db8:	000004f6 	strdeq	r0, [r0], -r6
     dbc:	25094107 	strcs	r4, [r9, #-263]	; 0xfffffef9
     dc0:	20000000 	andcs	r0, r0, r0
     dc4:	01011200 	mrseq	r1, R9_usr
     dc8:	01080000 	mrseq	r0, (UNDEF: 8)
     dcc:	85084a07 	strhi	r4, [r8, #-2567]	; 0xfffff5f9
     dd0:	0d000002 	stceq	0, cr0, [r0, #-8]
     dd4:	0000018c 	andeq	r0, r0, ip, lsl #3
     dd8:	850a4b07 	strhi	r4, [sl, #-2823]	; 0xfffff4f9
     ddc:	00000002 	andeq	r0, r0, r2
     de0:	0000000d 	andeq	r0, r0, sp
     de4:	094c0700 	stmdbeq	ip, {r8, r9, sl}^
     de8:	00000285 	andeq	r0, r0, r5, lsl #5
     dec:	04641380 	strbteq	r1, [r4], #-896	; 0xfffffc80
     df0:	4e070000 	cdpmi	0, 0, cr0, cr7, cr0, {0}
     df4:	0001410a 	andeq	r4, r1, sl, lsl #2
     df8:	13010000 	movwne	r0, #4096	; 0x1000
     dfc:	00000126 	andeq	r0, r0, r6, lsr #2
     e00:	410a5107 	tstmi	sl, r7, lsl #2
     e04:	04000001 	streq	r0, [r0], #-1
     e08:	2d0a0001 	stccs	0, cr0, [sl, #-4]
     e0c:	95000001 	strls	r0, [r0, #-1]
     e10:	0b000002 	bleq	e20 <_start-0x71e0>
     e14:	0000002c 	andeq	r0, r0, ip, lsr #32
     e18:	b812001f 	ldmdalt	r2, {r0, r1, r2, r3, r4}
     e1c:	90000002 	andls	r0, r0, r2
     e20:	085d0701 	ldmdaeq	sp, {r0, r8, r9, sl}^
     e24:	000002d8 	ldrdeq	r0, [r0], -r8
     e28:	0003ce0d 	andeq	ip, r3, sp, lsl #28
     e2c:	125e0700 	subsne	r0, lr, #0, 14
     e30:	000002d8 	ldrdeq	r0, [r0], -r8
     e34:	03e60d00 	mvneq	r0, #0, 26
     e38:	5f070000 	svcpl	0x00070000
     e3c:	00002506 	andeq	r2, r0, r6, lsl #10
     e40:	940d0400 	strls	r0, [sp], #-1024	; 0xfffffc00
     e44:	07000001 	streq	r0, [r0, -r1]
     e48:	02de0961 	sbcseq	r0, lr, #1589248	; 0x184000
     e4c:	0d080000 	stceq	0, cr0, [r8, #-0]
     e50:	00000101 	andeq	r0, r0, r1, lsl #2
     e54:	401e6207 	andsmi	r6, lr, r7, lsl #4
     e58:	88000002 	stmdahi	r0, {r1}
     e5c:	95040500 	strls	r0, [r4, #-1280]	; 0xfffffb00
     e60:	0a000002 	beq	e70 <_start-0x7190>
     e64:	000002ee 	andeq	r0, r0, lr, ror #5
     e68:	000002ee 	andeq	r0, r0, lr, ror #5
     e6c:	00002c0b 	andeq	r2, r0, fp, lsl #24
     e70:	05001f00 	streq	r1, [r0, #-3840]	; 0xfffff100
     e74:	0002f404 	andeq	pc, r2, r4, lsl #8
     e78:	99101400 	ldmdbls	r0, {sl, ip}
     e7c:	08000003 	stmdaeq	r0, {r0, r1}
     e80:	1d087507 	cfstr32ne	mvfx7, [r8, #-28]	; 0xffffffe4
     e84:	0d000003 	stceq	0, cr0, [r0, #-12]
     e88:	000000bb 	strheq	r0, [r0], -fp
     e8c:	1d117607 	ldcne	6, cr7, [r1, #-28]	; 0xffffffe4
     e90:	00000003 	andeq	r0, r0, r3
     e94:	00001b0d 	andeq	r1, r0, sp, lsl #22
     e98:	06770700 	ldrbteq	r0, [r7], -r0, lsl #14
     e9c:	00000025 	andeq	r0, r0, r5, lsr #32
     ea0:	04050004 	streq	r0, [r5], #-4
     ea4:	0000005b 	andeq	r0, r0, fp, asr r0
     ea8:	0003b810 	andeq	fp, r3, r0, lsl r8
     eac:	b5076800 	strlt	r6, [r7, #-2048]	; 0xfffff800
     eb0:	00046608 	andeq	r6, r4, r8, lsl #12
     eb4:	705f1100 	subsvc	r1, pc, r0, lsl #2
     eb8:	12b60700 	adcsne	r0, r6, #0, 14
     ebc:	0000031d 	andeq	r0, r0, sp, lsl r3
     ec0:	725f1100 	subsvc	r1, pc, #0, 2
     ec4:	07b70700 	ldreq	r0, [r7, r0, lsl #14]!
     ec8:	00000025 	andeq	r0, r0, r5, lsr #32
     ecc:	775f1104 	ldrbvc	r1, [pc, -r4, lsl #2]
     ed0:	07b80700 	ldreq	r0, [r8, r0, lsl #14]!
     ed4:	00000025 	andeq	r0, r0, r5, lsr #32
     ed8:	011f0d08 	tsteq	pc, r8, lsl #26
     edc:	b9070000 	stmdblt	r7, {}	; <UNPREDICTABLE>
     ee0:	00003a09 	andeq	r3, r0, r9, lsl #20
     ee4:	080d0c00 	stmdaeq	sp, {sl, fp}
     ee8:	07000002 	streq	r0, [r0, -r2]
     eec:	003a09ba 	ldrhteq	r0, [sl], -sl
     ef0:	110e0000 	mrsne	r0, (UNDEF: 14)
     ef4:	0066625f 	rsbeq	r6, r6, pc, asr r2
     ef8:	f511bb07 			; <UNDEFINED> instruction: 0xf511bb07
     efc:	10000002 	andne	r0, r0, r2
     f00:	00007b0d 	andeq	r7, r0, sp, lsl #22
     f04:	07bc0700 	ldreq	r0, [ip, r0, lsl #14]!
     f08:	00000025 	andeq	r0, r0, r5, lsr #32
     f0c:	010f0d18 	tsteq	pc, r8, lsl sp	; <UNPREDICTABLE>
     f10:	c3070000 	movwgt	r0, #28672	; 0x7000
     f14:	00012d0a 	andeq	r2, r1, sl, lsl #26
     f18:	3d0d1c00 	stccc	12, cr1, [sp, #-0]
     f1c:	0700000b 	streq	r0, [r0, -fp]
     f20:	05d81dc5 	ldrbeq	r1, [r8, #3525]	; 0xdc5
     f24:	0d200000 	stceq	0, cr0, [r0, #-0]
     f28:	00000632 	andeq	r0, r0, r2, lsr r6
     f2c:	021dc707 	andseq	ip, sp, #1835008	; 0x1c0000
     f30:	24000006 	strcs	r0, [r0], #-6
     f34:	00043a0d 	andeq	r3, r4, sp, lsl #20
     f38:	0dca0700 	stcleq	7, cr0, [sl]
     f3c:	00000626 	andeq	r0, r0, r6, lsr #12
     f40:	05100d28 	ldreq	r0, [r0, #-3368]	; 0xfffff2d8
     f44:	cb070000 	blgt	1c0f4c <__bss_end__+0x1b6eec>
     f48:	00064009 	andeq	r4, r6, r9
     f4c:	5f112c00 	svcpl	0x00112c00
     f50:	07006275 	smlsdxeq	r0, r5, r2, r6
     f54:	02f511ce 	rscseq	r1, r5, #-2147483597	; 0x80000033
     f58:	11300000 	teqne	r0, r0
     f5c:	0070755f 	rsbseq	r7, r0, pc, asr r5
     f60:	1d12cf07 	ldcne	15, cr12, [r2, #-28]	; 0xffffffe4
     f64:	38000003 	stmdacc	r0, {r0, r1}
     f68:	72755f11 	rsbsvc	r5, r5, #17, 30	; 0x44
     f6c:	07d00700 	ldrbeq	r0, [r0, r0, lsl #14]
     f70:	00000025 	andeq	r0, r0, r5, lsr #32
     f74:	00b50d3c 	adcseq	r0, r5, ip, lsr sp
     f78:	d3070000 	movwle	r0, #28672	; 0x7000
     f7c:	00064611 	andeq	r4, r6, r1, lsl r6
     f80:	e80d4000 	stmda	sp, {lr}
     f84:	07000004 	streq	r0, [r0, -r4]
     f88:	065611d4 			; <UNDEFINED> instruction: 0x065611d4
     f8c:	11430000 	mrsne	r0, (UNDEF: 67)
     f90:	00626c5f 	rsbeq	r6, r2, pc, asr ip
     f94:	f511d707 			; <UNDEFINED> instruction: 0xf511d707
     f98:	44000002 	strmi	r0, [r0], #-2
     f9c:	00013d0d 	andeq	r3, r1, sp, lsl #26
     fa0:	07da0700 	ldrbeq	r0, [sl, r0, lsl #14]
     fa4:	00000025 	andeq	r0, r0, r5, lsr #32
     fa8:	014e0d4c 	cmpeq	lr, ip, asr #26
     fac:	db070000 	blle	1c0fb4 <__bss_end__+0x1b6f54>
     fb0:	00009a0a 	andeq	r9, r0, sl, lsl #20
     fb4:	de0d5000 	cdple	0, 0, cr5, cr13, cr0, {0}
     fb8:	0700000a 	streq	r0, [r0, -sl]
     fbc:	048412de 	streq	r1, [r4], #734	; 0x2de
     fc0:	0d540000 	ldcleq	0, cr0, [r4, #-0]
     fc4:	0000042c 	andeq	r0, r0, ip, lsr #8
     fc8:	210ce207 	tstcs	ip, r7, lsl #4
     fcc:	58000001 	stmdapl	r0, {r0}
     fd0:	0003c00d 	andeq	ip, r3, sp
     fd4:	0ee40700 	cdpeq	7, 14, cr0, cr4, cr0, {0}
     fd8:	00000115 	andeq	r0, r0, r5, lsl r1
     fdc:	02890d5c 	addeq	r0, r9, #92, 26	; 0x1700
     fe0:	e5070000 	str	r0, [r7, #-0]
     fe4:	00002509 	andeq	r2, r0, r9, lsl #10
     fe8:	15006400 	strne	r6, [r0, #-1024]	; 0xfffffc00
     fec:	00000025 	andeq	r0, r0, r5, lsr #32
     ff0:	00000484 	andeq	r0, r0, r4, lsl #9
     ff4:	00048416 	andeq	r8, r4, r6, lsl r4
     ff8:	012d1600 			; <UNDEFINED> instruction: 0x012d1600
     ffc:	2f160000 	svccs	0x00160000
    1000:	16000001 	strne	r0, [r0], -r1
    1004:	00000025 	andeq	r0, r0, r5, lsr #32
    1008:	8f040500 	svchi	0x00040500
    100c:	0f000004 	svceq	0x00000004
    1010:	00000484 	andeq	r0, r0, r4, lsl #9
    1014:	00041617 	andeq	r1, r4, r7, lsl r6
    1018:	07042800 	streq	r2, [r4, -r0, lsl #16]
    101c:	d8080260 	stmdale	r8, {r5, r6, r9}
    1020:	18000005 	stmdane	r0, {r0, r2}
    1024:	0000037e 	andeq	r0, r0, lr, ror r3
    1028:	07026207 	streq	r6, [r2, -r7, lsl #4]
    102c:	00000025 	andeq	r0, r0, r5, lsr #32
    1030:	012e1800 			; <UNDEFINED> instruction: 0x012e1800
    1034:	67070000 	strvs	r0, [r7, -r0]
    1038:	06b20b02 	ldrteq	r0, [r2], r2, lsl #22
    103c:	18040000 	stmdane	r4, {}	; <UNPREDICTABLE>
    1040:	000001f8 	strdeq	r0, [r0], -r8
    1044:	14026707 	strne	r6, [r2], #-1799	; 0xfffff8f9
    1048:	000006b2 			; <UNDEFINED> instruction: 0x000006b2
    104c:	01a81808 			; <UNDEFINED> instruction: 0x01a81808
    1050:	67070000 	strvs	r0, [r7, -r0]
    1054:	06b21e02 	ldrteq	r1, [r2], r2, lsl #28
    1058:	180c0000 	stmdane	ip, {}	; <UNPREDICTABLE>
    105c:	000003e1 	andeq	r0, r0, r1, ror #7
    1060:	08026907 	stmdaeq	r2, {r0, r1, r2, r8, fp, sp, lr}
    1064:	00000025 	andeq	r0, r0, r5, lsr #32
    1068:	00291810 	eoreq	r1, r9, r0, lsl r8
    106c:	6a070000 	bvs	1c1074 <__bss_end__+0x1b7014>
    1070:	08b20802 	ldmeq	r2!, {r1, fp}
    1074:	18140000 	ldmdane	r4, {}	; <UNPREDICTABLE>
    1078:	000003f5 	strdeq	r0, [r0], -r5
    107c:	07026d07 	streq	r6, [r2, -r7, lsl #26]
    1080:	00000025 	andeq	r0, r0, r5, lsr #32
    1084:	0a1a1830 	beq	68714c <__bss_end__+0x67d0ec>
    1088:	6e070000 	cdpvs	0, 0, cr0, cr7, cr0, {0}
    108c:	08c71602 	stmiaeq	r7, {r1, r9, sl, ip}^
    1090:	18340000 	ldmdane	r4!, {}	; <UNPREDICTABLE>
    1094:	000002c0 	andeq	r0, r0, r0, asr #5
    1098:	07027007 	streq	r7, [r2, -r7]
    109c:	00000025 	andeq	r0, r0, r5, lsr #32
    10a0:	03eb1838 	mvneq	r1, #56, 16	; 0x380000
    10a4:	72070000 	andvc	r0, r7, #0
    10a8:	08d80a02 	ldmeq	r8, {r1, r9, fp}^
    10ac:	183c0000 	ldmdane	ip!, {}	; <UNPREDICTABLE>
    10b0:	00000265 	andeq	r0, r0, r5, ror #4
    10b4:	13027507 	movwne	r7, #9479	; 0x2507
    10b8:	000001a7 	andeq	r0, r0, r7, lsr #3
    10bc:	01c71840 	biceq	r1, r7, r0, asr #16
    10c0:	76070000 	strvc	r0, [r7], -r0
    10c4:	00250702 	eoreq	r0, r5, r2, lsl #14
    10c8:	18440000 	stmdane	r4, {}^	; <UNPREDICTABLE>
    10cc:	0000052a 	andeq	r0, r0, sl, lsr #10
    10d0:	13027707 	movwne	r7, #9991	; 0x2707
    10d4:	000001a7 	andeq	r0, r0, r7, lsr #3
    10d8:	02d21848 	sbcseq	r1, r2, #72, 16	; 0x480000
    10dc:	78070000 	stmdavc	r7, {}	; <UNPREDICTABLE>
    10e0:	08de1402 	ldmeq	lr, {r1, sl, ip}^
    10e4:	184c0000 	stmdane	ip, {}^	; <UNPREDICTABLE>
    10e8:	00000200 	andeq	r0, r0, r0, lsl #4
    10ec:	07027b07 	streq	r7, [r2, -r7, lsl #22]
    10f0:	00000025 	andeq	r0, r0, r5, lsr #32
    10f4:	01461850 	cmpeq	r6, r0, asr r8
    10f8:	7c070000 	stcvc	0, cr0, [r7], {-0}
    10fc:	012f0902 			; <UNDEFINED> instruction: 0x012f0902
    1100:	18540000 	ldmdane	r4, {}^	; <UNPREDICTABLE>
    1104:	000002f8 	strdeq	r0, [r0], -r8
    1108:	07029f07 	streq	r9, [r2, -r7, lsl #30]
    110c:	0000088d 	andeq	r0, r0, sp, lsl #17
    1110:	02b81958 	adcseq	r1, r8, #88, 18	; 0x160000
    1114:	a3070000 	movwge	r0, #28672	; 0x7000
    1118:	02d81302 	sbcseq	r1, r8, #134217728	; 0x8000000
    111c:	01480000 	mrseq	r0, (UNDEF: 72)
    1120:	00024319 	andeq	r4, r2, r9, lsl r3
    1124:	02a40700 	adceq	r0, r4, #0, 14
    1128:	00029512 	andeq	r9, r2, r2, lsl r5
    112c:	19014c00 	stmdbne	r1, {sl, fp, lr}
    1130:	000004d6 	ldrdeq	r0, [r0], -r6
    1134:	0c02a807 	stceq	8, cr10, [r2], {7}
    1138:	000008ef 	andeq	r0, r0, pc, ror #17
    113c:	171902dc 			; <UNDEFINED> instruction: 0x171902dc
    1140:	07000001 	streq	r0, [r0, -r1]
    1144:	731002ad 	tstvc	r0, #-805306358	; 0xd000000a
    1148:	e0000006 	and	r0, r0, r6
    114c:	00fc1902 	rscseq	r1, ip, r2, lsl #18
    1150:	af070000 	svcge	0x00070000
    1154:	08fb0a02 	ldmeq	fp!, {r1, r9, fp}^
    1158:	02ec0000 	rsceq	r0, ip, #0
    115c:	66040500 	strvs	r0, [r4], -r0, lsl #10
    1160:	15000004 	strne	r0, [r0, #-4]
    1164:	00000025 	andeq	r0, r0, r5, lsr #32
    1168:	000005fc 	strdeq	r0, [r0], -ip
    116c:	00048416 	andeq	r8, r4, r6, lsl r4
    1170:	012d1600 			; <UNDEFINED> instruction: 0x012d1600
    1174:	fc160000 	ldc2	0, cr0, [r6], {-0}
    1178:	16000005 	strne	r0, [r0], -r5
    117c:	00000025 	andeq	r0, r0, r5, lsr #32
    1180:	3c040500 	cfstr32cc	mvfx0, [r4], {-0}
    1184:	05000001 	streq	r0, [r0, #-1]
    1188:	0005de04 	andeq	sp, r5, r4, lsl #28
    118c:	00a61500 	adceq	r1, r6, r0, lsl #10
    1190:	06260000 	strteq	r0, [r6], -r0
    1194:	84160000 	ldrhi	r0, [r6], #-0
    1198:	16000004 	strne	r0, [r0], -r4
    119c:	0000012d 	andeq	r0, r0, sp, lsr #2
    11a0:	0000a616 	andeq	sl, r0, r6, lsl r6
    11a4:	00251600 	eoreq	r1, r5, r0, lsl #12
    11a8:	05000000 	streq	r0, [r0, #-0]
    11ac:	00060804 	andeq	r0, r6, r4, lsl #16
    11b0:	00251500 	eoreq	r1, r5, r0, lsl #10
    11b4:	06400000 	strbeq	r0, [r0], -r0
    11b8:	84160000 	ldrhi	r0, [r6], #-0
    11bc:	16000004 	strne	r0, [r0], -r4
    11c0:	0000012d 	andeq	r0, r0, sp, lsr #2
    11c4:	2c040500 	cfstr32cs	mvfx0, [r4], {-0}
    11c8:	0a000006 	beq	11e8 <_start-0x6e18>
    11cc:	0000005b 	andeq	r0, r0, fp, asr r0
    11d0:	00000656 	andeq	r0, r0, r6, asr r6
    11d4:	00002c0b 	andeq	r2, r0, fp, lsl #24
    11d8:	0a000200 	beq	19e0 <_start-0x6620>
    11dc:	0000005b 	andeq	r0, r0, fp, asr r0
    11e0:	00000666 	andeq	r0, r0, r6, ror #12
    11e4:	00002c0b 	andeq	r2, r0, fp, lsl #24
    11e8:	07000000 	streq	r0, [r0, -r0]
    11ec:	000003a6 	andeq	r0, r0, r6, lsr #7
    11f0:	1a011f07 	bne	48e14 <__bss_end__+0x3edb4>
    11f4:	00000323 	andeq	r0, r0, r3, lsr #6
    11f8:	0004bd1a 	andeq	fp, r4, sl, lsl sp
    11fc:	23070c00 	movwcs	r0, #31744	; 0x7c00
    1200:	06ac0801 	strteq	r0, [ip], r1, lsl #16
    1204:	ce180000 	cdpgt	0, 1, cr0, cr8, cr0, {0}
    1208:	07000003 	streq	r0, [r0, -r3]
    120c:	ac110125 	ldfges	f0, [r1], {37}	; 0x25
    1210:	00000006 	andeq	r0, r0, r6
    1214:	00021b18 	andeq	r1, r2, r8, lsl fp
    1218:	01260700 			; <UNDEFINED> instruction: 0x01260700
    121c:	00002507 	andeq	r2, r0, r7, lsl #10
    1220:	a0180400 	andsge	r0, r8, r0, lsl #8
    1224:	07000003 	streq	r0, [r0, -r3]
    1228:	b20b0127 	andlt	r0, fp, #-1073741815	; 0xc0000009
    122c:	08000006 	stmdaeq	r0, {r1, r2}
    1230:	73040500 	movwvc	r0, #17664	; 0x4500
    1234:	05000006 	streq	r0, [r0, #-6]
    1238:	00066604 	andeq	r6, r6, r4, lsl #12
    123c:	00211a00 	eoreq	r1, r1, r0, lsl #20
    1240:	070e0000 	streq	r0, [lr, -r0]
    1244:	f108013f 			; <UNDEFINED> instruction: 0xf108013f
    1248:	18000006 	stmdane	r0, {r1, r2}
    124c:	0000041d 	andeq	r0, r0, sp, lsl r4
    1250:	12014007 	andne	r4, r1, #7
    1254:	000006f1 	strdeq	r0, [r0], -r1
    1258:	04511800 	ldrbeq	r1, [r1], #-2048	; 0xfffff800
    125c:	41070000 	mrsmi	r0, (UNDEF: 7)
    1260:	06f11201 	ldrbteq	r1, [r1], r1, lsl #4
    1264:	18060000 	stmdane	r6, {}	; <UNPREDICTABLE>
    1268:	0000046d 	andeq	r0, r0, sp, ror #8
    126c:	12014207 	andne	r4, r1, #1879048192	; 0x70000000
    1270:	00000062 	andeq	r0, r0, r2, rrx
    1274:	620a000c 	andvs	r0, sl, #12
    1278:	01000000 	mrseq	r0, (UNDEF: 0)
    127c:	0b000007 	bleq	12a0 <_start-0x6d60>
    1280:	0000002c 	andeq	r0, r0, ip, lsr #32
    1284:	d01b0002 	andsle	r0, fp, r2
    1288:	07028007 	streq	r8, [r2, -r7]
    128c:	00000816 	andeq	r0, r0, r6, lsl r8
    1290:	0004a118 	andeq	sl, r4, r8, lsl r1
    1294:	02820700 	addeq	r0, r2, #0, 14
    1298:	00002c18 	andeq	r2, r0, r8, lsl ip
    129c:	57180000 	ldrpl	r0, [r8, -r0]
    12a0:	07000004 	streq	r0, [r0, -r4]
    12a4:	2f120283 	svccs	0x00120283
    12a8:	04000001 	streq	r0, [r0], #-1
    12ac:	00025818 	andeq	r5, r2, r8, lsl r8
    12b0:	02840700 	addeq	r0, r4, #0, 14
    12b4:	00081610 	andeq	r1, r8, r0, lsl r6
    12b8:	01180800 	tsteq	r8, r0, lsl #16
    12bc:	07000005 	streq	r0, [r0, -r5]
    12c0:	bd170285 	lfmlt	f0, 4, [r7, #-532]	; 0xfffffdec
    12c4:	24000001 	strcs	r0, [r0], #-1
    12c8:	0001b818 	andeq	fp, r1, r8, lsl r8
    12cc:	02860700 	addeq	r0, r6, #0, 14
    12d0:	0000250f 	andeq	r2, r0, pc, lsl #10
    12d4:	c9184800 	ldmdbgt	r8, {fp, lr}
    12d8:	07000003 	streq	r0, [r0, -r3]
    12dc:	7c2c0287 	sfmvc	f0, 4, [ip], #-540	; 0xfffffde4
    12e0:	50000000 	andpl	r0, r0, r0
    12e4:	00051718 	andeq	r1, r5, r8, lsl r7
    12e8:	02880700 	addeq	r0, r8, #0, 14
    12ec:	0006b81a 	andeq	fp, r6, sl, lsl r8
    12f0:	d4185800 	ldrle	r5, [r8], #-2048	; 0xfffff800
    12f4:	07000003 	streq	r0, [r0, -r3]
    12f8:	15160289 	ldrne	r0, [r6, #-649]	; 0xfffffd77
    12fc:	68000001 	stmdavs	r0, {r0}
    1300:	00051c18 	andeq	r1, r5, r8, lsl ip
    1304:	028a0700 	addeq	r0, sl, #0, 14
    1308:	00011516 	andeq	r1, r1, r6, lsl r5
    130c:	dc187000 	ldcle	0, cr7, [r8], {-0}
    1310:	07000002 	streq	r0, [r0, -r2]
    1314:	1516028b 	ldrne	r0, [r6, #-651]	; 0xfffffd75
    1318:	78000001 	stmdavc	r0, {r0}
    131c:	0004cc18 	andeq	ip, r4, r8, lsl ip
    1320:	028c0700 	addeq	r0, ip, #0, 14
    1324:	00082610 	andeq	r2, r8, r0, lsl r6
    1328:	4c188000 	ldcmi	0, cr8, [r8], {-0}
    132c:	07000002 	streq	r0, [r0, -r2]
    1330:	3610028d 	ldrcc	r0, [r0], -sp, lsl #5
    1334:	88000008 	stmdahi	r0, {r3}
    1338:	00047a18 	andeq	r7, r4, r8, lsl sl
    133c:	028e0700 	addeq	r0, lr, #0, 14
    1340:	0000250f 	andeq	r2, r0, pc, lsl #10
    1344:	7e18a000 	cdpvc	0, 1, cr10, cr8, cr0, {0}
    1348:	07000001 	streq	r0, [r0, -r1]
    134c:	1516028f 	ldrne	r0, [r6, #-655]	; 0xfffffd71
    1350:	a4000001 	strge	r0, [r0], #-1
    1354:	00008f18 	andeq	r8, r0, r8, lsl pc
    1358:	02900700 	addseq	r0, r0, #0, 14
    135c:	00011516 	andeq	r1, r1, r6, lsl r5
    1360:	6d18ac00 	ldcvs	12, cr10, [r8, #-0]
    1364:	07000001 	streq	r0, [r0, -r1]
    1368:	15160291 	ldrne	r0, [r6, #-657]	; 0xfffffd6f
    136c:	b4000001 	strlt	r0, [r0], #-1
    1370:	00003c18 	andeq	r3, r0, r8, lsl ip
    1374:	02920700 	addseq	r0, r2, #0, 14
    1378:	00011516 	andeq	r1, r1, r6, lsl r5
    137c:	4b18bc00 	blmi	630384 <__bss_end__+0x626324>
    1380:	07000000 	streq	r0, [r0, -r0]
    1384:	15160293 	ldrne	r0, [r6, #-659]	; 0xfffffd6d
    1388:	c4000001 	strgt	r0, [r0], #-1
    138c:	00037c18 	andeq	r7, r3, r8, lsl ip
    1390:	02940700 	addseq	r0, r4, #0, 14
    1394:	00002508 	andeq	r2, r0, r8, lsl #10
    1398:	0a00cc00 	beq	343a0 <__bss_end__+0x2a340>
    139c:	00000135 	andeq	r0, r0, r5, lsr r1
    13a0:	00000826 	andeq	r0, r0, r6, lsr #16
    13a4:	00002c0b 	andeq	r2, r0, fp, lsl #24
    13a8:	0a001900 	beq	77b0 <_start-0x850>
    13ac:	00000135 	andeq	r0, r0, r5, lsr r1
    13b0:	00000836 	andeq	r0, r0, r6, lsr r8
    13b4:	00002c0b 	andeq	r2, r0, fp, lsl #24
    13b8:	0a000700 	beq	2fc0 <_start-0x5040>
    13bc:	00000135 	andeq	r0, r0, r5, lsr r1
    13c0:	00000846 	andeq	r0, r0, r6, asr #16
    13c4:	00002c0b 	andeq	r2, r0, fp, lsl #24
    13c8:	1b001700 	blne	6fd0 <_start-0x1030>
    13cc:	029907f0 	addseq	r0, r9, #240, 14	; 0x3c00000
    13d0:	00086d07 	andeq	r6, r8, r7, lsl #26
    13d4:	02a81800 	adceq	r1, r8, #0, 16
    13d8:	9c070000 	stcls	0, cr0, [r7], {-0}
    13dc:	086d1b02 	stmdaeq	sp!, {r1, r8, r9, fp, ip}^
    13e0:	18000000 	stmdane	r0, {}	; <UNPREDICTABLE>
    13e4:	000004c3 	andeq	r0, r0, r3, asr #9
    13e8:	18029d07 	stmdane	r2, {r0, r1, r2, r8, sl, fp, ip, pc}
    13ec:	0000087d 	andeq	r0, r0, sp, ror r8
    13f0:	1d0a0078 	stcne	0, cr0, [sl, #-480]	; 0xfffffe20
    13f4:	7d000003 	stcvc	0, cr0, [r0, #-12]
    13f8:	0b000008 	bleq	1420 <_start-0x6be0>
    13fc:	0000002c 	andeq	r0, r0, ip, lsr #32
    1400:	2c0a001d 	stccs	0, cr0, [sl], {29}
    1404:	8d000000 	stchi	0, cr0, [r0, #-0]
    1408:	0b000008 	bleq	1430 <_start-0x6bd0>
    140c:	0000002c 	andeq	r0, r0, ip, lsr #32
    1410:	f01c001d 			; <UNDEFINED> instruction: 0xf01c001d
    1414:	03027e07 	movweq	r7, #11783	; 0x2e07
    1418:	000008b2 			; <UNDEFINED> instruction: 0x000008b2
    141c:	0004161d 	andeq	r1, r4, sp, lsl r6
    1420:	02950700 	addseq	r0, r5, #0, 14
    1424:	0007010b 	andeq	r0, r7, fp, lsl #2
    1428:	04ee1d00 	strbteq	r1, [lr], #3328	; 0xd00
    142c:	9e070000 	cdpls	0, 0, cr0, cr7, cr0, {0}
    1430:	08460b02 	stmdaeq	r6, {r1, r8, r9, fp}^
    1434:	0a000000 	beq	143c <_start-0x6bc4>
    1438:	00000135 	andeq	r0, r0, r5, lsr r1
    143c:	000008c2 	andeq	r0, r0, r2, asr #17
    1440:	00002c0b 	andeq	r2, r0, fp, lsl #24
    1444:	06001800 	streq	r1, [r0], -r0, lsl #16
    1448:	00000084 	andeq	r0, r0, r4, lsl #1
    144c:	08c20405 	stmiaeq	r2, {r0, r2, sl}^
    1450:	d81e0000 	ldmdale	lr, {}	; <UNPREDICTABLE>
    1454:	16000008 	strne	r0, [r0], -r8
    1458:	00000484 	andeq	r0, r0, r4, lsl #9
    145c:	cd040500 	cfstr32gt	mvfx0, [r4, #-0]
    1460:	05000008 	streq	r0, [r0, #-8]
    1464:	0001a704 	andeq	sl, r1, r4, lsl #14
    1468:	08ef1e00 	stmiaeq	pc!, {r9, sl, fp, ip}^	; <UNPREDICTABLE>
    146c:	25160000 	ldrcs	r0, [r6, #-0]
    1470:	00000000 	andeq	r0, r0, r0
    1474:	08f50405 	ldmeq	r5!, {r0, r2, sl}^
    1478:	04050000 	streq	r0, [r5], #-0
    147c:	000008e4 	andeq	r0, r0, r4, ror #17
    1480:	0006660a 	andeq	r6, r6, sl, lsl #12
    1484:	00090b00 	andeq	r0, r9, r0, lsl #22
    1488:	002c0b00 	eoreq	r0, ip, r0, lsl #22
    148c:	00020000 	andeq	r0, r2, r0
    1490:	00048e1f 	andeq	r8, r4, pc, lsl lr
    1494:	032e0700 			; <UNDEFINED> instruction: 0x032e0700
    1498:	00048417 	andeq	r8, r4, r7, lsl r4
    149c:	04871f00 	streq	r1, [r7], #3840	; 0xf00
    14a0:	2f070000 	svccs	0x00070000
    14a4:	048a1d03 	streq	r1, [sl], #3331	; 0xd03
    14a8:	25150000 	ldrcs	r0, [r5, #-0]
    14ac:	34000000 	strcc	r0, [r0], #-0
    14b0:	16000009 	strne	r0, [r0], -r9
    14b4:	00000025 	andeq	r0, r0, r5, lsr #32
    14b8:	01d12000 	bicseq	r2, r1, r0
    14bc:	1d080000 	stcne	0, cr0, [r8, #-0]
    14c0:	0009400e 	andeq	r4, r9, lr
    14c4:	25040500 	strcs	r0, [r4, #-1280]	; 0xfffffb00
    14c8:	15000009 	strne	r0, [r0, #-9]
    14cc:	00000025 	andeq	r0, r0, r5, lsr #32
    14d0:	00000955 	andeq	r0, r0, r5, asr r9
    14d4:	0005fc16 	andeq	pc, r5, r6, lsl ip	; <UNPREDICTABLE>
    14d8:	81200000 			; <UNDEFINED> instruction: 0x81200000
    14dc:	08000007 	stmdaeq	r0, {r0, r1, r2}
    14e0:	09610e22 	stmdbeq	r1!, {r1, r5, r9, sl, fp}^
    14e4:	04050000 	streq	r0, [r5], #-0
    14e8:	00000946 	andeq	r0, r0, r6, asr #18
    14ec:	5b010721 	blpl	43178 <__bss_end__+0x39118>
    14f0:	02000000 	andeq	r0, r0, #0
    14f4:	09820e24 	stmibeq	r2, {r2, r5, r9, sl, fp}
    14f8:	7d220000 	stcvc	0, cr0, [r2, #-0]
    14fc:	0b000005 	bleq	1518 <_start-0x6ae8>
    1500:	00057722 	andeq	r7, r5, r2, lsr #14
    1504:	0c000c00 	stceq	12, cr0, [r0], {-0}
    1508:	0926020c 	stmdbeq	r6!, {r2, r3, r9}
    150c:	000009b3 			; <UNDEFINED> instruction: 0x000009b3
    1510:	0002090d 	andeq	r0, r2, sp, lsl #18
    1514:	11270200 			; <UNDEFINED> instruction: 0x11270200
    1518:	000005fc 	strdeq	r0, [r0], -ip
    151c:	04db0d00 	ldrbeq	r0, [fp], #3328	; 0xd00
    1520:	28020000 	stmdacs	r2, {}	; <UNPREDICTABLE>
    1524:	0005fc11 	andeq	pc, r5, r1, lsl ip	; <UNPREDICTABLE>
    1528:	410d0400 	tstmi	sp, r0, lsl #8
    152c:	02000005 	andeq	r0, r0, #5
    1530:	002c0e29 	eoreq	r0, ip, r9, lsr #28
    1534:	00080000 	andeq	r0, r8, r0
    1538:	00065304 	andeq	r5, r6, r4, lsl #6
    153c:	032a0200 			; <UNDEFINED> instruction: 0x032a0200
    1540:	00000982 	andeq	r0, r0, r2, lsl #19
    1544:	0006c710 	andeq	ip, r6, r0, lsl r7
    1548:	2d023800 	stccs	8, cr3, [r2, #-0]
    154c:	000a4f10 	andeq	r4, sl, r0, lsl pc
    1550:	060f0d00 	streq	r0, [pc], -r0, lsl #26
    1554:	2e020000 	cdpcs	0, 0, cr0, cr2, cr0, {0}
    1558:	0000690e 	andeq	r6, r0, lr, lsl #18
    155c:	ad0d0000 	stcge	0, cr0, [sp, #-0]
    1560:	02000006 	andeq	r0, r0, #6
    1564:	00690e2f 	rsbeq	r0, r9, pc, lsr #28
    1568:	0d040000 	stceq	0, cr0, [r4, #-0]
    156c:	000002e4 	andeq	r0, r0, r4, ror #5
    1570:	690e3002 	stmdbvs	lr, {r1, ip, sp}
    1574:	08000000 	stmdaeq	r0, {}	; <UNPREDICTABLE>
    1578:	0006090d 	andeq	r0, r6, sp, lsl #18
    157c:	0e340200 	cdpeq	2, 3, cr0, cr4, cr0, {0}
    1580:	00000069 	andeq	r0, r0, r9, rrx
    1584:	05fb0d0c 	ldrbeq	r0, [fp, #3340]!	; 0xd0c
    1588:	36020000 	strcc	r0, [r2], -r0
    158c:	0009b30f 	andeq	fp, r9, pc, lsl #6
    1590:	640d1000 	strvs	r1, [sp], #-0
    1594:	02000005 	andeq	r0, r0, #5
    1598:	09b30f37 	ldmibeq	r3!, {r0, r1, r2, r4, r5, r8, r9, sl, fp}
    159c:	0d1c0000 	ldceq	0, cr0, [ip, #-0]
    15a0:	00000591 	muleq	r0, r1, r5
    15a4:	690e3b02 	stmdbvs	lr, {r1, r8, r9, fp, ip, sp}
    15a8:	28000000 	stmdacs	r0, {}	; <UNPREDICTABLE>
    15ac:	0005850d 	andeq	r8, r5, sp, lsl #10
    15b0:	0e3c0200 	cdpeq	2, 3, cr0, cr12, cr0, {0}
    15b4:	00000069 	andeq	r0, r0, r9, rrx
    15b8:	05550d2c 	ldrbeq	r0, [r5, #-3372]	; 0xfffff2d4
    15bc:	3f020000 	svccc	0x00020000
    15c0:	000a4f15 	andeq	r4, sl, r5, lsl pc
    15c4:	390d3000 	stmdbcc	sp, {ip, sp}
    15c8:	02000005 	andeq	r0, r0, #5
    15cc:	00690e41 	rsbeq	r0, r9, r1, asr #28
    15d0:	00340000 	eorseq	r0, r4, r0
    15d4:	09bf0405 	ldmibeq	pc!, {r0, r2, sl}	; <UNPREDICTABLE>
    15d8:	a7040000 	strge	r0, [r4, -r0]
    15dc:	02000006 	andeq	r0, r0, #6
    15e0:	09bf0342 	ldmibeq	pc!, {r1, r6, r8, r9}	; <UNPREDICTABLE>
    15e4:	07210000 	streq	r0, [r1, -r0]!
    15e8:	00006202 	andeq	r6, r0, r2, lsl #4
    15ec:	06620200 	strbteq	r0, [r2], -r0, lsl #4
    15f0:	00000a89 	andeq	r0, r0, r9, lsl #21
    15f4:	00067d22 	andeq	r7, r6, r2, lsr #26
    15f8:	b422fe00 	strtlt	pc, [r2], #-3584	; 0xfffff200
    15fc:	80000005 	andhi	r0, r0, r5
    1600:	0005bc22 	andeq	fp, r5, r2, lsr #24
    1604:	a423b800 	strtge	fp, [r3], #-2048	; 0xfffff800
    1608:	38000005 	stmdacc	r0, {r0, r2}
    160c:	78240001 	stmdavc	r4!, {r0}
    1610:	01000006 	tsteq	r0, r6
    1614:	0a9b1107 	beq	fe6c5a38 <__bss_end__+0xfe6bb9d8>
    1618:	03050000 	movweq	r0, #20480	; 0x5000
    161c:	00009c54 	andeq	r9, r0, r4, asr ip
    1620:	004f0405 	subeq	r0, pc, r5, lsl #8
    1624:	32240000 	eorcc	r0, r4, #0
    1628:	0100000c 	tsteq	r0, ip
    162c:	0a9b1c07 	beq	fe6c8650 <__bss_end__+0xfe6be5f0>
    1630:	03050000 	movweq	r0, #20480	; 0x5000
    1634:	00009c58 	andeq	r9, r0, r8, asr ip
    1638:	000c1924 	andeq	r1, ip, r4, lsr #18
    163c:	27070100 	strcs	r0, [r7, -r0, lsl #2]
    1640:	00000a9b 	muleq	r0, fp, sl
    1644:	9c500305 	mrrcls	3, 0, r0, r0, cr5	; <UNPREDICTABLE>
    1648:	0c250000 	stceq	0, cr0, [r5], #-0
    164c:	01000000 	mrseq	r0, (UNDEF: 0)
    1650:	002505b4 	strhteq	r0, [r5], -r4
    1654:	88780000 	ldmdahi	r8!, {}^	; <UNPREDICTABLE>
    1658:	01440000 	mrseq	r0, (UNDEF: 68)
    165c:	9c010000 	stcls	0, cr0, [r1], {-0}
    1660:	00000cb7 			; <UNDEFINED> instruction: 0x00000cb7
    1664:	00059c26 	andeq	r9, r5, r6, lsr #24
    1668:	0eb50100 	frdeqs	f0, f5, f0
    166c:	0000002c 	andeq	r0, r0, ip, lsr #32
    1670:	00000024 	andeq	r0, r0, r4, lsr #32
    1674:	00000022 	andeq	r0, r0, r2, lsr #32
    1678:	0006b826 	andeq	fp, r6, r6, lsr #16
    167c:	0eb60100 	frdeqs	f0, f6, f0
    1680:	0000002c 	andeq	r0, r0, ip, lsr #32
    1684:	00000039 	andeq	r0, r0, r9, lsr r0
    1688:	00000037 	andeq	r0, r0, r7, lsr r0
    168c:	00066626 	andeq	r6, r6, r6, lsr #12
    1690:	0eba0100 	frdeqe	f0, f2, f0
    1694:	0000002c 	andeq	r0, r0, ip, lsr #32
    1698:	00000050 	andeq	r0, r0, r0, asr r0
    169c:	0000004c 	andeq	r0, r0, ip, asr #32
    16a0:	00064d26 	andeq	r4, r6, r6, lsr #26
    16a4:	0ebb0100 	frdeqe	f0, f3, f0
    16a8:	0000002c 	andeq	r0, r0, ip, lsr #32
    16ac:	00000073 	andeq	r0, r0, r3, ror r0
    16b0:	0000006f 	andeq	r0, r0, pc, rrx
    16b4:	00004827 	andeq	r4, r0, r7, lsr #16
    16b8:	000c1200 	andeq	r1, ip, r0, lsl #4
    16bc:	068c2600 	streq	r2, [ip], r0, lsl #12
    16c0:	be010000 	cdplt	0, 0, cr0, cr1, cr0, {0}
    16c4:	000cb711 	andeq	fp, ip, r1, lsl r7
    16c8:	00009a00 	andeq	r9, r0, r0, lsl #20
    16cc:	00009200 	andeq	r9, r0, r0, lsl #4
    16d0:	88b02800 	ldmhi	r0!, {fp, sp}
    16d4:	0d0e0000 	stceq	0, cr0, [lr, #-0]
    16d8:	00290000 	eoreq	r0, r9, r0
    16dc:	bd000089 	stclt	0, cr0, [r0, #-548]	; 0xfffffddc
    16e0:	6900000c 	stmdbvs	r0, {r2, r3}
    16e4:	2a00000b 	bcs	1718 <_start-0x68e8>
    16e8:	74025001 	strvc	r5, [r2], #-1
    16ec:	14290000 	strtne	r0, [r9], #-0
    16f0:	76000089 	strvc	r0, [r0], -r9, lsl #1
    16f4:	7d000016 	stcvc	0, cr0, [r0, #-88]	; 0xffffffa8
    16f8:	2a00000b 	bcs	172c <_start-0x68d4>
    16fc:	74025001 	strvc	r5, [r2], #-1
    1700:	24290000 	strtcs	r0, [r9], #-0
    1704:	f5000089 			; <UNDEFINED> instruction: 0xf5000089
    1708:	91000018 	tstls	r0, r8, lsl r0
    170c:	2a00000b 	bcs	1740 <_start-0x68c0>
    1710:	74025001 	strvc	r5, [r2], #-1
    1714:	30290000 	eorcc	r0, r9, r0
    1718:	e8000089 	stmda	r0, {r0, r3, r7}
    171c:	ab000014 	blge	1774 <_start-0x688c>
    1720:	2a00000b 	bcs	1754 <_start-0x68ac>
    1724:	08025101 	stmdaeq	r2, {r0, r8, ip, lr}
    1728:	52012a80 	andpl	r2, r1, #128, 20	; 0x80000
    172c:	00007402 	andeq	r7, r0, r2, lsl #8
    1730:	00894029 	addeq	r4, r9, r9, lsr #32
    1734:	00187a00 	andseq	r7, r8, r0, lsl #20
    1738:	000bbf00 	andeq	fp, fp, r0, lsl #30
    173c:	50012a00 	andpl	r2, r1, r0, lsl #20
    1740:	00007402 	andeq	r7, r0, r2, lsl #8
    1744:	00894c29 	addeq	r4, r9, r9, lsr #24
    1748:	00184d00 	andseq	r4, r8, r0, lsl #26
    174c:	000bd300 	andeq	sp, fp, r0, lsl #6
    1750:	50012a00 	andpl	r2, r1, r0, lsl #20
    1754:	00007402 	andeq	r7, r0, r2, lsl #8
    1758:	00895c29 	addeq	r5, r9, r9, lsr #24
    175c:	0014e800 	andseq	lr, r4, r0, lsl #16
    1760:	000bed00 	andeq	lr, fp, r0, lsl #26
    1764:	50012a00 	andpl	r2, r1, r0, lsl #20
    1768:	2a007702 	bcs	1f378 <__bss_end__+0x15318>
    176c:	74025201 	strvc	r5, [r2], #-513	; 0xfffffdff
    1770:	78290000 	stmdavc	r9!, {}	; <UNPREDICTABLE>
    1774:	b7000089 	strlt	r0, [r0, -r9, lsl #1]
    1778:	01000018 	tsteq	r0, r8, lsl r0
    177c:	2a00000c 	bcs	17b4 <_start-0x684c>
    1780:	74025001 	strvc	r5, [r2], #-1
    1784:	842b0000 	strthi	r0, [fp], #-0
    1788:	29000089 	stmdbcs	r0, {r0, r3, r7}
    178c:	2a000013 	bcs	17e0 <_start-0x6820>
    1790:	74025201 	strvc	r5, [r2], #-513	; 0xfffffdff
    1794:	29000000 	stmdbcs	r0, {}	; <UNPREDICTABLE>
    1798:	0000889c 	muleq	r0, ip, r8
    179c:	000019f9 	strdeq	r1, [r0], -r9
    17a0:	00000c29 	andeq	r0, r0, r9, lsr #24
    17a4:	0550012a 	ldrbeq	r0, [r0, #-298]	; 0xfffffed6
    17a8:	0096b803 	addseq	fp, r6, r3, lsl #16
    17ac:	ac290000 	stcge	0, cr0, [r9], #-0
    17b0:	f9000088 			; <UNDEFINED> instruction: 0xf9000088
    17b4:	4c000019 	stcmi	0, cr0, [r0], {25}
    17b8:	2a00000c 	bcs	17f0 <_start-0x6810>
    17bc:	03055001 	movweq	r5, #20481	; 0x5001
    17c0:	00009978 	andeq	r9, r0, r8, ror r9
    17c4:	0251012a 	subseq	r0, r1, #-2147483638	; 0x8000000a
    17c8:	012a0074 			; <UNDEFINED> instruction: 0x012a0074
    17cc:	00750252 	rsbseq	r0, r5, r2, asr r2
    17d0:	88d82900 	ldmhi	r8, {r8, fp, sp}^
    17d4:	19f90000 	ldmibne	r9!, {}^	; <UNPREDICTABLE>
    17d8:	0c630000 	stcleq	0, cr0, [r3], #-0
    17dc:	012a0000 			; <UNDEFINED> instruction: 0x012a0000
    17e0:	b8030550 	stmdalt	r3, {r4, r6, r8, sl}
    17e4:	00000096 	muleq	r0, r6, r0
    17e8:	0088e829 	addeq	lr, r8, r9, lsr #16
    17ec:	0019f900 	andseq	pc, r9, r0, lsl #18
    17f0:	000c8600 	andeq	r8, ip, r0, lsl #12
    17f4:	50012a00 	andpl	r2, r1, r0, lsl #20
    17f8:	99b00305 	ldmibls	r0!, {r0, r2, r8, r9}
    17fc:	012a0000 			; <UNDEFINED> instruction: 0x012a0000
    1800:	00750251 	rsbseq	r0, r5, r1, asr r2
    1804:	0252012a 	subseq	r0, r2, #-2147483638	; 0x8000000a
    1808:	29000076 	stmdbcs	r0, {r1, r2, r4, r5, r6}
    180c:	00008998 	muleq	r0, r8, r9
    1810:	000019f9 	strdeq	r1, [r0], -r9
    1814:	00000c9d 	muleq	r0, sp, ip
    1818:	0550012a 	ldrbeq	r0, [r0, #-298]	; 0xfffffed6
    181c:	0096b803 	addseq	fp, r6, r3, lsl #16
    1820:	a42b0000 	strtge	r0, [fp], #-0
    1824:	f9000089 			; <UNDEFINED> instruction: 0xf9000089
    1828:	2a000019 	bcs	1894 <_start-0x676c>
    182c:	03055001 	movweq	r5, #20481	; 0x5001
    1830:	000099d8 	ldrdeq	r9, [r0], -r8
    1834:	0251012a 	subseq	r0, r1, #-2147483638	; 0x8000000a
    1838:	00000075 	andeq	r0, r0, r5, ror r0
    183c:	0a550405 	beq	1542858 <__bss_end__+0x15387f8>
    1840:	ef250000 	svc	0x00250000
    1844:	01000005 	tsteq	r0, r5
    1848:	0cb708ac 	ldceq	8, cr0, [r7], #688	; 0x2b0
    184c:	882c0000 	stmdahi	ip!, {}	; <UNPREDICTABLE>
    1850:	004c0000 	subeq	r0, ip, r0
    1854:	9c010000 	stcls	0, cr0, [r1], {-0}
    1858:	00000d0e 	andeq	r0, r0, lr, lsl #26
    185c:	0100702c 	tsteq	r0, ip, lsr #32
    1860:	0cb71bac 	vldmiaeq	r7!, {d1-d22}
    1864:	00d60000 	sbcseq	r0, r6, r0
    1868:	00ce0000 	sbceq	r0, lr, r0
    186c:	682d0000 	stmdavs	sp!, {}	; <UNPREDICTABLE>
    1870:	01007264 	tsteq	r0, r4, ror #4
    1874:	0cb70cad 	ldceq	12, cr0, [r7], #692	; 0x2b4
    1878:	01140000 	tsteq	r4, r0
    187c:	01100000 	tsteq	r0, r0
    1880:	5c2b0000 	stcpl	0, cr0, [fp], #-0
    1884:	76000088 	strvc	r0, [r0], -r8, lsl #1
    1888:	2a000016 	bcs	18e8 <_start-0x6718>
    188c:	74025001 	strvc	r5, [r2], #-1
    1890:	25000000 	strcs	r0, [r0, #-0]
    1894:	00000548 	andeq	r0, r0, r8, asr #10
    1898:	b708a701 	strlt	sl, [r8, -r1, lsl #14]
    189c:	fc00000c 	stc2	0, cr0, [r0], {12}
    18a0:	30000087 	andcc	r0, r0, r7, lsl #1
    18a4:	01000000 	mrseq	r0, (UNDEF: 0)
    18a8:	000d4d9c 	muleq	sp, ip, sp
    18ac:	64682d00 	strbtvs	r2, [r8], #-3328	; 0xfffff300
    18b0:	a8010072 	stmdage	r1, {r1, r4, r5, r6}
    18b4:	000cb70c 	andeq	fp, ip, ip, lsl #14
    18b8:	00013600 	andeq	r3, r1, r0, lsl #12
    18bc:	00013200 	andeq	r3, r1, r0, lsl #4
    18c0:	88102b00 	ldmdahi	r0, {r8, r9, fp, sp}
    18c4:	16760000 	ldrbtne	r0, [r6], -r0
    18c8:	012a0000 			; <UNDEFINED> instruction: 0x012a0000
    18cc:	00740250 	rsbseq	r0, r4, r0, asr r2
    18d0:	73250000 			; <UNDEFINED> instruction: 0x73250000
    18d4:	01000000 	mrseq	r0, (UNDEF: 0)
    18d8:	012d0883 	smlawbeq	sp, r3, r8, r0
    18dc:	85e00000 	strbhi	r0, [r0, #0]!
    18e0:	021c0000 	andseq	r0, ip, #0
    18e4:	9c010000 	stcls	0, cr0, [r1], {-0}
    18e8:	000010a1 	andeq	r1, r0, r1, lsr #1
    18ec:	0006982e 	andeq	r9, r6, lr, lsr #16
    18f0:	1a830100 	bne	fe0c1cf8 <__bss_end__+0xfe0b7c98>
    18f4:	00000069 	andeq	r0, r0, r9, rrx
    18f8:	0000015e 	andeq	r0, r0, lr, asr r1
    18fc:	00000154 	andeq	r0, r0, r4, asr r1
    1900:	0002092e 	andeq	r0, r2, lr, lsr #18
    1904:	2e830100 	rmfcss	f0, f3, f0
    1908:	000005fc 	strdeq	r0, [r0], -ip
    190c:	000001aa 	andeq	r0, r0, sl, lsr #3
    1910:	000001a0 	andeq	r0, r0, r0, lsr #3
    1914:	0004db2e 	andeq	sp, r4, lr, lsr #22
    1918:	40830100 	addmi	r0, r3, r0, lsl #2
    191c:	000005fc 	strdeq	r0, [r0], -ip
    1920:	000001f6 	strdeq	r0, [r0], -r6
    1924:	000001ec 	andeq	r0, r0, ip, ror #3
    1928:	0005412e 	andeq	r4, r5, lr, lsr #2
    192c:	4f830100 	svcmi	0x00830100
    1930:	0000002c 	andeq	r0, r0, ip, lsr #32
    1934:	00000242 	andeq	r0, r0, r2, asr #4
    1938:	00000238 	andeq	r0, r0, r8, lsr r2
    193c:	0100682d 	tsteq	r0, sp, lsr #16
    1940:	0cb70c84 	ldceq	12, cr0, [r7], #528	; 0x210
    1944:	028f0000 	addeq	r0, pc, #0
    1948:	02870000 	addeq	r0, r7, #0
    194c:	702d0000 	eorvc	r0, sp, r0
    1950:	01007274 	tsteq	r0, r4, ror r2
    1954:	012d0b85 	smlawbeq	sp, r5, fp, r0
    1958:	02cd0000 	sbceq	r0, sp, #0
    195c:	02c50000 	sbceq	r0, r5, #0
    1960:	0e2f0000 	cdpeq	0, 2, cr0, cr15, cr0, {0}
    1964:	b1000002 	tstlt	r0, r2
    1968:	05000010 	streq	r0, [r0, #-16]
    196c:	009a1803 	addseq	r1, sl, r3, lsl #16
    1970:	6f742d00 	svcvs	0x00742d00
    1974:	8a010074 	bhi	41b4c <__bss_end__+0x37aec>
    1978:	00002c0e 	andeq	r2, r0, lr, lsl #24
    197c:	00030f00 	andeq	r0, r3, r0, lsl #30
    1980:	00030300 	andeq	r0, r3, r0, lsl #6
    1984:	006e2d00 	rsbeq	r2, lr, r0, lsl #26
    1988:	2c0e8b01 			; <UNDEFINED> instruction: 0x2c0e8b01
    198c:	66000000 	strvs	r0, [r0], -r0
    1990:	62000003 	andvs	r0, r0, #3
    1994:	29000003 	stmdbcs	r0, {r0, r1}
    1998:	00008610 	andeq	r8, r0, r0, lsl r6
    199c:	000019f9 	strdeq	r1, [r0], -r9
    19a0:	00000e29 	andeq	r0, r0, r9, lsr #28
    19a4:	0550012a 	ldrbeq	r0, [r0, #-298]	; 0xfffffed6
    19a8:	0096b803 	addseq	fp, r6, r3, lsl #16
    19ac:	1c290000 	stcne	0, cr0, [r9], #-0
    19b0:	f9000086 			; <UNDEFINED> instruction: 0xf9000086
    19b4:	46000019 			; <UNDEFINED> instruction: 0x46000019
    19b8:	2a00000e 	bcs	19f8 <_start-0x6608>
    19bc:	03055001 	movweq	r5, #20481	; 0x5001
    19c0:	0000983c 	andeq	r9, r0, ip, lsr r8
    19c4:	0251012a 	subseq	r0, r1, #-2147483638	; 0x8000000a
    19c8:	29000075 	stmdbcs	r0, {r0, r2, r4, r5, r6}
    19cc:	00008680 	andeq	r8, r0, r0, lsl #13
    19d0:	000018f5 	strdeq	r1, [r0], -r5
    19d4:	00000e5a 	andeq	r0, r0, sl, asr lr
    19d8:	0250012a 	subseq	r0, r0, #-2147483638	; 0x8000000a
    19dc:	29000074 	stmdbcs	r0, {r2, r4, r5, r6}
    19e0:	00008688 	andeq	r8, r0, r8, lsl #13
    19e4:	000012ce 	andeq	r1, r0, lr, asr #5
    19e8:	00000e6e 	andeq	r0, r0, lr, ror #28
    19ec:	0251012a 	subseq	r0, r1, #-2147483638	; 0x8000000a
    19f0:	29008008 	stmdbcs	r0, {r3, pc}
    19f4:	00008690 	muleq	r0, r0, r6
    19f8:	0000187a 	andeq	r1, r0, sl, ror r8
    19fc:	00000e82 	andeq	r0, r0, r2, lsl #29
    1a00:	0250012a 	subseq	r0, r0, #-2147483638	; 0x8000000a
    1a04:	29000074 	stmdbcs	r0, {r2, r4, r5, r6}
    1a08:	0000869c 	muleq	r0, ip, r6
    1a0c:	0000184d 	andeq	r1, r0, sp, asr #16
    1a10:	00000e96 	muleq	r0, r6, lr
    1a14:	0250012a 	subseq	r0, r0, #-2147483638	; 0x8000000a
    1a18:	29000074 	stmdbcs	r0, {r2, r4, r5, r6}
    1a1c:	000086a8 	andeq	r8, r0, r8, lsr #13
    1a20:	000012ce 	andeq	r1, r0, lr, asr #5
    1a24:	00000eaa 	andeq	r0, r0, sl, lsr #29
    1a28:	0250012a 	subseq	r0, r0, #-2147483638	; 0x8000000a
    1a2c:	29000076 	stmdbcs	r0, {r1, r2, r4, r5, r6}
    1a30:	000086b0 			; <UNDEFINED> instruction: 0x000086b0
    1a34:	000017b3 			; <UNDEFINED> instruction: 0x000017b3
    1a38:	00000ebe 			; <UNDEFINED> instruction: 0x00000ebe
    1a3c:	0250012a 	subseq	r0, r0, #-2147483638	; 0x8000000a
    1a40:	29000074 	stmdbcs	r0, {r2, r4, r5, r6}
    1a44:	000086cc 	andeq	r8, r0, ip, asr #13
    1a48:	00001221 	andeq	r1, r0, r1, lsr #4
    1a4c:	00000ed2 	ldrdeq	r0, [r0], -r2
    1a50:	0250012a 	subseq	r0, r0, #-2147483638	; 0x8000000a
    1a54:	29000074 	stmdbcs	r0, {r2, r4, r5, r6}
    1a58:	000086dc 	ldrdeq	r8, [r0], -ip
    1a5c:	000018b7 			; <UNDEFINED> instruction: 0x000018b7
    1a60:	00000ee6 	andeq	r0, r0, r6, ror #29
    1a64:	0250012a 	subseq	r0, r0, #-2147483638	; 0x8000000a
    1a68:	29000074 	stmdbcs	r0, {r2, r4, r5, r6}
    1a6c:	000086e8 	andeq	r8, r0, r8, ror #13
    1a70:	000019f9 	strdeq	r1, [r0], -r9
    1a74:	00000efd 	strdeq	r0, [r0], -sp
    1a78:	0550012a 	ldrbeq	r0, [r0, #-298]	; 0xfffffed6
    1a7c:	0096b803 	addseq	fp, r6, r3, lsl #16
    1a80:	fc290000 	stc2	0, cr0, [r9], #-0
    1a84:	f9000086 			; <UNDEFINED> instruction: 0xf9000086
    1a88:	26000019 			; <UNDEFINED> instruction: 0x26000019
    1a8c:	2a00000f 	bcs	1ad0 <_start-0x6530>
    1a90:	03055001 	movweq	r5, #20481	; 0x5001
    1a94:	00009948 	andeq	r9, r0, r8, asr #18
    1a98:	0251012a 	subseq	r0, r1, #-2147483638	; 0x8000000a
    1a9c:	012a0075 			; <UNDEFINED> instruction: 0x012a0075
    1aa0:	00790252 	rsbseq	r0, r9, r2, asr r2
    1aa4:	0253012a 	subseq	r0, r3, #-2147483638	; 0x8000000a
    1aa8:	28000074 	stmdacs	r0, {r2, r4, r5, r6}
    1aac:	0000870c 	andeq	r8, r0, ip, lsl #14
    1ab0:	00001a05 	andeq	r1, r0, r5, lsl #20
    1ab4:	00872029 	addeq	r2, r7, r9, lsr #32
    1ab8:	0019f900 	andseq	pc, r9, r0, lsl #18
    1abc:	000f5e00 	andeq	r5, pc, r0, lsl #28
    1ac0:	50012a00 	andpl	r2, r1, r0, lsl #20
    1ac4:	97fc0305 	ldrbls	r0, [ip, r5, lsl #6]!
    1ac8:	012a0000 			; <UNDEFINED> instruction: 0x012a0000
    1acc:	ac030551 	cfstr32ge	mvfx0, [r3], {81}	; 0x51
    1ad0:	2a000097 	bcs	1d34 <_start-0x62cc>
    1ad4:	03055201 	movweq	r5, #20993	; 0x5201
    1ad8:	00009a18 	andeq	r9, r0, r8, lsl sl
    1adc:	0253012a 	subseq	r0, r3, #-2147483638	; 0x8000000a
    1ae0:	28008708 	stmdacs	r0, {r3, r8, r9, sl, pc}
    1ae4:	00008724 	andeq	r8, r0, r4, lsr #14
    1ae8:	00001a11 	andeq	r1, r0, r1, lsl sl
    1aec:	00872c29 	addeq	r2, r7, r9, lsr #24
    1af0:	0019f900 	andseq	pc, r9, r0, lsl #18
    1af4:	000f7e00 	andeq	r7, pc, r0, lsl #28
    1af8:	50012a00 	andpl	r2, r1, r0, lsl #20
    1afc:	98540305 	ldmdals	r4, {r0, r2, r8, r9}^
    1b00:	29000000 	stmdbcs	r0, {}	; <UNPREDICTABLE>
    1b04:	00008738 	andeq	r8, r0, r8, lsr r7
    1b08:	000019f9 	strdeq	r1, [r0], -r9
    1b0c:	00000f9b 	muleq	r0, fp, pc	; <UNPREDICTABLE>
    1b10:	0550012a 	ldrbeq	r0, [r0, #-298]	; 0xfffffed6
    1b14:	00986003 	addseq	r6, r8, r3
    1b18:	51012a00 	tstpl	r1, r0, lsl #20
    1b1c:	00007502 	andeq	r7, r0, r2, lsl #10
    1b20:	00873c28 	addeq	r3, r7, r8, lsr #24
    1b24:	001a0500 	andseq	r0, sl, r0, lsl #10
    1b28:	87542900 	ldrbhi	r2, [r4, -r0, lsl #18]
    1b2c:	19f90000 	ldmibne	r9!, {}^	; <UNPREDICTABLE>
    1b30:	0fda0000 	svceq	0x00da0000
    1b34:	012a0000 			; <UNDEFINED> instruction: 0x012a0000
    1b38:	88030550 	stmdahi	r3, {r4, r6, r8, sl}
    1b3c:	2a000098 	bcs	1da4 <_start-0x625c>
    1b40:	03055101 	movweq	r5, #20737	; 0x5101
    1b44:	000097ac 	andeq	r9, r0, ip, lsr #15
    1b48:	0552012a 	ldrbeq	r0, [r2, #-298]	; 0xfffffed6
    1b4c:	009a1803 	addseq	r1, sl, r3, lsl #16
    1b50:	53012a00 	movwpl	r2, #6656	; 0x1a00
    1b54:	2a8f0802 	bcs	fe3c3b64 <__bss_end__+0xfe3b9b04>
    1b58:	02007d02 	andeq	r7, r0, #2, 26	; 0x80
    1b5c:	28000075 	stmdacs	r0, {r0, r2, r4, r5, r6}
    1b60:	00008758 	andeq	r8, r0, r8, asr r7
    1b64:	00001a11 	andeq	r1, r0, r1, lsl sl
    1b68:	00876029 	addeq	r6, r7, r9, lsr #32
    1b6c:	0019f900 	andseq	pc, r9, r0, lsl #18
    1b70:	000ffa00 	andeq	pc, pc, r0, lsl #20
    1b74:	50012a00 	andpl	r2, r1, r0, lsl #20
    1b78:	98540305 	ldmdals	r4, {r0, r2, r8, r9}^
    1b7c:	29000000 	stmdbcs	r0, {}	; <UNPREDICTABLE>
    1b80:	0000877c 	andeq	r8, r0, ip, ror r7
    1b84:	000019f9 	strdeq	r1, [r0], -r9
    1b88:	00001017 	andeq	r1, r0, r7, lsl r0
    1b8c:	0550012a 	ldrbeq	r0, [r0, #-298]	; 0xfffffed6
    1b90:	0098c003 	addseq	ip, r8, r3
    1b94:	52012a00 	andpl	r2, r1, #0, 20
    1b98:	00007902 	andeq	r7, r0, r2, lsl #18
    1b9c:	00878028 	addeq	r8, r7, r8, lsr #32
    1ba0:	001a0500 	andseq	r0, sl, r0, lsl #10
    1ba4:	87a82900 	strhi	r2, [r8, r0, lsl #18]!
    1ba8:	19f90000 	ldmibne	r9!, {}^	; <UNPREDICTABLE>
    1bac:	10560000 	subsne	r0, r6, r0
    1bb0:	012a0000 			; <UNDEFINED> instruction: 0x012a0000
    1bb4:	ec030550 	cfstr32	mvfx0, [r3], {80}	; 0x50
    1bb8:	2a000098 	bcs	1e20 <_start-0x61e0>
    1bbc:	03055101 	movweq	r5, #20737	; 0x5101
    1bc0:	000097ac 	andeq	r9, r0, ip, lsr #15
    1bc4:	0552012a 	ldrbeq	r0, [r2, #-298]	; 0xfffffed6
    1bc8:	009a1803 	addseq	r1, sl, r3, lsl #16
    1bcc:	53012a00 	movwpl	r2, #6656	; 0x1a00
    1bd0:	2a920802 	bcs	fe483be0 <__bss_end__+0xfe479b80>
    1bd4:	02047d02 	andeq	r7, r4, #2, 26	; 0x80
    1bd8:	28000079 	stmdacs	r0, {r0, r3, r4, r5, r6}
    1bdc:	000087ac 	andeq	r8, r0, ip, lsr #15
    1be0:	00001a11 	andeq	r1, r0, r1, lsl sl
    1be4:	0087b028 	addeq	fp, r7, r8, lsr #32
    1be8:	001a0500 	andseq	r0, sl, r0, lsl #10
    1bec:	87c42900 	strbhi	r2, [r4, r0, lsl #18]
    1bf0:	19f90000 	ldmibne	r9!, {}^	; <UNPREDICTABLE>
    1bf4:	10970000 	addsne	r0, r7, r0
    1bf8:	012a0000 			; <UNDEFINED> instruction: 0x012a0000
    1bfc:	28030550 	stmdacs	r3, {r4, r6, r8, sl}
    1c00:	2a000099 	bcs	1e6c <_start-0x6194>
    1c04:	03055101 	movweq	r5, #20737	; 0x5101
    1c08:	000097ac 	andeq	r9, r0, ip, lsr #15
    1c0c:	0552012a 	ldrbeq	r0, [r2, #-298]	; 0xfffffed6
    1c10:	009a1803 	addseq	r1, sl, r3, lsl #16
    1c14:	53012a00 	movwpl	r2, #6656	; 0x1a00
    1c18:	00a10802 	adceq	r0, r1, r2, lsl #16
    1c1c:	0087c828 	addeq	ip, r7, r8, lsr #16
    1c20:	001a1100 	andseq	r1, sl, r0, lsl #2
    1c24:	3c0a0000 	stccc	0, cr0, [sl], {-0}
    1c28:	b1000001 	tstlt	r0, r1
    1c2c:	0b000010 	bleq	1c74 <_start-0x638c>
    1c30:	0000002c 	andeq	r0, r0, ip, lsr #32
    1c34:	a10f0007 	tstge	pc, r7
    1c38:	30000010 	andcc	r0, r0, r0, lsl r0
    1c3c:	00000282 	andeq	r0, r0, r2, lsl #5
    1c40:	28077101 	stmdacs	r7, {r0, r8, ip, sp, lr}
    1c44:	b8000085 	stmdalt	r0, {r0, r2, r7}
    1c48:	01000000 	mrseq	r0, (UNDEF: 0)
    1c4c:	00120c9c 	mulseq	r2, ip, ip
    1c50:	0c252e00 	stceq	14, cr2, [r5], #-0
    1c54:	71010000 	mrsvc	r0, (UNDEF: 1)
    1c58:	00012d15 	andeq	r2, r1, r5, lsl sp
    1c5c:	00038800 	andeq	r8, r3, r0, lsl #16
    1c60:	00038400 	andeq	r8, r3, r0, lsl #8
    1c64:	02092e00 	andeq	r2, r9, #0, 28
    1c68:	71010000 	mrsvc	r0, (UNDEF: 1)
    1c6c:	0005fc27 	andeq	pc, r5, r7, lsr #24
    1c70:	0003aa00 	andeq	sl, r3, r0, lsl #20
    1c74:	0003a600 	andeq	sl, r3, r0, lsl #12
    1c78:	04db2e00 	ldrbeq	r2, [fp], #3584	; 0xe00
    1c7c:	71010000 	mrsvc	r0, (UNDEF: 1)
    1c80:	0005fc39 	andeq	pc, r5, r9, lsr ip	; <UNPREDICTABLE>
    1c84:	0003cc00 	andeq	ip, r3, r0, lsl #24
    1c88:	0003c800 	andeq	ip, r3, r0, lsl #16
    1c8c:	05412e00 	strbeq	r2, [r1, #-3584]	; 0xfffff200
    1c90:	71010000 	mrsvc	r0, (UNDEF: 1)
    1c94:	00002c48 	andeq	r2, r0, r8, asr #24
    1c98:	0003ee00 	andeq	lr, r3, r0, lsl #28
    1c9c:	0003ea00 	andeq	lr, r3, r0, lsl #20
    1ca0:	00682d00 	rsbeq	r2, r8, r0, lsl #26
    1ca4:	b70c7201 	strlt	r7, [ip, -r1, lsl #4]
    1ca8:	1200000c 	andne	r0, r0, #12
    1cac:	0c000004 	stceq	0, cr0, [r0], {4}
    1cb0:	2f000004 	svccs	0x00000004
    1cb4:	0000020e 	andeq	r0, r0, lr, lsl #4
    1cb8:	0000121c 	andeq	r1, r0, ip, lsl r2
    1cbc:	9a100305 	bls	4028d8 <__bss_end__+0x3f8878>
    1cc0:	40290000 	eormi	r0, r9, r0
    1cc4:	1e000085 	cdpne	0, 0, cr0, cr0, cr5, {4}
    1cc8:	51000018 	tstpl	r0, r8, lsl r0
    1ccc:	2a000011 	bcs	1d18 <_start-0x62e8>
    1cd0:	75025001 	strvc	r5, [r2, #-1]
    1cd4:	5c290000 	stcpl	0, cr0, [r9], #-0
    1cd8:	f9000085 			; <UNDEFINED> instruction: 0xf9000085
    1cdc:	68000019 	stmdavs	r0, {r0, r3, r4}
    1ce0:	2a000011 	bcs	1d2c <_start-0x62d4>
    1ce4:	03055001 	movweq	r5, #20481	; 0x5001
    1ce8:	000096b8 			; <UNDEFINED> instruction: 0x000096b8
    1cec:	85682900 	strbhi	r2, [r8, #-2304]!	; 0xfffff700
    1cf0:	19f90000 	ldmibne	r9!, {}^	; <UNPREDICTABLE>
    1cf4:	11850000 	orrne	r0, r5, r0
    1cf8:	012a0000 			; <UNDEFINED> instruction: 0x012a0000
    1cfc:	30030550 	andcc	r0, r3, r0, asr r5
    1d00:	2a000098 	bcs	1f68 <_start-0x6098>
    1d04:	75025101 	strvc	r5, [r2, #-257]	; 0xfffffeff
    1d08:	70290000 	eorvc	r0, r9, r0
    1d0c:	21000085 	smlabbcs	r0, r5, r0, r0
    1d10:	99000012 	stmdbls	r0, {r1, r4}
    1d14:	2a000011 	bcs	1d60 <_start-0x62a0>
    1d18:	74025001 	strvc	r5, [r2], #-1
    1d1c:	94290000 	strtls	r0, [r9], #-0
    1d20:	b7000085 	strlt	r0, [r0, -r5, lsl #1]
    1d24:	ad000018 	stcge	0, cr0, [r0, #-96]	; 0xffffffa0
    1d28:	2a000011 	bcs	1d74 <_start-0x628c>
    1d2c:	74025001 	strvc	r5, [r2], #-1
    1d30:	9c280000 	stcls	0, cr0, [r8], #-0
    1d34:	ce000085 	cdpgt	0, 0, cr0, cr0, cr5, {4}
    1d38:	29000012 	stmdbcs	r0, {r1, r4}
    1d3c:	000085a4 	andeq	r8, r0, r4, lsr #11
    1d40:	000017b3 			; <UNDEFINED> instruction: 0x000017b3
    1d44:	000011ca 	andeq	r1, r0, sl, asr #3
    1d48:	0250012a 	subseq	r0, r0, #-2147483638	; 0x8000000a
    1d4c:	28000074 	stmdacs	r0, {r2, r4, r5, r6}
    1d50:	000085b0 			; <UNDEFINED> instruction: 0x000085b0
    1d54:	00001a05 	andeq	r1, r0, r5, lsl #20
    1d58:	0085c429 	addeq	ip, r5, r9, lsr #8
    1d5c:	0019f900 	andseq	pc, r9, r0, lsl #18
    1d60:	00120200 	andseq	r0, r2, r0, lsl #4
    1d64:	50012a00 	andpl	r2, r1, r0, lsl #20
    1d68:	97fc0305 	ldrbls	r0, [ip, r5, lsl #6]!
    1d6c:	012a0000 			; <UNDEFINED> instruction: 0x012a0000
    1d70:	ac030551 	cfstr32ge	mvfx0, [r3], {81}	; 0x51
    1d74:	2a000097 	bcs	1fd8 <_start-0x6028>
    1d78:	03055201 	movweq	r5, #20993	; 0x5201
    1d7c:	00009a10 	andeq	r9, r0, r0, lsl sl
    1d80:	0253012a 	subseq	r0, r3, #-2147483638	; 0x8000000a
    1d84:	28007408 	stmdacs	r0, {r3, sl, ip, sp, lr}
    1d88:	000085c8 	andeq	r8, r0, r8, asr #11
    1d8c:	00001a11 	andeq	r1, r0, r1, lsl sl
    1d90:	013c0a00 	teqeq	ip, r0, lsl #20
    1d94:	121c0000 	andsne	r0, ip, #0
    1d98:	2c0b0000 	stccs	0, cr0, [fp], {-0}
    1d9c:	06000000 	streq	r0, [r0], -r0
    1da0:	120c0f00 	andne	r0, ip, #0, 30
    1da4:	86310000 	ldrthi	r0, [r1], -r0
    1da8:	01000006 	tsteq	r0, r6
    1dac:	00250c59 	eoreq	r0, r5, r9, asr ip
    1db0:	84500000 	ldrbhi	r0, [r0], #-0
    1db4:	00640000 	rsbeq	r0, r4, r0
    1db8:	9c010000 	stcls	0, cr0, [r1], {-0}
    1dbc:	000012ce 	andeq	r1, r0, lr, asr #5
    1dc0:	0100682c 	tsteq	r0, ip, lsr #16
    1dc4:	0cb71f59 	ldceq	15, cr1, [r7], #356	; 0x164
    1dc8:	043f0000 	ldrteq	r0, [pc], #-0	; 1dd0 <_start-0x6230>
    1dcc:	043b0000 	ldrteq	r0, [fp], #-0
    1dd0:	5c290000 	stcpl	0, cr0, [r9], #-0
    1dd4:	76000084 	strvc	r0, [r0], -r4, lsl #1
    1dd8:	61000016 	tstvs	r0, r6, lsl r0
    1ddc:	2a000012 	bcs	1e2c <_start-0x61d4>
    1de0:	74025001 	strvc	r5, [r2], #-1
    1de4:	6c290000 	stcvs	0, cr0, [r9], #-0
    1de8:	f5000084 			; <UNDEFINED> instruction: 0xf5000084
    1dec:	75000018 	strvc	r0, [r0, #-24]	; 0xffffffe8
    1df0:	2a000012 	bcs	1e40 <_start-0x61c0>
    1df4:	74025001 	strvc	r5, [r2], #-1
    1df8:	78290000 	stmdavc	r9!, {}	; <UNPREDICTABLE>
    1dfc:	e8000084 	stmda	r0, {r2, r7}
    1e00:	8f000014 	svchi	0x00000014
    1e04:	2a000012 	bcs	1e54 <_start-0x61ac>
    1e08:	08025101 	stmdaeq	r2, {r0, r8, ip, lr}
    1e0c:	52012a80 	andpl	r2, r1, #128, 20	; 0x80000
    1e10:	00007402 	andeq	r7, r0, r2, lsl #8
    1e14:	00848829 	addeq	r8, r4, r9, lsr #16
    1e18:	00187a00 	andseq	r7, r8, r0, lsl #20
    1e1c:	0012a300 	andseq	sl, r2, r0, lsl #6
    1e20:	50012a00 	andpl	r2, r1, r0, lsl #20
    1e24:	00007402 	andeq	r7, r0, r2, lsl #8
    1e28:	00849429 	addeq	r9, r4, r9, lsr #8
    1e2c:	00184d00 	andseq	r4, r8, r0, lsl #26
    1e30:	0012b700 	andseq	fp, r2, r0, lsl #14
    1e34:	50012a00 	andpl	r2, r1, r0, lsl #20
    1e38:	00007402 	andeq	r7, r0, r2, lsl #8
    1e3c:	0084a42b 	addeq	sl, r4, fp, lsr #8
    1e40:	0014e800 	andseq	lr, r4, r0, lsl #16
    1e44:	50012a00 	andpl	r2, r1, r0, lsl #20
    1e48:	2a007502 	bcs	1f258 <__bss_end__+0x151f8>
    1e4c:	74025201 	strvc	r5, [r2], #-513	; 0xfffffdff
    1e50:	32000000 	andcc	r0, r0, #0
    1e54:	000005c9 	andeq	r0, r0, r9, asr #11
    1e58:	340d4f01 	strcc	r4, [sp], #-3841	; 0xfffff0ff
    1e5c:	14000082 	strne	r0, [r0], #-130	; 0xffffff7e
    1e60:	01000000 	mrseq	r0, (UNDEF: 0)
    1e64:	0013299c 	mulseq	r3, ip, r9
    1e68:	00702c00 	rsbseq	r2, r0, r0, lsl #24
    1e6c:	2d1c4f01 	ldccs	15, cr4, [ip, #-4]
    1e70:	61000001 	tstvs	r0, r1
    1e74:	5d000004 	stcpl	0, cr0, [r0, #-16]
    1e78:	2e000004 	cdpcs	0, 0, cr0, cr0, cr4, {0}
    1e7c:	00000698 	muleq	r0, r8, r6
    1e80:	2c284f01 	stccs	15, cr4, [r8], #-4
    1e84:	88000000 	stmdahi	r0, {}	; <UNPREDICTABLE>
    1e88:	82000004 	andhi	r0, r0, #4
    1e8c:	2b000004 	blcs	1ea4 <_start-0x615c>
    1e90:	00008244 	andeq	r8, r0, r4, asr #4
    1e94:	00001a1d 	andeq	r1, r0, sp, lsl sl
    1e98:	0350012a 	cmpeq	r0, #-2147483638	; 0x8000000a
    1e9c:	2a5001f3 	bcs	1402670 <__bss_end__+0x13f8610>
    1ea0:	08025101 	stmdaeq	r2, {r0, r8, ip, lr}
    1ea4:	52012afe 	andpl	r2, r1, #1040384	; 0xfe000
    1ea8:	5101f303 	tstpl	r1, r3, lsl #6	; <UNPREDICTABLE>
    1eac:	28310000 	ldmdacs	r1!, {}	; <UNPREDICTABLE>
    1eb0:	01000006 	tsteq	r0, r6
    1eb4:	00250c41 	eoreq	r0, r5, r1, asr #24
    1eb8:	81280000 			; <UNDEFINED> instruction: 0x81280000
    1ebc:	010c0000 	mrseq	r0, (UNDEF: 12)
    1ec0:	9c010000 	stcls	0, cr0, [r1], {-0}
    1ec4:	000014e8 	andeq	r1, r0, r8, ror #9
    1ec8:	0100702c 	tsteq	r0, ip, lsr #32
    1ecc:	012f2441 			; <UNDEFINED> instruction: 0x012f2441
    1ed0:	04bc0000 	ldrteq	r0, [ip], #0
    1ed4:	04b40000 	ldrteq	r0, [r4], #0
    1ed8:	982e0000 	stmdals	lr!, {}	; <UNPREDICTABLE>
    1edc:	01000006 	tsteq	r0, r6
    1ee0:	002c3041 	eoreq	r3, ip, r1, asr #32
    1ee4:	04f60000 	ldrbteq	r0, [r6], #0
    1ee8:	04f00000 	ldrbteq	r0, [r0], #0
    1eec:	682c0000 	stmdavs	ip!, {}	; <UNPREDICTABLE>
    1ef0:	3f410100 	svccc	0x00410100
    1ef4:	00000cb7 			; <UNDEFINED> instruction: 0x00000cb7
    1ef8:	00000528 	andeq	r0, r0, r8, lsr #10
    1efc:	00000522 	andeq	r0, r0, r2, lsr #10
    1f00:	0100692d 	tsteq	r0, sp, lsr #18
    1f04:	00250942 	eoreq	r0, r5, r2, asr #18
    1f08:	05570000 	ldrbeq	r0, [r7, #-0]
    1f0c:	05510000 	ldrbeq	r0, [r1, #-0]
    1f10:	50330000 	eorspl	r0, r3, r0
    1f14:	c0000081 	andgt	r0, r0, r1, lsl #1
    1f18:	26000000 	strcs	r0, [r0], -r0
    1f1c:	000005ea 	andeq	r0, r0, sl, ror #11
    1f20:	25114501 	ldrcs	r4, [r1, #-1281]	; 0xfffffaff
    1f24:	83000000 	movwhi	r0, #0
    1f28:	81000005 	tsthi	r0, r5
    1f2c:	34000005 	strcc	r0, [r0], #-5
    1f30:	000019d1 	ldrdeq	r1, [r0], -r1	; <UNPREDICTABLE>
    1f34:	00008184 	andeq	r8, r0, r4, lsl #3
    1f38:	00000001 	andeq	r0, r0, r1
    1f3c:	0d460100 	stfeqe	f0, [r6, #-0]
    1f40:	0000145d 	andeq	r1, r0, sp, asr r4
    1f44:	0019de35 	andseq	sp, r9, r5, lsr lr
    1f48:	00059a00 	andeq	r9, r5, r0, lsl #20
    1f4c:	00059600 	andeq	r9, r5, r0, lsl #12
    1f50:	00003600 	andeq	r3, r0, r0, lsl #12
    1f54:	e8370000 	ldmda	r7!, {}	; <UNPREDICTABLE>
    1f58:	bc000019 	stclt	0, cr0, [r0], {25}
    1f5c:	b8000005 	stmdalt	r0, {r0, r2}
    1f60:	29000005 	stmdbcs	r0, {r0, r2}
    1f64:	0000818c 	andeq	r8, r0, ip, lsl #3
    1f68:	000019f9 	strdeq	r1, [r0], -r9
    1f6c:	000013f2 	strdeq	r1, [r0], -r2
    1f70:	0250012a 	subseq	r0, r0, #-2147483638	; 0x8000000a
    1f74:	29000077 	stmdbcs	r0, {r0, r1, r2, r4, r5, r6}
    1f78:	00008198 	muleq	r0, r8, r1
    1f7c:	000019f9 	strdeq	r1, [r0], -r9
    1f80:	00001409 	andeq	r1, r0, r9, lsl #8
    1f84:	0550012a 	ldrbeq	r0, [r0, #-298]	; 0xfffffed6
    1f88:	00974803 	addseq	r4, r7, r3, lsl #16
    1f8c:	ac290000 	stcge	0, cr0, [r9], #-0
    1f90:	f9000081 			; <UNDEFINED> instruction: 0xf9000081
    1f94:	1d000019 	stcne	0, cr0, [r0, #-100]	; 0xffffff9c
    1f98:	2a000014 	bcs	1ff0 <_start-0x6010>
    1f9c:	77025001 	strvc	r5, [r2, -r1]
    1fa0:	c0290000 	eorgt	r0, r9, r0
    1fa4:	f9000081 			; <UNDEFINED> instruction: 0xf9000081
    1fa8:	34000019 	strcc	r0, [r0], #-25	; 0xffffffe7
    1fac:	2a000014 	bcs	2004 <_start-0x5ffc>
    1fb0:	03055001 	movweq	r5, #20481	; 0x5001
    1fb4:	00009754 	andeq	r9, r0, r4, asr r7
    1fb8:	81f82900 	mvnshi	r2, r0, lsl #18
    1fbc:	19f90000 	ldmibne	r9!, {}^	; <UNPREDICTABLE>
    1fc0:	14480000 	strbne	r0, [r8], #-0
    1fc4:	012a0000 			; <UNDEFINED> instruction: 0x012a0000
    1fc8:	00770250 	rsbseq	r0, r7, r0, asr r2
    1fcc:	820c2b00 	andhi	r2, ip, #0, 22
    1fd0:	19f90000 	ldmibne	r9!, {}^	; <UNPREDICTABLE>
    1fd4:	012a0000 			; <UNDEFINED> instruction: 0x012a0000
    1fd8:	74030550 	strvc	r0, [r3], #-1360	; 0xfffffab0
    1fdc:	00000097 	muleq	r0, r7, r0
    1fe0:	58290000 	stmdapl	r9!, {}	; <UNPREDICTABLE>
    1fe4:	b7000081 	strlt	r0, [r0, -r1, lsl #1]
    1fe8:	71000018 	tstvc	r0, r8, lsl r0
    1fec:	2a000014 	bcs	2044 <_start-0x5fbc>
    1ff0:	76025001 	strvc	r5, [r2], -r1
    1ff4:	6c290000 	stcvs	0, cr0, [r9], #-0
    1ff8:	f9000081 			; <UNDEFINED> instruction: 0xf9000081
    1ffc:	85000019 	strhi	r0, [r0, #-25]	; 0xffffffe7
    2000:	2a000014 	bcs	2058 <_start-0x5fa8>
    2004:	77025001 	strvc	r5, [r2, -r1]
    2008:	74290000 	strtvc	r0, [r9], #-0
    200c:	f9000081 			; <UNDEFINED> instruction: 0xf9000081
    2010:	9c000019 	stcls	0, cr0, [r0], {25}
    2014:	2a000014 	bcs	206c <_start-0x5f94>
    2018:	03055001 	movweq	r5, #20481	; 0x5001
    201c:	0000971c 	andeq	r9, r0, ip, lsl r7
    2020:	81842900 	orrhi	r2, r4, r0, lsl #18
    2024:	19f90000 	ldmibne	r9!, {}^	; <UNPREDICTABLE>
    2028:	14bf0000 	ldrtne	r0, [pc], #0	; 2030 <_start-0x5fd0>
    202c:	012a0000 			; <UNDEFINED> instruction: 0x012a0000
    2030:	24030550 	strcs	r0, [r3], #-1360	; 0xfffffab0
    2034:	2a000097 	bcs	2298 <_start-0x5d68>
    2038:	75025101 	strvc	r5, [r2, #-257]	; 0xfffffeff
    203c:	52012a00 	andpl	r2, r1, #0, 20
    2040:	00007402 	andeq	r7, r0, r2, lsl #8
    2044:	0081d429 	addeq	sp, r1, r9, lsr #8
    2048:	0019f900 	andseq	pc, r9, r0, lsl #18
    204c:	0014d300 	andseq	sp, r4, r0, lsl #6
    2050:	50012a00 	andpl	r2, r1, r0, lsl #20
    2054:	00007702 	andeq	r7, r0, r2, lsl #14
    2058:	0081dc2b 	addeq	sp, r1, fp, lsr #24
    205c:	0019f900 	andseq	pc, r9, r0, lsl #18
    2060:	50012a00 	andpl	r2, r1, r0, lsl #20
    2064:	97900305 	ldrls	r0, [r0, r5, lsl #6]
    2068:	00000000 	andeq	r0, r0, r0
    206c:	06bd3100 	ldrteq	r3, [sp], r0, lsl #2
    2070:	34010000 	strcc	r0, [r1], #-0
    2074:	0000250c 	andeq	r2, r0, ip, lsl #10
    2078:	00835400 	addeq	r5, r3, r0, lsl #8
    207c:	0000fc00 	andeq	pc, r0, r0, lsl #24
    2080:	769c0100 	ldrvc	r0, [ip], r0, lsl #2
    2084:	2c000016 	stccs	0, cr0, [r0], {22}
    2088:	34010070 	strcc	r0, [r1], #-112	; 0xffffff90
    208c:	00012f1c 	andeq	r2, r1, ip, lsl pc
    2090:	0005e600 	andeq	lr, r5, r0, lsl #12
    2094:	0005de00 	andeq	sp, r5, r0, lsl #28
    2098:	06982e00 	ldreq	r2, [r8], r0, lsl #28
    209c:	34010000 	strcc	r0, [r1], #-0
    20a0:	00002c28 	andeq	r2, r0, r8, lsr #24
    20a4:	00062000 	andeq	r2, r6, r0
    20a8:	00061a00 	andeq	r1, r6, r0, lsl #20
    20ac:	00682c00 	rsbeq	r2, r8, r0, lsl #24
    20b0:	b7373401 	ldrlt	r3, [r7, -r1, lsl #8]!
    20b4:	5200000c 	andpl	r0, r0, #12
    20b8:	4c000006 	stcmi	0, cr0, [r0], {6}
    20bc:	2d000006 	stccs	0, cr0, [r0, #-24]	; 0xffffffe8
    20c0:	35010069 	strcc	r0, [r1, #-105]	; 0xffffff97
    20c4:	00002509 	andeq	r2, r0, r9, lsl #10
    20c8:	00068100 	andeq	r8, r6, r0, lsl #2
    20cc:	00067b00 	andeq	r7, r6, r0, lsl #22
    20d0:	837c3300 	cmnhi	ip, #0, 6
    20d4:	00b40000 	adcseq	r0, r4, r0
    20d8:	ea260000 	b	9820e0 <__bss_end__+0x978080>
    20dc:	01000005 	tsteq	r0, r5
    20e0:	00251138 	eoreq	r1, r5, r8, lsr r1
    20e4:	06ad0000 	strteq	r0, [sp], r0
    20e8:	06ab0000 	strteq	r0, [fp], r0
    20ec:	d1340000 	teqle	r4, r0
    20f0:	b4000019 	strlt	r0, [r0], #-25	; 0xffffffe7
    20f4:	01000083 	smlabbeq	r0, r3, r0, r0
    20f8:	00000030 	andeq	r0, r0, r0, lsr r0
    20fc:	1c0d3901 			; <UNDEFINED> instruction: 0x1c0d3901
    2100:	35000016 	strcc	r0, [r0, #-22]	; 0xffffffea
    2104:	000019de 	ldrdeq	r1, [r0], -lr
    2108:	000006c2 	andeq	r0, r0, r2, asr #13
    210c:	000006c0 	andeq	r0, r0, r0, asr #13
    2110:	00003036 	andeq	r3, r0, r6, lsr r0
    2114:	19e83700 	stmibne	r8!, {r8, r9, sl, ip, sp}^
    2118:	06d90000 	ldrbeq	r0, [r9], r0
    211c:	06d50000 	ldrbeq	r0, [r5], r0
    2120:	bc290000 	stclt	0, cr0, [r9], #-0
    2124:	f9000083 			; <UNDEFINED> instruction: 0xf9000083
    2128:	b1000019 	tstlt	r0, r9, lsl r0
    212c:	2a000015 	bcs	2188 <_start-0x5e78>
    2130:	77025001 	strvc	r5, [r2, -r1]
    2134:	c8290000 	stmdagt	r9!, {}	; <UNPREDICTABLE>
    2138:	f9000083 			; <UNDEFINED> instruction: 0xf9000083
    213c:	c8000019 	stmdagt	r0, {r0, r3, r4}
    2140:	2a000015 	bcs	219c <_start-0x5e64>
    2144:	03055001 	movweq	r5, #20481	; 0x5001
    2148:	00009748 	andeq	r9, r0, r8, asr #14
    214c:	83dc2900 	bicshi	r2, ip, #0, 18
    2150:	19f90000 	ldmibne	r9!, {}^	; <UNPREDICTABLE>
    2154:	15dc0000 	ldrbne	r0, [ip]
    2158:	012a0000 			; <UNDEFINED> instruction: 0x012a0000
    215c:	00770250 	rsbseq	r0, r7, r0, asr r2
    2160:	83f02900 	mvnshi	r2, #0, 18
    2164:	19f90000 	ldmibne	r9!, {}^	; <UNPREDICTABLE>
    2168:	15f30000 	ldrbne	r0, [r3, #0]!
    216c:	012a0000 			; <UNDEFINED> instruction: 0x012a0000
    2170:	54030550 	strpl	r0, [r3], #-1360	; 0xfffffab0
    2174:	00000097 	muleq	r0, r7, r0
    2178:	00841829 	addeq	r1, r4, r9, lsr #16
    217c:	0019f900 	andseq	pc, r9, r0, lsl #18
    2180:	00160700 	andseq	r0, r6, r0, lsl #14
    2184:	50012a00 	andpl	r2, r1, r0, lsl #20
    2188:	00007702 	andeq	r7, r0, r2, lsl #14
    218c:	00842c2b 	addeq	r2, r4, fp, lsr #24
    2190:	0019f900 	andseq	pc, r9, r0, lsl #18
    2194:	50012a00 	andpl	r2, r1, r0, lsl #20
    2198:	97740305 	ldrbls	r0, [r4, -r5, lsl #6]!
    219c:	00000000 	andeq	r0, r0, r0
    21a0:	83842900 	orrhi	r2, r4, #0, 18
    21a4:	18b70000 	ldmne	r7!, {}	; <UNPREDICTABLE>
    21a8:	16300000 	ldrtne	r0, [r0], -r0
    21ac:	012a0000 			; <UNDEFINED> instruction: 0x012a0000
    21b0:	00760250 	rsbseq	r0, r6, r0, asr r2
    21b4:	83982900 	orrshi	r2, r8, #0, 18
    21b8:	19f90000 	ldmibne	r9!, {}^	; <UNPREDICTABLE>
    21bc:	16440000 	strbne	r0, [r4], -r0
    21c0:	012a0000 			; <UNDEFINED> instruction: 0x012a0000
    21c4:	00770250 	rsbseq	r0, r7, r0, asr r2
    21c8:	83a02900 	movhi	r2, #0, 18
    21cc:	19f90000 	ldmibne	r9!, {}^	; <UNPREDICTABLE>
    21d0:	165b0000 	ldrbne	r0, [fp], -r0
    21d4:	012a0000 			; <UNDEFINED> instruction: 0x012a0000
    21d8:	1c030550 	cfstr32ne	mvfx0, [r3], {80}	; 0x50
    21dc:	00000097 	muleq	r0, r7, r0
    21e0:	0083b42b 	addeq	fp, r3, fp, lsr #8
    21e4:	0019f900 	andseq	pc, r9, r0, lsl #18
    21e8:	50012a00 	andpl	r2, r1, r0, lsl #20
    21ec:	97240305 	strls	r0, [r4, -r5, lsl #6]!
    21f0:	012a0000 			; <UNDEFINED> instruction: 0x012a0000
    21f4:	00740252 	rsbseq	r0, r4, r2, asr r2
    21f8:	31000000 	mrscc	r0, (UNDEF: 0)
    21fc:	00000639 	andeq	r0, r0, r9, lsr r6
    2200:	250c2a01 	strcs	r2, [ip, #-2561]	; 0xfffff5ff
    2204:	6c000000 	stcvs	0, cr0, [r0], {-0}
    2208:	e8000082 	stmda	r0, {r1, r7}
    220c:	01000000 	mrseq	r0, (UNDEF: 0)
    2210:	0017b39c 	mulseq	r7, ip, r3
    2214:	00682c00 	rsbeq	r2, r8, r0, lsl #24
    2218:	b71d2a01 	ldrlt	r2, [sp, -r1, lsl #20]
    221c:	ff00000c 			; <UNDEFINED> instruction: 0xff00000c
    2220:	fb000006 	blx	2242 <_start-0x5dbe>
    2224:	34000006 	strcc	r0, [r0], #-6
    2228:	000019d1 	ldrdeq	r1, [r0], -r1	; <UNPREDICTABLE>
    222c:	000082b8 			; <UNDEFINED> instruction: 0x000082b8
    2230:	00001801 	andeq	r1, r0, r1, lsl #16
    2234:	092d0100 	stmfdeq	sp!, {r8}
    2238:	00001755 	andeq	r1, r0, r5, asr r7
    223c:	0019de35 	andseq	sp, r9, r5, lsr lr
    2240:	00071f00 	andeq	r1, r7, r0, lsl #30
    2244:	00071d00 	andeq	r1, r7, r0, lsl #26
    2248:	00183600 	andseq	r3, r8, r0, lsl #12
    224c:	e8370000 	ldmda	r7!, {}	; <UNPREDICTABLE>
    2250:	36000019 			; <UNDEFINED> instruction: 0x36000019
    2254:	32000007 	andcc	r0, r0, #7
    2258:	29000007 	stmdbcs	r0, {r0, r1, r2}
    225c:	000082c0 	andeq	r8, r0, r0, asr #5
    2260:	000019f9 	strdeq	r1, [r0], -r9
    2264:	000016ea 	andeq	r1, r0, sl, ror #13
    2268:	0250012a 	subseq	r0, r0, #-2147483638	; 0x8000000a
    226c:	29000075 	stmdbcs	r0, {r0, r2, r4, r5, r6}
    2270:	000082cc 	andeq	r8, r0, ip, asr #5
    2274:	000019f9 	strdeq	r1, [r0], -r9
    2278:	00001701 	andeq	r1, r0, r1, lsl #14
    227c:	0550012a 	ldrbeq	r0, [r0, #-298]	; 0xfffffed6
    2280:	00974803 	addseq	r4, r7, r3, lsl #16
    2284:	e0290000 	eor	r0, r9, r0
    2288:	f9000082 			; <UNDEFINED> instruction: 0xf9000082
    228c:	15000019 	strne	r0, [r0, #-25]	; 0xffffffe7
    2290:	2a000017 	bcs	22f4 <_start-0x5d0c>
    2294:	75025001 	strvc	r5, [r2, #-1]
    2298:	f4290000 	vld4.8	{d0-d3}, [r9], r0
    229c:	f9000082 			; <UNDEFINED> instruction: 0xf9000082
    22a0:	2c000019 	stccs	0, cr0, [r0], {25}
    22a4:	2a000017 	bcs	2308 <_start-0x5cf8>
    22a8:	03055001 	movweq	r5, #20481	; 0x5001
    22ac:	00009754 	andeq	r9, r0, r4, asr r7
    22b0:	831c2900 	tsthi	ip, #0, 18
    22b4:	19f90000 	ldmibne	r9!, {}^	; <UNPREDICTABLE>
    22b8:	17400000 	strbne	r0, [r0, -r0]
    22bc:	012a0000 			; <UNDEFINED> instruction: 0x012a0000
    22c0:	00750250 	rsbseq	r0, r5, r0, asr r2
    22c4:	83302b00 	teqhi	r0, #0, 22
    22c8:	19f90000 	ldmibne	r9!, {}^	; <UNPREDICTABLE>
    22cc:	012a0000 			; <UNDEFINED> instruction: 0x012a0000
    22d0:	74030550 	strvc	r0, [r3], #-1360	; 0xfffffab0
    22d4:	00000097 	muleq	r0, r7, r0
    22d8:	8c290000 	stchi	0, cr0, [r9], #-0
    22dc:	b3000082 	movwlt	r0, #130	; 0x82
    22e0:	69000017 	stmdbvs	r0, {r0, r1, r2, r4}
    22e4:	2a000017 	bcs	2348 <_start-0x5cb8>
    22e8:	74025001 	strvc	r5, [r2], #-1
    22ec:	a0290000 	eorge	r0, r9, r0
    22f0:	f9000082 			; <UNDEFINED> instruction: 0xf9000082
    22f4:	7d000019 	stcvc	0, cr0, [r0, #-100]	; 0xffffff9c
    22f8:	2a000017 	bcs	235c <_start-0x5ca4>
    22fc:	75025001 	strvc	r5, [r2, #-1]
    2300:	a8290000 	stmdage	r9!, {}	; <UNPREDICTABLE>
    2304:	f9000082 			; <UNDEFINED> instruction: 0xf9000082
    2308:	94000019 	strls	r0, [r0], #-25	; 0xffffffe7
    230c:	2a000017 	bcs	2370 <_start-0x5c90>
    2310:	03055001 	movweq	r5, #20481	; 0x5001
    2314:	0000971c 	andeq	r9, r0, ip, lsl r7
    2318:	82b82b00 	adcshi	r2, r8, #0, 22
    231c:	19f90000 	ldmibne	r9!, {}^	; <UNPREDICTABLE>
    2320:	012a0000 			; <UNDEFINED> instruction: 0x012a0000
    2324:	24030550 	strcs	r0, [r3], #-1360	; 0xfffffab0
    2328:	2a000097 	bcs	258c <_start-0x5a74>
    232c:	74025101 	strvc	r5, [r2], #-257	; 0xfffffeff
    2330:	52012a00 	andpl	r2, r1, #0, 20
    2334:	00003001 	andeq	r3, r0, r1
    2338:	00060531 	andeq	r0, r6, r1, lsr r5
    233c:	11210100 			; <UNDEFINED> instruction: 0x11210100
    2340:	00000069 	andeq	r0, r0, r9, rrx
    2344:	00008248 	andeq	r8, r0, r8, asr #4
    2348:	00000024 	andeq	r0, r0, r4, lsr #32
    234c:	181e9c01 	ldmdane	lr, {r0, sl, fp, ip, pc}
    2350:	682c0000 	stmdavs	ip!, {}	; <UNPREDICTABLE>
    2354:	22210100 	eorcs	r0, r1, #0, 2
    2358:	00000cb7 			; <UNDEFINED> instruction: 0x00000cb7
    235c:	0000075c 	andeq	r0, r0, ip, asr r7
    2360:	00000758 	andeq	r0, r0, r8, asr r7
    2364:	646c6f2d 	strbtvs	r6, [ip], #-3885	; 0xfffff0d3
    2368:	0e220100 	sufeqs	f0, f2, f0
    236c:	0000002c 	andeq	r0, r0, ip, lsr #32
    2370:	0000077c 	andeq	r0, r0, ip, ror r7
    2374:	0000077a 	andeq	r0, r0, sl, ror r7
    2378:	00060926 	andeq	r0, r6, r6, lsr #18
    237c:	0e240100 	sufeqs	f0, f4, f0
    2380:	00000069 	andeq	r0, r0, r9, rrx
    2384:	00000791 	muleq	r0, r1, r7
    2388:	0000078f 	andeq	r0, r0, pc, lsl #15
    238c:	0082642b 	addeq	r6, r2, fp, lsr #8
    2390:	001a2900 	andseq	r2, sl, r0, lsl #18
    2394:	50012a00 	andpl	r2, r1, r0, lsl #20
    2398:	2a007402 	bcs	1f3a8 <__bss_end__+0x15348>
    239c:	08025101 	stmdaeq	r2, {r0, r8, ip, lr}
    23a0:	31000038 	tstcc	r0, r8, lsr r0
    23a4:	000005d2 	ldrdeq	r0, [r0], -r2
    23a8:	b70f1c01 	strlt	r1, [pc, -r1, lsl #24]
    23ac:	2000000c 	andcs	r0, r0, ip
    23b0:	08000081 	stmdaeq	r0, {r0, r7}
    23b4:	01000000 	mrseq	r0, (UNDEF: 0)
    23b8:	00184d9c 	mulseq	r8, ip, sp
    23bc:	0c252e00 	stceq	14, cr2, [r5], #-0
    23c0:	1c010000 	stcne	0, cr0, [r1], {-0}
    23c4:	00012d23 	andeq	r2, r1, r3, lsr #26
    23c8:	0007a800 	andeq	sl, r7, r0, lsl #16
    23cc:	0007a400 	andeq	sl, r7, r0, lsl #8
    23d0:	92310000 	eorsls	r0, r1, #0
    23d4:	01000006 	tsteq	r0, r6
    23d8:	002c1119 	eoreq	r1, ip, r9, lsl r1
    23dc:	81140000 	tsthi	r4, r0
    23e0:	000c0000 	andeq	r0, ip, r0
    23e4:	9c010000 	stcls	0, cr0, [r1], {-0}
    23e8:	0000187a 	andeq	r1, r0, sl, ror r8
    23ec:	0100682c 	tsteq	r0, ip, lsr #16
    23f0:	0cb72519 	cfldr32eq	mvfx2, [r7], #100	; 0x64
    23f4:	07cd0000 	strbeq	r0, [sp, r0]
    23f8:	07c90000 	strbeq	r0, [r9, r0]
    23fc:	31000000 	mrscc	r0, (UNDEF: 0)
    2400:	00000643 	andeq	r0, r0, r3, asr #12
    2404:	2d0e1701 	stccs	7, cr1, [lr, #-4]
    2408:	fc000001 	stc2	0, cr0, [r0], {1}
    240c:	18000080 	stmdane	r0, {r7}
    2410:	01000000 	mrseq	r0, (UNDEF: 0)
    2414:	0018b79c 	mulseq	r8, ip, r7
    2418:	00682c00 	rsbeq	r2, r8, r0, lsl #24
    241c:	b71f1701 	ldrlt	r1, [pc, -r1, lsl #14]
    2420:	f200000c 	vhadd.s8	d0, d0, d12
    2424:	ee000007 	cdp	0, 0, cr0, cr0, cr7, {0}
    2428:	2b000007 	blcs	244c <_start-0x5bb4>
    242c:	00008108 	andeq	r8, r0, r8, lsl #2
    2430:	000018b7 			; <UNDEFINED> instruction: 0x000018b7
    2434:	0250012a 	subseq	r0, r0, #-2147483638	; 0x8000000a
    2438:	00000074 	andeq	r0, r0, r4, ror r0
    243c:	00061c31 	andeq	r1, r6, r1, lsr ip
    2440:	0e150100 	mufeqs	f0, f5, f0
    2444:	0000012d 	andeq	r0, r0, sp, lsr #2
    2448:	000080ec 	andeq	r8, r0, ip, ror #1
    244c:	00000010 	andeq	r0, r0, r0, lsl r0
    2450:	18f59c01 	ldmne	r5!, {r0, sl, fp, ip, pc}^
    2454:	682c0000 	stmdavs	ip!, {}	; <UNPREDICTABLE>
    2458:	21150100 	tstcs	r5, r0, lsl #2
    245c:	00000cb7 			; <UNDEFINED> instruction: 0x00000cb7
    2460:	00000814 	andeq	r0, r0, r4, lsl r8
    2464:	00000810 	andeq	r0, r0, r0, lsl r8
    2468:	0080f42b 	addeq	pc, r0, fp, lsr #8
    246c:	0018f500 	andseq	pc, r8, r0, lsl #10
    2470:	50012a00 	andpl	r2, r1, r0, lsl #20
    2474:	5001f303 	andpl	pc, r1, r3, lsl #6
    2478:	6d310000 	ldcvs	0, cr0, [r1, #-0]
    247c:	01000005 	tsteq	r0, r5
    2480:	012d0e13 			; <UNDEFINED> instruction: 0x012d0e13
    2484:	80e40000 	rschi	r0, r4, r0
    2488:	00080000 	andeq	r0, r8, r0
    248c:	9c010000 	stcls	0, cr0, [r1], {-0}
    2490:	00001922 	andeq	r1, r0, r2, lsr #18
    2494:	0100682c 	tsteq	r0, ip, lsr #16
    2498:	0cb71f13 	ldceq	15, cr1, [r7], #76	; 0x4c
    249c:	08390000 	ldmdaeq	r9!, {}	; <UNPREDICTABLE>
    24a0:	08350000 	ldmdaeq	r5!, {}	; <UNPREDICTABLE>
    24a4:	30000000 	andcc	r0, r0, r0
    24a8:	00000135 	andeq	r0, r0, r5, lsr r1
    24ac:	b4060901 	strlt	r0, [r6], #-2305	; 0xfffff6ff
    24b0:	74000084 	strvc	r0, [r0], #-132	; 0xffffff7c
    24b4:	01000000 	mrseq	r0, (UNDEF: 0)
    24b8:	0019d19c 	mulseq	r9, ip, r1
    24bc:	0c1e2e00 	ldceq	14, cr2, [lr], {-0}
    24c0:	09010000 	stmdbeq	r1, {}	; <UNPREDICTABLE>
    24c4:	00012d14 	andeq	r2, r1, r4, lsl sp
    24c8:	00086300 	andeq	r6, r8, r0, lsl #6
    24cc:	00085900 	andeq	r5, r8, r0, lsl #18
    24d0:	006e2c00 	rsbeq	r2, lr, r0, lsl #24
    24d4:	2c240901 			; <UNDEFINED> instruction: 0x2c240901
    24d8:	b1000000 	mrslt	r0, (UNDEF: 0)
    24dc:	a9000008 	stmdbge	r0, {r3}
    24e0:	2f000008 	svccs	0x00000008
    24e4:	0000020e 	andeq	r0, r0, lr, lsl #4
    24e8:	000010b1 	strheq	r1, [r0], -r1	; <UNPREDICTABLE>
    24ec:	9a080305 	bls	203108 <__bss_end__+0x1f90a8>
    24f0:	e0290000 	eor	r0, r9, r0
    24f4:	f9000084 			; <UNDEFINED> instruction: 0xf9000084
    24f8:	90000019 	andls	r0, r0, r9, lsl r0
    24fc:	2a000019 	bcs	2568 <_start-0x5a98>
    2500:	03055001 	movweq	r5, #20481	; 0x5001
    2504:	000097e0 	andeq	r9, r0, r0, ror #15
    2508:	0251012a 	subseq	r0, r1, #-2147483638	; 0x8000000a
    250c:	012a3808 			; <UNDEFINED> instruction: 0x012a3808
    2510:	80080252 	andhi	r0, r8, r2, asr r2
    2514:	84fc2800 	ldrbthi	r2, [ip], #2048	; 0x800
    2518:	1a050000 	bne	142520 <__bss_end__+0x1384c0>
    251c:	10290000 	eorne	r0, r9, r0
    2520:	f9000085 			; <UNDEFINED> instruction: 0xf9000085
    2524:	c7000019 	smladgt	r0, r9, r0, r0
    2528:	2a000019 	bcs	2594 <_start-0x5a6c>
    252c:	03055001 	movweq	r5, #20481	; 0x5001
    2530:	000097b8 			; <UNDEFINED> instruction: 0x000097b8
    2534:	0551012a 	ldrbeq	r0, [r1, #-298]	; 0xfffffed6
    2538:	0097ac03 	addseq	sl, r7, r3, lsl #24
    253c:	52012a00 	andpl	r2, r1, #0, 20
    2540:	9a080305 	bls	20315c <__bss_end__+0x1f90fc>
    2544:	012a0000 			; <UNDEFINED> instruction: 0x012a0000
    2548:	003a0153 	eorseq	r0, sl, r3, asr r1
    254c:	00851428 	addeq	r1, r5, r8, lsr #8
    2550:	001a1100 	andseq	r1, sl, r0, lsl #2
    2554:	6e380000 	cdpvs	0, 3, cr0, cr8, cr0, {0}
    2558:	02000006 	andeq	r0, r0, #6
    255c:	f3031455 	vqshl.u8	<illegal reg q0.5>, <illegal reg q2.5>, <illegal reg q1.5>
    2560:	39000019 	stmdbcc	r0, {r0, r3, r4}
    2564:	55020068 	strpl	r0, [r2, #-104]	; 0xffffff98
    2568:	000cb725 	andeq	fp, ip, r5, lsr #14
    256c:	006c3a00 	rsbeq	r3, ip, r0, lsl #20
    2570:	f3105702 	vabd.u16	d5, d0, d2
    2574:	00000019 	andeq	r0, r0, r9, lsl r0
    2578:	09b30405 	ldmibeq	r3!, {r0, r2, sl}
    257c:	183b0000 	ldmdane	fp!, {}	; <UNPREDICTABLE>
    2580:	18000007 	stmdane	r0, {r0, r1, r2}
    2584:	08000007 	stmdaeq	r0, {r0, r1, r2}
    2588:	e93b0529 	ldmdb	fp!, {r0, r3, r5, r8, sl}
    258c:	e9000001 	stmdb	r0, {r0}
    2590:	08000001 	stmdaeq	r0, {r0}
    2594:	9b3b061e 	blls	ec3e14 <__bss_end__+0xeb9db4>
    2598:	9b000002 	blls	25a8 <_start-0x5a58>
    259c:	08000002 	stmdaeq	r0, {r1}
    25a0:	9a3b0665 	bls	ec3f3c <__bss_end__+0xeb9edc>
    25a4:	9a000004 	bls	25bc <_start-0x5a44>
    25a8:	09000004 	stmdbeq	r0, {r2}
    25ac:	5a3b0921 	bpl	ec4a38 <__bss_end__+0xeba9d8>
    25b0:	5a000005 	bpl	25cc <_start-0x5a34>
    25b4:	0a000005 	beq	25d0 <_start-0x5a30>
    25b8:	fe000a05 	vseleq.f32	s0, s0, s10
    25bc:	04000009 	streq	r0, [r0], #-9
    25c0:	0005ac00 	andeq	sl, r5, r0, lsl #24
    25c4:	fd010400 	stc2	4, cr0, [r1, #-0]
    25c8:	0c000002 	stceq	0, cr0, [r0], {2}
    25cc:	000006ce 	andeq	r0, r0, lr, asr #13
    25d0:	000006da 	ldrdeq	r0, [r0], -sl
    25d4:	000089bc 			; <UNDEFINED> instruction: 0x000089bc
    25d8:	000000ec 	andeq	r0, r0, ip, ror #1
    25dc:	000008d3 	ldrdeq	r0, [r0], -r3
    25e0:	69050402 	stmdbvs	r5, {r1, sl}
    25e4:	0300746e 	movweq	r7, #1134	; 0x46e
    25e8:	00660704 	rsbeq	r0, r6, r4, lsl #14
    25ec:	01030000 	mrseq	r0, (UNDEF: 3)
    25f0:	0002ec06 	andeq	lr, r2, r6, lsl #24
    25f4:	05020300 	streq	r0, [r2, #-768]	; 0xfffffd00
    25f8:	00000385 	andeq	r0, r0, r5, lsl #7
    25fc:	ac050403 	cfstrsge	mvf0, [r5], {3}
    2600:	03000000 	movweq	r0, #0
    2604:	00a70508 	adceq	r0, r7, r8, lsl #10
    2608:	9f040000 	svcls	0x00040000
    260c:	02000006 	andeq	r0, r0, #6
    2610:	005b182e 	subseq	r1, fp, lr, lsr #16
    2614:	01030000 	mrseq	r0, (UNDEF: 3)
    2618:	0002ea08 	andeq	lr, r2, r8, lsl #20
    261c:	07020300 	streq	r0, [r2, -r0, lsl #6]
    2620:	00000222 	andeq	r0, r0, r2, lsr #4
    2624:	00065d04 	andeq	r5, r6, r4, lsl #26
    2628:	19340200 	ldmdbne	r4!, {r9}
    262c:	00000075 	andeq	r0, r0, r5, ror r0
    2630:	61070403 	tstvs	r7, r3, lsl #8
    2634:	03000000 	movweq	r0, #0
    2638:	005c0708 	subseq	r0, ip, r8, lsl #14
    263c:	73040000 	movwvc	r0, #16384	; 0x4000
    2640:	03000002 	movweq	r0, #2
    2644:	008f1922 	addeq	r1, pc, r2, lsr #18
    2648:	04050000 	streq	r0, [r5], #-0
    264c:	00000095 	muleq	r0, r5, r0
    2650:	00042b06 	andeq	r2, r4, r6, lsl #22
    2654:	02cb0400 	sbceq	r0, fp, #0, 8
    2658:	2c040000 	stccs	0, cr0, [r4], {-0}
    265c:	0000410e 	andeq	r4, r0, lr, lsl #2
    2660:	04400400 	strbeq	r0, [r0], #-1024	; 0xfffffc00
    2664:	72040000 	andvc	r0, r4, #0
    2668:	0000410e 	andeq	r4, r0, lr, lsl #2
    266c:	027b0700 	rsbseq	r0, fp, #0, 14
    2670:	5e050000 	cdppl	0, 0, cr0, cr5, cr0, {0}
    2674:	002c1701 	eoreq	r1, ip, r1, lsl #14
    2678:	04080000 	streq	r0, [r8], #-0
    267c:	e103a604 	tst	r3, r4, lsl #12
    2680:	09000000 	stmdbeq	r0, {}	; <UNPREDICTABLE>
    2684:	0000026d 	andeq	r0, r0, sp, ror #4
    2688:	b20ca804 	andlt	sl, ip, #4, 16	; 0x40000
    268c:	09000000 	stmdbeq	r0, {}	; <UNPREDICTABLE>
    2690:	000001e2 	andeq	r0, r0, r2, ror #3
    2694:	e113a904 	tst	r3, r4, lsl #18
    2698:	00000000 	andeq	r0, r0, r0
    269c:	00005b0a 	andeq	r5, r0, sl, lsl #22
    26a0:	0000f100 	andeq	pc, r0, r0, lsl #2
    26a4:	002c0b00 	eoreq	r0, ip, r0, lsl #22
    26a8:	00030000 	andeq	r0, r3, r0
    26ac:	a304080c 	movwge	r0, #18444	; 0x480c
    26b0:	00011509 	andeq	r1, r1, r9, lsl #10
    26b4:	04230d00 	strteq	r0, [r3], #-3328	; 0xfffff300
    26b8:	a5040000 	strge	r0, [r4, #-0]
    26bc:	00002507 	andeq	r2, r0, r7, lsl #10
    26c0:	320d0000 	andcc	r0, sp, #0
    26c4:	04000004 	streq	r0, [r0], #-4
    26c8:	00bf05aa 	adcseq	r0, pc, sl, lsr #11
    26cc:	00040000 	andeq	r0, r4, r0
    26d0:	0003ad04 	andeq	sl, r3, r4, lsl #26
    26d4:	03ab0400 			; <UNDEFINED> instruction: 0x03ab0400
    26d8:	000000f1 	strdeq	r0, [r0], -r1
    26dc:	00019f04 	andeq	r9, r1, r4, lsl #30
    26e0:	1baf0400 	blne	febc36e8 <__bss_end__+0xfebb9688>
    26e4:	00000083 	andeq	r0, r0, r3, lsl #1
    26e8:	0405040e 	streq	r0, [r5], #-1038	; 0xfffffbf2
    26ec:	00000135 	andeq	r0, r0, r5, lsr r1
    26f0:	f3080103 	vrhadd.u8	d0, d8, d3
    26f4:	0f000002 	svceq	0x00000002
    26f8:	00000135 	andeq	r0, r0, r5, lsr r1
    26fc:	00047204 	andeq	r7, r4, r4, lsl #4
    2700:	19160600 	ldmdbne	r6, {r9, sl}
    2704:	00000075 	andeq	r0, r0, r5, ror r0
    2708:	0001b010 	andeq	fp, r1, r0, lsl r0
    270c:	2f061800 	svccs	0x00061800
    2710:	0001a708 	andeq	sl, r1, r8, lsl #14
    2714:	03ce0d00 	biceq	r0, lr, #0, 26
    2718:	31060000 	mrscc	r0, (UNDEF: 6)
    271c:	0001a713 	andeq	sl, r1, r3, lsl r7
    2720:	5f110000 	svcpl	0x00110000
    2724:	3206006b 	andcc	r0, r6, #107	; 0x6b
    2728:	00002507 	andeq	r2, r0, r7, lsl #10
    272c:	0e0d0400 	cfcpyseq	mvf0, mvf13
    2730:	06000004 	streq	r0, [r0], -r4
    2734:	00250b32 	eoreq	r0, r5, r2, lsr fp
    2738:	0d080000 	stceq	0, cr0, [r8, #-0]
    273c:	00000199 	muleq	r0, r9, r1
    2740:	25143206 	ldrcs	r3, [r4, #-518]	; 0xfffffdfa
    2744:	0c000000 	stceq	0, cr0, [r0], {-0}
    2748:	0004ae0d 	andeq	sl, r4, sp, lsl #28
    274c:	1b320600 	blne	c83f54 <__bss_end__+0xc79ef4>
    2750:	00000025 	andeq	r0, r0, r5, lsr #32
    2754:	785f1110 	ldmdavc	pc, {r4, r8, ip}^	; <UNPREDICTABLE>
    2758:	0b330600 	bleq	cc3f60 <__bss_end__+0xcb9f00>
    275c:	000001ad 	andeq	r0, r0, sp, lsr #3
    2760:	04050014 	streq	r0, [r5], #-20	; 0xffffffec
    2764:	0000014d 	andeq	r0, r0, sp, asr #2
    2768:	0001410a 	andeq	r4, r1, sl, lsl #2
    276c:	0001bd00 	andeq	fp, r1, r0, lsl #26
    2770:	002c0b00 	eoreq	r0, ip, r0, lsl #22
    2774:	00000000 	andeq	r0, r0, r0
    2778:	0001dd10 	andeq	sp, r1, r0, lsl sp
    277c:	37062400 	strcc	r2, [r6, -r0, lsl #8]
    2780:	00024008 	andeq	r4, r2, r8
    2784:	009e0d00 	addseq	r0, lr, r0, lsl #26
    2788:	39060000 	stmdbcc	r6, {}	; <UNPREDICTABLE>
    278c:	00002509 	andeq	r2, r0, r9, lsl #10
    2790:	480d0000 	stmdami	sp, {}	; <UNPREDICTABLE>
    2794:	06000004 	streq	r0, [r0], -r4
    2798:	0025093a 	eoreq	r0, r5, sl, lsr r9
    279c:	0d040000 	stceq	0, cr0, [r4, #-0]
    27a0:	000000c1 	andeq	r0, r0, r1, asr #1
    27a4:	25093b06 	strcs	r3, [r9, #-2822]	; 0xfffff4fa
    27a8:	08000000 	stmdaeq	r0, {}	; <UNPREDICTABLE>
    27ac:	00052f0d 	andeq	r2, r5, sp, lsl #30
    27b0:	093c0600 	ldmdbeq	ip!, {r9, sl}
    27b4:	00000025 	andeq	r0, r0, r5, lsr #32
    27b8:	02af0d0c 	adceq	r0, pc, #12, 26	; 0x300
    27bc:	3d060000 	stccc	0, cr0, [r6, #-0]
    27c0:	00002509 	andeq	r2, r0, r9, lsl #10
    27c4:	910d1000 	mrsls	r1, (UNDEF: 13)
    27c8:	06000002 	streq	r0, [r0], -r2
    27cc:	0025093e 	eoreq	r0, r5, lr, lsr r9
    27d0:	0d140000 	ldceq	0, cr0, [r4, #-0]
    27d4:	000004b3 			; <UNDEFINED> instruction: 0x000004b3
    27d8:	25093f06 	strcs	r3, [r9, #-3846]	; 0xfffff0fa
    27dc:	18000000 	stmdane	r0, {}	; <UNPREDICTABLE>
    27e0:	00038f0d 	andeq	r8, r3, sp, lsl #30
    27e4:	09400600 	stmdbeq	r0, {r9, sl}^
    27e8:	00000025 	andeq	r0, r0, r5, lsr #32
    27ec:	04f60d1c 	ldrbteq	r0, [r6], #3356	; 0xd1c
    27f0:	41060000 	mrsmi	r0, (UNDEF: 6)
    27f4:	00002509 	andeq	r2, r0, r9, lsl #10
    27f8:	12002000 	andne	r2, r0, #0
    27fc:	00000101 	andeq	r0, r0, r1, lsl #2
    2800:	4a060108 	bmi	182c28 <__bss_end__+0x178bc8>
    2804:	00028508 	andeq	r8, r2, r8, lsl #10
    2808:	018c0d00 	orreq	r0, ip, r0, lsl #26
    280c:	4b060000 	blmi	182814 <__bss_end__+0x1787b4>
    2810:	0002850a 	andeq	r8, r2, sl, lsl #10
    2814:	000d0000 	andeq	r0, sp, r0
    2818:	06000000 	streq	r0, [r0], -r0
    281c:	0285094c 	addeq	r0, r5, #76, 18	; 0x130000
    2820:	13800000 	orrne	r0, r0, #0
    2824:	00000464 	andeq	r0, r0, r4, ror #8
    2828:	410a4e06 	tstmi	sl, r6, lsl #28
    282c:	00000001 	andeq	r0, r0, r1
    2830:	01261301 			; <UNDEFINED> instruction: 0x01261301
    2834:	51060000 	mrspl	r0, (UNDEF: 6)
    2838:	0001410a 	andeq	r4, r1, sl, lsl #2
    283c:	00010400 	andeq	r0, r1, r0, lsl #8
    2840:	00012d0a 	andeq	r2, r1, sl, lsl #26
    2844:	00029500 	andeq	r9, r2, r0, lsl #10
    2848:	002c0b00 	eoreq	r0, ip, r0, lsl #22
    284c:	001f0000 	andseq	r0, pc, r0
    2850:	0002b812 	andeq	fp, r2, r2, lsl r8
    2854:	06019000 	streq	r9, [r1], -r0
    2858:	02d8085d 	sbcseq	r0, r8, #6094848	; 0x5d0000
    285c:	ce0d0000 	cdpgt	0, 0, cr0, cr13, cr0, {0}
    2860:	06000003 	streq	r0, [r0], -r3
    2864:	02d8125e 	sbcseq	r1, r8, #-536870907	; 0xe0000005
    2868:	0d000000 	stceq	0, cr0, [r0, #-0]
    286c:	000003e6 	andeq	r0, r0, r6, ror #7
    2870:	25065f06 	strcs	r5, [r6, #-3846]	; 0xfffff0fa
    2874:	04000000 	streq	r0, [r0], #-0
    2878:	0001940d 	andeq	r9, r1, sp, lsl #8
    287c:	09610600 	stmdbeq	r1!, {r9, sl}^
    2880:	000002de 	ldrdeq	r0, [r0], -lr
    2884:	01010d08 	tsteq	r1, r8, lsl #26
    2888:	62060000 	andvs	r0, r6, #0
    288c:	0002401e 	andeq	r4, r2, lr, lsl r0
    2890:	05008800 	streq	r8, [r0, #-2048]	; 0xfffff800
    2894:	00029504 	andeq	r9, r2, r4, lsl #10
    2898:	02ee0a00 	rsceq	r0, lr, #0, 20
    289c:	02ee0000 	rsceq	r0, lr, #0
    28a0:	2c0b0000 	stccs	0, cr0, [fp], {-0}
    28a4:	1f000000 	svcne	0x00000000
    28a8:	f4040500 	vst3.8	{d0,d2,d4}, [r4], r0
    28ac:	14000002 	strne	r0, [r0], #-2
    28b0:	00039910 	andeq	r9, r3, r0, lsl r9
    28b4:	75060800 	strvc	r0, [r6, #-2048]	; 0xfffff800
    28b8:	00031d08 	andeq	r1, r3, r8, lsl #26
    28bc:	00bb0d00 	adcseq	r0, fp, r0, lsl #26
    28c0:	76060000 	strvc	r0, [r6], -r0
    28c4:	00031d11 	andeq	r1, r3, r1, lsl sp
    28c8:	1b0d0000 	blne	3428d0 <__bss_end__+0x338870>
    28cc:	06000000 	streq	r0, [r0], -r0
    28d0:	00250677 	eoreq	r0, r5, r7, ror r6
    28d4:	00040000 	andeq	r0, r4, r0
    28d8:	005b0405 	subseq	r0, fp, r5, lsl #8
    28dc:	b8100000 	ldmdalt	r0, {}	; <UNPREDICTABLE>
    28e0:	68000003 	stmdavs	r0, {r0, r1}
    28e4:	6608b506 	strvs	fp, [r8], -r6, lsl #10
    28e8:	11000004 	tstne	r0, r4
    28ec:	0600705f 			; <UNDEFINED> instruction: 0x0600705f
    28f0:	031d12b6 	tsteq	sp, #1610612747	; 0x6000000b
    28f4:	11000000 	mrsne	r0, (UNDEF: 0)
    28f8:	0600725f 			; <UNDEFINED> instruction: 0x0600725f
    28fc:	002507b7 	strhteq	r0, [r5], -r7
    2900:	11040000 	mrsne	r0, (UNDEF: 4)
    2904:	0600775f 			; <UNDEFINED> instruction: 0x0600775f
    2908:	002507b8 	strhteq	r0, [r5], -r8
    290c:	0d080000 	stceq	0, cr0, [r8, #-0]
    2910:	0000011f 	andeq	r0, r0, pc, lsl r1
    2914:	3a09b906 	bcc	270d34 <__bss_end__+0x266cd4>
    2918:	0c000000 	stceq	0, cr0, [r0], {-0}
    291c:	0002080d 	andeq	r0, r2, sp, lsl #16
    2920:	09ba0600 	ldmibeq	sl!, {r9, sl}
    2924:	0000003a 	andeq	r0, r0, sl, lsr r0
    2928:	625f110e 	subsvs	r1, pc, #-2147483645	; 0x80000003
    292c:	bb060066 	bllt	182acc <__bss_end__+0x178a6c>
    2930:	0002f511 	andeq	pc, r2, r1, lsl r5	; <UNPREDICTABLE>
    2934:	7b0d1000 	blvc	34693c <__bss_end__+0x33c8dc>
    2938:	06000000 	streq	r0, [r0], -r0
    293c:	002507bc 	strhteq	r0, [r5], -ip
    2940:	0d180000 	ldceq	0, cr0, [r8, #-0]
    2944:	0000010f 	andeq	r0, r0, pc, lsl #2
    2948:	2d0ac306 	stccs	3, cr12, [sl, #-24]	; 0xffffffe8
    294c:	1c000001 	stcne	0, cr0, [r0], {1}
    2950:	000b3d0d 	andeq	r3, fp, sp, lsl #26
    2954:	1dc50600 	stclne	6, cr0, [r5]
    2958:	000005d8 	ldrdeq	r0, [r0], -r8
    295c:	06320d20 	ldrteq	r0, [r2], -r0, lsr #26
    2960:	c7060000 	strgt	r0, [r6, -r0]
    2964:	0006021d 	andeq	r0, r6, sp, lsl r2
    2968:	3a0d2400 	bcc	34b970 <__bss_end__+0x341910>
    296c:	06000004 	streq	r0, [r0], -r4
    2970:	06260dca 	strteq	r0, [r6], -sl, asr #27
    2974:	0d280000 	stceq	0, cr0, [r8, #-0]
    2978:	00000510 	andeq	r0, r0, r0, lsl r5
    297c:	4009cb06 	andmi	ip, r9, r6, lsl #22
    2980:	2c000006 	stccs	0, cr0, [r0], {6}
    2984:	62755f11 	rsbsvs	r5, r5, #17, 30	; 0x44
    2988:	11ce0600 	bicne	r0, lr, r0, lsl #12
    298c:	000002f5 	strdeq	r0, [r0], -r5
    2990:	755f1130 	ldrbvc	r1, [pc, #-304]	; 2868 <_start-0x5798>
    2994:	cf060070 	svcgt	0x00060070
    2998:	00031d12 	andeq	r1, r3, r2, lsl sp
    299c:	5f113800 	svcpl	0x00113800
    29a0:	06007275 			; <UNDEFINED> instruction: 0x06007275
    29a4:	002507d0 	ldrdeq	r0, [r5], -r0	; <UNPREDICTABLE>
    29a8:	0d3c0000 	ldceq	0, cr0, [ip, #-0]
    29ac:	000000b5 	strheq	r0, [r0], -r5
    29b0:	4611d306 	ldrmi	sp, [r1], -r6, lsl #6
    29b4:	40000006 	andmi	r0, r0, r6
    29b8:	0004e80d 	andeq	lr, r4, sp, lsl #16
    29bc:	11d40600 	bicsne	r0, r4, r0, lsl #12
    29c0:	00000656 	andeq	r0, r0, r6, asr r6
    29c4:	6c5f1143 	ldfvse	f1, [pc], {67}	; 0x43
    29c8:	d7060062 	strle	r0, [r6, -r2, rrx]
    29cc:	0002f511 	andeq	pc, r2, r1, lsl r5	; <UNPREDICTABLE>
    29d0:	3d0d4400 	cfstrscc	mvf4, [sp, #-0]
    29d4:	06000001 	streq	r0, [r0], -r1
    29d8:	002507da 	ldrdeq	r0, [r5], -sl	; <UNPREDICTABLE>
    29dc:	0d4c0000 	stcleq	0, cr0, [ip, #-0]
    29e0:	0000014e 	andeq	r0, r0, lr, asr #2
    29e4:	9a0adb06 	bls	2b9604 <__bss_end__+0x2af5a4>
    29e8:	50000000 	andpl	r0, r0, r0
    29ec:	000ade0d 	andeq	sp, sl, sp, lsl #28
    29f0:	12de0600 	sbcsne	r0, lr, #0, 12
    29f4:	00000484 	andeq	r0, r0, r4, lsl #9
    29f8:	042c0d54 	strteq	r0, [ip], #-3412	; 0xfffff2ac
    29fc:	e2060000 	and	r0, r6, #0
    2a00:	0001210c 	andeq	r2, r1, ip, lsl #2
    2a04:	c00d5800 	andgt	r5, sp, r0, lsl #16
    2a08:	06000003 	streq	r0, [r0], -r3
    2a0c:	01150ee4 	tsteq	r5, r4, ror #29
    2a10:	0d5c0000 	ldcleq	0, cr0, [ip, #-0]
    2a14:	00000289 	andeq	r0, r0, r9, lsl #5
    2a18:	2509e506 	strcs	lr, [r9, #-1286]	; 0xfffffafa
    2a1c:	64000000 	strvs	r0, [r0], #-0
    2a20:	00251500 	eoreq	r1, r5, r0, lsl #10
    2a24:	04840000 	streq	r0, [r4], #0
    2a28:	84160000 	ldrhi	r0, [r6], #-0
    2a2c:	16000004 	strne	r0, [r0], -r4
    2a30:	0000012d 	andeq	r0, r0, sp, lsr #2
    2a34:	00012f16 	andeq	r2, r1, r6, lsl pc
    2a38:	00251600 	eoreq	r1, r5, r0, lsl #12
    2a3c:	05000000 	streq	r0, [r0, #-0]
    2a40:	00048f04 	andeq	r8, r4, r4, lsl #30
    2a44:	04840f00 	streq	r0, [r4], #3840	; 0xf00
    2a48:	16170000 	ldrne	r0, [r7], -r0
    2a4c:	28000004 	stmdacs	r0, {r2}
    2a50:	02600604 	rsbeq	r0, r0, #4, 12	; 0x400000
    2a54:	0005d808 	andeq	sp, r5, r8, lsl #16
    2a58:	037e1800 	cmneq	lr, #0, 16
    2a5c:	62060000 	andvs	r0, r6, #0
    2a60:	00250702 	eoreq	r0, r5, r2, lsl #14
    2a64:	18000000 	stmdane	r0, {}	; <UNPREDICTABLE>
    2a68:	0000012e 	andeq	r0, r0, lr, lsr #2
    2a6c:	0b026706 	bleq	9c68c <__bss_end__+0x9262c>
    2a70:	000006b2 			; <UNDEFINED> instruction: 0x000006b2
    2a74:	01f81804 	mvnseq	r1, r4, lsl #16
    2a78:	67060000 	strvs	r0, [r6, -r0]
    2a7c:	06b21402 	ldrteq	r1, [r2], r2, lsl #8
    2a80:	18080000 	stmdane	r8, {}	; <UNPREDICTABLE>
    2a84:	000001a8 	andeq	r0, r0, r8, lsr #3
    2a88:	1e026706 	cdpne	7, 0, cr6, cr2, cr6, {0}
    2a8c:	000006b2 			; <UNDEFINED> instruction: 0x000006b2
    2a90:	03e1180c 	mvneq	r1, #12, 16	; 0xc0000
    2a94:	69060000 	stmdbvs	r6, {}	; <UNPREDICTABLE>
    2a98:	00250802 	eoreq	r0, r5, r2, lsl #16
    2a9c:	18100000 	ldmdane	r0, {}	; <UNPREDICTABLE>
    2aa0:	00000029 	andeq	r0, r0, r9, lsr #32
    2aa4:	08026a06 	stmdaeq	r2, {r1, r2, r9, fp, sp, lr}
    2aa8:	000008b2 			; <UNDEFINED> instruction: 0x000008b2
    2aac:	03f51814 	mvnseq	r1, #20, 16	; 0x140000
    2ab0:	6d060000 	stcvs	0, cr0, [r6, #-0]
    2ab4:	00250702 	eoreq	r0, r5, r2, lsl #14
    2ab8:	18300000 	ldmdane	r0!, {}	; <UNPREDICTABLE>
    2abc:	00000a1a 	andeq	r0, r0, sl, lsl sl
    2ac0:	16026e06 	strne	r6, [r2], -r6, lsl #28
    2ac4:	000008c7 	andeq	r0, r0, r7, asr #17
    2ac8:	02c01834 	sbceq	r1, r0, #52, 16	; 0x340000
    2acc:	70060000 	andvc	r0, r6, r0
    2ad0:	00250702 	eoreq	r0, r5, r2, lsl #14
    2ad4:	18380000 	ldmdane	r8!, {}	; <UNPREDICTABLE>
    2ad8:	000003eb 	andeq	r0, r0, fp, ror #7
    2adc:	0a027206 	beq	9f2fc <__bss_end__+0x9529c>
    2ae0:	000008d8 	ldrdeq	r0, [r0], -r8
    2ae4:	0265183c 	rsbeq	r1, r5, #60, 16	; 0x3c0000
    2ae8:	75060000 	strvc	r0, [r6, #-0]
    2aec:	01a71302 			; <UNDEFINED> instruction: 0x01a71302
    2af0:	18400000 	stmdane	r0, {}^	; <UNPREDICTABLE>
    2af4:	000001c7 	andeq	r0, r0, r7, asr #3
    2af8:	07027606 	streq	r7, [r2, -r6, lsl #12]
    2afc:	00000025 	andeq	r0, r0, r5, lsr #32
    2b00:	052a1844 	streq	r1, [sl, #-2116]!	; 0xfffff7bc
    2b04:	77060000 	strvc	r0, [r6, -r0]
    2b08:	01a71302 			; <UNDEFINED> instruction: 0x01a71302
    2b0c:	18480000 	stmdane	r8, {}^	; <UNPREDICTABLE>
    2b10:	000002d2 	ldrdeq	r0, [r0], -r2
    2b14:	14027806 	strne	r7, [r2], #-2054	; 0xfffff7fa
    2b18:	000008de 	ldrdeq	r0, [r0], -lr
    2b1c:	0200184c 	andeq	r1, r0, #76, 16	; 0x4c0000
    2b20:	7b060000 	blvc	182b28 <__bss_end__+0x178ac8>
    2b24:	00250702 	eoreq	r0, r5, r2, lsl #14
    2b28:	18500000 	ldmdane	r0, {}^	; <UNPREDICTABLE>
    2b2c:	00000146 	andeq	r0, r0, r6, asr #2
    2b30:	09027c06 	stmdbeq	r2, {r1, r2, sl, fp, ip, sp, lr}
    2b34:	0000012f 	andeq	r0, r0, pc, lsr #2
    2b38:	02f81854 	rscseq	r1, r8, #84, 16	; 0x540000
    2b3c:	9f060000 	svcls	0x00060000
    2b40:	088d0702 	stmeq	sp, {r1, r8, r9, sl}
    2b44:	19580000 	ldmdbne	r8, {}^	; <UNPREDICTABLE>
    2b48:	000002b8 			; <UNDEFINED> instruction: 0x000002b8
    2b4c:	1302a306 	movwne	sl, #8966	; 0x2306
    2b50:	000002d8 	ldrdeq	r0, [r0], -r8
    2b54:	43190148 	tstmi	r9, #72, 2
    2b58:	06000002 	streq	r0, [r0], -r2
    2b5c:	951202a4 	ldrls	r0, [r2, #-676]	; 0xfffffd5c
    2b60:	4c000002 	stcmi	0, cr0, [r0], {2}
    2b64:	04d61901 	ldrbeq	r1, [r6], #2305	; 0x901
    2b68:	a8060000 	stmdage	r6, {}	; <UNPREDICTABLE>
    2b6c:	08ef0c02 	stmiaeq	pc!, {r1, sl, fp}^	; <UNPREDICTABLE>
    2b70:	02dc0000 	sbcseq	r0, ip, #0
    2b74:	00011719 	andeq	r1, r1, r9, lsl r7
    2b78:	02ad0600 	adceq	r0, sp, #0, 12
    2b7c:	00067310 	andeq	r7, r6, r0, lsl r3
    2b80:	1902e000 	stmdbne	r2, {sp, lr, pc}
    2b84:	000000fc 	strdeq	r0, [r0], -ip
    2b88:	0a02af06 	beq	ae7a8 <__bss_end__+0xa4748>
    2b8c:	000008fb 	strdeq	r0, [r0], -fp
    2b90:	050002ec 	streq	r0, [r0, #-748]	; 0xfffffd14
    2b94:	00046604 	andeq	r6, r4, r4, lsl #12
    2b98:	00251500 	eoreq	r1, r5, r0, lsl #10
    2b9c:	05fc0000 	ldrbeq	r0, [ip, #0]!
    2ba0:	84160000 	ldrhi	r0, [r6], #-0
    2ba4:	16000004 	strne	r0, [r0], -r4
    2ba8:	0000012d 	andeq	r0, r0, sp, lsr #2
    2bac:	0005fc16 	andeq	pc, r5, r6, lsl ip	; <UNPREDICTABLE>
    2bb0:	00251600 	eoreq	r1, r5, r0, lsl #12
    2bb4:	05000000 	streq	r0, [r0, #-0]
    2bb8:	00013c04 	andeq	r3, r1, r4, lsl #24
    2bbc:	de040500 	cfsh32le	mvfx0, mvfx4, #0
    2bc0:	15000005 	strne	r0, [r0, #-5]
    2bc4:	000000a6 	andeq	r0, r0, r6, lsr #1
    2bc8:	00000626 	andeq	r0, r0, r6, lsr #12
    2bcc:	00048416 	andeq	r8, r4, r6, lsl r4
    2bd0:	012d1600 			; <UNDEFINED> instruction: 0x012d1600
    2bd4:	a6160000 	ldrge	r0, [r6], -r0
    2bd8:	16000000 	strne	r0, [r0], -r0
    2bdc:	00000025 	andeq	r0, r0, r5, lsr #32
    2be0:	08040500 	stmdaeq	r4, {r8, sl}
    2be4:	15000006 	strne	r0, [r0, #-6]
    2be8:	00000025 	andeq	r0, r0, r5, lsr #32
    2bec:	00000640 	andeq	r0, r0, r0, asr #12
    2bf0:	00048416 	andeq	r8, r4, r6, lsl r4
    2bf4:	012d1600 			; <UNDEFINED> instruction: 0x012d1600
    2bf8:	05000000 	streq	r0, [r0, #-0]
    2bfc:	00062c04 	andeq	r2, r6, r4, lsl #24
    2c00:	005b0a00 	subseq	r0, fp, r0, lsl #20
    2c04:	06560000 	ldrbeq	r0, [r6], -r0
    2c08:	2c0b0000 	stccs	0, cr0, [fp], {-0}
    2c0c:	02000000 	andeq	r0, r0, #0
    2c10:	005b0a00 	subseq	r0, fp, r0, lsl #20
    2c14:	06660000 	strbteq	r0, [r6], -r0
    2c18:	2c0b0000 	stccs	0, cr0, [fp], {-0}
    2c1c:	00000000 	andeq	r0, r0, r0
    2c20:	03a60700 			; <UNDEFINED> instruction: 0x03a60700
    2c24:	1f060000 	svcne	0x00060000
    2c28:	03231a01 			; <UNDEFINED> instruction: 0x03231a01
    2c2c:	bd1a0000 	ldclt	0, cr0, [sl, #-0]
    2c30:	0c000004 	stceq	0, cr0, [r0], {4}
    2c34:	08012306 	stmdaeq	r1, {r1, r2, r8, r9, sp}
    2c38:	000006ac 	andeq	r0, r0, ip, lsr #13
    2c3c:	0003ce18 	andeq	ip, r3, r8, lsl lr
    2c40:	01250600 			; <UNDEFINED> instruction: 0x01250600
    2c44:	0006ac11 	andeq	sl, r6, r1, lsl ip
    2c48:	1b180000 	blne	602c50 <__bss_end__+0x5f8bf0>
    2c4c:	06000002 	streq	r0, [r0], -r2
    2c50:	25070126 	strcs	r0, [r7, #-294]	; 0xfffffeda
    2c54:	04000000 	streq	r0, [r0], #-0
    2c58:	0003a018 	andeq	sl, r3, r8, lsl r0
    2c5c:	01270600 			; <UNDEFINED> instruction: 0x01270600
    2c60:	0006b20b 	andeq	fp, r6, fp, lsl #4
    2c64:	05000800 	streq	r0, [r0, #-2048]	; 0xfffff800
    2c68:	00067304 	andeq	r7, r6, r4, lsl #6
    2c6c:	66040500 	strvs	r0, [r4], -r0, lsl #10
    2c70:	1a000006 	bne	2c90 <_start-0x5370>
    2c74:	00000021 	andeq	r0, r0, r1, lsr #32
    2c78:	013f060e 	teqeq	pc, lr, lsl #12
    2c7c:	0006f108 	andeq	pc, r6, r8, lsl #2
    2c80:	041d1800 	ldreq	r1, [sp], #-2048	; 0xfffff800
    2c84:	40060000 	andmi	r0, r6, r0
    2c88:	06f11201 	ldrbteq	r1, [r1], r1, lsl #4
    2c8c:	18000000 	stmdane	r0, {}	; <UNPREDICTABLE>
    2c90:	00000451 	andeq	r0, r0, r1, asr r4
    2c94:	12014106 	andne	r4, r1, #-2147483647	; 0x80000001
    2c98:	000006f1 	strdeq	r0, [r0], -r1
    2c9c:	046d1806 	strbteq	r1, [sp], #-2054	; 0xfffff7fa
    2ca0:	42060000 	andmi	r0, r6, #0
    2ca4:	00621201 	rsbeq	r1, r2, r1, lsl #4
    2ca8:	000c0000 	andeq	r0, ip, r0
    2cac:	0000620a 	andeq	r6, r0, sl, lsl #4
    2cb0:	00070100 	andeq	r0, r7, r0, lsl #2
    2cb4:	002c0b00 	eoreq	r0, ip, r0, lsl #22
    2cb8:	00020000 	andeq	r0, r2, r0
    2cbc:	8006d01b 	andhi	sp, r6, fp, lsl r0
    2cc0:	08160702 	ldmdaeq	r6, {r1, r8, r9, sl}
    2cc4:	a1180000 	tstge	r8, r0
    2cc8:	06000004 	streq	r0, [r0], -r4
    2ccc:	2c180282 	lfmcs	f0, 4, [r8], {130}	; 0x82
    2cd0:	00000000 	andeq	r0, r0, r0
    2cd4:	00045718 	andeq	r5, r4, r8, lsl r7
    2cd8:	02830600 	addeq	r0, r3, #0, 12
    2cdc:	00012f12 	andeq	r2, r1, r2, lsl pc
    2ce0:	58180400 	ldmdapl	r8, {sl}
    2ce4:	06000002 	streq	r0, [r0], -r2
    2ce8:	16100284 	ldrne	r0, [r0], -r4, lsl #5
    2cec:	08000008 	stmdaeq	r0, {r3}
    2cf0:	00050118 	andeq	r0, r5, r8, lsl r1
    2cf4:	02850600 	addeq	r0, r5, #0, 12
    2cf8:	0001bd17 	andeq	fp, r1, r7, lsl sp
    2cfc:	b8182400 	ldmdalt	r8, {sl, sp}
    2d00:	06000001 	streq	r0, [r0], -r1
    2d04:	250f0286 	strcs	r0, [pc, #-646]	; 2a86 <_start-0x557a>
    2d08:	48000000 	stmdami	r0, {}	; <UNPREDICTABLE>
    2d0c:	0003c918 	andeq	ip, r3, r8, lsl r9
    2d10:	02870600 	addeq	r0, r7, #0, 12
    2d14:	00007c2c 	andeq	r7, r0, ip, lsr #24
    2d18:	17185000 	ldrne	r5, [r8, -r0]
    2d1c:	06000005 	streq	r0, [r0], -r5
    2d20:	b81a0288 	ldmdalt	sl, {r3, r7, r9}
    2d24:	58000006 	stmdapl	r0, {r1, r2}
    2d28:	0003d418 	andeq	sp, r3, r8, lsl r4
    2d2c:	02890600 	addeq	r0, r9, #0, 12
    2d30:	00011516 	andeq	r1, r1, r6, lsl r5
    2d34:	1c186800 	ldcne	8, cr6, [r8], {-0}
    2d38:	06000005 	streq	r0, [r0], -r5
    2d3c:	1516028a 	ldrne	r0, [r6, #-650]	; 0xfffffd76
    2d40:	70000001 	andvc	r0, r0, r1
    2d44:	0002dc18 	andeq	sp, r2, r8, lsl ip
    2d48:	028b0600 	addeq	r0, fp, #0, 12
    2d4c:	00011516 	andeq	r1, r1, r6, lsl r5
    2d50:	cc187800 	ldcgt	8, cr7, [r8], {-0}
    2d54:	06000004 	streq	r0, [r0], -r4
    2d58:	2610028c 	ldrcs	r0, [r0], -ip, lsl #5
    2d5c:	80000008 	andhi	r0, r0, r8
    2d60:	00024c18 	andeq	r4, r2, r8, lsl ip
    2d64:	028d0600 	addeq	r0, sp, #0, 12
    2d68:	00083610 	andeq	r3, r8, r0, lsl r6
    2d6c:	7a188800 	bvc	624d74 <__bss_end__+0x61ad14>
    2d70:	06000004 	streq	r0, [r0], -r4
    2d74:	250f028e 	strcs	r0, [pc, #-654]	; 2aee <_start-0x5512>
    2d78:	a0000000 	andge	r0, r0, r0
    2d7c:	00017e18 	andeq	r7, r1, r8, lsl lr
    2d80:	028f0600 	addeq	r0, pc, #0, 12
    2d84:	00011516 	andeq	r1, r1, r6, lsl r5
    2d88:	8f18a400 	svchi	0x0018a400
    2d8c:	06000000 	streq	r0, [r0], -r0
    2d90:	15160290 	ldrne	r0, [r6, #-656]	; 0xfffffd70
    2d94:	ac000001 	stcge	0, cr0, [r0], {1}
    2d98:	00016d18 	andeq	r6, r1, r8, lsl sp
    2d9c:	02910600 	addseq	r0, r1, #0, 12
    2da0:	00011516 	andeq	r1, r1, r6, lsl r5
    2da4:	3c18b400 	cfldrscc	mvf11, [r8], {-0}
    2da8:	06000000 	streq	r0, [r0], -r0
    2dac:	15160292 	ldrne	r0, [r6, #-658]	; 0xfffffd6e
    2db0:	bc000001 	stclt	0, cr0, [r0], {1}
    2db4:	00004b18 	andeq	r4, r0, r8, lsl fp
    2db8:	02930600 	addseq	r0, r3, #0, 12
    2dbc:	00011516 	andeq	r1, r1, r6, lsl r5
    2dc0:	7c18c400 	cfldrsvc	mvf12, [r8], {-0}
    2dc4:	06000003 	streq	r0, [r0], -r3
    2dc8:	25080294 	strcs	r0, [r8, #-660]	; 0xfffffd6c
    2dcc:	cc000000 	stcgt	0, cr0, [r0], {-0}
    2dd0:	01350a00 	teqeq	r5, r0, lsl #20
    2dd4:	08260000 	stmdaeq	r6!, {}	; <UNPREDICTABLE>
    2dd8:	2c0b0000 	stccs	0, cr0, [fp], {-0}
    2ddc:	19000000 	stmdbne	r0, {}	; <UNPREDICTABLE>
    2de0:	01350a00 	teqeq	r5, r0, lsl #20
    2de4:	08360000 	ldmdaeq	r6!, {}	; <UNPREDICTABLE>
    2de8:	2c0b0000 	stccs	0, cr0, [fp], {-0}
    2dec:	07000000 	streq	r0, [r0, -r0]
    2df0:	01350a00 	teqeq	r5, r0, lsl #20
    2df4:	08460000 	stmdaeq	r6, {}^	; <UNPREDICTABLE>
    2df8:	2c0b0000 	stccs	0, cr0, [fp], {-0}
    2dfc:	17000000 	strne	r0, [r0, -r0]
    2e00:	06f01b00 	ldrbteq	r1, [r0], r0, lsl #22
    2e04:	6d070299 	sfmvs	f0, 4, [r7, #-612]	; 0xfffffd9c
    2e08:	18000008 	stmdane	r0, {r3}
    2e0c:	000002a8 	andeq	r0, r0, r8, lsr #5
    2e10:	1b029c06 	blne	a9e30 <__bss_end__+0x9fdd0>
    2e14:	0000086d 	andeq	r0, r0, sp, ror #16
    2e18:	04c31800 	strbeq	r1, [r3], #2048	; 0x800
    2e1c:	9d060000 	stcls	0, cr0, [r6, #-0]
    2e20:	087d1802 	ldmdaeq	sp!, {r1, fp, ip}^
    2e24:	00780000 	rsbseq	r0, r8, r0
    2e28:	00031d0a 	andeq	r1, r3, sl, lsl #26
    2e2c:	00087d00 	andeq	r7, r8, r0, lsl #26
    2e30:	002c0b00 	eoreq	r0, ip, r0, lsl #22
    2e34:	001d0000 	andseq	r0, sp, r0
    2e38:	00002c0a 	andeq	r2, r0, sl, lsl #24
    2e3c:	00088d00 	andeq	r8, r8, r0, lsl #26
    2e40:	002c0b00 	eoreq	r0, ip, r0, lsl #22
    2e44:	001d0000 	andseq	r0, sp, r0
    2e48:	7e06f01c 	mcrvc	0, 0, pc, cr6, cr12, {0}	; <UNPREDICTABLE>
    2e4c:	08b20302 	ldmeq	r2!, {r1, r8, r9}
    2e50:	161d0000 	ldrne	r0, [sp], -r0
    2e54:	06000004 	streq	r0, [r0], -r4
    2e58:	010b0295 			; <UNDEFINED> instruction: 0x010b0295
    2e5c:	1d000007 	stcne	0, cr0, [r0, #-28]	; 0xffffffe4
    2e60:	000004ee 	andeq	r0, r0, lr, ror #9
    2e64:	0b029e06 	bleq	aa684 <__bss_end__+0xa0624>
    2e68:	00000846 	andeq	r0, r0, r6, asr #16
    2e6c:	01350a00 	teqeq	r5, r0, lsl #20
    2e70:	08c20000 	stmiaeq	r2, {}^	; <UNPREDICTABLE>
    2e74:	2c0b0000 	stccs	0, cr0, [fp], {-0}
    2e78:	18000000 	stmdane	r0, {}	; <UNPREDICTABLE>
    2e7c:	00840600 	addeq	r0, r4, r0, lsl #12
    2e80:	04050000 	streq	r0, [r5], #-0
    2e84:	000008c2 	andeq	r0, r0, r2, asr #17
    2e88:	0008d81e 	andeq	sp, r8, lr, lsl r8
    2e8c:	04841600 	streq	r1, [r4], #1536	; 0x600
    2e90:	05000000 	streq	r0, [r0, #-0]
    2e94:	0008cd04 	andeq	ip, r8, r4, lsl #26
    2e98:	a7040500 	strge	r0, [r4, -r0, lsl #10]
    2e9c:	1e000001 	cdpne	0, 0, cr0, cr0, cr1, {0}
    2ea0:	000008ef 	andeq	r0, r0, pc, ror #17
    2ea4:	00002516 	andeq	r2, r0, r6, lsl r5
    2ea8:	04050000 	streq	r0, [r5], #-0
    2eac:	000008f5 	strdeq	r0, [r0], -r5
    2eb0:	08e40405 	stmiaeq	r4!, {r0, r2, sl}^
    2eb4:	660a0000 	strvs	r0, [sl], -r0
    2eb8:	0b000006 	bleq	2ed8 <_start-0x5128>
    2ebc:	0b000009 	bleq	2ee8 <_start-0x5118>
    2ec0:	0000002c 	andeq	r0, r0, ip, lsr #32
    2ec4:	8e1f0002 	cdphi	0, 1, cr0, cr15, cr2, {0}
    2ec8:	06000004 	streq	r0, [r0], -r4
    2ecc:	8417032e 	ldrhi	r0, [r7], #-814	; 0xfffffcd2
    2ed0:	1f000004 	svcne	0x00000004
    2ed4:	00000487 	andeq	r0, r0, r7, lsl #9
    2ed8:	1d032f06 	stcne	15, cr2, [r3, #-24]	; 0xffffffe8
    2edc:	0000048a 	andeq	r0, r0, sl, lsl #9
    2ee0:	00002515 	andeq	r2, r0, r5, lsl r5
    2ee4:	00093400 	andeq	r3, r9, r0, lsl #8
    2ee8:	00251600 	eoreq	r1, r5, r0, lsl #12
    2eec:	20000000 	andcs	r0, r0, r0
    2ef0:	000001d1 	ldrdeq	r0, [r0], -r1
    2ef4:	400e1d07 	andmi	r1, lr, r7, lsl #26
    2ef8:	05000009 	streq	r0, [r0, #-9]
    2efc:	00092504 	andeq	r2, r9, r4, lsl #10
    2f00:	00251500 	eoreq	r1, r5, r0, lsl #10
    2f04:	09550000 	ldmdbeq	r5, {}^	; <UNPREDICTABLE>
    2f08:	fc160000 	ldc2	0, cr0, [r6], {-0}
    2f0c:	00000005 	andeq	r0, r0, r5
    2f10:	00078120 	andeq	r8, r7, r0, lsr #2
    2f14:	0e220700 	cdpeq	7, 2, cr0, cr2, cr0, {0}
    2f18:	00000961 	andeq	r0, r0, r1, ror #18
    2f1c:	09460405 	stmdbeq	r6, {r0, r2, sl}^
    2f20:	5a210000 	bpl	842f28 <__bss_end__+0x838ec8>
    2f24:	01000005 	tsteq	r0, r5
    2f28:	00690a0f 	rsbeq	r0, r9, pc, lsl #20
    2f2c:	89bc0000 	ldmibhi	ip!, {}	; <UNPREDICTABLE>
    2f30:	00ec0000 	rsceq	r0, ip, r0
    2f34:	9c010000 	stcls	0, cr0, [r1], {-0}
    2f38:	000009fa 	strdeq	r0, [r0], -sl
    2f3c:	000ade22 	andeq	sp, sl, r2, lsr #28
    2f40:	210f0100 	mrscs	r0, (UNDEF: 31)
    2f44:	000009fa 	strdeq	r0, [r0], -sl
    2f48:	000008f0 	strdeq	r0, [r0], -r0	; <UNPREDICTABLE>
    2f4c:	000008e8 	andeq	r0, r0, r8, ror #17
    2f50:	6e656c23 	cdpvs	12, 6, cr6, cr5, cr3, {1}
    2f54:	2c0f0100 	stfcss	f0, [pc], {-0}
    2f58:	00000025 	andeq	r0, r0, r5, lsr #32
    2f5c:	00000934 	andeq	r0, r0, r4, lsr r9
    2f60:	0000092a 	andeq	r0, r0, sl, lsr #18
    2f64:	000adf24 	andeq	sp, sl, r4, lsr #30
    2f68:	12100100 	andsne	r0, r0, #0, 2
    2f6c:	000005fc 	strdeq	r0, [r0], -ip
    2f70:	0000097b 	andeq	r0, r0, fp, ror r9
    2f74:	00000973 	andeq	r0, r0, r3, ror r9
    2f78:	00055f24 	andeq	r5, r5, r4, lsr #30
    2f7c:	0a110100 	beq	443384 <__bss_end__+0x439324>
    2f80:	00000069 	andeq	r0, r0, r9, rrx
    2f84:	000009c0 	andeq	r0, r0, r0, asr #19
    2f88:	000009b2 			; <UNDEFINED> instruction: 0x000009b2
    2f8c:	706d7425 	rsbvc	r7, sp, r5, lsr #8
    2f90:	16110100 	ldrne	r0, [r1], -r0, lsl #2
    2f94:	00000069 	andeq	r0, r0, r9, rrx
    2f98:	00000a1b 	andeq	r0, r0, fp, lsl sl
    2f9c:	00000a15 	andeq	r0, r0, r5, lsl sl
    2fa0:	6d657225 	sfmvs	f7, 2, [r5, #-148]!	; 0xffffff6c
    2fa4:	05120100 	ldreq	r0, [r2, #-256]	; 0xffffff00
    2fa8:	00000025 	andeq	r0, r0, r5, lsr #32
    2fac:	00000a68 	andeq	r0, r0, r8, ror #20
    2fb0:	00000a66 	andeq	r0, r0, r6, ror #20
    2fb4:	00040500 	andeq	r0, r4, r0, lsl #10
    2fb8:	2600000a 	strcs	r0, [r0], -sl
    2fbc:	00097c00 	andeq	r7, r9, r0, lsl #24
    2fc0:	d4000400 	strle	r0, [r0], #-1024	; 0xfffffc00
    2fc4:	04000007 	streq	r0, [r0], #-7
    2fc8:	0002fd01 	andeq	pc, r2, r1, lsl #26
    2fcc:	06fd0c00 	ldrbteq	r0, [sp], r0, lsl #24
    2fd0:	06da0000 	ldrbeq	r0, [sl], r0
    2fd4:	8aa80000 	bhi	fea02fdc <__bss_end__+0xfe9f8f7c>
    2fd8:	00180000 	andseq	r0, r8, r0
    2fdc:	0b130000 	bleq	4c2fe4 <__bss_end__+0x4b8f84>
    2fe0:	04020000 	streq	r0, [r2], #-0
    2fe4:	746e6905 	strbtvc	r6, [lr], #-2309	; 0xfffff6fb
    2fe8:	06f60300 	ldrbteq	r0, [r6], r0, lsl #6
    2fec:	d1020000 	mrsle	r0, (UNDEF: 2)
    2ff0:	00003817 	andeq	r3, r0, r7, lsl r8
    2ff4:	07040400 	streq	r0, [r4, -r0, lsl #8]
    2ff8:	00000066 	andeq	r0, r0, r6, rrx
    2ffc:	ec060104 	stfs	f0, [r6], {4}
    3000:	04000002 	streq	r0, [r0], #-2
    3004:	02ea0801 	rsceq	r0, sl, #65536	; 0x10000
    3008:	02040000 	andeq	r0, r4, #0
    300c:	00038505 	andeq	r8, r3, r5, lsl #10
    3010:	07020400 	streq	r0, [r2, -r0, lsl #8]
    3014:	00000222 	andeq	r0, r0, r2, lsr #4
    3018:	ac050404 	cfstrsge	mvf0, [r5], {4}
    301c:	04000000 	streq	r0, [r0], #-0
    3020:	00610704 	rsbeq	r0, r1, r4, lsl #14
    3024:	08040000 	stmdaeq	r4, {}	; <UNPREDICTABLE>
    3028:	0000a705 	andeq	sl, r0, r5, lsl #14
    302c:	07080400 	streq	r0, [r8, -r0, lsl #8]
    3030:	0000005c 	andeq	r0, r0, ip, asr r0
    3034:	00027303 	andeq	r7, r2, r3, lsl #6
    3038:	19220300 	stmdbne	r2!, {r8, r9}
    303c:	00000083 	andeq	r0, r0, r3, lsl #1
    3040:	00890405 	addeq	r0, r9, r5, lsl #8
    3044:	2b060000 	blcs	18304c <__bss_end__+0x178fec>
    3048:	03000004 	movweq	r0, #4
    304c:	000002cb 	andeq	r0, r0, fp, asr #5
    3050:	5b0e2c04 	blpl	38e068 <__bss_end__+0x384008>
    3054:	03000000 	movweq	r0, #0
    3058:	00000440 	andeq	r0, r0, r0, asr #8
    305c:	5b0e7204 	blpl	39f874 <__bss_end__+0x395814>
    3060:	07000000 	streq	r0, [r0, -r0]
    3064:	0000027b 	andeq	r0, r0, fp, ror r2
    3068:	17015e02 	strne	r5, [r1, -r2, lsl #28]
    306c:	00000038 	andeq	r0, r0, r8, lsr r0
    3070:	a6040408 	strge	r0, [r4], -r8, lsl #8
    3074:	0000d503 	andeq	sp, r0, r3, lsl #10
    3078:	026d0900 	rsbeq	r0, sp, #0, 18
    307c:	a8040000 	stmdage	r4, {}	; <UNPREDICTABLE>
    3080:	0000a60c 	andeq	sl, r0, ip, lsl #12
    3084:	01e20900 	mvneq	r0, r0, lsl #18
    3088:	a9040000 	stmdbge	r4, {}	; <UNPREDICTABLE>
    308c:	0000d513 	andeq	sp, r0, r3, lsl r5
    3090:	460a0000 	strmi	r0, [sl], -r0
    3094:	e5000000 	str	r0, [r0, #-0]
    3098:	0b000000 	bleq	30a0 <_start-0x4f60>
    309c:	00000038 	andeq	r0, r0, r8, lsr r0
    30a0:	080c0003 	stmdaeq	ip, {r0, r1}
    30a4:	0909a304 	stmdbeq	r9, {r2, r8, r9, sp, pc}
    30a8:	0d000001 	stceq	0, cr0, [r0, #-4]
    30ac:	00000423 	andeq	r0, r0, r3, lsr #8
    30b0:	2507a504 	strcs	sl, [r7, #-1284]	; 0xfffffafc
    30b4:	00000000 	andeq	r0, r0, r0
    30b8:	0004320d 	andeq	r3, r4, sp, lsl #4
    30bc:	05aa0400 	streq	r0, [sl, #1024]!	; 0x400
    30c0:	000000b3 	strheq	r0, [r0], -r3
    30c4:	ad030004 	stcge	0, cr0, [r3, #-16]
    30c8:	04000003 	streq	r0, [r0], #-3
    30cc:	00e503ab 	rsceq	r0, r5, fp, lsr #7
    30d0:	9f030000 	svcls	0x00030000
    30d4:	04000001 	streq	r0, [r0], #-1
    30d8:	00771baf 	rsbseq	r1, r7, pc, lsr #23
    30dc:	040e0000 	streq	r0, [lr], #-0
    30e0:	01290405 			; <UNDEFINED> instruction: 0x01290405
    30e4:	01040000 	mrseq	r0, (UNDEF: 4)
    30e8:	0002f308 	andeq	pc, r2, r8, lsl #6
    30ec:	01290f00 			; <UNDEFINED> instruction: 0x01290f00
    30f0:	72030000 	andvc	r0, r3, #0
    30f4:	05000004 	streq	r0, [r0, #-4]
    30f8:	00621916 	rsbeq	r1, r2, r6, lsl r9
    30fc:	b0100000 	andslt	r0, r0, r0
    3100:	18000001 	stmdane	r0, {r0}
    3104:	9b082f05 	blls	20ed20 <__bss_end__+0x204cc0>
    3108:	0d000001 	stceq	0, cr0, [r0, #-4]
    310c:	000003ce 	andeq	r0, r0, lr, asr #7
    3110:	9b133105 	blls	4cf52c <__bss_end__+0x4c54cc>
    3114:	00000001 	andeq	r0, r0, r1
    3118:	006b5f11 	rsbeq	r5, fp, r1, lsl pc
    311c:	25073205 	strcs	r3, [r7, #-517]	; 0xfffffdfb
    3120:	04000000 	streq	r0, [r0], #-0
    3124:	00040e0d 	andeq	r0, r4, sp, lsl #28
    3128:	0b320500 	bleq	c84530 <__bss_end__+0xc7a4d0>
    312c:	00000025 	andeq	r0, r0, r5, lsr #32
    3130:	01990d08 	orrseq	r0, r9, r8, lsl #26
    3134:	32050000 	andcc	r0, r5, #0
    3138:	00002514 	andeq	r2, r0, r4, lsl r5
    313c:	ae0d0c00 	cdpge	12, 0, cr0, cr13, cr0, {0}
    3140:	05000004 	streq	r0, [r0, #-4]
    3144:	00251b32 	eoreq	r1, r5, r2, lsr fp
    3148:	11100000 	tstne	r0, r0
    314c:	0500785f 	streq	r7, [r0, #-2143]	; 0xfffff7a1
    3150:	01a10b33 			; <UNDEFINED> instruction: 0x01a10b33
    3154:	00140000 	andseq	r0, r4, r0
    3158:	01410405 	cmpeq	r1, r5, lsl #8
    315c:	350a0000 	strcc	r0, [sl, #-0]
    3160:	b1000001 	tstlt	r0, r1
    3164:	0b000001 	bleq	3170 <_start-0x4e90>
    3168:	00000038 	andeq	r0, r0, r8, lsr r0
    316c:	dd100000 	ldcle	0, cr0, [r0, #-0]
    3170:	24000001 	strcs	r0, [r0], #-1
    3174:	34083705 	strcc	r3, [r8], #-1797	; 0xfffff8fb
    3178:	0d000002 	stceq	0, cr0, [r0, #-8]
    317c:	0000009e 	muleq	r0, lr, r0
    3180:	25093905 	strcs	r3, [r9, #-2309]	; 0xfffff6fb
    3184:	00000000 	andeq	r0, r0, r0
    3188:	0004480d 	andeq	r4, r4, sp, lsl #16
    318c:	093a0500 	ldmdbeq	sl!, {r8, sl}
    3190:	00000025 	andeq	r0, r0, r5, lsr #32
    3194:	00c10d04 	sbceq	r0, r1, r4, lsl #26
    3198:	3b050000 	blcc	1431a0 <__bss_end__+0x139140>
    319c:	00002509 	andeq	r2, r0, r9, lsl #10
    31a0:	2f0d0800 	svccs	0x000d0800
    31a4:	05000005 	streq	r0, [r0, #-5]
    31a8:	0025093c 	eoreq	r0, r5, ip, lsr r9
    31ac:	0d0c0000 	stceq	0, cr0, [ip, #-0]
    31b0:	000002af 	andeq	r0, r0, pc, lsr #5
    31b4:	25093d05 	strcs	r3, [r9, #-3333]	; 0xfffff2fb
    31b8:	10000000 	andne	r0, r0, r0
    31bc:	0002910d 	andeq	r9, r2, sp, lsl #2
    31c0:	093e0500 	ldmdbeq	lr!, {r8, sl}
    31c4:	00000025 	andeq	r0, r0, r5, lsr #32
    31c8:	04b30d14 	ldrteq	r0, [r3], #3348	; 0xd14
    31cc:	3f050000 	svccc	0x00050000
    31d0:	00002509 	andeq	r2, r0, r9, lsl #10
    31d4:	8f0d1800 	svchi	0x000d1800
    31d8:	05000003 	streq	r0, [r0, #-3]
    31dc:	00250940 	eoreq	r0, r5, r0, asr #18
    31e0:	0d1c0000 	ldceq	0, cr0, [ip, #-0]
    31e4:	000004f6 	strdeq	r0, [r0], -r6
    31e8:	25094105 	strcs	r4, [r9, #-261]	; 0xfffffefb
    31ec:	20000000 	andcs	r0, r0, r0
    31f0:	01011200 	mrseq	r1, R9_usr
    31f4:	01080000 	mrseq	r0, (UNDEF: 8)
    31f8:	79084a05 	stmdbvc	r8, {r0, r2, r9, fp, lr}
    31fc:	0d000002 	stceq	0, cr0, [r0, #-8]
    3200:	0000018c 	andeq	r0, r0, ip, lsl #3
    3204:	790a4b05 	stmdbvc	sl, {r0, r2, r8, r9, fp, lr}
    3208:	00000002 	andeq	r0, r0, r2
    320c:	0000000d 	andeq	r0, r0, sp
    3210:	094c0500 	stmdbeq	ip, {r8, sl}^
    3214:	00000279 	andeq	r0, r0, r9, ror r2
    3218:	04641380 	strbteq	r1, [r4], #-896	; 0xfffffc80
    321c:	4e050000 	cdpmi	0, 0, cr0, cr5, cr0, {0}
    3220:	0001350a 	andeq	r3, r1, sl, lsl #10
    3224:	13010000 	movwne	r0, #4096	; 0x1000
    3228:	00000126 	andeq	r0, r0, r6, lsr #2
    322c:	350a5105 	strcc	r5, [sl, #-261]	; 0xfffffefb
    3230:	04000001 	streq	r0, [r0], #-1
    3234:	210a0001 	tstcs	sl, r1
    3238:	89000001 	stmdbhi	r0, {r0}
    323c:	0b000002 	bleq	324c <_start-0x4db4>
    3240:	00000038 	andeq	r0, r0, r8, lsr r0
    3244:	b812001f 	ldmdalt	r2, {r0, r1, r2, r3, r4}
    3248:	90000002 	andls	r0, r0, r2
    324c:	085d0501 	ldmdaeq	sp, {r0, r8, sl}^
    3250:	000002cc 	andeq	r0, r0, ip, asr #5
    3254:	0003ce0d 	andeq	ip, r3, sp, lsl #28
    3258:	125e0500 	subsne	r0, lr, #0, 10
    325c:	000002cc 	andeq	r0, r0, ip, asr #5
    3260:	03e60d00 	mvneq	r0, #0, 26
    3264:	5f050000 	svcpl	0x00050000
    3268:	00002506 	andeq	r2, r0, r6, lsl #10
    326c:	940d0400 	strls	r0, [sp], #-1024	; 0xfffffc00
    3270:	05000001 	streq	r0, [r0, #-1]
    3274:	02d20961 	sbcseq	r0, r2, #1589248	; 0x184000
    3278:	0d080000 	stceq	0, cr0, [r8, #-0]
    327c:	00000101 	andeq	r0, r0, r1, lsl #2
    3280:	341e6205 	ldrcc	r6, [lr], #-517	; 0xfffffdfb
    3284:	88000002 	stmdahi	r0, {r1}
    3288:	89040500 	stmdbhi	r4, {r8, sl}
    328c:	0a000002 	beq	329c <_start-0x4d64>
    3290:	000002e2 	andeq	r0, r0, r2, ror #5
    3294:	000002e2 	andeq	r0, r0, r2, ror #5
    3298:	0000380b 	andeq	r3, r0, fp, lsl #16
    329c:	05001f00 	streq	r1, [r0, #-3840]	; 0xfffff100
    32a0:	0002e804 	andeq	lr, r2, r4, lsl #16
    32a4:	99101400 	ldmdbls	r0, {sl, ip}
    32a8:	08000003 	stmdaeq	r0, {r0, r1}
    32ac:	11087505 	tstne	r8, r5, lsl #10
    32b0:	0d000003 	stceq	0, cr0, [r0, #-12]
    32b4:	000000bb 	strheq	r0, [r0], -fp
    32b8:	11117605 	tstne	r1, r5, lsl #12
    32bc:	00000003 	andeq	r0, r0, r3
    32c0:	00001b0d 	andeq	r1, r0, sp, lsl #22
    32c4:	06770500 	ldrbteq	r0, [r7], -r0, lsl #10
    32c8:	00000025 	andeq	r0, r0, r5, lsr #32
    32cc:	04050004 	streq	r0, [r5], #-4
    32d0:	00000046 	andeq	r0, r0, r6, asr #32
    32d4:	0003b810 	andeq	fp, r3, r0, lsl r8
    32d8:	b5056800 	strlt	r6, [r5, #-2048]	; 0xfffff800
    32dc:	00045a08 	andeq	r5, r4, r8, lsl #20
    32e0:	705f1100 	subsvc	r1, pc, r0, lsl #2
    32e4:	12b60500 	adcsne	r0, r6, #0, 10
    32e8:	00000311 	andeq	r0, r0, r1, lsl r3
    32ec:	725f1100 	subsvc	r1, pc, #0, 2
    32f0:	07b70500 	ldreq	r0, [r7, r0, lsl #10]!
    32f4:	00000025 	andeq	r0, r0, r5, lsr #32
    32f8:	775f1104 	ldrbvc	r1, [pc, -r4, lsl #2]
    32fc:	07b80500 	ldreq	r0, [r8, r0, lsl #10]!
    3300:	00000025 	andeq	r0, r0, r5, lsr #32
    3304:	011f0d08 	tsteq	pc, r8, lsl #26
    3308:	b9050000 	stmdblt	r5, {}	; <UNPREDICTABLE>
    330c:	00004d09 	andeq	r4, r0, r9, lsl #26
    3310:	080d0c00 	stmdaeq	sp, {sl, fp}
    3314:	05000002 	streq	r0, [r0, #-2]
    3318:	004d09ba 	strheq	r0, [sp], #-154	; 0xffffff66
    331c:	110e0000 	mrsne	r0, (UNDEF: 14)
    3320:	0066625f 	rsbeq	r6, r6, pc, asr r2
    3324:	e911bb05 	ldmdb	r1, {r0, r2, r8, r9, fp, ip, sp, pc}
    3328:	10000002 	andne	r0, r0, r2
    332c:	00007b0d 	andeq	r7, r0, sp, lsl #22
    3330:	07bc0500 	ldreq	r0, [ip, r0, lsl #10]!
    3334:	00000025 	andeq	r0, r0, r5, lsr #32
    3338:	010f0d18 	tsteq	pc, r8, lsl sp	; <UNPREDICTABLE>
    333c:	c3050000 	movwgt	r0, #20480	; 0x5000
    3340:	0001210a 	andeq	r2, r1, sl, lsl #2
    3344:	3d0d1c00 	stccc	12, cr1, [sp, #-0]
    3348:	0500000b 	streq	r0, [r0, #-11]
    334c:	05cc1dc5 	strbeq	r1, [ip, #3525]	; 0xdc5
    3350:	0d200000 	stceq	0, cr0, [r0, #-0]
    3354:	00000632 	andeq	r0, r0, r2, lsr r6
    3358:	f61dc705 			; <UNDEFINED> instruction: 0xf61dc705
    335c:	24000005 	strcs	r0, [r0], #-5
    3360:	00043a0d 	andeq	r3, r4, sp, lsl #20
    3364:	0dca0500 	cfstr64eq	mvdx0, [sl]
    3368:	0000061a 	andeq	r0, r0, sl, lsl r6
    336c:	05100d28 	ldreq	r0, [r0, #-3368]	; 0xfffff2d8
    3370:	cb050000 	blgt	143378 <__bss_end__+0x139318>
    3374:	00063409 	andeq	r3, r6, r9, lsl #8
    3378:	5f112c00 	svcpl	0x00112c00
    337c:	05006275 	streq	r6, [r0, #-629]	; 0xfffffd8b
    3380:	02e911ce 	rsceq	r1, r9, #-2147483597	; 0x80000033
    3384:	11300000 	teqne	r0, r0
    3388:	0070755f 	rsbseq	r7, r0, pc, asr r5
    338c:	1112cf05 	tstne	r2, r5, lsl #30
    3390:	38000003 	stmdacc	r0, {r0, r1}
    3394:	72755f11 	rsbsvc	r5, r5, #17, 30	; 0x44
    3398:	07d00500 	ldrbeq	r0, [r0, r0, lsl #10]
    339c:	00000025 	andeq	r0, r0, r5, lsr #32
    33a0:	00b50d3c 	adcseq	r0, r5, ip, lsr sp
    33a4:	d3050000 	movwle	r0, #20480	; 0x5000
    33a8:	00063a11 	andeq	r3, r6, r1, lsl sl
    33ac:	e80d4000 	stmda	sp, {lr}
    33b0:	05000004 	streq	r0, [r0, #-4]
    33b4:	064a11d4 			; <UNDEFINED> instruction: 0x064a11d4
    33b8:	11430000 	mrsne	r0, (UNDEF: 67)
    33bc:	00626c5f 	rsbeq	r6, r2, pc, asr ip
    33c0:	e911d705 	ldmdb	r1, {r0, r2, r8, r9, sl, ip, lr, pc}
    33c4:	44000002 	strmi	r0, [r0], #-2
    33c8:	00013d0d 	andeq	r3, r1, sp, lsl #26
    33cc:	07da0500 	ldrbeq	r0, [sl, r0, lsl #10]
    33d0:	00000025 	andeq	r0, r0, r5, lsr #32
    33d4:	014e0d4c 	cmpeq	lr, ip, asr #26
    33d8:	db050000 	blle	1433e0 <__bss_end__+0x139380>
    33dc:	00008e0a 	andeq	r8, r0, sl, lsl #28
    33e0:	de0d5000 	cdple	0, 0, cr5, cr13, cr0, {0}
    33e4:	0500000a 	streq	r0, [r0, #-10]
    33e8:	047812de 	ldrbteq	r1, [r8], #-734	; 0xfffffd22
    33ec:	0d540000 	ldcleq	0, cr0, [r4, #-0]
    33f0:	0000042c 	andeq	r0, r0, ip, lsr #8
    33f4:	150ce205 	strne	lr, [ip, #-517]	; 0xfffffdfb
    33f8:	58000001 	stmdapl	r0, {r0}
    33fc:	0003c00d 	andeq	ip, r3, sp
    3400:	0ee40500 	cdpeq	5, 14, cr0, cr4, cr0, {0}
    3404:	00000109 	andeq	r0, r0, r9, lsl #2
    3408:	02890d5c 	addeq	r0, r9, #92, 26	; 0x1700
    340c:	e5050000 	str	r0, [r5, #-0]
    3410:	00002509 	andeq	r2, r0, r9, lsl #10
    3414:	15006400 	strne	r6, [r0, #-1024]	; 0xfffffc00
    3418:	00000025 	andeq	r0, r0, r5, lsr #32
    341c:	00000478 	andeq	r0, r0, r8, ror r4
    3420:	00047816 	andeq	r7, r4, r6, lsl r8
    3424:	01211600 			; <UNDEFINED> instruction: 0x01211600
    3428:	23160000 	tstcs	r6, #0
    342c:	16000001 	strne	r0, [r0], -r1
    3430:	00000025 	andeq	r0, r0, r5, lsr #32
    3434:	83040500 	movwhi	r0, #17664	; 0x4500
    3438:	0f000004 	svceq	0x00000004
    343c:	00000478 	andeq	r0, r0, r8, ror r4
    3440:	00041617 	andeq	r1, r4, r7, lsl r6
    3444:	05042800 	streq	r2, [r4, #-2048]	; 0xfffff800
    3448:	cc080260 	sfmgt	f0, 4, [r8], {96}	; 0x60
    344c:	18000005 	stmdane	r0, {r0, r2}
    3450:	0000037e 	andeq	r0, r0, lr, ror r3
    3454:	07026205 	streq	r6, [r2, -r5, lsl #4]
    3458:	00000025 	andeq	r0, r0, r5, lsr #32
    345c:	012e1800 			; <UNDEFINED> instruction: 0x012e1800
    3460:	67050000 	strvs	r0, [r5, -r0]
    3464:	06a60b02 	strteq	r0, [r6], r2, lsl #22
    3468:	18040000 	stmdane	r4, {}	; <UNPREDICTABLE>
    346c:	000001f8 	strdeq	r0, [r0], -r8
    3470:	14026705 	strne	r6, [r2], #-1797	; 0xfffff8fb
    3474:	000006a6 	andeq	r0, r0, r6, lsr #13
    3478:	01a81808 			; <UNDEFINED> instruction: 0x01a81808
    347c:	67050000 	strvs	r0, [r5, -r0]
    3480:	06a61e02 	strteq	r1, [r6], r2, lsl #28
    3484:	180c0000 	stmdane	ip, {}	; <UNPREDICTABLE>
    3488:	000003e1 	andeq	r0, r0, r1, ror #7
    348c:	08026905 	stmdaeq	r2, {r0, r2, r8, fp, sp, lr}
    3490:	00000025 	andeq	r0, r0, r5, lsr #32
    3494:	00291810 	eoreq	r1, r9, r0, lsl r8
    3498:	6a050000 	bvs	1434a0 <__bss_end__+0x139440>
    349c:	08a60802 	stmiaeq	r6!, {r1, fp}
    34a0:	18140000 	ldmdane	r4, {}	; <UNPREDICTABLE>
    34a4:	000003f5 	strdeq	r0, [r0], -r5
    34a8:	07026d05 	streq	r6, [r2, -r5, lsl #26]
    34ac:	00000025 	andeq	r0, r0, r5, lsr #32
    34b0:	0a1a1830 	beq	689578 <__bss_end__+0x67f518>
    34b4:	6e050000 	cdpvs	0, 0, cr0, cr5, cr0, {0}
    34b8:	08bb1602 	ldmeq	fp!, {r1, r9, sl, ip}
    34bc:	18340000 	ldmdane	r4!, {}	; <UNPREDICTABLE>
    34c0:	000002c0 	andeq	r0, r0, r0, asr #5
    34c4:	07027005 	streq	r7, [r2, -r5]
    34c8:	00000025 	andeq	r0, r0, r5, lsr #32
    34cc:	03eb1838 	mvneq	r1, #56, 16	; 0x380000
    34d0:	72050000 	andvc	r0, r5, #0
    34d4:	08cc0a02 	stmiaeq	ip, {r1, r9, fp}^
    34d8:	183c0000 	ldmdane	ip!, {}	; <UNPREDICTABLE>
    34dc:	00000265 	andeq	r0, r0, r5, ror #4
    34e0:	13027505 	movwne	r7, #9477	; 0x2505
    34e4:	0000019b 	muleq	r0, fp, r1
    34e8:	01c71840 	biceq	r1, r7, r0, asr #16
    34ec:	76050000 	strvc	r0, [r5], -r0
    34f0:	00250702 	eoreq	r0, r5, r2, lsl #14
    34f4:	18440000 	stmdane	r4, {}^	; <UNPREDICTABLE>
    34f8:	0000052a 	andeq	r0, r0, sl, lsr #10
    34fc:	13027705 	movwne	r7, #9989	; 0x2705
    3500:	0000019b 	muleq	r0, fp, r1
    3504:	02d21848 	sbcseq	r1, r2, #72, 16	; 0x480000
    3508:	78050000 	stmdavc	r5, {}	; <UNPREDICTABLE>
    350c:	08d21402 	ldmeq	r2, {r1, sl, ip}^
    3510:	184c0000 	stmdane	ip, {}^	; <UNPREDICTABLE>
    3514:	00000200 	andeq	r0, r0, r0, lsl #4
    3518:	07027b05 	streq	r7, [r2, -r5, lsl #22]
    351c:	00000025 	andeq	r0, r0, r5, lsr #32
    3520:	01461850 	cmpeq	r6, r0, asr r8
    3524:	7c050000 	stcvc	0, cr0, [r5], {-0}
    3528:	01230902 			; <UNDEFINED> instruction: 0x01230902
    352c:	18540000 	ldmdane	r4, {}^	; <UNPREDICTABLE>
    3530:	000002f8 	strdeq	r0, [r0], -r8
    3534:	07029f05 	streq	r9, [r2, -r5, lsl #30]
    3538:	00000881 	andeq	r0, r0, r1, lsl #17
    353c:	02b81958 	adcseq	r1, r8, #88, 18	; 0x160000
    3540:	a3050000 	movwge	r0, #20480	; 0x5000
    3544:	02cc1302 	sbceq	r1, ip, #134217728	; 0x8000000
    3548:	01480000 	mrseq	r0, (UNDEF: 72)
    354c:	00024319 	andeq	r4, r2, r9, lsl r3
    3550:	02a40500 	adceq	r0, r4, #0, 10
    3554:	00028912 	andeq	r8, r2, r2, lsl r9
    3558:	19014c00 	stmdbne	r1, {sl, fp, lr}
    355c:	000004d6 	ldrdeq	r0, [r0], -r6
    3560:	0c02a805 	stceq	8, cr10, [r2], {5}
    3564:	000008e3 	andeq	r0, r0, r3, ror #17
    3568:	171902dc 			; <UNDEFINED> instruction: 0x171902dc
    356c:	05000001 	streq	r0, [r0, #-1]
    3570:	671002ad 	ldrvs	r0, [r0, -sp, lsr #5]
    3574:	e0000006 	and	r0, r0, r6
    3578:	00fc1902 	rscseq	r1, ip, r2, lsl #18
    357c:	af050000 	svcge	0x00050000
    3580:	08ef0a02 	stmiaeq	pc!, {r1, r9, fp}^	; <UNPREDICTABLE>
    3584:	02ec0000 	rsceq	r0, ip, #0
    3588:	5a040500 	bpl	104990 <__bss_end__+0xfa930>
    358c:	15000004 	strne	r0, [r0, #-4]
    3590:	00000025 	andeq	r0, r0, r5, lsr #32
    3594:	000005f0 	strdeq	r0, [r0], -r0	; <UNPREDICTABLE>
    3598:	00047816 	andeq	r7, r4, r6, lsl r8
    359c:	01211600 			; <UNDEFINED> instruction: 0x01211600
    35a0:	f0160000 			; <UNDEFINED> instruction: 0xf0160000
    35a4:	16000005 	strne	r0, [r0], -r5
    35a8:	00000025 	andeq	r0, r0, r5, lsr #32
    35ac:	30040500 	andcc	r0, r4, r0, lsl #10
    35b0:	05000001 	streq	r0, [r0, #-1]
    35b4:	0005d204 	andeq	sp, r5, r4, lsl #4
    35b8:	009a1500 	addseq	r1, sl, r0, lsl #10
    35bc:	061a0000 	ldreq	r0, [sl], -r0
    35c0:	78160000 	ldmdavc	r6, {}	; <UNPREDICTABLE>
    35c4:	16000004 	strne	r0, [r0], -r4
    35c8:	00000121 	andeq	r0, r0, r1, lsr #2
    35cc:	00009a16 	andeq	r9, r0, r6, lsl sl
    35d0:	00251600 	eoreq	r1, r5, r0, lsl #12
    35d4:	05000000 	streq	r0, [r0, #-0]
    35d8:	0005fc04 	andeq	pc, r5, r4, lsl #24
    35dc:	00251500 	eoreq	r1, r5, r0, lsl #10
    35e0:	06340000 	ldrteq	r0, [r4], -r0
    35e4:	78160000 	ldmdavc	r6, {}	; <UNPREDICTABLE>
    35e8:	16000004 	strne	r0, [r0], -r4
    35ec:	00000121 	andeq	r0, r0, r1, lsr #2
    35f0:	20040500 	andcs	r0, r4, r0, lsl #10
    35f4:	0a000006 	beq	3614 <_start-0x49ec>
    35f8:	00000046 	andeq	r0, r0, r6, asr #32
    35fc:	0000064a 	andeq	r0, r0, sl, asr #12
    3600:	0000380b 	andeq	r3, r0, fp, lsl #16
    3604:	0a000200 	beq	3e0c <_start-0x41f4>
    3608:	00000046 	andeq	r0, r0, r6, asr #32
    360c:	0000065a 	andeq	r0, r0, sl, asr r6
    3610:	0000380b 	andeq	r3, r0, fp, lsl #16
    3614:	07000000 	streq	r0, [r0, -r0]
    3618:	000003a6 	andeq	r0, r0, r6, lsr #7
    361c:	1a011f05 	bne	4b238 <__bss_end__+0x411d8>
    3620:	00000317 	andeq	r0, r0, r7, lsl r3
    3624:	0004bd1a 	andeq	fp, r4, sl, lsl sp
    3628:	23050c00 	movwcs	r0, #23552	; 0x5c00
    362c:	06a00801 	strteq	r0, [r0], r1, lsl #16
    3630:	ce180000 	cdpgt	0, 1, cr0, cr8, cr0, {0}
    3634:	05000003 	streq	r0, [r0, #-3]
    3638:	a0110125 	andsge	r0, r1, r5, lsr #2
    363c:	00000006 	andeq	r0, r0, r6
    3640:	00021b18 	andeq	r1, r2, r8, lsl fp
    3644:	01260500 			; <UNDEFINED> instruction: 0x01260500
    3648:	00002507 	andeq	r2, r0, r7, lsl #10
    364c:	a0180400 	andsge	r0, r8, r0, lsl #8
    3650:	05000003 	streq	r0, [r0, #-3]
    3654:	a60b0127 	strge	r0, [fp], -r7, lsr #2
    3658:	08000006 	stmdaeq	r0, {r1, r2}
    365c:	67040500 	strvs	r0, [r4, -r0, lsl #10]
    3660:	05000006 	streq	r0, [r0, #-6]
    3664:	00065a04 	andeq	r5, r6, r4, lsl #20
    3668:	00211a00 	eoreq	r1, r1, r0, lsl #20
    366c:	050e0000 	streq	r0, [lr, #-0]
    3670:	e508013f 	str	r0, [r8, #-319]	; 0xfffffec1
    3674:	18000006 	stmdane	r0, {r1, r2}
    3678:	0000041d 	andeq	r0, r0, sp, lsl r4
    367c:	12014005 	andne	r4, r1, #5
    3680:	000006e5 	andeq	r0, r0, r5, ror #13
    3684:	04511800 	ldrbeq	r1, [r1], #-2048	; 0xfffff800
    3688:	41050000 	mrsmi	r0, (UNDEF: 5)
    368c:	06e51201 	strbteq	r1, [r5], r1, lsl #4
    3690:	18060000 	stmdane	r6, {}	; <UNPREDICTABLE>
    3694:	0000046d 	andeq	r0, r0, sp, ror #8
    3698:	12014205 	andne	r4, r1, #1342177280	; 0x50000000
    369c:	00000054 	andeq	r0, r0, r4, asr r0
    36a0:	540a000c 	strpl	r0, [sl], #-12
    36a4:	f5000000 			; <UNDEFINED> instruction: 0xf5000000
    36a8:	0b000006 	bleq	36c8 <_start-0x4938>
    36ac:	00000038 	andeq	r0, r0, r8, lsr r0
    36b0:	d01b0002 	andsle	r0, fp, r2
    36b4:	07028005 	streq	r8, [r2, -r5]
    36b8:	0000080a 	andeq	r0, r0, sl, lsl #16
    36bc:	0004a118 	andeq	sl, r4, r8, lsl r1
    36c0:	02820500 	addeq	r0, r2, #0, 10
    36c4:	00003818 	andeq	r3, r0, r8, lsl r8
    36c8:	57180000 	ldrpl	r0, [r8, -r0]
    36cc:	05000004 	streq	r0, [r0, #-4]
    36d0:	23120283 	tstcs	r2, #805306376	; 0x30000008
    36d4:	04000001 	streq	r0, [r0], #-1
    36d8:	00025818 	andeq	r5, r2, r8, lsl r8
    36dc:	02840500 	addeq	r0, r4, #0, 10
    36e0:	00080a10 	andeq	r0, r8, r0, lsl sl
    36e4:	01180800 	tsteq	r8, r0, lsl #16
    36e8:	05000005 	streq	r0, [r0, #-5]
    36ec:	b1170285 	tstlt	r7, r5, lsl #5
    36f0:	24000001 	strcs	r0, [r0], #-1
    36f4:	0001b818 	andeq	fp, r1, r8, lsl r8
    36f8:	02860500 	addeq	r0, r6, #0, 10
    36fc:	0000250f 	andeq	r2, r0, pc, lsl #10
    3700:	c9184800 	ldmdbgt	r8, {fp, lr}
    3704:	05000003 	streq	r0, [r0, #-3]
    3708:	702c0287 	eorvc	r0, ip, r7, lsl #5
    370c:	50000000 	andpl	r0, r0, r0
    3710:	00051718 	andeq	r1, r5, r8, lsl r7
    3714:	02880500 	addeq	r0, r8, #0, 10
    3718:	0006ac1a 	andeq	sl, r6, sl, lsl ip
    371c:	d4185800 	ldrle	r5, [r8], #-2048	; 0xfffff800
    3720:	05000003 	streq	r0, [r0, #-3]
    3724:	09160289 	ldmdbeq	r6, {r0, r3, r7, r9}
    3728:	68000001 	stmdavs	r0, {r0}
    372c:	00051c18 	andeq	r1, r5, r8, lsl ip
    3730:	028a0500 	addeq	r0, sl, #0, 10
    3734:	00010916 	andeq	r0, r1, r6, lsl r9
    3738:	dc187000 	ldcle	0, cr7, [r8], {-0}
    373c:	05000002 	streq	r0, [r0, #-2]
    3740:	0916028b 	ldmdbeq	r6, {r0, r1, r3, r7, r9}
    3744:	78000001 	stmdavc	r0, {r0}
    3748:	0004cc18 	andeq	ip, r4, r8, lsl ip
    374c:	028c0500 	addeq	r0, ip, #0, 10
    3750:	00081a10 	andeq	r1, r8, r0, lsl sl
    3754:	4c188000 	ldcmi	0, cr8, [r8], {-0}
    3758:	05000002 	streq	r0, [r0, #-2]
    375c:	2a10028d 	bcs	404198 <__bss_end__+0x3fa138>
    3760:	88000008 	stmdahi	r0, {r3}
    3764:	00047a18 	andeq	r7, r4, r8, lsl sl
    3768:	028e0500 	addeq	r0, lr, #0, 10
    376c:	0000250f 	andeq	r2, r0, pc, lsl #10
    3770:	7e18a000 	cdpvc	0, 1, cr10, cr8, cr0, {0}
    3774:	05000001 	streq	r0, [r0, #-1]
    3778:	0916028f 	ldmdbeq	r6, {r0, r1, r2, r3, r7, r9}
    377c:	a4000001 	strge	r0, [r0], #-1
    3780:	00008f18 	andeq	r8, r0, r8, lsl pc
    3784:	02900500 	addseq	r0, r0, #0, 10
    3788:	00010916 	andeq	r0, r1, r6, lsl r9
    378c:	6d18ac00 	ldcvs	12, cr10, [r8, #-0]
    3790:	05000001 	streq	r0, [r0, #-1]
    3794:	09160291 	ldmdbeq	r6, {r0, r4, r7, r9}
    3798:	b4000001 	strlt	r0, [r0], #-1
    379c:	00003c18 	andeq	r3, r0, r8, lsl ip
    37a0:	02920500 	addseq	r0, r2, #0, 10
    37a4:	00010916 	andeq	r0, r1, r6, lsl r9
    37a8:	4b18bc00 	blmi	6327b0 <__bss_end__+0x628750>
    37ac:	05000000 	streq	r0, [r0, #-0]
    37b0:	09160293 	ldmdbeq	r6, {r0, r1, r4, r7, r9}
    37b4:	c4000001 	strgt	r0, [r0], #-1
    37b8:	00037c18 	andeq	r7, r3, r8, lsl ip
    37bc:	02940500 	addseq	r0, r4, #0, 10
    37c0:	00002508 	andeq	r2, r0, r8, lsl #10
    37c4:	0a00cc00 	beq	367cc <__bss_end__+0x2c76c>
    37c8:	00000129 	andeq	r0, r0, r9, lsr #2
    37cc:	0000081a 	andeq	r0, r0, sl, lsl r8
    37d0:	0000380b 	andeq	r3, r0, fp, lsl #16
    37d4:	0a001900 	beq	9bdc <__FUNCTION__.4253+0x8c>
    37d8:	00000129 	andeq	r0, r0, r9, lsr #2
    37dc:	0000082a 	andeq	r0, r0, sl, lsr #16
    37e0:	0000380b 	andeq	r3, r0, fp, lsl #16
    37e4:	0a000700 	beq	53ec <_start-0x2c14>
    37e8:	00000129 	andeq	r0, r0, r9, lsr #2
    37ec:	0000083a 	andeq	r0, r0, sl, lsr r8
    37f0:	0000380b 	andeq	r3, r0, fp, lsl #16
    37f4:	1b001700 	blne	93fc <gpio_set_function+0x38>
    37f8:	029905f0 	addseq	r0, r9, #240, 10	; 0x3c000000
    37fc:	00086107 	andeq	r6, r8, r7, lsl #2
    3800:	02a81800 	adceq	r1, r8, #0, 16
    3804:	9c050000 	stcls	0, cr0, [r5], {-0}
    3808:	08611b02 	stmdaeq	r1!, {r1, r8, r9, fp, ip}^
    380c:	18000000 	stmdane	r0, {}	; <UNPREDICTABLE>
    3810:	000004c3 	andeq	r0, r0, r3, asr #9
    3814:	18029d05 	stmdane	r2, {r0, r2, r8, sl, fp, ip, pc}
    3818:	00000871 	andeq	r0, r0, r1, ror r8
    381c:	110a0078 	tstne	sl, r8, ror r0
    3820:	71000003 	tstvc	r0, r3
    3824:	0b000008 	bleq	384c <_start-0x47b4>
    3828:	00000038 	andeq	r0, r0, r8, lsr r0
    382c:	380a001d 	stmdacc	sl, {r0, r2, r3, r4}
    3830:	81000000 	mrshi	r0, (UNDEF: 0)
    3834:	0b000008 	bleq	385c <_start-0x47a4>
    3838:	00000038 	andeq	r0, r0, r8, lsr r0
    383c:	f01c001d 			; <UNDEFINED> instruction: 0xf01c001d
    3840:	03027e05 	movweq	r7, #11781	; 0x2e05
    3844:	000008a6 	andeq	r0, r0, r6, lsr #17
    3848:	0004161d 	andeq	r1, r4, sp, lsl r6
    384c:	02950500 	addseq	r0, r5, #0, 10
    3850:	0006f50b 	andeq	pc, r6, fp, lsl #10
    3854:	04ee1d00 	strbteq	r1, [lr], #3328	; 0xd00
    3858:	9e050000 	cdpls	0, 0, cr0, cr5, cr0, {0}
    385c:	083a0b02 	ldmdaeq	sl!, {r1, r8, r9, fp}
    3860:	0a000000 	beq	3868 <_start-0x4798>
    3864:	00000129 	andeq	r0, r0, r9, lsr #2
    3868:	000008b6 			; <UNDEFINED> instruction: 0x000008b6
    386c:	0000380b 	andeq	r3, r0, fp, lsl #16
    3870:	06001800 	streq	r1, [r0], -r0, lsl #16
    3874:	00000084 	andeq	r0, r0, r4, lsl #1
    3878:	08b60405 	ldmeq	r6!, {r0, r2, sl}
    387c:	cc1e0000 	ldcgt	0, cr0, [lr], {-0}
    3880:	16000008 	strne	r0, [r0], -r8
    3884:	00000478 	andeq	r0, r0, r8, ror r4
    3888:	c1040500 	tstgt	r4, r0, lsl #10
    388c:	05000008 	streq	r0, [r0, #-8]
    3890:	00019b04 	andeq	r9, r1, r4, lsl #22
    3894:	08e31e00 	stmiaeq	r3!, {r9, sl, fp, ip}^
    3898:	25160000 	ldrcs	r0, [r6, #-0]
    389c:	00000000 	andeq	r0, r0, r0
    38a0:	08e90405 	stmiaeq	r9!, {r0, r2, sl}^
    38a4:	04050000 	streq	r0, [r5], #-0
    38a8:	000008d8 	ldrdeq	r0, [r0], -r8
    38ac:	00065a0a 	andeq	r5, r6, sl, lsl #20
    38b0:	0008ff00 	andeq	pc, r8, r0, lsl #30
    38b4:	00380b00 	eorseq	r0, r8, r0, lsl #22
    38b8:	00020000 	andeq	r0, r2, r0
    38bc:	00048e1f 	andeq	r8, r4, pc, lsl lr
    38c0:	032e0500 			; <UNDEFINED> instruction: 0x032e0500
    38c4:	00047817 	andeq	r7, r4, r7, lsl r8
    38c8:	04871f00 	streq	r1, [r7], #3840	; 0xf00
    38cc:	2f050000 	svccs	0x00050000
    38d0:	047e1d03 	ldrbteq	r1, [lr], #-3331	; 0xfffff2fd
    38d4:	9a200000 	bls	8038dc <__bss_end__+0x7f987c>
    38d8:	06000004 	streq	r0, [r0], -r4
    38dc:	01210921 			; <UNDEFINED> instruction: 0x01210921
    38e0:	8aa80000 	bhi	fea038e8 <__bss_end__+0xfe9f9888>
    38e4:	00180000 	andseq	r0, r8, r0
    38e8:	9c010000 	stcls	0, cr0, [r1], {-0}
    38ec:	00705f21 	rsbseq	r5, r0, r1, lsr #30
    38f0:	21140301 	tstcs	r4, r1, lsl #6
    38f4:	01000001 	tsteq	r0, r1
    38f8:	00632150 	rsbeq	r2, r3, r0, asr r1
    38fc:	251c0301 	ldrcs	r0, [ip, #-769]	; 0xfffffcff
    3900:	01000000 	mrseq	r0, (UNDEF: 0)
    3904:	006e2251 	rsbeq	r2, lr, r1, asr r2
    3908:	2c260301 	stccs	3, cr0, [r6], #-4
    390c:	7f000000 	svcvc	0x00000000
    3910:	7b00000a 	blvc	3940 <_start-0x46c0>
    3914:	2300000a 	movwcs	r0, #10
    3918:	04010070 	streq	r0, [r1], #-112	; 0xffffff90
    391c:	0001230b 	andeq	r2, r1, fp, lsl #6
    3920:	000aa800 	andeq	sl, sl, r0, lsl #16
    3924:	000aa000 	andeq	sl, sl, r0
    3928:	00652300 	rsbeq	r2, r5, r0, lsl #6
    392c:	23140401 	tstcs	r4, #16777216	; 0x1000000
    3930:	e0000001 	and	r0, r0, r1
    3934:	de00000a 	cdple	0, 0, cr0, cr0, cr10, {0}
    3938:	0000000a 	andeq	r0, r0, sl
    393c:	000a2b00 	andeq	r2, sl, r0, lsl #22
    3940:	cb000400 	blgt	4948 <_start-0x36b8>
    3944:	04000009 	streq	r0, [r0], #-9
    3948:	0002fd01 	andeq	pc, r2, r1, lsl #26
    394c:	07330c00 	ldreq	r0, [r3, -r0, lsl #24]!
    3950:	06da0000 	ldrbeq	r0, [sl], r0
    3954:	8ac00000 	bhi	ff00395c <__bss_end__+0xfeff98fc>
    3958:	00580000 	subseq	r0, r8, r0
    395c:	0c070000 	stceq	0, cr0, [r7], {-0}
    3960:	1f020000 	svcne	0x00020000
    3964:	02000007 	andeq	r0, r0, #7
    3968:	00311b28 	eorseq	r1, r1, r8, lsr #22
    396c:	0b030000 	bleq	c3974 <__bss_end__+0xb9914>
    3970:	04000007 	streq	r0, [r0], #-7
    3974:	00480008 	subeq	r0, r8, r8
    3978:	2e040000 	cdpcs	0, 0, cr0, cr4, cr0, {0}
    397c:	48000007 	stmdami	r0, {r0, r1, r2}
    3980:	00000000 	andeq	r0, r0, r0
    3984:	02040500 	andeq	r0, r4, #0, 10
    3988:	0000070d 	andeq	r0, r0, sp, lsl #14
    398c:	25186302 	ldrcs	r6, [r8, #-770]	; 0xfffffcfe
    3990:	06000000 	streq	r0, [r0], -r0
    3994:	6e690504 	cdpvs	5, 6, cr0, cr9, cr4, {0}
    3998:	04070074 	streq	r0, [r7], #-116	; 0xffffff8c
    399c:	00006607 	andeq	r6, r0, r7, lsl #12
    39a0:	06010700 	streq	r0, [r1], -r0, lsl #14
    39a4:	000002ec 	andeq	r0, r0, ip, ror #5
    39a8:	85050207 	strhi	r0, [r5, #-519]	; 0xfffffdf9
    39ac:	07000003 	streq	r0, [r0, -r3]
    39b0:	00ac0504 	adceq	r0, ip, r4, lsl #10
    39b4:	08070000 	stmdaeq	r7, {}	; <UNPREDICTABLE>
    39b8:	0000a705 	andeq	sl, r0, r5, lsl #14
    39bc:	08010700 	stmdaeq	r1, {r8, r9, sl}
    39c0:	000002ea 	andeq	r0, r0, sl, ror #5
    39c4:	22070207 	andcs	r0, r7, #1879048192	; 0x70000000
    39c8:	07000002 	streq	r0, [r0, -r2]
    39cc:	00610704 	rsbeq	r0, r1, r4, lsl #14
    39d0:	08070000 	stmdaeq	r7, {}	; <UNPREDICTABLE>
    39d4:	00005c07 	andeq	r5, r0, r7, lsl #24
    39d8:	02730200 	rsbseq	r0, r3, #0, 4
    39dc:	22030000 	andcs	r0, r3, #0
    39e0:	0000a819 	andeq	sl, r0, r9, lsl r8
    39e4:	ae040800 	cdpge	8, 0, cr0, cr4, cr0, {0}
    39e8:	09000000 	stmdbeq	r0, {}	; <UNPREDICTABLE>
    39ec:	0000042b 	andeq	r0, r0, fp, lsr #8
    39f0:	0002cb02 	andeq	ip, r2, r2, lsl #22
    39f4:	0e2c0400 	cdpeq	4, 2, cr0, cr12, cr0, {0}
    39f8:	00000072 	andeq	r0, r0, r2, ror r0
    39fc:	00044002 	andeq	r4, r4, r2
    3a00:	0e720400 	cdpeq	4, 7, cr0, cr2, cr0, {0}
    3a04:	00000072 	andeq	r0, r0, r2, ror r0
    3a08:	00027b0a 	andeq	r7, r2, sl, lsl #22
    3a0c:	015e0500 	cmpeq	lr, r0, lsl #10
    3a10:	00005d17 	andeq	r5, r0, r7, lsl sp
    3a14:	04040b00 	streq	r0, [r4], #-2816	; 0xfffff500
    3a18:	00fa03a6 	rscseq	r0, sl, r6, lsr #7
    3a1c:	6d0c0000 	stcvs	0, cr0, [ip, #-0]
    3a20:	04000002 	streq	r0, [r0], #-2
    3a24:	00cb0ca8 	sbceq	r0, fp, r8, lsr #25
    3a28:	e20c0000 	and	r0, ip, #0
    3a2c:	04000001 	streq	r0, [r0], #-1
    3a30:	00fa13a9 	rscseq	r1, sl, r9, lsr #7
    3a34:	0d000000 	stceq	0, cr0, [r0, #-0]
    3a38:	00000080 	andeq	r0, r0, r0, lsl #1
    3a3c:	0000010a 	andeq	r0, r0, sl, lsl #2
    3a40:	00005d0e 	andeq	r5, r0, lr, lsl #26
    3a44:	0f000300 	svceq	0x00000300
    3a48:	09a30408 	stmibeq	r3!, {r3, sl}
    3a4c:	0000012e 	andeq	r0, r0, lr, lsr #2
    3a50:	00042310 	andeq	r2, r4, r0, lsl r3
    3a54:	07a50400 	streq	r0, [r5, r0, lsl #8]!
    3a58:	00000056 	andeq	r0, r0, r6, asr r0
    3a5c:	04321000 	ldrteq	r1, [r2], #-0
    3a60:	aa040000 	bge	103a68 <__bss_end__+0xf9a08>
    3a64:	0000d805 	andeq	sp, r0, r5, lsl #16
    3a68:	02000400 	andeq	r0, r0, #0, 8
    3a6c:	000003ad 	andeq	r0, r0, sp, lsr #7
    3a70:	0a03ab04 	beq	ee688 <__bss_end__+0xe4628>
    3a74:	02000001 	andeq	r0, r0, #1
    3a78:	0000019f 	muleq	r0, pc, r1	; <UNPREDICTABLE>
    3a7c:	9c1baf04 	ldcls	15, cr10, [fp], {4}
    3a80:	08000000 	stmdaeq	r0, {}	; <UNPREDICTABLE>
    3a84:	00014c04 	andeq	r4, r1, r4, lsl #24
    3a88:	08010700 	stmdaeq	r1, {r8, r9, sl}
    3a8c:	000002f3 	strdeq	r0, [r0], -r3
    3a90:	00014c11 	andeq	r4, r1, r1, lsl ip
    3a94:	04720200 	ldrbteq	r0, [r2], #-512	; 0xfffffe00
    3a98:	16060000 	strne	r0, [r6], -r0
    3a9c:	00008e19 	andeq	r8, r0, r9, lsl lr
    3aa0:	01b01200 	lslseq	r1, r0, #4
    3aa4:	06180000 	ldreq	r0, [r8], -r0
    3aa8:	01be082f 			; <UNDEFINED> instruction: 0x01be082f
    3aac:	ce100000 	cdpgt	0, 1, cr0, cr0, cr0, {0}
    3ab0:	06000003 	streq	r0, [r0], -r3
    3ab4:	01be1331 			; <UNDEFINED> instruction: 0x01be1331
    3ab8:	13000000 	movwne	r0, #0
    3abc:	06006b5f 			; <UNDEFINED> instruction: 0x06006b5f
    3ac0:	00560732 	subseq	r0, r6, r2, lsr r7
    3ac4:	10040000 	andne	r0, r4, r0
    3ac8:	0000040e 	andeq	r0, r0, lr, lsl #8
    3acc:	560b3206 	strpl	r3, [fp], -r6, lsl #4
    3ad0:	08000000 	stmdaeq	r0, {}	; <UNPREDICTABLE>
    3ad4:	00019910 	andeq	r9, r1, r0, lsl r9
    3ad8:	14320600 	ldrtne	r0, [r2], #-1536	; 0xfffffa00
    3adc:	00000056 	andeq	r0, r0, r6, asr r0
    3ae0:	04ae100c 	strteq	r1, [lr], #12
    3ae4:	32060000 	andcc	r0, r6, #0
    3ae8:	0000561b 	andeq	r5, r0, fp, lsl r6
    3aec:	5f131000 	svcpl	0x00131000
    3af0:	33060078 	movwcc	r0, #24696	; 0x6078
    3af4:	0001c40b 	andeq	ip, r1, fp, lsl #8
    3af8:	08001400 	stmdaeq	r0, {sl, ip}
    3afc:	00016404 	andeq	r6, r1, r4, lsl #8
    3b00:	01580d00 	cmpeq	r8, r0, lsl #26
    3b04:	01d40000 	bicseq	r0, r4, r0
    3b08:	5d0e0000 	stcpl	0, cr0, [lr, #-0]
    3b0c:	00000000 	andeq	r0, r0, r0
    3b10:	01dd1200 	bicseq	r1, sp, r0, lsl #4
    3b14:	06240000 	strteq	r0, [r4], -r0
    3b18:	02570837 	subseq	r0, r7, #3604480	; 0x370000
    3b1c:	9e100000 	cdpls	0, 1, cr0, cr0, cr0, {0}
    3b20:	06000000 	streq	r0, [r0], -r0
    3b24:	00560939 	subseq	r0, r6, r9, lsr r9
    3b28:	10000000 	andne	r0, r0, r0
    3b2c:	00000448 	andeq	r0, r0, r8, asr #8
    3b30:	56093a06 	strpl	r3, [r9], -r6, lsl #20
    3b34:	04000000 	streq	r0, [r0], #-0
    3b38:	0000c110 	andeq	ip, r0, r0, lsl r1
    3b3c:	093b0600 	ldmdbeq	fp!, {r9, sl}
    3b40:	00000056 	andeq	r0, r0, r6, asr r0
    3b44:	052f1008 	streq	r1, [pc, #-8]!	; 3b44 <_start-0x44bc>
    3b48:	3c060000 	stccc	0, cr0, [r6], {-0}
    3b4c:	00005609 	andeq	r5, r0, r9, lsl #12
    3b50:	af100c00 	svcge	0x00100c00
    3b54:	06000002 	streq	r0, [r0], -r2
    3b58:	0056093d 	subseq	r0, r6, sp, lsr r9
    3b5c:	10100000 	andsne	r0, r0, r0
    3b60:	00000291 	muleq	r0, r1, r2
    3b64:	56093e06 	strpl	r3, [r9], -r6, lsl #28
    3b68:	14000000 	strne	r0, [r0], #-0
    3b6c:	0004b310 	andeq	fp, r4, r0, lsl r3
    3b70:	093f0600 	ldmdbeq	pc!, {r9, sl}	; <UNPREDICTABLE>
    3b74:	00000056 	andeq	r0, r0, r6, asr r0
    3b78:	038f1018 	orreq	r1, pc, #24
    3b7c:	40060000 	andmi	r0, r6, r0
    3b80:	00005609 	andeq	r5, r0, r9, lsl #12
    3b84:	f6101c00 			; <UNDEFINED> instruction: 0xf6101c00
    3b88:	06000004 	streq	r0, [r0], -r4
    3b8c:	00560941 	subseq	r0, r6, r1, asr #18
    3b90:	00200000 	eoreq	r0, r0, r0
    3b94:	00010114 	andeq	r0, r1, r4, lsl r1
    3b98:	06010800 	streq	r0, [r1], -r0, lsl #16
    3b9c:	029c084a 	addseq	r0, ip, #4849664	; 0x4a0000
    3ba0:	8c100000 	ldchi	0, cr0, [r0], {-0}
    3ba4:	06000001 	streq	r0, [r0], -r1
    3ba8:	029c0a4b 	addseq	r0, ip, #307200	; 0x4b000
    3bac:	10000000 	andne	r0, r0, r0
    3bb0:	00000000 	andeq	r0, r0, r0
    3bb4:	9c094c06 	stcls	12, cr4, [r9], {6}
    3bb8:	80000002 	andhi	r0, r0, r2
    3bbc:	00046415 	andeq	r6, r4, r5, lsl r4
    3bc0:	0a4e0600 	beq	13853c8 <__bss_end__+0x137b368>
    3bc4:	00000158 	andeq	r0, r0, r8, asr r1
    3bc8:	26150100 	ldrcs	r0, [r5], -r0, lsl #2
    3bcc:	06000001 	streq	r0, [r0], -r1
    3bd0:	01580a51 	cmpeq	r8, r1, asr sl
    3bd4:	01040000 	mrseq	r0, (UNDEF: 4)
    3bd8:	00480d00 	subeq	r0, r8, r0, lsl #26
    3bdc:	02ac0000 	adceq	r0, ip, #0
    3be0:	5d0e0000 	stcpl	0, cr0, [lr, #-0]
    3be4:	1f000000 	svcne	0x00000000
    3be8:	02b81400 	adcseq	r1, r8, #0, 8
    3bec:	01900000 	orrseq	r0, r0, r0
    3bf0:	ef085d06 	svc	0x00085d06
    3bf4:	10000002 	andne	r0, r0, r2
    3bf8:	000003ce 	andeq	r0, r0, lr, asr #7
    3bfc:	ef125e06 	svc	0x00125e06
    3c00:	00000002 	andeq	r0, r0, r2
    3c04:	0003e610 	andeq	lr, r3, r0, lsl r6
    3c08:	065f0600 	ldrbeq	r0, [pc], -r0, lsl #12
    3c0c:	00000056 	andeq	r0, r0, r6, asr r0
    3c10:	01941004 	orrseq	r1, r4, r4
    3c14:	61060000 	mrsvs	r0, (UNDEF: 6)
    3c18:	0002f509 	andeq	pc, r2, r9, lsl #10
    3c1c:	01100800 	tsteq	r0, r0, lsl #16
    3c20:	06000001 	streq	r0, [r0], -r1
    3c24:	02571e62 	subseq	r1, r7, #1568	; 0x620
    3c28:	00880000 	addeq	r0, r8, r0
    3c2c:	02ac0408 	adceq	r0, ip, #8, 8	; 0x8000000
    3c30:	050d0000 	streq	r0, [sp, #-0]
    3c34:	05000003 	streq	r0, [r0, #-3]
    3c38:	0e000003 	cdpeq	0, 0, cr0, cr0, cr3, {0}
    3c3c:	0000005d 	andeq	r0, r0, sp, asr r0
    3c40:	0408001f 	streq	r0, [r8], #-31	; 0xffffffe1
    3c44:	0000030b 	andeq	r0, r0, fp, lsl #6
    3c48:	03991216 	orrseq	r1, r9, #1610612737	; 0x60000001
    3c4c:	06080000 	streq	r0, [r8], -r0
    3c50:	03340875 	teqeq	r4, #7667712	; 0x750000
    3c54:	bb100000 	bllt	403c5c <__bss_end__+0x3f9bfc>
    3c58:	06000000 	streq	r0, [r0], -r0
    3c5c:	03341176 	teqeq	r4, #-2147483619	; 0x8000001d
    3c60:	10000000 	andne	r0, r0, r0
    3c64:	0000001b 	andeq	r0, r0, fp, lsl r0
    3c68:	56067706 	strpl	r7, [r6], -r6, lsl #14
    3c6c:	04000000 	streq	r0, [r0], #-0
    3c70:	80040800 	andhi	r0, r4, r0, lsl #16
    3c74:	12000000 	andne	r0, r0, #0
    3c78:	000003b8 			; <UNDEFINED> instruction: 0x000003b8
    3c7c:	08b50668 	ldmeq	r5!, {r3, r5, r6, r9, sl}
    3c80:	0000047d 	andeq	r0, r0, sp, ror r4
    3c84:	00705f13 	rsbseq	r5, r0, r3, lsl pc
    3c88:	3412b606 	ldrcc	fp, [r2], #-1542	; 0xfffff9fa
    3c8c:	00000003 	andeq	r0, r0, r3
    3c90:	00725f13 	rsbseq	r5, r2, r3, lsl pc
    3c94:	5607b706 	strpl	fp, [r7], -r6, lsl #14
    3c98:	04000000 	streq	r0, [r0], #-0
    3c9c:	00775f13 	rsbseq	r5, r7, r3, lsl pc
    3ca0:	5607b806 	strpl	fp, [r7], -r6, lsl #16
    3ca4:	08000000 	stmdaeq	r0, {}	; <UNPREDICTABLE>
    3ca8:	00011f10 	andeq	r1, r1, r0, lsl pc
    3cac:	09b90600 	ldmibeq	r9!, {r9, sl}
    3cb0:	0000006b 	andeq	r0, r0, fp, rrx
    3cb4:	0208100c 	andeq	r1, r8, #12
    3cb8:	ba060000 	blt	183cc0 <__bss_end__+0x179c60>
    3cbc:	00006b09 	andeq	r6, r0, r9, lsl #22
    3cc0:	5f130e00 	svcpl	0x00130e00
    3cc4:	06006662 	streq	r6, [r0], -r2, ror #12
    3cc8:	030c11bb 	movweq	r1, #49595	; 0xc1bb
    3ccc:	10100000 	andsne	r0, r0, r0
    3cd0:	0000007b 	andeq	r0, r0, fp, ror r0
    3cd4:	5607bc06 	strpl	fp, [r7], -r6, lsl #24
    3cd8:	18000000 	stmdane	r0, {}	; <UNPREDICTABLE>
    3cdc:	00010f10 	andeq	r0, r1, r0, lsl pc
    3ce0:	0ac30600 	beq	ff0c54e8 <__bss_end__+0xff0bb488>
    3ce4:	00000048 	andeq	r0, r0, r8, asr #32
    3ce8:	0b3d101c 	bleq	f47d60 <__bss_end__+0xf3dd00>
    3cec:	c5060000 	strgt	r0, [r6, #-0]
    3cf0:	0005ef1d 	andeq	lr, r5, sp, lsl pc
    3cf4:	32102000 	andscc	r2, r0, #0
    3cf8:	06000006 	streq	r0, [r0], -r6
    3cfc:	06191dc7 	ldreq	r1, [r9], -r7, asr #27
    3d00:	10240000 	eorne	r0, r4, r0
    3d04:	0000043a 	andeq	r0, r0, sl, lsr r4
    3d08:	3d0dca06 	vstrcc	s24, [sp, #-24]	; 0xffffffe8
    3d0c:	28000006 	stmdacs	r0, {r1, r2}
    3d10:	00051010 	andeq	r1, r5, r0, lsl r0
    3d14:	09cb0600 	stmibeq	fp, {r9, sl}^
    3d18:	00000657 	andeq	r0, r0, r7, asr r6
    3d1c:	755f132c 	ldrbvc	r1, [pc, #-812]	; 39f8 <_start-0x4608>
    3d20:	ce060062 	cdpgt	0, 0, cr0, cr6, cr2, {3}
    3d24:	00030c11 	andeq	r0, r3, r1, lsl ip
    3d28:	5f133000 	svcpl	0x00133000
    3d2c:	06007075 			; <UNDEFINED> instruction: 0x06007075
    3d30:	033412cf 	teqeq	r4, #-268435444	; 0xf000000c
    3d34:	13380000 	teqne	r8, #0
    3d38:	0072755f 	rsbseq	r7, r2, pc, asr r5
    3d3c:	5607d006 	strpl	sp, [r7], -r6
    3d40:	3c000000 	stccc	0, cr0, [r0], {-0}
    3d44:	0000b510 	andeq	fp, r0, r0, lsl r5
    3d48:	11d30600 	bicsne	r0, r3, r0, lsl #12
    3d4c:	0000065d 	andeq	r0, r0, sp, asr r6
    3d50:	04e81040 	strbteq	r1, [r8], #64	; 0x40
    3d54:	d4060000 	strle	r0, [r6], #-0
    3d58:	00066d11 	andeq	r6, r6, r1, lsl sp
    3d5c:	5f134300 	svcpl	0x00134300
    3d60:	0600626c 	streq	r6, [r0], -ip, ror #4
    3d64:	030c11d7 	movweq	r1, #49623	; 0xc1d7
    3d68:	10440000 	subne	r0, r4, r0
    3d6c:	0000013d 	andeq	r0, r0, sp, lsr r1
    3d70:	5607da06 	strpl	sp, [r7], -r6, lsl #20
    3d74:	4c000000 	stcmi	0, cr0, [r0], {-0}
    3d78:	00014e10 	andeq	r4, r1, r0, lsl lr
    3d7c:	0adb0600 	beq	ff6c5584 <__bss_end__+0xff6bb524>
    3d80:	000000b3 	strheq	r0, [r0], -r3
    3d84:	0ade1050 	beq	ff787ecc <__bss_end__+0xff77de6c>
    3d88:	de060000 	cdple	0, 0, cr0, cr6, cr0, {0}
    3d8c:	00049b12 	andeq	r9, r4, r2, lsl fp
    3d90:	2c105400 	cfldrscs	mvf5, [r0], {-0}
    3d94:	06000004 	streq	r0, [r0], -r4
    3d98:	013a0ce2 	teqeq	sl, r2, ror #25
    3d9c:	10580000 	subsne	r0, r8, r0
    3da0:	000003c0 	andeq	r0, r0, r0, asr #7
    3da4:	2e0ee406 	cdpcs	4, 0, cr14, cr14, cr6, {0}
    3da8:	5c000001 	stcpl	0, cr0, [r0], {1}
    3dac:	00028910 	andeq	r8, r2, r0, lsl r9
    3db0:	09e50600 	stmibeq	r5!, {r9, sl}^
    3db4:	00000056 	andeq	r0, r0, r6, asr r0
    3db8:	56170064 	ldrpl	r0, [r7], -r4, rrx
    3dbc:	9b000000 	blls	3dc4 <_start-0x423c>
    3dc0:	18000004 	stmdane	r0, {r2}
    3dc4:	0000049b 	muleq	r0, fp, r4
    3dc8:	00004818 	andeq	r4, r0, r8, lsl r8
    3dcc:	01461800 	cmpeq	r6, r0, lsl #16
    3dd0:	56180000 	ldrpl	r0, [r8], -r0
    3dd4:	00000000 	andeq	r0, r0, r0
    3dd8:	04a60408 	strteq	r0, [r6], #1032	; 0x408
    3ddc:	9b110000 	blls	443de4 <__bss_end__+0x439d84>
    3de0:	19000004 	stmdbne	r0, {r2}
    3de4:	00000416 	andeq	r0, r0, r6, lsl r4
    3de8:	60060428 	andvs	r0, r6, r8, lsr #8
    3dec:	05ef0802 	strbeq	r0, [pc, #2050]!	; 45f6 <_start-0x3a0a>
    3df0:	7e1a0000 	cdpvc	0, 1, cr0, cr10, cr0, {0}
    3df4:	06000003 	streq	r0, [r0], -r3
    3df8:	56070262 	strpl	r0, [r7], -r2, ror #4
    3dfc:	00000000 	andeq	r0, r0, r0
    3e00:	00012e1a 	andeq	r2, r1, sl, lsl lr
    3e04:	02670600 	rsbeq	r0, r7, #0, 12
    3e08:	0006c90b 	andeq	ip, r6, fp, lsl #18
    3e0c:	f81a0400 			; <UNDEFINED> instruction: 0xf81a0400
    3e10:	06000001 	streq	r0, [r0], -r1
    3e14:	c9140267 	ldmdbgt	r4, {r0, r1, r2, r5, r6, r9}
    3e18:	08000006 	stmdaeq	r0, {r1, r2}
    3e1c:	0001a81a 	andeq	sl, r1, sl, lsl r8
    3e20:	02670600 	rsbeq	r0, r7, #0, 12
    3e24:	0006c91e 	andeq	ip, r6, lr, lsl r9
    3e28:	e11a0c00 	tst	sl, r0, lsl #24
    3e2c:	06000003 	streq	r0, [r0], -r3
    3e30:	56080269 	strpl	r0, [r8], -r9, ror #4
    3e34:	10000000 	andne	r0, r0, r0
    3e38:	0000291a 	andeq	r2, r0, sl, lsl r9
    3e3c:	026a0600 	rsbeq	r0, sl, #0, 12
    3e40:	0008c908 	andeq	ip, r8, r8, lsl #18
    3e44:	f51a1400 			; <UNDEFINED> instruction: 0xf51a1400
    3e48:	06000003 	streq	r0, [r0], -r3
    3e4c:	5607026d 	strpl	r0, [r7], -sp, ror #4
    3e50:	30000000 	andcc	r0, r0, r0
    3e54:	000a1a1a 	andeq	r1, sl, sl, lsl sl
    3e58:	026e0600 	rsbeq	r0, lr, #0, 12
    3e5c:	0008de16 	andeq	sp, r8, r6, lsl lr
    3e60:	c01a3400 	andsgt	r3, sl, r0, lsl #8
    3e64:	06000002 	streq	r0, [r0], -r2
    3e68:	56070270 			; <UNDEFINED> instruction: 0x56070270
    3e6c:	38000000 	stmdacc	r0, {}	; <UNPREDICTABLE>
    3e70:	0003eb1a 	andeq	lr, r3, sl, lsl fp
    3e74:	02720600 	rsbseq	r0, r2, #0, 12
    3e78:	0008ef0a 	andeq	lr, r8, sl, lsl #30
    3e7c:	651a3c00 	ldrvs	r3, [sl, #-3072]	; 0xfffff400
    3e80:	06000002 	streq	r0, [r0], -r2
    3e84:	be130275 	mrclt	2, 0, r0, cr3, cr5, {3}
    3e88:	40000001 	andmi	r0, r0, r1
    3e8c:	0001c71a 	andeq	ip, r1, sl, lsl r7
    3e90:	02760600 	rsbseq	r0, r6, #0, 12
    3e94:	00005607 	andeq	r5, r0, r7, lsl #12
    3e98:	2a1a4400 	bcs	694ea0 <__bss_end__+0x68ae40>
    3e9c:	06000005 	streq	r0, [r0], -r5
    3ea0:	be130277 	mrclt	2, 0, r0, cr3, cr7, {3}
    3ea4:	48000001 	stmdami	r0, {r0}
    3ea8:	0002d21a 	andeq	sp, r2, sl, lsl r2
    3eac:	02780600 	rsbseq	r0, r8, #0, 12
    3eb0:	0008f514 	andeq	pc, r8, r4, lsl r5	; <UNPREDICTABLE>
    3eb4:	001a4c00 	andseq	r4, sl, r0, lsl #24
    3eb8:	06000002 	streq	r0, [r0], -r2
    3ebc:	5607027b 			; <UNDEFINED> instruction: 0x5607027b
    3ec0:	50000000 	andpl	r0, r0, r0
    3ec4:	0001461a 	andeq	r4, r1, sl, lsl r6
    3ec8:	027c0600 	rsbseq	r0, ip, #0, 12
    3ecc:	00014609 	andeq	r4, r1, r9, lsl #12
    3ed0:	f81a5400 			; <UNDEFINED> instruction: 0xf81a5400
    3ed4:	06000002 	streq	r0, [r0], -r2
    3ed8:	a407029f 	strge	r0, [r7], #-671	; 0xfffffd61
    3edc:	58000008 	stmdapl	r0, {r3}
    3ee0:	0002b81b 	andeq	fp, r2, fp, lsl r8
    3ee4:	02a30600 	adceq	r0, r3, #0, 12
    3ee8:	0002ef13 	andeq	lr, r2, r3, lsl pc
    3eec:	1b014800 	blne	55ef4 <__bss_end__+0x4be94>
    3ef0:	00000243 	andeq	r0, r0, r3, asr #4
    3ef4:	1202a406 	andne	sl, r2, #100663296	; 0x6000000
    3ef8:	000002ac 	andeq	r0, r0, ip, lsr #5
    3efc:	d61b014c 	ldrle	r0, [fp], -ip, asr #2
    3f00:	06000004 	streq	r0, [r0], -r4
    3f04:	060c02a8 	streq	r0, [ip], -r8, lsr #5
    3f08:	dc000009 	stcle	0, cr0, [r0], {9}
    3f0c:	01171b02 	tsteq	r7, r2, lsl #22
    3f10:	ad060000 	stcge	0, cr0, [r6, #-0]
    3f14:	068a1002 	streq	r1, [sl], r2
    3f18:	02e00000 	rsceq	r0, r0, #0
    3f1c:	0000fc1b 	andeq	pc, r0, fp, lsl ip	; <UNPREDICTABLE>
    3f20:	02af0600 	adceq	r0, pc, #0, 12
    3f24:	0009120a 	andeq	r1, r9, sl, lsl #4
    3f28:	0002ec00 	andeq	lr, r2, r0, lsl #24
    3f2c:	047d0408 	ldrbteq	r0, [sp], #-1032	; 0xfffffbf8
    3f30:	56170000 	ldrpl	r0, [r7], -r0
    3f34:	13000000 	movwne	r0, #0
    3f38:	18000006 	stmdane	r0, {r1, r2}
    3f3c:	0000049b 	muleq	r0, fp, r4
    3f40:	00004818 	andeq	r4, r0, r8, lsl r8
    3f44:	06131800 	ldreq	r1, [r3], -r0, lsl #16
    3f48:	56180000 	ldrpl	r0, [r8], -r0
    3f4c:	00000000 	andeq	r0, r0, r0
    3f50:	01530408 	cmpeq	r3, r8, lsl #8
    3f54:	04080000 	streq	r0, [r8], #-0
    3f58:	000005f5 	strdeq	r0, [r0], -r5
    3f5c:	0000bf17 	andeq	fp, r0, r7, lsl pc
    3f60:	00063d00 	andeq	r3, r6, r0, lsl #26
    3f64:	049b1800 	ldreq	r1, [fp], #2048	; 0x800
    3f68:	48180000 	ldmdami	r8, {}	; <UNPREDICTABLE>
    3f6c:	18000000 	stmdane	r0, {}	; <UNPREDICTABLE>
    3f70:	000000bf 	strheq	r0, [r0], -pc	; <UNPREDICTABLE>
    3f74:	00005618 	andeq	r5, r0, r8, lsl r6
    3f78:	04080000 	streq	r0, [r8], #-0
    3f7c:	0000061f 	andeq	r0, r0, pc, lsl r6
    3f80:	00005617 	andeq	r5, r0, r7, lsl r6
    3f84:	00065700 	andeq	r5, r6, r0, lsl #14
    3f88:	049b1800 	ldreq	r1, [fp], #2048	; 0x800
    3f8c:	48180000 	ldmdami	r8, {}	; <UNPREDICTABLE>
    3f90:	00000000 	andeq	r0, r0, r0
    3f94:	06430408 	strbeq	r0, [r3], -r8, lsl #8
    3f98:	800d0000 	andhi	r0, sp, r0
    3f9c:	6d000000 	stcvs	0, cr0, [r0, #-0]
    3fa0:	0e000006 	cdpeq	0, 0, cr0, cr0, cr6, {0}
    3fa4:	0000005d 	andeq	r0, r0, sp, asr r0
    3fa8:	800d0002 	andhi	r0, sp, r2
    3fac:	7d000000 	stcvc	0, cr0, [r0, #-0]
    3fb0:	0e000006 	cdpeq	0, 0, cr0, cr0, cr6, {0}
    3fb4:	0000005d 	andeq	r0, r0, sp, asr r0
    3fb8:	a60a0000 	strge	r0, [sl], -r0
    3fbc:	06000003 	streq	r0, [r0], -r3
    3fc0:	3a1a011f 	bcc	684444 <__bss_end__+0x67a3e4>
    3fc4:	1c000003 	stcne	0, cr0, [r0], {3}
    3fc8:	000004bd 			; <UNDEFINED> instruction: 0x000004bd
    3fcc:	0123060c 			; <UNDEFINED> instruction: 0x0123060c
    3fd0:	0006c308 	andeq	ip, r6, r8, lsl #6
    3fd4:	03ce1a00 	biceq	r1, lr, #0, 20
    3fd8:	25060000 	strcs	r0, [r6, #-0]
    3fdc:	06c31101 	strbeq	r1, [r3], r1, lsl #2
    3fe0:	1a000000 	bne	3fe8 <_start-0x4018>
    3fe4:	0000021b 	andeq	r0, r0, fp, lsl r2
    3fe8:	07012606 	streq	r2, [r1, -r6, lsl #12]
    3fec:	00000056 	andeq	r0, r0, r6, asr r0
    3ff0:	03a01a04 	moveq	r1, #4, 20	; 0x4000
    3ff4:	27060000 	strcs	r0, [r6, -r0]
    3ff8:	06c90b01 	strbeq	r0, [r9], r1, lsl #22
    3ffc:	00080000 	andeq	r0, r8, r0
    4000:	068a0408 	streq	r0, [sl], r8, lsl #8
    4004:	04080000 	streq	r0, [r8], #-0
    4008:	0000067d 	andeq	r0, r0, sp, ror r6
    400c:	0000211c 	andeq	r2, r0, ip, lsl r1
    4010:	3f060e00 	svccc	0x00060e00
    4014:	07080801 	streq	r0, [r8, -r1, lsl #16]
    4018:	1d1a0000 	ldcne	0, cr0, [sl, #-0]
    401c:	06000004 	streq	r0, [r0], -r4
    4020:	08120140 	ldmdaeq	r2, {r6, r8}
    4024:	00000007 	andeq	r0, r0, r7
    4028:	0004511a 	andeq	r5, r4, sl, lsl r1
    402c:	01410600 	cmpeq	r1, r0, lsl #12
    4030:	00070812 	andeq	r0, r7, r2, lsl r8
    4034:	6d1a0600 	ldcvs	6, cr0, [sl, #-0]
    4038:	06000004 	streq	r0, [r0], -r4
    403c:	87120142 	ldrhi	r0, [r2, -r2, asr #2]
    4040:	0c000000 	stceq	0, cr0, [r0], {-0}
    4044:	00870d00 	addeq	r0, r7, r0, lsl #26
    4048:	07180000 	ldreq	r0, [r8, -r0]
    404c:	5d0e0000 	stcpl	0, cr0, [lr, #-0]
    4050:	02000000 	andeq	r0, r0, #0
    4054:	06d01d00 	ldrbeq	r1, [r0], r0, lsl #26
    4058:	2d070280 	sfmcs	f0, 4, [r7, #-512]	; 0xfffffe00
    405c:	1a000008 	bne	4084 <_start-0x3f7c>
    4060:	000004a1 	andeq	r0, r0, r1, lsr #9
    4064:	18028206 	stmdane	r2, {r1, r2, r9, pc}
    4068:	0000005d 	andeq	r0, r0, sp, asr r0
    406c:	04571a00 	ldrbeq	r1, [r7], #-2560	; 0xfffff600
    4070:	83060000 	movwhi	r0, #24576	; 0x6000
    4074:	01461202 	cmpeq	r6, r2, lsl #4
    4078:	1a040000 	bne	104080 <__bss_end__+0xfa020>
    407c:	00000258 	andeq	r0, r0, r8, asr r2
    4080:	10028406 	andne	r8, r2, r6, lsl #8
    4084:	0000082d 	andeq	r0, r0, sp, lsr #16
    4088:	05011a08 	streq	r1, [r1, #-2568]	; 0xfffff5f8
    408c:	85060000 	strhi	r0, [r6, #-0]
    4090:	01d41702 	bicseq	r1, r4, r2, lsl #14
    4094:	1a240000 	bne	90409c <__bss_end__+0x8fa03c>
    4098:	000001b8 			; <UNDEFINED> instruction: 0x000001b8
    409c:	0f028606 	svceq	0x00028606
    40a0:	00000056 	andeq	r0, r0, r6, asr r0
    40a4:	03c91a48 	biceq	r1, r9, #72, 20	; 0x48000
    40a8:	87060000 	strhi	r0, [r6, -r0]
    40ac:	00952c02 	addseq	r2, r5, r2, lsl #24
    40b0:	1a500000 	bne	14040b8 <__bss_end__+0x13fa058>
    40b4:	00000517 	andeq	r0, r0, r7, lsl r5
    40b8:	1a028806 	bne	a60d8 <__bss_end__+0x9c078>
    40bc:	000006cf 	andeq	r0, r0, pc, asr #13
    40c0:	03d41a58 	bicseq	r1, r4, #88, 20	; 0x58000
    40c4:	89060000 	stmdbhi	r6, {}	; <UNPREDICTABLE>
    40c8:	012e1602 			; <UNDEFINED> instruction: 0x012e1602
    40cc:	1a680000 	bne	1a040d4 <__bss_end__+0x19fa074>
    40d0:	0000051c 	andeq	r0, r0, ip, lsl r5
    40d4:	16028a06 	strne	r8, [r2], -r6, lsl #20
    40d8:	0000012e 	andeq	r0, r0, lr, lsr #2
    40dc:	02dc1a70 	sbcseq	r1, ip, #112, 20	; 0x70000
    40e0:	8b060000 	blhi	1840e8 <__bss_end__+0x17a088>
    40e4:	012e1602 			; <UNDEFINED> instruction: 0x012e1602
    40e8:	1a780000 	bne	1e040f0 <__bss_end__+0x1dfa090>
    40ec:	000004cc 	andeq	r0, r0, ip, asr #9
    40f0:	10028c06 	andne	r8, r2, r6, lsl #24
    40f4:	0000083d 	andeq	r0, r0, sp, lsr r8
    40f8:	024c1a80 	subeq	r1, ip, #128, 20	; 0x80000
    40fc:	8d060000 	stchi	0, cr0, [r6, #-0]
    4100:	084d1002 	stmdaeq	sp, {r1, ip}^
    4104:	1a880000 	bne	fe20410c <__bss_end__+0xfe1fa0ac>
    4108:	0000047a 	andeq	r0, r0, sl, ror r4
    410c:	0f028e06 	svceq	0x00028e06
    4110:	00000056 	andeq	r0, r0, r6, asr r0
    4114:	017e1aa0 	cmneq	lr, r0, lsr #21
    4118:	8f060000 	svchi	0x00060000
    411c:	012e1602 			; <UNDEFINED> instruction: 0x012e1602
    4120:	1aa40000 	bne	fe904128 <__bss_end__+0xfe8fa0c8>
    4124:	0000008f 	andeq	r0, r0, pc, lsl #1
    4128:	16029006 	strne	r9, [r2], -r6
    412c:	0000012e 	andeq	r0, r0, lr, lsr #2
    4130:	016d1aac 	cmneq	sp, ip, lsr #21
    4134:	91060000 	mrsls	r0, (UNDEF: 6)
    4138:	012e1602 			; <UNDEFINED> instruction: 0x012e1602
    413c:	1ab40000 	bne	fed04144 <__bss_end__+0xfecfa0e4>
    4140:	0000003c 	andeq	r0, r0, ip, lsr r0
    4144:	16029206 	strne	r9, [r2], -r6, lsl #4
    4148:	0000012e 	andeq	r0, r0, lr, lsr #2
    414c:	004b1abc 	strheq	r1, [fp], #-172	; 0xffffff54
    4150:	93060000 	movwls	r0, #24576	; 0x6000
    4154:	012e1602 			; <UNDEFINED> instruction: 0x012e1602
    4158:	1ac40000 	bne	ff104160 <__bss_end__+0xff0fa100>
    415c:	0000037c 	andeq	r0, r0, ip, ror r3
    4160:	08029406 	stmdaeq	r2, {r1, r2, sl, ip, pc}
    4164:	00000056 	andeq	r0, r0, r6, asr r0
    4168:	4c0d00cc 	stcmi	0, cr0, [sp], {204}	; 0xcc
    416c:	3d000001 	stccc	0, cr0, [r0, #-4]
    4170:	0e000008 	cdpeq	0, 0, cr0, cr0, cr8, {0}
    4174:	0000005d 	andeq	r0, r0, sp, asr r0
    4178:	4c0d0019 	stcmi	0, cr0, [sp], {25}
    417c:	4d000001 	stcmi	0, cr0, [r0, #-4]
    4180:	0e000008 	cdpeq	0, 0, cr0, cr0, cr8, {0}
    4184:	0000005d 	andeq	r0, r0, sp, asr r0
    4188:	4c0d0007 	stcmi	0, cr0, [sp], {7}
    418c:	5d000001 	stcpl	0, cr0, [r0, #-4]
    4190:	0e000008 	cdpeq	0, 0, cr0, cr0, cr8, {0}
    4194:	0000005d 	andeq	r0, r0, sp, asr r0
    4198:	f01d0017 			; <UNDEFINED> instruction: 0xf01d0017
    419c:	07029906 	streq	r9, [r2, -r6, lsl #18]
    41a0:	00000884 	andeq	r0, r0, r4, lsl #17
    41a4:	0002a81a 	andeq	sl, r2, sl, lsl r8
    41a8:	029c0600 	addseq	r0, ip, #0, 12
    41ac:	0008841b 	andeq	r8, r8, fp, lsl r4
    41b0:	c31a0000 	tstgt	sl, #0
    41b4:	06000004 	streq	r0, [r0], -r4
    41b8:	9418029d 	ldrls	r0, [r8], #-669	; 0xfffffd63
    41bc:	78000008 	stmdavc	r0, {r3}
    41c0:	03340d00 	teqeq	r4, #0, 26
    41c4:	08940000 	ldmeq	r4, {}	; <UNPREDICTABLE>
    41c8:	5d0e0000 	stcpl	0, cr0, [lr, #-0]
    41cc:	1d000000 	stcne	0, cr0, [r0, #-0]
    41d0:	005d0d00 	subseq	r0, sp, r0, lsl #26
    41d4:	08a40000 	stmiaeq	r4!, {}	; <UNPREDICTABLE>
    41d8:	5d0e0000 	stcpl	0, cr0, [lr, #-0]
    41dc:	1d000000 	stcne	0, cr0, [r0, #-0]
    41e0:	06f01e00 	ldrbteq	r1, [r0], r0, lsl #28
    41e4:	c903027e 	stmdbgt	r3, {r1, r2, r3, r4, r5, r6, r9}
    41e8:	1f000008 	svcne	0x00000008
    41ec:	00000416 	andeq	r0, r0, r6, lsl r4
    41f0:	0b029506 	bleq	a9610 <__bss_end__+0x9f5b0>
    41f4:	00000718 	andeq	r0, r0, r8, lsl r7
    41f8:	0004ee1f 	andeq	lr, r4, pc, lsl lr
    41fc:	029e0600 	addseq	r0, lr, #0, 12
    4200:	00085d0b 	andeq	r5, r8, fp, lsl #26
    4204:	4c0d0000 	stcmi	0, cr0, [sp], {-0}
    4208:	d9000001 	stmdble	r0, {r0}
    420c:	0e000008 	cdpeq	0, 0, cr0, cr0, cr8, {0}
    4210:	0000005d 	andeq	r0, r0, sp, asr r0
    4214:	84090018 	strhi	r0, [r9], #-24	; 0xffffffe8
    4218:	08000000 	stmdaeq	r0, {}	; <UNPREDICTABLE>
    421c:	0008d904 	andeq	sp, r8, r4, lsl #18
    4220:	08ef2000 	stmiaeq	pc!, {sp}^	; <UNPREDICTABLE>
    4224:	9b180000 	blls	60422c <__bss_end__+0x5fa1cc>
    4228:	00000004 	andeq	r0, r0, r4
    422c:	08e40408 	stmiaeq	r4!, {r3, sl}^
    4230:	04080000 	streq	r0, [r8], #-0
    4234:	000001be 			; <UNDEFINED> instruction: 0x000001be
    4238:	00090620 	andeq	r0, r9, r0, lsr #12
    423c:	00561800 	subseq	r1, r6, r0, lsl #16
    4240:	08000000 	stmdaeq	r0, {}	; <UNPREDICTABLE>
    4244:	00090c04 	andeq	r0, r9, r4, lsl #24
    4248:	fb040800 	blx	106252 <__bss_end__+0xfc1f2>
    424c:	0d000008 	stceq	0, cr0, [r0, #-32]	; 0xffffffe0
    4250:	0000067d 	andeq	r0, r0, sp, ror r6
    4254:	00000922 	andeq	r0, r0, r2, lsr #18
    4258:	00005d0e 	andeq	r5, r0, lr, lsl #26
    425c:	21000200 	mrscs	r0, R8_usr
    4260:	0000048e 	andeq	r0, r0, lr, lsl #9
    4264:	17032e06 	strne	r2, [r3, -r6, lsl #28]
    4268:	0000049b 	muleq	r0, fp, r4
    426c:	00048721 	andeq	r8, r4, r1, lsr #14
    4270:	032f0600 			; <UNDEFINED> instruction: 0x032f0600
    4274:	0004a11d 	andeq	sl, r4, sp, lsl r1
    4278:	00561700 	subseq	r1, r6, r0, lsl #14
    427c:	094b0000 	stmdbeq	fp, {}^	; <UNPREDICTABLE>
    4280:	56180000 	ldrpl	r0, [r8], -r0
    4284:	00000000 	andeq	r0, r0, r0
    4288:	0001d122 	andeq	sp, r1, r2, lsr #2
    428c:	0e1d0700 	cdpeq	7, 1, cr0, cr13, cr0, {0}
    4290:	00000957 	andeq	r0, r0, r7, asr r9
    4294:	093c0408 	ldmdbeq	ip!, {r3, sl}
    4298:	56170000 	ldrpl	r0, [r7], -r0
    429c:	6c000000 	stcvs	0, cr0, [r0], {-0}
    42a0:	18000009 	stmdane	r0, {r0, r3}
    42a4:	00000613 	andeq	r0, r0, r3, lsl r6
    42a8:	07812200 	streq	r2, [r1, r0, lsl #4]
    42ac:	22070000 	andcs	r0, r7, #0
    42b0:	0009780e 	andeq	r7, r9, lr, lsl #16
    42b4:	5d040800 	stcpl	8, cr0, [r4, #-0]
    42b8:	23000009 	movwcs	r0, #9
    42bc:	00000718 	andeq	r0, r0, r8, lsl r7
    42c0:	56050601 	strpl	r0, [r5], -r1, lsl #12
    42c4:	c0000000 	andgt	r0, r0, r0
    42c8:	5800008a 	stmdapl	r0, {r1, r3, r7}
    42cc:	01000000 	mrseq	r0, (UNDEF: 0)
    42d0:	000a119c 	muleq	sl, ip, r1
    42d4:	6d662400 	cfstrdvs	mvd2, [r6, #-0]
    42d8:	06010074 			; <UNDEFINED> instruction: 0x06010074
    42dc:	00061318 	andeq	r1, r6, r8, lsl r3
    42e0:	70910200 	addsvc	r0, r1, r0, lsl #4
    42e4:	75622625 	strbvc	r2, [r2, #-1573]!	; 0xfffff9db
    42e8:	08010066 	stmdaeq	r1, {r1, r2, r5, r6}
    42ec:	000a1111 	andeq	r1, sl, r1, lsl r1
    42f0:	5c030500 	cfstr32pl	mvfx0, [r3], {-0}
    42f4:	2700009c 			; <UNDEFINED> instruction: 0x2700009c
    42f8:	0000010a 	andeq	r0, r0, sl, lsl #2
    42fc:	4a0d0901 	bmi	346708 <__bss_end__+0x33c6a8>
    4300:	02000000 	andeq	r0, r0, #0
    4304:	73285c91 			; <UNDEFINED> instruction: 0x73285c91
    4308:	0c01007a 	stceq	0, cr0, [r1], {122}	; 0x7a
    430c:	0000560d 	andeq	r5, r0, sp, lsl #12
    4310:	000af900 	andeq	pc, sl, r0, lsl #18
    4314:	000af300 	andeq	pc, sl, r0, lsl #6
    4318:	8ae82900 	bhi	ffa0e720 <__bss_end__+0xffa046c0>
    431c:	0a220000 	beq	884324 <__bss_end__+0x87a2c4>
    4320:	0a040000 	beq	104328 <__bss_end__+0xfa2c8>
    4324:	012a0000 			; <UNDEFINED> instruction: 0x012a0000
    4328:	00750250 	rsbseq	r0, r5, r0, asr r2
    432c:	0351012a 	cmpeq	r1, #-2147483638	; 0x8000000a
    4330:	2a04000a 	bcs	104360 <__bss_end__+0xfa300>
    4334:	91035201 	tstls	r3, r1, lsl #4
    4338:	012a0648 			; <UNDEFINED> instruction: 0x012a0648
    433c:	4c910253 	lfmmi	f0, 4, [r1], {83}	; 0x53
    4340:	8afc2b00 	bhi	fff0ef48 <__bss_end__+0xfff04ee8>
    4344:	012a0000 			; <UNDEFINED> instruction: 0x012a0000
    4348:	00750250 	rsbseq	r0, r5, r0, asr r2
    434c:	4c0d0000 	stcmi	0, cr0, [sp], {-0}
    4350:	22000001 	andcs	r0, r0, #1
    4354:	2c00000a 	stccs	0, cr0, [r0], {10}
    4358:	0000005d 	andeq	r0, r0, sp, asr r0
    435c:	2d0003ff 	stccs	3, cr0, [r0, #-1020]	; 0xfffffc04
    4360:	00000715 	andeq	r0, r0, r5, lsl r7
    4364:	00000715 	andeq	r0, r0, r5, lsl r7
    4368:	00050209 	andeq	r0, r5, r9, lsl #4
    436c:	000009d9 	ldrdeq	r0, [r0], -r9
    4370:	0c440004 	mcrreq	0, 0, r0, r4, cr4
    4374:	01040000 	mrseq	r0, (UNDEF: 4)
    4378:	000002fd 	strdeq	r0, [r0], -sp
    437c:	0007690c 	andeq	r6, r7, ip, lsl #18
    4380:	0006da00 	andeq	sp, r6, r0, lsl #20
    4384:	008b1800 	addeq	r1, fp, r0, lsl #16
    4388:	00003c00 	andeq	r3, r0, r0, lsl #24
    438c:	000d2c00 	andeq	r2, sp, r0, lsl #24
    4390:	05040200 	streq	r0, [r4, #-512]	; 0xfffffe00
    4394:	00746e69 	rsbseq	r6, r4, r9, ror #28
    4398:	66070403 	strvs	r0, [r7], -r3, lsl #8
    439c:	03000000 	movweq	r0, #0
    43a0:	02ec0601 	rsceq	r0, ip, #1048576	; 0x100000
    43a4:	02030000 	andeq	r0, r3, #0
    43a8:	00038505 	andeq	r8, r3, r5, lsl #10
    43ac:	05040300 	streq	r0, [r4, #-768]	; 0xfffffd00
    43b0:	000000ac 	andeq	r0, r0, ip, lsr #1
    43b4:	a7050803 	strge	r0, [r5, -r3, lsl #16]
    43b8:	03000000 	movweq	r0, #0
    43bc:	02ea0801 	rsceq	r0, sl, #65536	; 0x10000
    43c0:	02030000 	andeq	r0, r3, #0
    43c4:	00022207 	andeq	r2, r2, r7, lsl #4
    43c8:	07040300 	streq	r0, [r4, -r0, lsl #6]
    43cc:	00000061 	andeq	r0, r0, r1, rrx
    43d0:	5c070803 	stcpl	8, cr0, [r7], {3}
    43d4:	04000000 	streq	r0, [r0], #-0
    43d8:	00000273 	andeq	r0, r0, r3, ror r2
    43dc:	77192202 	ldrvc	r2, [r9, -r2, lsl #4]
    43e0:	05000000 	streq	r0, [r0, #-0]
    43e4:	00007d04 	andeq	r7, r0, r4, lsl #26
    43e8:	042b0600 	strteq	r0, [fp], #-1536	; 0xfffffa00
    43ec:	cb040000 	blgt	1043f4 <__bss_end__+0xfa394>
    43f0:	03000002 	movweq	r0, #2
    43f4:	00410e2c 	subeq	r0, r1, ip, lsr #28
    43f8:	40040000 	andmi	r0, r4, r0
    43fc:	03000004 	movweq	r0, #4
    4400:	00410e72 	subeq	r0, r1, r2, ror lr
    4404:	7b070000 	blvc	1c440c <__bss_end__+0x1ba3ac>
    4408:	04000002 	streq	r0, [r0], #-2
    440c:	2c17015e 	ldfcss	f0, [r7], {94}	; 0x5e
    4410:	08000000 	stmdaeq	r0, {}	; <UNPREDICTABLE>
    4414:	03a60304 			; <UNDEFINED> instruction: 0x03a60304
    4418:	000000c9 	andeq	r0, r0, r9, asr #1
    441c:	00026d09 	andeq	r6, r2, r9, lsl #26
    4420:	0ca80300 	stceq	3, cr0, [r8]
    4424:	0000009a 	muleq	r0, sl, r0
    4428:	0001e209 	andeq	lr, r1, r9, lsl #4
    442c:	13a90300 			; <UNDEFINED> instruction: 0x13a90300
    4430:	000000c9 	andeq	r0, r0, r9, asr #1
    4434:	004f0a00 	subeq	r0, pc, r0, lsl #20
    4438:	00d90000 	sbcseq	r0, r9, r0
    443c:	2c0b0000 	stccs	0, cr0, [fp], {-0}
    4440:	03000000 	movweq	r0, #0
    4444:	03080c00 	movweq	r0, #35840	; 0x8c00
    4448:	00fd09a3 	rscseq	r0, sp, r3, lsr #19
    444c:	230d0000 	movwcs	r0, #53248	; 0xd000
    4450:	03000004 	movweq	r0, #4
    4454:	002507a5 	eoreq	r0, r5, r5, lsr #15
    4458:	0d000000 	stceq	0, cr0, [r0, #-0]
    445c:	00000432 	andeq	r0, r0, r2, lsr r4
    4460:	a705aa03 	strge	sl, [r5, -r3, lsl #20]
    4464:	04000000 	streq	r0, [r0], #-0
    4468:	03ad0400 			; <UNDEFINED> instruction: 0x03ad0400
    446c:	ab030000 	blge	c4474 <__bss_end__+0xba414>
    4470:	0000d903 	andeq	sp, r0, r3, lsl #18
    4474:	019f0400 	orrseq	r0, pc, r0, lsl #8
    4478:	af030000 	svcge	0x00030000
    447c:	00006b1b 	andeq	r6, r0, fp, lsl fp
    4480:	05040e00 	streq	r0, [r4, #-3584]	; 0xfffff200
    4484:	00011d04 	andeq	r1, r1, r4, lsl #26
    4488:	08010300 	stmdaeq	r1, {r8, r9}
    448c:	000002f3 	strdeq	r0, [r0], -r3
    4490:	00011d0f 	andeq	r1, r1, pc, lsl #26
    4494:	04720400 	ldrbteq	r0, [r2], #-1024	; 0xfffffc00
    4498:	16050000 	strne	r0, [r5], -r0
    449c:	00005d19 	andeq	r5, r0, r9, lsl sp
    44a0:	01b01000 	movseq	r1, r0
    44a4:	05180000 	ldreq	r0, [r8, #-0]
    44a8:	018f082f 	orreq	r0, pc, pc, lsr #16
    44ac:	ce0d0000 	cdpgt	0, 0, cr0, cr13, cr0, {0}
    44b0:	05000003 	streq	r0, [r0, #-3]
    44b4:	018f1331 	orreq	r1, pc, r1, lsr r3	; <UNPREDICTABLE>
    44b8:	11000000 	mrsne	r0, (UNDEF: 0)
    44bc:	05006b5f 	streq	r6, [r0, #-2911]	; 0xfffff4a1
    44c0:	00250732 	eoreq	r0, r5, r2, lsr r7
    44c4:	0d040000 	stceq	0, cr0, [r4, #-0]
    44c8:	0000040e 	andeq	r0, r0, lr, lsl #8
    44cc:	250b3205 	strcs	r3, [fp, #-517]	; 0xfffffdfb
    44d0:	08000000 	stmdaeq	r0, {}	; <UNPREDICTABLE>
    44d4:	0001990d 	andeq	r9, r1, sp, lsl #18
    44d8:	14320500 	ldrtne	r0, [r2], #-1280	; 0xfffffb00
    44dc:	00000025 	andeq	r0, r0, r5, lsr #32
    44e0:	04ae0d0c 	strteq	r0, [lr], #3340	; 0xd0c
    44e4:	32050000 	andcc	r0, r5, #0
    44e8:	0000251b 	andeq	r2, r0, fp, lsl r5
    44ec:	5f111000 	svcpl	0x00111000
    44f0:	33050078 	movwcc	r0, #20600	; 0x5078
    44f4:	0001950b 	andeq	r9, r1, fp, lsl #10
    44f8:	05001400 	streq	r1, [r0, #-1024]	; 0xfffffc00
    44fc:	00013504 	andeq	r3, r1, r4, lsl #10
    4500:	01290a00 			; <UNDEFINED> instruction: 0x01290a00
    4504:	01a50000 			; <UNDEFINED> instruction: 0x01a50000
    4508:	2c0b0000 	stccs	0, cr0, [fp], {-0}
    450c:	00000000 	andeq	r0, r0, r0
    4510:	01dd1000 	bicseq	r1, sp, r0
    4514:	05240000 	streq	r0, [r4, #-0]!
    4518:	02280837 	eoreq	r0, r8, #3604480	; 0x370000
    451c:	9e0d0000 	cdpls	0, 0, cr0, cr13, cr0, {0}
    4520:	05000000 	streq	r0, [r0, #-0]
    4524:	00250939 	eoreq	r0, r5, r9, lsr r9
    4528:	0d000000 	stceq	0, cr0, [r0, #-0]
    452c:	00000448 	andeq	r0, r0, r8, asr #8
    4530:	25093a05 	strcs	r3, [r9, #-2565]	; 0xfffff5fb
    4534:	04000000 	streq	r0, [r0], #-0
    4538:	0000c10d 	andeq	ip, r0, sp, lsl #2
    453c:	093b0500 	ldmdbeq	fp!, {r8, sl}
    4540:	00000025 	andeq	r0, r0, r5, lsr #32
    4544:	052f0d08 	streq	r0, [pc, #-3336]!	; 3844 <_start-0x47bc>
    4548:	3c050000 	stccc	0, cr0, [r5], {-0}
    454c:	00002509 	andeq	r2, r0, r9, lsl #10
    4550:	af0d0c00 	svcge	0x000d0c00
    4554:	05000002 	streq	r0, [r0, #-2]
    4558:	0025093d 	eoreq	r0, r5, sp, lsr r9
    455c:	0d100000 	ldceq	0, cr0, [r0, #-0]
    4560:	00000291 	muleq	r0, r1, r2
    4564:	25093e05 	strcs	r3, [r9, #-3589]	; 0xfffff1fb
    4568:	14000000 	strne	r0, [r0], #-0
    456c:	0004b30d 	andeq	fp, r4, sp, lsl #6
    4570:	093f0500 	ldmdbeq	pc!, {r8, sl}	; <UNPREDICTABLE>
    4574:	00000025 	andeq	r0, r0, r5, lsr #32
    4578:	038f0d18 	orreq	r0, pc, #24, 26	; 0x600
    457c:	40050000 	andmi	r0, r5, r0
    4580:	00002509 	andeq	r2, r0, r9, lsl #10
    4584:	f60d1c00 			; <UNDEFINED> instruction: 0xf60d1c00
    4588:	05000004 	streq	r0, [r0, #-4]
    458c:	00250941 	eoreq	r0, r5, r1, asr #18
    4590:	00200000 	eoreq	r0, r0, r0
    4594:	00010112 	andeq	r0, r1, r2, lsl r1
    4598:	05010800 	streq	r0, [r1, #-2048]	; 0xfffff800
    459c:	026d084a 	rsbeq	r0, sp, #4849664	; 0x4a0000
    45a0:	8c0d0000 	stchi	0, cr0, [sp], {-0}
    45a4:	05000001 	streq	r0, [r0, #-1]
    45a8:	026d0a4b 	rsbeq	r0, sp, #307200	; 0x4b000
    45ac:	0d000000 	stceq	0, cr0, [r0, #-0]
    45b0:	00000000 	andeq	r0, r0, r0
    45b4:	6d094c05 	stcvs	12, cr4, [r9, #-20]	; 0xffffffec
    45b8:	80000002 	andhi	r0, r0, r2
    45bc:	00046413 	andeq	r6, r4, r3, lsl r4
    45c0:	0a4e0500 	beq	13859c8 <__bss_end__+0x137b968>
    45c4:	00000129 	andeq	r0, r0, r9, lsr #2
    45c8:	26130100 	ldrcs	r0, [r3], -r0, lsl #2
    45cc:	05000001 	streq	r0, [r0, #-1]
    45d0:	01290a51 			; <UNDEFINED> instruction: 0x01290a51
    45d4:	01040000 	mrseq	r0, (UNDEF: 4)
    45d8:	01150a00 	tsteq	r5, r0, lsl #20
    45dc:	027d0000 	rsbseq	r0, sp, #0
    45e0:	2c0b0000 	stccs	0, cr0, [fp], {-0}
    45e4:	1f000000 	svcne	0x00000000
    45e8:	02b81200 	adcseq	r1, r8, #0, 4
    45ec:	01900000 	orrseq	r0, r0, r0
    45f0:	c0085d05 	andgt	r5, r8, r5, lsl #26
    45f4:	0d000002 	stceq	0, cr0, [r0, #-8]
    45f8:	000003ce 	andeq	r0, r0, lr, asr #7
    45fc:	c0125e05 	andsgt	r5, r2, r5, lsl #28
    4600:	00000002 	andeq	r0, r0, r2
    4604:	0003e60d 	andeq	lr, r3, sp, lsl #12
    4608:	065f0500 	ldrbeq	r0, [pc], -r0, lsl #10
    460c:	00000025 	andeq	r0, r0, r5, lsr #32
    4610:	01940d04 	orrseq	r0, r4, r4, lsl #26
    4614:	61050000 	mrsvs	r0, (UNDEF: 5)
    4618:	0002c609 	andeq	ip, r2, r9, lsl #12
    461c:	010d0800 	tsteq	sp, r0, lsl #16
    4620:	05000001 	streq	r0, [r0, #-1]
    4624:	02281e62 	eoreq	r1, r8, #1568	; 0x620
    4628:	00880000 	addeq	r0, r8, r0
    462c:	027d0405 	rsbseq	r0, sp, #83886080	; 0x5000000
    4630:	d60a0000 	strle	r0, [sl], -r0
    4634:	d6000002 	strle	r0, [r0], -r2
    4638:	0b000002 	bleq	4648 <_start-0x39b8>
    463c:	0000002c 	andeq	r0, r0, ip, lsr #32
    4640:	0405001f 	streq	r0, [r5], #-31	; 0xffffffe1
    4644:	000002dc 	ldrdeq	r0, [r0], -ip
    4648:	03991014 	orrseq	r1, r9, #20
    464c:	05080000 	streq	r0, [r8, #-0]
    4650:	03050875 	movweq	r0, #22645	; 0x5875
    4654:	bb0d0000 	bllt	34465c <__bss_end__+0x33a5fc>
    4658:	05000000 	streq	r0, [r0, #-0]
    465c:	03051176 	movweq	r1, #20854	; 0x5176
    4660:	0d000000 	stceq	0, cr0, [r0, #-0]
    4664:	0000001b 	andeq	r0, r0, fp, lsl r0
    4668:	25067705 	strcs	r7, [r6, #-1797]	; 0xfffff8fb
    466c:	04000000 	streq	r0, [r0], #-0
    4670:	4f040500 	svcmi	0x00040500
    4674:	10000000 	andne	r0, r0, r0
    4678:	000003b8 			; <UNDEFINED> instruction: 0x000003b8
    467c:	08b50568 	ldmeq	r5!, {r3, r5, r6, r8, sl}
    4680:	0000044e 	andeq	r0, r0, lr, asr #8
    4684:	00705f11 	rsbseq	r5, r0, r1, lsl pc
    4688:	0512b605 	ldreq	fp, [r2, #-1541]	; 0xfffff9fb
    468c:	00000003 	andeq	r0, r0, r3
    4690:	00725f11 	rsbseq	r5, r2, r1, lsl pc
    4694:	2507b705 	strcs	fp, [r7, #-1797]	; 0xfffff8fb
    4698:	04000000 	streq	r0, [r0], #-0
    469c:	00775f11 	rsbseq	r5, r7, r1, lsl pc
    46a0:	2507b805 	strcs	fp, [r7, #-2053]	; 0xfffff7fb
    46a4:	08000000 	stmdaeq	r0, {}	; <UNPREDICTABLE>
    46a8:	00011f0d 	andeq	r1, r1, sp, lsl #30
    46ac:	09b90500 	ldmibeq	r9!, {r8, sl}
    46b0:	0000003a 	andeq	r0, r0, sl, lsr r0
    46b4:	02080d0c 	andeq	r0, r8, #12, 26	; 0x300
    46b8:	ba050000 	blt	1446c0 <__bss_end__+0x13a660>
    46bc:	00003a09 	andeq	r3, r0, r9, lsl #20
    46c0:	5f110e00 	svcpl	0x00110e00
    46c4:	05006662 	streq	r6, [r0, #-1634]	; 0xfffff99e
    46c8:	02dd11bb 	sbcseq	r1, sp, #-1073741778	; 0xc000002e
    46cc:	0d100000 	ldceq	0, cr0, [r0, #-0]
    46d0:	0000007b 	andeq	r0, r0, fp, ror r0
    46d4:	2507bc05 	strcs	fp, [r7, #-3077]	; 0xfffff3fb
    46d8:	18000000 	stmdane	r0, {}	; <UNPREDICTABLE>
    46dc:	00010f0d 	andeq	r0, r1, sp, lsl #30
    46e0:	0ac30500 	beq	ff0c5ae8 <__bss_end__+0xff0bba88>
    46e4:	00000115 	andeq	r0, r0, r5, lsl r1
    46e8:	0b3d0d1c 	bleq	f47b60 <__bss_end__+0xf3db00>
    46ec:	c5050000 	strgt	r0, [r5, #-0]
    46f0:	0005c01d 	andeq	ip, r5, sp, lsl r0
    46f4:	320d2000 	andcc	r2, sp, #0
    46f8:	05000006 	streq	r0, [r0, #-6]
    46fc:	05ea1dc7 	strbeq	r1, [sl, #3527]!	; 0xdc7
    4700:	0d240000 	stceq	0, cr0, [r4, #-0]
    4704:	0000043a 	andeq	r0, r0, sl, lsr r4
    4708:	0e0dca05 	vmlaeq.f32	s24, s26, s10
    470c:	28000006 	stmdacs	r0, {r1, r2}
    4710:	0005100d 	andeq	r1, r5, sp
    4714:	09cb0500 	stmibeq	fp, {r8, sl}^
    4718:	00000628 	andeq	r0, r0, r8, lsr #12
    471c:	755f112c 	ldrbvc	r1, [pc, #-300]	; 45f8 <_start-0x3a08>
    4720:	ce050062 	cdpgt	0, 0, cr0, cr5, cr2, {3}
    4724:	0002dd11 	andeq	sp, r2, r1, lsl sp
    4728:	5f113000 	svcpl	0x00113000
    472c:	05007075 	streq	r7, [r0, #-117]	; 0xffffff8b
    4730:	030512cf 	movweq	r1, #21199	; 0x52cf
    4734:	11380000 	teqne	r8, r0
    4738:	0072755f 	rsbseq	r7, r2, pc, asr r5
    473c:	2507d005 	strcs	sp, [r7, #-5]
    4740:	3c000000 	stccc	0, cr0, [r0], {-0}
    4744:	0000b50d 	andeq	fp, r0, sp, lsl #10
    4748:	11d30500 	bicsne	r0, r3, r0, lsl #10
    474c:	0000062e 	andeq	r0, r0, lr, lsr #12
    4750:	04e80d40 	strbteq	r0, [r8], #3392	; 0xd40
    4754:	d4050000 	strle	r0, [r5], #-0
    4758:	00063e11 	andeq	r3, r6, r1, lsl lr
    475c:	5f114300 	svcpl	0x00114300
    4760:	0500626c 	streq	r6, [r0, #-620]	; 0xfffffd94
    4764:	02dd11d7 	sbcseq	r1, sp, #-1073741771	; 0xc0000035
    4768:	0d440000 	stcleq	0, cr0, [r4, #-0]
    476c:	0000013d 	andeq	r0, r0, sp, lsr r1
    4770:	2507da05 	strcs	sp, [r7, #-2565]	; 0xfffff5fb
    4774:	4c000000 	stcmi	0, cr0, [r0], {-0}
    4778:	00014e0d 	andeq	r4, r1, sp, lsl #28
    477c:	0adb0500 	beq	ff6c5b84 <__bss_end__+0xff6bbb24>
    4780:	00000082 	andeq	r0, r0, r2, lsl #1
    4784:	0ade0d50 	beq	ff787ccc <__bss_end__+0xff77dc6c>
    4788:	de050000 	cdple	0, 0, cr0, cr5, cr0, {0}
    478c:	00046c12 	andeq	r6, r4, r2, lsl ip
    4790:	2c0d5400 	cfstrscs	mvf5, [sp], {-0}
    4794:	05000004 	streq	r0, [r0, #-4]
    4798:	01090ce2 	smlatteq	r9, r2, ip, r0
    479c:	0d580000 	ldcleq	0, cr0, [r8, #-0]
    47a0:	000003c0 	andeq	r0, r0, r0, asr #7
    47a4:	fd0ee405 	stc2	4, cr14, [lr, #-20]	; 0xffffffec
    47a8:	5c000000 	stcpl	0, cr0, [r0], {-0}
    47ac:	0002890d 	andeq	r8, r2, sp, lsl #18
    47b0:	09e50500 	stmibeq	r5!, {r8, sl}^
    47b4:	00000025 	andeq	r0, r0, r5, lsr #32
    47b8:	25150064 	ldrcs	r0, [r5, #-100]	; 0xffffff9c
    47bc:	6c000000 	stcvs	0, cr0, [r0], {-0}
    47c0:	16000004 	strne	r0, [r0], -r4
    47c4:	0000046c 	andeq	r0, r0, ip, ror #8
    47c8:	00011516 	andeq	r1, r1, r6, lsl r5
    47cc:	01171600 	tsteq	r7, r0, lsl #12
    47d0:	25160000 	ldrcs	r0, [r6, #-0]
    47d4:	00000000 	andeq	r0, r0, r0
    47d8:	04770405 	ldrbteq	r0, [r7], #-1029	; 0xfffffbfb
    47dc:	6c0f0000 	stcvs	0, cr0, [pc], {-0}
    47e0:	17000004 	strne	r0, [r0, -r4]
    47e4:	00000416 	andeq	r0, r0, r6, lsl r4
    47e8:	60050428 	andvs	r0, r5, r8, lsr #8
    47ec:	05c00802 	strbeq	r0, [r0, #2050]	; 0x802
    47f0:	7e180000 	cdpvc	0, 1, cr0, cr8, cr0, {0}
    47f4:	05000003 	streq	r0, [r0, #-3]
    47f8:	25070262 	strcs	r0, [r7, #-610]	; 0xfffffd9e
    47fc:	00000000 	andeq	r0, r0, r0
    4800:	00012e18 	andeq	r2, r1, r8, lsl lr
    4804:	02670500 	rsbeq	r0, r7, #0, 10
    4808:	00069a0b 	andeq	r9, r6, fp, lsl #20
    480c:	f8180400 			; <UNDEFINED> instruction: 0xf8180400
    4810:	05000001 	streq	r0, [r0, #-1]
    4814:	9a140267 	bls	5051b8 <__bss_end__+0x4fb158>
    4818:	08000006 	stmdaeq	r0, {r1, r2}
    481c:	0001a818 	andeq	sl, r1, r8, lsl r8
    4820:	02670500 	rsbeq	r0, r7, #0, 10
    4824:	00069a1e 	andeq	r9, r6, lr, lsl sl
    4828:	e1180c00 	tst	r8, r0, lsl #24
    482c:	05000003 	streq	r0, [r0, #-3]
    4830:	25080269 	strcs	r0, [r8, #-617]	; 0xfffffd97
    4834:	10000000 	andne	r0, r0, r0
    4838:	00002918 	andeq	r2, r0, r8, lsl r9
    483c:	026a0500 	rsbeq	r0, sl, #0, 10
    4840:	00089a08 	andeq	r9, r8, r8, lsl #20
    4844:	f5181400 			; <UNDEFINED> instruction: 0xf5181400
    4848:	05000003 	streq	r0, [r0, #-3]
    484c:	2507026d 	strcs	r0, [r7, #-621]	; 0xfffffd93
    4850:	30000000 	andcc	r0, r0, r0
    4854:	000a1a18 	andeq	r1, sl, r8, lsl sl
    4858:	026e0500 	rsbeq	r0, lr, #0, 10
    485c:	0008af16 	andeq	sl, r8, r6, lsl pc
    4860:	c0183400 	andsgt	r3, r8, r0, lsl #8
    4864:	05000002 	streq	r0, [r0, #-2]
    4868:	25070270 	strcs	r0, [r7, #-624]	; 0xfffffd90
    486c:	38000000 	stmdacc	r0, {}	; <UNPREDICTABLE>
    4870:	0003eb18 	andeq	lr, r3, r8, lsl fp
    4874:	02720500 	rsbseq	r0, r2, #0, 10
    4878:	0008c00a 	andeq	ip, r8, sl
    487c:	65183c00 	ldrvs	r3, [r8, #-3072]	; 0xfffff400
    4880:	05000002 	streq	r0, [r0, #-2]
    4884:	8f130275 	svchi	0x00130275
    4888:	40000001 	andmi	r0, r0, r1
    488c:	0001c718 	andeq	ip, r1, r8, lsl r7
    4890:	02760500 	rsbseq	r0, r6, #0, 10
    4894:	00002507 	andeq	r2, r0, r7, lsl #10
    4898:	2a184400 	bcs	6158a0 <__bss_end__+0x60b840>
    489c:	05000005 	streq	r0, [r0, #-5]
    48a0:	8f130277 	svchi	0x00130277
    48a4:	48000001 	stmdami	r0, {r0}
    48a8:	0002d218 	andeq	sp, r2, r8, lsl r2
    48ac:	02780500 	rsbseq	r0, r8, #0, 10
    48b0:	0008c614 	andeq	ip, r8, r4, lsl r6
    48b4:	00184c00 	andseq	r4, r8, r0, lsl #24
    48b8:	05000002 	streq	r0, [r0, #-2]
    48bc:	2507027b 	strcs	r0, [r7, #-635]	; 0xfffffd85
    48c0:	50000000 	andpl	r0, r0, r0
    48c4:	00014618 	andeq	r4, r1, r8, lsl r6
    48c8:	027c0500 	rsbseq	r0, ip, #0, 10
    48cc:	00011709 	andeq	r1, r1, r9, lsl #14
    48d0:	f8185400 			; <UNDEFINED> instruction: 0xf8185400
    48d4:	05000002 	streq	r0, [r0, #-2]
    48d8:	7507029f 	strvc	r0, [r7, #-671]	; 0xfffffd61
    48dc:	58000008 	stmdapl	r0, {r3}
    48e0:	0002b819 	andeq	fp, r2, r9, lsl r8
    48e4:	02a30500 	adceq	r0, r3, #0, 10
    48e8:	0002c013 	andeq	ip, r2, r3, lsl r0
    48ec:	19014800 	stmdbne	r1, {fp, lr}
    48f0:	00000243 	andeq	r0, r0, r3, asr #4
    48f4:	1202a405 	andne	sl, r2, #83886080	; 0x5000000
    48f8:	0000027d 	andeq	r0, r0, sp, ror r2
    48fc:	d619014c 	ldrle	r0, [r9], -ip, asr #2
    4900:	05000004 	streq	r0, [r0, #-4]
    4904:	d70c02a8 	strle	r0, [ip, -r8, lsr #5]
    4908:	dc000008 	stcle	0, cr0, [r0], {8}
    490c:	01171902 	tsteq	r7, r2, lsl #18
    4910:	ad050000 	stcge	0, cr0, [r5, #-0]
    4914:	065b1002 	ldrbeq	r1, [fp], -r2
    4918:	02e00000 	rsceq	r0, r0, #0
    491c:	0000fc19 	andeq	pc, r0, r9, lsl ip	; <UNPREDICTABLE>
    4920:	02af0500 	adceq	r0, pc, #0, 10
    4924:	0008e30a 	andeq	lr, r8, sl, lsl #6
    4928:	0002ec00 	andeq	lr, r2, r0, lsl #24
    492c:	044e0405 	strbeq	r0, [lr], #-1029	; 0xfffffbfb
    4930:	25150000 	ldrcs	r0, [r5, #-0]
    4934:	e4000000 	str	r0, [r0], #-0
    4938:	16000005 	strne	r0, [r0], -r5
    493c:	0000046c 	andeq	r0, r0, ip, ror #8
    4940:	00011516 	andeq	r1, r1, r6, lsl r5
    4944:	05e41600 	strbeq	r1, [r4, #1536]!	; 0x600
    4948:	25160000 	ldrcs	r0, [r6, #-0]
    494c:	00000000 	andeq	r0, r0, r0
    4950:	01240405 			; <UNDEFINED> instruction: 0x01240405
    4954:	04050000 	streq	r0, [r5], #-0
    4958:	000005c6 	andeq	r0, r0, r6, asr #11
    495c:	00008e15 	andeq	r8, r0, r5, lsl lr
    4960:	00060e00 	andeq	r0, r6, r0, lsl #28
    4964:	046c1600 	strbteq	r1, [ip], #-1536	; 0xfffffa00
    4968:	15160000 	ldrne	r0, [r6, #-0]
    496c:	16000001 	strne	r0, [r0], -r1
    4970:	0000008e 	andeq	r0, r0, lr, lsl #1
    4974:	00002516 	andeq	r2, r0, r6, lsl r5
    4978:	04050000 	streq	r0, [r5], #-0
    497c:	000005f0 	strdeq	r0, [r0], -r0	; <UNPREDICTABLE>
    4980:	00002515 	andeq	r2, r0, r5, lsl r5
    4984:	00062800 	andeq	r2, r6, r0, lsl #16
    4988:	046c1600 	strbteq	r1, [ip], #-1536	; 0xfffffa00
    498c:	15160000 	ldrne	r0, [r6, #-0]
    4990:	00000001 	andeq	r0, r0, r1
    4994:	06140405 	ldreq	r0, [r4], -r5, lsl #8
    4998:	4f0a0000 	svcmi	0x000a0000
    499c:	3e000000 	cdpcc	0, 0, cr0, cr0, cr0, {0}
    49a0:	0b000006 	bleq	49c0 <_start-0x3640>
    49a4:	0000002c 	andeq	r0, r0, ip, lsr #32
    49a8:	4f0a0002 	svcmi	0x000a0002
    49ac:	4e000000 	cdpmi	0, 0, cr0, cr0, cr0, {0}
    49b0:	0b000006 	bleq	49d0 <_start-0x3630>
    49b4:	0000002c 	andeq	r0, r0, ip, lsr #32
    49b8:	a6070000 	strge	r0, [r7], -r0
    49bc:	05000003 	streq	r0, [r0, #-3]
    49c0:	0b1a011f 	bleq	684e44 <__bss_end__+0x67ade4>
    49c4:	1a000003 	bne	49d8 <_start-0x3628>
    49c8:	000004bd 			; <UNDEFINED> instruction: 0x000004bd
    49cc:	0123050c 			; <UNDEFINED> instruction: 0x0123050c
    49d0:	00069408 	andeq	r9, r6, r8, lsl #8
    49d4:	03ce1800 	biceq	r1, lr, #0, 16
    49d8:	25050000 	strcs	r0, [r5, #-0]
    49dc:	06941101 	ldreq	r1, [r4], r1, lsl #2
    49e0:	18000000 	stmdane	r0, {}	; <UNPREDICTABLE>
    49e4:	0000021b 	andeq	r0, r0, fp, lsl r2
    49e8:	07012605 	streq	r2, [r1, -r5, lsl #12]
    49ec:	00000025 	andeq	r0, r0, r5, lsr #32
    49f0:	03a01804 	moveq	r1, #4, 16	; 0x40000
    49f4:	27050000 	strcs	r0, [r5, -r0]
    49f8:	069a0b01 	ldreq	r0, [sl], r1, lsl #22
    49fc:	00080000 	andeq	r0, r8, r0
    4a00:	065b0405 	ldrbeq	r0, [fp], -r5, lsl #8
    4a04:	04050000 	streq	r0, [r5], #-0
    4a08:	0000064e 	andeq	r0, r0, lr, asr #12
    4a0c:	0000211a 	andeq	r2, r0, sl, lsl r1
    4a10:	3f050e00 	svccc	0x00050e00
    4a14:	06d90801 	ldrbeq	r0, [r9], r1, lsl #16
    4a18:	1d180000 	ldcne	0, cr0, [r8, #-0]
    4a1c:	05000004 	streq	r0, [r0, #-4]
    4a20:	d9120140 	ldmdble	r2, {r6, r8}
    4a24:	00000006 	andeq	r0, r0, r6
    4a28:	00045118 	andeq	r5, r4, r8, lsl r1
    4a2c:	01410500 	cmpeq	r1, r0, lsl #10
    4a30:	0006d912 	andeq	sp, r6, r2, lsl r9
    4a34:	6d180600 	ldcvs	6, cr0, [r8, #-0]
    4a38:	05000004 	streq	r0, [r0, #-4]
    4a3c:	56120142 	ldrpl	r0, [r2], -r2, asr #2
    4a40:	0c000000 	stceq	0, cr0, [r0], {-0}
    4a44:	00560a00 	subseq	r0, r6, r0, lsl #20
    4a48:	06e90000 	strbteq	r0, [r9], r0
    4a4c:	2c0b0000 	stccs	0, cr0, [fp], {-0}
    4a50:	02000000 	andeq	r0, r0, #0
    4a54:	05d01b00 	ldrbeq	r1, [r0, #2816]	; 0xb00
    4a58:	fe070280 	cdp2	2, 0, cr0, cr7, cr0, {4}
    4a5c:	18000007 	stmdane	r0, {r0, r1, r2}
    4a60:	000004a1 	andeq	r0, r0, r1, lsr #9
    4a64:	18028205 	stmdane	r2, {r0, r2, r9, pc}
    4a68:	0000002c 	andeq	r0, r0, ip, lsr #32
    4a6c:	04571800 	ldrbeq	r1, [r7], #-2048	; 0xfffff800
    4a70:	83050000 	movwhi	r0, #20480	; 0x5000
    4a74:	01171202 	tsteq	r7, r2, lsl #4
    4a78:	18040000 	stmdane	r4, {}	; <UNPREDICTABLE>
    4a7c:	00000258 	andeq	r0, r0, r8, asr r2
    4a80:	10028405 	andne	r8, r2, r5, lsl #8
    4a84:	000007fe 	strdeq	r0, [r0], -lr
    4a88:	05011808 	streq	r1, [r1, #-2056]	; 0xfffff7f8
    4a8c:	85050000 	strhi	r0, [r5, #-0]
    4a90:	01a51702 			; <UNDEFINED> instruction: 0x01a51702
    4a94:	18240000 	stmdane	r4!, {}	; <UNPREDICTABLE>
    4a98:	000001b8 			; <UNDEFINED> instruction: 0x000001b8
    4a9c:	0f028605 	svceq	0x00028605
    4aa0:	00000025 	andeq	r0, r0, r5, lsr #32
    4aa4:	03c91848 	biceq	r1, r9, #72, 16	; 0x480000
    4aa8:	87050000 	strhi	r0, [r5, -r0]
    4aac:	00642c02 	rsbeq	r2, r4, r2, lsl #24
    4ab0:	18500000 	ldmdane	r0, {}^	; <UNPREDICTABLE>
    4ab4:	00000517 	andeq	r0, r0, r7, lsl r5
    4ab8:	1a028805 	bne	a6ad4 <__bss_end__+0x9ca74>
    4abc:	000006a0 	andeq	r0, r0, r0, lsr #13
    4ac0:	03d41858 	bicseq	r1, r4, #88, 16	; 0x580000
    4ac4:	89050000 	stmdbhi	r5, {}	; <UNPREDICTABLE>
    4ac8:	00fd1602 	rscseq	r1, sp, r2, lsl #12
    4acc:	18680000 	stmdane	r8!, {}^	; <UNPREDICTABLE>
    4ad0:	0000051c 	andeq	r0, r0, ip, lsl r5
    4ad4:	16028a05 	strne	r8, [r2], -r5, lsl #20
    4ad8:	000000fd 	strdeq	r0, [r0], -sp
    4adc:	02dc1870 	sbcseq	r1, ip, #112, 16	; 0x700000
    4ae0:	8b050000 	blhi	144ae8 <__bss_end__+0x13aa88>
    4ae4:	00fd1602 	rscseq	r1, sp, r2, lsl #12
    4ae8:	18780000 	ldmdane	r8!, {}^	; <UNPREDICTABLE>
    4aec:	000004cc 	andeq	r0, r0, ip, asr #9
    4af0:	10028c05 	andne	r8, r2, r5, lsl #24
    4af4:	0000080e 	andeq	r0, r0, lr, lsl #16
    4af8:	024c1880 	subeq	r1, ip, #128, 16	; 0x800000
    4afc:	8d050000 	stchi	0, cr0, [r5, #-0]
    4b00:	081e1002 	ldmdaeq	lr, {r1, ip}
    4b04:	18880000 	stmne	r8, {}	; <UNPREDICTABLE>
    4b08:	0000047a 	andeq	r0, r0, sl, ror r4
    4b0c:	0f028e05 	svceq	0x00028e05
    4b10:	00000025 	andeq	r0, r0, r5, lsr #32
    4b14:	017e18a0 	cmneq	lr, r0, lsr #17
    4b18:	8f050000 	svchi	0x00050000
    4b1c:	00fd1602 	rscseq	r1, sp, r2, lsl #12
    4b20:	18a40000 	stmiane	r4!, {}	; <UNPREDICTABLE>
    4b24:	0000008f 	andeq	r0, r0, pc, lsl #1
    4b28:	16029005 	strne	r9, [r2], -r5
    4b2c:	000000fd 	strdeq	r0, [r0], -sp
    4b30:	016d18ac 	cmneq	sp, ip, lsr #17
    4b34:	91050000 	mrsls	r0, (UNDEF: 5)
    4b38:	00fd1602 	rscseq	r1, sp, r2, lsl #12
    4b3c:	18b40000 	ldmne	r4!, {}	; <UNPREDICTABLE>
    4b40:	0000003c 	andeq	r0, r0, ip, lsr r0
    4b44:	16029205 	strne	r9, [r2], -r5, lsl #4
    4b48:	000000fd 	strdeq	r0, [r0], -sp
    4b4c:	004b18bc 	strheq	r1, [fp], #-140	; 0xffffff74
    4b50:	93050000 	movwls	r0, #20480	; 0x5000
    4b54:	00fd1602 	rscseq	r1, sp, r2, lsl #12
    4b58:	18c40000 	stmiane	r4, {}^	; <UNPREDICTABLE>
    4b5c:	0000037c 	andeq	r0, r0, ip, ror r3
    4b60:	08029405 	stmdaeq	r2, {r0, r2, sl, ip, pc}
    4b64:	00000025 	andeq	r0, r0, r5, lsr #32
    4b68:	1d0a00cc 	stcne	0, cr0, [sl, #-816]	; 0xfffffcd0
    4b6c:	0e000001 	cdpeq	0, 0, cr0, cr0, cr1, {0}
    4b70:	0b000008 	bleq	4b98 <_start-0x3468>
    4b74:	0000002c 	andeq	r0, r0, ip, lsr #32
    4b78:	1d0a0019 	stcne	0, cr0, [sl, #-100]	; 0xffffff9c
    4b7c:	1e000001 	cdpne	0, 0, cr0, cr0, cr1, {0}
    4b80:	0b000008 	bleq	4ba8 <_start-0x3458>
    4b84:	0000002c 	andeq	r0, r0, ip, lsr #32
    4b88:	1d0a0007 	stcne	0, cr0, [sl, #-28]	; 0xffffffe4
    4b8c:	2e000001 	cdpcs	0, 0, cr0, cr0, cr1, {0}
    4b90:	0b000008 	bleq	4bb8 <_start-0x3448>
    4b94:	0000002c 	andeq	r0, r0, ip, lsr #32
    4b98:	f01b0017 			; <UNDEFINED> instruction: 0xf01b0017
    4b9c:	07029905 	streq	r9, [r2, -r5, lsl #18]
    4ba0:	00000855 	andeq	r0, r0, r5, asr r8
    4ba4:	0002a818 	andeq	sl, r2, r8, lsl r8
    4ba8:	029c0500 	addseq	r0, ip, #0, 10
    4bac:	0008551b 	andeq	r5, r8, fp, lsl r5
    4bb0:	c3180000 	tstgt	r8, #0
    4bb4:	05000004 	streq	r0, [r0, #-4]
    4bb8:	6518029d 	ldrvs	r0, [r8, #-669]	; 0xfffffd63
    4bbc:	78000008 	stmdavc	r0, {r3}
    4bc0:	03050a00 	movweq	r0, #23040	; 0x5a00
    4bc4:	08650000 	stmdaeq	r5!, {}^	; <UNPREDICTABLE>
    4bc8:	2c0b0000 	stccs	0, cr0, [fp], {-0}
    4bcc:	1d000000 	stcne	0, cr0, [r0, #-0]
    4bd0:	002c0a00 	eoreq	r0, ip, r0, lsl #20
    4bd4:	08750000 	ldmdaeq	r5!, {}^	; <UNPREDICTABLE>
    4bd8:	2c0b0000 	stccs	0, cr0, [fp], {-0}
    4bdc:	1d000000 	stcne	0, cr0, [r0, #-0]
    4be0:	05f01c00 	ldrbeq	r1, [r0, #3072]!	; 0xc00
    4be4:	9a03027e 	bls	c55e4 <__bss_end__+0xbb584>
    4be8:	1d000008 	stcne	0, cr0, [r0, #-32]	; 0xffffffe0
    4bec:	00000416 	andeq	r0, r0, r6, lsl r4
    4bf0:	0b029505 	bleq	aa00c <__bss_end__+0x9ffac>
    4bf4:	000006e9 	andeq	r0, r0, r9, ror #13
    4bf8:	0004ee1d 	andeq	lr, r4, sp, lsl lr
    4bfc:	029e0500 	addseq	r0, lr, #0, 10
    4c00:	00082e0b 	andeq	r2, r8, fp, lsl #28
    4c04:	1d0a0000 	stcne	0, cr0, [sl, #-0]
    4c08:	aa000001 	bge	4c14 <_start-0x33ec>
    4c0c:	0b000008 	bleq	4c34 <_start-0x33cc>
    4c10:	0000002c 	andeq	r0, r0, ip, lsr #32
    4c14:	84060018 	strhi	r0, [r6], #-24	; 0xffffffe8
    4c18:	05000000 	streq	r0, [r0, #-0]
    4c1c:	0008aa04 	andeq	sl, r8, r4, lsl #20
    4c20:	08c01e00 	stmiaeq	r0, {r9, sl, fp, ip}^
    4c24:	6c160000 	ldcvs	0, cr0, [r6], {-0}
    4c28:	00000004 	andeq	r0, r0, r4
    4c2c:	08b50405 	ldmeq	r5!, {r0, r2, sl}
    4c30:	04050000 	streq	r0, [r5], #-0
    4c34:	0000018f 	andeq	r0, r0, pc, lsl #3
    4c38:	0008d71e 	andeq	sp, r8, lr, lsl r7
    4c3c:	00251600 	eoreq	r1, r5, r0, lsl #12
    4c40:	05000000 	streq	r0, [r0, #-0]
    4c44:	0008dd04 	andeq	sp, r8, r4, lsl #26
    4c48:	cc040500 	cfstr32gt	mvfx0, [r4], {-0}
    4c4c:	0a000008 	beq	4c74 <_start-0x338c>
    4c50:	0000064e 	andeq	r0, r0, lr, asr #12
    4c54:	000008f3 	strdeq	r0, [r0], -r3
    4c58:	00002c0b 	andeq	r2, r0, fp, lsl #24
    4c5c:	1f000200 	svcne	0x00000200
    4c60:	0000048e 	andeq	r0, r0, lr, lsl #9
    4c64:	17032e05 	strne	r2, [r3, -r5, lsl #28]
    4c68:	0000046c 	andeq	r0, r0, ip, ror #8
    4c6c:	0004871f 	andeq	r8, r4, pc, lsl r7
    4c70:	032f0500 			; <UNDEFINED> instruction: 0x032f0500
    4c74:	0004721d 	andeq	r7, r4, sp, lsl r2
    4c78:	00251500 	eoreq	r1, r5, r0, lsl #10
    4c7c:	091c0000 	ldmdbeq	ip, {}	; <UNPREDICTABLE>
    4c80:	25160000 	ldrcs	r0, [r6, #-0]
    4c84:	00000000 	andeq	r0, r0, r0
    4c88:	0001d120 	andeq	sp, r1, r0, lsr #2
    4c8c:	0e1d0600 	cfmsub32eq	mvax0, mvfx0, mvfx13, mvfx0
    4c90:	00000928 	andeq	r0, r0, r8, lsr #18
    4c94:	090d0405 	stmdbeq	sp, {r0, r2, sl}
    4c98:	25150000 	ldrcs	r0, [r5, #-0]
    4c9c:	3d000000 	stccc	0, cr0, [r0, #-0]
    4ca0:	16000009 	strne	r0, [r0], -r9
    4ca4:	000005e4 	andeq	r0, r0, r4, ror #11
    4ca8:	07812000 	streq	r2, [r1, r0]
    4cac:	22060000 	andcs	r0, r6, #0
    4cb0:	0009490e 	andeq	r4, r9, lr, lsl #18
    4cb4:	2e040500 	cfsh32cs	mvfx0, mvfx4, #0
    4cb8:	21000009 	tstcs	r0, r9
    4cbc:	0000091c 	andeq	r0, r0, ip, lsl r9
    4cc0:	05070601 	streq	r0, [r7, #-1537]	; 0xfffff9ff
    4cc4:	00969003 	addseq	r9, r6, r3
    4cc8:	07412200 	strbeq	r2, [r1, -r0, lsl #4]
    4ccc:	0b010000 	bleq	44cd4 <__bss_end__+0x3ac74>
    4cd0:	008b4406 	addeq	r4, fp, r6, lsl #8
    4cd4:	00001000 	andeq	r1, r0, r0
    4cd8:	819c0100 	orrshi	r0, ip, r0, lsl #2
    4cdc:	23000009 	movwcs	r0, #9
    4ce0:	01007066 	tsteq	r0, r6, rrx
    4ce4:	0928190b 	stmdbeq	r8!, {r0, r1, r3, r8, fp, ip}
    4ce8:	50010000 	andpl	r0, r1, r0
    4cec:	01e92400 	mvneq	r2, r0, lsl #8
    4cf0:	08010000 	stmdaeq	r1, {}	; <UNPREDICTABLE>
    4cf4:	008b2c06 	addeq	r2, fp, r6, lsl #24
    4cf8:	00001800 	andeq	r1, r0, r0, lsl #16
    4cfc:	259c0100 	ldrcs	r0, [ip, #256]	; 0x100
    4d00:	00000758 	andeq	r0, r0, r8, asr r7
    4d04:	250c0301 	strcs	r0, [ip, #-769]	; 0xfffffcff
    4d08:	18000000 	stmdane	r0, {}	; <UNPREDICTABLE>
    4d0c:	1400008b 	strne	r0, [r0], #-139	; 0xffffff75
    4d10:	01000000 	mrseq	r0, (UNDEF: 0)
    4d14:	0009d09c 	muleq	r9, ip, r0
    4d18:	00632600 	rsbeq	r2, r3, r0, lsl #12
    4d1c:	25210301 	strcs	r0, [r1, #-769]!	; 0xfffffcff
    4d20:	26000000 	strcs	r0, [r0], -r0
    4d24:	2200000b 	andcs	r0, r0, #11
    4d28:	2700000b 	strcs	r0, [r0, -fp]
    4d2c:	00008b24 	andeq	r8, r0, r4, lsr #22
    4d30:	000009d0 	ldrdeq	r0, [r0], -r0	; <UNPREDICTABLE>
    4d34:	02500128 	subseq	r0, r0, #40, 2
    4d38:	00000074 	andeq	r0, r0, r4, ror r0
    4d3c:	00074e29 	andeq	r4, r7, r9, lsr #28
    4d40:	00074e00 	andeq	r4, r7, r0, lsl #28
    4d44:	063c0600 	ldrteq	r0, [ip], -r0, lsl #12
    4d48:	00098300 	andeq	r8, r9, r0, lsl #6
    4d4c:	a9000400 	stmdbge	r0, {sl}
    4d50:	0400000e 	streq	r0, [r0], #-14
    4d54:	0002fd01 	andeq	pc, r2, r1, lsl #26
    4d58:	07860c00 	streq	r0, [r6, r0, lsl #24]
    4d5c:	06da0000 	ldrbeq	r0, [sl], r0
    4d60:	8b540000 	blhi	1504d68 <__bss_end__+0x14fad08>
    4d64:	00340000 	eorseq	r0, r4, r0
    4d68:	0e350000 	cdpeq	0, 3, cr0, cr5, cr0, {0}
    4d6c:	04020000 	streq	r0, [r2], #-0
    4d70:	746e6905 	strbtvc	r6, [lr], #-2309	; 0xfffff6fb
    4d74:	07040300 	streq	r0, [r4, -r0, lsl #6]
    4d78:	00000066 	andeq	r0, r0, r6, rrx
    4d7c:	ec060103 	stfs	f0, [r6], {3}
    4d80:	03000002 	movweq	r0, #2
    4d84:	03850502 	orreq	r0, r5, #8388608	; 0x800000
    4d88:	04030000 	streq	r0, [r3], #-0
    4d8c:	0000ac05 	andeq	sl, r0, r5, lsl #24
    4d90:	05080300 	streq	r0, [r8, #-768]	; 0xfffffd00
    4d94:	000000a7 	andeq	r0, r0, r7, lsr #1
    4d98:	ea080103 	b	2051ac <__bss_end__+0x1fb14c>
    4d9c:	03000002 	movweq	r0, #2
    4da0:	02220702 	eoreq	r0, r2, #524288	; 0x80000
    4da4:	04030000 	streq	r0, [r3], #-0
    4da8:	00006107 	andeq	r6, r0, r7, lsl #2
    4dac:	07080300 	streq	r0, [r8, -r0, lsl #6]
    4db0:	0000005c 	andeq	r0, r0, ip, asr r0
    4db4:	00027304 	andeq	r7, r2, r4, lsl #6
    4db8:	19220200 	stmdbne	r2!, {r9}
    4dbc:	00000077 	andeq	r0, r0, r7, ror r0
    4dc0:	007d0405 	rsbseq	r0, sp, r5, lsl #8
    4dc4:	2b060000 	blcs	184dcc <__bss_end__+0x17ad6c>
    4dc8:	04000004 	streq	r0, [r0], #-4
    4dcc:	000002cb 	andeq	r0, r0, fp, asr #5
    4dd0:	410e2c03 	tstmi	lr, r3, lsl #24
    4dd4:	04000000 	streq	r0, [r0], #-0
    4dd8:	00000440 	andeq	r0, r0, r0, asr #8
    4ddc:	410e7203 	tstmi	lr, r3, lsl #4
    4de0:	07000000 	streq	r0, [r0, -r0]
    4de4:	0000027b 	andeq	r0, r0, fp, ror r2
    4de8:	17015e04 	strne	r5, [r1, -r4, lsl #28]
    4dec:	0000002c 	andeq	r0, r0, ip, lsr #32
    4df0:	a6030408 	strge	r0, [r3], -r8, lsl #8
    4df4:	0000c903 	andeq	ip, r0, r3, lsl #18
    4df8:	026d0900 	rsbeq	r0, sp, #0, 18
    4dfc:	a8030000 	stmdage	r3, {}	; <UNPREDICTABLE>
    4e00:	00009a0c 	andeq	r9, r0, ip, lsl #20
    4e04:	01e20900 	mvneq	r0, r0, lsl #18
    4e08:	a9030000 	stmdbge	r3, {}	; <UNPREDICTABLE>
    4e0c:	0000c913 	andeq	ip, r0, r3, lsl r9
    4e10:	4f0a0000 	svcmi	0x000a0000
    4e14:	d9000000 	stmdble	r0, {}	; <UNPREDICTABLE>
    4e18:	0b000000 	bleq	4e20 <_start-0x31e0>
    4e1c:	0000002c 	andeq	r0, r0, ip, lsr #32
    4e20:	080c0003 	stmdaeq	ip, {r0, r1}
    4e24:	fd09a303 	stc2	3, cr10, [r9, #-12]
    4e28:	0d000000 	stceq	0, cr0, [r0, #-0]
    4e2c:	00000423 	andeq	r0, r0, r3, lsr #8
    4e30:	2507a503 	strcs	sl, [r7, #-1283]	; 0xfffffafd
    4e34:	00000000 	andeq	r0, r0, r0
    4e38:	0004320d 	andeq	r3, r4, sp, lsl #4
    4e3c:	05aa0300 	streq	r0, [sl, #768]!	; 0x300
    4e40:	000000a7 	andeq	r0, r0, r7, lsr #1
    4e44:	ad040004 	stcge	0, cr0, [r4, #-16]
    4e48:	03000003 	movweq	r0, #3
    4e4c:	00d903ab 	sbcseq	r0, r9, fp, lsr #7
    4e50:	9f040000 	svcls	0x00040000
    4e54:	03000001 	movweq	r0, #1
    4e58:	006b1baf 	rsbeq	r1, fp, pc, lsr #23
    4e5c:	040e0000 	streq	r0, [lr], #-0
    4e60:	011d0405 	tsteq	sp, r5, lsl #8
    4e64:	01030000 	mrseq	r0, (UNDEF: 3)
    4e68:	0002f308 	andeq	pc, r2, r8, lsl #6
    4e6c:	011d0f00 	tsteq	sp, r0, lsl #30
    4e70:	72040000 	andvc	r0, r4, #0
    4e74:	05000004 	streq	r0, [r0, #-4]
    4e78:	005d1916 	subseq	r1, sp, r6, lsl r9
    4e7c:	b0100000 	andslt	r0, r0, r0
    4e80:	18000001 	stmdane	r0, {r0}
    4e84:	8f082f05 	svchi	0x00082f05
    4e88:	0d000001 	stceq	0, cr0, [r0, #-4]
    4e8c:	000003ce 	andeq	r0, r0, lr, asr #7
    4e90:	8f133105 	svchi	0x00133105
    4e94:	00000001 	andeq	r0, r0, r1
    4e98:	006b5f11 	rsbeq	r5, fp, r1, lsl pc
    4e9c:	25073205 	strcs	r3, [r7, #-517]	; 0xfffffdfb
    4ea0:	04000000 	streq	r0, [r0], #-0
    4ea4:	00040e0d 	andeq	r0, r4, sp, lsl #28
    4ea8:	0b320500 	bleq	c862b0 <__bss_end__+0xc7c250>
    4eac:	00000025 	andeq	r0, r0, r5, lsr #32
    4eb0:	01990d08 	orrseq	r0, r9, r8, lsl #26
    4eb4:	32050000 	andcc	r0, r5, #0
    4eb8:	00002514 	andeq	r2, r0, r4, lsl r5
    4ebc:	ae0d0c00 	cdpge	12, 0, cr0, cr13, cr0, {0}
    4ec0:	05000004 	streq	r0, [r0, #-4]
    4ec4:	00251b32 	eoreq	r1, r5, r2, lsr fp
    4ec8:	11100000 	tstne	r0, r0
    4ecc:	0500785f 	streq	r7, [r0, #-2143]	; 0xfffff7a1
    4ed0:	01950b33 	orrseq	r0, r5, r3, lsr fp
    4ed4:	00140000 	andseq	r0, r4, r0
    4ed8:	01350405 	teqeq	r5, r5, lsl #8
    4edc:	290a0000 	stmdbcs	sl, {}	; <UNPREDICTABLE>
    4ee0:	a5000001 	strge	r0, [r0, #-1]
    4ee4:	0b000001 	bleq	4ef0 <_start-0x3110>
    4ee8:	0000002c 	andeq	r0, r0, ip, lsr #32
    4eec:	dd100000 	ldcle	0, cr0, [r0, #-0]
    4ef0:	24000001 	strcs	r0, [r0], #-1
    4ef4:	28083705 	stmdacs	r8, {r0, r2, r8, r9, sl, ip, sp}
    4ef8:	0d000002 	stceq	0, cr0, [r0, #-8]
    4efc:	0000009e 	muleq	r0, lr, r0
    4f00:	25093905 	strcs	r3, [r9, #-2309]	; 0xfffff6fb
    4f04:	00000000 	andeq	r0, r0, r0
    4f08:	0004480d 	andeq	r4, r4, sp, lsl #16
    4f0c:	093a0500 	ldmdbeq	sl!, {r8, sl}
    4f10:	00000025 	andeq	r0, r0, r5, lsr #32
    4f14:	00c10d04 	sbceq	r0, r1, r4, lsl #26
    4f18:	3b050000 	blcc	144f20 <__bss_end__+0x13aec0>
    4f1c:	00002509 	andeq	r2, r0, r9, lsl #10
    4f20:	2f0d0800 	svccs	0x000d0800
    4f24:	05000005 	streq	r0, [r0, #-5]
    4f28:	0025093c 	eoreq	r0, r5, ip, lsr r9
    4f2c:	0d0c0000 	stceq	0, cr0, [ip, #-0]
    4f30:	000002af 	andeq	r0, r0, pc, lsr #5
    4f34:	25093d05 	strcs	r3, [r9, #-3333]	; 0xfffff2fb
    4f38:	10000000 	andne	r0, r0, r0
    4f3c:	0002910d 	andeq	r9, r2, sp, lsl #2
    4f40:	093e0500 	ldmdbeq	lr!, {r8, sl}
    4f44:	00000025 	andeq	r0, r0, r5, lsr #32
    4f48:	04b30d14 	ldrteq	r0, [r3], #3348	; 0xd14
    4f4c:	3f050000 	svccc	0x00050000
    4f50:	00002509 	andeq	r2, r0, r9, lsl #10
    4f54:	8f0d1800 	svchi	0x000d1800
    4f58:	05000003 	streq	r0, [r0, #-3]
    4f5c:	00250940 	eoreq	r0, r5, r0, asr #18
    4f60:	0d1c0000 	ldceq	0, cr0, [ip, #-0]
    4f64:	000004f6 	strdeq	r0, [r0], -r6
    4f68:	25094105 	strcs	r4, [r9, #-261]	; 0xfffffefb
    4f6c:	20000000 	andcs	r0, r0, r0
    4f70:	01011200 	mrseq	r1, R9_usr
    4f74:	01080000 	mrseq	r0, (UNDEF: 8)
    4f78:	6d084a05 	vstrvs	s8, [r8, #-20]	; 0xffffffec
    4f7c:	0d000002 	stceq	0, cr0, [r0, #-8]
    4f80:	0000018c 	andeq	r0, r0, ip, lsl #3
    4f84:	6d0a4b05 	vstrvs	d4, [sl, #-20]	; 0xffffffec
    4f88:	00000002 	andeq	r0, r0, r2
    4f8c:	0000000d 	andeq	r0, r0, sp
    4f90:	094c0500 	stmdbeq	ip, {r8, sl}^
    4f94:	0000026d 	andeq	r0, r0, sp, ror #4
    4f98:	04641380 	strbteq	r1, [r4], #-896	; 0xfffffc80
    4f9c:	4e050000 	cdpmi	0, 0, cr0, cr5, cr0, {0}
    4fa0:	0001290a 	andeq	r2, r1, sl, lsl #18
    4fa4:	13010000 	movwne	r0, #4096	; 0x1000
    4fa8:	00000126 	andeq	r0, r0, r6, lsr #2
    4fac:	290a5105 	stmdbcs	sl, {r0, r2, r8, ip, lr}
    4fb0:	04000001 	streq	r0, [r0], #-1
    4fb4:	150a0001 	strne	r0, [sl, #-1]
    4fb8:	7d000001 	stcvc	0, cr0, [r0, #-4]
    4fbc:	0b000002 	bleq	4fcc <_start-0x3034>
    4fc0:	0000002c 	andeq	r0, r0, ip, lsr #32
    4fc4:	b812001f 	ldmdalt	r2, {r0, r1, r2, r3, r4}
    4fc8:	90000002 	andls	r0, r0, r2
    4fcc:	085d0501 	ldmdaeq	sp, {r0, r8, sl}^
    4fd0:	000002c0 	andeq	r0, r0, r0, asr #5
    4fd4:	0003ce0d 	andeq	ip, r3, sp, lsl #28
    4fd8:	125e0500 	subsne	r0, lr, #0, 10
    4fdc:	000002c0 	andeq	r0, r0, r0, asr #5
    4fe0:	03e60d00 	mvneq	r0, #0, 26
    4fe4:	5f050000 	svcpl	0x00050000
    4fe8:	00002506 	andeq	r2, r0, r6, lsl #10
    4fec:	940d0400 	strls	r0, [sp], #-1024	; 0xfffffc00
    4ff0:	05000001 	streq	r0, [r0, #-1]
    4ff4:	02c60961 	sbceq	r0, r6, #1589248	; 0x184000
    4ff8:	0d080000 	stceq	0, cr0, [r8, #-0]
    4ffc:	00000101 	andeq	r0, r0, r1, lsl #2
    5000:	281e6205 	ldmdacs	lr, {r0, r2, r9, sp, lr}
    5004:	88000002 	stmdahi	r0, {r1}
    5008:	7d040500 	cfstr32vc	mvfx0, [r4, #-0]
    500c:	0a000002 	beq	501c <_start-0x2fe4>
    5010:	000002d6 	ldrdeq	r0, [r0], -r6
    5014:	000002d6 	ldrdeq	r0, [r0], -r6
    5018:	00002c0b 	andeq	r2, r0, fp, lsl #24
    501c:	05001f00 	streq	r1, [r0, #-3840]	; 0xfffff100
    5020:	0002dc04 	andeq	sp, r2, r4, lsl #24
    5024:	99101400 	ldmdbls	r0, {sl, ip}
    5028:	08000003 	stmdaeq	r0, {r0, r1}
    502c:	05087505 	streq	r7, [r8, #-1285]	; 0xfffffafb
    5030:	0d000003 	stceq	0, cr0, [r0, #-12]
    5034:	000000bb 	strheq	r0, [r0], -fp
    5038:	05117605 	ldreq	r7, [r1, #-1541]	; 0xfffff9fb
    503c:	00000003 	andeq	r0, r0, r3
    5040:	00001b0d 	andeq	r1, r0, sp, lsl #22
    5044:	06770500 	ldrbteq	r0, [r7], -r0, lsl #10
    5048:	00000025 	andeq	r0, r0, r5, lsr #32
    504c:	04050004 	streq	r0, [r5], #-4
    5050:	0000004f 	andeq	r0, r0, pc, asr #32
    5054:	0003b810 	andeq	fp, r3, r0, lsl r8
    5058:	b5056800 	strlt	r6, [r5, #-2048]	; 0xfffff800
    505c:	00044e08 	andeq	r4, r4, r8, lsl #28
    5060:	705f1100 	subsvc	r1, pc, r0, lsl #2
    5064:	12b60500 	adcsne	r0, r6, #0, 10
    5068:	00000305 	andeq	r0, r0, r5, lsl #6
    506c:	725f1100 	subsvc	r1, pc, #0, 2
    5070:	07b70500 	ldreq	r0, [r7, r0, lsl #10]!
    5074:	00000025 	andeq	r0, r0, r5, lsr #32
    5078:	775f1104 	ldrbvc	r1, [pc, -r4, lsl #2]
    507c:	07b80500 	ldreq	r0, [r8, r0, lsl #10]!
    5080:	00000025 	andeq	r0, r0, r5, lsr #32
    5084:	011f0d08 	tsteq	pc, r8, lsl #26
    5088:	b9050000 	stmdblt	r5, {}	; <UNPREDICTABLE>
    508c:	00003a09 	andeq	r3, r0, r9, lsl #20
    5090:	080d0c00 	stmdaeq	sp, {sl, fp}
    5094:	05000002 	streq	r0, [r0, #-2]
    5098:	003a09ba 	ldrhteq	r0, [sl], -sl
    509c:	110e0000 	mrsne	r0, (UNDEF: 14)
    50a0:	0066625f 	rsbeq	r6, r6, pc, asr r2
    50a4:	dd11bb05 	vldrle	d11, [r1, #-20]	; 0xffffffec
    50a8:	10000002 	andne	r0, r0, r2
    50ac:	00007b0d 	andeq	r7, r0, sp, lsl #22
    50b0:	07bc0500 	ldreq	r0, [ip, r0, lsl #10]!
    50b4:	00000025 	andeq	r0, r0, r5, lsr #32
    50b8:	010f0d18 	tsteq	pc, r8, lsl sp	; <UNPREDICTABLE>
    50bc:	c3050000 	movwgt	r0, #20480	; 0x5000
    50c0:	0001150a 	andeq	r1, r1, sl, lsl #10
    50c4:	3d0d1c00 	stccc	12, cr1, [sp, #-0]
    50c8:	0500000b 	streq	r0, [r0, #-11]
    50cc:	05c01dc5 	strbeq	r1, [r0, #3525]	; 0xdc5
    50d0:	0d200000 	stceq	0, cr0, [r0, #-0]
    50d4:	00000632 	andeq	r0, r0, r2, lsr r6
    50d8:	ea1dc705 	b	776cf4 <__bss_end__+0x76cc94>
    50dc:	24000005 	strcs	r0, [r0], #-5
    50e0:	00043a0d 	andeq	r3, r4, sp, lsl #20
    50e4:	0dca0500 	cfstr64eq	mvdx0, [sl]
    50e8:	0000060e 	andeq	r0, r0, lr, lsl #12
    50ec:	05100d28 	ldreq	r0, [r0, #-3368]	; 0xfffff2d8
    50f0:	cb050000 	blgt	1450f8 <__bss_end__+0x13b098>
    50f4:	00062809 	andeq	r2, r6, r9, lsl #16
    50f8:	5f112c00 	svcpl	0x00112c00
    50fc:	05006275 	streq	r6, [r0, #-629]	; 0xfffffd8b
    5100:	02dd11ce 	sbcseq	r1, sp, #-2147483597	; 0x80000033
    5104:	11300000 	teqne	r0, r0
    5108:	0070755f 	rsbseq	r7, r0, pc, asr r5
    510c:	0512cf05 	ldreq	ip, [r2, #-3845]	; 0xfffff0fb
    5110:	38000003 	stmdacc	r0, {r0, r1}
    5114:	72755f11 	rsbsvc	r5, r5, #17, 30	; 0x44
    5118:	07d00500 	ldrbeq	r0, [r0, r0, lsl #10]
    511c:	00000025 	andeq	r0, r0, r5, lsr #32
    5120:	00b50d3c 	adcseq	r0, r5, ip, lsr sp
    5124:	d3050000 	movwle	r0, #20480	; 0x5000
    5128:	00062e11 	andeq	r2, r6, r1, lsl lr
    512c:	e80d4000 	stmda	sp, {lr}
    5130:	05000004 	streq	r0, [r0, #-4]
    5134:	063e11d4 			; <UNDEFINED> instruction: 0x063e11d4
    5138:	11430000 	mrsne	r0, (UNDEF: 67)
    513c:	00626c5f 	rsbeq	r6, r2, pc, asr ip
    5140:	dd11d705 	ldcle	7, cr13, [r1, #-20]	; 0xffffffec
    5144:	44000002 	strmi	r0, [r0], #-2
    5148:	00013d0d 	andeq	r3, r1, sp, lsl #26
    514c:	07da0500 	ldrbeq	r0, [sl, r0, lsl #10]
    5150:	00000025 	andeq	r0, r0, r5, lsr #32
    5154:	014e0d4c 	cmpeq	lr, ip, asr #26
    5158:	db050000 	blle	145160 <__bss_end__+0x13b100>
    515c:	0000820a 	andeq	r8, r0, sl, lsl #4
    5160:	de0d5000 	cdple	0, 0, cr5, cr13, cr0, {0}
    5164:	0500000a 	streq	r0, [r0, #-10]
    5168:	046c12de 	strbteq	r1, [ip], #-734	; 0xfffffd22
    516c:	0d540000 	ldcleq	0, cr0, [r4, #-0]
    5170:	0000042c 	andeq	r0, r0, ip, lsr #8
    5174:	090ce205 	stmdbeq	ip, {r0, r2, r9, sp, lr, pc}
    5178:	58000001 	stmdapl	r0, {r0}
    517c:	0003c00d 	andeq	ip, r3, sp
    5180:	0ee40500 	cdpeq	5, 14, cr0, cr4, cr0, {0}
    5184:	000000fd 	strdeq	r0, [r0], -sp
    5188:	02890d5c 	addeq	r0, r9, #92, 26	; 0x1700
    518c:	e5050000 	str	r0, [r5, #-0]
    5190:	00002509 	andeq	r2, r0, r9, lsl #10
    5194:	15006400 	strne	r6, [r0, #-1024]	; 0xfffffc00
    5198:	00000025 	andeq	r0, r0, r5, lsr #32
    519c:	0000046c 	andeq	r0, r0, ip, ror #8
    51a0:	00046c16 	andeq	r6, r4, r6, lsl ip
    51a4:	01151600 	tsteq	r5, r0, lsl #12
    51a8:	17160000 	ldrne	r0, [r6, -r0]
    51ac:	16000001 	strne	r0, [r0], -r1
    51b0:	00000025 	andeq	r0, r0, r5, lsr #32
    51b4:	77040500 	strvc	r0, [r4, -r0, lsl #10]
    51b8:	0f000004 	svceq	0x00000004
    51bc:	0000046c 	andeq	r0, r0, ip, ror #8
    51c0:	00041617 	andeq	r1, r4, r7, lsl r6
    51c4:	05042800 	streq	r2, [r4, #-2048]	; 0xfffff800
    51c8:	c0080260 	andgt	r0, r8, r0, ror #4
    51cc:	18000005 	stmdane	r0, {r0, r2}
    51d0:	0000037e 	andeq	r0, r0, lr, ror r3
    51d4:	07026205 	streq	r6, [r2, -r5, lsl #4]
    51d8:	00000025 	andeq	r0, r0, r5, lsr #32
    51dc:	012e1800 			; <UNDEFINED> instruction: 0x012e1800
    51e0:	67050000 	strvs	r0, [r5, -r0]
    51e4:	069a0b02 	ldreq	r0, [sl], r2, lsl #22
    51e8:	18040000 	stmdane	r4, {}	; <UNPREDICTABLE>
    51ec:	000001f8 	strdeq	r0, [r0], -r8
    51f0:	14026705 	strne	r6, [r2], #-1797	; 0xfffff8fb
    51f4:	0000069a 	muleq	r0, sl, r6
    51f8:	01a81808 			; <UNDEFINED> instruction: 0x01a81808
    51fc:	67050000 	strvs	r0, [r5, -r0]
    5200:	069a1e02 	ldreq	r1, [sl], r2, lsl #28
    5204:	180c0000 	stmdane	ip, {}	; <UNPREDICTABLE>
    5208:	000003e1 	andeq	r0, r0, r1, ror #7
    520c:	08026905 	stmdaeq	r2, {r0, r2, r8, fp, sp, lr}
    5210:	00000025 	andeq	r0, r0, r5, lsr #32
    5214:	00291810 	eoreq	r1, r9, r0, lsl r8
    5218:	6a050000 	bvs	145220 <__bss_end__+0x13b1c0>
    521c:	089a0802 	ldmeq	sl, {r1, fp}
    5220:	18140000 	ldmdane	r4, {}	; <UNPREDICTABLE>
    5224:	000003f5 	strdeq	r0, [r0], -r5
    5228:	07026d05 	streq	r6, [r2, -r5, lsl #26]
    522c:	00000025 	andeq	r0, r0, r5, lsr #32
    5230:	0a1a1830 	beq	68b2f8 <__bss_end__+0x681298>
    5234:	6e050000 	cdpvs	0, 0, cr0, cr5, cr0, {0}
    5238:	08af1602 	stmiaeq	pc!, {r1, r9, sl, ip}	; <UNPREDICTABLE>
    523c:	18340000 	ldmdane	r4!, {}	; <UNPREDICTABLE>
    5240:	000002c0 	andeq	r0, r0, r0, asr #5
    5244:	07027005 	streq	r7, [r2, -r5]
    5248:	00000025 	andeq	r0, r0, r5, lsr #32
    524c:	03eb1838 	mvneq	r1, #56, 16	; 0x380000
    5250:	72050000 	andvc	r0, r5, #0
    5254:	08c00a02 	stmiaeq	r0, {r1, r9, fp}^
    5258:	183c0000 	ldmdane	ip!, {}	; <UNPREDICTABLE>
    525c:	00000265 	andeq	r0, r0, r5, ror #4
    5260:	13027505 	movwne	r7, #9477	; 0x2505
    5264:	0000018f 	andeq	r0, r0, pc, lsl #3
    5268:	01c71840 	biceq	r1, r7, r0, asr #16
    526c:	76050000 	strvc	r0, [r5], -r0
    5270:	00250702 	eoreq	r0, r5, r2, lsl #14
    5274:	18440000 	stmdane	r4, {}^	; <UNPREDICTABLE>
    5278:	0000052a 	andeq	r0, r0, sl, lsr #10
    527c:	13027705 	movwne	r7, #9989	; 0x2705
    5280:	0000018f 	andeq	r0, r0, pc, lsl #3
    5284:	02d21848 	sbcseq	r1, r2, #72, 16	; 0x480000
    5288:	78050000 	stmdavc	r5, {}	; <UNPREDICTABLE>
    528c:	08c61402 	stmiaeq	r6, {r1, sl, ip}^
    5290:	184c0000 	stmdane	ip, {}^	; <UNPREDICTABLE>
    5294:	00000200 	andeq	r0, r0, r0, lsl #4
    5298:	07027b05 	streq	r7, [r2, -r5, lsl #22]
    529c:	00000025 	andeq	r0, r0, r5, lsr #32
    52a0:	01461850 	cmpeq	r6, r0, asr r8
    52a4:	7c050000 	stcvc	0, cr0, [r5], {-0}
    52a8:	01170902 	tsteq	r7, r2, lsl #18
    52ac:	18540000 	ldmdane	r4, {}^	; <UNPREDICTABLE>
    52b0:	000002f8 	strdeq	r0, [r0], -r8
    52b4:	07029f05 	streq	r9, [r2, -r5, lsl #30]
    52b8:	00000875 	andeq	r0, r0, r5, ror r8
    52bc:	02b81958 	adcseq	r1, r8, #88, 18	; 0x160000
    52c0:	a3050000 	movwge	r0, #20480	; 0x5000
    52c4:	02c01302 	sbceq	r1, r0, #134217728	; 0x8000000
    52c8:	01480000 	mrseq	r0, (UNDEF: 72)
    52cc:	00024319 	andeq	r4, r2, r9, lsl r3
    52d0:	02a40500 	adceq	r0, r4, #0, 10
    52d4:	00027d12 	andeq	r7, r2, r2, lsl sp
    52d8:	19014c00 	stmdbne	r1, {sl, fp, lr}
    52dc:	000004d6 	ldrdeq	r0, [r0], -r6
    52e0:	0c02a805 	stceq	8, cr10, [r2], {5}
    52e4:	000008d7 	ldrdeq	r0, [r0], -r7
    52e8:	171902dc 			; <UNDEFINED> instruction: 0x171902dc
    52ec:	05000001 	streq	r0, [r0, #-1]
    52f0:	5b1002ad 	blpl	405dac <__bss_end__+0x3fbd4c>
    52f4:	e0000006 	and	r0, r0, r6
    52f8:	00fc1902 	rscseq	r1, ip, r2, lsl #18
    52fc:	af050000 	svcge	0x00050000
    5300:	08e30a02 	stmiaeq	r3!, {r1, r9, fp}^
    5304:	02ec0000 	rsceq	r0, ip, #0
    5308:	4e040500 	cfsh32mi	mvfx0, mvfx4, #0
    530c:	15000004 	strne	r0, [r0, #-4]
    5310:	00000025 	andeq	r0, r0, r5, lsr #32
    5314:	000005e4 	andeq	r0, r0, r4, ror #11
    5318:	00046c16 	andeq	r6, r4, r6, lsl ip
    531c:	01151600 	tsteq	r5, r0, lsl #12
    5320:	e4160000 	ldr	r0, [r6], #-0
    5324:	16000005 	strne	r0, [r0], -r5
    5328:	00000025 	andeq	r0, r0, r5, lsr #32
    532c:	24040500 	strcs	r0, [r4], #-1280	; 0xfffffb00
    5330:	05000001 	streq	r0, [r0, #-1]
    5334:	0005c604 	andeq	ip, r5, r4, lsl #12
    5338:	008e1500 	addeq	r1, lr, r0, lsl #10
    533c:	060e0000 	streq	r0, [lr], -r0
    5340:	6c160000 	ldcvs	0, cr0, [r6], {-0}
    5344:	16000004 	strne	r0, [r0], -r4
    5348:	00000115 	andeq	r0, r0, r5, lsl r1
    534c:	00008e16 	andeq	r8, r0, r6, lsl lr
    5350:	00251600 	eoreq	r1, r5, r0, lsl #12
    5354:	05000000 	streq	r0, [r0, #-0]
    5358:	0005f004 	andeq	pc, r5, r4
    535c:	00251500 	eoreq	r1, r5, r0, lsl #10
    5360:	06280000 	strteq	r0, [r8], -r0
    5364:	6c160000 	ldcvs	0, cr0, [r6], {-0}
    5368:	16000004 	strne	r0, [r0], -r4
    536c:	00000115 	andeq	r0, r0, r5, lsl r1
    5370:	14040500 	strne	r0, [r4], #-1280	; 0xfffffb00
    5374:	0a000006 	beq	5394 <_start-0x2c6c>
    5378:	0000004f 	andeq	r0, r0, pc, asr #32
    537c:	0000063e 	andeq	r0, r0, lr, lsr r6
    5380:	00002c0b 	andeq	r2, r0, fp, lsl #24
    5384:	0a000200 	beq	5b8c <_start-0x2474>
    5388:	0000004f 	andeq	r0, r0, pc, asr #32
    538c:	0000064e 	andeq	r0, r0, lr, asr #12
    5390:	00002c0b 	andeq	r2, r0, fp, lsl #24
    5394:	07000000 	streq	r0, [r0, -r0]
    5398:	000003a6 	andeq	r0, r0, r6, lsr #7
    539c:	1a011f05 	bne	4cfb8 <__bss_end__+0x42f58>
    53a0:	0000030b 	andeq	r0, r0, fp, lsl #6
    53a4:	0004bd1a 	andeq	fp, r4, sl, lsl sp
    53a8:	23050c00 	movwcs	r0, #23552	; 0x5c00
    53ac:	06940801 	ldreq	r0, [r4], r1, lsl #16
    53b0:	ce180000 	cdpgt	0, 1, cr0, cr8, cr0, {0}
    53b4:	05000003 	streq	r0, [r0, #-3]
    53b8:	94110125 	ldrls	r0, [r1], #-293	; 0xfffffedb
    53bc:	00000006 	andeq	r0, r0, r6
    53c0:	00021b18 	andeq	r1, r2, r8, lsl fp
    53c4:	01260500 			; <UNDEFINED> instruction: 0x01260500
    53c8:	00002507 	andeq	r2, r0, r7, lsl #10
    53cc:	a0180400 	andsge	r0, r8, r0, lsl #8
    53d0:	05000003 	streq	r0, [r0, #-3]
    53d4:	9a0b0127 	bls	2c5878 <__bss_end__+0x2bb818>
    53d8:	08000006 	stmdaeq	r0, {r1, r2}
    53dc:	5b040500 	blpl	1067e4 <__bss_end__+0xfc784>
    53e0:	05000006 	streq	r0, [r0, #-6]
    53e4:	00064e04 	andeq	r4, r6, r4, lsl #28
    53e8:	00211a00 	eoreq	r1, r1, r0, lsl #20
    53ec:	050e0000 	streq	r0, [lr, #-0]
    53f0:	d908013f 	stmdble	r8, {r0, r1, r2, r3, r4, r5, r8}
    53f4:	18000006 	stmdane	r0, {r1, r2}
    53f8:	0000041d 	andeq	r0, r0, sp, lsl r4
    53fc:	12014005 	andne	r4, r1, #5
    5400:	000006d9 	ldrdeq	r0, [r0], -r9
    5404:	04511800 	ldrbeq	r1, [r1], #-2048	; 0xfffff800
    5408:	41050000 	mrsmi	r0, (UNDEF: 5)
    540c:	06d91201 	ldrbeq	r1, [r9], r1, lsl #4
    5410:	18060000 	stmdane	r6, {}	; <UNPREDICTABLE>
    5414:	0000046d 	andeq	r0, r0, sp, ror #8
    5418:	12014205 	andne	r4, r1, #1342177280	; 0x50000000
    541c:	00000056 	andeq	r0, r0, r6, asr r0
    5420:	560a000c 	strpl	r0, [sl], -ip
    5424:	e9000000 	stmdb	r0, {}	; <UNPREDICTABLE>
    5428:	0b000006 	bleq	5448 <_start-0x2bb8>
    542c:	0000002c 	andeq	r0, r0, ip, lsr #32
    5430:	d01b0002 	andsle	r0, fp, r2
    5434:	07028005 	streq	r8, [r2, -r5]
    5438:	000007fe 	strdeq	r0, [r0], -lr
    543c:	0004a118 	andeq	sl, r4, r8, lsl r1
    5440:	02820500 	addeq	r0, r2, #0, 10
    5444:	00002c18 	andeq	r2, r0, r8, lsl ip
    5448:	57180000 	ldrpl	r0, [r8, -r0]
    544c:	05000004 	streq	r0, [r0, #-4]
    5450:	17120283 	ldrne	r0, [r2, -r3, lsl #5]
    5454:	04000001 	streq	r0, [r0], #-1
    5458:	00025818 	andeq	r5, r2, r8, lsl r8
    545c:	02840500 	addeq	r0, r4, #0, 10
    5460:	0007fe10 	andeq	pc, r7, r0, lsl lr	; <UNPREDICTABLE>
    5464:	01180800 	tsteq	r8, r0, lsl #16
    5468:	05000005 	streq	r0, [r0, #-5]
    546c:	a5170285 	ldrge	r0, [r7, #-645]	; 0xfffffd7b
    5470:	24000001 	strcs	r0, [r0], #-1
    5474:	0001b818 	andeq	fp, r1, r8, lsl r8
    5478:	02860500 	addeq	r0, r6, #0, 10
    547c:	0000250f 	andeq	r2, r0, pc, lsl #10
    5480:	c9184800 	ldmdbgt	r8, {fp, lr}
    5484:	05000003 	streq	r0, [r0, #-3]
    5488:	642c0287 	strtvs	r0, [ip], #-647	; 0xfffffd79
    548c:	50000000 	andpl	r0, r0, r0
    5490:	00051718 	andeq	r1, r5, r8, lsl r7
    5494:	02880500 	addeq	r0, r8, #0, 10
    5498:	0006a01a 	andeq	sl, r6, sl, lsl r0
    549c:	d4185800 	ldrle	r5, [r8], #-2048	; 0xfffff800
    54a0:	05000003 	streq	r0, [r0, #-3]
    54a4:	fd160289 	ldc2	2, cr0, [r6, #-548]	; 0xfffffddc
    54a8:	68000000 	stmdavs	r0, {}	; <UNPREDICTABLE>
    54ac:	00051c18 	andeq	r1, r5, r8, lsl ip
    54b0:	028a0500 	addeq	r0, sl, #0, 10
    54b4:	0000fd16 	andeq	pc, r0, r6, lsl sp	; <UNPREDICTABLE>
    54b8:	dc187000 	ldcle	0, cr7, [r8], {-0}
    54bc:	05000002 	streq	r0, [r0, #-2]
    54c0:	fd16028b 	ldc2	2, cr0, [r6, #-556]	; 0xfffffdd4
    54c4:	78000000 	stmdavc	r0, {}	; <UNPREDICTABLE>
    54c8:	0004cc18 	andeq	ip, r4, r8, lsl ip
    54cc:	028c0500 	addeq	r0, ip, #0, 10
    54d0:	00080e10 	andeq	r0, r8, r0, lsl lr
    54d4:	4c188000 	ldcmi	0, cr8, [r8], {-0}
    54d8:	05000002 	streq	r0, [r0, #-2]
    54dc:	1e10028d 	cdpne	2, 1, cr0, cr0, cr13, {4}
    54e0:	88000008 	stmdahi	r0, {r3}
    54e4:	00047a18 	andeq	r7, r4, r8, lsl sl
    54e8:	028e0500 	addeq	r0, lr, #0, 10
    54ec:	0000250f 	andeq	r2, r0, pc, lsl #10
    54f0:	7e18a000 	cdpvc	0, 1, cr10, cr8, cr0, {0}
    54f4:	05000001 	streq	r0, [r0, #-1]
    54f8:	fd16028f 	ldc2	2, cr0, [r6, #-572]	; 0xfffffdc4
    54fc:	a4000000 	strge	r0, [r0], #-0
    5500:	00008f18 	andeq	r8, r0, r8, lsl pc
    5504:	02900500 	addseq	r0, r0, #0, 10
    5508:	0000fd16 	andeq	pc, r0, r6, lsl sp	; <UNPREDICTABLE>
    550c:	6d18ac00 	ldcvs	12, cr10, [r8, #-0]
    5510:	05000001 	streq	r0, [r0, #-1]
    5514:	fd160291 	ldc2	2, cr0, [r6, #-580]	; 0xfffffdbc
    5518:	b4000000 	strlt	r0, [r0], #-0
    551c:	00003c18 	andeq	r3, r0, r8, lsl ip
    5520:	02920500 	addseq	r0, r2, #0, 10
    5524:	0000fd16 	andeq	pc, r0, r6, lsl sp	; <UNPREDICTABLE>
    5528:	4b18bc00 	blmi	634530 <__bss_end__+0x62a4d0>
    552c:	05000000 	streq	r0, [r0, #-0]
    5530:	fd160293 	ldc2	2, cr0, [r6, #-588]	; 0xfffffdb4
    5534:	c4000000 	strgt	r0, [r0], #-0
    5538:	00037c18 	andeq	r7, r3, r8, lsl ip
    553c:	02940500 	addseq	r0, r4, #0, 10
    5540:	00002508 	andeq	r2, r0, r8, lsl #10
    5544:	0a00cc00 	beq	3854c <__bss_end__+0x2e4ec>
    5548:	0000011d 	andeq	r0, r0, sp, lsl r1
    554c:	0000080e 	andeq	r0, r0, lr, lsl #16
    5550:	00002c0b 	andeq	r2, r0, fp, lsl #24
    5554:	0a001900 	beq	b95c <__bss_end__+0x18fc>
    5558:	0000011d 	andeq	r0, r0, sp, lsl r1
    555c:	0000081e 	andeq	r0, r0, lr, lsl r8
    5560:	00002c0b 	andeq	r2, r0, fp, lsl #24
    5564:	0a000700 	beq	716c <_start-0xe94>
    5568:	0000011d 	andeq	r0, r0, sp, lsl r1
    556c:	0000082e 	andeq	r0, r0, lr, lsr #16
    5570:	00002c0b 	andeq	r2, r0, fp, lsl #24
    5574:	1b001700 	blne	b17c <__bss_end__+0x111c>
    5578:	029905f0 	addseq	r0, r9, #240, 10	; 0x3c000000
    557c:	00085507 	andeq	r5, r8, r7, lsl #10
    5580:	02a81800 	adceq	r1, r8, #0, 16
    5584:	9c050000 	stcls	0, cr0, [r5], {-0}
    5588:	08551b02 	ldmdaeq	r5, {r1, r8, r9, fp, ip}^
    558c:	18000000 	stmdane	r0, {}	; <UNPREDICTABLE>
    5590:	000004c3 	andeq	r0, r0, r3, asr #9
    5594:	18029d05 	stmdane	r2, {r0, r2, r8, sl, fp, ip, pc}
    5598:	00000865 	andeq	r0, r0, r5, ror #16
    559c:	050a0078 	streq	r0, [sl, #-120]	; 0xffffff88
    55a0:	65000003 	strvs	r0, [r0, #-3]
    55a4:	0b000008 	bleq	55cc <_start-0x2a34>
    55a8:	0000002c 	andeq	r0, r0, ip, lsr #32
    55ac:	2c0a001d 	stccs	0, cr0, [sl], {29}
    55b0:	75000000 	strvc	r0, [r0, #-0]
    55b4:	0b000008 	bleq	55dc <_start-0x2a24>
    55b8:	0000002c 	andeq	r0, r0, ip, lsr #32
    55bc:	f01c001d 			; <UNDEFINED> instruction: 0xf01c001d
    55c0:	03027e05 	movweq	r7, #11781	; 0x2e05
    55c4:	0000089a 	muleq	r0, sl, r8
    55c8:	0004161d 	andeq	r1, r4, sp, lsl r6
    55cc:	02950500 	addseq	r0, r5, #0, 10
    55d0:	0006e90b 	andeq	lr, r6, fp, lsl #18
    55d4:	04ee1d00 	strbteq	r1, [lr], #3328	; 0xd00
    55d8:	9e050000 	cdpls	0, 0, cr0, cr5, cr0, {0}
    55dc:	082e0b02 	stmdaeq	lr!, {r1, r8, r9, fp}
    55e0:	0a000000 	beq	55e8 <_start-0x2a18>
    55e4:	0000011d 	andeq	r0, r0, sp, lsl r1
    55e8:	000008aa 	andeq	r0, r0, sl, lsr #17
    55ec:	00002c0b 	andeq	r2, r0, fp, lsl #24
    55f0:	06001800 	streq	r1, [r0], -r0, lsl #16
    55f4:	00000084 	andeq	r0, r0, r4, lsl #1
    55f8:	08aa0405 	stmiaeq	sl!, {r0, r2, sl}
    55fc:	c01e0000 	andsgt	r0, lr, r0
    5600:	16000008 	strne	r0, [r0], -r8
    5604:	0000046c 	andeq	r0, r0, ip, ror #8
    5608:	b5040500 	strlt	r0, [r4, #-1280]	; 0xfffffb00
    560c:	05000008 	streq	r0, [r0, #-8]
    5610:	00018f04 	andeq	r8, r1, r4, lsl #30
    5614:	08d71e00 	ldmeq	r7, {r9, sl, fp, ip}^
    5618:	25160000 	ldrcs	r0, [r6, #-0]
    561c:	00000000 	andeq	r0, r0, r0
    5620:	08dd0405 	ldmeq	sp, {r0, r2, sl}^
    5624:	04050000 	streq	r0, [r5], #-0
    5628:	000008cc 	andeq	r0, r0, ip, asr #17
    562c:	00064e0a 	andeq	r4, r6, sl, lsl #28
    5630:	0008f300 	andeq	pc, r8, r0, lsl #6
    5634:	002c0b00 	eoreq	r0, ip, r0, lsl #22
    5638:	00020000 	andeq	r0, r2, r0
    563c:	00048e1f 	andeq	r8, r4, pc, lsl lr
    5640:	032e0500 			; <UNDEFINED> instruction: 0x032e0500
    5644:	00046c17 	andeq	r6, r4, r7, lsl ip
    5648:	04871f00 	streq	r1, [r7], #3840	; 0xf00
    564c:	2f050000 	svccs	0x00050000
    5650:	04721d03 	ldrbteq	r1, [r2], #-3331	; 0xfffff2fd
    5654:	25150000 	ldrcs	r0, [r5, #-0]
    5658:	1c000000 	stcne	0, cr0, [r0], {-0}
    565c:	16000009 	strne	r0, [r0], -r9
    5660:	00000025 	andeq	r0, r0, r5, lsr #32
    5664:	01d12000 	bicseq	r2, r1, r0
    5668:	1d060000 	stcne	0, cr0, [r6, #-0]
    566c:	0009280e 	andeq	r2, r9, lr, lsl #16
    5670:	0d040500 	cfstr32eq	mvfx0, [r4, #-0]
    5674:	15000009 	strne	r0, [r0, #-9]
    5678:	00000025 	andeq	r0, r0, r5, lsr #32
    567c:	0000093d 	andeq	r0, r0, sp, lsr r9
    5680:	0005e416 	andeq	lr, r5, r6, lsl r4
    5684:	81200000 			; <UNDEFINED> instruction: 0x81200000
    5688:	06000007 	streq	r0, [r0], -r7
    568c:	09490e22 	stmdbeq	r9, {r1, r5, r9, sl, fp}^
    5690:	04050000 	streq	r0, [r5], #-0
    5694:	0000092e 	andeq	r0, r0, lr, lsr #18
    5698:	00093d21 	andeq	r3, r9, r1, lsr #26
    569c:	070c0100 	streq	r0, [ip, -r0, lsl #2]
    56a0:	96940305 	ldrls	r0, [r4], r5, lsl #6
    56a4:	78220000 	stmdavc	r2!, {}	; <UNPREDICTABLE>
    56a8:	01000007 	tsteq	r0, r7
    56ac:	00250504 	eoreq	r0, r5, r4, lsl #10
    56b0:	8b540000 	blhi	15056b8 <__bss_end__+0x14fb658>
    56b4:	00340000 	eorseq	r0, r4, r0
    56b8:	9c010000 	stcls	0, cr0, [r1], {-0}
    56bc:	01007023 	tsteq	r0, r3, lsr #32
    56c0:	05e41f04 	strbeq	r1, [r4, #3844]!	; 0xf04
    56c4:	0b480000 	bleq	12056cc <__bss_end__+0x11fb66c>
    56c8:	0b440000 	bleq	11056d0 <__bss_end__+0x10fb670>
    56cc:	00000000 	andeq	r0, r0, r0
    56d0:	00000fa0 	andeq	r0, r0, r0, lsr #31
    56d4:	109d0004 	addsne	r0, sp, r4
    56d8:	01040000 	mrseq	r0, (UNDEF: 4)
    56dc:	000002fd 	strdeq	r0, [r0], -sp
    56e0:	0007920c 	andeq	r9, r7, ip, lsl #4
    56e4:	0006da00 	andeq	sp, r6, r0, lsl #20
    56e8:	008b8800 	addeq	r8, fp, r0, lsl #16
    56ec:	00052000 	andeq	r2, r5, r0
    56f0:	000f4b00 	andeq	r4, pc, r0, lsl #22
    56f4:	05040200 	streq	r0, [r4, #-512]	; 0xfffffe00
    56f8:	00746e69 	rsbseq	r6, r4, r9, ror #28
    56fc:	66070403 	strvs	r0, [r7], -r3, lsl #8
    5700:	03000000 	movweq	r0, #0
    5704:	02ec0601 	rsceq	r0, ip, #1048576	; 0x100000
    5708:	02030000 	andeq	r0, r3, #0
    570c:	00038505 	andeq	r8, r3, r5, lsl #10
    5710:	05040300 	streq	r0, [r4, #-768]	; 0xfffffd00
    5714:	000000ac 	andeq	r0, r0, ip, lsr #1
    5718:	a7050803 	strge	r0, [r5, -r3, lsl #16]
    571c:	03000000 	movweq	r0, #0
    5720:	02ea0801 	rsceq	r0, sl, #65536	; 0x10000
    5724:	02030000 	andeq	r0, r3, #0
    5728:	00022207 	andeq	r2, r2, r7, lsl #4
    572c:	07040300 	streq	r0, [r4, -r0, lsl #6]
    5730:	00000061 	andeq	r0, r0, r1, rrx
    5734:	5c070803 	stcpl	8, cr0, [r7], {3}
    5738:	04000000 	streq	r0, [r0], #-0
    573c:	00000273 	andeq	r0, r0, r3, ror r2
    5740:	77192202 	ldrvc	r2, [r9, -r2, lsl #4]
    5744:	05000000 	streq	r0, [r0, #-0]
    5748:	00007d04 	andeq	r7, r0, r4, lsl #26
    574c:	042b0600 	strteq	r0, [fp], #-1536	; 0xfffffa00
    5750:	cb040000 	blgt	105758 <__bss_end__+0xfb6f8>
    5754:	03000002 	movweq	r0, #2
    5758:	00410e2c 	subeq	r0, r1, ip, lsr #28
    575c:	40040000 	andmi	r0, r4, r0
    5760:	03000004 	movweq	r0, #4
    5764:	00410e72 	subeq	r0, r1, r2, ror lr
    5768:	7b070000 	blvc	1c5770 <__bss_end__+0x1bb710>
    576c:	04000002 	streq	r0, [r0], #-2
    5770:	2c17015e 	ldfcss	f0, [r7], {94}	; 0x5e
    5774:	08000000 	stmdaeq	r0, {}	; <UNPREDICTABLE>
    5778:	03a60304 			; <UNDEFINED> instruction: 0x03a60304
    577c:	000000c9 	andeq	r0, r0, r9, asr #1
    5780:	00026d09 	andeq	r6, r2, r9, lsl #26
    5784:	0ca80300 	stceq	3, cr0, [r8]
    5788:	0000009a 	muleq	r0, sl, r0
    578c:	0001e209 	andeq	lr, r1, r9, lsl #4
    5790:	13a90300 			; <UNDEFINED> instruction: 0x13a90300
    5794:	000000c9 	andeq	r0, r0, r9, asr #1
    5798:	004f0a00 	subeq	r0, pc, r0, lsl #20
    579c:	00d90000 	sbcseq	r0, r9, r0
    57a0:	2c0b0000 	stccs	0, cr0, [fp], {-0}
    57a4:	03000000 	movweq	r0, #0
    57a8:	03080c00 	movweq	r0, #35840	; 0x8c00
    57ac:	00fd09a3 	rscseq	r0, sp, r3, lsr #19
    57b0:	230d0000 	movwcs	r0, #53248	; 0xd000
    57b4:	03000004 	movweq	r0, #4
    57b8:	002507a5 	eoreq	r0, r5, r5, lsr #15
    57bc:	0d000000 	stceq	0, cr0, [r0, #-0]
    57c0:	00000432 	andeq	r0, r0, r2, lsr r4
    57c4:	a705aa03 	strge	sl, [r5, -r3, lsl #20]
    57c8:	04000000 	streq	r0, [r0], #-0
    57cc:	03ad0400 			; <UNDEFINED> instruction: 0x03ad0400
    57d0:	ab030000 	blge	c57d8 <__bss_end__+0xbb778>
    57d4:	0000d903 	andeq	sp, r0, r3, lsl #18
    57d8:	019f0400 	orrseq	r0, pc, r0, lsl #8
    57dc:	af030000 	svcge	0x00030000
    57e0:	00006b1b 	andeq	r6, r0, fp, lsl fp
    57e4:	05040e00 	streq	r0, [r4, #-3584]	; 0xfffff200
    57e8:	00011d04 	andeq	r1, r1, r4, lsl #26
    57ec:	08010300 	stmdaeq	r1, {r8, r9}
    57f0:	000002f3 	strdeq	r0, [r0], -r3
    57f4:	00011d0f 	andeq	r1, r1, pc, lsl #26
    57f8:	04720400 	ldrbteq	r0, [r2], #-1024	; 0xfffffc00
    57fc:	16050000 	strne	r0, [r5], -r0
    5800:	00005d19 	andeq	r5, r0, r9, lsl sp
    5804:	01b01000 	movseq	r1, r0
    5808:	05180000 	ldreq	r0, [r8, #-0]
    580c:	018f082f 	orreq	r0, pc, pc, lsr #16
    5810:	ce0d0000 	cdpgt	0, 0, cr0, cr13, cr0, {0}
    5814:	05000003 	streq	r0, [r0, #-3]
    5818:	018f1331 	orreq	r1, pc, r1, lsr r3	; <UNPREDICTABLE>
    581c:	11000000 	mrsne	r0, (UNDEF: 0)
    5820:	05006b5f 	streq	r6, [r0, #-2911]	; 0xfffff4a1
    5824:	00250732 	eoreq	r0, r5, r2, lsr r7
    5828:	0d040000 	stceq	0, cr0, [r4, #-0]
    582c:	0000040e 	andeq	r0, r0, lr, lsl #8
    5830:	250b3205 	strcs	r3, [fp, #-517]	; 0xfffffdfb
    5834:	08000000 	stmdaeq	r0, {}	; <UNPREDICTABLE>
    5838:	0001990d 	andeq	r9, r1, sp, lsl #18
    583c:	14320500 	ldrtne	r0, [r2], #-1280	; 0xfffffb00
    5840:	00000025 	andeq	r0, r0, r5, lsr #32
    5844:	04ae0d0c 	strteq	r0, [lr], #3340	; 0xd0c
    5848:	32050000 	andcc	r0, r5, #0
    584c:	0000251b 	andeq	r2, r0, fp, lsl r5
    5850:	5f111000 	svcpl	0x00111000
    5854:	33050078 	movwcc	r0, #20600	; 0x5078
    5858:	0001950b 	andeq	r9, r1, fp, lsl #10
    585c:	05001400 	streq	r1, [r0, #-1024]	; 0xfffffc00
    5860:	00013504 	andeq	r3, r1, r4, lsl #10
    5864:	01290a00 			; <UNDEFINED> instruction: 0x01290a00
    5868:	01a50000 			; <UNDEFINED> instruction: 0x01a50000
    586c:	2c0b0000 	stccs	0, cr0, [fp], {-0}
    5870:	00000000 	andeq	r0, r0, r0
    5874:	01dd1000 	bicseq	r1, sp, r0
    5878:	05240000 	streq	r0, [r4, #-0]!
    587c:	02280837 	eoreq	r0, r8, #3604480	; 0x370000
    5880:	9e0d0000 	cdpls	0, 0, cr0, cr13, cr0, {0}
    5884:	05000000 	streq	r0, [r0, #-0]
    5888:	00250939 	eoreq	r0, r5, r9, lsr r9
    588c:	0d000000 	stceq	0, cr0, [r0, #-0]
    5890:	00000448 	andeq	r0, r0, r8, asr #8
    5894:	25093a05 	strcs	r3, [r9, #-2565]	; 0xfffff5fb
    5898:	04000000 	streq	r0, [r0], #-0
    589c:	0000c10d 	andeq	ip, r0, sp, lsl #2
    58a0:	093b0500 	ldmdbeq	fp!, {r8, sl}
    58a4:	00000025 	andeq	r0, r0, r5, lsr #32
    58a8:	052f0d08 	streq	r0, [pc, #-3336]!	; 4ba8 <_start-0x3458>
    58ac:	3c050000 	stccc	0, cr0, [r5], {-0}
    58b0:	00002509 	andeq	r2, r0, r9, lsl #10
    58b4:	af0d0c00 	svcge	0x000d0c00
    58b8:	05000002 	streq	r0, [r0, #-2]
    58bc:	0025093d 	eoreq	r0, r5, sp, lsr r9
    58c0:	0d100000 	ldceq	0, cr0, [r0, #-0]
    58c4:	00000291 	muleq	r0, r1, r2
    58c8:	25093e05 	strcs	r3, [r9, #-3589]	; 0xfffff1fb
    58cc:	14000000 	strne	r0, [r0], #-0
    58d0:	0004b30d 	andeq	fp, r4, sp, lsl #6
    58d4:	093f0500 	ldmdbeq	pc!, {r8, sl}	; <UNPREDICTABLE>
    58d8:	00000025 	andeq	r0, r0, r5, lsr #32
    58dc:	038f0d18 	orreq	r0, pc, #24, 26	; 0x600
    58e0:	40050000 	andmi	r0, r5, r0
    58e4:	00002509 	andeq	r2, r0, r9, lsl #10
    58e8:	f60d1c00 			; <UNDEFINED> instruction: 0xf60d1c00
    58ec:	05000004 	streq	r0, [r0, #-4]
    58f0:	00250941 	eoreq	r0, r5, r1, asr #18
    58f4:	00200000 	eoreq	r0, r0, r0
    58f8:	00010112 	andeq	r0, r1, r2, lsl r1
    58fc:	05010800 	streq	r0, [r1, #-2048]	; 0xfffff800
    5900:	026d084a 	rsbeq	r0, sp, #4849664	; 0x4a0000
    5904:	8c0d0000 	stchi	0, cr0, [sp], {-0}
    5908:	05000001 	streq	r0, [r0, #-1]
    590c:	026d0a4b 	rsbeq	r0, sp, #307200	; 0x4b000
    5910:	0d000000 	stceq	0, cr0, [r0, #-0]
    5914:	00000000 	andeq	r0, r0, r0
    5918:	6d094c05 	stcvs	12, cr4, [r9, #-20]	; 0xffffffec
    591c:	80000002 	andhi	r0, r0, r2
    5920:	00046413 	andeq	r6, r4, r3, lsl r4
    5924:	0a4e0500 	beq	1386d2c <__bss_end__+0x137cccc>
    5928:	00000129 	andeq	r0, r0, r9, lsr #2
    592c:	26130100 	ldrcs	r0, [r3], -r0, lsl #2
    5930:	05000001 	streq	r0, [r0, #-1]
    5934:	01290a51 			; <UNDEFINED> instruction: 0x01290a51
    5938:	01040000 	mrseq	r0, (UNDEF: 4)
    593c:	01150a00 	tsteq	r5, r0, lsl #20
    5940:	027d0000 	rsbseq	r0, sp, #0
    5944:	2c0b0000 	stccs	0, cr0, [fp], {-0}
    5948:	1f000000 	svcne	0x00000000
    594c:	02b81200 	adcseq	r1, r8, #0, 4
    5950:	01900000 	orrseq	r0, r0, r0
    5954:	c0085d05 	andgt	r5, r8, r5, lsl #26
    5958:	0d000002 	stceq	0, cr0, [r0, #-8]
    595c:	000003ce 	andeq	r0, r0, lr, asr #7
    5960:	c0125e05 	andsgt	r5, r2, r5, lsl #28
    5964:	00000002 	andeq	r0, r0, r2
    5968:	0003e60d 	andeq	lr, r3, sp, lsl #12
    596c:	065f0500 	ldrbeq	r0, [pc], -r0, lsl #10
    5970:	00000025 	andeq	r0, r0, r5, lsr #32
    5974:	01940d04 	orrseq	r0, r4, r4, lsl #26
    5978:	61050000 	mrsvs	r0, (UNDEF: 5)
    597c:	0002c609 	andeq	ip, r2, r9, lsl #12
    5980:	010d0800 	tsteq	sp, r0, lsl #16
    5984:	05000001 	streq	r0, [r0, #-1]
    5988:	02281e62 	eoreq	r1, r8, #1568	; 0x620
    598c:	00880000 	addeq	r0, r8, r0
    5990:	027d0405 	rsbseq	r0, sp, #83886080	; 0x5000000
    5994:	d60a0000 	strle	r0, [sl], -r0
    5998:	d6000002 	strle	r0, [r0], -r2
    599c:	0b000002 	bleq	59ac <_start-0x2654>
    59a0:	0000002c 	andeq	r0, r0, ip, lsr #32
    59a4:	0405001f 	streq	r0, [r5], #-31	; 0xffffffe1
    59a8:	000002dc 	ldrdeq	r0, [r0], -ip
    59ac:	03991014 	orrseq	r1, r9, #20
    59b0:	05080000 	streq	r0, [r8, #-0]
    59b4:	03050875 	movweq	r0, #22645	; 0x5875
    59b8:	bb0d0000 	bllt	3459c0 <__bss_end__+0x33b960>
    59bc:	05000000 	streq	r0, [r0, #-0]
    59c0:	03051176 	movweq	r1, #20854	; 0x5176
    59c4:	0d000000 	stceq	0, cr0, [r0, #-0]
    59c8:	0000001b 	andeq	r0, r0, fp, lsl r0
    59cc:	25067705 	strcs	r7, [r6, #-1797]	; 0xfffff8fb
    59d0:	04000000 	streq	r0, [r0], #-0
    59d4:	4f040500 	svcmi	0x00040500
    59d8:	10000000 	andne	r0, r0, r0
    59dc:	000003b8 			; <UNDEFINED> instruction: 0x000003b8
    59e0:	08b50568 	ldmeq	r5!, {r3, r5, r6, r8, sl}
    59e4:	0000044e 	andeq	r0, r0, lr, asr #8
    59e8:	00705f11 	rsbseq	r5, r0, r1, lsl pc
    59ec:	0512b605 	ldreq	fp, [r2, #-1541]	; 0xfffff9fb
    59f0:	00000003 	andeq	r0, r0, r3
    59f4:	00725f11 	rsbseq	r5, r2, r1, lsl pc
    59f8:	2507b705 	strcs	fp, [r7, #-1797]	; 0xfffff8fb
    59fc:	04000000 	streq	r0, [r0], #-0
    5a00:	00775f11 	rsbseq	r5, r7, r1, lsl pc
    5a04:	2507b805 	strcs	fp, [r7, #-2053]	; 0xfffff7fb
    5a08:	08000000 	stmdaeq	r0, {}	; <UNPREDICTABLE>
    5a0c:	00011f0d 	andeq	r1, r1, sp, lsl #30
    5a10:	09b90500 	ldmibeq	r9!, {r8, sl}
    5a14:	0000003a 	andeq	r0, r0, sl, lsr r0
    5a18:	02080d0c 	andeq	r0, r8, #12, 26	; 0x300
    5a1c:	ba050000 	blt	145a24 <__bss_end__+0x13b9c4>
    5a20:	00003a09 	andeq	r3, r0, r9, lsl #20
    5a24:	5f110e00 	svcpl	0x00110e00
    5a28:	05006662 	streq	r6, [r0, #-1634]	; 0xfffff99e
    5a2c:	02dd11bb 	sbcseq	r1, sp, #-1073741778	; 0xc000002e
    5a30:	0d100000 	ldceq	0, cr0, [r0, #-0]
    5a34:	0000007b 	andeq	r0, r0, fp, ror r0
    5a38:	2507bc05 	strcs	fp, [r7, #-3077]	; 0xfffff3fb
    5a3c:	18000000 	stmdane	r0, {}	; <UNPREDICTABLE>
    5a40:	00010f0d 	andeq	r0, r1, sp, lsl #30
    5a44:	0ac30500 	beq	ff0c6e4c <__bss_end__+0xff0bcdec>
    5a48:	00000115 	andeq	r0, r0, r5, lsl r1
    5a4c:	0b3d0d1c 	bleq	f48ec4 <__bss_end__+0xf3ee64>
    5a50:	c5050000 	strgt	r0, [r5, #-0]
    5a54:	0005c01d 	andeq	ip, r5, sp, lsl r0
    5a58:	320d2000 	andcc	r2, sp, #0
    5a5c:	05000006 	streq	r0, [r0, #-6]
    5a60:	05ea1dc7 	strbeq	r1, [sl, #3527]!	; 0xdc7
    5a64:	0d240000 	stceq	0, cr0, [r4, #-0]
    5a68:	0000043a 	andeq	r0, r0, sl, lsr r4
    5a6c:	0e0dca05 	vmlaeq.f32	s24, s26, s10
    5a70:	28000006 	stmdacs	r0, {r1, r2}
    5a74:	0005100d 	andeq	r1, r5, sp
    5a78:	09cb0500 	stmibeq	fp, {r8, sl}^
    5a7c:	00000628 	andeq	r0, r0, r8, lsr #12
    5a80:	755f112c 	ldrbvc	r1, [pc, #-300]	; 595c <_start-0x26a4>
    5a84:	ce050062 	cdpgt	0, 0, cr0, cr5, cr2, {3}
    5a88:	0002dd11 	andeq	sp, r2, r1, lsl sp
    5a8c:	5f113000 	svcpl	0x00113000
    5a90:	05007075 	streq	r7, [r0, #-117]	; 0xffffff8b
    5a94:	030512cf 	movweq	r1, #21199	; 0x52cf
    5a98:	11380000 	teqne	r8, r0
    5a9c:	0072755f 	rsbseq	r7, r2, pc, asr r5
    5aa0:	2507d005 	strcs	sp, [r7, #-5]
    5aa4:	3c000000 	stccc	0, cr0, [r0], {-0}
    5aa8:	0000b50d 	andeq	fp, r0, sp, lsl #10
    5aac:	11d30500 	bicsne	r0, r3, r0, lsl #10
    5ab0:	0000062e 	andeq	r0, r0, lr, lsr #12
    5ab4:	04e80d40 	strbteq	r0, [r8], #3392	; 0xd40
    5ab8:	d4050000 	strle	r0, [r5], #-0
    5abc:	00063e11 	andeq	r3, r6, r1, lsl lr
    5ac0:	5f114300 	svcpl	0x00114300
    5ac4:	0500626c 	streq	r6, [r0, #-620]	; 0xfffffd94
    5ac8:	02dd11d7 	sbcseq	r1, sp, #-1073741771	; 0xc0000035
    5acc:	0d440000 	stcleq	0, cr0, [r4, #-0]
    5ad0:	0000013d 	andeq	r0, r0, sp, lsr r1
    5ad4:	2507da05 	strcs	sp, [r7, #-2565]	; 0xfffff5fb
    5ad8:	4c000000 	stcmi	0, cr0, [r0], {-0}
    5adc:	00014e0d 	andeq	r4, r1, sp, lsl #28
    5ae0:	0adb0500 	beq	ff6c6ee8 <__bss_end__+0xff6bce88>
    5ae4:	00000082 	andeq	r0, r0, r2, lsl #1
    5ae8:	0ade0d50 	beq	ff789030 <__bss_end__+0xff77efd0>
    5aec:	de050000 	cdple	0, 0, cr0, cr5, cr0, {0}
    5af0:	00046c12 	andeq	r6, r4, r2, lsl ip
    5af4:	2c0d5400 	cfstrscs	mvf5, [sp], {-0}
    5af8:	05000004 	streq	r0, [r0, #-4]
    5afc:	01090ce2 	smlatteq	r9, r2, ip, r0
    5b00:	0d580000 	ldcleq	0, cr0, [r8, #-0]
    5b04:	000003c0 	andeq	r0, r0, r0, asr #7
    5b08:	fd0ee405 	stc2	4, cr14, [lr, #-20]	; 0xffffffec
    5b0c:	5c000000 	stcpl	0, cr0, [r0], {-0}
    5b10:	0002890d 	andeq	r8, r2, sp, lsl #18
    5b14:	09e50500 	stmibeq	r5!, {r8, sl}^
    5b18:	00000025 	andeq	r0, r0, r5, lsr #32
    5b1c:	25150064 	ldrcs	r0, [r5, #-100]	; 0xffffff9c
    5b20:	6c000000 	stcvs	0, cr0, [r0], {-0}
    5b24:	16000004 	strne	r0, [r0], -r4
    5b28:	0000046c 	andeq	r0, r0, ip, ror #8
    5b2c:	00011516 	andeq	r1, r1, r6, lsl r5
    5b30:	01171600 	tsteq	r7, r0, lsl #12
    5b34:	25160000 	ldrcs	r0, [r6, #-0]
    5b38:	00000000 	andeq	r0, r0, r0
    5b3c:	04770405 	ldrbteq	r0, [r7], #-1029	; 0xfffffbfb
    5b40:	6c0f0000 	stcvs	0, cr0, [pc], {-0}
    5b44:	17000004 	strne	r0, [r0, -r4]
    5b48:	00000416 	andeq	r0, r0, r6, lsl r4
    5b4c:	60050428 	andvs	r0, r5, r8, lsr #8
    5b50:	05c00802 	strbeq	r0, [r0, #2050]	; 0x802
    5b54:	7e180000 	cdpvc	0, 1, cr0, cr8, cr0, {0}
    5b58:	05000003 	streq	r0, [r0, #-3]
    5b5c:	25070262 	strcs	r0, [r7, #-610]	; 0xfffffd9e
    5b60:	00000000 	andeq	r0, r0, r0
    5b64:	00012e18 	andeq	r2, r1, r8, lsl lr
    5b68:	02670500 	rsbeq	r0, r7, #0, 10
    5b6c:	00069a0b 	andeq	r9, r6, fp, lsl #20
    5b70:	f8180400 			; <UNDEFINED> instruction: 0xf8180400
    5b74:	05000001 	streq	r0, [r0, #-1]
    5b78:	9a140267 	bls	50651c <__bss_end__+0x4fc4bc>
    5b7c:	08000006 	stmdaeq	r0, {r1, r2}
    5b80:	0001a818 	andeq	sl, r1, r8, lsl r8
    5b84:	02670500 	rsbeq	r0, r7, #0, 10
    5b88:	00069a1e 	andeq	r9, r6, lr, lsl sl
    5b8c:	e1180c00 	tst	r8, r0, lsl #24
    5b90:	05000003 	streq	r0, [r0, #-3]
    5b94:	25080269 	strcs	r0, [r8, #-617]	; 0xfffffd97
    5b98:	10000000 	andne	r0, r0, r0
    5b9c:	00002918 	andeq	r2, r0, r8, lsl r9
    5ba0:	026a0500 	rsbeq	r0, sl, #0, 10
    5ba4:	00089a08 	andeq	r9, r8, r8, lsl #20
    5ba8:	f5181400 			; <UNDEFINED> instruction: 0xf5181400
    5bac:	05000003 	streq	r0, [r0, #-3]
    5bb0:	2507026d 	strcs	r0, [r7, #-621]	; 0xfffffd93
    5bb4:	30000000 	andcc	r0, r0, r0
    5bb8:	000a1a18 	andeq	r1, sl, r8, lsl sl
    5bbc:	026e0500 	rsbeq	r0, lr, #0, 10
    5bc0:	0008af16 	andeq	sl, r8, r6, lsl pc
    5bc4:	c0183400 	andsgt	r3, r8, r0, lsl #8
    5bc8:	05000002 	streq	r0, [r0, #-2]
    5bcc:	25070270 	strcs	r0, [r7, #-624]	; 0xfffffd90
    5bd0:	38000000 	stmdacc	r0, {}	; <UNPREDICTABLE>
    5bd4:	0003eb18 	andeq	lr, r3, r8, lsl fp
    5bd8:	02720500 	rsbseq	r0, r2, #0, 10
    5bdc:	0008c00a 	andeq	ip, r8, sl
    5be0:	65183c00 	ldrvs	r3, [r8, #-3072]	; 0xfffff400
    5be4:	05000002 	streq	r0, [r0, #-2]
    5be8:	8f130275 	svchi	0x00130275
    5bec:	40000001 	andmi	r0, r0, r1
    5bf0:	0001c718 	andeq	ip, r1, r8, lsl r7
    5bf4:	02760500 	rsbseq	r0, r6, #0, 10
    5bf8:	00002507 	andeq	r2, r0, r7, lsl #10
    5bfc:	2a184400 	bcs	616c04 <__bss_end__+0x60cba4>
    5c00:	05000005 	streq	r0, [r0, #-5]
    5c04:	8f130277 	svchi	0x00130277
    5c08:	48000001 	stmdami	r0, {r0}
    5c0c:	0002d218 	andeq	sp, r2, r8, lsl r2
    5c10:	02780500 	rsbseq	r0, r8, #0, 10
    5c14:	0008c614 	andeq	ip, r8, r4, lsl r6
    5c18:	00184c00 	andseq	r4, r8, r0, lsl #24
    5c1c:	05000002 	streq	r0, [r0, #-2]
    5c20:	2507027b 	strcs	r0, [r7, #-635]	; 0xfffffd85
    5c24:	50000000 	andpl	r0, r0, r0
    5c28:	00014618 	andeq	r4, r1, r8, lsl r6
    5c2c:	027c0500 	rsbseq	r0, ip, #0, 10
    5c30:	00011709 	andeq	r1, r1, r9, lsl #14
    5c34:	f8185400 			; <UNDEFINED> instruction: 0xf8185400
    5c38:	05000002 	streq	r0, [r0, #-2]
    5c3c:	7507029f 	strvc	r0, [r7, #-671]	; 0xfffffd61
    5c40:	58000008 	stmdapl	r0, {r3}
    5c44:	0002b819 	andeq	fp, r2, r9, lsl r8
    5c48:	02a30500 	adceq	r0, r3, #0, 10
    5c4c:	0002c013 	andeq	ip, r2, r3, lsl r0
    5c50:	19014800 	stmdbne	r1, {fp, lr}
    5c54:	00000243 	andeq	r0, r0, r3, asr #4
    5c58:	1202a405 	andne	sl, r2, #83886080	; 0x5000000
    5c5c:	0000027d 	andeq	r0, r0, sp, ror r2
    5c60:	d619014c 	ldrle	r0, [r9], -ip, asr #2
    5c64:	05000004 	streq	r0, [r0, #-4]
    5c68:	d70c02a8 	strle	r0, [ip, -r8, lsr #5]
    5c6c:	dc000008 	stcle	0, cr0, [r0], {8}
    5c70:	01171902 	tsteq	r7, r2, lsl #18
    5c74:	ad050000 	stcge	0, cr0, [r5, #-0]
    5c78:	065b1002 	ldrbeq	r1, [fp], -r2
    5c7c:	02e00000 	rsceq	r0, r0, #0
    5c80:	0000fc19 	andeq	pc, r0, r9, lsl ip	; <UNPREDICTABLE>
    5c84:	02af0500 	adceq	r0, pc, #0, 10
    5c88:	0008e30a 	andeq	lr, r8, sl, lsl #6
    5c8c:	0002ec00 	andeq	lr, r2, r0, lsl #24
    5c90:	044e0405 	strbeq	r0, [lr], #-1029	; 0xfffffbfb
    5c94:	25150000 	ldrcs	r0, [r5, #-0]
    5c98:	e4000000 	str	r0, [r0], #-0
    5c9c:	16000005 	strne	r0, [r0], -r5
    5ca0:	0000046c 	andeq	r0, r0, ip, ror #8
    5ca4:	00011516 	andeq	r1, r1, r6, lsl r5
    5ca8:	05e41600 	strbeq	r1, [r4, #1536]!	; 0x600
    5cac:	25160000 	ldrcs	r0, [r6, #-0]
    5cb0:	00000000 	andeq	r0, r0, r0
    5cb4:	01240405 			; <UNDEFINED> instruction: 0x01240405
    5cb8:	04050000 	streq	r0, [r5], #-0
    5cbc:	000005c6 	andeq	r0, r0, r6, asr #11
    5cc0:	00008e15 	andeq	r8, r0, r5, lsl lr
    5cc4:	00060e00 	andeq	r0, r6, r0, lsl #28
    5cc8:	046c1600 	strbteq	r1, [ip], #-1536	; 0xfffffa00
    5ccc:	15160000 	ldrne	r0, [r6, #-0]
    5cd0:	16000001 	strne	r0, [r0], -r1
    5cd4:	0000008e 	andeq	r0, r0, lr, lsl #1
    5cd8:	00002516 	andeq	r2, r0, r6, lsl r5
    5cdc:	04050000 	streq	r0, [r5], #-0
    5ce0:	000005f0 	strdeq	r0, [r0], -r0	; <UNPREDICTABLE>
    5ce4:	00002515 	andeq	r2, r0, r5, lsl r5
    5ce8:	00062800 	andeq	r2, r6, r0, lsl #16
    5cec:	046c1600 	strbteq	r1, [ip], #-1536	; 0xfffffa00
    5cf0:	15160000 	ldrne	r0, [r6, #-0]
    5cf4:	00000001 	andeq	r0, r0, r1
    5cf8:	06140405 	ldreq	r0, [r4], -r5, lsl #8
    5cfc:	4f0a0000 	svcmi	0x000a0000
    5d00:	3e000000 	cdpcc	0, 0, cr0, cr0, cr0, {0}
    5d04:	0b000006 	bleq	5d24 <_start-0x22dc>
    5d08:	0000002c 	andeq	r0, r0, ip, lsr #32
    5d0c:	4f0a0002 	svcmi	0x000a0002
    5d10:	4e000000 	cdpmi	0, 0, cr0, cr0, cr0, {0}
    5d14:	0b000006 	bleq	5d34 <_start-0x22cc>
    5d18:	0000002c 	andeq	r0, r0, ip, lsr #32
    5d1c:	a6070000 	strge	r0, [r7], -r0
    5d20:	05000003 	streq	r0, [r0, #-3]
    5d24:	0b1a011f 	bleq	6861a8 <__bss_end__+0x67c148>
    5d28:	1a000003 	bne	5d3c <_start-0x22c4>
    5d2c:	000004bd 			; <UNDEFINED> instruction: 0x000004bd
    5d30:	0123050c 			; <UNDEFINED> instruction: 0x0123050c
    5d34:	00069408 	andeq	r9, r6, r8, lsl #8
    5d38:	03ce1800 	biceq	r1, lr, #0, 16
    5d3c:	25050000 	strcs	r0, [r5, #-0]
    5d40:	06941101 	ldreq	r1, [r4], r1, lsl #2
    5d44:	18000000 	stmdane	r0, {}	; <UNPREDICTABLE>
    5d48:	0000021b 	andeq	r0, r0, fp, lsl r2
    5d4c:	07012605 	streq	r2, [r1, -r5, lsl #12]
    5d50:	00000025 	andeq	r0, r0, r5, lsr #32
    5d54:	03a01804 	moveq	r1, #4, 16	; 0x40000
    5d58:	27050000 	strcs	r0, [r5, -r0]
    5d5c:	069a0b01 	ldreq	r0, [sl], r1, lsl #22
    5d60:	00080000 	andeq	r0, r8, r0
    5d64:	065b0405 	ldrbeq	r0, [fp], -r5, lsl #8
    5d68:	04050000 	streq	r0, [r5], #-0
    5d6c:	0000064e 	andeq	r0, r0, lr, asr #12
    5d70:	0000211a 	andeq	r2, r0, sl, lsl r1
    5d74:	3f050e00 	svccc	0x00050e00
    5d78:	06d90801 	ldrbeq	r0, [r9], r1, lsl #16
    5d7c:	1d180000 	ldcne	0, cr0, [r8, #-0]
    5d80:	05000004 	streq	r0, [r0, #-4]
    5d84:	d9120140 	ldmdble	r2, {r6, r8}
    5d88:	00000006 	andeq	r0, r0, r6
    5d8c:	00045118 	andeq	r5, r4, r8, lsl r1
    5d90:	01410500 	cmpeq	r1, r0, lsl #10
    5d94:	0006d912 	andeq	sp, r6, r2, lsl r9
    5d98:	6d180600 	ldcvs	6, cr0, [r8, #-0]
    5d9c:	05000004 	streq	r0, [r0, #-4]
    5da0:	56120142 	ldrpl	r0, [r2], -r2, asr #2
    5da4:	0c000000 	stceq	0, cr0, [r0], {-0}
    5da8:	00560a00 	subseq	r0, r6, r0, lsl #20
    5dac:	06e90000 	strbteq	r0, [r9], r0
    5db0:	2c0b0000 	stccs	0, cr0, [fp], {-0}
    5db4:	02000000 	andeq	r0, r0, #0
    5db8:	05d01b00 	ldrbeq	r1, [r0, #2816]	; 0xb00
    5dbc:	fe070280 	cdp2	2, 0, cr0, cr7, cr0, {4}
    5dc0:	18000007 	stmdane	r0, {r0, r1, r2}
    5dc4:	000004a1 	andeq	r0, r0, r1, lsr #9
    5dc8:	18028205 	stmdane	r2, {r0, r2, r9, pc}
    5dcc:	0000002c 	andeq	r0, r0, ip, lsr #32
    5dd0:	04571800 	ldrbeq	r1, [r7], #-2048	; 0xfffff800
    5dd4:	83050000 	movwhi	r0, #20480	; 0x5000
    5dd8:	01171202 	tsteq	r7, r2, lsl #4
    5ddc:	18040000 	stmdane	r4, {}	; <UNPREDICTABLE>
    5de0:	00000258 	andeq	r0, r0, r8, asr r2
    5de4:	10028405 	andne	r8, r2, r5, lsl #8
    5de8:	000007fe 	strdeq	r0, [r0], -lr
    5dec:	05011808 	streq	r1, [r1, #-2056]	; 0xfffff7f8
    5df0:	85050000 	strhi	r0, [r5, #-0]
    5df4:	01a51702 			; <UNDEFINED> instruction: 0x01a51702
    5df8:	18240000 	stmdane	r4!, {}	; <UNPREDICTABLE>
    5dfc:	000001b8 			; <UNDEFINED> instruction: 0x000001b8
    5e00:	0f028605 	svceq	0x00028605
    5e04:	00000025 	andeq	r0, r0, r5, lsr #32
    5e08:	03c91848 	biceq	r1, r9, #72, 16	; 0x480000
    5e0c:	87050000 	strhi	r0, [r5, -r0]
    5e10:	00642c02 	rsbeq	r2, r4, r2, lsl #24
    5e14:	18500000 	ldmdane	r0, {}^	; <UNPREDICTABLE>
    5e18:	00000517 	andeq	r0, r0, r7, lsl r5
    5e1c:	1a028805 	bne	a7e38 <__bss_end__+0x9ddd8>
    5e20:	000006a0 	andeq	r0, r0, r0, lsr #13
    5e24:	03d41858 	bicseq	r1, r4, #88, 16	; 0x580000
    5e28:	89050000 	stmdbhi	r5, {}	; <UNPREDICTABLE>
    5e2c:	00fd1602 	rscseq	r1, sp, r2, lsl #12
    5e30:	18680000 	stmdane	r8!, {}^	; <UNPREDICTABLE>
    5e34:	0000051c 	andeq	r0, r0, ip, lsl r5
    5e38:	16028a05 	strne	r8, [r2], -r5, lsl #20
    5e3c:	000000fd 	strdeq	r0, [r0], -sp
    5e40:	02dc1870 	sbcseq	r1, ip, #112, 16	; 0x700000
    5e44:	8b050000 	blhi	145e4c <__bss_end__+0x13bdec>
    5e48:	00fd1602 	rscseq	r1, sp, r2, lsl #12
    5e4c:	18780000 	ldmdane	r8!, {}^	; <UNPREDICTABLE>
    5e50:	000004cc 	andeq	r0, r0, ip, asr #9
    5e54:	10028c05 	andne	r8, r2, r5, lsl #24
    5e58:	0000080e 	andeq	r0, r0, lr, lsl #16
    5e5c:	024c1880 	subeq	r1, ip, #128, 16	; 0x800000
    5e60:	8d050000 	stchi	0, cr0, [r5, #-0]
    5e64:	081e1002 	ldmdaeq	lr, {r1, ip}
    5e68:	18880000 	stmne	r8, {}	; <UNPREDICTABLE>
    5e6c:	0000047a 	andeq	r0, r0, sl, ror r4
    5e70:	0f028e05 	svceq	0x00028e05
    5e74:	00000025 	andeq	r0, r0, r5, lsr #32
    5e78:	017e18a0 	cmneq	lr, r0, lsr #17
    5e7c:	8f050000 	svchi	0x00050000
    5e80:	00fd1602 	rscseq	r1, sp, r2, lsl #12
    5e84:	18a40000 	stmiane	r4!, {}	; <UNPREDICTABLE>
    5e88:	0000008f 	andeq	r0, r0, pc, lsl #1
    5e8c:	16029005 	strne	r9, [r2], -r5
    5e90:	000000fd 	strdeq	r0, [r0], -sp
    5e94:	016d18ac 	cmneq	sp, ip, lsr #17
    5e98:	91050000 	mrsls	r0, (UNDEF: 5)
    5e9c:	00fd1602 	rscseq	r1, sp, r2, lsl #12
    5ea0:	18b40000 	ldmne	r4!, {}	; <UNPREDICTABLE>
    5ea4:	0000003c 	andeq	r0, r0, ip, lsr r0
    5ea8:	16029205 	strne	r9, [r2], -r5, lsl #4
    5eac:	000000fd 	strdeq	r0, [r0], -sp
    5eb0:	004b18bc 	strheq	r1, [fp], #-140	; 0xffffff74
    5eb4:	93050000 	movwls	r0, #20480	; 0x5000
    5eb8:	00fd1602 	rscseq	r1, sp, r2, lsl #12
    5ebc:	18c40000 	stmiane	r4, {}^	; <UNPREDICTABLE>
    5ec0:	0000037c 	andeq	r0, r0, ip, ror r3
    5ec4:	08029405 	stmdaeq	r2, {r0, r2, sl, ip, pc}
    5ec8:	00000025 	andeq	r0, r0, r5, lsr #32
    5ecc:	1d0a00cc 	stcne	0, cr0, [sl, #-816]	; 0xfffffcd0
    5ed0:	0e000001 	cdpeq	0, 0, cr0, cr0, cr1, {0}
    5ed4:	0b000008 	bleq	5efc <_start-0x2104>
    5ed8:	0000002c 	andeq	r0, r0, ip, lsr #32
    5edc:	1d0a0019 	stcne	0, cr0, [sl, #-100]	; 0xffffff9c
    5ee0:	1e000001 	cdpne	0, 0, cr0, cr0, cr1, {0}
    5ee4:	0b000008 	bleq	5f0c <_start-0x20f4>
    5ee8:	0000002c 	andeq	r0, r0, ip, lsr #32
    5eec:	1d0a0007 	stcne	0, cr0, [sl, #-28]	; 0xffffffe4
    5ef0:	2e000001 	cdpcs	0, 0, cr0, cr0, cr1, {0}
    5ef4:	0b000008 	bleq	5f1c <_start-0x20e4>
    5ef8:	0000002c 	andeq	r0, r0, ip, lsr #32
    5efc:	f01b0017 			; <UNDEFINED> instruction: 0xf01b0017
    5f00:	07029905 	streq	r9, [r2, -r5, lsl #18]
    5f04:	00000855 	andeq	r0, r0, r5, asr r8
    5f08:	0002a818 	andeq	sl, r2, r8, lsl r8
    5f0c:	029c0500 	addseq	r0, ip, #0, 10
    5f10:	0008551b 	andeq	r5, r8, fp, lsl r5
    5f14:	c3180000 	tstgt	r8, #0
    5f18:	05000004 	streq	r0, [r0, #-4]
    5f1c:	6518029d 	ldrvs	r0, [r8, #-669]	; 0xfffffd63
    5f20:	78000008 	stmdavc	r0, {r3}
    5f24:	03050a00 	movweq	r0, #23040	; 0x5a00
    5f28:	08650000 	stmdaeq	r5!, {}^	; <UNPREDICTABLE>
    5f2c:	2c0b0000 	stccs	0, cr0, [fp], {-0}
    5f30:	1d000000 	stcne	0, cr0, [r0, #-0]
    5f34:	002c0a00 	eoreq	r0, ip, r0, lsl #20
    5f38:	08750000 	ldmdaeq	r5!, {}^	; <UNPREDICTABLE>
    5f3c:	2c0b0000 	stccs	0, cr0, [fp], {-0}
    5f40:	1d000000 	stcne	0, cr0, [r0, #-0]
    5f44:	05f01c00 	ldrbeq	r1, [r0, #3072]!	; 0xc00
    5f48:	9a03027e 	bls	c6948 <__bss_end__+0xbc8e8>
    5f4c:	1d000008 	stcne	0, cr0, [r0, #-32]	; 0xffffffe0
    5f50:	00000416 	andeq	r0, r0, r6, lsl r4
    5f54:	0b029505 	bleq	ab370 <__bss_end__+0xa1310>
    5f58:	000006e9 	andeq	r0, r0, r9, ror #13
    5f5c:	0004ee1d 	andeq	lr, r4, sp, lsl lr
    5f60:	029e0500 	addseq	r0, lr, #0, 10
    5f64:	00082e0b 	andeq	r2, r8, fp, lsl #28
    5f68:	1d0a0000 	stcne	0, cr0, [sl, #-0]
    5f6c:	aa000001 	bge	5f78 <_start-0x2088>
    5f70:	0b000008 	bleq	5f98 <_start-0x2068>
    5f74:	0000002c 	andeq	r0, r0, ip, lsr #32
    5f78:	84060018 	strhi	r0, [r6], #-24	; 0xffffffe8
    5f7c:	05000000 	streq	r0, [r0, #-0]
    5f80:	0008aa04 	andeq	sl, r8, r4, lsl #20
    5f84:	08c01e00 	stmiaeq	r0, {r9, sl, fp, ip}^
    5f88:	6c160000 	ldcvs	0, cr0, [r6], {-0}
    5f8c:	00000004 	andeq	r0, r0, r4
    5f90:	08b50405 	ldmeq	r5!, {r0, r2, sl}
    5f94:	04050000 	streq	r0, [r5], #-0
    5f98:	0000018f 	andeq	r0, r0, pc, lsl #3
    5f9c:	0008d71e 	andeq	sp, r8, lr, lsl r7
    5fa0:	00251600 	eoreq	r1, r5, r0, lsl #12
    5fa4:	05000000 	streq	r0, [r0, #-0]
    5fa8:	0008dd04 	andeq	sp, r8, r4, lsl #26
    5fac:	cc040500 	cfstr32gt	mvfx0, [r4], {-0}
    5fb0:	0a000008 	beq	5fd8 <_start-0x2028>
    5fb4:	0000064e 	andeq	r0, r0, lr, asr #12
    5fb8:	000008f3 	strdeq	r0, [r0], -r3
    5fbc:	00002c0b 	andeq	r2, r0, fp, lsl #24
    5fc0:	1f000200 	svcne	0x00000200
    5fc4:	0000048e 	andeq	r0, r0, lr, lsl #9
    5fc8:	17032e05 	strne	r2, [r3, -r5, lsl #28]
    5fcc:	0000046c 	andeq	r0, r0, ip, ror #8
    5fd0:	0004871f 	andeq	r8, r4, pc, lsl r7
    5fd4:	032f0500 			; <UNDEFINED> instruction: 0x032f0500
    5fd8:	0004721d 	andeq	r7, r4, sp, lsl r2
    5fdc:	00251500 	eoreq	r1, r5, r0, lsl #10
    5fe0:	091c0000 	ldmdbeq	ip, {}	; <UNPREDICTABLE>
    5fe4:	25160000 	ldrcs	r0, [r6, #-0]
    5fe8:	00000000 	andeq	r0, r0, r0
    5fec:	0001d120 	andeq	sp, r1, r0, lsr #2
    5ff0:	0e1d0600 	cfmsub32eq	mvax0, mvfx0, mvfx13, mvfx0
    5ff4:	00000928 	andeq	r0, r0, r8, lsr #18
    5ff8:	090d0405 	stmdbeq	sp, {r0, r2, sl}
    5ffc:	25150000 	ldrcs	r0, [r5, #-0]
    6000:	3d000000 	stccc	0, cr0, [r0, #-0]
    6004:	16000009 	strne	r0, [r0], -r9
    6008:	000005e4 	andeq	r0, r0, r4, ror #11
    600c:	07812000 	streq	r2, [r1, r0]
    6010:	22060000 	andcs	r0, r6, #0
    6014:	0009490e 	andeq	r4, r9, lr, lsl #18
    6018:	2e040500 	cfsh32cs	mvfx0, mvfx4, #0
    601c:	04000009 	streq	r0, [r0], #-9
    6020:	0000071f 	andeq	r0, r0, pc, lsl r7
    6024:	5b1b2807 	blpl	6d0048 <__bss_end__+0x6c5fe8>
    6028:	21000009 	tstcs	r0, r9
    602c:	0000070b 	andeq	r0, r0, fp, lsl #14
    6030:	72000804 	andvc	r0, r0, #4, 16	; 0x40000
    6034:	22000009 	andcs	r0, r0, #9
    6038:	0000072e 	andeq	r0, r0, lr, lsr #14
    603c:	00000115 	andeq	r0, r0, r5, lsl r1
    6040:	0d040000 	stceq	0, cr0, [r4, #-0]
    6044:	07000007 	streq	r0, [r0, -r7]
    6048:	094f1863 	stmdbeq	pc, {r0, r1, r5, r6, fp, ip}^	; <UNPREDICTABLE>
    604c:	15230000 	strne	r0, [r3, #-0]!
    6050:	01000007 	tsteq	r0, r7
    6054:	0025057f 	eoreq	r0, r5, pc, ror r5
    6058:	8df80000 	ldclhi	0, cr0, [r8]
    605c:	02b00000 	adcseq	r0, r0, #0
    6060:	9c010000 	stcls	0, cr0, [r1], {-0}
    6064:	00000c0e 	andeq	r0, r0, lr, lsl #24
    6068:	66756224 	ldrbtvs	r6, [r5], -r4, lsr #4
    606c:	157f0100 	ldrbne	r0, [pc, #-256]!	; 5f74 <_start-0x208c>
    6070:	00000117 	andeq	r0, r0, r7, lsl r1
    6074:	00000b6c 	andeq	r0, r0, ip, ror #22
    6078:	00000b66 	andeq	r0, r0, r6, ror #22
    607c:	01006e24 	tsteq	r0, r4, lsr #28
    6080:	00251e7f 	eoreq	r1, r5, pc, ror lr
    6084:	0b9e0000 	bleq	fe78608c <__bss_end__+0xfe77c02c>
    6088:	0b980000 	bleq	fe606090 <__bss_end__+0xfe5fc030>
    608c:	66240000 	strtvs	r0, [r4], -r0
    6090:	0100746d 	tsteq	r0, sp, ror #8
    6094:	05e42d7f 	strbeq	r2, [r4, #3455]!	; 0xd7f
    6098:	0bd00000 	bleq	ff4060a0 <__bss_end__+0xff3fc040>
    609c:	0bcc0000 	bleq	ff3060a4 <__bss_end__+0xff2fc044>
    60a0:	0a250000 	beq	9460a8 <__bss_end__+0x93c048>
    60a4:	01000001 	tsteq	r0, r1
    60a8:	09723a7f 	ldmdbeq	r2!, {r0, r1, r2, r3, r4, r5, r6, r9, fp, ip, sp}^
    60ac:	91030000 	mrsls	r0, (UNDEF: 3)
    60b0:	70267edc 	ldrdvc	r7, [r6], -ip	; <UNPREDICTABLE>
    60b4:	08800100 	stmeq	r0, {r8}
    60b8:	00000117 	andeq	r0, r0, r7, lsl r1
    60bc:	00000c02 	andeq	r0, r0, r2, lsl #24
    60c0:	00000bee 	andeq	r0, r0, lr, ror #23
    60c4:	01006526 	tsteq	r0, r6, lsr #10
    60c8:	01171280 	tsteq	r7, r0, lsl #5
    60cc:	0c840000 	stceq	0, cr0, [r4], {0}
    60d0:	0c800000 	stceq	0, cr0, [r0], {0}
    60d4:	0e270000 	cdpeq	0, 2, cr0, cr7, cr0, {0}
    60d8:	1e000002 	cdpne	0, 0, cr0, cr0, cr2, {0}
    60dc:	0500000c 	streq	r0, [r0, #-12]
    60e0:	009b1803 	addseq	r1, fp, r3, lsl #16
    60e4:	8e5c2800 	cdphi	8, 5, cr2, cr12, cr0, {0}
    60e8:	02240000 	eoreq	r0, r4, #0
    60ec:	73260000 			; <UNDEFINED> instruction: 0x73260000
    60f0:	0a8d0100 	beq	fe3464f8 <__bss_end__+0xfe33c498>
    60f4:	00000117 	andeq	r0, r0, r7, lsl r1
    60f8:	00000cb5 			; <UNDEFINED> instruction: 0x00000cb5
    60fc:	00000cab 	andeq	r0, r0, fp, lsr #25
    6100:	6d756e29 	ldclvs	14, cr6, [r5, #-164]!	; 0xffffff5c
    6104:	0d8d0100 	stfeqs	f0, [sp]
    6108:	00000c23 	andeq	r0, r0, r3, lsr #24
    610c:	7ee09103 	urdvcs	f1, f3
    6110:	0007c32a 	andeq	ip, r7, sl, lsr #6
    6114:	0d8e0100 	stfeqs	f0, [lr]
    6118:	0000002c 	andeq	r0, r0, ip, lsr #32
    611c:	00000cfa 	strdeq	r0, [r0], -sl
    6120:	00000cf4 	strdeq	r0, [r0], -r4
    6124:	008e842b 	addeq	r8, lr, fp, lsr #8
    6128:	000eae00 	andeq	sl, lr, r0, lsl #28
    612c:	000a6800 	andeq	r6, sl, r0, lsl #16
    6130:	50012c00 	andpl	r2, r1, r0, lsl #24
    6134:	00007502 	andeq	r7, r0, r2, lsl #10
    6138:	008f042d 	addeq	r0, pc, sp, lsr #8
    613c:	000f7f00 	andeq	r7, pc, r0, lsl #30
    6140:	8f182b00 	svchi	0x00182b00
    6144:	0f8b0000 	svceq	0x008b0000
    6148:	0aa00000 	beq	fe806150 <__bss_end__+0xfe7fc0f0>
    614c:	012c0000 			; <UNDEFINED> instruction: 0x012c0000
    6150:	84030550 	strhi	r0, [r3], #-1360	; 0xfffffab0
    6154:	2c00009a 	stccs	0, cr0, [r0], {154}	; 0x9a
    6158:	03055101 	movweq	r5, #20737	; 0x5101
    615c:	00009a20 	andeq	r9, r0, r0, lsr #20
    6160:	0552012c 	ldrbeq	r0, [r2, #-300]	; 0xfffffed4
    6164:	009b1803 	addseq	r1, fp, r3, lsl #16
    6168:	53012c00 	movwpl	r2, #7168	; 0x1c00
    616c:	00940802 	addseq	r0, r4, r2, lsl #16
    6170:	008f1c2d 	addeq	r1, pc, sp, lsr #24
    6174:	000f9700 	andeq	r9, pc, r0, lsl #14
    6178:	8f202d00 	svchi	0x00202d00
    617c:	0f7f0000 	svceq	0x007f0000
    6180:	342b0000 	strtcc	r0, [fp], #-0
    6184:	8b00008f 	blhi	63c8 <_start-0x1c38>
    6188:	e100000f 	tst	r0, pc
    618c:	2c00000a 	stccs	0, cr0, [r0], {10}
    6190:	03055001 	movweq	r5, #20481	; 0x5001
    6194:	00009aa0 	andeq	r9, r0, r0, lsr #21
    6198:	0551012c 	ldrbeq	r0, [r1, #-300]	; 0xfffffed4
    619c:	009a2003 	addseq	r2, sl, r3
    61a0:	52012c00 	andpl	r2, r1, #0, 24
    61a4:	9b180305 	blls	606dc0 <__bss_end__+0x5fcd60>
    61a8:	012c0000 			; <UNDEFINED> instruction: 0x012c0000
    61ac:	9a080253 	bls	206b00 <__bss_end__+0x1fcaa0>
    61b0:	8f382d00 	svchi	0x00382d00
    61b4:	0f970000 	svceq	0x00970000
    61b8:	642b0000 	strtvs	r0, [fp], #-0
    61bc:	3300008f 	movwcc	r0, #143	; 0x8f
    61c0:	1700000c 	strne	r0, [r0, -ip]
    61c4:	2c00000b 	stccs	0, cr0, [r0], {11}
    61c8:	3a015001 	bcc	5a1d4 <__bss_end__+0x50174>
    61cc:	0351012c 	cmpeq	r1, #44, 2
    61d0:	2c7ed891 	ldclcs	8, cr13, [lr], #-580	; 0xfffffdbc
    61d4:	08025201 	stmdaeq	r2, {r0, r9, ip, lr}
    61d8:	7d022c80 	stcvc	12, cr2, [r2, #-512]	; 0xfffffe00
    61dc:	00760200 	rsbseq	r0, r6, r0, lsl #4
    61e0:	047d022c 	ldrbteq	r0, [sp], #-556	; 0xfffffdd4
    61e4:	2b003101 	blcs	125f0 <__bss_end__+0x8590>
    61e8:	00008fb4 			; <UNDEFINED> instruction: 0x00008fb4
    61ec:	00000c33 	andeq	r0, r0, r3, lsr ip
    61f0:	00000b44 	andeq	r0, r0, r4, asr #22
    61f4:	0150012c 	cmpeq	r0, ip, lsr #2
    61f8:	51012c3a 	tstpl	r1, sl, lsr ip
    61fc:	7ed89103 	atnvce	f1, f3
    6200:	0252012c 	subseq	r0, r2, #44, 2
    6204:	022c8008 	eoreq	r8, ip, #8
    6208:	7602007d 			; <UNDEFINED> instruction: 0x7602007d
    620c:	7d022c00 	stcvc	12, cr2, [r2, #-0]
    6210:	00300104 	eorseq	r0, r0, r4, lsl #2
    6214:	008fe42b 	addeq	lr, pc, fp, lsr #8
    6218:	000c3300 	andeq	r3, ip, r0, lsl #6
    621c:	000b7100 	andeq	r7, fp, r0, lsl #2
    6220:	50012c00 	andpl	r2, r1, r0, lsl #24
    6224:	012c4001 			; <UNDEFINED> instruction: 0x012c4001
    6228:	d8910351 	ldmle	r1, {r0, r4, r6, r8, r9}
    622c:	52012c7e 	andpl	r2, r1, #32256	; 0x7e00
    6230:	2c800802 	stccs	8, cr0, [r0], {2}
    6234:	02007d02 	andeq	r7, r0, #2, 26	; 0x80
    6238:	022c0076 	eoreq	r0, ip, #118	; 0x76
    623c:	3001047d 	andcc	r0, r1, sp, ror r4
    6240:	90142b00 	andsls	r2, r4, r0, lsl #22
    6244:	0c330000 	ldceq	0, cr0, [r3], #-0
    6248:	0b9e0000 	bleq	fe786250 <__bss_end__+0xfe77c1f0>
    624c:	012c0000 			; <UNDEFINED> instruction: 0x012c0000
    6250:	2c320150 	ldfcss	f0, [r2], #-320	; 0xfffffec0
    6254:	91035101 	tstls	r3, r1, lsl #2
    6258:	012c7ed8 	ldrdeq	r7, [ip, -r8]!
    625c:	80080252 	andhi	r0, r8, r2, asr r2
    6260:	007d022c 	rsbseq	r0, sp, ip, lsr #4
    6264:	2c007602 	stccs	6, cr7, [r0], {2}
    6268:	01047d02 	tsteq	r4, r2, lsl #26
    626c:	582b0030 	stmdapl	fp!, {r4, r5}
    6270:	33000090 	movwcc	r0, #144	; 0x90
    6274:	cb00000c 	blgt	62ac <_start-0x1d54>
    6278:	2c00000b 	stccs	0, cr0, [r0], {11}
    627c:	38015001 	stmdacc	r1, {r0, ip, lr}
    6280:	0351012c 	cmpeq	r1, #44, 2
    6284:	2c7ed891 	ldclcs	8, cr13, [lr], #-580	; 0xfffffdbc
    6288:	08025201 	stmdaeq	r2, {r0, r9, ip, lr}
    628c:	7d022c80 	stcvc	12, cr2, [r2, #-512]	; 0xfffffe00
    6290:	00760200 	rsbseq	r0, r6, r0, lsl #4
    6294:	047d022c 	ldrbteq	r0, [sp], #-556	; 0xfffffdd4
    6298:	2d003001 	stccs	0, cr3, [r0, #-4]
    629c:	00009060 	andeq	r9, r0, r0, rrx
    62a0:	00000f7f 	andeq	r0, r0, pc, ror pc
    62a4:	00907c2b 	addseq	r7, r0, fp, lsr #24
    62a8:	000f8b00 	andeq	r8, pc, r0, lsl #22
    62ac:	000c0300 	andeq	r0, ip, r0, lsl #6
    62b0:	50012c00 	andpl	r2, r1, r0, lsl #24
    62b4:	9ac80305 	bls	ff206ed0 <__bss_end__+0xff1fce70>
    62b8:	012c0000 			; <UNDEFINED> instruction: 0x012c0000
    62bc:	20030551 	andcs	r0, r3, r1, asr r5
    62c0:	2c00009a 	stccs	0, cr0, [r0], {154}	; 0x9a
    62c4:	03055201 	movweq	r5, #20993	; 0x5201
    62c8:	00009b18 	andeq	r9, r0, r8, lsl fp
    62cc:	0253012c 	subseq	r0, r3, #44, 2
    62d0:	2d00bb08 	vstrcs	d11, [r0, #-32]	; 0xffffffe0
    62d4:	00009080 	andeq	r9, r0, r0, lsl #1
    62d8:	00000f97 	muleq	r0, r7, pc	; <UNPREDICTABLE>
    62dc:	240a0000 	strcs	r0, [sl], #-0
    62e0:	1e000001 	cdpne	0, 0, cr0, cr0, cr1, {0}
    62e4:	0b00000c 	bleq	631c <_start-0x1ce4>
    62e8:	0000002c 	andeq	r0, r0, ip, lsr #32
    62ec:	0e0f0009 	cdpeq	0, 0, cr0, cr15, cr9, {0}
    62f0:	0a00000c 	beq	6328 <_start-0x1cd8>
    62f4:	0000011d 	andeq	r0, r0, sp, lsl r1
    62f8:	00000c33 	andeq	r0, r0, r3, lsr ip
    62fc:	00002c0b 	andeq	r2, r0, fp, lsl #24
    6300:	2e007f00 	cdpcs	15, 0, cr7, cr0, cr0, {0}
    6304:	000007e7 	andeq	r0, r0, r7, ror #15
    6308:	170e4701 	strne	r4, [lr, -r1, lsl #14]
    630c:	f8000001 			; <UNDEFINED> instruction: 0xf8000001
    6310:	ac00008b 	stcge	0, cr0, [r0], {139}	; 0x8b
    6314:	01000001 	tsteq	r0, r1
    6318:	000d999c 	muleq	sp, ip, r9
    631c:	00bc2f00 	adcseq	r2, ip, r0, lsl #30
    6320:	47010000 	strmi	r0, [r1, -r0]
    6324:	00002c1c 	andeq	r2, r0, ip, lsl ip
    6328:	000d2a00 	andeq	r2, sp, r0, lsl #20
    632c:	000d2400 	andeq	r2, sp, r0, lsl #8
    6330:	73642400 	cmnvc	r4, #0, 8
    6334:	47010074 	smlsdxmi	r1, r4, r0, r0
    6338:	00011728 	andeq	r1, r1, r8, lsr #14
    633c:	000d6800 	andeq	r6, sp, r0, lsl #16
    6340:	000d5800 	andeq	r5, sp, r0, lsl #16
    6344:	006e2400 	rsbeq	r2, lr, r0, lsl #8
    6348:	25314701 	ldrcs	r4, [r1, #-1793]!	; 0xfffff8ff
    634c:	cc000000 	stcgt	0, cr0, [r0], {-0}
    6350:	c800000d 	stmdagt	r0, {r0, r2, r3}
    6354:	2400000d 	strcs	r0, [r0], #-13
    6358:	006c6176 	rsbeq	r6, ip, r6, ror r1
    635c:	25384701 	ldrcs	r4, [r8, #-1793]!	; 0xfffff8ff
    6360:	f4000000 	vst4.8	{d0-d3}, [r0], r0
    6364:	ea00000d 	b	63a0 <_start-0x1c60>
    6368:	2f00000d 	svccs	0x0000000d
    636c:	000007c3 	andeq	r0, r0, r3, asr #15
    6370:	25414701 	strbcs	r4, [r1, #-1793]	; 0xfffff8ff
    6374:	3f000000 	svccc	0x00000000
    6378:	3900000e 	stmdbcc	r0, {r1, r2, r3}
    637c:	2500000e 	strcs	r0, [r0, #-14]
    6380:	000007b2 			; <UNDEFINED> instruction: 0x000007b2
    6384:	254c4701 	strbcs	r4, [ip, #-1793]	; 0xfffff8ff
    6388:	02000000 	andeq	r0, r0, #0
    638c:	62290491 	eorvs	r0, r9, #-1862270976	; 0x91000000
    6390:	01006675 	tsteq	r0, r5, ror r6
    6394:	0d99074c 	ldceq	7, cr0, [r9, #304]	; 0x130
    6398:	91030000 	mrsls	r0, (UNDEF: 3)
    639c:	70267fa8 	eorvc	r7, r6, r8, lsr #31
    63a0:	114c0100 	mrsne	r0, (UNDEF: 92)
    63a4:	00000117 	andeq	r0, r0, r7, lsl r1
    63a8:	00000e89 	andeq	r0, r0, r9, lsl #29
    63ac:	00000e69 	andeq	r0, r0, r9, ror #28
    63b0:	01007526 	tsteq	r0, r6, lsr #10
    63b4:	002c0b4d 	eoreq	r0, ip, sp, asr #22
    63b8:	0f5e0000 	svceq	0x005e0000
    63bc:	0f4c0000 	svceq	0x004c0000
    63c0:	0e270000 	cdpeq	0, 2, cr0, cr7, cr0, {0}
    63c4:	b9000002 	stmdblt	r0, {r1}
    63c8:	0500000d 	streq	r0, [r0, #-13]
    63cc:	009b0003 	addseq	r0, fp, r3
    63d0:	8c643000 	stclhi	0, cr3, [r4], #-0
    63d4:	00780000 	rsbseq	r0, r8, r0
    63d8:	0d230000 	stceq	0, cr0, [r3, #-0]
    63dc:	d12a0000 			; <UNDEFINED> instruction: 0xd12a0000
    63e0:	01000007 	tsteq	r0, r7
    63e4:	002c0d52 	eoreq	r0, ip, r2, asr sp
    63e8:	0fd40000 	svceq	0x00d40000
    63ec:	0fcc0000 	svceq	0x00cc0000
    63f0:	2b000000 	blcs	63f8 <_start-0x1c08>
    63f4:	00008d1c 	andeq	r8, r0, ip, lsl sp
    63f8:	00000e4b 	andeq	r0, r0, fp, asr #28
    63fc:	00000d37 	andeq	r0, r0, r7, lsr sp
    6400:	0251012c 	subseq	r0, r1, #44, 2
    6404:	2b00007d 	blcs	6600 <_start-0x1a00>
    6408:	00008d30 	andeq	r8, r0, r0, lsr sp
    640c:	00000dbe 			; <UNDEFINED> instruction: 0x00000dbe
    6410:	00000d57 	andeq	r0, r0, r7, asr sp
    6414:	0250012c 	subseq	r0, r0, #44, 2
    6418:	012c0075 			; <UNDEFINED> instruction: 0x012c0075
    641c:	00740251 	rsbseq	r0, r4, r1, asr r2
    6420:	0253012c 	subseq	r0, r3, #44, 2
    6424:	2d00007d 	stccs	0, cr0, [r0, #-500]	; 0xfffffe0c
    6428:	00008d70 	andeq	r8, r0, r0, ror sp
    642c:	00000f7f 	andeq	r0, r0, pc, ror pc
    6430:	008d842b 	addeq	r8, sp, fp, lsr #8
    6434:	000f8b00 	andeq	r8, pc, r0, lsl #22
    6438:	000d8f00 	andeq	r8, sp, r0, lsl #30
    643c:	50012c00 	andpl	r2, r1, r0, lsl #24
    6440:	9a340305 	bls	d0705c <__bss_end__+0xcfcffc>
    6444:	012c0000 			; <UNDEFINED> instruction: 0x012c0000
    6448:	20030551 	andcs	r0, r3, r1, asr r5
    644c:	2c00009a 	stccs	0, cr0, [r0], {154}	; 0x9a
    6450:	03055201 	movweq	r5, #20993	; 0x5201
    6454:	00009b00 	andeq	r9, r0, r0, lsl #22
    6458:	0253012c 	subseq	r0, r3, #44, 2
    645c:	2d007708 	stccs	7, cr7, [r0, #-32]	; 0xffffffe0
    6460:	00008d88 	andeq	r8, r0, r8, lsl #27
    6464:	00000f97 	muleq	r0, r7, pc	; <UNPREDICTABLE>
    6468:	011d0a00 	tsteq	sp, r0, lsl #20
    646c:	0da90000 	stceq	0, cr0, [r9]
    6470:	2c0b0000 	stccs	0, cr0, [fp], {-0}
    6474:	3f000000 	svccc	0x00000000
    6478:	01240a00 			; <UNDEFINED> instruction: 0x01240a00
    647c:	0db90000 	ldceq	0, cr0, [r9]
    6480:	2c0b0000 	stccs	0, cr0, [fp], {-0}
    6484:	04000000 	streq	r0, [r0], #-0
    6488:	0da90f00 	stceq	15, cr0, [r9]
    648c:	bb2e0000 	bllt	b86494 <__bss_end__+0xb7c434>
    6490:	01000007 	tsteq	r0, r7
    6494:	01170e37 	tsteq	r7, r7, lsr lr
    6498:	8bc00000 	blhi	ff0064a0 <__bss_end__+0xfeffc440>
    649c:	00380000 	eorseq	r0, r8, r0
    64a0:	9c010000 	stcls	0, cr0, [r1], {-0}
    64a4:	00000e4b 	andeq	r0, r0, fp, asr #28
    64a8:	74736424 	ldrbtvc	r6, [r3], #-1060	; 0xfffffbdc
    64ac:	1c370100 	ldfnes	f0, [r7], #-0
    64b0:	00000117 	andeq	r0, r0, r7, lsl r1
    64b4:	00001015 	andeq	r1, r0, r5, lsl r0
    64b8:	0000100b 	andeq	r1, r0, fp
    64bc:	01006e24 	tsteq	r0, r4, lsr #28
    64c0:	00252537 	eoreq	r2, r5, r7, lsr r5
    64c4:	105c0000 	subsne	r0, ip, r0
    64c8:	10580000 	subsne	r0, r8, r0
    64cc:	70240000 	eorvc	r0, r4, r0
    64d0:	2e370100 	rsfcss	f0, f7, f0
    64d4:	00000117 	andeq	r0, r0, r7, lsl r1
    64d8:	00001085 	andeq	r1, r0, r5, lsl #1
    64dc:	0000107d 	andeq	r1, r0, sp, ror r0
    64e0:	000c1e2f 	andeq	r1, ip, pc, lsr #28
    64e4:	37370100 	ldrcc	r0, [r7, -r0, lsl #2]!
    64e8:	00000117 	andeq	r0, r0, r7, lsl r1
    64ec:	000010bf 	strheq	r1, [r0], -pc	; <UNPREDICTABLE>
    64f0:	000010bb 	strheq	r1, [r0], -fp
    64f4:	6e656c26 	cdpvs	12, 6, cr6, cr5, cr6, {1}
    64f8:	06390100 	ldrteq	r0, [r9], -r0, lsl #2
    64fc:	00000025 	andeq	r0, r0, r5, lsr #32
    6500:	000010e5 	andeq	r1, r0, r5, ror #1
    6504:	000010dd 	ldrdeq	r1, [r0], -sp
    6508:	01007326 	tsteq	r0, r6, lsr #6
    650c:	0117083d 	tsteq	r7, sp, lsr r8
    6510:	11330000 	teqne	r3, r0
    6514:	11310000 	teqne	r1, r0
    6518:	31000000 	mrscc	r0, (UNDEF: 0)
    651c:	00646170 	rsbeq	r6, r4, r0, ror r1
    6520:	170e2e01 	strne	r2, [lr, -r1, lsl #28]
    6524:	9c000001 	stcls	0, cr0, [r0], {1}
    6528:	2400008b 	strcs	r0, [r0], #-139	; 0xffffff75
    652c:	01000000 	mrseq	r0, (UNDEF: 0)
    6530:	000eae9c 	muleq	lr, ip, lr
    6534:	00702400 	rsbseq	r2, r0, r0, lsl #8
    6538:	17182e01 	ldrne	r2, [r8, -r1, lsl #28]
    653c:	4c000001 	stcmi	0, cr0, [r0], {1}
    6540:	46000011 			; <UNDEFINED> instruction: 0x46000011
    6544:	2f000011 	svccs	0x00000011
    6548:	000000bc 	strheq	r0, [r0], -ip
    654c:	17222e01 	strne	r2, [r2, -r1, lsl #28]!
    6550:	7b000001 	blvc	655c <_start-0x1aa4>
    6554:	77000011 	smladvc	r0, r1, r0, r0
    6558:	25000011 	strcs	r0, [r0, #-17]	; 0xffffffef
    655c:	000007c3 	andeq	r0, r0, r3, asr #15
    6560:	252c2e01 	strcs	r2, [ip, #-3585]!	; 0xfffff1ff
    6564:	01000000 	mrseq	r0, (UNDEF: 0)
    6568:	656c2652 	strbvs	r2, [ip, #-1618]!	; 0xfffff9ae
    656c:	2f01006e 	svccs	0x0001006e
    6570:	00002506 	andeq	r2, r0, r6, lsl #10
    6574:	00119e00 	andseq	r9, r1, r0, lsl #28
    6578:	00119c00 	andseq	r9, r1, r0, lsl #24
    657c:	df2e0000 	svcle	0x002e0000
    6580:	01000007 	tsteq	r0, r7
    6584:	00250c27 	eoreq	r0, r5, r7, lsr #24
    6588:	8b880000 	blhi	fe206590 <__bss_end__+0xfe1fc530>
    658c:	00140000 	andseq	r0, r4, r0
    6590:	9c010000 	stcls	0, cr0, [r1], {-0}
    6594:	00000edb 	ldrdeq	r0, [r0], -fp
    6598:	01006324 	tsteq	r0, r4, lsr #6
    659c:	00251827 	eoreq	r1, r5, r7, lsr #16
    65a0:	11b70000 			; <UNDEFINED> instruction: 0x11b70000
    65a4:	11b10000 			; <UNDEFINED> instruction: 0x11b10000
    65a8:	32000000 	andcc	r0, r0, #0
    65ac:	000007a3 	andeq	r0, r0, r3, lsr #15
    65b0:	a4061f01 	strge	r1, [r6], #-3841	; 0xfffff0ff
    65b4:	5400008d 	strpl	r0, [r0], #-141	; 0xffffff73
    65b8:	01000000 	mrseq	r0, (UNDEF: 0)
    65bc:	000f6a9c 	muleq	pc, ip, sl	; <UNPREDICTABLE>
    65c0:	07d72f00 	ldrbeq	r2, [r7, r0, lsl #30]
    65c4:	1f010000 	svcne	0x00010000
    65c8:	0009281b 	andeq	r2, r9, fp, lsl r8
    65cc:	0011e900 	andseq	lr, r1, r0, lsl #18
    65d0:	0011e500 	andseq	lr, r1, r0, lsl #10
    65d4:	07c92f00 	strbeq	r2, [r9, r0, lsl #30]
    65d8:	1f010000 	svcne	0x00010000
    65dc:	00094930 	andeq	r4, r9, r0, lsr r9
    65e0:	00120e00 	andseq	r0, r2, r0, lsl #28
    65e4:	00120a00 	andseq	r0, r2, r0, lsl #20
    65e8:	020e2700 	andeq	r2, lr, #0, 14
    65ec:	0f7a0000 	svceq	0x007a0000
    65f0:	03050000 	movweq	r0, #20480	; 0x5000
    65f4:	00009b08 	andeq	r9, r0, r8, lsl #22
    65f8:	008dcc2d 	addeq	ip, sp, sp, lsr #24
    65fc:	000f7f00 	andeq	r7, pc, r0, lsl #30
    6600:	8de02b00 			; <UNDEFINED> instruction: 0x8de02b00
    6604:	0f8b0000 	svceq	0x008b0000
    6608:	0f600000 	svceq	0x00600000
    660c:	012c0000 			; <UNDEFINED> instruction: 0x012c0000
    6610:	6c030550 	cfstr32vs	mvfx0, [r3], {80}	; 0x50
    6614:	2c00009a 	stccs	0, cr0, [r0], {154}	; 0x9a
    6618:	03055101 	movweq	r5, #20737	; 0x5101
    661c:	00009a20 	andeq	r9, r0, r0, lsr #20
    6620:	0552012c 	ldrbeq	r0, [r2, #-300]	; 0xfffffed4
    6624:	009b0803 	addseq	r0, fp, r3, lsl #16
    6628:	53012c00 	movwpl	r2, #7168	; 0x1c00
    662c:	00200802 	eoreq	r0, r0, r2, lsl #16
    6630:	008de42d 	addeq	lr, sp, sp, lsr #8
    6634:	000f9700 	andeq	r9, pc, r0, lsl #14
    6638:	240a0000 	strcs	r0, [sl], #-0
    663c:	7a000001 	bvc	6648 <_start-0x19b8>
    6640:	0b00000f 	bleq	6684 <_start-0x197c>
    6644:	0000002c 	andeq	r0, r0, ip, lsr #32
    6648:	6a0f000e 	bvs	3c6688 <__bss_end__+0x3bc628>
    664c:	3300000f 	movwcc	r0, #15
    6650:	000001e9 	andeq	r0, r0, r9, ror #3
    6654:	000001e9 	andeq	r0, r0, r9, ror #3
    6658:	33061e06 	movwcc	r1, #28166	; 0x6e06
    665c:	00000718 	andeq	r0, r0, r8, lsl r7
    6660:	00000718 	andeq	r0, r0, r8, lsl r7
    6664:	33052906 	movwcc	r2, #22790	; 0x5906
    6668:	0000029b 	muleq	r0, fp, r2
    666c:	0000029b 	muleq	r0, fp, r2
    6670:	00066506 	andeq	r6, r6, r6, lsl #10
    6674:	000009ab 	andeq	r0, r0, fp, lsr #19
    6678:	13aa0004 			; <UNDEFINED> instruction: 0x13aa0004
    667c:	01040000 	mrseq	r0, (UNDEF: 4)
    6680:	000002fd 	strdeq	r0, [r0], -sp
    6684:	0007ec0c 	andeq	lr, r7, ip, lsl #24
    6688:	0006da00 	andeq	sp, r6, r0, lsl #20
    668c:	0090a800 	addseq	sl, r0, r0, lsl #16
    6690:	00002800 	andeq	r2, r0, r0, lsl #16
    6694:	00145c00 	andseq	r5, r4, r0, lsl #24
    6698:	05040200 	streq	r0, [r4, #-512]	; 0xfffffe00
    669c:	00746e69 	rsbseq	r6, r4, r9, ror #28
    66a0:	66070403 	strvs	r0, [r7], -r3, lsl #8
    66a4:	03000000 	movweq	r0, #0
    66a8:	02ec0601 	rsceq	r0, ip, #1048576	; 0x100000
    66ac:	02030000 	andeq	r0, r3, #0
    66b0:	00038505 	andeq	r8, r3, r5, lsl #10
    66b4:	05040300 	streq	r0, [r4, #-768]	; 0xfffffd00
    66b8:	000000ac 	andeq	r0, r0, ip, lsr #1
    66bc:	a7050803 	strge	r0, [r5, -r3, lsl #16]
    66c0:	03000000 	movweq	r0, #0
    66c4:	02ea0801 	rsceq	r0, sl, #65536	; 0x10000
    66c8:	02030000 	andeq	r0, r3, #0
    66cc:	00022207 	andeq	r2, r2, r7, lsl #4
    66d0:	07040300 	streq	r0, [r4, -r0, lsl #6]
    66d4:	00000061 	andeq	r0, r0, r1, rrx
    66d8:	5c070803 	stcpl	8, cr0, [r7], {3}
    66dc:	04000000 	streq	r0, [r0], #-0
    66e0:	00000273 	andeq	r0, r0, r3, ror r2
    66e4:	77192202 	ldrvc	r2, [r9, -r2, lsl #4]
    66e8:	05000000 	streq	r0, [r0, #-0]
    66ec:	00007d04 	andeq	r7, r0, r4, lsl #26
    66f0:	042b0600 	strteq	r0, [fp], #-1536	; 0xfffffa00
    66f4:	cb040000 	blgt	1066fc <__bss_end__+0xfc69c>
    66f8:	03000002 	movweq	r0, #2
    66fc:	00410e2c 	subeq	r0, r1, ip, lsr #28
    6700:	40040000 	andmi	r0, r4, r0
    6704:	03000004 	movweq	r0, #4
    6708:	00410e72 	subeq	r0, r1, r2, ror lr
    670c:	7b070000 	blvc	1c6714 <__bss_end__+0x1bc6b4>
    6710:	04000002 	streq	r0, [r0], #-2
    6714:	2c17015e 	ldfcss	f0, [r7], {94}	; 0x5e
    6718:	08000000 	stmdaeq	r0, {}	; <UNPREDICTABLE>
    671c:	03a60304 			; <UNDEFINED> instruction: 0x03a60304
    6720:	000000c9 	andeq	r0, r0, r9, asr #1
    6724:	00026d09 	andeq	r6, r2, r9, lsl #26
    6728:	0ca80300 	stceq	3, cr0, [r8]
    672c:	0000009a 	muleq	r0, sl, r0
    6730:	0001e209 	andeq	lr, r1, r9, lsl #4
    6734:	13a90300 			; <UNDEFINED> instruction: 0x13a90300
    6738:	000000c9 	andeq	r0, r0, r9, asr #1
    673c:	004f0a00 	subeq	r0, pc, r0, lsl #20
    6740:	00d90000 	sbcseq	r0, r9, r0
    6744:	2c0b0000 	stccs	0, cr0, [fp], {-0}
    6748:	03000000 	movweq	r0, #0
    674c:	03080c00 	movweq	r0, #35840	; 0x8c00
    6750:	00fd09a3 	rscseq	r0, sp, r3, lsr #19
    6754:	230d0000 	movwcs	r0, #53248	; 0xd000
    6758:	03000004 	movweq	r0, #4
    675c:	002507a5 	eoreq	r0, r5, r5, lsr #15
    6760:	0d000000 	stceq	0, cr0, [r0, #-0]
    6764:	00000432 	andeq	r0, r0, r2, lsr r4
    6768:	a705aa03 	strge	sl, [r5, -r3, lsl #20]
    676c:	04000000 	streq	r0, [r0], #-0
    6770:	03ad0400 			; <UNDEFINED> instruction: 0x03ad0400
    6774:	ab030000 	blge	c677c <__bss_end__+0xbc71c>
    6778:	0000d903 	andeq	sp, r0, r3, lsl #18
    677c:	019f0400 	orrseq	r0, pc, r0, lsl #8
    6780:	af030000 	svcge	0x00030000
    6784:	00006b1b 	andeq	r6, r0, fp, lsl fp
    6788:	05040e00 	streq	r0, [r4, #-3584]	; 0xfffff200
    678c:	00011d04 	andeq	r1, r1, r4, lsl #26
    6790:	08010300 	stmdaeq	r1, {r8, r9}
    6794:	000002f3 	strdeq	r0, [r0], -r3
    6798:	00011d0f 	andeq	r1, r1, pc, lsl #26
    679c:	04720400 	ldrbteq	r0, [r2], #-1024	; 0xfffffc00
    67a0:	16050000 	strne	r0, [r5], -r0
    67a4:	00005d19 	andeq	r5, r0, r9, lsl sp
    67a8:	01b01000 	movseq	r1, r0
    67ac:	05180000 	ldreq	r0, [r8, #-0]
    67b0:	018f082f 	orreq	r0, pc, pc, lsr #16
    67b4:	ce0d0000 	cdpgt	0, 0, cr0, cr13, cr0, {0}
    67b8:	05000003 	streq	r0, [r0, #-3]
    67bc:	018f1331 	orreq	r1, pc, r1, lsr r3	; <UNPREDICTABLE>
    67c0:	11000000 	mrsne	r0, (UNDEF: 0)
    67c4:	05006b5f 	streq	r6, [r0, #-2911]	; 0xfffff4a1
    67c8:	00250732 	eoreq	r0, r5, r2, lsr r7
    67cc:	0d040000 	stceq	0, cr0, [r4, #-0]
    67d0:	0000040e 	andeq	r0, r0, lr, lsl #8
    67d4:	250b3205 	strcs	r3, [fp, #-517]	; 0xfffffdfb
    67d8:	08000000 	stmdaeq	r0, {}	; <UNPREDICTABLE>
    67dc:	0001990d 	andeq	r9, r1, sp, lsl #18
    67e0:	14320500 	ldrtne	r0, [r2], #-1280	; 0xfffffb00
    67e4:	00000025 	andeq	r0, r0, r5, lsr #32
    67e8:	04ae0d0c 	strteq	r0, [lr], #3340	; 0xd0c
    67ec:	32050000 	andcc	r0, r5, #0
    67f0:	0000251b 	andeq	r2, r0, fp, lsl r5
    67f4:	5f111000 	svcpl	0x00111000
    67f8:	33050078 	movwcc	r0, #20600	; 0x5078
    67fc:	0001950b 	andeq	r9, r1, fp, lsl #10
    6800:	05001400 	streq	r1, [r0, #-1024]	; 0xfffffc00
    6804:	00013504 	andeq	r3, r1, r4, lsl #10
    6808:	01290a00 			; <UNDEFINED> instruction: 0x01290a00
    680c:	01a50000 			; <UNDEFINED> instruction: 0x01a50000
    6810:	2c0b0000 	stccs	0, cr0, [fp], {-0}
    6814:	00000000 	andeq	r0, r0, r0
    6818:	01dd1000 	bicseq	r1, sp, r0
    681c:	05240000 	streq	r0, [r4, #-0]!
    6820:	02280837 	eoreq	r0, r8, #3604480	; 0x370000
    6824:	9e0d0000 	cdpls	0, 0, cr0, cr13, cr0, {0}
    6828:	05000000 	streq	r0, [r0, #-0]
    682c:	00250939 	eoreq	r0, r5, r9, lsr r9
    6830:	0d000000 	stceq	0, cr0, [r0, #-0]
    6834:	00000448 	andeq	r0, r0, r8, asr #8
    6838:	25093a05 	strcs	r3, [r9, #-2565]	; 0xfffff5fb
    683c:	04000000 	streq	r0, [r0], #-0
    6840:	0000c10d 	andeq	ip, r0, sp, lsl #2
    6844:	093b0500 	ldmdbeq	fp!, {r8, sl}
    6848:	00000025 	andeq	r0, r0, r5, lsr #32
    684c:	052f0d08 	streq	r0, [pc, #-3336]!	; 5b4c <_start-0x24b4>
    6850:	3c050000 	stccc	0, cr0, [r5], {-0}
    6854:	00002509 	andeq	r2, r0, r9, lsl #10
    6858:	af0d0c00 	svcge	0x000d0c00
    685c:	05000002 	streq	r0, [r0, #-2]
    6860:	0025093d 	eoreq	r0, r5, sp, lsr r9
    6864:	0d100000 	ldceq	0, cr0, [r0, #-0]
    6868:	00000291 	muleq	r0, r1, r2
    686c:	25093e05 	strcs	r3, [r9, #-3589]	; 0xfffff1fb
    6870:	14000000 	strne	r0, [r0], #-0
    6874:	0004b30d 	andeq	fp, r4, sp, lsl #6
    6878:	093f0500 	ldmdbeq	pc!, {r8, sl}	; <UNPREDICTABLE>
    687c:	00000025 	andeq	r0, r0, r5, lsr #32
    6880:	038f0d18 	orreq	r0, pc, #24, 26	; 0x600
    6884:	40050000 	andmi	r0, r5, r0
    6888:	00002509 	andeq	r2, r0, r9, lsl #10
    688c:	f60d1c00 			; <UNDEFINED> instruction: 0xf60d1c00
    6890:	05000004 	streq	r0, [r0, #-4]
    6894:	00250941 	eoreq	r0, r5, r1, asr #18
    6898:	00200000 	eoreq	r0, r0, r0
    689c:	00010112 	andeq	r0, r1, r2, lsl r1
    68a0:	05010800 	streq	r0, [r1, #-2048]	; 0xfffff800
    68a4:	026d084a 	rsbeq	r0, sp, #4849664	; 0x4a0000
    68a8:	8c0d0000 	stchi	0, cr0, [sp], {-0}
    68ac:	05000001 	streq	r0, [r0, #-1]
    68b0:	026d0a4b 	rsbeq	r0, sp, #307200	; 0x4b000
    68b4:	0d000000 	stceq	0, cr0, [r0, #-0]
    68b8:	00000000 	andeq	r0, r0, r0
    68bc:	6d094c05 	stcvs	12, cr4, [r9, #-20]	; 0xffffffec
    68c0:	80000002 	andhi	r0, r0, r2
    68c4:	00046413 	andeq	r6, r4, r3, lsl r4
    68c8:	0a4e0500 	beq	1387cd0 <__bss_end__+0x137dc70>
    68cc:	00000129 	andeq	r0, r0, r9, lsr #2
    68d0:	26130100 	ldrcs	r0, [r3], -r0, lsl #2
    68d4:	05000001 	streq	r0, [r0, #-1]
    68d8:	01290a51 			; <UNDEFINED> instruction: 0x01290a51
    68dc:	01040000 	mrseq	r0, (UNDEF: 4)
    68e0:	01150a00 	tsteq	r5, r0, lsl #20
    68e4:	027d0000 	rsbseq	r0, sp, #0
    68e8:	2c0b0000 	stccs	0, cr0, [fp], {-0}
    68ec:	1f000000 	svcne	0x00000000
    68f0:	02b81200 	adcseq	r1, r8, #0, 4
    68f4:	01900000 	orrseq	r0, r0, r0
    68f8:	c0085d05 	andgt	r5, r8, r5, lsl #26
    68fc:	0d000002 	stceq	0, cr0, [r0, #-8]
    6900:	000003ce 	andeq	r0, r0, lr, asr #7
    6904:	c0125e05 	andsgt	r5, r2, r5, lsl #28
    6908:	00000002 	andeq	r0, r0, r2
    690c:	0003e60d 	andeq	lr, r3, sp, lsl #12
    6910:	065f0500 	ldrbeq	r0, [pc], -r0, lsl #10
    6914:	00000025 	andeq	r0, r0, r5, lsr #32
    6918:	01940d04 	orrseq	r0, r4, r4, lsl #26
    691c:	61050000 	mrsvs	r0, (UNDEF: 5)
    6920:	0002c609 	andeq	ip, r2, r9, lsl #12
    6924:	010d0800 	tsteq	sp, r0, lsl #16
    6928:	05000001 	streq	r0, [r0, #-1]
    692c:	02281e62 	eoreq	r1, r8, #1568	; 0x620
    6930:	00880000 	addeq	r0, r8, r0
    6934:	027d0405 	rsbseq	r0, sp, #83886080	; 0x5000000
    6938:	d60a0000 	strle	r0, [sl], -r0
    693c:	d6000002 	strle	r0, [r0], -r2
    6940:	0b000002 	bleq	6950 <_start-0x16b0>
    6944:	0000002c 	andeq	r0, r0, ip, lsr #32
    6948:	0405001f 	streq	r0, [r5], #-31	; 0xffffffe1
    694c:	000002dc 	ldrdeq	r0, [r0], -ip
    6950:	03991014 	orrseq	r1, r9, #20
    6954:	05080000 	streq	r0, [r8, #-0]
    6958:	03050875 	movweq	r0, #22645	; 0x5875
    695c:	bb0d0000 	bllt	346964 <__bss_end__+0x33c904>
    6960:	05000000 	streq	r0, [r0, #-0]
    6964:	03051176 	movweq	r1, #20854	; 0x5176
    6968:	0d000000 	stceq	0, cr0, [r0, #-0]
    696c:	0000001b 	andeq	r0, r0, fp, lsl r0
    6970:	25067705 	strcs	r7, [r6, #-1797]	; 0xfffff8fb
    6974:	04000000 	streq	r0, [r0], #-0
    6978:	4f040500 	svcmi	0x00040500
    697c:	10000000 	andne	r0, r0, r0
    6980:	000003b8 			; <UNDEFINED> instruction: 0x000003b8
    6984:	08b50568 	ldmeq	r5!, {r3, r5, r6, r8, sl}
    6988:	0000044e 	andeq	r0, r0, lr, asr #8
    698c:	00705f11 	rsbseq	r5, r0, r1, lsl pc
    6990:	0512b605 	ldreq	fp, [r2, #-1541]	; 0xfffff9fb
    6994:	00000003 	andeq	r0, r0, r3
    6998:	00725f11 	rsbseq	r5, r2, r1, lsl pc
    699c:	2507b705 	strcs	fp, [r7, #-1797]	; 0xfffff8fb
    69a0:	04000000 	streq	r0, [r0], #-0
    69a4:	00775f11 	rsbseq	r5, r7, r1, lsl pc
    69a8:	2507b805 	strcs	fp, [r7, #-2053]	; 0xfffff7fb
    69ac:	08000000 	stmdaeq	r0, {}	; <UNPREDICTABLE>
    69b0:	00011f0d 	andeq	r1, r1, sp, lsl #30
    69b4:	09b90500 	ldmibeq	r9!, {r8, sl}
    69b8:	0000003a 	andeq	r0, r0, sl, lsr r0
    69bc:	02080d0c 	andeq	r0, r8, #12, 26	; 0x300
    69c0:	ba050000 	blt	1469c8 <__bss_end__+0x13c968>
    69c4:	00003a09 	andeq	r3, r0, r9, lsl #20
    69c8:	5f110e00 	svcpl	0x00110e00
    69cc:	05006662 	streq	r6, [r0, #-1634]	; 0xfffff99e
    69d0:	02dd11bb 	sbcseq	r1, sp, #-1073741778	; 0xc000002e
    69d4:	0d100000 	ldceq	0, cr0, [r0, #-0]
    69d8:	0000007b 	andeq	r0, r0, fp, ror r0
    69dc:	2507bc05 	strcs	fp, [r7, #-3077]	; 0xfffff3fb
    69e0:	18000000 	stmdane	r0, {}	; <UNPREDICTABLE>
    69e4:	00010f0d 	andeq	r0, r1, sp, lsl #30
    69e8:	0ac30500 	beq	ff0c7df0 <__bss_end__+0xff0bdd90>
    69ec:	00000115 	andeq	r0, r0, r5, lsl r1
    69f0:	0b3d0d1c 	bleq	f49e68 <__bss_end__+0xf3fe08>
    69f4:	c5050000 	strgt	r0, [r5, #-0]
    69f8:	0005c01d 	andeq	ip, r5, sp, lsl r0
    69fc:	320d2000 	andcc	r2, sp, #0
    6a00:	05000006 	streq	r0, [r0, #-6]
    6a04:	05ea1dc7 	strbeq	r1, [sl, #3527]!	; 0xdc7
    6a08:	0d240000 	stceq	0, cr0, [r4, #-0]
    6a0c:	0000043a 	andeq	r0, r0, sl, lsr r4
    6a10:	0e0dca05 	vmlaeq.f32	s24, s26, s10
    6a14:	28000006 	stmdacs	r0, {r1, r2}
    6a18:	0005100d 	andeq	r1, r5, sp
    6a1c:	09cb0500 	stmibeq	fp, {r8, sl}^
    6a20:	00000628 	andeq	r0, r0, r8, lsr #12
    6a24:	755f112c 	ldrbvc	r1, [pc, #-300]	; 6900 <_start-0x1700>
    6a28:	ce050062 	cdpgt	0, 0, cr0, cr5, cr2, {3}
    6a2c:	0002dd11 	andeq	sp, r2, r1, lsl sp
    6a30:	5f113000 	svcpl	0x00113000
    6a34:	05007075 	streq	r7, [r0, #-117]	; 0xffffff8b
    6a38:	030512cf 	movweq	r1, #21199	; 0x52cf
    6a3c:	11380000 	teqne	r8, r0
    6a40:	0072755f 	rsbseq	r7, r2, pc, asr r5
    6a44:	2507d005 	strcs	sp, [r7, #-5]
    6a48:	3c000000 	stccc	0, cr0, [r0], {-0}
    6a4c:	0000b50d 	andeq	fp, r0, sp, lsl #10
    6a50:	11d30500 	bicsne	r0, r3, r0, lsl #10
    6a54:	0000062e 	andeq	r0, r0, lr, lsr #12
    6a58:	04e80d40 	strbteq	r0, [r8], #3392	; 0xd40
    6a5c:	d4050000 	strle	r0, [r5], #-0
    6a60:	00063e11 	andeq	r3, r6, r1, lsl lr
    6a64:	5f114300 	svcpl	0x00114300
    6a68:	0500626c 	streq	r6, [r0, #-620]	; 0xfffffd94
    6a6c:	02dd11d7 	sbcseq	r1, sp, #-1073741771	; 0xc0000035
    6a70:	0d440000 	stcleq	0, cr0, [r4, #-0]
    6a74:	0000013d 	andeq	r0, r0, sp, lsr r1
    6a78:	2507da05 	strcs	sp, [r7, #-2565]	; 0xfffff5fb
    6a7c:	4c000000 	stcmi	0, cr0, [r0], {-0}
    6a80:	00014e0d 	andeq	r4, r1, sp, lsl #28
    6a84:	0adb0500 	beq	ff6c7e8c <__bss_end__+0xff6bde2c>
    6a88:	00000082 	andeq	r0, r0, r2, lsl #1
    6a8c:	0ade0d50 	beq	ff789fd4 <__bss_end__+0xff77ff74>
    6a90:	de050000 	cdple	0, 0, cr0, cr5, cr0, {0}
    6a94:	00046c12 	andeq	r6, r4, r2, lsl ip
    6a98:	2c0d5400 	cfstrscs	mvf5, [sp], {-0}
    6a9c:	05000004 	streq	r0, [r0, #-4]
    6aa0:	01090ce2 	smlatteq	r9, r2, ip, r0
    6aa4:	0d580000 	ldcleq	0, cr0, [r8, #-0]
    6aa8:	000003c0 	andeq	r0, r0, r0, asr #7
    6aac:	fd0ee405 	stc2	4, cr14, [lr, #-20]	; 0xffffffec
    6ab0:	5c000000 	stcpl	0, cr0, [r0], {-0}
    6ab4:	0002890d 	andeq	r8, r2, sp, lsl #18
    6ab8:	09e50500 	stmibeq	r5!, {r8, sl}^
    6abc:	00000025 	andeq	r0, r0, r5, lsr #32
    6ac0:	25150064 	ldrcs	r0, [r5, #-100]	; 0xffffff9c
    6ac4:	6c000000 	stcvs	0, cr0, [r0], {-0}
    6ac8:	16000004 	strne	r0, [r0], -r4
    6acc:	0000046c 	andeq	r0, r0, ip, ror #8
    6ad0:	00011516 	andeq	r1, r1, r6, lsl r5
    6ad4:	01171600 	tsteq	r7, r0, lsl #12
    6ad8:	25160000 	ldrcs	r0, [r6, #-0]
    6adc:	00000000 	andeq	r0, r0, r0
    6ae0:	04770405 	ldrbteq	r0, [r7], #-1029	; 0xfffffbfb
    6ae4:	6c0f0000 	stcvs	0, cr0, [pc], {-0}
    6ae8:	17000004 	strne	r0, [r0, -r4]
    6aec:	00000416 	andeq	r0, r0, r6, lsl r4
    6af0:	60050428 	andvs	r0, r5, r8, lsr #8
    6af4:	05c00802 	strbeq	r0, [r0, #2050]	; 0x802
    6af8:	7e180000 	cdpvc	0, 1, cr0, cr8, cr0, {0}
    6afc:	05000003 	streq	r0, [r0, #-3]
    6b00:	25070262 	strcs	r0, [r7, #-610]	; 0xfffffd9e
    6b04:	00000000 	andeq	r0, r0, r0
    6b08:	00012e18 	andeq	r2, r1, r8, lsl lr
    6b0c:	02670500 	rsbeq	r0, r7, #0, 10
    6b10:	00069a0b 	andeq	r9, r6, fp, lsl #20
    6b14:	f8180400 			; <UNDEFINED> instruction: 0xf8180400
    6b18:	05000001 	streq	r0, [r0, #-1]
    6b1c:	9a140267 	bls	5074c0 <__bss_end__+0x4fd460>
    6b20:	08000006 	stmdaeq	r0, {r1, r2}
    6b24:	0001a818 	andeq	sl, r1, r8, lsl r8
    6b28:	02670500 	rsbeq	r0, r7, #0, 10
    6b2c:	00069a1e 	andeq	r9, r6, lr, lsl sl
    6b30:	e1180c00 	tst	r8, r0, lsl #24
    6b34:	05000003 	streq	r0, [r0, #-3]
    6b38:	25080269 	strcs	r0, [r8, #-617]	; 0xfffffd97
    6b3c:	10000000 	andne	r0, r0, r0
    6b40:	00002918 	andeq	r2, r0, r8, lsl r9
    6b44:	026a0500 	rsbeq	r0, sl, #0, 10
    6b48:	00089a08 	andeq	r9, r8, r8, lsl #20
    6b4c:	f5181400 			; <UNDEFINED> instruction: 0xf5181400
    6b50:	05000003 	streq	r0, [r0, #-3]
    6b54:	2507026d 	strcs	r0, [r7, #-621]	; 0xfffffd93
    6b58:	30000000 	andcc	r0, r0, r0
    6b5c:	000a1a18 	andeq	r1, sl, r8, lsl sl
    6b60:	026e0500 	rsbeq	r0, lr, #0, 10
    6b64:	0008af16 	andeq	sl, r8, r6, lsl pc
    6b68:	c0183400 	andsgt	r3, r8, r0, lsl #8
    6b6c:	05000002 	streq	r0, [r0, #-2]
    6b70:	25070270 	strcs	r0, [r7, #-624]	; 0xfffffd90
    6b74:	38000000 	stmdacc	r0, {}	; <UNPREDICTABLE>
    6b78:	0003eb18 	andeq	lr, r3, r8, lsl fp
    6b7c:	02720500 	rsbseq	r0, r2, #0, 10
    6b80:	0008c00a 	andeq	ip, r8, sl
    6b84:	65183c00 	ldrvs	r3, [r8, #-3072]	; 0xfffff400
    6b88:	05000002 	streq	r0, [r0, #-2]
    6b8c:	8f130275 	svchi	0x00130275
    6b90:	40000001 	andmi	r0, r0, r1
    6b94:	0001c718 	andeq	ip, r1, r8, lsl r7
    6b98:	02760500 	rsbseq	r0, r6, #0, 10
    6b9c:	00002507 	andeq	r2, r0, r7, lsl #10
    6ba0:	2a184400 	bcs	617ba8 <__bss_end__+0x60db48>
    6ba4:	05000005 	streq	r0, [r0, #-5]
    6ba8:	8f130277 	svchi	0x00130277
    6bac:	48000001 	stmdami	r0, {r0}
    6bb0:	0002d218 	andeq	sp, r2, r8, lsl r2
    6bb4:	02780500 	rsbseq	r0, r8, #0, 10
    6bb8:	0008c614 	andeq	ip, r8, r4, lsl r6
    6bbc:	00184c00 	andseq	r4, r8, r0, lsl #24
    6bc0:	05000002 	streq	r0, [r0, #-2]
    6bc4:	2507027b 	strcs	r0, [r7, #-635]	; 0xfffffd85
    6bc8:	50000000 	andpl	r0, r0, r0
    6bcc:	00014618 	andeq	r4, r1, r8, lsl r6
    6bd0:	027c0500 	rsbseq	r0, ip, #0, 10
    6bd4:	00011709 	andeq	r1, r1, r9, lsl #14
    6bd8:	f8185400 			; <UNDEFINED> instruction: 0xf8185400
    6bdc:	05000002 	streq	r0, [r0, #-2]
    6be0:	7507029f 	strvc	r0, [r7, #-671]	; 0xfffffd61
    6be4:	58000008 	stmdapl	r0, {r3}
    6be8:	0002b819 	andeq	fp, r2, r9, lsl r8
    6bec:	02a30500 	adceq	r0, r3, #0, 10
    6bf0:	0002c013 	andeq	ip, r2, r3, lsl r0
    6bf4:	19014800 	stmdbne	r1, {fp, lr}
    6bf8:	00000243 	andeq	r0, r0, r3, asr #4
    6bfc:	1202a405 	andne	sl, r2, #83886080	; 0x5000000
    6c00:	0000027d 	andeq	r0, r0, sp, ror r2
    6c04:	d619014c 	ldrle	r0, [r9], -ip, asr #2
    6c08:	05000004 	streq	r0, [r0, #-4]
    6c0c:	d70c02a8 	strle	r0, [ip, -r8, lsr #5]
    6c10:	dc000008 	stcle	0, cr0, [r0], {8}
    6c14:	01171902 	tsteq	r7, r2, lsl #18
    6c18:	ad050000 	stcge	0, cr0, [r5, #-0]
    6c1c:	065b1002 	ldrbeq	r1, [fp], -r2
    6c20:	02e00000 	rsceq	r0, r0, #0
    6c24:	0000fc19 	andeq	pc, r0, r9, lsl ip	; <UNPREDICTABLE>
    6c28:	02af0500 	adceq	r0, pc, #0, 10
    6c2c:	0008e30a 	andeq	lr, r8, sl, lsl #6
    6c30:	0002ec00 	andeq	lr, r2, r0, lsl #24
    6c34:	044e0405 	strbeq	r0, [lr], #-1029	; 0xfffffbfb
    6c38:	25150000 	ldrcs	r0, [r5, #-0]
    6c3c:	e4000000 	str	r0, [r0], #-0
    6c40:	16000005 	strne	r0, [r0], -r5
    6c44:	0000046c 	andeq	r0, r0, ip, ror #8
    6c48:	00011516 	andeq	r1, r1, r6, lsl r5
    6c4c:	05e41600 	strbeq	r1, [r4, #1536]!	; 0x600
    6c50:	25160000 	ldrcs	r0, [r6, #-0]
    6c54:	00000000 	andeq	r0, r0, r0
    6c58:	01240405 			; <UNDEFINED> instruction: 0x01240405
    6c5c:	04050000 	streq	r0, [r5], #-0
    6c60:	000005c6 	andeq	r0, r0, r6, asr #11
    6c64:	00008e15 	andeq	r8, r0, r5, lsl lr
    6c68:	00060e00 	andeq	r0, r6, r0, lsl #28
    6c6c:	046c1600 	strbteq	r1, [ip], #-1536	; 0xfffffa00
    6c70:	15160000 	ldrne	r0, [r6, #-0]
    6c74:	16000001 	strne	r0, [r0], -r1
    6c78:	0000008e 	andeq	r0, r0, lr, lsl #1
    6c7c:	00002516 	andeq	r2, r0, r6, lsl r5
    6c80:	04050000 	streq	r0, [r5], #-0
    6c84:	000005f0 	strdeq	r0, [r0], -r0	; <UNPREDICTABLE>
    6c88:	00002515 	andeq	r2, r0, r5, lsl r5
    6c8c:	00062800 	andeq	r2, r6, r0, lsl #16
    6c90:	046c1600 	strbteq	r1, [ip], #-1536	; 0xfffffa00
    6c94:	15160000 	ldrne	r0, [r6, #-0]
    6c98:	00000001 	andeq	r0, r0, r1
    6c9c:	06140405 	ldreq	r0, [r4], -r5, lsl #8
    6ca0:	4f0a0000 	svcmi	0x000a0000
    6ca4:	3e000000 	cdpcc	0, 0, cr0, cr0, cr0, {0}
    6ca8:	0b000006 	bleq	6cc8 <_start-0x1338>
    6cac:	0000002c 	andeq	r0, r0, ip, lsr #32
    6cb0:	4f0a0002 	svcmi	0x000a0002
    6cb4:	4e000000 	cdpmi	0, 0, cr0, cr0, cr0, {0}
    6cb8:	0b000006 	bleq	6cd8 <_start-0x1328>
    6cbc:	0000002c 	andeq	r0, r0, ip, lsr #32
    6cc0:	a6070000 	strge	r0, [r7], -r0
    6cc4:	05000003 	streq	r0, [r0, #-3]
    6cc8:	0b1a011f 	bleq	68714c <__bss_end__+0x67d0ec>
    6ccc:	1a000003 	bne	6ce0 <_start-0x1320>
    6cd0:	000004bd 			; <UNDEFINED> instruction: 0x000004bd
    6cd4:	0123050c 			; <UNDEFINED> instruction: 0x0123050c
    6cd8:	00069408 	andeq	r9, r6, r8, lsl #8
    6cdc:	03ce1800 	biceq	r1, lr, #0, 16
    6ce0:	25050000 	strcs	r0, [r5, #-0]
    6ce4:	06941101 	ldreq	r1, [r4], r1, lsl #2
    6ce8:	18000000 	stmdane	r0, {}	; <UNPREDICTABLE>
    6cec:	0000021b 	andeq	r0, r0, fp, lsl r2
    6cf0:	07012605 	streq	r2, [r1, -r5, lsl #12]
    6cf4:	00000025 	andeq	r0, r0, r5, lsr #32
    6cf8:	03a01804 	moveq	r1, #4, 16	; 0x40000
    6cfc:	27050000 	strcs	r0, [r5, -r0]
    6d00:	069a0b01 	ldreq	r0, [sl], r1, lsl #22
    6d04:	00080000 	andeq	r0, r8, r0
    6d08:	065b0405 	ldrbeq	r0, [fp], -r5, lsl #8
    6d0c:	04050000 	streq	r0, [r5], #-0
    6d10:	0000064e 	andeq	r0, r0, lr, asr #12
    6d14:	0000211a 	andeq	r2, r0, sl, lsl r1
    6d18:	3f050e00 	svccc	0x00050e00
    6d1c:	06d90801 	ldrbeq	r0, [r9], r1, lsl #16
    6d20:	1d180000 	ldcne	0, cr0, [r8, #-0]
    6d24:	05000004 	streq	r0, [r0, #-4]
    6d28:	d9120140 	ldmdble	r2, {r6, r8}
    6d2c:	00000006 	andeq	r0, r0, r6
    6d30:	00045118 	andeq	r5, r4, r8, lsl r1
    6d34:	01410500 	cmpeq	r1, r0, lsl #10
    6d38:	0006d912 	andeq	sp, r6, r2, lsl r9
    6d3c:	6d180600 	ldcvs	6, cr0, [r8, #-0]
    6d40:	05000004 	streq	r0, [r0, #-4]
    6d44:	56120142 	ldrpl	r0, [r2], -r2, asr #2
    6d48:	0c000000 	stceq	0, cr0, [r0], {-0}
    6d4c:	00560a00 	subseq	r0, r6, r0, lsl #20
    6d50:	06e90000 	strbteq	r0, [r9], r0
    6d54:	2c0b0000 	stccs	0, cr0, [fp], {-0}
    6d58:	02000000 	andeq	r0, r0, #0
    6d5c:	05d01b00 	ldrbeq	r1, [r0, #2816]	; 0xb00
    6d60:	fe070280 	cdp2	2, 0, cr0, cr7, cr0, {4}
    6d64:	18000007 	stmdane	r0, {r0, r1, r2}
    6d68:	000004a1 	andeq	r0, r0, r1, lsr #9
    6d6c:	18028205 	stmdane	r2, {r0, r2, r9, pc}
    6d70:	0000002c 	andeq	r0, r0, ip, lsr #32
    6d74:	04571800 	ldrbeq	r1, [r7], #-2048	; 0xfffff800
    6d78:	83050000 	movwhi	r0, #20480	; 0x5000
    6d7c:	01171202 	tsteq	r7, r2, lsl #4
    6d80:	18040000 	stmdane	r4, {}	; <UNPREDICTABLE>
    6d84:	00000258 	andeq	r0, r0, r8, asr r2
    6d88:	10028405 	andne	r8, r2, r5, lsl #8
    6d8c:	000007fe 	strdeq	r0, [r0], -lr
    6d90:	05011808 	streq	r1, [r1, #-2056]	; 0xfffff7f8
    6d94:	85050000 	strhi	r0, [r5, #-0]
    6d98:	01a51702 			; <UNDEFINED> instruction: 0x01a51702
    6d9c:	18240000 	stmdane	r4!, {}	; <UNPREDICTABLE>
    6da0:	000001b8 			; <UNDEFINED> instruction: 0x000001b8
    6da4:	0f028605 	svceq	0x00028605
    6da8:	00000025 	andeq	r0, r0, r5, lsr #32
    6dac:	03c91848 	biceq	r1, r9, #72, 16	; 0x480000
    6db0:	87050000 	strhi	r0, [r5, -r0]
    6db4:	00642c02 	rsbeq	r2, r4, r2, lsl #24
    6db8:	18500000 	ldmdane	r0, {}^	; <UNPREDICTABLE>
    6dbc:	00000517 	andeq	r0, r0, r7, lsl r5
    6dc0:	1a028805 	bne	a8ddc <__bss_end__+0x9ed7c>
    6dc4:	000006a0 	andeq	r0, r0, r0, lsr #13
    6dc8:	03d41858 	bicseq	r1, r4, #88, 16	; 0x580000
    6dcc:	89050000 	stmdbhi	r5, {}	; <UNPREDICTABLE>
    6dd0:	00fd1602 	rscseq	r1, sp, r2, lsl #12
    6dd4:	18680000 	stmdane	r8!, {}^	; <UNPREDICTABLE>
    6dd8:	0000051c 	andeq	r0, r0, ip, lsl r5
    6ddc:	16028a05 	strne	r8, [r2], -r5, lsl #20
    6de0:	000000fd 	strdeq	r0, [r0], -sp
    6de4:	02dc1870 	sbcseq	r1, ip, #112, 16	; 0x700000
    6de8:	8b050000 	blhi	146df0 <__bss_end__+0x13cd90>
    6dec:	00fd1602 	rscseq	r1, sp, r2, lsl #12
    6df0:	18780000 	ldmdane	r8!, {}^	; <UNPREDICTABLE>
    6df4:	000004cc 	andeq	r0, r0, ip, asr #9
    6df8:	10028c05 	andne	r8, r2, r5, lsl #24
    6dfc:	0000080e 	andeq	r0, r0, lr, lsl #16
    6e00:	024c1880 	subeq	r1, ip, #128, 16	; 0x800000
    6e04:	8d050000 	stchi	0, cr0, [r5, #-0]
    6e08:	081e1002 	ldmdaeq	lr, {r1, ip}
    6e0c:	18880000 	stmne	r8, {}	; <UNPREDICTABLE>
    6e10:	0000047a 	andeq	r0, r0, sl, ror r4
    6e14:	0f028e05 	svceq	0x00028e05
    6e18:	00000025 	andeq	r0, r0, r5, lsr #32
    6e1c:	017e18a0 	cmneq	lr, r0, lsr #17
    6e20:	8f050000 	svchi	0x00050000
    6e24:	00fd1602 	rscseq	r1, sp, r2, lsl #12
    6e28:	18a40000 	stmiane	r4!, {}	; <UNPREDICTABLE>
    6e2c:	0000008f 	andeq	r0, r0, pc, lsl #1
    6e30:	16029005 	strne	r9, [r2], -r5
    6e34:	000000fd 	strdeq	r0, [r0], -sp
    6e38:	016d18ac 	cmneq	sp, ip, lsr #17
    6e3c:	91050000 	mrsls	r0, (UNDEF: 5)
    6e40:	00fd1602 	rscseq	r1, sp, r2, lsl #12
    6e44:	18b40000 	ldmne	r4!, {}	; <UNPREDICTABLE>
    6e48:	0000003c 	andeq	r0, r0, ip, lsr r0
    6e4c:	16029205 	strne	r9, [r2], -r5, lsl #4
    6e50:	000000fd 	strdeq	r0, [r0], -sp
    6e54:	004b18bc 	strheq	r1, [fp], #-140	; 0xffffff74
    6e58:	93050000 	movwls	r0, #20480	; 0x5000
    6e5c:	00fd1602 	rscseq	r1, sp, r2, lsl #12
    6e60:	18c40000 	stmiane	r4, {}^	; <UNPREDICTABLE>
    6e64:	0000037c 	andeq	r0, r0, ip, ror r3
    6e68:	08029405 	stmdaeq	r2, {r0, r2, sl, ip, pc}
    6e6c:	00000025 	andeq	r0, r0, r5, lsr #32
    6e70:	1d0a00cc 	stcne	0, cr0, [sl, #-816]	; 0xfffffcd0
    6e74:	0e000001 	cdpeq	0, 0, cr0, cr0, cr1, {0}
    6e78:	0b000008 	bleq	6ea0 <_start-0x1160>
    6e7c:	0000002c 	andeq	r0, r0, ip, lsr #32
    6e80:	1d0a0019 	stcne	0, cr0, [sl, #-100]	; 0xffffff9c
    6e84:	1e000001 	cdpne	0, 0, cr0, cr0, cr1, {0}
    6e88:	0b000008 	bleq	6eb0 <_start-0x1150>
    6e8c:	0000002c 	andeq	r0, r0, ip, lsr #32
    6e90:	1d0a0007 	stcne	0, cr0, [sl, #-28]	; 0xffffffe4
    6e94:	2e000001 	cdpcs	0, 0, cr0, cr0, cr1, {0}
    6e98:	0b000008 	bleq	6ec0 <_start-0x1140>
    6e9c:	0000002c 	andeq	r0, r0, ip, lsr #32
    6ea0:	f01b0017 			; <UNDEFINED> instruction: 0xf01b0017
    6ea4:	07029905 	streq	r9, [r2, -r5, lsl #18]
    6ea8:	00000855 	andeq	r0, r0, r5, asr r8
    6eac:	0002a818 	andeq	sl, r2, r8, lsl r8
    6eb0:	029c0500 	addseq	r0, ip, #0, 10
    6eb4:	0008551b 	andeq	r5, r8, fp, lsl r5
    6eb8:	c3180000 	tstgt	r8, #0
    6ebc:	05000004 	streq	r0, [r0, #-4]
    6ec0:	6518029d 	ldrvs	r0, [r8, #-669]	; 0xfffffd63
    6ec4:	78000008 	stmdavc	r0, {r3}
    6ec8:	03050a00 	movweq	r0, #23040	; 0x5a00
    6ecc:	08650000 	stmdaeq	r5!, {}^	; <UNPREDICTABLE>
    6ed0:	2c0b0000 	stccs	0, cr0, [fp], {-0}
    6ed4:	1d000000 	stcne	0, cr0, [r0, #-0]
    6ed8:	002c0a00 	eoreq	r0, ip, r0, lsl #20
    6edc:	08750000 	ldmdaeq	r5!, {}^	; <UNPREDICTABLE>
    6ee0:	2c0b0000 	stccs	0, cr0, [fp], {-0}
    6ee4:	1d000000 	stcne	0, cr0, [r0, #-0]
    6ee8:	05f01c00 	ldrbeq	r1, [r0, #3072]!	; 0xc00
    6eec:	9a03027e 	bls	c78ec <__bss_end__+0xbd88c>
    6ef0:	1d000008 	stcne	0, cr0, [r0, #-32]	; 0xffffffe0
    6ef4:	00000416 	andeq	r0, r0, r6, lsl r4
    6ef8:	0b029505 	bleq	ac314 <__bss_end__+0xa22b4>
    6efc:	000006e9 	andeq	r0, r0, r9, ror #13
    6f00:	0004ee1d 	andeq	lr, r4, sp, lsl lr
    6f04:	029e0500 	addseq	r0, lr, #0, 10
    6f08:	00082e0b 	andeq	r2, r8, fp, lsl #28
    6f0c:	1d0a0000 	stcne	0, cr0, [sl, #-0]
    6f10:	aa000001 	bge	6f1c <_start-0x10e4>
    6f14:	0b000008 	bleq	6f3c <_start-0x10c4>
    6f18:	0000002c 	andeq	r0, r0, ip, lsr #32
    6f1c:	84060018 	strhi	r0, [r6], #-24	; 0xffffffe8
    6f20:	05000000 	streq	r0, [r0, #-0]
    6f24:	0008aa04 	andeq	sl, r8, r4, lsl #20
    6f28:	08c01e00 	stmiaeq	r0, {r9, sl, fp, ip}^
    6f2c:	6c160000 	ldcvs	0, cr0, [r6], {-0}
    6f30:	00000004 	andeq	r0, r0, r4
    6f34:	08b50405 	ldmeq	r5!, {r0, r2, sl}
    6f38:	04050000 	streq	r0, [r5], #-0
    6f3c:	0000018f 	andeq	r0, r0, pc, lsl #3
    6f40:	0008d71e 	andeq	sp, r8, lr, lsl r7
    6f44:	00251600 	eoreq	r1, r5, r0, lsl #12
    6f48:	05000000 	streq	r0, [r0, #-0]
    6f4c:	0008dd04 	andeq	sp, r8, r4, lsl #26
    6f50:	cc040500 	cfstr32gt	mvfx0, [r4], {-0}
    6f54:	0a000008 	beq	6f7c <_start-0x1084>
    6f58:	0000064e 	andeq	r0, r0, lr, asr #12
    6f5c:	000008f3 	strdeq	r0, [r0], -r3
    6f60:	00002c0b 	andeq	r2, r0, fp, lsl #24
    6f64:	1f000200 	svcne	0x00000200
    6f68:	0000048e 	andeq	r0, r0, lr, lsl #9
    6f6c:	17032e05 	strne	r2, [r3, -r5, lsl #28]
    6f70:	0000046c 	andeq	r0, r0, ip, ror #8
    6f74:	0004871f 	andeq	r8, r4, pc, lsl r7
    6f78:	032f0500 			; <UNDEFINED> instruction: 0x032f0500
    6f7c:	0004721d 	andeq	r7, r4, sp, lsl r2
    6f80:	00251500 	eoreq	r1, r5, r0, lsl #10
    6f84:	091c0000 	ldmdbeq	ip, {}	; <UNPREDICTABLE>
    6f88:	25160000 	ldrcs	r0, [r6, #-0]
    6f8c:	00000000 	andeq	r0, r0, r0
    6f90:	0001d120 	andeq	sp, r1, r0, lsr #2
    6f94:	0e1d0600 	cfmsub32eq	mvax0, mvfx0, mvfx13, mvfx0
    6f98:	00000928 	andeq	r0, r0, r8, lsr #18
    6f9c:	090d0405 	stmdbeq	sp, {r0, r2, sl}
    6fa0:	25150000 	ldrcs	r0, [r5, #-0]
    6fa4:	3d000000 	stccc	0, cr0, [r0, #-0]
    6fa8:	16000009 	strne	r0, [r0], -r9
    6fac:	000005e4 	andeq	r0, r0, r4, ror #11
    6fb0:	07812000 	streq	r2, [r1, r0]
    6fb4:	22060000 	andcs	r0, r6, #0
    6fb8:	0009490e 	andeq	r4, r9, lr, lsl #18
    6fbc:	2e040500 	cfsh32cs	mvfx0, mvfx4, #0
    6fc0:	21000009 	tstcs	r0, r9
    6fc4:	0000029b 	muleq	r0, fp, r2
    6fc8:	a8060401 	stmdage	r6, {r0, sl}
    6fcc:	28000090 	stmdacs	r0, {r4, r7}
    6fd0:	01000000 	mrseq	r0, (UNDEF: 0)
    6fd4:	0009969c 	muleq	r9, ip, r6
    6fd8:	90bc2200 	adcsls	r2, ip, r0, lsl #4
    6fdc:	09780000 	ldmdbeq	r8!, {}^	; <UNPREDICTABLE>
    6fe0:	01230000 			; <UNDEFINED> instruction: 0x01230000
    6fe4:	24030550 	strcs	r0, [r3], #-1360	; 0xfffffab0
    6fe8:	0000009b 	muleq	r0, fp, r0
    6fec:	0090c424 	addseq	ip, r0, r4, lsr #8
    6ff0:	00099600 	andeq	r9, r9, r0, lsl #12
    6ff4:	00098c00 	andeq	r8, r9, r0, lsl #24
    6ff8:	50012300 	andpl	r2, r1, r0, lsl #6
    6ffc:	00640802 	rsbeq	r0, r4, r2, lsl #16
    7000:	0090c825 	addseq	ip, r0, r5, lsr #16
    7004:	0009a200 	andeq	sl, r9, r0, lsl #4
    7008:	05260000 	streq	r0, [r6, #-0]!
    700c:	05000008 	streq	r0, [r0, #-8]
    7010:	06000008 	streq	r0, [r0], -r8
    7014:	0e26064f 	cfmadda32eq	mvax2, mvax0, mvfx6, mvfx15
    7018:	0e000008 	cdpeq	0, 0, cr0, cr0, cr8, {0}
    701c:	06000008 	streq	r0, [r0], -r8
    7020:	d3000662 	movwle	r0, #1634	; 0x662
    7024:	04000009 	streq	r0, [r0], #-9
    7028:	0015c000 	andseq	ip, r5, r0
    702c:	fd010400 	stc2	4, cr0, [r1, #-0]
    7030:	0c000002 	stceq	0, cr0, [r0], {2}
    7034:	00000819 	andeq	r0, r0, r9, lsl r8
    7038:	000006da 	ldrdeq	r0, [r0], -sl
    703c:	000090d0 	ldrdeq	r9, [r0], -r0
    7040:	0000002c 	andeq	r0, r0, ip, lsr #32
    7044:	0000154b 	andeq	r1, r0, fp, asr #10
    7048:	69050402 	stmdbvs	r5, {r1, sl}
    704c:	0300746e 	movweq	r7, #1134	; 0x46e
    7050:	00660704 	rsbeq	r0, r6, r4, lsl #14
    7054:	01030000 	mrseq	r0, (UNDEF: 3)
    7058:	0002ec06 	andeq	lr, r2, r6, lsl #24
    705c:	05020300 	streq	r0, [r2, #-768]	; 0xfffffd00
    7060:	00000385 	andeq	r0, r0, r5, lsl #7
    7064:	ac050403 	cfstrsge	mvf0, [r5], {3}
    7068:	03000000 	movweq	r0, #0
    706c:	00a70508 	adceq	r0, r7, r8, lsl #10
    7070:	01030000 	mrseq	r0, (UNDEF: 3)
    7074:	0002ea08 	andeq	lr, r2, r8, lsl #20
    7078:	07020300 	streq	r0, [r2, -r0, lsl #6]
    707c:	00000222 	andeq	r0, r0, r2, lsr #4
    7080:	61070403 	tstvs	r7, r3, lsl #8
    7084:	03000000 	movweq	r0, #0
    7088:	005c0708 	subseq	r0, ip, r8, lsl #14
    708c:	73040000 	movwvc	r0, #16384	; 0x4000
    7090:	02000002 	andeq	r0, r0, #2
    7094:	00771922 	rsbseq	r1, r7, r2, lsr #18
    7098:	04050000 	streq	r0, [r5], #-0
    709c:	0000007d 	andeq	r0, r0, sp, ror r0
    70a0:	00042b06 	andeq	r2, r4, r6, lsl #22
    70a4:	02cb0400 	sbceq	r0, fp, #0, 8
    70a8:	2c030000 	stccs	0, cr0, [r3], {-0}
    70ac:	0000410e 	andeq	r4, r0, lr, lsl #2
    70b0:	04400400 	strbeq	r0, [r0], #-1024	; 0xfffffc00
    70b4:	72030000 	andvc	r0, r3, #0
    70b8:	0000410e 	andeq	r4, r0, lr, lsl #2
    70bc:	027b0700 	rsbseq	r0, fp, #0, 14
    70c0:	5e040000 	cdppl	0, 0, cr0, cr4, cr0, {0}
    70c4:	002c1701 	eoreq	r1, ip, r1, lsl #14
    70c8:	04080000 	streq	r0, [r8], #-0
    70cc:	c903a603 	stmdbgt	r3, {r0, r1, r9, sl, sp, pc}
    70d0:	09000000 	stmdbeq	r0, {}	; <UNPREDICTABLE>
    70d4:	0000026d 	andeq	r0, r0, sp, ror #4
    70d8:	9a0ca803 	bls	3310ec <__bss_end__+0x32708c>
    70dc:	09000000 	stmdbeq	r0, {}	; <UNPREDICTABLE>
    70e0:	000001e2 	andeq	r0, r0, r2, ror #3
    70e4:	c913a903 	ldmdbgt	r3, {r0, r1, r8, fp, sp, pc}
    70e8:	00000000 	andeq	r0, r0, r0
    70ec:	00004f0a 	andeq	r4, r0, sl, lsl #30
    70f0:	0000d900 	andeq	sp, r0, r0, lsl #18
    70f4:	002c0b00 	eoreq	r0, ip, r0, lsl #22
    70f8:	00030000 	andeq	r0, r3, r0
    70fc:	a303080c 	movwge	r0, #14348	; 0x380c
    7100:	0000fd09 	andeq	pc, r0, r9, lsl #26
    7104:	04230d00 	strteq	r0, [r3], #-3328	; 0xfffff300
    7108:	a5030000 	strge	r0, [r3, #-0]
    710c:	00002507 	andeq	r2, r0, r7, lsl #10
    7110:	320d0000 	andcc	r0, sp, #0
    7114:	03000004 	movweq	r0, #4
    7118:	00a705aa 	adceq	r0, r7, sl, lsr #11
    711c:	00040000 	andeq	r0, r4, r0
    7120:	0003ad04 	andeq	sl, r3, r4, lsl #26
    7124:	03ab0300 			; <UNDEFINED> instruction: 0x03ab0300
    7128:	000000d9 	ldrdeq	r0, [r0], -r9
    712c:	00019f04 	andeq	r9, r1, r4, lsl #30
    7130:	1baf0300 	blne	febc7d38 <__bss_end__+0xfebbdcd8>
    7134:	0000006b 	andeq	r0, r0, fp, rrx
    7138:	0405040e 	streq	r0, [r5], #-1038	; 0xfffffbf2
    713c:	0000011d 	andeq	r0, r0, sp, lsl r1
    7140:	f3080103 	vrhadd.u8	d0, d8, d3
    7144:	0f000002 	svceq	0x00000002
    7148:	0000011d 	andeq	r0, r0, sp, lsl r1
    714c:	00047204 	andeq	r7, r4, r4, lsl #4
    7150:	19160500 	ldmdbne	r6, {r8, sl}
    7154:	0000005d 	andeq	r0, r0, sp, asr r0
    7158:	0001b010 	andeq	fp, r1, r0, lsl r0
    715c:	2f051800 	svccs	0x00051800
    7160:	00018f08 	andeq	r8, r1, r8, lsl #30
    7164:	03ce0d00 	biceq	r0, lr, #0, 26
    7168:	31050000 	mrscc	r0, (UNDEF: 5)
    716c:	00018f13 	andeq	r8, r1, r3, lsl pc
    7170:	5f110000 	svcpl	0x00110000
    7174:	3205006b 	andcc	r0, r5, #107	; 0x6b
    7178:	00002507 	andeq	r2, r0, r7, lsl #10
    717c:	0e0d0400 	cfcpyseq	mvf0, mvf13
    7180:	05000004 	streq	r0, [r0, #-4]
    7184:	00250b32 	eoreq	r0, r5, r2, lsr fp
    7188:	0d080000 	stceq	0, cr0, [r8, #-0]
    718c:	00000199 	muleq	r0, r9, r1
    7190:	25143205 	ldrcs	r3, [r4, #-517]	; 0xfffffdfb
    7194:	0c000000 	stceq	0, cr0, [r0], {-0}
    7198:	0004ae0d 	andeq	sl, r4, sp, lsl #28
    719c:	1b320500 	blne	c885a4 <__bss_end__+0xc7e544>
    71a0:	00000025 	andeq	r0, r0, r5, lsr #32
    71a4:	785f1110 	ldmdavc	pc, {r4, r8, ip}^	; <UNPREDICTABLE>
    71a8:	0b330500 	bleq	cc85b0 <__bss_end__+0xcbe550>
    71ac:	00000195 	muleq	r0, r5, r1
    71b0:	04050014 	streq	r0, [r5], #-20	; 0xffffffec
    71b4:	00000135 	andeq	r0, r0, r5, lsr r1
    71b8:	0001290a 	andeq	r2, r1, sl, lsl #18
    71bc:	0001a500 	andeq	sl, r1, r0, lsl #10
    71c0:	002c0b00 	eoreq	r0, ip, r0, lsl #22
    71c4:	00000000 	andeq	r0, r0, r0
    71c8:	0001dd10 	andeq	sp, r1, r0, lsl sp
    71cc:	37052400 	strcc	r2, [r5, -r0, lsl #8]
    71d0:	00022808 	andeq	r2, r2, r8, lsl #16
    71d4:	009e0d00 	addseq	r0, lr, r0, lsl #26
    71d8:	39050000 	stmdbcc	r5, {}	; <UNPREDICTABLE>
    71dc:	00002509 	andeq	r2, r0, r9, lsl #10
    71e0:	480d0000 	stmdami	sp, {}	; <UNPREDICTABLE>
    71e4:	05000004 	streq	r0, [r0, #-4]
    71e8:	0025093a 	eoreq	r0, r5, sl, lsr r9
    71ec:	0d040000 	stceq	0, cr0, [r4, #-0]
    71f0:	000000c1 	andeq	r0, r0, r1, asr #1
    71f4:	25093b05 	strcs	r3, [r9, #-2821]	; 0xfffff4fb
    71f8:	08000000 	stmdaeq	r0, {}	; <UNPREDICTABLE>
    71fc:	00052f0d 	andeq	r2, r5, sp, lsl #30
    7200:	093c0500 	ldmdbeq	ip!, {r8, sl}
    7204:	00000025 	andeq	r0, r0, r5, lsr #32
    7208:	02af0d0c 	adceq	r0, pc, #12, 26	; 0x300
    720c:	3d050000 	stccc	0, cr0, [r5, #-0]
    7210:	00002509 	andeq	r2, r0, r9, lsl #10
    7214:	910d1000 	mrsls	r1, (UNDEF: 13)
    7218:	05000002 	streq	r0, [r0, #-2]
    721c:	0025093e 	eoreq	r0, r5, lr, lsr r9
    7220:	0d140000 	ldceq	0, cr0, [r4, #-0]
    7224:	000004b3 			; <UNDEFINED> instruction: 0x000004b3
    7228:	25093f05 	strcs	r3, [r9, #-3845]	; 0xfffff0fb
    722c:	18000000 	stmdane	r0, {}	; <UNPREDICTABLE>
    7230:	00038f0d 	andeq	r8, r3, sp, lsl #30
    7234:	09400500 	stmdbeq	r0, {r8, sl}^
    7238:	00000025 	andeq	r0, r0, r5, lsr #32
    723c:	04f60d1c 	ldrbteq	r0, [r6], #3356	; 0xd1c
    7240:	41050000 	mrsmi	r0, (UNDEF: 5)
    7244:	00002509 	andeq	r2, r0, r9, lsl #10
    7248:	12002000 	andne	r2, r0, #0
    724c:	00000101 	andeq	r0, r0, r1, lsl #2
    7250:	4a050108 	bmi	147678 <__bss_end__+0x13d618>
    7254:	00026d08 	andeq	r6, r2, r8, lsl #26
    7258:	018c0d00 	orreq	r0, ip, r0, lsl #26
    725c:	4b050000 	blmi	147264 <__bss_end__+0x13d204>
    7260:	00026d0a 	andeq	r6, r2, sl, lsl #26
    7264:	000d0000 	andeq	r0, sp, r0
    7268:	05000000 	streq	r0, [r0, #-0]
    726c:	026d094c 	rsbeq	r0, sp, #76, 18	; 0x130000
    7270:	13800000 	orrne	r0, r0, #0
    7274:	00000464 	andeq	r0, r0, r4, ror #8
    7278:	290a4e05 	stmdbcs	sl, {r0, r2, r9, sl, fp, lr}
    727c:	00000001 	andeq	r0, r0, r1
    7280:	01261301 			; <UNDEFINED> instruction: 0x01261301
    7284:	51050000 	mrspl	r0, (UNDEF: 5)
    7288:	0001290a 	andeq	r2, r1, sl, lsl #18
    728c:	00010400 	andeq	r0, r1, r0, lsl #8
    7290:	0001150a 	andeq	r1, r1, sl, lsl #10
    7294:	00027d00 	andeq	r7, r2, r0, lsl #26
    7298:	002c0b00 	eoreq	r0, ip, r0, lsl #22
    729c:	001f0000 	andseq	r0, pc, r0
    72a0:	0002b812 	andeq	fp, r2, r2, lsl r8
    72a4:	05019000 	streq	r9, [r1, #-0]
    72a8:	02c0085d 	sbceq	r0, r0, #6094848	; 0x5d0000
    72ac:	ce0d0000 	cdpgt	0, 0, cr0, cr13, cr0, {0}
    72b0:	05000003 	streq	r0, [r0, #-3]
    72b4:	02c0125e 	sbceq	r1, r0, #-536870907	; 0xe0000005
    72b8:	0d000000 	stceq	0, cr0, [r0, #-0]
    72bc:	000003e6 	andeq	r0, r0, r6, ror #7
    72c0:	25065f05 	strcs	r5, [r6, #-3845]	; 0xfffff0fb
    72c4:	04000000 	streq	r0, [r0], #-0
    72c8:	0001940d 	andeq	r9, r1, sp, lsl #8
    72cc:	09610500 	stmdbeq	r1!, {r8, sl}^
    72d0:	000002c6 	andeq	r0, r0, r6, asr #5
    72d4:	01010d08 	tsteq	r1, r8, lsl #26
    72d8:	62050000 	andvs	r0, r5, #0
    72dc:	0002281e 	andeq	r2, r2, lr, lsl r8
    72e0:	05008800 	streq	r8, [r0, #-2048]	; 0xfffff800
    72e4:	00027d04 	andeq	r7, r2, r4, lsl #26
    72e8:	02d60a00 	sbcseq	r0, r6, #0, 20
    72ec:	02d60000 	sbcseq	r0, r6, #0
    72f0:	2c0b0000 	stccs	0, cr0, [fp], {-0}
    72f4:	1f000000 	svcne	0x00000000
    72f8:	dc040500 	cfstr32le	mvfx0, [r4], {-0}
    72fc:	14000002 	strne	r0, [r0], #-2
    7300:	00039910 	andeq	r9, r3, r0, lsl r9
    7304:	75050800 	strvc	r0, [r5, #-2048]	; 0xfffff800
    7308:	00030508 	andeq	r0, r3, r8, lsl #10
    730c:	00bb0d00 	adcseq	r0, fp, r0, lsl #26
    7310:	76050000 	strvc	r0, [r5], -r0
    7314:	00030511 	andeq	r0, r3, r1, lsl r5
    7318:	1b0d0000 	blne	347320 <__bss_end__+0x33d2c0>
    731c:	05000000 	streq	r0, [r0, #-0]
    7320:	00250677 	eoreq	r0, r5, r7, ror r6
    7324:	00040000 	andeq	r0, r4, r0
    7328:	004f0405 	subeq	r0, pc, r5, lsl #8
    732c:	b8100000 	ldmdalt	r0, {}	; <UNPREDICTABLE>
    7330:	68000003 	stmdavs	r0, {r0, r1}
    7334:	4e08b505 	cfsh32mi	mvfx11, mvfx8, #5
    7338:	11000004 	tstne	r0, r4
    733c:	0500705f 	streq	r7, [r0, #-95]	; 0xffffffa1
    7340:	030512b6 	movweq	r1, #21174	; 0x52b6
    7344:	11000000 	mrsne	r0, (UNDEF: 0)
    7348:	0500725f 	streq	r7, [r0, #-607]	; 0xfffffda1
    734c:	002507b7 	strhteq	r0, [r5], -r7
    7350:	11040000 	mrsne	r0, (UNDEF: 4)
    7354:	0500775f 	streq	r7, [r0, #-1887]	; 0xfffff8a1
    7358:	002507b8 	strhteq	r0, [r5], -r8
    735c:	0d080000 	stceq	0, cr0, [r8, #-0]
    7360:	0000011f 	andeq	r0, r0, pc, lsl r1
    7364:	3a09b905 	bcc	275780 <__bss_end__+0x26b720>
    7368:	0c000000 	stceq	0, cr0, [r0], {-0}
    736c:	0002080d 	andeq	r0, r2, sp, lsl #16
    7370:	09ba0500 	ldmibeq	sl!, {r8, sl}
    7374:	0000003a 	andeq	r0, r0, sl, lsr r0
    7378:	625f110e 	subsvs	r1, pc, #-2147483645	; 0x80000003
    737c:	bb050066 	bllt	14751c <__bss_end__+0x13d4bc>
    7380:	0002dd11 	andeq	sp, r2, r1, lsl sp
    7384:	7b0d1000 	blvc	34b38c <__bss_end__+0x34132c>
    7388:	05000000 	streq	r0, [r0, #-0]
    738c:	002507bc 	strhteq	r0, [r5], -ip
    7390:	0d180000 	ldceq	0, cr0, [r8, #-0]
    7394:	0000010f 	andeq	r0, r0, pc, lsl #2
    7398:	150ac305 	strne	ip, [sl, #-773]	; 0xfffffcfb
    739c:	1c000001 	stcne	0, cr0, [r0], {1}
    73a0:	000b3d0d 	andeq	r3, fp, sp, lsl #26
    73a4:	1dc50500 	cfstr64ne	mvdx0, [r5]
    73a8:	000005c0 	andeq	r0, r0, r0, asr #11
    73ac:	06320d20 	ldrteq	r0, [r2], -r0, lsr #26
    73b0:	c7050000 	strgt	r0, [r5, -r0]
    73b4:	0005ea1d 	andeq	lr, r5, sp, lsl sl
    73b8:	3a0d2400 	bcc	3503c0 <__bss_end__+0x346360>
    73bc:	05000004 	streq	r0, [r0, #-4]
    73c0:	060e0dca 	streq	r0, [lr], -sl, asr #27
    73c4:	0d280000 	stceq	0, cr0, [r8, #-0]
    73c8:	00000510 	andeq	r0, r0, r0, lsl r5
    73cc:	2809cb05 	stmdacs	r9, {r0, r2, r8, r9, fp, lr, pc}
    73d0:	2c000006 	stccs	0, cr0, [r0], {6}
    73d4:	62755f11 	rsbsvs	r5, r5, #17, 30	; 0x44
    73d8:	11ce0500 	bicne	r0, lr, r0, lsl #10
    73dc:	000002dd 	ldrdeq	r0, [r0], -sp
    73e0:	755f1130 	ldrbvc	r1, [pc, #-304]	; 72b8 <_start-0xd48>
    73e4:	cf050070 	svcgt	0x00050070
    73e8:	00030512 	andeq	r0, r3, r2, lsl r5
    73ec:	5f113800 	svcpl	0x00113800
    73f0:	05007275 	streq	r7, [r0, #-629]	; 0xfffffd8b
    73f4:	002507d0 	ldrdeq	r0, [r5], -r0	; <UNPREDICTABLE>
    73f8:	0d3c0000 	ldceq	0, cr0, [ip, #-0]
    73fc:	000000b5 	strheq	r0, [r0], -r5
    7400:	2e11d305 	cdpcs	3, 1, cr13, cr1, cr5, {0}
    7404:	40000006 	andmi	r0, r0, r6
    7408:	0004e80d 	andeq	lr, r4, sp, lsl #16
    740c:	11d40500 	bicsne	r0, r4, r0, lsl #10
    7410:	0000063e 	andeq	r0, r0, lr, lsr r6
    7414:	6c5f1143 	ldfvse	f1, [pc], {67}	; 0x43
    7418:	d7050062 	strle	r0, [r5, -r2, rrx]
    741c:	0002dd11 	andeq	sp, r2, r1, lsl sp
    7420:	3d0d4400 	cfstrscc	mvf4, [sp, #-0]
    7424:	05000001 	streq	r0, [r0, #-1]
    7428:	002507da 	ldrdeq	r0, [r5], -sl	; <UNPREDICTABLE>
    742c:	0d4c0000 	stcleq	0, cr0, [ip, #-0]
    7430:	0000014e 	andeq	r0, r0, lr, asr #2
    7434:	820adb05 	andhi	sp, sl, #5120	; 0x1400
    7438:	50000000 	andpl	r0, r0, r0
    743c:	000ade0d 	andeq	sp, sl, sp, lsl #28
    7440:	12de0500 	sbcsne	r0, lr, #0, 10
    7444:	0000046c 	andeq	r0, r0, ip, ror #8
    7448:	042c0d54 	strteq	r0, [ip], #-3412	; 0xfffff2ac
    744c:	e2050000 	and	r0, r5, #0
    7450:	0001090c 	andeq	r0, r1, ip, lsl #18
    7454:	c00d5800 	andgt	r5, sp, r0, lsl #16
    7458:	05000003 	streq	r0, [r0, #-3]
    745c:	00fd0ee4 	rscseq	r0, sp, r4, ror #29
    7460:	0d5c0000 	ldcleq	0, cr0, [ip, #-0]
    7464:	00000289 	andeq	r0, r0, r9, lsl #5
    7468:	2509e505 	strcs	lr, [r9, #-1285]	; 0xfffffafb
    746c:	64000000 	strvs	r0, [r0], #-0
    7470:	00251500 	eoreq	r1, r5, r0, lsl #10
    7474:	046c0000 	strbteq	r0, [ip], #-0
    7478:	6c160000 	ldcvs	0, cr0, [r6], {-0}
    747c:	16000004 	strne	r0, [r0], -r4
    7480:	00000115 	andeq	r0, r0, r5, lsl r1
    7484:	00011716 	andeq	r1, r1, r6, lsl r7
    7488:	00251600 	eoreq	r1, r5, r0, lsl #12
    748c:	05000000 	streq	r0, [r0, #-0]
    7490:	00047704 	andeq	r7, r4, r4, lsl #14
    7494:	046c0f00 	strbteq	r0, [ip], #-3840	; 0xfffff100
    7498:	16170000 	ldrne	r0, [r7], -r0
    749c:	28000004 	stmdacs	r0, {r2}
    74a0:	02600504 	rsbeq	r0, r0, #4, 10	; 0x1000000
    74a4:	0005c008 	andeq	ip, r5, r8
    74a8:	037e1800 	cmneq	lr, #0, 16
    74ac:	62050000 	andvs	r0, r5, #0
    74b0:	00250702 	eoreq	r0, r5, r2, lsl #14
    74b4:	18000000 	stmdane	r0, {}	; <UNPREDICTABLE>
    74b8:	0000012e 	andeq	r0, r0, lr, lsr #2
    74bc:	0b026705 	bleq	a10d8 <__bss_end__+0x97078>
    74c0:	0000069a 	muleq	r0, sl, r6
    74c4:	01f81804 	mvnseq	r1, r4, lsl #16
    74c8:	67050000 	strvs	r0, [r5, -r0]
    74cc:	069a1402 	ldreq	r1, [sl], r2, lsl #8
    74d0:	18080000 	stmdane	r8, {}	; <UNPREDICTABLE>
    74d4:	000001a8 	andeq	r0, r0, r8, lsr #3
    74d8:	1e026705 	cdpne	7, 0, cr6, cr2, cr5, {0}
    74dc:	0000069a 	muleq	r0, sl, r6
    74e0:	03e1180c 	mvneq	r1, #12, 16	; 0xc0000
    74e4:	69050000 	stmdbvs	r5, {}	; <UNPREDICTABLE>
    74e8:	00250802 	eoreq	r0, r5, r2, lsl #16
    74ec:	18100000 	ldmdane	r0, {}	; <UNPREDICTABLE>
    74f0:	00000029 	andeq	r0, r0, r9, lsr #32
    74f4:	08026a05 	stmdaeq	r2, {r0, r2, r9, fp, sp, lr}
    74f8:	0000089a 	muleq	r0, sl, r8
    74fc:	03f51814 	mvnseq	r1, #20, 16	; 0x140000
    7500:	6d050000 	stcvs	0, cr0, [r5, #-0]
    7504:	00250702 	eoreq	r0, r5, r2, lsl #14
    7508:	18300000 	ldmdane	r0!, {}	; <UNPREDICTABLE>
    750c:	00000a1a 	andeq	r0, r0, sl, lsl sl
    7510:	16026e05 	strne	r6, [r2], -r5, lsl #28
    7514:	000008af 	andeq	r0, r0, pc, lsr #17
    7518:	02c01834 	sbceq	r1, r0, #52, 16	; 0x340000
    751c:	70050000 	andvc	r0, r5, r0
    7520:	00250702 	eoreq	r0, r5, r2, lsl #14
    7524:	18380000 	ldmdane	r8!, {}	; <UNPREDICTABLE>
    7528:	000003eb 	andeq	r0, r0, fp, ror #7
    752c:	0a027205 	beq	a3d48 <__bss_end__+0x99ce8>
    7530:	000008c0 	andeq	r0, r0, r0, asr #17
    7534:	0265183c 	rsbeq	r1, r5, #60, 16	; 0x3c0000
    7538:	75050000 	strvc	r0, [r5, #-0]
    753c:	018f1302 	orreq	r1, pc, r2, lsl #6
    7540:	18400000 	stmdane	r0, {}^	; <UNPREDICTABLE>
    7544:	000001c7 	andeq	r0, r0, r7, asr #3
    7548:	07027605 	streq	r7, [r2, -r5, lsl #12]
    754c:	00000025 	andeq	r0, r0, r5, lsr #32
    7550:	052a1844 	streq	r1, [sl, #-2116]!	; 0xfffff7bc
    7554:	77050000 	strvc	r0, [r5, -r0]
    7558:	018f1302 	orreq	r1, pc, r2, lsl #6
    755c:	18480000 	stmdane	r8, {}^	; <UNPREDICTABLE>
    7560:	000002d2 	ldrdeq	r0, [r0], -r2
    7564:	14027805 	strne	r7, [r2], #-2053	; 0xfffff7fb
    7568:	000008c6 	andeq	r0, r0, r6, asr #17
    756c:	0200184c 	andeq	r1, r0, #76, 16	; 0x4c0000
    7570:	7b050000 	blvc	147578 <__bss_end__+0x13d518>
    7574:	00250702 	eoreq	r0, r5, r2, lsl #14
    7578:	18500000 	ldmdane	r0, {}^	; <UNPREDICTABLE>
    757c:	00000146 	andeq	r0, r0, r6, asr #2
    7580:	09027c05 	stmdbeq	r2, {r0, r2, sl, fp, ip, sp, lr}
    7584:	00000117 	andeq	r0, r0, r7, lsl r1
    7588:	02f81854 	rscseq	r1, r8, #84, 16	; 0x540000
    758c:	9f050000 	svcls	0x00050000
    7590:	08750702 	ldmdaeq	r5!, {r1, r8, r9, sl}^
    7594:	19580000 	ldmdbne	r8, {}^	; <UNPREDICTABLE>
    7598:	000002b8 			; <UNDEFINED> instruction: 0x000002b8
    759c:	1302a305 	movwne	sl, #8965	; 0x2305
    75a0:	000002c0 	andeq	r0, r0, r0, asr #5
    75a4:	43190148 	tstmi	r9, #72, 2
    75a8:	05000002 	streq	r0, [r0, #-2]
    75ac:	7d1202a4 	lfmvc	f0, 4, [r2, #-656]	; 0xfffffd70
    75b0:	4c000002 	stcmi	0, cr0, [r0], {2}
    75b4:	04d61901 	ldrbeq	r1, [r6], #2305	; 0x901
    75b8:	a8050000 	stmdage	r5, {}	; <UNPREDICTABLE>
    75bc:	08d70c02 	ldmeq	r7, {r1, sl, fp}^
    75c0:	02dc0000 	sbcseq	r0, ip, #0
    75c4:	00011719 	andeq	r1, r1, r9, lsl r7
    75c8:	02ad0500 	adceq	r0, sp, #0, 10
    75cc:	00065b10 	andeq	r5, r6, r0, lsl fp
    75d0:	1902e000 	stmdbne	r2, {sp, lr, pc}
    75d4:	000000fc 	strdeq	r0, [r0], -ip
    75d8:	0a02af05 	beq	b31f4 <__bss_end__+0xa9194>
    75dc:	000008e3 	andeq	r0, r0, r3, ror #17
    75e0:	050002ec 	streq	r0, [r0, #-748]	; 0xfffffd14
    75e4:	00044e04 	andeq	r4, r4, r4, lsl #28
    75e8:	00251500 	eoreq	r1, r5, r0, lsl #10
    75ec:	05e40000 	strbeq	r0, [r4, #0]!
    75f0:	6c160000 	ldcvs	0, cr0, [r6], {-0}
    75f4:	16000004 	strne	r0, [r0], -r4
    75f8:	00000115 	andeq	r0, r0, r5, lsl r1
    75fc:	0005e416 	andeq	lr, r5, r6, lsl r4
    7600:	00251600 	eoreq	r1, r5, r0, lsl #12
    7604:	05000000 	streq	r0, [r0, #-0]
    7608:	00012404 	andeq	r2, r1, r4, lsl #8
    760c:	c6040500 	strgt	r0, [r4], -r0, lsl #10
    7610:	15000005 	strne	r0, [r0, #-5]
    7614:	0000008e 	andeq	r0, r0, lr, lsl #1
    7618:	0000060e 	andeq	r0, r0, lr, lsl #12
    761c:	00046c16 	andeq	r6, r4, r6, lsl ip
    7620:	01151600 	tsteq	r5, r0, lsl #12
    7624:	8e160000 	cdphi	0, 1, cr0, cr6, cr0, {0}
    7628:	16000000 	strne	r0, [r0], -r0
    762c:	00000025 	andeq	r0, r0, r5, lsr #32
    7630:	f0040500 			; <UNDEFINED> instruction: 0xf0040500
    7634:	15000005 	strne	r0, [r0, #-5]
    7638:	00000025 	andeq	r0, r0, r5, lsr #32
    763c:	00000628 	andeq	r0, r0, r8, lsr #12
    7640:	00046c16 	andeq	r6, r4, r6, lsl ip
    7644:	01151600 	tsteq	r5, r0, lsl #12
    7648:	05000000 	streq	r0, [r0, #-0]
    764c:	00061404 	andeq	r1, r6, r4, lsl #8
    7650:	004f0a00 	subeq	r0, pc, r0, lsl #20
    7654:	063e0000 	ldrteq	r0, [lr], -r0
    7658:	2c0b0000 	stccs	0, cr0, [fp], {-0}
    765c:	02000000 	andeq	r0, r0, #0
    7660:	004f0a00 	subeq	r0, pc, r0, lsl #20
    7664:	064e0000 	strbeq	r0, [lr], -r0
    7668:	2c0b0000 	stccs	0, cr0, [fp], {-0}
    766c:	00000000 	andeq	r0, r0, r0
    7670:	03a60700 			; <UNDEFINED> instruction: 0x03a60700
    7674:	1f050000 	svcne	0x00050000
    7678:	030b1a01 	movweq	r1, #47617	; 0xba01
    767c:	bd1a0000 	ldclt	0, cr0, [sl, #-0]
    7680:	0c000004 	stceq	0, cr0, [r0], {4}
    7684:	08012305 	stmdaeq	r1, {r0, r2, r8, r9, sp}
    7688:	00000694 	muleq	r0, r4, r6
    768c:	0003ce18 	andeq	ip, r3, r8, lsl lr
    7690:	01250500 			; <UNDEFINED> instruction: 0x01250500
    7694:	00069411 	andeq	r9, r6, r1, lsl r4
    7698:	1b180000 	blne	6076a0 <__bss_end__+0x5fd640>
    769c:	05000002 	streq	r0, [r0, #-2]
    76a0:	25070126 	strcs	r0, [r7, #-294]	; 0xfffffeda
    76a4:	04000000 	streq	r0, [r0], #-0
    76a8:	0003a018 	andeq	sl, r3, r8, lsl r0
    76ac:	01270500 			; <UNDEFINED> instruction: 0x01270500
    76b0:	00069a0b 	andeq	r9, r6, fp, lsl #20
    76b4:	05000800 	streq	r0, [r0, #-2048]	; 0xfffff800
    76b8:	00065b04 	andeq	r5, r6, r4, lsl #22
    76bc:	4e040500 	cfsh32mi	mvfx0, mvfx4, #0
    76c0:	1a000006 	bne	76e0 <_start-0x920>
    76c4:	00000021 	andeq	r0, r0, r1, lsr #32
    76c8:	013f050e 	teqeq	pc, lr, lsl #10
    76cc:	0006d908 	andeq	sp, r6, r8, lsl #18
    76d0:	041d1800 	ldreq	r1, [sp], #-2048	; 0xfffff800
    76d4:	40050000 	andmi	r0, r5, r0
    76d8:	06d91201 	ldrbeq	r1, [r9], r1, lsl #4
    76dc:	18000000 	stmdane	r0, {}	; <UNPREDICTABLE>
    76e0:	00000451 	andeq	r0, r0, r1, asr r4
    76e4:	12014105 	andne	r4, r1, #1073741825	; 0x40000001
    76e8:	000006d9 	ldrdeq	r0, [r0], -r9
    76ec:	046d1806 	strbteq	r1, [sp], #-2054	; 0xfffff7fa
    76f0:	42050000 	andmi	r0, r5, #0
    76f4:	00561201 	subseq	r1, r6, r1, lsl #4
    76f8:	000c0000 	andeq	r0, ip, r0
    76fc:	0000560a 	andeq	r5, r0, sl, lsl #12
    7700:	0006e900 	andeq	lr, r6, r0, lsl #18
    7704:	002c0b00 	eoreq	r0, ip, r0, lsl #22
    7708:	00020000 	andeq	r0, r2, r0
    770c:	8005d01b 	andhi	sp, r5, fp, lsl r0
    7710:	07fe0702 	ldrbeq	r0, [lr, r2, lsl #14]!
    7714:	a1180000 	tstge	r8, r0
    7718:	05000004 	streq	r0, [r0, #-4]
    771c:	2c180282 	lfmcs	f0, 4, [r8], {130}	; 0x82
    7720:	00000000 	andeq	r0, r0, r0
    7724:	00045718 	andeq	r5, r4, r8, lsl r7
    7728:	02830500 	addeq	r0, r3, #0, 10
    772c:	00011712 	andeq	r1, r1, r2, lsl r7
    7730:	58180400 	ldmdapl	r8, {sl}
    7734:	05000002 	streq	r0, [r0, #-2]
    7738:	fe100284 	cdp2	2, 1, cr0, cr0, cr4, {4}
    773c:	08000007 	stmdaeq	r0, {r0, r1, r2}
    7740:	00050118 	andeq	r0, r5, r8, lsl r1
    7744:	02850500 	addeq	r0, r5, #0, 10
    7748:	0001a517 	andeq	sl, r1, r7, lsl r5
    774c:	b8182400 	ldmdalt	r8, {sl, sp}
    7750:	05000001 	streq	r0, [r0, #-1]
    7754:	250f0286 	strcs	r0, [pc, #-646]	; 74d6 <_start-0xb2a>
    7758:	48000000 	stmdami	r0, {}	; <UNPREDICTABLE>
    775c:	0003c918 	andeq	ip, r3, r8, lsl r9
    7760:	02870500 	addeq	r0, r7, #0, 10
    7764:	0000642c 	andeq	r6, r0, ip, lsr #8
    7768:	17185000 	ldrne	r5, [r8, -r0]
    776c:	05000005 	streq	r0, [r0, #-5]
    7770:	a01a0288 	andsge	r0, sl, r8, lsl #5
    7774:	58000006 	stmdapl	r0, {r1, r2}
    7778:	0003d418 	andeq	sp, r3, r8, lsl r4
    777c:	02890500 	addeq	r0, r9, #0, 10
    7780:	0000fd16 	andeq	pc, r0, r6, lsl sp	; <UNPREDICTABLE>
    7784:	1c186800 	ldcne	8, cr6, [r8], {-0}
    7788:	05000005 	streq	r0, [r0, #-5]
    778c:	fd16028a 	ldc2	2, cr0, [r6, #-552]	; 0xfffffdd8
    7790:	70000000 	andvc	r0, r0, r0
    7794:	0002dc18 	andeq	sp, r2, r8, lsl ip
    7798:	028b0500 	addeq	r0, fp, #0, 10
    779c:	0000fd16 	andeq	pc, r0, r6, lsl sp	; <UNPREDICTABLE>
    77a0:	cc187800 	ldcgt	8, cr7, [r8], {-0}
    77a4:	05000004 	streq	r0, [r0, #-4]
    77a8:	0e10028c 	cdpeq	2, 1, cr0, cr0, cr12, {4}
    77ac:	80000008 	andhi	r0, r0, r8
    77b0:	00024c18 	andeq	r4, r2, r8, lsl ip
    77b4:	028d0500 	addeq	r0, sp, #0, 10
    77b8:	00081e10 	andeq	r1, r8, r0, lsl lr
    77bc:	7a188800 	bvc	6297c4 <__bss_end__+0x61f764>
    77c0:	05000004 	streq	r0, [r0, #-4]
    77c4:	250f028e 	strcs	r0, [pc, #-654]	; 753e <_start-0xac2>
    77c8:	a0000000 	andge	r0, r0, r0
    77cc:	00017e18 	andeq	r7, r1, r8, lsl lr
    77d0:	028f0500 	addeq	r0, pc, #0, 10
    77d4:	0000fd16 	andeq	pc, r0, r6, lsl sp	; <UNPREDICTABLE>
    77d8:	8f18a400 	svchi	0x0018a400
    77dc:	05000000 	streq	r0, [r0, #-0]
    77e0:	fd160290 	ldc2	2, cr0, [r6, #-576]	; 0xfffffdc0
    77e4:	ac000000 	stcge	0, cr0, [r0], {-0}
    77e8:	00016d18 	andeq	r6, r1, r8, lsl sp
    77ec:	02910500 	addseq	r0, r1, #0, 10
    77f0:	0000fd16 	andeq	pc, r0, r6, lsl sp	; <UNPREDICTABLE>
    77f4:	3c18b400 	cfldrscc	mvf11, [r8], {-0}
    77f8:	05000000 	streq	r0, [r0, #-0]
    77fc:	fd160292 	ldc2	2, cr0, [r6, #-584]	; 0xfffffdb8
    7800:	bc000000 	stclt	0, cr0, [r0], {-0}
    7804:	00004b18 	andeq	r4, r0, r8, lsl fp
    7808:	02930500 	addseq	r0, r3, #0, 10
    780c:	0000fd16 	andeq	pc, r0, r6, lsl sp	; <UNPREDICTABLE>
    7810:	7c18c400 	cfldrsvc	mvf12, [r8], {-0}
    7814:	05000003 	streq	r0, [r0, #-3]
    7818:	25080294 	strcs	r0, [r8, #-660]	; 0xfffffd6c
    781c:	cc000000 	stcgt	0, cr0, [r0], {-0}
    7820:	011d0a00 	tsteq	sp, r0, lsl #20
    7824:	080e0000 	stmdaeq	lr, {}	; <UNPREDICTABLE>
    7828:	2c0b0000 	stccs	0, cr0, [fp], {-0}
    782c:	19000000 	stmdbne	r0, {}	; <UNPREDICTABLE>
    7830:	011d0a00 	tsteq	sp, r0, lsl #20
    7834:	081e0000 	ldmdaeq	lr, {}	; <UNPREDICTABLE>
    7838:	2c0b0000 	stccs	0, cr0, [fp], {-0}
    783c:	07000000 	streq	r0, [r0, -r0]
    7840:	011d0a00 	tsteq	sp, r0, lsl #20
    7844:	082e0000 	stmdaeq	lr!, {}	; <UNPREDICTABLE>
    7848:	2c0b0000 	stccs	0, cr0, [fp], {-0}
    784c:	17000000 	strne	r0, [r0, -r0]
    7850:	05f01b00 	ldrbeq	r1, [r0, #2816]!	; 0xb00
    7854:	55070299 	strpl	r0, [r7, #-665]	; 0xfffffd67
    7858:	18000008 	stmdane	r0, {r3}
    785c:	000002a8 	andeq	r0, r0, r8, lsr #5
    7860:	1b029c05 	blne	ae87c <__bss_end__+0xa481c>
    7864:	00000855 	andeq	r0, r0, r5, asr r8
    7868:	04c31800 	strbeq	r1, [r3], #2048	; 0x800
    786c:	9d050000 	stcls	0, cr0, [r5, #-0]
    7870:	08651802 	stmdaeq	r5!, {r1, fp, ip}^
    7874:	00780000 	rsbseq	r0, r8, r0
    7878:	0003050a 	andeq	r0, r3, sl, lsl #10
    787c:	00086500 	andeq	r6, r8, r0, lsl #10
    7880:	002c0b00 	eoreq	r0, ip, r0, lsl #22
    7884:	001d0000 	andseq	r0, sp, r0
    7888:	00002c0a 	andeq	r2, r0, sl, lsl #24
    788c:	00087500 	andeq	r7, r8, r0, lsl #10
    7890:	002c0b00 	eoreq	r0, ip, r0, lsl #22
    7894:	001d0000 	andseq	r0, sp, r0
    7898:	7e05f01c 	mcrvc	0, 0, pc, cr5, cr12, {0}	; <UNPREDICTABLE>
    789c:	089a0302 	ldmeq	sl, {r1, r8, r9}
    78a0:	161d0000 	ldrne	r0, [sp], -r0
    78a4:	05000004 	streq	r0, [r0, #-4]
    78a8:	e90b0295 	stmdb	fp, {r0, r2, r4, r7, r9}
    78ac:	1d000006 	stcne	0, cr0, [r0, #-24]	; 0xffffffe8
    78b0:	000004ee 	andeq	r0, r0, lr, ror #9
    78b4:	0b029e05 	bleq	af0d0 <__bss_end__+0xa5070>
    78b8:	0000082e 	andeq	r0, r0, lr, lsr #16
    78bc:	011d0a00 	tsteq	sp, r0, lsl #20
    78c0:	08aa0000 	stmiaeq	sl!, {}	; <UNPREDICTABLE>
    78c4:	2c0b0000 	stccs	0, cr0, [fp], {-0}
    78c8:	18000000 	stmdane	r0, {}	; <UNPREDICTABLE>
    78cc:	00840600 	addeq	r0, r4, r0, lsl #12
    78d0:	04050000 	streq	r0, [r5], #-0
    78d4:	000008aa 	andeq	r0, r0, sl, lsr #17
    78d8:	0008c01e 	andeq	ip, r8, lr, lsl r0
    78dc:	046c1600 	strbteq	r1, [ip], #-1536	; 0xfffffa00
    78e0:	05000000 	streq	r0, [r0, #-0]
    78e4:	0008b504 	andeq	fp, r8, r4, lsl #10
    78e8:	8f040500 	svchi	0x00040500
    78ec:	1e000001 	cdpne	0, 0, cr0, cr0, cr1, {0}
    78f0:	000008d7 	ldrdeq	r0, [r0], -r7
    78f4:	00002516 	andeq	r2, r0, r6, lsl r5
    78f8:	04050000 	streq	r0, [r5], #-0
    78fc:	000008dd 	ldrdeq	r0, [r0], -sp
    7900:	08cc0405 	stmiaeq	ip, {r0, r2, sl}^
    7904:	4e0a0000 	cdpmi	0, 0, cr0, cr10, cr0, {0}
    7908:	f3000006 	vhadd.u8	d0, d0, d6
    790c:	0b000008 	bleq	7934 <_start-0x6cc>
    7910:	0000002c 	andeq	r0, r0, ip, lsr #32
    7914:	8e1f0002 	cdphi	0, 1, cr0, cr15, cr2, {0}
    7918:	05000004 	streq	r0, [r0, #-4]
    791c:	6c17032e 	ldcvs	3, cr0, [r7], {46}	; 0x2e
    7920:	1f000004 	svcne	0x00000004
    7924:	00000487 	andeq	r0, r0, r7, lsl #9
    7928:	1d032f05 	stcne	15, cr2, [r3, #-20]	; 0xffffffec
    792c:	00000472 	andeq	r0, r0, r2, ror r4
    7930:	00002515 	andeq	r2, r0, r5, lsl r5
    7934:	00091c00 	andeq	r1, r9, r0, lsl #24
    7938:	00251600 	eoreq	r1, r5, r0, lsl #12
    793c:	20000000 	andcs	r0, r0, r0
    7940:	000001d1 	ldrdeq	r0, [r0], -r1
    7944:	280e1d06 	stmdacs	lr, {r1, r2, r8, sl, fp, ip}
    7948:	05000009 	streq	r0, [r0, #-9]
    794c:	00090d04 	andeq	r0, r9, r4, lsl #26
    7950:	00251500 	eoreq	r1, r5, r0, lsl #10
    7954:	093d0000 	ldmdbeq	sp!, {}	; <UNPREDICTABLE>
    7958:	e4160000 	ldr	r0, [r6], #-0
    795c:	00000005 	andeq	r0, r0, r5
    7960:	00078120 	andeq	r8, r7, r0, lsr #2
    7964:	0e220600 	cfmadda32eq	mvax0, mvax0, mvfx2, mvfx0
    7968:	00000949 	andeq	r0, r0, r9, asr #18
    796c:	092e0405 	stmdbeq	lr!, {r0, r2, sl}
    7970:	2c210000 	stccs	0, cr0, [r1], #-0
    7974:	01000008 	tsteq	r0, r8
    7978:	90d0060d 	sbcsls	r0, r0, sp, lsl #12
    797c:	002c0000 	eoreq	r0, ip, r0
    7980:	9c010000 	stcls	0, cr0, [r1], {-0}
    7984:	000009b8 			; <UNDEFINED> instruction: 0x000009b8
    7988:	00083c20 	andeq	r3, r8, r0, lsr #24
    798c:	100e0100 	andne	r0, lr, r0, lsl #2
    7990:	00000025 	andeq	r0, r0, r5, lsr #32
    7994:	00084a20 	andeq	r4, r8, r0, lsr #20
    7998:	1f0e0100 	svcne	0x000e0100
    799c:	00000025 	andeq	r0, r0, r5, lsr #32
    79a0:	00003422 	andeq	r3, r0, r2, lsr #8
    79a4:	070f0100 	streq	r0, [pc, -r0, lsl #2]
    79a8:	73736223 	cmnvc	r3, #805306370	; 0x30000002
    79ac:	0a110100 	beq	447db4 <__bss_end__+0x43dd54>
    79b0:	000009b8 			; <UNDEFINED> instruction: 0x000009b8
    79b4:	00001235 	andeq	r1, r0, r5, lsr r2
    79b8:	0000122f 	andeq	r1, r0, pc, lsr #4
    79bc:	00083424 	andeq	r3, r8, r4, lsr #8
    79c0:	0a120100 	beq	487dc8 <__bss_end__+0x47dd68>
    79c4:	000009b8 			; <UNDEFINED> instruction: 0x000009b8
    79c8:	0090f025 	addseq	pc, r0, r5, lsr #32
    79cc:	0009be00 	andeq	fp, r9, r0, lsl #28
    79d0:	90f42500 	rscsls	r2, r4, r0, lsl #10
    79d4:	09ca0000 	stmibeq	sl, {}^	; <UNPREDICTABLE>
    79d8:	05000000 	streq	r0, [r0, #-0]
    79dc:	00002504 	andeq	r2, r0, r4, lsl #10
    79e0:	00342600 	eorseq	r2, r4, r0, lsl #12
    79e4:	00340000 	eorseq	r0, r4, r0
    79e8:	d7060000 	strle	r0, [r6, -r0]
    79ec:	029b2606 	addseq	r2, fp, #6291456	; 0x600000
    79f0:	029b0000 	addseq	r0, fp, #0
    79f4:	65060000 	strvs	r0, [r6, #-0]
    79f8:	0a9b0006 	beq	fe6c7a18 <__bss_end__+0xfe6bd9b8>
    79fc:	00040000 	andeq	r0, r4, r0
    7a00:	000017e3 	andeq	r1, r0, r3, ror #15
    7a04:	02fd0104 	rscseq	r0, sp, #4, 2
    7a08:	960c0000 	strls	r0, [ip], -r0
    7a0c:	da000008 	ble	7a34 <_start-0x5cc>
    7a10:	68000006 	stmdavs	r0, {r1, r2}
    7a14:	00000000 	andeq	r0, r0, r0
    7a18:	53000000 	movwpl	r0, #0
    7a1c:	02000016 	andeq	r0, r0, #22
    7a20:	6e690504 	cdpvs	5, 6, cr0, cr9, cr4, {0}
    7a24:	25030074 	strcs	r0, [r3, #-116]	; 0xffffff8c
    7a28:	04000000 	streq	r0, [r0], #-0
    7a2c:	00660704 	rsbeq	r0, r6, r4, lsl #14
    7a30:	01040000 	mrseq	r0, (UNDEF: 4)
    7a34:	0002ec06 	andeq	lr, r2, r6, lsl #24
    7a38:	05020400 	streq	r0, [r2, #-1024]	; 0xfffffc00
    7a3c:	00000385 	andeq	r0, r0, r5, lsl #7
    7a40:	ac050404 	cfstrsge	mvf0, [r5], {4}
    7a44:	04000000 	streq	r0, [r0], #-0
    7a48:	00a70508 	adceq	r0, r7, r8, lsl #10
    7a4c:	01040000 	mrseq	r0, (UNDEF: 4)
    7a50:	0002ea08 	andeq	lr, r2, r8, lsl #20
    7a54:	07020400 	streq	r0, [r2, -r0, lsl #8]
    7a58:	00000222 	andeq	r0, r0, r2, lsr #4
    7a5c:	61070404 	tstvs	r7, r4, lsl #8
    7a60:	04000000 	streq	r0, [r0], #-0
    7a64:	005c0708 	subseq	r0, ip, r8, lsl #14
    7a68:	73050000 	movwvc	r0, #20480	; 0x5000
    7a6c:	02000002 	andeq	r0, r0, #2
    7a70:	007c1922 	rsbseq	r1, ip, r2, lsr #18
    7a74:	04060000 	streq	r0, [r6], #-0
    7a78:	00000082 	andeq	r0, r0, r2, lsl #1
    7a7c:	00042b07 	andeq	r2, r4, r7, lsl #22
    7a80:	02cb0500 	sbceq	r0, fp, #0, 10
    7a84:	2c030000 	stccs	0, cr0, [r3], {-0}
    7a88:	0000460e 	andeq	r4, r0, lr, lsl #12
    7a8c:	04400500 	strbeq	r0, [r0], #-1280	; 0xfffffb00
    7a90:	72030000 	andvc	r0, r3, #0
    7a94:	0000460e 	andeq	r4, r0, lr, lsl #12
    7a98:	027b0800 	rsbseq	r0, fp, #0, 16
    7a9c:	5e040000 	cdppl	0, 0, cr0, cr4, cr0, {0}
    7aa0:	00311701 	eorseq	r1, r1, r1, lsl #14
    7aa4:	04090000 	streq	r0, [r9], #-0
    7aa8:	ce03a603 	cfmadd32gt	mvax0, mvfx10, mvfx3, mvfx3
    7aac:	0a000000 	beq	7ab4 <_start-0x54c>
    7ab0:	0000026d 	andeq	r0, r0, sp, ror #4
    7ab4:	9f0ca803 	svcls	0x000ca803
    7ab8:	0a000000 	beq	7ac0 <_start-0x540>
    7abc:	000001e2 	andeq	r0, r0, r2, ror #3
    7ac0:	ce13a903 	vnmlsgt.f16	s20, s6, s6	; <UNPREDICTABLE>
    7ac4:	00000000 	andeq	r0, r0, r0
    7ac8:	0000540b 	andeq	r5, r0, fp, lsl #8
    7acc:	0000de00 	andeq	sp, r0, r0, lsl #28
    7ad0:	00310c00 	eorseq	r0, r1, r0, lsl #24
    7ad4:	00030000 	andeq	r0, r3, r0
    7ad8:	a303080d 	movwge	r0, #14349	; 0x380d
    7adc:	00010209 	andeq	r0, r1, r9, lsl #4
    7ae0:	04230e00 	strteq	r0, [r3], #-3584	; 0xfffff200
    7ae4:	a5030000 	strge	r0, [r3, #-0]
    7ae8:	00002507 	andeq	r2, r0, r7, lsl #10
    7aec:	320e0000 	andcc	r0, lr, #0
    7af0:	03000004 	movweq	r0, #4
    7af4:	00ac05aa 	adceq	r0, ip, sl, lsr #11
    7af8:	00040000 	andeq	r0, r4, r0
    7afc:	0003ad05 	andeq	sl, r3, r5, lsl #26
    7b00:	03ab0300 			; <UNDEFINED> instruction: 0x03ab0300
    7b04:	000000de 	ldrdeq	r0, [r0], -lr
    7b08:	00019f05 	andeq	r9, r1, r5, lsl #30
    7b0c:	1baf0300 	blne	febc8714 <__bss_end__+0xfebbe6b4>
    7b10:	00000070 	andeq	r0, r0, r0, ror r0
    7b14:	0406040f 	streq	r0, [r6], #-1039	; 0xfffffbf1
    7b18:	00000122 	andeq	r0, r0, r2, lsr #2
    7b1c:	f3080104 	vrhadd.u8	d0, d8, d4
    7b20:	03000002 	movweq	r0, #2
    7b24:	00000122 	andeq	r0, r0, r2, lsr #2
    7b28:	00047205 	andeq	r7, r4, r5, lsl #4
    7b2c:	19160500 	ldmdbne	r6, {r8, sl}
    7b30:	00000062 	andeq	r0, r0, r2, rrx
    7b34:	0001b010 	andeq	fp, r1, r0, lsl r0
    7b38:	2f051800 	svccs	0x00051800
    7b3c:	00019408 	andeq	r9, r1, r8, lsl #8
    7b40:	03ce0e00 	biceq	r0, lr, #0, 28
    7b44:	31050000 	mrscc	r0, (UNDEF: 5)
    7b48:	00019413 	andeq	r9, r1, r3, lsl r4
    7b4c:	5f110000 	svcpl	0x00110000
    7b50:	3205006b 	andcc	r0, r5, #107	; 0x6b
    7b54:	00002507 	andeq	r2, r0, r7, lsl #10
    7b58:	0e0e0400 	cfcpyseq	mvf0, mvf14
    7b5c:	05000004 	streq	r0, [r0, #-4]
    7b60:	00250b32 	eoreq	r0, r5, r2, lsr fp
    7b64:	0e080000 	cdpeq	0, 0, cr0, cr8, cr0, {0}
    7b68:	00000199 	muleq	r0, r9, r1
    7b6c:	25143205 	ldrcs	r3, [r4, #-517]	; 0xfffffdfb
    7b70:	0c000000 	stceq	0, cr0, [r0], {-0}
    7b74:	0004ae0e 	andeq	sl, r4, lr, lsl #28
    7b78:	1b320500 	blne	c88f80 <__bss_end__+0xc7ef20>
    7b7c:	00000025 	andeq	r0, r0, r5, lsr #32
    7b80:	785f1110 	ldmdavc	pc, {r4, r8, ip}^	; <UNPREDICTABLE>
    7b84:	0b330500 	bleq	cc8f8c <__bss_end__+0xcbef2c>
    7b88:	0000019a 	muleq	r0, sl, r1
    7b8c:	04060014 	streq	r0, [r6], #-20	; 0xffffffec
    7b90:	0000013a 	andeq	r0, r0, sl, lsr r1
    7b94:	00012e0b 	andeq	r2, r1, fp, lsl #28
    7b98:	0001aa00 	andeq	sl, r1, r0, lsl #20
    7b9c:	00310c00 	eorseq	r0, r1, r0, lsl #24
    7ba0:	00000000 	andeq	r0, r0, r0
    7ba4:	0001dd10 	andeq	sp, r1, r0, lsl sp
    7ba8:	37052400 	strcc	r2, [r5, -r0, lsl #8]
    7bac:	00022d08 	andeq	r2, r2, r8, lsl #26
    7bb0:	009e0e00 	addseq	r0, lr, r0, lsl #28
    7bb4:	39050000 	stmdbcc	r5, {}	; <UNPREDICTABLE>
    7bb8:	00002509 	andeq	r2, r0, r9, lsl #10
    7bbc:	480e0000 	stmdami	lr, {}	; <UNPREDICTABLE>
    7bc0:	05000004 	streq	r0, [r0, #-4]
    7bc4:	0025093a 	eoreq	r0, r5, sl, lsr r9
    7bc8:	0e040000 	cdpeq	0, 0, cr0, cr4, cr0, {0}
    7bcc:	000000c1 	andeq	r0, r0, r1, asr #1
    7bd0:	25093b05 	strcs	r3, [r9, #-2821]	; 0xfffff4fb
    7bd4:	08000000 	stmdaeq	r0, {}	; <UNPREDICTABLE>
    7bd8:	00052f0e 	andeq	r2, r5, lr, lsl #30
    7bdc:	093c0500 	ldmdbeq	ip!, {r8, sl}
    7be0:	00000025 	andeq	r0, r0, r5, lsr #32
    7be4:	02af0e0c 	adceq	r0, pc, #12, 28	; 0xc0
    7be8:	3d050000 	stccc	0, cr0, [r5, #-0]
    7bec:	00002509 	andeq	r2, r0, r9, lsl #10
    7bf0:	910e1000 	mrsls	r1, (UNDEF: 14)
    7bf4:	05000002 	streq	r0, [r0, #-2]
    7bf8:	0025093e 	eoreq	r0, r5, lr, lsr r9
    7bfc:	0e140000 	cdpeq	0, 1, cr0, cr4, cr0, {0}
    7c00:	000004b3 			; <UNDEFINED> instruction: 0x000004b3
    7c04:	25093f05 	strcs	r3, [r9, #-3845]	; 0xfffff0fb
    7c08:	18000000 	stmdane	r0, {}	; <UNPREDICTABLE>
    7c0c:	00038f0e 	andeq	r8, r3, lr, lsl #30
    7c10:	09400500 	stmdbeq	r0, {r8, sl}^
    7c14:	00000025 	andeq	r0, r0, r5, lsr #32
    7c18:	04f60e1c 	ldrbteq	r0, [r6], #3612	; 0xe1c
    7c1c:	41050000 	mrsmi	r0, (UNDEF: 5)
    7c20:	00002509 	andeq	r2, r0, r9, lsl #10
    7c24:	12002000 	andne	r2, r0, #0
    7c28:	00000101 	andeq	r0, r0, r1, lsl #2
    7c2c:	4a050108 	bmi	148054 <__bss_end__+0x13dff4>
    7c30:	00027208 	andeq	r7, r2, r8, lsl #4
    7c34:	018c0e00 	orreq	r0, ip, r0, lsl #28
    7c38:	4b050000 	blmi	147c40 <__bss_end__+0x13dbe0>
    7c3c:	0002720a 	andeq	r7, r2, sl, lsl #4
    7c40:	000e0000 	andeq	r0, lr, r0
    7c44:	05000000 	streq	r0, [r0, #-0]
    7c48:	0272094c 	rsbseq	r0, r2, #76, 18	; 0x130000
    7c4c:	13800000 	orrne	r0, r0, #0
    7c50:	00000464 	andeq	r0, r0, r4, ror #8
    7c54:	2e0a4e05 	cdpcs	14, 0, cr4, cr10, cr5, {0}
    7c58:	00000001 	andeq	r0, r0, r1
    7c5c:	01261301 			; <UNDEFINED> instruction: 0x01261301
    7c60:	51050000 	mrspl	r0, (UNDEF: 5)
    7c64:	00012e0a 	andeq	r2, r1, sl, lsl #28
    7c68:	00010400 	andeq	r0, r1, r0, lsl #8
    7c6c:	00011a0b 	andeq	r1, r1, fp, lsl #20
    7c70:	00028200 	andeq	r8, r2, r0, lsl #4
    7c74:	00310c00 	eorseq	r0, r1, r0, lsl #24
    7c78:	001f0000 	andseq	r0, pc, r0
    7c7c:	0002b812 	andeq	fp, r2, r2, lsl r8
    7c80:	05019000 	streq	r9, [r1, #-0]
    7c84:	02c5085d 	sbceq	r0, r5, #6094848	; 0x5d0000
    7c88:	ce0e0000 	cdpgt	0, 0, cr0, cr14, cr0, {0}
    7c8c:	05000003 	streq	r0, [r0, #-3]
    7c90:	02c5125e 	sbceq	r1, r5, #-536870907	; 0xe0000005
    7c94:	0e000000 	cdpeq	0, 0, cr0, cr0, cr0, {0}
    7c98:	000003e6 	andeq	r0, r0, r6, ror #7
    7c9c:	25065f05 	strcs	r5, [r6, #-3845]	; 0xfffff0fb
    7ca0:	04000000 	streq	r0, [r0], #-0
    7ca4:	0001940e 	andeq	r9, r1, lr, lsl #8
    7ca8:	09610500 	stmdbeq	r1!, {r8, sl}^
    7cac:	000002cb 	andeq	r0, r0, fp, asr #5
    7cb0:	01010e08 	tsteq	r1, r8, lsl #28
    7cb4:	62050000 	andvs	r0, r5, #0
    7cb8:	00022d1e 	andeq	r2, r2, lr, lsl sp
    7cbc:	06008800 	streq	r8, [r0], -r0, lsl #16
    7cc0:	00028204 	andeq	r8, r2, r4, lsl #4
    7cc4:	02db0b00 	sbcseq	r0, fp, #0, 22
    7cc8:	02db0000 	sbcseq	r0, fp, #0
    7ccc:	310c0000 	mrscc	r0, (UNDEF: 12)
    7cd0:	1f000000 	svcne	0x00000000
    7cd4:	e1040600 	tst	r4, r0, lsl #12
    7cd8:	14000002 	strne	r0, [r0], #-2
    7cdc:	00039910 	andeq	r9, r3, r0, lsl r9
    7ce0:	75050800 	strvc	r0, [r5, #-2048]	; 0xfffff800
    7ce4:	00030a08 	andeq	r0, r3, r8, lsl #20
    7ce8:	00bb0e00 	adcseq	r0, fp, r0, lsl #28
    7cec:	76050000 	strvc	r0, [r5], -r0
    7cf0:	00030a11 	andeq	r0, r3, r1, lsl sl
    7cf4:	1b0e0000 	blne	387cfc <__bss_end__+0x37dc9c>
    7cf8:	05000000 	streq	r0, [r0, #-0]
    7cfc:	00250677 	eoreq	r0, r5, r7, ror r6
    7d00:	00040000 	andeq	r0, r4, r0
    7d04:	00540406 	subseq	r0, r4, r6, lsl #8
    7d08:	b8100000 	ldmdalt	r0, {}	; <UNPREDICTABLE>
    7d0c:	68000003 	stmdavs	r0, {r0, r1}
    7d10:	5308b505 	movwpl	fp, #34053	; 0x8505
    7d14:	11000004 	tstne	r0, r4
    7d18:	0500705f 	streq	r7, [r0, #-95]	; 0xffffffa1
    7d1c:	030a12b6 	movweq	r1, #41654	; 0xa2b6
    7d20:	11000000 	mrsne	r0, (UNDEF: 0)
    7d24:	0500725f 	streq	r7, [r0, #-607]	; 0xfffffda1
    7d28:	002507b7 	strhteq	r0, [r5], -r7
    7d2c:	11040000 	mrsne	r0, (UNDEF: 4)
    7d30:	0500775f 	streq	r7, [r0, #-1887]	; 0xfffff8a1
    7d34:	002507b8 	strhteq	r0, [r5], -r8
    7d38:	0e080000 	cdpeq	0, 0, cr0, cr8, cr0, {0}
    7d3c:	0000011f 	andeq	r0, r0, pc, lsl r1
    7d40:	3f09b905 	svccc	0x0009b905
    7d44:	0c000000 	stceq	0, cr0, [r0], {-0}
    7d48:	0002080e 	andeq	r0, r2, lr, lsl #16
    7d4c:	09ba0500 	ldmibeq	sl!, {r8, sl}
    7d50:	0000003f 	andeq	r0, r0, pc, lsr r0
    7d54:	625f110e 	subsvs	r1, pc, #-2147483645	; 0x80000003
    7d58:	bb050066 	bllt	147ef8 <__bss_end__+0x13de98>
    7d5c:	0002e211 	andeq	lr, r2, r1, lsl r2
    7d60:	7b0e1000 	blvc	38bd68 <__bss_end__+0x381d08>
    7d64:	05000000 	streq	r0, [r0, #-0]
    7d68:	002507bc 	strhteq	r0, [r5], -ip
    7d6c:	0e180000 	cdpeq	0, 1, cr0, cr8, cr0, {0}
    7d70:	0000010f 	andeq	r0, r0, pc, lsl #2
    7d74:	1a0ac305 	bne	2b8990 <__bss_end__+0x2ae930>
    7d78:	1c000001 	stcne	0, cr0, [r0], {1}
    7d7c:	000b3d0e 	andeq	r3, fp, lr, lsl #26
    7d80:	1dc50500 	cfstr64ne	mvdx0, [r5]
    7d84:	000005c5 	andeq	r0, r0, r5, asr #11
    7d88:	06320e20 	ldrteq	r0, [r2], -r0, lsr #28
    7d8c:	c7050000 	strgt	r0, [r5, -r0]
    7d90:	0005ef1d 	andeq	lr, r5, sp, lsl pc
    7d94:	3a0e2400 	bcc	390d9c <__bss_end__+0x386d3c>
    7d98:	05000004 	streq	r0, [r0, #-4]
    7d9c:	06130dca 	ldreq	r0, [r3], -sl, asr #27
    7da0:	0e280000 	cdpeq	0, 2, cr0, cr8, cr0, {0}
    7da4:	00000510 	andeq	r0, r0, r0, lsl r5
    7da8:	2d09cb05 	vstrcs	d12, [r9, #-20]	; 0xffffffec
    7dac:	2c000006 	stccs	0, cr0, [r0], {6}
    7db0:	62755f11 	rsbsvs	r5, r5, #17, 30	; 0x44
    7db4:	11ce0500 	bicne	r0, lr, r0, lsl #10
    7db8:	000002e2 	andeq	r0, r0, r2, ror #5
    7dbc:	755f1130 	ldrbvc	r1, [pc, #-304]	; 7c94 <_start-0x36c>
    7dc0:	cf050070 	svcgt	0x00050070
    7dc4:	00030a12 	andeq	r0, r3, r2, lsl sl
    7dc8:	5f113800 	svcpl	0x00113800
    7dcc:	05007275 	streq	r7, [r0, #-629]	; 0xfffffd8b
    7dd0:	002507d0 	ldrdeq	r0, [r5], -r0	; <UNPREDICTABLE>
    7dd4:	0e3c0000 	cdpeq	0, 3, cr0, cr12, cr0, {0}
    7dd8:	000000b5 	strheq	r0, [r0], -r5
    7ddc:	3311d305 	tstcc	r1, #335544320	; 0x14000000
    7de0:	40000006 	andmi	r0, r0, r6
    7de4:	0004e80e 	andeq	lr, r4, lr, lsl #16
    7de8:	11d40500 	bicsne	r0, r4, r0, lsl #10
    7dec:	00000643 	andeq	r0, r0, r3, asr #12
    7df0:	6c5f1143 	ldfvse	f1, [pc], {67}	; 0x43
    7df4:	d7050062 	strle	r0, [r5, -r2, rrx]
    7df8:	0002e211 	andeq	lr, r2, r1, lsl r2
    7dfc:	3d0e4400 	cfstrscc	mvf4, [lr, #-0]
    7e00:	05000001 	streq	r0, [r0, #-1]
    7e04:	002507da 	ldrdeq	r0, [r5], -sl	; <UNPREDICTABLE>
    7e08:	0e4c0000 	cdpeq	0, 4, cr0, cr12, cr0, {0}
    7e0c:	0000014e 	andeq	r0, r0, lr, asr #2
    7e10:	870adb05 	strhi	sp, [sl, -r5, lsl #22]
    7e14:	50000000 	andpl	r0, r0, r0
    7e18:	000ade0e 	andeq	sp, sl, lr, lsl #28
    7e1c:	12de0500 	sbcsne	r0, lr, #0, 10
    7e20:	00000471 	andeq	r0, r0, r1, ror r4
    7e24:	042c0e54 	strteq	r0, [ip], #-3668	; 0xfffff1ac
    7e28:	e2050000 	and	r0, r5, #0
    7e2c:	00010e0c 	andeq	r0, r1, ip, lsl #28
    7e30:	c00e5800 	andgt	r5, lr, r0, lsl #16
    7e34:	05000003 	streq	r0, [r0, #-3]
    7e38:	01020ee4 	smlatteq	r2, r4, lr, r0
    7e3c:	0e5c0000 	cdpeq	0, 5, cr0, cr12, cr0, {0}
    7e40:	00000289 	andeq	r0, r0, r9, lsl #5
    7e44:	2509e505 	strcs	lr, [r9, #-1285]	; 0xfffffafb
    7e48:	64000000 	strvs	r0, [r0], #-0
    7e4c:	00251500 	eoreq	r1, r5, r0, lsl #10
    7e50:	04710000 	ldrbteq	r0, [r1], #-0
    7e54:	71160000 	tstvc	r6, r0
    7e58:	16000004 	strne	r0, [r0], -r4
    7e5c:	0000011a 	andeq	r0, r0, sl, lsl r1
    7e60:	00011c16 	andeq	r1, r1, r6, lsl ip
    7e64:	00251600 	eoreq	r1, r5, r0, lsl #12
    7e68:	06000000 	streq	r0, [r0], -r0
    7e6c:	00047c04 	andeq	r7, r4, r4, lsl #24
    7e70:	04710300 	ldrbteq	r0, [r1], #-768	; 0xfffffd00
    7e74:	16170000 	ldrne	r0, [r7], -r0
    7e78:	28000004 	stmdacs	r0, {r2}
    7e7c:	02600504 	rsbeq	r0, r0, #4, 10	; 0x1000000
    7e80:	0005c508 	andeq	ip, r5, r8, lsl #10
    7e84:	037e1800 	cmneq	lr, #0, 16
    7e88:	62050000 	andvs	r0, r5, #0
    7e8c:	00250702 	eoreq	r0, r5, r2, lsl #14
    7e90:	18000000 	stmdane	r0, {}	; <UNPREDICTABLE>
    7e94:	0000012e 	andeq	r0, r0, lr, lsr #2
    7e98:	0b026705 	bleq	a1ab4 <__bss_end__+0x97a54>
    7e9c:	0000069f 	muleq	r0, pc, r6	; <UNPREDICTABLE>
    7ea0:	01f81804 	mvnseq	r1, r4, lsl #16
    7ea4:	67050000 	strvs	r0, [r5, -r0]
    7ea8:	069f1402 	ldreq	r1, [pc], r2, lsl #8
    7eac:	18080000 	stmdane	r8, {}	; <UNPREDICTABLE>
    7eb0:	000001a8 	andeq	r0, r0, r8, lsr #3
    7eb4:	1e026705 	cdpne	7, 0, cr6, cr2, cr5, {0}
    7eb8:	0000069f 	muleq	r0, pc, r6	; <UNPREDICTABLE>
    7ebc:	03e1180c 	mvneq	r1, #12, 16	; 0xc0000
    7ec0:	69050000 	stmdbvs	r5, {}	; <UNPREDICTABLE>
    7ec4:	00250802 	eoreq	r0, r5, r2, lsl #16
    7ec8:	18100000 	ldmdane	r0, {}	; <UNPREDICTABLE>
    7ecc:	00000029 	andeq	r0, r0, r9, lsr #32
    7ed0:	08026a05 	stmdaeq	r2, {r0, r2, r9, fp, sp, lr}
    7ed4:	0000089f 	muleq	r0, pc, r8	; <UNPREDICTABLE>
    7ed8:	03f51814 	mvnseq	r1, #20, 16	; 0x140000
    7edc:	6d050000 	stcvs	0, cr0, [r5, #-0]
    7ee0:	00250702 	eoreq	r0, r5, r2, lsl #14
    7ee4:	18300000 	ldmdane	r0!, {}	; <UNPREDICTABLE>
    7ee8:	00000a1a 	andeq	r0, r0, sl, lsl sl
    7eec:	16026e05 	strne	r6, [r2], -r5, lsl #28
    7ef0:	000008b4 			; <UNDEFINED> instruction: 0x000008b4
    7ef4:	02c01834 	sbceq	r1, r0, #52, 16	; 0x340000
    7ef8:	70050000 	andvc	r0, r5, r0
    7efc:	00250702 	eoreq	r0, r5, r2, lsl #14
    7f00:	18380000 	ldmdane	r8!, {}	; <UNPREDICTABLE>
    7f04:	000003eb 	andeq	r0, r0, fp, ror #7
    7f08:	0a027205 	beq	a4724 <__bss_end__+0x9a6c4>
    7f0c:	000008c5 	andeq	r0, r0, r5, asr #17
    7f10:	0265183c 	rsbeq	r1, r5, #60, 16	; 0x3c0000
    7f14:	75050000 	strvc	r0, [r5, #-0]
    7f18:	01941302 	orrseq	r1, r4, r2, lsl #6
    7f1c:	18400000 	stmdane	r0, {}^	; <UNPREDICTABLE>
    7f20:	000001c7 	andeq	r0, r0, r7, asr #3
    7f24:	07027605 	streq	r7, [r2, -r5, lsl #12]
    7f28:	00000025 	andeq	r0, r0, r5, lsr #32
    7f2c:	052a1844 	streq	r1, [sl, #-2116]!	; 0xfffff7bc
    7f30:	77050000 	strvc	r0, [r5, -r0]
    7f34:	01941302 	orrseq	r1, r4, r2, lsl #6
    7f38:	18480000 	stmdane	r8, {}^	; <UNPREDICTABLE>
    7f3c:	000002d2 	ldrdeq	r0, [r0], -r2
    7f40:	14027805 	strne	r7, [r2], #-2053	; 0xfffff7fb
    7f44:	000008cb 	andeq	r0, r0, fp, asr #17
    7f48:	0200184c 	andeq	r1, r0, #76, 16	; 0x4c0000
    7f4c:	7b050000 	blvc	147f54 <__bss_end__+0x13def4>
    7f50:	00250702 	eoreq	r0, r5, r2, lsl #14
    7f54:	18500000 	ldmdane	r0, {}^	; <UNPREDICTABLE>
    7f58:	00000146 	andeq	r0, r0, r6, asr #2
    7f5c:	09027c05 	stmdbeq	r2, {r0, r2, sl, fp, ip, sp, lr}
    7f60:	0000011c 	andeq	r0, r0, ip, lsl r1
    7f64:	02f81854 	rscseq	r1, r8, #84, 16	; 0x540000
    7f68:	9f050000 	svcls	0x00050000
    7f6c:	087a0702 	ldmdaeq	sl!, {r1, r8, r9, sl}^
    7f70:	19580000 	ldmdbne	r8, {}^	; <UNPREDICTABLE>
    7f74:	000002b8 			; <UNDEFINED> instruction: 0x000002b8
    7f78:	1302a305 	movwne	sl, #8965	; 0x2305
    7f7c:	000002c5 	andeq	r0, r0, r5, asr #5
    7f80:	43190148 	tstmi	r9, #72, 2
    7f84:	05000002 	streq	r0, [r0, #-2]
    7f88:	821202a4 	andshi	r0, r2, #164, 4	; 0x4000000a
    7f8c:	4c000002 	stcmi	0, cr0, [r0], {2}
    7f90:	04d61901 	ldrbeq	r1, [r6], #2305	; 0x901
    7f94:	a8050000 	stmdage	r5, {}	; <UNPREDICTABLE>
    7f98:	08dc0c02 	ldmeq	ip, {r1, sl, fp}^
    7f9c:	02dc0000 	sbcseq	r0, ip, #0
    7fa0:	00011719 	andeq	r1, r1, r9, lsl r7
    7fa4:	02ad0500 	adceq	r0, sp, #0, 10
    7fa8:	00066010 	andeq	r6, r6, r0, lsl r0
    7fac:	1902e000 	stmdbne	r2, {sp, lr, pc}
    7fb0:	000000fc 	strdeq	r0, [r0], -ip
    7fb4:	0a02af05 	beq	b3bd0 <__bss_end__+0xa9b70>
    7fb8:	000008e8 	andeq	r0, r0, r8, ror #17
    7fbc:	060002ec 	streq	r0, [r0], -ip, ror #5
    7fc0:	00045304 	andeq	r5, r4, r4, lsl #6
    7fc4:	00251500 	eoreq	r1, r5, r0, lsl #10
    7fc8:	05e90000 	strbeq	r0, [r9, #0]!
    7fcc:	71160000 	tstvc	r6, r0
    7fd0:	16000004 	strne	r0, [r0], -r4
    7fd4:	0000011a 	andeq	r0, r0, sl, lsl r1
    7fd8:	0005e916 	andeq	lr, r5, r6, lsl r9
    7fdc:	00251600 	eoreq	r1, r5, r0, lsl #12
    7fe0:	06000000 	streq	r0, [r0], -r0
    7fe4:	00012904 	andeq	r2, r1, r4, lsl #18
    7fe8:	cb040600 	blgt	1097f0 <__bss_end__+0xff790>
    7fec:	15000005 	strne	r0, [r0, #-5]
    7ff0:	00000093 	muleq	r0, r3, r0
    7ff4:	00000613 	andeq	r0, r0, r3, lsl r6
    7ff8:	00047116 	andeq	r7, r4, r6, lsl r1
    7ffc:	011a1600 	tsteq	sl, r0, lsl #12
    8000:	93160000 	tstls	r6, #0
    8004:	16000000 	strne	r0, [r0], -r0
    8008:	00000025 	andeq	r0, r0, r5, lsr #32
    800c:	f5040600 			; <UNDEFINED> instruction: 0xf5040600
    8010:	15000005 	strne	r0, [r0, #-5]
    8014:	00000025 	andeq	r0, r0, r5, lsr #32
    8018:	0000062d 	andeq	r0, r0, sp, lsr #12
    801c:	00047116 	andeq	r7, r4, r6, lsl r1
    8020:	011a1600 	tsteq	sl, r0, lsl #12
    8024:	06000000 	streq	r0, [r0], -r0
    8028:	00061904 	andeq	r1, r6, r4, lsl #18
    802c:	00540b00 	subseq	r0, r4, r0, lsl #22
    8030:	06430000 	strbeq	r0, [r3], -r0
    8034:	310c0000 	mrscc	r0, (UNDEF: 12)
    8038:	02000000 	andeq	r0, r0, #0
    803c:	00540b00 	subseq	r0, r4, r0, lsl #22
    8040:	06530000 	ldrbeq	r0, [r3], -r0
    8044:	310c0000 	mrscc	r0, (UNDEF: 12)
    8048:	00000000 	andeq	r0, r0, r0
    804c:	03a60800 			; <UNDEFINED> instruction: 0x03a60800
    8050:	1f050000 	svcne	0x00050000
    8054:	03101a01 	tsteq	r0, #4096	; 0x1000
    8058:	bd1a0000 	ldclt	0, cr0, [sl, #-0]
    805c:	0c000004 	stceq	0, cr0, [r0], {4}
    8060:	08012305 	stmdaeq	r1, {r0, r2, r8, r9, sp}
    8064:	00000699 	muleq	r0, r9, r6
    8068:	0003ce18 	andeq	ip, r3, r8, lsl lr
    806c:	01250500 			; <UNDEFINED> instruction: 0x01250500
    8070:	00069911 	andeq	r9, r6, r1, lsl r9
    8074:	1b180000 	blne	60807c <__bss_end__+0x5fe01c>
    8078:	05000002 	streq	r0, [r0, #-2]
    807c:	25070126 	strcs	r0, [r7, #-294]	; 0xfffffeda
    8080:	04000000 	streq	r0, [r0], #-0
    8084:	0003a018 	andeq	sl, r3, r8, lsl r0
    8088:	01270500 			; <UNDEFINED> instruction: 0x01270500
    808c:	00069f0b 	andeq	r9, r6, fp, lsl #30
    8090:	06000800 	streq	r0, [r0], -r0, lsl #16
    8094:	00066004 	andeq	r6, r6, r4
    8098:	53040600 	movwpl	r0, #17920	; 0x4600
    809c:	1a000006 	bne	80bc <notmain+0xac>
    80a0:	00000021 	andeq	r0, r0, r1, lsr #32
    80a4:	013f050e 	teqeq	pc, lr, lsl #10
    80a8:	0006de08 	andeq	sp, r6, r8, lsl #28
    80ac:	041d1800 	ldreq	r1, [sp], #-2048	; 0xfffff800
    80b0:	40050000 	andmi	r0, r5, r0
    80b4:	06de1201 	ldrbeq	r1, [lr], r1, lsl #4
    80b8:	18000000 	stmdane	r0, {}	; <UNPREDICTABLE>
    80bc:	00000451 	andeq	r0, r0, r1, asr r4
    80c0:	12014105 	andne	r4, r1, #1073741825	; 0x40000001
    80c4:	000006de 	ldrdeq	r0, [r0], -lr
    80c8:	046d1806 	strbteq	r1, [sp], #-2054	; 0xfffff7fa
    80cc:	42050000 	andmi	r0, r5, #0
    80d0:	005b1201 	subseq	r1, fp, r1, lsl #4
    80d4:	000c0000 	andeq	r0, ip, r0
    80d8:	00005b0b 	andeq	r5, r0, fp, lsl #22
    80dc:	0006ee00 	andeq	lr, r6, r0, lsl #28
    80e0:	00310c00 	eorseq	r0, r1, r0, lsl #24
    80e4:	00020000 	andeq	r0, r2, r0
    80e8:	8005d01b 	andhi	sp, r5, fp, lsl r0
    80ec:	08030702 	stmdaeq	r3, {r1, r8, r9, sl}
    80f0:	a1180000 	tstge	r8, r0
    80f4:	05000004 	streq	r0, [r0, #-4]
    80f8:	31180282 	tstcc	r8, r2, lsl #5
    80fc:	00000000 	andeq	r0, r0, r0
    8100:	00045718 	andeq	r5, r4, r8, lsl r7
    8104:	02830500 	addeq	r0, r3, #0, 10
    8108:	00011c12 	andeq	r1, r1, r2, lsl ip
    810c:	58180400 	ldmdapl	r8, {sl}
    8110:	05000002 	streq	r0, [r0, #-2]
    8114:	03100284 	tsteq	r0, #132, 4	; 0x40000008
    8118:	08000008 	stmdaeq	r0, {r3}
    811c:	00050118 	andeq	r0, r5, r8, lsl r1
    8120:	02850500 	addeq	r0, r5, #0, 10
    8124:	0001aa17 	andeq	sl, r1, r7, lsl sl
    8128:	b8182400 	ldmdalt	r8, {sl, sp}
    812c:	05000001 	streq	r0, [r0, #-1]
    8130:	250f0286 	strcs	r0, [pc, #-646]	; 7eb2 <_start-0x14e>
    8134:	48000000 	stmdami	r0, {}	; <UNPREDICTABLE>
    8138:	0003c918 	andeq	ip, r3, r8, lsl r9
    813c:	02870500 	addeq	r0, r7, #0, 10
    8140:	0000692c 	andeq	r6, r0, ip, lsr #18
    8144:	17185000 	ldrne	r5, [r8, -r0]
    8148:	05000005 	streq	r0, [r0, #-5]
    814c:	a51a0288 	ldrge	r0, [sl, #-648]	; 0xfffffd78
    8150:	58000006 	stmdapl	r0, {r1, r2}
    8154:	0003d418 	andeq	sp, r3, r8, lsl r4
    8158:	02890500 	addeq	r0, r9, #0, 10
    815c:	00010216 	andeq	r0, r1, r6, lsl r2
    8160:	1c186800 	ldcne	8, cr6, [r8], {-0}
    8164:	05000005 	streq	r0, [r0, #-5]
    8168:	0216028a 	andseq	r0, r6, #-1610612728	; 0xa0000008
    816c:	70000001 	andvc	r0, r0, r1
    8170:	0002dc18 	andeq	sp, r2, r8, lsl ip
    8174:	028b0500 	addeq	r0, fp, #0, 10
    8178:	00010216 	andeq	r0, r1, r6, lsl r2
    817c:	cc187800 	ldcgt	8, cr7, [r8], {-0}
    8180:	05000004 	streq	r0, [r0, #-4]
    8184:	1310028c 	tstne	r0, #140, 4	; 0xc0000008
    8188:	80000008 	andhi	r0, r0, r8
    818c:	00024c18 	andeq	r4, r2, r8, lsl ip
    8190:	028d0500 	addeq	r0, sp, #0, 10
    8194:	00082310 	andeq	r2, r8, r0, lsl r3
    8198:	7a188800 	bvc	62a1a0 <__bss_end__+0x620140>
    819c:	05000004 	streq	r0, [r0, #-4]
    81a0:	250f028e 	strcs	r0, [pc, #-654]	; 7f1a <_start-0xe6>
    81a4:	a0000000 	andge	r0, r0, r0
    81a8:	00017e18 	andeq	r7, r1, r8, lsl lr
    81ac:	028f0500 	addeq	r0, pc, #0, 10
    81b0:	00010216 	andeq	r0, r1, r6, lsl r2
    81b4:	8f18a400 	svchi	0x0018a400
    81b8:	05000000 	streq	r0, [r0, #-0]
    81bc:	02160290 	andseq	r0, r6, #144, 4
    81c0:	ac000001 	stcge	0, cr0, [r0], {1}
    81c4:	00016d18 	andeq	r6, r1, r8, lsl sp
    81c8:	02910500 	addseq	r0, r1, #0, 10
    81cc:	00010216 	andeq	r0, r1, r6, lsl r2
    81d0:	3c18b400 	cfldrscc	mvf11, [r8], {-0}
    81d4:	05000000 	streq	r0, [r0, #-0]
    81d8:	02160292 	andseq	r0, r6, #536870921	; 0x20000009
    81dc:	bc000001 	stclt	0, cr0, [r0], {1}
    81e0:	00004b18 	andeq	r4, r0, r8, lsl fp
    81e4:	02930500 	addseq	r0, r3, #0, 10
    81e8:	00010216 	andeq	r0, r1, r6, lsl r2
    81ec:	7c18c400 	cfldrsvc	mvf12, [r8], {-0}
    81f0:	05000003 	streq	r0, [r0, #-3]
    81f4:	25080294 	strcs	r0, [r8, #-660]	; 0xfffffd6c
    81f8:	cc000000 	stcgt	0, cr0, [r0], {-0}
    81fc:	01220b00 			; <UNDEFINED> instruction: 0x01220b00
    8200:	08130000 	ldmdaeq	r3, {}	; <UNPREDICTABLE>
    8204:	310c0000 	mrscc	r0, (UNDEF: 12)
    8208:	19000000 	stmdbne	r0, {}	; <UNPREDICTABLE>
    820c:	01220b00 			; <UNDEFINED> instruction: 0x01220b00
    8210:	08230000 	stmdaeq	r3!, {}	; <UNPREDICTABLE>
    8214:	310c0000 	mrscc	r0, (UNDEF: 12)
    8218:	07000000 	streq	r0, [r0, -r0]
    821c:	01220b00 			; <UNDEFINED> instruction: 0x01220b00
    8220:	08330000 	ldmdaeq	r3!, {}	; <UNPREDICTABLE>
    8224:	310c0000 	mrscc	r0, (UNDEF: 12)
    8228:	17000000 	strne	r0, [r0, -r0]
    822c:	05f01b00 	ldrbeq	r1, [r0, #2816]!	; 0xb00
    8230:	5a070299 	bpl	1c8c9c <__bss_end__+0x1bec3c>
    8234:	18000008 	stmdane	r0, {r3}
    8238:	000002a8 	andeq	r0, r0, r8, lsr #5
    823c:	1b029c05 	blne	af258 <__bss_end__+0xa51f8>
    8240:	0000085a 	andeq	r0, r0, sl, asr r8
    8244:	04c31800 	strbeq	r1, [r3], #2048	; 0x800
    8248:	9d050000 	stcls	0, cr0, [r5, #-0]
    824c:	086a1802 	stmdaeq	sl!, {r1, fp, ip}^
    8250:	00780000 	rsbseq	r0, r8, r0
    8254:	00030a0b 	andeq	r0, r3, fp, lsl #20
    8258:	00086a00 	andeq	r6, r8, r0, lsl #20
    825c:	00310c00 	eorseq	r0, r1, r0, lsl #24
    8260:	001d0000 	andseq	r0, sp, r0
    8264:	0000310b 	andeq	r3, r0, fp, lsl #2
    8268:	00087a00 	andeq	r7, r8, r0, lsl #20
    826c:	00310c00 	eorseq	r0, r1, r0, lsl #24
    8270:	001d0000 	andseq	r0, sp, r0
    8274:	7e05f01c 	mcrvc	0, 0, pc, cr5, cr12, {0}	; <UNPREDICTABLE>
    8278:	089f0302 	ldmeq	pc, {r1, r8, r9}	; <UNPREDICTABLE>
    827c:	161d0000 	ldrne	r0, [sp], -r0
    8280:	05000004 	streq	r0, [r0, #-4]
    8284:	ee0b0295 	mcr	2, 0, r0, cr11, cr5, {4}
    8288:	1d000006 	stcne	0, cr0, [r0, #-24]	; 0xffffffe8
    828c:	000004ee 	andeq	r0, r0, lr, ror #9
    8290:	0b029e05 	bleq	afaac <__bss_end__+0xa5a4c>
    8294:	00000833 	andeq	r0, r0, r3, lsr r8
    8298:	01220b00 			; <UNDEFINED> instruction: 0x01220b00
    829c:	08af0000 	stmiaeq	pc!, {}	; <UNPREDICTABLE>
    82a0:	310c0000 	mrscc	r0, (UNDEF: 12)
    82a4:	18000000 	stmdane	r0, {}	; <UNPREDICTABLE>
    82a8:	00840700 	addeq	r0, r4, r0, lsl #14
    82ac:	04060000 	streq	r0, [r6], #-0
    82b0:	000008af 	andeq	r0, r0, pc, lsr #17
    82b4:	0008c51e 	andeq	ip, r8, lr, lsl r5
    82b8:	04711600 	ldrbteq	r1, [r1], #-1536	; 0xfffffa00
    82bc:	06000000 	streq	r0, [r0], -r0
    82c0:	0008ba04 	andeq	fp, r8, r4, lsl #20
    82c4:	94040600 	strls	r0, [r4], #-1536	; 0xfffffa00
    82c8:	1e000001 	cdpne	0, 0, cr0, cr0, cr1, {0}
    82cc:	000008dc 	ldrdeq	r0, [r0], -ip
    82d0:	00002516 	andeq	r2, r0, r6, lsl r5
    82d4:	04060000 	streq	r0, [r6], #-0
    82d8:	000008e2 	andeq	r0, r0, r2, ror #17
    82dc:	08d10406 	ldmeq	r1, {r1, r2, sl}^
    82e0:	530b0000 	movwpl	r0, #45056	; 0xb000
    82e4:	f8000006 			; <UNDEFINED> instruction: 0xf8000006
    82e8:	0c000008 	stceq	0, cr0, [r0], {8}
    82ec:	00000031 	andeq	r0, r0, r1, lsr r0
    82f0:	8e1f0002 	cdphi	0, 1, cr0, cr15, cr2, {0}
    82f4:	05000004 	streq	r0, [r0, #-4]
    82f8:	7117032e 	tstvc	r7, lr, lsr #6
    82fc:	1f000004 	svcne	0x00000004
    8300:	00000487 	andeq	r0, r0, r7, lsl #9
    8304:	1d032f05 	stcne	15, cr2, [r3, #-20]	; 0xffffffec
    8308:	00000477 	andeq	r0, r0, r7, ror r4
    830c:	00002515 	andeq	r2, r0, r5, lsl r5
    8310:	00092100 	andeq	r2, r9, r0, lsl #2
    8314:	00251600 	eoreq	r1, r5, r0, lsl #12
    8318:	20000000 	andcs	r0, r0, r0
    831c:	000001d1 	ldrdeq	r0, [r0], -r1
    8320:	2d0e1d06 	stccs	13, cr1, [lr, #-24]	; 0xffffffe8
    8324:	06000009 	streq	r0, [r0], -r9
    8328:	00091204 	andeq	r1, r9, r4, lsl #4
    832c:	00251500 	eoreq	r1, r5, r0, lsl #10
    8330:	09420000 	stmdbeq	r2, {}^	; <UNPREDICTABLE>
    8334:	e9160000 	ldmdb	r6, {}	; <UNPREDICTABLE>
    8338:	00000005 	andeq	r0, r0, r5
    833c:	00078120 	andeq	r8, r7, r0, lsr #2
    8340:	0e220600 	cfmadda32eq	mvax0, mvax0, mvfx2, mvfx0
    8344:	0000094e 	andeq	r0, r0, lr, asr #18
    8348:	09330406 	ldmdbeq	r3!, {r1, r2, sl}
    834c:	bb210000 	bllt	848354 <__bss_end__+0x83e2f4>
    8350:	01000008 	tsteq	r0, r8
    8354:	0031110d 	eorseq	r1, r1, sp, lsl #2
    8358:	0e220000 	cdpeq	0, 2, cr0, cr2, cr0, {0}
    835c:	01000008 	tsteq	r0, r8
    8360:	9128061f 			; <UNDEFINED> instruction: 0x9128061f
    8364:	004c0000 	subeq	r0, ip, r0
    8368:	9c010000 	stcls	0, cr0, [r1], {-0}
    836c:	00000a2c 	andeq	r0, r0, ip, lsr #20
    8370:	00085623 	andeq	r5, r8, r3, lsr #12
    8374:	0f2a0100 	svceq	0x002a0100
    8378:	0000002c 	andeq	r0, r0, ip, lsr #32
    837c:	00001262 	andeq	r1, r0, r2, ror #4
    8380:	00001260 	andeq	r1, r0, r0, ror #4
    8384:	00087d23 	andeq	r7, r8, r3, lsr #26
    8388:	0f2b0100 	svceq	0x002b0100
    838c:	0000002c 	andeq	r0, r0, ip, lsr #32
    8390:	0000127c 	andeq	r1, r0, ip, ror r2
    8394:	0000127a 	andeq	r1, r0, sl, ror r2
    8398:	00088a23 	andeq	r8, r8, r3, lsr #20
    839c:	0f2c0100 	svceq	0x002c0100
    83a0:	0000002c 	andeq	r0, r0, ip, lsr #32
    83a4:	00001296 	muleq	r0, r6, r2
    83a8:	00001294 	muleq	r0, r4, r2
    83ac:	00086423 	andeq	r6, r8, r3, lsr #8
    83b0:	0f2d0100 	svceq	0x002d0100
    83b4:	0000002c 	andeq	r0, r0, ip, lsr #32
    83b8:	000012af 	andeq	r1, r0, pc, lsr #5
    83bc:	000012ad 	andeq	r1, r0, sp, lsr #5
    83c0:	00913024 	addseq	r3, r1, r4, lsr #32
    83c4:	000a5700 	andeq	r5, sl, r0, lsl #14
    83c8:	91402500 	cmpls	r0, r0, lsl #10
    83cc:	0a860000 	beq	fe1883d4 <__bss_end__+0xfe17e374>
    83d0:	09e20000 	stmibeq	r2!, {}^	; <UNPREDICTABLE>
    83d4:	01260000 			; <UNDEFINED> instruction: 0x01260000
    83d8:	004e0150 	subeq	r0, lr, r0, asr r1
    83dc:	00914c25 	addseq	r4, r1, r5, lsr #24
    83e0:	000a9200 	andeq	r9, sl, r0, lsl #4
    83e4:	000a0200 	andeq	r0, sl, r0, lsl #4
    83e8:	50012600 	andpl	r2, r1, r0, lsl #12
    83ec:	00240c05 	eoreq	r0, r4, r5, lsl #24
    83f0:	01262010 			; <UNDEFINED> instruction: 0x01262010
    83f4:	010c0551 	tsteq	ip, r1, asr r5
    83f8:	005a0000 	subseq	r0, sl, r0
    83fc:	00915825 	addseq	r5, r1, r5, lsr #16
    8400:	000a9200 	andeq	r9, sl, r0, lsl #4
    8404:	000a2200 	andeq	r2, sl, r0, lsl #4
    8408:	50012600 	andpl	r2, r1, r0, lsl #12
    840c:	001c0c05 	andseq	r0, ip, r5, lsl #24
    8410:	01262010 			; <UNDEFINED> instruction: 0x01262010
    8414:	200c0551 	andcs	r0, ip, r1, asr r5
    8418:	005a0000 	subseq	r0, sl, r0
    841c:	00916024 	addseq	r6, r1, r4, lsr #32
    8420:	000a2c00 	andeq	r2, sl, r0, lsl #24
    8424:	a9270000 	stmdbge	r7!, {}	; <UNPREDICTABLE>
    8428:	01000008 	tsteq	r0, r8
    842c:	91140617 	tstls	r4, r7, lsl r6
    8430:	00140000 	andseq	r0, r4, r0
    8434:	9c010000 	stcls	0, cr0, [r1], {-0}
    8438:	00000a57 	andeq	r0, r0, r7, asr sl
    843c:	00088523 	andeq	r8, r8, r3, lsr #10
    8440:	0e180100 	mufeqe	f0, f0, f0
    8444:	00000031 	andeq	r0, r0, r1, lsr r0
    8448:	000012ca 	andeq	r1, r0, sl, asr #5
    844c:	000012c4 	andeq	r1, r0, r4, asr #5
    8450:	08b82800 	ldmeq	r8!, {fp, sp}
    8454:	0e010000 	cdpeq	0, 0, cr0, cr1, cr0, {0}
    8458:	00002505 	andeq	r2, r0, r5, lsl #10
    845c:	0090fc00 	addseq	pc, r0, r0, lsl #24
    8460:	00001800 	andeq	r1, r0, r0, lsl #16
    8464:	869c0100 	ldrhi	r0, [ip], r0, lsl #2
    8468:	2300000a 	movwcs	r0, #10
    846c:	00000885 	andeq	r0, r0, r5, lsl #17
    8470:	310e0f01 	tstcc	lr, r1, lsl #30
    8474:	f8000000 			; <UNDEFINED> instruction: 0xf8000000
    8478:	f4000012 	vst4.8	{d0-d3}, [r0 :64], r2
    847c:	00000012 	andeq	r0, r0, r2, lsl r0
    8480:	00080529 	andeq	r0, r8, r9, lsr #10
    8484:	00080500 	andeq	r0, r8, r0, lsl #10
    8488:	064f0600 	strbeq	r0, [pc], -r0, lsl #12
    848c:	00085e29 	andeq	r5, r8, r9, lsr #28
    8490:	00085e00 	andeq	r5, r8, r0, lsl #28
    8494:	069b0600 	ldreq	r0, [fp], r0, lsl #12
    8498:	000aea00 	andeq	lr, sl, r0, lsl #20
    849c:	4b000400 	blmi	94a4 <gpio_write+0x10>
    84a0:	0400001a 	streq	r0, [r0], #-26	; 0xffffffe6
    84a4:	0002fd01 	andeq	pc, r2, r1, lsl #26
    84a8:	08ec0c00 	stmiaeq	ip!, {sl, fp}^
    84ac:	06da0000 	ldrbeq	r0, [sl], r0
    84b0:	91740000 	cmnls	r4, r0
    84b4:	008c0000 	addeq	r0, ip, r0
    84b8:	178f0000 	strne	r0, [pc, r0]
    84bc:	04020000 	streq	r0, [r2], #-0
    84c0:	746e6905 	strbtvc	r6, [lr], #-2309	; 0xfffff6fb
    84c4:	07040300 	streq	r0, [r4, -r0, lsl #6]
    84c8:	00000066 	andeq	r0, r0, r6, rrx
    84cc:	ec060103 	stfs	f0, [r6], {3}
    84d0:	03000002 	movweq	r0, #2
    84d4:	03850502 	orreq	r0, r5, #8388608	; 0x800000
    84d8:	04030000 	streq	r0, [r3], #-0
    84dc:	0000ac05 	andeq	sl, r0, r5, lsl #24
    84e0:	05080300 	streq	r0, [r8, #-768]	; 0xfffffd00
    84e4:	000000a7 	andeq	r0, r0, r7, lsr #1
    84e8:	ea080103 	b	2088fc <__bss_end__+0x1fe89c>
    84ec:	03000002 	movweq	r0, #2
    84f0:	02220702 	eoreq	r0, r2, #524288	; 0x80000
    84f4:	04030000 	streq	r0, [r3], #-0
    84f8:	00006107 	andeq	r6, r0, r7, lsl #2
    84fc:	07080300 	streq	r0, [r8, -r0, lsl #6]
    8500:	0000005c 	andeq	r0, r0, ip, asr r0
    8504:	00027304 	andeq	r7, r2, r4, lsl #6
    8508:	19220200 	stmdbne	r2!, {r9}
    850c:	00000077 	andeq	r0, r0, r7, ror r0
    8510:	007d0405 	rsbseq	r0, sp, r5, lsl #8
    8514:	2b060000 	blcs	18851c <__bss_end__+0x17e4bc>
    8518:	04000004 	streq	r0, [r0], #-4
    851c:	000002cb 	andeq	r0, r0, fp, asr #5
    8520:	410e2c03 	tstmi	lr, r3, lsl #24
    8524:	04000000 	streq	r0, [r0], #-0
    8528:	00000440 	andeq	r0, r0, r0, asr #8
    852c:	410e7203 	tstmi	lr, r3, lsl #4
    8530:	07000000 	streq	r0, [r0, -r0]
    8534:	0000027b 	andeq	r0, r0, fp, ror r2
    8538:	17015e04 	strne	r5, [r1, -r4, lsl #28]
    853c:	0000002c 	andeq	r0, r0, ip, lsr #32
    8540:	a6030408 	strge	r0, [r3], -r8, lsl #8
    8544:	0000c903 	andeq	ip, r0, r3, lsl #18
    8548:	026d0900 	rsbeq	r0, sp, #0, 18
    854c:	a8030000 	stmdage	r3, {}	; <UNPREDICTABLE>
    8550:	00009a0c 	andeq	r9, r0, ip, lsl #20
    8554:	01e20900 	mvneq	r0, r0, lsl #18
    8558:	a9030000 	stmdbge	r3, {}	; <UNPREDICTABLE>
    855c:	0000c913 	andeq	ip, r0, r3, lsl r9
    8560:	4f0a0000 	svcmi	0x000a0000
    8564:	d9000000 	stmdble	r0, {}	; <UNPREDICTABLE>
    8568:	0b000000 	bleq	8570 <ckfree+0x48>
    856c:	0000002c 	andeq	r0, r0, ip, lsr #32
    8570:	080c0003 	stmdaeq	ip, {r0, r1}
    8574:	fd09a303 	stc2	3, cr10, [r9, #-12]
    8578:	0d000000 	stceq	0, cr0, [r0, #-0]
    857c:	00000423 	andeq	r0, r0, r3, lsr #8
    8580:	2507a503 	strcs	sl, [r7, #-1283]	; 0xfffffafd
    8584:	00000000 	andeq	r0, r0, r0
    8588:	0004320d 	andeq	r3, r4, sp, lsl #4
    858c:	05aa0300 	streq	r0, [sl, #768]!	; 0x300
    8590:	000000a7 	andeq	r0, r0, r7, lsr #1
    8594:	ad040004 	stcge	0, cr0, [r4, #-16]
    8598:	03000003 	movweq	r0, #3
    859c:	00d903ab 	sbcseq	r0, r9, fp, lsr #7
    85a0:	9f040000 	svcls	0x00040000
    85a4:	03000001 	movweq	r0, #1
    85a8:	006b1baf 	rsbeq	r1, fp, pc, lsr #23
    85ac:	040e0000 	streq	r0, [lr], #-0
    85b0:	011d0405 	tsteq	sp, r5, lsl #8
    85b4:	01030000 	mrseq	r0, (UNDEF: 3)
    85b8:	0002f308 	andeq	pc, r2, r8, lsl #6
    85bc:	011d0f00 	tsteq	sp, r0, lsl #30
    85c0:	72040000 	andvc	r0, r4, #0
    85c4:	05000004 	streq	r0, [r0, #-4]
    85c8:	005d1916 	subseq	r1, sp, r6, lsl r9
    85cc:	b0100000 	andslt	r0, r0, r0
    85d0:	18000001 	stmdane	r0, {r0}
    85d4:	8f082f05 	svchi	0x00082f05
    85d8:	0d000001 	stceq	0, cr0, [r0, #-4]
    85dc:	000003ce 	andeq	r0, r0, lr, asr #7
    85e0:	8f133105 	svchi	0x00133105
    85e4:	00000001 	andeq	r0, r0, r1
    85e8:	006b5f11 	rsbeq	r5, fp, r1, lsl pc
    85ec:	25073205 	strcs	r3, [r7, #-517]	; 0xfffffdfb
    85f0:	04000000 	streq	r0, [r0], #-0
    85f4:	00040e0d 	andeq	r0, r4, sp, lsl #28
    85f8:	0b320500 	bleq	c89a00 <__bss_end__+0xc7f9a0>
    85fc:	00000025 	andeq	r0, r0, r5, lsr #32
    8600:	01990d08 	orrseq	r0, r9, r8, lsl #26
    8604:	32050000 	andcc	r0, r5, #0
    8608:	00002514 	andeq	r2, r0, r4, lsl r5
    860c:	ae0d0c00 	cdpge	12, 0, cr0, cr13, cr0, {0}
    8610:	05000004 	streq	r0, [r0, #-4]
    8614:	00251b32 	eoreq	r1, r5, r2, lsr fp
    8618:	11100000 	tstne	r0, r0
    861c:	0500785f 	streq	r7, [r0, #-2143]	; 0xfffff7a1
    8620:	01950b33 	orrseq	r0, r5, r3, lsr fp
    8624:	00140000 	andseq	r0, r4, r0
    8628:	01350405 	teqeq	r5, r5, lsl #8
    862c:	290a0000 	stmdbcs	sl, {}	; <UNPREDICTABLE>
    8630:	a5000001 	strge	r0, [r0, #-1]
    8634:	0b000001 	bleq	8640 <ckalloc+0x60>
    8638:	0000002c 	andeq	r0, r0, ip, lsr #32
    863c:	dd100000 	ldcle	0, cr0, [r0, #-0]
    8640:	24000001 	strcs	r0, [r0], #-1
    8644:	28083705 	stmdacs	r8, {r0, r2, r8, r9, sl, ip, sp}
    8648:	0d000002 	stceq	0, cr0, [r0, #-8]
    864c:	0000009e 	muleq	r0, lr, r0
    8650:	25093905 	strcs	r3, [r9, #-2309]	; 0xfffff6fb
    8654:	00000000 	andeq	r0, r0, r0
    8658:	0004480d 	andeq	r4, r4, sp, lsl #16
    865c:	093a0500 	ldmdbeq	sl!, {r8, sl}
    8660:	00000025 	andeq	r0, r0, r5, lsr #32
    8664:	00c10d04 	sbceq	r0, r1, r4, lsl #26
    8668:	3b050000 	blcc	148670 <__bss_end__+0x13e610>
    866c:	00002509 	andeq	r2, r0, r9, lsl #10
    8670:	2f0d0800 	svccs	0x000d0800
    8674:	05000005 	streq	r0, [r0, #-5]
    8678:	0025093c 	eoreq	r0, r5, ip, lsr r9
    867c:	0d0c0000 	stceq	0, cr0, [ip, #-0]
    8680:	000002af 	andeq	r0, r0, pc, lsr #5
    8684:	25093d05 	strcs	r3, [r9, #-3333]	; 0xfffff2fb
    8688:	10000000 	andne	r0, r0, r0
    868c:	0002910d 	andeq	r9, r2, sp, lsl #2
    8690:	093e0500 	ldmdbeq	lr!, {r8, sl}
    8694:	00000025 	andeq	r0, r0, r5, lsr #32
    8698:	04b30d14 	ldrteq	r0, [r3], #3348	; 0xd14
    869c:	3f050000 	svccc	0x00050000
    86a0:	00002509 	andeq	r2, r0, r9, lsl #10
    86a4:	8f0d1800 	svchi	0x000d1800
    86a8:	05000003 	streq	r0, [r0, #-3]
    86ac:	00250940 	eoreq	r0, r5, r0, asr #18
    86b0:	0d1c0000 	ldceq	0, cr0, [ip, #-0]
    86b4:	000004f6 	strdeq	r0, [r0], -r6
    86b8:	25094105 	strcs	r4, [r9, #-261]	; 0xfffffefb
    86bc:	20000000 	andcs	r0, r0, r0
    86c0:	01011200 	mrseq	r1, R9_usr
    86c4:	01080000 	mrseq	r0, (UNDEF: 8)
    86c8:	6d084a05 	vstrvs	s8, [r8, #-20]	; 0xffffffec
    86cc:	0d000002 	stceq	0, cr0, [r0, #-8]
    86d0:	0000018c 	andeq	r0, r0, ip, lsl #3
    86d4:	6d0a4b05 	vstrvs	d4, [sl, #-20]	; 0xffffffec
    86d8:	00000002 	andeq	r0, r0, r2
    86dc:	0000000d 	andeq	r0, r0, sp
    86e0:	094c0500 	stmdbeq	ip, {r8, sl}^
    86e4:	0000026d 	andeq	r0, r0, sp, ror #4
    86e8:	04641380 	strbteq	r1, [r4], #-896	; 0xfffffc80
    86ec:	4e050000 	cdpmi	0, 0, cr0, cr5, cr0, {0}
    86f0:	0001290a 	andeq	r2, r1, sl, lsl #18
    86f4:	13010000 	movwne	r0, #4096	; 0x1000
    86f8:	00000126 	andeq	r0, r0, r6, lsr #2
    86fc:	290a5105 	stmdbcs	sl, {r0, r2, r8, ip, lr}
    8700:	04000001 	streq	r0, [r0], #-1
    8704:	150a0001 	strne	r0, [sl, #-1]
    8708:	7d000001 	stcvc	0, cr0, [r0, #-4]
    870c:	0b000002 	bleq	871c <ckalloc+0x13c>
    8710:	0000002c 	andeq	r0, r0, ip, lsr #32
    8714:	b812001f 	ldmdalt	r2, {r0, r1, r2, r3, r4}
    8718:	90000002 	andls	r0, r0, r2
    871c:	085d0501 	ldmdaeq	sp, {r0, r8, sl}^
    8720:	000002c0 	andeq	r0, r0, r0, asr #5
    8724:	0003ce0d 	andeq	ip, r3, sp, lsl #28
    8728:	125e0500 	subsne	r0, lr, #0, 10
    872c:	000002c0 	andeq	r0, r0, r0, asr #5
    8730:	03e60d00 	mvneq	r0, #0, 26
    8734:	5f050000 	svcpl	0x00050000
    8738:	00002506 	andeq	r2, r0, r6, lsl #10
    873c:	940d0400 	strls	r0, [sp], #-1024	; 0xfffffc00
    8740:	05000001 	streq	r0, [r0, #-1]
    8744:	02c60961 	sbceq	r0, r6, #1589248	; 0x184000
    8748:	0d080000 	stceq	0, cr0, [r8, #-0]
    874c:	00000101 	andeq	r0, r0, r1, lsl #2
    8750:	281e6205 	ldmdacs	lr, {r0, r2, r9, sp, lr}
    8754:	88000002 	stmdahi	r0, {r1}
    8758:	7d040500 	cfstr32vc	mvfx0, [r4, #-0]
    875c:	0a000002 	beq	876c <ckalloc+0x18c>
    8760:	000002d6 	ldrdeq	r0, [r0], -r6
    8764:	000002d6 	ldrdeq	r0, [r0], -r6
    8768:	00002c0b 	andeq	r2, r0, fp, lsl #24
    876c:	05001f00 	streq	r1, [r0, #-3840]	; 0xfffff100
    8770:	0002dc04 	andeq	sp, r2, r4, lsl #24
    8774:	99101400 	ldmdbls	r0, {sl, ip}
    8778:	08000003 	stmdaeq	r0, {r0, r1}
    877c:	05087505 	streq	r7, [r8, #-1285]	; 0xfffffafb
    8780:	0d000003 	stceq	0, cr0, [r0, #-12]
    8784:	000000bb 	strheq	r0, [r0], -fp
    8788:	05117605 	ldreq	r7, [r1, #-1541]	; 0xfffff9fb
    878c:	00000003 	andeq	r0, r0, r3
    8790:	00001b0d 	andeq	r1, r0, sp, lsl #22
    8794:	06770500 	ldrbteq	r0, [r7], -r0, lsl #10
    8798:	00000025 	andeq	r0, r0, r5, lsr #32
    879c:	04050004 	streq	r0, [r5], #-4
    87a0:	0000004f 	andeq	r0, r0, pc, asr #32
    87a4:	0003b810 	andeq	fp, r3, r0, lsl r8
    87a8:	b5056800 	strlt	r6, [r5, #-2048]	; 0xfffff800
    87ac:	00044e08 	andeq	r4, r4, r8, lsl #28
    87b0:	705f1100 	subsvc	r1, pc, r0, lsl #2
    87b4:	12b60500 	adcsne	r0, r6, #0, 10
    87b8:	00000305 	andeq	r0, r0, r5, lsl #6
    87bc:	725f1100 	subsvc	r1, pc, #0, 2
    87c0:	07b70500 	ldreq	r0, [r7, r0, lsl #10]!
    87c4:	00000025 	andeq	r0, r0, r5, lsr #32
    87c8:	775f1104 	ldrbvc	r1, [pc, -r4, lsl #2]
    87cc:	07b80500 	ldreq	r0, [r8, r0, lsl #10]!
    87d0:	00000025 	andeq	r0, r0, r5, lsr #32
    87d4:	011f0d08 	tsteq	pc, r8, lsl #26
    87d8:	b9050000 	stmdblt	r5, {}	; <UNPREDICTABLE>
    87dc:	00003a09 	andeq	r3, r0, r9, lsl #20
    87e0:	080d0c00 	stmdaeq	sp, {sl, fp}
    87e4:	05000002 	streq	r0, [r0, #-2]
    87e8:	003a09ba 	ldrhteq	r0, [sl], -sl
    87ec:	110e0000 	mrsne	r0, (UNDEF: 14)
    87f0:	0066625f 	rsbeq	r6, r6, pc, asr r2
    87f4:	dd11bb05 	vldrle	d11, [r1, #-20]	; 0xffffffec
    87f8:	10000002 	andne	r0, r0, r2
    87fc:	00007b0d 	andeq	r7, r0, sp, lsl #22
    8800:	07bc0500 	ldreq	r0, [ip, r0, lsl #10]!
    8804:	00000025 	andeq	r0, r0, r5, lsr #32
    8808:	010f0d18 	tsteq	pc, r8, lsl sp	; <UNPREDICTABLE>
    880c:	c3050000 	movwgt	r0, #20480	; 0x5000
    8810:	0001150a 	andeq	r1, r1, sl, lsl #10
    8814:	3d0d1c00 	stccc	12, cr1, [sp, #-0]
    8818:	0500000b 	streq	r0, [r0, #-11]
    881c:	05c01dc5 	strbeq	r1, [r0, #3525]	; 0xdc5
    8820:	0d200000 	stceq	0, cr0, [r0, #-0]
    8824:	00000632 	andeq	r0, r0, r2, lsr r6
    8828:	ea1dc705 	b	77a444 <__bss_end__+0x7703e4>
    882c:	24000005 	strcs	r0, [r0], #-5
    8830:	00043a0d 	andeq	r3, r4, sp, lsl #20
    8834:	0dca0500 	cfstr64eq	mvdx0, [sl]
    8838:	0000060e 	andeq	r0, r0, lr, lsl #12
    883c:	05100d28 	ldreq	r0, [r0, #-3368]	; 0xfffff2d8
    8840:	cb050000 	blgt	148848 <__bss_end__+0x13e7e8>
    8844:	00062809 	andeq	r2, r6, r9, lsl #16
    8848:	5f112c00 	svcpl	0x00112c00
    884c:	05006275 	streq	r6, [r0, #-629]	; 0xfffffd8b
    8850:	02dd11ce 	sbcseq	r1, sp, #-2147483597	; 0x80000033
    8854:	11300000 	teqne	r0, r0
    8858:	0070755f 	rsbseq	r7, r0, pc, asr r5
    885c:	0512cf05 	ldreq	ip, [r2, #-3845]	; 0xfffff0fb
    8860:	38000003 	stmdacc	r0, {r0, r1}
    8864:	72755f11 	rsbsvc	r5, r5, #17, 30	; 0x44
    8868:	07d00500 	ldrbeq	r0, [r0, r0, lsl #10]
    886c:	00000025 	andeq	r0, r0, r5, lsr #32
    8870:	00b50d3c 	adcseq	r0, r5, ip, lsr sp
    8874:	d3050000 	movwle	r0, #20480	; 0x5000
    8878:	00062e11 	andeq	r2, r6, r1, lsl lr
    887c:	e80d4000 	stmda	sp, {lr}
    8880:	05000004 	streq	r0, [r0, #-4]
    8884:	063e11d4 			; <UNDEFINED> instruction: 0x063e11d4
    8888:	11430000 	mrsne	r0, (UNDEF: 67)
    888c:	00626c5f 	rsbeq	r6, r2, pc, asr ip
    8890:	dd11d705 	ldcle	7, cr13, [r1, #-20]	; 0xffffffec
    8894:	44000002 	strmi	r0, [r0], #-2
    8898:	00013d0d 	andeq	r3, r1, sp, lsl #26
    889c:	07da0500 	ldrbeq	r0, [sl, r0, lsl #10]
    88a0:	00000025 	andeq	r0, r0, r5, lsr #32
    88a4:	014e0d4c 	cmpeq	lr, ip, asr #26
    88a8:	db050000 	blle	1488b0 <__bss_end__+0x13e850>
    88ac:	0000820a 	andeq	r8, r0, sl, lsl #4
    88b0:	de0d5000 	cdple	0, 0, cr5, cr13, cr0, {0}
    88b4:	0500000a 	streq	r0, [r0, #-10]
    88b8:	046c12de 	strbteq	r1, [ip], #-734	; 0xfffffd22
    88bc:	0d540000 	ldcleq	0, cr0, [r4, #-0]
    88c0:	0000042c 	andeq	r0, r0, ip, lsr #8
    88c4:	090ce205 	stmdbeq	ip, {r0, r2, r9, sp, lr, pc}
    88c8:	58000001 	stmdapl	r0, {r0}
    88cc:	0003c00d 	andeq	ip, r3, sp
    88d0:	0ee40500 	cdpeq	5, 14, cr0, cr4, cr0, {0}
    88d4:	000000fd 	strdeq	r0, [r0], -sp
    88d8:	02890d5c 	addeq	r0, r9, #92, 26	; 0x1700
    88dc:	e5050000 	str	r0, [r5, #-0]
    88e0:	00002509 	andeq	r2, r0, r9, lsl #10
    88e4:	15006400 	strne	r6, [r0, #-1024]	; 0xfffffc00
    88e8:	00000025 	andeq	r0, r0, r5, lsr #32
    88ec:	0000046c 	andeq	r0, r0, ip, ror #8
    88f0:	00046c16 	andeq	r6, r4, r6, lsl ip
    88f4:	01151600 	tsteq	r5, r0, lsl #12
    88f8:	17160000 	ldrne	r0, [r6, -r0]
    88fc:	16000001 	strne	r0, [r0], -r1
    8900:	00000025 	andeq	r0, r0, r5, lsr #32
    8904:	77040500 	strvc	r0, [r4, -r0, lsl #10]
    8908:	0f000004 	svceq	0x00000004
    890c:	0000046c 	andeq	r0, r0, ip, ror #8
    8910:	00041617 	andeq	r1, r4, r7, lsl r6
    8914:	05042800 	streq	r2, [r4, #-2048]	; 0xfffff800
    8918:	c0080260 	andgt	r0, r8, r0, ror #4
    891c:	18000005 	stmdane	r0, {r0, r2}
    8920:	0000037e 	andeq	r0, r0, lr, ror r3
    8924:	07026205 	streq	r6, [r2, -r5, lsl #4]
    8928:	00000025 	andeq	r0, r0, r5, lsr #32
    892c:	012e1800 			; <UNDEFINED> instruction: 0x012e1800
    8930:	67050000 	strvs	r0, [r5, -r0]
    8934:	069a0b02 	ldreq	r0, [sl], r2, lsl #22
    8938:	18040000 	stmdane	r4, {}	; <UNPREDICTABLE>
    893c:	000001f8 	strdeq	r0, [r0], -r8
    8940:	14026705 	strne	r6, [r2], #-1797	; 0xfffff8fb
    8944:	0000069a 	muleq	r0, sl, r6
    8948:	01a81808 			; <UNDEFINED> instruction: 0x01a81808
    894c:	67050000 	strvs	r0, [r5, -r0]
    8950:	069a1e02 	ldreq	r1, [sl], r2, lsl #28
    8954:	180c0000 	stmdane	ip, {}	; <UNPREDICTABLE>
    8958:	000003e1 	andeq	r0, r0, r1, ror #7
    895c:	08026905 	stmdaeq	r2, {r0, r2, r8, fp, sp, lr}
    8960:	00000025 	andeq	r0, r0, r5, lsr #32
    8964:	00291810 	eoreq	r1, r9, r0, lsl r8
    8968:	6a050000 	bvs	148970 <__bss_end__+0x13e910>
    896c:	089a0802 	ldmeq	sl, {r1, fp}
    8970:	18140000 	ldmdane	r4, {}	; <UNPREDICTABLE>
    8974:	000003f5 	strdeq	r0, [r0], -r5
    8978:	07026d05 	streq	r6, [r2, -r5, lsl #26]
    897c:	00000025 	andeq	r0, r0, r5, lsr #32
    8980:	0a1a1830 	beq	68ea48 <__bss_end__+0x6849e8>
    8984:	6e050000 	cdpvs	0, 0, cr0, cr5, cr0, {0}
    8988:	08af1602 	stmiaeq	pc!, {r1, r9, sl, ip}	; <UNPREDICTABLE>
    898c:	18340000 	ldmdane	r4!, {}	; <UNPREDICTABLE>
    8990:	000002c0 	andeq	r0, r0, r0, asr #5
    8994:	07027005 	streq	r7, [r2, -r5]
    8998:	00000025 	andeq	r0, r0, r5, lsr #32
    899c:	03eb1838 	mvneq	r1, #56, 16	; 0x380000
    89a0:	72050000 	andvc	r0, r5, #0
    89a4:	08c00a02 	stmiaeq	r0, {r1, r9, fp}^
    89a8:	183c0000 	ldmdane	ip!, {}	; <UNPREDICTABLE>
    89ac:	00000265 	andeq	r0, r0, r5, ror #4
    89b0:	13027505 	movwne	r7, #9477	; 0x2505
    89b4:	0000018f 	andeq	r0, r0, pc, lsl #3
    89b8:	01c71840 	biceq	r1, r7, r0, asr #16
    89bc:	76050000 	strvc	r0, [r5], -r0
    89c0:	00250702 	eoreq	r0, r5, r2, lsl #14
    89c4:	18440000 	stmdane	r4, {}^	; <UNPREDICTABLE>
    89c8:	0000052a 	andeq	r0, r0, sl, lsr #10
    89cc:	13027705 	movwne	r7, #9989	; 0x2705
    89d0:	0000018f 	andeq	r0, r0, pc, lsl #3
    89d4:	02d21848 	sbcseq	r1, r2, #72, 16	; 0x480000
    89d8:	78050000 	stmdavc	r5, {}	; <UNPREDICTABLE>
    89dc:	08c61402 	stmiaeq	r6, {r1, sl, ip}^
    89e0:	184c0000 	stmdane	ip, {}^	; <UNPREDICTABLE>
    89e4:	00000200 	andeq	r0, r0, r0, lsl #4
    89e8:	07027b05 	streq	r7, [r2, -r5, lsl #22]
    89ec:	00000025 	andeq	r0, r0, r5, lsr #32
    89f0:	01461850 	cmpeq	r6, r0, asr r8
    89f4:	7c050000 	stcvc	0, cr0, [r5], {-0}
    89f8:	01170902 	tsteq	r7, r2, lsl #18
    89fc:	18540000 	ldmdane	r4, {}^	; <UNPREDICTABLE>
    8a00:	000002f8 	strdeq	r0, [r0], -r8
    8a04:	07029f05 	streq	r9, [r2, -r5, lsl #30]
    8a08:	00000875 	andeq	r0, r0, r5, ror r8
    8a0c:	02b81958 	adcseq	r1, r8, #88, 18	; 0x160000
    8a10:	a3050000 	movwge	r0, #20480	; 0x5000
    8a14:	02c01302 	sbceq	r1, r0, #134217728	; 0x8000000
    8a18:	01480000 	mrseq	r0, (UNDEF: 72)
    8a1c:	00024319 	andeq	r4, r2, r9, lsl r3
    8a20:	02a40500 	adceq	r0, r4, #0, 10
    8a24:	00027d12 	andeq	r7, r2, r2, lsl sp
    8a28:	19014c00 	stmdbne	r1, {sl, fp, lr}
    8a2c:	000004d6 	ldrdeq	r0, [r0], -r6
    8a30:	0c02a805 	stceq	8, cr10, [r2], {5}
    8a34:	000008d7 	ldrdeq	r0, [r0], -r7
    8a38:	171902dc 			; <UNDEFINED> instruction: 0x171902dc
    8a3c:	05000001 	streq	r0, [r0, #-1]
    8a40:	5b1002ad 	blpl	4094fc <__bss_end__+0x3ff49c>
    8a44:	e0000006 	and	r0, r0, r6
    8a48:	00fc1902 	rscseq	r1, ip, r2, lsl #18
    8a4c:	af050000 	svcge	0x00050000
    8a50:	08e30a02 	stmiaeq	r3!, {r1, r9, fp}^
    8a54:	02ec0000 	rsceq	r0, ip, #0
    8a58:	4e040500 	cfsh32mi	mvfx0, mvfx4, #0
    8a5c:	15000004 	strne	r0, [r0, #-4]
    8a60:	00000025 	andeq	r0, r0, r5, lsr #32
    8a64:	000005e4 	andeq	r0, r0, r4, ror #11
    8a68:	00046c16 	andeq	r6, r4, r6, lsl ip
    8a6c:	01151600 	tsteq	r5, r0, lsl #12
    8a70:	e4160000 	ldr	r0, [r6], #-0
    8a74:	16000005 	strne	r0, [r0], -r5
    8a78:	00000025 	andeq	r0, r0, r5, lsr #32
    8a7c:	24040500 	strcs	r0, [r4], #-1280	; 0xfffffb00
    8a80:	05000001 	streq	r0, [r0, #-1]
    8a84:	0005c604 	andeq	ip, r5, r4, lsl #12
    8a88:	008e1500 	addeq	r1, lr, r0, lsl #10
    8a8c:	060e0000 	streq	r0, [lr], -r0
    8a90:	6c160000 	ldcvs	0, cr0, [r6], {-0}
    8a94:	16000004 	strne	r0, [r0], -r4
    8a98:	00000115 	andeq	r0, r0, r5, lsl r1
    8a9c:	00008e16 	andeq	r8, r0, r6, lsl lr
    8aa0:	00251600 	eoreq	r1, r5, r0, lsl #12
    8aa4:	05000000 	streq	r0, [r0, #-0]
    8aa8:	0005f004 	andeq	pc, r5, r4
    8aac:	00251500 	eoreq	r1, r5, r0, lsl #10
    8ab0:	06280000 	strteq	r0, [r8], -r0
    8ab4:	6c160000 	ldcvs	0, cr0, [r6], {-0}
    8ab8:	16000004 	strne	r0, [r0], -r4
    8abc:	00000115 	andeq	r0, r0, r5, lsl r1
    8ac0:	14040500 	strne	r0, [r4], #-1280	; 0xfffffb00
    8ac4:	0a000006 	beq	8ae4 <printk+0x24>
    8ac8:	0000004f 	andeq	r0, r0, pc, asr #32
    8acc:	0000063e 	andeq	r0, r0, lr, lsr r6
    8ad0:	00002c0b 	andeq	r2, r0, fp, lsl #24
    8ad4:	0a000200 	beq	92dc <uart_init+0x70>
    8ad8:	0000004f 	andeq	r0, r0, pc, asr #32
    8adc:	0000064e 	andeq	r0, r0, lr, asr #12
    8ae0:	00002c0b 	andeq	r2, r0, fp, lsl #24
    8ae4:	07000000 	streq	r0, [r0, -r0]
    8ae8:	000003a6 	andeq	r0, r0, r6, lsr #7
    8aec:	1a011f05 	bne	50708 <__bss_end__+0x466a8>
    8af0:	0000030b 	andeq	r0, r0, fp, lsl #6
    8af4:	0004bd1a 	andeq	fp, r4, sl, lsl sp
    8af8:	23050c00 	movwcs	r0, #23552	; 0x5c00
    8afc:	06940801 	ldreq	r0, [r4], r1, lsl #16
    8b00:	ce180000 	cdpgt	0, 1, cr0, cr8, cr0, {0}
    8b04:	05000003 	streq	r0, [r0, #-3]
    8b08:	94110125 	ldrls	r0, [r1], #-293	; 0xfffffedb
    8b0c:	00000006 	andeq	r0, r0, r6
    8b10:	00021b18 	andeq	r1, r2, r8, lsl fp
    8b14:	01260500 			; <UNDEFINED> instruction: 0x01260500
    8b18:	00002507 	andeq	r2, r0, r7, lsl #10
    8b1c:	a0180400 	andsge	r0, r8, r0, lsl #8
    8b20:	05000003 	streq	r0, [r0, #-3]
    8b24:	9a0b0127 	bls	2c8fc8 <__bss_end__+0x2bef68>
    8b28:	08000006 	stmdaeq	r0, {r1, r2}
    8b2c:	5b040500 	blpl	109f34 <__bss_end__+0xffed4>
    8b30:	05000006 	streq	r0, [r0, #-6]
    8b34:	00064e04 	andeq	r4, r6, r4, lsl #28
    8b38:	00211a00 	eoreq	r1, r1, r0, lsl #20
    8b3c:	050e0000 	streq	r0, [lr, #-0]
    8b40:	d908013f 	stmdble	r8, {r0, r1, r2, r3, r4, r5, r8}
    8b44:	18000006 	stmdane	r0, {r1, r2}
    8b48:	0000041d 	andeq	r0, r0, sp, lsl r4
    8b4c:	12014005 	andne	r4, r1, #5
    8b50:	000006d9 	ldrdeq	r0, [r0], -r9
    8b54:	04511800 	ldrbeq	r1, [r1], #-2048	; 0xfffff800
    8b58:	41050000 	mrsmi	r0, (UNDEF: 5)
    8b5c:	06d91201 	ldrbeq	r1, [r9], r1, lsl #4
    8b60:	18060000 	stmdane	r6, {}	; <UNPREDICTABLE>
    8b64:	0000046d 	andeq	r0, r0, sp, ror #8
    8b68:	12014205 	andne	r4, r1, #1342177280	; 0x50000000
    8b6c:	00000056 	andeq	r0, r0, r6, asr r0
    8b70:	560a000c 	strpl	r0, [sl], -ip
    8b74:	e9000000 	stmdb	r0, {}	; <UNPREDICTABLE>
    8b78:	0b000006 	bleq	8b98 <isdigit+0x10>
    8b7c:	0000002c 	andeq	r0, r0, ip, lsr #32
    8b80:	d01b0002 	andsle	r0, fp, r2
    8b84:	07028005 	streq	r8, [r2, -r5]
    8b88:	000007fe 	strdeq	r0, [r0], -lr
    8b8c:	0004a118 	andeq	sl, r4, r8, lsl r1
    8b90:	02820500 	addeq	r0, r2, #0, 10
    8b94:	00002c18 	andeq	r2, r0, r8, lsl ip
    8b98:	57180000 	ldrpl	r0, [r8, -r0]
    8b9c:	05000004 	streq	r0, [r0, #-4]
    8ba0:	17120283 	ldrne	r0, [r2, -r3, lsl #5]
    8ba4:	04000001 	streq	r0, [r0], #-1
    8ba8:	00025818 	andeq	r5, r2, r8, lsl r8
    8bac:	02840500 	addeq	r0, r4, #0, 10
    8bb0:	0007fe10 	andeq	pc, r7, r0, lsl lr	; <UNPREDICTABLE>
    8bb4:	01180800 	tsteq	r8, r0, lsl #16
    8bb8:	05000005 	streq	r0, [r0, #-5]
    8bbc:	a5170285 	ldrge	r0, [r7, #-645]	; 0xfffffd7b
    8bc0:	24000001 	strcs	r0, [r0], #-1
    8bc4:	0001b818 	andeq	fp, r1, r8, lsl r8
    8bc8:	02860500 	addeq	r0, r6, #0, 10
    8bcc:	0000250f 	andeq	r2, r0, pc, lsl #10
    8bd0:	c9184800 	ldmdbgt	r8, {fp, lr}
    8bd4:	05000003 	streq	r0, [r0, #-3]
    8bd8:	642c0287 	strtvs	r0, [ip], #-647	; 0xfffffd79
    8bdc:	50000000 	andpl	r0, r0, r0
    8be0:	00051718 	andeq	r1, r5, r8, lsl r7
    8be4:	02880500 	addeq	r0, r8, #0, 10
    8be8:	0006a01a 	andeq	sl, r6, sl, lsl r0
    8bec:	d4185800 	ldrle	r5, [r8], #-2048	; 0xfffff800
    8bf0:	05000003 	streq	r0, [r0, #-3]
    8bf4:	fd160289 	ldc2	2, cr0, [r6, #-548]	; 0xfffffddc
    8bf8:	68000000 	stmdavs	r0, {}	; <UNPREDICTABLE>
    8bfc:	00051c18 	andeq	r1, r5, r8, lsl ip
    8c00:	028a0500 	addeq	r0, sl, #0, 10
    8c04:	0000fd16 	andeq	pc, r0, r6, lsl sp	; <UNPREDICTABLE>
    8c08:	dc187000 	ldcle	0, cr7, [r8], {-0}
    8c0c:	05000002 	streq	r0, [r0, #-2]
    8c10:	fd16028b 	ldc2	2, cr0, [r6, #-556]	; 0xfffffdd4
    8c14:	78000000 	stmdavc	r0, {}	; <UNPREDICTABLE>
    8c18:	0004cc18 	andeq	ip, r4, r8, lsl ip
    8c1c:	028c0500 	addeq	r0, ip, #0, 10
    8c20:	00080e10 	andeq	r0, r8, r0, lsl lr
    8c24:	4c188000 	ldcmi	0, cr8, [r8], {-0}
    8c28:	05000002 	streq	r0, [r0, #-2]
    8c2c:	1e10028d 	cdpne	2, 1, cr0, cr0, cr13, {4}
    8c30:	88000008 	stmdahi	r0, {r3}
    8c34:	00047a18 	andeq	r7, r4, r8, lsl sl
    8c38:	028e0500 	addeq	r0, lr, #0, 10
    8c3c:	0000250f 	andeq	r2, r0, pc, lsl #10
    8c40:	7e18a000 	cdpvc	0, 1, cr10, cr8, cr0, {0}
    8c44:	05000001 	streq	r0, [r0, #-1]
    8c48:	fd16028f 	ldc2	2, cr0, [r6, #-572]	; 0xfffffdc4
    8c4c:	a4000000 	strge	r0, [r0], #-0
    8c50:	00008f18 	andeq	r8, r0, r8, lsl pc
    8c54:	02900500 	addseq	r0, r0, #0, 10
    8c58:	0000fd16 	andeq	pc, r0, r6, lsl sp	; <UNPREDICTABLE>
    8c5c:	6d18ac00 	ldcvs	12, cr10, [r8, #-0]
    8c60:	05000001 	streq	r0, [r0, #-1]
    8c64:	fd160291 	ldc2	2, cr0, [r6, #-580]	; 0xfffffdbc
    8c68:	b4000000 	strlt	r0, [r0], #-0
    8c6c:	00003c18 	andeq	r3, r0, r8, lsl ip
    8c70:	02920500 	addseq	r0, r2, #0, 10
    8c74:	0000fd16 	andeq	pc, r0, r6, lsl sp	; <UNPREDICTABLE>
    8c78:	4b18bc00 	blmi	637c80 <__bss_end__+0x62dc20>
    8c7c:	05000000 	streq	r0, [r0, #-0]
    8c80:	fd160293 	ldc2	2, cr0, [r6, #-588]	; 0xfffffdb4
    8c84:	c4000000 	strgt	r0, [r0], #-0
    8c88:	00037c18 	andeq	r7, r3, r8, lsl ip
    8c8c:	02940500 	addseq	r0, r4, #0, 10
    8c90:	00002508 	andeq	r2, r0, r8, lsl #10
    8c94:	0a00cc00 	beq	3bc9c <__bss_end__+0x31c3c>
    8c98:	0000011d 	andeq	r0, r0, sp, lsl r1
    8c9c:	0000080e 	andeq	r0, r0, lr, lsl #16
    8ca0:	00002c0b 	andeq	r2, r0, fp, lsl #24
    8ca4:	0a001900 	beq	f0ac <__bss_end__+0x504c>
    8ca8:	0000011d 	andeq	r0, r0, sp, lsl r1
    8cac:	0000081e 	andeq	r0, r0, lr, lsl r8
    8cb0:	00002c0b 	andeq	r2, r0, fp, lsl #24
    8cb4:	0a000700 	beq	a8bc <__bss_end__+0x85c>
    8cb8:	0000011d 	andeq	r0, r0, sp, lsl r1
    8cbc:	0000082e 	andeq	r0, r0, lr, lsr #16
    8cc0:	00002c0b 	andeq	r2, r0, fp, lsl #24
    8cc4:	1b001700 	blne	e8cc <__bss_end__+0x486c>
    8cc8:	029905f0 	addseq	r0, r9, #240, 10	; 0x3c000000
    8ccc:	00085507 	andeq	r5, r8, r7, lsl #10
    8cd0:	02a81800 	adceq	r1, r8, #0, 16
    8cd4:	9c050000 	stcls	0, cr0, [r5], {-0}
    8cd8:	08551b02 	ldmdaeq	r5, {r1, r8, r9, fp, ip}^
    8cdc:	18000000 	stmdane	r0, {}	; <UNPREDICTABLE>
    8ce0:	000004c3 	andeq	r0, r0, r3, asr #9
    8ce4:	18029d05 	stmdane	r2, {r0, r2, r8, sl, fp, ip, pc}
    8ce8:	00000865 	andeq	r0, r0, r5, ror #16
    8cec:	050a0078 	streq	r0, [sl, #-120]	; 0xffffff88
    8cf0:	65000003 	strvs	r0, [r0, #-3]
    8cf4:	0b000008 	bleq	8d1c <emit+0x124>
    8cf8:	0000002c 	andeq	r0, r0, ip, lsr #32
    8cfc:	2c0a001d 	stccs	0, cr0, [sl], {29}
    8d00:	75000000 	strvc	r0, [r0, #-0]
    8d04:	0b000008 	bleq	8d2c <emit+0x134>
    8d08:	0000002c 	andeq	r0, r0, ip, lsr #32
    8d0c:	f01c001d 			; <UNDEFINED> instruction: 0xf01c001d
    8d10:	03027e05 	movweq	r7, #11781	; 0x2e05
    8d14:	0000089a 	muleq	r0, sl, r8
    8d18:	0004161d 	andeq	r1, r4, sp, lsl r6
    8d1c:	02950500 	addseq	r0, r5, #0, 10
    8d20:	0006e90b 	andeq	lr, r6, fp, lsl #18
    8d24:	04ee1d00 	strbteq	r1, [lr], #3328	; 0xd00
    8d28:	9e050000 	cdpls	0, 0, cr0, cr5, cr0, {0}
    8d2c:	082e0b02 	stmdaeq	lr!, {r1, r8, r9, fp}
    8d30:	0a000000 	beq	8d38 <emit+0x140>
    8d34:	0000011d 	andeq	r0, r0, sp, lsl r1
    8d38:	000008aa 	andeq	r0, r0, sl, lsr #17
    8d3c:	00002c0b 	andeq	r2, r0, fp, lsl #24
    8d40:	06001800 	streq	r1, [r0], -r0, lsl #16
    8d44:	00000084 	andeq	r0, r0, r4, lsl #1
    8d48:	08aa0405 	stmiaeq	sl!, {r0, r2, sl}
    8d4c:	c01e0000 	andsgt	r0, lr, r0
    8d50:	16000008 	strne	r0, [r0], -r8
    8d54:	0000046c 	andeq	r0, r0, ip, ror #8
    8d58:	b5040500 	strlt	r0, [r4, #-1280]	; 0xfffffb00
    8d5c:	05000008 	streq	r0, [r0, #-8]
    8d60:	00018f04 	andeq	r8, r1, r4, lsl #30
    8d64:	08d71e00 	ldmeq	r7, {r9, sl, fp, ip}^
    8d68:	25160000 	ldrcs	r0, [r6, #-0]
    8d6c:	00000000 	andeq	r0, r0, r0
    8d70:	08dd0405 	ldmeq	sp, {r0, r2, sl}^
    8d74:	04050000 	streq	r0, [r5], #-0
    8d78:	000008cc 	andeq	r0, r0, ip, asr #17
    8d7c:	00064e0a 	andeq	r4, r6, sl, lsl #28
    8d80:	0008f300 	andeq	pc, r8, r0, lsl #6
    8d84:	002c0b00 	eoreq	r0, ip, r0, lsl #22
    8d88:	00020000 	andeq	r0, r2, r0
    8d8c:	00048e1f 	andeq	r8, r4, pc, lsl lr
    8d90:	032e0500 			; <UNDEFINED> instruction: 0x032e0500
    8d94:	00046c17 	andeq	r6, r4, r7, lsl ip
    8d98:	04871f00 	streq	r1, [r7], #3840	; 0xf00
    8d9c:	2f050000 	svccs	0x00050000
    8da0:	04721d03 	ldrbteq	r1, [r2], #-3331	; 0xfffff2fd
    8da4:	25150000 	ldrcs	r0, [r5, #-0]
    8da8:	1c000000 	stcne	0, cr0, [r0], {-0}
    8dac:	16000009 	strne	r0, [r0], -r9
    8db0:	00000025 	andeq	r0, r0, r5, lsr #32
    8db4:	01d12000 	bicseq	r2, r1, r0
    8db8:	1d060000 	stcne	0, cr0, [r6, #-0]
    8dbc:	0009280e 	andeq	r2, r9, lr, lsl #16
    8dc0:	0d040500 	cfstr32eq	mvfx0, [r4, #-0]
    8dc4:	15000009 	strne	r0, [r0, #-9]
    8dc8:	00000025 	andeq	r0, r0, r5, lsr #32
    8dcc:	0000093d 	andeq	r0, r0, sp, lsr r9
    8dd0:	0005e416 	andeq	lr, r5, r6, lsl r4
    8dd4:	81200000 			; <UNDEFINED> instruction: 0x81200000
    8dd8:	06000007 	streq	r0, [r0], -r7
    8ddc:	09490e22 	stmdbeq	r9, {r1, r5, r9, sl, fp}^
    8de0:	04050000 	streq	r0, [r5], #-0
    8de4:	0000092e 	andeq	r0, r0, lr, lsr #18
    8de8:	0008d521 	andeq	sp, r8, r1, lsr #10
    8dec:	062b0100 	strteq	r0, [fp], -r0, lsl #2
    8df0:	000091e8 	andeq	r9, r0, r8, ror #3
    8df4:	00000018 	andeq	r0, r0, r8, lsl r0
    8df8:	09999c01 	ldmibeq	r9, {r0, sl, fp, ip, pc}
    8dfc:	73220000 			; <UNDEFINED> instruction: 0x73220000
    8e00:	01006365 	tsteq	r0, r5, ror #6
    8e04:	002c192b 	eoreq	r1, ip, fp, lsr #18
    8e08:	131b0000 	tstne	fp, #0
    8e0c:	13170000 	tstne	r7, #0
    8e10:	fc230000 	stc2	0, cr0, [r3], #-0
    8e14:	99000091 	stmdbls	r0, {r0, r4, r7}
    8e18:	24000009 	strcs	r0, [r0], #-9
    8e1c:	f3115001 	vhadd.u16	d5, d1, d1
    8e20:	24355001 	ldrtcs	r5, [r5], #-1
    8e24:	1c5001f3 	ldfnee	f0, [r0], {243}	; 0xf3
    8e28:	01f32432 	mvnseq	r2, r2, lsr r4
    8e2c:	24332250 	ldrtcs	r2, [r3], #-592	; 0xfffffdb0
    8e30:	05210000 	streq	r0, [r1, #-0]!
    8e34:	01000008 	tsteq	r0, r8
    8e38:	91d00628 	bicsls	r0, r0, r8, lsr #12
    8e3c:	00180000 	andseq	r0, r8, r0
    8e40:	9c010000 	stcls	0, cr0, [r1], {-0}
    8e44:	000009e2 	andeq	r0, r0, r2, ror #19
    8e48:	00736d22 	rsbseq	r6, r3, r2, lsr #26
    8e4c:	2c182801 	ldccs	8, cr2, [r8], {1}
    8e50:	40000000 	andmi	r0, r0, r0
    8e54:	3c000013 	stccc	0, cr0, [r0], {19}
    8e58:	23000013 	movwcs	r0, #19
    8e5c:	000091e4 	andeq	r9, r0, r4, ror #3
    8e60:	000009e2 	andeq	r0, r0, r2, ror #19
    8e64:	11500124 	cmpne	r0, r4, lsr #2
    8e68:	355001f3 	ldrbcc	r0, [r0, #-499]	; 0xfffffe0d
    8e6c:	5001f324 	andpl	pc, r1, r4, lsr #6
    8e70:	f324321c 	vqsub.u32	d3, d4, d12
    8e74:	33225001 			; <UNDEFINED> instruction: 0x33225001
    8e78:	21000024 	tstcs	r0, r4, lsr #32
    8e7c:	0000091d 	andeq	r0, r0, sp, lsl r9
    8e80:	ac061f01 	stcge	15, cr1, [r6], {1}
    8e84:	24000091 	strcs	r0, [r0], #-145	; 0xffffff6f
    8e88:	01000000 	mrseq	r0, (UNDEF: 0)
    8e8c:	000a529c 	muleq	sl, ip, r2
    8e90:	73752200 	cmnvc	r5, #0, 4
    8e94:	181f0100 	ldmdane	pc, {r8}	; <UNPREDICTABLE>
    8e98:	0000002c 	andeq	r0, r0, ip, lsr #32
    8e9c:	00001365 	andeq	r1, r0, r5, ror #6
    8ea0:	00001361 	andeq	r1, r0, r1, ror #6
    8ea4:	00627225 	rsbeq	r7, r2, r5, lsr #4
    8ea8:	2c0e2001 	stccs	0, cr2, [lr], {1}
    8eac:	85000000 	strhi	r0, [r0, #-0]
    8eb0:	83000013 	movwhi	r0, #19
    8eb4:	26000013 			; <UNDEFINED> instruction: 0x26000013
    8eb8:	000091bc 			; <UNDEFINED> instruction: 0x000091bc
    8ebc:	00000014 	andeq	r0, r0, r4, lsl r0
    8ec0:	00000a48 	andeq	r0, r0, r8, asr #20
    8ec4:	00617225 	rsbeq	r7, r1, r5, lsr #4
    8ec8:	2c122201 	lfmcs	f2, 4, [r2], {1}
    8ecc:	9a000000 	bls	8ed4 <va_printk+0xdc>
    8ed0:	98000013 	stmdals	r0, {r0, r1, r4}
    8ed4:	27000013 	smladcs	r0, r3, r0, r0
    8ed8:	000091c0 	andeq	r9, r0, r0, asr #3
    8edc:	00000a52 	andeq	r0, r0, r2, asr sl
    8ee0:	91b82700 			; <UNDEFINED> instruction: 0x91b82700
    8ee4:	0a520000 	beq	1488eec <__bss_end__+0x147ee8c>
    8ee8:	28000000 	stmdacs	r0, {}	; <UNPREDICTABLE>
    8eec:	000008c6 	andeq	r0, r0, r6, asr #17
    8ef0:	2c0a1601 	stccs	6, cr1, [sl], {1}
    8ef4:	a0000000 	andge	r0, r0, r0
    8ef8:	0c000091 	stceq	0, cr0, [r0], {145}	; 0x91
    8efc:	01000000 	mrseq	r0, (UNDEF: 0)
    8f00:	000a889c 	muleq	sl, ip, r8
    8f04:	00752500 	rsbseq	r2, r5, r0, lsl #10
    8f08:	2c0e1a01 			; <UNDEFINED> instruction: 0x2c0e1a01
    8f0c:	af000000 	svcge	0x00000000
    8f10:	ad000013 	stcge	0, cr0, [r0, #-76]	; 0xffffffb4
    8f14:	27000013 	smladcs	r0, r3, r0, r0
    8f18:	000091a8 	andeq	r9, r0, r8, lsr #3
    8f1c:	00000a88 	andeq	r0, r0, r8, lsl #21
    8f20:	090a2800 	stmdbeq	sl, {fp, sp}
    8f24:	11010000 	mrsne	r0, (UNDEF: 1)
    8f28:	00002c0a 	andeq	r2, r0, sl, lsl #24
    8f2c:	00918c00 	addseq	r8, r1, r0, lsl #24
    8f30:	00001400 	andeq	r1, r0, r0, lsl #8
    8f34:	b69c0100 	ldrlt	r0, [ip], r0, lsl #2
    8f38:	2300000a 	movwcs	r0, #10
    8f3c:	00009198 	muleq	r0, r8, r1
    8f40:	00000ae1 	andeq	r0, r0, r1, ror #21
    8f44:	05500124 	ldrbeq	r0, [r0, #-292]	; 0xfffffedc
    8f48:	0030040c 	eorseq	r0, r0, ip, lsl #8
    8f4c:	21000020 	tstcs	r0, r0, lsr #32
    8f50:	000008df 	ldrdeq	r0, [r0], -pc	; <UNPREDICTABLE>
    8f54:	74060501 	strvc	r0, [r6], #-1281	; 0xfffffaff
    8f58:	18000091 	stmdane	r0, {r0, r4, r7}
    8f5c:	01000000 	mrseq	r0, (UNDEF: 0)
    8f60:	000ae19c 	muleq	sl, ip, r1
    8f64:	08fe2900 	ldmeq	lr!, {r8, fp, sp}^
    8f68:	05010000 	streq	r0, [r1, #-0]
    8f6c:	00002c1c 	andeq	r2, r0, ip, lsl ip
    8f70:	0013c600 	andseq	ip, r3, r0, lsl #12
    8f74:	0013c200 	andseq	ip, r3, r0, lsl #4
    8f78:	042a0000 	strteq	r0, [sl], #-0
    8f7c:	04000009 	streq	r0, [r0], #-9
    8f80:	06000009 	streq	r0, [r0], -r9
    8f84:	c5000aa7 	strgt	r0, [r0, #-2727]	; 0xfffff559
    8f88:	0400000c 	streq	r0, [r0], #-12
    8f8c:	001cb600 	andseq	fp, ip, r0, lsl #12
    8f90:	35010400 	strcc	r0, [r1, #-1024]	; 0xfffffc00
    8f94:	0c00000a 	stceq	0, cr0, [r0], {10}
    8f98:	00000959 	andeq	r0, r0, r9, asr r9
    8f9c:	0000096c 	andeq	r0, r0, ip, ror #18
    8fa0:	0000924c 	andeq	r9, r0, ip, asr #4
    8fa4:	00000178 	andeq	r0, r0, r8, ror r1
    8fa8:	000018ed 	andeq	r1, r0, sp, ror #17
    8fac:	69050402 	stmdbvs	r5, {r1, sl}
    8fb0:	0300746e 	movweq	r7, #1134	; 0x46e
    8fb4:	00660704 	rsbeq	r0, r6, r4, lsl #14
    8fb8:	2c040000 	stccs	0, cr0, [r4], {-0}
    8fbc:	03000000 	movweq	r0, #0
    8fc0:	02ec0601 	rsceq	r0, ip, #1048576	; 0x100000
    8fc4:	02030000 	andeq	r0, r3, #0
    8fc8:	00038505 	andeq	r8, r3, r5, lsl #10
    8fcc:	05040300 	streq	r0, [r4, #-768]	; 0xfffffd00
    8fd0:	000000ac 	andeq	r0, r0, ip, lsr #1
    8fd4:	a7050803 	strge	r0, [r5, -r3, lsl #16]
    8fd8:	03000000 	movweq	r0, #0
    8fdc:	02ea0801 	rsceq	r0, sl, #65536	; 0x10000
    8fe0:	02030000 	andeq	r0, r3, #0
    8fe4:	00022207 	andeq	r2, r2, r7, lsl #4
    8fe8:	07040300 	streq	r0, [r4, -r0, lsl #6]
    8fec:	00000061 	andeq	r0, r0, r1, rrx
    8ff0:	5c070803 	stcpl	8, cr0, [r7], {3}
    8ff4:	05000000 	streq	r0, [r0, #-0]
    8ff8:	00000a00 	andeq	r0, r0, r0, lsl #20
    8ffc:	00250702 	eoreq	r0, r5, r2, lsl #14
    9000:	cb050000 	blgt	149008 <__bss_end__+0x13efa8>
    9004:	03000002 	movweq	r0, #2
    9008:	0000462c 	andeq	r4, r0, ip, lsr #12
    900c:	04400500 	strbeq	r0, [r0], #-1280	; 0xfffffb00
    9010:	72030000 	andvc	r0, r3, #0
    9014:	00000046 	andeq	r0, r0, r6, asr #32
    9018:	00027b06 	andeq	r7, r2, r6, lsl #22
    901c:	01650400 	cmneq	r5, r0, lsl #8
    9020:	0000002c 	andeq	r0, r0, ip, lsr #32
    9024:	a6030407 	strge	r0, [r3], -r7, lsl #8
    9028:	000000bc 	strheq	r0, [r0], -ip
    902c:	00026d08 	andeq	r6, r2, r8, lsl #26
    9030:	91a80300 			; <UNDEFINED> instruction: 0x91a80300
    9034:	08000000 	stmdaeq	r0, {}	; <UNPREDICTABLE>
    9038:	000001e2 	andeq	r0, r0, r2, ror #3
    903c:	00bca903 	adcseq	sl, ip, r3, lsl #18
    9040:	09000000 	stmdbeq	r0, {}	; <UNPREDICTABLE>
    9044:	00000054 	andeq	r0, r0, r4, asr r0
    9048:	000000cc 	andeq	r0, r0, ip, asr #1
    904c:	0000cc0a 	andeq	ip, r0, sl, lsl #24
    9050:	03000300 	movweq	r0, #768	; 0x300
    9054:	09e00704 	stmibeq	r0!, {r2, r8, r9, sl}^
    9058:	080b0000 	stmdaeq	fp, {}	; <UNPREDICTABLE>
    905c:	00f4a303 	rscseq	sl, r4, r3, lsl #6
    9060:	230c0000 	movwcs	r0, #49152	; 0xc000
    9064:	03000004 	movweq	r0, #4
    9068:	000025a5 	andeq	r2, r0, r5, lsr #11
    906c:	320c0000 	andcc	r0, ip, #0
    9070:	03000004 	movweq	r0, #4
    9074:	00009daa 	andeq	r9, r0, sl, lsr #27
    9078:	05000400 	streq	r0, [r0, #-1024]	; 0xfffffc00
    907c:	000003ad 	andeq	r0, r0, sp, lsr #7
    9080:	00d3ab03 	sbcseq	sl, r3, r3, lsl #22
    9084:	9f050000 	svcls	0x00050000
    9088:	03000001 	movweq	r0, #1
    908c:	000070af 	andeq	r7, r0, pc, lsr #1
    9090:	0e040d00 	cdpeq	13, 0, cr0, cr4, cr0, {0}
    9094:	00011204 	andeq	r1, r1, r4, lsl #4
    9098:	08010300 	stmdaeq	r1, {r8, r9}
    909c:	000002f3 	strdeq	r0, [r0], -r3
    90a0:	0001120f 	andeq	r1, r1, pc, lsl #4
    90a4:	04720500 	ldrbteq	r0, [r2], #-1280	; 0xfffffb00
    90a8:	16050000 	strne	r0, [r5], -r0
    90ac:	00000062 	andeq	r0, r0, r2, rrx
    90b0:	0001b010 	andeq	fp, r1, r0, lsl r0
    90b4:	2d051800 	stccs	8, cr1, [r5, #-0]
    90b8:	0000017c 	andeq	r0, r0, ip, ror r1
    90bc:	0003ce0c 	andeq	ip, r3, ip, lsl #28
    90c0:	7c2f0500 	cfstr32vc	mvfx0, [pc], #-0	; 90c8 <clean_reboot+0x20>
    90c4:	00000001 	andeq	r0, r0, r1
    90c8:	006b5f11 	rsbeq	r5, fp, r1, lsl pc
    90cc:	00253005 	eoreq	r3, r5, r5
    90d0:	0c040000 	stceq	0, cr0, [r4], {-0}
    90d4:	0000040e 	andeq	r0, r0, lr, lsl #8
    90d8:	00253005 	eoreq	r3, r5, r5
    90dc:	0c080000 	stceq	0, cr0, [r8], {-0}
    90e0:	00000199 	muleq	r0, r9, r1
    90e4:	00253005 	eoreq	r3, r5, r5
    90e8:	0c0c0000 	stceq	0, cr0, [ip], {-0}
    90ec:	000004ae 	andeq	r0, r0, lr, lsr #9
    90f0:	00253005 	eoreq	r3, r5, r5
    90f4:	11100000 	tstne	r0, r0
    90f8:	0500785f 	streq	r7, [r0, #-2143]	; 0xfffff7a1
    90fc:	00018231 	andeq	r8, r1, r1, lsr r2
    9100:	0e001400 	cfcpyseq	mvf1, mvf0
    9104:	00012904 	andeq	r2, r1, r4, lsl #18
    9108:	011e0900 	tsteq	lr, r0, lsl #18
    910c:	01920000 	orrseq	r0, r2, r0
    9110:	cc0a0000 	stcgt	0, cr0, [sl], {-0}
    9114:	00000000 	andeq	r0, r0, r0
    9118:	01dd1000 	bicseq	r1, sp, r0
    911c:	05240000 	streq	r0, [r4, #-0]!
    9120:	00020b35 	andeq	r0, r2, r5, lsr fp
    9124:	009e0c00 	addseq	r0, lr, r0, lsl #24
    9128:	37050000 	strcc	r0, [r5, -r0]
    912c:	00000025 	andeq	r0, r0, r5, lsr #32
    9130:	04480c00 	strbeq	r0, [r8], #-3072	; 0xfffff400
    9134:	38050000 	stmdacc	r5, {}	; <UNPREDICTABLE>
    9138:	00000025 	andeq	r0, r0, r5, lsr #32
    913c:	00c10c04 	sbceq	r0, r1, r4, lsl #24
    9140:	39050000 	stmdbcc	r5, {}	; <UNPREDICTABLE>
    9144:	00000025 	andeq	r0, r0, r5, lsr #32
    9148:	052f0c08 	streq	r0, [pc, #-3080]!	; 8548 <ckfree+0x20>
    914c:	3a050000 	bcc	149154 <__bss_end__+0x13f0f4>
    9150:	00000025 	andeq	r0, r0, r5, lsr #32
    9154:	02af0c0c 	adceq	r0, pc, #12, 24	; 0xc00
    9158:	3b050000 	blcc	149160 <__bss_end__+0x13f100>
    915c:	00000025 	andeq	r0, r0, r5, lsr #32
    9160:	02910c10 	addseq	r0, r1, #16, 24	; 0x1000
    9164:	3c050000 	stccc	0, cr0, [r5], {-0}
    9168:	00000025 	andeq	r0, r0, r5, lsr #32
    916c:	04b30c14 	ldrteq	r0, [r3], #3092	; 0xc14
    9170:	3d050000 	stccc	0, cr0, [r5, #-0]
    9174:	00000025 	andeq	r0, r0, r5, lsr #32
    9178:	038f0c18 	orreq	r0, pc, #24, 24	; 0x1800
    917c:	3e050000 	cdpcc	0, 0, cr0, cr5, cr0, {0}
    9180:	00000025 	andeq	r0, r0, r5, lsr #32
    9184:	04f60c1c 	ldrbteq	r0, [r6], #3100	; 0xc1c
    9188:	3f050000 	svccc	0x00050000
    918c:	00000025 	andeq	r0, r0, r5, lsr #32
    9190:	01120020 	tsteq	r2, r0, lsr #32
    9194:	08000001 	stmdaeq	r0, {r0}
    9198:	4b480501 	blmi	120a5a4 <__bss_end__+0x1200544>
    919c:	0c000002 	stceq	0, cr0, [r0], {2}
    91a0:	0000018c 	andeq	r0, r0, ip, lsl #3
    91a4:	024b4905 	subeq	r4, fp, #81920	; 0x14000
    91a8:	0c000000 	stceq	0, cr0, [r0], {-0}
    91ac:	00000000 	andeq	r0, r0, r0
    91b0:	024b4a05 	subeq	r4, fp, #20480	; 0x5000
    91b4:	13800000 	orrne	r0, r0, #0
    91b8:	00000464 	andeq	r0, r0, r4, ror #8
    91bc:	011e4c05 	tsteq	lr, r5, lsl #24
    91c0:	01000000 	mrseq	r0, (UNDEF: 0)
    91c4:	00012613 	andeq	r2, r1, r3, lsl r6
    91c8:	1e4f0500 	cdpne	5, 4, cr0, cr15, cr0, {0}
    91cc:	04000001 	streq	r0, [r0], #-1
    91d0:	0a090001 	beq	2491dc <__bss_end__+0x23f17c>
    91d4:	5b000001 	blpl	91e0 <delay_ms+0x10>
    91d8:	0a000002 	beq	91e8 <delay_sec>
    91dc:	000000cc 	andeq	r0, r0, ip, asr #1
    91e0:	b812001f 	ldmdalt	r2, {r0, r1, r2, r3, r4}
    91e4:	90000002 	andls	r0, r0, r2
    91e8:	995b0501 	ldmdbls	fp, {r0, r8, sl}^
    91ec:	0c000002 	stceq	0, cr0, [r0], {2}
    91f0:	000003ce 	andeq	r0, r0, lr, asr #7
    91f4:	02995c05 	addseq	r5, r9, #1280	; 0x500
    91f8:	0c000000 	stceq	0, cr0, [r0], {-0}
    91fc:	000003e6 	andeq	r0, r0, r6, ror #7
    9200:	00255d05 	eoreq	r5, r5, r5, lsl #26
    9204:	0c040000 	stceq	0, cr0, [r4], {-0}
    9208:	00000194 	muleq	r0, r4, r1
    920c:	029f5f05 	addseq	r5, pc, #5, 30
    9210:	0c080000 	stceq	0, cr0, [r8], {-0}
    9214:	00000101 	andeq	r0, r0, r1, lsl #2
    9218:	020b6005 	andeq	r6, fp, #5
    921c:	00880000 	addeq	r0, r8, r0
    9220:	025b040e 	subseq	r0, fp, #234881024	; 0xe000000
    9224:	af090000 	svcge	0x00090000
    9228:	af000002 	svcge	0x00000002
    922c:	0a000002 	beq	923c <GET32+0x4>
    9230:	000000cc 	andeq	r0, r0, ip, asr #1
    9234:	040e001f 	streq	r0, [lr], #-31	; 0xffffffe1
    9238:	000002b5 			; <UNDEFINED> instruction: 0x000002b5
    923c:	03991014 	orrseq	r1, r9, #20
    9240:	05080000 	streq	r0, [r8, #-0]
    9244:	0002db73 	andeq	sp, r2, r3, ror fp
    9248:	00bb0c00 	adcseq	r0, fp, r0, lsl #24
    924c:	74050000 	strvc	r0, [r5], #-0
    9250:	000002db 	ldrdeq	r0, [r0], -fp
    9254:	001b0c00 	andseq	r0, fp, r0, lsl #24
    9258:	75050000 	strvc	r0, [r5, #-0]
    925c:	00000025 	andeq	r0, r0, r5, lsr #32
    9260:	040e0004 	streq	r0, [lr], #-4
    9264:	00000054 	andeq	r0, r0, r4, asr r0
    9268:	0003b810 	andeq	fp, r3, r0, lsl r8
    926c:	b3056800 	movwlt	r6, #22528	; 0x5800
    9270:	0000040b 	andeq	r0, r0, fp, lsl #8
    9274:	00705f11 	rsbseq	r5, r0, r1, lsl pc
    9278:	02dbb405 	sbcseq	fp, fp, #83886080	; 0x5000000
    927c:	11000000 	mrsne	r0, (UNDEF: 0)
    9280:	0500725f 	streq	r7, [r0, #-607]	; 0xfffffda1
    9284:	000025b5 			; <UNDEFINED> instruction: 0x000025b5
    9288:	5f110400 	svcpl	0x00110400
    928c:	b6050077 			; <UNDEFINED> instruction: 0xb6050077
    9290:	00000025 	andeq	r0, r0, r5, lsr #32
    9294:	011f0c08 	tsteq	pc, r8, lsl #24
    9298:	b7050000 	strlt	r0, [r5, -r0]
    929c:	0000003f 	andeq	r0, r0, pc, lsr r0
    92a0:	02080c0c 	andeq	r0, r8, #12, 24	; 0xc00
    92a4:	b8050000 	stmdalt	r5, {}	; <UNPREDICTABLE>
    92a8:	0000003f 	andeq	r0, r0, pc, lsr r0
    92ac:	625f110e 	subsvs	r1, pc, #-2147483645	; 0x80000003
    92b0:	b9050066 	stmdblt	r5, {r1, r2, r5, r6}
    92b4:	000002b6 			; <UNDEFINED> instruction: 0x000002b6
    92b8:	007b0c10 	rsbseq	r0, fp, r0, lsl ip
    92bc:	ba050000 	blt	1492c4 <__bss_end__+0x13f264>
    92c0:	00000025 	andeq	r0, r0, r5, lsr #32
    92c4:	010f0c18 	tsteq	pc, r8, lsl ip	; <UNPREDICTABLE>
    92c8:	c1050000 	mrsgt	r0, (UNDEF: 5)
    92cc:	0000010a 	andeq	r0, r0, sl, lsl #2
    92d0:	0b3d0c1c 	bleq	f4c348 <__bss_end__+0xf422e8>
    92d4:	c3050000 	movwgt	r0, #20480	; 0x5000
    92d8:	00000566 	andeq	r0, r0, r6, ror #10
    92dc:	06320c20 	ldrteq	r0, [r2], -r0, lsr #24
    92e0:	c5050000 	strgt	r0, [r5, #-0]
    92e4:	00000590 	muleq	r0, r0, r5
    92e8:	043a0c24 	ldrteq	r0, [sl], #-3108	; 0xfffff3dc
    92ec:	c8050000 	stmdagt	r5, {}	; <UNPREDICTABLE>
    92f0:	000005b4 			; <UNDEFINED> instruction: 0x000005b4
    92f4:	05100c28 	ldreq	r0, [r0, #-3112]	; 0xfffff3d8
    92f8:	c9050000 	stmdbgt	r5, {}	; <UNPREDICTABLE>
    92fc:	000005ce 	andeq	r0, r0, lr, asr #11
    9300:	755f112c 	ldrbvc	r1, [pc, #-300]	; 91dc <delay_ms+0xc>
    9304:	cc050062 	stcgt	0, cr0, [r5], {98}	; 0x62
    9308:	000002b6 			; <UNDEFINED> instruction: 0x000002b6
    930c:	755f1130 	ldrbvc	r1, [pc, #-304]	; 91e4 <delay_ms+0x14>
    9310:	cd050070 	stcgt	0, cr0, [r5, #-448]	; 0xfffffe40
    9314:	000002db 	ldrdeq	r0, [r0], -fp
    9318:	755f1138 	ldrbvc	r1, [pc, #-312]	; 91e8 <delay_sec>
    931c:	ce050072 	mcrgt	0, 0, r0, cr5, cr2, {3}
    9320:	00000025 	andeq	r0, r0, r5, lsr #32
    9324:	00b50c3c 	adcseq	r0, r5, ip, lsr ip
    9328:	d1050000 	mrsle	r0, (UNDEF: 5)
    932c:	000005d4 	ldrdeq	r0, [r0], -r4
    9330:	04e80c40 	strbteq	r0, [r8], #3136	; 0xc40
    9334:	d2050000 	andle	r0, r5, #0
    9338:	000005e4 	andeq	r0, r0, r4, ror #11
    933c:	6c5f1143 	ldfvse	f1, [pc], {67}	; 0x43
    9340:	d5050062 	strle	r0, [r5, #-98]	; 0xffffff9e
    9344:	000002b6 			; <UNDEFINED> instruction: 0x000002b6
    9348:	013d0c44 	teqeq	sp, r4, asr #24
    934c:	d8050000 	stmdale	r5, {}	; <UNPREDICTABLE>
    9350:	00000025 	andeq	r0, r0, r5, lsr #32
    9354:	014e0c4c 	cmpeq	lr, ip, asr #24
    9358:	d9050000 	stmdble	r5, {}	; <UNPREDICTABLE>
    935c:	0000007b 	andeq	r0, r0, fp, ror r0
    9360:	0ade0c50 	beq	ff78c4a8 <__bss_end__+0xff782448>
    9364:	dc050000 	stcle	0, cr0, [r5], {-0}
    9368:	00000429 	andeq	r0, r0, r9, lsr #8
    936c:	042c0c54 	strteq	r0, [ip], #-3156	; 0xfffff3ac
    9370:	e0050000 	and	r0, r5, r0
    9374:	000000ff 	strdeq	r0, [r0], -pc	; <UNPREDICTABLE>
    9378:	03c00c58 	biceq	r0, r0, #88, 24	; 0x5800
    937c:	e2050000 	and	r0, r5, #0
    9380:	000000f4 	strdeq	r0, [r0], -r4
    9384:	02890c5c 	addeq	r0, r9, #92, 24	; 0x5c00
    9388:	e3050000 	movw	r0, #20480	; 0x5000
    938c:	00000025 	andeq	r0, r0, r5, lsr #32
    9390:	25150064 	ldrcs	r0, [r5, #-100]	; 0xffffff9c
    9394:	29000000 	stmdbcs	r0, {}	; <UNPREDICTABLE>
    9398:	16000004 	strne	r0, [r0], -r4
    939c:	00000429 	andeq	r0, r0, r9, lsr #8
    93a0:	00010a16 	andeq	r0, r1, r6, lsl sl
    93a4:	010c1600 	tsteq	ip, r0, lsl #12
    93a8:	25160000 	ldrcs	r0, [r6, #-0]
    93ac:	00000000 	andeq	r0, r0, r0
    93b0:	0434040e 	ldrteq	r0, [r4], #-1038	; 0xfffffbf2
    93b4:	290f0000 	stmdbcs	pc, {}	; <UNPREDICTABLE>
    93b8:	17000004 	strne	r0, [r0, -r4]
    93bc:	00000416 	andeq	r0, r0, r6, lsl r4
    93c0:	38050428 	stmdacc	r5, {r3, r5, sl}
    93c4:	00056602 	andeq	r6, r5, r2, lsl #12
    93c8:	037e1800 	cmneq	lr, #0, 16
    93cc:	3a050000 	bcc	1493d4 <__bss_end__+0x13f374>
    93d0:	00002502 	andeq	r2, r0, r2, lsl #10
    93d4:	2e180000 	cdpcs	0, 1, cr0, cr8, cr0, {0}
    93d8:	05000001 	streq	r0, [r0, #-1]
    93dc:	063b023f 			; <UNDEFINED> instruction: 0x063b023f
    93e0:	18040000 	stmdane	r4, {}	; <UNPREDICTABLE>
    93e4:	000001f8 	strdeq	r0, [r0], -r8
    93e8:	3b023f05 	blcc	99004 <__bss_end__+0x8efa4>
    93ec:	08000006 	stmdaeq	r0, {r1, r2}
    93f0:	0001a818 	andeq	sl, r1, r8, lsl r8
    93f4:	023f0500 	eorseq	r0, pc, #0, 10
    93f8:	0000063b 	andeq	r0, r0, fp, lsr r6
    93fc:	03e1180c 	mvneq	r1, #12, 16	; 0xc0000
    9400:	41050000 	mrsmi	r0, (UNDEF: 5)
    9404:	00002502 	andeq	r2, r0, r2, lsl #10
    9408:	29181000 	ldmdbcs	r8, {ip}
    940c:	05000000 	streq	r0, [r0, #-0]
    9410:	081d0242 	ldmdaeq	sp, {r1, r6, r9}
    9414:	18140000 	ldmdane	r4, {}	; <UNPREDICTABLE>
    9418:	00000a97 	muleq	r0, r7, sl
    941c:	25024405 	strcs	r4, [r2, #-1029]	; 0xfffffbfb
    9420:	30000000 	andcc	r0, r0, r0
    9424:	000a1218 	andeq	r1, sl, r8, lsl r2
    9428:	02450500 	subeq	r0, r5, #0, 10
    942c:	0000058a 	andeq	r0, r0, sl, lsl #11
    9430:	02c01834 	sbceq	r1, r0, #52, 16	; 0x340000
    9434:	47050000 	strmi	r0, [r5, -r0]
    9438:	00002502 	andeq	r2, r0, r2, lsl #10
    943c:	eb183800 	bl	617444 <__bss_end__+0x60d3e4>
    9440:	05000003 	streq	r0, [r0, #-3]
    9444:	08380249 	ldmdaeq	r8!, {r0, r3, r6, r9}
    9448:	183c0000 	ldmdane	ip!, {}	; <UNPREDICTABLE>
    944c:	00000265 	andeq	r0, r0, r5, ror #4
    9450:	7c024c05 	stcvc	12, cr4, [r2], {5}
    9454:	40000001 	andmi	r0, r0, r1
    9458:	0001c718 	andeq	ip, r1, r8, lsl r7
    945c:	024d0500 	subeq	r0, sp, #0, 10
    9460:	00000025 	andeq	r0, r0, r5, lsr #32
    9464:	052a1844 	streq	r1, [sl, #-2116]!	; 0xfffff7bc
    9468:	4e050000 	cdpmi	0, 0, cr0, cr5, cr0, {0}
    946c:	00017c02 	andeq	r7, r1, r2, lsl #24
    9470:	d2184800 	andsle	r4, r8, #0, 16
    9474:	05000002 	streq	r0, [r0, #-2]
    9478:	083e024f 	ldmdaeq	lr!, {r0, r1, r2, r3, r6, r9}
    947c:	184c0000 	stmdane	ip, {}^	; <UNPREDICTABLE>
    9480:	00000200 	andeq	r0, r0, r0, lsl #4
    9484:	25025205 	strcs	r5, [r2, #-517]	; 0xfffffdfb
    9488:	50000000 	andpl	r0, r0, r0
    948c:	00014618 	andeq	r4, r1, r8, lsl r6
    9490:	02530500 	subseq	r0, r3, #0, 10
    9494:	0000010c 	andeq	r0, r0, ip, lsl #2
    9498:	02f81854 	rscseq	r1, r8, #84, 16	; 0x540000
    949c:	76050000 	strvc	r0, [r5], -r0
    94a0:	0007fb02 	andeq	pc, r7, r2, lsl #22
    94a4:	b8195800 	ldmdalt	r9, {fp, ip, lr}
    94a8:	05000002 	streq	r0, [r0, #-2]
    94ac:	0299027a 	addseq	r0, r9, #-1610612729	; 0xa0000007
    94b0:	01480000 	mrseq	r0, (UNDEF: 72)
    94b4:	00024319 	andeq	r4, r2, r9, lsl r3
    94b8:	027b0500 	rsbseq	r0, fp, #0, 10
    94bc:	0000025b 	andeq	r0, r0, fp, asr r2
    94c0:	d619014c 	ldrle	r0, [r9], -ip, asr #2
    94c4:	05000004 	streq	r0, [r0, #-4]
    94c8:	084f027f 	stmdaeq	pc, {r0, r1, r2, r3, r4, r5, r6, r9}^	; <UNPREDICTABLE>
    94cc:	02dc0000 	sbcseq	r0, ip, #0
    94d0:	00011719 	andeq	r1, r1, r9, lsl r7
    94d4:	02840500 	addeq	r0, r4, #0, 10
    94d8:	00000600 	andeq	r0, r0, r0, lsl #12
    94dc:	fc1902e0 	ldc2	2, cr0, [r9], {224}	; 0xe0
    94e0:	05000000 	streq	r0, [r0, #-0]
    94e4:	085b0285 	ldmdaeq	fp, {r0, r2, r7, r9}^
    94e8:	02ec0000 	rsceq	r0, ip, #0
    94ec:	0b040e00 	bleq	10ccf4 <__bss_end__+0x102c94>
    94f0:	15000004 	strne	r0, [r0, #-4]
    94f4:	00000025 	andeq	r0, r0, r5, lsr #32
    94f8:	0000058a 	andeq	r0, r0, sl, lsl #11
    94fc:	00042916 	andeq	r2, r4, r6, lsl r9
    9500:	010a1600 	tsteq	sl, r0, lsl #12
    9504:	8a160000 	bhi	58950c <__bss_end__+0x57f4ac>
    9508:	16000005 	strne	r0, [r0], -r5
    950c:	00000025 	andeq	r0, r0, r5, lsr #32
    9510:	19040e00 	stmdbne	r4, {r9, sl, fp}
    9514:	0e000001 	cdpeq	0, 0, cr0, cr0, cr1, {0}
    9518:	00056c04 	andeq	r6, r5, r4, lsl #24
    951c:	00861500 	addeq	r1, r6, r0, lsl #10
    9520:	05b40000 	ldreq	r0, [r4, #0]!
    9524:	29160000 	ldmdbcs	r6, {}	; <UNPREDICTABLE>
    9528:	16000004 	strne	r0, [r0], -r4
    952c:	0000010a 	andeq	r0, r0, sl, lsl #2
    9530:	00008616 	andeq	r8, r0, r6, lsl r6
    9534:	00251600 	eoreq	r1, r5, r0, lsl #12
    9538:	0e000000 	cdpeq	0, 0, cr0, cr0, cr0, {0}
    953c:	00059604 	andeq	r9, r5, r4, lsl #12
    9540:	00251500 	eoreq	r1, r5, r0, lsl #10
    9544:	05ce0000 	strbeq	r0, [lr]
    9548:	29160000 	ldmdbcs	r6, {}	; <UNPREDICTABLE>
    954c:	16000004 	strne	r0, [r0], -r4
    9550:	0000010a 	andeq	r0, r0, sl, lsl #2
    9554:	ba040e00 	blt	10cd5c <__bss_end__+0x102cfc>
    9558:	09000005 	stmdbeq	r0, {r0, r2}
    955c:	00000054 	andeq	r0, r0, r4, asr r0
    9560:	000005e4 	andeq	r0, r0, r4, ror #11
    9564:	0000cc0a 	andeq	ip, r0, sl, lsl #24
    9568:	09000200 	stmdbeq	r0, {r9}
    956c:	00000054 	andeq	r0, r0, r4, asr r0
    9570:	000005f4 	strdeq	r0, [r0], -r4
    9574:	0000cc0a 	andeq	ip, r0, sl, lsl #24
    9578:	06000000 	streq	r0, [r0], -r0
    957c:	000003a6 	andeq	r0, r0, r6, lsr #7
    9580:	e1011d05 	tst	r1, r5, lsl #26
    9584:	1a000002 	bne	9594 <kmalloc+0x44>
    9588:	000004bd 			; <UNDEFINED> instruction: 0x000004bd
    958c:	0121050c 			; <UNDEFINED> instruction: 0x0121050c
    9590:	00000635 	andeq	r0, r0, r5, lsr r6
    9594:	0003ce18 	andeq	ip, r3, r8, lsl lr
    9598:	01230500 			; <UNDEFINED> instruction: 0x01230500
    959c:	00000635 	andeq	r0, r0, r5, lsr r6
    95a0:	021b1800 	andseq	r1, fp, #0, 16
    95a4:	24050000 	strcs	r0, [r5], #-0
    95a8:	00002501 	andeq	r2, r0, r1, lsl #10
    95ac:	a0180400 	andsge	r0, r8, r0, lsl #8
    95b0:	05000003 	streq	r0, [r0, #-3]
    95b4:	063b0125 	ldrteq	r0, [fp], -r5, lsr #2
    95b8:	00080000 	andeq	r0, r8, r0
    95bc:	0600040e 	streq	r0, [r0], -lr, lsl #8
    95c0:	040e0000 	streq	r0, [lr], #-0
    95c4:	000005f4 	strdeq	r0, [r0], -r4
    95c8:	0000211a 	andeq	r2, r0, sl, lsl r1
    95cc:	3d050e00 	stccc	14, cr0, [r5, #-0]
    95d0:	00067601 	andeq	r7, r6, r1, lsl #12
    95d4:	041d1800 	ldreq	r1, [sp], #-2048	; 0xfffff800
    95d8:	3e050000 	cdpcc	0, 0, cr0, cr5, cr0, {0}
    95dc:	00067601 	andeq	r7, r6, r1, lsl #12
    95e0:	51180000 	tstpl	r8, r0
    95e4:	05000004 	streq	r0, [r0, #-4]
    95e8:	0676013f 			; <UNDEFINED> instruction: 0x0676013f
    95ec:	18060000 	stmdane	r6, {}	; <UNPREDICTABLE>
    95f0:	0000046d 	andeq	r0, r0, sp, ror #8
    95f4:	5b014005 	blpl	59610 <__bss_end__+0x4f5b0>
    95f8:	0c000000 	stceq	0, cr0, [r0], {-0}
    95fc:	005b0900 	subseq	r0, fp, r0, lsl #18
    9600:	06860000 	streq	r0, [r6], r0
    9604:	cc0a0000 	stcgt	0, cr0, [sl], {-0}
    9608:	02000000 	andeq	r0, r0, #0
    960c:	05d01b00 	ldrbeq	r1, [r0, #2816]	; 0xb00
    9610:	07870257 			; <UNDEFINED> instruction: 0x07870257
    9614:	a1180000 	tstge	r8, r0
    9618:	05000004 	streq	r0, [r0, #-4]
    961c:	002c0259 	eoreq	r0, ip, r9, asr r2
    9620:	18000000 	stmdane	r0, {}	; <UNPREDICTABLE>
    9624:	00000457 	andeq	r0, r0, r7, asr r4
    9628:	0c025a05 			; <UNDEFINED> instruction: 0x0c025a05
    962c:	04000001 	streq	r0, [r0], #-1
    9630:	00025818 	andeq	r5, r2, r8, lsl r8
    9634:	025b0500 	subseq	r0, fp, #0, 10
    9638:	00000787 	andeq	r0, r0, r7, lsl #15
    963c:	05011808 	streq	r1, [r1, #-2056]	; 0xfffff7f8
    9640:	5c050000 	stcpl	0, cr0, [r5], {-0}
    9644:	00019202 	andeq	r9, r1, r2, lsl #4
    9648:	b8182400 	ldmdalt	r8, {sl, sp}
    964c:	05000001 	streq	r0, [r0, #-1]
    9650:	0025025d 	eoreq	r0, r5, sp, asr r2
    9654:	18480000 	stmdane	r8, {}^	; <UNPREDICTABLE>
    9658:	000003c9 	andeq	r0, r0, r9, asr #7
    965c:	69025e05 	stmdbvs	r2, {r0, r2, r9, sl, fp, ip, lr}
    9660:	50000000 	andpl	r0, r0, r0
    9664:	00051718 	andeq	r1, r5, r8, lsl r7
    9668:	025f0500 	subseq	r0, pc, #0, 10
    966c:	00000641 	andeq	r0, r0, r1, asr #12
    9670:	03d41858 	bicseq	r1, r4, #88, 16	; 0x580000
    9674:	60050000 	andvs	r0, r5, r0
    9678:	0000f402 	andeq	pc, r0, r2, lsl #8
    967c:	1c186800 	ldcne	8, cr6, [r8], {-0}
    9680:	05000005 	streq	r0, [r0, #-5]
    9684:	00f40261 	rscseq	r0, r4, r1, ror #4
    9688:	18700000 	ldmdane	r0!, {}^	; <UNPREDICTABLE>
    968c:	000002dc 	ldrdeq	r0, [r0], -ip
    9690:	f4026205 	vst1.8	{d6-d9}, [r2], r5
    9694:	78000000 	stmdavc	r0, {}	; <UNPREDICTABLE>
    9698:	0004cc18 	andeq	ip, r4, r8, lsl ip
    969c:	02630500 	rsbeq	r0, r3, #0, 10
    96a0:	00000797 	muleq	r0, r7, r7
    96a4:	024c1880 	subeq	r1, ip, #128, 16	; 0x800000
    96a8:	64050000 	strvs	r0, [r5], #-0
    96ac:	0007a702 	andeq	sl, r7, r2, lsl #14
    96b0:	7a188800 	bvc	62b6b8 <__bss_end__+0x621658>
    96b4:	05000004 	streq	r0, [r0, #-4]
    96b8:	00250265 	eoreq	r0, r5, r5, ror #4
    96bc:	18a00000 	stmiane	r0!, {}	; <UNPREDICTABLE>
    96c0:	0000017e 	andeq	r0, r0, lr, ror r1
    96c4:	f4026605 	vst1.8	{d6-d8}, [r2], r5
    96c8:	a4000000 	strge	r0, [r0], #-0
    96cc:	00008f18 	andeq	r8, r0, r8, lsl pc
    96d0:	02670500 	rsbeq	r0, r7, #0, 10
    96d4:	000000f4 	strdeq	r0, [r0], -r4
    96d8:	016d18ac 	cmneq	sp, ip, lsr #17
    96dc:	68050000 	stmdavs	r5, {}	; <UNPREDICTABLE>
    96e0:	0000f402 	andeq	pc, r0, r2, lsl #8
    96e4:	3c18b400 	cfldrscc	mvf11, [r8], {-0}
    96e8:	05000000 	streq	r0, [r0, #-0]
    96ec:	00f40269 	rscseq	r0, r4, r9, ror #4
    96f0:	18bc0000 	ldmne	ip!, {}	; <UNPREDICTABLE>
    96f4:	0000004b 	andeq	r0, r0, fp, asr #32
    96f8:	f4026a05 	vst1.8	{d6-d7}, [r2], r5
    96fc:	c4000000 	strgt	r0, [r0], #-0
    9700:	00037c18 	andeq	r7, r3, r8, lsl ip
    9704:	026b0500 	rsbeq	r0, fp, #0, 10
    9708:	00000025 	andeq	r0, r0, r5, lsr #32
    970c:	120900cc 	andne	r0, r9, #204	; 0xcc
    9710:	97000001 	strls	r0, [r0, -r1]
    9714:	0a000007 	beq	9738 <__FUNCTION__.4337+0x24>
    9718:	000000cc 	andeq	r0, r0, ip, asr #1
    971c:	12090019 	andne	r0, r9, #25
    9720:	a7000001 	strge	r0, [r0, -r1]
    9724:	0a000007 	beq	9748 <__FUNCTION__.4337+0x34>
    9728:	000000cc 	andeq	r0, r0, ip, asr #1
    972c:	12090007 	andne	r0, r9, #7
    9730:	b7000001 	strlt	r0, [r0, -r1]
    9734:	0a000007 	beq	9758 <__FUNCTION__.4337+0x44>
    9738:	000000cc 	andeq	r0, r0, ip, asr #1
    973c:	f01b0017 			; <UNDEFINED> instruction: 0xf01b0017
    9740:	db027005 	blle	a575c <__bss_end__+0x9b6fc>
    9744:	18000007 	stmdane	r0, {r0, r1, r2}
    9748:	000002a8 	andeq	r0, r0, r8, lsr #5
    974c:	db027305 	blle	a6368 <__bss_end__+0x9c308>
    9750:	00000007 	andeq	r0, r0, r7
    9754:	0004c318 	andeq	ip, r4, r8, lsl r3
    9758:	02740500 	rsbseq	r0, r4, #0, 10
    975c:	000007eb 	andeq	r0, r0, fp, ror #15
    9760:	db090078 	blle	249948 <__bss_end__+0x23f8e8>
    9764:	eb000002 	bl	9774 <__FUNCTION__.4337+0x60>
    9768:	0a000007 	beq	978c <__FUNCTION__.4337+0x78>
    976c:	000000cc 	andeq	r0, r0, ip, asr #1
    9770:	2c09001d 	stccs	0, cr0, [r9], {29}
    9774:	fb000000 	blx	977e <__FUNCTION__.4337+0x6a>
    9778:	0a000007 	beq	979c <__FUNCTION__.4337+0x88>
    977c:	000000cc 	andeq	r0, r0, ip, asr #1
    9780:	f01c001d 			; <UNDEFINED> instruction: 0xf01c001d
    9784:	1d025505 	cfstr32ne	mvfx5, [r2, #-20]	; 0xffffffec
    9788:	1d000008 	stcne	0, cr0, [r0, #-32]	; 0xffffffe0
    978c:	00000416 	andeq	r0, r0, r6, lsl r4
    9790:	86026c05 	strhi	r6, [r2], -r5, lsl #24
    9794:	1d000006 	stcne	0, cr0, [r0, #-24]	; 0xffffffe8
    9798:	000004ee 	andeq	r0, r0, lr, ror #9
    979c:	b7027505 	strlt	r7, [r2, -r5, lsl #10]
    97a0:	00000007 	andeq	r0, r0, r7
    97a4:	00011209 	andeq	r1, r1, r9, lsl #4
    97a8:	00082d00 	andeq	r2, r8, r0, lsl #26
    97ac:	00cc0a00 	sbceq	r0, ip, r0, lsl #20
    97b0:	00180000 	andseq	r0, r8, r0
    97b4:	0008381e 	andeq	r3, r8, lr, lsl r8
    97b8:	04291600 	strteq	r1, [r9], #-1536	; 0xfffffa00
    97bc:	0e000000 	cdpeq	0, 0, cr0, cr0, cr0, {0}
    97c0:	00082d04 	andeq	r2, r8, r4, lsl #26
    97c4:	7c040e00 	stcvc	14, cr0, [r4], {-0}
    97c8:	1e000001 	cdpne	0, 0, cr0, cr0, cr1, {0}
    97cc:	0000084f 	andeq	r0, r0, pc, asr #16
    97d0:	00002516 	andeq	r2, r0, r6, lsl r5
    97d4:	040e0000 	streq	r0, [lr], #-0
    97d8:	00000855 	andeq	r0, r0, r5, asr r8
    97dc:	0844040e 	stmdaeq	r4, {r1, r2, r3, sl}^
    97e0:	f4090000 	vst4.8	{d0-d3}, [r9], r0
    97e4:	6b000005 	blvs	9800 <__FUNCTION__.4337+0xec>
    97e8:	0a000008 	beq	9810 <__FUNCTION__.4337+0xfc>
    97ec:	000000cc 	andeq	r0, r0, ip, asr #1
    97f0:	8e1f0002 	cdphi	0, 1, cr0, cr15, cr2, {0}
    97f4:	05000004 	streq	r0, [r0, #-4]
    97f8:	042902fd 	strteq	r0, [r9], #-765	; 0xfffffd03
    97fc:	871f0000 	ldrhi	r0, [pc, -r0]
    9800:	05000004 	streq	r0, [r0, #-4]
    9804:	042f02fe 	strteq	r0, [pc], #-766	; 980c <__FUNCTION__.4337+0xf8>
    9808:	25150000 	ldrcs	r0, [r5, #-0]
    980c:	92000000 	andls	r0, r0, #0
    9810:	16000008 	strne	r0, [r0], -r8
    9814:	00000025 	andeq	r0, r0, r5, lsr #32
    9818:	01d12000 	bicseq	r2, r1, r0
    981c:	1d060000 	stcne	0, cr0, [r6, #-0]
    9820:	0000089d 	muleq	r0, sp, r8
    9824:	0883040e 	stmeq	r3, {r1, r2, r3, sl}
    9828:	25150000 	ldrcs	r0, [r5, #-0]
    982c:	b2000000 	andlt	r0, r0, #0
    9830:	16000008 	strne	r0, [r0], -r8
    9834:	0000058a 	andeq	r0, r0, sl, lsl #11
    9838:	07812000 	streq	r2, [r1, r0]
    983c:	22060000 	andcs	r0, r6, #0
    9840:	000008bd 			; <UNDEFINED> instruction: 0x000008bd
    9844:	08a3040e 	stmiaeq	r3!, {r1, r2, r3, sl}
    9848:	01210000 			; <UNDEFINED> instruction: 0x01210000
    984c:	00000054 	andeq	r0, r0, r4, asr r0
    9850:	09000c08 	stmdbeq	r0, {r3, sl, fp}
    9854:	30220000 	eorcc	r0, r2, r0
    9858:	00000009 	andeq	r0, r0, r9
    985c:	000aa922 	andeq	sl, sl, r2, lsr #18
    9860:	e4220100 	strt	r0, [r2], #-256	; 0xffffff00
    9864:	0400000a 	streq	r0, [r0], #-10
    9868:	00094522 	andeq	r4, r9, r2, lsr #10
    986c:	d1220500 			; <UNDEFINED> instruction: 0xd1220500
    9870:	06000009 	streq	r0, [r0], -r9
    9874:	000af322 	andeq	pc, sl, r2, lsr #6
    9878:	02220700 	eoreq	r0, r2, #0, 14
    987c:	0300000b 	movweq	r0, #11
    9880:	000b1122 	andeq	r1, fp, r2, lsr #2
    9884:	10000200 	andne	r0, r0, r0, lsl #4
    9888:	00000960 	andeq	r0, r0, r0, ror #18
    988c:	9006072c 	andls	r0, r6, ip, lsr #14
    9890:	11000009 	tstne	r0, r9
    9894:	07006f69 	streq	r6, [r0, -r9, ror #30]
    9898:	00003309 	andeq	r3, r0, r9, lsl #6
    989c:	69110000 	ldmdbvs	r1, {}	; <UNPREDICTABLE>
    98a0:	07007265 	streq	r7, [r0, -r5, ror #4]
    98a4:	0000330a 	andeq	r3, r0, sl, lsl #6
    98a8:	69110400 	ldmdbvs	r1, {sl}
    98ac:	07007269 	streq	r7, [r0, -r9, ror #4]
    98b0:	00003311 	andeq	r3, r0, r1, lsl r3
    98b4:	6c110800 	ldcvs	8, cr0, [r1], {-0}
    98b8:	07007263 	streq	r7, [r0, -r3, ror #4]
    98bc:	00003313 	andeq	r3, r0, r3, lsl r3
    98c0:	6d110c00 	ldcvs	12, cr0, [r1, #-0]
    98c4:	07007263 	streq	r7, [r0, -r3, ror #4]
    98c8:	00003314 	andeq	r3, r0, r4, lsl r3
    98cc:	6c111000 	ldcvs	0, cr1, [r1], {-0}
    98d0:	07007273 	smlsdxeq	r0, r3, r2, r7
    98d4:	00003315 	andeq	r3, r0, r5, lsl r3
    98d8:	6d111400 	cfldrsvs	mvf1, [r1, #-0]
    98dc:	07007273 	smlsdxeq	r0, r3, r2, r7
    98e0:	00003316 	andeq	r3, r0, r6, lsl r3
    98e4:	270c1800 	strcs	r1, [ip, -r0, lsl #16]
    98e8:	0700000a 	streq	r0, [r0, -sl]
    98ec:	00003317 	andeq	r3, r0, r7, lsl r3
    98f0:	540c1c00 	strpl	r1, [ip], #-3072	; 0xfffff400
    98f4:	07000009 	streq	r0, [r0, -r9]
    98f8:	0000331b 	andeq	r3, r0, fp, lsl r3
    98fc:	400c2000 	andmi	r2, ip, r0
    9900:	07000009 	streq	r0, [r0, -r9]
    9904:	0000331d 	andeq	r3, r0, sp, lsl r3
    9908:	220c2400 	andcs	r2, ip, #0, 8
    990c:	0700000a 	streq	r0, [r0, -sl]
    9910:	0000331e 	andeq	r3, r0, lr, lsl r3
    9914:	23002800 	movwcs	r2, #2048	; 0x800
    9918:	000009a1 	andeq	r0, r0, r1, lsr #19
    991c:	09a50701 	stmibeq	r5!, {r0, r8, r9, sl}
    9920:	50040000 	andpl	r0, r4, r0
    9924:	040e2021 	streq	r2, [lr], #-33	; 0xffffffdf
    9928:	00000033 	andeq	r0, r0, r3, lsr r0
    992c:	00099f0f 	andeq	r9, r9, pc, lsl #30
    9930:	09fb2300 	ldmibeq	fp!, {r8, r9, sp}^
    9934:	28010000 	stmdacs	r1, {}	; <UNPREDICTABLE>
    9938:	000009bf 			; <UNDEFINED> instruction: 0x000009bf
    993c:	20215040 	eorcs	r5, r1, r0, asr #32
    9940:	0900040e 	stmdbeq	r0, {r1, r2, r3, sl}
    9944:	b90f0000 	stmdblt	pc, {}	; <UNPREDICTABLE>
    9948:	24000009 	strcs	r0, [r0], #-9
    994c:	00000ad6 	ldrdeq	r0, [r0], -r6
    9950:	0025a701 	eoreq	sl, r5, r1, lsl #14
    9954:	93b40000 			; <UNDEFINED> instruction: 0x93b40000
    9958:	00100000 	andseq	r0, r0, r0
    995c:	9c010000 	stcls	0, cr0, [r1], {-0}
    9960:	000009f0 	strdeq	r0, [r0], -r0	; <UNPREDICTABLE>
    9964:	0093bc25 	addseq	fp, r3, r5, lsr #24
    9968:	000c9c00 	andeq	r9, ip, r0, lsl #24
    996c:	93c02500 	bicls	r2, r0, #0, 10
    9970:	0ad20000 	beq	ff489978 <__bss_end__+0xff47f918>
    9974:	26000000 	strcs	r0, [r0], -r0
    9978:	0000074e 	andeq	r0, r0, lr, asr #14
    997c:	93849f01 	orrls	r9, r4, #1, 30
    9980:	00300000 	eorseq	r0, r0, r0
    9984:	9c010000 	stcls	0, cr0, [r1], {-0}
    9988:	00000a4e 	andeq	r0, r0, lr, asr #20
    998c:	01006327 	tsteq	r0, r7, lsr #6
    9990:	00002c9f 	muleq	r0, pc, ip	; <UNPREDICTABLE>
    9994:	0013e400 	andseq	lr, r3, r0, lsl #8
    9998:	93902500 	orrsls	r2, r0, #0, 10
    999c:	0c9c0000 	ldceq	0, cr0, [ip], {0}
    99a0:	94250000 	strtls	r0, [r5], #-0
    99a4:	a5000093 	strge	r0, [r0, #-147]	; 0xffffff6d
    99a8:	2800000a 	stmdacs	r0, {r1, r3}
    99ac:	000093a8 	andeq	r9, r0, r8, lsr #7
    99b0:	00000ca7 	andeq	r0, r0, r7, lsr #25
    99b4:	00000a44 	andeq	r0, r0, r4, asr #20
    99b8:	05500129 	ldrbeq	r0, [r0, #-297]	; 0xfffffed7
    99bc:	2150400c 	cmpcs	r0, ip
    99c0:	51012920 	tstpl	r1, r0, lsr #18
    99c4:	08007405 	stmdaeq	r0, {r0, r2, sl, ip, sp, lr}
    99c8:	25001aff 	strcs	r1, [r0, #-2815]	; 0xfffff501
    99cc:	000093ac 	andeq	r9, r0, ip, lsr #7
    99d0:	00000c9c 	muleq	r0, ip, ip
    99d4:	09bb2400 	ldmibeq	fp!, {sl, sp}
    99d8:	97010000 	strls	r0, [r1, -r0]
    99dc:	00000025 	andeq	r0, r0, r5, lsr #32
    99e0:	00009354 	andeq	r9, r0, r4, asr r3
    99e4:	00000030 	andeq	r0, r0, r0, lsr r0
    99e8:	0aa59c01 	beq	fe9709f4 <__bss_end__+0xfe966994>
    99ec:	632a0000 			; <UNDEFINED> instruction: 0x632a0000
    99f0:	259b0100 	ldrcs	r0, [fp, #256]	; 0x100
    99f4:	01000000 	mrseq	r0, (UNDEF: 0)
    99f8:	935c2554 	cmpls	ip, #84, 10	; 0x15000000
    99fc:	0c9c0000 	ldceq	0, cr0, [ip], {0}
    9a00:	60250000 	eorvs	r0, r5, r0
    9a04:	d2000093 	andle	r0, r0, #147	; 0x93
    9a08:	2800000a 	stmdacs	r0, {r1, r3}
    9a0c:	00009370 	andeq	r9, r0, r0, ror r3
    9a10:	00000cb2 			; <UNDEFINED> instruction: 0x00000cb2
    9a14:	00000a9b 	muleq	r0, fp, sl
    9a18:	05500129 	ldrbeq	r0, [r0, #-297]	; 0xfffffed7
    9a1c:	2150400c 	cmpcs	r0, ip
    9a20:	78250020 	stmdavc	r5!, {r5}
    9a24:	9c000093 	stcls	0, cr0, [r0], {147}	; 0x93
    9a28:	0000000c 	andeq	r0, r0, ip
    9a2c:	0009ad24 	andeq	sl, r9, r4, lsr #26
    9a30:	25880100 	strcs	r0, [r8, #256]	; 0x100
    9a34:	34000000 	strcc	r0, [r0], #-0
    9a38:	20000093 	mulcs	r0, r3, r0
    9a3c:	01000000 	mrseq	r0, (UNDEF: 0)
    9a40:	000ad29c 	muleq	sl, ip, r2
    9a44:	93402b00 	movtls	r2, #2816	; 0xb00
    9a48:	0cb20000 	ldceq	0, cr0, [r2]
    9a4c:	01290000 			; <UNDEFINED> instruction: 0x01290000
    9a50:	640c0550 	strvs	r0, [ip], #-1360	; 0xfffffab0
    9a54:	00202150 	eoreq	r2, r0, r0, asr r1
    9a58:	0ac02400 	beq	ff012a60 <__bss_end__+0xff008a00>
    9a5c:	7f010000 	svcvc	0x00010000
    9a60:	00000025 	andeq	r0, r0, r5, lsr #32
    9a64:	0000931c 	andeq	r9, r0, ip, lsl r3
    9a68:	00000018 	andeq	r0, r0, r8, lsl r0
    9a6c:	0aff9c01 	beq	ffff0a78 <__bss_end__+0xfffe6a18>
    9a70:	282b0000 	stmdacs	fp!, {}	; <UNPREDICTABLE>
    9a74:	b2000093 	andlt	r0, r0, #147	; 0x93
    9a78:	2900000c 	stmdbcs	r0, {r2, r3}
    9a7c:	0c055001 	stceq	0, cr5, [r5], {1}
    9a80:	20215064 	eorcs	r5, r1, r4, rrx
    9a84:	26260000 	strtcs	r0, [r6], -r0
    9a88:	01000009 	tsteq	r0, r9
    9a8c:	00926c3a 	addseq	r6, r2, sl, lsr ip
    9a90:	0000b000 	andeq	fp, r0, r0
    9a94:	3d9c0100 	ldfccs	f0, [ip]
    9a98:	2800000c 	stmdacs	r0, {r2, r3}
    9a9c:	0000927c 	andeq	r9, r0, ip, ror r2
    9aa0:	00000cbd 			; <UNDEFINED> instruction: 0x00000cbd
    9aa4:	00000b2c 	andeq	r0, r0, ip, lsr #22
    9aa8:	01500129 	cmpeq	r0, r9, lsr #2
    9aac:	5101293e 	tstpl	r1, lr, lsr r9
    9ab0:	28003201 	stmdacs	r0, {r0, r9, ip, sp}
    9ab4:	00009288 	andeq	r9, r0, r8, lsl #5
    9ab8:	00000cbd 			; <UNDEFINED> instruction: 0x00000cbd
    9abc:	00000b44 	andeq	r0, r0, r4, asr #22
    9ac0:	01500129 	cmpeq	r0, r9, lsr #2
    9ac4:	5101293f 	tstpl	r1, pc, lsr r9
    9ac8:	25003201 	strcs	r3, [r0, #-513]	; 0xfffffdff
    9acc:	0000928c 	andeq	r9, r0, ip, lsl #5
    9ad0:	00000c9c 	muleq	r0, ip, ip
    9ad4:	00929828 	addseq	r9, r2, r8, lsr #16
    9ad8:	000c3d00 	andeq	r3, ip, r0, lsl #26
    9adc:	000b6900 	andeq	r6, fp, r0, lsl #18
    9ae0:	50012900 	andpl	r2, r1, r0, lsl #18
    9ae4:	50040c05 	andpl	r0, r4, r5, lsl #24
    9ae8:	01292021 			; <UNDEFINED> instruction: 0x01292021
    9aec:	00310151 	eorseq	r0, r1, r1, asr r1
    9af0:	00929c25 	addseq	r9, r2, r5, lsr #24
    9af4:	000c9c00 	andeq	r9, ip, r0, lsl #24
    9af8:	92ac2800 	adcls	r2, ip, #0, 16
    9afc:	0ca70000 	stceq	0, cr0, [r7]
    9b00:	0b8b0000 	bleq	fe2c9b08 <__bss_end__+0xfe2bfaa8>
    9b04:	01290000 			; <UNDEFINED> instruction: 0x01290000
    9b08:	00740250 	rsbseq	r0, r4, r0, asr r2
    9b0c:	01510129 	cmpeq	r1, r9, lsr #2
    9b10:	b8280030 	stmdalt	r8!, {r4, r5}
    9b14:	a7000092 			; <UNDEFINED> instruction: 0xa7000092
    9b18:	a700000c 	strge	r0, [r0, -ip]
    9b1c:	2900000b 	stmdbcs	r0, {r0, r1, r3}
    9b20:	0c055001 	stceq	0, cr5, [r5], {1}
    9b24:	20215044 	eorcs	r5, r1, r4, asr #32
    9b28:	01510129 	cmpeq	r1, r9, lsr #2
    9b2c:	c4280030 	strtgt	r0, [r8], #-48	; 0xffffffd0
    9b30:	a7000092 			; <UNDEFINED> instruction: 0xa7000092
    9b34:	c300000c 	movwgt	r0, #12
    9b38:	2900000b 	stmdbcs	r0, {r0, r1, r3}
    9b3c:	0c055001 	stceq	0, cr5, [r5], {1}
    9b40:	2021504c 	eorcs	r5, r1, ip, asr #32
    9b44:	01510129 	cmpeq	r1, r9, lsr #2
    9b48:	d0280033 	eorle	r0, r8, r3, lsr r0
    9b4c:	a7000092 			; <UNDEFINED> instruction: 0xa7000092
    9b50:	df00000c 	svcle	0x0000000c
    9b54:	2900000b 	stmdbcs	r0, {r0, r1, r3}
    9b58:	0c055001 	stceq	0, cr5, [r5], {1}
    9b5c:	20215050 	eorcs	r5, r1, r0, asr r0
    9b60:	01510129 	cmpeq	r1, r9, lsr #2
    9b64:	dc280030 	stcle	0, cr0, [r8], #-192	; 0xffffff40
    9b68:	a7000092 			; <UNDEFINED> instruction: 0xa7000092
    9b6c:	fc00000c 	stc2	0, cr0, [r0], {12}
    9b70:	2900000b 	stmdbcs	r0, {r0, r1, r3}
    9b74:	0c055001 	stceq	0, cr5, [r5], {1}
    9b78:	20215048 	eorcs	r5, r1, r8, asr #32
    9b7c:	02510129 	subseq	r0, r1, #1073741834	; 0x4000000a
    9b80:	2800c708 	stmdacs	r0, {r3, r8, r9, sl, lr, pc}
    9b84:	000092e8 	andeq	r9, r0, r8, ror #5
    9b88:	00000ca7 	andeq	r0, r0, r7, lsr #25
    9b8c:	00000c1a 	andeq	r0, r0, sl, lsl ip
    9b90:	05500129 	ldrbeq	r0, [r0, #-297]	; 0xfffffed7
    9b94:	2150680c 	cmpcs	r0, ip, lsl #16
    9b98:	51012920 	tstpl	r1, r0, lsr #18
    9b9c:	010e0a03 	tsteq	lr, r3, lsl #20
    9ba0:	92f42800 	rscsls	r2, r4, #0, 16
    9ba4:	0ca70000 	stceq	0, cr0, [r7]
    9ba8:	0c330000 	ldceq	0, cr0, [r3], #-0
    9bac:	01290000 			; <UNDEFINED> instruction: 0x01290000
    9bb0:	00740250 	rsbseq	r0, r4, r0, asr r2
    9bb4:	01510129 	cmpeq	r1, r9, lsr #2
    9bb8:	f8250033 			; <UNDEFINED> instruction: 0xf8250033
    9bbc:	9c000092 	stcls	0, cr0, [r0], {146}	; 0x92
    9bc0:	0000000c 	andeq	r0, r0, ip
    9bc4:	000ace2c 	andeq	ip, sl, ip, lsr #28
    9bc8:	4c2d0100 	stfmis	f0, [sp], #-0
    9bcc:	20000092 	mulcs	r0, r2, r0
    9bd0:	01000000 	mrseq	r0, (UNDEF: 0)
    9bd4:	000c959c 	muleq	ip, ip, r5
    9bd8:	0c252d00 	stceq	13, cr2, [r5], #-0
    9bdc:	2d010000 	stccs	0, cr0, [r1, #-0]
    9be0:	00000c95 	muleq	r0, r5, ip
    9be4:	00001402 	andeq	r1, r0, r2, lsl #8
    9be8:	6c617627 	stclvs	6, cr7, [r1], #-156	; 0xffffff64
    9bec:	2c2d0100 	stfcss	f0, [sp], #-0
    9bf0:	20000000 	andcs	r0, r0, r0
    9bf4:	28000014 	stmdacs	r0, {r2, r4}
    9bf8:	0000925c 	andeq	r9, r0, ip, asr r2
    9bfc:	00000cb2 			; <UNDEFINED> instruction: 0x00000cb2
    9c00:	00000c84 	andeq	r0, r0, r4, lsl #25
    9c04:	02500129 	subseq	r0, r0, #1073741834	; 0x4000000a
    9c08:	2b000074 	blcs	9de0 <buf.4297+0x184>
    9c0c:	00009268 	andeq	r9, r0, r8, ror #4
    9c10:	00000ca7 	andeq	r0, r0, r7, lsr #25
    9c14:	02500129 	subseq	r0, r0, #1073741834	; 0x4000000a
    9c18:	00000074 	andeq	r0, r0, r4, ror r0
    9c1c:	0c9b040e 	cfldrseq	mvf0, [fp], {14}
    9c20:	2f2e0000 	svccs	0x002e0000
    9c24:	000009c5 	andeq	r0, r0, r5, asr #19
    9c28:	000009c5 	andeq	r0, r0, r5, asr #19
    9c2c:	2f2f8906 	svccs	0x002f8906
    9c30:	2f00000a 	svccs	0x0000000a
    9c34:	0600000a 	streq	r0, [r0], -sl
    9c38:	0aba2f9c 	beq	fee95ab0 <__bss_end__+0xfee8ba50>
    9c3c:	0aba0000 	beq	fee89c44 <__bss_end__+0xfee7fbe4>
    9c40:	a8060000 	stmdage	r6, {}	; <UNPREDICTABLE>
    9c44:	0009e92f 	andeq	lr, r9, pc, lsr #18
    9c48:	0009e900 	andeq	lr, r9, r0, lsl #18
    9c4c:	00190800 	andseq	r0, r9, r0, lsl #16
    9c50:	00000b70 	andeq	r0, r0, r0, ror fp
    9c54:	1f2a0004 	svcne	0x002a0004
    9c58:	01040000 	mrseq	r0, (UNDEF: 4)
    9c5c:	00000a35 	andeq	r0, r0, r5, lsr sl
    9c60:	000b320c 	andeq	r3, fp, ip, lsl #4
    9c64:	00096c00 	andeq	r6, r9, r0, lsl #24
    9c68:	0093c400 	addseq	ip, r3, r0, lsl #8
    9c6c:	00012000 	andeq	r2, r1, r0
    9c70:	001a3900 	andseq	r3, sl, r0, lsl #18
    9c74:	05040200 	streq	r0, [r4, #-512]	; 0xfffffe00
    9c78:	00746e69 	rsbseq	r6, r4, r9, ror #28
    9c7c:	66070403 	strvs	r0, [r7], -r3, lsl #8
    9c80:	04000000 	streq	r0, [r0], #-0
    9c84:	0000002c 	andeq	r0, r0, ip, lsr #32
    9c88:	ec060103 	stfs	f0, [r6], {3}
    9c8c:	03000002 	movweq	r0, #2
    9c90:	03850502 	orreq	r0, r5, #8388608	; 0x800000
    9c94:	04030000 	streq	r0, [r3], #-0
    9c98:	0000ac05 	andeq	sl, r0, r5, lsl #24
    9c9c:	05080300 	streq	r0, [r8, #-768]	; 0xfffffd00
    9ca0:	000000a7 	andeq	r0, r0, r7, lsr #1
    9ca4:	ea080103 	b	20a0b8 <__bss_end__+0x200058>
    9ca8:	03000002 	movweq	r0, #2
    9cac:	02220702 	eoreq	r0, r2, #524288	; 0x80000
    9cb0:	04030000 	streq	r0, [r3], #-0
    9cb4:	00006107 	andeq	r6, r0, r7, lsl #2
    9cb8:	07080300 	streq	r0, [r8, -r0, lsl #6]
    9cbc:	0000005c 	andeq	r0, r0, ip, asr r0
    9cc0:	000a0005 	andeq	r0, sl, r5
    9cc4:	25070200 	strcs	r0, [r7, #-512]	; 0xfffffe00
    9cc8:	05000000 	streq	r0, [r0, #-0]
    9ccc:	000002cb 	andeq	r0, r0, fp, asr #5
    9cd0:	00462c03 	subeq	r2, r6, r3, lsl #24
    9cd4:	40050000 	andmi	r0, r5, r0
    9cd8:	03000004 	movweq	r0, #4
    9cdc:	00004672 	andeq	r4, r0, r2, ror r6
    9ce0:	027b0600 	rsbseq	r0, fp, #0, 12
    9ce4:	65040000 	strvs	r0, [r4, #-0]
    9ce8:	00002c01 	andeq	r2, r0, r1, lsl #24
    9cec:	03040700 	movweq	r0, #18176	; 0x4700
    9cf0:	0000bca6 	andeq	fp, r0, r6, lsr #25
    9cf4:	026d0800 	rsbeq	r0, sp, #0, 16
    9cf8:	a8030000 	stmdage	r3, {}	; <UNPREDICTABLE>
    9cfc:	00000091 	muleq	r0, r1, r0
    9d00:	0001e208 	andeq	lr, r1, r8, lsl #4
    9d04:	bca90300 	stclt	3, cr0, [r9]
    9d08:	00000000 	andeq	r0, r0, r0
    9d0c:	00005409 	andeq	r5, r0, r9, lsl #8
    9d10:	0000cc00 	andeq	ip, r0, r0, lsl #24
    9d14:	00cc0a00 	sbceq	r0, ip, r0, lsl #20
    9d18:	00030000 	andeq	r0, r3, r0
    9d1c:	e0070403 	and	r0, r7, r3, lsl #8
    9d20:	0b000009 	bleq	9d4c <buf.4297+0xf0>
    9d24:	f4a30308 	vld4.8	{d0[0],d1[0],d2[0],d3[0]}, [r3], r8
    9d28:	0c000000 	stceq	0, cr0, [r0], {-0}
    9d2c:	00000423 	andeq	r0, r0, r3, lsr #8
    9d30:	0025a503 	eoreq	sl, r5, r3, lsl #10
    9d34:	0c000000 	stceq	0, cr0, [r0], {-0}
    9d38:	00000432 	andeq	r0, r0, r2, lsr r4
    9d3c:	009daa03 	addseq	sl, sp, r3, lsl #20
    9d40:	00040000 	andeq	r0, r4, r0
    9d44:	0003ad05 	andeq	sl, r3, r5, lsl #26
    9d48:	d3ab0300 			; <UNDEFINED> instruction: 0xd3ab0300
    9d4c:	05000000 	streq	r0, [r0, #-0]
    9d50:	0000019f 	muleq	r0, pc, r1	; <UNPREDICTABLE>
    9d54:	0070af03 	rsbseq	sl, r0, r3, lsl #30
    9d58:	040d0000 	streq	r0, [sp], #-0
    9d5c:	0112040e 	tsteq	r2, lr, lsl #8
    9d60:	01030000 	mrseq	r0, (UNDEF: 3)
    9d64:	0002f308 	andeq	pc, r2, r8, lsl #6
    9d68:	01120400 	tsteq	r2, r0, lsl #8
    9d6c:	72050000 	andvc	r0, r5, #0
    9d70:	05000004 	streq	r0, [r0, #-4]
    9d74:	00006216 	andeq	r6, r0, r6, lsl r2
    9d78:	01b00f00 	lslseq	r0, r0, #30
    9d7c:	05180000 	ldreq	r0, [r8, #-0]
    9d80:	00017c2d 	andeq	r7, r1, sp, lsr #24
    9d84:	03ce0c00 	biceq	r0, lr, #0, 24
    9d88:	2f050000 	svccs	0x00050000
    9d8c:	0000017c 	andeq	r0, r0, ip, ror r1
    9d90:	6b5f1000 	blvs	17cdd98 <__bss_end__+0x17c3d38>
    9d94:	25300500 	ldrcs	r0, [r0, #-1280]!	; 0xfffffb00
    9d98:	04000000 	streq	r0, [r0], #-0
    9d9c:	00040e0c 	andeq	r0, r4, ip, lsl #28
    9da0:	25300500 	ldrcs	r0, [r0, #-1280]!	; 0xfffffb00
    9da4:	08000000 	stmdaeq	r0, {}	; <UNPREDICTABLE>
    9da8:	0001990c 	andeq	r9, r1, ip, lsl #18
    9dac:	25300500 	ldrcs	r0, [r0, #-1280]!	; 0xfffffb00
    9db0:	0c000000 	stceq	0, cr0, [r0], {-0}
    9db4:	0004ae0c 	andeq	sl, r4, ip, lsl #28
    9db8:	25300500 	ldrcs	r0, [r0, #-1280]!	; 0xfffffb00
    9dbc:	10000000 	andne	r0, r0, r0
    9dc0:	00785f10 	rsbseq	r5, r8, r0, lsl pc
    9dc4:	01823105 	orreq	r3, r2, r5, lsl #2
    9dc8:	00140000 	andseq	r0, r4, r0
    9dcc:	0129040e 			; <UNDEFINED> instruction: 0x0129040e
    9dd0:	1e090000 	cdpne	0, 0, cr0, cr9, cr0, {0}
    9dd4:	92000001 	andls	r0, r0, #1
    9dd8:	0a000001 	beq	9de4 <buf.4297+0x188>
    9ddc:	000000cc 	andeq	r0, r0, ip, asr #1
    9de0:	dd0f0000 	stcle	0, cr0, [pc, #-0]	; 9de8 <buf.4297+0x18c>
    9de4:	24000001 	strcs	r0, [r0], #-1
    9de8:	020b3505 	andeq	r3, fp, #20971520	; 0x1400000
    9dec:	9e0c0000 	cdpls	0, 0, cr0, cr12, cr0, {0}
    9df0:	05000000 	streq	r0, [r0, #-0]
    9df4:	00002537 	andeq	r2, r0, r7, lsr r5
    9df8:	480c0000 	stmdami	ip, {}	; <UNPREDICTABLE>
    9dfc:	05000004 	streq	r0, [r0, #-4]
    9e00:	00002538 	andeq	r2, r0, r8, lsr r5
    9e04:	c10c0400 	tstgt	ip, r0, lsl #8
    9e08:	05000000 	streq	r0, [r0, #-0]
    9e0c:	00002539 	andeq	r2, r0, r9, lsr r5
    9e10:	2f0c0800 	svccs	0x000c0800
    9e14:	05000005 	streq	r0, [r0, #-5]
    9e18:	0000253a 	andeq	r2, r0, sl, lsr r5
    9e1c:	af0c0c00 	svcge	0x000c0c00
    9e20:	05000002 	streq	r0, [r0, #-2]
    9e24:	0000253b 	andeq	r2, r0, fp, lsr r5
    9e28:	910c1000 	mrsls	r1, (UNDEF: 12)
    9e2c:	05000002 	streq	r0, [r0, #-2]
    9e30:	0000253c 	andeq	r2, r0, ip, lsr r5
    9e34:	b30c1400 	movwlt	r1, #50176	; 0xc400
    9e38:	05000004 	streq	r0, [r0, #-4]
    9e3c:	0000253d 	andeq	r2, r0, sp, lsr r5
    9e40:	8f0c1800 	svchi	0x000c1800
    9e44:	05000003 	streq	r0, [r0, #-3]
    9e48:	0000253e 	andeq	r2, r0, lr, lsr r5
    9e4c:	f60c1c00 			; <UNDEFINED> instruction: 0xf60c1c00
    9e50:	05000004 	streq	r0, [r0, #-4]
    9e54:	0000253f 	andeq	r2, r0, pc, lsr r5
    9e58:	11002000 	mrsne	r2, (UNDEF: 0)
    9e5c:	00000101 	andeq	r0, r0, r1, lsl #2
    9e60:	48050108 	stmdami	r5, {r3, r8}
    9e64:	0000024b 	andeq	r0, r0, fp, asr #4
    9e68:	00018c0c 	andeq	r8, r1, ip, lsl #24
    9e6c:	4b490500 	blmi	124b274 <__bss_end__+0x1241214>
    9e70:	00000002 	andeq	r0, r0, r2
    9e74:	0000000c 	andeq	r0, r0, ip
    9e78:	4b4a0500 	blmi	128b280 <__bss_end__+0x1281220>
    9e7c:	80000002 	andhi	r0, r0, r2
    9e80:	00046412 	andeq	r6, r4, r2, lsl r4
    9e84:	1e4c0500 	cdpne	5, 4, cr0, cr12, cr0, {0}
    9e88:	00000001 	andeq	r0, r0, r1
    9e8c:	01261201 			; <UNDEFINED> instruction: 0x01261201
    9e90:	4f050000 	svcmi	0x00050000
    9e94:	0000011e 	andeq	r0, r0, lr, lsl r1
    9e98:	09000104 	stmdbeq	r0, {r2, r8}
    9e9c:	0000010a 	andeq	r0, r0, sl, lsl #2
    9ea0:	0000025b 	andeq	r0, r0, fp, asr r2
    9ea4:	0000cc0a 	andeq	ip, r0, sl, lsl #24
    9ea8:	11001f00 	tstne	r0, r0, lsl #30
    9eac:	000002b8 			; <UNDEFINED> instruction: 0x000002b8
    9eb0:	5b050190 	blpl	14a4f8 <__bss_end__+0x140498>
    9eb4:	00000299 	muleq	r0, r9, r2
    9eb8:	0003ce0c 	andeq	ip, r3, ip, lsl #28
    9ebc:	995c0500 	ldmdbls	ip, {r8, sl}^
    9ec0:	00000002 	andeq	r0, r0, r2
    9ec4:	0003e60c 	andeq	lr, r3, ip, lsl #12
    9ec8:	255d0500 	ldrbcs	r0, [sp, #-1280]	; 0xfffffb00
    9ecc:	04000000 	streq	r0, [r0], #-0
    9ed0:	0001940c 	andeq	r9, r1, ip, lsl #8
    9ed4:	9f5f0500 	svcls	0x005f0500
    9ed8:	08000002 	stmdaeq	r0, {r1}
    9edc:	0001010c 	andeq	r0, r1, ip, lsl #2
    9ee0:	0b600500 	bleq	180b2e8 <__bss_end__+0x1801288>
    9ee4:	88000002 	stmdahi	r0, {r1}
    9ee8:	5b040e00 	blpl	10d6f0 <__bss_end__+0x103690>
    9eec:	09000002 	stmdbeq	r0, {r1}
    9ef0:	000002af 	andeq	r0, r0, pc, lsr #5
    9ef4:	000002af 	andeq	r0, r0, pc, lsr #5
    9ef8:	0000cc0a 	andeq	ip, r0, sl, lsl #24
    9efc:	0e001f00 	cdpeq	15, 0, cr1, cr0, cr0, {0}
    9f00:	0002b504 	andeq	fp, r2, r4, lsl #10
    9f04:	990f1300 	stmdbls	pc, {r8, r9, ip}	; <UNPREDICTABLE>
    9f08:	08000003 	stmdaeq	r0, {r0, r1}
    9f0c:	02db7305 	sbcseq	r7, fp, #335544320	; 0x14000000
    9f10:	bb0c0000 	bllt	309f18 <__bss_end__+0x2ffeb8>
    9f14:	05000000 	streq	r0, [r0, #-0]
    9f18:	0002db74 	andeq	sp, r2, r4, ror fp
    9f1c:	1b0c0000 	blne	309f24 <__bss_end__+0x2ffec4>
    9f20:	05000000 	streq	r0, [r0, #-0]
    9f24:	00002575 	andeq	r2, r0, r5, ror r5
    9f28:	0e000400 	cfcpyseq	mvf0, mvf0
    9f2c:	00005404 	andeq	r5, r0, r4, lsl #8
    9f30:	03b80f00 			; <UNDEFINED> instruction: 0x03b80f00
    9f34:	05680000 	strbeq	r0, [r8, #-0]!
    9f38:	00040bb3 			; <UNDEFINED> instruction: 0x00040bb3
    9f3c:	705f1000 	subsvc	r1, pc, r0
    9f40:	dbb40500 	blle	fed0b348 <__bss_end__+0xfed012e8>
    9f44:	00000002 	andeq	r0, r0, r2
    9f48:	00725f10 	rsbseq	r5, r2, r0, lsl pc
    9f4c:	0025b505 	eoreq	fp, r5, r5, lsl #10
    9f50:	10040000 	andne	r0, r4, r0
    9f54:	0500775f 	streq	r7, [r0, #-1887]	; 0xfffff8a1
    9f58:	000025b6 			; <UNDEFINED> instruction: 0x000025b6
    9f5c:	1f0c0800 	svcne	0x000c0800
    9f60:	05000001 	streq	r0, [r0, #-1]
    9f64:	00003fb7 			; <UNDEFINED> instruction: 0x00003fb7
    9f68:	080c0c00 	stmdaeq	ip, {sl, fp}
    9f6c:	05000002 	streq	r0, [r0, #-2]
    9f70:	00003fb8 			; <UNDEFINED> instruction: 0x00003fb8
    9f74:	5f100e00 	svcpl	0x00100e00
    9f78:	05006662 	streq	r6, [r0, #-1634]	; 0xfffff99e
    9f7c:	0002b6b9 			; <UNDEFINED> instruction: 0x0002b6b9
    9f80:	7b0c1000 	blvc	30df88 <__bss_end__+0x303f28>
    9f84:	05000000 	streq	r0, [r0, #-0]
    9f88:	000025ba 			; <UNDEFINED> instruction: 0x000025ba
    9f8c:	0f0c1800 	svceq	0x000c1800
    9f90:	05000001 	streq	r0, [r0, #-1]
    9f94:	00010ac1 	andeq	r0, r1, r1, asr #21
    9f98:	3d0c1c00 	stccc	12, cr1, [ip, #-0]
    9f9c:	0500000b 	streq	r0, [r0, #-11]
    9fa0:	000566c3 	andeq	r6, r5, r3, asr #13
    9fa4:	320c2000 	andcc	r2, ip, #0
    9fa8:	05000006 	streq	r0, [r0, #-6]
    9fac:	000590c5 	andeq	r9, r5, r5, asr #1
    9fb0:	3a0c2400 	bcc	312fb8 <__bss_end__+0x308f58>
    9fb4:	05000004 	streq	r0, [r0, #-4]
    9fb8:	0005b4c8 	andeq	fp, r5, r8, asr #9
    9fbc:	100c2800 	andne	r2, ip, r0, lsl #16
    9fc0:	05000005 	streq	r0, [r0, #-5]
    9fc4:	0005cec9 	andeq	ip, r5, r9, asr #29
    9fc8:	5f102c00 	svcpl	0x00102c00
    9fcc:	05006275 	streq	r6, [r0, #-629]	; 0xfffffd8b
    9fd0:	0002b6cc 	andeq	fp, r2, ip, asr #13
    9fd4:	5f103000 	svcpl	0x00103000
    9fd8:	05007075 	streq	r7, [r0, #-117]	; 0xffffff8b
    9fdc:	0002dbcd 	andeq	sp, r2, sp, asr #23
    9fe0:	5f103800 	svcpl	0x00103800
    9fe4:	05007275 	streq	r7, [r0, #-629]	; 0xfffffd8b
    9fe8:	000025ce 	andeq	r2, r0, lr, asr #11
    9fec:	b50c3c00 	strlt	r3, [ip, #-3072]	; 0xfffff400
    9ff0:	05000000 	streq	r0, [r0, #-0]
    9ff4:	0005d4d1 	ldrdeq	sp, [r5], -r1
    9ff8:	e80c4000 	stmda	ip, {lr}
    9ffc:	05000004 	streq	r0, [r0, #-4]
    a000:	0005e4d2 	ldrdeq	lr, [r5], -r2
    a004:	5f104300 	svcpl	0x00104300
    a008:	0500626c 	streq	r6, [r0, #-620]	; 0xfffffd94
    a00c:	0002b6d5 	ldrdeq	fp, [r2], -r5
    a010:	3d0c4400 	cfstrscc	mvf4, [ip, #-0]
    a014:	05000001 	streq	r0, [r0, #-1]
    a018:	000025d8 	ldrdeq	r2, [r0], -r8
    a01c:	4e0c4c00 	cdpmi	12, 0, cr4, cr12, cr0, {0}
    a020:	05000001 	streq	r0, [r0, #-1]
    a024:	00007bd9 	ldrdeq	r7, [r0], -r9
    a028:	de0c5000 	cdple	0, 0, cr5, cr12, cr0, {0}
    a02c:	0500000a 	streq	r0, [r0, #-10]
    a030:	000429dc 	ldrdeq	r2, [r4], -ip
    a034:	2c0c5400 	cfstrscs	mvf5, [ip], {-0}
    a038:	05000004 	streq	r0, [r0, #-4]
    a03c:	0000ffe0 	andeq	pc, r0, r0, ror #31
    a040:	c00c5800 	andgt	r5, ip, r0, lsl #16
    a044:	05000003 	streq	r0, [r0, #-3]
    a048:	0000f4e2 	andeq	pc, r0, r2, ror #9
    a04c:	890c5c00 	stmdbhi	ip, {sl, fp, ip, lr}
    a050:	05000002 	streq	r0, [r0, #-2]
    a054:	000025e3 	andeq	r2, r0, r3, ror #11
    a058:	14006400 	strne	r6, [r0], #-1024	; 0xfffffc00
    a05c:	00000025 	andeq	r0, r0, r5, lsr #32
    a060:	00000429 	andeq	r0, r0, r9, lsr #8
    a064:	00042915 	andeq	r2, r4, r5, lsl r9
    a068:	010a1500 	tsteq	sl, r0, lsl #10
    a06c:	0c150000 	ldceq	0, cr0, [r5], {-0}
    a070:	15000001 	strne	r0, [r0, #-1]
    a074:	00000025 	andeq	r0, r0, r5, lsr #32
    a078:	34040e00 	strcc	r0, [r4], #-3584	; 0xfffff200
    a07c:	04000004 	streq	r0, [r0], #-4
    a080:	00000429 	andeq	r0, r0, r9, lsr #8
    a084:	00041616 	andeq	r1, r4, r6, lsl r6
    a088:	05042800 	streq	r2, [r4, #-2048]	; 0xfffff800
    a08c:	05660238 	strbeq	r0, [r6, #-568]!	; 0xfffffdc8
    a090:	7e170000 	cdpvc	0, 1, cr0, cr7, cr0, {0}
    a094:	05000003 	streq	r0, [r0, #-3]
    a098:	0025023a 	eoreq	r0, r5, sl, lsr r2
    a09c:	17000000 	strne	r0, [r0, -r0]
    a0a0:	0000012e 	andeq	r0, r0, lr, lsr #2
    a0a4:	3b023f05 	blcc	99cc0 <__bss_end__+0x8fc60>
    a0a8:	04000006 	streq	r0, [r0], #-6
    a0ac:	0001f817 	andeq	pc, r1, r7, lsl r8	; <UNPREDICTABLE>
    a0b0:	023f0500 	eorseq	r0, pc, #0, 10
    a0b4:	0000063b 	andeq	r0, r0, fp, lsr r6
    a0b8:	01a81708 			; <UNDEFINED> instruction: 0x01a81708
    a0bc:	3f050000 	svccc	0x00050000
    a0c0:	00063b02 	andeq	r3, r6, r2, lsl #22
    a0c4:	e1170c00 	tst	r7, r0, lsl #24
    a0c8:	05000003 	streq	r0, [r0, #-3]
    a0cc:	00250241 	eoreq	r0, r5, r1, asr #4
    a0d0:	17100000 	ldrne	r0, [r0, -r0]
    a0d4:	00000029 	andeq	r0, r0, r9, lsr #32
    a0d8:	1d024205 	sfmne	f4, 4, [r2, #-20]	; 0xffffffec
    a0dc:	14000008 	strne	r0, [r0], #-8
    a0e0:	000a9717 	andeq	r9, sl, r7, lsl r7
    a0e4:	02440500 	subeq	r0, r4, #0, 10
    a0e8:	00000025 	andeq	r0, r0, r5, lsr #32
    a0ec:	0a121730 	beq	48fdb4 <__bss_end__+0x485d54>
    a0f0:	45050000 	strmi	r0, [r5, #-0]
    a0f4:	00058a02 	andeq	r8, r5, r2, lsl #20
    a0f8:	c0173400 	andsgt	r3, r7, r0, lsl #8
    a0fc:	05000002 	streq	r0, [r0, #-2]
    a100:	00250247 	eoreq	r0, r5, r7, asr #4
    a104:	17380000 	ldrne	r0, [r8, -r0]!
    a108:	000003eb 	andeq	r0, r0, fp, ror #7
    a10c:	38024905 	stmdacc	r2, {r0, r2, r8, fp, lr}
    a110:	3c000008 	stccc	0, cr0, [r0], {8}
    a114:	00026517 	andeq	r6, r2, r7, lsl r5
    a118:	024c0500 	subeq	r0, ip, #0, 10
    a11c:	0000017c 	andeq	r0, r0, ip, ror r1
    a120:	01c71740 	biceq	r1, r7, r0, asr #14
    a124:	4d050000 	stcmi	0, cr0, [r5, #-0]
    a128:	00002502 	andeq	r2, r0, r2, lsl #10
    a12c:	2a174400 	bcs	5db134 <__bss_end__+0x5d10d4>
    a130:	05000005 	streq	r0, [r0, #-5]
    a134:	017c024e 	cmneq	ip, lr, asr #4
    a138:	17480000 	strbne	r0, [r8, -r0]
    a13c:	000002d2 	ldrdeq	r0, [r0], -r2
    a140:	3e024f05 	cdpcc	15, 0, cr4, cr2, cr5, {0}
    a144:	4c000008 	stcmi	0, cr0, [r0], {8}
    a148:	00020017 	andeq	r0, r2, r7, lsl r0
    a14c:	02520500 	subseq	r0, r2, #0, 10
    a150:	00000025 	andeq	r0, r0, r5, lsr #32
    a154:	01461750 	cmpeq	r6, r0, asr r7
    a158:	53050000 	movwpl	r0, #20480	; 0x5000
    a15c:	00010c02 	andeq	r0, r1, r2, lsl #24
    a160:	f8175400 			; <UNDEFINED> instruction: 0xf8175400
    a164:	05000002 	streq	r0, [r0, #-2]
    a168:	07fb0276 			; <UNDEFINED> instruction: 0x07fb0276
    a16c:	18580000 	ldmdane	r8, {}^	; <UNPREDICTABLE>
    a170:	000002b8 			; <UNDEFINED> instruction: 0x000002b8
    a174:	99027a05 	stmdbls	r2, {r0, r2, r9, fp, ip, sp, lr}
    a178:	48000002 	stmdami	r0, {r1}
    a17c:	02431801 	subeq	r1, r3, #65536	; 0x10000
    a180:	7b050000 	blvc	14a188 <__bss_end__+0x140128>
    a184:	00025b02 	andeq	r5, r2, r2, lsl #22
    a188:	18014c00 	stmdane	r1, {sl, fp, lr}
    a18c:	000004d6 	ldrdeq	r0, [r0], -r6
    a190:	4f027f05 	svcmi	0x00027f05
    a194:	dc000008 	stcle	0, cr0, [r0], {8}
    a198:	01171802 	tsteq	r7, r2, lsl #16
    a19c:	84050000 	strhi	r0, [r5], #-0
    a1a0:	00060002 	andeq	r0, r6, r2
    a1a4:	1802e000 	stmdane	r2, {sp, lr, pc}
    a1a8:	000000fc 	strdeq	r0, [r0], -ip
    a1ac:	5b028505 	blpl	ab5c8 <__bss_end__+0xa1568>
    a1b0:	ec000008 	stc	0, cr0, [r0], {8}
    a1b4:	040e0002 	streq	r0, [lr], #-2
    a1b8:	0000040b 	andeq	r0, r0, fp, lsl #8
    a1bc:	00002514 	andeq	r2, r0, r4, lsl r5
    a1c0:	00058a00 	andeq	r8, r5, r0, lsl #20
    a1c4:	04291500 	strteq	r1, [r9], #-1280	; 0xfffffb00
    a1c8:	0a150000 	beq	54a1d0 <__bss_end__+0x540170>
    a1cc:	15000001 	strne	r0, [r0, #-1]
    a1d0:	0000058a 	andeq	r0, r0, sl, lsl #11
    a1d4:	00002515 	andeq	r2, r0, r5, lsl r5
    a1d8:	040e0000 	streq	r0, [lr], #-0
    a1dc:	00000119 	andeq	r0, r0, r9, lsl r1
    a1e0:	056c040e 	strbeq	r0, [ip, #-1038]!	; 0xfffffbf2
    a1e4:	86140000 	ldrhi	r0, [r4], -r0
    a1e8:	b4000000 	strlt	r0, [r0], #-0
    a1ec:	15000005 	strne	r0, [r0, #-5]
    a1f0:	00000429 	andeq	r0, r0, r9, lsr #8
    a1f4:	00010a15 	andeq	r0, r1, r5, lsl sl
    a1f8:	00861500 	addeq	r1, r6, r0, lsl #10
    a1fc:	25150000 	ldrcs	r0, [r5, #-0]
    a200:	00000000 	andeq	r0, r0, r0
    a204:	0596040e 	ldreq	r0, [r6, #1038]	; 0x40e
    a208:	25140000 	ldrcs	r0, [r4, #-0]
    a20c:	ce000000 	cdpgt	0, 0, cr0, cr0, cr0, {0}
    a210:	15000005 	strne	r0, [r0, #-5]
    a214:	00000429 	andeq	r0, r0, r9, lsr #8
    a218:	00010a15 	andeq	r0, r1, r5, lsl sl
    a21c:	040e0000 	streq	r0, [lr], #-0
    a220:	000005ba 			; <UNDEFINED> instruction: 0x000005ba
    a224:	00005409 	andeq	r5, r0, r9, lsl #8
    a228:	0005e400 	andeq	lr, r5, r0, lsl #8
    a22c:	00cc0a00 	sbceq	r0, ip, r0, lsl #20
    a230:	00020000 	andeq	r0, r2, r0
    a234:	00005409 	andeq	r5, r0, r9, lsl #8
    a238:	0005f400 	andeq	pc, r5, r0, lsl #8
    a23c:	00cc0a00 	sbceq	r0, ip, r0, lsl #20
    a240:	00000000 	andeq	r0, r0, r0
    a244:	0003a606 	andeq	sl, r3, r6, lsl #12
    a248:	011d0500 	tsteq	sp, r0, lsl #10
    a24c:	000002e1 	andeq	r0, r0, r1, ror #5
    a250:	0004bd19 	andeq	fp, r4, r9, lsl sp
    a254:	21050c00 	tstcs	r5, r0, lsl #24
    a258:	00063501 	andeq	r3, r6, r1, lsl #10
    a25c:	03ce1700 	biceq	r1, lr, #0, 14
    a260:	23050000 	movwcs	r0, #20480	; 0x5000
    a264:	00063501 	andeq	r3, r6, r1, lsl #10
    a268:	1b170000 	blne	5ca270 <__bss_end__+0x5c0210>
    a26c:	05000002 	streq	r0, [r0, #-2]
    a270:	00250124 	eoreq	r0, r5, r4, lsr #2
    a274:	17040000 	strne	r0, [r4, -r0]
    a278:	000003a0 	andeq	r0, r0, r0, lsr #7
    a27c:	3b012505 	blcc	53698 <__bss_end__+0x49638>
    a280:	08000006 	stmdaeq	r0, {r1, r2}
    a284:	00040e00 	andeq	r0, r4, r0, lsl #28
    a288:	0e000006 	cdpeq	0, 0, cr0, cr0, cr6, {0}
    a28c:	0005f404 	andeq	pc, r5, r4, lsl #8
    a290:	00211900 	eoreq	r1, r1, r0, lsl #18
    a294:	050e0000 	streq	r0, [lr, #-0]
    a298:	0676013d 			; <UNDEFINED> instruction: 0x0676013d
    a29c:	1d170000 	ldcne	0, cr0, [r7, #-0]
    a2a0:	05000004 	streq	r0, [r0, #-4]
    a2a4:	0676013e 			; <UNDEFINED> instruction: 0x0676013e
    a2a8:	17000000 	strne	r0, [r0, -r0]
    a2ac:	00000451 	andeq	r0, r0, r1, asr r4
    a2b0:	76013f05 	strvc	r3, [r1], -r5, lsl #30
    a2b4:	06000006 	streq	r0, [r0], -r6
    a2b8:	00046d17 	andeq	r6, r4, r7, lsl sp
    a2bc:	01400500 	cmpeq	r0, r0, lsl #10
    a2c0:	0000005b 	andeq	r0, r0, fp, asr r0
    a2c4:	5b09000c 	blpl	24a2fc <__bss_end__+0x24029c>
    a2c8:	86000000 	strhi	r0, [r0], -r0
    a2cc:	0a000006 	beq	a2ec <__bss_end__+0x28c>
    a2d0:	000000cc 	andeq	r0, r0, ip, asr #1
    a2d4:	d01a0002 	andsle	r0, sl, r2
    a2d8:	87025705 	strhi	r5, [r2, -r5, lsl #14]
    a2dc:	17000007 	strne	r0, [r0, -r7]
    a2e0:	000004a1 	andeq	r0, r0, r1, lsr #9
    a2e4:	2c025905 			; <UNDEFINED> instruction: 0x2c025905
    a2e8:	00000000 	andeq	r0, r0, r0
    a2ec:	00045717 	andeq	r5, r4, r7, lsl r7
    a2f0:	025a0500 	subseq	r0, sl, #0, 10
    a2f4:	0000010c 	andeq	r0, r0, ip, lsl #2
    a2f8:	02581704 	subseq	r1, r8, #4, 14	; 0x100000
    a2fc:	5b050000 	blpl	14a304 <__bss_end__+0x1402a4>
    a300:	00078702 	andeq	r8, r7, r2, lsl #14
    a304:	01170800 	tsteq	r7, r0, lsl #16
    a308:	05000005 	streq	r0, [r0, #-5]
    a30c:	0192025c 	orrseq	r0, r2, ip, asr r2
    a310:	17240000 	strne	r0, [r4, -r0]!
    a314:	000001b8 			; <UNDEFINED> instruction: 0x000001b8
    a318:	25025d05 	strcs	r5, [r2, #-3333]	; 0xfffff2fb
    a31c:	48000000 	stmdami	r0, {}	; <UNPREDICTABLE>
    a320:	0003c917 	andeq	ip, r3, r7, lsl r9
    a324:	025e0500 	subseq	r0, lr, #0, 10
    a328:	00000069 	andeq	r0, r0, r9, rrx
    a32c:	05171750 	ldreq	r1, [r7, #-1872]	; 0xfffff8b0
    a330:	5f050000 	svcpl	0x00050000
    a334:	00064102 	andeq	r4, r6, r2, lsl #2
    a338:	d4175800 	ldrle	r5, [r7], #-2048	; 0xfffff800
    a33c:	05000003 	streq	r0, [r0, #-3]
    a340:	00f40260 	rscseq	r0, r4, r0, ror #4
    a344:	17680000 	strbne	r0, [r8, -r0]!
    a348:	0000051c 	andeq	r0, r0, ip, lsl r5
    a34c:	f4026105 	vst4.8	{d6,d8,d10,d12}, [r2], r5
    a350:	70000000 	andvc	r0, r0, r0
    a354:	0002dc17 	andeq	sp, r2, r7, lsl ip
    a358:	02620500 	rsbeq	r0, r2, #0, 10
    a35c:	000000f4 	strdeq	r0, [r0], -r4
    a360:	04cc1778 	strbeq	r1, [ip], #1912	; 0x778
    a364:	63050000 	movwvs	r0, #20480	; 0x5000
    a368:	00079702 	andeq	r9, r7, r2, lsl #14
    a36c:	4c178000 	ldcmi	0, cr8, [r7], {-0}
    a370:	05000002 	streq	r0, [r0, #-2]
    a374:	07a70264 	streq	r0, [r7, r4, ror #4]!
    a378:	17880000 	strne	r0, [r8, r0]
    a37c:	0000047a 	andeq	r0, r0, sl, ror r4
    a380:	25026505 	strcs	r6, [r2, #-1285]	; 0xfffffafb
    a384:	a0000000 	andge	r0, r0, r0
    a388:	00017e17 	andeq	r7, r1, r7, lsl lr
    a38c:	02660500 	rsbeq	r0, r6, #0, 10
    a390:	000000f4 	strdeq	r0, [r0], -r4
    a394:	008f17a4 	addeq	r1, pc, r4, lsr #15
    a398:	67050000 	strvs	r0, [r5, -r0]
    a39c:	0000f402 	andeq	pc, r0, r2, lsl #8
    a3a0:	6d17ac00 	ldcvs	12, cr10, [r7, #-0]
    a3a4:	05000001 	streq	r0, [r0, #-1]
    a3a8:	00f40268 	rscseq	r0, r4, r8, ror #4
    a3ac:	17b40000 	ldrne	r0, [r4, r0]!
    a3b0:	0000003c 	andeq	r0, r0, ip, lsr r0
    a3b4:	f4026905 	vst2.8	{d6,d8}, [r2], r5
    a3b8:	bc000000 	stclt	0, cr0, [r0], {-0}
    a3bc:	00004b17 	andeq	r4, r0, r7, lsl fp
    a3c0:	026a0500 	rsbeq	r0, sl, #0, 10
    a3c4:	000000f4 	strdeq	r0, [r0], -r4
    a3c8:	037c17c4 	cmneq	ip, #196, 14	; 0x3100000
    a3cc:	6b050000 	blvs	14a3d4 <__bss_end__+0x140374>
    a3d0:	00002502 	andeq	r2, r0, r2, lsl #10
    a3d4:	0900cc00 	stmdbeq	r0, {sl, fp, lr, pc}
    a3d8:	00000112 	andeq	r0, r0, r2, lsl r1
    a3dc:	00000797 	muleq	r0, r7, r7
    a3e0:	0000cc0a 	andeq	ip, r0, sl, lsl #24
    a3e4:	09001900 	stmdbeq	r0, {r8, fp, ip}
    a3e8:	00000112 	andeq	r0, r0, r2, lsl r1
    a3ec:	000007a7 	andeq	r0, r0, r7, lsr #15
    a3f0:	0000cc0a 	andeq	ip, r0, sl, lsl #24
    a3f4:	09000700 	stmdbeq	r0, {r8, r9, sl}
    a3f8:	00000112 	andeq	r0, r0, r2, lsl r1
    a3fc:	000007b7 			; <UNDEFINED> instruction: 0x000007b7
    a400:	0000cc0a 	andeq	ip, r0, sl, lsl #24
    a404:	1a001700 	bne	1000c <__bss_end__+0x5fac>
    a408:	027005f0 	rsbseq	r0, r0, #240, 10	; 0x3c000000
    a40c:	000007db 	ldrdeq	r0, [r0], -fp
    a410:	0002a817 	andeq	sl, r2, r7, lsl r8
    a414:	02730500 	rsbseq	r0, r3, #0, 10
    a418:	000007db 	ldrdeq	r0, [r0], -fp
    a41c:	04c31700 	strbeq	r1, [r3], #1792	; 0x700
    a420:	74050000 	strvc	r0, [r5], #-0
    a424:	0007eb02 	andeq	lr, r7, r2, lsl #22
    a428:	09007800 	stmdbeq	r0, {fp, ip, sp, lr}
    a42c:	000002db 	ldrdeq	r0, [r0], -fp
    a430:	000007eb 	andeq	r0, r0, fp, ror #15
    a434:	0000cc0a 	andeq	ip, r0, sl, lsl #24
    a438:	09001d00 	stmdbeq	r0, {r8, sl, fp, ip}
    a43c:	0000002c 	andeq	r0, r0, ip, lsr #32
    a440:	000007fb 	strdeq	r0, [r0], -fp
    a444:	0000cc0a 	andeq	ip, r0, sl, lsl #24
    a448:	1b001d00 	blne	11850 <__bss_end__+0x77f0>
    a44c:	025505f0 	subseq	r0, r5, #240, 10	; 0x3c000000
    a450:	0000081d 	andeq	r0, r0, sp, lsl r8
    a454:	0004161c 	andeq	r1, r4, ip, lsl r6
    a458:	026c0500 	rsbeq	r0, ip, #0, 10
    a45c:	00000686 	andeq	r0, r0, r6, lsl #13
    a460:	0004ee1c 	andeq	lr, r4, ip, lsl lr
    a464:	02750500 	rsbseq	r0, r5, #0, 10
    a468:	000007b7 			; <UNDEFINED> instruction: 0x000007b7
    a46c:	01120900 	tsteq	r2, r0, lsl #18
    a470:	082d0000 	stmdaeq	sp!, {}	; <UNPREDICTABLE>
    a474:	cc0a0000 	stcgt	0, cr0, [sl], {-0}
    a478:	18000000 	stmdane	r0, {}	; <UNPREDICTABLE>
    a47c:	08381d00 	ldmdaeq	r8!, {r8, sl, fp, ip}
    a480:	29150000 	ldmdbcs	r5, {}	; <UNPREDICTABLE>
    a484:	00000004 	andeq	r0, r0, r4
    a488:	082d040e 	stmdaeq	sp!, {r1, r2, r3, sl}
    a48c:	040e0000 	streq	r0, [lr], #-0
    a490:	0000017c 	andeq	r0, r0, ip, ror r1
    a494:	00084f1d 	andeq	r4, r8, sp, lsl pc
    a498:	00251500 	eoreq	r1, r5, r0, lsl #10
    a49c:	0e000000 	cdpeq	0, 0, cr0, cr0, cr0, {0}
    a4a0:	00085504 	andeq	r5, r8, r4, lsl #10
    a4a4:	44040e00 	strmi	r0, [r4], #-3584	; 0xfffff200
    a4a8:	09000008 	stmdbeq	r0, {r3}
    a4ac:	000005f4 	strdeq	r0, [r0], -r4
    a4b0:	0000086b 	andeq	r0, r0, fp, ror #16
    a4b4:	0000cc0a 	andeq	ip, r0, sl, lsl #24
    a4b8:	1e000200 	cdpne	2, 0, cr0, cr0, cr0, {0}
    a4bc:	0000048e 	andeq	r0, r0, lr, lsl #9
    a4c0:	2902fd05 	stmdbcs	r2, {r0, r2, r8, sl, fp, ip, sp, lr, pc}
    a4c4:	1e000004 	cdpne	0, 0, cr0, cr0, cr4, {0}
    a4c8:	00000487 	andeq	r0, r0, r7, lsl #9
    a4cc:	2f02fe05 	svccs	0x0002fe05
    a4d0:	14000004 	strne	r0, [r0], #-4
    a4d4:	00000025 	andeq	r0, r0, r5, lsr #32
    a4d8:	00000892 	muleq	r0, r2, r8
    a4dc:	00002515 	andeq	r2, r0, r5, lsl r5
    a4e0:	d11f0000 	tstle	pc, r0
    a4e4:	06000001 	streq	r0, [r0], -r1
    a4e8:	00089d1d 	andeq	r9, r8, sp, lsl sp
    a4ec:	83040e00 	movwhi	r0, #19968	; 0x4e00
    a4f0:	14000008 	strne	r0, [r0], #-8
    a4f4:	00000025 	andeq	r0, r0, r5, lsr #32
    a4f8:	000008b2 			; <UNDEFINED> instruction: 0x000008b2
    a4fc:	00058a15 	andeq	r8, r5, r5, lsl sl
    a500:	811f0000 	tsthi	pc, r0
    a504:	06000007 	streq	r0, [r0], -r7
    a508:	0008bd22 	andeq	fp, r8, r2, lsr #26
    a50c:	a3040e00 	movwge	r0, #19968	; 0x4e00
    a510:	20000008 	andcs	r0, r0, r8
    a514:	00005401 	andeq	r5, r0, r1, lsl #8
    a518:	000c0700 	andeq	r0, ip, r0, lsl #14
    a51c:	21000009 	tstcs	r0, r9
    a520:	00000930 	andeq	r0, r0, r0, lsr r9
    a524:	0aa92100 	beq	fea5292c <__bss_end__+0xfea488cc>
    a528:	21010000 	mrscs	r0, (UNDEF: 1)
    a52c:	00000ae4 	andeq	r0, r0, r4, ror #21
    a530:	09452104 	stmdbeq	r5, {r2, r8, sp}^
    a534:	21050000 	mrscs	r0, (UNDEF: 5)
    a538:	000009d1 	ldrdeq	r0, [r0], -r1
    a53c:	0af32106 	beq	ffcd295c <__bss_end__+0xffcc88fc>
    a540:	21070000 	mrscs	r0, (UNDEF: 7)
    a544:	00000b02 	andeq	r0, r0, r2, lsl #22
    a548:	0b112103 	bleq	45295c <__bss_end__+0x4488fc>
    a54c:	00020000 	andeq	r0, r2, r0
    a550:	000b8d05 	andeq	r8, fp, r5, lsl #26
    a554:	c3150700 	tstgt	r5, #0, 14
    a558:	22000008 	andcs	r0, r0, #8
    a55c:	00000b5e 	andeq	r0, r0, lr, asr fp
    a560:	00331d01 	eorseq	r1, r3, r1, lsl #26
    a564:	001c0000 	andseq	r0, ip, r0
    a568:	99222020 	stmdbls	r2!, {r5, sp}
    a56c:	0100000b 	tsteq	r0, fp
    a570:	0000331e 	andeq	r3, r0, lr, lsl r3
    a574:	20002800 	andcs	r2, r0, r0, lsl #16
    a578:	0b682220 	bleq	1a12e00 <__bss_end__+0x1a08da0>
    a57c:	1f010000 	svcne	0x00010000
    a580:	00000033 	andeq	r0, r0, r3, lsr r0
    a584:	20200034 	eorcs	r0, r0, r4, lsr r0
    a588:	000b3923 	andeq	r3, fp, r3, lsr #18
    a58c:	25560100 	ldrbcs	r0, [r6, #-256]	; 0xffffff00
    a590:	b0000000 	andlt	r0, r0, r0
    a594:	34000094 	strcc	r0, [r0], #-148	; 0xffffff6c
    a598:	01000000 	mrseq	r0, (UNDEF: 0)
    a59c:	0009989c 	muleq	r9, ip, r8
    a5a0:	69702400 	ldmdbvs	r0!, {sl, sp}^
    a5a4:	5601006e 	strpl	r0, [r1], -lr, rrx
    a5a8:	0000002c 	andeq	r0, r0, ip, lsr #32
    a5ac:	0000143e 	andeq	r1, r0, lr, lsr r4
    a5b0:	000b2d25 	andeq	r2, fp, r5, lsr #26
    a5b4:	2c590100 	ldfcse	f0, [r9], {-0}
    a5b8:	78000000 	stmdavc	r0, {}	; <UNPREDICTABLE>
    a5bc:	26000014 			; <UNDEFINED> instruction: 0x26000014
    a5c0:	0066666f 	rsbeq	r6, r6, pc, ror #12
    a5c4:	002c5a01 	eoreq	r5, ip, r1, lsl #20
    a5c8:	14b60000 	ldrtne	r0, [r6], #0
    a5cc:	cc270000 	stcgt	0, cr0, [r7], #-0
    a5d0:	5d000094 	stcpl	0, cr0, [r0, #-592]	; 0xfffffdb0
    a5d4:	2800000b 	stmdacs	r0, {r0, r1, r3}
    a5d8:	f30b5001 	vhadd.u8	d5, d11, d1
    a5dc:	25355001 	ldrcs	r5, [r5, #-1]!
    a5e0:	8080b423 	addhi	fp, r0, r3, lsr #8
    a5e4:	00000281 	andeq	r0, r0, r1, lsl #5
    a5e8:	000b5329 	andeq	r5, fp, r9, lsr #6
    a5ec:	944f0100 	strbls	r0, [pc], #-256	; a5f4 <__bss_end__+0x594>
    a5f0:	1c000094 	stcne	0, cr0, [r0], {148}	; 0x94
    a5f4:	01000000 	mrseq	r0, (UNDEF: 0)
    a5f8:	0009e89c 	muleq	r9, ip, r8
    a5fc:	69702400 	ldmdbvs	r0!, {sl, sp}^
    a600:	4f01006e 	svcmi	0x0001006e
    a604:	0000002c 	andeq	r0, r0, ip, lsr #32
    a608:	000014c9 	andeq	r1, r0, r9, asr #9
    a60c:	01007624 	tsteq	r0, r4, lsr #12
    a610:	00002c4f 	andeq	r2, r0, pc, asr #24
    a614:	00150300 	andseq	r0, r5, r0, lsl #6
    a618:	94a42a00 	strtls	r2, [r4], #2560	; 0xa00
    a61c:	0a230000 	beq	8ca624 <__bss_end__+0x8c05c4>
    a620:	09de0000 	ldmibeq	lr, {}^	; <UNPREDICTABLE>
    a624:	01280000 			; <UNDEFINED> instruction: 0x01280000
    a628:	01f30350 	mvnseq	r0, r0, asr r3
    a62c:	ac2b0050 	stcge	0, cr0, [fp], #-320	; 0xfffffec0
    a630:	64000094 	strvs	r0, [r0], #-148	; 0xffffff6c
    a634:	0000000a 	andeq	r0, r0, sl
    a638:	000b7229 	andeq	r7, fp, r9, lsr #4
    a63c:	844a0100 	strbhi	r0, [sl], #-256	; 0xffffff00
    a640:	10000094 	mulne	r0, r4, r0
    a644:	01000000 	mrseq	r0, (UNDEF: 0)
    a648:	000a239c 	muleq	sl, ip, r3
    a64c:	69702400 	ldmdbvs	r0!, {sl, sp}^
    a650:	4a01006e 	bmi	4a810 <__bss_end__+0x407b0>
    a654:	0000002c 	andeq	r0, r0, ip, lsr #32
    a658:	0000153d 	andeq	r1, r0, sp, lsr r5
    a65c:	00949027 	addseq	r9, r4, r7, lsr #32
    a660:	000ae000 	andeq	lr, sl, r0
    a664:	50012800 	andpl	r2, r1, r0, lsl #16
    a668:	5001f303 	andpl	pc, r1, r3, lsl #6
    a66c:	01510128 	cmpeq	r1, r8, lsr #2
    a670:	29000030 	stmdbcs	r0, {r4, r5}
    a674:	00000b20 	andeq	r0, r0, r0, lsr #22
    a678:	94604301 	strbtls	r4, [r0], #-769	; 0xfffffcff
    a67c:	00240000 	eoreq	r0, r4, r0
    a680:	9c010000 	stcls	0, cr0, [r1], {-0}
    a684:	00000a64 	andeq	r0, r0, r4, ror #20
    a688:	6e697024 	cdpvs	0, 6, cr7, cr9, cr4, {1}
    a68c:	2c430100 	stfcse	f0, [r3], {-0}
    a690:	5e000000 	cdppl	0, 0, cr0, cr0, cr0, {0}
    a694:	27000015 	smladcs	r0, r5, r0, r0
    a698:	0000947c 	andeq	r9, r0, ip, ror r4
    a69c:	00000b68 	andeq	r0, r0, r8, ror #22
    a6a0:	05500128 	ldrbeq	r0, [r0, #-296]	; 0xfffffed8
    a6a4:	2000280c 	andcs	r2, r0, ip, lsl #16
    a6a8:	51012820 	tstpl	r1, r0, lsr #16
    a6ac:	01f33105 	mvnseq	r3, r5, lsl #2
    a6b0:	00002450 	andeq	r2, r0, r0, asr r4
    a6b4:	000b8129 	andeq	r8, fp, r9, lsr #2
    a6b8:	3c3c0100 	ldfccs	f0, [ip], #-0
    a6bc:	24000094 	strcs	r0, [r0], #-148	; 0xffffff6c
    a6c0:	01000000 	mrseq	r0, (UNDEF: 0)
    a6c4:	000aa59c 	muleq	sl, ip, r5
    a6c8:	69702400 	ldmdbvs	r0!, {sl, sp}^
    a6cc:	3c01006e 	stccc	0, cr0, [r1], {110}	; 0x6e
    a6d0:	0000002c 	andeq	r0, r0, ip, lsr #32
    a6d4:	0000157f 	andeq	r1, r0, pc, ror r5
    a6d8:	00945827 	addseq	r5, r4, r7, lsr #16
    a6dc:	000b6800 	andeq	r6, fp, r0, lsl #16
    a6e0:	50012800 	andpl	r2, r1, r0, lsl #16
    a6e4:	001c0c05 	andseq	r0, ip, r5, lsl #24
    a6e8:	01282020 			; <UNDEFINED> instruction: 0x01282020
    a6ec:	f3310551 	vqrshl.u64	q0, <illegal reg q0.5>, <illegal reg q0.5>
    a6f0:	00245001 	eoreq	r5, r4, r1
    a6f4:	0b432900 	bleq	10d4afc <__bss_end__+0x10caa9c>
    a6f8:	37010000 	strcc	r0, [r1, -r0]
    a6fc:	0000942c 	andeq	r9, r0, ip, lsr #8
    a700:	00000010 	andeq	r0, r0, r0, lsl r0
    a704:	0ae09c01 	beq	ff831710 <__bss_end__+0xff8276b0>
    a708:	70240000 	eorvc	r0, r4, r0
    a70c:	01006e69 	tsteq	r0, r9, ror #28
    a710:	00002c37 	andeq	r2, r0, r7, lsr ip
    a714:	0015a000 	andseq	sl, r5, r0
    a718:	94382700 	ldrtls	r2, [r8], #-1792	; 0xfffff900
    a71c:	0ae00000 	beq	ff80a724 <__bss_end__+0xff8006c4>
    a720:	01280000 			; <UNDEFINED> instruction: 0x01280000
    a724:	01f30350 	mvnseq	r0, r0, asr r3
    a728:	51012850 	tstpl	r1, r0, asr r8
    a72c:	00003101 	andeq	r3, r0, r1, lsl #2
    a730:	0009e929 	andeq	lr, r9, r9, lsr #18
    a734:	c4280100 	strtgt	r0, [r8], #-256	; 0xffffff00
    a738:	68000093 	stmdavs	r0, {r0, r1, r4, r7}
    a73c:	01000000 	mrseq	r0, (UNDEF: 0)
    a740:	000b5d9c 	muleq	fp, ip, sp
    a744:	69702400 	ldmdbvs	r0!, {sl, sp}^
    a748:	2801006e 	stmdacs	r1, {r1, r2, r3, r5, r6}
    a74c:	0000002c 	andeq	r0, r0, ip, lsr #32
    a750:	000015c1 	andeq	r1, r0, r1, asr #11
    a754:	0004db2c 	andeq	sp, r4, ip, lsr #22
    a758:	00280100 	eoreq	r0, r8, r0, lsl #2
    a75c:	e2000009 	and	r0, r0, #9
    a760:	2d000015 	stccs	0, cr0, [r0, #-84]	; 0xffffffac
    a764:	0066666f 	rsbeq	r6, r6, pc, ror #12
    a768:	002c2d01 	eoreq	r2, ip, r1, lsl #26
    a76c:	54010000 	strpl	r0, [r1], #-0
    a770:	0100672d 	tsteq	r0, sp, lsr #14
    a774:	00002c2f 	andeq	r2, r0, pc, lsr #24
    a778:	26560100 	ldrbcs	r0, [r6], -r0, lsl #2
    a77c:	31010076 	tstcc	r1, r6, ror r0
    a780:	0000002c 	andeq	r0, r0, ip, lsr #32
    a784:	00001603 	andeq	r1, r0, r3, lsl #12
    a788:	0094102a 	addseq	r1, r4, sl, lsr #32
    a78c:	000b5d00 	andeq	r5, fp, r0, lsl #26
    a790:	000b4c00 	andeq	r4, fp, r0, lsl #24
    a794:	50012800 	andpl	r2, r1, r0, lsl #16
    a798:	00007602 	andeq	r7, r0, r2, lsl #12
    a79c:	00942427 	addseq	r2, r4, r7, lsr #8
    a7a0:	000b6800 	andeq	r6, fp, r0, lsl #16
    a7a4:	50012800 	andpl	r2, r1, r0, lsl #16
    a7a8:	00007602 	andeq	r7, r0, r2, lsl #12
    a7ac:	09042e00 	stmdbeq	r4, {r9, sl, fp, sp}
    a7b0:	09040000 	stmdbeq	r4, {}	; <UNPREDICTABLE>
    a7b4:	a7060000 	strge	r0, [r6, -r0]
    a7b8:	00085e2e 	andeq	r5, r8, lr, lsr #28
    a7bc:	00085e00 	andeq	r5, r8, r0, lsl #28
    a7c0:	009b0600 	addseq	r0, fp, r0, lsl #12
    a7c4:	00000c24 	andeq	r0, r0, r4, lsr #24
    a7c8:	21980004 	orrscs	r0, r8, r4
    a7cc:	01040000 	mrseq	r0, (UNDEF: 4)
    a7d0:	00000a35 	andeq	r0, r0, r5, lsr sl
    a7d4:	000ba30c 	andeq	sl, fp, ip, lsl #6
    a7d8:	00096c00 	andeq	r6, r9, r0, lsl #24
    a7dc:	0094e400 	addseq	lr, r4, r0, lsl #8
    a7e0:	00019400 	andeq	r9, r1, r0, lsl #8
    a7e4:	001b6800 	andseq	r6, fp, r0, lsl #16
    a7e8:	05040200 	streq	r0, [r4, #-512]	; 0xfffffe00
    a7ec:	00746e69 	rsbseq	r6, r4, r9, ror #28
    a7f0:	66070403 	strvs	r0, [r7], -r3, lsl #8
    a7f4:	03000000 	movweq	r0, #0
    a7f8:	02ec0601 	rsceq	r0, ip, #1048576	; 0x100000
    a7fc:	02030000 	andeq	r0, r3, #0
    a800:	00038505 	andeq	r8, r3, r5, lsl #10
    a804:	05040300 	streq	r0, [r4, #-768]	; 0xfffffd00
    a808:	000000ac 	andeq	r0, r0, ip, lsr #1
    a80c:	a7050803 	strge	r0, [r5, -r3, lsl #16]
    a810:	03000000 	movweq	r0, #0
    a814:	02ea0801 	rsceq	r0, sl, #65536	; 0x10000
    a818:	02030000 	andeq	r0, r3, #0
    a81c:	00022207 	andeq	r2, r2, r7, lsl #4
    a820:	07040300 	streq	r0, [r4, -r0, lsl #6]
    a824:	00000061 	andeq	r0, r0, r1, rrx
    a828:	5c070803 	stcpl	8, cr0, [r7], {3}
    a82c:	04000000 	streq	r0, [r0], #-0
    a830:	00000a00 	andeq	r0, r0, r0, lsl #20
    a834:	00250702 	eoreq	r0, r5, r2, lsl #14
    a838:	cb040000 	blgt	10a840 <__bss_end__+0x1007e0>
    a83c:	03000002 	movweq	r0, #2
    a840:	0000412c 	andeq	r4, r0, ip, lsr #2
    a844:	04400400 	strbeq	r0, [r0], #-1024	; 0xfffffc00
    a848:	72030000 	andvc	r0, r3, #0
    a84c:	00000041 	andeq	r0, r0, r1, asr #32
    a850:	00027b05 	andeq	r7, r2, r5, lsl #22
    a854:	01650400 	cmneq	r5, r0, lsl #8
    a858:	0000002c 	andeq	r0, r0, ip, lsr #32
    a85c:	a6030406 	strge	r0, [r3], -r6, lsl #8
    a860:	000000b7 	strheq	r0, [r0], -r7
    a864:	00026d07 	andeq	r6, r2, r7, lsl #26
    a868:	8ca80300 	stchi	3, cr0, [r8]
    a86c:	07000000 	streq	r0, [r0, -r0]
    a870:	000001e2 	andeq	r0, r0, r2, ror #3
    a874:	00b7a903 	adcseq	sl, r7, r3, lsl #18
    a878:	08000000 	stmdaeq	r0, {}	; <UNPREDICTABLE>
    a87c:	0000004f 	andeq	r0, r0, pc, asr #32
    a880:	000000c7 	andeq	r0, r0, r7, asr #1
    a884:	0000c709 	andeq	ip, r0, r9, lsl #14
    a888:	03000300 	movweq	r0, #768	; 0x300
    a88c:	09e00704 	stmibeq	r0!, {r2, r8, r9, sl}^
    a890:	080a0000 	stmdaeq	sl, {}	; <UNPREDICTABLE>
    a894:	00efa303 	rsceq	sl, pc, r3, lsl #6
    a898:	230b0000 	movwcs	r0, #45056	; 0xb000
    a89c:	03000004 	movweq	r0, #4
    a8a0:	000025a5 	andeq	r2, r0, r5, lsr #11
    a8a4:	320b0000 	andcc	r0, fp, #0
    a8a8:	03000004 	movweq	r0, #4
    a8ac:	000098aa 	andeq	r9, r0, sl, lsr #17
    a8b0:	04000400 	streq	r0, [r0], #-1024	; 0xfffffc00
    a8b4:	000003ad 	andeq	r0, r0, sp, lsr #7
    a8b8:	00ceab03 	sbceq	sl, lr, r3, lsl #22
    a8bc:	9f040000 	svcls	0x00040000
    a8c0:	03000001 	movweq	r0, #1
    a8c4:	00006baf 	andeq	r6, r0, pc, lsr #23
    a8c8:	0d040c00 	stceq	12, cr0, [r4, #-0]
    a8cc:	00010d04 	andeq	r0, r1, r4, lsl #26
    a8d0:	08010300 	stmdaeq	r1, {r8, r9}
    a8d4:	000002f3 	strdeq	r0, [r0], -r3
    a8d8:	00010d0e 	andeq	r0, r1, lr, lsl #26
    a8dc:	04720400 	ldrbteq	r0, [r2], #-1024	; 0xfffffc00
    a8e0:	16050000 	strne	r0, [r5], -r0
    a8e4:	0000005d 	andeq	r0, r0, sp, asr r0
    a8e8:	0001b00f 	andeq	fp, r1, pc
    a8ec:	2d051800 	stccs	8, cr1, [r5, #-0]
    a8f0:	00000177 	andeq	r0, r0, r7, ror r1
    a8f4:	0003ce0b 	andeq	ip, r3, fp, lsl #28
    a8f8:	772f0500 	strvc	r0, [pc, -r0, lsl #10]!
    a8fc:	00000001 	andeq	r0, r0, r1
    a900:	006b5f10 	rsbeq	r5, fp, r0, lsl pc
    a904:	00253005 	eoreq	r3, r5, r5
    a908:	0b040000 	bleq	10a910 <__bss_end__+0x1008b0>
    a90c:	0000040e 	andeq	r0, r0, lr, lsl #8
    a910:	00253005 	eoreq	r3, r5, r5
    a914:	0b080000 	bleq	20a91c <__bss_end__+0x2008bc>
    a918:	00000199 	muleq	r0, r9, r1
    a91c:	00253005 	eoreq	r3, r5, r5
    a920:	0b0c0000 	bleq	30a928 <__bss_end__+0x3008c8>
    a924:	000004ae 	andeq	r0, r0, lr, lsr #9
    a928:	00253005 	eoreq	r3, r5, r5
    a92c:	10100000 	andsne	r0, r0, r0
    a930:	0500785f 	streq	r7, [r0, #-2143]	; 0xfffff7a1
    a934:	00017d31 	andeq	r7, r1, r1, lsr sp
    a938:	0d001400 	cfstrseq	mvf1, [r0, #-0]
    a93c:	00012404 	andeq	r2, r1, r4, lsl #8
    a940:	01190800 	tsteq	r9, r0, lsl #16
    a944:	018d0000 	orreq	r0, sp, r0
    a948:	c7090000 	strgt	r0, [r9, -r0]
    a94c:	00000000 	andeq	r0, r0, r0
    a950:	01dd0f00 	bicseq	r0, sp, r0, lsl #30
    a954:	05240000 	streq	r0, [r4, #-0]!
    a958:	00020635 	andeq	r0, r2, r5, lsr r6
    a95c:	009e0b00 	addseq	r0, lr, r0, lsl #22
    a960:	37050000 	strcc	r0, [r5, -r0]
    a964:	00000025 	andeq	r0, r0, r5, lsr #32
    a968:	04480b00 	strbeq	r0, [r8], #-2816	; 0xfffff500
    a96c:	38050000 	stmdacc	r5, {}	; <UNPREDICTABLE>
    a970:	00000025 	andeq	r0, r0, r5, lsr #32
    a974:	00c10b04 	sbceq	r0, r1, r4, lsl #22
    a978:	39050000 	stmdbcc	r5, {}	; <UNPREDICTABLE>
    a97c:	00000025 	andeq	r0, r0, r5, lsr #32
    a980:	052f0b08 	streq	r0, [pc, #-2824]!	; 9e80 <buf.4297+0x224>
    a984:	3a050000 	bcc	14a98c <__bss_end__+0x14092c>
    a988:	00000025 	andeq	r0, r0, r5, lsr #32
    a98c:	02af0b0c 	adceq	r0, pc, #12, 22	; 0x3000
    a990:	3b050000 	blcc	14a998 <__bss_end__+0x140938>
    a994:	00000025 	andeq	r0, r0, r5, lsr #32
    a998:	02910b10 	addseq	r0, r1, #16, 22	; 0x4000
    a99c:	3c050000 	stccc	0, cr0, [r5], {-0}
    a9a0:	00000025 	andeq	r0, r0, r5, lsr #32
    a9a4:	04b30b14 	ldrteq	r0, [r3], #2836	; 0xb14
    a9a8:	3d050000 	stccc	0, cr0, [r5, #-0]
    a9ac:	00000025 	andeq	r0, r0, r5, lsr #32
    a9b0:	038f0b18 	orreq	r0, pc, #24, 22	; 0x6000
    a9b4:	3e050000 	cdpcc	0, 0, cr0, cr5, cr0, {0}
    a9b8:	00000025 	andeq	r0, r0, r5, lsr #32
    a9bc:	04f60b1c 	ldrbteq	r0, [r6], #2844	; 0xb1c
    a9c0:	3f050000 	svccc	0x00050000
    a9c4:	00000025 	andeq	r0, r0, r5, lsr #32
    a9c8:	01110020 	tsteq	r1, r0, lsr #32
    a9cc:	08000001 	stmdaeq	r0, {r0}
    a9d0:	46480501 	strbmi	r0, [r8], -r1, lsl #10
    a9d4:	0b000002 	bleq	a9e4 <__bss_end__+0x984>
    a9d8:	0000018c 	andeq	r0, r0, ip, lsl #3
    a9dc:	02464905 	subeq	r4, r6, #81920	; 0x14000
    a9e0:	0b000000 	bleq	a9e8 <__bss_end__+0x988>
    a9e4:	00000000 	andeq	r0, r0, r0
    a9e8:	02464a05 	subeq	r4, r6, #20480	; 0x5000
    a9ec:	12800000 	addne	r0, r0, #0
    a9f0:	00000464 	andeq	r0, r0, r4, ror #8
    a9f4:	01194c05 	tsteq	r9, r5, lsl #24
    a9f8:	01000000 	mrseq	r0, (UNDEF: 0)
    a9fc:	00012612 	andeq	r2, r1, r2, lsl r6
    aa00:	194f0500 	stmdbne	pc, {r8, sl}^	; <UNPREDICTABLE>
    aa04:	04000001 	streq	r0, [r0], #-1
    aa08:	05080001 	streq	r0, [r8, #-1]
    aa0c:	56000001 	strpl	r0, [r0], -r1
    aa10:	09000002 	stmdbeq	r0, {r1}
    aa14:	000000c7 	andeq	r0, r0, r7, asr #1
    aa18:	b811001f 	ldmdalt	r1, {r0, r1, r2, r3, r4}
    aa1c:	90000002 	andls	r0, r0, r2
    aa20:	945b0501 	ldrbls	r0, [fp], #-1281	; 0xfffffaff
    aa24:	0b000002 	bleq	aa34 <__bss_end__+0x9d4>
    aa28:	000003ce 	andeq	r0, r0, lr, asr #7
    aa2c:	02945c05 	addseq	r5, r4, #1280	; 0x500
    aa30:	0b000000 	bleq	aa38 <__bss_end__+0x9d8>
    aa34:	000003e6 	andeq	r0, r0, r6, ror #7
    aa38:	00255d05 	eoreq	r5, r5, r5, lsl #26
    aa3c:	0b040000 	bleq	10aa44 <__bss_end__+0x1009e4>
    aa40:	00000194 	muleq	r0, r4, r1
    aa44:	029a5f05 	addseq	r5, sl, #5, 30
    aa48:	0b080000 	bleq	20aa50 <__bss_end__+0x2009f0>
    aa4c:	00000101 	andeq	r0, r0, r1, lsl #2
    aa50:	02066005 	andeq	r6, r6, #5
    aa54:	00880000 	addeq	r0, r8, r0
    aa58:	0256040d 	subseq	r0, r6, #218103808	; 0xd000000
    aa5c:	aa080000 	bge	20aa64 <__bss_end__+0x200a04>
    aa60:	aa000002 	bge	aa70 <__bss_end__+0xa10>
    aa64:	09000002 	stmdbeq	r0, {r1}
    aa68:	000000c7 	andeq	r0, r0, r7, asr #1
    aa6c:	040d001f 	streq	r0, [sp], #-31	; 0xffffffe1
    aa70:	000002b0 			; <UNDEFINED> instruction: 0x000002b0
    aa74:	03990f13 	orrseq	r0, r9, #19, 30	; 0x4c
    aa78:	05080000 	streq	r0, [r8, #-0]
    aa7c:	0002d673 	andeq	sp, r2, r3, ror r6
    aa80:	00bb0b00 	adcseq	r0, fp, r0, lsl #22
    aa84:	74050000 	strvc	r0, [r5], #-0
    aa88:	000002d6 	ldrdeq	r0, [r0], -r6
    aa8c:	001b0b00 	andseq	r0, fp, r0, lsl #22
    aa90:	75050000 	strvc	r0, [r5, #-0]
    aa94:	00000025 	andeq	r0, r0, r5, lsr #32
    aa98:	040d0004 	streq	r0, [sp], #-4
    aa9c:	0000004f 	andeq	r0, r0, pc, asr #32
    aaa0:	0003b80f 	andeq	fp, r3, pc, lsl #16
    aaa4:	b3056800 	movwlt	r6, #22528	; 0x5800
    aaa8:	00000406 	andeq	r0, r0, r6, lsl #8
    aaac:	00705f10 	rsbseq	r5, r0, r0, lsl pc
    aab0:	02d6b405 	sbcseq	fp, r6, #83886080	; 0x5000000
    aab4:	10000000 	andne	r0, r0, r0
    aab8:	0500725f 	streq	r7, [r0, #-607]	; 0xfffffda1
    aabc:	000025b5 			; <UNDEFINED> instruction: 0x000025b5
    aac0:	5f100400 	svcpl	0x00100400
    aac4:	b6050077 			; <UNDEFINED> instruction: 0xb6050077
    aac8:	00000025 	andeq	r0, r0, r5, lsr #32
    aacc:	011f0b08 	tsteq	pc, r8, lsl #22
    aad0:	b7050000 	strlt	r0, [r5, -r0]
    aad4:	0000003a 	andeq	r0, r0, sl, lsr r0
    aad8:	02080b0c 	andeq	r0, r8, #12, 22	; 0x3000
    aadc:	b8050000 	stmdalt	r5, {}	; <UNPREDICTABLE>
    aae0:	0000003a 	andeq	r0, r0, sl, lsr r0
    aae4:	625f100e 	subsvs	r1, pc, #14
    aae8:	b9050066 	stmdblt	r5, {r1, r2, r5, r6}
    aaec:	000002b1 			; <UNDEFINED> instruction: 0x000002b1
    aaf0:	007b0b10 	rsbseq	r0, fp, r0, lsl fp
    aaf4:	ba050000 	blt	14aafc <__bss_end__+0x140a9c>
    aaf8:	00000025 	andeq	r0, r0, r5, lsr #32
    aafc:	010f0b18 	tsteq	pc, r8, lsl fp	; <UNPREDICTABLE>
    ab00:	c1050000 	mrsgt	r0, (UNDEF: 5)
    ab04:	00000105 	andeq	r0, r0, r5, lsl #2
    ab08:	0b3d0b1c 	bleq	f4d780 <__bss_end__+0xf43720>
    ab0c:	c3050000 	movwgt	r0, #20480	; 0x5000
    ab10:	00000561 	andeq	r0, r0, r1, ror #10
    ab14:	06320b20 	ldrteq	r0, [r2], -r0, lsr #22
    ab18:	c5050000 	strgt	r0, [r5, #-0]
    ab1c:	0000058b 	andeq	r0, r0, fp, lsl #11
    ab20:	043a0b24 	ldrteq	r0, [sl], #-2852	; 0xfffff4dc
    ab24:	c8050000 	stmdagt	r5, {}	; <UNPREDICTABLE>
    ab28:	000005af 	andeq	r0, r0, pc, lsr #11
    ab2c:	05100b28 	ldreq	r0, [r0, #-2856]	; 0xfffff4d8
    ab30:	c9050000 	stmdbgt	r5, {}	; <UNPREDICTABLE>
    ab34:	000005c9 	andeq	r0, r0, r9, asr #11
    ab38:	755f102c 	ldrbvc	r1, [pc, #-44]	; ab14 <__bss_end__+0xab4>
    ab3c:	cc050062 	stcgt	0, cr0, [r5], {98}	; 0x62
    ab40:	000002b1 			; <UNDEFINED> instruction: 0x000002b1
    ab44:	755f1030 	ldrbvc	r1, [pc, #-48]	; ab1c <__bss_end__+0xabc>
    ab48:	cd050070 	stcgt	0, cr0, [r5, #-448]	; 0xfffffe40
    ab4c:	000002d6 	ldrdeq	r0, [r0], -r6
    ab50:	755f1038 	ldrbvc	r1, [pc, #-56]	; ab20 <__bss_end__+0xac0>
    ab54:	ce050072 	mcrgt	0, 0, r0, cr5, cr2, {3}
    ab58:	00000025 	andeq	r0, r0, r5, lsr #32
    ab5c:	00b50b3c 	adcseq	r0, r5, ip, lsr fp
    ab60:	d1050000 	mrsle	r0, (UNDEF: 5)
    ab64:	000005cf 	andeq	r0, r0, pc, asr #11
    ab68:	04e80b40 	strbteq	r0, [r8], #2880	; 0xb40
    ab6c:	d2050000 	andle	r0, r5, #0
    ab70:	000005df 	ldrdeq	r0, [r0], -pc	; <UNPREDICTABLE>
    ab74:	6c5f1043 	mrrcvs	0, 4, r1, pc, cr3	; <UNPREDICTABLE>
    ab78:	d5050062 	strle	r0, [r5, #-98]	; 0xffffff9e
    ab7c:	000002b1 			; <UNDEFINED> instruction: 0x000002b1
    ab80:	013d0b44 	teqeq	sp, r4, asr #22
    ab84:	d8050000 	stmdale	r5, {}	; <UNPREDICTABLE>
    ab88:	00000025 	andeq	r0, r0, r5, lsr #32
    ab8c:	014e0b4c 	cmpeq	lr, ip, asr #22
    ab90:	d9050000 	stmdble	r5, {}	; <UNPREDICTABLE>
    ab94:	00000076 	andeq	r0, r0, r6, ror r0
    ab98:	0ade0b50 	beq	ff78d8e0 <__bss_end__+0xff783880>
    ab9c:	dc050000 	stcle	0, cr0, [r5], {-0}
    aba0:	00000424 	andeq	r0, r0, r4, lsr #8
    aba4:	042c0b54 	strteq	r0, [ip], #-2900	; 0xfffff4ac
    aba8:	e0050000 	and	r0, r5, r0
    abac:	000000fa 	strdeq	r0, [r0], -sl
    abb0:	03c00b58 	biceq	r0, r0, #88, 22	; 0x16000
    abb4:	e2050000 	and	r0, r5, #0
    abb8:	000000ef 	andeq	r0, r0, pc, ror #1
    abbc:	02890b5c 	addeq	r0, r9, #92, 22	; 0x17000
    abc0:	e3050000 	movw	r0, #20480	; 0x5000
    abc4:	00000025 	andeq	r0, r0, r5, lsr #32
    abc8:	25140064 	ldrcs	r0, [r4, #-100]	; 0xffffff9c
    abcc:	24000000 	strcs	r0, [r0], #-0
    abd0:	15000004 	strne	r0, [r0, #-4]
    abd4:	00000424 	andeq	r0, r0, r4, lsr #8
    abd8:	00010515 	andeq	r0, r1, r5, lsl r5
    abdc:	01071500 	tsteq	r7, r0, lsl #10
    abe0:	25150000 	ldrcs	r0, [r5, #-0]
    abe4:	00000000 	andeq	r0, r0, r0
    abe8:	042f040d 	strteq	r0, [pc], #-1037	; abf0 <__bss_end__+0xb90>
    abec:	240e0000 	strcs	r0, [lr], #-0
    abf0:	16000004 	strne	r0, [r0], -r4
    abf4:	00000416 	andeq	r0, r0, r6, lsl r4
    abf8:	38050428 	stmdacc	r5, {r3, r5, sl}
    abfc:	00056102 	andeq	r6, r5, r2, lsl #2
    ac00:	037e1700 	cmneq	lr, #0, 14
    ac04:	3a050000 	bcc	14ac0c <__bss_end__+0x140bac>
    ac08:	00002502 	andeq	r2, r0, r2, lsl #10
    ac0c:	2e170000 	cdpcs	0, 1, cr0, cr7, cr0, {0}
    ac10:	05000001 	streq	r0, [r0, #-1]
    ac14:	0636023f 			; <UNDEFINED> instruction: 0x0636023f
    ac18:	17040000 	strne	r0, [r4, -r0]
    ac1c:	000001f8 	strdeq	r0, [r0], -r8
    ac20:	36023f05 	strcc	r3, [r2], -r5, lsl #30
    ac24:	08000006 	stmdaeq	r0, {r1, r2}
    ac28:	0001a817 	andeq	sl, r1, r7, lsl r8
    ac2c:	023f0500 	eorseq	r0, pc, #0, 10
    ac30:	00000636 	andeq	r0, r0, r6, lsr r6
    ac34:	03e1170c 	mvneq	r1, #12, 14	; 0x300000
    ac38:	41050000 	mrsmi	r0, (UNDEF: 5)
    ac3c:	00002502 	andeq	r2, r0, r2, lsl #10
    ac40:	29171000 	ldmdbcs	r7, {ip}
    ac44:	05000000 	streq	r0, [r0, #-0]
    ac48:	08180242 	ldmdaeq	r8, {r1, r6, r9}
    ac4c:	17140000 	ldrne	r0, [r4, -r0]
    ac50:	00000a97 	muleq	r0, r7, sl
    ac54:	25024405 	strcs	r4, [r2, #-1029]	; 0xfffffbfb
    ac58:	30000000 	andcc	r0, r0, r0
    ac5c:	000a1217 	andeq	r1, sl, r7, lsl r2
    ac60:	02450500 	subeq	r0, r5, #0, 10
    ac64:	00000585 	andeq	r0, r0, r5, lsl #11
    ac68:	02c01734 	sbceq	r1, r0, #52, 14	; 0xd00000
    ac6c:	47050000 	strmi	r0, [r5, -r0]
    ac70:	00002502 	andeq	r2, r0, r2, lsl #10
    ac74:	eb173800 	bl	5d8c7c <__bss_end__+0x5cec1c>
    ac78:	05000003 	streq	r0, [r0, #-3]
    ac7c:	08330249 	ldmdaeq	r3!, {r0, r3, r6, r9}
    ac80:	173c0000 	ldrne	r0, [ip, -r0]!
    ac84:	00000265 	andeq	r0, r0, r5, ror #4
    ac88:	77024c05 	strvc	r4, [r2, -r5, lsl #24]
    ac8c:	40000001 	andmi	r0, r0, r1
    ac90:	0001c717 	andeq	ip, r1, r7, lsl r7
    ac94:	024d0500 	subeq	r0, sp, #0, 10
    ac98:	00000025 	andeq	r0, r0, r5, lsr #32
    ac9c:	052a1744 	streq	r1, [sl, #-1860]!	; 0xfffff8bc
    aca0:	4e050000 	cdpmi	0, 0, cr0, cr5, cr0, {0}
    aca4:	00017702 	andeq	r7, r1, r2, lsl #14
    aca8:	d2174800 	andsle	r4, r7, #0, 16
    acac:	05000002 	streq	r0, [r0, #-2]
    acb0:	0839024f 	ldmdaeq	r9!, {r0, r1, r2, r3, r6, r9}
    acb4:	174c0000 	strbne	r0, [ip, -r0]
    acb8:	00000200 	andeq	r0, r0, r0, lsl #4
    acbc:	25025205 	strcs	r5, [r2, #-517]	; 0xfffffdfb
    acc0:	50000000 	andpl	r0, r0, r0
    acc4:	00014617 	andeq	r4, r1, r7, lsl r6
    acc8:	02530500 	subseq	r0, r3, #0, 10
    accc:	00000107 	andeq	r0, r0, r7, lsl #2
    acd0:	02f81754 	rscseq	r1, r8, #84, 14	; 0x1500000
    acd4:	76050000 	strvc	r0, [r5], -r0
    acd8:	0007f602 	andeq	pc, r7, r2, lsl #12
    acdc:	b8185800 	ldmdalt	r8, {fp, ip, lr}
    ace0:	05000002 	streq	r0, [r0, #-2]
    ace4:	0294027a 	addseq	r0, r4, #-1610612729	; 0xa0000007
    ace8:	01480000 	mrseq	r0, (UNDEF: 72)
    acec:	00024318 	andeq	r4, r2, r8, lsl r3
    acf0:	027b0500 	rsbseq	r0, fp, #0, 10
    acf4:	00000256 	andeq	r0, r0, r6, asr r2
    acf8:	d618014c 	ldrle	r0, [r8], -ip, asr #2
    acfc:	05000004 	streq	r0, [r0, #-4]
    ad00:	084a027f 	stmdaeq	sl, {r0, r1, r2, r3, r4, r5, r6, r9}^
    ad04:	02dc0000 	sbcseq	r0, ip, #0
    ad08:	00011718 	andeq	r1, r1, r8, lsl r7
    ad0c:	02840500 	addeq	r0, r4, #0, 10
    ad10:	000005fb 	strdeq	r0, [r0], -fp
    ad14:	fc1802e0 	ldc2	2, cr0, [r8], {224}	; 0xe0
    ad18:	05000000 	streq	r0, [r0, #-0]
    ad1c:	08560285 	ldmdaeq	r6, {r0, r2, r7, r9}^
    ad20:	02ec0000 	rsceq	r0, ip, #0
    ad24:	06040d00 	streq	r0, [r4], -r0, lsl #26
    ad28:	14000004 	strne	r0, [r0], #-4
    ad2c:	00000025 	andeq	r0, r0, r5, lsr #32
    ad30:	00000585 	andeq	r0, r0, r5, lsl #11
    ad34:	00042415 	andeq	r2, r4, r5, lsl r4
    ad38:	01051500 	tsteq	r5, r0, lsl #10
    ad3c:	85150000 	ldrhi	r0, [r5, #-0]
    ad40:	15000005 	strne	r0, [r0, #-5]
    ad44:	00000025 	andeq	r0, r0, r5, lsr #32
    ad48:	14040d00 	strne	r0, [r4], #-3328	; 0xfffff300
    ad4c:	0d000001 	stceq	0, cr0, [r0, #-4]
    ad50:	00056704 	andeq	r6, r5, r4, lsl #14
    ad54:	00811400 	addeq	r1, r1, r0, lsl #8
    ad58:	05af0000 	streq	r0, [pc, #0]!	; ad60 <__bss_end__+0xd00>
    ad5c:	24150000 	ldrcs	r0, [r5], #-0
    ad60:	15000004 	strne	r0, [r0, #-4]
    ad64:	00000105 	andeq	r0, r0, r5, lsl #2
    ad68:	00008115 	andeq	r8, r0, r5, lsl r1
    ad6c:	00251500 	eoreq	r1, r5, r0, lsl #10
    ad70:	0d000000 	stceq	0, cr0, [r0, #-0]
    ad74:	00059104 	andeq	r9, r5, r4, lsl #2
    ad78:	00251400 	eoreq	r1, r5, r0, lsl #8
    ad7c:	05c90000 	strbeq	r0, [r9]
    ad80:	24150000 	ldrcs	r0, [r5], #-0
    ad84:	15000004 	strne	r0, [r0, #-4]
    ad88:	00000105 	andeq	r0, r0, r5, lsl #2
    ad8c:	b5040d00 	strlt	r0, [r4, #-3328]	; 0xfffff300
    ad90:	08000005 	stmdaeq	r0, {r0, r2}
    ad94:	0000004f 	andeq	r0, r0, pc, asr #32
    ad98:	000005df 	ldrdeq	r0, [r0], -pc	; <UNPREDICTABLE>
    ad9c:	0000c709 	andeq	ip, r0, r9, lsl #14
    ada0:	08000200 	stmdaeq	r0, {r9}
    ada4:	0000004f 	andeq	r0, r0, pc, asr #32
    ada8:	000005ef 	andeq	r0, r0, pc, ror #11
    adac:	0000c709 	andeq	ip, r0, r9, lsl #14
    adb0:	05000000 	streq	r0, [r0, #-0]
    adb4:	000003a6 	andeq	r0, r0, r6, lsr #7
    adb8:	dc011d05 	stcle	13, cr1, [r1], {5}
    adbc:	19000002 	stmdbne	r0, {r1}
    adc0:	000004bd 			; <UNDEFINED> instruction: 0x000004bd
    adc4:	0121050c 			; <UNDEFINED> instruction: 0x0121050c
    adc8:	00000630 	andeq	r0, r0, r0, lsr r6
    adcc:	0003ce17 	andeq	ip, r3, r7, lsl lr
    add0:	01230500 			; <UNDEFINED> instruction: 0x01230500
    add4:	00000630 	andeq	r0, r0, r0, lsr r6
    add8:	021b1700 	andseq	r1, fp, #0, 14
    addc:	24050000 	strcs	r0, [r5], #-0
    ade0:	00002501 	andeq	r2, r0, r1, lsl #10
    ade4:	a0170400 	andsge	r0, r7, r0, lsl #8
    ade8:	05000003 	streq	r0, [r0, #-3]
    adec:	06360125 	ldrteq	r0, [r6], -r5, lsr #2
    adf0:	00080000 	andeq	r0, r8, r0
    adf4:	05fb040d 	ldrbeq	r0, [fp, #1037]!	; 0x40d
    adf8:	040d0000 	streq	r0, [sp], #-0
    adfc:	000005ef 	andeq	r0, r0, pc, ror #11
    ae00:	00002119 	andeq	r2, r0, r9, lsl r1
    ae04:	3d050e00 	stccc	14, cr0, [r5, #-0]
    ae08:	00067101 	andeq	r7, r6, r1, lsl #2
    ae0c:	041d1700 	ldreq	r1, [sp], #-1792	; 0xfffff900
    ae10:	3e050000 	cdpcc	0, 0, cr0, cr5, cr0, {0}
    ae14:	00067101 	andeq	r7, r6, r1, lsl #2
    ae18:	51170000 	tstpl	r7, r0
    ae1c:	05000004 	streq	r0, [r0, #-4]
    ae20:	0671013f 			; <UNDEFINED> instruction: 0x0671013f
    ae24:	17060000 	strne	r0, [r6, -r0]
    ae28:	0000046d 	andeq	r0, r0, sp, ror #8
    ae2c:	56014005 	strpl	r4, [r1], -r5
    ae30:	0c000000 	stceq	0, cr0, [r0], {-0}
    ae34:	00560800 	subseq	r0, r6, r0, lsl #16
    ae38:	06810000 	streq	r0, [r1], r0
    ae3c:	c7090000 	strgt	r0, [r9, -r0]
    ae40:	02000000 	andeq	r0, r0, #0
    ae44:	05d01a00 	ldrbeq	r1, [r0, #2560]	; 0xa00
    ae48:	07820257 			; <UNDEFINED> instruction: 0x07820257
    ae4c:	a1170000 	tstge	r7, r0
    ae50:	05000004 	streq	r0, [r0, #-4]
    ae54:	002c0259 	eoreq	r0, ip, r9, asr r2
    ae58:	17000000 	strne	r0, [r0, -r0]
    ae5c:	00000457 	andeq	r0, r0, r7, asr r4
    ae60:	07025a05 	streq	r5, [r2, -r5, lsl #20]
    ae64:	04000001 	streq	r0, [r0], #-1
    ae68:	00025817 	andeq	r5, r2, r7, lsl r8
    ae6c:	025b0500 	subseq	r0, fp, #0, 10
    ae70:	00000782 	andeq	r0, r0, r2, lsl #15
    ae74:	05011708 	streq	r1, [r1, #-1800]	; 0xfffff8f8
    ae78:	5c050000 	stcpl	0, cr0, [r5], {-0}
    ae7c:	00018d02 	andeq	r8, r1, r2, lsl #26
    ae80:	b8172400 	ldmdalt	r7, {sl, sp}
    ae84:	05000001 	streq	r0, [r0, #-1]
    ae88:	0025025d 	eoreq	r0, r5, sp, asr r2
    ae8c:	17480000 	strbne	r0, [r8, -r0]
    ae90:	000003c9 	andeq	r0, r0, r9, asr #7
    ae94:	64025e05 	strvs	r5, [r2], #-3589	; 0xfffff1fb
    ae98:	50000000 	andpl	r0, r0, r0
    ae9c:	00051717 	andeq	r1, r5, r7, lsl r7
    aea0:	025f0500 	subseq	r0, pc, #0, 10
    aea4:	0000063c 	andeq	r0, r0, ip, lsr r6
    aea8:	03d41758 	bicseq	r1, r4, #88, 14	; 0x1600000
    aeac:	60050000 	andvs	r0, r5, r0
    aeb0:	0000ef02 	andeq	lr, r0, r2, lsl #30
    aeb4:	1c176800 	ldcne	8, cr6, [r7], {-0}
    aeb8:	05000005 	streq	r0, [r0, #-5]
    aebc:	00ef0261 	rsceq	r0, pc, r1, ror #4
    aec0:	17700000 	ldrbne	r0, [r0, -r0]!
    aec4:	000002dc 	ldrdeq	r0, [r0], -ip
    aec8:	ef026205 	svc	0x00026205
    aecc:	78000000 	stmdavc	r0, {}	; <UNPREDICTABLE>
    aed0:	0004cc17 	andeq	ip, r4, r7, lsl ip
    aed4:	02630500 	rsbeq	r0, r3, #0, 10
    aed8:	00000792 	muleq	r0, r2, r7
    aedc:	024c1780 	subeq	r1, ip, #128, 14	; 0x2000000
    aee0:	64050000 	strvs	r0, [r5], #-0
    aee4:	0007a202 	andeq	sl, r7, r2, lsl #4
    aee8:	7a178800 	bvc	5ecef0 <__bss_end__+0x5e2e90>
    aeec:	05000004 	streq	r0, [r0, #-4]
    aef0:	00250265 	eoreq	r0, r5, r5, ror #4
    aef4:	17a00000 	strne	r0, [r0, r0]!
    aef8:	0000017e 	andeq	r0, r0, lr, ror r1
    aefc:	ef026605 	svc	0x00026605
    af00:	a4000000 	strge	r0, [r0], #-0
    af04:	00008f17 	andeq	r8, r0, r7, lsl pc
    af08:	02670500 	rsbeq	r0, r7, #0, 10
    af0c:	000000ef 	andeq	r0, r0, pc, ror #1
    af10:	016d17ac 	cmneq	sp, ip, lsr #15
    af14:	68050000 	stmdavs	r5, {}	; <UNPREDICTABLE>
    af18:	0000ef02 	andeq	lr, r0, r2, lsl #30
    af1c:	3c17b400 	cfldrscc	mvf11, [r7], {-0}
    af20:	05000000 	streq	r0, [r0, #-0]
    af24:	00ef0269 	rsceq	r0, pc, r9, ror #4
    af28:	17bc0000 	ldrne	r0, [ip, r0]!
    af2c:	0000004b 	andeq	r0, r0, fp, asr #32
    af30:	ef026a05 	svc	0x00026a05
    af34:	c4000000 	strgt	r0, [r0], #-0
    af38:	00037c17 	andeq	r7, r3, r7, lsl ip
    af3c:	026b0500 	rsbeq	r0, fp, #0, 10
    af40:	00000025 	andeq	r0, r0, r5, lsr #32
    af44:	0d0800cc 	stceq	0, cr0, [r8, #-816]	; 0xfffffcd0
    af48:	92000001 	andls	r0, r0, #1
    af4c:	09000007 	stmdbeq	r0, {r0, r1, r2}
    af50:	000000c7 	andeq	r0, r0, r7, asr #1
    af54:	0d080019 	stceq	0, cr0, [r8, #-100]	; 0xffffff9c
    af58:	a2000001 	andge	r0, r0, #1
    af5c:	09000007 	stmdbeq	r0, {r0, r1, r2}
    af60:	000000c7 	andeq	r0, r0, r7, asr #1
    af64:	0d080007 	stceq	0, cr0, [r8, #-28]	; 0xffffffe4
    af68:	b2000001 	andlt	r0, r0, #1
    af6c:	09000007 	stmdbeq	r0, {r0, r1, r2}
    af70:	000000c7 	andeq	r0, r0, r7, asr #1
    af74:	f01a0017 			; <UNDEFINED> instruction: 0xf01a0017
    af78:	d6027005 	strle	r7, [r2], -r5
    af7c:	17000007 	strne	r0, [r0, -r7]
    af80:	000002a8 	andeq	r0, r0, r8, lsr #5
    af84:	d6027305 	strle	r7, [r2], -r5, lsl #6
    af88:	00000007 	andeq	r0, r0, r7
    af8c:	0004c317 	andeq	ip, r4, r7, lsl r3
    af90:	02740500 	rsbseq	r0, r4, #0, 10
    af94:	000007e6 	andeq	r0, r0, r6, ror #15
    af98:	d6080078 			; <UNDEFINED> instruction: 0xd6080078
    af9c:	e6000002 	str	r0, [r0], -r2
    afa0:	09000007 	stmdbeq	r0, {r0, r1, r2}
    afa4:	000000c7 	andeq	r0, r0, r7, asr #1
    afa8:	2c08001d 	stccs	0, cr0, [r8], {29}
    afac:	f6000000 			; <UNDEFINED> instruction: 0xf6000000
    afb0:	09000007 	stmdbeq	r0, {r0, r1, r2}
    afb4:	000000c7 	andeq	r0, r0, r7, asr #1
    afb8:	f01b001d 			; <UNDEFINED> instruction: 0xf01b001d
    afbc:	18025505 	stmdane	r2, {r0, r2, r8, sl, ip, lr}
    afc0:	1c000008 	stcne	0, cr0, [r0], {8}
    afc4:	00000416 	andeq	r0, r0, r6, lsl r4
    afc8:	81026c05 	tsthi	r2, r5, lsl #24
    afcc:	1c000006 	stcne	0, cr0, [r0], {6}
    afd0:	000004ee 	andeq	r0, r0, lr, ror #9
    afd4:	b2027505 	andlt	r7, r2, #20971520	; 0x1400000
    afd8:	00000007 	andeq	r0, r0, r7
    afdc:	00010d08 	andeq	r0, r1, r8, lsl #26
    afe0:	00082800 	andeq	r2, r8, r0, lsl #16
    afe4:	00c70900 	sbceq	r0, r7, r0, lsl #18
    afe8:	00180000 	andseq	r0, r8, r0
    afec:	0008331d 	andeq	r3, r8, sp, lsl r3
    aff0:	04241500 	strteq	r1, [r4], #-1280	; 0xfffffb00
    aff4:	0d000000 	stceq	0, cr0, [r0, #-0]
    aff8:	00082804 	andeq	r2, r8, r4, lsl #16
    affc:	77040d00 	strvc	r0, [r4, -r0, lsl #26]
    b000:	1d000001 	stcne	0, cr0, [r0, #-4]
    b004:	0000084a 	andeq	r0, r0, sl, asr #16
    b008:	00002515 	andeq	r2, r0, r5, lsl r5
    b00c:	040d0000 	streq	r0, [sp], #-0
    b010:	00000850 	andeq	r0, r0, r0, asr r8
    b014:	083f040d 	ldmdaeq	pc!, {r0, r2, r3, sl}	; <UNPREDICTABLE>
    b018:	ef080000 	svc	0x00080000
    b01c:	66000005 	strvs	r0, [r0], -r5
    b020:	09000008 	stmdbeq	r0, {r3}
    b024:	000000c7 	andeq	r0, r0, r7, asr #1
    b028:	8e1e0002 	cdphi	0, 1, cr0, cr14, cr2, {0}
    b02c:	05000004 	streq	r0, [r0, #-4]
    b030:	042402fd 	strteq	r0, [r4], #-765	; 0xfffffd03
    b034:	871e0000 	ldrhi	r0, [lr, -r0]
    b038:	05000004 	streq	r0, [r0, #-4]
    b03c:	042a02fe 	strteq	r0, [sl], #-766	; 0xfffffd02
    b040:	25140000 	ldrcs	r0, [r4, #-0]
    b044:	8d000000 	stchi	0, cr0, [r0, #-0]
    b048:	15000008 	strne	r0, [r0, #-8]
    b04c:	00000025 	andeq	r0, r0, r5, lsr #32
    b050:	01d11f00 	bicseq	r1, r1, r0, lsl #30
    b054:	1d060000 	stcne	0, cr0, [r6, #-0]
    b058:	00000898 	muleq	r0, r8, r8
    b05c:	087e040d 	ldmdaeq	lr!, {r0, r2, r3, sl}^
    b060:	25140000 	ldrcs	r0, [r4, #-0]
    b064:	ad000000 	stcge	0, cr0, [r0, #-0]
    b068:	15000008 	strne	r0, [r0, #-8]
    b06c:	00000585 	andeq	r0, r0, r5, lsl #11
    b070:	07811f00 	streq	r1, [r1, r0, lsl #30]
    b074:	22060000 	andcs	r0, r6, #0
    b078:	000008b8 			; <UNDEFINED> instruction: 0x000008b8
    b07c:	089e040d 	ldmeq	lr, {r0, r2, r3, sl}
    b080:	08030000 	stmdaeq	r3, {}	; <UNPREDICTABLE>
    b084:	000bca04 	andeq	ip, fp, r4, lsl #20
    b088:	0c021f00 	stceq	15, cr1, [r2], {-0}
    b08c:	0d010000 	stceq	0, cr0, [r1, #-0]
    b090:	0000010d 	andeq	r0, r0, sp, lsl #2
    b094:	00067820 	andeq	r7, r6, r0, lsr #16
    b098:	070e0100 	streq	r0, [lr, -r0, lsl #2]
    b09c:	05000001 	streq	r0, [r0, #-1]
    b0a0:	00969803 	addseq	r9, r6, r3, lsl #16
    b0a4:	0c192000 	ldceq	0, cr2, [r9], {-0}
    b0a8:	0f010000 	svceq	0x00010000
    b0ac:	00000107 	andeq	r0, r0, r7, lsl #2
    b0b0:	969c0305 	ldrls	r0, [ip], r5, lsl #6
    b0b4:	db210000 	blle	84b0bc <__bss_end__+0x84105c>
    b0b8:	0100000b 	tsteq	r0, fp
    b0bc:	00966838 	addseq	r6, r6, r8, lsr r8
    b0c0:	00001000 	andeq	r1, r0, r0
    b0c4:	139c0100 	orrsne	r0, ip, #0, 2
    b0c8:	22000009 	andcs	r0, r0, #9
    b0cc:	38010070 	stmdacc	r1, {r4, r5, r6}
    b0d0:	00000105 	andeq	r0, r0, r5, lsl #2
    b0d4:	23005001 	movwcs	r5, #1
    b0d8:	00000bd1 	ldrdeq	r0, [r0], -r1
    b0dc:	96543701 	ldrbls	r3, [r4], -r1, lsl #14
    b0e0:	00140000 	andseq	r0, r4, r0
    b0e4:	9c010000 	stcls	0, cr0, [r1], {-0}
    b0e8:	00028321 	andeq	r8, r2, r1, lsr #6
    b0ec:	50360100 	eorspl	r0, r6, r0, lsl #2
    b0f0:	04000096 	streq	r0, [r0], #-150	; 0xffffff6a
    b0f4:	01000000 	mrseq	r0, (UNDEF: 0)
    b0f8:	0009459c 	muleq	r9, ip, r5
    b0fc:	00702200 	rsbseq	r2, r0, r0, lsl #4
    b100:	01053601 	tsteq	r5, r1, lsl #12
    b104:	50010000 	andpl	r0, r1, r0
    b108:	0bba2400 	bleq	fee94110 <__bss_end__+0xfee8a0b0>
    b10c:	29010000 	stmdbcs	r1, {}	; <UNPREDICTABLE>
    b110:	00000105 	andeq	r0, r0, r5, lsl #2
    b114:	000095c4 	andeq	r9, r0, r4, asr #11
    b118:	0000008c 	andeq	r0, r0, ip, lsl #1
    b11c:	0a309c01 	beq	c32128 <__bss_end__+0xc280c8>
    b120:	98250000 	stmdals	r5!, {}	; <UNPREDICTABLE>
    b124:	01000006 	tsteq	r0, r6
    b128:	00002c29 	andeq	r2, r0, r9, lsr #24
    b12c:	00163400 	andseq	r3, r6, r0, lsl #8
    b130:	0bf82500 	bleq	ffe14538 <__bss_end__+0xffe0a4d8>
    b134:	29010000 	stmdbcs	r1, {}	; <UNPREDICTABLE>
    b138:	0000002c 	andeq	r0, r0, ip, lsr #32
    b13c:	00001687 	andeq	r1, r0, r7, lsl #13
    b140:	00020e26 	andeq	r0, r2, r6, lsr #28
    b144:	000a4000 	andeq	r4, sl, r0
    b148:	50030500 	andpl	r0, r3, r0, lsl #10
    b14c:	2700009b 			; <UNDEFINED> instruction: 0x2700009b
    b150:	2e010068 	cdpcs	0, 0, cr0, cr1, cr8, {3}
    b154:	0000002c 	andeq	r0, r0, ip, lsr #32
    b158:	000016ce 	andeq	r1, r0, lr, asr #13
    b15c:	00960028 	addseq	r0, r6, r8, lsr #32
    b160:	000a7900 	andeq	r7, sl, r0, lsl #18
    b164:	0009ad00 	andeq	sl, r9, r0, lsl #26
    b168:	50012900 	andpl	r2, r1, r0, lsl #18
    b16c:	5001f303 	andpl	pc, r1, r3, lsl #6
    b170:	96082a00 	strls	r2, [r8], -r0, lsl #20
    b174:	0bfb0000 	bleq	ffecb17c <__bss_end__+0xffec111c>
    b178:	1c280000 	stcne	0, cr0, [r8], #-0
    b17c:	06000096 			; <UNDEFINED> instruction: 0x06000096
    b180:	e500000c 	str	r0, [r0, #-12]
    b184:	29000009 	stmdbcs	r0, {r0, r3}
    b188:	03055001 	movweq	r5, #20481	; 0x5001
    b18c:	00009b9c 	muleq	r0, ip, fp
    b190:	05510129 	ldrbeq	r0, [r1, #-297]	; 0xfffffed7
    b194:	009b6003 	addseq	r6, fp, r3
    b198:	52012900 	andpl	r2, r1, #0, 18
    b19c:	9b500305 	blls	140bdb8 <__bss_end__+0x1401d58>
    b1a0:	01290000 			; <UNDEFINED> instruction: 0x01290000
    b1a4:	2a080253 	bcs	20baf8 <__bss_end__+0x201a98>
    b1a8:	96202a00 	strtls	r2, [r0], -r0, lsl #20
    b1ac:	0c110000 	ldceq	0, cr0, [r1], {-0}
    b1b0:	242a0000 	strtcs	r0, [sl], #-0
    b1b4:	fb000096 	blx	b416 <__bss_end__+0x13b6>
    b1b8:	2800000b 	stmdacs	r0, {r0, r1, r3}
    b1bc:	00009638 	andeq	r9, r0, r8, lsr r6
    b1c0:	00000c06 	andeq	r0, r0, r6, lsl #24
    b1c4:	00000a26 	andeq	r0, r0, r6, lsr #20
    b1c8:	05500129 	ldrbeq	r0, [r0, #-297]	; 0xfffffed7
    b1cc:	009bfc03 	addseq	pc, fp, r3, lsl #24
    b1d0:	51012900 	tstpl	r1, r0, lsl #18
    b1d4:	9b600305 	blls	180bdf0 <__bss_end__+0x1801d90>
    b1d8:	01290000 			; <UNDEFINED> instruction: 0x01290000
    b1dc:	50030552 	andpl	r0, r3, r2, asr r5
    b1e0:	2900009b 	stmdbcs	r0, {r0, r1, r3, r4, r7}
    b1e4:	08025301 	stmdaeq	r2, {r0, r8, r9, ip, lr}
    b1e8:	3c2a0030 	stccc	0, cr0, [sl], #-192	; 0xffffff40
    b1ec:	11000096 	swpne	r0, r6, [r0]	; <UNPREDICTABLE>
    b1f0:	0000000c 	andeq	r0, r0, ip
    b1f4:	00011408 	andeq	r1, r1, r8, lsl #8
    b1f8:	000a4000 	andeq	r4, sl, r0
    b1fc:	00c70900 	sbceq	r0, r7, r0, lsl #18
    b200:	000f0000 	andeq	r0, pc, r0
    b204:	000a300e 	andeq	r3, sl, lr
    b208:	0be72400 	bleq	ff9d4210 <__bss_end__+0xff9ca1b0>
    b20c:	25010000 	strcs	r0, [r1, #-0]
    b210:	00000105 	andeq	r0, r0, r5, lsl #2
    b214:	000095b8 			; <UNDEFINED> instruction: 0x000095b8
    b218:	0000000c 	andeq	r0, r0, ip
    b21c:	0a689c01 	beq	1a32228 <__bss_end__+0x1a281c8>
    b220:	c02a0000 	eorgt	r0, sl, r0
    b224:	d1000095 	swple	r0, r5, [r0]	; <UNPREDICTABLE>
    b228:	0000000b 	andeq	r0, r0, fp
    b22c:	000bad23 	andeq	sl, fp, r3, lsr #26
    b230:	b4240100 	strtlt	r0, [r4], #-256	; 0xffffff00
    b234:	04000095 	streq	r0, [r0], #-149	; 0xffffff6b
    b238:	01000000 	mrseq	r0, (UNDEF: 0)
    b23c:	04e0249c 	strbteq	r2, [r0], #1180	; 0x49c
    b240:	1a010000 	bne	4b248 <__bss_end__+0x411e8>
    b244:	00000105 	andeq	r0, r0, r5, lsl #2
    b248:	00009550 	andeq	r9, r0, r0, asr r5
    b24c:	00000064 	andeq	r0, r0, r4, rrx
    b250:	0b249c01 	bleq	93225c <__bss_end__+0x9281fc>
    b254:	732b0000 			; <UNDEFINED> instruction: 0x732b0000
    b258:	1a01007a 	bne	4b448 <__bss_end__+0x413e8>
    b25c:	0000002c 	andeq	r0, r0, ip, lsr #32
    b260:	00001706 	andeq	r1, r0, r6, lsl #14
    b264:	00020e26 	andeq	r0, r2, r6, lsr #28
    b268:	000b3400 	andeq	r3, fp, r0, lsl #8
    b26c:	48030500 	stmdami	r3, {r8, sl}
    b270:	2c00009b 	stccs	0, cr0, [r0], {155}	; 0x9b
    b274:	00000c25 	andeq	r0, r0, r5, lsr #24
    b278:	01051e01 	tsteq	r5, r1, lsl #28
    b27c:	17500000 	ldrbne	r0, [r0, -r0]
    b280:	80280000 	eorhi	r0, r8, r0
    b284:	1c000095 	stcne	0, cr0, [r0], {149}	; 0x95
    b288:	e300000c 	movw	r0, #12
    b28c:	2900000a 	stmdbcs	r0, {r1, r3}
    b290:	74025001 	strvc	r5, [r2], #-1
    b294:	51012900 	tstpl	r1, r0, lsl #18
    b298:	01293001 			; <UNDEFINED> instruction: 0x01293001
    b29c:	01f30852 	mvnseq	r0, r2, asr r8
    b2a0:	09072350 	stmdbeq	r7, {r4, r6, r8, r9, sp}
    b2a4:	2a001af8 	bcs	11e8c <__bss_end__+0x7e2c>
    b2a8:	0000958c 	andeq	r9, r0, ip, lsl #11
    b2ac:	00000bfb 	strdeq	r0, [r0], -fp
    b2b0:	0095a028 	addseq	sl, r5, r8, lsr #32
    b2b4:	000c0600 	andeq	r0, ip, r0, lsl #12
    b2b8:	000b1a00 	andeq	r1, fp, r0, lsl #20
    b2bc:	50012900 	andpl	r2, r1, r0, lsl #18
    b2c0:	9b880305 	blls	fe20bedc <__bss_end__+0xfe201e7c>
    b2c4:	01290000 			; <UNDEFINED> instruction: 0x01290000
    b2c8:	60030551 	andvs	r0, r3, r1, asr r5
    b2cc:	2900009b 	stmdbcs	r0, {r0, r1, r3, r4, r7}
    b2d0:	03055201 	movweq	r5, #20993	; 0x5201
    b2d4:	00009b48 	andeq	r9, r0, r8, asr #22
    b2d8:	01530129 	cmpeq	r3, r9, lsr #2
    b2dc:	a42a004b 	strtge	r0, [sl], #-75	; 0xffffffb5
    b2e0:	11000095 	swpne	r0, r5, [r0]	; <UNPREDICTABLE>
    b2e4:	0000000c 	andeq	r0, r0, ip
    b2e8:	00011408 	andeq	r1, r1, r8, lsl #8
    b2ec:	000b3400 	andeq	r3, fp, r0, lsl #8
    b2f0:	00c70900 	sbceq	r0, r7, r0, lsl #18
    b2f4:	00070000 	andeq	r0, r7, r0
    b2f8:	000b240e 	andeq	r2, fp, lr, lsl #8
    b2fc:	01562100 	cmpeq	r6, r0, lsl #2
    b300:	14010000 	strne	r0, [r1], #-0
    b304:	00009500 	andeq	r9, r0, r0, lsl #10
    b308:	00000050 	andeq	r0, r0, r0, asr r0
    b30c:	0bbc9c01 	bleq	fef32318 <__bss_end__+0xfef282b8>
    b310:	24250000 	strtcs	r0, [r5], #-0
    b314:	0100000c 	tsteq	r0, ip
    b318:	00002c14 	andeq	r2, r0, r4, lsl ip
    b31c:	00176300 	andseq	r6, r7, r0, lsl #6
    b320:	0c252c00 	stceq	12, cr2, [r5], #-0
    b324:	15010000 	strne	r0, [r1, #-0]
    b328:	00000107 	andeq	r0, r0, r7, lsl #2
    b32c:	00001784 	andeq	r1, r0, r4, lsl #15
    b330:	00020e26 	andeq	r0, r2, r6, lsr #28
    b334:	000bcc00 	andeq	ip, fp, r0, lsl #24
    b338:	30030500 	andcc	r0, r3, r0, lsl #10
    b33c:	2a00009b 	bcs	b5b0 <__bss_end__+0x1550>
    b340:	00009528 	andeq	r9, r0, r8, lsr #10
    b344:	00000bfb 	strdeq	r0, [r0], -fp
    b348:	00953c28 	addseq	r3, r5, r8, lsr #24
    b34c:	000c0600 	andeq	r0, ip, r0, lsl #12
    b350:	000bb200 	andeq	fp, fp, r0, lsl #4
    b354:	50012900 	andpl	r2, r1, r0, lsl #18
    b358:	9b6c0305 	blls	1b0bf74 <__bss_end__+0x1b01f14>
    b35c:	01290000 			; <UNDEFINED> instruction: 0x01290000
    b360:	60030551 	andvs	r0, r3, r1, asr r5
    b364:	2900009b 	stmdbcs	r0, {r0, r1, r3, r4, r7}
    b368:	03055201 	movweq	r5, #20993	; 0x5201
    b36c:	00009b30 	andeq	r9, r0, r0, lsr fp
    b370:	01530129 	cmpeq	r3, r9, lsr #2
    b374:	402a0046 	eormi	r0, sl, r6, asr #32
    b378:	11000095 	swpne	r0, r5, [r0]	; <UNPREDICTABLE>
    b37c:	0000000c 	andeq	r0, r0, ip
    b380:	00011408 	andeq	r1, r1, r8, lsl #8
    b384:	000bcc00 	andeq	ip, fp, r0, lsl #24
    b388:	00c70900 	sbceq	r0, r7, r0, lsl #18
    b38c:	00160000 	andseq	r0, r6, r0
    b390:	000bbc0e 	andeq	fp, fp, lr, lsl #24
    b394:	0c112d00 	ldceq	13, cr2, [r1], {-0}
    b398:	12010000 	andne	r0, r1, #0
    b39c:	00000105 	andeq	r0, r0, r5, lsl #2
    b3a0:	000094f4 	strdeq	r9, [r0], -r4
    b3a4:	0000000c 	andeq	r0, r0, ip
    b3a8:	2a2d9c01 	bcs	b723b4 <__bss_end__+0xb68354>
    b3ac:	0100000c 	tsteq	r0, ip
    b3b0:	00010511 	andeq	r0, r1, r1, lsl r5
    b3b4:	0094e400 	addseq	lr, r4, r0, lsl #8
    b3b8:	00001000 	andeq	r1, r0, r0
    b3bc:	2e9c0100 	fmlcse	f0, f4, f0
    b3c0:	000001e9 	andeq	r0, r0, r9, ror #3
    b3c4:	000001e9 	andeq	r0, r0, r9, ror #3
    b3c8:	182e1e06 	stmdane	lr!, {r1, r2, r9, sl, fp, ip}
    b3cc:	18000007 	stmdane	r0, {r0, r1, r2}
    b3d0:	06000007 	streq	r0, [r0], -r7
    b3d4:	029b2e29 	addseq	r2, fp, #656	; 0x290
    b3d8:	029b0000 	addseq	r0, fp, #0
    b3dc:	65060000 	strvs	r0, [r6, #-0]
    b3e0:	00049a2e 	andeq	r9, r4, lr, lsr #20
    b3e4:	00049a00 	andeq	r9, r4, r0, lsl #20
    b3e8:	00190700 	andseq	r0, r9, r0, lsl #14

Disassembly of section .debug_abbrev:

00000000 <.debug_abbrev>:
       0:	25011101 	strcs	r1, [r1, #-257]	; 0xfffffeff
       4:	030b130e 	movweq	r1, #45838	; 0xb30e
       8:	110e1b0e 	tstne	lr, lr, lsl #22
       c:	10061201 	andne	r1, r6, r1, lsl #4
      10:	02000017 	andeq	r0, r0, #23
      14:	0b0b0024 	bleq	2c00ac <__bss_end__+0x2b604c>
      18:	08030b3e 	stmdaeq	r3, {r1, r2, r3, r4, r5, r8, r9, fp}
      1c:	24030000 	strcs	r0, [r3], #-0
      20:	3e0b0b00 	vmlacc.f64	d0, d11, d0
      24:	000e030b 	andeq	r0, lr, fp, lsl #6
      28:	00160400 	andseq	r0, r6, r0, lsl #8
      2c:	0b3a0e03 	bleq	e83840 <__bss_end__+0xe797e0>
      30:	0b390b3b 	bleq	e42d24 <__bss_end__+0xe38cc4>
      34:	00001349 	andeq	r1, r0, r9, asr #6
      38:	0b000f05 	bleq	3c54 <_start-0x43ac>
      3c:	0013490b 	andseq	r4, r3, fp, lsl #18
      40:	00130600 	andseq	r0, r3, r0, lsl #12
      44:	193c0e03 	ldmdbne	ip!, {r0, r1, r9, sl, fp}
      48:	16070000 	strne	r0, [r7], -r0
      4c:	3a0e0300 	bcc	380c54 <__bss_end__+0x376bf4>
      50:	39053b0b 	stmdbcc	r5, {r0, r1, r3, r8, r9, fp, ip, sp}
      54:	0013490b 	andseq	r4, r3, fp, lsl #18
      58:	01170800 	tsteq	r7, r0, lsl #16
      5c:	0b3a0b0b 	bleq	e82c90 <__bss_end__+0xe78c30>
      60:	0b390b3b 	bleq	e42d54 <__bss_end__+0xe38cf4>
      64:	00001301 	andeq	r1, r0, r1, lsl #6
      68:	03000d09 	movweq	r0, #3337	; 0xd09
      6c:	3b0b3a0e 	blcc	2ce8ac <__bss_end__+0x2c484c>
      70:	490b390b 	stmdbmi	fp, {r0, r1, r3, r8, fp, ip, sp}
      74:	0a000013 	beq	c8 <_start-0x7f38>
      78:	13490101 	movtne	r0, #37121	; 0x9101
      7c:	00001301 	andeq	r1, r0, r1, lsl #6
      80:	4900210b 	stmdbmi	r0, {r0, r1, r3, r8, sp}
      84:	000b2f13 	andeq	r2, fp, r3, lsl pc
      88:	01130c00 	tsteq	r3, r0, lsl #24
      8c:	0b3a0b0b 	bleq	e82cc0 <__bss_end__+0xe78c60>
      90:	0b390b3b 	bleq	e42d84 <__bss_end__+0xe38d24>
      94:	00001301 	andeq	r1, r0, r1, lsl #6
      98:	03000d0d 	movweq	r0, #3341	; 0xd0d
      9c:	3b0b3a0e 	blcc	2ce8dc <__bss_end__+0x2c487c>
      a0:	490b390b 	stmdbmi	fp, {r0, r1, r3, r8, fp, ip, sp}
      a4:	000b3813 	andeq	r3, fp, r3, lsl r8
      a8:	000f0e00 	andeq	r0, pc, r0, lsl #28
      ac:	00000b0b 	andeq	r0, r0, fp, lsl #22
      b0:	4900260f 	stmdbmi	r0, {r0, r1, r2, r3, r9, sl, sp}
      b4:	10000013 	andne	r0, r0, r3, lsl r0
      b8:	0e030113 	mcreq	1, 0, r0, cr3, cr3, {0}
      bc:	0b3a0b0b 	bleq	e82cf0 <__bss_end__+0xe78c90>
      c0:	0b390b3b 	bleq	e42db4 <__bss_end__+0xe38d54>
      c4:	00001301 	andeq	r1, r0, r1, lsl #6
      c8:	03000d11 	movweq	r0, #3345	; 0xd11
      cc:	3b0b3a08 	blcc	2ce8f4 <__bss_end__+0x2c4894>
      d0:	490b390b 	stmdbmi	fp, {r0, r1, r3, r8, fp, ip, sp}
      d4:	000b3813 	andeq	r3, fp, r3, lsl r8
      d8:	01131200 	tsteq	r3, r0, lsl #4
      dc:	050b0e03 	streq	r0, [fp, #-3587]	; 0xfffff1fd
      e0:	0b3b0b3a 	bleq	ec2dd0 <__bss_end__+0xeb8d70>
      e4:	13010b39 	movwne	r0, #6969	; 0x1b39
      e8:	0d130000 	ldceq	0, cr0, [r3, #-0]
      ec:	3a0e0300 	bcc	380cf4 <__bss_end__+0x376c94>
      f0:	390b3b0b 	stmdbcc	fp, {r0, r1, r3, r8, r9, fp, ip, sp}
      f4:	3813490b 	ldmdacc	r3, {r0, r1, r3, r8, fp, lr}
      f8:	14000005 	strne	r0, [r0], #-5
      fc:	19270015 	stmdbne	r7!, {r0, r2, r4}
     100:	15150000 	ldrne	r0, [r5, #-0]
     104:	49192701 	ldmdbmi	r9, {r0, r8, r9, sl, sp}
     108:	00130113 	andseq	r0, r3, r3, lsl r1
     10c:	00051600 	andeq	r1, r5, r0, lsl #12
     110:	00001349 	andeq	r1, r0, r9, asr #6
     114:	03011317 	movweq	r1, #4887	; 0x1317
     118:	3a050b0e 	bcc	142d58 <__bss_end__+0x138cf8>
     11c:	39053b0b 	stmdbcc	r5, {r0, r1, r3, r8, r9, fp, ip, sp}
     120:	0013010b 	andseq	r0, r3, fp, lsl #2
     124:	000d1800 	andeq	r1, sp, r0, lsl #16
     128:	0b3a0e03 	bleq	e8393c <__bss_end__+0xe798dc>
     12c:	0b39053b 	bleq	e41620 <__bss_end__+0xe375c0>
     130:	0b381349 	bleq	e04e5c <__bss_end__+0xdfadfc>
     134:	0d190000 	ldceq	0, cr0, [r9, #-0]
     138:	3a0e0300 	bcc	380d40 <__bss_end__+0x376ce0>
     13c:	39053b0b 	stmdbcc	r5, {r0, r1, r3, r8, r9, fp, ip, sp}
     140:	3813490b 	ldmdacc	r3, {r0, r1, r3, r8, fp, lr}
     144:	1a000005 	bne	160 <_start-0x7ea0>
     148:	0e030113 	mcreq	1, 0, r0, cr3, cr3, {0}
     14c:	0b3a0b0b 	bleq	e82d80 <__bss_end__+0xe78d20>
     150:	0b39053b 	bleq	e41644 <__bss_end__+0xe375e4>
     154:	00001301 	andeq	r1, r0, r1, lsl #6
     158:	0b01131b 	bleq	44dcc <__bss_end__+0x3ad6c>
     15c:	3b0b3a0b 	blcc	2ce990 <__bss_end__+0x2c4930>
     160:	010b3905 	tsteq	fp, r5, lsl #18
     164:	1c000013 	stcne	0, cr0, [r0], {19}
     168:	0b0b0117 	bleq	2c05cc <__bss_end__+0x2b656c>
     16c:	053b0b3a 	ldreq	r0, [fp, #-2874]!	; 0xfffff4c6
     170:	13010b39 	movwne	r0, #6969	; 0x1b39
     174:	0d1d0000 	ldceq	0, cr0, [sp, #-0]
     178:	3a0e0300 	bcc	380d80 <__bss_end__+0x376d20>
     17c:	39053b0b 	stmdbcc	r5, {r0, r1, r3, r8, r9, fp, ip, sp}
     180:	0013490b 	andseq	r4, r3, fp, lsl #18
     184:	01151e00 	tsteq	r5, r0, lsl #28
     188:	13011927 	movwne	r1, #6439	; 0x1927
     18c:	341f0000 	ldrcc	r0, [pc], #-0	; 194 <_start-0x7e6c>
     190:	3a0e0300 	bcc	380d98 <__bss_end__+0x376d38>
     194:	39053b0b 	stmdbcc	r5, {r0, r1, r3, r8, r9, fp, ip, sp}
     198:	3f13490b 	svccc	0x0013490b
     19c:	00193c19 	andseq	r3, r9, r9, lsl ip
     1a0:	00342000 	eorseq	r2, r4, r0
     1a4:	0b3a0e03 	bleq	e839b8 <__bss_end__+0xe79958>
     1a8:	0b390b3b 	bleq	e42e9c <__bss_end__+0xe38e3c>
     1ac:	193f1349 	ldmdbne	pc!, {r0, r3, r6, r8, r9, ip}	; <UNPREDICTABLE>
     1b0:	0000193c 	andeq	r1, r0, ip, lsr r9
     1b4:	3f012e21 	svccc	0x00012e21
     1b8:	3a0e0319 	bcc	380e24 <__bss_end__+0x376dc4>
     1bc:	390b3b0b 	stmdbcc	fp, {r0, r1, r3, r8, r9, fp, ip, sp}
     1c0:	1119270b 	tstne	r9, fp, lsl #14
     1c4:	40061201 	andmi	r1, r6, r1, lsl #4
     1c8:	19429718 	stmdbne	r2, {r3, r4, r8, r9, sl, ip, pc}^
     1cc:	00001301 	andeq	r1, r0, r1, lsl #6
     1d0:	03003422 	movweq	r3, #1058	; 0x422
     1d4:	3b0b3a08 	blcc	2ce9fc <__bss_end__+0x2c499c>
     1d8:	490b390b 	stmdbmi	fp, {r0, r1, r3, r8, fp, ip, sp}
     1dc:	00061c13 	andeq	r1, r6, r3, lsl ip
     1e0:	00342300 	eorseq	r2, r4, r0, lsl #6
     1e4:	0b3a0803 	bleq	e821f8 <__bss_end__+0xe78198>
     1e8:	0b390b3b 	bleq	e42edc <__bss_end__+0xe38e7c>
     1ec:	17021349 	strne	r1, [r2, -r9, asr #6]
     1f0:	001742b7 			; <UNDEFINED> instruction: 0x001742b7
     1f4:	00342400 	eorseq	r2, r4, r0, lsl #8
     1f8:	13490e03 	movtne	r0, #40451	; 0x9e03
     1fc:	18021934 	stmdane	r2, {r2, r4, r5, r8, fp, ip}
     200:	89250000 	stmdbhi	r5!, {}	; <UNPREDICTABLE>
     204:	11010182 	smlabbne	r1, r2, r1, r0
     208:	01133101 	tsteq	r3, r1, lsl #2
     20c:	26000013 			; <UNDEFINED> instruction: 0x26000013
     210:	0001828a 	andeq	r8, r1, sl, lsl #5
     214:	42911802 	addsmi	r1, r1, #131072	; 0x20000
     218:	27000018 	smladcs	r0, r8, r0, r0
     21c:	00018289 	andeq	r8, r1, r9, lsl #5
     220:	13310111 	teqne	r1, #1073741828	; 0x40000004
     224:	2e280000 	cdpcs	0, 2, cr0, cr8, cr0, {0}
     228:	3c193f00 	ldccc	15, cr3, [r9], {-0}
     22c:	030e6e19 	movweq	r6, #60953	; 0xee19
     230:	3b0b3a0e 	blcc	2cea70 <__bss_end__+0x2c4a10>
     234:	000b390b 	andeq	r3, fp, fp, lsl #18
     238:	11010000 	mrsne	r0, (UNDEF: 1)
     23c:	130e2501 	movwne	r2, #58625	; 0xe501
     240:	1b0e030b 	blne	380e74 <__bss_end__+0x376e14>
     244:	1201110e 	andne	r1, r1, #-2147483645	; 0x80000003
     248:	00171006 	andseq	r1, r7, r6
     24c:	00240200 	eoreq	r0, r4, r0, lsl #4
     250:	0b3e0b0b 	bleq	f82e84 <__bss_end__+0xf78e24>
     254:	00000803 	andeq	r0, r0, r3, lsl #16
     258:	0b002403 	bleq	926c <uart_init>
     25c:	030b3e0b 	movweq	r3, #48651	; 0xbe0b
     260:	0400000e 	streq	r0, [r0], #-14
     264:	0e030016 	mcreq	0, 0, r0, cr3, cr6, {0}
     268:	0b3b0b3a 	bleq	ec2f58 <__bss_end__+0xeb8ef8>
     26c:	13490b39 	movtne	r0, #39737	; 0x9b39
     270:	0f050000 	svceq	0x00050000
     274:	490b0b00 	stmdbmi	fp, {r8, r9, fp}
     278:	06000013 			; <UNDEFINED> instruction: 0x06000013
     27c:	0e030013 	mcreq	0, 0, r0, cr3, cr3, {0}
     280:	0000193c 	andeq	r1, r0, ip, lsr r9
     284:	03001607 	movweq	r1, #1543	; 0x607
     288:	3b0b3a0e 	blcc	2ceac8 <__bss_end__+0x2c4a68>
     28c:	490b3905 	stmdbmi	fp, {r0, r2, r8, fp, ip, sp}
     290:	08000013 	stmdaeq	r0, {r0, r1, r4}
     294:	0b0b0117 	bleq	2c06f8 <__bss_end__+0x2b6698>
     298:	0b3b0b3a 	bleq	ec2f88 <__bss_end__+0xeb8f28>
     29c:	13010b39 	movwne	r0, #6969	; 0x1b39
     2a0:	0d090000 	stceq	0, cr0, [r9, #-0]
     2a4:	3a0e0300 	bcc	380eac <__bss_end__+0x376e4c>
     2a8:	390b3b0b 	stmdbcc	fp, {r0, r1, r3, r8, r9, fp, ip, sp}
     2ac:	0013490b 	andseq	r4, r3, fp, lsl #18
     2b0:	01010a00 	tsteq	r1, r0, lsl #20
     2b4:	13011349 	movwne	r1, #4937	; 0x1349
     2b8:	210b0000 	mrscs	r0, (UNDEF: 11)
     2bc:	2f134900 	svccs	0x00134900
     2c0:	0c00000b 	stceq	0, cr0, [r0], {11}
     2c4:	0b0b0113 	bleq	2c0718 <__bss_end__+0x2b66b8>
     2c8:	0b3b0b3a 	bleq	ec2fb8 <__bss_end__+0xeb8f58>
     2cc:	13010b39 	movwne	r0, #6969	; 0x1b39
     2d0:	0d0d0000 	stceq	0, cr0, [sp, #-0]
     2d4:	3a0e0300 	bcc	380edc <__bss_end__+0x376e7c>
     2d8:	390b3b0b 	stmdbcc	fp, {r0, r1, r3, r8, r9, fp, ip, sp}
     2dc:	3813490b 	ldmdacc	r3, {r0, r1, r3, r8, fp, lr}
     2e0:	0e00000b 	cdpeq	0, 0, cr0, cr0, cr11, {0}
     2e4:	0b0b000f 	bleq	2c0328 <__bss_end__+0x2b62c8>
     2e8:	260f0000 	strcs	r0, [pc], -r0
     2ec:	00134900 	andseq	r4, r3, r0, lsl #18
     2f0:	01131000 	tsteq	r3, r0
     2f4:	0b0b0e03 	bleq	2c3b08 <__bss_end__+0x2b9aa8>
     2f8:	0b3b0b3a 	bleq	ec2fe8 <__bss_end__+0xeb8f88>
     2fc:	13010b39 	movwne	r0, #6969	; 0x1b39
     300:	0d110000 	ldceq	0, cr0, [r1, #-0]
     304:	3a080300 	bcc	200f0c <__bss_end__+0x1f6eac>
     308:	390b3b0b 	stmdbcc	fp, {r0, r1, r3, r8, r9, fp, ip, sp}
     30c:	3813490b 	ldmdacc	r3, {r0, r1, r3, r8, fp, lr}
     310:	1200000b 	andne	r0, r0, #11
     314:	0e030113 	mcreq	1, 0, r0, cr3, cr3, {0}
     318:	0b3a050b 	bleq	e8174c <__bss_end__+0xe776ec>
     31c:	0b390b3b 	bleq	e43010 <__bss_end__+0xe38fb0>
     320:	00001301 	andeq	r1, r0, r1, lsl #6
     324:	03000d13 	movweq	r0, #3347	; 0xd13
     328:	3b0b3a0e 	blcc	2ceb68 <__bss_end__+0x2c4b08>
     32c:	490b390b 	stmdbmi	fp, {r0, r1, r3, r8, fp, ip, sp}
     330:	00053813 	andeq	r3, r5, r3, lsl r8
     334:	00151400 	andseq	r1, r5, r0, lsl #8
     338:	00001927 	andeq	r1, r0, r7, lsr #18
     33c:	27011515 	smladcs	r1, r5, r5, r1
     340:	01134919 	tsteq	r3, r9, lsl r9
     344:	16000013 			; <UNDEFINED> instruction: 0x16000013
     348:	13490005 	movtne	r0, #36869	; 0x9005
     34c:	13170000 	tstne	r7, #0
     350:	0b0e0301 	bleq	380f5c <__bss_end__+0x376efc>
     354:	3b0b3a05 	blcc	2ceb70 <__bss_end__+0x2c4b10>
     358:	010b3905 	tsteq	fp, r5, lsl #18
     35c:	18000013 	stmdane	r0, {r0, r1, r4}
     360:	0e03000d 	cdpeq	0, 0, cr0, cr3, cr13, {0}
     364:	053b0b3a 	ldreq	r0, [fp, #-2874]!	; 0xfffff4c6
     368:	13490b39 	movtne	r0, #39737	; 0x9b39
     36c:	00000b38 	andeq	r0, r0, r8, lsr fp
     370:	03000d19 	movweq	r0, #3353	; 0xd19
     374:	3b0b3a0e 	blcc	2cebb4 <__bss_end__+0x2c4b54>
     378:	490b3905 	stmdbmi	fp, {r0, r2, r8, fp, ip, sp}
     37c:	00053813 	andeq	r3, r5, r3, lsl r8
     380:	01131a00 	tsteq	r3, r0, lsl #20
     384:	0b0b0e03 	bleq	2c3b98 <__bss_end__+0x2b9b38>
     388:	053b0b3a 	ldreq	r0, [fp, #-2874]!	; 0xfffff4c6
     38c:	13010b39 	movwne	r0, #6969	; 0x1b39
     390:	131b0000 	tstne	fp, #0
     394:	3a0b0b01 	bcc	2c2fa0 <__bss_end__+0x2b8f40>
     398:	39053b0b 	stmdbcc	r5, {r0, r1, r3, r8, r9, fp, ip, sp}
     39c:	0013010b 	andseq	r0, r3, fp, lsl #2
     3a0:	01171c00 	tsteq	r7, r0, lsl #24
     3a4:	0b3a0b0b 	bleq	e82fd8 <__bss_end__+0xe78f78>
     3a8:	0b39053b 	bleq	e4189c <__bss_end__+0xe3783c>
     3ac:	00001301 	andeq	r1, r0, r1, lsl #6
     3b0:	03000d1d 	movweq	r0, #3357	; 0xd1d
     3b4:	3b0b3a0e 	blcc	2cebf4 <__bss_end__+0x2c4b94>
     3b8:	490b3905 	stmdbmi	fp, {r0, r2, r8, fp, ip, sp}
     3bc:	1e000013 	mcrne	0, 0, r0, cr0, cr3, {0}
     3c0:	19270115 	stmdbne	r7!, {r0, r2, r4, r8}
     3c4:	00001301 	andeq	r1, r0, r1, lsl #6
     3c8:	0300341f 	movweq	r3, #1055	; 0x41f
     3cc:	3b0b3a0e 	blcc	2cec0c <__bss_end__+0x2c4bac>
     3d0:	490b3905 	stmdbmi	fp, {r0, r2, r8, fp, ip, sp}
     3d4:	3c193f13 	ldccc	15, cr3, [r9], {19}
     3d8:	20000019 	andcs	r0, r0, r9, lsl r0
     3dc:	0e030034 	mcreq	0, 0, r0, cr3, cr4, {1}
     3e0:	0b3b0b3a 	bleq	ec30d0 <__bss_end__+0xeb9070>
     3e4:	13490b39 	movtne	r0, #39737	; 0x9b39
     3e8:	193c193f 	ldmdbne	ip!, {r0, r1, r2, r3, r4, r5, r8, fp, ip}
     3ec:	04210000 	strteq	r0, [r1], #-0
     3f0:	0b0b3e01 	bleq	2cfbfc <__bss_end__+0x2c5b9c>
     3f4:	3a13490b 	bcc	4d2828 <__bss_end__+0x4c87c8>
     3f8:	390b3b0b 	stmdbcc	fp, {r0, r1, r3, r8, r9, fp, ip, sp}
     3fc:	0013010b 	andseq	r0, r3, fp, lsl #2
     400:	00282200 	eoreq	r2, r8, r0, lsl #4
     404:	0b1c0e03 	bleq	703c18 <__bss_end__+0x6f9bb8>
     408:	28230000 	stmdacs	r3!, {}	; <UNPREDICTABLE>
     40c:	1c0e0300 	stcne	3, cr0, [lr], {-0}
     410:	24000005 	strcs	r0, [r0], #-5
     414:	0e030034 	mcreq	0, 0, r0, cr3, cr4, {1}
     418:	0b3b0b3a 	bleq	ec3108 <__bss_end__+0xeb90a8>
     41c:	13490b39 	movtne	r0, #39737	; 0x9b39
     420:	00001802 	andeq	r1, r0, r2, lsl #16
     424:	3f012e25 	svccc	0x00012e25
     428:	3a0e0319 	bcc	381094 <__bss_end__+0x377034>
     42c:	390b3b0b 	stmdbcc	fp, {r0, r1, r3, r8, r9, fp, ip, sp}
     430:	4919270b 	ldmdbmi	r9, {r0, r1, r3, r8, r9, sl, sp}
     434:	12011113 	andne	r1, r1, #-1073741820	; 0xc0000004
     438:	97184006 	ldrls	r4, [r8, -r6]
     43c:	13011942 	movwne	r1, #6466	; 0x1942
     440:	34260000 	strtcc	r0, [r6], #-0
     444:	3a0e0300 	bcc	38104c <__bss_end__+0x376fec>
     448:	390b3b0b 	stmdbcc	fp, {r0, r1, r3, r8, r9, fp, ip, sp}
     44c:	0213490b 	andseq	r4, r3, #180224	; 0x2c000
     450:	1742b717 	smlaldne	fp, r2, r7, r7
     454:	0b270000 	bleq	9c045c <__bss_end__+0x9b63fc>
     458:	01175501 	tsteq	r7, r1, lsl #10
     45c:	28000013 	stmdacs	r0, {r0, r1, r4}
     460:	00018289 	andeq	r8, r1, r9, lsl #5
     464:	13310111 	teqne	r1, #1073741828	; 0x40000004
     468:	89290000 	stmdbhi	r9!, {}	; <UNPREDICTABLE>
     46c:	11010182 	smlabbne	r1, r2, r1, r0
     470:	01133101 	tsteq	r3, r1, lsl #2
     474:	2a000013 	bcs	4c8 <_start-0x7b38>
     478:	0001828a 	andeq	r8, r1, sl, lsl #5
     47c:	42911802 	addsmi	r1, r1, #131072	; 0x20000
     480:	2b000018 	blcs	4e8 <_start-0x7b18>
     484:	01018289 	smlabbeq	r1, r9, r2, r8
     488:	13310111 	teqne	r1, #1073741828	; 0x40000004
     48c:	052c0000 	streq	r0, [ip, #-0]!
     490:	3a080300 	bcc	201098 <__bss_end__+0x1f7038>
     494:	390b3b0b 	stmdbcc	fp, {r0, r1, r3, r8, r9, fp, ip, sp}
     498:	0213490b 	andseq	r4, r3, #180224	; 0x2c000
     49c:	1742b717 	smlaldne	fp, r2, r7, r7
     4a0:	342d0000 	strtcc	r0, [sp], #-0
     4a4:	3a080300 	bcc	2010ac <__bss_end__+0x1f704c>
     4a8:	390b3b0b 	stmdbcc	fp, {r0, r1, r3, r8, r9, fp, ip, sp}
     4ac:	0213490b 	andseq	r4, r3, #180224	; 0x2c000
     4b0:	1742b717 	smlaldne	fp, r2, r7, r7
     4b4:	052e0000 	streq	r0, [lr, #-0]!
     4b8:	3a0e0300 	bcc	3810c0 <__bss_end__+0x377060>
     4bc:	390b3b0b 	stmdbcc	fp, {r0, r1, r3, r8, r9, fp, ip, sp}
     4c0:	0213490b 	andseq	r4, r3, #180224	; 0x2c000
     4c4:	1742b717 	smlaldne	fp, r2, r7, r7
     4c8:	342f0000 	strtcc	r0, [pc], #-0	; 4d0 <_start-0x7b30>
     4cc:	490e0300 	stmdbmi	lr, {r8, r9}
     4d0:	02193413 	andseq	r3, r9, #318767104	; 0x13000000
     4d4:	30000018 	andcc	r0, r0, r8, lsl r0
     4d8:	193f012e 	ldmdbne	pc!, {r1, r2, r3, r5, r8}	; <UNPREDICTABLE>
     4dc:	0b3a0e03 	bleq	e83cf0 <__bss_end__+0xe79c90>
     4e0:	0b390b3b 	bleq	e431d4 <__bss_end__+0xe39174>
     4e4:	01111927 	tsteq	r1, r7, lsr #18
     4e8:	18400612 	stmdane	r0, {r1, r4, r9, sl}^
     4ec:	01194297 			; <UNDEFINED> instruction: 0x01194297
     4f0:	31000013 	tstcc	r0, r3, lsl r0
     4f4:	0e03012e 	adfeqsp	f0, f3, #0.5
     4f8:	0b3b0b3a 	bleq	ec31e8 <__bss_end__+0xeb9188>
     4fc:	19270b39 	stmdbne	r7!, {r0, r3, r4, r5, r8, r9, fp}
     500:	01111349 	tsteq	r1, r9, asr #6
     504:	18400612 	stmdane	r0, {r1, r4, r9, sl}^
     508:	01194297 			; <UNDEFINED> instruction: 0x01194297
     50c:	32000013 	andcc	r0, r0, #19
     510:	0e03012e 	adfeqsp	f0, f3, #0.5
     514:	0b3b0b3a 	bleq	ec3204 <__bss_end__+0xeb91a4>
     518:	19270b39 	stmdbne	r7!, {r0, r3, r4, r5, r8, r9, fp}
     51c:	06120111 			; <UNDEFINED> instruction: 0x06120111
     520:	42971840 	addsmi	r1, r7, #64, 16	; 0x400000
     524:	00130119 	andseq	r0, r3, r9, lsl r1
     528:	010b3300 	mrseq	r3, (UNDEF: 59)
     52c:	06120111 			; <UNDEFINED> instruction: 0x06120111
     530:	1d340000 	ldcne	0, cr0, [r4, #-0]
     534:	52133101 	andspl	r3, r3, #1073741824	; 0x40000000
     538:	0b42b801 	bleq	10ae544 <__bss_end__+0x10a44e4>
     53c:	0b581755 	bleq	1606298 <__bss_end__+0x15fc238>
     540:	0b570b59 	bleq	15c32ac <__bss_end__+0x15b924c>
     544:	00001301 	andeq	r1, r0, r1, lsl #6
     548:	31000535 	tstcc	r0, r5, lsr r5
     54c:	b7170213 			; <UNDEFINED> instruction: 0xb7170213
     550:	00001742 	andeq	r1, r0, r2, asr #14
     554:	55010b36 	strpl	r0, [r1, #-2870]	; 0xfffff4ca
     558:	37000017 	smladcc	r0, r7, r0, r0
     55c:	13310034 	teqne	r1, #52	; 0x34
     560:	42b71702 	adcsmi	r1, r7, #524288	; 0x80000
     564:	38000017 	stmdacc	r0, {r0, r1, r2, r4}
     568:	0e03012e 	adfeqsp	f0, f3, #0.5
     56c:	0b3b0b3a 	bleq	ec325c <__bss_end__+0xeb91fc>
     570:	19270b39 	stmdbne	r7!, {r0, r3, r4, r5, r8, r9, fp}
     574:	13010b20 	movwne	r0, #6944	; 0x1b20
     578:	05390000 	ldreq	r0, [r9, #-0]!
     57c:	3a080300 	bcc	201184 <__bss_end__+0x1f7124>
     580:	390b3b0b 	stmdbcc	fp, {r0, r1, r3, r8, r9, fp, ip, sp}
     584:	0013490b 	andseq	r4, r3, fp, lsl #18
     588:	00343a00 	eorseq	r3, r4, r0, lsl #20
     58c:	0b3a0803 	bleq	e825a0 <__bss_end__+0xe78540>
     590:	0b390b3b 	bleq	e43284 <__bss_end__+0xe39224>
     594:	00001349 	andeq	r1, r0, r9, asr #6
     598:	3f002e3b 	svccc	0x00002e3b
     59c:	6e193c19 	mrcvs	12, 0, r3, cr9, cr9, {0}
     5a0:	3a0e030e 	bcc	3811e0 <__bss_end__+0x377180>
     5a4:	390b3b0b 	stmdbcc	fp, {r0, r1, r3, r8, r9, fp, ip, sp}
     5a8:	0000000b 	andeq	r0, r0, fp
     5ac:	25011101 	strcs	r1, [r1, #-257]	; 0xfffffeff
     5b0:	030b130e 	movweq	r1, #45838	; 0xb30e
     5b4:	110e1b0e 	tstne	lr, lr, lsl #22
     5b8:	10061201 	andne	r1, r6, r1, lsl #4
     5bc:	02000017 	andeq	r0, r0, #23
     5c0:	0b0b0024 	bleq	2c0658 <__bss_end__+0x2b65f8>
     5c4:	08030b3e 	stmdaeq	r3, {r1, r2, r3, r4, r5, r8, r9, fp}
     5c8:	24030000 	strcs	r0, [r3], #-0
     5cc:	3e0b0b00 	vmlacc.f64	d0, d11, d0
     5d0:	000e030b 	andeq	r0, lr, fp, lsl #6
     5d4:	00160400 	andseq	r0, r6, r0, lsl #8
     5d8:	0b3a0e03 	bleq	e83dec <__bss_end__+0xe79d8c>
     5dc:	0b390b3b 	bleq	e432d0 <__bss_end__+0xe39270>
     5e0:	00001349 	andeq	r1, r0, r9, asr #6
     5e4:	0b000f05 	bleq	4200 <_start-0x3e00>
     5e8:	0013490b 	andseq	r4, r3, fp, lsl #18
     5ec:	00130600 	andseq	r0, r3, r0, lsl #12
     5f0:	193c0e03 	ldmdbne	ip!, {r0, r1, r9, sl, fp}
     5f4:	16070000 	strne	r0, [r7], -r0
     5f8:	3a0e0300 	bcc	381200 <__bss_end__+0x3771a0>
     5fc:	39053b0b 	stmdbcc	r5, {r0, r1, r3, r8, r9, fp, ip, sp}
     600:	0013490b 	andseq	r4, r3, fp, lsl #18
     604:	01170800 	tsteq	r7, r0, lsl #16
     608:	0b3a0b0b 	bleq	e8323c <__bss_end__+0xe791dc>
     60c:	0b390b3b 	bleq	e43300 <__bss_end__+0xe392a0>
     610:	00001301 	andeq	r1, r0, r1, lsl #6
     614:	03000d09 	movweq	r0, #3337	; 0xd09
     618:	3b0b3a0e 	blcc	2cee58 <__bss_end__+0x2c4df8>
     61c:	490b390b 	stmdbmi	fp, {r0, r1, r3, r8, fp, ip, sp}
     620:	0a000013 	beq	674 <_start-0x798c>
     624:	13490101 	movtne	r0, #37121	; 0x9101
     628:	00001301 	andeq	r1, r0, r1, lsl #6
     62c:	4900210b 	stmdbmi	r0, {r0, r1, r3, r8, sp}
     630:	000b2f13 	andeq	r2, fp, r3, lsl pc
     634:	01130c00 	tsteq	r3, r0, lsl #24
     638:	0b3a0b0b 	bleq	e8326c <__bss_end__+0xe7920c>
     63c:	0b390b3b 	bleq	e43330 <__bss_end__+0xe392d0>
     640:	00001301 	andeq	r1, r0, r1, lsl #6
     644:	03000d0d 	movweq	r0, #3341	; 0xd0d
     648:	3b0b3a0e 	blcc	2cee88 <__bss_end__+0x2c4e28>
     64c:	490b390b 	stmdbmi	fp, {r0, r1, r3, r8, fp, ip, sp}
     650:	000b3813 	andeq	r3, fp, r3, lsl r8
     654:	000f0e00 	andeq	r0, pc, r0, lsl #28
     658:	00000b0b 	andeq	r0, r0, fp, lsl #22
     65c:	4900260f 	stmdbmi	r0, {r0, r1, r2, r3, r9, sl, sp}
     660:	10000013 	andne	r0, r0, r3, lsl r0
     664:	0e030113 	mcreq	1, 0, r0, cr3, cr3, {0}
     668:	0b3a0b0b 	bleq	e8329c <__bss_end__+0xe7923c>
     66c:	0b390b3b 	bleq	e43360 <__bss_end__+0xe39300>
     670:	00001301 	andeq	r1, r0, r1, lsl #6
     674:	03000d11 	movweq	r0, #3345	; 0xd11
     678:	3b0b3a08 	blcc	2ceea0 <__bss_end__+0x2c4e40>
     67c:	490b390b 	stmdbmi	fp, {r0, r1, r3, r8, fp, ip, sp}
     680:	000b3813 	andeq	r3, fp, r3, lsl r8
     684:	01131200 	tsteq	r3, r0, lsl #4
     688:	050b0e03 	streq	r0, [fp, #-3587]	; 0xfffff1fd
     68c:	0b3b0b3a 	bleq	ec337c <__bss_end__+0xeb931c>
     690:	13010b39 	movwne	r0, #6969	; 0x1b39
     694:	0d130000 	ldceq	0, cr0, [r3, #-0]
     698:	3a0e0300 	bcc	3812a0 <__bss_end__+0x377240>
     69c:	390b3b0b 	stmdbcc	fp, {r0, r1, r3, r8, r9, fp, ip, sp}
     6a0:	3813490b 	ldmdacc	r3, {r0, r1, r3, r8, fp, lr}
     6a4:	14000005 	strne	r0, [r0], #-5
     6a8:	19270015 	stmdbne	r7!, {r0, r2, r4}
     6ac:	15150000 	ldrne	r0, [r5, #-0]
     6b0:	49192701 	ldmdbmi	r9, {r0, r8, r9, sl, sp}
     6b4:	00130113 	andseq	r0, r3, r3, lsl r1
     6b8:	00051600 	andeq	r1, r5, r0, lsl #12
     6bc:	00001349 	andeq	r1, r0, r9, asr #6
     6c0:	03011317 	movweq	r1, #4887	; 0x1317
     6c4:	3a050b0e 	bcc	143304 <__bss_end__+0x1392a4>
     6c8:	39053b0b 	stmdbcc	r5, {r0, r1, r3, r8, r9, fp, ip, sp}
     6cc:	0013010b 	andseq	r0, r3, fp, lsl #2
     6d0:	000d1800 	andeq	r1, sp, r0, lsl #16
     6d4:	0b3a0e03 	bleq	e83ee8 <__bss_end__+0xe79e88>
     6d8:	0b39053b 	bleq	e41bcc <__bss_end__+0xe37b6c>
     6dc:	0b381349 	bleq	e05408 <__bss_end__+0xdfb3a8>
     6e0:	0d190000 	ldceq	0, cr0, [r9, #-0]
     6e4:	3a0e0300 	bcc	3812ec <__bss_end__+0x37728c>
     6e8:	39053b0b 	stmdbcc	r5, {r0, r1, r3, r8, r9, fp, ip, sp}
     6ec:	3813490b 	ldmdacc	r3, {r0, r1, r3, r8, fp, lr}
     6f0:	1a000005 	bne	70c <_start-0x78f4>
     6f4:	0e030113 	mcreq	1, 0, r0, cr3, cr3, {0}
     6f8:	0b3a0b0b 	bleq	e8332c <__bss_end__+0xe792cc>
     6fc:	0b39053b 	bleq	e41bf0 <__bss_end__+0xe37b90>
     700:	00001301 	andeq	r1, r0, r1, lsl #6
     704:	0b01131b 	bleq	45378 <__bss_end__+0x3b318>
     708:	3b0b3a0b 	blcc	2cef3c <__bss_end__+0x2c4edc>
     70c:	010b3905 	tsteq	fp, r5, lsl #18
     710:	1c000013 	stcne	0, cr0, [r0], {19}
     714:	0b0b0117 	bleq	2c0b78 <__bss_end__+0x2b6b18>
     718:	053b0b3a 	ldreq	r0, [fp, #-2874]!	; 0xfffff4c6
     71c:	13010b39 	movwne	r0, #6969	; 0x1b39
     720:	0d1d0000 	ldceq	0, cr0, [sp, #-0]
     724:	3a0e0300 	bcc	38132c <__bss_end__+0x3772cc>
     728:	39053b0b 	stmdbcc	r5, {r0, r1, r3, r8, r9, fp, ip, sp}
     72c:	0013490b 	andseq	r4, r3, fp, lsl #18
     730:	01151e00 	tsteq	r5, r0, lsl #28
     734:	13011927 	movwne	r1, #6439	; 0x1927
     738:	341f0000 	ldrcc	r0, [pc], #-0	; 740 <_start-0x78c0>
     73c:	3a0e0300 	bcc	381344 <__bss_end__+0x3772e4>
     740:	39053b0b 	stmdbcc	r5, {r0, r1, r3, r8, r9, fp, ip, sp}
     744:	3f13490b 	svccc	0x0013490b
     748:	00193c19 	andseq	r3, r9, r9, lsl ip
     74c:	00342000 	eorseq	r2, r4, r0
     750:	0b3a0e03 	bleq	e83f64 <__bss_end__+0xe79f04>
     754:	0b390b3b 	bleq	e43448 <__bss_end__+0xe393e8>
     758:	193f1349 	ldmdbne	pc!, {r0, r3, r6, r8, r9, ip}	; <UNPREDICTABLE>
     75c:	0000193c 	andeq	r1, r0, ip, lsr r9
     760:	3f012e21 	svccc	0x00012e21
     764:	3a0e0319 	bcc	3813d0 <__bss_end__+0x377370>
     768:	390b3b0b 	stmdbcc	fp, {r0, r1, r3, r8, r9, fp, ip, sp}
     76c:	4919270b 	ldmdbmi	r9, {r0, r1, r3, r8, r9, sl, sp}
     770:	12011113 	andne	r1, r1, #-1073741820	; 0xc0000004
     774:	97184006 	ldrls	r4, [r8, -r6]
     778:	13011942 	movwne	r1, #6466	; 0x1942
     77c:	05220000 	streq	r0, [r2, #-0]!
     780:	3a0e0300 	bcc	381388 <__bss_end__+0x377328>
     784:	390b3b0b 	stmdbcc	fp, {r0, r1, r3, r8, r9, fp, ip, sp}
     788:	0213490b 	andseq	r4, r3, #180224	; 0x2c000
     78c:	1742b717 	smlaldne	fp, r2, r7, r7
     790:	05230000 	streq	r0, [r3, #-0]!
     794:	3a080300 	bcc	20139c <__bss_end__+0x1f733c>
     798:	390b3b0b 	stmdbcc	fp, {r0, r1, r3, r8, r9, fp, ip, sp}
     79c:	0213490b 	andseq	r4, r3, #180224	; 0x2c000
     7a0:	1742b717 	smlaldne	fp, r2, r7, r7
     7a4:	34240000 	strtcc	r0, [r4], #-0
     7a8:	3a0e0300 	bcc	3813b0 <__bss_end__+0x377350>
     7ac:	390b3b0b 	stmdbcc	fp, {r0, r1, r3, r8, r9, fp, ip, sp}
     7b0:	0213490b 	andseq	r4, r3, #180224	; 0x2c000
     7b4:	1742b717 	smlaldne	fp, r2, r7, r7
     7b8:	34250000 	strtcc	r0, [r5], #-0
     7bc:	3a080300 	bcc	2013c4 <__bss_end__+0x1f7364>
     7c0:	390b3b0b 	stmdbcc	fp, {r0, r1, r3, r8, r9, fp, ip, sp}
     7c4:	0213490b 	andseq	r4, r3, #180224	; 0x2c000
     7c8:	1742b717 	smlaldne	fp, r2, r7, r7
     7cc:	26260000 	strtcs	r0, [r6], -r0
     7d0:	00000000 	andeq	r0, r0, r0
     7d4:	25011101 	strcs	r1, [r1, #-257]	; 0xfffffeff
     7d8:	030b130e 	movweq	r1, #45838	; 0xb30e
     7dc:	110e1b0e 	tstne	lr, lr, lsl #22
     7e0:	10061201 	andne	r1, r6, r1, lsl #4
     7e4:	02000017 	andeq	r0, r0, #23
     7e8:	0b0b0024 	bleq	2c0880 <__bss_end__+0x2b6820>
     7ec:	08030b3e 	stmdaeq	r3, {r1, r2, r3, r4, r5, r8, r9, fp}
     7f0:	16030000 	strne	r0, [r3], -r0
     7f4:	3a0e0300 	bcc	3813fc <__bss_end__+0x37739c>
     7f8:	390b3b0b 	stmdbcc	fp, {r0, r1, r3, r8, r9, fp, ip, sp}
     7fc:	0013490b 	andseq	r4, r3, fp, lsl #18
     800:	00240400 	eoreq	r0, r4, r0, lsl #8
     804:	0b3e0b0b 	bleq	f83438 <__bss_end__+0xf793d8>
     808:	00000e03 	andeq	r0, r0, r3, lsl #28
     80c:	0b000f05 	bleq	4428 <_start-0x3bd8>
     810:	0013490b 	andseq	r4, r3, fp, lsl #18
     814:	00130600 	andseq	r0, r3, r0, lsl #12
     818:	193c0e03 	ldmdbne	ip!, {r0, r1, r9, sl, fp}
     81c:	16070000 	strne	r0, [r7], -r0
     820:	3a0e0300 	bcc	381428 <__bss_end__+0x3773c8>
     824:	39053b0b 	stmdbcc	r5, {r0, r1, r3, r8, r9, fp, ip, sp}
     828:	0013490b 	andseq	r4, r3, fp, lsl #18
     82c:	01170800 	tsteq	r7, r0, lsl #16
     830:	0b3a0b0b 	bleq	e83464 <__bss_end__+0xe79404>
     834:	0b390b3b 	bleq	e43528 <__bss_end__+0xe394c8>
     838:	00001301 	andeq	r1, r0, r1, lsl #6
     83c:	03000d09 	movweq	r0, #3337	; 0xd09
     840:	3b0b3a0e 	blcc	2cf080 <__bss_end__+0x2c5020>
     844:	490b390b 	stmdbmi	fp, {r0, r1, r3, r8, fp, ip, sp}
     848:	0a000013 	beq	89c <_start-0x7764>
     84c:	13490101 	movtne	r0, #37121	; 0x9101
     850:	00001301 	andeq	r1, r0, r1, lsl #6
     854:	4900210b 	stmdbmi	r0, {r0, r1, r3, r8, sp}
     858:	000b2f13 	andeq	r2, fp, r3, lsl pc
     85c:	01130c00 	tsteq	r3, r0, lsl #24
     860:	0b3a0b0b 	bleq	e83494 <__bss_end__+0xe79434>
     864:	0b390b3b 	bleq	e43558 <__bss_end__+0xe394f8>
     868:	00001301 	andeq	r1, r0, r1, lsl #6
     86c:	03000d0d 	movweq	r0, #3341	; 0xd0d
     870:	3b0b3a0e 	blcc	2cf0b0 <__bss_end__+0x2c5050>
     874:	490b390b 	stmdbmi	fp, {r0, r1, r3, r8, fp, ip, sp}
     878:	000b3813 	andeq	r3, fp, r3, lsl r8
     87c:	000f0e00 	andeq	r0, pc, r0, lsl #28
     880:	00000b0b 	andeq	r0, r0, fp, lsl #22
     884:	4900260f 	stmdbmi	r0, {r0, r1, r2, r3, r9, sl, sp}
     888:	10000013 	andne	r0, r0, r3, lsl r0
     88c:	0e030113 	mcreq	1, 0, r0, cr3, cr3, {0}
     890:	0b3a0b0b 	bleq	e834c4 <__bss_end__+0xe79464>
     894:	0b390b3b 	bleq	e43588 <__bss_end__+0xe39528>
     898:	00001301 	andeq	r1, r0, r1, lsl #6
     89c:	03000d11 	movweq	r0, #3345	; 0xd11
     8a0:	3b0b3a08 	blcc	2cf0c8 <__bss_end__+0x2c5068>
     8a4:	490b390b 	stmdbmi	fp, {r0, r1, r3, r8, fp, ip, sp}
     8a8:	000b3813 	andeq	r3, fp, r3, lsl r8
     8ac:	01131200 	tsteq	r3, r0, lsl #4
     8b0:	050b0e03 	streq	r0, [fp, #-3587]	; 0xfffff1fd
     8b4:	0b3b0b3a 	bleq	ec35a4 <__bss_end__+0xeb9544>
     8b8:	13010b39 	movwne	r0, #6969	; 0x1b39
     8bc:	0d130000 	ldceq	0, cr0, [r3, #-0]
     8c0:	3a0e0300 	bcc	3814c8 <__bss_end__+0x377468>
     8c4:	390b3b0b 	stmdbcc	fp, {r0, r1, r3, r8, r9, fp, ip, sp}
     8c8:	3813490b 	ldmdacc	r3, {r0, r1, r3, r8, fp, lr}
     8cc:	14000005 	strne	r0, [r0], #-5
     8d0:	19270015 	stmdbne	r7!, {r0, r2, r4}
     8d4:	15150000 	ldrne	r0, [r5, #-0]
     8d8:	49192701 	ldmdbmi	r9, {r0, r8, r9, sl, sp}
     8dc:	00130113 	andseq	r0, r3, r3, lsl r1
     8e0:	00051600 	andeq	r1, r5, r0, lsl #12
     8e4:	00001349 	andeq	r1, r0, r9, asr #6
     8e8:	03011317 	movweq	r1, #4887	; 0x1317
     8ec:	3a050b0e 	bcc	14352c <__bss_end__+0x1394cc>
     8f0:	39053b0b 	stmdbcc	r5, {r0, r1, r3, r8, r9, fp, ip, sp}
     8f4:	0013010b 	andseq	r0, r3, fp, lsl #2
     8f8:	000d1800 	andeq	r1, sp, r0, lsl #16
     8fc:	0b3a0e03 	bleq	e84110 <__bss_end__+0xe7a0b0>
     900:	0b39053b 	bleq	e41df4 <__bss_end__+0xe37d94>
     904:	0b381349 	bleq	e05630 <__bss_end__+0xdfb5d0>
     908:	0d190000 	ldceq	0, cr0, [r9, #-0]
     90c:	3a0e0300 	bcc	381514 <__bss_end__+0x3774b4>
     910:	39053b0b 	stmdbcc	r5, {r0, r1, r3, r8, r9, fp, ip, sp}
     914:	3813490b 	ldmdacc	r3, {r0, r1, r3, r8, fp, lr}
     918:	1a000005 	bne	934 <_start-0x76cc>
     91c:	0e030113 	mcreq	1, 0, r0, cr3, cr3, {0}
     920:	0b3a0b0b 	bleq	e83554 <__bss_end__+0xe794f4>
     924:	0b39053b 	bleq	e41e18 <__bss_end__+0xe37db8>
     928:	00001301 	andeq	r1, r0, r1, lsl #6
     92c:	0b01131b 	bleq	455a0 <__bss_end__+0x3b540>
     930:	3b0b3a0b 	blcc	2cf164 <__bss_end__+0x2c5104>
     934:	010b3905 	tsteq	fp, r5, lsl #18
     938:	1c000013 	stcne	0, cr0, [r0], {19}
     93c:	0b0b0117 	bleq	2c0da0 <__bss_end__+0x2b6d40>
     940:	053b0b3a 	ldreq	r0, [fp, #-2874]!	; 0xfffff4c6
     944:	13010b39 	movwne	r0, #6969	; 0x1b39
     948:	0d1d0000 	ldceq	0, cr0, [sp, #-0]
     94c:	3a0e0300 	bcc	381554 <__bss_end__+0x3774f4>
     950:	39053b0b 	stmdbcc	r5, {r0, r1, r3, r8, r9, fp, ip, sp}
     954:	0013490b 	andseq	r4, r3, fp, lsl #18
     958:	01151e00 	tsteq	r5, r0, lsl #28
     95c:	13011927 	movwne	r1, #6439	; 0x1927
     960:	341f0000 	ldrcc	r0, [pc], #-0	; 968 <_start-0x7698>
     964:	3a0e0300 	bcc	38156c <__bss_end__+0x37750c>
     968:	39053b0b 	stmdbcc	r5, {r0, r1, r3, r8, r9, fp, ip, sp}
     96c:	3f13490b 	svccc	0x0013490b
     970:	00193c19 	andseq	r3, r9, r9, lsl ip
     974:	012e2000 			; <UNDEFINED> instruction: 0x012e2000
     978:	0e03193f 			; <UNDEFINED> instruction: 0x0e03193f
     97c:	0b3b0b3a 	bleq	ec366c <__bss_end__+0xeb960c>
     980:	19270b39 	stmdbne	r7!, {r0, r3, r4, r5, r8, r9, fp}
     984:	01111349 	tsteq	r1, r9, asr #6
     988:	18400612 	stmdane	r0, {r1, r4, r9, sl}^
     98c:	00194297 	mulseq	r9, r7, r2
     990:	00052100 	andeq	r2, r5, r0, lsl #2
     994:	0b3a0803 	bleq	e829a8 <__bss_end__+0xe78948>
     998:	0b390b3b 	bleq	e4368c <__bss_end__+0xe3962c>
     99c:	18021349 	stmdane	r2, {r0, r3, r6, r8, r9, ip}
     9a0:	05220000 	streq	r0, [r2, #-0]!
     9a4:	3a080300 	bcc	2015ac <__bss_end__+0x1f754c>
     9a8:	390b3b0b 	stmdbcc	fp, {r0, r1, r3, r8, r9, fp, ip, sp}
     9ac:	0213490b 	andseq	r4, r3, #180224	; 0x2c000
     9b0:	1742b717 	smlaldne	fp, r2, r7, r7
     9b4:	34230000 	strtcc	r0, [r3], #-0
     9b8:	3a080300 	bcc	2015c0 <__bss_end__+0x1f7560>
     9bc:	390b3b0b 	stmdbcc	fp, {r0, r1, r3, r8, r9, fp, ip, sp}
     9c0:	0213490b 	andseq	r4, r3, #180224	; 0x2c000
     9c4:	1742b717 	smlaldne	fp, r2, r7, r7
     9c8:	01000000 	mrseq	r0, (UNDEF: 0)
     9cc:	0e250111 	mcreq	1, 1, r0, cr5, cr1, {0}
     9d0:	0e030b13 	vmoveq.32	d3[0], r0
     9d4:	01110e1b 	tsteq	r1, fp, lsl lr
     9d8:	17100612 			; <UNDEFINED> instruction: 0x17100612
     9dc:	16020000 	strne	r0, [r2], -r0
     9e0:	3a0e0300 	bcc	3815e8 <__bss_end__+0x377588>
     9e4:	390b3b0b 	stmdbcc	fp, {r0, r1, r3, r8, r9, fp, ip, sp}
     9e8:	0013490b 	andseq	r4, r3, fp, lsl #18
     9ec:	01130300 	tsteq	r3, r0, lsl #6
     9f0:	0b0b0e03 	bleq	2c4204 <__bss_end__+0x2ba1a4>
     9f4:	0b3b0b3a 	bleq	ec36e4 <__bss_end__+0xeb9684>
     9f8:	00001301 	andeq	r1, r0, r1, lsl #6
     9fc:	03000d04 	movweq	r0, #3332	; 0xd04
     a00:	3813490e 	ldmdacc	r3, {r1, r2, r3, r8, fp, lr}
     a04:	0019340b 	andseq	r3, r9, fp, lsl #8
     a08:	000f0500 	andeq	r0, pc, r0, lsl #10
     a0c:	00000b0b 	andeq	r0, r0, fp, lsl #22
     a10:	0b002406 	bleq	9a30 <__FUNCTION__.4407+0x18>
     a14:	030b3e0b 	movweq	r3, #48651	; 0xbe0b
     a18:	07000008 	streq	r0, [r0, -r8]
     a1c:	0b0b0024 	bleq	2c0ab4 <__bss_end__+0x2b6a54>
     a20:	0e030b3e 	vmoveq.16	d3[0], r0
     a24:	0f080000 	svceq	0x00080000
     a28:	490b0b00 	stmdbmi	fp, {r8, r9, fp}
     a2c:	09000013 	stmdbeq	r0, {r0, r1, r4}
     a30:	0e030013 	mcreq	0, 0, r0, cr3, cr3, {0}
     a34:	0000193c 	andeq	r1, r0, ip, lsr r9
     a38:	0300160a 	movweq	r1, #1546	; 0x60a
     a3c:	3b0b3a0e 	blcc	2cf27c <__bss_end__+0x2c521c>
     a40:	490b3905 	stmdbmi	fp, {r0, r2, r8, fp, ip, sp}
     a44:	0b000013 	bleq	a98 <_start-0x7568>
     a48:	0b0b0117 	bleq	2c0eac <__bss_end__+0x2b6e4c>
     a4c:	0b3b0b3a 	bleq	ec373c <__bss_end__+0xeb96dc>
     a50:	13010b39 	movwne	r0, #6969	; 0x1b39
     a54:	0d0c0000 	stceq	0, cr0, [ip, #-0]
     a58:	3a0e0300 	bcc	381660 <__bss_end__+0x377600>
     a5c:	390b3b0b 	stmdbcc	fp, {r0, r1, r3, r8, r9, fp, ip, sp}
     a60:	0013490b 	andseq	r4, r3, fp, lsl #18
     a64:	01010d00 	tsteq	r1, r0, lsl #26
     a68:	13011349 	movwne	r1, #4937	; 0x1349
     a6c:	210e0000 	mrscs	r0, (UNDEF: 14)
     a70:	2f134900 	svccs	0x00134900
     a74:	0f00000b 	svceq	0x0000000b
     a78:	0b0b0113 	bleq	2c0ecc <__bss_end__+0x2b6e6c>
     a7c:	0b3b0b3a 	bleq	ec376c <__bss_end__+0xeb970c>
     a80:	13010b39 	movwne	r0, #6969	; 0x1b39
     a84:	0d100000 	ldceq	0, cr0, [r0, #-0]
     a88:	3a0e0300 	bcc	381690 <__bss_end__+0x377630>
     a8c:	390b3b0b 	stmdbcc	fp, {r0, r1, r3, r8, r9, fp, ip, sp}
     a90:	3813490b 	ldmdacc	r3, {r0, r1, r3, r8, fp, lr}
     a94:	1100000b 	tstne	r0, fp
     a98:	13490026 	movtne	r0, #36902	; 0x9026
     a9c:	13120000 	tstne	r2, #0
     aa0:	0b0e0301 	bleq	3816ac <__bss_end__+0x37764c>
     aa4:	3b0b3a0b 	blcc	2cf2d8 <__bss_end__+0x2c5278>
     aa8:	010b390b 	tsteq	fp, fp, lsl #18
     aac:	13000013 	movwne	r0, #19
     ab0:	0803000d 	stmdaeq	r3, {r0, r2, r3}
     ab4:	0b3b0b3a 	bleq	ec37a4 <__bss_end__+0xeb9744>
     ab8:	13490b39 	movtne	r0, #39737	; 0x9b39
     abc:	00000b38 	andeq	r0, r0, r8, lsr fp
     ac0:	03011314 	movweq	r1, #4884	; 0x1314
     ac4:	3a050b0e 	bcc	143704 <__bss_end__+0x1396a4>
     ac8:	390b3b0b 	stmdbcc	fp, {r0, r1, r3, r8, r9, fp, ip, sp}
     acc:	0013010b 	andseq	r0, r3, fp, lsl #2
     ad0:	000d1500 	andeq	r1, sp, r0, lsl #10
     ad4:	0b3a0e03 	bleq	e842e8 <__bss_end__+0xe7a288>
     ad8:	0b390b3b 	bleq	e437cc <__bss_end__+0xe3976c>
     adc:	05381349 	ldreq	r1, [r8, #-841]!	; 0xfffffcb7
     ae0:	15160000 	ldrne	r0, [r6, #-0]
     ae4:	00192700 	andseq	r2, r9, r0, lsl #14
     ae8:	01151700 	tsteq	r5, r0, lsl #14
     aec:	13491927 	movtne	r1, #39207	; 0x9927
     af0:	00001301 	andeq	r1, r0, r1, lsl #6
     af4:	49000518 	stmdbmi	r0, {r3, r4, r8, sl}
     af8:	19000013 	stmdbne	r0, {r0, r1, r4}
     afc:	0e030113 	mcreq	1, 0, r0, cr3, cr3, {0}
     b00:	0b3a050b 	bleq	e81f34 <__bss_end__+0xe77ed4>
     b04:	0b39053b 	bleq	e41ff8 <__bss_end__+0xe37f98>
     b08:	00001301 	andeq	r1, r0, r1, lsl #6
     b0c:	03000d1a 	movweq	r0, #3354	; 0xd1a
     b10:	3b0b3a0e 	blcc	2cf350 <__bss_end__+0x2c52f0>
     b14:	490b3905 	stmdbmi	fp, {r0, r2, r8, fp, ip, sp}
     b18:	000b3813 	andeq	r3, fp, r3, lsl r8
     b1c:	000d1b00 	andeq	r1, sp, r0, lsl #22
     b20:	0b3a0e03 	bleq	e84334 <__bss_end__+0xe7a2d4>
     b24:	0b39053b 	bleq	e42018 <__bss_end__+0xe37fb8>
     b28:	05381349 	ldreq	r1, [r8, #-841]!	; 0xfffffcb7
     b2c:	131c0000 	tstne	ip, #0
     b30:	0b0e0301 	bleq	38173c <__bss_end__+0x3776dc>
     b34:	3b0b3a0b 	blcc	2cf368 <__bss_end__+0x2c5308>
     b38:	010b3905 	tsteq	fp, r5, lsl #18
     b3c:	1d000013 	stcne	0, cr0, [r0, #-76]	; 0xffffffb4
     b40:	0b0b0113 	bleq	2c0f94 <__bss_end__+0x2b6f34>
     b44:	053b0b3a 	ldreq	r0, [fp, #-2874]!	; 0xfffff4c6
     b48:	13010b39 	movwne	r0, #6969	; 0x1b39
     b4c:	171e0000 	ldrne	r0, [lr, -r0]
     b50:	3a0b0b01 	bcc	2c375c <__bss_end__+0x2b96fc>
     b54:	39053b0b 	stmdbcc	r5, {r0, r1, r3, r8, r9, fp, ip, sp}
     b58:	0013010b 	andseq	r0, r3, fp, lsl #2
     b5c:	000d1f00 	andeq	r1, sp, r0, lsl #30
     b60:	0b3a0e03 	bleq	e84374 <__bss_end__+0xe7a314>
     b64:	0b39053b 	bleq	e42058 <__bss_end__+0xe37ff8>
     b68:	00001349 	andeq	r1, r0, r9, asr #6
     b6c:	27011520 	strcs	r1, [r1, -r0, lsr #10]
     b70:	00130119 	andseq	r0, r3, r9, lsl r1
     b74:	00342100 	eorseq	r2, r4, r0, lsl #2
     b78:	0b3a0e03 	bleq	e8438c <__bss_end__+0xe7a32c>
     b7c:	0b39053b 	bleq	e42070 <__bss_end__+0xe38010>
     b80:	193f1349 	ldmdbne	pc!, {r0, r3, r6, r8, r9, ip}	; <UNPREDICTABLE>
     b84:	0000193c 	andeq	r1, r0, ip, lsr r9
     b88:	03003422 	movweq	r3, #1058	; 0x422
     b8c:	3b0b3a0e 	blcc	2cf3cc <__bss_end__+0x2c536c>
     b90:	490b390b 	stmdbmi	fp, {r0, r1, r3, r8, fp, ip, sp}
     b94:	3c193f13 	ldccc	15, cr3, [r9], {19}
     b98:	23000019 	movwcs	r0, #25
     b9c:	193f012e 	ldmdbne	pc!, {r1, r2, r3, r5, r8}	; <UNPREDICTABLE>
     ba0:	0b3a0e03 	bleq	e843b4 <__bss_end__+0xe7a354>
     ba4:	0b390b3b 	bleq	e43898 <__bss_end__+0xe39838>
     ba8:	13491927 	movtne	r1, #39207	; 0x9927
     bac:	06120111 			; <UNDEFINED> instruction: 0x06120111
     bb0:	42971840 	addsmi	r1, r7, #64, 16	; 0x400000
     bb4:	00130119 	andseq	r0, r3, r9, lsl r1
     bb8:	00052400 	andeq	r2, r5, r0, lsl #8
     bbc:	0b3a0803 	bleq	e82bd0 <__bss_end__+0xe78b70>
     bc0:	0b390b3b 	bleq	e438b4 <__bss_end__+0xe39854>
     bc4:	18021349 	stmdane	r2, {r0, r3, r6, r8, r9, ip}
     bc8:	18250000 	stmdane	r5!, {}	; <UNPREDICTABLE>
     bcc:	26000000 	strcs	r0, [r0], -r0
     bd0:	08030034 	stmdaeq	r3, {r2, r4, r5}
     bd4:	0b3b0b3a 	bleq	ec38c4 <__bss_end__+0xeb9864>
     bd8:	13490b39 	movtne	r0, #39737	; 0x9b39
     bdc:	00001802 	andeq	r1, r0, r2, lsl #16
     be0:	03003427 	movweq	r3, #1063	; 0x427
     be4:	3b0b3a0e 	blcc	2cf424 <__bss_end__+0x2c53c4>
     be8:	490b390b 	stmdbmi	fp, {r0, r1, r3, r8, fp, ip, sp}
     bec:	00180213 	andseq	r0, r8, r3, lsl r2
     bf0:	00342800 	eorseq	r2, r4, r0, lsl #16
     bf4:	0b3a0803 	bleq	e82c08 <__bss_end__+0xe78ba8>
     bf8:	0b390b3b 	bleq	e438ec <__bss_end__+0xe3988c>
     bfc:	17021349 	strne	r1, [r2, -r9, asr #6]
     c00:	001742b7 			; <UNDEFINED> instruction: 0x001742b7
     c04:	82892900 	addhi	r2, r9, #0, 18
     c08:	01110101 	tsteq	r1, r1, lsl #2
     c0c:	13011331 	movwne	r1, #4913	; 0x1331
     c10:	8a2a0000 	bhi	a80c18 <__bss_end__+0xa76bb8>
     c14:	02000182 	andeq	r0, r0, #-2147483616	; 0x80000020
     c18:	18429118 	stmdane	r2, {r3, r4, r8, ip, pc}^
     c1c:	892b0000 	stmdbhi	fp!, {}	; <UNPREDICTABLE>
     c20:	11010182 	smlabbne	r1, r2, r1, r0
     c24:	2c000001 	stccs	0, cr0, [r0], {1}
     c28:	13490021 	movtne	r0, #36897	; 0x9021
     c2c:	0000052f 	andeq	r0, r0, pc, lsr #10
     c30:	3f002e2d 	svccc	0x00002e2d
     c34:	6e193c19 	mrcvs	12, 0, r3, cr9, cr9, {0}
     c38:	3a0e030e 	bcc	381878 <__bss_end__+0x377818>
     c3c:	390b3b0b 	stmdbcc	fp, {r0, r1, r3, r8, r9, fp, ip, sp}
     c40:	0000000b 	andeq	r0, r0, fp
     c44:	25011101 	strcs	r1, [r1, #-257]	; 0xfffffeff
     c48:	030b130e 	movweq	r1, #45838	; 0xb30e
     c4c:	110e1b0e 	tstne	lr, lr, lsl #22
     c50:	10061201 	andne	r1, r6, r1, lsl #4
     c54:	02000017 	andeq	r0, r0, #23
     c58:	0b0b0024 	bleq	2c0cf0 <__bss_end__+0x2b6c90>
     c5c:	08030b3e 	stmdaeq	r3, {r1, r2, r3, r4, r5, r8, r9, fp}
     c60:	24030000 	strcs	r0, [r3], #-0
     c64:	3e0b0b00 	vmlacc.f64	d0, d11, d0
     c68:	000e030b 	andeq	r0, lr, fp, lsl #6
     c6c:	00160400 	andseq	r0, r6, r0, lsl #8
     c70:	0b3a0e03 	bleq	e84484 <__bss_end__+0xe7a424>
     c74:	0b390b3b 	bleq	e43968 <__bss_end__+0xe39908>
     c78:	00001349 	andeq	r1, r0, r9, asr #6
     c7c:	0b000f05 	bleq	4898 <_start-0x3768>
     c80:	0013490b 	andseq	r4, r3, fp, lsl #18
     c84:	00130600 	andseq	r0, r3, r0, lsl #12
     c88:	193c0e03 	ldmdbne	ip!, {r0, r1, r9, sl, fp}
     c8c:	16070000 	strne	r0, [r7], -r0
     c90:	3a0e0300 	bcc	381898 <__bss_end__+0x377838>
     c94:	39053b0b 	stmdbcc	r5, {r0, r1, r3, r8, r9, fp, ip, sp}
     c98:	0013490b 	andseq	r4, r3, fp, lsl #18
     c9c:	01170800 	tsteq	r7, r0, lsl #16
     ca0:	0b3a0b0b 	bleq	e838d4 <__bss_end__+0xe79874>
     ca4:	0b390b3b 	bleq	e43998 <__bss_end__+0xe39938>
     ca8:	00001301 	andeq	r1, r0, r1, lsl #6
     cac:	03000d09 	movweq	r0, #3337	; 0xd09
     cb0:	3b0b3a0e 	blcc	2cf4f0 <__bss_end__+0x2c5490>
     cb4:	490b390b 	stmdbmi	fp, {r0, r1, r3, r8, fp, ip, sp}
     cb8:	0a000013 	beq	d0c <_start-0x72f4>
     cbc:	13490101 	movtne	r0, #37121	; 0x9101
     cc0:	00001301 	andeq	r1, r0, r1, lsl #6
     cc4:	4900210b 	stmdbmi	r0, {r0, r1, r3, r8, sp}
     cc8:	000b2f13 	andeq	r2, fp, r3, lsl pc
     ccc:	01130c00 	tsteq	r3, r0, lsl #24
     cd0:	0b3a0b0b 	bleq	e83904 <__bss_end__+0xe798a4>
     cd4:	0b390b3b 	bleq	e439c8 <__bss_end__+0xe39968>
     cd8:	00001301 	andeq	r1, r0, r1, lsl #6
     cdc:	03000d0d 	movweq	r0, #3341	; 0xd0d
     ce0:	3b0b3a0e 	blcc	2cf520 <__bss_end__+0x2c54c0>
     ce4:	490b390b 	stmdbmi	fp, {r0, r1, r3, r8, fp, ip, sp}
     ce8:	000b3813 	andeq	r3, fp, r3, lsl r8
     cec:	000f0e00 	andeq	r0, pc, r0, lsl #28
     cf0:	00000b0b 	andeq	r0, r0, fp, lsl #22
     cf4:	4900260f 	stmdbmi	r0, {r0, r1, r2, r3, r9, sl, sp}
     cf8:	10000013 	andne	r0, r0, r3, lsl r0
     cfc:	0e030113 	mcreq	1, 0, r0, cr3, cr3, {0}
     d00:	0b3a0b0b 	bleq	e83934 <__bss_end__+0xe798d4>
     d04:	0b390b3b 	bleq	e439f8 <__bss_end__+0xe39998>
     d08:	00001301 	andeq	r1, r0, r1, lsl #6
     d0c:	03000d11 	movweq	r0, #3345	; 0xd11
     d10:	3b0b3a08 	blcc	2cf538 <__bss_end__+0x2c54d8>
     d14:	490b390b 	stmdbmi	fp, {r0, r1, r3, r8, fp, ip, sp}
     d18:	000b3813 	andeq	r3, fp, r3, lsl r8
     d1c:	01131200 	tsteq	r3, r0, lsl #4
     d20:	050b0e03 	streq	r0, [fp, #-3587]	; 0xfffff1fd
     d24:	0b3b0b3a 	bleq	ec3a14 <__bss_end__+0xeb99b4>
     d28:	13010b39 	movwne	r0, #6969	; 0x1b39
     d2c:	0d130000 	ldceq	0, cr0, [r3, #-0]
     d30:	3a0e0300 	bcc	381938 <__bss_end__+0x3778d8>
     d34:	390b3b0b 	stmdbcc	fp, {r0, r1, r3, r8, r9, fp, ip, sp}
     d38:	3813490b 	ldmdacc	r3, {r0, r1, r3, r8, fp, lr}
     d3c:	14000005 	strne	r0, [r0], #-5
     d40:	19270015 	stmdbne	r7!, {r0, r2, r4}
     d44:	15150000 	ldrne	r0, [r5, #-0]
     d48:	49192701 	ldmdbmi	r9, {r0, r8, r9, sl, sp}
     d4c:	00130113 	andseq	r0, r3, r3, lsl r1
     d50:	00051600 	andeq	r1, r5, r0, lsl #12
     d54:	00001349 	andeq	r1, r0, r9, asr #6
     d58:	03011317 	movweq	r1, #4887	; 0x1317
     d5c:	3a050b0e 	bcc	14399c <__bss_end__+0x13993c>
     d60:	39053b0b 	stmdbcc	r5, {r0, r1, r3, r8, r9, fp, ip, sp}
     d64:	0013010b 	andseq	r0, r3, fp, lsl #2
     d68:	000d1800 	andeq	r1, sp, r0, lsl #16
     d6c:	0b3a0e03 	bleq	e84580 <__bss_end__+0xe7a520>
     d70:	0b39053b 	bleq	e42264 <__bss_end__+0xe38204>
     d74:	0b381349 	bleq	e05aa0 <__bss_end__+0xdfba40>
     d78:	0d190000 	ldceq	0, cr0, [r9, #-0]
     d7c:	3a0e0300 	bcc	381984 <__bss_end__+0x377924>
     d80:	39053b0b 	stmdbcc	r5, {r0, r1, r3, r8, r9, fp, ip, sp}
     d84:	3813490b 	ldmdacc	r3, {r0, r1, r3, r8, fp, lr}
     d88:	1a000005 	bne	da4 <_start-0x725c>
     d8c:	0e030113 	mcreq	1, 0, r0, cr3, cr3, {0}
     d90:	0b3a0b0b 	bleq	e839c4 <__bss_end__+0xe79964>
     d94:	0b39053b 	bleq	e42288 <__bss_end__+0xe38228>
     d98:	00001301 	andeq	r1, r0, r1, lsl #6
     d9c:	0b01131b 	bleq	45a10 <__bss_end__+0x3b9b0>
     da0:	3b0b3a0b 	blcc	2cf5d4 <__bss_end__+0x2c5574>
     da4:	010b3905 	tsteq	fp, r5, lsl #18
     da8:	1c000013 	stcne	0, cr0, [r0], {19}
     dac:	0b0b0117 	bleq	2c1210 <__bss_end__+0x2b71b0>
     db0:	053b0b3a 	ldreq	r0, [fp, #-2874]!	; 0xfffff4c6
     db4:	13010b39 	movwne	r0, #6969	; 0x1b39
     db8:	0d1d0000 	ldceq	0, cr0, [sp, #-0]
     dbc:	3a0e0300 	bcc	3819c4 <__bss_end__+0x377964>
     dc0:	39053b0b 	stmdbcc	r5, {r0, r1, r3, r8, r9, fp, ip, sp}
     dc4:	0013490b 	andseq	r4, r3, fp, lsl #18
     dc8:	01151e00 	tsteq	r5, r0, lsl #28
     dcc:	13011927 	movwne	r1, #6439	; 0x1927
     dd0:	341f0000 	ldrcc	r0, [pc], #-0	; dd8 <_start-0x7228>
     dd4:	3a0e0300 	bcc	3819dc <__bss_end__+0x37797c>
     dd8:	39053b0b 	stmdbcc	r5, {r0, r1, r3, r8, r9, fp, ip, sp}
     ddc:	3f13490b 	svccc	0x0013490b
     de0:	00193c19 	andseq	r3, r9, r9, lsl ip
     de4:	00342000 	eorseq	r2, r4, r0
     de8:	0b3a0e03 	bleq	e845fc <__bss_end__+0xe7a59c>
     dec:	0b390b3b 	bleq	e43ae0 <__bss_end__+0xe39a80>
     df0:	193f1349 	ldmdbne	pc!, {r0, r3, r6, r8, r9, ip}	; <UNPREDICTABLE>
     df4:	0000193c 	andeq	r1, r0, ip, lsr r9
     df8:	47003421 	strmi	r3, [r0, -r1, lsr #8]
     dfc:	3b0b3a13 	blcc	2cf650 <__bss_end__+0x2c55f0>
     e00:	020b390b 	andeq	r3, fp, #180224	; 0x2c000
     e04:	22000018 	andcs	r0, r0, #24
     e08:	193f012e 	ldmdbne	pc!, {r1, r2, r3, r5, r8}	; <UNPREDICTABLE>
     e0c:	0b3a0e03 	bleq	e84620 <__bss_end__+0xe7a5c0>
     e10:	0b390b3b 	bleq	e43b04 <__bss_end__+0xe39aa4>
     e14:	01111927 	tsteq	r1, r7, lsr #18
     e18:	18400612 	stmdane	r0, {r1, r4, r9, sl}^
     e1c:	01194297 			; <UNDEFINED> instruction: 0x01194297
     e20:	23000013 	movwcs	r0, #19
     e24:	08030005 	stmdaeq	r3, {r0, r2}
     e28:	0b3b0b3a 	bleq	ec3b18 <__bss_end__+0xeb9ab8>
     e2c:	13490b39 	movtne	r0, #39737	; 0x9b39
     e30:	00001802 	andeq	r1, r0, r2, lsl #16
     e34:	3f002e24 	svccc	0x00002e24
     e38:	3a0e0319 	bcc	381aa4 <__bss_end__+0x377a44>
     e3c:	390b3b0b 	stmdbcc	fp, {r0, r1, r3, r8, r9, fp, ip, sp}
     e40:	1119270b 	tstne	r9, fp, lsl #14
     e44:	40061201 	andmi	r1, r6, r1, lsl #4
     e48:	19429718 	stmdbne	r2, {r3, r4, r8, r9, sl, ip, pc}^
     e4c:	2e250000 	cdpcs	0, 2, cr0, cr5, cr0, {0}
     e50:	3a0e0301 	bcc	381a5c <__bss_end__+0x3779fc>
     e54:	390b3b0b 	stmdbcc	fp, {r0, r1, r3, r8, r9, fp, ip, sp}
     e58:	4919270b 	ldmdbmi	r9, {r0, r1, r3, r8, r9, sl, sp}
     e5c:	12011113 	andne	r1, r1, #-1073741820	; 0xc0000004
     e60:	97184006 	ldrls	r4, [r8, -r6]
     e64:	13011942 	movwne	r1, #6466	; 0x1942
     e68:	05260000 	streq	r0, [r6, #-0]!
     e6c:	3a080300 	bcc	201a74 <__bss_end__+0x1f7a14>
     e70:	390b3b0b 	stmdbcc	fp, {r0, r1, r3, r8, r9, fp, ip, sp}
     e74:	0213490b 	andseq	r4, r3, #180224	; 0x2c000
     e78:	1742b717 	smlaldne	fp, r2, r7, r7
     e7c:	89270000 	stmdbhi	r7!, {}	; <UNPREDICTABLE>
     e80:	11010182 	smlabbne	r1, r2, r1, r0
     e84:	00133101 	andseq	r3, r3, r1, lsl #2
     e88:	828a2800 	addhi	r2, sl, #0, 16
     e8c:	18020001 	stmdane	r2, {r0}
     e90:	00184291 	mulseq	r8, r1, r2
     e94:	002e2900 	eoreq	r2, lr, r0, lsl #18
     e98:	193c193f 	ldmdbne	ip!, {r0, r1, r2, r3, r4, r5, r8, fp, ip}
     e9c:	0e030e6e 	cdpeq	14, 0, cr0, cr3, cr14, {3}
     ea0:	0b3b0b3a 	bleq	ec3b90 <__bss_end__+0xeb9b30>
     ea4:	00000b39 	andeq	r0, r0, r9, lsr fp
     ea8:	01110100 	tsteq	r1, r0, lsl #2
     eac:	0b130e25 	bleq	4c4748 <__bss_end__+0x4ba6e8>
     eb0:	0e1b0e03 	cdpeq	14, 1, cr0, cr11, cr3, {0}
     eb4:	06120111 			; <UNDEFINED> instruction: 0x06120111
     eb8:	00001710 	andeq	r1, r0, r0, lsl r7
     ebc:	0b002402 	bleq	9ecc <buf.4297+0x270>
     ec0:	030b3e0b 	movweq	r3, #48651	; 0xbe0b
     ec4:	03000008 	movweq	r0, #8
     ec8:	0b0b0024 	bleq	2c0f60 <__bss_end__+0x2b6f00>
     ecc:	0e030b3e 	vmoveq.16	d3[0], r0
     ed0:	16040000 	strne	r0, [r4], -r0
     ed4:	3a0e0300 	bcc	381adc <__bss_end__+0x377a7c>
     ed8:	390b3b0b 	stmdbcc	fp, {r0, r1, r3, r8, r9, fp, ip, sp}
     edc:	0013490b 	andseq	r4, r3, fp, lsl #18
     ee0:	000f0500 	andeq	r0, pc, r0, lsl #10
     ee4:	13490b0b 	movtne	r0, #39691	; 0x9b0b
     ee8:	13060000 	movwne	r0, #24576	; 0x6000
     eec:	3c0e0300 	stccc	3, cr0, [lr], {-0}
     ef0:	07000019 	smladeq	r0, r9, r0, r0
     ef4:	0e030016 	mcreq	0, 0, r0, cr3, cr6, {0}
     ef8:	053b0b3a 	ldreq	r0, [fp, #-2874]!	; 0xfffff4c6
     efc:	13490b39 	movtne	r0, #39737	; 0x9b39
     f00:	17080000 	strne	r0, [r8, -r0]
     f04:	3a0b0b01 	bcc	2c3b10 <__bss_end__+0x2b9ab0>
     f08:	390b3b0b 	stmdbcc	fp, {r0, r1, r3, r8, r9, fp, ip, sp}
     f0c:	0013010b 	andseq	r0, r3, fp, lsl #2
     f10:	000d0900 	andeq	r0, sp, r0, lsl #18
     f14:	0b3a0e03 	bleq	e84728 <__bss_end__+0xe7a6c8>
     f18:	0b390b3b 	bleq	e43c0c <__bss_end__+0xe39bac>
     f1c:	00001349 	andeq	r1, r0, r9, asr #6
     f20:	4901010a 	stmdbmi	r1, {r1, r3, r8}
     f24:	00130113 	andseq	r0, r3, r3, lsl r1
     f28:	00210b00 	eoreq	r0, r1, r0, lsl #22
     f2c:	0b2f1349 	bleq	bc5c58 <__bss_end__+0xbbbbf8>
     f30:	130c0000 	movwne	r0, #49152	; 0xc000
     f34:	3a0b0b01 	bcc	2c3b40 <__bss_end__+0x2b9ae0>
     f38:	390b3b0b 	stmdbcc	fp, {r0, r1, r3, r8, r9, fp, ip, sp}
     f3c:	0013010b 	andseq	r0, r3, fp, lsl #2
     f40:	000d0d00 	andeq	r0, sp, r0, lsl #26
     f44:	0b3a0e03 	bleq	e84758 <__bss_end__+0xe7a6f8>
     f48:	0b390b3b 	bleq	e43c3c <__bss_end__+0xe39bdc>
     f4c:	0b381349 	bleq	e05c78 <__bss_end__+0xdfbc18>
     f50:	0f0e0000 	svceq	0x000e0000
     f54:	000b0b00 	andeq	r0, fp, r0, lsl #22
     f58:	00260f00 	eoreq	r0, r6, r0, lsl #30
     f5c:	00001349 	andeq	r1, r0, r9, asr #6
     f60:	03011310 	movweq	r1, #4880	; 0x1310
     f64:	3a0b0b0e 	bcc	2c3ba4 <__bss_end__+0x2b9b44>
     f68:	390b3b0b 	stmdbcc	fp, {r0, r1, r3, r8, r9, fp, ip, sp}
     f6c:	0013010b 	andseq	r0, r3, fp, lsl #2
     f70:	000d1100 	andeq	r1, sp, r0, lsl #2
     f74:	0b3a0803 	bleq	e82f88 <__bss_end__+0xe78f28>
     f78:	0b390b3b 	bleq	e43c6c <__bss_end__+0xe39c0c>
     f7c:	0b381349 	bleq	e05ca8 <__bss_end__+0xdfbc48>
     f80:	13120000 	tstne	r2, #0
     f84:	0b0e0301 	bleq	381b90 <__bss_end__+0x377b30>
     f88:	3b0b3a05 	blcc	2cf7a4 <__bss_end__+0x2c5744>
     f8c:	010b390b 	tsteq	fp, fp, lsl #18
     f90:	13000013 	movwne	r0, #19
     f94:	0e03000d 	cdpeq	0, 0, cr0, cr3, cr13, {0}
     f98:	0b3b0b3a 	bleq	ec3c88 <__bss_end__+0xeb9c28>
     f9c:	13490b39 	movtne	r0, #39737	; 0x9b39
     fa0:	00000538 	andeq	r0, r0, r8, lsr r5
     fa4:	27001514 	smladcs	r0, r4, r5, r1
     fa8:	15000019 	strne	r0, [r0, #-25]	; 0xffffffe7
     fac:	19270115 	stmdbne	r7!, {r0, r2, r4, r8}
     fb0:	13011349 	movwne	r1, #4937	; 0x1349
     fb4:	05160000 	ldreq	r0, [r6, #-0]
     fb8:	00134900 	andseq	r4, r3, r0, lsl #18
     fbc:	01131700 	tsteq	r3, r0, lsl #14
     fc0:	050b0e03 	streq	r0, [fp, #-3587]	; 0xfffff1fd
     fc4:	053b0b3a 	ldreq	r0, [fp, #-2874]!	; 0xfffff4c6
     fc8:	13010b39 	movwne	r0, #6969	; 0x1b39
     fcc:	0d180000 	ldceq	0, cr0, [r8, #-0]
     fd0:	3a0e0300 	bcc	381bd8 <__bss_end__+0x377b78>
     fd4:	39053b0b 	stmdbcc	r5, {r0, r1, r3, r8, r9, fp, ip, sp}
     fd8:	3813490b 	ldmdacc	r3, {r0, r1, r3, r8, fp, lr}
     fdc:	1900000b 	stmdbne	r0, {r0, r1, r3}
     fe0:	0e03000d 	cdpeq	0, 0, cr0, cr3, cr13, {0}
     fe4:	053b0b3a 	ldreq	r0, [fp, #-2874]!	; 0xfffff4c6
     fe8:	13490b39 	movtne	r0, #39737	; 0x9b39
     fec:	00000538 	andeq	r0, r0, r8, lsr r5
     ff0:	0301131a 	movweq	r1, #4890	; 0x131a
     ff4:	3a0b0b0e 	bcc	2c3c34 <__bss_end__+0x2b9bd4>
     ff8:	39053b0b 	stmdbcc	r5, {r0, r1, r3, r8, r9, fp, ip, sp}
     ffc:	0013010b 	andseq	r0, r3, fp, lsl #2
    1000:	01131b00 	tsteq	r3, r0, lsl #22
    1004:	0b3a0b0b 	bleq	e83c38 <__bss_end__+0xe79bd8>
    1008:	0b39053b 	bleq	e424fc <__bss_end__+0xe3849c>
    100c:	00001301 	andeq	r1, r0, r1, lsl #6
    1010:	0b01171c 	bleq	46c88 <__bss_end__+0x3cc28>
    1014:	3b0b3a0b 	blcc	2cf848 <__bss_end__+0x2c57e8>
    1018:	010b3905 	tsteq	fp, r5, lsl #18
    101c:	1d000013 	stcne	0, cr0, [r0, #-76]	; 0xffffffb4
    1020:	0e03000d 	cdpeq	0, 0, cr0, cr3, cr13, {0}
    1024:	053b0b3a 	ldreq	r0, [fp, #-2874]!	; 0xfffff4c6
    1028:	13490b39 	movtne	r0, #39737	; 0x9b39
    102c:	151e0000 	ldrne	r0, [lr, #-0]
    1030:	01192701 	tsteq	r9, r1, lsl #14
    1034:	1f000013 	svcne	0x00000013
    1038:	0e030034 	mcreq	0, 0, r0, cr3, cr4, {1}
    103c:	053b0b3a 	ldreq	r0, [fp, #-2874]!	; 0xfffff4c6
    1040:	13490b39 	movtne	r0, #39737	; 0x9b39
    1044:	193c193f 	ldmdbne	ip!, {r0, r1, r2, r3, r4, r5, r8, fp, ip}
    1048:	34200000 	strtcc	r0, [r0], #-0
    104c:	3a0e0300 	bcc	381c54 <__bss_end__+0x377bf4>
    1050:	390b3b0b 	stmdbcc	fp, {r0, r1, r3, r8, r9, fp, ip, sp}
    1054:	3f13490b 	svccc	0x0013490b
    1058:	00193c19 	andseq	r3, r9, r9, lsl ip
    105c:	00342100 	eorseq	r2, r4, r0, lsl #2
    1060:	0b3a1347 	bleq	e85d84 <__bss_end__+0xe7bd24>
    1064:	0b390b3b 	bleq	e43d58 <__bss_end__+0xe39cf8>
    1068:	00001802 	andeq	r1, r0, r2, lsl #16
    106c:	3f012e22 	svccc	0x00012e22
    1070:	3a0e0319 	bcc	381cdc <__bss_end__+0x377c7c>
    1074:	390b3b0b 	stmdbcc	fp, {r0, r1, r3, r8, r9, fp, ip, sp}
    1078:	4919270b 	ldmdbmi	r9, {r0, r1, r3, r8, r9, sl, sp}
    107c:	12011113 	andne	r1, r1, #-1073741820	; 0xc0000004
    1080:	96184006 	ldrls	r4, [r8], -r6
    1084:	00001942 	andeq	r1, r0, r2, asr #18
    1088:	03000523 	movweq	r0, #1315	; 0x523
    108c:	3b0b3a08 	blcc	2cf8b4 <__bss_end__+0x2c5854>
    1090:	490b390b 	stmdbmi	fp, {r0, r1, r3, r8, fp, ip, sp}
    1094:	b7170213 			; <UNDEFINED> instruction: 0xb7170213
    1098:	00001742 	andeq	r1, r0, r2, asr #14
    109c:	01110100 	tsteq	r1, r0, lsl #2
    10a0:	0b130e25 	bleq	4c493c <__bss_end__+0x4ba8dc>
    10a4:	0e1b0e03 	cdpeq	14, 1, cr0, cr11, cr3, {0}
    10a8:	06120111 			; <UNDEFINED> instruction: 0x06120111
    10ac:	00001710 	andeq	r1, r0, r0, lsl r7
    10b0:	0b002402 	bleq	a0c0 <__bss_end__+0x60>
    10b4:	030b3e0b 	movweq	r3, #48651	; 0xbe0b
    10b8:	03000008 	movweq	r0, #8
    10bc:	0b0b0024 	bleq	2c1154 <__bss_end__+0x2b70f4>
    10c0:	0e030b3e 	vmoveq.16	d3[0], r0
    10c4:	16040000 	strne	r0, [r4], -r0
    10c8:	3a0e0300 	bcc	381cd0 <__bss_end__+0x377c70>
    10cc:	390b3b0b 	stmdbcc	fp, {r0, r1, r3, r8, r9, fp, ip, sp}
    10d0:	0013490b 	andseq	r4, r3, fp, lsl #18
    10d4:	000f0500 	andeq	r0, pc, r0, lsl #10
    10d8:	13490b0b 	movtne	r0, #39691	; 0x9b0b
    10dc:	13060000 	movwne	r0, #24576	; 0x6000
    10e0:	3c0e0300 	stccc	3, cr0, [lr], {-0}
    10e4:	07000019 	smladeq	r0, r9, r0, r0
    10e8:	0e030016 	mcreq	0, 0, r0, cr3, cr6, {0}
    10ec:	053b0b3a 	ldreq	r0, [fp, #-2874]!	; 0xfffff4c6
    10f0:	13490b39 	movtne	r0, #39737	; 0x9b39
    10f4:	17080000 	strne	r0, [r8, -r0]
    10f8:	3a0b0b01 	bcc	2c3d04 <__bss_end__+0x2b9ca4>
    10fc:	390b3b0b 	stmdbcc	fp, {r0, r1, r3, r8, r9, fp, ip, sp}
    1100:	0013010b 	andseq	r0, r3, fp, lsl #2
    1104:	000d0900 	andeq	r0, sp, r0, lsl #18
    1108:	0b3a0e03 	bleq	e8491c <__bss_end__+0xe7a8bc>
    110c:	0b390b3b 	bleq	e43e00 <__bss_end__+0xe39da0>
    1110:	00001349 	andeq	r1, r0, r9, asr #6
    1114:	4901010a 	stmdbmi	r1, {r1, r3, r8}
    1118:	00130113 	andseq	r0, r3, r3, lsl r1
    111c:	00210b00 	eoreq	r0, r1, r0, lsl #22
    1120:	0b2f1349 	bleq	bc5e4c <__bss_end__+0xbbbdec>
    1124:	130c0000 	movwne	r0, #49152	; 0xc000
    1128:	3a0b0b01 	bcc	2c3d34 <__bss_end__+0x2b9cd4>
    112c:	390b3b0b 	stmdbcc	fp, {r0, r1, r3, r8, r9, fp, ip, sp}
    1130:	0013010b 	andseq	r0, r3, fp, lsl #2
    1134:	000d0d00 	andeq	r0, sp, r0, lsl #26
    1138:	0b3a0e03 	bleq	e8494c <__bss_end__+0xe7a8ec>
    113c:	0b390b3b 	bleq	e43e30 <__bss_end__+0xe39dd0>
    1140:	0b381349 	bleq	e05e6c <__bss_end__+0xdfbe0c>
    1144:	0f0e0000 	svceq	0x000e0000
    1148:	000b0b00 	andeq	r0, fp, r0, lsl #22
    114c:	00260f00 	eoreq	r0, r6, r0, lsl #30
    1150:	00001349 	andeq	r1, r0, r9, asr #6
    1154:	03011310 	movweq	r1, #4880	; 0x1310
    1158:	3a0b0b0e 	bcc	2c3d98 <__bss_end__+0x2b9d38>
    115c:	390b3b0b 	stmdbcc	fp, {r0, r1, r3, r8, r9, fp, ip, sp}
    1160:	0013010b 	andseq	r0, r3, fp, lsl #2
    1164:	000d1100 	andeq	r1, sp, r0, lsl #2
    1168:	0b3a0803 	bleq	e8317c <__bss_end__+0xe7911c>
    116c:	0b390b3b 	bleq	e43e60 <__bss_end__+0xe39e00>
    1170:	0b381349 	bleq	e05e9c <__bss_end__+0xdfbe3c>
    1174:	13120000 	tstne	r2, #0
    1178:	0b0e0301 	bleq	381d84 <__bss_end__+0x377d24>
    117c:	3b0b3a05 	blcc	2cf998 <__bss_end__+0x2c5938>
    1180:	010b390b 	tsteq	fp, fp, lsl #18
    1184:	13000013 	movwne	r0, #19
    1188:	0e03000d 	cdpeq	0, 0, cr0, cr3, cr13, {0}
    118c:	0b3b0b3a 	bleq	ec3e7c <__bss_end__+0xeb9e1c>
    1190:	13490b39 	movtne	r0, #39737	; 0x9b39
    1194:	00000538 	andeq	r0, r0, r8, lsr r5
    1198:	27001514 	smladcs	r0, r4, r5, r1
    119c:	15000019 	strne	r0, [r0, #-25]	; 0xffffffe7
    11a0:	19270115 	stmdbne	r7!, {r0, r2, r4, r8}
    11a4:	13011349 	movwne	r1, #4937	; 0x1349
    11a8:	05160000 	ldreq	r0, [r6, #-0]
    11ac:	00134900 	andseq	r4, r3, r0, lsl #18
    11b0:	01131700 	tsteq	r3, r0, lsl #14
    11b4:	050b0e03 	streq	r0, [fp, #-3587]	; 0xfffff1fd
    11b8:	053b0b3a 	ldreq	r0, [fp, #-2874]!	; 0xfffff4c6
    11bc:	13010b39 	movwne	r0, #6969	; 0x1b39
    11c0:	0d180000 	ldceq	0, cr0, [r8, #-0]
    11c4:	3a0e0300 	bcc	381dcc <__bss_end__+0x377d6c>
    11c8:	39053b0b 	stmdbcc	r5, {r0, r1, r3, r8, r9, fp, ip, sp}
    11cc:	3813490b 	ldmdacc	r3, {r0, r1, r3, r8, fp, lr}
    11d0:	1900000b 	stmdbne	r0, {r0, r1, r3}
    11d4:	0e03000d 	cdpeq	0, 0, cr0, cr3, cr13, {0}
    11d8:	053b0b3a 	ldreq	r0, [fp, #-2874]!	; 0xfffff4c6
    11dc:	13490b39 	movtne	r0, #39737	; 0x9b39
    11e0:	00000538 	andeq	r0, r0, r8, lsr r5
    11e4:	0301131a 	movweq	r1, #4890	; 0x131a
    11e8:	3a0b0b0e 	bcc	2c3e28 <__bss_end__+0x2b9dc8>
    11ec:	39053b0b 	stmdbcc	r5, {r0, r1, r3, r8, r9, fp, ip, sp}
    11f0:	0013010b 	andseq	r0, r3, fp, lsl #2
    11f4:	01131b00 	tsteq	r3, r0, lsl #22
    11f8:	0b3a0b0b 	bleq	e83e2c <__bss_end__+0xe79dcc>
    11fc:	0b39053b 	bleq	e426f0 <__bss_end__+0xe38690>
    1200:	00001301 	andeq	r1, r0, r1, lsl #6
    1204:	0b01171c 	bleq	46e7c <__bss_end__+0x3ce1c>
    1208:	3b0b3a0b 	blcc	2cfa3c <__bss_end__+0x2c59dc>
    120c:	010b3905 	tsteq	fp, r5, lsl #18
    1210:	1d000013 	stcne	0, cr0, [r0, #-76]	; 0xffffffb4
    1214:	0e03000d 	cdpeq	0, 0, cr0, cr3, cr13, {0}
    1218:	053b0b3a 	ldreq	r0, [fp, #-2874]!	; 0xfffff4c6
    121c:	13490b39 	movtne	r0, #39737	; 0x9b39
    1220:	151e0000 	ldrne	r0, [lr, #-0]
    1224:	01192701 	tsteq	r9, r1, lsl #14
    1228:	1f000013 	svcne	0x00000013
    122c:	0e030034 	mcreq	0, 0, r0, cr3, cr4, {1}
    1230:	053b0b3a 	ldreq	r0, [fp, #-2874]!	; 0xfffff4c6
    1234:	13490b39 	movtne	r0, #39737	; 0x9b39
    1238:	193c193f 	ldmdbne	ip!, {r0, r1, r2, r3, r4, r5, r8, fp, ip}
    123c:	34200000 	strtcc	r0, [r0], #-0
    1240:	3a0e0300 	bcc	381e48 <__bss_end__+0x377de8>
    1244:	390b3b0b 	stmdbcc	fp, {r0, r1, r3, r8, r9, fp, ip, sp}
    1248:	3f13490b 	svccc	0x0013490b
    124c:	00193c19 	andseq	r3, r9, r9, lsl ip
    1250:	01132100 	tsteq	r3, r0, lsl #2
    1254:	0b0b0e03 	bleq	2c4a68 <__bss_end__+0x2baa08>
    1258:	0b3b0b3a 	bleq	ec3f48 <__bss_end__+0xeb9ee8>
    125c:	00001301 	andeq	r1, r0, r1, lsl #6
    1260:	03000d22 	movweq	r0, #3362	; 0xd22
    1264:	3813490e 	ldmdacc	r3, {r1, r2, r3, r8, fp, lr}
    1268:	0019340b 	andseq	r3, r9, fp, lsl #8
    126c:	012e2300 			; <UNDEFINED> instruction: 0x012e2300
    1270:	0e03193f 			; <UNDEFINED> instruction: 0x0e03193f
    1274:	0b3b0b3a 	bleq	ec3f64 <__bss_end__+0xeb9f04>
    1278:	19270b39 	stmdbne	r7!, {r0, r3, r4, r5, r8, r9, fp}
    127c:	01111349 	tsteq	r1, r9, asr #6
    1280:	18400612 	stmdane	r0, {r1, r4, r9, sl}^
    1284:	01194297 			; <UNDEFINED> instruction: 0x01194297
    1288:	24000013 	strcs	r0, [r0], #-19	; 0xffffffed
    128c:	08030005 	stmdaeq	r3, {r0, r2}
    1290:	0b3b0b3a 	bleq	ec3f80 <__bss_end__+0xeb9f20>
    1294:	13490b39 	movtne	r0, #39737	; 0x9b39
    1298:	42b71702 	adcsmi	r1, r7, #524288	; 0x80000
    129c:	25000017 	strcs	r0, [r0, #-23]	; 0xffffffe9
    12a0:	0e030005 	cdpeq	0, 0, cr0, cr3, cr5, {0}
    12a4:	0b3b0b3a 	bleq	ec3f94 <__bss_end__+0xeb9f34>
    12a8:	13490b39 	movtne	r0, #39737	; 0x9b39
    12ac:	00001802 	andeq	r1, r0, r2, lsl #16
    12b0:	03003426 	movweq	r3, #1062	; 0x426
    12b4:	3b0b3a08 	blcc	2cfadc <__bss_end__+0x2c5a7c>
    12b8:	490b390b 	stmdbmi	fp, {r0, r1, r3, r8, fp, ip, sp}
    12bc:	b7170213 			; <UNDEFINED> instruction: 0xb7170213
    12c0:	00001742 	andeq	r1, r0, r2, asr #14
    12c4:	03003427 	movweq	r3, #1063	; 0x427
    12c8:	3413490e 	ldrcc	r4, [r3], #-2318	; 0xfffff6f2
    12cc:	00180219 	andseq	r0, r8, r9, lsl r2
    12d0:	010b2800 	tsteq	fp, r0, lsl #16
    12d4:	06120111 			; <UNDEFINED> instruction: 0x06120111
    12d8:	34290000 	strtcc	r0, [r9], #-0
    12dc:	3a080300 	bcc	201ee4 <__bss_end__+0x1f7e84>
    12e0:	390b3b0b 	stmdbcc	fp, {r0, r1, r3, r8, r9, fp, ip, sp}
    12e4:	0213490b 	andseq	r4, r3, #180224	; 0x2c000
    12e8:	2a000018 	bcs	1350 <_start-0x6cb0>
    12ec:	0e030034 	mcreq	0, 0, r0, cr3, cr4, {1}
    12f0:	0b3b0b3a 	bleq	ec3fe0 <__bss_end__+0xeb9f80>
    12f4:	13490b39 	movtne	r0, #39737	; 0x9b39
    12f8:	42b71702 	adcsmi	r1, r7, #524288	; 0x80000
    12fc:	2b000017 	blcs	1360 <_start-0x6ca0>
    1300:	01018289 	smlabbeq	r1, r9, r2, r8
    1304:	13310111 	teqne	r1, #1073741828	; 0x40000004
    1308:	00001301 	andeq	r1, r0, r1, lsl #6
    130c:	01828a2c 	orreq	r8, r2, ip, lsr #20
    1310:	91180200 	tstls	r8, r0, lsl #4
    1314:	00001842 	andeq	r1, r0, r2, asr #16
    1318:	0182892d 	orreq	r8, r2, sp, lsr #18
    131c:	31011100 	mrscc	r1, (UNDEF: 17)
    1320:	2e000013 	mcrcs	0, 0, r0, cr0, cr3, {0}
    1324:	0e03012e 	adfeqsp	f0, f3, #0.5
    1328:	0b3b0b3a 	bleq	ec4018 <__bss_end__+0xeb9fb8>
    132c:	19270b39 	stmdbne	r7!, {r0, r3, r4, r5, r8, r9, fp}
    1330:	01111349 	tsteq	r1, r9, asr #6
    1334:	18400612 	stmdane	r0, {r1, r4, r9, sl}^
    1338:	01194297 			; <UNDEFINED> instruction: 0x01194297
    133c:	2f000013 	svccs	0x00000013
    1340:	0e030005 	cdpeq	0, 0, cr0, cr3, cr5, {0}
    1344:	0b3b0b3a 	bleq	ec4034 <__bss_end__+0xeb9fd4>
    1348:	13490b39 	movtne	r0, #39737	; 0x9b39
    134c:	42b71702 	adcsmi	r1, r7, #524288	; 0x80000
    1350:	30000017 	andcc	r0, r0, r7, lsl r0
    1354:	0111010b 	tsteq	r1, fp, lsl #2
    1358:	13010612 	movwne	r0, #5650	; 0x1612
    135c:	2e310000 	cdpcs	0, 3, cr0, cr1, cr0, {0}
    1360:	3a080301 	bcc	201f6c <__bss_end__+0x1f7f0c>
    1364:	390b3b0b 	stmdbcc	fp, {r0, r1, r3, r8, r9, fp, ip, sp}
    1368:	4919270b 	ldmdbmi	r9, {r0, r1, r3, r8, r9, sl, sp}
    136c:	12011113 	andne	r1, r1, #-1073741820	; 0xc0000004
    1370:	97184006 	ldrls	r4, [r8, -r6]
    1374:	13011942 	movwne	r1, #6466	; 0x1942
    1378:	2e320000 	cdpcs	0, 3, cr0, cr2, cr0, {0}
    137c:	03193f01 	tsteq	r9, #1, 30
    1380:	3b0b3a0e 	blcc	2cfbc0 <__bss_end__+0x2c5b60>
    1384:	270b390b 	strcs	r3, [fp, -fp, lsl #18]
    1388:	12011119 	andne	r1, r1, #1073741830	; 0x40000006
    138c:	97184006 	ldrls	r4, [r8, -r6]
    1390:	13011942 	movwne	r1, #6466	; 0x1942
    1394:	2e330000 	cdpcs	0, 3, cr0, cr3, cr0, {0}
    1398:	3c193f00 	ldccc	15, cr3, [r9], {-0}
    139c:	030e6e19 	movweq	r6, #60953	; 0xee19
    13a0:	3b0b3a0e 	blcc	2cfbe0 <__bss_end__+0x2c5b80>
    13a4:	000b390b 	andeq	r3, fp, fp, lsl #18
    13a8:	11010000 	mrsne	r0, (UNDEF: 1)
    13ac:	130e2501 	movwne	r2, #58625	; 0xe501
    13b0:	1b0e030b 	blne	381fe4 <__bss_end__+0x377f84>
    13b4:	1201110e 	andne	r1, r1, #-2147483645	; 0x80000003
    13b8:	00171006 	andseq	r1, r7, r6
    13bc:	00240200 	eoreq	r0, r4, r0, lsl #4
    13c0:	0b3e0b0b 	bleq	f83ff4 <__bss_end__+0xf79f94>
    13c4:	00000803 	andeq	r0, r0, r3, lsl #16
    13c8:	0b002403 	bleq	a3dc <__bss_end__+0x37c>
    13cc:	030b3e0b 	movweq	r3, #48651	; 0xbe0b
    13d0:	0400000e 	streq	r0, [r0], #-14
    13d4:	0e030016 	mcreq	0, 0, r0, cr3, cr6, {0}
    13d8:	0b3b0b3a 	bleq	ec40c8 <__bss_end__+0xeba068>
    13dc:	13490b39 	movtne	r0, #39737	; 0x9b39
    13e0:	0f050000 	svceq	0x00050000
    13e4:	490b0b00 	stmdbmi	fp, {r8, r9, fp}
    13e8:	06000013 			; <UNDEFINED> instruction: 0x06000013
    13ec:	0e030013 	mcreq	0, 0, r0, cr3, cr3, {0}
    13f0:	0000193c 	andeq	r1, r0, ip, lsr r9
    13f4:	03001607 	movweq	r1, #1543	; 0x607
    13f8:	3b0b3a0e 	blcc	2cfc38 <__bss_end__+0x2c5bd8>
    13fc:	490b3905 	stmdbmi	fp, {r0, r2, r8, fp, ip, sp}
    1400:	08000013 	stmdaeq	r0, {r0, r1, r4}
    1404:	0b0b0117 	bleq	2c1868 <__bss_end__+0x2b7808>
    1408:	0b3b0b3a 	bleq	ec40f8 <__bss_end__+0xeba098>
    140c:	13010b39 	movwne	r0, #6969	; 0x1b39
    1410:	0d090000 	stceq	0, cr0, [r9, #-0]
    1414:	3a0e0300 	bcc	38201c <__bss_end__+0x377fbc>
    1418:	390b3b0b 	stmdbcc	fp, {r0, r1, r3, r8, r9, fp, ip, sp}
    141c:	0013490b 	andseq	r4, r3, fp, lsl #18
    1420:	01010a00 	tsteq	r1, r0, lsl #20
    1424:	13011349 	movwne	r1, #4937	; 0x1349
    1428:	210b0000 	mrscs	r0, (UNDEF: 11)
    142c:	2f134900 	svccs	0x00134900
    1430:	0c00000b 	stceq	0, cr0, [r0], {11}
    1434:	0b0b0113 	bleq	2c1888 <__bss_end__+0x2b7828>
    1438:	0b3b0b3a 	bleq	ec4128 <__bss_end__+0xeba0c8>
    143c:	13010b39 	movwne	r0, #6969	; 0x1b39
    1440:	0d0d0000 	stceq	0, cr0, [sp, #-0]
    1444:	3a0e0300 	bcc	38204c <__bss_end__+0x377fec>
    1448:	390b3b0b 	stmdbcc	fp, {r0, r1, r3, r8, r9, fp, ip, sp}
    144c:	3813490b 	ldmdacc	r3, {r0, r1, r3, r8, fp, lr}
    1450:	0e00000b 	cdpeq	0, 0, cr0, cr0, cr11, {0}
    1454:	0b0b000f 	bleq	2c1498 <__bss_end__+0x2b7438>
    1458:	260f0000 	strcs	r0, [pc], -r0
    145c:	00134900 	andseq	r4, r3, r0, lsl #18
    1460:	01131000 	tsteq	r3, r0
    1464:	0b0b0e03 	bleq	2c4c78 <__bss_end__+0x2bac18>
    1468:	0b3b0b3a 	bleq	ec4158 <__bss_end__+0xeba0f8>
    146c:	13010b39 	movwne	r0, #6969	; 0x1b39
    1470:	0d110000 	ldceq	0, cr0, [r1, #-0]
    1474:	3a080300 	bcc	20207c <__bss_end__+0x1f801c>
    1478:	390b3b0b 	stmdbcc	fp, {r0, r1, r3, r8, r9, fp, ip, sp}
    147c:	3813490b 	ldmdacc	r3, {r0, r1, r3, r8, fp, lr}
    1480:	1200000b 	andne	r0, r0, #11
    1484:	0e030113 	mcreq	1, 0, r0, cr3, cr3, {0}
    1488:	0b3a050b 	bleq	e828bc <__bss_end__+0xe7885c>
    148c:	0b390b3b 	bleq	e44180 <__bss_end__+0xe3a120>
    1490:	00001301 	andeq	r1, r0, r1, lsl #6
    1494:	03000d13 	movweq	r0, #3347	; 0xd13
    1498:	3b0b3a0e 	blcc	2cfcd8 <__bss_end__+0x2c5c78>
    149c:	490b390b 	stmdbmi	fp, {r0, r1, r3, r8, fp, ip, sp}
    14a0:	00053813 	andeq	r3, r5, r3, lsl r8
    14a4:	00151400 	andseq	r1, r5, r0, lsl #8
    14a8:	00001927 	andeq	r1, r0, r7, lsr #18
    14ac:	27011515 	smladcs	r1, r5, r5, r1
    14b0:	01134919 	tsteq	r3, r9, lsl r9
    14b4:	16000013 			; <UNDEFINED> instruction: 0x16000013
    14b8:	13490005 	movtne	r0, #36869	; 0x9005
    14bc:	13170000 	tstne	r7, #0
    14c0:	0b0e0301 	bleq	3820cc <__bss_end__+0x37806c>
    14c4:	3b0b3a05 	blcc	2cfce0 <__bss_end__+0x2c5c80>
    14c8:	010b3905 	tsteq	fp, r5, lsl #18
    14cc:	18000013 	stmdane	r0, {r0, r1, r4}
    14d0:	0e03000d 	cdpeq	0, 0, cr0, cr3, cr13, {0}
    14d4:	053b0b3a 	ldreq	r0, [fp, #-2874]!	; 0xfffff4c6
    14d8:	13490b39 	movtne	r0, #39737	; 0x9b39
    14dc:	00000b38 	andeq	r0, r0, r8, lsr fp
    14e0:	03000d19 	movweq	r0, #3353	; 0xd19
    14e4:	3b0b3a0e 	blcc	2cfd24 <__bss_end__+0x2c5cc4>
    14e8:	490b3905 	stmdbmi	fp, {r0, r2, r8, fp, ip, sp}
    14ec:	00053813 	andeq	r3, r5, r3, lsl r8
    14f0:	01131a00 	tsteq	r3, r0, lsl #20
    14f4:	0b0b0e03 	bleq	2c4d08 <__bss_end__+0x2baca8>
    14f8:	053b0b3a 	ldreq	r0, [fp, #-2874]!	; 0xfffff4c6
    14fc:	13010b39 	movwne	r0, #6969	; 0x1b39
    1500:	131b0000 	tstne	fp, #0
    1504:	3a0b0b01 	bcc	2c4110 <__bss_end__+0x2ba0b0>
    1508:	39053b0b 	stmdbcc	r5, {r0, r1, r3, r8, r9, fp, ip, sp}
    150c:	0013010b 	andseq	r0, r3, fp, lsl #2
    1510:	01171c00 	tsteq	r7, r0, lsl #24
    1514:	0b3a0b0b 	bleq	e84148 <__bss_end__+0xe7a0e8>
    1518:	0b39053b 	bleq	e42a0c <__bss_end__+0xe389ac>
    151c:	00001301 	andeq	r1, r0, r1, lsl #6
    1520:	03000d1d 	movweq	r0, #3357	; 0xd1d
    1524:	3b0b3a0e 	blcc	2cfd64 <__bss_end__+0x2c5d04>
    1528:	490b3905 	stmdbmi	fp, {r0, r2, r8, fp, ip, sp}
    152c:	1e000013 	mcrne	0, 0, r0, cr0, cr3, {0}
    1530:	19270115 	stmdbne	r7!, {r0, r2, r4, r8}
    1534:	00001301 	andeq	r1, r0, r1, lsl #6
    1538:	0300341f 	movweq	r3, #1055	; 0x41f
    153c:	3b0b3a0e 	blcc	2cfd7c <__bss_end__+0x2c5d1c>
    1540:	490b3905 	stmdbmi	fp, {r0, r2, r8, fp, ip, sp}
    1544:	3c193f13 	ldccc	15, cr3, [r9], {19}
    1548:	20000019 	andcs	r0, r0, r9, lsl r0
    154c:	0e030034 	mcreq	0, 0, r0, cr3, cr4, {1}
    1550:	0b3b0b3a 	bleq	ec4240 <__bss_end__+0xeba1e0>
    1554:	13490b39 	movtne	r0, #39737	; 0x9b39
    1558:	193c193f 	ldmdbne	ip!, {r0, r1, r2, r3, r4, r5, r8, fp, ip}
    155c:	2e210000 	cdpcs	0, 2, cr0, cr1, cr0, {0}
    1560:	03193f01 	tsteq	r9, #1, 30
    1564:	3b0b3a0e 	blcc	2cfda4 <__bss_end__+0x2c5d44>
    1568:	270b390b 	strcs	r3, [fp, -fp, lsl #18]
    156c:	19018719 	stmdbne	r1, {r0, r3, r4, r8, r9, sl, pc}
    1570:	06120111 			; <UNDEFINED> instruction: 0x06120111
    1574:	42971840 	addsmi	r1, r7, #64, 16	; 0x400000
    1578:	00130119 	andseq	r0, r3, r9, lsl r1
    157c:	82892200 	addhi	r2, r9, #0, 4
    1580:	01110101 	tsteq	r1, r1, lsl #2
    1584:	00001301 	andeq	r1, r0, r1, lsl #6
    1588:	01828a23 	orreq	r8, r2, r3, lsr #20
    158c:	91180200 	tstls	r8, r0, lsl #4
    1590:	00001842 	andeq	r1, r0, r2, asr #16
    1594:	01828924 	orreq	r8, r2, r4, lsr #18
    1598:	31011101 	tstcc	r1, r1, lsl #2
    159c:	00130113 	andseq	r0, r3, r3, lsl r1
    15a0:	82892500 	addhi	r2, r9, #0, 10
    15a4:	01110001 	tsteq	r1, r1
    15a8:	00001331 	andeq	r1, r0, r1, lsr r3
    15ac:	3f002e26 	svccc	0x00002e26
    15b0:	6e193c19 	mrcvs	12, 0, r3, cr9, cr9, {0}
    15b4:	3a0e030e 	bcc	3821f4 <__bss_end__+0x378194>
    15b8:	390b3b0b 	stmdbcc	fp, {r0, r1, r3, r8, r9, fp, ip, sp}
    15bc:	0000000b 	andeq	r0, r0, fp
    15c0:	25011101 	strcs	r1, [r1, #-257]	; 0xfffffeff
    15c4:	030b130e 	movweq	r1, #45838	; 0xb30e
    15c8:	110e1b0e 	tstne	lr, lr, lsl #22
    15cc:	10061201 	andne	r1, r6, r1, lsl #4
    15d0:	02000017 	andeq	r0, r0, #23
    15d4:	0b0b0024 	bleq	2c166c <__bss_end__+0x2b760c>
    15d8:	08030b3e 	stmdaeq	r3, {r1, r2, r3, r4, r5, r8, r9, fp}
    15dc:	24030000 	strcs	r0, [r3], #-0
    15e0:	3e0b0b00 	vmlacc.f64	d0, d11, d0
    15e4:	000e030b 	andeq	r0, lr, fp, lsl #6
    15e8:	00160400 	andseq	r0, r6, r0, lsl #8
    15ec:	0b3a0e03 	bleq	e84e00 <__bss_end__+0xe7ada0>
    15f0:	0b390b3b 	bleq	e442e4 <__bss_end__+0xe3a284>
    15f4:	00001349 	andeq	r1, r0, r9, asr #6
    15f8:	0b000f05 	bleq	5214 <_start-0x2dec>
    15fc:	0013490b 	andseq	r4, r3, fp, lsl #18
    1600:	00130600 	andseq	r0, r3, r0, lsl #12
    1604:	193c0e03 	ldmdbne	ip!, {r0, r1, r9, sl, fp}
    1608:	16070000 	strne	r0, [r7], -r0
    160c:	3a0e0300 	bcc	382214 <__bss_end__+0x3781b4>
    1610:	39053b0b 	stmdbcc	r5, {r0, r1, r3, r8, r9, fp, ip, sp}
    1614:	0013490b 	andseq	r4, r3, fp, lsl #18
    1618:	01170800 	tsteq	r7, r0, lsl #16
    161c:	0b3a0b0b 	bleq	e84250 <__bss_end__+0xe7a1f0>
    1620:	0b390b3b 	bleq	e44314 <__bss_end__+0xe3a2b4>
    1624:	00001301 	andeq	r1, r0, r1, lsl #6
    1628:	03000d09 	movweq	r0, #3337	; 0xd09
    162c:	3b0b3a0e 	blcc	2cfe6c <__bss_end__+0x2c5e0c>
    1630:	490b390b 	stmdbmi	fp, {r0, r1, r3, r8, fp, ip, sp}
    1634:	0a000013 	beq	1688 <_start-0x6978>
    1638:	13490101 	movtne	r0, #37121	; 0x9101
    163c:	00001301 	andeq	r1, r0, r1, lsl #6
    1640:	4900210b 	stmdbmi	r0, {r0, r1, r3, r8, sp}
    1644:	000b2f13 	andeq	r2, fp, r3, lsl pc
    1648:	01130c00 	tsteq	r3, r0, lsl #24
    164c:	0b3a0b0b 	bleq	e84280 <__bss_end__+0xe7a220>
    1650:	0b390b3b 	bleq	e44344 <__bss_end__+0xe3a2e4>
    1654:	00001301 	andeq	r1, r0, r1, lsl #6
    1658:	03000d0d 	movweq	r0, #3341	; 0xd0d
    165c:	3b0b3a0e 	blcc	2cfe9c <__bss_end__+0x2c5e3c>
    1660:	490b390b 	stmdbmi	fp, {r0, r1, r3, r8, fp, ip, sp}
    1664:	000b3813 	andeq	r3, fp, r3, lsl r8
    1668:	000f0e00 	andeq	r0, pc, r0, lsl #28
    166c:	00000b0b 	andeq	r0, r0, fp, lsl #22
    1670:	4900260f 	stmdbmi	r0, {r0, r1, r2, r3, r9, sl, sp}
    1674:	10000013 	andne	r0, r0, r3, lsl r0
    1678:	0e030113 	mcreq	1, 0, r0, cr3, cr3, {0}
    167c:	0b3a0b0b 	bleq	e842b0 <__bss_end__+0xe7a250>
    1680:	0b390b3b 	bleq	e44374 <__bss_end__+0xe3a314>
    1684:	00001301 	andeq	r1, r0, r1, lsl #6
    1688:	03000d11 	movweq	r0, #3345	; 0xd11
    168c:	3b0b3a08 	blcc	2cfeb4 <__bss_end__+0x2c5e54>
    1690:	490b390b 	stmdbmi	fp, {r0, r1, r3, r8, fp, ip, sp}
    1694:	000b3813 	andeq	r3, fp, r3, lsl r8
    1698:	01131200 	tsteq	r3, r0, lsl #4
    169c:	050b0e03 	streq	r0, [fp, #-3587]	; 0xfffff1fd
    16a0:	0b3b0b3a 	bleq	ec4390 <__bss_end__+0xeba330>
    16a4:	13010b39 	movwne	r0, #6969	; 0x1b39
    16a8:	0d130000 	ldceq	0, cr0, [r3, #-0]
    16ac:	3a0e0300 	bcc	3822b4 <__bss_end__+0x378254>
    16b0:	390b3b0b 	stmdbcc	fp, {r0, r1, r3, r8, r9, fp, ip, sp}
    16b4:	3813490b 	ldmdacc	r3, {r0, r1, r3, r8, fp, lr}
    16b8:	14000005 	strne	r0, [r0], #-5
    16bc:	19270015 	stmdbne	r7!, {r0, r2, r4}
    16c0:	15150000 	ldrne	r0, [r5, #-0]
    16c4:	49192701 	ldmdbmi	r9, {r0, r8, r9, sl, sp}
    16c8:	00130113 	andseq	r0, r3, r3, lsl r1
    16cc:	00051600 	andeq	r1, r5, r0, lsl #12
    16d0:	00001349 	andeq	r1, r0, r9, asr #6
    16d4:	03011317 	movweq	r1, #4887	; 0x1317
    16d8:	3a050b0e 	bcc	144318 <__bss_end__+0x13a2b8>
    16dc:	39053b0b 	stmdbcc	r5, {r0, r1, r3, r8, r9, fp, ip, sp}
    16e0:	0013010b 	andseq	r0, r3, fp, lsl #2
    16e4:	000d1800 	andeq	r1, sp, r0, lsl #16
    16e8:	0b3a0e03 	bleq	e84efc <__bss_end__+0xe7ae9c>
    16ec:	0b39053b 	bleq	e42be0 <__bss_end__+0xe38b80>
    16f0:	0b381349 	bleq	e0641c <__bss_end__+0xdfc3bc>
    16f4:	0d190000 	ldceq	0, cr0, [r9, #-0]
    16f8:	3a0e0300 	bcc	382300 <__bss_end__+0x3782a0>
    16fc:	39053b0b 	stmdbcc	r5, {r0, r1, r3, r8, r9, fp, ip, sp}
    1700:	3813490b 	ldmdacc	r3, {r0, r1, r3, r8, fp, lr}
    1704:	1a000005 	bne	1720 <_start-0x68e0>
    1708:	0e030113 	mcreq	1, 0, r0, cr3, cr3, {0}
    170c:	0b3a0b0b 	bleq	e84340 <__bss_end__+0xe7a2e0>
    1710:	0b39053b 	bleq	e42c04 <__bss_end__+0xe38ba4>
    1714:	00001301 	andeq	r1, r0, r1, lsl #6
    1718:	0b01131b 	bleq	4638c <__bss_end__+0x3c32c>
    171c:	3b0b3a0b 	blcc	2cff50 <__bss_end__+0x2c5ef0>
    1720:	010b3905 	tsteq	fp, r5, lsl #18
    1724:	1c000013 	stcne	0, cr0, [r0], {19}
    1728:	0b0b0117 	bleq	2c1b8c <__bss_end__+0x2b7b2c>
    172c:	053b0b3a 	ldreq	r0, [fp, #-2874]!	; 0xfffff4c6
    1730:	13010b39 	movwne	r0, #6969	; 0x1b39
    1734:	0d1d0000 	ldceq	0, cr0, [sp, #-0]
    1738:	3a0e0300 	bcc	382340 <__bss_end__+0x3782e0>
    173c:	39053b0b 	stmdbcc	r5, {r0, r1, r3, r8, r9, fp, ip, sp}
    1740:	0013490b 	andseq	r4, r3, fp, lsl #18
    1744:	01151e00 	tsteq	r5, r0, lsl #28
    1748:	13011927 	movwne	r1, #6439	; 0x1927
    174c:	341f0000 	ldrcc	r0, [pc], #-0	; 1754 <_start-0x68ac>
    1750:	3a0e0300 	bcc	382358 <__bss_end__+0x3782f8>
    1754:	39053b0b 	stmdbcc	r5, {r0, r1, r3, r8, r9, fp, ip, sp}
    1758:	3f13490b 	svccc	0x0013490b
    175c:	00193c19 	andseq	r3, r9, r9, lsl ip
    1760:	00342000 	eorseq	r2, r4, r0
    1764:	0b3a0e03 	bleq	e84f78 <__bss_end__+0xe7af18>
    1768:	0b390b3b 	bleq	e4445c <__bss_end__+0xe3a3fc>
    176c:	193f1349 	ldmdbne	pc!, {r0, r3, r6, r8, r9, ip}	; <UNPREDICTABLE>
    1770:	0000193c 	andeq	r1, r0, ip, lsr r9
    1774:	3f012e21 	svccc	0x00012e21
    1778:	3a0e0319 	bcc	3823e4 <__bss_end__+0x378384>
    177c:	390b3b0b 	stmdbcc	fp, {r0, r1, r3, r8, r9, fp, ip, sp}
    1780:	1201110b 	andne	r1, r1, #-1073741822	; 0xc0000002
    1784:	97184006 	ldrls	r4, [r8, -r6]
    1788:	13011942 	movwne	r1, #6466	; 0x1942
    178c:	2e220000 	cdpcs	0, 2, cr0, cr2, cr0, {0}
    1790:	03193f00 	tsteq	r9, #0, 30
    1794:	3b0b3a0e 	blcc	2cffd4 <__bss_end__+0x2c5f74>
    1798:	270b390b 	strcs	r3, [fp, -fp, lsl #18]
    179c:	00193c19 	andseq	r3, r9, r9, lsl ip
    17a0:	00342300 	eorseq	r2, r4, r0, lsl #6
    17a4:	0b3a0803 	bleq	e837b8 <__bss_end__+0xe79758>
    17a8:	0b390b3b 	bleq	e4449c <__bss_end__+0xe3a43c>
    17ac:	17021349 	strne	r1, [r2, -r9, asr #6]
    17b0:	001742b7 			; <UNDEFINED> instruction: 0x001742b7
    17b4:	00342400 	eorseq	r2, r4, r0, lsl #8
    17b8:	0b3a0e03 	bleq	e84fcc <__bss_end__+0xe7af6c>
    17bc:	0b390b3b 	bleq	e444b0 <__bss_end__+0xe3a450>
    17c0:	00001349 	andeq	r1, r0, r9, asr #6
    17c4:	01828925 	orreq	r8, r2, r5, lsr #18
    17c8:	31011100 	mrscc	r1, (UNDEF: 17)
    17cc:	26000013 			; <UNDEFINED> instruction: 0x26000013
    17d0:	193f002e 	ldmdbne	pc!, {r1, r2, r3, r5}	; <UNPREDICTABLE>
    17d4:	0e6e193c 			; <UNDEFINED> instruction: 0x0e6e193c
    17d8:	0b3a0e03 	bleq	e84fec <__bss_end__+0xe7af8c>
    17dc:	0b390b3b 	bleq	e444d0 <__bss_end__+0xe3a470>
    17e0:	01000000 	mrseq	r0, (UNDEF: 0)
    17e4:	0e250111 	mcreq	1, 1, r0, cr5, cr1, {0}
    17e8:	0e030b13 	vmoveq.32	d3[0], r0
    17ec:	17550e1b 	smmlane	r5, fp, lr, r0
    17f0:	17100111 			; <UNDEFINED> instruction: 0x17100111
    17f4:	24020000 	strcs	r0, [r2], #-0
    17f8:	3e0b0b00 	vmlacc.f64	d0, d11, d0
    17fc:	0008030b 	andeq	r0, r8, fp, lsl #6
    1800:	00260300 	eoreq	r0, r6, r0, lsl #6
    1804:	00001349 	andeq	r1, r0, r9, asr #6
    1808:	0b002404 	bleq	a820 <__bss_end__+0x7c0>
    180c:	030b3e0b 	movweq	r3, #48651	; 0xbe0b
    1810:	0500000e 	streq	r0, [r0, #-14]
    1814:	0e030016 	mcreq	0, 0, r0, cr3, cr6, {0}
    1818:	0b3b0b3a 	bleq	ec4508 <__bss_end__+0xeba4a8>
    181c:	13490b39 	movtne	r0, #39737	; 0x9b39
    1820:	0f060000 	svceq	0x00060000
    1824:	490b0b00 	stmdbmi	fp, {r8, r9, fp}
    1828:	07000013 	smladeq	r0, r3, r0, r0
    182c:	0e030013 	mcreq	0, 0, r0, cr3, cr3, {0}
    1830:	0000193c 	andeq	r1, r0, ip, lsr r9
    1834:	03001608 	movweq	r1, #1544	; 0x608
    1838:	3b0b3a0e 	blcc	2d0078 <__bss_end__+0x2c6018>
    183c:	490b3905 	stmdbmi	fp, {r0, r2, r8, fp, ip, sp}
    1840:	09000013 	stmdbeq	r0, {r0, r1, r4}
    1844:	0b0b0117 	bleq	2c1ca8 <__bss_end__+0x2b7c48>
    1848:	0b3b0b3a 	bleq	ec4538 <__bss_end__+0xeba4d8>
    184c:	13010b39 	movwne	r0, #6969	; 0x1b39
    1850:	0d0a0000 	stceq	0, cr0, [sl, #-0]
    1854:	3a0e0300 	bcc	38245c <__bss_end__+0x3783fc>
    1858:	390b3b0b 	stmdbcc	fp, {r0, r1, r3, r8, r9, fp, ip, sp}
    185c:	0013490b 	andseq	r4, r3, fp, lsl #18
    1860:	01010b00 	tsteq	r1, r0, lsl #22
    1864:	13011349 	movwne	r1, #4937	; 0x1349
    1868:	210c0000 	mrscs	r0, (UNDEF: 12)
    186c:	2f134900 	svccs	0x00134900
    1870:	0d00000b 	stceq	0, cr0, [r0, #-44]	; 0xffffffd4
    1874:	0b0b0113 	bleq	2c1cc8 <__bss_end__+0x2b7c68>
    1878:	0b3b0b3a 	bleq	ec4568 <__bss_end__+0xeba508>
    187c:	13010b39 	movwne	r0, #6969	; 0x1b39
    1880:	0d0e0000 	stceq	0, cr0, [lr, #-0]
    1884:	3a0e0300 	bcc	38248c <__bss_end__+0x37842c>
    1888:	390b3b0b 	stmdbcc	fp, {r0, r1, r3, r8, r9, fp, ip, sp}
    188c:	3813490b 	ldmdacc	r3, {r0, r1, r3, r8, fp, lr}
    1890:	0f00000b 	svceq	0x0000000b
    1894:	0b0b000f 	bleq	2c18d8 <__bss_end__+0x2b7878>
    1898:	13100000 	tstne	r0, #0
    189c:	0b0e0301 	bleq	3824a8 <__bss_end__+0x378448>
    18a0:	3b0b3a0b 	blcc	2d00d4 <__bss_end__+0x2c6074>
    18a4:	010b390b 	tsteq	fp, fp, lsl #18
    18a8:	11000013 	tstne	r0, r3, lsl r0
    18ac:	0803000d 	stmdaeq	r3, {r0, r2, r3}
    18b0:	0b3b0b3a 	bleq	ec45a0 <__bss_end__+0xeba540>
    18b4:	13490b39 	movtne	r0, #39737	; 0x9b39
    18b8:	00000b38 	andeq	r0, r0, r8, lsr fp
    18bc:	03011312 	movweq	r1, #4882	; 0x1312
    18c0:	3a050b0e 	bcc	144500 <__bss_end__+0x13a4a0>
    18c4:	390b3b0b 	stmdbcc	fp, {r0, r1, r3, r8, r9, fp, ip, sp}
    18c8:	0013010b 	andseq	r0, r3, fp, lsl #2
    18cc:	000d1300 	andeq	r1, sp, r0, lsl #6
    18d0:	0b3a0e03 	bleq	e850e4 <__bss_end__+0xe7b084>
    18d4:	0b390b3b 	bleq	e445c8 <__bss_end__+0xe3a568>
    18d8:	05381349 	ldreq	r1, [r8, #-841]!	; 0xfffffcb7
    18dc:	15140000 	ldrne	r0, [r4, #-0]
    18e0:	00192700 	andseq	r2, r9, r0, lsl #14
    18e4:	01151500 	tsteq	r5, r0, lsl #10
    18e8:	13491927 	movtne	r1, #39207	; 0x9927
    18ec:	00001301 	andeq	r1, r0, r1, lsl #6
    18f0:	49000516 	stmdbmi	r0, {r1, r2, r4, r8, sl}
    18f4:	17000013 	smladne	r0, r3, r0, r0
    18f8:	0e030113 	mcreq	1, 0, r0, cr3, cr3, {0}
    18fc:	0b3a050b 	bleq	e82d30 <__bss_end__+0xe78cd0>
    1900:	0b39053b 	bleq	e42df4 <__bss_end__+0xe38d94>
    1904:	00001301 	andeq	r1, r0, r1, lsl #6
    1908:	03000d18 	movweq	r0, #3352	; 0xd18
    190c:	3b0b3a0e 	blcc	2d014c <__bss_end__+0x2c60ec>
    1910:	490b3905 	stmdbmi	fp, {r0, r2, r8, fp, ip, sp}
    1914:	000b3813 	andeq	r3, fp, r3, lsl r8
    1918:	000d1900 	andeq	r1, sp, r0, lsl #18
    191c:	0b3a0e03 	bleq	e85130 <__bss_end__+0xe7b0d0>
    1920:	0b39053b 	bleq	e42e14 <__bss_end__+0xe38db4>
    1924:	05381349 	ldreq	r1, [r8, #-841]!	; 0xfffffcb7
    1928:	131a0000 	tstne	sl, #0
    192c:	0b0e0301 	bleq	382538 <__bss_end__+0x3784d8>
    1930:	3b0b3a0b 	blcc	2d0164 <__bss_end__+0x2c6104>
    1934:	010b3905 	tsteq	fp, r5, lsl #18
    1938:	1b000013 	blne	198c <_start-0x6674>
    193c:	0b0b0113 	bleq	2c1d90 <__bss_end__+0x2b7d30>
    1940:	053b0b3a 	ldreq	r0, [fp, #-2874]!	; 0xfffff4c6
    1944:	13010b39 	movwne	r0, #6969	; 0x1b39
    1948:	171c0000 	ldrne	r0, [ip, -r0]
    194c:	3a0b0b01 	bcc	2c4558 <__bss_end__+0x2ba4f8>
    1950:	39053b0b 	stmdbcc	r5, {r0, r1, r3, r8, r9, fp, ip, sp}
    1954:	0013010b 	andseq	r0, r3, fp, lsl #2
    1958:	000d1d00 	andeq	r1, sp, r0, lsl #26
    195c:	0b3a0e03 	bleq	e85170 <__bss_end__+0xe7b110>
    1960:	0b39053b 	bleq	e42e54 <__bss_end__+0xe38df4>
    1964:	00001349 	andeq	r1, r0, r9, asr #6
    1968:	2701151e 	smladcs	r1, lr, r5, r1
    196c:	00130119 	andseq	r0, r3, r9, lsl r1
    1970:	00341f00 	eorseq	r1, r4, r0, lsl #30
    1974:	0b3a0e03 	bleq	e85188 <__bss_end__+0xe7b128>
    1978:	0b39053b 	bleq	e42e6c <__bss_end__+0xe38e0c>
    197c:	193f1349 	ldmdbne	pc!, {r0, r3, r6, r8, r9, ip}	; <UNPREDICTABLE>
    1980:	0000193c 	andeq	r1, r0, ip, lsr r9
    1984:	03003420 	movweq	r3, #1056	; 0x420
    1988:	3b0b3a0e 	blcc	2d01c8 <__bss_end__+0x2c6168>
    198c:	490b390b 	stmdbmi	fp, {r0, r1, r3, r8, fp, ip, sp}
    1990:	3c193f13 	ldccc	15, cr3, [r9], {19}
    1994:	21000019 	tstcs	r0, r9, lsl r0
    1998:	0e030034 	mcreq	0, 0, r0, cr3, cr4, {1}
    199c:	0b3b0b3a 	bleq	ec468c <__bss_end__+0xeba62c>
    19a0:	13490b39 	movtne	r0, #39737	; 0x9b39
    19a4:	2e220000 	cdpcs	0, 2, cr0, cr2, cr0, {0}
    19a8:	03193f01 	tsteq	r9, #1, 30
    19ac:	3b0b3a0e 	blcc	2d01ec <__bss_end__+0x2c618c>
    19b0:	270b390b 	strcs	r3, [fp, -fp, lsl #18]
    19b4:	19018719 	stmdbne	r1, {r0, r3, r4, r8, r9, sl, pc}
    19b8:	06120111 			; <UNDEFINED> instruction: 0x06120111
    19bc:	42971840 	addsmi	r1, r7, #64, 16	; 0x400000
    19c0:	00130119 	andseq	r0, r3, r9, lsl r1
    19c4:	00342300 	eorseq	r2, r4, r0, lsl #6
    19c8:	0b3a0e03 	bleq	e851dc <__bss_end__+0xe7b17c>
    19cc:	0b390b3b 	bleq	e446c0 <__bss_end__+0xe3a660>
    19d0:	17021349 	strne	r1, [r2, -r9, asr #6]
    19d4:	001742b7 			; <UNDEFINED> instruction: 0x001742b7
    19d8:	82892400 	addhi	r2, r9, #0, 8
    19dc:	01110001 	tsteq	r1, r1
    19e0:	00001331 	andeq	r1, r0, r1, lsr r3
    19e4:	01828925 	orreq	r8, r2, r5, lsr #18
    19e8:	31011101 	tstcc	r1, r1, lsl #2
    19ec:	00130113 	andseq	r0, r3, r3, lsl r1
    19f0:	828a2600 	addhi	r2, sl, #0, 12
    19f4:	18020001 	stmdane	r2, {r0}
    19f8:	00184291 	mulseq	r8, r1, r2
    19fc:	012e2700 			; <UNDEFINED> instruction: 0x012e2700
    1a00:	0e03193f 			; <UNDEFINED> instruction: 0x0e03193f
    1a04:	0b3b0b3a 	bleq	ec46f4 <__bss_end__+0xeba694>
    1a08:	19270b39 	stmdbne	r7!, {r0, r3, r4, r5, r8, r9, fp}
    1a0c:	06120111 			; <UNDEFINED> instruction: 0x06120111
    1a10:	42971840 	addsmi	r1, r7, #64, 16	; 0x400000
    1a14:	00130119 	andseq	r0, r3, r9, lsl r1
    1a18:	012e2800 			; <UNDEFINED> instruction: 0x012e2800
    1a1c:	0e03193f 			; <UNDEFINED> instruction: 0x0e03193f
    1a20:	0b3b0b3a 	bleq	ec4710 <__bss_end__+0xeba6b0>
    1a24:	19270b39 	stmdbne	r7!, {r0, r3, r4, r5, r8, r9, fp}
    1a28:	01111349 	tsteq	r1, r9, asr #6
    1a2c:	18400612 	stmdane	r0, {r1, r4, r9, sl}^
    1a30:	01194297 			; <UNDEFINED> instruction: 0x01194297
    1a34:	29000013 	stmdbcs	r0, {r0, r1, r4}
    1a38:	193f002e 	ldmdbne	pc!, {r1, r2, r3, r5}	; <UNPREDICTABLE>
    1a3c:	0e6e193c 			; <UNDEFINED> instruction: 0x0e6e193c
    1a40:	0b3a0e03 	bleq	e85254 <__bss_end__+0xe7b1f4>
    1a44:	0b390b3b 	bleq	e44738 <__bss_end__+0xe3a6d8>
    1a48:	01000000 	mrseq	r0, (UNDEF: 0)
    1a4c:	0e250111 	mcreq	1, 1, r0, cr5, cr1, {0}
    1a50:	0e030b13 	vmoveq.32	d3[0], r0
    1a54:	01110e1b 	tsteq	r1, fp, lsl lr
    1a58:	17100612 			; <UNDEFINED> instruction: 0x17100612
    1a5c:	24020000 	strcs	r0, [r2], #-0
    1a60:	3e0b0b00 	vmlacc.f64	d0, d11, d0
    1a64:	0008030b 	andeq	r0, r8, fp, lsl #6
    1a68:	00240300 	eoreq	r0, r4, r0, lsl #6
    1a6c:	0b3e0b0b 	bleq	f846a0 <__bss_end__+0xf7a640>
    1a70:	00000e03 	andeq	r0, r0, r3, lsl #28
    1a74:	03001604 	movweq	r1, #1540	; 0x604
    1a78:	3b0b3a0e 	blcc	2d02b8 <__bss_end__+0x2c6258>
    1a7c:	490b390b 	stmdbmi	fp, {r0, r1, r3, r8, fp, ip, sp}
    1a80:	05000013 	streq	r0, [r0, #-19]	; 0xffffffed
    1a84:	0b0b000f 	bleq	2c1ac8 <__bss_end__+0x2b7a68>
    1a88:	00001349 	andeq	r1, r0, r9, asr #6
    1a8c:	03001306 	movweq	r1, #774	; 0x306
    1a90:	00193c0e 	andseq	r3, r9, lr, lsl #24
    1a94:	00160700 	andseq	r0, r6, r0, lsl #14
    1a98:	0b3a0e03 	bleq	e852ac <__bss_end__+0xe7b24c>
    1a9c:	0b39053b 	bleq	e42f90 <__bss_end__+0xe38f30>
    1aa0:	00001349 	andeq	r1, r0, r9, asr #6
    1aa4:	0b011708 	bleq	476cc <__bss_end__+0x3d66c>
    1aa8:	3b0b3a0b 	blcc	2d02dc <__bss_end__+0x2c627c>
    1aac:	010b390b 	tsteq	fp, fp, lsl #18
    1ab0:	09000013 	stmdbeq	r0, {r0, r1, r4}
    1ab4:	0e03000d 	cdpeq	0, 0, cr0, cr3, cr13, {0}
    1ab8:	0b3b0b3a 	bleq	ec47a8 <__bss_end__+0xeba748>
    1abc:	13490b39 	movtne	r0, #39737	; 0x9b39
    1ac0:	010a0000 	mrseq	r0, (UNDEF: 10)
    1ac4:	01134901 	tsteq	r3, r1, lsl #18
    1ac8:	0b000013 	bleq	1b1c <_start-0x64e4>
    1acc:	13490021 	movtne	r0, #36897	; 0x9021
    1ad0:	00000b2f 	andeq	r0, r0, pc, lsr #22
    1ad4:	0b01130c 	bleq	4670c <__bss_end__+0x3c6ac>
    1ad8:	3b0b3a0b 	blcc	2d030c <__bss_end__+0x2c62ac>
    1adc:	010b390b 	tsteq	fp, fp, lsl #18
    1ae0:	0d000013 	stceq	0, cr0, [r0, #-76]	; 0xffffffb4
    1ae4:	0e03000d 	cdpeq	0, 0, cr0, cr3, cr13, {0}
    1ae8:	0b3b0b3a 	bleq	ec47d8 <__bss_end__+0xeba778>
    1aec:	13490b39 	movtne	r0, #39737	; 0x9b39
    1af0:	00000b38 	andeq	r0, r0, r8, lsr fp
    1af4:	0b000f0e 	bleq	5734 <_start-0x28cc>
    1af8:	0f00000b 	svceq	0x0000000b
    1afc:	13490026 	movtne	r0, #36902	; 0x9026
    1b00:	13100000 	tstne	r0, #0
    1b04:	0b0e0301 	bleq	382710 <__bss_end__+0x3786b0>
    1b08:	3b0b3a0b 	blcc	2d033c <__bss_end__+0x2c62dc>
    1b0c:	010b390b 	tsteq	fp, fp, lsl #18
    1b10:	11000013 	tstne	r0, r3, lsl r0
    1b14:	0803000d 	stmdaeq	r3, {r0, r2, r3}
    1b18:	0b3b0b3a 	bleq	ec4808 <__bss_end__+0xeba7a8>
    1b1c:	13490b39 	movtne	r0, #39737	; 0x9b39
    1b20:	00000b38 	andeq	r0, r0, r8, lsr fp
    1b24:	03011312 	movweq	r1, #4882	; 0x1312
    1b28:	3a050b0e 	bcc	144768 <__bss_end__+0x13a708>
    1b2c:	390b3b0b 	stmdbcc	fp, {r0, r1, r3, r8, r9, fp, ip, sp}
    1b30:	0013010b 	andseq	r0, r3, fp, lsl #2
    1b34:	000d1300 	andeq	r1, sp, r0, lsl #6
    1b38:	0b3a0e03 	bleq	e8534c <__bss_end__+0xe7b2ec>
    1b3c:	0b390b3b 	bleq	e44830 <__bss_end__+0xe3a7d0>
    1b40:	05381349 	ldreq	r1, [r8, #-841]!	; 0xfffffcb7
    1b44:	15140000 	ldrne	r0, [r4, #-0]
    1b48:	00192700 	andseq	r2, r9, r0, lsl #14
    1b4c:	01151500 	tsteq	r5, r0, lsl #10
    1b50:	13491927 	movtne	r1, #39207	; 0x9927
    1b54:	00001301 	andeq	r1, r0, r1, lsl #6
    1b58:	49000516 	stmdbmi	r0, {r1, r2, r4, r8, sl}
    1b5c:	17000013 	smladne	r0, r3, r0, r0
    1b60:	0e030113 	mcreq	1, 0, r0, cr3, cr3, {0}
    1b64:	0b3a050b 	bleq	e82f98 <__bss_end__+0xe78f38>
    1b68:	0b39053b 	bleq	e4305c <__bss_end__+0xe38ffc>
    1b6c:	00001301 	andeq	r1, r0, r1, lsl #6
    1b70:	03000d18 	movweq	r0, #3352	; 0xd18
    1b74:	3b0b3a0e 	blcc	2d03b4 <__bss_end__+0x2c6354>
    1b78:	490b3905 	stmdbmi	fp, {r0, r2, r8, fp, ip, sp}
    1b7c:	000b3813 	andeq	r3, fp, r3, lsl r8
    1b80:	000d1900 	andeq	r1, sp, r0, lsl #18
    1b84:	0b3a0e03 	bleq	e85398 <__bss_end__+0xe7b338>
    1b88:	0b39053b 	bleq	e4307c <__bss_end__+0xe3901c>
    1b8c:	05381349 	ldreq	r1, [r8, #-841]!	; 0xfffffcb7
    1b90:	131a0000 	tstne	sl, #0
    1b94:	0b0e0301 	bleq	3827a0 <__bss_end__+0x378740>
    1b98:	3b0b3a0b 	blcc	2d03cc <__bss_end__+0x2c636c>
    1b9c:	010b3905 	tsteq	fp, r5, lsl #18
    1ba0:	1b000013 	blne	1bf4 <_start-0x640c>
    1ba4:	0b0b0113 	bleq	2c1ff8 <__bss_end__+0x2b7f98>
    1ba8:	053b0b3a 	ldreq	r0, [fp, #-2874]!	; 0xfffff4c6
    1bac:	13010b39 	movwne	r0, #6969	; 0x1b39
    1bb0:	171c0000 	ldrne	r0, [ip, -r0]
    1bb4:	3a0b0b01 	bcc	2c47c0 <__bss_end__+0x2ba760>
    1bb8:	39053b0b 	stmdbcc	r5, {r0, r1, r3, r8, r9, fp, ip, sp}
    1bbc:	0013010b 	andseq	r0, r3, fp, lsl #2
    1bc0:	000d1d00 	andeq	r1, sp, r0, lsl #26
    1bc4:	0b3a0e03 	bleq	e853d8 <__bss_end__+0xe7b378>
    1bc8:	0b39053b 	bleq	e430bc <__bss_end__+0xe3905c>
    1bcc:	00001349 	andeq	r1, r0, r9, asr #6
    1bd0:	2701151e 	smladcs	r1, lr, r5, r1
    1bd4:	00130119 	andseq	r0, r3, r9, lsl r1
    1bd8:	00341f00 	eorseq	r1, r4, r0, lsl #30
    1bdc:	0b3a0e03 	bleq	e853f0 <__bss_end__+0xe7b390>
    1be0:	0b39053b 	bleq	e430d4 <__bss_end__+0xe39074>
    1be4:	193f1349 	ldmdbne	pc!, {r0, r3, r6, r8, r9, ip}	; <UNPREDICTABLE>
    1be8:	0000193c 	andeq	r1, r0, ip, lsr r9
    1bec:	03003420 	movweq	r3, #1056	; 0x420
    1bf0:	3b0b3a0e 	blcc	2d0430 <__bss_end__+0x2c63d0>
    1bf4:	490b390b 	stmdbmi	fp, {r0, r1, r3, r8, fp, ip, sp}
    1bf8:	3c193f13 	ldccc	15, cr3, [r9], {19}
    1bfc:	21000019 	tstcs	r0, r9, lsl r0
    1c00:	193f012e 	ldmdbne	pc!, {r1, r2, r3, r5, r8}	; <UNPREDICTABLE>
    1c04:	0b3a0e03 	bleq	e85418 <__bss_end__+0xe7b3b8>
    1c08:	0b390b3b 	bleq	e448fc <__bss_end__+0xe3a89c>
    1c0c:	01111927 	tsteq	r1, r7, lsr #18
    1c10:	18400612 	stmdane	r0, {r1, r4, r9, sl}^
    1c14:	01194297 			; <UNDEFINED> instruction: 0x01194297
    1c18:	22000013 	andcs	r0, r0, #19
    1c1c:	08030005 	stmdaeq	r3, {r0, r2}
    1c20:	0b3b0b3a 	bleq	ec4910 <__bss_end__+0xeba8b0>
    1c24:	13490b39 	movtne	r0, #39737	; 0x9b39
    1c28:	42b71702 	adcsmi	r1, r7, #524288	; 0x80000
    1c2c:	23000017 	movwcs	r0, #23
    1c30:	01018289 	smlabbeq	r1, r9, r2, r8
    1c34:	13310111 	teqne	r1, #1073741828	; 0x40000004
    1c38:	8a240000 	bhi	901c40 <__bss_end__+0x8f7be0>
    1c3c:	02000182 	andeq	r0, r0, #-2147483616	; 0x80000020
    1c40:	18429118 	stmdane	r2, {r3, r4, r8, ip, pc}^
    1c44:	34250000 	strtcc	r0, [r5], #-0
    1c48:	3a080300 	bcc	202850 <__bss_end__+0x1f87f0>
    1c4c:	390b3b0b 	stmdbcc	fp, {r0, r1, r3, r8, r9, fp, ip, sp}
    1c50:	0213490b 	andseq	r4, r3, #180224	; 0x2c000
    1c54:	1742b717 	smlaldne	fp, r2, r7, r7
    1c58:	0b260000 	bleq	981c60 <__bss_end__+0x977c00>
    1c5c:	12011101 	andne	r1, r1, #1073741824	; 0x40000000
    1c60:	00130106 	andseq	r0, r3, r6, lsl #2
    1c64:	82892700 	addhi	r2, r9, #0, 14
    1c68:	01110001 	tsteq	r1, r1
    1c6c:	00001331 	andeq	r1, r0, r1, lsr r3
    1c70:	3f012e28 	svccc	0x00012e28
    1c74:	3a0e0319 	bcc	3828e0 <__bss_end__+0x378880>
    1c78:	390b3b0b 	stmdbcc	fp, {r0, r1, r3, r8, r9, fp, ip, sp}
    1c7c:	4919270b 	ldmdbmi	r9, {r0, r1, r3, r8, r9, sl, sp}
    1c80:	12011113 	andne	r1, r1, #-1073741820	; 0xc0000004
    1c84:	97184006 	ldrls	r4, [r8, -r6]
    1c88:	13011942 	movwne	r1, #6466	; 0x1942
    1c8c:	05290000 	streq	r0, [r9, #-0]!
    1c90:	3a0e0300 	bcc	382898 <__bss_end__+0x378838>
    1c94:	390b3b0b 	stmdbcc	fp, {r0, r1, r3, r8, r9, fp, ip, sp}
    1c98:	0213490b 	andseq	r4, r3, #180224	; 0x2c000
    1c9c:	1742b717 	smlaldne	fp, r2, r7, r7
    1ca0:	2e2a0000 	cdpcs	0, 2, cr0, cr10, cr0, {0}
    1ca4:	3c193f00 	ldccc	15, cr3, [r9], {-0}
    1ca8:	030e6e19 	movweq	r6, #60953	; 0xee19
    1cac:	3b0b3a0e 	blcc	2d04ec <__bss_end__+0x2c648c>
    1cb0:	000b390b 	andeq	r3, fp, fp, lsl #18
    1cb4:	11010000 	mrsne	r0, (UNDEF: 1)
    1cb8:	130e2501 	movwne	r2, #58625	; 0xe501
    1cbc:	1b0e030b 	blne	3828f0 <__bss_end__+0x378890>
    1cc0:	1201110e 	andne	r1, r1, #-2147483645	; 0x80000003
    1cc4:	00171006 	andseq	r1, r7, r6
    1cc8:	00240200 	eoreq	r0, r4, r0, lsl #4
    1ccc:	0b3e0b0b 	bleq	f84900 <__bss_end__+0xf7a8a0>
    1cd0:	00000803 	andeq	r0, r0, r3, lsl #16
    1cd4:	0b002403 	bleq	ace8 <__bss_end__+0xc88>
    1cd8:	030b3e0b 	movweq	r3, #48651	; 0xbe0b
    1cdc:	0400000e 	streq	r0, [r0], #-14
    1ce0:	13490035 	movtne	r0, #36917	; 0x9035
    1ce4:	16050000 	strne	r0, [r5], -r0
    1ce8:	3a0e0300 	bcc	3828f0 <__bss_end__+0x378890>
    1cec:	490b3b0b 	stmdbmi	fp, {r0, r1, r3, r8, r9, fp, ip, sp}
    1cf0:	06000013 			; <UNDEFINED> instruction: 0x06000013
    1cf4:	0e030016 	mcreq	0, 0, r0, cr3, cr6, {0}
    1cf8:	053b0b3a 	ldreq	r0, [fp, #-2874]!	; 0xfffff4c6
    1cfc:	00001349 	andeq	r1, r0, r9, asr #6
    1d00:	0b011707 	bleq	47924 <__bss_end__+0x3d8c4>
    1d04:	3b0b3a0b 	blcc	2d0538 <__bss_end__+0x2c64d8>
    1d08:	0013010b 	andseq	r0, r3, fp, lsl #2
    1d0c:	000d0800 	andeq	r0, sp, r0, lsl #16
    1d10:	0b3a0e03 	bleq	e85524 <__bss_end__+0xe7b4c4>
    1d14:	13490b3b 	movtne	r0, #39739	; 0x9b3b
    1d18:	01090000 	mrseq	r0, (UNDEF: 9)
    1d1c:	01134901 	tsteq	r3, r1, lsl #18
    1d20:	0a000013 	beq	1d74 <_start-0x628c>
    1d24:	13490021 	movtne	r0, #36897	; 0x9021
    1d28:	00000b2f 	andeq	r0, r0, pc, lsr #22
    1d2c:	0b01130b 	bleq	46960 <__bss_end__+0x3c900>
    1d30:	3b0b3a0b 	blcc	2d0564 <__bss_end__+0x2c6504>
    1d34:	0013010b 	andseq	r0, r3, fp, lsl #2
    1d38:	000d0c00 	andeq	r0, sp, r0, lsl #24
    1d3c:	0b3a0e03 	bleq	e85550 <__bss_end__+0xe7b4f0>
    1d40:	13490b3b 	movtne	r0, #39739	; 0x9b3b
    1d44:	00000b38 	andeq	r0, r0, r8, lsr fp
    1d48:	0b000f0d 	bleq	5984 <_start-0x267c>
    1d4c:	0e00000b 	cdpeq	0, 0, cr0, cr0, cr11, {0}
    1d50:	0b0b000f 	bleq	2c1d94 <__bss_end__+0x2b7d34>
    1d54:	00001349 	andeq	r1, r0, r9, asr #6
    1d58:	4900260f 	stmdbmi	r0, {r0, r1, r2, r3, r9, sl, sp}
    1d5c:	10000013 	andne	r0, r0, r3, lsl r0
    1d60:	0e030113 	mcreq	1, 0, r0, cr3, cr3, {0}
    1d64:	0b3a0b0b 	bleq	e84998 <__bss_end__+0xe7a938>
    1d68:	13010b3b 	movwne	r0, #6971	; 0x1b3b
    1d6c:	0d110000 	ldceq	0, cr0, [r1, #-0]
    1d70:	3a080300 	bcc	202978 <__bss_end__+0x1f8918>
    1d74:	490b3b0b 	stmdbmi	fp, {r0, r1, r3, r8, r9, fp, ip, sp}
    1d78:	000b3813 	andeq	r3, fp, r3, lsl r8
    1d7c:	01131200 	tsteq	r3, r0, lsl #4
    1d80:	050b0e03 	streq	r0, [fp, #-3587]	; 0xfffff1fd
    1d84:	0b3b0b3a 	bleq	ec4a74 <__bss_end__+0xebaa14>
    1d88:	00001301 	andeq	r1, r0, r1, lsl #6
    1d8c:	03000d13 	movweq	r0, #3347	; 0xd13
    1d90:	3b0b3a0e 	blcc	2d05d0 <__bss_end__+0x2c6570>
    1d94:	3813490b 	ldmdacc	r3, {r0, r1, r3, r8, fp, lr}
    1d98:	14000005 	strne	r0, [r0], #-5
    1d9c:	19270015 	stmdbne	r7!, {r0, r2, r4}
    1da0:	15150000 	ldrne	r0, [r5, #-0]
    1da4:	49192701 	ldmdbmi	r9, {r0, r8, r9, sl, sp}
    1da8:	00130113 	andseq	r0, r3, r3, lsl r1
    1dac:	00051600 	andeq	r1, r5, r0, lsl #12
    1db0:	00001349 	andeq	r1, r0, r9, asr #6
    1db4:	03011317 	movweq	r1, #4887	; 0x1317
    1db8:	3a050b0e 	bcc	1449f8 <__bss_end__+0x13a998>
    1dbc:	01053b0b 	tsteq	r5, fp, lsl #22
    1dc0:	18000013 	stmdane	r0, {r0, r1, r4}
    1dc4:	0e03000d 	cdpeq	0, 0, cr0, cr3, cr13, {0}
    1dc8:	053b0b3a 	ldreq	r0, [fp, #-2874]!	; 0xfffff4c6
    1dcc:	0b381349 	bleq	e06af8 <__bss_end__+0xdfca98>
    1dd0:	0d190000 	ldceq	0, cr0, [r9, #-0]
    1dd4:	3a0e0300 	bcc	3829dc <__bss_end__+0x37897c>
    1dd8:	49053b0b 	stmdbmi	r5, {r0, r1, r3, r8, r9, fp, ip, sp}
    1ddc:	00053813 	andeq	r3, r5, r3, lsl r8
    1de0:	01131a00 	tsteq	r3, r0, lsl #20
    1de4:	0b0b0e03 	bleq	2c55f8 <__bss_end__+0x2bb598>
    1de8:	053b0b3a 	ldreq	r0, [fp, #-2874]!	; 0xfffff4c6
    1dec:	00001301 	andeq	r1, r0, r1, lsl #6
    1df0:	0b01131b 	bleq	46a64 <__bss_end__+0x3ca04>
    1df4:	3b0b3a0b 	blcc	2d0628 <__bss_end__+0x2c65c8>
    1df8:	00130105 	andseq	r0, r3, r5, lsl #2
    1dfc:	01171c00 	tsteq	r7, r0, lsl #24
    1e00:	0b3a0b0b 	bleq	e84a34 <__bss_end__+0xe7a9d4>
    1e04:	1301053b 	movwne	r0, #5435	; 0x153b
    1e08:	0d1d0000 	ldceq	0, cr0, [sp, #-0]
    1e0c:	3a0e0300 	bcc	382a14 <__bss_end__+0x3789b4>
    1e10:	49053b0b 	stmdbmi	r5, {r0, r1, r3, r8, r9, fp, ip, sp}
    1e14:	1e000013 	mcrne	0, 0, r0, cr0, cr3, {0}
    1e18:	19270115 	stmdbne	r7!, {r0, r2, r4, r8}
    1e1c:	00001301 	andeq	r1, r0, r1, lsl #6
    1e20:	0300341f 	movweq	r3, #1055	; 0x41f
    1e24:	3b0b3a0e 	blcc	2d0664 <__bss_end__+0x2c6604>
    1e28:	3f134905 	svccc	0x00134905
    1e2c:	00193c19 	andseq	r3, r9, r9, lsl ip
    1e30:	00342000 	eorseq	r2, r4, r0
    1e34:	0b3a0e03 	bleq	e85648 <__bss_end__+0xe7b5e8>
    1e38:	13490b3b 	movtne	r0, #39739	; 0x9b3b
    1e3c:	193c193f 	ldmdbne	ip!, {r0, r1, r2, r3, r4, r5, r8, fp, ip}
    1e40:	04210000 	strteq	r0, [r1], #-0
    1e44:	490b0b01 	stmdbmi	fp, {r0, r8, r9, fp}
    1e48:	3b0b3a13 	blcc	2d069c <__bss_end__+0x2c663c>
    1e4c:	0013010b 	andseq	r0, r3, fp, lsl #2
    1e50:	00282200 	eoreq	r2, r8, r0, lsl #4
    1e54:	0b1c0e03 	bleq	705668 <__bss_end__+0x6fb608>
    1e58:	34230000 	strtcc	r0, [r3], #-0
    1e5c:	3a0e0300 	bcc	382a64 <__bss_end__+0x378a04>
    1e60:	490b3b0b 	stmdbmi	fp, {r0, r1, r3, r8, r9, fp, ip, sp}
    1e64:	00061c13 	andeq	r1, r6, r3, lsl ip
    1e68:	012e2400 			; <UNDEFINED> instruction: 0x012e2400
    1e6c:	0e03193f 			; <UNDEFINED> instruction: 0x0e03193f
    1e70:	0b3b0b3a 	bleq	ec4b60 <__bss_end__+0xebab00>
    1e74:	13491927 	movtne	r1, #39207	; 0x9927
    1e78:	06120111 			; <UNDEFINED> instruction: 0x06120111
    1e7c:	42971840 	addsmi	r1, r7, #64, 16	; 0x400000
    1e80:	00130119 	andseq	r0, r3, r9, lsl r1
    1e84:	82892500 	addhi	r2, r9, #0, 10
    1e88:	01110001 	tsteq	r1, r1
    1e8c:	00001331 	andeq	r1, r0, r1, lsr r3
    1e90:	3f012e26 	svccc	0x00012e26
    1e94:	3a0e0319 	bcc	382b00 <__bss_end__+0x378aa0>
    1e98:	270b3b0b 	strcs	r3, [fp, -fp, lsl #22]
    1e9c:	12011119 	andne	r1, r1, #1073741830	; 0x40000006
    1ea0:	97184006 	ldrls	r4, [r8, -r6]
    1ea4:	13011942 	movwne	r1, #6466	; 0x1942
    1ea8:	05270000 	streq	r0, [r7, #-0]!
    1eac:	3a080300 	bcc	202ab4 <__bss_end__+0x1f8a54>
    1eb0:	490b3b0b 	stmdbmi	fp, {r0, r1, r3, r8, r9, fp, ip, sp}
    1eb4:	00170213 	andseq	r0, r7, r3, lsl r2
    1eb8:	82892800 	addhi	r2, r9, #0, 16
    1ebc:	01110101 	tsteq	r1, r1, lsl #2
    1ec0:	13011331 	movwne	r1, #4913	; 0x1331
    1ec4:	8a290000 	bhi	a41ecc <__bss_end__+0xa37e6c>
    1ec8:	02000182 	andeq	r0, r0, #-2147483616	; 0x80000020
    1ecc:	18429118 	stmdane	r2, {r3, r4, r8, ip, pc}^
    1ed0:	342a0000 	strtcc	r0, [sl], #-0
    1ed4:	3a080300 	bcc	202adc <__bss_end__+0x1f8a7c>
    1ed8:	490b3b0b 	stmdbmi	fp, {r0, r1, r3, r8, r9, fp, ip, sp}
    1edc:	00180213 	andseq	r0, r8, r3, lsl r2
    1ee0:	82892b00 	addhi	r2, r9, #0, 22
    1ee4:	01110101 	tsteq	r1, r1, lsl #2
    1ee8:	00001331 	andeq	r1, r0, r1, lsr r3
    1eec:	03012e2c 	movweq	r2, #7724	; 0x1e2c
    1ef0:	3b0b3a0e 	blcc	2d0730 <__bss_end__+0x2c66d0>
    1ef4:	1119270b 	tstne	r9, fp, lsl #14
    1ef8:	40061201 	andmi	r1, r6, r1, lsl #4
    1efc:	19429718 	stmdbne	r2, {r3, r4, r8, r9, sl, ip, pc}^
    1f00:	00001301 	andeq	r1, r0, r1, lsl #6
    1f04:	0300052d 	movweq	r0, #1325	; 0x52d
    1f08:	3b0b3a0e 	blcc	2d0748 <__bss_end__+0x2c66e8>
    1f0c:	0213490b 	andseq	r4, r3, #180224	; 0x2c000
    1f10:	2e000017 	mcrcs	0, 0, r0, cr0, cr7, {0}
    1f14:	00000035 	andeq	r0, r0, r5, lsr r0
    1f18:	3f002e2f 	svccc	0x00002e2f
    1f1c:	6e193c19 	mrcvs	12, 0, r3, cr9, cr9, {0}
    1f20:	3a0e030e 	bcc	382b60 <__bss_end__+0x378b00>
    1f24:	000b3b0b 	andeq	r3, fp, fp, lsl #22
    1f28:	11010000 	mrsne	r0, (UNDEF: 1)
    1f2c:	130e2501 	movwne	r2, #58625	; 0xe501
    1f30:	1b0e030b 	blne	382b64 <__bss_end__+0x378b04>
    1f34:	1201110e 	andne	r1, r1, #-2147483645	; 0x80000003
    1f38:	00171006 	andseq	r1, r7, r6
    1f3c:	00240200 	eoreq	r0, r4, r0, lsl #4
    1f40:	0b3e0b0b 	bleq	f84b74 <__bss_end__+0xf7ab14>
    1f44:	00000803 	andeq	r0, r0, r3, lsl #16
    1f48:	0b002403 	bleq	af5c <__bss_end__+0xefc>
    1f4c:	030b3e0b 	movweq	r3, #48651	; 0xbe0b
    1f50:	0400000e 	streq	r0, [r0], #-14
    1f54:	13490026 	movtne	r0, #36902	; 0x9026
    1f58:	16050000 	strne	r0, [r5], -r0
    1f5c:	3a0e0300 	bcc	382b64 <__bss_end__+0x378b04>
    1f60:	490b3b0b 	stmdbmi	fp, {r0, r1, r3, r8, r9, fp, ip, sp}
    1f64:	06000013 			; <UNDEFINED> instruction: 0x06000013
    1f68:	0e030016 	mcreq	0, 0, r0, cr3, cr6, {0}
    1f6c:	053b0b3a 	ldreq	r0, [fp, #-2874]!	; 0xfffff4c6
    1f70:	00001349 	andeq	r1, r0, r9, asr #6
    1f74:	0b011707 	bleq	47b98 <__bss_end__+0x3db38>
    1f78:	3b0b3a0b 	blcc	2d07ac <__bss_end__+0x2c674c>
    1f7c:	0013010b 	andseq	r0, r3, fp, lsl #2
    1f80:	000d0800 	andeq	r0, sp, r0, lsl #16
    1f84:	0b3a0e03 	bleq	e85798 <__bss_end__+0xe7b738>
    1f88:	13490b3b 	movtne	r0, #39739	; 0x9b3b
    1f8c:	01090000 	mrseq	r0, (UNDEF: 9)
    1f90:	01134901 	tsteq	r3, r1, lsl #18
    1f94:	0a000013 	beq	1fe8 <_start-0x6018>
    1f98:	13490021 	movtne	r0, #36897	; 0x9021
    1f9c:	00000b2f 	andeq	r0, r0, pc, lsr #22
    1fa0:	0b01130b 	bleq	46bd4 <__bss_end__+0x3cb74>
    1fa4:	3b0b3a0b 	blcc	2d07d8 <__bss_end__+0x2c6778>
    1fa8:	0013010b 	andseq	r0, r3, fp, lsl #2
    1fac:	000d0c00 	andeq	r0, sp, r0, lsl #24
    1fb0:	0b3a0e03 	bleq	e857c4 <__bss_end__+0xe7b764>
    1fb4:	13490b3b 	movtne	r0, #39739	; 0x9b3b
    1fb8:	00000b38 	andeq	r0, r0, r8, lsr fp
    1fbc:	0b000f0d 	bleq	5bf8 <_start-0x2408>
    1fc0:	0e00000b 	cdpeq	0, 0, cr0, cr0, cr11, {0}
    1fc4:	0b0b000f 	bleq	2c2008 <__bss_end__+0x2b7fa8>
    1fc8:	00001349 	andeq	r1, r0, r9, asr #6
    1fcc:	0301130f 	movweq	r1, #4879	; 0x130f
    1fd0:	3a0b0b0e 	bcc	2c4c10 <__bss_end__+0x2babb0>
    1fd4:	010b3b0b 	tsteq	fp, fp, lsl #22
    1fd8:	10000013 	andne	r0, r0, r3, lsl r0
    1fdc:	0803000d 	stmdaeq	r3, {r0, r2, r3}
    1fe0:	0b3b0b3a 	bleq	ec4cd0 <__bss_end__+0xebac70>
    1fe4:	0b381349 	bleq	e06d10 <__bss_end__+0xdfccb0>
    1fe8:	13110000 	tstne	r1, #0
    1fec:	0b0e0301 	bleq	382bf8 <__bss_end__+0x378b98>
    1ff0:	3b0b3a05 	blcc	2d080c <__bss_end__+0x2c67ac>
    1ff4:	0013010b 	andseq	r0, r3, fp, lsl #2
    1ff8:	000d1200 	andeq	r1, sp, r0, lsl #4
    1ffc:	0b3a0e03 	bleq	e85810 <__bss_end__+0xe7b7b0>
    2000:	13490b3b 	movtne	r0, #39739	; 0x9b3b
    2004:	00000538 	andeq	r0, r0, r8, lsr r5
    2008:	27001513 	smladcs	r0, r3, r5, r1
    200c:	14000019 	strne	r0, [r0], #-25	; 0xffffffe7
    2010:	19270115 	stmdbne	r7!, {r0, r2, r4, r8}
    2014:	13011349 	movwne	r1, #4937	; 0x1349
    2018:	05150000 	ldreq	r0, [r5, #-0]
    201c:	00134900 	andseq	r4, r3, r0, lsl #18
    2020:	01131600 	tsteq	r3, r0, lsl #12
    2024:	050b0e03 	streq	r0, [fp, #-3587]	; 0xfffff1fd
    2028:	053b0b3a 	ldreq	r0, [fp, #-2874]!	; 0xfffff4c6
    202c:	00001301 	andeq	r1, r0, r1, lsl #6
    2030:	03000d17 	movweq	r0, #3351	; 0xd17
    2034:	3b0b3a0e 	blcc	2d0874 <__bss_end__+0x2c6814>
    2038:	38134905 	ldmdacc	r3, {r0, r2, r8, fp, lr}
    203c:	1800000b 	stmdane	r0, {r0, r1, r3}
    2040:	0e03000d 	cdpeq	0, 0, cr0, cr3, cr13, {0}
    2044:	053b0b3a 	ldreq	r0, [fp, #-2874]!	; 0xfffff4c6
    2048:	05381349 	ldreq	r1, [r8, #-841]!	; 0xfffffcb7
    204c:	13190000 	tstne	r9, #0
    2050:	0b0e0301 	bleq	382c5c <__bss_end__+0x378bfc>
    2054:	3b0b3a0b 	blcc	2d0888 <__bss_end__+0x2c6828>
    2058:	00130105 	andseq	r0, r3, r5, lsl #2
    205c:	01131a00 	tsteq	r3, r0, lsl #20
    2060:	0b3a0b0b 	bleq	e84c94 <__bss_end__+0xe7ac34>
    2064:	1301053b 	movwne	r0, #5435	; 0x153b
    2068:	171b0000 	ldrne	r0, [fp, -r0]
    206c:	3a0b0b01 	bcc	2c4c78 <__bss_end__+0x2bac18>
    2070:	01053b0b 	tsteq	r5, fp, lsl #22
    2074:	1c000013 	stcne	0, cr0, [r0], {19}
    2078:	0e03000d 	cdpeq	0, 0, cr0, cr3, cr13, {0}
    207c:	053b0b3a 	ldreq	r0, [fp, #-2874]!	; 0xfffff4c6
    2080:	00001349 	andeq	r1, r0, r9, asr #6
    2084:	2701151d 	smladcs	r1, sp, r5, r1
    2088:	00130119 	andseq	r0, r3, r9, lsl r1
    208c:	00341e00 	eorseq	r1, r4, r0, lsl #28
    2090:	0b3a0e03 	bleq	e858a4 <__bss_end__+0xe7b844>
    2094:	1349053b 	movtne	r0, #38203	; 0x953b
    2098:	193c193f 	ldmdbne	ip!, {r0, r1, r2, r3, r4, r5, r8, fp, ip}
    209c:	341f0000 	ldrcc	r0, [pc], #-0	; 20a4 <_start-0x5f5c>
    20a0:	3a0e0300 	bcc	382ca8 <__bss_end__+0x378c48>
    20a4:	490b3b0b 	stmdbmi	fp, {r0, r1, r3, r8, r9, fp, ip, sp}
    20a8:	3c193f13 	ldccc	15, cr3, [r9], {19}
    20ac:	20000019 	andcs	r0, r0, r9, lsl r0
    20b0:	0b0b0104 	bleq	2c24c8 <__bss_end__+0x2b8468>
    20b4:	0b3a1349 	bleq	e86de0 <__bss_end__+0xe7cd80>
    20b8:	13010b3b 	movwne	r0, #6971	; 0x1b3b
    20bc:	28210000 	stmdacs	r1!, {}	; <UNPREDICTABLE>
    20c0:	1c0e0300 	stcne	3, cr0, [lr], {-0}
    20c4:	2200000b 	andcs	r0, r0, #11
    20c8:	0e030034 	mcreq	0, 0, r0, cr3, cr4, {1}
    20cc:	0b3b0b3a 	bleq	ec4dbc <__bss_end__+0xebad5c>
    20d0:	061c1349 	ldreq	r1, [ip], -r9, asr #6
    20d4:	2e230000 	cdpcs	0, 2, cr0, cr3, cr0, {0}
    20d8:	03193f01 	tsteq	r9, #1, 30
    20dc:	3b0b3a0e 	blcc	2d091c <__bss_end__+0x2c68bc>
    20e0:	4919270b 	ldmdbmi	r9, {r0, r1, r3, r8, r9, sl, sp}
    20e4:	12011113 	andne	r1, r1, #-1073741820	; 0xc0000004
    20e8:	97184006 	ldrls	r4, [r8, -r6]
    20ec:	13011942 	movwne	r1, #6466	; 0x1942
    20f0:	05240000 	streq	r0, [r4, #-0]!
    20f4:	3a080300 	bcc	202cfc <__bss_end__+0x1f8c9c>
    20f8:	490b3b0b 	stmdbmi	fp, {r0, r1, r3, r8, r9, fp, ip, sp}
    20fc:	00170213 	andseq	r0, r7, r3, lsl r2
    2100:	00342500 	eorseq	r2, r4, r0, lsl #10
    2104:	0b3a0e03 	bleq	e85918 <__bss_end__+0xe7b8b8>
    2108:	13490b3b 	movtne	r0, #39739	; 0x9b3b
    210c:	00001702 	andeq	r1, r0, r2, lsl #14
    2110:	03003426 	movweq	r3, #1062	; 0x426
    2114:	3b0b3a08 	blcc	2d093c <__bss_end__+0x2c68dc>
    2118:	0213490b 	andseq	r4, r3, #180224	; 0x2c000
    211c:	27000017 	smladcs	r0, r7, r0, r0
    2120:	01018289 	smlabbeq	r1, r9, r2, r8
    2124:	13310111 	teqne	r1, #1073741828	; 0x40000004
    2128:	8a280000 	bhi	a02130 <__bss_end__+0x9f80d0>
    212c:	02000182 	andeq	r0, r0, #-2147483616	; 0x80000020
    2130:	18429118 	stmdane	r2, {r3, r4, r8, ip, pc}^
    2134:	2e290000 	cdpcs	0, 2, cr0, cr9, cr0, {0}
    2138:	03193f01 	tsteq	r9, #1, 30
    213c:	3b0b3a0e 	blcc	2d097c <__bss_end__+0x2c691c>
    2140:	1119270b 	tstne	r9, fp, lsl #14
    2144:	40061201 	andmi	r1, r6, r1, lsl #4
    2148:	19429718 	stmdbne	r2, {r3, r4, r8, r9, sl, ip, pc}^
    214c:	00001301 	andeq	r1, r0, r1, lsl #6
    2150:	0182892a 	orreq	r8, r2, sl, lsr #18
    2154:	31011101 	tstcc	r1, r1, lsl #2
    2158:	00130113 	andseq	r0, r3, r3, lsl r1
    215c:	82892b00 	addhi	r2, r9, #0, 22
    2160:	01110001 	tsteq	r1, r1
    2164:	00001331 	andeq	r1, r0, r1, lsr r3
    2168:	0300052c 	movweq	r0, #1324	; 0x52c
    216c:	3b0b3a0e 	blcc	2d09ac <__bss_end__+0x2c694c>
    2170:	0213490b 	andseq	r4, r3, #180224	; 0x2c000
    2174:	2d000017 	stccs	0, cr0, [r0, #-92]	; 0xffffffa4
    2178:	08030034 	stmdaeq	r3, {r2, r4, r5}
    217c:	0b3b0b3a 	bleq	ec4e6c <__bss_end__+0xebae0c>
    2180:	18021349 	stmdane	r2, {r0, r3, r6, r8, r9, ip}
    2184:	2e2e0000 	cdpcs	0, 2, cr0, cr14, cr0, {0}
    2188:	3c193f00 	ldccc	15, cr3, [r9], {-0}
    218c:	030e6e19 	movweq	r6, #60953	; 0xee19
    2190:	3b0b3a0e 	blcc	2d09d0 <__bss_end__+0x2c6970>
    2194:	0000000b 	andeq	r0, r0, fp
    2198:	25011101 	strcs	r1, [r1, #-257]	; 0xfffffeff
    219c:	030b130e 	movweq	r1, #45838	; 0xb30e
    21a0:	110e1b0e 	tstne	lr, lr, lsl #22
    21a4:	10061201 	andne	r1, r6, r1, lsl #4
    21a8:	02000017 	andeq	r0, r0, #23
    21ac:	0b0b0024 	bleq	2c2244 <__bss_end__+0x2b81e4>
    21b0:	08030b3e 	stmdaeq	r3, {r1, r2, r3, r4, r5, r8, r9, fp}
    21b4:	24030000 	strcs	r0, [r3], #-0
    21b8:	3e0b0b00 	vmlacc.f64	d0, d11, d0
    21bc:	000e030b 	andeq	r0, lr, fp, lsl #6
    21c0:	00160400 	andseq	r0, r6, r0, lsl #8
    21c4:	0b3a0e03 	bleq	e859d8 <__bss_end__+0xe7b978>
    21c8:	13490b3b 	movtne	r0, #39739	; 0x9b3b
    21cc:	16050000 	strne	r0, [r5], -r0
    21d0:	3a0e0300 	bcc	382dd8 <__bss_end__+0x378d78>
    21d4:	49053b0b 	stmdbmi	r5, {r0, r1, r3, r8, r9, fp, ip, sp}
    21d8:	06000013 			; <UNDEFINED> instruction: 0x06000013
    21dc:	0b0b0117 	bleq	2c2640 <__bss_end__+0x2b85e0>
    21e0:	0b3b0b3a 	bleq	ec4ed0 <__bss_end__+0xebae70>
    21e4:	00001301 	andeq	r1, r0, r1, lsl #6
    21e8:	03000d07 	movweq	r0, #3335	; 0xd07
    21ec:	3b0b3a0e 	blcc	2d0a2c <__bss_end__+0x2c69cc>
    21f0:	0013490b 	andseq	r4, r3, fp, lsl #18
    21f4:	01010800 	tsteq	r1, r0, lsl #16
    21f8:	13011349 	movwne	r1, #4937	; 0x1349
    21fc:	21090000 	mrscs	r0, (UNDEF: 9)
    2200:	2f134900 	svccs	0x00134900
    2204:	0a00000b 	beq	2238 <_start-0x5dc8>
    2208:	0b0b0113 	bleq	2c265c <__bss_end__+0x2b85fc>
    220c:	0b3b0b3a 	bleq	ec4efc <__bss_end__+0xebae9c>
    2210:	00001301 	andeq	r1, r0, r1, lsl #6
    2214:	03000d0b 	movweq	r0, #3339	; 0xd0b
    2218:	3b0b3a0e 	blcc	2d0a58 <__bss_end__+0x2c69f8>
    221c:	3813490b 	ldmdacc	r3, {r0, r1, r3, r8, fp, lr}
    2220:	0c00000b 	stceq	0, cr0, [r0], {11}
    2224:	0b0b000f 	bleq	2c2268 <__bss_end__+0x2b8208>
    2228:	0f0d0000 	svceq	0x000d0000
    222c:	490b0b00 	stmdbmi	fp, {r8, r9, fp}
    2230:	0e000013 	mcreq	0, 0, r0, cr0, cr3, {0}
    2234:	13490026 	movtne	r0, #36902	; 0x9026
    2238:	130f0000 	movwne	r0, #61440	; 0xf000
    223c:	0b0e0301 	bleq	382e48 <__bss_end__+0x378de8>
    2240:	3b0b3a0b 	blcc	2d0a74 <__bss_end__+0x2c6a14>
    2244:	0013010b 	andseq	r0, r3, fp, lsl #2
    2248:	000d1000 	andeq	r1, sp, r0
    224c:	0b3a0803 	bleq	e84260 <__bss_end__+0xe7a200>
    2250:	13490b3b 	movtne	r0, #39739	; 0x9b3b
    2254:	00000b38 	andeq	r0, r0, r8, lsr fp
    2258:	03011311 	movweq	r1, #4881	; 0x1311
    225c:	3a050b0e 	bcc	144e9c <__bss_end__+0x13ae3c>
    2260:	010b3b0b 	tsteq	fp, fp, lsl #22
    2264:	12000013 	andne	r0, r0, #19
    2268:	0e03000d 	cdpeq	0, 0, cr0, cr3, cr13, {0}
    226c:	0b3b0b3a 	bleq	ec4f5c <__bss_end__+0xebaefc>
    2270:	05381349 	ldreq	r1, [r8, #-841]!	; 0xfffffcb7
    2274:	15130000 	ldrne	r0, [r3, #-0]
    2278:	00192700 	andseq	r2, r9, r0, lsl #14
    227c:	01151400 	tsteq	r5, r0, lsl #8
    2280:	13491927 	movtne	r1, #39207	; 0x9927
    2284:	00001301 	andeq	r1, r0, r1, lsl #6
    2288:	49000515 	stmdbmi	r0, {r0, r2, r4, r8, sl}
    228c:	16000013 			; <UNDEFINED> instruction: 0x16000013
    2290:	0e030113 	mcreq	1, 0, r0, cr3, cr3, {0}
    2294:	0b3a050b 	bleq	e836c8 <__bss_end__+0xe79668>
    2298:	1301053b 	movwne	r0, #5435	; 0x153b
    229c:	0d170000 	ldceq	0, cr0, [r7, #-0]
    22a0:	3a0e0300 	bcc	382ea8 <__bss_end__+0x378e48>
    22a4:	49053b0b 	stmdbmi	r5, {r0, r1, r3, r8, r9, fp, ip, sp}
    22a8:	000b3813 	andeq	r3, fp, r3, lsl r8
    22ac:	000d1800 	andeq	r1, sp, r0, lsl #16
    22b0:	0b3a0e03 	bleq	e85ac4 <__bss_end__+0xe7ba64>
    22b4:	1349053b 	movtne	r0, #38203	; 0x953b
    22b8:	00000538 	andeq	r0, r0, r8, lsr r5
    22bc:	03011319 	movweq	r1, #4889	; 0x1319
    22c0:	3a0b0b0e 	bcc	2c4f00 <__bss_end__+0x2baea0>
    22c4:	01053b0b 	tsteq	r5, fp, lsl #22
    22c8:	1a000013 	bne	231c <_start-0x5ce4>
    22cc:	0b0b0113 	bleq	2c2720 <__bss_end__+0x2b86c0>
    22d0:	053b0b3a 	ldreq	r0, [fp, #-2874]!	; 0xfffff4c6
    22d4:	00001301 	andeq	r1, r0, r1, lsl #6
    22d8:	0b01171b 	bleq	47f4c <__bss_end__+0x3deec>
    22dc:	3b0b3a0b 	blcc	2d0b10 <__bss_end__+0x2c6ab0>
    22e0:	00130105 	andseq	r0, r3, r5, lsl #2
    22e4:	000d1c00 	andeq	r1, sp, r0, lsl #24
    22e8:	0b3a0e03 	bleq	e85afc <__bss_end__+0xe7ba9c>
    22ec:	1349053b 	movtne	r0, #38203	; 0x953b
    22f0:	151d0000 	ldrne	r0, [sp, #-0]
    22f4:	01192701 	tsteq	r9, r1, lsl #14
    22f8:	1e000013 	mcrne	0, 0, r0, cr0, cr3, {0}
    22fc:	0e030034 	mcreq	0, 0, r0, cr3, cr4, {1}
    2300:	053b0b3a 	ldreq	r0, [fp, #-2874]!	; 0xfffff4c6
    2304:	193f1349 	ldmdbne	pc!, {r0, r3, r6, r8, r9, ip}	; <UNPREDICTABLE>
    2308:	0000193c 	andeq	r1, r0, ip, lsr r9
    230c:	0300341f 	movweq	r3, #1055	; 0x41f
    2310:	3b0b3a0e 	blcc	2d0b50 <__bss_end__+0x2c6af0>
    2314:	3f13490b 	svccc	0x0013490b
    2318:	00193c19 	andseq	r3, r9, r9, lsl ip
    231c:	00342000 	eorseq	r2, r4, r0
    2320:	0b3a0e03 	bleq	e85b34 <__bss_end__+0xe7bad4>
    2324:	13490b3b 	movtne	r0, #39739	; 0x9b3b
    2328:	00001802 	andeq	r1, r0, r2, lsl #16
    232c:	3f012e21 	svccc	0x00012e21
    2330:	3a0e0319 	bcc	382f9c <__bss_end__+0x378f3c>
    2334:	270b3b0b 	strcs	r3, [fp, -fp, lsl #22]
    2338:	12011119 	andne	r1, r1, #1073741830	; 0x40000006
    233c:	97184006 	ldrls	r4, [r8, -r6]
    2340:	13011942 	movwne	r1, #6466	; 0x1942
    2344:	05220000 	streq	r0, [r2, #-0]!
    2348:	3a080300 	bcc	202f50 <__bss_end__+0x1f8ef0>
    234c:	490b3b0b 	stmdbmi	fp, {r0, r1, r3, r8, r9, fp, ip, sp}
    2350:	00180213 	andseq	r0, r8, r3, lsl r2
    2354:	002e2300 	eoreq	r2, lr, r0, lsl #6
    2358:	0e03193f 			; <UNDEFINED> instruction: 0x0e03193f
    235c:	0b3b0b3a 	bleq	ec504c <__bss_end__+0xebafec>
    2360:	01111927 	tsteq	r1, r7, lsr #18
    2364:	18400612 	stmdane	r0, {r1, r4, r9, sl}^
    2368:	00194297 	mulseq	r9, r7, r2
    236c:	012e2400 			; <UNDEFINED> instruction: 0x012e2400
    2370:	0e03193f 			; <UNDEFINED> instruction: 0x0e03193f
    2374:	0b3b0b3a 	bleq	ec5064 <__bss_end__+0xebb004>
    2378:	13491927 	movtne	r1, #39207	; 0x9927
    237c:	06120111 			; <UNDEFINED> instruction: 0x06120111
    2380:	42971840 	addsmi	r1, r7, #64, 16	; 0x400000
    2384:	00130119 	andseq	r0, r3, r9, lsl r1
    2388:	00052500 	andeq	r2, r5, r0, lsl #10
    238c:	0b3a0e03 	bleq	e85ba0 <__bss_end__+0xe7bb40>
    2390:	13490b3b 	movtne	r0, #39739	; 0x9b3b
    2394:	00001702 	andeq	r1, r0, r2, lsl #14
    2398:	03003426 	movweq	r3, #1062	; 0x426
    239c:	3413490e 	ldrcc	r4, [r3], #-2318	; 0xfffff6f2
    23a0:	00180219 	andseq	r0, r8, r9, lsl r2
    23a4:	00342700 	eorseq	r2, r4, r0, lsl #14
    23a8:	0b3a0803 	bleq	e843bc <__bss_end__+0xe7a35c>
    23ac:	13490b3b 	movtne	r0, #39739	; 0x9b3b
    23b0:	00001702 	andeq	r1, r0, r2, lsl #14
    23b4:	01828928 	orreq	r8, r2, r8, lsr #18
    23b8:	31011101 	tstcc	r1, r1, lsl #2
    23bc:	00130113 	andseq	r0, r3, r3, lsl r1
    23c0:	828a2900 	addhi	r2, sl, #0, 18
    23c4:	18020001 	stmdane	r2, {r0}
    23c8:	00184291 	mulseq	r8, r1, r2
    23cc:	82892a00 	addhi	r2, r9, #0, 20
    23d0:	01110001 	tsteq	r1, r1
    23d4:	00001331 	andeq	r1, r0, r1, lsr r3
    23d8:	0300052b 	movweq	r0, #1323	; 0x52b
    23dc:	3b0b3a08 	blcc	2d0c04 <__bss_end__+0x2c6ba4>
    23e0:	0213490b 	andseq	r4, r3, #180224	; 0x2c000
    23e4:	2c000017 	stccs	0, cr0, [r0], {23}
    23e8:	0e030034 	mcreq	0, 0, r0, cr3, cr4, {1}
    23ec:	0b3b0b3a 	bleq	ec50dc <__bss_end__+0xebb07c>
    23f0:	17021349 	strne	r1, [r2, -r9, asr #6]
    23f4:	2e2d0000 	cdpcs	0, 2, cr0, cr13, cr0, {0}
    23f8:	03193f00 	tsteq	r9, #0, 30
    23fc:	3b0b3a0e 	blcc	2d0c3c <__bss_end__+0x2c6bdc>
    2400:	4919270b 	ldmdbmi	r9, {r0, r1, r3, r8, r9, sl, sp}
    2404:	12011113 	andne	r1, r1, #-1073741820	; 0xc0000004
    2408:	97184006 	ldrls	r4, [r8, -r6]
    240c:	00001942 	andeq	r1, r0, r2, asr #18
    2410:	3f002e2e 	svccc	0x00002e2e
    2414:	6e193c19 	mrcvs	12, 0, r3, cr9, cr9, {0}
    2418:	3a0e030e 	bcc	383058 <__bss_end__+0x378ff8>
    241c:	000b3b0b 	andeq	r3, fp, fp, lsl #22
	...

Disassembly of section .debug_loc:

00000000 <.debug_loc>:
       0:	00000000 	andeq	r0, r0, r0
       4:	00000044 	andeq	r0, r0, r4, asr #32
       8:	00000048 	andeq	r0, r0, r8, asr #32
       c:	48500001 	ldmdami	r0, {r0}^
      10:	d4000000 	strle	r0, [r0], #-0
      14:	01000000 	mrseq	r0, (UNDEF: 0)
      18:	00005400 	andeq	r5, r0, r0, lsl #8
	...
      24:	000007a8 	andeq	r0, r0, r8, lsr #15
      28:	000007d0 	ldrdeq	r0, [r0], -r0	; <UNPREDICTABLE>
      2c:	00540001 	subseq	r0, r4, r1
	...
      38:	0007b000 	andeq	fp, r7, r0
      3c:	0007d400 	andeq	sp, r7, r0, lsl #8
      40:	55000100 	strpl	r0, [r0, #-256]	; 0xffffff00
	...
      4c:	00000002 	andeq	r0, r0, r2
      50:	000007c8 	andeq	r0, r0, r8, asr #15
      54:	000007dc 	ldrdeq	r0, [r0], -ip
      58:	9f300002 	svcls	0x00300002
      5c:	000007dc 	ldrdeq	r0, [r0], -ip
      60:	000008d8 	ldrdeq	r0, [r0], -r8
      64:	00560001 	subseq	r0, r6, r1
      68:	00000000 	andeq	r0, r0, r0
      6c:	03000000 	movweq	r0, #0
      70:	c8000000 	stmdagt	r0, {}	; <UNPREDICTABLE>
      74:	dc000007 	stcle	0, cr0, [r0], {7}
      78:	02000007 	andeq	r0, r0, #7
      7c:	dc9f3000 	ldcle	0, cr3, [pc], {0}
      80:	d8000007 	stmdale	r0, {r0, r1, r2}
      84:	01000008 	tsteq	r0, r8
      88:	00005500 	andeq	r5, r0, r0, lsl #10
	...
      98:	07d00000 	ldrbeq	r0, [r0, r0]
      9c:	07dc0000 	ldrbeq	r0, [ip, r0]
      a0:	00010000 	andeq	r0, r1, r0
      a4:	0007dc50 	andeq	sp, r7, r0, asr ip
      a8:	00082000 	andeq	r2, r8, r0
      ac:	54000100 	strpl	r0, [r0], #-256	; 0xffffff00
      b0:	00000820 	andeq	r0, r0, r0, lsr #16
      b4:	0000082f 	andeq	r0, r0, pc, lsr #16
      b8:	2f500001 	svccs	0x00500001
      bc:	d8000008 	stmdale	r0, {r3}
      c0:	01000008 	tsteq	r0, r8
      c4:	00005400 	andeq	r5, r0, r0, lsl #8
	...
      d4:	07480000 	strbeq	r0, [r8, -r0]
      d8:	07740000 	ldrbeq	r0, [r4, -r0]!
      dc:	00010000 	andeq	r0, r1, r0
      e0:	00077450 	andeq	r7, r7, r0, asr r4
      e4:	00078400 	andeq	r8, r7, r0, lsl #8
      e8:	f3000400 	vshl.u8	d0, d0, d0
      ec:	849f5001 	ldrhi	r5, [pc], #1	; f4 <_start-0x7f0c>
      f0:	88000007 	stmdahi	r0, {r0, r1, r2}
      f4:	01000007 	tsteq	r0, r7
      f8:	07885000 	streq	r5, [r8, r0]
      fc:	07940000 	ldreq	r0, [r4, r0]
     100:	00040000 	andeq	r0, r4, r0
     104:	9f5001f3 	svcls	0x005001f3
	...
     114:	00000760 	andeq	r0, r0, r0, ror #14
     118:	00000780 	andeq	r0, r0, r0, lsl #15
     11c:	84540001 	ldrbhi	r0, [r4], #-1
     120:	88000007 	stmdahi	r0, {r0, r1, r2}
     124:	01000007 	tsteq	r0, r7
     128:	00005400 	andeq	r5, r0, r0, lsl #8
	...
     134:	07240000 	streq	r0, [r4, -r0]!
     138:	07340000 	ldreq	r0, [r4, -r0]!
     13c:	00010000 	andeq	r0, r1, r0
     140:	00073c54 	andeq	r3, r7, r4, asr ip
     144:	00074000 	andeq	r4, r7, r0
     148:	54000100 	strpl	r0, [r0], #-256	; 0xffffff00
	...
     15c:	04fc0000 	ldrbteq	r0, [ip], #0
     160:	05280000 	streq	r0, [r8, #-0]!
     164:	00010000 	andeq	r0, r1, r0
     168:	00052850 	andeq	r2, r5, r0, asr r8
     16c:	00062400 	andeq	r2, r6, r0, lsl #8
     170:	55000100 	strpl	r0, [r0, #-256]	; 0xffffff00
     174:	00000624 	andeq	r0, r0, r4, lsr #12
     178:	00000627 	andeq	r0, r0, r7, lsr #12
     17c:	27500001 	ldrbcs	r0, [r0, -r1]
     180:	40000006 	andmi	r0, r0, r6
     184:	04000006 	streq	r0, [r0], #-6
     188:	5001f300 	andpl	pc, r1, r0, lsl #6
     18c:	0006409f 	muleq	r6, pc, r0	; <UNPREDICTABLE>
     190:	00071800 	andeq	r1, r7, r0, lsl #16
     194:	55000100 	strpl	r0, [r0, #-256]	; 0xffffff00
	...
     1a8:	04fc0000 	ldrbteq	r0, [ip], #0
     1ac:	052b0000 	streq	r0, [fp, #-0]!
     1b0:	00010000 	andeq	r0, r1, r0
     1b4:	00052b51 	andeq	r2, r5, r1, asr fp
     1b8:	00062400 	andeq	r2, r6, r0, lsl #8
     1bc:	58000100 	stmdapl	r0, {r8}
     1c0:	00000624 	andeq	r0, r0, r4, lsr #12
     1c4:	00000627 	andeq	r0, r0, r7, lsr #12
     1c8:	27510001 	ldrbcs	r0, [r1, -r1]
     1cc:	40000006 	andmi	r0, r0, r6
     1d0:	04000006 	streq	r0, [r0], #-6
     1d4:	5101f300 	mrspl	pc, SP_irq	; <UNPREDICTABLE>
     1d8:	0006409f 	muleq	r6, pc, r0	; <UNPREDICTABLE>
     1dc:	00071800 	andeq	r1, r7, r0, lsl #16
     1e0:	58000100 	stmdapl	r0, {r8}
	...
     1f4:	04fc0000 	ldrbteq	r0, [ip], #0
     1f8:	052b0000 	streq	r0, [fp, #-0]!
     1fc:	00010000 	andeq	r0, r1, r0
     200:	00052b52 	andeq	r2, r5, r2, asr fp
     204:	00062400 	andeq	r2, r6, r0, lsl #8
     208:	57000100 	strpl	r0, [r0, -r0, lsl #2]
     20c:	00000624 	andeq	r0, r0, r4, lsr #12
     210:	00000627 	andeq	r0, r0, r7, lsr #12
     214:	27520001 	ldrbcs	r0, [r2, -r1]
     218:	40000006 	andmi	r0, r0, r6
     21c:	04000006 	streq	r0, [r0], #-6
     220:	5201f300 	andpl	pc, r1, #0, 6
     224:	0006409f 	muleq	r6, pc, r0	; <UNPREDICTABLE>
     228:	00071800 	andeq	r1, r7, r0, lsl #16
     22c:	57000100 	strpl	r0, [r0, -r0, lsl #2]
	...
     240:	04fc0000 	ldrbteq	r0, [ip], #0
     244:	050c0000 	streq	r0, [ip, #-0]
     248:	00010000 	andeq	r0, r1, r0
     24c:	00050c53 	andeq	r0, r5, r3, asr ip
     250:	0005b000 	andeq	fp, r5, r0
     254:	56000100 	strpl	r0, [r0], -r0, lsl #2
     258:	000005b0 			; <UNDEFINED> instruction: 0x000005b0
     25c:	00000624 	andeq	r0, r0, r4, lsr #12
     260:	01f30004 	mvnseq	r0, r4
     264:	06249f53 	qsaxeq	r9, r4, r3
     268:	06c80000 	strbeq	r0, [r8], r0
     26c:	00010000 	andeq	r0, r1, r0
     270:	0006c856 	andeq	ip, r6, r6, asr r8
     274:	00071800 	andeq	r1, r7, r0, lsl #16
     278:	f3000400 	vshl.u8	d0, d0, d0
     27c:	009f5301 	addseq	r5, pc, r1, lsl #6
     280:	00000000 	andeq	r0, r0, r0
     284:	01000000 	mrseq	r0, (UNDEF: 0)
     288:	00000303 	andeq	r0, r0, r3, lsl #6
     28c:	08000000 	stmdaeq	r0, {}	; <UNPREDICTABLE>
     290:	64000005 	strvs	r0, [r0], #-5
     294:	02000005 	andeq	r0, r0, #5
     298:	649f3000 	ldrvs	r3, [pc], #0	; 2a0 <_start-0x7d60>
     29c:	fc000005 	stc2	0, cr0, [r0], {5}
     2a0:	01000005 	tsteq	r0, r5
     2a4:	06245400 	strteq	r5, [r4], -r0, lsl #8
     2a8:	06c80000 	strbeq	r0, [r8], r0
     2ac:	00020000 	andeq	r0, r2, r0
     2b0:	06c89f30 			; <UNDEFINED> instruction: 0x06c89f30
     2b4:	07180000 	ldreq	r0, [r8, -r0]
     2b8:	00010000 	andeq	r0, r1, r0
     2bc:	00000054 	andeq	r0, r0, r4, asr r0
     2c0:	00000000 	andeq	r0, r0, r0
     2c4:	00000200 	andeq	r0, r0, r0, lsl #4
     2c8:	00000000 	andeq	r0, r0, r0
     2cc:	00050800 	andeq	r0, r5, r0, lsl #16
     2d0:	0005fc00 	andeq	pc, r5, r0, lsl #24
     2d4:	30000200 	andcc	r0, r0, r0, lsl #4
     2d8:	0005fc9f 	muleq	r5, pc, ip	; <UNPREDICTABLE>
     2dc:	00060000 	andeq	r0, r6, r0
     2e0:	50000100 	andpl	r0, r0, r0, lsl #2
     2e4:	00000600 	andeq	r0, r0, r0, lsl #12
     2e8:	00000624 	andeq	r0, r0, r4, lsr #12
     2ec:	24540001 	ldrbcs	r0, [r4], #-1
     2f0:	18000006 	stmdane	r0, {r1, r2}
     2f4:	02000007 	andeq	r0, r0, #7
     2f8:	009f3000 	addseq	r3, pc, r0
	...
     30c:	40000000 	andmi	r0, r0, r0
     310:	6c000005 	stcvs	0, cr0, [r0], {5}
     314:	01000005 	tsteq	r0, r5
     318:	056c5000 	strbeq	r5, [ip, #-0]!
     31c:	06240000 	strteq	r0, [r4], -r0
     320:	00040000 	andeq	r0, r4, r0
     324:	9f7dc879 	svcls	0x007dc879
     328:	00000640 	andeq	r0, r0, r0, asr #12
     32c:	00000644 	andeq	r0, r0, r4, asr #12
     330:	44500001 	ldrbmi	r0, [r0], #-1
     334:	74000006 	strvc	r0, [r0], #-6
     338:	04000006 	streq	r0, [r0], #-6
     33c:	7dc87900 	vstrvc.16	s15, [r8]	; <UNPREDICTABLE>
     340:	0006749f 	muleq	r6, pc, r4	; <UNPREDICTABLE>
     344:	00067800 	andeq	r7, r6, r0, lsl #16
     348:	50000100 	andpl	r0, r0, r0, lsl #2
     34c:	00000678 	andeq	r0, r0, r8, ror r6
     350:	00000718 	andeq	r0, r0, r8, lsl r7
     354:	c8790004 	ldmdagt	r9!, {r2}^
     358:	00009f7d 	andeq	r9, r0, sp, ror pc
	...
     364:	05440000 	strbeq	r0, [r4, #-0]
     368:	06240000 	strteq	r0, [r4], -r0
     36c:	00010000 	andeq	r0, r1, r0
     370:	00064059 	andeq	r4, r6, r9, asr r0
     374:	00071800 	andeq	r1, r7, r0, lsl #16
     378:	59000100 	stmdbpl	r0, {r8}
	...
     388:	00000444 	andeq	r0, r0, r4, asr #8
     38c:	0000045b 	andeq	r0, r0, fp, asr r4
     390:	5b500001 	blpl	140039c <__bss_end__+0x13f633c>
     394:	fc000004 	stc2	0, cr0, [r0], {4}
     398:	01000004 	tsteq	r0, r4
     39c:	00005500 	andeq	r5, r0, r0, lsl #10
	...
     3a8:	04440000 	strbeq	r0, [r4], #-0
     3ac:	045b0000 	ldrbeq	r0, [fp], #-0
     3b0:	00010000 	andeq	r0, r1, r0
     3b4:	00045b51 	andeq	r5, r4, r1, asr fp
     3b8:	0004fc00 	andeq	pc, r4, r0, lsl #24
     3bc:	57000100 	strpl	r0, [r0, -r0, lsl #2]
	...
     3cc:	00000444 	andeq	r0, r0, r4, asr #8
     3d0:	0000045b 	andeq	r0, r0, fp, asr r4
     3d4:	5b520001 	blpl	14803e0 <__bss_end__+0x1476380>
     3d8:	fc000004 	stc2	0, cr0, [r0], {4}
     3dc:	01000004 	tsteq	r0, r4
     3e0:	00005600 	andeq	r5, r0, r0, lsl #12
	...
     3ec:	04440000 	strbeq	r0, [r4], #-0
     3f0:	045b0000 	ldrbeq	r0, [fp], #-0
     3f4:	00010000 	andeq	r0, r1, r0
     3f8:	00045b53 	andeq	r5, r4, r3, asr fp
     3fc:	0004fc00 	andeq	pc, r4, r0, lsl #24
     400:	58000100 	stmdapl	r0, {r8}
	...
     410:	045c0000 	ldrbeq	r0, [ip], #-0
     414:	04740000 	ldrbteq	r0, [r4], #-0
     418:	00010000 	andeq	r0, r1, r0
     41c:	00047450 	andeq	r7, r4, r0, asr r4
     420:	0004c800 	andeq	ip, r4, r0, lsl #16
     424:	54000100 	strpl	r0, [r0], #-256	; 0xffffff00
     428:	000004c8 	andeq	r0, r0, r8, asr #9
     42c:	000004cb 	andeq	r0, r0, fp, asr #9
     430:	00500001 	subseq	r0, r0, r1
	...
     43c:	6c000000 	stcvs	0, cr0, [r0], {-0}
     440:	77000003 	strvc	r0, [r0, -r3]
     444:	01000003 	tsteq	r0, r3
     448:	03775000 	cmneq	r7, #0
     44c:	03d00000 	bicseq	r0, r0, #0
     450:	00010000 	andeq	r0, r1, r0
     454:	00000054 	andeq	r0, r0, r4, asr r0
	...
     460:	00015000 	andeq	r5, r1, r0
     464:	00015f00 	andeq	r5, r1, r0, lsl #30
     468:	50000100 	andpl	r0, r0, r0, lsl #2
     46c:	0000015f 	andeq	r0, r0, pc, asr r1
     470:	00000164 	andeq	r0, r0, r4, ror #2
     474:	01f30004 	mvnseq	r0, r4
     478:	00009f50 	andeq	r9, r0, r0, asr pc
	...
     488:	00000150 	andeq	r0, r0, r0, asr r1
     48c:	0000015c 	andeq	r0, r0, ip, asr r1
     490:	5c510001 	mrrcpl	0, 0, r0, r1, cr1
     494:	5f000001 	svcpl	0x00000001
     498:	01000001 	tsteq	r0, r1
     49c:	015f5200 	cmpeq	pc, r0, lsl #4
     4a0:	01640000 	cmneq	r4, r0
     4a4:	00040000 	andeq	r0, r4, r0
     4a8:	9f5101f3 	svcls	0x005101f3
	...
     4bc:	00000044 	andeq	r0, r0, r4, asr #32
     4c0:	00000070 	andeq	r0, r0, r0, ror r0
     4c4:	70500001 	subsvc	r0, r0, r1
     4c8:	2c000000 	stccs	0, cr0, [r0], {-0}
     4cc:	01000001 	tsteq	r0, r1
     4d0:	012c5500 			; <UNDEFINED> instruction: 0x012c5500
     4d4:	01300000 	teqeq	r0, r0
     4d8:	00010000 	andeq	r0, r1, r0
     4dc:	00013050 	andeq	r3, r1, r0, asr r0
     4e0:	00015000 	andeq	r5, r1, r0
     4e4:	55000100 	strpl	r0, [r0, #-256]	; 0xffffff00
	...
     4f4:	00440000 	subeq	r0, r4, r0
     4f8:	00730000 	rsbseq	r0, r3, r0
     4fc:	00010000 	andeq	r0, r1, r0
     500:	00007351 	andeq	r7, r0, r1, asr r3
     504:	00012c00 	andeq	r2, r1, r0, lsl #24
     508:	f3000400 	vshl.u8	d0, d0, d0
     50c:	2c9f5101 	ldfcss	f5, [pc], {1}
     510:	50000001 	andpl	r0, r0, r1
     514:	01000001 	tsteq	r0, r1
     518:	00005100 	andeq	r5, r0, r0, lsl #2
	...
     528:	00000044 	andeq	r0, r0, r4, asr #32
     52c:	00000073 	andeq	r0, r0, r3, ror r0
     530:	73520001 	cmpvc	r2, #1
     534:	2c000000 	stccs	0, cr0, [r0], {-0}
     538:	01000001 	tsteq	r0, r1
     53c:	012c5600 			; <UNDEFINED> instruction: 0x012c5600
     540:	01500000 	cmpeq	r0, r0
     544:	00010000 	andeq	r0, r1, r0
     548:	00000052 	andeq	r0, r0, r2, asr r0
     54c:	00000000 	andeq	r0, r0, r0
     550:	00000200 	andeq	r0, r0, r0, lsl #4
     554:	50000000 	andpl	r0, r0, r0
     558:	54000000 	strpl	r0, [r0], #-0
     55c:	02000000 	andeq	r0, r0, #0
     560:	549f3000 	ldrpl	r3, [pc], #0	; 568 <_start-0x7a98>
     564:	7c000000 	stcvc	0, cr0, [r0], {-0}
     568:	01000000 	mrseq	r0, (UNDEF: 0)
     56c:	012c5400 			; <UNDEFINED> instruction: 0x012c5400
     570:	01500000 	cmpeq	r0, r0
     574:	00010000 	andeq	r0, r1, r0
     578:	00000054 	andeq	r0, r0, r4, asr r0
     57c:	00000000 	andeq	r0, r0, r0
     580:	7c000000 	stcvc	0, cr0, [r0], {-0}
     584:	2c000000 	stccs	0, cr0, [r0], {-0}
     588:	01000001 	tsteq	r0, r1
     58c:	00005400 	andeq	r5, r0, r0, lsl #8
     590:	00000000 	andeq	r0, r0, r0
     594:	01010000 	mrseq	r0, (UNDEF: 1)
     598:	00a00000 	adceq	r0, r0, r0
     59c:	00e80000 	rsceq	r0, r8, r0
     5a0:	00010000 	andeq	r0, r1, r0
     5a4:	00010056 	andeq	r0, r1, r6, asr r0
     5a8:	00012c00 	andeq	r2, r1, r0, lsl #24
     5ac:	56000100 	strpl	r0, [r0], -r0, lsl #2
	...
     5b8:	00020202 	andeq	r0, r2, r2, lsl #4
     5bc:	000000b4 	strheq	r0, [r0], -r4
     5c0:	000000dc 	ldrdeq	r0, [r0], -ip
     5c4:	10760003 	rsbsne	r0, r6, r3
     5c8:	0000dc9f 	muleq	r0, pc, ip	; <UNPREDICTABLE>
     5cc:	00012c00 	andeq	r2, r1, r0, lsl #24
     5d0:	76000300 	strvc	r0, [r0], -r0, lsl #6
     5d4:	00009f1c 	andeq	r9, r0, ip, lsl pc
	...
     5e4:	02700000 	rsbseq	r0, r0, #0
     5e8:	029c0000 	addseq	r0, ip, #0
     5ec:	00010000 	andeq	r0, r1, r0
     5f0:	00029c50 	andeq	r9, r2, r0, asr ip
     5f4:	00034c00 	andeq	r4, r3, r0, lsl #24
     5f8:	55000100 	strpl	r0, [r0, #-256]	; 0xffffff00
     5fc:	0000034c 	andeq	r0, r0, ip, asr #6
     600:	00000350 	andeq	r0, r0, r0, asr r3
     604:	50500001 	subspl	r0, r0, r1
     608:	6c000003 	stcvs	0, cr0, [r0], {3}
     60c:	01000003 	tsteq	r0, r3
     610:	00005500 	andeq	r5, r0, r0, lsl #10
	...
     620:	00000270 	andeq	r0, r0, r0, ror r2
     624:	0000029f 	muleq	r0, pc, r2	; <UNPREDICTABLE>
     628:	9f510001 	svcls	0x00510001
     62c:	4c000002 	stcmi	0, cr0, [r0], {2}
     630:	04000003 	streq	r0, [r0], #-3
     634:	5101f300 	mrspl	pc, SP_irq	; <UNPREDICTABLE>
     638:	00034c9f 	muleq	r3, pc, ip	; <UNPREDICTABLE>
     63c:	00036c00 	andeq	r6, r3, r0, lsl #24
     640:	51000100 	mrspl	r0, (UNDEF: 16)
	...
     650:	02700000 	rsbseq	r0, r0, #0
     654:	029f0000 	addseq	r0, pc, #0
     658:	00010000 	andeq	r0, r1, r0
     65c:	00029f52 	andeq	r9, r2, r2, asr pc
     660:	00034c00 	andeq	r4, r3, r0, lsl #24
     664:	56000100 	strpl	r0, [r0], -r0, lsl #2
     668:	0000034c 	andeq	r0, r0, ip, asr #6
     66c:	0000036c 	andeq	r0, r0, ip, ror #6
     670:	00520001 	subseq	r0, r2, r1
     674:	00000000 	andeq	r0, r0, r0
     678:	02000000 	andeq	r0, r0, #0
     67c:	00000000 	andeq	r0, r0, r0
     680:	00027c00 	andeq	r7, r2, r0, lsl #24
     684:	00028000 	andeq	r8, r2, r0
     688:	30000200 	andcc	r0, r0, r0, lsl #4
     68c:	0002809f 	muleq	r2, pc, r0	; <UNPREDICTABLE>
     690:	0002a800 	andeq	sl, r2, r0, lsl #16
     694:	54000100 	strpl	r0, [r0], #-256	; 0xffffff00
     698:	0000034c 	andeq	r0, r0, ip, asr #6
     69c:	0000036c 	andeq	r0, r0, ip, ror #6
     6a0:	00540001 	subseq	r0, r4, r1
	...
     6ac:	0002a800 	andeq	sl, r2, r0, lsl #16
     6b0:	00034c00 	andeq	r4, r3, r0, lsl #24
     6b4:	54000100 	strpl	r0, [r0], #-256	; 0xffffff00
	...
     6c0:	02d00001 	sbcseq	r0, r0, #1
     6c4:	034c0000 	movteq	r0, #49152	; 0xc000
     6c8:	00010000 	andeq	r0, r1, r0
     6cc:	00000056 	andeq	r0, r0, r6, asr r0
     6d0:	00000000 	andeq	r0, r0, r0
     6d4:	02020200 	andeq	r0, r2, #0, 4
     6d8:	0002e400 	andeq	lr, r2, r0, lsl #8
     6dc:	00030c00 	andeq	r0, r3, r0, lsl #24
     6e0:	76000300 	strvc	r0, [r0], -r0, lsl #6
     6e4:	030c9f10 	movweq	r9, #53008	; 0xcf10
     6e8:	034c0000 	movteq	r0, #49152	; 0xc000
     6ec:	00030000 	andeq	r0, r3, r0
     6f0:	009f1c76 	addseq	r1, pc, r6, ror ip	; <UNPREDICTABLE>
	...
     6fc:	88000000 	stmdahi	r0, {}	; <UNPREDICTABLE>
     700:	a7000001 	strge	r0, [r0, -r1]
     704:	01000001 	tsteq	r0, r1
     708:	01a75000 			; <UNDEFINED> instruction: 0x01a75000
     70c:	02700000 	rsbseq	r0, r0, #0
     710:	00010000 	andeq	r0, r1, r0
     714:	00000054 	andeq	r0, r0, r4, asr r0
     718:	00000000 	andeq	r0, r0, r0
     71c:	d4000100 	strle	r0, [r0], #-256	; 0xffffff00
     720:	50000001 	andpl	r0, r0, r1
     724:	01000002 	tsteq	r0, r2
     728:	00005400 	andeq	r5, r0, r0, lsl #8
     72c:	00000000 	andeq	r0, r0, r0
     730:	02020000 	andeq	r0, r2, #0
     734:	01e80002 	mvneq	r0, r2
     738:	02100000 	andseq	r0, r0, #0
     73c:	00030000 	andeq	r0, r3, r0
     740:	109f1074 	addsne	r1, pc, r4, ror r0	; <UNPREDICTABLE>
     744:	50000002 	andpl	r0, r0, r2
     748:	03000002 	movweq	r0, #2
     74c:	9f1c7400 	svcls	0x001c7400
	...
     75c:	00000164 	andeq	r0, r0, r4, ror #2
     760:	0000017f 	andeq	r0, r0, pc, ror r1
     764:	7f500001 	svcvc	0x00500001
     768:	88000001 	stmdahi	r0, {r0}
     76c:	01000001 	tsteq	r0, r1
     770:	00005400 	andeq	r5, r0, r0, lsl #8
	...
     77c:	00000170 	andeq	r0, r0, r0, ror r1
     780:	00000188 	andeq	r0, r0, r8, lsl #3
     784:	00550001 	subseq	r0, r5, r1
	...
     790:	00018000 	andeq	r8, r1, r0
     794:	00018800 	andeq	r8, r1, r0, lsl #16
     798:	50000100 	andpl	r0, r0, r0, lsl #2
	...
     7a8:	0000003c 	andeq	r0, r0, ip, lsr r0
     7ac:	00000040 	andeq	r0, r0, r0, asr #32
     7b0:	40500001 	subsmi	r0, r0, r1
     7b4:	44000000 	strmi	r0, [r0], #-0
     7b8:	04000000 	streq	r0, [r0], #-0
     7bc:	01b87000 			; <UNDEFINED> instruction: 0x01b87000
     7c0:	0000009f 	muleq	r0, pc, r0	; <UNPREDICTABLE>
	...
     7cc:	00003000 	andeq	r3, r0, r0
     7d0:	00003400 	andeq	r3, r0, r0, lsl #8
     7d4:	50000100 	andpl	r0, r0, r0, lsl #2
     7d8:	00000034 	andeq	r0, r0, r4, lsr r0
     7dc:	0000003c 	andeq	r0, r0, ip, lsr r0
     7e0:	01f30004 	mvnseq	r0, r4
     7e4:	00009f50 	andeq	r9, r0, r0, asr pc
	...
     7f0:	00180000 	andseq	r0, r8, r0
     7f4:	00230000 	eoreq	r0, r3, r0
     7f8:	00010000 	andeq	r0, r1, r0
     7fc:	00002350 	andeq	r2, r0, r0, asr r3
     800:	00003000 	andeq	r3, r0, r0
     804:	54000100 	strpl	r0, [r0], #-256	; 0xffffff00
	...
     814:	00000008 	andeq	r0, r0, r8
     818:	0000000f 	andeq	r0, r0, pc
     81c:	0f500001 	svceq	0x00500001
     820:	18000000 	stmdane	r0, {}	; <UNPREDICTABLE>
     824:	04000000 	streq	r0, [r0], #-0
     828:	5001f300 	andpl	pc, r1, r0, lsl #6
     82c:	0000009f 	muleq	r0, pc, r0	; <UNPREDICTABLE>
	...
     83c:	00000400 	andeq	r0, r0, r0, lsl #8
     840:	50000100 	andpl	r0, r0, r0, lsl #2
     844:	00000004 	andeq	r0, r0, r4
     848:	00000008 	andeq	r0, r0, r8
     84c:	48700003 	ldmdami	r0!, {r0, r1}^
     850:	0000009f 	muleq	r0, pc, r0	; <UNPREDICTABLE>
	...
     860:	d0000000 	andle	r0, r0, r0
     864:	f8000003 			; <UNDEFINED> instruction: 0xf8000003
     868:	01000003 	tsteq	r0, r3
     86c:	03f85000 	mvnseq	r5, #0
     870:	040c0000 	streq	r0, [ip], #-0
     874:	00010000 	andeq	r0, r1, r0
     878:	00040c54 	andeq	r0, r4, r4, asr ip
     87c:	00041400 	andeq	r1, r4, r0, lsl #8
     880:	03000500 	movweq	r0, #1280	; 0x500
     884:	00009c50 	andeq	r9, r0, r0, asr ip
     888:	00000414 	andeq	r0, r0, r4, lsl r4
     88c:	00000417 	andeq	r0, r0, r7, lsl r4
     890:	17500001 	ldrbne	r0, [r0, -r1]
     894:	44000004 	strmi	r0, [r0], #-4
     898:	04000004 	streq	r0, [r0], #-4
     89c:	5001f300 	andpl	pc, r1, r0, lsl #6
     8a0:	0000009f 	muleq	r0, pc, r0	; <UNPREDICTABLE>
	...
     8b0:	0003d000 	andeq	sp, r3, r0
     8b4:	0003f400 	andeq	pc, r3, r0, lsl #8
     8b8:	51000100 	mrspl	r0, (UNDEF: 16)
     8bc:	000003f4 	strdeq	r0, [r0], -r4
     8c0:	00000414 	andeq	r0, r0, r4, lsl r4
     8c4:	14550001 	ldrbne	r0, [r5], #-1
     8c8:	17000004 	strne	r0, [r0, -r4]
     8cc:	01000004 	tsteq	r0, r4
     8d0:	04175100 	ldreq	r5, [r7], #-256	; 0xffffff00
     8d4:	04440000 	strbeq	r0, [r4], #-0
     8d8:	00040000 	andeq	r0, r4, r0
     8dc:	9f5101f3 	svcls	0x005101f3
	...
     8e8:	00010100 	andeq	r0, r1, r0, lsl #2
	...
     8f4:	00000020 	andeq	r0, r0, r0, lsr #32
     8f8:	20500001 	subscs	r0, r0, r1
     8fc:	e4000000 	str	r0, [r0], #-0
     900:	04000000 	streq	r0, [r0], #-0
     904:	5001f300 	andpl	pc, r1, r0, lsl #6
     908:	0000e49f 	muleq	r0, pc, r4	; <UNPREDICTABLE>
     90c:	0000e800 	andeq	lr, r0, r0, lsl #16
     910:	50000100 	andpl	r0, r0, r0, lsl #2
     914:	000000e8 	andeq	r0, r0, r8, ror #1
     918:	000000ec 	andeq	r0, r0, ip, ror #1
     91c:	01f30004 	mvnseq	r0, r4
     920:	00009f50 	andeq	r9, r0, r0, asr pc
	...
     938:	00000020 	andeq	r0, r0, r0, lsr #32
     93c:	20510001 	subscs	r0, r1, r1
     940:	74000000 	strvc	r0, [r0], #-0
     944:	01000000 	mrseq	r0, (UNDEF: 0)
     948:	00905100 	addseq	r5, r0, r0, lsl #2
     94c:	00940000 	addseq	r0, r4, r0
     950:	00010000 	andeq	r0, r1, r0
     954:	0000b451 	andeq	fp, r0, r1, asr r4
     958:	0000b800 	andeq	fp, r0, r0, lsl #16
     95c:	51000100 	mrspl	r0, (UNDEF: 16)
     960:	000000d0 	ldrdeq	r0, [r0], -r0	; <UNPREDICTABLE>
     964:	000000ec 	andeq	r0, r0, ip, ror #1
     968:	00510001 	subseq	r0, r1, r1
     96c:	00000000 	andeq	r0, r0, r0
     970:	02000000 	andeq	r0, r0, #0
     974:	00000101 	andeq	r0, r0, r1, lsl #2
     978:	00000000 	andeq	r0, r0, r0
     97c:	20000000 	andcs	r0, r0, r0
     980:	01000000 	mrseq	r0, (UNDEF: 0)
     984:	00205000 	eoreq	r5, r0, r0
     988:	00e40000 	rsceq	r0, r4, r0
     98c:	00010000 	andeq	r0, r1, r0
     990:	0000e45c 	andeq	lr, r0, ip, asr r4
     994:	0000e800 	andeq	lr, r0, r0, lsl #16
     998:	50000100 	andpl	r0, r0, r0, lsl #2
     99c:	000000e8 	andeq	r0, r0, r8, ror #1
     9a0:	000000ec 	andeq	r0, r0, ip, ror #1
     9a4:	01f30004 	mvnseq	r0, r4
     9a8:	00009f50 	andeq	r9, r0, r0, asr pc
     9ac:	00000000 	andeq	r0, r0, r0
     9b0:	00030000 	andeq	r0, r3, r0
	...
     9c4:	00000020 	andeq	r0, r0, r0, lsr #32
     9c8:	20510001 	subscs	r0, r1, r1
     9cc:	38000000 	stmdacc	r0, {}	; <UNPREDICTABLE>
     9d0:	01000000 	mrseq	r0, (UNDEF: 0)
     9d4:	00385300 	eorseq	r5, r8, r0, lsl #6
     9d8:	004c0000 	subeq	r0, ip, r0
     9dc:	00010000 	andeq	r0, r1, r0
     9e0:	00004c52 	andeq	r4, r0, r2, asr ip
     9e4:	00007800 	andeq	r7, r0, r0, lsl #16
     9e8:	53000100 	movwpl	r0, #256	; 0x100
     9ec:	00000078 	andeq	r0, r0, r8, ror r0
     9f0:	00000090 	muleq	r0, r0, r0
     9f4:	90500001 	subsls	r0, r0, r1
     9f8:	e4000000 	str	r0, [r0], #-0
     9fc:	01000000 	mrseq	r0, (UNDEF: 0)
     a00:	00e45300 	rsceq	r5, r4, r0, lsl #6
     a04:	00ec0000 	rsceq	r0, ip, r0
     a08:	00010000 	andeq	r0, r1, r0
     a0c:	00000051 	andeq	r0, r0, r1, asr r0
	...
     a18:	48000000 	stmdami	r0, {}	; <UNPREDICTABLE>
     a1c:	4c000000 	stcmi	0, cr0, [r0], {-0}
     a20:	01000000 	mrseq	r0, (UNDEF: 0)
     a24:	004c5300 	subeq	r5, ip, r0, lsl #6
     a28:	00500000 	subseq	r0, r0, r0
     a2c:	00120000 	andseq	r0, r2, r0
     a30:	24380070 	ldrtcs	r0, [r8], #-112	; 0xffffff90
     a34:	0194027c 	orrseq	r0, r4, ip, ror r2
     a38:	221aff08 	andscs	pc, sl, #8, 30
     a3c:	0072243b 	rsbseq	r2, r2, fp, lsr r4
     a40:	00509f27 	subseq	r9, r0, r7, lsr #30
     a44:	005c0000 	subseq	r0, ip, r0
     a48:	00120000 	andseq	r0, r2, r0
     a4c:	24380070 	ldrtcs	r0, [r8], #-112	; 0xffffff90
     a50:	01947e7c 	orrseq	r7, r4, ip, ror lr
     a54:	221aff08 	andscs	pc, sl, #8, 30
     a58:	0072243b 	rsbseq	r2, r2, fp, lsr r4
     a5c:	00009f27 	andeq	r9, r0, r7, lsr #30
	...
     a68:	0000001c 	andeq	r0, r0, ip, lsl r0
     a6c:	000000e4 	andeq	r0, r0, r4, ror #1
     a70:	005e0001 	subseq	r0, lr, r1
	...
     a80:	04000000 	streq	r0, [r0], #-0
     a84:	01000000 	mrseq	r0, (UNDEF: 0)
     a88:	00045200 	andeq	r5, r4, r0, lsl #4
     a8c:	00180000 	andseq	r0, r8, r0
     a90:	00040000 	andeq	r0, r4, r0
     a94:	9f5201f3 	svcls	0x005201f3
	...
     aa0:	01000002 	tsteq	r0, r2
     aa4:	00000001 	andeq	r0, r0, r1
     aa8:	00000000 	andeq	r0, r0, r0
     aac:	00000008 	andeq	r0, r0, r8
     ab0:	08500001 	ldmdaeq	r0, {r0}^
     ab4:	10000000 	andne	r0, r0, r0
     ab8:	01000000 	mrseq	r0, (UNDEF: 0)
     abc:	00105300 	andseq	r5, r0, r0, lsl #6
     ac0:	00140000 	andseq	r0, r4, r0
     ac4:	00030000 	andeq	r0, r3, r0
     ac8:	149f0173 	ldrne	r0, [pc], #371	; ad0 <_start-0x7530>
     acc:	18000000 	stmdane	r0, {}	; <UNPREDICTABLE>
     ad0:	01000000 	mrseq	r0, (UNDEF: 0)
     ad4:	00005300 	andeq	r5, r0, r0, lsl #6
	...
     ae0:	00000004 	andeq	r0, r0, r4
     ae4:	00000018 	andeq	r0, r0, r8, lsl r0
     ae8:	00520001 	subseq	r0, r2, r1
	...
     af8:	00002c00 	andeq	r2, r0, r0, lsl #24
     afc:	00003800 	andeq	r3, r0, r0, lsl #16
     b00:	50000100 	andpl	r0, r0, r0, lsl #2
     b04:	00000038 	andeq	r0, r0, r8, lsr r0
     b08:	00000048 	andeq	r0, r0, r8, asr #32
     b0c:	48540001 	ldmdami	r4, {r0}^
     b10:	58000000 	stmdapl	r0, {}	; <UNPREDICTABLE>
     b14:	01000000 	mrseq	r0, (UNDEF: 0)
     b18:	00005000 	andeq	r5, r0, r0
	...
     b28:	000b0000 	andeq	r0, fp, r0
     b2c:	00010000 	andeq	r0, r1, r0
     b30:	00000b50 	andeq	r0, r0, r0, asr fp
     b34:	00001400 	andeq	r1, r0, r0, lsl #8
     b38:	54000100 	strpl	r0, [r0], #-256	; 0xffffff00
	...
     b44:	00010100 	andeq	r0, r1, r0, lsl #2
     b48:	00000000 	andeq	r0, r0, r0
     b4c:	00000008 	andeq	r0, r0, r8
     b50:	08500001 	ldmdaeq	r0, {r0}^
     b54:	34000000 	strcc	r0, [r0], #-0
     b58:	01000000 	mrseq	r0, (UNDEF: 0)
     b5c:	00005400 	andeq	r5, r0, r0, lsl #8
	...
     b6c:	00000270 	andeq	r0, r0, r0, ror r2
     b70:	0000029c 	muleq	r0, ip, r2
     b74:	9c500001 	mrrcls	0, 0, r0, r0, cr1	; <UNPREDICTABLE>
     b78:	0c000002 	stceq	0, cr0, [r0], {2}
     b7c:	01000005 	tsteq	r0, r5
     b80:	050c5700 	streq	r5, [ip, #-1792]	; 0xfffff900
     b84:	05200000 	streq	r0, [r0, #-0]!
     b88:	00040000 	andeq	r0, r4, r0
     b8c:	9f5001f3 	svcls	0x005001f3
	...
     b9c:	02700000 	rsbseq	r0, r0, #0
     ba0:	02880000 	addeq	r0, r8, #0
     ba4:	00010000 	andeq	r0, r1, r0
     ba8:	00028851 	andeq	r8, r2, r1, asr r8
     bac:	00029c00 	andeq	r9, r2, r0, lsl #24
     bb0:	71000300 	mrsvc	r0, LR_irq
     bb4:	029c9f01 	addseq	r9, ip, #1, 30
     bb8:	05200000 	streq	r0, [r0, #-0]!
     bbc:	00040000 	andeq	r0, r4, r0
     bc0:	9f5101f3 	svcls	0x005101f3
	...
     bd0:	00000270 	andeq	r0, r0, r0, ror r2
     bd4:	0000029c 	muleq	r0, ip, r2
     bd8:	9c520001 	mrrcls	0, 0, r0, r2, cr1
     bdc:	0c000002 	stceq	0, cr0, [r0], {2}
     be0:	01000005 	tsteq	r0, r5
     be4:	00005900 	andeq	r5, r0, r0, lsl #18
     be8:	00000000 	andeq	r0, r0, r0
     bec:	00010000 	andeq	r0, r1, r0
     bf0:	00000000 	andeq	r0, r0, r0
     bf4:	00010100 	andeq	r0, r1, r0, lsl #2
     bf8:	00000000 	andeq	r0, r0, r0
     bfc:	00020200 	andeq	r0, r2, r0, lsl #4
     c00:	02840000 	addeq	r0, r4, #0
     c04:	029c0000 	addseq	r0, ip, #0
     c08:	00010000 	andeq	r0, r1, r0
     c0c:	00029c50 	andeq	r9, r2, r0, asr ip
     c10:	0002a000 	andeq	sl, r2, r0
     c14:	54000100 	strpl	r0, [r0], #-256	; 0xffffff00
     c18:	000002a0 	andeq	r0, r0, r0, lsr #5
     c1c:	000002a4 	andeq	r0, r0, r4, lsr #5
     c20:	01740003 	cmneq	r4, r3
     c24:	0002a49f 	muleq	r2, pc, r4	; <UNPREDICTABLE>
     c28:	0002c800 	andeq	ip, r2, r0, lsl #16
     c2c:	54000100 	strpl	r0, [r0], #-256	; 0xffffff00
     c30:	000002c8 	andeq	r0, r0, r8, asr #5
     c34:	000002cc 	andeq	r0, r0, ip, asr #5
     c38:	01740003 	cmneq	r4, r3
     c3c:	0002cc9f 	muleq	r2, pc, ip	; <UNPREDICTABLE>
     c40:	0003f800 	andeq	pc, r3, r0, lsl #16
     c44:	54000100 	strpl	r0, [r0], #-256	; 0xffffff00
     c48:	000003f8 	strdeq	r0, [r0], -r8
     c4c:	000003fc 	strdeq	r0, [r0], -ip
     c50:	01740003 	cmneq	r4, r3
     c54:	0003fc9f 	muleq	r3, pc, ip	; <UNPREDICTABLE>
     c58:	0004f800 	andeq	pc, r4, r0, lsl #16
     c5c:	54000100 	strpl	r0, [r0], #-256	; 0xffffff00
     c60:	000004f8 	strdeq	r0, [r0], -r8
     c64:	00000500 	andeq	r0, r0, r0, lsl #10
     c68:	01740003 	cmneq	r4, r3
     c6c:	0005009f 	muleq	r5, pc, r0	; <UNPREDICTABLE>
     c70:	00050c00 	andeq	r0, r5, r0, lsl #24
     c74:	54000100 	strpl	r0, [r0], #-256	; 0xffffff00
	...
     c84:	0000028c 	andeq	r0, r0, ip, lsl #5
     c88:	0000050c 	andeq	r0, r0, ip, lsl #10
     c8c:	0c580001 	mrrceq	0, 0, r0, r8, cr1
     c90:	20000005 	andcs	r0, r0, r5
     c94:	0a000005 	beq	cb0 <_start-0x7350>
     c98:	5101f300 	mrspl	pc, SP_irq	; <UNPREDICTABLE>
     c9c:	225001f3 	subscs	r0, r0, #-1073741764	; 0xc000003c
     ca0:	009f1c31 	addseq	r1, pc, r1, lsr ip	; <UNPREDICTABLE>
	...
     cb4:	0003dc00 	andeq	sp, r3, r0, lsl #24
     cb8:	00040000 	andeq	r0, r4, r0
     cbc:	50000100 	andpl	r0, r0, r0, lsl #2
     cc0:	0000042c 	andeq	r0, r0, ip, lsr #8
     cc4:	00000430 	andeq	r0, r0, r0, lsr r4
     cc8:	5c500001 	mrrcpl	0, 0, r0, r0, cr1	; <UNPREDICTABLE>
     ccc:	60000004 	andvs	r0, r0, r4
     cd0:	01000004 	tsteq	r0, r4
     cd4:	048c5000 	streq	r5, [ip], #0
     cd8:	04900000 	ldreq	r0, [r0], #0
     cdc:	00010000 	andeq	r0, r1, r0
     ce0:	0004d050 	andeq	sp, r4, r0, asr r0
     ce4:	0004d400 	andeq	sp, r4, r0, lsl #8
     ce8:	50000100 	andpl	r0, r0, r0, lsl #2
	...
     cf4:	00000002 	andeq	r0, r0, r2
     cf8:	02d80000 	sbcseq	r0, r8, #0
     cfc:	02e00000 	rsceq	r0, r0, #0
     d00:	00020000 	andeq	r0, r2, r0
     d04:	02e09f30 	rsceq	r9, r0, #48, 30	; 0xc0
     d08:	02e40000 	rsceq	r0, r4, #0
     d0c:	00010000 	andeq	r0, r1, r0
     d10:	0002ec56 	andeq	lr, r2, r6, asr ip
     d14:	0004f800 	andeq	pc, r4, r0, lsl #16
     d18:	56000100 	strpl	r0, [r0], -r0, lsl #2
	...
     d28:	00700000 	rsbseq	r0, r0, r0
     d2c:	00940000 	addseq	r0, r4, r0
     d30:	00010000 	andeq	r0, r1, r0
     d34:	00009450 	andeq	r9, r0, r0, asr r4
     d38:	0000fc00 	andeq	pc, r0, r0, lsl #24
     d3c:	70000300 	andvc	r0, r0, r0, lsl #6
     d40:	00fc9f02 	rscseq	r9, ip, r2, lsl #30
     d44:	021c0000 	andseq	r0, ip, #0
     d48:	00040000 	andeq	r0, r4, r0
     d4c:	9f5001f3 	svcls	0x005001f3
	...
     d68:	00000070 	andeq	r0, r0, r0, ror r0
     d6c:	000000e0 	andeq	r0, r0, r0, ror #1
     d70:	e0510001 	subs	r0, r1, r1
     d74:	54000000 	strpl	r0, [r0], #-0
     d78:	01000001 	tsteq	r0, r1
     d7c:	01545500 	cmpeq	r4, r0, lsl #10
     d80:	01580000 	cmpeq	r8, r0
     d84:	00010000 	andeq	r0, r1, r0
     d88:	00015851 	andeq	r5, r1, r1, asr r8
     d8c:	0001b000 	andeq	fp, r1, r0
     d90:	55000100 	strpl	r0, [r0, #-256]	; 0xffffff00
     d94:	000001b0 			; <UNDEFINED> instruction: 0x000001b0
     d98:	000001c0 	andeq	r0, r0, r0, asr #3
     d9c:	c0510001 	subsgt	r0, r1, r1
     da0:	e4000001 	str	r0, [r0], #-1
     da4:	01000001 	tsteq	r0, r1
     da8:	01e45500 	mvneq	r5, r0, lsl #10
     dac:	01e70000 	mvneq	r0, r0
     db0:	00010000 	andeq	r0, r1, r0
     db4:	0001e751 	andeq	lr, r1, r1, asr r7
     db8:	00021c00 	andeq	r1, r2, r0, lsl #24
     dbc:	55000100 	strpl	r0, [r0, #-256]	; 0xffffff00
	...
     dcc:	00000070 	andeq	r0, r0, r0, ror r0
     dd0:	00000084 	andeq	r0, r0, r4, lsl #1
     dd4:	84520001 	ldrbhi	r0, [r2], #-1
     dd8:	1c000000 	stcne	0, cr0, [r0], {-0}
     ddc:	01000002 	tsteq	r0, r2
     de0:	00005400 	andeq	r5, r0, r0, lsl #8
	...
     dec:	01000000 	mrseq	r0, (UNDEF: 0)
     df0:	00000000 	andeq	r0, r0, r0
     df4:	00000070 	andeq	r0, r0, r0, ror r0
     df8:	000000f4 	strdeq	r0, [r0], -r4
     dfc:	4c530001 	mrrcmi	0, 0, r0, r3, cr1
     e00:	80000001 	andhi	r0, r0, r1
     e04:	01000001 	tsteq	r0, r1
     e08:	01805300 	orreq	r5, r0, r0, lsl #6
     e0c:	018c0000 	orreq	r0, ip, r0
     e10:	00040000 	andeq	r0, r4, r0
     e14:	9f5301f3 	svcls	0x005301f3
     e18:	000001b0 			; <UNDEFINED> instruction: 0x000001b0
     e1c:	000001e7 	andeq	r0, r0, r7, ror #3
     e20:	e7530001 	ldrb	r0, [r3, -r1]
     e24:	1c000001 	stcne	0, cr0, [r0], {1}
     e28:	04000002 	streq	r0, [r0], #-2
     e2c:	5301f300 	movwpl	pc, #4864	; 0x1300	; <UNPREDICTABLE>
     e30:	0000009f 	muleq	r0, pc, r0	; <UNPREDICTABLE>
	...
     e3c:	70000000 	andvc	r0, r0, r0
     e40:	8c000000 	stchi	0, cr0, [r0], {-0}
     e44:	02000000 	andeq	r0, r0, #0
     e48:	8c009100 	stfhid	f1, [r0], {-0}
     e4c:	93000000 	movwls	r0, #0
     e50:	01000001 	tsteq	r0, r1
     e54:	01b05200 	lslseq	r5, r0, #4
     e58:	01e70000 	mvneq	r0, r0
     e5c:	00010000 	andeq	r0, r1, r0
     e60:	00000052 	andeq	r0, r0, r2, asr r0
     e64:	00000000 	andeq	r0, r0, r0
     e68:	00000100 	andeq	r0, r0, r0, lsl #2
     e6c:	00000101 	andeq	r0, r0, r1, lsl #2
     e70:	00000000 	andeq	r0, r0, r0
     e74:	01010000 	mrseq	r0, (UNDEF: 1)
     e78:	00000101 	andeq	r0, r0, r1, lsl #2
     e7c:	00000101 	andeq	r0, r0, r1, lsl #2
	...
     e88:	00008c00 	andeq	r8, r0, r0, lsl #24
     e8c:	0000fc00 	andeq	pc, r0, r0, lsl #24
     e90:	5d000100 	stfpls	f0, [r0, #-0]
     e94:	000000fc 	strdeq	r0, [r0], -ip
     e98:	0000013c 	andeq	r0, r0, ip, lsr r1
     e9c:	3c500001 	mrrccc	0, 0, r0, r0, cr1	; <UNPREDICTABLE>
     ea0:	48000001 	stmdami	r0, {r0}
     ea4:	03000001 	movweq	r0, #1
     ea8:	9f027100 	svcls	0x00027100
     eac:	00000148 	andeq	r0, r0, r8, asr #2
     eb0:	0000014c 	andeq	r0, r0, ip, asr #2
     eb4:	4c500001 	mrrcmi	0, 0, r0, r0, cr1	; <UNPREDICTABLE>
     eb8:	58000001 	stmdapl	r0, {r0}
     ebc:	01000001 	tsteq	r0, r1
     ec0:	01585d00 	cmpeq	r8, r0, lsl #26
     ec4:	016c0000 	cmneq	ip, r0
     ec8:	00010000 	andeq	r0, r1, r0
     ecc:	00016c51 	andeq	r6, r1, r1, asr ip
     ed0:	00017800 	andeq	r7, r1, r0, lsl #16
     ed4:	71000300 	mrsvc	r0, LR_irq
     ed8:	01789f7f 	cmneq	r8, pc, ror pc
     edc:	01840000 	orreq	r0, r4, r0
     ee0:	00030000 	andeq	r0, r3, r0
     ee4:	849f0171 	ldrhi	r0, [pc], #369	; eec <_start-0x7114>
     ee8:	93000001 	movwls	r0, #1
     eec:	01000001 	tsteq	r0, r1
     ef0:	01b05000 	movseq	r5, r0
     ef4:	01b00000 	movseq	r0, r0
     ef8:	00010000 	andeq	r0, r1, r0
     efc:	0001b05d 	andeq	fp, r1, sp, asr r0
     f00:	0001b800 	andeq	fp, r1, r0, lsl #16
     f04:	91000400 	tstls	r0, r0, lsl #8
     f08:	b89f7fa1 	ldmlt	pc, {r0, r5, r7, r8, r9, sl, fp, ip, sp, lr}	; <UNPREDICTABLE>
     f0c:	bc000001 	stclt	0, cr0, [r0], {1}
     f10:	01000001 	tsteq	r0, r1
     f14:	01bc5000 			; <UNDEFINED> instruction: 0x01bc5000
     f18:	01c00000 	biceq	r0, r0, r0
     f1c:	00010000 	andeq	r0, r1, r0
     f20:	0001c05d 	andeq	ip, r1, sp, asr r0
     f24:	0001d400 	andeq	sp, r1, r0, lsl #8
     f28:	50000100 	andpl	r0, r0, r0, lsl #2
     f2c:	000001d4 	ldrdeq	r0, [r0], -r4
     f30:	000001e4 	andeq	r0, r0, r4, ror #3
     f34:	7f700003 	svcvc	0x00700003
     f38:	0001e49f 	muleq	r1, pc, r4	; <UNPREDICTABLE>
     f3c:	00021c00 	andeq	r1, r2, r0, lsl #24
     f40:	5d000100 	stfpls	f0, [r0, #-0]
	...
     f4c:	01000000 	mrseq	r0, (UNDEF: 0)
     f50:	00000001 	andeq	r0, r0, r1
	...
     f5c:	00900000 	addseq	r0, r0, r0
     f60:	00dc0000 	sbcseq	r0, ip, r0
     f64:	00010000 	andeq	r0, r1, r0
     f68:	0000dc5c 	andeq	sp, r0, ip, asr ip
     f6c:	0000f400 	andeq	pc, r0, r0, lsl #8
     f70:	53000100 	movwpl	r0, #256	; 0x100
     f74:	000000f4 	strdeq	r0, [r0], -r4
     f78:	0000014c 	andeq	r0, r0, ip, asr #2
     f7c:	4c5c0001 	mrrcmi	0, 0, r0, ip, cr1
     f80:	58000001 	stmdapl	r0, {r0}
     f84:	01000001 	tsteq	r0, r1
     f88:	01585300 	cmpeq	r8, r0, lsl #6
     f8c:	01740000 	cmneq	r4, r0
     f90:	00010000 	andeq	r0, r1, r0
     f94:	0001b05c 	andeq	fp, r1, ip, asr r0
     f98:	0001c000 	andeq	ip, r1, r0
     f9c:	53000100 	movwpl	r0, #256	; 0x100
     fa0:	000001c0 	andeq	r0, r0, r0, asr #3
     fa4:	000001dc 	ldrdeq	r0, [r0], -ip
     fa8:	e45c0001 	ldrb	r0, [ip], #-1
     fac:	e7000001 	str	r0, [r0, -r1]
     fb0:	01000001 	tsteq	r0, r1
     fb4:	01e75300 	mvneq	r5, r0, lsl #6
     fb8:	021c0000 	andseq	r0, ip, #0
     fbc:	00040000 	andeq	r0, r4, r0
     fc0:	9f5301f3 	svcls	0x005301f3
	...
     fcc:	00010101 	andeq	r0, r1, r1, lsl #2
     fd0:	00000000 	andeq	r0, r0, r0
     fd4:	000000dc 	ldrdeq	r0, [r0], -ip
     fd8:	000000f0 	strdeq	r0, [r0], -r0	; <UNPREDICTABLE>
     fdc:	9f300002 	svcls	0x00300002
     fe0:	000000f0 	strdeq	r0, [r0], -r0	; <UNPREDICTABLE>
     fe4:	000000f8 	strdeq	r0, [r0], -r8
     fe8:	9f310002 	svcls	0x00310002
     fec:	000000fc 	strdeq	r0, [r0], -ip
     ff0:	0000014c 	andeq	r0, r0, ip, asr #2
     ff4:	4c560001 	mrrcmi	0, 0, r0, r6, cr1
     ff8:	54000001 	strpl	r0, [r0], #-1
     ffc:	02000001 	andeq	r0, r0, #1
    1000:	009f3000 	addseq	r3, pc, r0
	...
    100c:	01010000 	mrseq	r0, (UNDEF: 1)
    1010:	01010000 	mrseq	r0, (UNDEF: 1)
    1014:	00003800 	andeq	r3, r0, r0, lsl #16
    1018:	00005400 	andeq	r5, r0, r0, lsl #8
    101c:	50000100 	andpl	r0, r0, r0, lsl #2
    1020:	00000054 	andeq	r0, r0, r4, asr r0
    1024:	00000058 	andeq	r0, r0, r8, asr r0
    1028:	58520001 	ldmdapl	r2, {r0}^
    102c:	60000000 	andvs	r0, r0, r0
    1030:	03000000 	movweq	r0, #0
    1034:	9f017200 	svcls	0x00017200
    1038:	00000060 	andeq	r0, r0, r0, rrx
    103c:	00000064 	andeq	r0, r0, r4, rrx
    1040:	64520001 	ldrbvs	r0, [r2], #-1
    1044:	70000000 	andvc	r0, r0, r0
    1048:	03000000 	movweq	r0, #0
    104c:	9f017200 	svcls	0x00017200
	...
    105c:	00000038 	andeq	r0, r0, r8, lsr r0
    1060:	00000050 	andeq	r0, r0, r0, asr r0
    1064:	50510001 	subspl	r0, r1, r1
    1068:	70000000 	andvc	r0, r0, r0
    106c:	04000000 	streq	r0, [r0], #-0
    1070:	5101f300 	mrspl	pc, SP_irq	; <UNPREDICTABLE>
    1074:	0000009f 	muleq	r0, pc, r0	; <UNPREDICTABLE>
	...
    1080:	01010000 	mrseq	r0, (UNDEF: 1)
    1084:	00003800 	andeq	r3, r0, r0, lsl #16
    1088:	00005000 	andeq	r5, r0, r0
    108c:	52000100 	andpl	r0, r0, #0, 2
    1090:	00000050 	andeq	r0, r0, r0, asr r0
    1094:	0000005c 	andeq	r0, r0, ip, asr r0
    1098:	5c510001 	mrrcpl	0, 0, r0, r1, cr1
    109c:	60000000 	andvs	r0, r0, r0
    10a0:	03000000 	movweq	r0, #0
    10a4:	9f017100 	svcls	0x00017100
    10a8:	00000060 	andeq	r0, r0, r0, rrx
    10ac:	00000070 	andeq	r0, r0, r0, ror r0
    10b0:	00510001 	subseq	r0, r1, r1
	...
    10bc:	38000000 	stmdacc	r0, {}	; <UNPREDICTABLE>
    10c0:	4c000000 	stcmi	0, cr0, [r0], {-0}
    10c4:	01000000 	mrseq	r0, (UNDEF: 0)
    10c8:	004c5300 	subeq	r5, ip, r0, lsl #6
    10cc:	00680000 	rsbeq	r0, r8, r0
    10d0:	00010000 	andeq	r0, r1, r0
    10d4:	00000053 	andeq	r0, r0, r3, asr r0
	...
    10e4:	00004000 	andeq	r4, r0, r0
    10e8:	00004800 	andeq	r4, r0, r0, lsl #16
    10ec:	5c000100 	stfpls	f0, [r0], {-0}
    10f0:	00000048 	andeq	r0, r0, r8, asr #32
    10f4:	0000004c 	andeq	r0, r0, ip, asr #32
    10f8:	00720008 	rsbseq	r0, r2, r8
    10fc:	231c0073 	tstcs	ip, #115	; 0x73
    1100:	004c9f01 	subeq	r9, ip, r1, lsl #30
    1104:	00540000 	subseq	r0, r4, r0
    1108:	00090000 	andeq	r0, r9, r0
    110c:	01f30072 	mvnseq	r0, r2, ror r0
    1110:	01231c53 			; <UNDEFINED> instruction: 0x01231c53
    1114:	0000549f 	muleq	r0, pc, r4	; <UNPREDICTABLE>
    1118:	00007000 	andeq	r7, r0, r0
    111c:	f3000a00 	vpmax.u8	d0, d0, d0
    1120:	01f35201 	mvnseq	r5, r1, lsl #4
    1124:	01231c53 			; <UNDEFINED> instruction: 0x01231c53
    1128:	0000009f 	muleq	r0, pc, r0	; <UNPREDICTABLE>
    112c:	00000000 	andeq	r0, r0, r0
    1130:	4c000100 	stfmis	f0, [r0], {-0}
    1134:	70000000 	andvc	r0, r0, r0
    1138:	01000000 	mrseq	r0, (UNDEF: 0)
    113c:	00005000 	andeq	r5, r0, r0
    1140:	00000000 	andeq	r0, r0, r0
    1144:	01000000 	mrseq	r0, (UNDEF: 0)
    1148:	00000001 	andeq	r0, r0, r1
    114c:	00000014 	andeq	r0, r0, r4, lsl r0
    1150:	0000001c 	andeq	r0, r0, ip, lsl r0
    1154:	1c500001 	mrrcne	0, 0, r0, r0, cr1	; <UNPREDICTABLE>
    1158:	24000000 	strcs	r0, [r0], #-0
    115c:	03000000 	movweq	r0, #0
    1160:	9f017000 	svcls	0x00017000
    1164:	00000024 	andeq	r0, r0, r4, lsr #32
    1168:	00000038 	andeq	r0, r0, r8, lsr r0
    116c:	00500001 	subseq	r0, r0, r1
	...
    1178:	14000000 	strne	r0, [r0], #-0
    117c:	18000000 	stmdane	r0, {}	; <UNPREDICTABLE>
    1180:	01000000 	mrseq	r0, (UNDEF: 0)
    1184:	00185100 	andseq	r5, r8, r0, lsl #2
    1188:	00380000 	eorseq	r0, r8, r0
    118c:	00040000 	andeq	r0, r4, r0
    1190:	9f5101f3 	svcls	0x005101f3
	...
    119c:	00180000 	andseq	r0, r8, r0
    11a0:	00380000 	eorseq	r0, r8, r0
    11a4:	00010000 	andeq	r0, r1, r0
    11a8:	00000051 	andeq	r0, r0, r1, asr r0
	...
    11b8:	04000000 	streq	r0, [r0], #-0
    11bc:	01000000 	mrseq	r0, (UNDEF: 0)
    11c0:	00045000 	andeq	r5, r4, r0
    11c4:	000c0000 	andeq	r0, ip, r0
    11c8:	00030000 	andeq	r0, r3, r0
    11cc:	0c9f3070 	ldceq	0, cr3, [pc], {112}	; 0x70
    11d0:	14000000 	strne	r0, [r0], #-0
    11d4:	04000000 	streq	r0, [r0], #-0
    11d8:	5001f300 	andpl	pc, r1, r0, lsl #6
    11dc:	0000009f 	muleq	r0, pc, r0	; <UNPREDICTABLE>
	...
    11e8:	00021c00 	andeq	r1, r2, r0, lsl #24
    11ec:	00024300 	andeq	r4, r2, r0, lsl #6
    11f0:	50000100 	andpl	r0, r0, r0, lsl #2
    11f4:	00000243 	andeq	r0, r0, r3, asr #4
    11f8:	00000270 	andeq	r0, r0, r0, ror r2
    11fc:	01f30004 	mvnseq	r0, r4
    1200:	00009f50 	andeq	r9, r0, r0, asr pc
	...
    120c:	021c0000 	andseq	r0, ip, #0
    1210:	02430000 	subeq	r0, r3, #0
    1214:	00010000 	andeq	r0, r1, r0
    1218:	00024351 	andeq	r4, r2, r1, asr r3
    121c:	00027000 	andeq	r7, r2, r0
    1220:	f3000400 	vshl.u8	d0, d0, d0
    1224:	009f5101 	addseq	r5, pc, r1, lsl #2
	...
    1230:	00000101 	andeq	r0, r0, r1, lsl #2
    1234:	00000800 	andeq	r0, r0, r0, lsl #16
    1238:	00001000 	andeq	r1, r0, r0
    123c:	53000100 	movwpl	r0, #256	; 0x100
    1240:	00000010 	andeq	r0, r0, r0, lsl r0
    1244:	00000018 	andeq	r0, r0, r8, lsl r0
    1248:	04730003 	ldrbteq	r0, [r3], #-3
    124c:	0000189f 	muleq	r0, pc, r8	; <UNPREDICTABLE>
    1250:	00001f00 	andeq	r1, r0, r0, lsl #30
    1254:	53000100 	movwpl	r0, #256	; 0x100
	...
    1260:	91400001 	cmpls	r0, r1
    1264:	915c0000 	cmpls	ip, r0
    1268:	00060000 	andeq	r0, r6, r0
    126c:	10001c0c 	andne	r1, r0, ip, lsl #24
    1270:	00009f20 	andeq	r9, r0, r0, lsr #30
    1274:	00000000 	andeq	r0, r0, r0
    1278:	00020000 	andeq	r0, r2, r0
    127c:	00009140 	andeq	r9, r0, r0, asr #2
    1280:	0000915c 	andeq	r9, r0, ip, asr r1
    1284:	240c0006 	strcs	r0, [ip], #-6
    1288:	9f201000 	svcls	0x00201000
	...
    1294:	91400003 	cmpls	r0, r3
    1298:	915c0000 	cmpls	ip, r0
    129c:	00050000 	andeq	r0, r5, r0
    12a0:	2447b408 	strbcs	fp, [r7], #-1032	; 0xfffffbf8
    12a4:	0000009f 	muleq	r0, pc, r0	; <UNPREDICTABLE>
    12a8:	00000000 	andeq	r0, r0, r0
    12ac:	40000400 	andmi	r0, r0, r0, lsl #8
    12b0:	5c000091 	stcpl	0, cr0, [r0], {145}	; 0x91
    12b4:	03000091 	movweq	r0, #145	; 0x91
    12b8:	9f200800 	svcls	0x00200800
	...
    12c4:	00000002 	andeq	r0, r0, r2
    12c8:	91140000 	tstls	r4, r0
    12cc:	91180000 	tstls	r8, r0
    12d0:	00020000 	andeq	r0, r2, r0
    12d4:	91189f30 	tstls	r8, r0, lsr pc
    12d8:	911c0000 	tstls	ip, r0
    12dc:	00010000 	andeq	r0, r1, r0
    12e0:	00912053 	addseq	r2, r1, r3, asr r0
    12e4:	00912800 	addseq	r2, r1, r0, lsl #16
    12e8:	53000100 	movwpl	r0, #256	; 0x100
	...
    12f4:	00000002 	andeq	r0, r0, r2
    12f8:	000090fc 	strdeq	r9, [r0], -ip
    12fc:	00009100 	andeq	r9, r0, r0, lsl #2
    1300:	9f300002 	svcls	0x00300002
    1304:	00009100 	andeq	r9, r0, r0, lsl #2
    1308:	00009104 	andeq	r9, r0, r4, lsl #2
    130c:	00500001 	subseq	r0, r0, r1
	...
    1318:	74000000 	strvc	r0, [r0], #-0
    131c:	80000000 	andhi	r0, r0, r0
    1320:	01000000 	mrseq	r0, (UNDEF: 0)
    1324:	00805000 	addeq	r5, r0, r0
    1328:	008c0000 	addeq	r0, ip, r0
    132c:	00040000 	andeq	r0, r4, r0
    1330:	9f5001f3 	svcls	0x005001f3
	...
    1340:	0000005c 	andeq	r0, r0, ip, asr r0
    1344:	00000068 	andeq	r0, r0, r8, rrx
    1348:	68500001 	ldmdavs	r0, {r0}^
    134c:	74000000 	strvc	r0, [r0], #-0
    1350:	04000000 	streq	r0, [r0], #-0
    1354:	5001f300 	andpl	pc, r1, r0, lsl #6
    1358:	0000009f 	muleq	r0, pc, r0	; <UNPREDICTABLE>
	...
    1364:	00003800 	andeq	r3, r0, r0, lsl #16
    1368:	00004300 	andeq	r4, r0, r0, lsl #6
    136c:	50000100 	andpl	r0, r0, r0, lsl #2
    1370:	00000043 	andeq	r0, r0, r3, asr #32
    1374:	0000005c 	andeq	r0, r0, ip, asr r0
    1378:	00550001 	subseq	r0, r5, r1
	...
    1384:	00004800 	andeq	r4, r0, r0, lsl #16
    1388:	00005c00 	andeq	r5, r0, r0, lsl #24
    138c:	54000100 	strpl	r0, [r0], #-256	; 0xffffff00
	...
    1398:	004c0000 	subeq	r0, ip, r0
    139c:	00500000 	subseq	r0, r0, r0
    13a0:	00010000 	andeq	r0, r1, r0
    13a4:	00000050 	andeq	r0, r0, r0, asr r0
    13a8:	00000000 	andeq	r0, r0, r0
    13ac:	34000000 	strcc	r0, [r0], #-0
    13b0:	38000000 	stmdacc	r0, {}	; <UNPREDICTABLE>
    13b4:	01000000 	mrseq	r0, (UNDEF: 0)
    13b8:	00005000 	andeq	r5, r0, r0
	...
    13c8:	00040000 	andeq	r0, r4, r0
    13cc:	00010000 	andeq	r0, r1, r0
    13d0:	00000450 	andeq	r0, r0, r0, asr r4
    13d4:	00001800 	andeq	r1, r0, r0, lsl #16
    13d8:	53000100 	movwpl	r0, #256	; 0x100
	...
    13e4:	00000138 	andeq	r0, r0, r8, lsr r1
    13e8:	00000143 	andeq	r0, r0, r3, asr #2
    13ec:	43500001 	cmpmi	r0, #1
    13f0:	68000001 	stmdavs	r0, {r0}
    13f4:	01000001 	tsteq	r0, r1
    13f8:	00005400 	andeq	r5, r0, r0, lsl #8
	...
    1404:	000f0000 	andeq	r0, pc, r0
    1408:	00010000 	andeq	r0, r1, r0
    140c:	00000f50 	andeq	r0, r0, r0, asr pc
    1410:	00002000 	andeq	r2, r0, r0
    1414:	54000100 	strpl	r0, [r0], #-256	; 0xffffff00
	...
    1424:	0000000f 	andeq	r0, r0, pc
    1428:	0f510001 	svceq	0x00510001
    142c:	20000000 	andcs	r0, r0, r0
    1430:	01000000 	mrseq	r0, (UNDEF: 0)
    1434:	00005500 	andeq	r5, r0, r0, lsl #10
    1438:	00000000 	andeq	r0, r0, r0
    143c:	00ec0000 	rsceq	r0, ip, r0
    1440:	01040000 	mrseq	r0, (UNDEF: 4)
    1444:	00010000 	andeq	r0, r1, r0
    1448:	00010450 	andeq	r0, r1, r0, asr r4
    144c:	00011400 	andeq	r1, r1, r0, lsl #8
    1450:	f3000400 	vshl.u8	d0, d0, d0
    1454:	149f5001 	ldrne	r5, [pc], #1	; 145c <_start-0x6ba4>
    1458:	18000001 	stmdane	r0, {r0}
    145c:	01000001 	tsteq	r0, r1
    1460:	01185000 	tsteq	r8, r0
    1464:	01200000 			; <UNDEFINED> instruction: 0x01200000
    1468:	00040000 	andeq	r0, r4, r0
    146c:	9f5001f3 	svcls	0x005001f3
	...
    1478:	000000f8 	strdeq	r0, [r0], -r8
    147c:	00000104 	andeq	r0, r0, r4, lsl #2
    1480:	0070000b 	rsbseq	r0, r0, fp
    1484:	b4232535 	strtlt	r2, [r3], #-1333	; 0xfffffacb
    1488:	02818080 	addeq	r8, r1, #128	; 0x80
    148c:	0001049f 	muleq	r1, pc, r4	; <UNPREDICTABLE>
    1490:	00010700 	andeq	r0, r1, r0, lsl #14
    1494:	50000100 	andpl	r0, r0, r0, lsl #2
    1498:	00000107 	andeq	r0, r0, r7, lsl #2
    149c:	00000114 	andeq	r0, r0, r4, lsl r1
    14a0:	01f3000c 	mvnseq	r0, ip
    14a4:	23253550 			; <UNDEFINED> instruction: 0x23253550
    14a8:	818080b4 	strhhi	r8, [r0, r4]
    14ac:	00009f02 	andeq	r9, r0, r2, lsl #30
    14b0:	00000000 	andeq	r0, r0, r0
    14b4:	00fc0000 	rscseq	r0, ip, r0
    14b8:	01140000 	tsteq	r4, r0
    14bc:	00010000 	andeq	r0, r1, r0
    14c0:	00000054 	andeq	r0, r0, r4, asr r0
    14c4:	00000000 	andeq	r0, r0, r0
    14c8:	0000d000 	andeq	sp, r0, r0
    14cc:	0000df00 	andeq	sp, r0, r0, lsl #30
    14d0:	50000100 	andpl	r0, r0, r0, lsl #2
    14d4:	000000df 	ldrdeq	r0, [r0], -pc	; <UNPREDICTABLE>
    14d8:	000000e4 	andeq	r0, r0, r4, ror #1
    14dc:	01f30004 	mvnseq	r0, r4
    14e0:	00e49f50 	rsceq	r9, r4, r0, asr pc
    14e4:	00e70000 	rsceq	r0, r7, r0
    14e8:	00010000 	andeq	r0, r1, r0
    14ec:	0000e750 	andeq	lr, r0, r0, asr r7
    14f0:	0000ec00 	andeq	lr, r0, r0, lsl #24
    14f4:	f3000400 	vshl.u8	d0, d0, d0
    14f8:	009f5001 	addseq	r5, pc, r1
    14fc:	00000000 	andeq	r0, r0, r0
    1500:	d0000000 	andle	r0, r0, r0
    1504:	df000000 	svcle	0x00000000
    1508:	01000000 	mrseq	r0, (UNDEF: 0)
    150c:	00df5100 	sbcseq	r5, pc, r0, lsl #2
    1510:	00e40000 	rsceq	r0, r4, r0
    1514:	00040000 	andeq	r0, r4, r0
    1518:	9f5101f3 	svcls	0x005101f3
    151c:	000000e4 	andeq	r0, r0, r4, ror #1
    1520:	000000e7 	andeq	r0, r0, r7, ror #1
    1524:	e7510001 	ldrb	r0, [r1, -r1]
    1528:	ec000000 	stc	0, cr0, [r0], {-0}
    152c:	04000000 	streq	r0, [r0], #-0
    1530:	5101f300 	mrspl	pc, SP_irq	; <UNPREDICTABLE>
    1534:	0000009f 	muleq	r0, pc, r0	; <UNPREDICTABLE>
    1538:	00000000 	andeq	r0, r0, r0
    153c:	0000c000 	andeq	ip, r0, r0
    1540:	0000cb00 	andeq	ip, r0, r0, lsl #22
    1544:	50000100 	andpl	r0, r0, r0, lsl #2
    1548:	000000cb 	andeq	r0, r0, fp, asr #1
    154c:	000000d0 	ldrdeq	r0, [r0], -r0	; <UNPREDICTABLE>
    1550:	01f30004 	mvnseq	r0, r4
    1554:	00009f50 	andeq	r9, r0, r0, asr pc
    1558:	00000000 	andeq	r0, r0, r0
    155c:	009c0000 	addseq	r0, ip, r0
    1560:	00b40000 	adcseq	r0, r4, r0
    1564:	00010000 	andeq	r0, r1, r0
    1568:	0000b450 	andeq	fp, r0, r0, asr r4
    156c:	0000c000 	andeq	ip, r0, r0
    1570:	f3000400 	vshl.u8	d0, d0, d0
    1574:	009f5001 	addseq	r5, pc, r1
    1578:	00000000 	andeq	r0, r0, r0
    157c:	78000000 	stmdavc	r0, {}	; <UNPREDICTABLE>
    1580:	90000000 	andls	r0, r0, r0
    1584:	01000000 	mrseq	r0, (UNDEF: 0)
    1588:	00905000 	addseq	r5, r0, r0
    158c:	009c0000 	addseq	r0, ip, r0
    1590:	00040000 	andeq	r0, r4, r0
    1594:	9f5001f3 	svcls	0x005001f3
	...
    15a0:	00000068 	andeq	r0, r0, r8, rrx
    15a4:	00000073 	andeq	r0, r0, r3, ror r0
    15a8:	73500001 	cmpvc	r0, #1
    15ac:	78000000 	stmdavc	r0, {}	; <UNPREDICTABLE>
    15b0:	04000000 	streq	r0, [r0], #-0
    15b4:	5001f300 	andpl	pc, r1, r0, lsl #6
    15b8:	0000009f 	muleq	r0, pc, r0	; <UNPREDICTABLE>
	...
    15c4:	00004800 	andeq	r4, r0, r0, lsl #16
    15c8:	50000100 	andpl	r0, r0, r0, lsl #2
    15cc:	00000048 	andeq	r0, r0, r8, asr #32
    15d0:	00000068 	andeq	r0, r0, r8, rrx
    15d4:	01f30004 	mvnseq	r0, r4
    15d8:	00009f50 	andeq	r9, r0, r0, asr pc
	...
    15e4:	004b0000 	subeq	r0, fp, r0
    15e8:	00010000 	andeq	r0, r1, r0
    15ec:	00004b51 	andeq	r4, r0, r1, asr fp
    15f0:	00006800 	andeq	r6, r0, r0, lsl #16
    15f4:	f3000400 	vshl.u8	d0, d0, d0
    15f8:	009f5101 	addseq	r5, pc, r1, lsl #2
    15fc:	00000000 	andeq	r0, r0, r0
    1600:	4c000000 	stcmi	0, cr0, [r0], {-0}
    1604:	54000000 	strpl	r0, [r0], #-0
    1608:	01000000 	mrseq	r0, (UNDEF: 0)
    160c:	00545000 	subseq	r5, r4, r0
    1610:	00580000 	subseq	r0, r8, r0
    1614:	00090000 	andeq	r0, r9, r0
    1618:	00740075 	rsbseq	r0, r4, r5, ror r0
    161c:	21007124 	tstcs	r0, r4, lsr #2
    1620:	0000589f 	muleq	r0, pc, r8	; <UNPREDICTABLE>
    1624:	00005f00 	andeq	r5, r0, r0, lsl #30
    1628:	51000100 	mrspl	r0, (UNDEF: 16)
	...
    1634:	000000e0 	andeq	r0, r0, r0, ror #1
    1638:	0000011b 	andeq	r0, r0, fp, lsl r1
    163c:	1b500001 	blne	1401648 <__bss_end__+0x13f75e8>
    1640:	20000001 	andcs	r0, r0, r1
    1644:	04000001 	streq	r0, [r0], #-1
    1648:	5001f300 	andpl	pc, r1, r0, lsl #6
    164c:	0001209f 	muleq	r1, pc, r0	; <UNPREDICTABLE>
    1650:	00012300 	andeq	r2, r1, r0, lsl #6
    1654:	50000100 	andpl	r0, r0, r0, lsl #2
    1658:	00000123 	andeq	r0, r0, r3, lsr #2
    165c:	0000013c 	andeq	r0, r0, ip, lsr r1
    1660:	01f30004 	mvnseq	r0, r4
    1664:	013c9f50 	teqeq	ip, r0, asr pc
    1668:	013f0000 	teqeq	pc, r0
    166c:	00010000 	andeq	r0, r1, r0
    1670:	00013f50 	andeq	r3, r1, r0, asr pc
    1674:	00016c00 	andeq	r6, r1, r0, lsl #24
    1678:	f3000400 	vshl.u8	d0, d0, d0
    167c:	009f5001 	addseq	r5, pc, r1
    1680:	00000000 	andeq	r0, r0, r0
    1684:	e0000000 	and	r0, r0, r0
    1688:	08000000 	stmdaeq	r0, {}	; <UNPREDICTABLE>
    168c:	01000001 	tsteq	r0, r1
    1690:	01085100 	mrseq	r5, (UNDEF: 24)
    1694:	011b0000 	tsteq	fp, r0
    1698:	00030000 	andeq	r0, r3, r0
    169c:	1b9f0171 	blne	fe7c1c68 <__bss_end__+0xfe7b7c08>
    16a0:	20000001 	andcs	r0, r0, r1
    16a4:	04000001 	streq	r0, [r0], #-1
    16a8:	5101f300 	mrspl	pc, SP_irq	; <UNPREDICTABLE>
    16ac:	0001209f 	muleq	r1, pc, r0	; <UNPREDICTABLE>
    16b0:	00012300 	andeq	r2, r1, r0, lsl #6
    16b4:	51000100 	mrspl	r0, (UNDEF: 16)
    16b8:	00000123 	andeq	r0, r0, r3, lsr #2
    16bc:	0000016c 	andeq	r0, r0, ip, ror #2
    16c0:	01f30004 	mvnseq	r0, r4
    16c4:	00009f51 	andeq	r9, r0, r1, asr pc
    16c8:	00000000 	andeq	r0, r0, r0
    16cc:	00f80000 	rscseq	r0, r8, r0
    16d0:	00fc0000 	rscseq	r0, ip, r0
    16d4:	00010000 	andeq	r0, r1, r0
    16d8:	0000fc52 	andeq	pc, r0, r2, asr ip	; <UNPREDICTABLE>
    16dc:	00010400 	andeq	r0, r1, r0, lsl #8
    16e0:	03000500 	movweq	r0, #1280	; 0x500
    16e4:	00009698 	muleq	r0, r8, r6
    16e8:	00000104 	andeq	r0, r0, r4, lsl #2
    16ec:	0000011b 	andeq	r0, r0, fp, lsl r1
    16f0:	3c530001 	mrrccc	0, 0, r0, r3, cr1
    16f4:	3f000001 	svccc	0x00000001
    16f8:	01000001 	tsteq	r0, r1
    16fc:	00005300 	andeq	r5, r0, r0, lsl #6
    1700:	00000000 	andeq	r0, r0, r0
    1704:	006c0000 	rsbeq	r0, ip, r0
    1708:	00800000 	addeq	r0, r0, r0
    170c:	00010000 	andeq	r0, r1, r0
    1710:	00008050 	andeq	r8, r0, r0, asr r0
    1714:	00009b00 	andeq	r9, r0, r0, lsl #22
    1718:	52000100 	andpl	r0, r0, #0, 2
    171c:	0000009b 	muleq	r0, fp, r0
    1720:	000000a4 	andeq	r0, r0, r4, lsr #1
    1724:	01f30009 	mvnseq	r0, r9
    1728:	09072350 	stmdbeq	r7, {r4, r6, r8, r9, sp}
    172c:	a49f1af8 	ldrge	r1, [pc], #2808	; 1734 <_start-0x68cc>
    1730:	a7000000 	strge	r0, [r0, -r0]
    1734:	01000000 	mrseq	r0, (UNDEF: 0)
    1738:	00a75000 	adceq	r5, r7, r0
    173c:	00d00000 	sbcseq	r0, r0, r0
    1740:	00040000 	andeq	r0, r4, r0
    1744:	9f5001f3 	svcls	0x005001f3
	...
    1750:	00000088 	andeq	r0, r0, r8, lsl #1
    1754:	000000a4 	andeq	r0, r0, r4, lsr #1
    1758:	00540001 	subseq	r0, r4, r1
    175c:	00000000 	andeq	r0, r0, r0
    1760:	1c000000 	stcne	0, cr0, [r0], {-0}
    1764:	43000000 	movwmi	r0, #0
    1768:	01000000 	mrseq	r0, (UNDEF: 0)
    176c:	00435000 	subeq	r5, r3, r0
    1770:	006c0000 	rsbeq	r0, ip, r0
    1774:	00040000 	andeq	r0, r4, r0
    1778:	9f5001f3 	svcls	0x005001f3
	...
    1784:	0000001c 	andeq	r0, r0, ip, lsl r0
    1788:	00000043 	andeq	r0, r0, r3, asr #32
    178c:	43500001 	cmpmi	r0, #1
    1790:	6c000000 	stcvs	0, cr0, [r0], {-0}
    1794:	04000000 	streq	r0, [r0], #-0
    1798:	5001f300 	andpl	pc, r1, r0, lsl #6
    179c:	0000009f 	muleq	r0, pc, r0	; <UNPREDICTABLE>
    17a0:	00000000 	andeq	r0, r0, r0
	...

Disassembly of section .debug_aranges:

00000000 <.debug_aranges>:
   0:	0000001c 	andeq	r0, r0, ip, lsl r0
   4:	00000002 	andeq	r0, r0, r2
   8:	00040000 	andeq	r0, r4, r0
   c:	00000000 	andeq	r0, r0, r0
  10:	00008010 	andeq	r8, r0, r0, lsl r0
  14:	000000d4 	ldrdeq	r0, [r0], -r4
	...
  20:	0000001c 	andeq	r0, r0, ip, lsl r0
  24:	0b850002 	bleq	fe140034 <__bss_end__+0xfe135fd4>
  28:	00040000 	andeq	r0, r4, r0
  2c:	00000000 	andeq	r0, r0, r0
  30:	000080e4 	andeq	r8, r0, r4, ror #1
  34:	000008d8 	ldrdeq	r0, [r0], -r8
	...
  40:	0000001c 	andeq	r0, r0, ip, lsl r0
  44:	25bb0002 	ldrcs	r0, [fp, #2]!
  48:	00040000 	andeq	r0, r4, r0
  4c:	00000000 	andeq	r0, r0, r0
  50:	000089bc 			; <UNDEFINED> instruction: 0x000089bc
  54:	000000ec 	andeq	r0, r0, ip, ror #1
	...
  60:	0000001c 	andeq	r0, r0, ip, lsl r0
  64:	2fbd0002 	svccs	0x00bd0002
  68:	00040000 	andeq	r0, r4, r0
  6c:	00000000 	andeq	r0, r0, r0
  70:	00008aa8 	andeq	r8, r0, r8, lsr #21
  74:	00000018 	andeq	r0, r0, r8, lsl r0
	...
  80:	0000001c 	andeq	r0, r0, ip, lsl r0
  84:	393d0002 	ldmdbcc	sp!, {r1}
  88:	00040000 	andeq	r0, r4, r0
  8c:	00000000 	andeq	r0, r0, r0
  90:	00008ac0 	andeq	r8, r0, r0, asr #21
  94:	00000058 	andeq	r0, r0, r8, asr r0
	...
  a0:	0000001c 	andeq	r0, r0, ip, lsl r0
  a4:	436c0002 	cmnmi	ip, #2
  a8:	00040000 	andeq	r0, r4, r0
  ac:	00000000 	andeq	r0, r0, r0
  b0:	00008b18 	andeq	r8, r0, r8, lsl fp
  b4:	0000003c 	andeq	r0, r0, ip, lsr r0
	...
  c0:	0000001c 	andeq	r0, r0, ip, lsl r0
  c4:	4d490002 	stclmi	0, cr0, [r9, #-8]
  c8:	00040000 	andeq	r0, r4, r0
  cc:	00000000 	andeq	r0, r0, r0
  d0:	00008b54 	andeq	r8, r0, r4, asr fp
  d4:	00000034 	andeq	r0, r0, r4, lsr r0
	...
  e0:	0000001c 	andeq	r0, r0, ip, lsl r0
  e4:	56d00002 	ldrbpl	r0, [r0], r2
  e8:	00040000 	andeq	r0, r4, r0
  ec:	00000000 	andeq	r0, r0, r0
  f0:	00008b88 	andeq	r8, r0, r8, lsl #23
  f4:	00000520 	andeq	r0, r0, r0, lsr #10
	...
 100:	0000001c 	andeq	r0, r0, ip, lsl r0
 104:	66740002 	ldrbtvs	r0, [r4], -r2
 108:	00040000 	andeq	r0, r4, r0
 10c:	00000000 	andeq	r0, r0, r0
 110:	000090a8 	andeq	r9, r0, r8, lsr #1
 114:	00000028 	andeq	r0, r0, r8, lsr #32
	...
 120:	0000001c 	andeq	r0, r0, ip, lsl r0
 124:	70230002 	eorvc	r0, r3, r2
 128:	00040000 	andeq	r0, r4, r0
 12c:	00000000 	andeq	r0, r0, r0
 130:	000090d0 	ldrdeq	r9, [r0], -r0
 134:	0000002c 	andeq	r0, r0, ip, lsr #32
	...
 140:	0000001c 	andeq	r0, r0, ip, lsl r0
 144:	79fa0002 	ldmibvc	sl!, {r1}^
 148:	00040000 	andeq	r0, r4, r0
 14c:	00000000 	andeq	r0, r0, r0
 150:	000090fc 	strdeq	r9, [r0], -ip
 154:	00000078 	andeq	r0, r0, r8, ror r0
	...
 160:	0000001c 	andeq	r0, r0, ip, lsl r0
 164:	84990002 	ldrhi	r0, [r9], #2
 168:	00040000 	andeq	r0, r4, r0
 16c:	00000000 	andeq	r0, r0, r0
 170:	00009174 	andeq	r9, r0, r4, ror r1
 174:	0000008c 	andeq	r0, r0, ip, lsl #1
	...
 180:	0000001c 	andeq	r0, r0, ip, lsl r0
 184:	8f870002 	svchi	0x00870002
 188:	00040000 	andeq	r0, r4, r0
 18c:	00000000 	andeq	r0, r0, r0
 190:	0000924c 	andeq	r9, r0, ip, asr #4
 194:	00000178 	andeq	r0, r0, r8, ror r1
	...
 1a0:	0000001c 	andeq	r0, r0, ip, lsl r0
 1a4:	9c500002 	mrrcls	0, 0, r0, r0, cr2	; <UNPREDICTABLE>
 1a8:	00040000 	andeq	r0, r4, r0
 1ac:	00000000 	andeq	r0, r0, r0
 1b0:	000093c4 	andeq	r9, r0, r4, asr #7
 1b4:	00000120 	andeq	r0, r0, r0, lsr #2
	...
 1c0:	0000001c 	andeq	r0, r0, ip, lsl r0
 1c4:	a7c40002 	strbge	r0, [r4, r2]
 1c8:	00040000 	andeq	r0, r4, r0
 1cc:	00000000 	andeq	r0, r0, r0
 1d0:	000094e4 	andeq	r9, r0, r4, ror #9
 1d4:	00000194 	muleq	r0, r4, r1
	...

Disassembly of section .debug_line:

00000000 <.debug_line>:
       0:	00000143 	andeq	r0, r0, r3, asr #2
       4:	00fa0003 	rscseq	r0, sl, r3
       8:	01020000 	mrseq	r0, (UNDEF: 2)
       c:	000d0efb 	strdeq	r0, [sp], -fp
      10:	01010101 	tsteq	r1, r1, lsl #2
      14:	01000000 	mrseq	r0, (UNDEF: 0)
      18:	2f010000 	svccs	0x00010000
      1c:	2f727375 	svccs	0x00727375
      20:	2d6d7261 	sfmcs	f7, 2, [sp, #-388]!	; 0xfffffe7c
      24:	656e6f6e 	strbvs	r6, [lr, #-3950]!	; 0xfffff092
      28:	6261652d 	rsbvs	r6, r1, #188743680	; 0xb400000
      2c:	6e692f69 	cdpvs	15, 6, cr2, cr9, cr9, {3}
      30:	64756c63 	ldrbtvs	r6, [r5], #-3171	; 0xfffff39d
      34:	79732f65 	ldmdbvc	r3!, {r0, r2, r5, r6, r8, r9, sl, fp, sp}^
      38:	752f0073 	strvc	r0, [pc, #-115]!	; ffffffcd <__bss_end__+0xffff5f6d>
      3c:	6c2f7273 	sfmvs	f7, 4, [pc], #-460	; fffffe78 <__bss_end__+0xffff5e18>
      40:	672f6269 	strvs	r6, [pc, -r9, ror #4]!
      44:	612f6363 			; <UNDEFINED> instruction: 0x612f6363
      48:	6e2d6d72 	mcrvs	13, 1, r6, cr13, cr2, {3}
      4c:	2d656e6f 	stclcs	14, cr6, [r5, #-444]!	; 0xfffffe44
      50:	69626165 	stmdbvs	r2!, {r0, r2, r5, r6, r8, sp, lr}^
      54:	322e392f 	eorcc	r3, lr, #770048	; 0xbc000
      58:	692f302e 	stmdbvs	pc!, {r1, r2, r3, r5, ip, sp}	; <UNPREDICTABLE>
      5c:	756c636e 	strbvc	r6, [ip, #-878]!	; 0xfffffc92
      60:	2f006564 	svccs	0x00006564
      64:	656d6f68 	strbvs	r6, [sp, #-3944]!	; 0xfffff098
      68:	6573752f 	ldrbvs	r7, [r3, #-1327]!	; 0xfffffad1
      6c:	65442f72 	strbvs	r2, [r4, #-3954]	; 0xfffff08e
      70:	53432f76 	movtpl	r2, #16246	; 0x3f76
      74:	58303432 	ldmdapl	r0!, {r1, r4, r5, sl, ip, sp}
      78:	62696c2f 	rsbvs	r6, r9, #12032	; 0x2f00
      7c:	692f6970 	stmdbvs	pc!, {r4, r5, r6, r8, fp, sp, lr}	; <UNPREDICTABLE>
      80:	756c636e 	strbvc	r6, [ip, #-878]!	; 0xfffffc92
      84:	2f006564 	svccs	0x00006564
      88:	2f727375 	svccs	0x00727375
      8c:	2d6d7261 	sfmcs	f7, 2, [sp, #-388]!	; 0xfffffe7c
      90:	656e6f6e 	strbvs	r6, [lr, #-3950]!	; 0xfffff092
      94:	6261652d 	rsbvs	r6, r1, #188743680	; 0xb400000
      98:	6e692f69 	cdpvs	15, 6, cr2, cr9, cr9, {3}
      9c:	64756c63 	ldrbtvs	r6, [r5], #-3171	; 0xfffff39d
      a0:	70000065 	andvc	r0, r0, r5, rrx
      a4:	31747261 	cmncc	r4, r1, ror #4
      a8:	7365742d 	cmnvc	r5, #754974720	; 0x2d000000
      ac:	632e3174 			; <UNDEFINED> instruction: 0x632e3174
      b0:	00000000 	andeq	r0, r0, r0
      b4:	6b636f6c 	blvs	18dbe6c <__bss_end__+0x18d1e0c>
      b8:	0100682e 	tsteq	r0, lr, lsr #16
      bc:	745f0000 	ldrbvc	r0, [pc], #-0	; c4 <_start-0x7f3c>
      c0:	73657079 	cmnvc	r5, #121	; 0x79
      c4:	0100682e 	tsteq	r0, lr, lsr #16
      c8:	74730000 	ldrbtvc	r0, [r3], #-0
      cc:	66656464 	strbtvs	r6, [r5], -r4, ror #8
      d0:	0200682e 	andeq	r6, r0, #3014656	; 0x2e0000
      d4:	65720000 	ldrbvs	r0, [r2, #-0]!
      d8:	2e746e65 	cdpcs	14, 7, cr6, cr4, cr5, {3}
      dc:	00010068 	andeq	r0, r1, r8, rrx
      e0:	69707200 	ldmdbvs	r0!, {r9, ip, sp, lr}^
      e4:	0300682e 	movweq	r6, #2094	; 0x82e
      e8:	6b630000 	blvs	18c00f0 <__bss_end__+0x18b6090>
      ec:	6f6c6c61 	svcvs	0x006c6c61
      f0:	00682e63 	rsbeq	r2, r8, r3, ror #28
      f4:	73000000 	movwvc	r0, #0
      f8:	6e697274 	mcrvs	2, 3, r7, cr9, cr4, {3}
      fc:	00682e67 	rsbeq	r2, r8, r7, ror #28
     100:	00000004 	andeq	r0, r0, r4
     104:	05001405 	streq	r1, [r0, #-1029]	; 0xfffffbfb
     108:	00801002 	addeq	r1, r0, r2
     10c:	010c0300 	mrseq	r0, LR_mon
     110:	4d2f0505 	cfstr32mi	mvfx0, [pc, #-20]!	; 104 <_start-0x7efc>
     114:	0584134b 	streq	r1, [r4, #843]	; 0x34b
     118:	0501060f 	streq	r0, [r1, #-1551]	; 0xfffff9f1
     11c:	01f30605 	mvnseq	r0, r5, lsl #12
     120:	2e062e06 	cdpcs	14, 0, cr2, cr6, cr6, {0}
     124:	9f831366 	svcls	0x00831366
     128:	01060805 	tsteq	r6, r5, lsl #16
     12c:	052e0705 	streq	r0, [lr, #-1797]!	; 0xfffff8fb
     130:	144b0609 	strbne	r0, [fp], #-1545	; 0xfffff9f7
     134:	054a4a01 	strbeq	r4, [sl, #-2561]	; 0xfffff5ff
     138:	05130601 	ldreq	r0, [r3, #-1537]	; 0xfffff9ff
     13c:	012b0609 			; <UNDEFINED> instruction: 0x012b0609
     140:	10029e2e 	andne	r9, r2, lr, lsr #28
     144:	88010100 	stmdahi	r1, {r8}
     148:	03000007 	movweq	r0, #7
     14c:	00013700 	andeq	r3, r1, r0, lsl #14
     150:	fb010200 	blx	4095a <__bss_end__+0x368fa>
     154:	01000d0e 	tsteq	r0, lr, lsl #26
     158:	00010101 	andeq	r0, r1, r1, lsl #2
     15c:	00010000 	andeq	r0, r1, r0
     160:	752f0100 	strvc	r0, [pc, #-256]!	; 68 <_start-0x7f98>
     164:	6c2f7273 	sfmvs	f7, 4, [pc], #-460	; ffffffa0 <__bss_end__+0xffff5f40>
     168:	672f6269 	strvs	r6, [pc, -r9, ror #4]!
     16c:	612f6363 			; <UNDEFINED> instruction: 0x612f6363
     170:	6e2d6d72 	mcrvs	13, 1, r6, cr13, cr2, {3}
     174:	2d656e6f 	stclcs	14, cr6, [r5, #-444]!	; 0xfffffe44
     178:	69626165 	stmdbvs	r2!, {r0, r2, r5, r6, r8, sp, lr}^
     17c:	322e392f 	eorcc	r3, lr, #770048	; 0xbc000
     180:	692f302e 	stmdbvs	pc!, {r1, r2, r3, r5, ip, sp}	; <UNPREDICTABLE>
     184:	756c636e 	strbvc	r6, [ip, #-878]!	; 0xfffffc92
     188:	2f006564 	svccs	0x00006564
     18c:	2f727375 	svccs	0x00727375
     190:	2d6d7261 	sfmcs	f7, 2, [sp, #-388]!	; 0xfffffe7c
     194:	656e6f6e 	strbvs	r6, [lr, #-3950]!	; 0xfffff092
     198:	6261652d 	rsbvs	r6, r1, #188743680	; 0xb400000
     19c:	6e692f69 	cdpvs	15, 6, cr2, cr9, cr9, {3}
     1a0:	64756c63 	ldrbtvs	r6, [r5], #-3171	; 0xfffff39d
     1a4:	79732f65 	ldmdbvc	r3!, {r0, r2, r5, r6, r8, r9, sl, fp, sp}^
     1a8:	682f0073 	stmdavs	pc!, {r0, r1, r4, r5, r6}	; <UNPREDICTABLE>
     1ac:	2f656d6f 	svccs	0x00656d6f
     1b0:	72657375 	rsbvc	r7, r5, #-738197503	; 0xd4000001
     1b4:	7665442f 	strbtvc	r4, [r5], -pc, lsr #8
     1b8:	3253432f 	subscc	r4, r3, #-1140850688	; 0xbc000000
     1bc:	2f583034 	svccs	0x00583034
     1c0:	7062696c 	rsbvc	r6, r2, ip, ror #18
     1c4:	6e692f69 	cdpvs	15, 6, cr2, cr9, cr9, {3}
     1c8:	64756c63 	ldrbtvs	r6, [r5], #-3171	; 0xfffff39d
     1cc:	752f0065 	strvc	r0, [pc, #-101]!	; 16f <_start-0x7e91>
     1d0:	612f7273 			; <UNDEFINED> instruction: 0x612f7273
     1d4:	6e2d6d72 	mcrvs	13, 1, r6, cr13, cr2, {3}
     1d8:	2d656e6f 	stclcs	14, cr6, [r5, #-444]!	; 0xfffffe44
     1dc:	69626165 	stmdbvs	r2!, {r0, r2, r5, r6, r8, sp, lr}^
     1e0:	636e692f 	cmnvs	lr, #770048	; 0xbc000
     1e4:	6564756c 	strbvs	r7, [r4, #-1388]!	; 0xfffffa94
     1e8:	6f682f00 	svcvs	0x00682f00
     1ec:	752f656d 	strvc	r6, [pc, #-1389]!	; fffffc87 <__bss_end__+0xffff5c27>
     1f0:	2f726573 	svccs	0x00726573
     1f4:	2f766544 	svccs	0x00766544
     1f8:	34325343 	ldrtcc	r5, [r2], #-835	; 0xfffffcbd
     1fc:	6c2f5830 	stcvs	8, cr5, [pc], #-192	; 144 <_start-0x7ebc>
     200:	69706269 	ldmdbvs	r0!, {r0, r3, r5, r6, r9, sp, lr}^
     204:	62696c2f 	rsbvs	r6, r9, #12032	; 0x2f00
     208:	63000063 	movwvs	r0, #99	; 0x63
     20c:	6c6c616b 	stfvse	f6, [ip], #-428	; 0xfffffe54
     210:	632e636f 			; <UNDEFINED> instruction: 0x632e636f
     214:	00000000 	andeq	r0, r0, r0
     218:	6c616b63 			; <UNDEFINED> instruction: 0x6c616b63
     21c:	2e636f6c 	cdpcs	15, 6, cr6, cr3, cr12, {3}
     220:	00000068 	andeq	r0, r0, r8, rrx
     224:	64747300 	ldrbtvs	r7, [r4], #-768	; 0xfffffd00
     228:	2d746e69 	ldclcs	14, cr6, [r4, #-420]!	; 0xfffffe5c
     22c:	2e636367 	cdpcs	3, 6, cr6, cr3, cr7, {3}
     230:	00010068 	andeq	r0, r1, r8, rrx
     234:	636f6c00 	cmnvs	pc, #0, 24
     238:	00682e6b 	rsbeq	r2, r8, fp, ror #28
     23c:	5f000002 	svcpl	0x00000002
     240:	65707974 	ldrbvs	r7, [r0, #-2420]!	; 0xfffff68c
     244:	00682e73 	rsbeq	r2, r8, r3, ror lr
     248:	73000002 	movwvc	r0, #2
     24c:	65646474 	strbvs	r6, [r4, #-1140]!	; 0xfffffb8c
     250:	00682e66 	rsbeq	r2, r8, r6, ror #28
     254:	72000001 	andvc	r0, r0, #1
     258:	746e6565 	strbtvc	r6, [lr], #-1381	; 0xfffffa9b
     25c:	0200682e 	andeq	r6, r0, #3014656	; 0x2e0000
     260:	70720000 	rsbsvc	r0, r2, r0
     264:	00682e69 	rsbeq	r2, r8, r9, ror #28
     268:	73000003 	movwvc	r0, #3
     26c:	6e697274 	mcrvs	2, 3, r7, cr9, cr4, {3}
     270:	00682e67 	rsbeq	r2, r8, r7, ror #28
     274:	6c000004 	stcvs	0, cr0, [r0], {4}
     278:	2d636269 	sfmcs	f6, 2, [r3, #-420]!	; 0xfffffe5c
     27c:	72747865 	rsbsvc	r7, r4, #6619136	; 0x650000
     280:	00682e61 	rsbeq	r2, r8, r1, ror #28
     284:	00000005 	andeq	r0, r0, r5
     288:	05002205 	streq	r2, [r0, #-517]	; 0xfffffdfb
     28c:	0080e402 	addeq	lr, r0, r2, lsl #8
     290:	01120300 	tsteq	r2, r0, lsl #6
     294:	05012405 	streq	r2, [r1, #-1029]	; 0xfffffbfb
     298:	2e010601 	cfmadd32cs	mvax0, mvfx0, mvfx1, mvfx1
     29c:	30062405 	andcc	r2, r6, r5, lsl #8
     2a0:	26050106 	strcs	r0, [r5], -r6, lsl #2
     2a4:	2d052e06 	stccs	14, cr2, [r5, #-24]	; 0xffffffe8
     2a8:	01050106 	tsteq	r5, r6, lsl #2
     2ac:	0622052e 	strteq	r0, [r2], -lr, lsr #10
     2b0:	0501064c 	streq	r0, [r1, #-1612]	; 0xfffff9b4
     2b4:	054a0624 	strbeq	r0, [sl, #-1572]	; 0xfffff9dc
     2b8:	0501062b 	streq	r0, [r1, #-1579]	; 0xfffff9d5
     2bc:	01052e3d 	tsteq	r5, sp, lsr lr
     2c0:	0628052e 	strteq	r0, [r8], -lr, lsr #10
     2c4:	012a054c 			; <UNDEFINED> instruction: 0x012a054c
     2c8:	01063c05 	tsteq	r6, r5, lsl #24
     2cc:	052e0105 	streq	r0, [lr, #-261]!	; 0xfffffefb
     2d0:	054d0629 	strbeq	r0, [sp, #-1577]	; 0xfffff9d7
     2d4:	01051305 	tsteq	r5, r5, lsl #6
     2d8:	052e1306 	streq	r1, [lr, #-774]!	; 0xfffffcfa
     2dc:	23030642 	movwcs	r0, #13890	; 0x3642
     2e0:	0501062e 	streq	r0, [r1, #-1582]	; 0xfffff9d2
     2e4:	13670605 	cmnne	r7, #5242880	; 0x500000
     2e8:	01060b05 	tsteq	r6, r5, lsl #22
     2ec:	02001005 	andeq	r1, r0, #5
     2f0:	2e060104 	adfcss	f0, f6, f4
     2f4:	02000505 	andeq	r0, r0, #20971520	; 0x1400000
     2f8:	01060104 	tsteq	r6, r4, lsl #2
     2fc:	4b060905 	blmi	182718 <__bss_end__+0x1786b8>
     300:	01060d05 	tsteq	r6, r5, lsl #26
     304:	052e0b05 	streq	r0, [lr, #-2821]!	; 0xfffff4fb
     308:	0402001c 	streq	r0, [r2], #-28	; 0xffffffe4
     30c:	052d0602 	streq	r0, [sp, #-1538]!	; 0xfffff9fe
     310:	0402001d 	streq	r0, [r2], #-29	; 0xffffffe3
     314:	00010602 	andeq	r0, r1, r2, lsl #12
     318:	2e020402 	cdpcs	4, 0, cr0, cr2, cr2, {0}
     31c:	30060d05 	andcc	r0, r6, r5, lsl #26
     320:	01062405 	tsteq	r6, r5, lsl #8
     324:	2e1a052e 	cfmul64cs	mvdx0, mvdx10, mvdx14
     328:	052e1105 	streq	r1, [lr, #-261]!	; 0xfffffefb
     32c:	012f060d 			; <UNDEFINED> instruction: 0x012f060d
     330:	014a6601 	cmpeq	sl, r1, lsl #12
     334:	05020482 	streq	r0, [r2, #-1154]	; 0xfffffb7e
     338:	010f0314 	tsteq	pc, r4, lsl r3	; <UNPREDICTABLE>
     33c:	01130505 	tsteq	r3, r5, lsl #10
     340:	1313664a 	tstne	r3, #77594624	; 0x4a00000
     344:	01060905 	tsteq	r6, r5, lsl #18
     348:	052e0705 	streq	r0, [lr, #-1797]!	; 0xfffff8fb
     34c:	014b0609 	cmpeq	fp, r9, lsl #12
     350:	05059e4a 	streq	r9, [r5, #-3658]	; 0xfffff1b6
     354:	09051314 	stmdbeq	r5, {r2, r4, r8, r9, ip}
     358:	07050106 	streq	r0, [r5, -r6, lsl #2]
     35c:	0609052e 	streq	r0, [r9], -lr, lsr #10
     360:	0401064b 	streq	r0, [r1], #-1611	; 0xfffff9b5
     364:	060d0501 	streq	r0, [sp], -r1, lsl #10
     368:	13016903 	movwne	r6, #6403	; 0x1903
     36c:	134a4a01 	movtne	r4, #43521	; 0xaa01
     370:	01061405 	tsteq	r6, r5, lsl #8
     374:	1e050204 	cdpne	2, 0, cr0, cr5, cr4, {0}
     378:	054a1403 	strbeq	r1, [sl, #-1027]	; 0xfffffbfd
     37c:	09052e1a 	stmdbeq	r5, {r1, r3, r4, r9, sl, fp, sp}
     380:	4a014b06 	bmi	52fa0 <__bss_end__+0x48f40>
     384:	0104ba06 	tsteq	r4, r6, lsl #20
     388:	6f030c05 	svcvs	0x00030c05
     38c:	2f010501 	svccs	0x00010501
     390:	f4063005 	vst4.8	{d3-d6}, [r6], r5
     394:	05050106 	streq	r0, [r5, #-262]	; 0xfffffefa
     398:	2e064b06 	vmlacs.f64	d4, d6, d6
     39c:	052f0105 	streq	r0, [pc, #-261]!	; 29f <_start-0x7d61>
     3a0:	50030625 	andpl	r0, r3, r5, lsr #12
     3a4:	0501062e 	streq	r0, [r1, #-1582]	; 0xfffff9d2
     3a8:	054b0605 	strbeq	r0, [fp, #-1541]	; 0xfffff9fb
     3ac:	0501060e 	streq	r0, [r1, #-1550]	; 0xfffff9f2
     3b0:	052f0605 	streq	r0, [pc, #-1541]!	; fffffdb3 <__bss_end__+0xffff5d53>
     3b4:	0501060e 	streq	r0, [r1, #-1550]	; 0xfffff9f2
     3b8:	054b0605 	strbeq	r0, [fp, #-1541]	; 0xfffff9fb
     3bc:	05010616 	streq	r0, [r1, #-1558]	; 0xfffff9ea
     3c0:	054b0605 	strbeq	r0, [fp, #-1541]	; 0xfffff9fb
     3c4:	0501060e 	streq	r0, [r1, #-1550]	; 0xfffff9f2
     3c8:	052f0605 	streq	r0, [pc, #-1541]!	; fffffdcb <__bss_end__+0xffff5d6b>
     3cc:	05130601 	ldreq	r0, [r3, #-1537]	; 0xfffff9ff
     3d0:	06310620 	ldrteq	r0, [r1], -r0, lsr #12
     3d4:	06050501 	streq	r0, [r5], -r1, lsl #10
     3d8:	060c054b 	streq	r0, [ip], -fp, asr #10
     3dc:	2e1f0501 	cfmul32cs	mvfx0, mvfx15, mvfx1
     3e0:	052e0905 	streq	r0, [lr, #-2309]!	; 0xfffff6fb
     3e4:	04020039 	streq	r0, [r2], #-57	; 0xffffffc7
     3e8:	44054a01 	strmi	r4, [r5], #-2561	; 0xfffff5ff
     3ec:	01040200 	mrseq	r0, R12_usr
     3f0:	0035052e 	eorseq	r0, r5, lr, lsr #10
     3f4:	2e010402 	cdpcs	4, 0, cr0, cr1, cr2, {0}
     3f8:	4c060905 			; <UNDEFINED> instruction: 0x4c060905
     3fc:	4a660101 	bmi	1980808 <__bss_end__+0x19767a8>
     400:	02048201 	andeq	r8, r4, #268435456	; 0x10000000
     404:	28031405 	stmdacs	r3, {r0, r2, sl, ip}
     408:	13050501 	movwne	r0, #21761	; 0x5501
     40c:	13664a01 	cmnne	r6, #4096	; 0x1000
     410:	06090513 			; <UNDEFINED> instruction: 0x06090513
     414:	2e070501 	cfsh32cs	mvfx0, mvfx7, #1
     418:	4b060905 	blmi	182834 <__bss_end__+0x1787d4>
     41c:	059e4a01 	ldreq	r4, [lr, #2561]	; 0xa01
     420:	05131405 	ldreq	r1, [r3, #-1029]	; 0xfffffbfb
     424:	05010609 	streq	r0, [r1, #-1545]	; 0xfffff9f7
     428:	09052e07 	stmdbeq	r5, {r0, r1, r2, r9, sl, fp, sp}
     42c:	01044b06 	tsteq	r4, r6, lsl #22
     430:	03061005 	movweq	r1, #24581	; 0x6005
     434:	02040151 	andeq	r0, r4, #1073741844	; 0x40000014
     438:	30030105 	andcc	r0, r3, r5, lsl #2
     43c:	2c1e052e 	cfldr32cs	mvfx0, [lr], {46}	; 0x2e
     440:	052e1a05 	streq	r1, [lr, #-2565]!	; 0xfffff5fb
     444:	014b0609 	cmpeq	fp, r9, lsl #12
     448:	04ba064a 	ldrteq	r0, [sl], #1610	; 0x64a
     44c:	030c0501 	movweq	r0, #50433	; 0xc501
     450:	01050154 	tsteq	r5, r4, asr r1
     454:	063a052f 	ldrteq	r0, [sl], -pc, lsr #10
     458:	050106d8 	streq	r0, [r1, #-1752]	; 0xfffff928
     45c:	13670605 	cmnne	r7, #5242880	; 0x500000
     460:	01060b05 	tsteq	r6, r5, lsl #22
     464:	02001005 	andeq	r1, r0, #5
     468:	2e060104 	adfcss	f0, f6, f4
     46c:	02000505 	andeq	r0, r0, #20971520	; 0x1400000
     470:	01060104 	tsteq	r6, r4, lsl #2
     474:	4b060905 	blmi	182890 <__bss_end__+0x178830>
     478:	01060d05 	tsteq	r6, r5, lsl #26
     47c:	052e0b05 	streq	r0, [lr, #-2821]!	; 0xfffff4fb
     480:	0402001c 	streq	r0, [r2], #-28	; 0xffffffe4
     484:	052d0602 	streq	r0, [sp, #-1538]!	; 0xfffff9fe
     488:	0402001d 	streq	r0, [r2], #-29	; 0xffffffe3
     48c:	00010602 	andeq	r0, r1, r2, lsl #12
     490:	2e020402 	cdpcs	4, 0, cr0, cr2, cr2, {0}
     494:	30060d05 	andcc	r0, r6, r5, lsl #26
     498:	01062405 	tsteq	r6, r5, lsl #8
     49c:	2e1a052e 	cfmul64cs	mvdx0, mvdx10, mvdx14
     4a0:	052e1105 	streq	r1, [lr, #-261]!	; 0xfffffefb
     4a4:	012f060d 			; <UNDEFINED> instruction: 0x012f060d
     4a8:	014a6601 	cmpeq	sl, r1, lsl #12
     4ac:	0502049e 	streq	r0, [r2, #-1182]	; 0xfffffb62
     4b0:	011c0314 	tsteq	ip, r4, lsl r3
     4b4:	01130505 	tsteq	r3, r5, lsl #10
     4b8:	1313664a 	tstne	r3, #77594624	; 0x4a00000
     4bc:	01060905 	tsteq	r6, r5, lsl #18
     4c0:	052e0705 	streq	r0, [lr, #-1797]!	; 0xfffff8fb
     4c4:	014b0609 	cmpeq	fp, r9, lsl #12
     4c8:	05059e4a 	streq	r9, [r5, #-3658]	; 0xfffff1b6
     4cc:	09051314 	stmdbeq	r5, {r2, r4, r8, r9, ip}
     4d0:	07050106 	streq	r0, [r5, -r6, lsl #2]
     4d4:	0609052e 	streq	r0, [r9], -lr, lsr #10
     4d8:	0501044b 	streq	r0, [r1, #-1099]	; 0xfffffbb5
     4dc:	5d030614 	stcpl	6, cr0, [r3, #-80]	; 0xffffffb0
     4e0:	05020401 	streq	r0, [r2, #-1025]	; 0xfffffbff
     4e4:	2e240301 	cdpcs	3, 2, cr0, cr4, cr1, {0}
     4e8:	052c1e05 	streq	r1, [ip, #-3589]!	; 0xfffff1fb
     4ec:	09052e1a 	stmdbeq	r5, {r1, r3, r4, r9, sl, fp, sp}
     4f0:	4a014b06 	bmi	53110 <__bss_end__+0x490b0>
     4f4:	0104ba06 	tsteq	r4, r6, lsl #20
     4f8:	61030c05 	tstvs	r3, r5, lsl #24
     4fc:	2f010501 	svccs	0x00010501
     500:	03062205 	movweq	r2, #25093	; 0x6205
     504:	0106d61a 	tsteq	r6, sl, lsl r6
     508:	4c060505 	cfstr32mi	mvfx0, [r6], {5}
     50c:	01060c05 	tsteq	r6, r5, lsl #24
     510:	05300905 	ldreq	r0, [r0, #-2309]!	; 0xfffff6fb
     514:	0c054916 			; <UNDEFINED> instruction: 0x0c054916
     518:	6609054a 	strvs	r0, [r9], -sl, asr #10
     51c:	02001605 	andeq	r1, r0, #5242880	; 0x500000
     520:	054b0304 	strbeq	r0, [fp, #-772]	; 0xfffffcfc
     524:	0402000c 	streq	r0, [r2], #-12
     528:	09056603 	stmdbeq	r5, {r0, r1, r9, sl, sp, lr}
     52c:	03040200 	movweq	r0, #16896	; 0x4200
     530:	01054aba 			; <UNDEFINED> instruction: 0x01054aba
     534:	0627052f 	strteq	r0, [r7], -pc, lsr #10
     538:	2e7fab03 	vaddcs.f64	d26, d15, d3
     53c:	05050106 	streq	r0, [r5, #-262]	; 0xfffffefa
     540:	00012f06 	andeq	r2, r1, r6, lsl #30
     544:	ba020402 	blt	81554 <__bss_end__+0x774f4>
     548:	02040200 	andeq	r0, r4, #0, 4
     54c:	04020001 	streq	r0, [r2], #-1
     550:	02001302 	andeq	r1, r0, #134217728	; 0x8000000
     554:	4a060204 	bmi	180d6c <__bss_end__+0x176d0c>
     558:	02040200 	andeq	r0, r4, #0, 4
     55c:	0402002e 	streq	r0, [r2], #-46	; 0xffffffd2
     560:	052f0602 	streq	r0, [pc, #-1538]!	; ffffff66 <__bss_end__+0xffff5f06>
     564:	04020017 	streq	r0, [r2], #-23	; 0xffffffe9
     568:	05010602 	streq	r0, [r1, #-1538]	; 0xfffff9fe
     56c:	0402000a 	streq	r0, [r2], #-10
     570:	05054a02 	streq	r4, [r5, #-2562]	; 0xfffff5fe
     574:	02040200 	andeq	r0, r4, #0, 4
     578:	15052f06 	strne	r2, [r5, #-3846]	; 0xfffff0fa
     57c:	02040200 	andeq	r0, r4, #0, 4
     580:	0e050106 	adfeqs	f0, f5, f6
     584:	02040200 	andeq	r0, r4, #0, 4
     588:	0001052e 	andeq	r0, r1, lr, lsr #10
     58c:	2f020402 	svccs	0x00020402
     590:	02000505 	andeq	r0, r0, #20971520	; 0x1400000
     594:	2a060104 	bcs	1809ac <__bss_end__+0x17694c>
     598:	01040200 	mrseq	r0, R12_usr
     59c:	04020001 	streq	r0, [r2], #-1
     5a0:	02002e01 	andeq	r2, r0, #1, 28
     5a4:	059e0104 	ldreq	r0, [lr, #260]	; 0x104
     5a8:	00e70350 	rsceq	r0, r7, r0, asr r3
     5ac:	050106ba 	streq	r0, [r1, #-1722]	; 0xfffff946
     5b0:	059f0605 	ldreq	r0, [pc, #1541]	; bbd <_start-0x7443>
     5b4:	05010610 	streq	r0, [r1, #-1552]	; 0xfffff9f0
     5b8:	01300605 	teqeq	r0, r5, lsl #12
     5bc:	02040200 	andeq	r0, r4, #0, 4
     5c0:	0402009e 	streq	r0, [r2], #-158	; 0xffffff62
     5c4:	02001302 	andeq	r1, r0, #134217728	; 0x8000000
     5c8:	00010204 	andeq	r0, r1, r4, lsl #4
     5cc:	06020402 	streq	r0, [r2], -r2, lsl #8
     5d0:	0402002e 	streq	r0, [r2], #-46	; 0xffffffd2
     5d4:	002e0602 	eoreq	r0, lr, r2, lsl #12
     5d8:	66020402 	strvs	r0, [r2], -r2, lsl #8
     5dc:	02040200 	andeq	r0, r4, #0, 4
     5e0:	000a0513 	andeq	r0, sl, r3, lsl r5
     5e4:	06020402 	streq	r0, [r2], -r2, lsl #8
     5e8:	00080501 	andeq	r0, r8, r1, lsl #10
     5ec:	4a020402 	bmi	815fc <__bss_end__+0x7759c>
     5f0:	4c060505 	cfstr32mi	mvfx0, [r6], {5}
     5f4:	01061105 	tsteq	r6, r5, lsl #2
     5f8:	6b060505 	blvs	181a14 <__bss_end__+0x1779b4>
     5fc:	01060e05 	tsteq	r6, r5, lsl #28
     600:	4b060505 	blmi	181a1c <__bss_end__+0x1779bc>
     604:	06100583 	ldreq	r0, [r0], -r3, lsl #11
     608:	4a0e0501 	bmi	381a14 <__bss_end__+0x3779b4>
     60c:	052f0105 	streq	r0, [pc, #-261]!	; 50f <_start-0x7af1>
     610:	04020005 	streq	r0, [r2], #-5
     614:	74030601 	strvc	r0, [r3], #-1537	; 0xfffff9ff
     618:	0402002e 	streq	r0, [r2], #-46	; 0xffffffd2
     61c:	02002e01 	andeq	r2, r0, #1, 28
     620:	059e0104 	ldreq	r0, [lr, #260]	; 0x104
     624:	d60f0357 			; <UNDEFINED> instruction: 0xd60f0357
     628:	05050106 	streq	r0, [r5, #-262]	; 0xfffffefa
     62c:	14136706 	ldrne	r6, [r3], #-1798	; 0xfffff8fa
     630:	002e0601 	eoreq	r0, lr, r1, lsl #12
     634:	06020402 	streq	r0, [r2], -r2, lsl #8
     638:	040200ba 	streq	r0, [r2], #-186	; 0xffffff46
     63c:	02001302 	andeq	r1, r0, #134217728	; 0x8000000
     640:	00010204 	andeq	r0, r1, r4, lsl #4
     644:	06020402 	streq	r0, [r2], -r2, lsl #8
     648:	0402002e 	streq	r0, [r2], #-46	; 0xffffffd2
     64c:	002e0602 	eoreq	r0, lr, r2, lsl #12
     650:	66020402 	strvs	r0, [r2], -r2, lsl #8
     654:	02040200 	andeq	r0, r4, #0, 4
     658:	00140514 	andseq	r0, r4, r4, lsl r5
     65c:	06020402 	streq	r0, [r2], -r2, lsl #8
     660:	000e0501 	andeq	r0, lr, r1, lsl #10
     664:	2e020402 	cdpcs	4, 0, cr0, cr2, cr2, {0}
     668:	02000505 	andeq	r0, r0, #20971520	; 0x1400000
     66c:	2f060204 	svccs	0x00060204
     670:	02000e05 	andeq	r0, r0, #5, 28	; 0x50
     674:	01060204 	tsteq	r6, r4, lsl #4
     678:	02000505 	andeq	r0, r0, #20971520	; 0x1400000
     67c:	31060204 	tstcc	r6, r4, lsl #4
     680:	02000705 	andeq	r0, r0, #1310720	; 0x140000
     684:	01060204 	tsteq	r6, r4, lsl #4
     688:	4b060905 	blmi	182aa4 <__bss_end__+0x178a44>
     68c:	14050501 	strne	r0, [r5], #-1281	; 0xfffffaff
     690:	01060e05 	tsteq	r6, r5, lsl #28
     694:	05661305 	strbeq	r1, [r6, #-773]!	; 0xfffffcfb
     698:	09052e07 	stmdbeq	r5, {r0, r1, r2, r9, sl, fp, sp}
     69c:	05014b06 	streq	r4, [r1, #-2822]	; 0xfffff4fa
     6a0:	05131505 	ldreq	r1, [r3, #-1285]	; 0xfffffafb
     6a4:	05010615 	streq	r0, [r1, #-1557]	; 0xfffff9eb
     6a8:	052f0605 	streq	r0, [pc, #-1541]!	; ab <_start-0x7f55>
     6ac:	05010619 	streq	r0, [r1, #-1561]	; 0xfffff9e7
     6b0:	05052e13 	streq	r2, [r5, #-3603]	; 0xfffff1ed
     6b4:	0e052f06 	cdpeq	15, 0, cr2, cr5, cr6, {0}
     6b8:	05050106 	streq	r0, [r5, #-262]	; 0xfffffefa
     6bc:	12054b06 	andne	r4, r5, #6144	; 0x1800
     6c0:	05050106 	streq	r0, [r5, #-262]	; 0xfffffefa
     6c4:	13056706 	movwne	r6, #22278	; 0x5706
     6c8:	05050106 	streq	r0, [r5, #-262]	; 0xfffffefa
     6cc:	14054b06 	strne	r4, [r5], #-2822	; 0xfffff4fa
     6d0:	05050106 	streq	r0, [r5, #-262]	; 0xfffffefa
     6d4:	06834b06 	streq	r4, [r3], r6, lsl #22
     6d8:	059f0666 	ldreq	r0, [pc, #1638]	; d46 <_start-0x72ba>
     6dc:	05010610 	streq	r0, [r1, #-1552]	; 0xfffff9f0
     6e0:	05054a0e 	streq	r4, [r5, #-2574]	; 0xfffff5f2
     6e4:	0a053006 	beq	14c704 <__bss_end__+0x1426a4>
     6e8:	05050106 	streq	r0, [r5, #-262]	; 0xfffffefa
     6ec:	00018306 	andeq	r8, r1, r6, lsl #6
     6f0:	82020402 	andhi	r0, r2, #33554432	; 0x2000000
     6f4:	02040200 	andeq	r0, r4, #0, 4
     6f8:	04020001 	streq	r0, [r2], #-1
     6fc:	0b051302 	bleq	14530c <__bss_end__+0x13b2ac>
     700:	02040200 	andeq	r0, r4, #0, 4
     704:	05050106 	streq	r0, [r5, #-262]	; 0xfffffefa
     708:	02040200 	andeq	r0, r4, #0, 4
     70c:	02006706 	andeq	r6, r0, #1572864	; 0x180000
     710:	00010204 	andeq	r0, r1, r4, lsl #4
     714:	06020402 	streq	r0, [r2], -r2, lsl #8
     718:	0402002e 	streq	r0, [r2], #-46	; 0xffffffd2
     71c:	002e0602 	eoreq	r0, lr, r2, lsl #12
     720:	9e020402 	cdpls	4, 0, cr0, cr2, cr2, {0}
     724:	02040200 	andeq	r0, r4, #0, 4
     728:	00010513 	andeq	r0, r1, r3, lsl r5
     72c:	06020402 	streq	r0, [r2], -r2, lsl #8
     730:	00050513 	andeq	r0, r5, r3, lsl r5
     734:	06010402 	streq	r0, [r1], -r2, lsl #8
     738:	00666203 	rsbeq	r6, r6, r3, lsl #4
     73c:	2e010402 	cdpcs	4, 0, cr0, cr1, cr2, {0}
     740:	01040200 	mrseq	r0, R12_usr
     744:	3609059e 			; <UNDEFINED> instruction: 0x3609059e
     748:	062e0601 	strteq	r0, [lr], -r1, lsl #12
     74c:	2e01662e 	cfmadd32cs	mvax1, mvfx6, mvfx1, mvfx14
     750:	060131ba 			; <UNDEFINED> instruction: 0x060131ba
     754:	d62e062e 	strtle	r0, [lr], -lr, lsr #12
     758:	3c082e01 	stccc	14, cr2, [r8], {1}
     75c:	02000505 	andeq	r0, r0, #20971520	; 0x1400000
     760:	0f030104 	svceq	0x00030104
     764:	0402002e 	streq	r0, [r2], #-46	; 0xffffffd2
     768:	02000101 	andeq	r0, r0, #1073741824	; 0x40000000
     76c:	002e0104 	eoreq	r0, lr, r4, lsl #2
     770:	9e010402 	cdpls	4, 0, cr0, cr1, cr2, {0}
     774:	b2081b05 	andlt	r1, r8, #5120	; 0x1400
     778:	052f0505 	streq	r0, [pc, #-1285]!	; 27b <_start-0x7d85>
     77c:	0501060c 	streq	r0, [r1, #-1548]	; 0xfffff9f4
     780:	054b0605 	strbeq	r0, [fp, #-1541]	; 0xfffff9fb
     784:	0501060c 	streq	r0, [r1, #-1548]	; 0xfffff9f4
     788:	01054a21 	tsteq	r5, r1, lsr #20
     78c:	4921054b 	stmdbmi	r1!, {r0, r1, r3, r6, r8, sl}
     790:	061e052e 	ldreq	r0, [lr], -lr, lsr #10
     794:	0501064d 	streq	r0, [r1, #-1613]	; 0xfffff9b3
     798:	052f0605 	streq	r0, [pc, #-1541]!	; 19b <_start-0x7e65>
     79c:	0501062c 	streq	r0, [r1, #-1580]	; 0xfffff9d4
     7a0:	3b052e3e 	blcc	14c0a0 <__bss_end__+0x142040>
     7a4:	2e4b052e 	cdpcs	5, 4, cr0, cr11, cr14, {1}
     7a8:	052e0c05 	streq	r0, [lr, #-3077]!	; 0xfffff3fb
     7ac:	052f0605 	streq	r0, [pc, #-1541]!	; 1af <_start-0x7e51>
     7b0:	05010612 	streq	r0, [r1, #-1554]	; 0xfffff9ee
     7b4:	24054a39 	strcs	r4, [r5], #-2617	; 0xfffff5c7
     7b8:	01040200 	mrseq	r0, R12_usr
     7bc:	0402004a 	streq	r0, [r2], #-74	; 0xffffffb6
     7c0:	21052e01 	tstcs	r5, r1, lsl #28
     7c4:	01040200 	mrseq	r0, R12_usr
     7c8:	2e39052e 	cdpcs	5, 3, cr0, cr9, cr14, {1}
     7cc:	01052e2e 	tsteq	r5, lr, lsr #28
     7d0:	061a052f 	ldreq	r0, [sl], -pc, lsr #10
     7d4:	2f05056b 	svccs	0x0005056b
     7d8:	01061d05 	tsteq	r6, r5, lsl #26
     7dc:	83060505 	movwhi	r0, #25861	; 0x6505
     7e0:	01061e05 	tsteq	r6, r5, lsl #28
     7e4:	4c060505 	cfstr32mi	mvfx0, [r6], {5}
     7e8:	14824a01 	strne	r4, [r2], #2561	; 0xa01
     7ec:	0a051513 	beq	145c40 <__bss_end__+0x13bbe0>
     7f0:	06190501 	ldreq	r0, [r9], -r1, lsl #10
     7f4:	0e054a01 	vmlaeq.f32	s8, s10, s2
     7f8:	05052d0f 	streq	r2, [r5, #-3343]	; 0xfffff2f1
     7fc:	060d0532 			; <UNDEFINED> instruction: 0x060d0532
     800:	06140532 			; <UNDEFINED> instruction: 0x06140532
     804:	060d0501 	streq	r0, [sp], -r1, lsl #10
     808:	0612052f 	ldreq	r0, [r2], -pc, lsr #10
     80c:	060d0501 	streq	r0, [sp], -r1, lsl #10
     810:	0501062f 	streq	r0, [r1, #-1583]	; 0xfffff9d1
     814:	0f030605 	svceq	0x00030605
     818:	06070501 	streq	r0, [r7], -r1, lsl #10
     81c:	06090501 	streq	r0, [r9], -r1, lsl #10
     820:	824a014b 	subhi	r0, sl, #-1073741806	; 0xc0000012
     824:	01040200 	mrseq	r0, R12_usr
     828:	00050514 	andeq	r0, r5, r4, lsl r5
     82c:	13010402 	movwne	r0, #5122	; 0x1402
     830:	02000105 	andeq	r0, r0, #1073741825	; 0x40000001
     834:	13060104 	movwne	r0, #24836	; 0x6104
     838:	03060d05 	movweq	r0, #27909	; 0x6d05
     83c:	14054a70 	strne	r4, [r5], #-2672	; 0xfffff590
     840:	09050106 	stmdbeq	r5, {r1, r2, r8}
     844:	02040200 	andeq	r0, r4, #0, 4
     848:	0e053506 	cfsh32eq	mvfx3, mvfx5, #6
     84c:	02040200 	andeq	r0, r4, #0, 4
     850:	30050106 	andcc	r0, r5, r6, lsl #2
     854:	02040200 	andeq	r0, r4, #0, 4
     858:	2e6f0306 	cdpcs	3, 6, cr0, cr15, cr6, {0}
     85c:	02003805 	andeq	r3, r0, #327680	; 0x50000
     860:	01060204 	tsteq	r6, r4, lsl #4
     864:	02002905 	andeq	r2, r0, #81920	; 0x14000
     868:	66060104 	strvs	r0, [r6], -r4, lsl #2
     86c:	02000505 	andeq	r0, r0, #20971520	; 0x1400000
     870:	01060104 	tsteq	r6, r4, lsl #2
     874:	4c060905 			; <UNDEFINED> instruction: 0x4c060905
     878:	01060e05 	tsteq	r6, r5, lsl #28
     87c:	2e0c052e 	cfsh32cs	mvfx0, mvfx12, #30
     880:	51060905 	tstpl	r6, r5, lsl #18
     884:	01061805 	tsteq	r6, r5, lsl #16
     888:	054a0e05 	strbeq	r0, [sl, #-3589]	; 0xfffff1fb
     88c:	4805660c 	stmdami	r5, {r2, r3, r9, sl, sp, lr}
     890:	01040200 	mrseq	r0, R12_usr
     894:	003e054a 	eorseq	r0, lr, sl, asr #10
     898:	66010402 	strvs	r0, [r1], -r2, lsl #8
     89c:	02003a05 	andeq	r3, r0, #20480	; 0x5000
     8a0:	05ba0104 	ldreq	r0, [sl, #260]!	; 0x104
     8a4:	054c060e 	strbeq	r0, [ip, #-1550]	; 0xfffff9f2
     8a8:	05010617 	streq	r0, [r1, #-1559]	; 0xfffff9e9
     8ac:	0d052e11 	stceq	14, cr2, [r5, #-68]	; 0xffffffbc
     8b0:	24054c06 	strcs	r4, [r5], #-3078	; 0xfffff3fa
     8b4:	12050106 	andne	r0, r5, #-2147483647	; 0x80000001
     8b8:	6610054a 	ldrvs	r0, [r0], -sl, asr #10
     8bc:	2f061105 	svccs	0x00061105
     8c0:	01061805 	tsteq	r6, r5, lsl #16
     8c4:	09052e2e 	stmdbeq	r5, {r1, r2, r3, r5, r9, sl, fp, sp}
     8c8:	010a0306 	tsteq	sl, r6, lsl #6
     8cc:	12024a01 	andne	r4, r2, #4096	; 0x1000
     8d0:	3c010100 	stfccs	f0, [r1], {-0}
     8d4:	03000002 	movweq	r0, #2
     8d8:	0000d400 	andeq	sp, r0, r0, lsl #8
     8dc:	fb010200 	blx	410e6 <__bss_end__+0x37086>
     8e0:	01000d0e 	tsteq	r0, lr, lsl #26
     8e4:	00010101 	andeq	r0, r1, r1, lsl #2
     8e8:	00010000 	andeq	r0, r1, r0
     8ec:	696c0100 	stmdbvs	ip!, {r8}^
     8f0:	2f006362 	svccs	0x00006362
     8f4:	2f727375 	svccs	0x00727375
     8f8:	2f62696c 	svccs	0x0062696c
     8fc:	2f636367 	svccs	0x00636367
     900:	2d6d7261 	sfmcs	f7, 2, [sp, #-388]!	; 0xfffffe7c
     904:	656e6f6e 	strbvs	r6, [lr, #-3950]!	; 0xfffff092
     908:	6261652d 	rsbvs	r6, r1, #188743680	; 0xb400000
     90c:	2e392f69 	cdpcs	15, 3, cr2, cr9, cr9, {3}
     910:	2f302e32 	svccs	0x00302e32
     914:	6c636e69 	stclvs	14, cr6, [r3], #-420	; 0xfffffe5c
     918:	00656475 	rsbeq	r6, r5, r5, ror r4
     91c:	7273752f 	rsbsvc	r7, r3, #197132288	; 0xbc00000
     920:	6d72612f 	ldfvse	f6, [r2, #-188]!	; 0xffffff44
     924:	6e6f6e2d 	cdpvs	14, 6, cr6, cr15, cr13, {1}
     928:	61652d65 	cmnvs	r5, r5, ror #26
     92c:	692f6962 	stmdbvs	pc!, {r1, r5, r6, r8, fp, sp, lr}	; <UNPREDICTABLE>
     930:	756c636e 	strbvc	r6, [ip, #-878]!	; 0xfffffc92
     934:	732f6564 			; <UNDEFINED> instruction: 0x732f6564
     938:	2f007379 	svccs	0x00007379
     93c:	656d6f68 	strbvs	r6, [sp, #-3944]!	; 0xfffff098
     940:	6573752f 	ldrbvs	r7, [r3, #-1327]!	; 0xfffffad1
     944:	65442f72 	strbvs	r2, [r4, #-3954]	; 0xfffff08e
     948:	53432f76 	movtpl	r2, #16246	; 0x3f76
     94c:	58303432 	ldmdapl	r0!, {r1, r4, r5, sl, ip, sp}
     950:	62696c2f 	rsbvs	r6, r9, #12032	; 0x2f00
     954:	692f6970 	stmdbvs	pc!, {r4, r5, r6, r8, fp, sp, lr}	; <UNPREDICTABLE>
     958:	756c636e 	strbvc	r6, [ip, #-878]!	; 0xfffffc92
     95c:	00006564 	andeq	r6, r0, r4, ror #10
     960:	68736168 	ldmdavs	r3!, {r3, r5, r6, r8, sp, lr}^
     964:	0100632e 	tsteq	r0, lr, lsr #6
     968:	74730000 	ldrbtvc	r0, [r3], #-0
     96c:	746e6964 	strbtvc	r6, [lr], #-2404	; 0xfffff69c
     970:	6363672d 	cmnvs	r3, #11796480	; 0xb40000
     974:	0200682e 	andeq	r6, r0, #3014656	; 0x2e0000
     978:	6f6c0000 	svcvs	0x006c0000
     97c:	682e6b63 	stmdavs	lr!, {r0, r1, r5, r6, r8, r9, fp, sp, lr}
     980:	00000300 	andeq	r0, r0, r0, lsl #6
     984:	7079745f 	rsbsvc	r7, r9, pc, asr r4
     988:	682e7365 	stmdavs	lr!, {r0, r2, r5, r6, r8, r9, ip, sp, lr}
     98c:	00000300 	andeq	r0, r0, r0, lsl #6
     990:	64647473 	strbtvs	r7, [r4], #-1139	; 0xfffffb8d
     994:	682e6665 	stmdavs	lr!, {r0, r2, r5, r6, r9, sl, sp, lr}
     998:	00000200 	andeq	r0, r0, r0, lsl #4
     99c:	6e656572 	mcrvs	5, 3, r6, cr5, cr2, {3}
     9a0:	00682e74 	rsbeq	r2, r8, r4, ror lr
     9a4:	72000003 	andvc	r0, r0, #3
     9a8:	682e6970 	stmdavs	lr!, {r4, r5, r6, r8, fp, sp, lr}
     9ac:	00000400 	andeq	r0, r0, r0, lsl #8
     9b0:	00310500 	eorseq	r0, r1, r0, lsl #10
     9b4:	89bc0205 	ldmibhi	ip!, {r0, r2, r9}
     9b8:	0e030000 	cdpeq	0, 0, cr0, cr3, cr0, {0}
     9bc:	13050501 	movwne	r0, #21761	; 0x5501
     9c0:	13130105 	tstne	r3, #1073741825	; 0x40000001
     9c4:	05140505 	ldreq	r0, [r4, #-1285]	; 0xfffffafb
     9c8:	05010608 	streq	r0, [r1, #-1544]	; 0xfffff9f8
     9cc:	05056131 	streq	r6, [r5, #-305]	; 0xfffffecf
     9d0:	09056d06 	stmdbeq	r5, {r1, r2, r8, sl, fp, sp, lr}
     9d4:	05050106 	streq	r0, [r5, #-262]	; 0xfffffefa
     9d8:	09052f06 	stmdbeq	r5, {r1, r2, r8, r9, sl, fp, sp}
     9dc:	05050106 	streq	r0, [r5, #-262]	; 0xfffffefa
     9e0:	0b053106 	bleq	14ce00 <__bss_end__+0x142da0>
     9e4:	01040200 	mrseq	r0, R12_usr
     9e8:	00050501 	andeq	r0, r5, r1, lsl #10
     9ec:	06010402 	streq	r0, [r1], -r2, lsl #8
     9f0:	00090501 	andeq	r0, r9, r1, lsl #10
     9f4:	06020402 	streq	r0, [r2], -r2, lsl #8
     9f8:	0012054b 	andseq	r0, r2, fp, asr #10
     9fc:	06020402 	streq	r0, [r2], -r2, lsl #8
     a00:	000f0501 	andeq	r0, pc, r1, lsl #10
     a04:	66020402 	strvs	r0, [r2], -r2, lsl #8
     a08:	02000905 	andeq	r0, r0, #81920	; 0x14000
     a0c:	2f060204 	svccs	0x00060204
     a10:	02001305 	andeq	r1, r0, #335544320	; 0x14000000
     a14:	01060204 	tsteq	r6, r4, lsl #4
     a18:	02001005 	andeq	r1, r0, #5
     a1c:	05660204 	strbeq	r0, [r6, #-516]!	; 0xfffffdfc
     a20:	04020009 	streq	r0, [r2], #-9
     a24:	052f0602 	streq	r0, [pc, #-1538]!	; 42a <_start-0x7bd6>
     a28:	04020010 	streq	r0, [r2], #-16
     a2c:	05010602 	streq	r0, [r1, #-1538]	; 0xfffff9fe
     a30:	04020009 	streq	r0, [r2], #-9
     a34:	052f0602 	streq	r0, [pc, #-1538]!	; 43a <_start-0x7bc6>
     a38:	0402000f 	streq	r0, [r2], #-15
     a3c:	05010602 	streq	r0, [r1, #-1538]	; 0xfffff9fe
     a40:	04020009 	streq	r0, [r2], #-9
     a44:	052f0602 	streq	r0, [pc, #-1538]!	; 44a <_start-0x7bb6>
     a48:	0402000f 	streq	r0, [r2], #-15
     a4c:	05010602 	streq	r0, [r1, #-1538]	; 0xfffff9fe
     a50:	04020014 	streq	r0, [r2], #-20	; 0xffffffec
     a54:	05290602 	streq	r0, [r9, #-1538]!	; 0xfffff9fe
     a58:	04020017 	streq	r0, [r2], #-23	; 0xffffffe9
     a5c:	00010602 	andeq	r0, r1, r2, lsl #12
     a60:	2e020402 	cdpcs	4, 0, cr0, cr2, cr2, {0}
     a64:	03060505 	movweq	r0, #25861	; 0x6505
     a68:	10032e09 	andne	r2, r3, r9, lsl #28
     a6c:	060a05ba 			; <UNDEFINED> instruction: 0x060a05ba
     a70:	06050501 	streq	r0, [r5], -r1, lsl #10
     a74:	060a052f 	streq	r0, [sl], -pc, lsr #10
     a78:	06050501 	streq	r0, [r5], -r1, lsl #10
     a7c:	060a052f 	streq	r0, [sl], -pc, lsr #10
     a80:	06050501 	streq	r0, [r5], -r1, lsl #10
     a84:	060a052f 	streq	r0, [sl], -pc, lsr #10
     a88:	06050501 	streq	r0, [r5], -r1, lsl #10
     a8c:	060a052f 	streq	r0, [sl], -pc, lsr #10
     a90:	06050501 	streq	r0, [r5], -r1, lsl #10
     a94:	060a052f 	streq	r0, [sl], -pc, lsr #10
     a98:	06050501 	streq	r0, [r5], -r1, lsl #10
     a9c:	06010530 			; <UNDEFINED> instruction: 0x06010530
     aa0:	06110513 			; <UNDEFINED> instruction: 0x06110513
     aa4:	052e6903 	streq	r6, [lr, #-2307]!	; 0xfffff6fd
     aa8:	2e010619 	mcrcs	6, 0, r0, cr1, cr9, {0}
     aac:	054a1605 	strbeq	r1, [sl, #-1541]	; 0xfffff9fb
     ab0:	052f0611 	streq	r0, [pc, #-1553]!	; 4a7 <_start-0x7b59>
     ab4:	05010616 	streq	r0, [r1, #-1558]	; 0xfffff9ea
     ab8:	052f0611 	streq	r0, [pc, #-1553]!	; 4af <_start-0x7b51>
     abc:	0501061a 	streq	r0, [r1, #-1562]	; 0xfffff9e6
     ac0:	11052e16 	tstne	r5, r6, lsl lr
     ac4:	16052f06 	strne	r2, [r5], -r6, lsl #30
     ac8:	11050106 	tstne	r5, r6, lsl #2
     acc:	052f2f06 	streq	r2, [pc, #-3846]!	; fffffbce <__bss_end__+0xffff5b6e>
     ad0:	2e010619 	mcrcs	6, 0, r0, cr1, cr9, {0}
     ad4:	054a1605 	strbeq	r1, [sl, #-1541]	; 0xfffff9fb
     ad8:	052f0611 	streq	r0, [pc, #-1553]!	; 4cf <_start-0x7b31>
     adc:	05010616 	streq	r0, [r1, #-1558]	; 0xfffff9ea
     ae0:	052f0611 	streq	r0, [pc, #-1553]!	; 4d7 <_start-0x7b29>
     ae4:	05010616 	streq	r0, [r1, #-1558]	; 0xfffff9ea
     ae8:	2f2f0611 	svccs	0x002f0611
     aec:	01061905 	tsteq	r6, r5, lsl #18
     af0:	052e1605 	streq	r1, [lr, #-1541]!	; 0xfffff9fb
     af4:	052f0611 	streq	r0, [pc, #-1553]!	; 4eb <_start-0x7b15>
     af8:	05010616 	streq	r0, [r1, #-1558]	; 0xfffff9ea
     afc:	052f0611 	streq	r0, [pc, #-1553]!	; 4f3 <_start-0x7b0d>
     b00:	2e010616 	mcrcs	6, 0, r0, cr1, cr6, {0}
     b04:	65032a05 	strvs	r2, [r3, #-2565]	; 0xfffff5fb
     b08:	0301052e 	movweq	r0, #5422	; 0x152e
     b0c:	02022e27 	andeq	r2, r2, #624	; 0x270
     b10:	f0010100 			; <UNDEFINED> instruction: 0xf0010100
     b14:	03000000 	movweq	r0, #0
     b18:	0000c000 	andeq	ip, r0, r0
     b1c:	fb010200 	blx	41326 <__bss_end__+0x372c6>
     b20:	01000d0e 	tsteq	r0, lr, lsl #26
     b24:	00010101 	andeq	r0, r1, r1, lsl #2
     b28:	00010000 	andeq	r0, r1, r0
     b2c:	696c0100 	stmdbvs	ip!, {r8}^
     b30:	2f006362 	svccs	0x00006362
     b34:	2f727375 	svccs	0x00727375
     b38:	2f62696c 	svccs	0x0062696c
     b3c:	2f636367 	svccs	0x00636367
     b40:	2d6d7261 	sfmcs	f7, 2, [sp, #-388]!	; 0xfffffe7c
     b44:	656e6f6e 	strbvs	r6, [lr, #-3950]!	; 0xfffff092
     b48:	6261652d 	rsbvs	r6, r1, #188743680	; 0xb400000
     b4c:	2e392f69 	cdpcs	15, 3, cr2, cr9, cr9, {3}
     b50:	2f302e32 	svccs	0x00302e32
     b54:	6c636e69 	stclvs	14, cr6, [r3], #-420	; 0xfffffe5c
     b58:	00656475 	rsbeq	r6, r5, r5, ror r4
     b5c:	7273752f 	rsbsvc	r7, r3, #197132288	; 0xbc00000
     b60:	6d72612f 	ldfvse	f6, [r2, #-188]!	; 0xffffff44
     b64:	6e6f6e2d 	cdpvs	14, 6, cr6, cr15, cr13, {1}
     b68:	61652d65 	cmnvs	r5, r5, ror #26
     b6c:	692f6962 	stmdbvs	pc!, {r1, r5, r6, r8, fp, sp, lr}	; <UNPREDICTABLE>
     b70:	756c636e 	strbvc	r6, [ip, #-878]!	; 0xfffffc92
     b74:	732f6564 			; <UNDEFINED> instruction: 0x732f6564
     b78:	2f007379 	svccs	0x00007379
     b7c:	2f727375 	svccs	0x00727375
     b80:	2d6d7261 	sfmcs	f7, 2, [sp, #-388]!	; 0xfffffe7c
     b84:	656e6f6e 	strbvs	r6, [lr, #-3950]!	; 0xfffff092
     b88:	6261652d 	rsbvs	r6, r1, #188743680	; 0xb400000
     b8c:	6e692f69 	cdpvs	15, 6, cr2, cr9, cr9, {3}
     b90:	64756c63 	ldrbtvs	r6, [r5], #-3171	; 0xfffff39d
     b94:	6d000065 	stcvs	0, cr0, [r0, #-404]	; 0xfffffe6c
     b98:	65736d65 	ldrbvs	r6, [r3, #-3429]!	; 0xfffff29b
     b9c:	00632e74 	rsbeq	r2, r3, r4, ror lr
     ba0:	73000001 	movwvc	r0, #1
     ba4:	65646474 	strbvs	r6, [r4, #-1140]!	; 0xfffffb8c
     ba8:	00682e66 	rsbeq	r2, r8, r6, ror #28
     bac:	6c000002 	stcvs	0, cr0, [r0], {2}
     bb0:	2e6b636f 	cdpcs	3, 6, cr6, cr11, cr15, {3}
     bb4:	00030068 	andeq	r0, r3, r8, rrx
     bb8:	79745f00 	ldmdbvc	r4!, {r8, r9, sl, fp, ip, lr}^
     bbc:	2e736570 	mrccs	5, 3, r6, cr3, cr0, {3}
     bc0:	00030068 	andeq	r0, r3, r8, rrx
     bc4:	65657200 	strbvs	r7, [r5, #-512]!	; 0xfffffe00
     bc8:	682e746e 	stmdavs	lr!, {r1, r2, r3, r5, r6, sl, ip, sp, lr}
     bcc:	00000300 	andeq	r0, r0, r0, lsl #6
     bd0:	69727473 	ldmdbvs	r2!, {r0, r1, r4, r5, r6, sl, ip, sp, lr}^
     bd4:	682e676e 	stmdavs	lr!, {r1, r2, r3, r5, r6, r8, r9, sl, sp, lr}
     bd8:	00000400 	andeq	r0, r0, r0, lsl #8
     bdc:	00290500 	eoreq	r0, r9, r0, lsl #10
     be0:	8aa80205 	bhi	fea013fc <__bss_end__+0xfe9f739c>
     be4:	05140000 	ldreq	r0, [r4, #-0]
     be8:	14051305 	strne	r1, [r5], #-773	; 0xfffffcfb
     bec:	05050106 	streq	r0, [r5, #-262]	; 0xfffffefa
     bf0:	0b053006 	bleq	14cc10 <__bss_end__+0x142bb0>
     bf4:	0a051006 	beq	144c14 <__bss_end__+0x13abb4>
     bf8:	09053006 	stmdbeq	r5, {r1, r2, ip, sp}
     bfc:	060e054b 	streq	r0, [lr], -fp, asr #10
     c00:	02022e01 	andeq	r2, r2, #1, 28
     c04:	21010100 	mrscs	r0, (UNDEF: 17)
     c08:	03000001 	movweq	r0, #1
     c0c:	0000ef00 	andeq	lr, r0, r0, lsl #30
     c10:	fb010200 	blx	4141a <__bss_end__+0x373ba>
     c14:	01000d0e 	tsteq	r0, lr, lsl #26
     c18:	00010101 	andeq	r0, r1, r1, lsl #2
     c1c:	00010000 	andeq	r0, r1, r0
     c20:	696c0100 	stmdbvs	ip!, {r8}^
     c24:	2f006362 	svccs	0x00006362
     c28:	2f727375 	svccs	0x00727375
     c2c:	2f62696c 	svccs	0x0062696c
     c30:	2f636367 	svccs	0x00636367
     c34:	2d6d7261 	sfmcs	f7, 2, [sp, #-388]!	; 0xfffffe7c
     c38:	656e6f6e 	strbvs	r6, [lr, #-3950]!	; 0xfffff092
     c3c:	6261652d 	rsbvs	r6, r1, #188743680	; 0xb400000
     c40:	2e392f69 	cdpcs	15, 3, cr2, cr9, cr9, {3}
     c44:	2f302e32 	svccs	0x00302e32
     c48:	6c636e69 	stclvs	14, cr6, [r3], #-420	; 0xfffffe5c
     c4c:	00656475 	rsbeq	r6, r5, r5, ror r4
     c50:	7273752f 	rsbsvc	r7, r3, #197132288	; 0xbc00000
     c54:	6d72612f 	ldfvse	f6, [r2, #-188]!	; 0xffffff44
     c58:	6e6f6e2d 	cdpvs	14, 6, cr6, cr15, cr13, {1}
     c5c:	61652d65 	cmnvs	r5, r5, ror #26
     c60:	692f6962 	stmdbvs	pc!, {r1, r5, r6, r8, fp, sp, lr}	; <UNPREDICTABLE>
     c64:	756c636e 	strbvc	r6, [ip, #-878]!	; 0xfffffc92
     c68:	732f6564 			; <UNDEFINED> instruction: 0x732f6564
     c6c:	2f007379 	svccs	0x00007379
     c70:	656d6f68 	strbvs	r6, [sp, #-3944]!	; 0xfffff098
     c74:	6573752f 	ldrbvs	r7, [r3, #-1327]!	; 0xfffffad1
     c78:	65442f72 	strbvs	r2, [r4, #-3954]	; 0xfffff08e
     c7c:	53432f76 	movtpl	r2, #16246	; 0x3f76
     c80:	58303432 	ldmdapl	r0!, {r1, r4, r5, sl, ip, sp}
     c84:	62696c2f 	rsbvs	r6, r9, #12032	; 0x2f00
     c88:	692f6970 	stmdbvs	pc!, {r4, r5, r6, r8, fp, sp, lr}	; <UNPREDICTABLE>
     c8c:	756c636e 	strbvc	r6, [ip, #-878]!	; 0xfffffc92
     c90:	00006564 	andeq	r6, r0, r4, ror #10
     c94:	6e697270 	mcrvs	2, 3, r7, cr9, cr0, {3}
     c98:	632e6b74 			; <UNDEFINED> instruction: 0x632e6b74
     c9c:	00000100 	andeq	r0, r0, r0, lsl #2
     ca0:	61647473 	smcvs	18243	; 0x4743
     ca4:	682e6772 	stmdavs	lr!, {r1, r4, r5, r6, r8, r9, sl, sp, lr}
     ca8:	00000200 	andeq	r0, r0, r0, lsl #4
     cac:	6b636f6c 	blvs	18dca64 <__bss_end__+0x18d2a04>
     cb0:	0300682e 	movweq	r6, #2094	; 0x82e
     cb4:	745f0000 	ldrbvc	r0, [pc], #-0	; cbc <_start-0x7344>
     cb8:	73657079 	cmnvc	r5, #121	; 0x79
     cbc:	0300682e 	movweq	r6, #2094	; 0x82e
     cc0:	74730000 	ldrbtvc	r0, [r3], #-0
     cc4:	66656464 	strbtvs	r6, [r5], -r4, ror #8
     cc8:	0200682e 	andeq	r6, r0, #3014656	; 0x2e0000
     ccc:	65720000 	ldrbvs	r0, [r2, #-0]!
     cd0:	2e746e65 	cdpcs	14, 7, cr6, cr4, cr5, {3}
     cd4:	00030068 	andeq	r0, r3, r8, rrx
     cd8:	69707200 	ldmdbvs	r0!, {r9, ip, sp, lr}^
     cdc:	0400682e 	streq	r6, [r0], #-2094	; 0xfffff7d2
     ce0:	623c0000 	eorsvs	r0, ip, #0
     ce4:	746c6975 	strbtvc	r6, [ip], #-2421	; 0xfffff68b
     ce8:	3e6e692d 	vmulcc.f16	s13, s28, s27	; <UNPREDICTABLE>
     cec:	00000000 	andeq	r0, r0, r0
     cf0:	702d6176 	eorvc	r6, sp, r6, ror r1
     cf4:	746e6972 	strbtvc	r6, [lr], #-2418	; 0xfffff68e
     cf8:	00682e6b 	rsbeq	r2, r8, fp, ror #28
     cfc:	00000001 	andeq	r0, r0, r1
     d00:	05002205 	streq	r2, [r0, #-517]	; 0xfffffdfb
     d04:	008ac002 	addeq	ip, sl, r2
     d08:	01061700 	tsteq	r6, r0, lsl #14
     d0c:	68060505 	stmdavs	r6, {r0, r2, r8, sl}
     d10:	09051413 	stmdbeq	r5, {r0, r1, r4, sl, ip}
     d14:	0612054b 	ldreq	r0, [r2], -fp, asr #10
     d18:	06050501 	streq	r0, [r5], -r1, lsl #10
     d1c:	660616bb 			; <UNDEFINED> instruction: 0x660616bb
     d20:	01053406 	tsteq	r5, r6, lsl #8
     d24:	02661306 	rsbeq	r1, r6, #402653184	; 0x18000000
     d28:	01010008 	tsteq	r1, r8
     d2c:	00000105 	andeq	r0, r0, r5, lsl #2
     d30:	00c70003 	sbceq	r0, r7, r3
     d34:	01020000 	mrseq	r0, (UNDEF: 2)
     d38:	000d0efb 	strdeq	r0, [sp], -fp
     d3c:	01010101 	tsteq	r1, r1, lsl #2
     d40:	01000000 	mrseq	r0, (UNDEF: 0)
     d44:	6c010000 	stcvs	0, cr0, [r1], {-0}
     d48:	00636269 	rsbeq	r6, r3, r9, ror #4
     d4c:	7273752f 	rsbsvc	r7, r3, #197132288	; 0xbc00000
     d50:	6d72612f 	ldfvse	f6, [r2, #-188]!	; 0xffffff44
     d54:	6e6f6e2d 	cdpvs	14, 6, cr6, cr15, cr13, {1}
     d58:	61652d65 	cmnvs	r5, r5, ror #26
     d5c:	692f6962 	stmdbvs	pc!, {r1, r5, r6, r8, fp, sp, lr}	; <UNPREDICTABLE>
     d60:	756c636e 	strbvc	r6, [ip, #-878]!	; 0xfffffc92
     d64:	732f6564 			; <UNDEFINED> instruction: 0x732f6564
     d68:	2f007379 	svccs	0x00007379
     d6c:	2f727375 	svccs	0x00727375
     d70:	2f62696c 	svccs	0x0062696c
     d74:	2f636367 	svccs	0x00636367
     d78:	2d6d7261 	sfmcs	f7, 2, [sp, #-388]!	; 0xfffffe7c
     d7c:	656e6f6e 	strbvs	r6, [lr, #-3950]!	; 0xfffff092
     d80:	6261652d 	rsbvs	r6, r1, #188743680	; 0xb400000
     d84:	2e392f69 	cdpcs	15, 3, cr2, cr9, cr9, {3}
     d88:	2f302e32 	svccs	0x00302e32
     d8c:	6c636e69 	stclvs	14, cr6, [r3], #-420	; 0xfffffe5c
     d90:	00656475 	rsbeq	r6, r5, r5, ror r4
     d94:	6d6f682f 	stclvs	8, cr6, [pc, #-188]!	; ce0 <_start-0x7320>
     d98:	73752f65 	cmnvc	r5, #404	; 0x194
     d9c:	442f7265 	strtmi	r7, [pc], #-613	; da4 <_start-0x725c>
     da0:	432f7665 			; <UNDEFINED> instruction: 0x432f7665
     da4:	30343253 	eorscc	r3, r4, r3, asr r2
     da8:	696c2f58 	stmdbvs	ip!, {r3, r4, r6, r8, r9, sl, fp, sp}^
     dac:	2f697062 	svccs	0x00697062
     db0:	6c636e69 	stclvs	14, cr6, [r3], #-420	; 0xfffffe5c
     db4:	00656475 	rsbeq	r6, r5, r5, ror r4
     db8:	74757000 	ldrbtvc	r7, [r5], #-0
     dbc:	72616863 	rsbvc	r6, r1, #6488064	; 0x630000
     dc0:	0100632e 	tsteq	r0, lr, lsr #6
     dc4:	6f6c0000 	svcvs	0x006c0000
     dc8:	682e6b63 	stmdavs	lr!, {r0, r1, r5, r6, r8, r9, fp, sp, lr}
     dcc:	00000200 	andeq	r0, r0, r0, lsl #4
     dd0:	7079745f 	rsbsvc	r7, r9, pc, asr r4
     dd4:	682e7365 	stmdavs	lr!, {r0, r2, r5, r6, r8, r9, ip, sp, lr}
     dd8:	00000200 	andeq	r0, r0, r0, lsl #4
     ddc:	64647473 	strbtvs	r7, [r4], #-1139	; 0xfffffb8d
     de0:	682e6665 	stmdavs	lr!, {r0, r2, r5, r6, r9, sl, sp, lr}
     de4:	00000300 	andeq	r0, r0, r0, lsl #6
     de8:	6e656572 	mcrvs	5, 3, r6, cr5, cr2, {3}
     dec:	00682e74 	rsbeq	r2, r8, r4, ror lr
     df0:	72000002 	andvc	r0, r0, #2
     df4:	682e6970 	stmdavs	lr!, {r4, r5, r6, r8, fp, sp, lr}
     df8:	00000400 	andeq	r0, r0, r0, lsl #8
     dfc:	00240500 	eoreq	r0, r4, r0, lsl #10
     e00:	8b180205 	blhi	60161c <__bss_end__+0x5f75bc>
     e04:	06140000 	ldreq	r0, [r4], -r0
     e08:	06260501 	strteq	r0, [r6], -r1, lsl #10
     e0c:	2e34054a 	cdpcs	5, 3, cr0, cr4, cr10, {2}
     e10:	01060105 	tsteq	r6, r5, lsl #2
     e14:	4f061b05 	svcmi	0x00061b05
     e18:	05130505 	ldreq	r0, [r3, #-1285]	; 0xfffffafb
     e1c:	05010611 	streq	r0, [r1, #-1553]	; 0xfffff9ef
     e20:	23056701 	movwcs	r6, #22273	; 0x5701
     e24:	05056706 	streq	r6, [r5, #-1798]	; 0xfffff8fa
     e28:	06110513 			; <UNDEFINED> instruction: 0x06110513
     e2c:	4b010501 	blmi	42238 <__bss_end__+0x381d8>
     e30:	01000402 	tsteq	r0, r2, lsl #8
     e34:	00011201 	andeq	r1, r1, r1, lsl #4
     e38:	c4000300 	strgt	r0, [r0], #-768	; 0xfffffd00
     e3c:	02000000 	andeq	r0, r0, #0
     e40:	0d0efb01 	vstreq	d15, [lr, #-4]
     e44:	01010100 	mrseq	r0, (UNDEF: 17)
     e48:	00000001 	andeq	r0, r0, r1
     e4c:	01000001 	tsteq	r0, r1
     e50:	6362696c 	cmnvs	r2, #108, 18	; 0x1b0000
     e54:	73752f00 	cmnvc	r5, #0, 30
     e58:	72612f72 	rsbvc	r2, r1, #456	; 0x1c8
     e5c:	6f6e2d6d 	svcvs	0x006e2d6d
     e60:	652d656e 	strvs	r6, [sp, #-1390]!	; 0xfffffa92
     e64:	2f696261 	svccs	0x00696261
     e68:	6c636e69 	stclvs	14, cr6, [r3], #-420	; 0xfffffe5c
     e6c:	2f656475 	svccs	0x00656475
     e70:	00737973 	rsbseq	r7, r3, r3, ror r9
     e74:	7273752f 	rsbsvc	r7, r3, #197132288	; 0xbc00000
     e78:	62696c2f 	rsbvs	r6, r9, #12032	; 0x2f00
     e7c:	6363672f 	cmnvs	r3, #12320768	; 0xbc0000
     e80:	6d72612f 	ldfvse	f6, [r2, #-188]!	; 0xffffff44
     e84:	6e6f6e2d 	cdpvs	14, 6, cr6, cr15, cr13, {1}
     e88:	61652d65 	cmnvs	r5, r5, ror #26
     e8c:	392f6962 	stmdbcc	pc!, {r1, r5, r6, r8, fp, sp, lr}	; <UNPREDICTABLE>
     e90:	302e322e 	eorcc	r3, lr, lr, lsr #4
     e94:	636e692f 	cmnvs	lr, #770048	; 0xbc000
     e98:	6564756c 	strbvs	r7, [r4, #-1388]!	; 0xfffffa94
     e9c:	6f682f00 	svcvs	0x00682f00
     ea0:	752f656d 	strvc	r6, [pc, #-1389]!	; 93b <_start-0x76c5>
     ea4:	2f726573 	svccs	0x00726573
     ea8:	2f766544 	svccs	0x00766544
     eac:	34325343 	ldrtcc	r5, [r2], #-835	; 0xfffffcbd
     eb0:	6c2f5830 	stcvs	8, cr5, [pc], #-192	; df8 <_start-0x7208>
     eb4:	69706269 	ldmdbvs	r0!, {r0, r3, r5, r6, r9, sp, lr}^
     eb8:	636e692f 	cmnvs	lr, #770048	; 0xbc000
     ebc:	6564756c 	strbvs	r7, [r4, #-1388]!	; 0xfffffa94
     ec0:	75700000 	ldrbvc	r0, [r0, #-0]!
     ec4:	632e6b74 			; <UNDEFINED> instruction: 0x632e6b74
     ec8:	00000100 	andeq	r0, r0, r0, lsl #2
     ecc:	6b636f6c 	blvs	18dcc84 <__bss_end__+0x18d2c24>
     ed0:	0200682e 	andeq	r6, r0, #3014656	; 0x2e0000
     ed4:	745f0000 	ldrbvc	r0, [pc], #-0	; edc <_start-0x7124>
     ed8:	73657079 	cmnvc	r5, #121	; 0x79
     edc:	0200682e 	andeq	r6, r0, #3014656	; 0x2e0000
     ee0:	74730000 	ldrbtvc	r0, [r3], #-0
     ee4:	66656464 	strbtvs	r6, [r5], -r4, ror #8
     ee8:	0300682e 	movweq	r6, #2094	; 0x82e
     eec:	65720000 	ldrbvs	r0, [r2, #-0]!
     ef0:	2e746e65 	cdpcs	14, 7, cr6, cr4, cr5, {3}
     ef4:	00020068 	andeq	r0, r2, r8, rrx
     ef8:	69707200 	ldmdbvs	r0!, {r9, ip, sp, lr}^
     efc:	0400682e 	streq	r6, [r0], #-2094	; 0xfffff7d2
     f00:	05000000 	streq	r0, [r0, #-0]
     f04:	02050022 	andeq	r0, r5, #34	; 0x22
     f08:	00008b54 	andeq	r8, r0, r4, asr fp
     f0c:	05010615 	streq	r0, [r1, #-1557]	; 0xfffff9eb
     f10:	054b0605 	strbeq	r0, [fp, #-1541]	; 0xfffff9fb
     f14:	0402000b 	streq	r0, [r2], #-11
     f18:	05050101 	streq	r0, [r5, #-257]	; 0xfffffeff
     f1c:	01040200 	mrseq	r0, R12_usr
     f20:	09052e06 	stmdbeq	r5, {r1, r2, r9, sl, fp, sp}
     f24:	02040200 	andeq	r0, r4, #0, 4
     f28:	0f054b06 	svceq	0x00054b06
     f2c:	02040200 	andeq	r0, r4, #0, 4
     f30:	00100565 	andseq	r0, r0, r5, ror #10
     f34:	06020402 	streq	r0, [r2], -r2, lsl #8
     f38:	04020001 	streq	r0, [r2], #-1
     f3c:	05052e02 	streq	r2, [r5, #-3586]	; 0xfffff1fe
     f40:	01053206 	tsteq	r5, r6, lsl #4
     f44:	06021306 	streq	r1, [r2], -r6, lsl #6
     f48:	0d010100 	stfeqs	f0, [r1, #-0]
     f4c:	03000005 	movweq	r0, #5
     f50:	0000e300 	andeq	lr, r0, r0, lsl #6
     f54:	fb010200 	blx	4175e <__bss_end__+0x376fe>
     f58:	01000d0e 	tsteq	r0, lr, lsl #26
     f5c:	00010101 	andeq	r0, r1, r1, lsl #2
     f60:	00010000 	andeq	r0, r1, r0
     f64:	696c0100 	stmdbvs	ip!, {r8}^
     f68:	2f006362 	svccs	0x00006362
     f6c:	2f727375 	svccs	0x00727375
     f70:	2d6d7261 	sfmcs	f7, 2, [sp, #-388]!	; 0xfffffe7c
     f74:	656e6f6e 	strbvs	r6, [lr, #-3950]!	; 0xfffff092
     f78:	6261652d 	rsbvs	r6, r1, #188743680	; 0xb400000
     f7c:	6e692f69 	cdpvs	15, 6, cr2, cr9, cr9, {3}
     f80:	64756c63 	ldrbtvs	r6, [r5], #-3171	; 0xfffff39d
     f84:	79732f65 	ldmdbvc	r3!, {r0, r2, r5, r6, r8, r9, sl, fp, sp}^
     f88:	752f0073 	strvc	r0, [pc, #-115]!	; f1d <_start-0x70e3>
     f8c:	6c2f7273 	sfmvs	f7, 4, [pc], #-460	; dc8 <_start-0x7238>
     f90:	672f6269 	strvs	r6, [pc, -r9, ror #4]!
     f94:	612f6363 			; <UNDEFINED> instruction: 0x612f6363
     f98:	6e2d6d72 	mcrvs	13, 1, r6, cr13, cr2, {3}
     f9c:	2d656e6f 	stclcs	14, cr6, [r5, #-444]!	; 0xfffffe44
     fa0:	69626165 	stmdbvs	r2!, {r0, r2, r5, r6, r8, sp, lr}^
     fa4:	322e392f 	eorcc	r3, lr, #770048	; 0xbc000
     fa8:	692f302e 	stmdbvs	pc!, {r1, r2, r3, r5, ip, sp}	; <UNPREDICTABLE>
     fac:	756c636e 	strbvc	r6, [ip, #-878]!	; 0xfffffc92
     fb0:	2f006564 	svccs	0x00006564
     fb4:	656d6f68 	strbvs	r6, [sp, #-3944]!	; 0xfffff098
     fb8:	6573752f 	ldrbvs	r7, [r3, #-1327]!	; 0xfffffad1
     fbc:	65442f72 	strbvs	r2, [r4, #-3954]	; 0xfffff08e
     fc0:	53432f76 	movtpl	r2, #16246	; 0x3f76
     fc4:	58303432 	ldmdapl	r0!, {r1, r4, r5, sl, ip, sp}
     fc8:	62696c2f 	rsbvs	r6, r9, #12032	; 0x2f00
     fcc:	692f6970 	stmdbvs	pc!, {r4, r5, r6, r8, fp, sp, lr}	; <UNPREDICTABLE>
     fd0:	756c636e 	strbvc	r6, [ip, #-878]!	; 0xfffffc92
     fd4:	00006564 	andeq	r6, r0, r4, ror #10
     fd8:	702d6176 	eorvc	r6, sp, r6, ror r1
     fdc:	746e6972 	strbtvc	r6, [lr], #-2418	; 0xfffff68e
     fe0:	00632e6b 	rsbeq	r2, r3, fp, ror #28
     fe4:	6c000001 	stcvs	0, cr0, [r0], {1}
     fe8:	2e6b636f 	cdpcs	3, 6, cr6, cr11, cr15, {3}
     fec:	00020068 	andeq	r0, r2, r8, rrx
     ff0:	79745f00 	ldmdbvc	r4!, {r8, r9, sl, fp, ip, lr}^
     ff4:	2e736570 	mrccs	5, 3, r6, cr3, cr0, {3}
     ff8:	00020068 	andeq	r0, r2, r8, rrx
     ffc:	64747300 	ldrbtvs	r7, [r4], #-768	; 0xfffffd00
    1000:	2e666564 	cdpcs	5, 6, cr6, cr6, cr4, {3}
    1004:	00030068 	andeq	r0, r3, r8, rrx
    1008:	65657200 	strbvs	r7, [r5, #-512]!	; 0xfffffe00
    100c:	682e746e 	stmdavs	lr!, {r1, r2, r3, r5, r6, sl, ip, sp, lr}
    1010:	00000200 	andeq	r0, r0, r0, lsl #4
    1014:	2e697072 	mcrcs	0, 3, r7, cr9, cr2, {3}
    1018:	00040068 	andeq	r0, r4, r8, rrx
    101c:	64747300 	ldrbtvs	r7, [r4], #-768	; 0xfffffd00
    1020:	2e677261 	cdpcs	2, 6, cr7, cr7, cr1, {3}
    1024:	00030068 	andeq	r0, r3, r8, rrx
    1028:	75623c00 	strbvc	r3, [r2, #-3072]!	; 0xfffff400
    102c:	2d746c69 	ldclcs	12, cr6, [r4, #-420]!	; 0xfffffe5c
    1030:	003e6e69 	eorseq	r6, lr, r9, ror #28
    1034:	00000000 	andeq	r0, r0, r0
    1038:	05001b05 	streq	r1, [r0, #-2821]	; 0xfffff4fb
    103c:	008b8802 	addeq	r8, fp, r2, lsl #16
    1040:	01260300 			; <UNDEFINED> instruction: 0x01260300
    1044:	05011d05 	streq	r1, [r1, #-3333]	; 0xfffff2fb
    1048:	0501062d 	streq	r0, [r1, #-1581]	; 0xfffff9d3
    104c:	054a2e01 	strbeq	r2, [sl, #-3585]	; 0xfffff1ff
    1050:	05510633 	ldrbeq	r0, [r1, #-1587]	; 0xfffff9cd
    1054:	06051302 	streq	r1, [r5], -r2, lsl #6
    1058:	02050106 	andeq	r0, r5, #-2147483647	; 0x80000001
    105c:	08053006 	stmdaeq	r5, {r1, r2, ip, sp}
    1060:	01040200 	mrseq	r0, R12_usr
    1064:	00020501 	andeq	r0, r2, r1, lsl #10
    1068:	06010402 	streq	r0, [r1], -r2, lsl #8
    106c:	00030501 	andeq	r0, r3, r1, lsl #10
    1070:	06020402 	streq	r0, [r2], -r2, lsl #8
    1074:	0008052f 	andeq	r0, r8, pc, lsr #10
    1078:	06020402 	streq	r0, [r2], -r2, lsl #8
    107c:	00150501 	andseq	r0, r5, r1, lsl #10
    1080:	06020402 	streq	r0, [r2], -r2, lsl #8
    1084:	00180549 	andseq	r0, r8, r9, asr #10
    1088:	06020402 	streq	r0, [r2], -r2, lsl #8
    108c:	04020001 	streq	r0, [r2], #-1
    1090:	02052e02 	andeq	r2, r5, #2, 28
    1094:	05053006 	streq	r3, [r5, #-6]
    1098:	02050106 	andeq	r0, r5, #-2147483647	; 0x80000001
    109c:	01054b06 	tsteq	r5, r6, lsl #22
    10a0:	3e051306 	cdpcc	3, 0, cr1, cr5, cr6, {0}
    10a4:	02053006 	andeq	r3, r5, #6
    10a8:	060e0514 			; <UNDEFINED> instruction: 0x060e0514
    10ac:	2e060501 	cfsh32cs	mvfx0, mvfx6, #1
    10b0:	2f060205 	svccs	0x00060205
    10b4:	01060405 	tsteq	r6, r5, lsl #8
    10b8:	2f060305 	svccs	0x00060305
    10bc:	01061105 	tsteq	r6, r5, lsl #2
    10c0:	052e0905 	streq	r0, [lr, #-2309]!	; 0xfffff6fb
    10c4:	15300602 	ldrne	r0, [r0, #-1538]!	; 0xfffff9fe
    10c8:	01060705 	tsteq	r6, r5, lsl #14
    10cc:	052e0205 	streq	r0, [lr, #-517]!	; 0xfffffdfb
    10d0:	0402000b 	streq	r0, [r2], #-11
    10d4:	052e0601 	streq	r0, [lr, #-1537]!	; 0xfffff9ff
    10d8:	04020002 	streq	r0, [r2], #-2
    10dc:	05010601 	streq	r0, [r1, #-1537]	; 0xfffff9ff
    10e0:	04020003 	streq	r0, [r2], #-3
    10e4:	052f0603 	streq	r0, [pc, #-1539]!	; ae9 <_start-0x7517>
    10e8:	0402000c 	streq	r0, [r2], #-12
    10ec:	05010603 	streq	r0, [r1, #-1539]	; 0xfffff9fd
    10f0:	0402000a 	streq	r0, [r2], #-10
    10f4:	17052e03 	strne	r2, [r5, -r3, lsl #28]
    10f8:	03040200 	movweq	r0, #16896	; 0x4200
    10fc:	02002d06 	andeq	r2, r0, #384	; 0x180
    1100:	01060304 	tsteq	r6, r4, lsl #6
    1104:	30060205 	andcc	r0, r6, r5, lsl #4
    1108:	01060905 	tsteq	r6, r5, lsl #18
    110c:	0602052e 	streq	r0, [r2], -lr, lsr #10
    1110:	06010530 			; <UNDEFINED> instruction: 0x06010530
    1114:	06560513 			; <UNDEFINED> instruction: 0x06560513
    1118:	05010630 	streq	r0, [r1, #-1584]	; 0xfffff9d0
    111c:	05a00602 	streq	r0, [r0, #1538]!	; 0x602
    1120:	05010604 	streq	r0, [r1, #-1540]	; 0xfffff9fc
    1124:	052f0603 	streq	r0, [pc, #-1539]!	; b29 <_start-0x74d7>
    1128:	05010609 	streq	r0, [r1, #-1545]	; 0xfffff9f7
    112c:	13300602 	teqne	r0, #2097152	; 0x200000
    1130:	01060b05 	tsteq	r6, r5, lsl #22
    1134:	30060205 	andcc	r0, r6, r5, lsl #4
    1138:	04052e06 	streq	r2, [r5], #-3590	; 0xfffff1fa
    113c:	15240206 	strne	r0, [r4, #-518]!	; 0xfffffdfa
    1140:	060f0513 			; <UNDEFINED> instruction: 0x060f0513
    1144:	06052e01 	streq	r2, [r5], -r1, lsl #28
    1148:	0605054a 	streq	r0, [r5], -sl, asr #10
    114c:	0905134b 	stmdbeq	r5, {r0, r1, r3, r6, r8, r9, ip}
    1150:	05050106 	streq	r0, [r5, #-262]	; 0xfffffefa
    1154:	0b052f06 	bleq	14cd74 <__bss_end__+0x142d14>
    1158:	0d051006 	stceq	0, cr1, [r5, #-24]	; 0xffffffe8
    115c:	01040200 	mrseq	r0, R12_usr
    1160:	0004052c 	andeq	r0, r4, ip, lsr #10
    1164:	06010402 	streq	r0, [r1], -r2, lsl #8
    1168:	00050534 	andeq	r0, r5, r4, lsr r5
    116c:	13010402 	movwne	r0, #5122	; 0x1402
    1170:	02001b05 	andeq	r1, r0, #5120	; 0x1400
    1174:	01060104 	tsteq	r6, r4, lsl #2
    1178:	02000705 	andeq	r0, r0, #1310720	; 0x140000
    117c:	05d60104 	ldrbeq	r0, [r6, #260]	; 0x104
    1180:	04020018 	streq	r0, [r2], #-24	; 0xffffffe8
    1184:	0a052e01 	beq	14c990 <__bss_end__+0x142930>
    1188:	01040200 	mrseq	r0, R12_usr
    118c:	000b054a 	andeq	r0, fp, sl, asr #10
    1190:	06010402 	streq	r0, [r1], -r2, lsl #8
    1194:	000e052f 	andeq	r0, lr, pc, lsr #10
    1198:	06010402 	streq	r0, [r1], -r2, lsl #8
    119c:	0004052e 	andeq	r0, r4, lr, lsr #10
    11a0:	2e010402 	cdpcs	4, 0, cr0, cr1, cr2, {0}
    11a4:	06054b06 	streq	r4, [r5], -r6, lsl #22
    11a8:	05050106 	streq	r0, [r5, #-262]	; 0xfffffefa
    11ac:	0a052f06 	beq	14cdcc <__bss_end__+0x142d6c>
    11b0:	07050106 	streq	r0, [r5, -r6, lsl #2]
    11b4:	0d052e4a 	stceq	14, cr2, [r5, #-296]	; 0xfffffed8
    11b8:	4a2e7603 	bmi	b9e9cc <__bss_end__+0xb9496c>
    11bc:	050d0b05 	streq	r0, [sp, #-2821]	; 0xfffff4fb
    11c0:	0402000d 	streq	r0, [r2], #-13
    11c4:	14030601 	strne	r0, [r3], #-1537	; 0xfffff9ff
    11c8:	0011052e 	andseq	r0, r1, lr, lsr #10
    11cc:	13010402 	movwne	r0, #5122	; 0x1402
    11d0:	02002d05 	andeq	r2, r0, #320	; 0x140
    11d4:	01060104 	tsteq	r6, r4, lsl #2
    11d8:	02002a05 	andeq	r2, r0, #20480	; 0x5000
    11dc:	052e0104 	streq	r0, [lr, #-260]!	; 0xfffffefc
    11e0:	04020016 	streq	r0, [r2], #-22	; 0xffffffea
    11e4:	14054a01 	strne	r4, [r5], #-2561	; 0xfffff5ff
    11e8:	01040200 	mrseq	r0, R12_usr
    11ec:	0d054b06 	vstreq	d4, [r5, #-24]	; 0xffffffe8
    11f0:	01040200 	mrseq	r0, R12_usr
    11f4:	02000106 	andeq	r0, r0, #-2147483647	; 0x80000001
    11f8:	064a0104 	strbeq	r0, [sl], -r4, lsl #2
    11fc:	0612052f 	ldreq	r0, [r2], -pc, lsr #10
    1200:	0d054a01 	vstreq	s8, [r5, #-4]
    1204:	12052f06 	andne	r2, r5, #6, 30
    1208:	19050106 	stmdbne	r5, {r1, r2, r8}
    120c:	04054b06 	streq	r4, [r5], #-2822	; 0xfffff4fa
    1210:	02040200 	andeq	r0, r4, #0, 4
    1214:	00011103 	andeq	r1, r1, r3, lsl #2
    1218:	01020402 	tsteq	r2, r2, lsl #8
    121c:	02000205 	andeq	r0, r0, #1342177280	; 0x50000000
    1220:	05150204 	ldreq	r0, [r5, #-516]	; 0xfffffdfc
    1224:	04020009 	streq	r0, [r2], #-9
    1228:	00010602 	andeq	r0, r1, r2, lsl #12
    122c:	4a020402 	bmi	8223c <__bss_end__+0x781dc>
    1230:	02000105 	andeq	r0, r0, #1073741825	; 0x40000001
    1234:	059f0204 	ldreq	r0, [pc, #516]	; 1440 <_start-0x6bc0>
    1238:	6e030604 	cfmadd32vs	mvax0, mvfx0, mvfx3, mvfx4
    123c:	0609054a 	streq	r0, [r9], -sl, asr #10
    1240:	06040501 	streq	r0, [r4], -r1, lsl #10
    1244:	0606052f 	streq	r0, [r6], -pc, lsr #10
    1248:	2f040511 	svccs	0x00040511
    124c:	63030b05 	movwvs	r0, #15109	; 0x3b05
    1250:	0019052e 	andseq	r0, r9, lr, lsr #10
    1254:	06010402 	streq	r0, [r1], -r2, lsl #8
    1258:	052e2403 	streq	r2, [lr, #-1027]!	; 0xfffffbfd
    125c:	0402001a 	streq	r0, [r2], #-26	; 0xffffffe6
    1260:	28051301 	stmdacs	r5, {r0, r8, r9, ip}
    1264:	01040200 	mrseq	r0, R12_usr
    1268:	25050106 	strcs	r0, [r5, #-262]	; 0xfffffefa
    126c:	01040200 	mrseq	r0, R12_usr
    1270:	001f052e 	andseq	r0, pc, lr, lsr #10
    1274:	4a010402 	bmi	42284 <__bss_end__+0x38224>
    1278:	02000b05 	andeq	r0, r0, #5120	; 0x1400
    127c:	4b060104 	blmi	181694 <__bss_end__+0x177634>
    1280:	02000405 	andeq	r0, r0, #83886080	; 0x5000000
    1284:	01060104 	tsteq	r6, r4, lsl #2
    1288:	01040200 	mrseq	r0, R12_usr
    128c:	0402004a 	streq	r0, [r2], #-74	; 0xffffffb6
    1290:	004e0601 	subeq	r0, lr, r1, lsl #12
    1294:	01010402 	tsteq	r1, r2, lsl #8
    1298:	01040200 	mrseq	r0, R12_usr
    129c:	04020001 	streq	r0, [r2], #-1
    12a0:	02000101 	andeq	r0, r0, #1073741824	; 0x40000000
    12a4:	002e0104 	eoreq	r0, lr, r4, lsl #2
    12a8:	9e010402 	cdpls	4, 0, cr0, cr1, cr2, {0}
    12ac:	a8034805 	stmdage	r3, {r0, r2, fp, lr}
    12b0:	0505f27f 	streq	pc, [r5, #-639]	; 0xfffffd81
    12b4:	2e060113 	mcrcs	1, 0, r0, cr6, cr3, {0}
    12b8:	02040200 	andeq	r0, r4, #0, 4
    12bc:	02002e06 	andeq	r2, r0, #6, 28	; 0x60
    12c0:	00010204 	andeq	r0, r1, r4, lsl #4
    12c4:	13020402 	movwne	r0, #9218	; 0x2402
    12c8:	02001105 	andeq	r1, r0, #1073741825	; 0x40000001
    12cc:	01060204 	tsteq	r6, r4, lsl #4
    12d0:	02000505 	andeq	r0, r0, #20971520	; 0x1400000
    12d4:	4b060204 	blmi	181aec <__bss_end__+0x177a8c>
    12d8:	02000705 	andeq	r0, r0, #1310720	; 0x140000
    12dc:	01060204 	tsteq	r6, r4, lsl #4
    12e0:	2f060905 	svccs	0x00060905
    12e4:	01060e05 	tsteq	r6, r5, lsl #28
    12e8:	02004805 	andeq	r4, r0, #327680	; 0x50000
    12ec:	05620104 	strbeq	r0, [r2, #-260]!	; 0xfffffefc
    12f0:	04020005 	streq	r0, [r2], #-5
    12f4:	002f0601 	eoreq	r0, pc, r1, lsl #12
    12f8:	01010402 	tsteq	r1, r2, lsl #8
    12fc:	01040200 	mrseq	r0, R12_usr
    1300:	0402002e 	streq	r0, [r2], #-46	; 0xffffffd2
    1304:	40059e01 	andmi	r9, r5, r1, lsl #28
    1308:	ba00df03 	blt	38f1c <__bss_end__+0x2eebc>
    130c:	02050106 	andeq	r0, r5, #-2147483647	; 0x80000001
    1310:	1e059f06 	cdpne	15, 0, cr9, cr5, cr6, {0}
    1314:	12050106 	andne	r0, r5, #-2147483647	; 0x80000001
    1318:	0602052e 	streq	r0, [r2], -lr, lsr #10
    131c:	06090530 			; <UNDEFINED> instruction: 0x06090530
    1320:	06020501 	streq	r0, [r2], -r1, lsl #10
    1324:	0608054b 	streq	r0, [r8], -fp, asr #10
    1328:	3102050f 	tstcc	r2, pc, lsl #10
    132c:	30060405 	andcc	r0, r6, r5, lsl #8
    1330:	01060f05 	tsteq	r6, r5, lsl #30
    1334:	052e0905 	streq	r0, [lr, #-2309]!	; 0xfffff6fb
    1338:	052c0608 	streq	r0, [ip, #-1544]!	; 0xfffff9f8
    133c:	052e0602 	streq	r0, [lr, #-1538]!	; 0xfffff9fe
    1340:	0402000d 	streq	r0, [r2], #-13
    1344:	03054a01 	movweq	r4, #23041	; 0x5a01
    1348:	05054b06 	streq	r4, [r5, #-2822]	; 0xfffff4fa
    134c:	08050106 	stmdaeq	r5, {r1, r2, r8}
    1350:	0e054d06 	cdpeq	13, 0, cr4, cr5, cr6, {0}
    1354:	0a050106 	beq	141774 <__bss_end__+0x137714>
    1358:	0604052e 	streq	r0, [r4], -lr, lsr #10
    135c:	0609052f 	streq	r0, [r9], -pc, lsr #10
    1360:	06040501 	streq	r0, [r4], -r1, lsl #10
    1364:	0607052f 	streq	r0, [r7], -pc, lsr #10
    1368:	04052e01 	streq	r2, [r5], #-3585	; 0xfffff1ff
    136c:	07053006 	streq	r3, [r5, -r6]
    1370:	04050106 	streq	r0, [r5], #-262	; 0xfffffefa
    1374:	14133006 	ldrne	r3, [r3], #-6
    1378:	10060d05 	andne	r0, r6, r5, lsl #26
    137c:	05300905 	ldreq	r0, [r0, #-2309]!	; 0xfffff6fb
    1380:	052f0605 	streq	r0, [pc, #-1541]!	; d83 <_start-0x727d>
    1384:	05010612 	streq	r0, [r1, #-1554]	; 0xfffff9ee
    1388:	0b052e16 	bleq	14cbe8 <__bss_end__+0x142b88>
    138c:	0605052e 	streq	r0, [r5], -lr, lsr #10
    1390:	0608052f 	streq	r0, [r8], -pc, lsr #10
    1394:	06090501 	streq	r0, [r9], -r1, lsl #10
    1398:	0612052c 	ldreq	r0, [r2], -ip, lsr #10
    139c:	2e0a0501 	cfsh32cs	mvfx0, mvfx10, #1
    13a0:	054a0905 	strbeq	r0, [sl, #-2309]	; 0xfffff6fb
    13a4:	014e0604 	cmpeq	lr, r4, lsl #12
    13a8:	0014014a 	andseq	r0, r4, sl, asr #2
    13ac:	02010402 	andeq	r0, r1, #33554432	; 0x2000000
    13b0:	02001036 	andeq	r1, r0, #54	; 0x36
    13b4:	00010104 	andeq	r0, r1, r4, lsl #2
    13b8:	2e010402 	cdpcs	4, 0, cr0, cr1, cr2, {0}
    13bc:	01040200 	mrseq	r0, R12_usr
    13c0:	3405059e 	strcc	r0, [r5], #-1438	; 0xfffffa62
    13c4:	2e9e2e01 	cdpcs	14, 9, cr2, cr14, cr1, {0}
    13c8:	05010e03 	streq	r0, [r1, #-3587]	; 0xfffff1fd
    13cc:	05010609 	streq	r0, [r1, #-1545]	; 0xfffff9f7
    13d0:	59080605 	stmdbpl	r8, {r0, r2, r9, sl}
    13d4:	15030405 	strne	r0, [r3, #-1029]	; 0xfffffbfb
    13d8:	06070501 	streq	r0, [r7], -r1, lsl #10
    13dc:	06040501 	streq	r0, [r4], -r1, lsl #10
    13e0:	010a0531 	tsteq	sl, r1, lsr r5
    13e4:	01060405 	tsteq	r6, r5, lsl #8
    13e8:	02001305 	andeq	r1, r0, #335544320	; 0x14000000
    13ec:	054a0104 	strbeq	r0, [sl, #-260]	; 0xfffffefc
    13f0:	04020010 	streq	r0, [r2], #-16
    13f4:	05052e01 	streq	r2, [r5, #-3585]	; 0xfffff1ff
    13f8:	0e054b06 	vmlaeq.f64	d4, d5, d6
    13fc:	0a050106 	beq	14181c <__bss_end__+0x1377bc>
    1400:	05052e2e 	streq	r2, [r5, #-3630]	; 0xfffff1d2
    1404:	2e690306 	cdpcs	3, 6, cr0, cr9, cr6, {0}
    1408:	01061c05 	tsteq	r6, r5, lsl #24
    140c:	05820905 	streq	r0, [r2, #2309]	; 0x905
    1410:	31d70605 	bicscc	r0, r7, r5, lsl #12
    1414:	01061c05 	tsteq	r6, r5, lsl #24
    1418:	05820905 	streq	r0, [r2, #2309]	; 0x905
    141c:	30d70605 	sbcscc	r0, r7, r5, lsl #12
    1420:	01061b05 	tsteq	r6, r5, lsl #22
    1424:	05820905 	streq	r0, [r2, #2309]	; 0x905
    1428:	30d70605 	sbcscc	r0, r7, r5, lsl #12
    142c:	01060705 	tsteq	r6, r5, lsl #14
    1430:	83060505 	movwhi	r0, #25861	; 0x6505
    1434:	06090530 			; <UNDEFINED> instruction: 0x06090530
    1438:	06050501 	streq	r0, [r5], -r1, lsl #10
    143c:	01305908 	teqeq	r0, r8, lsl #18
    1440:	2e06d62e 	cfmadd32cs	mvax1, mvfx13, mvfx6, mvfx14
    1444:	03060205 	movweq	r0, #25093	; 0x6205
    1448:	0705010a 	streq	r0, [r5, -sl, lsl #2]
    144c:	02050106 	andeq	r0, r5, #-2147483647	; 0x80000001
    1450:	01054b06 	tsteq	r5, r6, lsl #22
    1454:	02661306 	rsbeq	r1, r6, #402653184	; 0x18000000
    1458:	0101000a 	tsteq	r1, sl
    145c:	000000eb 	andeq	r0, r0, fp, ror #1
    1460:	00d10003 	sbcseq	r0, r1, r3
    1464:	01020000 	mrseq	r0, (UNDEF: 2)
    1468:	000d0efb 	strdeq	r0, [sp], -fp
    146c:	01010101 	tsteq	r1, r1, lsl #2
    1470:	01000000 	mrseq	r0, (UNDEF: 0)
    1474:	73010000 	movwvc	r0, #4096	; 0x1000
    1478:	66666174 			; <UNDEFINED> instruction: 0x66666174
    147c:	6372732d 	cmnvs	r2, #-1275068416	; 0xb4000000
    1480:	73752f00 	cmnvc	r5, #0, 30
    1484:	72612f72 	rsbvc	r2, r1, #456	; 0x1c8
    1488:	6f6e2d6d 	svcvs	0x006e2d6d
    148c:	652d656e 	strvs	r6, [sp, #-1390]!	; 0xfffffa92
    1490:	2f696261 	svccs	0x00696261
    1494:	6c636e69 	stclvs	14, cr6, [r3], #-420	; 0xfffffe5c
    1498:	2f656475 	svccs	0x00656475
    149c:	00737973 	rsbseq	r7, r3, r3, ror r9
    14a0:	7273752f 	rsbsvc	r7, r3, #197132288	; 0xbc00000
    14a4:	62696c2f 	rsbvs	r6, r9, #12032	; 0x2f00
    14a8:	6363672f 	cmnvs	r3, #12320768	; 0xbc0000
    14ac:	6d72612f 	ldfvse	f6, [r2, #-188]!	; 0xffffff44
    14b0:	6e6f6e2d 	cdpvs	14, 6, cr6, cr15, cr13, {1}
    14b4:	61652d65 	cmnvs	r5, r5, ror #26
    14b8:	392f6962 	stmdbcc	pc!, {r1, r5, r6, r8, fp, sp, lr}	; <UNPREDICTABLE>
    14bc:	302e322e 	eorcc	r3, lr, lr, lsr #4
    14c0:	636e692f 	cmnvs	lr, #770048	; 0xbc000
    14c4:	6564756c 	strbvs	r7, [r4, #-1388]!	; 0xfffffa94
    14c8:	6f682f00 	svcvs	0x00682f00
    14cc:	752f656d 	strvc	r6, [pc, #-1389]!	; f67 <_start-0x7099>
    14d0:	2f726573 	svccs	0x00726573
    14d4:	2f766544 	svccs	0x00766544
    14d8:	34325343 	ldrtcc	r5, [r2], #-835	; 0xfffffcbd
    14dc:	6c2f5830 	stcvs	8, cr5, [pc], #-192	; 1424 <_start-0x6bdc>
    14e0:	69706269 	ldmdbvs	r0!, {r0, r3, r5, r6, r9, sp, lr}^
    14e4:	636e692f 	cmnvs	lr, #770048	; 0xbc000
    14e8:	6564756c 	strbvs	r7, [r4, #-1388]!	; 0xfffffa94
    14ec:	6c630000 	stclvs	0, cr0, [r3], #-0
    14f0:	2d6e6165 	stfcse	f6, [lr, #-404]!	; 0xfffffe6c
    14f4:	6f626572 	svcvs	0x00626572
    14f8:	632e746f 			; <UNDEFINED> instruction: 0x632e746f
    14fc:	00000100 	andeq	r0, r0, r0, lsl #2
    1500:	6b636f6c 	blvs	18dd2b8 <__bss_end__+0x18d3258>
    1504:	0200682e 	andeq	r6, r0, #3014656	; 0x2e0000
    1508:	745f0000 	ldrbvc	r0, [pc], #-0	; 1510 <_start-0x6af0>
    150c:	73657079 	cmnvc	r5, #121	; 0x79
    1510:	0200682e 	andeq	r6, r0, #3014656	; 0x2e0000
    1514:	74730000 	ldrbtvc	r0, [r3], #-0
    1518:	66656464 	strbtvs	r6, [r5], -r4, ror #8
    151c:	0300682e 	movweq	r6, #2094	; 0x82e
    1520:	65720000 	ldrbvs	r0, [r2, #-0]!
    1524:	2e746e65 	cdpcs	14, 7, cr6, cr4, cr5, {3}
    1528:	00020068 	andeq	r0, r2, r8, rrx
    152c:	69707200 	ldmdbvs	r0!, {r9, ip, sp, lr}^
    1530:	0400682e 	streq	r6, [r0], #-2094	; 0xfffff7d2
    1534:	05000000 	streq	r0, [r0, #-0]
    1538:	02050019 	andeq	r0, r5, #25
    153c:	000090a8 	andeq	r9, r0, r8, lsr #1
    1540:	2f050515 	svccs	0x00050515
    1544:	06024b83 	streq	r4, [r2], -r3, lsl #23
    1548:	04010100 	streq	r0, [r1], #-256	; 0xffffff00
    154c:	03000001 	movweq	r0, #1
    1550:	0000cb00 	andeq	ip, r0, r0, lsl #22
    1554:	fb010200 	blx	41d5e <__bss_end__+0x37cfe>
    1558:	01000d0e 	tsteq	r0, lr, lsl #26
    155c:	00010101 	andeq	r0, r1, r1, lsl #2
    1560:	00010000 	andeq	r0, r1, r0
    1564:	74730100 	ldrbtvc	r0, [r3], #-256	; 0xffffff00
    1568:	2d666661 	stclcs	6, cr6, [r6, #-388]!	; 0xfffffe7c
    156c:	00637273 	rsbeq	r7, r3, r3, ror r2
    1570:	7273752f 	rsbsvc	r7, r3, #197132288	; 0xbc00000
    1574:	6d72612f 	ldfvse	f6, [r2, #-188]!	; 0xffffff44
    1578:	6e6f6e2d 	cdpvs	14, 6, cr6, cr15, cr13, {1}
    157c:	61652d65 	cmnvs	r5, r5, ror #26
    1580:	692f6962 	stmdbvs	pc!, {r1, r5, r6, r8, fp, sp, lr}	; <UNPREDICTABLE>
    1584:	756c636e 	strbvc	r6, [ip, #-878]!	; 0xfffffc92
    1588:	732f6564 			; <UNDEFINED> instruction: 0x732f6564
    158c:	2f007379 	svccs	0x00007379
    1590:	2f727375 	svccs	0x00727375
    1594:	2f62696c 	svccs	0x0062696c
    1598:	2f636367 	svccs	0x00636367
    159c:	2d6d7261 	sfmcs	f7, 2, [sp, #-388]!	; 0xfffffe7c
    15a0:	656e6f6e 	strbvs	r6, [lr, #-3950]!	; 0xfffff092
    15a4:	6261652d 	rsbvs	r6, r1, #188743680	; 0xb400000
    15a8:	2e392f69 	cdpcs	15, 3, cr2, cr9, cr9, {3}
    15ac:	2f302e32 	svccs	0x00302e32
    15b0:	6c636e69 	stclvs	14, cr6, [r3], #-420	; 0xfffffe5c
    15b4:	00656475 	rsbeq	r6, r5, r5, ror r4
    15b8:	6d6f682f 	stclvs	8, cr6, [pc, #-188]!	; 1504 <_start-0x6afc>
    15bc:	73752f65 	cmnvc	r5, #404	; 0x194
    15c0:	442f7265 	strtmi	r7, [pc], #-613	; 15c8 <_start-0x6a38>
    15c4:	432f7665 			; <UNDEFINED> instruction: 0x432f7665
    15c8:	30343253 	eorscc	r3, r4, r3, asr r2
    15cc:	696c2f58 	stmdbvs	ip!, {r3, r4, r6, r8, r9, sl, fp, sp}^
    15d0:	2f697062 	svccs	0x00697062
    15d4:	6c636e69 	stclvs	14, cr6, [r3], #-420	; 0xfffffe5c
    15d8:	00656475 	rsbeq	r6, r5, r5, ror r4
    15dc:	74736300 	ldrbtvc	r6, [r3], #-768	; 0xfffffd00
    15e0:	2e747261 	cdpcs	2, 7, cr7, cr4, cr1, {3}
    15e4:	00010063 	andeq	r0, r1, r3, rrx
    15e8:	636f6c00 	cmnvs	pc, #0, 24
    15ec:	00682e6b 	rsbeq	r2, r8, fp, ror #28
    15f0:	5f000002 	svcpl	0x00000002
    15f4:	65707974 	ldrbvs	r7, [r0, #-2420]!	; 0xfffff68c
    15f8:	00682e73 	rsbeq	r2, r8, r3, ror lr
    15fc:	73000002 	movwvc	r0, #2
    1600:	65646474 	strbvs	r6, [r4, #-1140]!	; 0xfffffb8c
    1604:	00682e66 	rsbeq	r2, r8, r6, ror #28
    1608:	72000003 	andvc	r0, r0, #3
    160c:	746e6565 	strbtvc	r6, [lr], #-1381	; 0xfffffa9b
    1610:	0200682e 	andeq	r6, r0, #3014656	; 0x2e0000
    1614:	70720000 	rsbsvc	r0, r2, r0
    1618:	00682e69 	rsbeq	r2, r8, r9, ror #28
    161c:	00000004 	andeq	r0, r0, r4
    1620:	05001005 	streq	r1, [r0, #-5]
    1624:	0090d002 	addseq	sp, r0, r2
    1628:	010c0300 	mrseq	r0, LR_mon
    162c:	052f0505 	streq	r0, [pc, #-1285]!	; 112f <_start-0x6ed1>
    1630:	05051302 	streq	r1, [r5, #-770]	; 0xfffffcfe
    1634:	05141314 	ldreq	r1, [r4, #-788]	; 0xfffffcec
    1638:	060f060a 	streq	r0, [pc], -sl, lsl #12
    163c:	4b090531 	blmi	242b08 <__bss_end__+0x238aa8>
    1640:	01061005 	tsteq	r6, r5
    1644:	0605054a 	streq	r0, [r5], -sl, asr #10
    1648:	052e1403 	streq	r1, [lr, #-1027]!	; 0xfffffbfd
    164c:	06022f02 	streq	r2, [r2], -r2, lsl #30
    1650:	38010100 	stmdacc	r1, {r8}
    1654:	03000001 	movweq	r0, #1
    1658:	0000cb00 	andeq	ip, r0, r0, lsl #22
    165c:	fb010200 	blx	41e66 <__bss_end__+0x37e06>
    1660:	01000d0e 	tsteq	r0, lr, lsl #26
    1664:	00010101 	andeq	r0, r1, r1, lsl #2
    1668:	00010000 	andeq	r0, r1, r0
    166c:	74730100 	ldrbtvc	r0, [r3], #-256	; 0xffffff00
    1670:	2d666661 	stclcs	6, cr6, [r6, #-388]!	; 0xfffffe7c
    1674:	00637273 	rsbeq	r7, r3, r3, ror r2
    1678:	7273752f 	rsbsvc	r7, r3, #197132288	; 0xbc00000
    167c:	6d72612f 	ldfvse	f6, [r2, #-188]!	; 0xffffff44
    1680:	6e6f6e2d 	cdpvs	14, 6, cr6, cr15, cr13, {1}
    1684:	61652d65 	cmnvs	r5, r5, ror #26
    1688:	692f6962 	stmdbvs	pc!, {r1, r5, r6, r8, fp, sp, lr}	; <UNPREDICTABLE>
    168c:	756c636e 	strbvc	r6, [ip, #-878]!	; 0xfffffc92
    1690:	732f6564 			; <UNDEFINED> instruction: 0x732f6564
    1694:	2f007379 	svccs	0x00007379
    1698:	2f727375 	svccs	0x00727375
    169c:	2f62696c 	svccs	0x0062696c
    16a0:	2f636367 	svccs	0x00636367
    16a4:	2d6d7261 	sfmcs	f7, 2, [sp, #-388]!	; 0xfffffe7c
    16a8:	656e6f6e 	strbvs	r6, [lr, #-3950]!	; 0xfffff092
    16ac:	6261652d 	rsbvs	r6, r1, #188743680	; 0xb400000
    16b0:	2e392f69 	cdpcs	15, 3, cr2, cr9, cr9, {3}
    16b4:	2f302e32 	svccs	0x00302e32
    16b8:	6c636e69 	stclvs	14, cr6, [r3], #-420	; 0xfffffe5c
    16bc:	00656475 	rsbeq	r6, r5, r5, ror r4
    16c0:	6d6f682f 	stclvs	8, cr6, [pc, #-188]!	; 160c <_start-0x69f4>
    16c4:	73752f65 	cmnvc	r5, #404	; 0x194
    16c8:	442f7265 	strtmi	r7, [pc], #-613	; 16d0 <_start-0x6930>
    16cc:	432f7665 			; <UNDEFINED> instruction: 0x432f7665
    16d0:	30343253 	eorscc	r3, r4, r3, asr r2
    16d4:	696c2f58 	stmdbvs	ip!, {r3, r4, r6, r8, r9, sl, fp, sp}^
    16d8:	2f697062 	svccs	0x00697062
    16dc:	6c636e69 	stclvs	14, cr6, [r3], #-420	; 0xfffffe5c
    16e0:	00656475 	rsbeq	r6, r5, r5, ror r4
    16e4:	62657200 	rsbvs	r7, r5, #0, 4
    16e8:	2e746f6f 	cdpcs	15, 7, cr6, cr4, cr15, {3}
    16ec:	00010063 	andeq	r0, r1, r3, rrx
    16f0:	636f6c00 	cmnvs	pc, #0, 24
    16f4:	00682e6b 	rsbeq	r2, r8, fp, ror #28
    16f8:	5f000002 	svcpl	0x00000002
    16fc:	65707974 	ldrbvs	r7, [r0, #-2420]!	; 0xfffff68c
    1700:	00682e73 	rsbeq	r2, r8, r3, ror lr
    1704:	73000002 	movwvc	r0, #2
    1708:	65646474 	strbvs	r6, [r4, #-1140]!	; 0xfffffb8c
    170c:	00682e66 	rsbeq	r2, r8, r6, ror #28
    1710:	72000003 	andvc	r0, r0, #3
    1714:	746e6565 	strbtvc	r6, [lr], #-1381	; 0xfffffa9b
    1718:	0200682e 	andeq	r6, r0, #3014656	; 0x2e0000
    171c:	70720000 	rsbsvc	r0, r2, r0
    1720:	00682e69 	rsbeq	r2, r8, r9, ror #28
    1724:	00000004 	andeq	r0, r0, r4
    1728:	05001905 	streq	r1, [r0, #-2309]	; 0xfffff6fb
    172c:	0090fc02 	addseq	pc, r0, r2, lsl #24
    1730:	010d0300 	mrseq	r0, SP_mon
    1734:	13130505 	tstne	r3, #20971520	; 0x1400000
    1738:	06130531 			; <UNDEFINED> instruction: 0x06130531
    173c:	2f010501 	svccs	0x00010501
    1740:	85061b05 	strhi	r1, [r6, #-2821]	; 0xfffff4fb
    1744:	14130505 	ldrne	r0, [r3], #-1285	; 0xfffffafb
    1748:	052f0905 	streq	r0, [pc, #-2309]!	; e4b <_start-0x71b5>
    174c:	05010616 	streq	r0, [r1, #-1558]	; 0xfffff9ea
    1750:	05052e0e 	streq	r2, [r5, #-3598]	; 0xfffff1f2
    1754:	01052f06 	tsteq	r5, r6, lsl #30
    1758:	17052f06 	strne	r2, [r5, -r6, lsl #30]
    175c:	05053006 	streq	r3, [r5, #-6]
    1760:	0608052f 	streq	r0, [r8], -pc, lsr #10
    1764:	2e070501 	cfsh32cs	mvfx0, mvfx7, #1
    1768:	52060505 	andpl	r0, r6, #20971520	; 0x1400000
    176c:	1313134c 	tstne	r3, #76, 6	; 0x30000001
    1770:	02006715 	andeq	r6, r0, #5505024	; 0x540000
    1774:	05670104 	strbeq	r0, [r7, #-260]!	; 0xfffffefc
    1778:	0402000d 	streq	r0, [r2], #-13
    177c:	0a050101 	beq	141b88 <__bss_end__+0x137b28>
    1780:	01040200 	mrseq	r0, R12_usr
    1784:	03090501 	movweq	r0, #38145	; 0x9501
    1788:	0c022e6f 	stceq	14, cr2, [r2], {111}	; 0x6f
    178c:	5a010100 	bpl	41b94 <__bss_end__+0x37b34>
    1790:	03000001 	movweq	r0, #1
    1794:	0000ca00 	andeq	ip, r0, r0, lsl #20
    1798:	fb010200 	blx	41fa2 <__bss_end__+0x37f42>
    179c:	01000d0e 	tsteq	r0, lr, lsl #26
    17a0:	00010101 	andeq	r0, r1, r1, lsl #2
    17a4:	00010000 	andeq	r0, r1, r0
    17a8:	74730100 	ldrbtvc	r0, [r3], #-256	; 0xffffff00
    17ac:	2d666661 	stclcs	6, cr6, [r6, #-388]!	; 0xfffffe7c
    17b0:	00637273 	rsbeq	r7, r3, r3, ror r2
    17b4:	7273752f 	rsbsvc	r7, r3, #197132288	; 0xbc00000
    17b8:	6d72612f 	ldfvse	f6, [r2, #-188]!	; 0xffffff44
    17bc:	6e6f6e2d 	cdpvs	14, 6, cr6, cr15, cr13, {1}
    17c0:	61652d65 	cmnvs	r5, r5, ror #26
    17c4:	692f6962 	stmdbvs	pc!, {r1, r5, r6, r8, fp, sp, lr}	; <UNPREDICTABLE>
    17c8:	756c636e 	strbvc	r6, [ip, #-878]!	; 0xfffffc92
    17cc:	732f6564 			; <UNDEFINED> instruction: 0x732f6564
    17d0:	2f007379 	svccs	0x00007379
    17d4:	2f727375 	svccs	0x00727375
    17d8:	2f62696c 	svccs	0x0062696c
    17dc:	2f636367 	svccs	0x00636367
    17e0:	2d6d7261 	sfmcs	f7, 2, [sp, #-388]!	; 0xfffffe7c
    17e4:	656e6f6e 	strbvs	r6, [lr, #-3950]!	; 0xfffff092
    17e8:	6261652d 	rsbvs	r6, r1, #188743680	; 0xb400000
    17ec:	2e392f69 	cdpcs	15, 3, cr2, cr9, cr9, {3}
    17f0:	2f302e32 	svccs	0x00302e32
    17f4:	6c636e69 	stclvs	14, cr6, [r3], #-420	; 0xfffffe5c
    17f8:	00656475 	rsbeq	r6, r5, r5, ror r4
    17fc:	6d6f682f 	stclvs	8, cr6, [pc, #-188]!	; 1748 <_start-0x68b8>
    1800:	73752f65 	cmnvc	r5, #404	; 0x194
    1804:	442f7265 	strtmi	r7, [pc], #-613	; 180c <_start-0x67f4>
    1808:	432f7665 			; <UNDEFINED> instruction: 0x432f7665
    180c:	30343253 	eorscc	r3, r4, r3, asr r2
    1810:	696c2f58 	stmdbvs	ip!, {r3, r4, r6, r8, r9, sl, fp, sp}^
    1814:	2f697062 	svccs	0x00697062
    1818:	6c636e69 	stclvs	14, cr6, [r3], #-420	; 0xfffffe5c
    181c:	00656475 	rsbeq	r6, r5, r5, ror r4
    1820:	6d697400 	cfstrdvs	mvd7, [r9, #-0]
    1824:	632e7265 			; <UNDEFINED> instruction: 0x632e7265
    1828:	00000100 	andeq	r0, r0, r0, lsl #2
    182c:	6b636f6c 	blvs	18dd5e4 <__bss_end__+0x18d3584>
    1830:	0200682e 	andeq	r6, r0, #3014656	; 0x2e0000
    1834:	745f0000 	ldrbvc	r0, [pc], #-0	; 183c <_start-0x67c4>
    1838:	73657079 	cmnvc	r5, #121	; 0x79
    183c:	0200682e 	andeq	r6, r0, #3014656	; 0x2e0000
    1840:	74730000 	ldrbtvc	r0, [r3], #-0
    1844:	66656464 	strbtvs	r6, [r5], -r4, ror #8
    1848:	0300682e 	movweq	r6, #2094	; 0x82e
    184c:	65720000 	ldrbvs	r0, [r2, #-0]!
    1850:	2e746e65 	cdpcs	14, 7, cr6, cr4, cr5, {3}
    1854:	00020068 	andeq	r0, r2, r8, rrx
    1858:	69707200 	ldmdbvs	r0!, {r9, ip, sp, lr}^
    185c:	0400682e 	streq	r6, [r0], #-2094	; 0xfffff7d2
    1860:	05000000 	streq	r0, [r0, #-0]
    1864:	02050023 	andeq	r0, r5, #35	; 0x23
    1868:	00009174 	andeq	r9, r0, r4, ror r1
    186c:	14050516 	strne	r0, [r5], #-1302	; 0xfffffaea
    1870:	05010a05 	streq	r0, [r1, #-2565]	; 0xfffff5fb
    1874:	05010610 	streq	r0, [r1, #-1552]	; 0xfffff9f0
    1878:	09052e0a 	stmdbeq	r5, {r1, r3, r9, sl, fp, sp}
    187c:	10054b06 	andne	r4, r5, r6, lsl #22
    1880:	23052d06 	movwcs	r2, #23814	; 0x5d06
    1884:	4a0a0306 	bmi	2824a4 <__bss_end__+0x278444>
    1888:	052f0505 	streq	r0, [pc, #-1285]!	; 138b <_start-0x6c75>
    188c:	0501060c 	streq	r0, [r1, #-1548]	; 0xfffff9f4
    1890:	1f054b01 	svcne	0x00054b01
    1894:	05054d06 	streq	r4, [r5, #-3334]	; 0xfffff2fa
    1898:	06120532 			; <UNDEFINED> instruction: 0x06120532
    189c:	06050501 	streq	r0, [r5], -r1, lsl #10
    18a0:	06010530 			; <UNDEFINED> instruction: 0x06010530
    18a4:	061c0513 			; <UNDEFINED> instruction: 0x061c0513
    18a8:	05010630 	streq	r0, [r1, #-1584]	; 0xfffff9d0
    18ac:	054b0605 	strbeq	r0, [fp, #-1541]	; 0xfffff9fb
    18b0:	2e010613 	mcrcs	6, 0, r0, cr1, cr3, {0}
    18b4:	2f060505 	svccs	0x00060505
    18b8:	05130905 	ldreq	r0, [r3, #-2309]	; 0xfffff6fb
    18bc:	05010617 	streq	r0, [r1, #-1559]	; 0xfffff9e9
    18c0:	052f0609 	streq	r0, [pc, #-1545]!	; 12bf <_start-0x6d41>
    18c4:	05010611 	streq	r0, [r1, #-1553]	; 0xfffff9ef
    18c8:	1c052e0c 	stcne	14, cr2, [r5], {12}
    18cc:	01066b06 	tsteq	r6, r6, lsl #22
    18d0:	2f060505 	svccs	0x00060505
    18d4:	01054a06 	tsteq	r5, r6, lsl #20
    18d8:	061e054b 	ldreq	r0, [lr], -fp, asr #10
    18dc:	0501062f 	streq	r0, [r1, #-1583]	; 0xfffff9d1
    18e0:	062f0605 	strteq	r0, [pc], -r5, lsl #12
    18e4:	4b01054a 	blmi	42e14 <__bss_end__+0x38db4>
    18e8:	01000202 	tsteq	r0, r2, lsl #4
    18ec:	00014801 	andeq	r4, r1, r1, lsl #16
    18f0:	02000200 	andeq	r0, r0, #0, 4
    18f4:	02000001 	andeq	r0, r0, #1
    18f8:	0d0efb01 	vstreq	d15, [lr, #-4]
    18fc:	01010100 	mrseq	r0, (UNDEF: 17)
    1900:	00000001 	andeq	r0, r0, r1
    1904:	01000001 	tsteq	r0, r1
    1908:	7273752f 	rsbsvc	r7, r3, #197132288	; 0xbc00000
    190c:	636e692f 	cmnvs	lr, #770048	; 0xbc000
    1910:	6564756c 	strbvs	r7, [r4, #-1388]!	; 0xfffffa94
    1914:	77656e2f 	strbvc	r6, [r5, -pc, lsr #28]!
    1918:	2f62696c 	svccs	0x0062696c
    191c:	00737973 	rsbseq	r7, r3, r3, ror r9
    1920:	7273752f 	rsbsvc	r7, r3, #197132288	; 0xbc00000
    1924:	62696c2f 	rsbvs	r6, r9, #12032	; 0x2f00
    1928:	6363672f 	cmnvs	r3, #12320768	; 0xbc0000
    192c:	6d72612f 	ldfvse	f6, [r2, #-188]!	; 0xffffff44
    1930:	6e6f6e2d 	cdpvs	14, 6, cr6, cr15, cr13, {1}
    1934:	61652d65 	cmnvs	r5, r5, ror #26
    1938:	362f6962 	strtcc	r6, [pc], -r2, ror #18
    193c:	312e332e 			; <UNDEFINED> instruction: 0x312e332e
    1940:	636e692f 	cmnvs	lr, #770048	; 0xbc000
    1944:	6564756c 	strbvs	r7, [r4, #-1388]!	; 0xfffffa94
    1948:	6f682f00 	svcvs	0x00682f00
    194c:	652f656d 	strvs	r6, [pc, #-1389]!	; 13e7 <_start-0x6c19>
    1950:	656c676e 	strbvs	r6, [ip, #-1902]!	; 0xfffff892
    1954:	6c632f72 	stclvs	15, cr2, [r3], #-456	; 0xfffffe38
    1958:	2f737361 	svccs	0x00737361
    195c:	34327363 	ldrtcc	r7, [r2], #-867	; 0xfffffc9d
    1960:	2d786c30 	ldclcs	12, cr6, [r8, #-192]!	; 0xffffff40
    1964:	70733032 	rsbsvc	r3, r3, r2, lsr r0
    1968:	6c2f2f72 	stcvs	15, cr2, [pc], #-456	; 17a8 <_start-0x6858>
    196c:	69706269 	ldmdbvs	r0!, {r0, r3, r5, r6, r9, sp, lr}^
    1970:	6f682f00 	svcvs	0x00682f00
    1974:	652f656d 	strvs	r6, [pc, #-1389]!	; 140f <_start-0x6bf1>
    1978:	656c676e 	strbvs	r6, [ip, #-1902]!	; 0xfffff892
    197c:	6c632f72 	stclvs	15, cr2, [r3], #-456	; 0xfffffe38
    1980:	2f737361 	svccs	0x00737361
    1984:	34327363 	ldrtcc	r7, [r2], #-867	; 0xfffffc9d
    1988:	2d786c30 	ldclcs	12, cr6, [r8, #-192]!	; 0xffffff40
    198c:	70733032 	rsbsvc	r3, r3, r2, lsr r0
    1990:	6c2f2f72 	stcvs	15, cr2, [pc], #-456	; 17d0 <_start-0x6830>
    1994:	69706269 	ldmdbvs	r0!, {r0, r3, r5, r6, r9, sp, lr}^
    1998:	6174732f 	cmnvs	r4, pc, lsr #6
    199c:	732d6666 			; <UNDEFINED> instruction: 0x732d6666
    19a0:	00006372 	andeq	r6, r0, r2, ror r3
    19a4:	74726175 	ldrbtvc	r6, [r2], #-373	; 0xfffffe8b
    19a8:	0000632e 	andeq	r6, r0, lr, lsr #6
    19ac:	6f6c0000 	svcvs	0x006c0000
    19b0:	682e6b63 	stmdavs	lr!, {r0, r1, r5, r6, r8, r9, fp, sp, lr}
    19b4:	00000100 	andeq	r0, r0, r0, lsl #2
    19b8:	7079745f 	rsbsvc	r7, r9, pc, asr r4
    19bc:	682e7365 	stmdavs	lr!, {r0, r2, r5, r6, r8, r9, ip, sp, lr}
    19c0:	00000100 	andeq	r0, r0, r0, lsl #2
    19c4:	64647473 	strbtvs	r7, [r4], #-1139	; 0xfffffb8d
    19c8:	682e6665 	stmdavs	lr!, {r0, r2, r5, r6, r9, sl, sp, lr}
    19cc:	00000200 	andeq	r0, r0, r0, lsl #4
    19d0:	6e656572 	mcrvs	5, 3, r6, cr5, cr2, {3}
    19d4:	00682e74 	rsbeq	r2, r8, r4, ror lr
    19d8:	72000001 	andvc	r0, r0, #1
    19dc:	682e6970 	stmdavs	lr!, {r4, r5, r6, r8, fp, sp, lr}
    19e0:	00000300 	andeq	r0, r0, r0, lsl #6
    19e4:	74726175 	ldrbtvc	r6, [r2], #-373	; 0xfffffe8b
    19e8:	0400682e 	streq	r6, [r0], #-2094	; 0xfffff7d2
    19ec:	70670000 	rsbvc	r0, r7, r0
    19f0:	682e6f69 	stmdavs	lr!, {r0, r3, r5, r6, r8, r9, sl, fp, sp, lr}
    19f4:	00000400 	andeq	r0, r0, r0, lsl #8
    19f8:	02050000 	andeq	r0, r5, #0
    19fc:	0000924c 	andeq	r9, r0, ip, asr #4
    1a00:	67012c03 	strvs	r2, [r1, -r3, lsl #24]
    1a04:	359e0c03 	ldrcc	r0, [lr, #3075]	; 0xc03
    1a08:	68356867 	ldmdavs	r5!, {r0, r1, r2, r5, r6, fp, sp, lr}
    1a0c:	852e0c03 	strhi	r0, [lr, #-3075]!	; 0xfffff3fd
    1a10:	0369696b 	cmneq	r9, #1753088	; 0x1ac000
    1a14:	676b660c 	strbvs	r6, [fp, -ip, lsl #12]!
    1a18:	68344208 	ldmdavs	r4!, {r3, r9, lr}
    1a1c:	8768364b 	strbhi	r3, [r8, -fp, asr #12]!
    1a20:	0402002f 	streq	r0, [r2], #-47	; 0xffffffd1
    1a24:	67682f01 	strbvs	r2, [r8, -r1, lsl #30]!
    1a28:	004b6730 	subeq	r6, fp, r0, lsr r7
    1a2c:	2f010402 	svccs	0x00010402
    1a30:	2e696768 	cdpcs	7, 6, cr6, cr9, cr8, {3}
    1a34:	01000602 	tsteq	r0, r2, lsl #12
    1a38:	00012b01 	andeq	r2, r1, r1, lsl #22
    1a3c:	f8000200 			; <UNDEFINED> instruction: 0xf8000200
    1a40:	02000000 	andeq	r0, r0, #0
    1a44:	0d0efb01 	vstreq	d15, [lr, #-4]
    1a48:	01010100 	mrseq	r0, (UNDEF: 17)
    1a4c:	00000001 	andeq	r0, r0, r1
    1a50:	01000001 	tsteq	r0, r1
    1a54:	7273752f 	rsbsvc	r7, r3, #197132288	; 0xbc00000
    1a58:	636e692f 	cmnvs	lr, #770048	; 0xbc000
    1a5c:	6564756c 	strbvs	r7, [r4, #-1388]!	; 0xfffffa94
    1a60:	77656e2f 	strbvc	r6, [r5, -pc, lsr #28]!
    1a64:	2f62696c 	svccs	0x0062696c
    1a68:	00737973 	rsbseq	r7, r3, r3, ror r9
    1a6c:	7273752f 	rsbsvc	r7, r3, #197132288	; 0xbc00000
    1a70:	62696c2f 	rsbvs	r6, r9, #12032	; 0x2f00
    1a74:	6363672f 	cmnvs	r3, #12320768	; 0xbc0000
    1a78:	6d72612f 	ldfvse	f6, [r2, #-188]!	; 0xffffff44
    1a7c:	6e6f6e2d 	cdpvs	14, 6, cr6, cr15, cr13, {1}
    1a80:	61652d65 	cmnvs	r5, r5, ror #26
    1a84:	362f6962 	strtcc	r6, [pc], -r2, ror #18
    1a88:	312e332e 			; <UNDEFINED> instruction: 0x312e332e
    1a8c:	636e692f 	cmnvs	lr, #770048	; 0xbc000
    1a90:	6564756c 	strbvs	r7, [r4, #-1388]!	; 0xfffffa94
    1a94:	6f682f00 	svcvs	0x00682f00
    1a98:	652f656d 	strvs	r6, [pc, #-1389]!	; 1533 <_start-0x6acd>
    1a9c:	656c676e 	strbvs	r6, [ip, #-1902]!	; 0xfffff892
    1aa0:	6c632f72 	stclvs	15, cr2, [r3], #-456	; 0xfffffe38
    1aa4:	2f737361 	svccs	0x00737361
    1aa8:	34327363 	ldrtcc	r7, [r2], #-867	; 0xfffffc9d
    1aac:	2d786c30 	ldclcs	12, cr6, [r8, #-192]!	; 0xffffff40
    1ab0:	70733032 	rsbsvc	r3, r3, r2, lsr r0
    1ab4:	6c2f2f72 	stcvs	15, cr2, [pc], #-456	; 18f4 <_start-0x670c>
    1ab8:	69706269 	ldmdbvs	r0!, {r0, r3, r5, r6, r9, sp, lr}^
    1abc:	6f682f00 	svcvs	0x00682f00
    1ac0:	652f656d 	strvs	r6, [pc, #-1389]!	; 155b <_start-0x6aa5>
    1ac4:	656c676e 	strbvs	r6, [ip, #-1902]!	; 0xfffff892
    1ac8:	6c632f72 	stclvs	15, cr2, [r3], #-456	; 0xfffffe38
    1acc:	2f737361 	svccs	0x00737361
    1ad0:	34327363 	ldrtcc	r7, [r2], #-867	; 0xfffffc9d
    1ad4:	2d786c30 	ldclcs	12, cr6, [r8, #-192]!	; 0xffffff40
    1ad8:	70733032 	rsbsvc	r3, r3, r2, lsr r0
    1adc:	6c2f2f72 	stcvs	15, cr2, [pc], #-456	; 191c <_start-0x66e4>
    1ae0:	69706269 	ldmdbvs	r0!, {r0, r3, r5, r6, r9, sp, lr}^
    1ae4:	6174732f 	cmnvs	r4, pc, lsr #6
    1ae8:	732d6666 			; <UNDEFINED> instruction: 0x732d6666
    1aec:	00006372 	andeq	r6, r0, r2, ror r3
    1af0:	6f697067 	svcvs	0x00697067
    1af4:	0000632e 	andeq	r6, r0, lr, lsr #6
    1af8:	6f6c0000 	svcvs	0x006c0000
    1afc:	682e6b63 	stmdavs	lr!, {r0, r1, r5, r6, r8, r9, fp, sp, lr}
    1b00:	00000100 	andeq	r0, r0, r0, lsl #2
    1b04:	7079745f 	rsbsvc	r7, r9, pc, asr r4
    1b08:	682e7365 	stmdavs	lr!, {r0, r2, r5, r6, r8, r9, ip, sp, lr}
    1b0c:	00000100 	andeq	r0, r0, r0, lsl #2
    1b10:	64647473 	strbtvs	r7, [r4], #-1139	; 0xfffffb8d
    1b14:	682e6665 	stmdavs	lr!, {r0, r2, r5, r6, r9, sl, sp, lr}
    1b18:	00000200 	andeq	r0, r0, r0, lsl #4
    1b1c:	6e656572 	mcrvs	5, 3, r6, cr5, cr2, {3}
    1b20:	00682e74 	rsbeq	r2, r8, r4, ror lr
    1b24:	72000001 	andvc	r0, r0, #1
    1b28:	682e6970 	stmdavs	lr!, {r4, r5, r6, r8, fp, sp, lr}
    1b2c:	00000300 	andeq	r0, r0, r0, lsl #6
    1b30:	6f697067 	svcvs	0x00697067
    1b34:	0400682e 	streq	r6, [r0], #-2094	; 0xfffff7d2
    1b38:	00000000 	andeq	r0, r0, r0
    1b3c:	93c40205 	bicls	r0, r4, #1342177280	; 0x50000000
    1b40:	27030000 	strcs	r0, [r3, -r0]
    1b44:	474c1301 	strbmi	r1, [ip, -r1, lsl #6]
    1b48:	4b68f44f 	blmi	1a3ec8c <__bss_end__+0x1a34c2c>
    1b4c:	6a2fa14c 	bvs	bea084 <__bss_end__+0xbe0024>
    1b50:	be314913 			; <UNDEFINED> instruction: 0xbe314913
    1b54:	be314913 			; <UNDEFINED> instruction: 0xbe314913
    1b58:	4d2f6a2f 	vstmdbmi	pc!, {s12-s58}
    1b5c:	49134f48 	ldmdbmi	r3, {r3, r6, r8, r9, sl, fp, lr}
    1b60:	02b72f32 	adcseq	r2, r7, #50, 30	; 0xc8
    1b64:	01010006 	tsteq	r1, r6
    1b68:	00000134 	andeq	r0, r0, r4, lsr r1
    1b6c:	00df0002 	sbcseq	r0, pc, r2
    1b70:	01020000 	mrseq	r0, (UNDEF: 2)
    1b74:	000d0efb 	strdeq	r0, [sp], -fp
    1b78:	01010101 	tsteq	r1, r1, lsl #2
    1b7c:	01000000 	mrseq	r0, (UNDEF: 0)
    1b80:	2f010000 	svccs	0x00010000
    1b84:	2f727375 	svccs	0x00727375
    1b88:	6c636e69 	stclvs	14, cr6, [r3], #-420	; 0xfffffe5c
    1b8c:	2f656475 	svccs	0x00656475
    1b90:	6c77656e 	cfldr64vs	mvdx6, [r7], #-440	; 0xfffffe48
    1b94:	732f6269 			; <UNDEFINED> instruction: 0x732f6269
    1b98:	2f007379 	svccs	0x00007379
    1b9c:	2f727375 	svccs	0x00727375
    1ba0:	2f62696c 	svccs	0x0062696c
    1ba4:	2f636367 	svccs	0x00636367
    1ba8:	2d6d7261 	sfmcs	f7, 2, [sp, #-388]!	; 0xfffffe7c
    1bac:	656e6f6e 	strbvs	r6, [lr, #-3950]!	; 0xfffff092
    1bb0:	6261652d 	rsbvs	r6, r1, #188743680	; 0xb400000
    1bb4:	2e362f69 	cdpcs	15, 3, cr2, cr6, cr9, {3}
    1bb8:	2f312e33 	svccs	0x00312e33
    1bbc:	6c636e69 	stclvs	14, cr6, [r3], #-420	; 0xfffffe5c
    1bc0:	00656475 	rsbeq	r6, r5, r5, ror r4
    1bc4:	6d6f682f 	stclvs	8, cr6, [pc, #-188]!	; 1b10 <_start-0x64f0>
    1bc8:	6e652f65 	cdpvs	15, 6, cr2, cr5, cr5, {3}
    1bcc:	72656c67 	rsbvc	r6, r5, #26368	; 0x6700
    1bd0:	616c632f 	cmnvs	ip, pc, lsr #6
    1bd4:	632f7373 			; <UNDEFINED> instruction: 0x632f7373
    1bd8:	30343273 	eorscc	r3, r4, r3, ror r2
    1bdc:	322d786c 	eorcc	r7, sp, #108, 16	; 0x6c0000
    1be0:	72707330 	rsbsvc	r7, r0, #48, 6	; 0xc0000000
    1be4:	696c2f2f 	stmdbvs	ip!, {r0, r1, r2, r3, r5, r8, r9, sl, fp, sp}^
    1be8:	00697062 	rsbeq	r7, r9, r2, rrx
    1bec:	7273752f 	rsbsvc	r7, r3, #197132288	; 0xbc00000
    1bf0:	636e692f 	cmnvs	lr, #770048	; 0xbc000
    1bf4:	6564756c 	strbvs	r7, [r4, #-1388]!	; 0xfffffa94
    1bf8:	77656e2f 	strbvc	r6, [r5, -pc, lsr #28]!
    1bfc:	0062696c 	rsbeq	r6, r2, ip, ror #18
    1c00:	616d6b00 	cmnvs	sp, r0, lsl #22
    1c04:	636f6c6c 	cmnvs	pc, #108, 24	; 0x6c00
    1c08:	0000632e 	andeq	r6, r0, lr, lsr #6
    1c0c:	6f6c0000 	svcvs	0x006c0000
    1c10:	682e6b63 	stmdavs	lr!, {r0, r1, r5, r6, r8, r9, fp, sp, lr}
    1c14:	00000100 	andeq	r0, r0, r0, lsl #2
    1c18:	7079745f 	rsbsvc	r7, r9, pc, asr r4
    1c1c:	682e7365 	stmdavs	lr!, {r0, r2, r5, r6, r8, r9, ip, sp, lr}
    1c20:	00000100 	andeq	r0, r0, r0, lsl #2
    1c24:	64647473 	strbtvs	r7, [r4], #-1139	; 0xfffffb8d
    1c28:	682e6665 	stmdavs	lr!, {r0, r2, r5, r6, r9, sl, sp, lr}
    1c2c:	00000200 	andeq	r0, r0, r0, lsl #4
    1c30:	6e656572 	mcrvs	5, 3, r6, cr5, cr2, {3}
    1c34:	00682e74 	rsbeq	r2, r8, r4, ror lr
    1c38:	72000001 	andvc	r0, r0, #1
    1c3c:	682e6970 	stmdavs	lr!, {r4, r5, r6, r8, fp, sp, lr}
    1c40:	00000300 	andeq	r0, r0, r0, lsl #6
    1c44:	69727473 	ldmdbvs	r2!, {r0, r1, r4, r5, r6, sl, ip, sp, lr}^
    1c48:	682e676e 	stmdavs	lr!, {r1, r2, r3, r5, r6, r8, r9, sl, sp, lr}
    1c4c:	00000400 	andeq	r0, r0, r0, lsl #8
    1c50:	02050000 	andeq	r0, r5, #0
    1c54:	000094e4 	andeq	r9, r0, r4, ror #9
    1c58:	01011003 	tsteq	r1, r3
    1c5c:	14680183 	strbtne	r0, [r8], #-387	; 0xfffffe7d
    1c60:	04020083 	streq	r0, [r2], #-131	; 0xffffff7d
    1c64:	02007f01 	andeq	r7, r0, #1, 30
    1c68:	08300104 	ldmdaeq	r0!, {r2, r8}
    1c6c:	4c4b2f5c 	mcrrmi	15, 5, r2, fp, cr12
    1c70:	00684b4b 	rsbeq	r4, r8, fp, asr #22
    1c74:	03010402 	movweq	r0, #5122	; 0x1402
    1c78:	09034a79 	stmdbeq	r3, {r0, r3, r4, r5, r6, r9, fp, lr}
    1c7c:	012f5808 			; <UNDEFINED> instruction: 0x012f5808
    1c80:	6a2f4e2e 	bvs	bd5540 <__bss_end__+0xbcb4e0>
    1c84:	4c67674b 	stclmi	7, cr6, [r7], #-300	; 0xfffffed4
    1c88:	0402002f 	streq	r0, [r2], #-47	; 0xffffffd1
    1c8c:	2e760301 	cdpcs	3, 7, cr0, cr6, cr1, {0}
    1c90:	01040200 	mrseq	r0, R12_usr
    1c94:	2f7a08dc 	svccs	0x007a08dc
    1c98:	02019f01 	andeq	r9, r1, #1, 30
    1c9c:	01010008 	tsteq	r1, r8

Disassembly of section .debug_str:

00000000 <.debug_str>:
   0:	6f73645f 	svcvs	0x0073645f
   4:	6e61685f 	mcrvs	8, 3, r6, cr1, cr15, {2}
   8:	00656c64 	rsbeq	r6, r5, r4, ror #24
   c:	685f6b63 	ldmdavs	pc, {r0, r1, r5, r6, r8, r9, fp, sp, lr}^	; <UNPREDICTABLE>
  10:	5f706165 	svcpl	0x00706165
  14:	6f727265 	svcvs	0x00727265
  18:	5f007372 	svcpl	0x00007372
  1c:	657a6973 	ldrbvs	r6, [sl, #-2419]!	; 0xfffff68d
  20:	61725f00 	cmnvs	r2, r0, lsl #30
  24:	3834646e 	ldmdacc	r4!, {r1, r2, r3, r5, r6, sl, sp, lr}
  28:	6d655f00 	stclvs	15, cr5, [r5, #-0]
  2c:	65677265 	strbvs	r7, [r7, #-613]!	; 0xfffffd9b
  30:	0079636e 	rsbseq	r6, r9, lr, ror #6
  34:	6d746f6e 	ldclvs	15, cr6, [r4, #-440]!	; 0xfffffe48
  38:	006e6961 	rsbeq	r6, lr, r1, ror #18
  3c:	7263775f 	rsbvc	r7, r3, #24903680	; 0x17c0000
  40:	626d6f74 	rsbvs	r6, sp, #116, 30	; 0x1d0
  44:	6174735f 	cmnvs	r4, pc, asr r3
  48:	5f006574 	svcpl	0x00006574
  4c:	72736377 	rsbsvc	r6, r3, #-603979775	; 0xdc000001
  50:	626d6f74 	rsbvs	r6, sp, #116, 30	; 0x1d0
  54:	74735f73 	ldrbtvc	r5, [r3], #-3955	; 0xfffff08d
  58:	00657461 	rsbeq	r7, r5, r1, ror #8
  5c:	676e6f6c 	strbvs	r6, [lr, -ip, ror #30]!
  60:	6e6f6c20 	cdpvs	12, 6, cr6, cr15, cr0, {1}
  64:	6e752067 	cdpvs	0, 7, cr2, cr5, cr7, {3}
  68:	6e676973 			; <UNDEFINED> instruction: 0x6e676973
  6c:	69206465 	stmdbvs	r0!, {r0, r2, r5, r6, sl, sp, lr}
  70:	6300746e 	movwvs	r7, #1134	; 0x46e
  74:	6c6c616b 	stfvse	f6, [ip], #-428	; 0xfffffe54
  78:	5f00636f 	svcpl	0x0000636f
  7c:	7366626c 	cmnvc	r6, #108, 4	; 0xc0000006
  80:	00657a69 	rsbeq	r7, r5, r9, ror #20
  84:	6f6c5f5f 	svcvs	0x006c5f5f
  88:	656c6163 	strbvs	r6, [ip, #-355]!	; 0xfffffe9d
  8c:	5f00745f 	svcpl	0x0000745f
  90:	7472626d 	ldrbtvc	r6, [r2], #-621	; 0xfffffd93
  94:	5f63776f 	svcpl	0x0063776f
  98:	74617473 	strbtvc	r7, [r1], #-1139	; 0xfffffb8d
  9c:	5f5f0065 	svcpl	0x005f0065
  a0:	735f6d74 	cmpvc	pc, #116, 26	; 0x1d00
  a4:	6c006365 	stcvs	3, cr6, [r0], {101}	; 0x65
  a8:	20676e6f 	rsbcs	r6, r7, pc, ror #28
  ac:	676e6f6c 	strbvs	r6, [lr, -ip, ror #30]!
  b0:	746e6920 	strbtvc	r6, [lr], #-2336	; 0xfffff6e0
  b4:	62755f00 	rsbsvs	r5, r5, #0, 30
  b8:	5f006675 	svcpl	0x00006675
  bc:	65736162 	ldrbvs	r6, [r3, #-354]!	; 0xfffffe9e
  c0:	745f5f00 	ldrbvc	r5, [pc], #-3840	; c8 <_start-0x7f38>
  c4:	6f685f6d 	svcvs	0x00685f6d
  c8:	2f007275 	svccs	0x00007275
  cc:	656d6f68 	strbvs	r6, [sp, #-3944]!	; 0xfffff098
  d0:	6573752f 	ldrbvs	r7, [r3, #-1327]!	; 0xfffffad1
  d4:	65442f72 	strbvs	r2, [r4, #-3954]	; 0xfffff08e
  d8:	53432f76 	movtpl	r2, #16246	; 0x3f76
  dc:	58303432 	ldmdapl	r0!, {r1, r4, r5, sl, ip, sp}
  e0:	62616c2f 	rsbvs	r6, r1, #12032	; 0x2f00
  e4:	30312f73 	eorscc	r2, r1, r3, ror pc
  e8:	6d656d2d 	stclvs	13, cr6, [r5, #-180]!	; 0xffffff4c
  ec:	63656863 	cmnvs	r5, #6488064	; 0x630000
  f0:	74732d6b 	ldrbtvc	r2, [r3], #-3435	; 0xfffff295
  f4:	632f7461 			; <UNDEFINED> instruction: 0x632f7461
  f8:	0065646f 	rsbeq	r6, r5, pc, ror #8
  fc:	66735f5f 	uhsaxvs	r5, r3, pc	; <UNPREDICTABLE>
 100:	6e6f5f00 	cdpvs	15, 6, cr5, cr15, cr0, {0}
 104:	6978655f 	ldmdbvs	r8!, {r0, r1, r2, r3, r4, r6, r8, sl, sp, lr}^
 108:	72615f74 	rsbvc	r5, r1, #116, 30	; 0x1d0
 10c:	5f007367 	svcpl	0x00007367
 110:	6b6f6f63 	blvs	1bdbea4 <__bss_end__+0x1bd1e44>
 114:	5f006569 	svcpl	0x00006569
 118:	6c67735f 	stclvs	3, cr7, [r7], #-380	; 0xfffffe84
 11c:	5f006575 	svcpl	0x00006575
 120:	67616c66 	strbvs	r6, [r1, -r6, ror #24]!
 124:	695f0073 	ldmdbvs	pc, {r0, r1, r4, r5, r6}^	; <UNPREDICTABLE>
 128:	78635f73 	stmdavc	r3!, {r0, r1, r4, r5, r6, r8, r9, sl, fp, ip, lr}^
 12c:	735f0061 	cmpvc	pc, #97	; 0x61
 130:	6e696474 	mcrvs	4, 3, r6, cr9, cr4, {3}
 134:	5f6b6300 	svcpl	0x006b6300
 138:	74696e69 	strbtvc	r6, [r9], #-3689	; 0xfffff197
 13c:	6c625f00 	stclvs	15, cr5, [r2], #-0
 140:	7a69736b 	bvc	1a5cef4 <__bss_end__+0x1a52e94>
 144:	635f0065 	cmpvs	pc, #101	; 0x65
 148:	75627476 	strbvc	r7, [r2, #-1142]!	; 0xfffffb8a
 14c:	6f5f0066 	svcvs	0x005f0066
 150:	65736666 	ldrbvs	r6, [r3, #-1638]!	; 0xfffff99a
 154:	6d6b0074 	stclvs	0, cr0, [fp, #-464]!	; 0xfffffe30
 158:	6f6c6c61 	svcvs	0x006c6c61
 15c:	6e695f63 	cdpvs	15, 6, cr5, cr9, cr3, {3}
 160:	735f7469 	cmpvc	pc, #1761607680	; 0x69000000
 164:	735f7465 	cmpvc	pc, #1694498816	; 0x65000000
 168:	74726174 	ldrbtvc	r6, [r2], #-372	; 0xfffffe8c
 16c:	626d5f00 	rsbvs	r5, sp, #0, 30
 170:	6f747273 	svcvs	0x00747273
 174:	5f736377 	svcpl	0x00736377
 178:	74617473 	strbtvc	r7, [r1], #-1139	; 0xfffffb8d
 17c:	6d5f0065 	ldclvs	0, cr0, [pc, #-404]	; fffffff0 <__bss_end__+0xffff5f90>
 180:	656c7262 	strbvs	r7, [ip, #-610]!	; 0xfffffd9e
 184:	74735f6e 	ldrbtvc	r5, [r3], #-3950	; 0xfffff092
 188:	00657461 	rsbeq	r7, r5, r1, ror #8
 18c:	616e665f 	cmnvs	lr, pc, asr r6
 190:	00736772 	rsbseq	r6, r3, r2, ror r7
 194:	736e665f 	cmnvc	lr, #99614720	; 0x5f00000
 198:	69735f00 	ldmdbvs	r3!, {r8, r9, sl, fp, ip, lr}^
 19c:	5f006e67 	svcpl	0x00006e67
 1a0:	636f6c66 	cmnvs	pc, #26112	; 0x6600
 1a4:	00745f6b 	rsbseq	r5, r4, fp, ror #30
 1a8:	6474735f 	ldrbtvs	r7, [r4], #-863	; 0xfffffca1
 1ac:	00727265 	rsbseq	r7, r2, r5, ror #4
 1b0:	6769425f 			; <UNDEFINED> instruction: 0x6769425f
 1b4:	00746e69 	rsbseq	r6, r4, r9, ror #28
 1b8:	6d61675f 	stclvs	7, cr6, [r1, #-380]!	; 0xfffffe84
 1bc:	735f616d 	cmpvc	pc, #1073741851	; 0x4000001b
 1c0:	676e6769 	strbvs	r6, [lr, -r9, ror #14]!
 1c4:	5f006d61 	svcpl	0x00006d61
 1c8:	75736572 	ldrbvc	r6, [r3, #-1394]!	; 0xfffffa8e
 1cc:	6b5f746c 	blvs	17dd384 <__bss_end__+0x17d3324>
 1d0:	69707200 	ldmdbvs	r0!, {r9, ip, sp, lr}^
 1d4:	7475705f 	ldrbtvc	r7, [r5], #-95	; 0xffffffa1
 1d8:	72616863 	rsbvc	r6, r1, #6488064	; 0x630000
 1dc:	745f5f00 	ldrbvc	r5, [pc], #-3840	; 1e4 <_start-0x7e1c>
 1e0:	5f5f006d 	svcpl	0x005f006d
 1e4:	62686377 	rsbvs	r6, r8, #-603979775	; 0xdc000001
 1e8:	69707200 	ldmdbvs	r0!, {r9, ip, sp, lr}^
 1ec:	7365725f 	cmnvc	r5, #-268435451	; 0xf0000005
 1f0:	705f7465 	subsvc	r7, pc, r5, ror #8
 1f4:	00637475 	rsbeq	r7, r3, r5, ror r4
 1f8:	6474735f 	ldrbtvs	r7, [r4], #-863	; 0xfffffca1
 1fc:	0074756f 	rsbseq	r7, r4, pc, ror #10
 200:	7476635f 	ldrbtvc	r6, [r6], #-863	; 0xfffffca1
 204:	006e656c 	rsbeq	r6, lr, ip, ror #10
 208:	6c69665f 	stclvs	6, cr6, [r9], #-380	; 0xfffffe84
 20c:	5f5f0065 	svcpl	0x005f0065
 210:	434e5546 	movtmi	r5, #58694	; 0xe546
 214:	4e4f4954 			; <UNDEFINED> instruction: 0x4e4f4954
 218:	5f005f5f 	svcpl	0x00005f5f
 21c:	626f696e 	rsbvs	r6, pc, #1802240	; 0x1b8000
 220:	68730073 	ldmdavs	r3!, {r0, r1, r4, r5, r6}^
 224:	2074726f 	rsbscs	r7, r4, pc, ror #4
 228:	69736e75 	ldmdbvs	r3!, {r0, r2, r4, r5, r6, r9, sl, fp, sp, lr}^
 22c:	64656e67 	strbtvs	r6, [r5], #-3687	; 0xfffff199
 230:	746e6920 	strbtvc	r6, [lr], #-2336	; 0xfffff6e0
 234:	72617000 	rsbvc	r7, r1, #0
 238:	742d3174 	strtvc	r3, [sp], #-372	; 0xfffffe8c
 23c:	31747365 	cmncc	r4, r5, ror #6
 240:	5f00632e 	svcpl	0x0000632e
 244:	78657461 	stmdavc	r5!, {r0, r5, r6, sl, ip, sp, lr}^
 248:	00307469 	eorseq	r7, r0, r9, ror #8
 24c:	6769735f 			; <UNDEFINED> instruction: 0x6769735f
 250:	5f6c616e 	svcpl	0x006c616e
 254:	00667562 	rsbeq	r7, r6, r2, ror #10
 258:	6373615f 	cmnvs	r3, #-1073741801	; 0xc0000017
 25c:	656d6974 	strbvs	r6, [sp, #-2420]!	; 0xfffff68c
 260:	6675625f 			; <UNDEFINED> instruction: 0x6675625f
 264:	65725f00 	ldrbvs	r5, [r2, #-3840]!	; 0xfffff100
 268:	746c7573 	strbtvc	r7, [ip], #-1395	; 0xfffffa8d
 26c:	775f5f00 	ldrbvc	r5, [pc, -r0, lsl #30]
 270:	5f006863 	svcpl	0x00006863
 274:	4b434f4c 	blmi	10d3fac <__bss_end__+0x10c9f4c>
 278:	7700545f 	smlsdvc	r0, pc, r4, r5	; <UNPREDICTABLE>
 27c:	5f746e69 	svcpl	0x00746e69
 280:	6b630074 	blvs	18c0458 <__bss_end__+0x18b63f8>
 284:	65657266 	strbvs	r7, [r5, #-614]!	; 0xfffffd9a
 288:	6c665f00 	stclvs	15, cr5, [r6], #-0
 28c:	32736761 	rsbscc	r6, r3, #25427968	; 0x1840000
 290:	745f5f00 	ldrbvc	r5, [pc], #-3840	; 298 <_start-0x7d68>
 294:	65795f6d 	ldrbvs	r5, [r9, #-3949]!	; 0xfffff093
 298:	63007261 	movwvs	r7, #609	; 0x261
 29c:	6e61656c 	cdpvs	5, 6, cr6, cr1, cr12, {3}
 2a0:	6265725f 	rsbvs	r7, r5, #-268435451	; 0xf0000005
 2a4:	00746f6f 	rsbseq	r6, r4, pc, ror #30
 2a8:	78656e5f 	stmdavc	r5!, {r0, r1, r2, r3, r4, r6, r9, sl, fp, sp, lr}^
 2ac:	5f006674 	svcpl	0x00006674
 2b0:	5f6d745f 	svcpl	0x006d745f
 2b4:	006e6f6d 	rsbeq	r6, lr, sp, ror #30
 2b8:	6574615f 	ldrbvs	r6, [r4, #-351]!	; 0xfffffea1
 2bc:	00746978 	rsbseq	r6, r4, r8, ror r9
 2c0:	64735f5f 	ldrbtvs	r5, [r3], #-3935	; 0xfffff0a1
 2c4:	6e696469 	cdpvs	4, 6, cr6, cr9, cr9, {3}
 2c8:	5f007469 	svcpl	0x00007469
 2cc:	5f66666f 	svcpl	0x0066666f
 2d0:	665f0074 			; <UNDEFINED> instruction: 0x665f0074
 2d4:	6c656572 	cfstr64vs	mvdx6, [r5], #-456	; 0xfffffe38
 2d8:	00747369 	rsbseq	r7, r4, r9, ror #6
 2dc:	7463775f 	strbtvc	r7, [r3], #-1887	; 0xfffff8a1
 2e0:	5f626d6f 	svcpl	0x00626d6f
 2e4:	74617473 	strbtvc	r7, [r1], #-1139	; 0xfffffb8d
 2e8:	6e750065 	cdpvs	0, 7, cr0, cr5, cr5, {3}
 2ec:	6e676973 			; <UNDEFINED> instruction: 0x6e676973
 2f0:	63206465 			; <UNDEFINED> instruction: 0x63206465
 2f4:	00726168 	rsbseq	r6, r2, r8, ror #2
 2f8:	77656e5f 			; <UNDEFINED> instruction: 0x77656e5f
 2fc:	554e4700 	strbpl	r4, [lr, #-1792]	; 0xfffff900
 300:	39394320 	ldmdbcc	r9!, {r5, r8, r9, lr}
 304:	322e3920 	eorcc	r3, lr, #32, 18	; 0x80000
 308:	2d20302e 	stccs	0, cr3, [r0, #-184]!	; 0xffffff48
 30c:	7570636d 	ldrbvc	r6, [r0, #-877]!	; 0xfffffc93
 310:	6d72613d 	ldfvse	f6, [r2, #-244]!	; 0xffffff0c
 314:	36373131 			; <UNDEFINED> instruction: 0x36373131
 318:	2d667a6a 	vstmdbcs	r6!, {s15-s120}
 31c:	6d2d2073 	stcvs	0, cr2, [sp, #-460]!	; 0xfffffe34
 320:	656e7574 	strbvs	r7, [lr, #-1396]!	; 0xfffffa8c
 324:	6d72613d 	ldfvse	f6, [r2, #-244]!	; 0xffffff0c
 328:	36373131 			; <UNDEFINED> instruction: 0x36373131
 32c:	2d667a6a 	vstmdbcs	r6!, {s15-s120}
 330:	6d2d2073 	stcvs	0, cr2, [sp, #-460]!	; 0xfffffe34
 334:	616f6c66 	cmnvs	pc, r6, ror #24
 338:	62612d74 	rsbvs	r2, r1, #116, 26	; 0x1d00
 33c:	6f733d69 	svcvs	0x00733d69
 340:	2d207466 	cfstrscs	mvf7, [r0, #-408]!	; 0xfffffe68
 344:	6d72616d 	ldfvse	f6, [r2, #-436]!	; 0xfffffe4c
 348:	616d2d20 	cmnvs	sp, r0, lsr #26
 34c:	3d686372 	stclcc	3, cr6, [r8, #-456]!	; 0xfffffe38
 350:	766d7261 	strbtvc	r7, [sp], -r1, ror #4
 354:	207a6b36 	rsbscs	r6, sl, r6, lsr fp
 358:	6467672d 	strbtvs	r6, [r7], #-1837	; 0xfffff8d3
 35c:	4f2d2062 	svcmi	0x002d2062
 360:	732d2067 			; <UNDEFINED> instruction: 0x732d2067
 364:	673d6474 			; <UNDEFINED> instruction: 0x673d6474
 368:	3939756e 	ldmdbcc	r9!, {r1, r2, r3, r5, r6, r8, sl, ip, sp, lr}
 36c:	66662d20 	strbtvs	r2, [r6], -r0, lsr #26
 370:	73656572 	cmnvc	r5, #478150656	; 0x1c800000
 374:	646e6174 	strbtvs	r6, [lr], #-372	; 0xfffffe8c
 378:	00676e69 	rsbeq	r6, r7, r9, ror #28
 37c:	655f685f 	ldrbvs	r6, [pc, #-2143]	; fffffb25 <__bss_end__+0xffff5ac5>
 380:	6f6e7272 	svcvs	0x006e7272
 384:	6f687300 	svcvs	0x00687300
 388:	69207472 	stmdbvs	r0!, {r1, r4, r5, r6, sl, ip, sp, lr}
 38c:	5f00746e 	svcpl	0x0000746e
 390:	5f6d745f 	svcpl	0x006d745f
 394:	79616479 	stmdbvc	r1!, {r0, r3, r4, r5, r6, sl, sp, lr}^
 398:	735f5f00 	cmpvc	pc, #0, 30
 39c:	00667562 	rsbeq	r7, r6, r2, ror #10
 3a0:	626f695f 	rsbvs	r6, pc, #1556480	; 0x17c000
 3a4:	5f5f0073 	svcpl	0x005f0073
 3a8:	454c4946 	strbmi	r4, [ip, #-2374]	; 0xfffff6ba
 3ac:	626d5f00 	rsbvs	r5, sp, #0, 30
 3b0:	74617473 	strbtvc	r7, [r1], #-1139	; 0xfffffb8d
 3b4:	00745f65 	rsbseq	r5, r4, r5, ror #30
 3b8:	46735f5f 	uhsaxmi	r5, r3, pc	; <UNPREDICTABLE>
 3bc:	00454c49 	subeq	r4, r5, r9, asr #24
 3c0:	73626d5f 	cmnvc	r2, #6080	; 0x17c0
 3c4:	65746174 	ldrbvs	r6, [r4, #-372]!	; 0xfffffe8c
 3c8:	61725f00 	cmnvs	r2, r0, lsl #30
 3cc:	6e5f646e 	cdpvs	4, 5, cr6, cr15, cr14, {3}
 3d0:	00747865 	rsbseq	r7, r4, r5, ror #16
 3d4:	6c626d5f 	stclvs	13, cr6, [r2], #-380	; 0xfffffe84
 3d8:	735f6e65 	cmpvc	pc, #1616	; 0x650
 3dc:	65746174 	ldrbvs	r6, [r4, #-372]!	; 0xfffffe8c
 3e0:	6e695f00 	cdpvs	15, 6, cr5, cr9, cr0, {0}
 3e4:	695f0063 	ldmdbvs	pc, {r0, r1, r5, r6}^	; <UNPREDICTABLE>
 3e8:	5f00646e 	svcpl	0x0000646e
 3ec:	656c635f 	strbvs	r6, [ip, #-863]!	; 0xfffffca1
 3f0:	70756e61 	rsbsvc	r6, r5, r1, ror #28
 3f4:	6e755f00 	cdpvs	15, 7, cr5, cr5, cr0, {0}
 3f8:	63657073 	cmnvs	r5, #115	; 0x73
 3fc:	65696669 	strbvs	r6, [r9, #-1641]!	; 0xfffff997
 400:	6f6c5f64 	svcvs	0x006c5f64
 404:	656c6163 	strbvs	r6, [ip, #-355]!	; 0xfffffe9d
 408:	666e695f 			; <UNDEFINED> instruction: 0x666e695f
 40c:	6d5f006f 	ldclvs	0, cr0, [pc, #-444]	; 258 <_start-0x7da8>
 410:	64777861 	ldrbtvs	r7, [r7], #-2145	; 0xfffff79f
 414:	725f0073 	subsvc	r0, pc, #115	; 0x73
 418:	746e6565 	strbtvc	r6, [lr], #-1381	; 0xfffffa9b
 41c:	65735f00 	ldrbvs	r5, [r3, #-3840]!	; 0xfffff100
 420:	5f006465 	svcpl	0x00006465
 424:	756f635f 	strbvc	r6, [pc, #-863]!	; cd <_start-0x7f33>
 428:	5f00746e 	svcpl	0x0000746e
 42c:	636f6c5f 	cmnvs	pc, #24320	; 0x5f00
 430:	5f5f006b 	svcpl	0x005f006b
 434:	756c6176 	strbvc	r6, [ip, #-374]!	; 0xfffffe8a
 438:	735f0065 	cmpvc	pc, #101	; 0x65
 43c:	006b6565 	rsbeq	r6, fp, r5, ror #10
 440:	6f70665f 	svcvs	0x0070665f
 444:	00745f73 	rsbseq	r5, r4, r3, ror pc
 448:	6d745f5f 	ldclvs	15, cr5, [r4, #-380]!	; 0xfffffe84
 44c:	6e696d5f 	mcrvs	13, 3, r6, cr9, cr15, {2}
 450:	756d5f00 	strbvc	r5, [sp, #-3840]!	; 0xfffff100
 454:	5f00746c 	svcpl	0x0000746c
 458:	74727473 	ldrbtvc	r7, [r2], #-1139	; 0xfffffb8d
 45c:	6c5f6b6f 	mrrcvs	11, 6, r6, pc, cr15	; <UNPREDICTABLE>
 460:	00747361 	rsbseq	r7, r4, r1, ror #6
 464:	746e665f 	strbtvc	r6, [lr], #-1631	; 0xfffff9a1
 468:	73657079 	cmnvc	r5, #121	; 0x79
 46c:	64615f00 	strbtvs	r5, [r1], #-3840	; 0xfffff100
 470:	5f5f0064 	svcpl	0x005f0064
 474:	6e6f4c55 	mcrvs	12, 3, r4, cr15, cr5, {2}
 478:	675f0067 	ldrbvs	r0, [pc, -r7, rrx]
 47c:	61647465 	cmnvs	r4, r5, ror #8
 480:	655f6574 	ldrbvs	r6, [pc, #-1396]	; ffffff14 <__bss_end__+0xffff5eb4>
 484:	5f007272 	svcpl	0x00007272
 488:	626f6c67 	rsbvs	r6, pc, #26368	; 0x6700
 48c:	695f6c61 	ldmdbvs	pc, {r0, r5, r6, sl, fp, sp, lr}^	; <UNPREDICTABLE>
 490:	7275706d 	rsbsvc	r7, r5, #109	; 0x6d
 494:	74705f65 	ldrbtvc	r5, [r0], #-3941	; 0xfffff09b
 498:	656d0072 	strbvs	r0, [sp, #-114]!	; 0xffffff8e
 49c:	7465736d 	strbtvc	r7, [r5], #-877	; 0xfffffc93
 4a0:	6e755f00 	cdpvs	15, 7, cr5, cr5, cr0, {0}
 4a4:	64657375 	strbtvs	r7, [r5], #-885	; 0xfffffc8b
 4a8:	6e61725f 	mcrvs	2, 3, r7, cr1, cr15, {2}
 4ac:	775f0064 	ldrbvc	r0, [pc, -r4, rrx]
 4b0:	5f007364 	svcpl	0x00007364
 4b4:	5f6d745f 	svcpl	0x006d745f
 4b8:	79616477 	stmdbvc	r1!, {r0, r1, r2, r4, r5, r6, sl, sp, lr}^
 4bc:	6c675f00 	stclvs	15, cr5, [r7], #-0
 4c0:	5f006575 	svcpl	0x00006575
 4c4:	6c616d6e 	stclvs	13, cr6, [r1], #-440	; 0xfffffe48
 4c8:	00636f6c 	rsbeq	r6, r3, ip, ror #30
 4cc:	34366c5f 	ldrtcc	r6, [r6], #-3167	; 0xfffff3a1
 4d0:	75625f61 	strbvc	r5, [r2, #-3937]!	; 0xfffff09f
 4d4:	735f0066 	cmpvc	pc, #102	; 0x66
 4d8:	665f6769 	ldrbvs	r6, [pc], -r9, ror #14
 4dc:	00636e75 	rsbeq	r6, r3, r5, ror lr
 4e0:	6c616d6b 	stclvs	13, cr6, [r1], #-428	; 0xfffffe54
 4e4:	00636f6c 	rsbeq	r6, r3, ip, ror #30
 4e8:	75626e5f 	strbvc	r6, [r2, #-3679]!	; 0xfffff1a1
 4ec:	755f0066 	ldrbvc	r0, [pc, #-102]	; 48e <_start-0x7b72>
 4f0:	6573756e 	ldrbvs	r7, [r3, #-1390]!	; 0xfffffa92
 4f4:	5f5f0064 	svcpl	0x005f0064
 4f8:	695f6d74 	ldmdbvs	pc, {r2, r4, r5, r6, r8, sl, fp, sp, lr}^	; <UNPREDICTABLE>
 4fc:	74736473 	ldrbtvc	r6, [r3], #-1139	; 0xfffffb8d
 500:	6f6c5f00 	svcvs	0x006c5f00
 504:	746c6163 	strbtvc	r6, [ip], #-355	; 0xfffffe9d
 508:	5f656d69 	svcpl	0x00656d69
 50c:	00667562 	rsbeq	r7, r6, r2, ror #10
 510:	6f6c635f 	svcvs	0x006c635f
 514:	5f006573 	svcpl	0x00006573
 518:	00383472 	eorseq	r3, r8, r2, ror r4
 51c:	74626d5f 	strbtvc	r6, [r2], #-3423	; 0xfffff2a1
 520:	5f63776f 	svcpl	0x0063776f
 524:	74617473 	strbtvc	r7, [r1], #-1139	; 0xfffffb8d
 528:	705f0065 	subsvc	r0, pc, r5, rrx
 52c:	5f007335 	svcpl	0x00007335
 530:	5f6d745f 	svcpl	0x006d745f
 534:	7961646d 	stmdbvc	r1!, {r0, r2, r3, r5, r6, sl, sp, lr}^
 538:	64617000 	strbtvs	r7, [r1], #-0
 53c:	676e6964 	strbvs	r6, [lr, -r4, ror #18]!
 540:	6e696c00 	cdpvs	12, 6, cr6, cr9, cr0, {0}
 544:	006f6e65 	rsbeq	r6, pc, r5, ror #28
 548:	665f6b63 	ldrbvs	r6, [pc], -r3, ror #22
 54c:	74737269 	ldrbtvc	r7, [r3], #-617	; 0xfffffd97
 550:	7264685f 	rsbvc	r6, r4, #6225920	; 0x5f0000
 554:	65727000 	ldrbvs	r7, [r2, #-0]!
 558:	61660076 	smcvs	24582	; 0x6006
 55c:	685f7473 	ldmdavs	pc, {r0, r1, r4, r5, r6, sl, ip, sp, lr}^	; <UNPREDICTABLE>
 560:	00687361 	rsbeq	r7, r8, r1, ror #6
 564:	65657266 	strbvs	r7, [r5, #-614]!	; 0xfffffd9a
 568:	636f6c5f 	cmnvs	pc, #24320	; 0x5f00
 56c:	725f6200 	subsvc	r6, pc, #0, 4
 570:	705f317a 	subsvc	r3, pc, sl, ror r1	; <UNPREDICTABLE>
 574:	46007274 			; <UNDEFINED> instruction: 0x46007274
 578:	44454552 	strbmi	r4, [r5], #-1362	; 0xfffffaae
 57c:	4c4c4100 	stfmie	f4, [ip], {-0}
 580:	4445434f 	strbmi	r4, [r5], #-847	; 0xfffffcb1
 584:	66657200 	strbtvs	r7, [r5], -r0, lsl #4
 588:	696d5f73 	stmdbvs	sp!, {r0, r1, r4, r5, r6, r8, r9, sl, fp, ip, lr}^
 58c:	656c6464 	strbvs	r6, [ip, #-1124]!	; 0xfffffb9c
 590:	66657200 	strbtvs	r7, [r5], -r0, lsl #4
 594:	74735f73 	ldrbtvc	r5, [r3], #-3955	; 0xfffff08d
 598:	00747261 	rsbseq	r7, r4, r1, ror #4
 59c:	6f6c6c61 	svcvs	0x006c6c61
 5a0:	00646563 	rsbeq	r6, r4, r3, ror #10
 5a4:	5245564f 	subpl	r5, r5, #82837504	; 0x4f00000
 5a8:	44414548 	strbmi	r4, [r1], #-1352	; 0xfffffab8
 5ac:	59424e5f 	stmdbpl	r2, {r0, r1, r2, r3, r4, r6, r9, sl, fp, lr}^
 5b0:	00534554 	subseq	r4, r3, r4, asr r5
 5b4:	5a444552 	bpl	1111b04 <__bss_end__+0x1107aa4>
 5b8:	00454e4f 	subeq	r4, r5, pc, asr #28
 5bc:	4f4c4c41 	svcmi	0x004c4c41
 5c0:	464f5f43 	strbmi	r5, [pc], -r3, asr #30
 5c4:	54455346 	strbpl	r5, [r5], #-838	; 0xfffffcba
 5c8:	72616d00 	rsbvc	r6, r1, #0, 26
 5cc:	656d5f6b 	strbvs	r5, [sp, #-3947]!	; 0xfffff095
 5d0:	5f62006d 	svcpl	0x0062006d
 5d4:	72646461 	rsbvc	r6, r4, #1627389952	; 0x61000000
 5d8:	5f6f745f 	svcpl	0x006f745f
 5dc:	00726468 	rsbseq	r6, r2, r8, ror #8
 5e0:	6c616b63 			; <UNDEFINED> instruction: 0x6c616b63
 5e4:	2e636f6c 	cdpcs	15, 6, cr6, cr3, cr12, {3}
 5e8:	666f0063 	strbtvs	r0, [pc], -r3, rrx
 5ec:	63007366 	movwvs	r7, #870	; 0x366
 5f0:	656e5f6b 	strbvs	r5, [lr, #-3947]!	; 0xfffff095
 5f4:	685f7478 	ldmdavs	pc, {r3, r4, r5, r6, sl, ip, sp, lr}^	; <UNPREDICTABLE>
 5f8:	61007264 	tstvs	r0, r4, ror #4
 5fc:	636f6c6c 	cmnvs	pc, #108, 24	; 0x6c00
 600:	636f6c5f 	cmnvs	pc, #24320	; 0x5f00
 604:	72646800 	rsbvc	r6, r4, #0, 16
 608:	736b635f 	cmnvc	fp, #2080374785	; 0x7c000001
 60c:	6e006d75 	mcrvs	13, 0, r6, cr0, cr5, {3}
 610:	65747962 	ldrbvs	r7, [r4, #-2402]!	; 0xfffff69e
 614:	6c615f73 	stclvs	15, cr5, [r1], #-460	; 0xfffffe34
 618:	00636f6c 	rsbeq	r6, r3, ip, ror #30
 61c:	6c615f62 	stclvs	15, cr5, [r1], #-392	; 0xfffffe78
 620:	5f636f6c 	svcpl	0x00636f6c
 624:	00727470 	rsbseq	r7, r2, r0, ror r4
 628:	63656863 	cmnvs	r5, #6488064	; 0x630000
 62c:	72665f6b 	rsbvc	r5, r6, #428	; 0x1ac
 630:	775f6565 	ldrbvc	r6, [pc, -r5, ror #10]
 634:	65746972 	ldrbvs	r6, [r4, #-2418]!	; 0xfffff68e
 638:	65686300 	strbvs	r6, [r8, #-768]!	; 0xfffffd00
 63c:	685f6b63 	ldmdavs	pc, {r0, r1, r5, r6, r8, r9, fp, sp, lr}^	; <UNPREDICTABLE>
 640:	62007264 	andvs	r7, r0, #100, 4	; 0x40000006
 644:	327a725f 	rsbscc	r7, sl, #-268435451	; 0xf0000005
 648:	7274705f 	rsbsvc	r7, r4, #95	; 0x5f
 64c:	6c626e00 	stclvs	14, cr6, [r2], #-0
 650:	7300736b 	movwvc	r7, #875	; 0x36b
 654:	6c5f6372 	mrrcvs	3, 7, r6, pc, cr2	; <UNPREDICTABLE>
 658:	745f636f 	ldrbvc	r6, [pc], #-879	; 660 <_start-0x79a0>
 65c:	6e697500 	cdpvs	5, 6, cr7, cr9, cr0, {0}
 660:	5f323374 	svcpl	0x00323374
 664:	656e0074 	strbvs	r0, [lr, #-116]!	; 0xffffff8c
 668:	726f7272 	rsbvc	r7, pc, #536870919	; 0x20000007
 66c:	64680073 	strbtvs	r0, [r8], #-115	; 0xffffff8d
 670:	72705f72 	rsbsvc	r5, r0, #456	; 0x1c8
 674:	00746e69 	rsbseq	r6, r4, r9, ror #28
 678:	70616568 	rsbvc	r6, r1, r8, ror #10
 67c:	4e455300 	cdpmi	3, 4, cr5, cr5, cr0, {0}
 680:	414e4954 	cmpmi	lr, r4, asr r9
 684:	6863004c 	stmdavs	r3!, {r2, r3, r6}^
 688:	5f6b6365 	svcpl	0x006b6365
 68c:	636f6c62 	cmnvs	pc, #25088	; 0x6200
 690:	5f62006b 	svcpl	0x0062006b
 694:	5f327a72 	svcpl	0x00327a72
 698:	7479626e 	ldrbtvc	r6, [r9], #-622	; 0xfffffd92
 69c:	75007365 	strvc	r7, [r0, #-869]	; 0xfffffc9b
 6a0:	38746e69 	ldmdacc	r4!, {r0, r3, r5, r6, r9, sl, fp, sp, lr}^
 6a4:	6800745f 	stmdavs	r0, {r0, r1, r2, r3, r4, r6, sl, ip, sp, lr}
 6a8:	745f7264 	ldrbvc	r7, [pc], #-612	; 6b0 <_start-0x7950>
 6ac:	79626e00 	stmdbvc	r2!, {r9, sl, fp, sp, lr}^
 6b0:	5f736574 	svcpl	0x00736574
 6b4:	006d6572 	rsbeq	r6, sp, r2, ror r5
 6b8:	7466656c 	strbtvc	r6, [r6], #-1388	; 0xfffffa94
 6bc:	65686300 	strbvs	r6, [r8, #-768]!	; 0xfffffd00
 6c0:	6d5f6b63 	vldrvs	d22, [pc, #-396]	; 53c <_start-0x7ac4>
 6c4:	68006d65 	stmdavs	r0, {r0, r2, r5, r6, r8, sl, fp, sp, lr}
 6c8:	65646165 	strbvs	r6, [r4, #-357]!	; 0xfffffe9b
 6cc:	696c0072 	stmdbvs	ip!, {r1, r4, r5, r6}^
 6d0:	682f6362 	stmdavs	pc!, {r1, r5, r6, r8, r9, sp, lr}	; <UNPREDICTABLE>
 6d4:	2e687361 	cdpcs	3, 6, cr7, cr8, cr1, {3}
 6d8:	682f0063 	stmdavs	pc!, {r0, r1, r5, r6}	; <UNPREDICTABLE>
 6dc:	2f656d6f 	svccs	0x00656d6f
 6e0:	72657375 	rsbvc	r7, r5, #-738197503	; 0xd4000001
 6e4:	7665442f 	strbtvc	r4, [r5], -pc, lsr #8
 6e8:	3253432f 	subscc	r4, r3, #-1140850688	; 0xbc000000
 6ec:	2f583034 	svccs	0x00583034
 6f0:	7062696c 	rsbvc	r6, r2, ip, ror #18
 6f4:	69730069 	ldmdbvs	r3!, {r0, r3, r5, r6}^
 6f8:	745f657a 	ldrbvc	r6, [pc], #-1402	; 700 <_start-0x7900>
 6fc:	62696c00 	rsbvs	r6, r9, #0, 24
 700:	656d2f63 	strbvs	r2, [sp, #-3939]!	; 0xfffff09d
 704:	7465736d 	strbtvc	r7, [r5], #-877	; 0xfffffc93
 708:	5f00632e 	svcpl	0x0000632e
 70c:	5f61765f 	svcpl	0x0061765f
 710:	7473696c 	ldrbtvc	r6, [r3], #-2412	; 0xfffff694
 714:	5f617600 	svcpl	0x00617600
 718:	6e697270 	mcrvs	2, 3, r7, cr9, cr0, {3}
 71c:	5f006b74 	svcpl	0x00006b74
 720:	756e675f 	strbvc	r6, [lr, #-1887]!	; 0xfffff8a1
 724:	61765f63 	cmnvs	r6, r3, ror #30
 728:	73696c5f 	cmnvc	r9, #24320	; 0x5f00
 72c:	5f5f0074 	svcpl	0x005f0074
 730:	6c007061 	stcvs	0, cr7, [r0], {97}	; 0x61
 734:	2f636269 	svccs	0x00636269
 738:	6e697270 	mcrvs	2, 3, r7, cr9, cr0, {3}
 73c:	632e6b74 			; <UNDEFINED> instruction: 0x632e6b74
 740:	69707200 	ldmdbvs	r0!, {r9, ip, sp, lr}^
 744:	7465735f 	strbtvc	r7, [r5], #-863	; 0xfffffca1
 748:	7475705f 	ldrbtvc	r7, [r5], #-95	; 0xffffffa1
 74c:	61750063 	cmnvs	r5, r3, rrx
 750:	705f7472 	subsvc	r7, pc, r2, ror r4	; <UNPREDICTABLE>
 754:	00637475 	rsbeq	r7, r3, r5, ror r4
 758:	65746e69 	ldrbvs	r6, [r4, #-3689]!	; 0xfffff197
 75c:	6c616e72 	stclvs	14, cr6, [r1], #-456	; 0xfffffe38
 760:	7475705f 	ldrbtvc	r7, [r5], #-95	; 0xffffffa1
 764:	72616863 	rsbvc	r6, r1, #6488064	; 0x630000
 768:	62696c00 	rsbvs	r6, r9, #0, 24
 76c:	75702f63 	ldrbvc	r2, [r0, #-3939]!	; 0xfffff09d
 770:	61686374 	smcvs	34356	; 0x8634
 774:	00632e72 	rsbeq	r2, r3, r2, ror lr
 778:	65746e69 	ldrbvs	r6, [r4, #-3689]!	; 0xfffff197
 77c:	6c616e72 	stclvs	14, cr6, [r1], #-456	; 0xfffffe38
 780:	7475705f 	ldrbtvc	r7, [r5], #-95	; 0xffffffa1
 784:	696c006b 	stmdbvs	ip!, {r0, r1, r3, r5, r6}^
 788:	702f6362 	eorvc	r6, pc, r2, ror #6
 78c:	2e6b7475 	mcrcs	4, 3, r7, cr11, cr5, {3}
 790:	696c0063 	stmdbvs	ip!, {r0, r1, r5, r6}^
 794:	762f6362 	strtvc	r6, [pc], -r2, ror #6
 798:	72702d61 	rsbsvc	r2, r0, #6208	; 0x1840
 79c:	6b746e69 	blvs	1d1c148 <__bss_end__+0x1d120e8>
 7a0:	7200632e 	andvc	r6, r0, #-1207959552	; 0xb8000000
 7a4:	735f6970 	cmpvc	pc, #112, 18	; 0x1c0000
 7a8:	6f5f7465 	svcvs	0x005f7465
 7ac:	75707475 	ldrbvc	r7, [r0, #-1141]!	; 0xfffffb8b
 7b0:	69730074 	ldmdbvs	r3!, {r2, r4, r5, r6}^
 7b4:	64656e67 	strbtvs	r6, [r5], #-3687	; 0xfffff199
 7b8:	7200705f 	andvc	r7, r0, #95	; 0x5f
 7bc:	72657665 	rsbvc	r7, r5, #105906176	; 0x6500000
 7c0:	77006573 	smlsdxvc	r0, r3, r5, r6
 7c4:	68746469 	ldmdavs	r4!, {r0, r3, r5, r6, sl, sp, lr}^
 7c8:	74757000 	ldrbtvc	r7, [r5], #-0
 7cc:	70665f73 	rsbvc	r5, r6, r3, ror pc
 7d0:	67656e00 	strbvs	r6, [r5, -r0, lsl #28]!
 7d4:	7000705f 	andvc	r7, r0, pc, asr r0
 7d8:	5f637475 	svcpl	0x00637475
 7dc:	69007066 	stmdbvs	r0, {r1, r2, r5, r6, ip, sp, lr}
 7e0:	67696473 			; <UNDEFINED> instruction: 0x67696473
 7e4:	65007469 	strvs	r7, [r0, #-1129]	; 0xfffffb97
 7e8:	0074696d 	rsbseq	r6, r4, sp, ror #18
 7ec:	66617473 			; <UNDEFINED> instruction: 0x66617473
 7f0:	72732d66 	rsbsvc	r2, r3, #6528	; 0x1980
 7f4:	6c632f63 	stclvs	15, cr2, [r3], #-396	; 0xfffffe74
 7f8:	2d6e6165 	stfcse	f6, [lr, #-404]!	; 0xfffffe6c
 7fc:	6f626572 	svcvs	0x00626572
 800:	632e746f 			; <UNDEFINED> instruction: 0x632e746f
 804:	6c656400 	cfstrdvs	mvd6, [r5], #-0
 808:	6d5f7961 	vldrvs.16	s15, [pc, #-194]	; 74e <_start-0x78b2>	; <UNPREDICTABLE>
 80c:	70720073 	rsbsvc	r0, r2, r3, ror r0
 810:	65725f69 	ldrbvs	r5, [r2, #-3945]!	; 0xfffff097
 814:	746f6f62 	strbtvc	r6, [pc], #-3938	; 81c <_start-0x77e4>
 818:	61747300 	cmnvs	r4, r0, lsl #6
 81c:	732d6666 			; <UNDEFINED> instruction: 0x732d6666
 820:	632f6372 			; <UNDEFINED> instruction: 0x632f6372
 824:	72617473 	rsbvc	r7, r1, #1929379840	; 0x73000000
 828:	00632e74 	rsbeq	r2, r3, r4, ror lr
 82c:	7473635f 	ldrbtvc	r6, [r3], #-863	; 0xfffffca1
 830:	00747261 	rsbseq	r7, r4, r1, ror #4
 834:	5f737362 	svcpl	0x00737362
 838:	00646e65 	rsbeq	r6, r4, r5, ror #28
 83c:	73625f5f 	cmnvc	r2, #380	; 0x17c
 840:	74735f73 	ldrbtvc	r5, [r3], #-3955	; 0xfffff08d
 844:	5f747261 	svcpl	0x00747261
 848:	5f5f005f 	svcpl	0x005f005f
 84c:	5f737362 	svcpl	0x00737362
 850:	5f646e65 	svcpl	0x00646e65
 854:	4d50005f 	ldclmi	0, cr0, [r0, #-380]	; 0xfffffe84
 858:	5453525f 	ldrbpl	r5, [r3], #-607	; 0xfffffda1
 85c:	55500043 	ldrbpl	r0, [r0, #-67]	; 0xffffffbd
 860:	00323354 	eorseq	r3, r2, r4, asr r3
 864:	525f4d50 	subspl	r4, pc, #80, 26	; 0x1400
 868:	5f435453 	svcpl	0x00435453
 86c:	46435257 			; <UNDEFINED> instruction: 0x46435257
 870:	55465f47 	strbpl	r5, [r6, #-3911]	; 0xfffff0b9
 874:	525f4c4c 	subspl	r4, pc, #76, 24	; 0x4c00
 878:	54455345 	strbpl	r5, [r5], #-837	; 0xfffffcbb
 87c:	5f4d5000 	svcpl	0x004d5000
 880:	474f4457 	smlsldmi	r4, pc, r7, r4	; <UNPREDICTABLE>
 884:	73706300 	cmnvc	r0, #0, 6
 888:	4d500072 	ldclmi	0, cr0, [r0, #-456]	; 0xfffffe38
 88c:	5341505f 	movtpl	r5, #4191	; 0x105f
 890:	524f5753 	subpl	r5, pc, #21757952	; 0x14c0000
 894:	74730044 	ldrbtvc	r0, [r3], #-68	; 0xffffffbc
 898:	2d666661 	stclcs	6, cr6, [r6, #-388]!	; 0xfffffe7c
 89c:	2f637273 	svccs	0x00637273
 8a0:	6f626572 	svcvs	0x00626572
 8a4:	632e746f 			; <UNDEFINED> instruction: 0x632e746f
 8a8:	74657300 	strbtvc	r7, [r5], #-768	; 0xfffffd00
 8ac:	6573755f 	ldrbvs	r7, [r3, #-1375]!	; 0xfffffaa1
 8b0:	656c5f72 	strbvs	r5, [ip, #-3954]!	; 0xfffff08e
 8b4:	006c6576 	rsbeq	r6, ip, r6, ror r5
 8b8:	755f7461 	ldrbvc	r7, [pc, #-1121]	; 45f <_start-0x7ba1>
 8bc:	5f726573 	svcpl	0x00726573
 8c0:	6576656c 	ldrbvs	r6, [r6, #-1388]!	; 0xfffffa94
 8c4:	6974006c 	ldmdbvs	r4!, {r2, r3, r5, r6}^
 8c8:	5f72656d 	svcpl	0x0072656d
 8cc:	5f746567 	svcpl	0x00746567
 8d0:	63657375 	cmnvs	r5, #-738197503	; 0xd4000001
 8d4:	6c656400 	cfstrdvs	mvd6, [r5], #-0
 8d8:	735f7961 	cmpvc	pc, #1589248	; 0x184000
 8dc:	64006365 	strvs	r6, [r0], #-869	; 0xfffffc9b
 8e0:	79616c65 	stmdbvc	r1!, {r0, r2, r5, r6, sl, fp, sp, lr}^
 8e4:	6379635f 	cmnvs	r9, #2080374785	; 0x7c000001
 8e8:	0073656c 	rsbseq	r6, r3, ip, ror #10
 8ec:	66617473 			; <UNDEFINED> instruction: 0x66617473
 8f0:	72732d66 	rsbsvc	r2, r3, #6528	; 0x1980
 8f4:	69742f63 	ldmdbvs	r4!, {r0, r1, r5, r6, r8, r9, sl, fp, sp}^
 8f8:	2e72656d 	cdpcs	5, 7, cr6, cr2, cr13, {3}
 8fc:	69740063 	ldmdbvs	r4!, {r0, r1, r5, r6}^
 900:	00736b63 	rsbseq	r6, r3, r3, ror #22
 904:	33544547 	cmpcc	r4, #297795584	; 0x11c00000
 908:	69740032 	ldmdbvs	r4!, {r1, r4, r5}^
 90c:	5f72656d 	svcpl	0x0072656d
 910:	5f746567 	svcpl	0x00746567
 914:	63657375 	cmnvs	r5, #-738197503	; 0xd4000001
 918:	7761725f 			; <UNDEFINED> instruction: 0x7761725f
 91c:	6c656400 	cfstrdvs	mvd6, [r5], #-0
 920:	755f7961 	ldrbvc	r7, [pc, #-2401]	; ffffffc7 <__bss_end__+0xffff5f67>
 924:	61750073 	cmnvs	r5, r3, ror r0
 928:	695f7472 	ldmdbvs	pc, {r1, r4, r5, r6, sl, ip, sp, lr}^	; <UNPREDICTABLE>
 92c:	0074696e 	rsbseq	r6, r4, lr, ror #18
 930:	4f495047 	svcmi	0x00495047
 934:	4e55465f 	mrcmi	6, 2, r4, cr5, cr15, {2}
 938:	4e495f43 	cdpmi	15, 4, cr5, cr9, cr3, {2}
 93c:	00545550 	subseq	r5, r4, r0, asr r5
 940:	74617473 	strbtvc	r7, [r1], #-1139	; 0xfffffb8d
 944:	49504700 	ldmdbmi	r0, {r8, r9, sl, lr}^
 948:	55465f4f 	strbpl	r5, [r6, #-3919]	; 0xfffff0b1
 94c:	415f434e 	cmpmi	pc, lr, asr #6
 950:	0031544c 	eorseq	r5, r1, ip, asr #8
 954:	6c746e63 	ldclvs	14, cr6, [r4], #-396	; 0xfffffe74
 958:	72617500 	rsbvc	r7, r1, #0, 10
 95c:	00632e74 	rsbeq	r2, r3, r4, ror lr
 960:	5f787561 	svcpl	0x00787561
 964:	69726570 	ldmdbvs	r2!, {r4, r5, r6, r8, sl, sp, lr}^
 968:	00736870 	rsbseq	r6, r3, r0, ror r8
 96c:	6d6f682f 	stclvs	8, cr6, [pc, #-188]!	; 8b8 <_start-0x7748>
 970:	6e652f65 	cdpvs	15, 6, cr2, cr5, cr5, {3}
 974:	72656c67 	rsbvc	r6, r5, #26368	; 0x6700
 978:	616c632f 	cmnvs	ip, pc, lsr #6
 97c:	632f7373 			; <UNDEFINED> instruction: 0x632f7373
 980:	30343273 	eorscc	r3, r4, r3, ror r2
 984:	322d786c 	eorcc	r7, sp, #108, 16	; 0x6c0000
 988:	72707330 	rsbsvc	r7, r0, #48, 6	; 0xc0000000
 98c:	62696c2f 	rsbvs	r6, r9, #12032	; 0x2f00
 990:	732f6970 			; <UNDEFINED> instruction: 0x732f6970
 994:	66666174 			; <UNDEFINED> instruction: 0x66666174
 998:	6972702d 	ldmdbvs	r2!, {r0, r2, r3, r5, ip, sp, lr}^
 99c:	65746176 	ldrbvs	r6, [r4, #-374]!	; 0xfffffe8a
 9a0:	78756100 	ldmdavc	r5!, {r8, sp, lr}^
 9a4:	616e655f 	cmnvs	lr, pc, asr r5
 9a8:	73656c62 	cmnvc	r5, #25088	; 0x6200
 9ac:	72617500 	rsbvc	r7, r1, #0, 10
 9b0:	61635f74 	smcvs	13812	; 0x35f4
 9b4:	75705f6e 	ldrbvc	r5, [r0, #-3950]!	; 0xfffff092
 9b8:	75006374 	strvc	r6, [r0, #-884]	; 0xfffffc8c
 9bc:	5f747261 	svcpl	0x00747261
 9c0:	63746567 	cmnvs	r4, #432013312	; 0x19c00000
 9c4:	76656400 	strbtvc	r6, [r5], -r0, lsl #8
 9c8:	7261625f 	rsbvc	r6, r1, #-268435451	; 0xf0000005
 9cc:	72656972 	rsbvc	r6, r5, #1867776	; 0x1c8000
 9d0:	49504700 	ldmdbmi	r0, {r8, r9, sl, lr}^
 9d4:	55465f4f 	strbpl	r5, [r6, #-3919]	; 0xfffff0b1
 9d8:	415f434e 	cmpmi	pc, lr, asr #6
 9dc:	0032544c 	eorseq	r5, r2, ip, asr #8
 9e0:	657a6973 	ldrbvs	r6, [sl, #-2419]!	; 0xfffff68d
 9e4:	65707974 	ldrbvs	r7, [r0, #-2420]!	; 0xfffff68c
 9e8:	69706700 	ldmdbvs	r0!, {r8, r9, sl, sp, lr}^
 9ec:	65735f6f 	ldrbvs	r5, [r3, #-3951]!	; 0xfffff091
 9f0:	75665f74 	strbvc	r5, [r6, #-3956]!	; 0xfffff08c
 9f4:	6974636e 	ldmdbvs	r4!, {r1, r2, r3, r5, r6, r8, r9, sp, lr}^
 9f8:	75006e6f 	strvc	r6, [r0, #-3695]	; 0xfffff191
 9fc:	00747261 	rsbseq	r7, r4, r1, ror #4
 a00:	434f4c5f 	movtmi	r4, #64607	; 0xfc5f
 a04:	45525f4b 	ldrbmi	r5, [r2, #-3915]	; 0xfffff0b5
 a08:	53525543 	cmppl	r2, #281018368	; 0x10c00000
 a0c:	5f455649 	svcpl	0x00455649
 a10:	635f0054 	cmpvs	pc, #84	; 0x54
 a14:	65727275 	ldrbvs	r7, [r2, #-629]!	; 0xfffffd8b
 a18:	6c5f746e 	cfldrdvs	mvd7, [pc], {110}	; 0x6e
 a1c:	6c61636f 	stclvs	3, cr6, [r1], #-444	; 0xfffffe44
 a20:	61620065 	cmnvs	r2, r5, rrx
 a24:	73006475 	movwvc	r6, #1141	; 0x475
 a28:	74617263 	strbtvc	r7, [r1], #-611	; 0xfffffd9d
 a2c:	70006863 	andvc	r6, r0, r3, ror #16
 a30:	32337475 	eorscc	r7, r3, #1962934272	; 0x75000000
 a34:	554e4700 	strbpl	r4, [lr, #-1792]	; 0xfffff900
 a38:	39394320 	ldmdbcc	r9!, {r5, r8, r9, lr}
 a3c:	332e3620 			; <UNDEFINED> instruction: 0x332e3620
 a40:	3220312e 	eorcc	r3, r0, #-2147483637	; 0x8000000b
 a44:	30373130 	eorscc	r3, r7, r0, lsr r1
 a48:	20303236 	eorscs	r3, r0, r6, lsr r2
 a4c:	70636d2d 	rsbvc	r6, r3, sp, lsr #26
 a50:	72613d75 	rsbvc	r3, r1, #7488	; 0x1d40
 a54:	3731316d 	ldrcc	r3, [r1, -sp, ror #2]!
 a58:	667a6a36 			; <UNDEFINED> instruction: 0x667a6a36
 a5c:	2d20732d 	stccs	3, cr7, [r0, #-180]!	; 0xffffff4c
 a60:	6e75746d 	cdpvs	4, 7, cr7, cr5, cr13, {3}
 a64:	72613d65 	rsbvc	r3, r1, #6464	; 0x1940
 a68:	3731316d 	ldrcc	r3, [r1, -sp, ror #2]!
 a6c:	667a6a36 			; <UNDEFINED> instruction: 0x667a6a36
 a70:	2d20732d 	stccs	3, cr7, [r0, #-180]!	; 0xffffff4c
 a74:	62646767 	rsbvs	r6, r4, #27000832	; 0x19c0000
 a78:	674f2d20 	strbvs	r2, [pc, -r0, lsr #26]
 a7c:	74732d20 	ldrbtvc	r2, [r3], #-3360	; 0xfffff2e0
 a80:	6e673d64 	cdpvs	13, 6, cr3, cr7, cr4, {3}
 a84:	20393975 	eorscs	r3, r9, r5, ror r9
 a88:	7266662d 	rsbvc	r6, r6, #47185920	; 0x2d00000
 a8c:	74736565 	ldrbtvc	r6, [r3], #-1381	; 0xfffffa9b
 a90:	69646e61 	stmdbvs	r4!, {r0, r5, r6, r9, sl, fp, sp, lr}^
 a94:	5f00676e 	svcpl	0x0000676e
 a98:	72727563 	rsbsvc	r7, r2, #415236096	; 0x18c00000
 a9c:	5f746e65 	svcpl	0x00746e65
 aa0:	65746163 	ldrbvs	r6, [r4, #-355]!	; 0xfffffe9d
 aa4:	79726f67 	ldmdbvc	r2!, {r0, r1, r2, r5, r6, r8, r9, sl, fp, sp, lr}^
 aa8:	49504700 	ldmdbmi	r0, {r8, r9, sl, lr}^
 aac:	55465f4f 	strbpl	r5, [r6, #-3919]	; 0xfffff0b1
 ab0:	4f5f434e 	svcmi	0x005f434e
 ab4:	55505455 	ldrbpl	r5, [r0, #-1109]	; 0xfffffbab
 ab8:	65670054 	strbvs	r0, [r7, #-84]!	; 0xffffffac
 abc:	00323374 	eorseq	r3, r2, r4, ror r3
 ac0:	74726175 	ldrbtvc	r6, [r2], #-373	; 0xfffffe8b
 ac4:	6e61635f 	mcrvs	3, 3, r6, cr1, cr15, {2}
 ac8:	7465675f 	strbtvc	r6, [r5], #-1887	; 0xfffff8a1
 acc:	726f0063 	rsbvc	r0, pc, #99	; 0x63
 ad0:	336e695f 	cmncc	lr, #1556480	; 0x17c000
 ad4:	61750032 	cmnvs	r5, r2, lsr r0
 ad8:	685f7472 	ldmdavs	pc, {r1, r4, r5, r6, sl, ip, sp, lr}^	; <UNPREDICTABLE>
 adc:	645f7361 	ldrbvs	r7, [pc], #-865	; ae4 <_start-0x751c>
 ae0:	00617461 	rsbeq	r7, r1, r1, ror #8
 ae4:	4f495047 	svcmi	0x00495047
 ae8:	4e55465f 	mrcmi	6, 2, r4, cr5, cr15, {2}
 aec:	4c415f43 	mcrrmi	15, 4, r5, r1, cr3
 af0:	47003054 	smlsdmi	r0, r4, r0, r3
 af4:	5f4f4950 	svcpl	0x004f4950
 af8:	434e5546 	movtmi	r5, #58694	; 0xe546
 afc:	544c415f 	strbpl	r4, [ip], #-351	; 0xfffffea1
 b00:	50470033 	subpl	r0, r7, r3, lsr r0
 b04:	465f4f49 	ldrbmi	r4, [pc], -r9, asr #30
 b08:	5f434e55 	svcpl	0x00434e55
 b0c:	34544c41 	ldrbcc	r4, [r4], #-3137	; 0xfffff3bf
 b10:	49504700 	ldmdbmi	r0, {r8, r9, sl, lr}^
 b14:	55465f4f 	strbpl	r5, [r6, #-3919]	; 0xfffff0b1
 b18:	415f434e 	cmpmi	pc, lr, asr #6
 b1c:	0035544c 	eorseq	r5, r5, ip, asr #8
 b20:	6f697067 	svcvs	0x00697067
 b24:	7465735f 	strbtvc	r7, [r5], #-863	; 0xfffffca1
 b28:	66666f5f 	uqsaxvs	r6, r6, pc	; <UNPREDICTABLE>
 b2c:	6e616200 	cdpvs	2, 6, cr6, cr1, cr0, {0}
 b30:	7067006b 	rsbvc	r0, r7, fp, rrx
 b34:	632e6f69 			; <UNDEFINED> instruction: 0x632e6f69
 b38:	69706700 	ldmdbvs	r0!, {r8, r9, sl, sp, lr}^
 b3c:	65725f6f 	ldrbvs	r5, [r2, #-3951]!	; 0xfffff091
 b40:	67006461 	strvs	r6, [r0, -r1, ror #8]
 b44:	5f6f6970 	svcpl	0x006f6970
 b48:	5f746573 	svcpl	0x00746573
 b4c:	7074756f 	rsbsvc	r7, r4, pc, ror #10
 b50:	67007475 	smlsdxvs	r0, r5, r4, r7
 b54:	5f6f6970 	svcpl	0x006f6970
 b58:	74697277 	strbtvc	r7, [r9], #-631	; 0xfffffd89
 b5c:	70670065 	rsbvc	r0, r7, r5, rrx
 b60:	735f6f69 	cmpvc	pc, #420	; 0x1a4
 b64:	00307465 	eorseq	r7, r0, r5, ror #8
 b68:	6f697067 	svcvs	0x00697067
 b6c:	76656c5f 			; <UNDEFINED> instruction: 0x76656c5f
 b70:	70670030 	rsbvc	r0, r7, r0, lsr r0
 b74:	735f6f69 	cmpvc	pc, #420	; 0x1a4
 b78:	695f7465 	ldmdbvs	pc, {r0, r2, r5, r6, sl, ip, sp, lr}^	; <UNPREDICTABLE>
 b7c:	7475706e 	ldrbtvc	r7, [r5], #-110	; 0xffffff92
 b80:	69706700 	ldmdbvs	r0!, {r8, r9, sl, sp, lr}^
 b84:	65735f6f 	ldrbvs	r5, [r3, #-3951]!	; 0xfffff091
 b88:	6e6f5f74 	mcrvs	15, 3, r5, cr15, cr4, {3}
 b8c:	69706700 	ldmdbvs	r0!, {r8, r9, sl, sp, lr}^
 b90:	75665f6f 	strbvc	r5, [r6, #-3951]!	; 0xfffff091
 b94:	745f636e 	ldrbvc	r6, [pc], #-878	; b9c <_start-0x7464>
 b98:	69706700 	ldmdbvs	r0!, {r8, r9, sl, sp, lr}^
 b9c:	6c635f6f 	stclvs	15, cr5, [r3], #-444	; 0xfffffe44
 ba0:	6b003072 	blvs	cd70 <__bss_end__+0x2d10>
 ba4:	6c6c616d 	stfvse	f6, [ip], #-436	; 0xfffffe4c
 ba8:	632e636f 			; <UNDEFINED> instruction: 0x632e636f
 bac:	616d6b00 	cmnvs	sp, r0, lsl #22
 bb0:	636f6c6c 	cmnvs	pc, #108, 24	; 0x6c00
 bb4:	696e695f 	stmdbvs	lr!, {r0, r1, r2, r3, r4, r6, r8, fp, sp, lr}^
 bb8:	6d6b0074 	stclvs	0, cr0, [fp, #-464]!	; 0xfffffe30
 bbc:	6f6c6c61 	svcvs	0x006c6c61
 bc0:	6c615f63 	stclvs	15, cr5, [r1], #-396	; 0xfffffe74
 bc4:	656e6769 	strbvs	r6, [lr, #-1897]!	; 0xfffff897
 bc8:	6f640064 	svcvs	0x00640064
 bcc:	656c6275 	strbvs	r6, [ip, #-629]!	; 0xfffffd8b
 bd0:	72666b00 	rsbvc	r6, r6, #0, 22
 bd4:	615f6565 	cmpvs	pc, r5, ror #10
 bd8:	6b006c6c 	blvs	1bd90 <__bss_end__+0x11d30>
 bdc:	65657266 	strbvs	r7, [r5, #-614]!	; 0xfffffd9a
 be0:	7466615f 	strbtvc	r6, [r6], #-351	; 0xfffffea1
 be4:	6b007265 	blvs	1d580 <__bss_end__+0x13520>
 be8:	6c6c616d 	stfvse	f6, [ip], #-436	; 0xfffffe4c
 bec:	685f636f 	ldmdavs	pc, {r0, r1, r2, r3, r5, r6, r8, r9, sp, lr}^	; <UNPREDICTABLE>
 bf0:	5f706165 	svcpl	0x00706165
 bf4:	00727470 	rsbseq	r7, r2, r0, ror r4
 bf8:	67696c61 	strbvs	r6, [r9, -r1, ror #24]!
 bfc:	6e656d6e 	cdpvs	13, 6, cr6, cr5, cr14, {3}
 c00:	5f5f0074 	svcpl	0x005f0074
 c04:	70616568 	rsbvc	r6, r1, r8, ror #10
 c08:	6174735f 	cmnvs	r4, pc, asr r3
 c0c:	5f5f7472 	svcpl	0x005f7472
 c10:	616d6b00 	cmnvs	sp, r0, lsl #22
 c14:	636f6c6c 	cmnvs	pc, #108, 24	; 0x6c00
 c18:	6165685f 	cmnvs	r5, pc, asr r8
 c1c:	74735f70 	ldrbtvc	r5, [r3], #-3952	; 0xfffff090
 c20:	00747261 	rsbseq	r7, r4, r1, ror #4
 c24:	6464615f 	strbtvs	r6, [r4], #-351	; 0xfffffea1
 c28:	6d6b0072 	stclvs	0, cr0, [fp, #-456]!	; 0xfffffe38
 c2c:	6f6c6c61 	svcvs	0x006c6c61
 c30:	65685f63 	strbvs	r5, [r8, #-3939]!	; 0xfffff09d
 c34:	655f7061 	ldrbvs	r7, [pc, #-97]	; bdb <_start-0x7425>
 c38:	Address 0x0000000000000c38 is out of bounds.


Disassembly of section .debug_frame:

00000000 <.debug_frame>:
   0:	0000000c 	andeq	r0, r0, ip
   4:	ffffffff 			; <UNDEFINED> instruction: 0xffffffff
   8:	7c020001 	stcvc	0, cr0, [r2], {1}
   c:	000d0c0e 	andeq	r0, sp, lr, lsl #24
  10:	00000018 	andeq	r0, r0, r8, lsl r0
  14:	00000000 	andeq	r0, r0, r0
  18:	00008010 	andeq	r8, r0, r0, lsl r0
  1c:	000000d4 	ldrdeq	r0, [r0], -r4
  20:	84100e42 	ldrhi	r0, [r0], #-3650	; 0xfffff1be
  24:	86038504 	strhi	r8, [r3], -r4, lsl #10
  28:	00018e02 	andeq	r8, r1, r2, lsl #28
  2c:	0000000c 	andeq	r0, r0, ip
  30:	ffffffff 			; <UNDEFINED> instruction: 0xffffffff
  34:	7c020001 	stcvc	0, cr0, [r2], {1}
  38:	000d0c0e 	andeq	r0, sp, lr, lsl #24
  3c:	0000000c 	andeq	r0, r0, ip
  40:	0000002c 	andeq	r0, r0, ip, lsr #32
  44:	000080e4 	andeq	r8, r0, r4, ror #1
  48:	00000008 	andeq	r0, r0, r8
  4c:	00000014 	andeq	r0, r0, r4, lsl r0
  50:	0000002c 	andeq	r0, r0, ip, lsr #32
  54:	000080ec 	andeq	r8, r0, ip, ror #1
  58:	00000010 	andeq	r0, r0, r0, lsl r0
  5c:	84080e42 	strhi	r0, [r8], #-3650	; 0xfffff1be
  60:	00018e02 	andeq	r8, r1, r2, lsl #28
  64:	00000014 	andeq	r0, r0, r4, lsl r0
  68:	0000002c 	andeq	r0, r0, ip, lsr #32
  6c:	000080fc 	strdeq	r8, [r0], -ip
  70:	00000018 	andeq	r0, r0, r8, lsl r0
  74:	84080e42 	strhi	r0, [r8], #-3650	; 0xfffff1be
  78:	00018e02 	andeq	r8, r1, r2, lsl #28
  7c:	0000000c 	andeq	r0, r0, ip
  80:	0000002c 	andeq	r0, r0, ip, lsr #32
  84:	00008114 	andeq	r8, r0, r4, lsl r1
  88:	0000000c 	andeq	r0, r0, ip
  8c:	0000000c 	andeq	r0, r0, ip
  90:	0000002c 	andeq	r0, r0, ip, lsr #32
  94:	00008120 	andeq	r8, r0, r0, lsr #2
  98:	00000008 	andeq	r0, r0, r8
  9c:	0000001c 	andeq	r0, r0, ip, lsl r0
  a0:	0000002c 	andeq	r0, r0, ip, lsr #32
  a4:	00008128 	andeq	r8, r0, r8, lsr #2
  a8:	0000010c 	andeq	r0, r0, ip, lsl #2
  ac:	84180e42 	ldrhi	r0, [r8], #-3650	; 0xfffff1be
  b0:	86058506 	strhi	r8, [r5], -r6, lsl #10
  b4:	88038704 	stmdahi	r3, {r2, r8, r9, sl, pc}
  b8:	00018e02 	andeq	r8, r1, r2, lsl #28
  bc:	00000014 	andeq	r0, r0, r4, lsl r0
  c0:	0000002c 	andeq	r0, r0, ip, lsr #32
  c4:	00008234 	andeq	r8, r0, r4, lsr r2
  c8:	00000014 	andeq	r0, r0, r4, lsl r0
  cc:	84080e42 	strhi	r0, [r8], #-3650	; 0xfffff1be
  d0:	00018e02 	andeq	r8, r1, r2, lsl #28
  d4:	00000018 	andeq	r0, r0, r8, lsl r0
  d8:	0000002c 	andeq	r0, r0, ip, lsr #32
  dc:	00008248 	andeq	r8, r0, r8, asr #4
  e0:	00000024 	andeq	r0, r0, r4, lsr #32
  e4:	84100e42 	ldrhi	r0, [r0], #-3650	; 0xfffff1be
  e8:	86038504 	strhi	r8, [r3], -r4, lsl #10
  ec:	00018e02 	andeq	r8, r1, r2, lsl #28
  f0:	00000018 	andeq	r0, r0, r8, lsl r0
  f4:	0000002c 	andeq	r0, r0, ip, lsr #32
  f8:	0000826c 	andeq	r8, r0, ip, ror #4
  fc:	000000e8 	andeq	r0, r0, r8, ror #1
 100:	84100e42 	ldrhi	r0, [r0], #-3650	; 0xfffff1be
 104:	86038504 	strhi	r8, [r3], -r4, lsl #10
 108:	00018e02 	andeq	r8, r1, r2, lsl #28
 10c:	0000001c 	andeq	r0, r0, ip, lsl r0
 110:	0000002c 	andeq	r0, r0, ip, lsr #32
 114:	00008354 	andeq	r8, r0, r4, asr r3
 118:	000000fc 	strdeq	r0, [r0], -ip
 11c:	84180e42 	ldrhi	r0, [r8], #-3650	; 0xfffff1be
 120:	86058506 	strhi	r8, [r5], -r6, lsl #10
 124:	88038704 	stmdahi	r3, {r2, r8, r9, sl, pc}
 128:	00018e02 	andeq	r8, r1, r2, lsl #28
 12c:	00000018 	andeq	r0, r0, r8, lsl r0
 130:	0000002c 	andeq	r0, r0, ip, lsr #32
 134:	00008450 	andeq	r8, r0, r0, asr r4
 138:	00000064 	andeq	r0, r0, r4, rrx
 13c:	84100e42 	ldrhi	r0, [r0], #-3650	; 0xfffff1be
 140:	86038504 	strhi	r8, [r3], -r4, lsl #10
 144:	00018e02 	andeq	r8, r1, r2, lsl #28
 148:	00000018 	andeq	r0, r0, r8, lsl r0
 14c:	0000002c 	andeq	r0, r0, ip, lsr #32
 150:	000084b4 			; <UNDEFINED> instruction: 0x000084b4
 154:	00000074 	andeq	r0, r0, r4, ror r0
 158:	84100e42 	ldrhi	r0, [r0], #-3650	; 0xfffff1be
 15c:	86038504 	strhi	r8, [r3], -r4, lsl #10
 160:	00018e02 	andeq	r8, r1, r2, lsl #28
 164:	0000001c 	andeq	r0, r0, ip, lsl r0
 168:	0000002c 	andeq	r0, r0, ip, lsr #32
 16c:	00008528 	andeq	r8, r0, r8, lsr #10
 170:	000000b8 	strheq	r0, [r0], -r8
 174:	84180e42 	ldrhi	r0, [r8], #-3650	; 0xfffff1be
 178:	86058506 	strhi	r8, [r5], -r6, lsl #10
 17c:	88038704 	stmdahi	r3, {r2, r8, r9, sl, pc}
 180:	00018e02 	andeq	r8, r1, r2, lsl #28
 184:	00000028 	andeq	r0, r0, r8, lsr #32
 188:	0000002c 	andeq	r0, r0, ip, lsr #32
 18c:	000085e0 	andeq	r8, r0, r0, ror #11
 190:	0000021c 	andeq	r0, r0, ip, lsl r2
 194:	841c0e42 	ldrhi	r0, [ip], #-3650	; 0xfffff1be
 198:	86068507 	strhi	r8, [r6], -r7, lsl #10
 19c:	88048705 	stmdahi	r4, {r0, r2, r8, r9, sl, pc}
 1a0:	8e028903 	vmlahi.f16	s16, s4, s6	; <UNPREDICTABLE>
 1a4:	280e4201 	stmdacs	lr, {r0, r9, lr}
 1a8:	0e0a8e02 	cdpeq	14, 0, cr8, cr10, cr2, {0}
 1ac:	000b421c 	andeq	r4, fp, ip, lsl r2
 1b0:	00000014 	andeq	r0, r0, r4, lsl r0
 1b4:	0000002c 	andeq	r0, r0, ip, lsr #32
 1b8:	000087fc 	strdeq	r8, [r0], -ip
 1bc:	00000030 	andeq	r0, r0, r0, lsr r0
 1c0:	84080e42 	strhi	r0, [r8], #-3650	; 0xfffff1be
 1c4:	00018e02 	andeq	r8, r1, r2, lsl #28
 1c8:	00000014 	andeq	r0, r0, r4, lsl r0
 1cc:	0000002c 	andeq	r0, r0, ip, lsr #32
 1d0:	0000882c 	andeq	r8, r0, ip, lsr #16
 1d4:	0000004c 	andeq	r0, r0, ip, asr #32
 1d8:	84080e42 	strhi	r0, [r8], #-3650	; 0xfffff1be
 1dc:	00018e02 	andeq	r8, r1, r2, lsl #28
 1e0:	0000001c 	andeq	r0, r0, ip, lsl r0
 1e4:	0000002c 	andeq	r0, r0, ip, lsr #32
 1e8:	00008878 	andeq	r8, r0, r8, ror r8
 1ec:	00000144 	andeq	r0, r0, r4, asr #2
 1f0:	84180e42 	ldrhi	r0, [r8], #-3650	; 0xfffff1be
 1f4:	86058506 	strhi	r8, [r5], -r6, lsl #10
 1f8:	88038704 	stmdahi	r3, {r2, r8, r9, sl, pc}
 1fc:	00018e02 	andeq	r8, r1, r2, lsl #28
 200:	0000000c 	andeq	r0, r0, ip
 204:	ffffffff 			; <UNDEFINED> instruction: 0xffffffff
 208:	7c020001 	stcvc	0, cr0, [r2], {1}
 20c:	000d0c0e 	andeq	r0, sp, lr, lsl #24
 210:	00000018 	andeq	r0, r0, r8, lsl r0
 214:	00000200 	andeq	r0, r0, r0, lsl #4
 218:	000089bc 			; <UNDEFINED> instruction: 0x000089bc
 21c:	000000ec 	andeq	r0, r0, ip, ror #1
 220:	8e040e48 	cdphi	14, 0, cr0, cr4, cr8, {2}
 224:	0e6a0201 	cdpeq	2, 6, cr0, cr10, cr1, {0}
 228:	0000ce00 	andeq	ip, r0, r0, lsl #28
 22c:	0000000c 	andeq	r0, r0, ip
 230:	ffffffff 			; <UNDEFINED> instruction: 0xffffffff
 234:	7c020001 	stcvc	0, cr0, [r2], {1}
 238:	000d0c0e 	andeq	r0, sp, lr, lsl #24
 23c:	0000000c 	andeq	r0, r0, ip
 240:	0000022c 	andeq	r0, r0, ip, lsr #4
 244:	00008aa8 	andeq	r8, r0, r8, lsr #21
 248:	00000018 	andeq	r0, r0, r8, lsl r0
 24c:	0000000c 	andeq	r0, r0, ip
 250:	ffffffff 			; <UNDEFINED> instruction: 0xffffffff
 254:	7c020001 	stcvc	0, cr0, [r2], {1}
 258:	000d0c0e 	andeq	r0, sp, lr, lsl #24
 25c:	00000034 	andeq	r0, r0, r4, lsr r0
 260:	0000024c 	andeq	r0, r0, ip, asr #4
 264:	00008ac0 	andeq	r8, r0, r0, asr #21
 268:	00000058 	andeq	r0, r0, r8, asr r0
 26c:	80100e42 	andshi	r0, r0, r2, asr #28
 270:	82038104 	andhi	r8, r3, #4, 2
 274:	42018302 	andmi	r8, r1, #134217728	; 0x8000000
 278:	07841c0e 	streq	r1, [r4, lr, lsl #24]
 27c:	058e0685 	streq	r0, [lr, #1669]	; 0x685
 280:	5c280e42 	stcpl	14, cr0, [r8], #-264	; 0xfffffef8
 284:	ce421c0e 	cdpgt	12, 4, cr1, cr2, cr14, {0}
 288:	100ec4c5 	andne	ip, lr, r5, asr #9
 28c:	c1c2c342 	bicgt	ip, r2, r2, asr #6
 290:	00000ec0 	andeq	r0, r0, r0, asr #29
 294:	0000000c 	andeq	r0, r0, ip
 298:	ffffffff 			; <UNDEFINED> instruction: 0xffffffff
 29c:	7c020001 	stcvc	0, cr0, [r2], {1}
 2a0:	000d0c0e 	andeq	r0, sp, lr, lsl #24
 2a4:	00000014 	andeq	r0, r0, r4, lsl r0
 2a8:	00000294 	muleq	r0, r4, r2
 2ac:	00008b18 	andeq	r8, r0, r8, lsl fp
 2b0:	00000014 	andeq	r0, r0, r4, lsl r0
 2b4:	84080e42 	strhi	r0, [r8], #-3650	; 0xfffff1be
 2b8:	00018e02 	andeq	r8, r1, r2, lsl #28
 2bc:	0000000c 	andeq	r0, r0, ip
 2c0:	00000294 	muleq	r0, r4, r2
 2c4:	00008b2c 	andeq	r8, r0, ip, lsr #22
 2c8:	00000018 	andeq	r0, r0, r8, lsl r0
 2cc:	0000000c 	andeq	r0, r0, ip
 2d0:	00000294 	muleq	r0, r4, r2
 2d4:	00008b44 	andeq	r8, r0, r4, asr #22
 2d8:	00000010 	andeq	r0, r0, r0, lsl r0
 2dc:	0000000c 	andeq	r0, r0, ip
 2e0:	ffffffff 			; <UNDEFINED> instruction: 0xffffffff
 2e4:	7c020001 	stcvc	0, cr0, [r2], {1}
 2e8:	000d0c0e 	andeq	r0, sp, lr, lsl #24
 2ec:	00000014 	andeq	r0, r0, r4, lsl r0
 2f0:	000002dc 	ldrdeq	r0, [r0], -ip
 2f4:	00008b54 	andeq	r8, r0, r4, asr fp
 2f8:	00000034 	andeq	r0, r0, r4, lsr r0
 2fc:	84080e42 	strhi	r0, [r8], #-3650	; 0xfffff1be
 300:	00018e02 	andeq	r8, r1, r2, lsl #28
 304:	0000000c 	andeq	r0, r0, ip
 308:	ffffffff 			; <UNDEFINED> instruction: 0xffffffff
 30c:	7c020001 	stcvc	0, cr0, [r2], {1}
 310:	000d0c0e 	andeq	r0, sp, lr, lsl #24
 314:	0000000c 	andeq	r0, r0, ip
 318:	00000304 	andeq	r0, r0, r4, lsl #6
 31c:	00008b88 	andeq	r8, r0, r8, lsl #23
 320:	00000014 	andeq	r0, r0, r4, lsl r0
 324:	0000000c 	andeq	r0, r0, ip
 328:	00000304 	andeq	r0, r0, r4, lsl #6
 32c:	00008b9c 	muleq	r0, ip, fp
 330:	00000024 	andeq	r0, r0, r4, lsr #32
 334:	0000000c 	andeq	r0, r0, ip
 338:	00000304 	andeq	r0, r0, r4, lsl #6
 33c:	00008bc0 	andeq	r8, r0, r0, asr #23
 340:	00000038 	andeq	r0, r0, r8, lsr r0
 344:	00000024 	andeq	r0, r0, r4, lsr #32
 348:	00000304 	andeq	r0, r0, r4, lsl #6
 34c:	00008bf8 	strdeq	r8, [r0], -r8	; <UNPREDICTABLE>
 350:	000001ac 	andeq	r0, r0, ip, lsr #3
 354:	84140e42 	ldrhi	r0, [r4], #-3650	; 0xfffff1be
 358:	86048505 	strhi	r8, [r4], -r5, lsl #10
 35c:	8e028703 	cdphi	7, 0, cr8, cr2, cr3, {0}
 360:	580e4201 	stmdapl	lr, {r0, r9, lr}
 364:	0e0a9a02 	vmlaeq.f32	s18, s20, s4
 368:	000b4214 	andeq	r4, fp, r4, lsl r2
 36c:	00000014 	andeq	r0, r0, r4, lsl r0
 370:	00000304 	andeq	r0, r0, r4, lsl #6
 374:	00008da4 	andeq	r8, r0, r4, lsr #27
 378:	00000054 	andeq	r0, r0, r4, asr r0
 37c:	84080e52 	strhi	r0, [r8], #-3666	; 0xfffff1ae
 380:	00018e02 	andeq	r8, r1, r2, lsl #28
 384:	00000028 	andeq	r0, r0, r8, lsr #32
 388:	00000304 	andeq	r0, r0, r4, lsl #6
 38c:	00008df8 	strdeq	r8, [r0], -r8	; <UNPREDICTABLE>
 390:	000002b0 			; <UNDEFINED> instruction: 0x000002b0
 394:	841c0e42 	ldrhi	r0, [ip], #-3650	; 0xfffff1be
 398:	86068507 	strhi	r8, [r6], -r7, lsl #10
 39c:	88048705 	stmdahi	r4, {r0, r2, r8, r9, sl, pc}
 3a0:	8e028903 	vmlahi.f16	s16, s4, s6	; <UNPREDICTABLE>
 3a4:	b00e4201 	andlt	r4, lr, r1, lsl #4
 3a8:	01480301 	cmpeq	r8, r1, lsl #6
 3ac:	00001c0e 	andeq	r1, r0, lr, lsl #24
 3b0:	0000000c 	andeq	r0, r0, ip
 3b4:	ffffffff 			; <UNDEFINED> instruction: 0xffffffff
 3b8:	7c020001 	stcvc	0, cr0, [r2], {1}
 3bc:	000d0c0e 	andeq	r0, sp, lr, lsl #24
 3c0:	00000014 	andeq	r0, r0, r4, lsl r0
 3c4:	000003b0 			; <UNDEFINED> instruction: 0x000003b0
 3c8:	000090a8 	andeq	r9, r0, r8, lsr #1
 3cc:	00000028 	andeq	r0, r0, r8, lsr #32
 3d0:	84080e42 	strhi	r0, [r8], #-3650	; 0xfffff1be
 3d4:	00018e02 	andeq	r8, r1, r2, lsl #28
 3d8:	0000000c 	andeq	r0, r0, ip
 3dc:	ffffffff 			; <UNDEFINED> instruction: 0xffffffff
 3e0:	7c020001 	stcvc	0, cr0, [r2], {1}
 3e4:	000d0c0e 	andeq	r0, sp, lr, lsl #24
 3e8:	00000014 	andeq	r0, r0, r4, lsl r0
 3ec:	000003d8 	ldrdeq	r0, [r0], -r8
 3f0:	000090d0 	ldrdeq	r9, [r0], -r0
 3f4:	0000002c 	andeq	r0, r0, ip, lsr #32
 3f8:	84080e42 	strhi	r0, [r8], #-3650	; 0xfffff1be
 3fc:	00018e02 	andeq	r8, r1, r2, lsl #28
 400:	0000000c 	andeq	r0, r0, ip
 404:	ffffffff 			; <UNDEFINED> instruction: 0xffffffff
 408:	7c020001 	stcvc	0, cr0, [r2], {1}
 40c:	000d0c0e 	andeq	r0, sp, lr, lsl #24
 410:	0000000c 	andeq	r0, r0, ip
 414:	00000400 	andeq	r0, r0, r0, lsl #8
 418:	000090fc 	strdeq	r9, [r0], -ip
 41c:	00000018 	andeq	r0, r0, r8, lsl r0
 420:	0000000c 	andeq	r0, r0, ip
 424:	00000400 	andeq	r0, r0, r0, lsl #8
 428:	00009114 	andeq	r9, r0, r4, lsl r1
 42c:	00000014 	andeq	r0, r0, r4, lsl r0
 430:	00000014 	andeq	r0, r0, r4, lsl r0
 434:	00000400 	andeq	r0, r0, r0, lsl #8
 438:	00009128 	andeq	r9, r0, r8, lsr #2
 43c:	0000004c 	andeq	r0, r0, ip, asr #32
 440:	84080e42 	strhi	r0, [r8], #-3650	; 0xfffff1be
 444:	00018e02 	andeq	r8, r1, r2, lsl #28
 448:	0000000c 	andeq	r0, r0, ip
 44c:	ffffffff 			; <UNDEFINED> instruction: 0xffffffff
 450:	7c020001 	stcvc	0, cr0, [r2], {1}
 454:	000d0c0e 	andeq	r0, sp, lr, lsl #24
 458:	0000000c 	andeq	r0, r0, ip
 45c:	00000448 	andeq	r0, r0, r8, asr #8
 460:	00009174 	andeq	r9, r0, r4, ror r1
 464:	00000018 	andeq	r0, r0, r8, lsl r0
 468:	00000014 	andeq	r0, r0, r4, lsl r0
 46c:	00000448 	andeq	r0, r0, r8, asr #8
 470:	0000918c 	andeq	r9, r0, ip, lsl #3
 474:	00000014 	andeq	r0, r0, r4, lsl r0
 478:	84080e42 	strhi	r0, [r8], #-3650	; 0xfffff1be
 47c:	00018e02 	andeq	r8, r1, r2, lsl #28
 480:	00000014 	andeq	r0, r0, r4, lsl r0
 484:	00000448 	andeq	r0, r0, r8, asr #8
 488:	000091a0 	andeq	r9, r0, r0, lsr #3
 48c:	0000000c 	andeq	r0, r0, ip
 490:	84080e42 	strhi	r0, [r8], #-3650	; 0xfffff1be
 494:	00018e02 	andeq	r8, r1, r2, lsl #28
 498:	00000018 	andeq	r0, r0, r8, lsl r0
 49c:	00000448 	andeq	r0, r0, r8, asr #8
 4a0:	000091ac 	andeq	r9, r0, ip, lsr #3
 4a4:	00000024 	andeq	r0, r0, r4, lsr #32
 4a8:	84100e42 	ldrhi	r0, [r0], #-3650	; 0xfffff1be
 4ac:	86038504 	strhi	r8, [r3], -r4, lsl #10
 4b0:	00018e02 	andeq	r8, r1, r2, lsl #28
 4b4:	00000014 	andeq	r0, r0, r4, lsl r0
 4b8:	00000448 	andeq	r0, r0, r8, asr #8
 4bc:	000091d0 	ldrdeq	r9, [r0], -r0
 4c0:	00000018 	andeq	r0, r0, r8, lsl r0
 4c4:	84080e42 	strhi	r0, [r8], #-3650	; 0xfffff1be
 4c8:	00018e02 	andeq	r8, r1, r2, lsl #28
 4cc:	00000014 	andeq	r0, r0, r4, lsl r0
 4d0:	00000448 	andeq	r0, r0, r8, asr #8
 4d4:	000091e8 	andeq	r9, r0, r8, ror #3
 4d8:	00000018 	andeq	r0, r0, r8, lsl r0
 4dc:	84080e42 	strhi	r0, [r8], #-3650	; 0xfffff1be
 4e0:	00018e02 	andeq	r8, r1, r2, lsl #28
 4e4:	0000000c 	andeq	r0, r0, ip
 4e8:	ffffffff 			; <UNDEFINED> instruction: 0xffffffff
 4ec:	7c020001 	stcvc	0, cr0, [r2], {1}
 4f0:	000d0c0e 	andeq	r0, sp, lr, lsl #24
 4f4:	00000018 	andeq	r0, r0, r8, lsl r0
 4f8:	000004e4 	andeq	r0, r0, r4, ror #9
 4fc:	0000924c 	andeq	r9, r0, ip, asr #4
 500:	00000020 	andeq	r0, r0, r0, lsr #32
 504:	84100e42 	ldrhi	r0, [r0], #-3650	; 0xfffff1be
 508:	86038504 	strhi	r8, [r3], -r4, lsl #10
 50c:	00018e02 	andeq	r8, r1, r2, lsl #28
 510:	00000014 	andeq	r0, r0, r4, lsl r0
 514:	000004e4 	andeq	r0, r0, r4, ror #9
 518:	0000926c 	andeq	r9, r0, ip, ror #4
 51c:	000000b0 	strheq	r0, [r0], -r0	; <UNPREDICTABLE>
 520:	84080e42 	strhi	r0, [r8], #-3650	; 0xfffff1be
 524:	00018e02 	andeq	r8, r1, r2, lsl #28
 528:	00000014 	andeq	r0, r0, r4, lsl r0
 52c:	000004e4 	andeq	r0, r0, r4, ror #9
 530:	0000931c 	andeq	r9, r0, ip, lsl r3
 534:	00000018 	andeq	r0, r0, r8, lsl r0
 538:	84080e42 	strhi	r0, [r8], #-3650	; 0xfffff1be
 53c:	00018e02 	andeq	r8, r1, r2, lsl #28
 540:	00000014 	andeq	r0, r0, r4, lsl r0
 544:	000004e4 	andeq	r0, r0, r4, ror #9
 548:	00009334 	andeq	r9, r0, r4, lsr r3
 54c:	00000020 	andeq	r0, r0, r0, lsr #32
 550:	84080e42 	strhi	r0, [r8], #-3650	; 0xfffff1be
 554:	00018e02 	andeq	r8, r1, r2, lsl #28
 558:	00000014 	andeq	r0, r0, r4, lsl r0
 55c:	000004e4 	andeq	r0, r0, r4, ror #9
 560:	00009354 	andeq	r9, r0, r4, asr r3
 564:	00000030 	andeq	r0, r0, r0, lsr r0
 568:	84080e42 	strhi	r0, [r8], #-3650	; 0xfffff1be
 56c:	00018e02 	andeq	r8, r1, r2, lsl #28
 570:	00000014 	andeq	r0, r0, r4, lsl r0
 574:	000004e4 	andeq	r0, r0, r4, ror #9
 578:	00009384 	andeq	r9, r0, r4, lsl #7
 57c:	00000030 	andeq	r0, r0, r0, lsr r0
 580:	84080e42 	strhi	r0, [r8], #-3650	; 0xfffff1be
 584:	00018e02 	andeq	r8, r1, r2, lsl #28
 588:	00000014 	andeq	r0, r0, r4, lsl r0
 58c:	000004e4 	andeq	r0, r0, r4, ror #9
 590:	000093b4 			; <UNDEFINED> instruction: 0x000093b4
 594:	00000010 	andeq	r0, r0, r0, lsl r0
 598:	84080e42 	strhi	r0, [r8], #-3650	; 0xfffff1be
 59c:	00018e02 	andeq	r8, r1, r2, lsl #28
 5a0:	0000000c 	andeq	r0, r0, ip
 5a4:	ffffffff 			; <UNDEFINED> instruction: 0xffffffff
 5a8:	7c020001 	stcvc	0, cr0, [r2], {1}
 5ac:	000d0c0e 	andeq	r0, sp, lr, lsl #24
 5b0:	00000018 	andeq	r0, r0, r8, lsl r0
 5b4:	000005a0 	andeq	r0, r0, r0, lsr #11
 5b8:	000093c4 	andeq	r9, r0, r4, asr #7
 5bc:	00000068 	andeq	r0, r0, r8, rrx
 5c0:	84100e4a 	ldrhi	r0, [r0], #-3658	; 0xfffff1b6
 5c4:	86038504 	strhi	r8, [r3], -r4, lsl #10
 5c8:	00018e02 	andeq	r8, r1, r2, lsl #28
 5cc:	00000014 	andeq	r0, r0, r4, lsl r0
 5d0:	000005a0 	andeq	r0, r0, r0, lsr #11
 5d4:	0000942c 	andeq	r9, r0, ip, lsr #8
 5d8:	00000010 	andeq	r0, r0, r0, lsl r0
 5dc:	84080e42 	strhi	r0, [r8], #-3650	; 0xfffff1be
 5e0:	00018e02 	andeq	r8, r1, r2, lsl #28
 5e4:	00000014 	andeq	r0, r0, r4, lsl r0
 5e8:	000005a0 	andeq	r0, r0, r0, lsr #11
 5ec:	0000943c 	andeq	r9, r0, ip, lsr r4
 5f0:	00000024 	andeq	r0, r0, r4, lsr #32
 5f4:	84080e46 	strhi	r0, [r8], #-3654	; 0xfffff1ba
 5f8:	00018e02 	andeq	r8, r1, r2, lsl #28
 5fc:	00000014 	andeq	r0, r0, r4, lsl r0
 600:	000005a0 	andeq	r0, r0, r0, lsr #11
 604:	00009460 	andeq	r9, r0, r0, ror #8
 608:	00000024 	andeq	r0, r0, r4, lsr #32
 60c:	84080e46 	strhi	r0, [r8], #-3654	; 0xfffff1ba
 610:	00018e02 	andeq	r8, r1, r2, lsl #28
 614:	00000014 	andeq	r0, r0, r4, lsl r0
 618:	000005a0 	andeq	r0, r0, r0, lsr #11
 61c:	00009484 	andeq	r9, r0, r4, lsl #9
 620:	00000010 	andeq	r0, r0, r0, lsl r0
 624:	84080e42 	strhi	r0, [r8], #-3650	; 0xfffff1be
 628:	00018e02 	andeq	r8, r1, r2, lsl #28
 62c:	00000014 	andeq	r0, r0, r4, lsl r0
 630:	000005a0 	andeq	r0, r0, r0, lsr #11
 634:	00009494 	muleq	r0, r4, r4
 638:	0000001c 	andeq	r0, r0, ip, lsl r0
 63c:	84080e42 	strhi	r0, [r8], #-3650	; 0xfffff1be
 640:	00018e02 	andeq	r8, r1, r2, lsl #28
 644:	00000018 	andeq	r0, r0, r8, lsl r0
 648:	000005a0 	andeq	r0, r0, r0, lsr #11
 64c:	000094b0 			; <UNDEFINED> instruction: 0x000094b0
 650:	00000034 	andeq	r0, r0, r4, lsr r0
 654:	84080e46 	strhi	r0, [r8], #-3654	; 0xfffff1ba
 658:	4e018e02 	cdpmi	14, 0, cr8, cr1, cr2, {0}
 65c:	cec4000e 	cdpgt	0, 12, cr0, cr4, cr14, {0}
 660:	0000000c 	andeq	r0, r0, ip
 664:	ffffffff 			; <UNDEFINED> instruction: 0xffffffff
 668:	7c020001 	stcvc	0, cr0, [r2], {1}
 66c:	000d0c0e 	andeq	r0, sp, lr, lsl #24
 670:	0000000c 	andeq	r0, r0, ip
 674:	00000660 	andeq	r0, r0, r0, ror #12
 678:	000094e4 	andeq	r9, r0, r4, ror #9
 67c:	00000010 	andeq	r0, r0, r0, lsl r0
 680:	0000000c 	andeq	r0, r0, ip
 684:	00000660 	andeq	r0, r0, r0, ror #12
 688:	000094f4 	strdeq	r9, [r0], -r4
 68c:	0000000c 	andeq	r0, r0, ip
 690:	00000014 	andeq	r0, r0, r4, lsl r0
 694:	00000660 	andeq	r0, r0, r0, ror #12
 698:	00009500 	andeq	r9, r0, r0, lsl #10
 69c:	00000050 	andeq	r0, r0, r0, asr r0
 6a0:	84080e52 	strhi	r0, [r8], #-3666	; 0xfffff1ae
 6a4:	00018e02 	andeq	r8, r1, r2, lsl #28
 6a8:	00000014 	andeq	r0, r0, r4, lsl r0
 6ac:	00000660 	andeq	r0, r0, r0, ror #12
 6b0:	00009550 	andeq	r9, r0, r0, asr r5
 6b4:	00000064 	andeq	r0, r0, r4, rrx
 6b8:	84080e42 	strhi	r0, [r8], #-3650	; 0xfffff1be
 6bc:	00018e02 	andeq	r8, r1, r2, lsl #28
 6c0:	0000000c 	andeq	r0, r0, ip
 6c4:	00000660 	andeq	r0, r0, r0, ror #12
 6c8:	000095b4 			; <UNDEFINED> instruction: 0x000095b4
 6cc:	00000004 	andeq	r0, r0, r4
 6d0:	00000014 	andeq	r0, r0, r4, lsl r0
 6d4:	00000660 	andeq	r0, r0, r0, ror #12
 6d8:	000095b8 			; <UNDEFINED> instruction: 0x000095b8
 6dc:	0000000c 	andeq	r0, r0, ip
 6e0:	84080e42 	strhi	r0, [r8], #-3650	; 0xfffff1be
 6e4:	00018e02 	andeq	r8, r1, r2, lsl #28
 6e8:	00000014 	andeq	r0, r0, r4, lsl r0
 6ec:	00000660 	andeq	r0, r0, r0, ror #12
 6f0:	000095c4 	andeq	r9, r0, r4, asr #11
 6f4:	0000008c 	andeq	r0, r0, ip, lsl #1
 6f8:	84080e42 	strhi	r0, [r8], #-3650	; 0xfffff1be
 6fc:	00018e02 	andeq	r8, r1, r2, lsl #28
 700:	0000000c 	andeq	r0, r0, ip
 704:	00000660 	andeq	r0, r0, r0, ror #12
 708:	00009650 	andeq	r9, r0, r0, asr r6
 70c:	00000004 	andeq	r0, r0, r4
 710:	0000000c 	andeq	r0, r0, ip
 714:	00000660 	andeq	r0, r0, r0, ror #12
 718:	00009654 	andeq	r9, r0, r4, asr r6
 71c:	00000014 	andeq	r0, r0, r4, lsl r0
 720:	0000000c 	andeq	r0, r0, ip
 724:	00000660 	andeq	r0, r0, r0, ror #12
 728:	00009668 	andeq	r9, r0, r8, ror #12
 72c:	00000010 	andeq	r0, r0, r0, lsl r0

Disassembly of section .debug_ranges:

00000000 <.debug_ranges>:
   0:	000000a0 	andeq	r0, r0, r0, lsr #1
   4:	000000e8 	andeq	r0, r0, r8, ror #1
   8:	00000100 	andeq	r0, r0, r0, lsl #2
   c:	0000012c 	andeq	r0, r0, ip, lsr #2
	...
  18:	000001d4 	ldrdeq	r0, [r0], -r4
  1c:	0000021c 	andeq	r0, r0, ip, lsl r2
  20:	00000220 	andeq	r0, r0, r0, lsr #4
  24:	00000250 	andeq	r0, r0, r0, asr r2
	...
  30:	000002d0 	ldrdeq	r0, [r0], -r0	; <UNPREDICTABLE>
  34:	00000318 	andeq	r0, r0, r8, lsl r3
  38:	0000031c 	andeq	r0, r0, ip, lsl r3
  3c:	0000034c 	andeq	r0, r0, ip, asr #6
	...
  48:	000007c8 	andeq	r0, r0, r8, asr #15
  4c:	000007d0 	ldrdeq	r0, [r0], -r0	; <UNPREDICTABLE>
  50:	000007d8 	ldrdeq	r0, [r0], -r8
  54:	000007e4 	andeq	r0, r0, r4, ror #15
  58:	0000080c 	andeq	r0, r0, ip, lsl #16
  5c:	000008ac 	andeq	r0, r0, ip, lsr #17
	...
  68:	000090fc 	strdeq	r9, [r0], -ip
  6c:	00009174 	andeq	r9, r0, r4, ror r1
	...
