
part1-test5.elf:     file format elf32-littlearm


Disassembly of section .text:

00008000 <_start>:
    8000:	e3a0d302 	mov	sp, #134217728	; 0x8000000
    8004:	e3a0b000 	mov	fp, #0
    8008:	eb00044c 	bl	9140 <_cstart>
    800c:	eb000461 	bl	9198 <rpi_reboot>

00008010 <notmain>:
    8010:	e92d41f0 	push	{r4, r5, r6, r7, r8, lr}
    8014:	e59f00c4 	ldr	r0, [pc, #196]	; 80e0 <notmain+0xd0>
    8018:	eb0002ad 	bl	8ad4 <printk>
    801c:	e3a00601 	mov	r0, #1048576	; 0x100000
    8020:	eb000552 	bl	9570 <kmalloc_init_set_start>
    8024:	e3a00601 	mov	r0, #1048576	; 0x100000
    8028:	eb000564 	bl	95c0 <kmalloc>
    802c:	e3a01601 	mov	r1, #1048576	; 0x100000
    8030:	eb000124 	bl	84c8 <ck_init>
    8034:	eb0002e3 	bl	8bc8 <rpi_rand32>
    8038:	e59f50a4 	ldr	r5, [pc, #164]	; 80e4 <notmain+0xd4>
    803c:	e59f40a4 	ldr	r4, [pc, #164]	; 80e8 <notmain+0xd8>
    8040:	e3a0300e 	mov	r3, #14
    8044:	e1a02005 	mov	r2, r5
    8048:	e1a01004 	mov	r1, r4
    804c:	e1a00b00 	lsl	r0, r0, #22
    8050:	e1a00b20 	lsr	r0, r0, #22
    8054:	eb000166 	bl	85f4 <ckalloc>
    8058:	e1a07000 	mov	r7, r0
    805c:	eb0002d9 	bl	8bc8 <rpi_rand32>
    8060:	e3a0300f 	mov	r3, #15
    8064:	e1a02005 	mov	r2, r5
    8068:	e1a01004 	mov	r1, r4
    806c:	e1a00b00 	lsl	r0, r0, #22
    8070:	e1a00b20 	lsr	r0, r0, #22
    8074:	eb00015e 	bl	85f4 <ckalloc>
    8078:	e1a06000 	mov	r6, r0
    807c:	e3a03011 	mov	r3, #17
    8080:	e1a02005 	mov	r2, r5
    8084:	e1a01004 	mov	r1, r4
    8088:	e1a00007 	mov	r0, r7
    808c:	eb00012a 	bl	853c <ckfree>
    8090:	e3a03012 	mov	r3, #18
    8094:	e1a02005 	mov	r2, r5
    8098:	e1a01004 	mov	r1, r4
    809c:	e1a00006 	mov	r0, r6
    80a0:	eb000125 	bl	853c <ckfree>
    80a4:	eb0001f8 	bl	888c <ck_heap_errors>
    80a8:	e3500000 	cmp	r0, #0
    80ac:	1a000004 	bne	80c4 <notmain+0xb4>
    80b0:	e59f0034 	ldr	r0, [pc, #52]	; 80ec <notmain+0xdc>
    80b4:	eb000286 	bl	8ad4 <printk>
    80b8:	e59f0030 	ldr	r0, [pc, #48]	; 80f0 <notmain+0xe0>
    80bc:	eb000284 	bl	8ad4 <printk>
    80c0:	e8bd81f0 	pop	{r4, r5, r6, r7, r8, pc}
    80c4:	eb00029d 	bl	8b40 <rpi_reset_putc>
    80c8:	e3a03015 	mov	r3, #21
    80cc:	e1a02005 	mov	r2, r5
    80d0:	e1a01004 	mov	r1, r4
    80d4:	e59f0018 	ldr	r0, [pc, #24]	; 80f4 <notmain+0xe4>
    80d8:	eb00027d 	bl	8ad4 <printk>
    80dc:	eb00040d 	bl	9118 <clean_reboot>
    80e0:	00009714 	andeq	r9, r0, r4, lsl r7
    80e4:	00009784 	andeq	r9, r0, r4, lsl #15
    80e8:	0000972c 	andeq	r9, r0, ip, lsr #14
    80ec:	00009760 	andeq	r9, r0, r0, ror #14
    80f0:	00009768 	andeq	r9, r0, r8, ror #14
    80f4:	0000973c 	andeq	r9, r0, ip, lsr r7

000080f8 <b_rz1_ptr>:
    80f8:	e2800038 	add	r0, r0, #56	; 0x38
    80fc:	e12fff1e 	bx	lr

00008100 <b_alloc_ptr>:
    8100:	e92d4010 	push	{r4, lr}
    8104:	ebfffffb 	bl	80f8 <b_rz1_ptr>
    8108:	e2800080 	add	r0, r0, #128	; 0x80
    810c:	e8bd8010 	pop	{r4, pc}

00008110 <b_rz2_ptr>:
    8110:	e92d4010 	push	{r4, lr}
    8114:	e1a04000 	mov	r4, r0
    8118:	ebfffff8 	bl	8100 <b_alloc_ptr>
    811c:	e5943000 	ldr	r3, [r4]
    8120:	e0800003 	add	r0, r0, r3
    8124:	e8bd8010 	pop	{r4, pc}

00008128 <b_rz2_nbytes>:
    8128:	e5900004 	ldr	r0, [r0, #4]
    812c:	e2800080 	add	r0, r0, #128	; 0x80
    8130:	e12fff1e 	bx	lr

00008134 <b_addr_to_hdr>:
    8134:	e24000b8 	sub	r0, r0, #184	; 0xb8
    8138:	e12fff1e 	bx	lr

0000813c <check_free_write>:
    813c:	e92d41f0 	push	{r4, r5, r6, r7, r8, lr}
    8140:	e1a05000 	mov	r5, r0
    8144:	e1a06002 	mov	r6, r2
    8148:	e3a04000 	mov	r4, #0
    814c:	e1540001 	cmp	r4, r1
    8150:	2a000033 	bcs	8224 <check_free_write+0xe8>
    8154:	e7d53004 	ldrb	r3, [r5, r4]
    8158:	e35300fe 	cmp	r3, #254	; 0xfe
    815c:	02844001 	addeq	r4, r4, #1
    8160:	0afffff9 	beq	814c <check_free_write+0x10>
    8164:	e1a00006 	mov	r0, r6
    8168:	ebffffe4 	bl	8100 <b_alloc_ptr>
    816c:	e0450000 	sub	r0, r5, r0
    8170:	e0804004 	add	r4, r0, r4
    8174:	e59f70b0 	ldr	r7, [pc, #176]	; 822c <check_free_write+0xf0>
    8178:	e1a00007 	mov	r0, r7
    817c:	eb000254 	bl	8ad4 <printk>
    8180:	e59f00a8 	ldr	r0, [pc, #168]	; 8230 <check_free_write+0xf4>
    8184:	eb000252 	bl	8ad4 <printk>
    8188:	e1a02004 	mov	r2, r4
    818c:	e1a01005 	mov	r1, r5
    8190:	e59f009c 	ldr	r0, [pc, #156]	; 8234 <check_free_write+0xf8>
    8194:	eb00024e 	bl	8ad4 <printk>
    8198:	e1a00007 	mov	r0, r7
    819c:	eb00024c 	bl	8ad4 <printk>
    81a0:	e5961000 	ldr	r1, [r6]
    81a4:	e59f008c 	ldr	r0, [pc, #140]	; 8238 <check_free_write+0xfc>
    81a8:	eb000249 	bl	8ad4 <printk>
    81ac:	e5963010 	ldr	r3, [r6, #16]
    81b0:	e3530000 	cmp	r3, #0
    81b4:	0a000006 	beq	81d4 <check_free_write+0x98>
    81b8:	e1a00007 	mov	r0, r7
    81bc:	eb000244 	bl	8ad4 <printk>
    81c0:	e5963018 	ldr	r3, [r6, #24]
    81c4:	e5962014 	ldr	r2, [r6, #20]
    81c8:	e5961010 	ldr	r1, [r6, #16]
    81cc:	e59f0068 	ldr	r0, [pc, #104]	; 823c <check_free_write+0x100>
    81d0:	eb00023f 	bl	8ad4 <printk>
    81d4:	e5963008 	ldr	r3, [r6, #8]
    81d8:	e353000c 	cmp	r3, #12
    81dc:	0a000005 	beq	81f8 <check_free_write+0xbc>
    81e0:	e59f0044 	ldr	r0, [pc, #68]	; 822c <check_free_write+0xf0>
    81e4:	eb00023a 	bl	8ad4 <printk>
    81e8:	e59f0050 	ldr	r0, [pc, #80]	; 8240 <check_free_write+0x104>
    81ec:	eb000238 	bl	8ad4 <printk>
    81f0:	e3a00000 	mov	r0, #0
    81f4:	e8bd81f0 	pop	{r4, r5, r6, r7, r8, pc}
    81f8:	e596301c 	ldr	r3, [r6, #28]
    81fc:	e3530000 	cmp	r3, #0
    8200:	0afffff6 	beq	81e0 <check_free_write+0xa4>
    8204:	e59f0020 	ldr	r0, [pc, #32]	; 822c <check_free_write+0xf0>
    8208:	eb000231 	bl	8ad4 <printk>
    820c:	e5963024 	ldr	r3, [r6, #36]	; 0x24
    8210:	e5962020 	ldr	r2, [r6, #32]
    8214:	e596101c 	ldr	r1, [r6, #28]
    8218:	e59f0024 	ldr	r0, [pc, #36]	; 8244 <check_free_write+0x108>
    821c:	eb00022c 	bl	8ad4 <printk>
    8220:	eaffffee 	b	81e0 <check_free_write+0xa4>
    8224:	e3a00001 	mov	r0, #1
    8228:	e8bd81f0 	pop	{r4, r5, r6, r7, r8, pc}
    822c:	00009760 	andeq	r9, r0, r0, ror #14
    8230:	0000978c 	andeq	r9, r0, ip, lsl #15
    8234:	00009794 	muleq	r0, r4, r7
    8238:	000097b8 			; <UNDEFINED> instruction: 0x000097b8
    823c:	000097c4 	andeq	r9, r0, r4, asr #15
    8240:	00009800 	andeq	r9, r0, r0, lsl #16
    8244:	000097e4 	andeq	r9, r0, r4, ror #15

00008248 <mark_mem>:
    8248:	e92d4010 	push	{r4, lr}
    824c:	e1a02001 	mov	r2, r1
    8250:	e3a010fe 	mov	r1, #254	; 0xfe
    8254:	eb000218 	bl	8abc <memset>
    8258:	e8bd8010 	pop	{r4, pc}

0000825c <hdr_cksum>:
    825c:	e92d4070 	push	{r4, r5, r6, lr}
    8260:	e1a04000 	mov	r4, r0
    8264:	e590500c 	ldr	r5, [r0, #12]
    8268:	e3a03000 	mov	r3, #0
    826c:	e580300c 	str	r3, [r0, #12]
    8270:	e3a01038 	mov	r1, #56	; 0x38
    8274:	eb0001d5 	bl	89d0 <fast_hash>
    8278:	e584500c 	str	r5, [r4, #12]
    827c:	e8bd8070 	pop	{r4, r5, r6, pc}

00008280 <check_hdr>:
    8280:	e92d4070 	push	{r4, r5, r6, lr}
    8284:	e1a04000 	mov	r4, r0
    8288:	e5903008 	ldr	r3, [r0, #8]
    828c:	e243300b 	sub	r3, r3, #11
    8290:	e3530001 	cmp	r3, #1
    8294:	8a000003 	bhi	82a8 <check_hdr+0x28>
    8298:	e590500c 	ldr	r5, [r0, #12]
    829c:	ebffffee 	bl	825c <hdr_cksum>
    82a0:	e1550000 	cmp	r5, r0
    82a4:	0a000027 	beq	8348 <check_hdr+0xc8>
    82a8:	e59f50a0 	ldr	r5, [pc, #160]	; 8350 <check_hdr+0xd0>
    82ac:	e1a00005 	mov	r0, r5
    82b0:	eb000207 	bl	8ad4 <printk>
    82b4:	e59f0098 	ldr	r0, [pc, #152]	; 8354 <check_hdr+0xd4>
    82b8:	eb000205 	bl	8ad4 <printk>
    82bc:	e3a02000 	mov	r2, #0
    82c0:	e1a01004 	mov	r1, r4
    82c4:	e59f008c 	ldr	r0, [pc, #140]	; 8358 <check_hdr+0xd8>
    82c8:	eb000201 	bl	8ad4 <printk>
    82cc:	e1a00005 	mov	r0, r5
    82d0:	eb0001ff 	bl	8ad4 <printk>
    82d4:	e5941000 	ldr	r1, [r4]
    82d8:	e59f007c 	ldr	r0, [pc, #124]	; 835c <check_hdr+0xdc>
    82dc:	eb0001fc 	bl	8ad4 <printk>
    82e0:	e5943010 	ldr	r3, [r4, #16]
    82e4:	e3530000 	cmp	r3, #0
    82e8:	0a000006 	beq	8308 <check_hdr+0x88>
    82ec:	e1a00005 	mov	r0, r5
    82f0:	eb0001f7 	bl	8ad4 <printk>
    82f4:	e5943018 	ldr	r3, [r4, #24]
    82f8:	e5942014 	ldr	r2, [r4, #20]
    82fc:	e5941010 	ldr	r1, [r4, #16]
    8300:	e59f0058 	ldr	r0, [pc, #88]	; 8360 <check_hdr+0xe0>
    8304:	eb0001f2 	bl	8ad4 <printk>
    8308:	e5943008 	ldr	r3, [r4, #8]
    830c:	e353000c 	cmp	r3, #12
    8310:	0a000001 	beq	831c <check_hdr+0x9c>
    8314:	e3a00000 	mov	r0, #0
    8318:	e8bd8070 	pop	{r4, r5, r6, pc}
    831c:	e594301c 	ldr	r3, [r4, #28]
    8320:	e3530000 	cmp	r3, #0
    8324:	0afffffa 	beq	8314 <check_hdr+0x94>
    8328:	e59f0020 	ldr	r0, [pc, #32]	; 8350 <check_hdr+0xd0>
    832c:	eb0001e8 	bl	8ad4 <printk>
    8330:	e5943024 	ldr	r3, [r4, #36]	; 0x24
    8334:	e5942020 	ldr	r2, [r4, #32]
    8338:	e594101c 	ldr	r1, [r4, #28]
    833c:	e59f0020 	ldr	r0, [pc, #32]	; 8364 <check_hdr+0xe4>
    8340:	eb0001e3 	bl	8ad4 <printk>
    8344:	eafffff2 	b	8314 <check_hdr+0x94>
    8348:	e3a00001 	mov	r0, #1
    834c:	e8bd8070 	pop	{r4, r5, r6, pc}
    8350:	00009760 	andeq	r9, r0, r0, ror #14
    8354:	0000978c 	andeq	r9, r0, ip, lsl #15
    8358:	00009794 	muleq	r0, r4, r7
    835c:	000097b8 			; <UNDEFINED> instruction: 0x000097b8
    8360:	000097c4 	andeq	r9, r0, r4, asr #15
    8364:	000097e4 	andeq	r9, r0, r4, ror #15

00008368 <check_mem>:
    8368:	e92d41f0 	push	{r4, r5, r6, r7, r8, lr}
    836c:	e1a05000 	mov	r5, r0
    8370:	e1a06002 	mov	r6, r2
    8374:	e3a04000 	mov	r4, #0
    8378:	e1540001 	cmp	r4, r1
    837c:	2a000030 	bcs	8444 <check_mem+0xdc>
    8380:	e7d53004 	ldrb	r3, [r5, r4]
    8384:	e35300fe 	cmp	r3, #254	; 0xfe
    8388:	02844001 	addeq	r4, r4, #1
    838c:	0afffff9 	beq	8378 <check_mem+0x10>
    8390:	e1a00006 	mov	r0, r6
    8394:	ebffff59 	bl	8100 <b_alloc_ptr>
    8398:	e0450000 	sub	r0, r5, r0
    839c:	e0804004 	add	r4, r0, r4
    83a0:	e59f70a4 	ldr	r7, [pc, #164]	; 844c <check_mem+0xe4>
    83a4:	e1a00007 	mov	r0, r7
    83a8:	eb0001c9 	bl	8ad4 <printk>
    83ac:	e59f009c 	ldr	r0, [pc, #156]	; 8450 <check_mem+0xe8>
    83b0:	eb0001c7 	bl	8ad4 <printk>
    83b4:	e5961000 	ldr	r1, [r6]
    83b8:	e1a02004 	mov	r2, r4
    83bc:	e0451001 	sub	r1, r5, r1
    83c0:	e59f008c 	ldr	r0, [pc, #140]	; 8454 <check_mem+0xec>
    83c4:	eb0001c2 	bl	8ad4 <printk>
    83c8:	e1a00007 	mov	r0, r7
    83cc:	eb0001c0 	bl	8ad4 <printk>
    83d0:	e5961000 	ldr	r1, [r6]
    83d4:	e59f007c 	ldr	r0, [pc, #124]	; 8458 <check_mem+0xf0>
    83d8:	eb0001bd 	bl	8ad4 <printk>
    83dc:	e5963010 	ldr	r3, [r6, #16]
    83e0:	e3530000 	cmp	r3, #0
    83e4:	0a000006 	beq	8404 <check_mem+0x9c>
    83e8:	e1a00007 	mov	r0, r7
    83ec:	eb0001b8 	bl	8ad4 <printk>
    83f0:	e5963018 	ldr	r3, [r6, #24]
    83f4:	e5962014 	ldr	r2, [r6, #20]
    83f8:	e5961010 	ldr	r1, [r6, #16]
    83fc:	e59f0058 	ldr	r0, [pc, #88]	; 845c <check_mem+0xf4>
    8400:	eb0001b3 	bl	8ad4 <printk>
    8404:	e5963008 	ldr	r3, [r6, #8]
    8408:	e353000c 	cmp	r3, #12
    840c:	0a000001 	beq	8418 <check_mem+0xb0>
    8410:	e3a00000 	mov	r0, #0
    8414:	e8bd81f0 	pop	{r4, r5, r6, r7, r8, pc}
    8418:	e596301c 	ldr	r3, [r6, #28]
    841c:	e3530000 	cmp	r3, #0
    8420:	0afffffa 	beq	8410 <check_mem+0xa8>
    8424:	e59f0020 	ldr	r0, [pc, #32]	; 844c <check_mem+0xe4>
    8428:	eb0001a9 	bl	8ad4 <printk>
    842c:	e5963024 	ldr	r3, [r6, #36]	; 0x24
    8430:	e5962020 	ldr	r2, [r6, #32]
    8434:	e596101c 	ldr	r1, [r6, #28]
    8438:	e59f0020 	ldr	r0, [pc, #32]	; 8460 <check_mem+0xf8>
    843c:	eb0001a4 	bl	8ad4 <printk>
    8440:	eafffff2 	b	8410 <check_mem+0xa8>
    8444:	e3a00001 	mov	r0, #1
    8448:	e8bd81f0 	pop	{r4, r5, r6, r7, r8, pc}
    844c:	00009760 	andeq	r9, r0, r0, ror #14
    8450:	0000978c 	andeq	r9, r0, ip, lsl #15
    8454:	00009794 	muleq	r0, r4, r7
    8458:	000097b8 			; <UNDEFINED> instruction: 0x000097b8
    845c:	000097c4 	andeq	r9, r0, r4, asr #15
    8460:	000097e4 	andeq	r9, r0, r4, ror #15

00008464 <check_block>:
    8464:	e92d4070 	push	{r4, r5, r6, lr}
    8468:	e1a04000 	mov	r4, r0
    846c:	ebffff83 	bl	8280 <check_hdr>
    8470:	e3500000 	cmp	r0, #0
    8474:	08bd8070 	popeq	{r4, r5, r6, pc}
    8478:	e1a00004 	mov	r0, r4
    847c:	ebffff1d 	bl	80f8 <b_rz1_ptr>
    8480:	e1a02004 	mov	r2, r4
    8484:	e3a01080 	mov	r1, #128	; 0x80
    8488:	ebffffb6 	bl	8368 <check_mem>
    848c:	e3500000 	cmp	r0, #0
    8490:	08bd8070 	popeq	{r4, r5, r6, pc}
    8494:	e1a00004 	mov	r0, r4
    8498:	ebffff1c 	bl	8110 <b_rz2_ptr>
    849c:	e1a05000 	mov	r5, r0
    84a0:	e1a00004 	mov	r0, r4
    84a4:	ebffff1f 	bl	8128 <b_rz2_nbytes>
    84a8:	e1a01000 	mov	r1, r0
    84ac:	e1a02004 	mov	r2, r4
    84b0:	e1a00005 	mov	r0, r5
    84b4:	ebffffab 	bl	8368 <check_mem>
    84b8:	e3500000 	cmp	r0, #0
    84bc:	08bd8070 	popeq	{r4, r5, r6, pc}
    84c0:	e3a00001 	mov	r0, #1
    84c4:	e8bd8070 	pop	{r4, r5, r6, pc}

000084c8 <ck_init>:
    84c8:	e92d4070 	push	{r4, r5, r6, lr}
    84cc:	e59f3054 	ldr	r3, [pc, #84]	; 8528 <ck_init+0x60>
    84d0:	e5933000 	ldr	r3, [r3]
    84d4:	e3130007 	tst	r3, #7
    84d8:	1a00000b 	bne	850c <ck_init+0x44>
    84dc:	e1a04000 	mov	r4, r0
    84e0:	e1a05001 	mov	r5, r1
    84e4:	e3a02080 	mov	r2, #128	; 0x80
    84e8:	e3a01038 	mov	r1, #56	; 0x38
    84ec:	e59f0038 	ldr	r0, [pc, #56]	; 852c <ck_init+0x64>
    84f0:	eb000177 	bl	8ad4 <printk>
    84f4:	e59f302c 	ldr	r3, [pc, #44]	; 8528 <ck_init+0x60>
    84f8:	e5834000 	str	r4, [r3]
    84fc:	e5834004 	str	r4, [r3, #4]
    8500:	e0844005 	add	r4, r4, r5
    8504:	e5834008 	str	r4, [r3, #8]
    8508:	e8bd8070 	pop	{r4, r5, r6, pc}
    850c:	eb00018b 	bl	8b40 <rpi_reset_putc>
    8510:	e3a0300a 	mov	r3, #10
    8514:	e59f2014 	ldr	r2, [pc, #20]	; 8530 <ck_init+0x68>
    8518:	e59f1014 	ldr	r1, [pc, #20]	; 8534 <ck_init+0x6c>
    851c:	e59f0014 	ldr	r0, [pc, #20]	; 8538 <ck_init+0x70>
    8520:	eb00016b 	bl	8ad4 <printk>
    8524:	eb0002fb 	bl	9118 <clean_reboot>
    8528:	00009cc0 	andeq	r9, r0, r0, asr #25
    852c:	00009850 	andeq	r9, r0, r0, asr r8
    8530:	00009a78 	andeq	r9, r0, r8, ror sl
    8534:	0000981c 	andeq	r9, r0, ip, lsl r8
    8538:	00009828 	andeq	r9, r0, r8, lsr #16

0000853c <ckfree>:
    853c:	e92d41f0 	push	{r4, r5, r6, r7, r8, lr}
    8540:	e1a05000 	mov	r5, r0
    8544:	e1a07001 	mov	r7, r1
    8548:	e1a06002 	mov	r6, r2
    854c:	e1a08003 	mov	r8, r3
    8550:	ebfffef7 	bl	8134 <b_addr_to_hdr>
    8554:	e59fc080 	ldr	ip, [pc, #128]	; 85dc <ckfree+0xa0>
    8558:	e59cc004 	ldr	ip, [ip, #4]
    855c:	e35c0000 	cmp	ip, #0
    8560:	0a000016 	beq	85c0 <ckfree+0x84>
    8564:	e1a04000 	mov	r4, r0
    8568:	e59f0070 	ldr	r0, [pc, #112]	; 85e0 <ckfree+0xa4>
    856c:	eb000158 	bl	8ad4 <printk>
    8570:	e1a01005 	mov	r1, r5
    8574:	e59f0068 	ldr	r0, [pc, #104]	; 85e4 <ckfree+0xa8>
    8578:	eb000155 	bl	8ad4 <printk>
    857c:	e1a00004 	mov	r0, r4
    8580:	ebffffb7 	bl	8464 <check_block>
    8584:	e3500000 	cmp	r0, #0
    8588:	08bd81f0 	popeq	{r4, r5, r6, r7, r8, pc}
    858c:	e584701c 	str	r7, [r4, #28]
    8590:	e5846020 	str	r6, [r4, #32]
    8594:	e5848024 	str	r8, [r4, #36]	; 0x24
    8598:	e3a0300c 	mov	r3, #12
    859c:	e5843008 	str	r3, [r4, #8]
    85a0:	e1a00004 	mov	r0, r4
    85a4:	ebfffed5 	bl	8100 <b_alloc_ptr>
    85a8:	e5941000 	ldr	r1, [r4]
    85ac:	ebffff25 	bl	8248 <mark_mem>
    85b0:	e1a00004 	mov	r0, r4
    85b4:	ebffff28 	bl	825c <hdr_cksum>
    85b8:	e584000c 	str	r0, [r4, #12]
    85bc:	e8bd81f0 	pop	{r4, r5, r6, r7, r8, pc}
    85c0:	eb00015e 	bl	8b40 <rpi_reset_putc>
    85c4:	e3a03074 	mov	r3, #116	; 0x74
    85c8:	e59f2018 	ldr	r2, [pc, #24]	; 85e8 <ckfree+0xac>
    85cc:	e59f1018 	ldr	r1, [pc, #24]	; 85ec <ckfree+0xb0>
    85d0:	e59f0018 	ldr	r0, [pc, #24]	; 85f0 <ckfree+0xb4>
    85d4:	eb00013e 	bl	8ad4 <printk>
    85d8:	eb0002ce 	bl	9118 <clean_reboot>
    85dc:	00009cc0 	andeq	r9, r0, r0, asr #25
    85e0:	00009760 	andeq	r9, r0, r0, ror #14
    85e4:	000098a0 	andeq	r9, r0, r0, lsr #17
    85e8:	00009a80 	andeq	r9, r0, r0, lsl #21
    85ec:	0000981c 	andeq	r9, r0, ip, lsl r8
    85f0:	0000986c 	andeq	r9, r0, ip, ror #16

000085f4 <ckalloc>:
    85f4:	e92d43f0 	push	{r4, r5, r6, r7, r8, r9, lr}
    85f8:	e24dd00c 	sub	sp, sp, #12
    85fc:	e1a06003 	mov	r6, r3
    8600:	e59f31d4 	ldr	r3, [pc, #468]	; 87dc <ckalloc+0x1e8>
    8604:	e5933004 	ldr	r3, [r3, #4]
    8608:	e3530000 	cmp	r3, #0
    860c:	0a000042 	beq	871c <ckalloc+0x128>
    8610:	e1a05000 	mov	r5, r0
    8614:	e1a08001 	mov	r8, r1
    8618:	e1a07002 	mov	r7, r2
    861c:	e59f01bc 	ldr	r0, [pc, #444]	; 87e0 <ckalloc+0x1ec>
    8620:	eb00012b 	bl	8ad4 <printk>
    8624:	e1a01005 	mov	r1, r5
    8628:	e59f01b4 	ldr	r0, [pc, #436]	; 87e4 <ckalloc+0x1f0>
    862c:	eb000128 	bl	8ad4 <printk>
    8630:	e2850007 	add	r0, r5, #7
    8634:	e3c00007 	bic	r0, r0, #7
    8638:	e2809f4e 	add	r9, r0, #312	; 0x138
    863c:	e1550009 	cmp	r5, r9
    8640:	8a00003c 	bhi	8738 <ckalloc+0x144>
    8644:	e59f3190 	ldr	r3, [pc, #400]	; 87dc <ckalloc+0x1e8>
    8648:	e5934004 	ldr	r4, [r3, #4]
    864c:	e0842009 	add	r2, r4, r9
    8650:	e5933008 	ldr	r3, [r3, #8]
    8654:	e1520003 	cmp	r2, r3
    8658:	2a000043 	bcs	876c <ckalloc+0x178>
    865c:	e5845000 	str	r5, [r4]
    8660:	e0400005 	sub	r0, r0, r5
    8664:	e5840004 	str	r0, [r4, #4]
    8668:	e3a0300b 	mov	r3, #11
    866c:	e5843008 	str	r3, [r4, #8]
    8670:	e5848010 	str	r8, [r4, #16]
    8674:	e5847014 	str	r7, [r4, #20]
    8678:	e5846018 	str	r6, [r4, #24]
    867c:	e3a03001 	mov	r3, #1
    8680:	e5843028 	str	r3, [r4, #40]	; 0x28
    8684:	e3a03000 	mov	r3, #0
    8688:	e584302c 	str	r3, [r4, #44]	; 0x2c
    868c:	e1a00004 	mov	r0, r4
    8690:	ebfffe98 	bl	80f8 <b_rz1_ptr>
    8694:	e3a01080 	mov	r1, #128	; 0x80
    8698:	ebfffeea 	bl	8248 <mark_mem>
    869c:	e1a00004 	mov	r0, r4
    86a0:	ebfffe9a 	bl	8110 <b_rz2_ptr>
    86a4:	e1a06000 	mov	r6, r0
    86a8:	e1a00004 	mov	r0, r4
    86ac:	ebfffe9d 	bl	8128 <b_rz2_nbytes>
    86b0:	e1a01000 	mov	r1, r0
    86b4:	e1a00006 	mov	r0, r6
    86b8:	ebfffee2 	bl	8248 <mark_mem>
    86bc:	e1a00004 	mov	r0, r4
    86c0:	ebfffee5 	bl	825c <hdr_cksum>
    86c4:	e584000c 	str	r0, [r4, #12]
    86c8:	e59f210c 	ldr	r2, [pc, #268]	; 87dc <ckalloc+0x1e8>
    86cc:	e5923004 	ldr	r3, [r2, #4]
    86d0:	e0833009 	add	r3, r3, r9
    86d4:	e5823004 	str	r3, [r2, #4]
    86d8:	e1a00004 	mov	r0, r4
    86dc:	ebffff60 	bl	8464 <check_block>
    86e0:	e3500000 	cmp	r0, #0
    86e4:	0a000035 	beq	87c0 <ckalloc+0x1cc>
    86e8:	e1a00004 	mov	r0, r4
    86ec:	ebfffe83 	bl	8100 <b_alloc_ptr>
    86f0:	e1a04000 	mov	r4, r0
    86f4:	e59f00e4 	ldr	r0, [pc, #228]	; 87e0 <ckalloc+0x1ec>
    86f8:	eb0000f5 	bl	8ad4 <printk>
    86fc:	e1a03004 	mov	r3, r4
    8700:	e1a02009 	mov	r2, r9
    8704:	e1a01005 	mov	r1, r5
    8708:	e59f00d8 	ldr	r0, [pc, #216]	; 87e8 <ckalloc+0x1f4>
    870c:	eb0000f0 	bl	8ad4 <printk>
    8710:	e1a00004 	mov	r0, r4
    8714:	e28dd00c 	add	sp, sp, #12
    8718:	e8bd83f0 	pop	{r4, r5, r6, r7, r8, r9, pc}
    871c:	eb000107 	bl	8b40 <rpi_reset_putc>
    8720:	e3a03087 	mov	r3, #135	; 0x87
    8724:	e59f20c0 	ldr	r2, [pc, #192]	; 87ec <ckalloc+0x1f8>
    8728:	e59f10c0 	ldr	r1, [pc, #192]	; 87f0 <ckalloc+0x1fc>
    872c:	e59f00c0 	ldr	r0, [pc, #192]	; 87f4 <ckalloc+0x200>
    8730:	eb0000e7 	bl	8ad4 <printk>
    8734:	eb000277 	bl	9118 <clean_reboot>
    8738:	e59f00b8 	ldr	r0, [pc, #184]	; 87f8 <ckalloc+0x204>
    873c:	eb0000e4 	bl	8ad4 <printk>
    8740:	e1a01005 	mov	r1, r5
    8744:	e59f00b0 	ldr	r0, [pc, #176]	; 87fc <ckalloc+0x208>
    8748:	eb0000e1 	bl	8ad4 <printk>
    874c:	eb0000fb 	bl	8b40 <rpi_reset_putc>
    8750:	e58d5000 	str	r5, [sp]
    8754:	e3a0308f 	mov	r3, #143	; 0x8f
    8758:	e59f208c 	ldr	r2, [pc, #140]	; 87ec <ckalloc+0x1f8>
    875c:	e59f108c 	ldr	r1, [pc, #140]	; 87f0 <ckalloc+0x1fc>
    8760:	e59f0098 	ldr	r0, [pc, #152]	; 8800 <ckalloc+0x20c>
    8764:	eb0000da 	bl	8ad4 <printk>
    8768:	eb00026a 	bl	9118 <clean_reboot>
    876c:	e59f0084 	ldr	r0, [pc, #132]	; 87f8 <ckalloc+0x204>
    8770:	eb0000d7 	bl	8ad4 <printk>
    8774:	e59f4060 	ldr	r4, [pc, #96]	; 87dc <ckalloc+0x1e8>
    8778:	e5941008 	ldr	r1, [r4, #8]
    877c:	e5943004 	ldr	r3, [r4, #4]
    8780:	e1a02009 	mov	r2, r9
    8784:	e0411003 	sub	r1, r1, r3
    8788:	e59f0074 	ldr	r0, [pc, #116]	; 8804 <ckalloc+0x210>
    878c:	eb0000d0 	bl	8ad4 <printk>
    8790:	eb0000ea 	bl	8b40 <rpi_reset_putc>
    8794:	e58d9004 	str	r9, [sp, #4]
    8798:	e5943008 	ldr	r3, [r4, #8]
    879c:	e5942004 	ldr	r2, [r4, #4]
    87a0:	e0433002 	sub	r3, r3, r2
    87a4:	e58d3000 	str	r3, [sp]
    87a8:	e3a03092 	mov	r3, #146	; 0x92
    87ac:	e59f2038 	ldr	r2, [pc, #56]	; 87ec <ckalloc+0x1f8>
    87b0:	e59f1038 	ldr	r1, [pc, #56]	; 87f0 <ckalloc+0x1fc>
    87b4:	e59f004c 	ldr	r0, [pc, #76]	; 8808 <ckalloc+0x214>
    87b8:	eb0000c5 	bl	8ad4 <printk>
    87bc:	eb000255 	bl	9118 <clean_reboot>
    87c0:	eb0000de 	bl	8b40 <rpi_reset_putc>
    87c4:	e3a030a1 	mov	r3, #161	; 0xa1
    87c8:	e59f201c 	ldr	r2, [pc, #28]	; 87ec <ckalloc+0x1f8>
    87cc:	e59f101c 	ldr	r1, [pc, #28]	; 87f0 <ckalloc+0x1fc>
    87d0:	e59f0034 	ldr	r0, [pc, #52]	; 880c <ckalloc+0x218>
    87d4:	eb0000be 	bl	8ad4 <printk>
    87d8:	eb00024e 	bl	9118 <clean_reboot>
    87dc:	00009cc0 	andeq	r9, r0, r0, asr #25
    87e0:	00009760 	andeq	r9, r0, r0, ror #14
    87e4:	000098ac 	andeq	r9, r0, ip, lsr #17
    87e8:	000099b8 			; <UNDEFINED> instruction: 0x000099b8
    87ec:	00009a88 	andeq	r9, r0, r8, lsl #21
    87f0:	0000981c 	andeq	r9, r0, ip, lsl r8
    87f4:	0000986c 	andeq	r9, r0, ip, ror #16
    87f8:	000098c4 	andeq	r9, r0, r4, asr #17
    87fc:	000098d0 	ldrdeq	r9, [r0], -r0
    8800:	000098f8 	strdeq	r9, [r0], -r8
    8804:	00009930 	andeq	r9, r0, r0, lsr r9
    8808:	0000995c 	andeq	r9, r0, ip, asr r9
    880c:	00009998 	muleq	r0, r8, r9

00008810 <ck_first_hdr>:
    8810:	e92d4010 	push	{r4, lr}
    8814:	e59f3020 	ldr	r3, [pc, #32]	; 883c <ck_first_hdr+0x2c>
    8818:	e5934000 	ldr	r4, [r3]
    881c:	e1a00004 	mov	r0, r4
    8820:	ebfffe96 	bl	8280 <check_hdr>
    8824:	e3500000 	cmp	r0, #0
    8828:	0a000001 	beq	8834 <ck_first_hdr+0x24>
    882c:	e1a00004 	mov	r0, r4
    8830:	e8bd8010 	pop	{r4, pc}
    8834:	e3a04000 	mov	r4, #0
    8838:	eafffffb 	b	882c <ck_first_hdr+0x1c>
    883c:	00009cc0 	andeq	r9, r0, r0, asr #25

00008840 <ck_next_hdr>:
    8840:	e92d4010 	push	{r4, lr}
    8844:	e5904000 	ldr	r4, [r0]
    8848:	e5903004 	ldr	r3, [r0, #4]
    884c:	e0844003 	add	r4, r4, r3
    8850:	e2844f4e 	add	r4, r4, #312	; 0x138
    8854:	e0804004 	add	r4, r0, r4
    8858:	e59f3028 	ldr	r3, [pc, #40]	; 8888 <ck_next_hdr+0x48>
    885c:	e5933004 	ldr	r3, [r3, #4]
    8860:	e1530004 	cmp	r3, r4
    8864:	9a000004 	bls	887c <ck_next_hdr+0x3c>
    8868:	e1a00004 	mov	r0, r4
    886c:	ebfffe83 	bl	8280 <check_hdr>
    8870:	e3500000 	cmp	r0, #0
    8874:	03a04000 	moveq	r4, #0
    8878:	ea000000 	b	8880 <ck_next_hdr+0x40>
    887c:	e3a04000 	mov	r4, #0
    8880:	e1a00004 	mov	r0, r4
    8884:	e8bd8010 	pop	{r4, pc}
    8888:	00009cc0 	andeq	r9, r0, r0, asr #25

0000888c <ck_heap_errors>:
    888c:	e92d41f0 	push	{r4, r5, r6, r7, r8, lr}
    8890:	e59f3124 	ldr	r3, [pc, #292]	; 89bc <ck_heap_errors+0x130>
    8894:	e5932004 	ldr	r2, [r3, #4]
    8898:	e5934000 	ldr	r4, [r3]
    889c:	e0424004 	sub	r4, r2, r4
    88a0:	e5935008 	ldr	r5, [r3, #8]
    88a4:	e0455002 	sub	r5, r5, r2
    88a8:	e59f0110 	ldr	r0, [pc, #272]	; 89c0 <ck_heap_errors+0x134>
    88ac:	eb000088 	bl	8ad4 <printk>
    88b0:	e1a02005 	mov	r2, r5
    88b4:	e1a01004 	mov	r1, r4
    88b8:	e59f0104 	ldr	r0, [pc, #260]	; 89c4 <ck_heap_errors+0x138>
    88bc:	eb000084 	bl	8ad4 <printk>
    88c0:	ebffffd2 	bl	8810 <ck_first_hdr>
    88c4:	e1a04000 	mov	r4, r0
    88c8:	e3a05000 	mov	r5, #0
    88cc:	e1a06005 	mov	r6, r5
    88d0:	ea000010 	b	8918 <ck_heap_errors+0x8c>
    88d4:	e2866001 	add	r6, r6, #1
    88d8:	e2855001 	add	r5, r5, #1
    88dc:	e3560000 	cmp	r6, #0
    88e0:	0a00002f 	beq	89a4 <ck_heap_errors+0x118>
    88e4:	e59f00d4 	ldr	r0, [pc, #212]	; 89c0 <ck_heap_errors+0x134>
    88e8:	eb000079 	bl	8ad4 <printk>
    88ec:	e1a02006 	mov	r2, r6
    88f0:	e1a01005 	mov	r1, r5
    88f4:	e59f00cc 	ldr	r0, [pc, #204]	; 89c8 <ck_heap_errors+0x13c>
    88f8:	eb000075 	bl	8ad4 <printk>
    88fc:	e1a00006 	mov	r0, r6
    8900:	e8bd81f0 	pop	{r4, r5, r6, r7, r8, pc}
    8904:	e2866001 	add	r6, r6, #1
    8908:	e2855001 	add	r5, r5, #1
    890c:	e1a00004 	mov	r0, r4
    8910:	ebffffca 	bl	8840 <ck_next_hdr>
    8914:	e1a04000 	mov	r4, r0
    8918:	e3540000 	cmp	r4, #0
    891c:	0affffee 	beq	88dc <ck_heap_errors+0x50>
    8920:	e1a00004 	mov	r0, r4
    8924:	ebfffe55 	bl	8280 <check_hdr>
    8928:	e3500000 	cmp	r0, #0
    892c:	0affffe8 	beq	88d4 <ck_heap_errors+0x48>
    8930:	e1a00004 	mov	r0, r4
    8934:	ebfffdef 	bl	80f8 <b_rz1_ptr>
    8938:	e1a02004 	mov	r2, r4
    893c:	e3a01080 	mov	r1, #128	; 0x80
    8940:	ebfffe88 	bl	8368 <check_mem>
    8944:	e3500000 	cmp	r0, #0
    8948:	0affffed 	beq	8904 <ck_heap_errors+0x78>
    894c:	e1a00004 	mov	r0, r4
    8950:	ebfffdee 	bl	8110 <b_rz2_ptr>
    8954:	e1a07000 	mov	r7, r0
    8958:	e1a00004 	mov	r0, r4
    895c:	ebfffdf1 	bl	8128 <b_rz2_nbytes>
    8960:	e1a01000 	mov	r1, r0
    8964:	e1a02004 	mov	r2, r4
    8968:	e1a00007 	mov	r0, r7
    896c:	ebfffe7d 	bl	8368 <check_mem>
    8970:	e3500000 	cmp	r0, #0
    8974:	0affffe2 	beq	8904 <ck_heap_errors+0x78>
    8978:	e5943008 	ldr	r3, [r4, #8]
    897c:	e353000c 	cmp	r3, #12
    8980:	1affffe0 	bne	8908 <ck_heap_errors+0x7c>
    8984:	e1a00004 	mov	r0, r4
    8988:	ebfffddc 	bl	8100 <b_alloc_ptr>
    898c:	e1a02004 	mov	r2, r4
    8990:	e5941000 	ldr	r1, [r4]
    8994:	ebfffde8 	bl	813c <check_free_write>
    8998:	e3500000 	cmp	r0, #0
    899c:	02866001 	addeq	r6, r6, #1
    89a0:	eaffffd8 	b	8908 <ck_heap_errors+0x7c>
    89a4:	e59f0014 	ldr	r0, [pc, #20]	; 89c0 <ck_heap_errors+0x134>
    89a8:	eb000049 	bl	8ad4 <printk>
    89ac:	e1a01005 	mov	r1, r5
    89b0:	e59f0014 	ldr	r0, [pc, #20]	; 89cc <ck_heap_errors+0x140>
    89b4:	eb000046 	bl	8ad4 <printk>
    89b8:	eaffffcf 	b	88fc <ck_heap_errors+0x70>
    89bc:	00009cc0 	andeq	r9, r0, r0, asr #25
    89c0:	00009760 	andeq	r9, r0, r0, ror #14
    89c4:	000099e8 	andeq	r9, r0, r8, ror #19
    89c8:	00009a20 	andeq	r9, r0, r0, lsr #20
    89cc:	00009a48 	andeq	r9, r0, r8, asr #20

000089d0 <fast_hash>:
    89d0:	e3500000 	cmp	r0, #0
    89d4:	13510000 	cmpne	r1, #0
    89d8:	da000035 	ble	8ab4 <fast_hash+0xe4>
    89dc:	e52de004 	push	{lr}		; (str lr, [sp, #-4]!)
    89e0:	e1a03001 	mov	r3, r1
    89e4:	e1a0c000 	mov	ip, r0
    89e8:	e201e003 	and	lr, r1, #3
    89ec:	e1a01141 	asr	r1, r1, #2
    89f0:	e3510000 	cmp	r1, #0
    89f4:	da00000c 	ble	8a2c <fast_hash+0x5c>
    89f8:	e5dc0001 	ldrb	r0, [ip, #1]
    89fc:	e5dc2000 	ldrb	r2, [ip]
    8a00:	e0822400 	add	r2, r2, r0, lsl #8
    8a04:	e0822003 	add	r2, r2, r3
    8a08:	e5dc0003 	ldrb	r0, [ip, #3]
    8a0c:	e5dc3002 	ldrb	r3, [ip, #2]
    8a10:	e0833400 	add	r3, r3, r0, lsl #8
    8a14:	e0223583 	eor	r3, r2, r3, lsl #11
    8a18:	e0233802 	eor	r3, r3, r2, lsl #16
    8a1c:	e28cc004 	add	ip, ip, #4
    8a20:	e08335a3 	add	r3, r3, r3, lsr #11
    8a24:	e2411001 	sub	r1, r1, #1
    8a28:	eafffff0 	b	89f0 <fast_hash+0x20>
    8a2c:	e35e0002 	cmp	lr, #2
    8a30:	0a000013 	beq	8a84 <fast_hash+0xb4>
    8a34:	e35e0003 	cmp	lr, #3
    8a38:	0a000008 	beq	8a60 <fast_hash+0x90>
    8a3c:	e35e0001 	cmp	lr, #1
    8a40:	0a000016 	beq	8aa0 <fast_hash+0xd0>
    8a44:	e0230183 	eor	r0, r3, r3, lsl #3
    8a48:	e08002a0 	add	r0, r0, r0, lsr #5
    8a4c:	e0200200 	eor	r0, r0, r0, lsl #4
    8a50:	e08008a0 	add	r0, r0, r0, lsr #17
    8a54:	e0200c80 	eor	r0, r0, r0, lsl #25
    8a58:	e0800320 	add	r0, r0, r0, lsr #6
    8a5c:	e49df004 	pop	{pc}		; (ldr pc, [sp], #4)
    8a60:	e5dc1001 	ldrb	r1, [ip, #1]
    8a64:	e5dc2000 	ldrb	r2, [ip]
    8a68:	e0822401 	add	r2, r2, r1, lsl #8
    8a6c:	e0823003 	add	r3, r2, r3
    8a70:	e0233803 	eor	r3, r3, r3, lsl #16
    8a74:	e1dc20d2 	ldrsb	r2, [ip, #2]
    8a78:	e0233902 	eor	r3, r3, r2, lsl #18
    8a7c:	e08335a3 	add	r3, r3, r3, lsr #11
    8a80:	eaffffef 	b	8a44 <fast_hash+0x74>
    8a84:	e5dc1001 	ldrb	r1, [ip, #1]
    8a88:	e5dc2000 	ldrb	r2, [ip]
    8a8c:	e0822401 	add	r2, r2, r1, lsl #8
    8a90:	e0823003 	add	r3, r2, r3
    8a94:	e0233583 	eor	r3, r3, r3, lsl #11
    8a98:	e08338a3 	add	r3, r3, r3, lsr #17
    8a9c:	eaffffe8 	b	8a44 <fast_hash+0x74>
    8aa0:	e1dc20d0 	ldrsb	r2, [ip]
    8aa4:	e0823003 	add	r3, r2, r3
    8aa8:	e0233503 	eor	r3, r3, r3, lsl #10
    8aac:	e08330a3 	add	r3, r3, r3, lsr #1
    8ab0:	eaffffe3 	b	8a44 <fast_hash+0x74>
    8ab4:	e3a00000 	mov	r0, #0
    8ab8:	e12fff1e 	bx	lr

00008abc <memset>:
    8abc:	e0802002 	add	r2, r0, r2
    8ac0:	e1a03000 	mov	r3, r0
    8ac4:	e1530002 	cmp	r3, r2
    8ac8:	212fff1e 	bxcs	lr
    8acc:	e4c31001 	strb	r1, [r3], #1
    8ad0:	eafffffb 	b	8ac4 <memset+0x8>

00008ad4 <printk>:
    8ad4:	e92d000f 	push	{r0, r1, r2, r3}
    8ad8:	e92d4030 	push	{r4, r5, lr}
    8adc:	e24dd00c 	sub	sp, sp, #12
    8ae0:	e28d301c 	add	r3, sp, #28
    8ae4:	e58d3004 	str	r3, [sp, #4]
    8ae8:	e59f5034 	ldr	r5, [pc, #52]	; 8b24 <printk+0x50>
    8aec:	e59d2018 	ldr	r2, [sp, #24]
    8af0:	e3a01b01 	mov	r1, #1024	; 0x400
    8af4:	e1a00005 	mov	r0, r5
    8af8:	eb0000da 	bl	8e68 <va_printk>
    8afc:	e1a04000 	mov	r4, r0
    8b00:	e59f3020 	ldr	r3, [pc, #32]	; 8b28 <printk+0x54>
    8b04:	e5933000 	ldr	r3, [r3]
    8b08:	e1a00005 	mov	r0, r5
    8b0c:	e12fff33 	blx	r3
    8b10:	e1a00004 	mov	r0, r4
    8b14:	e28dd00c 	add	sp, sp, #12
    8b18:	e8bd4030 	pop	{r4, r5, lr}
    8b1c:	e28dd010 	add	sp, sp, #16
    8b20:	e12fff1e 	bx	lr
    8b24:	00009ccc 	andeq	r9, r0, ip, asr #25
    8b28:	00009704 	andeq	r9, r0, r4, lsl #14

00008b2c <internal_putchar>:
    8b2c:	e92d4010 	push	{r4, lr}
    8b30:	e1a04000 	mov	r4, r0
    8b34:	eb00022e 	bl	93f4 <uart_putc>
    8b38:	e1a00004 	mov	r0, r4
    8b3c:	e8bd8010 	pop	{r4, pc}

00008b40 <rpi_reset_putc>:
    8b40:	e59f3008 	ldr	r3, [pc, #8]	; 8b50 <rpi_reset_putc+0x10>
    8b44:	e59f2008 	ldr	r2, [pc, #8]	; 8b54 <rpi_reset_putc+0x14>
    8b48:	e5832000 	str	r2, [r3]
    8b4c:	e12fff1e 	bx	lr
    8b50:	00009700 	andeq	r9, r0, r0, lsl #14
    8b54:	00008b2c 	andeq	r8, r0, ip, lsr #22

00008b58 <rpi_set_putc>:
    8b58:	e59f3004 	ldr	r3, [pc, #4]	; 8b64 <rpi_set_putc+0xc>
    8b5c:	e5830000 	str	r0, [r3]
    8b60:	e12fff1e 	bx	lr
    8b64:	00009700 	andeq	r9, r0, r0, lsl #14

00008b68 <internal_putk>:
    8b68:	e92d4010 	push	{r4, lr}
    8b6c:	e1a04000 	mov	r4, r0
    8b70:	e5d40000 	ldrb	r0, [r4]
    8b74:	e3500000 	cmp	r0, #0
    8b78:	0a000004 	beq	8b90 <internal_putk+0x28>
    8b7c:	e59f3014 	ldr	r3, [pc, #20]	; 8b98 <internal_putk+0x30>
    8b80:	e5933000 	ldr	r3, [r3]
    8b84:	e12fff33 	blx	r3
    8b88:	e2844001 	add	r4, r4, #1
    8b8c:	eafffff7 	b	8b70 <internal_putk+0x8>
    8b90:	e3a00001 	mov	r0, #1
    8b94:	e8bd8010 	pop	{r4, pc}
    8b98:	00009700 	andeq	r9, r0, r0, lsl #14

00008b9c <rpi_rand16>:
    8b9c:	e59f2020 	ldr	r2, [pc, #32]	; 8bc4 <rpi_rand16+0x28>
    8ba0:	e1d230b0 	ldrh	r3, [r2]
    8ba4:	e0230123 	eor	r0, r3, r3, lsr #2
    8ba8:	e02001a3 	eor	r0, r0, r3, lsr #3
    8bac:	e02002a3 	eor	r0, r0, r3, lsr #5
    8bb0:	e2000001 	and	r0, r0, #1
    8bb4:	e1a030a3 	lsr	r3, r3, #1
    8bb8:	e1830780 	orr	r0, r3, r0, lsl #15
    8bbc:	e1c200b0 	strh	r0, [r2]
    8bc0:	e12fff1e 	bx	lr
    8bc4:	00009708 	andeq	r9, r0, r8, lsl #14

00008bc8 <rpi_rand32>:
    8bc8:	e92d4010 	push	{r4, lr}
    8bcc:	ebfffff2 	bl	8b9c <rpi_rand16>
    8bd0:	e1a04800 	lsl	r4, r0, #16
    8bd4:	ebfffff0 	bl	8b9c <rpi_rand16>
    8bd8:	e1840000 	orr	r0, r4, r0
    8bdc:	e8bd8010 	pop	{r4, pc}

00008be0 <rpi_reset>:
    8be0:	e59f3008 	ldr	r3, [pc, #8]	; 8bf0 <rpi_reset+0x10>
    8be4:	e59f2008 	ldr	r2, [pc, #8]	; 8bf4 <rpi_reset+0x14>
    8be8:	e1c320b0 	strh	r2, [r3]
    8bec:	e12fff1e 	bx	lr
    8bf0:	00009708 	andeq	r9, r0, r8, lsl #14
    8bf4:	fffface1 			; <UNDEFINED> instruction: 0xfffface1

00008bf8 <isdigit>:
    8bf8:	e2400030 	sub	r0, r0, #48	; 0x30
    8bfc:	e3500009 	cmp	r0, #9
    8c00:	83a00000 	movhi	r0, #0
    8c04:	93a00001 	movls	r0, #1
    8c08:	e12fff1e 	bx	lr

00008c0c <pad>:
    8c0c:	e0401001 	sub	r1, r0, r1
    8c10:	e1510002 	cmp	r1, r2
    8c14:	b3a03020 	movlt	r3, #32
    8c18:	b4c03001 	strblt	r3, [r0], #1
    8c1c:	b2811001 	addlt	r1, r1, #1
    8c20:	bafffffa 	blt	8c10 <pad+0x4>
    8c24:	e3a03000 	mov	r3, #0
    8c28:	e5c03000 	strb	r3, [r0]
    8c2c:	e12fff1e 	bx	lr

00008c30 <reverse>:
    8c30:	e042c003 	sub	ip, r2, r3
    8c34:	e28cc001 	add	ip, ip, #1
    8c38:	e15c0001 	cmp	ip, r1
    8c3c:	c04cc001 	subgt	ip, ip, r1
    8c40:	c083300c 	addgt	r3, r3, ip
    8c44:	e2421001 	sub	r1, r2, #1
    8c48:	e1a02000 	mov	r2, r0
    8c4c:	e1510003 	cmp	r1, r3
    8c50:	2451c001 	ldrbcs	ip, [r1], #-1
    8c54:	24c2c001 	strbcs	ip, [r2], #1
    8c58:	2afffffb 	bcs	8c4c <reverse+0x1c>
    8c5c:	e3a03000 	mov	r3, #0
    8c60:	e5c23000 	strb	r3, [r2]
    8c64:	e12fff1e 	bx	lr

00008c68 <emit>:
    8c68:	e92d40f0 	push	{r4, r5, r6, r7, lr}
    8c6c:	e24dd044 	sub	sp, sp, #68	; 0x44
    8c70:	e1a05001 	mov	r5, r1
    8c74:	e1a04002 	mov	r4, r2
    8c78:	e59d2058 	ldr	r2, [sp, #88]	; 0x58
    8c7c:	e1520004 	cmp	r2, r4
    8c80:	c2442001 	subgt	r2, r4, #1
    8c84:	e1a0c003 	mov	ip, r3
    8c88:	e2400002 	sub	r0, r0, #2
    8c8c:	e350000e 	cmp	r0, #14
    8c90:	979ff100 	ldrls	pc, [pc, r0, lsl #2]
    8c94:	ea000050 	b	8ddc <emit+0x174>
    8c98:	00008db4 			; <UNDEFINED> instruction: 0x00008db4
    8c9c:	00008ddc 	ldrdeq	r8, [r0], -ip
    8ca0:	00008ddc 	ldrdeq	r8, [r0], -ip
    8ca4:	00008ddc 	ldrdeq	r8, [r0], -ip
    8ca8:	00008ddc 	ldrdeq	r8, [r0], -ip
    8cac:	00008ddc 	ldrdeq	r8, [r0], -ip
    8cb0:	00008da8 	andeq	r8, r0, r8, lsr #27
    8cb4:	00008ddc 	ldrdeq	r8, [r0], -ip
    8cb8:	00008cd4 	ldrdeq	r8, [r0], -r4
    8cbc:	00008ddc 	ldrdeq	r8, [r0], -ip
    8cc0:	00008ddc 	ldrdeq	r8, [r0], -ip
    8cc4:	00008ddc 	ldrdeq	r8, [r0], -ip
    8cc8:	00008ddc 	ldrdeq	r8, [r0], -ip
    8ccc:	00008ddc 	ldrdeq	r8, [r0], -ip
    8cd0:	00008d4c 	andeq	r8, r0, ip, asr #26
    8cd4:	e59d105c 	ldr	r1, [sp, #92]	; 0x5c
    8cd8:	e2511000 	subs	r1, r1, #0
    8cdc:	13a01001 	movne	r1, #1
    8ce0:	e0111fa3 	ands	r1, r1, r3, lsr #31
    8ce4:	0a000016 	beq	8d44 <emit+0xdc>
    8ce8:	e263c000 	rsb	ip, r3, #0
    8cec:	e3a06001 	mov	r6, #1
    8cf0:	e1a0000d 	mov	r0, sp
    8cf4:	e59f30fc 	ldr	r3, [pc, #252]	; 8df8 <emit+0x190>
    8cf8:	e0831c93 	umull	r1, r3, r3, ip
    8cfc:	e1a031a3 	lsr	r3, r3, #3
    8d00:	e1a0e003 	mov	lr, r3
    8d04:	e0833103 	add	r3, r3, r3, lsl #2
    8d08:	e04c3083 	sub	r3, ip, r3, lsl #1
    8d0c:	e1a01000 	mov	r1, r0
    8d10:	e2800001 	add	r0, r0, #1
    8d14:	e59f70e0 	ldr	r7, [pc, #224]	; 8dfc <emit+0x194>
    8d18:	e7d73003 	ldrb	r3, [r7, r3]
    8d1c:	e5c13000 	strb	r3, [r1]
    8d20:	e1a0300c 	mov	r3, ip
    8d24:	e1a0c00e 	mov	ip, lr
    8d28:	e3530009 	cmp	r3, #9
    8d2c:	8afffff0 	bhi	8cf4 <emit+0x8c>
    8d30:	e3560000 	cmp	r6, #0
    8d34:	13a0302d 	movne	r3, #45	; 0x2d
    8d38:	15c03000 	strbne	r3, [r0]
    8d3c:	12810002 	addne	r0, r1, #2
    8d40:	ea00000f 	b	8d84 <emit+0x11c>
    8d44:	e3a06000 	mov	r6, #0
    8d48:	eaffffe8 	b	8cf0 <emit+0x88>
    8d4c:	e1a0100d 	mov	r1, sp
    8d50:	e20c000f 	and	r0, ip, #15
    8d54:	e59fe0a4 	ldr	lr, [pc, #164]	; 8e00 <emit+0x198>
    8d58:	e7de0000 	ldrb	r0, [lr, r0]
    8d5c:	e5c10000 	strb	r0, [r1]
    8d60:	e2811001 	add	r1, r1, #1
    8d64:	e35c000f 	cmp	ip, #15
    8d68:	e1a0c22c 	lsr	ip, ip, #4
    8d6c:	8afffff7 	bhi	8d50 <emit+0xe8>
    8d70:	e1a00001 	mov	r0, r1
    8d74:	e3a03078 	mov	r3, #120	; 0x78
    8d78:	e4c03002 	strb	r3, [r0], #2
    8d7c:	e3a03030 	mov	r3, #48	; 0x30
    8d80:	e5c13001 	strb	r3, [r1, #1]
    8d84:	e1a0100d 	mov	r1, sp
    8d88:	ebffff9f 	bl	8c0c <pad>
    8d8c:	e1a02000 	mov	r2, r0
    8d90:	e1a0300d 	mov	r3, sp
    8d94:	e1a01004 	mov	r1, r4
    8d98:	e1a00005 	mov	r0, r5
    8d9c:	ebffffa3 	bl	8c30 <reverse>
    8da0:	e28dd044 	add	sp, sp, #68	; 0x44
    8da4:	e8bd80f0 	pop	{r4, r5, r6, r7, pc}
    8da8:	e5cd3000 	strb	r3, [sp]
    8dac:	e28d0001 	add	r0, sp, #1
    8db0:	eafffff3 	b	8d84 <emit+0x11c>
    8db4:	e1a0000d 	mov	r0, sp
    8db8:	e20c1001 	and	r1, ip, #1
    8dbc:	e59fe040 	ldr	lr, [pc, #64]	; 8e04 <emit+0x19c>
    8dc0:	e7de1001 	ldrb	r1, [lr, r1]
    8dc4:	e5c01000 	strb	r1, [r0]
    8dc8:	e2800001 	add	r0, r0, #1
    8dcc:	e35c0001 	cmp	ip, #1
    8dd0:	e1a0c0ac 	lsr	ip, ip, #1
    8dd4:	8afffff7 	bhi	8db8 <emit+0x150>
    8dd8:	eaffffe9 	b	8d84 <emit+0x11c>
    8ddc:	ebffff57 	bl	8b40 <rpi_reset_putc>
    8de0:	e3a03077 	mov	r3, #119	; 0x77
    8de4:	e59f201c 	ldr	r2, [pc, #28]	; 8e08 <emit+0x1a0>
    8de8:	e59f101c 	ldr	r1, [pc, #28]	; 8e0c <emit+0x1a4>
    8dec:	e59f001c 	ldr	r0, [pc, #28]	; 8e10 <emit+0x1a8>
    8df0:	ebffff37 	bl	8ad4 <printk>
    8df4:	eb0000c7 	bl	9118 <clean_reboot>
    8df8:	cccccccd 	stclgt	12, cr12, [ip], {205}	; 0xcd
    8dfc:	00009ab8 			; <UNDEFINED> instruction: 0x00009ab8
    8e00:	00009ac4 	andeq	r9, r0, r4, asr #21
    8e04:	00009ad8 	ldrdeq	r9, [r0], -r8
    8e08:	00009b70 	andeq	r9, r0, r0, ror fp
    8e0c:	00009a90 	muleq	r0, r0, sl
    8e10:	00009aa4 	andeq	r9, r0, r4, lsr #21

00008e14 <rpi_set_output>:
    8e14:	e3500000 	cmp	r0, #0
    8e18:	0a000005 	beq	8e34 <rpi_set_output+0x20>
    8e1c:	e59f3030 	ldr	r3, [pc, #48]	; 8e54 <rpi_set_output+0x40>
    8e20:	e5830000 	str	r0, [r3]
    8e24:	e3510000 	cmp	r1, #0
    8e28:	159f3028 	ldrne	r3, [pc, #40]	; 8e58 <rpi_set_output+0x44>
    8e2c:	15831000 	strne	r1, [r3]
    8e30:	e12fff1e 	bx	lr
    8e34:	e92d4010 	push	{r4, lr}
    8e38:	ebffff40 	bl	8b40 <rpi_reset_putc>
    8e3c:	e3a03020 	mov	r3, #32
    8e40:	e59f2014 	ldr	r2, [pc, #20]	; 8e5c <rpi_set_output+0x48>
    8e44:	e59f1014 	ldr	r1, [pc, #20]	; 8e60 <rpi_set_output+0x4c>
    8e48:	e59f0014 	ldr	r0, [pc, #20]	; 8e64 <rpi_set_output+0x50>
    8e4c:	ebffff20 	bl	8ad4 <printk>
    8e50:	eb0000b0 	bl	9118 <clean_reboot>
    8e54:	00009700 	andeq	r9, r0, r0, lsl #14
    8e58:	00009704 	andeq	r9, r0, r4, lsl #14
    8e5c:	00009b78 	andeq	r9, r0, r8, ror fp
    8e60:	00009a90 	muleq	r0, r0, sl
    8e64:	00009adc 	ldrdeq	r9, [r0], -ip

00008e68 <va_printk>:
    8e68:	e92d43f0 	push	{r4, r5, r6, r7, r8, r9, lr}
    8e6c:	e24dd094 	sub	sp, sp, #148	; 0x94
    8e70:	e1a07000 	mov	r7, r0
    8e74:	e1a09002 	mov	r9, r2
    8e78:	e58d300c 	str	r3, [sp, #12]
    8e7c:	e2411001 	sub	r1, r1, #1
    8e80:	e0808001 	add	r8, r0, r1
    8e84:	e3a03000 	mov	r3, #0
    8e88:	e5c03000 	strb	r3, [r0]
    8e8c:	e1a04000 	mov	r4, r0
    8e90:	ea000001 	b	8e9c <va_printk+0x34>
    8e94:	e2899001 	add	r9, r9, #1
    8e98:	e4c43001 	strb	r3, [r4], #1
    8e9c:	e5d93000 	ldrb	r3, [r9]
    8ea0:	e3530000 	cmp	r3, #0
    8ea4:	0a000091 	beq	90f0 <va_printk+0x288>
    8ea8:	e1540008 	cmp	r4, r8
    8eac:	2a00008f 	bcs	90f0 <va_printk+0x288>
    8eb0:	e3530025 	cmp	r3, #37	; 0x25
    8eb4:	1afffff6 	bne	8e94 <va_printk+0x2c>
    8eb8:	e5d92001 	ldrb	r2, [r9, #1]
    8ebc:	e3520025 	cmp	r2, #37	; 0x25
    8ec0:	04c43001 	strbeq	r3, [r4], #1
    8ec4:	02899002 	addeq	r9, r9, #2
    8ec8:	0afffff3 	beq	8e9c <va_printk+0x34>
    8ecc:	e2899001 	add	r9, r9, #1
    8ed0:	e3a06000 	mov	r6, #0
    8ed4:	ea000003 	b	8ee8 <va_printk+0x80>
    8ed8:	e0866106 	add	r6, r6, r6, lsl #2
    8edc:	e0855086 	add	r5, r5, r6, lsl #1
    8ee0:	e2456030 	sub	r6, r5, #48	; 0x30
    8ee4:	e2899001 	add	r9, r9, #1
    8ee8:	e5d95000 	ldrb	r5, [r9]
    8eec:	e1a00005 	mov	r0, r5
    8ef0:	ebffff40 	bl	8bf8 <isdigit>
    8ef4:	e3500000 	cmp	r0, #0
    8ef8:	1afffff6 	bne	8ed8 <va_printk+0x70>
    8efc:	e356001f 	cmp	r6, #31
    8f00:	8a00001a 	bhi	8f70 <va_printk+0x108>
    8f04:	e2455062 	sub	r5, r5, #98	; 0x62
    8f08:	e3550016 	cmp	r5, #22
    8f0c:	979ff105 	ldrls	pc, [pc, r5, lsl #2]
    8f10:	ea00006d 	b	90cc <va_printk+0x264>
    8f14:	00009058 	andeq	r9, r0, r8, asr r0
    8f18:	0000909c 	muleq	r0, ip, r0
    8f1c:	00008fa8 	andeq	r8, r0, r8, lsr #31
    8f20:	000090cc 	andeq	r9, r0, ip, asr #1
    8f24:	00008f8c 	andeq	r8, r0, ip, lsl #31
    8f28:	000090cc 	andeq	r9, r0, ip, asr #1
    8f2c:	000090cc 	andeq	r9, r0, ip, asr #1
    8f30:	000090cc 	andeq	r9, r0, ip, asr #1
    8f34:	000090cc 	andeq	r9, r0, ip, asr #1
    8f38:	000090cc 	andeq	r9, r0, ip, asr #1
    8f3c:	000090cc 	andeq	r9, r0, ip, asr #1
    8f40:	000090cc 	andeq	r9, r0, ip, asr #1
    8f44:	000090cc 	andeq	r9, r0, ip, asr #1
    8f48:	000090cc 	andeq	r9, r0, ip, asr #1
    8f4c:	00009028 	andeq	r9, r0, r8, lsr #32
    8f50:	000090cc 	andeq	r9, r0, ip, asr #1
    8f54:	000090cc 	andeq	r9, r0, ip, asr #1
    8f58:	00009088 	andeq	r9, r0, r8, lsl #1
    8f5c:	000090cc 	andeq	r9, r0, ip, asr #1
    8f60:	00008ff8 	strdeq	r8, [r0], -r8	; <UNPREDICTABLE>
    8f64:	000090cc 	andeq	r9, r0, ip, asr #1
    8f68:	000090cc 	andeq	r9, r0, ip, asr #1
    8f6c:	00009028 	andeq	r9, r0, r8, lsr #32
    8f70:	ebfffef2 	bl	8b40 <rpi_reset_putc>
    8f74:	e3a03094 	mov	r3, #148	; 0x94
    8f78:	e59f2184 	ldr	r2, [pc, #388]	; 9104 <va_printk+0x29c>
    8f7c:	e59f1184 	ldr	r1, [pc, #388]	; 9108 <va_printk+0x2a0>
    8f80:	e59f0184 	ldr	r0, [pc, #388]	; 910c <va_printk+0x2a4>
    8f84:	ebfffed2 	bl	8ad4 <printk>
    8f88:	eb000062 	bl	9118 <clean_reboot>
    8f8c:	ebfffeeb 	bl	8b40 <rpi_reset_putc>
    8f90:	e3a0309a 	mov	r3, #154	; 0x9a
    8f94:	e59f2168 	ldr	r2, [pc, #360]	; 9104 <va_printk+0x29c>
    8f98:	e59f1168 	ldr	r1, [pc, #360]	; 9108 <va_printk+0x2a0>
    8f9c:	e59f016c 	ldr	r0, [pc, #364]	; 9110 <va_printk+0x2a8>
    8fa0:	ebfffecb 	bl	8ad4 <printk>
    8fa4:	eb00005b 	bl	9118 <clean_reboot>
    8fa8:	e59d300c 	ldr	r3, [sp, #12]
    8fac:	e2832004 	add	r2, r3, #4
    8fb0:	e58d200c 	str	r2, [sp, #12]
    8fb4:	e5933000 	ldr	r3, [r3]
    8fb8:	e3a02001 	mov	r2, #1
    8fbc:	e58d2004 	str	r2, [sp, #4]
    8fc0:	e58d6000 	str	r6, [sp]
    8fc4:	e3a02080 	mov	r2, #128	; 0x80
    8fc8:	e28d1010 	add	r1, sp, #16
    8fcc:	e3a0000a 	mov	r0, #10
    8fd0:	ebffff24 	bl	8c68 <emit>
    8fd4:	e2899001 	add	r9, r9, #1
    8fd8:	e1540008 	cmp	r4, r8
    8fdc:	2affffae 	bcs	8e9c <va_printk+0x34>
    8fe0:	e5d03000 	ldrb	r3, [r0]
    8fe4:	e3530000 	cmp	r3, #0
    8fe8:	0affffab 	beq	8e9c <va_printk+0x34>
    8fec:	e2800001 	add	r0, r0, #1
    8ff0:	e4c43001 	strb	r3, [r4], #1
    8ff4:	eafffff7 	b	8fd8 <va_printk+0x170>
    8ff8:	e59d300c 	ldr	r3, [sp, #12]
    8ffc:	e2832004 	add	r2, r3, #4
    9000:	e58d200c 	str	r2, [sp, #12]
    9004:	e5933000 	ldr	r3, [r3]
    9008:	e3a02000 	mov	r2, #0
    900c:	e58d2004 	str	r2, [sp, #4]
    9010:	e58d6000 	str	r6, [sp]
    9014:	e3a02080 	mov	r2, #128	; 0x80
    9018:	e28d1010 	add	r1, sp, #16
    901c:	e3a0000a 	mov	r0, #10
    9020:	ebffff10 	bl	8c68 <emit>
    9024:	eaffffea 	b	8fd4 <va_printk+0x16c>
    9028:	e59d300c 	ldr	r3, [sp, #12]
    902c:	e2832004 	add	r2, r3, #4
    9030:	e58d200c 	str	r2, [sp, #12]
    9034:	e5933000 	ldr	r3, [r3]
    9038:	e3a02000 	mov	r2, #0
    903c:	e58d2004 	str	r2, [sp, #4]
    9040:	e58d6000 	str	r6, [sp]
    9044:	e3a02080 	mov	r2, #128	; 0x80
    9048:	e28d1010 	add	r1, sp, #16
    904c:	e3a00010 	mov	r0, #16
    9050:	ebffff04 	bl	8c68 <emit>
    9054:	eaffffde 	b	8fd4 <va_printk+0x16c>
    9058:	e59d300c 	ldr	r3, [sp, #12]
    905c:	e2832004 	add	r2, r3, #4
    9060:	e58d200c 	str	r2, [sp, #12]
    9064:	e5933000 	ldr	r3, [r3]
    9068:	e3a02000 	mov	r2, #0
    906c:	e58d2004 	str	r2, [sp, #4]
    9070:	e58d6000 	str	r6, [sp]
    9074:	e3a02080 	mov	r2, #128	; 0x80
    9078:	e28d1010 	add	r1, sp, #16
    907c:	e3a00002 	mov	r0, #2
    9080:	ebfffef8 	bl	8c68 <emit>
    9084:	eaffffd2 	b	8fd4 <va_printk+0x16c>
    9088:	e59d300c 	ldr	r3, [sp, #12]
    908c:	e2832004 	add	r2, r3, #4
    9090:	e58d200c 	str	r2, [sp, #12]
    9094:	e5930000 	ldr	r0, [r3]
    9098:	eaffffcd 	b	8fd4 <va_printk+0x16c>
    909c:	e59d300c 	ldr	r3, [sp, #12]
    90a0:	e2832004 	add	r2, r3, #4
    90a4:	e58d200c 	str	r2, [sp, #12]
    90a8:	e5933000 	ldr	r3, [r3]
    90ac:	e3a02000 	mov	r2, #0
    90b0:	e58d2004 	str	r2, [sp, #4]
    90b4:	e58d6000 	str	r6, [sp]
    90b8:	e3a02080 	mov	r2, #128	; 0x80
    90bc:	e28d1010 	add	r1, sp, #16
    90c0:	e3a00008 	mov	r0, #8
    90c4:	ebfffee7 	bl	8c68 <emit>
    90c8:	eaffffc1 	b	8fd4 <va_printk+0x16c>
    90cc:	ebfffe9b 	bl	8b40 <rpi_reset_putc>
    90d0:	e5d93000 	ldrb	r3, [r9]
    90d4:	e58d3000 	str	r3, [sp]
    90d8:	e3a030bb 	mov	r3, #187	; 0xbb
    90dc:	e59f2020 	ldr	r2, [pc, #32]	; 9104 <va_printk+0x29c>
    90e0:	e59f1020 	ldr	r1, [pc, #32]	; 9108 <va_printk+0x2a0>
    90e4:	e59f0028 	ldr	r0, [pc, #40]	; 9114 <va_printk+0x2ac>
    90e8:	ebfffe79 	bl	8ad4 <printk>
    90ec:	eb000009 	bl	9118 <clean_reboot>
    90f0:	e3a03000 	mov	r3, #0
    90f4:	e4c43001 	strb	r3, [r4], #1
    90f8:	e0440007 	sub	r0, r4, r7
    90fc:	e28dd094 	add	sp, sp, #148	; 0x94
    9100:	e8bd83f0 	pop	{r4, r5, r6, r7, r8, r9, pc}
    9104:	00009b88 	andeq	r9, r0, r8, lsl #23
    9108:	00009a90 	muleq	r0, r0, sl
    910c:	00009af4 	strdeq	r9, [r0], -r4
    9110:	00009b10 	andeq	r9, r0, r0, lsl fp
    9114:	00009b38 	andeq	r9, r0, r8, lsr fp

00009118 <clean_reboot>:
    9118:	e92d4010 	push	{r4, lr}
    911c:	e59f3014 	ldr	r3, [pc, #20]	; 9138 <clean_reboot+0x20>
    9120:	e5933000 	ldr	r3, [r3]
    9124:	e59f0010 	ldr	r0, [pc, #16]	; 913c <clean_reboot+0x24>
    9128:	e12fff33 	blx	r3
    912c:	e3a00064 	mov	r0, #100	; 0x64
    9130:	eb000042 	bl	9240 <delay_ms>
    9134:	eb000017 	bl	9198 <rpi_reboot>
    9138:	00009704 	andeq	r9, r0, r4, lsl #14
    913c:	00009b94 	muleq	r0, r4, fp

00009140 <_cstart>:
    9140:	e92d4010 	push	{r4, lr}
    9144:	e59f3018 	ldr	r3, [pc, #24]	; 9164 <_cstart+0x24>
    9148:	e59f2018 	ldr	r2, [pc, #24]	; 9168 <_cstart+0x28>
    914c:	e1530002 	cmp	r3, r2
    9150:	33a02000 	movcc	r2, #0
    9154:	34832004 	strcc	r2, [r3], #4
    9158:	3afffffa 	bcc	9148 <_cstart+0x8>
    915c:	ebfffbab 	bl	8010 <notmain>
    9160:	ebffffec 	bl	9118 <clean_reboot>
    9164:	00009cc0 	andeq	r9, r0, r0, asr #25
    9168:	0000a0d0 	ldrdeq	sl, [r0], -r0

0000916c <at_user_level>:
    916c:	e10f0000 	mrs	r0, CPSR
    9170:	e200001f 	and	r0, r0, #31
    9174:	e3500010 	cmp	r0, #16
    9178:	13a00000 	movne	r0, #0
    917c:	03a00001 	moveq	r0, #1
    9180:	e12fff1e 	bx	lr

00009184 <set_user_level>:
    9184:	e10f3000 	mrs	r3, CPSR
    9188:	e3c3301f 	bic	r3, r3, #31
    918c:	e3833010 	orr	r3, r3, #16
    9190:	e129f003 	msr	CPSR_fc, r3
    9194:	e12fff1e 	bx	lr

00009198 <rpi_reboot>:
    9198:	e92d4010 	push	{r4, lr}
    919c:	ebfffff2 	bl	916c <at_user_level>
    91a0:	e3500000 	cmp	r0, #0
    91a4:	1a000008 	bne	91cc <rpi_reboot+0x34>
    91a8:	e3a0001e 	mov	r0, #30
    91ac:	eb000023 	bl	9240 <delay_ms>
    91b0:	e59f101c 	ldr	r1, [pc, #28]	; 91d4 <rpi_reboot+0x3c>
    91b4:	e59f001c 	ldr	r0, [pc, #28]	; 91d8 <rpi_reboot+0x40>
    91b8:	eb00002e 	bl	9278 <PUT32>
    91bc:	e59f1018 	ldr	r1, [pc, #24]	; 91dc <rpi_reboot+0x44>
    91c0:	e59f0018 	ldr	r0, [pc, #24]	; 91e0 <rpi_reboot+0x48>
    91c4:	eb00002b 	bl	9278 <PUT32>
    91c8:	eafffffe 	b	91c8 <rpi_reboot+0x30>
    91cc:	ebffffec 	bl	9184 <set_user_level>
    91d0:	eafffff4 	b	91a8 <rpi_reboot+0x10>
    91d4:	5a000001 	bpl	91e0 <rpi_reboot+0x48>
    91d8:	20100024 	andscs	r0, r0, r4, lsr #32
    91dc:	5a000020 	bpl	9264 <delay_sec+0xc>
    91e0:	2010001c 	andscs	r0, r0, ip, lsl r0

000091e4 <delay_cycles>:
    91e4:	e2403001 	sub	r3, r0, #1
    91e8:	e3500000 	cmp	r0, #0
    91ec:	012fff1e 	bxeq	lr
    91f0:	e2811000 	add	r1, r1, #0
    91f4:	e1a00003 	mov	r0, r3
    91f8:	eafffff9 	b	91e4 <delay_cycles>

000091fc <timer_get_usec_raw>:
    91fc:	e92d4010 	push	{r4, lr}
    9200:	e59f0004 	ldr	r0, [pc, #4]	; 920c <timer_get_usec_raw+0x10>
    9204:	eb000027 	bl	92a8 <GET32>
    9208:	e8bd8010 	pop	{r4, pc}
    920c:	20003004 	andcs	r3, r0, r4

00009210 <timer_get_usec>:
    9210:	e92d4010 	push	{r4, lr}
    9214:	ebfffff8 	bl	91fc <timer_get_usec_raw>
    9218:	e8bd8010 	pop	{r4, pc}

0000921c <delay_us>:
    921c:	e92d4070 	push	{r4, r5, r6, lr}
    9220:	e1a05000 	mov	r5, r0
    9224:	ebfffff9 	bl	9210 <timer_get_usec>
    9228:	e1a04000 	mov	r4, r0
    922c:	ebfffff7 	bl	9210 <timer_get_usec>
    9230:	e0400004 	sub	r0, r0, r4
    9234:	e1500005 	cmp	r0, r5
    9238:	3afffffb 	bcc	922c <delay_us+0x10>
    923c:	e8bd8070 	pop	{r4, r5, r6, pc}

00009240 <delay_ms>:
    9240:	e92d4010 	push	{r4, lr}
    9244:	e0603280 	rsb	r3, r0, r0, lsl #5
    9248:	e0800103 	add	r0, r0, r3, lsl #2
    924c:	e1a00180 	lsl	r0, r0, #3
    9250:	ebfffff1 	bl	921c <delay_us>
    9254:	e8bd8010 	pop	{r4, pc}

00009258 <delay_sec>:
    9258:	e92d4010 	push	{r4, lr}
    925c:	e0603280 	rsb	r3, r0, r0, lsl #5
    9260:	e0800103 	add	r0, r0, r3, lsl #2
    9264:	e1a00180 	lsl	r0, r0, #3
    9268:	ebfffff4 	bl	9240 <delay_ms>
    926c:	e8bd8010 	pop	{r4, pc}

00009270 <put32>:
    9270:	e5801000 	str	r1, [r0]
    9274:	e12fff1e 	bx	lr

00009278 <PUT32>:
    9278:	e5801000 	str	r1, [r0]
    927c:	e12fff1e 	bx	lr

00009280 <put16>:
    9280:	e1c010b0 	strh	r1, [r0]
    9284:	e12fff1e 	bx	lr

00009288 <PUT16>:
    9288:	e1c010b0 	strh	r1, [r0]
    928c:	e12fff1e 	bx	lr

00009290 <put8>:
    9290:	e5c01000 	strb	r1, [r0]
    9294:	e12fff1e 	bx	lr

00009298 <PUT8>:
    9298:	e5c01000 	strb	r1, [r0]
    929c:	e12fff1e 	bx	lr

000092a0 <get32>:
    92a0:	e5900000 	ldr	r0, [r0]
    92a4:	e12fff1e 	bx	lr

000092a8 <GET32>:
    92a8:	e5900000 	ldr	r0, [r0]
    92ac:	e12fff1e 	bx	lr

000092b0 <GETPC>:
    92b0:	e1a0000e 	mov	r0, lr
    92b4:	e12fff1e 	bx	lr

000092b8 <dummy>:
    92b8:	e12fff1e 	bx	lr

000092bc <or_in32>:
    92bc:	e92d4070 	push	{r4, r5, r6, lr}
    92c0:	e1a04000 	mov	r4, r0
    92c4:	e1a05001 	mov	r5, r1
    92c8:	ebfffff4 	bl	92a0 <get32>
    92cc:	e1801005 	orr	r1, r0, r5
    92d0:	e1a00004 	mov	r0, r4
    92d4:	ebffffe5 	bl	9270 <put32>
    92d8:	e8bd8070 	pop	{r4, r5, r6, pc}

000092dc <uart_init>:
    92dc:	e92d4010 	push	{r4, lr}
    92e0:	e3a01002 	mov	r1, #2
    92e4:	e3a0000e 	mov	r0, #14
    92e8:	eb000051 	bl	9434 <gpio_set_function>
    92ec:	e3a01002 	mov	r1, #2
    92f0:	e3a0000f 	mov	r0, #15
    92f4:	eb00004e 	bl	9434 <gpio_set_function>
    92f8:	eb0000fa 	bl	96e8 <dev_barrier>
    92fc:	e3a01001 	mov	r1, #1
    9300:	e59f0064 	ldr	r0, [pc, #100]	; 936c <uart_init+0x90>
    9304:	ebffffec 	bl	92bc <or_in32>
    9308:	eb0000f6 	bl	96e8 <dev_barrier>
    930c:	e59f405c 	ldr	r4, [pc, #92]	; 9370 <uart_init+0x94>
    9310:	e3a01000 	mov	r1, #0
    9314:	e1a00004 	mov	r0, r4
    9318:	ebffffd4 	bl	9270 <put32>
    931c:	e3a01000 	mov	r1, #0
    9320:	e59f004c 	ldr	r0, [pc, #76]	; 9374 <uart_init+0x98>
    9324:	ebffffd1 	bl	9270 <put32>
    9328:	e3a01003 	mov	r1, #3
    932c:	e59f0044 	ldr	r0, [pc, #68]	; 9378 <uart_init+0x9c>
    9330:	ebffffce 	bl	9270 <put32>
    9334:	e3a01000 	mov	r1, #0
    9338:	e59f003c 	ldr	r0, [pc, #60]	; 937c <uart_init+0xa0>
    933c:	ebffffcb 	bl	9270 <put32>
    9340:	e3a010c7 	mov	r1, #199	; 0xc7
    9344:	e59f0034 	ldr	r0, [pc, #52]	; 9380 <uart_init+0xa4>
    9348:	ebffffc8 	bl	9270 <put32>
    934c:	e59f1030 	ldr	r1, [pc, #48]	; 9384 <uart_init+0xa8>
    9350:	e59f0030 	ldr	r0, [pc, #48]	; 9388 <uart_init+0xac>
    9354:	ebffffc5 	bl	9270 <put32>
    9358:	e3a01003 	mov	r1, #3
    935c:	e1a00004 	mov	r0, r4
    9360:	ebffffc2 	bl	9270 <put32>
    9364:	eb0000df 	bl	96e8 <dev_barrier>
    9368:	e8bd8010 	pop	{r4, pc}
    936c:	20215004 	eorcs	r5, r1, r4
    9370:	20215060 	eorcs	r5, r1, r0, rrx
    9374:	20215044 	eorcs	r5, r1, r4, asr #32
    9378:	2021504c 	eorcs	r5, r1, ip, asr #32
    937c:	20215050 	eorcs	r5, r1, r0, asr r0
    9380:	20215048 	eorcs	r5, r1, r8, asr #32
    9384:	0000010e 	andeq	r0, r0, lr, lsl #2
    9388:	20215068 	eorcs	r5, r1, r8, rrx

0000938c <uart_can_getc>:
    938c:	e92d4010 	push	{r4, lr}
    9390:	e59f0008 	ldr	r0, [pc, #8]	; 93a0 <uart_can_getc+0x14>
    9394:	ebffffc1 	bl	92a0 <get32>
    9398:	e2000001 	and	r0, r0, #1
    939c:	e8bd8010 	pop	{r4, pc}
    93a0:	20215064 	eorcs	r5, r1, r4, rrx

000093a4 <uart_can_putc>:
    93a4:	e92d4010 	push	{r4, lr}
    93a8:	e59f0010 	ldr	r0, [pc, #16]	; 93c0 <uart_can_putc+0x1c>
    93ac:	ebffffbb 	bl	92a0 <get32>
    93b0:	e3100002 	tst	r0, #2
    93b4:	13a00001 	movne	r0, #1
    93b8:	03a00000 	moveq	r0, #0
    93bc:	e8bd8010 	pop	{r4, pc}
    93c0:	20215064 	eorcs	r5, r1, r4, rrx

000093c4 <uart_getc>:
    93c4:	e92d4010 	push	{r4, lr}
    93c8:	eb0000c6 	bl	96e8 <dev_barrier>
    93cc:	ebffffee 	bl	938c <uart_can_getc>
    93d0:	e3500000 	cmp	r0, #0
    93d4:	0afffffc 	beq	93cc <uart_getc+0x8>
    93d8:	e59f0010 	ldr	r0, [pc, #16]	; 93f0 <uart_getc+0x2c>
    93dc:	ebffffaf 	bl	92a0 <get32>
    93e0:	e6ef4070 	uxtb	r4, r0
    93e4:	eb0000bf 	bl	96e8 <dev_barrier>
    93e8:	e1a00004 	mov	r0, r4
    93ec:	e8bd8010 	pop	{r4, pc}
    93f0:	20215040 	eorcs	r5, r1, r0, asr #32

000093f4 <uart_putc>:
    93f4:	e92d4010 	push	{r4, lr}
    93f8:	e1a04000 	mov	r4, r0
    93fc:	eb0000b9 	bl	96e8 <dev_barrier>
    9400:	ebffffe7 	bl	93a4 <uart_can_putc>
    9404:	e3500000 	cmp	r0, #0
    9408:	0afffffc 	beq	9400 <uart_putc+0xc>
    940c:	e6ef1074 	uxtb	r1, r4
    9410:	e59f0008 	ldr	r0, [pc, #8]	; 9420 <uart_putc+0x2c>
    9414:	ebffff95 	bl	9270 <put32>
    9418:	eb0000b2 	bl	96e8 <dev_barrier>
    941c:	e8bd8010 	pop	{r4, pc}
    9420:	20215040 	eorcs	r5, r1, r0, asr #32

00009424 <uart_has_data>:
    9424:	e92d4010 	push	{r4, lr}
    9428:	eb0000ae 	bl	96e8 <dev_barrier>
    942c:	ebffffd6 	bl	938c <uart_can_getc>
    9430:	e8bd8010 	pop	{r4, pc}

00009434 <gpio_set_function>:
    9434:	e350001f 	cmp	r0, #31
    9438:	812fff1e 	bxhi	lr
    943c:	e3d13007 	bics	r3, r1, #7
    9440:	112fff1e 	bxne	lr
    9444:	e92d4070 	push	{r4, r5, r6, lr}
    9448:	e1a05001 	mov	r5, r1
    944c:	e59f3044 	ldr	r3, [pc, #68]	; 9498 <gpio_set_function+0x64>
    9450:	e0832093 	umull	r2, r3, r3, r0
    9454:	e1a031a3 	lsr	r3, r3, #3
    9458:	e1a06003 	mov	r6, r3
    945c:	e0833103 	add	r3, r3, r3, lsl #2
    9460:	e1a02083 	lsl	r2, r3, #1
    9464:	e0403002 	sub	r3, r0, r2
    9468:	e0834083 	add	r4, r3, r3, lsl #1
    946c:	e2866302 	add	r6, r6, #134217728	; 0x8000000
    9470:	e2866702 	add	r6, r6, #524288	; 0x80000
    9474:	e1a06106 	lsl	r6, r6, #2
    9478:	e1a00006 	mov	r0, r6
    947c:	ebffff89 	bl	92a8 <GET32>
    9480:	e3a01007 	mov	r1, #7
    9484:	e1c01411 	bic	r1, r0, r1, lsl r4
    9488:	e1811415 	orr	r1, r1, r5, lsl r4
    948c:	e1a00006 	mov	r0, r6
    9490:	ebffff78 	bl	9278 <PUT32>
    9494:	e8bd8070 	pop	{r4, r5, r6, pc}
    9498:	cccccccd 	stclgt	12, cr12, [ip], {205}	; 0xcd

0000949c <gpio_set_output>:
    949c:	e92d4010 	push	{r4, lr}
    94a0:	e3a01001 	mov	r1, #1
    94a4:	ebffffe2 	bl	9434 <gpio_set_function>
    94a8:	e8bd8010 	pop	{r4, pc}

000094ac <gpio_set_on>:
    94ac:	e350001f 	cmp	r0, #31
    94b0:	812fff1e 	bxhi	lr
    94b4:	e92d4010 	push	{r4, lr}
    94b8:	e3a01001 	mov	r1, #1
    94bc:	e1a01011 	lsl	r1, r1, r0
    94c0:	e59f0004 	ldr	r0, [pc, #4]	; 94cc <gpio_set_on+0x20>
    94c4:	ebffff6b 	bl	9278 <PUT32>
    94c8:	e8bd8010 	pop	{r4, pc}
    94cc:	2020001c 	eorcs	r0, r0, ip, lsl r0

000094d0 <gpio_set_off>:
    94d0:	e350001f 	cmp	r0, #31
    94d4:	812fff1e 	bxhi	lr
    94d8:	e92d4010 	push	{r4, lr}
    94dc:	e3a01001 	mov	r1, #1
    94e0:	e1a01011 	lsl	r1, r1, r0
    94e4:	e59f0004 	ldr	r0, [pc, #4]	; 94f0 <gpio_set_off+0x20>
    94e8:	ebffff62 	bl	9278 <PUT32>
    94ec:	e8bd8010 	pop	{r4, pc}
    94f0:	20200028 	eorcs	r0, r0, r8, lsr #32

000094f4 <gpio_set_input>:
    94f4:	e92d4010 	push	{r4, lr}
    94f8:	e3a01000 	mov	r1, #0
    94fc:	ebffffcc 	bl	9434 <gpio_set_function>
    9500:	e8bd8010 	pop	{r4, pc}

00009504 <gpio_write>:
    9504:	e92d4010 	push	{r4, lr}
    9508:	e3510000 	cmp	r1, #0
    950c:	1a000001 	bne	9518 <gpio_write+0x14>
    9510:	ebffffee 	bl	94d0 <gpio_set_off>
    9514:	e8bd8010 	pop	{r4, pc}
    9518:	ebffffe3 	bl	94ac <gpio_set_on>
    951c:	e8bd8010 	pop	{r4, pc}

00009520 <gpio_read>:
    9520:	e350001f 	cmp	r0, #31
    9524:	8a000007 	bhi	9548 <gpio_read+0x28>
    9528:	e92d4010 	push	{r4, lr}
    952c:	e200401f 	and	r4, r0, #31
    9530:	e59f3018 	ldr	r3, [pc, #24]	; 9550 <gpio_read+0x30>
    9534:	e08302a0 	add	r0, r3, r0, lsr #5
    9538:	ebffff5a 	bl	92a8 <GET32>
    953c:	e1a00430 	lsr	r0, r0, r4
    9540:	e2000001 	and	r0, r0, #1
    9544:	e8bd8010 	pop	{r4, pc}
    9548:	e3e00000 	mvn	r0, #0
    954c:	e12fff1e 	bx	lr
    9550:	20200034 	eorcs	r0, r0, r4, lsr r0

00009554 <kmalloc_heap_end>:
    9554:	e59f3004 	ldr	r3, [pc, #4]	; 9560 <kmalloc_heap_end+0xc>
    9558:	e5930000 	ldr	r0, [r3]
    955c:	e12fff1e 	bx	lr
    9560:	0000970c 	andeq	r9, r0, ip, lsl #14

00009564 <kmalloc_heap_start>:
    9564:	e59f0000 	ldr	r0, [pc]	; 956c <kmalloc_heap_start+0x8>
    9568:	e12fff1e 	bx	lr
    956c:	0000a0d0 	ldrdeq	sl, [r0], -r0

00009570 <kmalloc_init_set_start>:
    9570:	e59f3038 	ldr	r3, [pc, #56]	; 95b0 <kmalloc_init_set_start+0x40>
    9574:	e5933000 	ldr	r3, [r3]
    9578:	e1500003 	cmp	r0, r3
    957c:	9a000003 	bls	9590 <kmalloc_init_set_start+0x20>
    9580:	e59f3028 	ldr	r3, [pc, #40]	; 95b0 <kmalloc_init_set_start+0x40>
    9584:	e5830000 	str	r0, [r3]
    9588:	e5830004 	str	r0, [r3, #4]
    958c:	e12fff1e 	bx	lr
    9590:	e92d4010 	push	{r4, lr}
    9594:	ebfffd69 	bl	8b40 <rpi_reset_putc>
    9598:	e3a03016 	mov	r3, #22
    959c:	e59f2010 	ldr	r2, [pc, #16]	; 95b4 <kmalloc_init_set_start+0x44>
    95a0:	e59f1010 	ldr	r1, [pc, #16]	; 95b8 <kmalloc_init_set_start+0x48>
    95a4:	e59f0010 	ldr	r0, [pc, #16]	; 95bc <kmalloc_init_set_start+0x4c>
    95a8:	ebfffd49 	bl	8ad4 <printk>
    95ac:	ebfffed9 	bl	9118 <clean_reboot>
    95b0:	0000970c 	andeq	r9, r0, ip, lsl #14
    95b4:	00009ba0 	andeq	r9, r0, r0, lsr #23
    95b8:	00009bd0 	ldrdeq	r9, [r0], -r0
    95bc:	00009bdc 	ldrdeq	r9, [r0], -ip

000095c0 <kmalloc>:
    95c0:	e92d4010 	push	{r4, lr}
    95c4:	e3500000 	cmp	r0, #0
    95c8:	0a00000a 	beq	95f8 <kmalloc+0x38>
    95cc:	e2802007 	add	r2, r0, #7
    95d0:	e3c22007 	bic	r2, r2, #7
    95d4:	e59f3038 	ldr	r3, [pc, #56]	; 9614 <kmalloc+0x54>
    95d8:	e5934000 	ldr	r4, [r3]
    95dc:	e0841002 	add	r1, r4, r2
    95e0:	e5831000 	str	r1, [r3]
    95e4:	e3a01000 	mov	r1, #0
    95e8:	e1a00004 	mov	r0, r4
    95ec:	ebfffd32 	bl	8abc <memset>
    95f0:	e1a00004 	mov	r0, r4
    95f4:	e8bd8010 	pop	{r4, pc}
    95f8:	ebfffd50 	bl	8b40 <rpi_reset_putc>
    95fc:	e3a0301b 	mov	r3, #27
    9600:	e59f2010 	ldr	r2, [pc, #16]	; 9618 <kmalloc+0x58>
    9604:	e59f1010 	ldr	r1, [pc, #16]	; 961c <kmalloc+0x5c>
    9608:	e59f0010 	ldr	r0, [pc, #16]	; 9620 <kmalloc+0x60>
    960c:	ebfffd30 	bl	8ad4 <printk>
    9610:	ebfffec0 	bl	9118 <clean_reboot>
    9614:	0000970c 	andeq	r9, r0, ip, lsl #14
    9618:	00009bb8 			; <UNDEFINED> instruction: 0x00009bb8
    961c:	00009bd0 	ldrdeq	r9, [r0], -r0
    9620:	00009bf8 	strdeq	r9, [r0], -r8

00009624 <kmalloc_init>:
    9624:	e12fff1e 	bx	lr

00009628 <kmalloc_heap_ptr>:
    9628:	e92d4010 	push	{r4, lr}
    962c:	ebffffcc 	bl	9564 <kmalloc_heap_start>
    9630:	e8bd8010 	pop	{r4, pc}

00009634 <kmalloc_aligned>:
    9634:	e92d4010 	push	{r4, lr}
    9638:	e2613000 	rsb	r3, r1, #0
    963c:	e1d12003 	bics	r2, r1, r3
    9640:	1a00000b 	bne	9674 <kmalloc_aligned+0x40>
    9644:	e59f2060 	ldr	r2, [pc, #96]	; 96ac <kmalloc_aligned+0x78>
    9648:	e5922000 	ldr	r2, [r2]
    964c:	e0812002 	add	r2, r1, r2
    9650:	e2422001 	sub	r2, r2, #1
    9654:	e0033002 	and	r3, r3, r2
    9658:	e2411001 	sub	r1, r1, #1
    965c:	e1130001 	tst	r3, r1
    9660:	1a00000a 	bne	9690 <kmalloc_aligned+0x5c>
    9664:	e59f2040 	ldr	r2, [pc, #64]	; 96ac <kmalloc_aligned+0x78>
    9668:	e5823000 	str	r3, [r2]
    966c:	ebffffd3 	bl	95c0 <kmalloc>
    9670:	e8bd8010 	pop	{r4, pc}
    9674:	ebfffd31 	bl	8b40 <rpi_reset_putc>
    9678:	e3a0302a 	mov	r3, #42	; 0x2a
    967c:	e59f202c 	ldr	r2, [pc, #44]	; 96b0 <kmalloc_aligned+0x7c>
    9680:	e59f102c 	ldr	r1, [pc, #44]	; 96b4 <kmalloc_aligned+0x80>
    9684:	e59f002c 	ldr	r0, [pc, #44]	; 96b8 <kmalloc_aligned+0x84>
    9688:	ebfffd11 	bl	8ad4 <printk>
    968c:	ebfffea1 	bl	9118 <clean_reboot>
    9690:	ebfffd2a 	bl	8b40 <rpi_reset_putc>
    9694:	e3a03030 	mov	r3, #48	; 0x30
    9698:	e59f2010 	ldr	r2, [pc, #16]	; 96b0 <kmalloc_aligned+0x7c>
    969c:	e59f1010 	ldr	r1, [pc, #16]	; 96b4 <kmalloc_aligned+0x80>
    96a0:	e59f0014 	ldr	r0, [pc, #20]	; 96bc <kmalloc_aligned+0x88>
    96a4:	ebfffd0a 	bl	8ad4 <printk>
    96a8:	ebfffe9a 	bl	9118 <clean_reboot>
    96ac:	0000970c 	andeq	r9, r0, ip, lsl #14
    96b0:	00009bc0 	andeq	r9, r0, r0, asr #23
    96b4:	00009bd0 	ldrdeq	r9, [r0], -r0
    96b8:	00009c0c 	andeq	r9, r0, ip, lsl #24
    96bc:	00009c6c 	andeq	r9, r0, ip, ror #24

000096c0 <kfree>:
    96c0:	e12fff1e 	bx	lr

000096c4 <kfree_all>:
    96c4:	e59f3008 	ldr	r3, [pc, #8]	; 96d4 <kfree_all+0x10>
    96c8:	e5932004 	ldr	r2, [r3, #4]
    96cc:	e5832000 	str	r2, [r3]
    96d0:	e12fff1e 	bx	lr
    96d4:	0000970c 	andeq	r9, r0, ip, lsl #14

000096d8 <kfree_after>:
    96d8:	e59f3004 	ldr	r3, [pc, #4]	; 96e4 <kfree_after+0xc>
    96dc:	e5830000 	str	r0, [r3]
    96e0:	e12fff1e 	bx	lr
    96e4:	0000970c 	andeq	r9, r0, ip, lsl #14

000096e8 <dev_barrier>:
    96e8:	ea000002 	b	96f8 <dsb>

000096ec <dmb>:
    96ec:	e3a00000 	mov	r0, #0
    96f0:	ee070fba 	mcr	15, 0, r0, cr7, cr10, {5}
    96f4:	e12fff1e 	bx	lr

000096f8 <dsb>:
    96f8:	ee070f9a 	mcr	15, 0, r0, cr7, cr10, {4}
    96fc:	e12fff1e 	bx	lr

Disassembly of section .data:

00009700 <rpi_putchar>:
    9700:	00008b2c 	andeq	r8, r0, ip, lsr #22

00009704 <putk>:
    9704:	00008b68 	andeq	r8, r0, r8, ror #22

00009708 <lfsr>:
    9708:	0000ace1 	andeq	sl, r0, r1, ror #25

0000970c <heap>:
    970c:	0000a0d0 	ldrdeq	sl, [r0], -r0

00009710 <heap_start>:
    9710:	0000a0d0 	ldrdeq	sl, [r0], -r0

Disassembly of section .rodata:

00009714 <__FUNCTION__.4337-0x70>:
    9714:	74736574 	ldrbtvc	r6, [r3], #-1396	; 0xfffffa8c
    9718:	75203a34 	strvc	r3, [r0, #-2612]!	; 0xfffff5cc
    971c:	61206573 			; <UNDEFINED> instruction: 0x61206573
    9720:	72657466 	rsbvc	r7, r5, #1711276032	; 0x66000000
    9724:	65726620 	ldrbvs	r6, [r2, #-1568]!	; 0xfffff9e0
    9728:	00000a65 	andeq	r0, r0, r5, ror #20
    972c:	74726170 	ldrbtvc	r6, [r2], #-368	; 0xfffffe90
    9730:	65742d31 	ldrbvs	r2, [r4, #-3377]!	; 0xfffff2cf
    9734:	2e357473 	mrccs	4, 1, r7, cr5, cr3, {3}
    9738:	00000063 	andeq	r0, r0, r3, rrx
    973c:	494e4150 	stmdbmi	lr, {r4, r6, r8, lr}^
    9740:	73253a43 			; <UNDEFINED> instruction: 0x73253a43
    9744:	3a73253a 	bcc	1cd2c34 <__bss_end__+0x1cc8b64>
    9748:	693a6425 	ldmdbvs	sl!, {r0, r2, r5, sl, sp, lr}
    974c:	6c61766e 	stclvs	6, cr7, [r1], #-440	; 0xfffffe48
    9750:	65206469 	strvs	r6, [r0, #-1129]!	; 0xfffffb97
    9754:	726f7272 	rsbvc	r7, pc, #536870919	; 0x20000007
    9758:	0a0a2121 	beq	291be4 <__bss_end__+0x287b14>
    975c:	00000000 	andeq	r0, r0, r0
    9760:	43415254 	movtmi	r5, #4692	; 0x1254
    9764:	00003a45 	andeq	r3, r0, r5, asr #20
    9768:	43435553 	movtmi	r5, #13651	; 0x3553
    976c:	20535345 	subscs	r5, r3, r5, asr #6
    9770:	70616568 	rsbvc	r6, r1, r8, ror #10
    9774:	65686320 	strbvs	r6, [r8, #-800]!	; 0xfffffce0
    9778:	64656b63 	strbtvs	r6, [r5], #-2915	; 0xfffff49d
    977c:	74756f20 	ldrbtvc	r6, [r5], #-3872	; 0xfffff0e0
    9780:	0000000a 	andeq	r0, r0, sl

00009784 <__FUNCTION__.4337>:
    9784:	6d746f6e 	ldclvs	15, cr6, [r4, #-440]!	; 0xfffffe48
    9788:	006e6961 	rsbeq	r6, lr, r1, ror #18
    978c:	4f525245 	svcmi	0x00525245
    9790:	00003a52 	andeq	r3, r0, r2, asr sl
    9794:	636f6c62 	cmnvs	pc, #25088	; 0x6200
    9798:	7025206b 	eorvc	r2, r5, fp, rrx
    979c:	726f6320 	rsbvc	r6, pc, #32, 6	; 0x80000000
    97a0:	74707572 	ldrbtvc	r7, [r0], #-1394	; 0xfffffa8e
    97a4:	61206465 			; <UNDEFINED> instruction: 0x61206465
    97a8:	666f2074 			; <UNDEFINED> instruction: 0x666f2074
    97ac:	74657366 	strbtvc	r7, [r5], #-870	; 0xfffffc9a
    97b0:	0a642520 	beq	1912c38 <__bss_end__+0x1908b68>
    97b4:	00000000 	andeq	r0, r0, r0
    97b8:	79626e09 	stmdbvc	r2!, {r0, r3, r9, sl, fp, sp, lr}^
    97bc:	3d736574 	cfldr64cc	mvdx6, [r3, #-464]!	; 0xfffffe30
    97c0:	000a6425 	andeq	r6, sl, r5, lsr #8
    97c4:	6f6c4209 	svcvs	0x006c4209
    97c8:	61206b63 			; <UNDEFINED> instruction: 0x61206b63
    97cc:	636f6c6c 	cmnvs	pc, #108, 24	; 0x6c00
    97d0:	64657461 	strbtvs	r7, [r5], #-1121	; 0xfffffb9f
    97d4:	3a746120 	bcc	1d21c5c <__bss_end__+0x1d17b8c>
    97d8:	3a732520 	bcc	1cd2c60 <__bss_end__+0x1cc8b90>
    97dc:	253a7325 	ldrcs	r7, [sl, #-805]!	; 0xfffffcdb
    97e0:	00000a64 	andeq	r0, r0, r4, ror #20
    97e4:	6f6c4209 	svcvs	0x006c4209
    97e8:	66206b63 	strtvs	r6, [r0], -r3, ror #22
    97ec:	64656572 	strbtvs	r6, [r5], #-1394	; 0xfffffa8e
    97f0:	3a746120 	bcc	1d21c78 <__bss_end__+0x1d17ba8>
    97f4:	3a732520 	bcc	1cd2c7c <__bss_end__+0x1cc8bac>
    97f8:	253a7325 	ldrcs	r7, [sl, #-805]!	; 0xfffffcdb
    97fc:	00000a64 	andeq	r0, r0, r4, ror #20
    9800:	6f725709 	svcvs	0x00725709
    9804:	62206574 	eorvs	r6, r0, #116, 10	; 0x1d000000
    9808:	6b636f6c 	blvs	18e55c0 <__bss_end__+0x18db4f0>
    980c:	74666120 	strbtvc	r6, [r6], #-288	; 0xfffffee0
    9810:	66207265 	strtvs	r7, [r0], -r5, ror #4
    9814:	21656572 	smccs	22098	; 0x5652
    9818:	0000000a 	andeq	r0, r0, sl
    981c:	6c616b63 			; <UNDEFINED> instruction: 0x6c616b63
    9820:	2e636f6c 	cdpcs	15, 6, cr6, cr3, cr12, {3}
    9824:	00000063 	andeq	r0, r0, r3, rrx
    9828:	494e4150 	stmdbmi	lr, {r4, r6, r8, lr}^
    982c:	73253a43 			; <UNDEFINED> instruction: 0x73253a43
    9830:	3a73253a 	bcc	1cd2d20 <__bss_end__+0x1cc8c50>
    9834:	613a6425 	teqvs	sl, r5, lsr #8
    9838:	6e67696c 	vnmulvs.f16	s13, s14, s25	; <UNPREDICTABLE>
    983c:	68286465 	stmdavs	r8!, {r0, r2, r5, r6, sl, sp, lr}
    9840:	5f706165 	svcpl	0x00706165
    9844:	72617473 	rsbvc	r7, r1, #1929379840	; 0x73000000
    9848:	38202c74 	stmdacc	r0!, {r2, r4, r5, r6, sl, fp, sp}
    984c:	00000a29 	andeq	r0, r0, r9, lsr #20
    9850:	657a6973 	ldrbvs	r6, [sl, #-2419]!	; 0xfffff68d
    9854:	6820666f 	stmdavs	r0!, {r0, r1, r2, r3, r5, r6, r9, sl, sp, lr}
    9858:	253d7264 	ldrcs	r7, [sp, #-612]!	; 0xfffffd9c
    985c:	72202c64 	eorvc	r2, r0, #100, 24	; 0x6400
    9860:	6f7a6465 	svcvs	0x007a6465
    9864:	253d656e 	ldrcs	r6, [sp, #-1390]!	; 0xfffffa92
    9868:	00000a64 	andeq	r0, r0, r4, ror #20
    986c:	4f525245 	svcmi	0x00525245
    9870:	73253a52 			; <UNDEFINED> instruction: 0x73253a52
    9874:	3a73253a 	bcc	1cd2d64 <__bss_end__+0x1cc8c94>
    9878:	203a6425 	eorscs	r6, sl, r5, lsr #8
    987c:	534c4146 	movtpl	r4, #49478	; 0xc146
    9880:	683c2845 	ldmdavs	ip!, {r0, r2, r6, fp, sp}
    9884:	3e706165 	rpwccsz	f6, f0, f5
    9888:	6e203a29 	vmulvs.f32	s6, s0, s19
    988c:	6920746f 	stmdbvs	r0!, {r0, r1, r2, r3, r5, r6, sl, ip, sp, lr}
    9890:	6974696e 	ldmdbvs	r4!, {r1, r2, r3, r5, r6, r8, fp, sp, lr}^
    9894:	7a696c61 	bvc	1a64a20 <__bss_end__+0x1a5a950>
    9898:	0a3f6465 	beq	fe2a34 <__bss_end__+0xfd8964>
    989c:	00000000 	andeq	r0, r0, r0
    98a0:	65657266 	strbvs	r7, [r5, #-614]!	; 0xfffffd9a
    98a4:	20676e69 	rsbcs	r6, r7, r9, ror #28
    98a8:	000a7025 	andeq	r7, sl, r5, lsr #32
    98ac:	6f6c6c61 	svcvs	0x006c6c61
    98b0:	69746163 	ldmdbvs	r4!, {r0, r1, r5, r6, r8, sp, lr}^
    98b4:	2520676e 	strcs	r6, [r0, #-1902]!	; 0xfffff892
    98b8:	79622064 	stmdbvc	r2!, {r2, r5, r6, sp}^
    98bc:	0a736574 	beq	1ce2e94 <__bss_end__+0x1cd8dc4>
    98c0:	00000000 	andeq	r0, r0, r0
    98c4:	43415254 	movtmi	r5, #4692	; 0x1254
    98c8:	52453a45 	subpl	r3, r5, #282624	; 0x45000
    98cc:	00524f52 	subseq	r4, r2, r2, asr pc
    98d0:	657a6973 	ldrbvs	r6, [sl, #-2419]!	; 0xfffff68d
    98d4:	65766f20 	ldrbvs	r6, [r6, #-3872]!	; 0xfffff0e0
    98d8:	6f6c6672 	svcvs	0x006c6672
    98dc:	3a646577 	bcc	1922ec0 <__bss_end__+0x1918df0>
    98e0:	20642520 	rsbcs	r2, r4, r0, lsr #10
    98e4:	65747962 	ldrbvs	r7, [r4, #-2402]!	; 0xfffff69e
    98e8:	73692073 	cmnvc	r9, #115	; 0x73
    98ec:	6f6f7420 	svcvs	0x006f7420
    98f0:	72616c20 	rsbvc	r6, r1, #32, 24	; 0x2000
    98f4:	000a6567 	andeq	r6, sl, r7, ror #10
    98f8:	494e4150 	stmdbmi	lr, {r4, r6, r8, lr}^
    98fc:	73253a43 			; <UNDEFINED> instruction: 0x73253a43
    9900:	3a73253a 	bcc	1cd2df0 <__bss_end__+0x1cc8d20>
    9904:	733a6425 	teqvc	sl, #620756992	; 0x25000000
    9908:	20657a69 	rsbcs	r7, r5, r9, ror #20
    990c:	7265766f 	rsbvc	r7, r5, #116391936	; 0x6f00000
    9910:	776f6c66 	strbvc	r6, [pc, -r6, ror #24]!
    9914:	203a6465 	eorscs	r6, sl, r5, ror #8
    9918:	62206425 	eorvs	r6, r0, #620756992	; 0x25000000
    991c:	73657479 	cmnvc	r5, #2030043136	; 0x79000000
    9920:	20736920 	rsbscs	r6, r3, r0, lsr #18
    9924:	206f6f74 	rsbcs	r6, pc, r4, ror pc	; <UNPREDICTABLE>
    9928:	6772616c 	ldrbvs	r6, [r2, -ip, ror #2]!
    992c:	000a0a65 	andeq	r0, sl, r5, ror #20
    9930:	2074756f 	rsbscs	r7, r4, pc, ror #10
    9934:	6d20666f 	stcvs	6, cr6, [r0, #-444]!	; 0xfffffe44
    9938:	726f6d65 	rsbvc	r6, pc, #6464	; 0x1940
    993c:	20202179 	eorcs	r2, r0, r9, ror r1
    9940:	65766168 	ldrbvs	r6, [r6, #-360]!	; 0xfffffe98
    9944:	6c6e6f20 	stclvs	15, cr6, [lr], #-128	; 0xffffff80
    9948:	64252079 	strtvs	r2, [r5], #-121	; 0xffffff87
    994c:	66656c20 	strbtvs	r6, [r5], -r0, lsr #24
    9950:	6e202c74 	mcrvs	12, 1, r2, cr0, cr4, {3}
    9954:	20646565 	rsbcs	r6, r4, r5, ror #10
    9958:	000a6425 	andeq	r6, sl, r5, lsr #8
    995c:	494e4150 	stmdbmi	lr, {r4, r6, r8, lr}^
    9960:	73253a43 			; <UNDEFINED> instruction: 0x73253a43
    9964:	3a73253a 	bcc	1cd2e54 <__bss_end__+0x1cc8d84>
    9968:	6f3a6425 	svcvs	0x003a6425
    996c:	6f207475 	svcvs	0x00207475
    9970:	656d2066 	strbvs	r2, [sp, #-102]!	; 0xffffff9a
    9974:	79726f6d 	ldmdbvc	r2!, {r0, r2, r3, r5, r6, r8, r9, sl, fp, sp, lr}^
    9978:	68202021 	stmdavs	r0!, {r0, r5, sp}
    997c:	20657661 	rsbcs	r7, r5, r1, ror #12
    9980:	796c6e6f 	stmdbvc	ip!, {r0, r1, r2, r3, r5, r6, r9, sl, fp, sp, lr}^
    9984:	20642520 	rsbcs	r2, r4, r0, lsr #10
    9988:	7466656c 	strbtvc	r6, [r6], #-1388	; 0xfffffa94
    998c:	656e202c 	strbvs	r2, [lr, #-44]!	; 0xffffffd4
    9990:	25206465 	strcs	r6, [r0, #-1125]!	; 0xfffffb9b
    9994:	000a0a64 	andeq	r0, sl, r4, ror #20
    9998:	494e4150 	stmdbmi	lr, {r4, r6, r8, lr}^
    999c:	73253a43 			; <UNDEFINED> instruction: 0x73253a43
    99a0:	3a73253a 	bcc	1cd2e90 <__bss_end__+0x1cc8dc0>
    99a4:	633a6425 	teqvs	sl, #620756992	; 0x25000000
    99a8:	6b636568 	blvs	18e2f50 <__bss_end__+0x18d8e80>
    99ac:	6f6c625f 	svcvs	0x006c625f
    99b0:	68286b63 	stmdavs	r8!, {r0, r1, r5, r6, r8, r9, fp, sp, lr}
    99b4:	00000a29 	andeq	r0, r0, r9, lsr #20
    99b8:	6c616b63 			; <UNDEFINED> instruction: 0x6c616b63
    99bc:	3a636f6c 	bcc	18e5774 <__bss_end__+0x18db6a4>
    99c0:	6f6c6c61 	svcvs	0x006c6c61
    99c4:	65746163 	ldrbvs	r6, [r4, #-355]!	; 0xfffffe9d
    99c8:	64252064 	strtvs	r2, [r5], #-100	; 0xffffff9c
    99cc:	74796220 	ldrbtvc	r6, [r9], #-544	; 0xfffffde0
    99d0:	202c7365 	eorcs	r7, ip, r5, ror #6
    99d4:	746f7428 	strbtvc	r7, [pc], #-1064	; 99dc <__FUNCTION__.4337+0x258>
    99d8:	253d6c61 	ldrcs	r6, [sp, #-3169]!	; 0xfffff39f
    99dc:	202c2964 	eorcs	r2, ip, r4, ror #18
    99e0:	3d727470 	cfldrdcc	mvd7, [r2, #-448]!	; 0xfffffe40
    99e4:	000a7025 	andeq	r7, sl, r5, lsr #32
    99e8:	6e696f67 	cdpvs	15, 6, cr6, cr9, cr7, {3}
    99ec:	6f742067 	svcvs	0x00742067
    99f0:	65686320 	strbvs	r6, [r8, #-800]!	; 0xfffffce0
    99f4:	68206b63 	stmdavs	r0!, {r0, r1, r5, r6, r8, r9, fp, sp, lr}
    99f8:	3a706165 	bcc	1c21f94 <__bss_end__+0x1c17ec4>
    99fc:	20642520 	rsbcs	r2, r4, r0, lsr #10
    9a00:	65747962 	ldrbvs	r7, [r4, #-2402]!	; 0xfffff69e
    9a04:	6c612073 	stclvs	0, cr2, [r1], #-460	; 0xfffffe34
    9a08:	61636f6c 	cmnvs	r3, ip, ror #30
    9a0c:	2c646574 	cfstr64cs	mvdx6, [r4], #-464	; 0xfffffe30
    9a10:	20642520 	rsbcs	r2, r4, r0, lsr #10
    9a14:	65747962 	ldrbvs	r7, [r4, #-2402]!	; 0xfffff69e
    9a18:	656c2073 	strbvs	r2, [ip, #-115]!	; 0xffffff8d
    9a1c:	000a7466 	andeq	r7, sl, r6, ror #8
    9a20:	63656863 	cmnvs	r5, #6488064	; 0x630000
    9a24:	2064656b 	rsbcs	r6, r4, fp, ror #10
    9a28:	62206425 	eorvs	r6, r0, #620756992	; 0x25000000
    9a2c:	6b636f6c 	blvs	18e57e4 <__bss_end__+0x18db714>
    9a30:	64202c73 	strtvs	r2, [r0], #-3187	; 0xfffff38d
    9a34:	63657465 	cmnvs	r5, #1694498816	; 0x65000000
    9a38:	20646574 	rsbcs	r6, r4, r4, ror r5
    9a3c:	65206425 	strvs	r6, [r0, #-1061]!	; 0xfffffbdb
    9a40:	726f7272 	rsbvc	r7, pc, #536870919	; 0x20000007
    9a44:	00000a73 	andeq	r0, r0, r3, ror sl
    9a48:	43435553 	movtmi	r5, #13651	; 0x3553
    9a4c:	3a535345 	bcc	14de768 <__bss_end__+0x14d4698>
    9a50:	65686320 	strbvs	r6, [r8, #-800]!	; 0xfffffce0
    9a54:	64656b63 	strbtvs	r6, [r5], #-2915	; 0xfffff49d
    9a58:	20642520 	rsbcs	r2, r4, r0, lsr #10
    9a5c:	636f6c62 	cmnvs	pc, #25088	; 0x6200
    9a60:	202c736b 	eorcs	r7, ip, fp, ror #6
    9a64:	65746564 	ldrbvs	r6, [r4, #-1380]!	; 0xfffffa9c
    9a68:	64657463 	strbtvs	r7, [r5], #-1123	; 0xfffffb9d
    9a6c:	206f6e20 	rsbcs	r6, pc, r0, lsr #28
    9a70:	6f727265 	svcvs	0x00727265
    9a74:	000a7372 	andeq	r7, sl, r2, ror r3

00009a78 <__FUNCTION__.4339>:
    9a78:	695f6b63 	ldmdbvs	pc, {r0, r1, r5, r6, r8, r9, fp, sp, lr}^	; <UNPREDICTABLE>
    9a7c:	0074696e 	rsbseq	r6, r4, lr, ror #18

00009a80 <__FUNCTION__.4397>:
    9a80:	72666b63 	rsbvc	r6, r6, #101376	; 0x18c00
    9a84:	00006565 	andeq	r6, r0, r5, ror #10

00009a88 <__FUNCTION__.4407>:
    9a88:	6c616b63 			; <UNDEFINED> instruction: 0x6c616b63
    9a8c:	00636f6c 	rsbeq	r6, r3, ip, ror #30
    9a90:	6362696c 	cmnvs	r2, #108, 18	; 0x1b0000
    9a94:	2d61762f 	stclcs	6, cr7, [r1, #-188]!	; 0xffffff44
    9a98:	6e697270 	mcrvs	2, 3, r7, cr9, cr0, {3}
    9a9c:	632e6b74 			; <UNDEFINED> instruction: 0x632e6b74
    9aa0:	00000000 	andeq	r0, r0, r0
    9aa4:	494e4150 	stmdbmi	lr, {r4, r6, r8, lr}^
    9aa8:	73253a43 			; <UNDEFINED> instruction: 0x73253a43
    9aac:	3a73253a 	bcc	1cd2f9c <__bss_end__+0x1cc8ecc>
    9ab0:	303a6425 	eorscc	r6, sl, r5, lsr #8
    9ab4:	0000000a 	andeq	r0, r0, sl
    9ab8:	33323130 	teqcc	r2, #48, 2
    9abc:	37363534 			; <UNDEFINED> instruction: 0x37363534
    9ac0:	00003938 	andeq	r3, r0, r8, lsr r9
    9ac4:	33323130 	teqcc	r2, #48, 2
    9ac8:	37363534 			; <UNDEFINED> instruction: 0x37363534
    9acc:	62613938 	rsbvs	r3, r1, #56, 18	; 0xe0000
    9ad0:	66656463 	strbtvs	r6, [r5], -r3, ror #8
    9ad4:	00000000 	andeq	r0, r0, r0
    9ad8:	00003130 	andeq	r3, r0, r0, lsr r1
    9adc:	494e4150 	stmdbmi	lr, {r4, r6, r8, lr}^
    9ae0:	73253a43 			; <UNDEFINED> instruction: 0x73253a43
    9ae4:	3a73253a 	bcc	1cd2fd4 <__bss_end__+0x1cc8f04>
    9ae8:	703a6425 	eorsvc	r6, sl, r5, lsr #8
    9aec:	5f637475 	svcpl	0x00637475
    9af0:	000a7066 	andeq	r7, sl, r6, rrx
    9af4:	494e4150 	stmdbmi	lr, {r4, r6, r8, lr}^
    9af8:	73253a43 			; <UNDEFINED> instruction: 0x73253a43
    9afc:	3a73253a 	bcc	1cd2fec <__bss_end__+0x1cc8f1c>
    9b00:	773a6425 	ldrvc	r6, [sl, -r5, lsr #8]!
    9b04:	68746469 	ldmdavs	r4!, {r0, r3, r5, r6, sl, sp, lr}^
    9b08:	33203c20 			; <UNDEFINED> instruction: 0x33203c20
    9b0c:	00000a32 	andeq	r0, r0, r2, lsr sl
    9b10:	494e4150 	stmdbmi	lr, {r4, r6, r8, lr}^
    9b14:	73253a43 			; <UNDEFINED> instruction: 0x73253a43
    9b18:	3a73253a 	bcc	1cd3008 <__bss_end__+0x1cc8f38>
    9b1c:	663a6425 	ldrtvs	r6, [sl], -r5, lsr #8
    9b20:	74616f6c 	strbtvc	r6, [r1], #-3948	; 0xfffff094
    9b24:	746f6e20 	strbtvc	r6, [pc], #-3616	; 9b2c <__FUNCTION__.4407+0xa4>
    9b28:	616e6520 	cmnvs	lr, r0, lsr #10
    9b2c:	64656c62 	strbtvs	r6, [r5], #-3170	; 0xfffff39e
    9b30:	0a212121 	beq	851fbc <__bss_end__+0x847eec>
    9b34:	00000000 	andeq	r0, r0, r0
    9b38:	494e4150 	stmdbmi	lr, {r4, r6, r8, lr}^
    9b3c:	73253a43 			; <UNDEFINED> instruction: 0x73253a43
    9b40:	3a73253a 	bcc	1cd3030 <__bss_end__+0x1cc8f60>
    9b44:	703a6425 	eorsvc	r6, sl, r5, lsr #8
    9b48:	746e6972 	strbtvc	r6, [lr], #-2418	; 0xfffff68e
    9b4c:	6e203a6b 	vnmulvs.f32	s6, s0, s23
    9b50:	6820746f 	stmdavs	r0!, {r0, r1, r2, r3, r5, r6, sl, ip, sp, lr}
    9b54:	6c646e61 	stclvs	14, cr6, [r4], #-388	; 0xfffffe7c
    9b58:	20676e69 	rsbcs	r6, r7, r9, ror #28
    9b5c:	63657073 	cmnvs	r5, #115	; 0x73
    9b60:	65696669 	strbvs	r6, [r9, #-1641]!	; 0xfffff997
    9b64:	25272072 	strcs	r2, [r7, #-114]!	; 0xffffff8e
    9b68:	0a0a2763 	beq	2938fc <__bss_end__+0x28982c>
    9b6c:	00000000 	andeq	r0, r0, r0

00009b70 <__FUNCTION__.4349>:
    9b70:	74696d65 	strbtvc	r6, [r9], #-3429	; 0xfffff29b
    9b74:	00000000 	andeq	r0, r0, r0

00009b78 <__FUNCTION__.4297>:
    9b78:	5f697072 	svcpl	0x00697072
    9b7c:	5f746573 	svcpl	0x00746573
    9b80:	7074756f 	rsbsvc	r7, r4, pc, ror #10
    9b84:	00007475 	andeq	r7, r0, r5, ror r4

00009b88 <__FUNCTION__.4371>:
    9b88:	705f6176 	subsvc	r6, pc, r6, ror r1	; <UNPREDICTABLE>
    9b8c:	746e6972 	strbtvc	r6, [lr], #-2418	; 0xfffff68e
    9b90:	0000006b 	andeq	r0, r0, fp, rrx
    9b94:	454e4f44 	strbmi	r4, [lr, #-3908]	; 0xfffff0bc
    9b98:	0a212121 	beq	852024 <__bss_end__+0x847f54>
    9b9c:	00000000 	andeq	r0, r0, r0

00009ba0 <__FUNCTION__.4237>:
    9ba0:	6c616d6b 	stclvs	13, cr6, [r1], #-428	; 0xfffffe54
    9ba4:	5f636f6c 	svcpl	0x00636f6c
    9ba8:	74696e69 	strbtvc	r6, [r9], #-3689	; 0xfffff197
    9bac:	7465735f 	strbtvc	r7, [r5], #-863	; 0xfffffca1
    9bb0:	6174735f 	cmnvs	r4, pc, asr r3
    9bb4:	00007472 	andeq	r7, r0, r2, ror r4

00009bb8 <__FUNCTION__.4241>:
    9bb8:	6c616d6b 	stclvs	13, cr6, [r1], #-428	; 0xfffffe54
    9bbc:	00636f6c 	rsbeq	r6, r3, ip, ror #30

00009bc0 <__FUNCTION__.4253>:
    9bc0:	6c616d6b 	stclvs	13, cr6, [r1], #-428	; 0xfffffe54
    9bc4:	5f636f6c 	svcpl	0x00636f6c
    9bc8:	67696c61 	strbvs	r6, [r9, -r1, ror #24]!
    9bcc:	0064656e 	rsbeq	r6, r4, lr, ror #10
    9bd0:	6c616d6b 	stclvs	13, cr6, [r1], #-428	; 0xfffffe54
    9bd4:	2e636f6c 	cdpcs	15, 6, cr6, cr3, cr12, {3}
    9bd8:	00000063 	andeq	r0, r0, r3, rrx
    9bdc:	494e4150 	stmdbmi	lr, {r4, r6, r8, lr}^
    9be0:	73253a43 			; <UNDEFINED> instruction: 0x73253a43
    9be4:	3a73253a 	bcc	1cd30d4 <__bss_end__+0x1cc9004>
    9be8:	613a6425 	teqvs	sl, r5, lsr #8
    9bec:	20726464 	rsbscs	r6, r2, r4, ror #8
    9bf0:	6568203e 	strbvs	r2, [r8, #-62]!	; 0xffffffc2
    9bf4:	000a7061 	andeq	r7, sl, r1, rrx
    9bf8:	494e4150 	stmdbmi	lr, {r4, r6, r8, lr}^
    9bfc:	73253a43 			; <UNDEFINED> instruction: 0x73253a43
    9c00:	3a73253a 	bcc	1cd30f0 <__bss_end__+0x1cc9020>
    9c04:	733a6425 	teqvc	sl, #620756992	; 0x25000000
    9c08:	00000a7a 	andeq	r0, r0, sl, ror sl
    9c0c:	4f525245 	svcmi	0x00525245
    9c10:	73253a52 			; <UNDEFINED> instruction: 0x73253a52
    9c14:	3a73253a 	bcc	1cd3104 <__bss_end__+0x1cc9034>
    9c18:	203a6425 	eorscs	r6, sl, r5, lsr #8
    9c1c:	534c4146 	movtpl	r4, #49478	; 0xc146
    9c20:	283c2845 	ldmdacs	ip!, {r0, r2, r6, fp, sp}
    9c24:	6c612828 	stclvs	8, cr2, [r1], #-160	; 0xffffff60
    9c28:	6d6e6769 	stclvs	7, cr6, [lr, #-420]!	; 0xfffffe5c
    9c2c:	29746e65 	ldmdbcs	r4!, {r0, r2, r5, r6, r9, sl, fp, sp, lr}^
    9c30:	61282d26 			; <UNDEFINED> instruction: 0x61282d26
    9c34:	6e67696c 	vnmulvs.f16	s13, s14, s25	; <UNPREDICTABLE>
    9c38:	746e656d 	strbtvc	r6, [lr], #-1389	; 0xfffffa93
    9c3c:	3d202929 			; <UNDEFINED> instruction: 0x3d202929
    9c40:	6128203d 			; <UNDEFINED> instruction: 0x6128203d
    9c44:	6e67696c 	vnmulvs.f16	s13, s14, s25	; <UNPREDICTABLE>
    9c48:	746e656d 	strbtvc	r6, [lr], #-1389	; 0xfffffa93
    9c4c:	293e2929 	ldmdbcs	lr!, {r0, r3, r5, r8, fp, sp}
    9c50:	7361203a 	cmnvc	r1, #58	; 0x3a
    9c54:	696d7573 	stmdbvs	sp!, {r0, r1, r4, r5, r6, r8, sl, ip, sp, lr}^
    9c58:	7020676e 	eorvc	r6, r0, lr, ror #14
    9c5c:	7265776f 	rsbvc	r7, r5, #29097984	; 0x1bc0000
    9c60:	20666f20 	rsbcs	r6, r6, r0, lsr #30
    9c64:	0a6f7774 	beq	1be7a3c <__bss_end__+0x1bdd96c>
    9c68:	00000000 	andeq	r0, r0, r0
    9c6c:	4f525245 	svcmi	0x00525245
    9c70:	73253a52 			; <UNDEFINED> instruction: 0x73253a52
    9c74:	3a73253a 	bcc	1cd3164 <__bss_end__+0x1cc9094>
    9c78:	203a6425 	eorscs	r6, sl, r5, lsr #8
    9c7c:	534c4146 	movtpl	r4, #49478	; 0xc146
    9c80:	283c2845 	ldmdacs	ip!, {r0, r2, r6, fp, sp}
    9c84:	29682828 	stmdbcs	r8!, {r3, r5, fp, sp}^
    9c88:	28202620 	stmdacs	r0!, {r5, r9, sl, sp}
    9c8c:	70797428 	rsbsvc	r7, r9, r8, lsr #8
    9c90:	28666f65 	stmdacs	r6!, {r0, r2, r5, r6, r8, r9, sl, fp, sp, lr}^
    9c94:	28292968 	stmdacs	r9!, {r3, r5, r6, r8, fp, sp}
    9c98:	67696c61 	strbvs	r6, [r9, -r1, ror #24]!
    9c9c:	6e656d6e 	cdpvs	13, 6, cr6, cr5, cr14, {3}
    9ca0:	2d202974 			; <UNDEFINED> instruction: 0x2d202974
    9ca4:	29293120 	stmdbcs	r9!, {r5, r8, ip, sp}
    9ca8:	203d3d20 	eorscs	r3, sp, r0, lsr #26
    9cac:	293e2930 	ldmdbcs	lr!, {r4, r5, r8, fp, sp}
    9cb0:	6d69203a 	stclvs	0, cr2, [r9, #-232]!	; 0xffffff18
    9cb4:	73736f70 	cmnvc	r3, #112, 30	; 0x1c0
    9cb8:	656c6269 	strbvs	r6, [ip, #-617]!	; 0xfffffd97
    9cbc:	Address 0x0000000000009cbc is out of bounds.


Disassembly of section .bss:

00009cc0 <__bss_start__>:
    9cc0:	00000000 	andeq	r0, r0, r0

00009cc4 <heap>:
    9cc4:	00000000 	andeq	r0, r0, r0

00009cc8 <heap_end>:
    9cc8:	00000000 	andeq	r0, r0, r0

00009ccc <buf.4297>:
	...

Disassembly of section .ARM.attributes:

00000000 <.ARM.attributes>:
   0:	00002c41 	andeq	r2, r0, r1, asr #24
   4:	61656100 	cmnvs	r5, r0, lsl #2
   8:	01006962 	tsteq	r0, r2, ror #18
   c:	00000022 	andeq	r0, r0, r2, lsr #32
  10:	4b5a3605 	blmi	168d82c <__bss_end__+0x168375c>
  14:	08070600 	stmdaeq	r7, {r9, sl}
  18:	0a010901 	beq	42424 <__bss_end__+0x38354>
  1c:	14041202 	strne	r1, [r4], #-514	; 0xfffffdfe
  20:	17011501 	strne	r1, [r1, -r1, lsl #10]
  24:	1a011803 	bne	46038 <__bss_end__+0x3bf68>
  28:	44012201 	strmi	r2, [r1], #-513	; 0xfffffdff
  2c:	Address 0x000000000000002c is out of bounds.


Disassembly of section .comment:

00000000 <.comment>:
   0:	3a434347 	bcc	10d0d24 <__bss_end__+0x10c6c54>
   4:	72412820 	subvc	r2, r1, #32, 16	; 0x200000
   8:	52206863 	eorpl	r6, r0, #6488064	; 0x630000
   c:	736f7065 	cmnvc	pc, #101	; 0x65
  10:	726f7469 	rsbvc	r7, pc, #1761607680	; 0x69000000
  14:	39202979 	stmdbcc	r0!, {r0, r3, r4, r5, r6, r8, fp, sp}
  18:	302e322e 	eorcc	r3, lr, lr, lsr #4
  1c:	43434700 	movtmi	r4, #14080	; 0x3700
  20:	3128203a 			; <UNDEFINED> instruction: 0x3128203a
  24:	2e363a35 			; <UNDEFINED> instruction: 0x2e363a35
  28:	2b312e33 	blcs	c4b8fc <__bss_end__+0xc4182c>
  2c:	326e7673 	rsbcc	r7, lr, #120586240	; 0x7300000
  30:	33303335 	teqcc	r0, #-738197504	; 0xd4000000
  34:	62312d39 	eorsvs	r2, r1, #3648	; 0xe40
  38:	646c6975 	strbtvs	r6, [ip], #-2421	; 0xfffff68b
  3c:	36202931 			; <UNDEFINED> instruction: 0x36202931
  40:	312e332e 			; <UNDEFINED> instruction: 0x312e332e
  44:	31303220 	teqcc	r0, r0, lsr #4
  48:	32363037 	eorscc	r3, r6, #55	; 0x37
  4c:	Address 0x000000000000004c is out of bounds.


Disassembly of section .debug_info:

00000000 <.debug_info>:
       0:	00000b94 	muleq	r0, r4, fp
       4:	00000004 	andeq	r0, r0, r4
       8:	01040000 	mrseq	r0, (UNDEF: 4)
       c:	000002ef 	andeq	r0, r0, pc, ror #5
      10:	0003810c 	andeq	r8, r3, ip, lsl #2
      14:	0000cb00 	andeq	ip, r0, r0, lsl #22
      18:	00801000 	addeq	r1, r0, r0
      1c:	0000e800 	andeq	lr, r0, r0, lsl #16
      20:	00000000 	andeq	r0, r0, r0
      24:	05040200 	streq	r0, [r4, #-512]	; 0xfffffe00
      28:	00746e69 	rsbseq	r6, r4, r9, ror #28
      2c:	66070403 	strvs	r0, [r7], -r3, lsl #8
      30:	03000000 	movweq	r0, #0
      34:	02de0601 	sbcseq	r0, lr, #1048576	; 0x100000
      38:	02030000 	andeq	r0, r3, #0
      3c:	00037705 	andeq	r7, r3, r5, lsl #14
      40:	05040300 	streq	r0, [r4, #-768]	; 0xfffffd00
      44:	000000ac 	andeq	r0, r0, ip, lsr #1
      48:	a7050803 	strge	r0, [r5, -r3, lsl #16]
      4c:	03000000 	movweq	r0, #0
      50:	02dc0801 	sbcseq	r0, ip, #65536	; 0x10000
      54:	02030000 	andeq	r0, r3, #0
      58:	00022207 	andeq	r2, r2, r7, lsl #4
      5c:	07040300 	streq	r0, [r4, -r0, lsl #6]
      60:	00000061 	andeq	r0, r0, r1, rrx
      64:	5c070803 	stcpl	8, cr0, [r7], {3}
      68:	04000000 	streq	r0, [r0], #-0
      6c:	00000265 	andeq	r0, r0, r5, ror #4
      70:	77192202 	ldrvc	r2, [r9, -r2, lsl #4]
      74:	05000000 	streq	r0, [r0, #-0]
      78:	00007d04 	andeq	r7, r0, r4, lsl #26
      7c:	04210600 	strteq	r0, [r1], #-1536	; 0xfffffa00
      80:	bd040000 	stclt	0, cr0, [r4, #-0]
      84:	03000002 	movweq	r0, #2
      88:	00410e2c 	subeq	r0, r1, ip, lsr #28
      8c:	36040000 	strcc	r0, [r4], -r0
      90:	03000004 	movweq	r0, #4
      94:	00410e72 	subeq	r0, r1, r2, ror lr
      98:	6d070000 	stcvs	0, cr0, [r7, #-0]
      9c:	04000002 	streq	r0, [r0], #-2
      a0:	2c17015e 	ldfcss	f0, [r7], {94}	; 0x5e
      a4:	08000000 	stmdaeq	r0, {}	; <UNPREDICTABLE>
      a8:	03a60304 			; <UNDEFINED> instruction: 0x03a60304
      ac:	000000c9 	andeq	r0, r0, r9, asr #1
      b0:	00025f09 	andeq	r5, r2, r9, lsl #30
      b4:	0ca80300 	stceq	3, cr0, [r8]
      b8:	0000009a 	muleq	r0, sl, r0
      bc:	0001e209 	andeq	lr, r1, r9, lsl #4
      c0:	13a90300 			; <UNDEFINED> instruction: 0x13a90300
      c4:	000000c9 	andeq	r0, r0, r9, asr #1
      c8:	004f0a00 	subeq	r0, pc, r0, lsl #20
      cc:	00d90000 	sbcseq	r0, r9, r0
      d0:	2c0b0000 	stccs	0, cr0, [fp], {-0}
      d4:	03000000 	movweq	r0, #0
      d8:	03080c00 	movweq	r0, #35840	; 0x8c00
      dc:	00fd09a3 	rscseq	r0, sp, r3, lsr #19
      e0:	190d0000 	stmdbne	sp, {}	; <UNPREDICTABLE>
      e4:	03000004 	movweq	r0, #4
      e8:	002507a5 	eoreq	r0, r5, r5, lsr #15
      ec:	0d000000 	stceq	0, cr0, [r0, #-0]
      f0:	00000428 	andeq	r0, r0, r8, lsr #8
      f4:	a705aa03 	strge	sl, [r5, -r3, lsl #20]
      f8:	04000000 	streq	r0, [r0], #-0
      fc:	03a30400 			; <UNDEFINED> instruction: 0x03a30400
     100:	ab030000 	blge	c0108 <__bss_end__+0xb6038>
     104:	0000d903 	andeq	sp, r0, r3, lsl #18
     108:	019f0400 	orrseq	r0, pc, r0, lsl #8
     10c:	af030000 	svcge	0x00030000
     110:	00006b1b 	andeq	r6, r0, fp, lsl fp
     114:	05040e00 	streq	r0, [r4, #-3584]	; 0xfffff200
     118:	00011d04 	andeq	r1, r1, r4, lsl #26
     11c:	08010300 	stmdaeq	r1, {r8, r9}
     120:	000002e5 	andeq	r0, r0, r5, ror #5
     124:	00011d0f 	andeq	r1, r1, pc, lsl #26
     128:	04680400 	strbteq	r0, [r8], #-1024	; 0xfffffc00
     12c:	16050000 	strne	r0, [r5], -r0
     130:	00005d19 	andeq	r5, r0, r9, lsl sp
     134:	01b01000 	movseq	r1, r0
     138:	05180000 	ldreq	r0, [r8, #-0]
     13c:	018f082f 	orreq	r0, pc, pc, lsr #16
     140:	c40d0000 	strgt	r0, [sp], #-0
     144:	05000003 	streq	r0, [r0, #-3]
     148:	018f1331 	orreq	r1, pc, r1, lsr r3	; <UNPREDICTABLE>
     14c:	11000000 	mrsne	r0, (UNDEF: 0)
     150:	05006b5f 	streq	r6, [r0, #-2911]	; 0xfffff4a1
     154:	00250732 	eoreq	r0, r5, r2, lsr r7
     158:	0d040000 	stceq	0, cr0, [r4, #-0]
     15c:	00000404 	andeq	r0, r0, r4, lsl #8
     160:	250b3205 	strcs	r3, [fp, #-517]	; 0xfffffdfb
     164:	08000000 	stmdaeq	r0, {}	; <UNPREDICTABLE>
     168:	0001990d 	andeq	r9, r1, sp, lsl #18
     16c:	14320500 	ldrtne	r0, [r2], #-1280	; 0xfffffb00
     170:	00000025 	andeq	r0, r0, r5, lsr #32
     174:	04a80d0c 	strteq	r0, [r8], #3340	; 0xd0c
     178:	32050000 	andcc	r0, r5, #0
     17c:	0000251b 	andeq	r2, r0, fp, lsl r5
     180:	5f111000 	svcpl	0x00111000
     184:	33050078 	movwcc	r0, #20600	; 0x5078
     188:	0001950b 	andeq	r9, r1, fp, lsl #10
     18c:	05001400 	streq	r1, [r0, #-1024]	; 0xfffffc00
     190:	00013504 	andeq	r3, r1, r4, lsl #10
     194:	01290a00 			; <UNDEFINED> instruction: 0x01290a00
     198:	01a50000 			; <UNDEFINED> instruction: 0x01a50000
     19c:	2c0b0000 	stccs	0, cr0, [fp], {-0}
     1a0:	00000000 	andeq	r0, r0, r0
     1a4:	01dd1000 	bicseq	r1, sp, r0
     1a8:	05240000 	streq	r0, [r4, #-0]!
     1ac:	02280837 	eoreq	r0, r8, #3604480	; 0x370000
     1b0:	9e0d0000 	cdpls	0, 0, cr0, cr13, cr0, {0}
     1b4:	05000000 	streq	r0, [r0, #-0]
     1b8:	00250939 	eoreq	r0, r5, r9, lsr r9
     1bc:	0d000000 	stceq	0, cr0, [r0, #-0]
     1c0:	0000043e 	andeq	r0, r0, lr, lsr r4
     1c4:	25093a05 	strcs	r3, [r9, #-2565]	; 0xfffff5fb
     1c8:	04000000 	streq	r0, [r0], #-0
     1cc:	0000c10d 	andeq	ip, r0, sp, lsl #2
     1d0:	093b0500 	ldmdbeq	fp!, {r8, sl}
     1d4:	00000025 	andeq	r0, r0, r5, lsr #32
     1d8:	05330d08 	ldreq	r0, [r3, #-3336]!	; 0xfffff2f8
     1dc:	3c050000 	stccc	0, cr0, [r5], {-0}
     1e0:	00002509 	andeq	r2, r0, r9, lsl #10
     1e4:	a10d0c00 	tstge	sp, r0, lsl #24
     1e8:	05000002 	streq	r0, [r0, #-2]
     1ec:	0025093d 	eoreq	r0, r5, sp, lsr r9
     1f0:	0d100000 	ldceq	0, cr0, [r0, #-0]
     1f4:	00000283 	andeq	r0, r0, r3, lsl #5
     1f8:	25093e05 	strcs	r3, [r9, #-3589]	; 0xfffff1fb
     1fc:	14000000 	strne	r0, [r0], #-0
     200:	0004ad0d 	andeq	sl, r4, sp, lsl #26
     204:	093f0500 	ldmdbeq	pc!, {r8, sl}	; <UNPREDICTABLE>
     208:	00000025 	andeq	r0, r0, r5, lsr #32
     20c:	05290d18 	streq	r0, [r9, #-3352]!	; 0xfffff2e8
     210:	40050000 	andmi	r0, r5, r0
     214:	00002509 	andeq	r2, r0, r9, lsl #10
     218:	f00d1c00 			; <UNDEFINED> instruction: 0xf00d1c00
     21c:	05000004 	streq	r0, [r0, #-4]
     220:	00250941 	eoreq	r0, r5, r1, asr #18
     224:	00200000 	eoreq	r0, r0, r0
     228:	00010112 	andeq	r0, r1, r2, lsl r1
     22c:	05010800 	streq	r0, [r1, #-2048]	; 0xfffff800
     230:	026d084a 	rsbeq	r0, sp, #4849664	; 0x4a0000
     234:	8c0d0000 	stchi	0, cr0, [sp], {-0}
     238:	05000001 	streq	r0, [r0, #-1]
     23c:	026d0a4b 	rsbeq	r0, sp, #307200	; 0x4b000
     240:	0d000000 	stceq	0, cr0, [r0, #-0]
     244:	00000000 	andeq	r0, r0, r0
     248:	6d094c05 	stcvs	12, cr4, [r9, #-20]	; 0xffffffec
     24c:	80000002 	andhi	r0, r0, r2
     250:	00045a13 	andeq	r5, r4, r3, lsl sl
     254:	0a4e0500 	beq	138165c <__bss_end__+0x137758c>
     258:	00000129 	andeq	r0, r0, r9, lsr #2
     25c:	26130100 	ldrcs	r0, [r3], -r0, lsl #2
     260:	05000001 	streq	r0, [r0, #-1]
     264:	01290a51 			; <UNDEFINED> instruction: 0x01290a51
     268:	01040000 	mrseq	r0, (UNDEF: 4)
     26c:	01150a00 	tsteq	r5, r0, lsl #20
     270:	027d0000 	rsbseq	r0, sp, #0
     274:	2c0b0000 	stccs	0, cr0, [fp], {-0}
     278:	1f000000 	svcne	0x00000000
     27c:	02aa1200 	adceq	r1, sl, #0, 4
     280:	01900000 	orrseq	r0, r0, r0
     284:	c0085d05 	andgt	r5, r8, r5, lsl #26
     288:	0d000002 	stceq	0, cr0, [r0, #-8]
     28c:	000003c4 	andeq	r0, r0, r4, asr #7
     290:	c0125e05 	andsgt	r5, r2, r5, lsl #28
     294:	00000002 	andeq	r0, r0, r2
     298:	0003dc0d 	andeq	sp, r3, sp, lsl #24
     29c:	065f0500 	ldrbeq	r0, [pc], -r0, lsl #10
     2a0:	00000025 	andeq	r0, r0, r5, lsr #32
     2a4:	01940d04 	orrseq	r0, r4, r4, lsl #26
     2a8:	61050000 	mrsvs	r0, (UNDEF: 5)
     2ac:	0002c609 	andeq	ip, r2, r9, lsl #12
     2b0:	010d0800 	tsteq	sp, r0, lsl #16
     2b4:	05000001 	streq	r0, [r0, #-1]
     2b8:	02281e62 	eoreq	r1, r8, #1568	; 0x620
     2bc:	00880000 	addeq	r0, r8, r0
     2c0:	027d0405 	rsbseq	r0, sp, #83886080	; 0x5000000
     2c4:	d60a0000 	strle	r0, [sl], -r0
     2c8:	d6000002 	strle	r0, [r0], -r2
     2cc:	0b000002 	bleq	2dc <_start-0x7d24>
     2d0:	0000002c 	andeq	r0, r0, ip, lsr #32
     2d4:	0405001f 	streq	r0, [r5], #-31	; 0xffffffe1
     2d8:	000002dc 	ldrdeq	r0, [r0], -ip
     2dc:	038f1014 	orreq	r1, pc, #20
     2e0:	05080000 	streq	r0, [r8, #-0]
     2e4:	03050875 	movweq	r0, #22645	; 0x5875
     2e8:	bb0d0000 	bllt	3402f0 <__bss_end__+0x336220>
     2ec:	05000000 	streq	r0, [r0, #-0]
     2f0:	03051176 	movweq	r1, #20854	; 0x5176
     2f4:	0d000000 	stceq	0, cr0, [r0, #-0]
     2f8:	0000001b 	andeq	r0, r0, fp, lsl r0
     2fc:	25067705 	strcs	r7, [r6, #-1797]	; 0xfffff8fb
     300:	04000000 	streq	r0, [r0], #-0
     304:	4f040500 	svcmi	0x00040500
     308:	10000000 	andne	r0, r0, r0
     30c:	000003ae 	andeq	r0, r0, lr, lsr #7
     310:	08b50568 	ldmeq	r5!, {r3, r5, r6, r8, sl}
     314:	0000044e 	andeq	r0, r0, lr, asr #8
     318:	00705f11 	rsbseq	r5, r0, r1, lsl pc
     31c:	0512b605 	ldreq	fp, [r2, #-1541]	; 0xfffff9fb
     320:	00000003 	andeq	r0, r0, r3
     324:	00725f11 	rsbseq	r5, r2, r1, lsl pc
     328:	2507b705 	strcs	fp, [r7, #-1797]	; 0xfffff8fb
     32c:	04000000 	streq	r0, [r0], #-0
     330:	00775f11 	rsbseq	r5, r7, r1, lsl pc
     334:	2507b805 	strcs	fp, [r7, #-2053]	; 0xfffff7fb
     338:	08000000 	stmdaeq	r0, {}	; <UNPREDICTABLE>
     33c:	00011f0d 	andeq	r1, r1, sp, lsl #30
     340:	09b90500 	ldmibeq	r9!, {r8, sl}
     344:	0000003a 	andeq	r0, r0, sl, lsr r0
     348:	02080d0c 	andeq	r0, r8, #12, 26	; 0x300
     34c:	ba050000 	blt	140354 <__bss_end__+0x136284>
     350:	00003a09 	andeq	r3, r0, r9, lsl #20
     354:	5f110e00 	svcpl	0x00110e00
     358:	05006662 	streq	r6, [r0, #-1634]	; 0xfffff99e
     35c:	02dd11bb 	sbcseq	r1, sp, #-1073741778	; 0xc000002e
     360:	0d100000 	ldceq	0, cr0, [r0, #-0]
     364:	0000007b 	andeq	r0, r0, fp, ror r0
     368:	2507bc05 	strcs	fp, [r7, #-3077]	; 0xfffff3fb
     36c:	18000000 	stmdane	r0, {}	; <UNPREDICTABLE>
     370:	00010f0d 	andeq	r0, r1, sp, lsl #30
     374:	0ac30500 	beq	ff0c177c <__bss_end__+0xff0b76ac>
     378:	00000115 	andeq	r0, r0, r5, lsl r1
     37c:	0b720d1c 	bleq	1c837f4 <__bss_end__+0x1c79724>
     380:	c5050000 	strgt	r0, [r5, #-0]
     384:	0005c01d 	andeq	ip, r5, sp, lsl r0
     388:	360d2000 	strcc	r2, [sp], -r0
     38c:	05000006 	streq	r0, [r0, #-6]
     390:	05ea1dc7 	strbeq	r1, [sl, #3527]!	; 0xdc7
     394:	0d240000 	stceq	0, cr0, [r4, #-0]
     398:	00000430 	andeq	r0, r0, r0, lsr r4
     39c:	0e0dca05 	vmlaeq.f32	s24, s26, s10
     3a0:	28000006 	stmdacs	r0, {r1, r2}
     3a4:	00050a0d 	andeq	r0, r5, sp, lsl #20
     3a8:	09cb0500 	stmibeq	fp, {r8, sl}^
     3ac:	00000628 	andeq	r0, r0, r8, lsr #12
     3b0:	755f112c 	ldrbvc	r1, [pc, #-300]	; 28c <_start-0x7d74>
     3b4:	ce050062 	cdpgt	0, 0, cr0, cr5, cr2, {3}
     3b8:	0002dd11 	andeq	sp, r2, r1, lsl sp
     3bc:	5f113000 	svcpl	0x00113000
     3c0:	05007075 	streq	r7, [r0, #-117]	; 0xffffff8b
     3c4:	030512cf 	movweq	r1, #21199	; 0x52cf
     3c8:	11380000 	teqne	r8, r0
     3cc:	0072755f 	rsbseq	r7, r2, pc, asr r5
     3d0:	2507d005 	strcs	sp, [r7, #-5]
     3d4:	3c000000 	stccc	0, cr0, [r0], {-0}
     3d8:	0000b50d 	andeq	fp, r0, sp, lsl #10
     3dc:	11d30500 	bicsne	r0, r3, r0, lsl #10
     3e0:	0000062e 	andeq	r0, r0, lr, lsr #12
     3e4:	04e20d40 	strbteq	r0, [r2], #3392	; 0xd40
     3e8:	d4050000 	strle	r0, [r5], #-0
     3ec:	00063e11 	andeq	r3, r6, r1, lsl lr
     3f0:	5f114300 	svcpl	0x00114300
     3f4:	0500626c 	streq	r6, [r0, #-620]	; 0xfffffd94
     3f8:	02dd11d7 	sbcseq	r1, sp, #-1073741771	; 0xc0000035
     3fc:	0d440000 	stcleq	0, cr0, [r4, #-0]
     400:	0000013d 	andeq	r0, r0, sp, lsr r1
     404:	2507da05 	strcs	sp, [r7, #-2565]	; 0xfffff5fb
     408:	4c000000 	stcmi	0, cr0, [r0], {-0}
     40c:	00014e0d 	andeq	r4, r1, sp, lsl #28
     410:	0adb0500 	beq	ff6c1818 <__bss_end__+0xff6b7748>
     414:	00000082 	andeq	r0, r0, r2, lsl #1
     418:	0b130d50 	bleq	4c3960 <__bss_end__+0x4b9890>
     41c:	de050000 	cdple	0, 0, cr0, cr5, cr0, {0}
     420:	00046c12 	andeq	r6, r4, r2, lsl ip
     424:	220d5400 	andcs	r5, sp, #0, 8
     428:	05000004 	streq	r0, [r0, #-4]
     42c:	01090ce2 	smlatteq	r9, r2, ip, r0
     430:	0d580000 	ldcleq	0, cr0, [r8, #-0]
     434:	000003b6 			; <UNDEFINED> instruction: 0x000003b6
     438:	fd0ee405 	stc2	4, cr14, [lr, #-20]	; 0xffffffec
     43c:	5c000000 	stcpl	0, cr0, [r0], {-0}
     440:	00027b0d 	andeq	r7, r2, sp, lsl #22
     444:	09e50500 	stmibeq	r5!, {r8, sl}^
     448:	00000025 	andeq	r0, r0, r5, lsr #32
     44c:	25150064 	ldrcs	r0, [r5, #-100]	; 0xffffff9c
     450:	6c000000 	stcvs	0, cr0, [r0], {-0}
     454:	16000004 	strne	r0, [r0], -r4
     458:	0000046c 	andeq	r0, r0, ip, ror #8
     45c:	00011516 	andeq	r1, r1, r6, lsl r5
     460:	01171600 	tsteq	r7, r0, lsl #12
     464:	25160000 	ldrcs	r0, [r6, #-0]
     468:	00000000 	andeq	r0, r0, r0
     46c:	04770405 	ldrbteq	r0, [r7], #-1029	; 0xfffffbfb
     470:	6c0f0000 	stcvs	0, cr0, [pc], {-0}
     474:	17000004 	strne	r0, [r0, -r4]
     478:	0000040c 	andeq	r0, r0, ip, lsl #8
     47c:	60050428 	andvs	r0, r5, r8, lsr #8
     480:	05c00802 	strbeq	r0, [r0, #2050]	; 0x802
     484:	70180000 	andsvc	r0, r8, r0
     488:	05000003 	streq	r0, [r0, #-3]
     48c:	25070262 	strcs	r0, [r7, #-610]	; 0xfffffd9e
     490:	00000000 	andeq	r0, r0, r0
     494:	00012e18 	andeq	r2, r1, r8, lsl lr
     498:	02670500 	rsbeq	r0, r7, #0, 10
     49c:	00069a0b 	andeq	r9, r6, fp, lsl #20
     4a0:	f8180400 			; <UNDEFINED> instruction: 0xf8180400
     4a4:	05000001 	streq	r0, [r0, #-1]
     4a8:	9a140267 	bls	500e4c <__bss_end__+0x4f6d7c>
     4ac:	08000006 	stmdaeq	r0, {r1, r2}
     4b0:	0001a818 	andeq	sl, r1, r8, lsl r8
     4b4:	02670500 	rsbeq	r0, r7, #0, 10
     4b8:	00069a1e 	andeq	r9, r6, lr, lsl sl
     4bc:	d7180c00 	ldrle	r0, [r8, -r0, lsl #24]
     4c0:	05000003 	streq	r0, [r0, #-3]
     4c4:	25080269 	strcs	r0, [r8, #-617]	; 0xfffffd97
     4c8:	10000000 	andne	r0, r0, r0
     4cc:	00002918 	andeq	r2, r0, r8, lsl r9
     4d0:	026a0500 	rsbeq	r0, sl, #0, 10
     4d4:	00089a08 	andeq	r9, r8, r8, lsl #20
     4d8:	eb181400 	bl	6054e0 <__bss_end__+0x5fb410>
     4dc:	05000003 	streq	r0, [r0, #-3]
     4e0:	2507026d 	strcs	r0, [r7, #-621]	; 0xfffffd93
     4e4:	30000000 	andcc	r0, r0, r0
     4e8:	000a4f18 	andeq	r4, sl, r8, lsl pc
     4ec:	026e0500 	rsbeq	r0, lr, #0, 10
     4f0:	0008af16 	andeq	sl, r8, r6, lsl pc
     4f4:	b2183400 	andslt	r3, r8, #0, 8
     4f8:	05000002 	streq	r0, [r0, #-2]
     4fc:	25070270 	strcs	r0, [r7, #-624]	; 0xfffffd90
     500:	38000000 	stmdacc	r0, {}	; <UNPREDICTABLE>
     504:	0003e118 	andeq	lr, r3, r8, lsl r1
     508:	02720500 	rsbseq	r0, r2, #0, 10
     50c:	0008c00a 	andeq	ip, r8, sl
     510:	57183c00 	ldrpl	r3, [r8, -r0, lsl #24]
     514:	05000002 	streq	r0, [r0, #-2]
     518:	8f130275 	svchi	0x00130275
     51c:	40000001 	andmi	r0, r0, r1
     520:	0001c718 	andeq	ip, r1, r8, lsl r7
     524:	02760500 	rsbseq	r0, r6, #0, 10
     528:	00002507 	andeq	r2, r0, r7, lsl #10
     52c:	24184400 	ldrcs	r4, [r8], #-1024	; 0xfffffc00
     530:	05000005 	streq	r0, [r0, #-5]
     534:	8f130277 	svchi	0x00130277
     538:	48000001 	stmdami	r0, {r0}
     53c:	0002c418 	andeq	ip, r2, r8, lsl r4
     540:	02780500 	rsbseq	r0, r8, #0, 10
     544:	0008c614 	andeq	ip, r8, r4, lsl r6
     548:	00184c00 	andseq	r4, r8, r0, lsl #24
     54c:	05000002 	streq	r0, [r0, #-2]
     550:	2507027b 	strcs	r0, [r7, #-635]	; 0xfffffd85
     554:	50000000 	andpl	r0, r0, r0
     558:	00014618 	andeq	r4, r1, r8, lsl r6
     55c:	027c0500 	rsbseq	r0, ip, #0, 10
     560:	00011709 	andeq	r1, r1, r9, lsl #14
     564:	ea185400 	b	61556c <__bss_end__+0x60b49c>
     568:	05000002 	streq	r0, [r0, #-2]
     56c:	7507029f 	strvc	r0, [r7, #-671]	; 0xfffffd61
     570:	58000008 	stmdapl	r0, {r3}
     574:	0002aa19 	andeq	sl, r2, r9, lsl sl
     578:	02a30500 	adceq	r0, r3, #0, 10
     57c:	0002c013 	andeq	ip, r2, r3, lsl r0
     580:	19014800 	stmdbne	r1, {fp, lr}
     584:	00000235 	andeq	r0, r0, r5, lsr r2
     588:	1202a405 	andne	sl, r2, #83886080	; 0x5000000
     58c:	0000027d 	andeq	r0, r0, sp, ror r2
     590:	d019014c 	andsle	r0, r9, ip, asr #2
     594:	05000004 	streq	r0, [r0, #-4]
     598:	d70c02a8 	strle	r0, [ip, -r8, lsr #5]
     59c:	dc000008 	stcle	0, cr0, [r0], {8}
     5a0:	01171902 	tsteq	r7, r2, lsl #18
     5a4:	ad050000 	stcge	0, cr0, [r5, #-0]
     5a8:	065b1002 	ldrbeq	r1, [fp], -r2
     5ac:	02e00000 	rsceq	r0, r0, #0
     5b0:	0000fc19 	andeq	pc, r0, r9, lsl ip	; <UNPREDICTABLE>
     5b4:	02af0500 	adceq	r0, pc, #0, 10
     5b8:	0008e30a 	andeq	lr, r8, sl, lsl #6
     5bc:	0002ec00 	andeq	lr, r2, r0, lsl #24
     5c0:	044e0405 	strbeq	r0, [lr], #-1029	; 0xfffffbfb
     5c4:	25150000 	ldrcs	r0, [r5, #-0]
     5c8:	e4000000 	str	r0, [r0], #-0
     5cc:	16000005 	strne	r0, [r0], -r5
     5d0:	0000046c 	andeq	r0, r0, ip, ror #8
     5d4:	00011516 	andeq	r1, r1, r6, lsl r5
     5d8:	05e41600 	strbeq	r1, [r4, #1536]!	; 0x600
     5dc:	25160000 	ldrcs	r0, [r6, #-0]
     5e0:	00000000 	andeq	r0, r0, r0
     5e4:	01240405 			; <UNDEFINED> instruction: 0x01240405
     5e8:	04050000 	streq	r0, [r5], #-0
     5ec:	000005c6 	andeq	r0, r0, r6, asr #11
     5f0:	00008e15 	andeq	r8, r0, r5, lsl lr
     5f4:	00060e00 	andeq	r0, r6, r0, lsl #28
     5f8:	046c1600 	strbteq	r1, [ip], #-1536	; 0xfffffa00
     5fc:	15160000 	ldrne	r0, [r6, #-0]
     600:	16000001 	strne	r0, [r0], -r1
     604:	0000008e 	andeq	r0, r0, lr, lsl #1
     608:	00002516 	andeq	r2, r0, r6, lsl r5
     60c:	04050000 	streq	r0, [r5], #-0
     610:	000005f0 	strdeq	r0, [r0], -r0	; <UNPREDICTABLE>
     614:	00002515 	andeq	r2, r0, r5, lsl r5
     618:	00062800 	andeq	r2, r6, r0, lsl #16
     61c:	046c1600 	strbteq	r1, [ip], #-1536	; 0xfffffa00
     620:	15160000 	ldrne	r0, [r6, #-0]
     624:	00000001 	andeq	r0, r0, r1
     628:	06140405 	ldreq	r0, [r4], -r5, lsl #8
     62c:	4f0a0000 	svcmi	0x000a0000
     630:	3e000000 	cdpcc	0, 0, cr0, cr0, cr0, {0}
     634:	0b000006 	bleq	654 <_start-0x79ac>
     638:	0000002c 	andeq	r0, r0, ip, lsr #32
     63c:	4f0a0002 	svcmi	0x000a0002
     640:	4e000000 	cdpmi	0, 0, cr0, cr0, cr0, {0}
     644:	0b000006 	bleq	664 <_start-0x799c>
     648:	0000002c 	andeq	r0, r0, ip, lsr #32
     64c:	9c070000 	stcls	0, cr0, [r7], {-0}
     650:	05000003 	streq	r0, [r0, #-3]
     654:	0b1a011f 	bleq	680ad8 <__bss_end__+0x676a08>
     658:	1a000003 	bne	66c <_start-0x7994>
     65c:	000004b7 			; <UNDEFINED> instruction: 0x000004b7
     660:	0123050c 			; <UNDEFINED> instruction: 0x0123050c
     664:	00069408 	andeq	r9, r6, r8, lsl #8
     668:	03c41800 	biceq	r1, r4, #0, 16
     66c:	25050000 	strcs	r0, [r5, #-0]
     670:	06941101 	ldreq	r1, [r4], r1, lsl #2
     674:	18000000 	stmdane	r0, {}	; <UNPREDICTABLE>
     678:	0000021b 	andeq	r0, r0, fp, lsl r2
     67c:	07012605 	streq	r2, [r1, -r5, lsl #12]
     680:	00000025 	andeq	r0, r0, r5, lsr #32
     684:	03961804 	orrseq	r1, r6, #4, 16	; 0x40000
     688:	27050000 	strcs	r0, [r5, -r0]
     68c:	069a0b01 	ldreq	r0, [sl], r1, lsl #22
     690:	00080000 	andeq	r0, r8, r0
     694:	065b0405 	ldrbeq	r0, [fp], -r5, lsl #8
     698:	04050000 	streq	r0, [r5], #-0
     69c:	0000064e 	andeq	r0, r0, lr, asr #12
     6a0:	0000211a 	andeq	r2, r0, sl, lsl r1
     6a4:	3f050e00 	svccc	0x00050e00
     6a8:	06d90801 	ldrbeq	r0, [r9], r1, lsl #16
     6ac:	13180000 	tstne	r8, #0
     6b0:	05000004 	streq	r0, [r0, #-4]
     6b4:	d9120140 	ldmdble	r2, {r6, r8}
     6b8:	00000006 	andeq	r0, r0, r6
     6bc:	00044718 	andeq	r4, r4, r8, lsl r7
     6c0:	01410500 	cmpeq	r1, r0, lsl #10
     6c4:	0006d912 	andeq	sp, r6, r2, lsl r9
     6c8:	63180600 	tstvs	r8, #0, 12
     6cc:	05000004 	streq	r0, [r0, #-4]
     6d0:	56120142 	ldrpl	r0, [r2], -r2, asr #2
     6d4:	0c000000 	stceq	0, cr0, [r0], {-0}
     6d8:	00560a00 	subseq	r0, r6, r0, lsl #20
     6dc:	06e90000 	strbteq	r0, [r9], r0
     6e0:	2c0b0000 	stccs	0, cr0, [fp], {-0}
     6e4:	02000000 	andeq	r0, r0, #0
     6e8:	05d01b00 	ldrbeq	r1, [r0, #2816]	; 0xb00
     6ec:	fe070280 	cdp2	2, 0, cr0, cr7, cr0, {4}
     6f0:	18000007 	stmdane	r0, {r0, r1, r2}
     6f4:	0000049b 	muleq	r0, fp, r4
     6f8:	18028205 	stmdane	r2, {r0, r2, r9, pc}
     6fc:	0000002c 	andeq	r0, r0, ip, lsr #32
     700:	044d1800 	strbeq	r1, [sp], #-2048	; 0xfffff800
     704:	83050000 	movwhi	r0, #20480	; 0x5000
     708:	01171202 	tsteq	r7, r2, lsl #4
     70c:	18040000 	stmdane	r4, {}	; <UNPREDICTABLE>
     710:	0000024a 	andeq	r0, r0, sl, asr #4
     714:	10028405 	andne	r8, r2, r5, lsl #8
     718:	000007fe 	strdeq	r0, [r0], -lr
     71c:	04fb1808 	ldrbteq	r1, [fp], #2056	; 0x808
     720:	85050000 	strhi	r0, [r5, #-0]
     724:	01a51702 			; <UNDEFINED> instruction: 0x01a51702
     728:	18240000 	stmdane	r4!, {}	; <UNPREDICTABLE>
     72c:	000001b8 			; <UNDEFINED> instruction: 0x000001b8
     730:	0f028605 	svceq	0x00028605
     734:	00000025 	andeq	r0, r0, r5, lsr #32
     738:	03bf1848 			; <UNDEFINED> instruction: 0x03bf1848
     73c:	87050000 	strhi	r0, [r5, -r0]
     740:	00642c02 	rsbeq	r2, r4, r2, lsl #24
     744:	18500000 	ldmdane	r0, {}^	; <UNPREDICTABLE>
     748:	00000511 	andeq	r0, r0, r1, lsl r5
     74c:	1a028805 	bne	a2768 <__bss_end__+0x98698>
     750:	000006a0 	andeq	r0, r0, r0, lsr #13
     754:	03ca1858 	biceq	r1, sl, #88, 16	; 0x580000
     758:	89050000 	stmdbhi	r5, {}	; <UNPREDICTABLE>
     75c:	00fd1602 	rscseq	r1, sp, r2, lsl #12
     760:	18680000 	stmdane	r8!, {}^	; <UNPREDICTABLE>
     764:	00000516 	andeq	r0, r0, r6, lsl r5
     768:	16028a05 	strne	r8, [r2], -r5, lsl #20
     76c:	000000fd 	strdeq	r0, [r0], -sp
     770:	02ce1870 	sbceq	r1, lr, #112, 16	; 0x700000
     774:	8b050000 	blhi	14077c <__bss_end__+0x1366ac>
     778:	00fd1602 	rscseq	r1, sp, r2, lsl #12
     77c:	18780000 	ldmdane	r8!, {}^	; <UNPREDICTABLE>
     780:	000004c6 	andeq	r0, r0, r6, asr #9
     784:	10028c05 	andne	r8, r2, r5, lsl #24
     788:	0000080e 	andeq	r0, r0, lr, lsl #16
     78c:	023e1880 	eorseq	r1, lr, #128, 16	; 0x800000
     790:	8d050000 	stchi	0, cr0, [r5, #-0]
     794:	081e1002 	ldmdaeq	lr, {r1, ip}
     798:	18880000 	stmne	r8, {}	; <UNPREDICTABLE>
     79c:	00000470 	andeq	r0, r0, r0, ror r4
     7a0:	0f028e05 	svceq	0x00028e05
     7a4:	00000025 	andeq	r0, r0, r5, lsr #32
     7a8:	017e18a0 	cmneq	lr, r0, lsr #17
     7ac:	8f050000 	svchi	0x00050000
     7b0:	00fd1602 	rscseq	r1, sp, r2, lsl #12
     7b4:	18a40000 	stmiane	r4!, {}	; <UNPREDICTABLE>
     7b8:	0000008f 	andeq	r0, r0, pc, lsl #1
     7bc:	16029005 	strne	r9, [r2], -r5
     7c0:	000000fd 	strdeq	r0, [r0], -sp
     7c4:	016d18ac 	cmneq	sp, ip, lsr #17
     7c8:	91050000 	mrsls	r0, (UNDEF: 5)
     7cc:	00fd1602 	rscseq	r1, sp, r2, lsl #12
     7d0:	18b40000 	ldmne	r4!, {}	; <UNPREDICTABLE>
     7d4:	0000003c 	andeq	r0, r0, ip, lsr r0
     7d8:	16029205 	strne	r9, [r2], -r5, lsl #4
     7dc:	000000fd 	strdeq	r0, [r0], -sp
     7e0:	004b18bc 	strheq	r1, [fp], #-140	; 0xffffff74
     7e4:	93050000 	movwls	r0, #20480	; 0x5000
     7e8:	00fd1602 	rscseq	r1, sp, r2, lsl #12
     7ec:	18c40000 	stmiane	r4, {}^	; <UNPREDICTABLE>
     7f0:	0000036e 	andeq	r0, r0, lr, ror #6
     7f4:	08029405 	stmdaeq	r2, {r0, r2, sl, ip, pc}
     7f8:	00000025 	andeq	r0, r0, r5, lsr #32
     7fc:	1d0a00cc 	stcne	0, cr0, [sl, #-816]	; 0xfffffcd0
     800:	0e000001 	cdpeq	0, 0, cr0, cr0, cr1, {0}
     804:	0b000008 	bleq	82c <_start-0x77d4>
     808:	0000002c 	andeq	r0, r0, ip, lsr #32
     80c:	1d0a0019 	stcne	0, cr0, [sl, #-100]	; 0xffffff9c
     810:	1e000001 	cdpne	0, 0, cr0, cr0, cr1, {0}
     814:	0b000008 	bleq	83c <_start-0x77c4>
     818:	0000002c 	andeq	r0, r0, ip, lsr #32
     81c:	1d0a0007 	stcne	0, cr0, [sl, #-28]	; 0xffffffe4
     820:	2e000001 	cdpcs	0, 0, cr0, cr0, cr1, {0}
     824:	0b000008 	bleq	84c <_start-0x77b4>
     828:	0000002c 	andeq	r0, r0, ip, lsr #32
     82c:	f01b0017 			; <UNDEFINED> instruction: 0xf01b0017
     830:	07029905 	streq	r9, [r2, -r5, lsl #18]
     834:	00000855 	andeq	r0, r0, r5, asr r8
     838:	00029a18 	andeq	r9, r2, r8, lsl sl
     83c:	029c0500 	addseq	r0, ip, #0, 10
     840:	0008551b 	andeq	r5, r8, fp, lsl r5
     844:	bd180000 	ldclt	0, cr0, [r8, #-0]
     848:	05000004 	streq	r0, [r0, #-4]
     84c:	6518029d 	ldrvs	r0, [r8, #-669]	; 0xfffffd63
     850:	78000008 	stmdavc	r0, {r3}
     854:	03050a00 	movweq	r0, #23040	; 0x5a00
     858:	08650000 	stmdaeq	r5!, {}^	; <UNPREDICTABLE>
     85c:	2c0b0000 	stccs	0, cr0, [fp], {-0}
     860:	1d000000 	stcne	0, cr0, [r0, #-0]
     864:	002c0a00 	eoreq	r0, ip, r0, lsl #20
     868:	08750000 	ldmdaeq	r5!, {}^	; <UNPREDICTABLE>
     86c:	2c0b0000 	stccs	0, cr0, [fp], {-0}
     870:	1d000000 	stcne	0, cr0, [r0, #-0]
     874:	05f01c00 	ldrbeq	r1, [r0, #3072]!	; 0xc00
     878:	9a03027e 	bls	c1278 <__bss_end__+0xb71a8>
     87c:	1d000008 	stcne	0, cr0, [r0, #-32]	; 0xffffffe0
     880:	0000040c 	andeq	r0, r0, ip, lsl #8
     884:	0b029505 	bleq	a5ca0 <__bss_end__+0x9bbd0>
     888:	000006e9 	andeq	r0, r0, r9, ror #13
     88c:	0004e81d 	andeq	lr, r4, sp, lsl r8
     890:	029e0500 	addseq	r0, lr, #0, 10
     894:	00082e0b 	andeq	r2, r8, fp, lsl #28
     898:	1d0a0000 	stcne	0, cr0, [sl, #-0]
     89c:	aa000001 	bge	8a8 <_start-0x7758>
     8a0:	0b000008 	bleq	8c8 <_start-0x7738>
     8a4:	0000002c 	andeq	r0, r0, ip, lsr #32
     8a8:	84060018 	strhi	r0, [r6], #-24	; 0xffffffe8
     8ac:	05000000 	streq	r0, [r0, #-0]
     8b0:	0008aa04 	andeq	sl, r8, r4, lsl #20
     8b4:	08c01e00 	stmiaeq	r0, {r9, sl, fp, ip}^
     8b8:	6c160000 	ldcvs	0, cr0, [r6], {-0}
     8bc:	00000004 	andeq	r0, r0, r4
     8c0:	08b50405 	ldmeq	r5!, {r0, r2, sl}
     8c4:	04050000 	streq	r0, [r5], #-0
     8c8:	0000018f 	andeq	r0, r0, pc, lsl #3
     8cc:	0008d71e 	andeq	sp, r8, lr, lsl r7
     8d0:	00251600 	eoreq	r1, r5, r0, lsl #12
     8d4:	05000000 	streq	r0, [r0, #-0]
     8d8:	0008dd04 	andeq	sp, r8, r4, lsl #26
     8dc:	cc040500 	cfstr32gt	mvfx0, [r4], {-0}
     8e0:	0a000008 	beq	908 <_start-0x76f8>
     8e4:	0000064e 	andeq	r0, r0, lr, asr #12
     8e8:	000008f3 	strdeq	r0, [r0], -r3
     8ec:	00002c0b 	andeq	r2, r0, fp, lsl #24
     8f0:	1f000200 	svcne	0x00000200
     8f4:	00000484 	andeq	r0, r0, r4, lsl #9
     8f8:	17032e05 	strne	r2, [r3, -r5, lsl #28]
     8fc:	0000046c 	andeq	r0, r0, ip, ror #8
     900:	00047d1f 	andeq	r7, r4, pc, lsl sp
     904:	032f0500 			; <UNDEFINED> instruction: 0x032f0500
     908:	0004721d 	andeq	r7, r4, sp, lsl r2
     90c:	00251500 	eoreq	r1, r5, r0, lsl #10
     910:	091c0000 	ldmdbeq	ip, {}	; <UNPREDICTABLE>
     914:	25160000 	ldrcs	r0, [r6, #-0]
     918:	00000000 	andeq	r0, r0, r0
     91c:	0001d120 	andeq	sp, r1, r0, lsr #2
     920:	0e1d0600 	cfmsub32eq	mvax0, mvfx0, mvfx13, mvfx0
     924:	00000928 	andeq	r0, r0, r8, lsr #18
     928:	090d0405 	stmdbeq	sp, {r0, r2, sl}
     92c:	25150000 	ldrcs	r0, [r5, #-0]
     930:	3d000000 	stccc	0, cr0, [r0, #-0]
     934:	16000009 	strne	r0, [r0], -r9
     938:	000005e4 	andeq	r0, r0, r4, ror #11
     93c:	078c2000 	streq	r2, [ip, r0]
     940:	22060000 	andcs	r0, r6, #0
     944:	0009490e 	andeq	r4, r9, lr, lsl #18
     948:	2e040500 	cfsh32cs	mvfx0, mvfx4, #0
     94c:	21000009 	tstcs	r0, r9
     950:	00000034 	andeq	r0, r0, r4, lsr r0
     954:	10060501 	andne	r0, r6, r1, lsl #10
     958:	e8000080 	stmda	r0, {r7}
     95c:	01000000 	mrseq	r0, (UNDEF: 0)
     960:	000b0a9c 	muleq	fp, ip, sl
     964:	006e2200 	rsbeq	r2, lr, r0, lsl #4
     968:	2c0e0a01 			; <UNDEFINED> instruction: 0x2c0e0a01
     96c:	00000000 	andeq	r0, r0, r0
     970:	23001000 	movwcs	r1, #0
     974:	01003070 	tsteq	r0, r0, ror r0
     978:	01150b0e 	tsteq	r5, lr, lsl #22
     97c:	00040000 	andeq	r0, r4, r0
     980:	00000000 	andeq	r0, r0, r0
     984:	0e240000 	cdpeq	0, 2, cr0, cr4, cr0, {0}
     988:	1a000002 	bne	998 <_start-0x7668>
     98c:	0500000b 	streq	r0, [r0, #-11]
     990:	00978403 	addseq	r8, r7, r3, lsl #8
     994:	31702300 	cmncc	r0, r0, lsl #6
     998:	0b0f0100 	bleq	3c0da0 <__bss_end__+0x3b6cd0>
     99c:	00000115 	andeq	r0, r0, r5, lsl r1
     9a0:	00000026 	andeq	r0, r0, r6, lsr #32
     9a4:	00000022 	andeq	r0, r0, r2, lsr #32
     9a8:	00801c25 	addeq	r1, r0, r5, lsr #24
     9ac:	000b1f00 	andeq	r1, fp, r0, lsl #30
     9b0:	0009bf00 	andeq	fp, r9, r0, lsl #30
     9b4:	50012600 	andpl	r2, r1, r0, lsl #12
     9b8:	97140305 	ldrls	r0, [r4, -r5, lsl #6]
     9bc:	25000000 	strcs	r0, [r0, #-0]
     9c0:	00008024 	andeq	r8, r0, r4, lsr #32
     9c4:	00000b2b 	andeq	r0, r0, fp, lsr #22
     9c8:	000009d4 	ldrdeq	r0, [r0], -r4
     9cc:	03500126 	cmpeq	r0, #-2147483639	; 0x80000009
     9d0:	00244040 	eoreq	r4, r4, r0, asr #32
     9d4:	00802c25 	addeq	r2, r0, r5, lsr #24
     9d8:	000b3700 	andeq	r3, fp, r0, lsl #14
     9dc:	0009e900 	andeq	lr, r9, r0, lsl #18
     9e0:	50012600 	andpl	r2, r1, r0, lsl #12
     9e4:	24404003 	strbcs	r4, [r0], #-3
     9e8:	80342500 	eorshi	r2, r4, r0, lsl #10
     9ec:	0b430000 	bleq	10c09f4 <__bss_end__+0x10b6924>
     9f0:	09fe0000 	ldmibeq	lr!, {}^	; <UNPREDICTABLE>
     9f4:	01260000 			; <UNDEFINED> instruction: 0x01260000
     9f8:	40400351 	submi	r0, r0, r1, asr r3
     9fc:	38270024 	stmdacc	r7!, {r2, r5}
     a00:	4f000080 	svcmi	0x00000080
     a04:	2500000b 	strcs	r0, [r0, #-11]
     a08:	00008058 	andeq	r8, r0, r8, asr r0
     a0c:	00000b5b 	andeq	r0, r0, fp, asr fp
     a10:	00000a26 	andeq	r0, r0, r6, lsr #20
     a14:	02510126 	subseq	r0, r1, #-2147483639	; 0x80000009
     a18:	01260074 			; <UNDEFINED> instruction: 0x01260074
     a1c:	00750252 	rsbseq	r0, r5, r2, asr r2
     a20:	01530126 	cmpeq	r3, r6, lsr #2
     a24:	6027003e 	eorvs	r0, r7, lr, lsr r0
     a28:	4f000080 	svcmi	0x00000080
     a2c:	2500000b 	strcs	r0, [r0, #-11]
     a30:	00008078 	andeq	r8, r0, r8, ror r0
     a34:	00000b5b 	andeq	r0, r0, fp, asr fp
     a38:	00000a4e 	andeq	r0, r0, lr, asr #20
     a3c:	02510126 	subseq	r0, r1, #-2147483639	; 0x80000009
     a40:	01260074 			; <UNDEFINED> instruction: 0x01260074
     a44:	00750252 	rsbseq	r0, r5, r2, asr r2
     a48:	01530126 	cmpeq	r3, r6, lsr #2
     a4c:	9025003f 	eorls	r0, r5, pc, lsr r0
     a50:	67000080 	strvs	r0, [r0, -r0, lsl #1]
     a54:	7300000b 	movwvc	r0, #11
     a58:	2600000a 	strcs	r0, [r0], -sl
     a5c:	77025001 	strvc	r5, [r2, -r1]
     a60:	51012600 	tstpl	r1, r0, lsl #12
     a64:	26007402 	strcs	r7, [r0], -r2, lsl #8
     a68:	75025201 	strvc	r5, [r2, #-513]	; 0xfffffdff
     a6c:	53012600 	movwpl	r2, #5632	; 0x1600
     a70:	25004101 	strcs	r4, [r0, #-257]	; 0xfffffeff
     a74:	000080a4 	andeq	r8, r0, r4, lsr #1
     a78:	00000b67 	andeq	r0, r0, r7, ror #22
     a7c:	00000a98 	muleq	r0, r8, sl
     a80:	02500126 	subseq	r0, r0, #-2147483639	; 0x80000009
     a84:	01260076 			; <UNDEFINED> instruction: 0x01260076
     a88:	00740251 	rsbseq	r0, r4, r1, asr r2
     a8c:	02520126 	subseq	r0, r2, #-2147483639	; 0x80000009
     a90:	01260075 			; <UNDEFINED> instruction: 0x01260075
     a94:	00420153 	subeq	r0, r2, r3, asr r1
     a98:	0080a827 	addeq	sl, r0, r7, lsr #16
     a9c:	000b7300 	andeq	r7, fp, r0, lsl #6
     aa0:	80b82500 	adcshi	r2, r8, r0, lsl #10
     aa4:	0b1f0000 	bleq	7c0aac <__bss_end__+0x7b69dc>
     aa8:	0ab80000 	beq	fee00ab0 <__bss_end__+0xfedf69e0>
     aac:	01260000 			; <UNDEFINED> instruction: 0x01260000
     ab0:	60030550 	andvs	r0, r3, r0, asr r5
     ab4:	00000097 	muleq	r0, r7, r0
     ab8:	0080c025 	addeq	ip, r0, r5, lsr #32
     abc:	000b1f00 	andeq	r1, fp, r0, lsl #30
     ac0:	000acf00 	andeq	ip, sl, r0, lsl #30
     ac4:	50012600 	andpl	r2, r1, r0, lsl #12
     ac8:	97680305 	strbls	r0, [r8, -r5, lsl #6]!
     acc:	27000000 	strcs	r0, [r0, -r0]
     ad0:	000080c8 	andeq	r8, r0, r8, asr #1
     ad4:	00000b7f 	andeq	r0, r0, pc, ror fp
     ad8:	0080dc25 	addeq	sp, r0, r5, lsr #24
     adc:	000b1f00 	andeq	r1, fp, r0, lsl #30
     ae0:	000b0000 	andeq	r0, fp, r0
     ae4:	50012600 	andpl	r2, r1, r0, lsl #12
     ae8:	973c0305 	ldrls	r0, [ip, -r5, lsl #6]!
     aec:	01260000 			; <UNDEFINED> instruction: 0x01260000
     af0:	00740251 	rsbseq	r0, r4, r1, asr r2
     af4:	02520126 	subseq	r0, r2, #-2147483639	; 0x80000009
     af8:	01260075 			; <UNDEFINED> instruction: 0x01260075
     afc:	00450153 	subeq	r0, r5, r3, asr r1
     b00:	0080e027 	addeq	lr, r0, r7, lsr #32
     b04:	000b8b00 	andeq	r8, fp, r0, lsl #22
     b08:	240a0000 	strcs	r0, [sl], #-0
     b0c:	1a000001 	bne	b18 <_start-0x74e8>
     b10:	0b00000b 	bleq	b44 <_start-0x74bc>
     b14:	0000002c 	andeq	r0, r0, ip, lsr #32
     b18:	0a0f0007 	beq	3c0b3c <__bss_end__+0x3b6a6c>
     b1c:	2800000b 	stmdacs	r0, {r0, r1, r3}
     b20:	00000723 	andeq	r0, r0, r3, lsr #14
     b24:	00000723 	andeq	r0, r0, r3, lsr #14
     b28:	28052906 	stmdacs	r5, {r1, r2, r8, fp, sp}
     b2c:	00000156 	andeq	r0, r0, r6, asr r1
     b30:	00000156 	andeq	r0, r0, r6, asr r1
     b34:	28067206 	stmdacs	r6, {r1, r2, r9, ip, sp, lr}
     b38:	000004da 	ldrdeq	r0, [r0], -sl
     b3c:	000004da 	ldrdeq	r0, [r0], -sl
     b40:	28076c06 	stmdacs	r7, {r1, r2, sl, fp, sp, lr}
     b44:	00000135 	andeq	r0, r0, r5, lsr r1
     b48:	00000135 	andeq	r0, r0, r5, lsr r1
     b4c:	28067707 	stmdacs	r6, {r0, r1, r2, r8, r9, sl, ip, sp, lr}
     b50:	00000490 	muleq	r0, r0, r4
     b54:	00000490 	muleq	r0, r0, r4
     b58:	280f3206 	stmdacs	pc, {r1, r2, r9, ip, sp}	; <UNPREDICTABLE>
     b5c:	00000073 	andeq	r0, r0, r3, ror r0
     b60:	00000073 	andeq	r0, r0, r3, ror r0
     b64:	28087407 	stmdacs	r8, {r0, r1, r2, sl, ip, sp, lr}
     b68:	00000274 	andeq	r0, r0, r4, ror r2
     b6c:	00000274 	andeq	r0, r0, r4, ror r2
     b70:	28077507 	stmdacs	r7, {r0, r1, r2, r8, sl, ip, sp, lr}
     b74:	0000000c 	andeq	r0, r0, ip
     b78:	0000000c 	andeq	r0, r0, ip
     b7c:	28057d07 	stmdacs	r5, {r0, r1, r2, r8, sl, fp, ip, sp, lr}
     b80:	000001e9 	andeq	r0, r0, r9, ror #3
     b84:	000001e9 	andeq	r0, r0, r9, ror #3
     b88:	28061e06 	stmdacs	r6, {r1, r2, r9, sl, fp, ip}
     b8c:	0000028d 	andeq	r0, r0, sp, lsl #5
     b90:	0000028d 	andeq	r0, r0, sp, lsl #5
     b94:	00066506 	andeq	r6, r6, r6, lsl #10
     b98:	00001a32 	andeq	r1, r0, r2, lsr sl
     b9c:	023a0004 	eorseq	r0, sl, #4
     ba0:	01040000 	mrseq	r0, (UNDEF: 4)
     ba4:	000002ef 	andeq	r0, r0, pc, ror #5
     ba8:	0005e40c 	andeq	lr, r5, ip, lsl #8
     bac:	0000cb00 	andeq	ip, r0, r0, lsl #22
     bb0:	0080f800 	addeq	pc, r0, r0, lsl #16
     bb4:	0008d800 	andeq	sp, r8, r0, lsl #16
     bb8:	00012400 	andeq	r2, r1, r0, lsl #8
     bbc:	05040200 	streq	r0, [r4, #-512]	; 0xfffffe00
     bc0:	00746e69 	rsbseq	r6, r4, r9, ror #28
     bc4:	66070403 	strvs	r0, [r7], -r3, lsl #8
     bc8:	03000000 	movweq	r0, #0
     bcc:	02de0601 	sbcseq	r0, lr, #1048576	; 0x100000
     bd0:	02030000 	andeq	r0, r3, #0
     bd4:	00037705 	andeq	r7, r3, r5, lsl #14
     bd8:	05040300 	streq	r0, [r4, #-768]	; 0xfffffd00
     bdc:	000000ac 	andeq	r0, r0, ip, lsr #1
     be0:	a7050803 	strge	r0, [r5, -r3, lsl #16]
     be4:	04000000 	streq	r0, [r0], #-0
     be8:	000006aa 	andeq	r0, r0, sl, lsr #13
     bec:	5b182e03 	blpl	60c400 <__bss_end__+0x602330>
     bf0:	03000000 	movweq	r0, #0
     bf4:	02dc0801 	sbcseq	r0, ip, #65536	; 0x10000
     bf8:	02030000 	andeq	r0, r3, #0
     bfc:	00022207 	andeq	r2, r2, r7, lsl #4
     c00:	06610400 	strbteq	r0, [r1], -r0, lsl #8
     c04:	34030000 	strcc	r0, [r3], #-0
     c08:	00007519 	andeq	r7, r0, r9, lsl r5
     c0c:	07040300 	streq	r0, [r4, -r0, lsl #6]
     c10:	00000061 	andeq	r0, r0, r1, rrx
     c14:	5c070803 	stcpl	8, cr0, [r7], {3}
     c18:	04000000 	streq	r0, [r0], #-0
     c1c:	00000265 	andeq	r0, r0, r5, ror #4
     c20:	8f192204 	svchi	0x00192204
     c24:	05000000 	streq	r0, [r0, #-0]
     c28:	00009504 	andeq	r9, r0, r4, lsl #10
     c2c:	04210600 	strteq	r0, [r1], #-1536	; 0xfffffa00
     c30:	bd040000 	stclt	0, cr0, [r4, #-0]
     c34:	05000002 	streq	r0, [r0, #-2]
     c38:	00410e2c 	subeq	r0, r1, ip, lsr #28
     c3c:	36040000 	strcc	r0, [r4], -r0
     c40:	05000004 	streq	r0, [r0, #-4]
     c44:	00410e72 	subeq	r0, r1, r2, ror lr
     c48:	6d070000 	stcvs	0, cr0, [r7, #-0]
     c4c:	06000002 	streq	r0, [r0], -r2
     c50:	2c17015e 	ldfcss	f0, [r7], {94}	; 0x5e
     c54:	08000000 	stmdaeq	r0, {}	; <UNPREDICTABLE>
     c58:	03a60504 			; <UNDEFINED> instruction: 0x03a60504
     c5c:	000000e1 	andeq	r0, r0, r1, ror #1
     c60:	00025f09 	andeq	r5, r2, r9, lsl #30
     c64:	0ca80500 	cfstr32eq	mvfx0, [r8]
     c68:	000000b2 	strheq	r0, [r0], -r2
     c6c:	0001e209 	andeq	lr, r1, r9, lsl #4
     c70:	13a90500 			; <UNDEFINED> instruction: 0x13a90500
     c74:	000000e1 	andeq	r0, r0, r1, ror #1
     c78:	005b0a00 	subseq	r0, fp, r0, lsl #20
     c7c:	00f10000 	rscseq	r0, r1, r0
     c80:	2c0b0000 	stccs	0, cr0, [fp], {-0}
     c84:	03000000 	movweq	r0, #0
     c88:	05080c00 	streq	r0, [r8, #-3072]	; 0xfffff400
     c8c:	011509a3 	tsteq	r5, r3, lsr #19
     c90:	190d0000 	stmdbne	sp, {}	; <UNPREDICTABLE>
     c94:	05000004 	streq	r0, [r0, #-4]
     c98:	002507a5 	eoreq	r0, r5, r5, lsr #15
     c9c:	0d000000 	stceq	0, cr0, [r0, #-0]
     ca0:	00000428 	andeq	r0, r0, r8, lsr #8
     ca4:	bf05aa05 	svclt	0x0005aa05
     ca8:	04000000 	streq	r0, [r0], #-0
     cac:	03a30400 			; <UNDEFINED> instruction: 0x03a30400
     cb0:	ab050000 	blge	140cb8 <__bss_end__+0x136be8>
     cb4:	0000f103 	andeq	pc, r0, r3, lsl #2
     cb8:	019f0400 	orrseq	r0, pc, r0, lsl #8
     cbc:	af050000 	svcge	0x00050000
     cc0:	0000831b 	andeq	r8, r0, fp, lsl r3
     cc4:	05040e00 	streq	r0, [r4, #-3584]	; 0xfffff200
     cc8:	00013504 	andeq	r3, r1, r4, lsl #10
     ccc:	08010300 	stmdaeq	r1, {r8, r9}
     cd0:	000002e5 	andeq	r0, r0, r5, ror #5
     cd4:	0001350f 	andeq	r3, r1, pc, lsl #10
     cd8:	04680400 	strbteq	r0, [r8], #-1024	; 0xfffffc00
     cdc:	16070000 	strne	r0, [r7], -r0
     ce0:	00007519 	andeq	r7, r0, r9, lsl r5
     ce4:	01b01000 	movseq	r1, r0
     ce8:	07180000 	ldreq	r0, [r8, -r0]
     cec:	01a7082f 			; <UNDEFINED> instruction: 0x01a7082f
     cf0:	c40d0000 	strgt	r0, [sp], #-0
     cf4:	07000003 	streq	r0, [r0, -r3]
     cf8:	01a71331 			; <UNDEFINED> instruction: 0x01a71331
     cfc:	11000000 	mrsne	r0, (UNDEF: 0)
     d00:	07006b5f 	smlsdeq	r0, pc, fp, r6	; <UNPREDICTABLE>
     d04:	00250732 	eoreq	r0, r5, r2, lsr r7
     d08:	0d040000 	stceq	0, cr0, [r4, #-0]
     d0c:	00000404 	andeq	r0, r0, r4, lsl #8
     d10:	250b3207 	strcs	r3, [fp, #-519]	; 0xfffffdf9
     d14:	08000000 	stmdaeq	r0, {}	; <UNPREDICTABLE>
     d18:	0001990d 	andeq	r9, r1, sp, lsl #18
     d1c:	14320700 	ldrtne	r0, [r2], #-1792	; 0xfffff900
     d20:	00000025 	andeq	r0, r0, r5, lsr #32
     d24:	04a80d0c 	strteq	r0, [r8], #3340	; 0xd0c
     d28:	32070000 	andcc	r0, r7, #0
     d2c:	0000251b 	andeq	r2, r0, fp, lsl r5
     d30:	5f111000 	svcpl	0x00111000
     d34:	33070078 	movwcc	r0, #28792	; 0x7078
     d38:	0001ad0b 	andeq	sl, r1, fp, lsl #26
     d3c:	05001400 	streq	r1, [r0, #-1024]	; 0xfffffc00
     d40:	00014d04 	andeq	r4, r1, r4, lsl #26
     d44:	01410a00 	cmpeq	r1, r0, lsl #20
     d48:	01bd0000 			; <UNDEFINED> instruction: 0x01bd0000
     d4c:	2c0b0000 	stccs	0, cr0, [fp], {-0}
     d50:	00000000 	andeq	r0, r0, r0
     d54:	01dd1000 	bicseq	r1, sp, r0
     d58:	07240000 	streq	r0, [r4, -r0]!
     d5c:	02400837 	subeq	r0, r0, #3604480	; 0x370000
     d60:	9e0d0000 	cdpls	0, 0, cr0, cr13, cr0, {0}
     d64:	07000000 	streq	r0, [r0, -r0]
     d68:	00250939 	eoreq	r0, r5, r9, lsr r9
     d6c:	0d000000 	stceq	0, cr0, [r0, #-0]
     d70:	0000043e 	andeq	r0, r0, lr, lsr r4
     d74:	25093a07 	strcs	r3, [r9, #-2567]	; 0xfffff5f9
     d78:	04000000 	streq	r0, [r0], #-0
     d7c:	0000c10d 	andeq	ip, r0, sp, lsl #2
     d80:	093b0700 	ldmdbeq	fp!, {r8, r9, sl}
     d84:	00000025 	andeq	r0, r0, r5, lsr #32
     d88:	05330d08 	ldreq	r0, [r3, #-3336]!	; 0xfffff2f8
     d8c:	3c070000 	stccc	0, cr0, [r7], {-0}
     d90:	00002509 	andeq	r2, r0, r9, lsl #10
     d94:	a10d0c00 	tstge	sp, r0, lsl #24
     d98:	07000002 	streq	r0, [r0, -r2]
     d9c:	0025093d 	eoreq	r0, r5, sp, lsr r9
     da0:	0d100000 	ldceq	0, cr0, [r0, #-0]
     da4:	00000283 	andeq	r0, r0, r3, lsl #5
     da8:	25093e07 	strcs	r3, [r9, #-3591]	; 0xfffff1f9
     dac:	14000000 	strne	r0, [r0], #-0
     db0:	0004ad0d 	andeq	sl, r4, sp, lsl #26
     db4:	093f0700 	ldmdbeq	pc!, {r8, r9, sl}	; <UNPREDICTABLE>
     db8:	00000025 	andeq	r0, r0, r5, lsr #32
     dbc:	05290d18 	streq	r0, [r9, #-3352]!	; 0xfffff2e8
     dc0:	40070000 	andmi	r0, r7, r0
     dc4:	00002509 	andeq	r2, r0, r9, lsl #10
     dc8:	f00d1c00 			; <UNDEFINED> instruction: 0xf00d1c00
     dcc:	07000004 	streq	r0, [r0, -r4]
     dd0:	00250941 	eoreq	r0, r5, r1, asr #18
     dd4:	00200000 	eoreq	r0, r0, r0
     dd8:	00010112 	andeq	r0, r1, r2, lsl r1
     ddc:	07010800 	streq	r0, [r1, -r0, lsl #16]
     de0:	0285084a 	addeq	r0, r5, #4849664	; 0x4a0000
     de4:	8c0d0000 	stchi	0, cr0, [sp], {-0}
     de8:	07000001 	streq	r0, [r0, -r1]
     dec:	02850a4b 	addeq	r0, r5, #307200	; 0x4b000
     df0:	0d000000 	stceq	0, cr0, [r0, #-0]
     df4:	00000000 	andeq	r0, r0, r0
     df8:	85094c07 	strhi	r4, [r9, #-3079]	; 0xfffff3f9
     dfc:	80000002 	andhi	r0, r0, r2
     e00:	00045a13 	andeq	r5, r4, r3, lsl sl
     e04:	0a4e0700 	beq	1382a0c <__bss_end__+0x137893c>
     e08:	00000141 	andeq	r0, r0, r1, asr #2
     e0c:	26130100 	ldrcs	r0, [r3], -r0, lsl #2
     e10:	07000001 	streq	r0, [r0, -r1]
     e14:	01410a51 	cmpeq	r1, r1, asr sl
     e18:	01040000 	mrseq	r0, (UNDEF: 4)
     e1c:	012d0a00 			; <UNDEFINED> instruction: 0x012d0a00
     e20:	02950000 	addseq	r0, r5, #0
     e24:	2c0b0000 	stccs	0, cr0, [fp], {-0}
     e28:	1f000000 	svcne	0x00000000
     e2c:	02aa1200 	adceq	r1, sl, #0, 4
     e30:	01900000 	orrseq	r0, r0, r0
     e34:	d8085d07 	stmdale	r8, {r0, r1, r2, r8, sl, fp, ip, lr}
     e38:	0d000002 	stceq	0, cr0, [r0, #-8]
     e3c:	000003c4 	andeq	r0, r0, r4, asr #7
     e40:	d8125e07 	ldmdale	r2, {r0, r1, r2, r9, sl, fp, ip, lr}
     e44:	00000002 	andeq	r0, r0, r2
     e48:	0003dc0d 	andeq	sp, r3, sp, lsl #24
     e4c:	065f0700 	ldrbeq	r0, [pc], -r0, lsl #14
     e50:	00000025 	andeq	r0, r0, r5, lsr #32
     e54:	01940d04 	orrseq	r0, r4, r4, lsl #26
     e58:	61070000 	mrsvs	r0, (UNDEF: 7)
     e5c:	0002de09 	andeq	sp, r2, r9, lsl #28
     e60:	010d0800 	tsteq	sp, r0, lsl #16
     e64:	07000001 	streq	r0, [r0, -r1]
     e68:	02401e62 	subeq	r1, r0, #1568	; 0x620
     e6c:	00880000 	addeq	r0, r8, r0
     e70:	02950405 	addseq	r0, r5, #83886080	; 0x5000000
     e74:	ee0a0000 	cdp	0, 0, cr0, cr10, cr0, {0}
     e78:	ee000002 	cdp	0, 0, cr0, cr0, cr2, {0}
     e7c:	0b000002 	bleq	e8c <_start-0x7174>
     e80:	0000002c 	andeq	r0, r0, ip, lsr #32
     e84:	0405001f 	streq	r0, [r5], #-31	; 0xffffffe1
     e88:	000002f4 	strdeq	r0, [r0], -r4
     e8c:	038f1014 	orreq	r1, pc, #20
     e90:	07080000 	streq	r0, [r8, -r0]
     e94:	031d0875 	tsteq	sp, #7667712	; 0x750000
     e98:	bb0d0000 	bllt	340ea0 <__bss_end__+0x336dd0>
     e9c:	07000000 	streq	r0, [r0, -r0]
     ea0:	031d1176 	tsteq	sp, #-2147483619	; 0x8000001d
     ea4:	0d000000 	stceq	0, cr0, [r0, #-0]
     ea8:	0000001b 	andeq	r0, r0, fp, lsl r0
     eac:	25067707 	strcs	r7, [r6, #-1799]	; 0xfffff8f9
     eb0:	04000000 	streq	r0, [r0], #-0
     eb4:	5b040500 	blpl	1022bc <__bss_end__+0xf81ec>
     eb8:	10000000 	andne	r0, r0, r0
     ebc:	000003ae 	andeq	r0, r0, lr, lsr #7
     ec0:	08b50768 	ldmeq	r5!, {r3, r5, r6, r8, r9, sl}
     ec4:	00000466 	andeq	r0, r0, r6, ror #8
     ec8:	00705f11 	rsbseq	r5, r0, r1, lsl pc
     ecc:	1d12b607 	ldcne	6, cr11, [r2, #-28]	; 0xffffffe4
     ed0:	00000003 	andeq	r0, r0, r3
     ed4:	00725f11 	rsbseq	r5, r2, r1, lsl pc
     ed8:	2507b707 	strcs	fp, [r7, #-1799]	; 0xfffff8f9
     edc:	04000000 	streq	r0, [r0], #-0
     ee0:	00775f11 	rsbseq	r5, r7, r1, lsl pc
     ee4:	2507b807 	strcs	fp, [r7, #-2055]	; 0xfffff7f9
     ee8:	08000000 	stmdaeq	r0, {}	; <UNPREDICTABLE>
     eec:	00011f0d 	andeq	r1, r1, sp, lsl #30
     ef0:	09b90700 	ldmibeq	r9!, {r8, r9, sl}
     ef4:	0000003a 	andeq	r0, r0, sl, lsr r0
     ef8:	02080d0c 	andeq	r0, r8, #12, 26	; 0x300
     efc:	ba070000 	blt	1c0f04 <__bss_end__+0x1b6e34>
     f00:	00003a09 	andeq	r3, r0, r9, lsl #20
     f04:	5f110e00 	svcpl	0x00110e00
     f08:	07006662 	streq	r6, [r0, -r2, ror #12]
     f0c:	02f511bb 	rscseq	r1, r5, #-1073741778	; 0xc000002e
     f10:	0d100000 	ldceq	0, cr0, [r0, #-0]
     f14:	0000007b 	andeq	r0, r0, fp, ror r0
     f18:	2507bc07 	strcs	fp, [r7, #-3079]	; 0xfffff3f9
     f1c:	18000000 	stmdane	r0, {}	; <UNPREDICTABLE>
     f20:	00010f0d 	andeq	r0, r1, sp, lsl #30
     f24:	0ac30700 	beq	ff0c2b2c <__bss_end__+0xff0b8a5c>
     f28:	0000012d 	andeq	r0, r0, sp, lsr #2
     f2c:	0b720d1c 	bleq	1c843a4 <__bss_end__+0x1c7a2d4>
     f30:	c5070000 	strgt	r0, [r7, #-0]
     f34:	0005d81d 	andeq	sp, r5, sp, lsl r8
     f38:	360d2000 	strcc	r2, [sp], -r0
     f3c:	07000006 	streq	r0, [r0, -r6]
     f40:	06021dc7 	streq	r1, [r2], -r7, asr #27
     f44:	0d240000 	stceq	0, cr0, [r4, #-0]
     f48:	00000430 	andeq	r0, r0, r0, lsr r4
     f4c:	260dca07 	strcs	ip, [sp], -r7, lsl #20
     f50:	28000006 	stmdacs	r0, {r1, r2}
     f54:	00050a0d 	andeq	r0, r5, sp, lsl #20
     f58:	09cb0700 	stmibeq	fp, {r8, r9, sl}^
     f5c:	00000640 	andeq	r0, r0, r0, asr #12
     f60:	755f112c 	ldrbvc	r1, [pc, #-300]	; e3c <_start-0x71c4>
     f64:	ce070062 	cdpgt	0, 0, cr0, cr7, cr2, {3}
     f68:	0002f511 	andeq	pc, r2, r1, lsl r5	; <UNPREDICTABLE>
     f6c:	5f113000 	svcpl	0x00113000
     f70:	07007075 	smlsdxeq	r0, r5, r0, r7
     f74:	031d12cf 	tsteq	sp, #-268435444	; 0xf000000c
     f78:	11380000 	teqne	r8, r0
     f7c:	0072755f 	rsbseq	r7, r2, pc, asr r5
     f80:	2507d007 	strcs	sp, [r7, #-7]
     f84:	3c000000 	stccc	0, cr0, [r0], {-0}
     f88:	0000b50d 	andeq	fp, r0, sp, lsl #10
     f8c:	11d30700 	bicsne	r0, r3, r0, lsl #14
     f90:	00000646 	andeq	r0, r0, r6, asr #12
     f94:	04e20d40 	strbteq	r0, [r2], #3392	; 0xd40
     f98:	d4070000 	strle	r0, [r7], #-0
     f9c:	00065611 	andeq	r5, r6, r1, lsl r6
     fa0:	5f114300 	svcpl	0x00114300
     fa4:	0700626c 	streq	r6, [r0, -ip, ror #4]
     fa8:	02f511d7 	rscseq	r1, r5, #-1073741771	; 0xc0000035
     fac:	0d440000 	stcleq	0, cr0, [r4, #-0]
     fb0:	0000013d 	andeq	r0, r0, sp, lsr r1
     fb4:	2507da07 	strcs	sp, [r7, #-2567]	; 0xfffff5f9
     fb8:	4c000000 	stcmi	0, cr0, [r0], {-0}
     fbc:	00014e0d 	andeq	r4, r1, sp, lsl #28
     fc0:	0adb0700 	beq	ff6c2bc8 <__bss_end__+0xff6b8af8>
     fc4:	0000009a 	muleq	r0, sl, r0
     fc8:	0b130d50 	bleq	4c4510 <__bss_end__+0x4ba440>
     fcc:	de070000 	cdple	0, 0, cr0, cr7, cr0, {0}
     fd0:	00048412 	andeq	r8, r4, r2, lsl r4
     fd4:	220d5400 	andcs	r5, sp, #0, 8
     fd8:	07000004 	streq	r0, [r0, -r4]
     fdc:	01210ce2 	smulwteq	r1, r2, ip
     fe0:	0d580000 	ldcleq	0, cr0, [r8, #-0]
     fe4:	000003b6 			; <UNDEFINED> instruction: 0x000003b6
     fe8:	150ee407 	strne	lr, [lr, #-1031]	; 0xfffffbf9
     fec:	5c000001 	stcpl	0, cr0, [r0], {1}
     ff0:	00027b0d 	andeq	r7, r2, sp, lsl #22
     ff4:	09e50700 	stmibeq	r5!, {r8, r9, sl}^
     ff8:	00000025 	andeq	r0, r0, r5, lsr #32
     ffc:	25150064 	ldrcs	r0, [r5, #-100]	; 0xffffff9c
    1000:	84000000 	strhi	r0, [r0], #-0
    1004:	16000004 	strne	r0, [r0], -r4
    1008:	00000484 	andeq	r0, r0, r4, lsl #9
    100c:	00012d16 	andeq	r2, r1, r6, lsl sp
    1010:	012f1600 			; <UNDEFINED> instruction: 0x012f1600
    1014:	25160000 	ldrcs	r0, [r6, #-0]
    1018:	00000000 	andeq	r0, r0, r0
    101c:	048f0405 	streq	r0, [pc], #1029	; 1024 <_start-0x6fdc>
    1020:	840f0000 	strhi	r0, [pc], #-0	; 1028 <_start-0x6fd8>
    1024:	17000004 	strne	r0, [r0, -r4]
    1028:	0000040c 	andeq	r0, r0, ip, lsl #8
    102c:	60070428 	andvs	r0, r7, r8, lsr #8
    1030:	05d80802 	ldrbeq	r0, [r8, #2050]	; 0x802
    1034:	70180000 	andsvc	r0, r8, r0
    1038:	07000003 	streq	r0, [r0, -r3]
    103c:	25070262 	strcs	r0, [r7, #-610]	; 0xfffffd9e
    1040:	00000000 	andeq	r0, r0, r0
    1044:	00012e18 	andeq	r2, r1, r8, lsl lr
    1048:	02670700 	rsbeq	r0, r7, #0, 14
    104c:	0006b20b 	andeq	fp, r6, fp, lsl #4
    1050:	f8180400 			; <UNDEFINED> instruction: 0xf8180400
    1054:	07000001 	streq	r0, [r0, -r1]
    1058:	b2140267 	andslt	r0, r4, #1879048198	; 0x70000006
    105c:	08000006 	stmdaeq	r0, {r1, r2}
    1060:	0001a818 	andeq	sl, r1, r8, lsl r8
    1064:	02670700 	rsbeq	r0, r7, #0, 14
    1068:	0006b21e 	andeq	fp, r6, lr, lsl r2
    106c:	d7180c00 	ldrle	r0, [r8, -r0, lsl #24]
    1070:	07000003 	streq	r0, [r0, -r3]
    1074:	25080269 	strcs	r0, [r8, #-617]	; 0xfffffd97
    1078:	10000000 	andne	r0, r0, r0
    107c:	00002918 	andeq	r2, r0, r8, lsl r9
    1080:	026a0700 	rsbeq	r0, sl, #0, 14
    1084:	0008b208 	andeq	fp, r8, r8, lsl #4
    1088:	eb181400 	bl	606090 <__bss_end__+0x5fbfc0>
    108c:	07000003 	streq	r0, [r0, -r3]
    1090:	2507026d 	strcs	r0, [r7, #-621]	; 0xfffffd93
    1094:	30000000 	andcc	r0, r0, r0
    1098:	000a4f18 	andeq	r4, sl, r8, lsl pc
    109c:	026e0700 	rsbeq	r0, lr, #0, 14
    10a0:	0008c716 	andeq	ip, r8, r6, lsl r7
    10a4:	b2183400 	andslt	r3, r8, #0, 8
    10a8:	07000002 	streq	r0, [r0, -r2]
    10ac:	25070270 	strcs	r0, [r7, #-624]	; 0xfffffd90
    10b0:	38000000 	stmdacc	r0, {}	; <UNPREDICTABLE>
    10b4:	0003e118 	andeq	lr, r3, r8, lsl r1
    10b8:	02720700 	rsbseq	r0, r2, #0, 14
    10bc:	0008d80a 	andeq	sp, r8, sl, lsl #16
    10c0:	57183c00 	ldrpl	r3, [r8, -r0, lsl #24]
    10c4:	07000002 	streq	r0, [r0, -r2]
    10c8:	a7130275 			; <UNDEFINED> instruction: 0xa7130275
    10cc:	40000001 	andmi	r0, r0, r1
    10d0:	0001c718 	andeq	ip, r1, r8, lsl r7
    10d4:	02760700 	rsbseq	r0, r6, #0, 14
    10d8:	00002507 	andeq	r2, r0, r7, lsl #10
    10dc:	24184400 	ldrcs	r4, [r8], #-1024	; 0xfffffc00
    10e0:	07000005 	streq	r0, [r0, -r5]
    10e4:	a7130277 			; <UNDEFINED> instruction: 0xa7130277
    10e8:	48000001 	stmdami	r0, {r0}
    10ec:	0002c418 	andeq	ip, r2, r8, lsl r4
    10f0:	02780700 	rsbseq	r0, r8, #0, 14
    10f4:	0008de14 	andeq	sp, r8, r4, lsl lr
    10f8:	00184c00 	andseq	r4, r8, r0, lsl #24
    10fc:	07000002 	streq	r0, [r0, -r2]
    1100:	2507027b 	strcs	r0, [r7, #-635]	; 0xfffffd85
    1104:	50000000 	andpl	r0, r0, r0
    1108:	00014618 	andeq	r4, r1, r8, lsl r6
    110c:	027c0700 	rsbseq	r0, ip, #0, 14
    1110:	00012f09 	andeq	r2, r1, r9, lsl #30
    1114:	ea185400 	b	61611c <__bss_end__+0x60c04c>
    1118:	07000002 	streq	r0, [r0, -r2]
    111c:	8d07029f 	sfmhi	f0, 4, [r7, #-636]	; 0xfffffd84
    1120:	58000008 	stmdapl	r0, {r3}
    1124:	0002aa19 	andeq	sl, r2, r9, lsl sl
    1128:	02a30700 	adceq	r0, r3, #0, 14
    112c:	0002d813 	andeq	sp, r2, r3, lsl r8
    1130:	19014800 	stmdbne	r1, {fp, lr}
    1134:	00000235 	andeq	r0, r0, r5, lsr r2
    1138:	1202a407 	andne	sl, r2, #117440512	; 0x7000000
    113c:	00000295 	muleq	r0, r5, r2
    1140:	d019014c 	andsle	r0, r9, ip, asr #2
    1144:	07000004 	streq	r0, [r0, -r4]
    1148:	ef0c02a8 	svc	0x000c02a8
    114c:	dc000008 	stcle	0, cr0, [r0], {8}
    1150:	01171902 	tsteq	r7, r2, lsl #18
    1154:	ad070000 	stcge	0, cr0, [r7, #-0]
    1158:	06731002 	ldrbteq	r1, [r3], -r2
    115c:	02e00000 	rsceq	r0, r0, #0
    1160:	0000fc19 	andeq	pc, r0, r9, lsl ip	; <UNPREDICTABLE>
    1164:	02af0700 	adceq	r0, pc, #0, 14
    1168:	0008fb0a 	andeq	pc, r8, sl, lsl #22
    116c:	0002ec00 	andeq	lr, r2, r0, lsl #24
    1170:	04660405 	strbteq	r0, [r6], #-1029	; 0xfffffbfb
    1174:	25150000 	ldrcs	r0, [r5, #-0]
    1178:	fc000000 	stc2	0, cr0, [r0], {-0}
    117c:	16000005 	strne	r0, [r0], -r5
    1180:	00000484 	andeq	r0, r0, r4, lsl #9
    1184:	00012d16 	andeq	r2, r1, r6, lsl sp
    1188:	05fc1600 	ldrbeq	r1, [ip, #1536]!	; 0x600
    118c:	25160000 	ldrcs	r0, [r6, #-0]
    1190:	00000000 	andeq	r0, r0, r0
    1194:	013c0405 	teqeq	ip, r5, lsl #8
    1198:	04050000 	streq	r0, [r5], #-0
    119c:	000005de 	ldrdeq	r0, [r0], -lr
    11a0:	0000a615 	andeq	sl, r0, r5, lsl r6
    11a4:	00062600 	andeq	r2, r6, r0, lsl #12
    11a8:	04841600 	streq	r1, [r4], #1536	; 0x600
    11ac:	2d160000 	ldccs	0, cr0, [r6, #-0]
    11b0:	16000001 	strne	r0, [r0], -r1
    11b4:	000000a6 	andeq	r0, r0, r6, lsr #1
    11b8:	00002516 	andeq	r2, r0, r6, lsl r5
    11bc:	04050000 	streq	r0, [r5], #-0
    11c0:	00000608 	andeq	r0, r0, r8, lsl #12
    11c4:	00002515 	andeq	r2, r0, r5, lsl r5
    11c8:	00064000 	andeq	r4, r6, r0
    11cc:	04841600 	streq	r1, [r4], #1536	; 0x600
    11d0:	2d160000 	ldccs	0, cr0, [r6, #-0]
    11d4:	00000001 	andeq	r0, r0, r1
    11d8:	062c0405 	strteq	r0, [ip], -r5, lsl #8
    11dc:	5b0a0000 	blpl	2811e4 <__bss_end__+0x277114>
    11e0:	56000000 	strpl	r0, [r0], -r0
    11e4:	0b000006 	bleq	1204 <_start-0x6dfc>
    11e8:	0000002c 	andeq	r0, r0, ip, lsr #32
    11ec:	5b0a0002 	blpl	2811fc <__bss_end__+0x27712c>
    11f0:	66000000 	strvs	r0, [r0], -r0
    11f4:	0b000006 	bleq	1214 <_start-0x6dec>
    11f8:	0000002c 	andeq	r0, r0, ip, lsr #32
    11fc:	9c070000 	stcls	0, cr0, [r7], {-0}
    1200:	07000003 	streq	r0, [r0, -r3]
    1204:	231a011f 	tstcs	sl, #-1073741817	; 0xc0000007
    1208:	1a000003 	bne	121c <_start-0x6de4>
    120c:	000004b7 			; <UNDEFINED> instruction: 0x000004b7
    1210:	0123070c 			; <UNDEFINED> instruction: 0x0123070c
    1214:	0006ac08 	andeq	sl, r6, r8, lsl #24
    1218:	03c41800 	biceq	r1, r4, #0, 16
    121c:	25070000 	strcs	r0, [r7, #-0]
    1220:	06ac1101 	strteq	r1, [ip], r1, lsl #2
    1224:	18000000 	stmdane	r0, {}	; <UNPREDICTABLE>
    1228:	0000021b 	andeq	r0, r0, fp, lsl r2
    122c:	07012607 	streq	r2, [r1, -r7, lsl #12]
    1230:	00000025 	andeq	r0, r0, r5, lsr #32
    1234:	03961804 	orrseq	r1, r6, #4, 16	; 0x40000
    1238:	27070000 	strcs	r0, [r7, -r0]
    123c:	06b20b01 	ldrteq	r0, [r2], r1, lsl #22
    1240:	00080000 	andeq	r0, r8, r0
    1244:	06730405 	ldrbteq	r0, [r3], -r5, lsl #8
    1248:	04050000 	streq	r0, [r5], #-0
    124c:	00000666 	andeq	r0, r0, r6, ror #12
    1250:	0000211a 	andeq	r2, r0, sl, lsl r1
    1254:	3f070e00 	svccc	0x00070e00
    1258:	06f10801 	ldrbteq	r0, [r1], r1, lsl #16
    125c:	13180000 	tstne	r8, #0
    1260:	07000004 	streq	r0, [r0, -r4]
    1264:	f1120140 			; <UNDEFINED> instruction: 0xf1120140
    1268:	00000006 	andeq	r0, r0, r6
    126c:	00044718 	andeq	r4, r4, r8, lsl r7
    1270:	01410700 	cmpeq	r1, r0, lsl #14
    1274:	0006f112 	andeq	pc, r6, r2, lsl r1	; <UNPREDICTABLE>
    1278:	63180600 	tstvs	r8, #0, 12
    127c:	07000004 	streq	r0, [r0, -r4]
    1280:	62120142 	andsvs	r0, r2, #-2147483632	; 0x80000010
    1284:	0c000000 	stceq	0, cr0, [r0], {-0}
    1288:	00620a00 	rsbeq	r0, r2, r0, lsl #20
    128c:	07010000 	streq	r0, [r1, -r0]
    1290:	2c0b0000 	stccs	0, cr0, [fp], {-0}
    1294:	02000000 	andeq	r0, r0, #0
    1298:	07d01b00 	ldrbeq	r1, [r0, r0, lsl #22]
    129c:	16070280 	strne	r0, [r7], -r0, lsl #5
    12a0:	18000008 	stmdane	r0, {r3}
    12a4:	0000049b 	muleq	r0, fp, r4
    12a8:	18028207 	stmdane	r2, {r0, r1, r2, r9, pc}
    12ac:	0000002c 	andeq	r0, r0, ip, lsr #32
    12b0:	044d1800 	strbeq	r1, [sp], #-2048	; 0xfffff800
    12b4:	83070000 	movwhi	r0, #28672	; 0x7000
    12b8:	012f1202 			; <UNDEFINED> instruction: 0x012f1202
    12bc:	18040000 	stmdane	r4, {}	; <UNPREDICTABLE>
    12c0:	0000024a 	andeq	r0, r0, sl, asr #4
    12c4:	10028407 	andne	r8, r2, r7, lsl #8
    12c8:	00000816 	andeq	r0, r0, r6, lsl r8
    12cc:	04fb1808 	ldrbteq	r1, [fp], #2056	; 0x808
    12d0:	85070000 	strhi	r0, [r7, #-0]
    12d4:	01bd1702 			; <UNDEFINED> instruction: 0x01bd1702
    12d8:	18240000 	stmdane	r4!, {}	; <UNPREDICTABLE>
    12dc:	000001b8 			; <UNDEFINED> instruction: 0x000001b8
    12e0:	0f028607 	svceq	0x00028607
    12e4:	00000025 	andeq	r0, r0, r5, lsr #32
    12e8:	03bf1848 			; <UNDEFINED> instruction: 0x03bf1848
    12ec:	87070000 	strhi	r0, [r7, -r0]
    12f0:	007c2c02 	rsbseq	r2, ip, r2, lsl #24
    12f4:	18500000 	ldmdane	r0, {}^	; <UNPREDICTABLE>
    12f8:	00000511 	andeq	r0, r0, r1, lsl r5
    12fc:	1a028807 	bne	a3320 <__bss_end__+0x99250>
    1300:	000006b8 			; <UNDEFINED> instruction: 0x000006b8
    1304:	03ca1858 	biceq	r1, sl, #88, 16	; 0x580000
    1308:	89070000 	stmdbhi	r7, {}	; <UNPREDICTABLE>
    130c:	01151602 	tsteq	r5, r2, lsl #12
    1310:	18680000 	stmdane	r8!, {}^	; <UNPREDICTABLE>
    1314:	00000516 	andeq	r0, r0, r6, lsl r5
    1318:	16028a07 	strne	r8, [r2], -r7, lsl #20
    131c:	00000115 	andeq	r0, r0, r5, lsl r1
    1320:	02ce1870 	sbceq	r1, lr, #112, 16	; 0x700000
    1324:	8b070000 	blhi	1c132c <__bss_end__+0x1b725c>
    1328:	01151602 	tsteq	r5, r2, lsl #12
    132c:	18780000 	ldmdane	r8!, {}^	; <UNPREDICTABLE>
    1330:	000004c6 	andeq	r0, r0, r6, asr #9
    1334:	10028c07 	andne	r8, r2, r7, lsl #24
    1338:	00000826 	andeq	r0, r0, r6, lsr #16
    133c:	023e1880 	eorseq	r1, lr, #128, 16	; 0x800000
    1340:	8d070000 	stchi	0, cr0, [r7, #-0]
    1344:	08361002 	ldmdaeq	r6!, {r1, ip}
    1348:	18880000 	stmne	r8, {}	; <UNPREDICTABLE>
    134c:	00000470 	andeq	r0, r0, r0, ror r4
    1350:	0f028e07 	svceq	0x00028e07
    1354:	00000025 	andeq	r0, r0, r5, lsr #32
    1358:	017e18a0 	cmneq	lr, r0, lsr #17
    135c:	8f070000 	svchi	0x00070000
    1360:	01151602 	tsteq	r5, r2, lsl #12
    1364:	18a40000 	stmiane	r4!, {}	; <UNPREDICTABLE>
    1368:	0000008f 	andeq	r0, r0, pc, lsl #1
    136c:	16029007 	strne	r9, [r2], -r7
    1370:	00000115 	andeq	r0, r0, r5, lsl r1
    1374:	016d18ac 	cmneq	sp, ip, lsr #17
    1378:	91070000 	mrsls	r0, (UNDEF: 7)
    137c:	01151602 	tsteq	r5, r2, lsl #12
    1380:	18b40000 	ldmne	r4!, {}	; <UNPREDICTABLE>
    1384:	0000003c 	andeq	r0, r0, ip, lsr r0
    1388:	16029207 	strne	r9, [r2], -r7, lsl #4
    138c:	00000115 	andeq	r0, r0, r5, lsl r1
    1390:	004b18bc 	strheq	r1, [fp], #-140	; 0xffffff74
    1394:	93070000 	movwls	r0, #28672	; 0x7000
    1398:	01151602 	tsteq	r5, r2, lsl #12
    139c:	18c40000 	stmiane	r4, {}^	; <UNPREDICTABLE>
    13a0:	0000036e 	andeq	r0, r0, lr, ror #6
    13a4:	08029407 	stmdaeq	r2, {r0, r1, r2, sl, ip, pc}
    13a8:	00000025 	andeq	r0, r0, r5, lsr #32
    13ac:	350a00cc 	strcc	r0, [sl, #-204]	; 0xffffff34
    13b0:	26000001 	strcs	r0, [r0], -r1
    13b4:	0b000008 	bleq	13dc <_start-0x6c24>
    13b8:	0000002c 	andeq	r0, r0, ip, lsr #32
    13bc:	350a0019 	strcc	r0, [sl, #-25]	; 0xffffffe7
    13c0:	36000001 	strcc	r0, [r0], -r1
    13c4:	0b000008 	bleq	13ec <_start-0x6c14>
    13c8:	0000002c 	andeq	r0, r0, ip, lsr #32
    13cc:	350a0007 	strcc	r0, [sl, #-7]
    13d0:	46000001 	strmi	r0, [r0], -r1
    13d4:	0b000008 	bleq	13fc <_start-0x6c04>
    13d8:	0000002c 	andeq	r0, r0, ip, lsr #32
    13dc:	f01b0017 			; <UNDEFINED> instruction: 0xf01b0017
    13e0:	07029907 	streq	r9, [r2, -r7, lsl #18]
    13e4:	0000086d 	andeq	r0, r0, sp, ror #16
    13e8:	00029a18 	andeq	r9, r2, r8, lsl sl
    13ec:	029c0700 	addseq	r0, ip, #0, 14
    13f0:	00086d1b 	andeq	r6, r8, fp, lsl sp
    13f4:	bd180000 	ldclt	0, cr0, [r8, #-0]
    13f8:	07000004 	streq	r0, [r0, -r4]
    13fc:	7d18029d 	lfmvc	f0, 4, [r8, #-628]	; 0xfffffd8c
    1400:	78000008 	stmdavc	r0, {r3}
    1404:	031d0a00 	tsteq	sp, #0, 20
    1408:	087d0000 	ldmdaeq	sp!, {}^	; <UNPREDICTABLE>
    140c:	2c0b0000 	stccs	0, cr0, [fp], {-0}
    1410:	1d000000 	stcne	0, cr0, [r0, #-0]
    1414:	002c0a00 	eoreq	r0, ip, r0, lsl #20
    1418:	088d0000 	stmeq	sp, {}	; <UNPREDICTABLE>
    141c:	2c0b0000 	stccs	0, cr0, [fp], {-0}
    1420:	1d000000 	stcne	0, cr0, [r0, #-0]
    1424:	07f01c00 	ldrbeq	r1, [r0, r0, lsl #24]!
    1428:	b203027e 	andlt	r0, r3, #-536870905	; 0xe0000007
    142c:	1d000008 	stcne	0, cr0, [r0, #-32]	; 0xffffffe0
    1430:	0000040c 	andeq	r0, r0, ip, lsl #8
    1434:	0b029507 	bleq	a6858 <__bss_end__+0x9c788>
    1438:	00000701 	andeq	r0, r0, r1, lsl #14
    143c:	0004e81d 	andeq	lr, r4, sp, lsl r8
    1440:	029e0700 	addseq	r0, lr, #0, 14
    1444:	0008460b 	andeq	r4, r8, fp, lsl #12
    1448:	350a0000 	strcc	r0, [sl, #-0]
    144c:	c2000001 	andgt	r0, r0, #1
    1450:	0b000008 	bleq	1478 <_start-0x6b88>
    1454:	0000002c 	andeq	r0, r0, ip, lsr #32
    1458:	84060018 	strhi	r0, [r6], #-24	; 0xffffffe8
    145c:	05000000 	streq	r0, [r0, #-0]
    1460:	0008c204 	andeq	ip, r8, r4, lsl #4
    1464:	08d81e00 	ldmeq	r8, {r9, sl, fp, ip}^
    1468:	84160000 	ldrhi	r0, [r6], #-0
    146c:	00000004 	andeq	r0, r0, r4
    1470:	08cd0405 	stmiaeq	sp, {r0, r2, sl}^
    1474:	04050000 	streq	r0, [r5], #-0
    1478:	000001a7 	andeq	r0, r0, r7, lsr #3
    147c:	0008ef1e 	andeq	lr, r8, lr, lsl pc
    1480:	00251600 	eoreq	r1, r5, r0, lsl #12
    1484:	05000000 	streq	r0, [r0, #-0]
    1488:	0008f504 	andeq	pc, r8, r4, lsl #10
    148c:	e4040500 	str	r0, [r4], #-1280	; 0xfffffb00
    1490:	0a000008 	beq	14b8 <_start-0x6b48>
    1494:	00000666 	andeq	r0, r0, r6, ror #12
    1498:	0000090b 	andeq	r0, r0, fp, lsl #18
    149c:	00002c0b 	andeq	r2, r0, fp, lsl #24
    14a0:	1f000200 	svcne	0x00000200
    14a4:	00000484 	andeq	r0, r0, r4, lsl #9
    14a8:	17032e07 	strne	r2, [r3, -r7, lsl #28]
    14ac:	00000484 	andeq	r0, r0, r4, lsl #9
    14b0:	00047d1f 	andeq	r7, r4, pc, lsl sp
    14b4:	032f0700 			; <UNDEFINED> instruction: 0x032f0700
    14b8:	00048a1d 	andeq	r8, r4, sp, lsl sl
    14bc:	00251500 	eoreq	r1, r5, r0, lsl #10
    14c0:	09340000 	ldmdbeq	r4!, {}	; <UNPREDICTABLE>
    14c4:	25160000 	ldrcs	r0, [r6, #-0]
    14c8:	00000000 	andeq	r0, r0, r0
    14cc:	0001d120 	andeq	sp, r1, r0, lsr #2
    14d0:	0e1d0800 	cdpeq	8, 1, cr0, cr13, cr0, {0}
    14d4:	00000940 	andeq	r0, r0, r0, asr #18
    14d8:	09250405 	stmdbeq	r5!, {r0, r2, sl}
    14dc:	25150000 	ldrcs	r0, [r5, #-0]
    14e0:	55000000 	strpl	r0, [r0, #-0]
    14e4:	16000009 	strne	r0, [r0], -r9
    14e8:	000005fc 	strdeq	r0, [r0], -ip
    14ec:	078c2000 	streq	r2, [ip, r0]
    14f0:	22080000 	andcs	r0, r8, #0
    14f4:	0009610e 	andeq	r6, r9, lr, lsl #2
    14f8:	46040500 	strmi	r0, [r4], -r0, lsl #10
    14fc:	21000009 	tstcs	r0, r9
    1500:	005b0107 	subseq	r0, fp, r7, lsl #2
    1504:	24020000 	strcs	r0, [r2], #-0
    1508:	0009820e 	andeq	r8, r9, lr, lsl #4
    150c:	05812200 	streq	r2, [r1, #512]	; 0x200
    1510:	220b0000 	andcs	r0, fp, #0
    1514:	0000057b 	andeq	r0, r0, fp, ror r5
    1518:	0c0c000c 	stceq	0, cr0, [ip], {12}
    151c:	b3092602 	movwlt	r2, #38402	; 0x9602
    1520:	0d000009 	stceq	0, cr0, [r0, #-36]	; 0xffffffdc
    1524:	00000209 	andeq	r0, r0, r9, lsl #4
    1528:	fc112702 	ldc2	7, cr2, [r1], {2}
    152c:	00000005 	andeq	r0, r0, r5
    1530:	0004d50d 	andeq	sp, r4, sp, lsl #10
    1534:	11280200 			; <UNDEFINED> instruction: 0x11280200
    1538:	000005fc 	strdeq	r0, [r0], -ip
    153c:	05450d04 	strbeq	r0, [r5, #-3332]	; 0xfffff2fc
    1540:	29020000 	stmdbcs	r2, {}	; <UNPREDICTABLE>
    1544:	00002c0e 	andeq	r2, r0, lr, lsl #24
    1548:	04000800 	streq	r0, [r0], #-2048	; 0xfffff800
    154c:	00000657 	andeq	r0, r0, r7, asr r6
    1550:	82032a02 	andhi	r2, r3, #8192	; 0x2000
    1554:	10000009 	andne	r0, r0, r9
    1558:	000006d2 	ldrdeq	r0, [r0], -r2
    155c:	102d0238 	eorne	r0, sp, r8, lsr r2
    1560:	00000a4f 	andeq	r0, r0, pc, asr #20
    1564:	0006130d 	andeq	r1, r6, sp, lsl #6
    1568:	0e2e0200 	cdpeq	2, 2, cr0, cr14, cr0, {0}
    156c:	00000069 	andeq	r0, r0, r9, rrx
    1570:	06b80d00 	ldrteq	r0, [r8], r0, lsl #26
    1574:	2f020000 	svccs	0x00020000
    1578:	0000690e 	andeq	r6, r0, lr, lsl #18
    157c:	d60d0400 	strle	r0, [sp], -r0, lsl #8
    1580:	02000002 	andeq	r0, r0, #2
    1584:	00690e30 	rsbeq	r0, r9, r0, lsr lr
    1588:	0d080000 	stceq	0, cr0, [r8, #-0]
    158c:	0000060d 	andeq	r0, r0, sp, lsl #12
    1590:	690e3402 	stmdbvs	lr, {r1, sl, ip, sp}
    1594:	0c000000 	stceq	0, cr0, [r0], {-0}
    1598:	0005ff0d 	andeq	pc, r5, sp, lsl #30
    159c:	0f360200 	svceq	0x00360200
    15a0:	000009b3 			; <UNDEFINED> instruction: 0x000009b3
    15a4:	05680d10 	strbeq	r0, [r8, #-3344]!	; 0xfffff2f0
    15a8:	37020000 	strcc	r0, [r2, -r0]
    15ac:	0009b30f 	andeq	fp, r9, pc, lsl #6
    15b0:	950d1c00 	strls	r1, [sp, #-3072]	; 0xfffff400
    15b4:	02000005 	andeq	r0, r0, #5
    15b8:	00690e3b 	rsbeq	r0, r9, fp, lsr lr
    15bc:	0d280000 	stceq	0, cr0, [r8, #-0]
    15c0:	00000589 	andeq	r0, r0, r9, lsl #11
    15c4:	690e3c02 	stmdbvs	lr, {r1, sl, fp, ip, sp}
    15c8:	2c000000 	stccs	0, cr0, [r0], {-0}
    15cc:	0005590d 	andeq	r5, r5, sp, lsl #18
    15d0:	153f0200 	ldrne	r0, [pc, #-512]!	; 13d8 <_start-0x6c28>
    15d4:	00000a4f 	andeq	r0, r0, pc, asr #20
    15d8:	053d0d30 	ldreq	r0, [sp, #-3376]!	; 0xfffff2d0
    15dc:	41020000 	mrsmi	r0, (UNDEF: 2)
    15e0:	0000690e 	andeq	r6, r0, lr, lsl #18
    15e4:	05003400 	streq	r3, [r0, #-1024]	; 0xfffffc00
    15e8:	0009bf04 	andeq	fp, r9, r4, lsl #30
    15ec:	06b20400 	ldrteq	r0, [r2], r0, lsl #8
    15f0:	42020000 	andmi	r0, r2, #0
    15f4:	0009bf03 	andeq	fp, r9, r3, lsl #30
    15f8:	02072100 	andeq	r2, r7, #0, 2
    15fc:	00000062 	andeq	r0, r0, r2, rrx
    1600:	89066202 	stmdbhi	r6, {r1, r9, sp, lr}
    1604:	2200000a 	andcs	r0, r0, #10
    1608:	00000681 	andeq	r0, r0, r1, lsl #13
    160c:	05b822fe 	ldreq	r2, [r8, #766]!	; 0x2fe
    1610:	22800000 	addcs	r0, r0, #0
    1614:	000005c0 	andeq	r0, r0, r0, asr #11
    1618:	05a823b8 	streq	r2, [r8, #952]!	; 0x3b8
    161c:	01380000 	teqeq	r8, r0
    1620:	067c2400 	ldrbteq	r2, [ip], -r0, lsl #8
    1624:	07010000 	streq	r0, [r1, -r0]
    1628:	000a9b11 	andeq	r9, sl, r1, lsl fp
    162c:	c4030500 	strgt	r0, [r3], #-1280	; 0xfffffb00
    1630:	0500009c 	streq	r0, [r0, #-156]	; 0xffffff64
    1634:	00004f04 	andeq	r4, r0, r4, lsl #30
    1638:	0c672400 	cfstrdeq	mvd2, [r7], #-0
    163c:	07010000 	streq	r0, [r1, -r0]
    1640:	000a9b1c 	andeq	r9, sl, ip, lsl fp
    1644:	c8030500 	stmdagt	r3, {r8, sl}
    1648:	2400009c 	strcs	r0, [r0], #-156	; 0xffffff64
    164c:	00000c4e 	andeq	r0, r0, lr, asr #24
    1650:	9b270701 	blls	9c325c <__bss_end__+0x9b918c>
    1654:	0500000a 	streq	r0, [r0, #-10]
    1658:	009cc003 	addseq	ip, ip, r3
    165c:	000c2500 	andeq	r2, ip, r0, lsl #10
    1660:	b4010000 	strlt	r0, [r1], #-0
    1664:	00002505 	andeq	r2, r0, r5, lsl #10
    1668:	00888c00 	addeq	r8, r8, r0, lsl #24
    166c:	00014400 	andeq	r4, r1, r0, lsl #8
    1670:	b79c0100 	ldrlt	r0, [ip, r0, lsl #2]
    1674:	2600000c 	strcs	r0, [r0], -ip
    1678:	000005a0 	andeq	r0, r0, r0, lsr #11
    167c:	2c0eb501 	cfstr32cs	mvfx11, [lr], {1}
    1680:	46000000 	strmi	r0, [r0], -r0
    1684:	44000000 	strmi	r0, [r0], #-0
    1688:	26000000 	strcs	r0, [r0], -r0
    168c:	000006c3 	andeq	r0, r0, r3, asr #13
    1690:	2c0eb601 	stccs	6, cr11, [lr], {1}
    1694:	5b000000 	blpl	169c <_start-0x6964>
    1698:	59000000 	stmdbpl	r0, {}	; <UNPREDICTABLE>
    169c:	26000000 	strcs	r0, [r0], -r0
    16a0:	0000066a 	andeq	r0, r0, sl, ror #12
    16a4:	2c0eba01 			; <UNDEFINED> instruction: 0x2c0eba01
    16a8:	72000000 	andvc	r0, r0, #0
    16ac:	6e000000 	cdpvs	0, 0, cr0, cr0, cr0, {0}
    16b0:	26000000 	strcs	r0, [r0], -r0
    16b4:	00000651 	andeq	r0, r0, r1, asr r6
    16b8:	2c0ebb01 			; <UNDEFINED> instruction: 0x2c0ebb01
    16bc:	95000000 	strls	r0, [r0, #-0]
    16c0:	91000000 	mrsls	r0, (UNDEF: 0)
    16c4:	27000000 	strcs	r0, [r0, -r0]
    16c8:	00000048 	andeq	r0, r0, r8, asr #32
    16cc:	00000c12 	andeq	r0, r0, r2, lsl ip
    16d0:	00069026 	andeq	r9, r6, r6, lsr #32
    16d4:	11be0100 			; <UNDEFINED> instruction: 0x11be0100
    16d8:	00000cb7 			; <UNDEFINED> instruction: 0x00000cb7
    16dc:	000000bc 	strheq	r0, [r0], -ip
    16e0:	000000b4 	strheq	r0, [r0], -r4
    16e4:	0088c428 	addeq	ip, r8, r8, lsr #8
    16e8:	000d0e00 	andeq	r0, sp, r0, lsl #28
    16ec:	89142900 	ldmdbhi	r4, {r8, fp, sp}
    16f0:	0cbd0000 	ldceq	0, cr0, [sp]
    16f4:	0b690000 	bleq	1a416fc <__bss_end__+0x1a3762c>
    16f8:	012a0000 			; <UNDEFINED> instruction: 0x012a0000
    16fc:	00740250 	rsbseq	r0, r4, r0, asr r2
    1700:	89282900 	stmdbhi	r8!, {r8, fp, sp}
    1704:	16760000 	ldrbtne	r0, [r6], -r0
    1708:	0b7d0000 	bleq	1f41710 <__bss_end__+0x1f37640>
    170c:	012a0000 			; <UNDEFINED> instruction: 0x012a0000
    1710:	00740250 	rsbseq	r0, r4, r0, asr r2
    1714:	89382900 	ldmdbhi	r8!, {r8, fp, sp}
    1718:	18f50000 	ldmne	r5!, {}^	; <UNPREDICTABLE>
    171c:	0b910000 	bleq	fe441724 <__bss_end__+0xfe437654>
    1720:	012a0000 			; <UNDEFINED> instruction: 0x012a0000
    1724:	00740250 	rsbseq	r0, r4, r0, asr r2
    1728:	89442900 	stmdbhi	r4, {r8, fp, sp}^
    172c:	14e80000 	strbtne	r0, [r8], #0
    1730:	0bab0000 	bleq	feac1738 <__bss_end__+0xfeab7668>
    1734:	012a0000 			; <UNDEFINED> instruction: 0x012a0000
    1738:	80080251 	andhi	r0, r8, r1, asr r2
    173c:	0252012a 	subseq	r0, r2, #-2147483638	; 0x8000000a
    1740:	29000074 	stmdbcs	r0, {r2, r4, r5, r6}
    1744:	00008954 	andeq	r8, r0, r4, asr r9
    1748:	0000187a 	andeq	r1, r0, sl, ror r8
    174c:	00000bbf 			; <UNDEFINED> instruction: 0x00000bbf
    1750:	0250012a 	subseq	r0, r0, #-2147483638	; 0x8000000a
    1754:	29000074 	stmdbcs	r0, {r2, r4, r5, r6}
    1758:	00008960 	andeq	r8, r0, r0, ror #18
    175c:	0000184d 	andeq	r1, r0, sp, asr #16
    1760:	00000bd3 	ldrdeq	r0, [r0], -r3
    1764:	0250012a 	subseq	r0, r0, #-2147483638	; 0x8000000a
    1768:	29000074 	stmdbcs	r0, {r2, r4, r5, r6}
    176c:	00008970 	andeq	r8, r0, r0, ror r9
    1770:	000014e8 	andeq	r1, r0, r8, ror #9
    1774:	00000bed 	andeq	r0, r0, sp, ror #23
    1778:	0250012a 	subseq	r0, r0, #-2147483638	; 0x8000000a
    177c:	012a0077 			; <UNDEFINED> instruction: 0x012a0077
    1780:	00740252 	rsbseq	r0, r4, r2, asr r2
    1784:	898c2900 	stmibhi	ip, {r8, fp, sp}
    1788:	18b70000 	ldmne	r7!, {}	; <UNPREDICTABLE>
    178c:	0c010000 	stceq	0, cr0, [r1], {-0}
    1790:	012a0000 			; <UNDEFINED> instruction: 0x012a0000
    1794:	00740250 	rsbseq	r0, r4, r0, asr r2
    1798:	89982b00 	ldmibhi	r8, {r8, r9, fp, sp}
    179c:	13290000 			; <UNDEFINED> instruction: 0x13290000
    17a0:	012a0000 			; <UNDEFINED> instruction: 0x012a0000
    17a4:	00740252 	rsbseq	r0, r4, r2, asr r2
    17a8:	b0290000 	eorlt	r0, r9, r0
    17ac:	f9000088 			; <UNDEFINED> instruction: 0xf9000088
    17b0:	29000019 	stmdbcs	r0, {r0, r3, r4}
    17b4:	2a00000c 	bcs	17ec <_start-0x6814>
    17b8:	03055001 	movweq	r5, #20481	; 0x5001
    17bc:	00009760 	andeq	r9, r0, r0, ror #14
    17c0:	88c02900 	stmiahi	r0, {r8, fp, sp}^
    17c4:	19f90000 	ldmibne	r9!, {}^	; <UNPREDICTABLE>
    17c8:	0c4c0000 	mareq	acc0, r0, ip
    17cc:	012a0000 			; <UNDEFINED> instruction: 0x012a0000
    17d0:	e8030550 	stmda	r3, {r4, r6, r8, sl}
    17d4:	2a000099 	bcs	1a40 <_start-0x65c0>
    17d8:	74025101 	strvc	r5, [r2], #-257	; 0xfffffeff
    17dc:	52012a00 	andpl	r2, r1, #0, 20
    17e0:	00007502 	andeq	r7, r0, r2, lsl #10
    17e4:	0088ec29 	addeq	lr, r8, r9, lsr #24
    17e8:	0019f900 	andseq	pc, r9, r0, lsl #18
    17ec:	000c6300 	andeq	r6, ip, r0, lsl #6
    17f0:	50012a00 	andpl	r2, r1, r0, lsl #20
    17f4:	97600305 	strbls	r0, [r0, -r5, lsl #6]!
    17f8:	29000000 	stmdbcs	r0, {}	; <UNPREDICTABLE>
    17fc:	000088fc 	strdeq	r8, [r0], -ip
    1800:	000019f9 	strdeq	r1, [r0], -r9
    1804:	00000c86 	andeq	r0, r0, r6, lsl #25
    1808:	0550012a 	ldrbeq	r0, [r0, #-298]	; 0xfffffed6
    180c:	009a2003 	addseq	r2, sl, r3
    1810:	51012a00 	tstpl	r1, r0, lsl #20
    1814:	2a007502 	bcs	1ec24 <__bss_end__+0x14b54>
    1818:	76025201 	strvc	r5, [r2], -r1, lsl #4
    181c:	ac290000 	stcge	0, cr0, [r9], #-0
    1820:	f9000089 			; <UNDEFINED> instruction: 0xf9000089
    1824:	9d000019 	stcls	0, cr0, [r0, #-100]	; 0xffffff9c
    1828:	2a00000c 	bcs	1860 <_start-0x67a0>
    182c:	03055001 	movweq	r5, #20481	; 0x5001
    1830:	00009760 	andeq	r9, r0, r0, ror #14
    1834:	89b82b00 	ldmibhi	r8!, {r8, r9, fp, sp}
    1838:	19f90000 	ldmibne	r9!, {}^	; <UNPREDICTABLE>
    183c:	012a0000 			; <UNDEFINED> instruction: 0x012a0000
    1840:	48030550 	stmdami	r3, {r4, r6, r8, sl}
    1844:	2a00009a 	bcs	1ab4 <_start-0x654c>
    1848:	75025101 	strvc	r5, [r2, #-257]	; 0xfffffeff
    184c:	05000000 	streq	r0, [r0, #-0]
    1850:	000a5504 	andeq	r5, sl, r4, lsl #10
    1854:	05f32500 	ldrbeq	r2, [r3, #1280]!	; 0x500
    1858:	ac010000 	stcge	0, cr0, [r1], {-0}
    185c:	000cb708 	andeq	fp, ip, r8, lsl #14
    1860:	00884000 	addeq	r4, r8, r0
    1864:	00004c00 	andeq	r4, r0, r0, lsl #24
    1868:	0e9c0100 	fmleqe	f0, f4, f0
    186c:	2c00000d 	stccs	0, cr0, [r0], {13}
    1870:	ac010070 	stcge	0, cr0, [r1], {112}	; 0x70
    1874:	000cb71b 	andeq	fp, ip, fp, lsl r7
    1878:	0000f800 	andeq	pc, r0, r0, lsl #16
    187c:	0000f000 	andeq	pc, r0, r0
    1880:	64682d00 	strbtvs	r2, [r8], #-3328	; 0xfffff300
    1884:	ad010072 	stcge	0, cr0, [r1, #-456]	; 0xfffffe38
    1888:	000cb70c 	andeq	fp, ip, ip, lsl #14
    188c:	00013600 	andeq	r3, r1, r0, lsl #12
    1890:	00013200 	andeq	r3, r1, r0, lsl #4
    1894:	88702b00 	ldmdahi	r0!, {r8, r9, fp, sp}^
    1898:	16760000 	ldrbtne	r0, [r6], -r0
    189c:	012a0000 			; <UNDEFINED> instruction: 0x012a0000
    18a0:	00740250 	rsbseq	r0, r4, r0, asr r2
    18a4:	4c250000 	stcmi	0, cr0, [r5], #-0
    18a8:	01000005 	tsteq	r0, r5
    18ac:	0cb708a7 	ldceq	8, cr0, [r7], #668	; 0x29c
    18b0:	88100000 	ldmdahi	r0, {}	; <UNPREDICTABLE>
    18b4:	00300000 	eorseq	r0, r0, r0
    18b8:	9c010000 	stcls	0, cr0, [r1], {-0}
    18bc:	00000d4d 	andeq	r0, r0, sp, asr #26
    18c0:	7264682d 	rsbvc	r6, r4, #2949120	; 0x2d0000
    18c4:	0ca80100 	stfeqs	f0, [r8]
    18c8:	00000cb7 			; <UNDEFINED> instruction: 0x00000cb7
    18cc:	00000158 	andeq	r0, r0, r8, asr r1
    18d0:	00000154 	andeq	r0, r0, r4, asr r1
    18d4:	0088242b 	addeq	r2, r8, fp, lsr #8
    18d8:	00167600 	andseq	r7, r6, r0, lsl #12
    18dc:	50012a00 	andpl	r2, r1, r0, lsl #20
    18e0:	00007402 	andeq	r7, r0, r2, lsl #8
    18e4:	00732500 	rsbseq	r2, r3, r0, lsl #10
    18e8:	83010000 	movwhi	r0, #4096	; 0x1000
    18ec:	00012d08 	andeq	r2, r1, r8, lsl #26
    18f0:	0085f400 	addeq	pc, r5, r0, lsl #8
    18f4:	00021c00 	andeq	r1, r2, r0, lsl #24
    18f8:	a19c0100 	orrsge	r0, ip, r0, lsl #2
    18fc:	2e000010 	mcrcs	0, 0, r0, cr0, cr0, {0}
    1900:	000006a3 	andeq	r0, r0, r3, lsr #13
    1904:	691a8301 	ldmdbvs	sl, {r0, r8, r9, pc}
    1908:	80000000 	andhi	r0, r0, r0
    190c:	76000001 	strvc	r0, [r0], -r1
    1910:	2e000001 	cdpcs	0, 0, cr0, cr0, cr1, {0}
    1914:	00000209 	andeq	r0, r0, r9, lsl #4
    1918:	fc2e8301 	stc2	3, cr8, [lr], #-4
    191c:	cc000005 	stcgt	0, cr0, [r0], {5}
    1920:	c2000001 	andgt	r0, r0, #1
    1924:	2e000001 	cdpcs	0, 0, cr0, cr0, cr1, {0}
    1928:	000004d5 	ldrdeq	r0, [r0], -r5
    192c:	fc408301 	mcrr2	3, 0, r8, r0, cr1
    1930:	18000005 	stmdane	r0, {r0, r2}
    1934:	0e000002 	cdpeq	0, 0, cr0, cr0, cr2, {0}
    1938:	2e000002 	cdpcs	0, 0, cr0, cr0, cr2, {0}
    193c:	00000545 	andeq	r0, r0, r5, asr #10
    1940:	2c4f8301 	mcrrcs	3, 0, r8, pc, cr1
    1944:	64000000 	strvs	r0, [r0], #-0
    1948:	5a000002 	bpl	1958 <_start-0x66a8>
    194c:	2d000002 	stccs	0, cr0, [r0, #-8]
    1950:	84010068 	strhi	r0, [r1], #-104	; 0xffffff98
    1954:	000cb70c 	andeq	fp, ip, ip, lsl #14
    1958:	0002b100 	andeq	fp, r2, r0, lsl #2
    195c:	0002a900 	andeq	sl, r2, r0, lsl #18
    1960:	74702d00 	ldrbtvc	r2, [r0], #-3328	; 0xfffff300
    1964:	85010072 	strhi	r0, [r1, #-114]	; 0xffffff8e
    1968:	00012d0b 	andeq	r2, r1, fp, lsl #26
    196c:	0002ef00 	andeq	lr, r2, r0, lsl #30
    1970:	0002e700 	andeq	lr, r2, r0, lsl #14
    1974:	020e2f00 	andeq	r2, lr, #0, 30
    1978:	10b10000 	adcsne	r0, r1, r0
    197c:	03050000 	movweq	r0, #20480	; 0x5000
    1980:	00009a88 	andeq	r9, r0, r8, lsl #21
    1984:	746f742d 	strbtvc	r7, [pc], #-1069	; 198c <_start-0x6674>
    1988:	0e8a0100 	rmfeqe	f0, f2, f0
    198c:	0000002c 	andeq	r0, r0, ip, lsr #32
    1990:	00000331 	andeq	r0, r0, r1, lsr r3
    1994:	00000325 	andeq	r0, r0, r5, lsr #6
    1998:	01006e2d 	tsteq	r0, sp, lsr #28
    199c:	002c0e8b 	eoreq	r0, ip, fp, lsl #29
    19a0:	03880000 	orreq	r0, r8, #0
    19a4:	03840000 	orreq	r0, r4, #0
    19a8:	24290000 	strtcs	r0, [r9], #-0
    19ac:	f9000086 			; <UNDEFINED> instruction: 0xf9000086
    19b0:	29000019 	stmdbcs	r0, {r0, r3, r4}
    19b4:	2a00000e 	bcs	19f4 <_start-0x660c>
    19b8:	03055001 	movweq	r5, #20481	; 0x5001
    19bc:	00009760 	andeq	r9, r0, r0, ror #14
    19c0:	86302900 	ldrthi	r2, [r0], -r0, lsl #18
    19c4:	19f90000 	ldmibne	r9!, {}^	; <UNPREDICTABLE>
    19c8:	0e460000 	cdpeq	0, 4, cr0, cr6, cr0, {0}
    19cc:	012a0000 			; <UNDEFINED> instruction: 0x012a0000
    19d0:	ac030550 	cfstr32ge	mvfx0, [r3], {80}	; 0x50
    19d4:	2a000098 	bcs	1c3c <_start-0x63c4>
    19d8:	75025101 	strvc	r5, [r2, #-257]	; 0xfffffeff
    19dc:	94290000 	strtls	r0, [r9], #-0
    19e0:	f5000086 			; <UNDEFINED> instruction: 0xf5000086
    19e4:	5a000018 	bpl	1a4c <_start-0x65b4>
    19e8:	2a00000e 	bcs	1a28 <_start-0x65d8>
    19ec:	74025001 	strvc	r5, [r2], #-1
    19f0:	9c290000 	stcls	0, cr0, [r9], #-0
    19f4:	ce000086 	cdpgt	0, 0, cr0, cr0, cr6, {4}
    19f8:	6e000012 	mcrvs	0, 0, r0, cr0, cr2, {0}
    19fc:	2a00000e 	bcs	1a3c <_start-0x65c4>
    1a00:	08025101 	stmdaeq	r2, {r0, r8, ip, lr}
    1a04:	a4290080 	strtge	r0, [r9], #-128	; 0xffffff80
    1a08:	7a000086 	bvc	1c28 <_start-0x63d8>
    1a0c:	82000018 	andhi	r0, r0, #24
    1a10:	2a00000e 	bcs	1a50 <_start-0x65b0>
    1a14:	74025001 	strvc	r5, [r2], #-1
    1a18:	b0290000 	eorlt	r0, r9, r0
    1a1c:	4d000086 	stcmi	0, cr0, [r0, #-536]	; 0xfffffde8
    1a20:	96000018 			; <UNDEFINED> instruction: 0x96000018
    1a24:	2a00000e 	bcs	1a64 <_start-0x659c>
    1a28:	74025001 	strvc	r5, [r2], #-1
    1a2c:	bc290000 	stclt	0, cr0, [r9], #-0
    1a30:	ce000086 	cdpgt	0, 0, cr0, cr0, cr6, {4}
    1a34:	aa000012 	bge	1a84 <_start-0x657c>
    1a38:	2a00000e 	bcs	1a78 <_start-0x6588>
    1a3c:	76025001 	strvc	r5, [r2], -r1
    1a40:	c4290000 	strtgt	r0, [r9], #-0
    1a44:	b3000086 	movwlt	r0, #134	; 0x86
    1a48:	be000017 	mcrlt	0, 0, r0, cr0, cr7, {0}
    1a4c:	2a00000e 	bcs	1a8c <_start-0x6574>
    1a50:	74025001 	strvc	r5, [r2], #-1
    1a54:	e0290000 	eor	r0, r9, r0
    1a58:	21000086 	smlabbcs	r0, r6, r0, r0
    1a5c:	d2000012 	andle	r0, r0, #18
    1a60:	2a00000e 	bcs	1aa0 <_start-0x6560>
    1a64:	74025001 	strvc	r5, [r2], #-1
    1a68:	f0290000 			; <UNDEFINED> instruction: 0xf0290000
    1a6c:	b7000086 	strlt	r0, [r0, -r6, lsl #1]
    1a70:	e6000018 			; <UNDEFINED> instruction: 0xe6000018
    1a74:	2a00000e 	bcs	1ab4 <_start-0x654c>
    1a78:	74025001 	strvc	r5, [r2], #-1
    1a7c:	fc290000 	stc2	0, cr0, [r9], #-0
    1a80:	f9000086 			; <UNDEFINED> instruction: 0xf9000086
    1a84:	fd000019 	stc2	0, cr0, [r0, #-100]	; 0xffffff9c
    1a88:	2a00000e 	bcs	1ac8 <_start-0x6538>
    1a8c:	03055001 	movweq	r5, #20481	; 0x5001
    1a90:	00009760 	andeq	r9, r0, r0, ror #14
    1a94:	87102900 	ldrhi	r2, [r0, -r0, lsl #18]
    1a98:	19f90000 	ldmibne	r9!, {}^	; <UNPREDICTABLE>
    1a9c:	0f260000 	svceq	0x00260000
    1aa0:	012a0000 			; <UNDEFINED> instruction: 0x012a0000
    1aa4:	b8030550 	stmdalt	r3, {r4, r6, r8, sl}
    1aa8:	2a000099 	bcs	1d14 <_start-0x62ec>
    1aac:	75025101 	strvc	r5, [r2, #-257]	; 0xfffffeff
    1ab0:	52012a00 	andpl	r2, r1, #0, 20
    1ab4:	2a007902 	bcs	1fec4 <__bss_end__+0x15df4>
    1ab8:	74025301 	strvc	r5, [r2], #-769	; 0xfffffcff
    1abc:	20280000 	eorcs	r0, r8, r0
    1ac0:	05000087 	streq	r0, [r0, #-135]	; 0xffffff79
    1ac4:	2900001a 	stmdbcs	r0, {r1, r3, r4}
    1ac8:	00008734 	andeq	r8, r0, r4, lsr r7
    1acc:	000019f9 	strdeq	r1, [r0], -r9
    1ad0:	00000f5e 	andeq	r0, r0, lr, asr pc
    1ad4:	0550012a 	ldrbeq	r0, [r0, #-298]	; 0xfffffed6
    1ad8:	00986c03 	addseq	r6, r8, r3, lsl #24
    1adc:	51012a00 	tstpl	r1, r0, lsl #20
    1ae0:	981c0305 	ldmdals	ip, {r0, r2, r8, r9}
    1ae4:	012a0000 			; <UNDEFINED> instruction: 0x012a0000
    1ae8:	88030552 	stmdahi	r3, {r1, r4, r6, r8, sl}
    1aec:	2a00009a 	bcs	1d5c <_start-0x62a4>
    1af0:	08025301 	stmdaeq	r2, {r0, r8, r9, ip, lr}
    1af4:	38280087 	stmdacc	r8!, {r0, r1, r2, r7}
    1af8:	11000087 	smlabbne	r0, r7, r0, r0
    1afc:	2900001a 	stmdbcs	r0, {r1, r3, r4}
    1b00:	00008740 	andeq	r8, r0, r0, asr #14
    1b04:	000019f9 	strdeq	r1, [r0], -r9
    1b08:	00000f7e 	andeq	r0, r0, lr, ror pc
    1b0c:	0550012a 	ldrbeq	r0, [r0, #-298]	; 0xfffffed6
    1b10:	0098c403 	addseq	ip, r8, r3, lsl #8
    1b14:	4c290000 	stcmi	0, cr0, [r9], #-0
    1b18:	f9000087 			; <UNDEFINED> instruction: 0xf9000087
    1b1c:	9b000019 	blls	1b88 <_start-0x6478>
    1b20:	2a00000f 	bcs	1b64 <_start-0x649c>
    1b24:	03055001 	movweq	r5, #20481	; 0x5001
    1b28:	000098d0 	ldrdeq	r9, [r0], -r0
    1b2c:	0251012a 	subseq	r0, r1, #-2147483638	; 0x8000000a
    1b30:	28000075 	stmdacs	r0, {r0, r2, r4, r5, r6}
    1b34:	00008750 	andeq	r8, r0, r0, asr r7
    1b38:	00001a05 	andeq	r1, r0, r5, lsl #20
    1b3c:	00876829 	addeq	r6, r7, r9, lsr #16
    1b40:	0019f900 	andseq	pc, r9, r0, lsl #18
    1b44:	000fda00 	andeq	sp, pc, r0, lsl #20
    1b48:	50012a00 	andpl	r2, r1, r0, lsl #20
    1b4c:	98f80305 	ldmls	r8!, {r0, r2, r8, r9}^
    1b50:	012a0000 			; <UNDEFINED> instruction: 0x012a0000
    1b54:	1c030551 	cfstr32ne	mvfx0, [r3], {81}	; 0x51
    1b58:	2a000098 	bcs	1dc0 <_start-0x6240>
    1b5c:	03055201 	movweq	r5, #20993	; 0x5201
    1b60:	00009a88 	andeq	r9, r0, r8, lsl #21
    1b64:	0253012a 	subseq	r0, r3, #-2147483638	; 0x8000000a
    1b68:	022a8f08 	eoreq	r8, sl, #8, 30
    1b6c:	7502007d 	strvc	r0, [r2, #-125]	; 0xffffff83
    1b70:	6c280000 	stcvs	0, cr0, [r8], #-0
    1b74:	11000087 	smlabbne	r0, r7, r0, r0
    1b78:	2900001a 	stmdbcs	r0, {r1, r3, r4}
    1b7c:	00008774 	andeq	r8, r0, r4, ror r7
    1b80:	000019f9 	strdeq	r1, [r0], -r9
    1b84:	00000ffa 	strdeq	r0, [r0], -sl
    1b88:	0550012a 	ldrbeq	r0, [r0, #-298]	; 0xfffffed6
    1b8c:	0098c403 	addseq	ip, r8, r3, lsl #8
    1b90:	90290000 	eorls	r0, r9, r0
    1b94:	f9000087 			; <UNDEFINED> instruction: 0xf9000087
    1b98:	17000019 	smladne	r0, r9, r0, r0
    1b9c:	2a000010 	bcs	1be4 <_start-0x641c>
    1ba0:	03055001 	movweq	r5, #20481	; 0x5001
    1ba4:	00009930 	andeq	r9, r0, r0, lsr r9
    1ba8:	0252012a 	subseq	r0, r2, #-2147483638	; 0x8000000a
    1bac:	28000079 	stmdacs	r0, {r0, r3, r4, r5, r6}
    1bb0:	00008794 	muleq	r0, r4, r7
    1bb4:	00001a05 	andeq	r1, r0, r5, lsl #20
    1bb8:	0087bc29 	addeq	fp, r7, r9, lsr #24
    1bbc:	0019f900 	andseq	pc, r9, r0, lsl #18
    1bc0:	00105600 	andseq	r5, r0, r0, lsl #12
    1bc4:	50012a00 	andpl	r2, r1, r0, lsl #20
    1bc8:	995c0305 	ldmdbls	ip, {r0, r2, r8, r9}^
    1bcc:	012a0000 			; <UNDEFINED> instruction: 0x012a0000
    1bd0:	1c030551 	cfstr32ne	mvfx0, [r3], {81}	; 0x51
    1bd4:	2a000098 	bcs	1e3c <_start-0x61c4>
    1bd8:	03055201 	movweq	r5, #20993	; 0x5201
    1bdc:	00009a88 	andeq	r9, r0, r8, lsl #21
    1be0:	0253012a 	subseq	r0, r3, #-2147483638	; 0x8000000a
    1be4:	022a9208 	eoreq	r9, sl, #8, 4	; 0x80000000
    1be8:	7902047d 	stmdbvc	r2, {r0, r2, r3, r4, r5, r6, sl}
    1bec:	c0280000 	eorgt	r0, r8, r0
    1bf0:	11000087 	smlabbne	r0, r7, r0, r0
    1bf4:	2800001a 	stmdacs	r0, {r1, r3, r4}
    1bf8:	000087c4 	andeq	r8, r0, r4, asr #15
    1bfc:	00001a05 	andeq	r1, r0, r5, lsl #20
    1c00:	0087d829 	addeq	sp, r7, r9, lsr #16
    1c04:	0019f900 	andseq	pc, r9, r0, lsl #18
    1c08:	00109700 	andseq	r9, r0, r0, lsl #14
    1c0c:	50012a00 	andpl	r2, r1, r0, lsl #20
    1c10:	99980305 	ldmibls	r8, {r0, r2, r8, r9}
    1c14:	012a0000 			; <UNDEFINED> instruction: 0x012a0000
    1c18:	1c030551 	cfstr32ne	mvfx0, [r3], {81}	; 0x51
    1c1c:	2a000098 	bcs	1e84 <_start-0x617c>
    1c20:	03055201 	movweq	r5, #20993	; 0x5201
    1c24:	00009a88 	andeq	r9, r0, r8, lsl #21
    1c28:	0253012a 	subseq	r0, r3, #-2147483638	; 0x8000000a
    1c2c:	2800a108 	stmdacs	r0, {r3, r8, sp, pc}
    1c30:	000087dc 	ldrdeq	r8, [r0], -ip
    1c34:	00001a11 	andeq	r1, r0, r1, lsl sl
    1c38:	013c0a00 	teqeq	ip, r0, lsl #20
    1c3c:	10b10000 	adcsne	r0, r1, r0
    1c40:	2c0b0000 	stccs	0, cr0, [fp], {-0}
    1c44:	07000000 	streq	r0, [r0, -r0]
    1c48:	10a10f00 	adcne	r0, r1, r0, lsl #30
    1c4c:	74300000 	ldrtvc	r0, [r0], #-0
    1c50:	01000002 	tsteq	r0, r2
    1c54:	853c0771 	ldrhi	r0, [ip, #-1905]!	; 0xfffff88f
    1c58:	00b80000 	adcseq	r0, r8, r0
    1c5c:	9c010000 	stcls	0, cr0, [r1], {-0}
    1c60:	0000120c 	andeq	r1, r0, ip, lsl #4
    1c64:	000c5a2e 	andeq	r5, ip, lr, lsr #20
    1c68:	15710100 	ldrbne	r0, [r1, #-256]!	; 0xffffff00
    1c6c:	0000012d 	andeq	r0, r0, sp, lsr #2
    1c70:	000003aa 	andeq	r0, r0, sl, lsr #7
    1c74:	000003a6 	andeq	r0, r0, r6, lsr #7
    1c78:	0002092e 	andeq	r0, r2, lr, lsr #18
    1c7c:	27710100 	ldrbcs	r0, [r1, -r0, lsl #2]!
    1c80:	000005fc 	strdeq	r0, [r0], -ip
    1c84:	000003cc 	andeq	r0, r0, ip, asr #7
    1c88:	000003c8 	andeq	r0, r0, r8, asr #7
    1c8c:	0004d52e 	andeq	sp, r4, lr, lsr #10
    1c90:	39710100 	ldmdbcc	r1!, {r8}^
    1c94:	000005fc 	strdeq	r0, [r0], -ip
    1c98:	000003ee 	andeq	r0, r0, lr, ror #7
    1c9c:	000003ea 	andeq	r0, r0, sl, ror #7
    1ca0:	0005452e 	andeq	r4, r5, lr, lsr #10
    1ca4:	48710100 	ldmdami	r1!, {r8}^
    1ca8:	0000002c 	andeq	r0, r0, ip, lsr #32
    1cac:	00000410 	andeq	r0, r0, r0, lsl r4
    1cb0:	0000040c 	andeq	r0, r0, ip, lsl #8
    1cb4:	0100682d 	tsteq	r0, sp, lsr #16
    1cb8:	0cb70c72 	ldceq	12, cr0, [r7], #456	; 0x1c8
    1cbc:	04340000 	ldrteq	r0, [r4], #-0
    1cc0:	042e0000 	strteq	r0, [lr], #-0
    1cc4:	0e2f0000 	cdpeq	0, 2, cr0, cr15, cr0, {0}
    1cc8:	1c000002 	stcne	0, cr0, [r0], {2}
    1ccc:	05000012 	streq	r0, [r0, #-18]	; 0xffffffee
    1cd0:	009a8003 	addseq	r8, sl, r3
    1cd4:	85542900 	ldrbhi	r2, [r4, #-2304]	; 0xfffff700
    1cd8:	181e0000 	ldmdane	lr, {}	; <UNPREDICTABLE>
    1cdc:	11510000 	cmpne	r1, r0
    1ce0:	012a0000 			; <UNDEFINED> instruction: 0x012a0000
    1ce4:	00750250 	rsbseq	r0, r5, r0, asr r2
    1ce8:	85702900 	ldrbhi	r2, [r0, #-2304]!	; 0xfffff700
    1cec:	19f90000 	ldmibne	r9!, {}^	; <UNPREDICTABLE>
    1cf0:	11680000 	cmnne	r8, r0
    1cf4:	012a0000 			; <UNDEFINED> instruction: 0x012a0000
    1cf8:	60030550 	andvs	r0, r3, r0, asr r5
    1cfc:	00000097 	muleq	r0, r7, r0
    1d00:	00857c29 	addeq	r7, r5, r9, lsr #24
    1d04:	0019f900 	andseq	pc, r9, r0, lsl #18
    1d08:	00118500 	andseq	r8, r1, r0, lsl #10
    1d0c:	50012a00 	andpl	r2, r1, r0, lsl #20
    1d10:	98a00305 	stmials	r0!, {r0, r2, r8, r9}
    1d14:	012a0000 			; <UNDEFINED> instruction: 0x012a0000
    1d18:	00750251 	rsbseq	r0, r5, r1, asr r2
    1d1c:	85842900 	strhi	r2, [r4, #2304]	; 0x900
    1d20:	12210000 	eorne	r0, r1, #0
    1d24:	11990000 	orrsne	r0, r9, r0
    1d28:	012a0000 			; <UNDEFINED> instruction: 0x012a0000
    1d2c:	00740250 	rsbseq	r0, r4, r0, asr r2
    1d30:	85a82900 	strhi	r2, [r8, #2304]!	; 0x900
    1d34:	18b70000 	ldmne	r7!, {}	; <UNPREDICTABLE>
    1d38:	11ad0000 			; <UNDEFINED> instruction: 0x11ad0000
    1d3c:	012a0000 			; <UNDEFINED> instruction: 0x012a0000
    1d40:	00740250 	rsbseq	r0, r4, r0, asr r2
    1d44:	85b02800 	ldrhi	r2, [r0, #2048]!	; 0x800
    1d48:	12ce0000 	sbcne	r0, lr, #0
    1d4c:	b8290000 	stmdalt	r9!, {}	; <UNPREDICTABLE>
    1d50:	b3000085 	movwlt	r0, #133	; 0x85
    1d54:	ca000017 	bgt	1db8 <_start-0x6248>
    1d58:	2a000011 	bcs	1da4 <_start-0x625c>
    1d5c:	74025001 	strvc	r5, [r2], #-1
    1d60:	c4280000 	strtgt	r0, [r8], #-0
    1d64:	05000085 	streq	r0, [r0, #-133]	; 0xffffff7b
    1d68:	2900001a 	stmdbcs	r0, {r1, r3, r4}
    1d6c:	000085d8 	ldrdeq	r8, [r0], -r8	; <UNPREDICTABLE>
    1d70:	000019f9 	strdeq	r1, [r0], -r9
    1d74:	00001202 	andeq	r1, r0, r2, lsl #4
    1d78:	0550012a 	ldrbeq	r0, [r0, #-298]	; 0xfffffed6
    1d7c:	00986c03 	addseq	r6, r8, r3, lsl #24
    1d80:	51012a00 	tstpl	r1, r0, lsl #20
    1d84:	981c0305 	ldmdals	ip, {r0, r2, r8, r9}
    1d88:	012a0000 			; <UNDEFINED> instruction: 0x012a0000
    1d8c:	80030552 	andhi	r0, r3, r2, asr r5
    1d90:	2a00009a 	bcs	2000 <_start-0x6000>
    1d94:	08025301 	stmdaeq	r2, {r0, r8, r9, ip, lr}
    1d98:	dc280074 	stcle	0, cr0, [r8], #-464	; 0xfffffe30
    1d9c:	11000085 	smlabbne	r0, r5, r0, r0
    1da0:	0000001a 	andeq	r0, r0, sl, lsl r0
    1da4:	00013c0a 	andeq	r3, r1, sl, lsl #24
    1da8:	00121c00 	andseq	r1, r2, r0, lsl #24
    1dac:	002c0b00 	eoreq	r0, ip, r0, lsl #22
    1db0:	00060000 	andeq	r0, r6, r0
    1db4:	00120c0f 	andseq	r0, r2, pc, lsl #24
    1db8:	068a3100 	streq	r3, [sl], r0, lsl #2
    1dbc:	59010000 	stmdbpl	r1, {}	; <UNPREDICTABLE>
    1dc0:	0000250c 	andeq	r2, r0, ip, lsl #10
    1dc4:	00846400 	addeq	r6, r4, r0, lsl #8
    1dc8:	00006400 	andeq	r6, r0, r0, lsl #8
    1dcc:	ce9c0100 	fmlgte	f0, f4, f0
    1dd0:	2c000012 	stccs	0, cr0, [r0], {18}
    1dd4:	59010068 	stmdbpl	r1, {r3, r5, r6}
    1dd8:	000cb71f 	andeq	fp, ip, pc, lsl r7
    1ddc:	00046100 	andeq	r6, r4, r0, lsl #2
    1de0:	00045d00 	andeq	r5, r4, r0, lsl #26
    1de4:	84702900 	ldrbthi	r2, [r0], #-2304	; 0xfffff700
    1de8:	16760000 	ldrbtne	r0, [r6], -r0
    1dec:	12610000 	rsbne	r0, r1, #0
    1df0:	012a0000 			; <UNDEFINED> instruction: 0x012a0000
    1df4:	00740250 	rsbseq	r0, r4, r0, asr r2
    1df8:	84802900 	strhi	r2, [r0], #2304	; 0x900
    1dfc:	18f50000 	ldmne	r5!, {}^	; <UNPREDICTABLE>
    1e00:	12750000 	rsbsne	r0, r5, #0
    1e04:	012a0000 			; <UNDEFINED> instruction: 0x012a0000
    1e08:	00740250 	rsbseq	r0, r4, r0, asr r2
    1e0c:	848c2900 	strhi	r2, [ip], #2304	; 0x900
    1e10:	14e80000 	strbtne	r0, [r8], #0
    1e14:	128f0000 	addne	r0, pc, #0
    1e18:	012a0000 			; <UNDEFINED> instruction: 0x012a0000
    1e1c:	80080251 	andhi	r0, r8, r1, asr r2
    1e20:	0252012a 	subseq	r0, r2, #-2147483638	; 0x8000000a
    1e24:	29000074 	stmdbcs	r0, {r2, r4, r5, r6}
    1e28:	0000849c 	muleq	r0, ip, r4
    1e2c:	0000187a 	andeq	r1, r0, sl, ror r8
    1e30:	000012a3 	andeq	r1, r0, r3, lsr #5
    1e34:	0250012a 	subseq	r0, r0, #-2147483638	; 0x8000000a
    1e38:	29000074 	stmdbcs	r0, {r2, r4, r5, r6}
    1e3c:	000084a8 	andeq	r8, r0, r8, lsr #9
    1e40:	0000184d 	andeq	r1, r0, sp, asr #16
    1e44:	000012b7 			; <UNDEFINED> instruction: 0x000012b7
    1e48:	0250012a 	subseq	r0, r0, #-2147483638	; 0x8000000a
    1e4c:	2b000074 	blcs	2024 <_start-0x5fdc>
    1e50:	000084b8 			; <UNDEFINED> instruction: 0x000084b8
    1e54:	000014e8 	andeq	r1, r0, r8, ror #9
    1e58:	0250012a 	subseq	r0, r0, #-2147483638	; 0x8000000a
    1e5c:	012a0075 			; <UNDEFINED> instruction: 0x012a0075
    1e60:	00740252 	rsbseq	r0, r4, r2, asr r2
    1e64:	cd320000 	ldcgt	0, cr0, [r2, #-0]
    1e68:	01000005 	tsteq	r0, r5
    1e6c:	82480d4f 	subhi	r0, r8, #5056	; 0x13c0
    1e70:	00140000 	andseq	r0, r4, r0
    1e74:	9c010000 	stcls	0, cr0, [r1], {-0}
    1e78:	00001329 	andeq	r1, r0, r9, lsr #6
    1e7c:	0100702c 	tsteq	r0, ip, lsr #32
    1e80:	012d1c4f 			; <UNDEFINED> instruction: 0x012d1c4f
    1e84:	04830000 	streq	r0, [r3], #0
    1e88:	047f0000 	ldrbteq	r0, [pc], #-0	; 1e90 <_start-0x6170>
    1e8c:	a32e0000 			; <UNDEFINED> instruction: 0xa32e0000
    1e90:	01000006 	tsteq	r0, r6
    1e94:	002c284f 	eoreq	r2, ip, pc, asr #16
    1e98:	04aa0000 	strteq	r0, [sl], #0
    1e9c:	04a40000 	strteq	r0, [r4], #0
    1ea0:	582b0000 	stmdapl	fp!, {}	; <UNPREDICTABLE>
    1ea4:	1d000082 	stcne	0, cr0, [r0, #-520]	; 0xfffffdf8
    1ea8:	2a00001a 	bcs	1f18 <_start-0x60e8>
    1eac:	f3035001 	vhadd.u8	d5, d3, d1
    1eb0:	012a5001 			; <UNDEFINED> instruction: 0x012a5001
    1eb4:	fe080251 	mcr2	2, 0, r0, cr8, cr1, {2}
    1eb8:	0352012a 	cmpeq	r2, #-2147483638	; 0x8000000a
    1ebc:	005101f3 	ldrsheq	r0, [r1], #-19	; 0xffffffed
    1ec0:	062c3100 	strteq	r3, [ip], -r0, lsl #2
    1ec4:	41010000 	mrsmi	r0, (UNDEF: 1)
    1ec8:	0000250c 	andeq	r2, r0, ip, lsl #10
    1ecc:	00813c00 	addeq	r3, r1, r0, lsl #24
    1ed0:	00010c00 	andeq	r0, r1, r0, lsl #24
    1ed4:	e89c0100 	ldm	ip, {r8}
    1ed8:	2c000014 	stccs	0, cr0, [r0], {20}
    1edc:	41010070 	tstmi	r1, r0, ror r0
    1ee0:	00012f24 	andeq	r2, r1, r4, lsr #30
    1ee4:	0004de00 	andeq	sp, r4, r0, lsl #28
    1ee8:	0004d600 	andeq	sp, r4, r0, lsl #12
    1eec:	06a32e00 	strteq	r2, [r3], r0, lsl #28
    1ef0:	41010000 	mrsmi	r0, (UNDEF: 1)
    1ef4:	00002c30 	andeq	r2, r0, r0, lsr ip
    1ef8:	00051800 	andeq	r1, r5, r0, lsl #16
    1efc:	00051200 	andeq	r1, r5, r0, lsl #4
    1f00:	00682c00 	rsbeq	r2, r8, r0, lsl #24
    1f04:	b73f4101 	ldrlt	r4, [pc, -r1, lsl #2]!
    1f08:	4a00000c 	bmi	1f40 <_start-0x60c0>
    1f0c:	44000005 	strmi	r0, [r0], #-5
    1f10:	2d000005 	stccs	0, cr0, [r0, #-20]	; 0xffffffec
    1f14:	42010069 	andmi	r0, r1, #105	; 0x69
    1f18:	00002509 	andeq	r2, r0, r9, lsl #10
    1f1c:	00057900 	andeq	r7, r5, r0, lsl #18
    1f20:	00057300 	andeq	r7, r5, r0, lsl #6
    1f24:	81643300 	cmnhi	r4, r0, lsl #6
    1f28:	00c00000 	sbceq	r0, r0, r0
    1f2c:	ee260000 	cdp	0, 2, cr0, cr6, cr0, {0}
    1f30:	01000005 	tsteq	r0, r5
    1f34:	00251145 	eoreq	r1, r5, r5, asr #2
    1f38:	05a50000 	streq	r0, [r5, #0]!
    1f3c:	05a30000 	streq	r0, [r3, #0]!
    1f40:	d1340000 	teqle	r4, r0
    1f44:	98000019 	stmdals	r0, {r0, r3, r4}
    1f48:	01000081 	smlabbeq	r0, r1, r0, r0
    1f4c:	00000000 	andeq	r0, r0, r0
    1f50:	5d0d4601 	stcpl	6, cr4, [sp, #-4]
    1f54:	35000014 	strcc	r0, [r0, #-20]	; 0xffffffec
    1f58:	000019de 	ldrdeq	r1, [r0], -lr
    1f5c:	000005bc 			; <UNDEFINED> instruction: 0x000005bc
    1f60:	000005b8 			; <UNDEFINED> instruction: 0x000005b8
    1f64:	00000036 	andeq	r0, r0, r6, lsr r0
    1f68:	19e83700 	stmibne	r8!, {r8, r9, sl, ip, sp}^
    1f6c:	05de0000 	ldrbeq	r0, [lr]
    1f70:	05da0000 	ldrbeq	r0, [sl]
    1f74:	a0290000 	eorge	r0, r9, r0
    1f78:	f9000081 			; <UNDEFINED> instruction: 0xf9000081
    1f7c:	f2000019 	vqadd.s8	d0, d0, d9
    1f80:	2a000013 	bcs	1fd4 <_start-0x602c>
    1f84:	77025001 	strvc	r5, [r2, -r1]
    1f88:	ac290000 	stcge	0, cr0, [r9], #-0
    1f8c:	f9000081 			; <UNDEFINED> instruction: 0xf9000081
    1f90:	09000019 	stmdbeq	r0, {r0, r3, r4}
    1f94:	2a000014 	bcs	1fec <_start-0x6014>
    1f98:	03055001 	movweq	r5, #20481	; 0x5001
    1f9c:	000097b8 			; <UNDEFINED> instruction: 0x000097b8
    1fa0:	81c02900 	bichi	r2, r0, r0, lsl #18
    1fa4:	19f90000 	ldmibne	r9!, {}^	; <UNPREDICTABLE>
    1fa8:	141d0000 	ldrne	r0, [sp], #-0
    1fac:	012a0000 			; <UNDEFINED> instruction: 0x012a0000
    1fb0:	00770250 	rsbseq	r0, r7, r0, asr r2
    1fb4:	81d42900 	bicshi	r2, r4, r0, lsl #18
    1fb8:	19f90000 	ldmibne	r9!, {}^	; <UNPREDICTABLE>
    1fbc:	14340000 	ldrtne	r0, [r4], #-0
    1fc0:	012a0000 			; <UNDEFINED> instruction: 0x012a0000
    1fc4:	c4030550 	strgt	r0, [r3], #-1360	; 0xfffffab0
    1fc8:	00000097 	muleq	r0, r7, r0
    1fcc:	00820c29 	addeq	r0, r2, r9, lsr #24
    1fd0:	0019f900 	andseq	pc, r9, r0, lsl #18
    1fd4:	00144800 	andseq	r4, r4, r0, lsl #16
    1fd8:	50012a00 	andpl	r2, r1, r0, lsl #20
    1fdc:	00007702 	andeq	r7, r0, r2, lsl #14
    1fe0:	0082202b 	addeq	r2, r2, fp, lsr #32
    1fe4:	0019f900 	andseq	pc, r9, r0, lsl #18
    1fe8:	50012a00 	andpl	r2, r1, r0, lsl #20
    1fec:	97e40305 	strbls	r0, [r4, r5, lsl #6]!
    1ff0:	00000000 	andeq	r0, r0, r0
    1ff4:	816c2900 	cmnhi	ip, r0, lsl #18
    1ff8:	18b70000 	ldmne	r7!, {}	; <UNPREDICTABLE>
    1ffc:	14710000 	ldrbtne	r0, [r1], #-0
    2000:	012a0000 			; <UNDEFINED> instruction: 0x012a0000
    2004:	00760250 	rsbseq	r0, r6, r0, asr r2
    2008:	81802900 	orrhi	r2, r0, r0, lsl #18
    200c:	19f90000 	ldmibne	r9!, {}^	; <UNPREDICTABLE>
    2010:	14850000 	strne	r0, [r5], #0
    2014:	012a0000 			; <UNDEFINED> instruction: 0x012a0000
    2018:	00770250 	rsbseq	r0, r7, r0, asr r2
    201c:	81882900 	orrhi	r2, r8, r0, lsl #18
    2020:	19f90000 	ldmibne	r9!, {}^	; <UNPREDICTABLE>
    2024:	149c0000 	ldrne	r0, [ip], #0
    2028:	012a0000 			; <UNDEFINED> instruction: 0x012a0000
    202c:	8c030550 	cfstr32hi	mvfx0, [r3], {80}	; 0x50
    2030:	00000097 	muleq	r0, r7, r0
    2034:	00819829 	addeq	r9, r1, r9, lsr #16
    2038:	0019f900 	andseq	pc, r9, r0, lsl #18
    203c:	0014bf00 	andseq	fp, r4, r0, lsl #30
    2040:	50012a00 	andpl	r2, r1, r0, lsl #20
    2044:	97940305 	ldrls	r0, [r4, r5, lsl #6]
    2048:	012a0000 			; <UNDEFINED> instruction: 0x012a0000
    204c:	00750251 	rsbseq	r0, r5, r1, asr r2
    2050:	0252012a 	subseq	r0, r2, #-2147483638	; 0x8000000a
    2054:	29000074 	stmdbcs	r0, {r2, r4, r5, r6}
    2058:	000081e8 	andeq	r8, r0, r8, ror #3
    205c:	000019f9 	strdeq	r1, [r0], -r9
    2060:	000014d3 	ldrdeq	r1, [r0], -r3
    2064:	0250012a 	subseq	r0, r0, #-2147483638	; 0x8000000a
    2068:	2b000077 	blcs	224c <_start-0x5db4>
    206c:	000081f0 	strdeq	r8, [r0], -r0
    2070:	000019f9 	strdeq	r1, [r0], -r9
    2074:	0550012a 	ldrbeq	r0, [r0, #-298]	; 0xfffffed6
    2078:	00980003 	addseq	r0, r8, r3
    207c:	00000000 	andeq	r0, r0, r0
    2080:	0006c831 	andeq	ip, r6, r1, lsr r8
    2084:	0c340100 	ldfeqs	f0, [r4], #-0
    2088:	00000025 	andeq	r0, r0, r5, lsr #32
    208c:	00008368 	andeq	r8, r0, r8, ror #6
    2090:	000000fc 	strdeq	r0, [r0], -ip
    2094:	16769c01 	ldrbtne	r9, [r6], -r1, lsl #24
    2098:	702c0000 	eorvc	r0, ip, r0
    209c:	1c340100 	ldfnes	f0, [r4], #-0
    20a0:	0000012f 	andeq	r0, r0, pc, lsr #2
    20a4:	00000608 	andeq	r0, r0, r8, lsl #12
    20a8:	00000600 	andeq	r0, r0, r0, lsl #12
    20ac:	0006a32e 	andeq	sl, r6, lr, lsr #6
    20b0:	28340100 	ldmdacs	r4!, {r8}
    20b4:	0000002c 	andeq	r0, r0, ip, lsr #32
    20b8:	00000642 	andeq	r0, r0, r2, asr #12
    20bc:	0000063c 	andeq	r0, r0, ip, lsr r6
    20c0:	0100682c 	tsteq	r0, ip, lsr #16
    20c4:	0cb73734 	ldceq	7, cr3, [r7], #208	; 0xd0
    20c8:	06740000 	ldrbteq	r0, [r4], -r0
    20cc:	066e0000 	strbteq	r0, [lr], -r0
    20d0:	692d0000 	pushvs	{}	; <UNPREDICTABLE>
    20d4:	09350100 	ldmdbeq	r5!, {r8}
    20d8:	00000025 	andeq	r0, r0, r5, lsr #32
    20dc:	000006a3 	andeq	r0, r0, r3, lsr #13
    20e0:	0000069d 	muleq	r0, sp, r6
    20e4:	00839033 	addeq	r9, r3, r3, lsr r0
    20e8:	0000b400 	andeq	fp, r0, r0, lsl #8
    20ec:	05ee2600 	strbeq	r2, [lr, #1536]!	; 0x600
    20f0:	38010000 	stmdacc	r1, {}	; <UNPREDICTABLE>
    20f4:	00002511 	andeq	r2, r0, r1, lsl r5
    20f8:	0006cf00 	andeq	ip, r6, r0, lsl #30
    20fc:	0006cd00 	andeq	ip, r6, r0, lsl #26
    2100:	19d13400 	ldmibne	r1, {sl, ip, sp}^
    2104:	83c80000 	bichi	r0, r8, #0
    2108:	30010000 	andcc	r0, r1, r0
    210c:	01000000 	mrseq	r0, (UNDEF: 0)
    2110:	161c0d39 			; <UNDEFINED> instruction: 0x161c0d39
    2114:	de350000 	cdple	0, 3, cr0, cr5, cr0, {0}
    2118:	e4000019 	str	r0, [r0], #-25	; 0xffffffe7
    211c:	e2000006 	and	r0, r0, #6
    2120:	36000006 	strcc	r0, [r0], -r6
    2124:	00000030 	andeq	r0, r0, r0, lsr r0
    2128:	0019e837 	andseq	lr, r9, r7, lsr r8
    212c:	0006fb00 	andeq	pc, r6, r0, lsl #22
    2130:	0006f700 	andeq	pc, r6, r0, lsl #14
    2134:	83d02900 	bicshi	r2, r0, #0, 18
    2138:	19f90000 	ldmibne	r9!, {}^	; <UNPREDICTABLE>
    213c:	15b10000 	ldrne	r0, [r1, #0]!
    2140:	012a0000 			; <UNDEFINED> instruction: 0x012a0000
    2144:	00770250 	rsbseq	r0, r7, r0, asr r2
    2148:	83dc2900 	bicshi	r2, ip, #0, 18
    214c:	19f90000 	ldmibne	r9!, {}^	; <UNPREDICTABLE>
    2150:	15c80000 	strbne	r0, [r8]
    2154:	012a0000 			; <UNDEFINED> instruction: 0x012a0000
    2158:	b8030550 	stmdalt	r3, {r4, r6, r8, sl}
    215c:	00000097 	muleq	r0, r7, r0
    2160:	0083f029 	addeq	pc, r3, r9, lsr #32
    2164:	0019f900 	andseq	pc, r9, r0, lsl #18
    2168:	0015dc00 	andseq	sp, r5, r0, lsl #24
    216c:	50012a00 	andpl	r2, r1, r0, lsl #20
    2170:	00007702 	andeq	r7, r0, r2, lsl #14
    2174:	00840429 	addeq	r0, r4, r9, lsr #8
    2178:	0019f900 	andseq	pc, r9, r0, lsl #18
    217c:	0015f300 	andseq	pc, r5, r0, lsl #6
    2180:	50012a00 	andpl	r2, r1, r0, lsl #20
    2184:	97c40305 	strbls	r0, [r4, r5, lsl #6]
    2188:	29000000 	stmdbcs	r0, {}	; <UNPREDICTABLE>
    218c:	0000842c 	andeq	r8, r0, ip, lsr #8
    2190:	000019f9 	strdeq	r1, [r0], -r9
    2194:	00001607 	andeq	r1, r0, r7, lsl #12
    2198:	0250012a 	subseq	r0, r0, #-2147483638	; 0x8000000a
    219c:	2b000077 	blcs	2380 <_start-0x5c80>
    21a0:	00008440 	andeq	r8, r0, r0, asr #8
    21a4:	000019f9 	strdeq	r1, [r0], -r9
    21a8:	0550012a 	ldrbeq	r0, [r0, #-298]	; 0xfffffed6
    21ac:	0097e403 	addseq	lr, r7, r3, lsl #8
    21b0:	00000000 	andeq	r0, r0, r0
    21b4:	00839829 	addeq	r9, r3, r9, lsr #16
    21b8:	0018b700 	andseq	fp, r8, r0, lsl #14
    21bc:	00163000 	andseq	r3, r6, r0
    21c0:	50012a00 	andpl	r2, r1, r0, lsl #20
    21c4:	00007602 	andeq	r7, r0, r2, lsl #12
    21c8:	0083ac29 	addeq	sl, r3, r9, lsr #24
    21cc:	0019f900 	andseq	pc, r9, r0, lsl #18
    21d0:	00164400 	andseq	r4, r6, r0, lsl #8
    21d4:	50012a00 	andpl	r2, r1, r0, lsl #20
    21d8:	00007702 	andeq	r7, r0, r2, lsl #14
    21dc:	0083b429 	addeq	fp, r3, r9, lsr #8
    21e0:	0019f900 	andseq	pc, r9, r0, lsl #18
    21e4:	00165b00 	andseq	r5, r6, r0, lsl #22
    21e8:	50012a00 	andpl	r2, r1, r0, lsl #20
    21ec:	978c0305 	strls	r0, [ip, r5, lsl #6]
    21f0:	2b000000 	blcs	21f8 <_start-0x5e08>
    21f4:	000083c8 	andeq	r8, r0, r8, asr #7
    21f8:	000019f9 	strdeq	r1, [r0], -r9
    21fc:	0550012a 	ldrbeq	r0, [r0, #-298]	; 0xfffffed6
    2200:	00979403 	addseq	r9, r7, r3, lsl #8
    2204:	52012a00 	andpl	r2, r1, #0, 20
    2208:	00007402 	andeq	r7, r0, r2, lsl #8
    220c:	3d310000 	ldccc	0, cr0, [r1, #-0]
    2210:	01000006 	tsteq	r0, r6
    2214:	00250c2a 	eoreq	r0, r5, sl, lsr #24
    2218:	82800000 	addhi	r0, r0, #0
    221c:	00e80000 	rsceq	r0, r8, r0
    2220:	9c010000 	stcls	0, cr0, [r1], {-0}
    2224:	000017b3 			; <UNDEFINED> instruction: 0x000017b3
    2228:	0100682c 	tsteq	r0, ip, lsr #16
    222c:	0cb71d2a 	ldceq	13, cr1, [r7], #168	; 0xa8
    2230:	07210000 	streq	r0, [r1, -r0]!
    2234:	071d0000 	ldreq	r0, [sp, -r0]
    2238:	d1340000 	teqle	r4, r0
    223c:	cc000019 	stcgt	0, cr0, [r0], {25}
    2240:	01000082 	smlabbeq	r0, r2, r0, r0
    2244:	00000018 	andeq	r0, r0, r8, lsl r0
    2248:	55092d01 	strpl	r2, [r9, #-3329]	; 0xfffff2ff
    224c:	35000017 	strcc	r0, [r0, #-23]	; 0xffffffe9
    2250:	000019de 	ldrdeq	r1, [r0], -lr
    2254:	00000741 	andeq	r0, r0, r1, asr #14
    2258:	0000073f 	andeq	r0, r0, pc, lsr r7
    225c:	00001836 	andeq	r1, r0, r6, lsr r8
    2260:	19e83700 	stmibne	r8!, {r8, r9, sl, ip, sp}^
    2264:	07580000 	ldrbeq	r0, [r8, -r0]
    2268:	07540000 	ldrbeq	r0, [r4, -r0]
    226c:	d4290000 	strtle	r0, [r9], #-0
    2270:	f9000082 			; <UNDEFINED> instruction: 0xf9000082
    2274:	ea000019 	b	22e0 <_start-0x5d20>
    2278:	2a000016 	bcs	22d8 <_start-0x5d28>
    227c:	75025001 	strvc	r5, [r2, #-1]
    2280:	e0290000 	eor	r0, r9, r0
    2284:	f9000082 			; <UNDEFINED> instruction: 0xf9000082
    2288:	01000019 	tsteq	r0, r9, lsl r0
    228c:	2a000017 	bcs	22f0 <_start-0x5d10>
    2290:	03055001 	movweq	r5, #20481	; 0x5001
    2294:	000097b8 			; <UNDEFINED> instruction: 0x000097b8
    2298:	82f42900 	rscshi	r2, r4, #0, 18
    229c:	19f90000 	ldmibne	r9!, {}^	; <UNPREDICTABLE>
    22a0:	17150000 	ldrne	r0, [r5, -r0]
    22a4:	012a0000 			; <UNDEFINED> instruction: 0x012a0000
    22a8:	00750250 	rsbseq	r0, r5, r0, asr r2
    22ac:	83082900 	movwhi	r2, #35072	; 0x8900
    22b0:	19f90000 	ldmibne	r9!, {}^	; <UNPREDICTABLE>
    22b4:	172c0000 	strne	r0, [ip, -r0]!
    22b8:	012a0000 			; <UNDEFINED> instruction: 0x012a0000
    22bc:	c4030550 	strgt	r0, [r3], #-1360	; 0xfffffab0
    22c0:	00000097 	muleq	r0, r7, r0
    22c4:	00833029 	addeq	r3, r3, r9, lsr #32
    22c8:	0019f900 	andseq	pc, r9, r0, lsl #18
    22cc:	00174000 	andseq	r4, r7, r0
    22d0:	50012a00 	andpl	r2, r1, r0, lsl #20
    22d4:	00007502 	andeq	r7, r0, r2, lsl #10
    22d8:	0083442b 	addeq	r4, r3, fp, lsr #8
    22dc:	0019f900 	andseq	pc, r9, r0, lsl #18
    22e0:	50012a00 	andpl	r2, r1, r0, lsl #20
    22e4:	97e40305 	strbls	r0, [r4, r5, lsl #6]!
    22e8:	00000000 	andeq	r0, r0, r0
    22ec:	82a02900 	adchi	r2, r0, #0, 18
    22f0:	17b30000 	ldrne	r0, [r3, r0]!
    22f4:	17690000 	strbne	r0, [r9, -r0]!
    22f8:	012a0000 			; <UNDEFINED> instruction: 0x012a0000
    22fc:	00740250 	rsbseq	r0, r4, r0, asr r2
    2300:	82b42900 	adcshi	r2, r4, #0, 18
    2304:	19f90000 	ldmibne	r9!, {}^	; <UNPREDICTABLE>
    2308:	177d0000 	ldrbne	r0, [sp, -r0]!
    230c:	012a0000 			; <UNDEFINED> instruction: 0x012a0000
    2310:	00750250 	rsbseq	r0, r5, r0, asr r2
    2314:	82bc2900 	adcshi	r2, ip, #0, 18
    2318:	19f90000 	ldmibne	r9!, {}^	; <UNPREDICTABLE>
    231c:	17940000 	ldrne	r0, [r4, r0]
    2320:	012a0000 			; <UNDEFINED> instruction: 0x012a0000
    2324:	8c030550 	cfstr32hi	mvfx0, [r3], {80}	; 0x50
    2328:	00000097 	muleq	r0, r7, r0
    232c:	0082cc2b 	addeq	ip, r2, fp, lsr #24
    2330:	0019f900 	andseq	pc, r9, r0, lsl #18
    2334:	50012a00 	andpl	r2, r1, r0, lsl #20
    2338:	97940305 	ldrls	r0, [r4, r5, lsl #6]
    233c:	012a0000 			; <UNDEFINED> instruction: 0x012a0000
    2340:	00740251 	rsbseq	r0, r4, r1, asr r2
    2344:	0152012a 	cmpeq	r2, sl, lsr #2
    2348:	31000030 	tstcc	r0, r0, lsr r0
    234c:	00000609 	andeq	r0, r0, r9, lsl #12
    2350:	69112101 	ldmdbvs	r1, {r0, r8, sp}
    2354:	5c000000 	stcpl	0, cr0, [r0], {-0}
    2358:	24000082 	strcs	r0, [r0], #-130	; 0xffffff7e
    235c:	01000000 	mrseq	r0, (UNDEF: 0)
    2360:	00181e9c 	mulseq	r8, ip, lr
    2364:	00682c00 	rsbeq	r2, r8, r0, lsl #24
    2368:	b7222101 	strlt	r2, [r2, -r1, lsl #2]!
    236c:	7e00000c 	cdpvc	0, 0, cr0, cr0, cr12, {0}
    2370:	7a000007 	bvc	2394 <_start-0x5c6c>
    2374:	2d000007 	stccs	0, cr0, [r0, #-28]	; 0xffffffe4
    2378:	00646c6f 	rsbeq	r6, r4, pc, ror #24
    237c:	2c0e2201 	sfmcs	f2, 4, [lr], {1}
    2380:	9e000000 	cdpls	0, 0, cr0, cr0, cr0, {0}
    2384:	9c000007 	stcls	0, cr0, [r0], {7}
    2388:	26000007 	strcs	r0, [r0], -r7
    238c:	0000060d 	andeq	r0, r0, sp, lsl #12
    2390:	690e2401 	stmdbvs	lr, {r0, sl, sp}
    2394:	b3000000 	movwlt	r0, #0
    2398:	b1000007 	tstlt	r0, r7
    239c:	2b000007 	blcs	23c0 <_start-0x5c40>
    23a0:	00008278 	andeq	r8, r0, r8, ror r2
    23a4:	00001a29 	andeq	r1, r0, r9, lsr #20
    23a8:	0250012a 	subseq	r0, r0, #-2147483638	; 0x8000000a
    23ac:	012a0074 			; <UNDEFINED> instruction: 0x012a0074
    23b0:	38080251 	stmdacc	r8, {r0, r4, r6, r9}
    23b4:	d6310000 	ldrtle	r0, [r1], -r0
    23b8:	01000005 	tsteq	r0, r5
    23bc:	0cb70f1c 	ldceq	15, cr0, [r7], #112	; 0x70
    23c0:	81340000 	teqhi	r4, r0
    23c4:	00080000 	andeq	r0, r8, r0
    23c8:	9c010000 	stcls	0, cr0, [r1], {-0}
    23cc:	0000184d 	andeq	r1, r0, sp, asr #16
    23d0:	000c5a2e 	andeq	r5, ip, lr, lsr #20
    23d4:	231c0100 	tstcs	ip, #0, 2
    23d8:	0000012d 	andeq	r0, r0, sp, lsr #2
    23dc:	000007ca 	andeq	r0, r0, sl, asr #15
    23e0:	000007c6 	andeq	r0, r0, r6, asr #15
    23e4:	069d3100 	ldreq	r3, [sp], r0, lsl #2
    23e8:	19010000 	stmdbne	r1, {}	; <UNPREDICTABLE>
    23ec:	00002c11 	andeq	r2, r0, r1, lsl ip
    23f0:	00812800 	addeq	r2, r1, r0, lsl #16
    23f4:	00000c00 	andeq	r0, r0, r0, lsl #24
    23f8:	7a9c0100 	bvc	fe702800 <__bss_end__+0xfe6f8730>
    23fc:	2c000018 	stccs	0, cr0, [r0], {24}
    2400:	19010068 	stmdbne	r1, {r3, r5, r6}
    2404:	000cb725 	andeq	fp, ip, r5, lsr #14
    2408:	0007ef00 	andeq	lr, r7, r0, lsl #30
    240c:	0007eb00 	andeq	lr, r7, r0, lsl #22
    2410:	47310000 	ldrmi	r0, [r1, -r0]!
    2414:	01000006 	tsteq	r0, r6
    2418:	012d0e17 			; <UNDEFINED> instruction: 0x012d0e17
    241c:	81100000 	tsthi	r0, r0
    2420:	00180000 	andseq	r0, r8, r0
    2424:	9c010000 	stcls	0, cr0, [r1], {-0}
    2428:	000018b7 			; <UNDEFINED> instruction: 0x000018b7
    242c:	0100682c 	tsteq	r0, ip, lsr #16
    2430:	0cb71f17 	ldceq	15, cr1, [r7], #92	; 0x5c
    2434:	08140000 	ldmdaeq	r4, {}	; <UNPREDICTABLE>
    2438:	08100000 	ldmdaeq	r0, {}	; <UNPREDICTABLE>
    243c:	1c2b0000 	stcne	0, cr0, [fp], #-0
    2440:	b7000081 	strlt	r0, [r0, -r1, lsl #1]
    2444:	2a000018 	bcs	24ac <_start-0x5b54>
    2448:	74025001 	strvc	r5, [r2], #-1
    244c:	31000000 	mrscc	r0, (UNDEF: 0)
    2450:	00000620 	andeq	r0, r0, r0, lsr #12
    2454:	2d0e1501 	cfstr32cs	mvfx1, [lr, #-4]
    2458:	00000001 	andeq	r0, r0, r1
    245c:	10000081 	andne	r0, r0, r1, lsl #1
    2460:	01000000 	mrseq	r0, (UNDEF: 0)
    2464:	0018f59c 	mulseq	r8, ip, r5
    2468:	00682c00 	rsbeq	r2, r8, r0, lsl #24
    246c:	b7211501 	strlt	r1, [r1, -r1, lsl #10]!
    2470:	3600000c 	strcc	r0, [r0], -ip
    2474:	32000008 	andcc	r0, r0, #8
    2478:	2b000008 	blcs	24a0 <_start-0x5b60>
    247c:	00008108 	andeq	r8, r0, r8, lsl #2
    2480:	000018f5 	strdeq	r1, [r0], -r5
    2484:	0350012a 	cmpeq	r0, #-2147483638	; 0x8000000a
    2488:	005001f3 	ldrsheq	r0, [r0], #-19	; 0xffffffed
    248c:	05713100 	ldrbeq	r3, [r1, #-256]!	; 0xffffff00
    2490:	13010000 	movwne	r0, #4096	; 0x1000
    2494:	00012d0e 	andeq	r2, r1, lr, lsl #26
    2498:	0080f800 	addeq	pc, r0, r0, lsl #16
    249c:	00000800 	andeq	r0, r0, r0, lsl #16
    24a0:	229c0100 	addscs	r0, ip, #0, 2
    24a4:	2c000019 	stccs	0, cr0, [r0], {25}
    24a8:	13010068 	movwne	r0, #4200	; 0x1068
    24ac:	000cb71f 	andeq	fp, ip, pc, lsl r7
    24b0:	00085b00 	andeq	r5, r8, r0, lsl #22
    24b4:	00085700 	andeq	r5, r8, r0, lsl #14
    24b8:	35300000 	ldrcc	r0, [r0, #-0]!
    24bc:	01000001 	tsteq	r0, r1
    24c0:	84c80609 	strbhi	r0, [r8], #1545	; 0x609
    24c4:	00740000 	rsbseq	r0, r4, r0
    24c8:	9c010000 	stcls	0, cr0, [r1], {-0}
    24cc:	000019d1 	ldrdeq	r1, [r0], -r1	; <UNPREDICTABLE>
    24d0:	000c532e 	andeq	r5, ip, lr, lsr #6
    24d4:	14090100 	strne	r0, [r9], #-256	; 0xffffff00
    24d8:	0000012d 	andeq	r0, r0, sp, lsr #2
    24dc:	00000885 	andeq	r0, r0, r5, lsl #17
    24e0:	0000087b 	andeq	r0, r0, fp, ror r8
    24e4:	01006e2c 	tsteq	r0, ip, lsr #28
    24e8:	002c2409 	eoreq	r2, ip, r9, lsl #8
    24ec:	08d30000 	ldmeq	r3, {}^	; <UNPREDICTABLE>
    24f0:	08cb0000 	stmiaeq	fp, {}^	; <UNPREDICTABLE>
    24f4:	0e2f0000 	cdpeq	0, 2, cr0, cr15, cr0, {0}
    24f8:	b1000002 	tstlt	r0, r2
    24fc:	05000010 	streq	r0, [r0, #-16]
    2500:	009a7803 	addseq	r7, sl, r3, lsl #16
    2504:	84f42900 	ldrbthi	r2, [r4], #2304	; 0x900
    2508:	19f90000 	ldmibne	r9!, {}^	; <UNPREDICTABLE>
    250c:	19900000 	ldmibne	r0, {}	; <UNPREDICTABLE>
    2510:	012a0000 			; <UNDEFINED> instruction: 0x012a0000
    2514:	50030550 	andpl	r0, r3, r0, asr r5
    2518:	2a000098 	bcs	2780 <_start-0x5880>
    251c:	08025101 	stmdaeq	r2, {r0, r8, ip, lr}
    2520:	52012a38 	andpl	r2, r1, #56, 20	; 0x38000
    2524:	00800802 	addeq	r0, r0, r2, lsl #16
    2528:	00851028 	addeq	r1, r5, r8, lsr #32
    252c:	001a0500 	andseq	r0, sl, r0, lsl #10
    2530:	85242900 	strhi	r2, [r4, #-2304]!	; 0xfffff700
    2534:	19f90000 	ldmibne	r9!, {}^	; <UNPREDICTABLE>
    2538:	19c70000 	stmibne	r7, {}^	; <UNPREDICTABLE>
    253c:	012a0000 			; <UNDEFINED> instruction: 0x012a0000
    2540:	28030550 	stmdacs	r3, {r4, r6, r8, sl}
    2544:	2a000098 	bcs	27ac <_start-0x5854>
    2548:	03055101 	movweq	r5, #20737	; 0x5101
    254c:	0000981c 	andeq	r9, r0, ip, lsl r8
    2550:	0552012a 	ldrbeq	r0, [r2, #-298]	; 0xfffffed6
    2554:	009a7803 	addseq	r7, sl, r3, lsl #16
    2558:	53012a00 	movwpl	r2, #6656	; 0x1a00
    255c:	28003a01 	stmdacs	r0, {r0, r9, fp, ip, sp}
    2560:	00008528 	andeq	r8, r0, r8, lsr #10
    2564:	00001a11 	andeq	r1, r0, r1, lsl sl
    2568:	06723800 	ldrbteq	r3, [r2], -r0, lsl #16
    256c:	55020000 	strpl	r0, [r2, #-0]
    2570:	19f30314 	ldmibne	r3!, {r2, r4, r8, r9}^
    2574:	68390000 	ldmdavs	r9!, {}	; <UNPREDICTABLE>
    2578:	25550200 	ldrbcs	r0, [r5, #-512]	; 0xfffffe00
    257c:	00000cb7 			; <UNDEFINED> instruction: 0x00000cb7
    2580:	02006c3a 	andeq	r6, r0, #14848	; 0x3a00
    2584:	19f31057 	ldmibne	r3!, {r0, r1, r2, r4, r6, ip}^
    2588:	05000000 	streq	r0, [r0, #-0]
    258c:	0009b304 	andeq	fp, r9, r4, lsl #6
    2590:	07233b00 	streq	r3, [r3, -r0, lsl #22]!
    2594:	07230000 	streq	r0, [r3, -r0]!
    2598:	29080000 	stmdbcs	r8, {}	; <UNPREDICTABLE>
    259c:	01e93b05 	mvneq	r3, r5, lsl #22
    25a0:	01e90000 	mvneq	r0, r0
    25a4:	1e080000 	cdpne	0, 0, cr0, cr8, cr0, {0}
    25a8:	028d3b06 	addeq	r3, sp, #6144	; 0x1800
    25ac:	028d0000 	addeq	r0, sp, #0
    25b0:	65080000 	strvs	r0, [r8, #-0]
    25b4:	06963b06 	ldreq	r3, [r6], r6, lsl #22
    25b8:	06960000 	ldreq	r0, [r6], r0
    25bc:	21090000 	mrscs	r0, (UNDEF: 9)
    25c0:	055e3b09 	ldrbeq	r3, [lr, #-2825]	; 0xfffff4f7
    25c4:	055e0000 	ldrbeq	r0, [lr, #-0]
    25c8:	050a0000 	streq	r0, [sl, #-0]
    25cc:	09fe000a 	ldmibeq	lr!, {r1, r3}^
    25d0:	00040000 	andeq	r0, r4, r0
    25d4:	000005ac 	andeq	r0, r0, ip, lsr #11
    25d8:	02ef0104 	rsceq	r0, pc, #4, 2
    25dc:	d90c0000 	stmdble	ip, {}	; <UNPREDICTABLE>
    25e0:	e5000006 	str	r0, [r0, #-6]
    25e4:	d0000006 	andle	r0, r0, r6
    25e8:	ec000089 	stc	0, cr0, [r0], {137}	; 0x89
    25ec:	b0000000 	andlt	r0, r0, r0
    25f0:	02000008 	andeq	r0, r0, #8
    25f4:	6e690504 	cdpvs	5, 6, cr0, cr9, cr4, {0}
    25f8:	04030074 	streq	r0, [r3], #-116	; 0xffffff8c
    25fc:	00006607 	andeq	r6, r0, r7, lsl #12
    2600:	06010300 	streq	r0, [r1], -r0, lsl #6
    2604:	000002de 	ldrdeq	r0, [r0], -lr
    2608:	77050203 	strvc	r0, [r5, -r3, lsl #4]
    260c:	03000003 	movweq	r0, #3
    2610:	00ac0504 	adceq	r0, ip, r4, lsl #10
    2614:	08030000 	stmdaeq	r3, {}	; <UNPREDICTABLE>
    2618:	0000a705 	andeq	sl, r0, r5, lsl #14
    261c:	06aa0400 	strteq	r0, [sl], r0, lsl #8
    2620:	2e020000 	cdpcs	0, 0, cr0, cr2, cr0, {0}
    2624:	00005b18 	andeq	r5, r0, r8, lsl fp
    2628:	08010300 	stmdaeq	r1, {r8, r9}
    262c:	000002dc 	ldrdeq	r0, [r0], -ip
    2630:	22070203 	andcs	r0, r7, #805306368	; 0x30000000
    2634:	04000002 	streq	r0, [r0], #-2
    2638:	00000661 	andeq	r0, r0, r1, ror #12
    263c:	75193402 	ldrvc	r3, [r9, #-1026]	; 0xfffffbfe
    2640:	03000000 	movweq	r0, #0
    2644:	00610704 	rsbeq	r0, r1, r4, lsl #14
    2648:	08030000 	stmdaeq	r3, {}	; <UNPREDICTABLE>
    264c:	00005c07 	andeq	r5, r0, r7, lsl #24
    2650:	02650400 	rsbeq	r0, r5, #0, 8
    2654:	22030000 	andcs	r0, r3, #0
    2658:	00008f19 	andeq	r8, r0, r9, lsl pc
    265c:	95040500 	strls	r0, [r4, #-1280]	; 0xfffffb00
    2660:	06000000 	streq	r0, [r0], -r0
    2664:	00000421 	andeq	r0, r0, r1, lsr #8
    2668:	0002bd04 	andeq	fp, r2, r4, lsl #26
    266c:	0e2c0400 	cdpeq	4, 2, cr0, cr12, cr0, {0}
    2670:	00000041 	andeq	r0, r0, r1, asr #32
    2674:	00043604 	andeq	r3, r4, r4, lsl #12
    2678:	0e720400 	cdpeq	4, 7, cr0, cr2, cr0, {0}
    267c:	00000041 	andeq	r0, r0, r1, asr #32
    2680:	00026d07 	andeq	r6, r2, r7, lsl #26
    2684:	015e0500 	cmpeq	lr, r0, lsl #10
    2688:	00002c17 	andeq	r2, r0, r7, lsl ip
    268c:	04040800 	streq	r0, [r4], #-2048	; 0xfffff800
    2690:	00e103a6 	rsceq	r0, r1, r6, lsr #7
    2694:	5f090000 	svcpl	0x00090000
    2698:	04000002 	streq	r0, [r0], #-2
    269c:	00b20ca8 	adcseq	r0, r2, r8, lsr #25
    26a0:	e2090000 	and	r0, r9, #0
    26a4:	04000001 	streq	r0, [r0], #-1
    26a8:	00e113a9 	rsceq	r1, r1, r9, lsr #7
    26ac:	0a000000 	beq	26b4 <_start-0x594c>
    26b0:	0000005b 	andeq	r0, r0, fp, asr r0
    26b4:	000000f1 	strdeq	r0, [r0], -r1
    26b8:	00002c0b 	andeq	r2, r0, fp, lsl #24
    26bc:	0c000300 	stceq	3, cr0, [r0], {-0}
    26c0:	09a30408 	stmibeq	r3!, {r3, sl}
    26c4:	00000115 	andeq	r0, r0, r5, lsl r1
    26c8:	0004190d 	andeq	r1, r4, sp, lsl #18
    26cc:	07a50400 	streq	r0, [r5, r0, lsl #8]!
    26d0:	00000025 	andeq	r0, r0, r5, lsr #32
    26d4:	04280d00 	strteq	r0, [r8], #-3328	; 0xfffff300
    26d8:	aa040000 	bge	1026e0 <__bss_end__+0xf8610>
    26dc:	0000bf05 	andeq	fp, r0, r5, lsl #30
    26e0:	04000400 	streq	r0, [r0], #-1024	; 0xfffffc00
    26e4:	000003a3 	andeq	r0, r0, r3, lsr #7
    26e8:	f103ab04 			; <UNDEFINED> instruction: 0xf103ab04
    26ec:	04000000 	streq	r0, [r0], #-0
    26f0:	0000019f 	muleq	r0, pc, r1	; <UNPREDICTABLE>
    26f4:	831baf04 	tsthi	fp, #4, 30
    26f8:	0e000000 	cdpeq	0, 0, cr0, cr0, cr0, {0}
    26fc:	35040504 	strcc	r0, [r4, #-1284]	; 0xfffffafc
    2700:	03000001 	movweq	r0, #1
    2704:	02e50801 	rsceq	r0, r5, #65536	; 0x10000
    2708:	350f0000 	strcc	r0, [pc, #-0]	; 2710 <_start-0x58f0>
    270c:	04000001 	streq	r0, [r0], #-1
    2710:	00000468 	andeq	r0, r0, r8, ror #8
    2714:	75191606 	ldrvc	r1, [r9, #-1542]	; 0xfffff9fa
    2718:	10000000 	andne	r0, r0, r0
    271c:	000001b0 			; <UNDEFINED> instruction: 0x000001b0
    2720:	082f0618 	stmdaeq	pc!, {r3, r4, r9, sl}	; <UNPREDICTABLE>
    2724:	000001a7 	andeq	r0, r0, r7, lsr #3
    2728:	0003c40d 	andeq	ip, r3, sp, lsl #8
    272c:	13310600 	teqne	r1, #0, 12
    2730:	000001a7 	andeq	r0, r0, r7, lsr #3
    2734:	6b5f1100 	blvs	17c6b3c <__bss_end__+0x17bca6c>
    2738:	07320600 	ldreq	r0, [r2, -r0, lsl #12]!
    273c:	00000025 	andeq	r0, r0, r5, lsr #32
    2740:	04040d04 	streq	r0, [r4], #-3332	; 0xfffff2fc
    2744:	32060000 	andcc	r0, r6, #0
    2748:	0000250b 	andeq	r2, r0, fp, lsl #10
    274c:	990d0800 	stmdbls	sp, {fp}
    2750:	06000001 	streq	r0, [r0], -r1
    2754:	00251432 	eoreq	r1, r5, r2, lsr r4
    2758:	0d0c0000 	stceq	0, cr0, [ip, #-0]
    275c:	000004a8 	andeq	r0, r0, r8, lsr #9
    2760:	251b3206 	ldrcs	r3, [fp, #-518]	; 0xfffffdfa
    2764:	10000000 	andne	r0, r0, r0
    2768:	00785f11 	rsbseq	r5, r8, r1, lsl pc
    276c:	ad0b3306 	stcge	3, cr3, [fp, #-24]	; 0xffffffe8
    2770:	14000001 	strne	r0, [r0], #-1
    2774:	4d040500 	cfstr32mi	mvfx0, [r4, #-0]
    2778:	0a000001 	beq	2784 <_start-0x587c>
    277c:	00000141 	andeq	r0, r0, r1, asr #2
    2780:	000001bd 			; <UNDEFINED> instruction: 0x000001bd
    2784:	00002c0b 	andeq	r2, r0, fp, lsl #24
    2788:	10000000 	andne	r0, r0, r0
    278c:	000001dd 	ldrdeq	r0, [r0], -sp
    2790:	08370624 	ldmdaeq	r7!, {r2, r5, r9, sl}
    2794:	00000240 	andeq	r0, r0, r0, asr #4
    2798:	00009e0d 	andeq	r9, r0, sp, lsl #28
    279c:	09390600 	ldmdbeq	r9!, {r9, sl}
    27a0:	00000025 	andeq	r0, r0, r5, lsr #32
    27a4:	043e0d00 	ldrteq	r0, [lr], #-3328	; 0xfffff300
    27a8:	3a060000 	bcc	1827b0 <__bss_end__+0x1786e0>
    27ac:	00002509 	andeq	r2, r0, r9, lsl #10
    27b0:	c10d0400 	tstgt	sp, r0, lsl #8
    27b4:	06000000 	streq	r0, [r0], -r0
    27b8:	0025093b 	eoreq	r0, r5, fp, lsr r9
    27bc:	0d080000 	stceq	0, cr0, [r8, #-0]
    27c0:	00000533 	andeq	r0, r0, r3, lsr r5
    27c4:	25093c06 	strcs	r3, [r9, #-3078]	; 0xfffff3fa
    27c8:	0c000000 	stceq	0, cr0, [r0], {-0}
    27cc:	0002a10d 	andeq	sl, r2, sp, lsl #2
    27d0:	093d0600 	ldmdbeq	sp!, {r9, sl}
    27d4:	00000025 	andeq	r0, r0, r5, lsr #32
    27d8:	02830d10 	addeq	r0, r3, #16, 26	; 0x400
    27dc:	3e060000 	cdpcc	0, 0, cr0, cr6, cr0, {0}
    27e0:	00002509 	andeq	r2, r0, r9, lsl #10
    27e4:	ad0d1400 	cfstrsge	mvf1, [sp, #-0]
    27e8:	06000004 	streq	r0, [r0], -r4
    27ec:	0025093f 	eoreq	r0, r5, pc, lsr r9
    27f0:	0d180000 	ldceq	0, cr0, [r8, #-0]
    27f4:	00000529 	andeq	r0, r0, r9, lsr #10
    27f8:	25094006 	strcs	r4, [r9, #-6]
    27fc:	1c000000 	stcne	0, cr0, [r0], {-0}
    2800:	0004f00d 	andeq	pc, r4, sp
    2804:	09410600 	stmdbeq	r1, {r9, sl}^
    2808:	00000025 	andeq	r0, r0, r5, lsr #32
    280c:	01120020 	tsteq	r2, r0, lsr #32
    2810:	08000001 	stmdaeq	r0, {r0}
    2814:	084a0601 	stmdaeq	sl, {r0, r9, sl}^
    2818:	00000285 	andeq	r0, r0, r5, lsl #5
    281c:	00018c0d 	andeq	r8, r1, sp, lsl #24
    2820:	0a4b0600 	beq	12c4028 <__bss_end__+0x12b9f58>
    2824:	00000285 	andeq	r0, r0, r5, lsl #5
    2828:	00000d00 	andeq	r0, r0, r0, lsl #26
    282c:	4c060000 	stcmi	0, cr0, [r6], {-0}
    2830:	00028509 	andeq	r8, r2, r9, lsl #10
    2834:	5a138000 	bpl	4e283c <__bss_end__+0x4d876c>
    2838:	06000004 	streq	r0, [r0], -r4
    283c:	01410a4e 	cmpeq	r1, lr, asr #20
    2840:	01000000 	mrseq	r0, (UNDEF: 0)
    2844:	00012613 	andeq	r2, r1, r3, lsl r6
    2848:	0a510600 	beq	1444050 <__bss_end__+0x1439f80>
    284c:	00000141 	andeq	r0, r0, r1, asr #2
    2850:	0a000104 	beq	2c68 <_start-0x5398>
    2854:	0000012d 	andeq	r0, r0, sp, lsr #2
    2858:	00000295 	muleq	r0, r5, r2
    285c:	00002c0b 	andeq	r2, r0, fp, lsl #24
    2860:	12001f00 	andne	r1, r0, #0, 30
    2864:	000002aa 	andeq	r0, r0, sl, lsr #5
    2868:	5d060190 	stfpls	f0, [r6, #-576]	; 0xfffffdc0
    286c:	0002d808 	andeq	sp, r2, r8, lsl #16
    2870:	03c40d00 	biceq	r0, r4, #0, 26
    2874:	5e060000 	cdppl	0, 0, cr0, cr6, cr0, {0}
    2878:	0002d812 	andeq	sp, r2, r2, lsl r8
    287c:	dc0d0000 	stcle	0, cr0, [sp], {-0}
    2880:	06000003 	streq	r0, [r0], -r3
    2884:	0025065f 	eoreq	r0, r5, pc, asr r6
    2888:	0d040000 	stceq	0, cr0, [r4, #-0]
    288c:	00000194 	muleq	r0, r4, r1
    2890:	de096106 	adflee	f6, f1, f6
    2894:	08000002 	stmdaeq	r0, {r1}
    2898:	0001010d 	andeq	r0, r1, sp, lsl #2
    289c:	1e620600 	cdpne	6, 6, cr0, cr2, cr0, {0}
    28a0:	00000240 	andeq	r0, r0, r0, asr #4
    28a4:	04050088 	streq	r0, [r5], #-136	; 0xffffff78
    28a8:	00000295 	muleq	r0, r5, r2
    28ac:	0002ee0a 	andeq	lr, r2, sl, lsl #28
    28b0:	0002ee00 	andeq	lr, r2, r0, lsl #28
    28b4:	002c0b00 	eoreq	r0, ip, r0, lsl #22
    28b8:	001f0000 	andseq	r0, pc, r0
    28bc:	02f40405 	rscseq	r0, r4, #83886080	; 0x5000000
    28c0:	10140000 	andsne	r0, r4, r0
    28c4:	0000038f 	andeq	r0, r0, pc, lsl #7
    28c8:	08750608 	ldmdaeq	r5!, {r3, r9, sl}^
    28cc:	0000031d 	andeq	r0, r0, sp, lsl r3
    28d0:	0000bb0d 	andeq	fp, r0, sp, lsl #22
    28d4:	11760600 	cmnne	r6, r0, lsl #12
    28d8:	0000031d 	andeq	r0, r0, sp, lsl r3
    28dc:	001b0d00 	andseq	r0, fp, r0, lsl #26
    28e0:	77060000 	strvc	r0, [r6, -r0]
    28e4:	00002506 	andeq	r2, r0, r6, lsl #10
    28e8:	05000400 	streq	r0, [r0, #-1024]	; 0xfffffc00
    28ec:	00005b04 	andeq	r5, r0, r4, lsl #22
    28f0:	03ae1000 			; <UNDEFINED> instruction: 0x03ae1000
    28f4:	06680000 	strbteq	r0, [r8], -r0
    28f8:	046608b5 	strbteq	r0, [r6], #-2229	; 0xfffff74b
    28fc:	5f110000 	svcpl	0x00110000
    2900:	b6060070 			; <UNDEFINED> instruction: 0xb6060070
    2904:	00031d12 	andeq	r1, r3, r2, lsl sp
    2908:	5f110000 	svcpl	0x00110000
    290c:	b7060072 	smlsdxlt	r6, r2, r0, r0
    2910:	00002507 	andeq	r2, r0, r7, lsl #10
    2914:	5f110400 	svcpl	0x00110400
    2918:	b8060077 	stmdalt	r6, {r0, r1, r2, r4, r5, r6}
    291c:	00002507 	andeq	r2, r0, r7, lsl #10
    2920:	1f0d0800 	svcne	0x000d0800
    2924:	06000001 	streq	r0, [r0], -r1
    2928:	003a09b9 	ldrhteq	r0, [sl], -r9
    292c:	0d0c0000 	stceq	0, cr0, [ip, #-0]
    2930:	00000208 	andeq	r0, r0, r8, lsl #4
    2934:	3a09ba06 	bcc	271154 <__bss_end__+0x267084>
    2938:	0e000000 	cdpeq	0, 0, cr0, cr0, cr0, {0}
    293c:	66625f11 	uqadd16vs	r5, r2, r1
    2940:	11bb0600 			; <UNDEFINED> instruction: 0x11bb0600
    2944:	000002f5 	strdeq	r0, [r0], -r5
    2948:	007b0d10 	rsbseq	r0, fp, r0, lsl sp
    294c:	bc060000 	stclt	0, cr0, [r6], {-0}
    2950:	00002507 	andeq	r2, r0, r7, lsl #10
    2954:	0f0d1800 	svceq	0x000d1800
    2958:	06000001 	streq	r0, [r0], -r1
    295c:	012d0ac3 	smlawteq	sp, r3, sl, r0
    2960:	0d1c0000 	ldceq	0, cr0, [ip, #-0]
    2964:	00000b72 	andeq	r0, r0, r2, ror fp
    2968:	d81dc506 	ldmdale	sp, {r1, r2, r8, sl, lr, pc}
    296c:	20000005 	andcs	r0, r0, r5
    2970:	0006360d 	andeq	r3, r6, sp, lsl #12
    2974:	1dc70600 	stclne	6, cr0, [r7]
    2978:	00000602 	andeq	r0, r0, r2, lsl #12
    297c:	04300d24 	ldrteq	r0, [r0], #-3364	; 0xfffff2dc
    2980:	ca060000 	bgt	182988 <__bss_end__+0x1788b8>
    2984:	0006260d 	andeq	r2, r6, sp, lsl #12
    2988:	0a0d2800 	beq	34c990 <__bss_end__+0x3428c0>
    298c:	06000005 	streq	r0, [r0], -r5
    2990:	064009cb 	strbeq	r0, [r0], -fp, asr #19
    2994:	112c0000 			; <UNDEFINED> instruction: 0x112c0000
    2998:	0062755f 	rsbeq	r7, r2, pc, asr r5
    299c:	f511ce06 			; <UNDEFINED> instruction: 0xf511ce06
    29a0:	30000002 	andcc	r0, r0, r2
    29a4:	70755f11 	rsbsvc	r5, r5, r1, lsl pc
    29a8:	12cf0600 	sbcne	r0, pc, #0, 12
    29ac:	0000031d 	andeq	r0, r0, sp, lsl r3
    29b0:	755f1138 	ldrbvc	r1, [pc, #-312]	; 2880 <_start-0x5780>
    29b4:	d0060072 	andle	r0, r6, r2, ror r0
    29b8:	00002507 	andeq	r2, r0, r7, lsl #10
    29bc:	b50d3c00 	strlt	r3, [sp, #-3072]	; 0xfffff400
    29c0:	06000000 	streq	r0, [r0], -r0
    29c4:	064611d3 			; <UNDEFINED> instruction: 0x064611d3
    29c8:	0d400000 	stcleq	0, cr0, [r0, #-0]
    29cc:	000004e2 	andeq	r0, r0, r2, ror #9
    29d0:	5611d406 	ldrpl	sp, [r1], -r6, lsl #8
    29d4:	43000006 	movwmi	r0, #6
    29d8:	626c5f11 	rsbvs	r5, ip, #17, 30	; 0x44
    29dc:	11d70600 	bicsne	r0, r7, r0, lsl #12
    29e0:	000002f5 	strdeq	r0, [r0], -r5
    29e4:	013d0d44 	teqeq	sp, r4, asr #26
    29e8:	da060000 	ble	1829f0 <__bss_end__+0x178920>
    29ec:	00002507 	andeq	r2, r0, r7, lsl #10
    29f0:	4e0d4c00 	cdpmi	12, 0, cr4, cr13, cr0, {0}
    29f4:	06000001 	streq	r0, [r0], -r1
    29f8:	009a0adb 			; <UNDEFINED> instruction: 0x009a0adb
    29fc:	0d500000 	ldcleq	0, cr0, [r0, #-0]
    2a00:	00000b13 	andeq	r0, r0, r3, lsl fp
    2a04:	8412de06 	ldrhi	sp, [r2], #-3590	; 0xfffff1fa
    2a08:	54000004 	strpl	r0, [r0], #-4
    2a0c:	0004220d 	andeq	r2, r4, sp, lsl #4
    2a10:	0ce20600 	stcleq	6, cr0, [r2]
    2a14:	00000121 	andeq	r0, r0, r1, lsr #2
    2a18:	03b60d58 			; <UNDEFINED> instruction: 0x03b60d58
    2a1c:	e4060000 	str	r0, [r6], #-0
    2a20:	0001150e 	andeq	r1, r1, lr, lsl #10
    2a24:	7b0d5c00 	blvc	359a2c <__bss_end__+0x34f95c>
    2a28:	06000002 	streq	r0, [r0], -r2
    2a2c:	002509e5 	eoreq	r0, r5, r5, ror #19
    2a30:	00640000 	rsbeq	r0, r4, r0
    2a34:	00002515 	andeq	r2, r0, r5, lsl r5
    2a38:	00048400 	andeq	r8, r4, r0, lsl #8
    2a3c:	04841600 	streq	r1, [r4], #1536	; 0x600
    2a40:	2d160000 	ldccs	0, cr0, [r6, #-0]
    2a44:	16000001 	strne	r0, [r0], -r1
    2a48:	0000012f 	andeq	r0, r0, pc, lsr #2
    2a4c:	00002516 	andeq	r2, r0, r6, lsl r5
    2a50:	04050000 	streq	r0, [r5], #-0
    2a54:	0000048f 	andeq	r0, r0, pc, lsl #9
    2a58:	0004840f 	andeq	r8, r4, pc, lsl #8
    2a5c:	040c1700 	streq	r1, [ip], #-1792	; 0xfffff900
    2a60:	04280000 	strteq	r0, [r8], #-0
    2a64:	08026006 	stmdaeq	r2, {r1, r2, sp, lr}
    2a68:	000005d8 	ldrdeq	r0, [r0], -r8
    2a6c:	00037018 	andeq	r7, r3, r8, lsl r0
    2a70:	02620600 	rsbeq	r0, r2, #0, 12
    2a74:	00002507 	andeq	r2, r0, r7, lsl #10
    2a78:	2e180000 	cdpcs	0, 1, cr0, cr8, cr0, {0}
    2a7c:	06000001 	streq	r0, [r0], -r1
    2a80:	b20b0267 	andlt	r0, fp, #1879048198	; 0x70000006
    2a84:	04000006 	streq	r0, [r0], #-6
    2a88:	0001f818 	andeq	pc, r1, r8, lsl r8	; <UNPREDICTABLE>
    2a8c:	02670600 	rsbeq	r0, r7, #0, 12
    2a90:	0006b214 	andeq	fp, r6, r4, lsl r2
    2a94:	a8180800 	ldmdage	r8, {fp}
    2a98:	06000001 	streq	r0, [r0], -r1
    2a9c:	b21e0267 	andslt	r0, lr, #1879048198	; 0x70000006
    2aa0:	0c000006 	stceq	0, cr0, [r0], {6}
    2aa4:	0003d718 	andeq	sp, r3, r8, lsl r7
    2aa8:	02690600 	rsbeq	r0, r9, #0, 12
    2aac:	00002508 	andeq	r2, r0, r8, lsl #10
    2ab0:	29181000 	ldmdbcs	r8, {ip}
    2ab4:	06000000 	streq	r0, [r0], -r0
    2ab8:	b208026a 	andlt	r0, r8, #-1610612730	; 0xa0000006
    2abc:	14000008 	strne	r0, [r0], #-8
    2ac0:	0003eb18 	andeq	lr, r3, r8, lsl fp
    2ac4:	026d0600 	rsbeq	r0, sp, #0, 12
    2ac8:	00002507 	andeq	r2, r0, r7, lsl #10
    2acc:	4f183000 	svcmi	0x00183000
    2ad0:	0600000a 	streq	r0, [r0], -sl
    2ad4:	c716026e 	ldrgt	r0, [r6, -lr, ror #4]
    2ad8:	34000008 	strcc	r0, [r0], #-8
    2adc:	0002b218 	andeq	fp, r2, r8, lsl r2
    2ae0:	02700600 	rsbseq	r0, r0, #0, 12
    2ae4:	00002507 	andeq	r2, r0, r7, lsl #10
    2ae8:	e1183800 	tst	r8, r0, lsl #16
    2aec:	06000003 	streq	r0, [r0], -r3
    2af0:	d80a0272 	stmdale	sl, {r1, r4, r5, r6, r9}
    2af4:	3c000008 	stccc	0, cr0, [r0], {8}
    2af8:	00025718 	andeq	r5, r2, r8, lsl r7
    2afc:	02750600 	rsbseq	r0, r5, #0, 12
    2b00:	0001a713 	andeq	sl, r1, r3, lsl r7
    2b04:	c7184000 	ldrgt	r4, [r8, -r0]
    2b08:	06000001 	streq	r0, [r0], -r1
    2b0c:	25070276 	strcs	r0, [r7, #-630]	; 0xfffffd8a
    2b10:	44000000 	strmi	r0, [r0], #-0
    2b14:	00052418 	andeq	r2, r5, r8, lsl r4
    2b18:	02770600 	rsbseq	r0, r7, #0, 12
    2b1c:	0001a713 	andeq	sl, r1, r3, lsl r7
    2b20:	c4184800 	ldrgt	r4, [r8], #-2048	; 0xfffff800
    2b24:	06000002 	streq	r0, [r0], -r2
    2b28:	de140278 	mrcle	2, 0, r0, cr4, cr8, {3}
    2b2c:	4c000008 	stcmi	0, cr0, [r0], {8}
    2b30:	00020018 	andeq	r0, r2, r8, lsl r0
    2b34:	027b0600 	rsbseq	r0, fp, #0, 12
    2b38:	00002507 	andeq	r2, r0, r7, lsl #10
    2b3c:	46185000 	ldrmi	r5, [r8], -r0
    2b40:	06000001 	streq	r0, [r0], -r1
    2b44:	2f09027c 	svccs	0x0009027c
    2b48:	54000001 	strpl	r0, [r0], #-1
    2b4c:	0002ea18 	andeq	lr, r2, r8, lsl sl
    2b50:	029f0600 	addseq	r0, pc, #0, 12
    2b54:	00088d07 	andeq	r8, r8, r7, lsl #26
    2b58:	aa195800 	bge	658b60 <__bss_end__+0x64ea90>
    2b5c:	06000002 	streq	r0, [r0], -r2
    2b60:	d81302a3 	ldmdale	r3, {r0, r1, r5, r7, r9}
    2b64:	48000002 	stmdami	r0, {r1}
    2b68:	02351901 	eorseq	r1, r5, #16384	; 0x4000
    2b6c:	a4060000 	strge	r0, [r6], #-0
    2b70:	02951202 	addseq	r1, r5, #536870912	; 0x20000000
    2b74:	014c0000 	mrseq	r0, (UNDEF: 76)
    2b78:	0004d019 	andeq	sp, r4, r9, lsl r0
    2b7c:	02a80600 	adceq	r0, r8, #0, 12
    2b80:	0008ef0c 	andeq	lr, r8, ip, lsl #30
    2b84:	1902dc00 	stmdbne	r2, {sl, fp, ip, lr, pc}
    2b88:	00000117 	andeq	r0, r0, r7, lsl r1
    2b8c:	1002ad06 	andne	sl, r2, r6, lsl #26
    2b90:	00000673 	andeq	r0, r0, r3, ror r6
    2b94:	fc1902e0 	ldc2	2, cr0, [r9], {224}	; 0xe0
    2b98:	06000000 	streq	r0, [r0], -r0
    2b9c:	fb0a02af 	blx	283662 <__bss_end__+0x279592>
    2ba0:	ec000008 	stc	0, cr0, [r0], {8}
    2ba4:	04050002 	streq	r0, [r5], #-2
    2ba8:	00000466 	andeq	r0, r0, r6, ror #8
    2bac:	00002515 	andeq	r2, r0, r5, lsl r5
    2bb0:	0005fc00 	andeq	pc, r5, r0, lsl #24
    2bb4:	04841600 	streq	r1, [r4], #1536	; 0x600
    2bb8:	2d160000 	ldccs	0, cr0, [r6, #-0]
    2bbc:	16000001 	strne	r0, [r0], -r1
    2bc0:	000005fc 	strdeq	r0, [r0], -ip
    2bc4:	00002516 	andeq	r2, r0, r6, lsl r5
    2bc8:	04050000 	streq	r0, [r5], #-0
    2bcc:	0000013c 	andeq	r0, r0, ip, lsr r1
    2bd0:	05de0405 	ldrbeq	r0, [lr, #1029]	; 0x405
    2bd4:	a6150000 	ldrge	r0, [r5], -r0
    2bd8:	26000000 	strcs	r0, [r0], -r0
    2bdc:	16000006 	strne	r0, [r0], -r6
    2be0:	00000484 	andeq	r0, r0, r4, lsl #9
    2be4:	00012d16 	andeq	r2, r1, r6, lsl sp
    2be8:	00a61600 	adceq	r1, r6, r0, lsl #12
    2bec:	25160000 	ldrcs	r0, [r6, #-0]
    2bf0:	00000000 	andeq	r0, r0, r0
    2bf4:	06080405 	streq	r0, [r8], -r5, lsl #8
    2bf8:	25150000 	ldrcs	r0, [r5, #-0]
    2bfc:	40000000 	andmi	r0, r0, r0
    2c00:	16000006 	strne	r0, [r0], -r6
    2c04:	00000484 	andeq	r0, r0, r4, lsl #9
    2c08:	00012d16 	andeq	r2, r1, r6, lsl sp
    2c0c:	04050000 	streq	r0, [r5], #-0
    2c10:	0000062c 	andeq	r0, r0, ip, lsr #12
    2c14:	00005b0a 	andeq	r5, r0, sl, lsl #22
    2c18:	00065600 	andeq	r5, r6, r0, lsl #12
    2c1c:	002c0b00 	eoreq	r0, ip, r0, lsl #22
    2c20:	00020000 	andeq	r0, r2, r0
    2c24:	00005b0a 	andeq	r5, r0, sl, lsl #22
    2c28:	00066600 	andeq	r6, r6, r0, lsl #12
    2c2c:	002c0b00 	eoreq	r0, ip, r0, lsl #22
    2c30:	00000000 	andeq	r0, r0, r0
    2c34:	00039c07 	andeq	r9, r3, r7, lsl #24
    2c38:	011f0600 	tsteq	pc, r0, lsl #12
    2c3c:	0003231a 	andeq	r2, r3, sl, lsl r3
    2c40:	04b71a00 	ldrteq	r1, [r7], #2560	; 0xa00
    2c44:	060c0000 	streq	r0, [ip], -r0
    2c48:	ac080123 	stfges	f0, [r8], {35}	; 0x23
    2c4c:	18000006 	stmdane	r0, {r1, r2}
    2c50:	000003c4 	andeq	r0, r0, r4, asr #7
    2c54:	11012506 	tstne	r1, r6, lsl #10
    2c58:	000006ac 	andeq	r0, r0, ip, lsr #13
    2c5c:	021b1800 	andseq	r1, fp, #0, 16
    2c60:	26060000 	strcs	r0, [r6], -r0
    2c64:	00250701 	eoreq	r0, r5, r1, lsl #14
    2c68:	18040000 	stmdane	r4, {}	; <UNPREDICTABLE>
    2c6c:	00000396 	muleq	r0, r6, r3
    2c70:	0b012706 	bleq	4c890 <__bss_end__+0x427c0>
    2c74:	000006b2 			; <UNDEFINED> instruction: 0x000006b2
    2c78:	04050008 	streq	r0, [r5], #-8
    2c7c:	00000673 	andeq	r0, r0, r3, ror r6
    2c80:	06660405 	strbteq	r0, [r6], -r5, lsl #8
    2c84:	211a0000 	tstcs	sl, r0
    2c88:	0e000000 	cdpeq	0, 0, cr0, cr0, cr0, {0}
    2c8c:	08013f06 	stmdaeq	r1, {r1, r2, r8, r9, sl, fp, ip, sp}
    2c90:	000006f1 	strdeq	r0, [r0], -r1
    2c94:	00041318 	andeq	r1, r4, r8, lsl r3
    2c98:	01400600 	cmpeq	r0, r0, lsl #12
    2c9c:	0006f112 	andeq	pc, r6, r2, lsl r1	; <UNPREDICTABLE>
    2ca0:	47180000 	ldrmi	r0, [r8, -r0]
    2ca4:	06000004 	streq	r0, [r0], -r4
    2ca8:	f1120141 			; <UNDEFINED> instruction: 0xf1120141
    2cac:	06000006 	streq	r0, [r0], -r6
    2cb0:	00046318 	andeq	r6, r4, r8, lsl r3
    2cb4:	01420600 	cmpeq	r2, r0, lsl #12
    2cb8:	00006212 	andeq	r6, r0, r2, lsl r2
    2cbc:	0a000c00 	beq	5cc4 <_start-0x233c>
    2cc0:	00000062 	andeq	r0, r0, r2, rrx
    2cc4:	00000701 	andeq	r0, r0, r1, lsl #14
    2cc8:	00002c0b 	andeq	r2, r0, fp, lsl #24
    2ccc:	1b000200 	blne	34d4 <_start-0x4b2c>
    2cd0:	028006d0 	addeq	r0, r0, #208, 12	; 0xd000000
    2cd4:	00081607 	andeq	r1, r8, r7, lsl #12
    2cd8:	049b1800 	ldreq	r1, [fp], #2048	; 0x800
    2cdc:	82060000 	andhi	r0, r6, #0
    2ce0:	002c1802 	eoreq	r1, ip, r2, lsl #16
    2ce4:	18000000 	stmdane	r0, {}	; <UNPREDICTABLE>
    2ce8:	0000044d 	andeq	r0, r0, sp, asr #8
    2cec:	12028306 	andne	r8, r2, #402653184	; 0x18000000
    2cf0:	0000012f 	andeq	r0, r0, pc, lsr #2
    2cf4:	024a1804 	subeq	r1, sl, #4, 16	; 0x40000
    2cf8:	84060000 	strhi	r0, [r6], #-0
    2cfc:	08161002 	ldmdaeq	r6, {r1, ip}
    2d00:	18080000 	stmdane	r8, {}	; <UNPREDICTABLE>
    2d04:	000004fb 	strdeq	r0, [r0], -fp
    2d08:	17028506 	strne	r8, [r2, -r6, lsl #10]
    2d0c:	000001bd 			; <UNDEFINED> instruction: 0x000001bd
    2d10:	01b81824 			; <UNDEFINED> instruction: 0x01b81824
    2d14:	86060000 	strhi	r0, [r6], -r0
    2d18:	00250f02 	eoreq	r0, r5, r2, lsl #30
    2d1c:	18480000 	stmdane	r8, {}^	; <UNPREDICTABLE>
    2d20:	000003bf 			; <UNDEFINED> instruction: 0x000003bf
    2d24:	2c028706 	stccs	7, cr8, [r2], {6}
    2d28:	0000007c 	andeq	r0, r0, ip, ror r0
    2d2c:	05111850 	ldreq	r1, [r1, #-2128]	; 0xfffff7b0
    2d30:	88060000 	stmdahi	r6, {}	; <UNPREDICTABLE>
    2d34:	06b81a02 	ldrteq	r1, [r8], r2, lsl #20
    2d38:	18580000 	ldmdane	r8, {}^	; <UNPREDICTABLE>
    2d3c:	000003ca 	andeq	r0, r0, sl, asr #7
    2d40:	16028906 	strne	r8, [r2], -r6, lsl #18
    2d44:	00000115 	andeq	r0, r0, r5, lsl r1
    2d48:	05161868 	ldreq	r1, [r6, #-2152]	; 0xfffff798
    2d4c:	8a060000 	bhi	182d54 <__bss_end__+0x178c84>
    2d50:	01151602 	tsteq	r5, r2, lsl #12
    2d54:	18700000 	ldmdane	r0!, {}^	; <UNPREDICTABLE>
    2d58:	000002ce 	andeq	r0, r0, lr, asr #5
    2d5c:	16028b06 	strne	r8, [r2], -r6, lsl #22
    2d60:	00000115 	andeq	r0, r0, r5, lsl r1
    2d64:	04c61878 	strbeq	r1, [r6], #2168	; 0x878
    2d68:	8c060000 	stchi	0, cr0, [r6], {-0}
    2d6c:	08261002 	stmdaeq	r6!, {r1, ip}
    2d70:	18800000 	stmne	r0, {}	; <UNPREDICTABLE>
    2d74:	0000023e 	andeq	r0, r0, lr, lsr r2
    2d78:	10028d06 	andne	r8, r2, r6, lsl #26
    2d7c:	00000836 	andeq	r0, r0, r6, lsr r8
    2d80:	04701888 	ldrbteq	r1, [r0], #-2184	; 0xfffff778
    2d84:	8e060000 	cdphi	0, 0, cr0, cr6, cr0, {0}
    2d88:	00250f02 	eoreq	r0, r5, r2, lsl #30
    2d8c:	18a00000 	stmiane	r0!, {}	; <UNPREDICTABLE>
    2d90:	0000017e 	andeq	r0, r0, lr, ror r1
    2d94:	16028f06 	strne	r8, [r2], -r6, lsl #30
    2d98:	00000115 	andeq	r0, r0, r5, lsl r1
    2d9c:	008f18a4 	addeq	r1, pc, r4, lsr #17
    2da0:	90060000 	andls	r0, r6, r0
    2da4:	01151602 	tsteq	r5, r2, lsl #12
    2da8:	18ac0000 	stmiane	ip!, {}	; <UNPREDICTABLE>
    2dac:	0000016d 	andeq	r0, r0, sp, ror #2
    2db0:	16029106 	strne	r9, [r2], -r6, lsl #2
    2db4:	00000115 	andeq	r0, r0, r5, lsl r1
    2db8:	003c18b4 	ldrhteq	r1, [ip], -r4
    2dbc:	92060000 	andls	r0, r6, #0
    2dc0:	01151602 	tsteq	r5, r2, lsl #12
    2dc4:	18bc0000 	ldmne	ip!, {}	; <UNPREDICTABLE>
    2dc8:	0000004b 	andeq	r0, r0, fp, asr #32
    2dcc:	16029306 	strne	r9, [r2], -r6, lsl #6
    2dd0:	00000115 	andeq	r0, r0, r5, lsl r1
    2dd4:	036e18c4 	cmneq	lr, #196, 16	; 0xc40000
    2dd8:	94060000 	strls	r0, [r6], #-0
    2ddc:	00250802 	eoreq	r0, r5, r2, lsl #16
    2de0:	00cc0000 	sbceq	r0, ip, r0
    2de4:	0001350a 	andeq	r3, r1, sl, lsl #10
    2de8:	00082600 	andeq	r2, r8, r0, lsl #12
    2dec:	002c0b00 	eoreq	r0, ip, r0, lsl #22
    2df0:	00190000 	andseq	r0, r9, r0
    2df4:	0001350a 	andeq	r3, r1, sl, lsl #10
    2df8:	00083600 	andeq	r3, r8, r0, lsl #12
    2dfc:	002c0b00 	eoreq	r0, ip, r0, lsl #22
    2e00:	00070000 	andeq	r0, r7, r0
    2e04:	0001350a 	andeq	r3, r1, sl, lsl #10
    2e08:	00084600 	andeq	r4, r8, r0, lsl #12
    2e0c:	002c0b00 	eoreq	r0, ip, r0, lsl #22
    2e10:	00170000 	andseq	r0, r7, r0
    2e14:	9906f01b 	stmdbls	r6, {r0, r1, r3, r4, ip, sp, lr, pc}
    2e18:	086d0702 	stmdaeq	sp!, {r1, r8, r9, sl}^
    2e1c:	9a180000 	bls	602e24 <__bss_end__+0x5f8d54>
    2e20:	06000002 	streq	r0, [r0], -r2
    2e24:	6d1b029c 	lfmvs	f0, 4, [fp, #-624]	; 0xfffffd90
    2e28:	00000008 	andeq	r0, r0, r8
    2e2c:	0004bd18 	andeq	fp, r4, r8, lsl sp
    2e30:	029d0600 	addseq	r0, sp, #0, 12
    2e34:	00087d18 	andeq	r7, r8, r8, lsl sp
    2e38:	0a007800 	beq	20e40 <__bss_end__+0x16d70>
    2e3c:	0000031d 	andeq	r0, r0, sp, lsl r3
    2e40:	0000087d 	andeq	r0, r0, sp, ror r8
    2e44:	00002c0b 	andeq	r2, r0, fp, lsl #24
    2e48:	0a001d00 	beq	a250 <__bss_end__+0x180>
    2e4c:	0000002c 	andeq	r0, r0, ip, lsr #32
    2e50:	0000088d 	andeq	r0, r0, sp, lsl #17
    2e54:	00002c0b 	andeq	r2, r0, fp, lsl #24
    2e58:	1c001d00 	stcne	13, cr1, [r0], {-0}
    2e5c:	027e06f0 	rsbseq	r0, lr, #240, 12	; 0xf000000
    2e60:	0008b203 	andeq	fp, r8, r3, lsl #4
    2e64:	040c1d00 	streq	r1, [ip], #-3328	; 0xfffff300
    2e68:	95060000 	strls	r0, [r6, #-0]
    2e6c:	07010b02 	streq	r0, [r1, -r2, lsl #22]
    2e70:	e81d0000 	ldmda	sp, {}	; <UNPREDICTABLE>
    2e74:	06000004 	streq	r0, [r0], -r4
    2e78:	460b029e 			; <UNDEFINED> instruction: 0x460b029e
    2e7c:	00000008 	andeq	r0, r0, r8
    2e80:	0001350a 	andeq	r3, r1, sl, lsl #10
    2e84:	0008c200 	andeq	ip, r8, r0, lsl #4
    2e88:	002c0b00 	eoreq	r0, ip, r0, lsl #22
    2e8c:	00180000 	andseq	r0, r8, r0
    2e90:	00008406 	andeq	r8, r0, r6, lsl #8
    2e94:	c2040500 	andgt	r0, r4, #0, 10
    2e98:	1e000008 	cdpne	0, 0, cr0, cr0, cr8, {0}
    2e9c:	000008d8 	ldrdeq	r0, [r0], -r8
    2ea0:	00048416 	andeq	r8, r4, r6, lsl r4
    2ea4:	04050000 	streq	r0, [r5], #-0
    2ea8:	000008cd 	andeq	r0, r0, sp, asr #17
    2eac:	01a70405 			; <UNDEFINED> instruction: 0x01a70405
    2eb0:	ef1e0000 	svc	0x001e0000
    2eb4:	16000008 	strne	r0, [r0], -r8
    2eb8:	00000025 	andeq	r0, r0, r5, lsr #32
    2ebc:	f5040500 			; <UNDEFINED> instruction: 0xf5040500
    2ec0:	05000008 	streq	r0, [r0, #-8]
    2ec4:	0008e404 	andeq	lr, r8, r4, lsl #8
    2ec8:	06660a00 	strbteq	r0, [r6], -r0, lsl #20
    2ecc:	090b0000 	stmdbeq	fp, {}	; <UNPREDICTABLE>
    2ed0:	2c0b0000 	stccs	0, cr0, [fp], {-0}
    2ed4:	02000000 	andeq	r0, r0, #0
    2ed8:	04841f00 	streq	r1, [r4], #3840	; 0xf00
    2edc:	2e060000 	cdpcs	0, 0, cr0, cr6, cr0, {0}
    2ee0:	04841703 	streq	r1, [r4], #1795	; 0x703
    2ee4:	7d1f0000 	ldcvc	0, cr0, [pc, #-0]	; 2eec <_start-0x5114>
    2ee8:	06000004 	streq	r0, [r0], -r4
    2eec:	8a1d032f 	bhi	743bb0 <__bss_end__+0x739ae0>
    2ef0:	15000004 	strne	r0, [r0, #-4]
    2ef4:	00000025 	andeq	r0, r0, r5, lsr #32
    2ef8:	00000934 	andeq	r0, r0, r4, lsr r9
    2efc:	00002516 	andeq	r2, r0, r6, lsl r5
    2f00:	d1200000 			; <UNDEFINED> instruction: 0xd1200000
    2f04:	07000001 	streq	r0, [r0, -r1]
    2f08:	09400e1d 	stmdbeq	r0, {r0, r2, r3, r4, r9, sl, fp}^
    2f0c:	04050000 	streq	r0, [r5], #-0
    2f10:	00000925 	andeq	r0, r0, r5, lsr #18
    2f14:	00002515 	andeq	r2, r0, r5, lsl r5
    2f18:	00095500 	andeq	r5, r9, r0, lsl #10
    2f1c:	05fc1600 	ldrbeq	r1, [ip, #1536]!	; 0x600
    2f20:	20000000 	andcs	r0, r0, r0
    2f24:	0000078c 	andeq	r0, r0, ip, lsl #15
    2f28:	610e2207 	tstvs	lr, r7, lsl #4
    2f2c:	05000009 	streq	r0, [r0, #-9]
    2f30:	00094604 	andeq	r4, r9, r4, lsl #12
    2f34:	055e2100 	ldrbeq	r2, [lr, #-256]	; 0xffffff00
    2f38:	0f010000 	svceq	0x00010000
    2f3c:	0000690a 	andeq	r6, r0, sl, lsl #18
    2f40:	0089d000 	addeq	sp, r9, r0
    2f44:	0000ec00 	andeq	lr, r0, r0, lsl #24
    2f48:	fa9c0100 	blx	fe703350 <__bss_end__+0xfe6f9280>
    2f4c:	22000009 	andcs	r0, r0, #9
    2f50:	00000b13 	andeq	r0, r0, r3, lsl fp
    2f54:	fa210f01 	blx	846b60 <__bss_end__+0x83ca90>
    2f58:	12000009 	andne	r0, r0, #9
    2f5c:	0a000009 	beq	2f88 <_start-0x5078>
    2f60:	23000009 	movwcs	r0, #9
    2f64:	006e656c 	rsbeq	r6, lr, ip, ror #10
    2f68:	252c0f01 	strcs	r0, [ip, #-3841]!	; 0xfffff0ff
    2f6c:	56000000 	strpl	r0, [r0], -r0
    2f70:	4c000009 	stcmi	0, cr0, [r0], {9}
    2f74:	24000009 	strcs	r0, [r0], #-9
    2f78:	00000b14 	andeq	r0, r0, r4, lsl fp
    2f7c:	fc121001 	ldc2	0, cr1, [r2], {1}
    2f80:	9d000005 	stcls	0, cr0, [r0, #-20]	; 0xffffffec
    2f84:	95000009 	strls	r0, [r0, #-9]
    2f88:	24000009 	strcs	r0, [r0], #-9
    2f8c:	00000563 	andeq	r0, r0, r3, ror #10
    2f90:	690a1101 	stmdbvs	sl, {r0, r8, ip}
    2f94:	e2000000 	and	r0, r0, #0
    2f98:	d4000009 	strle	r0, [r0], #-9
    2f9c:	25000009 	strcs	r0, [r0, #-9]
    2fa0:	00706d74 	rsbseq	r6, r0, r4, ror sp
    2fa4:	69161101 	ldmdbvs	r6, {r0, r8, ip}
    2fa8:	3d000000 	stccc	0, cr0, [r0, #-0]
    2fac:	3700000a 	strcc	r0, [r0, -sl]
    2fb0:	2500000a 	strcs	r0, [r0, #-10]
    2fb4:	006d6572 	rsbeq	r6, sp, r2, ror r5
    2fb8:	25051201 	strcs	r1, [r5, #-513]	; 0xfffffdff
    2fbc:	8a000000 	bhi	2fc4 <_start-0x503c>
    2fc0:	8800000a 	stmdahi	r0, {r1, r3}
    2fc4:	0000000a 	andeq	r0, r0, sl
    2fc8:	0a000405 	beq	3fe4 <_start-0x401c>
    2fcc:	00260000 	eoreq	r0, r6, r0
    2fd0:	0000097c 	andeq	r0, r0, ip, ror r9
    2fd4:	07d40004 	ldrbeq	r0, [r4, r4]
    2fd8:	01040000 	mrseq	r0, (UNDEF: 4)
    2fdc:	000002ef 	andeq	r0, r0, pc, ror #5
    2fe0:	0007080c 	andeq	r0, r7, ip, lsl #16
    2fe4:	0006e500 	andeq	lr, r6, r0, lsl #10
    2fe8:	008abc00 	addeq	fp, sl, r0, lsl #24
    2fec:	00001800 	andeq	r1, r0, r0, lsl #16
    2ff0:	000af000 	andeq	pc, sl, r0
    2ff4:	05040200 	streq	r0, [r4, #-512]	; 0xfffffe00
    2ff8:	00746e69 	rsbseq	r6, r4, r9, ror #28
    2ffc:	00070103 	andeq	r0, r7, r3, lsl #2
    3000:	17d10200 	ldrbne	r0, [r1, r0, lsl #4]
    3004:	00000038 	andeq	r0, r0, r8, lsr r0
    3008:	66070404 	strvs	r0, [r7], -r4, lsl #8
    300c:	04000000 	streq	r0, [r0], #-0
    3010:	02de0601 	sbcseq	r0, lr, #1048576	; 0x100000
    3014:	01040000 	mrseq	r0, (UNDEF: 4)
    3018:	0002dc08 	andeq	sp, r2, r8, lsl #24
    301c:	05020400 	streq	r0, [r2, #-1024]	; 0xfffffc00
    3020:	00000377 	andeq	r0, r0, r7, ror r3
    3024:	22070204 	andcs	r0, r7, #4, 4	; 0x40000000
    3028:	04000002 	streq	r0, [r0], #-2
    302c:	00ac0504 	adceq	r0, ip, r4, lsl #10
    3030:	04040000 	streq	r0, [r4], #-0
    3034:	00006107 	andeq	r6, r0, r7, lsl #2
    3038:	05080400 	streq	r0, [r8, #-1024]	; 0xfffffc00
    303c:	000000a7 	andeq	r0, r0, r7, lsr #1
    3040:	5c070804 	stcpl	8, cr0, [r7], {4}
    3044:	03000000 	movweq	r0, #0
    3048:	00000265 	andeq	r0, r0, r5, ror #4
    304c:	83192203 	tsthi	r9, #805306368	; 0x30000000
    3050:	05000000 	streq	r0, [r0, #-0]
    3054:	00008904 	andeq	r8, r0, r4, lsl #18
    3058:	04210600 	strteq	r0, [r1], #-1536	; 0xfffffa00
    305c:	bd030000 	stclt	0, cr0, [r3, #-0]
    3060:	04000002 	streq	r0, [r0], #-2
    3064:	005b0e2c 	subseq	r0, fp, ip, lsr #28
    3068:	36030000 	strcc	r0, [r3], -r0
    306c:	04000004 	streq	r0, [r0], #-4
    3070:	005b0e72 	subseq	r0, fp, r2, ror lr
    3074:	6d070000 	stcvs	0, cr0, [r7, #-0]
    3078:	02000002 	andeq	r0, r0, #2
    307c:	3817015e 	ldmdacc	r7, {r1, r2, r3, r4, r6, r8}
    3080:	08000000 	stmdaeq	r0, {}	; <UNPREDICTABLE>
    3084:	03a60404 			; <UNDEFINED> instruction: 0x03a60404
    3088:	000000d5 	ldrdeq	r0, [r0], -r5
    308c:	00025f09 	andeq	r5, r2, r9, lsl #30
    3090:	0ca80400 	cfstrseq	mvf0, [r8]
    3094:	000000a6 	andeq	r0, r0, r6, lsr #1
    3098:	0001e209 	andeq	lr, r1, r9, lsl #4
    309c:	13a90400 			; <UNDEFINED> instruction: 0x13a90400
    30a0:	000000d5 	ldrdeq	r0, [r0], -r5
    30a4:	00460a00 	subeq	r0, r6, r0, lsl #20
    30a8:	00e50000 	rsceq	r0, r5, r0
    30ac:	380b0000 	stmdacc	fp, {}	; <UNPREDICTABLE>
    30b0:	03000000 	movweq	r0, #0
    30b4:	04080c00 	streq	r0, [r8], #-3072	; 0xfffff400
    30b8:	010909a3 	smlatbeq	r9, r3, r9, r0
    30bc:	190d0000 	stmdbne	sp, {}	; <UNPREDICTABLE>
    30c0:	04000004 	streq	r0, [r0], #-4
    30c4:	002507a5 	eoreq	r0, r5, r5, lsr #15
    30c8:	0d000000 	stceq	0, cr0, [r0, #-0]
    30cc:	00000428 	andeq	r0, r0, r8, lsr #8
    30d0:	b305aa04 	movwlt	sl, #23044	; 0x5a04
    30d4:	04000000 	streq	r0, [r0], #-0
    30d8:	03a30300 			; <UNDEFINED> instruction: 0x03a30300
    30dc:	ab040000 	blge	1030e4 <__bss_end__+0xf9014>
    30e0:	0000e503 	andeq	lr, r0, r3, lsl #10
    30e4:	019f0300 	orrseq	r0, pc, r0, lsl #6
    30e8:	af040000 	svcge	0x00040000
    30ec:	0000771b 	andeq	r7, r0, fp, lsl r7
    30f0:	05040e00 	streq	r0, [r4, #-3584]	; 0xfffff200
    30f4:	00012904 	andeq	r2, r1, r4, lsl #18
    30f8:	08010400 	stmdaeq	r1, {sl}
    30fc:	000002e5 	andeq	r0, r0, r5, ror #5
    3100:	0001290f 	andeq	r2, r1, pc, lsl #18
    3104:	04680300 	strbteq	r0, [r8], #-768	; 0xfffffd00
    3108:	16050000 	strne	r0, [r5], -r0
    310c:	00006219 	andeq	r6, r0, r9, lsl r2
    3110:	01b01000 	movseq	r1, r0
    3114:	05180000 	ldreq	r0, [r8, #-0]
    3118:	019b082f 	orrseq	r0, fp, pc, lsr #16
    311c:	c40d0000 	strgt	r0, [sp], #-0
    3120:	05000003 	streq	r0, [r0, #-3]
    3124:	019b1331 	orrseq	r1, fp, r1, lsr r3
    3128:	11000000 	mrsne	r0, (UNDEF: 0)
    312c:	05006b5f 	streq	r6, [r0, #-2911]	; 0xfffff4a1
    3130:	00250732 	eoreq	r0, r5, r2, lsr r7
    3134:	0d040000 	stceq	0, cr0, [r4, #-0]
    3138:	00000404 	andeq	r0, r0, r4, lsl #8
    313c:	250b3205 	strcs	r3, [fp, #-517]	; 0xfffffdfb
    3140:	08000000 	stmdaeq	r0, {}	; <UNPREDICTABLE>
    3144:	0001990d 	andeq	r9, r1, sp, lsl #18
    3148:	14320500 	ldrtne	r0, [r2], #-1280	; 0xfffffb00
    314c:	00000025 	andeq	r0, r0, r5, lsr #32
    3150:	04a80d0c 	strteq	r0, [r8], #3340	; 0xd0c
    3154:	32050000 	andcc	r0, r5, #0
    3158:	0000251b 	andeq	r2, r0, fp, lsl r5
    315c:	5f111000 	svcpl	0x00111000
    3160:	33050078 	movwcc	r0, #20600	; 0x5078
    3164:	0001a10b 	andeq	sl, r1, fp, lsl #2
    3168:	05001400 	streq	r1, [r0, #-1024]	; 0xfffffc00
    316c:	00014104 	andeq	r4, r1, r4, lsl #2
    3170:	01350a00 	teqeq	r5, r0, lsl #20
    3174:	01b10000 			; <UNDEFINED> instruction: 0x01b10000
    3178:	380b0000 	stmdacc	fp, {}	; <UNPREDICTABLE>
    317c:	00000000 	andeq	r0, r0, r0
    3180:	01dd1000 	bicseq	r1, sp, r0
    3184:	05240000 	streq	r0, [r4, #-0]!
    3188:	02340837 	eorseq	r0, r4, #3604480	; 0x370000
    318c:	9e0d0000 	cdpls	0, 0, cr0, cr13, cr0, {0}
    3190:	05000000 	streq	r0, [r0, #-0]
    3194:	00250939 	eoreq	r0, r5, r9, lsr r9
    3198:	0d000000 	stceq	0, cr0, [r0, #-0]
    319c:	0000043e 	andeq	r0, r0, lr, lsr r4
    31a0:	25093a05 	strcs	r3, [r9, #-2565]	; 0xfffff5fb
    31a4:	04000000 	streq	r0, [r0], #-0
    31a8:	0000c10d 	andeq	ip, r0, sp, lsl #2
    31ac:	093b0500 	ldmdbeq	fp!, {r8, sl}
    31b0:	00000025 	andeq	r0, r0, r5, lsr #32
    31b4:	05330d08 	ldreq	r0, [r3, #-3336]!	; 0xfffff2f8
    31b8:	3c050000 	stccc	0, cr0, [r5], {-0}
    31bc:	00002509 	andeq	r2, r0, r9, lsl #10
    31c0:	a10d0c00 	tstge	sp, r0, lsl #24
    31c4:	05000002 	streq	r0, [r0, #-2]
    31c8:	0025093d 	eoreq	r0, r5, sp, lsr r9
    31cc:	0d100000 	ldceq	0, cr0, [r0, #-0]
    31d0:	00000283 	andeq	r0, r0, r3, lsl #5
    31d4:	25093e05 	strcs	r3, [r9, #-3589]	; 0xfffff1fb
    31d8:	14000000 	strne	r0, [r0], #-0
    31dc:	0004ad0d 	andeq	sl, r4, sp, lsl #26
    31e0:	093f0500 	ldmdbeq	pc!, {r8, sl}	; <UNPREDICTABLE>
    31e4:	00000025 	andeq	r0, r0, r5, lsr #32
    31e8:	05290d18 	streq	r0, [r9, #-3352]!	; 0xfffff2e8
    31ec:	40050000 	andmi	r0, r5, r0
    31f0:	00002509 	andeq	r2, r0, r9, lsl #10
    31f4:	f00d1c00 			; <UNDEFINED> instruction: 0xf00d1c00
    31f8:	05000004 	streq	r0, [r0, #-4]
    31fc:	00250941 	eoreq	r0, r5, r1, asr #18
    3200:	00200000 	eoreq	r0, r0, r0
    3204:	00010112 	andeq	r0, r1, r2, lsl r1
    3208:	05010800 	streq	r0, [r1, #-2048]	; 0xfffff800
    320c:	0279084a 	rsbseq	r0, r9, #4849664	; 0x4a0000
    3210:	8c0d0000 	stchi	0, cr0, [sp], {-0}
    3214:	05000001 	streq	r0, [r0, #-1]
    3218:	02790a4b 	rsbseq	r0, r9, #307200	; 0x4b000
    321c:	0d000000 	stceq	0, cr0, [r0, #-0]
    3220:	00000000 	andeq	r0, r0, r0
    3224:	79094c05 	stmdbvc	r9, {r0, r2, sl, fp, lr}
    3228:	80000002 	andhi	r0, r0, r2
    322c:	00045a13 	andeq	r5, r4, r3, lsl sl
    3230:	0a4e0500 	beq	1384638 <__bss_end__+0x137a568>
    3234:	00000135 	andeq	r0, r0, r5, lsr r1
    3238:	26130100 	ldrcs	r0, [r3], -r0, lsl #2
    323c:	05000001 	streq	r0, [r0, #-1]
    3240:	01350a51 	teqeq	r5, r1, asr sl
    3244:	01040000 	mrseq	r0, (UNDEF: 4)
    3248:	01210a00 			; <UNDEFINED> instruction: 0x01210a00
    324c:	02890000 	addeq	r0, r9, #0
    3250:	380b0000 	stmdacc	fp, {}	; <UNPREDICTABLE>
    3254:	1f000000 	svcne	0x00000000
    3258:	02aa1200 	adceq	r1, sl, #0, 4
    325c:	01900000 	orrseq	r0, r0, r0
    3260:	cc085d05 	stcgt	13, cr5, [r8], {5}
    3264:	0d000002 	stceq	0, cr0, [r0, #-8]
    3268:	000003c4 	andeq	r0, r0, r4, asr #7
    326c:	cc125e05 	ldcgt	14, cr5, [r2], {5}
    3270:	00000002 	andeq	r0, r0, r2
    3274:	0003dc0d 	andeq	sp, r3, sp, lsl #24
    3278:	065f0500 	ldrbeq	r0, [pc], -r0, lsl #10
    327c:	00000025 	andeq	r0, r0, r5, lsr #32
    3280:	01940d04 	orrseq	r0, r4, r4, lsl #26
    3284:	61050000 	mrsvs	r0, (UNDEF: 5)
    3288:	0002d209 	andeq	sp, r2, r9, lsl #4
    328c:	010d0800 	tsteq	sp, r0, lsl #16
    3290:	05000001 	streq	r0, [r0, #-1]
    3294:	02341e62 	eorseq	r1, r4, #1568	; 0x620
    3298:	00880000 	addeq	r0, r8, r0
    329c:	02890405 	addeq	r0, r9, #83886080	; 0x5000000
    32a0:	e20a0000 	and	r0, sl, #0
    32a4:	e2000002 	and	r0, r0, #2
    32a8:	0b000002 	bleq	32b8 <_start-0x4d48>
    32ac:	00000038 	andeq	r0, r0, r8, lsr r0
    32b0:	0405001f 	streq	r0, [r5], #-31	; 0xffffffe1
    32b4:	000002e8 	andeq	r0, r0, r8, ror #5
    32b8:	038f1014 	orreq	r1, pc, #20
    32bc:	05080000 	streq	r0, [r8, #-0]
    32c0:	03110875 	tsteq	r1, #7667712	; 0x750000
    32c4:	bb0d0000 	bllt	3432cc <__bss_end__+0x3391fc>
    32c8:	05000000 	streq	r0, [r0, #-0]
    32cc:	03111176 	tsteq	r1, #-2147483619	; 0x8000001d
    32d0:	0d000000 	stceq	0, cr0, [r0, #-0]
    32d4:	0000001b 	andeq	r0, r0, fp, lsl r0
    32d8:	25067705 	strcs	r7, [r6, #-1797]	; 0xfffff8fb
    32dc:	04000000 	streq	r0, [r0], #-0
    32e0:	46040500 	strmi	r0, [r4], -r0, lsl #10
    32e4:	10000000 	andne	r0, r0, r0
    32e8:	000003ae 	andeq	r0, r0, lr, lsr #7
    32ec:	08b50568 	ldmeq	r5!, {r3, r5, r6, r8, sl}
    32f0:	0000045a 	andeq	r0, r0, sl, asr r4
    32f4:	00705f11 	rsbseq	r5, r0, r1, lsl pc
    32f8:	1112b605 	tstne	r2, r5, lsl #12
    32fc:	00000003 	andeq	r0, r0, r3
    3300:	00725f11 	rsbseq	r5, r2, r1, lsl pc
    3304:	2507b705 	strcs	fp, [r7, #-1797]	; 0xfffff8fb
    3308:	04000000 	streq	r0, [r0], #-0
    330c:	00775f11 	rsbseq	r5, r7, r1, lsl pc
    3310:	2507b805 	strcs	fp, [r7, #-2053]	; 0xfffff7fb
    3314:	08000000 	stmdaeq	r0, {}	; <UNPREDICTABLE>
    3318:	00011f0d 	andeq	r1, r1, sp, lsl #30
    331c:	09b90500 	ldmibeq	r9!, {r8, sl}
    3320:	0000004d 	andeq	r0, r0, sp, asr #32
    3324:	02080d0c 	andeq	r0, r8, #12, 26	; 0x300
    3328:	ba050000 	blt	143330 <__bss_end__+0x139260>
    332c:	00004d09 	andeq	r4, r0, r9, lsl #26
    3330:	5f110e00 	svcpl	0x00110e00
    3334:	05006662 	streq	r6, [r0, #-1634]	; 0xfffff99e
    3338:	02e911bb 	rsceq	r1, r9, #-1073741778	; 0xc000002e
    333c:	0d100000 	ldceq	0, cr0, [r0, #-0]
    3340:	0000007b 	andeq	r0, r0, fp, ror r0
    3344:	2507bc05 	strcs	fp, [r7, #-3077]	; 0xfffff3fb
    3348:	18000000 	stmdane	r0, {}	; <UNPREDICTABLE>
    334c:	00010f0d 	andeq	r0, r1, sp, lsl #30
    3350:	0ac30500 	beq	ff0c4758 <__bss_end__+0xff0ba688>
    3354:	00000121 	andeq	r0, r0, r1, lsr #2
    3358:	0b720d1c 	bleq	1c867d0 <__bss_end__+0x1c7c700>
    335c:	c5050000 	strgt	r0, [r5, #-0]
    3360:	0005cc1d 	andeq	ip, r5, sp, lsl ip
    3364:	360d2000 	strcc	r2, [sp], -r0
    3368:	05000006 	streq	r0, [r0, #-6]
    336c:	05f61dc7 	ldrbeq	r1, [r6, #3527]!	; 0xdc7
    3370:	0d240000 	stceq	0, cr0, [r4, #-0]
    3374:	00000430 	andeq	r0, r0, r0, lsr r4
    3378:	1a0dca05 	bne	375b94 <__bss_end__+0x36bac4>
    337c:	28000006 	stmdacs	r0, {r1, r2}
    3380:	00050a0d 	andeq	r0, r5, sp, lsl #20
    3384:	09cb0500 	stmibeq	fp, {r8, sl}^
    3388:	00000634 	andeq	r0, r0, r4, lsr r6
    338c:	755f112c 	ldrbvc	r1, [pc, #-300]	; 3268 <_start-0x4d98>
    3390:	ce050062 	cdpgt	0, 0, cr0, cr5, cr2, {3}
    3394:	0002e911 	andeq	lr, r2, r1, lsl r9
    3398:	5f113000 	svcpl	0x00113000
    339c:	05007075 	streq	r7, [r0, #-117]	; 0xffffff8b
    33a0:	031112cf 	tsteq	r1, #-268435444	; 0xf000000c
    33a4:	11380000 	teqne	r8, r0
    33a8:	0072755f 	rsbseq	r7, r2, pc, asr r5
    33ac:	2507d005 	strcs	sp, [r7, #-5]
    33b0:	3c000000 	stccc	0, cr0, [r0], {-0}
    33b4:	0000b50d 	andeq	fp, r0, sp, lsl #10
    33b8:	11d30500 	bicsne	r0, r3, r0, lsl #10
    33bc:	0000063a 	andeq	r0, r0, sl, lsr r6
    33c0:	04e20d40 	strbteq	r0, [r2], #3392	; 0xd40
    33c4:	d4050000 	strle	r0, [r5], #-0
    33c8:	00064a11 	andeq	r4, r6, r1, lsl sl
    33cc:	5f114300 	svcpl	0x00114300
    33d0:	0500626c 	streq	r6, [r0, #-620]	; 0xfffffd94
    33d4:	02e911d7 	rsceq	r1, r9, #-1073741771	; 0xc0000035
    33d8:	0d440000 	stcleq	0, cr0, [r4, #-0]
    33dc:	0000013d 	andeq	r0, r0, sp, lsr r1
    33e0:	2507da05 	strcs	sp, [r7, #-2565]	; 0xfffff5fb
    33e4:	4c000000 	stcmi	0, cr0, [r0], {-0}
    33e8:	00014e0d 	andeq	r4, r1, sp, lsl #28
    33ec:	0adb0500 	beq	ff6c47f4 <__bss_end__+0xff6ba724>
    33f0:	0000008e 	andeq	r0, r0, lr, lsl #1
    33f4:	0b130d50 	bleq	4c693c <__bss_end__+0x4bc86c>
    33f8:	de050000 	cdple	0, 0, cr0, cr5, cr0, {0}
    33fc:	00047812 	andeq	r7, r4, r2, lsl r8
    3400:	220d5400 	andcs	r5, sp, #0, 8
    3404:	05000004 	streq	r0, [r0, #-4]
    3408:	01150ce2 	tsteq	r5, r2, ror #25
    340c:	0d580000 	ldcleq	0, cr0, [r8, #-0]
    3410:	000003b6 			; <UNDEFINED> instruction: 0x000003b6
    3414:	090ee405 	stmdbeq	lr, {r0, r2, sl, sp, lr, pc}
    3418:	5c000001 	stcpl	0, cr0, [r0], {1}
    341c:	00027b0d 	andeq	r7, r2, sp, lsl #22
    3420:	09e50500 	stmibeq	r5!, {r8, sl}^
    3424:	00000025 	andeq	r0, r0, r5, lsr #32
    3428:	25150064 	ldrcs	r0, [r5, #-100]	; 0xffffff9c
    342c:	78000000 	stmdavc	r0, {}	; <UNPREDICTABLE>
    3430:	16000004 	strne	r0, [r0], -r4
    3434:	00000478 	andeq	r0, r0, r8, ror r4
    3438:	00012116 	andeq	r2, r1, r6, lsl r1
    343c:	01231600 			; <UNDEFINED> instruction: 0x01231600
    3440:	25160000 	ldrcs	r0, [r6, #-0]
    3444:	00000000 	andeq	r0, r0, r0
    3448:	04830405 	streq	r0, [r3], #1029	; 0x405
    344c:	780f0000 	stmdavc	pc, {}	; <UNPREDICTABLE>
    3450:	17000004 	strne	r0, [r0, -r4]
    3454:	0000040c 	andeq	r0, r0, ip, lsl #8
    3458:	60050428 	andvs	r0, r5, r8, lsr #8
    345c:	05cc0802 	strbeq	r0, [ip, #2050]	; 0x802
    3460:	70180000 	andsvc	r0, r8, r0
    3464:	05000003 	streq	r0, [r0, #-3]
    3468:	25070262 	strcs	r0, [r7, #-610]	; 0xfffffd9e
    346c:	00000000 	andeq	r0, r0, r0
    3470:	00012e18 	andeq	r2, r1, r8, lsl lr
    3474:	02670500 	rsbeq	r0, r7, #0, 10
    3478:	0006a60b 	andeq	sl, r6, fp, lsl #12
    347c:	f8180400 			; <UNDEFINED> instruction: 0xf8180400
    3480:	05000001 	streq	r0, [r0, #-1]
    3484:	a6140267 	ldrge	r0, [r4], -r7, ror #4
    3488:	08000006 	stmdaeq	r0, {r1, r2}
    348c:	0001a818 	andeq	sl, r1, r8, lsl r8
    3490:	02670500 	rsbeq	r0, r7, #0, 10
    3494:	0006a61e 	andeq	sl, r6, lr, lsl r6
    3498:	d7180c00 	ldrle	r0, [r8, -r0, lsl #24]
    349c:	05000003 	streq	r0, [r0, #-3]
    34a0:	25080269 	strcs	r0, [r8, #-617]	; 0xfffffd97
    34a4:	10000000 	andne	r0, r0, r0
    34a8:	00002918 	andeq	r2, r0, r8, lsl r9
    34ac:	026a0500 	rsbeq	r0, sl, #0, 10
    34b0:	0008a608 	andeq	sl, r8, r8, lsl #12
    34b4:	eb181400 	bl	6084bc <__bss_end__+0x5fe3ec>
    34b8:	05000003 	streq	r0, [r0, #-3]
    34bc:	2507026d 	strcs	r0, [r7, #-621]	; 0xfffffd93
    34c0:	30000000 	andcc	r0, r0, r0
    34c4:	000a4f18 	andeq	r4, sl, r8, lsl pc
    34c8:	026e0500 	rsbeq	r0, lr, #0, 10
    34cc:	0008bb16 	andeq	fp, r8, r6, lsl fp
    34d0:	b2183400 	andslt	r3, r8, #0, 8
    34d4:	05000002 	streq	r0, [r0, #-2]
    34d8:	25070270 	strcs	r0, [r7, #-624]	; 0xfffffd90
    34dc:	38000000 	stmdacc	r0, {}	; <UNPREDICTABLE>
    34e0:	0003e118 	andeq	lr, r3, r8, lsl r1
    34e4:	02720500 	rsbseq	r0, r2, #0, 10
    34e8:	0008cc0a 	andeq	ip, r8, sl, lsl #24
    34ec:	57183c00 	ldrpl	r3, [r8, -r0, lsl #24]
    34f0:	05000002 	streq	r0, [r0, #-2]
    34f4:	9b130275 	blls	4c3ed0 <__bss_end__+0x4b9e00>
    34f8:	40000001 	andmi	r0, r0, r1
    34fc:	0001c718 	andeq	ip, r1, r8, lsl r7
    3500:	02760500 	rsbseq	r0, r6, #0, 10
    3504:	00002507 	andeq	r2, r0, r7, lsl #10
    3508:	24184400 	ldrcs	r4, [r8], #-1024	; 0xfffffc00
    350c:	05000005 	streq	r0, [r0, #-5]
    3510:	9b130277 	blls	4c3ef4 <__bss_end__+0x4b9e24>
    3514:	48000001 	stmdami	r0, {r0}
    3518:	0002c418 	andeq	ip, r2, r8, lsl r4
    351c:	02780500 	rsbseq	r0, r8, #0, 10
    3520:	0008d214 	andeq	sp, r8, r4, lsl r2
    3524:	00184c00 	andseq	r4, r8, r0, lsl #24
    3528:	05000002 	streq	r0, [r0, #-2]
    352c:	2507027b 	strcs	r0, [r7, #-635]	; 0xfffffd85
    3530:	50000000 	andpl	r0, r0, r0
    3534:	00014618 	andeq	r4, r1, r8, lsl r6
    3538:	027c0500 	rsbseq	r0, ip, #0, 10
    353c:	00012309 	andeq	r2, r1, r9, lsl #6
    3540:	ea185400 	b	618548 <__bss_end__+0x60e478>
    3544:	05000002 	streq	r0, [r0, #-2]
    3548:	8107029f 			; <UNDEFINED> instruction: 0x8107029f
    354c:	58000008 	stmdapl	r0, {r3}
    3550:	0002aa19 	andeq	sl, r2, r9, lsl sl
    3554:	02a30500 	adceq	r0, r3, #0, 10
    3558:	0002cc13 	andeq	ip, r2, r3, lsl ip
    355c:	19014800 	stmdbne	r1, {fp, lr}
    3560:	00000235 	andeq	r0, r0, r5, lsr r2
    3564:	1202a405 	andne	sl, r2, #83886080	; 0x5000000
    3568:	00000289 	andeq	r0, r0, r9, lsl #5
    356c:	d019014c 	andsle	r0, r9, ip, asr #2
    3570:	05000004 	streq	r0, [r0, #-4]
    3574:	e30c02a8 	movw	r0, #49832	; 0xc2a8
    3578:	dc000008 	stcle	0, cr0, [r0], {8}
    357c:	01171902 	tsteq	r7, r2, lsl #18
    3580:	ad050000 	stcge	0, cr0, [r5, #-0]
    3584:	06671002 	strbteq	r1, [r7], -r2
    3588:	02e00000 	rsceq	r0, r0, #0
    358c:	0000fc19 	andeq	pc, r0, r9, lsl ip	; <UNPREDICTABLE>
    3590:	02af0500 	adceq	r0, pc, #0, 10
    3594:	0008ef0a 	andeq	lr, r8, sl, lsl #30
    3598:	0002ec00 	andeq	lr, r2, r0, lsl #24
    359c:	045a0405 	ldrbeq	r0, [sl], #-1029	; 0xfffffbfb
    35a0:	25150000 	ldrcs	r0, [r5, #-0]
    35a4:	f0000000 			; <UNDEFINED> instruction: 0xf0000000
    35a8:	16000005 	strne	r0, [r0], -r5
    35ac:	00000478 	andeq	r0, r0, r8, ror r4
    35b0:	00012116 	andeq	r2, r1, r6, lsl r1
    35b4:	05f01600 	ldrbeq	r1, [r0, #1536]!	; 0x600
    35b8:	25160000 	ldrcs	r0, [r6, #-0]
    35bc:	00000000 	andeq	r0, r0, r0
    35c0:	01300405 	teqeq	r0, r5, lsl #8
    35c4:	04050000 	streq	r0, [r5], #-0
    35c8:	000005d2 	ldrdeq	r0, [r0], -r2
    35cc:	00009a15 	andeq	r9, r0, r5, lsl sl
    35d0:	00061a00 	andeq	r1, r6, r0, lsl #20
    35d4:	04781600 	ldrbteq	r1, [r8], #-1536	; 0xfffffa00
    35d8:	21160000 	tstcs	r6, r0
    35dc:	16000001 	strne	r0, [r0], -r1
    35e0:	0000009a 	muleq	r0, sl, r0
    35e4:	00002516 	andeq	r2, r0, r6, lsl r5
    35e8:	04050000 	streq	r0, [r5], #-0
    35ec:	000005fc 	strdeq	r0, [r0], -ip
    35f0:	00002515 	andeq	r2, r0, r5, lsl r5
    35f4:	00063400 	andeq	r3, r6, r0, lsl #8
    35f8:	04781600 	ldrbteq	r1, [r8], #-1536	; 0xfffffa00
    35fc:	21160000 	tstcs	r6, r0
    3600:	00000001 	andeq	r0, r0, r1
    3604:	06200405 	strteq	r0, [r0], -r5, lsl #8
    3608:	460a0000 	strmi	r0, [sl], -r0
    360c:	4a000000 	bmi	3614 <_start-0x49ec>
    3610:	0b000006 	bleq	3630 <_start-0x49d0>
    3614:	00000038 	andeq	r0, r0, r8, lsr r0
    3618:	460a0002 	strmi	r0, [sl], -r2
    361c:	5a000000 	bpl	3624 <_start-0x49dc>
    3620:	0b000006 	bleq	3640 <_start-0x49c0>
    3624:	00000038 	andeq	r0, r0, r8, lsr r0
    3628:	9c070000 	stcls	0, cr0, [r7], {-0}
    362c:	05000003 	streq	r0, [r0, #-3]
    3630:	171a011f 			; <UNDEFINED> instruction: 0x171a011f
    3634:	1a000003 	bne	3648 <_start-0x49b8>
    3638:	000004b7 			; <UNDEFINED> instruction: 0x000004b7
    363c:	0123050c 			; <UNDEFINED> instruction: 0x0123050c
    3640:	0006a008 	andeq	sl, r6, r8
    3644:	03c41800 	biceq	r1, r4, #0, 16
    3648:	25050000 	strcs	r0, [r5, #-0]
    364c:	06a01101 	strteq	r1, [r0], r1, lsl #2
    3650:	18000000 	stmdane	r0, {}	; <UNPREDICTABLE>
    3654:	0000021b 	andeq	r0, r0, fp, lsl r2
    3658:	07012605 	streq	r2, [r1, -r5, lsl #12]
    365c:	00000025 	andeq	r0, r0, r5, lsr #32
    3660:	03961804 	orrseq	r1, r6, #4, 16	; 0x40000
    3664:	27050000 	strcs	r0, [r5, -r0]
    3668:	06a60b01 	strteq	r0, [r6], r1, lsl #22
    366c:	00080000 	andeq	r0, r8, r0
    3670:	06670405 	strbteq	r0, [r7], -r5, lsl #8
    3674:	04050000 	streq	r0, [r5], #-0
    3678:	0000065a 	andeq	r0, r0, sl, asr r6
    367c:	0000211a 	andeq	r2, r0, sl, lsl r1
    3680:	3f050e00 	svccc	0x00050e00
    3684:	06e50801 	strbteq	r0, [r5], r1, lsl #16
    3688:	13180000 	tstne	r8, #0
    368c:	05000004 	streq	r0, [r0, #-4]
    3690:	e5120140 	ldr	r0, [r2, #-320]	; 0xfffffec0
    3694:	00000006 	andeq	r0, r0, r6
    3698:	00044718 	andeq	r4, r4, r8, lsl r7
    369c:	01410500 	cmpeq	r1, r0, lsl #10
    36a0:	0006e512 	andeq	lr, r6, r2, lsl r5
    36a4:	63180600 	tstvs	r8, #0, 12
    36a8:	05000004 	streq	r0, [r0, #-4]
    36ac:	54120142 	ldrpl	r0, [r2], #-322	; 0xfffffebe
    36b0:	0c000000 	stceq	0, cr0, [r0], {-0}
    36b4:	00540a00 	subseq	r0, r4, r0, lsl #20
    36b8:	06f50000 	ldrbteq	r0, [r5], r0
    36bc:	380b0000 	stmdacc	fp, {}	; <UNPREDICTABLE>
    36c0:	02000000 	andeq	r0, r0, #0
    36c4:	05d01b00 	ldrbeq	r1, [r0, #2816]	; 0xb00
    36c8:	0a070280 	beq	1c40d0 <__bss_end__+0x1ba000>
    36cc:	18000008 	stmdane	r0, {r3}
    36d0:	0000049b 	muleq	r0, fp, r4
    36d4:	18028205 	stmdane	r2, {r0, r2, r9, pc}
    36d8:	00000038 	andeq	r0, r0, r8, lsr r0
    36dc:	044d1800 	strbeq	r1, [sp], #-2048	; 0xfffff800
    36e0:	83050000 	movwhi	r0, #20480	; 0x5000
    36e4:	01231202 			; <UNDEFINED> instruction: 0x01231202
    36e8:	18040000 	stmdane	r4, {}	; <UNPREDICTABLE>
    36ec:	0000024a 	andeq	r0, r0, sl, asr #4
    36f0:	10028405 	andne	r8, r2, r5, lsl #8
    36f4:	0000080a 	andeq	r0, r0, sl, lsl #16
    36f8:	04fb1808 	ldrbteq	r1, [fp], #2056	; 0x808
    36fc:	85050000 	strhi	r0, [r5, #-0]
    3700:	01b11702 			; <UNDEFINED> instruction: 0x01b11702
    3704:	18240000 	stmdane	r4!, {}	; <UNPREDICTABLE>
    3708:	000001b8 			; <UNDEFINED> instruction: 0x000001b8
    370c:	0f028605 	svceq	0x00028605
    3710:	00000025 	andeq	r0, r0, r5, lsr #32
    3714:	03bf1848 			; <UNDEFINED> instruction: 0x03bf1848
    3718:	87050000 	strhi	r0, [r5, -r0]
    371c:	00702c02 	rsbseq	r2, r0, r2, lsl #24
    3720:	18500000 	ldmdane	r0, {}^	; <UNPREDICTABLE>
    3724:	00000511 	andeq	r0, r0, r1, lsl r5
    3728:	1a028805 	bne	a5744 <__bss_end__+0x9b674>
    372c:	000006ac 	andeq	r0, r0, ip, lsr #13
    3730:	03ca1858 	biceq	r1, sl, #88, 16	; 0x580000
    3734:	89050000 	stmdbhi	r5, {}	; <UNPREDICTABLE>
    3738:	01091602 	tsteq	r9, r2, lsl #12
    373c:	18680000 	stmdane	r8!, {}^	; <UNPREDICTABLE>
    3740:	00000516 	andeq	r0, r0, r6, lsl r5
    3744:	16028a05 	strne	r8, [r2], -r5, lsl #20
    3748:	00000109 	andeq	r0, r0, r9, lsl #2
    374c:	02ce1870 	sbceq	r1, lr, #112, 16	; 0x700000
    3750:	8b050000 	blhi	143758 <__bss_end__+0x139688>
    3754:	01091602 	tsteq	r9, r2, lsl #12
    3758:	18780000 	ldmdane	r8!, {}^	; <UNPREDICTABLE>
    375c:	000004c6 	andeq	r0, r0, r6, asr #9
    3760:	10028c05 	andne	r8, r2, r5, lsl #24
    3764:	0000081a 	andeq	r0, r0, sl, lsl r8
    3768:	023e1880 	eorseq	r1, lr, #128, 16	; 0x800000
    376c:	8d050000 	stchi	0, cr0, [r5, #-0]
    3770:	082a1002 	stmdaeq	sl!, {r1, ip}
    3774:	18880000 	stmne	r8, {}	; <UNPREDICTABLE>
    3778:	00000470 	andeq	r0, r0, r0, ror r4
    377c:	0f028e05 	svceq	0x00028e05
    3780:	00000025 	andeq	r0, r0, r5, lsr #32
    3784:	017e18a0 	cmneq	lr, r0, lsr #17
    3788:	8f050000 	svchi	0x00050000
    378c:	01091602 	tsteq	r9, r2, lsl #12
    3790:	18a40000 	stmiane	r4!, {}	; <UNPREDICTABLE>
    3794:	0000008f 	andeq	r0, r0, pc, lsl #1
    3798:	16029005 	strne	r9, [r2], -r5
    379c:	00000109 	andeq	r0, r0, r9, lsl #2
    37a0:	016d18ac 	cmneq	sp, ip, lsr #17
    37a4:	91050000 	mrsls	r0, (UNDEF: 5)
    37a8:	01091602 	tsteq	r9, r2, lsl #12
    37ac:	18b40000 	ldmne	r4!, {}	; <UNPREDICTABLE>
    37b0:	0000003c 	andeq	r0, r0, ip, lsr r0
    37b4:	16029205 	strne	r9, [r2], -r5, lsl #4
    37b8:	00000109 	andeq	r0, r0, r9, lsl #2
    37bc:	004b18bc 	strheq	r1, [fp], #-140	; 0xffffff74
    37c0:	93050000 	movwls	r0, #20480	; 0x5000
    37c4:	01091602 	tsteq	r9, r2, lsl #12
    37c8:	18c40000 	stmiane	r4, {}^	; <UNPREDICTABLE>
    37cc:	0000036e 	andeq	r0, r0, lr, ror #6
    37d0:	08029405 	stmdaeq	r2, {r0, r2, sl, ip, pc}
    37d4:	00000025 	andeq	r0, r0, r5, lsr #32
    37d8:	290a00cc 	stmdbcs	sl, {r2, r3, r6, r7}
    37dc:	1a000001 	bne	37e8 <_start-0x4818>
    37e0:	0b000008 	bleq	3808 <_start-0x47f8>
    37e4:	00000038 	andeq	r0, r0, r8, lsr r0
    37e8:	290a0019 	stmdbcs	sl, {r0, r3, r4}
    37ec:	2a000001 	bcs	37f8 <_start-0x4808>
    37f0:	0b000008 	bleq	3818 <_start-0x47e8>
    37f4:	00000038 	andeq	r0, r0, r8, lsr r0
    37f8:	290a0007 	stmdbcs	sl, {r0, r1, r2}
    37fc:	3a000001 	bcc	3808 <_start-0x47f8>
    3800:	0b000008 	bleq	3828 <_start-0x47d8>
    3804:	00000038 	andeq	r0, r0, r8, lsr r0
    3808:	f01b0017 			; <UNDEFINED> instruction: 0xf01b0017
    380c:	07029905 	streq	r9, [r2, -r5, lsl #18]
    3810:	00000861 	andeq	r0, r0, r1, ror #16
    3814:	00029a18 	andeq	r9, r2, r8, lsl sl
    3818:	029c0500 	addseq	r0, ip, #0, 10
    381c:	0008611b 	andeq	r6, r8, fp, lsl r1
    3820:	bd180000 	ldclt	0, cr0, [r8, #-0]
    3824:	05000004 	streq	r0, [r0, #-4]
    3828:	7118029d 			; <UNDEFINED> instruction: 0x7118029d
    382c:	78000008 	stmdavc	r0, {r3}
    3830:	03110a00 	tsteq	r1, #0, 20
    3834:	08710000 	ldmdaeq	r1!, {}^	; <UNPREDICTABLE>
    3838:	380b0000 	stmdacc	fp, {}	; <UNPREDICTABLE>
    383c:	1d000000 	stcne	0, cr0, [r0, #-0]
    3840:	00380a00 	eorseq	r0, r8, r0, lsl #20
    3844:	08810000 	stmeq	r1, {}	; <UNPREDICTABLE>
    3848:	380b0000 	stmdacc	fp, {}	; <UNPREDICTABLE>
    384c:	1d000000 	stcne	0, cr0, [r0, #-0]
    3850:	05f01c00 	ldrbeq	r1, [r0, #3072]!	; 0xc00
    3854:	a603027e 			; <UNDEFINED> instruction: 0xa603027e
    3858:	1d000008 	stcne	0, cr0, [r0, #-32]	; 0xffffffe0
    385c:	0000040c 	andeq	r0, r0, ip, lsl #8
    3860:	0b029505 	bleq	a8c7c <__bss_end__+0x9ebac>
    3864:	000006f5 	strdeq	r0, [r0], -r5
    3868:	0004e81d 	andeq	lr, r4, sp, lsl r8
    386c:	029e0500 	addseq	r0, lr, #0, 10
    3870:	00083a0b 	andeq	r3, r8, fp, lsl #20
    3874:	290a0000 	stmdbcs	sl, {}	; <UNPREDICTABLE>
    3878:	b6000001 	strlt	r0, [r0], -r1
    387c:	0b000008 	bleq	38a4 <_start-0x475c>
    3880:	00000038 	andeq	r0, r0, r8, lsr r0
    3884:	84060018 	strhi	r0, [r6], #-24	; 0xffffffe8
    3888:	05000000 	streq	r0, [r0, #-0]
    388c:	0008b604 	andeq	fp, r8, r4, lsl #12
    3890:	08cc1e00 	stmiaeq	ip, {r9, sl, fp, ip}^
    3894:	78160000 	ldmdavc	r6, {}	; <UNPREDICTABLE>
    3898:	00000004 	andeq	r0, r0, r4
    389c:	08c10405 	stmiaeq	r1, {r0, r2, sl}^
    38a0:	04050000 	streq	r0, [r5], #-0
    38a4:	0000019b 	muleq	r0, fp, r1
    38a8:	0008e31e 	andeq	lr, r8, lr, lsl r3
    38ac:	00251600 	eoreq	r1, r5, r0, lsl #12
    38b0:	05000000 	streq	r0, [r0, #-0]
    38b4:	0008e904 	andeq	lr, r8, r4, lsl #18
    38b8:	d8040500 	stmdale	r4, {r8, sl}
    38bc:	0a000008 	beq	38e4 <_start-0x471c>
    38c0:	0000065a 	andeq	r0, r0, sl, asr r6
    38c4:	000008ff 	strdeq	r0, [r0], -pc	; <UNPREDICTABLE>
    38c8:	0000380b 	andeq	r3, r0, fp, lsl #16
    38cc:	1f000200 	svcne	0x00000200
    38d0:	00000484 	andeq	r0, r0, r4, lsl #9
    38d4:	17032e05 	strne	r2, [r3, -r5, lsl #28]
    38d8:	00000478 	andeq	r0, r0, r8, ror r4
    38dc:	00047d1f 	andeq	r7, r4, pc, lsl sp
    38e0:	032f0500 			; <UNDEFINED> instruction: 0x032f0500
    38e4:	00047e1d 	andeq	r7, r4, sp, lsl lr
    38e8:	06962000 	ldreq	r2, [r6], r0
    38ec:	21060000 	mrscs	r0, (UNDEF: 6)
    38f0:	00012109 	andeq	r2, r1, r9, lsl #2
    38f4:	008abc00 	addeq	fp, sl, r0, lsl #24
    38f8:	00001800 	andeq	r1, r0, r0, lsl #16
    38fc:	219c0100 	orrscs	r0, ip, r0, lsl #2
    3900:	0100705f 	qaddeq	r7, pc, r0	; <UNPREDICTABLE>
    3904:	01211403 			; <UNDEFINED> instruction: 0x01211403
    3908:	50010000 	andpl	r0, r1, r0
    390c:	01006321 	tsteq	r0, r1, lsr #6
    3910:	00251c03 	eoreq	r1, r5, r3, lsl #24
    3914:	51010000 	mrspl	r0, (UNDEF: 1)
    3918:	01006e22 	tsteq	r0, r2, lsr #28
    391c:	002c2603 	eoreq	r2, ip, r3, lsl #12
    3920:	0aa10000 	beq	fe843928 <__bss_end__+0xfe839858>
    3924:	0a9d0000 	beq	fe74392c <__bss_end__+0xfe73985c>
    3928:	70230000 	eorvc	r0, r3, r0
    392c:	0b040100 	bleq	103d34 <__bss_end__+0xf9c64>
    3930:	00000123 	andeq	r0, r0, r3, lsr #2
    3934:	00000aca 	andeq	r0, r0, sl, asr #21
    3938:	00000ac2 	andeq	r0, r0, r2, asr #21
    393c:	01006523 	tsteq	r0, r3, lsr #10
    3940:	01231404 			; <UNDEFINED> instruction: 0x01231404
    3944:	0b020000 	bleq	8394c <__bss_end__+0x7987c>
    3948:	0b000000 	bleq	3950 <_start-0x46b0>
    394c:	00000000 	andeq	r0, r0, r0
    3950:	00000a2b 	andeq	r0, r0, fp, lsr #20
    3954:	09cb0004 	stmibeq	fp, {r2}^
    3958:	01040000 	mrseq	r0, (UNDEF: 4)
    395c:	000002ef 	andeq	r0, r0, pc, ror #5
    3960:	00073e0c 	andeq	r3, r7, ip, lsl #28
    3964:	0006e500 	andeq	lr, r6, r0, lsl #10
    3968:	008ad400 	addeq	sp, sl, r0, lsl #8
    396c:	00005800 	andeq	r5, r0, r0, lsl #16
    3970:	000be400 	andeq	lr, fp, r0, lsl #8
    3974:	072a0200 	streq	r0, [sl, -r0, lsl #4]!
    3978:	28020000 	stmdacs	r2, {}	; <UNPREDICTABLE>
    397c:	0000311b 	andeq	r3, r0, fp, lsl r1
    3980:	07160300 	ldreq	r0, [r6, -r0, lsl #6]
    3984:	08040000 	stmdaeq	r4, {}	; <UNPREDICTABLE>
    3988:	00004800 	andeq	r4, r0, r0, lsl #16
    398c:	07390400 	ldreq	r0, [r9, -r0, lsl #8]!
    3990:	00480000 	subeq	r0, r8, r0
    3994:	00000000 	andeq	r0, r0, r0
    3998:	18020405 	stmdane	r2, {r0, r2, sl}
    399c:	02000007 	andeq	r0, r0, #7
    39a0:	00251863 	eoreq	r1, r5, r3, ror #16
    39a4:	04060000 	streq	r0, [r6], #-0
    39a8:	746e6905 	strbtvc	r6, [lr], #-2309	; 0xfffff6fb
    39ac:	07040700 	streq	r0, [r4, -r0, lsl #14]
    39b0:	00000066 	andeq	r0, r0, r6, rrx
    39b4:	de060107 	adfles	f0, f6, f7
    39b8:	07000002 	streq	r0, [r0, -r2]
    39bc:	03770502 	cmneq	r7, #8388608	; 0x800000
    39c0:	04070000 	streq	r0, [r7], #-0
    39c4:	0000ac05 	andeq	sl, r0, r5, lsl #24
    39c8:	05080700 	streq	r0, [r8, #-1792]	; 0xfffff900
    39cc:	000000a7 	andeq	r0, r0, r7, lsr #1
    39d0:	dc080107 	stfles	f0, [r8], {7}
    39d4:	07000002 	streq	r0, [r0, -r2]
    39d8:	02220702 	eoreq	r0, r2, #524288	; 0x80000
    39dc:	04070000 	streq	r0, [r7], #-0
    39e0:	00006107 	andeq	r6, r0, r7, lsl #2
    39e4:	07080700 	streq	r0, [r8, -r0, lsl #14]
    39e8:	0000005c 	andeq	r0, r0, ip, asr r0
    39ec:	00026502 	andeq	r6, r2, r2, lsl #10
    39f0:	19220300 	stmdbne	r2!, {r8, r9}
    39f4:	000000a8 	andeq	r0, r0, r8, lsr #1
    39f8:	00ae0408 	adceq	r0, lr, r8, lsl #8
    39fc:	21090000 	mrscs	r0, (UNDEF: 9)
    3a00:	02000004 	andeq	r0, r0, #4
    3a04:	000002bd 			; <UNDEFINED> instruction: 0x000002bd
    3a08:	720e2c04 	andvc	r2, lr, #4, 24	; 0x400
    3a0c:	02000000 	andeq	r0, r0, #0
    3a10:	00000436 	andeq	r0, r0, r6, lsr r4
    3a14:	720e7204 	andvc	r7, lr, #4, 4	; 0x40000000
    3a18:	0a000000 	beq	3a20 <_start-0x45e0>
    3a1c:	0000026d 	andeq	r0, r0, sp, ror #4
    3a20:	17015e05 	strne	r5, [r1, -r5, lsl #28]
    3a24:	0000005d 	andeq	r0, r0, sp, asr r0
    3a28:	a604040b 	strge	r0, [r4], -fp, lsl #8
    3a2c:	0000fa03 	andeq	pc, r0, r3, lsl #20
    3a30:	025f0c00 	subseq	r0, pc, #0, 24
    3a34:	a8040000 	stmdage	r4, {}	; <UNPREDICTABLE>
    3a38:	0000cb0c 	andeq	ip, r0, ip, lsl #22
    3a3c:	01e20c00 	mvneq	r0, r0, lsl #24
    3a40:	a9040000 	stmdbge	r4, {}	; <UNPREDICTABLE>
    3a44:	0000fa13 	andeq	pc, r0, r3, lsl sl	; <UNPREDICTABLE>
    3a48:	800d0000 	andhi	r0, sp, r0
    3a4c:	0a000000 	beq	3a54 <_start-0x45ac>
    3a50:	0e000001 	cdpeq	0, 0, cr0, cr0, cr1, {0}
    3a54:	0000005d 	andeq	r0, r0, sp, asr r0
    3a58:	080f0003 	stmdaeq	pc, {r0, r1}	; <UNPREDICTABLE>
    3a5c:	2e09a304 	cdpcs	3, 0, cr10, cr9, cr4, {0}
    3a60:	10000001 	andne	r0, r0, r1
    3a64:	00000419 	andeq	r0, r0, r9, lsl r4
    3a68:	5607a504 	strpl	sl, [r7], -r4, lsl #10
    3a6c:	00000000 	andeq	r0, r0, r0
    3a70:	00042810 	andeq	r2, r4, r0, lsl r8
    3a74:	05aa0400 	streq	r0, [sl, #1024]!	; 0x400
    3a78:	000000d8 	ldrdeq	r0, [r0], -r8
    3a7c:	a3020004 	movwge	r0, #8196	; 0x2004
    3a80:	04000003 	streq	r0, [r0], #-3
    3a84:	010a03ab 	smlatbeq	sl, fp, r3, r0
    3a88:	9f020000 	svcls	0x00020000
    3a8c:	04000001 	streq	r0, [r0], #-1
    3a90:	009c1baf 	addseq	r1, ip, pc, lsr #23
    3a94:	04080000 	streq	r0, [r8], #-0
    3a98:	0000014c 	andeq	r0, r0, ip, asr #2
    3a9c:	e5080107 	str	r0, [r8, #-263]	; 0xfffffef9
    3aa0:	11000002 	tstne	r0, r2
    3aa4:	0000014c 	andeq	r0, r0, ip, asr #2
    3aa8:	00046802 	andeq	r6, r4, r2, lsl #16
    3aac:	19160600 	ldmdbne	r6, {r9, sl}
    3ab0:	0000008e 	andeq	r0, r0, lr, lsl #1
    3ab4:	0001b012 	andeq	fp, r1, r2, lsl r0
    3ab8:	2f061800 	svccs	0x00061800
    3abc:	0001be08 	andeq	fp, r1, r8, lsl #28
    3ac0:	03c41000 	biceq	r1, r4, #0
    3ac4:	31060000 	mrscc	r0, (UNDEF: 6)
    3ac8:	0001be13 	andeq	fp, r1, r3, lsl lr
    3acc:	5f130000 	svcpl	0x00130000
    3ad0:	3206006b 	andcc	r0, r6, #107	; 0x6b
    3ad4:	00005607 	andeq	r5, r0, r7, lsl #12
    3ad8:	04100400 	ldreq	r0, [r0], #-1024	; 0xfffffc00
    3adc:	06000004 	streq	r0, [r0], -r4
    3ae0:	00560b32 	subseq	r0, r6, r2, lsr fp
    3ae4:	10080000 	andne	r0, r8, r0
    3ae8:	00000199 	muleq	r0, r9, r1
    3aec:	56143206 	ldrpl	r3, [r4], -r6, lsl #4
    3af0:	0c000000 	stceq	0, cr0, [r0], {-0}
    3af4:	0004a810 	andeq	sl, r4, r0, lsl r8
    3af8:	1b320600 	blne	c85300 <__bss_end__+0xc7b230>
    3afc:	00000056 	andeq	r0, r0, r6, asr r0
    3b00:	785f1310 	ldmdavc	pc, {r4, r8, r9, ip}^	; <UNPREDICTABLE>
    3b04:	0b330600 	bleq	cc530c <__bss_end__+0xcbb23c>
    3b08:	000001c4 	andeq	r0, r0, r4, asr #3
    3b0c:	04080014 	streq	r0, [r8], #-20	; 0xffffffec
    3b10:	00000164 	andeq	r0, r0, r4, ror #2
    3b14:	0001580d 	andeq	r5, r1, sp, lsl #16
    3b18:	0001d400 	andeq	sp, r1, r0, lsl #8
    3b1c:	005d0e00 	subseq	r0, sp, r0, lsl #28
    3b20:	00000000 	andeq	r0, r0, r0
    3b24:	0001dd12 	andeq	sp, r1, r2, lsl sp
    3b28:	37062400 	strcc	r2, [r6, -r0, lsl #8]
    3b2c:	00025708 	andeq	r5, r2, r8, lsl #14
    3b30:	009e1000 	addseq	r1, lr, r0
    3b34:	39060000 	stmdbcc	r6, {}	; <UNPREDICTABLE>
    3b38:	00005609 	andeq	r5, r0, r9, lsl #12
    3b3c:	3e100000 	cdpcc	0, 1, cr0, cr0, cr0, {0}
    3b40:	06000004 	streq	r0, [r0], -r4
    3b44:	0056093a 	subseq	r0, r6, sl, lsr r9
    3b48:	10040000 	andne	r0, r4, r0
    3b4c:	000000c1 	andeq	r0, r0, r1, asr #1
    3b50:	56093b06 	strpl	r3, [r9], -r6, lsl #22
    3b54:	08000000 	stmdaeq	r0, {}	; <UNPREDICTABLE>
    3b58:	00053310 	andeq	r3, r5, r0, lsl r3
    3b5c:	093c0600 	ldmdbeq	ip!, {r9, sl}
    3b60:	00000056 	andeq	r0, r0, r6, asr r0
    3b64:	02a1100c 	adceq	r1, r1, #12
    3b68:	3d060000 	stccc	0, cr0, [r6, #-0]
    3b6c:	00005609 	andeq	r5, r0, r9, lsl #12
    3b70:	83101000 	tsthi	r0, #0
    3b74:	06000002 	streq	r0, [r0], -r2
    3b78:	0056093e 	subseq	r0, r6, lr, lsr r9
    3b7c:	10140000 	andsne	r0, r4, r0
    3b80:	000004ad 	andeq	r0, r0, sp, lsr #9
    3b84:	56093f06 	strpl	r3, [r9], -r6, lsl #30
    3b88:	18000000 	stmdane	r0, {}	; <UNPREDICTABLE>
    3b8c:	00052910 	andeq	r2, r5, r0, lsl r9
    3b90:	09400600 	stmdbeq	r0, {r9, sl}^
    3b94:	00000056 	andeq	r0, r0, r6, asr r0
    3b98:	04f0101c 	ldrbteq	r1, [r0], #28
    3b9c:	41060000 	mrsmi	r0, (UNDEF: 6)
    3ba0:	00005609 	andeq	r5, r0, r9, lsl #12
    3ba4:	14002000 	strne	r2, [r0], #-0
    3ba8:	00000101 	andeq	r0, r0, r1, lsl #2
    3bac:	4a060108 	bmi	183fd4 <__bss_end__+0x179f04>
    3bb0:	00029c08 	andeq	r9, r2, r8, lsl #24
    3bb4:	018c1000 	orreq	r1, ip, r0
    3bb8:	4b060000 	blmi	183bc0 <__bss_end__+0x179af0>
    3bbc:	00029c0a 	andeq	r9, r2, sl, lsl #24
    3bc0:	00100000 	andseq	r0, r0, r0
    3bc4:	06000000 	streq	r0, [r0], -r0
    3bc8:	029c094c 	addseq	r0, ip, #76, 18	; 0x130000
    3bcc:	15800000 	strne	r0, [r0]
    3bd0:	0000045a 	andeq	r0, r0, sl, asr r4
    3bd4:	580a4e06 	stmdapl	sl, {r1, r2, r9, sl, fp, lr}
    3bd8:	00000001 	andeq	r0, r0, r1
    3bdc:	01261501 			; <UNDEFINED> instruction: 0x01261501
    3be0:	51060000 	mrspl	r0, (UNDEF: 6)
    3be4:	0001580a 	andeq	r5, r1, sl, lsl #16
    3be8:	00010400 	andeq	r0, r1, r0, lsl #8
    3bec:	0000480d 	andeq	r4, r0, sp, lsl #16
    3bf0:	0002ac00 	andeq	sl, r2, r0, lsl #24
    3bf4:	005d0e00 	subseq	r0, sp, r0, lsl #28
    3bf8:	001f0000 	andseq	r0, pc, r0
    3bfc:	0002aa14 	andeq	sl, r2, r4, lsl sl
    3c00:	06019000 	streq	r9, [r1], -r0
    3c04:	02ef085d 	rsceq	r0, pc, #6094848	; 0x5d0000
    3c08:	c4100000 	ldrgt	r0, [r0], #-0
    3c0c:	06000003 	streq	r0, [r0], -r3
    3c10:	02ef125e 	rsceq	r1, pc, #-536870907	; 0xe0000005
    3c14:	10000000 	andne	r0, r0, r0
    3c18:	000003dc 	ldrdeq	r0, [r0], -ip
    3c1c:	56065f06 	strpl	r5, [r6], -r6, lsl #30
    3c20:	04000000 	streq	r0, [r0], #-0
    3c24:	00019410 	andeq	r9, r1, r0, lsl r4
    3c28:	09610600 	stmdbeq	r1!, {r9, sl}^
    3c2c:	000002f5 	strdeq	r0, [r0], -r5
    3c30:	01011008 	tsteq	r1, r8
    3c34:	62060000 	andvs	r0, r6, #0
    3c38:	0002571e 	andeq	r5, r2, lr, lsl r7
    3c3c:	08008800 	stmdaeq	r0, {fp, pc}
    3c40:	0002ac04 	andeq	sl, r2, r4, lsl #24
    3c44:	03050d00 	movweq	r0, #23808	; 0x5d00
    3c48:	03050000 	movweq	r0, #20480	; 0x5000
    3c4c:	5d0e0000 	stcpl	0, cr0, [lr, #-0]
    3c50:	1f000000 	svcne	0x00000000
    3c54:	0b040800 	bleq	105c5c <__bss_end__+0xfbb8c>
    3c58:	16000003 	strne	r0, [r0], -r3
    3c5c:	00038f12 	andeq	r8, r3, r2, lsl pc
    3c60:	75060800 	strvc	r0, [r6, #-2048]	; 0xfffff800
    3c64:	00033408 	andeq	r3, r3, r8, lsl #8
    3c68:	00bb1000 	adcseq	r1, fp, r0
    3c6c:	76060000 	strvc	r0, [r6], -r0
    3c70:	00033411 	andeq	r3, r3, r1, lsl r4
    3c74:	1b100000 	blne	403c7c <__bss_end__+0x3f9bac>
    3c78:	06000000 	streq	r0, [r0], -r0
    3c7c:	00560677 	subseq	r0, r6, r7, ror r6
    3c80:	00040000 	andeq	r0, r4, r0
    3c84:	00800408 	addeq	r0, r0, r8, lsl #8
    3c88:	ae120000 	cdpge	0, 1, cr0, cr2, cr0, {0}
    3c8c:	68000003 	stmdavs	r0, {r0, r1}
    3c90:	7d08b506 	cfstr32vc	mvfx11, [r8, #-24]	; 0xffffffe8
    3c94:	13000004 	movwne	r0, #4
    3c98:	0600705f 			; <UNDEFINED> instruction: 0x0600705f
    3c9c:	033412b6 	teqeq	r4, #1610612747	; 0x6000000b
    3ca0:	13000000 	movwne	r0, #0
    3ca4:	0600725f 			; <UNDEFINED> instruction: 0x0600725f
    3ca8:	005607b7 	ldrheq	r0, [r6], #-119	; 0xffffff89
    3cac:	13040000 	movwne	r0, #16384	; 0x4000
    3cb0:	0600775f 			; <UNDEFINED> instruction: 0x0600775f
    3cb4:	005607b8 	ldrheq	r0, [r6], #-120	; 0xffffff88
    3cb8:	10080000 	andne	r0, r8, r0
    3cbc:	0000011f 	andeq	r0, r0, pc, lsl r1
    3cc0:	6b09b906 	blvs	2720e0 <__bss_end__+0x268010>
    3cc4:	0c000000 	stceq	0, cr0, [r0], {-0}
    3cc8:	00020810 	andeq	r0, r2, r0, lsl r8
    3ccc:	09ba0600 	ldmibeq	sl!, {r9, sl}
    3cd0:	0000006b 	andeq	r0, r0, fp, rrx
    3cd4:	625f130e 	subsvs	r1, pc, #939524096	; 0x38000000
    3cd8:	bb060066 	bllt	183e78 <__bss_end__+0x179da8>
    3cdc:	00030c11 	andeq	r0, r3, r1, lsl ip
    3ce0:	7b101000 	blvc	407ce8 <__bss_end__+0x3fdc18>
    3ce4:	06000000 	streq	r0, [r0], -r0
    3ce8:	005607bc 	ldrheq	r0, [r6], #-124	; 0xffffff84
    3cec:	10180000 	andsne	r0, r8, r0
    3cf0:	0000010f 	andeq	r0, r0, pc, lsl #2
    3cf4:	480ac306 	stmdami	sl, {r1, r2, r8, r9, lr, pc}
    3cf8:	1c000000 	stcne	0, cr0, [r0], {-0}
    3cfc:	000b7210 	andeq	r7, fp, r0, lsl r2
    3d00:	1dc50600 	stclne	6, cr0, [r5]
    3d04:	000005ef 	andeq	r0, r0, pc, ror #11
    3d08:	06361020 	ldrteq	r1, [r6], -r0, lsr #32
    3d0c:	c7060000 	strgt	r0, [r6, -r0]
    3d10:	0006191d 	andeq	r1, r6, sp, lsl r9
    3d14:	30102400 	andscc	r2, r0, r0, lsl #8
    3d18:	06000004 	streq	r0, [r0], -r4
    3d1c:	063d0dca 	ldrteq	r0, [sp], -sl, asr #27
    3d20:	10280000 	eorne	r0, r8, r0
    3d24:	0000050a 	andeq	r0, r0, sl, lsl #10
    3d28:	5709cb06 	strpl	ip, [r9, -r6, lsl #22]
    3d2c:	2c000006 	stccs	0, cr0, [r0], {6}
    3d30:	62755f13 	rsbsvs	r5, r5, #19, 30	; 0x4c
    3d34:	11ce0600 	bicne	r0, lr, r0, lsl #12
    3d38:	0000030c 	andeq	r0, r0, ip, lsl #6
    3d3c:	755f1330 	ldrbvc	r1, [pc, #-816]	; 3a14 <_start-0x45ec>
    3d40:	cf060070 	svcgt	0x00060070
    3d44:	00033412 	andeq	r3, r3, r2, lsl r4
    3d48:	5f133800 	svcpl	0x00133800
    3d4c:	06007275 			; <UNDEFINED> instruction: 0x06007275
    3d50:	005607d0 	ldrsbeq	r0, [r6], #-112	; 0xffffff90
    3d54:	103c0000 	eorsne	r0, ip, r0
    3d58:	000000b5 	strheq	r0, [r0], -r5
    3d5c:	5d11d306 	ldcpl	3, cr13, [r1, #-24]	; 0xffffffe8
    3d60:	40000006 	andmi	r0, r0, r6
    3d64:	0004e210 	andeq	lr, r4, r0, lsl r2
    3d68:	11d40600 	bicsne	r0, r4, r0, lsl #12
    3d6c:	0000066d 	andeq	r0, r0, sp, ror #12
    3d70:	6c5f1343 	mrrcvs	3, 4, r1, pc, cr3	; <UNPREDICTABLE>
    3d74:	d7060062 	strle	r0, [r6, -r2, rrx]
    3d78:	00030c11 	andeq	r0, r3, r1, lsl ip
    3d7c:	3d104400 	cfldrscc	mvf4, [r0, #-0]
    3d80:	06000001 	streq	r0, [r0], -r1
    3d84:	005607da 	ldrsbeq	r0, [r6], #-122	; 0xffffff86
    3d88:	104c0000 	subne	r0, ip, r0
    3d8c:	0000014e 	andeq	r0, r0, lr, asr #2
    3d90:	b30adb06 	movwlt	sp, #43782	; 0xab06
    3d94:	50000000 	andpl	r0, r0, r0
    3d98:	000b1310 	andeq	r1, fp, r0, lsl r3
    3d9c:	12de0600 	sbcsne	r0, lr, #0, 12
    3da0:	0000049b 	muleq	r0, fp, r4
    3da4:	04221054 	strteq	r1, [r2], #-84	; 0xffffffac
    3da8:	e2060000 	and	r0, r6, #0
    3dac:	00013a0c 	andeq	r3, r1, ip, lsl #20
    3db0:	b6105800 	ldrlt	r5, [r0], -r0, lsl #16
    3db4:	06000003 	streq	r0, [r0], -r3
    3db8:	012e0ee4 	smulwteq	lr, r4, lr
    3dbc:	105c0000 	subsne	r0, ip, r0
    3dc0:	0000027b 	andeq	r0, r0, fp, ror r2
    3dc4:	5609e506 	strpl	lr, [r9], -r6, lsl #10
    3dc8:	64000000 	strvs	r0, [r0], #-0
    3dcc:	00561700 	subseq	r1, r6, r0, lsl #14
    3dd0:	049b0000 	ldreq	r0, [fp], #0
    3dd4:	9b180000 	blls	603ddc <__bss_end__+0x5f9d0c>
    3dd8:	18000004 	stmdane	r0, {r2}
    3ddc:	00000048 	andeq	r0, r0, r8, asr #32
    3de0:	00014618 	andeq	r4, r1, r8, lsl r6
    3de4:	00561800 	subseq	r1, r6, r0, lsl #16
    3de8:	08000000 	stmdaeq	r0, {}	; <UNPREDICTABLE>
    3dec:	0004a604 	andeq	sl, r4, r4, lsl #12
    3df0:	049b1100 	ldreq	r1, [fp], #256	; 0x100
    3df4:	0c190000 	ldceq	0, cr0, [r9], {-0}
    3df8:	28000004 	stmdacs	r0, {r2}
    3dfc:	02600604 	rsbeq	r0, r0, #4, 12	; 0x400000
    3e00:	0005ef08 	andeq	lr, r5, r8, lsl #30
    3e04:	03701a00 	cmneq	r0, #0, 20
    3e08:	62060000 	andvs	r0, r6, #0
    3e0c:	00560702 	subseq	r0, r6, r2, lsl #14
    3e10:	1a000000 	bne	3e18 <_start-0x41e8>
    3e14:	0000012e 	andeq	r0, r0, lr, lsr #2
    3e18:	0b026706 	bleq	9da38 <__bss_end__+0x93968>
    3e1c:	000006c9 	andeq	r0, r0, r9, asr #13
    3e20:	01f81a04 	mvnseq	r1, r4, lsl #20
    3e24:	67060000 	strvs	r0, [r6, -r0]
    3e28:	06c91402 	strbeq	r1, [r9], r2, lsl #8
    3e2c:	1a080000 	bne	203e34 <__bss_end__+0x1f9d64>
    3e30:	000001a8 	andeq	r0, r0, r8, lsr #3
    3e34:	1e026706 	cdpne	7, 0, cr6, cr2, cr6, {0}
    3e38:	000006c9 	andeq	r0, r0, r9, asr #13
    3e3c:	03d71a0c 	bicseq	r1, r7, #12, 20	; 0xc000
    3e40:	69060000 	stmdbvs	r6, {}	; <UNPREDICTABLE>
    3e44:	00560802 	subseq	r0, r6, r2, lsl #16
    3e48:	1a100000 	bne	403e50 <__bss_end__+0x3f9d80>
    3e4c:	00000029 	andeq	r0, r0, r9, lsr #32
    3e50:	08026a06 	stmdaeq	r2, {r1, r2, r9, fp, sp, lr}
    3e54:	000008c9 	andeq	r0, r0, r9, asr #17
    3e58:	03eb1a14 	mvneq	r1, #20, 20	; 0x14000
    3e5c:	6d060000 	stcvs	0, cr0, [r6, #-0]
    3e60:	00560702 	subseq	r0, r6, r2, lsl #14
    3e64:	1a300000 	bne	c03e6c <__bss_end__+0xbf9d9c>
    3e68:	00000a4f 	andeq	r0, r0, pc, asr #20
    3e6c:	16026e06 	strne	r6, [r2], -r6, lsl #28
    3e70:	000008de 	ldrdeq	r0, [r0], -lr
    3e74:	02b21a34 	adcseq	r1, r2, #52, 20	; 0x34000
    3e78:	70060000 	andvc	r0, r6, r0
    3e7c:	00560702 	subseq	r0, r6, r2, lsl #14
    3e80:	1a380000 	bne	e03e88 <__bss_end__+0xdf9db8>
    3e84:	000003e1 	andeq	r0, r0, r1, ror #7
    3e88:	0a027206 	beq	a06a8 <__bss_end__+0x965d8>
    3e8c:	000008ef 	andeq	r0, r0, pc, ror #17
    3e90:	02571a3c 	subseq	r1, r7, #60, 20	; 0x3c000
    3e94:	75060000 	strvc	r0, [r6, #-0]
    3e98:	01be1302 			; <UNDEFINED> instruction: 0x01be1302
    3e9c:	1a400000 	bne	1003ea4 <__bss_end__+0xff9dd4>
    3ea0:	000001c7 	andeq	r0, r0, r7, asr #3
    3ea4:	07027606 	streq	r7, [r2, -r6, lsl #12]
    3ea8:	00000056 	andeq	r0, r0, r6, asr r0
    3eac:	05241a44 	streq	r1, [r4, #-2628]!	; 0xfffff5bc
    3eb0:	77060000 	strvc	r0, [r6, -r0]
    3eb4:	01be1302 			; <UNDEFINED> instruction: 0x01be1302
    3eb8:	1a480000 	bne	1203ec0 <__bss_end__+0x11f9df0>
    3ebc:	000002c4 	andeq	r0, r0, r4, asr #5
    3ec0:	14027806 	strne	r7, [r2], #-2054	; 0xfffff7fa
    3ec4:	000008f5 	strdeq	r0, [r0], -r5
    3ec8:	02001a4c 	andeq	r1, r0, #76, 20	; 0x4c000
    3ecc:	7b060000 	blvc	183ed4 <__bss_end__+0x179e04>
    3ed0:	00560702 	subseq	r0, r6, r2, lsl #14
    3ed4:	1a500000 	bne	1403edc <__bss_end__+0x13f9e0c>
    3ed8:	00000146 	andeq	r0, r0, r6, asr #2
    3edc:	09027c06 	stmdbeq	r2, {r1, r2, sl, fp, ip, sp, lr}
    3ee0:	00000146 	andeq	r0, r0, r6, asr #2
    3ee4:	02ea1a54 	rsceq	r1, sl, #84, 20	; 0x54000
    3ee8:	9f060000 	svcls	0x00060000
    3eec:	08a40702 	stmiaeq	r4!, {r1, r8, r9, sl}
    3ef0:	1b580000 	blne	1603ef8 <__bss_end__+0x15f9e28>
    3ef4:	000002aa 	andeq	r0, r0, sl, lsr #5
    3ef8:	1302a306 	movwne	sl, #8966	; 0x2306
    3efc:	000002ef 	andeq	r0, r0, pc, ror #5
    3f00:	351b0148 	ldrcc	r0, [fp, #-328]	; 0xfffffeb8
    3f04:	06000002 	streq	r0, [r0], -r2
    3f08:	ac1202a4 	lfmge	f0, 4, [r2], {164}	; 0xa4
    3f0c:	4c000002 	stcmi	0, cr0, [r0], {2}
    3f10:	04d01b01 	ldrbeq	r1, [r0], #2817	; 0xb01
    3f14:	a8060000 	stmdage	r6, {}	; <UNPREDICTABLE>
    3f18:	09060c02 	stmdbeq	r6, {r1, sl, fp}
    3f1c:	02dc0000 	sbcseq	r0, ip, #0
    3f20:	0001171b 	andeq	r1, r1, fp, lsl r7
    3f24:	02ad0600 	adceq	r0, sp, #0, 12
    3f28:	00068a10 	andeq	r8, r6, r0, lsl sl
    3f2c:	1b02e000 	blne	bbf34 <__bss_end__+0xb1e64>
    3f30:	000000fc 	strdeq	r0, [r0], -ip
    3f34:	0a02af06 	beq	afb54 <__bss_end__+0xa5a84>
    3f38:	00000912 	andeq	r0, r0, r2, lsl r9
    3f3c:	080002ec 	stmdaeq	r0, {r2, r3, r5, r6, r7, r9}
    3f40:	00047d04 	andeq	r7, r4, r4, lsl #26
    3f44:	00561700 	subseq	r1, r6, r0, lsl #14
    3f48:	06130000 	ldreq	r0, [r3], -r0
    3f4c:	9b180000 	blls	603f54 <__bss_end__+0x5f9e84>
    3f50:	18000004 	stmdane	r0, {r2}
    3f54:	00000048 	andeq	r0, r0, r8, asr #32
    3f58:	00061318 	andeq	r1, r6, r8, lsl r3
    3f5c:	00561800 	subseq	r1, r6, r0, lsl #16
    3f60:	08000000 	stmdaeq	r0, {}	; <UNPREDICTABLE>
    3f64:	00015304 	andeq	r5, r1, r4, lsl #6
    3f68:	f5040800 			; <UNDEFINED> instruction: 0xf5040800
    3f6c:	17000005 	strne	r0, [r0, -r5]
    3f70:	000000bf 	strheq	r0, [r0], -pc	; <UNPREDICTABLE>
    3f74:	0000063d 	andeq	r0, r0, sp, lsr r6
    3f78:	00049b18 	andeq	r9, r4, r8, lsl fp
    3f7c:	00481800 	subeq	r1, r8, r0, lsl #16
    3f80:	bf180000 	svclt	0x00180000
    3f84:	18000000 	stmdane	r0, {}	; <UNPREDICTABLE>
    3f88:	00000056 	andeq	r0, r0, r6, asr r0
    3f8c:	1f040800 	svcne	0x00040800
    3f90:	17000006 	strne	r0, [r0, -r6]
    3f94:	00000056 	andeq	r0, r0, r6, asr r0
    3f98:	00000657 	andeq	r0, r0, r7, asr r6
    3f9c:	00049b18 	andeq	r9, r4, r8, lsl fp
    3fa0:	00481800 	subeq	r1, r8, r0, lsl #16
    3fa4:	08000000 	stmdaeq	r0, {}	; <UNPREDICTABLE>
    3fa8:	00064304 	andeq	r4, r6, r4, lsl #6
    3fac:	00800d00 	addeq	r0, r0, r0, lsl #26
    3fb0:	066d0000 	strbteq	r0, [sp], -r0
    3fb4:	5d0e0000 	stcpl	0, cr0, [lr, #-0]
    3fb8:	02000000 	andeq	r0, r0, #0
    3fbc:	00800d00 	addeq	r0, r0, r0, lsl #26
    3fc0:	067d0000 	ldrbteq	r0, [sp], -r0
    3fc4:	5d0e0000 	stcpl	0, cr0, [lr, #-0]
    3fc8:	00000000 	andeq	r0, r0, r0
    3fcc:	039c0a00 	orrseq	r0, ip, #0, 20
    3fd0:	1f060000 	svcne	0x00060000
    3fd4:	033a1a01 	teqeq	sl, #4096	; 0x1000
    3fd8:	b71c0000 	ldrlt	r0, [ip, -r0]
    3fdc:	0c000004 	stceq	0, cr0, [r0], {4}
    3fe0:	08012306 	stmdaeq	r1, {r1, r2, r8, r9, sp}
    3fe4:	000006c3 	andeq	r0, r0, r3, asr #13
    3fe8:	0003c41a 	andeq	ip, r3, sl, lsl r4
    3fec:	01250600 			; <UNDEFINED> instruction: 0x01250600
    3ff0:	0006c311 	andeq	ip, r6, r1, lsl r3
    3ff4:	1b1a0000 	blne	683ffc <__bss_end__+0x679f2c>
    3ff8:	06000002 	streq	r0, [r0], -r2
    3ffc:	56070126 	strpl	r0, [r7], -r6, lsr #2
    4000:	04000000 	streq	r0, [r0], #-0
    4004:	0003961a 	andeq	r9, r3, sl, lsl r6
    4008:	01270600 			; <UNDEFINED> instruction: 0x01270600
    400c:	0006c90b 	andeq	ip, r6, fp, lsl #18
    4010:	08000800 	stmdaeq	r0, {fp}
    4014:	00068a04 	andeq	r8, r6, r4, lsl #20
    4018:	7d040800 	stcvc	8, cr0, [r4, #-0]
    401c:	1c000006 	stcne	0, cr0, [r0], {6}
    4020:	00000021 	andeq	r0, r0, r1, lsr #32
    4024:	013f060e 	teqeq	pc, lr, lsl #12
    4028:	00070808 	andeq	r0, r7, r8, lsl #16
    402c:	04131a00 	ldreq	r1, [r3], #-2560	; 0xfffff600
    4030:	40060000 	andmi	r0, r6, r0
    4034:	07081201 	streq	r1, [r8, -r1, lsl #4]
    4038:	1a000000 	bne	4040 <_start-0x3fc0>
    403c:	00000447 	andeq	r0, r0, r7, asr #8
    4040:	12014106 	andne	r4, r1, #-2147483647	; 0x80000001
    4044:	00000708 	andeq	r0, r0, r8, lsl #14
    4048:	04631a06 	strbteq	r1, [r3], #-2566	; 0xfffff5fa
    404c:	42060000 	andmi	r0, r6, #0
    4050:	00871201 	addeq	r1, r7, r1, lsl #4
    4054:	000c0000 	andeq	r0, ip, r0
    4058:	0000870d 	andeq	r8, r0, sp, lsl #14
    405c:	00071800 	andeq	r1, r7, r0, lsl #16
    4060:	005d0e00 	subseq	r0, sp, r0, lsl #28
    4064:	00020000 	andeq	r0, r2, r0
    4068:	8006d01d 	andhi	sp, r6, sp, lsl r0
    406c:	082d0702 	stmdaeq	sp!, {r1, r8, r9, sl}
    4070:	9b1a0000 	blls	684078 <__bss_end__+0x679fa8>
    4074:	06000004 	streq	r0, [r0], -r4
    4078:	5d180282 	lfmpl	f0, 4, [r8, #-520]	; 0xfffffdf8
    407c:	00000000 	andeq	r0, r0, r0
    4080:	00044d1a 	andeq	r4, r4, sl, lsl sp
    4084:	02830600 	addeq	r0, r3, #0, 12
    4088:	00014612 	andeq	r4, r1, r2, lsl r6
    408c:	4a1a0400 	bmi	685094 <__bss_end__+0x67afc4>
    4090:	06000002 	streq	r0, [r0], -r2
    4094:	2d100284 	lfmcs	f0, 4, [r0, #-528]	; 0xfffffdf0
    4098:	08000008 	stmdaeq	r0, {r3}
    409c:	0004fb1a 	andeq	pc, r4, sl, lsl fp	; <UNPREDICTABLE>
    40a0:	02850600 	addeq	r0, r5, #0, 12
    40a4:	0001d417 	andeq	sp, r1, r7, lsl r4
    40a8:	b81a2400 	ldmdalt	sl, {sl, sp}
    40ac:	06000001 	streq	r0, [r0], -r1
    40b0:	560f0286 	strpl	r0, [pc], -r6, lsl #5
    40b4:	48000000 	stmdami	r0, {}	; <UNPREDICTABLE>
    40b8:	0003bf1a 	andeq	fp, r3, sl, lsl pc
    40bc:	02870600 	addeq	r0, r7, #0, 12
    40c0:	0000952c 	andeq	r9, r0, ip, lsr #10
    40c4:	111a5000 	tstne	sl, r0
    40c8:	06000005 	streq	r0, [r0], -r5
    40cc:	cf1a0288 	svcgt	0x001a0288
    40d0:	58000006 	stmdapl	r0, {r1, r2}
    40d4:	0003ca1a 	andeq	ip, r3, sl, lsl sl
    40d8:	02890600 	addeq	r0, r9, #0, 12
    40dc:	00012e16 	andeq	r2, r1, r6, lsl lr
    40e0:	161a6800 	ldrne	r6, [sl], -r0, lsl #16
    40e4:	06000005 	streq	r0, [r0], -r5
    40e8:	2e16028a 	cdpcs	2, 1, cr0, cr6, cr10, {4}
    40ec:	70000001 	andvc	r0, r0, r1
    40f0:	0002ce1a 	andeq	ip, r2, sl, lsl lr
    40f4:	028b0600 	addeq	r0, fp, #0, 12
    40f8:	00012e16 	andeq	r2, r1, r6, lsl lr
    40fc:	c61a7800 	ldrgt	r7, [sl], -r0, lsl #16
    4100:	06000004 	streq	r0, [r0], -r4
    4104:	3d10028c 	lfmcc	f0, 4, [r0, #-560]	; 0xfffffdd0
    4108:	80000008 	andhi	r0, r0, r8
    410c:	00023e1a 	andeq	r3, r2, sl, lsl lr
    4110:	028d0600 	addeq	r0, sp, #0, 12
    4114:	00084d10 	andeq	r4, r8, r0, lsl sp
    4118:	701a8800 	andsvc	r8, sl, r0, lsl #16
    411c:	06000004 	streq	r0, [r0], -r4
    4120:	560f028e 	strpl	r0, [pc], -lr, lsl #5
    4124:	a0000000 	andge	r0, r0, r0
    4128:	00017e1a 	andeq	r7, r1, sl, lsl lr
    412c:	028f0600 	addeq	r0, pc, #0, 12
    4130:	00012e16 	andeq	r2, r1, r6, lsl lr
    4134:	8f1aa400 	svchi	0x001aa400
    4138:	06000000 	streq	r0, [r0], -r0
    413c:	2e160290 	mrccs	2, 0, r0, cr6, cr0, {4}
    4140:	ac000001 	stcge	0, cr0, [r0], {1}
    4144:	00016d1a 	andeq	r6, r1, sl, lsl sp
    4148:	02910600 	addseq	r0, r1, #0, 12
    414c:	00012e16 	andeq	r2, r1, r6, lsl lr
    4150:	3c1ab400 	cfldrscc	mvf11, [sl], {-0}
    4154:	06000000 	streq	r0, [r0], -r0
    4158:	2e160292 	mrccs	2, 0, r0, cr6, cr2, {4}
    415c:	bc000001 	stclt	0, cr0, [r0], {1}
    4160:	00004b1a 	andeq	r4, r0, sl, lsl fp
    4164:	02930600 	addseq	r0, r3, #0, 12
    4168:	00012e16 	andeq	r2, r1, r6, lsl lr
    416c:	6e1ac400 	cfmulsvs	mvf12, mvf10, mvf0
    4170:	06000003 	streq	r0, [r0], -r3
    4174:	56080294 			; <UNDEFINED> instruction: 0x56080294
    4178:	cc000000 	stcgt	0, cr0, [r0], {-0}
    417c:	014c0d00 	cmpeq	ip, r0, lsl #26
    4180:	083d0000 	ldmdaeq	sp!, {}	; <UNPREDICTABLE>
    4184:	5d0e0000 	stcpl	0, cr0, [lr, #-0]
    4188:	19000000 	stmdbne	r0, {}	; <UNPREDICTABLE>
    418c:	014c0d00 	cmpeq	ip, r0, lsl #26
    4190:	084d0000 	stmdaeq	sp, {}^	; <UNPREDICTABLE>
    4194:	5d0e0000 	stcpl	0, cr0, [lr, #-0]
    4198:	07000000 	streq	r0, [r0, -r0]
    419c:	014c0d00 	cmpeq	ip, r0, lsl #26
    41a0:	085d0000 	ldmdaeq	sp, {}^	; <UNPREDICTABLE>
    41a4:	5d0e0000 	stcpl	0, cr0, [lr, #-0]
    41a8:	17000000 	strne	r0, [r0, -r0]
    41ac:	06f01d00 	ldrbteq	r1, [r0], r0, lsl #26
    41b0:	84070299 	strhi	r0, [r7], #-665	; 0xfffffd67
    41b4:	1a000008 	bne	41dc <_start-0x3e24>
    41b8:	0000029a 	muleq	r0, sl, r2
    41bc:	1b029c06 	blne	ab1dc <__bss_end__+0xa110c>
    41c0:	00000884 	andeq	r0, r0, r4, lsl #17
    41c4:	04bd1a00 	ldrteq	r1, [sp], #2560	; 0xa00
    41c8:	9d060000 	stcls	0, cr0, [r6, #-0]
    41cc:	08941802 	ldmeq	r4, {r1, fp, ip}
    41d0:	00780000 	rsbseq	r0, r8, r0
    41d4:	0003340d 	andeq	r3, r3, sp, lsl #8
    41d8:	00089400 	andeq	r9, r8, r0, lsl #8
    41dc:	005d0e00 	subseq	r0, sp, r0, lsl #28
    41e0:	001d0000 	andseq	r0, sp, r0
    41e4:	00005d0d 	andeq	r5, r0, sp, lsl #26
    41e8:	0008a400 	andeq	sl, r8, r0, lsl #8
    41ec:	005d0e00 	subseq	r0, sp, r0, lsl #28
    41f0:	001d0000 	andseq	r0, sp, r0
    41f4:	7e06f01e 	mcrvc	0, 0, pc, cr6, cr14, {0}	; <UNPREDICTABLE>
    41f8:	08c90302 	stmiaeq	r9, {r1, r8, r9}^
    41fc:	0c1f0000 	ldceq	0, cr0, [pc], {-0}
    4200:	06000004 	streq	r0, [r0], -r4
    4204:	180b0295 	stmdane	fp, {r0, r2, r4, r7, r9}
    4208:	1f000007 	svcne	0x00000007
    420c:	000004e8 	andeq	r0, r0, r8, ror #9
    4210:	0b029e06 	bleq	aba30 <__bss_end__+0xa1960>
    4214:	0000085d 	andeq	r0, r0, sp, asr r8
    4218:	014c0d00 	cmpeq	ip, r0, lsl #26
    421c:	08d90000 	ldmeq	r9, {}^	; <UNPREDICTABLE>
    4220:	5d0e0000 	stcpl	0, cr0, [lr, #-0]
    4224:	18000000 	stmdane	r0, {}	; <UNPREDICTABLE>
    4228:	00840900 	addeq	r0, r4, r0, lsl #18
    422c:	04080000 	streq	r0, [r8], #-0
    4230:	000008d9 	ldrdeq	r0, [r0], -r9
    4234:	0008ef20 	andeq	lr, r8, r0, lsr #30
    4238:	049b1800 	ldreq	r1, [fp], #2048	; 0x800
    423c:	08000000 	stmdaeq	r0, {}	; <UNPREDICTABLE>
    4240:	0008e404 	andeq	lr, r8, r4, lsl #8
    4244:	be040800 	cdplt	8, 0, cr0, cr4, cr0, {0}
    4248:	20000001 	andcs	r0, r0, r1
    424c:	00000906 	andeq	r0, r0, r6, lsl #18
    4250:	00005618 	andeq	r5, r0, r8, lsl r6
    4254:	04080000 	streq	r0, [r8], #-0
    4258:	0000090c 	andeq	r0, r0, ip, lsl #18
    425c:	08fb0408 	ldmeq	fp!, {r3, sl}^
    4260:	7d0d0000 	stcvc	0, cr0, [sp, #-0]
    4264:	22000006 	andcs	r0, r0, #6
    4268:	0e000009 	cdpeq	0, 0, cr0, cr0, cr9, {0}
    426c:	0000005d 	andeq	r0, r0, sp, asr r0
    4270:	84210002 	strthi	r0, [r1], #-2
    4274:	06000004 	streq	r0, [r0], -r4
    4278:	9b17032e 	blls	5c4f38 <__bss_end__+0x5bae68>
    427c:	21000004 	tstcs	r0, r4
    4280:	0000047d 	andeq	r0, r0, sp, ror r4
    4284:	1d032f06 	stcne	15, cr2, [r3, #-24]	; 0xffffffe8
    4288:	000004a1 	andeq	r0, r0, r1, lsr #9
    428c:	00005617 	andeq	r5, r0, r7, lsl r6
    4290:	00094b00 	andeq	r4, r9, r0, lsl #22
    4294:	00561800 	subseq	r1, r6, r0, lsl #16
    4298:	22000000 	andcs	r0, r0, #0
    429c:	000001d1 	ldrdeq	r0, [r0], -r1
    42a0:	570e1d07 	strpl	r1, [lr, -r7, lsl #26]
    42a4:	08000009 	stmdaeq	r0, {r0, r3}
    42a8:	00093c04 	andeq	r3, r9, r4, lsl #24
    42ac:	00561700 	subseq	r1, r6, r0, lsl #14
    42b0:	096c0000 	stmdbeq	ip!, {}^	; <UNPREDICTABLE>
    42b4:	13180000 	tstne	r8, #0
    42b8:	00000006 	andeq	r0, r0, r6
    42bc:	00078c22 	andeq	r8, r7, r2, lsr #24
    42c0:	0e220700 	cdpeq	7, 2, cr0, cr2, cr0, {0}
    42c4:	00000978 	andeq	r0, r0, r8, ror r9
    42c8:	095d0408 	ldmdbeq	sp, {r3, sl}^
    42cc:	23230000 			; <UNDEFINED> instruction: 0x23230000
    42d0:	01000007 	tsteq	r0, r7
    42d4:	00560506 	subseq	r0, r6, r6, lsl #10
    42d8:	8ad40000 	bhi	ff5042e0 <__bss_end__+0xff4fa210>
    42dc:	00580000 	subseq	r0, r8, r0
    42e0:	9c010000 	stcls	0, cr0, [r1], {-0}
    42e4:	00000a11 	andeq	r0, r0, r1, lsl sl
    42e8:	746d6624 	strbtvc	r6, [sp], #-1572	; 0xfffff9dc
    42ec:	18060100 	stmdane	r6, {r8}
    42f0:	00000613 	andeq	r0, r0, r3, lsl r6
    42f4:	25709102 	ldrbcs	r9, [r0, #-258]!	; 0xfffffefe
    42f8:	66756226 	ldrbtvs	r6, [r5], -r6, lsr #4
    42fc:	11080100 	mrsne	r0, (UNDEF: 24)
    4300:	00000a11 	andeq	r0, r0, r1, lsl sl
    4304:	9ccc0305 	stclls	3, cr0, [ip], {5}
    4308:	0a270000 	beq	9c4310 <__bss_end__+0x9ba240>
    430c:	01000001 	tsteq	r0, r1
    4310:	004a0d09 	subeq	r0, sl, r9, lsl #26
    4314:	91020000 	mrsls	r0, (UNDEF: 2)
    4318:	7a73285c 	bvc	1cce490 <__bss_end__+0x1cc43c0>
    431c:	0d0c0100 	stfeqs	f0, [ip, #-0]
    4320:	00000056 	andeq	r0, r0, r6, asr r0
    4324:	00000b1b 	andeq	r0, r0, fp, lsl fp
    4328:	00000b15 	andeq	r0, r0, r5, lsl fp
    432c:	008afc29 	addeq	pc, sl, r9, lsr #24
    4330:	000a2200 	andeq	r2, sl, r0, lsl #4
    4334:	000a0400 	andeq	r0, sl, r0, lsl #8
    4338:	50012a00 	andpl	r2, r1, r0, lsl #20
    433c:	2a007502 	bcs	2174c <__bss_end__+0x1767c>
    4340:	0a035101 	beq	d874c <__bss_end__+0xce67c>
    4344:	012a0400 			; <UNDEFINED> instruction: 0x012a0400
    4348:	48910352 	ldmmi	r1, {r1, r4, r6, r8, r9}
    434c:	53012a06 	movwpl	r2, #6662	; 0x1a06
    4350:	004c9102 	subeq	r9, ip, r2, lsl #2
    4354:	008b102b 	addeq	r1, fp, fp, lsr #32
    4358:	50012a00 	andpl	r2, r1, r0, lsl #20
    435c:	00007502 	andeq	r7, r0, r2, lsl #10
    4360:	014c0d00 	cmpeq	ip, r0, lsl #26
    4364:	0a220000 	beq	88436c <__bss_end__+0x87a29c>
    4368:	5d2c0000 	stcpl	0, cr0, [ip, #-0]
    436c:	ff000000 			; <UNDEFINED> instruction: 0xff000000
    4370:	202d0003 	eorcs	r0, sp, r3
    4374:	20000007 	andcs	r0, r0, r7
    4378:	09000007 	stmdbeq	r0, {r0, r1, r2}
    437c:	d9000502 	stmdble	r0, {r1, r8, sl}
    4380:	04000009 	streq	r0, [r0], #-9
    4384:	000c4400 	andeq	r4, ip, r0, lsl #8
    4388:	ef010400 	svc	0x00010400
    438c:	0c000002 	stceq	0, cr0, [r0], {2}
    4390:	00000774 	andeq	r0, r0, r4, ror r7
    4394:	000006e5 	andeq	r0, r0, r5, ror #13
    4398:	00008b2c 	andeq	r8, r0, ip, lsr #22
    439c:	0000003c 	andeq	r0, r0, ip, lsr r0
    43a0:	00000d09 	andeq	r0, r0, r9, lsl #26
    43a4:	69050402 	stmdbvs	r5, {r1, sl}
    43a8:	0300746e 	movweq	r7, #1134	; 0x46e
    43ac:	00660704 	rsbeq	r0, r6, r4, lsl #14
    43b0:	01030000 	mrseq	r0, (UNDEF: 3)
    43b4:	0002de06 	andeq	sp, r2, r6, lsl #28
    43b8:	05020300 	streq	r0, [r2, #-768]	; 0xfffffd00
    43bc:	00000377 	andeq	r0, r0, r7, ror r3
    43c0:	ac050403 	cfstrsge	mvf0, [r5], {3}
    43c4:	03000000 	movweq	r0, #0
    43c8:	00a70508 	adceq	r0, r7, r8, lsl #10
    43cc:	01030000 	mrseq	r0, (UNDEF: 3)
    43d0:	0002dc08 	andeq	sp, r2, r8, lsl #24
    43d4:	07020300 	streq	r0, [r2, -r0, lsl #6]
    43d8:	00000222 	andeq	r0, r0, r2, lsr #4
    43dc:	61070403 	tstvs	r7, r3, lsl #8
    43e0:	03000000 	movweq	r0, #0
    43e4:	005c0708 	subseq	r0, ip, r8, lsl #14
    43e8:	65040000 	strvs	r0, [r4, #-0]
    43ec:	02000002 	andeq	r0, r0, #2
    43f0:	00771922 	rsbseq	r1, r7, r2, lsr #18
    43f4:	04050000 	streq	r0, [r5], #-0
    43f8:	0000007d 	andeq	r0, r0, sp, ror r0
    43fc:	00042106 	andeq	r2, r4, r6, lsl #2
    4400:	02bd0400 	adcseq	r0, sp, #0, 8
    4404:	2c030000 	stccs	0, cr0, [r3], {-0}
    4408:	0000410e 	andeq	r4, r0, lr, lsl #2
    440c:	04360400 	ldrteq	r0, [r6], #-1024	; 0xfffffc00
    4410:	72030000 	andvc	r0, r3, #0
    4414:	0000410e 	andeq	r4, r0, lr, lsl #2
    4418:	026d0700 	rsbeq	r0, sp, #0, 14
    441c:	5e040000 	cdppl	0, 0, cr0, cr4, cr0, {0}
    4420:	002c1701 	eoreq	r1, ip, r1, lsl #14
    4424:	04080000 	streq	r0, [r8], #-0
    4428:	c903a603 	stmdbgt	r3, {r0, r1, r9, sl, sp, pc}
    442c:	09000000 	stmdbeq	r0, {}	; <UNPREDICTABLE>
    4430:	0000025f 	andeq	r0, r0, pc, asr r2
    4434:	9a0ca803 	bls	32e448 <__bss_end__+0x324378>
    4438:	09000000 	stmdbeq	r0, {}	; <UNPREDICTABLE>
    443c:	000001e2 	andeq	r0, r0, r2, ror #3
    4440:	c913a903 	ldmdbgt	r3, {r0, r1, r8, fp, sp, pc}
    4444:	00000000 	andeq	r0, r0, r0
    4448:	00004f0a 	andeq	r4, r0, sl, lsl #30
    444c:	0000d900 	andeq	sp, r0, r0, lsl #18
    4450:	002c0b00 	eoreq	r0, ip, r0, lsl #22
    4454:	00030000 	andeq	r0, r3, r0
    4458:	a303080c 	movwge	r0, #14348	; 0x380c
    445c:	0000fd09 	andeq	pc, r0, r9, lsl #26
    4460:	04190d00 	ldreq	r0, [r9], #-3328	; 0xfffff300
    4464:	a5030000 	strge	r0, [r3, #-0]
    4468:	00002507 	andeq	r2, r0, r7, lsl #10
    446c:	280d0000 	stmdacs	sp, {}	; <UNPREDICTABLE>
    4470:	03000004 	movweq	r0, #4
    4474:	00a705aa 	adceq	r0, r7, sl, lsr #11
    4478:	00040000 	andeq	r0, r4, r0
    447c:	0003a304 	andeq	sl, r3, r4, lsl #6
    4480:	03ab0300 			; <UNDEFINED> instruction: 0x03ab0300
    4484:	000000d9 	ldrdeq	r0, [r0], -r9
    4488:	00019f04 	andeq	r9, r1, r4, lsl #30
    448c:	1baf0300 	blne	febc5094 <__bss_end__+0xfebbafc4>
    4490:	0000006b 	andeq	r0, r0, fp, rrx
    4494:	0405040e 	streq	r0, [r5], #-1038	; 0xfffffbf2
    4498:	0000011d 	andeq	r0, r0, sp, lsl r1
    449c:	e5080103 	str	r0, [r8, #-259]	; 0xfffffefd
    44a0:	0f000002 	svceq	0x00000002
    44a4:	0000011d 	andeq	r0, r0, sp, lsl r1
    44a8:	00046804 	andeq	r6, r4, r4, lsl #16
    44ac:	19160500 	ldmdbne	r6, {r8, sl}
    44b0:	0000005d 	andeq	r0, r0, sp, asr r0
    44b4:	0001b010 	andeq	fp, r1, r0, lsl r0
    44b8:	2f051800 	svccs	0x00051800
    44bc:	00018f08 	andeq	r8, r1, r8, lsl #30
    44c0:	03c40d00 	biceq	r0, r4, #0, 26
    44c4:	31050000 	mrscc	r0, (UNDEF: 5)
    44c8:	00018f13 	andeq	r8, r1, r3, lsl pc
    44cc:	5f110000 	svcpl	0x00110000
    44d0:	3205006b 	andcc	r0, r5, #107	; 0x6b
    44d4:	00002507 	andeq	r2, r0, r7, lsl #10
    44d8:	040d0400 	streq	r0, [sp], #-1024	; 0xfffffc00
    44dc:	05000004 	streq	r0, [r0, #-4]
    44e0:	00250b32 	eoreq	r0, r5, r2, lsr fp
    44e4:	0d080000 	stceq	0, cr0, [r8, #-0]
    44e8:	00000199 	muleq	r0, r9, r1
    44ec:	25143205 	ldrcs	r3, [r4, #-517]	; 0xfffffdfb
    44f0:	0c000000 	stceq	0, cr0, [r0], {-0}
    44f4:	0004a80d 	andeq	sl, r4, sp, lsl #16
    44f8:	1b320500 	blne	c85900 <__bss_end__+0xc7b830>
    44fc:	00000025 	andeq	r0, r0, r5, lsr #32
    4500:	785f1110 	ldmdavc	pc, {r4, r8, ip}^	; <UNPREDICTABLE>
    4504:	0b330500 	bleq	cc590c <__bss_end__+0xcbb83c>
    4508:	00000195 	muleq	r0, r5, r1
    450c:	04050014 	streq	r0, [r5], #-20	; 0xffffffec
    4510:	00000135 	andeq	r0, r0, r5, lsr r1
    4514:	0001290a 	andeq	r2, r1, sl, lsl #18
    4518:	0001a500 	andeq	sl, r1, r0, lsl #10
    451c:	002c0b00 	eoreq	r0, ip, r0, lsl #22
    4520:	00000000 	andeq	r0, r0, r0
    4524:	0001dd10 	andeq	sp, r1, r0, lsl sp
    4528:	37052400 	strcc	r2, [r5, -r0, lsl #8]
    452c:	00022808 	andeq	r2, r2, r8, lsl #16
    4530:	009e0d00 	addseq	r0, lr, r0, lsl #26
    4534:	39050000 	stmdbcc	r5, {}	; <UNPREDICTABLE>
    4538:	00002509 	andeq	r2, r0, r9, lsl #10
    453c:	3e0d0000 	cdpcc	0, 0, cr0, cr13, cr0, {0}
    4540:	05000004 	streq	r0, [r0, #-4]
    4544:	0025093a 	eoreq	r0, r5, sl, lsr r9
    4548:	0d040000 	stceq	0, cr0, [r4, #-0]
    454c:	000000c1 	andeq	r0, r0, r1, asr #1
    4550:	25093b05 	strcs	r3, [r9, #-2821]	; 0xfffff4fb
    4554:	08000000 	stmdaeq	r0, {}	; <UNPREDICTABLE>
    4558:	0005330d 	andeq	r3, r5, sp, lsl #6
    455c:	093c0500 	ldmdbeq	ip!, {r8, sl}
    4560:	00000025 	andeq	r0, r0, r5, lsr #32
    4564:	02a10d0c 	adceq	r0, r1, #12, 26	; 0x300
    4568:	3d050000 	stccc	0, cr0, [r5, #-0]
    456c:	00002509 	andeq	r2, r0, r9, lsl #10
    4570:	830d1000 	movwhi	r1, #53248	; 0xd000
    4574:	05000002 	streq	r0, [r0, #-2]
    4578:	0025093e 	eoreq	r0, r5, lr, lsr r9
    457c:	0d140000 	ldceq	0, cr0, [r4, #-0]
    4580:	000004ad 	andeq	r0, r0, sp, lsr #9
    4584:	25093f05 	strcs	r3, [r9, #-3845]	; 0xfffff0fb
    4588:	18000000 	stmdane	r0, {}	; <UNPREDICTABLE>
    458c:	0005290d 	andeq	r2, r5, sp, lsl #18
    4590:	09400500 	stmdbeq	r0, {r8, sl}^
    4594:	00000025 	andeq	r0, r0, r5, lsr #32
    4598:	04f00d1c 	ldrbteq	r0, [r0], #3356	; 0xd1c
    459c:	41050000 	mrsmi	r0, (UNDEF: 5)
    45a0:	00002509 	andeq	r2, r0, r9, lsl #10
    45a4:	12002000 	andne	r2, r0, #0
    45a8:	00000101 	andeq	r0, r0, r1, lsl #2
    45ac:	4a050108 	bmi	1449d4 <__bss_end__+0x13a904>
    45b0:	00026d08 	andeq	r6, r2, r8, lsl #26
    45b4:	018c0d00 	orreq	r0, ip, r0, lsl #26
    45b8:	4b050000 	blmi	1445c0 <__bss_end__+0x13a4f0>
    45bc:	00026d0a 	andeq	r6, r2, sl, lsl #26
    45c0:	000d0000 	andeq	r0, sp, r0
    45c4:	05000000 	streq	r0, [r0, #-0]
    45c8:	026d094c 	rsbeq	r0, sp, #76, 18	; 0x130000
    45cc:	13800000 	orrne	r0, r0, #0
    45d0:	0000045a 	andeq	r0, r0, sl, asr r4
    45d4:	290a4e05 	stmdbcs	sl, {r0, r2, r9, sl, fp, lr}
    45d8:	00000001 	andeq	r0, r0, r1
    45dc:	01261301 			; <UNDEFINED> instruction: 0x01261301
    45e0:	51050000 	mrspl	r0, (UNDEF: 5)
    45e4:	0001290a 	andeq	r2, r1, sl, lsl #18
    45e8:	00010400 	andeq	r0, r1, r0, lsl #8
    45ec:	0001150a 	andeq	r1, r1, sl, lsl #10
    45f0:	00027d00 	andeq	r7, r2, r0, lsl #26
    45f4:	002c0b00 	eoreq	r0, ip, r0, lsl #22
    45f8:	001f0000 	andseq	r0, pc, r0
    45fc:	0002aa12 	andeq	sl, r2, r2, lsl sl
    4600:	05019000 	streq	r9, [r1, #-0]
    4604:	02c0085d 	sbceq	r0, r0, #6094848	; 0x5d0000
    4608:	c40d0000 	strgt	r0, [sp], #-0
    460c:	05000003 	streq	r0, [r0, #-3]
    4610:	02c0125e 	sbceq	r1, r0, #-536870907	; 0xe0000005
    4614:	0d000000 	stceq	0, cr0, [r0, #-0]
    4618:	000003dc 	ldrdeq	r0, [r0], -ip
    461c:	25065f05 	strcs	r5, [r6, #-3845]	; 0xfffff0fb
    4620:	04000000 	streq	r0, [r0], #-0
    4624:	0001940d 	andeq	r9, r1, sp, lsl #8
    4628:	09610500 	stmdbeq	r1!, {r8, sl}^
    462c:	000002c6 	andeq	r0, r0, r6, asr #5
    4630:	01010d08 	tsteq	r1, r8, lsl #26
    4634:	62050000 	andvs	r0, r5, #0
    4638:	0002281e 	andeq	r2, r2, lr, lsl r8
    463c:	05008800 	streq	r8, [r0, #-2048]	; 0xfffff800
    4640:	00027d04 	andeq	r7, r2, r4, lsl #26
    4644:	02d60a00 	sbcseq	r0, r6, #0, 20
    4648:	02d60000 	sbcseq	r0, r6, #0
    464c:	2c0b0000 	stccs	0, cr0, [fp], {-0}
    4650:	1f000000 	svcne	0x00000000
    4654:	dc040500 	cfstr32le	mvfx0, [r4], {-0}
    4658:	14000002 	strne	r0, [r0], #-2
    465c:	00038f10 	andeq	r8, r3, r0, lsl pc
    4660:	75050800 	strvc	r0, [r5, #-2048]	; 0xfffff800
    4664:	00030508 	andeq	r0, r3, r8, lsl #10
    4668:	00bb0d00 	adcseq	r0, fp, r0, lsl #26
    466c:	76050000 	strvc	r0, [r5], -r0
    4670:	00030511 	andeq	r0, r3, r1, lsl r5
    4674:	1b0d0000 	blne	34467c <__bss_end__+0x33a5ac>
    4678:	05000000 	streq	r0, [r0, #-0]
    467c:	00250677 	eoreq	r0, r5, r7, ror r6
    4680:	00040000 	andeq	r0, r4, r0
    4684:	004f0405 	subeq	r0, pc, r5, lsl #8
    4688:	ae100000 	cdpge	0, 1, cr0, cr0, cr0, {0}
    468c:	68000003 	stmdavs	r0, {r0, r1}
    4690:	4e08b505 	cfsh32mi	mvfx11, mvfx8, #5
    4694:	11000004 	tstne	r0, r4
    4698:	0500705f 	streq	r7, [r0, #-95]	; 0xffffffa1
    469c:	030512b6 	movweq	r1, #21174	; 0x52b6
    46a0:	11000000 	mrsne	r0, (UNDEF: 0)
    46a4:	0500725f 	streq	r7, [r0, #-607]	; 0xfffffda1
    46a8:	002507b7 	strhteq	r0, [r5], -r7
    46ac:	11040000 	mrsne	r0, (UNDEF: 4)
    46b0:	0500775f 	streq	r7, [r0, #-1887]	; 0xfffff8a1
    46b4:	002507b8 	strhteq	r0, [r5], -r8
    46b8:	0d080000 	stceq	0, cr0, [r8, #-0]
    46bc:	0000011f 	andeq	r0, r0, pc, lsl r1
    46c0:	3a09b905 	bcc	272adc <__bss_end__+0x268a0c>
    46c4:	0c000000 	stceq	0, cr0, [r0], {-0}
    46c8:	0002080d 	andeq	r0, r2, sp, lsl #16
    46cc:	09ba0500 	ldmibeq	sl!, {r8, sl}
    46d0:	0000003a 	andeq	r0, r0, sl, lsr r0
    46d4:	625f110e 	subsvs	r1, pc, #-2147483645	; 0x80000003
    46d8:	bb050066 	bllt	144878 <__bss_end__+0x13a7a8>
    46dc:	0002dd11 	andeq	sp, r2, r1, lsl sp
    46e0:	7b0d1000 	blvc	3486e8 <__bss_end__+0x33e618>
    46e4:	05000000 	streq	r0, [r0, #-0]
    46e8:	002507bc 	strhteq	r0, [r5], -ip
    46ec:	0d180000 	ldceq	0, cr0, [r8, #-0]
    46f0:	0000010f 	andeq	r0, r0, pc, lsl #2
    46f4:	150ac305 	strne	ip, [sl, #-773]	; 0xfffffcfb
    46f8:	1c000001 	stcne	0, cr0, [r0], {1}
    46fc:	000b720d 	andeq	r7, fp, sp, lsl #4
    4700:	1dc50500 	cfstr64ne	mvdx0, [r5]
    4704:	000005c0 	andeq	r0, r0, r0, asr #11
    4708:	06360d20 	ldrteq	r0, [r6], -r0, lsr #26
    470c:	c7050000 	strgt	r0, [r5, -r0]
    4710:	0005ea1d 	andeq	lr, r5, sp, lsl sl
    4714:	300d2400 	andcc	r2, sp, r0, lsl #8
    4718:	05000004 	streq	r0, [r0, #-4]
    471c:	060e0dca 	streq	r0, [lr], -sl, asr #27
    4720:	0d280000 	stceq	0, cr0, [r8, #-0]
    4724:	0000050a 	andeq	r0, r0, sl, lsl #10
    4728:	2809cb05 	stmdacs	r9, {r0, r2, r8, r9, fp, lr, pc}
    472c:	2c000006 	stccs	0, cr0, [r0], {6}
    4730:	62755f11 	rsbsvs	r5, r5, #17, 30	; 0x44
    4734:	11ce0500 	bicne	r0, lr, r0, lsl #10
    4738:	000002dd 	ldrdeq	r0, [r0], -sp
    473c:	755f1130 	ldrbvc	r1, [pc, #-304]	; 4614 <_start-0x39ec>
    4740:	cf050070 	svcgt	0x00050070
    4744:	00030512 	andeq	r0, r3, r2, lsl r5
    4748:	5f113800 	svcpl	0x00113800
    474c:	05007275 	streq	r7, [r0, #-629]	; 0xfffffd8b
    4750:	002507d0 	ldrdeq	r0, [r5], -r0	; <UNPREDICTABLE>
    4754:	0d3c0000 	ldceq	0, cr0, [ip, #-0]
    4758:	000000b5 	strheq	r0, [r0], -r5
    475c:	2e11d305 	cdpcs	3, 1, cr13, cr1, cr5, {0}
    4760:	40000006 	andmi	r0, r0, r6
    4764:	0004e20d 	andeq	lr, r4, sp, lsl #4
    4768:	11d40500 	bicsne	r0, r4, r0, lsl #10
    476c:	0000063e 	andeq	r0, r0, lr, lsr r6
    4770:	6c5f1143 	ldfvse	f1, [pc], {67}	; 0x43
    4774:	d7050062 	strle	r0, [r5, -r2, rrx]
    4778:	0002dd11 	andeq	sp, r2, r1, lsl sp
    477c:	3d0d4400 	cfstrscc	mvf4, [sp, #-0]
    4780:	05000001 	streq	r0, [r0, #-1]
    4784:	002507da 	ldrdeq	r0, [r5], -sl	; <UNPREDICTABLE>
    4788:	0d4c0000 	stcleq	0, cr0, [ip, #-0]
    478c:	0000014e 	andeq	r0, r0, lr, asr #2
    4790:	820adb05 	andhi	sp, sl, #5120	; 0x1400
    4794:	50000000 	andpl	r0, r0, r0
    4798:	000b130d 	andeq	r1, fp, sp, lsl #6
    479c:	12de0500 	sbcsne	r0, lr, #0, 10
    47a0:	0000046c 	andeq	r0, r0, ip, ror #8
    47a4:	04220d54 	strteq	r0, [r2], #-3412	; 0xfffff2ac
    47a8:	e2050000 	and	r0, r5, #0
    47ac:	0001090c 	andeq	r0, r1, ip, lsl #18
    47b0:	b60d5800 	strlt	r5, [sp], -r0, lsl #16
    47b4:	05000003 	streq	r0, [r0, #-3]
    47b8:	00fd0ee4 	rscseq	r0, sp, r4, ror #29
    47bc:	0d5c0000 	ldcleq	0, cr0, [ip, #-0]
    47c0:	0000027b 	andeq	r0, r0, fp, ror r2
    47c4:	2509e505 	strcs	lr, [r9, #-1285]	; 0xfffffafb
    47c8:	64000000 	strvs	r0, [r0], #-0
    47cc:	00251500 	eoreq	r1, r5, r0, lsl #10
    47d0:	046c0000 	strbteq	r0, [ip], #-0
    47d4:	6c160000 	ldcvs	0, cr0, [r6], {-0}
    47d8:	16000004 	strne	r0, [r0], -r4
    47dc:	00000115 	andeq	r0, r0, r5, lsl r1
    47e0:	00011716 	andeq	r1, r1, r6, lsl r7
    47e4:	00251600 	eoreq	r1, r5, r0, lsl #12
    47e8:	05000000 	streq	r0, [r0, #-0]
    47ec:	00047704 	andeq	r7, r4, r4, lsl #14
    47f0:	046c0f00 	strbteq	r0, [ip], #-3840	; 0xfffff100
    47f4:	0c170000 	ldceq	0, cr0, [r7], {-0}
    47f8:	28000004 	stmdacs	r0, {r2}
    47fc:	02600504 	rsbeq	r0, r0, #4, 10	; 0x1000000
    4800:	0005c008 	andeq	ip, r5, r8
    4804:	03701800 	cmneq	r0, #0, 16
    4808:	62050000 	andvs	r0, r5, #0
    480c:	00250702 	eoreq	r0, r5, r2, lsl #14
    4810:	18000000 	stmdane	r0, {}	; <UNPREDICTABLE>
    4814:	0000012e 	andeq	r0, r0, lr, lsr #2
    4818:	0b026705 	bleq	9e434 <__bss_end__+0x94364>
    481c:	0000069a 	muleq	r0, sl, r6
    4820:	01f81804 	mvnseq	r1, r4, lsl #16
    4824:	67050000 	strvs	r0, [r5, -r0]
    4828:	069a1402 	ldreq	r1, [sl], r2, lsl #8
    482c:	18080000 	stmdane	r8, {}	; <UNPREDICTABLE>
    4830:	000001a8 	andeq	r0, r0, r8, lsr #3
    4834:	1e026705 	cdpne	7, 0, cr6, cr2, cr5, {0}
    4838:	0000069a 	muleq	r0, sl, r6
    483c:	03d7180c 	bicseq	r1, r7, #12, 16	; 0xc0000
    4840:	69050000 	stmdbvs	r5, {}	; <UNPREDICTABLE>
    4844:	00250802 	eoreq	r0, r5, r2, lsl #16
    4848:	18100000 	ldmdane	r0, {}	; <UNPREDICTABLE>
    484c:	00000029 	andeq	r0, r0, r9, lsr #32
    4850:	08026a05 	stmdaeq	r2, {r0, r2, r9, fp, sp, lr}
    4854:	0000089a 	muleq	r0, sl, r8
    4858:	03eb1814 	mvneq	r1, #20, 16	; 0x140000
    485c:	6d050000 	stcvs	0, cr0, [r5, #-0]
    4860:	00250702 	eoreq	r0, r5, r2, lsl #14
    4864:	18300000 	ldmdane	r0!, {}	; <UNPREDICTABLE>
    4868:	00000a4f 	andeq	r0, r0, pc, asr #20
    486c:	16026e05 	strne	r6, [r2], -r5, lsl #28
    4870:	000008af 	andeq	r0, r0, pc, lsr #17
    4874:	02b21834 	adcseq	r1, r2, #52, 16	; 0x340000
    4878:	70050000 	andvc	r0, r5, r0
    487c:	00250702 	eoreq	r0, r5, r2, lsl #14
    4880:	18380000 	ldmdane	r8!, {}	; <UNPREDICTABLE>
    4884:	000003e1 	andeq	r0, r0, r1, ror #7
    4888:	0a027205 	beq	a10a4 <__bss_end__+0x96fd4>
    488c:	000008c0 	andeq	r0, r0, r0, asr #17
    4890:	0257183c 	subseq	r1, r7, #60, 16	; 0x3c0000
    4894:	75050000 	strvc	r0, [r5, #-0]
    4898:	018f1302 	orreq	r1, pc, r2, lsl #6
    489c:	18400000 	stmdane	r0, {}^	; <UNPREDICTABLE>
    48a0:	000001c7 	andeq	r0, r0, r7, asr #3
    48a4:	07027605 	streq	r7, [r2, -r5, lsl #12]
    48a8:	00000025 	andeq	r0, r0, r5, lsr #32
    48ac:	05241844 	streq	r1, [r4, #-2116]!	; 0xfffff7bc
    48b0:	77050000 	strvc	r0, [r5, -r0]
    48b4:	018f1302 	orreq	r1, pc, r2, lsl #6
    48b8:	18480000 	stmdane	r8, {}^	; <UNPREDICTABLE>
    48bc:	000002c4 	andeq	r0, r0, r4, asr #5
    48c0:	14027805 	strne	r7, [r2], #-2053	; 0xfffff7fb
    48c4:	000008c6 	andeq	r0, r0, r6, asr #17
    48c8:	0200184c 	andeq	r1, r0, #76, 16	; 0x4c0000
    48cc:	7b050000 	blvc	1448d4 <__bss_end__+0x13a804>
    48d0:	00250702 	eoreq	r0, r5, r2, lsl #14
    48d4:	18500000 	ldmdane	r0, {}^	; <UNPREDICTABLE>
    48d8:	00000146 	andeq	r0, r0, r6, asr #2
    48dc:	09027c05 	stmdbeq	r2, {r0, r2, sl, fp, ip, sp, lr}
    48e0:	00000117 	andeq	r0, r0, r7, lsl r1
    48e4:	02ea1854 	rsceq	r1, sl, #84, 16	; 0x540000
    48e8:	9f050000 	svcls	0x00050000
    48ec:	08750702 	ldmdaeq	r5!, {r1, r8, r9, sl}^
    48f0:	19580000 	ldmdbne	r8, {}^	; <UNPREDICTABLE>
    48f4:	000002aa 	andeq	r0, r0, sl, lsr #5
    48f8:	1302a305 	movwne	sl, #8965	; 0x2305
    48fc:	000002c0 	andeq	r0, r0, r0, asr #5
    4900:	35190148 	ldrcc	r0, [r9, #-328]	; 0xfffffeb8
    4904:	05000002 	streq	r0, [r0, #-2]
    4908:	7d1202a4 	lfmvc	f0, 4, [r2, #-656]	; 0xfffffd70
    490c:	4c000002 	stcmi	0, cr0, [r0], {2}
    4910:	04d01901 	ldrbeq	r1, [r0], #2305	; 0x901
    4914:	a8050000 	stmdage	r5, {}	; <UNPREDICTABLE>
    4918:	08d70c02 	ldmeq	r7, {r1, sl, fp}^
    491c:	02dc0000 	sbcseq	r0, ip, #0
    4920:	00011719 	andeq	r1, r1, r9, lsl r7
    4924:	02ad0500 	adceq	r0, sp, #0, 10
    4928:	00065b10 	andeq	r5, r6, r0, lsl fp
    492c:	1902e000 	stmdbne	r2, {sp, lr, pc}
    4930:	000000fc 	strdeq	r0, [r0], -ip
    4934:	0a02af05 	beq	b0550 <__bss_end__+0xa6480>
    4938:	000008e3 	andeq	r0, r0, r3, ror #17
    493c:	050002ec 	streq	r0, [r0, #-748]	; 0xfffffd14
    4940:	00044e04 	andeq	r4, r4, r4, lsl #28
    4944:	00251500 	eoreq	r1, r5, r0, lsl #10
    4948:	05e40000 	strbeq	r0, [r4, #0]!
    494c:	6c160000 	ldcvs	0, cr0, [r6], {-0}
    4950:	16000004 	strne	r0, [r0], -r4
    4954:	00000115 	andeq	r0, r0, r5, lsl r1
    4958:	0005e416 	andeq	lr, r5, r6, lsl r4
    495c:	00251600 	eoreq	r1, r5, r0, lsl #12
    4960:	05000000 	streq	r0, [r0, #-0]
    4964:	00012404 	andeq	r2, r1, r4, lsl #8
    4968:	c6040500 	strgt	r0, [r4], -r0, lsl #10
    496c:	15000005 	strne	r0, [r0, #-5]
    4970:	0000008e 	andeq	r0, r0, lr, lsl #1
    4974:	0000060e 	andeq	r0, r0, lr, lsl #12
    4978:	00046c16 	andeq	r6, r4, r6, lsl ip
    497c:	01151600 	tsteq	r5, r0, lsl #12
    4980:	8e160000 	cdphi	0, 1, cr0, cr6, cr0, {0}
    4984:	16000000 	strne	r0, [r0], -r0
    4988:	00000025 	andeq	r0, r0, r5, lsr #32
    498c:	f0040500 			; <UNDEFINED> instruction: 0xf0040500
    4990:	15000005 	strne	r0, [r0, #-5]
    4994:	00000025 	andeq	r0, r0, r5, lsr #32
    4998:	00000628 	andeq	r0, r0, r8, lsr #12
    499c:	00046c16 	andeq	r6, r4, r6, lsl ip
    49a0:	01151600 	tsteq	r5, r0, lsl #12
    49a4:	05000000 	streq	r0, [r0, #-0]
    49a8:	00061404 	andeq	r1, r6, r4, lsl #8
    49ac:	004f0a00 	subeq	r0, pc, r0, lsl #20
    49b0:	063e0000 	ldrteq	r0, [lr], -r0
    49b4:	2c0b0000 	stccs	0, cr0, [fp], {-0}
    49b8:	02000000 	andeq	r0, r0, #0
    49bc:	004f0a00 	subeq	r0, pc, r0, lsl #20
    49c0:	064e0000 	strbeq	r0, [lr], -r0
    49c4:	2c0b0000 	stccs	0, cr0, [fp], {-0}
    49c8:	00000000 	andeq	r0, r0, r0
    49cc:	039c0700 	orrseq	r0, ip, #0, 14
    49d0:	1f050000 	svcne	0x00050000
    49d4:	030b1a01 	movweq	r1, #47617	; 0xba01
    49d8:	b71a0000 	ldrlt	r0, [sl, -r0]
    49dc:	0c000004 	stceq	0, cr0, [r0], {4}
    49e0:	08012305 	stmdaeq	r1, {r0, r2, r8, r9, sp}
    49e4:	00000694 	muleq	r0, r4, r6
    49e8:	0003c418 	andeq	ip, r3, r8, lsl r4
    49ec:	01250500 			; <UNDEFINED> instruction: 0x01250500
    49f0:	00069411 	andeq	r9, r6, r1, lsl r4
    49f4:	1b180000 	blne	6049fc <__bss_end__+0x5fa92c>
    49f8:	05000002 	streq	r0, [r0, #-2]
    49fc:	25070126 	strcs	r0, [r7, #-294]	; 0xfffffeda
    4a00:	04000000 	streq	r0, [r0], #-0
    4a04:	00039618 	andeq	r9, r3, r8, lsl r6
    4a08:	01270500 			; <UNDEFINED> instruction: 0x01270500
    4a0c:	00069a0b 	andeq	r9, r6, fp, lsl #20
    4a10:	05000800 	streq	r0, [r0, #-2048]	; 0xfffff800
    4a14:	00065b04 	andeq	r5, r6, r4, lsl #22
    4a18:	4e040500 	cfsh32mi	mvfx0, mvfx4, #0
    4a1c:	1a000006 	bne	4a3c <_start-0x35c4>
    4a20:	00000021 	andeq	r0, r0, r1, lsr #32
    4a24:	013f050e 	teqeq	pc, lr, lsl #10
    4a28:	0006d908 	andeq	sp, r6, r8, lsl #18
    4a2c:	04131800 	ldreq	r1, [r3], #-2048	; 0xfffff800
    4a30:	40050000 	andmi	r0, r5, r0
    4a34:	06d91201 	ldrbeq	r1, [r9], r1, lsl #4
    4a38:	18000000 	stmdane	r0, {}	; <UNPREDICTABLE>
    4a3c:	00000447 	andeq	r0, r0, r7, asr #8
    4a40:	12014105 	andne	r4, r1, #1073741825	; 0x40000001
    4a44:	000006d9 	ldrdeq	r0, [r0], -r9
    4a48:	04631806 	strbteq	r1, [r3], #-2054	; 0xfffff7fa
    4a4c:	42050000 	andmi	r0, r5, #0
    4a50:	00561201 	subseq	r1, r6, r1, lsl #4
    4a54:	000c0000 	andeq	r0, ip, r0
    4a58:	0000560a 	andeq	r5, r0, sl, lsl #12
    4a5c:	0006e900 	andeq	lr, r6, r0, lsl #18
    4a60:	002c0b00 	eoreq	r0, ip, r0, lsl #22
    4a64:	00020000 	andeq	r0, r2, r0
    4a68:	8005d01b 	andhi	sp, r5, fp, lsl r0
    4a6c:	07fe0702 	ldrbeq	r0, [lr, r2, lsl #14]!
    4a70:	9b180000 	blls	604a78 <__bss_end__+0x5fa9a8>
    4a74:	05000004 	streq	r0, [r0, #-4]
    4a78:	2c180282 	lfmcs	f0, 4, [r8], {130}	; 0x82
    4a7c:	00000000 	andeq	r0, r0, r0
    4a80:	00044d18 	andeq	r4, r4, r8, lsl sp
    4a84:	02830500 	addeq	r0, r3, #0, 10
    4a88:	00011712 	andeq	r1, r1, r2, lsl r7
    4a8c:	4a180400 	bmi	605a94 <__bss_end__+0x5fb9c4>
    4a90:	05000002 	streq	r0, [r0, #-2]
    4a94:	fe100284 	cdp2	2, 1, cr0, cr0, cr4, {4}
    4a98:	08000007 	stmdaeq	r0, {r0, r1, r2}
    4a9c:	0004fb18 	andeq	pc, r4, r8, lsl fp	; <UNPREDICTABLE>
    4aa0:	02850500 	addeq	r0, r5, #0, 10
    4aa4:	0001a517 	andeq	sl, r1, r7, lsl r5
    4aa8:	b8182400 	ldmdalt	r8, {sl, sp}
    4aac:	05000001 	streq	r0, [r0, #-1]
    4ab0:	250f0286 	strcs	r0, [pc, #-646]	; 4832 <_start-0x37ce>
    4ab4:	48000000 	stmdami	r0, {}	; <UNPREDICTABLE>
    4ab8:	0003bf18 	andeq	fp, r3, r8, lsl pc
    4abc:	02870500 	addeq	r0, r7, #0, 10
    4ac0:	0000642c 	andeq	r6, r0, ip, lsr #8
    4ac4:	11185000 	tstne	r8, r0
    4ac8:	05000005 	streq	r0, [r0, #-5]
    4acc:	a01a0288 	andsge	r0, sl, r8, lsl #5
    4ad0:	58000006 	stmdapl	r0, {r1, r2}
    4ad4:	0003ca18 	andeq	ip, r3, r8, lsl sl
    4ad8:	02890500 	addeq	r0, r9, #0, 10
    4adc:	0000fd16 	andeq	pc, r0, r6, lsl sp	; <UNPREDICTABLE>
    4ae0:	16186800 	ldrne	r6, [r8], -r0, lsl #16
    4ae4:	05000005 	streq	r0, [r0, #-5]
    4ae8:	fd16028a 	ldc2	2, cr0, [r6, #-552]	; 0xfffffdd8
    4aec:	70000000 	andvc	r0, r0, r0
    4af0:	0002ce18 	andeq	ip, r2, r8, lsl lr
    4af4:	028b0500 	addeq	r0, fp, #0, 10
    4af8:	0000fd16 	andeq	pc, r0, r6, lsl sp	; <UNPREDICTABLE>
    4afc:	c6187800 	ldrgt	r7, [r8], -r0, lsl #16
    4b00:	05000004 	streq	r0, [r0, #-4]
    4b04:	0e10028c 	cdpeq	2, 1, cr0, cr0, cr12, {4}
    4b08:	80000008 	andhi	r0, r0, r8
    4b0c:	00023e18 	andeq	r3, r2, r8, lsl lr
    4b10:	028d0500 	addeq	r0, sp, #0, 10
    4b14:	00081e10 	andeq	r1, r8, r0, lsl lr
    4b18:	70188800 	andsvc	r8, r8, r0, lsl #16
    4b1c:	05000004 	streq	r0, [r0, #-4]
    4b20:	250f028e 	strcs	r0, [pc, #-654]	; 489a <_start-0x3766>
    4b24:	a0000000 	andge	r0, r0, r0
    4b28:	00017e18 	andeq	r7, r1, r8, lsl lr
    4b2c:	028f0500 	addeq	r0, pc, #0, 10
    4b30:	0000fd16 	andeq	pc, r0, r6, lsl sp	; <UNPREDICTABLE>
    4b34:	8f18a400 	svchi	0x0018a400
    4b38:	05000000 	streq	r0, [r0, #-0]
    4b3c:	fd160290 	ldc2	2, cr0, [r6, #-576]	; 0xfffffdc0
    4b40:	ac000000 	stcge	0, cr0, [r0], {-0}
    4b44:	00016d18 	andeq	r6, r1, r8, lsl sp
    4b48:	02910500 	addseq	r0, r1, #0, 10
    4b4c:	0000fd16 	andeq	pc, r0, r6, lsl sp	; <UNPREDICTABLE>
    4b50:	3c18b400 	cfldrscc	mvf11, [r8], {-0}
    4b54:	05000000 	streq	r0, [r0, #-0]
    4b58:	fd160292 	ldc2	2, cr0, [r6, #-584]	; 0xfffffdb8
    4b5c:	bc000000 	stclt	0, cr0, [r0], {-0}
    4b60:	00004b18 	andeq	r4, r0, r8, lsl fp
    4b64:	02930500 	addseq	r0, r3, #0, 10
    4b68:	0000fd16 	andeq	pc, r0, r6, lsl sp	; <UNPREDICTABLE>
    4b6c:	6e18c400 	cfmulsvs	mvf12, mvf8, mvf0
    4b70:	05000003 	streq	r0, [r0, #-3]
    4b74:	25080294 	strcs	r0, [r8, #-660]	; 0xfffffd6c
    4b78:	cc000000 	stcgt	0, cr0, [r0], {-0}
    4b7c:	011d0a00 	tsteq	sp, r0, lsl #20
    4b80:	080e0000 	stmdaeq	lr, {}	; <UNPREDICTABLE>
    4b84:	2c0b0000 	stccs	0, cr0, [fp], {-0}
    4b88:	19000000 	stmdbne	r0, {}	; <UNPREDICTABLE>
    4b8c:	011d0a00 	tsteq	sp, r0, lsl #20
    4b90:	081e0000 	ldmdaeq	lr, {}	; <UNPREDICTABLE>
    4b94:	2c0b0000 	stccs	0, cr0, [fp], {-0}
    4b98:	07000000 	streq	r0, [r0, -r0]
    4b9c:	011d0a00 	tsteq	sp, r0, lsl #20
    4ba0:	082e0000 	stmdaeq	lr!, {}	; <UNPREDICTABLE>
    4ba4:	2c0b0000 	stccs	0, cr0, [fp], {-0}
    4ba8:	17000000 	strne	r0, [r0, -r0]
    4bac:	05f01b00 	ldrbeq	r1, [r0, #2816]!	; 0xb00
    4bb0:	55070299 	strpl	r0, [r7, #-665]	; 0xfffffd67
    4bb4:	18000008 	stmdane	r0, {r3}
    4bb8:	0000029a 	muleq	r0, sl, r2
    4bbc:	1b029c05 	blne	abbd8 <__bss_end__+0xa1b08>
    4bc0:	00000855 	andeq	r0, r0, r5, asr r8
    4bc4:	04bd1800 	ldrteq	r1, [sp], #2048	; 0x800
    4bc8:	9d050000 	stcls	0, cr0, [r5, #-0]
    4bcc:	08651802 	stmdaeq	r5!, {r1, fp, ip}^
    4bd0:	00780000 	rsbseq	r0, r8, r0
    4bd4:	0003050a 	andeq	r0, r3, sl, lsl #10
    4bd8:	00086500 	andeq	r6, r8, r0, lsl #10
    4bdc:	002c0b00 	eoreq	r0, ip, r0, lsl #22
    4be0:	001d0000 	andseq	r0, sp, r0
    4be4:	00002c0a 	andeq	r2, r0, sl, lsl #24
    4be8:	00087500 	andeq	r7, r8, r0, lsl #10
    4bec:	002c0b00 	eoreq	r0, ip, r0, lsl #22
    4bf0:	001d0000 	andseq	r0, sp, r0
    4bf4:	7e05f01c 	mcrvc	0, 0, pc, cr5, cr12, {0}	; <UNPREDICTABLE>
    4bf8:	089a0302 	ldmeq	sl, {r1, r8, r9}
    4bfc:	0c1d0000 	ldceq	0, cr0, [sp], {-0}
    4c00:	05000004 	streq	r0, [r0, #-4]
    4c04:	e90b0295 	stmdb	fp, {r0, r2, r4, r7, r9}
    4c08:	1d000006 	stcne	0, cr0, [r0, #-24]	; 0xffffffe8
    4c0c:	000004e8 	andeq	r0, r0, r8, ror #9
    4c10:	0b029e05 	bleq	ac42c <__bss_end__+0xa235c>
    4c14:	0000082e 	andeq	r0, r0, lr, lsr #16
    4c18:	011d0a00 	tsteq	sp, r0, lsl #20
    4c1c:	08aa0000 	stmiaeq	sl!, {}	; <UNPREDICTABLE>
    4c20:	2c0b0000 	stccs	0, cr0, [fp], {-0}
    4c24:	18000000 	stmdane	r0, {}	; <UNPREDICTABLE>
    4c28:	00840600 	addeq	r0, r4, r0, lsl #12
    4c2c:	04050000 	streq	r0, [r5], #-0
    4c30:	000008aa 	andeq	r0, r0, sl, lsr #17
    4c34:	0008c01e 	andeq	ip, r8, lr, lsl r0
    4c38:	046c1600 	strbteq	r1, [ip], #-1536	; 0xfffffa00
    4c3c:	05000000 	streq	r0, [r0, #-0]
    4c40:	0008b504 	andeq	fp, r8, r4, lsl #10
    4c44:	8f040500 	svchi	0x00040500
    4c48:	1e000001 	cdpne	0, 0, cr0, cr0, cr1, {0}
    4c4c:	000008d7 	ldrdeq	r0, [r0], -r7
    4c50:	00002516 	andeq	r2, r0, r6, lsl r5
    4c54:	04050000 	streq	r0, [r5], #-0
    4c58:	000008dd 	ldrdeq	r0, [r0], -sp
    4c5c:	08cc0405 	stmiaeq	ip, {r0, r2, sl}^
    4c60:	4e0a0000 	cdpmi	0, 0, cr0, cr10, cr0, {0}
    4c64:	f3000006 	vhadd.u8	d0, d0, d6
    4c68:	0b000008 	bleq	4c90 <_start-0x3370>
    4c6c:	0000002c 	andeq	r0, r0, ip, lsr #32
    4c70:	841f0002 	ldrhi	r0, [pc], #-2	; 4c78 <_start-0x3388>
    4c74:	05000004 	streq	r0, [r0, #-4]
    4c78:	6c17032e 	ldcvs	3, cr0, [r7], {46}	; 0x2e
    4c7c:	1f000004 	svcne	0x00000004
    4c80:	0000047d 	andeq	r0, r0, sp, ror r4
    4c84:	1d032f05 	stcne	15, cr2, [r3, #-20]	; 0xffffffec
    4c88:	00000472 	andeq	r0, r0, r2, ror r4
    4c8c:	00002515 	andeq	r2, r0, r5, lsl r5
    4c90:	00091c00 	andeq	r1, r9, r0, lsl #24
    4c94:	00251600 	eoreq	r1, r5, r0, lsl #12
    4c98:	20000000 	andcs	r0, r0, r0
    4c9c:	000001d1 	ldrdeq	r0, [r0], -r1
    4ca0:	280e1d06 	stmdacs	lr, {r1, r2, r8, sl, fp, ip}
    4ca4:	05000009 	streq	r0, [r0, #-9]
    4ca8:	00090d04 	andeq	r0, r9, r4, lsl #26
    4cac:	00251500 	eoreq	r1, r5, r0, lsl #10
    4cb0:	093d0000 	ldmdbeq	sp!, {}	; <UNPREDICTABLE>
    4cb4:	e4160000 	ldr	r0, [r6], #-0
    4cb8:	00000005 	andeq	r0, r0, r5
    4cbc:	00078c20 	andeq	r8, r7, r0, lsr #24
    4cc0:	0e220600 	cfmadda32eq	mvax0, mvax0, mvfx2, mvfx0
    4cc4:	00000949 	andeq	r0, r0, r9, asr #18
    4cc8:	092e0405 	stmdbeq	lr!, {r0, r2, sl}
    4ccc:	1c210000 	stcne	0, cr0, [r1], #-0
    4cd0:	01000009 	tsteq	r0, r9
    4cd4:	03050706 	movweq	r0, #22278	; 0x5706
    4cd8:	00009700 	andeq	r9, r0, r0, lsl #14
    4cdc:	00074c22 	andeq	r4, r7, r2, lsr #24
    4ce0:	060b0100 	streq	r0, [fp], -r0, lsl #2
    4ce4:	00008b58 	andeq	r8, r0, r8, asr fp
    4ce8:	00000010 	andeq	r0, r0, r0, lsl r0
    4cec:	09819c01 	stmibeq	r1, {r0, sl, fp, ip, pc}
    4cf0:	66230000 	strtvs	r0, [r3], -r0
    4cf4:	0b010070 	bleq	44ebc <__bss_end__+0x3adec>
    4cf8:	00092819 	andeq	r2, r9, r9, lsl r8
    4cfc:	00500100 	subseq	r0, r0, r0, lsl #2
    4d00:	0001e924 	andeq	lr, r1, r4, lsr #18
    4d04:	06080100 	streq	r0, [r8], -r0, lsl #2
    4d08:	00008b40 	andeq	r8, r0, r0, asr #22
    4d0c:	00000018 	andeq	r0, r0, r8, lsl r0
    4d10:	63259c01 			; <UNDEFINED> instruction: 0x63259c01
    4d14:	01000007 	tsteq	r0, r7
    4d18:	00250c03 	eoreq	r0, r5, r3, lsl #24
    4d1c:	8b2c0000 	blhi	b04d24 <__bss_end__+0xafac54>
    4d20:	00140000 	andseq	r0, r4, r0
    4d24:	9c010000 	stcls	0, cr0, [r1], {-0}
    4d28:	000009d0 	ldrdeq	r0, [r0], -r0	; <UNPREDICTABLE>
    4d2c:	01006326 	tsteq	r0, r6, lsr #6
    4d30:	00252103 	eoreq	r2, r5, r3, lsl #2
    4d34:	0b480000 	bleq	1204d3c <__bss_end__+0x11fac6c>
    4d38:	0b440000 	bleq	1104d40 <__bss_end__+0x10fac70>
    4d3c:	38270000 	stmdacc	r7!, {}	; <UNPREDICTABLE>
    4d40:	d000008b 	andle	r0, r0, fp, lsl #1
    4d44:	28000009 	stmdacs	r0, {r0, r3}
    4d48:	74025001 	strvc	r5, [r2], #-1
    4d4c:	29000000 	stmdbcs	r0, {}	; <UNPREDICTABLE>
    4d50:	00000759 	andeq	r0, r0, r9, asr r7
    4d54:	00000759 	andeq	r0, r0, r9, asr r7
    4d58:	00063c06 	andeq	r3, r6, r6, lsl #24
    4d5c:	00000983 	andeq	r0, r0, r3, lsl #19
    4d60:	0ea90004 	cdpeq	0, 10, cr0, cr9, cr4, {0}
    4d64:	01040000 	mrseq	r0, (UNDEF: 4)
    4d68:	000002ef 	andeq	r0, r0, pc, ror #5
    4d6c:	0007910c 	andeq	r9, r7, ip, lsl #2
    4d70:	0006e500 	andeq	lr, r6, r0, lsl #10
    4d74:	008b6800 	addeq	r6, fp, r0, lsl #16
    4d78:	00003400 	andeq	r3, r0, r0, lsl #8
    4d7c:	000e1200 	andeq	r1, lr, r0, lsl #4
    4d80:	05040200 	streq	r0, [r4, #-512]	; 0xfffffe00
    4d84:	00746e69 	rsbseq	r6, r4, r9, ror #28
    4d88:	66070403 	strvs	r0, [r7], -r3, lsl #8
    4d8c:	03000000 	movweq	r0, #0
    4d90:	02de0601 	sbcseq	r0, lr, #1048576	; 0x100000
    4d94:	02030000 	andeq	r0, r3, #0
    4d98:	00037705 	andeq	r7, r3, r5, lsl #14
    4d9c:	05040300 	streq	r0, [r4, #-768]	; 0xfffffd00
    4da0:	000000ac 	andeq	r0, r0, ip, lsr #1
    4da4:	a7050803 	strge	r0, [r5, -r3, lsl #16]
    4da8:	03000000 	movweq	r0, #0
    4dac:	02dc0801 	sbcseq	r0, ip, #65536	; 0x10000
    4db0:	02030000 	andeq	r0, r3, #0
    4db4:	00022207 	andeq	r2, r2, r7, lsl #4
    4db8:	07040300 	streq	r0, [r4, -r0, lsl #6]
    4dbc:	00000061 	andeq	r0, r0, r1, rrx
    4dc0:	5c070803 	stcpl	8, cr0, [r7], {3}
    4dc4:	04000000 	streq	r0, [r0], #-0
    4dc8:	00000265 	andeq	r0, r0, r5, ror #4
    4dcc:	77192202 	ldrvc	r2, [r9, -r2, lsl #4]
    4dd0:	05000000 	streq	r0, [r0, #-0]
    4dd4:	00007d04 	andeq	r7, r0, r4, lsl #26
    4dd8:	04210600 	strteq	r0, [r1], #-1536	; 0xfffffa00
    4ddc:	bd040000 	stclt	0, cr0, [r4, #-0]
    4de0:	03000002 	movweq	r0, #2
    4de4:	00410e2c 	subeq	r0, r1, ip, lsr #28
    4de8:	36040000 	strcc	r0, [r4], -r0
    4dec:	03000004 	movweq	r0, #4
    4df0:	00410e72 	subeq	r0, r1, r2, ror lr
    4df4:	6d070000 	stcvs	0, cr0, [r7, #-0]
    4df8:	04000002 	streq	r0, [r0], #-2
    4dfc:	2c17015e 	ldfcss	f0, [r7], {94}	; 0x5e
    4e00:	08000000 	stmdaeq	r0, {}	; <UNPREDICTABLE>
    4e04:	03a60304 			; <UNDEFINED> instruction: 0x03a60304
    4e08:	000000c9 	andeq	r0, r0, r9, asr #1
    4e0c:	00025f09 	andeq	r5, r2, r9, lsl #30
    4e10:	0ca80300 	stceq	3, cr0, [r8]
    4e14:	0000009a 	muleq	r0, sl, r0
    4e18:	0001e209 	andeq	lr, r1, r9, lsl #4
    4e1c:	13a90300 			; <UNDEFINED> instruction: 0x13a90300
    4e20:	000000c9 	andeq	r0, r0, r9, asr #1
    4e24:	004f0a00 	subeq	r0, pc, r0, lsl #20
    4e28:	00d90000 	sbcseq	r0, r9, r0
    4e2c:	2c0b0000 	stccs	0, cr0, [fp], {-0}
    4e30:	03000000 	movweq	r0, #0
    4e34:	03080c00 	movweq	r0, #35840	; 0x8c00
    4e38:	00fd09a3 	rscseq	r0, sp, r3, lsr #19
    4e3c:	190d0000 	stmdbne	sp, {}	; <UNPREDICTABLE>
    4e40:	03000004 	movweq	r0, #4
    4e44:	002507a5 	eoreq	r0, r5, r5, lsr #15
    4e48:	0d000000 	stceq	0, cr0, [r0, #-0]
    4e4c:	00000428 	andeq	r0, r0, r8, lsr #8
    4e50:	a705aa03 	strge	sl, [r5, -r3, lsl #20]
    4e54:	04000000 	streq	r0, [r0], #-0
    4e58:	03a30400 			; <UNDEFINED> instruction: 0x03a30400
    4e5c:	ab030000 	blge	c4e64 <__bss_end__+0xbad94>
    4e60:	0000d903 	andeq	sp, r0, r3, lsl #18
    4e64:	019f0400 	orrseq	r0, pc, r0, lsl #8
    4e68:	af030000 	svcge	0x00030000
    4e6c:	00006b1b 	andeq	r6, r0, fp, lsl fp
    4e70:	05040e00 	streq	r0, [r4, #-3584]	; 0xfffff200
    4e74:	00011d04 	andeq	r1, r1, r4, lsl #26
    4e78:	08010300 	stmdaeq	r1, {r8, r9}
    4e7c:	000002e5 	andeq	r0, r0, r5, ror #5
    4e80:	00011d0f 	andeq	r1, r1, pc, lsl #26
    4e84:	04680400 	strbteq	r0, [r8], #-1024	; 0xfffffc00
    4e88:	16050000 	strne	r0, [r5], -r0
    4e8c:	00005d19 	andeq	r5, r0, r9, lsl sp
    4e90:	01b01000 	movseq	r1, r0
    4e94:	05180000 	ldreq	r0, [r8, #-0]
    4e98:	018f082f 	orreq	r0, pc, pc, lsr #16
    4e9c:	c40d0000 	strgt	r0, [sp], #-0
    4ea0:	05000003 	streq	r0, [r0, #-3]
    4ea4:	018f1331 	orreq	r1, pc, r1, lsr r3	; <UNPREDICTABLE>
    4ea8:	11000000 	mrsne	r0, (UNDEF: 0)
    4eac:	05006b5f 	streq	r6, [r0, #-2911]	; 0xfffff4a1
    4eb0:	00250732 	eoreq	r0, r5, r2, lsr r7
    4eb4:	0d040000 	stceq	0, cr0, [r4, #-0]
    4eb8:	00000404 	andeq	r0, r0, r4, lsl #8
    4ebc:	250b3205 	strcs	r3, [fp, #-517]	; 0xfffffdfb
    4ec0:	08000000 	stmdaeq	r0, {}	; <UNPREDICTABLE>
    4ec4:	0001990d 	andeq	r9, r1, sp, lsl #18
    4ec8:	14320500 	ldrtne	r0, [r2], #-1280	; 0xfffffb00
    4ecc:	00000025 	andeq	r0, r0, r5, lsr #32
    4ed0:	04a80d0c 	strteq	r0, [r8], #3340	; 0xd0c
    4ed4:	32050000 	andcc	r0, r5, #0
    4ed8:	0000251b 	andeq	r2, r0, fp, lsl r5
    4edc:	5f111000 	svcpl	0x00111000
    4ee0:	33050078 	movwcc	r0, #20600	; 0x5078
    4ee4:	0001950b 	andeq	r9, r1, fp, lsl #10
    4ee8:	05001400 	streq	r1, [r0, #-1024]	; 0xfffffc00
    4eec:	00013504 	andeq	r3, r1, r4, lsl #10
    4ef0:	01290a00 			; <UNDEFINED> instruction: 0x01290a00
    4ef4:	01a50000 			; <UNDEFINED> instruction: 0x01a50000
    4ef8:	2c0b0000 	stccs	0, cr0, [fp], {-0}
    4efc:	00000000 	andeq	r0, r0, r0
    4f00:	01dd1000 	bicseq	r1, sp, r0
    4f04:	05240000 	streq	r0, [r4, #-0]!
    4f08:	02280837 	eoreq	r0, r8, #3604480	; 0x370000
    4f0c:	9e0d0000 	cdpls	0, 0, cr0, cr13, cr0, {0}
    4f10:	05000000 	streq	r0, [r0, #-0]
    4f14:	00250939 	eoreq	r0, r5, r9, lsr r9
    4f18:	0d000000 	stceq	0, cr0, [r0, #-0]
    4f1c:	0000043e 	andeq	r0, r0, lr, lsr r4
    4f20:	25093a05 	strcs	r3, [r9, #-2565]	; 0xfffff5fb
    4f24:	04000000 	streq	r0, [r0], #-0
    4f28:	0000c10d 	andeq	ip, r0, sp, lsl #2
    4f2c:	093b0500 	ldmdbeq	fp!, {r8, sl}
    4f30:	00000025 	andeq	r0, r0, r5, lsr #32
    4f34:	05330d08 	ldreq	r0, [r3, #-3336]!	; 0xfffff2f8
    4f38:	3c050000 	stccc	0, cr0, [r5], {-0}
    4f3c:	00002509 	andeq	r2, r0, r9, lsl #10
    4f40:	a10d0c00 	tstge	sp, r0, lsl #24
    4f44:	05000002 	streq	r0, [r0, #-2]
    4f48:	0025093d 	eoreq	r0, r5, sp, lsr r9
    4f4c:	0d100000 	ldceq	0, cr0, [r0, #-0]
    4f50:	00000283 	andeq	r0, r0, r3, lsl #5
    4f54:	25093e05 	strcs	r3, [r9, #-3589]	; 0xfffff1fb
    4f58:	14000000 	strne	r0, [r0], #-0
    4f5c:	0004ad0d 	andeq	sl, r4, sp, lsl #26
    4f60:	093f0500 	ldmdbeq	pc!, {r8, sl}	; <UNPREDICTABLE>
    4f64:	00000025 	andeq	r0, r0, r5, lsr #32
    4f68:	05290d18 	streq	r0, [r9, #-3352]!	; 0xfffff2e8
    4f6c:	40050000 	andmi	r0, r5, r0
    4f70:	00002509 	andeq	r2, r0, r9, lsl #10
    4f74:	f00d1c00 			; <UNDEFINED> instruction: 0xf00d1c00
    4f78:	05000004 	streq	r0, [r0, #-4]
    4f7c:	00250941 	eoreq	r0, r5, r1, asr #18
    4f80:	00200000 	eoreq	r0, r0, r0
    4f84:	00010112 	andeq	r0, r1, r2, lsl r1
    4f88:	05010800 	streq	r0, [r1, #-2048]	; 0xfffff800
    4f8c:	026d084a 	rsbeq	r0, sp, #4849664	; 0x4a0000
    4f90:	8c0d0000 	stchi	0, cr0, [sp], {-0}
    4f94:	05000001 	streq	r0, [r0, #-1]
    4f98:	026d0a4b 	rsbeq	r0, sp, #307200	; 0x4b000
    4f9c:	0d000000 	stceq	0, cr0, [r0, #-0]
    4fa0:	00000000 	andeq	r0, r0, r0
    4fa4:	6d094c05 	stcvs	12, cr4, [r9, #-20]	; 0xffffffec
    4fa8:	80000002 	andhi	r0, r0, r2
    4fac:	00045a13 	andeq	r5, r4, r3, lsl sl
    4fb0:	0a4e0500 	beq	13863b8 <__bss_end__+0x137c2e8>
    4fb4:	00000129 	andeq	r0, r0, r9, lsr #2
    4fb8:	26130100 	ldrcs	r0, [r3], -r0, lsl #2
    4fbc:	05000001 	streq	r0, [r0, #-1]
    4fc0:	01290a51 			; <UNDEFINED> instruction: 0x01290a51
    4fc4:	01040000 	mrseq	r0, (UNDEF: 4)
    4fc8:	01150a00 	tsteq	r5, r0, lsl #20
    4fcc:	027d0000 	rsbseq	r0, sp, #0
    4fd0:	2c0b0000 	stccs	0, cr0, [fp], {-0}
    4fd4:	1f000000 	svcne	0x00000000
    4fd8:	02aa1200 	adceq	r1, sl, #0, 4
    4fdc:	01900000 	orrseq	r0, r0, r0
    4fe0:	c0085d05 	andgt	r5, r8, r5, lsl #26
    4fe4:	0d000002 	stceq	0, cr0, [r0, #-8]
    4fe8:	000003c4 	andeq	r0, r0, r4, asr #7
    4fec:	c0125e05 	andsgt	r5, r2, r5, lsl #28
    4ff0:	00000002 	andeq	r0, r0, r2
    4ff4:	0003dc0d 	andeq	sp, r3, sp, lsl #24
    4ff8:	065f0500 	ldrbeq	r0, [pc], -r0, lsl #10
    4ffc:	00000025 	andeq	r0, r0, r5, lsr #32
    5000:	01940d04 	orrseq	r0, r4, r4, lsl #26
    5004:	61050000 	mrsvs	r0, (UNDEF: 5)
    5008:	0002c609 	andeq	ip, r2, r9, lsl #12
    500c:	010d0800 	tsteq	sp, r0, lsl #16
    5010:	05000001 	streq	r0, [r0, #-1]
    5014:	02281e62 	eoreq	r1, r8, #1568	; 0x620
    5018:	00880000 	addeq	r0, r8, r0
    501c:	027d0405 	rsbseq	r0, sp, #83886080	; 0x5000000
    5020:	d60a0000 	strle	r0, [sl], -r0
    5024:	d6000002 	strle	r0, [r0], -r2
    5028:	0b000002 	bleq	5038 <_start-0x2fc8>
    502c:	0000002c 	andeq	r0, r0, ip, lsr #32
    5030:	0405001f 	streq	r0, [r5], #-31	; 0xffffffe1
    5034:	000002dc 	ldrdeq	r0, [r0], -ip
    5038:	038f1014 	orreq	r1, pc, #20
    503c:	05080000 	streq	r0, [r8, #-0]
    5040:	03050875 	movweq	r0, #22645	; 0x5875
    5044:	bb0d0000 	bllt	34504c <__bss_end__+0x33af7c>
    5048:	05000000 	streq	r0, [r0, #-0]
    504c:	03051176 	movweq	r1, #20854	; 0x5176
    5050:	0d000000 	stceq	0, cr0, [r0, #-0]
    5054:	0000001b 	andeq	r0, r0, fp, lsl r0
    5058:	25067705 	strcs	r7, [r6, #-1797]	; 0xfffff8fb
    505c:	04000000 	streq	r0, [r0], #-0
    5060:	4f040500 	svcmi	0x00040500
    5064:	10000000 	andne	r0, r0, r0
    5068:	000003ae 	andeq	r0, r0, lr, lsr #7
    506c:	08b50568 	ldmeq	r5!, {r3, r5, r6, r8, sl}
    5070:	0000044e 	andeq	r0, r0, lr, asr #8
    5074:	00705f11 	rsbseq	r5, r0, r1, lsl pc
    5078:	0512b605 	ldreq	fp, [r2, #-1541]	; 0xfffff9fb
    507c:	00000003 	andeq	r0, r0, r3
    5080:	00725f11 	rsbseq	r5, r2, r1, lsl pc
    5084:	2507b705 	strcs	fp, [r7, #-1797]	; 0xfffff8fb
    5088:	04000000 	streq	r0, [r0], #-0
    508c:	00775f11 	rsbseq	r5, r7, r1, lsl pc
    5090:	2507b805 	strcs	fp, [r7, #-2053]	; 0xfffff7fb
    5094:	08000000 	stmdaeq	r0, {}	; <UNPREDICTABLE>
    5098:	00011f0d 	andeq	r1, r1, sp, lsl #30
    509c:	09b90500 	ldmibeq	r9!, {r8, sl}
    50a0:	0000003a 	andeq	r0, r0, sl, lsr r0
    50a4:	02080d0c 	andeq	r0, r8, #12, 26	; 0x300
    50a8:	ba050000 	blt	1450b0 <__bss_end__+0x13afe0>
    50ac:	00003a09 	andeq	r3, r0, r9, lsl #20
    50b0:	5f110e00 	svcpl	0x00110e00
    50b4:	05006662 	streq	r6, [r0, #-1634]	; 0xfffff99e
    50b8:	02dd11bb 	sbcseq	r1, sp, #-1073741778	; 0xc000002e
    50bc:	0d100000 	ldceq	0, cr0, [r0, #-0]
    50c0:	0000007b 	andeq	r0, r0, fp, ror r0
    50c4:	2507bc05 	strcs	fp, [r7, #-3077]	; 0xfffff3fb
    50c8:	18000000 	stmdane	r0, {}	; <UNPREDICTABLE>
    50cc:	00010f0d 	andeq	r0, r1, sp, lsl #30
    50d0:	0ac30500 	beq	ff0c64d8 <__bss_end__+0xff0bc408>
    50d4:	00000115 	andeq	r0, r0, r5, lsl r1
    50d8:	0b720d1c 	bleq	1c88550 <__bss_end__+0x1c7e480>
    50dc:	c5050000 	strgt	r0, [r5, #-0]
    50e0:	0005c01d 	andeq	ip, r5, sp, lsl r0
    50e4:	360d2000 	strcc	r2, [sp], -r0
    50e8:	05000006 	streq	r0, [r0, #-6]
    50ec:	05ea1dc7 	strbeq	r1, [sl, #3527]!	; 0xdc7
    50f0:	0d240000 	stceq	0, cr0, [r4, #-0]
    50f4:	00000430 	andeq	r0, r0, r0, lsr r4
    50f8:	0e0dca05 	vmlaeq.f32	s24, s26, s10
    50fc:	28000006 	stmdacs	r0, {r1, r2}
    5100:	00050a0d 	andeq	r0, r5, sp, lsl #20
    5104:	09cb0500 	stmibeq	fp, {r8, sl}^
    5108:	00000628 	andeq	r0, r0, r8, lsr #12
    510c:	755f112c 	ldrbvc	r1, [pc, #-300]	; 4fe8 <_start-0x3018>
    5110:	ce050062 	cdpgt	0, 0, cr0, cr5, cr2, {3}
    5114:	0002dd11 	andeq	sp, r2, r1, lsl sp
    5118:	5f113000 	svcpl	0x00113000
    511c:	05007075 	streq	r7, [r0, #-117]	; 0xffffff8b
    5120:	030512cf 	movweq	r1, #21199	; 0x52cf
    5124:	11380000 	teqne	r8, r0
    5128:	0072755f 	rsbseq	r7, r2, pc, asr r5
    512c:	2507d005 	strcs	sp, [r7, #-5]
    5130:	3c000000 	stccc	0, cr0, [r0], {-0}
    5134:	0000b50d 	andeq	fp, r0, sp, lsl #10
    5138:	11d30500 	bicsne	r0, r3, r0, lsl #10
    513c:	0000062e 	andeq	r0, r0, lr, lsr #12
    5140:	04e20d40 	strbteq	r0, [r2], #3392	; 0xd40
    5144:	d4050000 	strle	r0, [r5], #-0
    5148:	00063e11 	andeq	r3, r6, r1, lsl lr
    514c:	5f114300 	svcpl	0x00114300
    5150:	0500626c 	streq	r6, [r0, #-620]	; 0xfffffd94
    5154:	02dd11d7 	sbcseq	r1, sp, #-1073741771	; 0xc0000035
    5158:	0d440000 	stcleq	0, cr0, [r4, #-0]
    515c:	0000013d 	andeq	r0, r0, sp, lsr r1
    5160:	2507da05 	strcs	sp, [r7, #-2565]	; 0xfffff5fb
    5164:	4c000000 	stcmi	0, cr0, [r0], {-0}
    5168:	00014e0d 	andeq	r4, r1, sp, lsl #28
    516c:	0adb0500 	beq	ff6c6574 <__bss_end__+0xff6bc4a4>
    5170:	00000082 	andeq	r0, r0, r2, lsl #1
    5174:	0b130d50 	bleq	4c86bc <__bss_end__+0x4be5ec>
    5178:	de050000 	cdple	0, 0, cr0, cr5, cr0, {0}
    517c:	00046c12 	andeq	r6, r4, r2, lsl ip
    5180:	220d5400 	andcs	r5, sp, #0, 8
    5184:	05000004 	streq	r0, [r0, #-4]
    5188:	01090ce2 	smlatteq	r9, r2, ip, r0
    518c:	0d580000 	ldcleq	0, cr0, [r8, #-0]
    5190:	000003b6 			; <UNDEFINED> instruction: 0x000003b6
    5194:	fd0ee405 	stc2	4, cr14, [lr, #-20]	; 0xffffffec
    5198:	5c000000 	stcpl	0, cr0, [r0], {-0}
    519c:	00027b0d 	andeq	r7, r2, sp, lsl #22
    51a0:	09e50500 	stmibeq	r5!, {r8, sl}^
    51a4:	00000025 	andeq	r0, r0, r5, lsr #32
    51a8:	25150064 	ldrcs	r0, [r5, #-100]	; 0xffffff9c
    51ac:	6c000000 	stcvs	0, cr0, [r0], {-0}
    51b0:	16000004 	strne	r0, [r0], -r4
    51b4:	0000046c 	andeq	r0, r0, ip, ror #8
    51b8:	00011516 	andeq	r1, r1, r6, lsl r5
    51bc:	01171600 	tsteq	r7, r0, lsl #12
    51c0:	25160000 	ldrcs	r0, [r6, #-0]
    51c4:	00000000 	andeq	r0, r0, r0
    51c8:	04770405 	ldrbteq	r0, [r7], #-1029	; 0xfffffbfb
    51cc:	6c0f0000 	stcvs	0, cr0, [pc], {-0}
    51d0:	17000004 	strne	r0, [r0, -r4]
    51d4:	0000040c 	andeq	r0, r0, ip, lsl #8
    51d8:	60050428 	andvs	r0, r5, r8, lsr #8
    51dc:	05c00802 	strbeq	r0, [r0, #2050]	; 0x802
    51e0:	70180000 	andsvc	r0, r8, r0
    51e4:	05000003 	streq	r0, [r0, #-3]
    51e8:	25070262 	strcs	r0, [r7, #-610]	; 0xfffffd9e
    51ec:	00000000 	andeq	r0, r0, r0
    51f0:	00012e18 	andeq	r2, r1, r8, lsl lr
    51f4:	02670500 	rsbeq	r0, r7, #0, 10
    51f8:	00069a0b 	andeq	r9, r6, fp, lsl #20
    51fc:	f8180400 			; <UNDEFINED> instruction: 0xf8180400
    5200:	05000001 	streq	r0, [r0, #-1]
    5204:	9a140267 	bls	505ba8 <__bss_end__+0x4fbad8>
    5208:	08000006 	stmdaeq	r0, {r1, r2}
    520c:	0001a818 	andeq	sl, r1, r8, lsl r8
    5210:	02670500 	rsbeq	r0, r7, #0, 10
    5214:	00069a1e 	andeq	r9, r6, lr, lsl sl
    5218:	d7180c00 	ldrle	r0, [r8, -r0, lsl #24]
    521c:	05000003 	streq	r0, [r0, #-3]
    5220:	25080269 	strcs	r0, [r8, #-617]	; 0xfffffd97
    5224:	10000000 	andne	r0, r0, r0
    5228:	00002918 	andeq	r2, r0, r8, lsl r9
    522c:	026a0500 	rsbeq	r0, sl, #0, 10
    5230:	00089a08 	andeq	r9, r8, r8, lsl #20
    5234:	eb181400 	bl	60a23c <__bss_end__+0x60016c>
    5238:	05000003 	streq	r0, [r0, #-3]
    523c:	2507026d 	strcs	r0, [r7, #-621]	; 0xfffffd93
    5240:	30000000 	andcc	r0, r0, r0
    5244:	000a4f18 	andeq	r4, sl, r8, lsl pc
    5248:	026e0500 	rsbeq	r0, lr, #0, 10
    524c:	0008af16 	andeq	sl, r8, r6, lsl pc
    5250:	b2183400 	andslt	r3, r8, #0, 8
    5254:	05000002 	streq	r0, [r0, #-2]
    5258:	25070270 	strcs	r0, [r7, #-624]	; 0xfffffd90
    525c:	38000000 	stmdacc	r0, {}	; <UNPREDICTABLE>
    5260:	0003e118 	andeq	lr, r3, r8, lsl r1
    5264:	02720500 	rsbseq	r0, r2, #0, 10
    5268:	0008c00a 	andeq	ip, r8, sl
    526c:	57183c00 	ldrpl	r3, [r8, -r0, lsl #24]
    5270:	05000002 	streq	r0, [r0, #-2]
    5274:	8f130275 	svchi	0x00130275
    5278:	40000001 	andmi	r0, r0, r1
    527c:	0001c718 	andeq	ip, r1, r8, lsl r7
    5280:	02760500 	rsbseq	r0, r6, #0, 10
    5284:	00002507 	andeq	r2, r0, r7, lsl #10
    5288:	24184400 	ldrcs	r4, [r8], #-1024	; 0xfffffc00
    528c:	05000005 	streq	r0, [r0, #-5]
    5290:	8f130277 	svchi	0x00130277
    5294:	48000001 	stmdami	r0, {r0}
    5298:	0002c418 	andeq	ip, r2, r8, lsl r4
    529c:	02780500 	rsbseq	r0, r8, #0, 10
    52a0:	0008c614 	andeq	ip, r8, r4, lsl r6
    52a4:	00184c00 	andseq	r4, r8, r0, lsl #24
    52a8:	05000002 	streq	r0, [r0, #-2]
    52ac:	2507027b 	strcs	r0, [r7, #-635]	; 0xfffffd85
    52b0:	50000000 	andpl	r0, r0, r0
    52b4:	00014618 	andeq	r4, r1, r8, lsl r6
    52b8:	027c0500 	rsbseq	r0, ip, #0, 10
    52bc:	00011709 	andeq	r1, r1, r9, lsl #14
    52c0:	ea185400 	b	61a2c8 <__bss_end__+0x6101f8>
    52c4:	05000002 	streq	r0, [r0, #-2]
    52c8:	7507029f 	strvc	r0, [r7, #-671]	; 0xfffffd61
    52cc:	58000008 	stmdapl	r0, {r3}
    52d0:	0002aa19 	andeq	sl, r2, r9, lsl sl
    52d4:	02a30500 	adceq	r0, r3, #0, 10
    52d8:	0002c013 	andeq	ip, r2, r3, lsl r0
    52dc:	19014800 	stmdbne	r1, {fp, lr}
    52e0:	00000235 	andeq	r0, r0, r5, lsr r2
    52e4:	1202a405 	andne	sl, r2, #83886080	; 0x5000000
    52e8:	0000027d 	andeq	r0, r0, sp, ror r2
    52ec:	d019014c 	andsle	r0, r9, ip, asr #2
    52f0:	05000004 	streq	r0, [r0, #-4]
    52f4:	d70c02a8 	strle	r0, [ip, -r8, lsr #5]
    52f8:	dc000008 	stcle	0, cr0, [r0], {8}
    52fc:	01171902 	tsteq	r7, r2, lsl #18
    5300:	ad050000 	stcge	0, cr0, [r5, #-0]
    5304:	065b1002 	ldrbeq	r1, [fp], -r2
    5308:	02e00000 	rsceq	r0, r0, #0
    530c:	0000fc19 	andeq	pc, r0, r9, lsl ip	; <UNPREDICTABLE>
    5310:	02af0500 	adceq	r0, pc, #0, 10
    5314:	0008e30a 	andeq	lr, r8, sl, lsl #6
    5318:	0002ec00 	andeq	lr, r2, r0, lsl #24
    531c:	044e0405 	strbeq	r0, [lr], #-1029	; 0xfffffbfb
    5320:	25150000 	ldrcs	r0, [r5, #-0]
    5324:	e4000000 	str	r0, [r0], #-0
    5328:	16000005 	strne	r0, [r0], -r5
    532c:	0000046c 	andeq	r0, r0, ip, ror #8
    5330:	00011516 	andeq	r1, r1, r6, lsl r5
    5334:	05e41600 	strbeq	r1, [r4, #1536]!	; 0x600
    5338:	25160000 	ldrcs	r0, [r6, #-0]
    533c:	00000000 	andeq	r0, r0, r0
    5340:	01240405 			; <UNDEFINED> instruction: 0x01240405
    5344:	04050000 	streq	r0, [r5], #-0
    5348:	000005c6 	andeq	r0, r0, r6, asr #11
    534c:	00008e15 	andeq	r8, r0, r5, lsl lr
    5350:	00060e00 	andeq	r0, r6, r0, lsl #28
    5354:	046c1600 	strbteq	r1, [ip], #-1536	; 0xfffffa00
    5358:	15160000 	ldrne	r0, [r6, #-0]
    535c:	16000001 	strne	r0, [r0], -r1
    5360:	0000008e 	andeq	r0, r0, lr, lsl #1
    5364:	00002516 	andeq	r2, r0, r6, lsl r5
    5368:	04050000 	streq	r0, [r5], #-0
    536c:	000005f0 	strdeq	r0, [r0], -r0	; <UNPREDICTABLE>
    5370:	00002515 	andeq	r2, r0, r5, lsl r5
    5374:	00062800 	andeq	r2, r6, r0, lsl #16
    5378:	046c1600 	strbteq	r1, [ip], #-1536	; 0xfffffa00
    537c:	15160000 	ldrne	r0, [r6, #-0]
    5380:	00000001 	andeq	r0, r0, r1
    5384:	06140405 	ldreq	r0, [r4], -r5, lsl #8
    5388:	4f0a0000 	svcmi	0x000a0000
    538c:	3e000000 	cdpcc	0, 0, cr0, cr0, cr0, {0}
    5390:	0b000006 	bleq	53b0 <_start-0x2c50>
    5394:	0000002c 	andeq	r0, r0, ip, lsr #32
    5398:	4f0a0002 	svcmi	0x000a0002
    539c:	4e000000 	cdpmi	0, 0, cr0, cr0, cr0, {0}
    53a0:	0b000006 	bleq	53c0 <_start-0x2c40>
    53a4:	0000002c 	andeq	r0, r0, ip, lsr #32
    53a8:	9c070000 	stcls	0, cr0, [r7], {-0}
    53ac:	05000003 	streq	r0, [r0, #-3]
    53b0:	0b1a011f 	bleq	685834 <__bss_end__+0x67b764>
    53b4:	1a000003 	bne	53c8 <_start-0x2c38>
    53b8:	000004b7 			; <UNDEFINED> instruction: 0x000004b7
    53bc:	0123050c 			; <UNDEFINED> instruction: 0x0123050c
    53c0:	00069408 	andeq	r9, r6, r8, lsl #8
    53c4:	03c41800 	biceq	r1, r4, #0, 16
    53c8:	25050000 	strcs	r0, [r5, #-0]
    53cc:	06941101 	ldreq	r1, [r4], r1, lsl #2
    53d0:	18000000 	stmdane	r0, {}	; <UNPREDICTABLE>
    53d4:	0000021b 	andeq	r0, r0, fp, lsl r2
    53d8:	07012605 	streq	r2, [r1, -r5, lsl #12]
    53dc:	00000025 	andeq	r0, r0, r5, lsr #32
    53e0:	03961804 	orrseq	r1, r6, #4, 16	; 0x40000
    53e4:	27050000 	strcs	r0, [r5, -r0]
    53e8:	069a0b01 	ldreq	r0, [sl], r1, lsl #22
    53ec:	00080000 	andeq	r0, r8, r0
    53f0:	065b0405 	ldrbeq	r0, [fp], -r5, lsl #8
    53f4:	04050000 	streq	r0, [r5], #-0
    53f8:	0000064e 	andeq	r0, r0, lr, asr #12
    53fc:	0000211a 	andeq	r2, r0, sl, lsl r1
    5400:	3f050e00 	svccc	0x00050e00
    5404:	06d90801 	ldrbeq	r0, [r9], r1, lsl #16
    5408:	13180000 	tstne	r8, #0
    540c:	05000004 	streq	r0, [r0, #-4]
    5410:	d9120140 	ldmdble	r2, {r6, r8}
    5414:	00000006 	andeq	r0, r0, r6
    5418:	00044718 	andeq	r4, r4, r8, lsl r7
    541c:	01410500 	cmpeq	r1, r0, lsl #10
    5420:	0006d912 	andeq	sp, r6, r2, lsl r9
    5424:	63180600 	tstvs	r8, #0, 12
    5428:	05000004 	streq	r0, [r0, #-4]
    542c:	56120142 	ldrpl	r0, [r2], -r2, asr #2
    5430:	0c000000 	stceq	0, cr0, [r0], {-0}
    5434:	00560a00 	subseq	r0, r6, r0, lsl #20
    5438:	06e90000 	strbteq	r0, [r9], r0
    543c:	2c0b0000 	stccs	0, cr0, [fp], {-0}
    5440:	02000000 	andeq	r0, r0, #0
    5444:	05d01b00 	ldrbeq	r1, [r0, #2816]	; 0xb00
    5448:	fe070280 	cdp2	2, 0, cr0, cr7, cr0, {4}
    544c:	18000007 	stmdane	r0, {r0, r1, r2}
    5450:	0000049b 	muleq	r0, fp, r4
    5454:	18028205 	stmdane	r2, {r0, r2, r9, pc}
    5458:	0000002c 	andeq	r0, r0, ip, lsr #32
    545c:	044d1800 	strbeq	r1, [sp], #-2048	; 0xfffff800
    5460:	83050000 	movwhi	r0, #20480	; 0x5000
    5464:	01171202 	tsteq	r7, r2, lsl #4
    5468:	18040000 	stmdane	r4, {}	; <UNPREDICTABLE>
    546c:	0000024a 	andeq	r0, r0, sl, asr #4
    5470:	10028405 	andne	r8, r2, r5, lsl #8
    5474:	000007fe 	strdeq	r0, [r0], -lr
    5478:	04fb1808 	ldrbteq	r1, [fp], #2056	; 0x808
    547c:	85050000 	strhi	r0, [r5, #-0]
    5480:	01a51702 			; <UNDEFINED> instruction: 0x01a51702
    5484:	18240000 	stmdane	r4!, {}	; <UNPREDICTABLE>
    5488:	000001b8 			; <UNDEFINED> instruction: 0x000001b8
    548c:	0f028605 	svceq	0x00028605
    5490:	00000025 	andeq	r0, r0, r5, lsr #32
    5494:	03bf1848 			; <UNDEFINED> instruction: 0x03bf1848
    5498:	87050000 	strhi	r0, [r5, -r0]
    549c:	00642c02 	rsbeq	r2, r4, r2, lsl #24
    54a0:	18500000 	ldmdane	r0, {}^	; <UNPREDICTABLE>
    54a4:	00000511 	andeq	r0, r0, r1, lsl r5
    54a8:	1a028805 	bne	a74c4 <__bss_end__+0x9d3f4>
    54ac:	000006a0 	andeq	r0, r0, r0, lsr #13
    54b0:	03ca1858 	biceq	r1, sl, #88, 16	; 0x580000
    54b4:	89050000 	stmdbhi	r5, {}	; <UNPREDICTABLE>
    54b8:	00fd1602 	rscseq	r1, sp, r2, lsl #12
    54bc:	18680000 	stmdane	r8!, {}^	; <UNPREDICTABLE>
    54c0:	00000516 	andeq	r0, r0, r6, lsl r5
    54c4:	16028a05 	strne	r8, [r2], -r5, lsl #20
    54c8:	000000fd 	strdeq	r0, [r0], -sp
    54cc:	02ce1870 	sbceq	r1, lr, #112, 16	; 0x700000
    54d0:	8b050000 	blhi	1454d8 <__bss_end__+0x13b408>
    54d4:	00fd1602 	rscseq	r1, sp, r2, lsl #12
    54d8:	18780000 	ldmdane	r8!, {}^	; <UNPREDICTABLE>
    54dc:	000004c6 	andeq	r0, r0, r6, asr #9
    54e0:	10028c05 	andne	r8, r2, r5, lsl #24
    54e4:	0000080e 	andeq	r0, r0, lr, lsl #16
    54e8:	023e1880 	eorseq	r1, lr, #128, 16	; 0x800000
    54ec:	8d050000 	stchi	0, cr0, [r5, #-0]
    54f0:	081e1002 	ldmdaeq	lr, {r1, ip}
    54f4:	18880000 	stmne	r8, {}	; <UNPREDICTABLE>
    54f8:	00000470 	andeq	r0, r0, r0, ror r4
    54fc:	0f028e05 	svceq	0x00028e05
    5500:	00000025 	andeq	r0, r0, r5, lsr #32
    5504:	017e18a0 	cmneq	lr, r0, lsr #17
    5508:	8f050000 	svchi	0x00050000
    550c:	00fd1602 	rscseq	r1, sp, r2, lsl #12
    5510:	18a40000 	stmiane	r4!, {}	; <UNPREDICTABLE>
    5514:	0000008f 	andeq	r0, r0, pc, lsl #1
    5518:	16029005 	strne	r9, [r2], -r5
    551c:	000000fd 	strdeq	r0, [r0], -sp
    5520:	016d18ac 	cmneq	sp, ip, lsr #17
    5524:	91050000 	mrsls	r0, (UNDEF: 5)
    5528:	00fd1602 	rscseq	r1, sp, r2, lsl #12
    552c:	18b40000 	ldmne	r4!, {}	; <UNPREDICTABLE>
    5530:	0000003c 	andeq	r0, r0, ip, lsr r0
    5534:	16029205 	strne	r9, [r2], -r5, lsl #4
    5538:	000000fd 	strdeq	r0, [r0], -sp
    553c:	004b18bc 	strheq	r1, [fp], #-140	; 0xffffff74
    5540:	93050000 	movwls	r0, #20480	; 0x5000
    5544:	00fd1602 	rscseq	r1, sp, r2, lsl #12
    5548:	18c40000 	stmiane	r4, {}^	; <UNPREDICTABLE>
    554c:	0000036e 	andeq	r0, r0, lr, ror #6
    5550:	08029405 	stmdaeq	r2, {r0, r2, sl, ip, pc}
    5554:	00000025 	andeq	r0, r0, r5, lsr #32
    5558:	1d0a00cc 	stcne	0, cr0, [sl, #-816]	; 0xfffffcd0
    555c:	0e000001 	cdpeq	0, 0, cr0, cr0, cr1, {0}
    5560:	0b000008 	bleq	5588 <_start-0x2a78>
    5564:	0000002c 	andeq	r0, r0, ip, lsr #32
    5568:	1d0a0019 	stcne	0, cr0, [sl, #-100]	; 0xffffff9c
    556c:	1e000001 	cdpne	0, 0, cr0, cr0, cr1, {0}
    5570:	0b000008 	bleq	5598 <_start-0x2a68>
    5574:	0000002c 	andeq	r0, r0, ip, lsr #32
    5578:	1d0a0007 	stcne	0, cr0, [sl, #-28]	; 0xffffffe4
    557c:	2e000001 	cdpcs	0, 0, cr0, cr0, cr1, {0}
    5580:	0b000008 	bleq	55a8 <_start-0x2a58>
    5584:	0000002c 	andeq	r0, r0, ip, lsr #32
    5588:	f01b0017 			; <UNDEFINED> instruction: 0xf01b0017
    558c:	07029905 	streq	r9, [r2, -r5, lsl #18]
    5590:	00000855 	andeq	r0, r0, r5, asr r8
    5594:	00029a18 	andeq	r9, r2, r8, lsl sl
    5598:	029c0500 	addseq	r0, ip, #0, 10
    559c:	0008551b 	andeq	r5, r8, fp, lsl r5
    55a0:	bd180000 	ldclt	0, cr0, [r8, #-0]
    55a4:	05000004 	streq	r0, [r0, #-4]
    55a8:	6518029d 	ldrvs	r0, [r8, #-669]	; 0xfffffd63
    55ac:	78000008 	stmdavc	r0, {r3}
    55b0:	03050a00 	movweq	r0, #23040	; 0x5a00
    55b4:	08650000 	stmdaeq	r5!, {}^	; <UNPREDICTABLE>
    55b8:	2c0b0000 	stccs	0, cr0, [fp], {-0}
    55bc:	1d000000 	stcne	0, cr0, [r0, #-0]
    55c0:	002c0a00 	eoreq	r0, ip, r0, lsl #20
    55c4:	08750000 	ldmdaeq	r5!, {}^	; <UNPREDICTABLE>
    55c8:	2c0b0000 	stccs	0, cr0, [fp], {-0}
    55cc:	1d000000 	stcne	0, cr0, [r0, #-0]
    55d0:	05f01c00 	ldrbeq	r1, [r0, #3072]!	; 0xc00
    55d4:	9a03027e 	bls	c5fd4 <__bss_end__+0xbbf04>
    55d8:	1d000008 	stcne	0, cr0, [r0, #-32]	; 0xffffffe0
    55dc:	0000040c 	andeq	r0, r0, ip, lsl #8
    55e0:	0b029505 	bleq	aa9fc <__bss_end__+0xa092c>
    55e4:	000006e9 	andeq	r0, r0, r9, ror #13
    55e8:	0004e81d 	andeq	lr, r4, sp, lsl r8
    55ec:	029e0500 	addseq	r0, lr, #0, 10
    55f0:	00082e0b 	andeq	r2, r8, fp, lsl #28
    55f4:	1d0a0000 	stcne	0, cr0, [sl, #-0]
    55f8:	aa000001 	bge	5604 <_start-0x29fc>
    55fc:	0b000008 	bleq	5624 <_start-0x29dc>
    5600:	0000002c 	andeq	r0, r0, ip, lsr #32
    5604:	84060018 	strhi	r0, [r6], #-24	; 0xffffffe8
    5608:	05000000 	streq	r0, [r0, #-0]
    560c:	0008aa04 	andeq	sl, r8, r4, lsl #20
    5610:	08c01e00 	stmiaeq	r0, {r9, sl, fp, ip}^
    5614:	6c160000 	ldcvs	0, cr0, [r6], {-0}
    5618:	00000004 	andeq	r0, r0, r4
    561c:	08b50405 	ldmeq	r5!, {r0, r2, sl}
    5620:	04050000 	streq	r0, [r5], #-0
    5624:	0000018f 	andeq	r0, r0, pc, lsl #3
    5628:	0008d71e 	andeq	sp, r8, lr, lsl r7
    562c:	00251600 	eoreq	r1, r5, r0, lsl #12
    5630:	05000000 	streq	r0, [r0, #-0]
    5634:	0008dd04 	andeq	sp, r8, r4, lsl #26
    5638:	cc040500 	cfstr32gt	mvfx0, [r4], {-0}
    563c:	0a000008 	beq	5664 <_start-0x299c>
    5640:	0000064e 	andeq	r0, r0, lr, asr #12
    5644:	000008f3 	strdeq	r0, [r0], -r3
    5648:	00002c0b 	andeq	r2, r0, fp, lsl #24
    564c:	1f000200 	svcne	0x00000200
    5650:	00000484 	andeq	r0, r0, r4, lsl #9
    5654:	17032e05 	strne	r2, [r3, -r5, lsl #28]
    5658:	0000046c 	andeq	r0, r0, ip, ror #8
    565c:	00047d1f 	andeq	r7, r4, pc, lsl sp
    5660:	032f0500 			; <UNDEFINED> instruction: 0x032f0500
    5664:	0004721d 	andeq	r7, r4, sp, lsl r2
    5668:	00251500 	eoreq	r1, r5, r0, lsl #10
    566c:	091c0000 	ldmdbeq	ip, {}	; <UNPREDICTABLE>
    5670:	25160000 	ldrcs	r0, [r6, #-0]
    5674:	00000000 	andeq	r0, r0, r0
    5678:	0001d120 	andeq	sp, r1, r0, lsr #2
    567c:	0e1d0600 	cfmsub32eq	mvax0, mvfx0, mvfx13, mvfx0
    5680:	00000928 	andeq	r0, r0, r8, lsr #18
    5684:	090d0405 	stmdbeq	sp, {r0, r2, sl}
    5688:	25150000 	ldrcs	r0, [r5, #-0]
    568c:	3d000000 	stccc	0, cr0, [r0, #-0]
    5690:	16000009 	strne	r0, [r0], -r9
    5694:	000005e4 	andeq	r0, r0, r4, ror #11
    5698:	078c2000 	streq	r2, [ip, r0]
    569c:	22060000 	andcs	r0, r6, #0
    56a0:	0009490e 	andeq	r4, r9, lr, lsl #18
    56a4:	2e040500 	cfsh32cs	mvfx0, mvfx4, #0
    56a8:	21000009 	tstcs	r0, r9
    56ac:	0000093d 	andeq	r0, r0, sp, lsr r9
    56b0:	05070c01 	streq	r0, [r7, #-3073]	; 0xfffff3ff
    56b4:	00970403 	addseq	r0, r7, r3, lsl #8
    56b8:	07832200 	streq	r2, [r3, r0, lsl #4]
    56bc:	04010000 	streq	r0, [r1], #-0
    56c0:	00002505 	andeq	r2, r0, r5, lsl #10
    56c4:	008b6800 	addeq	r6, fp, r0, lsl #16
    56c8:	00003400 	andeq	r3, r0, r0, lsl #8
    56cc:	239c0100 	orrscs	r0, ip, #0, 2
    56d0:	04010070 	streq	r0, [r1], #-112	; 0xffffff90
    56d4:	0005e41f 	andeq	lr, r5, pc, lsl r4
    56d8:	000b6a00 	andeq	r6, fp, r0, lsl #20
    56dc:	000b6600 	andeq	r6, fp, r0, lsl #12
    56e0:	d2000000 	andle	r0, r0, #0
    56e4:	04000009 	streq	r0, [r0], #-9
    56e8:	00109d00 	andseq	r9, r0, r0, lsl #26
    56ec:	ef010400 	svc	0x00010400
    56f0:	0c000002 	stceq	0, cr0, [r0], {2}
    56f4:	000007b7 			; <UNDEFINED> instruction: 0x000007b7
    56f8:	000006e5 	andeq	r0, r0, r5, ror #13
    56fc:	00008b9c 	muleq	r0, ip, fp
    5700:	0000005c 	andeq	r0, r0, ip, asr r0
    5704:	00000f28 	andeq	r0, r0, r8, lsr #30
    5708:	69050402 	stmdbvs	r5, {r1, sl}
    570c:	0300746e 	movweq	r7, #1134	; 0x46e
    5710:	00660704 	rsbeq	r0, r6, r4, lsl #14
    5714:	01030000 	mrseq	r0, (UNDEF: 3)
    5718:	0002de06 	andeq	sp, r2, r6, lsl #28
    571c:	05020300 	streq	r0, [r2, #-768]	; 0xfffffd00
    5720:	00000377 	andeq	r0, r0, r7, ror r3
    5724:	ac050403 	cfstrsge	mvf0, [r5], {3}
    5728:	03000000 	movweq	r0, #0
    572c:	00a70508 	adceq	r0, r7, r8, lsl #10
    5730:	01030000 	mrseq	r0, (UNDEF: 3)
    5734:	0002dc08 	andeq	sp, r2, r8, lsl #24
    5738:	07020300 	streq	r0, [r2, -r0, lsl #6]
    573c:	00000222 	andeq	r0, r0, r2, lsr #4
    5740:	61070403 	tstvs	r7, r3, lsl #8
    5744:	03000000 	movweq	r0, #0
    5748:	005c0708 	subseq	r0, ip, r8, lsl #14
    574c:	65040000 	strvs	r0, [r4, #-0]
    5750:	02000002 	andeq	r0, r0, #2
    5754:	00771922 	rsbseq	r1, r7, r2, lsr #18
    5758:	04050000 	streq	r0, [r5], #-0
    575c:	0000007d 	andeq	r0, r0, sp, ror r0
    5760:	00042106 	andeq	r2, r4, r6, lsl #2
    5764:	02bd0400 	adcseq	r0, sp, #0, 8
    5768:	2c030000 	stccs	0, cr0, [r3], {-0}
    576c:	0000410e 	andeq	r4, r0, lr, lsl #2
    5770:	04360400 	ldrteq	r0, [r6], #-1024	; 0xfffffc00
    5774:	72030000 	andvc	r0, r3, #0
    5778:	0000410e 	andeq	r4, r0, lr, lsl #2
    577c:	026d0700 	rsbeq	r0, sp, #0, 14
    5780:	5e040000 	cdppl	0, 0, cr0, cr4, cr0, {0}
    5784:	002c1701 	eoreq	r1, ip, r1, lsl #14
    5788:	04080000 	streq	r0, [r8], #-0
    578c:	c903a603 	stmdbgt	r3, {r0, r1, r9, sl, sp, pc}
    5790:	09000000 	stmdbeq	r0, {}	; <UNPREDICTABLE>
    5794:	0000025f 	andeq	r0, r0, pc, asr r2
    5798:	9a0ca803 	bls	32f7ac <__bss_end__+0x3256dc>
    579c:	09000000 	stmdbeq	r0, {}	; <UNPREDICTABLE>
    57a0:	000001e2 	andeq	r0, r0, r2, ror #3
    57a4:	c913a903 	ldmdbgt	r3, {r0, r1, r8, fp, sp, pc}
    57a8:	00000000 	andeq	r0, r0, r0
    57ac:	00004f0a 	andeq	r4, r0, sl, lsl #30
    57b0:	0000d900 	andeq	sp, r0, r0, lsl #18
    57b4:	002c0b00 	eoreq	r0, ip, r0, lsl #22
    57b8:	00030000 	andeq	r0, r3, r0
    57bc:	a303080c 	movwge	r0, #14348	; 0x380c
    57c0:	0000fd09 	andeq	pc, r0, r9, lsl #26
    57c4:	04190d00 	ldreq	r0, [r9], #-3328	; 0xfffff300
    57c8:	a5030000 	strge	r0, [r3, #-0]
    57cc:	00002507 	andeq	r2, r0, r7, lsl #10
    57d0:	280d0000 	stmdacs	sp, {}	; <UNPREDICTABLE>
    57d4:	03000004 	movweq	r0, #4
    57d8:	00a705aa 	adceq	r0, r7, sl, lsr #11
    57dc:	00040000 	andeq	r0, r4, r0
    57e0:	0003a304 	andeq	sl, r3, r4, lsl #6
    57e4:	03ab0300 			; <UNDEFINED> instruction: 0x03ab0300
    57e8:	000000d9 	ldrdeq	r0, [r0], -r9
    57ec:	00019f04 	andeq	r9, r1, r4, lsl #30
    57f0:	1baf0300 	blne	febc63f8 <__bss_end__+0xfebbc328>
    57f4:	0000006b 	andeq	r0, r0, fp, rrx
    57f8:	0405040e 	streq	r0, [r5], #-1038	; 0xfffffbf2
    57fc:	0000011d 	andeq	r0, r0, sp, lsl r1
    5800:	e5080103 	str	r0, [r8, #-259]	; 0xfffffefd
    5804:	0f000002 	svceq	0x00000002
    5808:	0000011d 	andeq	r0, r0, sp, lsl r1
    580c:	00046804 	andeq	r6, r4, r4, lsl #16
    5810:	19160500 	ldmdbne	r6, {r8, sl}
    5814:	0000005d 	andeq	r0, r0, sp, asr r0
    5818:	0001b010 	andeq	fp, r1, r0, lsl r0
    581c:	2f051800 	svccs	0x00051800
    5820:	00018f08 	andeq	r8, r1, r8, lsl #30
    5824:	03c40d00 	biceq	r0, r4, #0, 26
    5828:	31050000 	mrscc	r0, (UNDEF: 5)
    582c:	00018f13 	andeq	r8, r1, r3, lsl pc
    5830:	5f110000 	svcpl	0x00110000
    5834:	3205006b 	andcc	r0, r5, #107	; 0x6b
    5838:	00002507 	andeq	r2, r0, r7, lsl #10
    583c:	040d0400 	streq	r0, [sp], #-1024	; 0xfffffc00
    5840:	05000004 	streq	r0, [r0, #-4]
    5844:	00250b32 	eoreq	r0, r5, r2, lsr fp
    5848:	0d080000 	stceq	0, cr0, [r8, #-0]
    584c:	00000199 	muleq	r0, r9, r1
    5850:	25143205 	ldrcs	r3, [r4, #-517]	; 0xfffffdfb
    5854:	0c000000 	stceq	0, cr0, [r0], {-0}
    5858:	0004a80d 	andeq	sl, r4, sp, lsl #16
    585c:	1b320500 	blne	c86c64 <__bss_end__+0xc7cb94>
    5860:	00000025 	andeq	r0, r0, r5, lsr #32
    5864:	785f1110 	ldmdavc	pc, {r4, r8, ip}^	; <UNPREDICTABLE>
    5868:	0b330500 	bleq	cc6c70 <__bss_end__+0xcbcba0>
    586c:	00000195 	muleq	r0, r5, r1
    5870:	04050014 	streq	r0, [r5], #-20	; 0xffffffec
    5874:	00000135 	andeq	r0, r0, r5, lsr r1
    5878:	0001290a 	andeq	r2, r1, sl, lsl #18
    587c:	0001a500 	andeq	sl, r1, r0, lsl #10
    5880:	002c0b00 	eoreq	r0, ip, r0, lsl #22
    5884:	00000000 	andeq	r0, r0, r0
    5888:	0001dd10 	andeq	sp, r1, r0, lsl sp
    588c:	37052400 	strcc	r2, [r5, -r0, lsl #8]
    5890:	00022808 	andeq	r2, r2, r8, lsl #16
    5894:	009e0d00 	addseq	r0, lr, r0, lsl #26
    5898:	39050000 	stmdbcc	r5, {}	; <UNPREDICTABLE>
    589c:	00002509 	andeq	r2, r0, r9, lsl #10
    58a0:	3e0d0000 	cdpcc	0, 0, cr0, cr13, cr0, {0}
    58a4:	05000004 	streq	r0, [r0, #-4]
    58a8:	0025093a 	eoreq	r0, r5, sl, lsr r9
    58ac:	0d040000 	stceq	0, cr0, [r4, #-0]
    58b0:	000000c1 	andeq	r0, r0, r1, asr #1
    58b4:	25093b05 	strcs	r3, [r9, #-2821]	; 0xfffff4fb
    58b8:	08000000 	stmdaeq	r0, {}	; <UNPREDICTABLE>
    58bc:	0005330d 	andeq	r3, r5, sp, lsl #6
    58c0:	093c0500 	ldmdbeq	ip!, {r8, sl}
    58c4:	00000025 	andeq	r0, r0, r5, lsr #32
    58c8:	02a10d0c 	adceq	r0, r1, #12, 26	; 0x300
    58cc:	3d050000 	stccc	0, cr0, [r5, #-0]
    58d0:	00002509 	andeq	r2, r0, r9, lsl #10
    58d4:	830d1000 	movwhi	r1, #53248	; 0xd000
    58d8:	05000002 	streq	r0, [r0, #-2]
    58dc:	0025093e 	eoreq	r0, r5, lr, lsr r9
    58e0:	0d140000 	ldceq	0, cr0, [r4, #-0]
    58e4:	000004ad 	andeq	r0, r0, sp, lsr #9
    58e8:	25093f05 	strcs	r3, [r9, #-3845]	; 0xfffff0fb
    58ec:	18000000 	stmdane	r0, {}	; <UNPREDICTABLE>
    58f0:	0005290d 	andeq	r2, r5, sp, lsl #18
    58f4:	09400500 	stmdbeq	r0, {r8, sl}^
    58f8:	00000025 	andeq	r0, r0, r5, lsr #32
    58fc:	04f00d1c 	ldrbteq	r0, [r0], #3356	; 0xd1c
    5900:	41050000 	mrsmi	r0, (UNDEF: 5)
    5904:	00002509 	andeq	r2, r0, r9, lsl #10
    5908:	12002000 	andne	r2, r0, #0
    590c:	00000101 	andeq	r0, r0, r1, lsl #2
    5910:	4a050108 	bmi	145d38 <__bss_end__+0x13bc68>
    5914:	00026d08 	andeq	r6, r2, r8, lsl #26
    5918:	018c0d00 	orreq	r0, ip, r0, lsl #26
    591c:	4b050000 	blmi	145924 <__bss_end__+0x13b854>
    5920:	00026d0a 	andeq	r6, r2, sl, lsl #26
    5924:	000d0000 	andeq	r0, sp, r0
    5928:	05000000 	streq	r0, [r0, #-0]
    592c:	026d094c 	rsbeq	r0, sp, #76, 18	; 0x130000
    5930:	13800000 	orrne	r0, r0, #0
    5934:	0000045a 	andeq	r0, r0, sl, asr r4
    5938:	290a4e05 	stmdbcs	sl, {r0, r2, r9, sl, fp, lr}
    593c:	00000001 	andeq	r0, r0, r1
    5940:	01261301 			; <UNDEFINED> instruction: 0x01261301
    5944:	51050000 	mrspl	r0, (UNDEF: 5)
    5948:	0001290a 	andeq	r2, r1, sl, lsl #18
    594c:	00010400 	andeq	r0, r1, r0, lsl #8
    5950:	0001150a 	andeq	r1, r1, sl, lsl #10
    5954:	00027d00 	andeq	r7, r2, r0, lsl #26
    5958:	002c0b00 	eoreq	r0, ip, r0, lsl #22
    595c:	001f0000 	andseq	r0, pc, r0
    5960:	0002aa12 	andeq	sl, r2, r2, lsl sl
    5964:	05019000 	streq	r9, [r1, #-0]
    5968:	02c0085d 	sbceq	r0, r0, #6094848	; 0x5d0000
    596c:	c40d0000 	strgt	r0, [sp], #-0
    5970:	05000003 	streq	r0, [r0, #-3]
    5974:	02c0125e 	sbceq	r1, r0, #-536870907	; 0xe0000005
    5978:	0d000000 	stceq	0, cr0, [r0, #-0]
    597c:	000003dc 	ldrdeq	r0, [r0], -ip
    5980:	25065f05 	strcs	r5, [r6, #-3845]	; 0xfffff0fb
    5984:	04000000 	streq	r0, [r0], #-0
    5988:	0001940d 	andeq	r9, r1, sp, lsl #8
    598c:	09610500 	stmdbeq	r1!, {r8, sl}^
    5990:	000002c6 	andeq	r0, r0, r6, asr #5
    5994:	01010d08 	tsteq	r1, r8, lsl #26
    5998:	62050000 	andvs	r0, r5, #0
    599c:	0002281e 	andeq	r2, r2, lr, lsl r8
    59a0:	05008800 	streq	r8, [r0, #-2048]	; 0xfffff800
    59a4:	00027d04 	andeq	r7, r2, r4, lsl #26
    59a8:	02d60a00 	sbcseq	r0, r6, #0, 20
    59ac:	02d60000 	sbcseq	r0, r6, #0
    59b0:	2c0b0000 	stccs	0, cr0, [fp], {-0}
    59b4:	1f000000 	svcne	0x00000000
    59b8:	dc040500 	cfstr32le	mvfx0, [r4], {-0}
    59bc:	14000002 	strne	r0, [r0], #-2
    59c0:	00038f10 	andeq	r8, r3, r0, lsl pc
    59c4:	75050800 	strvc	r0, [r5, #-2048]	; 0xfffff800
    59c8:	00030508 	andeq	r0, r3, r8, lsl #10
    59cc:	00bb0d00 	adcseq	r0, fp, r0, lsl #26
    59d0:	76050000 	strvc	r0, [r5], -r0
    59d4:	00030511 	andeq	r0, r3, r1, lsl r5
    59d8:	1b0d0000 	blne	3459e0 <__bss_end__+0x33b910>
    59dc:	05000000 	streq	r0, [r0, #-0]
    59e0:	00250677 	eoreq	r0, r5, r7, ror r6
    59e4:	00040000 	andeq	r0, r4, r0
    59e8:	004f0405 	subeq	r0, pc, r5, lsl #8
    59ec:	ae100000 	cdpge	0, 1, cr0, cr0, cr0, {0}
    59f0:	68000003 	stmdavs	r0, {r0, r1}
    59f4:	4e08b505 	cfsh32mi	mvfx11, mvfx8, #5
    59f8:	11000004 	tstne	r0, r4
    59fc:	0500705f 	streq	r7, [r0, #-95]	; 0xffffffa1
    5a00:	030512b6 	movweq	r1, #21174	; 0x52b6
    5a04:	11000000 	mrsne	r0, (UNDEF: 0)
    5a08:	0500725f 	streq	r7, [r0, #-607]	; 0xfffffda1
    5a0c:	002507b7 	strhteq	r0, [r5], -r7
    5a10:	11040000 	mrsne	r0, (UNDEF: 4)
    5a14:	0500775f 	streq	r7, [r0, #-1887]	; 0xfffff8a1
    5a18:	002507b8 	strhteq	r0, [r5], -r8
    5a1c:	0d080000 	stceq	0, cr0, [r8, #-0]
    5a20:	0000011f 	andeq	r0, r0, pc, lsl r1
    5a24:	3a09b905 	bcc	273e40 <__bss_end__+0x269d70>
    5a28:	0c000000 	stceq	0, cr0, [r0], {-0}
    5a2c:	0002080d 	andeq	r0, r2, sp, lsl #16
    5a30:	09ba0500 	ldmibeq	sl!, {r8, sl}
    5a34:	0000003a 	andeq	r0, r0, sl, lsr r0
    5a38:	625f110e 	subsvs	r1, pc, #-2147483645	; 0x80000003
    5a3c:	bb050066 	bllt	145bdc <__bss_end__+0x13bb0c>
    5a40:	0002dd11 	andeq	sp, r2, r1, lsl sp
    5a44:	7b0d1000 	blvc	349a4c <__bss_end__+0x33f97c>
    5a48:	05000000 	streq	r0, [r0, #-0]
    5a4c:	002507bc 	strhteq	r0, [r5], -ip
    5a50:	0d180000 	ldceq	0, cr0, [r8, #-0]
    5a54:	0000010f 	andeq	r0, r0, pc, lsl #2
    5a58:	150ac305 	strne	ip, [sl, #-773]	; 0xfffffcfb
    5a5c:	1c000001 	stcne	0, cr0, [r0], {1}
    5a60:	000b720d 	andeq	r7, fp, sp, lsl #4
    5a64:	1dc50500 	cfstr64ne	mvdx0, [r5]
    5a68:	000005c0 	andeq	r0, r0, r0, asr #11
    5a6c:	06360d20 	ldrteq	r0, [r6], -r0, lsr #26
    5a70:	c7050000 	strgt	r0, [r5, -r0]
    5a74:	0005ea1d 	andeq	lr, r5, sp, lsl sl
    5a78:	300d2400 	andcc	r2, sp, r0, lsl #8
    5a7c:	05000004 	streq	r0, [r0, #-4]
    5a80:	060e0dca 	streq	r0, [lr], -sl, asr #27
    5a84:	0d280000 	stceq	0, cr0, [r8, #-0]
    5a88:	0000050a 	andeq	r0, r0, sl, lsl #10
    5a8c:	2809cb05 	stmdacs	r9, {r0, r2, r8, r9, fp, lr, pc}
    5a90:	2c000006 	stccs	0, cr0, [r0], {6}
    5a94:	62755f11 	rsbsvs	r5, r5, #17, 30	; 0x44
    5a98:	11ce0500 	bicne	r0, lr, r0, lsl #10
    5a9c:	000002dd 	ldrdeq	r0, [r0], -sp
    5aa0:	755f1130 	ldrbvc	r1, [pc, #-304]	; 5978 <_start-0x2688>
    5aa4:	cf050070 	svcgt	0x00050070
    5aa8:	00030512 	andeq	r0, r3, r2, lsl r5
    5aac:	5f113800 	svcpl	0x00113800
    5ab0:	05007275 	streq	r7, [r0, #-629]	; 0xfffffd8b
    5ab4:	002507d0 	ldrdeq	r0, [r5], -r0	; <UNPREDICTABLE>
    5ab8:	0d3c0000 	ldceq	0, cr0, [ip, #-0]
    5abc:	000000b5 	strheq	r0, [r0], -r5
    5ac0:	2e11d305 	cdpcs	3, 1, cr13, cr1, cr5, {0}
    5ac4:	40000006 	andmi	r0, r0, r6
    5ac8:	0004e20d 	andeq	lr, r4, sp, lsl #4
    5acc:	11d40500 	bicsne	r0, r4, r0, lsl #10
    5ad0:	0000063e 	andeq	r0, r0, lr, lsr r6
    5ad4:	6c5f1143 	ldfvse	f1, [pc], {67}	; 0x43
    5ad8:	d7050062 	strle	r0, [r5, -r2, rrx]
    5adc:	0002dd11 	andeq	sp, r2, r1, lsl sp
    5ae0:	3d0d4400 	cfstrscc	mvf4, [sp, #-0]
    5ae4:	05000001 	streq	r0, [r0, #-1]
    5ae8:	002507da 	ldrdeq	r0, [r5], -sl	; <UNPREDICTABLE>
    5aec:	0d4c0000 	stcleq	0, cr0, [ip, #-0]
    5af0:	0000014e 	andeq	r0, r0, lr, asr #2
    5af4:	820adb05 	andhi	sp, sl, #5120	; 0x1400
    5af8:	50000000 	andpl	r0, r0, r0
    5afc:	000b130d 	andeq	r1, fp, sp, lsl #6
    5b00:	12de0500 	sbcsne	r0, lr, #0, 10
    5b04:	0000046c 	andeq	r0, r0, ip, ror #8
    5b08:	04220d54 	strteq	r0, [r2], #-3412	; 0xfffff2ac
    5b0c:	e2050000 	and	r0, r5, #0
    5b10:	0001090c 	andeq	r0, r1, ip, lsl #18
    5b14:	b60d5800 	strlt	r5, [sp], -r0, lsl #16
    5b18:	05000003 	streq	r0, [r0, #-3]
    5b1c:	00fd0ee4 	rscseq	r0, sp, r4, ror #29
    5b20:	0d5c0000 	ldcleq	0, cr0, [ip, #-0]
    5b24:	0000027b 	andeq	r0, r0, fp, ror r2
    5b28:	2509e505 	strcs	lr, [r9, #-1285]	; 0xfffffafb
    5b2c:	64000000 	strvs	r0, [r0], #-0
    5b30:	00251500 	eoreq	r1, r5, r0, lsl #10
    5b34:	046c0000 	strbteq	r0, [ip], #-0
    5b38:	6c160000 	ldcvs	0, cr0, [r6], {-0}
    5b3c:	16000004 	strne	r0, [r0], -r4
    5b40:	00000115 	andeq	r0, r0, r5, lsl r1
    5b44:	00011716 	andeq	r1, r1, r6, lsl r7
    5b48:	00251600 	eoreq	r1, r5, r0, lsl #12
    5b4c:	05000000 	streq	r0, [r0, #-0]
    5b50:	00047704 	andeq	r7, r4, r4, lsl #14
    5b54:	046c0f00 	strbteq	r0, [ip], #-3840	; 0xfffff100
    5b58:	0c170000 	ldceq	0, cr0, [r7], {-0}
    5b5c:	28000004 	stmdacs	r0, {r2}
    5b60:	02600504 	rsbeq	r0, r0, #4, 10	; 0x1000000
    5b64:	0005c008 	andeq	ip, r5, r8
    5b68:	03701800 	cmneq	r0, #0, 16
    5b6c:	62050000 	andvs	r0, r5, #0
    5b70:	00250702 	eoreq	r0, r5, r2, lsl #14
    5b74:	18000000 	stmdane	r0, {}	; <UNPREDICTABLE>
    5b78:	0000012e 	andeq	r0, r0, lr, lsr #2
    5b7c:	0b026705 	bleq	9f798 <__bss_end__+0x956c8>
    5b80:	0000069a 	muleq	r0, sl, r6
    5b84:	01f81804 	mvnseq	r1, r4, lsl #16
    5b88:	67050000 	strvs	r0, [r5, -r0]
    5b8c:	069a1402 	ldreq	r1, [sl], r2, lsl #8
    5b90:	18080000 	stmdane	r8, {}	; <UNPREDICTABLE>
    5b94:	000001a8 	andeq	r0, r0, r8, lsr #3
    5b98:	1e026705 	cdpne	7, 0, cr6, cr2, cr5, {0}
    5b9c:	0000069a 	muleq	r0, sl, r6
    5ba0:	03d7180c 	bicseq	r1, r7, #12, 16	; 0xc0000
    5ba4:	69050000 	stmdbvs	r5, {}	; <UNPREDICTABLE>
    5ba8:	00250802 	eoreq	r0, r5, r2, lsl #16
    5bac:	18100000 	ldmdane	r0, {}	; <UNPREDICTABLE>
    5bb0:	00000029 	andeq	r0, r0, r9, lsr #32
    5bb4:	08026a05 	stmdaeq	r2, {r0, r2, r9, fp, sp, lr}
    5bb8:	0000089a 	muleq	r0, sl, r8
    5bbc:	03eb1814 	mvneq	r1, #20, 16	; 0x140000
    5bc0:	6d050000 	stcvs	0, cr0, [r5, #-0]
    5bc4:	00250702 	eoreq	r0, r5, r2, lsl #14
    5bc8:	18300000 	ldmdane	r0!, {}	; <UNPREDICTABLE>
    5bcc:	00000a4f 	andeq	r0, r0, pc, asr #20
    5bd0:	16026e05 	strne	r6, [r2], -r5, lsl #28
    5bd4:	000008af 	andeq	r0, r0, pc, lsr #17
    5bd8:	02b21834 	adcseq	r1, r2, #52, 16	; 0x340000
    5bdc:	70050000 	andvc	r0, r5, r0
    5be0:	00250702 	eoreq	r0, r5, r2, lsl #14
    5be4:	18380000 	ldmdane	r8!, {}	; <UNPREDICTABLE>
    5be8:	000003e1 	andeq	r0, r0, r1, ror #7
    5bec:	0a027205 	beq	a2408 <__bss_end__+0x98338>
    5bf0:	000008c0 	andeq	r0, r0, r0, asr #17
    5bf4:	0257183c 	subseq	r1, r7, #60, 16	; 0x3c0000
    5bf8:	75050000 	strvc	r0, [r5, #-0]
    5bfc:	018f1302 	orreq	r1, pc, r2, lsl #6
    5c00:	18400000 	stmdane	r0, {}^	; <UNPREDICTABLE>
    5c04:	000001c7 	andeq	r0, r0, r7, asr #3
    5c08:	07027605 	streq	r7, [r2, -r5, lsl #12]
    5c0c:	00000025 	andeq	r0, r0, r5, lsr #32
    5c10:	05241844 	streq	r1, [r4, #-2116]!	; 0xfffff7bc
    5c14:	77050000 	strvc	r0, [r5, -r0]
    5c18:	018f1302 	orreq	r1, pc, r2, lsl #6
    5c1c:	18480000 	stmdane	r8, {}^	; <UNPREDICTABLE>
    5c20:	000002c4 	andeq	r0, r0, r4, asr #5
    5c24:	14027805 	strne	r7, [r2], #-2053	; 0xfffff7fb
    5c28:	000008c6 	andeq	r0, r0, r6, asr #17
    5c2c:	0200184c 	andeq	r1, r0, #76, 16	; 0x4c0000
    5c30:	7b050000 	blvc	145c38 <__bss_end__+0x13bb68>
    5c34:	00250702 	eoreq	r0, r5, r2, lsl #14
    5c38:	18500000 	ldmdane	r0, {}^	; <UNPREDICTABLE>
    5c3c:	00000146 	andeq	r0, r0, r6, asr #2
    5c40:	09027c05 	stmdbeq	r2, {r0, r2, sl, fp, ip, sp, lr}
    5c44:	00000117 	andeq	r0, r0, r7, lsl r1
    5c48:	02ea1854 	rsceq	r1, sl, #84, 16	; 0x540000
    5c4c:	9f050000 	svcls	0x00050000
    5c50:	08750702 	ldmdaeq	r5!, {r1, r8, r9, sl}^
    5c54:	19580000 	ldmdbne	r8, {}^	; <UNPREDICTABLE>
    5c58:	000002aa 	andeq	r0, r0, sl, lsr #5
    5c5c:	1302a305 	movwne	sl, #8965	; 0x2305
    5c60:	000002c0 	andeq	r0, r0, r0, asr #5
    5c64:	35190148 	ldrcc	r0, [r9, #-328]	; 0xfffffeb8
    5c68:	05000002 	streq	r0, [r0, #-2]
    5c6c:	7d1202a4 	lfmvc	f0, 4, [r2, #-656]	; 0xfffffd70
    5c70:	4c000002 	stcmi	0, cr0, [r0], {2}
    5c74:	04d01901 	ldrbeq	r1, [r0], #2305	; 0x901
    5c78:	a8050000 	stmdage	r5, {}	; <UNPREDICTABLE>
    5c7c:	08d70c02 	ldmeq	r7, {r1, sl, fp}^
    5c80:	02dc0000 	sbcseq	r0, ip, #0
    5c84:	00011719 	andeq	r1, r1, r9, lsl r7
    5c88:	02ad0500 	adceq	r0, sp, #0, 10
    5c8c:	00065b10 	andeq	r5, r6, r0, lsl fp
    5c90:	1902e000 	stmdbne	r2, {sp, lr, pc}
    5c94:	000000fc 	strdeq	r0, [r0], -ip
    5c98:	0a02af05 	beq	b18b4 <__bss_end__+0xa77e4>
    5c9c:	000008e3 	andeq	r0, r0, r3, ror #17
    5ca0:	050002ec 	streq	r0, [r0, #-748]	; 0xfffffd14
    5ca4:	00044e04 	andeq	r4, r4, r4, lsl #28
    5ca8:	00251500 	eoreq	r1, r5, r0, lsl #10
    5cac:	05e40000 	strbeq	r0, [r4, #0]!
    5cb0:	6c160000 	ldcvs	0, cr0, [r6], {-0}
    5cb4:	16000004 	strne	r0, [r0], -r4
    5cb8:	00000115 	andeq	r0, r0, r5, lsl r1
    5cbc:	0005e416 	andeq	lr, r5, r6, lsl r4
    5cc0:	00251600 	eoreq	r1, r5, r0, lsl #12
    5cc4:	05000000 	streq	r0, [r0, #-0]
    5cc8:	00012404 	andeq	r2, r1, r4, lsl #8
    5ccc:	c6040500 	strgt	r0, [r4], -r0, lsl #10
    5cd0:	15000005 	strne	r0, [r0, #-5]
    5cd4:	0000008e 	andeq	r0, r0, lr, lsl #1
    5cd8:	0000060e 	andeq	r0, r0, lr, lsl #12
    5cdc:	00046c16 	andeq	r6, r4, r6, lsl ip
    5ce0:	01151600 	tsteq	r5, r0, lsl #12
    5ce4:	8e160000 	cdphi	0, 1, cr0, cr6, cr0, {0}
    5ce8:	16000000 	strne	r0, [r0], -r0
    5cec:	00000025 	andeq	r0, r0, r5, lsr #32
    5cf0:	f0040500 			; <UNDEFINED> instruction: 0xf0040500
    5cf4:	15000005 	strne	r0, [r0, #-5]
    5cf8:	00000025 	andeq	r0, r0, r5, lsr #32
    5cfc:	00000628 	andeq	r0, r0, r8, lsr #12
    5d00:	00046c16 	andeq	r6, r4, r6, lsl ip
    5d04:	01151600 	tsteq	r5, r0, lsl #12
    5d08:	05000000 	streq	r0, [r0, #-0]
    5d0c:	00061404 	andeq	r1, r6, r4, lsl #8
    5d10:	004f0a00 	subeq	r0, pc, r0, lsl #20
    5d14:	063e0000 	ldrteq	r0, [lr], -r0
    5d18:	2c0b0000 	stccs	0, cr0, [fp], {-0}
    5d1c:	02000000 	andeq	r0, r0, #0
    5d20:	004f0a00 	subeq	r0, pc, r0, lsl #20
    5d24:	064e0000 	strbeq	r0, [lr], -r0
    5d28:	2c0b0000 	stccs	0, cr0, [fp], {-0}
    5d2c:	00000000 	andeq	r0, r0, r0
    5d30:	039c0700 	orrseq	r0, ip, #0, 14
    5d34:	1f050000 	svcne	0x00050000
    5d38:	030b1a01 	movweq	r1, #47617	; 0xba01
    5d3c:	b71a0000 	ldrlt	r0, [sl, -r0]
    5d40:	0c000004 	stceq	0, cr0, [r0], {4}
    5d44:	08012305 	stmdaeq	r1, {r0, r2, r8, r9, sp}
    5d48:	00000694 	muleq	r0, r4, r6
    5d4c:	0003c418 	andeq	ip, r3, r8, lsl r4
    5d50:	01250500 			; <UNDEFINED> instruction: 0x01250500
    5d54:	00069411 	andeq	r9, r6, r1, lsl r4
    5d58:	1b180000 	blne	605d60 <__bss_end__+0x5fbc90>
    5d5c:	05000002 	streq	r0, [r0, #-2]
    5d60:	25070126 	strcs	r0, [r7, #-294]	; 0xfffffeda
    5d64:	04000000 	streq	r0, [r0], #-0
    5d68:	00039618 	andeq	r9, r3, r8, lsl r6
    5d6c:	01270500 			; <UNDEFINED> instruction: 0x01270500
    5d70:	00069a0b 	andeq	r9, r6, fp, lsl #20
    5d74:	05000800 	streq	r0, [r0, #-2048]	; 0xfffff800
    5d78:	00065b04 	andeq	r5, r6, r4, lsl #22
    5d7c:	4e040500 	cfsh32mi	mvfx0, mvfx4, #0
    5d80:	1a000006 	bne	5da0 <_start-0x2260>
    5d84:	00000021 	andeq	r0, r0, r1, lsr #32
    5d88:	013f050e 	teqeq	pc, lr, lsl #10
    5d8c:	0006d908 	andeq	sp, r6, r8, lsl #18
    5d90:	04131800 	ldreq	r1, [r3], #-2048	; 0xfffff800
    5d94:	40050000 	andmi	r0, r5, r0
    5d98:	06d91201 	ldrbeq	r1, [r9], r1, lsl #4
    5d9c:	18000000 	stmdane	r0, {}	; <UNPREDICTABLE>
    5da0:	00000447 	andeq	r0, r0, r7, asr #8
    5da4:	12014105 	andne	r4, r1, #1073741825	; 0x40000001
    5da8:	000006d9 	ldrdeq	r0, [r0], -r9
    5dac:	04631806 	strbteq	r1, [r3], #-2054	; 0xfffff7fa
    5db0:	42050000 	andmi	r0, r5, #0
    5db4:	00561201 	subseq	r1, r6, r1, lsl #4
    5db8:	000c0000 	andeq	r0, ip, r0
    5dbc:	0000560a 	andeq	r5, r0, sl, lsl #12
    5dc0:	0006e900 	andeq	lr, r6, r0, lsl #18
    5dc4:	002c0b00 	eoreq	r0, ip, r0, lsl #22
    5dc8:	00020000 	andeq	r0, r2, r0
    5dcc:	8005d01b 	andhi	sp, r5, fp, lsl r0
    5dd0:	07fe0702 	ldrbeq	r0, [lr, r2, lsl #14]!
    5dd4:	9b180000 	blls	605ddc <__bss_end__+0x5fbd0c>
    5dd8:	05000004 	streq	r0, [r0, #-4]
    5ddc:	2c180282 	lfmcs	f0, 4, [r8], {130}	; 0x82
    5de0:	00000000 	andeq	r0, r0, r0
    5de4:	00044d18 	andeq	r4, r4, r8, lsl sp
    5de8:	02830500 	addeq	r0, r3, #0, 10
    5dec:	00011712 	andeq	r1, r1, r2, lsl r7
    5df0:	4a180400 	bmi	606df8 <__bss_end__+0x5fcd28>
    5df4:	05000002 	streq	r0, [r0, #-2]
    5df8:	fe100284 	cdp2	2, 1, cr0, cr0, cr4, {4}
    5dfc:	08000007 	stmdaeq	r0, {r0, r1, r2}
    5e00:	0004fb18 	andeq	pc, r4, r8, lsl fp	; <UNPREDICTABLE>
    5e04:	02850500 	addeq	r0, r5, #0, 10
    5e08:	0001a517 	andeq	sl, r1, r7, lsl r5
    5e0c:	b8182400 	ldmdalt	r8, {sl, sp}
    5e10:	05000001 	streq	r0, [r0, #-1]
    5e14:	250f0286 	strcs	r0, [pc, #-646]	; 5b96 <_start-0x246a>
    5e18:	48000000 	stmdami	r0, {}	; <UNPREDICTABLE>
    5e1c:	0003bf18 	andeq	fp, r3, r8, lsl pc
    5e20:	02870500 	addeq	r0, r7, #0, 10
    5e24:	0000642c 	andeq	r6, r0, ip, lsr #8
    5e28:	11185000 	tstne	r8, r0
    5e2c:	05000005 	streq	r0, [r0, #-5]
    5e30:	a01a0288 	andsge	r0, sl, r8, lsl #5
    5e34:	58000006 	stmdapl	r0, {r1, r2}
    5e38:	0003ca18 	andeq	ip, r3, r8, lsl sl
    5e3c:	02890500 	addeq	r0, r9, #0, 10
    5e40:	0000fd16 	andeq	pc, r0, r6, lsl sp	; <UNPREDICTABLE>
    5e44:	16186800 	ldrne	r6, [r8], -r0, lsl #16
    5e48:	05000005 	streq	r0, [r0, #-5]
    5e4c:	fd16028a 	ldc2	2, cr0, [r6, #-552]	; 0xfffffdd8
    5e50:	70000000 	andvc	r0, r0, r0
    5e54:	0002ce18 	andeq	ip, r2, r8, lsl lr
    5e58:	028b0500 	addeq	r0, fp, #0, 10
    5e5c:	0000fd16 	andeq	pc, r0, r6, lsl sp	; <UNPREDICTABLE>
    5e60:	c6187800 	ldrgt	r7, [r8], -r0, lsl #16
    5e64:	05000004 	streq	r0, [r0, #-4]
    5e68:	0e10028c 	cdpeq	2, 1, cr0, cr0, cr12, {4}
    5e6c:	80000008 	andhi	r0, r0, r8
    5e70:	00023e18 	andeq	r3, r2, r8, lsl lr
    5e74:	028d0500 	addeq	r0, sp, #0, 10
    5e78:	00081e10 	andeq	r1, r8, r0, lsl lr
    5e7c:	70188800 	andsvc	r8, r8, r0, lsl #16
    5e80:	05000004 	streq	r0, [r0, #-4]
    5e84:	250f028e 	strcs	r0, [pc, #-654]	; 5bfe <_start-0x2402>
    5e88:	a0000000 	andge	r0, r0, r0
    5e8c:	00017e18 	andeq	r7, r1, r8, lsl lr
    5e90:	028f0500 	addeq	r0, pc, #0, 10
    5e94:	0000fd16 	andeq	pc, r0, r6, lsl sp	; <UNPREDICTABLE>
    5e98:	8f18a400 	svchi	0x0018a400
    5e9c:	05000000 	streq	r0, [r0, #-0]
    5ea0:	fd160290 	ldc2	2, cr0, [r6, #-576]	; 0xfffffdc0
    5ea4:	ac000000 	stcge	0, cr0, [r0], {-0}
    5ea8:	00016d18 	andeq	r6, r1, r8, lsl sp
    5eac:	02910500 	addseq	r0, r1, #0, 10
    5eb0:	0000fd16 	andeq	pc, r0, r6, lsl sp	; <UNPREDICTABLE>
    5eb4:	3c18b400 	cfldrscc	mvf11, [r8], {-0}
    5eb8:	05000000 	streq	r0, [r0, #-0]
    5ebc:	fd160292 	ldc2	2, cr0, [r6, #-584]	; 0xfffffdb8
    5ec0:	bc000000 	stclt	0, cr0, [r0], {-0}
    5ec4:	00004b18 	andeq	r4, r0, r8, lsl fp
    5ec8:	02930500 	addseq	r0, r3, #0, 10
    5ecc:	0000fd16 	andeq	pc, r0, r6, lsl sp	; <UNPREDICTABLE>
    5ed0:	6e18c400 	cfmulsvs	mvf12, mvf8, mvf0
    5ed4:	05000003 	streq	r0, [r0, #-3]
    5ed8:	25080294 	strcs	r0, [r8, #-660]	; 0xfffffd6c
    5edc:	cc000000 	stcgt	0, cr0, [r0], {-0}
    5ee0:	011d0a00 	tsteq	sp, r0, lsl #20
    5ee4:	080e0000 	stmdaeq	lr, {}	; <UNPREDICTABLE>
    5ee8:	2c0b0000 	stccs	0, cr0, [fp], {-0}
    5eec:	19000000 	stmdbne	r0, {}	; <UNPREDICTABLE>
    5ef0:	011d0a00 	tsteq	sp, r0, lsl #20
    5ef4:	081e0000 	ldmdaeq	lr, {}	; <UNPREDICTABLE>
    5ef8:	2c0b0000 	stccs	0, cr0, [fp], {-0}
    5efc:	07000000 	streq	r0, [r0, -r0]
    5f00:	011d0a00 	tsteq	sp, r0, lsl #20
    5f04:	082e0000 	stmdaeq	lr!, {}	; <UNPREDICTABLE>
    5f08:	2c0b0000 	stccs	0, cr0, [fp], {-0}
    5f0c:	17000000 	strne	r0, [r0, -r0]
    5f10:	05f01b00 	ldrbeq	r1, [r0, #2816]!	; 0xb00
    5f14:	55070299 	strpl	r0, [r7, #-665]	; 0xfffffd67
    5f18:	18000008 	stmdane	r0, {r3}
    5f1c:	0000029a 	muleq	r0, sl, r2
    5f20:	1b029c05 	blne	acf3c <__bss_end__+0xa2e6c>
    5f24:	00000855 	andeq	r0, r0, r5, asr r8
    5f28:	04bd1800 	ldrteq	r1, [sp], #2048	; 0x800
    5f2c:	9d050000 	stcls	0, cr0, [r5, #-0]
    5f30:	08651802 	stmdaeq	r5!, {r1, fp, ip}^
    5f34:	00780000 	rsbseq	r0, r8, r0
    5f38:	0003050a 	andeq	r0, r3, sl, lsl #10
    5f3c:	00086500 	andeq	r6, r8, r0, lsl #10
    5f40:	002c0b00 	eoreq	r0, ip, r0, lsl #22
    5f44:	001d0000 	andseq	r0, sp, r0
    5f48:	00002c0a 	andeq	r2, r0, sl, lsl #24
    5f4c:	00087500 	andeq	r7, r8, r0, lsl #10
    5f50:	002c0b00 	eoreq	r0, ip, r0, lsl #22
    5f54:	001d0000 	andseq	r0, sp, r0
    5f58:	7e05f01c 	mcrvc	0, 0, pc, cr5, cr12, {0}	; <UNPREDICTABLE>
    5f5c:	089a0302 	ldmeq	sl, {r1, r8, r9}
    5f60:	0c1d0000 	ldceq	0, cr0, [sp], {-0}
    5f64:	05000004 	streq	r0, [r0, #-4]
    5f68:	e90b0295 	stmdb	fp, {r0, r2, r4, r7, r9}
    5f6c:	1d000006 	stcne	0, cr0, [r0, #-24]	; 0xffffffe8
    5f70:	000004e8 	andeq	r0, r0, r8, ror #9
    5f74:	0b029e05 	bleq	ad790 <__bss_end__+0xa36c0>
    5f78:	0000082e 	andeq	r0, r0, lr, lsr #16
    5f7c:	011d0a00 	tsteq	sp, r0, lsl #20
    5f80:	08aa0000 	stmiaeq	sl!, {}	; <UNPREDICTABLE>
    5f84:	2c0b0000 	stccs	0, cr0, [fp], {-0}
    5f88:	18000000 	stmdane	r0, {}	; <UNPREDICTABLE>
    5f8c:	00840600 	addeq	r0, r4, r0, lsl #12
    5f90:	04050000 	streq	r0, [r5], #-0
    5f94:	000008aa 	andeq	r0, r0, sl, lsr #17
    5f98:	0008c01e 	andeq	ip, r8, lr, lsl r0
    5f9c:	046c1600 	strbteq	r1, [ip], #-1536	; 0xfffffa00
    5fa0:	05000000 	streq	r0, [r0, #-0]
    5fa4:	0008b504 	andeq	fp, r8, r4, lsl #10
    5fa8:	8f040500 	svchi	0x00040500
    5fac:	1e000001 	cdpne	0, 0, cr0, cr0, cr1, {0}
    5fb0:	000008d7 	ldrdeq	r0, [r0], -r7
    5fb4:	00002516 	andeq	r2, r0, r6, lsl r5
    5fb8:	04050000 	streq	r0, [r5], #-0
    5fbc:	000008dd 	ldrdeq	r0, [r0], -sp
    5fc0:	08cc0405 	stmiaeq	ip, {r0, r2, sl}^
    5fc4:	4e0a0000 	cdpmi	0, 0, cr0, cr10, cr0, {0}
    5fc8:	f3000006 	vhadd.u8	d0, d0, d6
    5fcc:	0b000008 	bleq	5ff4 <_start-0x200c>
    5fd0:	0000002c 	andeq	r0, r0, ip, lsr #32
    5fd4:	841f0002 	ldrhi	r0, [pc], #-2	; 5fdc <_start-0x2024>
    5fd8:	05000004 	streq	r0, [r0, #-4]
    5fdc:	6c17032e 	ldcvs	3, cr0, [r7], {46}	; 0x2e
    5fe0:	1f000004 	svcne	0x00000004
    5fe4:	0000047d 	andeq	r0, r0, sp, ror r4
    5fe8:	1d032f05 	stcne	15, cr2, [r3, #-20]	; 0xffffffec
    5fec:	00000472 	andeq	r0, r0, r2, ror r4
    5ff0:	00002515 	andeq	r2, r0, r5, lsl r5
    5ff4:	00091c00 	andeq	r1, r9, r0, lsl #24
    5ff8:	00251600 	eoreq	r1, r5, r0, lsl #12
    5ffc:	20000000 	andcs	r0, r0, r0
    6000:	000001d1 	ldrdeq	r0, [r0], -r1
    6004:	280e1d06 	stmdacs	lr, {r1, r2, r8, sl, fp, ip}
    6008:	05000009 	streq	r0, [r0, #-9]
    600c:	00090d04 	andeq	r0, r9, r4, lsl #26
    6010:	00251500 	eoreq	r1, r5, r0, lsl #10
    6014:	093d0000 	ldmdbeq	sp!, {}	; <UNPREDICTABLE>
    6018:	e4160000 	ldr	r0, [r6], #-0
    601c:	00000005 	andeq	r0, r0, r5
    6020:	00078c20 	andeq	r8, r7, r0, lsr #24
    6024:	0e220600 	cfmadda32eq	mvax0, mvax0, mvfx2, mvfx0
    6028:	00000949 	andeq	r0, r0, r9, asr #18
    602c:	092e0405 	stmdbeq	lr!, {r0, r2, sl}
    6030:	a7210000 	strge	r0, [r1, -r0]!
    6034:	01000007 	tsteq	r0, r7
    6038:	00561708 	subseq	r1, r6, r8, lsl #14
    603c:	03050000 	movweq	r0, #20480	; 0x5000
    6040:	00009708 	andeq	r9, r0, r8, lsl #14
    6044:	74696222 	strbtvc	r6, [r9], #-546	; 0xfffffdde
    6048:	11090100 	mrsne	r0, (UNDEF: 25)
    604c:	0000002c 	andeq	r0, r0, ip, lsr #32
    6050:	00079d23 	andeq	r9, r7, r3, lsr #26
    6054:	06160100 	ldreq	r0, [r6], -r0, lsl #2
    6058:	00008be0 	andeq	r8, r0, r0, ror #23
    605c:	00000018 	andeq	r0, r0, r8, lsl r0
    6060:	09929c01 	ldmibeq	r2, {r0, sl, fp, ip, pc}
    6064:	14240000 	strtne	r0, [r4], #-0
    6068:	01000004 	tsteq	r0, r4
    606c:	002c1916 	eoreq	r1, ip, r6, lsl r9
    6070:	50010000 	andpl	r0, r1, r0
    6074:	04902500 	ldreq	r2, [r0], #1280	; 0x500
    6078:	11010000 	mrsne	r0, (UNDEF: 1)
    607c:	00005d0f 	andeq	r5, r0, pc, lsl #26
    6080:	008bc800 	addeq	ip, fp, r0, lsl #16
    6084:	00001800 	andeq	r1, r0, r0, lsl #16
    6088:	bf9c0100 	svclt	0x009c0100
    608c:	26000009 	strcs	r0, [r0], -r9
    6090:	00008bd0 	ldrdeq	r8, [r0], -r0
    6094:	000009bf 			; <UNDEFINED> instruction: 0x000009bf
    6098:	008bd826 	addeq	sp, fp, r6, lsr #16
    609c:	0009bf00 	andeq	fp, r9, r0, lsl #30
    60a0:	ac270000 	stcge	0, cr0, [r7], #-0
    60a4:	01000007 	tsteq	r0, r7
    60a8:	0056100b 	subseq	r1, r6, fp
    60ac:	8b9c0000 	blhi	fe7060b4 <__bss_end__+0xfe6fbfe4>
    60b0:	002c0000 	eoreq	r0, ip, r0
    60b4:	9c010000 	stcls	0, cr0, [r1], {-0}
    60b8:	000fa000 	andeq	sl, pc, r0
    60bc:	e4000400 	str	r0, [r0], #-1024	; 0xfffffc00
    60c0:	04000012 	streq	r0, [r0], #-18	; 0xffffffee
    60c4:	0002ef01 	andeq	lr, r2, r1, lsl #30
    60c8:	07c70c00 	strbeq	r0, [r7, r0, lsl #24]
    60cc:	06e50000 	strbteq	r0, [r5], r0
    60d0:	8bf80000 	blhi	ffe060d8 <__bss_end__+0xffdfc008>
    60d4:	05200000 	streq	r0, [r0, #-0]!
    60d8:	10500000 	subsne	r0, r0, r0
    60dc:	04020000 	streq	r0, [r2], #-0
    60e0:	746e6905 	strbtvc	r6, [lr], #-2309	; 0xfffff6fb
    60e4:	07040300 	streq	r0, [r4, -r0, lsl #6]
    60e8:	00000066 	andeq	r0, r0, r6, rrx
    60ec:	de060103 	adfles	f0, f6, f3
    60f0:	03000002 	movweq	r0, #2
    60f4:	03770502 	cmneq	r7, #8388608	; 0x800000
    60f8:	04030000 	streq	r0, [r3], #-0
    60fc:	0000ac05 	andeq	sl, r0, r5, lsl #24
    6100:	05080300 	streq	r0, [r8, #-768]	; 0xfffffd00
    6104:	000000a7 	andeq	r0, r0, r7, lsr #1
    6108:	dc080103 	stfles	f0, [r8], {3}
    610c:	03000002 	movweq	r0, #2
    6110:	02220702 	eoreq	r0, r2, #524288	; 0x80000
    6114:	04030000 	streq	r0, [r3], #-0
    6118:	00006107 	andeq	r6, r0, r7, lsl #2
    611c:	07080300 	streq	r0, [r8, -r0, lsl #6]
    6120:	0000005c 	andeq	r0, r0, ip, asr r0
    6124:	00026504 	andeq	r6, r2, r4, lsl #10
    6128:	19220200 	stmdbne	r2!, {r9}
    612c:	00000077 	andeq	r0, r0, r7, ror r0
    6130:	007d0405 	rsbseq	r0, sp, r5, lsl #8
    6134:	21060000 	mrscs	r0, (UNDEF: 6)
    6138:	04000004 	streq	r0, [r0], #-4
    613c:	000002bd 			; <UNDEFINED> instruction: 0x000002bd
    6140:	410e2c03 	tstmi	lr, r3, lsl #24
    6144:	04000000 	streq	r0, [r0], #-0
    6148:	00000436 	andeq	r0, r0, r6, lsr r4
    614c:	410e7203 	tstmi	lr, r3, lsl #4
    6150:	07000000 	streq	r0, [r0, -r0]
    6154:	0000026d 	andeq	r0, r0, sp, ror #4
    6158:	17015e04 	strne	r5, [r1, -r4, lsl #28]
    615c:	0000002c 	andeq	r0, r0, ip, lsr #32
    6160:	a6030408 	strge	r0, [r3], -r8, lsl #8
    6164:	0000c903 	andeq	ip, r0, r3, lsl #18
    6168:	025f0900 	subseq	r0, pc, #0, 18
    616c:	a8030000 	stmdage	r3, {}	; <UNPREDICTABLE>
    6170:	00009a0c 	andeq	r9, r0, ip, lsl #20
    6174:	01e20900 	mvneq	r0, r0, lsl #18
    6178:	a9030000 	stmdbge	r3, {}	; <UNPREDICTABLE>
    617c:	0000c913 	andeq	ip, r0, r3, lsl r9
    6180:	4f0a0000 	svcmi	0x000a0000
    6184:	d9000000 	stmdble	r0, {}	; <UNPREDICTABLE>
    6188:	0b000000 	bleq	6190 <_start-0x1e70>
    618c:	0000002c 	andeq	r0, r0, ip, lsr #32
    6190:	080c0003 	stmdaeq	ip, {r0, r1}
    6194:	fd09a303 	stc2	3, cr10, [r9, #-12]
    6198:	0d000000 	stceq	0, cr0, [r0, #-0]
    619c:	00000419 	andeq	r0, r0, r9, lsl r4
    61a0:	2507a503 	strcs	sl, [r7, #-1283]	; 0xfffffafd
    61a4:	00000000 	andeq	r0, r0, r0
    61a8:	0004280d 	andeq	r2, r4, sp, lsl #16
    61ac:	05aa0300 	streq	r0, [sl, #768]!	; 0x300
    61b0:	000000a7 	andeq	r0, r0, r7, lsr #1
    61b4:	a3040004 	movwge	r0, #16388	; 0x4004
    61b8:	03000003 	movweq	r0, #3
    61bc:	00d903ab 	sbcseq	r0, r9, fp, lsr #7
    61c0:	9f040000 	svcls	0x00040000
    61c4:	03000001 	movweq	r0, #1
    61c8:	006b1baf 	rsbeq	r1, fp, pc, lsr #23
    61cc:	040e0000 	streq	r0, [lr], #-0
    61d0:	011d0405 	tsteq	sp, r5, lsl #8
    61d4:	01030000 	mrseq	r0, (UNDEF: 3)
    61d8:	0002e508 	andeq	lr, r2, r8, lsl #10
    61dc:	011d0f00 	tsteq	sp, r0, lsl #30
    61e0:	68040000 	stmdavs	r4, {}	; <UNPREDICTABLE>
    61e4:	05000004 	streq	r0, [r0, #-4]
    61e8:	005d1916 	subseq	r1, sp, r6, lsl r9
    61ec:	b0100000 	andslt	r0, r0, r0
    61f0:	18000001 	stmdane	r0, {r0}
    61f4:	8f082f05 	svchi	0x00082f05
    61f8:	0d000001 	stceq	0, cr0, [r0, #-4]
    61fc:	000003c4 	andeq	r0, r0, r4, asr #7
    6200:	8f133105 	svchi	0x00133105
    6204:	00000001 	andeq	r0, r0, r1
    6208:	006b5f11 	rsbeq	r5, fp, r1, lsl pc
    620c:	25073205 	strcs	r3, [r7, #-517]	; 0xfffffdfb
    6210:	04000000 	streq	r0, [r0], #-0
    6214:	0004040d 	andeq	r0, r4, sp, lsl #8
    6218:	0b320500 	bleq	c87620 <__bss_end__+0xc7d550>
    621c:	00000025 	andeq	r0, r0, r5, lsr #32
    6220:	01990d08 	orrseq	r0, r9, r8, lsl #26
    6224:	32050000 	andcc	r0, r5, #0
    6228:	00002514 	andeq	r2, r0, r4, lsl r5
    622c:	a80d0c00 	stmdage	sp, {sl, fp}
    6230:	05000004 	streq	r0, [r0, #-4]
    6234:	00251b32 	eoreq	r1, r5, r2, lsr fp
    6238:	11100000 	tstne	r0, r0
    623c:	0500785f 	streq	r7, [r0, #-2143]	; 0xfffff7a1
    6240:	01950b33 	orrseq	r0, r5, r3, lsr fp
    6244:	00140000 	andseq	r0, r4, r0
    6248:	01350405 	teqeq	r5, r5, lsl #8
    624c:	290a0000 	stmdbcs	sl, {}	; <UNPREDICTABLE>
    6250:	a5000001 	strge	r0, [r0, #-1]
    6254:	0b000001 	bleq	6260 <_start-0x1da0>
    6258:	0000002c 	andeq	r0, r0, ip, lsr #32
    625c:	dd100000 	ldcle	0, cr0, [r0, #-0]
    6260:	24000001 	strcs	r0, [r0], #-1
    6264:	28083705 	stmdacs	r8, {r0, r2, r8, r9, sl, ip, sp}
    6268:	0d000002 	stceq	0, cr0, [r0, #-8]
    626c:	0000009e 	muleq	r0, lr, r0
    6270:	25093905 	strcs	r3, [r9, #-2309]	; 0xfffff6fb
    6274:	00000000 	andeq	r0, r0, r0
    6278:	00043e0d 	andeq	r3, r4, sp, lsl #28
    627c:	093a0500 	ldmdbeq	sl!, {r8, sl}
    6280:	00000025 	andeq	r0, r0, r5, lsr #32
    6284:	00c10d04 	sbceq	r0, r1, r4, lsl #26
    6288:	3b050000 	blcc	146290 <__bss_end__+0x13c1c0>
    628c:	00002509 	andeq	r2, r0, r9, lsl #10
    6290:	330d0800 	movwcc	r0, #55296	; 0xd800
    6294:	05000005 	streq	r0, [r0, #-5]
    6298:	0025093c 	eoreq	r0, r5, ip, lsr r9
    629c:	0d0c0000 	stceq	0, cr0, [ip, #-0]
    62a0:	000002a1 	andeq	r0, r0, r1, lsr #5
    62a4:	25093d05 	strcs	r3, [r9, #-3333]	; 0xfffff2fb
    62a8:	10000000 	andne	r0, r0, r0
    62ac:	0002830d 	andeq	r8, r2, sp, lsl #6
    62b0:	093e0500 	ldmdbeq	lr!, {r8, sl}
    62b4:	00000025 	andeq	r0, r0, r5, lsr #32
    62b8:	04ad0d14 	strteq	r0, [sp], #3348	; 0xd14
    62bc:	3f050000 	svccc	0x00050000
    62c0:	00002509 	andeq	r2, r0, r9, lsl #10
    62c4:	290d1800 	stmdbcs	sp, {fp, ip}
    62c8:	05000005 	streq	r0, [r0, #-5]
    62cc:	00250940 	eoreq	r0, r5, r0, asr #18
    62d0:	0d1c0000 	ldceq	0, cr0, [ip, #-0]
    62d4:	000004f0 	strdeq	r0, [r0], -r0	; <UNPREDICTABLE>
    62d8:	25094105 	strcs	r4, [r9, #-261]	; 0xfffffefb
    62dc:	20000000 	andcs	r0, r0, r0
    62e0:	01011200 	mrseq	r1, R9_usr
    62e4:	01080000 	mrseq	r0, (UNDEF: 8)
    62e8:	6d084a05 	vstrvs	s8, [r8, #-20]	; 0xffffffec
    62ec:	0d000002 	stceq	0, cr0, [r0, #-8]
    62f0:	0000018c 	andeq	r0, r0, ip, lsl #3
    62f4:	6d0a4b05 	vstrvs	d4, [sl, #-20]	; 0xffffffec
    62f8:	00000002 	andeq	r0, r0, r2
    62fc:	0000000d 	andeq	r0, r0, sp
    6300:	094c0500 	stmdbeq	ip, {r8, sl}^
    6304:	0000026d 	andeq	r0, r0, sp, ror #4
    6308:	045a1380 	ldrbeq	r1, [sl], #-896	; 0xfffffc80
    630c:	4e050000 	cdpmi	0, 0, cr0, cr5, cr0, {0}
    6310:	0001290a 	andeq	r2, r1, sl, lsl #18
    6314:	13010000 	movwne	r0, #4096	; 0x1000
    6318:	00000126 	andeq	r0, r0, r6, lsr #2
    631c:	290a5105 	stmdbcs	sl, {r0, r2, r8, ip, lr}
    6320:	04000001 	streq	r0, [r0], #-1
    6324:	150a0001 	strne	r0, [sl, #-1]
    6328:	7d000001 	stcvc	0, cr0, [r0, #-4]
    632c:	0b000002 	bleq	633c <_start-0x1cc4>
    6330:	0000002c 	andeq	r0, r0, ip, lsr #32
    6334:	aa12001f 	bge	4863b8 <__bss_end__+0x47c2e8>
    6338:	90000002 	andls	r0, r0, r2
    633c:	085d0501 	ldmdaeq	sp, {r0, r8, sl}^
    6340:	000002c0 	andeq	r0, r0, r0, asr #5
    6344:	0003c40d 	andeq	ip, r3, sp, lsl #8
    6348:	125e0500 	subsne	r0, lr, #0, 10
    634c:	000002c0 	andeq	r0, r0, r0, asr #5
    6350:	03dc0d00 	bicseq	r0, ip, #0, 26
    6354:	5f050000 	svcpl	0x00050000
    6358:	00002506 	andeq	r2, r0, r6, lsl #10
    635c:	940d0400 	strls	r0, [sp], #-1024	; 0xfffffc00
    6360:	05000001 	streq	r0, [r0, #-1]
    6364:	02c60961 	sbceq	r0, r6, #1589248	; 0x184000
    6368:	0d080000 	stceq	0, cr0, [r8, #-0]
    636c:	00000101 	andeq	r0, r0, r1, lsl #2
    6370:	281e6205 	ldmdacs	lr, {r0, r2, r9, sp, lr}
    6374:	88000002 	stmdahi	r0, {r1}
    6378:	7d040500 	cfstr32vc	mvfx0, [r4, #-0]
    637c:	0a000002 	beq	638c <_start-0x1c74>
    6380:	000002d6 	ldrdeq	r0, [r0], -r6
    6384:	000002d6 	ldrdeq	r0, [r0], -r6
    6388:	00002c0b 	andeq	r2, r0, fp, lsl #24
    638c:	05001f00 	streq	r1, [r0, #-3840]	; 0xfffff100
    6390:	0002dc04 	andeq	sp, r2, r4, lsl #24
    6394:	8f101400 	svchi	0x00101400
    6398:	08000003 	stmdaeq	r0, {r0, r1}
    639c:	05087505 	streq	r7, [r8, #-1285]	; 0xfffffafb
    63a0:	0d000003 	stceq	0, cr0, [r0, #-12]
    63a4:	000000bb 	strheq	r0, [r0], -fp
    63a8:	05117605 	ldreq	r7, [r1, #-1541]	; 0xfffff9fb
    63ac:	00000003 	andeq	r0, r0, r3
    63b0:	00001b0d 	andeq	r1, r0, sp, lsl #22
    63b4:	06770500 	ldrbteq	r0, [r7], -r0, lsl #10
    63b8:	00000025 	andeq	r0, r0, r5, lsr #32
    63bc:	04050004 	streq	r0, [r5], #-4
    63c0:	0000004f 	andeq	r0, r0, pc, asr #32
    63c4:	0003ae10 	andeq	sl, r3, r0, lsl lr
    63c8:	b5056800 	strlt	r6, [r5, #-2048]	; 0xfffff800
    63cc:	00044e08 	andeq	r4, r4, r8, lsl #28
    63d0:	705f1100 	subsvc	r1, pc, r0, lsl #2
    63d4:	12b60500 	adcsne	r0, r6, #0, 10
    63d8:	00000305 	andeq	r0, r0, r5, lsl #6
    63dc:	725f1100 	subsvc	r1, pc, #0, 2
    63e0:	07b70500 	ldreq	r0, [r7, r0, lsl #10]!
    63e4:	00000025 	andeq	r0, r0, r5, lsr #32
    63e8:	775f1104 	ldrbvc	r1, [pc, -r4, lsl #2]
    63ec:	07b80500 	ldreq	r0, [r8, r0, lsl #10]!
    63f0:	00000025 	andeq	r0, r0, r5, lsr #32
    63f4:	011f0d08 	tsteq	pc, r8, lsl #26
    63f8:	b9050000 	stmdblt	r5, {}	; <UNPREDICTABLE>
    63fc:	00003a09 	andeq	r3, r0, r9, lsl #20
    6400:	080d0c00 	stmdaeq	sp, {sl, fp}
    6404:	05000002 	streq	r0, [r0, #-2]
    6408:	003a09ba 	ldrhteq	r0, [sl], -sl
    640c:	110e0000 	mrsne	r0, (UNDEF: 14)
    6410:	0066625f 	rsbeq	r6, r6, pc, asr r2
    6414:	dd11bb05 	vldrle	d11, [r1, #-20]	; 0xffffffec
    6418:	10000002 	andne	r0, r0, r2
    641c:	00007b0d 	andeq	r7, r0, sp, lsl #22
    6420:	07bc0500 	ldreq	r0, [ip, r0, lsl #10]!
    6424:	00000025 	andeq	r0, r0, r5, lsr #32
    6428:	010f0d18 	tsteq	pc, r8, lsl sp	; <UNPREDICTABLE>
    642c:	c3050000 	movwgt	r0, #20480	; 0x5000
    6430:	0001150a 	andeq	r1, r1, sl, lsl #10
    6434:	720d1c00 	andvc	r1, sp, #0, 24
    6438:	0500000b 	streq	r0, [r0, #-11]
    643c:	05c01dc5 	strbeq	r1, [r0, #3525]	; 0xdc5
    6440:	0d200000 	stceq	0, cr0, [r0, #-0]
    6444:	00000636 	andeq	r0, r0, r6, lsr r6
    6448:	ea1dc705 	b	778064 <__bss_end__+0x76df94>
    644c:	24000005 	strcs	r0, [r0], #-5
    6450:	0004300d 	andeq	r3, r4, sp
    6454:	0dca0500 	cfstr64eq	mvdx0, [sl]
    6458:	0000060e 	andeq	r0, r0, lr, lsl #12
    645c:	050a0d28 	streq	r0, [sl, #-3368]	; 0xfffff2d8
    6460:	cb050000 	blgt	146468 <__bss_end__+0x13c398>
    6464:	00062809 	andeq	r2, r6, r9, lsl #16
    6468:	5f112c00 	svcpl	0x00112c00
    646c:	05006275 	streq	r6, [r0, #-629]	; 0xfffffd8b
    6470:	02dd11ce 	sbcseq	r1, sp, #-2147483597	; 0x80000033
    6474:	11300000 	teqne	r0, r0
    6478:	0070755f 	rsbseq	r7, r0, pc, asr r5
    647c:	0512cf05 	ldreq	ip, [r2, #-3845]	; 0xfffff0fb
    6480:	38000003 	stmdacc	r0, {r0, r1}
    6484:	72755f11 	rsbsvc	r5, r5, #17, 30	; 0x44
    6488:	07d00500 	ldrbeq	r0, [r0, r0, lsl #10]
    648c:	00000025 	andeq	r0, r0, r5, lsr #32
    6490:	00b50d3c 	adcseq	r0, r5, ip, lsr sp
    6494:	d3050000 	movwle	r0, #20480	; 0x5000
    6498:	00062e11 	andeq	r2, r6, r1, lsl lr
    649c:	e20d4000 	and	r4, sp, #0
    64a0:	05000004 	streq	r0, [r0, #-4]
    64a4:	063e11d4 			; <UNDEFINED> instruction: 0x063e11d4
    64a8:	11430000 	mrsne	r0, (UNDEF: 67)
    64ac:	00626c5f 	rsbeq	r6, r2, pc, asr ip
    64b0:	dd11d705 	ldcle	7, cr13, [r1, #-20]	; 0xffffffec
    64b4:	44000002 	strmi	r0, [r0], #-2
    64b8:	00013d0d 	andeq	r3, r1, sp, lsl #26
    64bc:	07da0500 	ldrbeq	r0, [sl, r0, lsl #10]
    64c0:	00000025 	andeq	r0, r0, r5, lsr #32
    64c4:	014e0d4c 	cmpeq	lr, ip, asr #26
    64c8:	db050000 	blle	1464d0 <__bss_end__+0x13c400>
    64cc:	0000820a 	andeq	r8, r0, sl, lsl #4
    64d0:	130d5000 	movwne	r5, #53248	; 0xd000
    64d4:	0500000b 	streq	r0, [r0, #-11]
    64d8:	046c12de 	strbteq	r1, [ip], #-734	; 0xfffffd22
    64dc:	0d540000 	ldcleq	0, cr0, [r4, #-0]
    64e0:	00000422 	andeq	r0, r0, r2, lsr #8
    64e4:	090ce205 	stmdbeq	ip, {r0, r2, r9, sp, lr, pc}
    64e8:	58000001 	stmdapl	r0, {r0}
    64ec:	0003b60d 	andeq	fp, r3, sp, lsl #12
    64f0:	0ee40500 	cdpeq	5, 14, cr0, cr4, cr0, {0}
    64f4:	000000fd 	strdeq	r0, [r0], -sp
    64f8:	027b0d5c 	rsbseq	r0, fp, #92, 26	; 0x1700
    64fc:	e5050000 	str	r0, [r5, #-0]
    6500:	00002509 	andeq	r2, r0, r9, lsl #10
    6504:	15006400 	strne	r6, [r0, #-1024]	; 0xfffffc00
    6508:	00000025 	andeq	r0, r0, r5, lsr #32
    650c:	0000046c 	andeq	r0, r0, ip, ror #8
    6510:	00046c16 	andeq	r6, r4, r6, lsl ip
    6514:	01151600 	tsteq	r5, r0, lsl #12
    6518:	17160000 	ldrne	r0, [r6, -r0]
    651c:	16000001 	strne	r0, [r0], -r1
    6520:	00000025 	andeq	r0, r0, r5, lsr #32
    6524:	77040500 	strvc	r0, [r4, -r0, lsl #10]
    6528:	0f000004 	svceq	0x00000004
    652c:	0000046c 	andeq	r0, r0, ip, ror #8
    6530:	00040c17 	andeq	r0, r4, r7, lsl ip
    6534:	05042800 	streq	r2, [r4, #-2048]	; 0xfffff800
    6538:	c0080260 	andgt	r0, r8, r0, ror #4
    653c:	18000005 	stmdane	r0, {r0, r2}
    6540:	00000370 	andeq	r0, r0, r0, ror r3
    6544:	07026205 	streq	r6, [r2, -r5, lsl #4]
    6548:	00000025 	andeq	r0, r0, r5, lsr #32
    654c:	012e1800 			; <UNDEFINED> instruction: 0x012e1800
    6550:	67050000 	strvs	r0, [r5, -r0]
    6554:	069a0b02 	ldreq	r0, [sl], r2, lsl #22
    6558:	18040000 	stmdane	r4, {}	; <UNPREDICTABLE>
    655c:	000001f8 	strdeq	r0, [r0], -r8
    6560:	14026705 	strne	r6, [r2], #-1797	; 0xfffff8fb
    6564:	0000069a 	muleq	r0, sl, r6
    6568:	01a81808 			; <UNDEFINED> instruction: 0x01a81808
    656c:	67050000 	strvs	r0, [r5, -r0]
    6570:	069a1e02 	ldreq	r1, [sl], r2, lsl #28
    6574:	180c0000 	stmdane	ip, {}	; <UNPREDICTABLE>
    6578:	000003d7 	ldrdeq	r0, [r0], -r7
    657c:	08026905 	stmdaeq	r2, {r0, r2, r8, fp, sp, lr}
    6580:	00000025 	andeq	r0, r0, r5, lsr #32
    6584:	00291810 	eoreq	r1, r9, r0, lsl r8
    6588:	6a050000 	bvs	146590 <__bss_end__+0x13c4c0>
    658c:	089a0802 	ldmeq	sl, {r1, fp}
    6590:	18140000 	ldmdane	r4, {}	; <UNPREDICTABLE>
    6594:	000003eb 	andeq	r0, r0, fp, ror #7
    6598:	07026d05 	streq	r6, [r2, -r5, lsl #26]
    659c:	00000025 	andeq	r0, r0, r5, lsr #32
    65a0:	0a4f1830 	beq	13cc668 <__bss_end__+0x13c2598>
    65a4:	6e050000 	cdpvs	0, 0, cr0, cr5, cr0, {0}
    65a8:	08af1602 	stmiaeq	pc!, {r1, r9, sl, ip}	; <UNPREDICTABLE>
    65ac:	18340000 	ldmdane	r4!, {}	; <UNPREDICTABLE>
    65b0:	000002b2 			; <UNDEFINED> instruction: 0x000002b2
    65b4:	07027005 	streq	r7, [r2, -r5]
    65b8:	00000025 	andeq	r0, r0, r5, lsr #32
    65bc:	03e11838 	mvneq	r1, #56, 16	; 0x380000
    65c0:	72050000 	andvc	r0, r5, #0
    65c4:	08c00a02 	stmiaeq	r0, {r1, r9, fp}^
    65c8:	183c0000 	ldmdane	ip!, {}	; <UNPREDICTABLE>
    65cc:	00000257 	andeq	r0, r0, r7, asr r2
    65d0:	13027505 	movwne	r7, #9477	; 0x2505
    65d4:	0000018f 	andeq	r0, r0, pc, lsl #3
    65d8:	01c71840 	biceq	r1, r7, r0, asr #16
    65dc:	76050000 	strvc	r0, [r5], -r0
    65e0:	00250702 	eoreq	r0, r5, r2, lsl #14
    65e4:	18440000 	stmdane	r4, {}^	; <UNPREDICTABLE>
    65e8:	00000524 	andeq	r0, r0, r4, lsr #10
    65ec:	13027705 	movwne	r7, #9989	; 0x2705
    65f0:	0000018f 	andeq	r0, r0, pc, lsl #3
    65f4:	02c41848 	sbceq	r1, r4, #72, 16	; 0x480000
    65f8:	78050000 	stmdavc	r5, {}	; <UNPREDICTABLE>
    65fc:	08c61402 	stmiaeq	r6, {r1, sl, ip}^
    6600:	184c0000 	stmdane	ip, {}^	; <UNPREDICTABLE>
    6604:	00000200 	andeq	r0, r0, r0, lsl #4
    6608:	07027b05 	streq	r7, [r2, -r5, lsl #22]
    660c:	00000025 	andeq	r0, r0, r5, lsr #32
    6610:	01461850 	cmpeq	r6, r0, asr r8
    6614:	7c050000 	stcvc	0, cr0, [r5], {-0}
    6618:	01170902 	tsteq	r7, r2, lsl #18
    661c:	18540000 	ldmdane	r4, {}^	; <UNPREDICTABLE>
    6620:	000002ea 	andeq	r0, r0, sl, ror #5
    6624:	07029f05 	streq	r9, [r2, -r5, lsl #30]
    6628:	00000875 	andeq	r0, r0, r5, ror r8
    662c:	02aa1958 	adceq	r1, sl, #88, 18	; 0x160000
    6630:	a3050000 	movwge	r0, #20480	; 0x5000
    6634:	02c01302 	sbceq	r1, r0, #134217728	; 0x8000000
    6638:	01480000 	mrseq	r0, (UNDEF: 72)
    663c:	00023519 	andeq	r3, r2, r9, lsl r5
    6640:	02a40500 	adceq	r0, r4, #0, 10
    6644:	00027d12 	andeq	r7, r2, r2, lsl sp
    6648:	19014c00 	stmdbne	r1, {sl, fp, lr}
    664c:	000004d0 	ldrdeq	r0, [r0], -r0	; <UNPREDICTABLE>
    6650:	0c02a805 	stceq	8, cr10, [r2], {5}
    6654:	000008d7 	ldrdeq	r0, [r0], -r7
    6658:	171902dc 			; <UNDEFINED> instruction: 0x171902dc
    665c:	05000001 	streq	r0, [r0, #-1]
    6660:	5b1002ad 	blpl	40711c <__bss_end__+0x3fd04c>
    6664:	e0000006 	and	r0, r0, r6
    6668:	00fc1902 	rscseq	r1, ip, r2, lsl #18
    666c:	af050000 	svcge	0x00050000
    6670:	08e30a02 	stmiaeq	r3!, {r1, r9, fp}^
    6674:	02ec0000 	rsceq	r0, ip, #0
    6678:	4e040500 	cfsh32mi	mvfx0, mvfx4, #0
    667c:	15000004 	strne	r0, [r0, #-4]
    6680:	00000025 	andeq	r0, r0, r5, lsr #32
    6684:	000005e4 	andeq	r0, r0, r4, ror #11
    6688:	00046c16 	andeq	r6, r4, r6, lsl ip
    668c:	01151600 	tsteq	r5, r0, lsl #12
    6690:	e4160000 	ldr	r0, [r6], #-0
    6694:	16000005 	strne	r0, [r0], -r5
    6698:	00000025 	andeq	r0, r0, r5, lsr #32
    669c:	24040500 	strcs	r0, [r4], #-1280	; 0xfffffb00
    66a0:	05000001 	streq	r0, [r0, #-1]
    66a4:	0005c604 	andeq	ip, r5, r4, lsl #12
    66a8:	008e1500 	addeq	r1, lr, r0, lsl #10
    66ac:	060e0000 	streq	r0, [lr], -r0
    66b0:	6c160000 	ldcvs	0, cr0, [r6], {-0}
    66b4:	16000004 	strne	r0, [r0], -r4
    66b8:	00000115 	andeq	r0, r0, r5, lsl r1
    66bc:	00008e16 	andeq	r8, r0, r6, lsl lr
    66c0:	00251600 	eoreq	r1, r5, r0, lsl #12
    66c4:	05000000 	streq	r0, [r0, #-0]
    66c8:	0005f004 	andeq	pc, r5, r4
    66cc:	00251500 	eoreq	r1, r5, r0, lsl #10
    66d0:	06280000 	strteq	r0, [r8], -r0
    66d4:	6c160000 	ldcvs	0, cr0, [r6], {-0}
    66d8:	16000004 	strne	r0, [r0], -r4
    66dc:	00000115 	andeq	r0, r0, r5, lsl r1
    66e0:	14040500 	strne	r0, [r4], #-1280	; 0xfffffb00
    66e4:	0a000006 	beq	6704 <_start-0x18fc>
    66e8:	0000004f 	andeq	r0, r0, pc, asr #32
    66ec:	0000063e 	andeq	r0, r0, lr, lsr r6
    66f0:	00002c0b 	andeq	r2, r0, fp, lsl #24
    66f4:	0a000200 	beq	6efc <_start-0x1104>
    66f8:	0000004f 	andeq	r0, r0, pc, asr #32
    66fc:	0000064e 	andeq	r0, r0, lr, asr #12
    6700:	00002c0b 	andeq	r2, r0, fp, lsl #24
    6704:	07000000 	streq	r0, [r0, -r0]
    6708:	0000039c 	muleq	r0, ip, r3
    670c:	1a011f05 	bne	4e328 <__bss_end__+0x44258>
    6710:	0000030b 	andeq	r0, r0, fp, lsl #6
    6714:	0004b71a 	andeq	fp, r4, sl, lsl r7
    6718:	23050c00 	movwcs	r0, #23552	; 0x5c00
    671c:	06940801 	ldreq	r0, [r4], r1, lsl #16
    6720:	c4180000 	ldrgt	r0, [r8], #-0
    6724:	05000003 	streq	r0, [r0, #-3]
    6728:	94110125 	ldrls	r0, [r1], #-293	; 0xfffffedb
    672c:	00000006 	andeq	r0, r0, r6
    6730:	00021b18 	andeq	r1, r2, r8, lsl fp
    6734:	01260500 			; <UNDEFINED> instruction: 0x01260500
    6738:	00002507 	andeq	r2, r0, r7, lsl #10
    673c:	96180400 	ldrls	r0, [r8], -r0, lsl #8
    6740:	05000003 	streq	r0, [r0, #-3]
    6744:	9a0b0127 	bls	2c6be8 <__bss_end__+0x2bcb18>
    6748:	08000006 	stmdaeq	r0, {r1, r2}
    674c:	5b040500 	blpl	107b54 <__bss_end__+0xfda84>
    6750:	05000006 	streq	r0, [r0, #-6]
    6754:	00064e04 	andeq	r4, r6, r4, lsl #28
    6758:	00211a00 	eoreq	r1, r1, r0, lsl #20
    675c:	050e0000 	streq	r0, [lr, #-0]
    6760:	d908013f 	stmdble	r8, {r0, r1, r2, r3, r4, r5, r8}
    6764:	18000006 	stmdane	r0, {r1, r2}
    6768:	00000413 	andeq	r0, r0, r3, lsl r4
    676c:	12014005 	andne	r4, r1, #5
    6770:	000006d9 	ldrdeq	r0, [r0], -r9
    6774:	04471800 	strbeq	r1, [r7], #-2048	; 0xfffff800
    6778:	41050000 	mrsmi	r0, (UNDEF: 5)
    677c:	06d91201 	ldrbeq	r1, [r9], r1, lsl #4
    6780:	18060000 	stmdane	r6, {}	; <UNPREDICTABLE>
    6784:	00000463 	andeq	r0, r0, r3, ror #8
    6788:	12014205 	andne	r4, r1, #1342177280	; 0x50000000
    678c:	00000056 	andeq	r0, r0, r6, asr r0
    6790:	560a000c 	strpl	r0, [sl], -ip
    6794:	e9000000 	stmdb	r0, {}	; <UNPREDICTABLE>
    6798:	0b000006 	bleq	67b8 <_start-0x1848>
    679c:	0000002c 	andeq	r0, r0, ip, lsr #32
    67a0:	d01b0002 	andsle	r0, fp, r2
    67a4:	07028005 	streq	r8, [r2, -r5]
    67a8:	000007fe 	strdeq	r0, [r0], -lr
    67ac:	00049b18 	andeq	r9, r4, r8, lsl fp
    67b0:	02820500 	addeq	r0, r2, #0, 10
    67b4:	00002c18 	andeq	r2, r0, r8, lsl ip
    67b8:	4d180000 	ldcmi	0, cr0, [r8, #-0]
    67bc:	05000004 	streq	r0, [r0, #-4]
    67c0:	17120283 	ldrne	r0, [r2, -r3, lsl #5]
    67c4:	04000001 	streq	r0, [r0], #-1
    67c8:	00024a18 	andeq	r4, r2, r8, lsl sl
    67cc:	02840500 	addeq	r0, r4, #0, 10
    67d0:	0007fe10 	andeq	pc, r7, r0, lsl lr	; <UNPREDICTABLE>
    67d4:	fb180800 	blx	6087de <__bss_end__+0x5fe70e>
    67d8:	05000004 	streq	r0, [r0, #-4]
    67dc:	a5170285 	ldrge	r0, [r7, #-645]	; 0xfffffd7b
    67e0:	24000001 	strcs	r0, [r0], #-1
    67e4:	0001b818 	andeq	fp, r1, r8, lsl r8
    67e8:	02860500 	addeq	r0, r6, #0, 10
    67ec:	0000250f 	andeq	r2, r0, pc, lsl #10
    67f0:	bf184800 	svclt	0x00184800
    67f4:	05000003 	streq	r0, [r0, #-3]
    67f8:	642c0287 	strtvs	r0, [ip], #-647	; 0xfffffd79
    67fc:	50000000 	andpl	r0, r0, r0
    6800:	00051118 	andeq	r1, r5, r8, lsl r1
    6804:	02880500 	addeq	r0, r8, #0, 10
    6808:	0006a01a 	andeq	sl, r6, sl, lsl r0
    680c:	ca185800 	bgt	61c814 <__bss_end__+0x612744>
    6810:	05000003 	streq	r0, [r0, #-3]
    6814:	fd160289 	ldc2	2, cr0, [r6, #-548]	; 0xfffffddc
    6818:	68000000 	stmdavs	r0, {}	; <UNPREDICTABLE>
    681c:	00051618 	andeq	r1, r5, r8, lsl r6
    6820:	028a0500 	addeq	r0, sl, #0, 10
    6824:	0000fd16 	andeq	pc, r0, r6, lsl sp	; <UNPREDICTABLE>
    6828:	ce187000 	cdpgt	0, 1, cr7, cr8, cr0, {0}
    682c:	05000002 	streq	r0, [r0, #-2]
    6830:	fd16028b 	ldc2	2, cr0, [r6, #-556]	; 0xfffffdd4
    6834:	78000000 	stmdavc	r0, {}	; <UNPREDICTABLE>
    6838:	0004c618 	andeq	ip, r4, r8, lsl r6
    683c:	028c0500 	addeq	r0, ip, #0, 10
    6840:	00080e10 	andeq	r0, r8, r0, lsl lr
    6844:	3e188000 	cdpcc	0, 1, cr8, cr8, cr0, {0}
    6848:	05000002 	streq	r0, [r0, #-2]
    684c:	1e10028d 	cdpne	2, 1, cr0, cr0, cr13, {4}
    6850:	88000008 	stmdahi	r0, {r3}
    6854:	00047018 	andeq	r7, r4, r8, lsl r0
    6858:	028e0500 	addeq	r0, lr, #0, 10
    685c:	0000250f 	andeq	r2, r0, pc, lsl #10
    6860:	7e18a000 	cdpvc	0, 1, cr10, cr8, cr0, {0}
    6864:	05000001 	streq	r0, [r0, #-1]
    6868:	fd16028f 	ldc2	2, cr0, [r6, #-572]	; 0xfffffdc4
    686c:	a4000000 	strge	r0, [r0], #-0
    6870:	00008f18 	andeq	r8, r0, r8, lsl pc
    6874:	02900500 	addseq	r0, r0, #0, 10
    6878:	0000fd16 	andeq	pc, r0, r6, lsl sp	; <UNPREDICTABLE>
    687c:	6d18ac00 	ldcvs	12, cr10, [r8, #-0]
    6880:	05000001 	streq	r0, [r0, #-1]
    6884:	fd160291 	ldc2	2, cr0, [r6, #-580]	; 0xfffffdbc
    6888:	b4000000 	strlt	r0, [r0], #-0
    688c:	00003c18 	andeq	r3, r0, r8, lsl ip
    6890:	02920500 	addseq	r0, r2, #0, 10
    6894:	0000fd16 	andeq	pc, r0, r6, lsl sp	; <UNPREDICTABLE>
    6898:	4b18bc00 	blmi	6358a0 <__bss_end__+0x62b7d0>
    689c:	05000000 	streq	r0, [r0, #-0]
    68a0:	fd160293 	ldc2	2, cr0, [r6, #-588]	; 0xfffffdb4
    68a4:	c4000000 	strgt	r0, [r0], #-0
    68a8:	00036e18 	andeq	r6, r3, r8, lsl lr
    68ac:	02940500 	addseq	r0, r4, #0, 10
    68b0:	00002508 	andeq	r2, r0, r8, lsl #10
    68b4:	0a00cc00 	beq	398bc <__bss_end__+0x2f7ec>
    68b8:	0000011d 	andeq	r0, r0, sp, lsl r1
    68bc:	0000080e 	andeq	r0, r0, lr, lsl #16
    68c0:	00002c0b 	andeq	r2, r0, fp, lsl #24
    68c4:	0a001900 	beq	cccc <__bss_end__+0x2bfc>
    68c8:	0000011d 	andeq	r0, r0, sp, lsl r1
    68cc:	0000081e 	andeq	r0, r0, lr, lsl r8
    68d0:	00002c0b 	andeq	r2, r0, fp, lsl #24
    68d4:	0a000700 	beq	84dc <ck_init+0x14>
    68d8:	0000011d 	andeq	r0, r0, sp, lsl r1
    68dc:	0000082e 	andeq	r0, r0, lr, lsr #16
    68e0:	00002c0b 	andeq	r2, r0, fp, lsl #24
    68e4:	1b001700 	blne	c4ec <__bss_end__+0x241c>
    68e8:	029905f0 	addseq	r0, r9, #240, 10	; 0x3c000000
    68ec:	00085507 	andeq	r5, r8, r7, lsl #10
    68f0:	029a1800 	addseq	r1, sl, #0, 16
    68f4:	9c050000 	stcls	0, cr0, [r5], {-0}
    68f8:	08551b02 	ldmdaeq	r5, {r1, r8, r9, fp, ip}^
    68fc:	18000000 	stmdane	r0, {}	; <UNPREDICTABLE>
    6900:	000004bd 			; <UNDEFINED> instruction: 0x000004bd
    6904:	18029d05 	stmdane	r2, {r0, r2, r8, sl, fp, ip, pc}
    6908:	00000865 	andeq	r0, r0, r5, ror #16
    690c:	050a0078 	streq	r0, [sl, #-120]	; 0xffffff88
    6910:	65000003 	strvs	r0, [r0, #-3]
    6914:	0b000008 	bleq	693c <_start-0x16c4>
    6918:	0000002c 	andeq	r0, r0, ip, lsr #32
    691c:	2c0a001d 	stccs	0, cr0, [sl], {29}
    6920:	75000000 	strvc	r0, [r0, #-0]
    6924:	0b000008 	bleq	694c <_start-0x16b4>
    6928:	0000002c 	andeq	r0, r0, ip, lsr #32
    692c:	f01c001d 			; <UNDEFINED> instruction: 0xf01c001d
    6930:	03027e05 	movweq	r7, #11781	; 0x2e05
    6934:	0000089a 	muleq	r0, sl, r8
    6938:	00040c1d 	andeq	r0, r4, sp, lsl ip
    693c:	02950500 	addseq	r0, r5, #0, 10
    6940:	0006e90b 	andeq	lr, r6, fp, lsl #18
    6944:	04e81d00 	strbteq	r1, [r8], #3328	; 0xd00
    6948:	9e050000 	cdpls	0, 0, cr0, cr5, cr0, {0}
    694c:	082e0b02 	stmdaeq	lr!, {r1, r8, r9, fp}
    6950:	0a000000 	beq	6958 <_start-0x16a8>
    6954:	0000011d 	andeq	r0, r0, sp, lsl r1
    6958:	000008aa 	andeq	r0, r0, sl, lsr #17
    695c:	00002c0b 	andeq	r2, r0, fp, lsl #24
    6960:	06001800 	streq	r1, [r0], -r0, lsl #16
    6964:	00000084 	andeq	r0, r0, r4, lsl #1
    6968:	08aa0405 	stmiaeq	sl!, {r0, r2, sl}
    696c:	c01e0000 	andsgt	r0, lr, r0
    6970:	16000008 	strne	r0, [r0], -r8
    6974:	0000046c 	andeq	r0, r0, ip, ror #8
    6978:	b5040500 	strlt	r0, [r4, #-1280]	; 0xfffffb00
    697c:	05000008 	streq	r0, [r0, #-8]
    6980:	00018f04 	andeq	r8, r1, r4, lsl #30
    6984:	08d71e00 	ldmeq	r7, {r9, sl, fp, ip}^
    6988:	25160000 	ldrcs	r0, [r6, #-0]
    698c:	00000000 	andeq	r0, r0, r0
    6990:	08dd0405 	ldmeq	sp, {r0, r2, sl}^
    6994:	04050000 	streq	r0, [r5], #-0
    6998:	000008cc 	andeq	r0, r0, ip, asr #17
    699c:	00064e0a 	andeq	r4, r6, sl, lsl #28
    69a0:	0008f300 	andeq	pc, r8, r0, lsl #6
    69a4:	002c0b00 	eoreq	r0, ip, r0, lsl #22
    69a8:	00020000 	andeq	r0, r2, r0
    69ac:	0004841f 	andeq	r8, r4, pc, lsl r4
    69b0:	032e0500 			; <UNDEFINED> instruction: 0x032e0500
    69b4:	00046c17 	andeq	r6, r4, r7, lsl ip
    69b8:	047d1f00 	ldrbteq	r1, [sp], #-3840	; 0xfffff100
    69bc:	2f050000 	svccs	0x00050000
    69c0:	04721d03 	ldrbteq	r1, [r2], #-3331	; 0xfffff2fd
    69c4:	25150000 	ldrcs	r0, [r5, #-0]
    69c8:	1c000000 	stcne	0, cr0, [r0], {-0}
    69cc:	16000009 	strne	r0, [r0], -r9
    69d0:	00000025 	andeq	r0, r0, r5, lsr #32
    69d4:	01d12000 	bicseq	r2, r1, r0
    69d8:	1d060000 	stcne	0, cr0, [r6, #-0]
    69dc:	0009280e 	andeq	r2, r9, lr, lsl #16
    69e0:	0d040500 	cfstr32eq	mvfx0, [r4, #-0]
    69e4:	15000009 	strne	r0, [r0, #-9]
    69e8:	00000025 	andeq	r0, r0, r5, lsr #32
    69ec:	0000093d 	andeq	r0, r0, sp, lsr r9
    69f0:	0005e416 	andeq	lr, r5, r6, lsl r4
    69f4:	8c200000 	stchi	0, cr0, [r0], #-0
    69f8:	06000007 	streq	r0, [r0], -r7
    69fc:	09490e22 	stmdbeq	r9, {r1, r5, r9, sl, fp}^
    6a00:	04050000 	streq	r0, [r5], #-0
    6a04:	0000092e 	andeq	r0, r0, lr, lsr #18
    6a08:	00072a04 	andeq	r2, r7, r4, lsl #20
    6a0c:	1b280700 	blne	a08614 <__bss_end__+0x9fe544>
    6a10:	0000095b 	andeq	r0, r0, fp, asr r9
    6a14:	00071621 	andeq	r1, r7, r1, lsr #12
    6a18:	00080400 	andeq	r0, r8, r0, lsl #8
    6a1c:	00000972 	andeq	r0, r0, r2, ror r9
    6a20:	00073922 	andeq	r3, r7, r2, lsr #18
    6a24:	00011500 	andeq	r1, r1, r0, lsl #10
    6a28:	04000000 	streq	r0, [r0], #-0
    6a2c:	00000718 	andeq	r0, r0, r8, lsl r7
    6a30:	4f186307 	svcmi	0x00186307
    6a34:	23000009 	movwcs	r0, #9
    6a38:	00000720 	andeq	r0, r0, r0, lsr #14
    6a3c:	25057f01 	strcs	r7, [r5, #-3841]	; 0xfffff0ff
    6a40:	68000000 	stmdavs	r0, {}	; <UNPREDICTABLE>
    6a44:	b000008e 	andlt	r0, r0, lr, lsl #1
    6a48:	01000002 	tsteq	r0, r2
    6a4c:	000c0e9c 	muleq	ip, ip, lr
    6a50:	75622400 	strbvc	r2, [r2, #-1024]!	; 0xfffffc00
    6a54:	7f010066 	svcvc	0x00010066
    6a58:	00011715 	andeq	r1, r1, r5, lsl r7
    6a5c:	000b8e00 	andeq	r8, fp, r0, lsl #28
    6a60:	000b8800 	andeq	r8, fp, r0, lsl #16
    6a64:	006e2400 	rsbeq	r2, lr, r0, lsl #8
    6a68:	251e7f01 	ldrcs	r7, [lr, #-3841]	; 0xfffff0ff
    6a6c:	c0000000 	andgt	r0, r0, r0
    6a70:	ba00000b 	blt	6aa4 <_start-0x155c>
    6a74:	2400000b 	strcs	r0, [r0], #-11
    6a78:	00746d66 	rsbseq	r6, r4, r6, ror #26
    6a7c:	e42d7f01 	strt	r7, [sp], #-3841	; 0xfffff0ff
    6a80:	f2000005 	vhadd.s8	d0, d0, d5
    6a84:	ee00000b 	cdp	0, 0, cr0, cr0, cr11, {0}
    6a88:	2500000b 	strcs	r0, [r0, #-11]
    6a8c:	0000010a 	andeq	r0, r0, sl, lsl #2
    6a90:	723a7f01 	eorsvc	r7, sl, #1, 30
    6a94:	03000009 	movweq	r0, #9
    6a98:	267edc91 			; <UNDEFINED> instruction: 0x267edc91
    6a9c:	80010070 	andhi	r0, r1, r0, ror r0
    6aa0:	00011708 	andeq	r1, r1, r8, lsl #14
    6aa4:	000c2400 	andeq	r2, ip, r0, lsl #8
    6aa8:	000c1000 	andeq	r1, ip, r0
    6aac:	00652600 	rsbeq	r2, r5, r0, lsl #12
    6ab0:	17128001 	ldrne	r8, [r2, -r1]
    6ab4:	a6000001 	strge	r0, [r0], -r1
    6ab8:	a200000c 	andge	r0, r0, #12
    6abc:	2700000c 	strcs	r0, [r0, -ip]
    6ac0:	0000020e 	andeq	r0, r0, lr, lsl #4
    6ac4:	00000c1e 	andeq	r0, r0, lr, lsl ip
    6ac8:	9b880305 	blls	fe2076e4 <__bss_end__+0xfe1fd614>
    6acc:	cc280000 	stcgt	0, cr0, [r8], #-0
    6ad0:	2400008e 	strcs	r0, [r0], #-142	; 0xffffff72
    6ad4:	26000002 	strcs	r0, [r0], -r2
    6ad8:	8d010073 	stchi	0, cr0, [r1, #-460]	; 0xfffffe34
    6adc:	0001170a 	andeq	r1, r1, sl, lsl #14
    6ae0:	000cd700 	andeq	sp, ip, r0, lsl #14
    6ae4:	000ccd00 	andeq	ip, ip, r0, lsl #26
    6ae8:	756e2900 	strbvc	r2, [lr, #-2304]!	; 0xfffff700
    6aec:	8d01006d 	stchi	0, cr0, [r1, #-436]	; 0xfffffe4c
    6af0:	000c230d 	andeq	r2, ip, sp, lsl #6
    6af4:	e0910300 	adds	r0, r1, r0, lsl #6
    6af8:	07f82a7e 			; <UNDEFINED> instruction: 0x07f82a7e
    6afc:	8e010000 	cdphi	0, 0, cr0, cr1, cr0, {0}
    6b00:	00002c0d 	andeq	r2, r0, sp, lsl #24
    6b04:	000d1c00 	andeq	r1, sp, r0, lsl #24
    6b08:	000d1600 	andeq	r1, sp, r0, lsl #12
    6b0c:	8ef42b00 	vmovhi.f64	d18, #64	; 0x3e000000  0.125
    6b10:	0eae0000 	cdpeq	0, 10, cr0, cr14, cr0, {0}
    6b14:	0a680000 	beq	1a06b1c <__bss_end__+0x19fca4c>
    6b18:	012c0000 			; <UNDEFINED> instruction: 0x012c0000
    6b1c:	00750250 	rsbseq	r0, r5, r0, asr r2
    6b20:	8f742d00 	svchi	0x00742d00
    6b24:	0f7f0000 	svceq	0x007f0000
    6b28:	882b0000 	stmdahi	fp!, {}	; <UNPREDICTABLE>
    6b2c:	8b00008f 	blhi	6d70 <_start-0x1290>
    6b30:	a000000f 	andge	r0, r0, pc
    6b34:	2c00000a 	stccs	0, cr0, [r0], {10}
    6b38:	03055001 	movweq	r5, #20481	; 0x5001
    6b3c:	00009af4 	strdeq	r9, [r0], -r4
    6b40:	0551012c 	ldrbeq	r0, [r1, #-300]	; 0xfffffed4
    6b44:	009a9003 	addseq	r9, sl, r3
    6b48:	52012c00 	andpl	r2, r1, #0, 24
    6b4c:	9b880305 	blls	fe207768 <__bss_end__+0xfe1fd698>
    6b50:	012c0000 			; <UNDEFINED> instruction: 0x012c0000
    6b54:	94080253 	strls	r0, [r8], #-595	; 0xfffffdad
    6b58:	8f8c2d00 	svchi	0x008c2d00
    6b5c:	0f970000 	svceq	0x00970000
    6b60:	902d0000 	eorls	r0, sp, r0
    6b64:	7f00008f 	svcvc	0x0000008f
    6b68:	2b00000f 	blcs	6bac <_start-0x1454>
    6b6c:	00008fa4 	andeq	r8, r0, r4, lsr #31
    6b70:	00000f8b 	andeq	r0, r0, fp, lsl #31
    6b74:	00000ae1 	andeq	r0, r0, r1, ror #21
    6b78:	0550012c 	ldrbeq	r0, [r0, #-300]	; 0xfffffed4
    6b7c:	009b1003 	addseq	r1, fp, r3
    6b80:	51012c00 	tstpl	r1, r0, lsl #24
    6b84:	9a900305 	bls	fe4077a0 <__bss_end__+0xfe3fd6d0>
    6b88:	012c0000 			; <UNDEFINED> instruction: 0x012c0000
    6b8c:	88030552 	stmdahi	r3, {r1, r4, r6, r8, sl}
    6b90:	2c00009b 	stccs	0, cr0, [r0], {155}	; 0x9b
    6b94:	08025301 	stmdaeq	r2, {r0, r8, r9, ip, lr}
    6b98:	a82d009a 	stmdage	sp!, {r1, r3, r4, r7}
    6b9c:	9700008f 	strls	r0, [r0, -pc, lsl #1]
    6ba0:	2b00000f 	blcs	6be4 <_start-0x141c>
    6ba4:	00008fd4 	ldrdeq	r8, [r0], -r4
    6ba8:	00000c33 	andeq	r0, r0, r3, lsr ip
    6bac:	00000b17 	andeq	r0, r0, r7, lsl fp
    6bb0:	0150012c 	cmpeq	r0, ip, lsr #2
    6bb4:	51012c3a 	tstpl	r1, sl, lsr ip
    6bb8:	7ed89103 	atnvce	f1, f3
    6bbc:	0252012c 	subseq	r0, r2, #44, 2
    6bc0:	022c8008 	eoreq	r8, ip, #8
    6bc4:	7602007d 			; <UNDEFINED> instruction: 0x7602007d
    6bc8:	7d022c00 	stcvc	12, cr2, [r2, #-0]
    6bcc:	00310104 	eorseq	r0, r1, r4, lsl #2
    6bd0:	0090242b 	addseq	r2, r0, fp, lsr #8
    6bd4:	000c3300 	andeq	r3, ip, r0, lsl #6
    6bd8:	000b4400 	andeq	r4, fp, r0, lsl #8
    6bdc:	50012c00 	andpl	r2, r1, r0, lsl #24
    6be0:	012c3a01 			; <UNDEFINED> instruction: 0x012c3a01
    6be4:	d8910351 	ldmle	r1, {r0, r4, r6, r8, r9}
    6be8:	52012c7e 	andpl	r2, r1, #32256	; 0x7e00
    6bec:	2c800802 	stccs	8, cr0, [r0], {2}
    6bf0:	02007d02 	andeq	r7, r0, #2, 26	; 0x80
    6bf4:	022c0076 	eoreq	r0, ip, #118	; 0x76
    6bf8:	3001047d 	andcc	r0, r1, sp, ror r4
    6bfc:	90542b00 	subsls	r2, r4, r0, lsl #22
    6c00:	0c330000 	ldceq	0, cr0, [r3], #-0
    6c04:	0b710000 	bleq	1c46c0c <__bss_end__+0x1c3cb3c>
    6c08:	012c0000 			; <UNDEFINED> instruction: 0x012c0000
    6c0c:	2c400150 	stfcse	f0, [r0], {80}	; 0x50
    6c10:	91035101 	tstls	r3, r1, lsl #2
    6c14:	012c7ed8 	ldrdeq	r7, [ip, -r8]!
    6c18:	80080252 	andhi	r0, r8, r2, asr r2
    6c1c:	007d022c 	rsbseq	r0, sp, ip, lsr #4
    6c20:	2c007602 	stccs	6, cr7, [r0], {2}
    6c24:	01047d02 	tsteq	r4, r2, lsl #26
    6c28:	842b0030 	strthi	r0, [fp], #-48	; 0xffffffd0
    6c2c:	33000090 	movwcc	r0, #144	; 0x90
    6c30:	9e00000c 	cdpls	0, 0, cr0, cr0, cr12, {0}
    6c34:	2c00000b 	stccs	0, cr0, [r0], {11}
    6c38:	32015001 	andcc	r5, r1, #1
    6c3c:	0351012c 	cmpeq	r1, #44, 2
    6c40:	2c7ed891 	ldclcs	8, cr13, [lr], #-580	; 0xfffffdbc
    6c44:	08025201 	stmdaeq	r2, {r0, r9, ip, lr}
    6c48:	7d022c80 	stcvc	12, cr2, [r2, #-512]	; 0xfffffe00
    6c4c:	00760200 	rsbseq	r0, r6, r0, lsl #4
    6c50:	047d022c 	ldrbteq	r0, [sp], #-556	; 0xfffffdd4
    6c54:	2b003001 	blcs	12c60 <__bss_end__+0x8b90>
    6c58:	000090c8 	andeq	r9, r0, r8, asr #1
    6c5c:	00000c33 	andeq	r0, r0, r3, lsr ip
    6c60:	00000bcb 	andeq	r0, r0, fp, asr #23
    6c64:	0150012c 	cmpeq	r0, ip, lsr #2
    6c68:	51012c38 	tstpl	r1, r8, lsr ip
    6c6c:	7ed89103 	atnvce	f1, f3
    6c70:	0252012c 	subseq	r0, r2, #44, 2
    6c74:	022c8008 	eoreq	r8, ip, #8
    6c78:	7602007d 			; <UNDEFINED> instruction: 0x7602007d
    6c7c:	7d022c00 	stcvc	12, cr2, [r2, #-0]
    6c80:	00300104 	eorseq	r0, r0, r4, lsl #2
    6c84:	0090d02d 	addseq	sp, r0, sp, lsr #32
    6c88:	000f7f00 	andeq	r7, pc, r0, lsl #30
    6c8c:	90ec2b00 	rscls	r2, ip, r0, lsl #22
    6c90:	0f8b0000 	svceq	0x008b0000
    6c94:	0c030000 	stceq	0, cr0, [r3], {-0}
    6c98:	012c0000 			; <UNDEFINED> instruction: 0x012c0000
    6c9c:	38030550 	stmdacc	r3, {r4, r6, r8, sl}
    6ca0:	2c00009b 	stccs	0, cr0, [r0], {155}	; 0x9b
    6ca4:	03055101 	movweq	r5, #20737	; 0x5101
    6ca8:	00009a90 	muleq	r0, r0, sl
    6cac:	0552012c 	ldrbeq	r0, [r2, #-300]	; 0xfffffed4
    6cb0:	009b8803 	addseq	r8, fp, r3, lsl #16
    6cb4:	53012c00 	movwpl	r2, #7168	; 0x1c00
    6cb8:	00bb0802 	adcseq	r0, fp, r2, lsl #16
    6cbc:	0090f02d 	addseq	pc, r0, sp, lsr #32
    6cc0:	000f9700 	andeq	r9, pc, r0, lsl #14
    6cc4:	0a000000 	beq	6ccc <_start-0x1334>
    6cc8:	00000124 	andeq	r0, r0, r4, lsr #2
    6ccc:	00000c1e 	andeq	r0, r0, lr, lsl ip
    6cd0:	00002c0b 	andeq	r2, r0, fp, lsl #24
    6cd4:	0f000900 	svceq	0x00000900
    6cd8:	00000c0e 	andeq	r0, r0, lr, lsl #24
    6cdc:	00011d0a 	andeq	r1, r1, sl, lsl #26
    6ce0:	000c3300 	andeq	r3, ip, r0, lsl #6
    6ce4:	002c0b00 	eoreq	r0, ip, r0, lsl #22
    6ce8:	007f0000 	rsbseq	r0, pc, r0
    6cec:	00081c2e 	andeq	r1, r8, lr, lsr #24
    6cf0:	0e470100 	dvfeqs	f0, f7, f0
    6cf4:	00000117 	andeq	r0, r0, r7, lsl r1
    6cf8:	00008c68 	andeq	r8, r0, r8, ror #24
    6cfc:	000001ac 	andeq	r0, r0, ip, lsr #3
    6d00:	0d999c01 	ldceq	12, cr9, [r9, #4]
    6d04:	bc2f0000 	stclt	0, cr0, [pc], #-0	; 6d0c <_start-0x12f4>
    6d08:	01000000 	mrseq	r0, (UNDEF: 0)
    6d0c:	002c1c47 	eoreq	r1, ip, r7, asr #24
    6d10:	0d4c0000 	stcleq	0, cr0, [ip, #-0]
    6d14:	0d460000 	stcleq	0, cr0, [r6, #-0]
    6d18:	64240000 	strtvs	r0, [r4], #-0
    6d1c:	01007473 	tsteq	r0, r3, ror r4
    6d20:	01172847 	tsteq	r7, r7, asr #16
    6d24:	0d8a0000 	stceq	0, cr0, [sl]
    6d28:	0d7a0000 	ldcleq	0, cr0, [sl, #-0]
    6d2c:	6e240000 	cdpvs	0, 2, cr0, cr4, cr0, {0}
    6d30:	31470100 	mrscc	r0, (UNDEF: 87)
    6d34:	00000025 	andeq	r0, r0, r5, lsr #32
    6d38:	00000dee 	andeq	r0, r0, lr, ror #27
    6d3c:	00000dea 	andeq	r0, r0, sl, ror #27
    6d40:	6c617624 	stclvs	6, cr7, [r1], #-144	; 0xffffff70
    6d44:	38470100 	stmdacc	r7, {r8}^
    6d48:	00000025 	andeq	r0, r0, r5, lsr #32
    6d4c:	00000e16 	andeq	r0, r0, r6, lsl lr
    6d50:	00000e0c 	andeq	r0, r0, ip, lsl #28
    6d54:	0007f82f 	andeq	pc, r7, pc, lsr #16
    6d58:	41470100 	mrsmi	r0, (UNDEF: 87)
    6d5c:	00000025 	andeq	r0, r0, r5, lsr #32
    6d60:	00000e61 	andeq	r0, r0, r1, ror #28
    6d64:	00000e5b 	andeq	r0, r0, fp, asr lr
    6d68:	0007e725 	andeq	lr, r7, r5, lsr #14
    6d6c:	4c470100 	stfmie	f0, [r7], {-0}
    6d70:	00000025 	andeq	r0, r0, r5, lsr #32
    6d74:	29049102 	stmdbcs	r4, {r1, r8, ip, pc}
    6d78:	00667562 	rsbeq	r7, r6, r2, ror #10
    6d7c:	99074c01 	stmdbls	r7, {r0, sl, fp, lr}
    6d80:	0300000d 	movweq	r0, #13
    6d84:	267fa891 			; <UNDEFINED> instruction: 0x267fa891
    6d88:	4c010070 	stcmi	0, cr0, [r1], {112}	; 0x70
    6d8c:	00011711 	andeq	r1, r1, r1, lsl r7
    6d90:	000eab00 	andeq	sl, lr, r0, lsl #22
    6d94:	000e8b00 	andeq	r8, lr, r0, lsl #22
    6d98:	00752600 	rsbseq	r2, r5, r0, lsl #12
    6d9c:	2c0b4d01 	stccs	13, cr4, [fp], {1}
    6da0:	80000000 	andhi	r0, r0, r0
    6da4:	6e00000f 	cdpvs	0, 0, cr0, cr0, cr15, {0}
    6da8:	2700000f 	strcs	r0, [r0, -pc]
    6dac:	0000020e 	andeq	r0, r0, lr, lsl #4
    6db0:	00000db9 			; <UNDEFINED> instruction: 0x00000db9
    6db4:	9b700305 	blls	1c079d0 <__bss_end__+0x1bfd900>
    6db8:	d4300000 	ldrtle	r0, [r0], #-0
    6dbc:	7800008c 	stmdavc	r0, {r2, r3, r7}
    6dc0:	23000000 	movwcs	r0, #0
    6dc4:	2a00000d 	bcs	6e00 <_start-0x1200>
    6dc8:	00000806 	andeq	r0, r0, r6, lsl #16
    6dcc:	2c0d5201 	sfmcs	f5, 4, [sp], {1}
    6dd0:	f6000000 			; <UNDEFINED> instruction: 0xf6000000
    6dd4:	ee00000f 	cdp	0, 0, cr0, cr0, cr15, {0}
    6dd8:	0000000f 	andeq	r0, r0, pc
    6ddc:	008d8c2b 	addeq	r8, sp, fp, lsr #24
    6de0:	000e4b00 	andeq	r4, lr, r0, lsl #22
    6de4:	000d3700 	andeq	r3, sp, r0, lsl #14
    6de8:	51012c00 	tstpl	r1, r0, lsl #24
    6dec:	00007d02 	andeq	r7, r0, r2, lsl #26
    6df0:	008da02b 	addeq	sl, sp, fp, lsr #32
    6df4:	000dbe00 	andeq	fp, sp, r0, lsl #28
    6df8:	000d5700 	andeq	r5, sp, r0, lsl #14
    6dfc:	50012c00 	andpl	r2, r1, r0, lsl #24
    6e00:	2c007502 	cfstr32cs	mvfx7, [r0], {2}
    6e04:	74025101 	strvc	r5, [r2], #-257	; 0xfffffeff
    6e08:	53012c00 	movwpl	r2, #7168	; 0x1c00
    6e0c:	00007d02 	andeq	r7, r0, r2, lsl #26
    6e10:	008de02d 	addeq	lr, sp, sp, lsr #32
    6e14:	000f7f00 	andeq	r7, pc, r0, lsl #30
    6e18:	8df42b00 			; <UNDEFINED> instruction: 0x8df42b00
    6e1c:	0f8b0000 	svceq	0x008b0000
    6e20:	0d8f0000 	stceq	0, cr0, [pc]	; 6e28 <_start-0x11d8>
    6e24:	012c0000 			; <UNDEFINED> instruction: 0x012c0000
    6e28:	a4030550 	strge	r0, [r3], #-1360	; 0xfffffab0
    6e2c:	2c00009a 	stccs	0, cr0, [r0], {154}	; 0x9a
    6e30:	03055101 	movweq	r5, #20737	; 0x5101
    6e34:	00009a90 	muleq	r0, r0, sl
    6e38:	0552012c 	ldrbeq	r0, [r2, #-300]	; 0xfffffed4
    6e3c:	009b7003 	addseq	r7, fp, r3
    6e40:	53012c00 	movwpl	r2, #7168	; 0x1c00
    6e44:	00770802 	rsbseq	r0, r7, r2, lsl #16
    6e48:	008df82d 	addeq	pc, sp, sp, lsr #16
    6e4c:	000f9700 	andeq	r9, pc, r0, lsl #14
    6e50:	1d0a0000 	stcne	0, cr0, [sl, #-0]
    6e54:	a9000001 	stmdbge	r0, {r0}
    6e58:	0b00000d 	bleq	6e94 <_start-0x116c>
    6e5c:	0000002c 	andeq	r0, r0, ip, lsr #32
    6e60:	240a003f 	strcs	r0, [sl], #-63	; 0xffffffc1
    6e64:	b9000001 	stmdblt	r0, {r0}
    6e68:	0b00000d 	bleq	6ea4 <_start-0x115c>
    6e6c:	0000002c 	andeq	r0, r0, ip, lsr #32
    6e70:	a90f0004 	stmdbge	pc, {r2}	; <UNPREDICTABLE>
    6e74:	2e00000d 	cdpcs	0, 0, cr0, cr0, cr13, {0}
    6e78:	000007f0 	strdeq	r0, [r0], -r0	; <UNPREDICTABLE>
    6e7c:	170e3701 	strne	r3, [lr, -r1, lsl #14]
    6e80:	30000001 	andcc	r0, r0, r1
    6e84:	3800008c 	stmdacc	r0, {r2, r3, r7}
    6e88:	01000000 	mrseq	r0, (UNDEF: 0)
    6e8c:	000e4b9c 	muleq	lr, ip, fp
    6e90:	73642400 	cmnvc	r4, #0, 8
    6e94:	37010074 	smlsdxcc	r1, r4, r0, r0
    6e98:	0001171c 	andeq	r1, r1, ip, lsl r7
    6e9c:	00103700 	andseq	r3, r0, r0, lsl #14
    6ea0:	00102d00 	andseq	r2, r0, r0, lsl #26
    6ea4:	006e2400 	rsbeq	r2, lr, r0, lsl #8
    6ea8:	25253701 	strcs	r3, [r5, #-1793]!	; 0xfffff8ff
    6eac:	7e000000 	cdpvc	0, 0, cr0, cr0, cr0, {0}
    6eb0:	7a000010 	bvc	6ef8 <_start-0x1108>
    6eb4:	24000010 	strcs	r0, [r0], #-16
    6eb8:	37010070 	smlsdxcc	r1, r0, r0, r0
    6ebc:	0001172e 	andeq	r1, r1, lr, lsr #14
    6ec0:	0010a700 	andseq	sl, r0, r0, lsl #14
    6ec4:	00109f00 	andseq	r9, r0, r0, lsl #30
    6ec8:	0c532f00 	mrrceq	15, 0, r2, r3, cr0
    6ecc:	37010000 	strcc	r0, [r1, -r0]
    6ed0:	00011737 	andeq	r1, r1, r7, lsr r7
    6ed4:	0010e100 	andseq	lr, r0, r0, lsl #2
    6ed8:	0010dd00 	andseq	sp, r0, r0, lsl #26
    6edc:	656c2600 	strbvs	r2, [ip, #-1536]!	; 0xfffffa00
    6ee0:	3901006e 	stmdbcc	r1, {r1, r2, r3, r5, r6}
    6ee4:	00002506 	andeq	r2, r0, r6, lsl #10
    6ee8:	00110700 	andseq	r0, r1, r0, lsl #14
    6eec:	0010ff00 	andseq	pc, r0, r0, lsl #30
    6ef0:	00732600 	rsbseq	r2, r3, r0, lsl #12
    6ef4:	17083d01 	strne	r3, [r8, -r1, lsl #26]
    6ef8:	55000001 	strpl	r0, [r0, #-1]
    6efc:	53000011 	movwpl	r0, #17
    6f00:	00000011 	andeq	r0, r0, r1, lsl r0
    6f04:	64617031 	strbtvs	r7, [r1], #-49	; 0xffffffcf
    6f08:	0e2e0100 	sufeqe	f0, f6, f0
    6f0c:	00000117 	andeq	r0, r0, r7, lsl r1
    6f10:	00008c0c 	andeq	r8, r0, ip, lsl #24
    6f14:	00000024 	andeq	r0, r0, r4, lsr #32
    6f18:	0eae9c01 	cdpeq	12, 10, cr9, cr14, cr1, {0}
    6f1c:	70240000 	eorvc	r0, r4, r0
    6f20:	182e0100 	stmdane	lr!, {r8}
    6f24:	00000117 	andeq	r0, r0, r7, lsl r1
    6f28:	0000116e 	andeq	r1, r0, lr, ror #2
    6f2c:	00001168 	andeq	r1, r0, r8, ror #2
    6f30:	0000bc2f 	andeq	fp, r0, pc, lsr #24
    6f34:	222e0100 	eorcs	r0, lr, #0, 2
    6f38:	00000117 	andeq	r0, r0, r7, lsl r1
    6f3c:	0000119d 	muleq	r0, sp, r1
    6f40:	00001199 	muleq	r0, r9, r1
    6f44:	0007f825 	andeq	pc, r7, r5, lsr #16
    6f48:	2c2e0100 	stfcss	f0, [lr], #-0
    6f4c:	00000025 	andeq	r0, r0, r5, lsr #32
    6f50:	6c265201 	sfmvs	f5, 4, [r6], #-4
    6f54:	01006e65 	tsteq	r0, r5, ror #28
    6f58:	0025062f 	eoreq	r0, r5, pc, lsr #12
    6f5c:	11c00000 	bicne	r0, r0, r0
    6f60:	11be0000 			; <UNDEFINED> instruction: 0x11be0000
    6f64:	2e000000 	cdpcs	0, 0, cr0, cr0, cr0, {0}
    6f68:	00000814 	andeq	r0, r0, r4, lsl r8
    6f6c:	250c2701 	strcs	r2, [ip, #-1793]	; 0xfffff8ff
    6f70:	f8000000 			; <UNDEFINED> instruction: 0xf8000000
    6f74:	1400008b 	strne	r0, [r0], #-139	; 0xffffff75
    6f78:	01000000 	mrseq	r0, (UNDEF: 0)
    6f7c:	000edb9c 	muleq	lr, ip, fp
    6f80:	00632400 	rsbeq	r2, r3, r0, lsl #8
    6f84:	25182701 	ldrcs	r2, [r8, #-1793]	; 0xfffff8ff
    6f88:	d9000000 	stmdble	r0, {}	; <UNPREDICTABLE>
    6f8c:	d3000011 	movwle	r0, #17
    6f90:	00000011 	andeq	r0, r0, r1, lsl r0
    6f94:	0007d832 	andeq	sp, r7, r2, lsr r8
    6f98:	061f0100 	ldreq	r0, [pc], -r0, lsl #2
    6f9c:	00008e14 	andeq	r8, r0, r4, lsl lr
    6fa0:	00000054 	andeq	r0, r0, r4, asr r0
    6fa4:	0f6a9c01 	svceq	0x006a9c01
    6fa8:	0c2f0000 	stceq	0, cr0, [pc], #-0	; 6fb0 <_start-0x1050>
    6fac:	01000008 	tsteq	r0, r8
    6fb0:	09281b1f 	stmdbeq	r8!, {r0, r1, r2, r3, r4, r8, r9, fp, ip}
    6fb4:	120b0000 	andne	r0, fp, #0
    6fb8:	12070000 	andne	r0, r7, #0
    6fbc:	fe2f0000 	cdp2	0, 2, cr0, cr15, cr0, {0}
    6fc0:	01000007 	tsteq	r0, r7
    6fc4:	0949301f 	stmdbeq	r9, {r0, r1, r2, r3, r4, ip, sp}^
    6fc8:	12300000 	eorsne	r0, r0, #0
    6fcc:	122c0000 	eorne	r0, ip, #0
    6fd0:	0e270000 	cdpeq	0, 2, cr0, cr7, cr0, {0}
    6fd4:	7a000002 	bvc	6fe4 <_start-0x101c>
    6fd8:	0500000f 	streq	r0, [r0, #-15]
    6fdc:	009b7803 	addseq	r7, fp, r3, lsl #16
    6fe0:	8e3c2d00 	cdphi	13, 3, cr2, cr12, cr0, {0}
    6fe4:	0f7f0000 	svceq	0x007f0000
    6fe8:	502b0000 	eorpl	r0, fp, r0
    6fec:	8b00008e 	blhi	722c <_start-0xdd4>
    6ff0:	6000000f 	andvs	r0, r0, pc
    6ff4:	2c00000f 	stccs	0, cr0, [r0], {15}
    6ff8:	03055001 	movweq	r5, #20481	; 0x5001
    6ffc:	00009adc 	ldrdeq	r9, [r0], -ip
    7000:	0551012c 	ldrbeq	r0, [r1, #-300]	; 0xfffffed4
    7004:	009a9003 	addseq	r9, sl, r3
    7008:	52012c00 	andpl	r2, r1, #0, 24
    700c:	9b780305 	blls	1e07c28 <__bss_end__+0x1dfdb58>
    7010:	012c0000 			; <UNDEFINED> instruction: 0x012c0000
    7014:	20080253 	andcs	r0, r8, r3, asr r2
    7018:	8e542d00 	cdphi	13, 5, cr2, cr4, cr0, {0}
    701c:	0f970000 	svceq	0x00970000
    7020:	0a000000 	beq	7028 <_start-0xfd8>
    7024:	00000124 	andeq	r0, r0, r4, lsr #2
    7028:	00000f7a 	andeq	r0, r0, sl, ror pc
    702c:	00002c0b 	andeq	r2, r0, fp, lsl #24
    7030:	0f000e00 	svceq	0x00000e00
    7034:	00000f6a 	andeq	r0, r0, sl, ror #30
    7038:	0001e933 	andeq	lr, r1, r3, lsr r9
    703c:	0001e900 	andeq	lr, r1, r0, lsl #18
    7040:	061e0600 	ldreq	r0, [lr], -r0, lsl #12
    7044:	00072333 	andeq	r2, r7, r3, lsr r3
    7048:	00072300 	andeq	r2, r7, r0, lsl #6
    704c:	05290600 	streq	r0, [r9, #-1536]!	; 0xfffffa00
    7050:	00028d33 	andeq	r8, r2, r3, lsr sp
    7054:	00028d00 	andeq	r8, r2, r0, lsl #26
    7058:	06650600 	strbteq	r0, [r5], -r0, lsl #12
    705c:	0009ab00 	andeq	sl, r9, r0, lsl #22
    7060:	f1000400 			; <UNDEFINED> instruction: 0xf1000400
    7064:	04000015 	streq	r0, [r0], #-21	; 0xffffffeb
    7068:	0002ef01 	andeq	lr, r2, r1, lsl #30
    706c:	08210c00 	stmdaeq	r1!, {sl, fp}
    7070:	06e50000 	strbteq	r0, [r5], r0
    7074:	91180000 	tstls	r8, r0
    7078:	00280000 	eoreq	r0, r8, r0
    707c:	15610000 	strbne	r0, [r1, #-0]!
    7080:	04020000 	streq	r0, [r2], #-0
    7084:	746e6905 	strbtvc	r6, [lr], #-2309	; 0xfffff6fb
    7088:	07040300 	streq	r0, [r4, -r0, lsl #6]
    708c:	00000066 	andeq	r0, r0, r6, rrx
    7090:	de060103 	adfles	f0, f6, f3
    7094:	03000002 	movweq	r0, #2
    7098:	03770502 	cmneq	r7, #8388608	; 0x800000
    709c:	04030000 	streq	r0, [r3], #-0
    70a0:	0000ac05 	andeq	sl, r0, r5, lsl #24
    70a4:	05080300 	streq	r0, [r8, #-768]	; 0xfffffd00
    70a8:	000000a7 	andeq	r0, r0, r7, lsr #1
    70ac:	dc080103 	stfles	f0, [r8], {3}
    70b0:	03000002 	movweq	r0, #2
    70b4:	02220702 	eoreq	r0, r2, #524288	; 0x80000
    70b8:	04030000 	streq	r0, [r3], #-0
    70bc:	00006107 	andeq	r6, r0, r7, lsl #2
    70c0:	07080300 	streq	r0, [r8, -r0, lsl #6]
    70c4:	0000005c 	andeq	r0, r0, ip, asr r0
    70c8:	00026504 	andeq	r6, r2, r4, lsl #10
    70cc:	19220200 	stmdbne	r2!, {r9}
    70d0:	00000077 	andeq	r0, r0, r7, ror r0
    70d4:	007d0405 	rsbseq	r0, sp, r5, lsl #8
    70d8:	21060000 	mrscs	r0, (UNDEF: 6)
    70dc:	04000004 	streq	r0, [r0], #-4
    70e0:	000002bd 			; <UNDEFINED> instruction: 0x000002bd
    70e4:	410e2c03 	tstmi	lr, r3, lsl #24
    70e8:	04000000 	streq	r0, [r0], #-0
    70ec:	00000436 	andeq	r0, r0, r6, lsr r4
    70f0:	410e7203 	tstmi	lr, r3, lsl #4
    70f4:	07000000 	streq	r0, [r0, -r0]
    70f8:	0000026d 	andeq	r0, r0, sp, ror #4
    70fc:	17015e04 	strne	r5, [r1, -r4, lsl #28]
    7100:	0000002c 	andeq	r0, r0, ip, lsr #32
    7104:	a6030408 	strge	r0, [r3], -r8, lsl #8
    7108:	0000c903 	andeq	ip, r0, r3, lsl #18
    710c:	025f0900 	subseq	r0, pc, #0, 18
    7110:	a8030000 	stmdage	r3, {}	; <UNPREDICTABLE>
    7114:	00009a0c 	andeq	r9, r0, ip, lsl #20
    7118:	01e20900 	mvneq	r0, r0, lsl #18
    711c:	a9030000 	stmdbge	r3, {}	; <UNPREDICTABLE>
    7120:	0000c913 	andeq	ip, r0, r3, lsl r9
    7124:	4f0a0000 	svcmi	0x000a0000
    7128:	d9000000 	stmdble	r0, {}	; <UNPREDICTABLE>
    712c:	0b000000 	bleq	7134 <_start-0xecc>
    7130:	0000002c 	andeq	r0, r0, ip, lsr #32
    7134:	080c0003 	stmdaeq	ip, {r0, r1}
    7138:	fd09a303 	stc2	3, cr10, [r9, #-12]
    713c:	0d000000 	stceq	0, cr0, [r0, #-0]
    7140:	00000419 	andeq	r0, r0, r9, lsl r4
    7144:	2507a503 	strcs	sl, [r7, #-1283]	; 0xfffffafd
    7148:	00000000 	andeq	r0, r0, r0
    714c:	0004280d 	andeq	r2, r4, sp, lsl #16
    7150:	05aa0300 	streq	r0, [sl, #768]!	; 0x300
    7154:	000000a7 	andeq	r0, r0, r7, lsr #1
    7158:	a3040004 	movwge	r0, #16388	; 0x4004
    715c:	03000003 	movweq	r0, #3
    7160:	00d903ab 	sbcseq	r0, r9, fp, lsr #7
    7164:	9f040000 	svcls	0x00040000
    7168:	03000001 	movweq	r0, #1
    716c:	006b1baf 	rsbeq	r1, fp, pc, lsr #23
    7170:	040e0000 	streq	r0, [lr], #-0
    7174:	011d0405 	tsteq	sp, r5, lsl #8
    7178:	01030000 	mrseq	r0, (UNDEF: 3)
    717c:	0002e508 	andeq	lr, r2, r8, lsl #10
    7180:	011d0f00 	tsteq	sp, r0, lsl #30
    7184:	68040000 	stmdavs	r4, {}	; <UNPREDICTABLE>
    7188:	05000004 	streq	r0, [r0, #-4]
    718c:	005d1916 	subseq	r1, sp, r6, lsl r9
    7190:	b0100000 	andslt	r0, r0, r0
    7194:	18000001 	stmdane	r0, {r0}
    7198:	8f082f05 	svchi	0x00082f05
    719c:	0d000001 	stceq	0, cr0, [r0, #-4]
    71a0:	000003c4 	andeq	r0, r0, r4, asr #7
    71a4:	8f133105 	svchi	0x00133105
    71a8:	00000001 	andeq	r0, r0, r1
    71ac:	006b5f11 	rsbeq	r5, fp, r1, lsl pc
    71b0:	25073205 	strcs	r3, [r7, #-517]	; 0xfffffdfb
    71b4:	04000000 	streq	r0, [r0], #-0
    71b8:	0004040d 	andeq	r0, r4, sp, lsl #8
    71bc:	0b320500 	bleq	c885c4 <__bss_end__+0xc7e4f4>
    71c0:	00000025 	andeq	r0, r0, r5, lsr #32
    71c4:	01990d08 	orrseq	r0, r9, r8, lsl #26
    71c8:	32050000 	andcc	r0, r5, #0
    71cc:	00002514 	andeq	r2, r0, r4, lsl r5
    71d0:	a80d0c00 	stmdage	sp, {sl, fp}
    71d4:	05000004 	streq	r0, [r0, #-4]
    71d8:	00251b32 	eoreq	r1, r5, r2, lsr fp
    71dc:	11100000 	tstne	r0, r0
    71e0:	0500785f 	streq	r7, [r0, #-2143]	; 0xfffff7a1
    71e4:	01950b33 	orrseq	r0, r5, r3, lsr fp
    71e8:	00140000 	andseq	r0, r4, r0
    71ec:	01350405 	teqeq	r5, r5, lsl #8
    71f0:	290a0000 	stmdbcs	sl, {}	; <UNPREDICTABLE>
    71f4:	a5000001 	strge	r0, [r0, #-1]
    71f8:	0b000001 	bleq	7204 <_start-0xdfc>
    71fc:	0000002c 	andeq	r0, r0, ip, lsr #32
    7200:	dd100000 	ldcle	0, cr0, [r0, #-0]
    7204:	24000001 	strcs	r0, [r0], #-1
    7208:	28083705 	stmdacs	r8, {r0, r2, r8, r9, sl, ip, sp}
    720c:	0d000002 	stceq	0, cr0, [r0, #-8]
    7210:	0000009e 	muleq	r0, lr, r0
    7214:	25093905 	strcs	r3, [r9, #-2309]	; 0xfffff6fb
    7218:	00000000 	andeq	r0, r0, r0
    721c:	00043e0d 	andeq	r3, r4, sp, lsl #28
    7220:	093a0500 	ldmdbeq	sl!, {r8, sl}
    7224:	00000025 	andeq	r0, r0, r5, lsr #32
    7228:	00c10d04 	sbceq	r0, r1, r4, lsl #26
    722c:	3b050000 	blcc	147234 <__bss_end__+0x13d164>
    7230:	00002509 	andeq	r2, r0, r9, lsl #10
    7234:	330d0800 	movwcc	r0, #55296	; 0xd800
    7238:	05000005 	streq	r0, [r0, #-5]
    723c:	0025093c 	eoreq	r0, r5, ip, lsr r9
    7240:	0d0c0000 	stceq	0, cr0, [ip, #-0]
    7244:	000002a1 	andeq	r0, r0, r1, lsr #5
    7248:	25093d05 	strcs	r3, [r9, #-3333]	; 0xfffff2fb
    724c:	10000000 	andne	r0, r0, r0
    7250:	0002830d 	andeq	r8, r2, sp, lsl #6
    7254:	093e0500 	ldmdbeq	lr!, {r8, sl}
    7258:	00000025 	andeq	r0, r0, r5, lsr #32
    725c:	04ad0d14 	strteq	r0, [sp], #3348	; 0xd14
    7260:	3f050000 	svccc	0x00050000
    7264:	00002509 	andeq	r2, r0, r9, lsl #10
    7268:	290d1800 	stmdbcs	sp, {fp, ip}
    726c:	05000005 	streq	r0, [r0, #-5]
    7270:	00250940 	eoreq	r0, r5, r0, asr #18
    7274:	0d1c0000 	ldceq	0, cr0, [ip, #-0]
    7278:	000004f0 	strdeq	r0, [r0], -r0	; <UNPREDICTABLE>
    727c:	25094105 	strcs	r4, [r9, #-261]	; 0xfffffefb
    7280:	20000000 	andcs	r0, r0, r0
    7284:	01011200 	mrseq	r1, R9_usr
    7288:	01080000 	mrseq	r0, (UNDEF: 8)
    728c:	6d084a05 	vstrvs	s8, [r8, #-20]	; 0xffffffec
    7290:	0d000002 	stceq	0, cr0, [r0, #-8]
    7294:	0000018c 	andeq	r0, r0, ip, lsl #3
    7298:	6d0a4b05 	vstrvs	d4, [sl, #-20]	; 0xffffffec
    729c:	00000002 	andeq	r0, r0, r2
    72a0:	0000000d 	andeq	r0, r0, sp
    72a4:	094c0500 	stmdbeq	ip, {r8, sl}^
    72a8:	0000026d 	andeq	r0, r0, sp, ror #4
    72ac:	045a1380 	ldrbeq	r1, [sl], #-896	; 0xfffffc80
    72b0:	4e050000 	cdpmi	0, 0, cr0, cr5, cr0, {0}
    72b4:	0001290a 	andeq	r2, r1, sl, lsl #18
    72b8:	13010000 	movwne	r0, #4096	; 0x1000
    72bc:	00000126 	andeq	r0, r0, r6, lsr #2
    72c0:	290a5105 	stmdbcs	sl, {r0, r2, r8, ip, lr}
    72c4:	04000001 	streq	r0, [r0], #-1
    72c8:	150a0001 	strne	r0, [sl, #-1]
    72cc:	7d000001 	stcvc	0, cr0, [r0, #-4]
    72d0:	0b000002 	bleq	72e0 <_start-0xd20>
    72d4:	0000002c 	andeq	r0, r0, ip, lsr #32
    72d8:	aa12001f 	bge	48735c <__bss_end__+0x47d28c>
    72dc:	90000002 	andls	r0, r0, r2
    72e0:	085d0501 	ldmdaeq	sp, {r0, r8, sl}^
    72e4:	000002c0 	andeq	r0, r0, r0, asr #5
    72e8:	0003c40d 	andeq	ip, r3, sp, lsl #8
    72ec:	125e0500 	subsne	r0, lr, #0, 10
    72f0:	000002c0 	andeq	r0, r0, r0, asr #5
    72f4:	03dc0d00 	bicseq	r0, ip, #0, 26
    72f8:	5f050000 	svcpl	0x00050000
    72fc:	00002506 	andeq	r2, r0, r6, lsl #10
    7300:	940d0400 	strls	r0, [sp], #-1024	; 0xfffffc00
    7304:	05000001 	streq	r0, [r0, #-1]
    7308:	02c60961 	sbceq	r0, r6, #1589248	; 0x184000
    730c:	0d080000 	stceq	0, cr0, [r8, #-0]
    7310:	00000101 	andeq	r0, r0, r1, lsl #2
    7314:	281e6205 	ldmdacs	lr, {r0, r2, r9, sp, lr}
    7318:	88000002 	stmdahi	r0, {r1}
    731c:	7d040500 	cfstr32vc	mvfx0, [r4, #-0]
    7320:	0a000002 	beq	7330 <_start-0xcd0>
    7324:	000002d6 	ldrdeq	r0, [r0], -r6
    7328:	000002d6 	ldrdeq	r0, [r0], -r6
    732c:	00002c0b 	andeq	r2, r0, fp, lsl #24
    7330:	05001f00 	streq	r1, [r0, #-3840]	; 0xfffff100
    7334:	0002dc04 	andeq	sp, r2, r4, lsl #24
    7338:	8f101400 	svchi	0x00101400
    733c:	08000003 	stmdaeq	r0, {r0, r1}
    7340:	05087505 	streq	r7, [r8, #-1285]	; 0xfffffafb
    7344:	0d000003 	stceq	0, cr0, [r0, #-12]
    7348:	000000bb 	strheq	r0, [r0], -fp
    734c:	05117605 	ldreq	r7, [r1, #-1541]	; 0xfffff9fb
    7350:	00000003 	andeq	r0, r0, r3
    7354:	00001b0d 	andeq	r1, r0, sp, lsl #22
    7358:	06770500 	ldrbteq	r0, [r7], -r0, lsl #10
    735c:	00000025 	andeq	r0, r0, r5, lsr #32
    7360:	04050004 	streq	r0, [r5], #-4
    7364:	0000004f 	andeq	r0, r0, pc, asr #32
    7368:	0003ae10 	andeq	sl, r3, r0, lsl lr
    736c:	b5056800 	strlt	r6, [r5, #-2048]	; 0xfffff800
    7370:	00044e08 	andeq	r4, r4, r8, lsl #28
    7374:	705f1100 	subsvc	r1, pc, r0, lsl #2
    7378:	12b60500 	adcsne	r0, r6, #0, 10
    737c:	00000305 	andeq	r0, r0, r5, lsl #6
    7380:	725f1100 	subsvc	r1, pc, #0, 2
    7384:	07b70500 	ldreq	r0, [r7, r0, lsl #10]!
    7388:	00000025 	andeq	r0, r0, r5, lsr #32
    738c:	775f1104 	ldrbvc	r1, [pc, -r4, lsl #2]
    7390:	07b80500 	ldreq	r0, [r8, r0, lsl #10]!
    7394:	00000025 	andeq	r0, r0, r5, lsr #32
    7398:	011f0d08 	tsteq	pc, r8, lsl #26
    739c:	b9050000 	stmdblt	r5, {}	; <UNPREDICTABLE>
    73a0:	00003a09 	andeq	r3, r0, r9, lsl #20
    73a4:	080d0c00 	stmdaeq	sp, {sl, fp}
    73a8:	05000002 	streq	r0, [r0, #-2]
    73ac:	003a09ba 	ldrhteq	r0, [sl], -sl
    73b0:	110e0000 	mrsne	r0, (UNDEF: 14)
    73b4:	0066625f 	rsbeq	r6, r6, pc, asr r2
    73b8:	dd11bb05 	vldrle	d11, [r1, #-20]	; 0xffffffec
    73bc:	10000002 	andne	r0, r0, r2
    73c0:	00007b0d 	andeq	r7, r0, sp, lsl #22
    73c4:	07bc0500 	ldreq	r0, [ip, r0, lsl #10]!
    73c8:	00000025 	andeq	r0, r0, r5, lsr #32
    73cc:	010f0d18 	tsteq	pc, r8, lsl sp	; <UNPREDICTABLE>
    73d0:	c3050000 	movwgt	r0, #20480	; 0x5000
    73d4:	0001150a 	andeq	r1, r1, sl, lsl #10
    73d8:	720d1c00 	andvc	r1, sp, #0, 24
    73dc:	0500000b 	streq	r0, [r0, #-11]
    73e0:	05c01dc5 	strbeq	r1, [r0, #3525]	; 0xdc5
    73e4:	0d200000 	stceq	0, cr0, [r0, #-0]
    73e8:	00000636 	andeq	r0, r0, r6, lsr r6
    73ec:	ea1dc705 	b	779008 <__bss_end__+0x76ef38>
    73f0:	24000005 	strcs	r0, [r0], #-5
    73f4:	0004300d 	andeq	r3, r4, sp
    73f8:	0dca0500 	cfstr64eq	mvdx0, [sl]
    73fc:	0000060e 	andeq	r0, r0, lr, lsl #12
    7400:	050a0d28 	streq	r0, [sl, #-3368]	; 0xfffff2d8
    7404:	cb050000 	blgt	14740c <__bss_end__+0x13d33c>
    7408:	00062809 	andeq	r2, r6, r9, lsl #16
    740c:	5f112c00 	svcpl	0x00112c00
    7410:	05006275 	streq	r6, [r0, #-629]	; 0xfffffd8b
    7414:	02dd11ce 	sbcseq	r1, sp, #-2147483597	; 0x80000033
    7418:	11300000 	teqne	r0, r0
    741c:	0070755f 	rsbseq	r7, r0, pc, asr r5
    7420:	0512cf05 	ldreq	ip, [r2, #-3845]	; 0xfffff0fb
    7424:	38000003 	stmdacc	r0, {r0, r1}
    7428:	72755f11 	rsbsvc	r5, r5, #17, 30	; 0x44
    742c:	07d00500 	ldrbeq	r0, [r0, r0, lsl #10]
    7430:	00000025 	andeq	r0, r0, r5, lsr #32
    7434:	00b50d3c 	adcseq	r0, r5, ip, lsr sp
    7438:	d3050000 	movwle	r0, #20480	; 0x5000
    743c:	00062e11 	andeq	r2, r6, r1, lsl lr
    7440:	e20d4000 	and	r4, sp, #0
    7444:	05000004 	streq	r0, [r0, #-4]
    7448:	063e11d4 			; <UNDEFINED> instruction: 0x063e11d4
    744c:	11430000 	mrsne	r0, (UNDEF: 67)
    7450:	00626c5f 	rsbeq	r6, r2, pc, asr ip
    7454:	dd11d705 	ldcle	7, cr13, [r1, #-20]	; 0xffffffec
    7458:	44000002 	strmi	r0, [r0], #-2
    745c:	00013d0d 	andeq	r3, r1, sp, lsl #26
    7460:	07da0500 	ldrbeq	r0, [sl, r0, lsl #10]
    7464:	00000025 	andeq	r0, r0, r5, lsr #32
    7468:	014e0d4c 	cmpeq	lr, ip, asr #26
    746c:	db050000 	blle	147474 <__bss_end__+0x13d3a4>
    7470:	0000820a 	andeq	r8, r0, sl, lsl #4
    7474:	130d5000 	movwne	r5, #53248	; 0xd000
    7478:	0500000b 	streq	r0, [r0, #-11]
    747c:	046c12de 	strbteq	r1, [ip], #-734	; 0xfffffd22
    7480:	0d540000 	ldcleq	0, cr0, [r4, #-0]
    7484:	00000422 	andeq	r0, r0, r2, lsr #8
    7488:	090ce205 	stmdbeq	ip, {r0, r2, r9, sp, lr, pc}
    748c:	58000001 	stmdapl	r0, {r0}
    7490:	0003b60d 	andeq	fp, r3, sp, lsl #12
    7494:	0ee40500 	cdpeq	5, 14, cr0, cr4, cr0, {0}
    7498:	000000fd 	strdeq	r0, [r0], -sp
    749c:	027b0d5c 	rsbseq	r0, fp, #92, 26	; 0x1700
    74a0:	e5050000 	str	r0, [r5, #-0]
    74a4:	00002509 	andeq	r2, r0, r9, lsl #10
    74a8:	15006400 	strne	r6, [r0, #-1024]	; 0xfffffc00
    74ac:	00000025 	andeq	r0, r0, r5, lsr #32
    74b0:	0000046c 	andeq	r0, r0, ip, ror #8
    74b4:	00046c16 	andeq	r6, r4, r6, lsl ip
    74b8:	01151600 	tsteq	r5, r0, lsl #12
    74bc:	17160000 	ldrne	r0, [r6, -r0]
    74c0:	16000001 	strne	r0, [r0], -r1
    74c4:	00000025 	andeq	r0, r0, r5, lsr #32
    74c8:	77040500 	strvc	r0, [r4, -r0, lsl #10]
    74cc:	0f000004 	svceq	0x00000004
    74d0:	0000046c 	andeq	r0, r0, ip, ror #8
    74d4:	00040c17 	andeq	r0, r4, r7, lsl ip
    74d8:	05042800 	streq	r2, [r4, #-2048]	; 0xfffff800
    74dc:	c0080260 	andgt	r0, r8, r0, ror #4
    74e0:	18000005 	stmdane	r0, {r0, r2}
    74e4:	00000370 	andeq	r0, r0, r0, ror r3
    74e8:	07026205 	streq	r6, [r2, -r5, lsl #4]
    74ec:	00000025 	andeq	r0, r0, r5, lsr #32
    74f0:	012e1800 			; <UNDEFINED> instruction: 0x012e1800
    74f4:	67050000 	strvs	r0, [r5, -r0]
    74f8:	069a0b02 	ldreq	r0, [sl], r2, lsl #22
    74fc:	18040000 	stmdane	r4, {}	; <UNPREDICTABLE>
    7500:	000001f8 	strdeq	r0, [r0], -r8
    7504:	14026705 	strne	r6, [r2], #-1797	; 0xfffff8fb
    7508:	0000069a 	muleq	r0, sl, r6
    750c:	01a81808 			; <UNDEFINED> instruction: 0x01a81808
    7510:	67050000 	strvs	r0, [r5, -r0]
    7514:	069a1e02 	ldreq	r1, [sl], r2, lsl #28
    7518:	180c0000 	stmdane	ip, {}	; <UNPREDICTABLE>
    751c:	000003d7 	ldrdeq	r0, [r0], -r7
    7520:	08026905 	stmdaeq	r2, {r0, r2, r8, fp, sp, lr}
    7524:	00000025 	andeq	r0, r0, r5, lsr #32
    7528:	00291810 	eoreq	r1, r9, r0, lsl r8
    752c:	6a050000 	bvs	147534 <__bss_end__+0x13d464>
    7530:	089a0802 	ldmeq	sl, {r1, fp}
    7534:	18140000 	ldmdane	r4, {}	; <UNPREDICTABLE>
    7538:	000003eb 	andeq	r0, r0, fp, ror #7
    753c:	07026d05 	streq	r6, [r2, -r5, lsl #26]
    7540:	00000025 	andeq	r0, r0, r5, lsr #32
    7544:	0a4f1830 	beq	13cd60c <__bss_end__+0x13c353c>
    7548:	6e050000 	cdpvs	0, 0, cr0, cr5, cr0, {0}
    754c:	08af1602 	stmiaeq	pc!, {r1, r9, sl, ip}	; <UNPREDICTABLE>
    7550:	18340000 	ldmdane	r4!, {}	; <UNPREDICTABLE>
    7554:	000002b2 			; <UNDEFINED> instruction: 0x000002b2
    7558:	07027005 	streq	r7, [r2, -r5]
    755c:	00000025 	andeq	r0, r0, r5, lsr #32
    7560:	03e11838 	mvneq	r1, #56, 16	; 0x380000
    7564:	72050000 	andvc	r0, r5, #0
    7568:	08c00a02 	stmiaeq	r0, {r1, r9, fp}^
    756c:	183c0000 	ldmdane	ip!, {}	; <UNPREDICTABLE>
    7570:	00000257 	andeq	r0, r0, r7, asr r2
    7574:	13027505 	movwne	r7, #9477	; 0x2505
    7578:	0000018f 	andeq	r0, r0, pc, lsl #3
    757c:	01c71840 	biceq	r1, r7, r0, asr #16
    7580:	76050000 	strvc	r0, [r5], -r0
    7584:	00250702 	eoreq	r0, r5, r2, lsl #14
    7588:	18440000 	stmdane	r4, {}^	; <UNPREDICTABLE>
    758c:	00000524 	andeq	r0, r0, r4, lsr #10
    7590:	13027705 	movwne	r7, #9989	; 0x2705
    7594:	0000018f 	andeq	r0, r0, pc, lsl #3
    7598:	02c41848 	sbceq	r1, r4, #72, 16	; 0x480000
    759c:	78050000 	stmdavc	r5, {}	; <UNPREDICTABLE>
    75a0:	08c61402 	stmiaeq	r6, {r1, sl, ip}^
    75a4:	184c0000 	stmdane	ip, {}^	; <UNPREDICTABLE>
    75a8:	00000200 	andeq	r0, r0, r0, lsl #4
    75ac:	07027b05 	streq	r7, [r2, -r5, lsl #22]
    75b0:	00000025 	andeq	r0, r0, r5, lsr #32
    75b4:	01461850 	cmpeq	r6, r0, asr r8
    75b8:	7c050000 	stcvc	0, cr0, [r5], {-0}
    75bc:	01170902 	tsteq	r7, r2, lsl #18
    75c0:	18540000 	ldmdane	r4, {}^	; <UNPREDICTABLE>
    75c4:	000002ea 	andeq	r0, r0, sl, ror #5
    75c8:	07029f05 	streq	r9, [r2, -r5, lsl #30]
    75cc:	00000875 	andeq	r0, r0, r5, ror r8
    75d0:	02aa1958 	adceq	r1, sl, #88, 18	; 0x160000
    75d4:	a3050000 	movwge	r0, #20480	; 0x5000
    75d8:	02c01302 	sbceq	r1, r0, #134217728	; 0x8000000
    75dc:	01480000 	mrseq	r0, (UNDEF: 72)
    75e0:	00023519 	andeq	r3, r2, r9, lsl r5
    75e4:	02a40500 	adceq	r0, r4, #0, 10
    75e8:	00027d12 	andeq	r7, r2, r2, lsl sp
    75ec:	19014c00 	stmdbne	r1, {sl, fp, lr}
    75f0:	000004d0 	ldrdeq	r0, [r0], -r0	; <UNPREDICTABLE>
    75f4:	0c02a805 	stceq	8, cr10, [r2], {5}
    75f8:	000008d7 	ldrdeq	r0, [r0], -r7
    75fc:	171902dc 			; <UNDEFINED> instruction: 0x171902dc
    7600:	05000001 	streq	r0, [r0, #-1]
    7604:	5b1002ad 	blpl	4080c0 <__bss_end__+0x3fdff0>
    7608:	e0000006 	and	r0, r0, r6
    760c:	00fc1902 	rscseq	r1, ip, r2, lsl #18
    7610:	af050000 	svcge	0x00050000
    7614:	08e30a02 	stmiaeq	r3!, {r1, r9, fp}^
    7618:	02ec0000 	rsceq	r0, ip, #0
    761c:	4e040500 	cfsh32mi	mvfx0, mvfx4, #0
    7620:	15000004 	strne	r0, [r0, #-4]
    7624:	00000025 	andeq	r0, r0, r5, lsr #32
    7628:	000005e4 	andeq	r0, r0, r4, ror #11
    762c:	00046c16 	andeq	r6, r4, r6, lsl ip
    7630:	01151600 	tsteq	r5, r0, lsl #12
    7634:	e4160000 	ldr	r0, [r6], #-0
    7638:	16000005 	strne	r0, [r0], -r5
    763c:	00000025 	andeq	r0, r0, r5, lsr #32
    7640:	24040500 	strcs	r0, [r4], #-1280	; 0xfffffb00
    7644:	05000001 	streq	r0, [r0, #-1]
    7648:	0005c604 	andeq	ip, r5, r4, lsl #12
    764c:	008e1500 	addeq	r1, lr, r0, lsl #10
    7650:	060e0000 	streq	r0, [lr], -r0
    7654:	6c160000 	ldcvs	0, cr0, [r6], {-0}
    7658:	16000004 	strne	r0, [r0], -r4
    765c:	00000115 	andeq	r0, r0, r5, lsl r1
    7660:	00008e16 	andeq	r8, r0, r6, lsl lr
    7664:	00251600 	eoreq	r1, r5, r0, lsl #12
    7668:	05000000 	streq	r0, [r0, #-0]
    766c:	0005f004 	andeq	pc, r5, r4
    7670:	00251500 	eoreq	r1, r5, r0, lsl #10
    7674:	06280000 	strteq	r0, [r8], -r0
    7678:	6c160000 	ldcvs	0, cr0, [r6], {-0}
    767c:	16000004 	strne	r0, [r0], -r4
    7680:	00000115 	andeq	r0, r0, r5, lsl r1
    7684:	14040500 	strne	r0, [r4], #-1280	; 0xfffffb00
    7688:	0a000006 	beq	76a8 <_start-0x958>
    768c:	0000004f 	andeq	r0, r0, pc, asr #32
    7690:	0000063e 	andeq	r0, r0, lr, lsr r6
    7694:	00002c0b 	andeq	r2, r0, fp, lsl #24
    7698:	0a000200 	beq	7ea0 <_start-0x160>
    769c:	0000004f 	andeq	r0, r0, pc, asr #32
    76a0:	0000064e 	andeq	r0, r0, lr, asr #12
    76a4:	00002c0b 	andeq	r2, r0, fp, lsl #24
    76a8:	07000000 	streq	r0, [r0, -r0]
    76ac:	0000039c 	muleq	r0, ip, r3
    76b0:	1a011f05 	bne	4f2cc <__bss_end__+0x451fc>
    76b4:	0000030b 	andeq	r0, r0, fp, lsl #6
    76b8:	0004b71a 	andeq	fp, r4, sl, lsl r7
    76bc:	23050c00 	movwcs	r0, #23552	; 0x5c00
    76c0:	06940801 	ldreq	r0, [r4], r1, lsl #16
    76c4:	c4180000 	ldrgt	r0, [r8], #-0
    76c8:	05000003 	streq	r0, [r0, #-3]
    76cc:	94110125 	ldrls	r0, [r1], #-293	; 0xfffffedb
    76d0:	00000006 	andeq	r0, r0, r6
    76d4:	00021b18 	andeq	r1, r2, r8, lsl fp
    76d8:	01260500 			; <UNDEFINED> instruction: 0x01260500
    76dc:	00002507 	andeq	r2, r0, r7, lsl #10
    76e0:	96180400 	ldrls	r0, [r8], -r0, lsl #8
    76e4:	05000003 	streq	r0, [r0, #-3]
    76e8:	9a0b0127 	bls	2c7b8c <__bss_end__+0x2bdabc>
    76ec:	08000006 	stmdaeq	r0, {r1, r2}
    76f0:	5b040500 	blpl	108af8 <__bss_end__+0xfea28>
    76f4:	05000006 	streq	r0, [r0, #-6]
    76f8:	00064e04 	andeq	r4, r6, r4, lsl #28
    76fc:	00211a00 	eoreq	r1, r1, r0, lsl #20
    7700:	050e0000 	streq	r0, [lr, #-0]
    7704:	d908013f 	stmdble	r8, {r0, r1, r2, r3, r4, r5, r8}
    7708:	18000006 	stmdane	r0, {r1, r2}
    770c:	00000413 	andeq	r0, r0, r3, lsl r4
    7710:	12014005 	andne	r4, r1, #5
    7714:	000006d9 	ldrdeq	r0, [r0], -r9
    7718:	04471800 	strbeq	r1, [r7], #-2048	; 0xfffff800
    771c:	41050000 	mrsmi	r0, (UNDEF: 5)
    7720:	06d91201 	ldrbeq	r1, [r9], r1, lsl #4
    7724:	18060000 	stmdane	r6, {}	; <UNPREDICTABLE>
    7728:	00000463 	andeq	r0, r0, r3, ror #8
    772c:	12014205 	andne	r4, r1, #1342177280	; 0x50000000
    7730:	00000056 	andeq	r0, r0, r6, asr r0
    7734:	560a000c 	strpl	r0, [sl], -ip
    7738:	e9000000 	stmdb	r0, {}	; <UNPREDICTABLE>
    773c:	0b000006 	bleq	775c <_start-0x8a4>
    7740:	0000002c 	andeq	r0, r0, ip, lsr #32
    7744:	d01b0002 	andsle	r0, fp, r2
    7748:	07028005 	streq	r8, [r2, -r5]
    774c:	000007fe 	strdeq	r0, [r0], -lr
    7750:	00049b18 	andeq	r9, r4, r8, lsl fp
    7754:	02820500 	addeq	r0, r2, #0, 10
    7758:	00002c18 	andeq	r2, r0, r8, lsl ip
    775c:	4d180000 	ldcmi	0, cr0, [r8, #-0]
    7760:	05000004 	streq	r0, [r0, #-4]
    7764:	17120283 	ldrne	r0, [r2, -r3, lsl #5]
    7768:	04000001 	streq	r0, [r0], #-1
    776c:	00024a18 	andeq	r4, r2, r8, lsl sl
    7770:	02840500 	addeq	r0, r4, #0, 10
    7774:	0007fe10 	andeq	pc, r7, r0, lsl lr	; <UNPREDICTABLE>
    7778:	fb180800 	blx	609782 <__bss_end__+0x5ff6b2>
    777c:	05000004 	streq	r0, [r0, #-4]
    7780:	a5170285 	ldrge	r0, [r7, #-645]	; 0xfffffd7b
    7784:	24000001 	strcs	r0, [r0], #-1
    7788:	0001b818 	andeq	fp, r1, r8, lsl r8
    778c:	02860500 	addeq	r0, r6, #0, 10
    7790:	0000250f 	andeq	r2, r0, pc, lsl #10
    7794:	bf184800 	svclt	0x00184800
    7798:	05000003 	streq	r0, [r0, #-3]
    779c:	642c0287 	strtvs	r0, [ip], #-647	; 0xfffffd79
    77a0:	50000000 	andpl	r0, r0, r0
    77a4:	00051118 	andeq	r1, r5, r8, lsl r1
    77a8:	02880500 	addeq	r0, r8, #0, 10
    77ac:	0006a01a 	andeq	sl, r6, sl, lsl r0
    77b0:	ca185800 	bgt	61d7b8 <__bss_end__+0x6136e8>
    77b4:	05000003 	streq	r0, [r0, #-3]
    77b8:	fd160289 	ldc2	2, cr0, [r6, #-548]	; 0xfffffddc
    77bc:	68000000 	stmdavs	r0, {}	; <UNPREDICTABLE>
    77c0:	00051618 	andeq	r1, r5, r8, lsl r6
    77c4:	028a0500 	addeq	r0, sl, #0, 10
    77c8:	0000fd16 	andeq	pc, r0, r6, lsl sp	; <UNPREDICTABLE>
    77cc:	ce187000 	cdpgt	0, 1, cr7, cr8, cr0, {0}
    77d0:	05000002 	streq	r0, [r0, #-2]
    77d4:	fd16028b 	ldc2	2, cr0, [r6, #-556]	; 0xfffffdd4
    77d8:	78000000 	stmdavc	r0, {}	; <UNPREDICTABLE>
    77dc:	0004c618 	andeq	ip, r4, r8, lsl r6
    77e0:	028c0500 	addeq	r0, ip, #0, 10
    77e4:	00080e10 	andeq	r0, r8, r0, lsl lr
    77e8:	3e188000 	cdpcc	0, 1, cr8, cr8, cr0, {0}
    77ec:	05000002 	streq	r0, [r0, #-2]
    77f0:	1e10028d 	cdpne	2, 1, cr0, cr0, cr13, {4}
    77f4:	88000008 	stmdahi	r0, {r3}
    77f8:	00047018 	andeq	r7, r4, r8, lsl r0
    77fc:	028e0500 	addeq	r0, lr, #0, 10
    7800:	0000250f 	andeq	r2, r0, pc, lsl #10
    7804:	7e18a000 	cdpvc	0, 1, cr10, cr8, cr0, {0}
    7808:	05000001 	streq	r0, [r0, #-1]
    780c:	fd16028f 	ldc2	2, cr0, [r6, #-572]	; 0xfffffdc4
    7810:	a4000000 	strge	r0, [r0], #-0
    7814:	00008f18 	andeq	r8, r0, r8, lsl pc
    7818:	02900500 	addseq	r0, r0, #0, 10
    781c:	0000fd16 	andeq	pc, r0, r6, lsl sp	; <UNPREDICTABLE>
    7820:	6d18ac00 	ldcvs	12, cr10, [r8, #-0]
    7824:	05000001 	streq	r0, [r0, #-1]
    7828:	fd160291 	ldc2	2, cr0, [r6, #-580]	; 0xfffffdbc
    782c:	b4000000 	strlt	r0, [r0], #-0
    7830:	00003c18 	andeq	r3, r0, r8, lsl ip
    7834:	02920500 	addseq	r0, r2, #0, 10
    7838:	0000fd16 	andeq	pc, r0, r6, lsl sp	; <UNPREDICTABLE>
    783c:	4b18bc00 	blmi	636844 <__bss_end__+0x62c774>
    7840:	05000000 	streq	r0, [r0, #-0]
    7844:	fd160293 	ldc2	2, cr0, [r6, #-588]	; 0xfffffdb4
    7848:	c4000000 	strgt	r0, [r0], #-0
    784c:	00036e18 	andeq	r6, r3, r8, lsl lr
    7850:	02940500 	addseq	r0, r4, #0, 10
    7854:	00002508 	andeq	r2, r0, r8, lsl #10
    7858:	0a00cc00 	beq	3a860 <__bss_end__+0x30790>
    785c:	0000011d 	andeq	r0, r0, sp, lsl r1
    7860:	0000080e 	andeq	r0, r0, lr, lsl #16
    7864:	00002c0b 	andeq	r2, r0, fp, lsl #24
    7868:	0a001900 	beq	dc70 <__bss_end__+0x3ba0>
    786c:	0000011d 	andeq	r0, r0, sp, lsl r1
    7870:	0000081e 	andeq	r0, r0, lr, lsl r8
    7874:	00002c0b 	andeq	r2, r0, fp, lsl #24
    7878:	0a000700 	beq	9480 <gpio_set_function+0x4c>
    787c:	0000011d 	andeq	r0, r0, sp, lsl r1
    7880:	0000082e 	andeq	r0, r0, lr, lsr #16
    7884:	00002c0b 	andeq	r2, r0, fp, lsl #24
    7888:	1b001700 	blne	d490 <__bss_end__+0x33c0>
    788c:	029905f0 	addseq	r0, r9, #240, 10	; 0x3c000000
    7890:	00085507 	andeq	r5, r8, r7, lsl #10
    7894:	029a1800 	addseq	r1, sl, #0, 16
    7898:	9c050000 	stcls	0, cr0, [r5], {-0}
    789c:	08551b02 	ldmdaeq	r5, {r1, r8, r9, fp, ip}^
    78a0:	18000000 	stmdane	r0, {}	; <UNPREDICTABLE>
    78a4:	000004bd 			; <UNDEFINED> instruction: 0x000004bd
    78a8:	18029d05 	stmdane	r2, {r0, r2, r8, sl, fp, ip, pc}
    78ac:	00000865 	andeq	r0, r0, r5, ror #16
    78b0:	050a0078 	streq	r0, [sl, #-120]	; 0xffffff88
    78b4:	65000003 	strvs	r0, [r0, #-3]
    78b8:	0b000008 	bleq	78e0 <_start-0x720>
    78bc:	0000002c 	andeq	r0, r0, ip, lsr #32
    78c0:	2c0a001d 	stccs	0, cr0, [sl], {29}
    78c4:	75000000 	strvc	r0, [r0, #-0]
    78c8:	0b000008 	bleq	78f0 <_start-0x710>
    78cc:	0000002c 	andeq	r0, r0, ip, lsr #32
    78d0:	f01c001d 			; <UNDEFINED> instruction: 0xf01c001d
    78d4:	03027e05 	movweq	r7, #11781	; 0x2e05
    78d8:	0000089a 	muleq	r0, sl, r8
    78dc:	00040c1d 	andeq	r0, r4, sp, lsl ip
    78e0:	02950500 	addseq	r0, r5, #0, 10
    78e4:	0006e90b 	andeq	lr, r6, fp, lsl #18
    78e8:	04e81d00 	strbteq	r1, [r8], #3328	; 0xd00
    78ec:	9e050000 	cdpls	0, 0, cr0, cr5, cr0, {0}
    78f0:	082e0b02 	stmdaeq	lr!, {r1, r8, r9, fp}
    78f4:	0a000000 	beq	78fc <_start-0x704>
    78f8:	0000011d 	andeq	r0, r0, sp, lsl r1
    78fc:	000008aa 	andeq	r0, r0, sl, lsr #17
    7900:	00002c0b 	andeq	r2, r0, fp, lsl #24
    7904:	06001800 	streq	r1, [r0], -r0, lsl #16
    7908:	00000084 	andeq	r0, r0, r4, lsl #1
    790c:	08aa0405 	stmiaeq	sl!, {r0, r2, sl}
    7910:	c01e0000 	andsgt	r0, lr, r0
    7914:	16000008 	strne	r0, [r0], -r8
    7918:	0000046c 	andeq	r0, r0, ip, ror #8
    791c:	b5040500 	strlt	r0, [r4, #-1280]	; 0xfffffb00
    7920:	05000008 	streq	r0, [r0, #-8]
    7924:	00018f04 	andeq	r8, r1, r4, lsl #30
    7928:	08d71e00 	ldmeq	r7, {r9, sl, fp, ip}^
    792c:	25160000 	ldrcs	r0, [r6, #-0]
    7930:	00000000 	andeq	r0, r0, r0
    7934:	08dd0405 	ldmeq	sp, {r0, r2, sl}^
    7938:	04050000 	streq	r0, [r5], #-0
    793c:	000008cc 	andeq	r0, r0, ip, asr #17
    7940:	00064e0a 	andeq	r4, r6, sl, lsl #28
    7944:	0008f300 	andeq	pc, r8, r0, lsl #6
    7948:	002c0b00 	eoreq	r0, ip, r0, lsl #22
    794c:	00020000 	andeq	r0, r2, r0
    7950:	0004841f 	andeq	r8, r4, pc, lsl r4
    7954:	032e0500 			; <UNDEFINED> instruction: 0x032e0500
    7958:	00046c17 	andeq	r6, r4, r7, lsl ip
    795c:	047d1f00 	ldrbteq	r1, [sp], #-3840	; 0xfffff100
    7960:	2f050000 	svccs	0x00050000
    7964:	04721d03 	ldrbteq	r1, [r2], #-3331	; 0xfffff2fd
    7968:	25150000 	ldrcs	r0, [r5, #-0]
    796c:	1c000000 	stcne	0, cr0, [r0], {-0}
    7970:	16000009 	strne	r0, [r0], -r9
    7974:	00000025 	andeq	r0, r0, r5, lsr #32
    7978:	01d12000 	bicseq	r2, r1, r0
    797c:	1d060000 	stcne	0, cr0, [r6, #-0]
    7980:	0009280e 	andeq	r2, r9, lr, lsl #16
    7984:	0d040500 	cfstr32eq	mvfx0, [r4, #-0]
    7988:	15000009 	strne	r0, [r0, #-9]
    798c:	00000025 	andeq	r0, r0, r5, lsr #32
    7990:	0000093d 	andeq	r0, r0, sp, lsr r9
    7994:	0005e416 	andeq	lr, r5, r6, lsl r4
    7998:	8c200000 	stchi	0, cr0, [r0], #-0
    799c:	06000007 	streq	r0, [r0], -r7
    79a0:	09490e22 	stmdbeq	r9, {r1, r5, r9, sl, fp}^
    79a4:	04050000 	streq	r0, [r5], #-0
    79a8:	0000092e 	andeq	r0, r0, lr, lsr #18
    79ac:	00028d21 	andeq	r8, r2, r1, lsr #26
    79b0:	06040100 	streq	r0, [r4], -r0, lsl #2
    79b4:	00009118 	andeq	r9, r0, r8, lsl r1
    79b8:	00000028 	andeq	r0, r0, r8, lsr #32
    79bc:	09969c01 	ldmibeq	r6, {r0, sl, fp, ip, pc}
    79c0:	2c220000 	stccs	0, cr0, [r2], #-0
    79c4:	78000091 	stmdavc	r0, {r0, r4, r7}
    79c8:	23000009 	movwcs	r0, #9
    79cc:	03055001 	movweq	r5, #20481	; 0x5001
    79d0:	00009b94 	muleq	r0, r4, fp
    79d4:	91342400 	teqls	r4, r0, lsl #8
    79d8:	09960000 	ldmibeq	r6, {}	; <UNPREDICTABLE>
    79dc:	098c0000 	stmibeq	ip, {}	; <UNPREDICTABLE>
    79e0:	01230000 			; <UNDEFINED> instruction: 0x01230000
    79e4:	64080250 	strvs	r0, [r8], #-592	; 0xfffffdb0
    79e8:	91382500 	teqls	r8, r0, lsl #10
    79ec:	09a20000 	stmibeq	r2!, {}	; <UNPREDICTABLE>
    79f0:	26000000 	strcs	r0, [r0], -r0
    79f4:	0000083a 	andeq	r0, r0, sl, lsr r8
    79f8:	0000083a 	andeq	r0, r0, sl, lsr r8
    79fc:	26064f06 	strcs	r4, [r6], -r6, lsl #30
    7a00:	00000843 	andeq	r0, r0, r3, asr #16
    7a04:	00000843 	andeq	r0, r0, r3, asr #16
    7a08:	00066206 	andeq	r6, r6, r6, lsl #4
    7a0c:	000009d3 	ldrdeq	r0, [r0], -r3
    7a10:	18070004 	stmdane	r7, {r2}
    7a14:	01040000 	mrseq	r0, (UNDEF: 4)
    7a18:	000002ef 	andeq	r0, r0, pc, ror #5
    7a1c:	00084e0c 	andeq	r4, r8, ip, lsl #28
    7a20:	0006e500 	andeq	lr, r6, r0, lsl #10
    7a24:	00914000 	addseq	r4, r1, r0
    7a28:	00002c00 	andeq	r2, r0, r0, lsl #24
    7a2c:	00165000 	andseq	r5, r6, r0
    7a30:	05040200 	streq	r0, [r4, #-512]	; 0xfffffe00
    7a34:	00746e69 	rsbseq	r6, r4, r9, ror #28
    7a38:	66070403 	strvs	r0, [r7], -r3, lsl #8
    7a3c:	03000000 	movweq	r0, #0
    7a40:	02de0601 	sbcseq	r0, lr, #1048576	; 0x100000
    7a44:	02030000 	andeq	r0, r3, #0
    7a48:	00037705 	andeq	r7, r3, r5, lsl #14
    7a4c:	05040300 	streq	r0, [r4, #-768]	; 0xfffffd00
    7a50:	000000ac 	andeq	r0, r0, ip, lsr #1
    7a54:	a7050803 	strge	r0, [r5, -r3, lsl #16]
    7a58:	03000000 	movweq	r0, #0
    7a5c:	02dc0801 	sbcseq	r0, ip, #65536	; 0x10000
    7a60:	02030000 	andeq	r0, r3, #0
    7a64:	00022207 	andeq	r2, r2, r7, lsl #4
    7a68:	07040300 	streq	r0, [r4, -r0, lsl #6]
    7a6c:	00000061 	andeq	r0, r0, r1, rrx
    7a70:	5c070803 	stcpl	8, cr0, [r7], {3}
    7a74:	04000000 	streq	r0, [r0], #-0
    7a78:	00000265 	andeq	r0, r0, r5, ror #4
    7a7c:	77192202 	ldrvc	r2, [r9, -r2, lsl #4]
    7a80:	05000000 	streq	r0, [r0, #-0]
    7a84:	00007d04 	andeq	r7, r0, r4, lsl #26
    7a88:	04210600 	strteq	r0, [r1], #-1536	; 0xfffffa00
    7a8c:	bd040000 	stclt	0, cr0, [r4, #-0]
    7a90:	03000002 	movweq	r0, #2
    7a94:	00410e2c 	subeq	r0, r1, ip, lsr #28
    7a98:	36040000 	strcc	r0, [r4], -r0
    7a9c:	03000004 	movweq	r0, #4
    7aa0:	00410e72 	subeq	r0, r1, r2, ror lr
    7aa4:	6d070000 	stcvs	0, cr0, [r7, #-0]
    7aa8:	04000002 	streq	r0, [r0], #-2
    7aac:	2c17015e 	ldfcss	f0, [r7], {94}	; 0x5e
    7ab0:	08000000 	stmdaeq	r0, {}	; <UNPREDICTABLE>
    7ab4:	03a60304 			; <UNDEFINED> instruction: 0x03a60304
    7ab8:	000000c9 	andeq	r0, r0, r9, asr #1
    7abc:	00025f09 	andeq	r5, r2, r9, lsl #30
    7ac0:	0ca80300 	stceq	3, cr0, [r8]
    7ac4:	0000009a 	muleq	r0, sl, r0
    7ac8:	0001e209 	andeq	lr, r1, r9, lsl #4
    7acc:	13a90300 			; <UNDEFINED> instruction: 0x13a90300
    7ad0:	000000c9 	andeq	r0, r0, r9, asr #1
    7ad4:	004f0a00 	subeq	r0, pc, r0, lsl #20
    7ad8:	00d90000 	sbcseq	r0, r9, r0
    7adc:	2c0b0000 	stccs	0, cr0, [fp], {-0}
    7ae0:	03000000 	movweq	r0, #0
    7ae4:	03080c00 	movweq	r0, #35840	; 0x8c00
    7ae8:	00fd09a3 	rscseq	r0, sp, r3, lsr #19
    7aec:	190d0000 	stmdbne	sp, {}	; <UNPREDICTABLE>
    7af0:	03000004 	movweq	r0, #4
    7af4:	002507a5 	eoreq	r0, r5, r5, lsr #15
    7af8:	0d000000 	stceq	0, cr0, [r0, #-0]
    7afc:	00000428 	andeq	r0, r0, r8, lsr #8
    7b00:	a705aa03 	strge	sl, [r5, -r3, lsl #20]
    7b04:	04000000 	streq	r0, [r0], #-0
    7b08:	03a30400 			; <UNDEFINED> instruction: 0x03a30400
    7b0c:	ab030000 	blge	c7b14 <__bss_end__+0xbda44>
    7b10:	0000d903 	andeq	sp, r0, r3, lsl #18
    7b14:	019f0400 	orrseq	r0, pc, r0, lsl #8
    7b18:	af030000 	svcge	0x00030000
    7b1c:	00006b1b 	andeq	r6, r0, fp, lsl fp
    7b20:	05040e00 	streq	r0, [r4, #-3584]	; 0xfffff200
    7b24:	00011d04 	andeq	r1, r1, r4, lsl #26
    7b28:	08010300 	stmdaeq	r1, {r8, r9}
    7b2c:	000002e5 	andeq	r0, r0, r5, ror #5
    7b30:	00011d0f 	andeq	r1, r1, pc, lsl #26
    7b34:	04680400 	strbteq	r0, [r8], #-1024	; 0xfffffc00
    7b38:	16050000 	strne	r0, [r5], -r0
    7b3c:	00005d19 	andeq	r5, r0, r9, lsl sp
    7b40:	01b01000 	movseq	r1, r0
    7b44:	05180000 	ldreq	r0, [r8, #-0]
    7b48:	018f082f 	orreq	r0, pc, pc, lsr #16
    7b4c:	c40d0000 	strgt	r0, [sp], #-0
    7b50:	05000003 	streq	r0, [r0, #-3]
    7b54:	018f1331 	orreq	r1, pc, r1, lsr r3	; <UNPREDICTABLE>
    7b58:	11000000 	mrsne	r0, (UNDEF: 0)
    7b5c:	05006b5f 	streq	r6, [r0, #-2911]	; 0xfffff4a1
    7b60:	00250732 	eoreq	r0, r5, r2, lsr r7
    7b64:	0d040000 	stceq	0, cr0, [r4, #-0]
    7b68:	00000404 	andeq	r0, r0, r4, lsl #8
    7b6c:	250b3205 	strcs	r3, [fp, #-517]	; 0xfffffdfb
    7b70:	08000000 	stmdaeq	r0, {}	; <UNPREDICTABLE>
    7b74:	0001990d 	andeq	r9, r1, sp, lsl #18
    7b78:	14320500 	ldrtne	r0, [r2], #-1280	; 0xfffffb00
    7b7c:	00000025 	andeq	r0, r0, r5, lsr #32
    7b80:	04a80d0c 	strteq	r0, [r8], #3340	; 0xd0c
    7b84:	32050000 	andcc	r0, r5, #0
    7b88:	0000251b 	andeq	r2, r0, fp, lsl r5
    7b8c:	5f111000 	svcpl	0x00111000
    7b90:	33050078 	movwcc	r0, #20600	; 0x5078
    7b94:	0001950b 	andeq	r9, r1, fp, lsl #10
    7b98:	05001400 	streq	r1, [r0, #-1024]	; 0xfffffc00
    7b9c:	00013504 	andeq	r3, r1, r4, lsl #10
    7ba0:	01290a00 			; <UNDEFINED> instruction: 0x01290a00
    7ba4:	01a50000 			; <UNDEFINED> instruction: 0x01a50000
    7ba8:	2c0b0000 	stccs	0, cr0, [fp], {-0}
    7bac:	00000000 	andeq	r0, r0, r0
    7bb0:	01dd1000 	bicseq	r1, sp, r0
    7bb4:	05240000 	streq	r0, [r4, #-0]!
    7bb8:	02280837 	eoreq	r0, r8, #3604480	; 0x370000
    7bbc:	9e0d0000 	cdpls	0, 0, cr0, cr13, cr0, {0}
    7bc0:	05000000 	streq	r0, [r0, #-0]
    7bc4:	00250939 	eoreq	r0, r5, r9, lsr r9
    7bc8:	0d000000 	stceq	0, cr0, [r0, #-0]
    7bcc:	0000043e 	andeq	r0, r0, lr, lsr r4
    7bd0:	25093a05 	strcs	r3, [r9, #-2565]	; 0xfffff5fb
    7bd4:	04000000 	streq	r0, [r0], #-0
    7bd8:	0000c10d 	andeq	ip, r0, sp, lsl #2
    7bdc:	093b0500 	ldmdbeq	fp!, {r8, sl}
    7be0:	00000025 	andeq	r0, r0, r5, lsr #32
    7be4:	05330d08 	ldreq	r0, [r3, #-3336]!	; 0xfffff2f8
    7be8:	3c050000 	stccc	0, cr0, [r5], {-0}
    7bec:	00002509 	andeq	r2, r0, r9, lsl #10
    7bf0:	a10d0c00 	tstge	sp, r0, lsl #24
    7bf4:	05000002 	streq	r0, [r0, #-2]
    7bf8:	0025093d 	eoreq	r0, r5, sp, lsr r9
    7bfc:	0d100000 	ldceq	0, cr0, [r0, #-0]
    7c00:	00000283 	andeq	r0, r0, r3, lsl #5
    7c04:	25093e05 	strcs	r3, [r9, #-3589]	; 0xfffff1fb
    7c08:	14000000 	strne	r0, [r0], #-0
    7c0c:	0004ad0d 	andeq	sl, r4, sp, lsl #26
    7c10:	093f0500 	ldmdbeq	pc!, {r8, sl}	; <UNPREDICTABLE>
    7c14:	00000025 	andeq	r0, r0, r5, lsr #32
    7c18:	05290d18 	streq	r0, [r9, #-3352]!	; 0xfffff2e8
    7c1c:	40050000 	andmi	r0, r5, r0
    7c20:	00002509 	andeq	r2, r0, r9, lsl #10
    7c24:	f00d1c00 			; <UNDEFINED> instruction: 0xf00d1c00
    7c28:	05000004 	streq	r0, [r0, #-4]
    7c2c:	00250941 	eoreq	r0, r5, r1, asr #18
    7c30:	00200000 	eoreq	r0, r0, r0
    7c34:	00010112 	andeq	r0, r1, r2, lsl r1
    7c38:	05010800 	streq	r0, [r1, #-2048]	; 0xfffff800
    7c3c:	026d084a 	rsbeq	r0, sp, #4849664	; 0x4a0000
    7c40:	8c0d0000 	stchi	0, cr0, [sp], {-0}
    7c44:	05000001 	streq	r0, [r0, #-1]
    7c48:	026d0a4b 	rsbeq	r0, sp, #307200	; 0x4b000
    7c4c:	0d000000 	stceq	0, cr0, [r0, #-0]
    7c50:	00000000 	andeq	r0, r0, r0
    7c54:	6d094c05 	stcvs	12, cr4, [r9, #-20]	; 0xffffffec
    7c58:	80000002 	andhi	r0, r0, r2
    7c5c:	00045a13 	andeq	r5, r4, r3, lsl sl
    7c60:	0a4e0500 	beq	1389068 <__bss_end__+0x137ef98>
    7c64:	00000129 	andeq	r0, r0, r9, lsr #2
    7c68:	26130100 	ldrcs	r0, [r3], -r0, lsl #2
    7c6c:	05000001 	streq	r0, [r0, #-1]
    7c70:	01290a51 			; <UNDEFINED> instruction: 0x01290a51
    7c74:	01040000 	mrseq	r0, (UNDEF: 4)
    7c78:	01150a00 	tsteq	r5, r0, lsl #20
    7c7c:	027d0000 	rsbseq	r0, sp, #0
    7c80:	2c0b0000 	stccs	0, cr0, [fp], {-0}
    7c84:	1f000000 	svcne	0x00000000
    7c88:	02aa1200 	adceq	r1, sl, #0, 4
    7c8c:	01900000 	orrseq	r0, r0, r0
    7c90:	c0085d05 	andgt	r5, r8, r5, lsl #26
    7c94:	0d000002 	stceq	0, cr0, [r0, #-8]
    7c98:	000003c4 	andeq	r0, r0, r4, asr #7
    7c9c:	c0125e05 	andsgt	r5, r2, r5, lsl #28
    7ca0:	00000002 	andeq	r0, r0, r2
    7ca4:	0003dc0d 	andeq	sp, r3, sp, lsl #24
    7ca8:	065f0500 	ldrbeq	r0, [pc], -r0, lsl #10
    7cac:	00000025 	andeq	r0, r0, r5, lsr #32
    7cb0:	01940d04 	orrseq	r0, r4, r4, lsl #26
    7cb4:	61050000 	mrsvs	r0, (UNDEF: 5)
    7cb8:	0002c609 	andeq	ip, r2, r9, lsl #12
    7cbc:	010d0800 	tsteq	sp, r0, lsl #16
    7cc0:	05000001 	streq	r0, [r0, #-1]
    7cc4:	02281e62 	eoreq	r1, r8, #1568	; 0x620
    7cc8:	00880000 	addeq	r0, r8, r0
    7ccc:	027d0405 	rsbseq	r0, sp, #83886080	; 0x5000000
    7cd0:	d60a0000 	strle	r0, [sl], -r0
    7cd4:	d6000002 	strle	r0, [r0], -r2
    7cd8:	0b000002 	bleq	7ce8 <_start-0x318>
    7cdc:	0000002c 	andeq	r0, r0, ip, lsr #32
    7ce0:	0405001f 	streq	r0, [r5], #-31	; 0xffffffe1
    7ce4:	000002dc 	ldrdeq	r0, [r0], -ip
    7ce8:	038f1014 	orreq	r1, pc, #20
    7cec:	05080000 	streq	r0, [r8, #-0]
    7cf0:	03050875 	movweq	r0, #22645	; 0x5875
    7cf4:	bb0d0000 	bllt	347cfc <__bss_end__+0x33dc2c>
    7cf8:	05000000 	streq	r0, [r0, #-0]
    7cfc:	03051176 	movweq	r1, #20854	; 0x5176
    7d00:	0d000000 	stceq	0, cr0, [r0, #-0]
    7d04:	0000001b 	andeq	r0, r0, fp, lsl r0
    7d08:	25067705 	strcs	r7, [r6, #-1797]	; 0xfffff8fb
    7d0c:	04000000 	streq	r0, [r0], #-0
    7d10:	4f040500 	svcmi	0x00040500
    7d14:	10000000 	andne	r0, r0, r0
    7d18:	000003ae 	andeq	r0, r0, lr, lsr #7
    7d1c:	08b50568 	ldmeq	r5!, {r3, r5, r6, r8, sl}
    7d20:	0000044e 	andeq	r0, r0, lr, asr #8
    7d24:	00705f11 	rsbseq	r5, r0, r1, lsl pc
    7d28:	0512b605 	ldreq	fp, [r2, #-1541]	; 0xfffff9fb
    7d2c:	00000003 	andeq	r0, r0, r3
    7d30:	00725f11 	rsbseq	r5, r2, r1, lsl pc
    7d34:	2507b705 	strcs	fp, [r7, #-1797]	; 0xfffff8fb
    7d38:	04000000 	streq	r0, [r0], #-0
    7d3c:	00775f11 	rsbseq	r5, r7, r1, lsl pc
    7d40:	2507b805 	strcs	fp, [r7, #-2053]	; 0xfffff7fb
    7d44:	08000000 	stmdaeq	r0, {}	; <UNPREDICTABLE>
    7d48:	00011f0d 	andeq	r1, r1, sp, lsl #30
    7d4c:	09b90500 	ldmibeq	r9!, {r8, sl}
    7d50:	0000003a 	andeq	r0, r0, sl, lsr r0
    7d54:	02080d0c 	andeq	r0, r8, #12, 26	; 0x300
    7d58:	ba050000 	blt	147d60 <__bss_end__+0x13dc90>
    7d5c:	00003a09 	andeq	r3, r0, r9, lsl #20
    7d60:	5f110e00 	svcpl	0x00110e00
    7d64:	05006662 	streq	r6, [r0, #-1634]	; 0xfffff99e
    7d68:	02dd11bb 	sbcseq	r1, sp, #-1073741778	; 0xc000002e
    7d6c:	0d100000 	ldceq	0, cr0, [r0, #-0]
    7d70:	0000007b 	andeq	r0, r0, fp, ror r0
    7d74:	2507bc05 	strcs	fp, [r7, #-3077]	; 0xfffff3fb
    7d78:	18000000 	stmdane	r0, {}	; <UNPREDICTABLE>
    7d7c:	00010f0d 	andeq	r0, r1, sp, lsl #30
    7d80:	0ac30500 	beq	ff0c9188 <__bss_end__+0xff0bf0b8>
    7d84:	00000115 	andeq	r0, r0, r5, lsl r1
    7d88:	0b720d1c 	bleq	1c8b200 <__bss_end__+0x1c81130>
    7d8c:	c5050000 	strgt	r0, [r5, #-0]
    7d90:	0005c01d 	andeq	ip, r5, sp, lsl r0
    7d94:	360d2000 	strcc	r2, [sp], -r0
    7d98:	05000006 	streq	r0, [r0, #-6]
    7d9c:	05ea1dc7 	strbeq	r1, [sl, #3527]!	; 0xdc7
    7da0:	0d240000 	stceq	0, cr0, [r4, #-0]
    7da4:	00000430 	andeq	r0, r0, r0, lsr r4
    7da8:	0e0dca05 	vmlaeq.f32	s24, s26, s10
    7dac:	28000006 	stmdacs	r0, {r1, r2}
    7db0:	00050a0d 	andeq	r0, r5, sp, lsl #20
    7db4:	09cb0500 	stmibeq	fp, {r8, sl}^
    7db8:	00000628 	andeq	r0, r0, r8, lsr #12
    7dbc:	755f112c 	ldrbvc	r1, [pc, #-300]	; 7c98 <_start-0x368>
    7dc0:	ce050062 	cdpgt	0, 0, cr0, cr5, cr2, {3}
    7dc4:	0002dd11 	andeq	sp, r2, r1, lsl sp
    7dc8:	5f113000 	svcpl	0x00113000
    7dcc:	05007075 	streq	r7, [r0, #-117]	; 0xffffff8b
    7dd0:	030512cf 	movweq	r1, #21199	; 0x52cf
    7dd4:	11380000 	teqne	r8, r0
    7dd8:	0072755f 	rsbseq	r7, r2, pc, asr r5
    7ddc:	2507d005 	strcs	sp, [r7, #-5]
    7de0:	3c000000 	stccc	0, cr0, [r0], {-0}
    7de4:	0000b50d 	andeq	fp, r0, sp, lsl #10
    7de8:	11d30500 	bicsne	r0, r3, r0, lsl #10
    7dec:	0000062e 	andeq	r0, r0, lr, lsr #12
    7df0:	04e20d40 	strbteq	r0, [r2], #3392	; 0xd40
    7df4:	d4050000 	strle	r0, [r5], #-0
    7df8:	00063e11 	andeq	r3, r6, r1, lsl lr
    7dfc:	5f114300 	svcpl	0x00114300
    7e00:	0500626c 	streq	r6, [r0, #-620]	; 0xfffffd94
    7e04:	02dd11d7 	sbcseq	r1, sp, #-1073741771	; 0xc0000035
    7e08:	0d440000 	stcleq	0, cr0, [r4, #-0]
    7e0c:	0000013d 	andeq	r0, r0, sp, lsr r1
    7e10:	2507da05 	strcs	sp, [r7, #-2565]	; 0xfffff5fb
    7e14:	4c000000 	stcmi	0, cr0, [r0], {-0}
    7e18:	00014e0d 	andeq	r4, r1, sp, lsl #28
    7e1c:	0adb0500 	beq	ff6c9224 <__bss_end__+0xff6bf154>
    7e20:	00000082 	andeq	r0, r0, r2, lsl #1
    7e24:	0b130d50 	bleq	4cb36c <__bss_end__+0x4c129c>
    7e28:	de050000 	cdple	0, 0, cr0, cr5, cr0, {0}
    7e2c:	00046c12 	andeq	r6, r4, r2, lsl ip
    7e30:	220d5400 	andcs	r5, sp, #0, 8
    7e34:	05000004 	streq	r0, [r0, #-4]
    7e38:	01090ce2 	smlatteq	r9, r2, ip, r0
    7e3c:	0d580000 	ldcleq	0, cr0, [r8, #-0]
    7e40:	000003b6 			; <UNDEFINED> instruction: 0x000003b6
    7e44:	fd0ee405 	stc2	4, cr14, [lr, #-20]	; 0xffffffec
    7e48:	5c000000 	stcpl	0, cr0, [r0], {-0}
    7e4c:	00027b0d 	andeq	r7, r2, sp, lsl #22
    7e50:	09e50500 	stmibeq	r5!, {r8, sl}^
    7e54:	00000025 	andeq	r0, r0, r5, lsr #32
    7e58:	25150064 	ldrcs	r0, [r5, #-100]	; 0xffffff9c
    7e5c:	6c000000 	stcvs	0, cr0, [r0], {-0}
    7e60:	16000004 	strne	r0, [r0], -r4
    7e64:	0000046c 	andeq	r0, r0, ip, ror #8
    7e68:	00011516 	andeq	r1, r1, r6, lsl r5
    7e6c:	01171600 	tsteq	r7, r0, lsl #12
    7e70:	25160000 	ldrcs	r0, [r6, #-0]
    7e74:	00000000 	andeq	r0, r0, r0
    7e78:	04770405 	ldrbteq	r0, [r7], #-1029	; 0xfffffbfb
    7e7c:	6c0f0000 	stcvs	0, cr0, [pc], {-0}
    7e80:	17000004 	strne	r0, [r0, -r4]
    7e84:	0000040c 	andeq	r0, r0, ip, lsl #8
    7e88:	60050428 	andvs	r0, r5, r8, lsr #8
    7e8c:	05c00802 	strbeq	r0, [r0, #2050]	; 0x802
    7e90:	70180000 	andsvc	r0, r8, r0
    7e94:	05000003 	streq	r0, [r0, #-3]
    7e98:	25070262 	strcs	r0, [r7, #-610]	; 0xfffffd9e
    7e9c:	00000000 	andeq	r0, r0, r0
    7ea0:	00012e18 	andeq	r2, r1, r8, lsl lr
    7ea4:	02670500 	rsbeq	r0, r7, #0, 10
    7ea8:	00069a0b 	andeq	r9, r6, fp, lsl #20
    7eac:	f8180400 			; <UNDEFINED> instruction: 0xf8180400
    7eb0:	05000001 	streq	r0, [r0, #-1]
    7eb4:	9a140267 	bls	508858 <__bss_end__+0x4fe788>
    7eb8:	08000006 	stmdaeq	r0, {r1, r2}
    7ebc:	0001a818 	andeq	sl, r1, r8, lsl r8
    7ec0:	02670500 	rsbeq	r0, r7, #0, 10
    7ec4:	00069a1e 	andeq	r9, r6, lr, lsl sl
    7ec8:	d7180c00 	ldrle	r0, [r8, -r0, lsl #24]
    7ecc:	05000003 	streq	r0, [r0, #-3]
    7ed0:	25080269 	strcs	r0, [r8, #-617]	; 0xfffffd97
    7ed4:	10000000 	andne	r0, r0, r0
    7ed8:	00002918 	andeq	r2, r0, r8, lsl r9
    7edc:	026a0500 	rsbeq	r0, sl, #0, 10
    7ee0:	00089a08 	andeq	r9, r8, r8, lsl #20
    7ee4:	eb181400 	bl	60ceec <__bss_end__+0x602e1c>
    7ee8:	05000003 	streq	r0, [r0, #-3]
    7eec:	2507026d 	strcs	r0, [r7, #-621]	; 0xfffffd93
    7ef0:	30000000 	andcc	r0, r0, r0
    7ef4:	000a4f18 	andeq	r4, sl, r8, lsl pc
    7ef8:	026e0500 	rsbeq	r0, lr, #0, 10
    7efc:	0008af16 	andeq	sl, r8, r6, lsl pc
    7f00:	b2183400 	andslt	r3, r8, #0, 8
    7f04:	05000002 	streq	r0, [r0, #-2]
    7f08:	25070270 	strcs	r0, [r7, #-624]	; 0xfffffd90
    7f0c:	38000000 	stmdacc	r0, {}	; <UNPREDICTABLE>
    7f10:	0003e118 	andeq	lr, r3, r8, lsl r1
    7f14:	02720500 	rsbseq	r0, r2, #0, 10
    7f18:	0008c00a 	andeq	ip, r8, sl
    7f1c:	57183c00 	ldrpl	r3, [r8, -r0, lsl #24]
    7f20:	05000002 	streq	r0, [r0, #-2]
    7f24:	8f130275 	svchi	0x00130275
    7f28:	40000001 	andmi	r0, r0, r1
    7f2c:	0001c718 	andeq	ip, r1, r8, lsl r7
    7f30:	02760500 	rsbseq	r0, r6, #0, 10
    7f34:	00002507 	andeq	r2, r0, r7, lsl #10
    7f38:	24184400 	ldrcs	r4, [r8], #-1024	; 0xfffffc00
    7f3c:	05000005 	streq	r0, [r0, #-5]
    7f40:	8f130277 	svchi	0x00130277
    7f44:	48000001 	stmdami	r0, {r0}
    7f48:	0002c418 	andeq	ip, r2, r8, lsl r4
    7f4c:	02780500 	rsbseq	r0, r8, #0, 10
    7f50:	0008c614 	andeq	ip, r8, r4, lsl r6
    7f54:	00184c00 	andseq	r4, r8, r0, lsl #24
    7f58:	05000002 	streq	r0, [r0, #-2]
    7f5c:	2507027b 	strcs	r0, [r7, #-635]	; 0xfffffd85
    7f60:	50000000 	andpl	r0, r0, r0
    7f64:	00014618 	andeq	r4, r1, r8, lsl r6
    7f68:	027c0500 	rsbseq	r0, ip, #0, 10
    7f6c:	00011709 	andeq	r1, r1, r9, lsl #14
    7f70:	ea185400 	b	61cf78 <__bss_end__+0x612ea8>
    7f74:	05000002 	streq	r0, [r0, #-2]
    7f78:	7507029f 	strvc	r0, [r7, #-671]	; 0xfffffd61
    7f7c:	58000008 	stmdapl	r0, {r3}
    7f80:	0002aa19 	andeq	sl, r2, r9, lsl sl
    7f84:	02a30500 	adceq	r0, r3, #0, 10
    7f88:	0002c013 	andeq	ip, r2, r3, lsl r0
    7f8c:	19014800 	stmdbne	r1, {fp, lr}
    7f90:	00000235 	andeq	r0, r0, r5, lsr r2
    7f94:	1202a405 	andne	sl, r2, #83886080	; 0x5000000
    7f98:	0000027d 	andeq	r0, r0, sp, ror r2
    7f9c:	d019014c 	andsle	r0, r9, ip, asr #2
    7fa0:	05000004 	streq	r0, [r0, #-4]
    7fa4:	d70c02a8 	strle	r0, [ip, -r8, lsr #5]
    7fa8:	dc000008 	stcle	0, cr0, [r0], {8}
    7fac:	01171902 	tsteq	r7, r2, lsl #18
    7fb0:	ad050000 	stcge	0, cr0, [r5, #-0]
    7fb4:	065b1002 	ldrbeq	r1, [fp], -r2
    7fb8:	02e00000 	rsceq	r0, r0, #0
    7fbc:	0000fc19 	andeq	pc, r0, r9, lsl ip	; <UNPREDICTABLE>
    7fc0:	02af0500 	adceq	r0, pc, #0, 10
    7fc4:	0008e30a 	andeq	lr, r8, sl, lsl #6
    7fc8:	0002ec00 	andeq	lr, r2, r0, lsl #24
    7fcc:	044e0405 	strbeq	r0, [lr], #-1029	; 0xfffffbfb
    7fd0:	25150000 	ldrcs	r0, [r5, #-0]
    7fd4:	e4000000 	str	r0, [r0], #-0
    7fd8:	16000005 	strne	r0, [r0], -r5
    7fdc:	0000046c 	andeq	r0, r0, ip, ror #8
    7fe0:	00011516 	andeq	r1, r1, r6, lsl r5
    7fe4:	05e41600 	strbeq	r1, [r4, #1536]!	; 0x600
    7fe8:	25160000 	ldrcs	r0, [r6, #-0]
    7fec:	00000000 	andeq	r0, r0, r0
    7ff0:	01240405 			; <UNDEFINED> instruction: 0x01240405
    7ff4:	04050000 	streq	r0, [r5], #-0
    7ff8:	000005c6 	andeq	r0, r0, r6, asr #11
    7ffc:	00008e15 	andeq	r8, r0, r5, lsl lr
    8000:	00060e00 	andeq	r0, r6, r0, lsl #28
    8004:	046c1600 	strbteq	r1, [ip], #-1536	; 0xfffffa00
    8008:	15160000 	ldrne	r0, [r6, #-0]
    800c:	16000001 	strne	r0, [r0], -r1
    8010:	0000008e 	andeq	r0, r0, lr, lsl #1
    8014:	00002516 	andeq	r2, r0, r6, lsl r5
    8018:	04050000 	streq	r0, [r5], #-0
    801c:	000005f0 	strdeq	r0, [r0], -r0	; <UNPREDICTABLE>
    8020:	00002515 	andeq	r2, r0, r5, lsl r5
    8024:	00062800 	andeq	r2, r6, r0, lsl #16
    8028:	046c1600 	strbteq	r1, [ip], #-1536	; 0xfffffa00
    802c:	15160000 	ldrne	r0, [r6, #-0]
    8030:	00000001 	andeq	r0, r0, r1
    8034:	06140405 	ldreq	r0, [r4], -r5, lsl #8
    8038:	4f0a0000 	svcmi	0x000a0000
    803c:	3e000000 	cdpcc	0, 0, cr0, cr0, cr0, {0}
    8040:	0b000006 	bleq	8060 <notmain+0x50>
    8044:	0000002c 	andeq	r0, r0, ip, lsr #32
    8048:	4f0a0002 	svcmi	0x000a0002
    804c:	4e000000 	cdpmi	0, 0, cr0, cr0, cr0, {0}
    8050:	0b000006 	bleq	8070 <notmain+0x60>
    8054:	0000002c 	andeq	r0, r0, ip, lsr #32
    8058:	9c070000 	stcls	0, cr0, [r7], {-0}
    805c:	05000003 	streq	r0, [r0, #-3]
    8060:	0b1a011f 	bleq	6884e4 <__bss_end__+0x67e414>
    8064:	1a000003 	bne	8078 <notmain+0x68>
    8068:	000004b7 			; <UNDEFINED> instruction: 0x000004b7
    806c:	0123050c 			; <UNDEFINED> instruction: 0x0123050c
    8070:	00069408 	andeq	r9, r6, r8, lsl #8
    8074:	03c41800 	biceq	r1, r4, #0, 16
    8078:	25050000 	strcs	r0, [r5, #-0]
    807c:	06941101 	ldreq	r1, [r4], r1, lsl #2
    8080:	18000000 	stmdane	r0, {}	; <UNPREDICTABLE>
    8084:	0000021b 	andeq	r0, r0, fp, lsl r2
    8088:	07012605 	streq	r2, [r1, -r5, lsl #12]
    808c:	00000025 	andeq	r0, r0, r5, lsr #32
    8090:	03961804 	orrseq	r1, r6, #4, 16	; 0x40000
    8094:	27050000 	strcs	r0, [r5, -r0]
    8098:	069a0b01 	ldreq	r0, [sl], r1, lsl #22
    809c:	00080000 	andeq	r0, r8, r0
    80a0:	065b0405 	ldrbeq	r0, [fp], -r5, lsl #8
    80a4:	04050000 	streq	r0, [r5], #-0
    80a8:	0000064e 	andeq	r0, r0, lr, asr #12
    80ac:	0000211a 	andeq	r2, r0, sl, lsl r1
    80b0:	3f050e00 	svccc	0x00050e00
    80b4:	06d90801 	ldrbeq	r0, [r9], r1, lsl #16
    80b8:	13180000 	tstne	r8, #0
    80bc:	05000004 	streq	r0, [r0, #-4]
    80c0:	d9120140 	ldmdble	r2, {r6, r8}
    80c4:	00000006 	andeq	r0, r0, r6
    80c8:	00044718 	andeq	r4, r4, r8, lsl r7
    80cc:	01410500 	cmpeq	r1, r0, lsl #10
    80d0:	0006d912 	andeq	sp, r6, r2, lsl r9
    80d4:	63180600 	tstvs	r8, #0, 12
    80d8:	05000004 	streq	r0, [r0, #-4]
    80dc:	56120142 	ldrpl	r0, [r2], -r2, asr #2
    80e0:	0c000000 	stceq	0, cr0, [r0], {-0}
    80e4:	00560a00 	subseq	r0, r6, r0, lsl #20
    80e8:	06e90000 	strbteq	r0, [r9], r0
    80ec:	2c0b0000 	stccs	0, cr0, [fp], {-0}
    80f0:	02000000 	andeq	r0, r0, #0
    80f4:	05d01b00 	ldrbeq	r1, [r0, #2816]	; 0xb00
    80f8:	fe070280 	cdp2	2, 0, cr0, cr7, cr0, {4}
    80fc:	18000007 	stmdane	r0, {r0, r1, r2}
    8100:	0000049b 	muleq	r0, fp, r4
    8104:	18028205 	stmdane	r2, {r0, r2, r9, pc}
    8108:	0000002c 	andeq	r0, r0, ip, lsr #32
    810c:	044d1800 	strbeq	r1, [sp], #-2048	; 0xfffff800
    8110:	83050000 	movwhi	r0, #20480	; 0x5000
    8114:	01171202 	tsteq	r7, r2, lsl #4
    8118:	18040000 	stmdane	r4, {}	; <UNPREDICTABLE>
    811c:	0000024a 	andeq	r0, r0, sl, asr #4
    8120:	10028405 	andne	r8, r2, r5, lsl #8
    8124:	000007fe 	strdeq	r0, [r0], -lr
    8128:	04fb1808 	ldrbteq	r1, [fp], #2056	; 0x808
    812c:	85050000 	strhi	r0, [r5, #-0]
    8130:	01a51702 			; <UNDEFINED> instruction: 0x01a51702
    8134:	18240000 	stmdane	r4!, {}	; <UNPREDICTABLE>
    8138:	000001b8 			; <UNDEFINED> instruction: 0x000001b8
    813c:	0f028605 	svceq	0x00028605
    8140:	00000025 	andeq	r0, r0, r5, lsr #32
    8144:	03bf1848 			; <UNDEFINED> instruction: 0x03bf1848
    8148:	87050000 	strhi	r0, [r5, -r0]
    814c:	00642c02 	rsbeq	r2, r4, r2, lsl #24
    8150:	18500000 	ldmdane	r0, {}^	; <UNPREDICTABLE>
    8154:	00000511 	andeq	r0, r0, r1, lsl r5
    8158:	1a028805 	bne	aa174 <__bss_end__+0xa00a4>
    815c:	000006a0 	andeq	r0, r0, r0, lsr #13
    8160:	03ca1858 	biceq	r1, sl, #88, 16	; 0x580000
    8164:	89050000 	stmdbhi	r5, {}	; <UNPREDICTABLE>
    8168:	00fd1602 	rscseq	r1, sp, r2, lsl #12
    816c:	18680000 	stmdane	r8!, {}^	; <UNPREDICTABLE>
    8170:	00000516 	andeq	r0, r0, r6, lsl r5
    8174:	16028a05 	strne	r8, [r2], -r5, lsl #20
    8178:	000000fd 	strdeq	r0, [r0], -sp
    817c:	02ce1870 	sbceq	r1, lr, #112, 16	; 0x700000
    8180:	8b050000 	blhi	148188 <__bss_end__+0x13e0b8>
    8184:	00fd1602 	rscseq	r1, sp, r2, lsl #12
    8188:	18780000 	ldmdane	r8!, {}^	; <UNPREDICTABLE>
    818c:	000004c6 	andeq	r0, r0, r6, asr #9
    8190:	10028c05 	andne	r8, r2, r5, lsl #24
    8194:	0000080e 	andeq	r0, r0, lr, lsl #16
    8198:	023e1880 	eorseq	r1, lr, #128, 16	; 0x800000
    819c:	8d050000 	stchi	0, cr0, [r5, #-0]
    81a0:	081e1002 	ldmdaeq	lr, {r1, ip}
    81a4:	18880000 	stmne	r8, {}	; <UNPREDICTABLE>
    81a8:	00000470 	andeq	r0, r0, r0, ror r4
    81ac:	0f028e05 	svceq	0x00028e05
    81b0:	00000025 	andeq	r0, r0, r5, lsr #32
    81b4:	017e18a0 	cmneq	lr, r0, lsr #17
    81b8:	8f050000 	svchi	0x00050000
    81bc:	00fd1602 	rscseq	r1, sp, r2, lsl #12
    81c0:	18a40000 	stmiane	r4!, {}	; <UNPREDICTABLE>
    81c4:	0000008f 	andeq	r0, r0, pc, lsl #1
    81c8:	16029005 	strne	r9, [r2], -r5
    81cc:	000000fd 	strdeq	r0, [r0], -sp
    81d0:	016d18ac 	cmneq	sp, ip, lsr #17
    81d4:	91050000 	mrsls	r0, (UNDEF: 5)
    81d8:	00fd1602 	rscseq	r1, sp, r2, lsl #12
    81dc:	18b40000 	ldmne	r4!, {}	; <UNPREDICTABLE>
    81e0:	0000003c 	andeq	r0, r0, ip, lsr r0
    81e4:	16029205 	strne	r9, [r2], -r5, lsl #4
    81e8:	000000fd 	strdeq	r0, [r0], -sp
    81ec:	004b18bc 	strheq	r1, [fp], #-140	; 0xffffff74
    81f0:	93050000 	movwls	r0, #20480	; 0x5000
    81f4:	00fd1602 	rscseq	r1, sp, r2, lsl #12
    81f8:	18c40000 	stmiane	r4, {}^	; <UNPREDICTABLE>
    81fc:	0000036e 	andeq	r0, r0, lr, ror #6
    8200:	08029405 	stmdaeq	r2, {r0, r2, sl, ip, pc}
    8204:	00000025 	andeq	r0, r0, r5, lsr #32
    8208:	1d0a00cc 	stcne	0, cr0, [sl, #-816]	; 0xfffffcd0
    820c:	0e000001 	cdpeq	0, 0, cr0, cr0, cr1, {0}
    8210:	0b000008 	bleq	8238 <check_free_write+0xfc>
    8214:	0000002c 	andeq	r0, r0, ip, lsr #32
    8218:	1d0a0019 	stcne	0, cr0, [sl, #-100]	; 0xffffff9c
    821c:	1e000001 	cdpne	0, 0, cr0, cr0, cr1, {0}
    8220:	0b000008 	bleq	8248 <mark_mem>
    8224:	0000002c 	andeq	r0, r0, ip, lsr #32
    8228:	1d0a0007 	stcne	0, cr0, [sl, #-28]	; 0xffffffe4
    822c:	2e000001 	cdpcs	0, 0, cr0, cr0, cr1, {0}
    8230:	0b000008 	bleq	8258 <mark_mem+0x10>
    8234:	0000002c 	andeq	r0, r0, ip, lsr #32
    8238:	f01b0017 			; <UNDEFINED> instruction: 0xf01b0017
    823c:	07029905 	streq	r9, [r2, -r5, lsl #18]
    8240:	00000855 	andeq	r0, r0, r5, asr r8
    8244:	00029a18 	andeq	r9, r2, r8, lsl sl
    8248:	029c0500 	addseq	r0, ip, #0, 10
    824c:	0008551b 	andeq	r5, r8, fp, lsl r5
    8250:	bd180000 	ldclt	0, cr0, [r8, #-0]
    8254:	05000004 	streq	r0, [r0, #-4]
    8258:	6518029d 	ldrvs	r0, [r8, #-669]	; 0xfffffd63
    825c:	78000008 	stmdavc	r0, {r3}
    8260:	03050a00 	movweq	r0, #23040	; 0x5a00
    8264:	08650000 	stmdaeq	r5!, {}^	; <UNPREDICTABLE>
    8268:	2c0b0000 	stccs	0, cr0, [fp], {-0}
    826c:	1d000000 	stcne	0, cr0, [r0, #-0]
    8270:	002c0a00 	eoreq	r0, ip, r0, lsl #20
    8274:	08750000 	ldmdaeq	r5!, {}^	; <UNPREDICTABLE>
    8278:	2c0b0000 	stccs	0, cr0, [fp], {-0}
    827c:	1d000000 	stcne	0, cr0, [r0, #-0]
    8280:	05f01c00 	ldrbeq	r1, [r0, #3072]!	; 0xc00
    8284:	9a03027e 	bls	c8c84 <__bss_end__+0xbebb4>
    8288:	1d000008 	stcne	0, cr0, [r0, #-32]	; 0xffffffe0
    828c:	0000040c 	andeq	r0, r0, ip, lsl #8
    8290:	0b029505 	bleq	ad6ac <__bss_end__+0xa35dc>
    8294:	000006e9 	andeq	r0, r0, r9, ror #13
    8298:	0004e81d 	andeq	lr, r4, sp, lsl r8
    829c:	029e0500 	addseq	r0, lr, #0, 10
    82a0:	00082e0b 	andeq	r2, r8, fp, lsl #28
    82a4:	1d0a0000 	stcne	0, cr0, [sl, #-0]
    82a8:	aa000001 	bge	82b4 <check_hdr+0x34>
    82ac:	0b000008 	bleq	82d4 <check_hdr+0x54>
    82b0:	0000002c 	andeq	r0, r0, ip, lsr #32
    82b4:	84060018 	strhi	r0, [r6], #-24	; 0xffffffe8
    82b8:	05000000 	streq	r0, [r0, #-0]
    82bc:	0008aa04 	andeq	sl, r8, r4, lsl #20
    82c0:	08c01e00 	stmiaeq	r0, {r9, sl, fp, ip}^
    82c4:	6c160000 	ldcvs	0, cr0, [r6], {-0}
    82c8:	00000004 	andeq	r0, r0, r4
    82cc:	08b50405 	ldmeq	r5!, {r0, r2, sl}
    82d0:	04050000 	streq	r0, [r5], #-0
    82d4:	0000018f 	andeq	r0, r0, pc, lsl #3
    82d8:	0008d71e 	andeq	sp, r8, lr, lsl r7
    82dc:	00251600 	eoreq	r1, r5, r0, lsl #12
    82e0:	05000000 	streq	r0, [r0, #-0]
    82e4:	0008dd04 	andeq	sp, r8, r4, lsl #26
    82e8:	cc040500 	cfstr32gt	mvfx0, [r4], {-0}
    82ec:	0a000008 	beq	8314 <check_hdr+0x94>
    82f0:	0000064e 	andeq	r0, r0, lr, asr #12
    82f4:	000008f3 	strdeq	r0, [r0], -r3
    82f8:	00002c0b 	andeq	r2, r0, fp, lsl #24
    82fc:	1f000200 	svcne	0x00000200
    8300:	00000484 	andeq	r0, r0, r4, lsl #9
    8304:	17032e05 	strne	r2, [r3, -r5, lsl #28]
    8308:	0000046c 	andeq	r0, r0, ip, ror #8
    830c:	00047d1f 	andeq	r7, r4, pc, lsl sp
    8310:	032f0500 			; <UNDEFINED> instruction: 0x032f0500
    8314:	0004721d 	andeq	r7, r4, sp, lsl r2
    8318:	00251500 	eoreq	r1, r5, r0, lsl #10
    831c:	091c0000 	ldmdbeq	ip, {}	; <UNPREDICTABLE>
    8320:	25160000 	ldrcs	r0, [r6, #-0]
    8324:	00000000 	andeq	r0, r0, r0
    8328:	0001d120 	andeq	sp, r1, r0, lsr #2
    832c:	0e1d0600 	cfmsub32eq	mvax0, mvfx0, mvfx13, mvfx0
    8330:	00000928 	andeq	r0, r0, r8, lsr #18
    8334:	090d0405 	stmdbeq	sp, {r0, r2, sl}
    8338:	25150000 	ldrcs	r0, [r5, #-0]
    833c:	3d000000 	stccc	0, cr0, [r0, #-0]
    8340:	16000009 	strne	r0, [r0], -r9
    8344:	000005e4 	andeq	r0, r0, r4, ror #11
    8348:	078c2000 	streq	r2, [ip, r0]
    834c:	22060000 	andcs	r0, r6, #0
    8350:	0009490e 	andeq	r4, r9, lr, lsl #18
    8354:	2e040500 	cfsh32cs	mvfx0, mvfx4, #0
    8358:	21000009 	tstcs	r0, r9
    835c:	00000861 	andeq	r0, r0, r1, ror #16
    8360:	40060d01 	andmi	r0, r6, r1, lsl #26
    8364:	2c000091 	stccs	0, cr0, [r0], {145}	; 0x91
    8368:	01000000 	mrseq	r0, (UNDEF: 0)
    836c:	0009b89c 	muleq	r9, ip, r8
    8370:	08712000 	ldmdaeq	r1!, {sp}^
    8374:	0e010000 	cdpeq	0, 0, cr0, cr1, cr0, {0}
    8378:	00002510 	andeq	r2, r0, r0, lsl r5
    837c:	087f2000 	ldmdaeq	pc!, {sp}^	; <UNPREDICTABLE>
    8380:	0e010000 	cdpeq	0, 0, cr0, cr1, cr0, {0}
    8384:	0000251f 	andeq	r2, r0, pc, lsl r5
    8388:	00342200 	eorseq	r2, r4, r0, lsl #4
    838c:	0f010000 	svceq	0x00010000
    8390:	73622307 	cmnvc	r2, #469762048	; 0x1c000000
    8394:	11010073 	tstne	r1, r3, ror r0
    8398:	0009b80a 	andeq	fp, r9, sl, lsl #16
    839c:	00125700 	andseq	r5, r2, r0, lsl #14
    83a0:	00125100 	andseq	r5, r2, r0, lsl #2
    83a4:	08692400 	stmdaeq	r9!, {sl, sp}^
    83a8:	12010000 	andne	r0, r1, #0
    83ac:	0009b80a 	andeq	fp, r9, sl, lsl #16
    83b0:	91602500 	cmnls	r0, r0, lsl #10
    83b4:	09be0000 	ldmibeq	lr!, {}	; <UNPREDICTABLE>
    83b8:	64250000 	strtvs	r0, [r5], #-0
    83bc:	ca000091 	bgt	8608 <ckalloc+0x14>
    83c0:	00000009 	andeq	r0, r0, r9
    83c4:	00250405 	eoreq	r0, r5, r5, lsl #8
    83c8:	34260000 	strtcc	r0, [r6], #-0
    83cc:	34000000 	strcc	r0, [r0], #-0
    83d0:	06000000 	streq	r0, [r0], -r0
    83d4:	8d2606d7 	stchi	6, cr0, [r6, #-860]!	; 0xfffffca4
    83d8:	8d000002 	stchi	0, cr0, [r0, #-8]
    83dc:	06000002 	streq	r0, [r0], -r2
    83e0:	9b000665 	blls	9d7c <buf.4297+0xb0>
    83e4:	0400000a 	streq	r0, [r0], #-10
    83e8:	001a2a00 	andseq	r2, sl, r0, lsl #20
    83ec:	ef010400 	svc	0x00010400
    83f0:	0c000002 	stceq	0, cr0, [r0], {2}
    83f4:	000008cb 	andeq	r0, r0, fp, asr #17
    83f8:	000006e5 	andeq	r0, r0, r5, ror #13
    83fc:	00000068 	andeq	r0, r0, r8, rrx
    8400:	00000000 	andeq	r0, r0, r0
    8404:	00001758 	andeq	r1, r0, r8, asr r7
    8408:	69050402 	stmdbvs	r5, {r1, sl}
    840c:	0300746e 	movweq	r7, #1134	; 0x46e
    8410:	00000025 	andeq	r0, r0, r5, lsr #32
    8414:	66070404 	strvs	r0, [r7], -r4, lsl #8
    8418:	04000000 	streq	r0, [r0], #-0
    841c:	02de0601 	sbcseq	r0, lr, #1048576	; 0x100000
    8420:	02040000 	andeq	r0, r4, #0
    8424:	00037705 	andeq	r7, r3, r5, lsl #14
    8428:	05040400 	streq	r0, [r4, #-1024]	; 0xfffffc00
    842c:	000000ac 	andeq	r0, r0, ip, lsr #1
    8430:	a7050804 	strge	r0, [r5, -r4, lsl #16]
    8434:	04000000 	streq	r0, [r0], #-0
    8438:	02dc0801 	sbcseq	r0, ip, #65536	; 0x10000
    843c:	02040000 	andeq	r0, r4, #0
    8440:	00022207 	andeq	r2, r2, r7, lsl #4
    8444:	07040400 	streq	r0, [r4, -r0, lsl #8]
    8448:	00000061 	andeq	r0, r0, r1, rrx
    844c:	5c070804 	stcpl	8, cr0, [r7], {4}
    8450:	05000000 	streq	r0, [r0, #-0]
    8454:	00000265 	andeq	r0, r0, r5, ror #4
    8458:	7c192202 	lfmvc	f2, 4, [r9], {2}
    845c:	06000000 	streq	r0, [r0], -r0
    8460:	00008204 	andeq	r8, r0, r4, lsl #4
    8464:	04210700 	strteq	r0, [r1], #-1792	; 0xfffff900
    8468:	bd050000 	stclt	0, cr0, [r5, #-0]
    846c:	03000002 	movweq	r0, #2
    8470:	00460e2c 	subeq	r0, r6, ip, lsr #28
    8474:	36050000 	strcc	r0, [r5], -r0
    8478:	03000004 	movweq	r0, #4
    847c:	00460e72 	subeq	r0, r6, r2, ror lr
    8480:	6d080000 	stcvs	0, cr0, [r8, #-0]
    8484:	04000002 	streq	r0, [r0], #-2
    8488:	3117015e 	tstcc	r7, lr, asr r1
    848c:	09000000 	stmdbeq	r0, {}	; <UNPREDICTABLE>
    8490:	03a60304 			; <UNDEFINED> instruction: 0x03a60304
    8494:	000000ce 	andeq	r0, r0, lr, asr #1
    8498:	00025f0a 	andeq	r5, r2, sl, lsl #30
    849c:	0ca80300 	stceq	3, cr0, [r8]
    84a0:	0000009f 	muleq	r0, pc, r0	; <UNPREDICTABLE>
    84a4:	0001e20a 	andeq	lr, r1, sl, lsl #4
    84a8:	13a90300 			; <UNDEFINED> instruction: 0x13a90300
    84ac:	000000ce 	andeq	r0, r0, lr, asr #1
    84b0:	00540b00 	subseq	r0, r4, r0, lsl #22
    84b4:	00de0000 	sbcseq	r0, lr, r0
    84b8:	310c0000 	mrscc	r0, (UNDEF: 12)
    84bc:	03000000 	movweq	r0, #0
    84c0:	03080d00 	movweq	r0, #36096	; 0x8d00
    84c4:	010209a3 	smlatbeq	r2, r3, r9, r0
    84c8:	190e0000 	stmdbne	lr, {}	; <UNPREDICTABLE>
    84cc:	03000004 	movweq	r0, #4
    84d0:	002507a5 	eoreq	r0, r5, r5, lsr #15
    84d4:	0e000000 	cdpeq	0, 0, cr0, cr0, cr0, {0}
    84d8:	00000428 	andeq	r0, r0, r8, lsr #8
    84dc:	ac05aa03 			; <UNDEFINED> instruction: 0xac05aa03
    84e0:	04000000 	streq	r0, [r0], #-0
    84e4:	03a30500 			; <UNDEFINED> instruction: 0x03a30500
    84e8:	ab030000 	blge	c84f0 <__bss_end__+0xbe420>
    84ec:	0000de03 	andeq	sp, r0, r3, lsl #28
    84f0:	019f0500 	orrseq	r0, pc, r0, lsl #10
    84f4:	af030000 	svcge	0x00030000
    84f8:	0000701b 	andeq	r7, r0, fp, lsl r0
    84fc:	06040f00 	streq	r0, [r4], -r0, lsl #30
    8500:	00012204 	andeq	r2, r1, r4, lsl #4
    8504:	08010400 	stmdaeq	r1, {sl}
    8508:	000002e5 	andeq	r0, r0, r5, ror #5
    850c:	00012203 	andeq	r2, r1, r3, lsl #4
    8510:	04680500 	strbteq	r0, [r8], #-1280	; 0xfffffb00
    8514:	16050000 	strne	r0, [r5], -r0
    8518:	00006219 	andeq	r6, r0, r9, lsl r2
    851c:	01b01000 	movseq	r1, r0
    8520:	05180000 	ldreq	r0, [r8, #-0]
    8524:	0194082f 	orrseq	r0, r4, pc, lsr #16
    8528:	c40e0000 	strgt	r0, [lr], #-0
    852c:	05000003 	streq	r0, [r0, #-3]
    8530:	01941331 	orrseq	r1, r4, r1, lsr r3
    8534:	11000000 	mrsne	r0, (UNDEF: 0)
    8538:	05006b5f 	streq	r6, [r0, #-2911]	; 0xfffff4a1
    853c:	00250732 	eoreq	r0, r5, r2, lsr r7
    8540:	0e040000 	cdpeq	0, 0, cr0, cr4, cr0, {0}
    8544:	00000404 	andeq	r0, r0, r4, lsl #8
    8548:	250b3205 	strcs	r3, [fp, #-517]	; 0xfffffdfb
    854c:	08000000 	stmdaeq	r0, {}	; <UNPREDICTABLE>
    8550:	0001990e 	andeq	r9, r1, lr, lsl #18
    8554:	14320500 	ldrtne	r0, [r2], #-1280	; 0xfffffb00
    8558:	00000025 	andeq	r0, r0, r5, lsr #32
    855c:	04a80e0c 	strteq	r0, [r8], #3596	; 0xe0c
    8560:	32050000 	andcc	r0, r5, #0
    8564:	0000251b 	andeq	r2, r0, fp, lsl r5
    8568:	5f111000 	svcpl	0x00111000
    856c:	33050078 	movwcc	r0, #20600	; 0x5078
    8570:	00019a0b 	andeq	r9, r1, fp, lsl #20
    8574:	06001400 	streq	r1, [r0], -r0, lsl #8
    8578:	00013a04 	andeq	r3, r1, r4, lsl #20
    857c:	012e0b00 			; <UNDEFINED> instruction: 0x012e0b00
    8580:	01aa0000 			; <UNDEFINED> instruction: 0x01aa0000
    8584:	310c0000 	mrscc	r0, (UNDEF: 12)
    8588:	00000000 	andeq	r0, r0, r0
    858c:	01dd1000 	bicseq	r1, sp, r0
    8590:	05240000 	streq	r0, [r4, #-0]!
    8594:	022d0837 	eoreq	r0, sp, #3604480	; 0x370000
    8598:	9e0e0000 	cdpls	0, 0, cr0, cr14, cr0, {0}
    859c:	05000000 	streq	r0, [r0, #-0]
    85a0:	00250939 	eoreq	r0, r5, r9, lsr r9
    85a4:	0e000000 	cdpeq	0, 0, cr0, cr0, cr0, {0}
    85a8:	0000043e 	andeq	r0, r0, lr, lsr r4
    85ac:	25093a05 	strcs	r3, [r9, #-2565]	; 0xfffff5fb
    85b0:	04000000 	streq	r0, [r0], #-0
    85b4:	0000c10e 	andeq	ip, r0, lr, lsl #2
    85b8:	093b0500 	ldmdbeq	fp!, {r8, sl}
    85bc:	00000025 	andeq	r0, r0, r5, lsr #32
    85c0:	05330e08 	ldreq	r0, [r3, #-3592]!	; 0xfffff1f8
    85c4:	3c050000 	stccc	0, cr0, [r5], {-0}
    85c8:	00002509 	andeq	r2, r0, r9, lsl #10
    85cc:	a10e0c00 	tstge	lr, r0, lsl #24
    85d0:	05000002 	streq	r0, [r0, #-2]
    85d4:	0025093d 	eoreq	r0, r5, sp, lsr r9
    85d8:	0e100000 	cdpeq	0, 1, cr0, cr0, cr0, {0}
    85dc:	00000283 	andeq	r0, r0, r3, lsl #5
    85e0:	25093e05 	strcs	r3, [r9, #-3589]	; 0xfffff1fb
    85e4:	14000000 	strne	r0, [r0], #-0
    85e8:	0004ad0e 	andeq	sl, r4, lr, lsl #26
    85ec:	093f0500 	ldmdbeq	pc!, {r8, sl}	; <UNPREDICTABLE>
    85f0:	00000025 	andeq	r0, r0, r5, lsr #32
    85f4:	05290e18 	streq	r0, [r9, #-3608]!	; 0xfffff1e8
    85f8:	40050000 	andmi	r0, r5, r0
    85fc:	00002509 	andeq	r2, r0, r9, lsl #10
    8600:	f00e1c00 			; <UNDEFINED> instruction: 0xf00e1c00
    8604:	05000004 	streq	r0, [r0, #-4]
    8608:	00250941 	eoreq	r0, r5, r1, asr #18
    860c:	00200000 	eoreq	r0, r0, r0
    8610:	00010112 	andeq	r0, r1, r2, lsl r1
    8614:	05010800 	streq	r0, [r1, #-2048]	; 0xfffff800
    8618:	0272084a 	rsbseq	r0, r2, #4849664	; 0x4a0000
    861c:	8c0e0000 	stchi	0, cr0, [lr], {-0}
    8620:	05000001 	streq	r0, [r0, #-1]
    8624:	02720a4b 	rsbseq	r0, r2, #307200	; 0x4b000
    8628:	0e000000 	cdpeq	0, 0, cr0, cr0, cr0, {0}
    862c:	00000000 	andeq	r0, r0, r0
    8630:	72094c05 	andvc	r4, r9, #1280	; 0x500
    8634:	80000002 	andhi	r0, r0, r2
    8638:	00045a13 	andeq	r5, r4, r3, lsl sl
    863c:	0a4e0500 	beq	1389a44 <__bss_end__+0x137f974>
    8640:	0000012e 	andeq	r0, r0, lr, lsr #2
    8644:	26130100 	ldrcs	r0, [r3], -r0, lsl #2
    8648:	05000001 	streq	r0, [r0, #-1]
    864c:	012e0a51 			; <UNDEFINED> instruction: 0x012e0a51
    8650:	01040000 	mrseq	r0, (UNDEF: 4)
    8654:	011a0b00 	tsteq	sl, r0, lsl #22
    8658:	02820000 	addeq	r0, r2, #0
    865c:	310c0000 	mrscc	r0, (UNDEF: 12)
    8660:	1f000000 	svcne	0x00000000
    8664:	02aa1200 	adceq	r1, sl, #0, 4
    8668:	01900000 	orrseq	r0, r0, r0
    866c:	c5085d05 	strgt	r5, [r8, #-3333]	; 0xfffff2fb
    8670:	0e000002 	cdpeq	0, 0, cr0, cr0, cr2, {0}
    8674:	000003c4 	andeq	r0, r0, r4, asr #7
    8678:	c5125e05 	ldrgt	r5, [r2, #-3589]	; 0xfffff1fb
    867c:	00000002 	andeq	r0, r0, r2
    8680:	0003dc0e 	andeq	sp, r3, lr, lsl #24
    8684:	065f0500 	ldrbeq	r0, [pc], -r0, lsl #10
    8688:	00000025 	andeq	r0, r0, r5, lsr #32
    868c:	01940e04 	orrseq	r0, r4, r4, lsl #28
    8690:	61050000 	mrsvs	r0, (UNDEF: 5)
    8694:	0002cb09 	andeq	ip, r2, r9, lsl #22
    8698:	010e0800 	tsteq	lr, r0, lsl #16
    869c:	05000001 	streq	r0, [r0, #-1]
    86a0:	022d1e62 	eoreq	r1, sp, #1568	; 0x620
    86a4:	00880000 	addeq	r0, r8, r0
    86a8:	02820406 	addeq	r0, r2, #100663296	; 0x6000000
    86ac:	db0b0000 	blle	2c86b4 <__bss_end__+0x2be5e4>
    86b0:	db000002 	blle	86c0 <ckalloc+0xcc>
    86b4:	0c000002 	stceq	0, cr0, [r0], {2}
    86b8:	00000031 	andeq	r0, r0, r1, lsr r0
    86bc:	0406001f 	streq	r0, [r6], #-31	; 0xffffffe1
    86c0:	000002e1 	andeq	r0, r0, r1, ror #5
    86c4:	038f1014 	orreq	r1, pc, #20
    86c8:	05080000 	streq	r0, [r8, #-0]
    86cc:	030a0875 	movweq	r0, #43125	; 0xa875
    86d0:	bb0e0000 	bllt	3886d8 <__bss_end__+0x37e608>
    86d4:	05000000 	streq	r0, [r0, #-0]
    86d8:	030a1176 	movweq	r1, #41334	; 0xa176
    86dc:	0e000000 	cdpeq	0, 0, cr0, cr0, cr0, {0}
    86e0:	0000001b 	andeq	r0, r0, fp, lsl r0
    86e4:	25067705 	strcs	r7, [r6, #-1797]	; 0xfffff8fb
    86e8:	04000000 	streq	r0, [r0], #-0
    86ec:	54040600 	strpl	r0, [r4], #-1536	; 0xfffffa00
    86f0:	10000000 	andne	r0, r0, r0
    86f4:	000003ae 	andeq	r0, r0, lr, lsr #7
    86f8:	08b50568 	ldmeq	r5!, {r3, r5, r6, r8, sl}
    86fc:	00000453 	andeq	r0, r0, r3, asr r4
    8700:	00705f11 	rsbseq	r5, r0, r1, lsl pc
    8704:	0a12b605 	beq	4b5f20 <__bss_end__+0x4abe50>
    8708:	00000003 	andeq	r0, r0, r3
    870c:	00725f11 	rsbseq	r5, r2, r1, lsl pc
    8710:	2507b705 	strcs	fp, [r7, #-1797]	; 0xfffff8fb
    8714:	04000000 	streq	r0, [r0], #-0
    8718:	00775f11 	rsbseq	r5, r7, r1, lsl pc
    871c:	2507b805 	strcs	fp, [r7, #-2053]	; 0xfffff7fb
    8720:	08000000 	stmdaeq	r0, {}	; <UNPREDICTABLE>
    8724:	00011f0e 	andeq	r1, r1, lr, lsl #30
    8728:	09b90500 	ldmibeq	r9!, {r8, sl}
    872c:	0000003f 	andeq	r0, r0, pc, lsr r0
    8730:	02080e0c 	andeq	r0, r8, #12, 28	; 0xc0
    8734:	ba050000 	blt	14873c <__bss_end__+0x13e66c>
    8738:	00003f09 	andeq	r3, r0, r9, lsl #30
    873c:	5f110e00 	svcpl	0x00110e00
    8740:	05006662 	streq	r6, [r0, #-1634]	; 0xfffff99e
    8744:	02e211bb 	rsceq	r1, r2, #-1073741778	; 0xc000002e
    8748:	0e100000 	cdpeq	0, 1, cr0, cr0, cr0, {0}
    874c:	0000007b 	andeq	r0, r0, fp, ror r0
    8750:	2507bc05 	strcs	fp, [r7, #-3077]	; 0xfffff3fb
    8754:	18000000 	stmdane	r0, {}	; <UNPREDICTABLE>
    8758:	00010f0e 	andeq	r0, r1, lr, lsl #30
    875c:	0ac30500 	beq	ff0c9b64 <__bss_end__+0xff0bfa94>
    8760:	0000011a 	andeq	r0, r0, sl, lsl r1
    8764:	0b720e1c 	bleq	1c8bfdc <__bss_end__+0x1c81f0c>
    8768:	c5050000 	strgt	r0, [r5, #-0]
    876c:	0005c51d 	andeq	ip, r5, sp, lsl r5
    8770:	360e2000 	strcc	r2, [lr], -r0
    8774:	05000006 	streq	r0, [r0, #-6]
    8778:	05ef1dc7 	strbeq	r1, [pc, #3527]!	; 9547 <gpio_read+0x27>
    877c:	0e240000 	cdpeq	0, 2, cr0, cr4, cr0, {0}
    8780:	00000430 	andeq	r0, r0, r0, lsr r4
    8784:	130dca05 	movwne	ip, #55813	; 0xda05
    8788:	28000006 	stmdacs	r0, {r1, r2}
    878c:	00050a0e 	andeq	r0, r5, lr, lsl #20
    8790:	09cb0500 	stmibeq	fp, {r8, sl}^
    8794:	0000062d 	andeq	r0, r0, sp, lsr #12
    8798:	755f112c 	ldrbvc	r1, [pc, #-300]	; 8674 <ckalloc+0x80>
    879c:	ce050062 	cdpgt	0, 0, cr0, cr5, cr2, {3}
    87a0:	0002e211 	andeq	lr, r2, r1, lsl r2
    87a4:	5f113000 	svcpl	0x00113000
    87a8:	05007075 	streq	r7, [r0, #-117]	; 0xffffff8b
    87ac:	030a12cf 	movweq	r1, #41679	; 0xa2cf
    87b0:	11380000 	teqne	r8, r0
    87b4:	0072755f 	rsbseq	r7, r2, pc, asr r5
    87b8:	2507d005 	strcs	sp, [r7, #-5]
    87bc:	3c000000 	stccc	0, cr0, [r0], {-0}
    87c0:	0000b50e 	andeq	fp, r0, lr, lsl #10
    87c4:	11d30500 	bicsne	r0, r3, r0, lsl #10
    87c8:	00000633 	andeq	r0, r0, r3, lsr r6
    87cc:	04e20e40 	strbteq	r0, [r2], #3648	; 0xe40
    87d0:	d4050000 	strle	r0, [r5], #-0
    87d4:	00064311 	andeq	r4, r6, r1, lsl r3
    87d8:	5f114300 	svcpl	0x00114300
    87dc:	0500626c 	streq	r6, [r0, #-620]	; 0xfffffd94
    87e0:	02e211d7 	rsceq	r1, r2, #-1073741771	; 0xc0000035
    87e4:	0e440000 	cdpeq	0, 4, cr0, cr4, cr0, {0}
    87e8:	0000013d 	andeq	r0, r0, sp, lsr r1
    87ec:	2507da05 	strcs	sp, [r7, #-2565]	; 0xfffff5fb
    87f0:	4c000000 	stcmi	0, cr0, [r0], {-0}
    87f4:	00014e0e 	andeq	r4, r1, lr, lsl #28
    87f8:	0adb0500 	beq	ff6c9c00 <__bss_end__+0xff6bfb30>
    87fc:	00000087 	andeq	r0, r0, r7, lsl #1
    8800:	0b130e50 	bleq	4cc148 <__bss_end__+0x4c2078>
    8804:	de050000 	cdple	0, 0, cr0, cr5, cr0, {0}
    8808:	00047112 	andeq	r7, r4, r2, lsl r1
    880c:	220e5400 	andcs	r5, lr, #0, 8
    8810:	05000004 	streq	r0, [r0, #-4]
    8814:	010e0ce2 	smlatteq	lr, r2, ip, r0
    8818:	0e580000 	cdpeq	0, 5, cr0, cr8, cr0, {0}
    881c:	000003b6 			; <UNDEFINED> instruction: 0x000003b6
    8820:	020ee405 	andeq	lr, lr, #83886080	; 0x5000000
    8824:	5c000001 	stcpl	0, cr0, [r0], {1}
    8828:	00027b0e 	andeq	r7, r2, lr, lsl #22
    882c:	09e50500 	stmibeq	r5!, {r8, sl}^
    8830:	00000025 	andeq	r0, r0, r5, lsr #32
    8834:	25150064 	ldrcs	r0, [r5, #-100]	; 0xffffff9c
    8838:	71000000 	mrsvc	r0, (UNDEF: 0)
    883c:	16000004 	strne	r0, [r0], -r4
    8840:	00000471 	andeq	r0, r0, r1, ror r4
    8844:	00011a16 	andeq	r1, r1, r6, lsl sl
    8848:	011c1600 	tsteq	ip, r0, lsl #12
    884c:	25160000 	ldrcs	r0, [r6, #-0]
    8850:	00000000 	andeq	r0, r0, r0
    8854:	047c0406 	ldrbteq	r0, [ip], #-1030	; 0xfffffbfa
    8858:	71030000 	mrsvc	r0, (UNDEF: 3)
    885c:	17000004 	strne	r0, [r0, -r4]
    8860:	0000040c 	andeq	r0, r0, ip, lsl #8
    8864:	60050428 	andvs	r0, r5, r8, lsr #8
    8868:	05c50802 	strbeq	r0, [r5, #2050]	; 0x802
    886c:	70180000 	andsvc	r0, r8, r0
    8870:	05000003 	streq	r0, [r0, #-3]
    8874:	25070262 	strcs	r0, [r7, #-610]	; 0xfffffd9e
    8878:	00000000 	andeq	r0, r0, r0
    887c:	00012e18 	andeq	r2, r1, r8, lsl lr
    8880:	02670500 	rsbeq	r0, r7, #0, 10
    8884:	00069f0b 	andeq	r9, r6, fp, lsl #30
    8888:	f8180400 			; <UNDEFINED> instruction: 0xf8180400
    888c:	05000001 	streq	r0, [r0, #-1]
    8890:	9f140267 	svcls	0x00140267
    8894:	08000006 	stmdaeq	r0, {r1, r2}
    8898:	0001a818 	andeq	sl, r1, r8, lsl r8
    889c:	02670500 	rsbeq	r0, r7, #0, 10
    88a0:	00069f1e 	andeq	r9, r6, lr, lsl pc
    88a4:	d7180c00 	ldrle	r0, [r8, -r0, lsl #24]
    88a8:	05000003 	streq	r0, [r0, #-3]
    88ac:	25080269 	strcs	r0, [r8, #-617]	; 0xfffffd97
    88b0:	10000000 	andne	r0, r0, r0
    88b4:	00002918 	andeq	r2, r0, r8, lsl r9
    88b8:	026a0500 	rsbeq	r0, sl, #0, 10
    88bc:	00089f08 	andeq	r9, r8, r8, lsl #30
    88c0:	eb181400 	bl	60d8c8 <__bss_end__+0x6037f8>
    88c4:	05000003 	streq	r0, [r0, #-3]
    88c8:	2507026d 	strcs	r0, [r7, #-621]	; 0xfffffd93
    88cc:	30000000 	andcc	r0, r0, r0
    88d0:	000a4f18 	andeq	r4, sl, r8, lsl pc
    88d4:	026e0500 	rsbeq	r0, lr, #0, 10
    88d8:	0008b416 	andeq	fp, r8, r6, lsl r4
    88dc:	b2183400 	andslt	r3, r8, #0, 8
    88e0:	05000002 	streq	r0, [r0, #-2]
    88e4:	25070270 	strcs	r0, [r7, #-624]	; 0xfffffd90
    88e8:	38000000 	stmdacc	r0, {}	; <UNPREDICTABLE>
    88ec:	0003e118 	andeq	lr, r3, r8, lsl r1
    88f0:	02720500 	rsbseq	r0, r2, #0, 10
    88f4:	0008c50a 	andeq	ip, r8, sl, lsl #10
    88f8:	57183c00 	ldrpl	r3, [r8, -r0, lsl #24]
    88fc:	05000002 	streq	r0, [r0, #-2]
    8900:	94130275 	ldrls	r0, [r3], #-629	; 0xfffffd8b
    8904:	40000001 	andmi	r0, r0, r1
    8908:	0001c718 	andeq	ip, r1, r8, lsl r7
    890c:	02760500 	rsbseq	r0, r6, #0, 10
    8910:	00002507 	andeq	r2, r0, r7, lsl #10
    8914:	24184400 	ldrcs	r4, [r8], #-1024	; 0xfffffc00
    8918:	05000005 	streq	r0, [r0, #-5]
    891c:	94130277 	ldrls	r0, [r3], #-631	; 0xfffffd89
    8920:	48000001 	stmdami	r0, {r0}
    8924:	0002c418 	andeq	ip, r2, r8, lsl r4
    8928:	02780500 	rsbseq	r0, r8, #0, 10
    892c:	0008cb14 	andeq	ip, r8, r4, lsl fp
    8930:	00184c00 	andseq	r4, r8, r0, lsl #24
    8934:	05000002 	streq	r0, [r0, #-2]
    8938:	2507027b 	strcs	r0, [r7, #-635]	; 0xfffffd85
    893c:	50000000 	andpl	r0, r0, r0
    8940:	00014618 	andeq	r4, r1, r8, lsl r6
    8944:	027c0500 	rsbseq	r0, ip, #0, 10
    8948:	00011c09 	andeq	r1, r1, r9, lsl #24
    894c:	ea185400 	b	61d954 <__bss_end__+0x613884>
    8950:	05000002 	streq	r0, [r0, #-2]
    8954:	7a07029f 	bvc	1c93d8 <__bss_end__+0x1bf308>
    8958:	58000008 	stmdapl	r0, {r3}
    895c:	0002aa19 	andeq	sl, r2, r9, lsl sl
    8960:	02a30500 	adceq	r0, r3, #0, 10
    8964:	0002c513 	andeq	ip, r2, r3, lsl r5
    8968:	19014800 	stmdbne	r1, {fp, lr}
    896c:	00000235 	andeq	r0, r0, r5, lsr r2
    8970:	1202a405 	andne	sl, r2, #83886080	; 0x5000000
    8974:	00000282 	andeq	r0, r0, r2, lsl #5
    8978:	d019014c 	andsle	r0, r9, ip, asr #2
    897c:	05000004 	streq	r0, [r0, #-4]
    8980:	dc0c02a8 	sfmle	f0, 4, [ip], {168}	; 0xa8
    8984:	dc000008 	stcle	0, cr0, [r0], {8}
    8988:	01171902 	tsteq	r7, r2, lsl #18
    898c:	ad050000 	stcge	0, cr0, [r5, #-0]
    8990:	06601002 	strbteq	r1, [r0], -r2
    8994:	02e00000 	rsceq	r0, r0, #0
    8998:	0000fc19 	andeq	pc, r0, r9, lsl ip	; <UNPREDICTABLE>
    899c:	02af0500 	adceq	r0, pc, #0, 10
    89a0:	0008e80a 	andeq	lr, r8, sl, lsl #16
    89a4:	0002ec00 	andeq	lr, r2, r0, lsl #24
    89a8:	04530406 	ldrbeq	r0, [r3], #-1030	; 0xfffffbfa
    89ac:	25150000 	ldrcs	r0, [r5, #-0]
    89b0:	e9000000 	stmdb	r0, {}	; <UNPREDICTABLE>
    89b4:	16000005 	strne	r0, [r0], -r5
    89b8:	00000471 	andeq	r0, r0, r1, ror r4
    89bc:	00011a16 	andeq	r1, r1, r6, lsl sl
    89c0:	05e91600 	strbeq	r1, [r9, #1536]!	; 0x600
    89c4:	25160000 	ldrcs	r0, [r6, #-0]
    89c8:	00000000 	andeq	r0, r0, r0
    89cc:	01290406 			; <UNDEFINED> instruction: 0x01290406
    89d0:	04060000 	streq	r0, [r6], #-0
    89d4:	000005cb 	andeq	r0, r0, fp, asr #11
    89d8:	00009315 	andeq	r9, r0, r5, lsl r3
    89dc:	00061300 	andeq	r1, r6, r0, lsl #6
    89e0:	04711600 	ldrbteq	r1, [r1], #-1536	; 0xfffffa00
    89e4:	1a160000 	bne	5889ec <__bss_end__+0x57e91c>
    89e8:	16000001 	strne	r0, [r0], -r1
    89ec:	00000093 	muleq	r0, r3, r0
    89f0:	00002516 	andeq	r2, r0, r6, lsl r5
    89f4:	04060000 	streq	r0, [r6], #-0
    89f8:	000005f5 	strdeq	r0, [r0], -r5
    89fc:	00002515 	andeq	r2, r0, r5, lsl r5
    8a00:	00062d00 	andeq	r2, r6, r0, lsl #26
    8a04:	04711600 	ldrbteq	r1, [r1], #-1536	; 0xfffffa00
    8a08:	1a160000 	bne	588a10 <__bss_end__+0x57e940>
    8a0c:	00000001 	andeq	r0, r0, r1
    8a10:	06190406 	ldreq	r0, [r9], -r6, lsl #8
    8a14:	540b0000 	strpl	r0, [fp], #-0
    8a18:	43000000 	movwmi	r0, #0
    8a1c:	0c000006 	stceq	0, cr0, [r0], {6}
    8a20:	00000031 	andeq	r0, r0, r1, lsr r0
    8a24:	540b0002 	strpl	r0, [fp], #-2
    8a28:	53000000 	movwpl	r0, #0
    8a2c:	0c000006 	stceq	0, cr0, [r0], {6}
    8a30:	00000031 	andeq	r0, r0, r1, lsr r0
    8a34:	9c080000 	stcls	0, cr0, [r8], {-0}
    8a38:	05000003 	streq	r0, [r0, #-3]
    8a3c:	101a011f 	andsne	r0, sl, pc, lsl r1
    8a40:	1a000003 	bne	8a54 <fast_hash+0x84>
    8a44:	000004b7 			; <UNDEFINED> instruction: 0x000004b7
    8a48:	0123050c 			; <UNDEFINED> instruction: 0x0123050c
    8a4c:	00069908 	andeq	r9, r6, r8, lsl #18
    8a50:	03c41800 	biceq	r1, r4, #0, 16
    8a54:	25050000 	strcs	r0, [r5, #-0]
    8a58:	06991101 	ldreq	r1, [r9], r1, lsl #2
    8a5c:	18000000 	stmdane	r0, {}	; <UNPREDICTABLE>
    8a60:	0000021b 	andeq	r0, r0, fp, lsl r2
    8a64:	07012605 	streq	r2, [r1, -r5, lsl #12]
    8a68:	00000025 	andeq	r0, r0, r5, lsr #32
    8a6c:	03961804 	orrseq	r1, r6, #4, 16	; 0x40000
    8a70:	27050000 	strcs	r0, [r5, -r0]
    8a74:	069f0b01 	ldreq	r0, [pc], r1, lsl #22
    8a78:	00080000 	andeq	r0, r8, r0
    8a7c:	06600406 	strbteq	r0, [r0], -r6, lsl #8
    8a80:	04060000 	streq	r0, [r6], #-0
    8a84:	00000653 	andeq	r0, r0, r3, asr r6
    8a88:	0000211a 	andeq	r2, r0, sl, lsl r1
    8a8c:	3f050e00 	svccc	0x00050e00
    8a90:	06de0801 	ldrbeq	r0, [lr], r1, lsl #16
    8a94:	13180000 	tstne	r8, #0
    8a98:	05000004 	streq	r0, [r0, #-4]
    8a9c:	de120140 	muflesm	f0, f2, f0
    8aa0:	00000006 	andeq	r0, r0, r6
    8aa4:	00044718 	andeq	r4, r4, r8, lsl r7
    8aa8:	01410500 	cmpeq	r1, r0, lsl #10
    8aac:	0006de12 	andeq	sp, r6, r2, lsl lr
    8ab0:	63180600 	tstvs	r8, #0, 12
    8ab4:	05000004 	streq	r0, [r0, #-4]
    8ab8:	5b120142 	blpl	488fc8 <__bss_end__+0x47eef8>
    8abc:	0c000000 	stceq	0, cr0, [r0], {-0}
    8ac0:	005b0b00 	subseq	r0, fp, r0, lsl #22
    8ac4:	06ee0000 	strbteq	r0, [lr], r0
    8ac8:	310c0000 	mrscc	r0, (UNDEF: 12)
    8acc:	02000000 	andeq	r0, r0, #0
    8ad0:	05d01b00 	ldrbeq	r1, [r0, #2816]	; 0xb00
    8ad4:	03070280 	movweq	r0, #29312	; 0x7280
    8ad8:	18000008 	stmdane	r0, {r3}
    8adc:	0000049b 	muleq	r0, fp, r4
    8ae0:	18028205 	stmdane	r2, {r0, r2, r9, pc}
    8ae4:	00000031 	andeq	r0, r0, r1, lsr r0
    8ae8:	044d1800 	strbeq	r1, [sp], #-2048	; 0xfffff800
    8aec:	83050000 	movwhi	r0, #20480	; 0x5000
    8af0:	011c1202 	tsteq	ip, r2, lsl #4
    8af4:	18040000 	stmdane	r4, {}	; <UNPREDICTABLE>
    8af8:	0000024a 	andeq	r0, r0, sl, asr #4
    8afc:	10028405 	andne	r8, r2, r5, lsl #8
    8b00:	00000803 	andeq	r0, r0, r3, lsl #16
    8b04:	04fb1808 	ldrbteq	r1, [fp], #2056	; 0x808
    8b08:	85050000 	strhi	r0, [r5, #-0]
    8b0c:	01aa1702 			; <UNDEFINED> instruction: 0x01aa1702
    8b10:	18240000 	stmdane	r4!, {}	; <UNPREDICTABLE>
    8b14:	000001b8 			; <UNDEFINED> instruction: 0x000001b8
    8b18:	0f028605 	svceq	0x00028605
    8b1c:	00000025 	andeq	r0, r0, r5, lsr #32
    8b20:	03bf1848 			; <UNDEFINED> instruction: 0x03bf1848
    8b24:	87050000 	strhi	r0, [r5, -r0]
    8b28:	00692c02 	rsbeq	r2, r9, r2, lsl #24
    8b2c:	18500000 	ldmdane	r0, {}^	; <UNPREDICTABLE>
    8b30:	00000511 	andeq	r0, r0, r1, lsl r5
    8b34:	1a028805 	bne	aab50 <__bss_end__+0xa0a80>
    8b38:	000006a5 	andeq	r0, r0, r5, lsr #13
    8b3c:	03ca1858 	biceq	r1, sl, #88, 16	; 0x580000
    8b40:	89050000 	stmdbhi	r5, {}	; <UNPREDICTABLE>
    8b44:	01021602 	tsteq	r2, r2, lsl #12
    8b48:	18680000 	stmdane	r8!, {}^	; <UNPREDICTABLE>
    8b4c:	00000516 	andeq	r0, r0, r6, lsl r5
    8b50:	16028a05 	strne	r8, [r2], -r5, lsl #20
    8b54:	00000102 	andeq	r0, r0, r2, lsl #2
    8b58:	02ce1870 	sbceq	r1, lr, #112, 16	; 0x700000
    8b5c:	8b050000 	blhi	148b64 <__bss_end__+0x13ea94>
    8b60:	01021602 	tsteq	r2, r2, lsl #12
    8b64:	18780000 	ldmdane	r8!, {}^	; <UNPREDICTABLE>
    8b68:	000004c6 	andeq	r0, r0, r6, asr #9
    8b6c:	10028c05 	andne	r8, r2, r5, lsl #24
    8b70:	00000813 	andeq	r0, r0, r3, lsl r8
    8b74:	023e1880 	eorseq	r1, lr, #128, 16	; 0x800000
    8b78:	8d050000 	stchi	0, cr0, [r5, #-0]
    8b7c:	08231002 	stmdaeq	r3!, {r1, ip}
    8b80:	18880000 	stmne	r8, {}	; <UNPREDICTABLE>
    8b84:	00000470 	andeq	r0, r0, r0, ror r4
    8b88:	0f028e05 	svceq	0x00028e05
    8b8c:	00000025 	andeq	r0, r0, r5, lsr #32
    8b90:	017e18a0 	cmneq	lr, r0, lsr #17
    8b94:	8f050000 	svchi	0x00050000
    8b98:	01021602 	tsteq	r2, r2, lsl #12
    8b9c:	18a40000 	stmiane	r4!, {}	; <UNPREDICTABLE>
    8ba0:	0000008f 	andeq	r0, r0, pc, lsl #1
    8ba4:	16029005 	strne	r9, [r2], -r5
    8ba8:	00000102 	andeq	r0, r0, r2, lsl #2
    8bac:	016d18ac 	cmneq	sp, ip, lsr #17
    8bb0:	91050000 	mrsls	r0, (UNDEF: 5)
    8bb4:	01021602 	tsteq	r2, r2, lsl #12
    8bb8:	18b40000 	ldmne	r4!, {}	; <UNPREDICTABLE>
    8bbc:	0000003c 	andeq	r0, r0, ip, lsr r0
    8bc0:	16029205 	strne	r9, [r2], -r5, lsl #4
    8bc4:	00000102 	andeq	r0, r0, r2, lsl #2
    8bc8:	004b18bc 	strheq	r1, [fp], #-140	; 0xffffff74
    8bcc:	93050000 	movwls	r0, #20480	; 0x5000
    8bd0:	01021602 	tsteq	r2, r2, lsl #12
    8bd4:	18c40000 	stmiane	r4, {}^	; <UNPREDICTABLE>
    8bd8:	0000036e 	andeq	r0, r0, lr, ror #6
    8bdc:	08029405 	stmdaeq	r2, {r0, r2, sl, ip, pc}
    8be0:	00000025 	andeq	r0, r0, r5, lsr #32
    8be4:	220b00cc 	andcs	r0, fp, #204	; 0xcc
    8be8:	13000001 	movwne	r0, #1
    8bec:	0c000008 	stceq	0, cr0, [r0], {8}
    8bf0:	00000031 	andeq	r0, r0, r1, lsr r0
    8bf4:	220b0019 	andcs	r0, fp, #25
    8bf8:	23000001 	movwcs	r0, #1
    8bfc:	0c000008 	stceq	0, cr0, [r0], {8}
    8c00:	00000031 	andeq	r0, r0, r1, lsr r0
    8c04:	220b0007 	andcs	r0, fp, #7
    8c08:	33000001 	movwcc	r0, #1
    8c0c:	0c000008 	stceq	0, cr0, [r0], {8}
    8c10:	00000031 	andeq	r0, r0, r1, lsr r0
    8c14:	f01b0017 			; <UNDEFINED> instruction: 0xf01b0017
    8c18:	07029905 	streq	r9, [r2, -r5, lsl #18]
    8c1c:	0000085a 	andeq	r0, r0, sl, asr r8
    8c20:	00029a18 	andeq	r9, r2, r8, lsl sl
    8c24:	029c0500 	addseq	r0, ip, #0, 10
    8c28:	00085a1b 	andeq	r5, r8, fp, lsl sl
    8c2c:	bd180000 	ldclt	0, cr0, [r8, #-0]
    8c30:	05000004 	streq	r0, [r0, #-4]
    8c34:	6a18029d 	bvs	6096b0 <__bss_end__+0x5ff5e0>
    8c38:	78000008 	stmdavc	r0, {r3}
    8c3c:	030a0b00 	movweq	r0, #43776	; 0xab00
    8c40:	086a0000 	stmdaeq	sl!, {}^	; <UNPREDICTABLE>
    8c44:	310c0000 	mrscc	r0, (UNDEF: 12)
    8c48:	1d000000 	stcne	0, cr0, [r0, #-0]
    8c4c:	00310b00 	eorseq	r0, r1, r0, lsl #22
    8c50:	087a0000 	ldmdaeq	sl!, {}^	; <UNPREDICTABLE>
    8c54:	310c0000 	mrscc	r0, (UNDEF: 12)
    8c58:	1d000000 	stcne	0, cr0, [r0, #-0]
    8c5c:	05f01c00 	ldrbeq	r1, [r0, #3072]!	; 0xc00
    8c60:	9f03027e 	svcls	0x0003027e
    8c64:	1d000008 	stcne	0, cr0, [r0, #-32]	; 0xffffffe0
    8c68:	0000040c 	andeq	r0, r0, ip, lsl #8
    8c6c:	0b029505 	bleq	ae088 <__bss_end__+0xa3fb8>
    8c70:	000006ee 	andeq	r0, r0, lr, ror #13
    8c74:	0004e81d 	andeq	lr, r4, sp, lsl r8
    8c78:	029e0500 	addseq	r0, lr, #0, 10
    8c7c:	0008330b 	andeq	r3, r8, fp, lsl #6
    8c80:	220b0000 	andcs	r0, fp, #0
    8c84:	af000001 	svcge	0x00000001
    8c88:	0c000008 	stceq	0, cr0, [r0], {8}
    8c8c:	00000031 	andeq	r0, r0, r1, lsr r0
    8c90:	84070018 	strhi	r0, [r7], #-24	; 0xffffffe8
    8c94:	06000000 	streq	r0, [r0], -r0
    8c98:	0008af04 	andeq	sl, r8, r4, lsl #30
    8c9c:	08c51e00 	stmiaeq	r5, {r9, sl, fp, ip}^
    8ca0:	71160000 	tstvc	r6, r0
    8ca4:	00000004 	andeq	r0, r0, r4
    8ca8:	08ba0406 	ldmeq	sl!, {r1, r2, sl}
    8cac:	04060000 	streq	r0, [r6], #-0
    8cb0:	00000194 	muleq	r0, r4, r1
    8cb4:	0008dc1e 	andeq	sp, r8, lr, lsl ip
    8cb8:	00251600 	eoreq	r1, r5, r0, lsl #12
    8cbc:	06000000 	streq	r0, [r0], -r0
    8cc0:	0008e204 	andeq	lr, r8, r4, lsl #4
    8cc4:	d1040600 	tstle	r4, r0, lsl #12
    8cc8:	0b000008 	bleq	8cf0 <emit+0x88>
    8ccc:	00000653 	andeq	r0, r0, r3, asr r6
    8cd0:	000008f8 	strdeq	r0, [r0], -r8
    8cd4:	0000310c 	andeq	r3, r0, ip, lsl #2
    8cd8:	1f000200 	svcne	0x00000200
    8cdc:	00000484 	andeq	r0, r0, r4, lsl #9
    8ce0:	17032e05 	strne	r2, [r3, -r5, lsl #28]
    8ce4:	00000471 	andeq	r0, r0, r1, ror r4
    8ce8:	00047d1f 	andeq	r7, r4, pc, lsl sp
    8cec:	032f0500 			; <UNDEFINED> instruction: 0x032f0500
    8cf0:	0004771d 	andeq	r7, r4, sp, lsl r7
    8cf4:	00251500 	eoreq	r1, r5, r0, lsl #10
    8cf8:	09210000 	stmdbeq	r1!, {}	; <UNPREDICTABLE>
    8cfc:	25160000 	ldrcs	r0, [r6, #-0]
    8d00:	00000000 	andeq	r0, r0, r0
    8d04:	0001d120 	andeq	sp, r1, r0, lsr #2
    8d08:	0e1d0600 	cfmsub32eq	mvax0, mvfx0, mvfx13, mvfx0
    8d0c:	0000092d 	andeq	r0, r0, sp, lsr #18
    8d10:	09120406 	ldmdbeq	r2, {r1, r2, sl}
    8d14:	25150000 	ldrcs	r0, [r5, #-0]
    8d18:	42000000 	andmi	r0, r0, #0
    8d1c:	16000009 	strne	r0, [r0], -r9
    8d20:	000005e9 	andeq	r0, r0, r9, ror #11
    8d24:	078c2000 	streq	r2, [ip, r0]
    8d28:	22060000 	andcs	r0, r6, #0
    8d2c:	00094e0e 	andeq	r4, r9, lr, lsl #28
    8d30:	33040600 	movwcc	r0, #17920	; 0x4600
    8d34:	21000009 	tstcs	r0, r9
    8d38:	000008f0 	strdeq	r0, [r0], -r0	; <UNPREDICTABLE>
    8d3c:	31110d01 	tstcc	r1, r1, lsl #26
    8d40:	22000000 	andcs	r0, r0, #0
    8d44:	00000843 	andeq	r0, r0, r3, asr #16
    8d48:	98061f01 	stmdals	r6, {r0, r8, r9, sl, fp, ip}
    8d4c:	4c000091 	stcmi	0, cr0, [r0], {145}	; 0x91
    8d50:	01000000 	mrseq	r0, (UNDEF: 0)
    8d54:	000a2c9c 	muleq	sl, ip, ip
    8d58:	088b2300 	stmeq	fp, {r8, r9, sp}
    8d5c:	2a010000 	bcs	48d64 <__bss_end__+0x3ec94>
    8d60:	00002c0f 	andeq	r2, r0, pc, lsl #24
    8d64:	00128400 	andseq	r8, r2, r0, lsl #8
    8d68:	00128200 	andseq	r8, r2, r0, lsl #4
    8d6c:	08b22300 	ldmeq	r2!, {r8, r9, sp}
    8d70:	2b010000 	blcs	48d78 <__bss_end__+0x3eca8>
    8d74:	00002c0f 	andeq	r2, r0, pc, lsl #24
    8d78:	00129e00 	andseq	r9, r2, r0, lsl #28
    8d7c:	00129c00 	andseq	r9, r2, r0, lsl #24
    8d80:	08bf2300 	ldmeq	pc!, {r8, r9, sp}	; <UNPREDICTABLE>
    8d84:	2c010000 	stccs	0, cr0, [r1], {-0}
    8d88:	00002c0f 	andeq	r2, r0, pc, lsl #24
    8d8c:	0012b800 	andseq	fp, r2, r0, lsl #16
    8d90:	0012b600 	andseq	fp, r2, r0, lsl #12
    8d94:	08992300 	ldmeq	r9, {r8, r9, sp}
    8d98:	2d010000 	stccs	0, cr0, [r1, #-0]
    8d9c:	00002c0f 	andeq	r2, r0, pc, lsl #24
    8da0:	0012d100 	andseq	sp, r2, r0, lsl #2
    8da4:	0012cf00 	andseq	ip, r2, r0, lsl #30
    8da8:	91a02400 	lslls	r2, r0, #8
    8dac:	0a570000 	beq	15c8db4 <__bss_end__+0x15bece4>
    8db0:	b0250000 	eorlt	r0, r5, r0
    8db4:	86000091 			; <UNDEFINED> instruction: 0x86000091
    8db8:	e200000a 	and	r0, r0, #10
    8dbc:	26000009 	strcs	r0, [r0], -r9
    8dc0:	4e015001 	cdpmi	0, 0, cr5, cr1, cr1, {0}
    8dc4:	91bc2500 			; <UNDEFINED> instruction: 0x91bc2500
    8dc8:	0a920000 	beq	fe488dd0 <__bss_end__+0xfe47ed00>
    8dcc:	0a020000 	beq	88dd4 <__bss_end__+0x7ed04>
    8dd0:	01260000 			; <UNDEFINED> instruction: 0x01260000
    8dd4:	240c0550 	strcs	r0, [ip], #-1360	; 0xfffffab0
    8dd8:	26201000 	strtcs	r1, [r0], -r0
    8ddc:	0c055101 	stfeqs	f5, [r5], {1}
    8de0:	5a000001 	bpl	8dec <emit+0x184>
    8de4:	91c82500 	bicls	r2, r8, r0, lsl #10
    8de8:	0a920000 	beq	fe488df0 <__bss_end__+0xfe47ed20>
    8dec:	0a220000 	beq	888df4 <__bss_end__+0x87ed24>
    8df0:	01260000 			; <UNDEFINED> instruction: 0x01260000
    8df4:	1c0c0550 	cfstr32ne	mvfx0, [ip], {80}	; 0x50
    8df8:	26201000 	strtcs	r1, [r0], -r0
    8dfc:	0c055101 	stfeqs	f5, [r5], {1}
    8e00:	5a000020 	bpl	8e88 <va_printk+0x20>
    8e04:	91d02400 	bicsls	r2, r0, r0, lsl #8
    8e08:	0a2c0000 	beq	b08e10 <__bss_end__+0xafed40>
    8e0c:	27000000 	strcs	r0, [r0, -r0]
    8e10:	000008de 	ldrdeq	r0, [r0], -lr
    8e14:	84061701 	strhi	r1, [r6], #-1793	; 0xfffff8ff
    8e18:	14000091 	strne	r0, [r0], #-145	; 0xffffff6f
    8e1c:	01000000 	mrseq	r0, (UNDEF: 0)
    8e20:	000a579c 	muleq	sl, ip, r7
    8e24:	08ba2300 	ldmeq	sl!, {r8, r9, sp}
    8e28:	18010000 	stmdane	r1, {}	; <UNPREDICTABLE>
    8e2c:	0000310e 	andeq	r3, r0, lr, lsl #2
    8e30:	0012ec00 	andseq	lr, r2, r0, lsl #24
    8e34:	0012e600 	andseq	lr, r2, r0, lsl #12
    8e38:	ed280000 	stc	0, cr0, [r8, #-0]
    8e3c:	01000008 	tsteq	r0, r8
    8e40:	0025050e 	eoreq	r0, r5, lr, lsl #10
    8e44:	916c0000 	cmnls	ip, r0
    8e48:	00180000 	andseq	r0, r8, r0
    8e4c:	9c010000 	stcls	0, cr0, [r1], {-0}
    8e50:	00000a86 	andeq	r0, r0, r6, lsl #21
    8e54:	0008ba23 	andeq	fp, r8, r3, lsr #20
    8e58:	0e0f0100 	adfeqe	f0, f7, f0
    8e5c:	00000031 	andeq	r0, r0, r1, lsr r0
    8e60:	0000131a 	andeq	r1, r0, sl, lsl r3
    8e64:	00001316 	andeq	r1, r0, r6, lsl r3
    8e68:	083a2900 	ldmdaeq	sl!, {r8, fp, sp}
    8e6c:	083a0000 	ldmdaeq	sl!, {}	; <UNPREDICTABLE>
    8e70:	4f060000 	svcmi	0x00060000
    8e74:	08932906 	ldmeq	r3, {r1, r2, r8, fp, sp}
    8e78:	08930000 	ldmeq	r3, {}	; <UNPREDICTABLE>
    8e7c:	9b060000 	blls	188e84 <__bss_end__+0x17edb4>
    8e80:	0aea0006 	beq	ffa88ea0 <__bss_end__+0xffa7edd0>
    8e84:	00040000 	andeq	r0, r4, r0
    8e88:	00001c92 	muleq	r0, r2, ip
    8e8c:	02ef0104 	rsceq	r0, pc, #4, 2
    8e90:	210c0000 	mrscs	r0, (UNDEF: 12)
    8e94:	e5000009 	str	r0, [r0, #-9]
    8e98:	e4000006 	str	r0, [r0], #-6
    8e9c:	8c000091 	stchi	0, cr0, [r0], {145}	; 0x91
    8ea0:	94000000 	strls	r0, [r0], #-0
    8ea4:	02000018 	andeq	r0, r0, #24
    8ea8:	6e690504 	cdpvs	5, 6, cr0, cr9, cr4, {0}
    8eac:	04030074 	streq	r0, [r3], #-116	; 0xffffff8c
    8eb0:	00006607 	andeq	r6, r0, r7, lsl #12
    8eb4:	06010300 	streq	r0, [r1], -r0, lsl #6
    8eb8:	000002de 	ldrdeq	r0, [r0], -lr
    8ebc:	77050203 	strvc	r0, [r5, -r3, lsl #4]
    8ec0:	03000003 	movweq	r0, #3
    8ec4:	00ac0504 	adceq	r0, ip, r4, lsl #10
    8ec8:	08030000 	stmdaeq	r3, {}	; <UNPREDICTABLE>
    8ecc:	0000a705 	andeq	sl, r0, r5, lsl #14
    8ed0:	08010300 	stmdaeq	r1, {r8, r9}
    8ed4:	000002dc 	ldrdeq	r0, [r0], -ip
    8ed8:	22070203 	andcs	r0, r7, #805306368	; 0x30000000
    8edc:	03000002 	movweq	r0, #2
    8ee0:	00610704 	rsbeq	r0, r1, r4, lsl #14
    8ee4:	08030000 	stmdaeq	r3, {}	; <UNPREDICTABLE>
    8ee8:	00005c07 	andeq	r5, r0, r7, lsl #24
    8eec:	02650400 	rsbeq	r0, r5, #0, 8
    8ef0:	22020000 	andcs	r0, r2, #0
    8ef4:	00007719 	andeq	r7, r0, r9, lsl r7
    8ef8:	7d040500 	cfstr32vc	mvfx0, [r4, #-0]
    8efc:	06000000 	streq	r0, [r0], -r0
    8f00:	00000421 	andeq	r0, r0, r1, lsr #8
    8f04:	0002bd04 	andeq	fp, r2, r4, lsl #26
    8f08:	0e2c0300 	cdpeq	3, 2, cr0, cr12, cr0, {0}
    8f0c:	00000041 	andeq	r0, r0, r1, asr #32
    8f10:	00043604 	andeq	r3, r4, r4, lsl #12
    8f14:	0e720300 	cdpeq	3, 7, cr0, cr2, cr0, {0}
    8f18:	00000041 	andeq	r0, r0, r1, asr #32
    8f1c:	00026d07 	andeq	r6, r2, r7, lsl #26
    8f20:	015e0400 	cmpeq	lr, r0, lsl #8
    8f24:	00002c17 	andeq	r2, r0, r7, lsl ip
    8f28:	03040800 	movweq	r0, #18432	; 0x4800
    8f2c:	00c903a6 	sbceq	r0, r9, r6, lsr #7
    8f30:	5f090000 	svcpl	0x00090000
    8f34:	03000002 	movweq	r0, #2
    8f38:	009a0ca8 	addseq	r0, sl, r8, lsr #25
    8f3c:	e2090000 	and	r0, r9, #0
    8f40:	03000001 	movweq	r0, #1
    8f44:	00c913a9 	sbceq	r1, r9, r9, lsr #7
    8f48:	0a000000 	beq	8f50 <va_printk+0xe8>
    8f4c:	0000004f 	andeq	r0, r0, pc, asr #32
    8f50:	000000d9 	ldrdeq	r0, [r0], -r9
    8f54:	00002c0b 	andeq	r2, r0, fp, lsl #24
    8f58:	0c000300 	stceq	3, cr0, [r0], {-0}
    8f5c:	09a30308 	stmibeq	r3!, {r3, r8, r9}
    8f60:	000000fd 	strdeq	r0, [r0], -sp
    8f64:	0004190d 	andeq	r1, r4, sp, lsl #18
    8f68:	07a50300 	streq	r0, [r5, r0, lsl #6]!
    8f6c:	00000025 	andeq	r0, r0, r5, lsr #32
    8f70:	04280d00 	strteq	r0, [r8], #-3328	; 0xfffff300
    8f74:	aa030000 	bge	c8f7c <__bss_end__+0xbeeac>
    8f78:	0000a705 	andeq	sl, r0, r5, lsl #14
    8f7c:	04000400 	streq	r0, [r0], #-1024	; 0xfffffc00
    8f80:	000003a3 	andeq	r0, r0, r3, lsr #7
    8f84:	d903ab03 	stmdble	r3, {r0, r1, r8, r9, fp, sp, pc}
    8f88:	04000000 	streq	r0, [r0], #-0
    8f8c:	0000019f 	muleq	r0, pc, r1	; <UNPREDICTABLE>
    8f90:	6b1baf03 	blvs	6f4ba4 <__bss_end__+0x6eaad4>
    8f94:	0e000000 	cdpeq	0, 0, cr0, cr0, cr0, {0}
    8f98:	1d040504 	cfstr32ne	mvfx0, [r4, #-16]
    8f9c:	03000001 	movweq	r0, #1
    8fa0:	02e50801 	rsceq	r0, r5, #65536	; 0x10000
    8fa4:	1d0f0000 	stcne	0, cr0, [pc, #-0]	; 8fac <va_printk+0x144>
    8fa8:	04000001 	streq	r0, [r0], #-1
    8fac:	00000468 	andeq	r0, r0, r8, ror #8
    8fb0:	5d191605 	ldcpl	6, cr1, [r9, #-20]	; 0xffffffec
    8fb4:	10000000 	andne	r0, r0, r0
    8fb8:	000001b0 			; <UNDEFINED> instruction: 0x000001b0
    8fbc:	082f0518 	stmdaeq	pc!, {r3, r4, r8, sl}	; <UNPREDICTABLE>
    8fc0:	0000018f 	andeq	r0, r0, pc, lsl #3
    8fc4:	0003c40d 	andeq	ip, r3, sp, lsl #8
    8fc8:	13310500 	teqne	r1, #0, 10
    8fcc:	0000018f 	andeq	r0, r0, pc, lsl #3
    8fd0:	6b5f1100 	blvs	17cd3d8 <__bss_end__+0x17c3308>
    8fd4:	07320500 	ldreq	r0, [r2, -r0, lsl #10]!
    8fd8:	00000025 	andeq	r0, r0, r5, lsr #32
    8fdc:	04040d04 	streq	r0, [r4], #-3332	; 0xfffff2fc
    8fe0:	32050000 	andcc	r0, r5, #0
    8fe4:	0000250b 	andeq	r2, r0, fp, lsl #10
    8fe8:	990d0800 	stmdbls	sp, {fp}
    8fec:	05000001 	streq	r0, [r0, #-1]
    8ff0:	00251432 	eoreq	r1, r5, r2, lsr r4
    8ff4:	0d0c0000 	stceq	0, cr0, [ip, #-0]
    8ff8:	000004a8 	andeq	r0, r0, r8, lsr #9
    8ffc:	251b3205 	ldrcs	r3, [fp, #-517]	; 0xfffffdfb
    9000:	10000000 	andne	r0, r0, r0
    9004:	00785f11 	rsbseq	r5, r8, r1, lsl pc
    9008:	950b3305 	strls	r3, [fp, #-773]	; 0xfffffcfb
    900c:	14000001 	strne	r0, [r0], #-1
    9010:	35040500 	strcc	r0, [r4, #-1280]	; 0xfffffb00
    9014:	0a000001 	beq	9020 <va_printk+0x1b8>
    9018:	00000129 	andeq	r0, r0, r9, lsr #2
    901c:	000001a5 	andeq	r0, r0, r5, lsr #3
    9020:	00002c0b 	andeq	r2, r0, fp, lsl #24
    9024:	10000000 	andne	r0, r0, r0
    9028:	000001dd 	ldrdeq	r0, [r0], -sp
    902c:	08370524 	ldmdaeq	r7!, {r2, r5, r8, sl}
    9030:	00000228 	andeq	r0, r0, r8, lsr #4
    9034:	00009e0d 	andeq	r9, r0, sp, lsl #28
    9038:	09390500 	ldmdbeq	r9!, {r8, sl}
    903c:	00000025 	andeq	r0, r0, r5, lsr #32
    9040:	043e0d00 	ldrteq	r0, [lr], #-3328	; 0xfffff300
    9044:	3a050000 	bcc	14904c <__bss_end__+0x13ef7c>
    9048:	00002509 	andeq	r2, r0, r9, lsl #10
    904c:	c10d0400 	tstgt	sp, r0, lsl #8
    9050:	05000000 	streq	r0, [r0, #-0]
    9054:	0025093b 	eoreq	r0, r5, fp, lsr r9
    9058:	0d080000 	stceq	0, cr0, [r8, #-0]
    905c:	00000533 	andeq	r0, r0, r3, lsr r5
    9060:	25093c05 	strcs	r3, [r9, #-3077]	; 0xfffff3fb
    9064:	0c000000 	stceq	0, cr0, [r0], {-0}
    9068:	0002a10d 	andeq	sl, r2, sp, lsl #2
    906c:	093d0500 	ldmdbeq	sp!, {r8, sl}
    9070:	00000025 	andeq	r0, r0, r5, lsr #32
    9074:	02830d10 	addeq	r0, r3, #16, 26	; 0x400
    9078:	3e050000 	cdpcc	0, 0, cr0, cr5, cr0, {0}
    907c:	00002509 	andeq	r2, r0, r9, lsl #10
    9080:	ad0d1400 	cfstrsge	mvf1, [sp, #-0]
    9084:	05000004 	streq	r0, [r0, #-4]
    9088:	0025093f 	eoreq	r0, r5, pc, lsr r9
    908c:	0d180000 	ldceq	0, cr0, [r8, #-0]
    9090:	00000529 	andeq	r0, r0, r9, lsr #10
    9094:	25094005 	strcs	r4, [r9, #-5]
    9098:	1c000000 	stcne	0, cr0, [r0], {-0}
    909c:	0004f00d 	andeq	pc, r4, sp
    90a0:	09410500 	stmdbeq	r1, {r8, sl}^
    90a4:	00000025 	andeq	r0, r0, r5, lsr #32
    90a8:	01120020 	tsteq	r2, r0, lsr #32
    90ac:	08000001 	stmdaeq	r0, {r0}
    90b0:	084a0501 	stmdaeq	sl, {r0, r8, sl}^
    90b4:	0000026d 	andeq	r0, r0, sp, ror #4
    90b8:	00018c0d 	andeq	r8, r1, sp, lsl #24
    90bc:	0a4b0500 	beq	12ca4c4 <__bss_end__+0x12c03f4>
    90c0:	0000026d 	andeq	r0, r0, sp, ror #4
    90c4:	00000d00 	andeq	r0, r0, r0, lsl #26
    90c8:	4c050000 	stcmi	0, cr0, [r5], {-0}
    90cc:	00026d09 	andeq	r6, r2, r9, lsl #26
    90d0:	5a138000 	bpl	4e90d8 <__bss_end__+0x4df008>
    90d4:	05000004 	streq	r0, [r0, #-4]
    90d8:	01290a4e 			; <UNDEFINED> instruction: 0x01290a4e
    90dc:	01000000 	mrseq	r0, (UNDEF: 0)
    90e0:	00012613 	andeq	r2, r1, r3, lsl r6
    90e4:	0a510500 	beq	144a4ec <__bss_end__+0x144041c>
    90e8:	00000129 	andeq	r0, r0, r9, lsr #2
    90ec:	0a000104 	beq	9504 <gpio_write>
    90f0:	00000115 	andeq	r0, r0, r5, lsl r1
    90f4:	0000027d 	andeq	r0, r0, sp, ror r2
    90f8:	00002c0b 	andeq	r2, r0, fp, lsl #24
    90fc:	12001f00 	andne	r1, r0, #0, 30
    9100:	000002aa 	andeq	r0, r0, sl, lsr #5
    9104:	5d050190 	stfpls	f0, [r5, #-576]	; 0xfffffdc0
    9108:	0002c008 	andeq	ip, r2, r8
    910c:	03c40d00 	biceq	r0, r4, #0, 26
    9110:	5e050000 	cdppl	0, 0, cr0, cr5, cr0, {0}
    9114:	0002c012 	andeq	ip, r2, r2, lsl r0
    9118:	dc0d0000 	stcle	0, cr0, [sp], {-0}
    911c:	05000003 	streq	r0, [r0, #-3]
    9120:	0025065f 	eoreq	r0, r5, pc, asr r6
    9124:	0d040000 	stceq	0, cr0, [r4, #-0]
    9128:	00000194 	muleq	r0, r4, r1
    912c:	c6096105 	strgt	r6, [r9], -r5, lsl #2
    9130:	08000002 	stmdaeq	r0, {r1}
    9134:	0001010d 	andeq	r0, r1, sp, lsl #2
    9138:	1e620500 	cdpne	5, 6, cr0, cr2, cr0, {0}
    913c:	00000228 	andeq	r0, r0, r8, lsr #4
    9140:	04050088 	streq	r0, [r5], #-136	; 0xffffff78
    9144:	0000027d 	andeq	r0, r0, sp, ror r2
    9148:	0002d60a 	andeq	sp, r2, sl, lsl #12
    914c:	0002d600 	andeq	sp, r2, r0, lsl #12
    9150:	002c0b00 	eoreq	r0, ip, r0, lsl #22
    9154:	001f0000 	andseq	r0, pc, r0
    9158:	02dc0405 	sbcseq	r0, ip, #83886080	; 0x5000000
    915c:	10140000 	andsne	r0, r4, r0
    9160:	0000038f 	andeq	r0, r0, pc, lsl #7
    9164:	08750508 	ldmdaeq	r5!, {r3, r8, sl}^
    9168:	00000305 	andeq	r0, r0, r5, lsl #6
    916c:	0000bb0d 	andeq	fp, r0, sp, lsl #22
    9170:	11760500 	cmnne	r6, r0, lsl #10
    9174:	00000305 	andeq	r0, r0, r5, lsl #6
    9178:	001b0d00 	andseq	r0, fp, r0, lsl #26
    917c:	77050000 	strvc	r0, [r5, -r0]
    9180:	00002506 	andeq	r2, r0, r6, lsl #10
    9184:	05000400 	streq	r0, [r0, #-1024]	; 0xfffffc00
    9188:	00004f04 	andeq	r4, r0, r4, lsl #30
    918c:	03ae1000 			; <UNDEFINED> instruction: 0x03ae1000
    9190:	05680000 	strbeq	r0, [r8, #-0]!
    9194:	044e08b5 	strbeq	r0, [lr], #-2229	; 0xfffff74b
    9198:	5f110000 	svcpl	0x00110000
    919c:	b6050070 			; <UNDEFINED> instruction: 0xb6050070
    91a0:	00030512 	andeq	r0, r3, r2, lsl r5
    91a4:	5f110000 	svcpl	0x00110000
    91a8:	b7050072 	smlsdxlt	r5, r2, r0, r0
    91ac:	00002507 	andeq	r2, r0, r7, lsl #10
    91b0:	5f110400 	svcpl	0x00110400
    91b4:	b8050077 	stmdalt	r5, {r0, r1, r2, r4, r5, r6}
    91b8:	00002507 	andeq	r2, r0, r7, lsl #10
    91bc:	1f0d0800 	svcne	0x000d0800
    91c0:	05000001 	streq	r0, [r0, #-1]
    91c4:	003a09b9 	ldrhteq	r0, [sl], -r9
    91c8:	0d0c0000 	stceq	0, cr0, [ip, #-0]
    91cc:	00000208 	andeq	r0, r0, r8, lsl #4
    91d0:	3a09ba05 	bcc	2779ec <__bss_end__+0x26d91c>
    91d4:	0e000000 	cdpeq	0, 0, cr0, cr0, cr0, {0}
    91d8:	66625f11 	uqadd16vs	r5, r2, r1
    91dc:	11bb0500 			; <UNDEFINED> instruction: 0x11bb0500
    91e0:	000002dd 	ldrdeq	r0, [r0], -sp
    91e4:	007b0d10 	rsbseq	r0, fp, r0, lsl sp
    91e8:	bc050000 	stclt	0, cr0, [r5], {-0}
    91ec:	00002507 	andeq	r2, r0, r7, lsl #10
    91f0:	0f0d1800 	svceq	0x000d1800
    91f4:	05000001 	streq	r0, [r0, #-1]
    91f8:	01150ac3 	tsteq	r5, r3, asr #21
    91fc:	0d1c0000 	ldceq	0, cr0, [ip, #-0]
    9200:	00000b72 	andeq	r0, r0, r2, ror fp
    9204:	c01dc505 	andsgt	ip, sp, r5, lsl #10
    9208:	20000005 	andcs	r0, r0, r5
    920c:	0006360d 	andeq	r3, r6, sp, lsl #12
    9210:	1dc70500 	cfstr64ne	mvdx0, [r7]
    9214:	000005ea 	andeq	r0, r0, sl, ror #11
    9218:	04300d24 	ldrteq	r0, [r0], #-3364	; 0xfffff2dc
    921c:	ca050000 	bgt	149224 <__bss_end__+0x13f154>
    9220:	00060e0d 	andeq	r0, r6, sp, lsl #28
    9224:	0a0d2800 	beq	35322c <__bss_end__+0x34915c>
    9228:	05000005 	streq	r0, [r0, #-5]
    922c:	062809cb 	strteq	r0, [r8], -fp, asr #19
    9230:	112c0000 			; <UNDEFINED> instruction: 0x112c0000
    9234:	0062755f 	rsbeq	r7, r2, pc, asr r5
    9238:	dd11ce05 	ldcle	14, cr12, [r1, #-20]	; 0xffffffec
    923c:	30000002 	andcc	r0, r0, r2
    9240:	70755f11 	rsbsvc	r5, r5, r1, lsl pc
    9244:	12cf0500 	sbcne	r0, pc, #0, 10
    9248:	00000305 	andeq	r0, r0, r5, lsl #6
    924c:	755f1138 	ldrbvc	r1, [pc, #-312]	; 911c <clean_reboot+0x4>
    9250:	d0050072 	andle	r0, r5, r2, ror r0
    9254:	00002507 	andeq	r2, r0, r7, lsl #10
    9258:	b50d3c00 	strlt	r3, [sp, #-3072]	; 0xfffff400
    925c:	05000000 	streq	r0, [r0, #-0]
    9260:	062e11d3 			; <UNDEFINED> instruction: 0x062e11d3
    9264:	0d400000 	stcleq	0, cr0, [r0, #-0]
    9268:	000004e2 	andeq	r0, r0, r2, ror #9
    926c:	3e11d405 	cfmulscc	mvf13, mvf1, mvf5
    9270:	43000006 	movwmi	r0, #6
    9274:	626c5f11 	rsbvs	r5, ip, #17, 30	; 0x44
    9278:	11d70500 	bicsne	r0, r7, r0, lsl #10
    927c:	000002dd 	ldrdeq	r0, [r0], -sp
    9280:	013d0d44 	teqeq	sp, r4, asr #26
    9284:	da050000 	ble	14928c <__bss_end__+0x13f1bc>
    9288:	00002507 	andeq	r2, r0, r7, lsl #10
    928c:	4e0d4c00 	cdpmi	12, 0, cr4, cr13, cr0, {0}
    9290:	05000001 	streq	r0, [r0, #-1]
    9294:	00820adb 	ldrdeq	r0, [r2], fp
    9298:	0d500000 	ldcleq	0, cr0, [r0, #-0]
    929c:	00000b13 	andeq	r0, r0, r3, lsl fp
    92a0:	6c12de05 	ldcvs	14, cr13, [r2], {5}
    92a4:	54000004 	strpl	r0, [r0], #-4
    92a8:	0004220d 	andeq	r2, r4, sp, lsl #4
    92ac:	0ce20500 	cfstr64eq	mvdx0, [r2]
    92b0:	00000109 	andeq	r0, r0, r9, lsl #2
    92b4:	03b60d58 			; <UNDEFINED> instruction: 0x03b60d58
    92b8:	e4050000 	str	r0, [r5], #-0
    92bc:	0000fd0e 	andeq	pc, r0, lr, lsl #26
    92c0:	7b0d5c00 	blvc	3602c8 <__bss_end__+0x3561f8>
    92c4:	05000002 	streq	r0, [r0, #-2]
    92c8:	002509e5 	eoreq	r0, r5, r5, ror #19
    92cc:	00640000 	rsbeq	r0, r4, r0
    92d0:	00002515 	andeq	r2, r0, r5, lsl r5
    92d4:	00046c00 	andeq	r6, r4, r0, lsl #24
    92d8:	046c1600 	strbteq	r1, [ip], #-1536	; 0xfffffa00
    92dc:	15160000 	ldrne	r0, [r6, #-0]
    92e0:	16000001 	strne	r0, [r0], -r1
    92e4:	00000117 	andeq	r0, r0, r7, lsl r1
    92e8:	00002516 	andeq	r2, r0, r6, lsl r5
    92ec:	04050000 	streq	r0, [r5], #-0
    92f0:	00000477 	andeq	r0, r0, r7, ror r4
    92f4:	00046c0f 	andeq	r6, r4, pc, lsl #24
    92f8:	040c1700 	streq	r1, [ip], #-1792	; 0xfffff900
    92fc:	04280000 	strteq	r0, [r8], #-0
    9300:	08026005 	stmdaeq	r2, {r0, r2, sp, lr}
    9304:	000005c0 	andeq	r0, r0, r0, asr #11
    9308:	00037018 	andeq	r7, r3, r8, lsl r0
    930c:	02620500 	rsbeq	r0, r2, #0, 10
    9310:	00002507 	andeq	r2, r0, r7, lsl #10
    9314:	2e180000 	cdpcs	0, 1, cr0, cr8, cr0, {0}
    9318:	05000001 	streq	r0, [r0, #-1]
    931c:	9a0b0267 	bls	2c9cc0 <__bss_end__+0x2bfbf0>
    9320:	04000006 	streq	r0, [r0], #-6
    9324:	0001f818 	andeq	pc, r1, r8, lsl r8	; <UNPREDICTABLE>
    9328:	02670500 	rsbeq	r0, r7, #0, 10
    932c:	00069a14 	andeq	r9, r6, r4, lsl sl
    9330:	a8180800 	ldmdage	r8, {fp}
    9334:	05000001 	streq	r0, [r0, #-1]
    9338:	9a1e0267 	bls	789cdc <__bss_end__+0x77fc0c>
    933c:	0c000006 	stceq	0, cr0, [r0], {6}
    9340:	0003d718 	andeq	sp, r3, r8, lsl r7
    9344:	02690500 	rsbeq	r0, r9, #0, 10
    9348:	00002508 	andeq	r2, r0, r8, lsl #10
    934c:	29181000 	ldmdbcs	r8, {ip}
    9350:	05000000 	streq	r0, [r0, #-0]
    9354:	9a08026a 	bls	209d04 <__bss_end__+0x1ffc34>
    9358:	14000008 	strne	r0, [r0], #-8
    935c:	0003eb18 	andeq	lr, r3, r8, lsl fp
    9360:	026d0500 	rsbeq	r0, sp, #0, 10
    9364:	00002507 	andeq	r2, r0, r7, lsl #10
    9368:	4f183000 	svcmi	0x00183000
    936c:	0500000a 	streq	r0, [r0, #-10]
    9370:	af16026e 	svcge	0x0016026e
    9374:	34000008 	strcc	r0, [r0], #-8
    9378:	0002b218 	andeq	fp, r2, r8, lsl r2
    937c:	02700500 	rsbseq	r0, r0, #0, 10
    9380:	00002507 	andeq	r2, r0, r7, lsl #10
    9384:	e1183800 	tst	r8, r0, lsl #16
    9388:	05000003 	streq	r0, [r0, #-3]
    938c:	c00a0272 	andgt	r0, sl, r2, ror r2
    9390:	3c000008 	stccc	0, cr0, [r0], {8}
    9394:	00025718 	andeq	r5, r2, r8, lsl r7
    9398:	02750500 	rsbseq	r0, r5, #0, 10
    939c:	00018f13 	andeq	r8, r1, r3, lsl pc
    93a0:	c7184000 	ldrgt	r4, [r8, -r0]
    93a4:	05000001 	streq	r0, [r0, #-1]
    93a8:	25070276 	strcs	r0, [r7, #-630]	; 0xfffffd8a
    93ac:	44000000 	strmi	r0, [r0], #-0
    93b0:	00052418 	andeq	r2, r5, r8, lsl r4
    93b4:	02770500 	rsbseq	r0, r7, #0, 10
    93b8:	00018f13 	andeq	r8, r1, r3, lsl pc
    93bc:	c4184800 	ldrgt	r4, [r8], #-2048	; 0xfffff800
    93c0:	05000002 	streq	r0, [r0, #-2]
    93c4:	c6140278 			; <UNDEFINED> instruction: 0xc6140278
    93c8:	4c000008 	stcmi	0, cr0, [r0], {8}
    93cc:	00020018 	andeq	r0, r2, r8, lsl r0
    93d0:	027b0500 	rsbseq	r0, fp, #0, 10
    93d4:	00002507 	andeq	r2, r0, r7, lsl #10
    93d8:	46185000 	ldrmi	r5, [r8], -r0
    93dc:	05000001 	streq	r0, [r0, #-1]
    93e0:	1709027c 	smlsdxne	r9, ip, r2, r0
    93e4:	54000001 	strpl	r0, [r0], #-1
    93e8:	0002ea18 	andeq	lr, r2, r8, lsl sl
    93ec:	029f0500 	addseq	r0, pc, #0, 10
    93f0:	00087507 	andeq	r7, r8, r7, lsl #10
    93f4:	aa195800 	bge	65f3fc <__bss_end__+0x65532c>
    93f8:	05000002 	streq	r0, [r0, #-2]
    93fc:	c01302a3 	andsgt	r0, r3, r3, lsr #5
    9400:	48000002 	stmdami	r0, {r1}
    9404:	02351901 	eorseq	r1, r5, #16384	; 0x4000
    9408:	a4050000 	strge	r0, [r5], #-0
    940c:	027d1202 	rsbseq	r1, sp, #536870912	; 0x20000000
    9410:	014c0000 	mrseq	r0, (UNDEF: 76)
    9414:	0004d019 	andeq	sp, r4, r9, lsl r0
    9418:	02a80500 	adceq	r0, r8, #0, 10
    941c:	0008d70c 	andeq	sp, r8, ip, lsl #14
    9420:	1902dc00 	stmdbne	r2, {sl, fp, ip, lr, pc}
    9424:	00000117 	andeq	r0, r0, r7, lsl r1
    9428:	1002ad05 	andne	sl, r2, r5, lsl #26
    942c:	0000065b 	andeq	r0, r0, fp, asr r6
    9430:	fc1902e0 	ldc2	2, cr0, [r9], {224}	; 0xe0
    9434:	05000000 	streq	r0, [r0, #-0]
    9438:	e30a02af 	movw	r0, #41647	; 0xa2af
    943c:	ec000008 	stc	0, cr0, [r0], {8}
    9440:	04050002 	streq	r0, [r5], #-2
    9444:	0000044e 	andeq	r0, r0, lr, asr #8
    9448:	00002515 	andeq	r2, r0, r5, lsl r5
    944c:	0005e400 	andeq	lr, r5, r0, lsl #8
    9450:	046c1600 	strbteq	r1, [ip], #-1536	; 0xfffffa00
    9454:	15160000 	ldrne	r0, [r6, #-0]
    9458:	16000001 	strne	r0, [r0], -r1
    945c:	000005e4 	andeq	r0, r0, r4, ror #11
    9460:	00002516 	andeq	r2, r0, r6, lsl r5
    9464:	04050000 	streq	r0, [r5], #-0
    9468:	00000124 	andeq	r0, r0, r4, lsr #2
    946c:	05c60405 	strbeq	r0, [r6, #1029]	; 0x405
    9470:	8e150000 	cdphi	0, 1, cr0, cr5, cr0, {0}
    9474:	0e000000 	cdpeq	0, 0, cr0, cr0, cr0, {0}
    9478:	16000006 	strne	r0, [r0], -r6
    947c:	0000046c 	andeq	r0, r0, ip, ror #8
    9480:	00011516 	andeq	r1, r1, r6, lsl r5
    9484:	008e1600 	addeq	r1, lr, r0, lsl #12
    9488:	25160000 	ldrcs	r0, [r6, #-0]
    948c:	00000000 	andeq	r0, r0, r0
    9490:	05f00405 	ldrbeq	r0, [r0, #1029]!	; 0x405
    9494:	25150000 	ldrcs	r0, [r5, #-0]
    9498:	28000000 	stmdacs	r0, {}	; <UNPREDICTABLE>
    949c:	16000006 	strne	r0, [r0], -r6
    94a0:	0000046c 	andeq	r0, r0, ip, ror #8
    94a4:	00011516 	andeq	r1, r1, r6, lsl r5
    94a8:	04050000 	streq	r0, [r5], #-0
    94ac:	00000614 	andeq	r0, r0, r4, lsl r6
    94b0:	00004f0a 	andeq	r4, r0, sl, lsl #30
    94b4:	00063e00 	andeq	r3, r6, r0, lsl #28
    94b8:	002c0b00 	eoreq	r0, ip, r0, lsl #22
    94bc:	00020000 	andeq	r0, r2, r0
    94c0:	00004f0a 	andeq	r4, r0, sl, lsl #30
    94c4:	00064e00 	andeq	r4, r6, r0, lsl #28
    94c8:	002c0b00 	eoreq	r0, ip, r0, lsl #22
    94cc:	00000000 	andeq	r0, r0, r0
    94d0:	00039c07 	andeq	r9, r3, r7, lsl #24
    94d4:	011f0500 	tsteq	pc, r0, lsl #10
    94d8:	00030b1a 	andeq	r0, r3, sl, lsl fp
    94dc:	04b71a00 	ldrteq	r1, [r7], #2560	; 0xa00
    94e0:	050c0000 	streq	r0, [ip, #-0]
    94e4:	94080123 	strls	r0, [r8], #-291	; 0xfffffedd
    94e8:	18000006 	stmdane	r0, {r1, r2}
    94ec:	000003c4 	andeq	r0, r0, r4, asr #7
    94f0:	11012505 	tstne	r1, r5, lsl #10
    94f4:	00000694 	muleq	r0, r4, r6
    94f8:	021b1800 	andseq	r1, fp, #0, 16
    94fc:	26050000 	strcs	r0, [r5], -r0
    9500:	00250701 	eoreq	r0, r5, r1, lsl #14
    9504:	18040000 	stmdane	r4, {}	; <UNPREDICTABLE>
    9508:	00000396 	muleq	r0, r6, r3
    950c:	0b012705 	bleq	53128 <__bss_end__+0x49058>
    9510:	0000069a 	muleq	r0, sl, r6
    9514:	04050008 	streq	r0, [r5], #-8
    9518:	0000065b 	andeq	r0, r0, fp, asr r6
    951c:	064e0405 	strbeq	r0, [lr], -r5, lsl #8
    9520:	211a0000 	tstcs	sl, r0
    9524:	0e000000 	cdpeq	0, 0, cr0, cr0, cr0, {0}
    9528:	08013f05 	stmdaeq	r1, {r0, r2, r8, r9, sl, fp, ip, sp}
    952c:	000006d9 	ldrdeq	r0, [r0], -r9
    9530:	00041318 	andeq	r1, r4, r8, lsl r3
    9534:	01400500 	cmpeq	r0, r0, lsl #10
    9538:	0006d912 	andeq	sp, r6, r2, lsl r9
    953c:	47180000 	ldrmi	r0, [r8, -r0]
    9540:	05000004 	streq	r0, [r0, #-4]
    9544:	d9120141 	ldmdble	r2, {r0, r6, r8}
    9548:	06000006 	streq	r0, [r0], -r6
    954c:	00046318 	andeq	r6, r4, r8, lsl r3
    9550:	01420500 	cmpeq	r2, r0, lsl #10
    9554:	00005612 	andeq	r5, r0, r2, lsl r6
    9558:	0a000c00 	beq	c560 <__bss_end__+0x2490>
    955c:	00000056 	andeq	r0, r0, r6, asr r0
    9560:	000006e9 	andeq	r0, r0, r9, ror #13
    9564:	00002c0b 	andeq	r2, r0, fp, lsl #24
    9568:	1b000200 	blne	9d70 <buf.4297+0xa4>
    956c:	028005d0 	addeq	r0, r0, #208, 10	; 0x34000000
    9570:	0007fe07 	andeq	pc, r7, r7, lsl #28
    9574:	049b1800 	ldreq	r1, [fp], #2048	; 0x800
    9578:	82050000 	andhi	r0, r5, #0
    957c:	002c1802 	eoreq	r1, ip, r2, lsl #16
    9580:	18000000 	stmdane	r0, {}	; <UNPREDICTABLE>
    9584:	0000044d 	andeq	r0, r0, sp, asr #8
    9588:	12028305 	andne	r8, r2, #335544320	; 0x14000000
    958c:	00000117 	andeq	r0, r0, r7, lsl r1
    9590:	024a1804 	subeq	r1, sl, #4, 16	; 0x40000
    9594:	84050000 	strhi	r0, [r5], #-0
    9598:	07fe1002 	ldrbeq	r1, [lr, r2]!
    959c:	18080000 	stmdane	r8, {}	; <UNPREDICTABLE>
    95a0:	000004fb 	strdeq	r0, [r0], -fp
    95a4:	17028505 	strne	r8, [r2, -r5, lsl #10]
    95a8:	000001a5 	andeq	r0, r0, r5, lsr #3
    95ac:	01b81824 			; <UNDEFINED> instruction: 0x01b81824
    95b0:	86050000 	strhi	r0, [r5], -r0
    95b4:	00250f02 	eoreq	r0, r5, r2, lsl #30
    95b8:	18480000 	stmdane	r8, {}^	; <UNPREDICTABLE>
    95bc:	000003bf 			; <UNDEFINED> instruction: 0x000003bf
    95c0:	2c028705 	stccs	7, cr8, [r2], {5}
    95c4:	00000064 	andeq	r0, r0, r4, rrx
    95c8:	05111850 	ldreq	r1, [r1, #-2128]	; 0xfffff7b0
    95cc:	88050000 	stmdahi	r5, {}	; <UNPREDICTABLE>
    95d0:	06a01a02 	strteq	r1, [r0], r2, lsl #20
    95d4:	18580000 	ldmdane	r8, {}^	; <UNPREDICTABLE>
    95d8:	000003ca 	andeq	r0, r0, sl, asr #7
    95dc:	16028905 	strne	r8, [r2], -r5, lsl #18
    95e0:	000000fd 	strdeq	r0, [r0], -sp
    95e4:	05161868 	ldreq	r1, [r6, #-2152]	; 0xfffff798
    95e8:	8a050000 	bhi	1495f0 <__bss_end__+0x13f520>
    95ec:	00fd1602 	rscseq	r1, sp, r2, lsl #12
    95f0:	18700000 	ldmdane	r0!, {}^	; <UNPREDICTABLE>
    95f4:	000002ce 	andeq	r0, r0, lr, asr #5
    95f8:	16028b05 	strne	r8, [r2], -r5, lsl #22
    95fc:	000000fd 	strdeq	r0, [r0], -sp
    9600:	04c61878 	strbeq	r1, [r6], #2168	; 0x878
    9604:	8c050000 	stchi	0, cr0, [r5], {-0}
    9608:	080e1002 	stmdaeq	lr, {r1, ip}
    960c:	18800000 	stmne	r0, {}	; <UNPREDICTABLE>
    9610:	0000023e 	andeq	r0, r0, lr, lsr r2
    9614:	10028d05 	andne	r8, r2, r5, lsl #26
    9618:	0000081e 	andeq	r0, r0, lr, lsl r8
    961c:	04701888 	ldrbteq	r1, [r0], #-2184	; 0xfffff778
    9620:	8e050000 	cdphi	0, 0, cr0, cr5, cr0, {0}
    9624:	00250f02 	eoreq	r0, r5, r2, lsl #30
    9628:	18a00000 	stmiane	r0!, {}	; <UNPREDICTABLE>
    962c:	0000017e 	andeq	r0, r0, lr, ror r1
    9630:	16028f05 	strne	r8, [r2], -r5, lsl #30
    9634:	000000fd 	strdeq	r0, [r0], -sp
    9638:	008f18a4 	addeq	r1, pc, r4, lsr #17
    963c:	90050000 	andls	r0, r5, r0
    9640:	00fd1602 	rscseq	r1, sp, r2, lsl #12
    9644:	18ac0000 	stmiane	ip!, {}	; <UNPREDICTABLE>
    9648:	0000016d 	andeq	r0, r0, sp, ror #2
    964c:	16029105 	strne	r9, [r2], -r5, lsl #2
    9650:	000000fd 	strdeq	r0, [r0], -sp
    9654:	003c18b4 	ldrhteq	r1, [ip], -r4
    9658:	92050000 	andls	r0, r5, #0
    965c:	00fd1602 	rscseq	r1, sp, r2, lsl #12
    9660:	18bc0000 	ldmne	ip!, {}	; <UNPREDICTABLE>
    9664:	0000004b 	andeq	r0, r0, fp, asr #32
    9668:	16029305 	strne	r9, [r2], -r5, lsl #6
    966c:	000000fd 	strdeq	r0, [r0], -sp
    9670:	036e18c4 	cmneq	lr, #196, 16	; 0xc40000
    9674:	94050000 	strls	r0, [r5], #-0
    9678:	00250802 	eoreq	r0, r5, r2, lsl #16
    967c:	00cc0000 	sbceq	r0, ip, r0
    9680:	00011d0a 	andeq	r1, r1, sl, lsl #26
    9684:	00080e00 	andeq	r0, r8, r0, lsl #28
    9688:	002c0b00 	eoreq	r0, ip, r0, lsl #22
    968c:	00190000 	andseq	r0, r9, r0
    9690:	00011d0a 	andeq	r1, r1, sl, lsl #26
    9694:	00081e00 	andeq	r1, r8, r0, lsl #28
    9698:	002c0b00 	eoreq	r0, ip, r0, lsl #22
    969c:	00070000 	andeq	r0, r7, r0
    96a0:	00011d0a 	andeq	r1, r1, sl, lsl #26
    96a4:	00082e00 	andeq	r2, r8, r0, lsl #28
    96a8:	002c0b00 	eoreq	r0, ip, r0, lsl #22
    96ac:	00170000 	andseq	r0, r7, r0
    96b0:	9905f01b 	stmdbls	r5, {r0, r1, r3, r4, ip, sp, lr, pc}
    96b4:	08550702 	ldmdaeq	r5, {r1, r8, r9, sl}^
    96b8:	9a180000 	bls	6096c0 <__bss_end__+0x5ff5f0>
    96bc:	05000002 	streq	r0, [r0, #-2]
    96c0:	551b029c 	ldrpl	r0, [fp, #-668]	; 0xfffffd64
    96c4:	00000008 	andeq	r0, r0, r8
    96c8:	0004bd18 	andeq	fp, r4, r8, lsl sp
    96cc:	029d0500 	addseq	r0, sp, #0, 10
    96d0:	00086518 	andeq	r6, r8, r8, lsl r5
    96d4:	0a007800 	beq	276dc <__bss_end__+0x1d60c>
    96d8:	00000305 	andeq	r0, r0, r5, lsl #6
    96dc:	00000865 	andeq	r0, r0, r5, ror #16
    96e0:	00002c0b 	andeq	r2, r0, fp, lsl #24
    96e4:	0a001d00 	beq	10aec <__bss_end__+0x6a1c>
    96e8:	0000002c 	andeq	r0, r0, ip, lsr #32
    96ec:	00000875 	andeq	r0, r0, r5, ror r8
    96f0:	00002c0b 	andeq	r2, r0, fp, lsl #24
    96f4:	1c001d00 	stcne	13, cr1, [r0], {-0}
    96f8:	027e05f0 	rsbseq	r0, lr, #240, 10	; 0x3c000000
    96fc:	00089a03 	andeq	r9, r8, r3, lsl #20
    9700:	040c1d00 	streq	r1, [ip], #-3328	; 0xfffff300
    9704:	95050000 	strls	r0, [r5, #-0]
    9708:	06e90b02 	strbteq	r0, [r9], r2, lsl #22
    970c:	e81d0000 	ldmda	sp, {}	; <UNPREDICTABLE>
    9710:	05000004 	streq	r0, [r0, #-4]
    9714:	2e0b029e 	mcrcs	2, 0, r0, cr11, cr14, {4}
    9718:	00000008 	andeq	r0, r0, r8
    971c:	00011d0a 	andeq	r1, r1, sl, lsl #26
    9720:	0008aa00 	andeq	sl, r8, r0, lsl #20
    9724:	002c0b00 	eoreq	r0, ip, r0, lsl #22
    9728:	00180000 	andseq	r0, r8, r0
    972c:	00008406 	andeq	r8, r0, r6, lsl #8
    9730:	aa040500 	bge	10ab38 <__bss_end__+0x100a68>
    9734:	1e000008 	cdpne	0, 0, cr0, cr0, cr8, {0}
    9738:	000008c0 	andeq	r0, r0, r0, asr #17
    973c:	00046c16 	andeq	r6, r4, r6, lsl ip
    9740:	04050000 	streq	r0, [r5], #-0
    9744:	000008b5 			; <UNDEFINED> instruction: 0x000008b5
    9748:	018f0405 	orreq	r0, pc, r5, lsl #8
    974c:	d71e0000 	ldrle	r0, [lr, -r0]
    9750:	16000008 	strne	r0, [r0], -r8
    9754:	00000025 	andeq	r0, r0, r5, lsr #32
    9758:	dd040500 	cfstr32le	mvfx0, [r4, #-0]
    975c:	05000008 	streq	r0, [r0, #-8]
    9760:	0008cc04 	andeq	ip, r8, r4, lsl #24
    9764:	064e0a00 	strbeq	r0, [lr], -r0, lsl #20
    9768:	08f30000 	ldmeq	r3!, {}^	; <UNPREDICTABLE>
    976c:	2c0b0000 	stccs	0, cr0, [fp], {-0}
    9770:	02000000 	andeq	r0, r0, #0
    9774:	04841f00 	streq	r1, [r4], #3840	; 0xf00
    9778:	2e050000 	cdpcs	0, 0, cr0, cr5, cr0, {0}
    977c:	046c1703 	strbteq	r1, [ip], #-1795	; 0xfffff8fd
    9780:	7d1f0000 	ldcvc	0, cr0, [pc, #-0]	; 9788 <__FUNCTION__.4337+0x4>
    9784:	05000004 	streq	r0, [r0, #-4]
    9788:	721d032f 	andsvc	r0, sp, #-1140850688	; 0xbc000000
    978c:	15000004 	strne	r0, [r0, #-4]
    9790:	00000025 	andeq	r0, r0, r5, lsr #32
    9794:	0000091c 	andeq	r0, r0, ip, lsl r9
    9798:	00002516 	andeq	r2, r0, r6, lsl r5
    979c:	d1200000 			; <UNDEFINED> instruction: 0xd1200000
    97a0:	06000001 	streq	r0, [r0], -r1
    97a4:	09280e1d 	stmdbeq	r8!, {r0, r2, r3, r4, r9, sl, fp}
    97a8:	04050000 	streq	r0, [r5], #-0
    97ac:	0000090d 	andeq	r0, r0, sp, lsl #18
    97b0:	00002515 	andeq	r2, r0, r5, lsl r5
    97b4:	00093d00 	andeq	r3, r9, r0, lsl #26
    97b8:	05e41600 	strbeq	r1, [r4, #1536]!	; 0x600
    97bc:	20000000 	andcs	r0, r0, r0
    97c0:	0000078c 	andeq	r0, r0, ip, lsl #15
    97c4:	490e2206 	stmdbmi	lr, {r1, r2, r9, sp}
    97c8:	05000009 	streq	r0, [r0, #-9]
    97cc:	00092e04 	andeq	r2, r9, r4, lsl #28
    97d0:	090a2100 	stmdbeq	sl, {r8, sp}
    97d4:	2b010000 	blcs	497dc <__bss_end__+0x3f70c>
    97d8:	00925806 	addseq	r5, r2, r6, lsl #16
    97dc:	00001800 	andeq	r1, r0, r0, lsl #16
    97e0:	999c0100 	ldmibls	ip, {r8}
    97e4:	22000009 	andcs	r0, r0, #9
    97e8:	00636573 	rsbeq	r6, r3, r3, ror r5
    97ec:	2c192b01 			; <UNDEFINED> instruction: 0x2c192b01
    97f0:	3d000000 	stccc	0, cr0, [r0, #-0]
    97f4:	39000013 	stmdbcc	r0, {r0, r1, r4}
    97f8:	23000013 	movwcs	r0, #19
    97fc:	0000926c 	andeq	r9, r0, ip, ror #4
    9800:	00000999 	muleq	r0, r9, r9
    9804:	11500124 	cmpne	r0, r4, lsr #2
    9808:	355001f3 	ldrbcc	r0, [r0, #-499]	; 0xfffffe0d
    980c:	5001f324 	andpl	pc, r1, r4, lsr #6
    9810:	f324321c 	vqsub.u32	d3, d4, d12
    9814:	33225001 			; <UNDEFINED> instruction: 0x33225001
    9818:	21000024 	tstcs	r0, r4, lsr #32
    981c:	0000083a 	andeq	r0, r0, sl, lsr r8
    9820:	40062801 	andmi	r2, r6, r1, lsl #16
    9824:	18000092 	stmdane	r0, {r1, r4, r7}
    9828:	01000000 	mrseq	r0, (UNDEF: 0)
    982c:	0009e29c 	muleq	r9, ip, r2
    9830:	736d2200 	cmnvc	sp, #0, 4
    9834:	18280100 	stmdane	r8!, {r8}
    9838:	0000002c 	andeq	r0, r0, ip, lsr #32
    983c:	00001362 	andeq	r1, r0, r2, ror #6
    9840:	0000135e 	andeq	r1, r0, lr, asr r3
    9844:	00925423 	addseq	r5, r2, r3, lsr #8
    9848:	0009e200 	andeq	lr, r9, r0, lsl #4
    984c:	50012400 	andpl	r2, r1, r0, lsl #8
    9850:	5001f311 	andpl	pc, r1, r1, lsl r3	; <UNPREDICTABLE>
    9854:	01f32435 	mvnseq	r2, r5, lsr r4
    9858:	24321c50 	ldrtcs	r1, [r2], #-3152	; 0xfffff3b0
    985c:	225001f3 	subscs	r0, r0, #-1073741764	; 0xc000003c
    9860:	00002433 	andeq	r2, r0, r3, lsr r4
    9864:	00095221 	andeq	r5, r9, r1, lsr #4
    9868:	061f0100 	ldreq	r0, [pc], -r0, lsl #2
    986c:	0000921c 	andeq	r9, r0, ip, lsl r2
    9870:	00000024 	andeq	r0, r0, r4, lsr #32
    9874:	0a529c01 	beq	14b0880 <__bss_end__+0x14a67b0>
    9878:	75220000 	strvc	r0, [r2, #-0]!
    987c:	1f010073 	svcne	0x00010073
    9880:	00002c18 	andeq	r2, r0, r8, lsl ip
    9884:	00138700 	andseq	r8, r3, r0, lsl #14
    9888:	00138300 	andseq	r8, r3, r0, lsl #6
    988c:	62722500 	rsbsvs	r2, r2, #0, 10
    9890:	0e200100 	sufeqs	f0, f0, f0
    9894:	0000002c 	andeq	r0, r0, ip, lsr #32
    9898:	000013a7 	andeq	r1, r0, r7, lsr #7
    989c:	000013a5 	andeq	r1, r0, r5, lsr #7
    98a0:	00922c26 	addseq	r2, r2, r6, lsr #24
    98a4:	00001400 	andeq	r1, r0, r0, lsl #8
    98a8:	000a4800 	andeq	r4, sl, r0, lsl #16
    98ac:	61722500 	cmnvs	r2, r0, lsl #10
    98b0:	12220100 	eorne	r0, r2, #0, 2
    98b4:	0000002c 	andeq	r0, r0, ip, lsr #32
    98b8:	000013bc 			; <UNDEFINED> instruction: 0x000013bc
    98bc:	000013ba 			; <UNDEFINED> instruction: 0x000013ba
    98c0:	00923027 	addseq	r3, r2, r7, lsr #32
    98c4:	000a5200 	andeq	r5, sl, r0, lsl #4
    98c8:	28270000 	stmdacs	r7!, {}	; <UNPREDICTABLE>
    98cc:	52000092 	andpl	r0, r0, #146	; 0x92
    98d0:	0000000a 	andeq	r0, r0, sl
    98d4:	0008fb28 	andeq	pc, r8, r8, lsr #22
    98d8:	0a160100 	beq	589ce0 <__bss_end__+0x57fc10>
    98dc:	0000002c 	andeq	r0, r0, ip, lsr #32
    98e0:	00009210 	andeq	r9, r0, r0, lsl r2
    98e4:	0000000c 	andeq	r0, r0, ip
    98e8:	0a889c01 	beq	fe2308f4 <__bss_end__+0xfe226824>
    98ec:	75250000 	strvc	r0, [r5, #-0]!
    98f0:	0e1a0100 	mufeqe	f0, f2, f0
    98f4:	0000002c 	andeq	r0, r0, ip, lsr #32
    98f8:	000013d1 	ldrdeq	r1, [r0], -r1	; <UNPREDICTABLE>
    98fc:	000013cf 	andeq	r1, r0, pc, asr #7
    9900:	00921827 	addseq	r1, r2, r7, lsr #16
    9904:	000a8800 	andeq	r8, sl, r0, lsl #16
    9908:	3f280000 	svccc	0x00280000
    990c:	01000009 	tsteq	r0, r9
    9910:	002c0a11 	eoreq	r0, ip, r1, lsl sl
    9914:	91fc0000 	mvnsls	r0, r0
    9918:	00140000 	andseq	r0, r4, r0
    991c:	9c010000 	stcls	0, cr0, [r1], {-0}
    9920:	00000ab6 			; <UNDEFINED> instruction: 0x00000ab6
    9924:	00920823 	addseq	r0, r2, r3, lsr #16
    9928:	000ae100 	andeq	lr, sl, r0, lsl #2
    992c:	50012400 	andpl	r2, r1, r0, lsl #8
    9930:	30040c05 	andcc	r0, r4, r5, lsl #24
    9934:	00002000 	andeq	r2, r0, r0
    9938:	00091421 	andeq	r1, r9, r1, lsr #8
    993c:	06050100 	streq	r0, [r5], -r0, lsl #2
    9940:	000091e4 	andeq	r9, r0, r4, ror #3
    9944:	00000018 	andeq	r0, r0, r8, lsl r0
    9948:	0ae19c01 	beq	ff870954 <__bss_end__+0xff866884>
    994c:	33290000 			; <UNDEFINED> instruction: 0x33290000
    9950:	01000009 	tsteq	r0, r9
    9954:	002c1c05 	eoreq	r1, ip, r5, lsl #24
    9958:	13e80000 	mvnne	r0, #0
    995c:	13e40000 	mvnne	r0, #0
    9960:	2a000000 	bcs	9968 <__FUNCTION__.4337+0x1e4>
    9964:	00000939 	andeq	r0, r0, r9, lsr r9
    9968:	00000939 	andeq	r0, r0, r9, lsr r9
    996c:	000aa706 	andeq	sl, sl, r6, lsl #14
    9970:	00000cc5 	andeq	r0, r0, r5, asr #25
    9974:	1efd0004 	cdpne	0, 15, cr0, cr13, cr4, {0}
    9978:	01040000 	mrseq	r0, (UNDEF: 4)
    997c:	00000a6a 	andeq	r0, r0, sl, ror #20
    9980:	00098e0c 	andeq	r8, r9, ip, lsl #28
    9984:	0009a100 	andeq	sl, r9, r0, lsl #2
    9988:	0092bc00 	addseq	fp, r2, r0, lsl #24
    998c:	00017800 	andeq	r7, r1, r0, lsl #16
    9990:	0019f200 	andseq	pc, r9, r0, lsl #4
    9994:	05040200 	streq	r0, [r4, #-512]	; 0xfffffe00
    9998:	00746e69 	rsbseq	r6, r4, r9, ror #28
    999c:	66070403 	strvs	r0, [r7], -r3, lsl #8
    99a0:	04000000 	streq	r0, [r0], #-0
    99a4:	0000002c 	andeq	r0, r0, ip, lsr #32
    99a8:	de060103 	adfles	f0, f6, f3
    99ac:	03000002 	movweq	r0, #2
    99b0:	03770502 	cmneq	r7, #8388608	; 0x800000
    99b4:	04030000 	streq	r0, [r3], #-0
    99b8:	0000ac05 	andeq	sl, r0, r5, lsl #24
    99bc:	05080300 	streq	r0, [r8, #-768]	; 0xfffffd00
    99c0:	000000a7 	andeq	r0, r0, r7, lsr #1
    99c4:	dc080103 	stfles	f0, [r8], {3}
    99c8:	03000002 	movweq	r0, #2
    99cc:	02220702 	eoreq	r0, r2, #524288	; 0x80000
    99d0:	04030000 	streq	r0, [r3], #-0
    99d4:	00006107 	andeq	r6, r0, r7, lsl #2
    99d8:	07080300 	streq	r0, [r8, -r0, lsl #6]
    99dc:	0000005c 	andeq	r0, r0, ip, asr r0
    99e0:	000a3505 	andeq	r3, sl, r5, lsl #10
    99e4:	25070200 	strcs	r0, [r7, #-512]	; 0xfffffe00
    99e8:	05000000 	streq	r0, [r0, #-0]
    99ec:	000002bd 			; <UNDEFINED> instruction: 0x000002bd
    99f0:	00462c03 	subeq	r2, r6, r3, lsl #24
    99f4:	36050000 	strcc	r0, [r5], -r0
    99f8:	03000004 	movweq	r0, #4
    99fc:	00004672 	andeq	r4, r0, r2, ror r6
    9a00:	026d0600 	rsbeq	r0, sp, #0, 12
    9a04:	65040000 	strvs	r0, [r4, #-0]
    9a08:	00002c01 	andeq	r2, r0, r1, lsl #24
    9a0c:	03040700 	movweq	r0, #18176	; 0x4700
    9a10:	0000bca6 	andeq	fp, r0, r6, lsr #25
    9a14:	025f0800 	subseq	r0, pc, #0, 16
    9a18:	a8030000 	stmdage	r3, {}	; <UNPREDICTABLE>
    9a1c:	00000091 	muleq	r0, r1, r0
    9a20:	0001e208 	andeq	lr, r1, r8, lsl #4
    9a24:	bca90300 	stclt	3, cr0, [r9]
    9a28:	00000000 	andeq	r0, r0, r0
    9a2c:	00005409 	andeq	r5, r0, r9, lsl #8
    9a30:	0000cc00 	andeq	ip, r0, r0, lsl #24
    9a34:	00cc0a00 	sbceq	r0, ip, r0, lsl #20
    9a38:	00030000 	andeq	r0, r3, r0
    9a3c:	15070403 	strne	r0, [r7, #-1027]	; 0xfffffbfd
    9a40:	0b00000a 	bleq	9a70 <__FUNCTION__.4337+0x2ec>
    9a44:	f4a30308 	vld4.8	{d0[0],d1[0],d2[0],d3[0]}, [r3], r8
    9a48:	0c000000 	stceq	0, cr0, [r0], {-0}
    9a4c:	00000419 	andeq	r0, r0, r9, lsl r4
    9a50:	0025a503 	eoreq	sl, r5, r3, lsl #10
    9a54:	0c000000 	stceq	0, cr0, [r0], {-0}
    9a58:	00000428 	andeq	r0, r0, r8, lsr #8
    9a5c:	009daa03 	addseq	sl, sp, r3, lsl #20
    9a60:	00040000 	andeq	r0, r4, r0
    9a64:	0003a305 	andeq	sl, r3, r5, lsl #6
    9a68:	d3ab0300 			; <UNDEFINED> instruction: 0xd3ab0300
    9a6c:	05000000 	streq	r0, [r0, #-0]
    9a70:	0000019f 	muleq	r0, pc, r1	; <UNPREDICTABLE>
    9a74:	0070af03 	rsbseq	sl, r0, r3, lsl #30
    9a78:	040d0000 	streq	r0, [sp], #-0
    9a7c:	0112040e 	tsteq	r2, lr, lsl #8
    9a80:	01030000 	mrseq	r0, (UNDEF: 3)
    9a84:	0002e508 	andeq	lr, r2, r8, lsl #10
    9a88:	01120f00 	tsteq	r2, r0, lsl #30
    9a8c:	68050000 	stmdavs	r5, {}	; <UNPREDICTABLE>
    9a90:	05000004 	streq	r0, [r0, #-4]
    9a94:	00006216 	andeq	r6, r0, r6, lsl r2
    9a98:	01b01000 	movseq	r1, r0
    9a9c:	05180000 	ldreq	r0, [r8, #-0]
    9aa0:	00017c2d 	andeq	r7, r1, sp, lsr #24
    9aa4:	03c40c00 	biceq	r0, r4, #0, 24
    9aa8:	2f050000 	svccs	0x00050000
    9aac:	0000017c 	andeq	r0, r0, ip, ror r1
    9ab0:	6b5f1100 	blvs	17cdeb8 <__bss_end__+0x17c3de8>
    9ab4:	25300500 	ldrcs	r0, [r0, #-1280]!	; 0xfffffb00
    9ab8:	04000000 	streq	r0, [r0], #-0
    9abc:	0004040c 	andeq	r0, r4, ip, lsl #8
    9ac0:	25300500 	ldrcs	r0, [r0, #-1280]!	; 0xfffffb00
    9ac4:	08000000 	stmdaeq	r0, {}	; <UNPREDICTABLE>
    9ac8:	0001990c 	andeq	r9, r1, ip, lsl #18
    9acc:	25300500 	ldrcs	r0, [r0, #-1280]!	; 0xfffffb00
    9ad0:	0c000000 	stceq	0, cr0, [r0], {-0}
    9ad4:	0004a80c 	andeq	sl, r4, ip, lsl #16
    9ad8:	25300500 	ldrcs	r0, [r0, #-1280]!	; 0xfffffb00
    9adc:	10000000 	andne	r0, r0, r0
    9ae0:	00785f11 	rsbseq	r5, r8, r1, lsl pc
    9ae4:	01823105 	orreq	r3, r2, r5, lsl #2
    9ae8:	00140000 	andseq	r0, r4, r0
    9aec:	0129040e 			; <UNDEFINED> instruction: 0x0129040e
    9af0:	1e090000 	cdpne	0, 0, cr0, cr9, cr0, {0}
    9af4:	92000001 	andls	r0, r0, #1
    9af8:	0a000001 	beq	9b04 <__FUNCTION__.4407+0x7c>
    9afc:	000000cc 	andeq	r0, r0, ip, asr #1
    9b00:	dd100000 	ldcle	0, cr0, [r0, #-0]
    9b04:	24000001 	strcs	r0, [r0], #-1
    9b08:	020b3505 	andeq	r3, fp, #20971520	; 0x1400000
    9b0c:	9e0c0000 	cdpls	0, 0, cr0, cr12, cr0, {0}
    9b10:	05000000 	streq	r0, [r0, #-0]
    9b14:	00002537 	andeq	r2, r0, r7, lsr r5
    9b18:	3e0c0000 	cdpcc	0, 0, cr0, cr12, cr0, {0}
    9b1c:	05000004 	streq	r0, [r0, #-4]
    9b20:	00002538 	andeq	r2, r0, r8, lsr r5
    9b24:	c10c0400 	tstgt	ip, r0, lsl #8
    9b28:	05000000 	streq	r0, [r0, #-0]
    9b2c:	00002539 	andeq	r2, r0, r9, lsr r5
    9b30:	330c0800 	movwcc	r0, #51200	; 0xc800
    9b34:	05000005 	streq	r0, [r0, #-5]
    9b38:	0000253a 	andeq	r2, r0, sl, lsr r5
    9b3c:	a10c0c00 	tstge	ip, r0, lsl #24
    9b40:	05000002 	streq	r0, [r0, #-2]
    9b44:	0000253b 	andeq	r2, r0, fp, lsr r5
    9b48:	830c1000 	movwhi	r1, #49152	; 0xc000
    9b4c:	05000002 	streq	r0, [r0, #-2]
    9b50:	0000253c 	andeq	r2, r0, ip, lsr r5
    9b54:	ad0c1400 	cfstrsge	mvf1, [ip, #-0]
    9b58:	05000004 	streq	r0, [r0, #-4]
    9b5c:	0000253d 	andeq	r2, r0, sp, lsr r5
    9b60:	290c1800 	stmdbcs	ip, {fp, ip}
    9b64:	05000005 	streq	r0, [r0, #-5]
    9b68:	0000253e 	andeq	r2, r0, lr, lsr r5
    9b6c:	f00c1c00 			; <UNDEFINED> instruction: 0xf00c1c00
    9b70:	05000004 	streq	r0, [r0, #-4]
    9b74:	0000253f 	andeq	r2, r0, pc, lsr r5
    9b78:	12002000 	andne	r2, r0, #0
    9b7c:	00000101 	andeq	r0, r0, r1, lsl #2
    9b80:	48050108 	stmdami	r5, {r3, r8}
    9b84:	0000024b 	andeq	r0, r0, fp, asr #4
    9b88:	00018c0c 	andeq	r8, r1, ip, lsl #24
    9b8c:	4b490500 	blmi	124af94 <__bss_end__+0x1240ec4>
    9b90:	00000002 	andeq	r0, r0, r2
    9b94:	0000000c 	andeq	r0, r0, ip
    9b98:	4b4a0500 	blmi	128afa0 <__bss_end__+0x1280ed0>
    9b9c:	80000002 	andhi	r0, r0, r2
    9ba0:	00045a13 	andeq	r5, r4, r3, lsl sl
    9ba4:	1e4c0500 	cdpne	5, 4, cr0, cr12, cr0, {0}
    9ba8:	00000001 	andeq	r0, r0, r1
    9bac:	01261301 			; <UNDEFINED> instruction: 0x01261301
    9bb0:	4f050000 	svcmi	0x00050000
    9bb4:	0000011e 	andeq	r0, r0, lr, lsl r1
    9bb8:	09000104 	stmdbeq	r0, {r2, r8}
    9bbc:	0000010a 	andeq	r0, r0, sl, lsl #2
    9bc0:	0000025b 	andeq	r0, r0, fp, asr r2
    9bc4:	0000cc0a 	andeq	ip, r0, sl, lsl #24
    9bc8:	12001f00 	andne	r1, r0, #0, 30
    9bcc:	000002aa 	andeq	r0, r0, sl, lsr #5
    9bd0:	5b050190 	blpl	14a218 <__bss_end__+0x140148>
    9bd4:	00000299 	muleq	r0, r9, r2
    9bd8:	0003c40c 	andeq	ip, r3, ip, lsl #8
    9bdc:	995c0500 	ldmdbls	ip, {r8, sl}^
    9be0:	00000002 	andeq	r0, r0, r2
    9be4:	0003dc0c 	andeq	sp, r3, ip, lsl #24
    9be8:	255d0500 	ldrbcs	r0, [sp, #-1280]	; 0xfffffb00
    9bec:	04000000 	streq	r0, [r0], #-0
    9bf0:	0001940c 	andeq	r9, r1, ip, lsl #8
    9bf4:	9f5f0500 	svcls	0x005f0500
    9bf8:	08000002 	stmdaeq	r0, {r1}
    9bfc:	0001010c 	andeq	r0, r1, ip, lsl #2
    9c00:	0b600500 	bleq	180b008 <__bss_end__+0x1800f38>
    9c04:	88000002 	stmdahi	r0, {r1}
    9c08:	5b040e00 	blpl	10d410 <__bss_end__+0x103340>
    9c0c:	09000002 	stmdbeq	r0, {r1}
    9c10:	000002af 	andeq	r0, r0, pc, lsr #5
    9c14:	000002af 	andeq	r0, r0, pc, lsr #5
    9c18:	0000cc0a 	andeq	ip, r0, sl, lsl #24
    9c1c:	0e001f00 	cdpeq	15, 0, cr1, cr0, cr0, {0}
    9c20:	0002b504 	andeq	fp, r2, r4, lsl #10
    9c24:	8f101400 	svchi	0x00101400
    9c28:	08000003 	stmdaeq	r0, {r0, r1}
    9c2c:	02db7305 	sbcseq	r7, fp, #335544320	; 0x14000000
    9c30:	bb0c0000 	bllt	309c38 <__bss_end__+0x2ffb68>
    9c34:	05000000 	streq	r0, [r0, #-0]
    9c38:	0002db74 	andeq	sp, r2, r4, ror fp
    9c3c:	1b0c0000 	blne	309c44 <__bss_end__+0x2ffb74>
    9c40:	05000000 	streq	r0, [r0, #-0]
    9c44:	00002575 	andeq	r2, r0, r5, ror r5
    9c48:	0e000400 	cfcpyseq	mvf0, mvf0
    9c4c:	00005404 	andeq	r5, r0, r4, lsl #8
    9c50:	03ae1000 			; <UNDEFINED> instruction: 0x03ae1000
    9c54:	05680000 	strbeq	r0, [r8, #-0]!
    9c58:	00040bb3 			; <UNDEFINED> instruction: 0x00040bb3
    9c5c:	705f1100 	subsvc	r1, pc, r0, lsl #2
    9c60:	dbb40500 	blle	fed0b068 <__bss_end__+0xfed00f98>
    9c64:	00000002 	andeq	r0, r0, r2
    9c68:	00725f11 	rsbseq	r5, r2, r1, lsl pc
    9c6c:	0025b505 	eoreq	fp, r5, r5, lsl #10
    9c70:	11040000 	mrsne	r0, (UNDEF: 4)
    9c74:	0500775f 	streq	r7, [r0, #-1887]	; 0xfffff8a1
    9c78:	000025b6 			; <UNDEFINED> instruction: 0x000025b6
    9c7c:	1f0c0800 	svcne	0x000c0800
    9c80:	05000001 	streq	r0, [r0, #-1]
    9c84:	00003fb7 			; <UNDEFINED> instruction: 0x00003fb7
    9c88:	080c0c00 	stmdaeq	ip, {sl, fp}
    9c8c:	05000002 	streq	r0, [r0, #-2]
    9c90:	00003fb8 			; <UNDEFINED> instruction: 0x00003fb8
    9c94:	5f110e00 	svcpl	0x00110e00
    9c98:	05006662 	streq	r6, [r0, #-1634]	; 0xfffff99e
    9c9c:	0002b6b9 			; <UNDEFINED> instruction: 0x0002b6b9
    9ca0:	7b0c1000 	blvc	30dca8 <__bss_end__+0x303bd8>
    9ca4:	05000000 	streq	r0, [r0, #-0]
    9ca8:	000025ba 			; <UNDEFINED> instruction: 0x000025ba
    9cac:	0f0c1800 	svceq	0x000c1800
    9cb0:	05000001 	streq	r0, [r0, #-1]
    9cb4:	00010ac1 	andeq	r0, r1, r1, asr #21
    9cb8:	720c1c00 	andvc	r1, ip, #0, 24
    9cbc:	0500000b 	streq	r0, [r0, #-11]
    9cc0:	000566c3 	andeq	r6, r5, r3, asr #13
    9cc4:	360c2000 	strcc	r2, [ip], -r0
    9cc8:	05000006 	streq	r0, [r0, #-6]
    9ccc:	000590c5 	andeq	r9, r5, r5, asr #1
    9cd0:	300c2400 	andcc	r2, ip, r0, lsl #8
    9cd4:	05000004 	streq	r0, [r0, #-4]
    9cd8:	0005b4c8 	andeq	fp, r5, r8, asr #9
    9cdc:	0a0c2800 	beq	313ce4 <__bss_end__+0x309c14>
    9ce0:	05000005 	streq	r0, [r0, #-5]
    9ce4:	0005cec9 	andeq	ip, r5, r9, asr #29
    9ce8:	5f112c00 	svcpl	0x00112c00
    9cec:	05006275 	streq	r6, [r0, #-629]	; 0xfffffd8b
    9cf0:	0002b6cc 	andeq	fp, r2, ip, asr #13
    9cf4:	5f113000 	svcpl	0x00113000
    9cf8:	05007075 	streq	r7, [r0, #-117]	; 0xffffff8b
    9cfc:	0002dbcd 	andeq	sp, r2, sp, asr #23
    9d00:	5f113800 	svcpl	0x00113800
    9d04:	05007275 	streq	r7, [r0, #-629]	; 0xfffffd8b
    9d08:	000025ce 	andeq	r2, r0, lr, asr #11
    9d0c:	b50c3c00 	strlt	r3, [ip, #-3072]	; 0xfffff400
    9d10:	05000000 	streq	r0, [r0, #-0]
    9d14:	0005d4d1 	ldrdeq	sp, [r5], -r1
    9d18:	e20c4000 	and	r4, ip, #0
    9d1c:	05000004 	streq	r0, [r0, #-4]
    9d20:	0005e4d2 	ldrdeq	lr, [r5], -r2
    9d24:	5f114300 	svcpl	0x00114300
    9d28:	0500626c 	streq	r6, [r0, #-620]	; 0xfffffd94
    9d2c:	0002b6d5 	ldrdeq	fp, [r2], -r5
    9d30:	3d0c4400 	cfstrscc	mvf4, [ip, #-0]
    9d34:	05000001 	streq	r0, [r0, #-1]
    9d38:	000025d8 	ldrdeq	r2, [r0], -r8
    9d3c:	4e0c4c00 	cdpmi	12, 0, cr4, cr12, cr0, {0}
    9d40:	05000001 	streq	r0, [r0, #-1]
    9d44:	00007bd9 	ldrdeq	r7, [r0], -r9
    9d48:	130c5000 	movwne	r5, #49152	; 0xc000
    9d4c:	0500000b 	streq	r0, [r0, #-11]
    9d50:	000429dc 	ldrdeq	r2, [r4], -ip
    9d54:	220c5400 	andcs	r5, ip, #0, 8
    9d58:	05000004 	streq	r0, [r0, #-4]
    9d5c:	0000ffe0 	andeq	pc, r0, r0, ror #31
    9d60:	b60c5800 	strlt	r5, [ip], -r0, lsl #16
    9d64:	05000003 	streq	r0, [r0, #-3]
    9d68:	0000f4e2 	andeq	pc, r0, r2, ror #9
    9d6c:	7b0c5c00 	blvc	320d74 <__bss_end__+0x316ca4>
    9d70:	05000002 	streq	r0, [r0, #-2]
    9d74:	000025e3 	andeq	r2, r0, r3, ror #11
    9d78:	15006400 	strne	r6, [r0, #-1024]	; 0xfffffc00
    9d7c:	00000025 	andeq	r0, r0, r5, lsr #32
    9d80:	00000429 	andeq	r0, r0, r9, lsr #8
    9d84:	00042916 	andeq	r2, r4, r6, lsl r9
    9d88:	010a1600 	tsteq	sl, r0, lsl #12
    9d8c:	0c160000 	ldceq	0, cr0, [r6], {-0}
    9d90:	16000001 	strne	r0, [r0], -r1
    9d94:	00000025 	andeq	r0, r0, r5, lsr #32
    9d98:	34040e00 	strcc	r0, [r4], #-3584	; 0xfffff200
    9d9c:	0f000004 	svceq	0x00000004
    9da0:	00000429 	andeq	r0, r0, r9, lsr #8
    9da4:	00040c17 	andeq	r0, r4, r7, lsl ip
    9da8:	05042800 	streq	r2, [r4, #-2048]	; 0xfffff800
    9dac:	05660238 	strbeq	r0, [r6, #-568]!	; 0xfffffdc8
    9db0:	70180000 	andsvc	r0, r8, r0
    9db4:	05000003 	streq	r0, [r0, #-3]
    9db8:	0025023a 	eoreq	r0, r5, sl, lsr r2
    9dbc:	18000000 	stmdane	r0, {}	; <UNPREDICTABLE>
    9dc0:	0000012e 	andeq	r0, r0, lr, lsr #2
    9dc4:	3b023f05 	blcc	999e0 <__bss_end__+0x8f910>
    9dc8:	04000006 	streq	r0, [r0], #-6
    9dcc:	0001f818 	andeq	pc, r1, r8, lsl r8	; <UNPREDICTABLE>
    9dd0:	023f0500 	eorseq	r0, pc, #0, 10
    9dd4:	0000063b 	andeq	r0, r0, fp, lsr r6
    9dd8:	01a81808 			; <UNDEFINED> instruction: 0x01a81808
    9ddc:	3f050000 	svccc	0x00050000
    9de0:	00063b02 	andeq	r3, r6, r2, lsl #22
    9de4:	d7180c00 	ldrle	r0, [r8, -r0, lsl #24]
    9de8:	05000003 	streq	r0, [r0, #-3]
    9dec:	00250241 	eoreq	r0, r5, r1, asr #4
    9df0:	18100000 	ldmdane	r0, {}	; <UNPREDICTABLE>
    9df4:	00000029 	andeq	r0, r0, r9, lsr #32
    9df8:	1d024205 	sfmne	f4, 4, [r2, #-20]	; 0xffffffec
    9dfc:	14000008 	strne	r0, [r0], #-8
    9e00:	000acc18 	andeq	ip, sl, r8, lsl ip
    9e04:	02440500 	subeq	r0, r4, #0, 10
    9e08:	00000025 	andeq	r0, r0, r5, lsr #32
    9e0c:	0a471830 	beq	11cfed4 <__bss_end__+0x11c5e04>
    9e10:	45050000 	strmi	r0, [r5, #-0]
    9e14:	00058a02 	andeq	r8, r5, r2, lsl #20
    9e18:	b2183400 	andslt	r3, r8, #0, 8
    9e1c:	05000002 	streq	r0, [r0, #-2]
    9e20:	00250247 	eoreq	r0, r5, r7, asr #4
    9e24:	18380000 	ldmdane	r8!, {}	; <UNPREDICTABLE>
    9e28:	000003e1 	andeq	r0, r0, r1, ror #7
    9e2c:	38024905 	stmdacc	r2, {r0, r2, r8, fp, lr}
    9e30:	3c000008 	stccc	0, cr0, [r0], {8}
    9e34:	00025718 	andeq	r5, r2, r8, lsl r7
    9e38:	024c0500 	subeq	r0, ip, #0, 10
    9e3c:	0000017c 	andeq	r0, r0, ip, ror r1
    9e40:	01c71840 	biceq	r1, r7, r0, asr #16
    9e44:	4d050000 	stcmi	0, cr0, [r5, #-0]
    9e48:	00002502 	andeq	r2, r0, r2, lsl #10
    9e4c:	24184400 	ldrcs	r4, [r8], #-1024	; 0xfffffc00
    9e50:	05000005 	streq	r0, [r0, #-5]
    9e54:	017c024e 	cmneq	ip, lr, asr #4
    9e58:	18480000 	stmdane	r8, {}^	; <UNPREDICTABLE>
    9e5c:	000002c4 	andeq	r0, r0, r4, asr #5
    9e60:	3e024f05 	cdpcc	15, 0, cr4, cr2, cr5, {0}
    9e64:	4c000008 	stcmi	0, cr0, [r0], {8}
    9e68:	00020018 	andeq	r0, r2, r8, lsl r0
    9e6c:	02520500 	subseq	r0, r2, #0, 10
    9e70:	00000025 	andeq	r0, r0, r5, lsr #32
    9e74:	01461850 	cmpeq	r6, r0, asr r8
    9e78:	53050000 	movwpl	r0, #20480	; 0x5000
    9e7c:	00010c02 	andeq	r0, r1, r2, lsl #24
    9e80:	ea185400 	b	61ee88 <__bss_end__+0x614db8>
    9e84:	05000002 	streq	r0, [r0, #-2]
    9e88:	07fb0276 			; <UNDEFINED> instruction: 0x07fb0276
    9e8c:	19580000 	ldmdbne	r8, {}^	; <UNPREDICTABLE>
    9e90:	000002aa 	andeq	r0, r0, sl, lsr #5
    9e94:	99027a05 	stmdbls	r2, {r0, r2, r9, fp, ip, sp, lr}
    9e98:	48000002 	stmdami	r0, {r1}
    9e9c:	02351901 	eorseq	r1, r5, #16384	; 0x4000
    9ea0:	7b050000 	blvc	149ea8 <__bss_end__+0x13fdd8>
    9ea4:	00025b02 	andeq	r5, r2, r2, lsl #22
    9ea8:	19014c00 	stmdbne	r1, {sl, fp, lr}
    9eac:	000004d0 	ldrdeq	r0, [r0], -r0	; <UNPREDICTABLE>
    9eb0:	4f027f05 	svcmi	0x00027f05
    9eb4:	dc000008 	stcle	0, cr0, [r0], {8}
    9eb8:	01171902 	tsteq	r7, r2, lsl #18
    9ebc:	84050000 	strhi	r0, [r5], #-0
    9ec0:	00060002 	andeq	r0, r6, r2
    9ec4:	1902e000 	stmdbne	r2, {sp, lr, pc}
    9ec8:	000000fc 	strdeq	r0, [r0], -ip
    9ecc:	5b028505 	blpl	ab2e8 <__bss_end__+0xa1218>
    9ed0:	ec000008 	stc	0, cr0, [r0], {8}
    9ed4:	040e0002 	streq	r0, [lr], #-2
    9ed8:	0000040b 	andeq	r0, r0, fp, lsl #8
    9edc:	00002515 	andeq	r2, r0, r5, lsl r5
    9ee0:	00058a00 	andeq	r8, r5, r0, lsl #20
    9ee4:	04291600 	strteq	r1, [r9], #-1536	; 0xfffffa00
    9ee8:	0a160000 	beq	589ef0 <__bss_end__+0x57fe20>
    9eec:	16000001 	strne	r0, [r0], -r1
    9ef0:	0000058a 	andeq	r0, r0, sl, lsl #11
    9ef4:	00002516 	andeq	r2, r0, r6, lsl r5
    9ef8:	040e0000 	streq	r0, [lr], #-0
    9efc:	00000119 	andeq	r0, r0, r9, lsl r1
    9f00:	056c040e 	strbeq	r0, [ip, #-1038]!	; 0xfffffbf2
    9f04:	86150000 	ldrhi	r0, [r5], -r0
    9f08:	b4000000 	strlt	r0, [r0], #-0
    9f0c:	16000005 	strne	r0, [r0], -r5
    9f10:	00000429 	andeq	r0, r0, r9, lsr #8
    9f14:	00010a16 	andeq	r0, r1, r6, lsl sl
    9f18:	00861600 	addeq	r1, r6, r0, lsl #12
    9f1c:	25160000 	ldrcs	r0, [r6, #-0]
    9f20:	00000000 	andeq	r0, r0, r0
    9f24:	0596040e 	ldreq	r0, [r6, #1038]	; 0x40e
    9f28:	25150000 	ldrcs	r0, [r5, #-0]
    9f2c:	ce000000 	cdpgt	0, 0, cr0, cr0, cr0, {0}
    9f30:	16000005 	strne	r0, [r0], -r5
    9f34:	00000429 	andeq	r0, r0, r9, lsr #8
    9f38:	00010a16 	andeq	r0, r1, r6, lsl sl
    9f3c:	040e0000 	streq	r0, [lr], #-0
    9f40:	000005ba 			; <UNDEFINED> instruction: 0x000005ba
    9f44:	00005409 	andeq	r5, r0, r9, lsl #8
    9f48:	0005e400 	andeq	lr, r5, r0, lsl #8
    9f4c:	00cc0a00 	sbceq	r0, ip, r0, lsl #20
    9f50:	00020000 	andeq	r0, r2, r0
    9f54:	00005409 	andeq	r5, r0, r9, lsl #8
    9f58:	0005f400 	andeq	pc, r5, r0, lsl #8
    9f5c:	00cc0a00 	sbceq	r0, ip, r0, lsl #20
    9f60:	00000000 	andeq	r0, r0, r0
    9f64:	00039c06 	andeq	r9, r3, r6, lsl #24
    9f68:	011d0500 	tsteq	sp, r0, lsl #10
    9f6c:	000002e1 	andeq	r0, r0, r1, ror #5
    9f70:	0004b71a 	andeq	fp, r4, sl, lsl r7
    9f74:	21050c00 	tstcs	r5, r0, lsl #24
    9f78:	00063501 	andeq	r3, r6, r1, lsl #10
    9f7c:	03c41800 	biceq	r1, r4, #0, 16
    9f80:	23050000 	movwcs	r0, #20480	; 0x5000
    9f84:	00063501 	andeq	r3, r6, r1, lsl #10
    9f88:	1b180000 	blne	609f90 <__bss_end__+0x5ffec0>
    9f8c:	05000002 	streq	r0, [r0, #-2]
    9f90:	00250124 	eoreq	r0, r5, r4, lsr #2
    9f94:	18040000 	stmdane	r4, {}	; <UNPREDICTABLE>
    9f98:	00000396 	muleq	r0, r6, r3
    9f9c:	3b012505 	blcc	533b8 <__bss_end__+0x492e8>
    9fa0:	08000006 	stmdaeq	r0, {r1, r2}
    9fa4:	00040e00 	andeq	r0, r4, r0, lsl #28
    9fa8:	0e000006 	cdpeq	0, 0, cr0, cr0, cr6, {0}
    9fac:	0005f404 	andeq	pc, r5, r4, lsl #8
    9fb0:	00211a00 	eoreq	r1, r1, r0, lsl #20
    9fb4:	050e0000 	streq	r0, [lr, #-0]
    9fb8:	0676013d 			; <UNDEFINED> instruction: 0x0676013d
    9fbc:	13180000 	tstne	r8, #0
    9fc0:	05000004 	streq	r0, [r0, #-4]
    9fc4:	0676013e 			; <UNDEFINED> instruction: 0x0676013e
    9fc8:	18000000 	stmdane	r0, {}	; <UNPREDICTABLE>
    9fcc:	00000447 	andeq	r0, r0, r7, asr #8
    9fd0:	76013f05 	strvc	r3, [r1], -r5, lsl #30
    9fd4:	06000006 	streq	r0, [r0], -r6
    9fd8:	00046318 	andeq	r6, r4, r8, lsl r3
    9fdc:	01400500 	cmpeq	r0, r0, lsl #10
    9fe0:	0000005b 	andeq	r0, r0, fp, asr r0
    9fe4:	5b09000c 	blpl	24a01c <__bss_end__+0x23ff4c>
    9fe8:	86000000 	strhi	r0, [r0], -r0
    9fec:	0a000006 	beq	a00c <buf.4297+0x340>
    9ff0:	000000cc 	andeq	r0, r0, ip, asr #1
    9ff4:	d01b0002 	andsle	r0, fp, r2
    9ff8:	87025705 	strhi	r5, [r2, -r5, lsl #14]
    9ffc:	18000007 	stmdane	r0, {r0, r1, r2}
    a000:	0000049b 	muleq	r0, fp, r4
    a004:	2c025905 			; <UNDEFINED> instruction: 0x2c025905
    a008:	00000000 	andeq	r0, r0, r0
    a00c:	00044d18 	andeq	r4, r4, r8, lsl sp
    a010:	025a0500 	subseq	r0, sl, #0, 10
    a014:	0000010c 	andeq	r0, r0, ip, lsl #2
    a018:	024a1804 	subeq	r1, sl, #4, 16	; 0x40000
    a01c:	5b050000 	blpl	14a024 <__bss_end__+0x13ff54>
    a020:	00078702 	andeq	r8, r7, r2, lsl #14
    a024:	fb180800 	blx	60c02e <__bss_end__+0x601f5e>
    a028:	05000004 	streq	r0, [r0, #-4]
    a02c:	0192025c 	orrseq	r0, r2, ip, asr r2
    a030:	18240000 	stmdane	r4!, {}	; <UNPREDICTABLE>
    a034:	000001b8 			; <UNDEFINED> instruction: 0x000001b8
    a038:	25025d05 	strcs	r5, [r2, #-3333]	; 0xfffff2fb
    a03c:	48000000 	stmdami	r0, {}	; <UNPREDICTABLE>
    a040:	0003bf18 	andeq	fp, r3, r8, lsl pc
    a044:	025e0500 	subseq	r0, lr, #0, 10
    a048:	00000069 	andeq	r0, r0, r9, rrx
    a04c:	05111850 	ldreq	r1, [r1, #-2128]	; 0xfffff7b0
    a050:	5f050000 	svcpl	0x00050000
    a054:	00064102 	andeq	r4, r6, r2, lsl #2
    a058:	ca185800 	bgt	620060 <__bss_end__+0x615f90>
    a05c:	05000003 	streq	r0, [r0, #-3]
    a060:	00f40260 	rscseq	r0, r4, r0, ror #4
    a064:	18680000 	stmdane	r8!, {}^	; <UNPREDICTABLE>
    a068:	00000516 	andeq	r0, r0, r6, lsl r5
    a06c:	f4026105 	vst4.8	{d6,d8,d10,d12}, [r2], r5
    a070:	70000000 	andvc	r0, r0, r0
    a074:	0002ce18 	andeq	ip, r2, r8, lsl lr
    a078:	02620500 	rsbeq	r0, r2, #0, 10
    a07c:	000000f4 	strdeq	r0, [r0], -r4
    a080:	04c61878 	strbeq	r1, [r6], #2168	; 0x878
    a084:	63050000 	movwvs	r0, #20480	; 0x5000
    a088:	00079702 	andeq	r9, r7, r2, lsl #14
    a08c:	3e188000 	cdpcc	0, 1, cr8, cr8, cr0, {0}
    a090:	05000002 	streq	r0, [r0, #-2]
    a094:	07a70264 	streq	r0, [r7, r4, ror #4]!
    a098:	18880000 	stmne	r8, {}	; <UNPREDICTABLE>
    a09c:	00000470 	andeq	r0, r0, r0, ror r4
    a0a0:	25026505 	strcs	r6, [r2, #-1285]	; 0xfffffafb
    a0a4:	a0000000 	andge	r0, r0, r0
    a0a8:	00017e18 	andeq	r7, r1, r8, lsl lr
    a0ac:	02660500 	rsbeq	r0, r6, #0, 10
    a0b0:	000000f4 	strdeq	r0, [r0], -r4
    a0b4:	008f18a4 	addeq	r1, pc, r4, lsr #17
    a0b8:	67050000 	strvs	r0, [r5, -r0]
    a0bc:	0000f402 	andeq	pc, r0, r2, lsl #8
    a0c0:	6d18ac00 	ldcvs	12, cr10, [r8, #-0]
    a0c4:	05000001 	streq	r0, [r0, #-1]
    a0c8:	00f40268 	rscseq	r0, r4, r8, ror #4
    a0cc:	18b40000 	ldmne	r4!, {}	; <UNPREDICTABLE>
    a0d0:	0000003c 	andeq	r0, r0, ip, lsr r0
    a0d4:	f4026905 	vst2.8	{d6,d8}, [r2], r5
    a0d8:	bc000000 	stclt	0, cr0, [r0], {-0}
    a0dc:	00004b18 	andeq	r4, r0, r8, lsl fp
    a0e0:	026a0500 	rsbeq	r0, sl, #0, 10
    a0e4:	000000f4 	strdeq	r0, [r0], -r4
    a0e8:	036e18c4 	cmneq	lr, #196, 16	; 0xc40000
    a0ec:	6b050000 	blvs	14a0f4 <__bss_end__+0x140024>
    a0f0:	00002502 	andeq	r2, r0, r2, lsl #10
    a0f4:	0900cc00 	stmdbeq	r0, {sl, fp, lr, pc}
    a0f8:	00000112 	andeq	r0, r0, r2, lsl r1
    a0fc:	00000797 	muleq	r0, r7, r7
    a100:	0000cc0a 	andeq	ip, r0, sl, lsl #24
    a104:	09001900 	stmdbeq	r0, {r8, fp, ip}
    a108:	00000112 	andeq	r0, r0, r2, lsl r1
    a10c:	000007a7 	andeq	r0, r0, r7, lsr #15
    a110:	0000cc0a 	andeq	ip, r0, sl, lsl #24
    a114:	09000700 	stmdbeq	r0, {r8, r9, sl}
    a118:	00000112 	andeq	r0, r0, r2, lsl r1
    a11c:	000007b7 			; <UNDEFINED> instruction: 0x000007b7
    a120:	0000cc0a 	andeq	ip, r0, sl, lsl #24
    a124:	1b001700 	blne	fd2c <__bss_end__+0x5c5c>
    a128:	027005f0 	rsbseq	r0, r0, #240, 10	; 0x3c000000
    a12c:	000007db 	ldrdeq	r0, [r0], -fp
    a130:	00029a18 	andeq	r9, r2, r8, lsl sl
    a134:	02730500 	rsbseq	r0, r3, #0, 10
    a138:	000007db 	ldrdeq	r0, [r0], -fp
    a13c:	04bd1800 	ldrteq	r1, [sp], #2048	; 0x800
    a140:	74050000 	strvc	r0, [r5], #-0
    a144:	0007eb02 	andeq	lr, r7, r2, lsl #22
    a148:	09007800 	stmdbeq	r0, {fp, ip, sp, lr}
    a14c:	000002db 	ldrdeq	r0, [r0], -fp
    a150:	000007eb 	andeq	r0, r0, fp, ror #15
    a154:	0000cc0a 	andeq	ip, r0, sl, lsl #24
    a158:	09001d00 	stmdbeq	r0, {r8, sl, fp, ip}
    a15c:	0000002c 	andeq	r0, r0, ip, lsr #32
    a160:	000007fb 	strdeq	r0, [r0], -fp
    a164:	0000cc0a 	andeq	ip, r0, sl, lsl #24
    a168:	1c001d00 	stcne	13, cr1, [r0], {-0}
    a16c:	025505f0 	subseq	r0, r5, #240, 10	; 0x3c000000
    a170:	0000081d 	andeq	r0, r0, sp, lsl r8
    a174:	00040c1d 	andeq	r0, r4, sp, lsl ip
    a178:	026c0500 	rsbeq	r0, ip, #0, 10
    a17c:	00000686 	andeq	r0, r0, r6, lsl #13
    a180:	0004e81d 	andeq	lr, r4, sp, lsl r8
    a184:	02750500 	rsbseq	r0, r5, #0, 10
    a188:	000007b7 			; <UNDEFINED> instruction: 0x000007b7
    a18c:	01120900 	tsteq	r2, r0, lsl #18
    a190:	082d0000 	stmdaeq	sp!, {}	; <UNPREDICTABLE>
    a194:	cc0a0000 	stcgt	0, cr0, [sl], {-0}
    a198:	18000000 	stmdane	r0, {}	; <UNPREDICTABLE>
    a19c:	08381e00 	ldmdaeq	r8!, {r9, sl, fp, ip}
    a1a0:	29160000 	ldmdbcs	r6, {}	; <UNPREDICTABLE>
    a1a4:	00000004 	andeq	r0, r0, r4
    a1a8:	082d040e 	stmdaeq	sp!, {r1, r2, r3, sl}
    a1ac:	040e0000 	streq	r0, [lr], #-0
    a1b0:	0000017c 	andeq	r0, r0, ip, ror r1
    a1b4:	00084f1e 	andeq	r4, r8, lr, lsl pc
    a1b8:	00251600 	eoreq	r1, r5, r0, lsl #12
    a1bc:	0e000000 	cdpeq	0, 0, cr0, cr0, cr0, {0}
    a1c0:	00085504 	andeq	r5, r8, r4, lsl #10
    a1c4:	44040e00 	strmi	r0, [r4], #-3584	; 0xfffff200
    a1c8:	09000008 	stmdbeq	r0, {r3}
    a1cc:	000005f4 	strdeq	r0, [r0], -r4
    a1d0:	0000086b 	andeq	r0, r0, fp, ror #16
    a1d4:	0000cc0a 	andeq	ip, r0, sl, lsl #24
    a1d8:	1f000200 	svcne	0x00000200
    a1dc:	00000484 	andeq	r0, r0, r4, lsl #9
    a1e0:	2902fd05 	stmdbcs	r2, {r0, r2, r8, sl, fp, ip, sp, lr, pc}
    a1e4:	1f000004 	svcne	0x00000004
    a1e8:	0000047d 	andeq	r0, r0, sp, ror r4
    a1ec:	2f02fe05 	svccs	0x0002fe05
    a1f0:	15000004 	strne	r0, [r0, #-4]
    a1f4:	00000025 	andeq	r0, r0, r5, lsr #32
    a1f8:	00000892 	muleq	r0, r2, r8
    a1fc:	00002516 	andeq	r2, r0, r6, lsl r5
    a200:	d1200000 			; <UNDEFINED> instruction: 0xd1200000
    a204:	06000001 	streq	r0, [r0], -r1
    a208:	00089d1d 	andeq	r9, r8, sp, lsl sp
    a20c:	83040e00 	movwhi	r0, #19968	; 0x4e00
    a210:	15000008 	strne	r0, [r0, #-8]
    a214:	00000025 	andeq	r0, r0, r5, lsr #32
    a218:	000008b2 			; <UNDEFINED> instruction: 0x000008b2
    a21c:	00058a16 	andeq	r8, r5, r6, lsl sl
    a220:	8c200000 	stchi	0, cr0, [r0], #-0
    a224:	06000007 	streq	r0, [r0], -r7
    a228:	0008bd22 	andeq	fp, r8, r2, lsr #26
    a22c:	a3040e00 	movwge	r0, #19968	; 0x4e00
    a230:	21000008 	tstcs	r0, r8
    a234:	00005401 	andeq	r5, r0, r1, lsl #8
    a238:	000c0800 	andeq	r0, ip, r0, lsl #16
    a23c:	22000009 	andcs	r0, r0, #9
    a240:	00000965 	andeq	r0, r0, r5, ror #18
    a244:	0ade2200 	beq	ff792a4c <__bss_end__+0xff78897c>
    a248:	22010000 	andcs	r0, r1, #0
    a24c:	00000b19 	andeq	r0, r0, r9, lsl fp
    a250:	097a2204 	ldmdbeq	sl!, {r2, r9, sp}^
    a254:	22050000 	andcs	r0, r5, #0
    a258:	00000a06 	andeq	r0, r0, r6, lsl #20
    a25c:	0b282206 	bleq	a12a7c <__bss_end__+0xa089ac>
    a260:	22070000 	andcs	r0, r7, #0
    a264:	00000b37 	andeq	r0, r0, r7, lsr fp
    a268:	0b462203 	bleq	1192a7c <__bss_end__+0x11889ac>
    a26c:	00020000 	andeq	r0, r2, r0
    a270:	00099510 	andeq	r9, r9, r0, lsl r5
    a274:	06072c00 	streq	r2, [r7], -r0, lsl #24
    a278:	00000990 	muleq	r0, r0, r9
    a27c:	006f6911 	rsbeq	r6, pc, r1, lsl r9	; <UNPREDICTABLE>
    a280:	00330907 	eorseq	r0, r3, r7, lsl #18
    a284:	11000000 	mrsne	r0, (UNDEF: 0)
    a288:	00726569 	rsbseq	r6, r2, r9, ror #10
    a28c:	00330a07 	eorseq	r0, r3, r7, lsl #20
    a290:	11040000 	mrsne	r0, (UNDEF: 4)
    a294:	00726969 	rsbseq	r6, r2, r9, ror #18
    a298:	00331107 	eorseq	r1, r3, r7, lsl #2
    a29c:	11080000 	mrsne	r0, (UNDEF: 8)
    a2a0:	0072636c 	rsbseq	r6, r2, ip, ror #6
    a2a4:	00331307 	eorseq	r1, r3, r7, lsl #6
    a2a8:	110c0000 	mrsne	r0, (UNDEF: 12)
    a2ac:	0072636d 	rsbseq	r6, r2, sp, ror #6
    a2b0:	00331407 	eorseq	r1, r3, r7, lsl #8
    a2b4:	11100000 	tstne	r0, r0
    a2b8:	0072736c 	rsbseq	r7, r2, ip, ror #6
    a2bc:	00331507 	eorseq	r1, r3, r7, lsl #10
    a2c0:	11140000 	tstne	r4, r0
    a2c4:	0072736d 	rsbseq	r7, r2, sp, ror #6
    a2c8:	00331607 	eorseq	r1, r3, r7, lsl #12
    a2cc:	0c180000 	ldceq	0, cr0, [r8], {-0}
    a2d0:	00000a5c 	andeq	r0, r0, ip, asr sl
    a2d4:	00331707 	eorseq	r1, r3, r7, lsl #14
    a2d8:	0c1c0000 	ldceq	0, cr0, [ip], {-0}
    a2dc:	00000989 	andeq	r0, r0, r9, lsl #19
    a2e0:	00331b07 	eorseq	r1, r3, r7, lsl #22
    a2e4:	0c200000 	stceq	0, cr0, [r0], #-0
    a2e8:	00000975 	andeq	r0, r0, r5, ror r9
    a2ec:	00331d07 	eorseq	r1, r3, r7, lsl #26
    a2f0:	0c240000 	stceq	0, cr0, [r4], #-0
    a2f4:	00000a57 	andeq	r0, r0, r7, asr sl
    a2f8:	00331e07 	eorseq	r1, r3, r7, lsl #28
    a2fc:	00280000 	eoreq	r0, r8, r0
    a300:	0009d623 	andeq	sp, r9, r3, lsr #12
    a304:	a5070100 	strge	r0, [r7, #-256]	; 0xffffff00
    a308:	04000009 	streq	r0, [r0], #-9
    a30c:	0e202150 	mcreq	1, 1, r2, cr0, cr0, {2}
    a310:	00003304 	andeq	r3, r0, r4, lsl #6
    a314:	099f0f00 	ldmibeq	pc, {r8, r9, sl, fp}	; <UNPREDICTABLE>
    a318:	30230000 	eorcc	r0, r3, r0
    a31c:	0100000a 	tsteq	r0, sl
    a320:	0009bf28 	andeq	fp, r9, r8, lsr #30
    a324:	21504000 	cmpcs	r0, r0
    a328:	00040e20 	andeq	r0, r4, r0, lsr #28
    a32c:	0f000009 	svceq	0x00000009
    a330:	000009b9 			; <UNDEFINED> instruction: 0x000009b9
    a334:	000b0b24 	andeq	r0, fp, r4, lsr #22
    a338:	25a70100 	strcs	r0, [r7, #256]!	; 0x100
    a33c:	24000000 	strcs	r0, [r0], #-0
    a340:	10000094 	mulne	r0, r4, r0
    a344:	01000000 	mrseq	r0, (UNDEF: 0)
    a348:	0009f09c 	muleq	r9, ip, r0
    a34c:	942c2500 	strtls	r2, [ip], #-1280	; 0xfffffb00
    a350:	0c9c0000 	ldceq	0, cr0, [ip], {0}
    a354:	30250000 	eorcc	r0, r5, r0
    a358:	d2000094 	andle	r0, r0, #148	; 0x94
    a35c:	0000000a 	andeq	r0, r0, sl
    a360:	00075926 	andeq	r5, r7, r6, lsr #18
    a364:	f49f0100 			; <UNDEFINED> instruction: 0xf49f0100
    a368:	30000093 	mulcc	r0, r3, r0
    a36c:	01000000 	mrseq	r0, (UNDEF: 0)
    a370:	000a4e9c 	muleq	sl, ip, lr
    a374:	00632700 	rsbeq	r2, r3, r0, lsl #14
    a378:	002c9f01 	eoreq	r9, ip, r1, lsl #30
    a37c:	14060000 	strne	r0, [r6], #-0
    a380:	00250000 	eoreq	r0, r5, r0
    a384:	9c000094 	stcls	0, cr0, [r0], {148}	; 0x94
    a388:	2500000c 	strcs	r0, [r0, #-12]
    a38c:	00009404 	andeq	r9, r0, r4, lsl #8
    a390:	00000aa5 	andeq	r0, r0, r5, lsr #21
    a394:	00941828 	addseq	r1, r4, r8, lsr #16
    a398:	000ca700 	andeq	sl, ip, r0, lsl #14
    a39c:	000a4400 	andeq	r4, sl, r0, lsl #8
    a3a0:	50012900 	andpl	r2, r1, r0, lsl #18
    a3a4:	50400c05 	subpl	r0, r0, r5, lsl #24
    a3a8:	01292021 			; <UNDEFINED> instruction: 0x01292021
    a3ac:	00740551 	rsbseq	r0, r4, r1, asr r5
    a3b0:	001aff08 	andseq	pc, sl, r8, lsl #30
    a3b4:	00941c25 	addseq	r1, r4, r5, lsr #24
    a3b8:	000c9c00 	andeq	r9, ip, r0, lsl #24
    a3bc:	f0240000 			; <UNDEFINED> instruction: 0xf0240000
    a3c0:	01000009 	tsteq	r0, r9
    a3c4:	00002597 	muleq	r0, r7, r5
    a3c8:	0093c400 	addseq	ip, r3, r0, lsl #8
    a3cc:	00003000 	andeq	r3, r0, r0
    a3d0:	a59c0100 	ldrge	r0, [ip, #256]	; 0x100
    a3d4:	2a00000a 	bcs	a404 <__bss_end__+0x334>
    a3d8:	9b010063 	blls	4a56c <__bss_end__+0x4049c>
    a3dc:	00000025 	andeq	r0, r0, r5, lsr #32
    a3e0:	cc255401 	cfstrsgt	mvf5, [r5], #-4
    a3e4:	9c000093 	stcls	0, cr0, [r0], {147}	; 0x93
    a3e8:	2500000c 	strcs	r0, [r0, #-12]
    a3ec:	000093d0 	ldrdeq	r9, [r0], -r0
    a3f0:	00000ad2 	ldrdeq	r0, [r0], -r2
    a3f4:	0093e028 	addseq	lr, r3, r8, lsr #32
    a3f8:	000cb200 	andeq	fp, ip, r0, lsl #4
    a3fc:	000a9b00 	andeq	r9, sl, r0, lsl #22
    a400:	50012900 	andpl	r2, r1, r0, lsl #18
    a404:	50400c05 	subpl	r0, r0, r5, lsl #24
    a408:	25002021 	strcs	r2, [r0, #-33]	; 0xffffffdf
    a40c:	000093e8 	andeq	r9, r0, r8, ror #7
    a410:	00000c9c 	muleq	r0, ip, ip
    a414:	09e22400 	stmibeq	r2!, {sl, sp}^
    a418:	88010000 	stmdahi	r1, {}	; <UNPREDICTABLE>
    a41c:	00000025 	andeq	r0, r0, r5, lsr #32
    a420:	000093a4 	andeq	r9, r0, r4, lsr #7
    a424:	00000020 	andeq	r0, r0, r0, lsr #32
    a428:	0ad29c01 	beq	ff4b1434 <__bss_end__+0xff4a7364>
    a42c:	b02b0000 	eorlt	r0, fp, r0
    a430:	b2000093 	andlt	r0, r0, #147	; 0x93
    a434:	2900000c 	stmdbcs	r0, {r2, r3}
    a438:	0c055001 	stceq	0, cr5, [r5], {1}
    a43c:	20215064 	eorcs	r5, r1, r4, rrx
    a440:	f5240000 			; <UNDEFINED> instruction: 0xf5240000
    a444:	0100000a 	tsteq	r0, sl
    a448:	0000257f 	andeq	r2, r0, pc, ror r5
    a44c:	00938c00 	addseq	r8, r3, r0, lsl #24
    a450:	00001800 	andeq	r1, r0, r0, lsl #16
    a454:	ff9c0100 			; <UNDEFINED> instruction: 0xff9c0100
    a458:	2b00000a 	blcs	a488 <__bss_end__+0x3b8>
    a45c:	00009398 	muleq	r0, r8, r3
    a460:	00000cb2 			; <UNDEFINED> instruction: 0x00000cb2
    a464:	05500129 	ldrbeq	r0, [r0, #-297]	; 0xfffffed7
    a468:	2150640c 	cmpcs	r0, ip, lsl #8
    a46c:	26000020 	strcs	r0, [r0], -r0, lsr #32
    a470:	0000095b 	andeq	r0, r0, fp, asr r9
    a474:	92dc3a01 	sbcsls	r3, ip, #4096	; 0x1000
    a478:	00b00000 	adcseq	r0, r0, r0
    a47c:	9c010000 	stcls	0, cr0, [r1], {-0}
    a480:	00000c3d 	andeq	r0, r0, sp, lsr ip
    a484:	0092ec28 	addseq	lr, r2, r8, lsr #24
    a488:	000cbd00 	andeq	fp, ip, r0, lsl #26
    a48c:	000b2c00 	andeq	r2, fp, r0, lsl #24
    a490:	50012900 	andpl	r2, r1, r0, lsl #18
    a494:	01293e01 			; <UNDEFINED> instruction: 0x01293e01
    a498:	00320151 	eorseq	r0, r2, r1, asr r1
    a49c:	0092f828 	addseq	pc, r2, r8, lsr #16
    a4a0:	000cbd00 	andeq	fp, ip, r0, lsl #26
    a4a4:	000b4400 	andeq	r4, fp, r0, lsl #8
    a4a8:	50012900 	andpl	r2, r1, r0, lsl #18
    a4ac:	01293f01 			; <UNDEFINED> instruction: 0x01293f01
    a4b0:	00320151 	eorseq	r0, r2, r1, asr r1
    a4b4:	0092fc25 	addseq	pc, r2, r5, lsr #24
    a4b8:	000c9c00 	andeq	r9, ip, r0, lsl #24
    a4bc:	93082800 	movwls	r2, #34816	; 0x8800
    a4c0:	0c3d0000 	ldceq	0, cr0, [sp], #-0
    a4c4:	0b690000 	bleq	1a4a4cc <__bss_end__+0x1a403fc>
    a4c8:	01290000 			; <UNDEFINED> instruction: 0x01290000
    a4cc:	040c0550 	streq	r0, [ip], #-1360	; 0xfffffab0
    a4d0:	29202150 	stmdbcs	r0!, {r4, r6, r8, sp}
    a4d4:	31015101 	tstcc	r1, r1, lsl #2
    a4d8:	930c2500 	movwls	r2, #50432	; 0xc500
    a4dc:	0c9c0000 	ldceq	0, cr0, [ip], {0}
    a4e0:	1c280000 	stcne	0, cr0, [r8], #-0
    a4e4:	a7000093 			; <UNDEFINED> instruction: 0xa7000093
    a4e8:	8b00000c 	blhi	a520 <__bss_end__+0x450>
    a4ec:	2900000b 	stmdbcs	r0, {r0, r1, r3}
    a4f0:	74025001 	strvc	r5, [r2], #-1
    a4f4:	51012900 	tstpl	r1, r0, lsl #18
    a4f8:	28003001 	stmdacs	r0, {r0, ip, sp}
    a4fc:	00009328 	andeq	r9, r0, r8, lsr #6
    a500:	00000ca7 	andeq	r0, r0, r7, lsr #25
    a504:	00000ba7 	andeq	r0, r0, r7, lsr #23
    a508:	05500129 	ldrbeq	r0, [r0, #-297]	; 0xfffffed7
    a50c:	2150440c 	cmpcs	r0, ip, lsl #8
    a510:	51012920 	tstpl	r1, r0, lsr #18
    a514:	28003001 	stmdacs	r0, {r0, ip, sp}
    a518:	00009334 	andeq	r9, r0, r4, lsr r3
    a51c:	00000ca7 	andeq	r0, r0, r7, lsr #25
    a520:	00000bc3 	andeq	r0, r0, r3, asr #23
    a524:	05500129 	ldrbeq	r0, [r0, #-297]	; 0xfffffed7
    a528:	21504c0c 	cmpcs	r0, ip, lsl #24
    a52c:	51012920 	tstpl	r1, r0, lsr #18
    a530:	28003301 	stmdacs	r0, {r0, r8, r9, ip, sp}
    a534:	00009340 	andeq	r9, r0, r0, asr #6
    a538:	00000ca7 	andeq	r0, r0, r7, lsr #25
    a53c:	00000bdf 	ldrdeq	r0, [r0], -pc	; <UNPREDICTABLE>
    a540:	05500129 	ldrbeq	r0, [r0, #-297]	; 0xfffffed7
    a544:	2150500c 	cmpcs	r0, ip
    a548:	51012920 	tstpl	r1, r0, lsr #18
    a54c:	28003001 	stmdacs	r0, {r0, ip, sp}
    a550:	0000934c 	andeq	r9, r0, ip, asr #6
    a554:	00000ca7 	andeq	r0, r0, r7, lsr #25
    a558:	00000bfc 	strdeq	r0, [r0], -ip
    a55c:	05500129 	ldrbeq	r0, [r0, #-297]	; 0xfffffed7
    a560:	2150480c 	cmpcs	r0, ip, lsl #16
    a564:	51012920 	tstpl	r1, r0, lsr #18
    a568:	00c70802 	sbceq	r0, r7, r2, lsl #16
    a56c:	00935828 	addseq	r5, r3, r8, lsr #16
    a570:	000ca700 	andeq	sl, ip, r0, lsl #14
    a574:	000c1a00 	andeq	r1, ip, r0, lsl #20
    a578:	50012900 	andpl	r2, r1, r0, lsl #18
    a57c:	50680c05 	rsbpl	r0, r8, r5, lsl #24
    a580:	01292021 			; <UNDEFINED> instruction: 0x01292021
    a584:	0e0a0351 	mcreq	3, 0, r0, cr10, cr1, {2}
    a588:	64280001 	strtvs	r0, [r8], #-1
    a58c:	a7000093 			; <UNDEFINED> instruction: 0xa7000093
    a590:	3300000c 	movwcc	r0, #12
    a594:	2900000c 	stmdbcs	r0, {r2, r3}
    a598:	74025001 	strvc	r5, [r2], #-1
    a59c:	51012900 	tstpl	r1, r0, lsl #18
    a5a0:	25003301 	strcs	r3, [r0, #-769]	; 0xfffffcff
    a5a4:	00009368 	andeq	r9, r0, r8, ror #6
    a5a8:	00000c9c 	muleq	r0, ip, ip
    a5ac:	0b032c00 	bleq	d55b4 <__bss_end__+0xcb4e4>
    a5b0:	2d010000 	stccs	0, cr0, [r1, #-0]
    a5b4:	000092bc 			; <UNDEFINED> instruction: 0x000092bc
    a5b8:	00000020 	andeq	r0, r0, r0, lsr #32
    a5bc:	0c959c01 	ldceq	12, cr9, [r5], {1}
    a5c0:	5a2d0000 	bpl	b4a5c8 <__bss_end__+0xb404f8>
    a5c4:	0100000c 	tsteq	r0, ip
    a5c8:	000c952d 	andeq	r9, ip, sp, lsr #10
    a5cc:	00142400 	andseq	r2, r4, r0, lsl #8
    a5d0:	61762700 	cmnvs	r6, r0, lsl #14
    a5d4:	2d01006c 	stccs	0, cr0, [r1, #-432]	; 0xfffffe50
    a5d8:	0000002c 	andeq	r0, r0, ip, lsr #32
    a5dc:	00001442 	andeq	r1, r0, r2, asr #8
    a5e0:	0092cc28 	addseq	ip, r2, r8, lsr #24
    a5e4:	000cb200 	andeq	fp, ip, r0, lsl #4
    a5e8:	000c8400 	andeq	r8, ip, r0, lsl #8
    a5ec:	50012900 	andpl	r2, r1, r0, lsl #18
    a5f0:	00007402 	andeq	r7, r0, r2, lsl #8
    a5f4:	0092d82b 	addseq	sp, r2, fp, lsr #16
    a5f8:	000ca700 	andeq	sl, ip, r0, lsl #14
    a5fc:	50012900 	andpl	r2, r1, r0, lsl #18
    a600:	00007402 	andeq	r7, r0, r2, lsl #8
    a604:	9b040e00 	blls	10de0c <__bss_end__+0x103d3c>
    a608:	2e00000c 	cdpcs	0, 0, cr0, cr0, cr12, {0}
    a60c:	0009fa2f 	andeq	pc, r9, pc, lsr #20
    a610:	0009fa00 	andeq	pc, r9, r0, lsl #20
    a614:	2f890600 	svccs	0x00890600
    a618:	00000a64 	andeq	r0, r0, r4, ror #20
    a61c:	00000a64 	andeq	r0, r0, r4, ror #20
    a620:	ef2f9c06 	svc	0x002f9c06
    a624:	ef00000a 	svc	0x0000000a
    a628:	0600000a 	streq	r0, [r0], -sl
    a62c:	0a1e2fa8 	beq	7964d4 <__bss_end__+0x78c404>
    a630:	0a1e0000 	beq	78a638 <__bss_end__+0x780568>
    a634:	19080000 	stmdbne	r8, {}	; <UNPREDICTABLE>
    a638:	000b7000 	andeq	r7, fp, r0
    a63c:	71000400 	tstvc	r0, r0, lsl #8
    a640:	04000021 	streq	r0, [r0], #-33	; 0xffffffdf
    a644:	000a6a01 	andeq	r6, sl, r1, lsl #20
    a648:	0b670c00 	bleq	19cd650 <__bss_end__+0x19c3580>
    a64c:	09a10000 	stmibeq	r1!, {}	; <UNPREDICTABLE>
    a650:	94340000 	ldrtls	r0, [r4], #-0
    a654:	01200000 			; <UNDEFINED> instruction: 0x01200000
    a658:	1b3e0000 	blne	f8a660 <__bss_end__+0xf80590>
    a65c:	04020000 	streq	r0, [r2], #-0
    a660:	746e6905 	strbtvc	r6, [lr], #-2309	; 0xfffff6fb
    a664:	07040300 	streq	r0, [r4, -r0, lsl #6]
    a668:	00000066 	andeq	r0, r0, r6, rrx
    a66c:	00002c04 	andeq	r2, r0, r4, lsl #24
    a670:	06010300 	streq	r0, [r1], -r0, lsl #6
    a674:	000002de 	ldrdeq	r0, [r0], -lr
    a678:	77050203 	strvc	r0, [r5, -r3, lsl #4]
    a67c:	03000003 	movweq	r0, #3
    a680:	00ac0504 	adceq	r0, ip, r4, lsl #10
    a684:	08030000 	stmdaeq	r3, {}	; <UNPREDICTABLE>
    a688:	0000a705 	andeq	sl, r0, r5, lsl #14
    a68c:	08010300 	stmdaeq	r1, {r8, r9}
    a690:	000002dc 	ldrdeq	r0, [r0], -ip
    a694:	22070203 	andcs	r0, r7, #805306368	; 0x30000000
    a698:	03000002 	movweq	r0, #2
    a69c:	00610704 	rsbeq	r0, r1, r4, lsl #14
    a6a0:	08030000 	stmdaeq	r3, {}	; <UNPREDICTABLE>
    a6a4:	00005c07 	andeq	r5, r0, r7, lsl #24
    a6a8:	0a350500 	beq	d4bab0 <__bss_end__+0xd419e0>
    a6ac:	07020000 	streq	r0, [r2, -r0]
    a6b0:	00000025 	andeq	r0, r0, r5, lsr #32
    a6b4:	0002bd05 	andeq	fp, r2, r5, lsl #26
    a6b8:	462c0300 	strtmi	r0, [ip], -r0, lsl #6
    a6bc:	05000000 	streq	r0, [r0, #-0]
    a6c0:	00000436 	andeq	r0, r0, r6, lsr r4
    a6c4:	00467203 	subeq	r7, r6, r3, lsl #4
    a6c8:	6d060000 	stcvs	0, cr0, [r6, #-0]
    a6cc:	04000002 	streq	r0, [r0], #-2
    a6d0:	002c0165 	eoreq	r0, ip, r5, ror #2
    a6d4:	04070000 	streq	r0, [r7], #-0
    a6d8:	00bca603 	adcseq	sl, ip, r3, lsl #12
    a6dc:	5f080000 	svcpl	0x00080000
    a6e0:	03000002 	movweq	r0, #2
    a6e4:	000091a8 	andeq	r9, r0, r8, lsr #3
    a6e8:	01e20800 	mvneq	r0, r0, lsl #16
    a6ec:	a9030000 	stmdbge	r3, {}	; <UNPREDICTABLE>
    a6f0:	000000bc 	strheq	r0, [r0], -ip
    a6f4:	00540900 	subseq	r0, r4, r0, lsl #18
    a6f8:	00cc0000 	sbceq	r0, ip, r0
    a6fc:	cc0a0000 	stcgt	0, cr0, [sl], {-0}
    a700:	03000000 	movweq	r0, #0
    a704:	07040300 	streq	r0, [r4, -r0, lsl #6]
    a708:	00000a15 	andeq	r0, r0, r5, lsl sl
    a70c:	a303080b 	movwge	r0, #14347	; 0x380b
    a710:	000000f4 	strdeq	r0, [r0], -r4
    a714:	0004190c 	andeq	r1, r4, ip, lsl #18
    a718:	25a50300 	strcs	r0, [r5, #768]!	; 0x300
    a71c:	00000000 	andeq	r0, r0, r0
    a720:	0004280c 	andeq	r2, r4, ip, lsl #16
    a724:	9daa0300 	stcls	3, cr0, [sl]
    a728:	04000000 	streq	r0, [r0], #-0
    a72c:	03a30500 			; <UNDEFINED> instruction: 0x03a30500
    a730:	ab030000 	blge	ca738 <__bss_end__+0xc0668>
    a734:	000000d3 	ldrdeq	r0, [r0], -r3
    a738:	00019f05 	andeq	r9, r1, r5, lsl #30
    a73c:	70af0300 	adcvc	r0, pc, r0, lsl #6
    a740:	0d000000 	stceq	0, cr0, [r0, #-0]
    a744:	12040e04 	andne	r0, r4, #4, 28	; 0x40
    a748:	03000001 	movweq	r0, #1
    a74c:	02e50801 	rsceq	r0, r5, #65536	; 0x10000
    a750:	12040000 	andne	r0, r4, #0
    a754:	05000001 	streq	r0, [r0, #-1]
    a758:	00000468 	andeq	r0, r0, r8, ror #8
    a75c:	00621605 	rsbeq	r1, r2, r5, lsl #12
    a760:	b00f0000 	andlt	r0, pc, r0
    a764:	18000001 	stmdane	r0, {r0}
    a768:	017c2d05 	cmneq	ip, r5, lsl #26
    a76c:	c40c0000 	strgt	r0, [ip], #-0
    a770:	05000003 	streq	r0, [r0, #-3]
    a774:	00017c2f 	andeq	r7, r1, pc, lsr #24
    a778:	5f100000 	svcpl	0x00100000
    a77c:	3005006b 	andcc	r0, r5, fp, rrx
    a780:	00000025 	andeq	r0, r0, r5, lsr #32
    a784:	04040c04 	streq	r0, [r4], #-3076	; 0xfffff3fc
    a788:	30050000 	andcc	r0, r5, r0
    a78c:	00000025 	andeq	r0, r0, r5, lsr #32
    a790:	01990c08 	orrseq	r0, r9, r8, lsl #24
    a794:	30050000 	andcc	r0, r5, r0
    a798:	00000025 	andeq	r0, r0, r5, lsr #32
    a79c:	04a80c0c 	strteq	r0, [r8], #3084	; 0xc0c
    a7a0:	30050000 	andcc	r0, r5, r0
    a7a4:	00000025 	andeq	r0, r0, r5, lsr #32
    a7a8:	785f1010 	ldmdavc	pc, {r4, ip}^	; <UNPREDICTABLE>
    a7ac:	82310500 	eorshi	r0, r1, #0, 10
    a7b0:	14000001 	strne	r0, [r0], #-1
    a7b4:	29040e00 	stmdbcs	r4, {r9, sl, fp}
    a7b8:	09000001 	stmdbeq	r0, {r0}
    a7bc:	0000011e 	andeq	r0, r0, lr, lsl r1
    a7c0:	00000192 	muleq	r0, r2, r1
    a7c4:	0000cc0a 	andeq	ip, r0, sl, lsl #24
    a7c8:	0f000000 	svceq	0x00000000
    a7cc:	000001dd 	ldrdeq	r0, [r0], -sp
    a7d0:	0b350524 	bleq	d4bc68 <__bss_end__+0xd41b98>
    a7d4:	0c000002 	stceq	0, cr0, [r0], {2}
    a7d8:	0000009e 	muleq	r0, lr, r0
    a7dc:	00253705 	eoreq	r3, r5, r5, lsl #14
    a7e0:	0c000000 	stceq	0, cr0, [r0], {-0}
    a7e4:	0000043e 	andeq	r0, r0, lr, lsr r4
    a7e8:	00253805 	eoreq	r3, r5, r5, lsl #16
    a7ec:	0c040000 	stceq	0, cr0, [r4], {-0}
    a7f0:	000000c1 	andeq	r0, r0, r1, asr #1
    a7f4:	00253905 	eoreq	r3, r5, r5, lsl #18
    a7f8:	0c080000 	stceq	0, cr0, [r8], {-0}
    a7fc:	00000533 	andeq	r0, r0, r3, lsr r5
    a800:	00253a05 	eoreq	r3, r5, r5, lsl #20
    a804:	0c0c0000 	stceq	0, cr0, [ip], {-0}
    a808:	000002a1 	andeq	r0, r0, r1, lsr #5
    a80c:	00253b05 	eoreq	r3, r5, r5, lsl #22
    a810:	0c100000 	ldceq	0, cr0, [r0], {-0}
    a814:	00000283 	andeq	r0, r0, r3, lsl #5
    a818:	00253c05 	eoreq	r3, r5, r5, lsl #24
    a81c:	0c140000 	ldceq	0, cr0, [r4], {-0}
    a820:	000004ad 	andeq	r0, r0, sp, lsr #9
    a824:	00253d05 	eoreq	r3, r5, r5, lsl #26
    a828:	0c180000 	ldceq	0, cr0, [r8], {-0}
    a82c:	00000529 	andeq	r0, r0, r9, lsr #10
    a830:	00253e05 	eoreq	r3, r5, r5, lsl #28
    a834:	0c1c0000 	ldceq	0, cr0, [ip], {-0}
    a838:	000004f0 	strdeq	r0, [r0], -r0	; <UNPREDICTABLE>
    a83c:	00253f05 	eoreq	r3, r5, r5, lsl #30
    a840:	00200000 	eoreq	r0, r0, r0
    a844:	00010111 	andeq	r0, r1, r1, lsl r1
    a848:	05010800 	streq	r0, [r1, #-2048]	; 0xfffff800
    a84c:	00024b48 	andeq	r4, r2, r8, asr #22
    a850:	018c0c00 	orreq	r0, ip, r0, lsl #24
    a854:	49050000 	stmdbmi	r5, {}	; <UNPREDICTABLE>
    a858:	0000024b 	andeq	r0, r0, fp, asr #4
    a85c:	00000c00 	andeq	r0, r0, r0, lsl #24
    a860:	4a050000 	bmi	14a868 <__bss_end__+0x140798>
    a864:	0000024b 	andeq	r0, r0, fp, asr #4
    a868:	045a1280 	ldrbeq	r1, [sl], #-640	; 0xfffffd80
    a86c:	4c050000 	stcmi	0, cr0, [r5], {-0}
    a870:	0000011e 	andeq	r0, r0, lr, lsl r1
    a874:	26120100 	ldrcs	r0, [r2], -r0, lsl #2
    a878:	05000001 	streq	r0, [r0, #-1]
    a87c:	00011e4f 	andeq	r1, r1, pc, asr #28
    a880:	00010400 	andeq	r0, r1, r0, lsl #8
    a884:	00010a09 	andeq	r0, r1, r9, lsl #20
    a888:	00025b00 	andeq	r5, r2, r0, lsl #22
    a88c:	00cc0a00 	sbceq	r0, ip, r0, lsl #20
    a890:	001f0000 	andseq	r0, pc, r0
    a894:	0002aa11 	andeq	sl, r2, r1, lsl sl
    a898:	05019000 	streq	r9, [r1, #-0]
    a89c:	0002995b 	andeq	r9, r2, fp, asr r9
    a8a0:	03c40c00 	biceq	r0, r4, #0, 24
    a8a4:	5c050000 	stcpl	0, cr0, [r5], {-0}
    a8a8:	00000299 	muleq	r0, r9, r2
    a8ac:	03dc0c00 	bicseq	r0, ip, #0, 24
    a8b0:	5d050000 	stcpl	0, cr0, [r5, #-0]
    a8b4:	00000025 	andeq	r0, r0, r5, lsr #32
    a8b8:	01940c04 	orrseq	r0, r4, r4, lsl #24
    a8bc:	5f050000 	svcpl	0x00050000
    a8c0:	0000029f 	muleq	r0, pc, r2	; <UNPREDICTABLE>
    a8c4:	01010c08 	tsteq	r1, r8, lsl #24
    a8c8:	60050000 	andvs	r0, r5, r0
    a8cc:	0000020b 	andeq	r0, r0, fp, lsl #4
    a8d0:	040e0088 	streq	r0, [lr], #-136	; 0xffffff78
    a8d4:	0000025b 	andeq	r0, r0, fp, asr r2
    a8d8:	0002af09 	andeq	sl, r2, r9, lsl #30
    a8dc:	0002af00 	andeq	sl, r2, r0, lsl #30
    a8e0:	00cc0a00 	sbceq	r0, ip, r0, lsl #20
    a8e4:	001f0000 	andseq	r0, pc, r0
    a8e8:	02b5040e 	adcseq	r0, r5, #234881024	; 0xe000000
    a8ec:	0f130000 	svceq	0x00130000
    a8f0:	0000038f 	andeq	r0, r0, pc, lsl #7
    a8f4:	db730508 	blle	1ccbd1c <__bss_end__+0x1cc1c4c>
    a8f8:	0c000002 	stceq	0, cr0, [r0], {2}
    a8fc:	000000bb 	strheq	r0, [r0], -fp
    a900:	02db7405 	sbcseq	r7, fp, #83886080	; 0x5000000
    a904:	0c000000 	stceq	0, cr0, [r0], {-0}
    a908:	0000001b 	andeq	r0, r0, fp, lsl r0
    a90c:	00257505 	eoreq	r7, r5, r5, lsl #10
    a910:	00040000 	andeq	r0, r4, r0
    a914:	0054040e 	subseq	r0, r4, lr, lsl #8
    a918:	ae0f0000 	cdpge	0, 0, cr0, cr15, cr0, {0}
    a91c:	68000003 	stmdavs	r0, {r0, r1}
    a920:	040bb305 	streq	fp, [fp], #-773	; 0xfffffcfb
    a924:	5f100000 	svcpl	0x00100000
    a928:	b4050070 	strlt	r0, [r5], #-112	; 0xffffff90
    a92c:	000002db 	ldrdeq	r0, [r0], -fp
    a930:	725f1000 	subsvc	r1, pc, #0
    a934:	25b50500 	ldrcs	r0, [r5, #1280]!	; 0x500
    a938:	04000000 	streq	r0, [r0], #-0
    a93c:	00775f10 	rsbseq	r5, r7, r0, lsl pc
    a940:	0025b605 	eoreq	fp, r5, r5, lsl #12
    a944:	0c080000 	stceq	0, cr0, [r8], {-0}
    a948:	0000011f 	andeq	r0, r0, pc, lsl r1
    a94c:	003fb705 	eorseq	fp, pc, r5, lsl #14
    a950:	0c0c0000 	stceq	0, cr0, [ip], {-0}
    a954:	00000208 	andeq	r0, r0, r8, lsl #4
    a958:	003fb805 	eorseq	fp, pc, r5, lsl #16
    a95c:	100e0000 	andne	r0, lr, r0
    a960:	0066625f 	rsbeq	r6, r6, pc, asr r2
    a964:	02b6b905 	adcseq	fp, r6, #81920	; 0x14000
    a968:	0c100000 	ldceq	0, cr0, [r0], {-0}
    a96c:	0000007b 	andeq	r0, r0, fp, ror r0
    a970:	0025ba05 	eoreq	fp, r5, r5, lsl #20
    a974:	0c180000 	ldceq	0, cr0, [r8], {-0}
    a978:	0000010f 	andeq	r0, r0, pc, lsl #2
    a97c:	010ac105 	tsteq	sl, r5, lsl #2
    a980:	0c1c0000 	ldceq	0, cr0, [ip], {-0}
    a984:	00000b72 	andeq	r0, r0, r2, ror fp
    a988:	0566c305 	strbeq	ip, [r6, #-773]!	; 0xfffffcfb
    a98c:	0c200000 	stceq	0, cr0, [r0], #-0
    a990:	00000636 	andeq	r0, r0, r6, lsr r6
    a994:	0590c505 	ldreq	ip, [r0, #1285]	; 0x505
    a998:	0c240000 	stceq	0, cr0, [r4], #-0
    a99c:	00000430 	andeq	r0, r0, r0, lsr r4
    a9a0:	05b4c805 	ldreq	ip, [r4, #2053]!	; 0x805
    a9a4:	0c280000 	stceq	0, cr0, [r8], #-0
    a9a8:	0000050a 	andeq	r0, r0, sl, lsl #10
    a9ac:	05cec905 	strbeq	ip, [lr, #2309]	; 0x905
    a9b0:	102c0000 	eorne	r0, ip, r0
    a9b4:	0062755f 	rsbeq	r7, r2, pc, asr r5
    a9b8:	02b6cc05 	adcseq	ip, r6, #1280	; 0x500
    a9bc:	10300000 	eorsne	r0, r0, r0
    a9c0:	0070755f 	rsbseq	r7, r0, pc, asr r5
    a9c4:	02dbcd05 	sbcseq	ip, fp, #320	; 0x140
    a9c8:	10380000 	eorsne	r0, r8, r0
    a9cc:	0072755f 	rsbseq	r7, r2, pc, asr r5
    a9d0:	0025ce05 	eoreq	ip, r5, r5, lsl #28
    a9d4:	0c3c0000 	ldceq	0, cr0, [ip], #-0
    a9d8:	000000b5 	strheq	r0, [r0], -r5
    a9dc:	05d4d105 	ldrbeq	sp, [r4, #261]	; 0x105
    a9e0:	0c400000 	mareq	acc0, r0, r0
    a9e4:	000004e2 	andeq	r0, r0, r2, ror #9
    a9e8:	05e4d205 	strbeq	sp, [r4, #517]!	; 0x205
    a9ec:	10430000 	subne	r0, r3, r0
    a9f0:	00626c5f 	rsbeq	r6, r2, pc, asr ip
    a9f4:	02b6d505 	adcseq	sp, r6, #20971520	; 0x1400000
    a9f8:	0c440000 	mareq	acc0, r0, r4
    a9fc:	0000013d 	andeq	r0, r0, sp, lsr r1
    aa00:	0025d805 	eoreq	sp, r5, r5, lsl #16
    aa04:	0c4c0000 	mareq	acc0, r0, ip
    aa08:	0000014e 	andeq	r0, r0, lr, asr #2
    aa0c:	007bd905 	rsbseq	sp, fp, r5, lsl #18
    aa10:	0c500000 	mraeq	r0, r0, acc0
    aa14:	00000b13 	andeq	r0, r0, r3, lsl fp
    aa18:	0429dc05 	strteq	sp, [r9], #-3077	; 0xfffff3fb
    aa1c:	0c540000 	mraeq	r0, r4, acc0
    aa20:	00000422 	andeq	r0, r0, r2, lsr #8
    aa24:	00ffe005 	rscseq	lr, pc, r5
    aa28:	0c580000 	mraeq	r0, r8, acc0
    aa2c:	000003b6 			; <UNDEFINED> instruction: 0x000003b6
    aa30:	00f4e205 	rscseq	lr, r4, r5, lsl #4
    aa34:	0c5c0000 	mraeq	r0, ip, acc0
    aa38:	0000027b 	andeq	r0, r0, fp, ror r2
    aa3c:	0025e305 	eoreq	lr, r5, r5, lsl #6
    aa40:	00640000 	rsbeq	r0, r4, r0
    aa44:	00002514 	andeq	r2, r0, r4, lsl r5
    aa48:	00042900 	andeq	r2, r4, r0, lsl #18
    aa4c:	04291500 	strteq	r1, [r9], #-1280	; 0xfffffb00
    aa50:	0a150000 	beq	54aa58 <__bss_end__+0x540988>
    aa54:	15000001 	strne	r0, [r0, #-1]
    aa58:	0000010c 	andeq	r0, r0, ip, lsl #2
    aa5c:	00002515 	andeq	r2, r0, r5, lsl r5
    aa60:	040e0000 	streq	r0, [lr], #-0
    aa64:	00000434 	andeq	r0, r0, r4, lsr r4
    aa68:	00042904 	andeq	r2, r4, r4, lsl #18
    aa6c:	040c1600 	streq	r1, [ip], #-1536	; 0xfffffa00
    aa70:	04280000 	strteq	r0, [r8], #-0
    aa74:	66023805 	strvs	r3, [r2], -r5, lsl #16
    aa78:	17000005 	strne	r0, [r0, -r5]
    aa7c:	00000370 	andeq	r0, r0, r0, ror r3
    aa80:	25023a05 	strcs	r3, [r2, #-2565]	; 0xfffff5fb
    aa84:	00000000 	andeq	r0, r0, r0
    aa88:	00012e17 	andeq	r2, r1, r7, lsl lr
    aa8c:	023f0500 	eorseq	r0, pc, #0, 10
    aa90:	0000063b 	andeq	r0, r0, fp, lsr r6
    aa94:	01f81704 	mvnseq	r1, r4, lsl #14
    aa98:	3f050000 	svccc	0x00050000
    aa9c:	00063b02 	andeq	r3, r6, r2, lsl #22
    aaa0:	a8170800 	ldmdage	r7, {fp}
    aaa4:	05000001 	streq	r0, [r0, #-1]
    aaa8:	063b023f 			; <UNDEFINED> instruction: 0x063b023f
    aaac:	170c0000 	strne	r0, [ip, -r0]
    aab0:	000003d7 	ldrdeq	r0, [r0], -r7
    aab4:	25024105 	strcs	r4, [r2, #-261]	; 0xfffffefb
    aab8:	10000000 	andne	r0, r0, r0
    aabc:	00002917 	andeq	r2, r0, r7, lsl r9
    aac0:	02420500 	subeq	r0, r2, #0, 10
    aac4:	0000081d 	andeq	r0, r0, sp, lsl r8
    aac8:	0acc1714 	beq	ff310720 <__bss_end__+0xff306650>
    aacc:	44050000 	strmi	r0, [r5], #-0
    aad0:	00002502 	andeq	r2, r0, r2, lsl #10
    aad4:	47173000 	ldrmi	r3, [r7, -r0]
    aad8:	0500000a 	streq	r0, [r0, #-10]
    aadc:	058a0245 	streq	r0, [sl, #581]	; 0x245
    aae0:	17340000 	ldrne	r0, [r4, -r0]!
    aae4:	000002b2 			; <UNDEFINED> instruction: 0x000002b2
    aae8:	25024705 	strcs	r4, [r2, #-1797]	; 0xfffff8fb
    aaec:	38000000 	stmdacc	r0, {}	; <UNPREDICTABLE>
    aaf0:	0003e117 	andeq	lr, r3, r7, lsl r1
    aaf4:	02490500 	subeq	r0, r9, #0, 10
    aaf8:	00000838 	andeq	r0, r0, r8, lsr r8
    aafc:	0257173c 	subseq	r1, r7, #60, 14	; 0xf00000
    ab00:	4c050000 	stcmi	0, cr0, [r5], {-0}
    ab04:	00017c02 	andeq	r7, r1, r2, lsl #24
    ab08:	c7174000 	ldrgt	r4, [r7, -r0]
    ab0c:	05000001 	streq	r0, [r0, #-1]
    ab10:	0025024d 	eoreq	r0, r5, sp, asr #4
    ab14:	17440000 	strbne	r0, [r4, -r0]
    ab18:	00000524 	andeq	r0, r0, r4, lsr #10
    ab1c:	7c024e05 	stcvc	14, cr4, [r2], {5}
    ab20:	48000001 	stmdami	r0, {r0}
    ab24:	0002c417 	andeq	ip, r2, r7, lsl r4
    ab28:	024f0500 	subeq	r0, pc, #0, 10
    ab2c:	0000083e 	andeq	r0, r0, lr, lsr r8
    ab30:	0200174c 	andeq	r1, r0, #76, 14	; 0x1300000
    ab34:	52050000 	andpl	r0, r5, #0
    ab38:	00002502 	andeq	r2, r0, r2, lsl #10
    ab3c:	46175000 	ldrmi	r5, [r7], -r0
    ab40:	05000001 	streq	r0, [r0, #-1]
    ab44:	010c0253 	tsteq	ip, r3, asr r2
    ab48:	17540000 	ldrbne	r0, [r4, -r0]
    ab4c:	000002ea 	andeq	r0, r0, sl, ror #5
    ab50:	fb027605 	blx	a836e <__bss_end__+0x9e29e>
    ab54:	58000007 	stmdapl	r0, {r0, r1, r2}
    ab58:	0002aa18 	andeq	sl, r2, r8, lsl sl
    ab5c:	027a0500 	rsbseq	r0, sl, #0, 10
    ab60:	00000299 	muleq	r0, r9, r2
    ab64:	35180148 	ldrcc	r0, [r8, #-328]	; 0xfffffeb8
    ab68:	05000002 	streq	r0, [r0, #-2]
    ab6c:	025b027b 	subseq	r0, fp, #-1342177273	; 0xb0000007
    ab70:	014c0000 	mrseq	r0, (UNDEF: 76)
    ab74:	0004d018 	andeq	sp, r4, r8, lsl r0
    ab78:	027f0500 	rsbseq	r0, pc, #0, 10
    ab7c:	0000084f 	andeq	r0, r0, pc, asr #16
    ab80:	171802dc 			; <UNDEFINED> instruction: 0x171802dc
    ab84:	05000001 	streq	r0, [r0, #-1]
    ab88:	06000284 	streq	r0, [r0], -r4, lsl #5
    ab8c:	02e00000 	rsceq	r0, r0, #0
    ab90:	0000fc18 	andeq	pc, r0, r8, lsl ip	; <UNPREDICTABLE>
    ab94:	02850500 	addeq	r0, r5, #0, 10
    ab98:	0000085b 	andeq	r0, r0, fp, asr r8
    ab9c:	0e0002ec 	cdpeq	2, 0, cr0, cr0, cr12, {7}
    aba0:	00040b04 	andeq	r0, r4, r4, lsl #22
    aba4:	00251400 	eoreq	r1, r5, r0, lsl #8
    aba8:	058a0000 	streq	r0, [sl]
    abac:	29150000 	ldmdbcs	r5, {}	; <UNPREDICTABLE>
    abb0:	15000004 	strne	r0, [r0, #-4]
    abb4:	0000010a 	andeq	r0, r0, sl, lsl #2
    abb8:	00058a15 	andeq	r8, r5, r5, lsl sl
    abbc:	00251500 	eoreq	r1, r5, r0, lsl #10
    abc0:	0e000000 	cdpeq	0, 0, cr0, cr0, cr0, {0}
    abc4:	00011904 	andeq	r1, r1, r4, lsl #18
    abc8:	6c040e00 	stcvs	14, cr0, [r4], {-0}
    abcc:	14000005 	strne	r0, [r0], #-5
    abd0:	00000086 	andeq	r0, r0, r6, lsl #1
    abd4:	000005b4 			; <UNDEFINED> instruction: 0x000005b4
    abd8:	00042915 	andeq	r2, r4, r5, lsl r9
    abdc:	010a1500 	tsteq	sl, r0, lsl #10
    abe0:	86150000 	ldrhi	r0, [r5], -r0
    abe4:	15000000 	strne	r0, [r0, #-0]
    abe8:	00000025 	andeq	r0, r0, r5, lsr #32
    abec:	96040e00 	strls	r0, [r4], -r0, lsl #28
    abf0:	14000005 	strne	r0, [r0], #-5
    abf4:	00000025 	andeq	r0, r0, r5, lsr #32
    abf8:	000005ce 	andeq	r0, r0, lr, asr #11
    abfc:	00042915 	andeq	r2, r4, r5, lsl r9
    ac00:	010a1500 	tsteq	sl, r0, lsl #10
    ac04:	0e000000 	cdpeq	0, 0, cr0, cr0, cr0, {0}
    ac08:	0005ba04 	andeq	fp, r5, r4, lsl #20
    ac0c:	00540900 	subseq	r0, r4, r0, lsl #18
    ac10:	05e40000 	strbeq	r0, [r4, #0]!
    ac14:	cc0a0000 	stcgt	0, cr0, [sl], {-0}
    ac18:	02000000 	andeq	r0, r0, #0
    ac1c:	00540900 	subseq	r0, r4, r0, lsl #18
    ac20:	05f40000 	ldrbeq	r0, [r4, #0]!
    ac24:	cc0a0000 	stcgt	0, cr0, [sl], {-0}
    ac28:	00000000 	andeq	r0, r0, r0
    ac2c:	039c0600 	orrseq	r0, ip, #0, 12
    ac30:	1d050000 	stcne	0, cr0, [r5, #-0]
    ac34:	0002e101 	andeq	lr, r2, r1, lsl #2
    ac38:	04b71900 	ldrteq	r1, [r7], #2304	; 0x900
    ac3c:	050c0000 	streq	r0, [ip, #-0]
    ac40:	06350121 	ldrteq	r0, [r5], -r1, lsr #2
    ac44:	c4170000 	ldrgt	r0, [r7], #-0
    ac48:	05000003 	streq	r0, [r0, #-3]
    ac4c:	06350123 	ldrteq	r0, [r5], -r3, lsr #2
    ac50:	17000000 	strne	r0, [r0, -r0]
    ac54:	0000021b 	andeq	r0, r0, fp, lsl r2
    ac58:	25012405 	strcs	r2, [r1, #-1029]	; 0xfffffbfb
    ac5c:	04000000 	streq	r0, [r0], #-0
    ac60:	00039617 	andeq	r9, r3, r7, lsl r6
    ac64:	01250500 			; <UNDEFINED> instruction: 0x01250500
    ac68:	0000063b 	andeq	r0, r0, fp, lsr r6
    ac6c:	040e0008 	streq	r0, [lr], #-8
    ac70:	00000600 	andeq	r0, r0, r0, lsl #12
    ac74:	05f4040e 	ldrbeq	r0, [r4, #1038]!	; 0x40e
    ac78:	21190000 	tstcs	r9, r0
    ac7c:	0e000000 	cdpeq	0, 0, cr0, cr0, cr0, {0}
    ac80:	76013d05 	strvc	r3, [r1], -r5, lsl #26
    ac84:	17000006 	strne	r0, [r0, -r6]
    ac88:	00000413 	andeq	r0, r0, r3, lsl r4
    ac8c:	76013e05 	strvc	r3, [r1], -r5, lsl #28
    ac90:	00000006 	andeq	r0, r0, r6
    ac94:	00044717 	andeq	r4, r4, r7, lsl r7
    ac98:	013f0500 	teqeq	pc, r0, lsl #10
    ac9c:	00000676 	andeq	r0, r0, r6, ror r6
    aca0:	04631706 	strbteq	r1, [r3], #-1798	; 0xfffff8fa
    aca4:	40050000 	andmi	r0, r5, r0
    aca8:	00005b01 	andeq	r5, r0, r1, lsl #22
    acac:	09000c00 	stmdbeq	r0, {sl, fp}
    acb0:	0000005b 	andeq	r0, r0, fp, asr r0
    acb4:	00000686 	andeq	r0, r0, r6, lsl #13
    acb8:	0000cc0a 	andeq	ip, r0, sl, lsl #24
    acbc:	1a000200 	bne	b4c4 <__bss_end__+0x13f4>
    acc0:	025705d0 	subseq	r0, r7, #208, 10	; 0x34000000
    acc4:	00000787 	andeq	r0, r0, r7, lsl #15
    acc8:	00049b17 	andeq	r9, r4, r7, lsl fp
    accc:	02590500 	subseq	r0, r9, #0, 10
    acd0:	0000002c 	andeq	r0, r0, ip, lsr #32
    acd4:	044d1700 	strbeq	r1, [sp], #-1792	; 0xfffff900
    acd8:	5a050000 	bpl	14ace0 <__bss_end__+0x140c10>
    acdc:	00010c02 	andeq	r0, r1, r2, lsl #24
    ace0:	4a170400 	bmi	5cbce8 <__bss_end__+0x5c1c18>
    ace4:	05000002 	streq	r0, [r0, #-2]
    ace8:	0787025b 			; <UNDEFINED> instruction: 0x0787025b
    acec:	17080000 	strne	r0, [r8, -r0]
    acf0:	000004fb 	strdeq	r0, [r0], -fp
    acf4:	92025c05 	andls	r5, r2, #1280	; 0x500
    acf8:	24000001 	strcs	r0, [r0], #-1
    acfc:	0001b817 	andeq	fp, r1, r7, lsl r8
    ad00:	025d0500 	subseq	r0, sp, #0, 10
    ad04:	00000025 	andeq	r0, r0, r5, lsr #32
    ad08:	03bf1748 			; <UNDEFINED> instruction: 0x03bf1748
    ad0c:	5e050000 	cdppl	0, 0, cr0, cr5, cr0, {0}
    ad10:	00006902 	andeq	r6, r0, r2, lsl #18
    ad14:	11175000 	tstne	r7, r0
    ad18:	05000005 	streq	r0, [r0, #-5]
    ad1c:	0641025f 			; <UNDEFINED> instruction: 0x0641025f
    ad20:	17580000 	ldrbne	r0, [r8, -r0]
    ad24:	000003ca 	andeq	r0, r0, sl, asr #7
    ad28:	f4026005 	vst4.8	{d6-d9}, [r2], r5
    ad2c:	68000000 	stmdavs	r0, {}	; <UNPREDICTABLE>
    ad30:	00051617 	andeq	r1, r5, r7, lsl r6
    ad34:	02610500 	rsbeq	r0, r1, #0, 10
    ad38:	000000f4 	strdeq	r0, [r0], -r4
    ad3c:	02ce1770 	sbceq	r1, lr, #112, 14	; 0x1c00000
    ad40:	62050000 	andvs	r0, r5, #0
    ad44:	0000f402 	andeq	pc, r0, r2, lsl #8
    ad48:	c6177800 	ldrgt	r7, [r7], -r0, lsl #16
    ad4c:	05000004 	streq	r0, [r0, #-4]
    ad50:	07970263 	ldreq	r0, [r7, r3, ror #4]
    ad54:	17800000 	strne	r0, [r0, r0]
    ad58:	0000023e 	andeq	r0, r0, lr, lsr r2
    ad5c:	a7026405 	strge	r6, [r2, -r5, lsl #8]
    ad60:	88000007 	stmdahi	r0, {r0, r1, r2}
    ad64:	00047017 	andeq	r7, r4, r7, lsl r0
    ad68:	02650500 	rsbeq	r0, r5, #0, 10
    ad6c:	00000025 	andeq	r0, r0, r5, lsr #32
    ad70:	017e17a0 	cmneq	lr, r0, lsr #15
    ad74:	66050000 	strvs	r0, [r5], -r0
    ad78:	0000f402 	andeq	pc, r0, r2, lsl #8
    ad7c:	8f17a400 	svchi	0x0017a400
    ad80:	05000000 	streq	r0, [r0, #-0]
    ad84:	00f40267 	rscseq	r0, r4, r7, ror #4
    ad88:	17ac0000 	strne	r0, [ip, r0]!
    ad8c:	0000016d 	andeq	r0, r0, sp, ror #2
    ad90:	f4026805 	vst2.8	{d6-d7}, [r2], r5
    ad94:	b4000000 	strlt	r0, [r0], #-0
    ad98:	00003c17 	andeq	r3, r0, r7, lsl ip
    ad9c:	02690500 	rsbeq	r0, r9, #0, 10
    ada0:	000000f4 	strdeq	r0, [r0], -r4
    ada4:	004b17bc 	strheq	r1, [fp], #-124	; 0xffffff84
    ada8:	6a050000 	bvs	14adb0 <__bss_end__+0x140ce0>
    adac:	0000f402 	andeq	pc, r0, r2, lsl #8
    adb0:	6e17c400 	cfmulsvs	mvf12, mvf7, mvf0
    adb4:	05000003 	streq	r0, [r0, #-3]
    adb8:	0025026b 	eoreq	r0, r5, fp, ror #4
    adbc:	00cc0000 	sbceq	r0, ip, r0
    adc0:	00011209 	andeq	r1, r1, r9, lsl #4
    adc4:	00079700 	andeq	r9, r7, r0, lsl #14
    adc8:	00cc0a00 	sbceq	r0, ip, r0, lsl #20
    adcc:	00190000 	andseq	r0, r9, r0
    add0:	00011209 	andeq	r1, r1, r9, lsl #4
    add4:	0007a700 	andeq	sl, r7, r0, lsl #14
    add8:	00cc0a00 	sbceq	r0, ip, r0, lsl #20
    addc:	00070000 	andeq	r0, r7, r0
    ade0:	00011209 	andeq	r1, r1, r9, lsl #4
    ade4:	0007b700 	andeq	fp, r7, r0, lsl #14
    ade8:	00cc0a00 	sbceq	r0, ip, r0, lsl #20
    adec:	00170000 	andseq	r0, r7, r0
    adf0:	7005f01a 	andvc	pc, r5, sl, lsl r0	; <UNPREDICTABLE>
    adf4:	0007db02 	andeq	sp, r7, r2, lsl #22
    adf8:	029a1700 	addseq	r1, sl, #0, 14
    adfc:	73050000 	movwvc	r0, #20480	; 0x5000
    ae00:	0007db02 	andeq	sp, r7, r2, lsl #22
    ae04:	bd170000 	ldclt	0, cr0, [r7, #-0]
    ae08:	05000004 	streq	r0, [r0, #-4]
    ae0c:	07eb0274 			; <UNDEFINED> instruction: 0x07eb0274
    ae10:	00780000 	rsbseq	r0, r8, r0
    ae14:	0002db09 	andeq	sp, r2, r9, lsl #22
    ae18:	0007eb00 	andeq	lr, r7, r0, lsl #22
    ae1c:	00cc0a00 	sbceq	r0, ip, r0, lsl #20
    ae20:	001d0000 	andseq	r0, sp, r0
    ae24:	00002c09 	andeq	r2, r0, r9, lsl #24
    ae28:	0007fb00 	andeq	pc, r7, r0, lsl #22
    ae2c:	00cc0a00 	sbceq	r0, ip, r0, lsl #20
    ae30:	001d0000 	andseq	r0, sp, r0
    ae34:	5505f01b 	strpl	pc, [r5, #-27]	; 0xffffffe5
    ae38:	00081d02 	andeq	r1, r8, r2, lsl #26
    ae3c:	040c1c00 	streq	r1, [ip], #-3072	; 0xfffff400
    ae40:	6c050000 	stcvs	0, cr0, [r5], {-0}
    ae44:	00068602 	andeq	r8, r6, r2, lsl #12
    ae48:	04e81c00 	strbteq	r1, [r8], #3072	; 0xc00
    ae4c:	75050000 	strvc	r0, [r5, #-0]
    ae50:	0007b702 	andeq	fp, r7, r2, lsl #14
    ae54:	12090000 	andne	r0, r9, #0
    ae58:	2d000001 	stccs	0, cr0, [r0, #-4]
    ae5c:	0a000008 	beq	ae84 <__bss_end__+0xdb4>
    ae60:	000000cc 	andeq	r0, r0, ip, asr #1
    ae64:	381d0018 	ldmdacc	sp, {r3, r4}
    ae68:	15000008 	strne	r0, [r0, #-8]
    ae6c:	00000429 	andeq	r0, r0, r9, lsr #8
    ae70:	2d040e00 	stccs	14, cr0, [r4, #-0]
    ae74:	0e000008 	cdpeq	0, 0, cr0, cr0, cr8, {0}
    ae78:	00017c04 	andeq	r7, r1, r4, lsl #24
    ae7c:	084f1d00 	stmdaeq	pc, {r8, sl, fp, ip}^	; <UNPREDICTABLE>
    ae80:	25150000 	ldrcs	r0, [r5, #-0]
    ae84:	00000000 	andeq	r0, r0, r0
    ae88:	0855040e 	ldmdaeq	r5, {r1, r2, r3, sl}^
    ae8c:	040e0000 	streq	r0, [lr], #-0
    ae90:	00000844 	andeq	r0, r0, r4, asr #16
    ae94:	0005f409 	andeq	pc, r5, r9, lsl #8
    ae98:	00086b00 	andeq	r6, r8, r0, lsl #22
    ae9c:	00cc0a00 	sbceq	r0, ip, r0, lsl #20
    aea0:	00020000 	andeq	r0, r2, r0
    aea4:	0004841e 	andeq	r8, r4, lr, lsl r4
    aea8:	02fd0500 	rscseq	r0, sp, #0, 10
    aeac:	00000429 	andeq	r0, r0, r9, lsr #8
    aeb0:	00047d1e 	andeq	r7, r4, lr, lsl sp
    aeb4:	02fe0500 	rscseq	r0, lr, #0, 10
    aeb8:	0000042f 	andeq	r0, r0, pc, lsr #8
    aebc:	00002514 	andeq	r2, r0, r4, lsl r5
    aec0:	00089200 	andeq	r9, r8, r0, lsl #4
    aec4:	00251500 	eoreq	r1, r5, r0, lsl #10
    aec8:	1f000000 	svcne	0x00000000
    aecc:	000001d1 	ldrdeq	r0, [r0], -r1
    aed0:	089d1d06 	ldmeq	sp, {r1, r2, r8, sl, fp, ip}
    aed4:	040e0000 	streq	r0, [lr], #-0
    aed8:	00000883 	andeq	r0, r0, r3, lsl #17
    aedc:	00002514 	andeq	r2, r0, r4, lsl r5
    aee0:	0008b200 	andeq	fp, r8, r0, lsl #4
    aee4:	058a1500 	streq	r1, [sl, #1280]	; 0x500
    aee8:	1f000000 	svcne	0x00000000
    aeec:	0000078c 	andeq	r0, r0, ip, lsl #15
    aef0:	08bd2206 	popeq	{r1, r2, r9, sp}
    aef4:	040e0000 	streq	r0, [lr], #-0
    aef8:	000008a3 	andeq	r0, r0, r3, lsr #17
    aefc:	00540120 	subseq	r0, r4, r0, lsr #2
    af00:	0c070000 	stceq	0, cr0, [r7], {-0}
    af04:	00000900 	andeq	r0, r0, r0, lsl #18
    af08:	00096521 	andeq	r6, r9, r1, lsr #10
    af0c:	de210000 	cdple	0, 2, cr0, cr1, cr0, {0}
    af10:	0100000a 	tsteq	r0, sl
    af14:	000b1921 	andeq	r1, fp, r1, lsr #18
    af18:	7a210400 	bvc	84bf20 <__bss_end__+0x841e50>
    af1c:	05000009 	streq	r0, [r0, #-9]
    af20:	000a0621 	andeq	r0, sl, r1, lsr #12
    af24:	28210600 	stmdacs	r1!, {r9, sl}
    af28:	0700000b 	streq	r0, [r0, -fp]
    af2c:	000b3721 	andeq	r3, fp, r1, lsr #14
    af30:	46210300 	strtmi	r0, [r1], -r0, lsl #6
    af34:	0200000b 	andeq	r0, r0, #11
    af38:	0bc20500 	bleq	ff08c340 <__bss_end__+0xff082270>
    af3c:	15070000 	strne	r0, [r7, #-0]
    af40:	000008c3 	andeq	r0, r0, r3, asr #17
    af44:	000b9322 	andeq	r9, fp, r2, lsr #6
    af48:	331d0100 	tstcc	sp, #0, 2
    af4c:	1c000000 	stcne	0, cr0, [r0], {-0}
    af50:	22202000 	eorcs	r2, r0, #0
    af54:	00000bce 	andeq	r0, r0, lr, asr #23
    af58:	00331e01 	eorseq	r1, r3, r1, lsl #28
    af5c:	00280000 	eoreq	r0, r8, r0
    af60:	9d222020 	stcls	0, cr2, [r2, #-128]!	; 0xffffff80
    af64:	0100000b 	tsteq	r0, fp
    af68:	0000331f 	andeq	r3, r0, pc, lsl r3
    af6c:	20003400 	andcs	r3, r0, r0, lsl #8
    af70:	0b6e2320 	bleq	1b93bf8 <__bss_end__+0x1b89b28>
    af74:	56010000 	strpl	r0, [r1], -r0
    af78:	00000025 	andeq	r0, r0, r5, lsr #32
    af7c:	00009520 	andeq	r9, r0, r0, lsr #10
    af80:	00000034 	andeq	r0, r0, r4, lsr r0
    af84:	09989c01 	ldmibeq	r8, {r0, sl, fp, ip, pc}
    af88:	70240000 	eorvc	r0, r4, r0
    af8c:	01006e69 	tsteq	r0, r9, ror #28
    af90:	00002c56 	andeq	r2, r0, r6, asr ip
    af94:	00146000 	andseq	r6, r4, r0
    af98:	0b622500 	bleq	18943a0 <__bss_end__+0x188a2d0>
    af9c:	59010000 	stmdbpl	r1, {}	; <UNPREDICTABLE>
    afa0:	0000002c 	andeq	r0, r0, ip, lsr #32
    afa4:	0000149a 	muleq	r0, sl, r4
    afa8:	66666f26 	strbtvs	r6, [r6], -r6, lsr #30
    afac:	2c5a0100 	ldfcse	f0, [sl], {-0}
    afb0:	d8000000 	stmdale	r0, {}	; <UNPREDICTABLE>
    afb4:	27000014 	smladcs	r0, r4, r0, r0
    afb8:	0000953c 	andeq	r9, r0, ip, lsr r5
    afbc:	00000b5d 	andeq	r0, r0, sp, asr fp
    afc0:	0b500128 	bleq	140b468 <__bss_end__+0x1401398>
    afc4:	355001f3 	ldrbcc	r0, [r0, #-499]	; 0xfffffe0d
    afc8:	80b42325 	adcshi	r2, r4, r5, lsr #6
    afcc:	00028180 	andeq	r8, r2, r0, lsl #3
    afd0:	0b882900 	bleq	fe2153d8 <__bss_end__+0xfe20b308>
    afd4:	4f010000 	svcmi	0x00010000
    afd8:	00009504 	andeq	r9, r0, r4, lsl #10
    afdc:	0000001c 	andeq	r0, r0, ip, lsl r0
    afe0:	09e89c01 	stmibeq	r8!, {r0, sl, fp, ip, pc}^
    afe4:	70240000 	eorvc	r0, r4, r0
    afe8:	01006e69 	tsteq	r0, r9, ror #28
    afec:	00002c4f 	andeq	r2, r0, pc, asr #24
    aff0:	0014eb00 	andseq	lr, r4, r0, lsl #22
    aff4:	00762400 	rsbseq	r2, r6, r0, lsl #8
    aff8:	002c4f01 	eoreq	r4, ip, r1, lsl #30
    affc:	15250000 	strne	r0, [r5, #-0]!
    b000:	142a0000 	strtne	r0, [sl], #-0
    b004:	23000095 	movwcs	r0, #149	; 0x95
    b008:	de00000a 	cdple	0, 0, cr0, cr0, cr10, {0}
    b00c:	28000009 	stmdacs	r0, {r0, r3}
    b010:	f3035001 	vhadd.u8	d5, d3, d1
    b014:	2b005001 	blcs	1f020 <__bss_end__+0x14f50>
    b018:	0000951c 	andeq	r9, r0, ip, lsl r5
    b01c:	00000a64 	andeq	r0, r0, r4, ror #20
    b020:	0ba72900 	bleq	fe9d5428 <__bss_end__+0xfe9cb358>
    b024:	4a010000 	bmi	4b02c <__bss_end__+0x40f5c>
    b028:	000094f4 	strdeq	r9, [r0], -r4
    b02c:	00000010 	andeq	r0, r0, r0, lsl r0
    b030:	0a239c01 	beq	8f203c <__bss_end__+0x8e7f6c>
    b034:	70240000 	eorvc	r0, r4, r0
    b038:	01006e69 	tsteq	r0, r9, ror #28
    b03c:	00002c4a 	andeq	r2, r0, sl, asr #24
    b040:	00155f00 	andseq	r5, r5, r0, lsl #30
    b044:	95002700 	strls	r2, [r0, #-1792]	; 0xfffff900
    b048:	0ae00000 	beq	ff80b050 <__bss_end__+0xff800f80>
    b04c:	01280000 			; <UNDEFINED> instruction: 0x01280000
    b050:	01f30350 	mvnseq	r0, r0, asr r3
    b054:	51012850 	tstpl	r1, r0, asr r8
    b058:	00003001 	andeq	r3, r0, r1
    b05c:	000b5529 	andeq	r5, fp, r9, lsr #10
    b060:	d0430100 	suble	r0, r3, r0, lsl #2
    b064:	24000094 	strcs	r0, [r0], #-148	; 0xffffff6c
    b068:	01000000 	mrseq	r0, (UNDEF: 0)
    b06c:	000a649c 	muleq	sl, ip, r4
    b070:	69702400 	ldmdbvs	r0!, {sl, sp}^
    b074:	4301006e 	movwmi	r0, #4206	; 0x106e
    b078:	0000002c 	andeq	r0, r0, ip, lsr #32
    b07c:	00001580 	andeq	r1, r0, r0, lsl #11
    b080:	0094ec27 	addseq	lr, r4, r7, lsr #24
    b084:	000b6800 	andeq	r6, fp, r0, lsl #16
    b088:	50012800 	andpl	r2, r1, r0, lsl #16
    b08c:	00280c05 	eoreq	r0, r8, r5, lsl #24
    b090:	01282020 			; <UNDEFINED> instruction: 0x01282020
    b094:	f3310551 	vqrshl.u64	q0, <illegal reg q0.5>, <illegal reg q0.5>
    b098:	00245001 	eoreq	r5, r4, r1
    b09c:	0bb62900 	bleq	fed954a4 <__bss_end__+0xfed8b3d4>
    b0a0:	3c010000 	stccc	0, cr0, [r1], {-0}
    b0a4:	000094ac 	andeq	r9, r0, ip, lsr #9
    b0a8:	00000024 	andeq	r0, r0, r4, lsr #32
    b0ac:	0aa59c01 	beq	fe9720b8 <__bss_end__+0xfe967fe8>
    b0b0:	70240000 	eorvc	r0, r4, r0
    b0b4:	01006e69 	tsteq	r0, r9, ror #28
    b0b8:	00002c3c 	andeq	r2, r0, ip, lsr ip
    b0bc:	0015a100 	andseq	sl, r5, r0, lsl #2
    b0c0:	94c82700 	strbls	r2, [r8], #1792	; 0x700
    b0c4:	0b680000 	bleq	1a0b0cc <__bss_end__+0x1a00ffc>
    b0c8:	01280000 			; <UNDEFINED> instruction: 0x01280000
    b0cc:	1c0c0550 	cfstr32ne	mvfx0, [ip], {80}	; 0x50
    b0d0:	28202000 	stmdacs	r0!, {sp}
    b0d4:	31055101 	tstcc	r5, r1, lsl #2
    b0d8:	245001f3 	ldrbcs	r0, [r0], #-499	; 0xfffffe0d
    b0dc:	78290000 	stmdavc	r9!, {}	; <UNPREDICTABLE>
    b0e0:	0100000b 	tsteq	r0, fp
    b0e4:	00949c37 	addseq	r9, r4, r7, lsr ip
    b0e8:	00001000 	andeq	r1, r0, r0
    b0ec:	e09c0100 	adds	r0, ip, r0, lsl #2
    b0f0:	2400000a 	strcs	r0, [r0], #-10
    b0f4:	006e6970 	rsbeq	r6, lr, r0, ror r9
    b0f8:	002c3701 	eoreq	r3, ip, r1, lsl #14
    b0fc:	15c20000 	strbne	r0, [r2]
    b100:	a8270000 	stmdage	r7!, {}	; <UNPREDICTABLE>
    b104:	e0000094 	mul	r0, r4, r0
    b108:	2800000a 	stmdacs	r0, {r1, r3}
    b10c:	f3035001 	vhadd.u8	d5, d3, d1
    b110:	01285001 			; <UNDEFINED> instruction: 0x01285001
    b114:	00310151 	eorseq	r0, r1, r1, asr r1
    b118:	0a1e2900 	beq	795520 <__bss_end__+0x78b450>
    b11c:	28010000 	stmdacs	r1, {}	; <UNPREDICTABLE>
    b120:	00009434 	andeq	r9, r0, r4, lsr r4
    b124:	00000068 	andeq	r0, r0, r8, rrx
    b128:	0b5d9c01 	bleq	1772134 <__bss_end__+0x1768064>
    b12c:	70240000 	eorvc	r0, r4, r0
    b130:	01006e69 	tsteq	r0, r9, ror #28
    b134:	00002c28 	andeq	r2, r0, r8, lsr #24
    b138:	0015e300 	andseq	lr, r5, r0, lsl #6
    b13c:	04d52c00 	ldrbeq	r2, [r5], #3072	; 0xc00
    b140:	28010000 	stmdacs	r1, {}	; <UNPREDICTABLE>
    b144:	00000900 	andeq	r0, r0, r0, lsl #18
    b148:	00001604 	andeq	r1, r0, r4, lsl #12
    b14c:	66666f2d 	strbtvs	r6, [r6], -sp, lsr #30
    b150:	2c2d0100 	stfcss	f0, [sp], #-0
    b154:	01000000 	mrseq	r0, (UNDEF: 0)
    b158:	00672d54 	rsbeq	r2, r7, r4, asr sp
    b15c:	002c2f01 	eoreq	r2, ip, r1, lsl #30
    b160:	56010000 	strpl	r0, [r1], -r0
    b164:	01007626 	tsteq	r0, r6, lsr #12
    b168:	00002c31 	andeq	r2, r0, r1, lsr ip
    b16c:	00162500 	andseq	r2, r6, r0, lsl #10
    b170:	94802a00 	strls	r2, [r0], #2560	; 0xa00
    b174:	0b5d0000 	bleq	174b17c <__bss_end__+0x17410ac>
    b178:	0b4c0000 	bleq	130b180 <__bss_end__+0x13010b0>
    b17c:	01280000 			; <UNDEFINED> instruction: 0x01280000
    b180:	00760250 	rsbseq	r0, r6, r0, asr r2
    b184:	94942700 	ldrls	r2, [r4], #1792	; 0x700
    b188:	0b680000 	bleq	1a0b190 <__bss_end__+0x1a010c0>
    b18c:	01280000 			; <UNDEFINED> instruction: 0x01280000
    b190:	00760250 	rsbseq	r0, r6, r0, asr r2
    b194:	392e0000 	stmdbcc	lr!, {}	; <UNPREDICTABLE>
    b198:	39000009 	stmdbcc	r0, {r0, r3}
    b19c:	06000009 	streq	r0, [r0], -r9
    b1a0:	08932ea7 	ldmeq	r3, {r0, r1, r2, r5, r7, r9, sl, fp, sp}
    b1a4:	08930000 	ldmeq	r3, {}	; <UNPREDICTABLE>
    b1a8:	9b060000 	blls	18b1b0 <__bss_end__+0x1810e0>
    b1ac:	000c2400 	andeq	r2, ip, r0, lsl #8
    b1b0:	df000400 	svcle	0x00000400
    b1b4:	04000023 	streq	r0, [r0], #-35	; 0xffffffdd
    b1b8:	000a6a01 	andeq	r6, sl, r1, lsl #20
    b1bc:	0bd80c00 	bleq	ff60e1c4 <__bss_end__+0xff6040f4>
    b1c0:	09a10000 	stmibeq	r1!, {}	; <UNPREDICTABLE>
    b1c4:	95540000 	ldrbls	r0, [r4, #-0]
    b1c8:	01940000 	orrseq	r0, r4, r0
    b1cc:	1c6d0000 	stclne	0, cr0, [sp], #-0
    b1d0:	04020000 	streq	r0, [r2], #-0
    b1d4:	746e6905 	strbtvc	r6, [lr], #-2309	; 0xfffff6fb
    b1d8:	07040300 	streq	r0, [r4, -r0, lsl #6]
    b1dc:	00000066 	andeq	r0, r0, r6, rrx
    b1e0:	de060103 	adfles	f0, f6, f3
    b1e4:	03000002 	movweq	r0, #2
    b1e8:	03770502 	cmneq	r7, #8388608	; 0x800000
    b1ec:	04030000 	streq	r0, [r3], #-0
    b1f0:	0000ac05 	andeq	sl, r0, r5, lsl #24
    b1f4:	05080300 	streq	r0, [r8, #-768]	; 0xfffffd00
    b1f8:	000000a7 	andeq	r0, r0, r7, lsr #1
    b1fc:	dc080103 	stfles	f0, [r8], {3}
    b200:	03000002 	movweq	r0, #2
    b204:	02220702 	eoreq	r0, r2, #524288	; 0x80000
    b208:	04030000 	streq	r0, [r3], #-0
    b20c:	00006107 	andeq	r6, r0, r7, lsl #2
    b210:	07080300 	streq	r0, [r8, -r0, lsl #6]
    b214:	0000005c 	andeq	r0, r0, ip, asr r0
    b218:	000a3504 	andeq	r3, sl, r4, lsl #10
    b21c:	25070200 	strcs	r0, [r7, #-512]	; 0xfffffe00
    b220:	04000000 	streq	r0, [r0], #-0
    b224:	000002bd 			; <UNDEFINED> instruction: 0x000002bd
    b228:	00412c03 	subeq	r2, r1, r3, lsl #24
    b22c:	36040000 	strcc	r0, [r4], -r0
    b230:	03000004 	movweq	r0, #4
    b234:	00004172 	andeq	r4, r0, r2, ror r1
    b238:	026d0500 	rsbeq	r0, sp, #0, 10
    b23c:	65040000 	strvs	r0, [r4, #-0]
    b240:	00002c01 	andeq	r2, r0, r1, lsl #24
    b244:	03040600 	movweq	r0, #17920	; 0x4600
    b248:	0000b7a6 	andeq	fp, r0, r6, lsr #15
    b24c:	025f0700 	subseq	r0, pc, #0, 14
    b250:	a8030000 	stmdage	r3, {}	; <UNPREDICTABLE>
    b254:	0000008c 	andeq	r0, r0, ip, lsl #1
    b258:	0001e207 	andeq	lr, r1, r7, lsl #4
    b25c:	b7a90300 	strlt	r0, [r9, r0, lsl #6]!
    b260:	00000000 	andeq	r0, r0, r0
    b264:	00004f08 	andeq	r4, r0, r8, lsl #30
    b268:	0000c700 	andeq	ip, r0, r0, lsl #14
    b26c:	00c70900 	sbceq	r0, r7, r0, lsl #18
    b270:	00030000 	andeq	r0, r3, r0
    b274:	15070403 	strne	r0, [r7, #-1027]	; 0xfffffbfd
    b278:	0a00000a 	beq	b2a8 <__bss_end__+0x11d8>
    b27c:	efa30308 	svc	0x00a30308
    b280:	0b000000 	bleq	b288 <__bss_end__+0x11b8>
    b284:	00000419 	andeq	r0, r0, r9, lsl r4
    b288:	0025a503 	eoreq	sl, r5, r3, lsl #10
    b28c:	0b000000 	bleq	b294 <__bss_end__+0x11c4>
    b290:	00000428 	andeq	r0, r0, r8, lsr #8
    b294:	0098aa03 	addseq	sl, r8, r3, lsl #20
    b298:	00040000 	andeq	r0, r4, r0
    b29c:	0003a304 	andeq	sl, r3, r4, lsl #6
    b2a0:	ceab0300 	cdpgt	3, 10, cr0, cr11, cr0, {0}
    b2a4:	04000000 	streq	r0, [r0], #-0
    b2a8:	0000019f 	muleq	r0, pc, r1	; <UNPREDICTABLE>
    b2ac:	006baf03 	rsbeq	sl, fp, r3, lsl #30
    b2b0:	040c0000 	streq	r0, [ip], #-0
    b2b4:	010d040d 	tsteq	sp, sp, lsl #8
    b2b8:	01030000 	mrseq	r0, (UNDEF: 3)
    b2bc:	0002e508 	andeq	lr, r2, r8, lsl #10
    b2c0:	010d0e00 	tsteq	sp, r0, lsl #28
    b2c4:	68040000 	stmdavs	r4, {}	; <UNPREDICTABLE>
    b2c8:	05000004 	streq	r0, [r0, #-4]
    b2cc:	00005d16 	andeq	r5, r0, r6, lsl sp
    b2d0:	01b00f00 	lslseq	r0, r0, #30
    b2d4:	05180000 	ldreq	r0, [r8, #-0]
    b2d8:	0001772d 	andeq	r7, r1, sp, lsr #14
    b2dc:	03c40b00 	biceq	r0, r4, #0, 22
    b2e0:	2f050000 	svccs	0x00050000
    b2e4:	00000177 	andeq	r0, r0, r7, ror r1
    b2e8:	6b5f1000 	blvs	17cf2f0 <__bss_end__+0x17c5220>
    b2ec:	25300500 	ldrcs	r0, [r0, #-1280]!	; 0xfffffb00
    b2f0:	04000000 	streq	r0, [r0], #-0
    b2f4:	0004040b 	andeq	r0, r4, fp, lsl #8
    b2f8:	25300500 	ldrcs	r0, [r0, #-1280]!	; 0xfffffb00
    b2fc:	08000000 	stmdaeq	r0, {}	; <UNPREDICTABLE>
    b300:	0001990b 	andeq	r9, r1, fp, lsl #18
    b304:	25300500 	ldrcs	r0, [r0, #-1280]!	; 0xfffffb00
    b308:	0c000000 	stceq	0, cr0, [r0], {-0}
    b30c:	0004a80b 	andeq	sl, r4, fp, lsl #16
    b310:	25300500 	ldrcs	r0, [r0, #-1280]!	; 0xfffffb00
    b314:	10000000 	andne	r0, r0, r0
    b318:	00785f10 	rsbseq	r5, r8, r0, lsl pc
    b31c:	017d3105 	cmneq	sp, r5, lsl #2
    b320:	00140000 	andseq	r0, r4, r0
    b324:	0124040d 			; <UNDEFINED> instruction: 0x0124040d
    b328:	19080000 	stmdbne	r8, {}	; <UNPREDICTABLE>
    b32c:	8d000001 	stchi	0, cr0, [r0, #-4]
    b330:	09000001 	stmdbeq	r0, {r0}
    b334:	000000c7 	andeq	r0, r0, r7, asr #1
    b338:	dd0f0000 	stcle	0, cr0, [pc, #-0]	; b340 <__bss_end__+0x1270>
    b33c:	24000001 	strcs	r0, [r0], #-1
    b340:	02063505 	andeq	r3, r6, #20971520	; 0x1400000
    b344:	9e0b0000 	cdpls	0, 0, cr0, cr11, cr0, {0}
    b348:	05000000 	streq	r0, [r0, #-0]
    b34c:	00002537 	andeq	r2, r0, r7, lsr r5
    b350:	3e0b0000 	cdpcc	0, 0, cr0, cr11, cr0, {0}
    b354:	05000004 	streq	r0, [r0, #-4]
    b358:	00002538 	andeq	r2, r0, r8, lsr r5
    b35c:	c10b0400 	tstgt	fp, r0, lsl #8
    b360:	05000000 	streq	r0, [r0, #-0]
    b364:	00002539 	andeq	r2, r0, r9, lsr r5
    b368:	330b0800 	movwcc	r0, #47104	; 0xb800
    b36c:	05000005 	streq	r0, [r0, #-5]
    b370:	0000253a 	andeq	r2, r0, sl, lsr r5
    b374:	a10b0c00 	tstge	fp, r0, lsl #24
    b378:	05000002 	streq	r0, [r0, #-2]
    b37c:	0000253b 	andeq	r2, r0, fp, lsr r5
    b380:	830b1000 	movwhi	r1, #45056	; 0xb000
    b384:	05000002 	streq	r0, [r0, #-2]
    b388:	0000253c 	andeq	r2, r0, ip, lsr r5
    b38c:	ad0b1400 	cfstrsge	mvf1, [fp, #-0]
    b390:	05000004 	streq	r0, [r0, #-4]
    b394:	0000253d 	andeq	r2, r0, sp, lsr r5
    b398:	290b1800 	stmdbcs	fp, {fp, ip}
    b39c:	05000005 	streq	r0, [r0, #-5]
    b3a0:	0000253e 	andeq	r2, r0, lr, lsr r5
    b3a4:	f00b1c00 			; <UNDEFINED> instruction: 0xf00b1c00
    b3a8:	05000004 	streq	r0, [r0, #-4]
    b3ac:	0000253f 	andeq	r2, r0, pc, lsr r5
    b3b0:	11002000 	mrsne	r2, (UNDEF: 0)
    b3b4:	00000101 	andeq	r0, r0, r1, lsl #2
    b3b8:	48050108 	stmdami	r5, {r3, r8}
    b3bc:	00000246 	andeq	r0, r0, r6, asr #4
    b3c0:	00018c0b 	andeq	r8, r1, fp, lsl #24
    b3c4:	46490500 	strbmi	r0, [r9], -r0, lsl #10
    b3c8:	00000002 	andeq	r0, r0, r2
    b3cc:	0000000b 	andeq	r0, r0, fp
    b3d0:	464a0500 	strbmi	r0, [sl], -r0, lsl #10
    b3d4:	80000002 	andhi	r0, r0, r2
    b3d8:	00045a12 	andeq	r5, r4, r2, lsl sl
    b3dc:	194c0500 	stmdbne	ip, {r8, sl}^
    b3e0:	00000001 	andeq	r0, r0, r1
    b3e4:	01261201 			; <UNDEFINED> instruction: 0x01261201
    b3e8:	4f050000 	svcmi	0x00050000
    b3ec:	00000119 	andeq	r0, r0, r9, lsl r1
    b3f0:	08000104 	stmdaeq	r0, {r2, r8}
    b3f4:	00000105 	andeq	r0, r0, r5, lsl #2
    b3f8:	00000256 	andeq	r0, r0, r6, asr r2
    b3fc:	0000c709 	andeq	ip, r0, r9, lsl #14
    b400:	11001f00 	tstne	r0, r0, lsl #30
    b404:	000002aa 	andeq	r0, r0, sl, lsr #5
    b408:	5b050190 	blpl	14ba50 <__bss_end__+0x141980>
    b40c:	00000294 	muleq	r0, r4, r2
    b410:	0003c40b 	andeq	ip, r3, fp, lsl #8
    b414:	945c0500 	ldrbls	r0, [ip], #-1280	; 0xfffffb00
    b418:	00000002 	andeq	r0, r0, r2
    b41c:	0003dc0b 	andeq	sp, r3, fp, lsl #24
    b420:	255d0500 	ldrbcs	r0, [sp, #-1280]	; 0xfffffb00
    b424:	04000000 	streq	r0, [r0], #-0
    b428:	0001940b 	andeq	r9, r1, fp, lsl #8
    b42c:	9a5f0500 	bls	17cc834 <__bss_end__+0x17c2764>
    b430:	08000002 	stmdaeq	r0, {r1}
    b434:	0001010b 	andeq	r0, r1, fp, lsl #2
    b438:	06600500 	strbteq	r0, [r0], -r0, lsl #10
    b43c:	88000002 	stmdahi	r0, {r1}
    b440:	56040d00 	strpl	r0, [r4], -r0, lsl #26
    b444:	08000002 	stmdaeq	r0, {r1}
    b448:	000002aa 	andeq	r0, r0, sl, lsr #5
    b44c:	000002aa 	andeq	r0, r0, sl, lsr #5
    b450:	0000c709 	andeq	ip, r0, r9, lsl #14
    b454:	0d001f00 	stceq	15, cr1, [r0, #-0]
    b458:	0002b004 	andeq	fp, r2, r4
    b45c:	8f0f1300 	svchi	0x000f1300
    b460:	08000003 	stmdaeq	r0, {r0, r1}
    b464:	02d67305 	sbcseq	r7, r6, #335544320	; 0x14000000
    b468:	bb0b0000 	bllt	2cb470 <__bss_end__+0x2c13a0>
    b46c:	05000000 	streq	r0, [r0, #-0]
    b470:	0002d674 	andeq	sp, r2, r4, ror r6
    b474:	1b0b0000 	blne	2cb47c <__bss_end__+0x2c13ac>
    b478:	05000000 	streq	r0, [r0, #-0]
    b47c:	00002575 	andeq	r2, r0, r5, ror r5
    b480:	0d000400 	cfstrseq	mvf0, [r0, #-0]
    b484:	00004f04 	andeq	r4, r0, r4, lsl #30
    b488:	03ae0f00 			; <UNDEFINED> instruction: 0x03ae0f00
    b48c:	05680000 	strbeq	r0, [r8, #-0]!
    b490:	000406b3 			; <UNDEFINED> instruction: 0x000406b3
    b494:	705f1000 	subsvc	r1, pc, r0
    b498:	d6b40500 	ldrtle	r0, [r4], r0, lsl #10
    b49c:	00000002 	andeq	r0, r0, r2
    b4a0:	00725f10 	rsbseq	r5, r2, r0, lsl pc
    b4a4:	0025b505 	eoreq	fp, r5, r5, lsl #10
    b4a8:	10040000 	andne	r0, r4, r0
    b4ac:	0500775f 	streq	r7, [r0, #-1887]	; 0xfffff8a1
    b4b0:	000025b6 			; <UNDEFINED> instruction: 0x000025b6
    b4b4:	1f0b0800 	svcne	0x000b0800
    b4b8:	05000001 	streq	r0, [r0, #-1]
    b4bc:	00003ab7 			; <UNDEFINED> instruction: 0x00003ab7
    b4c0:	080b0c00 	stmdaeq	fp, {sl, fp}
    b4c4:	05000002 	streq	r0, [r0, #-2]
    b4c8:	00003ab8 			; <UNDEFINED> instruction: 0x00003ab8
    b4cc:	5f100e00 	svcpl	0x00100e00
    b4d0:	05006662 	streq	r6, [r0, #-1634]	; 0xfffff99e
    b4d4:	0002b1b9 			; <UNDEFINED> instruction: 0x0002b1b9
    b4d8:	7b0b1000 	blvc	2cf4e0 <__bss_end__+0x2c5410>
    b4dc:	05000000 	streq	r0, [r0, #-0]
    b4e0:	000025ba 			; <UNDEFINED> instruction: 0x000025ba
    b4e4:	0f0b1800 	svceq	0x000b1800
    b4e8:	05000001 	streq	r0, [r0, #-1]
    b4ec:	000105c1 	andeq	r0, r1, r1, asr #11
    b4f0:	720b1c00 	andvc	r1, fp, #0, 24
    b4f4:	0500000b 	streq	r0, [r0, #-11]
    b4f8:	000561c3 	andeq	r6, r5, r3, asr #3
    b4fc:	360b2000 	strcc	r2, [fp], -r0
    b500:	05000006 	streq	r0, [r0, #-6]
    b504:	00058bc5 	andeq	r8, r5, r5, asr #23
    b508:	300b2400 	andcc	r2, fp, r0, lsl #8
    b50c:	05000004 	streq	r0, [r0, #-4]
    b510:	0005afc8 	andeq	sl, r5, r8, asr #31
    b514:	0a0b2800 	beq	2d551c <__bss_end__+0x2cb44c>
    b518:	05000005 	streq	r0, [r0, #-5]
    b51c:	0005c9c9 	andeq	ip, r5, r9, asr #19
    b520:	5f102c00 	svcpl	0x00102c00
    b524:	05006275 	streq	r6, [r0, #-629]	; 0xfffffd8b
    b528:	0002b1cc 	andeq	fp, r2, ip, asr #3
    b52c:	5f103000 	svcpl	0x00103000
    b530:	05007075 	streq	r7, [r0, #-117]	; 0xffffff8b
    b534:	0002d6cd 	andeq	sp, r2, sp, asr #13
    b538:	5f103800 	svcpl	0x00103800
    b53c:	05007275 	streq	r7, [r0, #-629]	; 0xfffffd8b
    b540:	000025ce 	andeq	r2, r0, lr, asr #11
    b544:	b50b3c00 	strlt	r3, [fp, #-3072]	; 0xfffff400
    b548:	05000000 	streq	r0, [r0, #-0]
    b54c:	0005cfd1 	ldrdeq	ip, [r5], -r1
    b550:	e20b4000 	and	r4, fp, #0
    b554:	05000004 	streq	r0, [r0, #-4]
    b558:	0005dfd2 	ldrdeq	sp, [r5], -r2
    b55c:	5f104300 	svcpl	0x00104300
    b560:	0500626c 	streq	r6, [r0, #-620]	; 0xfffffd94
    b564:	0002b1d5 	ldrdeq	fp, [r2], -r5
    b568:	3d0b4400 	cfstrscc	mvf4, [fp, #-0]
    b56c:	05000001 	streq	r0, [r0, #-1]
    b570:	000025d8 	ldrdeq	r2, [r0], -r8
    b574:	4e0b4c00 	cdpmi	12, 0, cr4, cr11, cr0, {0}
    b578:	05000001 	streq	r0, [r0, #-1]
    b57c:	000076d9 	ldrdeq	r7, [r0], -r9
    b580:	130b5000 	movwne	r5, #45056	; 0xb000
    b584:	0500000b 	streq	r0, [r0, #-11]
    b588:	000424dc 	ldrdeq	r2, [r4], -ip
    b58c:	220b5400 	andcs	r5, fp, #0, 8
    b590:	05000004 	streq	r0, [r0, #-4]
    b594:	0000fae0 	andeq	pc, r0, r0, ror #21
    b598:	b60b5800 	strlt	r5, [fp], -r0, lsl #16
    b59c:	05000003 	streq	r0, [r0, #-3]
    b5a0:	0000efe2 	andeq	lr, r0, r2, ror #31
    b5a4:	7b0b5c00 	blvc	2e25ac <__bss_end__+0x2d84dc>
    b5a8:	05000002 	streq	r0, [r0, #-2]
    b5ac:	000025e3 	andeq	r2, r0, r3, ror #11
    b5b0:	14006400 	strne	r6, [r0], #-1024	; 0xfffffc00
    b5b4:	00000025 	andeq	r0, r0, r5, lsr #32
    b5b8:	00000424 	andeq	r0, r0, r4, lsr #8
    b5bc:	00042415 	andeq	r2, r4, r5, lsl r4
    b5c0:	01051500 	tsteq	r5, r0, lsl #10
    b5c4:	07150000 	ldreq	r0, [r5, -r0]
    b5c8:	15000001 	strne	r0, [r0, #-1]
    b5cc:	00000025 	andeq	r0, r0, r5, lsr #32
    b5d0:	2f040d00 	svccs	0x00040d00
    b5d4:	0e000004 	cdpeq	0, 0, cr0, cr0, cr4, {0}
    b5d8:	00000424 	andeq	r0, r0, r4, lsr #8
    b5dc:	00040c16 	andeq	r0, r4, r6, lsl ip
    b5e0:	05042800 	streq	r2, [r4, #-2048]	; 0xfffff800
    b5e4:	05610238 	strbeq	r0, [r1, #-568]!	; 0xfffffdc8
    b5e8:	70170000 	andsvc	r0, r7, r0
    b5ec:	05000003 	streq	r0, [r0, #-3]
    b5f0:	0025023a 	eoreq	r0, r5, sl, lsr r2
    b5f4:	17000000 	strne	r0, [r0, -r0]
    b5f8:	0000012e 	andeq	r0, r0, lr, lsr #2
    b5fc:	36023f05 	strcc	r3, [r2], -r5, lsl #30
    b600:	04000006 	streq	r0, [r0], #-6
    b604:	0001f817 	andeq	pc, r1, r7, lsl r8	; <UNPREDICTABLE>
    b608:	023f0500 	eorseq	r0, pc, #0, 10
    b60c:	00000636 	andeq	r0, r0, r6, lsr r6
    b610:	01a81708 			; <UNDEFINED> instruction: 0x01a81708
    b614:	3f050000 	svccc	0x00050000
    b618:	00063602 	andeq	r3, r6, r2, lsl #12
    b61c:	d7170c00 	ldrle	r0, [r7, -r0, lsl #24]
    b620:	05000003 	streq	r0, [r0, #-3]
    b624:	00250241 	eoreq	r0, r5, r1, asr #4
    b628:	17100000 	ldrne	r0, [r0, -r0]
    b62c:	00000029 	andeq	r0, r0, r9, lsr #32
    b630:	18024205 	stmdane	r2, {r0, r2, r9, lr}
    b634:	14000008 	strne	r0, [r0], #-8
    b638:	000acc17 	andeq	ip, sl, r7, lsl ip
    b63c:	02440500 	subeq	r0, r4, #0, 10
    b640:	00000025 	andeq	r0, r0, r5, lsr #32
    b644:	0a471730 	beq	11d130c <__bss_end__+0x11c723c>
    b648:	45050000 	strmi	r0, [r5, #-0]
    b64c:	00058502 	andeq	r8, r5, r2, lsl #10
    b650:	b2173400 	andslt	r3, r7, #0, 8
    b654:	05000002 	streq	r0, [r0, #-2]
    b658:	00250247 	eoreq	r0, r5, r7, asr #4
    b65c:	17380000 	ldrne	r0, [r8, -r0]!
    b660:	000003e1 	andeq	r0, r0, r1, ror #7
    b664:	33024905 	movwcc	r4, #10501	; 0x2905
    b668:	3c000008 	stccc	0, cr0, [r0], {8}
    b66c:	00025717 	andeq	r5, r2, r7, lsl r7
    b670:	024c0500 	subeq	r0, ip, #0, 10
    b674:	00000177 	andeq	r0, r0, r7, ror r1
    b678:	01c71740 	biceq	r1, r7, r0, asr #14
    b67c:	4d050000 	stcmi	0, cr0, [r5, #-0]
    b680:	00002502 	andeq	r2, r0, r2, lsl #10
    b684:	24174400 	ldrcs	r4, [r7], #-1024	; 0xfffffc00
    b688:	05000005 	streq	r0, [r0, #-5]
    b68c:	0177024e 	cmneq	r7, lr, asr #4
    b690:	17480000 	strbne	r0, [r8, -r0]
    b694:	000002c4 	andeq	r0, r0, r4, asr #5
    b698:	39024f05 	stmdbcc	r2, {r0, r2, r8, r9, sl, fp, lr}
    b69c:	4c000008 	stcmi	0, cr0, [r0], {8}
    b6a0:	00020017 	andeq	r0, r2, r7, lsl r0
    b6a4:	02520500 	subseq	r0, r2, #0, 10
    b6a8:	00000025 	andeq	r0, r0, r5, lsr #32
    b6ac:	01461750 	cmpeq	r6, r0, asr r7
    b6b0:	53050000 	movwpl	r0, #20480	; 0x5000
    b6b4:	00010702 	andeq	r0, r1, r2, lsl #14
    b6b8:	ea175400 	b	5e06c0 <__bss_end__+0x5d65f0>
    b6bc:	05000002 	streq	r0, [r0, #-2]
    b6c0:	07f60276 			; <UNDEFINED> instruction: 0x07f60276
    b6c4:	18580000 	ldmdane	r8, {}^	; <UNPREDICTABLE>
    b6c8:	000002aa 	andeq	r0, r0, sl, lsr #5
    b6cc:	94027a05 	strls	r7, [r2], #-2565	; 0xfffff5fb
    b6d0:	48000002 	stmdami	r0, {r1}
    b6d4:	02351801 	eorseq	r1, r5, #65536	; 0x10000
    b6d8:	7b050000 	blvc	14b6e0 <__bss_end__+0x141610>
    b6dc:	00025602 	andeq	r5, r2, r2, lsl #12
    b6e0:	18014c00 	stmdane	r1, {sl, fp, lr}
    b6e4:	000004d0 	ldrdeq	r0, [r0], -r0	; <UNPREDICTABLE>
    b6e8:	4a027f05 	bmi	ab304 <__bss_end__+0xa1234>
    b6ec:	dc000008 	stcle	0, cr0, [r0], {8}
    b6f0:	01171802 	tsteq	r7, r2, lsl #16
    b6f4:	84050000 	strhi	r0, [r5], #-0
    b6f8:	0005fb02 	andeq	pc, r5, r2, lsl #22
    b6fc:	1802e000 	stmdane	r2, {sp, lr, pc}
    b700:	000000fc 	strdeq	r0, [r0], -ip
    b704:	56028505 	strpl	r8, [r2], -r5, lsl #10
    b708:	ec000008 	stc	0, cr0, [r0], {8}
    b70c:	040d0002 	streq	r0, [sp], #-2
    b710:	00000406 	andeq	r0, r0, r6, lsl #8
    b714:	00002514 	andeq	r2, r0, r4, lsl r5
    b718:	00058500 	andeq	r8, r5, r0, lsl #10
    b71c:	04241500 	strteq	r1, [r4], #-1280	; 0xfffffb00
    b720:	05150000 	ldreq	r0, [r5, #-0]
    b724:	15000001 	strne	r0, [r0, #-1]
    b728:	00000585 	andeq	r0, r0, r5, lsl #11
    b72c:	00002515 	andeq	r2, r0, r5, lsl r5
    b730:	040d0000 	streq	r0, [sp], #-0
    b734:	00000114 	andeq	r0, r0, r4, lsl r1
    b738:	0567040d 	strbeq	r0, [r7, #-1037]!	; 0xfffffbf3
    b73c:	81140000 	tsthi	r4, r0
    b740:	af000000 	svcge	0x00000000
    b744:	15000005 	strne	r0, [r0, #-5]
    b748:	00000424 	andeq	r0, r0, r4, lsr #8
    b74c:	00010515 	andeq	r0, r1, r5, lsl r5
    b750:	00811500 	addeq	r1, r1, r0, lsl #10
    b754:	25150000 	ldrcs	r0, [r5, #-0]
    b758:	00000000 	andeq	r0, r0, r0
    b75c:	0591040d 	ldreq	r0, [r1, #1037]	; 0x40d
    b760:	25140000 	ldrcs	r0, [r4, #-0]
    b764:	c9000000 	stmdbgt	r0, {}	; <UNPREDICTABLE>
    b768:	15000005 	strne	r0, [r0, #-5]
    b76c:	00000424 	andeq	r0, r0, r4, lsr #8
    b770:	00010515 	andeq	r0, r1, r5, lsl r5
    b774:	040d0000 	streq	r0, [sp], #-0
    b778:	000005b5 			; <UNDEFINED> instruction: 0x000005b5
    b77c:	00004f08 	andeq	r4, r0, r8, lsl #30
    b780:	0005df00 	andeq	sp, r5, r0, lsl #30
    b784:	00c70900 	sbceq	r0, r7, r0, lsl #18
    b788:	00020000 	andeq	r0, r2, r0
    b78c:	00004f08 	andeq	r4, r0, r8, lsl #30
    b790:	0005ef00 	andeq	lr, r5, r0, lsl #30
    b794:	00c70900 	sbceq	r0, r7, r0, lsl #18
    b798:	00000000 	andeq	r0, r0, r0
    b79c:	00039c05 	andeq	r9, r3, r5, lsl #24
    b7a0:	011d0500 	tsteq	sp, r0, lsl #10
    b7a4:	000002dc 	ldrdeq	r0, [r0], -ip
    b7a8:	0004b719 	andeq	fp, r4, r9, lsl r7
    b7ac:	21050c00 	tstcs	r5, r0, lsl #24
    b7b0:	00063001 	andeq	r3, r6, r1
    b7b4:	03c41700 	biceq	r1, r4, #0, 14
    b7b8:	23050000 	movwcs	r0, #20480	; 0x5000
    b7bc:	00063001 	andeq	r3, r6, r1
    b7c0:	1b170000 	blne	5cb7c8 <__bss_end__+0x5c16f8>
    b7c4:	05000002 	streq	r0, [r0, #-2]
    b7c8:	00250124 	eoreq	r0, r5, r4, lsr #2
    b7cc:	17040000 	strne	r0, [r4, -r0]
    b7d0:	00000396 	muleq	r0, r6, r3
    b7d4:	36012505 	strcc	r2, [r1], -r5, lsl #10
    b7d8:	08000006 	stmdaeq	r0, {r1, r2}
    b7dc:	fb040d00 	blx	10ebe6 <__bss_end__+0x104b16>
    b7e0:	0d000005 	stceq	0, cr0, [r0, #-20]	; 0xffffffec
    b7e4:	0005ef04 	andeq	lr, r5, r4, lsl #30
    b7e8:	00211900 	eoreq	r1, r1, r0, lsl #18
    b7ec:	050e0000 	streq	r0, [lr, #-0]
    b7f0:	0671013d 			; <UNDEFINED> instruction: 0x0671013d
    b7f4:	13170000 	tstne	r7, #0
    b7f8:	05000004 	streq	r0, [r0, #-4]
    b7fc:	0671013e 			; <UNDEFINED> instruction: 0x0671013e
    b800:	17000000 	strne	r0, [r0, -r0]
    b804:	00000447 	andeq	r0, r0, r7, asr #8
    b808:	71013f05 	tstvc	r1, r5, lsl #30
    b80c:	06000006 	streq	r0, [r0], -r6
    b810:	00046317 	andeq	r6, r4, r7, lsl r3
    b814:	01400500 	cmpeq	r0, r0, lsl #10
    b818:	00000056 	andeq	r0, r0, r6, asr r0
    b81c:	5608000c 	strpl	r0, [r8], -ip
    b820:	81000000 	mrshi	r0, (UNDEF: 0)
    b824:	09000006 	stmdbeq	r0, {r1, r2}
    b828:	000000c7 	andeq	r0, r0, r7, asr #1
    b82c:	d01a0002 	andsle	r0, sl, r2
    b830:	82025705 	andhi	r5, r2, #1310720	; 0x140000
    b834:	17000007 	strne	r0, [r0, -r7]
    b838:	0000049b 	muleq	r0, fp, r4
    b83c:	2c025905 			; <UNDEFINED> instruction: 0x2c025905
    b840:	00000000 	andeq	r0, r0, r0
    b844:	00044d17 	andeq	r4, r4, r7, lsl sp
    b848:	025a0500 	subseq	r0, sl, #0, 10
    b84c:	00000107 	andeq	r0, r0, r7, lsl #2
    b850:	024a1704 	subeq	r1, sl, #4, 14	; 0x100000
    b854:	5b050000 	blpl	14b85c <__bss_end__+0x14178c>
    b858:	00078202 	andeq	r8, r7, r2, lsl #4
    b85c:	fb170800 	blx	5cd866 <__bss_end__+0x5c3796>
    b860:	05000004 	streq	r0, [r0, #-4]
    b864:	018d025c 	orreq	r0, sp, ip, asr r2
    b868:	17240000 	strne	r0, [r4, -r0]!
    b86c:	000001b8 			; <UNDEFINED> instruction: 0x000001b8
    b870:	25025d05 	strcs	r5, [r2, #-3333]	; 0xfffff2fb
    b874:	48000000 	stmdami	r0, {}	; <UNPREDICTABLE>
    b878:	0003bf17 	andeq	fp, r3, r7, lsl pc
    b87c:	025e0500 	subseq	r0, lr, #0, 10
    b880:	00000064 	andeq	r0, r0, r4, rrx
    b884:	05111750 	ldreq	r1, [r1, #-1872]	; 0xfffff8b0
    b888:	5f050000 	svcpl	0x00050000
    b88c:	00063c02 	andeq	r3, r6, r2, lsl #24
    b890:	ca175800 	bgt	5e1898 <__bss_end__+0x5d77c8>
    b894:	05000003 	streq	r0, [r0, #-3]
    b898:	00ef0260 	rsceq	r0, pc, r0, ror #4
    b89c:	17680000 	strbne	r0, [r8, -r0]!
    b8a0:	00000516 	andeq	r0, r0, r6, lsl r5
    b8a4:	ef026105 	svc	0x00026105
    b8a8:	70000000 	andvc	r0, r0, r0
    b8ac:	0002ce17 	andeq	ip, r2, r7, lsl lr
    b8b0:	02620500 	rsbeq	r0, r2, #0, 10
    b8b4:	000000ef 	andeq	r0, r0, pc, ror #1
    b8b8:	04c61778 	strbeq	r1, [r6], #1912	; 0x778
    b8bc:	63050000 	movwvs	r0, #20480	; 0x5000
    b8c0:	00079202 	andeq	r9, r7, r2, lsl #4
    b8c4:	3e178000 	cdpcc	0, 1, cr8, cr7, cr0, {0}
    b8c8:	05000002 	streq	r0, [r0, #-2]
    b8cc:	07a20264 	streq	r0, [r2, r4, ror #4]!
    b8d0:	17880000 	strne	r0, [r8, r0]
    b8d4:	00000470 	andeq	r0, r0, r0, ror r4
    b8d8:	25026505 	strcs	r6, [r2, #-1285]	; 0xfffffafb
    b8dc:	a0000000 	andge	r0, r0, r0
    b8e0:	00017e17 	andeq	r7, r1, r7, lsl lr
    b8e4:	02660500 	rsbeq	r0, r6, #0, 10
    b8e8:	000000ef 	andeq	r0, r0, pc, ror #1
    b8ec:	008f17a4 	addeq	r1, pc, r4, lsr #15
    b8f0:	67050000 	strvs	r0, [r5, -r0]
    b8f4:	0000ef02 	andeq	lr, r0, r2, lsl #30
    b8f8:	6d17ac00 	ldcvs	12, cr10, [r7, #-0]
    b8fc:	05000001 	streq	r0, [r0, #-1]
    b900:	00ef0268 	rsceq	r0, pc, r8, ror #4
    b904:	17b40000 	ldrne	r0, [r4, r0]!
    b908:	0000003c 	andeq	r0, r0, ip, lsr r0
    b90c:	ef026905 	svc	0x00026905
    b910:	bc000000 	stclt	0, cr0, [r0], {-0}
    b914:	00004b17 	andeq	r4, r0, r7, lsl fp
    b918:	026a0500 	rsbeq	r0, sl, #0, 10
    b91c:	000000ef 	andeq	r0, r0, pc, ror #1
    b920:	036e17c4 	cmneq	lr, #196, 14	; 0x3100000
    b924:	6b050000 	blvs	14b92c <__bss_end__+0x14185c>
    b928:	00002502 	andeq	r2, r0, r2, lsl #10
    b92c:	0800cc00 	stmdaeq	r0, {sl, fp, lr, pc}
    b930:	0000010d 	andeq	r0, r0, sp, lsl #2
    b934:	00000792 	muleq	r0, r2, r7
    b938:	0000c709 	andeq	ip, r0, r9, lsl #14
    b93c:	08001900 	stmdaeq	r0, {r8, fp, ip}
    b940:	0000010d 	andeq	r0, r0, sp, lsl #2
    b944:	000007a2 	andeq	r0, r0, r2, lsr #15
    b948:	0000c709 	andeq	ip, r0, r9, lsl #14
    b94c:	08000700 	stmdaeq	r0, {r8, r9, sl}
    b950:	0000010d 	andeq	r0, r0, sp, lsl #2
    b954:	000007b2 			; <UNDEFINED> instruction: 0x000007b2
    b958:	0000c709 	andeq	ip, r0, r9, lsl #14
    b95c:	1a001700 	bne	11564 <__bss_end__+0x7494>
    b960:	027005f0 	rsbseq	r0, r0, #240, 10	; 0x3c000000
    b964:	000007d6 	ldrdeq	r0, [r0], -r6
    b968:	00029a17 	andeq	r9, r2, r7, lsl sl
    b96c:	02730500 	rsbseq	r0, r3, #0, 10
    b970:	000007d6 	ldrdeq	r0, [r0], -r6
    b974:	04bd1700 	ldrteq	r1, [sp], #1792	; 0x700
    b978:	74050000 	strvc	r0, [r5], #-0
    b97c:	0007e602 	andeq	lr, r7, r2, lsl #12
    b980:	08007800 	stmdaeq	r0, {fp, ip, sp, lr}
    b984:	000002d6 	ldrdeq	r0, [r0], -r6
    b988:	000007e6 	andeq	r0, r0, r6, ror #15
    b98c:	0000c709 	andeq	ip, r0, r9, lsl #14
    b990:	08001d00 	stmdaeq	r0, {r8, sl, fp, ip}
    b994:	0000002c 	andeq	r0, r0, ip, lsr #32
    b998:	000007f6 	strdeq	r0, [r0], -r6
    b99c:	0000c709 	andeq	ip, r0, r9, lsl #14
    b9a0:	1b001d00 	blne	12da8 <__bss_end__+0x8cd8>
    b9a4:	025505f0 	subseq	r0, r5, #240, 10	; 0x3c000000
    b9a8:	00000818 	andeq	r0, r0, r8, lsl r8
    b9ac:	00040c1c 	andeq	r0, r4, ip, lsl ip
    b9b0:	026c0500 	rsbeq	r0, ip, #0, 10
    b9b4:	00000681 	andeq	r0, r0, r1, lsl #13
    b9b8:	0004e81c 	andeq	lr, r4, ip, lsl r8
    b9bc:	02750500 	rsbseq	r0, r5, #0, 10
    b9c0:	000007b2 			; <UNDEFINED> instruction: 0x000007b2
    b9c4:	010d0800 	tsteq	sp, r0, lsl #16
    b9c8:	08280000 	stmdaeq	r8!, {}	; <UNPREDICTABLE>
    b9cc:	c7090000 	strgt	r0, [r9, -r0]
    b9d0:	18000000 	stmdane	r0, {}	; <UNPREDICTABLE>
    b9d4:	08331d00 	ldmdaeq	r3!, {r8, sl, fp, ip}
    b9d8:	24150000 	ldrcs	r0, [r5], #-0
    b9dc:	00000004 	andeq	r0, r0, r4
    b9e0:	0828040d 	stmdaeq	r8!, {r0, r2, r3, sl}
    b9e4:	040d0000 	streq	r0, [sp], #-0
    b9e8:	00000177 	andeq	r0, r0, r7, ror r1
    b9ec:	00084a1d 	andeq	r4, r8, sp, lsl sl
    b9f0:	00251500 	eoreq	r1, r5, r0, lsl #10
    b9f4:	0d000000 	stceq	0, cr0, [r0, #-0]
    b9f8:	00085004 	andeq	r5, r8, r4
    b9fc:	3f040d00 	svccc	0x00040d00
    ba00:	08000008 	stmdaeq	r0, {r3}
    ba04:	000005ef 	andeq	r0, r0, pc, ror #11
    ba08:	00000866 	andeq	r0, r0, r6, ror #16
    ba0c:	0000c709 	andeq	ip, r0, r9, lsl #14
    ba10:	1e000200 	cdpne	2, 0, cr0, cr0, cr0, {0}
    ba14:	00000484 	andeq	r0, r0, r4, lsl #9
    ba18:	2402fd05 	strcs	pc, [r2], #-3333	; 0xfffff2fb
    ba1c:	1e000004 	cdpne	0, 0, cr0, cr0, cr4, {0}
    ba20:	0000047d 	andeq	r0, r0, sp, ror r4
    ba24:	2a02fe05 	bcs	cb240 <__bss_end__+0xc1170>
    ba28:	14000004 	strne	r0, [r0], #-4
    ba2c:	00000025 	andeq	r0, r0, r5, lsr #32
    ba30:	0000088d 	andeq	r0, r0, sp, lsl #17
    ba34:	00002515 	andeq	r2, r0, r5, lsl r5
    ba38:	d11f0000 	tstle	pc, r0
    ba3c:	06000001 	streq	r0, [r0], -r1
    ba40:	0008981d 	andeq	r9, r8, sp, lsl r8
    ba44:	7e040d00 	cdpvc	13, 0, cr0, cr4, cr0, {0}
    ba48:	14000008 	strne	r0, [r0], #-8
    ba4c:	00000025 	andeq	r0, r0, r5, lsr #32
    ba50:	000008ad 	andeq	r0, r0, sp, lsr #17
    ba54:	00058515 	andeq	r8, r5, r5, lsl r5
    ba58:	8c1f0000 	ldchi	0, cr0, [pc], {-0}
    ba5c:	06000007 	streq	r0, [r0], -r7
    ba60:	0008b822 	andeq	fp, r8, r2, lsr #16
    ba64:	9e040d00 	cdpls	13, 0, cr0, cr4, cr0, {0}
    ba68:	03000008 	movweq	r0, #8
    ba6c:	0bff0408 	bleq	fffcca94 <__bss_end__+0xfffc29c4>
    ba70:	371f0000 	ldrcc	r0, [pc, -r0]
    ba74:	0100000c 	tsteq	r0, ip
    ba78:	00010d0d 	andeq	r0, r1, sp, lsl #26
    ba7c:	067c2000 	ldrbteq	r2, [ip], -r0
    ba80:	0e010000 	cdpeq	0, 0, cr0, cr1, cr0, {0}
    ba84:	00000107 	andeq	r0, r0, r7, lsl #2
    ba88:	970c0305 	strls	r0, [ip, -r5, lsl #6]
    ba8c:	4e200000 	cdpmi	0, 2, cr0, cr0, cr0, {0}
    ba90:	0100000c 	tsteq	r0, ip
    ba94:	0001070f 	andeq	r0, r1, pc, lsl #14
    ba98:	10030500 	andne	r0, r3, r0, lsl #10
    ba9c:	21000097 	swpcs	r0, r7, [r0]	; <UNPREDICTABLE>
    baa0:	00000c10 	andeq	r0, r0, r0, lsl ip
    baa4:	96d83801 	ldrbls	r3, [r8], r1, lsl #16
    baa8:	00100000 	andseq	r0, r0, r0
    baac:	9c010000 	stcls	0, cr0, [r1], {-0}
    bab0:	00000913 	andeq	r0, r0, r3, lsl r9
    bab4:	01007022 	tsteq	r0, r2, lsr #32
    bab8:	00010538 	andeq	r0, r1, r8, lsr r5
    babc:	00500100 	subseq	r0, r0, r0, lsl #2
    bac0:	000c0623 	andeq	r0, ip, r3, lsr #12
    bac4:	c4370100 	ldrtgt	r0, [r7], #-256	; 0xffffff00
    bac8:	14000096 	strne	r0, [r0], #-150	; 0xffffff6a
    bacc:	01000000 	mrseq	r0, (UNDEF: 0)
    bad0:	0275219c 	rsbseq	r2, r5, #156, 2	; 0x27
    bad4:	36010000 	strcc	r0, [r1], -r0
    bad8:	000096c0 	andeq	r9, r0, r0, asr #13
    badc:	00000004 	andeq	r0, r0, r4
    bae0:	09459c01 	stmdbeq	r5, {r0, sl, fp, ip, pc}^
    bae4:	70220000 	eorvc	r0, r2, r0
    bae8:	05360100 	ldreq	r0, [r6, #-256]!	; 0xffffff00
    baec:	01000001 	tsteq	r0, r1
    baf0:	ef240050 	svc	0x00240050
    baf4:	0100000b 	tsteq	r0, fp
    baf8:	00010529 	andeq	r0, r1, r9, lsr #10
    bafc:	00963400 	addseq	r3, r6, r0, lsl #8
    bb00:	00008c00 	andeq	r8, r0, r0, lsl #24
    bb04:	309c0100 	addscc	r0, ip, r0, lsl #2
    bb08:	2500000a 	strcs	r0, [r0, #-10]
    bb0c:	000006a3 	andeq	r0, r0, r3, lsr #13
    bb10:	002c2901 	eoreq	r2, ip, r1, lsl #18
    bb14:	16560000 	ldrbne	r0, [r6], -r0
    bb18:	2d250000 	stccs	0, cr0, [r5, #-0]
    bb1c:	0100000c 	tsteq	r0, ip
    bb20:	00002c29 	andeq	r2, r0, r9, lsr #24
    bb24:	0016a900 	andseq	sl, r6, r0, lsl #18
    bb28:	020e2600 	andeq	r2, lr, #0, 12
    bb2c:	0a400000 	beq	100bb34 <__bss_end__+0x1001a64>
    bb30:	03050000 	movweq	r0, #20480	; 0x5000
    bb34:	00009bc0 	andeq	r9, r0, r0, asr #23
    bb38:	01006827 	tsteq	r0, r7, lsr #16
    bb3c:	00002c2e 	andeq	r2, r0, lr, lsr #24
    bb40:	0016f000 	andseq	pc, r6, r0
    bb44:	96702800 	ldrbtls	r2, [r0], -r0, lsl #16
    bb48:	0a790000 	beq	1e4bb50 <__bss_end__+0x1e41a80>
    bb4c:	09ad0000 	stmibeq	sp!, {}	; <UNPREDICTABLE>
    bb50:	01290000 			; <UNDEFINED> instruction: 0x01290000
    bb54:	01f30350 	mvnseq	r0, r0, asr r3
    bb58:	782a0050 	stmdavc	sl!, {r4, r6}
    bb5c:	fb000096 	blx	bdbe <__bss_end__+0x1cee>
    bb60:	2800000b 	stmdacs	r0, {r0, r1, r3}
    bb64:	0000968c 	andeq	r9, r0, ip, lsl #13
    bb68:	00000c06 	andeq	r0, r0, r6, lsl #24
    bb6c:	000009e5 	andeq	r0, r0, r5, ror #19
    bb70:	05500129 	ldrbeq	r0, [r0, #-297]	; 0xfffffed7
    bb74:	009c0c03 	addseq	r0, ip, r3, lsl #24
    bb78:	51012900 	tstpl	r1, r0, lsl #18
    bb7c:	9bd00305 	blls	ff40c798 <__bss_end__+0xff4026c8>
    bb80:	01290000 			; <UNDEFINED> instruction: 0x01290000
    bb84:	c0030552 	andgt	r0, r3, r2, asr r5
    bb88:	2900009b 	stmdbcs	r0, {r0, r1, r3, r4, r7}
    bb8c:	08025301 	stmdaeq	r2, {r0, r8, r9, ip, lr}
    bb90:	902a002a 	eorls	r0, sl, sl, lsr #32
    bb94:	11000096 	swpne	r0, r6, [r0]	; <UNPREDICTABLE>
    bb98:	2a00000c 	bcs	bbd0 <__bss_end__+0x1b00>
    bb9c:	00009694 	muleq	r0, r4, r6
    bba0:	00000bfb 	strdeq	r0, [r0], -fp
    bba4:	0096a828 	addseq	sl, r6, r8, lsr #16
    bba8:	000c0600 	andeq	r0, ip, r0, lsl #12
    bbac:	000a2600 	andeq	r2, sl, r0, lsl #12
    bbb0:	50012900 	andpl	r2, r1, r0, lsl #18
    bbb4:	9c6c0305 	stclls	3, cr0, [ip], #-20	; 0xffffffec
    bbb8:	01290000 			; <UNDEFINED> instruction: 0x01290000
    bbbc:	d0030551 	andle	r0, r3, r1, asr r5
    bbc0:	2900009b 	stmdbcs	r0, {r0, r1, r3, r4, r7}
    bbc4:	03055201 	movweq	r5, #20993	; 0x5201
    bbc8:	00009bc0 	andeq	r9, r0, r0, asr #23
    bbcc:	02530129 	subseq	r0, r3, #1073741834	; 0x4000000a
    bbd0:	2a003008 	bcs	17bf8 <__bss_end__+0xdb28>
    bbd4:	000096ac 	andeq	r9, r0, ip, lsr #13
    bbd8:	00000c11 	andeq	r0, r0, r1, lsl ip
    bbdc:	01140800 	tsteq	r4, r0, lsl #16
    bbe0:	0a400000 	beq	100bbe8 <__bss_end__+0x1001b18>
    bbe4:	c7090000 	strgt	r0, [r9, -r0]
    bbe8:	0f000000 	svceq	0x00000000
    bbec:	0a300e00 	beq	c0f3f4 <__bss_end__+0xc05324>
    bbf0:	1c240000 	stcne	0, cr0, [r4], #-0
    bbf4:	0100000c 	tsteq	r0, ip
    bbf8:	00010525 	andeq	r0, r1, r5, lsr #10
    bbfc:	00962800 	addseq	r2, r6, r0, lsl #16
    bc00:	00000c00 	andeq	r0, r0, r0, lsl #24
    bc04:	689c0100 	ldmvs	ip, {r8}
    bc08:	2a00000a 	bcs	bc38 <__bss_end__+0x1b68>
    bc0c:	00009630 	andeq	r9, r0, r0, lsr r6
    bc10:	00000bd1 	ldrdeq	r0, [r0], -r1
    bc14:	0be22300 	bleq	ff89481c <__bss_end__+0xff88a74c>
    bc18:	24010000 	strcs	r0, [r1], #-0
    bc1c:	00009624 	andeq	r9, r0, r4, lsr #12
    bc20:	00000004 	andeq	r0, r0, r4
    bc24:	da249c01 	ble	932c30 <__bss_end__+0x928b60>
    bc28:	01000004 	tsteq	r0, r4
    bc2c:	0001051a 	andeq	r0, r1, sl, lsl r5
    bc30:	0095c000 	addseq	ip, r5, r0
    bc34:	00006400 	andeq	r6, r0, r0, lsl #8
    bc38:	249c0100 	ldrcs	r0, [ip], #256	; 0x100
    bc3c:	2b00000b 	blcs	bc70 <__bss_end__+0x1ba0>
    bc40:	01007a73 	tsteq	r0, r3, ror sl
    bc44:	00002c1a 	andeq	r2, r0, sl, lsl ip
    bc48:	00172800 	andseq	r2, r7, r0, lsl #16
    bc4c:	020e2600 	andeq	r2, lr, #0, 12
    bc50:	0b340000 	bleq	d0bc58 <__bss_end__+0xd01b88>
    bc54:	03050000 	movweq	r0, #20480	; 0x5000
    bc58:	00009bb8 			; <UNDEFINED> instruction: 0x00009bb8
    bc5c:	000c5a2c 	andeq	r5, ip, ip, lsr #20
    bc60:	051e0100 	ldreq	r0, [lr, #-256]	; 0xffffff00
    bc64:	72000001 	andvc	r0, r0, #1
    bc68:	28000017 	stmdacs	r0, {r0, r1, r2, r4}
    bc6c:	000095f0 	strdeq	r9, [r0], -r0
    bc70:	00000c1c 	andeq	r0, r0, ip, lsl ip
    bc74:	00000ae3 	andeq	r0, r0, r3, ror #21
    bc78:	02500129 	subseq	r0, r0, #1073741834	; 0x4000000a
    bc7c:	01290074 			; <UNDEFINED> instruction: 0x01290074
    bc80:	29300151 	ldmdbcs	r0!, {r0, r4, r6, r8}
    bc84:	f3085201 	vhsub.u8	d5, d8, d1
    bc88:	07235001 	streq	r5, [r3, -r1]!
    bc8c:	001af809 	andseq	pc, sl, r9, lsl #16
    bc90:	0095fc2a 	addseq	pc, r5, sl, lsr #24
    bc94:	000bfb00 	andeq	pc, fp, r0, lsl #22
    bc98:	96102800 	ldrls	r2, [r0], -r0, lsl #16
    bc9c:	0c060000 	stceq	0, cr0, [r6], {-0}
    bca0:	0b1a0000 	bleq	68bca8 <__bss_end__+0x681bd8>
    bca4:	01290000 			; <UNDEFINED> instruction: 0x01290000
    bca8:	f8030550 			; <UNDEFINED> instruction: 0xf8030550
    bcac:	2900009b 	stmdbcs	r0, {r0, r1, r3, r4, r7}
    bcb0:	03055101 	movweq	r5, #20737	; 0x5101
    bcb4:	00009bd0 	ldrdeq	r9, [r0], -r0
    bcb8:	05520129 	ldrbeq	r0, [r2, #-297]	; 0xfffffed7
    bcbc:	009bb803 	addseq	fp, fp, r3, lsl #16
    bcc0:	53012900 	movwpl	r2, #6400	; 0x1900
    bcc4:	2a004b01 	bcs	1e8d0 <__bss_end__+0x14800>
    bcc8:	00009614 	andeq	r9, r0, r4, lsl r6
    bccc:	00000c11 	andeq	r0, r0, r1, lsl ip
    bcd0:	01140800 	tsteq	r4, r0, lsl #16
    bcd4:	0b340000 	bleq	d0bcdc <__bss_end__+0xd01c0c>
    bcd8:	c7090000 	strgt	r0, [r9, -r0]
    bcdc:	07000000 	streq	r0, [r0, -r0]
    bce0:	0b240e00 	bleq	90f4e8 <__bss_end__+0x905418>
    bce4:	56210000 	strtpl	r0, [r1], -r0
    bce8:	01000001 	tsteq	r0, r1
    bcec:	00957014 	addseq	r7, r5, r4, lsl r0
    bcf0:	00005000 	andeq	r5, r0, r0
    bcf4:	bc9c0100 	ldflts	f0, [ip], {0}
    bcf8:	2500000b 	strcs	r0, [r0, #-11]
    bcfc:	00000c59 	andeq	r0, r0, r9, asr ip
    bd00:	002c1401 	eoreq	r1, ip, r1, lsl #8
    bd04:	17850000 	strne	r0, [r5, r0]
    bd08:	5a2c0000 	bpl	b0bd10 <__bss_end__+0xb01c40>
    bd0c:	0100000c 	tsteq	r0, ip
    bd10:	00010715 	andeq	r0, r1, r5, lsl r7
    bd14:	0017a600 	andseq	sl, r7, r0, lsl #12
    bd18:	020e2600 	andeq	r2, lr, #0, 12
    bd1c:	0bcc0000 	bleq	ff30bd24 <__bss_end__+0xff301c54>
    bd20:	03050000 	movweq	r0, #20480	; 0x5000
    bd24:	00009ba0 	andeq	r9, r0, r0, lsr #23
    bd28:	0095982a 	addseq	r9, r5, sl, lsr #16
    bd2c:	000bfb00 	andeq	pc, fp, r0, lsl #22
    bd30:	95ac2800 	strls	r2, [ip, #2048]!	; 0x800
    bd34:	0c060000 	stceq	0, cr0, [r6], {-0}
    bd38:	0bb20000 	bleq	fec8bd40 <__bss_end__+0xfec81c70>
    bd3c:	01290000 			; <UNDEFINED> instruction: 0x01290000
    bd40:	dc030550 	cfstr32le	mvfx0, [r3], {80}	; 0x50
    bd44:	2900009b 	stmdbcs	r0, {r0, r1, r3, r4, r7}
    bd48:	03055101 	movweq	r5, #20737	; 0x5101
    bd4c:	00009bd0 	ldrdeq	r9, [r0], -r0
    bd50:	05520129 	ldrbeq	r0, [r2, #-297]	; 0xfffffed7
    bd54:	009ba003 	addseq	sl, fp, r3
    bd58:	53012900 	movwpl	r2, #6400	; 0x1900
    bd5c:	2a004601 	bcs	1d568 <__bss_end__+0x13498>
    bd60:	000095b0 			; <UNDEFINED> instruction: 0x000095b0
    bd64:	00000c11 	andeq	r0, r0, r1, lsl ip
    bd68:	01140800 	tsteq	r4, r0, lsl #16
    bd6c:	0bcc0000 	bleq	ff30bd74 <__bss_end__+0xff301ca4>
    bd70:	c7090000 	strgt	r0, [r9, -r0]
    bd74:	16000000 	strne	r0, [r0], -r0
    bd78:	0bbc0e00 	bleq	fef0f580 <__bss_end__+0xfef054b0>
    bd7c:	462d0000 	strtmi	r0, [sp], -r0
    bd80:	0100000c 	tsteq	r0, ip
    bd84:	00010512 	andeq	r0, r1, r2, lsl r5
    bd88:	00956400 	addseq	r6, r5, r0, lsl #8
    bd8c:	00000c00 	andeq	r0, r0, r0, lsl #24
    bd90:	2d9c0100 	ldfcss	f0, [ip]
    bd94:	00000c5f 	andeq	r0, r0, pc, asr ip
    bd98:	01051101 	tsteq	r5, r1, lsl #2
    bd9c:	95540000 	ldrbls	r0, [r4, #-0]
    bda0:	00100000 	andseq	r0, r0, r0
    bda4:	9c010000 	stcls	0, cr0, [r1], {-0}
    bda8:	0001e92e 	andeq	lr, r1, lr, lsr #18
    bdac:	0001e900 	andeq	lr, r1, r0, lsl #18
    bdb0:	2e1e0600 	cfmsub32cs	mvax0, mvfx0, mvfx14, mvfx0
    bdb4:	00000723 	andeq	r0, r0, r3, lsr #14
    bdb8:	00000723 	andeq	r0, r0, r3, lsr #14
    bdbc:	8d2e2906 			; <UNDEFINED> instruction: 0x8d2e2906
    bdc0:	8d000002 	stchi	0, cr0, [r0, #-8]
    bdc4:	06000002 	streq	r0, [r0], -r2
    bdc8:	06962e65 	ldreq	r2, [r6], r5, ror #28
    bdcc:	06960000 	ldreq	r0, [r6], r0
    bdd0:	19070000 	stmdbne	r7, {}	; <UNPREDICTABLE>
	...

Disassembly of section .debug_abbrev:

00000000 <.debug_abbrev>:
       0:	25011101 	strcs	r1, [r1, #-257]	; 0xfffffeff
       4:	030b130e 	movweq	r1, #45838	; 0xb30e
       8:	110e1b0e 	tstne	lr, lr, lsl #22
       c:	10061201 	andne	r1, r6, r1, lsl #4
      10:	02000017 	andeq	r0, r0, #23
      14:	0b0b0024 	bleq	2c00ac <__bss_end__+0x2b5fdc>
      18:	08030b3e 	stmdaeq	r3, {r1, r2, r3, r4, r5, r8, r9, fp}
      1c:	24030000 	strcs	r0, [r3], #-0
      20:	3e0b0b00 	vmlacc.f64	d0, d11, d0
      24:	000e030b 	andeq	r0, lr, fp, lsl #6
      28:	00160400 	andseq	r0, r6, r0, lsl #8
      2c:	0b3a0e03 	bleq	e83840 <__bss_end__+0xe79770>
      30:	0b390b3b 	bleq	e42d24 <__bss_end__+0xe38c54>
      34:	00001349 	andeq	r1, r0, r9, asr #6
      38:	0b000f05 	bleq	3c54 <_start-0x43ac>
      3c:	0013490b 	andseq	r4, r3, fp, lsl #18
      40:	00130600 	andseq	r0, r3, r0, lsl #12
      44:	193c0e03 	ldmdbne	ip!, {r0, r1, r9, sl, fp}
      48:	16070000 	strne	r0, [r7], -r0
      4c:	3a0e0300 	bcc	380c54 <__bss_end__+0x376b84>
      50:	39053b0b 	stmdbcc	r5, {r0, r1, r3, r8, r9, fp, ip, sp}
      54:	0013490b 	andseq	r4, r3, fp, lsl #18
      58:	01170800 	tsteq	r7, r0, lsl #16
      5c:	0b3a0b0b 	bleq	e82c90 <__bss_end__+0xe78bc0>
      60:	0b390b3b 	bleq	e42d54 <__bss_end__+0xe38c84>
      64:	00001301 	andeq	r1, r0, r1, lsl #6
      68:	03000d09 	movweq	r0, #3337	; 0xd09
      6c:	3b0b3a0e 	blcc	2ce8ac <__bss_end__+0x2c47dc>
      70:	490b390b 	stmdbmi	fp, {r0, r1, r3, r8, fp, ip, sp}
      74:	0a000013 	beq	c8 <_start-0x7f38>
      78:	13490101 	movtne	r0, #37121	; 0x9101
      7c:	00001301 	andeq	r1, r0, r1, lsl #6
      80:	4900210b 	stmdbmi	r0, {r0, r1, r3, r8, sp}
      84:	000b2f13 	andeq	r2, fp, r3, lsl pc
      88:	01130c00 	tsteq	r3, r0, lsl #24
      8c:	0b3a0b0b 	bleq	e82cc0 <__bss_end__+0xe78bf0>
      90:	0b390b3b 	bleq	e42d84 <__bss_end__+0xe38cb4>
      94:	00001301 	andeq	r1, r0, r1, lsl #6
      98:	03000d0d 	movweq	r0, #3341	; 0xd0d
      9c:	3b0b3a0e 	blcc	2ce8dc <__bss_end__+0x2c480c>
      a0:	490b390b 	stmdbmi	fp, {r0, r1, r3, r8, fp, ip, sp}
      a4:	000b3813 	andeq	r3, fp, r3, lsl r8
      a8:	000f0e00 	andeq	r0, pc, r0, lsl #28
      ac:	00000b0b 	andeq	r0, r0, fp, lsl #22
      b0:	4900260f 	stmdbmi	r0, {r0, r1, r2, r3, r9, sl, sp}
      b4:	10000013 	andne	r0, r0, r3, lsl r0
      b8:	0e030113 	mcreq	1, 0, r0, cr3, cr3, {0}
      bc:	0b3a0b0b 	bleq	e82cf0 <__bss_end__+0xe78c20>
      c0:	0b390b3b 	bleq	e42db4 <__bss_end__+0xe38ce4>
      c4:	00001301 	andeq	r1, r0, r1, lsl #6
      c8:	03000d11 	movweq	r0, #3345	; 0xd11
      cc:	3b0b3a08 	blcc	2ce8f4 <__bss_end__+0x2c4824>
      d0:	490b390b 	stmdbmi	fp, {r0, r1, r3, r8, fp, ip, sp}
      d4:	000b3813 	andeq	r3, fp, r3, lsl r8
      d8:	01131200 	tsteq	r3, r0, lsl #4
      dc:	050b0e03 	streq	r0, [fp, #-3587]	; 0xfffff1fd
      e0:	0b3b0b3a 	bleq	ec2dd0 <__bss_end__+0xeb8d00>
      e4:	13010b39 	movwne	r0, #6969	; 0x1b39
      e8:	0d130000 	ldceq	0, cr0, [r3, #-0]
      ec:	3a0e0300 	bcc	380cf4 <__bss_end__+0x376c24>
      f0:	390b3b0b 	stmdbcc	fp, {r0, r1, r3, r8, r9, fp, ip, sp}
      f4:	3813490b 	ldmdacc	r3, {r0, r1, r3, r8, fp, lr}
      f8:	14000005 	strne	r0, [r0], #-5
      fc:	19270015 	stmdbne	r7!, {r0, r2, r4}
     100:	15150000 	ldrne	r0, [r5, #-0]
     104:	49192701 	ldmdbmi	r9, {r0, r8, r9, sl, sp}
     108:	00130113 	andseq	r0, r3, r3, lsl r1
     10c:	00051600 	andeq	r1, r5, r0, lsl #12
     110:	00001349 	andeq	r1, r0, r9, asr #6
     114:	03011317 	movweq	r1, #4887	; 0x1317
     118:	3a050b0e 	bcc	142d58 <__bss_end__+0x138c88>
     11c:	39053b0b 	stmdbcc	r5, {r0, r1, r3, r8, r9, fp, ip, sp}
     120:	0013010b 	andseq	r0, r3, fp, lsl #2
     124:	000d1800 	andeq	r1, sp, r0, lsl #16
     128:	0b3a0e03 	bleq	e8393c <__bss_end__+0xe7986c>
     12c:	0b39053b 	bleq	e41620 <__bss_end__+0xe37550>
     130:	0b381349 	bleq	e04e5c <__bss_end__+0xdfad8c>
     134:	0d190000 	ldceq	0, cr0, [r9, #-0]
     138:	3a0e0300 	bcc	380d40 <__bss_end__+0x376c70>
     13c:	39053b0b 	stmdbcc	r5, {r0, r1, r3, r8, r9, fp, ip, sp}
     140:	3813490b 	ldmdacc	r3, {r0, r1, r3, r8, fp, lr}
     144:	1a000005 	bne	160 <_start-0x7ea0>
     148:	0e030113 	mcreq	1, 0, r0, cr3, cr3, {0}
     14c:	0b3a0b0b 	bleq	e82d80 <__bss_end__+0xe78cb0>
     150:	0b39053b 	bleq	e41644 <__bss_end__+0xe37574>
     154:	00001301 	andeq	r1, r0, r1, lsl #6
     158:	0b01131b 	bleq	44dcc <__bss_end__+0x3acfc>
     15c:	3b0b3a0b 	blcc	2ce990 <__bss_end__+0x2c48c0>
     160:	010b3905 	tsteq	fp, r5, lsl #18
     164:	1c000013 	stcne	0, cr0, [r0], {19}
     168:	0b0b0117 	bleq	2c05cc <__bss_end__+0x2b64fc>
     16c:	053b0b3a 	ldreq	r0, [fp, #-2874]!	; 0xfffff4c6
     170:	13010b39 	movwne	r0, #6969	; 0x1b39
     174:	0d1d0000 	ldceq	0, cr0, [sp, #-0]
     178:	3a0e0300 	bcc	380d80 <__bss_end__+0x376cb0>
     17c:	39053b0b 	stmdbcc	r5, {r0, r1, r3, r8, r9, fp, ip, sp}
     180:	0013490b 	andseq	r4, r3, fp, lsl #18
     184:	01151e00 	tsteq	r5, r0, lsl #28
     188:	13011927 	movwne	r1, #6439	; 0x1927
     18c:	341f0000 	ldrcc	r0, [pc], #-0	; 194 <_start-0x7e6c>
     190:	3a0e0300 	bcc	380d98 <__bss_end__+0x376cc8>
     194:	39053b0b 	stmdbcc	r5, {r0, r1, r3, r8, r9, fp, ip, sp}
     198:	3f13490b 	svccc	0x0013490b
     19c:	00193c19 	andseq	r3, r9, r9, lsl ip
     1a0:	00342000 	eorseq	r2, r4, r0
     1a4:	0b3a0e03 	bleq	e839b8 <__bss_end__+0xe798e8>
     1a8:	0b390b3b 	bleq	e42e9c <__bss_end__+0xe38dcc>
     1ac:	193f1349 	ldmdbne	pc!, {r0, r3, r6, r8, r9, ip}	; <UNPREDICTABLE>
     1b0:	0000193c 	andeq	r1, r0, ip, lsr r9
     1b4:	3f012e21 	svccc	0x00012e21
     1b8:	3a0e0319 	bcc	380e24 <__bss_end__+0x376d54>
     1bc:	390b3b0b 	stmdbcc	fp, {r0, r1, r3, r8, r9, fp, ip, sp}
     1c0:	1119270b 	tstne	r9, fp, lsl #14
     1c4:	40061201 	andmi	r1, r6, r1, lsl #4
     1c8:	19429718 	stmdbne	r2, {r3, r4, r8, r9, sl, ip, pc}^
     1cc:	00001301 	andeq	r1, r0, r1, lsl #6
     1d0:	03003422 	movweq	r3, #1058	; 0x422
     1d4:	3b0b3a08 	blcc	2ce9fc <__bss_end__+0x2c492c>
     1d8:	490b390b 	stmdbmi	fp, {r0, r1, r3, r8, fp, ip, sp}
     1dc:	00061c13 	andeq	r1, r6, r3, lsl ip
     1e0:	00342300 	eorseq	r2, r4, r0, lsl #6
     1e4:	0b3a0803 	bleq	e821f8 <__bss_end__+0xe78128>
     1e8:	0b390b3b 	bleq	e42edc <__bss_end__+0xe38e0c>
     1ec:	17021349 	strne	r1, [r2, -r9, asr #6]
     1f0:	001742b7 			; <UNDEFINED> instruction: 0x001742b7
     1f4:	00342400 	eorseq	r2, r4, r0, lsl #8
     1f8:	13490e03 	movtne	r0, #40451	; 0x9e03
     1fc:	18021934 	stmdane	r2, {r2, r4, r5, r8, fp, ip}
     200:	89250000 	stmdbhi	r5!, {}	; <UNPREDICTABLE>
     204:	11010182 	smlabbne	r1, r2, r1, r0
     208:	01133101 	tsteq	r3, r1, lsl #2
     20c:	26000013 			; <UNDEFINED> instruction: 0x26000013
     210:	0001828a 	andeq	r8, r1, sl, lsl #5
     214:	42911802 	addsmi	r1, r1, #131072	; 0x20000
     218:	27000018 	smladcs	r0, r8, r0, r0
     21c:	00018289 	andeq	r8, r1, r9, lsl #5
     220:	13310111 	teqne	r1, #1073741828	; 0x40000004
     224:	2e280000 	cdpcs	0, 2, cr0, cr8, cr0, {0}
     228:	3c193f00 	ldccc	15, cr3, [r9], {-0}
     22c:	030e6e19 	movweq	r6, #60953	; 0xee19
     230:	3b0b3a0e 	blcc	2cea70 <__bss_end__+0x2c49a0>
     234:	000b390b 	andeq	r3, fp, fp, lsl #18
     238:	11010000 	mrsne	r0, (UNDEF: 1)
     23c:	130e2501 	movwne	r2, #58625	; 0xe501
     240:	1b0e030b 	blne	380e74 <__bss_end__+0x376da4>
     244:	1201110e 	andne	r1, r1, #-2147483645	; 0x80000003
     248:	00171006 	andseq	r1, r7, r6
     24c:	00240200 	eoreq	r0, r4, r0, lsl #4
     250:	0b3e0b0b 	bleq	f82e84 <__bss_end__+0xf78db4>
     254:	00000803 	andeq	r0, r0, r3, lsl #16
     258:	0b002403 	bleq	926c <delay_sec+0x14>
     25c:	030b3e0b 	movweq	r3, #48651	; 0xbe0b
     260:	0400000e 	streq	r0, [r0], #-14
     264:	0e030016 	mcreq	0, 0, r0, cr3, cr6, {0}
     268:	0b3b0b3a 	bleq	ec2f58 <__bss_end__+0xeb8e88>
     26c:	13490b39 	movtne	r0, #39737	; 0x9b39
     270:	0f050000 	svceq	0x00050000
     274:	490b0b00 	stmdbmi	fp, {r8, r9, fp}
     278:	06000013 			; <UNDEFINED> instruction: 0x06000013
     27c:	0e030013 	mcreq	0, 0, r0, cr3, cr3, {0}
     280:	0000193c 	andeq	r1, r0, ip, lsr r9
     284:	03001607 	movweq	r1, #1543	; 0x607
     288:	3b0b3a0e 	blcc	2ceac8 <__bss_end__+0x2c49f8>
     28c:	490b3905 	stmdbmi	fp, {r0, r2, r8, fp, ip, sp}
     290:	08000013 	stmdaeq	r0, {r0, r1, r4}
     294:	0b0b0117 	bleq	2c06f8 <__bss_end__+0x2b6628>
     298:	0b3b0b3a 	bleq	ec2f88 <__bss_end__+0xeb8eb8>
     29c:	13010b39 	movwne	r0, #6969	; 0x1b39
     2a0:	0d090000 	stceq	0, cr0, [r9, #-0]
     2a4:	3a0e0300 	bcc	380eac <__bss_end__+0x376ddc>
     2a8:	390b3b0b 	stmdbcc	fp, {r0, r1, r3, r8, r9, fp, ip, sp}
     2ac:	0013490b 	andseq	r4, r3, fp, lsl #18
     2b0:	01010a00 	tsteq	r1, r0, lsl #20
     2b4:	13011349 	movwne	r1, #4937	; 0x1349
     2b8:	210b0000 	mrscs	r0, (UNDEF: 11)
     2bc:	2f134900 	svccs	0x00134900
     2c0:	0c00000b 	stceq	0, cr0, [r0], {11}
     2c4:	0b0b0113 	bleq	2c0718 <__bss_end__+0x2b6648>
     2c8:	0b3b0b3a 	bleq	ec2fb8 <__bss_end__+0xeb8ee8>
     2cc:	13010b39 	movwne	r0, #6969	; 0x1b39
     2d0:	0d0d0000 	stceq	0, cr0, [sp, #-0]
     2d4:	3a0e0300 	bcc	380edc <__bss_end__+0x376e0c>
     2d8:	390b3b0b 	stmdbcc	fp, {r0, r1, r3, r8, r9, fp, ip, sp}
     2dc:	3813490b 	ldmdacc	r3, {r0, r1, r3, r8, fp, lr}
     2e0:	0e00000b 	cdpeq	0, 0, cr0, cr0, cr11, {0}
     2e4:	0b0b000f 	bleq	2c0328 <__bss_end__+0x2b6258>
     2e8:	260f0000 	strcs	r0, [pc], -r0
     2ec:	00134900 	andseq	r4, r3, r0, lsl #18
     2f0:	01131000 	tsteq	r3, r0
     2f4:	0b0b0e03 	bleq	2c3b08 <__bss_end__+0x2b9a38>
     2f8:	0b3b0b3a 	bleq	ec2fe8 <__bss_end__+0xeb8f18>
     2fc:	13010b39 	movwne	r0, #6969	; 0x1b39
     300:	0d110000 	ldceq	0, cr0, [r1, #-0]
     304:	3a080300 	bcc	200f0c <__bss_end__+0x1f6e3c>
     308:	390b3b0b 	stmdbcc	fp, {r0, r1, r3, r8, r9, fp, ip, sp}
     30c:	3813490b 	ldmdacc	r3, {r0, r1, r3, r8, fp, lr}
     310:	1200000b 	andne	r0, r0, #11
     314:	0e030113 	mcreq	1, 0, r0, cr3, cr3, {0}
     318:	0b3a050b 	bleq	e8174c <__bss_end__+0xe7767c>
     31c:	0b390b3b 	bleq	e43010 <__bss_end__+0xe38f40>
     320:	00001301 	andeq	r1, r0, r1, lsl #6
     324:	03000d13 	movweq	r0, #3347	; 0xd13
     328:	3b0b3a0e 	blcc	2ceb68 <__bss_end__+0x2c4a98>
     32c:	490b390b 	stmdbmi	fp, {r0, r1, r3, r8, fp, ip, sp}
     330:	00053813 	andeq	r3, r5, r3, lsl r8
     334:	00151400 	andseq	r1, r5, r0, lsl #8
     338:	00001927 	andeq	r1, r0, r7, lsr #18
     33c:	27011515 	smladcs	r1, r5, r5, r1
     340:	01134919 	tsteq	r3, r9, lsl r9
     344:	16000013 			; <UNDEFINED> instruction: 0x16000013
     348:	13490005 	movtne	r0, #36869	; 0x9005
     34c:	13170000 	tstne	r7, #0
     350:	0b0e0301 	bleq	380f5c <__bss_end__+0x376e8c>
     354:	3b0b3a05 	blcc	2ceb70 <__bss_end__+0x2c4aa0>
     358:	010b3905 	tsteq	fp, r5, lsl #18
     35c:	18000013 	stmdane	r0, {r0, r1, r4}
     360:	0e03000d 	cdpeq	0, 0, cr0, cr3, cr13, {0}
     364:	053b0b3a 	ldreq	r0, [fp, #-2874]!	; 0xfffff4c6
     368:	13490b39 	movtne	r0, #39737	; 0x9b39
     36c:	00000b38 	andeq	r0, r0, r8, lsr fp
     370:	03000d19 	movweq	r0, #3353	; 0xd19
     374:	3b0b3a0e 	blcc	2cebb4 <__bss_end__+0x2c4ae4>
     378:	490b3905 	stmdbmi	fp, {r0, r2, r8, fp, ip, sp}
     37c:	00053813 	andeq	r3, r5, r3, lsl r8
     380:	01131a00 	tsteq	r3, r0, lsl #20
     384:	0b0b0e03 	bleq	2c3b98 <__bss_end__+0x2b9ac8>
     388:	053b0b3a 	ldreq	r0, [fp, #-2874]!	; 0xfffff4c6
     38c:	13010b39 	movwne	r0, #6969	; 0x1b39
     390:	131b0000 	tstne	fp, #0
     394:	3a0b0b01 	bcc	2c2fa0 <__bss_end__+0x2b8ed0>
     398:	39053b0b 	stmdbcc	r5, {r0, r1, r3, r8, r9, fp, ip, sp}
     39c:	0013010b 	andseq	r0, r3, fp, lsl #2
     3a0:	01171c00 	tsteq	r7, r0, lsl #24
     3a4:	0b3a0b0b 	bleq	e82fd8 <__bss_end__+0xe78f08>
     3a8:	0b39053b 	bleq	e4189c <__bss_end__+0xe377cc>
     3ac:	00001301 	andeq	r1, r0, r1, lsl #6
     3b0:	03000d1d 	movweq	r0, #3357	; 0xd1d
     3b4:	3b0b3a0e 	blcc	2cebf4 <__bss_end__+0x2c4b24>
     3b8:	490b3905 	stmdbmi	fp, {r0, r2, r8, fp, ip, sp}
     3bc:	1e000013 	mcrne	0, 0, r0, cr0, cr3, {0}
     3c0:	19270115 	stmdbne	r7!, {r0, r2, r4, r8}
     3c4:	00001301 	andeq	r1, r0, r1, lsl #6
     3c8:	0300341f 	movweq	r3, #1055	; 0x41f
     3cc:	3b0b3a0e 	blcc	2cec0c <__bss_end__+0x2c4b3c>
     3d0:	490b3905 	stmdbmi	fp, {r0, r2, r8, fp, ip, sp}
     3d4:	3c193f13 	ldccc	15, cr3, [r9], {19}
     3d8:	20000019 	andcs	r0, r0, r9, lsl r0
     3dc:	0e030034 	mcreq	0, 0, r0, cr3, cr4, {1}
     3e0:	0b3b0b3a 	bleq	ec30d0 <__bss_end__+0xeb9000>
     3e4:	13490b39 	movtne	r0, #39737	; 0x9b39
     3e8:	193c193f 	ldmdbne	ip!, {r0, r1, r2, r3, r4, r5, r8, fp, ip}
     3ec:	04210000 	strteq	r0, [r1], #-0
     3f0:	0b0b3e01 	bleq	2cfbfc <__bss_end__+0x2c5b2c>
     3f4:	3a13490b 	bcc	4d2828 <__bss_end__+0x4c8758>
     3f8:	390b3b0b 	stmdbcc	fp, {r0, r1, r3, r8, r9, fp, ip, sp}
     3fc:	0013010b 	andseq	r0, r3, fp, lsl #2
     400:	00282200 	eoreq	r2, r8, r0, lsl #4
     404:	0b1c0e03 	bleq	703c18 <__bss_end__+0x6f9b48>
     408:	28230000 	stmdacs	r3!, {}	; <UNPREDICTABLE>
     40c:	1c0e0300 	stcne	3, cr0, [lr], {-0}
     410:	24000005 	strcs	r0, [r0], #-5
     414:	0e030034 	mcreq	0, 0, r0, cr3, cr4, {1}
     418:	0b3b0b3a 	bleq	ec3108 <__bss_end__+0xeb9038>
     41c:	13490b39 	movtne	r0, #39737	; 0x9b39
     420:	00001802 	andeq	r1, r0, r2, lsl #16
     424:	3f012e25 	svccc	0x00012e25
     428:	3a0e0319 	bcc	381094 <__bss_end__+0x376fc4>
     42c:	390b3b0b 	stmdbcc	fp, {r0, r1, r3, r8, r9, fp, ip, sp}
     430:	4919270b 	ldmdbmi	r9, {r0, r1, r3, r8, r9, sl, sp}
     434:	12011113 	andne	r1, r1, #-1073741820	; 0xc0000004
     438:	97184006 	ldrls	r4, [r8, -r6]
     43c:	13011942 	movwne	r1, #6466	; 0x1942
     440:	34260000 	strtcc	r0, [r6], #-0
     444:	3a0e0300 	bcc	38104c <__bss_end__+0x376f7c>
     448:	390b3b0b 	stmdbcc	fp, {r0, r1, r3, r8, r9, fp, ip, sp}
     44c:	0213490b 	andseq	r4, r3, #180224	; 0x2c000
     450:	1742b717 	smlaldne	fp, r2, r7, r7
     454:	0b270000 	bleq	9c045c <__bss_end__+0x9b638c>
     458:	01175501 	tsteq	r7, r1, lsl #10
     45c:	28000013 	stmdacs	r0, {r0, r1, r4}
     460:	00018289 	andeq	r8, r1, r9, lsl #5
     464:	13310111 	teqne	r1, #1073741828	; 0x40000004
     468:	89290000 	stmdbhi	r9!, {}	; <UNPREDICTABLE>
     46c:	11010182 	smlabbne	r1, r2, r1, r0
     470:	01133101 	tsteq	r3, r1, lsl #2
     474:	2a000013 	bcs	4c8 <_start-0x7b38>
     478:	0001828a 	andeq	r8, r1, sl, lsl #5
     47c:	42911802 	addsmi	r1, r1, #131072	; 0x20000
     480:	2b000018 	blcs	4e8 <_start-0x7b18>
     484:	01018289 	smlabbeq	r1, r9, r2, r8
     488:	13310111 	teqne	r1, #1073741828	; 0x40000004
     48c:	052c0000 	streq	r0, [ip, #-0]!
     490:	3a080300 	bcc	201098 <__bss_end__+0x1f6fc8>
     494:	390b3b0b 	stmdbcc	fp, {r0, r1, r3, r8, r9, fp, ip, sp}
     498:	0213490b 	andseq	r4, r3, #180224	; 0x2c000
     49c:	1742b717 	smlaldne	fp, r2, r7, r7
     4a0:	342d0000 	strtcc	r0, [sp], #-0
     4a4:	3a080300 	bcc	2010ac <__bss_end__+0x1f6fdc>
     4a8:	390b3b0b 	stmdbcc	fp, {r0, r1, r3, r8, r9, fp, ip, sp}
     4ac:	0213490b 	andseq	r4, r3, #180224	; 0x2c000
     4b0:	1742b717 	smlaldne	fp, r2, r7, r7
     4b4:	052e0000 	streq	r0, [lr, #-0]!
     4b8:	3a0e0300 	bcc	3810c0 <__bss_end__+0x376ff0>
     4bc:	390b3b0b 	stmdbcc	fp, {r0, r1, r3, r8, r9, fp, ip, sp}
     4c0:	0213490b 	andseq	r4, r3, #180224	; 0x2c000
     4c4:	1742b717 	smlaldne	fp, r2, r7, r7
     4c8:	342f0000 	strtcc	r0, [pc], #-0	; 4d0 <_start-0x7b30>
     4cc:	490e0300 	stmdbmi	lr, {r8, r9}
     4d0:	02193413 	andseq	r3, r9, #318767104	; 0x13000000
     4d4:	30000018 	andcc	r0, r0, r8, lsl r0
     4d8:	193f012e 	ldmdbne	pc!, {r1, r2, r3, r5, r8}	; <UNPREDICTABLE>
     4dc:	0b3a0e03 	bleq	e83cf0 <__bss_end__+0xe79c20>
     4e0:	0b390b3b 	bleq	e431d4 <__bss_end__+0xe39104>
     4e4:	01111927 	tsteq	r1, r7, lsr #18
     4e8:	18400612 	stmdane	r0, {r1, r4, r9, sl}^
     4ec:	01194297 			; <UNDEFINED> instruction: 0x01194297
     4f0:	31000013 	tstcc	r0, r3, lsl r0
     4f4:	0e03012e 	adfeqsp	f0, f3, #0.5
     4f8:	0b3b0b3a 	bleq	ec31e8 <__bss_end__+0xeb9118>
     4fc:	19270b39 	stmdbne	r7!, {r0, r3, r4, r5, r8, r9, fp}
     500:	01111349 	tsteq	r1, r9, asr #6
     504:	18400612 	stmdane	r0, {r1, r4, r9, sl}^
     508:	01194297 			; <UNDEFINED> instruction: 0x01194297
     50c:	32000013 	andcc	r0, r0, #19
     510:	0e03012e 	adfeqsp	f0, f3, #0.5
     514:	0b3b0b3a 	bleq	ec3204 <__bss_end__+0xeb9134>
     518:	19270b39 	stmdbne	r7!, {r0, r3, r4, r5, r8, r9, fp}
     51c:	06120111 			; <UNDEFINED> instruction: 0x06120111
     520:	42971840 	addsmi	r1, r7, #64, 16	; 0x400000
     524:	00130119 	andseq	r0, r3, r9, lsl r1
     528:	010b3300 	mrseq	r3, (UNDEF: 59)
     52c:	06120111 			; <UNDEFINED> instruction: 0x06120111
     530:	1d340000 	ldcne	0, cr0, [r4, #-0]
     534:	52133101 	andspl	r3, r3, #1073741824	; 0x40000000
     538:	0b42b801 	bleq	10ae544 <__bss_end__+0x10a4474>
     53c:	0b581755 	bleq	1606298 <__bss_end__+0x15fc1c8>
     540:	0b570b59 	bleq	15c32ac <__bss_end__+0x15b91dc>
     544:	00001301 	andeq	r1, r0, r1, lsl #6
     548:	31000535 	tstcc	r0, r5, lsr r5
     54c:	b7170213 			; <UNDEFINED> instruction: 0xb7170213
     550:	00001742 	andeq	r1, r0, r2, asr #14
     554:	55010b36 	strpl	r0, [r1, #-2870]	; 0xfffff4ca
     558:	37000017 	smladcc	r0, r7, r0, r0
     55c:	13310034 	teqne	r1, #52	; 0x34
     560:	42b71702 	adcsmi	r1, r7, #524288	; 0x80000
     564:	38000017 	stmdacc	r0, {r0, r1, r2, r4}
     568:	0e03012e 	adfeqsp	f0, f3, #0.5
     56c:	0b3b0b3a 	bleq	ec325c <__bss_end__+0xeb918c>
     570:	19270b39 	stmdbne	r7!, {r0, r3, r4, r5, r8, r9, fp}
     574:	13010b20 	movwne	r0, #6944	; 0x1b20
     578:	05390000 	ldreq	r0, [r9, #-0]!
     57c:	3a080300 	bcc	201184 <__bss_end__+0x1f70b4>
     580:	390b3b0b 	stmdbcc	fp, {r0, r1, r3, r8, r9, fp, ip, sp}
     584:	0013490b 	andseq	r4, r3, fp, lsl #18
     588:	00343a00 	eorseq	r3, r4, r0, lsl #20
     58c:	0b3a0803 	bleq	e825a0 <__bss_end__+0xe784d0>
     590:	0b390b3b 	bleq	e43284 <__bss_end__+0xe391b4>
     594:	00001349 	andeq	r1, r0, r9, asr #6
     598:	3f002e3b 	svccc	0x00002e3b
     59c:	6e193c19 	mrcvs	12, 0, r3, cr9, cr9, {0}
     5a0:	3a0e030e 	bcc	3811e0 <__bss_end__+0x377110>
     5a4:	390b3b0b 	stmdbcc	fp, {r0, r1, r3, r8, r9, fp, ip, sp}
     5a8:	0000000b 	andeq	r0, r0, fp
     5ac:	25011101 	strcs	r1, [r1, #-257]	; 0xfffffeff
     5b0:	030b130e 	movweq	r1, #45838	; 0xb30e
     5b4:	110e1b0e 	tstne	lr, lr, lsl #22
     5b8:	10061201 	andne	r1, r6, r1, lsl #4
     5bc:	02000017 	andeq	r0, r0, #23
     5c0:	0b0b0024 	bleq	2c0658 <__bss_end__+0x2b6588>
     5c4:	08030b3e 	stmdaeq	r3, {r1, r2, r3, r4, r5, r8, r9, fp}
     5c8:	24030000 	strcs	r0, [r3], #-0
     5cc:	3e0b0b00 	vmlacc.f64	d0, d11, d0
     5d0:	000e030b 	andeq	r0, lr, fp, lsl #6
     5d4:	00160400 	andseq	r0, r6, r0, lsl #8
     5d8:	0b3a0e03 	bleq	e83dec <__bss_end__+0xe79d1c>
     5dc:	0b390b3b 	bleq	e432d0 <__bss_end__+0xe39200>
     5e0:	00001349 	andeq	r1, r0, r9, asr #6
     5e4:	0b000f05 	bleq	4200 <_start-0x3e00>
     5e8:	0013490b 	andseq	r4, r3, fp, lsl #18
     5ec:	00130600 	andseq	r0, r3, r0, lsl #12
     5f0:	193c0e03 	ldmdbne	ip!, {r0, r1, r9, sl, fp}
     5f4:	16070000 	strne	r0, [r7], -r0
     5f8:	3a0e0300 	bcc	381200 <__bss_end__+0x377130>
     5fc:	39053b0b 	stmdbcc	r5, {r0, r1, r3, r8, r9, fp, ip, sp}
     600:	0013490b 	andseq	r4, r3, fp, lsl #18
     604:	01170800 	tsteq	r7, r0, lsl #16
     608:	0b3a0b0b 	bleq	e8323c <__bss_end__+0xe7916c>
     60c:	0b390b3b 	bleq	e43300 <__bss_end__+0xe39230>
     610:	00001301 	andeq	r1, r0, r1, lsl #6
     614:	03000d09 	movweq	r0, #3337	; 0xd09
     618:	3b0b3a0e 	blcc	2cee58 <__bss_end__+0x2c4d88>
     61c:	490b390b 	stmdbmi	fp, {r0, r1, r3, r8, fp, ip, sp}
     620:	0a000013 	beq	674 <_start-0x798c>
     624:	13490101 	movtne	r0, #37121	; 0x9101
     628:	00001301 	andeq	r1, r0, r1, lsl #6
     62c:	4900210b 	stmdbmi	r0, {r0, r1, r3, r8, sp}
     630:	000b2f13 	andeq	r2, fp, r3, lsl pc
     634:	01130c00 	tsteq	r3, r0, lsl #24
     638:	0b3a0b0b 	bleq	e8326c <__bss_end__+0xe7919c>
     63c:	0b390b3b 	bleq	e43330 <__bss_end__+0xe39260>
     640:	00001301 	andeq	r1, r0, r1, lsl #6
     644:	03000d0d 	movweq	r0, #3341	; 0xd0d
     648:	3b0b3a0e 	blcc	2cee88 <__bss_end__+0x2c4db8>
     64c:	490b390b 	stmdbmi	fp, {r0, r1, r3, r8, fp, ip, sp}
     650:	000b3813 	andeq	r3, fp, r3, lsl r8
     654:	000f0e00 	andeq	r0, pc, r0, lsl #28
     658:	00000b0b 	andeq	r0, r0, fp, lsl #22
     65c:	4900260f 	stmdbmi	r0, {r0, r1, r2, r3, r9, sl, sp}
     660:	10000013 	andne	r0, r0, r3, lsl r0
     664:	0e030113 	mcreq	1, 0, r0, cr3, cr3, {0}
     668:	0b3a0b0b 	bleq	e8329c <__bss_end__+0xe791cc>
     66c:	0b390b3b 	bleq	e43360 <__bss_end__+0xe39290>
     670:	00001301 	andeq	r1, r0, r1, lsl #6
     674:	03000d11 	movweq	r0, #3345	; 0xd11
     678:	3b0b3a08 	blcc	2ceea0 <__bss_end__+0x2c4dd0>
     67c:	490b390b 	stmdbmi	fp, {r0, r1, r3, r8, fp, ip, sp}
     680:	000b3813 	andeq	r3, fp, r3, lsl r8
     684:	01131200 	tsteq	r3, r0, lsl #4
     688:	050b0e03 	streq	r0, [fp, #-3587]	; 0xfffff1fd
     68c:	0b3b0b3a 	bleq	ec337c <__bss_end__+0xeb92ac>
     690:	13010b39 	movwne	r0, #6969	; 0x1b39
     694:	0d130000 	ldceq	0, cr0, [r3, #-0]
     698:	3a0e0300 	bcc	3812a0 <__bss_end__+0x3771d0>
     69c:	390b3b0b 	stmdbcc	fp, {r0, r1, r3, r8, r9, fp, ip, sp}
     6a0:	3813490b 	ldmdacc	r3, {r0, r1, r3, r8, fp, lr}
     6a4:	14000005 	strne	r0, [r0], #-5
     6a8:	19270015 	stmdbne	r7!, {r0, r2, r4}
     6ac:	15150000 	ldrne	r0, [r5, #-0]
     6b0:	49192701 	ldmdbmi	r9, {r0, r8, r9, sl, sp}
     6b4:	00130113 	andseq	r0, r3, r3, lsl r1
     6b8:	00051600 	andeq	r1, r5, r0, lsl #12
     6bc:	00001349 	andeq	r1, r0, r9, asr #6
     6c0:	03011317 	movweq	r1, #4887	; 0x1317
     6c4:	3a050b0e 	bcc	143304 <__bss_end__+0x139234>
     6c8:	39053b0b 	stmdbcc	r5, {r0, r1, r3, r8, r9, fp, ip, sp}
     6cc:	0013010b 	andseq	r0, r3, fp, lsl #2
     6d0:	000d1800 	andeq	r1, sp, r0, lsl #16
     6d4:	0b3a0e03 	bleq	e83ee8 <__bss_end__+0xe79e18>
     6d8:	0b39053b 	bleq	e41bcc <__bss_end__+0xe37afc>
     6dc:	0b381349 	bleq	e05408 <__bss_end__+0xdfb338>
     6e0:	0d190000 	ldceq	0, cr0, [r9, #-0]
     6e4:	3a0e0300 	bcc	3812ec <__bss_end__+0x37721c>
     6e8:	39053b0b 	stmdbcc	r5, {r0, r1, r3, r8, r9, fp, ip, sp}
     6ec:	3813490b 	ldmdacc	r3, {r0, r1, r3, r8, fp, lr}
     6f0:	1a000005 	bne	70c <_start-0x78f4>
     6f4:	0e030113 	mcreq	1, 0, r0, cr3, cr3, {0}
     6f8:	0b3a0b0b 	bleq	e8332c <__bss_end__+0xe7925c>
     6fc:	0b39053b 	bleq	e41bf0 <__bss_end__+0xe37b20>
     700:	00001301 	andeq	r1, r0, r1, lsl #6
     704:	0b01131b 	bleq	45378 <__bss_end__+0x3b2a8>
     708:	3b0b3a0b 	blcc	2cef3c <__bss_end__+0x2c4e6c>
     70c:	010b3905 	tsteq	fp, r5, lsl #18
     710:	1c000013 	stcne	0, cr0, [r0], {19}
     714:	0b0b0117 	bleq	2c0b78 <__bss_end__+0x2b6aa8>
     718:	053b0b3a 	ldreq	r0, [fp, #-2874]!	; 0xfffff4c6
     71c:	13010b39 	movwne	r0, #6969	; 0x1b39
     720:	0d1d0000 	ldceq	0, cr0, [sp, #-0]
     724:	3a0e0300 	bcc	38132c <__bss_end__+0x37725c>
     728:	39053b0b 	stmdbcc	r5, {r0, r1, r3, r8, r9, fp, ip, sp}
     72c:	0013490b 	andseq	r4, r3, fp, lsl #18
     730:	01151e00 	tsteq	r5, r0, lsl #28
     734:	13011927 	movwne	r1, #6439	; 0x1927
     738:	341f0000 	ldrcc	r0, [pc], #-0	; 740 <_start-0x78c0>
     73c:	3a0e0300 	bcc	381344 <__bss_end__+0x377274>
     740:	39053b0b 	stmdbcc	r5, {r0, r1, r3, r8, r9, fp, ip, sp}
     744:	3f13490b 	svccc	0x0013490b
     748:	00193c19 	andseq	r3, r9, r9, lsl ip
     74c:	00342000 	eorseq	r2, r4, r0
     750:	0b3a0e03 	bleq	e83f64 <__bss_end__+0xe79e94>
     754:	0b390b3b 	bleq	e43448 <__bss_end__+0xe39378>
     758:	193f1349 	ldmdbne	pc!, {r0, r3, r6, r8, r9, ip}	; <UNPREDICTABLE>
     75c:	0000193c 	andeq	r1, r0, ip, lsr r9
     760:	3f012e21 	svccc	0x00012e21
     764:	3a0e0319 	bcc	3813d0 <__bss_end__+0x377300>
     768:	390b3b0b 	stmdbcc	fp, {r0, r1, r3, r8, r9, fp, ip, sp}
     76c:	4919270b 	ldmdbmi	r9, {r0, r1, r3, r8, r9, sl, sp}
     770:	12011113 	andne	r1, r1, #-1073741820	; 0xc0000004
     774:	97184006 	ldrls	r4, [r8, -r6]
     778:	13011942 	movwne	r1, #6466	; 0x1942
     77c:	05220000 	streq	r0, [r2, #-0]!
     780:	3a0e0300 	bcc	381388 <__bss_end__+0x3772b8>
     784:	390b3b0b 	stmdbcc	fp, {r0, r1, r3, r8, r9, fp, ip, sp}
     788:	0213490b 	andseq	r4, r3, #180224	; 0x2c000
     78c:	1742b717 	smlaldne	fp, r2, r7, r7
     790:	05230000 	streq	r0, [r3, #-0]!
     794:	3a080300 	bcc	20139c <__bss_end__+0x1f72cc>
     798:	390b3b0b 	stmdbcc	fp, {r0, r1, r3, r8, r9, fp, ip, sp}
     79c:	0213490b 	andseq	r4, r3, #180224	; 0x2c000
     7a0:	1742b717 	smlaldne	fp, r2, r7, r7
     7a4:	34240000 	strtcc	r0, [r4], #-0
     7a8:	3a0e0300 	bcc	3813b0 <__bss_end__+0x3772e0>
     7ac:	390b3b0b 	stmdbcc	fp, {r0, r1, r3, r8, r9, fp, ip, sp}
     7b0:	0213490b 	andseq	r4, r3, #180224	; 0x2c000
     7b4:	1742b717 	smlaldne	fp, r2, r7, r7
     7b8:	34250000 	strtcc	r0, [r5], #-0
     7bc:	3a080300 	bcc	2013c4 <__bss_end__+0x1f72f4>
     7c0:	390b3b0b 	stmdbcc	fp, {r0, r1, r3, r8, r9, fp, ip, sp}
     7c4:	0213490b 	andseq	r4, r3, #180224	; 0x2c000
     7c8:	1742b717 	smlaldne	fp, r2, r7, r7
     7cc:	26260000 	strtcs	r0, [r6], -r0
     7d0:	00000000 	andeq	r0, r0, r0
     7d4:	25011101 	strcs	r1, [r1, #-257]	; 0xfffffeff
     7d8:	030b130e 	movweq	r1, #45838	; 0xb30e
     7dc:	110e1b0e 	tstne	lr, lr, lsl #22
     7e0:	10061201 	andne	r1, r6, r1, lsl #4
     7e4:	02000017 	andeq	r0, r0, #23
     7e8:	0b0b0024 	bleq	2c0880 <__bss_end__+0x2b67b0>
     7ec:	08030b3e 	stmdaeq	r3, {r1, r2, r3, r4, r5, r8, r9, fp}
     7f0:	16030000 	strne	r0, [r3], -r0
     7f4:	3a0e0300 	bcc	3813fc <__bss_end__+0x37732c>
     7f8:	390b3b0b 	stmdbcc	fp, {r0, r1, r3, r8, r9, fp, ip, sp}
     7fc:	0013490b 	andseq	r4, r3, fp, lsl #18
     800:	00240400 	eoreq	r0, r4, r0, lsl #8
     804:	0b3e0b0b 	bleq	f83438 <__bss_end__+0xf79368>
     808:	00000e03 	andeq	r0, r0, r3, lsl #28
     80c:	0b000f05 	bleq	4428 <_start-0x3bd8>
     810:	0013490b 	andseq	r4, r3, fp, lsl #18
     814:	00130600 	andseq	r0, r3, r0, lsl #12
     818:	193c0e03 	ldmdbne	ip!, {r0, r1, r9, sl, fp}
     81c:	16070000 	strne	r0, [r7], -r0
     820:	3a0e0300 	bcc	381428 <__bss_end__+0x377358>
     824:	39053b0b 	stmdbcc	r5, {r0, r1, r3, r8, r9, fp, ip, sp}
     828:	0013490b 	andseq	r4, r3, fp, lsl #18
     82c:	01170800 	tsteq	r7, r0, lsl #16
     830:	0b3a0b0b 	bleq	e83464 <__bss_end__+0xe79394>
     834:	0b390b3b 	bleq	e43528 <__bss_end__+0xe39458>
     838:	00001301 	andeq	r1, r0, r1, lsl #6
     83c:	03000d09 	movweq	r0, #3337	; 0xd09
     840:	3b0b3a0e 	blcc	2cf080 <__bss_end__+0x2c4fb0>
     844:	490b390b 	stmdbmi	fp, {r0, r1, r3, r8, fp, ip, sp}
     848:	0a000013 	beq	89c <_start-0x7764>
     84c:	13490101 	movtne	r0, #37121	; 0x9101
     850:	00001301 	andeq	r1, r0, r1, lsl #6
     854:	4900210b 	stmdbmi	r0, {r0, r1, r3, r8, sp}
     858:	000b2f13 	andeq	r2, fp, r3, lsl pc
     85c:	01130c00 	tsteq	r3, r0, lsl #24
     860:	0b3a0b0b 	bleq	e83494 <__bss_end__+0xe793c4>
     864:	0b390b3b 	bleq	e43558 <__bss_end__+0xe39488>
     868:	00001301 	andeq	r1, r0, r1, lsl #6
     86c:	03000d0d 	movweq	r0, #3341	; 0xd0d
     870:	3b0b3a0e 	blcc	2cf0b0 <__bss_end__+0x2c4fe0>
     874:	490b390b 	stmdbmi	fp, {r0, r1, r3, r8, fp, ip, sp}
     878:	000b3813 	andeq	r3, fp, r3, lsl r8
     87c:	000f0e00 	andeq	r0, pc, r0, lsl #28
     880:	00000b0b 	andeq	r0, r0, fp, lsl #22
     884:	4900260f 	stmdbmi	r0, {r0, r1, r2, r3, r9, sl, sp}
     888:	10000013 	andne	r0, r0, r3, lsl r0
     88c:	0e030113 	mcreq	1, 0, r0, cr3, cr3, {0}
     890:	0b3a0b0b 	bleq	e834c4 <__bss_end__+0xe793f4>
     894:	0b390b3b 	bleq	e43588 <__bss_end__+0xe394b8>
     898:	00001301 	andeq	r1, r0, r1, lsl #6
     89c:	03000d11 	movweq	r0, #3345	; 0xd11
     8a0:	3b0b3a08 	blcc	2cf0c8 <__bss_end__+0x2c4ff8>
     8a4:	490b390b 	stmdbmi	fp, {r0, r1, r3, r8, fp, ip, sp}
     8a8:	000b3813 	andeq	r3, fp, r3, lsl r8
     8ac:	01131200 	tsteq	r3, r0, lsl #4
     8b0:	050b0e03 	streq	r0, [fp, #-3587]	; 0xfffff1fd
     8b4:	0b3b0b3a 	bleq	ec35a4 <__bss_end__+0xeb94d4>
     8b8:	13010b39 	movwne	r0, #6969	; 0x1b39
     8bc:	0d130000 	ldceq	0, cr0, [r3, #-0]
     8c0:	3a0e0300 	bcc	3814c8 <__bss_end__+0x3773f8>
     8c4:	390b3b0b 	stmdbcc	fp, {r0, r1, r3, r8, r9, fp, ip, sp}
     8c8:	3813490b 	ldmdacc	r3, {r0, r1, r3, r8, fp, lr}
     8cc:	14000005 	strne	r0, [r0], #-5
     8d0:	19270015 	stmdbne	r7!, {r0, r2, r4}
     8d4:	15150000 	ldrne	r0, [r5, #-0]
     8d8:	49192701 	ldmdbmi	r9, {r0, r8, r9, sl, sp}
     8dc:	00130113 	andseq	r0, r3, r3, lsl r1
     8e0:	00051600 	andeq	r1, r5, r0, lsl #12
     8e4:	00001349 	andeq	r1, r0, r9, asr #6
     8e8:	03011317 	movweq	r1, #4887	; 0x1317
     8ec:	3a050b0e 	bcc	14352c <__bss_end__+0x13945c>
     8f0:	39053b0b 	stmdbcc	r5, {r0, r1, r3, r8, r9, fp, ip, sp}
     8f4:	0013010b 	andseq	r0, r3, fp, lsl #2
     8f8:	000d1800 	andeq	r1, sp, r0, lsl #16
     8fc:	0b3a0e03 	bleq	e84110 <__bss_end__+0xe7a040>
     900:	0b39053b 	bleq	e41df4 <__bss_end__+0xe37d24>
     904:	0b381349 	bleq	e05630 <__bss_end__+0xdfb560>
     908:	0d190000 	ldceq	0, cr0, [r9, #-0]
     90c:	3a0e0300 	bcc	381514 <__bss_end__+0x377444>
     910:	39053b0b 	stmdbcc	r5, {r0, r1, r3, r8, r9, fp, ip, sp}
     914:	3813490b 	ldmdacc	r3, {r0, r1, r3, r8, fp, lr}
     918:	1a000005 	bne	934 <_start-0x76cc>
     91c:	0e030113 	mcreq	1, 0, r0, cr3, cr3, {0}
     920:	0b3a0b0b 	bleq	e83554 <__bss_end__+0xe79484>
     924:	0b39053b 	bleq	e41e18 <__bss_end__+0xe37d48>
     928:	00001301 	andeq	r1, r0, r1, lsl #6
     92c:	0b01131b 	bleq	455a0 <__bss_end__+0x3b4d0>
     930:	3b0b3a0b 	blcc	2cf164 <__bss_end__+0x2c5094>
     934:	010b3905 	tsteq	fp, r5, lsl #18
     938:	1c000013 	stcne	0, cr0, [r0], {19}
     93c:	0b0b0117 	bleq	2c0da0 <__bss_end__+0x2b6cd0>
     940:	053b0b3a 	ldreq	r0, [fp, #-2874]!	; 0xfffff4c6
     944:	13010b39 	movwne	r0, #6969	; 0x1b39
     948:	0d1d0000 	ldceq	0, cr0, [sp, #-0]
     94c:	3a0e0300 	bcc	381554 <__bss_end__+0x377484>
     950:	39053b0b 	stmdbcc	r5, {r0, r1, r3, r8, r9, fp, ip, sp}
     954:	0013490b 	andseq	r4, r3, fp, lsl #18
     958:	01151e00 	tsteq	r5, r0, lsl #28
     95c:	13011927 	movwne	r1, #6439	; 0x1927
     960:	341f0000 	ldrcc	r0, [pc], #-0	; 968 <_start-0x7698>
     964:	3a0e0300 	bcc	38156c <__bss_end__+0x37749c>
     968:	39053b0b 	stmdbcc	r5, {r0, r1, r3, r8, r9, fp, ip, sp}
     96c:	3f13490b 	svccc	0x0013490b
     970:	00193c19 	andseq	r3, r9, r9, lsl ip
     974:	012e2000 			; <UNDEFINED> instruction: 0x012e2000
     978:	0e03193f 			; <UNDEFINED> instruction: 0x0e03193f
     97c:	0b3b0b3a 	bleq	ec366c <__bss_end__+0xeb959c>
     980:	19270b39 	stmdbne	r7!, {r0, r3, r4, r5, r8, r9, fp}
     984:	01111349 	tsteq	r1, r9, asr #6
     988:	18400612 	stmdane	r0, {r1, r4, r9, sl}^
     98c:	00194297 	mulseq	r9, r7, r2
     990:	00052100 	andeq	r2, r5, r0, lsl #2
     994:	0b3a0803 	bleq	e829a8 <__bss_end__+0xe788d8>
     998:	0b390b3b 	bleq	e4368c <__bss_end__+0xe395bc>
     99c:	18021349 	stmdane	r2, {r0, r3, r6, r8, r9, ip}
     9a0:	05220000 	streq	r0, [r2, #-0]!
     9a4:	3a080300 	bcc	2015ac <__bss_end__+0x1f74dc>
     9a8:	390b3b0b 	stmdbcc	fp, {r0, r1, r3, r8, r9, fp, ip, sp}
     9ac:	0213490b 	andseq	r4, r3, #180224	; 0x2c000
     9b0:	1742b717 	smlaldne	fp, r2, r7, r7
     9b4:	34230000 	strtcc	r0, [r3], #-0
     9b8:	3a080300 	bcc	2015c0 <__bss_end__+0x1f74f0>
     9bc:	390b3b0b 	stmdbcc	fp, {r0, r1, r3, r8, r9, fp, ip, sp}
     9c0:	0213490b 	andseq	r4, r3, #180224	; 0x2c000
     9c4:	1742b717 	smlaldne	fp, r2, r7, r7
     9c8:	01000000 	mrseq	r0, (UNDEF: 0)
     9cc:	0e250111 	mcreq	1, 1, r0, cr5, cr1, {0}
     9d0:	0e030b13 	vmoveq.32	d3[0], r0
     9d4:	01110e1b 	tsteq	r1, fp, lsl lr
     9d8:	17100612 			; <UNDEFINED> instruction: 0x17100612
     9dc:	16020000 	strne	r0, [r2], -r0
     9e0:	3a0e0300 	bcc	3815e8 <__bss_end__+0x377518>
     9e4:	390b3b0b 	stmdbcc	fp, {r0, r1, r3, r8, r9, fp, ip, sp}
     9e8:	0013490b 	andseq	r4, r3, fp, lsl #18
     9ec:	01130300 	tsteq	r3, r0, lsl #6
     9f0:	0b0b0e03 	bleq	2c4204 <__bss_end__+0x2ba134>
     9f4:	0b3b0b3a 	bleq	ec36e4 <__bss_end__+0xeb9614>
     9f8:	00001301 	andeq	r1, r0, r1, lsl #6
     9fc:	03000d04 	movweq	r0, #3332	; 0xd04
     a00:	3813490e 	ldmdacc	r3, {r1, r2, r3, r8, fp, lr}
     a04:	0019340b 	andseq	r3, r9, fp, lsl #8
     a08:	000f0500 	andeq	r0, pc, r0, lsl #10
     a0c:	00000b0b 	andeq	r0, r0, fp, lsl #22
     a10:	0b002406 	bleq	9a30 <__FUNCTION__.4337+0x2ac>
     a14:	030b3e0b 	movweq	r3, #48651	; 0xbe0b
     a18:	07000008 	streq	r0, [r0, -r8]
     a1c:	0b0b0024 	bleq	2c0ab4 <__bss_end__+0x2b69e4>
     a20:	0e030b3e 	vmoveq.16	d3[0], r0
     a24:	0f080000 	svceq	0x00080000
     a28:	490b0b00 	stmdbmi	fp, {r8, r9, fp}
     a2c:	09000013 	stmdbeq	r0, {r0, r1, r4}
     a30:	0e030013 	mcreq	0, 0, r0, cr3, cr3, {0}
     a34:	0000193c 	andeq	r1, r0, ip, lsr r9
     a38:	0300160a 	movweq	r1, #1546	; 0x60a
     a3c:	3b0b3a0e 	blcc	2cf27c <__bss_end__+0x2c51ac>
     a40:	490b3905 	stmdbmi	fp, {r0, r2, r8, fp, ip, sp}
     a44:	0b000013 	bleq	a98 <_start-0x7568>
     a48:	0b0b0117 	bleq	2c0eac <__bss_end__+0x2b6ddc>
     a4c:	0b3b0b3a 	bleq	ec373c <__bss_end__+0xeb966c>
     a50:	13010b39 	movwne	r0, #6969	; 0x1b39
     a54:	0d0c0000 	stceq	0, cr0, [ip, #-0]
     a58:	3a0e0300 	bcc	381660 <__bss_end__+0x377590>
     a5c:	390b3b0b 	stmdbcc	fp, {r0, r1, r3, r8, r9, fp, ip, sp}
     a60:	0013490b 	andseq	r4, r3, fp, lsl #18
     a64:	01010d00 	tsteq	r1, r0, lsl #26
     a68:	13011349 	movwne	r1, #4937	; 0x1349
     a6c:	210e0000 	mrscs	r0, (UNDEF: 14)
     a70:	2f134900 	svccs	0x00134900
     a74:	0f00000b 	svceq	0x0000000b
     a78:	0b0b0113 	bleq	2c0ecc <__bss_end__+0x2b6dfc>
     a7c:	0b3b0b3a 	bleq	ec376c <__bss_end__+0xeb969c>
     a80:	13010b39 	movwne	r0, #6969	; 0x1b39
     a84:	0d100000 	ldceq	0, cr0, [r0, #-0]
     a88:	3a0e0300 	bcc	381690 <__bss_end__+0x3775c0>
     a8c:	390b3b0b 	stmdbcc	fp, {r0, r1, r3, r8, r9, fp, ip, sp}
     a90:	3813490b 	ldmdacc	r3, {r0, r1, r3, r8, fp, lr}
     a94:	1100000b 	tstne	r0, fp
     a98:	13490026 	movtne	r0, #36902	; 0x9026
     a9c:	13120000 	tstne	r2, #0
     aa0:	0b0e0301 	bleq	3816ac <__bss_end__+0x3775dc>
     aa4:	3b0b3a0b 	blcc	2cf2d8 <__bss_end__+0x2c5208>
     aa8:	010b390b 	tsteq	fp, fp, lsl #18
     aac:	13000013 	movwne	r0, #19
     ab0:	0803000d 	stmdaeq	r3, {r0, r2, r3}
     ab4:	0b3b0b3a 	bleq	ec37a4 <__bss_end__+0xeb96d4>
     ab8:	13490b39 	movtne	r0, #39737	; 0x9b39
     abc:	00000b38 	andeq	r0, r0, r8, lsr fp
     ac0:	03011314 	movweq	r1, #4884	; 0x1314
     ac4:	3a050b0e 	bcc	143704 <__bss_end__+0x139634>
     ac8:	390b3b0b 	stmdbcc	fp, {r0, r1, r3, r8, r9, fp, ip, sp}
     acc:	0013010b 	andseq	r0, r3, fp, lsl #2
     ad0:	000d1500 	andeq	r1, sp, r0, lsl #10
     ad4:	0b3a0e03 	bleq	e842e8 <__bss_end__+0xe7a218>
     ad8:	0b390b3b 	bleq	e437cc <__bss_end__+0xe396fc>
     adc:	05381349 	ldreq	r1, [r8, #-841]!	; 0xfffffcb7
     ae0:	15160000 	ldrne	r0, [r6, #-0]
     ae4:	00192700 	andseq	r2, r9, r0, lsl #14
     ae8:	01151700 	tsteq	r5, r0, lsl #14
     aec:	13491927 	movtne	r1, #39207	; 0x9927
     af0:	00001301 	andeq	r1, r0, r1, lsl #6
     af4:	49000518 	stmdbmi	r0, {r3, r4, r8, sl}
     af8:	19000013 	stmdbne	r0, {r0, r1, r4}
     afc:	0e030113 	mcreq	1, 0, r0, cr3, cr3, {0}
     b00:	0b3a050b 	bleq	e81f34 <__bss_end__+0xe77e64>
     b04:	0b39053b 	bleq	e41ff8 <__bss_end__+0xe37f28>
     b08:	00001301 	andeq	r1, r0, r1, lsl #6
     b0c:	03000d1a 	movweq	r0, #3354	; 0xd1a
     b10:	3b0b3a0e 	blcc	2cf350 <__bss_end__+0x2c5280>
     b14:	490b3905 	stmdbmi	fp, {r0, r2, r8, fp, ip, sp}
     b18:	000b3813 	andeq	r3, fp, r3, lsl r8
     b1c:	000d1b00 	andeq	r1, sp, r0, lsl #22
     b20:	0b3a0e03 	bleq	e84334 <__bss_end__+0xe7a264>
     b24:	0b39053b 	bleq	e42018 <__bss_end__+0xe37f48>
     b28:	05381349 	ldreq	r1, [r8, #-841]!	; 0xfffffcb7
     b2c:	131c0000 	tstne	ip, #0
     b30:	0b0e0301 	bleq	38173c <__bss_end__+0x37766c>
     b34:	3b0b3a0b 	blcc	2cf368 <__bss_end__+0x2c5298>
     b38:	010b3905 	tsteq	fp, r5, lsl #18
     b3c:	1d000013 	stcne	0, cr0, [r0, #-76]	; 0xffffffb4
     b40:	0b0b0113 	bleq	2c0f94 <__bss_end__+0x2b6ec4>
     b44:	053b0b3a 	ldreq	r0, [fp, #-2874]!	; 0xfffff4c6
     b48:	13010b39 	movwne	r0, #6969	; 0x1b39
     b4c:	171e0000 	ldrne	r0, [lr, -r0]
     b50:	3a0b0b01 	bcc	2c375c <__bss_end__+0x2b968c>
     b54:	39053b0b 	stmdbcc	r5, {r0, r1, r3, r8, r9, fp, ip, sp}
     b58:	0013010b 	andseq	r0, r3, fp, lsl #2
     b5c:	000d1f00 	andeq	r1, sp, r0, lsl #30
     b60:	0b3a0e03 	bleq	e84374 <__bss_end__+0xe7a2a4>
     b64:	0b39053b 	bleq	e42058 <__bss_end__+0xe37f88>
     b68:	00001349 	andeq	r1, r0, r9, asr #6
     b6c:	27011520 	strcs	r1, [r1, -r0, lsr #10]
     b70:	00130119 	andseq	r0, r3, r9, lsl r1
     b74:	00342100 	eorseq	r2, r4, r0, lsl #2
     b78:	0b3a0e03 	bleq	e8438c <__bss_end__+0xe7a2bc>
     b7c:	0b39053b 	bleq	e42070 <__bss_end__+0xe37fa0>
     b80:	193f1349 	ldmdbne	pc!, {r0, r3, r6, r8, r9, ip}	; <UNPREDICTABLE>
     b84:	0000193c 	andeq	r1, r0, ip, lsr r9
     b88:	03003422 	movweq	r3, #1058	; 0x422
     b8c:	3b0b3a0e 	blcc	2cf3cc <__bss_end__+0x2c52fc>
     b90:	490b390b 	stmdbmi	fp, {r0, r1, r3, r8, fp, ip, sp}
     b94:	3c193f13 	ldccc	15, cr3, [r9], {19}
     b98:	23000019 	movwcs	r0, #25
     b9c:	193f012e 	ldmdbne	pc!, {r1, r2, r3, r5, r8}	; <UNPREDICTABLE>
     ba0:	0b3a0e03 	bleq	e843b4 <__bss_end__+0xe7a2e4>
     ba4:	0b390b3b 	bleq	e43898 <__bss_end__+0xe397c8>
     ba8:	13491927 	movtne	r1, #39207	; 0x9927
     bac:	06120111 			; <UNDEFINED> instruction: 0x06120111
     bb0:	42971840 	addsmi	r1, r7, #64, 16	; 0x400000
     bb4:	00130119 	andseq	r0, r3, r9, lsl r1
     bb8:	00052400 	andeq	r2, r5, r0, lsl #8
     bbc:	0b3a0803 	bleq	e82bd0 <__bss_end__+0xe78b00>
     bc0:	0b390b3b 	bleq	e438b4 <__bss_end__+0xe397e4>
     bc4:	18021349 	stmdane	r2, {r0, r3, r6, r8, r9, ip}
     bc8:	18250000 	stmdane	r5!, {}	; <UNPREDICTABLE>
     bcc:	26000000 	strcs	r0, [r0], -r0
     bd0:	08030034 	stmdaeq	r3, {r2, r4, r5}
     bd4:	0b3b0b3a 	bleq	ec38c4 <__bss_end__+0xeb97f4>
     bd8:	13490b39 	movtne	r0, #39737	; 0x9b39
     bdc:	00001802 	andeq	r1, r0, r2, lsl #16
     be0:	03003427 	movweq	r3, #1063	; 0x427
     be4:	3b0b3a0e 	blcc	2cf424 <__bss_end__+0x2c5354>
     be8:	490b390b 	stmdbmi	fp, {r0, r1, r3, r8, fp, ip, sp}
     bec:	00180213 	andseq	r0, r8, r3, lsl r2
     bf0:	00342800 	eorseq	r2, r4, r0, lsl #16
     bf4:	0b3a0803 	bleq	e82c08 <__bss_end__+0xe78b38>
     bf8:	0b390b3b 	bleq	e438ec <__bss_end__+0xe3981c>
     bfc:	17021349 	strne	r1, [r2, -r9, asr #6]
     c00:	001742b7 			; <UNDEFINED> instruction: 0x001742b7
     c04:	82892900 	addhi	r2, r9, #0, 18
     c08:	01110101 	tsteq	r1, r1, lsl #2
     c0c:	13011331 	movwne	r1, #4913	; 0x1331
     c10:	8a2a0000 	bhi	a80c18 <__bss_end__+0xa76b48>
     c14:	02000182 	andeq	r0, r0, #-2147483616	; 0x80000020
     c18:	18429118 	stmdane	r2, {r3, r4, r8, ip, pc}^
     c1c:	892b0000 	stmdbhi	fp!, {}	; <UNPREDICTABLE>
     c20:	11010182 	smlabbne	r1, r2, r1, r0
     c24:	2c000001 	stccs	0, cr0, [r0], {1}
     c28:	13490021 	movtne	r0, #36897	; 0x9021
     c2c:	0000052f 	andeq	r0, r0, pc, lsr #10
     c30:	3f002e2d 	svccc	0x00002e2d
     c34:	6e193c19 	mrcvs	12, 0, r3, cr9, cr9, {0}
     c38:	3a0e030e 	bcc	381878 <__bss_end__+0x3777a8>
     c3c:	390b3b0b 	stmdbcc	fp, {r0, r1, r3, r8, r9, fp, ip, sp}
     c40:	0000000b 	andeq	r0, r0, fp
     c44:	25011101 	strcs	r1, [r1, #-257]	; 0xfffffeff
     c48:	030b130e 	movweq	r1, #45838	; 0xb30e
     c4c:	110e1b0e 	tstne	lr, lr, lsl #22
     c50:	10061201 	andne	r1, r6, r1, lsl #4
     c54:	02000017 	andeq	r0, r0, #23
     c58:	0b0b0024 	bleq	2c0cf0 <__bss_end__+0x2b6c20>
     c5c:	08030b3e 	stmdaeq	r3, {r1, r2, r3, r4, r5, r8, r9, fp}
     c60:	24030000 	strcs	r0, [r3], #-0
     c64:	3e0b0b00 	vmlacc.f64	d0, d11, d0
     c68:	000e030b 	andeq	r0, lr, fp, lsl #6
     c6c:	00160400 	andseq	r0, r6, r0, lsl #8
     c70:	0b3a0e03 	bleq	e84484 <__bss_end__+0xe7a3b4>
     c74:	0b390b3b 	bleq	e43968 <__bss_end__+0xe39898>
     c78:	00001349 	andeq	r1, r0, r9, asr #6
     c7c:	0b000f05 	bleq	4898 <_start-0x3768>
     c80:	0013490b 	andseq	r4, r3, fp, lsl #18
     c84:	00130600 	andseq	r0, r3, r0, lsl #12
     c88:	193c0e03 	ldmdbne	ip!, {r0, r1, r9, sl, fp}
     c8c:	16070000 	strne	r0, [r7], -r0
     c90:	3a0e0300 	bcc	381898 <__bss_end__+0x3777c8>
     c94:	39053b0b 	stmdbcc	r5, {r0, r1, r3, r8, r9, fp, ip, sp}
     c98:	0013490b 	andseq	r4, r3, fp, lsl #18
     c9c:	01170800 	tsteq	r7, r0, lsl #16
     ca0:	0b3a0b0b 	bleq	e838d4 <__bss_end__+0xe79804>
     ca4:	0b390b3b 	bleq	e43998 <__bss_end__+0xe398c8>
     ca8:	00001301 	andeq	r1, r0, r1, lsl #6
     cac:	03000d09 	movweq	r0, #3337	; 0xd09
     cb0:	3b0b3a0e 	blcc	2cf4f0 <__bss_end__+0x2c5420>
     cb4:	490b390b 	stmdbmi	fp, {r0, r1, r3, r8, fp, ip, sp}
     cb8:	0a000013 	beq	d0c <_start-0x72f4>
     cbc:	13490101 	movtne	r0, #37121	; 0x9101
     cc0:	00001301 	andeq	r1, r0, r1, lsl #6
     cc4:	4900210b 	stmdbmi	r0, {r0, r1, r3, r8, sp}
     cc8:	000b2f13 	andeq	r2, fp, r3, lsl pc
     ccc:	01130c00 	tsteq	r3, r0, lsl #24
     cd0:	0b3a0b0b 	bleq	e83904 <__bss_end__+0xe79834>
     cd4:	0b390b3b 	bleq	e439c8 <__bss_end__+0xe398f8>
     cd8:	00001301 	andeq	r1, r0, r1, lsl #6
     cdc:	03000d0d 	movweq	r0, #3341	; 0xd0d
     ce0:	3b0b3a0e 	blcc	2cf520 <__bss_end__+0x2c5450>
     ce4:	490b390b 	stmdbmi	fp, {r0, r1, r3, r8, fp, ip, sp}
     ce8:	000b3813 	andeq	r3, fp, r3, lsl r8
     cec:	000f0e00 	andeq	r0, pc, r0, lsl #28
     cf0:	00000b0b 	andeq	r0, r0, fp, lsl #22
     cf4:	4900260f 	stmdbmi	r0, {r0, r1, r2, r3, r9, sl, sp}
     cf8:	10000013 	andne	r0, r0, r3, lsl r0
     cfc:	0e030113 	mcreq	1, 0, r0, cr3, cr3, {0}
     d00:	0b3a0b0b 	bleq	e83934 <__bss_end__+0xe79864>
     d04:	0b390b3b 	bleq	e439f8 <__bss_end__+0xe39928>
     d08:	00001301 	andeq	r1, r0, r1, lsl #6
     d0c:	03000d11 	movweq	r0, #3345	; 0xd11
     d10:	3b0b3a08 	blcc	2cf538 <__bss_end__+0x2c5468>
     d14:	490b390b 	stmdbmi	fp, {r0, r1, r3, r8, fp, ip, sp}
     d18:	000b3813 	andeq	r3, fp, r3, lsl r8
     d1c:	01131200 	tsteq	r3, r0, lsl #4
     d20:	050b0e03 	streq	r0, [fp, #-3587]	; 0xfffff1fd
     d24:	0b3b0b3a 	bleq	ec3a14 <__bss_end__+0xeb9944>
     d28:	13010b39 	movwne	r0, #6969	; 0x1b39
     d2c:	0d130000 	ldceq	0, cr0, [r3, #-0]
     d30:	3a0e0300 	bcc	381938 <__bss_end__+0x377868>
     d34:	390b3b0b 	stmdbcc	fp, {r0, r1, r3, r8, r9, fp, ip, sp}
     d38:	3813490b 	ldmdacc	r3, {r0, r1, r3, r8, fp, lr}
     d3c:	14000005 	strne	r0, [r0], #-5
     d40:	19270015 	stmdbne	r7!, {r0, r2, r4}
     d44:	15150000 	ldrne	r0, [r5, #-0]
     d48:	49192701 	ldmdbmi	r9, {r0, r8, r9, sl, sp}
     d4c:	00130113 	andseq	r0, r3, r3, lsl r1
     d50:	00051600 	andeq	r1, r5, r0, lsl #12
     d54:	00001349 	andeq	r1, r0, r9, asr #6
     d58:	03011317 	movweq	r1, #4887	; 0x1317
     d5c:	3a050b0e 	bcc	14399c <__bss_end__+0x1398cc>
     d60:	39053b0b 	stmdbcc	r5, {r0, r1, r3, r8, r9, fp, ip, sp}
     d64:	0013010b 	andseq	r0, r3, fp, lsl #2
     d68:	000d1800 	andeq	r1, sp, r0, lsl #16
     d6c:	0b3a0e03 	bleq	e84580 <__bss_end__+0xe7a4b0>
     d70:	0b39053b 	bleq	e42264 <__bss_end__+0xe38194>
     d74:	0b381349 	bleq	e05aa0 <__bss_end__+0xdfb9d0>
     d78:	0d190000 	ldceq	0, cr0, [r9, #-0]
     d7c:	3a0e0300 	bcc	381984 <__bss_end__+0x3778b4>
     d80:	39053b0b 	stmdbcc	r5, {r0, r1, r3, r8, r9, fp, ip, sp}
     d84:	3813490b 	ldmdacc	r3, {r0, r1, r3, r8, fp, lr}
     d88:	1a000005 	bne	da4 <_start-0x725c>
     d8c:	0e030113 	mcreq	1, 0, r0, cr3, cr3, {0}
     d90:	0b3a0b0b 	bleq	e839c4 <__bss_end__+0xe798f4>
     d94:	0b39053b 	bleq	e42288 <__bss_end__+0xe381b8>
     d98:	00001301 	andeq	r1, r0, r1, lsl #6
     d9c:	0b01131b 	bleq	45a10 <__bss_end__+0x3b940>
     da0:	3b0b3a0b 	blcc	2cf5d4 <__bss_end__+0x2c5504>
     da4:	010b3905 	tsteq	fp, r5, lsl #18
     da8:	1c000013 	stcne	0, cr0, [r0], {19}
     dac:	0b0b0117 	bleq	2c1210 <__bss_end__+0x2b7140>
     db0:	053b0b3a 	ldreq	r0, [fp, #-2874]!	; 0xfffff4c6
     db4:	13010b39 	movwne	r0, #6969	; 0x1b39
     db8:	0d1d0000 	ldceq	0, cr0, [sp, #-0]
     dbc:	3a0e0300 	bcc	3819c4 <__bss_end__+0x3778f4>
     dc0:	39053b0b 	stmdbcc	r5, {r0, r1, r3, r8, r9, fp, ip, sp}
     dc4:	0013490b 	andseq	r4, r3, fp, lsl #18
     dc8:	01151e00 	tsteq	r5, r0, lsl #28
     dcc:	13011927 	movwne	r1, #6439	; 0x1927
     dd0:	341f0000 	ldrcc	r0, [pc], #-0	; dd8 <_start-0x7228>
     dd4:	3a0e0300 	bcc	3819dc <__bss_end__+0x37790c>
     dd8:	39053b0b 	stmdbcc	r5, {r0, r1, r3, r8, r9, fp, ip, sp}
     ddc:	3f13490b 	svccc	0x0013490b
     de0:	00193c19 	andseq	r3, r9, r9, lsl ip
     de4:	00342000 	eorseq	r2, r4, r0
     de8:	0b3a0e03 	bleq	e845fc <__bss_end__+0xe7a52c>
     dec:	0b390b3b 	bleq	e43ae0 <__bss_end__+0xe39a10>
     df0:	193f1349 	ldmdbne	pc!, {r0, r3, r6, r8, r9, ip}	; <UNPREDICTABLE>
     df4:	0000193c 	andeq	r1, r0, ip, lsr r9
     df8:	47003421 	strmi	r3, [r0, -r1, lsr #8]
     dfc:	3b0b3a13 	blcc	2cf650 <__bss_end__+0x2c5580>
     e00:	020b390b 	andeq	r3, fp, #180224	; 0x2c000
     e04:	22000018 	andcs	r0, r0, #24
     e08:	193f012e 	ldmdbne	pc!, {r1, r2, r3, r5, r8}	; <UNPREDICTABLE>
     e0c:	0b3a0e03 	bleq	e84620 <__bss_end__+0xe7a550>
     e10:	0b390b3b 	bleq	e43b04 <__bss_end__+0xe39a34>
     e14:	01111927 	tsteq	r1, r7, lsr #18
     e18:	18400612 	stmdane	r0, {r1, r4, r9, sl}^
     e1c:	01194297 			; <UNDEFINED> instruction: 0x01194297
     e20:	23000013 	movwcs	r0, #19
     e24:	08030005 	stmdaeq	r3, {r0, r2}
     e28:	0b3b0b3a 	bleq	ec3b18 <__bss_end__+0xeb9a48>
     e2c:	13490b39 	movtne	r0, #39737	; 0x9b39
     e30:	00001802 	andeq	r1, r0, r2, lsl #16
     e34:	3f002e24 	svccc	0x00002e24
     e38:	3a0e0319 	bcc	381aa4 <__bss_end__+0x3779d4>
     e3c:	390b3b0b 	stmdbcc	fp, {r0, r1, r3, r8, r9, fp, ip, sp}
     e40:	1119270b 	tstne	r9, fp, lsl #14
     e44:	40061201 	andmi	r1, r6, r1, lsl #4
     e48:	19429718 	stmdbne	r2, {r3, r4, r8, r9, sl, ip, pc}^
     e4c:	2e250000 	cdpcs	0, 2, cr0, cr5, cr0, {0}
     e50:	3a0e0301 	bcc	381a5c <__bss_end__+0x37798c>
     e54:	390b3b0b 	stmdbcc	fp, {r0, r1, r3, r8, r9, fp, ip, sp}
     e58:	4919270b 	ldmdbmi	r9, {r0, r1, r3, r8, r9, sl, sp}
     e5c:	12011113 	andne	r1, r1, #-1073741820	; 0xc0000004
     e60:	97184006 	ldrls	r4, [r8, -r6]
     e64:	13011942 	movwne	r1, #6466	; 0x1942
     e68:	05260000 	streq	r0, [r6, #-0]!
     e6c:	3a080300 	bcc	201a74 <__bss_end__+0x1f79a4>
     e70:	390b3b0b 	stmdbcc	fp, {r0, r1, r3, r8, r9, fp, ip, sp}
     e74:	0213490b 	andseq	r4, r3, #180224	; 0x2c000
     e78:	1742b717 	smlaldne	fp, r2, r7, r7
     e7c:	89270000 	stmdbhi	r7!, {}	; <UNPREDICTABLE>
     e80:	11010182 	smlabbne	r1, r2, r1, r0
     e84:	00133101 	andseq	r3, r3, r1, lsl #2
     e88:	828a2800 	addhi	r2, sl, #0, 16
     e8c:	18020001 	stmdane	r2, {r0}
     e90:	00184291 	mulseq	r8, r1, r2
     e94:	002e2900 	eoreq	r2, lr, r0, lsl #18
     e98:	193c193f 	ldmdbne	ip!, {r0, r1, r2, r3, r4, r5, r8, fp, ip}
     e9c:	0e030e6e 	cdpeq	14, 0, cr0, cr3, cr14, {3}
     ea0:	0b3b0b3a 	bleq	ec3b90 <__bss_end__+0xeb9ac0>
     ea4:	00000b39 	andeq	r0, r0, r9, lsr fp
     ea8:	01110100 	tsteq	r1, r0, lsl #2
     eac:	0b130e25 	bleq	4c4748 <__bss_end__+0x4ba678>
     eb0:	0e1b0e03 	cdpeq	14, 1, cr0, cr11, cr3, {0}
     eb4:	06120111 			; <UNDEFINED> instruction: 0x06120111
     eb8:	00001710 	andeq	r1, r0, r0, lsl r7
     ebc:	0b002402 	bleq	9ecc <buf.4297+0x200>
     ec0:	030b3e0b 	movweq	r3, #48651	; 0xbe0b
     ec4:	03000008 	movweq	r0, #8
     ec8:	0b0b0024 	bleq	2c0f60 <__bss_end__+0x2b6e90>
     ecc:	0e030b3e 	vmoveq.16	d3[0], r0
     ed0:	16040000 	strne	r0, [r4], -r0
     ed4:	3a0e0300 	bcc	381adc <__bss_end__+0x377a0c>
     ed8:	390b3b0b 	stmdbcc	fp, {r0, r1, r3, r8, r9, fp, ip, sp}
     edc:	0013490b 	andseq	r4, r3, fp, lsl #18
     ee0:	000f0500 	andeq	r0, pc, r0, lsl #10
     ee4:	13490b0b 	movtne	r0, #39691	; 0x9b0b
     ee8:	13060000 	movwne	r0, #24576	; 0x6000
     eec:	3c0e0300 	stccc	3, cr0, [lr], {-0}
     ef0:	07000019 	smladeq	r0, r9, r0, r0
     ef4:	0e030016 	mcreq	0, 0, r0, cr3, cr6, {0}
     ef8:	053b0b3a 	ldreq	r0, [fp, #-2874]!	; 0xfffff4c6
     efc:	13490b39 	movtne	r0, #39737	; 0x9b39
     f00:	17080000 	strne	r0, [r8, -r0]
     f04:	3a0b0b01 	bcc	2c3b10 <__bss_end__+0x2b9a40>
     f08:	390b3b0b 	stmdbcc	fp, {r0, r1, r3, r8, r9, fp, ip, sp}
     f0c:	0013010b 	andseq	r0, r3, fp, lsl #2
     f10:	000d0900 	andeq	r0, sp, r0, lsl #18
     f14:	0b3a0e03 	bleq	e84728 <__bss_end__+0xe7a658>
     f18:	0b390b3b 	bleq	e43c0c <__bss_end__+0xe39b3c>
     f1c:	00001349 	andeq	r1, r0, r9, asr #6
     f20:	4901010a 	stmdbmi	r1, {r1, r3, r8}
     f24:	00130113 	andseq	r0, r3, r3, lsl r1
     f28:	00210b00 	eoreq	r0, r1, r0, lsl #22
     f2c:	0b2f1349 	bleq	bc5c58 <__bss_end__+0xbbbb88>
     f30:	130c0000 	movwne	r0, #49152	; 0xc000
     f34:	3a0b0b01 	bcc	2c3b40 <__bss_end__+0x2b9a70>
     f38:	390b3b0b 	stmdbcc	fp, {r0, r1, r3, r8, r9, fp, ip, sp}
     f3c:	0013010b 	andseq	r0, r3, fp, lsl #2
     f40:	000d0d00 	andeq	r0, sp, r0, lsl #26
     f44:	0b3a0e03 	bleq	e84758 <__bss_end__+0xe7a688>
     f48:	0b390b3b 	bleq	e43c3c <__bss_end__+0xe39b6c>
     f4c:	0b381349 	bleq	e05c78 <__bss_end__+0xdfbba8>
     f50:	0f0e0000 	svceq	0x000e0000
     f54:	000b0b00 	andeq	r0, fp, r0, lsl #22
     f58:	00260f00 	eoreq	r0, r6, r0, lsl #30
     f5c:	00001349 	andeq	r1, r0, r9, asr #6
     f60:	03011310 	movweq	r1, #4880	; 0x1310
     f64:	3a0b0b0e 	bcc	2c3ba4 <__bss_end__+0x2b9ad4>
     f68:	390b3b0b 	stmdbcc	fp, {r0, r1, r3, r8, r9, fp, ip, sp}
     f6c:	0013010b 	andseq	r0, r3, fp, lsl #2
     f70:	000d1100 	andeq	r1, sp, r0, lsl #2
     f74:	0b3a0803 	bleq	e82f88 <__bss_end__+0xe78eb8>
     f78:	0b390b3b 	bleq	e43c6c <__bss_end__+0xe39b9c>
     f7c:	0b381349 	bleq	e05ca8 <__bss_end__+0xdfbbd8>
     f80:	13120000 	tstne	r2, #0
     f84:	0b0e0301 	bleq	381b90 <__bss_end__+0x377ac0>
     f88:	3b0b3a05 	blcc	2cf7a4 <__bss_end__+0x2c56d4>
     f8c:	010b390b 	tsteq	fp, fp, lsl #18
     f90:	13000013 	movwne	r0, #19
     f94:	0e03000d 	cdpeq	0, 0, cr0, cr3, cr13, {0}
     f98:	0b3b0b3a 	bleq	ec3c88 <__bss_end__+0xeb9bb8>
     f9c:	13490b39 	movtne	r0, #39737	; 0x9b39
     fa0:	00000538 	andeq	r0, r0, r8, lsr r5
     fa4:	27001514 	smladcs	r0, r4, r5, r1
     fa8:	15000019 	strne	r0, [r0, #-25]	; 0xffffffe7
     fac:	19270115 	stmdbne	r7!, {r0, r2, r4, r8}
     fb0:	13011349 	movwne	r1, #4937	; 0x1349
     fb4:	05160000 	ldreq	r0, [r6, #-0]
     fb8:	00134900 	andseq	r4, r3, r0, lsl #18
     fbc:	01131700 	tsteq	r3, r0, lsl #14
     fc0:	050b0e03 	streq	r0, [fp, #-3587]	; 0xfffff1fd
     fc4:	053b0b3a 	ldreq	r0, [fp, #-2874]!	; 0xfffff4c6
     fc8:	13010b39 	movwne	r0, #6969	; 0x1b39
     fcc:	0d180000 	ldceq	0, cr0, [r8, #-0]
     fd0:	3a0e0300 	bcc	381bd8 <__bss_end__+0x377b08>
     fd4:	39053b0b 	stmdbcc	r5, {r0, r1, r3, r8, r9, fp, ip, sp}
     fd8:	3813490b 	ldmdacc	r3, {r0, r1, r3, r8, fp, lr}
     fdc:	1900000b 	stmdbne	r0, {r0, r1, r3}
     fe0:	0e03000d 	cdpeq	0, 0, cr0, cr3, cr13, {0}
     fe4:	053b0b3a 	ldreq	r0, [fp, #-2874]!	; 0xfffff4c6
     fe8:	13490b39 	movtne	r0, #39737	; 0x9b39
     fec:	00000538 	andeq	r0, r0, r8, lsr r5
     ff0:	0301131a 	movweq	r1, #4890	; 0x131a
     ff4:	3a0b0b0e 	bcc	2c3c34 <__bss_end__+0x2b9b64>
     ff8:	39053b0b 	stmdbcc	r5, {r0, r1, r3, r8, r9, fp, ip, sp}
     ffc:	0013010b 	andseq	r0, r3, fp, lsl #2
    1000:	01131b00 	tsteq	r3, r0, lsl #22
    1004:	0b3a0b0b 	bleq	e83c38 <__bss_end__+0xe79b68>
    1008:	0b39053b 	bleq	e424fc <__bss_end__+0xe3842c>
    100c:	00001301 	andeq	r1, r0, r1, lsl #6
    1010:	0b01171c 	bleq	46c88 <__bss_end__+0x3cbb8>
    1014:	3b0b3a0b 	blcc	2cf848 <__bss_end__+0x2c5778>
    1018:	010b3905 	tsteq	fp, r5, lsl #18
    101c:	1d000013 	stcne	0, cr0, [r0, #-76]	; 0xffffffb4
    1020:	0e03000d 	cdpeq	0, 0, cr0, cr3, cr13, {0}
    1024:	053b0b3a 	ldreq	r0, [fp, #-2874]!	; 0xfffff4c6
    1028:	13490b39 	movtne	r0, #39737	; 0x9b39
    102c:	151e0000 	ldrne	r0, [lr, #-0]
    1030:	01192701 	tsteq	r9, r1, lsl #14
    1034:	1f000013 	svcne	0x00000013
    1038:	0e030034 	mcreq	0, 0, r0, cr3, cr4, {1}
    103c:	053b0b3a 	ldreq	r0, [fp, #-2874]!	; 0xfffff4c6
    1040:	13490b39 	movtne	r0, #39737	; 0x9b39
    1044:	193c193f 	ldmdbne	ip!, {r0, r1, r2, r3, r4, r5, r8, fp, ip}
    1048:	34200000 	strtcc	r0, [r0], #-0
    104c:	3a0e0300 	bcc	381c54 <__bss_end__+0x377b84>
    1050:	390b3b0b 	stmdbcc	fp, {r0, r1, r3, r8, r9, fp, ip, sp}
    1054:	3f13490b 	svccc	0x0013490b
    1058:	00193c19 	andseq	r3, r9, r9, lsl ip
    105c:	00342100 	eorseq	r2, r4, r0, lsl #2
    1060:	0b3a1347 	bleq	e85d84 <__bss_end__+0xe7bcb4>
    1064:	0b390b3b 	bleq	e43d58 <__bss_end__+0xe39c88>
    1068:	00001802 	andeq	r1, r0, r2, lsl #16
    106c:	3f012e22 	svccc	0x00012e22
    1070:	3a0e0319 	bcc	381cdc <__bss_end__+0x377c0c>
    1074:	390b3b0b 	stmdbcc	fp, {r0, r1, r3, r8, r9, fp, ip, sp}
    1078:	4919270b 	ldmdbmi	r9, {r0, r1, r3, r8, r9, sl, sp}
    107c:	12011113 	andne	r1, r1, #-1073741820	; 0xc0000004
    1080:	96184006 	ldrls	r4, [r8], -r6
    1084:	00001942 	andeq	r1, r0, r2, asr #18
    1088:	03000523 	movweq	r0, #1315	; 0x523
    108c:	3b0b3a08 	blcc	2cf8b4 <__bss_end__+0x2c57e4>
    1090:	490b390b 	stmdbmi	fp, {r0, r1, r3, r8, fp, ip, sp}
    1094:	b7170213 			; <UNDEFINED> instruction: 0xb7170213
    1098:	00001742 	andeq	r1, r0, r2, asr #14
    109c:	01110100 	tsteq	r1, r0, lsl #2
    10a0:	0b130e25 	bleq	4c493c <__bss_end__+0x4ba86c>
    10a4:	0e1b0e03 	cdpeq	14, 1, cr0, cr11, cr3, {0}
    10a8:	06120111 			; <UNDEFINED> instruction: 0x06120111
    10ac:	00001710 	andeq	r1, r0, r0, lsl r7
    10b0:	0b002402 	bleq	a0c0 <buf.4297+0x3f4>
    10b4:	030b3e0b 	movweq	r3, #48651	; 0xbe0b
    10b8:	03000008 	movweq	r0, #8
    10bc:	0b0b0024 	bleq	2c1154 <__bss_end__+0x2b7084>
    10c0:	0e030b3e 	vmoveq.16	d3[0], r0
    10c4:	16040000 	strne	r0, [r4], -r0
    10c8:	3a0e0300 	bcc	381cd0 <__bss_end__+0x377c00>
    10cc:	390b3b0b 	stmdbcc	fp, {r0, r1, r3, r8, r9, fp, ip, sp}
    10d0:	0013490b 	andseq	r4, r3, fp, lsl #18
    10d4:	000f0500 	andeq	r0, pc, r0, lsl #10
    10d8:	13490b0b 	movtne	r0, #39691	; 0x9b0b
    10dc:	13060000 	movwne	r0, #24576	; 0x6000
    10e0:	3c0e0300 	stccc	3, cr0, [lr], {-0}
    10e4:	07000019 	smladeq	r0, r9, r0, r0
    10e8:	0e030016 	mcreq	0, 0, r0, cr3, cr6, {0}
    10ec:	053b0b3a 	ldreq	r0, [fp, #-2874]!	; 0xfffff4c6
    10f0:	13490b39 	movtne	r0, #39737	; 0x9b39
    10f4:	17080000 	strne	r0, [r8, -r0]
    10f8:	3a0b0b01 	bcc	2c3d04 <__bss_end__+0x2b9c34>
    10fc:	390b3b0b 	stmdbcc	fp, {r0, r1, r3, r8, r9, fp, ip, sp}
    1100:	0013010b 	andseq	r0, r3, fp, lsl #2
    1104:	000d0900 	andeq	r0, sp, r0, lsl #18
    1108:	0b3a0e03 	bleq	e8491c <__bss_end__+0xe7a84c>
    110c:	0b390b3b 	bleq	e43e00 <__bss_end__+0xe39d30>
    1110:	00001349 	andeq	r1, r0, r9, asr #6
    1114:	4901010a 	stmdbmi	r1, {r1, r3, r8}
    1118:	00130113 	andseq	r0, r3, r3, lsl r1
    111c:	00210b00 	eoreq	r0, r1, r0, lsl #22
    1120:	0b2f1349 	bleq	bc5e4c <__bss_end__+0xbbbd7c>
    1124:	130c0000 	movwne	r0, #49152	; 0xc000
    1128:	3a0b0b01 	bcc	2c3d34 <__bss_end__+0x2b9c64>
    112c:	390b3b0b 	stmdbcc	fp, {r0, r1, r3, r8, r9, fp, ip, sp}
    1130:	0013010b 	andseq	r0, r3, fp, lsl #2
    1134:	000d0d00 	andeq	r0, sp, r0, lsl #26
    1138:	0b3a0e03 	bleq	e8494c <__bss_end__+0xe7a87c>
    113c:	0b390b3b 	bleq	e43e30 <__bss_end__+0xe39d60>
    1140:	0b381349 	bleq	e05e6c <__bss_end__+0xdfbd9c>
    1144:	0f0e0000 	svceq	0x000e0000
    1148:	000b0b00 	andeq	r0, fp, r0, lsl #22
    114c:	00260f00 	eoreq	r0, r6, r0, lsl #30
    1150:	00001349 	andeq	r1, r0, r9, asr #6
    1154:	03011310 	movweq	r1, #4880	; 0x1310
    1158:	3a0b0b0e 	bcc	2c3d98 <__bss_end__+0x2b9cc8>
    115c:	390b3b0b 	stmdbcc	fp, {r0, r1, r3, r8, r9, fp, ip, sp}
    1160:	0013010b 	andseq	r0, r3, fp, lsl #2
    1164:	000d1100 	andeq	r1, sp, r0, lsl #2
    1168:	0b3a0803 	bleq	e8317c <__bss_end__+0xe790ac>
    116c:	0b390b3b 	bleq	e43e60 <__bss_end__+0xe39d90>
    1170:	0b381349 	bleq	e05e9c <__bss_end__+0xdfbdcc>
    1174:	13120000 	tstne	r2, #0
    1178:	0b0e0301 	bleq	381d84 <__bss_end__+0x377cb4>
    117c:	3b0b3a05 	blcc	2cf998 <__bss_end__+0x2c58c8>
    1180:	010b390b 	tsteq	fp, fp, lsl #18
    1184:	13000013 	movwne	r0, #19
    1188:	0e03000d 	cdpeq	0, 0, cr0, cr3, cr13, {0}
    118c:	0b3b0b3a 	bleq	ec3e7c <__bss_end__+0xeb9dac>
    1190:	13490b39 	movtne	r0, #39737	; 0x9b39
    1194:	00000538 	andeq	r0, r0, r8, lsr r5
    1198:	27001514 	smladcs	r0, r4, r5, r1
    119c:	15000019 	strne	r0, [r0, #-25]	; 0xffffffe7
    11a0:	19270115 	stmdbne	r7!, {r0, r2, r4, r8}
    11a4:	13011349 	movwne	r1, #4937	; 0x1349
    11a8:	05160000 	ldreq	r0, [r6, #-0]
    11ac:	00134900 	andseq	r4, r3, r0, lsl #18
    11b0:	01131700 	tsteq	r3, r0, lsl #14
    11b4:	050b0e03 	streq	r0, [fp, #-3587]	; 0xfffff1fd
    11b8:	053b0b3a 	ldreq	r0, [fp, #-2874]!	; 0xfffff4c6
    11bc:	13010b39 	movwne	r0, #6969	; 0x1b39
    11c0:	0d180000 	ldceq	0, cr0, [r8, #-0]
    11c4:	3a0e0300 	bcc	381dcc <__bss_end__+0x377cfc>
    11c8:	39053b0b 	stmdbcc	r5, {r0, r1, r3, r8, r9, fp, ip, sp}
    11cc:	3813490b 	ldmdacc	r3, {r0, r1, r3, r8, fp, lr}
    11d0:	1900000b 	stmdbne	r0, {r0, r1, r3}
    11d4:	0e03000d 	cdpeq	0, 0, cr0, cr3, cr13, {0}
    11d8:	053b0b3a 	ldreq	r0, [fp, #-2874]!	; 0xfffff4c6
    11dc:	13490b39 	movtne	r0, #39737	; 0x9b39
    11e0:	00000538 	andeq	r0, r0, r8, lsr r5
    11e4:	0301131a 	movweq	r1, #4890	; 0x131a
    11e8:	3a0b0b0e 	bcc	2c3e28 <__bss_end__+0x2b9d58>
    11ec:	39053b0b 	stmdbcc	r5, {r0, r1, r3, r8, r9, fp, ip, sp}
    11f0:	0013010b 	andseq	r0, r3, fp, lsl #2
    11f4:	01131b00 	tsteq	r3, r0, lsl #22
    11f8:	0b3a0b0b 	bleq	e83e2c <__bss_end__+0xe79d5c>
    11fc:	0b39053b 	bleq	e426f0 <__bss_end__+0xe38620>
    1200:	00001301 	andeq	r1, r0, r1, lsl #6
    1204:	0b01171c 	bleq	46e7c <__bss_end__+0x3cdac>
    1208:	3b0b3a0b 	blcc	2cfa3c <__bss_end__+0x2c596c>
    120c:	010b3905 	tsteq	fp, r5, lsl #18
    1210:	1d000013 	stcne	0, cr0, [r0, #-76]	; 0xffffffb4
    1214:	0e03000d 	cdpeq	0, 0, cr0, cr3, cr13, {0}
    1218:	053b0b3a 	ldreq	r0, [fp, #-2874]!	; 0xfffff4c6
    121c:	13490b39 	movtne	r0, #39737	; 0x9b39
    1220:	151e0000 	ldrne	r0, [lr, #-0]
    1224:	01192701 	tsteq	r9, r1, lsl #14
    1228:	1f000013 	svcne	0x00000013
    122c:	0e030034 	mcreq	0, 0, r0, cr3, cr4, {1}
    1230:	053b0b3a 	ldreq	r0, [fp, #-2874]!	; 0xfffff4c6
    1234:	13490b39 	movtne	r0, #39737	; 0x9b39
    1238:	193c193f 	ldmdbne	ip!, {r0, r1, r2, r3, r4, r5, r8, fp, ip}
    123c:	34200000 	strtcc	r0, [r0], #-0
    1240:	3a0e0300 	bcc	381e48 <__bss_end__+0x377d78>
    1244:	390b3b0b 	stmdbcc	fp, {r0, r1, r3, r8, r9, fp, ip, sp}
    1248:	3f13490b 	svccc	0x0013490b
    124c:	00193c19 	andseq	r3, r9, r9, lsl ip
    1250:	00342100 	eorseq	r2, r4, r0, lsl #2
    1254:	0b3a0e03 	bleq	e84a68 <__bss_end__+0xe7a998>
    1258:	0b390b3b 	bleq	e43f4c <__bss_end__+0xe39e7c>
    125c:	18021349 	stmdane	r2, {r0, r3, r6, r8, r9, ip}
    1260:	34220000 	strtcc	r0, [r2], #-0
    1264:	3a080300 	bcc	201e6c <__bss_end__+0x1f7d9c>
    1268:	390b3b0b 	stmdbcc	fp, {r0, r1, r3, r8, r9, fp, ip, sp}
    126c:	0013490b 	andseq	r4, r3, fp, lsl #18
    1270:	012e2300 			; <UNDEFINED> instruction: 0x012e2300
    1274:	0e03193f 			; <UNDEFINED> instruction: 0x0e03193f
    1278:	0b3b0b3a 	bleq	ec3f68 <__bss_end__+0xeb9e98>
    127c:	19270b39 	stmdbne	r7!, {r0, r3, r4, r5, r8, r9, fp}
    1280:	06120111 			; <UNDEFINED> instruction: 0x06120111
    1284:	42971840 	addsmi	r1, r7, #64, 16	; 0x400000
    1288:	00130119 	andseq	r0, r3, r9, lsl r1
    128c:	00052400 	andeq	r2, r5, r0, lsl #8
    1290:	0b3a0e03 	bleq	e84aa4 <__bss_end__+0xe7a9d4>
    1294:	0b390b3b 	bleq	e43f88 <__bss_end__+0xe39eb8>
    1298:	18021349 	stmdane	r2, {r0, r3, r6, r8, r9, ip}
    129c:	2e250000 	cdpcs	0, 2, cr0, cr5, cr0, {0}
    12a0:	03193f01 	tsteq	r9, #1, 30
    12a4:	3b0b3a0e 	blcc	2cfae4 <__bss_end__+0x2c5a14>
    12a8:	270b390b 	strcs	r3, [fp, -fp, lsl #18]
    12ac:	11134919 	tstne	r3, r9, lsl r9
    12b0:	40061201 	andmi	r1, r6, r1, lsl #4
    12b4:	19429718 	stmdbne	r2, {r3, r4, r8, r9, sl, ip, pc}^
    12b8:	00001301 	andeq	r1, r0, r1, lsl #6
    12bc:	01828926 	orreq	r8, r2, r6, lsr #18
    12c0:	31011100 	mrscc	r1, (UNDEF: 17)
    12c4:	27000013 	smladcs	r0, r3, r0, r0
    12c8:	193f002e 	ldmdbne	pc!, {r1, r2, r3, r5}	; <UNPREDICTABLE>
    12cc:	0b3a0e03 	bleq	e84ae0 <__bss_end__+0xe7aa10>
    12d0:	0b390b3b 	bleq	e43fc4 <__bss_end__+0xe39ef4>
    12d4:	13491927 	movtne	r1, #39207	; 0x9927
    12d8:	06120111 			; <UNDEFINED> instruction: 0x06120111
    12dc:	42971840 	addsmi	r1, r7, #64, 16	; 0x400000
    12e0:	00000019 	andeq	r0, r0, r9, lsl r0
    12e4:	25011101 	strcs	r1, [r1, #-257]	; 0xfffffeff
    12e8:	030b130e 	movweq	r1, #45838	; 0xb30e
    12ec:	110e1b0e 	tstne	lr, lr, lsl #22
    12f0:	10061201 	andne	r1, r6, r1, lsl #4
    12f4:	02000017 	andeq	r0, r0, #23
    12f8:	0b0b0024 	bleq	2c1390 <__bss_end__+0x2b72c0>
    12fc:	08030b3e 	stmdaeq	r3, {r1, r2, r3, r4, r5, r8, r9, fp}
    1300:	24030000 	strcs	r0, [r3], #-0
    1304:	3e0b0b00 	vmlacc.f64	d0, d11, d0
    1308:	000e030b 	andeq	r0, lr, fp, lsl #6
    130c:	00160400 	andseq	r0, r6, r0, lsl #8
    1310:	0b3a0e03 	bleq	e84b24 <__bss_end__+0xe7aa54>
    1314:	0b390b3b 	bleq	e44008 <__bss_end__+0xe39f38>
    1318:	00001349 	andeq	r1, r0, r9, asr #6
    131c:	0b000f05 	bleq	4f38 <_start-0x30c8>
    1320:	0013490b 	andseq	r4, r3, fp, lsl #18
    1324:	00130600 	andseq	r0, r3, r0, lsl #12
    1328:	193c0e03 	ldmdbne	ip!, {r0, r1, r9, sl, fp}
    132c:	16070000 	strne	r0, [r7], -r0
    1330:	3a0e0300 	bcc	381f38 <__bss_end__+0x377e68>
    1334:	39053b0b 	stmdbcc	r5, {r0, r1, r3, r8, r9, fp, ip, sp}
    1338:	0013490b 	andseq	r4, r3, fp, lsl #18
    133c:	01170800 	tsteq	r7, r0, lsl #16
    1340:	0b3a0b0b 	bleq	e83f74 <__bss_end__+0xe79ea4>
    1344:	0b390b3b 	bleq	e44038 <__bss_end__+0xe39f68>
    1348:	00001301 	andeq	r1, r0, r1, lsl #6
    134c:	03000d09 	movweq	r0, #3337	; 0xd09
    1350:	3b0b3a0e 	blcc	2cfb90 <__bss_end__+0x2c5ac0>
    1354:	490b390b 	stmdbmi	fp, {r0, r1, r3, r8, fp, ip, sp}
    1358:	0a000013 	beq	13ac <_start-0x6c54>
    135c:	13490101 	movtne	r0, #37121	; 0x9101
    1360:	00001301 	andeq	r1, r0, r1, lsl #6
    1364:	4900210b 	stmdbmi	r0, {r0, r1, r3, r8, sp}
    1368:	000b2f13 	andeq	r2, fp, r3, lsl pc
    136c:	01130c00 	tsteq	r3, r0, lsl #24
    1370:	0b3a0b0b 	bleq	e83fa4 <__bss_end__+0xe79ed4>
    1374:	0b390b3b 	bleq	e44068 <__bss_end__+0xe39f98>
    1378:	00001301 	andeq	r1, r0, r1, lsl #6
    137c:	03000d0d 	movweq	r0, #3341	; 0xd0d
    1380:	3b0b3a0e 	blcc	2cfbc0 <__bss_end__+0x2c5af0>
    1384:	490b390b 	stmdbmi	fp, {r0, r1, r3, r8, fp, ip, sp}
    1388:	000b3813 	andeq	r3, fp, r3, lsl r8
    138c:	000f0e00 	andeq	r0, pc, r0, lsl #28
    1390:	00000b0b 	andeq	r0, r0, fp, lsl #22
    1394:	4900260f 	stmdbmi	r0, {r0, r1, r2, r3, r9, sl, sp}
    1398:	10000013 	andne	r0, r0, r3, lsl r0
    139c:	0e030113 	mcreq	1, 0, r0, cr3, cr3, {0}
    13a0:	0b3a0b0b 	bleq	e83fd4 <__bss_end__+0xe79f04>
    13a4:	0b390b3b 	bleq	e44098 <__bss_end__+0xe39fc8>
    13a8:	00001301 	andeq	r1, r0, r1, lsl #6
    13ac:	03000d11 	movweq	r0, #3345	; 0xd11
    13b0:	3b0b3a08 	blcc	2cfbd8 <__bss_end__+0x2c5b08>
    13b4:	490b390b 	stmdbmi	fp, {r0, r1, r3, r8, fp, ip, sp}
    13b8:	000b3813 	andeq	r3, fp, r3, lsl r8
    13bc:	01131200 	tsteq	r3, r0, lsl #4
    13c0:	050b0e03 	streq	r0, [fp, #-3587]	; 0xfffff1fd
    13c4:	0b3b0b3a 	bleq	ec40b4 <__bss_end__+0xeb9fe4>
    13c8:	13010b39 	movwne	r0, #6969	; 0x1b39
    13cc:	0d130000 	ldceq	0, cr0, [r3, #-0]
    13d0:	3a0e0300 	bcc	381fd8 <__bss_end__+0x377f08>
    13d4:	390b3b0b 	stmdbcc	fp, {r0, r1, r3, r8, r9, fp, ip, sp}
    13d8:	3813490b 	ldmdacc	r3, {r0, r1, r3, r8, fp, lr}
    13dc:	14000005 	strne	r0, [r0], #-5
    13e0:	19270015 	stmdbne	r7!, {r0, r2, r4}
    13e4:	15150000 	ldrne	r0, [r5, #-0]
    13e8:	49192701 	ldmdbmi	r9, {r0, r8, r9, sl, sp}
    13ec:	00130113 	andseq	r0, r3, r3, lsl r1
    13f0:	00051600 	andeq	r1, r5, r0, lsl #12
    13f4:	00001349 	andeq	r1, r0, r9, asr #6
    13f8:	03011317 	movweq	r1, #4887	; 0x1317
    13fc:	3a050b0e 	bcc	14403c <__bss_end__+0x139f6c>
    1400:	39053b0b 	stmdbcc	r5, {r0, r1, r3, r8, r9, fp, ip, sp}
    1404:	0013010b 	andseq	r0, r3, fp, lsl #2
    1408:	000d1800 	andeq	r1, sp, r0, lsl #16
    140c:	0b3a0e03 	bleq	e84c20 <__bss_end__+0xe7ab50>
    1410:	0b39053b 	bleq	e42904 <__bss_end__+0xe38834>
    1414:	0b381349 	bleq	e06140 <__bss_end__+0xdfc070>
    1418:	0d190000 	ldceq	0, cr0, [r9, #-0]
    141c:	3a0e0300 	bcc	382024 <__bss_end__+0x377f54>
    1420:	39053b0b 	stmdbcc	r5, {r0, r1, r3, r8, r9, fp, ip, sp}
    1424:	3813490b 	ldmdacc	r3, {r0, r1, r3, r8, fp, lr}
    1428:	1a000005 	bne	1444 <_start-0x6bbc>
    142c:	0e030113 	mcreq	1, 0, r0, cr3, cr3, {0}
    1430:	0b3a0b0b 	bleq	e84064 <__bss_end__+0xe79f94>
    1434:	0b39053b 	bleq	e42928 <__bss_end__+0xe38858>
    1438:	00001301 	andeq	r1, r0, r1, lsl #6
    143c:	0b01131b 	bleq	460b0 <__bss_end__+0x3bfe0>
    1440:	3b0b3a0b 	blcc	2cfc74 <__bss_end__+0x2c5ba4>
    1444:	010b3905 	tsteq	fp, r5, lsl #18
    1448:	1c000013 	stcne	0, cr0, [r0], {19}
    144c:	0b0b0117 	bleq	2c18b0 <__bss_end__+0x2b77e0>
    1450:	053b0b3a 	ldreq	r0, [fp, #-2874]!	; 0xfffff4c6
    1454:	13010b39 	movwne	r0, #6969	; 0x1b39
    1458:	0d1d0000 	ldceq	0, cr0, [sp, #-0]
    145c:	3a0e0300 	bcc	382064 <__bss_end__+0x377f94>
    1460:	39053b0b 	stmdbcc	r5, {r0, r1, r3, r8, r9, fp, ip, sp}
    1464:	0013490b 	andseq	r4, r3, fp, lsl #18
    1468:	01151e00 	tsteq	r5, r0, lsl #28
    146c:	13011927 	movwne	r1, #6439	; 0x1927
    1470:	341f0000 	ldrcc	r0, [pc], #-0	; 1478 <_start-0x6b88>
    1474:	3a0e0300 	bcc	38207c <__bss_end__+0x377fac>
    1478:	39053b0b 	stmdbcc	r5, {r0, r1, r3, r8, r9, fp, ip, sp}
    147c:	3f13490b 	svccc	0x0013490b
    1480:	00193c19 	andseq	r3, r9, r9, lsl ip
    1484:	00342000 	eorseq	r2, r4, r0
    1488:	0b3a0e03 	bleq	e84c9c <__bss_end__+0xe7abcc>
    148c:	0b390b3b 	bleq	e44180 <__bss_end__+0xe3a0b0>
    1490:	193f1349 	ldmdbne	pc!, {r0, r3, r6, r8, r9, ip}	; <UNPREDICTABLE>
    1494:	0000193c 	andeq	r1, r0, ip, lsr r9
    1498:	03011321 	movweq	r1, #4897	; 0x1321
    149c:	3a0b0b0e 	bcc	2c40dc <__bss_end__+0x2ba00c>
    14a0:	010b3b0b 	tsteq	fp, fp, lsl #22
    14a4:	22000013 	andcs	r0, r0, #19
    14a8:	0e03000d 	cdpeq	0, 0, cr0, cr3, cr13, {0}
    14ac:	0b381349 	bleq	e061d8 <__bss_end__+0xdfc108>
    14b0:	00001934 	andeq	r1, r0, r4, lsr r9
    14b4:	3f012e23 	svccc	0x00012e23
    14b8:	3a0e0319 	bcc	382124 <__bss_end__+0x378054>
    14bc:	390b3b0b 	stmdbcc	fp, {r0, r1, r3, r8, r9, fp, ip, sp}
    14c0:	4919270b 	ldmdbmi	r9, {r0, r1, r3, r8, r9, sl, sp}
    14c4:	12011113 	andne	r1, r1, #-1073741820	; 0xc0000004
    14c8:	97184006 	ldrls	r4, [r8, -r6]
    14cc:	13011942 	movwne	r1, #6466	; 0x1942
    14d0:	05240000 	streq	r0, [r4, #-0]!
    14d4:	3a080300 	bcc	2020dc <__bss_end__+0x1f800c>
    14d8:	390b3b0b 	stmdbcc	fp, {r0, r1, r3, r8, r9, fp, ip, sp}
    14dc:	0213490b 	andseq	r4, r3, #180224	; 0x2c000
    14e0:	1742b717 	smlaldne	fp, r2, r7, r7
    14e4:	05250000 	streq	r0, [r5, #-0]!
    14e8:	3a0e0300 	bcc	3820f0 <__bss_end__+0x378020>
    14ec:	390b3b0b 	stmdbcc	fp, {r0, r1, r3, r8, r9, fp, ip, sp}
    14f0:	0213490b 	andseq	r4, r3, #180224	; 0x2c000
    14f4:	26000018 			; <UNDEFINED> instruction: 0x26000018
    14f8:	08030034 	stmdaeq	r3, {r2, r4, r5}
    14fc:	0b3b0b3a 	bleq	ec41ec <__bss_end__+0xeba11c>
    1500:	13490b39 	movtne	r0, #39737	; 0x9b39
    1504:	42b71702 	adcsmi	r1, r7, #524288	; 0x80000
    1508:	27000017 	smladcs	r0, r7, r0, r0
    150c:	0e030034 	mcreq	0, 0, r0, cr3, cr4, {1}
    1510:	19341349 	ldmdbne	r4!, {r0, r3, r6, r8, r9, ip}
    1514:	00001802 	andeq	r1, r0, r2, lsl #16
    1518:	11010b28 	tstne	r1, r8, lsr #22
    151c:	00061201 	andeq	r1, r6, r1, lsl #4
    1520:	00342900 	eorseq	r2, r4, r0, lsl #18
    1524:	0b3a0803 	bleq	e83538 <__bss_end__+0xe79468>
    1528:	0b390b3b 	bleq	e4421c <__bss_end__+0xe3a14c>
    152c:	18021349 	stmdane	r2, {r0, r3, r6, r8, r9, ip}
    1530:	342a0000 	strtcc	r0, [sl], #-0
    1534:	3a0e0300 	bcc	38213c <__bss_end__+0x37806c>
    1538:	390b3b0b 	stmdbcc	fp, {r0, r1, r3, r8, r9, fp, ip, sp}
    153c:	0213490b 	andseq	r4, r3, #180224	; 0x2c000
    1540:	1742b717 	smlaldne	fp, r2, r7, r7
    1544:	892b0000 	stmdbhi	fp!, {}	; <UNPREDICTABLE>
    1548:	11010182 	smlabbne	r1, r2, r1, r0
    154c:	01133101 	tsteq	r3, r1, lsl #2
    1550:	2c000013 	stccs	0, cr0, [r0], {19}
    1554:	0001828a 	andeq	r8, r1, sl, lsl #5
    1558:	42911802 	addsmi	r1, r1, #131072	; 0x20000
    155c:	2d000018 	stccs	0, cr0, [r0, #-96]	; 0xffffffa0
    1560:	00018289 	andeq	r8, r1, r9, lsl #5
    1564:	13310111 	teqne	r1, #1073741828	; 0x40000004
    1568:	2e2e0000 	cdpcs	0, 2, cr0, cr14, cr0, {0}
    156c:	3a0e0301 	bcc	382178 <__bss_end__+0x3780a8>
    1570:	390b3b0b 	stmdbcc	fp, {r0, r1, r3, r8, r9, fp, ip, sp}
    1574:	4919270b 	ldmdbmi	r9, {r0, r1, r3, r8, r9, sl, sp}
    1578:	12011113 	andne	r1, r1, #-1073741820	; 0xc0000004
    157c:	97184006 	ldrls	r4, [r8, -r6]
    1580:	13011942 	movwne	r1, #6466	; 0x1942
    1584:	052f0000 	streq	r0, [pc, #-0]!	; 158c <_start-0x6a74>
    1588:	3a0e0300 	bcc	382190 <__bss_end__+0x3780c0>
    158c:	390b3b0b 	stmdbcc	fp, {r0, r1, r3, r8, r9, fp, ip, sp}
    1590:	0213490b 	andseq	r4, r3, #180224	; 0x2c000
    1594:	1742b717 	smlaldne	fp, r2, r7, r7
    1598:	0b300000 	bleq	c015a0 <__bss_end__+0xbf74d0>
    159c:	12011101 	andne	r1, r1, #1073741824	; 0x40000000
    15a0:	00130106 	andseq	r0, r3, r6, lsl #2
    15a4:	012e3100 			; <UNDEFINED> instruction: 0x012e3100
    15a8:	0b3a0803 	bleq	e835bc <__bss_end__+0xe794ec>
    15ac:	0b390b3b 	bleq	e442a0 <__bss_end__+0xe3a1d0>
    15b0:	13491927 	movtne	r1, #39207	; 0x9927
    15b4:	06120111 			; <UNDEFINED> instruction: 0x06120111
    15b8:	42971840 	addsmi	r1, r7, #64, 16	; 0x400000
    15bc:	00130119 	andseq	r0, r3, r9, lsl r1
    15c0:	012e3200 			; <UNDEFINED> instruction: 0x012e3200
    15c4:	0e03193f 			; <UNDEFINED> instruction: 0x0e03193f
    15c8:	0b3b0b3a 	bleq	ec42b8 <__bss_end__+0xeba1e8>
    15cc:	19270b39 	stmdbne	r7!, {r0, r3, r4, r5, r8, r9, fp}
    15d0:	06120111 			; <UNDEFINED> instruction: 0x06120111
    15d4:	42971840 	addsmi	r1, r7, #64, 16	; 0x400000
    15d8:	00130119 	andseq	r0, r3, r9, lsl r1
    15dc:	002e3300 	eoreq	r3, lr, r0, lsl #6
    15e0:	193c193f 	ldmdbne	ip!, {r0, r1, r2, r3, r4, r5, r8, fp, ip}
    15e4:	0e030e6e 	cdpeq	14, 0, cr0, cr3, cr14, {3}
    15e8:	0b3b0b3a 	bleq	ec42d8 <__bss_end__+0xeba208>
    15ec:	00000b39 	andeq	r0, r0, r9, lsr fp
    15f0:	01110100 	tsteq	r1, r0, lsl #2
    15f4:	0b130e25 	bleq	4c4e90 <__bss_end__+0x4badc0>
    15f8:	0e1b0e03 	cdpeq	14, 1, cr0, cr11, cr3, {0}
    15fc:	06120111 			; <UNDEFINED> instruction: 0x06120111
    1600:	00001710 	andeq	r1, r0, r0, lsl r7
    1604:	0b002402 	bleq	a614 <__bss_end__+0x544>
    1608:	030b3e0b 	movweq	r3, #48651	; 0xbe0b
    160c:	03000008 	movweq	r0, #8
    1610:	0b0b0024 	bleq	2c16a8 <__bss_end__+0x2b75d8>
    1614:	0e030b3e 	vmoveq.16	d3[0], r0
    1618:	16040000 	strne	r0, [r4], -r0
    161c:	3a0e0300 	bcc	382224 <__bss_end__+0x378154>
    1620:	390b3b0b 	stmdbcc	fp, {r0, r1, r3, r8, r9, fp, ip, sp}
    1624:	0013490b 	andseq	r4, r3, fp, lsl #18
    1628:	000f0500 	andeq	r0, pc, r0, lsl #10
    162c:	13490b0b 	movtne	r0, #39691	; 0x9b0b
    1630:	13060000 	movwne	r0, #24576	; 0x6000
    1634:	3c0e0300 	stccc	3, cr0, [lr], {-0}
    1638:	07000019 	smladeq	r0, r9, r0, r0
    163c:	0e030016 	mcreq	0, 0, r0, cr3, cr6, {0}
    1640:	053b0b3a 	ldreq	r0, [fp, #-2874]!	; 0xfffff4c6
    1644:	13490b39 	movtne	r0, #39737	; 0x9b39
    1648:	17080000 	strne	r0, [r8, -r0]
    164c:	3a0b0b01 	bcc	2c4258 <__bss_end__+0x2ba188>
    1650:	390b3b0b 	stmdbcc	fp, {r0, r1, r3, r8, r9, fp, ip, sp}
    1654:	0013010b 	andseq	r0, r3, fp, lsl #2
    1658:	000d0900 	andeq	r0, sp, r0, lsl #18
    165c:	0b3a0e03 	bleq	e84e70 <__bss_end__+0xe7ada0>
    1660:	0b390b3b 	bleq	e44354 <__bss_end__+0xe3a284>
    1664:	00001349 	andeq	r1, r0, r9, asr #6
    1668:	4901010a 	stmdbmi	r1, {r1, r3, r8}
    166c:	00130113 	andseq	r0, r3, r3, lsl r1
    1670:	00210b00 	eoreq	r0, r1, r0, lsl #22
    1674:	0b2f1349 	bleq	bc63a0 <__bss_end__+0xbbc2d0>
    1678:	130c0000 	movwne	r0, #49152	; 0xc000
    167c:	3a0b0b01 	bcc	2c4288 <__bss_end__+0x2ba1b8>
    1680:	390b3b0b 	stmdbcc	fp, {r0, r1, r3, r8, r9, fp, ip, sp}
    1684:	0013010b 	andseq	r0, r3, fp, lsl #2
    1688:	000d0d00 	andeq	r0, sp, r0, lsl #26
    168c:	0b3a0e03 	bleq	e84ea0 <__bss_end__+0xe7add0>
    1690:	0b390b3b 	bleq	e44384 <__bss_end__+0xe3a2b4>
    1694:	0b381349 	bleq	e063c0 <__bss_end__+0xdfc2f0>
    1698:	0f0e0000 	svceq	0x000e0000
    169c:	000b0b00 	andeq	r0, fp, r0, lsl #22
    16a0:	00260f00 	eoreq	r0, r6, r0, lsl #30
    16a4:	00001349 	andeq	r1, r0, r9, asr #6
    16a8:	03011310 	movweq	r1, #4880	; 0x1310
    16ac:	3a0b0b0e 	bcc	2c42ec <__bss_end__+0x2ba21c>
    16b0:	390b3b0b 	stmdbcc	fp, {r0, r1, r3, r8, r9, fp, ip, sp}
    16b4:	0013010b 	andseq	r0, r3, fp, lsl #2
    16b8:	000d1100 	andeq	r1, sp, r0, lsl #2
    16bc:	0b3a0803 	bleq	e836d0 <__bss_end__+0xe79600>
    16c0:	0b390b3b 	bleq	e443b4 <__bss_end__+0xe3a2e4>
    16c4:	0b381349 	bleq	e063f0 <__bss_end__+0xdfc320>
    16c8:	13120000 	tstne	r2, #0
    16cc:	0b0e0301 	bleq	3822d8 <__bss_end__+0x378208>
    16d0:	3b0b3a05 	blcc	2cfeec <__bss_end__+0x2c5e1c>
    16d4:	010b390b 	tsteq	fp, fp, lsl #18
    16d8:	13000013 	movwne	r0, #19
    16dc:	0e03000d 	cdpeq	0, 0, cr0, cr3, cr13, {0}
    16e0:	0b3b0b3a 	bleq	ec43d0 <__bss_end__+0xeba300>
    16e4:	13490b39 	movtne	r0, #39737	; 0x9b39
    16e8:	00000538 	andeq	r0, r0, r8, lsr r5
    16ec:	27001514 	smladcs	r0, r4, r5, r1
    16f0:	15000019 	strne	r0, [r0, #-25]	; 0xffffffe7
    16f4:	19270115 	stmdbne	r7!, {r0, r2, r4, r8}
    16f8:	13011349 	movwne	r1, #4937	; 0x1349
    16fc:	05160000 	ldreq	r0, [r6, #-0]
    1700:	00134900 	andseq	r4, r3, r0, lsl #18
    1704:	01131700 	tsteq	r3, r0, lsl #14
    1708:	050b0e03 	streq	r0, [fp, #-3587]	; 0xfffff1fd
    170c:	053b0b3a 	ldreq	r0, [fp, #-2874]!	; 0xfffff4c6
    1710:	13010b39 	movwne	r0, #6969	; 0x1b39
    1714:	0d180000 	ldceq	0, cr0, [r8, #-0]
    1718:	3a0e0300 	bcc	382320 <__bss_end__+0x378250>
    171c:	39053b0b 	stmdbcc	r5, {r0, r1, r3, r8, r9, fp, ip, sp}
    1720:	3813490b 	ldmdacc	r3, {r0, r1, r3, r8, fp, lr}
    1724:	1900000b 	stmdbne	r0, {r0, r1, r3}
    1728:	0e03000d 	cdpeq	0, 0, cr0, cr3, cr13, {0}
    172c:	053b0b3a 	ldreq	r0, [fp, #-2874]!	; 0xfffff4c6
    1730:	13490b39 	movtne	r0, #39737	; 0x9b39
    1734:	00000538 	andeq	r0, r0, r8, lsr r5
    1738:	0301131a 	movweq	r1, #4890	; 0x131a
    173c:	3a0b0b0e 	bcc	2c437c <__bss_end__+0x2ba2ac>
    1740:	39053b0b 	stmdbcc	r5, {r0, r1, r3, r8, r9, fp, ip, sp}
    1744:	0013010b 	andseq	r0, r3, fp, lsl #2
    1748:	01131b00 	tsteq	r3, r0, lsl #22
    174c:	0b3a0b0b 	bleq	e84380 <__bss_end__+0xe7a2b0>
    1750:	0b39053b 	bleq	e42c44 <__bss_end__+0xe38b74>
    1754:	00001301 	andeq	r1, r0, r1, lsl #6
    1758:	0b01171c 	bleq	473d0 <__bss_end__+0x3d300>
    175c:	3b0b3a0b 	blcc	2cff90 <__bss_end__+0x2c5ec0>
    1760:	010b3905 	tsteq	fp, r5, lsl #18
    1764:	1d000013 	stcne	0, cr0, [r0, #-76]	; 0xffffffb4
    1768:	0e03000d 	cdpeq	0, 0, cr0, cr3, cr13, {0}
    176c:	053b0b3a 	ldreq	r0, [fp, #-2874]!	; 0xfffff4c6
    1770:	13490b39 	movtne	r0, #39737	; 0x9b39
    1774:	151e0000 	ldrne	r0, [lr, #-0]
    1778:	01192701 	tsteq	r9, r1, lsl #14
    177c:	1f000013 	svcne	0x00000013
    1780:	0e030034 	mcreq	0, 0, r0, cr3, cr4, {1}
    1784:	053b0b3a 	ldreq	r0, [fp, #-2874]!	; 0xfffff4c6
    1788:	13490b39 	movtne	r0, #39737	; 0x9b39
    178c:	193c193f 	ldmdbne	ip!, {r0, r1, r2, r3, r4, r5, r8, fp, ip}
    1790:	34200000 	strtcc	r0, [r0], #-0
    1794:	3a0e0300 	bcc	38239c <__bss_end__+0x3782cc>
    1798:	390b3b0b 	stmdbcc	fp, {r0, r1, r3, r8, r9, fp, ip, sp}
    179c:	3f13490b 	svccc	0x0013490b
    17a0:	00193c19 	andseq	r3, r9, r9, lsl ip
    17a4:	012e2100 			; <UNDEFINED> instruction: 0x012e2100
    17a8:	0e03193f 			; <UNDEFINED> instruction: 0x0e03193f
    17ac:	0b3b0b3a 	bleq	ec449c <__bss_end__+0xeba3cc>
    17b0:	19270b39 	stmdbne	r7!, {r0, r3, r4, r5, r8, r9, fp}
    17b4:	11190187 	tstne	r9, r7, lsl #3
    17b8:	40061201 	andmi	r1, r6, r1, lsl #4
    17bc:	19429718 	stmdbne	r2, {r3, r4, r8, r9, sl, ip, pc}^
    17c0:	00001301 	andeq	r1, r0, r1, lsl #6
    17c4:	01828922 	orreq	r8, r2, r2, lsr #18
    17c8:	01011101 	tsteq	r1, r1, lsl #2
    17cc:	23000013 	movwcs	r0, #19
    17d0:	0001828a 	andeq	r8, r1, sl, lsl #5
    17d4:	42911802 	addsmi	r1, r1, #131072	; 0x20000
    17d8:	24000018 	strcs	r0, [r0], #-24	; 0xffffffe8
    17dc:	01018289 	smlabbeq	r1, r9, r2, r8
    17e0:	13310111 	teqne	r1, #1073741828	; 0x40000004
    17e4:	00001301 	andeq	r1, r0, r1, lsl #6
    17e8:	01828925 	orreq	r8, r2, r5, lsr #18
    17ec:	31011100 	mrscc	r1, (UNDEF: 17)
    17f0:	26000013 			; <UNDEFINED> instruction: 0x26000013
    17f4:	193f002e 	ldmdbne	pc!, {r1, r2, r3, r5}	; <UNPREDICTABLE>
    17f8:	0e6e193c 			; <UNDEFINED> instruction: 0x0e6e193c
    17fc:	0b3a0e03 	bleq	e85010 <__bss_end__+0xe7af40>
    1800:	0b390b3b 	bleq	e444f4 <__bss_end__+0xe3a424>
    1804:	01000000 	mrseq	r0, (UNDEF: 0)
    1808:	0e250111 	mcreq	1, 1, r0, cr5, cr1, {0}
    180c:	0e030b13 	vmoveq.32	d3[0], r0
    1810:	01110e1b 	tsteq	r1, fp, lsl lr
    1814:	17100612 			; <UNDEFINED> instruction: 0x17100612
    1818:	24020000 	strcs	r0, [r2], #-0
    181c:	3e0b0b00 	vmlacc.f64	d0, d11, d0
    1820:	0008030b 	andeq	r0, r8, fp, lsl #6
    1824:	00240300 	eoreq	r0, r4, r0, lsl #6
    1828:	0b3e0b0b 	bleq	f8445c <__bss_end__+0xf7a38c>
    182c:	00000e03 	andeq	r0, r0, r3, lsl #28
    1830:	03001604 	movweq	r1, #1540	; 0x604
    1834:	3b0b3a0e 	blcc	2d0074 <__bss_end__+0x2c5fa4>
    1838:	490b390b 	stmdbmi	fp, {r0, r1, r3, r8, fp, ip, sp}
    183c:	05000013 	streq	r0, [r0, #-19]	; 0xffffffed
    1840:	0b0b000f 	bleq	2c1884 <__bss_end__+0x2b77b4>
    1844:	00001349 	andeq	r1, r0, r9, asr #6
    1848:	03001306 	movweq	r1, #774	; 0x306
    184c:	00193c0e 	andseq	r3, r9, lr, lsl #24
    1850:	00160700 	andseq	r0, r6, r0, lsl #14
    1854:	0b3a0e03 	bleq	e85068 <__bss_end__+0xe7af98>
    1858:	0b39053b 	bleq	e42d4c <__bss_end__+0xe38c7c>
    185c:	00001349 	andeq	r1, r0, r9, asr #6
    1860:	0b011708 	bleq	47488 <__bss_end__+0x3d3b8>
    1864:	3b0b3a0b 	blcc	2d0098 <__bss_end__+0x2c5fc8>
    1868:	010b390b 	tsteq	fp, fp, lsl #18
    186c:	09000013 	stmdbeq	r0, {r0, r1, r4}
    1870:	0e03000d 	cdpeq	0, 0, cr0, cr3, cr13, {0}
    1874:	0b3b0b3a 	bleq	ec4564 <__bss_end__+0xeba494>
    1878:	13490b39 	movtne	r0, #39737	; 0x9b39
    187c:	010a0000 	mrseq	r0, (UNDEF: 10)
    1880:	01134901 	tsteq	r3, r1, lsl #18
    1884:	0b000013 	bleq	18d8 <_start-0x6728>
    1888:	13490021 	movtne	r0, #36897	; 0x9021
    188c:	00000b2f 	andeq	r0, r0, pc, lsr #22
    1890:	0b01130c 	bleq	464c8 <__bss_end__+0x3c3f8>
    1894:	3b0b3a0b 	blcc	2d00c8 <__bss_end__+0x2c5ff8>
    1898:	010b390b 	tsteq	fp, fp, lsl #18
    189c:	0d000013 	stceq	0, cr0, [r0, #-76]	; 0xffffffb4
    18a0:	0e03000d 	cdpeq	0, 0, cr0, cr3, cr13, {0}
    18a4:	0b3b0b3a 	bleq	ec4594 <__bss_end__+0xeba4c4>
    18a8:	13490b39 	movtne	r0, #39737	; 0x9b39
    18ac:	00000b38 	andeq	r0, r0, r8, lsr fp
    18b0:	0b000f0e 	bleq	54f0 <_start-0x2b10>
    18b4:	0f00000b 	svceq	0x0000000b
    18b8:	13490026 	movtne	r0, #36902	; 0x9026
    18bc:	13100000 	tstne	r0, #0
    18c0:	0b0e0301 	bleq	3824cc <__bss_end__+0x3783fc>
    18c4:	3b0b3a0b 	blcc	2d00f8 <__bss_end__+0x2c6028>
    18c8:	010b390b 	tsteq	fp, fp, lsl #18
    18cc:	11000013 	tstne	r0, r3, lsl r0
    18d0:	0803000d 	stmdaeq	r3, {r0, r2, r3}
    18d4:	0b3b0b3a 	bleq	ec45c4 <__bss_end__+0xeba4f4>
    18d8:	13490b39 	movtne	r0, #39737	; 0x9b39
    18dc:	00000b38 	andeq	r0, r0, r8, lsr fp
    18e0:	03011312 	movweq	r1, #4882	; 0x1312
    18e4:	3a050b0e 	bcc	144524 <__bss_end__+0x13a454>
    18e8:	390b3b0b 	stmdbcc	fp, {r0, r1, r3, r8, r9, fp, ip, sp}
    18ec:	0013010b 	andseq	r0, r3, fp, lsl #2
    18f0:	000d1300 	andeq	r1, sp, r0, lsl #6
    18f4:	0b3a0e03 	bleq	e85108 <__bss_end__+0xe7b038>
    18f8:	0b390b3b 	bleq	e445ec <__bss_end__+0xe3a51c>
    18fc:	05381349 	ldreq	r1, [r8, #-841]!	; 0xfffffcb7
    1900:	15140000 	ldrne	r0, [r4, #-0]
    1904:	00192700 	andseq	r2, r9, r0, lsl #14
    1908:	01151500 	tsteq	r5, r0, lsl #10
    190c:	13491927 	movtne	r1, #39207	; 0x9927
    1910:	00001301 	andeq	r1, r0, r1, lsl #6
    1914:	49000516 	stmdbmi	r0, {r1, r2, r4, r8, sl}
    1918:	17000013 	smladne	r0, r3, r0, r0
    191c:	0e030113 	mcreq	1, 0, r0, cr3, cr3, {0}
    1920:	0b3a050b 	bleq	e82d54 <__bss_end__+0xe78c84>
    1924:	0b39053b 	bleq	e42e18 <__bss_end__+0xe38d48>
    1928:	00001301 	andeq	r1, r0, r1, lsl #6
    192c:	03000d18 	movweq	r0, #3352	; 0xd18
    1930:	3b0b3a0e 	blcc	2d0170 <__bss_end__+0x2c60a0>
    1934:	490b3905 	stmdbmi	fp, {r0, r2, r8, fp, ip, sp}
    1938:	000b3813 	andeq	r3, fp, r3, lsl r8
    193c:	000d1900 	andeq	r1, sp, r0, lsl #18
    1940:	0b3a0e03 	bleq	e85154 <__bss_end__+0xe7b084>
    1944:	0b39053b 	bleq	e42e38 <__bss_end__+0xe38d68>
    1948:	05381349 	ldreq	r1, [r8, #-841]!	; 0xfffffcb7
    194c:	131a0000 	tstne	sl, #0
    1950:	0b0e0301 	bleq	38255c <__bss_end__+0x37848c>
    1954:	3b0b3a0b 	blcc	2d0188 <__bss_end__+0x2c60b8>
    1958:	010b3905 	tsteq	fp, r5, lsl #18
    195c:	1b000013 	blne	19b0 <_start-0x6650>
    1960:	0b0b0113 	bleq	2c1db4 <__bss_end__+0x2b7ce4>
    1964:	053b0b3a 	ldreq	r0, [fp, #-2874]!	; 0xfffff4c6
    1968:	13010b39 	movwne	r0, #6969	; 0x1b39
    196c:	171c0000 	ldrne	r0, [ip, -r0]
    1970:	3a0b0b01 	bcc	2c457c <__bss_end__+0x2ba4ac>
    1974:	39053b0b 	stmdbcc	r5, {r0, r1, r3, r8, r9, fp, ip, sp}
    1978:	0013010b 	andseq	r0, r3, fp, lsl #2
    197c:	000d1d00 	andeq	r1, sp, r0, lsl #26
    1980:	0b3a0e03 	bleq	e85194 <__bss_end__+0xe7b0c4>
    1984:	0b39053b 	bleq	e42e78 <__bss_end__+0xe38da8>
    1988:	00001349 	andeq	r1, r0, r9, asr #6
    198c:	2701151e 	smladcs	r1, lr, r5, r1
    1990:	00130119 	andseq	r0, r3, r9, lsl r1
    1994:	00341f00 	eorseq	r1, r4, r0, lsl #30
    1998:	0b3a0e03 	bleq	e851ac <__bss_end__+0xe7b0dc>
    199c:	0b39053b 	bleq	e42e90 <__bss_end__+0xe38dc0>
    19a0:	193f1349 	ldmdbne	pc!, {r0, r3, r6, r8, r9, ip}	; <UNPREDICTABLE>
    19a4:	0000193c 	andeq	r1, r0, ip, lsr r9
    19a8:	03003420 	movweq	r3, #1056	; 0x420
    19ac:	3b0b3a0e 	blcc	2d01ec <__bss_end__+0x2c611c>
    19b0:	490b390b 	stmdbmi	fp, {r0, r1, r3, r8, fp, ip, sp}
    19b4:	3c193f13 	ldccc	15, cr3, [r9], {19}
    19b8:	21000019 	tstcs	r0, r9, lsl r0
    19bc:	193f012e 	ldmdbne	pc!, {r1, r2, r3, r5, r8}	; <UNPREDICTABLE>
    19c0:	0b3a0e03 	bleq	e851d4 <__bss_end__+0xe7b104>
    19c4:	0b390b3b 	bleq	e446b8 <__bss_end__+0xe3a5e8>
    19c8:	06120111 			; <UNDEFINED> instruction: 0x06120111
    19cc:	42971840 	addsmi	r1, r7, #64, 16	; 0x400000
    19d0:	00130119 	andseq	r0, r3, r9, lsl r1
    19d4:	002e2200 	eoreq	r2, lr, r0, lsl #4
    19d8:	0e03193f 			; <UNDEFINED> instruction: 0x0e03193f
    19dc:	0b3b0b3a 	bleq	ec46cc <__bss_end__+0xeba5fc>
    19e0:	19270b39 	stmdbne	r7!, {r0, r3, r4, r5, r8, r9, fp}
    19e4:	0000193c 	andeq	r1, r0, ip, lsr r9
    19e8:	03003423 	movweq	r3, #1059	; 0x423
    19ec:	3b0b3a08 	blcc	2d0214 <__bss_end__+0x2c6144>
    19f0:	490b390b 	stmdbmi	fp, {r0, r1, r3, r8, fp, ip, sp}
    19f4:	b7170213 			; <UNDEFINED> instruction: 0xb7170213
    19f8:	00001742 	andeq	r1, r0, r2, asr #14
    19fc:	03003424 	movweq	r3, #1060	; 0x424
    1a00:	3b0b3a0e 	blcc	2d0240 <__bss_end__+0x2c6170>
    1a04:	490b390b 	stmdbmi	fp, {r0, r1, r3, r8, fp, ip, sp}
    1a08:	25000013 	strcs	r0, [r0, #-19]	; 0xffffffed
    1a0c:	00018289 	andeq	r8, r1, r9, lsl #5
    1a10:	13310111 	teqne	r1, #1073741828	; 0x40000004
    1a14:	2e260000 	cdpcs	0, 2, cr0, cr6, cr0, {0}
    1a18:	3c193f00 	ldccc	15, cr3, [r9], {-0}
    1a1c:	030e6e19 	movweq	r6, #60953	; 0xee19
    1a20:	3b0b3a0e 	blcc	2d0260 <__bss_end__+0x2c6190>
    1a24:	000b390b 	andeq	r3, fp, fp, lsl #18
    1a28:	11010000 	mrsne	r0, (UNDEF: 1)
    1a2c:	130e2501 	movwne	r2, #58625	; 0xe501
    1a30:	1b0e030b 	blne	382664 <__bss_end__+0x378594>
    1a34:	1117550e 	tstne	r7, lr, lsl #10
    1a38:	00171001 	andseq	r1, r7, r1
    1a3c:	00240200 	eoreq	r0, r4, r0, lsl #4
    1a40:	0b3e0b0b 	bleq	f84674 <__bss_end__+0xf7a5a4>
    1a44:	00000803 	andeq	r0, r0, r3, lsl #16
    1a48:	49002603 	stmdbmi	r0, {r0, r1, r9, sl, sp}
    1a4c:	04000013 	streq	r0, [r0], #-19	; 0xffffffed
    1a50:	0b0b0024 	bleq	2c1ae8 <__bss_end__+0x2b7a18>
    1a54:	0e030b3e 	vmoveq.16	d3[0], r0
    1a58:	16050000 	strne	r0, [r5], -r0
    1a5c:	3a0e0300 	bcc	382664 <__bss_end__+0x378594>
    1a60:	390b3b0b 	stmdbcc	fp, {r0, r1, r3, r8, r9, fp, ip, sp}
    1a64:	0013490b 	andseq	r4, r3, fp, lsl #18
    1a68:	000f0600 	andeq	r0, pc, r0, lsl #12
    1a6c:	13490b0b 	movtne	r0, #39691	; 0x9b0b
    1a70:	13070000 	movwne	r0, #28672	; 0x7000
    1a74:	3c0e0300 	stccc	3, cr0, [lr], {-0}
    1a78:	08000019 	stmdaeq	r0, {r0, r3, r4}
    1a7c:	0e030016 	mcreq	0, 0, r0, cr3, cr6, {0}
    1a80:	053b0b3a 	ldreq	r0, [fp, #-2874]!	; 0xfffff4c6
    1a84:	13490b39 	movtne	r0, #39737	; 0x9b39
    1a88:	17090000 	strne	r0, [r9, -r0]
    1a8c:	3a0b0b01 	bcc	2c4698 <__bss_end__+0x2ba5c8>
    1a90:	390b3b0b 	stmdbcc	fp, {r0, r1, r3, r8, r9, fp, ip, sp}
    1a94:	0013010b 	andseq	r0, r3, fp, lsl #2
    1a98:	000d0a00 	andeq	r0, sp, r0, lsl #20
    1a9c:	0b3a0e03 	bleq	e852b0 <__bss_end__+0xe7b1e0>
    1aa0:	0b390b3b 	bleq	e44794 <__bss_end__+0xe3a6c4>
    1aa4:	00001349 	andeq	r1, r0, r9, asr #6
    1aa8:	4901010b 	stmdbmi	r1, {r0, r1, r3, r8}
    1aac:	00130113 	andseq	r0, r3, r3, lsl r1
    1ab0:	00210c00 	eoreq	r0, r1, r0, lsl #24
    1ab4:	0b2f1349 	bleq	bc67e0 <__bss_end__+0xbbc710>
    1ab8:	130d0000 	movwne	r0, #53248	; 0xd000
    1abc:	3a0b0b01 	bcc	2c46c8 <__bss_end__+0x2ba5f8>
    1ac0:	390b3b0b 	stmdbcc	fp, {r0, r1, r3, r8, r9, fp, ip, sp}
    1ac4:	0013010b 	andseq	r0, r3, fp, lsl #2
    1ac8:	000d0e00 	andeq	r0, sp, r0, lsl #28
    1acc:	0b3a0e03 	bleq	e852e0 <__bss_end__+0xe7b210>
    1ad0:	0b390b3b 	bleq	e447c4 <__bss_end__+0xe3a6f4>
    1ad4:	0b381349 	bleq	e06800 <__bss_end__+0xdfc730>
    1ad8:	0f0f0000 	svceq	0x000f0000
    1adc:	000b0b00 	andeq	r0, fp, r0, lsl #22
    1ae0:	01131000 	tsteq	r3, r0
    1ae4:	0b0b0e03 	bleq	2c52f8 <__bss_end__+0x2bb228>
    1ae8:	0b3b0b3a 	bleq	ec47d8 <__bss_end__+0xeba708>
    1aec:	13010b39 	movwne	r0, #6969	; 0x1b39
    1af0:	0d110000 	ldceq	0, cr0, [r1, #-0]
    1af4:	3a080300 	bcc	2026fc <__bss_end__+0x1f862c>
    1af8:	390b3b0b 	stmdbcc	fp, {r0, r1, r3, r8, r9, fp, ip, sp}
    1afc:	3813490b 	ldmdacc	r3, {r0, r1, r3, r8, fp, lr}
    1b00:	1200000b 	andne	r0, r0, #11
    1b04:	0e030113 	mcreq	1, 0, r0, cr3, cr3, {0}
    1b08:	0b3a050b 	bleq	e82f3c <__bss_end__+0xe78e6c>
    1b0c:	0b390b3b 	bleq	e44800 <__bss_end__+0xe3a730>
    1b10:	00001301 	andeq	r1, r0, r1, lsl #6
    1b14:	03000d13 	movweq	r0, #3347	; 0xd13
    1b18:	3b0b3a0e 	blcc	2d0358 <__bss_end__+0x2c6288>
    1b1c:	490b390b 	stmdbmi	fp, {r0, r1, r3, r8, fp, ip, sp}
    1b20:	00053813 	andeq	r3, r5, r3, lsl r8
    1b24:	00151400 	andseq	r1, r5, r0, lsl #8
    1b28:	00001927 	andeq	r1, r0, r7, lsr #18
    1b2c:	27011515 	smladcs	r1, r5, r5, r1
    1b30:	01134919 	tsteq	r3, r9, lsl r9
    1b34:	16000013 			; <UNDEFINED> instruction: 0x16000013
    1b38:	13490005 	movtne	r0, #36869	; 0x9005
    1b3c:	13170000 	tstne	r7, #0
    1b40:	0b0e0301 	bleq	38274c <__bss_end__+0x37867c>
    1b44:	3b0b3a05 	blcc	2d0360 <__bss_end__+0x2c6290>
    1b48:	010b3905 	tsteq	fp, r5, lsl #18
    1b4c:	18000013 	stmdane	r0, {r0, r1, r4}
    1b50:	0e03000d 	cdpeq	0, 0, cr0, cr3, cr13, {0}
    1b54:	053b0b3a 	ldreq	r0, [fp, #-2874]!	; 0xfffff4c6
    1b58:	13490b39 	movtne	r0, #39737	; 0x9b39
    1b5c:	00000b38 	andeq	r0, r0, r8, lsr fp
    1b60:	03000d19 	movweq	r0, #3353	; 0xd19
    1b64:	3b0b3a0e 	blcc	2d03a4 <__bss_end__+0x2c62d4>
    1b68:	490b3905 	stmdbmi	fp, {r0, r2, r8, fp, ip, sp}
    1b6c:	00053813 	andeq	r3, r5, r3, lsl r8
    1b70:	01131a00 	tsteq	r3, r0, lsl #20
    1b74:	0b0b0e03 	bleq	2c5388 <__bss_end__+0x2bb2b8>
    1b78:	053b0b3a 	ldreq	r0, [fp, #-2874]!	; 0xfffff4c6
    1b7c:	13010b39 	movwne	r0, #6969	; 0x1b39
    1b80:	131b0000 	tstne	fp, #0
    1b84:	3a0b0b01 	bcc	2c4790 <__bss_end__+0x2ba6c0>
    1b88:	39053b0b 	stmdbcc	r5, {r0, r1, r3, r8, r9, fp, ip, sp}
    1b8c:	0013010b 	andseq	r0, r3, fp, lsl #2
    1b90:	01171c00 	tsteq	r7, r0, lsl #24
    1b94:	0b3a0b0b 	bleq	e847c8 <__bss_end__+0xe7a6f8>
    1b98:	0b39053b 	bleq	e4308c <__bss_end__+0xe38fbc>
    1b9c:	00001301 	andeq	r1, r0, r1, lsl #6
    1ba0:	03000d1d 	movweq	r0, #3357	; 0xd1d
    1ba4:	3b0b3a0e 	blcc	2d03e4 <__bss_end__+0x2c6314>
    1ba8:	490b3905 	stmdbmi	fp, {r0, r2, r8, fp, ip, sp}
    1bac:	1e000013 	mcrne	0, 0, r0, cr0, cr3, {0}
    1bb0:	19270115 	stmdbne	r7!, {r0, r2, r4, r8}
    1bb4:	00001301 	andeq	r1, r0, r1, lsl #6
    1bb8:	0300341f 	movweq	r3, #1055	; 0x41f
    1bbc:	3b0b3a0e 	blcc	2d03fc <__bss_end__+0x2c632c>
    1bc0:	490b3905 	stmdbmi	fp, {r0, r2, r8, fp, ip, sp}
    1bc4:	3c193f13 	ldccc	15, cr3, [r9], {19}
    1bc8:	20000019 	andcs	r0, r0, r9, lsl r0
    1bcc:	0e030034 	mcreq	0, 0, r0, cr3, cr4, {1}
    1bd0:	0b3b0b3a 	bleq	ec48c0 <__bss_end__+0xeba7f0>
    1bd4:	13490b39 	movtne	r0, #39737	; 0x9b39
    1bd8:	193c193f 	ldmdbne	ip!, {r0, r1, r2, r3, r4, r5, r8, fp, ip}
    1bdc:	34210000 	strtcc	r0, [r1], #-0
    1be0:	3a0e0300 	bcc	3827e8 <__bss_end__+0x378718>
    1be4:	390b3b0b 	stmdbcc	fp, {r0, r1, r3, r8, r9, fp, ip, sp}
    1be8:	0013490b 	andseq	r4, r3, fp, lsl #18
    1bec:	012e2200 			; <UNDEFINED> instruction: 0x012e2200
    1bf0:	0e03193f 			; <UNDEFINED> instruction: 0x0e03193f
    1bf4:	0b3b0b3a 	bleq	ec48e4 <__bss_end__+0xeba814>
    1bf8:	19270b39 	stmdbne	r7!, {r0, r3, r4, r5, r8, r9, fp}
    1bfc:	11190187 	tstne	r9, r7, lsl #3
    1c00:	40061201 	andmi	r1, r6, r1, lsl #4
    1c04:	19429718 	stmdbne	r2, {r3, r4, r8, r9, sl, ip, pc}^
    1c08:	00001301 	andeq	r1, r0, r1, lsl #6
    1c0c:	03003423 	movweq	r3, #1059	; 0x423
    1c10:	3b0b3a0e 	blcc	2d0450 <__bss_end__+0x2c6380>
    1c14:	490b390b 	stmdbmi	fp, {r0, r1, r3, r8, fp, ip, sp}
    1c18:	b7170213 			; <UNDEFINED> instruction: 0xb7170213
    1c1c:	00001742 	andeq	r1, r0, r2, asr #14
    1c20:	01828924 	orreq	r8, r2, r4, lsr #18
    1c24:	31011100 	mrscc	r1, (UNDEF: 17)
    1c28:	25000013 	strcs	r0, [r0, #-19]	; 0xffffffed
    1c2c:	01018289 	smlabbeq	r1, r9, r2, r8
    1c30:	13310111 	teqne	r1, #1073741828	; 0x40000004
    1c34:	00001301 	andeq	r1, r0, r1, lsl #6
    1c38:	01828a26 	orreq	r8, r2, r6, lsr #20
    1c3c:	91180200 	tstls	r8, r0, lsl #4
    1c40:	00001842 	andeq	r1, r0, r2, asr #16
    1c44:	3f012e27 	svccc	0x00012e27
    1c48:	3a0e0319 	bcc	3828b4 <__bss_end__+0x3787e4>
    1c4c:	390b3b0b 	stmdbcc	fp, {r0, r1, r3, r8, r9, fp, ip, sp}
    1c50:	1119270b 	tstne	r9, fp, lsl #14
    1c54:	40061201 	andmi	r1, r6, r1, lsl #4
    1c58:	19429718 	stmdbne	r2, {r3, r4, r8, r9, sl, ip, pc}^
    1c5c:	00001301 	andeq	r1, r0, r1, lsl #6
    1c60:	3f012e28 	svccc	0x00012e28
    1c64:	3a0e0319 	bcc	3828d0 <__bss_end__+0x378800>
    1c68:	390b3b0b 	stmdbcc	fp, {r0, r1, r3, r8, r9, fp, ip, sp}
    1c6c:	4919270b 	ldmdbmi	r9, {r0, r1, r3, r8, r9, sl, sp}
    1c70:	12011113 	andne	r1, r1, #-1073741820	; 0xc0000004
    1c74:	97184006 	ldrls	r4, [r8, -r6]
    1c78:	13011942 	movwne	r1, #6466	; 0x1942
    1c7c:	2e290000 	cdpcs	0, 2, cr0, cr9, cr0, {0}
    1c80:	3c193f00 	ldccc	15, cr3, [r9], {-0}
    1c84:	030e6e19 	movweq	r6, #60953	; 0xee19
    1c88:	3b0b3a0e 	blcc	2d04c8 <__bss_end__+0x2c63f8>
    1c8c:	000b390b 	andeq	r3, fp, fp, lsl #18
    1c90:	11010000 	mrsne	r0, (UNDEF: 1)
    1c94:	130e2501 	movwne	r2, #58625	; 0xe501
    1c98:	1b0e030b 	blne	3828cc <__bss_end__+0x3787fc>
    1c9c:	1201110e 	andne	r1, r1, #-2147483645	; 0x80000003
    1ca0:	00171006 	andseq	r1, r7, r6
    1ca4:	00240200 	eoreq	r0, r4, r0, lsl #4
    1ca8:	0b3e0b0b 	bleq	f848dc <__bss_end__+0xf7a80c>
    1cac:	00000803 	andeq	r0, r0, r3, lsl #16
    1cb0:	0b002403 	bleq	acc4 <__bss_end__+0xbf4>
    1cb4:	030b3e0b 	movweq	r3, #48651	; 0xbe0b
    1cb8:	0400000e 	streq	r0, [r0], #-14
    1cbc:	0e030016 	mcreq	0, 0, r0, cr3, cr6, {0}
    1cc0:	0b3b0b3a 	bleq	ec49b0 <__bss_end__+0xeba8e0>
    1cc4:	13490b39 	movtne	r0, #39737	; 0x9b39
    1cc8:	0f050000 	svceq	0x00050000
    1ccc:	490b0b00 	stmdbmi	fp, {r8, r9, fp}
    1cd0:	06000013 			; <UNDEFINED> instruction: 0x06000013
    1cd4:	0e030013 	mcreq	0, 0, r0, cr3, cr3, {0}
    1cd8:	0000193c 	andeq	r1, r0, ip, lsr r9
    1cdc:	03001607 	movweq	r1, #1543	; 0x607
    1ce0:	3b0b3a0e 	blcc	2d0520 <__bss_end__+0x2c6450>
    1ce4:	490b3905 	stmdbmi	fp, {r0, r2, r8, fp, ip, sp}
    1ce8:	08000013 	stmdaeq	r0, {r0, r1, r4}
    1cec:	0b0b0117 	bleq	2c2150 <__bss_end__+0x2b8080>
    1cf0:	0b3b0b3a 	bleq	ec49e0 <__bss_end__+0xeba910>
    1cf4:	13010b39 	movwne	r0, #6969	; 0x1b39
    1cf8:	0d090000 	stceq	0, cr0, [r9, #-0]
    1cfc:	3a0e0300 	bcc	382904 <__bss_end__+0x378834>
    1d00:	390b3b0b 	stmdbcc	fp, {r0, r1, r3, r8, r9, fp, ip, sp}
    1d04:	0013490b 	andseq	r4, r3, fp, lsl #18
    1d08:	01010a00 	tsteq	r1, r0, lsl #20
    1d0c:	13011349 	movwne	r1, #4937	; 0x1349
    1d10:	210b0000 	mrscs	r0, (UNDEF: 11)
    1d14:	2f134900 	svccs	0x00134900
    1d18:	0c00000b 	stceq	0, cr0, [r0], {11}
    1d1c:	0b0b0113 	bleq	2c2170 <__bss_end__+0x2b80a0>
    1d20:	0b3b0b3a 	bleq	ec4a10 <__bss_end__+0xeba940>
    1d24:	13010b39 	movwne	r0, #6969	; 0x1b39
    1d28:	0d0d0000 	stceq	0, cr0, [sp, #-0]
    1d2c:	3a0e0300 	bcc	382934 <__bss_end__+0x378864>
    1d30:	390b3b0b 	stmdbcc	fp, {r0, r1, r3, r8, r9, fp, ip, sp}
    1d34:	3813490b 	ldmdacc	r3, {r0, r1, r3, r8, fp, lr}
    1d38:	0e00000b 	cdpeq	0, 0, cr0, cr0, cr11, {0}
    1d3c:	0b0b000f 	bleq	2c1d80 <__bss_end__+0x2b7cb0>
    1d40:	260f0000 	strcs	r0, [pc], -r0
    1d44:	00134900 	andseq	r4, r3, r0, lsl #18
    1d48:	01131000 	tsteq	r3, r0
    1d4c:	0b0b0e03 	bleq	2c5560 <__bss_end__+0x2bb490>
    1d50:	0b3b0b3a 	bleq	ec4a40 <__bss_end__+0xeba970>
    1d54:	13010b39 	movwne	r0, #6969	; 0x1b39
    1d58:	0d110000 	ldceq	0, cr0, [r1, #-0]
    1d5c:	3a080300 	bcc	202964 <__bss_end__+0x1f8894>
    1d60:	390b3b0b 	stmdbcc	fp, {r0, r1, r3, r8, r9, fp, ip, sp}
    1d64:	3813490b 	ldmdacc	r3, {r0, r1, r3, r8, fp, lr}
    1d68:	1200000b 	andne	r0, r0, #11
    1d6c:	0e030113 	mcreq	1, 0, r0, cr3, cr3, {0}
    1d70:	0b3a050b 	bleq	e831a4 <__bss_end__+0xe790d4>
    1d74:	0b390b3b 	bleq	e44a68 <__bss_end__+0xe3a998>
    1d78:	00001301 	andeq	r1, r0, r1, lsl #6
    1d7c:	03000d13 	movweq	r0, #3347	; 0xd13
    1d80:	3b0b3a0e 	blcc	2d05c0 <__bss_end__+0x2c64f0>
    1d84:	490b390b 	stmdbmi	fp, {r0, r1, r3, r8, fp, ip, sp}
    1d88:	00053813 	andeq	r3, r5, r3, lsl r8
    1d8c:	00151400 	andseq	r1, r5, r0, lsl #8
    1d90:	00001927 	andeq	r1, r0, r7, lsr #18
    1d94:	27011515 	smladcs	r1, r5, r5, r1
    1d98:	01134919 	tsteq	r3, r9, lsl r9
    1d9c:	16000013 			; <UNDEFINED> instruction: 0x16000013
    1da0:	13490005 	movtne	r0, #36869	; 0x9005
    1da4:	13170000 	tstne	r7, #0
    1da8:	0b0e0301 	bleq	3829b4 <__bss_end__+0x3788e4>
    1dac:	3b0b3a05 	blcc	2d05c8 <__bss_end__+0x2c64f8>
    1db0:	010b3905 	tsteq	fp, r5, lsl #18
    1db4:	18000013 	stmdane	r0, {r0, r1, r4}
    1db8:	0e03000d 	cdpeq	0, 0, cr0, cr3, cr13, {0}
    1dbc:	053b0b3a 	ldreq	r0, [fp, #-2874]!	; 0xfffff4c6
    1dc0:	13490b39 	movtne	r0, #39737	; 0x9b39
    1dc4:	00000b38 	andeq	r0, r0, r8, lsr fp
    1dc8:	03000d19 	movweq	r0, #3353	; 0xd19
    1dcc:	3b0b3a0e 	blcc	2d060c <__bss_end__+0x2c653c>
    1dd0:	490b3905 	stmdbmi	fp, {r0, r2, r8, fp, ip, sp}
    1dd4:	00053813 	andeq	r3, r5, r3, lsl r8
    1dd8:	01131a00 	tsteq	r3, r0, lsl #20
    1ddc:	0b0b0e03 	bleq	2c55f0 <__bss_end__+0x2bb520>
    1de0:	053b0b3a 	ldreq	r0, [fp, #-2874]!	; 0xfffff4c6
    1de4:	13010b39 	movwne	r0, #6969	; 0x1b39
    1de8:	131b0000 	tstne	fp, #0
    1dec:	3a0b0b01 	bcc	2c49f8 <__bss_end__+0x2ba928>
    1df0:	39053b0b 	stmdbcc	r5, {r0, r1, r3, r8, r9, fp, ip, sp}
    1df4:	0013010b 	andseq	r0, r3, fp, lsl #2
    1df8:	01171c00 	tsteq	r7, r0, lsl #24
    1dfc:	0b3a0b0b 	bleq	e84a30 <__bss_end__+0xe7a960>
    1e00:	0b39053b 	bleq	e432f4 <__bss_end__+0xe39224>
    1e04:	00001301 	andeq	r1, r0, r1, lsl #6
    1e08:	03000d1d 	movweq	r0, #3357	; 0xd1d
    1e0c:	3b0b3a0e 	blcc	2d064c <__bss_end__+0x2c657c>
    1e10:	490b3905 	stmdbmi	fp, {r0, r2, r8, fp, ip, sp}
    1e14:	1e000013 	mcrne	0, 0, r0, cr0, cr3, {0}
    1e18:	19270115 	stmdbne	r7!, {r0, r2, r4, r8}
    1e1c:	00001301 	andeq	r1, r0, r1, lsl #6
    1e20:	0300341f 	movweq	r3, #1055	; 0x41f
    1e24:	3b0b3a0e 	blcc	2d0664 <__bss_end__+0x2c6594>
    1e28:	490b3905 	stmdbmi	fp, {r0, r2, r8, fp, ip, sp}
    1e2c:	3c193f13 	ldccc	15, cr3, [r9], {19}
    1e30:	20000019 	andcs	r0, r0, r9, lsl r0
    1e34:	0e030034 	mcreq	0, 0, r0, cr3, cr4, {1}
    1e38:	0b3b0b3a 	bleq	ec4b28 <__bss_end__+0xebaa58>
    1e3c:	13490b39 	movtne	r0, #39737	; 0x9b39
    1e40:	193c193f 	ldmdbne	ip!, {r0, r1, r2, r3, r4, r5, r8, fp, ip}
    1e44:	2e210000 	cdpcs	0, 2, cr0, cr1, cr0, {0}
    1e48:	03193f01 	tsteq	r9, #1, 30
    1e4c:	3b0b3a0e 	blcc	2d068c <__bss_end__+0x2c65bc>
    1e50:	270b390b 	strcs	r3, [fp, -fp, lsl #18]
    1e54:	12011119 	andne	r1, r1, #1073741830	; 0x40000006
    1e58:	97184006 	ldrls	r4, [r8, -r6]
    1e5c:	13011942 	movwne	r1, #6466	; 0x1942
    1e60:	05220000 	streq	r0, [r2, #-0]!
    1e64:	3a080300 	bcc	202a6c <__bss_end__+0x1f899c>
    1e68:	390b3b0b 	stmdbcc	fp, {r0, r1, r3, r8, r9, fp, ip, sp}
    1e6c:	0213490b 	andseq	r4, r3, #180224	; 0x2c000
    1e70:	1742b717 	smlaldne	fp, r2, r7, r7
    1e74:	89230000 	stmdbhi	r3!, {}	; <UNPREDICTABLE>
    1e78:	11010182 	smlabbne	r1, r2, r1, r0
    1e7c:	00133101 	andseq	r3, r3, r1, lsl #2
    1e80:	828a2400 	addhi	r2, sl, #0, 8
    1e84:	18020001 	stmdane	r2, {r0}
    1e88:	00184291 	mulseq	r8, r1, r2
    1e8c:	00342500 	eorseq	r2, r4, r0, lsl #10
    1e90:	0b3a0803 	bleq	e83ea4 <__bss_end__+0xe79dd4>
    1e94:	0b390b3b 	bleq	e44b88 <__bss_end__+0xe3aab8>
    1e98:	17021349 	strne	r1, [r2, -r9, asr #6]
    1e9c:	001742b7 			; <UNDEFINED> instruction: 0x001742b7
    1ea0:	010b2600 	tsteq	fp, r0, lsl #12
    1ea4:	06120111 			; <UNDEFINED> instruction: 0x06120111
    1ea8:	00001301 	andeq	r1, r0, r1, lsl #6
    1eac:	01828927 	orreq	r8, r2, r7, lsr #18
    1eb0:	31011100 	mrscc	r1, (UNDEF: 17)
    1eb4:	28000013 	stmdacs	r0, {r0, r1, r4}
    1eb8:	193f012e 	ldmdbne	pc!, {r1, r2, r3, r5, r8}	; <UNPREDICTABLE>
    1ebc:	0b3a0e03 	bleq	e856d0 <__bss_end__+0xe7b600>
    1ec0:	0b390b3b 	bleq	e44bb4 <__bss_end__+0xe3aae4>
    1ec4:	13491927 	movtne	r1, #39207	; 0x9927
    1ec8:	06120111 			; <UNDEFINED> instruction: 0x06120111
    1ecc:	42971840 	addsmi	r1, r7, #64, 16	; 0x400000
    1ed0:	00130119 	andseq	r0, r3, r9, lsl r1
    1ed4:	00052900 	andeq	r2, r5, r0, lsl #18
    1ed8:	0b3a0e03 	bleq	e856ec <__bss_end__+0xe7b61c>
    1edc:	0b390b3b 	bleq	e44bd0 <__bss_end__+0xe3ab00>
    1ee0:	17021349 	strne	r1, [r2, -r9, asr #6]
    1ee4:	001742b7 			; <UNDEFINED> instruction: 0x001742b7
    1ee8:	002e2a00 	eoreq	r2, lr, r0, lsl #20
    1eec:	193c193f 	ldmdbne	ip!, {r0, r1, r2, r3, r4, r5, r8, fp, ip}
    1ef0:	0e030e6e 	cdpeq	14, 0, cr0, cr3, cr14, {3}
    1ef4:	0b3b0b3a 	bleq	ec4be4 <__bss_end__+0xebab14>
    1ef8:	00000b39 	andeq	r0, r0, r9, lsr fp
    1efc:	01110100 	tsteq	r1, r0, lsl #2
    1f00:	0b130e25 	bleq	4c579c <__bss_end__+0x4bb6cc>
    1f04:	0e1b0e03 	cdpeq	14, 1, cr0, cr11, cr3, {0}
    1f08:	06120111 			; <UNDEFINED> instruction: 0x06120111
    1f0c:	00001710 	andeq	r1, r0, r0, lsl r7
    1f10:	0b002402 	bleq	af20 <__bss_end__+0xe50>
    1f14:	030b3e0b 	movweq	r3, #48651	; 0xbe0b
    1f18:	03000008 	movweq	r0, #8
    1f1c:	0b0b0024 	bleq	2c1fb4 <__bss_end__+0x2b7ee4>
    1f20:	0e030b3e 	vmoveq.16	d3[0], r0
    1f24:	35040000 	strcc	r0, [r4, #-0]
    1f28:	00134900 	andseq	r4, r3, r0, lsl #18
    1f2c:	00160500 	andseq	r0, r6, r0, lsl #10
    1f30:	0b3a0e03 	bleq	e85744 <__bss_end__+0xe7b674>
    1f34:	13490b3b 	movtne	r0, #39739	; 0x9b3b
    1f38:	16060000 	strne	r0, [r6], -r0
    1f3c:	3a0e0300 	bcc	382b44 <__bss_end__+0x378a74>
    1f40:	49053b0b 	stmdbmi	r5, {r0, r1, r3, r8, r9, fp, ip, sp}
    1f44:	07000013 	smladeq	r0, r3, r0, r0
    1f48:	0b0b0117 	bleq	2c23ac <__bss_end__+0x2b82dc>
    1f4c:	0b3b0b3a 	bleq	ec4c3c <__bss_end__+0xebab6c>
    1f50:	00001301 	andeq	r1, r0, r1, lsl #6
    1f54:	03000d08 	movweq	r0, #3336	; 0xd08
    1f58:	3b0b3a0e 	blcc	2d0798 <__bss_end__+0x2c66c8>
    1f5c:	0013490b 	andseq	r4, r3, fp, lsl #18
    1f60:	01010900 	tsteq	r1, r0, lsl #18
    1f64:	13011349 	movwne	r1, #4937	; 0x1349
    1f68:	210a0000 	mrscs	r0, (UNDEF: 10)
    1f6c:	2f134900 	svccs	0x00134900
    1f70:	0b00000b 	bleq	1fa4 <_start-0x605c>
    1f74:	0b0b0113 	bleq	2c23c8 <__bss_end__+0x2b82f8>
    1f78:	0b3b0b3a 	bleq	ec4c68 <__bss_end__+0xebab98>
    1f7c:	00001301 	andeq	r1, r0, r1, lsl #6
    1f80:	03000d0c 	movweq	r0, #3340	; 0xd0c
    1f84:	3b0b3a0e 	blcc	2d07c4 <__bss_end__+0x2c66f4>
    1f88:	3813490b 	ldmdacc	r3, {r0, r1, r3, r8, fp, lr}
    1f8c:	0d00000b 	stceq	0, cr0, [r0, #-44]	; 0xffffffd4
    1f90:	0b0b000f 	bleq	2c1fd4 <__bss_end__+0x2b7f04>
    1f94:	0f0e0000 	svceq	0x000e0000
    1f98:	490b0b00 	stmdbmi	fp, {r8, r9, fp}
    1f9c:	0f000013 	svceq	0x00000013
    1fa0:	13490026 	movtne	r0, #36902	; 0x9026
    1fa4:	13100000 	tstne	r0, #0
    1fa8:	0b0e0301 	bleq	382bb4 <__bss_end__+0x378ae4>
    1fac:	3b0b3a0b 	blcc	2d07e0 <__bss_end__+0x2c6710>
    1fb0:	0013010b 	andseq	r0, r3, fp, lsl #2
    1fb4:	000d1100 	andeq	r1, sp, r0, lsl #2
    1fb8:	0b3a0803 	bleq	e83fcc <__bss_end__+0xe79efc>
    1fbc:	13490b3b 	movtne	r0, #39739	; 0x9b3b
    1fc0:	00000b38 	andeq	r0, r0, r8, lsr fp
    1fc4:	03011312 	movweq	r1, #4882	; 0x1312
    1fc8:	3a050b0e 	bcc	144c08 <__bss_end__+0x13ab38>
    1fcc:	010b3b0b 	tsteq	fp, fp, lsl #22
    1fd0:	13000013 	movwne	r0, #19
    1fd4:	0e03000d 	cdpeq	0, 0, cr0, cr3, cr13, {0}
    1fd8:	0b3b0b3a 	bleq	ec4cc8 <__bss_end__+0xebabf8>
    1fdc:	05381349 	ldreq	r1, [r8, #-841]!	; 0xfffffcb7
    1fe0:	15140000 	ldrne	r0, [r4, #-0]
    1fe4:	00192700 	andseq	r2, r9, r0, lsl #14
    1fe8:	01151500 	tsteq	r5, r0, lsl #10
    1fec:	13491927 	movtne	r1, #39207	; 0x9927
    1ff0:	00001301 	andeq	r1, r0, r1, lsl #6
    1ff4:	49000516 	stmdbmi	r0, {r1, r2, r4, r8, sl}
    1ff8:	17000013 	smladne	r0, r3, r0, r0
    1ffc:	0e030113 	mcreq	1, 0, r0, cr3, cr3, {0}
    2000:	0b3a050b 	bleq	e83434 <__bss_end__+0xe79364>
    2004:	1301053b 	movwne	r0, #5435	; 0x153b
    2008:	0d180000 	ldceq	0, cr0, [r8, #-0]
    200c:	3a0e0300 	bcc	382c14 <__bss_end__+0x378b44>
    2010:	49053b0b 	stmdbmi	r5, {r0, r1, r3, r8, r9, fp, ip, sp}
    2014:	000b3813 	andeq	r3, fp, r3, lsl r8
    2018:	000d1900 	andeq	r1, sp, r0, lsl #18
    201c:	0b3a0e03 	bleq	e85830 <__bss_end__+0xe7b760>
    2020:	1349053b 	movtne	r0, #38203	; 0x953b
    2024:	00000538 	andeq	r0, r0, r8, lsr r5
    2028:	0301131a 	movweq	r1, #4890	; 0x131a
    202c:	3a0b0b0e 	bcc	2c4c6c <__bss_end__+0x2bab9c>
    2030:	01053b0b 	tsteq	r5, fp, lsl #22
    2034:	1b000013 	blne	2088 <_start-0x5f78>
    2038:	0b0b0113 	bleq	2c248c <__bss_end__+0x2b83bc>
    203c:	053b0b3a 	ldreq	r0, [fp, #-2874]!	; 0xfffff4c6
    2040:	00001301 	andeq	r1, r0, r1, lsl #6
    2044:	0b01171c 	bleq	47cbc <__bss_end__+0x3dbec>
    2048:	3b0b3a0b 	blcc	2d087c <__bss_end__+0x2c67ac>
    204c:	00130105 	andseq	r0, r3, r5, lsl #2
    2050:	000d1d00 	andeq	r1, sp, r0, lsl #26
    2054:	0b3a0e03 	bleq	e85868 <__bss_end__+0xe7b798>
    2058:	1349053b 	movtne	r0, #38203	; 0x953b
    205c:	151e0000 	ldrne	r0, [lr, #-0]
    2060:	01192701 	tsteq	r9, r1, lsl #14
    2064:	1f000013 	svcne	0x00000013
    2068:	0e030034 	mcreq	0, 0, r0, cr3, cr4, {1}
    206c:	053b0b3a 	ldreq	r0, [fp, #-2874]!	; 0xfffff4c6
    2070:	193f1349 	ldmdbne	pc!, {r0, r3, r6, r8, r9, ip}	; <UNPREDICTABLE>
    2074:	0000193c 	andeq	r1, r0, ip, lsr r9
    2078:	03003420 	movweq	r3, #1056	; 0x420
    207c:	3b0b3a0e 	blcc	2d08bc <__bss_end__+0x2c67ec>
    2080:	3f13490b 	svccc	0x0013490b
    2084:	00193c19 	andseq	r3, r9, r9, lsl ip
    2088:	01042100 	mrseq	r2, (UNDEF: 20)
    208c:	13490b0b 	movtne	r0, #39691	; 0x9b0b
    2090:	0b3b0b3a 	bleq	ec4d80 <__bss_end__+0xebacb0>
    2094:	00001301 	andeq	r1, r0, r1, lsl #6
    2098:	03002822 	movweq	r2, #2082	; 0x822
    209c:	000b1c0e 	andeq	r1, fp, lr, lsl #24
    20a0:	00342300 	eorseq	r2, r4, r0, lsl #6
    20a4:	0b3a0e03 	bleq	e858b8 <__bss_end__+0xe7b7e8>
    20a8:	13490b3b 	movtne	r0, #39739	; 0x9b3b
    20ac:	0000061c 	andeq	r0, r0, ip, lsl r6
    20b0:	3f012e24 	svccc	0x00012e24
    20b4:	3a0e0319 	bcc	382d20 <__bss_end__+0x378c50>
    20b8:	270b3b0b 	strcs	r3, [fp, -fp, lsl #22]
    20bc:	11134919 	tstne	r3, r9, lsl r9
    20c0:	40061201 	andmi	r1, r6, r1, lsl #4
    20c4:	19429718 	stmdbne	r2, {r3, r4, r8, r9, sl, ip, pc}^
    20c8:	00001301 	andeq	r1, r0, r1, lsl #6
    20cc:	01828925 	orreq	r8, r2, r5, lsr #18
    20d0:	31011100 	mrscc	r1, (UNDEF: 17)
    20d4:	26000013 			; <UNDEFINED> instruction: 0x26000013
    20d8:	193f012e 	ldmdbne	pc!, {r1, r2, r3, r5, r8}	; <UNPREDICTABLE>
    20dc:	0b3a0e03 	bleq	e858f0 <__bss_end__+0xe7b820>
    20e0:	19270b3b 	stmdbne	r7!, {r0, r1, r3, r4, r5, r8, r9, fp}
    20e4:	06120111 			; <UNDEFINED> instruction: 0x06120111
    20e8:	42971840 	addsmi	r1, r7, #64, 16	; 0x400000
    20ec:	00130119 	andseq	r0, r3, r9, lsl r1
    20f0:	00052700 	andeq	r2, r5, r0, lsl #14
    20f4:	0b3a0803 	bleq	e84108 <__bss_end__+0xe7a038>
    20f8:	13490b3b 	movtne	r0, #39739	; 0x9b3b
    20fc:	00001702 	andeq	r1, r0, r2, lsl #14
    2100:	01828928 	orreq	r8, r2, r8, lsr #18
    2104:	31011101 	tstcc	r1, r1, lsl #2
    2108:	00130113 	andseq	r0, r3, r3, lsl r1
    210c:	828a2900 	addhi	r2, sl, #0, 18
    2110:	18020001 	stmdane	r2, {r0}
    2114:	00184291 	mulseq	r8, r1, r2
    2118:	00342a00 	eorseq	r2, r4, r0, lsl #20
    211c:	0b3a0803 	bleq	e84130 <__bss_end__+0xe7a060>
    2120:	13490b3b 	movtne	r0, #39739	; 0x9b3b
    2124:	00001802 	andeq	r1, r0, r2, lsl #16
    2128:	0182892b 	orreq	r8, r2, fp, lsr #18
    212c:	31011101 	tstcc	r1, r1, lsl #2
    2130:	2c000013 	stccs	0, cr0, [r0], {19}
    2134:	0e03012e 	adfeqsp	f0, f3, #0.5
    2138:	0b3b0b3a 	bleq	ec4e28 <__bss_end__+0xebad58>
    213c:	01111927 	tsteq	r1, r7, lsr #18
    2140:	18400612 	stmdane	r0, {r1, r4, r9, sl}^
    2144:	01194297 			; <UNDEFINED> instruction: 0x01194297
    2148:	2d000013 	stccs	0, cr0, [r0, #-76]	; 0xffffffb4
    214c:	0e030005 	cdpeq	0, 0, cr0, cr3, cr5, {0}
    2150:	0b3b0b3a 	bleq	ec4e40 <__bss_end__+0xebad70>
    2154:	17021349 	strne	r1, [r2, -r9, asr #6]
    2158:	352e0000 	strcc	r0, [lr, #-0]!
    215c:	2f000000 	svccs	0x00000000
    2160:	193f002e 	ldmdbne	pc!, {r1, r2, r3, r5}	; <UNPREDICTABLE>
    2164:	0e6e193c 			; <UNDEFINED> instruction: 0x0e6e193c
    2168:	0b3a0e03 	bleq	e8597c <__bss_end__+0xe7b8ac>
    216c:	00000b3b 	andeq	r0, r0, fp, lsr fp
    2170:	01110100 	tsteq	r1, r0, lsl #2
    2174:	0b130e25 	bleq	4c5a10 <__bss_end__+0x4bb940>
    2178:	0e1b0e03 	cdpeq	14, 1, cr0, cr11, cr3, {0}
    217c:	06120111 			; <UNDEFINED> instruction: 0x06120111
    2180:	00001710 	andeq	r1, r0, r0, lsl r7
    2184:	0b002402 	bleq	b194 <__bss_end__+0x10c4>
    2188:	030b3e0b 	movweq	r3, #48651	; 0xbe0b
    218c:	03000008 	movweq	r0, #8
    2190:	0b0b0024 	bleq	2c2228 <__bss_end__+0x2b8158>
    2194:	0e030b3e 	vmoveq.16	d3[0], r0
    2198:	26040000 	strcs	r0, [r4], -r0
    219c:	00134900 	andseq	r4, r3, r0, lsl #18
    21a0:	00160500 	andseq	r0, r6, r0, lsl #10
    21a4:	0b3a0e03 	bleq	e859b8 <__bss_end__+0xe7b8e8>
    21a8:	13490b3b 	movtne	r0, #39739	; 0x9b3b
    21ac:	16060000 	strne	r0, [r6], -r0
    21b0:	3a0e0300 	bcc	382db8 <__bss_end__+0x378ce8>
    21b4:	49053b0b 	stmdbmi	r5, {r0, r1, r3, r8, r9, fp, ip, sp}
    21b8:	07000013 	smladeq	r0, r3, r0, r0
    21bc:	0b0b0117 	bleq	2c2620 <__bss_end__+0x2b8550>
    21c0:	0b3b0b3a 	bleq	ec4eb0 <__bss_end__+0xebade0>
    21c4:	00001301 	andeq	r1, r0, r1, lsl #6
    21c8:	03000d08 	movweq	r0, #3336	; 0xd08
    21cc:	3b0b3a0e 	blcc	2d0a0c <__bss_end__+0x2c693c>
    21d0:	0013490b 	andseq	r4, r3, fp, lsl #18
    21d4:	01010900 	tsteq	r1, r0, lsl #18
    21d8:	13011349 	movwne	r1, #4937	; 0x1349
    21dc:	210a0000 	mrscs	r0, (UNDEF: 10)
    21e0:	2f134900 	svccs	0x00134900
    21e4:	0b00000b 	bleq	2218 <_start-0x5de8>
    21e8:	0b0b0113 	bleq	2c263c <__bss_end__+0x2b856c>
    21ec:	0b3b0b3a 	bleq	ec4edc <__bss_end__+0xebae0c>
    21f0:	00001301 	andeq	r1, r0, r1, lsl #6
    21f4:	03000d0c 	movweq	r0, #3340	; 0xd0c
    21f8:	3b0b3a0e 	blcc	2d0a38 <__bss_end__+0x2c6968>
    21fc:	3813490b 	ldmdacc	r3, {r0, r1, r3, r8, fp, lr}
    2200:	0d00000b 	stceq	0, cr0, [r0, #-44]	; 0xffffffd4
    2204:	0b0b000f 	bleq	2c2248 <__bss_end__+0x2b8178>
    2208:	0f0e0000 	svceq	0x000e0000
    220c:	490b0b00 	stmdbmi	fp, {r8, r9, fp}
    2210:	0f000013 	svceq	0x00000013
    2214:	0e030113 	mcreq	1, 0, r0, cr3, cr3, {0}
    2218:	0b3a0b0b 	bleq	e84e4c <__bss_end__+0xe7ad7c>
    221c:	13010b3b 	movwne	r0, #6971	; 0x1b3b
    2220:	0d100000 	ldceq	0, cr0, [r0, #-0]
    2224:	3a080300 	bcc	202e2c <__bss_end__+0x1f8d5c>
    2228:	490b3b0b 	stmdbmi	fp, {r0, r1, r3, r8, r9, fp, ip, sp}
    222c:	000b3813 	andeq	r3, fp, r3, lsl r8
    2230:	01131100 	tsteq	r3, r0, lsl #2
    2234:	050b0e03 	streq	r0, [fp, #-3587]	; 0xfffff1fd
    2238:	0b3b0b3a 	bleq	ec4f28 <__bss_end__+0xebae58>
    223c:	00001301 	andeq	r1, r0, r1, lsl #6
    2240:	03000d12 	movweq	r0, #3346	; 0xd12
    2244:	3b0b3a0e 	blcc	2d0a84 <__bss_end__+0x2c69b4>
    2248:	3813490b 	ldmdacc	r3, {r0, r1, r3, r8, fp, lr}
    224c:	13000005 	movwne	r0, #5
    2250:	19270015 	stmdbne	r7!, {r0, r2, r4}
    2254:	15140000 	ldrne	r0, [r4, #-0]
    2258:	49192701 	ldmdbmi	r9, {r0, r8, r9, sl, sp}
    225c:	00130113 	andseq	r0, r3, r3, lsl r1
    2260:	00051500 	andeq	r1, r5, r0, lsl #10
    2264:	00001349 	andeq	r1, r0, r9, asr #6
    2268:	03011316 	movweq	r1, #4886	; 0x1316
    226c:	3a050b0e 	bcc	144eac <__bss_end__+0x13addc>
    2270:	01053b0b 	tsteq	r5, fp, lsl #22
    2274:	17000013 	smladne	r0, r3, r0, r0
    2278:	0e03000d 	cdpeq	0, 0, cr0, cr3, cr13, {0}
    227c:	053b0b3a 	ldreq	r0, [fp, #-2874]!	; 0xfffff4c6
    2280:	0b381349 	bleq	e06fac <__bss_end__+0xdfcedc>
    2284:	0d180000 	ldceq	0, cr0, [r8, #-0]
    2288:	3a0e0300 	bcc	382e90 <__bss_end__+0x378dc0>
    228c:	49053b0b 	stmdbmi	r5, {r0, r1, r3, r8, r9, fp, ip, sp}
    2290:	00053813 	andeq	r3, r5, r3, lsl r8
    2294:	01131900 	tsteq	r3, r0, lsl #18
    2298:	0b0b0e03 	bleq	2c5aac <__bss_end__+0x2bb9dc>
    229c:	053b0b3a 	ldreq	r0, [fp, #-2874]!	; 0xfffff4c6
    22a0:	00001301 	andeq	r1, r0, r1, lsl #6
    22a4:	0b01131a 	bleq	46f14 <__bss_end__+0x3ce44>
    22a8:	3b0b3a0b 	blcc	2d0adc <__bss_end__+0x2c6a0c>
    22ac:	00130105 	andseq	r0, r3, r5, lsl #2
    22b0:	01171b00 	tsteq	r7, r0, lsl #22
    22b4:	0b3a0b0b 	bleq	e84ee8 <__bss_end__+0xe7ae18>
    22b8:	1301053b 	movwne	r0, #5435	; 0x153b
    22bc:	0d1c0000 	ldceq	0, cr0, [ip, #-0]
    22c0:	3a0e0300 	bcc	382ec8 <__bss_end__+0x378df8>
    22c4:	49053b0b 	stmdbmi	r5, {r0, r1, r3, r8, r9, fp, ip, sp}
    22c8:	1d000013 	stcne	0, cr0, [r0, #-76]	; 0xffffffb4
    22cc:	19270115 	stmdbne	r7!, {r0, r2, r4, r8}
    22d0:	00001301 	andeq	r1, r0, r1, lsl #6
    22d4:	0300341e 	movweq	r3, #1054	; 0x41e
    22d8:	3b0b3a0e 	blcc	2d0b18 <__bss_end__+0x2c6a48>
    22dc:	3f134905 	svccc	0x00134905
    22e0:	00193c19 	andseq	r3, r9, r9, lsl ip
    22e4:	00341f00 	eorseq	r1, r4, r0, lsl #30
    22e8:	0b3a0e03 	bleq	e85afc <__bss_end__+0xe7ba2c>
    22ec:	13490b3b 	movtne	r0, #39739	; 0x9b3b
    22f0:	193c193f 	ldmdbne	ip!, {r0, r1, r2, r3, r4, r5, r8, fp, ip}
    22f4:	04200000 	strteq	r0, [r0], #-0
    22f8:	490b0b01 	stmdbmi	fp, {r0, r8, r9, fp}
    22fc:	3b0b3a13 	blcc	2d0b50 <__bss_end__+0x2c6a80>
    2300:	0013010b 	andseq	r0, r3, fp, lsl #2
    2304:	00282100 	eoreq	r2, r8, r0, lsl #2
    2308:	0b1c0e03 	bleq	705b1c <__bss_end__+0x6fba4c>
    230c:	34220000 	strtcc	r0, [r2], #-0
    2310:	3a0e0300 	bcc	382f18 <__bss_end__+0x378e48>
    2314:	490b3b0b 	stmdbmi	fp, {r0, r1, r3, r8, r9, fp, ip, sp}
    2318:	00061c13 	andeq	r1, r6, r3, lsl ip
    231c:	012e2300 			; <UNDEFINED> instruction: 0x012e2300
    2320:	0e03193f 			; <UNDEFINED> instruction: 0x0e03193f
    2324:	0b3b0b3a 	bleq	ec5014 <__bss_end__+0xebaf44>
    2328:	13491927 	movtne	r1, #39207	; 0x9927
    232c:	06120111 			; <UNDEFINED> instruction: 0x06120111
    2330:	42971840 	addsmi	r1, r7, #64, 16	; 0x400000
    2334:	00130119 	andseq	r0, r3, r9, lsl r1
    2338:	00052400 	andeq	r2, r5, r0, lsl #8
    233c:	0b3a0803 	bleq	e84350 <__bss_end__+0xe7a280>
    2340:	13490b3b 	movtne	r0, #39739	; 0x9b3b
    2344:	00001702 	andeq	r1, r0, r2, lsl #14
    2348:	03003425 	movweq	r3, #1061	; 0x425
    234c:	3b0b3a0e 	blcc	2d0b8c <__bss_end__+0x2c6abc>
    2350:	0213490b 	andseq	r4, r3, #180224	; 0x2c000
    2354:	26000017 			; <UNDEFINED> instruction: 0x26000017
    2358:	08030034 	stmdaeq	r3, {r2, r4, r5}
    235c:	0b3b0b3a 	bleq	ec504c <__bss_end__+0xebaf7c>
    2360:	17021349 	strne	r1, [r2, -r9, asr #6]
    2364:	89270000 	stmdbhi	r7!, {}	; <UNPREDICTABLE>
    2368:	11010182 	smlabbne	r1, r2, r1, r0
    236c:	00133101 	andseq	r3, r3, r1, lsl #2
    2370:	828a2800 	addhi	r2, sl, #0, 16
    2374:	18020001 	stmdane	r2, {r0}
    2378:	00184291 	mulseq	r8, r1, r2
    237c:	012e2900 			; <UNDEFINED> instruction: 0x012e2900
    2380:	0e03193f 			; <UNDEFINED> instruction: 0x0e03193f
    2384:	0b3b0b3a 	bleq	ec5074 <__bss_end__+0xebafa4>
    2388:	01111927 	tsteq	r1, r7, lsr #18
    238c:	18400612 	stmdane	r0, {r1, r4, r9, sl}^
    2390:	01194297 			; <UNDEFINED> instruction: 0x01194297
    2394:	2a000013 	bcs	23e8 <_start-0x5c18>
    2398:	01018289 	smlabbeq	r1, r9, r2, r8
    239c:	13310111 	teqne	r1, #1073741828	; 0x40000004
    23a0:	00001301 	andeq	r1, r0, r1, lsl #6
    23a4:	0182892b 	orreq	r8, r2, fp, lsr #18
    23a8:	31011100 	mrscc	r1, (UNDEF: 17)
    23ac:	2c000013 	stccs	0, cr0, [r0], {19}
    23b0:	0e030005 	cdpeq	0, 0, cr0, cr3, cr5, {0}
    23b4:	0b3b0b3a 	bleq	ec50a4 <__bss_end__+0xebafd4>
    23b8:	17021349 	strne	r1, [r2, -r9, asr #6]
    23bc:	342d0000 	strtcc	r0, [sp], #-0
    23c0:	3a080300 	bcc	202fc8 <__bss_end__+0x1f8ef8>
    23c4:	490b3b0b 	stmdbmi	fp, {r0, r1, r3, r8, r9, fp, ip, sp}
    23c8:	00180213 	andseq	r0, r8, r3, lsl r2
    23cc:	002e2e00 	eoreq	r2, lr, r0, lsl #28
    23d0:	193c193f 	ldmdbne	ip!, {r0, r1, r2, r3, r4, r5, r8, fp, ip}
    23d4:	0e030e6e 	cdpeq	14, 0, cr0, cr3, cr14, {3}
    23d8:	0b3b0b3a 	bleq	ec50c8 <__bss_end__+0xebaff8>
    23dc:	01000000 	mrseq	r0, (UNDEF: 0)
    23e0:	0e250111 	mcreq	1, 1, r0, cr5, cr1, {0}
    23e4:	0e030b13 	vmoveq.32	d3[0], r0
    23e8:	01110e1b 	tsteq	r1, fp, lsl lr
    23ec:	17100612 			; <UNDEFINED> instruction: 0x17100612
    23f0:	24020000 	strcs	r0, [r2], #-0
    23f4:	3e0b0b00 	vmlacc.f64	d0, d11, d0
    23f8:	0008030b 	andeq	r0, r8, fp, lsl #6
    23fc:	00240300 	eoreq	r0, r4, r0, lsl #6
    2400:	0b3e0b0b 	bleq	f85034 <__bss_end__+0xf7af64>
    2404:	00000e03 	andeq	r0, r0, r3, lsl #28
    2408:	03001604 	movweq	r1, #1540	; 0x604
    240c:	3b0b3a0e 	blcc	2d0c4c <__bss_end__+0x2c6b7c>
    2410:	0013490b 	andseq	r4, r3, fp, lsl #18
    2414:	00160500 	andseq	r0, r6, r0, lsl #10
    2418:	0b3a0e03 	bleq	e85c2c <__bss_end__+0xe7bb5c>
    241c:	1349053b 	movtne	r0, #38203	; 0x953b
    2420:	17060000 	strne	r0, [r6, -r0]
    2424:	3a0b0b01 	bcc	2c5030 <__bss_end__+0x2baf60>
    2428:	010b3b0b 	tsteq	fp, fp, lsl #22
    242c:	07000013 	smladeq	r0, r3, r0, r0
    2430:	0e03000d 	cdpeq	0, 0, cr0, cr3, cr13, {0}
    2434:	0b3b0b3a 	bleq	ec5124 <__bss_end__+0xebb054>
    2438:	00001349 	andeq	r1, r0, r9, asr #6
    243c:	49010108 	stmdbmi	r1, {r3, r8}
    2440:	00130113 	andseq	r0, r3, r3, lsl r1
    2444:	00210900 	eoreq	r0, r1, r0, lsl #18
    2448:	0b2f1349 	bleq	bc7174 <__bss_end__+0xbbd0a4>
    244c:	130a0000 	movwne	r0, #40960	; 0xa000
    2450:	3a0b0b01 	bcc	2c505c <__bss_end__+0x2baf8c>
    2454:	010b3b0b 	tsteq	fp, fp, lsl #22
    2458:	0b000013 	bleq	24ac <_start-0x5b54>
    245c:	0e03000d 	cdpeq	0, 0, cr0, cr3, cr13, {0}
    2460:	0b3b0b3a 	bleq	ec5150 <__bss_end__+0xebb080>
    2464:	0b381349 	bleq	e07190 <__bss_end__+0xdfd0c0>
    2468:	0f0c0000 	svceq	0x000c0000
    246c:	000b0b00 	andeq	r0, fp, r0, lsl #22
    2470:	000f0d00 	andeq	r0, pc, r0, lsl #26
    2474:	13490b0b 	movtne	r0, #39691	; 0x9b0b
    2478:	260e0000 	strcs	r0, [lr], -r0
    247c:	00134900 	andseq	r4, r3, r0, lsl #18
    2480:	01130f00 	tsteq	r3, r0, lsl #30
    2484:	0b0b0e03 	bleq	2c5c98 <__bss_end__+0x2bbbc8>
    2488:	0b3b0b3a 	bleq	ec5178 <__bss_end__+0xebb0a8>
    248c:	00001301 	andeq	r1, r0, r1, lsl #6
    2490:	03000d10 	movweq	r0, #3344	; 0xd10
    2494:	3b0b3a08 	blcc	2d0cbc <__bss_end__+0x2c6bec>
    2498:	3813490b 	ldmdacc	r3, {r0, r1, r3, r8, fp, lr}
    249c:	1100000b 	tstne	r0, fp
    24a0:	0e030113 	mcreq	1, 0, r0, cr3, cr3, {0}
    24a4:	0b3a050b 	bleq	e838d8 <__bss_end__+0xe79808>
    24a8:	13010b3b 	movwne	r0, #6971	; 0x1b3b
    24ac:	0d120000 	ldceq	0, cr0, [r2, #-0]
    24b0:	3a0e0300 	bcc	3830b8 <__bss_end__+0x378fe8>
    24b4:	490b3b0b 	stmdbmi	fp, {r0, r1, r3, r8, r9, fp, ip, sp}
    24b8:	00053813 	andeq	r3, r5, r3, lsl r8
    24bc:	00151300 	andseq	r1, r5, r0, lsl #6
    24c0:	00001927 	andeq	r1, r0, r7, lsr #18
    24c4:	27011514 	smladcs	r1, r4, r5, r1
    24c8:	01134919 	tsteq	r3, r9, lsl r9
    24cc:	15000013 	strne	r0, [r0, #-19]	; 0xffffffed
    24d0:	13490005 	movtne	r0, #36869	; 0x9005
    24d4:	13160000 	tstne	r6, #0
    24d8:	0b0e0301 	bleq	3830e4 <__bss_end__+0x379014>
    24dc:	3b0b3a05 	blcc	2d0cf8 <__bss_end__+0x2c6c28>
    24e0:	00130105 	andseq	r0, r3, r5, lsl #2
    24e4:	000d1700 	andeq	r1, sp, r0, lsl #14
    24e8:	0b3a0e03 	bleq	e85cfc <__bss_end__+0xe7bc2c>
    24ec:	1349053b 	movtne	r0, #38203	; 0x953b
    24f0:	00000b38 	andeq	r0, r0, r8, lsr fp
    24f4:	03000d18 	movweq	r0, #3352	; 0xd18
    24f8:	3b0b3a0e 	blcc	2d0d38 <__bss_end__+0x2c6c68>
    24fc:	38134905 	ldmdacc	r3, {r0, r2, r8, fp, lr}
    2500:	19000005 	stmdbne	r0, {r0, r2}
    2504:	0e030113 	mcreq	1, 0, r0, cr3, cr3, {0}
    2508:	0b3a0b0b 	bleq	e8513c <__bss_end__+0xe7b06c>
    250c:	1301053b 	movwne	r0, #5435	; 0x153b
    2510:	131a0000 	tstne	sl, #0
    2514:	3a0b0b01 	bcc	2c5120 <__bss_end__+0x2bb050>
    2518:	01053b0b 	tsteq	r5, fp, lsl #22
    251c:	1b000013 	blne	2570 <_start-0x5a90>
    2520:	0b0b0117 	bleq	2c2984 <__bss_end__+0x2b88b4>
    2524:	053b0b3a 	ldreq	r0, [fp, #-2874]!	; 0xfffff4c6
    2528:	00001301 	andeq	r1, r0, r1, lsl #6
    252c:	03000d1c 	movweq	r0, #3356	; 0xd1c
    2530:	3b0b3a0e 	blcc	2d0d70 <__bss_end__+0x2c6ca0>
    2534:	00134905 	andseq	r4, r3, r5, lsl #18
    2538:	01151d00 	tsteq	r5, r0, lsl #26
    253c:	13011927 	movwne	r1, #6439	; 0x1927
    2540:	341e0000 	ldrcc	r0, [lr], #-0
    2544:	3a0e0300 	bcc	38314c <__bss_end__+0x37907c>
    2548:	49053b0b 	stmdbmi	r5, {r0, r1, r3, r8, r9, fp, ip, sp}
    254c:	3c193f13 	ldccc	15, cr3, [r9], {19}
    2550:	1f000019 	svcne	0x00000019
    2554:	0e030034 	mcreq	0, 0, r0, cr3, cr4, {1}
    2558:	0b3b0b3a 	bleq	ec5248 <__bss_end__+0xebb178>
    255c:	193f1349 	ldmdbne	pc!, {r0, r3, r6, r8, r9, ip}	; <UNPREDICTABLE>
    2560:	0000193c 	andeq	r1, r0, ip, lsr r9
    2564:	03003420 	movweq	r3, #1056	; 0x420
    2568:	3b0b3a0e 	blcc	2d0da8 <__bss_end__+0x2c6cd8>
    256c:	0213490b 	andseq	r4, r3, #180224	; 0x2c000
    2570:	21000018 	tstcs	r0, r8, lsl r0
    2574:	193f012e 	ldmdbne	pc!, {r1, r2, r3, r5, r8}	; <UNPREDICTABLE>
    2578:	0b3a0e03 	bleq	e85d8c <__bss_end__+0xe7bcbc>
    257c:	19270b3b 	stmdbne	r7!, {r0, r1, r3, r4, r5, r8, r9, fp}
    2580:	06120111 			; <UNDEFINED> instruction: 0x06120111
    2584:	42971840 	addsmi	r1, r7, #64, 16	; 0x400000
    2588:	00130119 	andseq	r0, r3, r9, lsl r1
    258c:	00052200 	andeq	r2, r5, r0, lsl #4
    2590:	0b3a0803 	bleq	e845a4 <__bss_end__+0xe7a4d4>
    2594:	13490b3b 	movtne	r0, #39739	; 0x9b3b
    2598:	00001802 	andeq	r1, r0, r2, lsl #16
    259c:	3f002e23 	svccc	0x00002e23
    25a0:	3a0e0319 	bcc	38320c <__bss_end__+0x37913c>
    25a4:	270b3b0b 	strcs	r3, [fp, -fp, lsl #22]
    25a8:	12011119 	andne	r1, r1, #1073741830	; 0x40000006
    25ac:	97184006 	ldrls	r4, [r8, -r6]
    25b0:	00001942 	andeq	r1, r0, r2, asr #18
    25b4:	3f012e24 	svccc	0x00012e24
    25b8:	3a0e0319 	bcc	383224 <__bss_end__+0x379154>
    25bc:	270b3b0b 	strcs	r3, [fp, -fp, lsl #22]
    25c0:	11134919 	tstne	r3, r9, lsl r9
    25c4:	40061201 	andmi	r1, r6, r1, lsl #4
    25c8:	19429718 	stmdbne	r2, {r3, r4, r8, r9, sl, ip, pc}^
    25cc:	00001301 	andeq	r1, r0, r1, lsl #6
    25d0:	03000525 	movweq	r0, #1317	; 0x525
    25d4:	3b0b3a0e 	blcc	2d0e14 <__bss_end__+0x2c6d44>
    25d8:	0213490b 	andseq	r4, r3, #180224	; 0x2c000
    25dc:	26000017 			; <UNDEFINED> instruction: 0x26000017
    25e0:	0e030034 	mcreq	0, 0, r0, cr3, cr4, {1}
    25e4:	19341349 	ldmdbne	r4!, {r0, r3, r6, r8, r9, ip}
    25e8:	00001802 	andeq	r1, r0, r2, lsl #16
    25ec:	03003427 	movweq	r3, #1063	; 0x427
    25f0:	3b0b3a08 	blcc	2d0e18 <__bss_end__+0x2c6d48>
    25f4:	0213490b 	andseq	r4, r3, #180224	; 0x2c000
    25f8:	28000017 	stmdacs	r0, {r0, r1, r2, r4}
    25fc:	01018289 	smlabbeq	r1, r9, r2, r8
    2600:	13310111 	teqne	r1, #1073741828	; 0x40000004
    2604:	00001301 	andeq	r1, r0, r1, lsl #6
    2608:	01828a29 	orreq	r8, r2, r9, lsr #20
    260c:	91180200 	tstls	r8, r0, lsl #4
    2610:	00001842 	andeq	r1, r0, r2, asr #16
    2614:	0182892a 	orreq	r8, r2, sl, lsr #18
    2618:	31011100 	mrscc	r1, (UNDEF: 17)
    261c:	2b000013 	blcs	2670 <_start-0x5990>
    2620:	08030005 	stmdaeq	r3, {r0, r2}
    2624:	0b3b0b3a 	bleq	ec5314 <__bss_end__+0xebb244>
    2628:	17021349 	strne	r1, [r2, -r9, asr #6]
    262c:	342c0000 	strtcc	r0, [ip], #-0
    2630:	3a0e0300 	bcc	383238 <__bss_end__+0x379168>
    2634:	490b3b0b 	stmdbmi	fp, {r0, r1, r3, r8, r9, fp, ip, sp}
    2638:	00170213 	andseq	r0, r7, r3, lsl r2
    263c:	002e2d00 	eoreq	r2, lr, r0, lsl #26
    2640:	0e03193f 			; <UNDEFINED> instruction: 0x0e03193f
    2644:	0b3b0b3a 	bleq	ec5334 <__bss_end__+0xebb264>
    2648:	13491927 	movtne	r1, #39207	; 0x9927
    264c:	06120111 			; <UNDEFINED> instruction: 0x06120111
    2650:	42971840 	addsmi	r1, r7, #64, 16	; 0x400000
    2654:	2e000019 	mcrcs	0, 0, r0, cr0, cr9, {0}
    2658:	193f002e 	ldmdbne	pc!, {r1, r2, r3, r5}	; <UNPREDICTABLE>
    265c:	0e6e193c 			; <UNDEFINED> instruction: 0x0e6e193c
    2660:	0b3a0e03 	bleq	e85e74 <__bss_end__+0xe7bda4>
    2664:	00000b3b 	andeq	r0, r0, fp, lsr fp
	...

Disassembly of section .debug_loc:

00000000 <.debug_loc>:
       0:	00000000 	andeq	r0, r0, r0
       4:	0000004c 	andeq	r0, r0, ip, asr #32
       8:	0000004f 	andeq	r0, r0, pc, asr #32
       c:	4f500001 	svcmi	0x00500001
      10:	e8000000 	stmda	r0, {}	; <UNPREDICTABLE>
      14:	01000000 	mrseq	r0, (UNDEF: 0)
      18:	00005700 	andeq	r5, r0, r0, lsl #14
	...
      24:	006c0000 	rsbeq	r0, ip, r0
      28:	007c0000 	rsbseq	r0, ip, r0
      2c:	00010000 	andeq	r0, r1, r0
      30:	00007c50 	andeq	r7, r0, r0, asr ip
      34:	0000e800 	andeq	lr, r0, r0, lsl #16
      38:	56000100 	strpl	r0, [r0], -r0, lsl #2
	...
      44:	07a80000 	streq	r0, [r8, r0]!
      48:	07d00000 	ldrbeq	r0, [r0, r0]
      4c:	00010000 	andeq	r0, r1, r0
      50:	00000054 	andeq	r0, r0, r4, asr r0
      54:	00000000 	andeq	r0, r0, r0
      58:	b0000000 	andlt	r0, r0, r0
      5c:	d4000007 	strle	r0, [r0], #-7
      60:	01000007 	tsteq	r0, r7
      64:	00005500 	andeq	r5, r0, r0, lsl #10
      68:	00000000 	andeq	r0, r0, r0
      6c:	00020000 	andeq	r0, r2, r0
      70:	07c80000 	strbeq	r0, [r8, r0]
      74:	07dc0000 	ldrbeq	r0, [ip, r0]
      78:	00020000 	andeq	r0, r2, r0
      7c:	07dc9f30 			; <UNDEFINED> instruction: 0x07dc9f30
      80:	08d80000 	ldmeq	r8, {}^	; <UNPREDICTABLE>
      84:	00010000 	andeq	r0, r1, r0
      88:	00000056 	andeq	r0, r0, r6, asr r0
      8c:	00000000 	andeq	r0, r0, r0
      90:	00000300 	andeq	r0, r0, r0, lsl #6
      94:	0007c800 	andeq	ip, r7, r0, lsl #16
      98:	0007dc00 	andeq	sp, r7, r0, lsl #24
      9c:	30000200 	andcc	r0, r0, r0, lsl #4
      a0:	0007dc9f 	muleq	r7, pc, ip	; <UNPREDICTABLE>
      a4:	0008d800 	andeq	sp, r8, r0, lsl #16
      a8:	55000100 	strpl	r0, [r0, #-256]	; 0xffffff00
	...
      bc:	000007d0 	ldrdeq	r0, [r0], -r0	; <UNPREDICTABLE>
      c0:	000007dc 	ldrdeq	r0, [r0], -ip
      c4:	dc500001 	mrrcle	0, 0, r0, r0, cr1	; <UNPREDICTABLE>
      c8:	20000007 	andcs	r0, r0, r7
      cc:	01000008 	tsteq	r0, r8
      d0:	08205400 	stmdaeq	r0!, {sl, ip, lr}
      d4:	082f0000 	stmdaeq	pc!, {}	; <UNPREDICTABLE>
      d8:	00010000 	andeq	r0, r1, r0
      dc:	00082f50 	andeq	r2, r8, r0, asr pc
      e0:	0008d800 	andeq	sp, r8, r0, lsl #16
      e4:	54000100 	strpl	r0, [r0], #-256	; 0xffffff00
	...
      f8:	00000748 	andeq	r0, r0, r8, asr #14
      fc:	00000774 	andeq	r0, r0, r4, ror r7
     100:	74500001 	ldrbvc	r0, [r0], #-1
     104:	84000007 	strhi	r0, [r0], #-7
     108:	04000007 	streq	r0, [r0], #-7
     10c:	5001f300 	andpl	pc, r1, r0, lsl #6
     110:	0007849f 	muleq	r7, pc, r4	; <UNPREDICTABLE>
     114:	00078800 	andeq	r8, r7, r0, lsl #16
     118:	50000100 	andpl	r0, r0, r0, lsl #2
     11c:	00000788 	andeq	r0, r0, r8, lsl #15
     120:	00000794 	muleq	r0, r4, r7
     124:	01f30004 	mvnseq	r0, r4
     128:	00009f50 	andeq	r9, r0, r0, asr pc
	...
     134:	07600000 	strbeq	r0, [r0, -r0]!
     138:	07800000 	streq	r0, [r0, r0]
     13c:	00010000 	andeq	r0, r1, r0
     140:	00078454 	andeq	r8, r7, r4, asr r4
     144:	00078800 	andeq	r8, r7, r0, lsl #16
     148:	54000100 	strpl	r0, [r0], #-256	; 0xffffff00
	...
     158:	00000724 	andeq	r0, r0, r4, lsr #14
     15c:	00000734 	andeq	r0, r0, r4, lsr r7
     160:	3c540001 	mrrccc	0, 0, r0, r4, cr1
     164:	40000007 	andmi	r0, r0, r7
     168:	01000007 	tsteq	r0, r7
     16c:	00005400 	andeq	r5, r0, r0, lsl #8
	...
     180:	000004fc 	strdeq	r0, [r0], -ip
     184:	00000528 	andeq	r0, r0, r8, lsr #10
     188:	28500001 	ldmdacs	r0, {r0}^
     18c:	24000005 	strcs	r0, [r0], #-5
     190:	01000006 	tsteq	r0, r6
     194:	06245500 	strteq	r5, [r4], -r0, lsl #10
     198:	06270000 	strteq	r0, [r7], -r0
     19c:	00010000 	andeq	r0, r1, r0
     1a0:	00062750 	andeq	r2, r6, r0, asr r7
     1a4:	00064000 	andeq	r4, r6, r0
     1a8:	f3000400 	vshl.u8	d0, d0, d0
     1ac:	409f5001 	addsmi	r5, pc, r1
     1b0:	18000006 	stmdane	r0, {r1, r2}
     1b4:	01000007 	tsteq	r0, r7
     1b8:	00005500 	andeq	r5, r0, r0, lsl #10
	...
     1cc:	000004fc 	strdeq	r0, [r0], -ip
     1d0:	0000052b 	andeq	r0, r0, fp, lsr #10
     1d4:	2b510001 	blcs	14401e0 <__bss_end__+0x1436110>
     1d8:	24000005 	strcs	r0, [r0], #-5
     1dc:	01000006 	tsteq	r0, r6
     1e0:	06245800 	strteq	r5, [r4], -r0, lsl #16
     1e4:	06270000 	strteq	r0, [r7], -r0
     1e8:	00010000 	andeq	r0, r1, r0
     1ec:	00062751 	andeq	r2, r6, r1, asr r7
     1f0:	00064000 	andeq	r4, r6, r0
     1f4:	f3000400 	vshl.u8	d0, d0, d0
     1f8:	409f5101 	addsmi	r5, pc, r1, lsl #2
     1fc:	18000006 	stmdane	r0, {r1, r2}
     200:	01000007 	tsteq	r0, r7
     204:	00005800 	andeq	r5, r0, r0, lsl #16
	...
     218:	000004fc 	strdeq	r0, [r0], -ip
     21c:	0000052b 	andeq	r0, r0, fp, lsr #10
     220:	2b520001 	blcs	148022c <__bss_end__+0x147615c>
     224:	24000005 	strcs	r0, [r0], #-5
     228:	01000006 	tsteq	r0, r6
     22c:	06245700 	strteq	r5, [r4], -r0, lsl #14
     230:	06270000 	strteq	r0, [r7], -r0
     234:	00010000 	andeq	r0, r1, r0
     238:	00062752 	andeq	r2, r6, r2, asr r7
     23c:	00064000 	andeq	r4, r6, r0
     240:	f3000400 	vshl.u8	d0, d0, d0
     244:	409f5201 	addsmi	r5, pc, r1, lsl #4
     248:	18000006 	stmdane	r0, {r1, r2}
     24c:	01000007 	tsteq	r0, r7
     250:	00005700 	andeq	r5, r0, r0, lsl #14
	...
     264:	000004fc 	strdeq	r0, [r0], -ip
     268:	0000050c 	andeq	r0, r0, ip, lsl #10
     26c:	0c530001 	mrrceq	0, 0, r0, r3, cr1
     270:	b0000005 	andlt	r0, r0, r5
     274:	01000005 	tsteq	r0, r5
     278:	05b05600 	ldreq	r5, [r0, #1536]!	; 0x600
     27c:	06240000 	strteq	r0, [r4], -r0
     280:	00040000 	andeq	r0, r4, r0
     284:	9f5301f3 	svcls	0x005301f3
     288:	00000624 	andeq	r0, r0, r4, lsr #12
     28c:	000006c8 	andeq	r0, r0, r8, asr #13
     290:	c8560001 	ldmdagt	r6, {r0}^
     294:	18000006 	stmdane	r0, {r1, r2}
     298:	04000007 	streq	r0, [r0], #-7
     29c:	5301f300 	movwpl	pc, #4864	; 0x1300	; <UNPREDICTABLE>
     2a0:	0000009f 	muleq	r0, pc, r0	; <UNPREDICTABLE>
     2a4:	00000000 	andeq	r0, r0, r0
     2a8:	03030100 	movweq	r0, #12544	; 0x3100
     2ac:	00000000 	andeq	r0, r0, r0
     2b0:	00050800 	andeq	r0, r5, r0, lsl #16
     2b4:	00056400 	andeq	r6, r5, r0, lsl #8
     2b8:	30000200 	andcc	r0, r0, r0, lsl #4
     2bc:	0005649f 	muleq	r5, pc, r4	; <UNPREDICTABLE>
     2c0:	0005fc00 	andeq	pc, r5, r0, lsl #24
     2c4:	54000100 	strpl	r0, [r0], #-256	; 0xffffff00
     2c8:	00000624 	andeq	r0, r0, r4, lsr #12
     2cc:	000006c8 	andeq	r0, r0, r8, asr #13
     2d0:	9f300002 	svcls	0x00300002
     2d4:	000006c8 	andeq	r0, r0, r8, asr #13
     2d8:	00000718 	andeq	r0, r0, r8, lsl r7
     2dc:	00540001 	subseq	r0, r4, r1
     2e0:	00000000 	andeq	r0, r0, r0
     2e4:	02000000 	andeq	r0, r0, #0
     2e8:	00000000 	andeq	r0, r0, r0
     2ec:	08000000 	stmdaeq	r0, {}	; <UNPREDICTABLE>
     2f0:	fc000005 	stc2	0, cr0, [r0], {5}
     2f4:	02000005 	andeq	r0, r0, #5
     2f8:	fc9f3000 	ldc2	0, cr3, [pc], {0}
     2fc:	00000005 	andeq	r0, r0, r5
     300:	01000006 	tsteq	r0, r6
     304:	06005000 	streq	r5, [r0], -r0
     308:	06240000 	strteq	r0, [r4], -r0
     30c:	00010000 	andeq	r0, r1, r0
     310:	00062454 	andeq	r2, r6, r4, asr r4
     314:	00071800 	andeq	r1, r7, r0, lsl #16
     318:	30000200 	andcc	r0, r0, r0, lsl #4
     31c:	0000009f 	muleq	r0, pc, r0	; <UNPREDICTABLE>
	...
     330:	00054000 	andeq	r4, r5, r0
     334:	00056c00 	andeq	r6, r5, r0, lsl #24
     338:	50000100 	andpl	r0, r0, r0, lsl #2
     33c:	0000056c 	andeq	r0, r0, ip, ror #10
     340:	00000624 	andeq	r0, r0, r4, lsr #12
     344:	c8790004 	ldmdagt	r9!, {r2}^
     348:	06409f7d 			; <UNDEFINED> instruction: 0x06409f7d
     34c:	06440000 	strbeq	r0, [r4], -r0
     350:	00010000 	andeq	r0, r1, r0
     354:	00064450 	andeq	r4, r6, r0, asr r4
     358:	00067400 	andeq	r7, r6, r0, lsl #8
     35c:	79000400 	stmdbvc	r0, {sl}
     360:	749f7dc8 	ldrvc	r7, [pc], #3528	; 368 <_start-0x7c98>
     364:	78000006 	stmdavc	r0, {r1, r2}
     368:	01000006 	tsteq	r0, r6
     36c:	06785000 	ldrbteq	r5, [r8], -r0
     370:	07180000 	ldreq	r0, [r8, -r0]
     374:	00040000 	andeq	r0, r4, r0
     378:	9f7dc879 	svcls	0x007dc879
	...
     388:	00000544 	andeq	r0, r0, r4, asr #10
     38c:	00000624 	andeq	r0, r0, r4, lsr #12
     390:	40590001 	subsmi	r0, r9, r1
     394:	18000006 	stmdane	r0, {r1, r2}
     398:	01000007 	tsteq	r0, r7
     39c:	00005900 	andeq	r5, r0, r0, lsl #18
	...
     3a8:	04440000 	strbeq	r0, [r4], #-0
     3ac:	045b0000 	ldrbeq	r0, [fp], #-0
     3b0:	00010000 	andeq	r0, r1, r0
     3b4:	00045b50 	andeq	r5, r4, r0, asr fp
     3b8:	0004fc00 	andeq	pc, r4, r0, lsl #24
     3bc:	55000100 	strpl	r0, [r0, #-256]	; 0xffffff00
	...
     3cc:	00000444 	andeq	r0, r0, r4, asr #8
     3d0:	0000045b 	andeq	r0, r0, fp, asr r4
     3d4:	5b510001 	blpl	14403e0 <__bss_end__+0x1436310>
     3d8:	fc000004 	stc2	0, cr0, [r0], {4}
     3dc:	01000004 	tsteq	r0, r4
     3e0:	00005700 	andeq	r5, r0, r0, lsl #14
	...
     3ec:	04440000 	strbeq	r0, [r4], #-0
     3f0:	045b0000 	ldrbeq	r0, [fp], #-0
     3f4:	00010000 	andeq	r0, r1, r0
     3f8:	00045b52 	andeq	r5, r4, r2, asr fp
     3fc:	0004fc00 	andeq	pc, r4, r0, lsl #24
     400:	56000100 	strpl	r0, [r0], -r0, lsl #2
	...
     410:	00000444 	andeq	r0, r0, r4, asr #8
     414:	0000045b 	andeq	r0, r0, fp, asr r4
     418:	5b530001 	blpl	14c0424 <__bss_end__+0x14b6354>
     41c:	fc000004 	stc2	0, cr0, [r0], {4}
     420:	01000004 	tsteq	r0, r4
     424:	00005800 	andeq	r5, r0, r0, lsl #16
	...
     434:	0000045c 	andeq	r0, r0, ip, asr r4
     438:	00000474 	andeq	r0, r0, r4, ror r4
     43c:	74500001 	ldrbvc	r0, [r0], #-1
     440:	c8000004 	stmdagt	r0, {r2}
     444:	01000004 	tsteq	r0, r4
     448:	04c85400 	strbeq	r5, [r8], #1024	; 0x400
     44c:	04cb0000 	strbeq	r0, [fp], #0
     450:	00010000 	andeq	r0, r1, r0
     454:	00000050 	andeq	r0, r0, r0, asr r0
	...
     460:	00036c00 	andeq	r6, r3, r0, lsl #24
     464:	00037700 	andeq	r7, r3, r0, lsl #14
     468:	50000100 	andpl	r0, r0, r0, lsl #2
     46c:	00000377 	andeq	r0, r0, r7, ror r3
     470:	000003d0 	ldrdeq	r0, [r0], -r0	; <UNPREDICTABLE>
     474:	00540001 	subseq	r0, r4, r1
	...
     480:	50000000 	andpl	r0, r0, r0
     484:	5f000001 	svcpl	0x00000001
     488:	01000001 	tsteq	r0, r1
     48c:	015f5000 	cmpeq	pc, r0
     490:	01640000 	cmneq	r4, r0
     494:	00040000 	andeq	r0, r4, r0
     498:	9f5001f3 	svcls	0x005001f3
	...
     4a8:	01500000 	cmpeq	r0, r0
     4ac:	015c0000 	cmpeq	ip, r0
     4b0:	00010000 	andeq	r0, r1, r0
     4b4:	00015c51 	andeq	r5, r1, r1, asr ip
     4b8:	00015f00 	andeq	r5, r1, r0, lsl #30
     4bc:	52000100 	andpl	r0, r0, #0, 2
     4c0:	0000015f 	andeq	r0, r0, pc, asr r1
     4c4:	00000164 	andeq	r0, r0, r4, ror #2
     4c8:	01f30004 	mvnseq	r0, r4
     4cc:	00009f51 	andeq	r9, r0, r1, asr pc
	...
     4dc:	00440000 	subeq	r0, r4, r0
     4e0:	00700000 	rsbseq	r0, r0, r0
     4e4:	00010000 	andeq	r0, r1, r0
     4e8:	00007050 	andeq	r7, r0, r0, asr r0
     4ec:	00012c00 	andeq	r2, r1, r0, lsl #24
     4f0:	55000100 	strpl	r0, [r0, #-256]	; 0xffffff00
     4f4:	0000012c 	andeq	r0, r0, ip, lsr #2
     4f8:	00000130 	andeq	r0, r0, r0, lsr r1
     4fc:	30500001 	subscc	r0, r0, r1
     500:	50000001 	andpl	r0, r0, r1
     504:	01000001 	tsteq	r0, r1
     508:	00005500 	andeq	r5, r0, r0, lsl #10
	...
     518:	00000044 	andeq	r0, r0, r4, asr #32
     51c:	00000073 	andeq	r0, r0, r3, ror r0
     520:	73510001 	cmpvc	r1, #1
     524:	2c000000 	stccs	0, cr0, [r0], {-0}
     528:	04000001 	streq	r0, [r0], #-1
     52c:	5101f300 	mrspl	pc, SP_irq	; <UNPREDICTABLE>
     530:	00012c9f 	muleq	r1, pc, ip	; <UNPREDICTABLE>
     534:	00015000 	andeq	r5, r1, r0
     538:	51000100 	mrspl	r0, (UNDEF: 16)
	...
     548:	00440000 	subeq	r0, r4, r0
     54c:	00730000 	rsbseq	r0, r3, r0
     550:	00010000 	andeq	r0, r1, r0
     554:	00007352 	andeq	r7, r0, r2, asr r3
     558:	00012c00 	andeq	r2, r1, r0, lsl #24
     55c:	56000100 	strpl	r0, [r0], -r0, lsl #2
     560:	0000012c 	andeq	r0, r0, ip, lsr #2
     564:	00000150 	andeq	r0, r0, r0, asr r1
     568:	00520001 	subseq	r0, r2, r1
     56c:	00000000 	andeq	r0, r0, r0
     570:	02000000 	andeq	r0, r0, #0
     574:	00000000 	andeq	r0, r0, r0
     578:	00005000 	andeq	r5, r0, r0
     57c:	00005400 	andeq	r5, r0, r0, lsl #8
     580:	30000200 	andcc	r0, r0, r0, lsl #4
     584:	0000549f 	muleq	r0, pc, r4	; <UNPREDICTABLE>
     588:	00007c00 	andeq	r7, r0, r0, lsl #24
     58c:	54000100 	strpl	r0, [r0], #-256	; 0xffffff00
     590:	0000012c 	andeq	r0, r0, ip, lsr #2
     594:	00000150 	andeq	r0, r0, r0, asr r1
     598:	00540001 	subseq	r0, r4, r1
	...
     5a4:	00007c00 	andeq	r7, r0, r0, lsl #24
     5a8:	00012c00 	andeq	r2, r1, r0, lsl #24
     5ac:	54000100 	strpl	r0, [r0], #-256	; 0xffffff00
	...
     5b8:	00000101 	andeq	r0, r0, r1, lsl #2
     5bc:	000000a0 	andeq	r0, r0, r0, lsr #1
     5c0:	000000e8 	andeq	r0, r0, r8, ror #1
     5c4:	00560001 	subseq	r0, r6, r1
     5c8:	2c000001 	stccs	0, cr0, [r0], {1}
     5cc:	01000001 	tsteq	r0, r1
     5d0:	00005600 	andeq	r5, r0, r0, lsl #12
     5d4:	00000000 	andeq	r0, r0, r0
     5d8:	02020000 	andeq	r0, r2, #0
     5dc:	00b40002 	adcseq	r0, r4, r2
     5e0:	00dc0000 	sbcseq	r0, ip, r0
     5e4:	00030000 	andeq	r0, r3, r0
     5e8:	dc9f1076 	ldcle	0, cr1, [pc], {118}	; 0x76
     5ec:	2c000000 	stccs	0, cr0, [r0], {-0}
     5f0:	03000001 	movweq	r0, #1
     5f4:	9f1c7600 	svcls	0x001c7600
	...
     608:	00000270 	andeq	r0, r0, r0, ror r2
     60c:	0000029c 	muleq	r0, ip, r2
     610:	9c500001 	mrrcls	0, 0, r0, r0, cr1	; <UNPREDICTABLE>
     614:	4c000002 	stcmi	0, cr0, [r0], {2}
     618:	01000003 	tsteq	r0, r3
     61c:	034c5500 	movteq	r5, #50432	; 0xc500
     620:	03500000 	cmpeq	r0, #0
     624:	00010000 	andeq	r0, r1, r0
     628:	00035050 	andeq	r5, r3, r0, asr r0
     62c:	00036c00 	andeq	r6, r3, r0, lsl #24
     630:	55000100 	strpl	r0, [r0, #-256]	; 0xffffff00
	...
     640:	02700000 	rsbseq	r0, r0, #0
     644:	029f0000 	addseq	r0, pc, #0
     648:	00010000 	andeq	r0, r1, r0
     64c:	00029f51 	andeq	r9, r2, r1, asr pc
     650:	00034c00 	andeq	r4, r3, r0, lsl #24
     654:	f3000400 	vshl.u8	d0, d0, d0
     658:	4c9f5101 	ldfmis	f5, [pc], {1}
     65c:	6c000003 	stcvs	0, cr0, [r0], {3}
     660:	01000003 	tsteq	r0, r3
     664:	00005100 	andeq	r5, r0, r0, lsl #2
	...
     674:	00000270 	andeq	r0, r0, r0, ror r2
     678:	0000029f 	muleq	r0, pc, r2	; <UNPREDICTABLE>
     67c:	9f520001 	svcls	0x00520001
     680:	4c000002 	stcmi	0, cr0, [r0], {2}
     684:	01000003 	tsteq	r0, r3
     688:	034c5600 	movteq	r5, #50688	; 0xc600
     68c:	036c0000 	cmneq	ip, #0
     690:	00010000 	andeq	r0, r1, r0
     694:	00000052 	andeq	r0, r0, r2, asr r0
     698:	00000000 	andeq	r0, r0, r0
     69c:	00000200 	andeq	r0, r0, r0, lsl #4
     6a0:	7c000000 	stcvc	0, cr0, [r0], {-0}
     6a4:	80000002 	andhi	r0, r0, r2
     6a8:	02000002 	andeq	r0, r0, #2
     6ac:	809f3000 	addshi	r3, pc, r0
     6b0:	a8000002 	stmdage	r0, {r1}
     6b4:	01000002 	tsteq	r0, r2
     6b8:	034c5400 	movteq	r5, #50176	; 0xc400
     6bc:	036c0000 	cmneq	ip, #0
     6c0:	00010000 	andeq	r0, r1, r0
     6c4:	00000054 	andeq	r0, r0, r4, asr r0
     6c8:	00000000 	andeq	r0, r0, r0
     6cc:	a8000000 	stmdage	r0, {}	; <UNPREDICTABLE>
     6d0:	4c000002 	stcmi	0, cr0, [r0], {2}
     6d4:	01000003 	tsteq	r0, r3
     6d8:	00005400 	andeq	r5, r0, r0, lsl #8
     6dc:	00000000 	andeq	r0, r0, r0
     6e0:	00010000 	andeq	r0, r1, r0
     6e4:	000002d0 	ldrdeq	r0, [r0], -r0	; <UNPREDICTABLE>
     6e8:	0000034c 	andeq	r0, r0, ip, asr #6
     6ec:	00560001 	subseq	r0, r6, r1
     6f0:	00000000 	andeq	r0, r0, r0
     6f4:	02000000 	andeq	r0, r0, #0
     6f8:	e4000202 	str	r0, [r0], #-514	; 0xfffffdfe
     6fc:	0c000002 	stceq	0, cr0, [r0], {2}
     700:	03000003 	movweq	r0, #3
     704:	9f107600 	svcls	0x00107600
     708:	0000030c 	andeq	r0, r0, ip, lsl #6
     70c:	0000034c 	andeq	r0, r0, ip, asr #6
     710:	1c760003 	ldclne	0, cr0, [r6], #-12
     714:	0000009f 	muleq	r0, pc, r0	; <UNPREDICTABLE>
	...
     720:	00018800 	andeq	r8, r1, r0, lsl #16
     724:	0001a700 	andeq	sl, r1, r0, lsl #14
     728:	50000100 	andpl	r0, r0, r0, lsl #2
     72c:	000001a7 	andeq	r0, r0, r7, lsr #3
     730:	00000270 	andeq	r0, r0, r0, ror r2
     734:	00540001 	subseq	r0, r4, r1
     738:	00000000 	andeq	r0, r0, r0
     73c:	01000000 	mrseq	r0, (UNDEF: 0)
     740:	0001d400 	andeq	sp, r1, r0, lsl #8
     744:	00025000 	andeq	r5, r2, r0
     748:	54000100 	strpl	r0, [r0], #-256	; 0xffffff00
	...
     754:	00020202 	andeq	r0, r2, r2, lsl #4
     758:	000001e8 	andeq	r0, r0, r8, ror #3
     75c:	00000210 	andeq	r0, r0, r0, lsl r2
     760:	10740003 	rsbsne	r0, r4, r3
     764:	0002109f 	muleq	r2, pc, r0	; <UNPREDICTABLE>
     768:	00025000 	andeq	r5, r2, r0
     76c:	74000300 	strvc	r0, [r0], #-768	; 0xfffffd00
     770:	00009f1c 	andeq	r9, r0, ip, lsl pc
	...
     77c:	01640000 	cmneq	r4, r0
     780:	017f0000 	cmneq	pc, r0
     784:	00010000 	andeq	r0, r1, r0
     788:	00017f50 	andeq	r7, r1, r0, asr pc
     78c:	00018800 	andeq	r8, r1, r0, lsl #16
     790:	54000100 	strpl	r0, [r0], #-256	; 0xffffff00
	...
     79c:	01700000 	cmneq	r0, r0
     7a0:	01880000 	orreq	r0, r8, r0
     7a4:	00010000 	andeq	r0, r1, r0
     7a8:	00000055 	andeq	r0, r0, r5, asr r0
     7ac:	00000000 	andeq	r0, r0, r0
     7b0:	80000000 	andhi	r0, r0, r0
     7b4:	88000001 	stmdahi	r0, {r0}
     7b8:	01000001 	tsteq	r0, r1
     7bc:	00005000 	andeq	r5, r0, r0
	...
     7c8:	003c0000 	eorseq	r0, ip, r0
     7cc:	00400000 	subeq	r0, r0, r0
     7d0:	00010000 	andeq	r0, r1, r0
     7d4:	00004050 	andeq	r4, r0, r0, asr r0
     7d8:	00004400 	andeq	r4, r0, r0, lsl #8
     7dc:	70000400 	andvc	r0, r0, r0, lsl #8
     7e0:	009f01b8 			; <UNDEFINED> instruction: 0x009f01b8
	...
     7ec:	30000000 	andcc	r0, r0, r0
     7f0:	34000000 	strcc	r0, [r0], #-0
     7f4:	01000000 	mrseq	r0, (UNDEF: 0)
     7f8:	00345000 	eorseq	r5, r4, r0
     7fc:	003c0000 	eorseq	r0, ip, r0
     800:	00040000 	andeq	r0, r4, r0
     804:	9f5001f3 	svcls	0x005001f3
	...
     814:	00000018 	andeq	r0, r0, r8, lsl r0
     818:	00000023 	andeq	r0, r0, r3, lsr #32
     81c:	23500001 	cmpcs	r0, #1
     820:	30000000 	andcc	r0, r0, r0
     824:	01000000 	mrseq	r0, (UNDEF: 0)
     828:	00005400 	andeq	r5, r0, r0, lsl #8
	...
     834:	00080000 	andeq	r0, r8, r0
     838:	000f0000 	andeq	r0, pc, r0
     83c:	00010000 	andeq	r0, r1, r0
     840:	00000f50 	andeq	r0, r0, r0, asr pc
     844:	00001800 	andeq	r1, r0, r0, lsl #16
     848:	f3000400 	vshl.u8	d0, d0, d0
     84c:	009f5001 	addseq	r5, pc, r1
	...
     85c:	04000000 	streq	r0, [r0], #-0
     860:	01000000 	mrseq	r0, (UNDEF: 0)
     864:	00045000 	andeq	r5, r4, r0
     868:	00080000 	andeq	r0, r8, r0
     86c:	00030000 	andeq	r0, r3, r0
     870:	009f4870 	addseq	r4, pc, r0, ror r8	; <UNPREDICTABLE>
	...
     884:	0003d000 	andeq	sp, r3, r0
     888:	0003f800 	andeq	pc, r3, r0, lsl #16
     88c:	50000100 	andpl	r0, r0, r0, lsl #2
     890:	000003f8 	strdeq	r0, [r0], -r8
     894:	0000040c 	andeq	r0, r0, ip, lsl #8
     898:	0c540001 	mrrceq	0, 0, r0, r4, cr1
     89c:	14000004 	strne	r0, [r0], #-4
     8a0:	05000004 	streq	r0, [r0, #-4]
     8a4:	9cc00300 	stclls	3, cr0, [r0], {0}
     8a8:	04140000 	ldreq	r0, [r4], #-0
     8ac:	04170000 	ldreq	r0, [r7], #-0
     8b0:	00010000 	andeq	r0, r1, r0
     8b4:	00041750 	andeq	r1, r4, r0, asr r7
     8b8:	00044400 	andeq	r4, r4, r0, lsl #8
     8bc:	f3000400 	vshl.u8	d0, d0, d0
     8c0:	009f5001 	addseq	r5, pc, r1
	...
     8d0:	d0000000 	andle	r0, r0, r0
     8d4:	f4000003 	vst4.8	{d0-d3}, [r0], r3
     8d8:	01000003 	tsteq	r0, r3
     8dc:	03f45100 	mvnseq	r5, #0, 2
     8e0:	04140000 	ldreq	r0, [r4], #-0
     8e4:	00010000 	andeq	r0, r1, r0
     8e8:	00041455 	andeq	r1, r4, r5, asr r4
     8ec:	00041700 	andeq	r1, r4, r0, lsl #14
     8f0:	51000100 	mrspl	r0, (UNDEF: 16)
     8f4:	00000417 	andeq	r0, r0, r7, lsl r4
     8f8:	00000444 	andeq	r0, r0, r4, asr #8
     8fc:	01f30004 	mvnseq	r0, r4
     900:	00009f51 	andeq	r9, r0, r1, asr pc
     904:	00000000 	andeq	r0, r0, r0
     908:	01000000 	mrseq	r0, (UNDEF: 0)
     90c:	00000001 	andeq	r0, r0, r1
     910:	00000000 	andeq	r0, r0, r0
     914:	00200000 	eoreq	r0, r0, r0
     918:	00010000 	andeq	r0, r1, r0
     91c:	00002050 	andeq	r2, r0, r0, asr r0
     920:	0000e400 	andeq	lr, r0, r0, lsl #8
     924:	f3000400 	vshl.u8	d0, d0, d0
     928:	e49f5001 	ldr	r5, [pc], #1	; 930 <_start-0x76d0>
     92c:	e8000000 	stmda	r0, {}	; <UNPREDICTABLE>
     930:	01000000 	mrseq	r0, (UNDEF: 0)
     934:	00e85000 	rsceq	r5, r8, r0
     938:	00ec0000 	rsceq	r0, ip, r0
     93c:	00040000 	andeq	r0, r4, r0
     940:	9f5001f3 	svcls	0x005001f3
	...
     958:	00200000 	eoreq	r0, r0, r0
     95c:	00010000 	andeq	r0, r1, r0
     960:	00002051 	andeq	r2, r0, r1, asr r0
     964:	00007400 	andeq	r7, r0, r0, lsl #8
     968:	51000100 	mrspl	r0, (UNDEF: 16)
     96c:	00000090 	muleq	r0, r0, r0
     970:	00000094 	muleq	r0, r4, r0
     974:	b4510001 	ldrblt	r0, [r1], #-1
     978:	b8000000 	stmdalt	r0, {}	; <UNPREDICTABLE>
     97c:	01000000 	mrseq	r0, (UNDEF: 0)
     980:	00d05100 	sbcseq	r5, r0, r0, lsl #2
     984:	00ec0000 	rsceq	r0, ip, r0
     988:	00010000 	andeq	r0, r1, r0
     98c:	00000051 	andeq	r0, r0, r1, asr r0
     990:	00000000 	andeq	r0, r0, r0
     994:	01010200 	mrseq	r0, R9_usr
	...
     9a0:	00002000 	andeq	r2, r0, r0
     9a4:	50000100 	andpl	r0, r0, r0, lsl #2
     9a8:	00000020 	andeq	r0, r0, r0, lsr #32
     9ac:	000000e4 	andeq	r0, r0, r4, ror #1
     9b0:	e45c0001 	ldrb	r0, [ip], #-1
     9b4:	e8000000 	stmda	r0, {}	; <UNPREDICTABLE>
     9b8:	01000000 	mrseq	r0, (UNDEF: 0)
     9bc:	00e85000 	rsceq	r5, r8, r0
     9c0:	00ec0000 	rsceq	r0, ip, r0
     9c4:	00040000 	andeq	r0, r4, r0
     9c8:	9f5001f3 	svcls	0x005001f3
	...
     9d4:	00000003 	andeq	r0, r0, r3
	...
     9e4:	00200000 	eoreq	r0, r0, r0
     9e8:	00010000 	andeq	r0, r1, r0
     9ec:	00002051 	andeq	r2, r0, r1, asr r0
     9f0:	00003800 	andeq	r3, r0, r0, lsl #16
     9f4:	53000100 	movwpl	r0, #256	; 0x100
     9f8:	00000038 	andeq	r0, r0, r8, lsr r0
     9fc:	0000004c 	andeq	r0, r0, ip, asr #32
     a00:	4c520001 	mrrcmi	0, 0, r0, r2, cr1
     a04:	78000000 	stmdavc	r0, {}	; <UNPREDICTABLE>
     a08:	01000000 	mrseq	r0, (UNDEF: 0)
     a0c:	00785300 	rsbseq	r5, r8, r0, lsl #6
     a10:	00900000 	addseq	r0, r0, r0
     a14:	00010000 	andeq	r0, r1, r0
     a18:	00009050 	andeq	r9, r0, r0, asr r0
     a1c:	0000e400 	andeq	lr, r0, r0, lsl #8
     a20:	53000100 	movwpl	r0, #256	; 0x100
     a24:	000000e4 	andeq	r0, r0, r4, ror #1
     a28:	000000ec 	andeq	r0, r0, ip, ror #1
     a2c:	00510001 	subseq	r0, r1, r1
	...
     a3c:	00004800 	andeq	r4, r0, r0, lsl #16
     a40:	00004c00 	andeq	r4, r0, r0, lsl #24
     a44:	53000100 	movwpl	r0, #256	; 0x100
     a48:	0000004c 	andeq	r0, r0, ip, asr #32
     a4c:	00000050 	andeq	r0, r0, r0, asr r0
     a50:	00700012 	rsbseq	r0, r0, r2, lsl r0
     a54:	027c2438 	rsbseq	r2, ip, #56, 8	; 0x38000000
     a58:	ff080194 			; <UNDEFINED> instruction: 0xff080194
     a5c:	243b221a 	ldrtcs	r2, [fp], #-538	; 0xfffffde6
     a60:	9f270072 	svcls	0x00270072
     a64:	00000050 	andeq	r0, r0, r0, asr r0
     a68:	0000005c 	andeq	r0, r0, ip, asr r0
     a6c:	00700012 	rsbseq	r0, r0, r2, lsl r0
     a70:	7e7c2438 	mrcvc	4, 3, r2, cr12, cr8, {1}
     a74:	ff080194 			; <UNDEFINED> instruction: 0xff080194
     a78:	243b221a 	ldrtcs	r2, [fp], #-538	; 0xfffffde6
     a7c:	9f270072 	svcls	0x00270072
	...
     a88:	001c0000 	andseq	r0, ip, r0
     a8c:	00e40000 	rsceq	r0, r4, r0
     a90:	00010000 	andeq	r0, r1, r0
     a94:	0000005e 	andeq	r0, r0, lr, asr r0
	...
     aa4:	00000400 	andeq	r0, r0, r0, lsl #8
     aa8:	52000100 	andpl	r0, r0, #0, 2
     aac:	00000004 	andeq	r0, r0, r4
     ab0:	00000018 	andeq	r0, r0, r8, lsl r0
     ab4:	01f30004 	mvnseq	r0, r4
     ab8:	00009f52 	andeq	r9, r0, r2, asr pc
     abc:	00000000 	andeq	r0, r0, r0
     ac0:	00020000 	andeq	r0, r2, r0
     ac4:	00010100 	andeq	r0, r1, r0, lsl #2
     ac8:	00000000 	andeq	r0, r0, r0
     acc:	00080000 	andeq	r0, r8, r0
     ad0:	00010000 	andeq	r0, r1, r0
     ad4:	00000850 	andeq	r0, r0, r0, asr r8
     ad8:	00001000 	andeq	r1, r0, r0
     adc:	53000100 	movwpl	r0, #256	; 0x100
     ae0:	00000010 	andeq	r0, r0, r0, lsl r0
     ae4:	00000014 	andeq	r0, r0, r4, lsl r0
     ae8:	01730003 	cmneq	r3, r3
     aec:	0000149f 	muleq	r0, pc, r4	; <UNPREDICTABLE>
     af0:	00001800 	andeq	r1, r0, r0, lsl #16
     af4:	53000100 	movwpl	r0, #256	; 0x100
	...
     b00:	00040000 	andeq	r0, r4, r0
     b04:	00180000 	andseq	r0, r8, r0
     b08:	00010000 	andeq	r0, r1, r0
     b0c:	00000052 	andeq	r0, r0, r2, asr r0
	...
     b18:	2c000000 	stccs	0, cr0, [r0], {-0}
     b1c:	38000000 	stmdacc	r0, {}	; <UNPREDICTABLE>
     b20:	01000000 	mrseq	r0, (UNDEF: 0)
     b24:	00385000 	eorseq	r5, r8, r0
     b28:	00480000 	subeq	r0, r8, r0
     b2c:	00010000 	andeq	r0, r1, r0
     b30:	00004854 	andeq	r4, r0, r4, asr r8
     b34:	00005800 	andeq	r5, r0, r0, lsl #16
     b38:	50000100 	andpl	r0, r0, r0, lsl #2
	...
     b4c:	0000000b 	andeq	r0, r0, fp
     b50:	0b500001 	bleq	1400b5c <__bss_end__+0x13f6a8c>
     b54:	14000000 	strne	r0, [r0], #-0
     b58:	01000000 	mrseq	r0, (UNDEF: 0)
     b5c:	00005400 	andeq	r5, r0, r0, lsl #8
     b60:	00000000 	andeq	r0, r0, r0
     b64:	01000000 	mrseq	r0, (UNDEF: 0)
     b68:	00000001 	andeq	r0, r0, r1
     b6c:	00080000 	andeq	r0, r8, r0
     b70:	00010000 	andeq	r0, r1, r0
     b74:	00000850 	andeq	r0, r0, r0, asr r8
     b78:	00003400 	andeq	r3, r0, r0, lsl #8
     b7c:	54000100 	strpl	r0, [r0], #-256	; 0xffffff00
	...
     b8c:	02700000 	rsbseq	r0, r0, #0
     b90:	029c0000 	addseq	r0, ip, #0
     b94:	00010000 	andeq	r0, r1, r0
     b98:	00029c50 	andeq	r9, r2, r0, asr ip
     b9c:	00050c00 	andeq	r0, r5, r0, lsl #24
     ba0:	57000100 	strpl	r0, [r0, -r0, lsl #2]
     ba4:	0000050c 	andeq	r0, r0, ip, lsl #10
     ba8:	00000520 	andeq	r0, r0, r0, lsr #10
     bac:	01f30004 	mvnseq	r0, r4
     bb0:	00009f50 	andeq	r9, r0, r0, asr pc
	...
     bc0:	00000270 	andeq	r0, r0, r0, ror r2
     bc4:	00000288 	andeq	r0, r0, r8, lsl #5
     bc8:	88510001 	ldmdahi	r1, {r0}^
     bcc:	9c000002 	stcls	0, cr0, [r0], {2}
     bd0:	03000002 	movweq	r0, #2
     bd4:	9f017100 	svcls	0x00017100
     bd8:	0000029c 	muleq	r0, ip, r2
     bdc:	00000520 	andeq	r0, r0, r0, lsr #10
     be0:	01f30004 	mvnseq	r0, r4
     be4:	00009f51 	andeq	r9, r0, r1, asr pc
	...
     bf0:	02700000 	rsbseq	r0, r0, #0
     bf4:	029c0000 	addseq	r0, ip, #0
     bf8:	00010000 	andeq	r0, r1, r0
     bfc:	00029c52 	andeq	r9, r2, r2, asr ip
     c00:	00050c00 	andeq	r0, r5, r0, lsl #24
     c04:	59000100 	stmdbpl	r0, {r8}
	...
     c10:	00000001 	andeq	r0, r0, r1
     c14:	01000000 	mrseq	r0, (UNDEF: 0)
     c18:	00000001 	andeq	r0, r0, r1
     c1c:	02000000 	andeq	r0, r0, #0
     c20:	00000002 	andeq	r0, r0, r2
     c24:	00000284 	andeq	r0, r0, r4, lsl #5
     c28:	0000029c 	muleq	r0, ip, r2
     c2c:	9c500001 	mrrcls	0, 0, r0, r0, cr1	; <UNPREDICTABLE>
     c30:	a0000002 	andge	r0, r0, r2
     c34:	01000002 	tsteq	r0, r2
     c38:	02a05400 	adceq	r5, r0, #0, 8
     c3c:	02a40000 	adceq	r0, r4, #0
     c40:	00030000 	andeq	r0, r3, r0
     c44:	a49f0174 	ldrge	r0, [pc], #372	; c4c <_start-0x73b4>
     c48:	c8000002 	stmdagt	r0, {r1}
     c4c:	01000002 	tsteq	r0, r2
     c50:	02c85400 	sbceq	r5, r8, #0, 8
     c54:	02cc0000 	sbceq	r0, ip, #0
     c58:	00030000 	andeq	r0, r3, r0
     c5c:	cc9f0174 	ldfgts	f0, [pc], {116}	; 0x74
     c60:	f8000002 			; <UNDEFINED> instruction: 0xf8000002
     c64:	01000003 	tsteq	r0, r3
     c68:	03f85400 	mvnseq	r5, #0, 8
     c6c:	03fc0000 	mvnseq	r0, #0
     c70:	00030000 	andeq	r0, r3, r0
     c74:	fc9f0174 	ldc2	1, cr0, [pc], {116}	; 0x74
     c78:	f8000003 			; <UNDEFINED> instruction: 0xf8000003
     c7c:	01000004 	tsteq	r0, r4
     c80:	04f85400 	ldrbteq	r5, [r8], #1024	; 0x400
     c84:	05000000 	streq	r0, [r0, #-0]
     c88:	00030000 	andeq	r0, r3, r0
     c8c:	009f0174 	addseq	r0, pc, r4, ror r1	; <UNPREDICTABLE>
     c90:	0c000005 	stceq	0, cr0, [r0], {5}
     c94:	01000005 	tsteq	r0, r5
     c98:	00005400 	andeq	r5, r0, r0, lsl #8
	...
     ca4:	028c0000 	addeq	r0, ip, #0
     ca8:	050c0000 	streq	r0, [ip, #-0]
     cac:	00010000 	andeq	r0, r1, r0
     cb0:	00050c58 	andeq	r0, r5, r8, asr ip
     cb4:	00052000 	andeq	r2, r5, r0
     cb8:	f3000a00 	vpmax.u8	d0, d0, d0
     cbc:	01f35101 	mvnseq	r5, r1, lsl #2
     cc0:	1c312250 	lfmne	f2, 4, [r1], #-320	; 0xfffffec0
     cc4:	0000009f 	muleq	r0, pc, r0	; <UNPREDICTABLE>
	...
     cd4:	dc000000 	stcle	0, cr0, [r0], {-0}
     cd8:	00000003 	andeq	r0, r0, r3
     cdc:	01000004 	tsteq	r0, r4
     ce0:	042c5000 	strteq	r5, [ip], #-0
     ce4:	04300000 	ldrteq	r0, [r0], #-0
     ce8:	00010000 	andeq	r0, r1, r0
     cec:	00045c50 	andeq	r5, r4, r0, asr ip
     cf0:	00046000 	andeq	r6, r4, r0
     cf4:	50000100 	andpl	r0, r0, r0, lsl #2
     cf8:	0000048c 	andeq	r0, r0, ip, lsl #9
     cfc:	00000490 	muleq	r0, r0, r4
     d00:	d0500001 	subsle	r0, r0, r1
     d04:	d4000004 	strle	r0, [r0], #-4
     d08:	01000004 	tsteq	r0, r4
     d0c:	00005000 	andeq	r5, r0, r0
     d10:	00000000 	andeq	r0, r0, r0
     d14:	00020000 	andeq	r0, r2, r0
     d18:	00000000 	andeq	r0, r0, r0
     d1c:	000002d8 	ldrdeq	r0, [r0], -r8
     d20:	000002e0 	andeq	r0, r0, r0, ror #5
     d24:	9f300002 	svcls	0x00300002
     d28:	000002e0 	andeq	r0, r0, r0, ror #5
     d2c:	000002e4 	andeq	r0, r0, r4, ror #5
     d30:	ec560001 	mrrc	0, 0, r0, r6, cr1
     d34:	f8000002 			; <UNDEFINED> instruction: 0xf8000002
     d38:	01000004 	tsteq	r0, r4
     d3c:	00005600 	andeq	r5, r0, r0, lsl #12
	...
     d4c:	00000070 	andeq	r0, r0, r0, ror r0
     d50:	00000094 	muleq	r0, r4, r0
     d54:	94500001 	ldrbls	r0, [r0], #-1
     d58:	fc000000 	stc2	0, cr0, [r0], {-0}
     d5c:	03000000 	movweq	r0, #0
     d60:	9f027000 	svcls	0x00027000
     d64:	000000fc 	strdeq	r0, [r0], -ip
     d68:	0000021c 	andeq	r0, r0, ip, lsl r2
     d6c:	01f30004 	mvnseq	r0, r4
     d70:	00009f50 	andeq	r9, r0, r0, asr pc
	...
     d88:	00700000 	rsbseq	r0, r0, r0
     d8c:	00e00000 	rsceq	r0, r0, r0
     d90:	00010000 	andeq	r0, r1, r0
     d94:	0000e051 	andeq	lr, r0, r1, asr r0
     d98:	00015400 	andeq	r5, r1, r0, lsl #8
     d9c:	55000100 	strpl	r0, [r0, #-256]	; 0xffffff00
     da0:	00000154 	andeq	r0, r0, r4, asr r1
     da4:	00000158 	andeq	r0, r0, r8, asr r1
     da8:	58510001 	ldmdapl	r1, {r0}^
     dac:	b0000001 	andlt	r0, r0, r1
     db0:	01000001 	tsteq	r0, r1
     db4:	01b05500 	lslseq	r5, r0, #10
     db8:	01c00000 	biceq	r0, r0, r0
     dbc:	00010000 	andeq	r0, r1, r0
     dc0:	0001c051 	andeq	ip, r1, r1, asr r0
     dc4:	0001e400 	andeq	lr, r1, r0, lsl #8
     dc8:	55000100 	strpl	r0, [r0, #-256]	; 0xffffff00
     dcc:	000001e4 	andeq	r0, r0, r4, ror #3
     dd0:	000001e7 	andeq	r0, r0, r7, ror #3
     dd4:	e7510001 	ldrb	r0, [r1, -r1]
     dd8:	1c000001 	stcne	0, cr0, [r0], {1}
     ddc:	01000002 	tsteq	r0, r2
     de0:	00005500 	andeq	r5, r0, r0, lsl #10
	...
     dec:	00700000 	rsbseq	r0, r0, r0
     df0:	00840000 	addeq	r0, r4, r0
     df4:	00010000 	andeq	r0, r1, r0
     df8:	00008452 	andeq	r8, r0, r2, asr r4
     dfc:	00021c00 	andeq	r1, r2, r0, lsl #24
     e00:	54000100 	strpl	r0, [r0], #-256	; 0xffffff00
	...
     e10:	00000100 	andeq	r0, r0, r0, lsl #2
     e14:	00700000 	rsbseq	r0, r0, r0
     e18:	00f40000 	rscseq	r0, r4, r0
     e1c:	00010000 	andeq	r0, r1, r0
     e20:	00014c53 	andeq	r4, r1, r3, asr ip
     e24:	00018000 	andeq	r8, r1, r0
     e28:	53000100 	movwpl	r0, #256	; 0x100
     e2c:	00000180 	andeq	r0, r0, r0, lsl #3
     e30:	0000018c 	andeq	r0, r0, ip, lsl #3
     e34:	01f30004 	mvnseq	r0, r4
     e38:	01b09f53 	asrseq	r9, r3, pc
     e3c:	01e70000 	mvneq	r0, r0
     e40:	00010000 	andeq	r0, r1, r0
     e44:	0001e753 	andeq	lr, r1, r3, asr r7
     e48:	00021c00 	andeq	r1, r2, r0, lsl #24
     e4c:	f3000400 	vshl.u8	d0, d0, d0
     e50:	009f5301 	addseq	r5, pc, r1, lsl #6
	...
     e60:	00007000 	andeq	r7, r0, r0
     e64:	00008c00 	andeq	r8, r0, r0, lsl #24
     e68:	91000200 	mrsls	r0, R8_usr
     e6c:	00008c00 	andeq	r8, r0, r0, lsl #24
     e70:	00019300 	andeq	r9, r1, r0, lsl #6
     e74:	52000100 	andpl	r0, r0, #0, 2
     e78:	000001b0 			; <UNDEFINED> instruction: 0x000001b0
     e7c:	000001e7 	andeq	r0, r0, r7, ror #3
     e80:	00520001 	subseq	r0, r2, r1
     e84:	00000000 	andeq	r0, r0, r0
     e88:	01000000 	mrseq	r0, (UNDEF: 0)
     e8c:	01010000 	mrseq	r0, (UNDEF: 1)
	...
     e98:	01010101 	tsteq	r1, r1, lsl #2
     e9c:	01010000 	mrseq	r0, (UNDEF: 1)
	...
     ea8:	8c000000 	stchi	0, cr0, [r0], {-0}
     eac:	fc000000 	stc2	0, cr0, [r0], {-0}
     eb0:	01000000 	mrseq	r0, (UNDEF: 0)
     eb4:	00fc5d00 	rscseq	r5, ip, r0, lsl #26
     eb8:	013c0000 	teqeq	ip, r0
     ebc:	00010000 	andeq	r0, r1, r0
     ec0:	00013c50 	andeq	r3, r1, r0, asr ip
     ec4:	00014800 	andeq	r4, r1, r0, lsl #16
     ec8:	71000300 	mrsvc	r0, LR_irq
     ecc:	01489f02 	cmpeq	r8, r2, lsl #30
     ed0:	014c0000 	mrseq	r0, (UNDEF: 76)
     ed4:	00010000 	andeq	r0, r1, r0
     ed8:	00014c50 	andeq	r4, r1, r0, asr ip
     edc:	00015800 	andeq	r5, r1, r0, lsl #16
     ee0:	5d000100 	stfpls	f0, [r0, #-0]
     ee4:	00000158 	andeq	r0, r0, r8, asr r1
     ee8:	0000016c 	andeq	r0, r0, ip, ror #2
     eec:	6c510001 	mrrcvs	0, 0, r0, r1, cr1
     ef0:	78000001 	stmdavc	r0, {r0}
     ef4:	03000001 	movweq	r0, #1
     ef8:	9f7f7100 	svcls	0x007f7100
     efc:	00000178 	andeq	r0, r0, r8, ror r1
     f00:	00000184 	andeq	r0, r0, r4, lsl #3
     f04:	01710003 	cmneq	r1, r3
     f08:	0001849f 	muleq	r1, pc, r4	; <UNPREDICTABLE>
     f0c:	00019300 	andeq	r9, r1, r0, lsl #6
     f10:	50000100 	andpl	r0, r0, r0, lsl #2
     f14:	000001b0 			; <UNDEFINED> instruction: 0x000001b0
     f18:	000001b0 			; <UNDEFINED> instruction: 0x000001b0
     f1c:	b05d0001 	subslt	r0, sp, r1
     f20:	b8000001 	stmdalt	r0, {r0}
     f24:	04000001 	streq	r0, [r0], #-1
     f28:	7fa19100 	svcvc	0x00a19100
     f2c:	0001b89f 	muleq	r1, pc, r8	; <UNPREDICTABLE>
     f30:	0001bc00 	andeq	fp, r1, r0, lsl #24
     f34:	50000100 	andpl	r0, r0, r0, lsl #2
     f38:	000001bc 			; <UNDEFINED> instruction: 0x000001bc
     f3c:	000001c0 	andeq	r0, r0, r0, asr #3
     f40:	c05d0001 	subsgt	r0, sp, r1
     f44:	d4000001 	strle	r0, [r0], #-1
     f48:	01000001 	tsteq	r0, r1
     f4c:	01d45000 	bicseq	r5, r4, r0
     f50:	01e40000 	mvneq	r0, r0
     f54:	00030000 	andeq	r0, r3, r0
     f58:	e49f7f70 	ldr	r7, [pc], #3952	; f60 <_start-0x70a0>
     f5c:	1c000001 	stcne	0, cr0, [r0], {1}
     f60:	01000002 	tsteq	r0, r2
     f64:	00005d00 	andeq	r5, r0, r0, lsl #26
	...
     f70:	00010100 	andeq	r0, r1, r0, lsl #2
	...
     f80:	00000090 	muleq	r0, r0, r0
     f84:	000000dc 	ldrdeq	r0, [r0], -ip
     f88:	dc5c0001 	mrrcle	0, 0, r0, ip, cr1
     f8c:	f4000000 	vst4.8	{d0-d3}, [r0], r0
     f90:	01000000 	mrseq	r0, (UNDEF: 0)
     f94:	00f45300 	rscseq	r5, r4, r0, lsl #6
     f98:	014c0000 	mrseq	r0, (UNDEF: 76)
     f9c:	00010000 	andeq	r0, r1, r0
     fa0:	00014c5c 	andeq	r4, r1, ip, asr ip
     fa4:	00015800 	andeq	r5, r1, r0, lsl #16
     fa8:	53000100 	movwpl	r0, #256	; 0x100
     fac:	00000158 	andeq	r0, r0, r8, asr r1
     fb0:	00000174 	andeq	r0, r0, r4, ror r1
     fb4:	b05c0001 	subslt	r0, ip, r1
     fb8:	c0000001 	andgt	r0, r0, r1
     fbc:	01000001 	tsteq	r0, r1
     fc0:	01c05300 	biceq	r5, r0, r0, lsl #6
     fc4:	01dc0000 	bicseq	r0, ip, r0
     fc8:	00010000 	andeq	r0, r1, r0
     fcc:	0001e45c 	andeq	lr, r1, ip, asr r4
     fd0:	0001e700 	andeq	lr, r1, r0, lsl #14
     fd4:	53000100 	movwpl	r0, #256	; 0x100
     fd8:	000001e7 	andeq	r0, r0, r7, ror #3
     fdc:	0000021c 	andeq	r0, r0, ip, lsl r2
     fe0:	01f30004 	mvnseq	r0, r4
     fe4:	00009f53 	andeq	r9, r0, r3, asr pc
     fe8:	00000000 	andeq	r0, r0, r0
     fec:	01010000 	mrseq	r0, (UNDEF: 1)
     ff0:	00000001 	andeq	r0, r0, r1
     ff4:	00dc0000 	sbcseq	r0, ip, r0
     ff8:	00f00000 	rscseq	r0, r0, r0
     ffc:	00020000 	andeq	r0, r2, r0
    1000:	00f09f30 	rscseq	r9, r0, r0, lsr pc
    1004:	00f80000 	rscseq	r0, r8, r0
    1008:	00020000 	andeq	r0, r2, r0
    100c:	00fc9f31 	rscseq	r9, ip, r1, lsr pc
    1010:	014c0000 	mrseq	r0, (UNDEF: 76)
    1014:	00010000 	andeq	r0, r1, r0
    1018:	00014c56 	andeq	r4, r1, r6, asr ip
    101c:	00015400 	andeq	r5, r1, r0, lsl #8
    1020:	30000200 	andcc	r0, r0, r0, lsl #4
    1024:	0000009f 	muleq	r0, pc, r0	; <UNPREDICTABLE>
	...
    1030:	00000101 	andeq	r0, r0, r1, lsl #2
    1034:	38000101 	stmdacc	r0, {r0, r8}
    1038:	54000000 	strpl	r0, [r0], #-0
    103c:	01000000 	mrseq	r0, (UNDEF: 0)
    1040:	00545000 	subseq	r5, r4, r0
    1044:	00580000 	subseq	r0, r8, r0
    1048:	00010000 	andeq	r0, r1, r0
    104c:	00005852 	andeq	r5, r0, r2, asr r8
    1050:	00006000 	andeq	r6, r0, r0
    1054:	72000300 	andvc	r0, r0, #0, 6
    1058:	00609f01 	rsbeq	r9, r0, r1, lsl #30
    105c:	00640000 	rsbeq	r0, r4, r0
    1060:	00010000 	andeq	r0, r1, r0
    1064:	00006452 	andeq	r6, r0, r2, asr r4
    1068:	00007000 	andeq	r7, r0, r0
    106c:	72000300 	andvc	r0, r0, #0, 6
    1070:	00009f01 	andeq	r9, r0, r1, lsl #30
	...
    107c:	00380000 	eorseq	r0, r8, r0
    1080:	00500000 	subseq	r0, r0, r0
    1084:	00010000 	andeq	r0, r1, r0
    1088:	00005051 	andeq	r5, r0, r1, asr r0
    108c:	00007000 	andeq	r7, r0, r0
    1090:	f3000400 	vshl.u8	d0, d0, d0
    1094:	009f5101 	addseq	r5, pc, r1, lsl #2
	...
    10a4:	38000101 	stmdacc	r0, {r0, r8}
    10a8:	50000000 	andpl	r0, r0, r0
    10ac:	01000000 	mrseq	r0, (UNDEF: 0)
    10b0:	00505200 	subseq	r5, r0, r0, lsl #4
    10b4:	005c0000 	subseq	r0, ip, r0
    10b8:	00010000 	andeq	r0, r1, r0
    10bc:	00005c51 	andeq	r5, r0, r1, asr ip
    10c0:	00006000 	andeq	r6, r0, r0
    10c4:	71000300 	mrsvc	r0, LR_irq
    10c8:	00609f01 	rsbeq	r9, r0, r1, lsl #30
    10cc:	00700000 	rsbseq	r0, r0, r0
    10d0:	00010000 	andeq	r0, r1, r0
    10d4:	00000051 	andeq	r0, r0, r1, asr r0
	...
    10e0:	00003800 	andeq	r3, r0, r0, lsl #16
    10e4:	00004c00 	andeq	r4, r0, r0, lsl #24
    10e8:	53000100 	movwpl	r0, #256	; 0x100
    10ec:	0000004c 	andeq	r0, r0, ip, asr #32
    10f0:	00000068 	andeq	r0, r0, r8, rrx
    10f4:	00530001 	subseq	r0, r3, r1
	...
    1104:	40000000 	andmi	r0, r0, r0
    1108:	48000000 	stmdami	r0, {}	; <UNPREDICTABLE>
    110c:	01000000 	mrseq	r0, (UNDEF: 0)
    1110:	00485c00 	subeq	r5, r8, r0, lsl #24
    1114:	004c0000 	subeq	r0, ip, r0
    1118:	00080000 	andeq	r0, r8, r0
    111c:	00730072 	rsbseq	r0, r3, r2, ror r0
    1120:	9f01231c 	svcls	0x0001231c
    1124:	0000004c 	andeq	r0, r0, ip, asr #32
    1128:	00000054 	andeq	r0, r0, r4, asr r0
    112c:	00720009 	rsbseq	r0, r2, r9
    1130:	1c5301f3 	ldfnee	f0, [r3], {243}	; 0xf3
    1134:	549f0123 	ldrpl	r0, [pc], #291	; 113c <_start-0x6ec4>
    1138:	70000000 	andvc	r0, r0, r0
    113c:	0a000000 	beq	1144 <_start-0x6ebc>
    1140:	5201f300 	andpl	pc, r1, #0, 6
    1144:	1c5301f3 	ldfnee	f0, [r3], {243}	; 0xf3
    1148:	009f0123 	addseq	r0, pc, r3, lsr #2
    114c:	00000000 	andeq	r0, r0, r0
    1150:	01000000 	mrseq	r0, (UNDEF: 0)
    1154:	00004c00 	andeq	r4, r0, r0, lsl #24
    1158:	00007000 	andeq	r7, r0, r0
    115c:	50000100 	andpl	r0, r0, r0, lsl #2
	...
    1168:	00010100 	andeq	r0, r1, r0, lsl #2
    116c:	00140000 	andseq	r0, r4, r0
    1170:	001c0000 	andseq	r0, ip, r0
    1174:	00010000 	andeq	r0, r1, r0
    1178:	00001c50 	andeq	r1, r0, r0, asr ip
    117c:	00002400 	andeq	r2, r0, r0, lsl #8
    1180:	70000300 	andvc	r0, r0, r0, lsl #6
    1184:	00249f01 	eoreq	r9, r4, r1, lsl #30
    1188:	00380000 	eorseq	r0, r8, r0
    118c:	00010000 	andeq	r0, r1, r0
    1190:	00000050 	andeq	r0, r0, r0, asr r0
	...
    119c:	00001400 	andeq	r1, r0, r0, lsl #8
    11a0:	00001800 	andeq	r1, r0, r0, lsl #16
    11a4:	51000100 	mrspl	r0, (UNDEF: 16)
    11a8:	00000018 	andeq	r0, r0, r8, lsl r0
    11ac:	00000038 	andeq	r0, r0, r8, lsr r0
    11b0:	01f30004 	mvnseq	r0, r4
    11b4:	00009f51 	andeq	r9, r0, r1, asr pc
	...
    11c0:	00000018 	andeq	r0, r0, r8, lsl r0
    11c4:	00000038 	andeq	r0, r0, r8, lsr r0
    11c8:	00510001 	subseq	r0, r1, r1
	...
    11dc:	00000400 	andeq	r0, r0, r0, lsl #8
    11e0:	50000100 	andpl	r0, r0, r0, lsl #2
    11e4:	00000004 	andeq	r0, r0, r4
    11e8:	0000000c 	andeq	r0, r0, ip
    11ec:	30700003 	rsbscc	r0, r0, r3
    11f0:	00000c9f 	muleq	r0, pc, ip	; <UNPREDICTABLE>
    11f4:	00001400 	andeq	r1, r0, r0, lsl #8
    11f8:	f3000400 	vshl.u8	d0, d0, d0
    11fc:	009f5001 	addseq	r5, pc, r1
	...
    1208:	1c000000 	stcne	0, cr0, [r0], {-0}
    120c:	43000002 	movwmi	r0, #2
    1210:	01000002 	tsteq	r0, r2
    1214:	02435000 	subeq	r5, r3, #0
    1218:	02700000 	rsbseq	r0, r0, #0
    121c:	00040000 	andeq	r0, r4, r0
    1220:	9f5001f3 	svcls	0x005001f3
	...
    1230:	0000021c 	andeq	r0, r0, ip, lsl r2
    1234:	00000243 	andeq	r0, r0, r3, asr #4
    1238:	43510001 	cmpmi	r1, #1
    123c:	70000002 	andvc	r0, r0, r2
    1240:	04000002 	streq	r0, [r0], #-2
    1244:	5101f300 	mrspl	pc, SP_irq	; <UNPREDICTABLE>
    1248:	0000009f 	muleq	r0, pc, r0	; <UNPREDICTABLE>
    124c:	00000000 	andeq	r0, r0, r0
    1250:	01010000 	mrseq	r0, (UNDEF: 1)
    1254:	08000000 	stmdaeq	r0, {}	; <UNPREDICTABLE>
    1258:	10000000 	andne	r0, r0, r0
    125c:	01000000 	mrseq	r0, (UNDEF: 0)
    1260:	00105300 	andseq	r5, r0, r0, lsl #6
    1264:	00180000 	andseq	r0, r8, r0
    1268:	00030000 	andeq	r0, r3, r0
    126c:	189f0473 	ldmne	pc, {r0, r1, r4, r5, r6, sl}	; <UNPREDICTABLE>
    1270:	1f000000 	svcne	0x00000000
    1274:	01000000 	mrseq	r0, (UNDEF: 0)
    1278:	00005300 	andeq	r5, r0, r0, lsl #6
    127c:	00000000 	andeq	r0, r0, r0
    1280:	00010000 	andeq	r0, r1, r0
    1284:	000091b0 			; <UNDEFINED> instruction: 0x000091b0
    1288:	000091cc 	andeq	r9, r0, ip, asr #3
    128c:	1c0c0006 	stcne	0, cr0, [ip], {6}
    1290:	9f201000 	svcls	0x00201000
	...
    129c:	91b00002 	movsls	r0, r2
    12a0:	91cc0000 	bicls	r0, ip, r0
    12a4:	00060000 	andeq	r0, r6, r0
    12a8:	1000240c 	andne	r2, r0, ip, lsl #8
    12ac:	00009f20 	andeq	r9, r0, r0, lsr #30
    12b0:	00000000 	andeq	r0, r0, r0
    12b4:	00030000 	andeq	r0, r3, r0
    12b8:	000091b0 			; <UNDEFINED> instruction: 0x000091b0
    12bc:	000091cc 	andeq	r9, r0, ip, asr #3
    12c0:	b4080005 	strlt	r0, [r8], #-5
    12c4:	009f2447 	addseq	r2, pc, r7, asr #8
    12c8:	00000000 	andeq	r0, r0, r0
    12cc:	04000000 	streq	r0, [r0], #-0
    12d0:	0091b000 	addseq	fp, r1, r0
    12d4:	0091cc00 	addseq	ip, r1, r0, lsl #24
    12d8:	08000300 	stmdaeq	r0, {r8, r9}
    12dc:	00009f20 	andeq	r9, r0, r0, lsr #30
    12e0:	00000000 	andeq	r0, r0, r0
    12e4:	00020000 	andeq	r0, r2, r0
    12e8:	00000000 	andeq	r0, r0, r0
    12ec:	00009184 	andeq	r9, r0, r4, lsl #3
    12f0:	00009188 	andeq	r9, r0, r8, lsl #3
    12f4:	9f300002 	svcls	0x00300002
    12f8:	00009188 	andeq	r9, r0, r8, lsl #3
    12fc:	0000918c 	andeq	r9, r0, ip, lsl #3
    1300:	90530001 	subsls	r0, r3, r1
    1304:	98000091 	stmdals	r0, {r0, r4, r7}
    1308:	01000091 	swpeq	r0, r1, [r0]	; <UNPREDICTABLE>
    130c:	00005300 	andeq	r5, r0, r0, lsl #6
    1310:	00000000 	andeq	r0, r0, r0
    1314:	00020000 	andeq	r0, r2, r0
    1318:	916c0000 	cmnls	ip, r0
    131c:	91700000 	cmnls	r0, r0
    1320:	00020000 	andeq	r0, r2, r0
    1324:	91709f30 	cmnls	r0, r0, lsr pc
    1328:	91740000 	cmnls	r4, r0
    132c:	00010000 	andeq	r0, r1, r0
    1330:	00000050 	andeq	r0, r0, r0, asr r0
	...
    133c:	00007400 	andeq	r7, r0, r0, lsl #8
    1340:	00008000 	andeq	r8, r0, r0
    1344:	50000100 	andpl	r0, r0, r0, lsl #2
    1348:	00000080 	andeq	r0, r0, r0, lsl #1
    134c:	0000008c 	andeq	r0, r0, ip, lsl #1
    1350:	01f30004 	mvnseq	r0, r4
    1354:	00009f50 	andeq	r9, r0, r0, asr pc
	...
    1360:	005c0000 	subseq	r0, ip, r0
    1364:	00680000 	rsbeq	r0, r8, r0
    1368:	00010000 	andeq	r0, r1, r0
    136c:	00006850 	andeq	r6, r0, r0, asr r8
    1370:	00007400 	andeq	r7, r0, r0, lsl #8
    1374:	f3000400 	vshl.u8	d0, d0, d0
    1378:	009f5001 	addseq	r5, pc, r1
	...
    1384:	38000000 	stmdacc	r0, {}	; <UNPREDICTABLE>
    1388:	43000000 	movwmi	r0, #0
    138c:	01000000 	mrseq	r0, (UNDEF: 0)
    1390:	00435000 	subeq	r5, r3, r0
    1394:	005c0000 	subseq	r0, ip, r0
    1398:	00010000 	andeq	r0, r1, r0
    139c:	00000055 	andeq	r0, r0, r5, asr r0
    13a0:	00000000 	andeq	r0, r0, r0
    13a4:	48000000 	stmdami	r0, {}	; <UNPREDICTABLE>
    13a8:	5c000000 	stcpl	0, cr0, [r0], {-0}
    13ac:	01000000 	mrseq	r0, (UNDEF: 0)
    13b0:	00005400 	andeq	r5, r0, r0, lsl #8
	...
    13bc:	0000004c 	andeq	r0, r0, ip, asr #32
    13c0:	00000050 	andeq	r0, r0, r0, asr r0
    13c4:	00500001 	subseq	r0, r0, r1
	...
    13d0:	00003400 	andeq	r3, r0, r0, lsl #8
    13d4:	00003800 	andeq	r3, r0, r0, lsl #16
    13d8:	50000100 	andpl	r0, r0, r0, lsl #2
	...
    13ec:	00000004 	andeq	r0, r0, r4
    13f0:	04500001 	ldrbeq	r0, [r0], #-1
    13f4:	18000000 	stmdane	r0, {}	; <UNPREDICTABLE>
    13f8:	01000000 	mrseq	r0, (UNDEF: 0)
    13fc:	00005300 	andeq	r5, r0, r0, lsl #6
    1400:	00000000 	andeq	r0, r0, r0
    1404:	01380000 	teqeq	r8, r0
    1408:	01430000 	mrseq	r0, (UNDEF: 67)
    140c:	00010000 	andeq	r0, r1, r0
    1410:	00014350 	andeq	r4, r1, r0, asr r3
    1414:	00016800 	andeq	r6, r1, r0, lsl #16
    1418:	54000100 	strpl	r0, [r0], #-256	; 0xffffff00
	...
    1428:	0000000f 	andeq	r0, r0, pc
    142c:	0f500001 	svceq	0x00500001
    1430:	20000000 	andcs	r0, r0, r0
    1434:	01000000 	mrseq	r0, (UNDEF: 0)
    1438:	00005400 	andeq	r5, r0, r0, lsl #8
	...
    1444:	000f0000 	andeq	r0, pc, r0
    1448:	00010000 	andeq	r0, r1, r0
    144c:	00000f51 	andeq	r0, r0, r1, asr pc
    1450:	00002000 	andeq	r2, r0, r0
    1454:	55000100 	strpl	r0, [r0, #-256]	; 0xffffff00
	...
    1460:	000000ec 	andeq	r0, r0, ip, ror #1
    1464:	00000104 	andeq	r0, r0, r4, lsl #2
    1468:	04500001 	ldrbeq	r0, [r0], #-1
    146c:	14000001 	strne	r0, [r0], #-1
    1470:	04000001 	streq	r0, [r0], #-1
    1474:	5001f300 	andpl	pc, r1, r0, lsl #6
    1478:	0001149f 	muleq	r1, pc, r4	; <UNPREDICTABLE>
    147c:	00011800 	andeq	r1, r1, r0, lsl #16
    1480:	50000100 	andpl	r0, r0, r0, lsl #2
    1484:	00000118 	andeq	r0, r0, r8, lsl r1
    1488:	00000120 	andeq	r0, r0, r0, lsr #2
    148c:	01f30004 	mvnseq	r0, r4
    1490:	00009f50 	andeq	r9, r0, r0, asr pc
    1494:	00000000 	andeq	r0, r0, r0
    1498:	00f80000 	rscseq	r0, r8, r0
    149c:	01040000 	mrseq	r0, (UNDEF: 4)
    14a0:	000b0000 	andeq	r0, fp, r0
    14a4:	25350070 	ldrcs	r0, [r5, #-112]!	; 0xffffff90
    14a8:	8080b423 	addhi	fp, r0, r3, lsr #8
    14ac:	049f0281 	ldreq	r0, [pc], #641	; 14b4 <_start-0x6b4c>
    14b0:	07000001 	streq	r0, [r0, -r1]
    14b4:	01000001 	tsteq	r0, r1
    14b8:	01075000 	mrseq	r5, (UNDEF: 7)
    14bc:	01140000 	tsteq	r4, r0
    14c0:	000c0000 	andeq	r0, ip, r0
    14c4:	355001f3 	ldrbcc	r0, [r0, #-499]	; 0xfffffe0d
    14c8:	80b42325 	adcshi	r2, r4, r5, lsr #6
    14cc:	9f028180 	svcls	0x00028180
	...
    14d8:	000000fc 	strdeq	r0, [r0], -ip
    14dc:	00000114 	andeq	r0, r0, r4, lsl r1
    14e0:	00540001 	subseq	r0, r4, r1
    14e4:	00000000 	andeq	r0, r0, r0
    14e8:	d0000000 	andle	r0, r0, r0
    14ec:	df000000 	svcle	0x00000000
    14f0:	01000000 	mrseq	r0, (UNDEF: 0)
    14f4:	00df5000 	sbcseq	r5, pc, r0
    14f8:	00e40000 	rsceq	r0, r4, r0
    14fc:	00040000 	andeq	r0, r4, r0
    1500:	9f5001f3 	svcls	0x005001f3
    1504:	000000e4 	andeq	r0, r0, r4, ror #1
    1508:	000000e7 	andeq	r0, r0, r7, ror #1
    150c:	e7500001 	ldrb	r0, [r0, -r1]
    1510:	ec000000 	stc	0, cr0, [r0], {-0}
    1514:	04000000 	streq	r0, [r0], #-0
    1518:	5001f300 	andpl	pc, r1, r0, lsl #6
    151c:	0000009f 	muleq	r0, pc, r0	; <UNPREDICTABLE>
    1520:	00000000 	andeq	r0, r0, r0
    1524:	0000d000 	andeq	sp, r0, r0
    1528:	0000df00 	andeq	sp, r0, r0, lsl #30
    152c:	51000100 	mrspl	r0, (UNDEF: 16)
    1530:	000000df 	ldrdeq	r0, [r0], -pc	; <UNPREDICTABLE>
    1534:	000000e4 	andeq	r0, r0, r4, ror #1
    1538:	01f30004 	mvnseq	r0, r4
    153c:	00e49f51 	rsceq	r9, r4, r1, asr pc
    1540:	00e70000 	rsceq	r0, r7, r0
    1544:	00010000 	andeq	r0, r1, r0
    1548:	0000e751 	andeq	lr, r0, r1, asr r7
    154c:	0000ec00 	andeq	lr, r0, r0, lsl #24
    1550:	f3000400 	vshl.u8	d0, d0, d0
    1554:	009f5101 	addseq	r5, pc, r1, lsl #2
    1558:	00000000 	andeq	r0, r0, r0
    155c:	c0000000 	andgt	r0, r0, r0
    1560:	cb000000 	blgt	1568 <_start-0x6a98>
    1564:	01000000 	mrseq	r0, (UNDEF: 0)
    1568:	00cb5000 	sbceq	r5, fp, r0
    156c:	00d00000 	sbcseq	r0, r0, r0
    1570:	00040000 	andeq	r0, r4, r0
    1574:	9f5001f3 	svcls	0x005001f3
	...
    1580:	0000009c 	muleq	r0, ip, r0
    1584:	000000b4 	strheq	r0, [r0], -r4
    1588:	b4500001 	ldrblt	r0, [r0], #-1
    158c:	c0000000 	andgt	r0, r0, r0
    1590:	04000000 	streq	r0, [r0], #-0
    1594:	5001f300 	andpl	pc, r1, r0, lsl #6
    1598:	0000009f 	muleq	r0, pc, r0	; <UNPREDICTABLE>
    159c:	00000000 	andeq	r0, r0, r0
    15a0:	00007800 	andeq	r7, r0, r0, lsl #16
    15a4:	00009000 	andeq	r9, r0, r0
    15a8:	50000100 	andpl	r0, r0, r0, lsl #2
    15ac:	00000090 	muleq	r0, r0, r0
    15b0:	0000009c 	muleq	r0, ip, r0
    15b4:	01f30004 	mvnseq	r0, r4
    15b8:	00009f50 	andeq	r9, r0, r0, asr pc
    15bc:	00000000 	andeq	r0, r0, r0
    15c0:	00680000 	rsbeq	r0, r8, r0
    15c4:	00730000 	rsbseq	r0, r3, r0
    15c8:	00010000 	andeq	r0, r1, r0
    15cc:	00007350 	andeq	r7, r0, r0, asr r3
    15d0:	00007800 	andeq	r7, r0, r0, lsl #16
    15d4:	f3000400 	vshl.u8	d0, d0, d0
    15d8:	009f5001 	addseq	r5, pc, r1
	...
    15e4:	48000000 	stmdami	r0, {}	; <UNPREDICTABLE>
    15e8:	01000000 	mrseq	r0, (UNDEF: 0)
    15ec:	00485000 	subeq	r5, r8, r0
    15f0:	00680000 	rsbeq	r0, r8, r0
    15f4:	00040000 	andeq	r0, r4, r0
    15f8:	9f5001f3 	svcls	0x005001f3
	...
    1608:	0000004b 	andeq	r0, r0, fp, asr #32
    160c:	4b510001 	blmi	1441618 <__bss_end__+0x1437548>
    1610:	68000000 	stmdavs	r0, {}	; <UNPREDICTABLE>
    1614:	04000000 	streq	r0, [r0], #-0
    1618:	5101f300 	mrspl	pc, SP_irq	; <UNPREDICTABLE>
    161c:	0000009f 	muleq	r0, pc, r0	; <UNPREDICTABLE>
    1620:	00000000 	andeq	r0, r0, r0
    1624:	00004c00 	andeq	r4, r0, r0, lsl #24
    1628:	00005400 	andeq	r5, r0, r0, lsl #8
    162c:	50000100 	andpl	r0, r0, r0, lsl #2
    1630:	00000054 	andeq	r0, r0, r4, asr r0
    1634:	00000058 	andeq	r0, r0, r8, asr r0
    1638:	00750009 	rsbseq	r0, r5, r9
    163c:	71240074 			; <UNDEFINED> instruction: 0x71240074
    1640:	589f2100 	ldmpl	pc, {r8, sp}	; <UNPREDICTABLE>
    1644:	5f000000 	svcpl	0x00000000
    1648:	01000000 	mrseq	r0, (UNDEF: 0)
    164c:	00005100 	andeq	r5, r0, r0, lsl #2
    1650:	00000000 	andeq	r0, r0, r0
    1654:	00e00000 	rsceq	r0, r0, r0
    1658:	011b0000 	tsteq	fp, r0
    165c:	00010000 	andeq	r0, r1, r0
    1660:	00011b50 	andeq	r1, r1, r0, asr fp
    1664:	00012000 	andeq	r2, r1, r0
    1668:	f3000400 	vshl.u8	d0, d0, d0
    166c:	209f5001 	addscs	r5, pc, r1
    1670:	23000001 	movwcs	r0, #1
    1674:	01000001 	tsteq	r0, r1
    1678:	01235000 			; <UNDEFINED> instruction: 0x01235000
    167c:	013c0000 	teqeq	ip, r0
    1680:	00040000 	andeq	r0, r4, r0
    1684:	9f5001f3 	svcls	0x005001f3
    1688:	0000013c 	andeq	r0, r0, ip, lsr r1
    168c:	0000013f 	andeq	r0, r0, pc, lsr r1
    1690:	3f500001 	svccc	0x00500001
    1694:	6c000001 	stcvs	0, cr0, [r0], {1}
    1698:	04000001 	streq	r0, [r0], #-1
    169c:	5001f300 	andpl	pc, r1, r0, lsl #6
    16a0:	0000009f 	muleq	r0, pc, r0	; <UNPREDICTABLE>
    16a4:	00000000 	andeq	r0, r0, r0
    16a8:	0000e000 	andeq	lr, r0, r0
    16ac:	00010800 	andeq	r0, r1, r0, lsl #16
    16b0:	51000100 	mrspl	r0, (UNDEF: 16)
    16b4:	00000108 	andeq	r0, r0, r8, lsl #2
    16b8:	0000011b 	andeq	r0, r0, fp, lsl r1
    16bc:	01710003 	cmneq	r1, r3
    16c0:	00011b9f 	muleq	r1, pc, fp	; <UNPREDICTABLE>
    16c4:	00012000 	andeq	r2, r1, r0
    16c8:	f3000400 	vshl.u8	d0, d0, d0
    16cc:	209f5101 	addscs	r5, pc, r1, lsl #2
    16d0:	23000001 	movwcs	r0, #1
    16d4:	01000001 	tsteq	r0, r1
    16d8:	01235100 			; <UNDEFINED> instruction: 0x01235100
    16dc:	016c0000 	cmneq	ip, r0
    16e0:	00040000 	andeq	r0, r4, r0
    16e4:	9f5101f3 	svcls	0x005101f3
	...
    16f0:	000000f8 	strdeq	r0, [r0], -r8
    16f4:	000000fc 	strdeq	r0, [r0], -ip
    16f8:	fc520001 	mrrc2	0, 0, r0, r2, cr1
    16fc:	04000000 	streq	r0, [r0], #-0
    1700:	05000001 	streq	r0, [r0, #-1]
    1704:	970c0300 	strls	r0, [ip, -r0, lsl #6]
    1708:	01040000 	mrseq	r0, (UNDEF: 4)
    170c:	011b0000 	tsteq	fp, r0
    1710:	00010000 	andeq	r0, r1, r0
    1714:	00013c53 	andeq	r3, r1, r3, asr ip
    1718:	00013f00 	andeq	r3, r1, r0, lsl #30
    171c:	53000100 	movwpl	r0, #256	; 0x100
	...
    1728:	0000006c 	andeq	r0, r0, ip, rrx
    172c:	00000080 	andeq	r0, r0, r0, lsl #1
    1730:	80500001 	subshi	r0, r0, r1
    1734:	9b000000 	blls	173c <_start-0x68c4>
    1738:	01000000 	mrseq	r0, (UNDEF: 0)
    173c:	009b5200 	addseq	r5, fp, r0, lsl #4
    1740:	00a40000 	adceq	r0, r4, r0
    1744:	00090000 	andeq	r0, r9, r0
    1748:	235001f3 	cmpcs	r0, #-1073741764	; 0xc000003c
    174c:	1af80907 	bne	ffe03b70 <__bss_end__+0xffdf9aa0>
    1750:	0000a49f 	muleq	r0, pc, r4	; <UNPREDICTABLE>
    1754:	0000a700 	andeq	sl, r0, r0, lsl #14
    1758:	50000100 	andpl	r0, r0, r0, lsl #2
    175c:	000000a7 	andeq	r0, r0, r7, lsr #1
    1760:	000000d0 	ldrdeq	r0, [r0], -r0	; <UNPREDICTABLE>
    1764:	01f30004 	mvnseq	r0, r4
    1768:	00009f50 	andeq	r9, r0, r0, asr pc
    176c:	00000000 	andeq	r0, r0, r0
    1770:	00880000 	addeq	r0, r8, r0
    1774:	00a40000 	adceq	r0, r4, r0
    1778:	00010000 	andeq	r0, r1, r0
    177c:	00000054 	andeq	r0, r0, r4, asr r0
    1780:	00000000 	andeq	r0, r0, r0
    1784:	00001c00 	andeq	r1, r0, r0, lsl #24
    1788:	00004300 	andeq	r4, r0, r0, lsl #6
    178c:	50000100 	andpl	r0, r0, r0, lsl #2
    1790:	00000043 	andeq	r0, r0, r3, asr #32
    1794:	0000006c 	andeq	r0, r0, ip, rrx
    1798:	01f30004 	mvnseq	r0, r4
    179c:	00009f50 	andeq	r9, r0, r0, asr pc
    17a0:	00000000 	andeq	r0, r0, r0
    17a4:	001c0000 	andseq	r0, ip, r0
    17a8:	00430000 	subeq	r0, r3, r0
    17ac:	00010000 	andeq	r0, r1, r0
    17b0:	00004350 	andeq	r4, r0, r0, asr r3
    17b4:	00006c00 	andeq	r6, r0, r0, lsl #24
    17b8:	f3000400 	vshl.u8	d0, d0, d0
    17bc:	009f5001 	addseq	r5, pc, r1
    17c0:	00000000 	andeq	r0, r0, r0
    17c4:	Address 0x00000000000017c4 is out of bounds.


Disassembly of section .debug_aranges:

00000000 <.debug_aranges>:
   0:	0000001c 	andeq	r0, r0, ip, lsl r0
   4:	00000002 	andeq	r0, r0, r2
   8:	00040000 	andeq	r0, r4, r0
   c:	00000000 	andeq	r0, r0, r0
  10:	00008010 	andeq	r8, r0, r0, lsl r0
  14:	000000e8 	andeq	r0, r0, r8, ror #1
	...
  20:	0000001c 	andeq	r0, r0, ip, lsl r0
  24:	0b980002 	bleq	fe600034 <__bss_end__+0xfe5f5f64>
  28:	00040000 	andeq	r0, r4, r0
  2c:	00000000 	andeq	r0, r0, r0
  30:	000080f8 	strdeq	r8, [r0], -r8	; <UNPREDICTABLE>
  34:	000008d8 	ldrdeq	r0, [r0], -r8
	...
  40:	0000001c 	andeq	r0, r0, ip, lsl r0
  44:	25ce0002 	strbcs	r0, [lr, #2]
  48:	00040000 	andeq	r0, r4, r0
  4c:	00000000 	andeq	r0, r0, r0
  50:	000089d0 	ldrdeq	r8, [r0], -r0
  54:	000000ec 	andeq	r0, r0, ip, ror #1
	...
  60:	0000001c 	andeq	r0, r0, ip, lsl r0
  64:	2fd00002 	svccs	0x00d00002
  68:	00040000 	andeq	r0, r4, r0
  6c:	00000000 	andeq	r0, r0, r0
  70:	00008abc 			; <UNDEFINED> instruction: 0x00008abc
  74:	00000018 	andeq	r0, r0, r8, lsl r0
	...
  80:	0000001c 	andeq	r0, r0, ip, lsl r0
  84:	39500002 	ldmdbcc	r0, {r1}^
  88:	00040000 	andeq	r0, r4, r0
  8c:	00000000 	andeq	r0, r0, r0
  90:	00008ad4 	ldrdeq	r8, [r0], -r4
  94:	00000058 	andeq	r0, r0, r8, asr r0
	...
  a0:	0000001c 	andeq	r0, r0, ip, lsl r0
  a4:	437f0002 	cmnmi	pc, #2
  a8:	00040000 	andeq	r0, r4, r0
  ac:	00000000 	andeq	r0, r0, r0
  b0:	00008b2c 	andeq	r8, r0, ip, lsr #22
  b4:	0000003c 	andeq	r0, r0, ip, lsr r0
	...
  c0:	0000001c 	andeq	r0, r0, ip, lsl r0
  c4:	4d5c0002 	ldclmi	0, cr0, [ip, #-8]
  c8:	00040000 	andeq	r0, r4, r0
  cc:	00000000 	andeq	r0, r0, r0
  d0:	00008b68 	andeq	r8, r0, r8, ror #22
  d4:	00000034 	andeq	r0, r0, r4, lsr r0
	...
  e0:	0000001c 	andeq	r0, r0, ip, lsl r0
  e4:	56e30002 	strbtpl	r0, [r3], r2
  e8:	00040000 	andeq	r0, r4, r0
  ec:	00000000 	andeq	r0, r0, r0
  f0:	00008b9c 	muleq	r0, ip, fp
  f4:	0000005c 	andeq	r0, r0, ip, asr r0
	...
 100:	0000001c 	andeq	r0, r0, ip, lsl r0
 104:	60b90002 	adcsvs	r0, r9, r2
 108:	00040000 	andeq	r0, r4, r0
 10c:	00000000 	andeq	r0, r0, r0
 110:	00008bf8 	strdeq	r8, [r0], -r8	; <UNPREDICTABLE>
 114:	00000520 	andeq	r0, r0, r0, lsr #10
	...
 120:	0000001c 	andeq	r0, r0, ip, lsl r0
 124:	705d0002 	subsvc	r0, sp, r2
 128:	00040000 	andeq	r0, r4, r0
 12c:	00000000 	andeq	r0, r0, r0
 130:	00009118 	andeq	r9, r0, r8, lsl r1
 134:	00000028 	andeq	r0, r0, r8, lsr #32
	...
 140:	0000001c 	andeq	r0, r0, ip, lsl r0
 144:	7a0c0002 	bvc	300154 <__bss_end__+0x2f6084>
 148:	00040000 	andeq	r0, r4, r0
 14c:	00000000 	andeq	r0, r0, r0
 150:	00009140 	andeq	r9, r0, r0, asr #2
 154:	0000002c 	andeq	r0, r0, ip, lsr #32
	...
 160:	0000001c 	andeq	r0, r0, ip, lsl r0
 164:	83e30002 	mvnhi	r0, #2
 168:	00040000 	andeq	r0, r4, r0
 16c:	00000000 	andeq	r0, r0, r0
 170:	0000916c 	andeq	r9, r0, ip, ror #2
 174:	00000078 	andeq	r0, r0, r8, ror r0
	...
 180:	0000001c 	andeq	r0, r0, ip, lsl r0
 184:	8e820002 	cdphi	0, 8, cr0, cr2, cr2, {0}
 188:	00040000 	andeq	r0, r4, r0
 18c:	00000000 	andeq	r0, r0, r0
 190:	000091e4 	andeq	r9, r0, r4, ror #3
 194:	0000008c 	andeq	r0, r0, ip, lsl #1
	...
 1a0:	0000001c 	andeq	r0, r0, ip, lsl r0
 1a4:	99700002 	ldmdbls	r0!, {r1}^
 1a8:	00040000 	andeq	r0, r4, r0
 1ac:	00000000 	andeq	r0, r0, r0
 1b0:	000092bc 			; <UNDEFINED> instruction: 0x000092bc
 1b4:	00000178 	andeq	r0, r0, r8, ror r1
	...
 1c0:	0000001c 	andeq	r0, r0, ip, lsl r0
 1c4:	a6390002 	ldrtge	r0, [r9], -r2
 1c8:	00040000 	andeq	r0, r4, r0
 1cc:	00000000 	andeq	r0, r0, r0
 1d0:	00009434 	andeq	r9, r0, r4, lsr r4
 1d4:	00000120 	andeq	r0, r0, r0, lsr #2
	...
 1e0:	0000001c 	andeq	r0, r0, ip, lsl r0
 1e4:	b1ad0002 			; <UNDEFINED> instruction: 0xb1ad0002
 1e8:	00040000 	andeq	r0, r4, r0
 1ec:	00000000 	andeq	r0, r0, r0
 1f0:	00009554 	andeq	r9, r0, r4, asr r5
 1f4:	00000194 	muleq	r0, r4, r1
	...

Disassembly of section .debug_line:

00000000 <.debug_line>:
       0:	00000120 	andeq	r0, r0, r0, lsr #2
       4:	00d30003 	sbcseq	r0, r3, r3
       8:	01020000 	mrseq	r0, (UNDEF: 2)
       c:	000d0efb 	strdeq	r0, [sp], -fp
      10:	01010101 	tsteq	r1, r1, lsl #2
      14:	01000000 	mrseq	r0, (UNDEF: 0)
      18:	2f010000 	svccs	0x00010000
      1c:	2f727375 	svccs	0x00727375
      20:	2d6d7261 	sfmcs	f7, 2, [sp, #-388]!	; 0xfffffe7c
      24:	656e6f6e 	strbvs	r6, [lr, #-3950]!	; 0xfffff092
      28:	6261652d 	rsbvs	r6, r1, #188743680	; 0xb400000
      2c:	6e692f69 	cdpvs	15, 6, cr2, cr9, cr9, {3}
      30:	64756c63 	ldrbtvs	r6, [r5], #-3171	; 0xfffff39d
      34:	79732f65 	ldmdbvc	r3!, {r0, r2, r5, r6, r8, r9, sl, fp, sp}^
      38:	752f0073 	strvc	r0, [pc, #-115]!	; ffffffcd <__bss_end__+0xffff5efd>
      3c:	6c2f7273 	sfmvs	f7, 4, [pc], #-460	; fffffe78 <__bss_end__+0xffff5da8>
      40:	672f6269 	strvs	r6, [pc, -r9, ror #4]!
      44:	612f6363 			; <UNDEFINED> instruction: 0x612f6363
      48:	6e2d6d72 	mcrvs	13, 1, r6, cr13, cr2, {3}
      4c:	2d656e6f 	stclcs	14, cr6, [r5, #-444]!	; 0xfffffe44
      50:	69626165 	stmdbvs	r2!, {r0, r2, r5, r6, r8, sp, lr}^
      54:	322e392f 	eorcc	r3, lr, #770048	; 0xbc000
      58:	692f302e 	stmdbvs	pc!, {r1, r2, r3, r5, ip, sp}	; <UNPREDICTABLE>
      5c:	756c636e 	strbvc	r6, [ip, #-878]!	; 0xfffffc92
      60:	2f006564 	svccs	0x00006564
      64:	656d6f68 	strbvs	r6, [sp, #-3944]!	; 0xfffff098
      68:	6573752f 	ldrbvs	r7, [r3, #-1327]!	; 0xfffffad1
      6c:	65442f72 	strbvs	r2, [r4, #-3954]	; 0xfffff08e
      70:	53432f76 	movtpl	r2, #16246	; 0x3f76
      74:	58303432 	ldmdapl	r0!, {r1, r4, r5, sl, ip, sp}
      78:	62696c2f 	rsbvs	r6, r9, #12032	; 0x2f00
      7c:	692f6970 	stmdbvs	pc!, {r4, r5, r6, r8, fp, sp, lr}	; <UNPREDICTABLE>
      80:	756c636e 	strbvc	r6, [ip, #-878]!	; 0xfffffc92
      84:	00006564 	andeq	r6, r0, r4, ror #10
      88:	74726170 	ldrbtvc	r6, [r2], #-368	; 0xfffffe90
      8c:	65742d31 	ldrbvs	r2, [r4, #-3377]!	; 0xfffff2cf
      90:	2e357473 	mrccs	4, 1, r7, cr5, cr3, {3}
      94:	00000063 	andeq	r0, r0, r3, rrx
      98:	636f6c00 	cmnvs	pc, #0, 24
      9c:	00682e6b 	rsbeq	r2, r8, fp, ror #28
      a0:	5f000001 	svcpl	0x00000001
      a4:	65707974 	ldrbvs	r7, [r0, #-2420]!	; 0xfffff68c
      a8:	00682e73 	rsbeq	r2, r8, r3, ror lr
      ac:	73000001 	movwvc	r0, #1
      b0:	65646474 	strbvs	r6, [r4, #-1140]!	; 0xfffffb8c
      b4:	00682e66 	rsbeq	r2, r8, r6, ror #28
      b8:	72000002 	andvc	r0, r0, #2
      bc:	746e6565 	strbtvc	r6, [lr], #-1381	; 0xfffffa9b
      c0:	0100682e 	tsteq	r0, lr, lsr #16
      c4:	70720000 	rsbsvc	r0, r2, r0
      c8:	00682e69 	rsbeq	r2, r8, r9, ror #28
      cc:	63000003 	movwvs	r0, #3
      d0:	6c6c616b 	stfvse	f6, [ip], #-428	; 0xfffffe54
      d4:	682e636f 	stmdavs	lr!, {r0, r1, r2, r3, r5, r6, r8, r9, sp, lr}
      d8:	00000000 	andeq	r0, r0, r0
      dc:	00140500 	andseq	r0, r4, r0, lsl #10
      e0:	80100205 	andshi	r0, r0, r5, lsl #4
      e4:	05160000 	ldreq	r0, [r6, #-0]
      e8:	4b4d2f05 	blmi	134bd04 <__bss_end__+0x1341c34>
      ec:	10058513 	andne	r8, r5, r3, lsl r5
      f0:	05050106 	streq	r0, [r5, #-262]	; 0xfffffefa
      f4:	053d0806 	ldreq	r0, [sp, #-2054]!	; 0xfffff7fa
      f8:	2e010610 	mcrcs	6, 0, r0, cr1, cr0, {0}
      fc:	d8060505 	stmdale	r6, {r0, r2, r8, sl}
     100:	2f068206 	svccs	0x00068206
     104:	060805a0 	streq	r0, [r8], -r0, lsr #11
     108:	2e070501 	cfsh32cs	mvfx0, mvfx7, #1
     10c:	4b060905 	blmi	182528 <__bss_end__+0x178458>
     110:	4a4a0114 	bmi	1280568 <__bss_end__+0x1276498>
     114:	13060105 	movwne	r0, #24837	; 0x6105
     118:	2b060905 	blcs	182534 <__bss_end__+0x178464>
     11c:	029e2e01 	addseq	r2, lr, #1, 28
     120:	0101000e 	tsteq	r1, lr
     124:	00000788 	andeq	r0, r0, r8, lsl #15
     128:	01370003 	teqeq	r7, r3
     12c:	01020000 	mrseq	r0, (UNDEF: 2)
     130:	000d0efb 	strdeq	r0, [sp], -fp
     134:	01010101 	tsteq	r1, r1, lsl #2
     138:	01000000 	mrseq	r0, (UNDEF: 0)
     13c:	2f010000 	svccs	0x00010000
     140:	2f727375 	svccs	0x00727375
     144:	2f62696c 	svccs	0x0062696c
     148:	2f636367 	svccs	0x00636367
     14c:	2d6d7261 	sfmcs	f7, 2, [sp, #-388]!	; 0xfffffe7c
     150:	656e6f6e 	strbvs	r6, [lr, #-3950]!	; 0xfffff092
     154:	6261652d 	rsbvs	r6, r1, #188743680	; 0xb400000
     158:	2e392f69 	cdpcs	15, 3, cr2, cr9, cr9, {3}
     15c:	2f302e32 	svccs	0x00302e32
     160:	6c636e69 	stclvs	14, cr6, [r3], #-420	; 0xfffffe5c
     164:	00656475 	rsbeq	r6, r5, r5, ror r4
     168:	7273752f 	rsbsvc	r7, r3, #197132288	; 0xbc00000
     16c:	6d72612f 	ldfvse	f6, [r2, #-188]!	; 0xffffff44
     170:	6e6f6e2d 	cdpvs	14, 6, cr6, cr15, cr13, {1}
     174:	61652d65 	cmnvs	r5, r5, ror #26
     178:	692f6962 	stmdbvs	pc!, {r1, r5, r6, r8, fp, sp, lr}	; <UNPREDICTABLE>
     17c:	756c636e 	strbvc	r6, [ip, #-878]!	; 0xfffffc92
     180:	732f6564 			; <UNDEFINED> instruction: 0x732f6564
     184:	2f007379 	svccs	0x00007379
     188:	656d6f68 	strbvs	r6, [sp, #-3944]!	; 0xfffff098
     18c:	6573752f 	ldrbvs	r7, [r3, #-1327]!	; 0xfffffad1
     190:	65442f72 	strbvs	r2, [r4, #-3954]	; 0xfffff08e
     194:	53432f76 	movtpl	r2, #16246	; 0x3f76
     198:	58303432 	ldmdapl	r0!, {r1, r4, r5, sl, ip, sp}
     19c:	62696c2f 	rsbvs	r6, r9, #12032	; 0x2f00
     1a0:	692f6970 	stmdbvs	pc!, {r4, r5, r6, r8, fp, sp, lr}	; <UNPREDICTABLE>
     1a4:	756c636e 	strbvc	r6, [ip, #-878]!	; 0xfffffc92
     1a8:	2f006564 	svccs	0x00006564
     1ac:	2f727375 	svccs	0x00727375
     1b0:	2d6d7261 	sfmcs	f7, 2, [sp, #-388]!	; 0xfffffe7c
     1b4:	656e6f6e 	strbvs	r6, [lr, #-3950]!	; 0xfffff092
     1b8:	6261652d 	rsbvs	r6, r1, #188743680	; 0xb400000
     1bc:	6e692f69 	cdpvs	15, 6, cr2, cr9, cr9, {3}
     1c0:	64756c63 	ldrbtvs	r6, [r5], #-3171	; 0xfffff39d
     1c4:	682f0065 	stmdavs	pc!, {r0, r2, r5, r6}	; <UNPREDICTABLE>
     1c8:	2f656d6f 	svccs	0x00656d6f
     1cc:	72657375 	rsbvc	r7, r5, #-738197503	; 0xd4000001
     1d0:	7665442f 	strbtvc	r4, [r5], -pc, lsr #8
     1d4:	3253432f 	subscc	r4, r3, #-1140850688	; 0xbc000000
     1d8:	2f583034 	svccs	0x00583034
     1dc:	7062696c 	rsbvc	r6, r2, ip, ror #18
     1e0:	696c2f69 	stmdbvs	ip!, {r0, r3, r5, r6, r8, r9, sl, fp, sp}^
     1e4:	00006362 	andeq	r6, r0, r2, ror #6
     1e8:	6c616b63 			; <UNDEFINED> instruction: 0x6c616b63
     1ec:	2e636f6c 	cdpcs	15, 6, cr6, cr3, cr12, {3}
     1f0:	00000063 	andeq	r0, r0, r3, rrx
     1f4:	616b6300 	cmnvs	fp, r0, lsl #6
     1f8:	636f6c6c 	cmnvs	pc, #108, 24	; 0x6c00
     1fc:	0000682e 	andeq	r6, r0, lr, lsr #16
     200:	74730000 	ldrbtvc	r0, [r3], #-0
     204:	746e6964 	strbtvc	r6, [lr], #-2404	; 0xfffff69c
     208:	6363672d 	cmnvs	r3, #11796480	; 0xb40000
     20c:	0100682e 	tsteq	r0, lr, lsr #16
     210:	6f6c0000 	svcvs	0x006c0000
     214:	682e6b63 	stmdavs	lr!, {r0, r1, r5, r6, r8, r9, fp, sp, lr}
     218:	00000200 	andeq	r0, r0, r0, lsl #4
     21c:	7079745f 	rsbsvc	r7, r9, pc, asr r4
     220:	682e7365 	stmdavs	lr!, {r0, r2, r5, r6, r8, r9, ip, sp, lr}
     224:	00000200 	andeq	r0, r0, r0, lsl #4
     228:	64647473 	strbtvs	r7, [r4], #-1139	; 0xfffffb8d
     22c:	682e6665 	stmdavs	lr!, {r0, r2, r5, r6, r9, sl, sp, lr}
     230:	00000100 	andeq	r0, r0, r0, lsl #2
     234:	6e656572 	mcrvs	5, 3, r6, cr5, cr2, {3}
     238:	00682e74 	rsbeq	r2, r8, r4, ror lr
     23c:	72000002 	andvc	r0, r0, #2
     240:	682e6970 	stmdavs	lr!, {r4, r5, r6, r8, fp, sp, lr}
     244:	00000300 	andeq	r0, r0, r0, lsl #6
     248:	69727473 	ldmdbvs	r2!, {r0, r1, r4, r5, r6, sl, ip, sp, lr}^
     24c:	682e676e 	stmdavs	lr!, {r1, r2, r3, r5, r6, r8, r9, sl, sp, lr}
     250:	00000400 	andeq	r0, r0, r0, lsl #8
     254:	6362696c 	cmnvs	r2, #108, 18	; 0x1b0000
     258:	7478652d 	ldrbtvc	r6, [r8], #-1325	; 0xfffffad3
     25c:	682e6172 	stmdavs	lr!, {r1, r4, r5, r6, r8, sp, lr}
     260:	00000500 	andeq	r0, r0, r0, lsl #10
     264:	00220500 	eoreq	r0, r2, r0, lsl #10
     268:	80f80205 	rscshi	r0, r8, r5, lsl #4
     26c:	12030000 	andne	r0, r3, #0
     270:	01240501 			; <UNDEFINED> instruction: 0x01240501
     274:	01060105 	tsteq	r6, r5, lsl #2
     278:	0624052e 	strteq	r0, [r4], -lr, lsr #10
     27c:	05010630 	streq	r0, [r1, #-1584]	; 0xfffff9d0
     280:	052e0626 	streq	r0, [lr, #-1574]!	; 0xfffff9da
     284:	0501062d 	streq	r0, [r1, #-1581]	; 0xfffff9d3
     288:	22052e01 	andcs	r2, r5, #1, 28
     28c:	01064c06 	tsteq	r6, r6, lsl #24
     290:	4a062405 	bmi	1892ac <__bss_end__+0x17f1dc>
     294:	01062b05 	tsteq	r6, r5, lsl #22
     298:	052e3d05 	streq	r3, [lr, #-3333]!	; 0xfffff2fb
     29c:	28052e01 	stmdacs	r5, {r0, r9, sl, fp, sp}
     2a0:	2a054c06 	bcs	1532c0 <__bss_end__+0x1491f0>
     2a4:	063c0501 	ldrteq	r0, [ip], -r1, lsl #10
     2a8:	2e010501 	cfsh32cs	mvfx0, mvfx1, #1
     2ac:	4d062905 	vstrmi.16	s4, [r6, #-10]	; <UNPREDICTABLE>
     2b0:	05130505 	ldreq	r0, [r3, #-1285]	; 0xfffffafb
     2b4:	2e130601 	cfmsub32cs	mvax0, mvfx0, mvfx3, mvfx1
     2b8:	03064205 	movweq	r4, #25093	; 0x6205
     2bc:	01062e23 	tsteq	r6, r3, lsr #28
     2c0:	67060505 	strvs	r0, [r6, -r5, lsl #10]
     2c4:	060b0513 			; <UNDEFINED> instruction: 0x060b0513
     2c8:	00100501 	andseq	r0, r0, r1, lsl #10
     2cc:	06010402 	streq	r0, [r1], -r2, lsl #8
     2d0:	0005052e 	andeq	r0, r5, lr, lsr #10
     2d4:	06010402 	streq	r0, [r1], -r2, lsl #8
     2d8:	06090501 	streq	r0, [r9], -r1, lsl #10
     2dc:	060d054b 	streq	r0, [sp], -fp, asr #10
     2e0:	2e0b0501 	cfsh32cs	mvfx0, mvfx11, #1
     2e4:	02001c05 	andeq	r1, r0, #1280	; 0x500
     2e8:	2d060204 	sfmcs	f0, 4, [r6, #-16]
     2ec:	02001d05 	andeq	r1, r0, #320	; 0x140
     2f0:	01060204 	tsteq	r6, r4, lsl #4
     2f4:	02040200 	andeq	r0, r4, #0, 4
     2f8:	060d052e 	streq	r0, [sp], -lr, lsr #10
     2fc:	06240530 			; <UNDEFINED> instruction: 0x06240530
     300:	1a052e01 	bne	14bb0c <__bss_end__+0x141a3c>
     304:	2e11052e 	cfmul64cs	mvdx0, mvdx1, mvdx14
     308:	2f060d05 	svccs	0x00060d05
     30c:	4a660101 	bmi	1980718 <__bss_end__+0x1976648>
     310:	02048201 	andeq	r8, r4, #268435456	; 0x10000000
     314:	0f031405 	svceq	0x00031405
     318:	13050501 	movwne	r0, #21761	; 0x5501
     31c:	13664a01 	cmnne	r6, #4096	; 0x1000
     320:	06090513 			; <UNDEFINED> instruction: 0x06090513
     324:	2e070501 	cfsh32cs	mvfx0, mvfx7, #1
     328:	4b060905 	blmi	182744 <__bss_end__+0x178674>
     32c:	059e4a01 	ldreq	r4, [lr, #2561]	; 0xa01
     330:	05131405 	ldreq	r1, [r3, #-1029]	; 0xfffffbfb
     334:	05010609 	streq	r0, [r1, #-1545]	; 0xfffff9f7
     338:	09052e07 	stmdbeq	r5, {r0, r1, r2, r9, sl, fp, sp}
     33c:	01064b06 	tsteq	r6, r6, lsl #22
     340:	0d050104 	stfeqs	f0, [r5, #-16]
     344:	01690306 	cmneq	r9, r6, lsl #6
     348:	4a4a0113 	bmi	128079c <__bss_end__+0x12766cc>
     34c:	06140513 			; <UNDEFINED> instruction: 0x06140513
     350:	05020401 	streq	r0, [r2, #-1025]	; 0xfffffbff
     354:	4a14031e 	bmi	500fd4 <__bss_end__+0x4f6f04>
     358:	052e1a05 	streq	r1, [lr, #-2565]!	; 0xfffff5fb
     35c:	014b0609 	cmpeq	fp, r9, lsl #12
     360:	04ba064a 	ldrteq	r0, [sl], #1610	; 0x64a
     364:	030c0501 	movweq	r0, #50433	; 0xc501
     368:	0105016f 	tsteq	r5, pc, ror #2
     36c:	0630052f 	ldrteq	r0, [r0], -pc, lsr #10
     370:	050106f4 	streq	r0, [r1, #-1780]	; 0xfffff90c
     374:	064b0605 	strbeq	r0, [fp], -r5, lsl #12
     378:	2f01052e 	svccs	0x0001052e
     37c:	03062505 	movweq	r2, #25861	; 0x6505
     380:	01062e50 	tsteq	r6, r0, asr lr
     384:	4b060505 	blmi	1817a0 <__bss_end__+0x1776d0>
     388:	01060e05 	tsteq	r6, r5, lsl #28
     38c:	2f060505 	svccs	0x00060505
     390:	01060e05 	tsteq	r6, r5, lsl #28
     394:	4b060505 	blmi	1817b0 <__bss_end__+0x1776e0>
     398:	01061605 	tsteq	r6, r5, lsl #12
     39c:	4b060505 	blmi	1817b8 <__bss_end__+0x1776e8>
     3a0:	01060e05 	tsteq	r6, r5, lsl #28
     3a4:	2f060505 	svccs	0x00060505
     3a8:	13060105 	movwne	r0, #24837	; 0x6105
     3ac:	31062005 	tstcc	r6, r5
     3b0:	05050106 	streq	r0, [r5, #-262]	; 0xfffffefa
     3b4:	0c054b06 			; <UNDEFINED> instruction: 0x0c054b06
     3b8:	1f050106 	svcne	0x00050106
     3bc:	2e09052e 	cfsh32cs	mvfx0, mvfx9, #30
     3c0:	02003905 	andeq	r3, r0, #81920	; 0x14000
     3c4:	054a0104 	strbeq	r0, [sl, #-260]	; 0xfffffefc
     3c8:	04020044 	streq	r0, [r2], #-68	; 0xffffffbc
     3cc:	35052e01 	strcc	r2, [r5, #-3585]	; 0xfffff1ff
     3d0:	01040200 	mrseq	r0, R12_usr
     3d4:	0609052e 	streq	r0, [r9], -lr, lsr #10
     3d8:	6601014c 	strvs	r0, [r1], -ip, asr #2
     3dc:	0482014a 	streq	r0, [r2], #330	; 0x14a
     3e0:	03140502 	tsteq	r4, #8388608	; 0x800000
     3e4:	05050128 	streq	r0, [r5, #-296]	; 0xfffffed8
     3e8:	664a0113 			; <UNDEFINED> instruction: 0x664a0113
     3ec:	09051313 	stmdbeq	r5, {r0, r1, r4, r8, r9, ip}
     3f0:	07050106 	streq	r0, [r5, -r6, lsl #2]
     3f4:	0609052e 	streq	r0, [r9], -lr, lsr #10
     3f8:	9e4a014b 	dvflsem	f0, f2, #3.0
     3fc:	13140505 	tstne	r4, #20971520	; 0x1400000
     400:	01060905 	tsteq	r6, r5, lsl #18
     404:	052e0705 	streq	r0, [lr, #-1797]!	; 0xfffff8fb
     408:	044b0609 	strbeq	r0, [fp], #-1545	; 0xfffff9f7
     40c:	06100501 	ldreq	r0, [r0], -r1, lsl #10
     410:	04015103 	streq	r5, [r1], #-259	; 0xfffffefd
     414:	03010502 	movweq	r0, #5378	; 0x1502
     418:	1e052e30 	mcrne	14, 0, r2, cr5, cr0, {1}
     41c:	2e1a052c 	cfmul64cs	mvdx0, mvdx10, mvdx12
     420:	4b060905 	blmi	18283c <__bss_end__+0x17876c>
     424:	ba064a01 	blt	192c30 <__bss_end__+0x188b60>
     428:	0c050104 	stfeqs	f0, [r5], {4}
     42c:	05015403 	streq	r5, [r1, #-1027]	; 0xfffffbfd
     430:	3a052f01 	bcc	14c03c <__bss_end__+0x141f6c>
     434:	0106d806 	tsteq	r6, r6, lsl #16
     438:	67060505 	strvs	r0, [r6, -r5, lsl #10]
     43c:	060b0513 			; <UNDEFINED> instruction: 0x060b0513
     440:	00100501 	andseq	r0, r0, r1, lsl #10
     444:	06010402 	streq	r0, [r1], -r2, lsl #8
     448:	0005052e 	andeq	r0, r5, lr, lsr #10
     44c:	06010402 	streq	r0, [r1], -r2, lsl #8
     450:	06090501 	streq	r0, [r9], -r1, lsl #10
     454:	060d054b 	streq	r0, [sp], -fp, asr #10
     458:	2e0b0501 	cfsh32cs	mvfx0, mvfx11, #1
     45c:	02001c05 	andeq	r1, r0, #1280	; 0x500
     460:	2d060204 	sfmcs	f0, 4, [r6, #-16]
     464:	02001d05 	andeq	r1, r0, #320	; 0x140
     468:	01060204 	tsteq	r6, r4, lsl #4
     46c:	02040200 	andeq	r0, r4, #0, 4
     470:	060d052e 	streq	r0, [sp], -lr, lsr #10
     474:	06240530 			; <UNDEFINED> instruction: 0x06240530
     478:	1a052e01 	bne	14bc84 <__bss_end__+0x141bb4>
     47c:	2e11052e 	cfmul64cs	mvdx0, mvdx1, mvdx14
     480:	2f060d05 	svccs	0x00060d05
     484:	4a660101 	bmi	1980890 <__bss_end__+0x19767c0>
     488:	02049e01 	andeq	r9, r4, #1, 28
     48c:	1c031405 	cfstrsne	mvf1, [r3], {5}
     490:	13050501 	movwne	r0, #21761	; 0x5501
     494:	13664a01 	cmnne	r6, #4096	; 0x1000
     498:	06090513 			; <UNDEFINED> instruction: 0x06090513
     49c:	2e070501 	cfsh32cs	mvfx0, mvfx7, #1
     4a0:	4b060905 	blmi	1828bc <__bss_end__+0x1787ec>
     4a4:	059e4a01 	ldreq	r4, [lr, #2561]	; 0xa01
     4a8:	05131405 	ldreq	r1, [r3, #-1029]	; 0xfffffbfb
     4ac:	05010609 	streq	r0, [r1, #-1545]	; 0xfffff9f7
     4b0:	09052e07 	stmdbeq	r5, {r0, r1, r2, r9, sl, fp, sp}
     4b4:	01044b06 	tsteq	r4, r6, lsl #22
     4b8:	03061405 	movweq	r1, #25605	; 0x6405
     4bc:	0204015d 	andeq	r0, r4, #1073741847	; 0x40000017
     4c0:	24030105 	strcs	r0, [r3], #-261	; 0xfffffefb
     4c4:	2c1e052e 	cfldr32cs	mvfx0, [lr], {46}	; 0x2e
     4c8:	052e1a05 	streq	r1, [lr, #-2565]!	; 0xfffff5fb
     4cc:	014b0609 	cmpeq	fp, r9, lsl #12
     4d0:	04ba064a 	ldrteq	r0, [sl], #1610	; 0x64a
     4d4:	030c0501 	movweq	r0, #50433	; 0xc501
     4d8:	01050161 	tsteq	r5, r1, ror #2
     4dc:	0622052f 	strteq	r0, [r2], -pc, lsr #10
     4e0:	06d61a03 	ldrbeq	r1, [r6], r3, lsl #20
     4e4:	06050501 	streq	r0, [r5], -r1, lsl #10
     4e8:	060c054c 	streq	r0, [ip], -ip, asr #10
     4ec:	30090501 	andcc	r0, r9, r1, lsl #10
     4f0:	05491605 	strbeq	r1, [r9, #-1541]	; 0xfffff9fb
     4f4:	09054a0c 	stmdbeq	r5, {r2, r3, r9, fp, lr}
     4f8:	00160566 	andseq	r0, r6, r6, ror #10
     4fc:	4b030402 	blmi	c150c <__bss_end__+0xb743c>
     500:	02000c05 	andeq	r0, r0, #1280	; 0x500
     504:	05660304 	strbeq	r0, [r6, #-772]!	; 0xfffffcfc
     508:	04020009 	streq	r0, [r2], #-9
     50c:	054aba03 	strbeq	fp, [sl, #-2563]	; 0xfffff5fd
     510:	27052f01 	strcs	r2, [r5, -r1, lsl #30]
     514:	7fab0306 	svcvc	0x00ab0306
     518:	0501062e 	streq	r0, [r1, #-1582]	; 0xfffff9d2
     51c:	012f0605 			; <UNDEFINED> instruction: 0x012f0605
     520:	02040200 	andeq	r0, r4, #0, 4
     524:	040200ba 	streq	r0, [r2], #-186	; 0xffffff46
     528:	02000102 	andeq	r0, r0, #-2147483648	; 0x80000000
     52c:	00130204 	andseq	r0, r3, r4, lsl #4
     530:	06020402 	streq	r0, [r2], -r2, lsl #8
     534:	0402004a 	streq	r0, [r2], #-74	; 0xffffffb6
     538:	02002e02 	andeq	r2, r0, #2, 28
     53c:	2f060204 	svccs	0x00060204
     540:	02001705 	andeq	r1, r0, #1310720	; 0x140000
     544:	01060204 	tsteq	r6, r4, lsl #4
     548:	02000a05 	andeq	r0, r0, #20480	; 0x5000
     54c:	054a0204 	strbeq	r0, [sl, #-516]	; 0xfffffdfc
     550:	04020005 	streq	r0, [r2], #-5
     554:	052f0602 	streq	r0, [pc, #-1538]!	; ffffff5a <__bss_end__+0xffff5e8a>
     558:	04020015 	streq	r0, [r2], #-21	; 0xffffffeb
     55c:	05010602 	streq	r0, [r1, #-1538]	; 0xfffff9fe
     560:	0402000e 	streq	r0, [r2], #-14
     564:	01052e02 	tsteq	r5, r2, lsl #28
     568:	02040200 	andeq	r0, r4, #0, 4
     56c:	0005052f 	andeq	r0, r5, pc, lsr #10
     570:	06010402 	streq	r0, [r1], -r2, lsl #8
     574:	0402002a 	streq	r0, [r2], #-42	; 0xffffffd6
     578:	02000101 	andeq	r0, r0, #1073741824	; 0x40000000
     57c:	002e0104 	eoreq	r0, lr, r4, lsl #2
     580:	9e010402 	cdpls	4, 0, cr0, cr1, cr2, {0}
     584:	e7035005 	str	r5, [r3, -r5]
     588:	0106ba00 	tsteq	r6, r0, lsl #20
     58c:	9f060505 	svcls	0x00060505
     590:	01061005 	tsteq	r6, r5
     594:	30060505 	andcc	r0, r6, r5, lsl #10
     598:	04020001 	streq	r0, [r2], #-1
     59c:	02009e02 	andeq	r9, r0, #2, 28
     5a0:	00130204 	andseq	r0, r3, r4, lsl #4
     5a4:	01020402 	tsteq	r2, r2, lsl #8
     5a8:	02040200 	andeq	r0, r4, #0, 4
     5ac:	02002e06 	andeq	r2, r0, #6, 28	; 0x60
     5b0:	2e060204 	cdpcs	2, 0, cr0, cr6, cr4, {0}
     5b4:	02040200 	andeq	r0, r4, #0, 4
     5b8:	04020066 	streq	r0, [r2], #-102	; 0xffffff9a
     5bc:	0a051302 	beq	1451cc <__bss_end__+0x13b0fc>
     5c0:	02040200 	andeq	r0, r4, #0, 4
     5c4:	08050106 	stmdaeq	r5, {r1, r2, r8}
     5c8:	02040200 	andeq	r0, r4, #0, 4
     5cc:	0605054a 	streq	r0, [r5], -sl, asr #10
     5d0:	0611054c 	ldreq	r0, [r1], -ip, asr #10
     5d4:	06050501 	streq	r0, [r5], -r1, lsl #10
     5d8:	060e056b 	streq	r0, [lr], -fp, ror #10
     5dc:	06050501 	streq	r0, [r5], -r1, lsl #10
     5e0:	1005834b 	andne	r8, r5, fp, asr #6
     5e4:	0e050106 	adfeqs	f0, f5, f6
     5e8:	2f01054a 	svccs	0x0001054a
     5ec:	02000505 	andeq	r0, r0, #20971520	; 0x1400000
     5f0:	03060104 	movweq	r0, #24836	; 0x6104
     5f4:	02002e74 	andeq	r2, r0, #116, 28	; 0x740
     5f8:	002e0104 	eoreq	r0, lr, r4, lsl #2
     5fc:	9e010402 	cdpls	4, 0, cr0, cr1, cr2, {0}
     600:	0f035705 	svceq	0x00035705
     604:	050106d6 	streq	r0, [r1, #-1750]	; 0xfffff92a
     608:	13670605 	cmnne	r7, #5242880	; 0x500000
     60c:	2e060114 	mcrcs	1, 0, r0, cr6, cr4, {0}
     610:	02040200 	andeq	r0, r4, #0, 4
     614:	0200ba06 	andeq	fp, r0, #24576	; 0x6000
     618:	00130204 	andseq	r0, r3, r4, lsl #4
     61c:	01020402 	tsteq	r2, r2, lsl #8
     620:	02040200 	andeq	r0, r4, #0, 4
     624:	02002e06 	andeq	r2, r0, #6, 28	; 0x60
     628:	2e060204 	cdpcs	2, 0, cr0, cr6, cr4, {0}
     62c:	02040200 	andeq	r0, r4, #0, 4
     630:	04020066 	streq	r0, [r2], #-102	; 0xffffff9a
     634:	14051402 	strne	r1, [r5], #-1026	; 0xfffffbfe
     638:	02040200 	andeq	r0, r4, #0, 4
     63c:	0e050106 	adfeqs	f0, f5, f6
     640:	02040200 	andeq	r0, r4, #0, 4
     644:	0005052e 	andeq	r0, r5, lr, lsr #10
     648:	06020402 	streq	r0, [r2], -r2, lsl #8
     64c:	000e052f 	andeq	r0, lr, pc, lsr #10
     650:	06020402 	streq	r0, [r2], -r2, lsl #8
     654:	00050501 	andeq	r0, r5, r1, lsl #10
     658:	06020402 	streq	r0, [r2], -r2, lsl #8
     65c:	00070531 	andeq	r0, r7, r1, lsr r5
     660:	06020402 	streq	r0, [r2], -r2, lsl #8
     664:	06090501 	streq	r0, [r9], -r1, lsl #10
     668:	0505014b 	streq	r0, [r5, #-331]	; 0xfffffeb5
     66c:	060e0514 			; <UNDEFINED> instruction: 0x060e0514
     670:	66130501 	ldrvs	r0, [r3], -r1, lsl #10
     674:	052e0705 	streq	r0, [lr, #-1797]!	; 0xfffff8fb
     678:	014b0609 	cmpeq	fp, r9, lsl #12
     67c:	13150505 	tstne	r5, #20971520	; 0x1400000
     680:	01061505 	tsteq	r6, r5, lsl #10
     684:	2f060505 	svccs	0x00060505
     688:	01061905 	tsteq	r6, r5, lsl #18
     68c:	052e1305 	streq	r1, [lr, #-773]!	; 0xfffffcfb
     690:	052f0605 	streq	r0, [pc, #-1541]!	; 93 <_start-0x7f6d>
     694:	0501060e 	streq	r0, [r1, #-1550]	; 0xfffff9f2
     698:	054b0605 	strbeq	r0, [fp, #-1541]	; 0xfffff9fb
     69c:	05010612 	streq	r0, [r1, #-1554]	; 0xfffff9ee
     6a0:	05670605 	strbeq	r0, [r7, #-1541]!	; 0xfffff9fb
     6a4:	05010613 	streq	r0, [r1, #-1555]	; 0xfffff9ed
     6a8:	054b0605 	strbeq	r0, [fp, #-1541]	; 0xfffff9fb
     6ac:	05010614 	streq	r0, [r1, #-1556]	; 0xfffff9ec
     6b0:	834b0605 	movthi	r0, #46597	; 0xb605
     6b4:	9f066606 	svcls	0x00066606
     6b8:	01061005 	tsteq	r6, r5
     6bc:	054a0e05 	strbeq	r0, [sl, #-3589]	; 0xfffff1fb
     6c0:	05300605 	ldreq	r0, [r0, #-1541]!	; 0xfffff9fb
     6c4:	0501060a 	streq	r0, [r1, #-1546]	; 0xfffff9f6
     6c8:	01830605 	orreq	r0, r3, r5, lsl #12
     6cc:	02040200 	andeq	r0, r4, #0, 4
     6d0:	04020082 	streq	r0, [r2], #-130	; 0xffffff7e
     6d4:	02000102 	andeq	r0, r0, #-2147483648	; 0x80000000
     6d8:	05130204 	ldreq	r0, [r3, #-516]	; 0xfffffdfc
     6dc:	0402000b 	streq	r0, [r2], #-11
     6e0:	05010602 	streq	r0, [r1, #-1538]	; 0xfffff9fe
     6e4:	04020005 	streq	r0, [r2], #-5
     6e8:	00670602 	rsbeq	r0, r7, r2, lsl #12
     6ec:	01020402 	tsteq	r2, r2, lsl #8
     6f0:	02040200 	andeq	r0, r4, #0, 4
     6f4:	02002e06 	andeq	r2, r0, #6, 28	; 0x60
     6f8:	2e060204 	cdpcs	2, 0, cr0, cr6, cr4, {0}
     6fc:	02040200 	andeq	r0, r4, #0, 4
     700:	0402009e 	streq	r0, [r2], #-158	; 0xffffff62
     704:	01051302 	tsteq	r5, r2, lsl #6
     708:	02040200 	andeq	r0, r4, #0, 4
     70c:	05051306 	streq	r1, [r5, #-774]	; 0xfffffcfa
     710:	01040200 	mrseq	r0, R12_usr
     714:	66620306 	strbtvs	r0, [r2], -r6, lsl #6
     718:	01040200 	mrseq	r0, R12_usr
     71c:	0402002e 	streq	r0, [r2], #-46	; 0xffffffd2
     720:	09059e01 	stmdbeq	r5, {r0, r9, sl, fp, ip, pc}
     724:	2e060136 	mcrcs	1, 0, r0, cr6, cr6, {1}
     728:	01662e06 	cmneq	r6, r6, lsl #28
     72c:	0131ba2e 	teqeq	r1, lr, lsr #20
     730:	2e062e06 	cdpcs	14, 0, cr2, cr6, cr6, {0}
     734:	082e01d6 	stmdaeq	lr!, {r1, r2, r4, r6, r7, r8}
     738:	0005053c 	andeq	r0, r5, ip, lsr r5
     73c:	03010402 	movweq	r0, #5122	; 0x1402
     740:	02002e0f 	andeq	r2, r0, #15, 28	; 0xf0
     744:	00010104 	andeq	r0, r1, r4, lsl #2
     748:	2e010402 	cdpcs	4, 0, cr0, cr1, cr2, {0}
     74c:	01040200 	mrseq	r0, R12_usr
     750:	081b059e 	ldmdaeq	fp, {r1, r2, r3, r4, r7, r8, sl}
     754:	2f0505b2 	svccs	0x000505b2
     758:	01060c05 	tsteq	r6, r5, lsl #24
     75c:	4b060505 	blmi	181b78 <__bss_end__+0x177aa8>
     760:	01060c05 	tsteq	r6, r5, lsl #24
     764:	054a2105 	strbeq	r2, [sl, #-261]	; 0xfffffefb
     768:	21054b01 	tstcs	r5, r1, lsl #22
     76c:	1e052e49 	cdpne	14, 0, cr2, cr5, cr9, {2}
     770:	01064d06 	tsteq	r6, r6, lsl #26
     774:	2f060505 	svccs	0x00060505
     778:	01062c05 	tsteq	r6, r5, lsl #24
     77c:	052e3e05 	streq	r3, [lr, #-3589]!	; 0xfffff1fb
     780:	4b052e3b 	blmi	14c074 <__bss_end__+0x141fa4>
     784:	2e0c052e 	cfsh32cs	mvfx0, mvfx12, #30
     788:	2f060505 	svccs	0x00060505
     78c:	01061205 	tsteq	r6, r5, lsl #4
     790:	054a3905 	strbeq	r3, [sl, #-2309]	; 0xfffff6fb
     794:	04020024 	streq	r0, [r2], #-36	; 0xffffffdc
     798:	02004a01 	andeq	r4, r0, #4096	; 0x1000
     79c:	052e0104 	streq	r0, [lr, #-260]!	; 0xfffffefc
     7a0:	04020021 	streq	r0, [r2], #-33	; 0xffffffdf
     7a4:	39052e01 	stmdbcc	r5, {r0, r9, sl, fp, sp}
     7a8:	052e2e2e 	streq	r2, [lr, #-3630]!	; 0xfffff1d2
     7ac:	1a052f01 	bne	14c3b8 <__bss_end__+0x1422e8>
     7b0:	05056b06 	streq	r6, [r5, #-2822]	; 0xfffff4fa
     7b4:	061d052f 	ldreq	r0, [sp], -pc, lsr #10
     7b8:	06050501 	streq	r0, [r5], -r1, lsl #10
     7bc:	061e0583 	ldreq	r0, [lr], -r3, lsl #11
     7c0:	06050501 	streq	r0, [r5], -r1, lsl #10
     7c4:	824a014c 	subhi	r0, sl, #76, 2
     7c8:	05151314 	ldreq	r1, [r5, #-788]	; 0xfffffcec
     7cc:	1905010a 	stmdbne	r5, {r1, r3, r8}
     7d0:	054a0106 	strbeq	r0, [sl, #-262]	; 0xfffffefa
     7d4:	052d0f0e 	streq	r0, [sp, #-3854]!	; 0xfffff0f2
     7d8:	0d053205 	sfmeq	f3, 4, [r5, #-20]	; 0xffffffec
     7dc:	14053206 	strne	r3, [r5], #-518	; 0xfffffdfa
     7e0:	0d050106 	stfeqs	f0, [r5, #-24]	; 0xffffffe8
     7e4:	12052f06 	andne	r2, r5, #6, 30
     7e8:	0d050106 	stfeqs	f0, [r5, #-24]	; 0xffffffe8
     7ec:	01062f06 	tsteq	r6, r6, lsl #30
     7f0:	03060505 	movweq	r0, #25861	; 0x6505
     7f4:	0705010f 	streq	r0, [r5, -pc, lsl #2]
     7f8:	09050106 	stmdbeq	r5, {r1, r2, r8}
     7fc:	4a014b06 	bmi	5341c <__bss_end__+0x4934c>
     800:	04020082 	streq	r0, [r2], #-130	; 0xffffff7e
     804:	05051401 	streq	r1, [r5, #-1025]	; 0xfffffbff
     808:	01040200 	mrseq	r0, R12_usr
     80c:	00010513 	andeq	r0, r1, r3, lsl r5
     810:	06010402 	streq	r0, [r1], -r2, lsl #8
     814:	060d0513 			; <UNDEFINED> instruction: 0x060d0513
     818:	054a7003 	strbeq	r7, [sl, #-3]
     81c:	05010614 	streq	r0, [r1, #-1556]	; 0xfffff9ec
     820:	04020009 	streq	r0, [r2], #-9
     824:	05350602 	ldreq	r0, [r5, #-1538]!	; 0xfffff9fe
     828:	0402000e 	streq	r0, [r2], #-14
     82c:	05010602 	streq	r0, [r1, #-1538]	; 0xfffff9fe
     830:	04020030 	streq	r0, [r2], #-48	; 0xffffffd0
     834:	6f030602 	svcvs	0x00030602
     838:	0038052e 	eorseq	r0, r8, lr, lsr #10
     83c:	06020402 	streq	r0, [r2], -r2, lsl #8
     840:	00290501 	eoreq	r0, r9, r1, lsl #10
     844:	06010402 	streq	r0, [r1], -r2, lsl #8
     848:	00050566 	andeq	r0, r5, r6, ror #10
     84c:	06010402 	streq	r0, [r1], -r2, lsl #8
     850:	06090501 	streq	r0, [r9], -r1, lsl #10
     854:	060e054c 	streq	r0, [lr], -ip, asr #10
     858:	0c052e01 	stceq	14, cr2, [r5], {1}
     85c:	0609052e 	streq	r0, [r9], -lr, lsr #10
     860:	06180551 			; <UNDEFINED> instruction: 0x06180551
     864:	4a0e0501 	bmi	381c70 <__bss_end__+0x377ba0>
     868:	05660c05 	strbeq	r0, [r6, #-3077]!	; 0xfffff3fb
     86c:	04020048 	streq	r0, [r2], #-72	; 0xffffffb8
     870:	3e054a01 	vmlacc.f32	s8, s10, s2
     874:	01040200 	mrseq	r0, R12_usr
     878:	003a0566 	eorseq	r0, sl, r6, ror #10
     87c:	ba010402 	blt	4188c <__bss_end__+0x377bc>
     880:	4c060e05 	stcmi	14, cr0, [r6], {5}
     884:	01061705 	tsteq	r6, r5, lsl #14
     888:	052e1105 	streq	r1, [lr, #-261]!	; 0xfffffefb
     88c:	054c060d 	strbeq	r0, [ip, #-1549]	; 0xfffff9f3
     890:	05010624 	streq	r0, [r1, #-1572]	; 0xfffff9dc
     894:	10054a12 	andne	r4, r5, r2, lsl sl
     898:	06110566 	ldreq	r0, [r1], -r6, ror #10
     89c:	0618052f 	ldreq	r0, [r8], -pc, lsr #10
     8a0:	052e2e01 	streq	r2, [lr, #-3585]!	; 0xfffff1ff
     8a4:	0a030609 	beq	c20d0 <__bss_end__+0xb8000>
     8a8:	024a0101 	subeq	r0, sl, #1073741824	; 0x40000000
     8ac:	01010012 	tsteq	r1, r2, lsl r0
     8b0:	0000023c 	andeq	r0, r0, ip, lsr r2
     8b4:	00d40003 	sbcseq	r0, r4, r3
     8b8:	01020000 	mrseq	r0, (UNDEF: 2)
     8bc:	000d0efb 	strdeq	r0, [sp], -fp
     8c0:	01010101 	tsteq	r1, r1, lsl #2
     8c4:	01000000 	mrseq	r0, (UNDEF: 0)
     8c8:	6c010000 	stcvs	0, cr0, [r1], {-0}
     8cc:	00636269 	rsbeq	r6, r3, r9, ror #4
     8d0:	7273752f 	rsbsvc	r7, r3, #197132288	; 0xbc00000
     8d4:	62696c2f 	rsbvs	r6, r9, #12032	; 0x2f00
     8d8:	6363672f 	cmnvs	r3, #12320768	; 0xbc0000
     8dc:	6d72612f 	ldfvse	f6, [r2, #-188]!	; 0xffffff44
     8e0:	6e6f6e2d 	cdpvs	14, 6, cr6, cr15, cr13, {1}
     8e4:	61652d65 	cmnvs	r5, r5, ror #26
     8e8:	392f6962 	stmdbcc	pc!, {r1, r5, r6, r8, fp, sp, lr}	; <UNPREDICTABLE>
     8ec:	302e322e 	eorcc	r3, lr, lr, lsr #4
     8f0:	636e692f 	cmnvs	lr, #770048	; 0xbc000
     8f4:	6564756c 	strbvs	r7, [r4, #-1388]!	; 0xfffffa94
     8f8:	73752f00 	cmnvc	r5, #0, 30
     8fc:	72612f72 	rsbvc	r2, r1, #456	; 0x1c8
     900:	6f6e2d6d 	svcvs	0x006e2d6d
     904:	652d656e 	strvs	r6, [sp, #-1390]!	; 0xfffffa92
     908:	2f696261 	svccs	0x00696261
     90c:	6c636e69 	stclvs	14, cr6, [r3], #-420	; 0xfffffe5c
     910:	2f656475 	svccs	0x00656475
     914:	00737973 	rsbseq	r7, r3, r3, ror r9
     918:	6d6f682f 	stclvs	8, cr6, [pc, #-188]!	; 864 <_start-0x779c>
     91c:	73752f65 	cmnvc	r5, #404	; 0x194
     920:	442f7265 	strtmi	r7, [pc], #-613	; 928 <_start-0x76d8>
     924:	432f7665 			; <UNDEFINED> instruction: 0x432f7665
     928:	30343253 	eorscc	r3, r4, r3, asr r2
     92c:	696c2f58 	stmdbvs	ip!, {r3, r4, r6, r8, r9, sl, fp, sp}^
     930:	2f697062 	svccs	0x00697062
     934:	6c636e69 	stclvs	14, cr6, [r3], #-420	; 0xfffffe5c
     938:	00656475 	rsbeq	r6, r5, r5, ror r4
     93c:	73616800 	cmnvc	r1, #0, 16
     940:	00632e68 	rsbeq	r2, r3, r8, ror #28
     944:	73000001 	movwvc	r0, #1
     948:	6e696474 	mcrvs	4, 3, r6, cr9, cr4, {3}
     94c:	63672d74 	cmnvs	r7, #116, 26	; 0x1d00
     950:	00682e63 	rsbeq	r2, r8, r3, ror #28
     954:	6c000002 	stcvs	0, cr0, [r0], {2}
     958:	2e6b636f 	cdpcs	3, 6, cr6, cr11, cr15, {3}
     95c:	00030068 	andeq	r0, r3, r8, rrx
     960:	79745f00 	ldmdbvc	r4!, {r8, r9, sl, fp, ip, lr}^
     964:	2e736570 	mrccs	5, 3, r6, cr3, cr0, {3}
     968:	00030068 	andeq	r0, r3, r8, rrx
     96c:	64747300 	ldrbtvs	r7, [r4], #-768	; 0xfffffd00
     970:	2e666564 	cdpcs	5, 6, cr6, cr6, cr4, {3}
     974:	00020068 	andeq	r0, r2, r8, rrx
     978:	65657200 	strbvs	r7, [r5, #-512]!	; 0xfffffe00
     97c:	682e746e 	stmdavs	lr!, {r1, r2, r3, r5, r6, sl, ip, sp, lr}
     980:	00000300 	andeq	r0, r0, r0, lsl #6
     984:	2e697072 	mcrcs	0, 3, r7, cr9, cr2, {3}
     988:	00040068 	andeq	r0, r4, r8, rrx
     98c:	31050000 	mrscc	r0, (UNDEF: 5)
     990:	d0020500 	andle	r0, r2, r0, lsl #10
     994:	03000089 	movweq	r0, #137	; 0x89
     998:	0505010e 	streq	r0, [r5, #-270]	; 0xfffffef2
     99c:	13010513 	movwne	r0, #5395	; 0x1513
     9a0:	14050513 	strne	r0, [r5], #-1299	; 0xfffffaed
     9a4:	01060805 	tsteq	r6, r5, lsl #16
     9a8:	05613105 	strbeq	r3, [r1, #-261]!	; 0xfffffefb
     9ac:	056d0605 	strbeq	r0, [sp, #-1541]!	; 0xfffff9fb
     9b0:	05010609 	streq	r0, [r1, #-1545]	; 0xfffff9f7
     9b4:	052f0605 	streq	r0, [pc, #-1541]!	; 3b7 <_start-0x7c49>
     9b8:	05010609 	streq	r0, [r1, #-1545]	; 0xfffff9f7
     9bc:	05310605 	ldreq	r0, [r1, #-1541]!	; 0xfffff9fb
     9c0:	0402000b 	streq	r0, [r2], #-11
     9c4:	05050101 	streq	r0, [r5, #-257]	; 0xfffffeff
     9c8:	01040200 	mrseq	r0, R12_usr
     9cc:	09050106 	stmdbeq	r5, {r1, r2, r8}
     9d0:	02040200 	andeq	r0, r4, #0, 4
     9d4:	12054b06 	andne	r4, r5, #6144	; 0x1800
     9d8:	02040200 	andeq	r0, r4, #0, 4
     9dc:	0f050106 	svceq	0x00050106
     9e0:	02040200 	andeq	r0, r4, #0, 4
     9e4:	00090566 	andeq	r0, r9, r6, ror #10
     9e8:	06020402 	streq	r0, [r2], -r2, lsl #8
     9ec:	0013052f 	andseq	r0, r3, pc, lsr #10
     9f0:	06020402 	streq	r0, [r2], -r2, lsl #8
     9f4:	00100501 	andseq	r0, r0, r1, lsl #10
     9f8:	66020402 	strvs	r0, [r2], -r2, lsl #8
     9fc:	02000905 	andeq	r0, r0, #81920	; 0x14000
     a00:	2f060204 	svccs	0x00060204
     a04:	02001005 	andeq	r1, r0, #5
     a08:	01060204 	tsteq	r6, r4, lsl #4
     a0c:	02000905 	andeq	r0, r0, #81920	; 0x14000
     a10:	2f060204 	svccs	0x00060204
     a14:	02000f05 	andeq	r0, r0, #5, 30
     a18:	01060204 	tsteq	r6, r4, lsl #4
     a1c:	02000905 	andeq	r0, r0, #81920	; 0x14000
     a20:	2f060204 	svccs	0x00060204
     a24:	02000f05 	andeq	r0, r0, #5, 30
     a28:	01060204 	tsteq	r6, r4, lsl #4
     a2c:	02001405 	andeq	r1, r0, #83886080	; 0x5000000
     a30:	29060204 	stmdbcs	r6, {r2, r9}
     a34:	02001705 	andeq	r1, r0, #1310720	; 0x140000
     a38:	01060204 	tsteq	r6, r4, lsl #4
     a3c:	02040200 	andeq	r0, r4, #0, 4
     a40:	0605052e 	streq	r0, [r5], -lr, lsr #10
     a44:	032e0903 			; <UNDEFINED> instruction: 0x032e0903
     a48:	0a05ba10 	beq	16f290 <__bss_end__+0x1651c0>
     a4c:	05050106 	streq	r0, [r5, #-262]	; 0xfffffefa
     a50:	0a052f06 	beq	14c670 <__bss_end__+0x1425a0>
     a54:	05050106 	streq	r0, [r5, #-262]	; 0xfffffefa
     a58:	0a052f06 	beq	14c678 <__bss_end__+0x1425a8>
     a5c:	05050106 	streq	r0, [r5, #-262]	; 0xfffffefa
     a60:	0a052f06 	beq	14c680 <__bss_end__+0x1425b0>
     a64:	05050106 	streq	r0, [r5, #-262]	; 0xfffffefa
     a68:	0a052f06 	beq	14c688 <__bss_end__+0x1425b8>
     a6c:	05050106 	streq	r0, [r5, #-262]	; 0xfffffefa
     a70:	0a052f06 	beq	14c690 <__bss_end__+0x1425c0>
     a74:	05050106 	streq	r0, [r5, #-262]	; 0xfffffefa
     a78:	01053006 	tsteq	r5, r6
     a7c:	11051306 	tstne	r5, r6, lsl #6
     a80:	2e690306 	cdpcs	3, 6, cr0, cr9, cr6, {0}
     a84:	01061905 	tsteq	r6, r5, lsl #18
     a88:	4a16052e 	bmi	581f48 <__bss_end__+0x577e78>
     a8c:	2f061105 	svccs	0x00061105
     a90:	01061605 	tsteq	r6, r5, lsl #12
     a94:	2f061105 	svccs	0x00061105
     a98:	01061a05 	tsteq	r6, r5, lsl #20
     a9c:	052e1605 	streq	r1, [lr, #-1541]!	; 0xfffff9fb
     aa0:	052f0611 	streq	r0, [pc, #-1553]!	; 497 <_start-0x7b69>
     aa4:	05010616 	streq	r0, [r1, #-1558]	; 0xfffff9ea
     aa8:	2f2f0611 	svccs	0x002f0611
     aac:	01061905 	tsteq	r6, r5, lsl #18
     ab0:	4a16052e 	bmi	581f70 <__bss_end__+0x577ea0>
     ab4:	2f061105 	svccs	0x00061105
     ab8:	01061605 	tsteq	r6, r5, lsl #12
     abc:	2f061105 	svccs	0x00061105
     ac0:	01061605 	tsteq	r6, r5, lsl #12
     ac4:	2f061105 	svccs	0x00061105
     ac8:	0619052f 	ldreq	r0, [r9], -pc, lsr #10
     acc:	2e160501 	cfmul32cs	mvfx0, mvfx6, mvfx1
     ad0:	2f061105 	svccs	0x00061105
     ad4:	01061605 	tsteq	r6, r5, lsl #12
     ad8:	2f061105 	svccs	0x00061105
     adc:	01061605 	tsteq	r6, r5, lsl #12
     ae0:	032a052e 			; <UNDEFINED> instruction: 0x032a052e
     ae4:	01052e65 	tsteq	r5, r5, ror #28
     ae8:	022e2703 	eoreq	r2, lr, #786432	; 0xc0000
     aec:	01010002 	tsteq	r1, r2
     af0:	000000f0 	strdeq	r0, [r0], -r0	; <UNPREDICTABLE>
     af4:	00c00003 	sbceq	r0, r0, r3
     af8:	01020000 	mrseq	r0, (UNDEF: 2)
     afc:	000d0efb 	strdeq	r0, [sp], -fp
     b00:	01010101 	tsteq	r1, r1, lsl #2
     b04:	01000000 	mrseq	r0, (UNDEF: 0)
     b08:	6c010000 	stcvs	0, cr0, [r1], {-0}
     b0c:	00636269 	rsbeq	r6, r3, r9, ror #4
     b10:	7273752f 	rsbsvc	r7, r3, #197132288	; 0xbc00000
     b14:	62696c2f 	rsbvs	r6, r9, #12032	; 0x2f00
     b18:	6363672f 	cmnvs	r3, #12320768	; 0xbc0000
     b1c:	6d72612f 	ldfvse	f6, [r2, #-188]!	; 0xffffff44
     b20:	6e6f6e2d 	cdpvs	14, 6, cr6, cr15, cr13, {1}
     b24:	61652d65 	cmnvs	r5, r5, ror #26
     b28:	392f6962 	stmdbcc	pc!, {r1, r5, r6, r8, fp, sp, lr}	; <UNPREDICTABLE>
     b2c:	302e322e 	eorcc	r3, lr, lr, lsr #4
     b30:	636e692f 	cmnvs	lr, #770048	; 0xbc000
     b34:	6564756c 	strbvs	r7, [r4, #-1388]!	; 0xfffffa94
     b38:	73752f00 	cmnvc	r5, #0, 30
     b3c:	72612f72 	rsbvc	r2, r1, #456	; 0x1c8
     b40:	6f6e2d6d 	svcvs	0x006e2d6d
     b44:	652d656e 	strvs	r6, [sp, #-1390]!	; 0xfffffa92
     b48:	2f696261 	svccs	0x00696261
     b4c:	6c636e69 	stclvs	14, cr6, [r3], #-420	; 0xfffffe5c
     b50:	2f656475 	svccs	0x00656475
     b54:	00737973 	rsbseq	r7, r3, r3, ror r9
     b58:	7273752f 	rsbsvc	r7, r3, #197132288	; 0xbc00000
     b5c:	6d72612f 	ldfvse	f6, [r2, #-188]!	; 0xffffff44
     b60:	6e6f6e2d 	cdpvs	14, 6, cr6, cr15, cr13, {1}
     b64:	61652d65 	cmnvs	r5, r5, ror #26
     b68:	692f6962 	stmdbvs	pc!, {r1, r5, r6, r8, fp, sp, lr}	; <UNPREDICTABLE>
     b6c:	756c636e 	strbvc	r6, [ip, #-878]!	; 0xfffffc92
     b70:	00006564 	andeq	r6, r0, r4, ror #10
     b74:	736d656d 	cmnvc	sp, #457179136	; 0x1b400000
     b78:	632e7465 			; <UNDEFINED> instruction: 0x632e7465
     b7c:	00000100 	andeq	r0, r0, r0, lsl #2
     b80:	64647473 	strbtvs	r7, [r4], #-1139	; 0xfffffb8d
     b84:	682e6665 	stmdavs	lr!, {r0, r2, r5, r6, r9, sl, sp, lr}
     b88:	00000200 	andeq	r0, r0, r0, lsl #4
     b8c:	6b636f6c 	blvs	18dc944 <__bss_end__+0x18d2874>
     b90:	0300682e 	movweq	r6, #2094	; 0x82e
     b94:	745f0000 	ldrbvc	r0, [pc], #-0	; b9c <_start-0x7464>
     b98:	73657079 	cmnvc	r5, #121	; 0x79
     b9c:	0300682e 	movweq	r6, #2094	; 0x82e
     ba0:	65720000 	ldrbvs	r0, [r2, #-0]!
     ba4:	2e746e65 	cdpcs	14, 7, cr6, cr4, cr5, {3}
     ba8:	00030068 	andeq	r0, r3, r8, rrx
     bac:	72747300 	rsbsvc	r7, r4, #0, 6
     bb0:	2e676e69 	cdpcs	14, 6, cr6, cr7, cr9, {3}
     bb4:	00040068 	andeq	r0, r4, r8, rrx
     bb8:	29050000 	stmdbcs	r5, {}	; <UNPREDICTABLE>
     bbc:	bc020500 	cfstr32lt	mvfx0, [r2], {-0}
     bc0:	1400008a 	strne	r0, [r0], #-138	; 0xffffff76
     bc4:	05130505 	ldreq	r0, [r3, #-1285]	; 0xfffffafb
     bc8:	05010614 	streq	r0, [r1, #-1556]	; 0xfffff9ec
     bcc:	05300605 	ldreq	r0, [r0, #-1541]!	; 0xfffff9fb
     bd0:	0510060b 	ldreq	r0, [r0, #-1547]	; 0xfffff9f5
     bd4:	0530060a 	ldreq	r0, [r0, #-1546]!	; 0xfffff9f6
     bd8:	0e054b09 	vmlaeq.f64	d4, d5, d9
     bdc:	022e0106 	eoreq	r0, lr, #-2147483647	; 0x80000001
     be0:	01010002 	tsteq	r1, r2
     be4:	00000121 	andeq	r0, r0, r1, lsr #2
     be8:	00ef0003 	rsceq	r0, pc, r3
     bec:	01020000 	mrseq	r0, (UNDEF: 2)
     bf0:	000d0efb 	strdeq	r0, [sp], -fp
     bf4:	01010101 	tsteq	r1, r1, lsl #2
     bf8:	01000000 	mrseq	r0, (UNDEF: 0)
     bfc:	6c010000 	stcvs	0, cr0, [r1], {-0}
     c00:	00636269 	rsbeq	r6, r3, r9, ror #4
     c04:	7273752f 	rsbsvc	r7, r3, #197132288	; 0xbc00000
     c08:	62696c2f 	rsbvs	r6, r9, #12032	; 0x2f00
     c0c:	6363672f 	cmnvs	r3, #12320768	; 0xbc0000
     c10:	6d72612f 	ldfvse	f6, [r2, #-188]!	; 0xffffff44
     c14:	6e6f6e2d 	cdpvs	14, 6, cr6, cr15, cr13, {1}
     c18:	61652d65 	cmnvs	r5, r5, ror #26
     c1c:	392f6962 	stmdbcc	pc!, {r1, r5, r6, r8, fp, sp, lr}	; <UNPREDICTABLE>
     c20:	302e322e 	eorcc	r3, lr, lr, lsr #4
     c24:	636e692f 	cmnvs	lr, #770048	; 0xbc000
     c28:	6564756c 	strbvs	r7, [r4, #-1388]!	; 0xfffffa94
     c2c:	73752f00 	cmnvc	r5, #0, 30
     c30:	72612f72 	rsbvc	r2, r1, #456	; 0x1c8
     c34:	6f6e2d6d 	svcvs	0x006e2d6d
     c38:	652d656e 	strvs	r6, [sp, #-1390]!	; 0xfffffa92
     c3c:	2f696261 	svccs	0x00696261
     c40:	6c636e69 	stclvs	14, cr6, [r3], #-420	; 0xfffffe5c
     c44:	2f656475 	svccs	0x00656475
     c48:	00737973 	rsbseq	r7, r3, r3, ror r9
     c4c:	6d6f682f 	stclvs	8, cr6, [pc, #-188]!	; b98 <_start-0x7468>
     c50:	73752f65 	cmnvc	r5, #404	; 0x194
     c54:	442f7265 	strtmi	r7, [pc], #-613	; c5c <_start-0x73a4>
     c58:	432f7665 			; <UNDEFINED> instruction: 0x432f7665
     c5c:	30343253 	eorscc	r3, r4, r3, asr r2
     c60:	696c2f58 	stmdbvs	ip!, {r3, r4, r6, r8, r9, sl, fp, sp}^
     c64:	2f697062 	svccs	0x00697062
     c68:	6c636e69 	stclvs	14, cr6, [r3], #-420	; 0xfffffe5c
     c6c:	00656475 	rsbeq	r6, r5, r5, ror r4
     c70:	69727000 	ldmdbvs	r2!, {ip, sp, lr}^
     c74:	2e6b746e 	cdpcs	4, 6, cr7, cr11, cr14, {3}
     c78:	00010063 	andeq	r0, r1, r3, rrx
     c7c:	64747300 	ldrbtvs	r7, [r4], #-768	; 0xfffffd00
     c80:	2e677261 	cdpcs	2, 6, cr7, cr7, cr1, {3}
     c84:	00020068 	andeq	r0, r2, r8, rrx
     c88:	636f6c00 	cmnvs	pc, #0, 24
     c8c:	00682e6b 	rsbeq	r2, r8, fp, ror #28
     c90:	5f000003 	svcpl	0x00000003
     c94:	65707974 	ldrbvs	r7, [r0, #-2420]!	; 0xfffff68c
     c98:	00682e73 	rsbeq	r2, r8, r3, ror lr
     c9c:	73000003 	movwvc	r0, #3
     ca0:	65646474 	strbvs	r6, [r4, #-1140]!	; 0xfffffb8c
     ca4:	00682e66 	rsbeq	r2, r8, r6, ror #28
     ca8:	72000002 	andvc	r0, r0, #2
     cac:	746e6565 	strbtvc	r6, [lr], #-1381	; 0xfffffa9b
     cb0:	0300682e 	movweq	r6, #2094	; 0x82e
     cb4:	70720000 	rsbsvc	r0, r2, r0
     cb8:	00682e69 	rsbeq	r2, r8, r9, ror #28
     cbc:	3c000004 	stccc	0, cr0, [r0], {4}
     cc0:	6c697562 	cfstr64vs	mvdx7, [r9], #-392	; 0xfffffe78
     cc4:	6e692d74 	mcrvs	13, 3, r2, cr9, cr4, {3}
     cc8:	0000003e 	andeq	r0, r0, lr, lsr r0
     ccc:	2d617600 	stclcs	6, cr7, [r1, #-0]
     cd0:	6e697270 	mcrvs	2, 3, r7, cr9, cr0, {3}
     cd4:	682e6b74 	stmdavs	lr!, {r2, r4, r5, r6, r8, r9, fp, sp, lr}
     cd8:	00000100 	andeq	r0, r0, r0, lsl #2
     cdc:	00220500 	eoreq	r0, r2, r0, lsl #10
     ce0:	8ad40205 	bhi	ff5014fc <__bss_end__+0xff4f742c>
     ce4:	06170000 	ldreq	r0, [r7], -r0
     ce8:	06050501 	streq	r0, [r5], -r1, lsl #10
     cec:	05141368 	ldreq	r1, [r4, #-872]	; 0xfffffc98
     cf0:	12054b09 	andne	r4, r5, #9216	; 0x2400
     cf4:	05050106 	streq	r0, [r5, #-262]	; 0xfffffefa
     cf8:	0616bb06 	ldreq	fp, [r6], -r6, lsl #22
     cfc:	05340666 	ldreq	r0, [r4, #-1638]!	; 0xfffff99a
     d00:	66130601 	ldrvs	r0, [r3], -r1, lsl #12
     d04:	01000802 	tsteq	r0, r2, lsl #16
     d08:	00010501 	andeq	r0, r1, r1, lsl #10
     d0c:	c7000300 	strgt	r0, [r0, -r0, lsl #6]
     d10:	02000000 	andeq	r0, r0, #0
     d14:	0d0efb01 	vstreq	d15, [lr, #-4]
     d18:	01010100 	mrseq	r0, (UNDEF: 17)
     d1c:	00000001 	andeq	r0, r0, r1
     d20:	01000001 	tsteq	r0, r1
     d24:	6362696c 	cmnvs	r2, #108, 18	; 0x1b0000
     d28:	73752f00 	cmnvc	r5, #0, 30
     d2c:	72612f72 	rsbvc	r2, r1, #456	; 0x1c8
     d30:	6f6e2d6d 	svcvs	0x006e2d6d
     d34:	652d656e 	strvs	r6, [sp, #-1390]!	; 0xfffffa92
     d38:	2f696261 	svccs	0x00696261
     d3c:	6c636e69 	stclvs	14, cr6, [r3], #-420	; 0xfffffe5c
     d40:	2f656475 	svccs	0x00656475
     d44:	00737973 	rsbseq	r7, r3, r3, ror r9
     d48:	7273752f 	rsbsvc	r7, r3, #197132288	; 0xbc00000
     d4c:	62696c2f 	rsbvs	r6, r9, #12032	; 0x2f00
     d50:	6363672f 	cmnvs	r3, #12320768	; 0xbc0000
     d54:	6d72612f 	ldfvse	f6, [r2, #-188]!	; 0xffffff44
     d58:	6e6f6e2d 	cdpvs	14, 6, cr6, cr15, cr13, {1}
     d5c:	61652d65 	cmnvs	r5, r5, ror #26
     d60:	392f6962 	stmdbcc	pc!, {r1, r5, r6, r8, fp, sp, lr}	; <UNPREDICTABLE>
     d64:	302e322e 	eorcc	r3, lr, lr, lsr #4
     d68:	636e692f 	cmnvs	lr, #770048	; 0xbc000
     d6c:	6564756c 	strbvs	r7, [r4, #-1388]!	; 0xfffffa94
     d70:	6f682f00 	svcvs	0x00682f00
     d74:	752f656d 	strvc	r6, [pc, #-1389]!	; 80f <_start-0x77f1>
     d78:	2f726573 	svccs	0x00726573
     d7c:	2f766544 	svccs	0x00766544
     d80:	34325343 	ldrtcc	r5, [r2], #-835	; 0xfffffcbd
     d84:	6c2f5830 	stcvs	8, cr5, [pc], #-192	; ccc <_start-0x7334>
     d88:	69706269 	ldmdbvs	r0!, {r0, r3, r5, r6, r9, sp, lr}^
     d8c:	636e692f 	cmnvs	lr, #770048	; 0xbc000
     d90:	6564756c 	strbvs	r7, [r4, #-1388]!	; 0xfffffa94
     d94:	75700000 	ldrbvc	r0, [r0, #-0]!
     d98:	61686374 	smcvs	34356	; 0x8634
     d9c:	00632e72 	rsbeq	r2, r3, r2, ror lr
     da0:	6c000001 	stcvs	0, cr0, [r0], {1}
     da4:	2e6b636f 	cdpcs	3, 6, cr6, cr11, cr15, {3}
     da8:	00020068 	andeq	r0, r2, r8, rrx
     dac:	79745f00 	ldmdbvc	r4!, {r8, r9, sl, fp, ip, lr}^
     db0:	2e736570 	mrccs	5, 3, r6, cr3, cr0, {3}
     db4:	00020068 	andeq	r0, r2, r8, rrx
     db8:	64747300 	ldrbtvs	r7, [r4], #-768	; 0xfffffd00
     dbc:	2e666564 	cdpcs	5, 6, cr6, cr6, cr4, {3}
     dc0:	00030068 	andeq	r0, r3, r8, rrx
     dc4:	65657200 	strbvs	r7, [r5, #-512]!	; 0xfffffe00
     dc8:	682e746e 	stmdavs	lr!, {r1, r2, r3, r5, r6, sl, ip, sp, lr}
     dcc:	00000200 	andeq	r0, r0, r0, lsl #4
     dd0:	2e697072 	mcrcs	0, 3, r7, cr9, cr2, {3}
     dd4:	00040068 	andeq	r0, r4, r8, rrx
     dd8:	24050000 	strcs	r0, [r5], #-0
     ddc:	2c020500 	cfstr32cs	mvfx0, [r2], {-0}
     de0:	1400008b 	strne	r0, [r0], #-139	; 0xffffff75
     de4:	26050106 	strcs	r0, [r5], -r6, lsl #2
     de8:	34054a06 	strcc	r4, [r5], #-2566	; 0xfffff5fa
     dec:	0601052e 	streq	r0, [r1], -lr, lsr #10
     df0:	061b0501 	ldreq	r0, [fp], -r1, lsl #10
     df4:	1305054f 	movwne	r0, #21839	; 0x554f
     df8:	01061105 	tsteq	r6, r5, lsl #2
     dfc:	05670105 	strbeq	r0, [r7, #-261]!	; 0xfffffefb
     e00:	05670623 	strbeq	r0, [r7, #-1571]!	; 0xfffff9dd
     e04:	11051305 	tstne	r5, r5, lsl #6
     e08:	01050106 	tsteq	r5, r6, lsl #2
     e0c:	0004024b 	andeq	r0, r4, fp, asr #4
     e10:	01120101 	tsteq	r2, r1, lsl #2
     e14:	00030000 	andeq	r0, r3, r0
     e18:	000000c4 	andeq	r0, r0, r4, asr #1
     e1c:	0efb0102 	cdpeq	1, 15, cr0, cr11, cr2, {0}
     e20:	0101000d 	tsteq	r1, sp
     e24:	00000101 	andeq	r0, r0, r1, lsl #2
     e28:	00000100 	andeq	r0, r0, r0, lsl #2
     e2c:	62696c01 	rsbvs	r6, r9, #256	; 0x100
     e30:	752f0063 	strvc	r0, [pc, #-99]!	; dd5 <_start-0x722b>
     e34:	612f7273 			; <UNDEFINED> instruction: 0x612f7273
     e38:	6e2d6d72 	mcrvs	13, 1, r6, cr13, cr2, {3}
     e3c:	2d656e6f 	stclcs	14, cr6, [r5, #-444]!	; 0xfffffe44
     e40:	69626165 	stmdbvs	r2!, {r0, r2, r5, r6, r8, sp, lr}^
     e44:	636e692f 	cmnvs	lr, #770048	; 0xbc000
     e48:	6564756c 	strbvs	r7, [r4, #-1388]!	; 0xfffffa94
     e4c:	7379732f 	cmnvc	r9, #-1140850688	; 0xbc000000
     e50:	73752f00 	cmnvc	r5, #0, 30
     e54:	696c2f72 	stmdbvs	ip!, {r1, r4, r5, r6, r8, r9, sl, fp, sp}^
     e58:	63672f62 	cmnvs	r7, #392	; 0x188
     e5c:	72612f63 	rsbvc	r2, r1, #396	; 0x18c
     e60:	6f6e2d6d 	svcvs	0x006e2d6d
     e64:	652d656e 	strvs	r6, [sp, #-1390]!	; 0xfffffa92
     e68:	2f696261 	svccs	0x00696261
     e6c:	2e322e39 	mrccs	14, 1, r2, cr2, cr9, {1}
     e70:	6e692f30 	mcrvs	15, 3, r2, cr9, cr0, {1}
     e74:	64756c63 	ldrbtvs	r6, [r5], #-3171	; 0xfffff39d
     e78:	682f0065 	stmdavs	pc!, {r0, r2, r5, r6}	; <UNPREDICTABLE>
     e7c:	2f656d6f 	svccs	0x00656d6f
     e80:	72657375 	rsbvc	r7, r5, #-738197503	; 0xd4000001
     e84:	7665442f 	strbtvc	r4, [r5], -pc, lsr #8
     e88:	3253432f 	subscc	r4, r3, #-1140850688	; 0xbc000000
     e8c:	2f583034 	svccs	0x00583034
     e90:	7062696c 	rsbvc	r6, r2, ip, ror #18
     e94:	6e692f69 	cdpvs	15, 6, cr2, cr9, cr9, {3}
     e98:	64756c63 	ldrbtvs	r6, [r5], #-3171	; 0xfffff39d
     e9c:	70000065 	andvc	r0, r0, r5, rrx
     ea0:	2e6b7475 	mcrcs	4, 3, r7, cr11, cr5, {3}
     ea4:	00010063 	andeq	r0, r1, r3, rrx
     ea8:	636f6c00 	cmnvs	pc, #0, 24
     eac:	00682e6b 	rsbeq	r2, r8, fp, ror #28
     eb0:	5f000002 	svcpl	0x00000002
     eb4:	65707974 	ldrbvs	r7, [r0, #-2420]!	; 0xfffff68c
     eb8:	00682e73 	rsbeq	r2, r8, r3, ror lr
     ebc:	73000002 	movwvc	r0, #2
     ec0:	65646474 	strbvs	r6, [r4, #-1140]!	; 0xfffffb8c
     ec4:	00682e66 	rsbeq	r2, r8, r6, ror #28
     ec8:	72000003 	andvc	r0, r0, #3
     ecc:	746e6565 	strbtvc	r6, [lr], #-1381	; 0xfffffa9b
     ed0:	0200682e 	andeq	r6, r0, #3014656	; 0x2e0000
     ed4:	70720000 	rsbsvc	r0, r2, r0
     ed8:	00682e69 	rsbeq	r2, r8, r9, ror #28
     edc:	00000004 	andeq	r0, r0, r4
     ee0:	05002205 	streq	r2, [r0, #-517]	; 0xfffffdfb
     ee4:	008b6802 	addeq	r6, fp, r2, lsl #16
     ee8:	01061500 	tsteq	r6, r0, lsl #10
     eec:	4b060505 	blmi	182308 <__bss_end__+0x178238>
     ef0:	02000b05 	andeq	r0, r0, #5120	; 0x1400
     ef4:	05010104 	streq	r0, [r1, #-260]	; 0xfffffefc
     ef8:	04020005 	streq	r0, [r2], #-5
     efc:	052e0601 	streq	r0, [lr, #-1537]!	; 0xfffff9ff
     f00:	04020009 	streq	r0, [r2], #-9
     f04:	054b0602 	strbeq	r0, [fp, #-1538]	; 0xfffff9fe
     f08:	0402000f 	streq	r0, [r2], #-15
     f0c:	10056502 	andne	r6, r5, r2, lsl #10
     f10:	02040200 	andeq	r0, r4, #0, 4
     f14:	02000106 	andeq	r0, r0, #-2147483647	; 0x80000001
     f18:	052e0204 	streq	r0, [lr, #-516]!	; 0xfffffdfc
     f1c:	05320605 	ldreq	r0, [r2, #-1541]!	; 0xfffff9fb
     f20:	02130601 	andseq	r0, r3, #1048576	; 0x100000
     f24:	01010006 	tsteq	r1, r6
     f28:	00000124 	andeq	r0, r0, r4, lsr #2
     f2c:	00c80003 	sbceq	r0, r8, r3
     f30:	01020000 	mrseq	r0, (UNDEF: 2)
     f34:	000d0efb 	strdeq	r0, [sp], -fp
     f38:	01010101 	tsteq	r1, r1, lsl #2
     f3c:	01000000 	mrseq	r0, (UNDEF: 0)
     f40:	6c010000 	stcvs	0, cr0, [r1], {-0}
     f44:	00636269 	rsbeq	r6, r3, r9, ror #4
     f48:	7273752f 	rsbsvc	r7, r3, #197132288	; 0xbc00000
     f4c:	6d72612f 	ldfvse	f6, [r2, #-188]!	; 0xffffff44
     f50:	6e6f6e2d 	cdpvs	14, 6, cr6, cr15, cr13, {1}
     f54:	61652d65 	cmnvs	r5, r5, ror #26
     f58:	692f6962 	stmdbvs	pc!, {r1, r5, r6, r8, fp, sp, lr}	; <UNPREDICTABLE>
     f5c:	756c636e 	strbvc	r6, [ip, #-878]!	; 0xfffffc92
     f60:	732f6564 			; <UNDEFINED> instruction: 0x732f6564
     f64:	2f007379 	svccs	0x00007379
     f68:	2f727375 	svccs	0x00727375
     f6c:	2f62696c 	svccs	0x0062696c
     f70:	2f636367 	svccs	0x00636367
     f74:	2d6d7261 	sfmcs	f7, 2, [sp, #-388]!	; 0xfffffe7c
     f78:	656e6f6e 	strbvs	r6, [lr, #-3950]!	; 0xfffff092
     f7c:	6261652d 	rsbvs	r6, r1, #188743680	; 0xb400000
     f80:	2e392f69 	cdpcs	15, 3, cr2, cr9, cr9, {3}
     f84:	2f302e32 	svccs	0x00302e32
     f88:	6c636e69 	stclvs	14, cr6, [r3], #-420	; 0xfffffe5c
     f8c:	00656475 	rsbeq	r6, r5, r5, ror r4
     f90:	6d6f682f 	stclvs	8, cr6, [pc, #-188]!	; edc <_start-0x7124>
     f94:	73752f65 	cmnvc	r5, #404	; 0x194
     f98:	442f7265 	strtmi	r7, [pc], #-613	; fa0 <_start-0x7060>
     f9c:	432f7665 			; <UNDEFINED> instruction: 0x432f7665
     fa0:	30343253 	eorscc	r3, r4, r3, asr r2
     fa4:	696c2f58 	stmdbvs	ip!, {r3, r4, r6, r8, r9, sl, fp, sp}^
     fa8:	2f697062 	svccs	0x00697062
     fac:	6c636e69 	stclvs	14, cr6, [r3], #-420	; 0xfffffe5c
     fb0:	00656475 	rsbeq	r6, r5, r5, ror r4
     fb4:	69707200 	ldmdbvs	r0!, {r9, ip, sp, lr}^
     fb8:	6e61722d 	cdpvs	2, 6, cr7, cr1, cr13, {1}
     fbc:	00632e64 	rsbeq	r2, r3, r4, ror #28
     fc0:	6c000001 	stcvs	0, cr0, [r0], {1}
     fc4:	2e6b636f 	cdpcs	3, 6, cr6, cr11, cr15, {3}
     fc8:	00020068 	andeq	r0, r2, r8, rrx
     fcc:	79745f00 	ldmdbvc	r4!, {r8, r9, sl, fp, ip, lr}^
     fd0:	2e736570 	mrccs	5, 3, r6, cr3, cr0, {3}
     fd4:	00020068 	andeq	r0, r2, r8, rrx
     fd8:	64747300 	ldrbtvs	r7, [r4], #-768	; 0xfffffd00
     fdc:	2e666564 	cdpcs	5, 6, cr6, cr6, cr4, {3}
     fe0:	00030068 	andeq	r0, r3, r8, rrx
     fe4:	65657200 	strbvs	r7, [r5, #-512]!	; 0xfffffe00
     fe8:	682e746e 	stmdavs	lr!, {r1, r2, r3, r5, r6, sl, ip, sp, lr}
     fec:	00000200 	andeq	r0, r0, r0, lsl #4
     ff0:	2e697072 	mcrcs	0, 3, r7, cr9, cr2, {3}
     ff4:	00040068 	andeq	r0, r4, r8, rrx
     ff8:	21050000 	mrscs	r0, (UNDEF: 5)
     ffc:	9c020500 	cfstr32ls	mvfx0, [r2], {-0}
    1000:	0300008b 	movweq	r0, #139	; 0x8b
    1004:	0505010a 	streq	r0, [r5, #-266]	; 0xfffffef6
    1008:	06190513 			; <UNDEFINED> instruction: 0x06190513
    100c:	66270501 	strtvs	r0, [r7], -r1, lsl #10
    1010:	052e3505 	streq	r3, [lr, #-1285]!	; 0xfffffafb
    1014:	052f0605 	streq	r0, [pc, #-1541]!	; a17 <_start-0x75e9>
    1018:	05010620 	streq	r0, [r1, #-1568]	; 0xfffff9e0
    101c:	0a052e19 	beq	14c888 <__bss_end__+0x1427b8>
    1020:	0605054a 	streq	r0, [r5], -sl, asr #10
    1024:	0601052f 	streq	r0, [r1], -pc, lsr #10
    1028:	06200513 			; <UNDEFINED> instruction: 0x06200513
    102c:	2f05054c 	svccs	0x0005054c
    1030:	01060d05 	tsteq	r6, r5, lsl #26
    1034:	052e1a05 	streq	r1, [lr, #-2565]!	; 0xfffff5fb
    1038:	01052e23 	tsteq	r5, r3, lsr #28
    103c:	061f052f 	ldreq	r0, [pc], -pc, lsr #10
    1040:	1305054d 	movwne	r0, #21837	; 0x554d
    1044:	01060a05 	tsteq	r6, r5, lsl #20
    1048:	02670105 	rsbeq	r0, r7, #1073741825	; 0x40000001
    104c:	01010006 	tsteq	r1, r6
    1050:	0000050d 	andeq	r0, r0, sp, lsl #10
    1054:	00e30003 	rsceq	r0, r3, r3
    1058:	01020000 	mrseq	r0, (UNDEF: 2)
    105c:	000d0efb 	strdeq	r0, [sp], -fp
    1060:	01010101 	tsteq	r1, r1, lsl #2
    1064:	01000000 	mrseq	r0, (UNDEF: 0)
    1068:	6c010000 	stcvs	0, cr0, [r1], {-0}
    106c:	00636269 	rsbeq	r6, r3, r9, ror #4
    1070:	7273752f 	rsbsvc	r7, r3, #197132288	; 0xbc00000
    1074:	6d72612f 	ldfvse	f6, [r2, #-188]!	; 0xffffff44
    1078:	6e6f6e2d 	cdpvs	14, 6, cr6, cr15, cr13, {1}
    107c:	61652d65 	cmnvs	r5, r5, ror #26
    1080:	692f6962 	stmdbvs	pc!, {r1, r5, r6, r8, fp, sp, lr}	; <UNPREDICTABLE>
    1084:	756c636e 	strbvc	r6, [ip, #-878]!	; 0xfffffc92
    1088:	732f6564 			; <UNDEFINED> instruction: 0x732f6564
    108c:	2f007379 	svccs	0x00007379
    1090:	2f727375 	svccs	0x00727375
    1094:	2f62696c 	svccs	0x0062696c
    1098:	2f636367 	svccs	0x00636367
    109c:	2d6d7261 	sfmcs	f7, 2, [sp, #-388]!	; 0xfffffe7c
    10a0:	656e6f6e 	strbvs	r6, [lr, #-3950]!	; 0xfffff092
    10a4:	6261652d 	rsbvs	r6, r1, #188743680	; 0xb400000
    10a8:	2e392f69 	cdpcs	15, 3, cr2, cr9, cr9, {3}
    10ac:	2f302e32 	svccs	0x00302e32
    10b0:	6c636e69 	stclvs	14, cr6, [r3], #-420	; 0xfffffe5c
    10b4:	00656475 	rsbeq	r6, r5, r5, ror r4
    10b8:	6d6f682f 	stclvs	8, cr6, [pc, #-188]!	; 1004 <_start-0x6ffc>
    10bc:	73752f65 	cmnvc	r5, #404	; 0x194
    10c0:	442f7265 	strtmi	r7, [pc], #-613	; 10c8 <_start-0x6f38>
    10c4:	432f7665 			; <UNDEFINED> instruction: 0x432f7665
    10c8:	30343253 	eorscc	r3, r4, r3, asr r2
    10cc:	696c2f58 	stmdbvs	ip!, {r3, r4, r6, r8, r9, sl, fp, sp}^
    10d0:	2f697062 	svccs	0x00697062
    10d4:	6c636e69 	stclvs	14, cr6, [r3], #-420	; 0xfffffe5c
    10d8:	00656475 	rsbeq	r6, r5, r5, ror r4
    10dc:	2d617600 	stclcs	6, cr7, [r1, #-0]
    10e0:	6e697270 	mcrvs	2, 3, r7, cr9, cr0, {3}
    10e4:	632e6b74 			; <UNDEFINED> instruction: 0x632e6b74
    10e8:	00000100 	andeq	r0, r0, r0, lsl #2
    10ec:	6b636f6c 	blvs	18dcea4 <__bss_end__+0x18d2dd4>
    10f0:	0200682e 	andeq	r6, r0, #3014656	; 0x2e0000
    10f4:	745f0000 	ldrbvc	r0, [pc], #-0	; 10fc <_start-0x6f04>
    10f8:	73657079 	cmnvc	r5, #121	; 0x79
    10fc:	0200682e 	andeq	r6, r0, #3014656	; 0x2e0000
    1100:	74730000 	ldrbtvc	r0, [r3], #-0
    1104:	66656464 	strbtvs	r6, [r5], -r4, ror #8
    1108:	0300682e 	movweq	r6, #2094	; 0x82e
    110c:	65720000 	ldrbvs	r0, [r2, #-0]!
    1110:	2e746e65 	cdpcs	14, 7, cr6, cr4, cr5, {3}
    1114:	00020068 	andeq	r0, r2, r8, rrx
    1118:	69707200 	ldmdbvs	r0!, {r9, ip, sp, lr}^
    111c:	0400682e 	streq	r6, [r0], #-2094	; 0xfffff7d2
    1120:	74730000 	ldrbtvc	r0, [r3], #-0
    1124:	67726164 	ldrbvs	r6, [r2, -r4, ror #2]!
    1128:	0300682e 	movweq	r6, #2094	; 0x82e
    112c:	623c0000 	eorsvs	r0, ip, #0
    1130:	746c6975 	strbtvc	r6, [ip], #-2421	; 0xfffff68b
    1134:	3e6e692d 	vmulcc.f16	s13, s28, s27	; <UNPREDICTABLE>
    1138:	00000000 	andeq	r0, r0, r0
    113c:	001b0500 	andseq	r0, fp, r0, lsl #10
    1140:	8bf80205 	blhi	ffe0195c <__bss_end__+0xffdf788c>
    1144:	26030000 	strcs	r0, [r3], -r0
    1148:	011d0501 	tsteq	sp, r1, lsl #10
    114c:	01062d05 	tsteq	r6, r5, lsl #26
    1150:	4a2e0105 	bmi	b8156c <__bss_end__+0xb7749c>
    1154:	51063305 	tstpl	r6, r5, lsl #6
    1158:	05130205 	ldreq	r0, [r3, #-517]	; 0xfffffdfb
    115c:	05010606 	streq	r0, [r1, #-1542]	; 0xfffff9fa
    1160:	05300602 	ldreq	r0, [r0, #-1538]!	; 0xfffff9fe
    1164:	04020008 	streq	r0, [r2], #-8
    1168:	02050101 	andeq	r0, r5, #1073741824	; 0x40000000
    116c:	01040200 	mrseq	r0, R12_usr
    1170:	03050106 	movweq	r0, #20742	; 0x5106
    1174:	02040200 	andeq	r0, r4, #0, 4
    1178:	08052f06 	stmdaeq	r5, {r1, r2, r8, r9, sl, fp, sp}
    117c:	02040200 	andeq	r0, r4, #0, 4
    1180:	15050106 	strne	r0, [r5, #-262]	; 0xfffffefa
    1184:	02040200 	andeq	r0, r4, #0, 4
    1188:	18054906 	stmdane	r5, {r1, r2, r8, fp, lr}
    118c:	02040200 	andeq	r0, r4, #0, 4
    1190:	02000106 	andeq	r0, r0, #-2147483647	; 0x80000001
    1194:	052e0204 	streq	r0, [lr, #-516]!	; 0xfffffdfc
    1198:	05300602 	ldreq	r0, [r0, #-1538]!	; 0xfffff9fe
    119c:	05010605 	streq	r0, [r1, #-1541]	; 0xfffff9fb
    11a0:	054b0602 	strbeq	r0, [fp, #-1538]	; 0xfffff9fe
    11a4:	05130601 	ldreq	r0, [r3, #-1537]	; 0xfffff9ff
    11a8:	0530063e 	ldreq	r0, [r0, #-1598]!	; 0xfffff9c2
    11ac:	0e051402 	cdpeq	4, 0, cr1, cr5, cr2, {0}
    11b0:	06050106 	streq	r0, [r5], -r6, lsl #2
    11b4:	0602052e 	streq	r0, [r2], -lr, lsr #10
    11b8:	0604052f 	streq	r0, [r4], -pc, lsr #10
    11bc:	06030501 	streq	r0, [r3], -r1, lsl #10
    11c0:	0611052f 	ldreq	r0, [r1], -pc, lsr #10
    11c4:	2e090501 	cfsh32cs	mvfx0, mvfx9, #1
    11c8:	30060205 	andcc	r0, r6, r5, lsl #4
    11cc:	06070515 			; <UNDEFINED> instruction: 0x06070515
    11d0:	2e020501 	cfsh32cs	mvfx0, mvfx2, #1
    11d4:	02000b05 	andeq	r0, r0, #5120	; 0x1400
    11d8:	2e060104 	adfcss	f0, f6, f4
    11dc:	02000205 	andeq	r0, r0, #1342177280	; 0x50000000
    11e0:	01060104 	tsteq	r6, r4, lsl #2
    11e4:	02000305 	andeq	r0, r0, #335544320	; 0x14000000
    11e8:	2f060304 	svccs	0x00060304
    11ec:	02000c05 	andeq	r0, r0, #1280	; 0x500
    11f0:	01060304 	tsteq	r6, r4, lsl #6
    11f4:	02000a05 	andeq	r0, r0, #20480	; 0x5000
    11f8:	052e0304 	streq	r0, [lr, #-772]!	; 0xfffffcfc
    11fc:	04020017 	streq	r0, [r2], #-23	; 0xffffffe9
    1200:	002d0603 	eoreq	r0, sp, r3, lsl #12
    1204:	06030402 	streq	r0, [r3], -r2, lsl #8
    1208:	06020501 	streq	r0, [r2], -r1, lsl #10
    120c:	06090530 			; <UNDEFINED> instruction: 0x06090530
    1210:	02052e01 	andeq	r2, r5, #1, 28
    1214:	01053006 	tsteq	r5, r6
    1218:	56051306 	strpl	r1, [r5], -r6, lsl #6
    121c:	01063006 	tsteq	r6, r6
    1220:	a0060205 	andge	r0, r6, r5, lsl #4
    1224:	01060405 	tsteq	r6, r5, lsl #8
    1228:	2f060305 	svccs	0x00060305
    122c:	01060905 	tsteq	r6, r5, lsl #18
    1230:	30060205 	andcc	r0, r6, r5, lsl #4
    1234:	060b0513 			; <UNDEFINED> instruction: 0x060b0513
    1238:	06020501 	streq	r0, [r2], -r1, lsl #10
    123c:	052e0630 	streq	r0, [lr, #-1584]!	; 0xfffff9d0
    1240:	24020604 	strcs	r0, [r2], #-1540	; 0xfffff9fc
    1244:	0f051315 	svceq	0x00051315
    1248:	052e0106 	streq	r0, [lr, #-262]!	; 0xfffffefa
    124c:	05054a06 	streq	r4, [r5, #-2566]	; 0xfffff5fa
    1250:	05134b06 	ldreq	r4, [r3, #-2822]	; 0xfffff4fa
    1254:	05010609 	streq	r0, [r1, #-1545]	; 0xfffff9f7
    1258:	052f0605 	streq	r0, [pc, #-1541]!	; c5b <_start-0x73a5>
    125c:	0510060b 	ldreq	r0, [r0, #-1547]	; 0xfffff9f5
    1260:	0402000d 	streq	r0, [r2], #-13
    1264:	04052c01 	streq	r2, [r5], #-3073	; 0xfffff3ff
    1268:	01040200 	mrseq	r0, R12_usr
    126c:	05053406 	streq	r3, [r5, #-1030]	; 0xfffffbfa
    1270:	01040200 	mrseq	r0, R12_usr
    1274:	001b0513 	andseq	r0, fp, r3, lsl r5
    1278:	06010402 	streq	r0, [r1], -r2, lsl #8
    127c:	00070501 	andeq	r0, r7, r1, lsl #10
    1280:	d6010402 	strle	r0, [r1], -r2, lsl #8
    1284:	02001805 	andeq	r1, r0, #327680	; 0x50000
    1288:	052e0104 	streq	r0, [lr, #-260]!	; 0xfffffefc
    128c:	0402000a 	streq	r0, [r2], #-10
    1290:	0b054a01 	bleq	153a9c <__bss_end__+0x1499cc>
    1294:	01040200 	mrseq	r0, R12_usr
    1298:	0e052f06 	cdpeq	15, 0, cr2, cr5, cr6, {0}
    129c:	01040200 	mrseq	r0, R12_usr
    12a0:	04052e06 	streq	r2, [r5], #-3590	; 0xfffff1fa
    12a4:	01040200 	mrseq	r0, R12_usr
    12a8:	054b062e 	strbeq	r0, [fp, #-1582]	; 0xfffff9d2
    12ac:	05010606 	streq	r0, [r1, #-1542]	; 0xfffff9fa
    12b0:	052f0605 	streq	r0, [pc, #-1541]!	; cb3 <_start-0x734d>
    12b4:	0501060a 	streq	r0, [r1, #-1546]	; 0xfffff9f6
    12b8:	052e4a07 	streq	r4, [lr, #-2567]!	; 0xfffff5f9
    12bc:	2e76030d 	cdpcs	3, 7, cr0, cr6, cr13, {0}
    12c0:	0d0b054a 	cfstr32eq	mvfx0, [fp, #-296]	; 0xfffffed8
    12c4:	02000d05 	andeq	r0, r0, #320	; 0x140
    12c8:	03060104 	movweq	r0, #24836	; 0x6104
    12cc:	11052e14 	tstne	r5, r4, lsl lr
    12d0:	01040200 	mrseq	r0, R12_usr
    12d4:	002d0513 	eoreq	r0, sp, r3, lsl r5
    12d8:	06010402 	streq	r0, [r1], -r2, lsl #8
    12dc:	002a0501 	eoreq	r0, sl, r1, lsl #10
    12e0:	2e010402 	cdpcs	4, 0, cr0, cr1, cr2, {0}
    12e4:	02001605 	andeq	r1, r0, #5242880	; 0x500000
    12e8:	054a0104 	strbeq	r0, [sl, #-260]	; 0xfffffefc
    12ec:	04020014 	streq	r0, [r2], #-20	; 0xffffffec
    12f0:	054b0601 	strbeq	r0, [fp, #-1537]	; 0xfffff9ff
    12f4:	0402000d 	streq	r0, [r2], #-13
    12f8:	00010601 	andeq	r0, r1, r1, lsl #12
    12fc:	4a010402 	bmi	4230c <__bss_end__+0x3823c>
    1300:	12052f06 	andne	r2, r5, #6, 30
    1304:	054a0106 	strbeq	r0, [sl, #-262]	; 0xfffffefa
    1308:	052f060d 	streq	r0, [pc, #-1549]!	; d03 <_start-0x72fd>
    130c:	05010612 	streq	r0, [r1, #-1554]	; 0xfffff9ee
    1310:	054b0619 	strbeq	r0, [fp, #-1561]	; 0xfffff9e7
    1314:	04020004 	streq	r0, [r2], #-4
    1318:	01110302 	tsteq	r1, r2, lsl #6
    131c:	02040200 	andeq	r0, r4, #0, 4
    1320:	00020501 	andeq	r0, r2, r1, lsl #10
    1324:	15020402 	strne	r0, [r2, #-1026]	; 0xfffffbfe
    1328:	02000905 	andeq	r0, r0, #81920	; 0x14000
    132c:	01060204 	tsteq	r6, r4, lsl #4
    1330:	02040200 	andeq	r0, r4, #0, 4
    1334:	0001054a 	andeq	r0, r1, sl, asr #10
    1338:	9f020402 	svcls	0x00020402
    133c:	03060405 	movweq	r0, #25605	; 0x6405
    1340:	09054a6e 	stmdbeq	r5, {r1, r2, r3, r5, r6, r9, fp, lr}
    1344:	04050106 	streq	r0, [r5], #-262	; 0xfffffefa
    1348:	06052f06 	streq	r2, [r5], -r6, lsl #30
    134c:	04051106 	streq	r1, [r5], #-262	; 0xfffffefa
    1350:	030b052f 	movweq	r0, #46383	; 0xb52f
    1354:	19052e63 	stmdbne	r5, {r0, r1, r5, r6, r9, sl, fp, sp}
    1358:	01040200 	mrseq	r0, R12_usr
    135c:	2e240306 	cdpcs	3, 2, cr0, cr4, cr6, {0}
    1360:	02001a05 	andeq	r1, r0, #20480	; 0x5000
    1364:	05130104 	ldreq	r0, [r3, #-260]	; 0xfffffefc
    1368:	04020028 	streq	r0, [r2], #-40	; 0xffffffd8
    136c:	05010601 	streq	r0, [r1, #-1537]	; 0xfffff9ff
    1370:	04020025 	streq	r0, [r2], #-37	; 0xffffffdb
    1374:	1f052e01 	svcne	0x00052e01
    1378:	01040200 	mrseq	r0, R12_usr
    137c:	000b054a 	andeq	r0, fp, sl, asr #10
    1380:	06010402 	streq	r0, [r1], -r2, lsl #8
    1384:	0004054b 	andeq	r0, r4, fp, asr #10
    1388:	06010402 	streq	r0, [r1], -r2, lsl #8
    138c:	04020001 	streq	r0, [r2], #-1
    1390:	02004a01 	andeq	r4, r0, #4096	; 0x1000
    1394:	4e060104 	adfmis	f0, f6, f4
    1398:	01040200 	mrseq	r0, R12_usr
    139c:	04020001 	streq	r0, [r2], #-1
    13a0:	02000101 	andeq	r0, r0, #1073741824	; 0x40000000
    13a4:	00010104 	andeq	r0, r1, r4, lsl #2
    13a8:	2e010402 	cdpcs	4, 0, cr0, cr1, cr2, {0}
    13ac:	01040200 	mrseq	r0, R12_usr
    13b0:	0348059e 	movteq	r0, #34206	; 0x859e
    13b4:	05f27fa8 	ldrbeq	r7, [r2, #4008]!	; 0xfa8
    13b8:	06011305 	streq	r1, [r1], -r5, lsl #6
    13bc:	0402002e 	streq	r0, [r2], #-46	; 0xffffffd2
    13c0:	002e0602 	eoreq	r0, lr, r2, lsl #12
    13c4:	01020402 	tsteq	r2, r2, lsl #8
    13c8:	02040200 	andeq	r0, r4, #0, 4
    13cc:	00110513 	andseq	r0, r1, r3, lsl r5
    13d0:	06020402 	streq	r0, [r2], -r2, lsl #8
    13d4:	00050501 	andeq	r0, r5, r1, lsl #10
    13d8:	06020402 	streq	r0, [r2], -r2, lsl #8
    13dc:	0007054b 	andeq	r0, r7, fp, asr #10
    13e0:	06020402 	streq	r0, [r2], -r2, lsl #8
    13e4:	06090501 	streq	r0, [r9], -r1, lsl #10
    13e8:	060e052f 	streq	r0, [lr], -pc, lsr #10
    13ec:	00480501 	subeq	r0, r8, r1, lsl #10
    13f0:	62010402 	andvs	r0, r1, #33554432	; 0x2000000
    13f4:	02000505 	andeq	r0, r0, #20971520	; 0x1400000
    13f8:	2f060104 	svccs	0x00060104
    13fc:	01040200 	mrseq	r0, R12_usr
    1400:	04020001 	streq	r0, [r2], #-1
    1404:	02002e01 	andeq	r2, r0, #1, 28
    1408:	059e0104 	ldreq	r0, [lr, #260]	; 0x104
    140c:	00df0340 	sbcseq	r0, pc, r0, asr #6
    1410:	050106ba 	streq	r0, [r1, #-1722]	; 0xfffff946
    1414:	059f0602 	ldreq	r0, [pc, #1538]	; 1a1e <_start-0x65e2>
    1418:	0501061e 	streq	r0, [r1, #-1566]	; 0xfffff9e2
    141c:	02052e12 	andeq	r2, r5, #288	; 0x120
    1420:	09053006 	stmdbeq	r5, {r1, r2, ip, sp}
    1424:	02050106 	andeq	r0, r5, #-2147483647	; 0x80000001
    1428:	08054b06 	stmdaeq	r5, {r1, r2, r8, r9, fp, lr}
    142c:	02050f06 	andeq	r0, r5, #6, 30
    1430:	06040531 			; <UNDEFINED> instruction: 0x06040531
    1434:	060f0530 			; <UNDEFINED> instruction: 0x060f0530
    1438:	2e090501 	cfsh32cs	mvfx0, mvfx9, #1
    143c:	2c060805 	stccs	8, cr0, [r6], {5}
    1440:	2e060205 	cdpcs	2, 0, cr0, cr6, cr5, {0}
    1444:	02000d05 	andeq	r0, r0, #320	; 0x140
    1448:	054a0104 	strbeq	r0, [sl, #-260]	; 0xfffffefc
    144c:	054b0603 	strbeq	r0, [fp, #-1539]	; 0xfffff9fd
    1450:	05010605 	streq	r0, [r1, #-1541]	; 0xfffff9fb
    1454:	054d0608 	strbeq	r0, [sp, #-1544]	; 0xfffff9f8
    1458:	0501060e 	streq	r0, [r1, #-1550]	; 0xfffff9f2
    145c:	04052e0a 	streq	r2, [r5], #-3594	; 0xfffff1f6
    1460:	09052f06 	stmdbeq	r5, {r1, r2, r8, r9, sl, fp, sp}
    1464:	04050106 	streq	r0, [r5], #-262	; 0xfffffefa
    1468:	07052f06 	streq	r2, [r5, -r6, lsl #30]
    146c:	052e0106 	streq	r0, [lr, #-262]!	; 0xfffffefa
    1470:	05300604 	ldreq	r0, [r0, #-1540]!	; 0xfffff9fc
    1474:	05010607 	streq	r0, [r1, #-1543]	; 0xfffff9f9
    1478:	13300604 	teqne	r0, #4, 12	; 0x400000
    147c:	060d0514 			; <UNDEFINED> instruction: 0x060d0514
    1480:	30090510 	andcc	r0, r9, r0, lsl r5
    1484:	2f060505 	svccs	0x00060505
    1488:	01061205 	tsteq	r6, r5, lsl #4
    148c:	052e1605 	streq	r1, [lr, #-1541]!	; 0xfffff9fb
    1490:	05052e0b 	streq	r2, [r5, #-3595]	; 0xfffff1f5
    1494:	08052f06 	stmdaeq	r5, {r1, r2, r8, r9, sl, fp, sp}
    1498:	09050106 	stmdbeq	r5, {r1, r2, r8}
    149c:	12052c06 	andne	r2, r5, #1536	; 0x600
    14a0:	0a050106 	beq	1418c0 <__bss_end__+0x1377f0>
    14a4:	4a09052e 	bmi	242964 <__bss_end__+0x238894>
    14a8:	4e060405 	cdpmi	4, 0, cr0, cr6, cr5, {0}
    14ac:	14014a01 	strne	r4, [r1], #-2561	; 0xfffff5ff
    14b0:	01040200 	mrseq	r0, R12_usr
    14b4:	00103602 	andseq	r3, r0, r2, lsl #12
    14b8:	01010402 	tsteq	r1, r2, lsl #8
    14bc:	01040200 	mrseq	r0, R12_usr
    14c0:	0402002e 	streq	r0, [r2], #-46	; 0xffffffd2
    14c4:	05059e01 	streq	r9, [r5, #-3585]	; 0xfffff1ff
    14c8:	9e2e0134 	mcrls	1, 1, r0, cr14, cr4, {1}
    14cc:	010e032e 	tsteq	lr, lr, lsr #6
    14d0:	01060905 	tsteq	r6, r5, lsl #18
    14d4:	08060505 	stmdaeq	r6, {r0, r2, r8, sl}
    14d8:	03040559 	movweq	r0, #17753	; 0x4559
    14dc:	07050115 	smladeq	r5, r5, r1, r0
    14e0:	04050106 	streq	r0, [r5], #-262	; 0xfffffefa
    14e4:	0a053106 	beq	14d904 <__bss_end__+0x143834>
    14e8:	06040501 	streq	r0, [r4], -r1, lsl #10
    14ec:	00130501 	andseq	r0, r3, r1, lsl #10
    14f0:	4a010402 	bmi	42500 <__bss_end__+0x38430>
    14f4:	02001005 	andeq	r1, r0, #5
    14f8:	052e0104 	streq	r0, [lr, #-260]!	; 0xfffffefc
    14fc:	054b0605 	strbeq	r0, [fp, #-1541]	; 0xfffff9fb
    1500:	0501060e 	streq	r0, [r1, #-1550]	; 0xfffff9f2
    1504:	052e2e0a 	streq	r2, [lr, #-3594]!	; 0xfffff1f6
    1508:	69030605 	stmdbvs	r3, {r0, r2, r9, sl}
    150c:	061c052e 	ldreq	r0, [ip], -lr, lsr #10
    1510:	82090501 	andhi	r0, r9, #4194304	; 0x400000
    1514:	d7060505 	strle	r0, [r6, -r5, lsl #10]
    1518:	061c0531 			; <UNDEFINED> instruction: 0x061c0531
    151c:	82090501 	andhi	r0, r9, #4194304	; 0x400000
    1520:	d7060505 	strle	r0, [r6, -r5, lsl #10]
    1524:	061b0530 			; <UNDEFINED> instruction: 0x061b0530
    1528:	82090501 	andhi	r0, r9, #4194304	; 0x400000
    152c:	d7060505 	strle	r0, [r6, -r5, lsl #10]
    1530:	06070530 			; <UNDEFINED> instruction: 0x06070530
    1534:	06050501 	streq	r0, [r5], -r1, lsl #10
    1538:	09053083 	stmdbeq	r5, {r0, r1, r7, ip, sp}
    153c:	05050106 	streq	r0, [r5, #-262]	; 0xfffffefa
    1540:	30590806 	subscc	r0, r9, r6, lsl #16
    1544:	06d62e01 	ldrbeq	r2, [r6], r1, lsl #28
    1548:	0602052e 	streq	r0, [r2], -lr, lsr #10
    154c:	05010a03 	streq	r0, [r1, #-2563]	; 0xfffff5fd
    1550:	05010607 	streq	r0, [r1, #-1543]	; 0xfffff9f9
    1554:	054b0602 	strbeq	r0, [fp, #-1538]	; 0xfffff9fe
    1558:	66130601 	ldrvs	r0, [r3], -r1, lsl #12
    155c:	01000a02 	tsteq	r0, r2, lsl #20
    1560:	0000eb01 	andeq	lr, r0, r1, lsl #22
    1564:	d1000300 	mrsle	r0, LR_irq
    1568:	02000000 	andeq	r0, r0, #0
    156c:	0d0efb01 	vstreq	d15, [lr, #-4]
    1570:	01010100 	mrseq	r0, (UNDEF: 17)
    1574:	00000001 	andeq	r0, r0, r1
    1578:	01000001 	tsteq	r0, r1
    157c:	66617473 			; <UNDEFINED> instruction: 0x66617473
    1580:	72732d66 	rsbsvc	r2, r3, #6528	; 0x1980
    1584:	752f0063 	strvc	r0, [pc, #-99]!	; 1529 <_start-0x6ad7>
    1588:	612f7273 			; <UNDEFINED> instruction: 0x612f7273
    158c:	6e2d6d72 	mcrvs	13, 1, r6, cr13, cr2, {3}
    1590:	2d656e6f 	stclcs	14, cr6, [r5, #-444]!	; 0xfffffe44
    1594:	69626165 	stmdbvs	r2!, {r0, r2, r5, r6, r8, sp, lr}^
    1598:	636e692f 	cmnvs	lr, #770048	; 0xbc000
    159c:	6564756c 	strbvs	r7, [r4, #-1388]!	; 0xfffffa94
    15a0:	7379732f 	cmnvc	r9, #-1140850688	; 0xbc000000
    15a4:	73752f00 	cmnvc	r5, #0, 30
    15a8:	696c2f72 	stmdbvs	ip!, {r1, r4, r5, r6, r8, r9, sl, fp, sp}^
    15ac:	63672f62 	cmnvs	r7, #392	; 0x188
    15b0:	72612f63 	rsbvc	r2, r1, #396	; 0x18c
    15b4:	6f6e2d6d 	svcvs	0x006e2d6d
    15b8:	652d656e 	strvs	r6, [sp, #-1390]!	; 0xfffffa92
    15bc:	2f696261 	svccs	0x00696261
    15c0:	2e322e39 	mrccs	14, 1, r2, cr2, cr9, {1}
    15c4:	6e692f30 	mcrvs	15, 3, r2, cr9, cr0, {1}
    15c8:	64756c63 	ldrbtvs	r6, [r5], #-3171	; 0xfffff39d
    15cc:	682f0065 	stmdavs	pc!, {r0, r2, r5, r6}	; <UNPREDICTABLE>
    15d0:	2f656d6f 	svccs	0x00656d6f
    15d4:	72657375 	rsbvc	r7, r5, #-738197503	; 0xd4000001
    15d8:	7665442f 	strbtvc	r4, [r5], -pc, lsr #8
    15dc:	3253432f 	subscc	r4, r3, #-1140850688	; 0xbc000000
    15e0:	2f583034 	svccs	0x00583034
    15e4:	7062696c 	rsbvc	r6, r2, ip, ror #18
    15e8:	6e692f69 	cdpvs	15, 6, cr2, cr9, cr9, {3}
    15ec:	64756c63 	ldrbtvs	r6, [r5], #-3171	; 0xfffff39d
    15f0:	63000065 	movwvs	r0, #101	; 0x65
    15f4:	6e61656c 	cdpvs	5, 6, cr6, cr1, cr12, {3}
    15f8:	6265722d 	rsbvs	r7, r5, #-805306366	; 0xd0000002
    15fc:	2e746f6f 	cdpcs	15, 7, cr6, cr4, cr15, {3}
    1600:	00010063 	andeq	r0, r1, r3, rrx
    1604:	636f6c00 	cmnvs	pc, #0, 24
    1608:	00682e6b 	rsbeq	r2, r8, fp, ror #28
    160c:	5f000002 	svcpl	0x00000002
    1610:	65707974 	ldrbvs	r7, [r0, #-2420]!	; 0xfffff68c
    1614:	00682e73 	rsbeq	r2, r8, r3, ror lr
    1618:	73000002 	movwvc	r0, #2
    161c:	65646474 	strbvs	r6, [r4, #-1140]!	; 0xfffffb8c
    1620:	00682e66 	rsbeq	r2, r8, r6, ror #28
    1624:	72000003 	andvc	r0, r0, #3
    1628:	746e6565 	strbtvc	r6, [lr], #-1381	; 0xfffffa9b
    162c:	0200682e 	andeq	r6, r0, #3014656	; 0x2e0000
    1630:	70720000 	rsbsvc	r0, r2, r0
    1634:	00682e69 	rsbeq	r2, r8, r9, ror #28
    1638:	00000004 	andeq	r0, r0, r4
    163c:	05001905 	streq	r1, [r0, #-2309]	; 0xfffff6fb
    1640:	00911802 	addseq	r1, r1, r2, lsl #16
    1644:	05051500 	streq	r1, [r5, #-1280]	; 0xfffffb00
    1648:	024b832f 	subeq	r8, fp, #-1140850688	; 0xbc000000
    164c:	01010006 	tsteq	r1, r6
    1650:	00000104 	andeq	r0, r0, r4, lsl #2
    1654:	00cb0003 	sbceq	r0, fp, r3
    1658:	01020000 	mrseq	r0, (UNDEF: 2)
    165c:	000d0efb 	strdeq	r0, [sp], -fp
    1660:	01010101 	tsteq	r1, r1, lsl #2
    1664:	01000000 	mrseq	r0, (UNDEF: 0)
    1668:	73010000 	movwvc	r0, #4096	; 0x1000
    166c:	66666174 			; <UNDEFINED> instruction: 0x66666174
    1670:	6372732d 	cmnvs	r2, #-1275068416	; 0xb4000000
    1674:	73752f00 	cmnvc	r5, #0, 30
    1678:	72612f72 	rsbvc	r2, r1, #456	; 0x1c8
    167c:	6f6e2d6d 	svcvs	0x006e2d6d
    1680:	652d656e 	strvs	r6, [sp, #-1390]!	; 0xfffffa92
    1684:	2f696261 	svccs	0x00696261
    1688:	6c636e69 	stclvs	14, cr6, [r3], #-420	; 0xfffffe5c
    168c:	2f656475 	svccs	0x00656475
    1690:	00737973 	rsbseq	r7, r3, r3, ror r9
    1694:	7273752f 	rsbsvc	r7, r3, #197132288	; 0xbc00000
    1698:	62696c2f 	rsbvs	r6, r9, #12032	; 0x2f00
    169c:	6363672f 	cmnvs	r3, #12320768	; 0xbc0000
    16a0:	6d72612f 	ldfvse	f6, [r2, #-188]!	; 0xffffff44
    16a4:	6e6f6e2d 	cdpvs	14, 6, cr6, cr15, cr13, {1}
    16a8:	61652d65 	cmnvs	r5, r5, ror #26
    16ac:	392f6962 	stmdbcc	pc!, {r1, r5, r6, r8, fp, sp, lr}	; <UNPREDICTABLE>
    16b0:	302e322e 	eorcc	r3, lr, lr, lsr #4
    16b4:	636e692f 	cmnvs	lr, #770048	; 0xbc000
    16b8:	6564756c 	strbvs	r7, [r4, #-1388]!	; 0xfffffa94
    16bc:	6f682f00 	svcvs	0x00682f00
    16c0:	752f656d 	strvc	r6, [pc, #-1389]!	; 115b <_start-0x6ea5>
    16c4:	2f726573 	svccs	0x00726573
    16c8:	2f766544 	svccs	0x00766544
    16cc:	34325343 	ldrtcc	r5, [r2], #-835	; 0xfffffcbd
    16d0:	6c2f5830 	stcvs	8, cr5, [pc], #-192	; 1618 <_start-0x69e8>
    16d4:	69706269 	ldmdbvs	r0!, {r0, r3, r5, r6, r9, sp, lr}^
    16d8:	636e692f 	cmnvs	lr, #770048	; 0xbc000
    16dc:	6564756c 	strbvs	r7, [r4, #-1388]!	; 0xfffffa94
    16e0:	73630000 	cmnvc	r3, #0
    16e4:	74726174 	ldrbtvc	r6, [r2], #-372	; 0xfffffe8c
    16e8:	0100632e 	tsteq	r0, lr, lsr #6
    16ec:	6f6c0000 	svcvs	0x006c0000
    16f0:	682e6b63 	stmdavs	lr!, {r0, r1, r5, r6, r8, r9, fp, sp, lr}
    16f4:	00000200 	andeq	r0, r0, r0, lsl #4
    16f8:	7079745f 	rsbsvc	r7, r9, pc, asr r4
    16fc:	682e7365 	stmdavs	lr!, {r0, r2, r5, r6, r8, r9, ip, sp, lr}
    1700:	00000200 	andeq	r0, r0, r0, lsl #4
    1704:	64647473 	strbtvs	r7, [r4], #-1139	; 0xfffffb8d
    1708:	682e6665 	stmdavs	lr!, {r0, r2, r5, r6, r9, sl, sp, lr}
    170c:	00000300 	andeq	r0, r0, r0, lsl #6
    1710:	6e656572 	mcrvs	5, 3, r6, cr5, cr2, {3}
    1714:	00682e74 	rsbeq	r2, r8, r4, ror lr
    1718:	72000002 	andvc	r0, r0, #2
    171c:	682e6970 	stmdavs	lr!, {r4, r5, r6, r8, fp, sp, lr}
    1720:	00000400 	andeq	r0, r0, r0, lsl #8
    1724:	00100500 	andseq	r0, r0, r0, lsl #10
    1728:	91400205 	cmpls	r0, r5, lsl #4
    172c:	0c030000 	stceq	0, cr0, [r3], {-0}
    1730:	2f050501 	svccs	0x00050501
    1734:	05130205 	ldreq	r0, [r3, #-517]	; 0xfffffdfb
    1738:	14131405 	ldrne	r1, [r3], #-1029	; 0xfffffbfb
    173c:	0f060a05 	svceq	0x00060a05
    1740:	09053106 	stmdbeq	r5, {r1, r2, r8, ip, sp}
    1744:	0610054b 	ldreq	r0, [r0], -fp, asr #10
    1748:	05054a01 	streq	r4, [r5, #-2561]	; 0xfffff5ff
    174c:	2e140306 	cdpcs	3, 1, cr0, cr4, cr6, {0}
    1750:	022f0205 	eoreq	r0, pc, #1342177280	; 0x50000000
    1754:	01010006 	tsteq	r1, r6
    1758:	00000138 	andeq	r0, r0, r8, lsr r1
    175c:	00cb0003 	sbceq	r0, fp, r3
    1760:	01020000 	mrseq	r0, (UNDEF: 2)
    1764:	000d0efb 	strdeq	r0, [sp], -fp
    1768:	01010101 	tsteq	r1, r1, lsl #2
    176c:	01000000 	mrseq	r0, (UNDEF: 0)
    1770:	73010000 	movwvc	r0, #4096	; 0x1000
    1774:	66666174 			; <UNDEFINED> instruction: 0x66666174
    1778:	6372732d 	cmnvs	r2, #-1275068416	; 0xb4000000
    177c:	73752f00 	cmnvc	r5, #0, 30
    1780:	72612f72 	rsbvc	r2, r1, #456	; 0x1c8
    1784:	6f6e2d6d 	svcvs	0x006e2d6d
    1788:	652d656e 	strvs	r6, [sp, #-1390]!	; 0xfffffa92
    178c:	2f696261 	svccs	0x00696261
    1790:	6c636e69 	stclvs	14, cr6, [r3], #-420	; 0xfffffe5c
    1794:	2f656475 	svccs	0x00656475
    1798:	00737973 	rsbseq	r7, r3, r3, ror r9
    179c:	7273752f 	rsbsvc	r7, r3, #197132288	; 0xbc00000
    17a0:	62696c2f 	rsbvs	r6, r9, #12032	; 0x2f00
    17a4:	6363672f 	cmnvs	r3, #12320768	; 0xbc0000
    17a8:	6d72612f 	ldfvse	f6, [r2, #-188]!	; 0xffffff44
    17ac:	6e6f6e2d 	cdpvs	14, 6, cr6, cr15, cr13, {1}
    17b0:	61652d65 	cmnvs	r5, r5, ror #26
    17b4:	392f6962 	stmdbcc	pc!, {r1, r5, r6, r8, fp, sp, lr}	; <UNPREDICTABLE>
    17b8:	302e322e 	eorcc	r3, lr, lr, lsr #4
    17bc:	636e692f 	cmnvs	lr, #770048	; 0xbc000
    17c0:	6564756c 	strbvs	r7, [r4, #-1388]!	; 0xfffffa94
    17c4:	6f682f00 	svcvs	0x00682f00
    17c8:	752f656d 	strvc	r6, [pc, #-1389]!	; 1263 <_start-0x6d9d>
    17cc:	2f726573 	svccs	0x00726573
    17d0:	2f766544 	svccs	0x00766544
    17d4:	34325343 	ldrtcc	r5, [r2], #-835	; 0xfffffcbd
    17d8:	6c2f5830 	stcvs	8, cr5, [pc], #-192	; 1720 <_start-0x68e0>
    17dc:	69706269 	ldmdbvs	r0!, {r0, r3, r5, r6, r9, sp, lr}^
    17e0:	636e692f 	cmnvs	lr, #770048	; 0xbc000
    17e4:	6564756c 	strbvs	r7, [r4, #-1388]!	; 0xfffffa94
    17e8:	65720000 	ldrbvs	r0, [r2, #-0]!
    17ec:	746f6f62 	strbtvc	r6, [pc], #-3938	; 17f4 <_start-0x680c>
    17f0:	0100632e 	tsteq	r0, lr, lsr #6
    17f4:	6f6c0000 	svcvs	0x006c0000
    17f8:	682e6b63 	stmdavs	lr!, {r0, r1, r5, r6, r8, r9, fp, sp, lr}
    17fc:	00000200 	andeq	r0, r0, r0, lsl #4
    1800:	7079745f 	rsbsvc	r7, r9, pc, asr r4
    1804:	682e7365 	stmdavs	lr!, {r0, r2, r5, r6, r8, r9, ip, sp, lr}
    1808:	00000200 	andeq	r0, r0, r0, lsl #4
    180c:	64647473 	strbtvs	r7, [r4], #-1139	; 0xfffffb8d
    1810:	682e6665 	stmdavs	lr!, {r0, r2, r5, r6, r9, sl, sp, lr}
    1814:	00000300 	andeq	r0, r0, r0, lsl #6
    1818:	6e656572 	mcrvs	5, 3, r6, cr5, cr2, {3}
    181c:	00682e74 	rsbeq	r2, r8, r4, ror lr
    1820:	72000002 	andvc	r0, r0, #2
    1824:	682e6970 	stmdavs	lr!, {r4, r5, r6, r8, fp, sp, lr}
    1828:	00000400 	andeq	r0, r0, r0, lsl #8
    182c:	00190500 	andseq	r0, r9, r0, lsl #10
    1830:	916c0205 	cmnls	ip, r5, lsl #4
    1834:	0d030000 	stceq	0, cr0, [r3, #-0]
    1838:	13050501 	movwne	r0, #21761	; 0x5501
    183c:	13053113 	movwne	r3, #20755	; 0x5113
    1840:	01050106 	tsteq	r5, r6, lsl #2
    1844:	061b052f 	ldreq	r0, [fp], -pc, lsr #10
    1848:	13050585 	movwne	r0, #21893	; 0x5585
    184c:	2f090514 	svccs	0x00090514
    1850:	01061605 	tsteq	r6, r5, lsl #12
    1854:	052e0e05 	streq	r0, [lr, #-3589]!	; 0xfffff1fb
    1858:	052f0605 	streq	r0, [pc, #-1541]!	; 125b <_start-0x6da5>
    185c:	052f0601 	streq	r0, [pc, #-1537]!	; 1263 <_start-0x6d9d>
    1860:	05300617 	ldreq	r0, [r0, #-1559]!	; 0xfffff9e9
    1864:	08052f05 	stmdaeq	r5, {r0, r2, r8, r9, sl, fp, sp}
    1868:	07050106 	streq	r0, [r5, -r6, lsl #2]
    186c:	0605052e 	streq	r0, [r5], -lr, lsr #10
    1870:	13134c52 	tstne	r3, #20992	; 0x5200
    1874:	00671513 	rsbeq	r1, r7, r3, lsl r5
    1878:	67010402 	strvs	r0, [r1, -r2, lsl #8]
    187c:	02000d05 	andeq	r0, r0, #320	; 0x140
    1880:	05010104 	streq	r0, [r1, #-260]	; 0xfffffefc
    1884:	0402000a 	streq	r0, [r2], #-10
    1888:	09050101 	stmdbeq	r5, {r0, r8}
    188c:	022e6f03 	eoreq	r6, lr, #3, 30
    1890:	0101000c 	tsteq	r1, ip
    1894:	0000015a 	andeq	r0, r0, sl, asr r1
    1898:	00ca0003 	sbceq	r0, sl, r3
    189c:	01020000 	mrseq	r0, (UNDEF: 2)
    18a0:	000d0efb 	strdeq	r0, [sp], -fp
    18a4:	01010101 	tsteq	r1, r1, lsl #2
    18a8:	01000000 	mrseq	r0, (UNDEF: 0)
    18ac:	73010000 	movwvc	r0, #4096	; 0x1000
    18b0:	66666174 			; <UNDEFINED> instruction: 0x66666174
    18b4:	6372732d 	cmnvs	r2, #-1275068416	; 0xb4000000
    18b8:	73752f00 	cmnvc	r5, #0, 30
    18bc:	72612f72 	rsbvc	r2, r1, #456	; 0x1c8
    18c0:	6f6e2d6d 	svcvs	0x006e2d6d
    18c4:	652d656e 	strvs	r6, [sp, #-1390]!	; 0xfffffa92
    18c8:	2f696261 	svccs	0x00696261
    18cc:	6c636e69 	stclvs	14, cr6, [r3], #-420	; 0xfffffe5c
    18d0:	2f656475 	svccs	0x00656475
    18d4:	00737973 	rsbseq	r7, r3, r3, ror r9
    18d8:	7273752f 	rsbsvc	r7, r3, #197132288	; 0xbc00000
    18dc:	62696c2f 	rsbvs	r6, r9, #12032	; 0x2f00
    18e0:	6363672f 	cmnvs	r3, #12320768	; 0xbc0000
    18e4:	6d72612f 	ldfvse	f6, [r2, #-188]!	; 0xffffff44
    18e8:	6e6f6e2d 	cdpvs	14, 6, cr6, cr15, cr13, {1}
    18ec:	61652d65 	cmnvs	r5, r5, ror #26
    18f0:	392f6962 	stmdbcc	pc!, {r1, r5, r6, r8, fp, sp, lr}	; <UNPREDICTABLE>
    18f4:	302e322e 	eorcc	r3, lr, lr, lsr #4
    18f8:	636e692f 	cmnvs	lr, #770048	; 0xbc000
    18fc:	6564756c 	strbvs	r7, [r4, #-1388]!	; 0xfffffa94
    1900:	6f682f00 	svcvs	0x00682f00
    1904:	752f656d 	strvc	r6, [pc, #-1389]!	; 139f <_start-0x6c61>
    1908:	2f726573 	svccs	0x00726573
    190c:	2f766544 	svccs	0x00766544
    1910:	34325343 	ldrtcc	r5, [r2], #-835	; 0xfffffcbd
    1914:	6c2f5830 	stcvs	8, cr5, [pc], #-192	; 185c <_start-0x67a4>
    1918:	69706269 	ldmdbvs	r0!, {r0, r3, r5, r6, r9, sp, lr}^
    191c:	636e692f 	cmnvs	lr, #770048	; 0xbc000
    1920:	6564756c 	strbvs	r7, [r4, #-1388]!	; 0xfffffa94
    1924:	69740000 	ldmdbvs	r4!, {}^	; <UNPREDICTABLE>
    1928:	2e72656d 	cdpcs	5, 7, cr6, cr2, cr13, {3}
    192c:	00010063 	andeq	r0, r1, r3, rrx
    1930:	636f6c00 	cmnvs	pc, #0, 24
    1934:	00682e6b 	rsbeq	r2, r8, fp, ror #28
    1938:	5f000002 	svcpl	0x00000002
    193c:	65707974 	ldrbvs	r7, [r0, #-2420]!	; 0xfffff68c
    1940:	00682e73 	rsbeq	r2, r8, r3, ror lr
    1944:	73000002 	movwvc	r0, #2
    1948:	65646474 	strbvs	r6, [r4, #-1140]!	; 0xfffffb8c
    194c:	00682e66 	rsbeq	r2, r8, r6, ror #28
    1950:	72000003 	andvc	r0, r0, #3
    1954:	746e6565 	strbtvc	r6, [lr], #-1381	; 0xfffffa9b
    1958:	0200682e 	andeq	r6, r0, #3014656	; 0x2e0000
    195c:	70720000 	rsbsvc	r0, r2, r0
    1960:	00682e69 	rsbeq	r2, r8, r9, ror #28
    1964:	00000004 	andeq	r0, r0, r4
    1968:	05002305 	streq	r2, [r0, #-773]	; 0xfffffcfb
    196c:	0091e402 	addseq	lr, r1, r2, lsl #8
    1970:	05051600 	streq	r1, [r5, #-1536]	; 0xfffffa00
    1974:	010a0514 	tsteq	sl, r4, lsl r5
    1978:	01061005 	tsteq	r6, r5
    197c:	052e0a05 	streq	r0, [lr, #-2565]!	; 0xfffff5fb
    1980:	054b0609 	strbeq	r0, [fp, #-1545]	; 0xfffff9f7
    1984:	052d0610 	streq	r0, [sp, #-1552]!	; 0xfffff9f0
    1988:	0a030623 	beq	c321c <__bss_end__+0xb914c>
    198c:	2f05054a 	svccs	0x0005054a
    1990:	01060c05 	tsteq	r6, r5, lsl #24
    1994:	054b0105 	strbeq	r0, [fp, #-261]	; 0xfffffefb
    1998:	054d061f 	strbeq	r0, [sp, #-1567]	; 0xfffff9e1
    199c:	12053205 	andne	r3, r5, #1342177280	; 0x50000000
    19a0:	05050106 	streq	r0, [r5, #-262]	; 0xfffffefa
    19a4:	01053006 	tsteq	r5, r6
    19a8:	1c051306 	stcne	3, cr1, [r5], {6}
    19ac:	01063006 	tsteq	r6, r6
    19b0:	4b060505 	blmi	182dcc <__bss_end__+0x178cfc>
    19b4:	01061305 	tsteq	r6, r5, lsl #6
    19b8:	0605052e 	streq	r0, [r5], -lr, lsr #10
    19bc:	1309052f 	movwne	r0, #38191	; 0x952f
    19c0:	01061705 	tsteq	r6, r5, lsl #14
    19c4:	2f060905 	svccs	0x00060905
    19c8:	01061105 	tsteq	r6, r5, lsl #2
    19cc:	052e0c05 	streq	r0, [lr, #-3077]!	; 0xfffff3fb
    19d0:	066b061c 			; <UNDEFINED> instruction: 0x066b061c
    19d4:	06050501 	streq	r0, [r5], -r1, lsl #10
    19d8:	054a062f 	strbeq	r0, [sl, #-1583]	; 0xfffff9d1
    19dc:	1e054b01 	vmlane.f64	d4, d5, d1
    19e0:	01062f06 	tsteq	r6, r6, lsl #30
    19e4:	2f060505 	svccs	0x00060505
    19e8:	01054a06 	tsteq	r5, r6, lsl #20
    19ec:	0002024b 	andeq	r0, r2, fp, asr #4
    19f0:	01480101 	cmpeq	r8, r1, lsl #2
    19f4:	00020000 	andeq	r0, r2, r0
    19f8:	00000102 	andeq	r0, r0, r2, lsl #2
    19fc:	0efb0102 	cdpeq	1, 15, cr0, cr11, cr2, {0}
    1a00:	0101000d 	tsteq	r1, sp
    1a04:	00000101 	andeq	r0, r0, r1, lsl #2
    1a08:	00000100 	andeq	r0, r0, r0, lsl #2
    1a0c:	73752f01 	cmnvc	r5, #1, 30
    1a10:	6e692f72 	mcrvs	15, 3, r2, cr9, cr2, {3}
    1a14:	64756c63 	ldrbtvs	r6, [r5], #-3171	; 0xfffff39d
    1a18:	656e2f65 	strbvs	r2, [lr, #-3941]!	; 0xfffff09b
    1a1c:	62696c77 	rsbvs	r6, r9, #30464	; 0x7700
    1a20:	7379732f 	cmnvc	r9, #-1140850688	; 0xbc000000
    1a24:	73752f00 	cmnvc	r5, #0, 30
    1a28:	696c2f72 	stmdbvs	ip!, {r1, r4, r5, r6, r8, r9, sl, fp, sp}^
    1a2c:	63672f62 	cmnvs	r7, #392	; 0x188
    1a30:	72612f63 	rsbvc	r2, r1, #396	; 0x18c
    1a34:	6f6e2d6d 	svcvs	0x006e2d6d
    1a38:	652d656e 	strvs	r6, [sp, #-1390]!	; 0xfffffa92
    1a3c:	2f696261 	svccs	0x00696261
    1a40:	2e332e36 	mrccs	14, 1, r2, cr3, cr6, {1}
    1a44:	6e692f31 	mcrvs	15, 3, r2, cr9, cr1, {1}
    1a48:	64756c63 	ldrbtvs	r6, [r5], #-3171	; 0xfffff39d
    1a4c:	682f0065 	stmdavs	pc!, {r0, r2, r5, r6}	; <UNPREDICTABLE>
    1a50:	2f656d6f 	svccs	0x00656d6f
    1a54:	6c676e65 	stclvs	14, cr6, [r7], #-404	; 0xfffffe6c
    1a58:	632f7265 			; <UNDEFINED> instruction: 0x632f7265
    1a5c:	7373616c 	cmnvc	r3, #108, 2
    1a60:	3273632f 	rsbscc	r6, r3, #-1140850688	; 0xbc000000
    1a64:	786c3034 	stmdavc	ip!, {r2, r4, r5, ip, sp}^
    1a68:	7330322d 	teqvc	r0, #-805306366	; 0xd0000002
    1a6c:	2f2f7270 	svccs	0x002f7270
    1a70:	7062696c 	rsbvc	r6, r2, ip, ror #18
    1a74:	682f0069 	stmdavs	pc!, {r0, r3, r5, r6}	; <UNPREDICTABLE>
    1a78:	2f656d6f 	svccs	0x00656d6f
    1a7c:	6c676e65 	stclvs	14, cr6, [r7], #-404	; 0xfffffe6c
    1a80:	632f7265 			; <UNDEFINED> instruction: 0x632f7265
    1a84:	7373616c 	cmnvc	r3, #108, 2
    1a88:	3273632f 	rsbscc	r6, r3, #-1140850688	; 0xbc000000
    1a8c:	786c3034 	stmdavc	ip!, {r2, r4, r5, ip, sp}^
    1a90:	7330322d 	teqvc	r0, #-805306366	; 0xd0000002
    1a94:	2f2f7270 	svccs	0x002f7270
    1a98:	7062696c 	rsbvc	r6, r2, ip, ror #18
    1a9c:	74732f69 	ldrbtvc	r2, [r3], #-3945	; 0xfffff097
    1aa0:	2d666661 	stclcs	6, cr6, [r6, #-388]!	; 0xfffffe7c
    1aa4:	00637273 	rsbeq	r7, r3, r3, ror r2
    1aa8:	72617500 	rsbvc	r7, r1, #0, 10
    1aac:	00632e74 	rsbeq	r2, r3, r4, ror lr
    1ab0:	6c000000 	stcvs	0, cr0, [r0], {-0}
    1ab4:	2e6b636f 	cdpcs	3, 6, cr6, cr11, cr15, {3}
    1ab8:	00010068 	andeq	r0, r1, r8, rrx
    1abc:	79745f00 	ldmdbvc	r4!, {r8, r9, sl, fp, ip, lr}^
    1ac0:	2e736570 	mrccs	5, 3, r6, cr3, cr0, {3}
    1ac4:	00010068 	andeq	r0, r1, r8, rrx
    1ac8:	64747300 	ldrbtvs	r7, [r4], #-768	; 0xfffffd00
    1acc:	2e666564 	cdpcs	5, 6, cr6, cr6, cr4, {3}
    1ad0:	00020068 	andeq	r0, r2, r8, rrx
    1ad4:	65657200 	strbvs	r7, [r5, #-512]!	; 0xfffffe00
    1ad8:	682e746e 	stmdavs	lr!, {r1, r2, r3, r5, r6, sl, ip, sp, lr}
    1adc:	00000100 	andeq	r0, r0, r0, lsl #2
    1ae0:	2e697072 	mcrcs	0, 3, r7, cr9, cr2, {3}
    1ae4:	00030068 	andeq	r0, r3, r8, rrx
    1ae8:	72617500 	rsbvc	r7, r1, #0, 10
    1aec:	00682e74 	rsbeq	r2, r8, r4, ror lr
    1af0:	67000004 	strvs	r0, [r0, -r4]
    1af4:	2e6f6970 			; <UNDEFINED> instruction: 0x2e6f6970
    1af8:	00040068 	andeq	r0, r4, r8, rrx
    1afc:	05000000 	streq	r0, [r0, #-0]
    1b00:	0092bc02 	addseq	fp, r2, r2, lsl #24
    1b04:	012c0300 			; <UNDEFINED> instruction: 0x012c0300
    1b08:	9e0c0367 	cdpls	3, 0, cr0, cr12, cr7, {3}
    1b0c:	35686735 	strbcc	r6, [r8, #-1845]!	; 0xfffff8cb
    1b10:	2e0c0368 	cdpcs	3, 0, cr0, cr12, cr8, {3}
    1b14:	69696b85 	stmdbvs	r9!, {r0, r2, r7, r8, r9, fp, sp, lr}^
    1b18:	6b660c03 	blvs	1984b2c <__bss_end__+0x197aa5c>
    1b1c:	34420867 	strbcc	r0, [r2], #-2151	; 0xfffff799
    1b20:	68364b68 	ldmdavs	r6!, {r3, r5, r6, r8, r9, fp, lr}
    1b24:	02002f87 	andeq	r2, r0, #540	; 0x21c
    1b28:	682f0104 	stmdavs	pc!, {r2, r8}	; <UNPREDICTABLE>
    1b2c:	4b673067 	blmi	19cdcd0 <__bss_end__+0x19c3c00>
    1b30:	01040200 	mrseq	r0, R12_usr
    1b34:	6967682f 	stmdbvs	r7!, {r0, r1, r2, r3, r5, fp, sp, lr}^
    1b38:	0006022e 	andeq	r0, r6, lr, lsr #4
    1b3c:	012b0101 			; <UNDEFINED> instruction: 0x012b0101
    1b40:	00020000 	andeq	r0, r2, r0
    1b44:	000000f8 	strdeq	r0, [r0], -r8
    1b48:	0efb0102 	cdpeq	1, 15, cr0, cr11, cr2, {0}
    1b4c:	0101000d 	tsteq	r1, sp
    1b50:	00000101 	andeq	r0, r0, r1, lsl #2
    1b54:	00000100 	andeq	r0, r0, r0, lsl #2
    1b58:	73752f01 	cmnvc	r5, #1, 30
    1b5c:	6e692f72 	mcrvs	15, 3, r2, cr9, cr2, {3}
    1b60:	64756c63 	ldrbtvs	r6, [r5], #-3171	; 0xfffff39d
    1b64:	656e2f65 	strbvs	r2, [lr, #-3941]!	; 0xfffff09b
    1b68:	62696c77 	rsbvs	r6, r9, #30464	; 0x7700
    1b6c:	7379732f 	cmnvc	r9, #-1140850688	; 0xbc000000
    1b70:	73752f00 	cmnvc	r5, #0, 30
    1b74:	696c2f72 	stmdbvs	ip!, {r1, r4, r5, r6, r8, r9, sl, fp, sp}^
    1b78:	63672f62 	cmnvs	r7, #392	; 0x188
    1b7c:	72612f63 	rsbvc	r2, r1, #396	; 0x18c
    1b80:	6f6e2d6d 	svcvs	0x006e2d6d
    1b84:	652d656e 	strvs	r6, [sp, #-1390]!	; 0xfffffa92
    1b88:	2f696261 	svccs	0x00696261
    1b8c:	2e332e36 	mrccs	14, 1, r2, cr3, cr6, {1}
    1b90:	6e692f31 	mcrvs	15, 3, r2, cr9, cr1, {1}
    1b94:	64756c63 	ldrbtvs	r6, [r5], #-3171	; 0xfffff39d
    1b98:	682f0065 	stmdavs	pc!, {r0, r2, r5, r6}	; <UNPREDICTABLE>
    1b9c:	2f656d6f 	svccs	0x00656d6f
    1ba0:	6c676e65 	stclvs	14, cr6, [r7], #-404	; 0xfffffe6c
    1ba4:	632f7265 			; <UNDEFINED> instruction: 0x632f7265
    1ba8:	7373616c 	cmnvc	r3, #108, 2
    1bac:	3273632f 	rsbscc	r6, r3, #-1140850688	; 0xbc000000
    1bb0:	786c3034 	stmdavc	ip!, {r2, r4, r5, ip, sp}^
    1bb4:	7330322d 	teqvc	r0, #-805306366	; 0xd0000002
    1bb8:	2f2f7270 	svccs	0x002f7270
    1bbc:	7062696c 	rsbvc	r6, r2, ip, ror #18
    1bc0:	682f0069 	stmdavs	pc!, {r0, r3, r5, r6}	; <UNPREDICTABLE>
    1bc4:	2f656d6f 	svccs	0x00656d6f
    1bc8:	6c676e65 	stclvs	14, cr6, [r7], #-404	; 0xfffffe6c
    1bcc:	632f7265 			; <UNDEFINED> instruction: 0x632f7265
    1bd0:	7373616c 	cmnvc	r3, #108, 2
    1bd4:	3273632f 	rsbscc	r6, r3, #-1140850688	; 0xbc000000
    1bd8:	786c3034 	stmdavc	ip!, {r2, r4, r5, ip, sp}^
    1bdc:	7330322d 	teqvc	r0, #-805306366	; 0xd0000002
    1be0:	2f2f7270 	svccs	0x002f7270
    1be4:	7062696c 	rsbvc	r6, r2, ip, ror #18
    1be8:	74732f69 	ldrbtvc	r2, [r3], #-3945	; 0xfffff097
    1bec:	2d666661 	stclcs	6, cr6, [r6, #-388]!	; 0xfffffe7c
    1bf0:	00637273 	rsbeq	r7, r3, r3, ror r2
    1bf4:	69706700 	ldmdbvs	r0!, {r8, r9, sl, sp, lr}^
    1bf8:	00632e6f 	rsbeq	r2, r3, pc, ror #28
    1bfc:	6c000000 	stcvs	0, cr0, [r0], {-0}
    1c00:	2e6b636f 	cdpcs	3, 6, cr6, cr11, cr15, {3}
    1c04:	00010068 	andeq	r0, r1, r8, rrx
    1c08:	79745f00 	ldmdbvc	r4!, {r8, r9, sl, fp, ip, lr}^
    1c0c:	2e736570 	mrccs	5, 3, r6, cr3, cr0, {3}
    1c10:	00010068 	andeq	r0, r1, r8, rrx
    1c14:	64747300 	ldrbtvs	r7, [r4], #-768	; 0xfffffd00
    1c18:	2e666564 	cdpcs	5, 6, cr6, cr6, cr4, {3}
    1c1c:	00020068 	andeq	r0, r2, r8, rrx
    1c20:	65657200 	strbvs	r7, [r5, #-512]!	; 0xfffffe00
    1c24:	682e746e 	stmdavs	lr!, {r1, r2, r3, r5, r6, sl, ip, sp, lr}
    1c28:	00000100 	andeq	r0, r0, r0, lsl #2
    1c2c:	2e697072 	mcrcs	0, 3, r7, cr9, cr2, {3}
    1c30:	00030068 	andeq	r0, r3, r8, rrx
    1c34:	69706700 	ldmdbvs	r0!, {r8, r9, sl, sp, lr}^
    1c38:	00682e6f 	rsbeq	r2, r8, pc, ror #28
    1c3c:	00000004 	andeq	r0, r0, r4
    1c40:	34020500 	strcc	r0, [r2], #-1280	; 0xfffffb00
    1c44:	03000094 	movweq	r0, #148	; 0x94
    1c48:	4c130127 	ldfmis	f0, [r3], {39}	; 0x27
    1c4c:	68f44f47 	ldmvs	r4!, {r0, r1, r2, r6, r8, r9, sl, fp, lr}^
    1c50:	2fa14c4b 	svccs	0x00a14c4b
    1c54:	3149136a 	cmpcc	r9, sl, ror #6
    1c58:	314913be 	strhcc	r1, [r9, #-62]	; 0xffffffc2
    1c5c:	2f6a2fbe 	svccs	0x006a2fbe
    1c60:	134f484d 	movtne	r4, #63565	; 0xf84d
    1c64:	b72f3249 	strlt	r3, [pc, -r9, asr #4]!
    1c68:	01000602 	tsteq	r0, r2, lsl #12
    1c6c:	00013401 	andeq	r3, r1, r1, lsl #8
    1c70:	df000200 	svcle	0x00000200
    1c74:	02000000 	andeq	r0, r0, #0
    1c78:	0d0efb01 	vstreq	d15, [lr, #-4]
    1c7c:	01010100 	mrseq	r0, (UNDEF: 17)
    1c80:	00000001 	andeq	r0, r0, r1
    1c84:	01000001 	tsteq	r0, r1
    1c88:	7273752f 	rsbsvc	r7, r3, #197132288	; 0xbc00000
    1c8c:	636e692f 	cmnvs	lr, #770048	; 0xbc000
    1c90:	6564756c 	strbvs	r7, [r4, #-1388]!	; 0xfffffa94
    1c94:	77656e2f 	strbvc	r6, [r5, -pc, lsr #28]!
    1c98:	2f62696c 	svccs	0x0062696c
    1c9c:	00737973 	rsbseq	r7, r3, r3, ror r9
    1ca0:	7273752f 	rsbsvc	r7, r3, #197132288	; 0xbc00000
    1ca4:	62696c2f 	rsbvs	r6, r9, #12032	; 0x2f00
    1ca8:	6363672f 	cmnvs	r3, #12320768	; 0xbc0000
    1cac:	6d72612f 	ldfvse	f6, [r2, #-188]!	; 0xffffff44
    1cb0:	6e6f6e2d 	cdpvs	14, 6, cr6, cr15, cr13, {1}
    1cb4:	61652d65 	cmnvs	r5, r5, ror #26
    1cb8:	362f6962 	strtcc	r6, [pc], -r2, ror #18
    1cbc:	312e332e 			; <UNDEFINED> instruction: 0x312e332e
    1cc0:	636e692f 	cmnvs	lr, #770048	; 0xbc000
    1cc4:	6564756c 	strbvs	r7, [r4, #-1388]!	; 0xfffffa94
    1cc8:	6f682f00 	svcvs	0x00682f00
    1ccc:	652f656d 	strvs	r6, [pc, #-1389]!	; 1767 <_start-0x6899>
    1cd0:	656c676e 	strbvs	r6, [ip, #-1902]!	; 0xfffff892
    1cd4:	6c632f72 	stclvs	15, cr2, [r3], #-456	; 0xfffffe38
    1cd8:	2f737361 	svccs	0x00737361
    1cdc:	34327363 	ldrtcc	r7, [r2], #-867	; 0xfffffc9d
    1ce0:	2d786c30 	ldclcs	12, cr6, [r8, #-192]!	; 0xffffff40
    1ce4:	70733032 	rsbsvc	r3, r3, r2, lsr r0
    1ce8:	6c2f2f72 	stcvs	15, cr2, [pc], #-456	; 1b28 <_start-0x64d8>
    1cec:	69706269 	ldmdbvs	r0!, {r0, r3, r5, r6, r9, sp, lr}^
    1cf0:	73752f00 	cmnvc	r5, #0, 30
    1cf4:	6e692f72 	mcrvs	15, 3, r2, cr9, cr2, {3}
    1cf8:	64756c63 	ldrbtvs	r6, [r5], #-3171	; 0xfffff39d
    1cfc:	656e2f65 	strbvs	r2, [lr, #-3941]!	; 0xfffff09b
    1d00:	62696c77 	rsbvs	r6, r9, #30464	; 0x7700
    1d04:	6d6b0000 	stclvs	0, cr0, [fp, #-0]
    1d08:	6f6c6c61 	svcvs	0x006c6c61
    1d0c:	00632e63 	rsbeq	r2, r3, r3, ror #28
    1d10:	6c000000 	stcvs	0, cr0, [r0], {-0}
    1d14:	2e6b636f 	cdpcs	3, 6, cr6, cr11, cr15, {3}
    1d18:	00010068 	andeq	r0, r1, r8, rrx
    1d1c:	79745f00 	ldmdbvc	r4!, {r8, r9, sl, fp, ip, lr}^
    1d20:	2e736570 	mrccs	5, 3, r6, cr3, cr0, {3}
    1d24:	00010068 	andeq	r0, r1, r8, rrx
    1d28:	64747300 	ldrbtvs	r7, [r4], #-768	; 0xfffffd00
    1d2c:	2e666564 	cdpcs	5, 6, cr6, cr6, cr4, {3}
    1d30:	00020068 	andeq	r0, r2, r8, rrx
    1d34:	65657200 	strbvs	r7, [r5, #-512]!	; 0xfffffe00
    1d38:	682e746e 	stmdavs	lr!, {r1, r2, r3, r5, r6, sl, ip, sp, lr}
    1d3c:	00000100 	andeq	r0, r0, r0, lsl #2
    1d40:	2e697072 	mcrcs	0, 3, r7, cr9, cr2, {3}
    1d44:	00030068 	andeq	r0, r3, r8, rrx
    1d48:	72747300 	rsbsvc	r7, r4, #0, 6
    1d4c:	2e676e69 	cdpcs	14, 6, cr6, cr7, cr9, {3}
    1d50:	00040068 	andeq	r0, r4, r8, rrx
    1d54:	05000000 	streq	r0, [r0, #-0]
    1d58:	00955402 	addseq	r5, r5, r2, lsl #8
    1d5c:	01100300 	tsteq	r0, r0, lsl #6
    1d60:	68018301 	stmdavs	r1, {r0, r8, r9, pc}
    1d64:	02008314 	andeq	r8, r0, #20, 6	; 0x50000000
    1d68:	007f0104 	rsbseq	r0, pc, r4, lsl #2
    1d6c:	30010402 	andcc	r0, r1, r2, lsl #8
    1d70:	4b2f5c08 	blmi	bd8d98 <__bss_end__+0xbcecc8>
    1d74:	684b4b4c 	stmdavs	fp, {r2, r3, r6, r8, r9, fp, lr}^
    1d78:	01040200 	mrseq	r0, R12_usr
    1d7c:	034a7903 	movteq	r7, #43267	; 0xa903
    1d80:	2f580809 	svccs	0x00580809
    1d84:	2f4e2e01 	svccs	0x004e2e01
    1d88:	67674b6a 	strbvs	r4, [r7, -sl, ror #22]!
    1d8c:	02002f4c 	andeq	r2, r0, #76, 30	; 0x130
    1d90:	76030104 	strvc	r0, [r3], -r4, lsl #2
    1d94:	0402002e 	streq	r0, [r2], #-46	; 0xffffffd2
    1d98:	7a08dc01 	bvc	238da4 <__bss_end__+0x22ecd4>
    1d9c:	019f012f 	orrseq	r0, pc, pc, lsr #2
    1da0:	01000802 	tsteq	r0, r2, lsl #16
    1da4:	Address 0x0000000000001da4 is out of bounds.


Disassembly of section .debug_str:

00000000 <.debug_str>:
   0:	6f73645f 	svcvs	0x0073645f
   4:	6e61685f 	mcrvs	8, 3, r6, cr1, cr15, {2}
   8:	00656c64 	rsbeq	r6, r5, r4, ror #24
   c:	685f6b63 	ldmdavs	pc, {r0, r1, r5, r6, r8, r9, fp, sp, lr}^	; <UNPREDICTABLE>
  10:	5f706165 	svcpl	0x00706165
  14:	6f727265 	svcvs	0x00727265
  18:	5f007372 	svcpl	0x00007372
  1c:	657a6973 	ldrbvs	r6, [sl, #-2419]!	; 0xfffff68d
  20:	61725f00 	cmnvs	r2, r0, lsl #30
  24:	3834646e 	ldmdacc	r4!, {r1, r2, r3, r5, r6, sl, sp, lr}
  28:	6d655f00 	stclvs	15, cr5, [r5, #-0]
  2c:	65677265 	strbvs	r7, [r7, #-613]!	; 0xfffffd9b
  30:	0079636e 	rsbseq	r6, r9, lr, ror #6
  34:	6d746f6e 	ldclvs	15, cr6, [r4, #-440]!	; 0xfffffe48
  38:	006e6961 	rsbeq	r6, lr, r1, ror #18
  3c:	7263775f 	rsbvc	r7, r3, #24903680	; 0x17c0000
  40:	626d6f74 	rsbvs	r6, sp, #116, 30	; 0x1d0
  44:	6174735f 	cmnvs	r4, pc, asr r3
  48:	5f006574 	svcpl	0x00006574
  4c:	72736377 	rsbsvc	r6, r3, #-603979775	; 0xdc000001
  50:	626d6f74 	rsbvs	r6, sp, #116, 30	; 0x1d0
  54:	74735f73 	ldrbtvc	r5, [r3], #-3955	; 0xfffff08d
  58:	00657461 	rsbeq	r7, r5, r1, ror #8
  5c:	676e6f6c 	strbvs	r6, [lr, -ip, ror #30]!
  60:	6e6f6c20 	cdpvs	12, 6, cr6, cr15, cr0, {1}
  64:	6e752067 	cdpvs	0, 7, cr2, cr5, cr7, {3}
  68:	6e676973 			; <UNDEFINED> instruction: 0x6e676973
  6c:	69206465 	stmdbvs	r0!, {r0, r2, r5, r6, sl, sp, lr}
  70:	6300746e 	movwvs	r7, #1134	; 0x46e
  74:	6c6c616b 	stfvse	f6, [ip], #-428	; 0xfffffe54
  78:	5f00636f 	svcpl	0x0000636f
  7c:	7366626c 	cmnvc	r6, #108, 4	; 0xc0000006
  80:	00657a69 	rsbeq	r7, r5, r9, ror #20
  84:	6f6c5f5f 	svcvs	0x006c5f5f
  88:	656c6163 	strbvs	r6, [ip, #-355]!	; 0xfffffe9d
  8c:	5f00745f 	svcpl	0x0000745f
  90:	7472626d 	ldrbtvc	r6, [r2], #-621	; 0xfffffd93
  94:	5f63776f 	svcpl	0x0063776f
  98:	74617473 	strbtvc	r7, [r1], #-1139	; 0xfffffb8d
  9c:	5f5f0065 	svcpl	0x005f0065
  a0:	735f6d74 	cmpvc	pc, #116, 26	; 0x1d00
  a4:	6c006365 	stcvs	3, cr6, [r0], {101}	; 0x65
  a8:	20676e6f 	rsbcs	r6, r7, pc, ror #28
  ac:	676e6f6c 	strbvs	r6, [lr, -ip, ror #30]!
  b0:	746e6920 	strbtvc	r6, [lr], #-2336	; 0xfffff6e0
  b4:	62755f00 	rsbsvs	r5, r5, #0, 30
  b8:	5f006675 	svcpl	0x00006675
  bc:	65736162 	ldrbvs	r6, [r3, #-354]!	; 0xfffffe9e
  c0:	745f5f00 	ldrbvc	r5, [pc], #-3840	; c8 <_start-0x7f38>
  c4:	6f685f6d 	svcvs	0x00685f6d
  c8:	2f007275 	svccs	0x00007275
  cc:	656d6f68 	strbvs	r6, [sp, #-3944]!	; 0xfffff098
  d0:	6573752f 	ldrbvs	r7, [r3, #-1327]!	; 0xfffffad1
  d4:	65442f72 	strbvs	r2, [r4, #-3954]	; 0xfffff08e
  d8:	53432f76 	movtpl	r2, #16246	; 0x3f76
  dc:	58303432 	ldmdapl	r0!, {r1, r4, r5, sl, ip, sp}
  e0:	62616c2f 	rsbvs	r6, r1, #12032	; 0x2f00
  e4:	30312f73 	eorscc	r2, r1, r3, ror pc
  e8:	6d656d2d 	stclvs	13, cr6, [r5, #-180]!	; 0xffffff4c
  ec:	63656863 	cmnvs	r5, #6488064	; 0x630000
  f0:	74732d6b 	ldrbtvc	r2, [r3], #-3435	; 0xfffff295
  f4:	632f7461 			; <UNDEFINED> instruction: 0x632f7461
  f8:	0065646f 	rsbeq	r6, r5, pc, ror #8
  fc:	66735f5f 	uhsaxvs	r5, r3, pc	; <UNPREDICTABLE>
 100:	6e6f5f00 	cdpvs	15, 6, cr5, cr15, cr0, {0}
 104:	6978655f 	ldmdbvs	r8!, {r0, r1, r2, r3, r4, r6, r8, sl, sp, lr}^
 108:	72615f74 	rsbvc	r5, r1, #116, 30	; 0x1d0
 10c:	5f007367 	svcpl	0x00007367
 110:	6b6f6f63 	blvs	1bdbea4 <__bss_end__+0x1bd1dd4>
 114:	5f006569 	svcpl	0x00006569
 118:	6c67735f 	stclvs	3, cr7, [r7], #-380	; 0xfffffe84
 11c:	5f006575 	svcpl	0x00006575
 120:	67616c66 	strbvs	r6, [r1, -r6, ror #24]!
 124:	695f0073 	ldmdbvs	pc, {r0, r1, r4, r5, r6}^	; <UNPREDICTABLE>
 128:	78635f73 	stmdavc	r3!, {r0, r1, r4, r5, r6, r8, r9, sl, fp, ip, lr}^
 12c:	735f0061 	cmpvc	pc, #97	; 0x61
 130:	6e696474 	mcrvs	4, 3, r6, cr9, cr4, {3}
 134:	5f6b6300 	svcpl	0x006b6300
 138:	74696e69 	strbtvc	r6, [r9], #-3689	; 0xfffff197
 13c:	6c625f00 	stclvs	15, cr5, [r2], #-0
 140:	7a69736b 	bvc	1a5cef4 <__bss_end__+0x1a52e24>
 144:	635f0065 	cmpvs	pc, #101	; 0x65
 148:	75627476 	strbvc	r7, [r2, #-1142]!	; 0xfffffb8a
 14c:	6f5f0066 	svcvs	0x005f0066
 150:	65736666 	ldrbvs	r6, [r3, #-1638]!	; 0xfffff99a
 154:	6d6b0074 	stclvs	0, cr0, [fp, #-464]!	; 0xfffffe30
 158:	6f6c6c61 	svcvs	0x006c6c61
 15c:	6e695f63 	cdpvs	15, 6, cr5, cr9, cr3, {3}
 160:	735f7469 	cmpvc	pc, #1761607680	; 0x69000000
 164:	735f7465 	cmpvc	pc, #1694498816	; 0x65000000
 168:	74726174 	ldrbtvc	r6, [r2], #-372	; 0xfffffe8c
 16c:	626d5f00 	rsbvs	r5, sp, #0, 30
 170:	6f747273 	svcvs	0x00747273
 174:	5f736377 	svcpl	0x00736377
 178:	74617473 	strbtvc	r7, [r1], #-1139	; 0xfffffb8d
 17c:	6d5f0065 	ldclvs	0, cr0, [pc, #-404]	; fffffff0 <__bss_end__+0xffff5f20>
 180:	656c7262 	strbvs	r7, [ip, #-610]!	; 0xfffffd9e
 184:	74735f6e 	ldrbtvc	r5, [r3], #-3950	; 0xfffff092
 188:	00657461 	rsbeq	r7, r5, r1, ror #8
 18c:	616e665f 	cmnvs	lr, pc, asr r6
 190:	00736772 	rsbseq	r6, r3, r2, ror r7
 194:	736e665f 	cmnvc	lr, #99614720	; 0x5f00000
 198:	69735f00 	ldmdbvs	r3!, {r8, r9, sl, fp, ip, lr}^
 19c:	5f006e67 	svcpl	0x00006e67
 1a0:	636f6c66 	cmnvs	pc, #26112	; 0x6600
 1a4:	00745f6b 	rsbseq	r5, r4, fp, ror #30
 1a8:	6474735f 	ldrbtvs	r7, [r4], #-863	; 0xfffffca1
 1ac:	00727265 	rsbseq	r7, r2, r5, ror #4
 1b0:	6769425f 			; <UNDEFINED> instruction: 0x6769425f
 1b4:	00746e69 	rsbseq	r6, r4, r9, ror #28
 1b8:	6d61675f 	stclvs	7, cr6, [r1, #-380]!	; 0xfffffe84
 1bc:	735f616d 	cmpvc	pc, #1073741851	; 0x4000001b
 1c0:	676e6769 	strbvs	r6, [lr, -r9, ror #14]!
 1c4:	5f006d61 	svcpl	0x00006d61
 1c8:	75736572 	ldrbvc	r6, [r3, #-1394]!	; 0xfffffa8e
 1cc:	6b5f746c 	blvs	17dd384 <__bss_end__+0x17d32b4>
 1d0:	69707200 	ldmdbvs	r0!, {r9, ip, sp, lr}^
 1d4:	7475705f 	ldrbtvc	r7, [r5], #-95	; 0xffffffa1
 1d8:	72616863 	rsbvc	r6, r1, #6488064	; 0x630000
 1dc:	745f5f00 	ldrbvc	r5, [pc], #-3840	; 1e4 <_start-0x7e1c>
 1e0:	5f5f006d 	svcpl	0x005f006d
 1e4:	62686377 	rsbvs	r6, r8, #-603979775	; 0xdc000001
 1e8:	69707200 	ldmdbvs	r0!, {r9, ip, sp, lr}^
 1ec:	7365725f 	cmnvc	r5, #-268435451	; 0xf0000005
 1f0:	705f7465 	subsvc	r7, pc, r5, ror #8
 1f4:	00637475 	rsbeq	r7, r3, r5, ror r4
 1f8:	6474735f 	ldrbtvs	r7, [r4], #-863	; 0xfffffca1
 1fc:	0074756f 	rsbseq	r7, r4, pc, ror #10
 200:	7476635f 	ldrbtvc	r6, [r6], #-863	; 0xfffffca1
 204:	006e656c 	rsbeq	r6, lr, ip, ror #10
 208:	6c69665f 	stclvs	6, cr6, [r9], #-380	; 0xfffffe84
 20c:	5f5f0065 	svcpl	0x005f0065
 210:	434e5546 	movtmi	r5, #58694	; 0xe546
 214:	4e4f4954 			; <UNDEFINED> instruction: 0x4e4f4954
 218:	5f005f5f 	svcpl	0x00005f5f
 21c:	626f696e 	rsbvs	r6, pc, #1802240	; 0x1b8000
 220:	68730073 	ldmdavs	r3!, {r0, r1, r4, r5, r6}^
 224:	2074726f 	rsbscs	r7, r4, pc, ror #4
 228:	69736e75 	ldmdbvs	r3!, {r0, r2, r4, r5, r6, r9, sl, fp, sp, lr}^
 22c:	64656e67 	strbtvs	r6, [r5], #-3687	; 0xfffff199
 230:	746e6920 	strbtvc	r6, [lr], #-2336	; 0xfffff6e0
 234:	74615f00 	strbtvc	r5, [r1], #-3840	; 0xfffff100
 238:	74697865 	strbtvc	r7, [r9], #-2149	; 0xfffff79b
 23c:	735f0030 	cmpvc	pc, #48	; 0x30
 240:	616e6769 	cmnvs	lr, r9, ror #14
 244:	75625f6c 	strbvc	r5, [r2, #-3948]!	; 0xfffff094
 248:	615f0066 	cmpvs	pc, r6, rrx
 24c:	69746373 	ldmdbvs	r4!, {r0, r1, r4, r5, r6, r8, r9, sp, lr}^
 250:	625f656d 	subsvs	r6, pc, #457179136	; 0x1b400000
 254:	5f006675 	svcpl	0x00006675
 258:	75736572 	ldrbvc	r6, [r3, #-1394]!	; 0xfffffa8e
 25c:	5f00746c 	svcpl	0x0000746c
 260:	6863775f 	stmdavs	r3!, {r0, r1, r2, r3, r4, r6, r8, r9, sl, ip, sp, lr}^
 264:	4f4c5f00 	svcmi	0x004c5f00
 268:	545f4b43 	ldrbpl	r4, [pc], #-2883	; 270 <_start-0x7d90>
 26c:	6e697700 	cdpvs	7, 6, cr7, cr9, cr0, {0}
 270:	00745f74 	rsbseq	r5, r4, r4, ror pc
 274:	72666b63 	rsbvc	r6, r6, #101376	; 0x18c00
 278:	5f006565 	svcpl	0x00006565
 27c:	67616c66 	strbvs	r6, [r1, -r6, ror #24]!
 280:	5f003273 	svcpl	0x00003273
 284:	5f6d745f 	svcpl	0x006d745f
 288:	72616579 	rsbvc	r6, r1, #507510784	; 0x1e400000
 28c:	656c6300 	strbvs	r6, [ip, #-768]!	; 0xfffffd00
 290:	725f6e61 	subsvc	r6, pc, #1552	; 0x610
 294:	6f6f6265 	svcvs	0x006f6265
 298:	6e5f0074 	mrcvs	0, 2, r0, cr15, cr4, {3}
 29c:	66747865 	ldrbtvs	r7, [r4], -r5, ror #16
 2a0:	745f5f00 	ldrbvc	r5, [pc], #-3840	; 2a8 <_start-0x7d58>
 2a4:	6f6d5f6d 	svcvs	0x006d5f6d
 2a8:	615f006e 	cmpvs	pc, lr, rrx
 2ac:	69786574 	ldmdbvs	r8!, {r2, r4, r5, r6, r8, sl, sp, lr}^
 2b0:	5f5f0074 	svcpl	0x005f0074
 2b4:	64696473 	strbtvs	r6, [r9], #-1139	; 0xfffffb8d
 2b8:	74696e69 	strbtvc	r6, [r9], #-3689	; 0xfffff197
 2bc:	666f5f00 	strbtvs	r5, [pc], -r0, lsl #30
 2c0:	00745f66 	rsbseq	r5, r4, r6, ror #30
 2c4:	6572665f 	ldrbvs	r6, [r2, #-1631]!	; 0xfffff9a1
 2c8:	73696c65 	cmnvc	r9, #25856	; 0x6500
 2cc:	775f0074 			; <UNDEFINED> instruction: 0x775f0074
 2d0:	6d6f7463 	cfstrdvs	mvd7, [pc, #-396]!	; 14c <_start-0x7eb4>
 2d4:	74735f62 	ldrbtvc	r5, [r3], #-3938	; 0xfffff09e
 2d8:	00657461 	rsbeq	r7, r5, r1, ror #8
 2dc:	69736e75 	ldmdbvs	r3!, {r0, r2, r4, r5, r6, r9, sl, fp, sp, lr}^
 2e0:	64656e67 	strbtvs	r6, [r5], #-3687	; 0xfffff199
 2e4:	61686320 	cmnvs	r8, r0, lsr #6
 2e8:	6e5f0072 	mrcvs	0, 2, r0, cr15, cr2, {3}
 2ec:	47007765 	strmi	r7, [r0, -r5, ror #14]
 2f0:	4320554e 			; <UNDEFINED> instruction: 0x4320554e
 2f4:	39203939 	stmdbcc	r0!, {r0, r3, r4, r5, r8, fp, ip, sp}
 2f8:	302e322e 	eorcc	r3, lr, lr, lsr #4
 2fc:	636d2d20 	cmnvs	sp, #32, 26	; 0x800
 300:	613d7570 	teqvs	sp, r0, ror r5
 304:	31316d72 	teqcc	r1, r2, ror sp
 308:	7a6a3637 	bvc	1a8dbec <__bss_end__+0x1a83b1c>
 30c:	20732d66 	rsbscs	r2, r3, r6, ror #26
 310:	75746d2d 	ldrbvc	r6, [r4, #-3373]!	; 0xfffff2d3
 314:	613d656e 	teqvs	sp, lr, ror #10
 318:	31316d72 	teqcc	r1, r2, ror sp
 31c:	7a6a3637 	bvc	1a8dc00 <__bss_end__+0x1a83b30>
 320:	20732d66 	rsbscs	r2, r3, r6, ror #26
 324:	6c666d2d 	stclvs	13, cr6, [r6], #-180	; 0xffffff4c
 328:	2d74616f 	ldfcse	f6, [r4, #-444]!	; 0xfffffe44
 32c:	3d696261 	sfmcc	f6, 2, [r9, #-388]!	; 0xfffffe7c
 330:	74666f73 	strbtvc	r6, [r6], #-3955	; 0xfffff08d
 334:	616d2d20 	cmnvs	sp, r0, lsr #26
 338:	2d206d72 	stccs	13, cr6, [r0, #-456]!	; 0xfffffe38
 33c:	6372616d 	cmnvs	r2, #1073741851	; 0x4000001b
 340:	72613d68 	rsbvc	r3, r1, #104, 26	; 0x1a00
 344:	6b36766d 	blvs	d9dd00 <__bss_end__+0xd93c30>
 348:	672d207a 			; <UNDEFINED> instruction: 0x672d207a
 34c:	20626467 	rsbcs	r6, r2, r7, ror #8
 350:	20674f2d 	rsbcs	r4, r7, sp, lsr #30
 354:	6474732d 	ldrbtvs	r7, [r4], #-813	; 0xfffffcd3
 358:	756e673d 	strbvc	r6, [lr, #-1853]!	; 0xfffff8c3
 35c:	2d203939 			; <UNDEFINED> instruction: 0x2d203939
 360:	65726666 	ldrbvs	r6, [r2, #-1638]!	; 0xfffff99a
 364:	61747365 	cmnvs	r4, r5, ror #6
 368:	6e69646e 	cdpvs	4, 6, cr6, cr9, cr14, {3}
 36c:	685f0067 	ldmdavs	pc, {r0, r1, r2, r5, r6}^	; <UNPREDICTABLE>
 370:	7272655f 	rsbsvc	r6, r2, #398458880	; 0x17c00000
 374:	73006f6e 	movwvc	r6, #3950	; 0xf6e
 378:	74726f68 	ldrbtvc	r6, [r2], #-3944	; 0xfffff098
 37c:	746e6920 	strbtvc	r6, [lr], #-2336	; 0xfffff6e0
 380:	72617000 	rsbvc	r7, r1, #0
 384:	742d3174 	strtvc	r3, [sp], #-372	; 0xfffffe8c
 388:	35747365 	ldrbcc	r7, [r4, #-869]!	; 0xfffffc9b
 38c:	5f00632e 	svcpl	0x0000632e
 390:	7562735f 	strbvc	r7, [r2, #-863]!	; 0xfffffca1
 394:	695f0066 	ldmdbvs	pc, {r1, r2, r5, r6}^	; <UNPREDICTABLE>
 398:	0073626f 	rsbseq	r6, r3, pc, ror #4
 39c:	49465f5f 	stmdbmi	r6, {r0, r1, r2, r3, r4, r6, r8, r9, sl, fp, ip, lr}^
 3a0:	5f00454c 	svcpl	0x0000454c
 3a4:	7473626d 	ldrbtvc	r6, [r3], #-621	; 0xfffffd93
 3a8:	5f657461 	svcpl	0x00657461
 3ac:	5f5f0074 	svcpl	0x005f0074
 3b0:	4c494673 	mcrrmi	6, 7, r4, r9, cr3
 3b4:	6d5f0045 	ldclvs	0, cr0, [pc, #-276]	; 2a8 <_start-0x7d58>
 3b8:	61747362 	cmnvs	r4, r2, ror #6
 3bc:	5f006574 	svcpl	0x00006574
 3c0:	646e6172 	strbtvs	r6, [lr], #-370	; 0xfffffe8e
 3c4:	78656e5f 	stmdavc	r5!, {r0, r1, r2, r3, r4, r6, r9, sl, fp, sp, lr}^
 3c8:	6d5f0074 	ldclvs	0, cr0, [pc, #-464]	; 200 <_start-0x7e00>
 3cc:	6e656c62 	cdpvs	12, 6, cr6, cr5, cr2, {3}
 3d0:	6174735f 	cmnvs	r4, pc, asr r3
 3d4:	5f006574 	svcpl	0x00006574
 3d8:	00636e69 	rsbeq	r6, r3, r9, ror #28
 3dc:	646e695f 	strbtvs	r6, [lr], #-2399	; 0xfffff6a1
 3e0:	635f5f00 	cmpvs	pc, #0, 30
 3e4:	6e61656c 	cdpvs	5, 6, cr6, cr1, cr12, {3}
 3e8:	5f007075 	svcpl	0x00007075
 3ec:	70736e75 	rsbsvc	r6, r3, r5, ror lr
 3f0:	66696365 	strbtvs	r6, [r9], -r5, ror #6
 3f4:	5f646569 	svcpl	0x00646569
 3f8:	61636f6c 	cmnvs	r3, ip, ror #30
 3fc:	695f656c 	ldmdbvs	pc, {r2, r3, r5, r6, r8, sl, sp, lr}^	; <UNPREDICTABLE>
 400:	006f666e 	rsbeq	r6, pc, lr, ror #12
 404:	78616d5f 	stmdavc	r1!, {r0, r1, r2, r3, r4, r6, r8, sl, fp, sp, lr}^
 408:	00736477 	rsbseq	r6, r3, r7, ror r4
 40c:	6565725f 	strbvs	r7, [r5, #-607]!	; 0xfffffda1
 410:	5f00746e 	svcpl	0x0000746e
 414:	64656573 	strbtvs	r6, [r5], #-1395	; 0xfffffa8d
 418:	635f5f00 	cmpvs	pc, #0, 30
 41c:	746e756f 	strbtvc	r7, [lr], #-1391	; 0xfffffa91
 420:	6c5f5f00 	mrrcvs	15, 0, r5, pc, cr0	; <UNPREDICTABLE>
 424:	006b636f 	rsbeq	r6, fp, pc, ror #6
 428:	61765f5f 	cmnvs	r6, pc, asr pc
 42c:	0065756c 	rsbeq	r7, r5, ip, ror #10
 430:	6565735f 	strbvs	r7, [r5, #-863]!	; 0xfffffca1
 434:	665f006b 	ldrbvs	r0, [pc], -fp, rrx
 438:	5f736f70 	svcpl	0x00736f70
 43c:	5f5f0074 	svcpl	0x005f0074
 440:	6d5f6d74 	ldclvs	13, cr6, [pc, #-464]	; 278 <_start-0x7d88>
 444:	5f006e69 	svcpl	0x00006e69
 448:	746c756d 	strbtvc	r7, [ip], #-1389	; 0xfffffa93
 44c:	74735f00 	ldrbtvc	r5, [r3], #-3840	; 0xfffff100
 450:	6b6f7472 	blvs	1bdd620 <__bss_end__+0x1bd3550>
 454:	73616c5f 	cmnvc	r1, #24320	; 0x5f00
 458:	665f0074 			; <UNDEFINED> instruction: 0x665f0074
 45c:	7079746e 	rsbsvc	r7, r9, lr, ror #8
 460:	5f007365 	svcpl	0x00007365
 464:	00646461 	rsbeq	r6, r4, r1, ror #8
 468:	4c555f5f 	mrrcmi	15, 5, r5, r5, cr15	; <UNPREDICTABLE>
 46c:	00676e6f 	rsbeq	r6, r7, pc, ror #28
 470:	7465675f 	strbtvc	r6, [r5], #-1887	; 0xfffff8a1
 474:	65746164 	ldrbvs	r6, [r4, #-356]!	; 0xfffffe9c
 478:	7272655f 	rsbsvc	r6, r2, #398458880	; 0x17c00000
 47c:	6c675f00 	stclvs	15, cr5, [r7], #-0
 480:	6c61626f 	sfmvs	f6, 2, [r1], #-444	; 0xfffffe44
 484:	706d695f 	rsbvc	r6, sp, pc, asr r9
 488:	5f657275 	svcpl	0x00657275
 48c:	00727470 	rsbseq	r7, r2, r0, ror r4
 490:	5f697072 	svcpl	0x00697072
 494:	646e6172 	strbtvs	r6, [lr], #-370	; 0xfffffe8e
 498:	5f003233 	svcpl	0x00003233
 49c:	73756e75 	cmnvc	r5, #1872	; 0x750
 4a0:	725f6465 	subsvc	r6, pc, #1694498816	; 0x65000000
 4a4:	00646e61 	rsbeq	r6, r4, r1, ror #28
 4a8:	7364775f 	cmnvc	r4, #24903680	; 0x17c0000
 4ac:	745f5f00 	ldrbvc	r5, [pc], #-3840	; 4b4 <_start-0x7b4c>
 4b0:	64775f6d 	ldrbtvs	r5, [r7], #-3949	; 0xfffff093
 4b4:	5f007961 	svcpl	0x00007961
 4b8:	65756c67 	ldrbvs	r6, [r5, #-3175]!	; 0xfffff399
 4bc:	6d6e5f00 	stclvs	15, cr5, [lr, #-0]
 4c0:	6f6c6c61 	svcvs	0x006c6c61
 4c4:	6c5f0063 	mrrcvs	0, 6, r0, pc, cr3	; <UNPREDICTABLE>
 4c8:	5f613436 	svcpl	0x00613436
 4cc:	00667562 	rsbeq	r7, r6, r2, ror #10
 4d0:	6769735f 			; <UNDEFINED> instruction: 0x6769735f
 4d4:	6e75665f 	mrcvs	6, 3, r6, cr5, cr15, {2}
 4d8:	6d6b0063 	stclvs	0, cr0, [fp, #-396]!	; 0xfffffe74
 4dc:	6f6c6c61 	svcvs	0x006c6c61
 4e0:	6e5f0063 	cdpvs	0, 5, cr0, cr15, cr3, {3}
 4e4:	00667562 	rsbeq	r7, r6, r2, ror #10
 4e8:	756e755f 	strbvc	r7, [lr, #-1375]!	; 0xfffffaa1
 4ec:	00646573 	rsbeq	r6, r4, r3, ror r5
 4f0:	6d745f5f 	ldclvs	15, cr5, [r4, #-380]!	; 0xfffffe84
 4f4:	6473695f 	ldrbtvs	r6, [r3], #-2399	; 0xfffff6a1
 4f8:	5f007473 	svcpl	0x00007473
 4fc:	61636f6c 	cmnvs	r3, ip, ror #30
 500:	6d69746c 	cfstrdvs	mvd7, [r9, #-432]!	; 0xfffffe50
 504:	75625f65 	strbvc	r5, [r2, #-3941]!	; 0xfffff09b
 508:	635f0066 	cmpvs	pc, #102	; 0x66
 50c:	65736f6c 	ldrbvs	r6, [r3, #-3948]!	; 0xfffff094
 510:	34725f00 	ldrbtcc	r5, [r2], #-3840	; 0xfffff100
 514:	6d5f0038 	ldclvs	0, cr0, [pc, #-224]	; 43c <_start-0x7bc4>
 518:	776f7462 	strbvc	r7, [pc, -r2, ror #8]!
 51c:	74735f63 	ldrbtvc	r5, [r3], #-3939	; 0xfffff09d
 520:	00657461 	rsbeq	r7, r5, r1, ror #8
 524:	7335705f 	teqvc	r5, #95	; 0x5f
 528:	745f5f00 	ldrbvc	r5, [pc], #-3840	; 530 <_start-0x7ad0>
 52c:	64795f6d 	ldrbtvs	r5, [r9], #-3949	; 0xfffff093
 530:	5f007961 	svcpl	0x00007961
 534:	5f6d745f 	svcpl	0x006d745f
 538:	7961646d 	stmdbvc	r1!, {r0, r2, r3, r5, r6, sl, sp, lr}^
 53c:	64617000 	strbtvs	r7, [r1], #-0
 540:	676e6964 	strbvs	r6, [lr, -r4, ror #18]!
 544:	6e696c00 	cdpvs	12, 6, cr6, cr9, cr0, {0}
 548:	006f6e65 	rsbeq	r6, pc, r5, ror #28
 54c:	665f6b63 	ldrbvs	r6, [pc], -r3, ror #22
 550:	74737269 	ldrbtvc	r7, [r3], #-617	; 0xfffffd97
 554:	7264685f 	rsbvc	r6, r4, #6225920	; 0x5f0000
 558:	65727000 	ldrbvs	r7, [r2, #-0]!
 55c:	61660076 	smcvs	24582	; 0x6006
 560:	685f7473 	ldmdavs	pc, {r0, r1, r4, r5, r6, sl, ip, sp, lr}^	; <UNPREDICTABLE>
 564:	00687361 	rsbeq	r7, r8, r1, ror #6
 568:	65657266 	strbvs	r7, [r5, #-614]!	; 0xfffffd9a
 56c:	636f6c5f 	cmnvs	pc, #24320	; 0x5f00
 570:	725f6200 	subsvc	r6, pc, #0, 4
 574:	705f317a 	subsvc	r3, pc, sl, ror r1	; <UNPREDICTABLE>
 578:	46007274 			; <UNDEFINED> instruction: 0x46007274
 57c:	44454552 	strbmi	r4, [r5], #-1362	; 0xfffffaae
 580:	4c4c4100 	stfmie	f4, [ip], {-0}
 584:	4445434f 	strbmi	r4, [r5], #-847	; 0xfffffcb1
 588:	66657200 	strbtvs	r7, [r5], -r0, lsl #4
 58c:	696d5f73 	stmdbvs	sp!, {r0, r1, r4, r5, r6, r8, r9, sl, fp, ip, lr}^
 590:	656c6464 	strbvs	r6, [ip, #-1124]!	; 0xfffffb9c
 594:	66657200 	strbtvs	r7, [r5], -r0, lsl #4
 598:	74735f73 	ldrbtvc	r5, [r3], #-3955	; 0xfffff08d
 59c:	00747261 	rsbseq	r7, r4, r1, ror #4
 5a0:	6f6c6c61 	svcvs	0x006c6c61
 5a4:	00646563 	rsbeq	r6, r4, r3, ror #10
 5a8:	5245564f 	subpl	r5, r5, #82837504	; 0x4f00000
 5ac:	44414548 	strbmi	r4, [r1], #-1352	; 0xfffffab8
 5b0:	59424e5f 	stmdbpl	r2, {r0, r1, r2, r3, r4, r6, r9, sl, fp, lr}^
 5b4:	00534554 	subseq	r4, r3, r4, asr r5
 5b8:	5a444552 	bpl	1111b08 <__bss_end__+0x1107a38>
 5bc:	00454e4f 	subeq	r4, r5, pc, asr #28
 5c0:	4f4c4c41 	svcmi	0x004c4c41
 5c4:	464f5f43 	strbmi	r5, [pc], -r3, asr #30
 5c8:	54455346 	strbpl	r5, [r5], #-838	; 0xfffffcba
 5cc:	72616d00 	rsbvc	r6, r1, #0, 26
 5d0:	656d5f6b 	strbvs	r5, [sp, #-3947]!	; 0xfffff095
 5d4:	5f62006d 	svcpl	0x0062006d
 5d8:	72646461 	rsbvc	r6, r4, #1627389952	; 0x61000000
 5dc:	5f6f745f 	svcpl	0x006f745f
 5e0:	00726468 	rsbseq	r6, r2, r8, ror #8
 5e4:	6c616b63 			; <UNDEFINED> instruction: 0x6c616b63
 5e8:	2e636f6c 	cdpcs	15, 6, cr6, cr3, cr12, {3}
 5ec:	666f0063 	strbtvs	r0, [pc], -r3, rrx
 5f0:	63007366 	movwvs	r7, #870	; 0x366
 5f4:	656e5f6b 	strbvs	r5, [lr, #-3947]!	; 0xfffff095
 5f8:	685f7478 	ldmdavs	pc, {r3, r4, r5, r6, sl, ip, sp, lr}^	; <UNPREDICTABLE>
 5fc:	61007264 	tstvs	r0, r4, ror #4
 600:	636f6c6c 	cmnvs	pc, #108, 24	; 0x6c00
 604:	636f6c5f 	cmnvs	pc, #24320	; 0x5f00
 608:	72646800 	rsbvc	r6, r4, #0, 16
 60c:	736b635f 	cmnvc	fp, #2080374785	; 0x7c000001
 610:	6e006d75 	mcrvs	13, 0, r6, cr0, cr5, {3}
 614:	65747962 	ldrbvs	r7, [r4, #-2402]!	; 0xfffff69e
 618:	6c615f73 	stclvs	15, cr5, [r1], #-460	; 0xfffffe34
 61c:	00636f6c 	rsbeq	r6, r3, ip, ror #30
 620:	6c615f62 	stclvs	15, cr5, [r1], #-392	; 0xfffffe78
 624:	5f636f6c 	svcpl	0x00636f6c
 628:	00727470 	rsbseq	r7, r2, r0, ror r4
 62c:	63656863 	cmnvs	r5, #6488064	; 0x630000
 630:	72665f6b 	rsbvc	r5, r6, #428	; 0x1ac
 634:	775f6565 	ldrbvc	r6, [pc, -r5, ror #10]
 638:	65746972 	ldrbvs	r6, [r4, #-2418]!	; 0xfffff68e
 63c:	65686300 	strbvs	r6, [r8, #-768]!	; 0xfffffd00
 640:	685f6b63 	ldmdavs	pc, {r0, r1, r5, r6, r8, r9, fp, sp, lr}^	; <UNPREDICTABLE>
 644:	62007264 	andvs	r7, r0, #100, 4	; 0x40000006
 648:	327a725f 	rsbscc	r7, sl, #-268435451	; 0xf0000005
 64c:	7274705f 	rsbsvc	r7, r4, #95	; 0x5f
 650:	6c626e00 	stclvs	14, cr6, [r2], #-0
 654:	7300736b 	movwvc	r7, #875	; 0x36b
 658:	6c5f6372 	mrrcvs	3, 7, r6, pc, cr2	; <UNPREDICTABLE>
 65c:	745f636f 	ldrbvc	r6, [pc], #-879	; 664 <_start-0x799c>
 660:	6e697500 	cdpvs	5, 6, cr7, cr9, cr0, {0}
 664:	5f323374 	svcpl	0x00323374
 668:	656e0074 	strbvs	r0, [lr, #-116]!	; 0xffffff8c
 66c:	726f7272 	rsbvc	r7, pc, #536870919	; 0x20000007
 670:	64680073 	strbtvs	r0, [r8], #-115	; 0xffffff8d
 674:	72705f72 	rsbsvc	r5, r0, #456	; 0x1c8
 678:	00746e69 	rsbseq	r6, r4, r9, ror #28
 67c:	70616568 	rsbvc	r6, r1, r8, ror #10
 680:	4e455300 	cdpmi	3, 4, cr5, cr5, cr0, {0}
 684:	414e4954 	cmpmi	lr, r4, asr r9
 688:	6863004c 	stmdavs	r3!, {r2, r3, r6}^
 68c:	5f6b6365 	svcpl	0x006b6365
 690:	636f6c62 	cmnvs	pc, #25088	; 0x6200
 694:	656d006b 	strbvs	r0, [sp, #-107]!	; 0xffffff95
 698:	7465736d 	strbtvc	r7, [r5], #-877	; 0xfffffc93
 69c:	725f6200 	subsvc	r6, pc, #0, 4
 6a0:	6e5f327a 	mrcvs	2, 2, r3, cr15, cr10, {3}
 6a4:	65747962 	ldrbvs	r7, [r4, #-2402]!	; 0xfffff69e
 6a8:	69750073 	ldmdbvs	r5!, {r0, r1, r4, r5, r6}^
 6ac:	5f38746e 	svcpl	0x0038746e
 6b0:	64680074 	strbtvs	r0, [r8], #-116	; 0xffffff8c
 6b4:	00745f72 	rsbseq	r5, r4, r2, ror pc
 6b8:	7479626e 	ldrbtvc	r6, [r9], #-622	; 0xfffffd92
 6bc:	725f7365 	subsvc	r7, pc, #-1811939327	; 0x94000001
 6c0:	6c006d65 	stcvs	13, cr6, [r0], {101}	; 0x65
 6c4:	00746665 	rsbseq	r6, r4, r5, ror #12
 6c8:	63656863 	cmnvs	r5, #6488064	; 0x630000
 6cc:	656d5f6b 	strbvs	r5, [sp, #-3947]!	; 0xfffff095
 6d0:	6568006d 	strbvs	r0, [r8, #-109]!	; 0xffffff93
 6d4:	72656461 	rsbvc	r6, r5, #1627389952	; 0x61000000
 6d8:	62696c00 	rsbvs	r6, r9, #0, 24
 6dc:	61682f63 	cmnvs	r8, r3, ror #30
 6e0:	632e6873 			; <UNDEFINED> instruction: 0x632e6873
 6e4:	6f682f00 	svcvs	0x00682f00
 6e8:	752f656d 	strvc	r6, [pc, #-1389]!	; 183 <_start-0x7e7d>
 6ec:	2f726573 	svccs	0x00726573
 6f0:	2f766544 	svccs	0x00766544
 6f4:	34325343 	ldrtcc	r5, [r2], #-835	; 0xfffffcbd
 6f8:	6c2f5830 	stcvs	8, cr5, [pc], #-192	; 640 <_start-0x79c0>
 6fc:	69706269 	ldmdbvs	r0!, {r0, r3, r5, r6, r9, sp, lr}^
 700:	7a697300 	bvc	1a5d308 <__bss_end__+0x1a53238>
 704:	00745f65 	rsbseq	r5, r4, r5, ror #30
 708:	6362696c 	cmnvs	r2, #108, 18	; 0x1b0000
 70c:	6d656d2f 	stclvs	13, cr6, [r5, #-188]!	; 0xffffff44
 710:	2e746573 	mrccs	5, 3, r6, cr4, cr3, {3}
 714:	5f5f0063 	svcpl	0x005f0063
 718:	6c5f6176 	ldfvse	f6, [pc], {118}	; 0x76
 71c:	00747369 	rsbseq	r7, r4, r9, ror #6
 720:	705f6176 	subsvc	r6, pc, r6, ror r1	; <UNPREDICTABLE>
 724:	746e6972 	strbtvc	r6, [lr], #-2418	; 0xfffff68e
 728:	5f5f006b 	svcpl	0x005f006b
 72c:	63756e67 	cmnvs	r5, #1648	; 0x670
 730:	5f61765f 	svcpl	0x0061765f
 734:	7473696c 	ldrbtvc	r6, [r3], #-2412	; 0xfffff694
 738:	615f5f00 	cmpvs	pc, r0, lsl #30
 73c:	696c0070 	stmdbvs	ip!, {r4, r5, r6}^
 740:	702f6362 	eorvc	r6, pc, r2, ror #6
 744:	746e6972 	strbtvc	r6, [lr], #-2418	; 0xfffff68e
 748:	00632e6b 	rsbeq	r2, r3, fp, ror #28
 74c:	5f697072 	svcpl	0x00697072
 750:	5f746573 	svcpl	0x00746573
 754:	63747570 	cmnvs	r4, #112, 10	; 0x1c000000
 758:	72617500 	rsbvc	r7, r1, #0, 10
 75c:	75705f74 	ldrbvc	r5, [r0, #-3956]!	; 0xfffff08c
 760:	69006374 	stmdbvs	r0, {r2, r4, r5, r6, r8, r9, sp, lr}
 764:	7265746e 	rsbvc	r7, r5, #1845493760	; 0x6e000000
 768:	5f6c616e 	svcpl	0x006c616e
 76c:	63747570 	cmnvs	r4, #112, 10	; 0x1c000000
 770:	00726168 	rsbseq	r6, r2, r8, ror #2
 774:	6362696c 	cmnvs	r2, #108, 18	; 0x1b0000
 778:	7475702f 	ldrbtvc	r7, [r5], #-47	; 0xffffffd1
 77c:	72616863 	rsbvc	r6, r1, #6488064	; 0x630000
 780:	6900632e 	stmdbvs	r0, {r1, r2, r3, r5, r8, r9, sp, lr}
 784:	7265746e 	rsbvc	r7, r5, #1845493760	; 0x6e000000
 788:	5f6c616e 	svcpl	0x006c616e
 78c:	6b747570 	blvs	1d1dd54 <__bss_end__+0x1d13c84>
 790:	62696c00 	rsbvs	r6, r9, #0, 24
 794:	75702f63 	ldrbvc	r2, [r0, #-3939]!	; 0xfffff09d
 798:	632e6b74 			; <UNDEFINED> instruction: 0x632e6b74
 79c:	69707200 	ldmdbvs	r0!, {r9, ip, sp, lr}^
 7a0:	7365725f 	cmnvc	r5, #-268435451	; 0xf0000005
 7a4:	6c007465 	cfstrsvs	mvf7, [r0], {101}	; 0x65
 7a8:	00727366 	rsbseq	r7, r2, r6, ror #6
 7ac:	5f697072 	svcpl	0x00697072
 7b0:	646e6172 	strbtvs	r6, [lr], #-370	; 0xfffffe8e
 7b4:	6c003631 	stcvs	6, cr3, [r0], {49}	; 0x31
 7b8:	2f636269 	svccs	0x00636269
 7bc:	2d697072 	stclcs	0, cr7, [r9, #-456]!	; 0xfffffe38
 7c0:	646e6172 	strbtvs	r6, [lr], #-370	; 0xfffffe8e
 7c4:	6c00632e 	stcvs	3, cr6, [r0], {46}	; 0x2e
 7c8:	2f636269 	svccs	0x00636269
 7cc:	702d6176 	eorvc	r6, sp, r6, ror r1
 7d0:	746e6972 	strbtvc	r6, [lr], #-2418	; 0xfffff68e
 7d4:	00632e6b 	rsbeq	r2, r3, fp, ror #28
 7d8:	5f697072 	svcpl	0x00697072
 7dc:	5f746573 	svcpl	0x00746573
 7e0:	7074756f 	rsbsvc	r7, r4, pc, ror #10
 7e4:	73007475 	movwvc	r7, #1141	; 0x475
 7e8:	656e6769 	strbvs	r6, [lr, #-1897]!	; 0xfffff897
 7ec:	00705f64 	rsbseq	r5, r0, r4, ror #30
 7f0:	65766572 	ldrbvs	r6, [r6, #-1394]!	; 0xfffffa8e
 7f4:	00657372 	rsbeq	r7, r5, r2, ror r3
 7f8:	74646977 	strbtvc	r6, [r4], #-2423	; 0xfffff689
 7fc:	75700068 	ldrbvc	r0, [r0, #-104]!	; 0xffffff98
 800:	665f7374 			; <UNDEFINED> instruction: 0x665f7374
 804:	656e0070 	strbvs	r0, [lr, #-112]!	; 0xffffff90
 808:	00705f67 	rsbseq	r5, r0, r7, ror #30
 80c:	63747570 	cmnvs	r4, #112, 10	; 0x1c000000
 810:	0070665f 	rsbseq	r6, r0, pc, asr r6
 814:	69647369 	stmdbvs	r4!, {r0, r3, r5, r6, r8, r9, ip, sp, lr}^
 818:	00746967 	rsbseq	r6, r4, r7, ror #18
 81c:	74696d65 	strbtvc	r6, [r9], #-3429	; 0xfffff29b
 820:	61747300 	cmnvs	r4, r0, lsl #6
 824:	732d6666 			; <UNDEFINED> instruction: 0x732d6666
 828:	632f6372 			; <UNDEFINED> instruction: 0x632f6372
 82c:	6e61656c 	cdpvs	5, 6, cr6, cr1, cr12, {3}
 830:	6265722d 	rsbvs	r7, r5, #-805306366	; 0xd0000002
 834:	2e746f6f 	cdpcs	15, 7, cr6, cr4, cr15, {3}
 838:	65640063 	strbvs	r0, [r4, #-99]!	; 0xffffff9d
 83c:	5f79616c 	svcpl	0x0079616c
 840:	7200736d 	andvc	r7, r0, #-1275068415	; 0xb4000001
 844:	725f6970 	subsvc	r6, pc, #112, 18	; 0x1c0000
 848:	6f6f6265 	svcvs	0x006f6265
 84c:	74730074 	ldrbtvc	r0, [r3], #-116	; 0xffffff8c
 850:	2d666661 	stclcs	6, cr6, [r6, #-388]!	; 0xfffffe7c
 854:	2f637273 	svccs	0x00637273
 858:	61747363 	cmnvs	r4, r3, ror #6
 85c:	632e7472 			; <UNDEFINED> instruction: 0x632e7472
 860:	73635f00 	cmnvc	r3, #0, 30
 864:	74726174 	ldrbtvc	r6, [r2], #-372	; 0xfffffe8c
 868:	73736200 	cmnvc	r3, #0, 4
 86c:	646e655f 	strbtvs	r6, [lr], #-1375	; 0xfffffaa1
 870:	625f5f00 	subsvs	r5, pc, #0, 30
 874:	735f7373 	cmpvc	pc, #-872415231	; 0xcc000001
 878:	74726174 	ldrbtvc	r6, [r2], #-372	; 0xfffffe8c
 87c:	5f005f5f 	svcpl	0x00005f5f
 880:	7373625f 	cmnvc	r3, #-268435451	; 0xf0000005
 884:	646e655f 	strbtvs	r6, [lr], #-1375	; 0xfffffaa1
 888:	50005f5f 	andpl	r5, r0, pc, asr pc
 88c:	53525f4d 	cmppl	r2, #308	; 0x134
 890:	50004354 	andpl	r4, r0, r4, asr r3
 894:	32335455 	eorscc	r5, r3, #1426063360	; 0x55000000
 898:	5f4d5000 	svcpl	0x004d5000
 89c:	43545352 	cmpmi	r4, #1207959553	; 0x48000001
 8a0:	4352575f 	cmpmi	r2, #24903680	; 0x17c0000
 8a4:	465f4746 	ldrbmi	r4, [pc], -r6, asr #14
 8a8:	5f4c4c55 	svcpl	0x004c4c55
 8ac:	45534552 	ldrbmi	r4, [r3, #-1362]	; 0xfffffaae
 8b0:	4d500054 	ldclmi	0, cr0, [r0, #-336]	; 0xfffffeb0
 8b4:	4f44575f 	svcmi	0x0044575f
 8b8:	70630047 	rsbvc	r0, r3, r7, asr #32
 8bc:	50007273 	andpl	r7, r0, r3, ror r2
 8c0:	41505f4d 	cmpmi	r0, sp, asr #30
 8c4:	4f575353 	svcmi	0x00575353
 8c8:	73004452 	movwvc	r4, #1106	; 0x452
 8cc:	66666174 			; <UNDEFINED> instruction: 0x66666174
 8d0:	6372732d 	cmnvs	r2, #-1275068416	; 0xb4000000
 8d4:	6265722f 	rsbvs	r7, r5, #-268435454	; 0xf0000002
 8d8:	2e746f6f 	cdpcs	15, 7, cr6, cr4, cr15, {3}
 8dc:	65730063 	ldrbvs	r0, [r3, #-99]!	; 0xffffff9d
 8e0:	73755f74 	cmnvc	r5, #116, 30	; 0x1d0
 8e4:	6c5f7265 	lfmvs	f7, 2, [pc], {101}	; 0x65
 8e8:	6c657665 	stclvs	6, cr7, [r5], #-404	; 0xfffffe6c
 8ec:	5f746100 	svcpl	0x00746100
 8f0:	72657375 	rsbvc	r7, r5, #-738197503	; 0xd4000001
 8f4:	76656c5f 			; <UNDEFINED> instruction: 0x76656c5f
 8f8:	74006c65 	strvc	r6, [r0], #-3173	; 0xfffff39b
 8fc:	72656d69 	rsbvc	r6, r5, #6720	; 0x1a40
 900:	7465675f 	strbtvc	r6, [r5], #-1887	; 0xfffff8a1
 904:	6573755f 	ldrbvs	r7, [r3, #-1375]!	; 0xfffffaa1
 908:	65640063 	strbvs	r0, [r4, #-99]!	; 0xffffff9d
 90c:	5f79616c 	svcpl	0x0079616c
 910:	00636573 	rsbeq	r6, r3, r3, ror r5
 914:	616c6564 	cmnvs	ip, r4, ror #10
 918:	79635f79 	stmdbvc	r3!, {r0, r3, r4, r5, r6, r8, r9, sl, fp, ip, lr}^
 91c:	73656c63 	cmnvc	r5, #25344	; 0x6300
 920:	61747300 	cmnvs	r4, r0, lsl #6
 924:	732d6666 			; <UNDEFINED> instruction: 0x732d6666
 928:	742f6372 	strtvc	r6, [pc], #-882	; 930 <_start-0x76d0>
 92c:	72656d69 	rsbvc	r6, r5, #6720	; 0x1a40
 930:	7400632e 	strvc	r6, [r0], #-814	; 0xfffffcd2
 934:	736b6369 	cmnvc	fp, #-1543503871	; 0xa4000001
 938:	54454700 	strbpl	r4, [r5], #-1792	; 0xfffff900
 93c:	74003233 	strvc	r3, [r0], #-563	; 0xfffffdcd
 940:	72656d69 	rsbvc	r6, r5, #6720	; 0x1a40
 944:	7465675f 	strbtvc	r6, [r5], #-1887	; 0xfffff8a1
 948:	6573755f 	ldrbvs	r7, [r3, #-1375]!	; 0xfffffaa1
 94c:	61725f63 	cmnvs	r2, r3, ror #30
 950:	65640077 	strbvs	r0, [r4, #-119]!	; 0xffffff89
 954:	5f79616c 	svcpl	0x0079616c
 958:	75007375 	strvc	r7, [r0, #-885]	; 0xfffffc8b
 95c:	5f747261 	svcpl	0x00747261
 960:	74696e69 	strbtvc	r6, [r9], #-3689	; 0xfffff197
 964:	49504700 	ldmdbmi	r0, {r8, r9, sl, lr}^
 968:	55465f4f 	strbpl	r5, [r6, #-3919]	; 0xfffff0b1
 96c:	495f434e 	ldmdbmi	pc, {r1, r2, r3, r6, r8, r9, lr}^	; <UNPREDICTABLE>
 970:	5455504e 	ldrbpl	r5, [r5], #-78	; 0xffffffb2
 974:	61747300 	cmnvs	r4, r0, lsl #6
 978:	50470074 	subpl	r0, r7, r4, ror r0
 97c:	465f4f49 	ldrbmi	r4, [pc], -r9, asr #30
 980:	5f434e55 	svcpl	0x00434e55
 984:	31544c41 	cmpcc	r4, r1, asr #24
 988:	746e6300 	strbtvc	r6, [lr], #-768	; 0xfffffd00
 98c:	6175006c 	cmnvs	r5, ip, rrx
 990:	632e7472 			; <UNDEFINED> instruction: 0x632e7472
 994:	78756100 	ldmdavc	r5!, {r8, sp, lr}^
 998:	7265705f 	rsbvc	r7, r5, #95	; 0x5f
 99c:	73687069 	cmnvc	r8, #105	; 0x69
 9a0:	6f682f00 	svcvs	0x00682f00
 9a4:	652f656d 	strvs	r6, [pc, #-1389]!	; 43f <_start-0x7bc1>
 9a8:	656c676e 	strbvs	r6, [ip, #-1902]!	; 0xfffff892
 9ac:	6c632f72 	stclvs	15, cr2, [r3], #-456	; 0xfffffe38
 9b0:	2f737361 	svccs	0x00737361
 9b4:	34327363 	ldrtcc	r7, [r2], #-867	; 0xfffffc9d
 9b8:	2d786c30 	ldclcs	12, cr6, [r8, #-192]!	; 0xffffff40
 9bc:	70733032 	rsbsvc	r3, r3, r2, lsr r0
 9c0:	696c2f72 	stmdbvs	ip!, {r1, r4, r5, r6, r8, r9, sl, fp, sp}^
 9c4:	2f697062 	svccs	0x00697062
 9c8:	66617473 			; <UNDEFINED> instruction: 0x66617473
 9cc:	72702d66 	rsbsvc	r2, r0, #6528	; 0x1980
 9d0:	74617669 	strbtvc	r7, [r1], #-1641	; 0xfffff997
 9d4:	75610065 	strbvc	r0, [r1, #-101]!	; 0xffffff9b
 9d8:	6e655f78 	mcrvs	15, 3, r5, cr5, cr8, {3}
 9dc:	656c6261 	strbvs	r6, [ip, #-609]!	; 0xfffffd9f
 9e0:	61750073 	cmnvs	r5, r3, ror r0
 9e4:	635f7472 	cmpvs	pc, #1912602624	; 0x72000000
 9e8:	705f6e61 	subsvc	r6, pc, r1, ror #28
 9ec:	00637475 	rsbeq	r7, r3, r5, ror r4
 9f0:	74726175 	ldrbtvc	r6, [r2], #-373	; 0xfffffe8b
 9f4:	7465675f 	strbtvc	r6, [r5], #-1887	; 0xfffff8a1
 9f8:	65640063 	strbvs	r0, [r4, #-99]!	; 0xffffff9d
 9fc:	61625f76 	smcvs	9718	; 0x25f6
 a00:	65697272 	strbvs	r7, [r9, #-626]!	; 0xfffffd8e
 a04:	50470072 	subpl	r0, r7, r2, ror r0
 a08:	465f4f49 	ldrbmi	r4, [pc], -r9, asr #30
 a0c:	5f434e55 	svcpl	0x00434e55
 a10:	32544c41 	subscc	r4, r4, #16640	; 0x4100
 a14:	7a697300 	bvc	1a5d61c <__bss_end__+0x1a5354c>
 a18:	70797465 	rsbsvc	r7, r9, r5, ror #8
 a1c:	70670065 	rsbvc	r0, r7, r5, rrx
 a20:	735f6f69 	cmpvc	pc, #420	; 0x1a4
 a24:	665f7465 	ldrbvs	r7, [pc], -r5, ror #8
 a28:	74636e75 	strbtvc	r6, [r3], #-3701	; 0xfffff18b
 a2c:	006e6f69 	rsbeq	r6, lr, r9, ror #30
 a30:	74726175 	ldrbtvc	r6, [r2], #-373	; 0xfffffe8b
 a34:	4f4c5f00 	svcmi	0x004c5f00
 a38:	525f4b43 	subspl	r4, pc, #68608	; 0x10c00
 a3c:	52554345 	subspl	r4, r5, #335544321	; 0x14000001
 a40:	45564953 	ldrbmi	r4, [r6, #-2387]	; 0xfffff6ad
 a44:	5f00545f 	svcpl	0x0000545f
 a48:	72727563 	rsbsvc	r7, r2, #415236096	; 0x18c00000
 a4c:	5f746e65 	svcpl	0x00746e65
 a50:	61636f6c 	cmnvs	r3, ip, ror #30
 a54:	6200656c 	andvs	r6, r0, #108, 10	; 0x1b000000
 a58:	00647561 	rsbeq	r7, r4, r1, ror #10
 a5c:	61726373 	cmnvs	r2, r3, ror r3
 a60:	00686374 	rsbeq	r6, r8, r4, ror r3
 a64:	33747570 	cmncc	r4, #112, 10	; 0x1c000000
 a68:	4e470032 	mcrmi	0, 2, r0, cr7, cr2, {1}
 a6c:	39432055 	stmdbcc	r3, {r0, r2, r4, r6, sp}^
 a70:	2e362039 	mrccs	0, 1, r2, cr6, cr9, {1}
 a74:	20312e33 	eorscs	r2, r1, r3, lsr lr
 a78:	37313032 			; <UNDEFINED> instruction: 0x37313032
 a7c:	30323630 	eorscc	r3, r2, r0, lsr r6
 a80:	636d2d20 	cmnvs	sp, #32, 26	; 0x800
 a84:	613d7570 	teqvs	sp, r0, ror r5
 a88:	31316d72 	teqcc	r1, r2, ror sp
 a8c:	7a6a3637 	bvc	1a8e370 <__bss_end__+0x1a842a0>
 a90:	20732d66 	rsbscs	r2, r3, r6, ror #26
 a94:	75746d2d 	ldrbvc	r6, [r4, #-3373]!	; 0xfffff2d3
 a98:	613d656e 	teqvs	sp, lr, ror #10
 a9c:	31316d72 	teqcc	r1, r2, ror sp
 aa0:	7a6a3637 	bvc	1a8e384 <__bss_end__+0x1a842b4>
 aa4:	20732d66 	rsbscs	r2, r3, r6, ror #26
 aa8:	6467672d 	strbtvs	r6, [r7], #-1837	; 0xfffff8d3
 aac:	4f2d2062 	svcmi	0x002d2062
 ab0:	732d2067 			; <UNDEFINED> instruction: 0x732d2067
 ab4:	673d6474 			; <UNDEFINED> instruction: 0x673d6474
 ab8:	3939756e 	ldmdbcc	r9!, {r1, r2, r3, r5, r6, r8, sl, ip, sp, lr}
 abc:	66662d20 	strbtvs	r2, [r6], -r0, lsr #26
 ac0:	73656572 	cmnvc	r5, #478150656	; 0x1c800000
 ac4:	646e6174 	strbtvs	r6, [lr], #-372	; 0xfffffe8c
 ac8:	00676e69 	rsbeq	r6, r7, r9, ror #28
 acc:	7275635f 	rsbsvc	r6, r5, #2080374785	; 0x7c000001
 ad0:	746e6572 	strbtvc	r6, [lr], #-1394	; 0xfffffa8e
 ad4:	7461635f 	strbtvc	r6, [r1], #-863	; 0xfffffca1
 ad8:	726f6765 	rsbvc	r6, pc, #26476544	; 0x1940000
 adc:	50470079 	subpl	r0, r7, r9, ror r0
 ae0:	465f4f49 	ldrbmi	r4, [pc], -r9, asr #30
 ae4:	5f434e55 	svcpl	0x00434e55
 ae8:	5054554f 	subspl	r5, r4, pc, asr #10
 aec:	67005455 	smlsdvs	r0, r5, r4, r5
 af0:	32337465 	eorscc	r7, r3, #1694498816	; 0x65000000
 af4:	72617500 	rsbvc	r7, r1, #0, 10
 af8:	61635f74 	smcvs	13812	; 0x35f4
 afc:	65675f6e 	strbvs	r5, [r7, #-3950]!	; 0xfffff092
 b00:	6f006374 	svcvs	0x00006374
 b04:	6e695f72 	mcrvs	15, 3, r5, cr9, cr2, {3}
 b08:	75003233 	strvc	r3, [r0, #-563]	; 0xfffffdcd
 b0c:	5f747261 	svcpl	0x00747261
 b10:	5f736168 	svcpl	0x00736168
 b14:	61746164 	cmnvs	r4, r4, ror #2
 b18:	49504700 	ldmdbmi	r0, {r8, r9, sl, lr}^
 b1c:	55465f4f 	strbpl	r5, [r6, #-3919]	; 0xfffff0b1
 b20:	415f434e 	cmpmi	pc, lr, asr #6
 b24:	0030544c 	eorseq	r5, r0, ip, asr #8
 b28:	4f495047 	svcmi	0x00495047
 b2c:	4e55465f 	mrcmi	6, 2, r4, cr5, cr15, {2}
 b30:	4c415f43 	mcrrmi	15, 4, r5, r1, cr3
 b34:	47003354 	smlsdmi	r0, r4, r3, r3
 b38:	5f4f4950 	svcpl	0x004f4950
 b3c:	434e5546 	movtmi	r5, #58694	; 0xe546
 b40:	544c415f 	strbpl	r4, [ip], #-351	; 0xfffffea1
 b44:	50470034 	subpl	r0, r7, r4, lsr r0
 b48:	465f4f49 	ldrbmi	r4, [pc], -r9, asr #30
 b4c:	5f434e55 	svcpl	0x00434e55
 b50:	35544c41 	ldrbcc	r4, [r4, #-3137]	; 0xfffff3bf
 b54:	69706700 	ldmdbvs	r0!, {r8, r9, sl, sp, lr}^
 b58:	65735f6f 	ldrbvs	r5, [r3, #-3951]!	; 0xfffff091
 b5c:	666f5f74 	uqsub16vs	r5, pc, r4	; <UNPREDICTABLE>
 b60:	61620066 	cmnvs	r2, r6, rrx
 b64:	67006b6e 	strvs	r6, [r0, -lr, ror #22]
 b68:	2e6f6970 			; <UNDEFINED> instruction: 0x2e6f6970
 b6c:	70670063 	rsbvc	r0, r7, r3, rrx
 b70:	725f6f69 	subsvc	r6, pc, #420	; 0x1a4
 b74:	00646165 	rsbeq	r6, r4, r5, ror #2
 b78:	6f697067 	svcvs	0x00697067
 b7c:	7465735f 	strbtvc	r7, [r5], #-863	; 0xfffffca1
 b80:	74756f5f 	ldrbtvc	r6, [r5], #-3935	; 0xfffff0a1
 b84:	00747570 	rsbseq	r7, r4, r0, ror r5
 b88:	6f697067 	svcvs	0x00697067
 b8c:	6972775f 	ldmdbvs	r2!, {r0, r1, r2, r3, r4, r6, r8, r9, sl, ip, sp, lr}^
 b90:	67006574 	smlsdxvs	r0, r4, r5, r6
 b94:	5f6f6970 	svcpl	0x006f6970
 b98:	30746573 	rsbscc	r6, r4, r3, ror r5
 b9c:	69706700 	ldmdbvs	r0!, {r8, r9, sl, sp, lr}^
 ba0:	656c5f6f 	strbvs	r5, [ip, #-3951]!	; 0xfffff091
 ba4:	67003076 	smlsdxvs	r0, r6, r0, r3
 ba8:	5f6f6970 	svcpl	0x006f6970
 bac:	5f746573 	svcpl	0x00746573
 bb0:	75706e69 	ldrbvc	r6, [r0, #-3689]!	; 0xfffff197
 bb4:	70670074 	rsbvc	r0, r7, r4, ror r0
 bb8:	735f6f69 	cmpvc	pc, #420	; 0x1a4
 bbc:	6f5f7465 	svcvs	0x005f7465
 bc0:	7067006e 	rsbvc	r0, r7, lr, rrx
 bc4:	665f6f69 	ldrbvs	r6, [pc], -r9, ror #30
 bc8:	5f636e75 	svcpl	0x00636e75
 bcc:	70670074 	rsbvc	r0, r7, r4, ror r0
 bd0:	635f6f69 	cmpvs	pc, #420	; 0x1a4
 bd4:	0030726c 	eorseq	r7, r0, ip, ror #4
 bd8:	6c616d6b 	stclvs	13, cr6, [r1], #-428	; 0xfffffe54
 bdc:	2e636f6c 	cdpcs	15, 6, cr6, cr3, cr12, {3}
 be0:	6d6b0063 	stclvs	0, cr0, [fp, #-396]!	; 0xfffffe74
 be4:	6f6c6c61 	svcvs	0x006c6c61
 be8:	6e695f63 	cdpvs	15, 6, cr5, cr9, cr3, {3}
 bec:	6b007469 	blvs	1dd98 <__bss_end__+0x13cc8>
 bf0:	6c6c616d 	stfvse	f6, [ip], #-436	; 0xfffffe4c
 bf4:	615f636f 	cmpvs	pc, pc, ror #6
 bf8:	6e67696c 	vnmulvs.f16	s13, s14, s25	; <UNPREDICTABLE>
 bfc:	64006465 	strvs	r6, [r0], #-1125	; 0xfffffb9b
 c00:	6c62756f 	cfstr64vs	mvdx7, [r2], #-444	; 0xfffffe44
 c04:	666b0065 	strbtvs	r0, [fp], -r5, rrx
 c08:	5f656572 	svcpl	0x00656572
 c0c:	006c6c61 	rsbeq	r6, ip, r1, ror #24
 c10:	6572666b 	ldrbvs	r6, [r2, #-1643]!	; 0xfffff995
 c14:	66615f65 	strbtvs	r5, [r1], -r5, ror #30
 c18:	00726574 	rsbseq	r6, r2, r4, ror r5
 c1c:	6c616d6b 	stclvs	13, cr6, [r1], #-428	; 0xfffffe54
 c20:	5f636f6c 	svcpl	0x00636f6c
 c24:	70616568 	rsbvc	r6, r1, r8, ror #10
 c28:	7274705f 	rsbsvc	r7, r4, #95	; 0x5f
 c2c:	696c6100 	stmdbvs	ip!, {r8, sp, lr}^
 c30:	656d6e67 	strbvs	r6, [sp, #-3687]!	; 0xfffff199
 c34:	5f00746e 	svcpl	0x0000746e
 c38:	6165685f 	cmnvs	r5, pc, asr r8
 c3c:	74735f70 	ldrbtvc	r5, [r3], #-3952	; 0xfffff090
 c40:	5f747261 	svcpl	0x00747261
 c44:	6d6b005f 	stclvs	0, cr0, [fp, #-380]!	; 0xfffffe84
 c48:	6f6c6c61 	svcvs	0x006c6c61
 c4c:	65685f63 	strbvs	r5, [r8, #-3939]!	; 0xfffff09d
 c50:	735f7061 	cmpvc	pc, #97	; 0x61
 c54:	74726174 	ldrbtvc	r6, [r2], #-372	; 0xfffffe8c
 c58:	64615f00 	strbtvs	r5, [r1], #-3840	; 0xfffff100
 c5c:	6b007264 	blvs	1d5f4 <__bss_end__+0x13524>
 c60:	6c6c616d 	stfvse	f6, [ip], #-436	; 0xfffffe4c
 c64:	685f636f 	ldmdavs	pc, {r0, r1, r2, r3, r5, r6, r8, r9, sp, lr}^	; <UNPREDICTABLE>
 c68:	5f706165 	svcpl	0x00706165
 c6c:	00646e65 	rsbeq	r6, r4, r5, ror #28

Disassembly of section .debug_frame:

00000000 <.debug_frame>:
   0:	0000000c 	andeq	r0, r0, ip
   4:	ffffffff 			; <UNDEFINED> instruction: 0xffffffff
   8:	7c020001 	stcvc	0, cr0, [r2], {1}
   c:	000d0c0e 	andeq	r0, sp, lr, lsl #24
  10:	0000001c 	andeq	r0, r0, ip, lsl r0
  14:	00000000 	andeq	r0, r0, r0
  18:	00008010 	andeq	r8, r0, r0, lsl r0
  1c:	000000e8 	andeq	r0, r0, r8, ror #1
  20:	84180e42 	ldrhi	r0, [r8], #-3650	; 0xfffff1be
  24:	86058506 	strhi	r8, [r5], -r6, lsl #10
  28:	88038704 	stmdahi	r3, {r2, r8, r9, sl, pc}
  2c:	00018e02 	andeq	r8, r1, r2, lsl #28
  30:	0000000c 	andeq	r0, r0, ip
  34:	ffffffff 			; <UNDEFINED> instruction: 0xffffffff
  38:	7c020001 	stcvc	0, cr0, [r2], {1}
  3c:	000d0c0e 	andeq	r0, sp, lr, lsl #24
  40:	0000000c 	andeq	r0, r0, ip
  44:	00000030 	andeq	r0, r0, r0, lsr r0
  48:	000080f8 	strdeq	r8, [r0], -r8	; <UNPREDICTABLE>
  4c:	00000008 	andeq	r0, r0, r8
  50:	00000014 	andeq	r0, r0, r4, lsl r0
  54:	00000030 	andeq	r0, r0, r0, lsr r0
  58:	00008100 	andeq	r8, r0, r0, lsl #2
  5c:	00000010 	andeq	r0, r0, r0, lsl r0
  60:	84080e42 	strhi	r0, [r8], #-3650	; 0xfffff1be
  64:	00018e02 	andeq	r8, r1, r2, lsl #28
  68:	00000014 	andeq	r0, r0, r4, lsl r0
  6c:	00000030 	andeq	r0, r0, r0, lsr r0
  70:	00008110 	andeq	r8, r0, r0, lsl r1
  74:	00000018 	andeq	r0, r0, r8, lsl r0
  78:	84080e42 	strhi	r0, [r8], #-3650	; 0xfffff1be
  7c:	00018e02 	andeq	r8, r1, r2, lsl #28
  80:	0000000c 	andeq	r0, r0, ip
  84:	00000030 	andeq	r0, r0, r0, lsr r0
  88:	00008128 	andeq	r8, r0, r8, lsr #2
  8c:	0000000c 	andeq	r0, r0, ip
  90:	0000000c 	andeq	r0, r0, ip
  94:	00000030 	andeq	r0, r0, r0, lsr r0
  98:	00008134 	andeq	r8, r0, r4, lsr r1
  9c:	00000008 	andeq	r0, r0, r8
  a0:	0000001c 	andeq	r0, r0, ip, lsl r0
  a4:	00000030 	andeq	r0, r0, r0, lsr r0
  a8:	0000813c 	andeq	r8, r0, ip, lsr r1
  ac:	0000010c 	andeq	r0, r0, ip, lsl #2
  b0:	84180e42 	ldrhi	r0, [r8], #-3650	; 0xfffff1be
  b4:	86058506 	strhi	r8, [r5], -r6, lsl #10
  b8:	88038704 	stmdahi	r3, {r2, r8, r9, sl, pc}
  bc:	00018e02 	andeq	r8, r1, r2, lsl #28
  c0:	00000014 	andeq	r0, r0, r4, lsl r0
  c4:	00000030 	andeq	r0, r0, r0, lsr r0
  c8:	00008248 	andeq	r8, r0, r8, asr #4
  cc:	00000014 	andeq	r0, r0, r4, lsl r0
  d0:	84080e42 	strhi	r0, [r8], #-3650	; 0xfffff1be
  d4:	00018e02 	andeq	r8, r1, r2, lsl #28
  d8:	00000018 	andeq	r0, r0, r8, lsl r0
  dc:	00000030 	andeq	r0, r0, r0, lsr r0
  e0:	0000825c 	andeq	r8, r0, ip, asr r2
  e4:	00000024 	andeq	r0, r0, r4, lsr #32
  e8:	84100e42 	ldrhi	r0, [r0], #-3650	; 0xfffff1be
  ec:	86038504 	strhi	r8, [r3], -r4, lsl #10
  f0:	00018e02 	andeq	r8, r1, r2, lsl #28
  f4:	00000018 	andeq	r0, r0, r8, lsl r0
  f8:	00000030 	andeq	r0, r0, r0, lsr r0
  fc:	00008280 	andeq	r8, r0, r0, lsl #5
 100:	000000e8 	andeq	r0, r0, r8, ror #1
 104:	84100e42 	ldrhi	r0, [r0], #-3650	; 0xfffff1be
 108:	86038504 	strhi	r8, [r3], -r4, lsl #10
 10c:	00018e02 	andeq	r8, r1, r2, lsl #28
 110:	0000001c 	andeq	r0, r0, ip, lsl r0
 114:	00000030 	andeq	r0, r0, r0, lsr r0
 118:	00008368 	andeq	r8, r0, r8, ror #6
 11c:	000000fc 	strdeq	r0, [r0], -ip
 120:	84180e42 	ldrhi	r0, [r8], #-3650	; 0xfffff1be
 124:	86058506 	strhi	r8, [r5], -r6, lsl #10
 128:	88038704 	stmdahi	r3, {r2, r8, r9, sl, pc}
 12c:	00018e02 	andeq	r8, r1, r2, lsl #28
 130:	00000018 	andeq	r0, r0, r8, lsl r0
 134:	00000030 	andeq	r0, r0, r0, lsr r0
 138:	00008464 	andeq	r8, r0, r4, ror #8
 13c:	00000064 	andeq	r0, r0, r4, rrx
 140:	84100e42 	ldrhi	r0, [r0], #-3650	; 0xfffff1be
 144:	86038504 	strhi	r8, [r3], -r4, lsl #10
 148:	00018e02 	andeq	r8, r1, r2, lsl #28
 14c:	00000018 	andeq	r0, r0, r8, lsl r0
 150:	00000030 	andeq	r0, r0, r0, lsr r0
 154:	000084c8 	andeq	r8, r0, r8, asr #9
 158:	00000074 	andeq	r0, r0, r4, ror r0
 15c:	84100e42 	ldrhi	r0, [r0], #-3650	; 0xfffff1be
 160:	86038504 	strhi	r8, [r3], -r4, lsl #10
 164:	00018e02 	andeq	r8, r1, r2, lsl #28
 168:	0000001c 	andeq	r0, r0, ip, lsl r0
 16c:	00000030 	andeq	r0, r0, r0, lsr r0
 170:	0000853c 	andeq	r8, r0, ip, lsr r5
 174:	000000b8 	strheq	r0, [r0], -r8
 178:	84180e42 	ldrhi	r0, [r8], #-3650	; 0xfffff1be
 17c:	86058506 	strhi	r8, [r5], -r6, lsl #10
 180:	88038704 	stmdahi	r3, {r2, r8, r9, sl, pc}
 184:	00018e02 	andeq	r8, r1, r2, lsl #28
 188:	00000028 	andeq	r0, r0, r8, lsr #32
 18c:	00000030 	andeq	r0, r0, r0, lsr r0
 190:	000085f4 	strdeq	r8, [r0], -r4
 194:	0000021c 	andeq	r0, r0, ip, lsl r2
 198:	841c0e42 	ldrhi	r0, [ip], #-3650	; 0xfffff1be
 19c:	86068507 	strhi	r8, [r6], -r7, lsl #10
 1a0:	88048705 	stmdahi	r4, {r0, r2, r8, r9, sl, pc}
 1a4:	8e028903 	vmlahi.f16	s16, s4, s6	; <UNPREDICTABLE>
 1a8:	280e4201 	stmdacs	lr, {r0, r9, lr}
 1ac:	0e0a8e02 	cdpeq	14, 0, cr8, cr10, cr2, {0}
 1b0:	000b421c 	andeq	r4, fp, ip, lsl r2
 1b4:	00000014 	andeq	r0, r0, r4, lsl r0
 1b8:	00000030 	andeq	r0, r0, r0, lsr r0
 1bc:	00008810 	andeq	r8, r0, r0, lsl r8
 1c0:	00000030 	andeq	r0, r0, r0, lsr r0
 1c4:	84080e42 	strhi	r0, [r8], #-3650	; 0xfffff1be
 1c8:	00018e02 	andeq	r8, r1, r2, lsl #28
 1cc:	00000014 	andeq	r0, r0, r4, lsl r0
 1d0:	00000030 	andeq	r0, r0, r0, lsr r0
 1d4:	00008840 	andeq	r8, r0, r0, asr #16
 1d8:	0000004c 	andeq	r0, r0, ip, asr #32
 1dc:	84080e42 	strhi	r0, [r8], #-3650	; 0xfffff1be
 1e0:	00018e02 	andeq	r8, r1, r2, lsl #28
 1e4:	0000001c 	andeq	r0, r0, ip, lsl r0
 1e8:	00000030 	andeq	r0, r0, r0, lsr r0
 1ec:	0000888c 	andeq	r8, r0, ip, lsl #17
 1f0:	00000144 	andeq	r0, r0, r4, asr #2
 1f4:	84180e42 	ldrhi	r0, [r8], #-3650	; 0xfffff1be
 1f8:	86058506 	strhi	r8, [r5], -r6, lsl #10
 1fc:	88038704 	stmdahi	r3, {r2, r8, r9, sl, pc}
 200:	00018e02 	andeq	r8, r1, r2, lsl #28
 204:	0000000c 	andeq	r0, r0, ip
 208:	ffffffff 			; <UNDEFINED> instruction: 0xffffffff
 20c:	7c020001 	stcvc	0, cr0, [r2], {1}
 210:	000d0c0e 	andeq	r0, sp, lr, lsl #24
 214:	00000018 	andeq	r0, r0, r8, lsl r0
 218:	00000204 	andeq	r0, r0, r4, lsl #4
 21c:	000089d0 	ldrdeq	r8, [r0], -r0
 220:	000000ec 	andeq	r0, r0, ip, ror #1
 224:	8e040e48 	cdphi	14, 0, cr0, cr4, cr8, {2}
 228:	0e6a0201 	cdpeq	2, 6, cr0, cr10, cr1, {0}
 22c:	0000ce00 	andeq	ip, r0, r0, lsl #28
 230:	0000000c 	andeq	r0, r0, ip
 234:	ffffffff 			; <UNDEFINED> instruction: 0xffffffff
 238:	7c020001 	stcvc	0, cr0, [r2], {1}
 23c:	000d0c0e 	andeq	r0, sp, lr, lsl #24
 240:	0000000c 	andeq	r0, r0, ip
 244:	00000230 	andeq	r0, r0, r0, lsr r2
 248:	00008abc 			; <UNDEFINED> instruction: 0x00008abc
 24c:	00000018 	andeq	r0, r0, r8, lsl r0
 250:	0000000c 	andeq	r0, r0, ip
 254:	ffffffff 			; <UNDEFINED> instruction: 0xffffffff
 258:	7c020001 	stcvc	0, cr0, [r2], {1}
 25c:	000d0c0e 	andeq	r0, sp, lr, lsl #24
 260:	00000034 	andeq	r0, r0, r4, lsr r0
 264:	00000250 	andeq	r0, r0, r0, asr r2
 268:	00008ad4 	ldrdeq	r8, [r0], -r4
 26c:	00000058 	andeq	r0, r0, r8, asr r0
 270:	80100e42 	andshi	r0, r0, r2, asr #28
 274:	82038104 	andhi	r8, r3, #4, 2
 278:	42018302 	andmi	r8, r1, #134217728	; 0x8000000
 27c:	07841c0e 	streq	r1, [r4, lr, lsl #24]
 280:	058e0685 	streq	r0, [lr, #1669]	; 0x685
 284:	5c280e42 	stcpl	14, cr0, [r8], #-264	; 0xfffffef8
 288:	ce421c0e 	cdpgt	12, 4, cr1, cr2, cr14, {0}
 28c:	100ec4c5 	andne	ip, lr, r5, asr #9
 290:	c1c2c342 	bicgt	ip, r2, r2, asr #6
 294:	00000ec0 	andeq	r0, r0, r0, asr #29
 298:	0000000c 	andeq	r0, r0, ip
 29c:	ffffffff 			; <UNDEFINED> instruction: 0xffffffff
 2a0:	7c020001 	stcvc	0, cr0, [r2], {1}
 2a4:	000d0c0e 	andeq	r0, sp, lr, lsl #24
 2a8:	00000014 	andeq	r0, r0, r4, lsl r0
 2ac:	00000298 	muleq	r0, r8, r2
 2b0:	00008b2c 	andeq	r8, r0, ip, lsr #22
 2b4:	00000014 	andeq	r0, r0, r4, lsl r0
 2b8:	84080e42 	strhi	r0, [r8], #-3650	; 0xfffff1be
 2bc:	00018e02 	andeq	r8, r1, r2, lsl #28
 2c0:	0000000c 	andeq	r0, r0, ip
 2c4:	00000298 	muleq	r0, r8, r2
 2c8:	00008b40 	andeq	r8, r0, r0, asr #22
 2cc:	00000018 	andeq	r0, r0, r8, lsl r0
 2d0:	0000000c 	andeq	r0, r0, ip
 2d4:	00000298 	muleq	r0, r8, r2
 2d8:	00008b58 	andeq	r8, r0, r8, asr fp
 2dc:	00000010 	andeq	r0, r0, r0, lsl r0
 2e0:	0000000c 	andeq	r0, r0, ip
 2e4:	ffffffff 			; <UNDEFINED> instruction: 0xffffffff
 2e8:	7c020001 	stcvc	0, cr0, [r2], {1}
 2ec:	000d0c0e 	andeq	r0, sp, lr, lsl #24
 2f0:	00000014 	andeq	r0, r0, r4, lsl r0
 2f4:	000002e0 	andeq	r0, r0, r0, ror #5
 2f8:	00008b68 	andeq	r8, r0, r8, ror #22
 2fc:	00000034 	andeq	r0, r0, r4, lsr r0
 300:	84080e42 	strhi	r0, [r8], #-3650	; 0xfffff1be
 304:	00018e02 	andeq	r8, r1, r2, lsl #28
 308:	0000000c 	andeq	r0, r0, ip
 30c:	ffffffff 			; <UNDEFINED> instruction: 0xffffffff
 310:	7c020001 	stcvc	0, cr0, [r2], {1}
 314:	000d0c0e 	andeq	r0, sp, lr, lsl #24
 318:	0000000c 	andeq	r0, r0, ip
 31c:	00000308 	andeq	r0, r0, r8, lsl #6
 320:	00008b9c 	muleq	r0, ip, fp
 324:	0000002c 	andeq	r0, r0, ip, lsr #32
 328:	00000014 	andeq	r0, r0, r4, lsl r0
 32c:	00000308 	andeq	r0, r0, r8, lsl #6
 330:	00008bc8 	andeq	r8, r0, r8, asr #23
 334:	00000018 	andeq	r0, r0, r8, lsl r0
 338:	84080e42 	strhi	r0, [r8], #-3650	; 0xfffff1be
 33c:	00018e02 	andeq	r8, r1, r2, lsl #28
 340:	0000000c 	andeq	r0, r0, ip
 344:	00000308 	andeq	r0, r0, r8, lsl #6
 348:	00008be0 	andeq	r8, r0, r0, ror #23
 34c:	00000018 	andeq	r0, r0, r8, lsl r0
 350:	0000000c 	andeq	r0, r0, ip
 354:	ffffffff 			; <UNDEFINED> instruction: 0xffffffff
 358:	7c020001 	stcvc	0, cr0, [r2], {1}
 35c:	000d0c0e 	andeq	r0, sp, lr, lsl #24
 360:	0000000c 	andeq	r0, r0, ip
 364:	00000350 	andeq	r0, r0, r0, asr r3
 368:	00008bf8 	strdeq	r8, [r0], -r8	; <UNPREDICTABLE>
 36c:	00000014 	andeq	r0, r0, r4, lsl r0
 370:	0000000c 	andeq	r0, r0, ip
 374:	00000350 	andeq	r0, r0, r0, asr r3
 378:	00008c0c 	andeq	r8, r0, ip, lsl #24
 37c:	00000024 	andeq	r0, r0, r4, lsr #32
 380:	0000000c 	andeq	r0, r0, ip
 384:	00000350 	andeq	r0, r0, r0, asr r3
 388:	00008c30 	andeq	r8, r0, r0, lsr ip
 38c:	00000038 	andeq	r0, r0, r8, lsr r0
 390:	00000024 	andeq	r0, r0, r4, lsr #32
 394:	00000350 	andeq	r0, r0, r0, asr r3
 398:	00008c68 	andeq	r8, r0, r8, ror #24
 39c:	000001ac 	andeq	r0, r0, ip, lsr #3
 3a0:	84140e42 	ldrhi	r0, [r4], #-3650	; 0xfffff1be
 3a4:	86048505 	strhi	r8, [r4], -r5, lsl #10
 3a8:	8e028703 	cdphi	7, 0, cr8, cr2, cr3, {0}
 3ac:	580e4201 	stmdapl	lr, {r0, r9, lr}
 3b0:	0e0a9a02 	vmlaeq.f32	s18, s20, s4
 3b4:	000b4214 	andeq	r4, fp, r4, lsl r2
 3b8:	00000014 	andeq	r0, r0, r4, lsl r0
 3bc:	00000350 	andeq	r0, r0, r0, asr r3
 3c0:	00008e14 	andeq	r8, r0, r4, lsl lr
 3c4:	00000054 	andeq	r0, r0, r4, asr r0
 3c8:	84080e52 	strhi	r0, [r8], #-3666	; 0xfffff1ae
 3cc:	00018e02 	andeq	r8, r1, r2, lsl #28
 3d0:	00000028 	andeq	r0, r0, r8, lsr #32
 3d4:	00000350 	andeq	r0, r0, r0, asr r3
 3d8:	00008e68 	andeq	r8, r0, r8, ror #28
 3dc:	000002b0 			; <UNDEFINED> instruction: 0x000002b0
 3e0:	841c0e42 	ldrhi	r0, [ip], #-3650	; 0xfffff1be
 3e4:	86068507 	strhi	r8, [r6], -r7, lsl #10
 3e8:	88048705 	stmdahi	r4, {r0, r2, r8, r9, sl, pc}
 3ec:	8e028903 	vmlahi.f16	s16, s4, s6	; <UNPREDICTABLE>
 3f0:	b00e4201 	andlt	r4, lr, r1, lsl #4
 3f4:	01480301 	cmpeq	r8, r1, lsl #6
 3f8:	00001c0e 	andeq	r1, r0, lr, lsl #24
 3fc:	0000000c 	andeq	r0, r0, ip
 400:	ffffffff 			; <UNDEFINED> instruction: 0xffffffff
 404:	7c020001 	stcvc	0, cr0, [r2], {1}
 408:	000d0c0e 	andeq	r0, sp, lr, lsl #24
 40c:	00000014 	andeq	r0, r0, r4, lsl r0
 410:	000003fc 	strdeq	r0, [r0], -ip
 414:	00009118 	andeq	r9, r0, r8, lsl r1
 418:	00000028 	andeq	r0, r0, r8, lsr #32
 41c:	84080e42 	strhi	r0, [r8], #-3650	; 0xfffff1be
 420:	00018e02 	andeq	r8, r1, r2, lsl #28
 424:	0000000c 	andeq	r0, r0, ip
 428:	ffffffff 			; <UNDEFINED> instruction: 0xffffffff
 42c:	7c020001 	stcvc	0, cr0, [r2], {1}
 430:	000d0c0e 	andeq	r0, sp, lr, lsl #24
 434:	00000014 	andeq	r0, r0, r4, lsl r0
 438:	00000424 	andeq	r0, r0, r4, lsr #8
 43c:	00009140 	andeq	r9, r0, r0, asr #2
 440:	0000002c 	andeq	r0, r0, ip, lsr #32
 444:	84080e42 	strhi	r0, [r8], #-3650	; 0xfffff1be
 448:	00018e02 	andeq	r8, r1, r2, lsl #28
 44c:	0000000c 	andeq	r0, r0, ip
 450:	ffffffff 			; <UNDEFINED> instruction: 0xffffffff
 454:	7c020001 	stcvc	0, cr0, [r2], {1}
 458:	000d0c0e 	andeq	r0, sp, lr, lsl #24
 45c:	0000000c 	andeq	r0, r0, ip
 460:	0000044c 	andeq	r0, r0, ip, asr #8
 464:	0000916c 	andeq	r9, r0, ip, ror #2
 468:	00000018 	andeq	r0, r0, r8, lsl r0
 46c:	0000000c 	andeq	r0, r0, ip
 470:	0000044c 	andeq	r0, r0, ip, asr #8
 474:	00009184 	andeq	r9, r0, r4, lsl #3
 478:	00000014 	andeq	r0, r0, r4, lsl r0
 47c:	00000014 	andeq	r0, r0, r4, lsl r0
 480:	0000044c 	andeq	r0, r0, ip, asr #8
 484:	00009198 	muleq	r0, r8, r1
 488:	0000004c 	andeq	r0, r0, ip, asr #32
 48c:	84080e42 	strhi	r0, [r8], #-3650	; 0xfffff1be
 490:	00018e02 	andeq	r8, r1, r2, lsl #28
 494:	0000000c 	andeq	r0, r0, ip
 498:	ffffffff 			; <UNDEFINED> instruction: 0xffffffff
 49c:	7c020001 	stcvc	0, cr0, [r2], {1}
 4a0:	000d0c0e 	andeq	r0, sp, lr, lsl #24
 4a4:	0000000c 	andeq	r0, r0, ip
 4a8:	00000494 	muleq	r0, r4, r4
 4ac:	000091e4 	andeq	r9, r0, r4, ror #3
 4b0:	00000018 	andeq	r0, r0, r8, lsl r0
 4b4:	00000014 	andeq	r0, r0, r4, lsl r0
 4b8:	00000494 	muleq	r0, r4, r4
 4bc:	000091fc 	strdeq	r9, [r0], -ip
 4c0:	00000014 	andeq	r0, r0, r4, lsl r0
 4c4:	84080e42 	strhi	r0, [r8], #-3650	; 0xfffff1be
 4c8:	00018e02 	andeq	r8, r1, r2, lsl #28
 4cc:	00000014 	andeq	r0, r0, r4, lsl r0
 4d0:	00000494 	muleq	r0, r4, r4
 4d4:	00009210 	andeq	r9, r0, r0, lsl r2
 4d8:	0000000c 	andeq	r0, r0, ip
 4dc:	84080e42 	strhi	r0, [r8], #-3650	; 0xfffff1be
 4e0:	00018e02 	andeq	r8, r1, r2, lsl #28
 4e4:	00000018 	andeq	r0, r0, r8, lsl r0
 4e8:	00000494 	muleq	r0, r4, r4
 4ec:	0000921c 	andeq	r9, r0, ip, lsl r2
 4f0:	00000024 	andeq	r0, r0, r4, lsr #32
 4f4:	84100e42 	ldrhi	r0, [r0], #-3650	; 0xfffff1be
 4f8:	86038504 	strhi	r8, [r3], -r4, lsl #10
 4fc:	00018e02 	andeq	r8, r1, r2, lsl #28
 500:	00000014 	andeq	r0, r0, r4, lsl r0
 504:	00000494 	muleq	r0, r4, r4
 508:	00009240 	andeq	r9, r0, r0, asr #4
 50c:	00000018 	andeq	r0, r0, r8, lsl r0
 510:	84080e42 	strhi	r0, [r8], #-3650	; 0xfffff1be
 514:	00018e02 	andeq	r8, r1, r2, lsl #28
 518:	00000014 	andeq	r0, r0, r4, lsl r0
 51c:	00000494 	muleq	r0, r4, r4
 520:	00009258 	andeq	r9, r0, r8, asr r2
 524:	00000018 	andeq	r0, r0, r8, lsl r0
 528:	84080e42 	strhi	r0, [r8], #-3650	; 0xfffff1be
 52c:	00018e02 	andeq	r8, r1, r2, lsl #28
 530:	0000000c 	andeq	r0, r0, ip
 534:	ffffffff 			; <UNDEFINED> instruction: 0xffffffff
 538:	7c020001 	stcvc	0, cr0, [r2], {1}
 53c:	000d0c0e 	andeq	r0, sp, lr, lsl #24
 540:	00000018 	andeq	r0, r0, r8, lsl r0
 544:	00000530 	andeq	r0, r0, r0, lsr r5
 548:	000092bc 			; <UNDEFINED> instruction: 0x000092bc
 54c:	00000020 	andeq	r0, r0, r0, lsr #32
 550:	84100e42 	ldrhi	r0, [r0], #-3650	; 0xfffff1be
 554:	86038504 	strhi	r8, [r3], -r4, lsl #10
 558:	00018e02 	andeq	r8, r1, r2, lsl #28
 55c:	00000014 	andeq	r0, r0, r4, lsl r0
 560:	00000530 	andeq	r0, r0, r0, lsr r5
 564:	000092dc 	ldrdeq	r9, [r0], -ip
 568:	000000b0 	strheq	r0, [r0], -r0	; <UNPREDICTABLE>
 56c:	84080e42 	strhi	r0, [r8], #-3650	; 0xfffff1be
 570:	00018e02 	andeq	r8, r1, r2, lsl #28
 574:	00000014 	andeq	r0, r0, r4, lsl r0
 578:	00000530 	andeq	r0, r0, r0, lsr r5
 57c:	0000938c 	andeq	r9, r0, ip, lsl #7
 580:	00000018 	andeq	r0, r0, r8, lsl r0
 584:	84080e42 	strhi	r0, [r8], #-3650	; 0xfffff1be
 588:	00018e02 	andeq	r8, r1, r2, lsl #28
 58c:	00000014 	andeq	r0, r0, r4, lsl r0
 590:	00000530 	andeq	r0, r0, r0, lsr r5
 594:	000093a4 	andeq	r9, r0, r4, lsr #7
 598:	00000020 	andeq	r0, r0, r0, lsr #32
 59c:	84080e42 	strhi	r0, [r8], #-3650	; 0xfffff1be
 5a0:	00018e02 	andeq	r8, r1, r2, lsl #28
 5a4:	00000014 	andeq	r0, r0, r4, lsl r0
 5a8:	00000530 	andeq	r0, r0, r0, lsr r5
 5ac:	000093c4 	andeq	r9, r0, r4, asr #7
 5b0:	00000030 	andeq	r0, r0, r0, lsr r0
 5b4:	84080e42 	strhi	r0, [r8], #-3650	; 0xfffff1be
 5b8:	00018e02 	andeq	r8, r1, r2, lsl #28
 5bc:	00000014 	andeq	r0, r0, r4, lsl r0
 5c0:	00000530 	andeq	r0, r0, r0, lsr r5
 5c4:	000093f4 	strdeq	r9, [r0], -r4
 5c8:	00000030 	andeq	r0, r0, r0, lsr r0
 5cc:	84080e42 	strhi	r0, [r8], #-3650	; 0xfffff1be
 5d0:	00018e02 	andeq	r8, r1, r2, lsl #28
 5d4:	00000014 	andeq	r0, r0, r4, lsl r0
 5d8:	00000530 	andeq	r0, r0, r0, lsr r5
 5dc:	00009424 	andeq	r9, r0, r4, lsr #8
 5e0:	00000010 	andeq	r0, r0, r0, lsl r0
 5e4:	84080e42 	strhi	r0, [r8], #-3650	; 0xfffff1be
 5e8:	00018e02 	andeq	r8, r1, r2, lsl #28
 5ec:	0000000c 	andeq	r0, r0, ip
 5f0:	ffffffff 			; <UNDEFINED> instruction: 0xffffffff
 5f4:	7c020001 	stcvc	0, cr0, [r2], {1}
 5f8:	000d0c0e 	andeq	r0, sp, lr, lsl #24
 5fc:	00000018 	andeq	r0, r0, r8, lsl r0
 600:	000005ec 	andeq	r0, r0, ip, ror #11
 604:	00009434 	andeq	r9, r0, r4, lsr r4
 608:	00000068 	andeq	r0, r0, r8, rrx
 60c:	84100e4a 	ldrhi	r0, [r0], #-3658	; 0xfffff1b6
 610:	86038504 	strhi	r8, [r3], -r4, lsl #10
 614:	00018e02 	andeq	r8, r1, r2, lsl #28
 618:	00000014 	andeq	r0, r0, r4, lsl r0
 61c:	000005ec 	andeq	r0, r0, ip, ror #11
 620:	0000949c 	muleq	r0, ip, r4
 624:	00000010 	andeq	r0, r0, r0, lsl r0
 628:	84080e42 	strhi	r0, [r8], #-3650	; 0xfffff1be
 62c:	00018e02 	andeq	r8, r1, r2, lsl #28
 630:	00000014 	andeq	r0, r0, r4, lsl r0
 634:	000005ec 	andeq	r0, r0, ip, ror #11
 638:	000094ac 	andeq	r9, r0, ip, lsr #9
 63c:	00000024 	andeq	r0, r0, r4, lsr #32
 640:	84080e46 	strhi	r0, [r8], #-3654	; 0xfffff1ba
 644:	00018e02 	andeq	r8, r1, r2, lsl #28
 648:	00000014 	andeq	r0, r0, r4, lsl r0
 64c:	000005ec 	andeq	r0, r0, ip, ror #11
 650:	000094d0 	ldrdeq	r9, [r0], -r0
 654:	00000024 	andeq	r0, r0, r4, lsr #32
 658:	84080e46 	strhi	r0, [r8], #-3654	; 0xfffff1ba
 65c:	00018e02 	andeq	r8, r1, r2, lsl #28
 660:	00000014 	andeq	r0, r0, r4, lsl r0
 664:	000005ec 	andeq	r0, r0, ip, ror #11
 668:	000094f4 	strdeq	r9, [r0], -r4
 66c:	00000010 	andeq	r0, r0, r0, lsl r0
 670:	84080e42 	strhi	r0, [r8], #-3650	; 0xfffff1be
 674:	00018e02 	andeq	r8, r1, r2, lsl #28
 678:	00000014 	andeq	r0, r0, r4, lsl r0
 67c:	000005ec 	andeq	r0, r0, ip, ror #11
 680:	00009504 	andeq	r9, r0, r4, lsl #10
 684:	0000001c 	andeq	r0, r0, ip, lsl r0
 688:	84080e42 	strhi	r0, [r8], #-3650	; 0xfffff1be
 68c:	00018e02 	andeq	r8, r1, r2, lsl #28
 690:	00000018 	andeq	r0, r0, r8, lsl r0
 694:	000005ec 	andeq	r0, r0, ip, ror #11
 698:	00009520 	andeq	r9, r0, r0, lsr #10
 69c:	00000034 	andeq	r0, r0, r4, lsr r0
 6a0:	84080e46 	strhi	r0, [r8], #-3654	; 0xfffff1ba
 6a4:	4e018e02 	cdpmi	14, 0, cr8, cr1, cr2, {0}
 6a8:	cec4000e 	cdpgt	0, 12, cr0, cr4, cr14, {0}
 6ac:	0000000c 	andeq	r0, r0, ip
 6b0:	ffffffff 			; <UNDEFINED> instruction: 0xffffffff
 6b4:	7c020001 	stcvc	0, cr0, [r2], {1}
 6b8:	000d0c0e 	andeq	r0, sp, lr, lsl #24
 6bc:	0000000c 	andeq	r0, r0, ip
 6c0:	000006ac 	andeq	r0, r0, ip, lsr #13
 6c4:	00009554 	andeq	r9, r0, r4, asr r5
 6c8:	00000010 	andeq	r0, r0, r0, lsl r0
 6cc:	0000000c 	andeq	r0, r0, ip
 6d0:	000006ac 	andeq	r0, r0, ip, lsr #13
 6d4:	00009564 	andeq	r9, r0, r4, ror #10
 6d8:	0000000c 	andeq	r0, r0, ip
 6dc:	00000014 	andeq	r0, r0, r4, lsl r0
 6e0:	000006ac 	andeq	r0, r0, ip, lsr #13
 6e4:	00009570 	andeq	r9, r0, r0, ror r5
 6e8:	00000050 	andeq	r0, r0, r0, asr r0
 6ec:	84080e52 	strhi	r0, [r8], #-3666	; 0xfffff1ae
 6f0:	00018e02 	andeq	r8, r1, r2, lsl #28
 6f4:	00000014 	andeq	r0, r0, r4, lsl r0
 6f8:	000006ac 	andeq	r0, r0, ip, lsr #13
 6fc:	000095c0 	andeq	r9, r0, r0, asr #11
 700:	00000064 	andeq	r0, r0, r4, rrx
 704:	84080e42 	strhi	r0, [r8], #-3650	; 0xfffff1be
 708:	00018e02 	andeq	r8, r1, r2, lsl #28
 70c:	0000000c 	andeq	r0, r0, ip
 710:	000006ac 	andeq	r0, r0, ip, lsr #13
 714:	00009624 	andeq	r9, r0, r4, lsr #12
 718:	00000004 	andeq	r0, r0, r4
 71c:	00000014 	andeq	r0, r0, r4, lsl r0
 720:	000006ac 	andeq	r0, r0, ip, lsr #13
 724:	00009628 	andeq	r9, r0, r8, lsr #12
 728:	0000000c 	andeq	r0, r0, ip
 72c:	84080e42 	strhi	r0, [r8], #-3650	; 0xfffff1be
 730:	00018e02 	andeq	r8, r1, r2, lsl #28
 734:	00000014 	andeq	r0, r0, r4, lsl r0
 738:	000006ac 	andeq	r0, r0, ip, lsr #13
 73c:	00009634 	andeq	r9, r0, r4, lsr r6
 740:	0000008c 	andeq	r0, r0, ip, lsl #1
 744:	84080e42 	strhi	r0, [r8], #-3650	; 0xfffff1be
 748:	00018e02 	andeq	r8, r1, r2, lsl #28
 74c:	0000000c 	andeq	r0, r0, ip
 750:	000006ac 	andeq	r0, r0, ip, lsr #13
 754:	000096c0 	andeq	r9, r0, r0, asr #13
 758:	00000004 	andeq	r0, r0, r4
 75c:	0000000c 	andeq	r0, r0, ip
 760:	000006ac 	andeq	r0, r0, ip, lsr #13
 764:	000096c4 	andeq	r9, r0, r4, asr #13
 768:	00000014 	andeq	r0, r0, r4, lsl r0
 76c:	0000000c 	andeq	r0, r0, ip
 770:	000006ac 	andeq	r0, r0, ip, lsr #13
 774:	000096d8 	ldrdeq	r9, [r0], -r8
 778:	00000010 	andeq	r0, r0, r0, lsl r0

Disassembly of section .debug_ranges:

00000000 <.debug_ranges>:
   0:	000000a0 	andeq	r0, r0, r0, lsr #1
   4:	000000e8 	andeq	r0, r0, r8, ror #1
   8:	00000100 	andeq	r0, r0, r0, lsl #2
   c:	0000012c 	andeq	r0, r0, ip, lsr #2
	...
  18:	000001d4 	ldrdeq	r0, [r0], -r4
  1c:	0000021c 	andeq	r0, r0, ip, lsl r2
  20:	00000220 	andeq	r0, r0, r0, lsr #4
  24:	00000250 	andeq	r0, r0, r0, asr r2
	...
  30:	000002d0 	ldrdeq	r0, [r0], -r0	; <UNPREDICTABLE>
  34:	00000318 	andeq	r0, r0, r8, lsl r3
  38:	0000031c 	andeq	r0, r0, ip, lsl r3
  3c:	0000034c 	andeq	r0, r0, ip, asr #6
	...
  48:	000007c8 	andeq	r0, r0, r8, asr #15
  4c:	000007d0 	ldrdeq	r0, [r0], -r0	; <UNPREDICTABLE>
  50:	000007d8 	ldrdeq	r0, [r0], -r8
  54:	000007e4 	andeq	r0, r0, r4, ror #15
  58:	0000080c 	andeq	r0, r0, ip, lsl #16
  5c:	000008ac 	andeq	r0, r0, ip, lsr #17
	...
  68:	0000916c 	andeq	r9, r0, ip, ror #2
  6c:	000091e4 	andeq	r9, r0, r4, ror #3
	...
