
part1-test1.elf:     file format elf32-littlearm


Disassembly of section .text:

00008000 <_start>:
    8000:	e3a0d302 	mov	sp, #134217728	; 0x8000000
    8004:	e3a0b000 	mov	fp, #0
    8008:	eb000418 	bl	9070 <_cstart>
    800c:	eb00042f 	bl	90d0 <rpi_reboot>

00008010 <notmain>:
    8010:	e92d4070 	push	{r4, r5, r6, lr}
    8014:	e59f00ac 	ldr	r0, [pc, #172]	; 80c8 <notmain+0xb8>
    8018:	eb00024f 	bl	895c <printk>
    801c:	e3a00601 	mov	r0, #1048576	; 0x100000
    8020:	eb000529 	bl	94cc <kmalloc_init_set_start>
    8024:	e3a00601 	mov	r0, #1048576	; 0x100000
    8028:	eb00053b 	bl	951c <kmalloc>
    802c:	e3a01601 	mov	r1, #1048576	; 0x100000
    8030:	eb000125 	bl	84cc <ck_init>
    8034:	e59f6090 	ldr	r6, [pc, #144]	; 80cc <notmain+0xbc>
    8038:	e59f5090 	ldr	r5, [pc, #144]	; 80d0 <notmain+0xc0>
    803c:	e3a03015 	mov	r3, #21
    8040:	e1a02006 	mov	r2, r6
    8044:	e1a01005 	mov	r1, r5
    8048:	e3a00004 	mov	r0, #4
    804c:	eb000169 	bl	85f8 <ckalloc>
    8050:	e1a04000 	mov	r4, r0
    8054:	e59f0078 	ldr	r0, [pc, #120]	; 80d4 <notmain+0xc4>
    8058:	eb00023f 	bl	895c <printk>
    805c:	e1a01004 	mov	r1, r4
    8060:	e59f0070 	ldr	r0, [pc, #112]	; 80d8 <notmain+0xc8>
    8064:	eb00023c 	bl	895c <printk>
    8068:	e3a02004 	mov	r2, #4
    806c:	e3a01000 	mov	r1, #0
    8070:	e1a00004 	mov	r0, r4
    8074:	eb0003f5 	bl	9050 <memset>
    8078:	e3a03018 	mov	r3, #24
    807c:	e1a02006 	mov	r2, r6
    8080:	e1a01005 	mov	r1, r5
    8084:	e1a00004 	mov	r0, r4
    8088:	eb00012c 	bl	8540 <ckfree>
    808c:	eb0001df 	bl	8810 <ck_heap_errors>
    8090:	e3500000 	cmp	r0, #0
    8094:	1a000004 	bne	80ac <notmain+0x9c>
    8098:	e59f0034 	ldr	r0, [pc, #52]	; 80d4 <notmain+0xc4>
    809c:	eb00022e 	bl	895c <printk>
    80a0:	e59f0034 	ldr	r0, [pc, #52]	; 80dc <notmain+0xcc>
    80a4:	eb00022c 	bl	895c <printk>
    80a8:	e8bd8070 	pop	{r4, r5, r6, pc}
    80ac:	eb0003dd 	bl	9028 <rpi_reset_putc>
    80b0:	e3a0301a 	mov	r3, #26
    80b4:	e1a02006 	mov	r2, r6
    80b8:	e1a01005 	mov	r1, r5
    80bc:	e59f001c 	ldr	r0, [pc, #28]	; 80e0 <notmain+0xd0>
    80c0:	eb000225 	bl	895c <printk>
    80c4:	eb000414 	bl	911c <clean_reboot>
    80c8:	00009674 	andeq	r9, r0, r4, ror r6
    80cc:	0000966c 	andeq	r9, r0, ip, ror #12
    80d0:	0000967c 	andeq	r9, r0, ip, ror r6
    80d4:	0000968c 	andeq	r9, r0, ip, lsl #13
    80d8:	00009694 	muleq	r0, r4, r6
    80dc:	000096cc 	andeq	r9, r0, ip, asr #13
    80e0:	000096a8 	andeq	r9, r0, r8, lsr #13

000080e4 <b_rz1_ptr>:
    80e4:	e2800038 	add	r0, r0, #56	; 0x38
    80e8:	e12fff1e 	bx	lr

000080ec <b_alloc_ptr>:
    80ec:	e92d4010 	push	{r4, lr}
    80f0:	ebfffffb 	bl	80e4 <b_rz1_ptr>
    80f4:	e2800080 	add	r0, r0, #128	; 0x80
    80f8:	e8bd8010 	pop	{r4, pc}

000080fc <b_rz2_ptr>:
    80fc:	e92d4010 	push	{r4, lr}
    8100:	e1a04000 	mov	r4, r0
    8104:	ebfffff8 	bl	80ec <b_alloc_ptr>
    8108:	e5943000 	ldr	r3, [r4]
    810c:	e0800003 	add	r0, r0, r3
    8110:	e8bd8010 	pop	{r4, pc}

00008114 <b_rz2_nbytes>:
    8114:	e5900004 	ldr	r0, [r0, #4]
    8118:	e2800080 	add	r0, r0, #128	; 0x80
    811c:	e12fff1e 	bx	lr

00008120 <b_addr_to_hdr>:
    8120:	e24000b8 	sub	r0, r0, #184	; 0xb8
    8124:	e12fff1e 	bx	lr

00008128 <check_free_write>:
    8128:	e92d41f0 	push	{r4, r5, r6, r7, r8, lr}
    812c:	e3a04000 	mov	r4, #0
    8130:	e1540001 	cmp	r4, r1
    8134:	2a000035 	bcs	8210 <check_free_write+0xe8>
    8138:	e7d03004 	ldrb	r3, [r0, r4]
    813c:	e35300fe 	cmp	r3, #254	; 0xfe
    8140:	02844001 	addeq	r4, r4, #1
    8144:	0afffff9 	beq	8130 <check_free_write+0x8>
    8148:	e1a06002 	mov	r6, r2
    814c:	e1a05000 	mov	r5, r0
    8150:	e1a00002 	mov	r0, r2
    8154:	ebffffe4 	bl	80ec <b_alloc_ptr>
    8158:	e0450000 	sub	r0, r5, r0
    815c:	e0844000 	add	r4, r4, r0
    8160:	e59f70b0 	ldr	r7, [pc, #176]	; 8218 <check_free_write+0xf0>
    8164:	e1a00007 	mov	r0, r7
    8168:	eb0001fb 	bl	895c <printk>
    816c:	e59f00a8 	ldr	r0, [pc, #168]	; 821c <check_free_write+0xf4>
    8170:	eb0001f9 	bl	895c <printk>
    8174:	e1a02004 	mov	r2, r4
    8178:	e1a01005 	mov	r1, r5
    817c:	e59f009c 	ldr	r0, [pc, #156]	; 8220 <check_free_write+0xf8>
    8180:	eb0001f5 	bl	895c <printk>
    8184:	e1a00007 	mov	r0, r7
    8188:	eb0001f3 	bl	895c <printk>
    818c:	e5961000 	ldr	r1, [r6]
    8190:	e59f008c 	ldr	r0, [pc, #140]	; 8224 <check_free_write+0xfc>
    8194:	eb0001f0 	bl	895c <printk>
    8198:	e5963010 	ldr	r3, [r6, #16]
    819c:	e3530000 	cmp	r3, #0
    81a0:	0a000006 	beq	81c0 <check_free_write+0x98>
    81a4:	e1a00007 	mov	r0, r7
    81a8:	eb0001eb 	bl	895c <printk>
    81ac:	e5963018 	ldr	r3, [r6, #24]
    81b0:	e5962014 	ldr	r2, [r6, #20]
    81b4:	e5961010 	ldr	r1, [r6, #16]
    81b8:	e59f0068 	ldr	r0, [pc, #104]	; 8228 <check_free_write+0x100>
    81bc:	eb0001e6 	bl	895c <printk>
    81c0:	e5963008 	ldr	r3, [r6, #8]
    81c4:	e353000c 	cmp	r3, #12
    81c8:	0a000005 	beq	81e4 <check_free_write+0xbc>
    81cc:	e59f0044 	ldr	r0, [pc, #68]	; 8218 <check_free_write+0xf0>
    81d0:	eb0001e1 	bl	895c <printk>
    81d4:	e59f0050 	ldr	r0, [pc, #80]	; 822c <check_free_write+0x104>
    81d8:	eb0001df 	bl	895c <printk>
    81dc:	e3a00000 	mov	r0, #0
    81e0:	e8bd81f0 	pop	{r4, r5, r6, r7, r8, pc}
    81e4:	e596301c 	ldr	r3, [r6, #28]
    81e8:	e3530000 	cmp	r3, #0
    81ec:	0afffff6 	beq	81cc <check_free_write+0xa4>
    81f0:	e59f0020 	ldr	r0, [pc, #32]	; 8218 <check_free_write+0xf0>
    81f4:	eb0001d8 	bl	895c <printk>
    81f8:	e5963024 	ldr	r3, [r6, #36]	; 0x24
    81fc:	e5962020 	ldr	r2, [r6, #32]
    8200:	e596101c 	ldr	r1, [r6, #28]
    8204:	e59f0024 	ldr	r0, [pc, #36]	; 8230 <check_free_write+0x108>
    8208:	eb0001d3 	bl	895c <printk>
    820c:	eaffffee 	b	81cc <check_free_write+0xa4>
    8210:	e3a00001 	mov	r0, #1
    8214:	e8bd81f0 	pop	{r4, r5, r6, r7, r8, pc}
    8218:	0000968c 	andeq	r9, r0, ip, lsl #13
    821c:	00009700 	andeq	r9, r0, r0, lsl #14
    8220:	00009708 	andeq	r9, r0, r8, lsl #14
    8224:	0000972c 	andeq	r9, r0, ip, lsr #14
    8228:	00009738 	andeq	r9, r0, r8, lsr r7
    822c:	00009774 	andeq	r9, r0, r4, ror r7
    8230:	00009758 	andeq	r9, r0, r8, asr r7

00008234 <mark_mem>:
    8234:	e92d4010 	push	{r4, lr}
    8238:	e1a02001 	mov	r2, r1
    823c:	e3a010fe 	mov	r1, #254	; 0xfe
    8240:	eb000382 	bl	9050 <memset>
    8244:	e8bd8010 	pop	{r4, pc}

00008248 <hdr_cksum>:
    8248:	e92d4070 	push	{r4, r5, r6, lr}
    824c:	e1a04000 	mov	r4, r0
    8250:	e590500c 	ldr	r5, [r0, #12]
    8254:	e3a03000 	mov	r3, #0
    8258:	e580300c 	str	r3, [r0, #12]
    825c:	e3a01038 	mov	r1, #56	; 0x38
    8260:	eb000324 	bl	8ef8 <fast_hash>
    8264:	e584500c 	str	r5, [r4, #12]
    8268:	e8bd8070 	pop	{r4, r5, r6, pc}

0000826c <check_hdr>:
    826c:	e92d4070 	push	{r4, r5, r6, lr}
    8270:	e1a04000 	mov	r4, r0
    8274:	e5903008 	ldr	r3, [r0, #8]
    8278:	e243300b 	sub	r3, r3, #11
    827c:	e3530001 	cmp	r3, #1
    8280:	9a00001c 	bls	82f8 <check_hdr+0x8c>
    8284:	e59f50bc 	ldr	r5, [pc, #188]	; 8348 <check_hdr+0xdc>
    8288:	e1a00005 	mov	r0, r5
    828c:	eb0001b2 	bl	895c <printk>
    8290:	e59f00b4 	ldr	r0, [pc, #180]	; 834c <check_hdr+0xe0>
    8294:	eb0001b0 	bl	895c <printk>
    8298:	e3a02000 	mov	r2, #0
    829c:	e1a01004 	mov	r1, r4
    82a0:	e59f00a8 	ldr	r0, [pc, #168]	; 8350 <check_hdr+0xe4>
    82a4:	eb0001ac 	bl	895c <printk>
    82a8:	e1a00005 	mov	r0, r5
    82ac:	eb0001aa 	bl	895c <printk>
    82b0:	e5941000 	ldr	r1, [r4]
    82b4:	e59f0098 	ldr	r0, [pc, #152]	; 8354 <check_hdr+0xe8>
    82b8:	eb0001a7 	bl	895c <printk>
    82bc:	e5943010 	ldr	r3, [r4, #16]
    82c0:	e3530000 	cmp	r3, #0
    82c4:	0a000006 	beq	82e4 <check_hdr+0x78>
    82c8:	e1a00005 	mov	r0, r5
    82cc:	eb0001a2 	bl	895c <printk>
    82d0:	e5943018 	ldr	r3, [r4, #24]
    82d4:	e5942014 	ldr	r2, [r4, #20]
    82d8:	e5941010 	ldr	r1, [r4, #16]
    82dc:	e59f0074 	ldr	r0, [pc, #116]	; 8358 <check_hdr+0xec>
    82e0:	eb00019d 	bl	895c <printk>
    82e4:	e5943008 	ldr	r3, [r4, #8]
    82e8:	e353000c 	cmp	r3, #12
    82ec:	0a000007 	beq	8310 <check_hdr+0xa4>
    82f0:	e3a00000 	mov	r0, #0
    82f4:	e8bd8070 	pop	{r4, r5, r6, pc}
    82f8:	e590500c 	ldr	r5, [r0, #12]
    82fc:	ebffffd1 	bl	8248 <hdr_cksum>
    8300:	e1550000 	cmp	r5, r0
    8304:	1affffde 	bne	8284 <check_hdr+0x18>
    8308:	e3a00001 	mov	r0, #1
    830c:	e8bd8070 	pop	{r4, r5, r6, pc}
    8310:	e594301c 	ldr	r3, [r4, #28]
    8314:	e3530000 	cmp	r3, #0
    8318:	0a000008 	beq	8340 <check_hdr+0xd4>
    831c:	e59f0024 	ldr	r0, [pc, #36]	; 8348 <check_hdr+0xdc>
    8320:	eb00018d 	bl	895c <printk>
    8324:	e5943024 	ldr	r3, [r4, #36]	; 0x24
    8328:	e5942020 	ldr	r2, [r4, #32]
    832c:	e594101c 	ldr	r1, [r4, #28]
    8330:	e59f0024 	ldr	r0, [pc, #36]	; 835c <check_hdr+0xf0>
    8334:	eb000188 	bl	895c <printk>
    8338:	e3a00000 	mov	r0, #0
    833c:	e8bd8070 	pop	{r4, r5, r6, pc}
    8340:	e3a00000 	mov	r0, #0
    8344:	e8bd8070 	pop	{r4, r5, r6, pc}
    8348:	0000968c 	andeq	r9, r0, ip, lsl #13
    834c:	00009700 	andeq	r9, r0, r0, lsl #14
    8350:	00009708 	andeq	r9, r0, r8, lsl #14
    8354:	0000972c 	andeq	r9, r0, ip, lsr #14
    8358:	00009738 	andeq	r9, r0, r8, lsr r7
    835c:	00009758 	andeq	r9, r0, r8, asr r7

00008360 <check_mem>:
    8360:	e92d41f0 	push	{r4, r5, r6, r7, r8, lr}
    8364:	e3a04000 	mov	r4, #0
    8368:	e1540001 	cmp	r4, r1
    836c:	2a000033 	bcs	8440 <check_mem+0xe0>
    8370:	e7d03004 	ldrb	r3, [r0, r4]
    8374:	e35300fe 	cmp	r3, #254	; 0xfe
    8378:	02844001 	addeq	r4, r4, #1
    837c:	0afffff9 	beq	8368 <check_mem+0x8>
    8380:	e1a06002 	mov	r6, r2
    8384:	e1a05000 	mov	r5, r0
    8388:	e1a00002 	mov	r0, r2
    838c:	ebffff56 	bl	80ec <b_alloc_ptr>
    8390:	e0450000 	sub	r0, r5, r0
    8394:	e0844000 	add	r4, r4, r0
    8398:	e59f70b0 	ldr	r7, [pc, #176]	; 8450 <check_mem+0xf0>
    839c:	e1a00007 	mov	r0, r7
    83a0:	eb00016d 	bl	895c <printk>
    83a4:	e59f00a8 	ldr	r0, [pc, #168]	; 8454 <check_mem+0xf4>
    83a8:	eb00016b 	bl	895c <printk>
    83ac:	e5961000 	ldr	r1, [r6]
    83b0:	e1a02004 	mov	r2, r4
    83b4:	e0451001 	sub	r1, r5, r1
    83b8:	e59f0098 	ldr	r0, [pc, #152]	; 8458 <check_mem+0xf8>
    83bc:	eb000166 	bl	895c <printk>
    83c0:	e1a00007 	mov	r0, r7
    83c4:	eb000164 	bl	895c <printk>
    83c8:	e5961000 	ldr	r1, [r6]
    83cc:	e59f0088 	ldr	r0, [pc, #136]	; 845c <check_mem+0xfc>
    83d0:	eb000161 	bl	895c <printk>
    83d4:	e5963010 	ldr	r3, [r6, #16]
    83d8:	e3530000 	cmp	r3, #0
    83dc:	0a000006 	beq	83fc <check_mem+0x9c>
    83e0:	e1a00007 	mov	r0, r7
    83e4:	eb00015c 	bl	895c <printk>
    83e8:	e5963018 	ldr	r3, [r6, #24]
    83ec:	e5962014 	ldr	r2, [r6, #20]
    83f0:	e5961010 	ldr	r1, [r6, #16]
    83f4:	e59f0064 	ldr	r0, [pc, #100]	; 8460 <check_mem+0x100>
    83f8:	eb000157 	bl	895c <printk>
    83fc:	e5963008 	ldr	r3, [r6, #8]
    8400:	e353000c 	cmp	r3, #12
    8404:	0a000001 	beq	8410 <check_mem+0xb0>
    8408:	e3a00000 	mov	r0, #0
    840c:	e8bd81f0 	pop	{r4, r5, r6, r7, r8, pc}
    8410:	e596301c 	ldr	r3, [r6, #28]
    8414:	e3530000 	cmp	r3, #0
    8418:	0a00000a 	beq	8448 <check_mem+0xe8>
    841c:	e59f002c 	ldr	r0, [pc, #44]	; 8450 <check_mem+0xf0>
    8420:	eb00014d 	bl	895c <printk>
    8424:	e5963024 	ldr	r3, [r6, #36]	; 0x24
    8428:	e5962020 	ldr	r2, [r6, #32]
    842c:	e596101c 	ldr	r1, [r6, #28]
    8430:	e59f002c 	ldr	r0, [pc, #44]	; 8464 <check_mem+0x104>
    8434:	eb000148 	bl	895c <printk>
    8438:	e3a00000 	mov	r0, #0
    843c:	e8bd81f0 	pop	{r4, r5, r6, r7, r8, pc}
    8440:	e3a00001 	mov	r0, #1
    8444:	e8bd81f0 	pop	{r4, r5, r6, r7, r8, pc}
    8448:	e3a00000 	mov	r0, #0
    844c:	e8bd81f0 	pop	{r4, r5, r6, r7, r8, pc}
    8450:	0000968c 	andeq	r9, r0, ip, lsl #13
    8454:	00009700 	andeq	r9, r0, r0, lsl #14
    8458:	00009708 	andeq	r9, r0, r8, lsl #14
    845c:	0000972c 	andeq	r9, r0, ip, lsr #14
    8460:	00009738 	andeq	r9, r0, r8, lsr r7
    8464:	00009758 	andeq	r9, r0, r8, asr r7

00008468 <check_block>:
    8468:	e92d4070 	push	{r4, r5, r6, lr}
    846c:	e1a04000 	mov	r4, r0
    8470:	ebffff7d 	bl	826c <check_hdr>
    8474:	e3500000 	cmp	r0, #0
    8478:	08bd8070 	popeq	{r4, r5, r6, pc}
    847c:	e1a00004 	mov	r0, r4
    8480:	ebffff17 	bl	80e4 <b_rz1_ptr>
    8484:	e1a02004 	mov	r2, r4
    8488:	e3a01080 	mov	r1, #128	; 0x80
    848c:	ebffffb3 	bl	8360 <check_mem>
    8490:	e3500000 	cmp	r0, #0
    8494:	08bd8070 	popeq	{r4, r5, r6, pc}
    8498:	e1a00004 	mov	r0, r4
    849c:	ebffff16 	bl	80fc <b_rz2_ptr>
    84a0:	e1a05000 	mov	r5, r0
    84a4:	e1a00004 	mov	r0, r4
    84a8:	ebffff19 	bl	8114 <b_rz2_nbytes>
    84ac:	e1a02004 	mov	r2, r4
    84b0:	e1a01000 	mov	r1, r0
    84b4:	e1a00005 	mov	r0, r5
    84b8:	ebffffa8 	bl	8360 <check_mem>
    84bc:	e3500000 	cmp	r0, #0
    84c0:	08bd8070 	popeq	{r4, r5, r6, pc}
    84c4:	e3a00001 	mov	r0, #1
    84c8:	e8bd8070 	pop	{r4, r5, r6, pc}

000084cc <ck_init>:
    84cc:	e92d4070 	push	{r4, r5, r6, lr}
    84d0:	e59f3054 	ldr	r3, [pc, #84]	; 852c <ck_init+0x60>
    84d4:	e5933000 	ldr	r3, [r3]
    84d8:	e3130007 	tst	r3, #7
    84dc:	1a00000b 	bne	8510 <ck_init+0x44>
    84e0:	e1a04000 	mov	r4, r0
    84e4:	e1a05001 	mov	r5, r1
    84e8:	e3a02080 	mov	r2, #128	; 0x80
    84ec:	e3a01038 	mov	r1, #56	; 0x38
    84f0:	e59f0038 	ldr	r0, [pc, #56]	; 8530 <ck_init+0x64>
    84f4:	eb000118 	bl	895c <printk>
    84f8:	e59f302c 	ldr	r3, [pc, #44]	; 852c <ck_init+0x60>
    84fc:	e5834000 	str	r4, [r3]
    8500:	e5834004 	str	r4, [r3, #4]
    8504:	e0844005 	add	r4, r4, r5
    8508:	e5834008 	str	r4, [r3, #8]
    850c:	e8bd8070 	pop	{r4, r5, r6, pc}
    8510:	eb0002c4 	bl	9028 <rpi_reset_putc>
    8514:	e3a0300a 	mov	r3, #10
    8518:	e59f2014 	ldr	r2, [pc, #20]	; 8534 <ck_init+0x68>
    851c:	e59f1014 	ldr	r1, [pc, #20]	; 8538 <ck_init+0x6c>
    8520:	e59f0014 	ldr	r0, [pc, #20]	; 853c <ck_init+0x70>
    8524:	eb00010c 	bl	895c <printk>
    8528:	eb0002fb 	bl	911c <clean_reboot>
    852c:	00009c1c 	andeq	r9, r0, ip, lsl ip
    8530:	000097c4 	andeq	r9, r0, r4, asr #15
    8534:	000096e8 	andeq	r9, r0, r8, ror #13
    8538:	00009790 	muleq	r0, r0, r7
    853c:	0000979c 	muleq	r0, ip, r7

00008540 <ckfree>:
    8540:	e92d41f0 	push	{r4, r5, r6, r7, r8, lr}
    8544:	e1a05000 	mov	r5, r0
    8548:	e1a08001 	mov	r8, r1
    854c:	e1a07002 	mov	r7, r2
    8550:	e1a06003 	mov	r6, r3
    8554:	ebfffef1 	bl	8120 <b_addr_to_hdr>
    8558:	e59f3080 	ldr	r3, [pc, #128]	; 85e0 <ckfree+0xa0>
    855c:	e5933004 	ldr	r3, [r3, #4]
    8560:	e3530000 	cmp	r3, #0
    8564:	0a000016 	beq	85c4 <ckfree+0x84>
    8568:	e1a04000 	mov	r4, r0
    856c:	e59f0070 	ldr	r0, [pc, #112]	; 85e4 <ckfree+0xa4>
    8570:	eb0000f9 	bl	895c <printk>
    8574:	e1a01005 	mov	r1, r5
    8578:	e59f0068 	ldr	r0, [pc, #104]	; 85e8 <ckfree+0xa8>
    857c:	eb0000f6 	bl	895c <printk>
    8580:	e1a00004 	mov	r0, r4
    8584:	ebffffb7 	bl	8468 <check_block>
    8588:	e3500000 	cmp	r0, #0
    858c:	08bd81f0 	popeq	{r4, r5, r6, r7, r8, pc}
    8590:	e584801c 	str	r8, [r4, #28]
    8594:	e5847020 	str	r7, [r4, #32]
    8598:	e5846024 	str	r6, [r4, #36]	; 0x24
    859c:	e3a0300c 	mov	r3, #12
    85a0:	e5843008 	str	r3, [r4, #8]
    85a4:	e1a00004 	mov	r0, r4
    85a8:	ebfffecf 	bl	80ec <b_alloc_ptr>
    85ac:	e5941000 	ldr	r1, [r4]
    85b0:	ebffff1f 	bl	8234 <mark_mem>
    85b4:	e1a00004 	mov	r0, r4
    85b8:	ebffff22 	bl	8248 <hdr_cksum>
    85bc:	e584000c 	str	r0, [r4, #12]
    85c0:	e8bd81f0 	pop	{r4, r5, r6, r7, r8, pc}
    85c4:	eb000297 	bl	9028 <rpi_reset_putc>
    85c8:	e3a03075 	mov	r3, #117	; 0x75
    85cc:	e59f2018 	ldr	r2, [pc, #24]	; 85ec <ckfree+0xac>
    85d0:	e59f1018 	ldr	r1, [pc, #24]	; 85f0 <ckfree+0xb0>
    85d4:	e59f0018 	ldr	r0, [pc, #24]	; 85f4 <ckfree+0xb4>
    85d8:	eb0000df 	bl	895c <printk>
    85dc:	eb0002ce 	bl	911c <clean_reboot>
    85e0:	00009c1c 	andeq	r9, r0, ip, lsl ip
    85e4:	0000968c 	andeq	r9, r0, ip, lsl #13
    85e8:	00009814 	andeq	r9, r0, r4, lsl r8
    85ec:	000096f0 	strdeq	r9, [r0], -r0
    85f0:	00009790 	muleq	r0, r0, r7
    85f4:	000097e0 	andeq	r9, r0, r0, ror #15

000085f8 <ckalloc>:
    85f8:	e92d43f0 	push	{r4, r5, r6, r7, r8, r9, lr}
    85fc:	e24dd00c 	sub	sp, sp, #12
    8600:	e1a07003 	mov	r7, r3
    8604:	e59f31d0 	ldr	r3, [pc, #464]	; 87dc <ckalloc+0x1e4>
    8608:	e5933004 	ldr	r3, [r3, #4]
    860c:	e3530000 	cmp	r3, #0
    8610:	0a000041 	beq	871c <ckalloc+0x124>
    8614:	e1a05000 	mov	r5, r0
    8618:	e1a09001 	mov	r9, r1
    861c:	e1a08002 	mov	r8, r2
    8620:	e59f01b8 	ldr	r0, [pc, #440]	; 87e0 <ckalloc+0x1e8>
    8624:	eb0000cc 	bl	895c <printk>
    8628:	e1a01005 	mov	r1, r5
    862c:	e59f01b0 	ldr	r0, [pc, #432]	; 87e4 <ckalloc+0x1ec>
    8630:	eb0000c9 	bl	895c <printk>
    8634:	e2853007 	add	r3, r5, #7
    8638:	e3c33007 	bic	r3, r3, #7
    863c:	e2836f4e 	add	r6, r3, #312	; 0x138
    8640:	e1550006 	cmp	r5, r6
    8644:	8a00003b 	bhi	8738 <ckalloc+0x140>
    8648:	e59f218c 	ldr	r2, [pc, #396]	; 87dc <ckalloc+0x1e4>
    864c:	e5924004 	ldr	r4, [r2, #4]
    8650:	e0841006 	add	r1, r4, r6
    8654:	e5922008 	ldr	r2, [r2, #8]
    8658:	e1510002 	cmp	r1, r2
    865c:	2a000042 	bcs	876c <ckalloc+0x174>
    8660:	e5845000 	str	r5, [r4]
    8664:	e5843004 	str	r3, [r4, #4]
    8668:	e3a0300b 	mov	r3, #11
    866c:	e5843008 	str	r3, [r4, #8]
    8670:	e5849010 	str	r9, [r4, #16]
    8674:	e5848014 	str	r8, [r4, #20]
    8678:	e5847018 	str	r7, [r4, #24]
    867c:	e3a03001 	mov	r3, #1
    8680:	e5843028 	str	r3, [r4, #40]	; 0x28
    8684:	e3a03000 	mov	r3, #0
    8688:	e584302c 	str	r3, [r4, #44]	; 0x2c
    868c:	e1a00004 	mov	r0, r4
    8690:	ebfffe93 	bl	80e4 <b_rz1_ptr>
    8694:	e3a01080 	mov	r1, #128	; 0x80
    8698:	ebfffee5 	bl	8234 <mark_mem>
    869c:	e1a00004 	mov	r0, r4
    86a0:	ebfffe95 	bl	80fc <b_rz2_ptr>
    86a4:	e1a07000 	mov	r7, r0
    86a8:	e1a00004 	mov	r0, r4
    86ac:	ebfffe98 	bl	8114 <b_rz2_nbytes>
    86b0:	e1a01000 	mov	r1, r0
    86b4:	e1a00007 	mov	r0, r7
    86b8:	ebfffedd 	bl	8234 <mark_mem>
    86bc:	e1a00004 	mov	r0, r4
    86c0:	ebfffee0 	bl	8248 <hdr_cksum>
    86c4:	e584000c 	str	r0, [r4, #12]
    86c8:	e59f210c 	ldr	r2, [pc, #268]	; 87dc <ckalloc+0x1e4>
    86cc:	e5923004 	ldr	r3, [r2, #4]
    86d0:	e0833006 	add	r3, r3, r6
    86d4:	e5823004 	str	r3, [r2, #4]
    86d8:	e1a00004 	mov	r0, r4
    86dc:	ebffff61 	bl	8468 <check_block>
    86e0:	e3500000 	cmp	r0, #0
    86e4:	0a000035 	beq	87c0 <ckalloc+0x1c8>
    86e8:	e1a00004 	mov	r0, r4
    86ec:	ebfffe7e 	bl	80ec <b_alloc_ptr>
    86f0:	e1a04000 	mov	r4, r0
    86f4:	e59f00e4 	ldr	r0, [pc, #228]	; 87e0 <ckalloc+0x1e8>
    86f8:	eb000097 	bl	895c <printk>
    86fc:	e1a03004 	mov	r3, r4
    8700:	e1a02006 	mov	r2, r6
    8704:	e1a01005 	mov	r1, r5
    8708:	e59f00d8 	ldr	r0, [pc, #216]	; 87e8 <ckalloc+0x1f0>
    870c:	eb000092 	bl	895c <printk>
    8710:	e1a00004 	mov	r0, r4
    8714:	e28dd00c 	add	sp, sp, #12
    8718:	e8bd83f0 	pop	{r4, r5, r6, r7, r8, r9, pc}
    871c:	eb000241 	bl	9028 <rpi_reset_putc>
    8720:	e3a0308b 	mov	r3, #139	; 0x8b
    8724:	e59f20c0 	ldr	r2, [pc, #192]	; 87ec <ckalloc+0x1f4>
    8728:	e59f10c0 	ldr	r1, [pc, #192]	; 87f0 <ckalloc+0x1f8>
    872c:	e59f00c0 	ldr	r0, [pc, #192]	; 87f4 <ckalloc+0x1fc>
    8730:	eb000089 	bl	895c <printk>
    8734:	eb000278 	bl	911c <clean_reboot>
    8738:	e59f00b8 	ldr	r0, [pc, #184]	; 87f8 <ckalloc+0x200>
    873c:	eb000086 	bl	895c <printk>
    8740:	e1a01005 	mov	r1, r5
    8744:	e59f00b0 	ldr	r0, [pc, #176]	; 87fc <ckalloc+0x204>
    8748:	eb000083 	bl	895c <printk>
    874c:	eb000235 	bl	9028 <rpi_reset_putc>
    8750:	e58d5000 	str	r5, [sp]
    8754:	e3a03093 	mov	r3, #147	; 0x93
    8758:	e59f208c 	ldr	r2, [pc, #140]	; 87ec <ckalloc+0x1f4>
    875c:	e59f108c 	ldr	r1, [pc, #140]	; 87f0 <ckalloc+0x1f8>
    8760:	e59f0098 	ldr	r0, [pc, #152]	; 8800 <ckalloc+0x208>
    8764:	eb00007c 	bl	895c <printk>
    8768:	eb00026b 	bl	911c <clean_reboot>
    876c:	e59f0084 	ldr	r0, [pc, #132]	; 87f8 <ckalloc+0x200>
    8770:	eb000079 	bl	895c <printk>
    8774:	e59f4060 	ldr	r4, [pc, #96]	; 87dc <ckalloc+0x1e4>
    8778:	e5941008 	ldr	r1, [r4, #8]
    877c:	e5943004 	ldr	r3, [r4, #4]
    8780:	e1a02006 	mov	r2, r6
    8784:	e0411003 	sub	r1, r1, r3
    8788:	e59f0074 	ldr	r0, [pc, #116]	; 8804 <ckalloc+0x20c>
    878c:	eb000072 	bl	895c <printk>
    8790:	eb000224 	bl	9028 <rpi_reset_putc>
    8794:	e58d6004 	str	r6, [sp, #4]
    8798:	e5943008 	ldr	r3, [r4, #8]
    879c:	e5942004 	ldr	r2, [r4, #4]
    87a0:	e0433002 	sub	r3, r3, r2
    87a4:	e58d3000 	str	r3, [sp]
    87a8:	e3a03097 	mov	r3, #151	; 0x97
    87ac:	e59f2038 	ldr	r2, [pc, #56]	; 87ec <ckalloc+0x1f4>
    87b0:	e59f1038 	ldr	r1, [pc, #56]	; 87f0 <ckalloc+0x1f8>
    87b4:	e59f004c 	ldr	r0, [pc, #76]	; 8808 <ckalloc+0x210>
    87b8:	eb000067 	bl	895c <printk>
    87bc:	eb000256 	bl	911c <clean_reboot>
    87c0:	eb000218 	bl	9028 <rpi_reset_putc>
    87c4:	e3a030a5 	mov	r3, #165	; 0xa5
    87c8:	e59f201c 	ldr	r2, [pc, #28]	; 87ec <ckalloc+0x1f4>
    87cc:	e59f101c 	ldr	r1, [pc, #28]	; 87f0 <ckalloc+0x1f8>
    87d0:	e59f0034 	ldr	r0, [pc, #52]	; 880c <ckalloc+0x214>
    87d4:	eb000060 	bl	895c <printk>
    87d8:	eb00024f 	bl	911c <clean_reboot>
    87dc:	00009c1c 	andeq	r9, r0, ip, lsl ip
    87e0:	0000968c 	andeq	r9, r0, ip, lsl #13
    87e4:	00009820 	andeq	r9, r0, r0, lsr #16
    87e8:	0000992c 	andeq	r9, r0, ip, lsr #18
    87ec:	000096f8 	strdeq	r9, [r0], -r8
    87f0:	00009790 	muleq	r0, r0, r7
    87f4:	000097e0 	andeq	r9, r0, r0, ror #15
    87f8:	00009838 	andeq	r9, r0, r8, lsr r8
    87fc:	00009844 	andeq	r9, r0, r4, asr #16
    8800:	0000986c 	andeq	r9, r0, ip, ror #16
    8804:	000098a4 	andeq	r9, r0, r4, lsr #17
    8808:	000098d0 	ldrdeq	r9, [r0], -r0
    880c:	0000990c 	andeq	r9, r0, ip, lsl #18

00008810 <ck_heap_errors>:
    8810:	e92d41f0 	push	{r4, r5, r6, r7, r8, lr}
    8814:	e59f412c 	ldr	r4, [pc, #300]	; 8948 <ck_heap_errors+0x138>
    8818:	e5943004 	ldr	r3, [r4, #4]
    881c:	e5945000 	ldr	r5, [r4]
    8820:	e0435005 	sub	r5, r3, r5
    8824:	e5946008 	ldr	r6, [r4, #8]
    8828:	e0466003 	sub	r6, r6, r3
    882c:	e59f0118 	ldr	r0, [pc, #280]	; 894c <ck_heap_errors+0x13c>
    8830:	eb000049 	bl	895c <printk>
    8834:	e1a02006 	mov	r2, r6
    8838:	e1a01005 	mov	r1, r5
    883c:	e59f010c 	ldr	r0, [pc, #268]	; 8950 <ck_heap_errors+0x140>
    8840:	eb000045 	bl	895c <printk>
    8844:	e5944000 	ldr	r4, [r4]
    8848:	e3a05000 	mov	r5, #0
    884c:	e1a06005 	mov	r6, r5
    8850:	ea000011 	b	889c <ck_heap_errors+0x8c>
    8854:	e2866001 	add	r6, r6, #1
    8858:	e2855001 	add	r5, r5, #1
    885c:	e3560000 	cmp	r6, #0
    8860:	1a000031 	bne	892c <ck_heap_errors+0x11c>
    8864:	e59f00e0 	ldr	r0, [pc, #224]	; 894c <ck_heap_errors+0x13c>
    8868:	eb00003b 	bl	895c <printk>
    886c:	e1a01005 	mov	r1, r5
    8870:	e59f00dc 	ldr	r0, [pc, #220]	; 8954 <ck_heap_errors+0x144>
    8874:	eb000038 	bl	895c <printk>
    8878:	e1a00006 	mov	r0, r6
    887c:	e8bd81f0 	pop	{r4, r5, r6, r7, r8, pc}
    8880:	e2866001 	add	r6, r6, #1
    8884:	e2855001 	add	r5, r5, #1
    8888:	e5943000 	ldr	r3, [r4]
    888c:	e5942004 	ldr	r2, [r4, #4]
    8890:	e0833002 	add	r3, r3, r2
    8894:	e2833f4e 	add	r3, r3, #312	; 0x138
    8898:	e0844003 	add	r4, r4, r3
    889c:	e59f30a4 	ldr	r3, [pc, #164]	; 8948 <ck_heap_errors+0x138>
    88a0:	e5933004 	ldr	r3, [r3, #4]
    88a4:	e1540003 	cmp	r4, r3
    88a8:	2affffeb 	bcs	885c <ck_heap_errors+0x4c>
    88ac:	e1a00004 	mov	r0, r4
    88b0:	ebfffe6d 	bl	826c <check_hdr>
    88b4:	e3500000 	cmp	r0, #0
    88b8:	0affffe5 	beq	8854 <ck_heap_errors+0x44>
    88bc:	e1a00004 	mov	r0, r4
    88c0:	ebfffe07 	bl	80e4 <b_rz1_ptr>
    88c4:	e1a02004 	mov	r2, r4
    88c8:	e3a01080 	mov	r1, #128	; 0x80
    88cc:	ebfffea3 	bl	8360 <check_mem>
    88d0:	e3500000 	cmp	r0, #0
    88d4:	0affffe9 	beq	8880 <ck_heap_errors+0x70>
    88d8:	e1a00004 	mov	r0, r4
    88dc:	ebfffe06 	bl	80fc <b_rz2_ptr>
    88e0:	e1a07000 	mov	r7, r0
    88e4:	e1a00004 	mov	r0, r4
    88e8:	ebfffe09 	bl	8114 <b_rz2_nbytes>
    88ec:	e1a02004 	mov	r2, r4
    88f0:	e1a01000 	mov	r1, r0
    88f4:	e1a00007 	mov	r0, r7
    88f8:	ebfffe98 	bl	8360 <check_mem>
    88fc:	e3500000 	cmp	r0, #0
    8900:	0affffde 	beq	8880 <ck_heap_errors+0x70>
    8904:	e3a0300c 	mov	r3, #12
    8908:	e5843008 	str	r3, [r4, #8]
    890c:	e1a00004 	mov	r0, r4
    8910:	ebfffdf5 	bl	80ec <b_alloc_ptr>
    8914:	e1a02004 	mov	r2, r4
    8918:	e5941000 	ldr	r1, [r4]
    891c:	ebfffe01 	bl	8128 <check_free_write>
    8920:	e3500000 	cmp	r0, #0
    8924:	02866001 	addeq	r6, r6, #1
    8928:	eaffffd5 	b	8884 <ck_heap_errors+0x74>
    892c:	e59f0018 	ldr	r0, [pc, #24]	; 894c <ck_heap_errors+0x13c>
    8930:	eb000009 	bl	895c <printk>
    8934:	e1a02006 	mov	r2, r6
    8938:	e1a01005 	mov	r1, r5
    893c:	e59f0014 	ldr	r0, [pc, #20]	; 8958 <ck_heap_errors+0x148>
    8940:	eb000005 	bl	895c <printk>
    8944:	eaffffcb 	b	8878 <ck_heap_errors+0x68>
    8948:	00009c1c 	andeq	r9, r0, ip, lsl ip
    894c:	0000968c 	andeq	r9, r0, ip, lsl #13
    8950:	0000995c 	andeq	r9, r0, ip, asr r9
    8954:	000099bc 			; <UNDEFINED> instruction: 0x000099bc
    8958:	00009994 	muleq	r0, r4, r9

0000895c <printk>:
    895c:	e92d000f 	push	{r0, r1, r2, r3}
    8960:	e92d4030 	push	{r4, r5, lr}
    8964:	e24dd00c 	sub	sp, sp, #12
    8968:	e28d301c 	add	r3, sp, #28
    896c:	e58d3004 	str	r3, [sp, #4]
    8970:	e59f4034 	ldr	r4, [pc, #52]	; 89ac <printk+0x50>
    8974:	e59d2018 	ldr	r2, [sp, #24]
    8978:	e3a01b01 	mov	r1, #1024	; 0x400
    897c:	e1a00004 	mov	r0, r4
    8980:	eb0000ac 	bl	8c38 <va_printk>
    8984:	e1a05000 	mov	r5, r0
    8988:	e59f3020 	ldr	r3, [pc, #32]	; 89b0 <printk+0x54>
    898c:	e5933000 	ldr	r3, [r3]
    8990:	e1a00004 	mov	r0, r4
    8994:	e12fff33 	blx	r3
    8998:	e1a00005 	mov	r0, r5
    899c:	e28dd00c 	add	sp, sp, #12
    89a0:	e8bd4030 	pop	{r4, r5, lr}
    89a4:	e28dd010 	add	sp, sp, #16
    89a8:	e12fff1e 	bx	lr
    89ac:	00009c28 	andeq	r9, r0, r8, lsr #24
    89b0:	0000965c 	andeq	r9, r0, ip, asr r6

000089b4 <isdigit>:
    89b4:	e2400030 	sub	r0, r0, #48	; 0x30
    89b8:	e3500009 	cmp	r0, #9
    89bc:	83a00000 	movhi	r0, #0
    89c0:	93a00001 	movls	r0, #1
    89c4:	e12fff1e 	bx	lr

000089c8 <pad>:
    89c8:	e0401001 	sub	r1, r0, r1
    89cc:	ea000003 	b	89e0 <pad+0x18>
    89d0:	e3a03020 	mov	r3, #32
    89d4:	e5c03000 	strb	r3, [r0]
    89d8:	e2811001 	add	r1, r1, #1
    89dc:	e2800001 	add	r0, r0, #1
    89e0:	e1510002 	cmp	r1, r2
    89e4:	bafffff9 	blt	89d0 <pad+0x8>
    89e8:	e3a03000 	mov	r3, #0
    89ec:	e5c03000 	strb	r3, [r0]
    89f0:	e12fff1e 	bx	lr

000089f4 <reverse>:
    89f4:	e042c003 	sub	ip, r2, r3
    89f8:	e28cc001 	add	ip, ip, #1
    89fc:	e15c0001 	cmp	ip, r1
    8a00:	c04cc001 	subgt	ip, ip, r1
    8a04:	c083300c 	addgt	r3, r3, ip
    8a08:	e2422001 	sub	r2, r2, #1
    8a0c:	e1a01000 	mov	r1, r0
    8a10:	ea000002 	b	8a20 <reverse+0x2c>
    8a14:	e452c001 	ldrb	ip, [r2], #-1
    8a18:	e5c1c000 	strb	ip, [r1]
    8a1c:	e2811001 	add	r1, r1, #1
    8a20:	e1520003 	cmp	r2, r3
    8a24:	2afffffa 	bcs	8a14 <reverse+0x20>
    8a28:	e3a03000 	mov	r3, #0
    8a2c:	e5c13000 	strb	r3, [r1]
    8a30:	e12fff1e 	bx	lr

00008a34 <emit>:
    8a34:	e92d40f0 	push	{r4, r5, r6, r7, lr}
    8a38:	e24dd044 	sub	sp, sp, #68	; 0x44
    8a3c:	e1a05001 	mov	r5, r1
    8a40:	e1a04002 	mov	r4, r2
    8a44:	e59d2058 	ldr	r2, [sp, #88]	; 0x58
    8a48:	e1520004 	cmp	r2, r4
    8a4c:	c2442001 	subgt	r2, r4, #1
    8a50:	e1a01003 	mov	r1, r3
    8a54:	e2400002 	sub	r0, r0, #2
    8a58:	e350000e 	cmp	r0, #14
    8a5c:	979ff100 	ldrls	pc, [pc, r0, lsl #2]
    8a60:	ea000051 	b	8bac <emit+0x178>
    8a64:	00008b84 	andeq	r8, r0, r4, lsl #23
    8a68:	00008bac 	andeq	r8, r0, ip, lsr #23
    8a6c:	00008bac 	andeq	r8, r0, ip, lsr #23
    8a70:	00008bac 	andeq	r8, r0, ip, lsr #23
    8a74:	00008bac 	andeq	r8, r0, ip, lsr #23
    8a78:	00008bac 	andeq	r8, r0, ip, lsr #23
    8a7c:	00008b78 	andeq	r8, r0, r8, ror fp
    8a80:	00008bac 	andeq	r8, r0, ip, lsr #23
    8a84:	00008aa0 	andeq	r8, r0, r0, lsr #21
    8a88:	00008bac 	andeq	r8, r0, ip, lsr #23
    8a8c:	00008bac 	andeq	r8, r0, ip, lsr #23
    8a90:	00008bac 	andeq	r8, r0, ip, lsr #23
    8a94:	00008bac 	andeq	r8, r0, ip, lsr #23
    8a98:	00008bac 	andeq	r8, r0, ip, lsr #23
    8a9c:	00008b1c 	andeq	r8, r0, ip, lsl fp
    8aa0:	e59d005c 	ldr	r0, [sp, #92]	; 0x5c
    8aa4:	e2900000 	adds	r0, r0, #0
    8aa8:	13a00001 	movne	r0, #1
    8aac:	e0100fa3 	ands	r0, r0, r3, lsr #31
    8ab0:	0a000003 	beq	8ac4 <emit+0x90>
    8ab4:	e2631000 	rsb	r1, r3, #0
    8ab8:	e3a07001 	mov	r7, #1
    8abc:	e1a0c00d 	mov	ip, sp
    8ac0:	ea000002 	b	8ad0 <emit+0x9c>
    8ac4:	e3a07000 	mov	r7, #0
    8ac8:	eafffffb 	b	8abc <emit+0x88>
    8acc:	e1a0c000 	mov	ip, r0
    8ad0:	e28c0001 	add	r0, ip, #1
    8ad4:	e59f30ec 	ldr	r3, [pc, #236]	; 8bc8 <emit+0x194>
    8ad8:	e083e193 	umull	lr, r3, r3, r1
    8adc:	e1a031a3 	lsr	r3, r3, #3
    8ae0:	e1a0e003 	mov	lr, r3
    8ae4:	e0833103 	add	r3, r3, r3, lsl #2
    8ae8:	e1a06083 	lsl	r6, r3, #1
    8aec:	e0413006 	sub	r3, r1, r6
    8af0:	e59f10d4 	ldr	r1, [pc, #212]	; 8bcc <emit+0x198>
    8af4:	e7d13003 	ldrb	r3, [r1, r3]
    8af8:	e5cc3000 	strb	r3, [ip]
    8afc:	e1a0100e 	mov	r1, lr
    8b00:	e35e0000 	cmp	lr, #0
    8b04:	1afffff0 	bne	8acc <emit+0x98>
    8b08:	e3570000 	cmp	r7, #0
    8b0c:	13a0302d 	movne	r3, #45	; 0x2d
    8b10:	15c03000 	strbne	r3, [r0]
    8b14:	128c0002 	addne	r0, ip, #2
    8b18:	ea00000d 	b	8b54 <emit+0x120>
    8b1c:	e1a0300d 	mov	r3, sp
    8b20:	e283c001 	add	ip, r3, #1
    8b24:	e201000f 	and	r0, r1, #15
    8b28:	e59fe0a0 	ldr	lr, [pc, #160]	; 8bd0 <emit+0x19c>
    8b2c:	e7de0000 	ldrb	r0, [lr, r0]
    8b30:	e5c30000 	strb	r0, [r3]
    8b34:	e1a0300c 	mov	r3, ip
    8b38:	e1b01221 	lsrs	r1, r1, #4
    8b3c:	1afffff7 	bne	8b20 <emit+0xec>
    8b40:	e1a0000c 	mov	r0, ip
    8b44:	e3a03078 	mov	r3, #120	; 0x78
    8b48:	e4c03002 	strb	r3, [r0], #2
    8b4c:	e3a03030 	mov	r3, #48	; 0x30
    8b50:	e5cc3001 	strb	r3, [ip, #1]
    8b54:	e1a0100d 	mov	r1, sp
    8b58:	ebffff9a 	bl	89c8 <pad>
    8b5c:	e1a0300d 	mov	r3, sp
    8b60:	e1a02000 	mov	r2, r0
    8b64:	e1a01004 	mov	r1, r4
    8b68:	e1a00005 	mov	r0, r5
    8b6c:	ebffffa0 	bl	89f4 <reverse>
    8b70:	e28dd044 	add	sp, sp, #68	; 0x44
    8b74:	e8bd80f0 	pop	{r4, r5, r6, r7, pc}
    8b78:	e5cd3000 	strb	r3, [sp]
    8b7c:	e28d0001 	add	r0, sp, #1
    8b80:	eafffff3 	b	8b54 <emit+0x120>
    8b84:	e1a0300d 	mov	r3, sp
    8b88:	e2830001 	add	r0, r3, #1
    8b8c:	e201c001 	and	ip, r1, #1
    8b90:	e59fe03c 	ldr	lr, [pc, #60]	; 8bd4 <emit+0x1a0>
    8b94:	e7dec00c 	ldrb	ip, [lr, ip]
    8b98:	e5c3c000 	strb	ip, [r3]
    8b9c:	e1a03000 	mov	r3, r0
    8ba0:	e1b010a1 	lsrs	r1, r1, #1
    8ba4:	1afffff7 	bne	8b88 <emit+0x154>
    8ba8:	eaffffe9 	b	8b54 <emit+0x120>
    8bac:	eb00011d 	bl	9028 <rpi_reset_putc>
    8bb0:	e3a03077 	mov	r3, #119	; 0x77
    8bb4:	e59f201c 	ldr	r2, [pc, #28]	; 8bd8 <emit+0x1a4>
    8bb8:	e59f101c 	ldr	r1, [pc, #28]	; 8bdc <emit+0x1a8>
    8bbc:	e59f001c 	ldr	r0, [pc, #28]	; 8be0 <emit+0x1ac>
    8bc0:	ebffff65 	bl	895c <printk>
    8bc4:	eb000154 	bl	911c <clean_reboot>
    8bc8:	cccccccd 	stclgt	12, cr12, [ip], {205}	; 0xcd
    8bcc:	00009a38 	andeq	r9, r0, r8, lsr sl
    8bd0:	00009a44 	andeq	r9, r0, r4, asr #20
    8bd4:	00009a58 	andeq	r9, r0, r8, asr sl
    8bd8:	000099ec 	andeq	r9, r0, ip, ror #19
    8bdc:	00009a10 	andeq	r9, r0, r0, lsl sl
    8be0:	00009a24 	andeq	r9, r0, r4, lsr #20

00008be4 <rpi_set_output>:
    8be4:	e3500000 	cmp	r0, #0
    8be8:	0a000005 	beq	8c04 <rpi_set_output+0x20>
    8bec:	e59f3030 	ldr	r3, [pc, #48]	; 8c24 <rpi_set_output+0x40>
    8bf0:	e5830000 	str	r0, [r3]
    8bf4:	e3510000 	cmp	r1, #0
    8bf8:	159f3028 	ldrne	r3, [pc, #40]	; 8c28 <rpi_set_output+0x44>
    8bfc:	15831000 	strne	r1, [r3]
    8c00:	e12fff1e 	bx	lr
    8c04:	e92d4010 	push	{r4, lr}
    8c08:	eb000106 	bl	9028 <rpi_reset_putc>
    8c0c:	e3a03020 	mov	r3, #32
    8c10:	e59f2014 	ldr	r2, [pc, #20]	; 8c2c <rpi_set_output+0x48>
    8c14:	e59f1014 	ldr	r1, [pc, #20]	; 8c30 <rpi_set_output+0x4c>
    8c18:	e59f0014 	ldr	r0, [pc, #20]	; 8c34 <rpi_set_output+0x50>
    8c1c:	ebffff4e 	bl	895c <printk>
    8c20:	eb00013d 	bl	911c <clean_reboot>
    8c24:	00009660 	andeq	r9, r0, r0, ror #12
    8c28:	0000965c 	andeq	r9, r0, ip, asr r6
    8c2c:	000099f4 	strdeq	r9, [r0], -r4
    8c30:	00009a10 	andeq	r9, r0, r0, lsl sl
    8c34:	00009a5c 	andeq	r9, r0, ip, asr sl

00008c38 <va_printk>:
    8c38:	e92d43f0 	push	{r4, r5, r6, r7, r8, r9, lr}
    8c3c:	e24dd094 	sub	sp, sp, #148	; 0x94
    8c40:	e1a09000 	mov	r9, r0
    8c44:	e58d300c 	str	r3, [sp, #12]
    8c48:	e2411001 	sub	r1, r1, #1
    8c4c:	e0808001 	add	r8, r0, r1
    8c50:	e3a03000 	mov	r3, #0
    8c54:	e5c03000 	strb	r3, [r0]
    8c58:	e1a06000 	mov	r6, r0
    8c5c:	e5d23000 	ldrb	r3, [r2]
    8c60:	e3530000 	cmp	r3, #0
    8c64:	0a000098 	beq	8ecc <va_printk+0x294>
    8c68:	e1560008 	cmp	r6, r8
    8c6c:	2a000096 	bcs	8ecc <va_printk+0x294>
    8c70:	e3530025 	cmp	r3, #37	; 0x25
    8c74:	12822001 	addne	r2, r2, #1
    8c78:	15c63000 	strbne	r3, [r6]
    8c7c:	12866001 	addne	r6, r6, #1
    8c80:	1afffff5 	bne	8c5c <va_printk+0x24>
    8c84:	e5d21001 	ldrb	r1, [r2, #1]
    8c88:	e3510025 	cmp	r1, #37	; 0x25
    8c8c:	12825001 	addne	r5, r2, #1
    8c90:	13a04000 	movne	r4, #0
    8c94:	1a000008 	bne	8cbc <va_printk+0x84>
    8c98:	e5c63000 	strb	r3, [r6]
    8c9c:	e2822002 	add	r2, r2, #2
    8ca0:	e2866001 	add	r6, r6, #1
    8ca4:	eaffffec 	b	8c5c <va_printk+0x24>
    8ca8:	e0844104 	add	r4, r4, r4, lsl #2
    8cac:	e1a03084 	lsl	r3, r4, #1
    8cb0:	e0834007 	add	r4, r3, r7
    8cb4:	e2444030 	sub	r4, r4, #48	; 0x30
    8cb8:	e2855001 	add	r5, r5, #1
    8cbc:	e5d57000 	ldrb	r7, [r5]
    8cc0:	e1a00007 	mov	r0, r7
    8cc4:	ebffff3a 	bl	89b4 <isdigit>
    8cc8:	e3500000 	cmp	r0, #0
    8ccc:	1afffff5 	bne	8ca8 <va_printk+0x70>
    8cd0:	e354001f 	cmp	r4, #31
    8cd4:	8a00001a 	bhi	8d44 <va_printk+0x10c>
    8cd8:	e2477062 	sub	r7, r7, #98	; 0x62
    8cdc:	e3570016 	cmp	r7, #22
    8ce0:	979ff107 	ldrls	pc, [pc, r7, lsl #2]
    8ce4:	ea000066 	b	8e84 <va_printk+0x24c>
    8ce8:	00008e10 	andeq	r8, r0, r0, lsl lr
    8cec:	00008e54 	andeq	r8, r0, r4, asr lr
    8cf0:	00008d7c 	andeq	r8, r0, ip, ror sp
    8cf4:	00008e84 	andeq	r8, r0, r4, lsl #29
    8cf8:	00008d60 	andeq	r8, r0, r0, ror #26
    8cfc:	00008e84 	andeq	r8, r0, r4, lsl #29
    8d00:	00008e84 	andeq	r8, r0, r4, lsl #29
    8d04:	00008e84 	andeq	r8, r0, r4, lsl #29
    8d08:	00008e84 	andeq	r8, r0, r4, lsl #29
    8d0c:	00008e84 	andeq	r8, r0, r4, lsl #29
    8d10:	00008e84 	andeq	r8, r0, r4, lsl #29
    8d14:	00008e84 	andeq	r8, r0, r4, lsl #29
    8d18:	00008e84 	andeq	r8, r0, r4, lsl #29
    8d1c:	00008e84 	andeq	r8, r0, r4, lsl #29
    8d20:	00008de0 	andeq	r8, r0, r0, ror #27
    8d24:	00008e84 	andeq	r8, r0, r4, lsl #29
    8d28:	00008e84 	andeq	r8, r0, r4, lsl #29
    8d2c:	00008e40 	andeq	r8, r0, r0, asr #28
    8d30:	00008e84 	andeq	r8, r0, r4, lsl #29
    8d34:	00008db0 			; <UNDEFINED> instruction: 0x00008db0
    8d38:	00008e84 	andeq	r8, r0, r4, lsl #29
    8d3c:	00008e84 	andeq	r8, r0, r4, lsl #29
    8d40:	00008de0 	andeq	r8, r0, r0, ror #27
    8d44:	eb0000b7 	bl	9028 <rpi_reset_putc>
    8d48:	e3a03094 	mov	r3, #148	; 0x94
    8d4c:	e59f2190 	ldr	r2, [pc, #400]	; 8ee4 <va_printk+0x2ac>
    8d50:	e59f1190 	ldr	r1, [pc, #400]	; 8ee8 <va_printk+0x2b0>
    8d54:	e59f0190 	ldr	r0, [pc, #400]	; 8eec <va_printk+0x2b4>
    8d58:	ebfffeff 	bl	895c <printk>
    8d5c:	eb0000ee 	bl	911c <clean_reboot>
    8d60:	eb0000b0 	bl	9028 <rpi_reset_putc>
    8d64:	e3a0309a 	mov	r3, #154	; 0x9a
    8d68:	e59f2174 	ldr	r2, [pc, #372]	; 8ee4 <va_printk+0x2ac>
    8d6c:	e59f1174 	ldr	r1, [pc, #372]	; 8ee8 <va_printk+0x2b0>
    8d70:	e59f0178 	ldr	r0, [pc, #376]	; 8ef0 <va_printk+0x2b8>
    8d74:	ebfffef8 	bl	895c <printk>
    8d78:	eb0000e7 	bl	911c <clean_reboot>
    8d7c:	e59d300c 	ldr	r3, [sp, #12]
    8d80:	e2832004 	add	r2, r3, #4
    8d84:	e58d200c 	str	r2, [sp, #12]
    8d88:	e5933000 	ldr	r3, [r3]
    8d8c:	e3a02001 	mov	r2, #1
    8d90:	e58d2004 	str	r2, [sp, #4]
    8d94:	e58d4000 	str	r4, [sp]
    8d98:	e3a02080 	mov	r2, #128	; 0x80
    8d9c:	e28d1010 	add	r1, sp, #16
    8da0:	e3a0000a 	mov	r0, #10
    8da4:	ebffff22 	bl	8a34 <emit>
    8da8:	e2852001 	add	r2, r5, #1
    8dac:	ea000040 	b	8eb4 <va_printk+0x27c>
    8db0:	e59d300c 	ldr	r3, [sp, #12]
    8db4:	e2832004 	add	r2, r3, #4
    8db8:	e58d200c 	str	r2, [sp, #12]
    8dbc:	e5933000 	ldr	r3, [r3]
    8dc0:	e3a02000 	mov	r2, #0
    8dc4:	e58d2004 	str	r2, [sp, #4]
    8dc8:	e58d4000 	str	r4, [sp]
    8dcc:	e3a02080 	mov	r2, #128	; 0x80
    8dd0:	e28d1010 	add	r1, sp, #16
    8dd4:	e3a0000a 	mov	r0, #10
    8dd8:	ebffff15 	bl	8a34 <emit>
    8ddc:	eafffff1 	b	8da8 <va_printk+0x170>
    8de0:	e59d300c 	ldr	r3, [sp, #12]
    8de4:	e2832004 	add	r2, r3, #4
    8de8:	e58d200c 	str	r2, [sp, #12]
    8dec:	e5933000 	ldr	r3, [r3]
    8df0:	e3a02000 	mov	r2, #0
    8df4:	e58d2004 	str	r2, [sp, #4]
    8df8:	e58d4000 	str	r4, [sp]
    8dfc:	e3a02080 	mov	r2, #128	; 0x80
    8e00:	e28d1010 	add	r1, sp, #16
    8e04:	e3a00010 	mov	r0, #16
    8e08:	ebffff09 	bl	8a34 <emit>
    8e0c:	eaffffe5 	b	8da8 <va_printk+0x170>
    8e10:	e59d300c 	ldr	r3, [sp, #12]
    8e14:	e2832004 	add	r2, r3, #4
    8e18:	e58d200c 	str	r2, [sp, #12]
    8e1c:	e5933000 	ldr	r3, [r3]
    8e20:	e3a02000 	mov	r2, #0
    8e24:	e58d2004 	str	r2, [sp, #4]
    8e28:	e58d4000 	str	r4, [sp]
    8e2c:	e3a02080 	mov	r2, #128	; 0x80
    8e30:	e28d1010 	add	r1, sp, #16
    8e34:	e3a00002 	mov	r0, #2
    8e38:	ebfffefd 	bl	8a34 <emit>
    8e3c:	eaffffd9 	b	8da8 <va_printk+0x170>
    8e40:	e59d300c 	ldr	r3, [sp, #12]
    8e44:	e2832004 	add	r2, r3, #4
    8e48:	e58d200c 	str	r2, [sp, #12]
    8e4c:	e5930000 	ldr	r0, [r3]
    8e50:	eaffffd4 	b	8da8 <va_printk+0x170>
    8e54:	e59d300c 	ldr	r3, [sp, #12]
    8e58:	e2832004 	add	r2, r3, #4
    8e5c:	e58d200c 	str	r2, [sp, #12]
    8e60:	e5933000 	ldr	r3, [r3]
    8e64:	e3a02000 	mov	r2, #0
    8e68:	e58d2004 	str	r2, [sp, #4]
    8e6c:	e58d4000 	str	r4, [sp]
    8e70:	e3a02080 	mov	r2, #128	; 0x80
    8e74:	e28d1010 	add	r1, sp, #16
    8e78:	e3a00008 	mov	r0, #8
    8e7c:	ebfffeec 	bl	8a34 <emit>
    8e80:	eaffffc8 	b	8da8 <va_printk+0x170>
    8e84:	eb000067 	bl	9028 <rpi_reset_putc>
    8e88:	e5d53000 	ldrb	r3, [r5]
    8e8c:	e58d3000 	str	r3, [sp]
    8e90:	e3a030bb 	mov	r3, #187	; 0xbb
    8e94:	e59f2048 	ldr	r2, [pc, #72]	; 8ee4 <va_printk+0x2ac>
    8e98:	e59f1048 	ldr	r1, [pc, #72]	; 8ee8 <va_printk+0x2b0>
    8e9c:	e59f0050 	ldr	r0, [pc, #80]	; 8ef4 <va_printk+0x2bc>
    8ea0:	ebfffead 	bl	895c <printk>
    8ea4:	eb00009c 	bl	911c <clean_reboot>
    8ea8:	e2800001 	add	r0, r0, #1
    8eac:	e5c63000 	strb	r3, [r6]
    8eb0:	e2866001 	add	r6, r6, #1
    8eb4:	e1560008 	cmp	r6, r8
    8eb8:	2affff67 	bcs	8c5c <va_printk+0x24>
    8ebc:	e5d03000 	ldrb	r3, [r0]
    8ec0:	e3530000 	cmp	r3, #0
    8ec4:	1afffff7 	bne	8ea8 <va_printk+0x270>
    8ec8:	eaffff63 	b	8c5c <va_printk+0x24>
    8ecc:	e2860001 	add	r0, r6, #1
    8ed0:	e3a03000 	mov	r3, #0
    8ed4:	e5c63000 	strb	r3, [r6]
    8ed8:	e0400009 	sub	r0, r0, r9
    8edc:	e28dd094 	add	sp, sp, #148	; 0x94
    8ee0:	e8bd83f0 	pop	{r4, r5, r6, r7, r8, r9, pc}
    8ee4:	00009a04 	andeq	r9, r0, r4, lsl #20
    8ee8:	00009a10 	andeq	r9, r0, r0, lsl sl
    8eec:	00009a74 	andeq	r9, r0, r4, ror sl
    8ef0:	00009a90 	muleq	r0, r0, sl
    8ef4:	00009ab8 			; <UNDEFINED> instruction: 0x00009ab8

00008ef8 <fast_hash>:
    8ef8:	e3500000 	cmp	r0, #0
    8efc:	13510000 	cmpne	r1, #0
    8f00:	da000034 	ble	8fd8 <fast_hash+0xe0>
    8f04:	e52de004 	push	{lr}		; (str lr, [sp, #-4]!)
    8f08:	e1a03001 	mov	r3, r1
    8f0c:	e201e003 	and	lr, r1, #3
    8f10:	e1a01141 	asr	r1, r1, #2
    8f14:	ea00000b 	b	8f48 <fast_hash+0x50>
    8f18:	e5d0c001 	ldrb	ip, [r0, #1]
    8f1c:	e5d02000 	ldrb	r2, [r0]
    8f20:	e082240c 	add	r2, r2, ip, lsl #8
    8f24:	e0832002 	add	r2, r3, r2
    8f28:	e5d0c003 	ldrb	ip, [r0, #3]
    8f2c:	e5d03002 	ldrb	r3, [r0, #2]
    8f30:	e083340c 	add	r3, r3, ip, lsl #8
    8f34:	e0223583 	eor	r3, r2, r3, lsl #11
    8f38:	e0233802 	eor	r3, r3, r2, lsl #16
    8f3c:	e2800004 	add	r0, r0, #4
    8f40:	e08335a3 	add	r3, r3, r3, lsr #11
    8f44:	e2411001 	sub	r1, r1, #1
    8f48:	e3510000 	cmp	r1, #0
    8f4c:	cafffff1 	bgt	8f18 <fast_hash+0x20>
    8f50:	e35e0002 	cmp	lr, #2
    8f54:	0a000013 	beq	8fa8 <fast_hash+0xb0>
    8f58:	e35e0003 	cmp	lr, #3
    8f5c:	0a000008 	beq	8f84 <fast_hash+0x8c>
    8f60:	e35e0001 	cmp	lr, #1
    8f64:	0a000016 	beq	8fc4 <fast_hash+0xcc>
    8f68:	e0230183 	eor	r0, r3, r3, lsl #3
    8f6c:	e08002a0 	add	r0, r0, r0, lsr #5
    8f70:	e0200200 	eor	r0, r0, r0, lsl #4
    8f74:	e08008a0 	add	r0, r0, r0, lsr #17
    8f78:	e0200c80 	eor	r0, r0, r0, lsl #25
    8f7c:	e0800320 	add	r0, r0, r0, lsr #6
    8f80:	e49df004 	pop	{pc}		; (ldr pc, [sp], #4)
    8f84:	e5d01001 	ldrb	r1, [r0, #1]
    8f88:	e5d02000 	ldrb	r2, [r0]
    8f8c:	e0822401 	add	r2, r2, r1, lsl #8
    8f90:	e0833002 	add	r3, r3, r2
    8f94:	e0233803 	eor	r3, r3, r3, lsl #16
    8f98:	e1d020d2 	ldrsb	r2, [r0, #2]
    8f9c:	e0233902 	eor	r3, r3, r2, lsl #18
    8fa0:	e08335a3 	add	r3, r3, r3, lsr #11
    8fa4:	eaffffef 	b	8f68 <fast_hash+0x70>
    8fa8:	e5d01001 	ldrb	r1, [r0, #1]
    8fac:	e5d02000 	ldrb	r2, [r0]
    8fb0:	e0822401 	add	r2, r2, r1, lsl #8
    8fb4:	e0833002 	add	r3, r3, r2
    8fb8:	e0233583 	eor	r3, r3, r3, lsl #11
    8fbc:	e08338a3 	add	r3, r3, r3, lsr #17
    8fc0:	eaffffe8 	b	8f68 <fast_hash+0x70>
    8fc4:	e1d020d0 	ldrsb	r2, [r0]
    8fc8:	e0833002 	add	r3, r3, r2
    8fcc:	e0233503 	eor	r3, r3, r3, lsl #10
    8fd0:	e08330a3 	add	r3, r3, r3, lsr #1
    8fd4:	eaffffe3 	b	8f68 <fast_hash+0x70>
    8fd8:	e3a00000 	mov	r0, #0
    8fdc:	e12fff1e 	bx	lr

00008fe0 <internal_putk>:
    8fe0:	e92d4010 	push	{r4, lr}
    8fe4:	e1a04000 	mov	r4, r0
    8fe8:	ea000003 	b	8ffc <internal_putk+0x1c>
    8fec:	e59f301c 	ldr	r3, [pc, #28]	; 9010 <internal_putk+0x30>
    8ff0:	e5933000 	ldr	r3, [r3]
    8ff4:	e12fff33 	blx	r3
    8ff8:	e2844001 	add	r4, r4, #1
    8ffc:	e5d40000 	ldrb	r0, [r4]
    9000:	e3500000 	cmp	r0, #0
    9004:	1afffff8 	bne	8fec <internal_putk+0xc>
    9008:	e3a00001 	mov	r0, #1
    900c:	e8bd8010 	pop	{r4, pc}
    9010:	00009660 	andeq	r9, r0, r0, ror #12

00009014 <internal_putchar>:
    9014:	e92d4010 	push	{r4, lr}
    9018:	e1a04000 	mov	r4, r0
    901c:	eb0000cb 	bl	9350 <uart_putc>
    9020:	e1a00004 	mov	r0, r4
    9024:	e8bd8010 	pop	{r4, pc}

00009028 <rpi_reset_putc>:
    9028:	e59f2008 	ldr	r2, [pc, #8]	; 9038 <rpi_reset_putc+0x10>
    902c:	e59f3008 	ldr	r3, [pc, #8]	; 903c <rpi_reset_putc+0x14>
    9030:	e5832000 	str	r2, [r3]
    9034:	e12fff1e 	bx	lr
    9038:	00009014 	andeq	r9, r0, r4, lsl r0
    903c:	00009660 	andeq	r9, r0, r0, ror #12

00009040 <rpi_set_putc>:
    9040:	e59f3004 	ldr	r3, [pc, #4]	; 904c <rpi_set_putc+0xc>
    9044:	e5830000 	str	r0, [r3]
    9048:	e12fff1e 	bx	lr
    904c:	00009660 	andeq	r9, r0, r0, ror #12

00009050 <memset>:
    9050:	e0802002 	add	r2, r0, r2
    9054:	e1a03000 	mov	r3, r0
    9058:	ea000001 	b	9064 <memset+0x14>
    905c:	e5c31000 	strb	r1, [r3]
    9060:	e2833001 	add	r3, r3, #1
    9064:	e1530002 	cmp	r3, r2
    9068:	3afffffb 	bcc	905c <memset+0xc>
    906c:	e12fff1e 	bx	lr

00009070 <_cstart>:
    9070:	e92d4010 	push	{r4, lr}
    9074:	e59f3020 	ldr	r3, [pc, #32]	; 909c <_cstart+0x2c>
    9078:	ea000002 	b	9088 <_cstart+0x18>
    907c:	e3a02000 	mov	r2, #0
    9080:	e5832000 	str	r2, [r3]
    9084:	e2833004 	add	r3, r3, #4
    9088:	e59f2010 	ldr	r2, [pc, #16]	; 90a0 <_cstart+0x30>
    908c:	e1530002 	cmp	r3, r2
    9090:	3afffff9 	bcc	907c <_cstart+0xc>
    9094:	ebfffbdd 	bl	8010 <notmain>
    9098:	eb00001f 	bl	911c <clean_reboot>
    909c:	00009c1c 	andeq	r9, r0, ip, lsl ip
    90a0:	0000a028 	andeq	sl, r0, r8, lsr #32

000090a4 <at_user_level>:
    90a4:	e10f0000 	mrs	r0, CPSR
    90a8:	e200001f 	and	r0, r0, #31
    90ac:	e3500010 	cmp	r0, #16
    90b0:	13a00000 	movne	r0, #0
    90b4:	03a00001 	moveq	r0, #1
    90b8:	e12fff1e 	bx	lr

000090bc <set_user_level>:
    90bc:	e10f3000 	mrs	r3, CPSR
    90c0:	e3c3301f 	bic	r3, r3, #31
    90c4:	e3833010 	orr	r3, r3, #16
    90c8:	e129f003 	msr	CPSR_fc, r3
    90cc:	e12fff1e 	bx	lr

000090d0 <rpi_reboot>:
    90d0:	e92d4010 	push	{r4, lr}
    90d4:	ebfffff2 	bl	90a4 <at_user_level>
    90d8:	e3500000 	cmp	r0, #0
    90dc:	1a000008 	bne	9104 <rpi_reboot+0x34>
    90e0:	e3a0001e 	mov	r0, #30
    90e4:	eb00002e 	bl	91a4 <delay_ms>
    90e8:	e59f101c 	ldr	r1, [pc, #28]	; 910c <rpi_reboot+0x3c>
    90ec:	e59f001c 	ldr	r0, [pc, #28]	; 9110 <rpi_reboot+0x40>
    90f0:	eb000037 	bl	91d4 <PUT32>
    90f4:	e59f1018 	ldr	r1, [pc, #24]	; 9114 <rpi_reboot+0x44>
    90f8:	e59f0018 	ldr	r0, [pc, #24]	; 9118 <rpi_reboot+0x48>
    90fc:	eb000034 	bl	91d4 <PUT32>
    9100:	eafffffe 	b	9100 <rpi_reboot+0x30>
    9104:	ebffffec 	bl	90bc <set_user_level>
    9108:	eafffff4 	b	90e0 <rpi_reboot+0x10>
    910c:	5a000001 	bpl	9118 <rpi_reboot+0x48>
    9110:	20100024 	andscs	r0, r0, r4, lsr #32
    9114:	5a000020 	bpl	919c <delay_us+0x1c>
    9118:	2010001c 	andscs	r0, r0, ip, lsl r0

0000911c <clean_reboot>:
    911c:	e92d4010 	push	{r4, lr}
    9120:	e59f3014 	ldr	r3, [pc, #20]	; 913c <clean_reboot+0x20>
    9124:	e5933000 	ldr	r3, [r3]
    9128:	e59f0010 	ldr	r0, [pc, #16]	; 9140 <clean_reboot+0x24>
    912c:	e12fff33 	blx	r3
    9130:	e3a00064 	mov	r0, #100	; 0x64
    9134:	eb00001a 	bl	91a4 <delay_ms>
    9138:	ebffffe4 	bl	90d0 <rpi_reboot>
    913c:	0000965c 	andeq	r9, r0, ip, asr r6
    9140:	00009af0 	strdeq	r9, [r0], -r0

00009144 <delay_cycles>:
    9144:	ea000001 	b	9150 <delay_cycles+0xc>
    9148:	e2811000 	add	r1, r1, #0
    914c:	e1a00003 	mov	r0, r3
    9150:	e2403001 	sub	r3, r0, #1
    9154:	e3500000 	cmp	r0, #0
    9158:	1afffffa 	bne	9148 <delay_cycles+0x4>
    915c:	e12fff1e 	bx	lr

00009160 <timer_get_usec_raw>:
    9160:	e92d4010 	push	{r4, lr}
    9164:	e59f0004 	ldr	r0, [pc, #4]	; 9170 <timer_get_usec_raw+0x10>
    9168:	eb000025 	bl	9204 <GET32>
    916c:	e8bd8010 	pop	{r4, pc}
    9170:	20003004 	andcs	r3, r0, r4

00009174 <timer_get_usec>:
    9174:	e92d4010 	push	{r4, lr}
    9178:	ebfffff8 	bl	9160 <timer_get_usec_raw>
    917c:	e8bd8010 	pop	{r4, pc}

00009180 <delay_us>:
    9180:	e92d4070 	push	{r4, r5, r6, lr}
    9184:	e1a05000 	mov	r5, r0
    9188:	ebfffff9 	bl	9174 <timer_get_usec>
    918c:	e1a04000 	mov	r4, r0
    9190:	ebfffff7 	bl	9174 <timer_get_usec>
    9194:	e0400004 	sub	r0, r0, r4
    9198:	e1500005 	cmp	r0, r5
    919c:	3afffffb 	bcc	9190 <delay_us+0x10>
    91a0:	e8bd8070 	pop	{r4, r5, r6, pc}

000091a4 <delay_ms>:
    91a4:	e92d4010 	push	{r4, lr}
    91a8:	e3a03ffa 	mov	r3, #1000	; 0x3e8
    91ac:	e0000093 	mul	r0, r3, r0
    91b0:	ebfffff2 	bl	9180 <delay_us>
    91b4:	e8bd8010 	pop	{r4, pc}

000091b8 <delay_sec>:
    91b8:	e92d4010 	push	{r4, lr}
    91bc:	e3a03ffa 	mov	r3, #1000	; 0x3e8
    91c0:	e0000093 	mul	r0, r3, r0
    91c4:	ebfffff6 	bl	91a4 <delay_ms>
    91c8:	e8bd8010 	pop	{r4, pc}

000091cc <put32>:
    91cc:	e5801000 	str	r1, [r0]
    91d0:	e12fff1e 	bx	lr

000091d4 <PUT32>:
    91d4:	e5801000 	str	r1, [r0]
    91d8:	e12fff1e 	bx	lr

000091dc <put16>:
    91dc:	e1c010b0 	strh	r1, [r0]
    91e0:	e12fff1e 	bx	lr

000091e4 <PUT16>:
    91e4:	e1c010b0 	strh	r1, [r0]
    91e8:	e12fff1e 	bx	lr

000091ec <put8>:
    91ec:	e5c01000 	strb	r1, [r0]
    91f0:	e12fff1e 	bx	lr

000091f4 <PUT8>:
    91f4:	e5c01000 	strb	r1, [r0]
    91f8:	e12fff1e 	bx	lr

000091fc <get32>:
    91fc:	e5900000 	ldr	r0, [r0]
    9200:	e12fff1e 	bx	lr

00009204 <GET32>:
    9204:	e5900000 	ldr	r0, [r0]
    9208:	e12fff1e 	bx	lr

0000920c <GETPC>:
    920c:	e1a0000e 	mov	r0, lr
    9210:	e12fff1e 	bx	lr

00009214 <dummy>:
    9214:	e12fff1e 	bx	lr

00009218 <or_in32>:
    9218:	e92d4070 	push	{r4, r5, r6, lr}
    921c:	e1a04000 	mov	r4, r0
    9220:	e1a05001 	mov	r5, r1
    9224:	ebfffff4 	bl	91fc <get32>
    9228:	e1801005 	orr	r1, r0, r5
    922c:	e1a00004 	mov	r0, r4
    9230:	ebffffe5 	bl	91cc <put32>
    9234:	e8bd8070 	pop	{r4, r5, r6, pc}

00009238 <uart_init>:
    9238:	e92d4010 	push	{r4, lr}
    923c:	e3a01002 	mov	r1, #2
    9240:	e3a0000e 	mov	r0, #14
    9244:	eb000051 	bl	9390 <gpio_set_function>
    9248:	e3a01002 	mov	r1, #2
    924c:	e3a0000f 	mov	r0, #15
    9250:	eb00004e 	bl	9390 <gpio_set_function>
    9254:	eb0000fa 	bl	9644 <dev_barrier>
    9258:	e3a01001 	mov	r1, #1
    925c:	e59f0064 	ldr	r0, [pc, #100]	; 92c8 <uart_init+0x90>
    9260:	ebffffec 	bl	9218 <or_in32>
    9264:	eb0000f6 	bl	9644 <dev_barrier>
    9268:	e59f405c 	ldr	r4, [pc, #92]	; 92cc <uart_init+0x94>
    926c:	e3a01000 	mov	r1, #0
    9270:	e1a00004 	mov	r0, r4
    9274:	ebffffd4 	bl	91cc <put32>
    9278:	e3a01000 	mov	r1, #0
    927c:	e59f004c 	ldr	r0, [pc, #76]	; 92d0 <uart_init+0x98>
    9280:	ebffffd1 	bl	91cc <put32>
    9284:	e3a01003 	mov	r1, #3
    9288:	e59f0044 	ldr	r0, [pc, #68]	; 92d4 <uart_init+0x9c>
    928c:	ebffffce 	bl	91cc <put32>
    9290:	e3a01000 	mov	r1, #0
    9294:	e59f003c 	ldr	r0, [pc, #60]	; 92d8 <uart_init+0xa0>
    9298:	ebffffcb 	bl	91cc <put32>
    929c:	e3a010c7 	mov	r1, #199	; 0xc7
    92a0:	e59f0034 	ldr	r0, [pc, #52]	; 92dc <uart_init+0xa4>
    92a4:	ebffffc8 	bl	91cc <put32>
    92a8:	e59f1030 	ldr	r1, [pc, #48]	; 92e0 <uart_init+0xa8>
    92ac:	e59f0030 	ldr	r0, [pc, #48]	; 92e4 <uart_init+0xac>
    92b0:	ebffffc5 	bl	91cc <put32>
    92b4:	e3a01003 	mov	r1, #3
    92b8:	e1a00004 	mov	r0, r4
    92bc:	ebffffc2 	bl	91cc <put32>
    92c0:	eb0000df 	bl	9644 <dev_barrier>
    92c4:	e8bd8010 	pop	{r4, pc}
    92c8:	20215004 	eorcs	r5, r1, r4
    92cc:	20215060 	eorcs	r5, r1, r0, rrx
    92d0:	20215044 	eorcs	r5, r1, r4, asr #32
    92d4:	2021504c 	eorcs	r5, r1, ip, asr #32
    92d8:	20215050 	eorcs	r5, r1, r0, asr r0
    92dc:	20215048 	eorcs	r5, r1, r8, asr #32
    92e0:	0000010e 	andeq	r0, r0, lr, lsl #2
    92e4:	20215068 	eorcs	r5, r1, r8, rrx

000092e8 <uart_can_getc>:
    92e8:	e92d4010 	push	{r4, lr}
    92ec:	e59f0008 	ldr	r0, [pc, #8]	; 92fc <uart_can_getc+0x14>
    92f0:	ebffffc1 	bl	91fc <get32>
    92f4:	e2000001 	and	r0, r0, #1
    92f8:	e8bd8010 	pop	{r4, pc}
    92fc:	20215064 	eorcs	r5, r1, r4, rrx

00009300 <uart_can_putc>:
    9300:	e92d4010 	push	{r4, lr}
    9304:	e59f0010 	ldr	r0, [pc, #16]	; 931c <uart_can_putc+0x1c>
    9308:	ebffffbb 	bl	91fc <get32>
    930c:	e3100002 	tst	r0, #2
    9310:	13a00001 	movne	r0, #1
    9314:	03a00000 	moveq	r0, #0
    9318:	e8bd8010 	pop	{r4, pc}
    931c:	20215064 	eorcs	r5, r1, r4, rrx

00009320 <uart_getc>:
    9320:	e92d4010 	push	{r4, lr}
    9324:	eb0000c6 	bl	9644 <dev_barrier>
    9328:	ebffffee 	bl	92e8 <uart_can_getc>
    932c:	e3500000 	cmp	r0, #0
    9330:	0afffffc 	beq	9328 <uart_getc+0x8>
    9334:	e59f0010 	ldr	r0, [pc, #16]	; 934c <uart_getc+0x2c>
    9338:	ebffffaf 	bl	91fc <get32>
    933c:	e6ef4070 	uxtb	r4, r0
    9340:	eb0000bf 	bl	9644 <dev_barrier>
    9344:	e1a00004 	mov	r0, r4
    9348:	e8bd8010 	pop	{r4, pc}
    934c:	20215040 	eorcs	r5, r1, r0, asr #32

00009350 <uart_putc>:
    9350:	e92d4010 	push	{r4, lr}
    9354:	e1a04000 	mov	r4, r0
    9358:	eb0000b9 	bl	9644 <dev_barrier>
    935c:	ebffffe7 	bl	9300 <uart_can_putc>
    9360:	e3500000 	cmp	r0, #0
    9364:	0afffffc 	beq	935c <uart_putc+0xc>
    9368:	e6ef1074 	uxtb	r1, r4
    936c:	e59f0008 	ldr	r0, [pc, #8]	; 937c <uart_putc+0x2c>
    9370:	ebffff95 	bl	91cc <put32>
    9374:	eb0000b2 	bl	9644 <dev_barrier>
    9378:	e8bd8010 	pop	{r4, pc}
    937c:	20215040 	eorcs	r5, r1, r0, asr #32

00009380 <uart_has_data>:
    9380:	e92d4010 	push	{r4, lr}
    9384:	eb0000ae 	bl	9644 <dev_barrier>
    9388:	ebffffd6 	bl	92e8 <uart_can_getc>
    938c:	e8bd8010 	pop	{r4, pc}

00009390 <gpio_set_function>:
    9390:	e350001f 	cmp	r0, #31
    9394:	812fff1e 	bxhi	lr
    9398:	e3d13007 	bics	r3, r1, #7
    939c:	112fff1e 	bxne	lr
    93a0:	e92d4070 	push	{r4, r5, r6, lr}
    93a4:	e1a05001 	mov	r5, r1
    93a8:	e59f3044 	ldr	r3, [pc, #68]	; 93f4 <gpio_set_function+0x64>
    93ac:	e0832093 	umull	r2, r3, r3, r0
    93b0:	e1a031a3 	lsr	r3, r3, #3
    93b4:	e1a06003 	mov	r6, r3
    93b8:	e0833103 	add	r3, r3, r3, lsl #2
    93bc:	e1a02083 	lsl	r2, r3, #1
    93c0:	e0403002 	sub	r3, r0, r2
    93c4:	e0834083 	add	r4, r3, r3, lsl #1
    93c8:	e2866302 	add	r6, r6, #134217728	; 0x8000000
    93cc:	e2866702 	add	r6, r6, #524288	; 0x80000
    93d0:	e1a06106 	lsl	r6, r6, #2
    93d4:	e1a00006 	mov	r0, r6
    93d8:	ebffff89 	bl	9204 <GET32>
    93dc:	e3a01007 	mov	r1, #7
    93e0:	e1c01411 	bic	r1, r0, r1, lsl r4
    93e4:	e1811415 	orr	r1, r1, r5, lsl r4
    93e8:	e1a00006 	mov	r0, r6
    93ec:	ebffff78 	bl	91d4 <PUT32>
    93f0:	e8bd8070 	pop	{r4, r5, r6, pc}
    93f4:	cccccccd 	stclgt	12, cr12, [ip], {205}	; 0xcd

000093f8 <gpio_set_output>:
    93f8:	e92d4010 	push	{r4, lr}
    93fc:	e3a01001 	mov	r1, #1
    9400:	ebffffe2 	bl	9390 <gpio_set_function>
    9404:	e8bd8010 	pop	{r4, pc}

00009408 <gpio_set_on>:
    9408:	e350001f 	cmp	r0, #31
    940c:	812fff1e 	bxhi	lr
    9410:	e92d4010 	push	{r4, lr}
    9414:	e3a01001 	mov	r1, #1
    9418:	e1a01011 	lsl	r1, r1, r0
    941c:	e59f0004 	ldr	r0, [pc, #4]	; 9428 <gpio_set_on+0x20>
    9420:	ebffff6b 	bl	91d4 <PUT32>
    9424:	e8bd8010 	pop	{r4, pc}
    9428:	2020001c 	eorcs	r0, r0, ip, lsl r0

0000942c <gpio_set_off>:
    942c:	e350001f 	cmp	r0, #31
    9430:	812fff1e 	bxhi	lr
    9434:	e92d4010 	push	{r4, lr}
    9438:	e3a01001 	mov	r1, #1
    943c:	e1a01011 	lsl	r1, r1, r0
    9440:	e59f0004 	ldr	r0, [pc, #4]	; 944c <gpio_set_off+0x20>
    9444:	ebffff62 	bl	91d4 <PUT32>
    9448:	e8bd8010 	pop	{r4, pc}
    944c:	20200028 	eorcs	r0, r0, r8, lsr #32

00009450 <gpio_set_input>:
    9450:	e92d4010 	push	{r4, lr}
    9454:	e3a01000 	mov	r1, #0
    9458:	ebffffcc 	bl	9390 <gpio_set_function>
    945c:	e8bd8010 	pop	{r4, pc}

00009460 <gpio_write>:
    9460:	e92d4010 	push	{r4, lr}
    9464:	e3510000 	cmp	r1, #0
    9468:	1a000001 	bne	9474 <gpio_write+0x14>
    946c:	ebffffee 	bl	942c <gpio_set_off>
    9470:	e8bd8010 	pop	{r4, pc}
    9474:	ebffffe3 	bl	9408 <gpio_set_on>
    9478:	e8bd8010 	pop	{r4, pc}

0000947c <gpio_read>:
    947c:	e350001f 	cmp	r0, #31
    9480:	8a000007 	bhi	94a4 <gpio_read+0x28>
    9484:	e92d4010 	push	{r4, lr}
    9488:	e200401f 	and	r4, r0, #31
    948c:	e59f3018 	ldr	r3, [pc, #24]	; 94ac <gpio_read+0x30>
    9490:	e08302a0 	add	r0, r3, r0, lsr #5
    9494:	ebffff5a 	bl	9204 <GET32>
    9498:	e1a00430 	lsr	r0, r0, r4
    949c:	e2000001 	and	r0, r0, #1
    94a0:	e8bd8010 	pop	{r4, pc}
    94a4:	e3e00000 	mvn	r0, #0
    94a8:	e12fff1e 	bx	lr
    94ac:	20200034 	eorcs	r0, r0, r4, lsr r0

000094b0 <kmalloc_heap_end>:
    94b0:	e59f3004 	ldr	r3, [pc, #4]	; 94bc <kmalloc_heap_end+0xc>
    94b4:	e5930000 	ldr	r0, [r3]
    94b8:	e12fff1e 	bx	lr
    94bc:	00009664 	andeq	r9, r0, r4, ror #12

000094c0 <kmalloc_heap_start>:
    94c0:	e59f0000 	ldr	r0, [pc]	; 94c8 <kmalloc_heap_start+0x8>
    94c4:	e12fff1e 	bx	lr
    94c8:	0000a028 	andeq	sl, r0, r8, lsr #32

000094cc <kmalloc_init_set_start>:
    94cc:	e59f3038 	ldr	r3, [pc, #56]	; 950c <kmalloc_init_set_start+0x40>
    94d0:	e5933000 	ldr	r3, [r3]
    94d4:	e1500003 	cmp	r0, r3
    94d8:	9a000003 	bls	94ec <kmalloc_init_set_start+0x20>
    94dc:	e59f3028 	ldr	r3, [pc, #40]	; 950c <kmalloc_init_set_start+0x40>
    94e0:	e5830000 	str	r0, [r3]
    94e4:	e5830004 	str	r0, [r3, #4]
    94e8:	e12fff1e 	bx	lr
    94ec:	e92d4010 	push	{r4, lr}
    94f0:	ebfffecc 	bl	9028 <rpi_reset_putc>
    94f4:	e3a03016 	mov	r3, #22
    94f8:	e59f2010 	ldr	r2, [pc, #16]	; 9510 <kmalloc_init_set_start+0x44>
    94fc:	e59f1010 	ldr	r1, [pc, #16]	; 9514 <kmalloc_init_set_start+0x48>
    9500:	e59f0010 	ldr	r0, [pc, #16]	; 9518 <kmalloc_init_set_start+0x4c>
    9504:	ebfffd14 	bl	895c <printk>
    9508:	ebffff03 	bl	911c <clean_reboot>
    950c:	00009664 	andeq	r9, r0, r4, ror #12
    9510:	00009afc 	strdeq	r9, [r0], -ip
    9514:	00009b2c 	andeq	r9, r0, ip, lsr #22
    9518:	00009b38 	andeq	r9, r0, r8, lsr fp

0000951c <kmalloc>:
    951c:	e92d4010 	push	{r4, lr}
    9520:	e3500000 	cmp	r0, #0
    9524:	0a00000a 	beq	9554 <kmalloc+0x38>
    9528:	e2802007 	add	r2, r0, #7
    952c:	e3c22007 	bic	r2, r2, #7
    9530:	e59f3038 	ldr	r3, [pc, #56]	; 9570 <kmalloc+0x54>
    9534:	e5934000 	ldr	r4, [r3]
    9538:	e0841002 	add	r1, r4, r2
    953c:	e5831000 	str	r1, [r3]
    9540:	e3a01000 	mov	r1, #0
    9544:	e1a00004 	mov	r0, r4
    9548:	ebfffec0 	bl	9050 <memset>
    954c:	e1a00004 	mov	r0, r4
    9550:	e8bd8010 	pop	{r4, pc}
    9554:	ebfffeb3 	bl	9028 <rpi_reset_putc>
    9558:	e3a0301b 	mov	r3, #27
    955c:	e59f2010 	ldr	r2, [pc, #16]	; 9574 <kmalloc+0x58>
    9560:	e59f1010 	ldr	r1, [pc, #16]	; 9578 <kmalloc+0x5c>
    9564:	e59f0010 	ldr	r0, [pc, #16]	; 957c <kmalloc+0x60>
    9568:	ebfffcfb 	bl	895c <printk>
    956c:	ebfffeea 	bl	911c <clean_reboot>
    9570:	00009664 	andeq	r9, r0, r4, ror #12
    9574:	00009b14 	andeq	r9, r0, r4, lsl fp
    9578:	00009b2c 	andeq	r9, r0, ip, lsr #22
    957c:	00009b54 	andeq	r9, r0, r4, asr fp

00009580 <kmalloc_init>:
    9580:	e12fff1e 	bx	lr

00009584 <kmalloc_heap_ptr>:
    9584:	e92d4010 	push	{r4, lr}
    9588:	ebffffcc 	bl	94c0 <kmalloc_heap_start>
    958c:	e8bd8010 	pop	{r4, pc}

00009590 <kmalloc_aligned>:
    9590:	e92d4010 	push	{r4, lr}
    9594:	e2613000 	rsb	r3, r1, #0
    9598:	e1d12003 	bics	r2, r1, r3
    959c:	1a00000b 	bne	95d0 <kmalloc_aligned+0x40>
    95a0:	e59f2060 	ldr	r2, [pc, #96]	; 9608 <kmalloc_aligned+0x78>
    95a4:	e5922000 	ldr	r2, [r2]
    95a8:	e0812002 	add	r2, r1, r2
    95ac:	e2422001 	sub	r2, r2, #1
    95b0:	e0033002 	and	r3, r3, r2
    95b4:	e2411001 	sub	r1, r1, #1
    95b8:	e1130001 	tst	r3, r1
    95bc:	1a00000a 	bne	95ec <kmalloc_aligned+0x5c>
    95c0:	e59f2040 	ldr	r2, [pc, #64]	; 9608 <kmalloc_aligned+0x78>
    95c4:	e5823000 	str	r3, [r2]
    95c8:	ebffffd3 	bl	951c <kmalloc>
    95cc:	e8bd8010 	pop	{r4, pc}
    95d0:	ebfffe94 	bl	9028 <rpi_reset_putc>
    95d4:	e3a0302a 	mov	r3, #42	; 0x2a
    95d8:	e59f202c 	ldr	r2, [pc, #44]	; 960c <kmalloc_aligned+0x7c>
    95dc:	e59f102c 	ldr	r1, [pc, #44]	; 9610 <kmalloc_aligned+0x80>
    95e0:	e59f002c 	ldr	r0, [pc, #44]	; 9614 <kmalloc_aligned+0x84>
    95e4:	ebfffcdc 	bl	895c <printk>
    95e8:	ebfffecb 	bl	911c <clean_reboot>
    95ec:	ebfffe8d 	bl	9028 <rpi_reset_putc>
    95f0:	e3a03030 	mov	r3, #48	; 0x30
    95f4:	e59f2010 	ldr	r2, [pc, #16]	; 960c <kmalloc_aligned+0x7c>
    95f8:	e59f1010 	ldr	r1, [pc, #16]	; 9610 <kmalloc_aligned+0x80>
    95fc:	e59f0014 	ldr	r0, [pc, #20]	; 9618 <kmalloc_aligned+0x88>
    9600:	ebfffcd5 	bl	895c <printk>
    9604:	ebfffec4 	bl	911c <clean_reboot>
    9608:	00009664 	andeq	r9, r0, r4, ror #12
    960c:	00009b1c 	andeq	r9, r0, ip, lsl fp
    9610:	00009b2c 	andeq	r9, r0, ip, lsr #22
    9614:	00009b68 	andeq	r9, r0, r8, ror #22
    9618:	00009bc8 	andeq	r9, r0, r8, asr #23

0000961c <kfree>:
    961c:	e12fff1e 	bx	lr

00009620 <kfree_all>:
    9620:	e59f3008 	ldr	r3, [pc, #8]	; 9630 <kfree_all+0x10>
    9624:	e5932004 	ldr	r2, [r3, #4]
    9628:	e5832000 	str	r2, [r3]
    962c:	e12fff1e 	bx	lr
    9630:	00009664 	andeq	r9, r0, r4, ror #12

00009634 <kfree_after>:
    9634:	e59f3004 	ldr	r3, [pc, #4]	; 9640 <kfree_after+0xc>
    9638:	e5830000 	str	r0, [r3]
    963c:	e12fff1e 	bx	lr
    9640:	00009664 	andeq	r9, r0, r4, ror #12

00009644 <dev_barrier>:
    9644:	ea000002 	b	9654 <dsb>

00009648 <dmb>:
    9648:	e3a00000 	mov	r0, #0
    964c:	ee070fba 	mcr	15, 0, r0, cr7, cr10, {5}
    9650:	e12fff1e 	bx	lr

00009654 <dsb>:
    9654:	ee070f9a 	mcr	15, 0, r0, cr7, cr10, {4}
    9658:	e12fff1e 	bx	lr

Disassembly of section .data:

0000965c <putk>:
    965c:	00008fe0 	andeq	r8, r0, r0, ror #31

00009660 <rpi_putchar>:
    9660:	00009014 	andeq	r9, r0, r4, lsl r0

00009664 <heap>:
    9664:	0000a028 	andeq	sl, r0, r8, lsr #32

00009668 <heap_start>:
    9668:	0000a028 	andeq	sl, r0, r8, lsr #32

Disassembly of section .rodata:

0000966c <__FUNCTION__.4269>:
    966c:	6d746f6e 	ldclvs	15, cr6, [r4, #-440]!	; 0xfffffe48
    9670:	006e6961 	rsbeq	r6, lr, r1, ror #18
    9674:	74736574 	ldrbtvc	r6, [r3], #-1396	; 0xfffffa8c
    9678:	00000a31 	andeq	r0, r0, r1, lsr sl
    967c:	74726170 	ldrbtvc	r6, [r2], #-368	; 0xfffffe90
    9680:	65742d31 	ldrbvs	r2, [r4, #-3377]!	; 0xfffff2cf
    9684:	2e317473 	mrccs	4, 1, r7, cr1, cr3, {3}
    9688:	00000063 	andeq	r0, r0, r3, rrx
    968c:	43415254 	movtmi	r5, #4692	; 0x1254
    9690:	00003a45 	andeq	r3, r0, r5, asr #20
    9694:	6f6c6c61 	svcvs	0x006c6c61
    9698:	65722063 	ldrbvs	r2, [r2, #-99]!	; 0xffffff9d
    969c:	6e727574 	mrcvs	5, 3, r7, cr2, cr4, {3}
    96a0:	25206465 	strcs	r6, [r0, #-1125]!	; 0xfffffb9b
    96a4:	00000a70 	andeq	r0, r0, r0, ror sl
    96a8:	494e4150 	stmdbmi	lr, {r4, r6, r8, lr}^
    96ac:	73253a43 			; <UNDEFINED> instruction: 0x73253a43
    96b0:	3a73253a 	bcc	1cd2ba0 <__bss_end__+0x1cc8b78>
    96b4:	693a6425 	ldmdbvs	sl!, {r0, r2, r5, sl, sp, lr}
    96b8:	6c61766e 	stclvs	6, cr7, [r1], #-440	; 0xfffffe48
    96bc:	65206469 	strvs	r6, [r0, #-1129]!	; 0xfffffb97
    96c0:	726f7272 	rsbvc	r7, pc, #536870919	; 0x20000007
    96c4:	0a0a2121 	beq	291b50 <__bss_end__+0x287b28>
    96c8:	00000000 	andeq	r0, r0, r0
    96cc:	43435553 	movtmi	r5, #13651	; 0x3553
    96d0:	20535345 	subscs	r5, r3, r5, asr #6
    96d4:	70616568 	rsbvc	r6, r1, r8, ror #10
    96d8:	65686320 	strbvs	r6, [r8, #-800]!	; 0xfffffce0
    96dc:	64656b63 	strbtvs	r6, [r5], #-2915	; 0xfffff49d
    96e0:	74756f20 	ldrbtvc	r6, [r5], #-3872	; 0xfffff0e0
    96e4:	0000000a 	andeq	r0, r0, sl

000096e8 <__FUNCTION__.4271>:
    96e8:	695f6b63 	ldmdbvs	pc, {r0, r1, r5, r6, r8, r9, fp, sp, lr}^	; <UNPREDICTABLE>
    96ec:	0074696e 	rsbseq	r6, r4, lr, ror #18

000096f0 <__FUNCTION__.4329>:
    96f0:	72666b63 	rsbvc	r6, r6, #101376	; 0x18c00
    96f4:	00006565 	andeq	r6, r0, r5, ror #10

000096f8 <__FUNCTION__.4339>:
    96f8:	6c616b63 			; <UNDEFINED> instruction: 0x6c616b63
    96fc:	00636f6c 	rsbeq	r6, r3, ip, ror #30
    9700:	4f525245 	svcmi	0x00525245
    9704:	00003a52 	andeq	r3, r0, r2, asr sl
    9708:	636f6c62 	cmnvs	pc, #25088	; 0x6200
    970c:	7025206b 	eorvc	r2, r5, fp, rrx
    9710:	726f6320 	rsbvc	r6, pc, #32, 6	; 0x80000000
    9714:	74707572 	ldrbtvc	r7, [r0], #-1394	; 0xfffffa8e
    9718:	61206465 			; <UNDEFINED> instruction: 0x61206465
    971c:	666f2074 			; <UNDEFINED> instruction: 0x666f2074
    9720:	74657366 	strbtvc	r7, [r5], #-870	; 0xfffffc9a
    9724:	0a642520 	beq	1912bac <__bss_end__+0x1908b84>
    9728:	00000000 	andeq	r0, r0, r0
    972c:	79626e09 	stmdbvc	r2!, {r0, r3, r9, sl, fp, sp, lr}^
    9730:	3d736574 	cfldr64cc	mvdx6, [r3, #-464]!	; 0xfffffe30
    9734:	000a6425 	andeq	r6, sl, r5, lsr #8
    9738:	6f6c4209 	svcvs	0x006c4209
    973c:	61206b63 			; <UNDEFINED> instruction: 0x61206b63
    9740:	636f6c6c 	cmnvs	pc, #108, 24	; 0x6c00
    9744:	64657461 	strbtvs	r7, [r5], #-1121	; 0xfffffb9f
    9748:	3a746120 	bcc	1d21bd0 <__bss_end__+0x1d17ba8>
    974c:	3a732520 	bcc	1cd2bd4 <__bss_end__+0x1cc8bac>
    9750:	253a7325 	ldrcs	r7, [sl, #-805]!	; 0xfffffcdb
    9754:	00000a64 	andeq	r0, r0, r4, ror #20
    9758:	6f6c4209 	svcvs	0x006c4209
    975c:	66206b63 	strtvs	r6, [r0], -r3, ror #22
    9760:	64656572 	strbtvs	r6, [r5], #-1394	; 0xfffffa8e
    9764:	3a746120 	bcc	1d21bec <__bss_end__+0x1d17bc4>
    9768:	3a732520 	bcc	1cd2bf0 <__bss_end__+0x1cc8bc8>
    976c:	253a7325 	ldrcs	r7, [sl, #-805]!	; 0xfffffcdb
    9770:	00000a64 	andeq	r0, r0, r4, ror #20
    9774:	6f725709 	svcvs	0x00725709
    9778:	62206574 	eorvs	r6, r0, #116, 10	; 0x1d000000
    977c:	6b636f6c 	blvs	18e5534 <__bss_end__+0x18db50c>
    9780:	74666120 	strbtvc	r6, [r6], #-288	; 0xfffffee0
    9784:	66207265 	strtvs	r7, [r0], -r5, ror #4
    9788:	21656572 	smccs	22098	; 0x5652
    978c:	0000000a 	andeq	r0, r0, sl
    9790:	6c616b63 			; <UNDEFINED> instruction: 0x6c616b63
    9794:	2e636f6c 	cdpcs	15, 6, cr6, cr3, cr12, {3}
    9798:	00000063 	andeq	r0, r0, r3, rrx
    979c:	494e4150 	stmdbmi	lr, {r4, r6, r8, lr}^
    97a0:	73253a43 			; <UNDEFINED> instruction: 0x73253a43
    97a4:	3a73253a 	bcc	1cd2c94 <__bss_end__+0x1cc8c6c>
    97a8:	613a6425 	teqvs	sl, r5, lsr #8
    97ac:	6e67696c 	vnmulvs.f16	s13, s14, s25	; <UNPREDICTABLE>
    97b0:	68286465 	stmdavs	r8!, {r0, r2, r5, r6, sl, sp, lr}
    97b4:	5f706165 	svcpl	0x00706165
    97b8:	72617473 	rsbvc	r7, r1, #1929379840	; 0x73000000
    97bc:	38202c74 	stmdacc	r0!, {r2, r4, r5, r6, sl, fp, sp}
    97c0:	00000a29 	andeq	r0, r0, r9, lsr #20
    97c4:	657a6973 	ldrbvs	r6, [sl, #-2419]!	; 0xfffff68d
    97c8:	6820666f 	stmdavs	r0!, {r0, r1, r2, r3, r5, r6, r9, sl, sp, lr}
    97cc:	253d7264 	ldrcs	r7, [sp, #-612]!	; 0xfffffd9c
    97d0:	72202c64 	eorvc	r2, r0, #100, 24	; 0x6400
    97d4:	6f7a6465 	svcvs	0x007a6465
    97d8:	253d656e 	ldrcs	r6, [sp, #-1390]!	; 0xfffffa92
    97dc:	00000a64 	andeq	r0, r0, r4, ror #20
    97e0:	4f525245 	svcmi	0x00525245
    97e4:	73253a52 			; <UNDEFINED> instruction: 0x73253a52
    97e8:	3a73253a 	bcc	1cd2cd8 <__bss_end__+0x1cc8cb0>
    97ec:	203a6425 	eorscs	r6, sl, r5, lsr #8
    97f0:	534c4146 	movtpl	r4, #49478	; 0xc146
    97f4:	683c2845 	ldmdavs	ip!, {r0, r2, r6, fp, sp}
    97f8:	3e706165 	rpwccsz	f6, f0, f5
    97fc:	6e203a29 	vmulvs.f32	s6, s0, s19
    9800:	6920746f 	stmdbvs	r0!, {r0, r1, r2, r3, r5, r6, sl, ip, sp, lr}
    9804:	6974696e 	ldmdbvs	r4!, {r1, r2, r3, r5, r6, r8, fp, sp, lr}^
    9808:	7a696c61 	bvc	1a64994 <__bss_end__+0x1a5a96c>
    980c:	0a3f6465 	beq	fe29a8 <__bss_end__+0xfd8980>
    9810:	00000000 	andeq	r0, r0, r0
    9814:	65657266 	strbvs	r7, [r5, #-614]!	; 0xfffffd9a
    9818:	20676e69 	rsbcs	r6, r7, r9, ror #28
    981c:	000a7025 	andeq	r7, sl, r5, lsr #32
    9820:	6f6c6c61 	svcvs	0x006c6c61
    9824:	69746163 	ldmdbvs	r4!, {r0, r1, r5, r6, r8, sp, lr}^
    9828:	2520676e 	strcs	r6, [r0, #-1902]!	; 0xfffff892
    982c:	79622064 	stmdbvc	r2!, {r2, r5, r6, sp}^
    9830:	0a736574 	beq	1ce2e08 <__bss_end__+0x1cd8de0>
    9834:	00000000 	andeq	r0, r0, r0
    9838:	43415254 	movtmi	r5, #4692	; 0x1254
    983c:	52453a45 	subpl	r3, r5, #282624	; 0x45000
    9840:	00524f52 	subseq	r4, r2, r2, asr pc
    9844:	657a6973 	ldrbvs	r6, [sl, #-2419]!	; 0xfffff68d
    9848:	65766f20 	ldrbvs	r6, [r6, #-3872]!	; 0xfffff0e0
    984c:	6f6c6672 	svcvs	0x006c6672
    9850:	3a646577 	bcc	1922e34 <__bss_end__+0x1918e0c>
    9854:	20642520 	rsbcs	r2, r4, r0, lsr #10
    9858:	65747962 	ldrbvs	r7, [r4, #-2402]!	; 0xfffff69e
    985c:	73692073 	cmnvc	r9, #115	; 0x73
    9860:	6f6f7420 	svcvs	0x006f7420
    9864:	72616c20 	rsbvc	r6, r1, #32, 24	; 0x2000
    9868:	000a6567 	andeq	r6, sl, r7, ror #10
    986c:	494e4150 	stmdbmi	lr, {r4, r6, r8, lr}^
    9870:	73253a43 			; <UNDEFINED> instruction: 0x73253a43
    9874:	3a73253a 	bcc	1cd2d64 <__bss_end__+0x1cc8d3c>
    9878:	733a6425 	teqvc	sl, #620756992	; 0x25000000
    987c:	20657a69 	rsbcs	r7, r5, r9, ror #20
    9880:	7265766f 	rsbvc	r7, r5, #116391936	; 0x6f00000
    9884:	776f6c66 	strbvc	r6, [pc, -r6, ror #24]!
    9888:	203a6465 	eorscs	r6, sl, r5, ror #8
    988c:	62206425 	eorvs	r6, r0, #620756992	; 0x25000000
    9890:	73657479 	cmnvc	r5, #2030043136	; 0x79000000
    9894:	20736920 	rsbscs	r6, r3, r0, lsr #18
    9898:	206f6f74 	rsbcs	r6, pc, r4, ror pc	; <UNPREDICTABLE>
    989c:	6772616c 	ldrbvs	r6, [r2, -ip, ror #2]!
    98a0:	000a0a65 	andeq	r0, sl, r5, ror #20
    98a4:	2074756f 	rsbscs	r7, r4, pc, ror #10
    98a8:	6d20666f 	stcvs	6, cr6, [r0, #-444]!	; 0xfffffe44
    98ac:	726f6d65 	rsbvc	r6, pc, #6464	; 0x1940
    98b0:	20202179 	eorcs	r2, r0, r9, ror r1
    98b4:	65766168 	ldrbvs	r6, [r6, #-360]!	; 0xfffffe98
    98b8:	6c6e6f20 	stclvs	15, cr6, [lr], #-128	; 0xffffff80
    98bc:	64252079 	strtvs	r2, [r5], #-121	; 0xffffff87
    98c0:	66656c20 	strbtvs	r6, [r5], -r0, lsr #24
    98c4:	6e202c74 	mcrvs	12, 1, r2, cr0, cr4, {3}
    98c8:	20646565 	rsbcs	r6, r4, r5, ror #10
    98cc:	000a6425 	andeq	r6, sl, r5, lsr #8
    98d0:	494e4150 	stmdbmi	lr, {r4, r6, r8, lr}^
    98d4:	73253a43 			; <UNDEFINED> instruction: 0x73253a43
    98d8:	3a73253a 	bcc	1cd2dc8 <__bss_end__+0x1cc8da0>
    98dc:	6f3a6425 	svcvs	0x003a6425
    98e0:	6f207475 	svcvs	0x00207475
    98e4:	656d2066 	strbvs	r2, [sp, #-102]!	; 0xffffff9a
    98e8:	79726f6d 	ldmdbvc	r2!, {r0, r2, r3, r5, r6, r8, r9, sl, fp, sp, lr}^
    98ec:	68202021 	stmdavs	r0!, {r0, r5, sp}
    98f0:	20657661 	rsbcs	r7, r5, r1, ror #12
    98f4:	796c6e6f 	stmdbvc	ip!, {r0, r1, r2, r3, r5, r6, r9, sl, fp, sp, lr}^
    98f8:	20642520 	rsbcs	r2, r4, r0, lsr #10
    98fc:	7466656c 	strbtvc	r6, [r6], #-1388	; 0xfffffa94
    9900:	656e202c 	strbvs	r2, [lr, #-44]!	; 0xffffffd4
    9904:	25206465 	strcs	r6, [r0, #-1125]!	; 0xfffffb9b
    9908:	000a0a64 	andeq	r0, sl, r4, ror #20
    990c:	494e4150 	stmdbmi	lr, {r4, r6, r8, lr}^
    9910:	73253a43 			; <UNDEFINED> instruction: 0x73253a43
    9914:	3a73253a 	bcc	1cd2e04 <__bss_end__+0x1cc8ddc>
    9918:	633a6425 	teqvs	sl, #620756992	; 0x25000000
    991c:	6b636568 	blvs	18e2ec4 <__bss_end__+0x18d8e9c>
    9920:	6f6c625f 	svcvs	0x006c625f
    9924:	68286b63 	stmdavs	r8!, {r0, r1, r5, r6, r8, r9, fp, sp, lr}
    9928:	00000a29 	andeq	r0, r0, r9, lsr #20
    992c:	6c616b63 			; <UNDEFINED> instruction: 0x6c616b63
    9930:	3a636f6c 	bcc	18e56e8 <__bss_end__+0x18db6c0>
    9934:	6f6c6c61 	svcvs	0x006c6c61
    9938:	65746163 	ldrbvs	r6, [r4, #-355]!	; 0xfffffe9d
    993c:	64252064 	strtvs	r2, [r5], #-100	; 0xffffff9c
    9940:	74796220 	ldrbtvc	r6, [r9], #-544	; 0xfffffde0
    9944:	202c7365 	eorcs	r7, ip, r5, ror #6
    9948:	746f7428 	strbtvc	r7, [pc], #-1064	; 9950 <__FUNCTION__.4339+0x258>
    994c:	253d6c61 	ldrcs	r6, [sp, #-3169]!	; 0xfffff39f
    9950:	202c2964 	eorcs	r2, ip, r4, ror #18
    9954:	3d727470 	cfldrdcc	mvd7, [r2, #-448]!	; 0xfffffe40
    9958:	000a7025 	andeq	r7, sl, r5, lsr #32
    995c:	6e696f67 	cdpvs	15, 6, cr6, cr9, cr7, {3}
    9960:	6f742067 	svcvs	0x00742067
    9964:	65686320 	strbvs	r6, [r8, #-800]!	; 0xfffffce0
    9968:	68206b63 	stmdavs	r0!, {r0, r1, r5, r6, r8, r9, fp, sp, lr}
    996c:	3a706165 	bcc	1c21f08 <__bss_end__+0x1c17ee0>
    9970:	20642520 	rsbcs	r2, r4, r0, lsr #10
    9974:	65747962 	ldrbvs	r7, [r4, #-2402]!	; 0xfffff69e
    9978:	6c612073 	stclvs	0, cr2, [r1], #-460	; 0xfffffe34
    997c:	61636f6c 	cmnvs	r3, ip, ror #30
    9980:	2c646574 	cfstr64cs	mvdx6, [r4], #-464	; 0xfffffe30
    9984:	20642520 	rsbcs	r2, r4, r0, lsr #10
    9988:	65747962 	ldrbvs	r7, [r4, #-2402]!	; 0xfffff69e
    998c:	656c2073 	strbvs	r2, [ip, #-115]!	; 0xffffff8d
    9990:	000a7466 	andeq	r7, sl, r6, ror #8
    9994:	63656863 	cmnvs	r5, #6488064	; 0x630000
    9998:	2064656b 	rsbcs	r6, r4, fp, ror #10
    999c:	62206425 	eorvs	r6, r0, #620756992	; 0x25000000
    99a0:	6b636f6c 	blvs	18e5758 <__bss_end__+0x18db730>
    99a4:	64202c73 	strtvs	r2, [r0], #-3187	; 0xfffff38d
    99a8:	63657465 	cmnvs	r5, #1694498816	; 0x65000000
    99ac:	20646574 	rsbcs	r6, r4, r4, ror r5
    99b0:	65206425 	strvs	r6, [r0, #-1061]!	; 0xfffffbdb
    99b4:	726f7272 	rsbvc	r7, pc, #536870919	; 0x20000007
    99b8:	00000a73 	andeq	r0, r0, r3, ror sl
    99bc:	43435553 	movtmi	r5, #13651	; 0x3553
    99c0:	3a535345 	bcc	14de6dc <__bss_end__+0x14d46b4>
    99c4:	65686320 	strbvs	r6, [r8, #-800]!	; 0xfffffce0
    99c8:	64656b63 	strbtvs	r6, [r5], #-2915	; 0xfffff49d
    99cc:	20642520 	rsbcs	r2, r4, r0, lsr #10
    99d0:	636f6c62 	cmnvs	pc, #25088	; 0x6200
    99d4:	202c736b 	eorcs	r7, ip, fp, ror #6
    99d8:	65746564 	ldrbvs	r6, [r4, #-1380]!	; 0xfffffa9c
    99dc:	64657463 	strbtvs	r7, [r5], #-1123	; 0xfffffb9d
    99e0:	206f6e20 	rsbcs	r6, pc, r0, lsr #28
    99e4:	6f727265 	svcvs	0x00727265
    99e8:	000a7372 	andeq	r7, sl, r2, ror r3

000099ec <__FUNCTION__.4281>:
    99ec:	74696d65 	strbtvc	r6, [r9], #-3429	; 0xfffff29b
    99f0:	00000000 	andeq	r0, r0, r0

000099f4 <__FUNCTION__.4229>:
    99f4:	5f697072 	svcpl	0x00697072
    99f8:	5f746573 	svcpl	0x00746573
    99fc:	7074756f 	rsbsvc	r7, r4, pc, ror #10
    9a00:	00007475 	andeq	r7, r0, r5, ror r4

00009a04 <__FUNCTION__.4303>:
    9a04:	705f6176 	subsvc	r6, pc, r6, ror r1	; <UNPREDICTABLE>
    9a08:	746e6972 	strbtvc	r6, [lr], #-2418	; 0xfffff68e
    9a0c:	0000006b 	andeq	r0, r0, fp, rrx
    9a10:	6362696c 	cmnvs	r2, #108, 18	; 0x1b0000
    9a14:	2d61762f 	stclcs	6, cr7, [r1, #-188]!	; 0xffffff44
    9a18:	6e697270 	mcrvs	2, 3, r7, cr9, cr0, {3}
    9a1c:	632e6b74 			; <UNDEFINED> instruction: 0x632e6b74
    9a20:	00000000 	andeq	r0, r0, r0
    9a24:	494e4150 	stmdbmi	lr, {r4, r6, r8, lr}^
    9a28:	73253a43 			; <UNDEFINED> instruction: 0x73253a43
    9a2c:	3a73253a 	bcc	1cd2f1c <__bss_end__+0x1cc8ef4>
    9a30:	303a6425 	eorscc	r6, sl, r5, lsr #8
    9a34:	0000000a 	andeq	r0, r0, sl
    9a38:	33323130 	teqcc	r2, #48, 2
    9a3c:	37363534 			; <UNDEFINED> instruction: 0x37363534
    9a40:	00003938 	andeq	r3, r0, r8, lsr r9
    9a44:	33323130 	teqcc	r2, #48, 2
    9a48:	37363534 			; <UNDEFINED> instruction: 0x37363534
    9a4c:	62613938 	rsbvs	r3, r1, #56, 18	; 0xe0000
    9a50:	66656463 	strbtvs	r6, [r5], -r3, ror #8
    9a54:	00000000 	andeq	r0, r0, r0
    9a58:	00003130 	andeq	r3, r0, r0, lsr r1
    9a5c:	494e4150 	stmdbmi	lr, {r4, r6, r8, lr}^
    9a60:	73253a43 			; <UNDEFINED> instruction: 0x73253a43
    9a64:	3a73253a 	bcc	1cd2f54 <__bss_end__+0x1cc8f2c>
    9a68:	703a6425 	eorsvc	r6, sl, r5, lsr #8
    9a6c:	5f637475 	svcpl	0x00637475
    9a70:	000a7066 	andeq	r7, sl, r6, rrx
    9a74:	494e4150 	stmdbmi	lr, {r4, r6, r8, lr}^
    9a78:	73253a43 			; <UNDEFINED> instruction: 0x73253a43
    9a7c:	3a73253a 	bcc	1cd2f6c <__bss_end__+0x1cc8f44>
    9a80:	773a6425 	ldrvc	r6, [sl, -r5, lsr #8]!
    9a84:	68746469 	ldmdavs	r4!, {r0, r3, r5, r6, sl, sp, lr}^
    9a88:	33203c20 			; <UNDEFINED> instruction: 0x33203c20
    9a8c:	00000a32 	andeq	r0, r0, r2, lsr sl
    9a90:	494e4150 	stmdbmi	lr, {r4, r6, r8, lr}^
    9a94:	73253a43 			; <UNDEFINED> instruction: 0x73253a43
    9a98:	3a73253a 	bcc	1cd2f88 <__bss_end__+0x1cc8f60>
    9a9c:	663a6425 	ldrtvs	r6, [sl], -r5, lsr #8
    9aa0:	74616f6c 	strbtvc	r6, [r1], #-3948	; 0xfffff094
    9aa4:	746f6e20 	strbtvc	r6, [pc], #-3616	; 9aac <__FUNCTION__.4303+0xa8>
    9aa8:	616e6520 	cmnvs	lr, r0, lsr #10
    9aac:	64656c62 	strbtvs	r6, [r5], #-3170	; 0xfffff39e
    9ab0:	0a212121 	beq	851f3c <__bss_end__+0x847f14>
    9ab4:	00000000 	andeq	r0, r0, r0
    9ab8:	494e4150 	stmdbmi	lr, {r4, r6, r8, lr}^
    9abc:	73253a43 			; <UNDEFINED> instruction: 0x73253a43
    9ac0:	3a73253a 	bcc	1cd2fb0 <__bss_end__+0x1cc8f88>
    9ac4:	703a6425 	eorsvc	r6, sl, r5, lsr #8
    9ac8:	746e6972 	strbtvc	r6, [lr], #-2418	; 0xfffff68e
    9acc:	6e203a6b 	vnmulvs.f32	s6, s0, s23
    9ad0:	6820746f 	stmdavs	r0!, {r0, r1, r2, r3, r5, r6, sl, ip, sp, lr}
    9ad4:	6c646e61 	stclvs	14, cr6, [r4], #-388	; 0xfffffe7c
    9ad8:	20676e69 	rsbcs	r6, r7, r9, ror #28
    9adc:	63657073 	cmnvs	r5, #115	; 0x73
    9ae0:	65696669 	strbvs	r6, [r9, #-1641]!	; 0xfffff997
    9ae4:	25272072 	strcs	r2, [r7, #-114]!	; 0xffffff8e
    9ae8:	0a0a2763 	beq	29387c <__bss_end__+0x289854>
    9aec:	00000000 	andeq	r0, r0, r0
    9af0:	454e4f44 	strbmi	r4, [lr, #-3908]	; 0xfffff0bc
    9af4:	0a212121 	beq	851f80 <__bss_end__+0x847f58>
    9af8:	00000000 	andeq	r0, r0, r0

00009afc <__FUNCTION__.4237>:
    9afc:	6c616d6b 	stclvs	13, cr6, [r1], #-428	; 0xfffffe54
    9b00:	5f636f6c 	svcpl	0x00636f6c
    9b04:	74696e69 	strbtvc	r6, [r9], #-3689	; 0xfffff197
    9b08:	7465735f 	strbtvc	r7, [r5], #-863	; 0xfffffca1
    9b0c:	6174735f 	cmnvs	r4, pc, asr r3
    9b10:	00007472 	andeq	r7, r0, r2, ror r4

00009b14 <__FUNCTION__.4241>:
    9b14:	6c616d6b 	stclvs	13, cr6, [r1], #-428	; 0xfffffe54
    9b18:	00636f6c 	rsbeq	r6, r3, ip, ror #30

00009b1c <__FUNCTION__.4253>:
    9b1c:	6c616d6b 	stclvs	13, cr6, [r1], #-428	; 0xfffffe54
    9b20:	5f636f6c 	svcpl	0x00636f6c
    9b24:	67696c61 	strbvs	r6, [r9, -r1, ror #24]!
    9b28:	0064656e 	rsbeq	r6, r4, lr, ror #10
    9b2c:	6c616d6b 	stclvs	13, cr6, [r1], #-428	; 0xfffffe54
    9b30:	2e636f6c 	cdpcs	15, 6, cr6, cr3, cr12, {3}
    9b34:	00000063 	andeq	r0, r0, r3, rrx
    9b38:	494e4150 	stmdbmi	lr, {r4, r6, r8, lr}^
    9b3c:	73253a43 			; <UNDEFINED> instruction: 0x73253a43
    9b40:	3a73253a 	bcc	1cd3030 <__bss_end__+0x1cc9008>
    9b44:	613a6425 	teqvs	sl, r5, lsr #8
    9b48:	20726464 	rsbscs	r6, r2, r4, ror #8
    9b4c:	6568203e 	strbvs	r2, [r8, #-62]!	; 0xffffffc2
    9b50:	000a7061 	andeq	r7, sl, r1, rrx
    9b54:	494e4150 	stmdbmi	lr, {r4, r6, r8, lr}^
    9b58:	73253a43 			; <UNDEFINED> instruction: 0x73253a43
    9b5c:	3a73253a 	bcc	1cd304c <__bss_end__+0x1cc9024>
    9b60:	733a6425 	teqvc	sl, #620756992	; 0x25000000
    9b64:	00000a7a 	andeq	r0, r0, sl, ror sl
    9b68:	4f525245 	svcmi	0x00525245
    9b6c:	73253a52 			; <UNDEFINED> instruction: 0x73253a52
    9b70:	3a73253a 	bcc	1cd3060 <__bss_end__+0x1cc9038>
    9b74:	203a6425 	eorscs	r6, sl, r5, lsr #8
    9b78:	534c4146 	movtpl	r4, #49478	; 0xc146
    9b7c:	283c2845 	ldmdacs	ip!, {r0, r2, r6, fp, sp}
    9b80:	6c612828 	stclvs	8, cr2, [r1], #-160	; 0xffffff60
    9b84:	6d6e6769 	stclvs	7, cr6, [lr, #-420]!	; 0xfffffe5c
    9b88:	29746e65 	ldmdbcs	r4!, {r0, r2, r5, r6, r9, sl, fp, sp, lr}^
    9b8c:	61282d26 			; <UNDEFINED> instruction: 0x61282d26
    9b90:	6e67696c 	vnmulvs.f16	s13, s14, s25	; <UNPREDICTABLE>
    9b94:	746e656d 	strbtvc	r6, [lr], #-1389	; 0xfffffa93
    9b98:	3d202929 			; <UNDEFINED> instruction: 0x3d202929
    9b9c:	6128203d 			; <UNDEFINED> instruction: 0x6128203d
    9ba0:	6e67696c 	vnmulvs.f16	s13, s14, s25	; <UNPREDICTABLE>
    9ba4:	746e656d 	strbtvc	r6, [lr], #-1389	; 0xfffffa93
    9ba8:	293e2929 	ldmdbcs	lr!, {r0, r3, r5, r8, fp, sp}
    9bac:	7361203a 	cmnvc	r1, #58	; 0x3a
    9bb0:	696d7573 	stmdbvs	sp!, {r0, r1, r4, r5, r6, r8, sl, ip, sp, lr}^
    9bb4:	7020676e 	eorvc	r6, r0, lr, ror #14
    9bb8:	7265776f 	rsbvc	r7, r5, #29097984	; 0x1bc0000
    9bbc:	20666f20 	rsbcs	r6, r6, r0, lsr #30
    9bc0:	0a6f7774 	beq	1be7998 <__bss_end__+0x1bdd970>
    9bc4:	00000000 	andeq	r0, r0, r0
    9bc8:	4f525245 	svcmi	0x00525245
    9bcc:	73253a52 			; <UNDEFINED> instruction: 0x73253a52
    9bd0:	3a73253a 	bcc	1cd30c0 <__bss_end__+0x1cc9098>
    9bd4:	203a6425 	eorscs	r6, sl, r5, lsr #8
    9bd8:	534c4146 	movtpl	r4, #49478	; 0xc146
    9bdc:	283c2845 	ldmdacs	ip!, {r0, r2, r6, fp, sp}
    9be0:	29682828 	stmdbcs	r8!, {r3, r5, fp, sp}^
    9be4:	28202620 	stmdacs	r0!, {r5, r9, sl, sp}
    9be8:	70797428 	rsbsvc	r7, r9, r8, lsr #8
    9bec:	28666f65 	stmdacs	r6!, {r0, r2, r5, r6, r8, r9, sl, fp, sp, lr}^
    9bf0:	28292968 	stmdacs	r9!, {r3, r5, r6, r8, fp, sp}
    9bf4:	67696c61 	strbvs	r6, [r9, -r1, ror #24]!
    9bf8:	6e656d6e 	cdpvs	13, 6, cr6, cr5, cr14, {3}
    9bfc:	2d202974 			; <UNDEFINED> instruction: 0x2d202974
    9c00:	29293120 	stmdbcs	r9!, {r5, r8, ip, sp}
    9c04:	203d3d20 	eorscs	r3, sp, r0, lsr #26
    9c08:	293e2930 	ldmdbcs	lr!, {r4, r5, r8, fp, sp}
    9c0c:	6d69203a 	stclvs	0, cr2, [r9, #-232]!	; 0xffffff18
    9c10:	73736f70 	cmnvc	r3, #112, 30	; 0x1c0
    9c14:	656c6269 	strbvs	r6, [ip, #-617]!	; 0xfffffd97
    9c18:	0000000a 	andeq	r0, r0, sl

Disassembly of section .bss:

00009c1c <__bss_start__>:
    9c1c:	00000000 	andeq	r0, r0, r0

00009c20 <heap>:
    9c20:	00000000 	andeq	r0, r0, r0

00009c24 <heap_end>:
    9c24:	00000000 	andeq	r0, r0, r0

00009c28 <buf.4229>:
	...

Disassembly of section .ARM.attributes:

00000000 <.ARM.attributes>:
   0:	00002a41 	andeq	r2, r0, r1, asr #20
   4:	61656100 	cmnvs	r5, r0, lsl #2
   8:	01006962 	tsteq	r0, r2, ror #18
   c:	00000020 	andeq	r0, r0, r0, lsr #32
  10:	4b5a3605 	blmi	168d82c <__bss_end__+0x1683804>
  14:	08070600 	stmdaeq	r7, {r9, sl}
  18:	12010901 	andne	r0, r1, #16384	; 0x4000
  1c:	15011404 	strne	r1, [r1, #-1028]	; 0xfffffbfc
  20:	18031701 	stmdane	r3, {r0, r8, r9, sl, ip}
  24:	22011a01 	andcs	r1, r1, #4096	; 0x1000
  28:	Address 0x0000000000000028 is out of bounds.


Disassembly of section .comment:

00000000 <.comment>:
   0:	3a434347 	bcc	10d0d24 <__bss_end__+0x10c6cfc>
   4:	35312820 	ldrcc	r2, [r1, #-2080]!	; 0xfffff7e0
   8:	332e363a 			; <UNDEFINED> instruction: 0x332e363a
   c:	732b312e 			; <UNDEFINED> instruction: 0x732b312e
  10:	35326e76 	ldrcc	r6, [r2, #-3702]!	; 0xfffff18a
  14:	39333033 	ldmdbcc	r3!, {r0, r1, r4, r5, ip, sp}
  18:	7562312d 	strbvc	r3, [r2, #-301]!	; 0xfffffed3
  1c:	31646c69 	cmncc	r4, r9, ror #24
  20:	2e362029 	cdpcs	0, 3, cr2, cr6, cr9, {1}
  24:	20312e33 	eorscs	r2, r1, r3, lsr lr
  28:	37313032 			; <UNDEFINED> instruction: 0x37313032
  2c:	30323630 	eorscc	r3, r2, r0, lsr r6
	...

Disassembly of section .debug_info:

00000000 <.debug_info>:
       0:	00000adf 	ldrdeq	r0, [r0], -pc	; <UNPREDICTABLE>
       4:	00000004 	andeq	r0, r0, r4
       8:	01040000 	mrseq	r0, (UNDEF: 4)
       c:	000003d6 	ldrdeq	r0, [r0], -r6
      10:	0002380c 	andeq	r3, r2, ip, lsl #16
      14:	0000ce00 	andeq	ip, r0, r0, lsl #28
      18:	00801000 	addeq	r1, r0, r0
      1c:	0000d400 	andeq	sp, r0, r0, lsl #8
      20:	00000000 	andeq	r0, r0, r0
      24:	05040200 	streq	r0, [r4, #-512]	; 0xfffffe00
      28:	00746e69 	rsbseq	r6, r4, r9, ror #28
      2c:	66070403 	strvs	r0, [r7], -r3, lsl #8
      30:	03000000 	movweq	r0, #0
      34:	02fa0601 	rscseq	r0, sl, #1048576	; 0x100000
      38:	02030000 	andeq	r0, r3, #0
      3c:	00031405 	andeq	r1, r3, r5, lsl #8
      40:	05040300 	streq	r0, [r4, #-768]	; 0xfffffd00
      44:	000000af 	andeq	r0, r0, pc, lsr #1
      48:	aa050803 	bge	14205c <__bss_end__+0x138034>
      4c:	03000000 	movweq	r0, #0
      50:	02f80801 	rscseq	r0, r8, #65536	; 0x10000
      54:	02030000 	andeq	r0, r3, #0
      58:	00022507 	andeq	r2, r2, r7, lsl #10
      5c:	07040300 	streq	r0, [r4, -r0, lsl #6]
      60:	00000061 	andeq	r0, r0, r1, rrx
      64:	5c070803 	stcpl	8, cr0, [r7], {3}
      68:	04000000 	streq	r0, [r0], #-0
      6c:	000002e6 	andeq	r0, r0, r6, ror #5
      70:	00250702 	eoreq	r0, r5, r2, lsl #14
      74:	d5040000 	strle	r0, [r4, #-0]
      78:	03000002 	movweq	r0, #2
      7c:	0000412c 	andeq	r4, r0, ip, lsr #2
      80:	03bf0400 			; <UNDEFINED> instruction: 0x03bf0400
      84:	72030000 	andvc	r0, r3, #0
      88:	00000041 	andeq	r0, r0, r1, asr #32
      8c:	00027605 	andeq	r7, r2, r5, lsl #12
      90:	01650400 	cmneq	r5, r0, lsl #8
      94:	0000002c 	andeq	r0, r0, ip, lsr #32
      98:	a6030406 	strge	r0, [r3], -r6, lsl #8
      9c:	000000b7 	strheq	r0, [r0], -r7
      a0:	00027007 	andeq	r7, r2, r7
      a4:	8ca80300 	stchi	3, cr0, [r8]
      a8:	07000000 	streq	r0, [r0, -r0]
      ac:	000001e5 	andeq	r0, r0, r5, ror #3
      b0:	00b7a903 	adcseq	sl, r7, r3, lsl #18
      b4:	08000000 	stmdaeq	r0, {}	; <UNPREDICTABLE>
      b8:	0000004f 	andeq	r0, r0, pc, asr #32
      bc:	000000c7 	andeq	r0, r0, r7, asr #1
      c0:	0000c709 	andeq	ip, r0, r9, lsl #14
      c4:	03000300 	movweq	r0, #768	; 0x300
      c8:	02a90704 	adceq	r0, r9, #4, 14	; 0x100000
      cc:	080a0000 	stmdaeq	sl, {}	; <UNPREDICTABLE>
      d0:	00efa303 	rsceq	sl, pc, r3, lsl #6
      d4:	a90b0000 	stmdbge	fp, {}	; <UNPREDICTABLE>
      d8:	03000003 	movweq	r0, #3
      dc:	000025a5 	andeq	r2, r0, r5, lsr #11
      e0:	b10b0000 	mrslt	r0, (UNDEF: 11)
      e4:	03000003 	movweq	r0, #3
      e8:	000098aa 	andeq	r9, r0, sl, lsr #17
      ec:	04000400 	streq	r0, [r0], #-1024	; 0xfffffc00
      f0:	0000033c 	andeq	r0, r0, ip, lsr r3
      f4:	00ceab03 	sbceq	sl, lr, r3, lsl #22
      f8:	a2040000 	andge	r0, r4, #0
      fc:	03000001 	movweq	r0, #1
     100:	00006baf 	andeq	r6, r0, pc, lsr #23
     104:	0d040c00 	stceq	12, cr0, [r4, #-0]
     108:	00010d04 	andeq	r0, r1, r4, lsl #26
     10c:	08010300 	stmdaeq	r1, {r8, r9}
     110:	00000301 	andeq	r0, r0, r1, lsl #6
     114:	00010d0e 	andeq	r0, r1, lr, lsl #26
     118:	04530400 	ldrbeq	r0, [r3], #-1024	; 0xfffffc00
     11c:	16050000 	strne	r0, [r5], -r0
     120:	0000005d 	andeq	r0, r0, sp, asr r0
     124:	0001b30f 	andeq	fp, r1, pc, lsl #6
     128:	2d051800 	stccs	8, cr1, [r5, #-0]
     12c:	00000177 	andeq	r0, r0, r7, ror r1
     130:	00035d0b 	andeq	r5, r3, fp, lsl #26
     134:	772f0500 	strvc	r0, [pc, -r0, lsl #10]!
     138:	00000001 	andeq	r0, r0, r1
     13c:	006b5f10 	rsbeq	r5, fp, r0, lsl pc
     140:	00253005 	eoreq	r3, r5, r5
     144:	0b040000 	bleq	10014c <__bss_end__+0xf6124>
     148:	00000394 	muleq	r0, r4, r3
     14c:	00253005 	eoreq	r3, r5, r5
     150:	0b080000 	bleq	200158 <__bss_end__+0x1f6130>
     154:	0000019c 	muleq	r0, ip, r1
     158:	00253005 	eoreq	r3, r5, r5
     15c:	0b0c0000 	bleq	300164 <__bss_end__+0x2f613c>
     160:	000004a1 	andeq	r0, r0, r1, lsr #9
     164:	00253005 	eoreq	r3, r5, r5
     168:	10100000 	andsne	r0, r0, r0
     16c:	0500785f 	streq	r7, [r0, #-2143]	; 0xfffff7a1
     170:	00017d31 	andeq	r7, r1, r1, lsr sp
     174:	0d001400 	cfstrseq	mvf1, [r0, #-0]
     178:	00012404 	andeq	r2, r1, r4, lsl #8
     17c:	01190800 	tsteq	r9, r0, lsl #16
     180:	018d0000 	orreq	r0, sp, r0
     184:	c7090000 	strgt	r0, [r9, -r0]
     188:	00000000 	andeq	r0, r0, r0
     18c:	01e00f00 	mvneq	r0, r0, lsl #30
     190:	05240000 	streq	r0, [r4, #-0]!
     194:	00020635 	andeq	r0, r2, r5, lsr r6
     198:	00a10b00 	adceq	r0, r1, r0, lsl #22
     19c:	37050000 	strcc	r0, [r5, -r0]
     1a0:	00000025 	andeq	r0, r0, r5, lsr #32
     1a4:	03c70b00 	biceq	r0, r7, #0, 22
     1a8:	38050000 	stmdacc	r5, {}	; <UNPREDICTABLE>
     1ac:	00000025 	andeq	r0, r0, r5, lsr #32
     1b0:	00c40b04 	sbceq	r0, r4, r4, lsl #22
     1b4:	39050000 	stmdbcc	r5, {}	; <UNPREDICTABLE>
     1b8:	00000025 	andeq	r0, r0, r5, lsr #32
     1bc:	05220b08 	streq	r0, [r2, #-2824]!	; 0xfffff4f8
     1c0:	3a050000 	bcc	1401c8 <__bss_end__+0x1361a0>
     1c4:	00000025 	andeq	r0, r0, r5, lsr #32
     1c8:	02b90b0c 	adcseq	r0, r9, #12, 22	; 0x3000
     1cc:	3b050000 	blcc	1401d4 <__bss_end__+0x1361ac>
     1d0:	00000025 	andeq	r0, r0, r5, lsr #32
     1d4:	02920b10 	addseq	r0, r2, #16, 22	; 0x4000
     1d8:	3c050000 	stccc	0, cr0, [r5], {-0}
     1dc:	00000025 	andeq	r0, r0, r5, lsr #32
     1e0:	04a60b14 	strteq	r0, [r6], #2836	; 0xb14
     1e4:	3d050000 	stccc	0, cr0, [r5, #-0]
     1e8:	00000025 	andeq	r0, r0, r5, lsr #32
     1ec:	031e0b18 	tsteq	lr, #24, 22	; 0x6000
     1f0:	3e050000 	cdpcc	0, 0, cr0, cr5, cr0, {0}
     1f4:	00000025 	andeq	r0, r0, r5, lsr #32
     1f8:	04e90b1c 	strbteq	r0, [r9], #2844	; 0xb1c
     1fc:	3f050000 	svccc	0x00050000
     200:	00000025 	andeq	r0, r0, r5, lsr #32
     204:	04110020 	ldreq	r0, [r1], #-32	; 0xffffffe0
     208:	08000001 	stmdaeq	r0, {r0}
     20c:	46480501 	strbmi	r0, [r8], -r1, lsl #10
     210:	0b000002 	bleq	220 <_start-0x7de0>
     214:	0000018f 	andeq	r0, r0, pc, lsl #3
     218:	02464905 	subeq	r4, r6, #81920	; 0x14000
     21c:	0b000000 	bleq	224 <_start-0x7ddc>
     220:	00000000 	andeq	r0, r0, r0
     224:	02464a05 	subeq	r4, r6, #20480	; 0x5000
     228:	12800000 	addne	r0, r0, #0
     22c:	00000445 	andeq	r0, r0, r5, asr #8
     230:	01194c05 	tsteq	r9, r5, lsl #24
     234:	01000000 	mrseq	r0, (UNDEF: 0)
     238:	00012912 	andeq	r2, r1, r2, lsl r9
     23c:	194f0500 	stmdbne	pc, {r8, sl}^	; <UNPREDICTABLE>
     240:	04000001 	streq	r0, [r0], #-1
     244:	05080001 	streq	r0, [r8, #-1]
     248:	56000001 	strpl	r0, [r0], -r1
     24c:	09000002 	stmdbeq	r0, {r1}
     250:	000000c7 	andeq	r0, r0, r7, asr #1
     254:	c211001f 	andsgt	r0, r1, #31
     258:	90000002 	andls	r0, r0, r2
     25c:	945b0501 	ldrbls	r0, [fp], #-1281	; 0xfffffaff
     260:	0b000002 	bleq	270 <_start-0x7d90>
     264:	0000035d 	andeq	r0, r0, sp, asr r3
     268:	02945c05 	addseq	r5, r4, #1280	; 0x500
     26c:	0b000000 	bleq	274 <_start-0x7d8c>
     270:	00000375 	andeq	r0, r0, r5, ror r3
     274:	00255d05 	eoreq	r5, r5, r5, lsl #26
     278:	0b040000 	bleq	100280 <__bss_end__+0xf6258>
     27c:	00000197 	muleq	r0, r7, r1
     280:	029a5f05 	addseq	r5, sl, #5, 30
     284:	0b080000 	bleq	20028c <__bss_end__+0x1f6264>
     288:	00000104 	andeq	r0, r0, r4, lsl #2
     28c:	02066005 	andeq	r6, r6, #5
     290:	00880000 	addeq	r0, r8, r0
     294:	0256040d 	subseq	r0, r6, #218103808	; 0xd000000
     298:	aa080000 	bge	2002a0 <__bss_end__+0x1f6278>
     29c:	aa000002 	bge	2ac <_start-0x7d54>
     2a0:	09000002 	stmdbeq	r0, {r1}
     2a4:	000000c7 	andeq	r0, r0, r7, asr #1
     2a8:	040d001f 	streq	r0, [sp], #-31	; 0xffffffe1
     2ac:	000002b0 			; <UNDEFINED> instruction: 0x000002b0
     2b0:	03280f13 			; <UNDEFINED> instruction: 0x03280f13
     2b4:	05080000 	streq	r0, [r8, #-0]
     2b8:	0002d673 	andeq	sp, r2, r3, ror r6
     2bc:	00be0b00 	adcseq	r0, lr, r0, lsl #22
     2c0:	74050000 	strvc	r0, [r5], #-0
     2c4:	000002d6 	ldrdeq	r0, [r0], -r6
     2c8:	001b0b00 	andseq	r0, fp, r0, lsl #22
     2cc:	75050000 	strvc	r0, [r5, #-0]
     2d0:	00000025 	andeq	r0, r0, r5, lsr #32
     2d4:	040d0004 	streq	r0, [sp], #-4
     2d8:	0000004f 	andeq	r0, r0, pc, asr #32
     2dc:	0003470f 	andeq	r4, r3, pc, lsl #14
     2e0:	b3056800 	movwlt	r6, #22528	; 0x5800
     2e4:	00000406 	andeq	r0, r0, r6, lsl #8
     2e8:	00705f10 	rsbseq	r5, r0, r0, lsl pc
     2ec:	02d6b405 	sbcseq	fp, r6, #83886080	; 0x5000000
     2f0:	10000000 	andne	r0, r0, r0
     2f4:	0500725f 	streq	r7, [r0, #-607]	; 0xfffffda1
     2f8:	000025b5 			; <UNDEFINED> instruction: 0x000025b5
     2fc:	5f100400 	svcpl	0x00100400
     300:	b6050077 			; <UNDEFINED> instruction: 0xb6050077
     304:	00000025 	andeq	r0, r0, r5, lsr #32
     308:	01220b08 			; <UNDEFINED> instruction: 0x01220b08
     30c:	b7050000 	strlt	r0, [r5, -r0]
     310:	0000003a 	andeq	r0, r0, sl, lsr r0
     314:	020b0b0c 	andeq	r0, fp, #12, 22	; 0x3000
     318:	b8050000 	stmdalt	r5, {}	; <UNPREDICTABLE>
     31c:	0000003a 	andeq	r0, r0, sl, lsr r0
     320:	625f100e 	subsvs	r1, pc, #14
     324:	b9050066 	stmdblt	r5, {r1, r2, r5, r6}
     328:	000002b1 			; <UNDEFINED> instruction: 0x000002b1
     32c:	007b0b10 	rsbseq	r0, fp, r0, lsl fp
     330:	ba050000 	blt	140338 <__bss_end__+0x136310>
     334:	00000025 	andeq	r0, r0, r5, lsr #32
     338:	01120b18 	tsteq	r2, r8, lsl fp
     33c:	c1050000 	mrsgt	r0, (UNDEF: 5)
     340:	00000105 	andeq	r0, r0, r5, lsl #2
     344:	0a780b1c 	beq	1e02fbc <__bss_end__+0x1df8f94>
     348:	c3050000 	movwgt	r0, #20480	; 0x5000
     34c:	00000561 	andeq	r0, r0, r1, ror #10
     350:	060c0b20 	streq	r0, [ip], -r0, lsr #22
     354:	c5050000 	strgt	r0, [r5, #-0]
     358:	0000058b 	andeq	r0, r0, fp, lsl #11
     35c:	03b90b24 			; <UNDEFINED> instruction: 0x03b90b24
     360:	c8050000 	stmdagt	r5, {}	; <UNPREDICTABLE>
     364:	000005af 	andeq	r0, r0, pc, lsr #11
     368:	05030b28 	streq	r0, [r3, #-2856]	; 0xfffff4d8
     36c:	c9050000 	stmdbgt	r5, {}	; <UNPREDICTABLE>
     370:	000005c9 	andeq	r0, r0, r9, asr #11
     374:	755f102c 	ldrbvc	r1, [pc, #-44]	; 350 <_start-0x7cb0>
     378:	cc050062 	stcgt	0, cr0, [r5], {98}	; 0x62
     37c:	000002b1 			; <UNDEFINED> instruction: 0x000002b1
     380:	755f1030 	ldrbvc	r1, [pc, #-48]	; 358 <_start-0x7ca8>
     384:	cd050070 	stcgt	0, cr0, [r5, #-448]	; 0xfffffe40
     388:	000002d6 	ldrdeq	r0, [r0], -r6
     38c:	755f1038 	ldrbvc	r1, [pc, #-56]	; 35c <_start-0x7ca4>
     390:	ce050072 	mcrgt	0, 0, r0, cr5, cr2, {3}
     394:	00000025 	andeq	r0, r0, r5, lsr #32
     398:	00b80b3c 	adcseq	r0, r8, ip, lsr fp
     39c:	d1050000 	mrsle	r0, (UNDEF: 5)
     3a0:	000005cf 	andeq	r0, r0, pc, asr #11
     3a4:	04db0b40 	ldrbeq	r0, [fp], #2880	; 0xb40
     3a8:	d2050000 	andle	r0, r5, #0
     3ac:	000005df 	ldrdeq	r0, [r0], -pc	; <UNPREDICTABLE>
     3b0:	6c5f1043 	mrrcvs	0, 4, r1, pc, cr3	; <UNPREDICTABLE>
     3b4:	d5050062 	strle	r0, [r5, #-98]	; 0xffffff9e
     3b8:	000002b1 			; <UNDEFINED> instruction: 0x000002b1
     3bc:	01400b44 	cmpeq	r0, r4, asr #22
     3c0:	d8050000 	stmdale	r5, {}	; <UNPREDICTABLE>
     3c4:	00000025 	andeq	r0, r0, r5, lsr #32
     3c8:	01510b4c 	cmpeq	r1, ip, asr #22
     3cc:	d9050000 	stmdble	r5, {}	; <UNPREDICTABLE>
     3d0:	00000076 	andeq	r0, r0, r6, ror r0
     3d4:	0a190b50 	beq	64311c <__bss_end__+0x6390f4>
     3d8:	dc050000 	stcle	0, cr0, [r5], {-0}
     3dc:	00000424 	andeq	r0, r0, r4, lsr #8
     3e0:	02840b54 	addeq	r0, r4, #84, 22	; 0x15000
     3e4:	e0050000 	and	r0, r5, r0
     3e8:	000000fa 	strdeq	r0, [r0], -sl
     3ec:	034f0b58 	movteq	r0, #64344	; 0xfb58
     3f0:	e2050000 	and	r0, r5, #0
     3f4:	000000ef 	andeq	r0, r0, pc, ror #1
     3f8:	028a0b5c 	addeq	r0, sl, #92, 22	; 0x17000
     3fc:	e3050000 	movw	r0, #20480	; 0x5000
     400:	00000025 	andeq	r0, r0, r5, lsr #32
     404:	25140064 	ldrcs	r0, [r4, #-100]	; 0xffffff9c
     408:	24000000 	strcs	r0, [r0], #-0
     40c:	15000004 	strne	r0, [r0, #-4]
     410:	00000424 	andeq	r0, r0, r4, lsr #8
     414:	00010515 	andeq	r0, r1, r5, lsl r5
     418:	01071500 	tsteq	r7, r0, lsl #10
     41c:	25150000 	ldrcs	r0, [r5, #-0]
     420:	00000000 	andeq	r0, r0, r0
     424:	042f040d 	strteq	r0, [pc], #-1037	; 42c <_start-0x7bd4>
     428:	240e0000 	strcs	r0, [lr], #-0
     42c:	16000004 	strne	r0, [r0], -r4
     430:	0000039c 	muleq	r0, ip, r3
     434:	38050428 	stmdacc	r5, {r3, r5, sl}
     438:	00056102 	andeq	r6, r5, r2, lsl #2
     43c:	030d1700 	movweq	r1, #55040	; 0xd700
     440:	3a050000 	bcc	140448 <__bss_end__+0x136420>
     444:	00002502 	andeq	r2, r0, r2, lsl #10
     448:	31170000 	tstcc	r7, r0
     44c:	05000001 	streq	r0, [r0, #-1]
     450:	0636023f 			; <UNDEFINED> instruction: 0x0636023f
     454:	17040000 	strne	r0, [r4, -r0]
     458:	000001fb 	strdeq	r0, [r0], -fp
     45c:	36023f05 	strcc	r3, [r2], -r5, lsl #30
     460:	08000006 	stmdaeq	r0, {r1, r2}
     464:	0001ab17 	andeq	sl, r1, r7, lsl fp
     468:	023f0500 	eorseq	r0, pc, #0, 10
     46c:	00000636 	andeq	r0, r0, r6, lsr r6
     470:	0370170c 	cmneq	r0, #12, 14	; 0x300000
     474:	41050000 	mrsmi	r0, (UNDEF: 5)
     478:	00002502 	andeq	r2, r0, r2, lsl #10
     47c:	29171000 	ldmdbcs	r7, {ip}
     480:	05000000 	streq	r0, [r0, #-0]
     484:	08180242 	ldmdaeq	r8, {r1, r6, r9}
     488:	17140000 	ldrne	r0, [r4, -r0]
     48c:	0000047b 	andeq	r0, r0, fp, ror r4
     490:	25024405 	strcs	r4, [r2, #-1029]	; 0xfffffbfb
     494:	30000000 	andcc	r0, r0, r0
     498:	00037a17 	andeq	r7, r3, r7, lsl sl
     49c:	02450500 	subeq	r0, r5, #0, 10
     4a0:	00000585 	andeq	r0, r0, r5, lsl #11
     4a4:	02ca1734 	sbceq	r1, sl, #52, 14	; 0xd00000
     4a8:	47050000 	strmi	r0, [r5, -r0]
     4ac:	00002502 	andeq	r2, r0, r2, lsl #10
     4b0:	8a173800 	bhi	5ce4b8 <__bss_end__+0x5c4490>
     4b4:	05000003 	streq	r0, [r0, #-3]
     4b8:	08330249 	ldmdaeq	r3!, {r0, r3, r6, r9}
     4bc:	173c0000 	ldrne	r0, [ip, -r0]!
     4c0:	00000268 	andeq	r0, r0, r8, ror #4
     4c4:	77024c05 	strvc	r4, [r2, -r5, lsl #24]
     4c8:	40000001 	andmi	r0, r0, r1
     4cc:	0001ca17 	andeq	ip, r1, r7, lsl sl
     4d0:	024d0500 	subeq	r0, sp, #0, 10
     4d4:	00000025 	andeq	r0, r0, r5, lsr #32
     4d8:	051d1744 	ldreq	r1, [sp, #-1860]	; 0xfffff8bc
     4dc:	4e050000 	cdpmi	0, 0, cr0, cr5, cr0, {0}
     4e0:	00017702 	andeq	r7, r1, r2, lsl #14
     4e4:	dc174800 	ldcle	8, cr4, [r7], {-0}
     4e8:	05000002 	streq	r0, [r0, #-2]
     4ec:	0839024f 	ldmdaeq	r9!, {r0, r1, r2, r3, r6, r9}
     4f0:	174c0000 	strbne	r0, [ip, -r0]
     4f4:	00000203 	andeq	r0, r0, r3, lsl #4
     4f8:	25025205 	strcs	r5, [r2, #-517]	; 0xfffffdfb
     4fc:	50000000 	andpl	r0, r0, r0
     500:	00014917 	andeq	r4, r1, r7, lsl r9
     504:	02530500 	subseq	r0, r3, #0, 10
     508:	00000107 	andeq	r0, r0, r7, lsl #2
     50c:	03061754 	movweq	r1, #26452	; 0x6754
     510:	76050000 	strvc	r0, [r5], -r0
     514:	0007f602 	andeq	pc, r7, r2, lsl #12
     518:	c2185800 	andsgt	r5, r8, #0, 16
     51c:	05000002 	streq	r0, [r0, #-2]
     520:	0294027a 	addseq	r0, r4, #-1610612729	; 0xa0000007
     524:	01480000 	mrseq	r0, (UNDEF: 72)
     528:	00024618 	andeq	r4, r2, r8, lsl r6
     52c:	027b0500 	rsbseq	r0, fp, #0, 10
     530:	00000256 	andeq	r0, r0, r6, asr r2
     534:	c918014c 	ldmdbgt	r8, {r2, r3, r6, r8}
     538:	05000004 	streq	r0, [r0, #-4]
     53c:	084a027f 	stmdaeq	sl, {r0, r1, r2, r3, r4, r5, r6, r9}^
     540:	02dc0000 	sbcseq	r0, ip, #0
     544:	00011a18 	andeq	r1, r1, r8, lsl sl
     548:	02840500 	addeq	r0, r4, #0, 10
     54c:	000005fb 	strdeq	r0, [r0], -fp
     550:	ff1802e0 			; <UNDEFINED> instruction: 0xff1802e0
     554:	05000000 	streq	r0, [r0, #-0]
     558:	08560285 	ldmdaeq	r6, {r0, r2, r7, r9}^
     55c:	02ec0000 	rsceq	r0, ip, #0
     560:	06040d00 	streq	r0, [r4], -r0, lsl #26
     564:	14000004 	strne	r0, [r0], #-4
     568:	00000025 	andeq	r0, r0, r5, lsr #32
     56c:	00000585 	andeq	r0, r0, r5, lsl #11
     570:	00042415 	andeq	r2, r4, r5, lsl r4
     574:	01051500 	tsteq	r5, r0, lsl #10
     578:	85150000 	ldrhi	r0, [r5, #-0]
     57c:	15000005 	strne	r0, [r0, #-5]
     580:	00000025 	andeq	r0, r0, r5, lsr #32
     584:	14040d00 	strne	r0, [r4], #-3328	; 0xfffff300
     588:	0d000001 	stceq	0, cr0, [r0, #-4]
     58c:	00056704 	andeq	r6, r5, r4, lsl #14
     590:	00811400 	addeq	r1, r1, r0, lsl #8
     594:	05af0000 	streq	r0, [pc, #0]!	; 59c <_start-0x7a64>
     598:	24150000 	ldrcs	r0, [r5], #-0
     59c:	15000004 	strne	r0, [r0, #-4]
     5a0:	00000105 	andeq	r0, r0, r5, lsl #2
     5a4:	00008115 	andeq	r8, r0, r5, lsl r1
     5a8:	00251500 	eoreq	r1, r5, r0, lsl #10
     5ac:	0d000000 	stceq	0, cr0, [r0, #-0]
     5b0:	00059104 	andeq	r9, r5, r4, lsl #2
     5b4:	00251400 	eoreq	r1, r5, r0, lsl #8
     5b8:	05c90000 	strbeq	r0, [r9]
     5bc:	24150000 	ldrcs	r0, [r5], #-0
     5c0:	15000004 	strne	r0, [r0, #-4]
     5c4:	00000105 	andeq	r0, r0, r5, lsl #2
     5c8:	b5040d00 	strlt	r0, [r4, #-3328]	; 0xfffff300
     5cc:	08000005 	stmdaeq	r0, {r0, r2}
     5d0:	0000004f 	andeq	r0, r0, pc, asr #32
     5d4:	000005df 	ldrdeq	r0, [r0], -pc	; <UNPREDICTABLE>
     5d8:	0000c709 	andeq	ip, r0, r9, lsl #14
     5dc:	08000200 	stmdaeq	r0, {r9}
     5e0:	0000004f 	andeq	r0, r0, pc, asr #32
     5e4:	000005ef 	andeq	r0, r0, pc, ror #11
     5e8:	0000c709 	andeq	ip, r0, r9, lsl #14
     5ec:	05000000 	streq	r0, [r0, #-0]
     5f0:	00000335 	andeq	r0, r0, r5, lsr r3
     5f4:	dc011d05 	stcle	13, cr1, [r1], {5}
     5f8:	19000002 	stmdbne	r0, {r1}
     5fc:	000004b0 			; <UNDEFINED> instruction: 0x000004b0
     600:	0121050c 			; <UNDEFINED> instruction: 0x0121050c
     604:	00000630 	andeq	r0, r0, r0, lsr r6
     608:	00035d17 	andeq	r5, r3, r7, lsl sp
     60c:	01230500 			; <UNDEFINED> instruction: 0x01230500
     610:	00000630 	andeq	r0, r0, r0, lsr r6
     614:	021e1700 	andseq	r1, lr, #0, 14
     618:	24050000 	strcs	r0, [r5], #-0
     61c:	00002501 	andeq	r2, r0, r1, lsl #10
     620:	2f170400 	svccs	0x00170400
     624:	05000003 	streq	r0, [r0, #-3]
     628:	06360125 	ldrteq	r0, [r6], -r5, lsr #2
     62c:	00080000 	andeq	r0, r8, r0
     630:	05fb040d 	ldrbeq	r0, [fp, #1037]!	; 0x40d
     634:	040d0000 	streq	r0, [sp], #-0
     638:	000005ef 	andeq	r0, r0, pc, ror #11
     63c:	00002119 	andeq	r2, r0, r9, lsl r1
     640:	3d050e00 	stccc	14, cr0, [r5, #-0]
     644:	00067101 	andeq	r7, r6, r1, lsl #2
     648:	03a31700 			; <UNDEFINED> instruction: 0x03a31700
     64c:	3e050000 	cdpcc	0, 0, cr0, cr5, cr0, {0}
     650:	00067101 	andeq	r7, r6, r1, lsl #2
     654:	d0170000 	andsle	r0, r7, r0
     658:	05000003 	streq	r0, [r0, #-3]
     65c:	0671013f 			; <UNDEFINED> instruction: 0x0671013f
     660:	17060000 	strne	r0, [r6, -r0]
     664:	0000044e 	andeq	r0, r0, lr, asr #8
     668:	56014005 	strpl	r4, [r1], -r5
     66c:	0c000000 	stceq	0, cr0, [r0], {-0}
     670:	00560800 	subseq	r0, r6, r0, lsl #16
     674:	06810000 	streq	r0, [r1], r0
     678:	c7090000 	strgt	r0, [r9, -r0]
     67c:	02000000 	andeq	r0, r0, #0
     680:	05d01a00 	ldrbeq	r1, [r0, #2560]	; 0xa00
     684:	07820257 			; <UNDEFINED> instruction: 0x07820257
     688:	94170000 	ldrls	r0, [r7], #-0
     68c:	05000004 	streq	r0, [r0, #-4]
     690:	002c0259 	eoreq	r0, ip, r9, asr r2
     694:	17000000 	strne	r0, [r0, -r0]
     698:	00000438 	andeq	r0, r0, r8, lsr r4
     69c:	07025a05 	streq	r5, [r2, -r5, lsl #20]
     6a0:	04000001 	streq	r0, [r0], #-1
     6a4:	00025b17 	andeq	r5, r2, r7, lsl fp
     6a8:	025b0500 	subseq	r0, fp, #0, 10
     6ac:	00000782 	andeq	r0, r0, r2, lsl #15
     6b0:	04f41708 	ldrbteq	r1, [r4], #1800	; 0x708
     6b4:	5c050000 	stcpl	0, cr0, [r5], {-0}
     6b8:	00018d02 	andeq	r8, r1, r2, lsl #26
     6bc:	bb172400 	bllt	5c96c4 <__bss_end__+0x5bf69c>
     6c0:	05000001 	streq	r0, [r0, #-1]
     6c4:	0025025d 	eoreq	r0, r5, sp, asr r2
     6c8:	17480000 	strbne	r0, [r8, -r0]
     6cc:	00000358 	andeq	r0, r0, r8, asr r3
     6d0:	64025e05 	strvs	r5, [r2], #-3589	; 0xfffff1fb
     6d4:	50000000 	andpl	r0, r0, r0
     6d8:	00050a17 	andeq	r0, r5, r7, lsl sl
     6dc:	025f0500 	subseq	r0, pc, #0, 10
     6e0:	0000063c 	andeq	r0, r0, ip, lsr r6
     6e4:	03631758 	cmneq	r3, #88, 14	; 0x1600000
     6e8:	60050000 	andvs	r0, r5, r0
     6ec:	0000ef02 	andeq	lr, r0, r2, lsl #30
     6f0:	0f176800 	svceq	0x00176800
     6f4:	05000005 	streq	r0, [r0, #-5]
     6f8:	00ef0261 	rsceq	r0, pc, r1, ror #4
     6fc:	17700000 	ldrbne	r0, [r0, -r0]!
     700:	00000093 	muleq	r0, r3, r0
     704:	ef026205 	svc	0x00026205
     708:	78000000 	stmdavc	r0, {}	; <UNPREDICTABLE>
     70c:	0004bf17 	andeq	fp, r4, r7, lsl pc
     710:	02630500 	rsbeq	r0, r3, #0, 10
     714:	00000792 	muleq	r0, r2, r7
     718:	024f1780 	subeq	r1, pc, #128, 14	; 0x2000000
     71c:	64050000 	strvs	r0, [r5], #-0
     720:	0007a202 	andeq	sl, r7, r2, lsl #4
     724:	5b178800 	blpl	5e272c <__bss_end__+0x5d8704>
     728:	05000004 	streq	r0, [r0, #-4]
     72c:	00250265 	eoreq	r0, r5, r5, ror #4
     730:	17a00000 	strne	r0, [r0, r0]!
     734:	00000181 	andeq	r0, r0, r1, lsl #3
     738:	ef026605 	svc	0x00026605
     73c:	a4000000 	strge	r0, [r0], #-0
     740:	00008417 	andeq	r8, r0, r7, lsl r4
     744:	02670500 	rsbeq	r0, r7, #0, 10
     748:	000000ef 	andeq	r0, r0, pc, ror #1
     74c:	017017ac 	cmneq	r0, ip, lsr #15
     750:	68050000 	stmdavs	r5, {}	; <UNPREDICTABLE>
     754:	0000ef02 	andeq	lr, r0, r2, lsl #30
     758:	3c17b400 	cfldrscc	mvf11, [r7], {-0}
     75c:	05000000 	streq	r0, [r0, #-0]
     760:	00ef0269 	rsceq	r0, pc, r9, ror #4
     764:	17bc0000 	ldrne	r0, [ip, r0]!
     768:	0000004b 	andeq	r0, r0, fp, asr #32
     76c:	ef026a05 	svc	0x00026a05
     770:	c4000000 	strgt	r0, [r0], #-0
     774:	00030b17 	andeq	r0, r3, r7, lsl fp
     778:	026b0500 	rsbeq	r0, fp, #0, 10
     77c:	00000025 	andeq	r0, r0, r5, lsr #32
     780:	0d0800cc 	stceq	0, cr0, [r8, #-816]	; 0xfffffcd0
     784:	92000001 	andls	r0, r0, #1
     788:	09000007 	stmdbeq	r0, {r0, r1, r2}
     78c:	000000c7 	andeq	r0, r0, r7, asr #1
     790:	0d080019 	stceq	0, cr0, [r8, #-100]	; 0xffffff9c
     794:	a2000001 	andge	r0, r0, #1
     798:	09000007 	stmdbeq	r0, {r0, r1, r2}
     79c:	000000c7 	andeq	r0, r0, r7, asr #1
     7a0:	0d080007 	stceq	0, cr0, [r8, #-28]	; 0xffffffe4
     7a4:	b2000001 	andlt	r0, r0, #1
     7a8:	09000007 	stmdbeq	r0, {r0, r1, r2}
     7ac:	000000c7 	andeq	r0, r0, r7, asr #1
     7b0:	f01a0017 			; <UNDEFINED> instruction: 0xf01a0017
     7b4:	d6027005 	strle	r7, [r2], -r5
     7b8:	17000007 	strne	r0, [r0, -r7]
     7bc:	000002b2 			; <UNDEFINED> instruction: 0x000002b2
     7c0:	d6027305 	strle	r7, [r2], -r5, lsl #6
     7c4:	00000007 	andeq	r0, r0, r7
     7c8:	0004b617 	andeq	fp, r4, r7, lsl r6
     7cc:	02740500 	rsbseq	r0, r4, #0, 10
     7d0:	000007e6 	andeq	r0, r0, r6, ror #15
     7d4:	d6080078 			; <UNDEFINED> instruction: 0xd6080078
     7d8:	e6000002 	str	r0, [r0], -r2
     7dc:	09000007 	stmdbeq	r0, {r0, r1, r2}
     7e0:	000000c7 	andeq	r0, r0, r7, asr #1
     7e4:	2c08001d 	stccs	0, cr0, [r8], {29}
     7e8:	f6000000 			; <UNDEFINED> instruction: 0xf6000000
     7ec:	09000007 	stmdbeq	r0, {r0, r1, r2}
     7f0:	000000c7 	andeq	r0, r0, r7, asr #1
     7f4:	f01b001d 			; <UNDEFINED> instruction: 0xf01b001d
     7f8:	18025505 	stmdane	r2, {r0, r2, r8, sl, ip, lr}
     7fc:	1c000008 	stcne	0, cr0, [r0], {8}
     800:	0000039c 	muleq	r0, ip, r3
     804:	81026c05 	tsthi	r2, r5, lsl #24
     808:	1c000006 	stcne	0, cr0, [r0], {6}
     80c:	000004e1 	andeq	r0, r0, r1, ror #9
     810:	b2027505 	andlt	r7, r2, #20971520	; 0x1400000
     814:	00000007 	andeq	r0, r0, r7
     818:	00010d08 	andeq	r0, r1, r8, lsl #26
     81c:	00082800 	andeq	r2, r8, r0, lsl #16
     820:	00c70900 	sbceq	r0, r7, r0, lsl #18
     824:	00180000 	andseq	r0, r8, r0
     828:	0008331d 	andeq	r3, r8, sp, lsl r3
     82c:	04241500 	strteq	r1, [r4], #-1280	; 0xfffffb00
     830:	0d000000 	stceq	0, cr0, [r0, #-0]
     834:	00082804 	andeq	r2, r8, r4, lsl #16
     838:	77040d00 	strvc	r0, [r4, -r0, lsl #26]
     83c:	1d000001 	stcne	0, cr0, [r0, #-4]
     840:	0000084a 	andeq	r0, r0, sl, asr #16
     844:	00002515 	andeq	r2, r0, r5, lsl r5
     848:	040d0000 	streq	r0, [sp], #-0
     84c:	00000850 	andeq	r0, r0, r0, asr r8
     850:	083f040d 	ldmdaeq	pc!, {r0, r2, r3, sl}	; <UNPREDICTABLE>
     854:	ef080000 	svc	0x00080000
     858:	66000005 	strvs	r0, [r0], -r5
     85c:	09000008 	stmdbeq	r0, {r3}
     860:	000000c7 	andeq	r0, r0, r7, asr #1
     864:	6f1e0002 	svcvs	0x001e0002
     868:	05000004 	streq	r0, [r0, #-4]
     86c:	042402fd 	strteq	r0, [r4], #-765	; 0xfffffd03
     870:	681e0000 	ldmdavs	lr, {}	; <UNPREDICTABLE>
     874:	05000004 	streq	r0, [r0, #-4]
     878:	042a02fe 	strteq	r0, [sl], #-766	; 0xfffffd02
     87c:	25140000 	ldrcs	r0, [r4, #-0]
     880:	8d000000 	stchi	0, cr0, [r0, #-0]
     884:	15000008 	strne	r0, [r0, #-8]
     888:	00000025 	andeq	r0, r0, r5, lsr #32
     88c:	01d41f00 	bicseq	r1, r4, r0, lsl #30
     890:	1d060000 	stcne	0, cr0, [r6, #-0]
     894:	00000898 	muleq	r0, r8, r8
     898:	087e040d 	ldmdaeq	lr!, {r0, r2, r3, sl}^
     89c:	25140000 	ldrcs	r0, [r4, #-0]
     8a0:	ad000000 	stcge	0, cr0, [r0, #-0]
     8a4:	15000008 	strne	r0, [r0, #-8]
     8a8:	00000585 	andeq	r0, r0, r5, lsl #11
     8ac:	07691f00 	strbeq	r1, [r9, -r0, lsl #30]!
     8b0:	22060000 	andcs	r0, r6, #0
     8b4:	000008b8 			; <UNDEFINED> instruction: 0x000008b8
     8b8:	089e040d 	ldmeq	lr, {r0, r2, r3, sl}
     8bc:	34200000 	strtcc	r0, [r0], #-0
     8c0:	01000000 	mrseq	r0, (UNDEF: 0)
     8c4:	0080100d 	addeq	r1, r0, sp
     8c8:	0000d400 	andeq	sp, r0, r0, lsl #8
     8cc:	5f9c0100 	svcpl	0x009c0100
     8d0:	2100000a 	tstcs	r0, sl
     8d4:	1201006e 	andne	r0, r1, #110	; 0x6e
     8d8:	0000002c 	andeq	r0, r0, ip, lsr #32
     8dc:	00100000 	andseq	r0, r0, r0
     8e0:	01007022 	tsteq	r0, r2, lsr #32
     8e4:	00010715 	andeq	r0, r1, r5, lsl r7
     8e8:	00000000 	andeq	r0, r0, r0
     8ec:	02112300 	andseq	r2, r1, #0, 6
     8f0:	0a6f0000 	beq	1bc08f8 <__bss_end__+0x1bb68d0>
     8f4:	03050000 	movweq	r0, #20480	; 0x5000
     8f8:	0000966c 	andeq	r9, r0, ip, ror #12
     8fc:	00801c24 	addeq	r1, r0, r4, lsr #24
     900:	000a7400 	andeq	r7, sl, r0, lsl #8
     904:	00091300 	andeq	r1, r9, r0, lsl #6
     908:	50012500 	andpl	r2, r1, r0, lsl #10
     90c:	96740305 	ldrbtls	r0, [r4], -r5, lsl #6
     910:	24000000 	strcs	r0, [r0], #-0
     914:	00008024 	andeq	r8, r0, r4, lsr #32
     918:	00000a7f 	andeq	r0, r0, pc, ror sl
     91c:	00000928 	andeq	r0, r0, r8, lsr #18
     920:	03500125 	cmpeq	r0, #1073741833	; 0x40000009
     924:	00244040 	eoreq	r4, r4, r0, asr #32
     928:	00802c24 	addeq	r2, r0, r4, lsr #24
     92c:	000a8a00 	andeq	r8, sl, r0, lsl #20
     930:	00093d00 	andeq	r3, r9, r0, lsl #26
     934:	50012500 	andpl	r2, r1, r0, lsl #10
     938:	24404003 	strbcs	r4, [r0], #-3
     93c:	80342400 	eorshi	r2, r4, r0, lsl #8
     940:	0a950000 	beq	fe540948 <__bss_end__+0xfe536920>
     944:	09520000 	ldmdbeq	r2, {}^	; <UNPREDICTABLE>
     948:	01250000 			; <UNDEFINED> instruction: 0x01250000
     94c:	40400351 	submi	r0, r0, r1, asr r3
     950:	50240024 	eorpl	r0, r4, r4, lsr #32
     954:	a0000080 	andge	r0, r0, r0, lsl #1
     958:	7600000a 	strvc	r0, [r0], -sl
     95c:	25000009 	strcs	r0, [r0, #-9]
     960:	34015001 	strcc	r5, [r1], #-1
     964:	02510125 	subseq	r0, r1, #1073741833	; 0x40000009
     968:	01250075 			; <UNDEFINED> instruction: 0x01250075
     96c:	00760252 	rsbseq	r0, r6, r2, asr r2
     970:	01530125 	cmpeq	r3, r5, lsr #2
     974:	5c240045 	stcpl	0, cr0, [r4], #-276	; 0xfffffeec
     978:	74000080 	strvc	r0, [r0], #-128	; 0xffffff80
     97c:	8d00000a 	stchi	0, cr0, [r0, #-40]	; 0xffffffd8
     980:	25000009 	strcs	r0, [r0, #-9]
     984:	03055001 	movweq	r5, #20481	; 0x5001
     988:	0000968c 	andeq	r9, r0, ip, lsl #13
     98c:	80682400 	rsbhi	r2, r8, r0, lsl #8
     990:	0a740000 	beq	1d00998 <__bss_end__+0x1cf6970>
     994:	09aa0000 	stmibeq	sl!, {}	; <UNPREDICTABLE>
     998:	01250000 			; <UNDEFINED> instruction: 0x01250000
     99c:	94030550 	strls	r0, [r3], #-1360	; 0xfffffab0
     9a0:	25000096 	strcs	r0, [r0, #-150]	; 0xffffff6a
     9a4:	74025101 	strvc	r5, [r2], #-257	; 0xfffffeff
     9a8:	78240000 	stmdavc	r4!, {}	; <UNPREDICTABLE>
     9ac:	ab000080 	blge	bb4 <_start-0x744c>
     9b0:	c800000a 	stmdagt	r0, {r1, r3}
     9b4:	25000009 	strcs	r0, [r0, #-9]
     9b8:	74025001 	strvc	r5, [r2], #-1
     9bc:	51012500 	tstpl	r1, r0, lsl #10
     9c0:	01253001 			; <UNDEFINED> instruction: 0x01253001
     9c4:	00340152 	eorseq	r0, r4, r2, asr r1
     9c8:	00808c24 	addeq	r8, r0, r4, lsr #24
     9cc:	000ab600 	andeq	fp, sl, r0, lsl #12
     9d0:	0009ed00 	andeq	lr, r9, r0, lsl #26
     9d4:	50012500 	andpl	r2, r1, r0, lsl #10
     9d8:	25007402 	strcs	r7, [r0, #-1026]	; 0xfffffbfe
     9dc:	75025101 	strvc	r5, [r2, #-257]	; 0xfffffeff
     9e0:	52012500 	andpl	r2, r1, #0, 10
     9e4:	25007602 	strcs	r7, [r0, #-1538]	; 0xfffff9fe
     9e8:	48015301 	stmdami	r1, {r0, r8, r9, ip, lr}
     9ec:	80902600 	addshi	r2, r0, r0, lsl #12
     9f0:	0ac10000 	beq	ff0409f8 <__bss_end__+0xff0369d0>
     9f4:	a0240000 	eorge	r0, r4, r0
     9f8:	74000080 	strvc	r0, [r0], #-128	; 0xffffff80
     9fc:	0d00000a 	stceq	0, cr0, [r0, #-40]	; 0xffffffd8
     a00:	2500000a 	strcs	r0, [r0, #-10]
     a04:	03055001 	movweq	r5, #20481	; 0x5001
     a08:	0000968c 	andeq	r9, r0, ip, lsl #13
     a0c:	80a82400 	adchi	r2, r8, r0, lsl #8
     a10:	0a740000 	beq	1d00a18 <__bss_end__+0x1cf69f0>
     a14:	0a240000 	beq	900a1c <__bss_end__+0x8f69f4>
     a18:	01250000 			; <UNDEFINED> instruction: 0x01250000
     a1c:	cc030550 	cfstr32gt	mvfx0, [r3], {80}	; 0x50
     a20:	00000096 	muleq	r0, r6, r0
     a24:	0080b026 	addeq	fp, r0, r6, lsr #32
     a28:	000acc00 	andeq	ip, sl, r0, lsl #24
     a2c:	80c42400 	sbchi	r2, r4, r0, lsl #8
     a30:	0a740000 	beq	1d00a38 <__bss_end__+0x1cf6a10>
     a34:	0a550000 	beq	1540a3c <__bss_end__+0x1536a14>
     a38:	01250000 			; <UNDEFINED> instruction: 0x01250000
     a3c:	a8030550 	stmdage	r3, {r4, r6, r8, sl}
     a40:	25000096 	strcs	r0, [r0, #-150]	; 0xffffff6a
     a44:	75025101 	strvc	r5, [r2, #-257]	; 0xfffffeff
     a48:	52012500 	andpl	r2, r1, #0, 10
     a4c:	25007602 	strcs	r7, [r0, #-1538]	; 0xfffff9fe
     a50:	4a015301 	bmi	5565c <__bss_end__+0x4b634>
     a54:	80c82600 	sbchi	r2, r8, r0, lsl #12
     a58:	0ad70000 	beq	ff5c0a60 <__bss_end__+0xff5b6a38>
     a5c:	08000000 	stmdaeq	r0, {}	; <UNPREDICTABLE>
     a60:	00000114 	andeq	r0, r0, r4, lsl r1
     a64:	00000a6f 	andeq	r0, r0, pc, ror #20
     a68:	0000c709 	andeq	ip, r0, r9, lsl #14
     a6c:	0e000700 	cdpeq	7, 0, cr0, cr0, cr0, {0}
     a70:	00000a5f 	andeq	r0, r0, pc, asr sl
     a74:	0006b527 	andeq	fp, r6, r7, lsr #10
     a78:	0006b500 	andeq	fp, r6, r0, lsl #10
     a7c:	27290600 	strcs	r0, [r9, -r0, lsl #12]!
     a80:	00000159 	andeq	r0, r0, r9, asr r1
     a84:	00000159 	andeq	r0, r0, r9, asr r1
     a88:	d3277206 			; <UNDEFINED> instruction: 0xd3277206
     a8c:	d3000004 	movwle	r0, #4
     a90:	06000004 	streq	r0, [r0], -r4
     a94:	0138276c 	teqeq	r8, ip, ror #14
     a98:	01380000 	teqeq	r8, r0
     a9c:	77070000 	strvc	r0, [r7, -r0]
     aa0:	00007327 	andeq	r7, r0, r7, lsr #6
     aa4:	00007300 	andeq	r7, r0, r0, lsl #6
     aa8:	27740700 	ldrbcs	r0, [r4, -r0, lsl #14]!
     aac:	0000048d 	andeq	r0, r0, sp, lsl #9
     ab0:	0000048d 	andeq	r0, r0, sp, lsl #9
     ab4:	7d271908 			; <UNDEFINED> instruction: 0x7d271908
     ab8:	7d000002 	stcvc	0, cr0, [r0, #-8]
     abc:	07000002 	streq	r0, [r0, -r2]
     ac0:	000c2775 	andeq	r2, ip, r5, ror r7
     ac4:	000c0000 	andeq	r0, ip, r0
     ac8:	7d070000 	stcvc	0, cr0, [r7, #-0]
     acc:	0001ec27 	andeq	lr, r1, r7, lsr #24
     ad0:	0001ec00 	andeq	lr, r1, r0, lsl #24
     ad4:	271e0600 	ldrcs	r0, [lr, -r0, lsl #12]
     ad8:	0000029c 	muleq	r0, ip, r2
     adc:	0000029c 	muleq	r0, ip, r2
     ae0:	c9006506 	stmdbgt	r0, {r1, r2, r8, sl, sp, lr}
     ae4:	04000017 	streq	r0, [r0], #-23	; 0xffffffe9
     ae8:	00020000 	andeq	r0, r2, r0
     aec:	d6010400 	strle	r0, [r1], -r0, lsl #8
     af0:	0c000003 	stceq	0, cr0, [r0], {3}
     af4:	000005c6 	andeq	r0, r0, r6, asr #11
     af8:	000000ce 	andeq	r0, r0, lr, asr #1
     afc:	000080e4 	andeq	r8, r0, r4, ror #1
     b00:	00000878 	andeq	r0, r0, r8, ror r8
     b04:	00000110 	andeq	r0, r0, r0, lsl r1
     b08:	69050402 	stmdbvs	r5, {r1, sl}
     b0c:	0300746e 	movweq	r7, #1134	; 0x46e
     b10:	00660704 	rsbeq	r0, r6, r4, lsl #14
     b14:	01030000 	mrseq	r0, (UNDEF: 3)
     b18:	0002fa06 	andeq	pc, r2, r6, lsl #20
     b1c:	05020300 	streq	r0, [r2, #-768]	; 0xfffffd00
     b20:	00000314 	andeq	r0, r0, r4, lsl r3
     b24:	af050403 	svcge	0x00050403
     b28:	03000000 	movweq	r0, #0
     b2c:	00aa0508 	adceq	r0, sl, r8, lsl #10
     b30:	79040000 	stmdbvc	r4, {}	; <UNPREDICTABLE>
     b34:	03000006 	movweq	r0, #6
     b38:	00005a2e 	andeq	r5, r0, lr, lsr #20
     b3c:	08010300 	stmdaeq	r1, {r8, r9}
     b40:	000002f8 	strdeq	r0, [r0], -r8
     b44:	25070203 	strcs	r0, [r7, #-515]	; 0xfffffdfd
     b48:	04000002 	streq	r0, [r0], #-2
     b4c:	00000637 	andeq	r0, r0, r7, lsr r6
     b50:	00733403 	rsbseq	r3, r3, r3, lsl #8
     b54:	04030000 	streq	r0, [r3], #-0
     b58:	00006107 	andeq	r6, r0, r7, lsl #2
     b5c:	07080300 	streq	r0, [r8, -r0, lsl #6]
     b60:	0000005c 	andeq	r0, r0, ip, asr r0
     b64:	0002e604 	andeq	lr, r2, r4, lsl #12
     b68:	25070400 	strcs	r0, [r7, #-1024]	; 0xfffffc00
     b6c:	04000000 	streq	r0, [r0], #-0
     b70:	000002d5 	ldrdeq	r0, [r0], -r5
     b74:	00412c05 	subeq	r2, r1, r5, lsl #24
     b78:	bf040000 	svclt	0x00040000
     b7c:	05000003 	streq	r0, [r0, #-3]
     b80:	00004172 	andeq	r4, r0, r2, ror r1
     b84:	02760500 	rsbseq	r0, r6, #0, 10
     b88:	65060000 	strvs	r0, [r6, #-0]
     b8c:	00002c01 	andeq	r2, r0, r1, lsl #24
     b90:	05040600 	streq	r0, [r4, #-1536]	; 0xfffffa00
     b94:	0000cda6 	andeq	ip, r0, r6, lsr #27
     b98:	02700700 	rsbseq	r0, r0, #0, 14
     b9c:	a8050000 	stmdage	r5, {}	; <UNPREDICTABLE>
     ba0:	000000a2 	andeq	r0, r0, r2, lsr #1
     ba4:	0001e507 	andeq	lr, r1, r7, lsl #10
     ba8:	cda90500 	cfstr32gt	mvfx0, [r9]
     bac:	00000000 	andeq	r0, r0, r0
     bb0:	00005a08 	andeq	r5, r0, r8, lsl #20
     bb4:	0000dd00 	andeq	sp, r0, r0, lsl #26
     bb8:	00dd0900 	sbcseq	r0, sp, r0, lsl #18
     bbc:	00030000 	andeq	r0, r3, r0
     bc0:	a9070403 	stmdbge	r7, {r0, r1, sl}
     bc4:	0a000002 	beq	bd4 <_start-0x742c>
     bc8:	05a30508 	streq	r0, [r3, #1288]!	; 0x508
     bcc:	0b000001 	bleq	bd8 <_start-0x7428>
     bd0:	000003a9 	andeq	r0, r0, r9, lsr #7
     bd4:	0025a505 	eoreq	sl, r5, r5, lsl #10
     bd8:	0b000000 	bleq	be0 <_start-0x7420>
     bdc:	000003b1 			; <UNDEFINED> instruction: 0x000003b1
     be0:	00aeaa05 	adceq	sl, lr, r5, lsl #20
     be4:	00040000 	andeq	r0, r4, r0
     be8:	00033c04 	andeq	r3, r3, r4, lsl #24
     bec:	e4ab0500 	strt	r0, [fp], #1280	; 0x500
     bf0:	04000000 	streq	r0, [r0], #-0
     bf4:	000001a2 	andeq	r0, r0, r2, lsr #3
     bf8:	0081af05 	addeq	sl, r1, r5, lsl #30
     bfc:	040c0000 	streq	r0, [ip], #-0
     c00:	0123040d 			; <UNDEFINED> instruction: 0x0123040d
     c04:	01030000 	mrseq	r0, (UNDEF: 3)
     c08:	00030108 	andeq	r0, r3, r8, lsl #2
     c0c:	01230e00 			; <UNDEFINED> instruction: 0x01230e00
     c10:	53040000 	movwpl	r0, #16384	; 0x4000
     c14:	07000004 	streq	r0, [r0, -r4]
     c18:	00007316 	andeq	r7, r0, r6, lsl r3
     c1c:	01b30f00 			; <UNDEFINED> instruction: 0x01b30f00
     c20:	07180000 	ldreq	r0, [r8, -r0]
     c24:	00018d2d 	andeq	r8, r1, sp, lsr #26
     c28:	035d0b00 	cmpeq	sp, #0, 22
     c2c:	2f070000 	svccs	0x00070000
     c30:	0000018d 	andeq	r0, r0, sp, lsl #3
     c34:	6b5f1000 	blvs	17c4c3c <__bss_end__+0x17bac14>
     c38:	25300700 	ldrcs	r0, [r0, #-1792]!	; 0xfffff900
     c3c:	04000000 	streq	r0, [r0], #-0
     c40:	0003940b 	andeq	r9, r3, fp, lsl #8
     c44:	25300700 	ldrcs	r0, [r0, #-1792]!	; 0xfffff900
     c48:	08000000 	stmdaeq	r0, {}	; <UNPREDICTABLE>
     c4c:	00019c0b 	andeq	r9, r1, fp, lsl #24
     c50:	25300700 	ldrcs	r0, [r0, #-1792]!	; 0xfffff900
     c54:	0c000000 	stceq	0, cr0, [r0], {-0}
     c58:	0004a10b 	andeq	sl, r4, fp, lsl #2
     c5c:	25300700 	ldrcs	r0, [r0, #-1792]!	; 0xfffff900
     c60:	10000000 	andne	r0, r0, r0
     c64:	00785f10 	rsbseq	r5, r8, r0, lsl pc
     c68:	01933107 	orrseq	r3, r3, r7, lsl #2
     c6c:	00140000 	andseq	r0, r4, r0
     c70:	013a040d 	teqeq	sl, sp, lsl #8
     c74:	2f080000 	svccs	0x00080000
     c78:	a3000001 	movwge	r0, #1
     c7c:	09000001 	stmdbeq	r0, {r0}
     c80:	000000dd 	ldrdeq	r0, [r0], -sp
     c84:	e00f0000 	and	r0, pc, r0
     c88:	24000001 	strcs	r0, [r0], #-1
     c8c:	021c3507 	andseq	r3, ip, #29360128	; 0x1c00000
     c90:	a10b0000 	mrsge	r0, (UNDEF: 11)
     c94:	07000000 	streq	r0, [r0, -r0]
     c98:	00002537 	andeq	r2, r0, r7, lsr r5
     c9c:	c70b0000 	strgt	r0, [fp, -r0]
     ca0:	07000003 	streq	r0, [r0, -r3]
     ca4:	00002538 	andeq	r2, r0, r8, lsr r5
     ca8:	c40b0400 	strgt	r0, [fp], #-1024	; 0xfffffc00
     cac:	07000000 	streq	r0, [r0, -r0]
     cb0:	00002539 	andeq	r2, r0, r9, lsr r5
     cb4:	220b0800 	andcs	r0, fp, #0, 16
     cb8:	07000005 	streq	r0, [r0, -r5]
     cbc:	0000253a 	andeq	r2, r0, sl, lsr r5
     cc0:	b90b0c00 	stmdblt	fp, {sl, fp}
     cc4:	07000002 	streq	r0, [r0, -r2]
     cc8:	0000253b 	andeq	r2, r0, fp, lsr r5
     ccc:	920b1000 	andls	r1, fp, #0
     cd0:	07000002 	streq	r0, [r0, -r2]
     cd4:	0000253c 	andeq	r2, r0, ip, lsr r5
     cd8:	a60b1400 	strge	r1, [fp], -r0, lsl #8
     cdc:	07000004 	streq	r0, [r0, -r4]
     ce0:	0000253d 	andeq	r2, r0, sp, lsr r5
     ce4:	1e0b1800 	cdpne	8, 0, cr1, cr11, cr0, {0}
     ce8:	07000003 	streq	r0, [r0, -r3]
     cec:	0000253e 	andeq	r2, r0, lr, lsr r5
     cf0:	e90b1c00 	stmdb	fp, {sl, fp, ip}
     cf4:	07000004 	streq	r0, [r0, -r4]
     cf8:	0000253f 	andeq	r2, r0, pc, lsr r5
     cfc:	11002000 	mrsne	r2, (UNDEF: 0)
     d00:	00000104 	andeq	r0, r0, r4, lsl #2
     d04:	48070108 	stmdami	r7, {r3, r8}
     d08:	0000025c 	andeq	r0, r0, ip, asr r2
     d0c:	00018f0b 	andeq	r8, r1, fp, lsl #30
     d10:	5c490700 	mcrrpl	7, 0, r0, r9, cr0
     d14:	00000002 	andeq	r0, r0, r2
     d18:	0000000b 	andeq	r0, r0, fp
     d1c:	5c4a0700 	mcrrpl	7, 0, r0, sl, cr0
     d20:	80000002 	andhi	r0, r0, r2
     d24:	00044512 	andeq	r4, r4, r2, lsl r5
     d28:	2f4c0700 	svccs	0x004c0700
     d2c:	00000001 	andeq	r0, r0, r1
     d30:	01291201 			; <UNDEFINED> instruction: 0x01291201
     d34:	4f070000 	svcmi	0x00070000
     d38:	0000012f 	andeq	r0, r0, pc, lsr #2
     d3c:	08000104 	stmdaeq	r0, {r2, r8}
     d40:	0000011b 	andeq	r0, r0, fp, lsl r1
     d44:	0000026c 	andeq	r0, r0, ip, ror #4
     d48:	0000dd09 	andeq	sp, r0, r9, lsl #26
     d4c:	11001f00 	tstne	r0, r0, lsl #30
     d50:	000002c2 	andeq	r0, r0, r2, asr #5
     d54:	5b070190 	blpl	1c139c <__bss_end__+0x1b7374>
     d58:	000002aa 	andeq	r0, r0, sl, lsr #5
     d5c:	00035d0b 	andeq	r5, r3, fp, lsl #26
     d60:	aa5c0700 	bge	1702968 <__bss_end__+0x16f8940>
     d64:	00000002 	andeq	r0, r0, r2
     d68:	0003750b 	andeq	r7, r3, fp, lsl #10
     d6c:	255d0700 	ldrbcs	r0, [sp, #-1792]	; 0xfffff900
     d70:	04000000 	streq	r0, [r0], #-0
     d74:	0001970b 	andeq	r9, r1, fp, lsl #14
     d78:	b05f0700 	subslt	r0, pc, r0, lsl #14
     d7c:	08000002 	stmdaeq	r0, {r1}
     d80:	0001040b 	andeq	r0, r1, fp, lsl #8
     d84:	1c600700 	stclne	7, cr0, [r0], #-0
     d88:	88000002 	stmdahi	r0, {r1}
     d8c:	6c040d00 	stcvs	13, cr0, [r4], {-0}
     d90:	08000002 	stmdaeq	r0, {r1}
     d94:	000002c0 	andeq	r0, r0, r0, asr #5
     d98:	000002c0 	andeq	r0, r0, r0, asr #5
     d9c:	0000dd09 	andeq	sp, r0, r9, lsl #26
     da0:	0d001f00 	stceq	15, cr1, [r0, #-0]
     da4:	0002c604 	andeq	ip, r2, r4, lsl #12
     da8:	280f1300 	stmdacs	pc, {r8, r9, ip}	; <UNPREDICTABLE>
     dac:	08000003 	stmdaeq	r0, {r0, r1}
     db0:	02ec7307 	rsceq	r7, ip, #469762048	; 0x1c000000
     db4:	be0b0000 	cdplt	0, 0, cr0, cr11, cr0, {0}
     db8:	07000000 	streq	r0, [r0, -r0]
     dbc:	0002ec74 	andeq	lr, r2, r4, ror ip
     dc0:	1b0b0000 	blne	2c0dc8 <__bss_end__+0x2b6da0>
     dc4:	07000000 	streq	r0, [r0, -r0]
     dc8:	00002575 	andeq	r2, r0, r5, ror r5
     dcc:	0d000400 	cfstrseq	mvf0, [r0, #-0]
     dd0:	00005a04 	andeq	r5, r0, r4, lsl #20
     dd4:	03470f00 	movteq	r0, #32512	; 0x7f00
     dd8:	07680000 	strbeq	r0, [r8, -r0]!
     ddc:	00041cb3 			; <UNDEFINED> instruction: 0x00041cb3
     de0:	705f1000 	subsvc	r1, pc, r0
     de4:	ecb40700 	ldc	7, cr0, [r4]
     de8:	00000002 	andeq	r0, r0, r2
     dec:	00725f10 	rsbseq	r5, r2, r0, lsl pc
     df0:	0025b507 	eoreq	fp, r5, r7, lsl #10
     df4:	10040000 	andne	r0, r4, r0
     df8:	0700775f 	smlsdeq	r0, pc, r7, r7	; <UNPREDICTABLE>
     dfc:	000025b6 			; <UNDEFINED> instruction: 0x000025b6
     e00:	220b0800 	andcs	r0, fp, #0, 16
     e04:	07000001 	streq	r0, [r0, -r1]
     e08:	00003ab7 			; <UNDEFINED> instruction: 0x00003ab7
     e0c:	0b0b0c00 	bleq	2c3e14 <__bss_end__+0x2b9dec>
     e10:	07000002 	streq	r0, [r0, -r2]
     e14:	00003ab8 			; <UNDEFINED> instruction: 0x00003ab8
     e18:	5f100e00 	svcpl	0x00100e00
     e1c:	07006662 	streq	r6, [r0, -r2, ror #12]
     e20:	0002c7b9 			; <UNDEFINED> instruction: 0x0002c7b9
     e24:	7b0b1000 	blvc	2c4e2c <__bss_end__+0x2bae04>
     e28:	07000000 	streq	r0, [r0, -r0]
     e2c:	000025ba 			; <UNDEFINED> instruction: 0x000025ba
     e30:	120b1800 	andne	r1, fp, #0, 16
     e34:	07000001 	streq	r0, [r0, -r1]
     e38:	00011bc1 	andeq	r1, r1, r1, asr #23
     e3c:	780b1c00 	stmdavc	fp, {sl, fp, ip}
     e40:	0700000a 	streq	r0, [r0, -sl]
     e44:	000577c3 	andeq	r7, r5, r3, asr #15
     e48:	0c0b2000 	stceq	0, cr2, [fp], {-0}
     e4c:	07000006 	streq	r0, [r0, -r6]
     e50:	0005a1c5 	andeq	sl, r5, r5, asr #3
     e54:	b90b2400 	stmdblt	fp, {sl, sp}
     e58:	07000003 	streq	r0, [r0, -r3]
     e5c:	0005c5c8 	andeq	ip, r5, r8, asr #11
     e60:	030b2800 	movweq	r2, #47104	; 0xb800
     e64:	07000005 	streq	r0, [r0, -r5]
     e68:	0005dfc9 	andeq	sp, r5, r9, asr #31
     e6c:	5f102c00 	svcpl	0x00102c00
     e70:	07006275 	smlsdxeq	r0, r5, r2, r6
     e74:	0002c7cc 	andeq	ip, r2, ip, asr #15
     e78:	5f103000 	svcpl	0x00103000
     e7c:	07007075 	smlsdxeq	r0, r5, r0, r7
     e80:	0002eccd 	andeq	lr, r2, sp, asr #25
     e84:	5f103800 	svcpl	0x00103800
     e88:	07007275 	smlsdxeq	r0, r5, r2, r7
     e8c:	000025ce 	andeq	r2, r0, lr, asr #11
     e90:	b80b3c00 	stmdalt	fp, {sl, fp, ip, sp}
     e94:	07000000 	streq	r0, [r0, -r0]
     e98:	0005e5d1 	ldrdeq	lr, [r5], -r1
     e9c:	db0b4000 	blle	2d0ea4 <__bss_end__+0x2c6e7c>
     ea0:	07000004 	streq	r0, [r0, -r4]
     ea4:	0005f5d2 	ldrdeq	pc, [r5], -r2
     ea8:	5f104300 	svcpl	0x00104300
     eac:	0700626c 	streq	r6, [r0, -ip, ror #4]
     eb0:	0002c7d5 	ldrdeq	ip, [r2], -r5
     eb4:	400b4400 	andmi	r4, fp, r0, lsl #8
     eb8:	07000001 	streq	r0, [r0, -r1]
     ebc:	000025d8 	ldrdeq	r2, [r0], -r8
     ec0:	510b4c00 	tstpl	fp, r0, lsl #24
     ec4:	07000001 	streq	r0, [r0, -r1]
     ec8:	00008cd9 	ldrdeq	r8, [r0], -r9
     ecc:	190b5000 	stmdbne	fp, {ip, lr}
     ed0:	0700000a 	streq	r0, [r0, -sl]
     ed4:	00043adc 	ldrdeq	r3, [r4], -ip
     ed8:	840b5400 	strhi	r5, [fp], #-1024	; 0xfffffc00
     edc:	07000002 	streq	r0, [r0, -r2]
     ee0:	000110e0 	andeq	r1, r1, r0, ror #1
     ee4:	4f0b5800 	svcmi	0x000b5800
     ee8:	07000003 	streq	r0, [r0, -r3]
     eec:	000105e2 	andeq	r0, r1, r2, ror #11
     ef0:	8a0b5c00 	bhi	2d7ef8 <__bss_end__+0x2cded0>
     ef4:	07000002 	streq	r0, [r0, -r2]
     ef8:	000025e3 	andeq	r2, r0, r3, ror #11
     efc:	14006400 	strne	r6, [r0], #-1024	; 0xfffffc00
     f00:	00000025 	andeq	r0, r0, r5, lsr #32
     f04:	0000043a 	andeq	r0, r0, sl, lsr r4
     f08:	00043a15 	andeq	r3, r4, r5, lsl sl
     f0c:	011b1500 	tsteq	fp, r0, lsl #10
     f10:	1d150000 	ldcne	0, cr0, [r5, #-0]
     f14:	15000001 	strne	r0, [r0, #-1]
     f18:	00000025 	andeq	r0, r0, r5, lsr #32
     f1c:	45040d00 	strmi	r0, [r4, #-3328]	; 0xfffff300
     f20:	0e000004 	cdpeq	0, 0, cr0, cr0, cr4, {0}
     f24:	0000043a 	andeq	r0, r0, sl, lsr r4
     f28:	00039c16 	andeq	r9, r3, r6, lsl ip
     f2c:	07042800 	streq	r2, [r4, -r0, lsl #16]
     f30:	05770238 	ldrbeq	r0, [r7, #-568]!	; 0xfffffdc8
     f34:	0d170000 	ldceq	0, cr0, [r7, #-0]
     f38:	07000003 	streq	r0, [r0, -r3]
     f3c:	0025023a 	eoreq	r0, r5, sl, lsr r2
     f40:	17000000 	strne	r0, [r0, -r0]
     f44:	00000131 	andeq	r0, r0, r1, lsr r1
     f48:	4c023f07 	stcmi	15, cr3, [r2], {7}
     f4c:	04000006 	streq	r0, [r0], #-6
     f50:	0001fb17 	andeq	pc, r1, r7, lsl fp	; <UNPREDICTABLE>
     f54:	023f0700 	eorseq	r0, pc, #0, 14
     f58:	0000064c 	andeq	r0, r0, ip, asr #12
     f5c:	01ab1708 			; <UNDEFINED> instruction: 0x01ab1708
     f60:	3f070000 	svccc	0x00070000
     f64:	00064c02 	andeq	r4, r6, r2, lsl #24
     f68:	70170c00 	andsvc	r0, r7, r0, lsl #24
     f6c:	07000003 	streq	r0, [r0, -r3]
     f70:	00250241 	eoreq	r0, r5, r1, asr #4
     f74:	17100000 	ldrne	r0, [r0, -r0]
     f78:	00000029 	andeq	r0, r0, r9, lsr #32
     f7c:	2e024207 	cdpcs	2, 0, cr4, cr2, cr7, {0}
     f80:	14000008 	strne	r0, [r0], #-8
     f84:	00047b17 	andeq	r7, r4, r7, lsl fp
     f88:	02440700 	subeq	r0, r4, #0, 14
     f8c:	00000025 	andeq	r0, r0, r5, lsr #32
     f90:	037a1730 	cmneq	sl, #48, 14	; 0xc00000
     f94:	45070000 	strmi	r0, [r7, #-0]
     f98:	00059b02 	andeq	r9, r5, r2, lsl #22
     f9c:	ca173400 	bgt	5cdfa4 <__bss_end__+0x5c3f7c>
     fa0:	07000002 	streq	r0, [r0, -r2]
     fa4:	00250247 	eoreq	r0, r5, r7, asr #4
     fa8:	17380000 	ldrne	r0, [r8, -r0]!
     fac:	0000038a 	andeq	r0, r0, sl, lsl #7
     fb0:	49024907 	stmdbmi	r2, {r0, r1, r2, r8, fp, lr}
     fb4:	3c000008 	stccc	0, cr0, [r0], {8}
     fb8:	00026817 	andeq	r6, r2, r7, lsl r8
     fbc:	024c0700 	subeq	r0, ip, #0, 14
     fc0:	0000018d 	andeq	r0, r0, sp, lsl #3
     fc4:	01ca1740 	biceq	r1, sl, r0, asr #14
     fc8:	4d070000 	stcmi	0, cr0, [r7, #-0]
     fcc:	00002502 	andeq	r2, r0, r2, lsl #10
     fd0:	1d174400 	cfldrsne	mvf4, [r7, #-0]
     fd4:	07000005 	streq	r0, [r0, -r5]
     fd8:	018d024e 	orreq	r0, sp, lr, asr #4
     fdc:	17480000 	strbne	r0, [r8, -r0]
     fe0:	000002dc 	ldrdeq	r0, [r0], -ip
     fe4:	4f024f07 	svcmi	0x00024f07
     fe8:	4c000008 	stcmi	0, cr0, [r0], {8}
     fec:	00020317 	andeq	r0, r2, r7, lsl r3
     ff0:	02520700 	subseq	r0, r2, #0, 14
     ff4:	00000025 	andeq	r0, r0, r5, lsr #32
     ff8:	01491750 	cmpeq	r9, r0, asr r7
     ffc:	53070000 	movwpl	r0, #28672	; 0x7000
    1000:	00011d02 	andeq	r1, r1, r2, lsl #26
    1004:	06175400 	ldreq	r5, [r7], -r0, lsl #8
    1008:	07000003 	streq	r0, [r0, -r3]
    100c:	080c0276 	stmdaeq	ip, {r1, r2, r4, r5, r6, r9}
    1010:	18580000 	ldmdane	r8, {}^	; <UNPREDICTABLE>
    1014:	000002c2 	andeq	r0, r0, r2, asr #5
    1018:	aa027a07 	bge	9f83c <__bss_end__+0x95814>
    101c:	48000002 	stmdami	r0, {r1}
    1020:	02461801 	subeq	r1, r6, #65536	; 0x10000
    1024:	7b070000 	blvc	1c102c <__bss_end__+0x1b7004>
    1028:	00026c02 	andeq	r6, r2, r2, lsl #24
    102c:	18014c00 	stmdane	r1, {sl, fp, lr}
    1030:	000004c9 	andeq	r0, r0, r9, asr #9
    1034:	60027f07 	andvs	r7, r2, r7, lsl #30
    1038:	dc000008 	stcle	0, cr0, [r0], {8}
    103c:	011a1802 	tsteq	sl, r2, lsl #16
    1040:	84070000 	strhi	r0, [r7], #-0
    1044:	00061102 	andeq	r1, r6, r2, lsl #2
    1048:	1802e000 	stmdane	r2, {sp, lr, pc}
    104c:	000000ff 	strdeq	r0, [r0], -pc	; <UNPREDICTABLE>
    1050:	6c028507 	cfstr32vs	mvfx8, [r2], {7}
    1054:	ec000008 	stc	0, cr0, [r0], {8}
    1058:	040d0002 	streq	r0, [sp], #-2
    105c:	0000041c 	andeq	r0, r0, ip, lsl r4
    1060:	00002514 	andeq	r2, r0, r4, lsl r5
    1064:	00059b00 	andeq	r9, r5, r0, lsl #22
    1068:	043a1500 	ldrteq	r1, [sl], #-1280	; 0xfffffb00
    106c:	1b150000 	blne	541074 <__bss_end__+0x53704c>
    1070:	15000001 	strne	r0, [r0, #-1]
    1074:	0000059b 	muleq	r0, fp, r5
    1078:	00002515 	andeq	r2, r0, r5, lsl r5
    107c:	040d0000 	streq	r0, [sp], #-0
    1080:	0000012a 	andeq	r0, r0, sl, lsr #2
    1084:	057d040d 	ldrbeq	r0, [sp, #-1037]!	; 0xfffffbf3
    1088:	97140000 	ldrls	r0, [r4, -r0]
    108c:	c5000000 	strgt	r0, [r0, #-0]
    1090:	15000005 	strne	r0, [r0, #-5]
    1094:	0000043a 	andeq	r0, r0, sl, lsr r4
    1098:	00011b15 	andeq	r1, r1, r5, lsl fp
    109c:	00971500 	addseq	r1, r7, r0, lsl #10
    10a0:	25150000 	ldrcs	r0, [r5, #-0]
    10a4:	00000000 	andeq	r0, r0, r0
    10a8:	05a7040d 	streq	r0, [r7, #1037]!	; 0x40d
    10ac:	25140000 	ldrcs	r0, [r4, #-0]
    10b0:	df000000 	svcle	0x00000000
    10b4:	15000005 	strne	r0, [r0, #-5]
    10b8:	0000043a 	andeq	r0, r0, sl, lsr r4
    10bc:	00011b15 	andeq	r1, r1, r5, lsl fp
    10c0:	040d0000 	streq	r0, [sp], #-0
    10c4:	000005cb 	andeq	r0, r0, fp, asr #11
    10c8:	00005a08 	andeq	r5, r0, r8, lsl #20
    10cc:	0005f500 	andeq	pc, r5, r0, lsl #10
    10d0:	00dd0900 	sbcseq	r0, sp, r0, lsl #18
    10d4:	00020000 	andeq	r0, r2, r0
    10d8:	00005a08 	andeq	r5, r0, r8, lsl #20
    10dc:	00060500 	andeq	r0, r6, r0, lsl #10
    10e0:	00dd0900 	sbcseq	r0, sp, r0, lsl #18
    10e4:	00000000 	andeq	r0, r0, r0
    10e8:	00033505 	andeq	r3, r3, r5, lsl #10
    10ec:	011d0700 	tsteq	sp, r0, lsl #14
    10f0:	000002f2 	strdeq	r0, [r0], -r2
    10f4:	0004b019 	andeq	fp, r4, r9, lsl r0
    10f8:	21070c00 	tstcs	r7, r0, lsl #24
    10fc:	00064601 	andeq	r4, r6, r1, lsl #12
    1100:	035d1700 	cmpeq	sp, #0, 14
    1104:	23070000 	movwcs	r0, #28672	; 0x7000
    1108:	00064601 	andeq	r4, r6, r1, lsl #12
    110c:	1e170000 	cdpne	0, 1, cr0, cr7, cr0, {0}
    1110:	07000002 	streq	r0, [r0, -r2]
    1114:	00250124 	eoreq	r0, r5, r4, lsr #2
    1118:	17040000 	strne	r0, [r4, -r0]
    111c:	0000032f 	andeq	r0, r0, pc, lsr #6
    1120:	4c012507 	cfstr32mi	mvfx2, [r1], {7}
    1124:	08000006 	stmdaeq	r0, {r1, r2}
    1128:	11040d00 	tstne	r4, r0, lsl #26
    112c:	0d000006 	stceq	0, cr0, [r0, #-24]	; 0xffffffe8
    1130:	00060504 	andeq	r0, r6, r4, lsl #10
    1134:	00211900 	eoreq	r1, r1, r0, lsl #18
    1138:	070e0000 	streq	r0, [lr, -r0]
    113c:	0687013d 			; <UNDEFINED> instruction: 0x0687013d
    1140:	a3170000 	tstge	r7, #0
    1144:	07000003 	streq	r0, [r0, -r3]
    1148:	0687013e 			; <UNDEFINED> instruction: 0x0687013e
    114c:	17000000 	strne	r0, [r0, -r0]
    1150:	000003d0 	ldrdeq	r0, [r0], -r0	; <UNPREDICTABLE>
    1154:	87013f07 	strhi	r3, [r1, -r7, lsl #30]
    1158:	06000006 	streq	r0, [r0], -r6
    115c:	00044e17 	andeq	r4, r4, r7, lsl lr
    1160:	01400700 	cmpeq	r0, r0, lsl #14
    1164:	00000061 	andeq	r0, r0, r1, rrx
    1168:	6108000c 	tstvs	r8, ip
    116c:	97000000 	strls	r0, [r0, -r0]
    1170:	09000006 	stmdbeq	r0, {r1, r2}
    1174:	000000dd 	ldrdeq	r0, [r0], -sp
    1178:	d01a0002 	andsle	r0, sl, r2
    117c:	98025707 	stmdals	r2, {r0, r1, r2, r8, r9, sl, ip, lr}
    1180:	17000007 	strne	r0, [r0, -r7]
    1184:	00000494 	muleq	r0, r4, r4
    1188:	2c025907 			; <UNDEFINED> instruction: 0x2c025907
    118c:	00000000 	andeq	r0, r0, r0
    1190:	00043817 	andeq	r3, r4, r7, lsl r8
    1194:	025a0700 	subseq	r0, sl, #0, 14
    1198:	0000011d 	andeq	r0, r0, sp, lsl r1
    119c:	025b1704 	subseq	r1, fp, #4, 14	; 0x100000
    11a0:	5b070000 	blpl	1c11a8 <__bss_end__+0x1b7180>
    11a4:	00079802 	andeq	r9, r7, r2, lsl #16
    11a8:	f4170800 			; <UNDEFINED> instruction: 0xf4170800
    11ac:	07000004 	streq	r0, [r0, -r4]
    11b0:	01a3025c 			; <UNDEFINED> instruction: 0x01a3025c
    11b4:	17240000 	strne	r0, [r4, -r0]!
    11b8:	000001bb 			; <UNDEFINED> instruction: 0x000001bb
    11bc:	25025d07 	strcs	r5, [r2, #-3335]	; 0xfffff2f9
    11c0:	48000000 	stmdami	r0, {}	; <UNPREDICTABLE>
    11c4:	00035817 	andeq	r5, r3, r7, lsl r8
    11c8:	025e0700 	subseq	r0, lr, #0, 14
    11cc:	0000007a 	andeq	r0, r0, sl, ror r0
    11d0:	050a1750 	streq	r1, [sl, #-1872]	; 0xfffff8b0
    11d4:	5f070000 	svcpl	0x00070000
    11d8:	00065202 	andeq	r5, r6, r2, lsl #4
    11dc:	63175800 	tstvs	r7, #0, 16
    11e0:	07000003 	streq	r0, [r0, -r3]
    11e4:	01050260 	tsteq	r5, r0, ror #4
    11e8:	17680000 	strbne	r0, [r8, -r0]!
    11ec:	0000050f 	andeq	r0, r0, pc, lsl #10
    11f0:	05026107 	streq	r6, [r2, #-263]	; 0xfffffef9
    11f4:	70000001 	andvc	r0, r0, r1
    11f8:	00009317 	andeq	r9, r0, r7, lsl r3
    11fc:	02620700 	rsbeq	r0, r2, #0, 14
    1200:	00000105 	andeq	r0, r0, r5, lsl #2
    1204:	04bf1778 	ldrteq	r1, [pc], #1912	; 120c <_start-0x6df4>
    1208:	63070000 	movwvs	r0, #28672	; 0x7000
    120c:	0007a802 	andeq	sl, r7, r2, lsl #16
    1210:	4f178000 	svcmi	0x00178000
    1214:	07000002 	streq	r0, [r0, -r2]
    1218:	07b80264 	ldreq	r0, [r8, r4, ror #4]!
    121c:	17880000 	strne	r0, [r8, r0]
    1220:	0000045b 	andeq	r0, r0, fp, asr r4
    1224:	25026507 	strcs	r6, [r2, #-1287]	; 0xfffffaf9
    1228:	a0000000 	andge	r0, r0, r0
    122c:	00018117 	andeq	r8, r1, r7, lsl r1
    1230:	02660700 	rsbeq	r0, r6, #0, 14
    1234:	00000105 	andeq	r0, r0, r5, lsl #2
    1238:	008417a4 	addeq	r1, r4, r4, lsr #15
    123c:	67070000 	strvs	r0, [r7, -r0]
    1240:	00010502 	andeq	r0, r1, r2, lsl #10
    1244:	7017ac00 	andsvc	sl, r7, r0, lsl #24
    1248:	07000001 	streq	r0, [r0, -r1]
    124c:	01050268 	tsteq	r5, r8, ror #4
    1250:	17b40000 	ldrne	r0, [r4, r0]!
    1254:	0000003c 	andeq	r0, r0, ip, lsr r0
    1258:	05026907 	streq	r6, [r2, #-2311]	; 0xfffff6f9
    125c:	bc000001 	stclt	0, cr0, [r0], {1}
    1260:	00004b17 	andeq	r4, r0, r7, lsl fp
    1264:	026a0700 	rsbeq	r0, sl, #0, 14
    1268:	00000105 	andeq	r0, r0, r5, lsl #2
    126c:	030b17c4 	movweq	r1, #47044	; 0xb7c4
    1270:	6b070000 	blvs	1c1278 <__bss_end__+0x1b7250>
    1274:	00002502 	andeq	r2, r0, r2, lsl #10
    1278:	0800cc00 	stmdaeq	r0, {sl, fp, lr, pc}
    127c:	00000123 	andeq	r0, r0, r3, lsr #2
    1280:	000007a8 	andeq	r0, r0, r8, lsr #15
    1284:	0000dd09 	andeq	sp, r0, r9, lsl #26
    1288:	08001900 	stmdaeq	r0, {r8, fp, ip}
    128c:	00000123 	andeq	r0, r0, r3, lsr #2
    1290:	000007b8 			; <UNDEFINED> instruction: 0x000007b8
    1294:	0000dd09 	andeq	sp, r0, r9, lsl #26
    1298:	08000700 	stmdaeq	r0, {r8, r9, sl}
    129c:	00000123 	andeq	r0, r0, r3, lsr #2
    12a0:	000007c8 	andeq	r0, r0, r8, asr #15
    12a4:	0000dd09 	andeq	sp, r0, r9, lsl #26
    12a8:	1a001700 	bne	6eb0 <_start-0x1150>
    12ac:	027007f0 	rsbseq	r0, r0, #240, 14	; 0x3c00000
    12b0:	000007ec 	andeq	r0, r0, ip, ror #15
    12b4:	0002b217 	andeq	fp, r2, r7, lsl r2
    12b8:	02730700 	rsbseq	r0, r3, #0, 14
    12bc:	000007ec 	andeq	r0, r0, ip, ror #15
    12c0:	04b61700 	ldrteq	r1, [r6], #1792	; 0x700
    12c4:	74070000 	strvc	r0, [r7], #-0
    12c8:	0007fc02 	andeq	pc, r7, r2, lsl #24
    12cc:	08007800 	stmdaeq	r0, {fp, ip, sp, lr}
    12d0:	000002ec 	andeq	r0, r0, ip, ror #5
    12d4:	000007fc 	strdeq	r0, [r0], -ip
    12d8:	0000dd09 	andeq	sp, r0, r9, lsl #26
    12dc:	08001d00 	stmdaeq	r0, {r8, sl, fp, ip}
    12e0:	0000002c 	andeq	r0, r0, ip, lsr #32
    12e4:	0000080c 	andeq	r0, r0, ip, lsl #16
    12e8:	0000dd09 	andeq	sp, r0, r9, lsl #26
    12ec:	1b001d00 	blne	86f4 <ckalloc+0xfc>
    12f0:	025507f0 	subseq	r0, r5, #240, 14	; 0x3c00000
    12f4:	0000082e 	andeq	r0, r0, lr, lsr #16
    12f8:	00039c1c 	andeq	r9, r3, ip, lsl ip
    12fc:	026c0700 	rsbeq	r0, ip, #0, 14
    1300:	00000697 	muleq	r0, r7, r6
    1304:	0004e11c 	andeq	lr, r4, ip, lsl r1
    1308:	02750700 	rsbseq	r0, r5, #0, 14
    130c:	000007c8 	andeq	r0, r0, r8, asr #15
    1310:	01230800 			; <UNDEFINED> instruction: 0x01230800
    1314:	083e0000 	ldmdaeq	lr!, {}	; <UNPREDICTABLE>
    1318:	dd090000 	stcle	0, cr0, [r9, #-0]
    131c:	18000000 	stmdane	r0, {}	; <UNPREDICTABLE>
    1320:	08491d00 	stmdaeq	r9, {r8, sl, fp, ip}^
    1324:	3a150000 	bcc	54132c <__bss_end__+0x537304>
    1328:	00000004 	andeq	r0, r0, r4
    132c:	083e040d 	ldmdaeq	lr!, {r0, r2, r3, sl}
    1330:	040d0000 	streq	r0, [sp], #-0
    1334:	0000018d 	andeq	r0, r0, sp, lsl #3
    1338:	0008601d 	andeq	r6, r8, sp, lsl r0
    133c:	00251500 	eoreq	r1, r5, r0, lsl #10
    1340:	0d000000 	stceq	0, cr0, [r0, #-0]
    1344:	00086604 	andeq	r6, r8, r4, lsl #12
    1348:	55040d00 	strpl	r0, [r4, #-3328]	; 0xfffff300
    134c:	08000008 	stmdaeq	r0, {r3}
    1350:	00000605 	andeq	r0, r0, r5, lsl #12
    1354:	0000087c 	andeq	r0, r0, ip, ror r8
    1358:	0000dd09 	andeq	sp, r0, r9, lsl #26
    135c:	1e000200 	cdpne	2, 0, cr0, cr0, cr0, {0}
    1360:	0000046f 	andeq	r0, r0, pc, ror #8
    1364:	3a02fd07 	bcc	c0788 <__bss_end__+0xb6760>
    1368:	1e000004 	cdpne	0, 0, cr0, cr0, cr4, {0}
    136c:	00000468 	andeq	r0, r0, r8, ror #8
    1370:	4002fe07 	andmi	pc, r2, r7, lsl #28
    1374:	14000004 	strne	r0, [r0], #-4
    1378:	00000025 	andeq	r0, r0, r5, lsr #32
    137c:	000008a3 	andeq	r0, r0, r3, lsr #17
    1380:	00002515 	andeq	r2, r0, r5, lsl r5
    1384:	d41f0000 	ldrle	r0, [pc], #-0	; 138c <_start-0x6c74>
    1388:	08000001 	stmdaeq	r0, {r0}
    138c:	0008ae1d 	andeq	sl, r8, sp, lsl lr
    1390:	94040d00 	strls	r0, [r4], #-3328	; 0xfffff300
    1394:	14000008 	strne	r0, [r0], #-8
    1398:	00000025 	andeq	r0, r0, r5, lsr #32
    139c:	000008c3 	andeq	r0, r0, r3, asr #17
    13a0:	00059b15 	andeq	r9, r5, r5, lsl fp
    13a4:	691f0000 	ldmdbvs	pc, {}	; <UNPREDICTABLE>
    13a8:	08000007 	stmdaeq	r0, {r0, r1, r2}
    13ac:	0008ce22 	andeq	ip, r8, r2, lsr #28
    13b0:	b4040d00 	strlt	r0, [r4], #-3328	; 0xfffff300
    13b4:	20000008 	andcs	r0, r0, r8
    13b8:	00005a01 	andeq	r5, r0, r1, lsl #20
    13bc:	ed240200 	sfm	f0, 4, [r4, #-0]
    13c0:	21000008 	tstcs	r0, r8
    13c4:	00000563 	andeq	r0, r0, r3, ror #10
    13c8:	055d210b 	ldrbeq	r2, [sp, #-267]	; 0xfffffef5
    13cc:	000c0000 	andeq	r0, ip, r0
    13d0:	26020c0a 	strcs	r0, [r2], -sl, lsl #24
    13d4:	0000091a 	andeq	r0, r0, sl, lsl r9
    13d8:	00020c0b 	andeq	r0, r2, fp, lsl #24
    13dc:	9b270200 	blls	9c1be4 <__bss_end__+0x9b7bbc>
    13e0:	00000005 	andeq	r0, r0, r5
    13e4:	0004ce0b 	andeq	ip, r4, fp, lsl #28
    13e8:	9b280200 	blls	a01bf0 <__bss_end__+0x9f7bc8>
    13ec:	04000005 	streq	r0, [r0], #-5
    13f0:	0005340b 	andeq	r3, r5, fp, lsl #8
    13f4:	2c290200 	sfmcs	f0, 4, [r9], #-0
    13f8:	08000000 	stmdaeq	r0, {}	; <UNPREDICTABLE>
    13fc:	062d0400 	strteq	r0, [sp], -r0, lsl #8
    1400:	2a020000 	bcs	81408 <__bss_end__+0x773e0>
    1404:	000008ed 	andeq	r0, r0, sp, ror #17
    1408:	0006a10f 	andeq	sl, r6, pc, lsl #2
    140c:	2d023800 	stccs	8, cr3, [r2, #-0]
    1410:	000009aa 	andeq	r0, r0, sl, lsr #19
    1414:	0005e90b 	andeq	lr, r5, fp, lsl #18
    1418:	682e0200 	stmdavs	lr!, {r9}
    141c:	00000000 	andeq	r0, r0, r0
    1420:	0006870b 	andeq	r8, r6, fp, lsl #14
    1424:	682f0200 	stmdavs	pc!, {r9}	; <UNPREDICTABLE>
    1428:	04000000 	streq	r0, [r0], #-0
    142c:	00009b0b 	andeq	r9, r0, fp, lsl #22
    1430:	68300200 	ldmdavs	r0!, {r9}
    1434:	08000000 	stmdaeq	r0, {}	; <UNPREDICTABLE>
    1438:	0005e30b 	andeq	lr, r5, fp, lsl #6
    143c:	68340200 	ldmdavs	r4!, {r9}
    1440:	0c000000 	stceq	0, cr0, [r0], {-0}
    1444:	0005d50b 	andeq	sp, r5, fp, lsl #10
    1448:	1a360200 	bne	d81c50 <__bss_end__+0xd77c28>
    144c:	10000009 	andne	r0, r0, r9
    1450:	00054a0b 	andeq	r4, r5, fp, lsl #20
    1454:	1a370200 	bne	dc1c5c <__bss_end__+0xdb7c34>
    1458:	1c000009 	stcne	0, cr0, [r0], {9}
    145c:	0005770b 	andeq	r7, r5, fp, lsl #14
    1460:	683b0200 	ldmdavs	fp!, {r9}
    1464:	28000000 	stmdacs	r0, {}	; <UNPREDICTABLE>
    1468:	00056b0b 	andeq	r6, r5, fp, lsl #22
    146c:	683c0200 	ldmdavs	ip!, {r9}
    1470:	2c000000 	stccs	0, cr0, [r0], {-0}
    1474:	00053b0b 	andeq	r3, r5, fp, lsl #22
    1478:	aa3f0200 	bge	fc1c80 <__bss_end__+0xfb7c58>
    147c:	30000009 	andcc	r0, r0, r9
    1480:	00052c0b 	andeq	r2, r5, fp, lsl #24
    1484:	68410200 	stmdavs	r1, {r9}^
    1488:	34000000 	strcc	r0, [r0], #-0
    148c:	25040d00 	strcs	r0, [r4, #-3328]	; 0xfffff300
    1490:	04000009 	streq	r0, [r0], #-9
    1494:	00000681 	andeq	r0, r0, r1, lsl #13
    1498:	09254202 	stmdbeq	r5!, {r1, r9, lr}
    149c:	02200000 	eoreq	r0, r0, #0
    14a0:	00000061 	andeq	r0, r0, r1, rrx
    14a4:	09e16202 	stmibeq	r1!, {r1, r9, sp, lr}^
    14a8:	57210000 	strpl	r0, [r1, -r0]!
    14ac:	fe000006 	cdp2	0, 0, cr0, cr0, cr6, {0}
    14b0:	00059a21 	andeq	r9, r5, r1, lsr #20
    14b4:	a2218000 	eorge	r8, r1, #0
    14b8:	b8000005 	stmdalt	r0, {r0, r2}
    14bc:	00058a22 	andeq	r8, r5, r2, lsr #20
    14c0:	00013800 	andeq	r3, r1, r0, lsl #16
    14c4:	00065223 	andeq	r5, r6, r3, lsr #4
    14c8:	f2070100 	vrhadd.s8	d0, d7, d0
    14cc:	05000009 	streq	r0, [r0, #-9]
    14d0:	009c2003 	addseq	r2, ip, r3
    14d4:	4f040d00 	svcmi	0x00040d00
    14d8:	23000000 	movwcs	r0, #0
    14dc:	00000b6d 	andeq	r0, r0, sp, ror #22
    14e0:	09f20701 	ldmibeq	r2!, {r0, r8, r9, sl}^
    14e4:	03050000 	movweq	r0, #20480	; 0x5000
    14e8:	00009c24 	andeq	r9, r0, r4, lsr #24
    14ec:	000b5423 	andeq	r5, fp, r3, lsr #8
    14f0:	f2070100 	vrhadd.s8	d0, d7, d0
    14f4:	05000009 	streq	r0, [r0, #-9]
    14f8:	009c1c03 	addseq	r1, ip, r3, lsl #24
    14fc:	000c2400 	andeq	r2, ip, r0, lsl #8
    1500:	ae010000 	cdpge	0, 0, cr0, cr1, cr0, {0}
    1504:	00000025 	andeq	r0, r0, r5, lsr #32
    1508:	00008810 	andeq	r8, r0, r0, lsl r8
    150c:	0000014c 	andeq	r0, r0, ip, asr #2
    1510:	0bd39c01 	bleq	ff4e851c <__bss_end__+0xff4de4f4>
    1514:	82250000 	eorhi	r0, r5, #0
    1518:	01000005 	tsteq	r0, r5
    151c:	00002caf 	andeq	r2, r0, pc, lsr #25
    1520:	00001e00 	andeq	r1, r0, r0, lsl #28
    1524:	06922500 	ldreq	r2, [r2], r0, lsl #10
    1528:	b0010000 	andlt	r0, r1, r0
    152c:	0000002c 	andeq	r0, r0, ip, lsr #32
    1530:	00000031 	andeq	r0, r0, r1, lsr r0
    1534:	00064025 	andeq	r4, r6, r5, lsr #32
    1538:	2cb40100 	ldfcss	f0, [r4]
    153c:	44000000 	strmi	r0, [r0], #-0
    1540:	25000000 	strcs	r0, [r0, #-0]
    1544:	00000627 	andeq	r0, r0, r7, lsr #12
    1548:	002cb501 	eoreq	fp, ip, r1, lsl #10
    154c:	00630000 	rsbeq	r0, r3, r0
    1550:	60260000 	eorvs	r0, r6, r0
    1554:	2e000000 	cdpcs	0, 0, cr0, cr0, cr0, {0}
    1558:	2300000b 	movwcs	r0, #11
    155c:	00000666 	andeq	r0, r0, r6, ror #12
    1560:	0bd3b801 	bleq	ff4ef56c <__bss_end__+0xff4e5544>
    1564:	54010000 	strpl	r0, [r1], #-0
    1568:	0088b427 	addeq	fp, r8, r7, lsr #8
    156c:	00146200 	andseq	r6, r4, r0, lsl #4
    1570:	000a9900 	andeq	r9, sl, r0, lsl #18
    1574:	50012800 	andpl	r2, r1, r0, lsl #16
    1578:	00007402 	andeq	r7, r0, r2, lsl #8
    157c:	0088c427 	addeq	ip, r8, r7, lsr #8
    1580:	0016a500 	andseq	sl, r6, r0, lsl #10
    1584:	000aad00 	andeq	sl, sl, r0, lsl #26
    1588:	50012800 	andpl	r2, r1, r0, lsl #16
    158c:	00007402 	andeq	r7, r0, r2, lsl #8
    1590:	0088d027 	addeq	sp, r8, r7, lsr #32
    1594:	0012fc00 	andseq	pc, r2, r0, lsl #24
    1598:	000ac700 	andeq	ip, sl, r0, lsl #14
    159c:	51012800 	tstpl	r1, r0, lsl #16
    15a0:	28800802 	stmcs	r0, {r1, fp}
    15a4:	74025201 	strvc	r5, [r2], #-513	; 0xfffffdff
    15a8:	e0270000 	eor	r0, r7, r0
    15ac:	36000088 	strcc	r0, [r0], -r8, lsl #1
    15b0:	db000016 	blle	1610 <_start-0x69f0>
    15b4:	2800000a 	stmdacs	r0, {r1, r3}
    15b8:	74025001 	strvc	r5, [r2], #-1
    15bc:	ec270000 	stc	0, cr0, [r7], #-0
    15c0:	0f000088 	svceq	0x00000088
    15c4:	ef000016 	svc	0x00000016
    15c8:	2800000a 	stmdacs	r0, {r1, r3}
    15cc:	74025001 	strvc	r5, [r2], #-1
    15d0:	fc270000 	stc2	0, cr0, [r7], #-0
    15d4:	fc000088 	stc2	0, cr0, [r0], {136}	; 0x88
    15d8:	09000012 	stmdbeq	r0, {r1, r4}
    15dc:	2800000b 	stmdacs	r0, {r0, r1, r3}
    15e0:	77025001 	strvc	r5, [r2, -r1]
    15e4:	52012800 	andpl	r2, r1, #0, 16
    15e8:	00007402 	andeq	r7, r0, r2, lsl #8
    15ec:	00891427 	addeq	r1, r9, r7, lsr #8
    15f0:	00166d00 	andseq	r6, r6, r0, lsl #26
    15f4:	000b1d00 	andeq	r1, fp, r0, lsl #26
    15f8:	50012800 	andpl	r2, r1, r0, lsl #16
    15fc:	00007402 	andeq	r7, r0, r2, lsl #8
    1600:	00892029 	addeq	r2, r9, r9, lsr #32
    1604:	00116100 	andseq	r6, r1, r0, lsl #2
    1608:	52012800 	andpl	r2, r1, #0, 16
    160c:	00007402 	andeq	r7, r0, r2, lsl #8
    1610:	88342700 	ldmdahi	r4!, {r8, r9, sl, sp}
    1614:	17950000 	ldrne	r0, [r5, r0]
    1618:	0b450000 	bleq	1141620 <__bss_end__+0x11375f8>
    161c:	01280000 			; <UNDEFINED> instruction: 0x01280000
    1620:	8c030550 	cfstr32hi	mvfx0, [r3], {80}	; 0x50
    1624:	00000096 	muleq	r0, r6, r0
    1628:	00884427 	addeq	r4, r8, r7, lsr #8
    162c:	00179500 	andseq	r9, r7, r0, lsl #10
    1630:	000b6800 	andeq	r6, fp, r0, lsl #16
    1634:	50012800 	andpl	r2, r1, r0, lsl #16
    1638:	995c0305 	ldmdbls	ip, {r0, r2, r8, r9}^
    163c:	01280000 			; <UNDEFINED> instruction: 0x01280000
    1640:	00750251 	rsbseq	r0, r5, r1, asr r2
    1644:	02520128 	subseq	r0, r2, #40, 2
    1648:	27000076 	smlsdxcs	r0, r6, r0, r0
    164c:	0000886c 	andeq	r8, r0, ip, ror #16
    1650:	00001795 	muleq	r0, r5, r7
    1654:	00000b7f 	andeq	r0, r0, pc, ror fp
    1658:	05500128 	ldrbeq	r0, [r0, #-296]	; 0xfffffed8
    165c:	00968c03 	addseq	r8, r6, r3, lsl #24
    1660:	78270000 	stmdavc	r7!, {}	; <UNPREDICTABLE>
    1664:	95000088 	strls	r0, [r0, #-136]	; 0xffffff78
    1668:	9c000017 	stcls	0, cr0, [r0], {23}
    166c:	2800000b 	stmdacs	r0, {r0, r1, r3}
    1670:	03055001 	movweq	r5, #20481	; 0x5001
    1674:	000099bc 			; <UNDEFINED> instruction: 0x000099bc
    1678:	02510128 	subseq	r0, r1, #40, 2
    167c:	27000075 	smlsdxcs	r0, r5, r0, r0
    1680:	00008934 	andeq	r8, r0, r4, lsr r9
    1684:	00001795 	muleq	r0, r5, r7
    1688:	00000bb3 			; <UNDEFINED> instruction: 0x00000bb3
    168c:	05500128 	ldrbeq	r0, [r0, #-296]	; 0xfffffed8
    1690:	00968c03 	addseq	r8, r6, r3, lsl #24
    1694:	44290000 	strtmi	r0, [r9], #-0
    1698:	95000089 	strls	r0, [r0, #-137]	; 0xffffff77
    169c:	28000017 	stmdacs	r0, {r0, r1, r2, r4}
    16a0:	03055001 	movweq	r5, #20481	; 0x5001
    16a4:	00009994 	muleq	r0, r4, r9
    16a8:	02510128 	subseq	r0, r1, #40, 2
    16ac:	01280075 			; <UNDEFINED> instruction: 0x01280075
    16b0:	00760252 	rsbseq	r0, r6, r2, asr r2
    16b4:	040d0000 	streq	r0, [sp], #-0
    16b8:	000009b0 			; <UNDEFINED> instruction: 0x000009b0
    16bc:	00007324 	andeq	r7, r0, r4, lsr #6
    16c0:	1b870100 	blne	fe1c1ac8 <__bss_end__+0xfe1b7aa0>
    16c4:	f8000001 			; <UNDEFINED> instruction: 0xf8000001
    16c8:	18000085 	stmdane	r0, {r0, r2, r7}
    16cc:	01000002 	tsteq	r0, r2
    16d0:	000f049c 	muleq	pc, ip, r4	; <UNPREDICTABLE>
    16d4:	06722a00 	ldrbteq	r2, [r2], -r0, lsl #20
    16d8:	87010000 	strhi	r0, [r1, -r0]
    16dc:	00000068 	andeq	r0, r0, r8, rrx
    16e0:	00000082 	andeq	r0, r0, r2, lsl #1
    16e4:	00020c2a 	andeq	r0, r2, sl, lsr #24
    16e8:	9b870100 	blls	fe1c1af0 <__bss_end__+0xfe1b7ac8>
    16ec:	c4000005 	strgt	r0, [r0], #-5
    16f0:	2a000000 	bcs	16f8 <_start-0x6908>
    16f4:	000004ce 	andeq	r0, r0, lr, asr #9
    16f8:	059b8701 	ldreq	r8, [fp, #1793]	; 0x701
    16fc:	01060000 	mrseq	r0, (UNDEF: 6)
    1700:	342a0000 	strtcc	r0, [sl], #-0
    1704:	01000005 	tsteq	r0, r5
    1708:	00002c87 	andeq	r2, r0, r7, lsl #25
    170c:	00014800 	andeq	r4, r1, r0, lsl #16
    1710:	00682b00 	rsbeq	r2, r8, r0, lsl #22
    1714:	0bd38801 	bleq	ff4e3720 <__bss_end__+0xff4d96f8>
    1718:	018d0000 	orreq	r0, sp, r0
    171c:	702b0000 	eorvc	r0, fp, r0
    1720:	01007274 	tsteq	r0, r4, ror r2
    1724:	00011b89 	andeq	r1, r1, r9, lsl #23
    1728:	0001c300 	andeq	ip, r1, r0, lsl #6
    172c:	02112c00 	andseq	r2, r1, #0, 24
    1730:	0f140000 	svceq	0x00140000
    1734:	03050000 	movweq	r0, #20480	; 0x5000
    1738:	000096f8 	strdeq	r9, [r0], -r8
    173c:	746f742b 	strbtvc	r7, [pc], #-1067	; 1744 <_start-0x68bc>
    1740:	2c8e0100 	stfcss	f0, [lr], {0}
    1744:	f9000000 			; <UNDEFINED> instruction: 0xf9000000
    1748:	2b000001 	blcs	1754 <_start-0x68ac>
    174c:	8f01006e 	svchi	0x0001006e
    1750:	0000002c 	andeq	r0, r0, ip, lsr #32
    1754:	00000258 	andeq	r0, r0, r8, asr r2
    1758:	00862827 	addeq	r2, r6, r7, lsr #16
    175c:	00179500 	andseq	r9, r7, r0, lsl #10
    1760:	000c8c00 	andeq	r8, ip, r0, lsl #24
    1764:	50012800 	andpl	r2, r1, r0, lsl #16
    1768:	968c0305 	strls	r0, [ip], r5, lsl #6
    176c:	27000000 	strcs	r0, [r0, -r0]
    1770:	00008634 	andeq	r8, r0, r4, lsr r6
    1774:	00001795 	muleq	r0, r5, r7
    1778:	00000ca9 	andeq	r0, r0, r9, lsr #25
    177c:	05500128 	ldrbeq	r0, [r0, #-296]	; 0xfffffed8
    1780:	00982003 	addseq	r2, r8, r3
    1784:	51012800 	tstpl	r1, r0, lsl #16
    1788:	00007502 	andeq	r7, r0, r2, lsl #10
    178c:	00869427 	addeq	r9, r6, r7, lsr #8
    1790:	0016a500 	andseq	sl, r6, r0, lsl #10
    1794:	000cbd00 	andeq	fp, ip, r0, lsl #26
    1798:	50012800 	andpl	r2, r1, r0, lsl #16
    179c:	00007402 	andeq	r7, r0, r2, lsl #8
    17a0:	00869c27 	addeq	r9, r6, r7, lsr #24
    17a4:	00111100 	andseq	r1, r1, r0, lsl #2
    17a8:	000cd100 	andeq	sp, ip, r0, lsl #2
    17ac:	51012800 	tstpl	r1, r0, lsl #16
    17b0:	00800802 	addeq	r0, r0, r2, lsl #16
    17b4:	0086a427 	addeq	sl, r6, r7, lsr #8
    17b8:	00163600 	andseq	r3, r6, r0, lsl #12
    17bc:	000ce500 	andeq	lr, ip, r0, lsl #10
    17c0:	50012800 	andpl	r2, r1, r0, lsl #16
    17c4:	00007402 	andeq	r7, r0, r2, lsl #8
    17c8:	0086b027 	addeq	fp, r6, r7, lsr #32
    17cc:	00160f00 	andseq	r0, r6, r0, lsl #30
    17d0:	000cf900 	andeq	pc, ip, r0, lsl #18
    17d4:	50012800 	andpl	r2, r1, r0, lsl #16
    17d8:	00007402 	andeq	r7, r0, r2, lsl #8
    17dc:	0086bc27 	addeq	fp, r6, r7, lsr #24
    17e0:	00111100 	andseq	r1, r1, r0, lsl #2
    17e4:	000d0d00 	andeq	r0, sp, r0, lsl #26
    17e8:	50012800 	andpl	r2, r1, r0, lsl #16
    17ec:	00007702 	andeq	r7, r0, r2, lsl #14
    17f0:	0086c427 	addeq	ip, r6, r7, lsr #8
    17f4:	00158f00 	andseq	r8, r5, r0, lsl #30
    17f8:	000d2100 	andeq	r2, sp, r0, lsl #2
    17fc:	50012800 	andpl	r2, r1, r0, lsl #16
    1800:	00007402 	andeq	r7, r0, r2, lsl #8
    1804:	0086e027 	addeq	lr, r6, r7, lsr #32
    1808:	00106a00 	andseq	r6, r0, r0, lsl #20
    180c:	000d3500 	andeq	r3, sp, r0, lsl #10
    1810:	50012800 	andpl	r2, r1, r0, lsl #16
    1814:	00007402 	andeq	r7, r0, r2, lsl #8
    1818:	0086f027 	addeq	pc, r6, r7, lsr #32
    181c:	00166d00 	andseq	r6, r6, r0, lsl #26
    1820:	000d4900 	andeq	r4, sp, r0, lsl #18
    1824:	50012800 	andpl	r2, r1, r0, lsl #16
    1828:	00007402 	andeq	r7, r0, r2, lsl #8
    182c:	0086fc27 	addeq	pc, r6, r7, lsr #24
    1830:	00179500 	andseq	r9, r7, r0, lsl #10
    1834:	000d6000 	andeq	r6, sp, r0
    1838:	50012800 	andpl	r2, r1, r0, lsl #16
    183c:	968c0305 	strls	r0, [ip], r5, lsl #6
    1840:	27000000 	strcs	r0, [r0, -r0]
    1844:	00008710 	andeq	r8, r0, r0, lsl r7
    1848:	00001795 	muleq	r0, r5, r7
    184c:	00000d89 	andeq	r0, r0, r9, lsl #27
    1850:	05500128 	ldrbeq	r0, [r0, #-296]	; 0xfffffed8
    1854:	00992c03 	addseq	r2, r9, r3, lsl #24
    1858:	51012800 	tstpl	r1, r0, lsl #16
    185c:	28007502 	stmdacs	r0, {r1, r8, sl, ip, sp, lr}
    1860:	76025201 	strvc	r5, [r2], -r1, lsl #4
    1864:	53012800 	movwpl	r2, #6144	; 0x1800
    1868:	00007402 	andeq	r7, r0, r2, lsl #8
    186c:	0087202d 	addeq	r2, r7, sp, lsr #32
    1870:	0017a000 	andseq	sl, r7, r0
    1874:	87342700 	ldrhi	r2, [r4, -r0, lsl #14]!
    1878:	17950000 	ldrne	r0, [r5, r0]
    187c:	0dc10000 	stcleq	0, cr0, [r1]
    1880:	01280000 			; <UNDEFINED> instruction: 0x01280000
    1884:	e0030550 	and	r0, r3, r0, asr r5
    1888:	28000097 	stmdacs	r0, {r0, r1, r2, r4, r7}
    188c:	03055101 	movweq	r5, #20737	; 0x5101
    1890:	00009790 	muleq	r0, r0, r7
    1894:	05520128 	ldrbeq	r0, [r2, #-296]	; 0xfffffed8
    1898:	0096f803 	addseq	pc, r6, r3, lsl #16
    189c:	53012800 	movwpl	r2, #6144	; 0x1800
    18a0:	008b0802 	addeq	r0, fp, r2, lsl #16
    18a4:	0087382d 	addeq	r3, r7, sp, lsr #16
    18a8:	0017ab00 	andseq	sl, r7, r0, lsl #22
    18ac:	87402700 	strbhi	r2, [r0, -r0, lsl #14]
    18b0:	17950000 	ldrne	r0, [r5, r0]
    18b4:	0de10000 	stcleq	0, cr0, [r1]
    18b8:	01280000 			; <UNDEFINED> instruction: 0x01280000
    18bc:	38030550 	stmdacc	r3, {r4, r6, r8, sl}
    18c0:	00000098 	muleq	r0, r8, r0
    18c4:	00874c27 	addeq	r4, r7, r7, lsr #24
    18c8:	00179500 	andseq	r9, r7, r0, lsl #10
    18cc:	000dfe00 	andeq	pc, sp, r0, lsl #28
    18d0:	50012800 	andpl	r2, r1, r0, lsl #16
    18d4:	98440305 	stmdals	r4, {r0, r2, r8, r9}^
    18d8:	01280000 			; <UNDEFINED> instruction: 0x01280000
    18dc:	00750251 	rsbseq	r0, r5, r1, asr r2
    18e0:	87502d00 	ldrbhi	r2, [r0, -r0, lsl #26]
    18e4:	17a00000 	strne	r0, [r0, r0]!
    18e8:	68270000 	stmdavs	r7!, {}	; <UNPREDICTABLE>
    18ec:	95000087 	strls	r0, [r0, #-135]	; 0xffffff79
    18f0:	3d000017 	stccc	0, cr0, [r0, #-92]	; 0xffffffa4
    18f4:	2800000e 	stmdacs	r0, {r1, r2, r3}
    18f8:	03055001 	movweq	r5, #20481	; 0x5001
    18fc:	0000986c 	andeq	r9, r0, ip, ror #16
    1900:	05510128 	ldrbeq	r0, [r1, #-296]	; 0xfffffed8
    1904:	00979003 	addseq	r9, r7, r3
    1908:	52012800 	andpl	r2, r1, #0, 16
    190c:	96f80305 	ldrbtls	r0, [r8], r5, lsl #6
    1910:	01280000 			; <UNDEFINED> instruction: 0x01280000
    1914:	93080253 	movwls	r0, #33363	; 0x8253
    1918:	007d0228 	rsbseq	r0, sp, r8, lsr #4
    191c:	00007502 	andeq	r7, r0, r2, lsl #10
    1920:	00876c2d 	addeq	r6, r7, sp, lsr #24
    1924:	0017ab00 	andseq	sl, r7, r0, lsl #22
    1928:	87742700 	ldrbhi	r2, [r4, -r0, lsl #14]!
    192c:	17950000 	ldrne	r0, [r5, r0]
    1930:	0e5d0000 	cdpeq	0, 5, cr0, cr13, cr0, {0}
    1934:	01280000 			; <UNDEFINED> instruction: 0x01280000
    1938:	38030550 	stmdacc	r3, {r4, r6, r8, sl}
    193c:	00000098 	muleq	r0, r8, r0
    1940:	00879027 	addeq	r9, r7, r7, lsr #32
    1944:	00179500 	andseq	r9, r7, r0, lsl #10
    1948:	000e7a00 	andeq	r7, lr, r0, lsl #20
    194c:	50012800 	andpl	r2, r1, r0, lsl #16
    1950:	98a40305 	stmials	r4!, {r0, r2, r8, r9}
    1954:	01280000 			; <UNDEFINED> instruction: 0x01280000
    1958:	00760252 	rsbseq	r0, r6, r2, asr r2
    195c:	87942d00 	ldrhi	r2, [r4, r0, lsl #26]
    1960:	17a00000 	strne	r0, [r0, r0]!
    1964:	bc270000 	stclt	0, cr0, [r7], #-0
    1968:	95000087 	strls	r0, [r0, #-135]	; 0xffffff79
    196c:	b9000017 	stmdblt	r0, {r0, r1, r2, r4}
    1970:	2800000e 	stmdacs	r0, {r1, r2, r3}
    1974:	03055001 	movweq	r5, #20481	; 0x5001
    1978:	000098d0 	ldrdeq	r9, [r0], -r0
    197c:	05510128 	ldrbeq	r0, [r1, #-296]	; 0xfffffed8
    1980:	00979003 	addseq	r9, r7, r3
    1984:	52012800 	andpl	r2, r1, #0, 16
    1988:	96f80305 	ldrbtls	r0, [r8], r5, lsl #6
    198c:	01280000 			; <UNDEFINED> instruction: 0x01280000
    1990:	97080253 	smlsdls	r8, r3, r2, r0
    1994:	047d0228 	ldrbteq	r0, [sp], #-552	; 0xfffffdd8
    1998:	00007602 	andeq	r7, r0, r2, lsl #12
    199c:	0087c02d 	addeq	ip, r7, sp, lsr #32
    19a0:	0017ab00 	andseq	sl, r7, r0, lsl #22
    19a4:	87c42d00 	strbhi	r2, [r4, r0, lsl #26]
    19a8:	17a00000 	strne	r0, [r0, r0]!
    19ac:	d8270000 	stmdale	r7!, {}	; <UNPREDICTABLE>
    19b0:	95000087 	strls	r0, [r0, #-135]	; 0xffffff79
    19b4:	fa000017 	blx	1a18 <_start-0x65e8>
    19b8:	2800000e 	stmdacs	r0, {r1, r2, r3}
    19bc:	03055001 	movweq	r5, #20481	; 0x5001
    19c0:	0000990c 	andeq	r9, r0, ip, lsl #18
    19c4:	05510128 	ldrbeq	r0, [r1, #-296]	; 0xfffffed8
    19c8:	00979003 	addseq	r9, r7, r3
    19cc:	52012800 	andpl	r2, r1, #0, 16
    19d0:	96f80305 	ldrbtls	r0, [r8], r5, lsl #6
    19d4:	01280000 			; <UNDEFINED> instruction: 0x01280000
    19d8:	a5080253 	strge	r0, [r8, #-595]	; 0xfffffdad
    19dc:	87dc2d00 	ldrbhi	r2, [ip, r0, lsl #26]
    19e0:	17ab0000 	strne	r0, [fp, r0]!
    19e4:	08000000 	stmdaeq	r0, {}	; <UNPREDICTABLE>
    19e8:	0000012a 	andeq	r0, r0, sl, lsr #2
    19ec:	00000f14 	andeq	r0, r0, r4, lsl pc
    19f0:	0000dd09 	andeq	sp, r0, r9, lsl #26
    19f4:	0e000700 	cdpeq	7, 0, cr0, cr0, cr0, {0}
    19f8:	00000f04 	andeq	r0, r0, r4, lsl #30
    19fc:	00027d2e 	andeq	r7, r2, lr, lsr #26
    1a00:	40720100 	rsbsmi	r0, r2, r0, lsl #2
    1a04:	b8000085 	stmdalt	r0, {r0, r2, r7}
    1a08:	01000000 	mrseq	r0, (UNDEF: 0)
    1a0c:	0010559c 	mulseq	r0, ip, r5
    1a10:	0b602a00 	bleq	180c218 <__bss_end__+0x18021f0>
    1a14:	72010000 	andvc	r0, r1, #0
    1a18:	0000011b 	andeq	r0, r0, fp, lsl r1
    1a1c:	00000276 	andeq	r0, r0, r6, ror r2
    1a20:	00020c2a 	andeq	r0, r2, sl, lsr #24
    1a24:	9b720100 	blls	1c81e2c <__bss_end__+0x1c77e04>
    1a28:	94000005 	strls	r0, [r0], #-5
    1a2c:	2a000002 	bcs	1a3c <_start-0x65c4>
    1a30:	000004ce 	andeq	r0, r0, lr, asr #9
    1a34:	059b7201 	ldreq	r7, [fp, #513]	; 0x201
    1a38:	02b20000 	adcseq	r0, r2, #0
    1a3c:	342a0000 	strtcc	r0, [sl], #-0
    1a40:	01000005 	tsteq	r0, r5
    1a44:	00002c72 	andeq	r2, r0, r2, ror ip
    1a48:	0002d000 	andeq	sp, r2, r0
    1a4c:	00682b00 	rsbeq	r2, r8, r0, lsl #22
    1a50:	0bd37301 	bleq	ff4de65c <__bss_end__+0xff4d4634>
    1a54:	02ee0000 	rsceq	r0, lr, #0
    1a58:	112c0000 			; <UNDEFINED> instruction: 0x112c0000
    1a5c:	65000002 	strvs	r0, [r0, #-2]
    1a60:	05000010 	streq	r0, [r0, #-16]
    1a64:	0096f003 	addseq	pc, r6, r3
    1a68:	85582700 	ldrbhi	r2, [r8, #-1792]	; 0xfffff900
    1a6c:	15e60000 	strbne	r0, [r6, #0]!
    1a70:	0f9a0000 	svceq	0x009a0000
    1a74:	01280000 			; <UNDEFINED> instruction: 0x01280000
    1a78:	00750250 	rsbseq	r0, r5, r0, asr r2
    1a7c:	85742700 	ldrbhi	r2, [r4, #-1792]!	; 0xfffff900
    1a80:	17950000 	ldrne	r0, [r5, r0]
    1a84:	0fb10000 	svceq	0x00b10000
    1a88:	01280000 			; <UNDEFINED> instruction: 0x01280000
    1a8c:	8c030550 	cfstr32hi	mvfx0, [r3], {80}	; 0x50
    1a90:	00000096 	muleq	r0, r6, r0
    1a94:	00858027 	addeq	r8, r5, r7, lsr #32
    1a98:	00179500 	andseq	r9, r7, r0, lsl #10
    1a9c:	000fce00 	andeq	ip, pc, r0, lsl #28
    1aa0:	50012800 	andpl	r2, r1, r0, lsl #16
    1aa4:	98140305 	ldmdals	r4, {r0, r2, r8, r9}
    1aa8:	01280000 			; <UNDEFINED> instruction: 0x01280000
    1aac:	00750251 	rsbseq	r0, r5, r1, asr r2
    1ab0:	85882700 	strhi	r2, [r8, #1792]	; 0x700
    1ab4:	106a0000 	rsbne	r0, sl, r0
    1ab8:	0fe20000 	svceq	0x00e20000
    1abc:	01280000 			; <UNDEFINED> instruction: 0x01280000
    1ac0:	00740250 	rsbseq	r0, r4, r0, asr r2
    1ac4:	85ac2700 	strhi	r2, [ip, #1792]!	; 0x700
    1ac8:	166d0000 	strbtne	r0, [sp], -r0
    1acc:	0ff60000 	svceq	0x00f60000
    1ad0:	01280000 			; <UNDEFINED> instruction: 0x01280000
    1ad4:	00740250 	rsbseq	r0, r4, r0, asr r2
    1ad8:	85b42d00 	ldrhi	r2, [r4, #3328]!	; 0xd00
    1adc:	11110000 	tstne	r1, r0
    1ae0:	bc270000 	stclt	0, cr0, [r7], #-0
    1ae4:	8f000085 	svchi	0x00000085
    1ae8:	13000015 	movwne	r0, #21
    1aec:	28000010 	stmdacs	r0, {r4}
    1af0:	74025001 	strvc	r5, [r2], #-1
    1af4:	c82d0000 	stmdagt	sp!, {}	; <UNPREDICTABLE>
    1af8:	a0000085 	andge	r0, r0, r5, lsl #1
    1afc:	27000017 	smladcs	r0, r7, r0, r0
    1b00:	000085dc 	ldrdeq	r8, [r0], -ip
    1b04:	00001795 	muleq	r0, r5, r7
    1b08:	0000104b 	andeq	r1, r0, fp, asr #32
    1b0c:	05500128 	ldrbeq	r0, [r0, #-296]	; 0xfffffed8
    1b10:	0097e003 	addseq	lr, r7, r3
    1b14:	51012800 	tstpl	r1, r0, lsl #16
    1b18:	97900305 	ldrls	r0, [r0, r5, lsl #6]
    1b1c:	01280000 			; <UNDEFINED> instruction: 0x01280000
    1b20:	f0030552 			; <UNDEFINED> instruction: 0xf0030552
    1b24:	28000096 	stmdacs	r0, {r1, r2, r4, r7}
    1b28:	08025301 	stmdaeq	r2, {r0, r8, r9, ip, lr}
    1b2c:	e02d0075 	eor	r0, sp, r5, ror r0
    1b30:	ab000085 	blge	1d4c <_start-0x62b4>
    1b34:	00000017 	andeq	r0, r0, r7, lsl r0
    1b38:	00012a08 	andeq	r2, r1, r8, lsl #20
    1b3c:	00106500 	andseq	r6, r0, r0, lsl #10
    1b40:	00dd0900 	sbcseq	r0, sp, r0, lsl #18
    1b44:	00060000 	andeq	r0, r6, r0
    1b48:	0010550e 	andseq	r5, r0, lr, lsl #10
    1b4c:	06602f00 	strbteq	r2, [r0], -r0, lsl #30
    1b50:	59010000 	stmdbpl	r1, {}	; <UNPREDICTABLE>
    1b54:	00000025 	andeq	r0, r0, r5, lsr #32
    1b58:	00008468 	andeq	r8, r0, r8, ror #8
    1b5c:	00000064 	andeq	r0, r0, r4, rrx
    1b60:	11119c01 	tstne	r1, r1, lsl #24
    1b64:	68300000 	ldmdavs	r0!, {}	; <UNPREDICTABLE>
    1b68:	d3590100 	cmple	r9, #0, 2
    1b6c:	1700000b 	strne	r0, [r0, -fp]
    1b70:	27000003 	strcs	r0, [r0, -r3]
    1b74:	00008474 	andeq	r8, r0, r4, ror r4
    1b78:	00001462 	andeq	r1, r0, r2, ror #8
    1b7c:	000010a4 	andeq	r1, r0, r4, lsr #1
    1b80:	02500128 	subseq	r0, r0, #40, 2
    1b84:	27000074 	smlsdxcs	r0, r4, r0, r0
    1b88:	00008484 	andeq	r8, r0, r4, lsl #9
    1b8c:	000016a5 	andeq	r1, r0, r5, lsr #13
    1b90:	000010b8 	strheq	r1, [r0], -r8
    1b94:	02500128 	subseq	r0, r0, #40, 2
    1b98:	27000074 	smlsdxcs	r0, r4, r0, r0
    1b9c:	00008490 	muleq	r0, r0, r4
    1ba0:	000012fc 	strdeq	r1, [r0], -ip
    1ba4:	000010d2 	ldrdeq	r1, [r0], -r2
    1ba8:	02510128 	subseq	r0, r1, #40, 2
    1bac:	01288008 			; <UNDEFINED> instruction: 0x01288008
    1bb0:	00740252 	rsbseq	r0, r4, r2, asr r2
    1bb4:	84a02700 	strthi	r2, [r0], #1792	; 0x700
    1bb8:	16360000 	ldrtne	r0, [r6], -r0
    1bbc:	10e60000 	rscne	r0, r6, r0
    1bc0:	01280000 			; <UNDEFINED> instruction: 0x01280000
    1bc4:	00740250 	rsbseq	r0, r4, r0, asr r2
    1bc8:	84ac2700 	strthi	r2, [ip], #1792	; 0x700
    1bcc:	160f0000 	strne	r0, [pc], -r0
    1bd0:	10fa0000 	rscsne	r0, sl, r0
    1bd4:	01280000 			; <UNDEFINED> instruction: 0x01280000
    1bd8:	00740250 	rsbseq	r0, r4, r0, asr r2
    1bdc:	84bc2900 	ldrthi	r2, [ip], #2304	; 0x900
    1be0:	12fc0000 	rscsne	r0, ip, #0
    1be4:	01280000 			; <UNDEFINED> instruction: 0x01280000
    1be8:	00750250 	rsbseq	r0, r5, r0, asr r2
    1bec:	02520128 	subseq	r0, r2, #40, 2
    1bf0:	00000074 	andeq	r0, r0, r4, ror r0
    1bf4:	0005af31 	andeq	sl, r5, r1, lsr pc
    1bf8:	344f0100 	strbcc	r0, [pc], #-256	; 1c00 <_start-0x6400>
    1bfc:	14000082 	strne	r0, [r0], #-130	; 0xffffff7e
    1c00:	01000000 	mrseq	r0, (UNDEF: 0)
    1c04:	0011619c 	mulseq	r1, ip, r1
    1c08:	00703000 	rsbseq	r3, r0, r0
    1c0c:	011b4f01 	tsteq	fp, r1, lsl #30
    1c10:	03350000 	teqeq	r5, #0
    1c14:	722a0000 	eorvc	r0, sl, #0
    1c18:	01000006 	tsteq	r0, r6
    1c1c:	00002c4f 	andeq	r2, r0, pc, asr #24
    1c20:	00035600 	andeq	r5, r3, r0, lsl #12
    1c24:	82442900 	subhi	r2, r4, #0, 18
    1c28:	17b60000 	ldrne	r0, [r6, r0]!
    1c2c:	01280000 			; <UNDEFINED> instruction: 0x01280000
    1c30:	01f30350 	mvnseq	r0, r0, asr r3
    1c34:	51012850 	tstpl	r1, r0, asr r8
    1c38:	28fe0802 	ldmcs	lr!, {r1, fp}^
    1c3c:	f3035201 	vhsub.u8	d5, d3, d1
    1c40:	00005101 	andeq	r5, r0, r1, lsl #2
    1c44:	0006022f 	andeq	r0, r6, pc, lsr #4
    1c48:	25410100 	strbcs	r0, [r1, #-256]	; 0xffffff00
    1c4c:	28000000 	stmdacs	r0, {}	; <UNPREDICTABLE>
    1c50:	0c000081 	stceq	0, cr0, [r0], {129}	; 0x81
    1c54:	01000001 	tsteq	r0, r1
    1c58:	0012fc9c 	mulseq	r2, ip, ip
    1c5c:	00703000 	rsbseq	r3, r0, r0
    1c60:	011d4101 	tsteq	sp, r1, lsl #2
    1c64:	03820000 	orreq	r0, r2, #0
    1c68:	722a0000 	eorvc	r0, sl, #0
    1c6c:	01000006 	tsteq	r0, r6
    1c70:	00002c41 	andeq	r2, r0, r1, asr #24
    1c74:	0003b900 	andeq	fp, r3, r0, lsl #18
    1c78:	00683000 	rsbeq	r3, r8, r0
    1c7c:	0bd34101 	bleq	ff4d2088 <__bss_end__+0xff4c8060>
    1c80:	03e50000 	mvneq	r0, #0
    1c84:	692b0000 	stmdbvs	fp!, {}	; <UNPREDICTABLE>
    1c88:	25420100 	strbcs	r0, [r2, #-256]	; 0xffffff00
    1c8c:	0e000000 	cdpeq	0, 0, cr0, cr0, cr0, {0}
    1c90:	32000004 	andcc	r0, r0, #4
    1c94:	00008150 	andeq	r8, r0, r0, asr r1
    1c98:	000000c0 	andeq	r0, r0, r0, asr #1
    1c9c:	0005d025 	andeq	sp, r5, r5, lsr #32
    1ca0:	25450100 	strbcs	r0, [r5, #-256]	; 0xffffff00
    1ca4:	38000000 	stmdacc	r0, {}	; <UNPREDICTABLE>
    1ca8:	33000004 	movwcc	r0, #4
    1cac:	00001770 	andeq	r1, r0, r0, ror r7
    1cb0:	00008184 	andeq	r8, r0, r4, lsl #3
    1cb4:	00000000 	andeq	r0, r0, r0
    1cb8:	12714601 	rsbsne	r4, r1, #1048576	; 0x100000
    1cbc:	7c340000 	ldcvc	0, cr0, [r4], #-0
    1cc0:	4b000017 	blmi	1d24 <_start-0x62dc>
    1cc4:	35000004 	strcc	r0, [r0, #-4]
    1cc8:	00000000 	andeq	r0, r0, r0
    1ccc:	00178536 	andseq	r8, r7, r6, lsr r5
    1cd0:	00046900 	andeq	r6, r4, r0, lsl #18
    1cd4:	818c2700 	orrhi	r2, ip, r0, lsl #14
    1cd8:	17950000 	ldrne	r0, [r5, r0]
    1cdc:	12060000 	andne	r0, r6, #0
    1ce0:	01280000 			; <UNDEFINED> instruction: 0x01280000
    1ce4:	00770250 	rsbseq	r0, r7, r0, asr r2
    1ce8:	81982700 	orrshi	r2, r8, r0, lsl #14
    1cec:	17950000 	ldrne	r0, [r5, r0]
    1cf0:	121d0000 	andsne	r0, sp, #0
    1cf4:	01280000 			; <UNDEFINED> instruction: 0x01280000
    1cf8:	2c030550 	cfstr32cs	mvfx0, [r3], {80}	; 0x50
    1cfc:	00000097 	muleq	r0, r7, r0
    1d00:	0081ac27 	addeq	sl, r1, r7, lsr #24
    1d04:	00179500 	andseq	r9, r7, r0, lsl #10
    1d08:	00123100 	andseq	r3, r2, r0, lsl #2
    1d0c:	50012800 	andpl	r2, r1, r0, lsl #16
    1d10:	00007702 	andeq	r7, r0, r2, lsl #14
    1d14:	0081c027 	addeq	ip, r1, r7, lsr #32
    1d18:	00179500 	andseq	r9, r7, r0, lsl #10
    1d1c:	00124800 	andseq	r4, r2, r0, lsl #16
    1d20:	50012800 	andpl	r2, r1, r0, lsl #16
    1d24:	97380305 	ldrls	r0, [r8, -r5, lsl #6]!
    1d28:	27000000 	strcs	r0, [r0, -r0]
    1d2c:	000081f8 	strdeq	r8, [r0], -r8	; <UNPREDICTABLE>
    1d30:	00001795 	muleq	r0, r5, r7
    1d34:	0000125c 	andeq	r1, r0, ip, asr r2
    1d38:	02500128 	subseq	r0, r0, #40, 2
    1d3c:	29000077 	stmdbcs	r0, {r0, r1, r2, r4, r5, r6}
    1d40:	0000820c 	andeq	r8, r0, ip, lsl #4
    1d44:	00001795 	muleq	r0, r5, r7
    1d48:	05500128 	ldrbeq	r0, [r0, #-296]	; 0xfffffed8
    1d4c:	00975803 	addseq	r5, r7, r3, lsl #16
    1d50:	00000000 	andeq	r0, r0, r0
    1d54:	00815827 	addeq	r5, r1, r7, lsr #16
    1d58:	00166d00 	andseq	r6, r6, r0, lsl #26
    1d5c:	00128500 	andseq	r8, r2, r0, lsl #10
    1d60:	50012800 	andpl	r2, r1, r0, lsl #16
    1d64:	00007602 	andeq	r7, r0, r2, lsl #12
    1d68:	00816c27 	addeq	r6, r1, r7, lsr #24
    1d6c:	00179500 	andseq	r9, r7, r0, lsl #10
    1d70:	00129900 	andseq	r9, r2, r0, lsl #18
    1d74:	50012800 	andpl	r2, r1, r0, lsl #16
    1d78:	00007702 	andeq	r7, r0, r2, lsl #14
    1d7c:	00817427 	addeq	r7, r1, r7, lsr #8
    1d80:	00179500 	andseq	r9, r7, r0, lsl #10
    1d84:	0012b000 	andseq	fp, r2, r0
    1d88:	50012800 	andpl	r2, r1, r0, lsl #16
    1d8c:	97000305 	strls	r0, [r0, -r5, lsl #6]
    1d90:	27000000 	strcs	r0, [r0, -r0]
    1d94:	00008184 	andeq	r8, r0, r4, lsl #3
    1d98:	00001795 	muleq	r0, r5, r7
    1d9c:	000012d3 	ldrdeq	r1, [r0], -r3
    1da0:	05500128 	ldrbeq	r0, [r0, #-296]	; 0xfffffed8
    1da4:	00970803 	addseq	r0, r7, r3, lsl #16
    1da8:	51012800 	tstpl	r1, r0, lsl #16
    1dac:	28007502 	stmdacs	r0, {r1, r8, sl, ip, sp, lr}
    1db0:	74025201 	strvc	r5, [r2], #-513	; 0xfffffdff
    1db4:	d4270000 	strtle	r0, [r7], #-0
    1db8:	95000081 	strls	r0, [r0, #-129]	; 0xffffff7f
    1dbc:	e7000017 	smlad	r0, r7, r0, r0
    1dc0:	28000012 	stmdacs	r0, {r1, r4}
    1dc4:	77025001 	strvc	r5, [r2, -r1]
    1dc8:	dc290000 	stcle	0, cr0, [r9], #-0
    1dcc:	95000081 	strls	r0, [r0, #-129]	; 0xffffff7f
    1dd0:	28000017 	stmdacs	r0, {r0, r1, r2, r4}
    1dd4:	03055001 	movweq	r5, #20481	; 0x5001
    1dd8:	00009774 	andeq	r9, r0, r4, ror r7
    1ddc:	2f000000 	svccs	0x00000000
    1de0:	00000697 	muleq	r0, r7, r6
    1de4:	00253401 	eoreq	r3, r5, r1, lsl #8
    1de8:	83600000 	cmnhi	r0, #0
    1dec:	01080000 	mrseq	r0, (UNDEF: 8)
    1df0:	9c010000 	stcls	0, cr0, [r1], {-0}
    1df4:	00001462 	andeq	r1, r0, r2, ror #8
    1df8:	01007030 	tsteq	r0, r0, lsr r0
    1dfc:	00011d34 	andeq	r1, r1, r4, lsr sp
    1e00:	00048b00 	andeq	r8, r4, r0, lsl #22
    1e04:	06722a00 	ldrbteq	r2, [r2], -r0, lsl #20
    1e08:	34010000 	strcc	r0, [r1], #-0
    1e0c:	0000002c 	andeq	r0, r0, ip, lsr #32
    1e10:	000004cd 	andeq	r0, r0, sp, asr #9
    1e14:	01006830 	tsteq	r0, r0, lsr r8
    1e18:	000bd334 	andeq	sp, fp, r4, lsr r3
    1e1c:	00050700 	andeq	r0, r5, r0, lsl #14
    1e20:	00692b00 	rsbeq	r2, r9, r0, lsl #22
    1e24:	00253501 	eoreq	r3, r5, r1, lsl #10
    1e28:	053b0000 	ldreq	r0, [fp, #-0]!
    1e2c:	30350000 	eorscc	r0, r5, r0
    1e30:	25000000 	strcs	r0, [r0, #-0]
    1e34:	000005d0 	ldrdeq	r0, [r0], -r0	; <UNPREDICTABLE>
    1e38:	00253801 	eoreq	r3, r5, r1, lsl #16
    1e3c:	05650000 	strbeq	r0, [r5, #-0]!
    1e40:	70330000 	eorsvc	r0, r3, r0
    1e44:	c0000017 	andgt	r0, r0, r7, lsl r0
    1e48:	48000083 	stmdami	r0, {r0, r1, r7}
    1e4c:	01000000 	mrseq	r0, (UNDEF: 0)
    1e50:	00140839 	andseq	r0, r4, r9, lsr r8
    1e54:	177c3400 	ldrbne	r3, [ip, -r0, lsl #8]!
    1e58:	05830000 	streq	r0, [r3]
    1e5c:	48350000 	ldmdami	r5!, {}	; <UNPREDICTABLE>
    1e60:	36000000 	strcc	r0, [r0], -r0
    1e64:	00001785 	andeq	r1, r0, r5, lsl #15
    1e68:	000005a1 	andeq	r0, r0, r1, lsr #11
    1e6c:	0083c827 	addeq	ip, r3, r7, lsr #16
    1e70:	00179500 	andseq	r9, r7, r0, lsl #10
    1e74:	00139d00 	andseq	r9, r3, r0, lsl #26
    1e78:	50012800 	andpl	r2, r1, r0, lsl #16
    1e7c:	00007702 	andeq	r7, r0, r2, lsl #14
    1e80:	0083d427 	addeq	sp, r3, r7, lsr #8
    1e84:	00179500 	andseq	r9, r7, r0, lsl #10
    1e88:	0013b400 	andseq	fp, r3, r0, lsl #8
    1e8c:	50012800 	andpl	r2, r1, r0, lsl #16
    1e90:	972c0305 	strls	r0, [ip, -r5, lsl #6]!
    1e94:	27000000 	strcs	r0, [r0, -r0]
    1e98:	000083e8 	andeq	r8, r0, r8, ror #7
    1e9c:	00001795 	muleq	r0, r5, r7
    1ea0:	000013c8 	andeq	r1, r0, r8, asr #7
    1ea4:	02500128 	subseq	r0, r0, #40, 2
    1ea8:	27000077 	smlsdxcs	r0, r7, r0, r0
    1eac:	000083fc 	strdeq	r8, [r0], -ip
    1eb0:	00001795 	muleq	r0, r5, r7
    1eb4:	000013df 	ldrdeq	r1, [r0], -pc	; <UNPREDICTABLE>
    1eb8:	05500128 	ldrbeq	r0, [r0, #-296]	; 0xfffffed8
    1ebc:	00973803 	addseq	r3, r7, r3, lsl #16
    1ec0:	24270000 	strtcs	r0, [r7], #-0
    1ec4:	95000084 	strls	r0, [r0, #-132]	; 0xffffff7c
    1ec8:	f3000017 	vqadd.u8	d0, d0, d7
    1ecc:	28000013 	stmdacs	r0, {r0, r1, r4}
    1ed0:	77025001 	strvc	r5, [r2, -r1]
    1ed4:	38290000 	stmdacc	r9!, {}	; <UNPREDICTABLE>
    1ed8:	95000084 	strls	r0, [r0, #-132]	; 0xffffff7c
    1edc:	28000017 	stmdacs	r0, {r0, r1, r2, r4}
    1ee0:	03055001 	movweq	r5, #20481	; 0x5001
    1ee4:	00009758 	andeq	r9, r0, r8, asr r7
    1ee8:	27000000 	strcs	r0, [r0, -r0]
    1eec:	00008390 	muleq	r0, r0, r3
    1ef0:	0000166d 	andeq	r1, r0, sp, ror #12
    1ef4:	0000141c 	andeq	r1, r0, ip, lsl r4
    1ef8:	02500128 	subseq	r0, r0, #40, 2
    1efc:	27000076 	smlsdxcs	r0, r6, r0, r0
    1f00:	000083a4 	andeq	r8, r0, r4, lsr #7
    1f04:	00001795 	muleq	r0, r5, r7
    1f08:	00001430 	andeq	r1, r0, r0, lsr r4
    1f0c:	02500128 	subseq	r0, r0, #40, 2
    1f10:	27000077 	smlsdxcs	r0, r7, r0, r0
    1f14:	000083ac 	andeq	r8, r0, ip, lsr #7
    1f18:	00001795 	muleq	r0, r5, r7
    1f1c:	00001447 	andeq	r1, r0, r7, asr #8
    1f20:	05500128 	ldrbeq	r0, [r0, #-296]	; 0xfffffed8
    1f24:	00970003 	addseq	r0, r7, r3
    1f28:	c0290000 	eorgt	r0, r9, r0
    1f2c:	95000083 	strls	r0, [r0, #-131]	; 0xffffff7d
    1f30:	28000017 	stmdacs	r0, {r0, r1, r2, r4}
    1f34:	03055001 	movweq	r5, #20481	; 0x5001
    1f38:	00009708 	andeq	r9, r0, r8, lsl #14
    1f3c:	02520128 	subseq	r0, r2, #40, 2
    1f40:	00000074 	andeq	r0, r0, r4, ror r0
    1f44:	06132f00 	ldreq	r2, [r3], -r0, lsl #30
    1f48:	2a010000 	bcs	41f50 <__bss_end__+0x37f28>
    1f4c:	00000025 	andeq	r0, r0, r5, lsr #32
    1f50:	0000826c 	andeq	r8, r0, ip, ror #4
    1f54:	000000f4 	strdeq	r0, [r0], -r4
    1f58:	158f9c01 	strne	r9, [pc, #3073]	; 2b61 <_start-0x549f>
    1f5c:	68300000 	ldmdavs	r0!, {}	; <UNPREDICTABLE>
    1f60:	d32a0100 			; <UNDEFINED> instruction: 0xd32a0100
    1f64:	d000000b 	andle	r0, r0, fp
    1f68:	33000005 	movwcc	r0, #5
    1f6c:	00001770 	andeq	r1, r0, r0, ror r7
    1f70:	000082a8 	andeq	r8, r0, r8, lsr #5
    1f74:	00000018 	andeq	r0, r0, r8, lsl r0
    1f78:	15312d01 	ldrne	r2, [r1, #-3329]!	; 0xfffff2ff
    1f7c:	7c340000 	ldcvc	0, cr0, [r4], #-0
    1f80:	04000017 	streq	r0, [r0], #-23	; 0xffffffe9
    1f84:	35000006 	strcc	r0, [r0, #-6]
    1f88:	00000018 	andeq	r0, r0, r8, lsl r0
    1f8c:	00178536 	andseq	r8, r7, r6, lsr r5
    1f90:	00062200 	andeq	r2, r6, r0, lsl #4
    1f94:	82b02700 	adcshi	r2, r0, #0, 14
    1f98:	17950000 	ldrne	r0, [r5, r0]
    1f9c:	14c60000 	strbne	r0, [r6], #0
    1fa0:	01280000 			; <UNDEFINED> instruction: 0x01280000
    1fa4:	00750250 	rsbseq	r0, r5, r0, asr r2
    1fa8:	82bc2700 	adcshi	r2, ip, #0, 14
    1fac:	17950000 	ldrne	r0, [r5, r0]
    1fb0:	14dd0000 	ldrbne	r0, [sp], #0
    1fb4:	01280000 			; <UNDEFINED> instruction: 0x01280000
    1fb8:	2c030550 	cfstr32cs	mvfx0, [r3], {80}	; 0x50
    1fbc:	00000097 	muleq	r0, r7, r0
    1fc0:	0082d027 	addeq	sp, r2, r7, lsr #32
    1fc4:	00179500 	andseq	r9, r7, r0, lsl #10
    1fc8:	0014f100 	andseq	pc, r4, r0, lsl #2
    1fcc:	50012800 	andpl	r2, r1, r0, lsl #16
    1fd0:	00007502 	andeq	r7, r0, r2, lsl #10
    1fd4:	0082e427 	addeq	lr, r2, r7, lsr #8
    1fd8:	00179500 	andseq	r9, r7, r0, lsl #10
    1fdc:	00150800 	andseq	r0, r5, r0, lsl #16
    1fe0:	50012800 	andpl	r2, r1, r0, lsl #16
    1fe4:	97380305 	ldrls	r0, [r8, -r5, lsl #6]!
    1fe8:	27000000 	strcs	r0, [r0, -r0]
    1fec:	00008324 	andeq	r8, r0, r4, lsr #6
    1ff0:	00001795 	muleq	r0, r5, r7
    1ff4:	0000151c 	andeq	r1, r0, ip, lsl r5
    1ff8:	02500128 	subseq	r0, r0, #40, 2
    1ffc:	29000075 	stmdbcs	r0, {r0, r2, r4, r5, r6}
    2000:	00008338 	andeq	r8, r0, r8, lsr r3
    2004:	00001795 	muleq	r0, r5, r7
    2008:	05500128 	ldrbeq	r0, [r0, #-296]	; 0xfffffed8
    200c:	00975803 	addseq	r5, r7, r3, lsl #16
    2010:	00000000 	andeq	r0, r0, r0
    2014:	00829027 	addeq	r9, r2, r7, lsr #32
    2018:	00179500 	andseq	r9, r7, r0, lsl #10
    201c:	00154500 	andseq	r4, r5, r0, lsl #10
    2020:	50012800 	andpl	r2, r1, r0, lsl #16
    2024:	00007502 	andeq	r7, r0, r2, lsl #10
    2028:	00829827 	addeq	r9, r2, r7, lsr #16
    202c:	00179500 	andseq	r9, r7, r0, lsl #10
    2030:	00155c00 	andseq	r5, r5, r0, lsl #24
    2034:	50012800 	andpl	r2, r1, r0, lsl #16
    2038:	97000305 	strls	r0, [r0, -r5, lsl #6]
    203c:	27000000 	strcs	r0, [r0, -r0]
    2040:	000082a8 	andeq	r8, r0, r8, lsr #5
    2044:	00001795 	muleq	r0, r5, r7
    2048:	0000157e 	andeq	r1, r0, lr, ror r5
    204c:	05500128 	ldrbeq	r0, [r0, #-296]	; 0xfffffed8
    2050:	00970803 	addseq	r0, r7, r3, lsl #16
    2054:	51012800 	tstpl	r1, r0, lsl #16
    2058:	28007402 	stmdacs	r0, {r1, sl, ip, sp, lr}
    205c:	30015201 	andcc	r5, r1, r1, lsl #4
    2060:	83002900 	movwhi	r2, #2304	; 0x900
    2064:	158f0000 	strne	r0, [pc]	; 206c <_start-0x5f94>
    2068:	01280000 			; <UNDEFINED> instruction: 0x01280000
    206c:	00740250 	rsbseq	r0, r4, r0, asr r2
    2070:	df2f0000 	svcle	0x002f0000
    2074:	01000005 	tsteq	r0, r5
    2078:	00006821 	andeq	r6, r0, r1, lsr #16
    207c:	00824800 	addeq	r4, r2, r0, lsl #16
    2080:	00002400 	andeq	r2, r0, r0, lsl #8
    2084:	e69c0100 	ldr	r0, [ip], r0, lsl #2
    2088:	30000015 	andcc	r0, r0, r5, lsl r0
    208c:	21010068 	tstcs	r1, r8, rrx
    2090:	00000bd3 	ldrdeq	r0, [r0], -r3
    2094:	00000651 	andeq	r0, r0, r1, asr r6
    2098:	646c6f37 	strbtvs	r6, [ip], #-3895	; 0xfffff0c9
    209c:	2c220100 	stfcss	f0, [r2], #-0
    20a0:	01000000 	mrseq	r0, (UNDEF: 0)
    20a4:	05e32355 	strbeq	r2, [r3, #853]!	; 0x355
    20a8:	24010000 	strcs	r0, [r1], #-0
    20ac:	00000068 	andeq	r0, r0, r8, rrx
    20b0:	64295001 	strtvs	r5, [r9], #-1
    20b4:	c1000082 	smlabbgt	r0, r2, r0, r0
    20b8:	28000017 	stmdacs	r0, {r0, r1, r2, r4}
    20bc:	74025001 	strvc	r5, [r2], #-1
    20c0:	51012800 	tstpl	r1, r0, lsl #16
    20c4:	00380802 	eorseq	r0, r8, r2, lsl #16
    20c8:	05b82f00 	ldreq	r2, [r8, #3840]!	; 0xf00
    20cc:	1c010000 	stcne	0, cr0, [r1], {-0}
    20d0:	00000bd3 	ldrdeq	r0, [r0], -r3
    20d4:	00008120 	andeq	r8, r0, r0, lsr #2
    20d8:	00000008 	andeq	r0, r0, r8
    20dc:	160f9c01 	strne	r9, [pc], -r1, lsl #24
    20e0:	602a0000 	eorvs	r0, sl, r0
    20e4:	0100000b 	tsteq	r0, fp
    20e8:	00011b1c 	andeq	r1, r1, ip, lsl fp
    20ec:	00066f00 	andeq	r6, r6, r0, lsl #30
    20f0:	6c2f0000 	stcvs	0, cr0, [pc], #-0	; 20f8 <_start-0x5f08>
    20f4:	01000006 	tsteq	r0, r6
    20f8:	00002c19 	andeq	r2, r0, r9, lsl ip
    20fc:	00811400 	addeq	r1, r1, r0, lsl #8
    2100:	00000c00 	andeq	r0, r0, r0, lsl #24
    2104:	369c0100 	ldrcc	r0, [ip], r0, lsl #2
    2108:	30000016 	andcc	r0, r0, r6, lsl r0
    210c:	19010068 	stmdbne	r1, {r3, r5, r6}
    2110:	00000bd3 	ldrdeq	r0, [r0], -r3
    2114:	00000690 	muleq	r0, r0, r6
    2118:	061d2f00 	ldreq	r2, [sp], -r0, lsl #30
    211c:	17010000 	strne	r0, [r1, -r0]
    2120:	0000011b 	andeq	r0, r0, fp, lsl r1
    2124:	000080fc 	strdeq	r8, [r0], -ip
    2128:	00000018 	andeq	r0, r0, r8, lsl r0
    212c:	166d9c01 	strbtne	r9, [sp], -r1, lsl #24
    2130:	68300000 	ldmdavs	r0!, {}	; <UNPREDICTABLE>
    2134:	d3170100 	tstle	r7, #0, 2
    2138:	b100000b 	tstlt	r0, fp
    213c:	29000006 	stmdbcs	r0, {r1, r2}
    2140:	00008108 	andeq	r8, r0, r8, lsl #2
    2144:	0000166d 	andeq	r1, r0, sp, ror #12
    2148:	02500128 	subseq	r0, r0, #40, 2
    214c:	00000074 	andeq	r0, r0, r4, ror r0
    2150:	0005f62f 	andeq	pc, r5, pc, lsr #12
    2154:	1b150100 	blne	54255c <__bss_end__+0x538534>
    2158:	ec000001 	stc	0, cr0, [r0], {1}
    215c:	10000080 	andne	r0, r0, r0, lsl #1
    2160:	01000000 	mrseq	r0, (UNDEF: 0)
    2164:	0016a59c 	mulseq	r6, ip, r5
    2168:	00683000 	rsbeq	r3, r8, r0
    216c:	0bd31501 	bleq	ff4c7578 <__bss_end__+0xff4bd550>
    2170:	06cf0000 	strbeq	r0, [pc], r0
    2174:	f4290000 	vld4.8	{d0-d3}, [r9], r0
    2178:	a5000080 	strge	r0, [r0, #-128]	; 0xffffff80
    217c:	28000016 	stmdacs	r0, {r1, r2, r4}
    2180:	f3035001 	vhadd.u8	d5, d3, d1
    2184:	00005001 	andeq	r5, r0, r1
    2188:	0005532f 	andeq	r5, r5, pc, lsr #6
    218c:	1b130100 	blne	4c2594 <__bss_end__+0x4b856c>
    2190:	e4000001 	str	r0, [r0], #-1
    2194:	08000080 	stmdaeq	r0, {r7}
    2198:	01000000 	mrseq	r0, (UNDEF: 0)
    219c:	0016cc9c 	mulseq	r6, ip, ip
    21a0:	00683000 	rsbeq	r3, r8, r0
    21a4:	0bd31301 	bleq	ff4c6db0 <__bss_end__+0xff4bcd88>
    21a8:	06f00000 	ldrbteq	r0, [r0], r0
    21ac:	2e000000 	cdpcs	0, 0, cr0, cr0, cr0, {0}
    21b0:	00000138 	andeq	r0, r0, r8, lsr r1
    21b4:	84cc0901 	strbhi	r0, [ip], #2305	; 0x901
    21b8:	00740000 	rsbseq	r0, r4, r0
    21bc:	9c010000 	stcls	0, cr0, [r1], {-0}
    21c0:	00001770 	andeq	r1, r0, r0, ror r7
    21c4:	000b592a 	andeq	r5, fp, sl, lsr #18
    21c8:	1b090100 	blne	2425d0 <__bss_end__+0x2385a8>
    21cc:	10000001 	andne	r0, r0, r1
    21d0:	30000007 	andcc	r0, r0, r7
    21d4:	0901006e 	stmdbeq	r1, {r1, r2, r3, r5, r6}
    21d8:	0000002c 	andeq	r0, r0, ip, lsr #32
    21dc:	00000756 	andeq	r0, r0, r6, asr r7
    21e0:	0002112c 	andeq	r1, r2, ip, lsr #2
    21e4:	000f1400 	andeq	r1, pc, r0, lsl #8
    21e8:	e8030500 	stmda	r3, {r8, sl}
    21ec:	27000096 			; <UNDEFINED> instruction: 0x27000096
    21f0:	000084f8 	strdeq	r8, [r0], -r8	; <UNPREDICTABLE>
    21f4:	00001795 	muleq	r0, r5, r7
    21f8:	0000172f 	andeq	r1, r0, pc, lsr #14
    21fc:	05500128 	ldrbeq	r0, [r0, #-296]	; 0xfffffed8
    2200:	0097c403 	addseq	ip, r7, r3, lsl #8
    2204:	51012800 	tstpl	r1, r0, lsl #16
    2208:	28380802 	ldmdacs	r8!, {r1, fp}
    220c:	08025201 	stmdaeq	r2, {r0, r9, ip, lr}
    2210:	142d0080 	strtne	r0, [sp], #-128	; 0xffffff80
    2214:	a0000085 	andge	r0, r0, r5, lsl #1
    2218:	27000017 	smladcs	r0, r7, r0, r0
    221c:	00008528 	andeq	r8, r0, r8, lsr #10
    2220:	00001795 	muleq	r0, r5, r7
    2224:	00001766 	andeq	r1, r0, r6, ror #14
    2228:	05500128 	ldrbeq	r0, [r0, #-296]	; 0xfffffed8
    222c:	00979c03 	addseq	r9, r7, r3, lsl #24
    2230:	51012800 	tstpl	r1, r0, lsl #16
    2234:	97900305 	ldrls	r0, [r0, r5, lsl #6]
    2238:	01280000 			; <UNDEFINED> instruction: 0x01280000
    223c:	e8030552 	stmda	r3, {r1, r4, r6, r8, sl}
    2240:	28000096 	stmdacs	r0, {r1, r2, r4, r7}
    2244:	3a015301 	bcc	56e50 <__bss_end__+0x4ce28>
    2248:	852c2d00 	strhi	r2, [ip, #-3328]!	; 0xfffff300
    224c:	17ab0000 	strne	r0, [fp, r0]!
    2250:	38000000 	stmdacc	r0, {}	; <UNPREDICTABLE>
    2254:	00000648 	andeq	r0, r0, r8, asr #12
    2258:	8f035502 	svchi	0x00035502
    225c:	39000017 	stmdbcc	r0, {r0, r1, r2, r4}
    2260:	55020068 	strpl	r0, [r2, #-104]	; 0xffffff98
    2264:	00000bd3 	ldrdeq	r0, [r0], -r3
    2268:	02006c3a 	andeq	r6, r0, #14848	; 0x3a00
    226c:	00178f57 	andseq	r8, r7, r7, asr pc
    2270:	040d0000 	streq	r0, [sp], #-0
    2274:	0000091a 	andeq	r0, r0, sl, lsl r9
    2278:	0006b53b 	andeq	fp, r6, fp, lsr r5
    227c:	0006b500 	andeq	fp, r6, r0, lsl #10
    2280:	3b290800 	blcc	a44288 <__bss_end__+0xa3a260>
    2284:	000001ec 	andeq	r0, r0, ip, ror #3
    2288:	000001ec 	andeq	r0, r0, ip, ror #3
    228c:	9c3b1e08 	ldcls	14, cr1, [fp], #-32	; 0xffffffe0
    2290:	9c000002 	stcls	0, cr0, [r0], {2}
    2294:	08000002 	stmdaeq	r0, {r1}
    2298:	048d3b65 	streq	r3, [sp], #2917	; 0xb65
    229c:	048d0000 	streq	r0, [sp], #0
    22a0:	19090000 	stmdbne	r9, {}	; <UNPREDICTABLE>
    22a4:	0005403b 	andeq	r4, r5, fp, lsr r0
    22a8:	00054000 	andeq	r4, r5, r0
    22ac:	00050a00 	andeq	r0, r5, r0, lsl #20
    22b0:	0000098e 	andeq	r0, r0, lr, lsl #19
    22b4:	051d0004 	ldreq	r0, [sp, #-4]
    22b8:	01040000 	mrseq	r0, (UNDEF: 4)
    22bc:	000003d6 	ldrdeq	r0, [r0], -r6
    22c0:	0006d00c 	andeq	sp, r6, ip
    22c4:	0006de00 	andeq	sp, r6, r0, lsl #28
    22c8:	00895c00 	addeq	r5, r9, r0, lsl #24
    22cc:	00005800 	andeq	r5, r0, r0, lsl #16
    22d0:	00036e00 	andeq	r6, r3, r0, lsl #28
    22d4:	06bc0200 	ldrteq	r0, [ip], r0, lsl #4
    22d8:	28020000 	stmdacs	r2, {}	; <UNPREDICTABLE>
    22dc:	00000030 	andeq	r0, r0, r0, lsr r0
    22e0:	0006a803 	andeq	sl, r6, r3, lsl #16
    22e4:	00070400 	andeq	r0, r7, r0, lsl #8
    22e8:	00000047 	andeq	r0, r0, r7, asr #32
    22ec:	0006cb04 	andeq	ip, r6, r4, lsl #22
    22f0:	00004700 	andeq	r4, r0, r0, lsl #14
    22f4:	05000000 	streq	r0, [r0, #-0]
    22f8:	06aa0204 	strteq	r0, [sl], r4, lsl #4
    22fc:	63020000 	movwvs	r0, #8192	; 0x2000
    2300:	00000025 	andeq	r0, r0, r5, lsr #32
    2304:	69050406 	stmdbvs	r5, {r1, r2, sl}
    2308:	0700746e 	streq	r7, [r0, -lr, ror #8]
    230c:	00660704 	rsbeq	r0, r6, r4, lsl #14
    2310:	01070000 	mrseq	r0, (UNDEF: 7)
    2314:	0002fa06 	andeq	pc, r2, r6, lsl #20
    2318:	05020700 	streq	r0, [r2, #-1792]	; 0xfffff900
    231c:	00000314 	andeq	r0, r0, r4, lsl r3
    2320:	af050407 	svcge	0x00050407
    2324:	07000000 	streq	r0, [r0, -r0]
    2328:	00aa0508 	adceq	r0, sl, r8, lsl #10
    232c:	01070000 	mrseq	r0, (UNDEF: 7)
    2330:	0002f808 	andeq	pc, r2, r8, lsl #16
    2334:	07020700 	streq	r0, [r2, -r0, lsl #14]
    2338:	00000225 	andeq	r0, r0, r5, lsr #4
    233c:	61070407 	tstvs	r7, r7, lsl #8
    2340:	07000000 	streq	r0, [r0, -r0]
    2344:	005c0708 	subseq	r0, ip, r8, lsl #14
    2348:	e6020000 	str	r0, [r2], -r0
    234c:	03000002 	movweq	r0, #2
    2350:	00005407 	andeq	r5, r0, r7, lsl #8
    2354:	02d50200 	sbcseq	r0, r5, #0, 4
    2358:	2c040000 	stccs	0, cr0, [r4], {-0}
    235c:	00000070 	andeq	r0, r0, r0, ror r0
    2360:	0003bf02 	andeq	fp, r3, r2, lsl #30
    2364:	70720400 	rsbsvc	r0, r2, r0, lsl #8
    2368:	08000000 	stmdaeq	r0, {}	; <UNPREDICTABLE>
    236c:	00000276 	andeq	r0, r0, r6, ror r2
    2370:	5b016505 	blpl	5b78c <__bss_end__+0x51764>
    2374:	09000000 	stmdbeq	r0, {}	; <UNPREDICTABLE>
    2378:	e6a60404 	strt	r0, [r6], r4, lsl #8
    237c:	0a000000 	beq	2384 <_start-0x5c7c>
    2380:	00000270 	andeq	r0, r0, r0, ror r2
    2384:	00bba804 	adcseq	sl, fp, r4, lsl #16
    2388:	e50a0000 	str	r0, [sl, #-0]
    238c:	04000001 	streq	r0, [r0], #-1
    2390:	0000e6a9 	andeq	lr, r0, r9, lsr #13
    2394:	7e0b0000 	cdpvc	0, 0, cr0, cr11, cr0, {0}
    2398:	f6000000 			; <UNDEFINED> instruction: 0xf6000000
    239c:	0c000000 	stceq	0, cr0, [r0], {-0}
    23a0:	000000f6 	strdeq	r0, [r0], -r6
    23a4:	04070003 	streq	r0, [r7], #-3
    23a8:	0002a907 	andeq	sl, r2, r7, lsl #18
    23ac:	04080d00 	streq	r0, [r8], #-3328	; 0xfffff300
    23b0:	00011ea3 	andeq	r1, r1, r3, lsr #29
    23b4:	03a90e00 			; <UNDEFINED> instruction: 0x03a90e00
    23b8:	a5040000 	strge	r0, [r4, #-0]
    23bc:	00000054 	andeq	r0, r0, r4, asr r0
    23c0:	03b10e00 			; <UNDEFINED> instruction: 0x03b10e00
    23c4:	aa040000 	bge	1023cc <__bss_end__+0xf83a4>
    23c8:	000000c7 	andeq	r0, r0, r7, asr #1
    23cc:	3c020004 	stccc	0, cr0, [r2], {4}
    23d0:	04000003 	streq	r0, [r0], #-3
    23d4:	0000fdab 	andeq	pc, r0, fp, lsr #27
    23d8:	01a20200 			; <UNDEFINED> instruction: 0x01a20200
    23dc:	af040000 	svcge	0x00040000
    23e0:	0000009a 	muleq	r0, sl, r0
    23e4:	013a040f 	teqeq	sl, pc, lsl #8
    23e8:	01070000 	mrseq	r0, (UNDEF: 7)
    23ec:	00030108 	andeq	r0, r3, r8, lsl #2
    23f0:	013a1000 	teqeq	sl, r0
    23f4:	53020000 	movwpl	r0, #8192	; 0x2000
    23f8:	06000004 	streq	r0, [r0], -r4
    23fc:	00008c16 	andeq	r8, r0, r6, lsl ip
    2400:	01b30300 			; <UNDEFINED> instruction: 0x01b30300
    2404:	06180000 	ldreq	r0, [r8], -r0
    2408:	0001a42d 	andeq	sl, r1, sp, lsr #8
    240c:	035d0e00 	cmpeq	sp, #0, 28
    2410:	2f060000 	svccs	0x00060000
    2414:	000001a4 	andeq	r0, r0, r4, lsr #3
    2418:	6b5f1100 	blvs	17c6820 <__bss_end__+0x17bc7f8>
    241c:	54300600 	ldrtpl	r0, [r0], #-1536	; 0xfffffa00
    2420:	04000000 	streq	r0, [r0], #-0
    2424:	0003940e 	andeq	r9, r3, lr, lsl #8
    2428:	54300600 	ldrtpl	r0, [r0], #-1536	; 0xfffffa00
    242c:	08000000 	stmdaeq	r0, {}	; <UNPREDICTABLE>
    2430:	00019c0e 	andeq	r9, r1, lr, lsl #24
    2434:	54300600 	ldrtpl	r0, [r0], #-1536	; 0xfffffa00
    2438:	0c000000 	stceq	0, cr0, [r0], {-0}
    243c:	0004a10e 	andeq	sl, r4, lr, lsl #2
    2440:	54300600 	ldrtpl	r0, [r0], #-1536	; 0xfffffa00
    2444:	10000000 	andne	r0, r0, r0
    2448:	00785f11 	rsbseq	r5, r8, r1, lsl pc
    244c:	01aa3106 			; <UNDEFINED> instruction: 0x01aa3106
    2450:	00140000 	andseq	r0, r4, r0
    2454:	0151040f 	cmpeq	r1, pc, lsl #8
    2458:	460b0000 	strmi	r0, [fp], -r0
    245c:	ba000001 	blt	2468 <_start-0x5b98>
    2460:	0c000001 	stceq	0, cr0, [r0], {1}
    2464:	000000f6 	strdeq	r0, [r0], -r6
    2468:	e0030000 	and	r0, r3, r0
    246c:	24000001 	strcs	r0, [r0], #-1
    2470:	02333506 	eorseq	r3, r3, #25165824	; 0x1800000
    2474:	a10e0000 	mrsge	r0, (UNDEF: 14)
    2478:	06000000 	streq	r0, [r0], -r0
    247c:	00005437 	andeq	r5, r0, r7, lsr r4
    2480:	c70e0000 	strgt	r0, [lr, -r0]
    2484:	06000003 	streq	r0, [r0], -r3
    2488:	00005438 	andeq	r5, r0, r8, lsr r4
    248c:	c40e0400 	strgt	r0, [lr], #-1024	; 0xfffffc00
    2490:	06000000 	streq	r0, [r0], -r0
    2494:	00005439 	andeq	r5, r0, r9, lsr r4
    2498:	220e0800 	andcs	r0, lr, #0, 16
    249c:	06000005 	streq	r0, [r0], -r5
    24a0:	0000543a 	andeq	r5, r0, sl, lsr r4
    24a4:	b90e0c00 	stmdblt	lr, {sl, fp}
    24a8:	06000002 	streq	r0, [r0], -r2
    24ac:	0000543b 	andeq	r5, r0, fp, lsr r4
    24b0:	920e1000 	andls	r1, lr, #0
    24b4:	06000002 	streq	r0, [r0], -r2
    24b8:	0000543c 	andeq	r5, r0, ip, lsr r4
    24bc:	a60e1400 	strge	r1, [lr], -r0, lsl #8
    24c0:	06000004 	streq	r0, [r0], -r4
    24c4:	0000543d 	andeq	r5, r0, sp, lsr r4
    24c8:	1e0e1800 	cdpne	8, 0, cr1, cr14, cr0, {0}
    24cc:	06000003 	streq	r0, [r0], -r3
    24d0:	0000543e 	andeq	r5, r0, lr, lsr r4
    24d4:	e90e1c00 	stmdb	lr, {sl, fp, ip}
    24d8:	06000004 	streq	r0, [r0], -r4
    24dc:	0000543f 	andeq	r5, r0, pc, lsr r4
    24e0:	12002000 	andne	r2, r0, #0
    24e4:	00000104 	andeq	r0, r0, r4, lsl #2
    24e8:	48060108 	stmdami	r6, {r3, r8}
    24ec:	00000273 	andeq	r0, r0, r3, ror r2
    24f0:	00018f0e 	andeq	r8, r1, lr, lsl #30
    24f4:	73490600 	movtvc	r0, #38400	; 0x9600
    24f8:	00000002 	andeq	r0, r0, r2
    24fc:	0000000e 	andeq	r0, r0, lr
    2500:	734a0600 	movtvc	r0, #42496	; 0xa600
    2504:	80000002 	andhi	r0, r0, r2
    2508:	00044513 	andeq	r4, r4, r3, lsl r5
    250c:	464c0600 	strbmi	r0, [ip], -r0, lsl #12
    2510:	00000001 	andeq	r0, r0, r1
    2514:	01291301 			; <UNDEFINED> instruction: 0x01291301
    2518:	4f060000 	svcmi	0x00060000
    251c:	00000146 	andeq	r0, r0, r6, asr #2
    2520:	0b000104 	bleq	2938 <_start-0x56c8>
    2524:	00000047 	andeq	r0, r0, r7, asr #32
    2528:	00000283 	andeq	r0, r0, r3, lsl #5
    252c:	0000f60c 	andeq	pc, r0, ip, lsl #12
    2530:	12001f00 	andne	r1, r0, #0, 30
    2534:	000002c2 	andeq	r0, r0, r2, asr #5
    2538:	5b060190 	blpl	182b80 <__bss_end__+0x178b58>
    253c:	000002c1 	andeq	r0, r0, r1, asr #5
    2540:	00035d0e 	andeq	r5, r3, lr, lsl #26
    2544:	c15c0600 	cmpgt	ip, r0, lsl #12
    2548:	00000002 	andeq	r0, r0, r2
    254c:	0003750e 	andeq	r7, r3, lr, lsl #10
    2550:	545d0600 	ldrbpl	r0, [sp], #-1536	; 0xfffffa00
    2554:	04000000 	streq	r0, [r0], #-0
    2558:	0001970e 	andeq	r9, r1, lr, lsl #14
    255c:	c75f0600 	ldrbgt	r0, [pc, -r0, lsl #12]
    2560:	08000002 	stmdaeq	r0, {r1}
    2564:	0001040e 	andeq	r0, r1, lr, lsl #8
    2568:	33600600 	cmncc	r0, #0, 12
    256c:	88000002 	stmdahi	r0, {r1}
    2570:	83040f00 	movwhi	r0, #20224	; 0x4f00
    2574:	0b000002 	bleq	2584 <_start-0x5a7c>
    2578:	000002d7 	ldrdeq	r0, [r0], -r7
    257c:	000002d7 	ldrdeq	r0, [r0], -r7
    2580:	0000f60c 	andeq	pc, r0, ip, lsl #12
    2584:	0f001f00 	svceq	0x00001f00
    2588:	0002dd04 	andeq	sp, r2, r4, lsl #26
    258c:	28031400 	stmdacs	r3, {sl, ip}
    2590:	08000003 	stmdaeq	r0, {r0, r1}
    2594:	03037306 	movweq	r7, #13062	; 0x3306
    2598:	be0e0000 	cdplt	0, 0, cr0, cr14, cr0, {0}
    259c:	06000000 	streq	r0, [r0], -r0
    25a0:	00030374 	andeq	r0, r3, r4, ror r3
    25a4:	1b0e0000 	blne	3825ac <__bss_end__+0x378584>
    25a8:	06000000 	streq	r0, [r0], -r0
    25ac:	00005475 	andeq	r5, r0, r5, ror r4
    25b0:	0f000400 	svceq	0x00000400
    25b4:	00007e04 	andeq	r7, r0, r4, lsl #28
    25b8:	03470300 	movteq	r0, #29440	; 0x7300
    25bc:	06680000 	strbteq	r0, [r8], -r0
    25c0:	000433b3 			; <UNDEFINED> instruction: 0x000433b3
    25c4:	705f1100 	subsvc	r1, pc, r0, lsl #2
    25c8:	03b40600 			; <UNDEFINED> instruction: 0x03b40600
    25cc:	00000003 	andeq	r0, r0, r3
    25d0:	00725f11 	rsbseq	r5, r2, r1, lsl pc
    25d4:	0054b506 	subseq	fp, r4, r6, lsl #10
    25d8:	11040000 	mrsne	r0, (UNDEF: 4)
    25dc:	0600775f 			; <UNDEFINED> instruction: 0x0600775f
    25e0:	000054b6 			; <UNDEFINED> instruction: 0x000054b6
    25e4:	220e0800 	andcs	r0, lr, #0, 16
    25e8:	06000001 	streq	r0, [r0], -r1
    25ec:	000069b7 			; <UNDEFINED> instruction: 0x000069b7
    25f0:	0b0e0c00 	bleq	3855f8 <__bss_end__+0x37b5d0>
    25f4:	06000002 	streq	r0, [r0], -r2
    25f8:	000069b8 			; <UNDEFINED> instruction: 0x000069b8
    25fc:	5f110e00 	svcpl	0x00110e00
    2600:	06006662 	streq	r6, [r0], -r2, ror #12
    2604:	0002deb9 			; <UNDEFINED> instruction: 0x0002deb9
    2608:	7b0e1000 	blvc	386610 <__bss_end__+0x37c5e8>
    260c:	06000000 	streq	r0, [r0], -r0
    2610:	000054ba 			; <UNDEFINED> instruction: 0x000054ba
    2614:	120e1800 	andne	r1, lr, #0, 16
    2618:	06000001 	streq	r0, [r0], -r1
    261c:	000047c1 	andeq	r4, r0, r1, asr #15
    2620:	780e1c00 	stmdavc	lr, {sl, fp, ip}
    2624:	0600000a 	streq	r0, [r0], -sl
    2628:	00058ec3 	andeq	r8, r5, r3, asr #29
    262c:	0c0e2000 	stceq	0, cr2, [lr], {-0}
    2630:	06000006 	streq	r0, [r0], -r6
    2634:	0005b8c5 	andeq	fp, r5, r5, asr #17
    2638:	b90e2400 	stmdblt	lr, {sl, sp}
    263c:	06000003 	streq	r0, [r0], -r3
    2640:	0005dcc8 	andeq	sp, r5, r8, asr #25
    2644:	030e2800 	movweq	r2, #59392	; 0xe800
    2648:	06000005 	streq	r0, [r0], -r5
    264c:	0005f6c9 	andeq	pc, r5, r9, asr #13
    2650:	5f112c00 	svcpl	0x00112c00
    2654:	06006275 			; <UNDEFINED> instruction: 0x06006275
    2658:	0002decc 	andeq	sp, r2, ip, asr #29
    265c:	5f113000 	svcpl	0x00113000
    2660:	06007075 			; <UNDEFINED> instruction: 0x06007075
    2664:	000303cd 	andeq	r0, r3, sp, asr #7
    2668:	5f113800 	svcpl	0x00113800
    266c:	06007275 			; <UNDEFINED> instruction: 0x06007275
    2670:	000054ce 	andeq	r5, r0, lr, asr #9
    2674:	b80e3c00 	stmdalt	lr, {sl, fp, ip, sp}
    2678:	06000000 	streq	r0, [r0], -r0
    267c:	0005fcd1 	ldrdeq	pc, [r5], -r1
    2680:	db0e4000 	blle	392688 <__bss_end__+0x388660>
    2684:	06000004 	streq	r0, [r0], -r4
    2688:	00060cd2 	ldrdeq	r0, [r6], -r2
    268c:	5f114300 	svcpl	0x00114300
    2690:	0600626c 	streq	r6, [r0], -ip, ror #4
    2694:	0002ded5 	ldrdeq	sp, [r2], -r5
    2698:	400e4400 	andmi	r4, lr, r0, lsl #8
    269c:	06000001 	streq	r0, [r0], -r1
    26a0:	000054d8 	ldrdeq	r5, [r0], -r8
    26a4:	510e4c00 	tstpl	lr, r0, lsl #24
    26a8:	06000001 	streq	r0, [r0], -r1
    26ac:	0000a5d9 	ldrdeq	sl, [r0], -r9
    26b0:	190e5000 	stmdbne	lr, {ip, lr}
    26b4:	0600000a 	streq	r0, [r0], -sl
    26b8:	000451dc 	ldrdeq	r5, [r4], -ip
    26bc:	840e5400 	strhi	r5, [lr], #-1024	; 0xfffffc00
    26c0:	06000002 	streq	r0, [r0], -r2
    26c4:	000129e0 	andeq	r2, r1, r0, ror #19
    26c8:	4f0e5800 	svcmi	0x000e5800
    26cc:	06000003 	streq	r0, [r0], -r3
    26d0:	00011ee2 	andeq	r1, r1, r2, ror #29
    26d4:	8a0e5c00 	bhi	3996dc <__bss_end__+0x38f6b4>
    26d8:	06000002 	streq	r0, [r0], -r2
    26dc:	000054e3 	andeq	r5, r0, r3, ror #9
    26e0:	15006400 	strne	r6, [r0, #-1024]	; 0xfffffc00
    26e4:	00000054 	andeq	r0, r0, r4, asr r0
    26e8:	00000451 	andeq	r0, r0, r1, asr r4
    26ec:	00045116 	andeq	r5, r4, r6, lsl r1
    26f0:	00471600 	subeq	r1, r7, r0, lsl #12
    26f4:	34160000 	ldrcc	r0, [r6], #-0
    26f8:	16000001 	strne	r0, [r0], -r1
    26fc:	00000054 	andeq	r0, r0, r4, asr r0
    2700:	5c040f00 	stcpl	15, cr0, [r4], {-0}
    2704:	10000004 	andne	r0, r0, r4
    2708:	00000451 	andeq	r0, r0, r1, asr r4
    270c:	00039c17 	andeq	r9, r3, r7, lsl ip
    2710:	06042800 	streq	r2, [r4], -r0, lsl #16
    2714:	058e0238 	streq	r0, [lr, #568]	; 0x238
    2718:	0d180000 	ldceq	0, cr0, [r8, #-0]
    271c:	06000003 	streq	r0, [r0], -r3
    2720:	0054023a 	subseq	r0, r4, sl, lsr r2
    2724:	18000000 	stmdane	r0, {}	; <UNPREDICTABLE>
    2728:	00000131 	andeq	r0, r0, r1, lsr r1
    272c:	63023f06 	movwvs	r3, #12038	; 0x2f06
    2730:	04000006 	streq	r0, [r0], #-6
    2734:	0001fb18 	andeq	pc, r1, r8, lsl fp	; <UNPREDICTABLE>
    2738:	023f0600 	eorseq	r0, pc, #0, 12
    273c:	00000663 	andeq	r0, r0, r3, ror #12
    2740:	01ab1808 			; <UNDEFINED> instruction: 0x01ab1808
    2744:	3f060000 	svccc	0x00060000
    2748:	00066302 	andeq	r6, r6, r2, lsl #6
    274c:	70180c00 	andsvc	r0, r8, r0, lsl #24
    2750:	06000003 	streq	r0, [r0], -r3
    2754:	00540241 	subseq	r0, r4, r1, asr #4
    2758:	18100000 	ldmdane	r0, {}	; <UNPREDICTABLE>
    275c:	00000029 	andeq	r0, r0, r9, lsr #32
    2760:	45024206 	strmi	r4, [r2, #-518]	; 0xfffffdfa
    2764:	14000008 	strne	r0, [r0], #-8
    2768:	00047b18 	andeq	r7, r4, r8, lsl fp
    276c:	02440600 	subeq	r0, r4, #0, 12
    2770:	00000054 	andeq	r0, r0, r4, asr r0
    2774:	037a1830 	cmneq	sl, #48, 16	; 0x300000
    2778:	45060000 	strmi	r0, [r6, #-0]
    277c:	0005b202 	andeq	fp, r5, r2, lsl #4
    2780:	ca183400 	bgt	60f788 <__bss_end__+0x605760>
    2784:	06000002 	streq	r0, [r0], -r2
    2788:	00540247 	subseq	r0, r4, r7, asr #4
    278c:	18380000 	ldmdane	r8!, {}	; <UNPREDICTABLE>
    2790:	0000038a 	andeq	r0, r0, sl, lsl #7
    2794:	60024906 	andvs	r4, r2, r6, lsl #18
    2798:	3c000008 	stccc	0, cr0, [r0], {8}
    279c:	00026818 	andeq	r6, r2, r8, lsl r8
    27a0:	024c0600 	subeq	r0, ip, #0, 12
    27a4:	000001a4 	andeq	r0, r0, r4, lsr #3
    27a8:	01ca1840 	biceq	r1, sl, r0, asr #16
    27ac:	4d060000 	stcmi	0, cr0, [r6, #-0]
    27b0:	00005402 	andeq	r5, r0, r2, lsl #8
    27b4:	1d184400 	cfldrsne	mvf4, [r8, #-0]
    27b8:	06000005 	streq	r0, [r0], -r5
    27bc:	01a4024e 			; <UNDEFINED> instruction: 0x01a4024e
    27c0:	18480000 	stmdane	r8, {}^	; <UNPREDICTABLE>
    27c4:	000002dc 	ldrdeq	r0, [r0], -ip
    27c8:	66024f06 	strvs	r4, [r2], -r6, lsl #30
    27cc:	4c000008 	stcmi	0, cr0, [r0], {8}
    27d0:	00020318 	andeq	r0, r2, r8, lsl r3
    27d4:	02520600 	subseq	r0, r2, #0, 12
    27d8:	00000054 	andeq	r0, r0, r4, asr r0
    27dc:	01491850 	cmpeq	r9, r0, asr r8
    27e0:	53060000 	movwpl	r0, #24576	; 0x6000
    27e4:	00013402 	andeq	r3, r1, r2, lsl #8
    27e8:	06185400 	ldreq	r5, [r8], -r0, lsl #8
    27ec:	06000003 	streq	r0, [r0], -r3
    27f0:	08230276 	stmdaeq	r3!, {r1, r2, r4, r5, r6, r9}
    27f4:	19580000 	ldmdbne	r8, {}^	; <UNPREDICTABLE>
    27f8:	000002c2 	andeq	r0, r0, r2, asr #5
    27fc:	c1027a06 	tstgt	r2, r6, lsl #20
    2800:	48000002 	stmdami	r0, {r1}
    2804:	02461901 	subeq	r1, r6, #16384	; 0x4000
    2808:	7b060000 	blvc	182810 <__bss_end__+0x1787e8>
    280c:	00028302 	andeq	r8, r2, r2, lsl #6
    2810:	19014c00 	stmdbne	r1, {sl, fp, lr}
    2814:	000004c9 	andeq	r0, r0, r9, asr #9
    2818:	77027f06 	strvc	r7, [r2, -r6, lsl #30]
    281c:	dc000008 	stcle	0, cr0, [r0], {8}
    2820:	011a1902 	tsteq	sl, r2, lsl #18
    2824:	84060000 	strhi	r0, [r6], #-0
    2828:	00062802 	andeq	r2, r6, r2, lsl #16
    282c:	1902e000 	stmdbne	r2, {sp, lr, pc}
    2830:	000000ff 	strdeq	r0, [r0], -pc	; <UNPREDICTABLE>
    2834:	83028506 	movwhi	r8, #9478	; 0x2506
    2838:	ec000008 	stc	0, cr0, [r0], {8}
    283c:	040f0002 	streq	r0, [pc], #-2	; 2844 <_start-0x57bc>
    2840:	00000433 	andeq	r0, r0, r3, lsr r4
    2844:	00005415 	andeq	r5, r0, r5, lsl r4
    2848:	0005b200 	andeq	fp, r5, r0, lsl #4
    284c:	04511600 	ldrbeq	r1, [r1], #-1536	; 0xfffffa00
    2850:	47160000 	ldrmi	r0, [r6, -r0]
    2854:	16000000 	strne	r0, [r0], -r0
    2858:	000005b2 			; <UNDEFINED> instruction: 0x000005b2
    285c:	00005416 	andeq	r5, r0, r6, lsl r4
    2860:	040f0000 	streq	r0, [pc], #-0	; 2868 <_start-0x5798>
    2864:	00000141 	andeq	r0, r0, r1, asr #2
    2868:	0594040f 	ldreq	r0, [r4, #1039]	; 0x40f
    286c:	b0150000 	andslt	r0, r5, r0
    2870:	dc000000 	stcle	0, cr0, [r0], {-0}
    2874:	16000005 	strne	r0, [r0], -r5
    2878:	00000451 	andeq	r0, r0, r1, asr r4
    287c:	00004716 	andeq	r4, r0, r6, lsl r7
    2880:	00b01600 	adcseq	r1, r0, r0, lsl #12
    2884:	54160000 	ldrpl	r0, [r6], #-0
    2888:	00000000 	andeq	r0, r0, r0
    288c:	05be040f 	ldreq	r0, [lr, #1039]!	; 0x40f
    2890:	54150000 	ldrpl	r0, [r5], #-0
    2894:	f6000000 			; <UNDEFINED> instruction: 0xf6000000
    2898:	16000005 	strne	r0, [r0], -r5
    289c:	00000451 	andeq	r0, r0, r1, asr r4
    28a0:	00004716 	andeq	r4, r0, r6, lsl r7
    28a4:	040f0000 	streq	r0, [pc], #-0	; 28ac <_start-0x5754>
    28a8:	000005e2 	andeq	r0, r0, r2, ror #11
    28ac:	00007e0b 	andeq	r7, r0, fp, lsl #28
    28b0:	00060c00 	andeq	r0, r6, r0, lsl #24
    28b4:	00f60c00 	rscseq	r0, r6, r0, lsl #24
    28b8:	00020000 	andeq	r0, r2, r0
    28bc:	00007e0b 	andeq	r7, r0, fp, lsl #28
    28c0:	00061c00 	andeq	r1, r6, r0, lsl #24
    28c4:	00f60c00 	rscseq	r0, r6, r0, lsl #24
    28c8:	00000000 	andeq	r0, r0, r0
    28cc:	00033508 	andeq	r3, r3, r8, lsl #10
    28d0:	011d0600 	tsteq	sp, r0, lsl #12
    28d4:	00000309 	andeq	r0, r0, r9, lsl #6
    28d8:	0004b01a 	andeq	fp, r4, sl, lsl r0
    28dc:	21060c00 	tstcs	r6, r0, lsl #24
    28e0:	00065d01 	andeq	r5, r6, r1, lsl #26
    28e4:	035d1800 	cmpeq	sp, #0, 16
    28e8:	23060000 	movwcs	r0, #24576	; 0x6000
    28ec:	00065d01 	andeq	r5, r6, r1, lsl #26
    28f0:	1e180000 	cdpne	0, 1, cr0, cr8, cr0, {0}
    28f4:	06000002 	streq	r0, [r0], -r2
    28f8:	00540124 	subseq	r0, r4, r4, lsr #2
    28fc:	18040000 	stmdane	r4, {}	; <UNPREDICTABLE>
    2900:	0000032f 	andeq	r0, r0, pc, lsr #6
    2904:	63012506 	movwvs	r2, #5382	; 0x1506
    2908:	08000006 	stmdaeq	r0, {r1, r2}
    290c:	28040f00 	stmdacs	r4, {r8, r9, sl, fp}
    2910:	0f000006 	svceq	0x00000006
    2914:	00061c04 	andeq	r1, r6, r4, lsl #24
    2918:	00211a00 	eoreq	r1, r1, r0, lsl #20
    291c:	060e0000 	streq	r0, [lr], -r0
    2920:	069e013d 			; <UNDEFINED> instruction: 0x069e013d
    2924:	a3180000 	tstge	r8, #0
    2928:	06000003 	streq	r0, [r0], -r3
    292c:	069e013e 			; <UNDEFINED> instruction: 0x069e013e
    2930:	18000000 	stmdane	r0, {}	; <UNPREDICTABLE>
    2934:	000003d0 	ldrdeq	r0, [r0], -r0	; <UNPREDICTABLE>
    2938:	9e013f06 	cdpls	15, 0, cr3, cr1, cr6, {0}
    293c:	06000006 	streq	r0, [r0], -r6
    2940:	00044e18 	andeq	r4, r4, r8, lsl lr
    2944:	01400600 	cmpeq	r0, r0, lsl #12
    2948:	00000085 	andeq	r0, r0, r5, lsl #1
    294c:	850b000c 	strhi	r0, [fp, #-12]
    2950:	ae000000 	cdpge	0, 0, cr0, cr0, cr0, {0}
    2954:	0c000006 	stceq	0, cr0, [r0], {6}
    2958:	000000f6 	strdeq	r0, [r0], -r6
    295c:	d01b0002 	andsle	r0, fp, r2
    2960:	af025706 	svcge	0x00025706
    2964:	18000007 	stmdane	r0, {r0, r1, r2}
    2968:	00000494 	muleq	r0, r4, r4
    296c:	5b025906 	blpl	98d8c <__bss_end__+0x8ed64>
    2970:	00000000 	andeq	r0, r0, r0
    2974:	00043818 	andeq	r3, r4, r8, lsl r8
    2978:	025a0600 	subseq	r0, sl, #0, 12
    297c:	00000134 	andeq	r0, r0, r4, lsr r1
    2980:	025b1804 	subseq	r1, fp, #4, 16	; 0x40000
    2984:	5b060000 	blpl	18298c <__bss_end__+0x178964>
    2988:	0007af02 	andeq	sl, r7, r2, lsl #30
    298c:	f4180800 			; <UNDEFINED> instruction: 0xf4180800
    2990:	06000004 	streq	r0, [r0], -r4
    2994:	01ba025c 			; <UNDEFINED> instruction: 0x01ba025c
    2998:	18240000 	stmdane	r4!, {}	; <UNPREDICTABLE>
    299c:	000001bb 			; <UNDEFINED> instruction: 0x000001bb
    29a0:	54025d06 	strpl	r5, [r2], #-3334	; 0xfffff2fa
    29a4:	48000000 	stmdami	r0, {}	; <UNPREDICTABLE>
    29a8:	00035818 	andeq	r5, r3, r8, lsl r8
    29ac:	025e0600 	subseq	r0, lr, #0, 12
    29b0:	00000093 	muleq	r0, r3, r0
    29b4:	050a1850 	streq	r1, [sl, #-2128]	; 0xfffff7b0
    29b8:	5f060000 	svcpl	0x00060000
    29bc:	00066902 	andeq	r6, r6, r2, lsl #18
    29c0:	63185800 	tstvs	r8, #0, 16
    29c4:	06000003 	streq	r0, [r0], -r3
    29c8:	011e0260 	tsteq	lr, r0, ror #4
    29cc:	18680000 	stmdane	r8!, {}^	; <UNPREDICTABLE>
    29d0:	0000050f 	andeq	r0, r0, pc, lsl #10
    29d4:	1e026106 	adfnes	f6, f2, f6
    29d8:	70000001 	andvc	r0, r0, r1
    29dc:	00009318 	andeq	r9, r0, r8, lsl r3
    29e0:	02620600 	rsbeq	r0, r2, #0, 12
    29e4:	0000011e 	andeq	r0, r0, lr, lsl r1
    29e8:	04bf1878 	ldrteq	r1, [pc], #2168	; 29f0 <_start-0x5610>
    29ec:	63060000 	movwvs	r0, #24576	; 0x6000
    29f0:	0007bf02 	andeq	fp, r7, r2, lsl #30
    29f4:	4f188000 	svcmi	0x00188000
    29f8:	06000002 	streq	r0, [r0], -r2
    29fc:	07cf0264 	strbeq	r0, [pc, r4, ror #4]
    2a00:	18880000 	stmne	r8, {}	; <UNPREDICTABLE>
    2a04:	0000045b 	andeq	r0, r0, fp, asr r4
    2a08:	54026506 	strpl	r6, [r2], #-1286	; 0xfffffafa
    2a0c:	a0000000 	andge	r0, r0, r0
    2a10:	00018118 	andeq	r8, r1, r8, lsl r1
    2a14:	02660600 	rsbeq	r0, r6, #0, 12
    2a18:	0000011e 	andeq	r0, r0, lr, lsl r1
    2a1c:	008418a4 	addeq	r1, r4, r4, lsr #17
    2a20:	67060000 	strvs	r0, [r6, -r0]
    2a24:	00011e02 	andeq	r1, r1, r2, lsl #28
    2a28:	7018ac00 	andsvc	sl, r8, r0, lsl #24
    2a2c:	06000001 	streq	r0, [r0], -r1
    2a30:	011e0268 	tsteq	lr, r8, ror #4
    2a34:	18b40000 	ldmne	r4!, {}	; <UNPREDICTABLE>
    2a38:	0000003c 	andeq	r0, r0, ip, lsr r0
    2a3c:	1e026906 	vmlane.f16	s12, s4, s12	; <UNPREDICTABLE>
    2a40:	bc000001 	stclt	0, cr0, [r0], {1}
    2a44:	00004b18 	andeq	r4, r0, r8, lsl fp
    2a48:	026a0600 	rsbeq	r0, sl, #0, 12
    2a4c:	0000011e 	andeq	r0, r0, lr, lsl r1
    2a50:	030b18c4 	movweq	r1, #47300	; 0xb8c4
    2a54:	6b060000 	blvs	182a5c <__bss_end__+0x178a34>
    2a58:	00005402 	andeq	r5, r0, r2, lsl #8
    2a5c:	0b00cc00 	bleq	35a64 <__bss_end__+0x2ba3c>
    2a60:	0000013a 	andeq	r0, r0, sl, lsr r1
    2a64:	000007bf 			; <UNDEFINED> instruction: 0x000007bf
    2a68:	0000f60c 	andeq	pc, r0, ip, lsl #12
    2a6c:	0b001900 	bleq	8e74 <va_printk+0x23c>
    2a70:	0000013a 	andeq	r0, r0, sl, lsr r1
    2a74:	000007cf 	andeq	r0, r0, pc, asr #15
    2a78:	0000f60c 	andeq	pc, r0, ip, lsl #12
    2a7c:	0b000700 	bleq	4684 <_start-0x397c>
    2a80:	0000013a 	andeq	r0, r0, sl, lsr r1
    2a84:	000007df 	ldrdeq	r0, [r0], -pc	; <UNPREDICTABLE>
    2a88:	0000f60c 	andeq	pc, r0, ip, lsl #12
    2a8c:	1b001700 	blne	8694 <ckalloc+0x9c>
    2a90:	027006f0 	rsbseq	r0, r0, #240, 12	; 0xf000000
    2a94:	00000803 	andeq	r0, r0, r3, lsl #16
    2a98:	0002b218 	andeq	fp, r2, r8, lsl r2
    2a9c:	02730600 	rsbseq	r0, r3, #0, 12
    2aa0:	00000803 	andeq	r0, r0, r3, lsl #16
    2aa4:	04b61800 	ldrteq	r1, [r6], #2048	; 0x800
    2aa8:	74060000 	strvc	r0, [r6], #-0
    2aac:	00081302 	andeq	r1, r8, r2, lsl #6
    2ab0:	0b007800 	bleq	20ab8 <__bss_end__+0x16a90>
    2ab4:	00000303 	andeq	r0, r0, r3, lsl #6
    2ab8:	00000813 	andeq	r0, r0, r3, lsl r8
    2abc:	0000f60c 	andeq	pc, r0, ip, lsl #12
    2ac0:	0b001d00 	bleq	9ec8 <buf.4229+0x2a0>
    2ac4:	0000005b 	andeq	r0, r0, fp, asr r0
    2ac8:	00000823 	andeq	r0, r0, r3, lsr #16
    2acc:	0000f60c 	andeq	pc, r0, ip, lsl #12
    2ad0:	1c001d00 	stcne	13, cr1, [r0], {-0}
    2ad4:	025506f0 	subseq	r0, r5, #240, 12	; 0xf000000
    2ad8:	00000845 	andeq	r0, r0, r5, asr #16
    2adc:	00039c1d 	andeq	r9, r3, sp, lsl ip
    2ae0:	026c0600 	rsbeq	r0, ip, #0, 12
    2ae4:	000006ae 	andeq	r0, r0, lr, lsr #13
    2ae8:	0004e11d 	andeq	lr, r4, sp, lsl r1
    2aec:	02750600 	rsbseq	r0, r5, #0, 12
    2af0:	000007df 	ldrdeq	r0, [r0], -pc	; <UNPREDICTABLE>
    2af4:	013a0b00 	teqeq	sl, r0, lsl #22
    2af8:	08550000 	ldmdaeq	r5, {}^	; <UNPREDICTABLE>
    2afc:	f60c0000 			; <UNDEFINED> instruction: 0xf60c0000
    2b00:	18000000 	stmdane	r0, {}	; <UNPREDICTABLE>
    2b04:	08601e00 	stmdaeq	r0!, {r9, sl, fp, ip}^
    2b08:	51160000 	tstpl	r6, r0
    2b0c:	00000004 	andeq	r0, r0, r4
    2b10:	0855040f 	ldmdaeq	r5, {r0, r1, r2, r3, sl}^
    2b14:	040f0000 	streq	r0, [pc], #-0	; 2b1c <_start-0x54e4>
    2b18:	000001a4 	andeq	r0, r0, r4, lsr #3
    2b1c:	0008771e 	andeq	r7, r8, lr, lsl r7
    2b20:	00541600 	subseq	r1, r4, r0, lsl #12
    2b24:	0f000000 	svceq	0x00000000
    2b28:	00087d04 	andeq	r7, r8, r4, lsl #26
    2b2c:	6c040f00 	stcvs	15, cr0, [r4], {-0}
    2b30:	0b000008 	bleq	2b58 <_start-0x54a8>
    2b34:	0000061c 	andeq	r0, r0, ip, lsl r6
    2b38:	00000893 	muleq	r0, r3, r8
    2b3c:	0000f60c 	andeq	pc, r0, ip, lsl #12
    2b40:	1f000200 	svcne	0x00000200
    2b44:	0000046f 	andeq	r0, r0, pc, ror #8
    2b48:	5102fd06 	tstpl	r2, r6, lsl #26	; <UNPREDICTABLE>
    2b4c:	1f000004 	svcne	0x00000004
    2b50:	00000468 	andeq	r0, r0, r8, ror #8
    2b54:	5702fe06 	strpl	pc, [r2, -r6, lsl #28]
    2b58:	15000004 	strne	r0, [r0, #-4]
    2b5c:	00000054 	andeq	r0, r0, r4, asr r0
    2b60:	000008ba 			; <UNDEFINED> instruction: 0x000008ba
    2b64:	00005416 	andeq	r5, r0, r6, lsl r4
    2b68:	d4200000 	strtle	r0, [r0], #-0
    2b6c:	08000001 	stmdaeq	r0, {r0}
    2b70:	0008c51d 	andeq	ip, r8, sp, lsl r5
    2b74:	ab040f00 	blge	10677c <__bss_end__+0xfc754>
    2b78:	15000008 	strne	r0, [r0, #-8]
    2b7c:	00000054 	andeq	r0, r0, r4, asr r0
    2b80:	000008da 	ldrdeq	r0, [r0], -sl
    2b84:	0005b216 	andeq	fp, r5, r6, lsl r2
    2b88:	69200000 	stmdbvs	r0!, {}	; <UNPREDICTABLE>
    2b8c:	08000007 	stmdaeq	r0, {r0, r1, r2}
    2b90:	0008e522 	andeq	lr, r8, r2, lsr #10
    2b94:	cb040f00 	blgt	10679c <__bss_end__+0xfc774>
    2b98:	21000008 	tstcs	r0, r8
    2b9c:	000006b5 			; <UNDEFINED> instruction: 0x000006b5
    2ba0:	00540601 	subseq	r0, r4, r1, lsl #12
    2ba4:	895c0000 	ldmdbhi	ip, {}^	; <UNPREDICTABLE>
    2ba8:	00580000 	subseq	r0, r8, r0
    2bac:	9c010000 	stcls	0, cr0, [r1], {-0}
    2bb0:	00000975 	andeq	r0, r0, r5, ror r9
    2bb4:	746d6622 	strbtvc	r6, [sp], #-1570	; 0xfffff9de
    2bb8:	b2060100 	andlt	r0, r6, #0, 2
    2bbc:	02000005 	andeq	r0, r0, #5
    2bc0:	24237091 	strtcs	r7, [r3], #-145	; 0xffffff6f
    2bc4:	00667562 	rsbeq	r7, r6, r2, ror #10
    2bc8:	09750801 	ldmdbeq	r5!, {r0, fp}^
    2bcc:	03050000 	movweq	r0, #20480	; 0x5000
    2bd0:	00009c28 	andeq	r9, r0, r8, lsr #24
    2bd4:	00010d25 	andeq	r0, r1, r5, lsr #26
    2bd8:	49090100 	stmdbmi	r9, {r8}
    2bdc:	02000000 	andeq	r0, r0, #0
    2be0:	73265c91 			; <UNDEFINED> instruction: 0x73265c91
    2be4:	0c01007a 	stceq	0, cr0, [r1], {122}	; 0x7a
    2be8:	00000054 	andeq	r0, r0, r4, asr r0
    2bec:	0000078d 	andeq	r0, r0, sp, lsl #15
    2bf0:	00898427 	addeq	r8, r9, r7, lsr #8
    2bf4:	00098600 	andeq	r8, r9, r0, lsl #12
    2bf8:	00096800 	andeq	r6, r9, r0, lsl #16
    2bfc:	50012800 	andpl	r2, r1, r0, lsl #16
    2c00:	28007402 	stmdacs	r0, {r1, sl, ip, sp, lr}
    2c04:	0a035101 	beq	d7010 <__bss_end__+0xccfe8>
    2c08:	01280400 			; <UNDEFINED> instruction: 0x01280400
    2c0c:	48910352 	ldmmi	r1, {r1, r4, r6, r8, r9}
    2c10:	53012806 	movwpl	r2, #6150	; 0x1806
    2c14:	004c9102 	subeq	r9, ip, r2, lsl #2
    2c18:	00899829 	addeq	r9, r9, r9, lsr #16
    2c1c:	50012800 	andpl	r2, r1, r0, lsl #16
    2c20:	00007402 	andeq	r7, r0, r2, lsl #8
    2c24:	013a0b00 	teqeq	sl, r0, lsl #22
    2c28:	09860000 	stmibeq	r6, {}	; <UNPREDICTABLE>
    2c2c:	f62a0000 			; <UNDEFINED> instruction: 0xf62a0000
    2c30:	ff000000 			; <UNDEFINED> instruction: 0xff000000
    2c34:	b22b0003 	eorlt	r0, fp, #3
    2c38:	b2000006 	andlt	r0, r0, #6
    2c3c:	09000006 	stmdbeq	r0, {r1, r2}
    2c40:	0e700002 	cdpeq	0, 7, cr0, cr0, cr2, {0}
    2c44:	00040000 	andeq	r0, r4, r0
    2c48:	00000749 	andeq	r0, r0, r9, asr #14
    2c4c:	03d60104 	bicseq	r0, r6, #4, 2
    2c50:	fa0c0000 	blx	302c58 <__bss_end__+0x2f8c30>
    2c54:	de000006 	cdple	0, 0, cr0, cr0, cr6, {0}
    2c58:	b4000006 	strlt	r0, [r0], #-6
    2c5c:	44000089 	strmi	r0, [r0], #-137	; 0xffffff77
    2c60:	72000005 	andvc	r0, r0, #5
    2c64:	02000004 	andeq	r0, r0, #4
    2c68:	6e690504 	cdpvs	5, 6, cr0, cr9, cr4, {0}
    2c6c:	04030074 	streq	r0, [r3], #-116	; 0xffffff8c
    2c70:	00006607 	andeq	r6, r0, r7, lsl #12
    2c74:	06010300 	streq	r0, [r1], -r0, lsl #6
    2c78:	000002fa 	strdeq	r0, [r0], -sl
    2c7c:	14050203 	strne	r0, [r5], #-515	; 0xfffffdfd
    2c80:	03000003 	movweq	r0, #3
    2c84:	00af0504 	adceq	r0, pc, r4, lsl #10
    2c88:	08030000 	stmdaeq	r3, {}	; <UNPREDICTABLE>
    2c8c:	0000aa05 	andeq	sl, r0, r5, lsl #20
    2c90:	08010300 	stmdaeq	r1, {r8, r9}
    2c94:	000002f8 	strdeq	r0, [r0], -r8
    2c98:	25070203 	strcs	r0, [r7, #-515]	; 0xfffffdfd
    2c9c:	03000002 	movweq	r0, #2
    2ca0:	00610704 	rsbeq	r0, r1, r4, lsl #14
    2ca4:	08030000 	stmdaeq	r3, {}	; <UNPREDICTABLE>
    2ca8:	00005c07 	andeq	r5, r0, r7, lsl #24
    2cac:	02e60400 	rsceq	r0, r6, #0, 8
    2cb0:	07020000 	streq	r0, [r2, -r0]
    2cb4:	00000025 	andeq	r0, r0, r5, lsr #32
    2cb8:	0002d504 	andeq	sp, r2, r4, lsl #10
    2cbc:	412c0300 			; <UNDEFINED> instruction: 0x412c0300
    2cc0:	04000000 	streq	r0, [r0], #-0
    2cc4:	000003bf 			; <UNDEFINED> instruction: 0x000003bf
    2cc8:	00417203 	subeq	r7, r1, r3, lsl #4
    2ccc:	76050000 	strvc	r0, [r5], -r0
    2cd0:	04000002 	streq	r0, [r0], #-2
    2cd4:	002c0165 	eoreq	r0, ip, r5, ror #2
    2cd8:	04060000 	streq	r0, [r6], #-0
    2cdc:	00b7a603 	adcseq	sl, r7, r3, lsl #12
    2ce0:	70070000 	andvc	r0, r7, r0
    2ce4:	03000002 	movweq	r0, #2
    2ce8:	00008ca8 	andeq	r8, r0, r8, lsr #25
    2cec:	01e50700 	mvneq	r0, r0, lsl #14
    2cf0:	a9030000 	stmdbge	r3, {}	; <UNPREDICTABLE>
    2cf4:	000000b7 	strheq	r0, [r0], -r7
    2cf8:	004f0800 	subeq	r0, pc, r0, lsl #16
    2cfc:	00c70000 	sbceq	r0, r7, r0
    2d00:	c7090000 	strgt	r0, [r9, -r0]
    2d04:	03000000 	movweq	r0, #0
    2d08:	07040300 	streq	r0, [r4, -r0, lsl #6]
    2d0c:	000002a9 	andeq	r0, r0, r9, lsr #5
    2d10:	a303080a 	movwge	r0, #14346	; 0x380a
    2d14:	000000ef 	andeq	r0, r0, pc, ror #1
    2d18:	0003a90b 	andeq	sl, r3, fp, lsl #18
    2d1c:	25a50300 	strcs	r0, [r5, #768]!	; 0x300
    2d20:	00000000 	andeq	r0, r0, r0
    2d24:	0003b10b 	andeq	fp, r3, fp, lsl #2
    2d28:	98aa0300 	stmials	sl!, {r8, r9}
    2d2c:	04000000 	streq	r0, [r0], #-0
    2d30:	033c0400 	teqeq	ip, #0, 8
    2d34:	ab030000 	blge	c2d3c <__bss_end__+0xb8d14>
    2d38:	000000ce 	andeq	r0, r0, lr, asr #1
    2d3c:	0001a204 	andeq	sl, r1, r4, lsl #4
    2d40:	6baf0300 	blvs	febc3948 <__bss_end__+0xfebb9920>
    2d44:	0c000000 	stceq	0, cr0, [r0], {-0}
    2d48:	0d040d04 	stceq	13, cr0, [r4, #-16]
    2d4c:	03000001 	movweq	r0, #1
    2d50:	03010801 	movweq	r0, #6145	; 0x1801
    2d54:	0d0e0000 	stceq	0, cr0, [lr, #-0]
    2d58:	04000001 	streq	r0, [r0], #-1
    2d5c:	00000453 	andeq	r0, r0, r3, asr r4
    2d60:	005d1605 	subseq	r1, sp, r5, lsl #12
    2d64:	b30f0000 	movwlt	r0, #61440	; 0xf000
    2d68:	18000001 	stmdane	r0, {r0}
    2d6c:	01772d05 	cmneq	r7, r5, lsl #26
    2d70:	5d0b0000 	stcpl	0, cr0, [fp, #-0]
    2d74:	05000003 	streq	r0, [r0, #-3]
    2d78:	0001772f 	andeq	r7, r1, pc, lsr #14
    2d7c:	5f100000 	svcpl	0x00100000
    2d80:	3005006b 	andcc	r0, r5, fp, rrx
    2d84:	00000025 	andeq	r0, r0, r5, lsr #32
    2d88:	03940b04 	orrseq	r0, r4, #4, 22	; 0x1000
    2d8c:	30050000 	andcc	r0, r5, r0
    2d90:	00000025 	andeq	r0, r0, r5, lsr #32
    2d94:	019c0b08 	orrseq	r0, ip, r8, lsl #22
    2d98:	30050000 	andcc	r0, r5, r0
    2d9c:	00000025 	andeq	r0, r0, r5, lsr #32
    2da0:	04a10b0c 	strteq	r0, [r1], #2828	; 0xb0c
    2da4:	30050000 	andcc	r0, r5, r0
    2da8:	00000025 	andeq	r0, r0, r5, lsr #32
    2dac:	785f1010 	ldmdavc	pc, {r4, ip}^	; <UNPREDICTABLE>
    2db0:	7d310500 	cfldr32vc	mvfx0, [r1, #-0]
    2db4:	14000001 	strne	r0, [r0], #-1
    2db8:	24040d00 	strcs	r0, [r4], #-3328	; 0xfffff300
    2dbc:	08000001 	stmdaeq	r0, {r0}
    2dc0:	00000119 	andeq	r0, r0, r9, lsl r1
    2dc4:	0000018d 	andeq	r0, r0, sp, lsl #3
    2dc8:	0000c709 	andeq	ip, r0, r9, lsl #14
    2dcc:	0f000000 	svceq	0x00000000
    2dd0:	000001e0 	andeq	r0, r0, r0, ror #3
    2dd4:	06350524 	ldrteq	r0, [r5], -r4, lsr #10
    2dd8:	0b000002 	bleq	2de8 <_start-0x5218>
    2ddc:	000000a1 	andeq	r0, r0, r1, lsr #1
    2de0:	00253705 	eoreq	r3, r5, r5, lsl #14
    2de4:	0b000000 	bleq	2dec <_start-0x5214>
    2de8:	000003c7 	andeq	r0, r0, r7, asr #7
    2dec:	00253805 	eoreq	r3, r5, r5, lsl #16
    2df0:	0b040000 	bleq	102df8 <__bss_end__+0xf8dd0>
    2df4:	000000c4 	andeq	r0, r0, r4, asr #1
    2df8:	00253905 	eoreq	r3, r5, r5, lsl #18
    2dfc:	0b080000 	bleq	202e04 <__bss_end__+0x1f8ddc>
    2e00:	00000522 	andeq	r0, r0, r2, lsr #10
    2e04:	00253a05 	eoreq	r3, r5, r5, lsl #20
    2e08:	0b0c0000 	bleq	302e10 <__bss_end__+0x2f8de8>
    2e0c:	000002b9 			; <UNDEFINED> instruction: 0x000002b9
    2e10:	00253b05 	eoreq	r3, r5, r5, lsl #22
    2e14:	0b100000 	bleq	402e1c <__bss_end__+0x3f8df4>
    2e18:	00000292 	muleq	r0, r2, r2
    2e1c:	00253c05 	eoreq	r3, r5, r5, lsl #24
    2e20:	0b140000 	bleq	502e28 <__bss_end__+0x4f8e00>
    2e24:	000004a6 	andeq	r0, r0, r6, lsr #9
    2e28:	00253d05 	eoreq	r3, r5, r5, lsl #26
    2e2c:	0b180000 	bleq	602e34 <__bss_end__+0x5f8e0c>
    2e30:	0000031e 	andeq	r0, r0, lr, lsl r3
    2e34:	00253e05 	eoreq	r3, r5, r5, lsl #28
    2e38:	0b1c0000 	bleq	702e40 <__bss_end__+0x6f8e18>
    2e3c:	000004e9 	andeq	r0, r0, r9, ror #9
    2e40:	00253f05 	eoreq	r3, r5, r5, lsl #30
    2e44:	00200000 	eoreq	r0, r0, r0
    2e48:	00010411 	andeq	r0, r1, r1, lsl r4
    2e4c:	05010800 	streq	r0, [r1, #-2048]	; 0xfffff800
    2e50:	00024648 	andeq	r4, r2, r8, asr #12
    2e54:	018f0b00 	orreq	r0, pc, r0, lsl #22
    2e58:	49050000 	stmdbmi	r5, {}	; <UNPREDICTABLE>
    2e5c:	00000246 	andeq	r0, r0, r6, asr #4
    2e60:	00000b00 	andeq	r0, r0, r0, lsl #22
    2e64:	4a050000 	bmi	142e6c <__bss_end__+0x138e44>
    2e68:	00000246 	andeq	r0, r0, r6, asr #4
    2e6c:	04451280 	strbeq	r1, [r5], #-640	; 0xfffffd80
    2e70:	4c050000 	stcmi	0, cr0, [r5], {-0}
    2e74:	00000119 	andeq	r0, r0, r9, lsl r1
    2e78:	29120100 	ldmdbcs	r2, {r8}
    2e7c:	05000001 	streq	r0, [r0, #-1]
    2e80:	0001194f 	andeq	r1, r1, pc, asr #18
    2e84:	00010400 	andeq	r0, r1, r0, lsl #8
    2e88:	00010508 	andeq	r0, r1, r8, lsl #10
    2e8c:	00025600 	andeq	r5, r2, r0, lsl #12
    2e90:	00c70900 	sbceq	r0, r7, r0, lsl #18
    2e94:	001f0000 	andseq	r0, pc, r0
    2e98:	0002c211 	andeq	ip, r2, r1, lsl r2
    2e9c:	05019000 	streq	r9, [r1, #-0]
    2ea0:	0002945b 	andeq	r9, r2, fp, asr r4
    2ea4:	035d0b00 	cmpeq	sp, #0, 22
    2ea8:	5c050000 	stcpl	0, cr0, [r5], {-0}
    2eac:	00000294 	muleq	r0, r4, r2
    2eb0:	03750b00 	cmneq	r5, #0, 22
    2eb4:	5d050000 	stcpl	0, cr0, [r5, #-0]
    2eb8:	00000025 	andeq	r0, r0, r5, lsr #32
    2ebc:	01970b04 	orrseq	r0, r7, r4, lsl #22
    2ec0:	5f050000 	svcpl	0x00050000
    2ec4:	0000029a 	muleq	r0, sl, r2
    2ec8:	01040b08 	tsteq	r4, r8, lsl #22
    2ecc:	60050000 	andvs	r0, r5, r0
    2ed0:	00000206 	andeq	r0, r0, r6, lsl #4
    2ed4:	040d0088 	streq	r0, [sp], #-136	; 0xffffff78
    2ed8:	00000256 	andeq	r0, r0, r6, asr r2
    2edc:	0002aa08 	andeq	sl, r2, r8, lsl #20
    2ee0:	0002aa00 	andeq	sl, r2, r0, lsl #20
    2ee4:	00c70900 	sbceq	r0, r7, r0, lsl #18
    2ee8:	001f0000 	andseq	r0, pc, r0
    2eec:	02b0040d 	adcseq	r0, r0, #218103808	; 0xd000000
    2ef0:	0f130000 	svceq	0x00130000
    2ef4:	00000328 	andeq	r0, r0, r8, lsr #6
    2ef8:	d6730508 	ldrbtle	r0, [r3], -r8, lsl #10
    2efc:	0b000002 	bleq	2f0c <_start-0x50f4>
    2f00:	000000be 	strheq	r0, [r0], -lr
    2f04:	02d67405 	sbcseq	r7, r6, #83886080	; 0x5000000
    2f08:	0b000000 	bleq	2f10 <_start-0x50f0>
    2f0c:	0000001b 	andeq	r0, r0, fp, lsl r0
    2f10:	00257505 	eoreq	r7, r5, r5, lsl #10
    2f14:	00040000 	andeq	r0, r4, r0
    2f18:	004f040d 	subeq	r0, pc, sp, lsl #8
    2f1c:	470f0000 	strmi	r0, [pc, -r0]
    2f20:	68000003 	stmdavs	r0, {r0, r1}
    2f24:	0406b305 	streq	fp, [r6], #-773	; 0xfffffcfb
    2f28:	5f100000 	svcpl	0x00100000
    2f2c:	b4050070 	strlt	r0, [r5], #-112	; 0xffffff90
    2f30:	000002d6 	ldrdeq	r0, [r0], -r6
    2f34:	725f1000 	subsvc	r1, pc, #0
    2f38:	25b50500 	ldrcs	r0, [r5, #1280]!	; 0x500
    2f3c:	04000000 	streq	r0, [r0], #-0
    2f40:	00775f10 	rsbseq	r5, r7, r0, lsl pc
    2f44:	0025b605 	eoreq	fp, r5, r5, lsl #12
    2f48:	0b080000 	bleq	202f50 <__bss_end__+0x1f8f28>
    2f4c:	00000122 	andeq	r0, r0, r2, lsr #2
    2f50:	003ab705 	eorseq	fp, sl, r5, lsl #14
    2f54:	0b0c0000 	bleq	302f5c <__bss_end__+0x2f8f34>
    2f58:	0000020b 	andeq	r0, r0, fp, lsl #4
    2f5c:	003ab805 	eorseq	fp, sl, r5, lsl #16
    2f60:	100e0000 	andne	r0, lr, r0
    2f64:	0066625f 	rsbeq	r6, r6, pc, asr r2
    2f68:	02b1b905 	adcseq	fp, r1, #81920	; 0x14000
    2f6c:	0b100000 	bleq	402f74 <__bss_end__+0x3f8f4c>
    2f70:	0000007b 	andeq	r0, r0, fp, ror r0
    2f74:	0025ba05 	eoreq	fp, r5, r5, lsl #20
    2f78:	0b180000 	bleq	602f80 <__bss_end__+0x5f8f58>
    2f7c:	00000112 	andeq	r0, r0, r2, lsl r1
    2f80:	0105c105 	tsteq	r5, r5, lsl #2
    2f84:	0b1c0000 	bleq	702f8c <__bss_end__+0x6f8f64>
    2f88:	00000a78 	andeq	r0, r0, r8, ror sl
    2f8c:	0561c305 	strbeq	ip, [r1, #-773]!	; 0xfffffcfb
    2f90:	0b200000 	bleq	802f98 <__bss_end__+0x7f8f70>
    2f94:	0000060c 	andeq	r0, r0, ip, lsl #12
    2f98:	058bc505 	streq	ip, [fp, #1285]	; 0x505
    2f9c:	0b240000 	bleq	902fa4 <__bss_end__+0x8f8f7c>
    2fa0:	000003b9 			; <UNDEFINED> instruction: 0x000003b9
    2fa4:	05afc805 	streq	ip, [pc, #2053]!	; 37b1 <_start-0x484f>
    2fa8:	0b280000 	bleq	a02fb0 <__bss_end__+0x9f8f88>
    2fac:	00000503 	andeq	r0, r0, r3, lsl #10
    2fb0:	05c9c905 	strbeq	ip, [r9, #2309]	; 0x905
    2fb4:	102c0000 	eorne	r0, ip, r0
    2fb8:	0062755f 	rsbeq	r7, r2, pc, asr r5
    2fbc:	02b1cc05 	adcseq	ip, r1, #1280	; 0x500
    2fc0:	10300000 	eorsne	r0, r0, r0
    2fc4:	0070755f 	rsbseq	r7, r0, pc, asr r5
    2fc8:	02d6cd05 	sbcseq	ip, r6, #320	; 0x140
    2fcc:	10380000 	eorsne	r0, r8, r0
    2fd0:	0072755f 	rsbseq	r7, r2, pc, asr r5
    2fd4:	0025ce05 	eoreq	ip, r5, r5, lsl #28
    2fd8:	0b3c0000 	bleq	f02fe0 <__bss_end__+0xef8fb8>
    2fdc:	000000b8 	strheq	r0, [r0], -r8
    2fe0:	05cfd105 	strbeq	sp, [pc, #261]	; 30ed <_start-0x4f13>
    2fe4:	0b400000 	bleq	1002fec <__bss_end__+0xff8fc4>
    2fe8:	000004db 	ldrdeq	r0, [r0], -fp
    2fec:	05dfd205 	ldrbeq	sp, [pc, #517]	; 31f9 <_start-0x4e07>
    2ff0:	10430000 	subne	r0, r3, r0
    2ff4:	00626c5f 	rsbeq	r6, r2, pc, asr ip
    2ff8:	02b1d505 	adcseq	sp, r1, #20971520	; 0x1400000
    2ffc:	0b440000 	bleq	1103004 <__bss_end__+0x10f8fdc>
    3000:	00000140 	andeq	r0, r0, r0, asr #2
    3004:	0025d805 	eoreq	sp, r5, r5, lsl #16
    3008:	0b4c0000 	bleq	1303010 <__bss_end__+0x12f8fe8>
    300c:	00000151 	andeq	r0, r0, r1, asr r1
    3010:	0076d905 	rsbseq	sp, r6, r5, lsl #18
    3014:	0b500000 	bleq	140301c <__bss_end__+0x13f8ff4>
    3018:	00000a19 	andeq	r0, r0, r9, lsl sl
    301c:	0424dc05 	strteq	sp, [r4], #-3077	; 0xfffff3fb
    3020:	0b540000 	bleq	1503028 <__bss_end__+0x14f9000>
    3024:	00000284 	andeq	r0, r0, r4, lsl #5
    3028:	00fae005 	rscseq	lr, sl, r5
    302c:	0b580000 	bleq	1603034 <__bss_end__+0x15f900c>
    3030:	0000034f 	andeq	r0, r0, pc, asr #6
    3034:	00efe205 	rsceq	lr, pc, r5, lsl #4
    3038:	0b5c0000 	bleq	1703040 <__bss_end__+0x16f9018>
    303c:	0000028a 	andeq	r0, r0, sl, lsl #5
    3040:	0025e305 	eoreq	lr, r5, r5, lsl #6
    3044:	00640000 	rsbeq	r0, r4, r0
    3048:	00002514 	andeq	r2, r0, r4, lsl r5
    304c:	00042400 	andeq	r2, r4, r0, lsl #8
    3050:	04241500 	strteq	r1, [r4], #-1280	; 0xfffffb00
    3054:	05150000 	ldreq	r0, [r5, #-0]
    3058:	15000001 	strne	r0, [r0, #-1]
    305c:	00000107 	andeq	r0, r0, r7, lsl #2
    3060:	00002515 	andeq	r2, r0, r5, lsl r5
    3064:	040d0000 	streq	r0, [sp], #-0
    3068:	0000042f 	andeq	r0, r0, pc, lsr #8
    306c:	0004240e 	andeq	r2, r4, lr, lsl #8
    3070:	039c1600 	orrseq	r1, ip, #0, 12
    3074:	04280000 	strteq	r0, [r8], #-0
    3078:	61023805 	tstvs	r2, r5, lsl #16
    307c:	17000005 	strne	r0, [r0, -r5]
    3080:	0000030d 	andeq	r0, r0, sp, lsl #6
    3084:	25023a05 	strcs	r3, [r2, #-2565]	; 0xfffff5fb
    3088:	00000000 	andeq	r0, r0, r0
    308c:	00013117 	andeq	r3, r1, r7, lsl r1
    3090:	023f0500 	eorseq	r0, pc, #0, 10
    3094:	00000636 	andeq	r0, r0, r6, lsr r6
    3098:	01fb1704 	mvnseq	r1, r4, lsl #14
    309c:	3f050000 	svccc	0x00050000
    30a0:	00063602 	andeq	r3, r6, r2, lsl #12
    30a4:	ab170800 	blge	5c50ac <__bss_end__+0x5bb084>
    30a8:	05000001 	streq	r0, [r0, #-1]
    30ac:	0636023f 			; <UNDEFINED> instruction: 0x0636023f
    30b0:	170c0000 	strne	r0, [ip, -r0]
    30b4:	00000370 	andeq	r0, r0, r0, ror r3
    30b8:	25024105 	strcs	r4, [r2, #-261]	; 0xfffffefb
    30bc:	10000000 	andne	r0, r0, r0
    30c0:	00002917 	andeq	r2, r0, r7, lsl r9
    30c4:	02420500 	subeq	r0, r2, #0, 10
    30c8:	00000818 	andeq	r0, r0, r8, lsl r8
    30cc:	047b1714 	ldrbteq	r1, [fp], #-1812	; 0xfffff8ec
    30d0:	44050000 	strmi	r0, [r5], #-0
    30d4:	00002502 	andeq	r2, r0, r2, lsl #10
    30d8:	7a173000 	bvc	5cf0e0 <__bss_end__+0x5c50b8>
    30dc:	05000003 	streq	r0, [r0, #-3]
    30e0:	05850245 	streq	r0, [r5, #581]	; 0x245
    30e4:	17340000 	ldrne	r0, [r4, -r0]!
    30e8:	000002ca 	andeq	r0, r0, sl, asr #5
    30ec:	25024705 	strcs	r4, [r2, #-1797]	; 0xfffff8fb
    30f0:	38000000 	stmdacc	r0, {}	; <UNPREDICTABLE>
    30f4:	00038a17 	andeq	r8, r3, r7, lsl sl
    30f8:	02490500 	subeq	r0, r9, #0, 10
    30fc:	00000833 	andeq	r0, r0, r3, lsr r8
    3100:	0268173c 	rsbeq	r1, r8, #60, 14	; 0xf00000
    3104:	4c050000 	stcmi	0, cr0, [r5], {-0}
    3108:	00017702 	andeq	r7, r1, r2, lsl #14
    310c:	ca174000 	bgt	5d3114 <__bss_end__+0x5c90ec>
    3110:	05000001 	streq	r0, [r0, #-1]
    3114:	0025024d 	eoreq	r0, r5, sp, asr #4
    3118:	17440000 	strbne	r0, [r4, -r0]
    311c:	0000051d 	andeq	r0, r0, sp, lsl r5
    3120:	77024e05 	strvc	r4, [r2, -r5, lsl #28]
    3124:	48000001 	stmdami	r0, {r0}
    3128:	0002dc17 	andeq	sp, r2, r7, lsl ip
    312c:	024f0500 	subeq	r0, pc, #0, 10
    3130:	00000839 	andeq	r0, r0, r9, lsr r8
    3134:	0203174c 	andeq	r1, r3, #76, 14	; 0x1300000
    3138:	52050000 	andpl	r0, r5, #0
    313c:	00002502 	andeq	r2, r0, r2, lsl #10
    3140:	49175000 	ldmdbmi	r7, {ip, lr}
    3144:	05000001 	streq	r0, [r0, #-1]
    3148:	01070253 	tsteq	r7, r3, asr r2
    314c:	17540000 	ldrbne	r0, [r4, -r0]
    3150:	00000306 	andeq	r0, r0, r6, lsl #6
    3154:	f6027605 			; <UNDEFINED> instruction: 0xf6027605
    3158:	58000007 	stmdapl	r0, {r0, r1, r2}
    315c:	0002c218 	andeq	ip, r2, r8, lsl r2
    3160:	027a0500 	rsbseq	r0, sl, #0, 10
    3164:	00000294 	muleq	r0, r4, r2
    3168:	46180148 	ldrmi	r0, [r8], -r8, asr #2
    316c:	05000002 	streq	r0, [r0, #-2]
    3170:	0256027b 	subseq	r0, r6, #-1342177273	; 0xb0000007
    3174:	014c0000 	mrseq	r0, (UNDEF: 76)
    3178:	0004c918 	andeq	ip, r4, r8, lsl r9
    317c:	027f0500 	rsbseq	r0, pc, #0, 10
    3180:	0000084a 	andeq	r0, r0, sl, asr #16
    3184:	1a1802dc 	bne	603cfc <__bss_end__+0x5f9cd4>
    3188:	05000001 	streq	r0, [r0, #-1]
    318c:	05fb0284 	ldrbeq	r0, [fp, #644]!	; 0x284
    3190:	02e00000 	rsceq	r0, r0, #0
    3194:	0000ff18 	andeq	pc, r0, r8, lsl pc	; <UNPREDICTABLE>
    3198:	02850500 	addeq	r0, r5, #0, 10
    319c:	00000856 	andeq	r0, r0, r6, asr r8
    31a0:	0d0002ec 	sfmeq	f0, 4, [r0, #-944]	; 0xfffffc50
    31a4:	00040604 	andeq	r0, r4, r4, lsl #12
    31a8:	00251400 	eoreq	r1, r5, r0, lsl #8
    31ac:	05850000 	streq	r0, [r5]
    31b0:	24150000 	ldrcs	r0, [r5], #-0
    31b4:	15000004 	strne	r0, [r0, #-4]
    31b8:	00000105 	andeq	r0, r0, r5, lsl #2
    31bc:	00058515 	andeq	r8, r5, r5, lsl r5
    31c0:	00251500 	eoreq	r1, r5, r0, lsl #10
    31c4:	0d000000 	stceq	0, cr0, [r0, #-0]
    31c8:	00011404 	andeq	r1, r1, r4, lsl #8
    31cc:	67040d00 	strvs	r0, [r4, -r0, lsl #26]
    31d0:	14000005 	strne	r0, [r0], #-5
    31d4:	00000081 	andeq	r0, r0, r1, lsl #1
    31d8:	000005af 	andeq	r0, r0, pc, lsr #11
    31dc:	00042415 	andeq	r2, r4, r5, lsl r4
    31e0:	01051500 	tsteq	r5, r0, lsl #10
    31e4:	81150000 	tsthi	r5, r0
    31e8:	15000000 	strne	r0, [r0, #-0]
    31ec:	00000025 	andeq	r0, r0, r5, lsr #32
    31f0:	91040d00 	tstls	r4, r0, lsl #26
    31f4:	14000005 	strne	r0, [r0], #-5
    31f8:	00000025 	andeq	r0, r0, r5, lsr #32
    31fc:	000005c9 	andeq	r0, r0, r9, asr #11
    3200:	00042415 	andeq	r2, r4, r5, lsl r4
    3204:	01051500 	tsteq	r5, r0, lsl #10
    3208:	0d000000 	stceq	0, cr0, [r0, #-0]
    320c:	0005b504 	andeq	fp, r5, r4, lsl #10
    3210:	004f0800 	subeq	r0, pc, r0, lsl #16
    3214:	05df0000 	ldrbeq	r0, [pc]	; 321c <_start-0x4de4>
    3218:	c7090000 	strgt	r0, [r9, -r0]
    321c:	02000000 	andeq	r0, r0, #0
    3220:	004f0800 	subeq	r0, pc, r0, lsl #16
    3224:	05ef0000 	strbeq	r0, [pc, #0]!	; 322c <_start-0x4dd4>
    3228:	c7090000 	strgt	r0, [r9, -r0]
    322c:	00000000 	andeq	r0, r0, r0
    3230:	03350500 	teqeq	r5, #0, 10
    3234:	1d050000 	stcne	0, cr0, [r5, #-0]
    3238:	0002dc01 	andeq	sp, r2, r1, lsl #24
    323c:	04b01900 	ldrteq	r1, [r0], #2304	; 0x900
    3240:	050c0000 	streq	r0, [ip, #-0]
    3244:	06300121 	ldrteq	r0, [r0], -r1, lsr #2
    3248:	5d170000 	ldcpl	0, cr0, [r7, #-0]
    324c:	05000003 	streq	r0, [r0, #-3]
    3250:	06300123 	ldrteq	r0, [r0], -r3, lsr #2
    3254:	17000000 	strne	r0, [r0, -r0]
    3258:	0000021e 	andeq	r0, r0, lr, lsl r2
    325c:	25012405 	strcs	r2, [r1, #-1029]	; 0xfffffbfb
    3260:	04000000 	streq	r0, [r0], #-0
    3264:	00032f17 	andeq	r2, r3, r7, lsl pc
    3268:	01250500 			; <UNDEFINED> instruction: 0x01250500
    326c:	00000636 	andeq	r0, r0, r6, lsr r6
    3270:	040d0008 	streq	r0, [sp], #-8
    3274:	000005fb 	strdeq	r0, [r0], -fp
    3278:	05ef040d 	strbeq	r0, [pc, #1037]!	; 368d <_start-0x4973>
    327c:	21190000 	tstcs	r9, r0
    3280:	0e000000 	cdpeq	0, 0, cr0, cr0, cr0, {0}
    3284:	71013d05 	tstvc	r1, r5, lsl #26
    3288:	17000006 	strne	r0, [r0, -r6]
    328c:	000003a3 	andeq	r0, r0, r3, lsr #7
    3290:	71013e05 	tstvc	r1, r5, lsl #28
    3294:	00000006 	andeq	r0, r0, r6
    3298:	0003d017 	andeq	sp, r3, r7, lsl r0
    329c:	013f0500 	teqeq	pc, r0, lsl #10
    32a0:	00000671 	andeq	r0, r0, r1, ror r6
    32a4:	044e1706 	strbeq	r1, [lr], #-1798	; 0xfffff8fa
    32a8:	40050000 	andmi	r0, r5, r0
    32ac:	00005601 	andeq	r5, r0, r1, lsl #12
    32b0:	08000c00 	stmdaeq	r0, {sl, fp}
    32b4:	00000056 	andeq	r0, r0, r6, asr r0
    32b8:	00000681 	andeq	r0, r0, r1, lsl #13
    32bc:	0000c709 	andeq	ip, r0, r9, lsl #14
    32c0:	1a000200 	bne	3ac8 <_start-0x4538>
    32c4:	025705d0 	subseq	r0, r7, #208, 10	; 0x34000000
    32c8:	00000782 	andeq	r0, r0, r2, lsl #15
    32cc:	00049417 	andeq	r9, r4, r7, lsl r4
    32d0:	02590500 	subseq	r0, r9, #0, 10
    32d4:	0000002c 	andeq	r0, r0, ip, lsr #32
    32d8:	04381700 	ldrteq	r1, [r8], #-1792	; 0xfffff900
    32dc:	5a050000 	bpl	1432e4 <__bss_end__+0x1392bc>
    32e0:	00010702 	andeq	r0, r1, r2, lsl #14
    32e4:	5b170400 	blpl	5c42ec <__bss_end__+0x5ba2c4>
    32e8:	05000002 	streq	r0, [r0, #-2]
    32ec:	0782025b 			; <UNDEFINED> instruction: 0x0782025b
    32f0:	17080000 	strne	r0, [r8, -r0]
    32f4:	000004f4 	strdeq	r0, [r0], -r4
    32f8:	8d025c05 	stchi	12, cr5, [r2, #-20]	; 0xffffffec
    32fc:	24000001 	strcs	r0, [r0], #-1
    3300:	0001bb17 	andeq	fp, r1, r7, lsl fp
    3304:	025d0500 	subseq	r0, sp, #0, 10
    3308:	00000025 	andeq	r0, r0, r5, lsr #32
    330c:	03581748 	cmpeq	r8, #72, 14	; 0x1200000
    3310:	5e050000 	cdppl	0, 0, cr0, cr5, cr0, {0}
    3314:	00006402 	andeq	r6, r0, r2, lsl #8
    3318:	0a175000 	beq	5d7320 <__bss_end__+0x5cd2f8>
    331c:	05000005 	streq	r0, [r0, #-5]
    3320:	063c025f 			; <UNDEFINED> instruction: 0x063c025f
    3324:	17580000 	ldrbne	r0, [r8, -r0]
    3328:	00000363 	andeq	r0, r0, r3, ror #6
    332c:	ef026005 	svc	0x00026005
    3330:	68000000 	stmdavs	r0, {}	; <UNPREDICTABLE>
    3334:	00050f17 	andeq	r0, r5, r7, lsl pc
    3338:	02610500 	rsbeq	r0, r1, #0, 10
    333c:	000000ef 	andeq	r0, r0, pc, ror #1
    3340:	00931770 	addseq	r1, r3, r0, ror r7
    3344:	62050000 	andvs	r0, r5, #0
    3348:	0000ef02 	andeq	lr, r0, r2, lsl #30
    334c:	bf177800 	svclt	0x00177800
    3350:	05000004 	streq	r0, [r0, #-4]
    3354:	07920263 	ldreq	r0, [r2, r3, ror #4]
    3358:	17800000 	strne	r0, [r0, r0]
    335c:	0000024f 	andeq	r0, r0, pc, asr #4
    3360:	a2026405 	andge	r6, r2, #83886080	; 0x5000000
    3364:	88000007 	stmdahi	r0, {r0, r1, r2}
    3368:	00045b17 	andeq	r5, r4, r7, lsl fp
    336c:	02650500 	rsbeq	r0, r5, #0, 10
    3370:	00000025 	andeq	r0, r0, r5, lsr #32
    3374:	018117a0 	orreq	r1, r1, r0, lsr #15
    3378:	66050000 	strvs	r0, [r5], -r0
    337c:	0000ef02 	andeq	lr, r0, r2, lsl #30
    3380:	8417a400 	ldrhi	sl, [r7], #-1024	; 0xfffffc00
    3384:	05000000 	streq	r0, [r0, #-0]
    3388:	00ef0267 	rsceq	r0, pc, r7, ror #4
    338c:	17ac0000 	strne	r0, [ip, r0]!
    3390:	00000170 	andeq	r0, r0, r0, ror r1
    3394:	ef026805 	svc	0x00026805
    3398:	b4000000 	strlt	r0, [r0], #-0
    339c:	00003c17 	andeq	r3, r0, r7, lsl ip
    33a0:	02690500 	rsbeq	r0, r9, #0, 10
    33a4:	000000ef 	andeq	r0, r0, pc, ror #1
    33a8:	004b17bc 	strheq	r1, [fp], #-124	; 0xffffff84
    33ac:	6a050000 	bvs	1433b4 <__bss_end__+0x13938c>
    33b0:	0000ef02 	andeq	lr, r0, r2, lsl #30
    33b4:	0b17c400 	bleq	5f43bc <__bss_end__+0x5ea394>
    33b8:	05000003 	streq	r0, [r0, #-3]
    33bc:	0025026b 	eoreq	r0, r5, fp, ror #4
    33c0:	00cc0000 	sbceq	r0, ip, r0
    33c4:	00010d08 	andeq	r0, r1, r8, lsl #26
    33c8:	00079200 	andeq	r9, r7, r0, lsl #4
    33cc:	00c70900 	sbceq	r0, r7, r0, lsl #18
    33d0:	00190000 	andseq	r0, r9, r0
    33d4:	00010d08 	andeq	r0, r1, r8, lsl #26
    33d8:	0007a200 	andeq	sl, r7, r0, lsl #4
    33dc:	00c70900 	sbceq	r0, r7, r0, lsl #18
    33e0:	00070000 	andeq	r0, r7, r0
    33e4:	00010d08 	andeq	r0, r1, r8, lsl #26
    33e8:	0007b200 	andeq	fp, r7, r0, lsl #4
    33ec:	00c70900 	sbceq	r0, r7, r0, lsl #18
    33f0:	00170000 	andseq	r0, r7, r0
    33f4:	7005f01a 	andvc	pc, r5, sl, lsl r0	; <UNPREDICTABLE>
    33f8:	0007d602 	andeq	sp, r7, r2, lsl #12
    33fc:	02b21700 	adcseq	r1, r2, #0, 14
    3400:	73050000 	movwvc	r0, #20480	; 0x5000
    3404:	0007d602 	andeq	sp, r7, r2, lsl #12
    3408:	b6170000 	ldrlt	r0, [r7], -r0
    340c:	05000004 	streq	r0, [r0, #-4]
    3410:	07e60274 			; <UNDEFINED> instruction: 0x07e60274
    3414:	00780000 	rsbseq	r0, r8, r0
    3418:	0002d608 	andeq	sp, r2, r8, lsl #12
    341c:	0007e600 	andeq	lr, r7, r0, lsl #12
    3420:	00c70900 	sbceq	r0, r7, r0, lsl #18
    3424:	001d0000 	andseq	r0, sp, r0
    3428:	00002c08 	andeq	r2, r0, r8, lsl #24
    342c:	0007f600 	andeq	pc, r7, r0, lsl #12
    3430:	00c70900 	sbceq	r0, r7, r0, lsl #18
    3434:	001d0000 	andseq	r0, sp, r0
    3438:	5505f01b 	strpl	pc, [r5, #-27]	; 0xffffffe5
    343c:	00081802 	andeq	r1, r8, r2, lsl #16
    3440:	039c1c00 	orrseq	r1, ip, #0, 24
    3444:	6c050000 	stcvs	0, cr0, [r5], {-0}
    3448:	00068102 	andeq	r8, r6, r2, lsl #2
    344c:	04e11c00 	strbteq	r1, [r1], #3072	; 0xc00
    3450:	75050000 	strvc	r0, [r5, #-0]
    3454:	0007b202 	andeq	fp, r7, r2, lsl #4
    3458:	0d080000 	stceq	0, cr0, [r8, #-0]
    345c:	28000001 	stmdacs	r0, {r0}
    3460:	09000008 	stmdbeq	r0, {r3}
    3464:	000000c7 	andeq	r0, r0, r7, asr #1
    3468:	331d0018 	tstcc	sp, #24
    346c:	15000008 	strne	r0, [r0, #-8]
    3470:	00000424 	andeq	r0, r0, r4, lsr #8
    3474:	28040d00 	stmdacs	r4, {r8, sl, fp}
    3478:	0d000008 	stceq	0, cr0, [r0, #-32]	; 0xffffffe0
    347c:	00017704 	andeq	r7, r1, r4, lsl #14
    3480:	084a1d00 	stmdaeq	sl, {r8, sl, fp, ip}^
    3484:	25150000 	ldrcs	r0, [r5, #-0]
    3488:	00000000 	andeq	r0, r0, r0
    348c:	0850040d 	ldmdaeq	r0, {r0, r2, r3, sl}^
    3490:	040d0000 	streq	r0, [sp], #-0
    3494:	0000083f 	andeq	r0, r0, pc, lsr r8
    3498:	0005ef08 	andeq	lr, r5, r8, lsl #30
    349c:	00086600 	andeq	r6, r8, r0, lsl #12
    34a0:	00c70900 	sbceq	r0, r7, r0, lsl #18
    34a4:	00020000 	andeq	r0, r2, r0
    34a8:	00046f1e 	andeq	r6, r4, lr, lsl pc
    34ac:	02fd0500 	rscseq	r0, sp, #0, 10
    34b0:	00000424 	andeq	r0, r0, r4, lsr #8
    34b4:	0004681e 	andeq	r6, r4, lr, lsl r8
    34b8:	02fe0500 	rscseq	r0, lr, #0, 10
    34bc:	0000042a 	andeq	r0, r0, sl, lsr #8
    34c0:	00002514 	andeq	r2, r0, r4, lsl r5
    34c4:	00088d00 	andeq	r8, r8, r0, lsl #26
    34c8:	00251500 	eoreq	r1, r5, r0, lsl #10
    34cc:	1f000000 	svcne	0x00000000
    34d0:	000001d4 	ldrdeq	r0, [r0], -r4
    34d4:	08981d06 	ldmeq	r8, {r1, r2, r8, sl, fp, ip}
    34d8:	040d0000 	streq	r0, [sp], #-0
    34dc:	0000087e 	andeq	r0, r0, lr, ror r8
    34e0:	00002514 	andeq	r2, r0, r4, lsl r5
    34e4:	0008ad00 	andeq	sl, r8, r0, lsl #26
    34e8:	05851500 	streq	r1, [r5, #1280]	; 0x500
    34ec:	1f000000 	svcne	0x00000000
    34f0:	00000769 	andeq	r0, r0, r9, ror #14
    34f4:	08b82206 	ldmeq	r8!, {r1, r2, r9, sp}
    34f8:	040d0000 	streq	r0, [sp], #-0
    34fc:	0000089e 	muleq	r0, lr, r8
    3500:	0006bc04 	andeq	fp, r6, r4, lsl #24
    3504:	c9280700 	stmdbgt	r8!, {r8, r9, sl}
    3508:	0f000008 	svceq	0x00000008
    350c:	000006a8 	andeq	r0, r0, r8, lsr #13
    3510:	e0000804 	and	r0, r0, r4, lsl #16
    3514:	20000008 	andcs	r0, r0, r8
    3518:	000006cb 	andeq	r0, r0, fp, asr #13
    351c:	00000105 	andeq	r0, r0, r5, lsl #2
    3520:	aa040000 	bge	103528 <__bss_end__+0xf9500>
    3524:	07000006 	streq	r0, [r0, -r6]
    3528:	0008be63 	andeq	fp, r8, r3, ror #28
    352c:	06b22100 	ldrteq	r2, [r2], r0, lsl #2
    3530:	7f010000 	svcvc	0x00010000
    3534:	00000025 	andeq	r0, r0, r5, lsr #32
    3538:	00008c38 	andeq	r8, r0, r8, lsr ip
    353c:	000002c0 	andeq	r0, r0, r0, asr #5
    3540:	0b519c01 	bleq	146a54c <__bss_end__+0x1460524>
    3544:	62220000 	eorvs	r0, r2, #0
    3548:	01006675 	tsteq	r0, r5, ror r6
    354c:	0001077f 	andeq	r0, r1, pc, ror r7
    3550:	0007b600 	andeq	fp, r7, r0, lsl #12
    3554:	006e2200 	rsbeq	r2, lr, r0, lsl #4
    3558:	00257f01 	eoreq	r7, r5, r1, lsl #30
    355c:	07e20000 	strbeq	r0, [r2, r0]!
    3560:	66220000 	strtvs	r0, [r2], -r0
    3564:	0100746d 	tsteq	r0, sp, ror #8
    3568:	0005857f 	andeq	r8, r5, pc, ror r5
    356c:	00081000 	andeq	r1, r8, r0
    3570:	010d2300 	mrseq	r2, SP_mon
    3574:	7f010000 	svcvc	0x00010000
    3578:	000008e0 	andeq	r0, r0, r0, ror #17
    357c:	7edc9103 	atnvce	f1, f3
    3580:	01007024 	tsteq	r0, r4, lsr #32
    3584:	00010780 	andeq	r0, r1, r0, lsl #15
    3588:	00087000 	andeq	r7, r8, r0
    358c:	00652400 	rsbeq	r2, r5, r0, lsl #8
    3590:	01078001 	tsteq	r7, r1
    3594:	08ee0000 	stmiaeq	lr!, {}^	; <UNPREDICTABLE>
    3598:	11250000 			; <UNDEFINED> instruction: 0x11250000
    359c:	61000002 	tstvs	r0, r2
    35a0:	0500000b 	streq	r0, [r0, #-11]
    35a4:	009a0403 	addseq	r0, sl, r3, lsl #8
    35a8:	00802600 	addeq	r2, r0, r0, lsl #12
    35ac:	73240000 			; <UNDEFINED> instruction: 0x73240000
    35b0:	078d0100 	streq	r0, [sp, r0, lsl #2]
    35b4:	15000001 	strne	r0, [r0, #-1]
    35b8:	27000009 	strcs	r0, [r0, -r9]
    35bc:	006d756e 	rsbeq	r7, sp, lr, ror #10
    35c0:	0b668d01 	bleq	19a69cc <__bss_end__+0x199c9a4>
    35c4:	91030000 	mrsls	r0, (UNDEF: 3)
    35c8:	2b287ee0 	blcs	a23150 <__bss_end__+0xa19128>
    35cc:	01000007 	tsteq	r0, r7
    35d0:	00002c8e 	andeq	r2, r0, lr, lsl #25
    35d4:	00095f00 	andeq	r5, r9, r0, lsl #30
    35d8:	8cc82900 			; <UNDEFINED> instruction: 0x8cc82900
    35dc:	0d920000 	ldceq	0, cr0, [r2]
    35e0:	09ab0000 	stmibeq	fp!, {}	; <UNPREDICTABLE>
    35e4:	012a0000 			; <UNDEFINED> instruction: 0x012a0000
    35e8:	00770250 	rsbseq	r0, r7, r0, asr r2
    35ec:	8d482b00 	vstrhi	d18, [r8, #-0]
    35f0:	0e520000 	cdpeq	0, 5, cr0, cr2, cr0, {0}
    35f4:	5c290000 	stcpl	0, cr0, [r9], #-0
    35f8:	5d00008d 	stcpl	0, cr0, [r0, #-564]	; 0xfffffdcc
    35fc:	e300000e 	movw	r0, #14
    3600:	2a000009 	bcs	362c <_start-0x49d4>
    3604:	03055001 	movweq	r5, #20481	; 0x5001
    3608:	00009a74 	andeq	r9, r0, r4, ror sl
    360c:	0551012a 	ldrbeq	r0, [r1, #-298]	; 0xfffffed6
    3610:	009a1003 	addseq	r1, sl, r3
    3614:	52012a00 	andpl	r2, r1, #0, 20
    3618:	9a040305 	bls	104234 <__bss_end__+0xfa20c>
    361c:	012a0000 			; <UNDEFINED> instruction: 0x012a0000
    3620:	94080253 	strls	r0, [r8], #-595	; 0xfffffdad
    3624:	8d602b00 	vstmdbhi	r0!, {d18-d17}
    3628:	0e680000 	cdpeq	0, 6, cr0, cr8, cr0, {0}
    362c:	642b0000 	strtvs	r0, [fp], #-0
    3630:	5200008d 	andpl	r0, r0, #141	; 0x8d
    3634:	2900000e 	stmdbcs	r0, {r1, r2, r3}
    3638:	00008d78 	andeq	r8, r0, r8, ror sp
    363c:	00000e5d 	andeq	r0, r0, sp, asr lr
    3640:	00000a24 	andeq	r0, r0, r4, lsr #20
    3644:	0550012a 	ldrbeq	r0, [r0, #-298]	; 0xfffffed6
    3648:	009a9003 	addseq	r9, sl, r3
    364c:	51012a00 	tstpl	r1, r0, lsl #20
    3650:	9a100305 	bls	40426c <__bss_end__+0x3fa244>
    3654:	012a0000 			; <UNDEFINED> instruction: 0x012a0000
    3658:	04030552 	streq	r0, [r3], #-1362	; 0xfffffaae
    365c:	2a00009a 	bcs	38cc <_start-0x4734>
    3660:	08025301 	stmdaeq	r2, {r0, r8, r9, ip, lr}
    3664:	7c2b009a 	stcvc	0, cr0, [fp], #-616	; 0xfffffd98
    3668:	6800008d 	stmdavs	r0, {r0, r2, r3, r7}
    366c:	2900000e 	stmdbcs	r0, {r1, r2, r3}
    3670:	00008da8 	andeq	r8, r0, r8, lsr #27
    3674:	00000b76 	andeq	r0, r0, r6, ror fp
    3678:	00000a5a 	andeq	r0, r0, sl, asr sl
    367c:	0150012a 	cmpeq	r0, sl, lsr #2
    3680:	51012a3a 	tstpl	r1, sl, lsr sl
    3684:	7ed89103 	atnvce	f1, f3
    3688:	0252012a 	subseq	r0, r2, #-2147483638	; 0x8000000a
    368c:	022a8008 	eoreq	r8, sl, #8
    3690:	7402007d 	strvc	r0, [r2], #-125	; 0xffffff83
    3694:	7d022a00 	vstrvc	s4, [r2, #-0]
    3698:	00310104 	eorseq	r0, r1, r4, lsl #2
    369c:	008ddc29 	addeq	sp, sp, r9, lsr #24
    36a0:	000b7600 	andeq	r7, fp, r0, lsl #12
    36a4:	000a8700 	andeq	r8, sl, r0, lsl #14
    36a8:	50012a00 	andpl	r2, r1, r0, lsl #20
    36ac:	012a3a01 			; <UNDEFINED> instruction: 0x012a3a01
    36b0:	d8910351 	ldmle	r1, {r0, r4, r6, r8, r9}
    36b4:	52012a7e 	andpl	r2, r1, #516096	; 0x7e000
    36b8:	2a800802 	bcs	fe0056c8 <__bss_end__+0xfdffb6a0>
    36bc:	02007d02 	andeq	r7, r0, #2, 26	; 0x80
    36c0:	022a0074 	eoreq	r0, sl, #116	; 0x74
    36c4:	3001047d 	andcc	r0, r1, sp, ror r4
    36c8:	8e0c2900 	vmlahi.f16	s4, s24, s0	; <UNPREDICTABLE>
    36cc:	0b760000 	bleq	1d836d4 <__bss_end__+0x1d796ac>
    36d0:	0ab40000 	beq	fed036d8 <__bss_end__+0xfecf96b0>
    36d4:	012a0000 			; <UNDEFINED> instruction: 0x012a0000
    36d8:	2a400150 	bcs	1003c20 <__bss_end__+0xff9bf8>
    36dc:	91035101 	tstls	r3, r1, lsl #2
    36e0:	012a7ed8 	ldrdeq	r7, [sl, -r8]!
    36e4:	80080252 	andhi	r0, r8, r2, asr r2
    36e8:	007d022a 	rsbseq	r0, sp, sl, lsr #4
    36ec:	2a007402 	bcs	206fc <__bss_end__+0x166d4>
    36f0:	01047d02 	tsteq	r4, r2, lsl #26
    36f4:	3c290030 	stccc	0, cr0, [r9], #-192	; 0xffffff40
    36f8:	7600008e 	strvc	r0, [r0], -lr, lsl #1
    36fc:	e100000b 	tst	r0, fp
    3700:	2a00000a 	bcs	3730 <_start-0x48d0>
    3704:	32015001 	andcc	r5, r1, #1
    3708:	0351012a 	cmpeq	r1, #-2147483638	; 0x8000000a
    370c:	2a7ed891 	bcs	1fb9958 <__bss_end__+0x1faf930>
    3710:	08025201 	stmdaeq	r2, {r0, r9, ip, lr}
    3714:	7d022a80 	vstrvc	s4, [r2, #-512]	; 0xfffffe00
    3718:	00740200 	rsbseq	r0, r4, r0, lsl #4
    371c:	047d022a 	ldrbteq	r0, [sp], #-554	; 0xfffffdd6
    3720:	29003001 	stmdbcs	r0, {r0, ip, sp}
    3724:	00008e80 	andeq	r8, r0, r0, lsl #29
    3728:	00000b76 	andeq	r0, r0, r6, ror fp
    372c:	00000b0e 	andeq	r0, r0, lr, lsl #22
    3730:	0150012a 	cmpeq	r0, sl, lsr #2
    3734:	51012a38 	tstpl	r1, r8, lsr sl
    3738:	7ed89103 	atnvce	f1, f3
    373c:	0252012a 	subseq	r0, r2, #-2147483638	; 0x8000000a
    3740:	022a8008 	eoreq	r8, sl, #8
    3744:	7402007d 	strvc	r0, [r2], #-125	; 0xffffff83
    3748:	7d022a00 	vstrvc	s4, [r2, #-0]
    374c:	00300104 	eorseq	r0, r0, r4, lsl #2
    3750:	008e882b 	addeq	r8, lr, fp, lsr #16
    3754:	000e5200 	andeq	r5, lr, r0, lsl #4
    3758:	8ea42900 	vfmahi.f16	s4, s8, s0	; <UNPREDICTABLE>
    375c:	0e5d0000 	cdpeq	0, 5, cr0, cr13, cr0, {0}
    3760:	0b460000 	bleq	1183768 <__bss_end__+0x1179740>
    3764:	012a0000 			; <UNDEFINED> instruction: 0x012a0000
    3768:	b8030550 	stmdalt	r3, {r4, r6, r8, sl}
    376c:	2a00009a 	bcs	39dc <_start-0x4624>
    3770:	03055101 	movweq	r5, #20737	; 0x5101
    3774:	00009a10 	andeq	r9, r0, r0, lsl sl
    3778:	0552012a 	ldrbeq	r0, [r2, #-298]	; 0xfffffed6
    377c:	009a0403 	addseq	r0, sl, r3, lsl #8
    3780:	53012a00 	movwpl	r2, #6656	; 0x1a00
    3784:	00bb0802 	adcseq	r0, fp, r2, lsl #16
    3788:	008ea82b 	addeq	sl, lr, fp, lsr #16
    378c:	000e6800 	andeq	r6, lr, r0, lsl #16
    3790:	08000000 	stmdaeq	r0, {}	; <UNPREDICTABLE>
    3794:	00000114 	andeq	r0, r0, r4, lsl r1
    3798:	00000b61 	andeq	r0, r0, r1, ror #22
    379c:	0000c709 	andeq	ip, r0, r9, lsl #14
    37a0:	0e000900 	vmlaeq.f16	s0, s0, s0	; <UNPREDICTABLE>
    37a4:	00000b51 	andeq	r0, r0, r1, asr fp
    37a8:	00010d08 	andeq	r0, r1, r8, lsl #26
    37ac:	000b7600 	andeq	r7, fp, r0, lsl #12
    37b0:	00c70900 	sbceq	r0, r7, r0, lsl #18
    37b4:	007f0000 	rsbseq	r0, pc, r0
    37b8:	00074f2c 	andeq	r4, r7, ip, lsr #30
    37bc:	07470100 	strbeq	r0, [r7, -r0, lsl #2]
    37c0:	34000001 	strcc	r0, [r0], #-1
    37c4:	b000008a 	andlt	r0, r0, sl, lsl #1
    37c8:	01000001 	tsteq	r0, r1
    37cc:	000cb19c 	muleq	ip, ip, r1
    37d0:	00bf2d00 	adcseq	r2, pc, r0, lsl #26
    37d4:	47010000 	strmi	r0, [r1, -r0]
    37d8:	0000002c 	andeq	r0, r0, ip, lsr #32
    37dc:	00000989 	andeq	r0, r0, r9, lsl #19
    37e0:	74736422 	ldrbtvc	r6, [r3], #-1058	; 0xfffffbde
    37e4:	07470100 	strbeq	r0, [r7, -r0, lsl #2]
    37e8:	b7000001 	strlt	r0, [r0, -r1]
    37ec:	22000009 	andcs	r0, r0, #9
    37f0:	4701006e 	strmi	r0, [r1, -lr, rrx]
    37f4:	00000025 	andeq	r0, r0, r5, lsr #32
    37f8:	000009d5 	ldrdeq	r0, [r0], -r5
    37fc:	6c617622 	stclvs	6, cr7, [r1], #-136	; 0xffffff78
    3800:	25470100 	strbcs	r0, [r7, #-256]	; 0xffffff00
    3804:	f3000000 	vhadd.u8	d0, d0, d0
    3808:	2d000009 	stccs	0, cr0, [r0, #-36]	; 0xffffffdc
    380c:	0000072b 	andeq	r0, r0, fp, lsr #14
    3810:	00254701 	eoreq	r4, r5, r1, lsl #14
    3814:	0a670000 	beq	19c381c <__bss_end__+0x19b97f4>
    3818:	1a230000 	bne	8c3820 <__bss_end__+0x8b97f8>
    381c:	01000007 	tsteq	r0, r7
    3820:	00002547 	andeq	r2, r0, r7, asr #10
    3824:	04910200 	ldreq	r0, [r1], #512	; 0x200
    3828:	66756227 	ldrbtvs	r6, [r5], -r7, lsr #4
    382c:	b14c0100 	mrslt	r0, (UNDEF: 92)
    3830:	0300000c 	movweq	r0, #12
    3834:	247fa891 	ldrbtcs	sl, [pc], #-2193	; 383c <_start-0x47c4>
    3838:	4c010070 	stcmi	0, cr0, [r1], {112}	; 0x70
    383c:	00000107 	andeq	r0, r0, r7, lsl #2
    3840:	00000a91 	muleq	r0, r1, sl
    3844:	01007524 	tsteq	r0, r4, lsr #10
    3848:	00002c4d 	andeq	r2, r0, sp, asr #24
    384c:	000b5b00 	andeq	r5, fp, r0, lsl #22
    3850:	02112500 	andseq	r2, r1, #0, 10
    3854:	0cd10000 	ldcleq	0, cr0, [r1], {0}
    3858:	03050000 	movweq	r0, #20480	; 0x5000
    385c:	000099ec 	andeq	r9, r0, ip, ror #19
    3860:	008aa02e 	addeq	sl, sl, lr, lsr #32
    3864:	00007c00 	andeq	r7, r0, r0, lsl #24
    3868:	000c3b00 	andeq	r3, ip, r0, lsl #22
    386c:	07392800 	ldreq	r2, [r9, -r0, lsl #16]!
    3870:	52010000 	andpl	r0, r1, #0
    3874:	0000002c 	andeq	r0, r0, ip, lsr #32
    3878:	00000bc6 	andeq	r0, r0, r6, asr #23
    387c:	8b5c2900 	blhi	170dc84 <__bss_end__+0x1703c5c>
    3880:	0d420000 	stcleq	0, cr0, [r2, #-0]
    3884:	0c4f0000 	mareq	acc0, r0, pc
    3888:	012a0000 			; <UNDEFINED> instruction: 0x012a0000
    388c:	007d0251 	rsbseq	r0, sp, r1, asr r2
    3890:	8b702900 	blhi	1c0dc98 <__bss_end__+0x1c03c70>
    3894:	0cd60000 	ldcleq	0, cr0, [r6], {0}
    3898:	0c6f0000 	stcleq	0, cr0, [pc], #-0	; 38a0 <_start-0x4760>
    389c:	012a0000 			; <UNDEFINED> instruction: 0x012a0000
    38a0:	00750250 	rsbseq	r0, r5, r0, asr r2
    38a4:	0251012a 	subseq	r0, r1, #-2147483638	; 0x8000000a
    38a8:	012a0074 			; <UNDEFINED> instruction: 0x012a0074
    38ac:	007d0253 	rsbseq	r0, sp, r3, asr r2
    38b0:	8bb02b00 	blhi	fec0e4b8 <__bss_end__+0xfec04490>
    38b4:	0e520000 	cdpeq	0, 5, cr0, cr2, cr0, {0}
    38b8:	c4290000 	strtgt	r0, [r9], #-0
    38bc:	5d00008b 	stcpl	0, cr0, [r0, #-556]	; 0xfffffdd4
    38c0:	a700000e 	strge	r0, [r0, -lr]
    38c4:	2a00000c 	bcs	38fc <_start-0x4704>
    38c8:	03055001 	movweq	r5, #20481	; 0x5001
    38cc:	00009a24 	andeq	r9, r0, r4, lsr #20
    38d0:	0551012a 	ldrbeq	r0, [r1, #-298]	; 0xfffffed6
    38d4:	009a1003 	addseq	r1, sl, r3
    38d8:	52012a00 	andpl	r2, r1, #0, 20
    38dc:	99ec0305 	stmibls	ip!, {r0, r2, r8, r9}^
    38e0:	012a0000 			; <UNDEFINED> instruction: 0x012a0000
    38e4:	77080253 	smlsdvc	r8, r3, r2, r0
    38e8:	8bc82b00 	blhi	ff20e4f0 <__bss_end__+0xff2044c8>
    38ec:	0e680000 	cdpeq	0, 6, cr0, cr8, cr0, {0}
    38f0:	08000000 	stmdaeq	r0, {}	; <UNPREDICTABLE>
    38f4:	0000010d 	andeq	r0, r0, sp, lsl #2
    38f8:	00000cc1 	andeq	r0, r0, r1, asr #25
    38fc:	0000c709 	andeq	ip, r0, r9, lsl #14
    3900:	08003f00 	stmdaeq	r0, {r8, r9, sl, fp, ip, sp}
    3904:	00000114 	andeq	r0, r0, r4, lsl r1
    3908:	00000cd1 	ldrdeq	r0, [r0], -r1
    390c:	0000c709 	andeq	ip, r0, r9, lsl #14
    3910:	0e000400 	cfcpyseq	mvf0, mvf0
    3914:	00000cc1 	andeq	r0, r0, r1, asr #25
    3918:	0007232c 	andeq	r2, r7, ip, lsr #6
    391c:	07370100 	ldreq	r0, [r7, -r0, lsl #2]!
    3920:	f4000001 	vst4.8	{d0-d3}, [r0], r1
    3924:	40000089 	andmi	r0, r0, r9, lsl #1
    3928:	01000000 	mrseq	r0, (UNDEF: 0)
    392c:	000d429c 	muleq	sp, ip, r2
    3930:	73642200 	cmnvc	r4, #0, 4
    3934:	37010074 	smlsdxcc	r1, r4, r0, r0
    3938:	00000107 	andeq	r0, r0, r7, lsl #2
    393c:	00000bfd 	strdeq	r0, [r0], -sp
    3940:	01006e22 	tsteq	r0, r2, lsr #28
    3944:	00002537 	andeq	r2, r0, r7, lsr r5
    3948:	000c3500 	andeq	r3, ip, r0, lsl #10
    394c:	00702200 	rsbseq	r2, r0, r0, lsl #4
    3950:	01073701 	tsteq	r7, r1, lsl #14
    3954:	0c560000 	mraeq	r0, r6, acc0
    3958:	592d0000 	pushpl	{}	; <UNPREDICTABLE>
    395c:	0100000b 	tsteq	r0, fp
    3960:	00010737 	andeq	r0, r1, r7, lsr r7
    3964:	000c8c00 	andeq	r8, ip, r0, lsl #24
    3968:	656c2400 	strbvs	r2, [ip, #-1024]!	; 0xfffffc00
    396c:	3901006e 	stmdbcc	r1, {r1, r2, r3, r5, r6}
    3970:	00000025 	andeq	r0, r0, r5, lsr #32
    3974:	00000caa 	andeq	r0, r0, sl, lsr #25
    3978:	01007327 	tsteq	r0, r7, lsr #6
    397c:	0001073d 	andeq	r0, r1, sp, lsr r7
    3980:	00500100 	subseq	r0, r0, r0, lsl #2
    3984:	6461702f 	strbtvs	r7, [r1], #-47	; 0xffffffd1
    3988:	072e0100 	streq	r0, [lr, -r0, lsl #2]!
    398c:	c8000001 	stmdagt	r0, {r0}
    3990:	2c000089 	stccs	0, cr0, [r0], {137}	; 0x89
    3994:	01000000 	mrseq	r0, (UNDEF: 0)
    3998:	000d929c 	muleq	sp, ip, r2
    399c:	00702200 	rsbseq	r2, r0, r0, lsl #4
    39a0:	01072e01 	tsteq	r7, r1, lsl #28
    39a4:	0d090000 	stceq	0, cr0, [r9, #-0]
    39a8:	bf2d0000 	svclt	0x002d0000
    39ac:	01000000 	mrseq	r0, (UNDEF: 0)
    39b0:	0001072e 	andeq	r0, r1, lr, lsr #14
    39b4:	000d3400 	andeq	r3, sp, r0, lsl #8
    39b8:	072b2300 	streq	r2, [fp, -r0, lsl #6]!
    39bc:	2e010000 	cdpcs	0, 0, cr0, cr1, cr0, {0}
    39c0:	00000025 	andeq	r0, r0, r5, lsr #32
    39c4:	6c275201 	sfmvs	f5, 4, [r7], #-4
    39c8:	01006e65 	tsteq	r0, r5, ror #28
    39cc:	0000252f 	andeq	r2, r0, pc, lsr #10
    39d0:	00510100 	subseq	r0, r1, r0, lsl #2
    39d4:	0007472c 	andeq	r4, r7, ip, lsr #14
    39d8:	25270100 	strcs	r0, [r7, #-256]!	; 0xffffff00
    39dc:	b4000000 	strlt	r0, [r0], #-0
    39e0:	14000089 	strne	r0, [r0], #-137	; 0xffffff77
    39e4:	01000000 	mrseq	r0, (UNDEF: 0)
    39e8:	000db99c 	muleq	sp, ip, r9
    39ec:	00632200 	rsbeq	r2, r3, r0, lsl #4
    39f0:	00252701 	eoreq	r2, r5, r1, lsl #14
    39f4:	0d550000 	ldcleq	0, cr0, [r5, #-0]
    39f8:	30000000 	andcc	r0, r0, r0
    39fc:	0000070b 	andeq	r0, r0, fp, lsl #14
    3a00:	8be41f01 	blhi	ff90b60c <__bss_end__+0xff9015e4>
    3a04:	00540000 	subseq	r0, r4, r0
    3a08:	9c010000 	stcls	0, cr0, [r1], {-0}
    3a0c:	00000e3d 	andeq	r0, r0, sp, lsr lr
    3a10:	00073f2d 	andeq	r3, r7, sp, lsr #30
    3a14:	981f0100 	ldmdals	pc, {r8}	; <UNPREDICTABLE>
    3a18:	83000008 	movwhi	r0, #8
    3a1c:	2d00000d 	stccs	0, cr0, [r0, #-52]	; 0xffffffcc
    3a20:	00000731 	andeq	r0, r0, r1, lsr r7
    3a24:	08b81f01 	ldmeq	r8!, {r0, r8, r9, sl, fp, ip}
    3a28:	0da40000 	stceq	0, cr0, [r4]
    3a2c:	11250000 			; <UNDEFINED> instruction: 0x11250000
    3a30:	4d000002 	stcmi	0, cr0, [r0, #-8]
    3a34:	0500000e 	streq	r0, [r0, #-14]
    3a38:	0099f403 	addseq	pc, r9, r3, lsl #8
    3a3c:	8c0c2b00 			; <UNDEFINED> instruction: 0x8c0c2b00
    3a40:	0e520000 	cdpeq	0, 5, cr0, cr2, cr0, {0}
    3a44:	20290000 	eorcs	r0, r9, r0
    3a48:	5d00008c 	stcpl	0, cr0, [r0, #-560]	; 0xfffffdd0
    3a4c:	3300000e 	movwcc	r0, #14
    3a50:	2a00000e 	bcs	3a90 <_start-0x4570>
    3a54:	03055001 	movweq	r5, #20481	; 0x5001
    3a58:	00009a5c 	andeq	r9, r0, ip, asr sl
    3a5c:	0551012a 	ldrbeq	r0, [r1, #-298]	; 0xfffffed6
    3a60:	009a1003 	addseq	r1, sl, r3
    3a64:	52012a00 	andpl	r2, r1, #0, 20
    3a68:	99f40305 	ldmibls	r4!, {r0, r2, r8, r9}^
    3a6c:	012a0000 			; <UNDEFINED> instruction: 0x012a0000
    3a70:	20080253 	andcs	r0, r8, r3, asr r2
    3a74:	8c242b00 			; <UNDEFINED> instruction: 0x8c242b00
    3a78:	0e680000 	cdpeq	0, 6, cr0, cr8, cr0, {0}
    3a7c:	08000000 	stmdaeq	r0, {}	; <UNPREDICTABLE>
    3a80:	00000114 	andeq	r0, r0, r4, lsl r1
    3a84:	00000e4d 	andeq	r0, r0, sp, asr #28
    3a88:	0000c709 	andeq	ip, r0, r9, lsl #14
    3a8c:	0e000e00 	cdpeq	14, 0, cr0, cr0, cr0, {0}
    3a90:	00000e3d 	andeq	r0, r0, sp, lsr lr
    3a94:	0001ec31 	andeq	lr, r1, r1, lsr ip
    3a98:	0001ec00 	andeq	lr, r1, r0, lsl #24
    3a9c:	311e0600 	tstcc	lr, r0, lsl #12
    3aa0:	000006b5 			; <UNDEFINED> instruction: 0x000006b5
    3aa4:	000006b5 			; <UNDEFINED> instruction: 0x000006b5
    3aa8:	9c312906 			; <UNDEFINED> instruction: 0x9c312906
    3aac:	9c000002 	stcls	0, cr0, [r0], {2}
    3ab0:	06000002 	streq	r0, [r0], -r2
    3ab4:	094c0065 	stmdbeq	ip, {r0, r2, r5, r6}^
    3ab8:	00040000 	andeq	r0, r4, r0
    3abc:	000009f4 	strdeq	r0, [r0], -r4
    3ac0:	03d60104 	bicseq	r0, r6, #4, 2
    3ac4:	540c0000 	strpl	r0, [ip], #-0
    3ac8:	de000007 	cdple	0, 0, cr0, cr0, cr7, {0}
    3acc:	f8000006 			; <UNDEFINED> instruction: 0xf8000006
    3ad0:	e800008e 	stmda	r0, {r1, r2, r3, r7}
    3ad4:	44000000 	strmi	r0, [r0], #-0
    3ad8:	02000006 	andeq	r0, r0, #6
    3adc:	6e690504 	cdpvs	5, 6, cr0, cr9, cr4, {0}
    3ae0:	04030074 	streq	r0, [r3], #-116	; 0xffffff8c
    3ae4:	00006607 	andeq	r6, r0, r7, lsl #12
    3ae8:	06010300 	streq	r0, [r1], -r0, lsl #6
    3aec:	000002fa 	strdeq	r0, [r0], -sl
    3af0:	14050203 	strne	r0, [r5], #-515	; 0xfffffdfd
    3af4:	03000003 	movweq	r0, #3
    3af8:	00af0504 	adceq	r0, pc, r4, lsl #10
    3afc:	08030000 	stmdaeq	r3, {}	; <UNPREDICTABLE>
    3b00:	0000aa05 	andeq	sl, r0, r5, lsl #20
    3b04:	06790400 	ldrbteq	r0, [r9], -r0, lsl #8
    3b08:	2e020000 	cdpcs	0, 0, cr0, cr2, cr0, {0}
    3b0c:	0000005a 	andeq	r0, r0, sl, asr r0
    3b10:	f8080103 			; <UNDEFINED> instruction: 0xf8080103
    3b14:	03000002 	movweq	r0, #2
    3b18:	02250702 	eoreq	r0, r5, #524288	; 0x80000
    3b1c:	37040000 	strcc	r0, [r4, -r0]
    3b20:	02000006 	andeq	r0, r0, #6
    3b24:	00007334 	andeq	r7, r0, r4, lsr r3
    3b28:	07040300 	streq	r0, [r4, -r0, lsl #6]
    3b2c:	00000061 	andeq	r0, r0, r1, rrx
    3b30:	5c070803 	stcpl	8, cr0, [r7], {3}
    3b34:	04000000 	streq	r0, [r0], #-0
    3b38:	000002e6 	andeq	r0, r0, r6, ror #5
    3b3c:	00250703 	eoreq	r0, r5, r3, lsl #14
    3b40:	d5040000 	strle	r0, [r4, #-0]
    3b44:	04000002 	streq	r0, [r0], #-2
    3b48:	0000412c 	andeq	r4, r0, ip, lsr #2
    3b4c:	03bf0400 			; <UNDEFINED> instruction: 0x03bf0400
    3b50:	72040000 	andvc	r0, r4, #0
    3b54:	00000041 	andeq	r0, r0, r1, asr #32
    3b58:	00027605 	andeq	r7, r2, r5, lsl #12
    3b5c:	01650500 	cmneq	r5, r0, lsl #10
    3b60:	0000002c 	andeq	r0, r0, ip, lsr #32
    3b64:	a6040406 	strge	r0, [r4], -r6, lsl #8
    3b68:	000000cd 	andeq	r0, r0, sp, asr #1
    3b6c:	00027007 	andeq	r7, r2, r7
    3b70:	a2a80400 	adcge	r0, r8, #0, 8
    3b74:	07000000 	streq	r0, [r0, -r0]
    3b78:	000001e5 	andeq	r0, r0, r5, ror #3
    3b7c:	00cda904 	sbceq	sl, sp, r4, lsl #18
    3b80:	08000000 	stmdaeq	r0, {}	; <UNPREDICTABLE>
    3b84:	0000005a 	andeq	r0, r0, sl, asr r0
    3b88:	000000dd 	ldrdeq	r0, [r0], -sp
    3b8c:	0000dd09 	andeq	sp, r0, r9, lsl #26
    3b90:	03000300 	movweq	r0, #768	; 0x300
    3b94:	02a90704 	adceq	r0, r9, #4, 14	; 0x100000
    3b98:	080a0000 	stmdaeq	sl, {}	; <UNPREDICTABLE>
    3b9c:	0105a304 	tsteq	r5, r4, lsl #6
    3ba0:	a90b0000 	stmdbge	fp, {}	; <UNPREDICTABLE>
    3ba4:	04000003 	streq	r0, [r0], #-3
    3ba8:	000025a5 	andeq	r2, r0, r5, lsr #11
    3bac:	b10b0000 	mrslt	r0, (UNDEF: 11)
    3bb0:	04000003 	streq	r0, [r0], #-3
    3bb4:	0000aeaa 	andeq	sl, r0, sl, lsr #29
    3bb8:	04000400 	streq	r0, [r0], #-1024	; 0xfffffc00
    3bbc:	0000033c 	andeq	r0, r0, ip, lsr r3
    3bc0:	00e4ab04 	rsceq	sl, r4, r4, lsl #22
    3bc4:	a2040000 	andge	r0, r4, #0
    3bc8:	04000001 	streq	r0, [r0], #-1
    3bcc:	000081af 	andeq	r8, r0, pc, lsr #3
    3bd0:	0d040c00 	stceq	12, cr0, [r4, #-0]
    3bd4:	00012304 	andeq	r2, r1, r4, lsl #6
    3bd8:	08010300 	stmdaeq	r1, {r8, r9}
    3bdc:	00000301 	andeq	r0, r0, r1, lsl #6
    3be0:	0001230e 	andeq	r2, r1, lr, lsl #6
    3be4:	04530400 	ldrbeq	r0, [r3], #-1024	; 0xfffffc00
    3be8:	16060000 	strne	r0, [r6], -r0
    3bec:	00000073 	andeq	r0, r0, r3, ror r0
    3bf0:	0001b30f 	andeq	fp, r1, pc, lsl #6
    3bf4:	2d061800 	stccs	8, cr1, [r6, #-0]
    3bf8:	0000018d 	andeq	r0, r0, sp, lsl #3
    3bfc:	00035d0b 	andeq	r5, r3, fp, lsl #26
    3c00:	8d2f0600 	stchi	6, cr0, [pc, #-0]	; 3c08 <_start-0x43f8>
    3c04:	00000001 	andeq	r0, r0, r1
    3c08:	006b5f10 	rsbeq	r5, fp, r0, lsl pc
    3c0c:	00253006 	eoreq	r3, r5, r6
    3c10:	0b040000 	bleq	103c18 <__bss_end__+0xf9bf0>
    3c14:	00000394 	muleq	r0, r4, r3
    3c18:	00253006 	eoreq	r3, r5, r6
    3c1c:	0b080000 	bleq	203c24 <__bss_end__+0x1f9bfc>
    3c20:	0000019c 	muleq	r0, ip, r1
    3c24:	00253006 	eoreq	r3, r5, r6
    3c28:	0b0c0000 	bleq	303c30 <__bss_end__+0x2f9c08>
    3c2c:	000004a1 	andeq	r0, r0, r1, lsr #9
    3c30:	00253006 	eoreq	r3, r5, r6
    3c34:	10100000 	andsne	r0, r0, r0
    3c38:	0600785f 			; <UNDEFINED> instruction: 0x0600785f
    3c3c:	00019331 	andeq	r9, r1, r1, lsr r3
    3c40:	0d001400 	cfstrseq	mvf1, [r0, #-0]
    3c44:	00013a04 	andeq	r3, r1, r4, lsl #20
    3c48:	012f0800 			; <UNDEFINED> instruction: 0x012f0800
    3c4c:	01a30000 			; <UNDEFINED> instruction: 0x01a30000
    3c50:	dd090000 	stcle	0, cr0, [r9, #-0]
    3c54:	00000000 	andeq	r0, r0, r0
    3c58:	01e00f00 	mvneq	r0, r0, lsl #30
    3c5c:	06240000 	strteq	r0, [r4], -r0
    3c60:	00021c35 	andeq	r1, r2, r5, lsr ip
    3c64:	00a10b00 	adceq	r0, r1, r0, lsl #22
    3c68:	37060000 	strcc	r0, [r6, -r0]
    3c6c:	00000025 	andeq	r0, r0, r5, lsr #32
    3c70:	03c70b00 	biceq	r0, r7, #0, 22
    3c74:	38060000 	stmdacc	r6, {}	; <UNPREDICTABLE>
    3c78:	00000025 	andeq	r0, r0, r5, lsr #32
    3c7c:	00c40b04 	sbceq	r0, r4, r4, lsl #22
    3c80:	39060000 	stmdbcc	r6, {}	; <UNPREDICTABLE>
    3c84:	00000025 	andeq	r0, r0, r5, lsr #32
    3c88:	05220b08 	streq	r0, [r2, #-2824]!	; 0xfffff4f8
    3c8c:	3a060000 	bcc	183c94 <__bss_end__+0x179c6c>
    3c90:	00000025 	andeq	r0, r0, r5, lsr #32
    3c94:	02b90b0c 	adcseq	r0, r9, #12, 22	; 0x3000
    3c98:	3b060000 	blcc	183ca0 <__bss_end__+0x179c78>
    3c9c:	00000025 	andeq	r0, r0, r5, lsr #32
    3ca0:	02920b10 	addseq	r0, r2, #16, 22	; 0x4000
    3ca4:	3c060000 	stccc	0, cr0, [r6], {-0}
    3ca8:	00000025 	andeq	r0, r0, r5, lsr #32
    3cac:	04a60b14 	strteq	r0, [r6], #2836	; 0xb14
    3cb0:	3d060000 	stccc	0, cr0, [r6, #-0]
    3cb4:	00000025 	andeq	r0, r0, r5, lsr #32
    3cb8:	031e0b18 	tsteq	lr, #24, 22	; 0x6000
    3cbc:	3e060000 	cdpcc	0, 0, cr0, cr6, cr0, {0}
    3cc0:	00000025 	andeq	r0, r0, r5, lsr #32
    3cc4:	04e90b1c 	strbteq	r0, [r9], #2844	; 0xb1c
    3cc8:	3f060000 	svccc	0x00060000
    3ccc:	00000025 	andeq	r0, r0, r5, lsr #32
    3cd0:	04110020 	ldreq	r0, [r1], #-32	; 0xffffffe0
    3cd4:	08000001 	stmdaeq	r0, {r0}
    3cd8:	5c480601 	mcrrpl	6, 0, r0, r8, cr1
    3cdc:	0b000002 	bleq	3cec <_start-0x4314>
    3ce0:	0000018f 	andeq	r0, r0, pc, lsl #3
    3ce4:	025c4906 	subseq	r4, ip, #98304	; 0x18000
    3ce8:	0b000000 	bleq	3cf0 <_start-0x4310>
    3cec:	00000000 	andeq	r0, r0, r0
    3cf0:	025c4a06 	subseq	r4, ip, #24576	; 0x6000
    3cf4:	12800000 	addne	r0, r0, #0
    3cf8:	00000445 	andeq	r0, r0, r5, asr #8
    3cfc:	012f4c06 			; <UNDEFINED> instruction: 0x012f4c06
    3d00:	01000000 	mrseq	r0, (UNDEF: 0)
    3d04:	00012912 	andeq	r2, r1, r2, lsl r9
    3d08:	2f4f0600 	svccs	0x004f0600
    3d0c:	04000001 	streq	r0, [r0], #-1
    3d10:	1b080001 	blne	203d1c <__bss_end__+0x1f9cf4>
    3d14:	6c000001 	stcvs	0, cr0, [r0], {1}
    3d18:	09000002 	stmdbeq	r0, {r1}
    3d1c:	000000dd 	ldrdeq	r0, [r0], -sp
    3d20:	c211001f 	andsgt	r0, r1, #31
    3d24:	90000002 	andls	r0, r0, r2
    3d28:	aa5b0601 	bge	16c5534 <__bss_end__+0x16bb50c>
    3d2c:	0b000002 	bleq	3d3c <_start-0x42c4>
    3d30:	0000035d 	andeq	r0, r0, sp, asr r3
    3d34:	02aa5c06 	adceq	r5, sl, #1536	; 0x600
    3d38:	0b000000 	bleq	3d40 <_start-0x42c0>
    3d3c:	00000375 	andeq	r0, r0, r5, ror r3
    3d40:	00255d06 	eoreq	r5, r5, r6, lsl #26
    3d44:	0b040000 	bleq	103d4c <__bss_end__+0xf9d24>
    3d48:	00000197 	muleq	r0, r7, r1
    3d4c:	02b05f06 	adcseq	r5, r0, #6, 30
    3d50:	0b080000 	bleq	203d58 <__bss_end__+0x1f9d30>
    3d54:	00000104 	andeq	r0, r0, r4, lsl #2
    3d58:	021c6006 	andseq	r6, ip, #6
    3d5c:	00880000 	addeq	r0, r8, r0
    3d60:	026c040d 	rsbeq	r0, ip, #218103808	; 0xd000000
    3d64:	c0080000 	andgt	r0, r8, r0
    3d68:	c0000002 	andgt	r0, r0, r2
    3d6c:	09000002 	stmdbeq	r0, {r1}
    3d70:	000000dd 	ldrdeq	r0, [r0], -sp
    3d74:	040d001f 	streq	r0, [sp], #-31	; 0xffffffe1
    3d78:	000002c6 	andeq	r0, r0, r6, asr #5
    3d7c:	03280f13 			; <UNDEFINED> instruction: 0x03280f13
    3d80:	06080000 	streq	r0, [r8], -r0
    3d84:	0002ec73 	andeq	lr, r2, r3, ror ip
    3d88:	00be0b00 	adcseq	r0, lr, r0, lsl #22
    3d8c:	74060000 	strvc	r0, [r6], #-0
    3d90:	000002ec 	andeq	r0, r0, ip, ror #5
    3d94:	001b0b00 	andseq	r0, fp, r0, lsl #22
    3d98:	75060000 	strvc	r0, [r6, #-0]
    3d9c:	00000025 	andeq	r0, r0, r5, lsr #32
    3da0:	040d0004 	streq	r0, [sp], #-4
    3da4:	0000005a 	andeq	r0, r0, sl, asr r0
    3da8:	0003470f 	andeq	r4, r3, pc, lsl #14
    3dac:	b3066800 	movwlt	r6, #26624	; 0x6800
    3db0:	0000041c 	andeq	r0, r0, ip, lsl r4
    3db4:	00705f10 	rsbseq	r5, r0, r0, lsl pc
    3db8:	02ecb406 	rsceq	fp, ip, #100663296	; 0x6000000
    3dbc:	10000000 	andne	r0, r0, r0
    3dc0:	0600725f 			; <UNDEFINED> instruction: 0x0600725f
    3dc4:	000025b5 			; <UNDEFINED> instruction: 0x000025b5
    3dc8:	5f100400 	svcpl	0x00100400
    3dcc:	b6060077 			; <UNDEFINED> instruction: 0xb6060077
    3dd0:	00000025 	andeq	r0, r0, r5, lsr #32
    3dd4:	01220b08 			; <UNDEFINED> instruction: 0x01220b08
    3dd8:	b7060000 	strlt	r0, [r6, -r0]
    3ddc:	0000003a 	andeq	r0, r0, sl, lsr r0
    3de0:	020b0b0c 	andeq	r0, fp, #12, 22	; 0x3000
    3de4:	b8060000 	stmdalt	r6, {}	; <UNPREDICTABLE>
    3de8:	0000003a 	andeq	r0, r0, sl, lsr r0
    3dec:	625f100e 	subsvs	r1, pc, #14
    3df0:	b9060066 	stmdblt	r6, {r1, r2, r5, r6}
    3df4:	000002c7 	andeq	r0, r0, r7, asr #5
    3df8:	007b0b10 	rsbseq	r0, fp, r0, lsl fp
    3dfc:	ba060000 	blt	183e04 <__bss_end__+0x179ddc>
    3e00:	00000025 	andeq	r0, r0, r5, lsr #32
    3e04:	01120b18 	tsteq	r2, r8, lsl fp
    3e08:	c1060000 	mrsgt	r0, (UNDEF: 6)
    3e0c:	0000011b 	andeq	r0, r0, fp, lsl r1
    3e10:	0a780b1c 	beq	1e06a88 <__bss_end__+0x1dfca60>
    3e14:	c3060000 	movwgt	r0, #24576	; 0x6000
    3e18:	00000577 	andeq	r0, r0, r7, ror r5
    3e1c:	060c0b20 	streq	r0, [ip], -r0, lsr #22
    3e20:	c5060000 	strgt	r0, [r6, #-0]
    3e24:	000005a1 	andeq	r0, r0, r1, lsr #11
    3e28:	03b90b24 			; <UNDEFINED> instruction: 0x03b90b24
    3e2c:	c8060000 	stmdagt	r6, {}	; <UNPREDICTABLE>
    3e30:	000005c5 	andeq	r0, r0, r5, asr #11
    3e34:	05030b28 	streq	r0, [r3, #-2856]	; 0xfffff4d8
    3e38:	c9060000 	stmdbgt	r6, {}	; <UNPREDICTABLE>
    3e3c:	000005df 	ldrdeq	r0, [r0], -pc	; <UNPREDICTABLE>
    3e40:	755f102c 	ldrbvc	r1, [pc, #-44]	; 3e1c <_start-0x41e4>
    3e44:	cc060062 	stcgt	0, cr0, [r6], {98}	; 0x62
    3e48:	000002c7 	andeq	r0, r0, r7, asr #5
    3e4c:	755f1030 	ldrbvc	r1, [pc, #-48]	; 3e24 <_start-0x41dc>
    3e50:	cd060070 	stcgt	0, cr0, [r6, #-448]	; 0xfffffe40
    3e54:	000002ec 	andeq	r0, r0, ip, ror #5
    3e58:	755f1038 	ldrbvc	r1, [pc, #-56]	; 3e28 <_start-0x41d8>
    3e5c:	ce060072 	mcrgt	0, 0, r0, cr6, cr2, {3}
    3e60:	00000025 	andeq	r0, r0, r5, lsr #32
    3e64:	00b80b3c 	adcseq	r0, r8, ip, lsr fp
    3e68:	d1060000 	mrsle	r0, (UNDEF: 6)
    3e6c:	000005e5 	andeq	r0, r0, r5, ror #11
    3e70:	04db0b40 	ldrbeq	r0, [fp], #2880	; 0xb40
    3e74:	d2060000 	andle	r0, r6, #0
    3e78:	000005f5 	strdeq	r0, [r0], -r5
    3e7c:	6c5f1043 	mrrcvs	0, 4, r1, pc, cr3	; <UNPREDICTABLE>
    3e80:	d5060062 	strle	r0, [r6, #-98]	; 0xffffff9e
    3e84:	000002c7 	andeq	r0, r0, r7, asr #5
    3e88:	01400b44 	cmpeq	r0, r4, asr #22
    3e8c:	d8060000 	stmdale	r6, {}	; <UNPREDICTABLE>
    3e90:	00000025 	andeq	r0, r0, r5, lsr #32
    3e94:	01510b4c 	cmpeq	r1, ip, asr #22
    3e98:	d9060000 	stmdble	r6, {}	; <UNPREDICTABLE>
    3e9c:	0000008c 	andeq	r0, r0, ip, lsl #1
    3ea0:	0a190b50 	beq	646be8 <__bss_end__+0x63cbc0>
    3ea4:	dc060000 	stcle	0, cr0, [r6], {-0}
    3ea8:	0000043a 	andeq	r0, r0, sl, lsr r4
    3eac:	02840b54 	addeq	r0, r4, #84, 22	; 0x15000
    3eb0:	e0060000 	and	r0, r6, r0
    3eb4:	00000110 	andeq	r0, r0, r0, lsl r1
    3eb8:	034f0b58 	movteq	r0, #64344	; 0xfb58
    3ebc:	e2060000 	and	r0, r6, #0
    3ec0:	00000105 	andeq	r0, r0, r5, lsl #2
    3ec4:	028a0b5c 	addeq	r0, sl, #92, 22	; 0x17000
    3ec8:	e3060000 	movw	r0, #24576	; 0x6000
    3ecc:	00000025 	andeq	r0, r0, r5, lsr #32
    3ed0:	25140064 	ldrcs	r0, [r4, #-100]	; 0xffffff9c
    3ed4:	3a000000 	bcc	3edc <_start-0x4124>
    3ed8:	15000004 	strne	r0, [r0, #-4]
    3edc:	0000043a 	andeq	r0, r0, sl, lsr r4
    3ee0:	00011b15 	andeq	r1, r1, r5, lsl fp
    3ee4:	011d1500 	tsteq	sp, r0, lsl #10
    3ee8:	25150000 	ldrcs	r0, [r5, #-0]
    3eec:	00000000 	andeq	r0, r0, r0
    3ef0:	0445040d 	strbeq	r0, [r5], #-1037	; 0xfffffbf3
    3ef4:	3a0e0000 	bcc	383efc <__bss_end__+0x379ed4>
    3ef8:	16000004 	strne	r0, [r0], -r4
    3efc:	0000039c 	muleq	r0, ip, r3
    3f00:	38060428 	stmdacc	r6, {r3, r5, sl}
    3f04:	00057702 	andeq	r7, r5, r2, lsl #14
    3f08:	030d1700 	movweq	r1, #55040	; 0xd700
    3f0c:	3a060000 	bcc	183f14 <__bss_end__+0x179eec>
    3f10:	00002502 	andeq	r2, r0, r2, lsl #10
    3f14:	31170000 	tstcc	r7, r0
    3f18:	06000001 	streq	r0, [r0], -r1
    3f1c:	064c023f 			; <UNDEFINED> instruction: 0x064c023f
    3f20:	17040000 	strne	r0, [r4, -r0]
    3f24:	000001fb 	strdeq	r0, [r0], -fp
    3f28:	4c023f06 	stcmi	15, cr3, [r2], {6}
    3f2c:	08000006 	stmdaeq	r0, {r1, r2}
    3f30:	0001ab17 	andeq	sl, r1, r7, lsl fp
    3f34:	023f0600 	eorseq	r0, pc, #0, 12
    3f38:	0000064c 	andeq	r0, r0, ip, asr #12
    3f3c:	0370170c 	cmneq	r0, #12, 14	; 0x300000
    3f40:	41060000 	mrsmi	r0, (UNDEF: 6)
    3f44:	00002502 	andeq	r2, r0, r2, lsl #10
    3f48:	29171000 	ldmdbcs	r7, {ip}
    3f4c:	06000000 	streq	r0, [r0], -r0
    3f50:	082e0242 	stmdaeq	lr!, {r1, r6, r9}
    3f54:	17140000 	ldrne	r0, [r4, -r0]
    3f58:	0000047b 	andeq	r0, r0, fp, ror r4
    3f5c:	25024406 	strcs	r4, [r2, #-1030]	; 0xfffffbfa
    3f60:	30000000 	andcc	r0, r0, r0
    3f64:	00037a17 	andeq	r7, r3, r7, lsl sl
    3f68:	02450600 	subeq	r0, r5, #0, 12
    3f6c:	0000059b 	muleq	r0, fp, r5
    3f70:	02ca1734 	sbceq	r1, sl, #52, 14	; 0xd00000
    3f74:	47060000 	strmi	r0, [r6, -r0]
    3f78:	00002502 	andeq	r2, r0, r2, lsl #10
    3f7c:	8a173800 	bhi	5d1f84 <__bss_end__+0x5c7f5c>
    3f80:	06000003 	streq	r0, [r0], -r3
    3f84:	08490249 	stmdaeq	r9, {r0, r3, r6, r9}^
    3f88:	173c0000 	ldrne	r0, [ip, -r0]!
    3f8c:	00000268 	andeq	r0, r0, r8, ror #4
    3f90:	8d024c06 	stchi	12, cr4, [r2, #-24]	; 0xffffffe8
    3f94:	40000001 	andmi	r0, r0, r1
    3f98:	0001ca17 	andeq	ip, r1, r7, lsl sl
    3f9c:	024d0600 	subeq	r0, sp, #0, 12
    3fa0:	00000025 	andeq	r0, r0, r5, lsr #32
    3fa4:	051d1744 	ldreq	r1, [sp, #-1860]	; 0xfffff8bc
    3fa8:	4e060000 	cdpmi	0, 0, cr0, cr6, cr0, {0}
    3fac:	00018d02 	andeq	r8, r1, r2, lsl #26
    3fb0:	dc174800 	ldcle	8, cr4, [r7], {-0}
    3fb4:	06000002 	streq	r0, [r0], -r2
    3fb8:	084f024f 	stmdaeq	pc, {r0, r1, r2, r3, r6, r9}^	; <UNPREDICTABLE>
    3fbc:	174c0000 	strbne	r0, [ip, -r0]
    3fc0:	00000203 	andeq	r0, r0, r3, lsl #4
    3fc4:	25025206 	strcs	r5, [r2, #-518]	; 0xfffffdfa
    3fc8:	50000000 	andpl	r0, r0, r0
    3fcc:	00014917 	andeq	r4, r1, r7, lsl r9
    3fd0:	02530600 	subseq	r0, r3, #0, 12
    3fd4:	0000011d 	andeq	r0, r0, sp, lsl r1
    3fd8:	03061754 	movweq	r1, #26452	; 0x6754
    3fdc:	76060000 	strvc	r0, [r6], -r0
    3fe0:	00080c02 	andeq	r0, r8, r2, lsl #24
    3fe4:	c2185800 	andsgt	r5, r8, #0, 16
    3fe8:	06000002 	streq	r0, [r0], -r2
    3fec:	02aa027a 	adceq	r0, sl, #-1610612729	; 0xa0000007
    3ff0:	01480000 	mrseq	r0, (UNDEF: 72)
    3ff4:	00024618 	andeq	r4, r2, r8, lsl r6
    3ff8:	027b0600 	rsbseq	r0, fp, #0, 12
    3ffc:	0000026c 	andeq	r0, r0, ip, ror #4
    4000:	c918014c 	ldmdbgt	r8, {r2, r3, r6, r8}
    4004:	06000004 	streq	r0, [r0], -r4
    4008:	0860027f 	stmdaeq	r0!, {r0, r1, r2, r3, r4, r5, r6, r9}^
    400c:	02dc0000 	sbcseq	r0, ip, #0
    4010:	00011a18 	andeq	r1, r1, r8, lsl sl
    4014:	02840600 	addeq	r0, r4, #0, 12
    4018:	00000611 	andeq	r0, r0, r1, lsl r6
    401c:	ff1802e0 			; <UNDEFINED> instruction: 0xff1802e0
    4020:	06000000 	streq	r0, [r0], -r0
    4024:	086c0285 	stmdaeq	ip!, {r0, r2, r7, r9}^
    4028:	02ec0000 	rsceq	r0, ip, #0
    402c:	1c040d00 	stcne	13, cr0, [r4], {-0}
    4030:	14000004 	strne	r0, [r0], #-4
    4034:	00000025 	andeq	r0, r0, r5, lsr #32
    4038:	0000059b 	muleq	r0, fp, r5
    403c:	00043a15 	andeq	r3, r4, r5, lsl sl
    4040:	011b1500 	tsteq	fp, r0, lsl #10
    4044:	9b150000 	blls	54404c <__bss_end__+0x53a024>
    4048:	15000005 	strne	r0, [r0, #-5]
    404c:	00000025 	andeq	r0, r0, r5, lsr #32
    4050:	2a040d00 	bcs	107458 <__bss_end__+0xfd430>
    4054:	0d000001 	stceq	0, cr0, [r0, #-4]
    4058:	00057d04 	andeq	r7, r5, r4, lsl #26
    405c:	00971400 	addseq	r1, r7, r0, lsl #8
    4060:	05c50000 	strbeq	r0, [r5]
    4064:	3a150000 	bcc	54406c <__bss_end__+0x53a044>
    4068:	15000004 	strne	r0, [r0, #-4]
    406c:	0000011b 	andeq	r0, r0, fp, lsl r1
    4070:	00009715 	andeq	r9, r0, r5, lsl r7
    4074:	00251500 	eoreq	r1, r5, r0, lsl #10
    4078:	0d000000 	stceq	0, cr0, [r0, #-0]
    407c:	0005a704 	andeq	sl, r5, r4, lsl #14
    4080:	00251400 	eoreq	r1, r5, r0, lsl #8
    4084:	05df0000 	ldrbeq	r0, [pc]	; 408c <_start-0x3f74>
    4088:	3a150000 	bcc	544090 <__bss_end__+0x53a068>
    408c:	15000004 	strne	r0, [r0, #-4]
    4090:	0000011b 	andeq	r0, r0, fp, lsl r1
    4094:	cb040d00 	blgt	10749c <__bss_end__+0xfd474>
    4098:	08000005 	stmdaeq	r0, {r0, r2}
    409c:	0000005a 	andeq	r0, r0, sl, asr r0
    40a0:	000005f5 	strdeq	r0, [r0], -r5
    40a4:	0000dd09 	andeq	sp, r0, r9, lsl #26
    40a8:	08000200 	stmdaeq	r0, {r9}
    40ac:	0000005a 	andeq	r0, r0, sl, asr r0
    40b0:	00000605 	andeq	r0, r0, r5, lsl #12
    40b4:	0000dd09 	andeq	sp, r0, r9, lsl #26
    40b8:	05000000 	streq	r0, [r0, #-0]
    40bc:	00000335 	andeq	r0, r0, r5, lsr r3
    40c0:	f2011d06 	vadd.f32	d1, d1, d6
    40c4:	19000002 	stmdbne	r0, {r1}
    40c8:	000004b0 			; <UNDEFINED> instruction: 0x000004b0
    40cc:	0121060c 			; <UNDEFINED> instruction: 0x0121060c
    40d0:	00000646 	andeq	r0, r0, r6, asr #12
    40d4:	00035d17 	andeq	r5, r3, r7, lsl sp
    40d8:	01230600 			; <UNDEFINED> instruction: 0x01230600
    40dc:	00000646 	andeq	r0, r0, r6, asr #12
    40e0:	021e1700 	andseq	r1, lr, #0, 14
    40e4:	24060000 	strcs	r0, [r6], #-0
    40e8:	00002501 	andeq	r2, r0, r1, lsl #10
    40ec:	2f170400 	svccs	0x00170400
    40f0:	06000003 	streq	r0, [r0], -r3
    40f4:	064c0125 	strbeq	r0, [ip], -r5, lsr #2
    40f8:	00080000 	andeq	r0, r8, r0
    40fc:	0611040d 	ldreq	r0, [r1], -sp, lsl #8
    4100:	040d0000 	streq	r0, [sp], #-0
    4104:	00000605 	andeq	r0, r0, r5, lsl #12
    4108:	00002119 	andeq	r2, r0, r9, lsl r1
    410c:	3d060e00 	stccc	14, cr0, [r6, #-0]
    4110:	00068701 	andeq	r8, r6, r1, lsl #14
    4114:	03a31700 			; <UNDEFINED> instruction: 0x03a31700
    4118:	3e060000 	cdpcc	0, 0, cr0, cr6, cr0, {0}
    411c:	00068701 	andeq	r8, r6, r1, lsl #14
    4120:	d0170000 	andsle	r0, r7, r0
    4124:	06000003 	streq	r0, [r0], -r3
    4128:	0687013f 			; <UNDEFINED> instruction: 0x0687013f
    412c:	17060000 	strne	r0, [r6, -r0]
    4130:	0000044e 	andeq	r0, r0, lr, asr #8
    4134:	61014006 	tstvs	r1, r6
    4138:	0c000000 	stceq	0, cr0, [r0], {-0}
    413c:	00610800 	rsbeq	r0, r1, r0, lsl #16
    4140:	06970000 	ldreq	r0, [r7], r0
    4144:	dd090000 	stcle	0, cr0, [r9, #-0]
    4148:	02000000 	andeq	r0, r0, #0
    414c:	06d01a00 	ldrbeq	r1, [r0], r0, lsl #20
    4150:	07980257 			; <UNDEFINED> instruction: 0x07980257
    4154:	94170000 	ldrls	r0, [r7], #-0
    4158:	06000004 	streq	r0, [r0], -r4
    415c:	002c0259 	eoreq	r0, ip, r9, asr r2
    4160:	17000000 	strne	r0, [r0, -r0]
    4164:	00000438 	andeq	r0, r0, r8, lsr r4
    4168:	1d025a06 	vstrne	s10, [r2, #-24]	; 0xffffffe8
    416c:	04000001 	streq	r0, [r0], #-1
    4170:	00025b17 	andeq	r5, r2, r7, lsl fp
    4174:	025b0600 	subseq	r0, fp, #0, 12
    4178:	00000798 	muleq	r0, r8, r7
    417c:	04f41708 	ldrbteq	r1, [r4], #1800	; 0x708
    4180:	5c060000 	stcpl	0, cr0, [r6], {-0}
    4184:	0001a302 	andeq	sl, r1, r2, lsl #6
    4188:	bb172400 	bllt	5cd190 <__bss_end__+0x5c3168>
    418c:	06000001 	streq	r0, [r0], -r1
    4190:	0025025d 	eoreq	r0, r5, sp, asr r2
    4194:	17480000 	strbne	r0, [r8, -r0]
    4198:	00000358 	andeq	r0, r0, r8, asr r3
    419c:	7a025e06 	bvc	9b9bc <__bss_end__+0x91994>
    41a0:	50000000 	andpl	r0, r0, r0
    41a4:	00050a17 	andeq	r0, r5, r7, lsl sl
    41a8:	025f0600 	subseq	r0, pc, #0, 12
    41ac:	00000652 	andeq	r0, r0, r2, asr r6
    41b0:	03631758 	cmneq	r3, #88, 14	; 0x1600000
    41b4:	60060000 	andvs	r0, r6, r0
    41b8:	00010502 	andeq	r0, r1, r2, lsl #10
    41bc:	0f176800 	svceq	0x00176800
    41c0:	06000005 	streq	r0, [r0], -r5
    41c4:	01050261 	tsteq	r5, r1, ror #4
    41c8:	17700000 	ldrbne	r0, [r0, -r0]!
    41cc:	00000093 	muleq	r0, r3, r0
    41d0:	05026206 	streq	r6, [r2, #-518]	; 0xfffffdfa
    41d4:	78000001 	stmdavc	r0, {r0}
    41d8:	0004bf17 	andeq	fp, r4, r7, lsl pc
    41dc:	02630600 	rsbeq	r0, r3, #0, 12
    41e0:	000007a8 	andeq	r0, r0, r8, lsr #15
    41e4:	024f1780 	subeq	r1, pc, #128, 14	; 0x2000000
    41e8:	64060000 	strvs	r0, [r6], #-0
    41ec:	0007b802 	andeq	fp, r7, r2, lsl #16
    41f0:	5b178800 	blpl	5e61f8 <__bss_end__+0x5dc1d0>
    41f4:	06000004 	streq	r0, [r0], -r4
    41f8:	00250265 	eoreq	r0, r5, r5, ror #4
    41fc:	17a00000 	strne	r0, [r0, r0]!
    4200:	00000181 	andeq	r0, r0, r1, lsl #3
    4204:	05026606 	streq	r6, [r2, #-1542]	; 0xfffff9fa
    4208:	a4000001 	strge	r0, [r0], #-1
    420c:	00008417 	andeq	r8, r0, r7, lsl r4
    4210:	02670600 	rsbeq	r0, r7, #0, 12
    4214:	00000105 	andeq	r0, r0, r5, lsl #2
    4218:	017017ac 	cmneq	r0, ip, lsr #15
    421c:	68060000 	stmdavs	r6, {}	; <UNPREDICTABLE>
    4220:	00010502 	andeq	r0, r1, r2, lsl #10
    4224:	3c17b400 	cfldrscc	mvf11, [r7], {-0}
    4228:	06000000 	streq	r0, [r0], -r0
    422c:	01050269 	tsteq	r5, r9, ror #4
    4230:	17bc0000 	ldrne	r0, [ip, r0]!
    4234:	0000004b 	andeq	r0, r0, fp, asr #32
    4238:	05026a06 	streq	r6, [r2, #-2566]	; 0xfffff5fa
    423c:	c4000001 	strgt	r0, [r0], #-1
    4240:	00030b17 	andeq	r0, r3, r7, lsl fp
    4244:	026b0600 	rsbeq	r0, fp, #0, 12
    4248:	00000025 	andeq	r0, r0, r5, lsr #32
    424c:	230800cc 	movwcs	r0, #32972	; 0x80cc
    4250:	a8000001 	stmdage	r0, {r0}
    4254:	09000007 	stmdbeq	r0, {r0, r1, r2}
    4258:	000000dd 	ldrdeq	r0, [r0], -sp
    425c:	23080019 	movwcs	r0, #32793	; 0x8019
    4260:	b8000001 	stmdalt	r0, {r0}
    4264:	09000007 	stmdbeq	r0, {r0, r1, r2}
    4268:	000000dd 	ldrdeq	r0, [r0], -sp
    426c:	23080007 	movwcs	r0, #32775	; 0x8007
    4270:	c8000001 	stmdagt	r0, {r0}
    4274:	09000007 	stmdbeq	r0, {r0, r1, r2}
    4278:	000000dd 	ldrdeq	r0, [r0], -sp
    427c:	f01a0017 			; <UNDEFINED> instruction: 0xf01a0017
    4280:	ec027006 	stc	0, cr7, [r2], {6}
    4284:	17000007 	strne	r0, [r0, -r7]
    4288:	000002b2 			; <UNDEFINED> instruction: 0x000002b2
    428c:	ec027306 	stc	3, cr7, [r2], {6}
    4290:	00000007 	andeq	r0, r0, r7
    4294:	0004b617 	andeq	fp, r4, r7, lsl r6
    4298:	02740600 	rsbseq	r0, r4, #0, 12
    429c:	000007fc 	strdeq	r0, [r0], -ip
    42a0:	ec080078 	stc	0, cr0, [r8], {120}	; 0x78
    42a4:	fc000002 	stc2	0, cr0, [r0], {2}
    42a8:	09000007 	stmdbeq	r0, {r0, r1, r2}
    42ac:	000000dd 	ldrdeq	r0, [r0], -sp
    42b0:	2c08001d 	stccs	0, cr0, [r8], {29}
    42b4:	0c000000 	stceq	0, cr0, [r0], {-0}
    42b8:	09000008 	stmdbeq	r0, {r3}
    42bc:	000000dd 	ldrdeq	r0, [r0], -sp
    42c0:	f01b001d 			; <UNDEFINED> instruction: 0xf01b001d
    42c4:	2e025506 	cfsh32cs	mvfx5, mvfx2, #6
    42c8:	1c000008 	stcne	0, cr0, [r0], {8}
    42cc:	0000039c 	muleq	r0, ip, r3
    42d0:	97026c06 	strls	r6, [r2, -r6, lsl #24]
    42d4:	1c000006 	stcne	0, cr0, [r0], {6}
    42d8:	000004e1 	andeq	r0, r0, r1, ror #9
    42dc:	c8027506 	stmdagt	r2, {r1, r2, r8, sl, ip, sp, lr}
    42e0:	00000007 	andeq	r0, r0, r7
    42e4:	00012308 	andeq	r2, r1, r8, lsl #6
    42e8:	00083e00 	andeq	r3, r8, r0, lsl #28
    42ec:	00dd0900 	sbcseq	r0, sp, r0, lsl #18
    42f0:	00180000 	andseq	r0, r8, r0
    42f4:	0008491d 	andeq	r4, r8, sp, lsl r9
    42f8:	043a1500 	ldrteq	r1, [sl], #-1280	; 0xfffffb00
    42fc:	0d000000 	stceq	0, cr0, [r0, #-0]
    4300:	00083e04 	andeq	r3, r8, r4, lsl #28
    4304:	8d040d00 	stchi	13, cr0, [r4, #-0]
    4308:	1d000001 	stcne	0, cr0, [r0, #-4]
    430c:	00000860 	andeq	r0, r0, r0, ror #16
    4310:	00002515 	andeq	r2, r0, r5, lsl r5
    4314:	040d0000 	streq	r0, [sp], #-0
    4318:	00000866 	andeq	r0, r0, r6, ror #16
    431c:	0855040d 	ldmdaeq	r5, {r0, r2, r3, sl}^
    4320:	05080000 	streq	r0, [r8, #-0]
    4324:	7c000006 	stcvc	0, cr0, [r0], {6}
    4328:	09000008 	stmdbeq	r0, {r3}
    432c:	000000dd 	ldrdeq	r0, [r0], -sp
    4330:	6f1e0002 	svcvs	0x001e0002
    4334:	06000004 	streq	r0, [r0], -r4
    4338:	043a02fd 	ldrteq	r0, [sl], #-765	; 0xfffffd03
    433c:	681e0000 	ldmdavs	lr, {}	; <UNPREDICTABLE>
    4340:	06000004 	streq	r0, [r0], -r4
    4344:	044002fe 	strbeq	r0, [r0], #-766	; 0xfffffd02
    4348:	25140000 	ldrcs	r0, [r4, #-0]
    434c:	a3000000 	movwge	r0, #0
    4350:	15000008 	strne	r0, [r0, #-8]
    4354:	00000025 	andeq	r0, r0, r5, lsr #32
    4358:	01d41f00 	bicseq	r1, r4, r0, lsl #30
    435c:	1d070000 	stcne	0, cr0, [r7, #-0]
    4360:	000008ae 	andeq	r0, r0, lr, lsr #17
    4364:	0894040d 	ldmeq	r4, {r0, r2, r3, sl}
    4368:	25140000 	ldrcs	r0, [r4, #-0]
    436c:	c3000000 	movwgt	r0, #0
    4370:	15000008 	strne	r0, [r0, #-8]
    4374:	0000059b 	muleq	r0, fp, r5
    4378:	07691f00 	strbeq	r1, [r9, -r0, lsl #30]!
    437c:	22070000 	andcs	r0, r7, #0
    4380:	000008ce 	andeq	r0, r0, lr, asr #17
    4384:	08b4040d 	ldmeq	r4!, {r0, r2, r3, sl}
    4388:	40200000 	eormi	r0, r0, r0
    438c:	01000005 	tsteq	r0, r5
    4390:	0000680f 	andeq	r6, r0, pc, lsl #16
    4394:	008ef800 	addeq	pc, lr, r0, lsl #16
    4398:	0000e800 	andeq	lr, r0, r0, lsl #16
    439c:	489c0100 	ldmmi	ip, {r8}
    43a0:	21000009 	tstcs	r0, r9
    43a4:	00000a19 	andeq	r0, r0, r9, lsl sl
    43a8:	09480f01 	stmdbeq	r8, {r0, r8, r9, sl, fp}^
    43ac:	0dc50000 	stcleq	0, cr0, [r5]
    43b0:	6c220000 	stcvs	0, cr0, [r2], #-0
    43b4:	01006e65 	tsteq	r0, r5, ror #28
    43b8:	0000250f 	andeq	r2, r0, pc, lsl #10
    43bc:	000dff00 	andeq	pc, sp, r0, lsl #30
    43c0:	0a1a2300 	beq	68cfc8 <__bss_end__+0x682fa0>
    43c4:	10010000 	andne	r0, r1, r0
    43c8:	0000059b 	muleq	r0, fp, r5
    43cc:	00000e3e 	andeq	r0, r0, lr, lsr lr
    43d0:	00054523 	andeq	r4, r5, r3, lsr #10
    43d4:	68110100 	ldmdavs	r1, {r8}
    43d8:	6a000000 	bvs	43e0 <_start-0x3c20>
    43dc:	2400000e 	strcs	r0, [r0], #-14
    43e0:	00706d74 	rsbseq	r6, r0, r4, ror sp
    43e4:	00681101 	rsbeq	r1, r8, r1, lsl #2
    43e8:	0ebf0000 	cdpeq	0, 11, cr0, cr15, cr0, {0}
    43ec:	72240000 	eorvc	r0, r4, #0
    43f0:	01006d65 	tsteq	r0, r5, ror #26
    43f4:	00002512 	andeq	r2, r0, r2, lsl r5
    43f8:	000f0a00 	andeq	r0, pc, r0, lsl #20
    43fc:	040d0000 	streq	r0, [sp], #-0
    4400:	0000094e 	andeq	r0, r0, lr, asr #18
    4404:	08eb0025 	stmiaeq	fp!, {r0, r2, r5}^
    4408:	00040000 	andeq	r0, r4, r0
    440c:	00000bd7 	ldrdeq	r0, [r0], -r7
    4410:	03d60104 	bicseq	r0, r6, #4, 2
    4414:	6e0c0000 	cdpvs	0, 0, cr0, cr12, cr0, {0}
    4418:	de000007 	cdple	0, 0, cr0, cr0, cr7, {0}
    441c:	e0000006 	and	r0, r0, r6
    4420:	3400008f 	strcc	r0, [r0], #-143	; 0xffffff71
    4424:	72000000 	andvc	r0, r0, #0
    4428:	02000007 	andeq	r0, r0, #7
    442c:	6e690504 	cdpvs	5, 6, cr0, cr9, cr4, {0}
    4430:	04030074 	streq	r0, [r3], #-116	; 0xffffff8c
    4434:	00006607 	andeq	r6, r0, r7, lsl #12
    4438:	06010300 	streq	r0, [r1], -r0, lsl #6
    443c:	000002fa 	strdeq	r0, [r0], -sl
    4440:	14050203 	strne	r0, [r5], #-515	; 0xfffffdfd
    4444:	03000003 	movweq	r0, #3
    4448:	00af0504 	adceq	r0, pc, r4, lsl #10
    444c:	08030000 	stmdaeq	r3, {}	; <UNPREDICTABLE>
    4450:	0000aa05 	andeq	sl, r0, r5, lsl #20
    4454:	08010300 	stmdaeq	r1, {r8, r9}
    4458:	000002f8 	strdeq	r0, [r0], -r8
    445c:	25070203 	strcs	r0, [r7, #-515]	; 0xfffffdfd
    4460:	03000002 	movweq	r0, #2
    4464:	00610704 	rsbeq	r0, r1, r4, lsl #14
    4468:	08030000 	stmdaeq	r3, {}	; <UNPREDICTABLE>
    446c:	00005c07 	andeq	r5, r0, r7, lsl #24
    4470:	02e60400 	rsceq	r0, r6, #0, 8
    4474:	07020000 	streq	r0, [r2, -r0]
    4478:	00000025 	andeq	r0, r0, r5, lsr #32
    447c:	0002d504 	andeq	sp, r2, r4, lsl #10
    4480:	412c0300 			; <UNDEFINED> instruction: 0x412c0300
    4484:	04000000 	streq	r0, [r0], #-0
    4488:	000003bf 			; <UNDEFINED> instruction: 0x000003bf
    448c:	00417203 	subeq	r7, r1, r3, lsl #4
    4490:	76050000 	strvc	r0, [r5], -r0
    4494:	04000002 	streq	r0, [r0], #-2
    4498:	002c0165 	eoreq	r0, ip, r5, ror #2
    449c:	04060000 	streq	r0, [r6], #-0
    44a0:	00b7a603 	adcseq	sl, r7, r3, lsl #12
    44a4:	70070000 	andvc	r0, r7, r0
    44a8:	03000002 	movweq	r0, #2
    44ac:	00008ca8 	andeq	r8, r0, r8, lsr #25
    44b0:	01e50700 	mvneq	r0, r0, lsl #14
    44b4:	a9030000 	stmdbge	r3, {}	; <UNPREDICTABLE>
    44b8:	000000b7 	strheq	r0, [r0], -r7
    44bc:	004f0800 	subeq	r0, pc, r0, lsl #16
    44c0:	00c70000 	sbceq	r0, r7, r0
    44c4:	c7090000 	strgt	r0, [r9, -r0]
    44c8:	03000000 	movweq	r0, #0
    44cc:	07040300 	streq	r0, [r4, -r0, lsl #6]
    44d0:	000002a9 	andeq	r0, r0, r9, lsr #5
    44d4:	a303080a 	movwge	r0, #14346	; 0x380a
    44d8:	000000ef 	andeq	r0, r0, pc, ror #1
    44dc:	0003a90b 	andeq	sl, r3, fp, lsl #18
    44e0:	25a50300 	strcs	r0, [r5, #768]!	; 0x300
    44e4:	00000000 	andeq	r0, r0, r0
    44e8:	0003b10b 	andeq	fp, r3, fp, lsl #2
    44ec:	98aa0300 	stmials	sl!, {r8, r9}
    44f0:	04000000 	streq	r0, [r0], #-0
    44f4:	033c0400 	teqeq	ip, #0, 8
    44f8:	ab030000 	blge	c4500 <__bss_end__+0xba4d8>
    44fc:	000000ce 	andeq	r0, r0, lr, asr #1
    4500:	0001a204 	andeq	sl, r1, r4, lsl #4
    4504:	6baf0300 	blvs	febc510c <__bss_end__+0xfebbb0e4>
    4508:	0c000000 	stceq	0, cr0, [r0], {-0}
    450c:	0d040d04 	stceq	13, cr0, [r4, #-16]
    4510:	03000001 	movweq	r0, #1
    4514:	03010801 	movweq	r0, #6145	; 0x1801
    4518:	0d0e0000 	stceq	0, cr0, [lr, #-0]
    451c:	04000001 	streq	r0, [r0], #-1
    4520:	00000453 	andeq	r0, r0, r3, asr r4
    4524:	005d1605 	subseq	r1, sp, r5, lsl #12
    4528:	b30f0000 	movwlt	r0, #61440	; 0xf000
    452c:	18000001 	stmdane	r0, {r0}
    4530:	01772d05 	cmneq	r7, r5, lsl #26
    4534:	5d0b0000 	stcpl	0, cr0, [fp, #-0]
    4538:	05000003 	streq	r0, [r0, #-3]
    453c:	0001772f 	andeq	r7, r1, pc, lsr #14
    4540:	5f100000 	svcpl	0x00100000
    4544:	3005006b 	andcc	r0, r5, fp, rrx
    4548:	00000025 	andeq	r0, r0, r5, lsr #32
    454c:	03940b04 	orrseq	r0, r4, #4, 22	; 0x1000
    4550:	30050000 	andcc	r0, r5, r0
    4554:	00000025 	andeq	r0, r0, r5, lsr #32
    4558:	019c0b08 	orrseq	r0, ip, r8, lsl #22
    455c:	30050000 	andcc	r0, r5, r0
    4560:	00000025 	andeq	r0, r0, r5, lsr #32
    4564:	04a10b0c 	strteq	r0, [r1], #2828	; 0xb0c
    4568:	30050000 	andcc	r0, r5, r0
    456c:	00000025 	andeq	r0, r0, r5, lsr #32
    4570:	785f1010 	ldmdavc	pc, {r4, ip}^	; <UNPREDICTABLE>
    4574:	7d310500 	cfldr32vc	mvfx0, [r1, #-0]
    4578:	14000001 	strne	r0, [r0], #-1
    457c:	24040d00 	strcs	r0, [r4], #-3328	; 0xfffff300
    4580:	08000001 	stmdaeq	r0, {r0}
    4584:	00000119 	andeq	r0, r0, r9, lsl r1
    4588:	0000018d 	andeq	r0, r0, sp, lsl #3
    458c:	0000c709 	andeq	ip, r0, r9, lsl #14
    4590:	0f000000 	svceq	0x00000000
    4594:	000001e0 	andeq	r0, r0, r0, ror #3
    4598:	06350524 	ldrteq	r0, [r5], -r4, lsr #10
    459c:	0b000002 	bleq	45ac <_start-0x3a54>
    45a0:	000000a1 	andeq	r0, r0, r1, lsr #1
    45a4:	00253705 	eoreq	r3, r5, r5, lsl #14
    45a8:	0b000000 	bleq	45b0 <_start-0x3a50>
    45ac:	000003c7 	andeq	r0, r0, r7, asr #7
    45b0:	00253805 	eoreq	r3, r5, r5, lsl #16
    45b4:	0b040000 	bleq	1045bc <__bss_end__+0xfa594>
    45b8:	000000c4 	andeq	r0, r0, r4, asr #1
    45bc:	00253905 	eoreq	r3, r5, r5, lsl #18
    45c0:	0b080000 	bleq	2045c8 <__bss_end__+0x1fa5a0>
    45c4:	00000522 	andeq	r0, r0, r2, lsr #10
    45c8:	00253a05 	eoreq	r3, r5, r5, lsl #20
    45cc:	0b0c0000 	bleq	3045d4 <__bss_end__+0x2fa5ac>
    45d0:	000002b9 			; <UNDEFINED> instruction: 0x000002b9
    45d4:	00253b05 	eoreq	r3, r5, r5, lsl #22
    45d8:	0b100000 	bleq	4045e0 <__bss_end__+0x3fa5b8>
    45dc:	00000292 	muleq	r0, r2, r2
    45e0:	00253c05 	eoreq	r3, r5, r5, lsl #24
    45e4:	0b140000 	bleq	5045ec <__bss_end__+0x4fa5c4>
    45e8:	000004a6 	andeq	r0, r0, r6, lsr #9
    45ec:	00253d05 	eoreq	r3, r5, r5, lsl #26
    45f0:	0b180000 	bleq	6045f8 <__bss_end__+0x5fa5d0>
    45f4:	0000031e 	andeq	r0, r0, lr, lsl r3
    45f8:	00253e05 	eoreq	r3, r5, r5, lsl #28
    45fc:	0b1c0000 	bleq	704604 <__bss_end__+0x6fa5dc>
    4600:	000004e9 	andeq	r0, r0, r9, ror #9
    4604:	00253f05 	eoreq	r3, r5, r5, lsl #30
    4608:	00200000 	eoreq	r0, r0, r0
    460c:	00010411 	andeq	r0, r1, r1, lsl r4
    4610:	05010800 	streq	r0, [r1, #-2048]	; 0xfffff800
    4614:	00024648 	andeq	r4, r2, r8, asr #12
    4618:	018f0b00 	orreq	r0, pc, r0, lsl #22
    461c:	49050000 	stmdbmi	r5, {}	; <UNPREDICTABLE>
    4620:	00000246 	andeq	r0, r0, r6, asr #4
    4624:	00000b00 	andeq	r0, r0, r0, lsl #22
    4628:	4a050000 	bmi	144630 <__bss_end__+0x13a608>
    462c:	00000246 	andeq	r0, r0, r6, asr #4
    4630:	04451280 	strbeq	r1, [r5], #-640	; 0xfffffd80
    4634:	4c050000 	stcmi	0, cr0, [r5], {-0}
    4638:	00000119 	andeq	r0, r0, r9, lsl r1
    463c:	29120100 	ldmdbcs	r2, {r8}
    4640:	05000001 	streq	r0, [r0, #-1]
    4644:	0001194f 	andeq	r1, r1, pc, asr #18
    4648:	00010400 	andeq	r0, r1, r0, lsl #8
    464c:	00010508 	andeq	r0, r1, r8, lsl #10
    4650:	00025600 	andeq	r5, r2, r0, lsl #12
    4654:	00c70900 	sbceq	r0, r7, r0, lsl #18
    4658:	001f0000 	andseq	r0, pc, r0
    465c:	0002c211 	andeq	ip, r2, r1, lsl r2
    4660:	05019000 	streq	r9, [r1, #-0]
    4664:	0002945b 	andeq	r9, r2, fp, asr r4
    4668:	035d0b00 	cmpeq	sp, #0, 22
    466c:	5c050000 	stcpl	0, cr0, [r5], {-0}
    4670:	00000294 	muleq	r0, r4, r2
    4674:	03750b00 	cmneq	r5, #0, 22
    4678:	5d050000 	stcpl	0, cr0, [r5, #-0]
    467c:	00000025 	andeq	r0, r0, r5, lsr #32
    4680:	01970b04 	orrseq	r0, r7, r4, lsl #22
    4684:	5f050000 	svcpl	0x00050000
    4688:	0000029a 	muleq	r0, sl, r2
    468c:	01040b08 	tsteq	r4, r8, lsl #22
    4690:	60050000 	andvs	r0, r5, r0
    4694:	00000206 	andeq	r0, r0, r6, lsl #4
    4698:	040d0088 	streq	r0, [sp], #-136	; 0xffffff78
    469c:	00000256 	andeq	r0, r0, r6, asr r2
    46a0:	0002aa08 	andeq	sl, r2, r8, lsl #20
    46a4:	0002aa00 	andeq	sl, r2, r0, lsl #20
    46a8:	00c70900 	sbceq	r0, r7, r0, lsl #18
    46ac:	001f0000 	andseq	r0, pc, r0
    46b0:	02b0040d 	adcseq	r0, r0, #218103808	; 0xd000000
    46b4:	0f130000 	svceq	0x00130000
    46b8:	00000328 	andeq	r0, r0, r8, lsr #6
    46bc:	d6730508 	ldrbtle	r0, [r3], -r8, lsl #10
    46c0:	0b000002 	bleq	46d0 <_start-0x3930>
    46c4:	000000be 	strheq	r0, [r0], -lr
    46c8:	02d67405 	sbcseq	r7, r6, #83886080	; 0x5000000
    46cc:	0b000000 	bleq	46d4 <_start-0x392c>
    46d0:	0000001b 	andeq	r0, r0, fp, lsl r0
    46d4:	00257505 	eoreq	r7, r5, r5, lsl #10
    46d8:	00040000 	andeq	r0, r4, r0
    46dc:	004f040d 	subeq	r0, pc, sp, lsl #8
    46e0:	470f0000 	strmi	r0, [pc, -r0]
    46e4:	68000003 	stmdavs	r0, {r0, r1}
    46e8:	0406b305 	streq	fp, [r6], #-773	; 0xfffffcfb
    46ec:	5f100000 	svcpl	0x00100000
    46f0:	b4050070 	strlt	r0, [r5], #-112	; 0xffffff90
    46f4:	000002d6 	ldrdeq	r0, [r0], -r6
    46f8:	725f1000 	subsvc	r1, pc, #0
    46fc:	25b50500 	ldrcs	r0, [r5, #1280]!	; 0x500
    4700:	04000000 	streq	r0, [r0], #-0
    4704:	00775f10 	rsbseq	r5, r7, r0, lsl pc
    4708:	0025b605 	eoreq	fp, r5, r5, lsl #12
    470c:	0b080000 	bleq	204714 <__bss_end__+0x1fa6ec>
    4710:	00000122 	andeq	r0, r0, r2, lsr #2
    4714:	003ab705 	eorseq	fp, sl, r5, lsl #14
    4718:	0b0c0000 	bleq	304720 <__bss_end__+0x2fa6f8>
    471c:	0000020b 	andeq	r0, r0, fp, lsl #4
    4720:	003ab805 	eorseq	fp, sl, r5, lsl #16
    4724:	100e0000 	andne	r0, lr, r0
    4728:	0066625f 	rsbeq	r6, r6, pc, asr r2
    472c:	02b1b905 	adcseq	fp, r1, #81920	; 0x14000
    4730:	0b100000 	bleq	404738 <__bss_end__+0x3fa710>
    4734:	0000007b 	andeq	r0, r0, fp, ror r0
    4738:	0025ba05 	eoreq	fp, r5, r5, lsl #20
    473c:	0b180000 	bleq	604744 <__bss_end__+0x5fa71c>
    4740:	00000112 	andeq	r0, r0, r2, lsl r1
    4744:	0105c105 	tsteq	r5, r5, lsl #2
    4748:	0b1c0000 	bleq	704750 <__bss_end__+0x6fa728>
    474c:	00000a78 	andeq	r0, r0, r8, ror sl
    4750:	0561c305 	strbeq	ip, [r1, #-773]!	; 0xfffffcfb
    4754:	0b200000 	bleq	80475c <__bss_end__+0x7fa734>
    4758:	0000060c 	andeq	r0, r0, ip, lsl #12
    475c:	058bc505 	streq	ip, [fp, #1285]	; 0x505
    4760:	0b240000 	bleq	904768 <__bss_end__+0x8fa740>
    4764:	000003b9 			; <UNDEFINED> instruction: 0x000003b9
    4768:	05afc805 	streq	ip, [pc, #2053]!	; 4f75 <_start-0x308b>
    476c:	0b280000 	bleq	a04774 <__bss_end__+0x9fa74c>
    4770:	00000503 	andeq	r0, r0, r3, lsl #10
    4774:	05c9c905 	strbeq	ip, [r9, #2309]	; 0x905
    4778:	102c0000 	eorne	r0, ip, r0
    477c:	0062755f 	rsbeq	r7, r2, pc, asr r5
    4780:	02b1cc05 	adcseq	ip, r1, #1280	; 0x500
    4784:	10300000 	eorsne	r0, r0, r0
    4788:	0070755f 	rsbseq	r7, r0, pc, asr r5
    478c:	02d6cd05 	sbcseq	ip, r6, #320	; 0x140
    4790:	10380000 	eorsne	r0, r8, r0
    4794:	0072755f 	rsbseq	r7, r2, pc, asr r5
    4798:	0025ce05 	eoreq	ip, r5, r5, lsl #28
    479c:	0b3c0000 	bleq	f047a4 <__bss_end__+0xefa77c>
    47a0:	000000b8 	strheq	r0, [r0], -r8
    47a4:	05cfd105 	strbeq	sp, [pc, #261]	; 48b1 <_start-0x374f>
    47a8:	0b400000 	bleq	10047b0 <__bss_end__+0xffa788>
    47ac:	000004db 	ldrdeq	r0, [r0], -fp
    47b0:	05dfd205 	ldrbeq	sp, [pc, #517]	; 49bd <_start-0x3643>
    47b4:	10430000 	subne	r0, r3, r0
    47b8:	00626c5f 	rsbeq	r6, r2, pc, asr ip
    47bc:	02b1d505 	adcseq	sp, r1, #20971520	; 0x1400000
    47c0:	0b440000 	bleq	11047c8 <__bss_end__+0x10fa7a0>
    47c4:	00000140 	andeq	r0, r0, r0, asr #2
    47c8:	0025d805 	eoreq	sp, r5, r5, lsl #16
    47cc:	0b4c0000 	bleq	13047d4 <__bss_end__+0x12fa7ac>
    47d0:	00000151 	andeq	r0, r0, r1, asr r1
    47d4:	0076d905 	rsbseq	sp, r6, r5, lsl #18
    47d8:	0b500000 	bleq	14047e0 <__bss_end__+0x13fa7b8>
    47dc:	00000a19 	andeq	r0, r0, r9, lsl sl
    47e0:	0424dc05 	strteq	sp, [r4], #-3077	; 0xfffff3fb
    47e4:	0b540000 	bleq	15047ec <__bss_end__+0x14fa7c4>
    47e8:	00000284 	andeq	r0, r0, r4, lsl #5
    47ec:	00fae005 	rscseq	lr, sl, r5
    47f0:	0b580000 	bleq	16047f8 <__bss_end__+0x15fa7d0>
    47f4:	0000034f 	andeq	r0, r0, pc, asr #6
    47f8:	00efe205 	rsceq	lr, pc, r5, lsl #4
    47fc:	0b5c0000 	bleq	1704804 <__bss_end__+0x16fa7dc>
    4800:	0000028a 	andeq	r0, r0, sl, lsl #5
    4804:	0025e305 	eoreq	lr, r5, r5, lsl #6
    4808:	00640000 	rsbeq	r0, r4, r0
    480c:	00002514 	andeq	r2, r0, r4, lsl r5
    4810:	00042400 	andeq	r2, r4, r0, lsl #8
    4814:	04241500 	strteq	r1, [r4], #-1280	; 0xfffffb00
    4818:	05150000 	ldreq	r0, [r5, #-0]
    481c:	15000001 	strne	r0, [r0, #-1]
    4820:	00000107 	andeq	r0, r0, r7, lsl #2
    4824:	00002515 	andeq	r2, r0, r5, lsl r5
    4828:	040d0000 	streq	r0, [sp], #-0
    482c:	0000042f 	andeq	r0, r0, pc, lsr #8
    4830:	0004240e 	andeq	r2, r4, lr, lsl #8
    4834:	039c1600 	orrseq	r1, ip, #0, 12
    4838:	04280000 	strteq	r0, [r8], #-0
    483c:	61023805 	tstvs	r2, r5, lsl #16
    4840:	17000005 	strne	r0, [r0, -r5]
    4844:	0000030d 	andeq	r0, r0, sp, lsl #6
    4848:	25023a05 	strcs	r3, [r2, #-2565]	; 0xfffff5fb
    484c:	00000000 	andeq	r0, r0, r0
    4850:	00013117 	andeq	r3, r1, r7, lsl r1
    4854:	023f0500 	eorseq	r0, pc, #0, 10
    4858:	00000636 	andeq	r0, r0, r6, lsr r6
    485c:	01fb1704 	mvnseq	r1, r4, lsl #14
    4860:	3f050000 	svccc	0x00050000
    4864:	00063602 	andeq	r3, r6, r2, lsl #12
    4868:	ab170800 	blge	5c6870 <__bss_end__+0x5bc848>
    486c:	05000001 	streq	r0, [r0, #-1]
    4870:	0636023f 			; <UNDEFINED> instruction: 0x0636023f
    4874:	170c0000 	strne	r0, [ip, -r0]
    4878:	00000370 	andeq	r0, r0, r0, ror r3
    487c:	25024105 	strcs	r4, [r2, #-261]	; 0xfffffefb
    4880:	10000000 	andne	r0, r0, r0
    4884:	00002917 	andeq	r2, r0, r7, lsl r9
    4888:	02420500 	subeq	r0, r2, #0, 10
    488c:	00000818 	andeq	r0, r0, r8, lsl r8
    4890:	047b1714 	ldrbteq	r1, [fp], #-1812	; 0xfffff8ec
    4894:	44050000 	strmi	r0, [r5], #-0
    4898:	00002502 	andeq	r2, r0, r2, lsl #10
    489c:	7a173000 	bvc	5d08a4 <__bss_end__+0x5c687c>
    48a0:	05000003 	streq	r0, [r0, #-3]
    48a4:	05850245 	streq	r0, [r5, #581]	; 0x245
    48a8:	17340000 	ldrne	r0, [r4, -r0]!
    48ac:	000002ca 	andeq	r0, r0, sl, asr #5
    48b0:	25024705 	strcs	r4, [r2, #-1797]	; 0xfffff8fb
    48b4:	38000000 	stmdacc	r0, {}	; <UNPREDICTABLE>
    48b8:	00038a17 	andeq	r8, r3, r7, lsl sl
    48bc:	02490500 	subeq	r0, r9, #0, 10
    48c0:	00000833 	andeq	r0, r0, r3, lsr r8
    48c4:	0268173c 	rsbeq	r1, r8, #60, 14	; 0xf00000
    48c8:	4c050000 	stcmi	0, cr0, [r5], {-0}
    48cc:	00017702 	andeq	r7, r1, r2, lsl #14
    48d0:	ca174000 	bgt	5d48d8 <__bss_end__+0x5ca8b0>
    48d4:	05000001 	streq	r0, [r0, #-1]
    48d8:	0025024d 	eoreq	r0, r5, sp, asr #4
    48dc:	17440000 	strbne	r0, [r4, -r0]
    48e0:	0000051d 	andeq	r0, r0, sp, lsl r5
    48e4:	77024e05 	strvc	r4, [r2, -r5, lsl #28]
    48e8:	48000001 	stmdami	r0, {r0}
    48ec:	0002dc17 	andeq	sp, r2, r7, lsl ip
    48f0:	024f0500 	subeq	r0, pc, #0, 10
    48f4:	00000839 	andeq	r0, r0, r9, lsr r8
    48f8:	0203174c 	andeq	r1, r3, #76, 14	; 0x1300000
    48fc:	52050000 	andpl	r0, r5, #0
    4900:	00002502 	andeq	r2, r0, r2, lsl #10
    4904:	49175000 	ldmdbmi	r7, {ip, lr}
    4908:	05000001 	streq	r0, [r0, #-1]
    490c:	01070253 	tsteq	r7, r3, asr r2
    4910:	17540000 	ldrbne	r0, [r4, -r0]
    4914:	00000306 	andeq	r0, r0, r6, lsl #6
    4918:	f6027605 			; <UNDEFINED> instruction: 0xf6027605
    491c:	58000007 	stmdapl	r0, {r0, r1, r2}
    4920:	0002c218 	andeq	ip, r2, r8, lsl r2
    4924:	027a0500 	rsbseq	r0, sl, #0, 10
    4928:	00000294 	muleq	r0, r4, r2
    492c:	46180148 	ldrmi	r0, [r8], -r8, asr #2
    4930:	05000002 	streq	r0, [r0, #-2]
    4934:	0256027b 	subseq	r0, r6, #-1342177273	; 0xb0000007
    4938:	014c0000 	mrseq	r0, (UNDEF: 76)
    493c:	0004c918 	andeq	ip, r4, r8, lsl r9
    4940:	027f0500 	rsbseq	r0, pc, #0, 10
    4944:	0000084a 	andeq	r0, r0, sl, asr #16
    4948:	1a1802dc 	bne	6054c0 <__bss_end__+0x5fb498>
    494c:	05000001 	streq	r0, [r0, #-1]
    4950:	05fb0284 	ldrbeq	r0, [fp, #644]!	; 0x284
    4954:	02e00000 	rsceq	r0, r0, #0
    4958:	0000ff18 	andeq	pc, r0, r8, lsl pc	; <UNPREDICTABLE>
    495c:	02850500 	addeq	r0, r5, #0, 10
    4960:	00000856 	andeq	r0, r0, r6, asr r8
    4964:	0d0002ec 	sfmeq	f0, 4, [r0, #-944]	; 0xfffffc50
    4968:	00040604 	andeq	r0, r4, r4, lsl #12
    496c:	00251400 	eoreq	r1, r5, r0, lsl #8
    4970:	05850000 	streq	r0, [r5]
    4974:	24150000 	ldrcs	r0, [r5], #-0
    4978:	15000004 	strne	r0, [r0, #-4]
    497c:	00000105 	andeq	r0, r0, r5, lsl #2
    4980:	00058515 	andeq	r8, r5, r5, lsl r5
    4984:	00251500 	eoreq	r1, r5, r0, lsl #10
    4988:	0d000000 	stceq	0, cr0, [r0, #-0]
    498c:	00011404 	andeq	r1, r1, r4, lsl #8
    4990:	67040d00 	strvs	r0, [r4, -r0, lsl #26]
    4994:	14000005 	strne	r0, [r0], #-5
    4998:	00000081 	andeq	r0, r0, r1, lsl #1
    499c:	000005af 	andeq	r0, r0, pc, lsr #11
    49a0:	00042415 	andeq	r2, r4, r5, lsl r4
    49a4:	01051500 	tsteq	r5, r0, lsl #10
    49a8:	81150000 	tsthi	r5, r0
    49ac:	15000000 	strne	r0, [r0, #-0]
    49b0:	00000025 	andeq	r0, r0, r5, lsr #32
    49b4:	91040d00 	tstls	r4, r0, lsl #26
    49b8:	14000005 	strne	r0, [r0], #-5
    49bc:	00000025 	andeq	r0, r0, r5, lsr #32
    49c0:	000005c9 	andeq	r0, r0, r9, asr #11
    49c4:	00042415 	andeq	r2, r4, r5, lsl r4
    49c8:	01051500 	tsteq	r5, r0, lsl #10
    49cc:	0d000000 	stceq	0, cr0, [r0, #-0]
    49d0:	0005b504 	andeq	fp, r5, r4, lsl #10
    49d4:	004f0800 	subeq	r0, pc, r0, lsl #16
    49d8:	05df0000 	ldrbeq	r0, [pc]	; 49e0 <_start-0x3620>
    49dc:	c7090000 	strgt	r0, [r9, -r0]
    49e0:	02000000 	andeq	r0, r0, #0
    49e4:	004f0800 	subeq	r0, pc, r0, lsl #16
    49e8:	05ef0000 	strbeq	r0, [pc, #0]!	; 49f0 <_start-0x3610>
    49ec:	c7090000 	strgt	r0, [r9, -r0]
    49f0:	00000000 	andeq	r0, r0, r0
    49f4:	03350500 	teqeq	r5, #0, 10
    49f8:	1d050000 	stcne	0, cr0, [r5, #-0]
    49fc:	0002dc01 	andeq	sp, r2, r1, lsl #24
    4a00:	04b01900 	ldrteq	r1, [r0], #2304	; 0x900
    4a04:	050c0000 	streq	r0, [ip, #-0]
    4a08:	06300121 	ldrteq	r0, [r0], -r1, lsr #2
    4a0c:	5d170000 	ldcpl	0, cr0, [r7, #-0]
    4a10:	05000003 	streq	r0, [r0, #-3]
    4a14:	06300123 	ldrteq	r0, [r0], -r3, lsr #2
    4a18:	17000000 	strne	r0, [r0, -r0]
    4a1c:	0000021e 	andeq	r0, r0, lr, lsl r2
    4a20:	25012405 	strcs	r2, [r1, #-1029]	; 0xfffffbfb
    4a24:	04000000 	streq	r0, [r0], #-0
    4a28:	00032f17 	andeq	r2, r3, r7, lsl pc
    4a2c:	01250500 			; <UNDEFINED> instruction: 0x01250500
    4a30:	00000636 	andeq	r0, r0, r6, lsr r6
    4a34:	040d0008 	streq	r0, [sp], #-8
    4a38:	000005fb 	strdeq	r0, [r0], -fp
    4a3c:	05ef040d 	strbeq	r0, [pc, #1037]!	; 4e51 <_start-0x31af>
    4a40:	21190000 	tstcs	r9, r0
    4a44:	0e000000 	cdpeq	0, 0, cr0, cr0, cr0, {0}
    4a48:	71013d05 	tstvc	r1, r5, lsl #26
    4a4c:	17000006 	strne	r0, [r0, -r6]
    4a50:	000003a3 	andeq	r0, r0, r3, lsr #7
    4a54:	71013e05 	tstvc	r1, r5, lsl #28
    4a58:	00000006 	andeq	r0, r0, r6
    4a5c:	0003d017 	andeq	sp, r3, r7, lsl r0
    4a60:	013f0500 	teqeq	pc, r0, lsl #10
    4a64:	00000671 	andeq	r0, r0, r1, ror r6
    4a68:	044e1706 	strbeq	r1, [lr], #-1798	; 0xfffff8fa
    4a6c:	40050000 	andmi	r0, r5, r0
    4a70:	00005601 	andeq	r5, r0, r1, lsl #12
    4a74:	08000c00 	stmdaeq	r0, {sl, fp}
    4a78:	00000056 	andeq	r0, r0, r6, asr r0
    4a7c:	00000681 	andeq	r0, r0, r1, lsl #13
    4a80:	0000c709 	andeq	ip, r0, r9, lsl #14
    4a84:	1a000200 	bne	528c <_start-0x2d74>
    4a88:	025705d0 	subseq	r0, r7, #208, 10	; 0x34000000
    4a8c:	00000782 	andeq	r0, r0, r2, lsl #15
    4a90:	00049417 	andeq	r9, r4, r7, lsl r4
    4a94:	02590500 	subseq	r0, r9, #0, 10
    4a98:	0000002c 	andeq	r0, r0, ip, lsr #32
    4a9c:	04381700 	ldrteq	r1, [r8], #-1792	; 0xfffff900
    4aa0:	5a050000 	bpl	144aa8 <__bss_end__+0x13aa80>
    4aa4:	00010702 	andeq	r0, r1, r2, lsl #14
    4aa8:	5b170400 	blpl	5c5ab0 <__bss_end__+0x5bba88>
    4aac:	05000002 	streq	r0, [r0, #-2]
    4ab0:	0782025b 			; <UNDEFINED> instruction: 0x0782025b
    4ab4:	17080000 	strne	r0, [r8, -r0]
    4ab8:	000004f4 	strdeq	r0, [r0], -r4
    4abc:	8d025c05 	stchi	12, cr5, [r2, #-20]	; 0xffffffec
    4ac0:	24000001 	strcs	r0, [r0], #-1
    4ac4:	0001bb17 	andeq	fp, r1, r7, lsl fp
    4ac8:	025d0500 	subseq	r0, sp, #0, 10
    4acc:	00000025 	andeq	r0, r0, r5, lsr #32
    4ad0:	03581748 	cmpeq	r8, #72, 14	; 0x1200000
    4ad4:	5e050000 	cdppl	0, 0, cr0, cr5, cr0, {0}
    4ad8:	00006402 	andeq	r6, r0, r2, lsl #8
    4adc:	0a175000 	beq	5d8ae4 <__bss_end__+0x5ceabc>
    4ae0:	05000005 	streq	r0, [r0, #-5]
    4ae4:	063c025f 			; <UNDEFINED> instruction: 0x063c025f
    4ae8:	17580000 	ldrbne	r0, [r8, -r0]
    4aec:	00000363 	andeq	r0, r0, r3, ror #6
    4af0:	ef026005 	svc	0x00026005
    4af4:	68000000 	stmdavs	r0, {}	; <UNPREDICTABLE>
    4af8:	00050f17 	andeq	r0, r5, r7, lsl pc
    4afc:	02610500 	rsbeq	r0, r1, #0, 10
    4b00:	000000ef 	andeq	r0, r0, pc, ror #1
    4b04:	00931770 	addseq	r1, r3, r0, ror r7
    4b08:	62050000 	andvs	r0, r5, #0
    4b0c:	0000ef02 	andeq	lr, r0, r2, lsl #30
    4b10:	bf177800 	svclt	0x00177800
    4b14:	05000004 	streq	r0, [r0, #-4]
    4b18:	07920263 	ldreq	r0, [r2, r3, ror #4]
    4b1c:	17800000 	strne	r0, [r0, r0]
    4b20:	0000024f 	andeq	r0, r0, pc, asr #4
    4b24:	a2026405 	andge	r6, r2, #83886080	; 0x5000000
    4b28:	88000007 	stmdahi	r0, {r0, r1, r2}
    4b2c:	00045b17 	andeq	r5, r4, r7, lsl fp
    4b30:	02650500 	rsbeq	r0, r5, #0, 10
    4b34:	00000025 	andeq	r0, r0, r5, lsr #32
    4b38:	018117a0 	orreq	r1, r1, r0, lsr #15
    4b3c:	66050000 	strvs	r0, [r5], -r0
    4b40:	0000ef02 	andeq	lr, r0, r2, lsl #30
    4b44:	8417a400 	ldrhi	sl, [r7], #-1024	; 0xfffffc00
    4b48:	05000000 	streq	r0, [r0, #-0]
    4b4c:	00ef0267 	rsceq	r0, pc, r7, ror #4
    4b50:	17ac0000 	strne	r0, [ip, r0]!
    4b54:	00000170 	andeq	r0, r0, r0, ror r1
    4b58:	ef026805 	svc	0x00026805
    4b5c:	b4000000 	strlt	r0, [r0], #-0
    4b60:	00003c17 	andeq	r3, r0, r7, lsl ip
    4b64:	02690500 	rsbeq	r0, r9, #0, 10
    4b68:	000000ef 	andeq	r0, r0, pc, ror #1
    4b6c:	004b17bc 	strheq	r1, [fp], #-124	; 0xffffff84
    4b70:	6a050000 	bvs	144b78 <__bss_end__+0x13ab50>
    4b74:	0000ef02 	andeq	lr, r0, r2, lsl #30
    4b78:	0b17c400 	bleq	5f5b80 <__bss_end__+0x5ebb58>
    4b7c:	05000003 	streq	r0, [r0, #-3]
    4b80:	0025026b 	eoreq	r0, r5, fp, ror #4
    4b84:	00cc0000 	sbceq	r0, ip, r0
    4b88:	00010d08 	andeq	r0, r1, r8, lsl #26
    4b8c:	00079200 	andeq	r9, r7, r0, lsl #4
    4b90:	00c70900 	sbceq	r0, r7, r0, lsl #18
    4b94:	00190000 	andseq	r0, r9, r0
    4b98:	00010d08 	andeq	r0, r1, r8, lsl #26
    4b9c:	0007a200 	andeq	sl, r7, r0, lsl #4
    4ba0:	00c70900 	sbceq	r0, r7, r0, lsl #18
    4ba4:	00070000 	andeq	r0, r7, r0
    4ba8:	00010d08 	andeq	r0, r1, r8, lsl #26
    4bac:	0007b200 	andeq	fp, r7, r0, lsl #4
    4bb0:	00c70900 	sbceq	r0, r7, r0, lsl #18
    4bb4:	00170000 	andseq	r0, r7, r0
    4bb8:	7005f01a 	andvc	pc, r5, sl, lsl r0	; <UNPREDICTABLE>
    4bbc:	0007d602 	andeq	sp, r7, r2, lsl #12
    4bc0:	02b21700 	adcseq	r1, r2, #0, 14
    4bc4:	73050000 	movwvc	r0, #20480	; 0x5000
    4bc8:	0007d602 	andeq	sp, r7, r2, lsl #12
    4bcc:	b6170000 	ldrlt	r0, [r7], -r0
    4bd0:	05000004 	streq	r0, [r0, #-4]
    4bd4:	07e60274 			; <UNDEFINED> instruction: 0x07e60274
    4bd8:	00780000 	rsbseq	r0, r8, r0
    4bdc:	0002d608 	andeq	sp, r2, r8, lsl #12
    4be0:	0007e600 	andeq	lr, r7, r0, lsl #12
    4be4:	00c70900 	sbceq	r0, r7, r0, lsl #18
    4be8:	001d0000 	andseq	r0, sp, r0
    4bec:	00002c08 	andeq	r2, r0, r8, lsl #24
    4bf0:	0007f600 	andeq	pc, r7, r0, lsl #12
    4bf4:	00c70900 	sbceq	r0, r7, r0, lsl #18
    4bf8:	001d0000 	andseq	r0, sp, r0
    4bfc:	5505f01b 	strpl	pc, [r5, #-27]	; 0xffffffe5
    4c00:	00081802 	andeq	r1, r8, r2, lsl #16
    4c04:	039c1c00 	orrseq	r1, ip, #0, 24
    4c08:	6c050000 	stcvs	0, cr0, [r5], {-0}
    4c0c:	00068102 	andeq	r8, r6, r2, lsl #2
    4c10:	04e11c00 	strbteq	r1, [r1], #3072	; 0xc00
    4c14:	75050000 	strvc	r0, [r5, #-0]
    4c18:	0007b202 	andeq	fp, r7, r2, lsl #4
    4c1c:	0d080000 	stceq	0, cr0, [r8, #-0]
    4c20:	28000001 	stmdacs	r0, {r0}
    4c24:	09000008 	stmdbeq	r0, {r3}
    4c28:	000000c7 	andeq	r0, r0, r7, asr #1
    4c2c:	331d0018 	tstcc	sp, #24
    4c30:	15000008 	strne	r0, [r0, #-8]
    4c34:	00000424 	andeq	r0, r0, r4, lsr #8
    4c38:	28040d00 	stmdacs	r4, {r8, sl, fp}
    4c3c:	0d000008 	stceq	0, cr0, [r0, #-32]	; 0xffffffe0
    4c40:	00017704 	andeq	r7, r1, r4, lsl #14
    4c44:	084a1d00 	stmdaeq	sl, {r8, sl, fp, ip}^
    4c48:	25150000 	ldrcs	r0, [r5, #-0]
    4c4c:	00000000 	andeq	r0, r0, r0
    4c50:	0850040d 	ldmdaeq	r0, {r0, r2, r3, sl}^
    4c54:	040d0000 	streq	r0, [sp], #-0
    4c58:	0000083f 	andeq	r0, r0, pc, lsr r8
    4c5c:	0005ef08 	andeq	lr, r5, r8, lsl #30
    4c60:	00086600 	andeq	r6, r8, r0, lsl #12
    4c64:	00c70900 	sbceq	r0, r7, r0, lsl #18
    4c68:	00020000 	andeq	r0, r2, r0
    4c6c:	00046f1e 	andeq	r6, r4, lr, lsl pc
    4c70:	02fd0500 	rscseq	r0, sp, #0, 10
    4c74:	00000424 	andeq	r0, r0, r4, lsr #8
    4c78:	0004681e 	andeq	r6, r4, lr, lsl r8
    4c7c:	02fe0500 	rscseq	r0, lr, #0, 10
    4c80:	0000042a 	andeq	r0, r0, sl, lsr #8
    4c84:	00002514 	andeq	r2, r0, r4, lsl r5
    4c88:	00088d00 	andeq	r8, r8, r0, lsl #26
    4c8c:	00251500 	eoreq	r1, r5, r0, lsl #10
    4c90:	1f000000 	svcne	0x00000000
    4c94:	000001d4 	ldrdeq	r0, [r0], -r4
    4c98:	08981d06 	ldmeq	r8, {r1, r2, r8, sl, fp, ip}
    4c9c:	040d0000 	streq	r0, [sp], #-0
    4ca0:	0000087e 	andeq	r0, r0, lr, ror r8
    4ca4:	00002514 	andeq	r2, r0, r4, lsl r5
    4ca8:	0008ad00 	andeq	sl, r8, r0, lsl #26
    4cac:	05851500 	streq	r1, [r5, #1280]	; 0x500
    4cb0:	1f000000 	svcne	0x00000000
    4cb4:	00000769 	andeq	r0, r0, r9, ror #14
    4cb8:	08b82206 	ldmeq	r8!, {r1, r2, r9, sp}
    4cbc:	040d0000 	streq	r0, [sp], #-0
    4cc0:	0000089e 	muleq	r0, lr, r8
    4cc4:	0008ad20 	andeq	sl, r8, r0, lsr #26
    4cc8:	050c0100 	streq	r0, [ip, #-256]	; 0xffffff00
    4ccc:	00965c03 	addseq	r5, r6, r3, lsl #24
    4cd0:	07602100 	strbeq	r2, [r0, -r0, lsl #2]!
    4cd4:	04010000 	streq	r0, [r1], #-0
    4cd8:	00000025 	andeq	r0, r0, r5, lsr #32
    4cdc:	00008fe0 	andeq	r8, r0, r0, ror #31
    4ce0:	00000034 	andeq	r0, r0, r4, lsr r0
    4ce4:	70229c01 	eorvc	r9, r2, r1, lsl #24
    4ce8:	85040100 	strhi	r0, [r4, #-256]	; 0xffffff00
    4cec:	1d000005 	stcne	0, cr0, [r0, #-20]	; 0xffffffec
    4cf0:	0000000f 	andeq	r0, r0, pc
    4cf4:	00093d00 	andeq	r3, r9, r0, lsl #26
    4cf8:	93000400 	movwls	r0, #1024	; 0x400
    4cfc:	0400000d 	streq	r0, [r0], #-13
    4d00:	0003d601 	andeq	sp, r3, r1, lsl #12
    4d04:	07a20c00 	streq	r0, [r2, r0, lsl #24]!
    4d08:	06de0000 	ldrbeq	r0, [lr], r0
    4d0c:	90140000 	andsls	r0, r4, r0
    4d10:	003c0000 	eorseq	r0, ip, r0
    4d14:	085a0000 	ldmdaeq	sl, {}^	; <UNPREDICTABLE>
    4d18:	04020000 	streq	r0, [r2], #-0
    4d1c:	746e6905 	strbtvc	r6, [lr], #-2309	; 0xfffff6fb
    4d20:	07040300 	streq	r0, [r4, -r0, lsl #6]
    4d24:	00000066 	andeq	r0, r0, r6, rrx
    4d28:	fa060103 	blx	18513c <__bss_end__+0x17b114>
    4d2c:	03000002 	movweq	r0, #2
    4d30:	03140502 	tsteq	r4, #8388608	; 0x800000
    4d34:	04030000 	streq	r0, [r3], #-0
    4d38:	0000af05 	andeq	sl, r0, r5, lsl #30
    4d3c:	05080300 	streq	r0, [r8, #-768]	; 0xfffffd00
    4d40:	000000aa 	andeq	r0, r0, sl, lsr #1
    4d44:	f8080103 			; <UNDEFINED> instruction: 0xf8080103
    4d48:	03000002 	movweq	r0, #2
    4d4c:	02250702 	eoreq	r0, r5, #524288	; 0x80000
    4d50:	04030000 	streq	r0, [r3], #-0
    4d54:	00006107 	andeq	r6, r0, r7, lsl #2
    4d58:	07080300 	streq	r0, [r8, -r0, lsl #6]
    4d5c:	0000005c 	andeq	r0, r0, ip, asr r0
    4d60:	0002e604 	andeq	lr, r2, r4, lsl #12
    4d64:	25070200 	strcs	r0, [r7, #-512]	; 0xfffffe00
    4d68:	04000000 	streq	r0, [r0], #-0
    4d6c:	000002d5 	ldrdeq	r0, [r0], -r5
    4d70:	00412c03 	subeq	r2, r1, r3, lsl #24
    4d74:	bf040000 	svclt	0x00040000
    4d78:	03000003 	movweq	r0, #3
    4d7c:	00004172 	andeq	r4, r0, r2, ror r1
    4d80:	02760500 	rsbseq	r0, r6, #0, 10
    4d84:	65040000 	strvs	r0, [r4, #-0]
    4d88:	00002c01 	andeq	r2, r0, r1, lsl #24
    4d8c:	03040600 	movweq	r0, #17920	; 0x4600
    4d90:	0000b7a6 	andeq	fp, r0, r6, lsr #15
    4d94:	02700700 	rsbseq	r0, r0, #0, 14
    4d98:	a8030000 	stmdage	r3, {}	; <UNPREDICTABLE>
    4d9c:	0000008c 	andeq	r0, r0, ip, lsl #1
    4da0:	0001e507 	andeq	lr, r1, r7, lsl #10
    4da4:	b7a90300 	strlt	r0, [r9, r0, lsl #6]!
    4da8:	00000000 	andeq	r0, r0, r0
    4dac:	00004f08 	andeq	r4, r0, r8, lsl #30
    4db0:	0000c700 	andeq	ip, r0, r0, lsl #14
    4db4:	00c70900 	sbceq	r0, r7, r0, lsl #18
    4db8:	00030000 	andeq	r0, r3, r0
    4dbc:	a9070403 	stmdbge	r7, {r0, r1, sl}
    4dc0:	0a000002 	beq	4dd0 <_start-0x3230>
    4dc4:	efa30308 	svc	0x00a30308
    4dc8:	0b000000 	bleq	4dd0 <_start-0x3230>
    4dcc:	000003a9 	andeq	r0, r0, r9, lsr #7
    4dd0:	0025a503 	eoreq	sl, r5, r3, lsl #10
    4dd4:	0b000000 	bleq	4ddc <_start-0x3224>
    4dd8:	000003b1 			; <UNDEFINED> instruction: 0x000003b1
    4ddc:	0098aa03 	addseq	sl, r8, r3, lsl #20
    4de0:	00040000 	andeq	r0, r4, r0
    4de4:	00033c04 	andeq	r3, r3, r4, lsl #24
    4de8:	ceab0300 	cdpgt	3, 10, cr0, cr11, cr0, {0}
    4dec:	04000000 	streq	r0, [r0], #-0
    4df0:	000001a2 	andeq	r0, r0, r2, lsr #3
    4df4:	006baf03 	rsbeq	sl, fp, r3, lsl #30
    4df8:	040c0000 	streq	r0, [ip], #-0
    4dfc:	010d040d 	tsteq	sp, sp, lsl #8
    4e00:	01030000 	mrseq	r0, (UNDEF: 3)
    4e04:	00030108 	andeq	r0, r3, r8, lsl #2
    4e08:	010d0e00 	tsteq	sp, r0, lsl #28
    4e0c:	53040000 	movwpl	r0, #16384	; 0x4000
    4e10:	05000004 	streq	r0, [r0, #-4]
    4e14:	00005d16 	andeq	r5, r0, r6, lsl sp
    4e18:	01b30f00 			; <UNDEFINED> instruction: 0x01b30f00
    4e1c:	05180000 	ldreq	r0, [r8, #-0]
    4e20:	0001772d 	andeq	r7, r1, sp, lsr #14
    4e24:	035d0b00 	cmpeq	sp, #0, 22
    4e28:	2f050000 	svccs	0x00050000
    4e2c:	00000177 	andeq	r0, r0, r7, ror r1
    4e30:	6b5f1000 	blvs	17c8e38 <__bss_end__+0x17bee10>
    4e34:	25300500 	ldrcs	r0, [r0, #-1280]!	; 0xfffffb00
    4e38:	04000000 	streq	r0, [r0], #-0
    4e3c:	0003940b 	andeq	r9, r3, fp, lsl #8
    4e40:	25300500 	ldrcs	r0, [r0, #-1280]!	; 0xfffffb00
    4e44:	08000000 	stmdaeq	r0, {}	; <UNPREDICTABLE>
    4e48:	00019c0b 	andeq	r9, r1, fp, lsl #24
    4e4c:	25300500 	ldrcs	r0, [r0, #-1280]!	; 0xfffffb00
    4e50:	0c000000 	stceq	0, cr0, [r0], {-0}
    4e54:	0004a10b 	andeq	sl, r4, fp, lsl #2
    4e58:	25300500 	ldrcs	r0, [r0, #-1280]!	; 0xfffffb00
    4e5c:	10000000 	andne	r0, r0, r0
    4e60:	00785f10 	rsbseq	r5, r8, r0, lsl pc
    4e64:	017d3105 	cmneq	sp, r5, lsl #2
    4e68:	00140000 	andseq	r0, r4, r0
    4e6c:	0124040d 			; <UNDEFINED> instruction: 0x0124040d
    4e70:	19080000 	stmdbne	r8, {}	; <UNPREDICTABLE>
    4e74:	8d000001 	stchi	0, cr0, [r0, #-4]
    4e78:	09000001 	stmdbeq	r0, {r0}
    4e7c:	000000c7 	andeq	r0, r0, r7, asr #1
    4e80:	e00f0000 	and	r0, pc, r0
    4e84:	24000001 	strcs	r0, [r0], #-1
    4e88:	02063505 	andeq	r3, r6, #20971520	; 0x1400000
    4e8c:	a10b0000 	mrsge	r0, (UNDEF: 11)
    4e90:	05000000 	streq	r0, [r0, #-0]
    4e94:	00002537 	andeq	r2, r0, r7, lsr r5
    4e98:	c70b0000 	strgt	r0, [fp, -r0]
    4e9c:	05000003 	streq	r0, [r0, #-3]
    4ea0:	00002538 	andeq	r2, r0, r8, lsr r5
    4ea4:	c40b0400 	strgt	r0, [fp], #-1024	; 0xfffffc00
    4ea8:	05000000 	streq	r0, [r0, #-0]
    4eac:	00002539 	andeq	r2, r0, r9, lsr r5
    4eb0:	220b0800 	andcs	r0, fp, #0, 16
    4eb4:	05000005 	streq	r0, [r0, #-5]
    4eb8:	0000253a 	andeq	r2, r0, sl, lsr r5
    4ebc:	b90b0c00 	stmdblt	fp, {sl, fp}
    4ec0:	05000002 	streq	r0, [r0, #-2]
    4ec4:	0000253b 	andeq	r2, r0, fp, lsr r5
    4ec8:	920b1000 	andls	r1, fp, #0
    4ecc:	05000002 	streq	r0, [r0, #-2]
    4ed0:	0000253c 	andeq	r2, r0, ip, lsr r5
    4ed4:	a60b1400 	strge	r1, [fp], -r0, lsl #8
    4ed8:	05000004 	streq	r0, [r0, #-4]
    4edc:	0000253d 	andeq	r2, r0, sp, lsr r5
    4ee0:	1e0b1800 	cdpne	8, 0, cr1, cr11, cr0, {0}
    4ee4:	05000003 	streq	r0, [r0, #-3]
    4ee8:	0000253e 	andeq	r2, r0, lr, lsr r5
    4eec:	e90b1c00 	stmdb	fp, {sl, fp, ip}
    4ef0:	05000004 	streq	r0, [r0, #-4]
    4ef4:	0000253f 	andeq	r2, r0, pc, lsr r5
    4ef8:	11002000 	mrsne	r2, (UNDEF: 0)
    4efc:	00000104 	andeq	r0, r0, r4, lsl #2
    4f00:	48050108 	stmdami	r5, {r3, r8}
    4f04:	00000246 	andeq	r0, r0, r6, asr #4
    4f08:	00018f0b 	andeq	r8, r1, fp, lsl #30
    4f0c:	46490500 	strbmi	r0, [r9], -r0, lsl #10
    4f10:	00000002 	andeq	r0, r0, r2
    4f14:	0000000b 	andeq	r0, r0, fp
    4f18:	464a0500 	strbmi	r0, [sl], -r0, lsl #10
    4f1c:	80000002 	andhi	r0, r0, r2
    4f20:	00044512 	andeq	r4, r4, r2, lsl r5
    4f24:	194c0500 	stmdbne	ip, {r8, sl}^
    4f28:	00000001 	andeq	r0, r0, r1
    4f2c:	01291201 			; <UNDEFINED> instruction: 0x01291201
    4f30:	4f050000 	svcmi	0x00050000
    4f34:	00000119 	andeq	r0, r0, r9, lsl r1
    4f38:	08000104 	stmdaeq	r0, {r2, r8}
    4f3c:	00000105 	andeq	r0, r0, r5, lsl #2
    4f40:	00000256 	andeq	r0, r0, r6, asr r2
    4f44:	0000c709 	andeq	ip, r0, r9, lsl #14
    4f48:	11001f00 	tstne	r0, r0, lsl #30
    4f4c:	000002c2 	andeq	r0, r0, r2, asr #5
    4f50:	5b050190 	blpl	145598 <__bss_end__+0x13b570>
    4f54:	00000294 	muleq	r0, r4, r2
    4f58:	00035d0b 	andeq	r5, r3, fp, lsl #26
    4f5c:	945c0500 	ldrbls	r0, [ip], #-1280	; 0xfffffb00
    4f60:	00000002 	andeq	r0, r0, r2
    4f64:	0003750b 	andeq	r7, r3, fp, lsl #10
    4f68:	255d0500 	ldrbcs	r0, [sp, #-1280]	; 0xfffffb00
    4f6c:	04000000 	streq	r0, [r0], #-0
    4f70:	0001970b 	andeq	r9, r1, fp, lsl #14
    4f74:	9a5f0500 	bls	17c637c <__bss_end__+0x17bc354>
    4f78:	08000002 	stmdaeq	r0, {r1}
    4f7c:	0001040b 	andeq	r0, r1, fp, lsl #8
    4f80:	06600500 	strbteq	r0, [r0], -r0, lsl #10
    4f84:	88000002 	stmdahi	r0, {r1}
    4f88:	56040d00 	strpl	r0, [r4], -r0, lsl #26
    4f8c:	08000002 	stmdaeq	r0, {r1}
    4f90:	000002aa 	andeq	r0, r0, sl, lsr #5
    4f94:	000002aa 	andeq	r0, r0, sl, lsr #5
    4f98:	0000c709 	andeq	ip, r0, r9, lsl #14
    4f9c:	0d001f00 	stceq	15, cr1, [r0, #-0]
    4fa0:	0002b004 	andeq	fp, r2, r4
    4fa4:	280f1300 	stmdacs	pc, {r8, r9, ip}	; <UNPREDICTABLE>
    4fa8:	08000003 	stmdaeq	r0, {r0, r1}
    4fac:	02d67305 	sbcseq	r7, r6, #335544320	; 0x14000000
    4fb0:	be0b0000 	cdplt	0, 0, cr0, cr11, cr0, {0}
    4fb4:	05000000 	streq	r0, [r0, #-0]
    4fb8:	0002d674 	andeq	sp, r2, r4, ror r6
    4fbc:	1b0b0000 	blne	2c4fc4 <__bss_end__+0x2baf9c>
    4fc0:	05000000 	streq	r0, [r0, #-0]
    4fc4:	00002575 	andeq	r2, r0, r5, ror r5
    4fc8:	0d000400 	cfstrseq	mvf0, [r0, #-0]
    4fcc:	00004f04 	andeq	r4, r0, r4, lsl #30
    4fd0:	03470f00 	movteq	r0, #32512	; 0x7f00
    4fd4:	05680000 	strbeq	r0, [r8, #-0]!
    4fd8:	000406b3 			; <UNDEFINED> instruction: 0x000406b3
    4fdc:	705f1000 	subsvc	r1, pc, r0
    4fe0:	d6b40500 	ldrtle	r0, [r4], r0, lsl #10
    4fe4:	00000002 	andeq	r0, r0, r2
    4fe8:	00725f10 	rsbseq	r5, r2, r0, lsl pc
    4fec:	0025b505 	eoreq	fp, r5, r5, lsl #10
    4ff0:	10040000 	andne	r0, r4, r0
    4ff4:	0500775f 	streq	r7, [r0, #-1887]	; 0xfffff8a1
    4ff8:	000025b6 			; <UNDEFINED> instruction: 0x000025b6
    4ffc:	220b0800 	andcs	r0, fp, #0, 16
    5000:	05000001 	streq	r0, [r0, #-1]
    5004:	00003ab7 			; <UNDEFINED> instruction: 0x00003ab7
    5008:	0b0b0c00 	bleq	2c8010 <__bss_end__+0x2bdfe8>
    500c:	05000002 	streq	r0, [r0, #-2]
    5010:	00003ab8 			; <UNDEFINED> instruction: 0x00003ab8
    5014:	5f100e00 	svcpl	0x00100e00
    5018:	05006662 	streq	r6, [r0, #-1634]	; 0xfffff99e
    501c:	0002b1b9 			; <UNDEFINED> instruction: 0x0002b1b9
    5020:	7b0b1000 	blvc	2c9028 <__bss_end__+0x2bf000>
    5024:	05000000 	streq	r0, [r0, #-0]
    5028:	000025ba 			; <UNDEFINED> instruction: 0x000025ba
    502c:	120b1800 	andne	r1, fp, #0, 16
    5030:	05000001 	streq	r0, [r0, #-1]
    5034:	000105c1 	andeq	r0, r1, r1, asr #11
    5038:	780b1c00 	stmdavc	fp, {sl, fp, ip}
    503c:	0500000a 	streq	r0, [r0, #-10]
    5040:	000561c3 	andeq	r6, r5, r3, asr #3
    5044:	0c0b2000 	stceq	0, cr2, [fp], {-0}
    5048:	05000006 	streq	r0, [r0, #-6]
    504c:	00058bc5 	andeq	r8, r5, r5, asr #23
    5050:	b90b2400 	stmdblt	fp, {sl, sp}
    5054:	05000003 	streq	r0, [r0, #-3]
    5058:	0005afc8 	andeq	sl, r5, r8, asr #31
    505c:	030b2800 	movweq	r2, #47104	; 0xb800
    5060:	05000005 	streq	r0, [r0, #-5]
    5064:	0005c9c9 	andeq	ip, r5, r9, asr #19
    5068:	5f102c00 	svcpl	0x00102c00
    506c:	05006275 	streq	r6, [r0, #-629]	; 0xfffffd8b
    5070:	0002b1cc 	andeq	fp, r2, ip, asr #3
    5074:	5f103000 	svcpl	0x00103000
    5078:	05007075 	streq	r7, [r0, #-117]	; 0xffffff8b
    507c:	0002d6cd 	andeq	sp, r2, sp, asr #13
    5080:	5f103800 	svcpl	0x00103800
    5084:	05007275 	streq	r7, [r0, #-629]	; 0xfffffd8b
    5088:	000025ce 	andeq	r2, r0, lr, asr #11
    508c:	b80b3c00 	stmdalt	fp, {sl, fp, ip, sp}
    5090:	05000000 	streq	r0, [r0, #-0]
    5094:	0005cfd1 	ldrdeq	ip, [r5], -r1
    5098:	db0b4000 	blle	2d50a0 <__bss_end__+0x2cb078>
    509c:	05000004 	streq	r0, [r0, #-4]
    50a0:	0005dfd2 	ldrdeq	sp, [r5], -r2
    50a4:	5f104300 	svcpl	0x00104300
    50a8:	0500626c 	streq	r6, [r0, #-620]	; 0xfffffd94
    50ac:	0002b1d5 	ldrdeq	fp, [r2], -r5
    50b0:	400b4400 	andmi	r4, fp, r0, lsl #8
    50b4:	05000001 	streq	r0, [r0, #-1]
    50b8:	000025d8 	ldrdeq	r2, [r0], -r8
    50bc:	510b4c00 	tstpl	fp, r0, lsl #24
    50c0:	05000001 	streq	r0, [r0, #-1]
    50c4:	000076d9 	ldrdeq	r7, [r0], -r9
    50c8:	190b5000 	stmdbne	fp, {ip, lr}
    50cc:	0500000a 	streq	r0, [r0, #-10]
    50d0:	000424dc 	ldrdeq	r2, [r4], -ip
    50d4:	840b5400 	strhi	r5, [fp], #-1024	; 0xfffffc00
    50d8:	05000002 	streq	r0, [r0, #-2]
    50dc:	0000fae0 	andeq	pc, r0, r0, ror #21
    50e0:	4f0b5800 	svcmi	0x000b5800
    50e4:	05000003 	streq	r0, [r0, #-3]
    50e8:	0000efe2 	andeq	lr, r0, r2, ror #31
    50ec:	8a0b5c00 	bhi	2dc0f4 <__bss_end__+0x2d20cc>
    50f0:	05000002 	streq	r0, [r0, #-2]
    50f4:	000025e3 	andeq	r2, r0, r3, ror #11
    50f8:	14006400 	strne	r6, [r0], #-1024	; 0xfffffc00
    50fc:	00000025 	andeq	r0, r0, r5, lsr #32
    5100:	00000424 	andeq	r0, r0, r4, lsr #8
    5104:	00042415 	andeq	r2, r4, r5, lsl r4
    5108:	01051500 	tsteq	r5, r0, lsl #10
    510c:	07150000 	ldreq	r0, [r5, -r0]
    5110:	15000001 	strne	r0, [r0, #-1]
    5114:	00000025 	andeq	r0, r0, r5, lsr #32
    5118:	2f040d00 	svccs	0x00040d00
    511c:	0e000004 	cdpeq	0, 0, cr0, cr0, cr4, {0}
    5120:	00000424 	andeq	r0, r0, r4, lsr #8
    5124:	00039c16 	andeq	r9, r3, r6, lsl ip
    5128:	05042800 	streq	r2, [r4, #-2048]	; 0xfffff800
    512c:	05610238 	strbeq	r0, [r1, #-568]!	; 0xfffffdc8
    5130:	0d170000 	ldceq	0, cr0, [r7, #-0]
    5134:	05000003 	streq	r0, [r0, #-3]
    5138:	0025023a 	eoreq	r0, r5, sl, lsr r2
    513c:	17000000 	strne	r0, [r0, -r0]
    5140:	00000131 	andeq	r0, r0, r1, lsr r1
    5144:	36023f05 	strcc	r3, [r2], -r5, lsl #30
    5148:	04000006 	streq	r0, [r0], #-6
    514c:	0001fb17 	andeq	pc, r1, r7, lsl fp	; <UNPREDICTABLE>
    5150:	023f0500 	eorseq	r0, pc, #0, 10
    5154:	00000636 	andeq	r0, r0, r6, lsr r6
    5158:	01ab1708 			; <UNDEFINED> instruction: 0x01ab1708
    515c:	3f050000 	svccc	0x00050000
    5160:	00063602 	andeq	r3, r6, r2, lsl #12
    5164:	70170c00 	andsvc	r0, r7, r0, lsl #24
    5168:	05000003 	streq	r0, [r0, #-3]
    516c:	00250241 	eoreq	r0, r5, r1, asr #4
    5170:	17100000 	ldrne	r0, [r0, -r0]
    5174:	00000029 	andeq	r0, r0, r9, lsr #32
    5178:	18024205 	stmdane	r2, {r0, r2, r9, lr}
    517c:	14000008 	strne	r0, [r0], #-8
    5180:	00047b17 	andeq	r7, r4, r7, lsl fp
    5184:	02440500 	subeq	r0, r4, #0, 10
    5188:	00000025 	andeq	r0, r0, r5, lsr #32
    518c:	037a1730 	cmneq	sl, #48, 14	; 0xc00000
    5190:	45050000 	strmi	r0, [r5, #-0]
    5194:	00058502 	andeq	r8, r5, r2, lsl #10
    5198:	ca173400 	bgt	5d21a0 <__bss_end__+0x5c8178>
    519c:	05000002 	streq	r0, [r0, #-2]
    51a0:	00250247 	eoreq	r0, r5, r7, asr #4
    51a4:	17380000 	ldrne	r0, [r8, -r0]!
    51a8:	0000038a 	andeq	r0, r0, sl, lsl #7
    51ac:	33024905 	movwcc	r4, #10501	; 0x2905
    51b0:	3c000008 	stccc	0, cr0, [r0], {8}
    51b4:	00026817 	andeq	r6, r2, r7, lsl r8
    51b8:	024c0500 	subeq	r0, ip, #0, 10
    51bc:	00000177 	andeq	r0, r0, r7, ror r1
    51c0:	01ca1740 	biceq	r1, sl, r0, asr #14
    51c4:	4d050000 	stcmi	0, cr0, [r5, #-0]
    51c8:	00002502 	andeq	r2, r0, r2, lsl #10
    51cc:	1d174400 	cfldrsne	mvf4, [r7, #-0]
    51d0:	05000005 	streq	r0, [r0, #-5]
    51d4:	0177024e 	cmneq	r7, lr, asr #4
    51d8:	17480000 	strbne	r0, [r8, -r0]
    51dc:	000002dc 	ldrdeq	r0, [r0], -ip
    51e0:	39024f05 	stmdbcc	r2, {r0, r2, r8, r9, sl, fp, lr}
    51e4:	4c000008 	stcmi	0, cr0, [r0], {8}
    51e8:	00020317 	andeq	r0, r2, r7, lsl r3
    51ec:	02520500 	subseq	r0, r2, #0, 10
    51f0:	00000025 	andeq	r0, r0, r5, lsr #32
    51f4:	01491750 	cmpeq	r9, r0, asr r7
    51f8:	53050000 	movwpl	r0, #20480	; 0x5000
    51fc:	00010702 	andeq	r0, r1, r2, lsl #14
    5200:	06175400 	ldreq	r5, [r7], -r0, lsl #8
    5204:	05000003 	streq	r0, [r0, #-3]
    5208:	07f60276 			; <UNDEFINED> instruction: 0x07f60276
    520c:	18580000 	ldmdane	r8, {}^	; <UNPREDICTABLE>
    5210:	000002c2 	andeq	r0, r0, r2, asr #5
    5214:	94027a05 	strls	r7, [r2], #-2565	; 0xfffff5fb
    5218:	48000002 	stmdami	r0, {r1}
    521c:	02461801 	subeq	r1, r6, #65536	; 0x10000
    5220:	7b050000 	blvc	145228 <__bss_end__+0x13b200>
    5224:	00025602 	andeq	r5, r2, r2, lsl #12
    5228:	18014c00 	stmdane	r1, {sl, fp, lr}
    522c:	000004c9 	andeq	r0, r0, r9, asr #9
    5230:	4a027f05 	bmi	a4e4c <__bss_end__+0x9ae24>
    5234:	dc000008 	stcle	0, cr0, [r0], {8}
    5238:	011a1802 	tsteq	sl, r2, lsl #16
    523c:	84050000 	strhi	r0, [r5], #-0
    5240:	0005fb02 	andeq	pc, r5, r2, lsl #22
    5244:	1802e000 	stmdane	r2, {sp, lr, pc}
    5248:	000000ff 	strdeq	r0, [r0], -pc	; <UNPREDICTABLE>
    524c:	56028505 	strpl	r8, [r2], -r5, lsl #10
    5250:	ec000008 	stc	0, cr0, [r0], {8}
    5254:	040d0002 	streq	r0, [sp], #-2
    5258:	00000406 	andeq	r0, r0, r6, lsl #8
    525c:	00002514 	andeq	r2, r0, r4, lsl r5
    5260:	00058500 	andeq	r8, r5, r0, lsl #10
    5264:	04241500 	strteq	r1, [r4], #-1280	; 0xfffffb00
    5268:	05150000 	ldreq	r0, [r5, #-0]
    526c:	15000001 	strne	r0, [r0, #-1]
    5270:	00000585 	andeq	r0, r0, r5, lsl #11
    5274:	00002515 	andeq	r2, r0, r5, lsl r5
    5278:	040d0000 	streq	r0, [sp], #-0
    527c:	00000114 	andeq	r0, r0, r4, lsl r1
    5280:	0567040d 	strbeq	r0, [r7, #-1037]!	; 0xfffffbf3
    5284:	81140000 	tsthi	r4, r0
    5288:	af000000 	svcge	0x00000000
    528c:	15000005 	strne	r0, [r0, #-5]
    5290:	00000424 	andeq	r0, r0, r4, lsr #8
    5294:	00010515 	andeq	r0, r1, r5, lsl r5
    5298:	00811500 	addeq	r1, r1, r0, lsl #10
    529c:	25150000 	ldrcs	r0, [r5, #-0]
    52a0:	00000000 	andeq	r0, r0, r0
    52a4:	0591040d 	ldreq	r0, [r1, #1037]	; 0x40d
    52a8:	25140000 	ldrcs	r0, [r4, #-0]
    52ac:	c9000000 	stmdbgt	r0, {}	; <UNPREDICTABLE>
    52b0:	15000005 	strne	r0, [r0, #-5]
    52b4:	00000424 	andeq	r0, r0, r4, lsr #8
    52b8:	00010515 	andeq	r0, r1, r5, lsl r5
    52bc:	040d0000 	streq	r0, [sp], #-0
    52c0:	000005b5 			; <UNDEFINED> instruction: 0x000005b5
    52c4:	00004f08 	andeq	r4, r0, r8, lsl #30
    52c8:	0005df00 	andeq	sp, r5, r0, lsl #30
    52cc:	00c70900 	sbceq	r0, r7, r0, lsl #18
    52d0:	00020000 	andeq	r0, r2, r0
    52d4:	00004f08 	andeq	r4, r0, r8, lsl #30
    52d8:	0005ef00 	andeq	lr, r5, r0, lsl #30
    52dc:	00c70900 	sbceq	r0, r7, r0, lsl #18
    52e0:	00000000 	andeq	r0, r0, r0
    52e4:	00033505 	andeq	r3, r3, r5, lsl #10
    52e8:	011d0500 	tsteq	sp, r0, lsl #10
    52ec:	000002dc 	ldrdeq	r0, [r0], -ip
    52f0:	0004b019 	andeq	fp, r4, r9, lsl r0
    52f4:	21050c00 	tstcs	r5, r0, lsl #24
    52f8:	00063001 	andeq	r3, r6, r1
    52fc:	035d1700 	cmpeq	sp, #0, 14
    5300:	23050000 	movwcs	r0, #20480	; 0x5000
    5304:	00063001 	andeq	r3, r6, r1
    5308:	1e170000 	cdpne	0, 1, cr0, cr7, cr0, {0}
    530c:	05000002 	streq	r0, [r0, #-2]
    5310:	00250124 	eoreq	r0, r5, r4, lsr #2
    5314:	17040000 	strne	r0, [r4, -r0]
    5318:	0000032f 	andeq	r0, r0, pc, lsr #6
    531c:	36012505 	strcc	r2, [r1], -r5, lsl #10
    5320:	08000006 	stmdaeq	r0, {r1, r2}
    5324:	fb040d00 	blx	10872e <__bss_end__+0xfe706>
    5328:	0d000005 	stceq	0, cr0, [r0, #-20]	; 0xffffffec
    532c:	0005ef04 	andeq	lr, r5, r4, lsl #30
    5330:	00211900 	eoreq	r1, r1, r0, lsl #18
    5334:	050e0000 	streq	r0, [lr, #-0]
    5338:	0671013d 			; <UNDEFINED> instruction: 0x0671013d
    533c:	a3170000 	tstge	r7, #0
    5340:	05000003 	streq	r0, [r0, #-3]
    5344:	0671013e 			; <UNDEFINED> instruction: 0x0671013e
    5348:	17000000 	strne	r0, [r0, -r0]
    534c:	000003d0 	ldrdeq	r0, [r0], -r0	; <UNPREDICTABLE>
    5350:	71013f05 	tstvc	r1, r5, lsl #30
    5354:	06000006 	streq	r0, [r0], -r6
    5358:	00044e17 	andeq	r4, r4, r7, lsl lr
    535c:	01400500 	cmpeq	r0, r0, lsl #10
    5360:	00000056 	andeq	r0, r0, r6, asr r0
    5364:	5608000c 	strpl	r0, [r8], -ip
    5368:	81000000 	mrshi	r0, (UNDEF: 0)
    536c:	09000006 	stmdbeq	r0, {r1, r2}
    5370:	000000c7 	andeq	r0, r0, r7, asr #1
    5374:	d01a0002 	andsle	r0, sl, r2
    5378:	82025705 	andhi	r5, r2, #1310720	; 0x140000
    537c:	17000007 	strne	r0, [r0, -r7]
    5380:	00000494 	muleq	r0, r4, r4
    5384:	2c025905 			; <UNDEFINED> instruction: 0x2c025905
    5388:	00000000 	andeq	r0, r0, r0
    538c:	00043817 	andeq	r3, r4, r7, lsl r8
    5390:	025a0500 	subseq	r0, sl, #0, 10
    5394:	00000107 	andeq	r0, r0, r7, lsl #2
    5398:	025b1704 	subseq	r1, fp, #4, 14	; 0x100000
    539c:	5b050000 	blpl	1453a4 <__bss_end__+0x13b37c>
    53a0:	00078202 	andeq	r8, r7, r2, lsl #4
    53a4:	f4170800 			; <UNDEFINED> instruction: 0xf4170800
    53a8:	05000004 	streq	r0, [r0, #-4]
    53ac:	018d025c 	orreq	r0, sp, ip, asr r2
    53b0:	17240000 	strne	r0, [r4, -r0]!
    53b4:	000001bb 			; <UNDEFINED> instruction: 0x000001bb
    53b8:	25025d05 	strcs	r5, [r2, #-3333]	; 0xfffff2fb
    53bc:	48000000 	stmdami	r0, {}	; <UNPREDICTABLE>
    53c0:	00035817 	andeq	r5, r3, r7, lsl r8
    53c4:	025e0500 	subseq	r0, lr, #0, 10
    53c8:	00000064 	andeq	r0, r0, r4, rrx
    53cc:	050a1750 	streq	r1, [sl, #-1872]	; 0xfffff8b0
    53d0:	5f050000 	svcpl	0x00050000
    53d4:	00063c02 	andeq	r3, r6, r2, lsl #24
    53d8:	63175800 	tstvs	r7, #0, 16
    53dc:	05000003 	streq	r0, [r0, #-3]
    53e0:	00ef0260 	rsceq	r0, pc, r0, ror #4
    53e4:	17680000 	strbne	r0, [r8, -r0]!
    53e8:	0000050f 	andeq	r0, r0, pc, lsl #10
    53ec:	ef026105 	svc	0x00026105
    53f0:	70000000 	andvc	r0, r0, r0
    53f4:	00009317 	andeq	r9, r0, r7, lsl r3
    53f8:	02620500 	rsbeq	r0, r2, #0, 10
    53fc:	000000ef 	andeq	r0, r0, pc, ror #1
    5400:	04bf1778 	ldrteq	r1, [pc], #1912	; 5408 <_start-0x2bf8>
    5404:	63050000 	movwvs	r0, #20480	; 0x5000
    5408:	00079202 	andeq	r9, r7, r2, lsl #4
    540c:	4f178000 	svcmi	0x00178000
    5410:	05000002 	streq	r0, [r0, #-2]
    5414:	07a20264 	streq	r0, [r2, r4, ror #4]!
    5418:	17880000 	strne	r0, [r8, r0]
    541c:	0000045b 	andeq	r0, r0, fp, asr r4
    5420:	25026505 	strcs	r6, [r2, #-1285]	; 0xfffffafb
    5424:	a0000000 	andge	r0, r0, r0
    5428:	00018117 	andeq	r8, r1, r7, lsl r1
    542c:	02660500 	rsbeq	r0, r6, #0, 10
    5430:	000000ef 	andeq	r0, r0, pc, ror #1
    5434:	008417a4 	addeq	r1, r4, r4, lsr #15
    5438:	67050000 	strvs	r0, [r5, -r0]
    543c:	0000ef02 	andeq	lr, r0, r2, lsl #30
    5440:	7017ac00 	andsvc	sl, r7, r0, lsl #24
    5444:	05000001 	streq	r0, [r0, #-1]
    5448:	00ef0268 	rsceq	r0, pc, r8, ror #4
    544c:	17b40000 	ldrne	r0, [r4, r0]!
    5450:	0000003c 	andeq	r0, r0, ip, lsr r0
    5454:	ef026905 	svc	0x00026905
    5458:	bc000000 	stclt	0, cr0, [r0], {-0}
    545c:	00004b17 	andeq	r4, r0, r7, lsl fp
    5460:	026a0500 	rsbeq	r0, sl, #0, 10
    5464:	000000ef 	andeq	r0, r0, pc, ror #1
    5468:	030b17c4 	movweq	r1, #47044	; 0xb7c4
    546c:	6b050000 	blvs	145474 <__bss_end__+0x13b44c>
    5470:	00002502 	andeq	r2, r0, r2, lsl #10
    5474:	0800cc00 	stmdaeq	r0, {sl, fp, lr, pc}
    5478:	0000010d 	andeq	r0, r0, sp, lsl #2
    547c:	00000792 	muleq	r0, r2, r7
    5480:	0000c709 	andeq	ip, r0, r9, lsl #14
    5484:	08001900 	stmdaeq	r0, {r8, fp, ip}
    5488:	0000010d 	andeq	r0, r0, sp, lsl #2
    548c:	000007a2 	andeq	r0, r0, r2, lsr #15
    5490:	0000c709 	andeq	ip, r0, r9, lsl #14
    5494:	08000700 	stmdaeq	r0, {r8, r9, sl}
    5498:	0000010d 	andeq	r0, r0, sp, lsl #2
    549c:	000007b2 			; <UNDEFINED> instruction: 0x000007b2
    54a0:	0000c709 	andeq	ip, r0, r9, lsl #14
    54a4:	1a001700 	bne	b0ac <__bss_end__+0x1084>
    54a8:	027005f0 	rsbseq	r0, r0, #240, 10	; 0x3c000000
    54ac:	000007d6 	ldrdeq	r0, [r0], -r6
    54b0:	0002b217 	andeq	fp, r2, r7, lsl r2
    54b4:	02730500 	rsbseq	r0, r3, #0, 10
    54b8:	000007d6 	ldrdeq	r0, [r0], -r6
    54bc:	04b61700 	ldrteq	r1, [r6], #1792	; 0x700
    54c0:	74050000 	strvc	r0, [r5], #-0
    54c4:	0007e602 	andeq	lr, r7, r2, lsl #12
    54c8:	08007800 	stmdaeq	r0, {fp, ip, sp, lr}
    54cc:	000002d6 	ldrdeq	r0, [r0], -r6
    54d0:	000007e6 	andeq	r0, r0, r6, ror #15
    54d4:	0000c709 	andeq	ip, r0, r9, lsl #14
    54d8:	08001d00 	stmdaeq	r0, {r8, sl, fp, ip}
    54dc:	0000002c 	andeq	r0, r0, ip, lsr #32
    54e0:	000007f6 	strdeq	r0, [r0], -r6
    54e4:	0000c709 	andeq	ip, r0, r9, lsl #14
    54e8:	1b001d00 	blne	c8f0 <__bss_end__+0x28c8>
    54ec:	025505f0 	subseq	r0, r5, #240, 10	; 0x3c000000
    54f0:	00000818 	andeq	r0, r0, r8, lsl r8
    54f4:	00039c1c 	andeq	r9, r3, ip, lsl ip
    54f8:	026c0500 	rsbeq	r0, ip, #0, 10
    54fc:	00000681 	andeq	r0, r0, r1, lsl #13
    5500:	0004e11c 	andeq	lr, r4, ip, lsl r1
    5504:	02750500 	rsbseq	r0, r5, #0, 10
    5508:	000007b2 			; <UNDEFINED> instruction: 0x000007b2
    550c:	010d0800 	tsteq	sp, r0, lsl #16
    5510:	08280000 	stmdaeq	r8!, {}	; <UNPREDICTABLE>
    5514:	c7090000 	strgt	r0, [r9, -r0]
    5518:	18000000 	stmdane	r0, {}	; <UNPREDICTABLE>
    551c:	08331d00 	ldmdaeq	r3!, {r8, sl, fp, ip}
    5520:	24150000 	ldrcs	r0, [r5], #-0
    5524:	00000004 	andeq	r0, r0, r4
    5528:	0828040d 	stmdaeq	r8!, {r0, r2, r3, sl}
    552c:	040d0000 	streq	r0, [sp], #-0
    5530:	00000177 	andeq	r0, r0, r7, ror r1
    5534:	00084a1d 	andeq	r4, r8, sp, lsl sl
    5538:	00251500 	eoreq	r1, r5, r0, lsl #10
    553c:	0d000000 	stceq	0, cr0, [r0, #-0]
    5540:	00085004 	andeq	r5, r8, r4
    5544:	3f040d00 	svccc	0x00040d00
    5548:	08000008 	stmdaeq	r0, {r3}
    554c:	000005ef 	andeq	r0, r0, pc, ror #11
    5550:	00000866 	andeq	r0, r0, r6, ror #16
    5554:	0000c709 	andeq	ip, r0, r9, lsl #14
    5558:	1e000200 	cdpne	2, 0, cr0, cr0, cr0, {0}
    555c:	0000046f 	andeq	r0, r0, pc, ror #8
    5560:	2402fd05 	strcs	pc, [r2], #-3333	; 0xfffff2fb
    5564:	1e000004 	cdpne	0, 0, cr0, cr0, cr4, {0}
    5568:	00000468 	andeq	r0, r0, r8, ror #8
    556c:	2a02fe05 	bcs	c4d88 <__bss_end__+0xbad60>
    5570:	14000004 	strne	r0, [r0], #-4
    5574:	00000025 	andeq	r0, r0, r5, lsr #32
    5578:	0000088d 	andeq	r0, r0, sp, lsl #17
    557c:	00002515 	andeq	r2, r0, r5, lsl r5
    5580:	d41f0000 	ldrle	r0, [pc], #-0	; 5588 <_start-0x2a78>
    5584:	06000001 	streq	r0, [r0], -r1
    5588:	0008981d 	andeq	r9, r8, sp, lsl r8
    558c:	7e040d00 	cdpvc	13, 0, cr0, cr4, cr0, {0}
    5590:	14000008 	strne	r0, [r0], #-8
    5594:	00000025 	andeq	r0, r0, r5, lsr #32
    5598:	000008ad 	andeq	r0, r0, sp, lsr #17
    559c:	00058515 	andeq	r8, r5, r5, lsl r5
    55a0:	691f0000 	ldmdbvs	pc, {}	; <UNPREDICTABLE>
    55a4:	06000007 	streq	r0, [r0], -r7
    55a8:	0008b822 	andeq	fp, r8, r2, lsr #16
    55ac:	9e040d00 	cdpls	13, 0, cr0, cr4, cr0, {0}
    55b0:	20000008 	andcs	r0, r0, r8
    55b4:	0000088d 	andeq	r0, r0, sp, lsl #17
    55b8:	03050601 	movweq	r0, #22017	; 0x5601
    55bc:	00009660 	andeq	r9, r0, r0, ror #12
    55c0:	00077a21 	andeq	r7, r7, r1, lsr #20
    55c4:	400b0100 	andmi	r0, fp, r0, lsl #2
    55c8:	10000090 	mulne	r0, r0, r0
    55cc:	01000000 	mrseq	r0, (UNDEF: 0)
    55d0:	0008ed9c 	muleq	r8, ip, sp
    55d4:	70662200 	rsbvc	r2, r6, r0, lsl #4
    55d8:	980b0100 	stmdals	fp, {r8}
    55dc:	01000008 	tsteq	r0, r8
    55e0:	ec230050 	stc	0, cr0, [r3], #-320	; 0xfffffec0
    55e4:	01000001 	tsteq	r0, r1
    55e8:	00902808 	addseq	r2, r0, r8, lsl #16
    55ec:	00001800 	andeq	r1, r0, r0, lsl #16
    55f0:	249c0100 	ldrcs	r0, [ip], #256	; 0x100
    55f4:	00000791 	muleq	r0, r1, r7
    55f8:	00250301 	eoreq	r0, r5, r1, lsl #6
    55fc:	90140000 	andsls	r0, r4, r0
    5600:	00140000 	andseq	r0, r4, r0
    5604:	9c010000 	stcls	0, cr0, [r1], {-0}
    5608:	00000935 	andeq	r0, r0, r5, lsr r9
    560c:	01006325 	tsteq	r0, r5, lsr #6
    5610:	00002503 	andeq	r2, r0, r3, lsl #10
    5614:	000f3b00 	andeq	r3, pc, r0, lsl #22
    5618:	90202600 	eorls	r2, r0, r0, lsl #12
    561c:	09350000 	ldmdbeq	r5!, {}	; <UNPREDICTABLE>
    5620:	01270000 			; <UNDEFINED> instruction: 0x01270000
    5624:	00740250 	rsbseq	r0, r4, r0, asr r2
    5628:	87280000 	strhi	r0, [r8, -r0]!
    562c:	87000007 	strhi	r0, [r0, -r7]
    5630:	06000007 	streq	r0, [r0], -r7
    5634:	08d8003c 	ldmeq	r8, {r2, r3, r4, r5}^
    5638:	00040000 	andeq	r0, r4, r0
    563c:	00000fb8 			; <UNDEFINED> instruction: 0x00000fb8
    5640:	03d60104 	bicseq	r0, r6, #4, 2
    5644:	b80c0000 	stmdalt	ip, {}	; <UNPREDICTABLE>
    5648:	de000007 	cdple	0, 0, cr0, cr0, cr7, {0}
    564c:	50000006 	andpl	r0, r0, r6
    5650:	20000090 	mulcs	r0, r0, r0
    5654:	37000000 	strcc	r0, [r0, -r0]
    5658:	02000009 	andeq	r0, r0, #9
    565c:	6e690504 	cdpvs	5, 6, cr0, cr9, cr4, {0}
    5660:	b1030074 	tstlt	r3, r4, ror r0
    5664:	02000007 	andeq	r0, r0, #7
    5668:	000037d8 	ldrdeq	r3, [r0], -r8
    566c:	07040400 	streq	r0, [r4, -r0, lsl #8]
    5670:	00000066 	andeq	r0, r0, r6, rrx
    5674:	fa060104 	blx	185a8c <__bss_end__+0x17ba64>
    5678:	04000002 	streq	r0, [r0], #-2
    567c:	02f80801 	rscseq	r0, r8, #65536	; 0x10000
    5680:	02040000 	andeq	r0, r4, #0
    5684:	00031405 	andeq	r1, r3, r5, lsl #8
    5688:	07020400 	streq	r0, [r2, -r0, lsl #8]
    568c:	00000225 	andeq	r0, r0, r5, lsr #4
    5690:	af050404 	svcge	0x00050404
    5694:	04000000 	streq	r0, [r0], #-0
    5698:	00610704 	rsbeq	r0, r1, r4, lsl #14
    569c:	08040000 	stmdaeq	r4, {}	; <UNPREDICTABLE>
    56a0:	0000aa05 	andeq	sl, r0, r5, lsl #20
    56a4:	07080400 	streq	r0, [r8, -r0, lsl #8]
    56a8:	0000005c 	andeq	r0, r0, ip, asr r0
    56ac:	0002e603 	andeq	lr, r2, r3, lsl #12
    56b0:	25070300 	strcs	r0, [r7, #-768]	; 0xfffffd00
    56b4:	03000000 	movweq	r0, #0
    56b8:	000002d5 	ldrdeq	r0, [r0], -r5
    56bc:	005a2c04 	subseq	r2, sl, r4, lsl #24
    56c0:	bf030000 	svclt	0x00030000
    56c4:	04000003 	streq	r0, [r0], #-3
    56c8:	00005a72 	andeq	r5, r0, r2, ror sl
    56cc:	02760500 	rsbseq	r0, r6, #0, 10
    56d0:	65020000 	strvs	r0, [r2, #-0]
    56d4:	00003701 	andeq	r3, r0, r1, lsl #14
    56d8:	04040600 	streq	r0, [r4], #-1536	; 0xfffffa00
    56dc:	0000c2a6 	andeq	ip, r0, r6, lsr #5
    56e0:	02700700 	rsbseq	r0, r0, #0, 14
    56e4:	a8040000 	stmdage	r4, {}	; <UNPREDICTABLE>
    56e8:	00000097 	muleq	r0, r7, r0
    56ec:	0001e507 	andeq	lr, r1, r7, lsl #10
    56f0:	c2a90400 	adcgt	r0, r9, #0, 8
    56f4:	00000000 	andeq	r0, r0, r0
    56f8:	00004508 	andeq	r4, r0, r8, lsl #10
    56fc:	0000d200 	andeq	sp, r0, r0, lsl #4
    5700:	00d20900 	sbcseq	r0, r2, r0, lsl #18
    5704:	00030000 	andeq	r0, r3, r0
    5708:	a9070404 	stmdbge	r7, {r2, sl}
    570c:	0a000002 	beq	571c <_start-0x28e4>
    5710:	faa30408 	blx	fe8c6738 <__bss_end__+0xfe8bc710>
    5714:	0b000000 	bleq	571c <_start-0x28e4>
    5718:	000003a9 	andeq	r0, r0, r9, lsr #7
    571c:	0025a504 	eoreq	sl, r5, r4, lsl #10
    5720:	0b000000 	bleq	5728 <_start-0x28d8>
    5724:	000003b1 			; <UNDEFINED> instruction: 0x000003b1
    5728:	00a3aa04 	adceq	sl, r3, r4, lsl #20
    572c:	00040000 	andeq	r0, r4, r0
    5730:	00033c03 	andeq	r3, r3, r3, lsl #24
    5734:	d9ab0400 	stmible	fp!, {sl}
    5738:	03000000 	movweq	r0, #0
    573c:	000001a2 	andeq	r0, r0, r2, lsr #3
    5740:	0076af04 	rsbseq	sl, r6, r4, lsl #30
    5744:	040c0000 	streq	r0, [ip], #-0
    5748:	0118040d 	tsteq	r8, sp, lsl #8
    574c:	01040000 	mrseq	r0, (UNDEF: 4)
    5750:	00030108 	andeq	r0, r3, r8, lsl #2
    5754:	01180e00 	tsteq	r8, r0, lsl #28
    5758:	53030000 	movwpl	r0, #12288	; 0x3000
    575c:	05000004 	streq	r0, [r0, #-4]
    5760:	00006116 	andeq	r6, r0, r6, lsl r1
    5764:	01b30f00 			; <UNDEFINED> instruction: 0x01b30f00
    5768:	05180000 	ldreq	r0, [r8, #-0]
    576c:	0001822d 	andeq	r8, r1, sp, lsr #4
    5770:	035d0b00 	cmpeq	sp, #0, 22
    5774:	2f050000 	svccs	0x00050000
    5778:	00000182 	andeq	r0, r0, r2, lsl #3
    577c:	6b5f1000 	blvs	17c9784 <__bss_end__+0x17bf75c>
    5780:	25300500 	ldrcs	r0, [r0, #-1280]!	; 0xfffffb00
    5784:	04000000 	streq	r0, [r0], #-0
    5788:	0003940b 	andeq	r9, r3, fp, lsl #8
    578c:	25300500 	ldrcs	r0, [r0, #-1280]!	; 0xfffffb00
    5790:	08000000 	stmdaeq	r0, {}	; <UNPREDICTABLE>
    5794:	00019c0b 	andeq	r9, r1, fp, lsl #24
    5798:	25300500 	ldrcs	r0, [r0, #-1280]!	; 0xfffffb00
    579c:	0c000000 	stceq	0, cr0, [r0], {-0}
    57a0:	0004a10b 	andeq	sl, r4, fp, lsl #2
    57a4:	25300500 	ldrcs	r0, [r0, #-1280]!	; 0xfffffb00
    57a8:	10000000 	andne	r0, r0, r0
    57ac:	00785f10 	rsbseq	r5, r8, r0, lsl pc
    57b0:	01883105 	orreq	r3, r8, r5, lsl #2
    57b4:	00140000 	andseq	r0, r4, r0
    57b8:	012f040d 			; <UNDEFINED> instruction: 0x012f040d
    57bc:	24080000 	strcs	r0, [r8], #-0
    57c0:	98000001 	stmdals	r0, {r0}
    57c4:	09000001 	stmdbeq	r0, {r0}
    57c8:	000000d2 	ldrdeq	r0, [r0], -r2
    57cc:	e00f0000 	and	r0, pc, r0
    57d0:	24000001 	strcs	r0, [r0], #-1
    57d4:	02113505 	andseq	r3, r1, #20971520	; 0x1400000
    57d8:	a10b0000 	mrsge	r0, (UNDEF: 11)
    57dc:	05000000 	streq	r0, [r0, #-0]
    57e0:	00002537 	andeq	r2, r0, r7, lsr r5
    57e4:	c70b0000 	strgt	r0, [fp, -r0]
    57e8:	05000003 	streq	r0, [r0, #-3]
    57ec:	00002538 	andeq	r2, r0, r8, lsr r5
    57f0:	c40b0400 	strgt	r0, [fp], #-1024	; 0xfffffc00
    57f4:	05000000 	streq	r0, [r0, #-0]
    57f8:	00002539 	andeq	r2, r0, r9, lsr r5
    57fc:	220b0800 	andcs	r0, fp, #0, 16
    5800:	05000005 	streq	r0, [r0, #-5]
    5804:	0000253a 	andeq	r2, r0, sl, lsr r5
    5808:	b90b0c00 	stmdblt	fp, {sl, fp}
    580c:	05000002 	streq	r0, [r0, #-2]
    5810:	0000253b 	andeq	r2, r0, fp, lsr r5
    5814:	920b1000 	andls	r1, fp, #0
    5818:	05000002 	streq	r0, [r0, #-2]
    581c:	0000253c 	andeq	r2, r0, ip, lsr r5
    5820:	a60b1400 	strge	r1, [fp], -r0, lsl #8
    5824:	05000004 	streq	r0, [r0, #-4]
    5828:	0000253d 	andeq	r2, r0, sp, lsr r5
    582c:	1e0b1800 	cdpne	8, 0, cr1, cr11, cr0, {0}
    5830:	05000003 	streq	r0, [r0, #-3]
    5834:	0000253e 	andeq	r2, r0, lr, lsr r5
    5838:	e90b1c00 	stmdb	fp, {sl, fp, ip}
    583c:	05000004 	streq	r0, [r0, #-4]
    5840:	0000253f 	andeq	r2, r0, pc, lsr r5
    5844:	11002000 	mrsne	r2, (UNDEF: 0)
    5848:	00000104 	andeq	r0, r0, r4, lsl #2
    584c:	48050108 	stmdami	r5, {r3, r8}
    5850:	00000251 	andeq	r0, r0, r1, asr r2
    5854:	00018f0b 	andeq	r8, r1, fp, lsl #30
    5858:	51490500 	cmppl	r9, r0, lsl #10
    585c:	00000002 	andeq	r0, r0, r2
    5860:	0000000b 	andeq	r0, r0, fp
    5864:	514a0500 	cmppl	sl, r0, lsl #10
    5868:	80000002 	andhi	r0, r0, r2
    586c:	00044512 	andeq	r4, r4, r2, lsl r5
    5870:	244c0500 	strbcs	r0, [ip], #-1280	; 0xfffffb00
    5874:	00000001 	andeq	r0, r0, r1
    5878:	01291201 			; <UNDEFINED> instruction: 0x01291201
    587c:	4f050000 	svcmi	0x00050000
    5880:	00000124 	andeq	r0, r0, r4, lsr #2
    5884:	08000104 	stmdaeq	r0, {r2, r8}
    5888:	00000110 	andeq	r0, r0, r0, lsl r1
    588c:	00000261 	andeq	r0, r0, r1, ror #4
    5890:	0000d209 	andeq	sp, r0, r9, lsl #4
    5894:	11001f00 	tstne	r0, r0, lsl #30
    5898:	000002c2 	andeq	r0, r0, r2, asr #5
    589c:	5b050190 	blpl	145ee4 <__bss_end__+0x13bebc>
    58a0:	0000029f 	muleq	r0, pc, r2	; <UNPREDICTABLE>
    58a4:	00035d0b 	andeq	r5, r3, fp, lsl #26
    58a8:	9f5c0500 	svcls	0x005c0500
    58ac:	00000002 	andeq	r0, r0, r2
    58b0:	0003750b 	andeq	r7, r3, fp, lsl #10
    58b4:	255d0500 	ldrbcs	r0, [sp, #-1280]	; 0xfffffb00
    58b8:	04000000 	streq	r0, [r0], #-0
    58bc:	0001970b 	andeq	r9, r1, fp, lsl #14
    58c0:	a55f0500 	ldrbge	r0, [pc, #-1280]	; 53c8 <_start-0x2c38>
    58c4:	08000002 	stmdaeq	r0, {r1}
    58c8:	0001040b 	andeq	r0, r1, fp, lsl #8
    58cc:	11600500 	cmnne	r0, r0, lsl #10
    58d0:	88000002 	stmdahi	r0, {r1}
    58d4:	61040d00 	tstvs	r4, r0, lsl #26
    58d8:	08000002 	stmdaeq	r0, {r1}
    58dc:	000002b5 			; <UNDEFINED> instruction: 0x000002b5
    58e0:	000002b5 			; <UNDEFINED> instruction: 0x000002b5
    58e4:	0000d209 	andeq	sp, r0, r9, lsl #4
    58e8:	0d001f00 	stceq	15, cr1, [r0, #-0]
    58ec:	0002bb04 	andeq	fp, r2, r4, lsl #22
    58f0:	280f1300 	stmdacs	pc, {r8, r9, ip}	; <UNPREDICTABLE>
    58f4:	08000003 	stmdaeq	r0, {r0, r1}
    58f8:	02e17305 	rsceq	r7, r1, #335544320	; 0x14000000
    58fc:	be0b0000 	cdplt	0, 0, cr0, cr11, cr0, {0}
    5900:	05000000 	streq	r0, [r0, #-0]
    5904:	0002e174 	andeq	lr, r2, r4, ror r1
    5908:	1b0b0000 	blne	2c5910 <__bss_end__+0x2bb8e8>
    590c:	05000000 	streq	r0, [r0, #-0]
    5910:	00002575 	andeq	r2, r0, r5, ror r5
    5914:	0d000400 	cfstrseq	mvf0, [r0, #-0]
    5918:	00004504 	andeq	r4, r0, r4, lsl #10
    591c:	03470f00 	movteq	r0, #32512	; 0x7f00
    5920:	05680000 	strbeq	r0, [r8, #-0]!
    5924:	000411b3 			; <UNDEFINED> instruction: 0x000411b3
    5928:	705f1000 	subsvc	r1, pc, r0
    592c:	e1b40500 			; <UNDEFINED> instruction: 0xe1b40500
    5930:	00000002 	andeq	r0, r0, r2
    5934:	00725f10 	rsbseq	r5, r2, r0, lsl pc
    5938:	0025b505 	eoreq	fp, r5, r5, lsl #10
    593c:	10040000 	andne	r0, r4, r0
    5940:	0500775f 	streq	r7, [r0, #-1887]	; 0xfffff8a1
    5944:	000025b6 			; <UNDEFINED> instruction: 0x000025b6
    5948:	220b0800 	andcs	r0, fp, #0, 16
    594c:	05000001 	streq	r0, [r0, #-1]
    5950:	00004cb7 			; <UNDEFINED> instruction: 0x00004cb7
    5954:	0b0b0c00 	bleq	2c895c <__bss_end__+0x2be934>
    5958:	05000002 	streq	r0, [r0, #-2]
    595c:	00004cb8 			; <UNDEFINED> instruction: 0x00004cb8
    5960:	5f100e00 	svcpl	0x00100e00
    5964:	05006662 	streq	r6, [r0, #-1634]	; 0xfffff99e
    5968:	0002bcb9 			; <UNDEFINED> instruction: 0x0002bcb9
    596c:	7b0b1000 	blvc	2c9974 <__bss_end__+0x2bf94c>
    5970:	05000000 	streq	r0, [r0, #-0]
    5974:	000025ba 			; <UNDEFINED> instruction: 0x000025ba
    5978:	120b1800 	andne	r1, fp, #0, 16
    597c:	05000001 	streq	r0, [r0, #-1]
    5980:	000110c1 	andeq	r1, r1, r1, asr #1
    5984:	780b1c00 	stmdavc	fp, {sl, fp, ip}
    5988:	0500000a 	streq	r0, [r0, #-10]
    598c:	00056cc3 	andeq	r6, r5, r3, asr #25
    5990:	0c0b2000 	stceq	0, cr2, [fp], {-0}
    5994:	05000006 	streq	r0, [r0, #-6]
    5998:	000596c5 	andeq	r9, r5, r5, asr #13
    599c:	b90b2400 	stmdblt	fp, {sl, sp}
    59a0:	05000003 	streq	r0, [r0, #-3]
    59a4:	0005bac8 	andeq	fp, r5, r8, asr #21
    59a8:	030b2800 	movweq	r2, #47104	; 0xb800
    59ac:	05000005 	streq	r0, [r0, #-5]
    59b0:	0005d4c9 	andeq	sp, r5, r9, asr #9
    59b4:	5f102c00 	svcpl	0x00102c00
    59b8:	05006275 	streq	r6, [r0, #-629]	; 0xfffffd8b
    59bc:	0002bccc 	andeq	fp, r2, ip, asr #25
    59c0:	5f103000 	svcpl	0x00103000
    59c4:	05007075 	streq	r7, [r0, #-117]	; 0xffffff8b
    59c8:	0002e1cd 	andeq	lr, r2, sp, asr #3
    59cc:	5f103800 	svcpl	0x00103800
    59d0:	05007275 	streq	r7, [r0, #-629]	; 0xfffffd8b
    59d4:	000025ce 	andeq	r2, r0, lr, asr #11
    59d8:	b80b3c00 	stmdalt	fp, {sl, fp, ip, sp}
    59dc:	05000000 	streq	r0, [r0, #-0]
    59e0:	0005dad1 	ldrdeq	sp, [r5], -r1
    59e4:	db0b4000 	blle	2d59ec <__bss_end__+0x2cb9c4>
    59e8:	05000004 	streq	r0, [r0, #-4]
    59ec:	0005ead2 	ldrdeq	lr, [r5], -r2
    59f0:	5f104300 	svcpl	0x00104300
    59f4:	0500626c 	streq	r6, [r0, #-620]	; 0xfffffd94
    59f8:	0002bcd5 	ldrdeq	fp, [r2], -r5
    59fc:	400b4400 	andmi	r4, fp, r0, lsl #8
    5a00:	05000001 	streq	r0, [r0, #-1]
    5a04:	000025d8 	ldrdeq	r2, [r0], -r8
    5a08:	510b4c00 	tstpl	fp, r0, lsl #24
    5a0c:	05000001 	streq	r0, [r0, #-1]
    5a10:	000081d9 	ldrdeq	r8, [r0], -r9
    5a14:	190b5000 	stmdbne	fp, {ip, lr}
    5a18:	0500000a 	streq	r0, [r0, #-10]
    5a1c:	00042fdc 	ldrdeq	r2, [r4], -ip
    5a20:	840b5400 	strhi	r5, [fp], #-1024	; 0xfffffc00
    5a24:	05000002 	streq	r0, [r0, #-2]
    5a28:	000105e0 	andeq	r0, r1, r0, ror #11
    5a2c:	4f0b5800 	svcmi	0x000b5800
    5a30:	05000003 	streq	r0, [r0, #-3]
    5a34:	0000fae2 	andeq	pc, r0, r2, ror #21
    5a38:	8a0b5c00 	bhi	2dca40 <__bss_end__+0x2d2a18>
    5a3c:	05000002 	streq	r0, [r0, #-2]
    5a40:	000025e3 	andeq	r2, r0, r3, ror #11
    5a44:	14006400 	strne	r6, [r0], #-1024	; 0xfffffc00
    5a48:	00000025 	andeq	r0, r0, r5, lsr #32
    5a4c:	0000042f 	andeq	r0, r0, pc, lsr #8
    5a50:	00042f15 	andeq	r2, r4, r5, lsl pc
    5a54:	01101500 	tsteq	r0, r0, lsl #10
    5a58:	12150000 	andsne	r0, r5, #0
    5a5c:	15000001 	strne	r0, [r0, #-1]
    5a60:	00000025 	andeq	r0, r0, r5, lsr #32
    5a64:	3a040d00 	bcc	108e6c <__bss_end__+0xfee44>
    5a68:	0e000004 	cdpeq	0, 0, cr0, cr0, cr4, {0}
    5a6c:	0000042f 	andeq	r0, r0, pc, lsr #8
    5a70:	00039c16 	andeq	r9, r3, r6, lsl ip
    5a74:	05042800 	streq	r2, [r4, #-2048]	; 0xfffff800
    5a78:	056c0238 	strbeq	r0, [ip, #-568]!	; 0xfffffdc8
    5a7c:	0d170000 	ldceq	0, cr0, [r7, #-0]
    5a80:	05000003 	streq	r0, [r0, #-3]
    5a84:	0025023a 	eoreq	r0, r5, sl, lsr r2
    5a88:	17000000 	strne	r0, [r0, -r0]
    5a8c:	00000131 	andeq	r0, r0, r1, lsr r1
    5a90:	41023f05 	tstmi	r2, r5, lsl #30
    5a94:	04000006 	streq	r0, [r0], #-6
    5a98:	0001fb17 	andeq	pc, r1, r7, lsl fp	; <UNPREDICTABLE>
    5a9c:	023f0500 	eorseq	r0, pc, #0, 10
    5aa0:	00000641 	andeq	r0, r0, r1, asr #12
    5aa4:	01ab1708 			; <UNDEFINED> instruction: 0x01ab1708
    5aa8:	3f050000 	svccc	0x00050000
    5aac:	00064102 	andeq	r4, r6, r2, lsl #2
    5ab0:	70170c00 	andsvc	r0, r7, r0, lsl #24
    5ab4:	05000003 	streq	r0, [r0, #-3]
    5ab8:	00250241 	eoreq	r0, r5, r1, asr #4
    5abc:	17100000 	ldrne	r0, [r0, -r0]
    5ac0:	00000029 	andeq	r0, r0, r9, lsr #32
    5ac4:	23024205 	movwcs	r4, #8709	; 0x2205
    5ac8:	14000008 	strne	r0, [r0], #-8
    5acc:	00047b17 	andeq	r7, r4, r7, lsl fp
    5ad0:	02440500 	subeq	r0, r4, #0, 10
    5ad4:	00000025 	andeq	r0, r0, r5, lsr #32
    5ad8:	037a1730 	cmneq	sl, #48, 14	; 0xc00000
    5adc:	45050000 	strmi	r0, [r5, #-0]
    5ae0:	00059002 	andeq	r9, r5, r2
    5ae4:	ca173400 	bgt	5d2aec <__bss_end__+0x5c8ac4>
    5ae8:	05000002 	streq	r0, [r0, #-2]
    5aec:	00250247 	eoreq	r0, r5, r7, asr #4
    5af0:	17380000 	ldrne	r0, [r8, -r0]!
    5af4:	0000038a 	andeq	r0, r0, sl, lsl #7
    5af8:	3e024905 	vmlacc.f16	s8, s4, s10	; <UNPREDICTABLE>
    5afc:	3c000008 	stccc	0, cr0, [r0], {8}
    5b00:	00026817 	andeq	r6, r2, r7, lsl r8
    5b04:	024c0500 	subeq	r0, ip, #0, 10
    5b08:	00000182 	andeq	r0, r0, r2, lsl #3
    5b0c:	01ca1740 	biceq	r1, sl, r0, asr #14
    5b10:	4d050000 	stcmi	0, cr0, [r5, #-0]
    5b14:	00002502 	andeq	r2, r0, r2, lsl #10
    5b18:	1d174400 	cfldrsne	mvf4, [r7, #-0]
    5b1c:	05000005 	streq	r0, [r0, #-5]
    5b20:	0182024e 	orreq	r0, r2, lr, asr #4
    5b24:	17480000 	strbne	r0, [r8, -r0]
    5b28:	000002dc 	ldrdeq	r0, [r0], -ip
    5b2c:	44024f05 	strmi	r4, [r2], #-3845	; 0xfffff0fb
    5b30:	4c000008 	stcmi	0, cr0, [r0], {8}
    5b34:	00020317 	andeq	r0, r2, r7, lsl r3
    5b38:	02520500 	subseq	r0, r2, #0, 10
    5b3c:	00000025 	andeq	r0, r0, r5, lsr #32
    5b40:	01491750 	cmpeq	r9, r0, asr r7
    5b44:	53050000 	movwpl	r0, #20480	; 0x5000
    5b48:	00011202 	andeq	r1, r1, r2, lsl #4
    5b4c:	06175400 	ldreq	r5, [r7], -r0, lsl #8
    5b50:	05000003 	streq	r0, [r0, #-3]
    5b54:	08010276 	stmdaeq	r1, {r1, r2, r4, r5, r6, r9}
    5b58:	18580000 	ldmdane	r8, {}^	; <UNPREDICTABLE>
    5b5c:	000002c2 	andeq	r0, r0, r2, asr #5
    5b60:	9f027a05 	svcls	0x00027a05
    5b64:	48000002 	stmdami	r0, {r1}
    5b68:	02461801 	subeq	r1, r6, #65536	; 0x10000
    5b6c:	7b050000 	blvc	145b74 <__bss_end__+0x13bb4c>
    5b70:	00026102 	andeq	r6, r2, r2, lsl #2
    5b74:	18014c00 	stmdane	r1, {sl, fp, lr}
    5b78:	000004c9 	andeq	r0, r0, r9, asr #9
    5b7c:	55027f05 	strpl	r7, [r2, #-3845]	; 0xfffff0fb
    5b80:	dc000008 	stcle	0, cr0, [r0], {8}
    5b84:	011a1802 	tsteq	sl, r2, lsl #16
    5b88:	84050000 	strhi	r0, [r5], #-0
    5b8c:	00060602 	andeq	r0, r6, r2, lsl #12
    5b90:	1802e000 	stmdane	r2, {sp, lr, pc}
    5b94:	000000ff 	strdeq	r0, [r0], -pc	; <UNPREDICTABLE>
    5b98:	61028505 	tstvs	r2, r5, lsl #10
    5b9c:	ec000008 	stc	0, cr0, [r0], {8}
    5ba0:	040d0002 	streq	r0, [sp], #-2
    5ba4:	00000411 	andeq	r0, r0, r1, lsl r4
    5ba8:	00002514 	andeq	r2, r0, r4, lsl r5
    5bac:	00059000 	andeq	r9, r5, r0
    5bb0:	042f1500 	strteq	r1, [pc], #-1280	; 5bb8 <_start-0x2448>
    5bb4:	10150000 	andsne	r0, r5, r0
    5bb8:	15000001 	strne	r0, [r0, #-1]
    5bbc:	00000590 	muleq	r0, r0, r5
    5bc0:	00002515 	andeq	r2, r0, r5, lsl r5
    5bc4:	040d0000 	streq	r0, [sp], #-0
    5bc8:	0000011f 	andeq	r0, r0, pc, lsl r1
    5bcc:	0572040d 	ldrbeq	r0, [r2, #-1037]!	; 0xfffffbf3
    5bd0:	8c140000 	ldchi	0, cr0, [r4], {-0}
    5bd4:	ba000000 	blt	5bdc <_start-0x2424>
    5bd8:	15000005 	strne	r0, [r0, #-5]
    5bdc:	0000042f 	andeq	r0, r0, pc, lsr #8
    5be0:	00011015 	andeq	r1, r1, r5, lsl r0
    5be4:	008c1500 	addeq	r1, ip, r0, lsl #10
    5be8:	25150000 	ldrcs	r0, [r5, #-0]
    5bec:	00000000 	andeq	r0, r0, r0
    5bf0:	059c040d 	ldreq	r0, [ip, #1037]	; 0x40d
    5bf4:	25140000 	ldrcs	r0, [r4, #-0]
    5bf8:	d4000000 	strle	r0, [r0], #-0
    5bfc:	15000005 	strne	r0, [r0, #-5]
    5c00:	0000042f 	andeq	r0, r0, pc, lsr #8
    5c04:	00011015 	andeq	r1, r1, r5, lsl r0
    5c08:	040d0000 	streq	r0, [sp], #-0
    5c0c:	000005c0 	andeq	r0, r0, r0, asr #11
    5c10:	00004508 	andeq	r4, r0, r8, lsl #10
    5c14:	0005ea00 	andeq	lr, r5, r0, lsl #20
    5c18:	00d20900 	sbcseq	r0, r2, r0, lsl #18
    5c1c:	00020000 	andeq	r0, r2, r0
    5c20:	00004508 	andeq	r4, r0, r8, lsl #10
    5c24:	0005fa00 	andeq	pc, r5, r0, lsl #20
    5c28:	00d20900 	sbcseq	r0, r2, r0, lsl #18
    5c2c:	00000000 	andeq	r0, r0, r0
    5c30:	00033505 	andeq	r3, r3, r5, lsl #10
    5c34:	011d0500 	tsteq	sp, r0, lsl #10
    5c38:	000002e7 	andeq	r0, r0, r7, ror #5
    5c3c:	0004b019 	andeq	fp, r4, r9, lsl r0
    5c40:	21050c00 	tstcs	r5, r0, lsl #24
    5c44:	00063b01 	andeq	r3, r6, r1, lsl #22
    5c48:	035d1700 	cmpeq	sp, #0, 14
    5c4c:	23050000 	movwcs	r0, #20480	; 0x5000
    5c50:	00063b01 	andeq	r3, r6, r1, lsl #22
    5c54:	1e170000 	cdpne	0, 1, cr0, cr7, cr0, {0}
    5c58:	05000002 	streq	r0, [r0, #-2]
    5c5c:	00250124 	eoreq	r0, r5, r4, lsr #2
    5c60:	17040000 	strne	r0, [r4, -r0]
    5c64:	0000032f 	andeq	r0, r0, pc, lsr #6
    5c68:	41012505 	tstmi	r1, r5, lsl #10
    5c6c:	08000006 	stmdaeq	r0, {r1, r2}
    5c70:	06040d00 	streq	r0, [r4], -r0, lsl #26
    5c74:	0d000006 	stceq	0, cr0, [r0, #-24]	; 0xffffffe8
    5c78:	0005fa04 	andeq	pc, r5, r4, lsl #20
    5c7c:	00211900 	eoreq	r1, r1, r0, lsl #18
    5c80:	050e0000 	streq	r0, [lr, #-0]
    5c84:	067c013d 			; <UNDEFINED> instruction: 0x067c013d
    5c88:	a3170000 	tstge	r7, #0
    5c8c:	05000003 	streq	r0, [r0, #-3]
    5c90:	067c013e 			; <UNDEFINED> instruction: 0x067c013e
    5c94:	17000000 	strne	r0, [r0, -r0]
    5c98:	000003d0 	ldrdeq	r0, [r0], -r0	; <UNPREDICTABLE>
    5c9c:	7c013f05 	stcvc	15, cr3, [r1], {5}
    5ca0:	06000006 	streq	r0, [r0], -r6
    5ca4:	00044e17 	andeq	r4, r4, r7, lsl lr
    5ca8:	01400500 	cmpeq	r0, r0, lsl #10
    5cac:	00000053 	andeq	r0, r0, r3, asr r0
    5cb0:	5308000c 	movwpl	r0, #32780	; 0x800c
    5cb4:	8c000000 	stchi	0, cr0, [r0], {-0}
    5cb8:	09000006 	stmdbeq	r0, {r1, r2}
    5cbc:	000000d2 	ldrdeq	r0, [r0], -r2
    5cc0:	d01a0002 	andsle	r0, sl, r2
    5cc4:	8d025705 	stchi	7, cr5, [r2, #-20]	; 0xffffffec
    5cc8:	17000007 	strne	r0, [r0, -r7]
    5ccc:	00000494 	muleq	r0, r4, r4
    5cd0:	37025905 	strcc	r5, [r2, -r5, lsl #18]
    5cd4:	00000000 	andeq	r0, r0, r0
    5cd8:	00043817 	andeq	r3, r4, r7, lsl r8
    5cdc:	025a0500 	subseq	r0, sl, #0, 10
    5ce0:	00000112 	andeq	r0, r0, r2, lsl r1
    5ce4:	025b1704 	subseq	r1, fp, #4, 14	; 0x100000
    5ce8:	5b050000 	blpl	145cf0 <__bss_end__+0x13bcc8>
    5cec:	00078d02 	andeq	r8, r7, r2, lsl #26
    5cf0:	f4170800 			; <UNDEFINED> instruction: 0xf4170800
    5cf4:	05000004 	streq	r0, [r0, #-4]
    5cf8:	0198025c 	orrseq	r0, r8, ip, asr r2
    5cfc:	17240000 	strne	r0, [r4, -r0]!
    5d00:	000001bb 			; <UNDEFINED> instruction: 0x000001bb
    5d04:	25025d05 	strcs	r5, [r2, #-3333]	; 0xfffff2fb
    5d08:	48000000 	stmdami	r0, {}	; <UNPREDICTABLE>
    5d0c:	00035817 	andeq	r5, r3, r7, lsl r8
    5d10:	025e0500 	subseq	r0, lr, #0, 10
    5d14:	0000006f 	andeq	r0, r0, pc, rrx
    5d18:	050a1750 	streq	r1, [sl, #-1872]	; 0xfffff8b0
    5d1c:	5f050000 	svcpl	0x00050000
    5d20:	00064702 	andeq	r4, r6, r2, lsl #14
    5d24:	63175800 	tstvs	r7, #0, 16
    5d28:	05000003 	streq	r0, [r0, #-3]
    5d2c:	00fa0260 	rscseq	r0, sl, r0, ror #4
    5d30:	17680000 	strbne	r0, [r8, -r0]!
    5d34:	0000050f 	andeq	r0, r0, pc, lsl #10
    5d38:	fa026105 	blx	9e154 <__bss_end__+0x9412c>
    5d3c:	70000000 	andvc	r0, r0, r0
    5d40:	00009317 	andeq	r9, r0, r7, lsl r3
    5d44:	02620500 	rsbeq	r0, r2, #0, 10
    5d48:	000000fa 	strdeq	r0, [r0], -sl
    5d4c:	04bf1778 	ldrteq	r1, [pc], #1912	; 5d54 <_start-0x22ac>
    5d50:	63050000 	movwvs	r0, #20480	; 0x5000
    5d54:	00079d02 	andeq	r9, r7, r2, lsl #26
    5d58:	4f178000 	svcmi	0x00178000
    5d5c:	05000002 	streq	r0, [r0, #-2]
    5d60:	07ad0264 	streq	r0, [sp, r4, ror #4]!
    5d64:	17880000 	strne	r0, [r8, r0]
    5d68:	0000045b 	andeq	r0, r0, fp, asr r4
    5d6c:	25026505 	strcs	r6, [r2, #-1285]	; 0xfffffafb
    5d70:	a0000000 	andge	r0, r0, r0
    5d74:	00018117 	andeq	r8, r1, r7, lsl r1
    5d78:	02660500 	rsbeq	r0, r6, #0, 10
    5d7c:	000000fa 	strdeq	r0, [r0], -sl
    5d80:	008417a4 	addeq	r1, r4, r4, lsr #15
    5d84:	67050000 	strvs	r0, [r5, -r0]
    5d88:	0000fa02 	andeq	pc, r0, r2, lsl #20
    5d8c:	7017ac00 	andsvc	sl, r7, r0, lsl #24
    5d90:	05000001 	streq	r0, [r0, #-1]
    5d94:	00fa0268 	rscseq	r0, sl, r8, ror #4
    5d98:	17b40000 	ldrne	r0, [r4, r0]!
    5d9c:	0000003c 	andeq	r0, r0, ip, lsr r0
    5da0:	fa026905 	blx	a01bc <__bss_end__+0x96194>
    5da4:	bc000000 	stclt	0, cr0, [r0], {-0}
    5da8:	00004b17 	andeq	r4, r0, r7, lsl fp
    5dac:	026a0500 	rsbeq	r0, sl, #0, 10
    5db0:	000000fa 	strdeq	r0, [r0], -sl
    5db4:	030b17c4 	movweq	r1, #47044	; 0xb7c4
    5db8:	6b050000 	blvs	145dc0 <__bss_end__+0x13bd98>
    5dbc:	00002502 	andeq	r2, r0, r2, lsl #10
    5dc0:	0800cc00 	stmdaeq	r0, {sl, fp, lr, pc}
    5dc4:	00000118 	andeq	r0, r0, r8, lsl r1
    5dc8:	0000079d 	muleq	r0, sp, r7
    5dcc:	0000d209 	andeq	sp, r0, r9, lsl #4
    5dd0:	08001900 	stmdaeq	r0, {r8, fp, ip}
    5dd4:	00000118 	andeq	r0, r0, r8, lsl r1
    5dd8:	000007ad 	andeq	r0, r0, sp, lsr #15
    5ddc:	0000d209 	andeq	sp, r0, r9, lsl #4
    5de0:	08000700 	stmdaeq	r0, {r8, r9, sl}
    5de4:	00000118 	andeq	r0, r0, r8, lsl r1
    5de8:	000007bd 			; <UNDEFINED> instruction: 0x000007bd
    5dec:	0000d209 	andeq	sp, r0, r9, lsl #4
    5df0:	1a001700 	bne	b9f8 <__bss_end__+0x19d0>
    5df4:	027005f0 	rsbseq	r0, r0, #240, 10	; 0x3c000000
    5df8:	000007e1 	andeq	r0, r0, r1, ror #15
    5dfc:	0002b217 	andeq	fp, r2, r7, lsl r2
    5e00:	02730500 	rsbseq	r0, r3, #0, 10
    5e04:	000007e1 	andeq	r0, r0, r1, ror #15
    5e08:	04b61700 	ldrteq	r1, [r6], #1792	; 0x700
    5e0c:	74050000 	strvc	r0, [r5], #-0
    5e10:	0007f102 	andeq	pc, r7, r2, lsl #2
    5e14:	08007800 	stmdaeq	r0, {fp, ip, sp, lr}
    5e18:	000002e1 	andeq	r0, r0, r1, ror #5
    5e1c:	000007f1 	strdeq	r0, [r0], -r1
    5e20:	0000d209 	andeq	sp, r0, r9, lsl #4
    5e24:	08001d00 	stmdaeq	r0, {r8, sl, fp, ip}
    5e28:	00000037 	andeq	r0, r0, r7, lsr r0
    5e2c:	00000801 	andeq	r0, r0, r1, lsl #16
    5e30:	0000d209 	andeq	sp, r0, r9, lsl #4
    5e34:	1b001d00 	blne	d23c <__bss_end__+0x3214>
    5e38:	025505f0 	subseq	r0, r5, #240, 10	; 0x3c000000
    5e3c:	00000823 	andeq	r0, r0, r3, lsr #16
    5e40:	00039c1c 	andeq	r9, r3, ip, lsl ip
    5e44:	026c0500 	rsbeq	r0, ip, #0, 10
    5e48:	0000068c 	andeq	r0, r0, ip, lsl #13
    5e4c:	0004e11c 	andeq	lr, r4, ip, lsl r1
    5e50:	02750500 	rsbseq	r0, r5, #0, 10
    5e54:	000007bd 			; <UNDEFINED> instruction: 0x000007bd
    5e58:	01180800 	tsteq	r8, r0, lsl #16
    5e5c:	08330000 	ldmdaeq	r3!, {}	; <UNPREDICTABLE>
    5e60:	d2090000 	andle	r0, r9, #0
    5e64:	18000000 	stmdane	r0, {}	; <UNPREDICTABLE>
    5e68:	083e1d00 	ldmdaeq	lr!, {r8, sl, fp, ip}
    5e6c:	2f150000 	svccs	0x00150000
    5e70:	00000004 	andeq	r0, r0, r4
    5e74:	0833040d 	ldmdaeq	r3!, {r0, r2, r3, sl}
    5e78:	040d0000 	streq	r0, [sp], #-0
    5e7c:	00000182 	andeq	r0, r0, r2, lsl #3
    5e80:	0008551d 	andeq	r5, r8, sp, lsl r5
    5e84:	00251500 	eoreq	r1, r5, r0, lsl #10
    5e88:	0d000000 	stceq	0, cr0, [r0, #-0]
    5e8c:	00085b04 	andeq	r5, r8, r4, lsl #22
    5e90:	4a040d00 	bmi	109298 <__bss_end__+0xff270>
    5e94:	08000008 	stmdaeq	r0, {r3}
    5e98:	000005fa 	strdeq	r0, [r0], -sl
    5e9c:	00000871 	andeq	r0, r0, r1, ror r8
    5ea0:	0000d209 	andeq	sp, r0, r9, lsl #4
    5ea4:	1e000200 	cdpne	2, 0, cr0, cr0, cr0, {0}
    5ea8:	0000046f 	andeq	r0, r0, pc, ror #8
    5eac:	2f02fd05 	svccs	0x0002fd05
    5eb0:	1e000004 	cdpne	0, 0, cr0, cr0, cr4, {0}
    5eb4:	00000468 	andeq	r0, r0, r8, ror #8
    5eb8:	3502fe05 	strcc	pc, [r2, #-3589]	; 0xfffff1fb
    5ebc:	1f000004 	svcne	0x00000004
    5ec0:	0000048d 	andeq	r0, r0, sp, lsl #9
    5ec4:	01101906 	tsteq	r0, r6, lsl #18
    5ec8:	90500000 	subsls	r0, r0, r0
    5ecc:	00200000 	eoreq	r0, r0, r0
    5ed0:	9c010000 	stcls	0, cr0, [r1], {-0}
    5ed4:	00705f20 	rsbseq	r5, r0, r0, lsr #30
    5ed8:	01100301 	tsteq	r0, r1, lsl #6
    5edc:	50010000 	andpl	r0, r1, r0
    5ee0:	01006320 	tsteq	r0, r0, lsr #6
    5ee4:	00002503 	andeq	r2, r0, r3, lsl #10
    5ee8:	21510100 	cmpcs	r1, r0, lsl #2
    5eec:	0301006e 	movweq	r0, #4206	; 0x106e
    5ef0:	0000002c 	andeq	r0, r0, ip, lsr #32
    5ef4:	00000f59 	andeq	r0, r0, r9, asr pc
    5ef8:	01007022 	tsteq	r0, r2, lsr #32
    5efc:	00011204 	andeq	r1, r1, r4, lsl #4
    5f00:	000f7a00 	andeq	r7, pc, r0, lsl #20
    5f04:	00652300 	rsbeq	r2, r5, r0, lsl #6
    5f08:	01120401 	tsteq	r2, r1, lsl #8
    5f0c:	52010000 	andpl	r0, r1, #0
    5f10:	09360000 	ldmdbeq	r6!, {}	; <UNPREDICTABLE>
    5f14:	00040000 	andeq	r0, r4, r0
    5f18:	00001183 	andeq	r1, r0, r3, lsl #3
    5f1c:	03d60104 	bicseq	r0, r6, #4, 2
    5f20:	c60c0000 	strgt	r0, [ip], -r0
    5f24:	de000007 	cdple	0, 0, cr0, cr0, cr7, {0}
    5f28:	70000006 	andvc	r0, r0, r6
    5f2c:	34000090 	strcc	r0, [r0], #-144	; 0xffffff70
    5f30:	05000000 	streq	r0, [r0, #-0]
    5f34:	0200000a 	andeq	r0, r0, #10
    5f38:	6e690504 	cdpvs	5, 6, cr0, cr9, cr4, {0}
    5f3c:	04030074 	streq	r0, [r3], #-116	; 0xffffff8c
    5f40:	00006607 	andeq	r6, r0, r7, lsl #12
    5f44:	06010300 	streq	r0, [r1], -r0, lsl #6
    5f48:	000002fa 	strdeq	r0, [r0], -sl
    5f4c:	14050203 	strne	r0, [r5], #-515	; 0xfffffdfd
    5f50:	03000003 	movweq	r0, #3
    5f54:	00af0504 	adceq	r0, pc, r4, lsl #10
    5f58:	08030000 	stmdaeq	r3, {}	; <UNPREDICTABLE>
    5f5c:	0000aa05 	andeq	sl, r0, r5, lsl #20
    5f60:	08010300 	stmdaeq	r1, {r8, r9}
    5f64:	000002f8 	strdeq	r0, [r0], -r8
    5f68:	25070203 	strcs	r0, [r7, #-515]	; 0xfffffdfd
    5f6c:	03000002 	movweq	r0, #2
    5f70:	00610704 	rsbeq	r0, r1, r4, lsl #14
    5f74:	08030000 	stmdaeq	r3, {}	; <UNPREDICTABLE>
    5f78:	00005c07 	andeq	r5, r0, r7, lsl #24
    5f7c:	02e60400 	rsceq	r0, r6, #0, 8
    5f80:	07020000 	streq	r0, [r2, -r0]
    5f84:	00000025 	andeq	r0, r0, r5, lsr #32
    5f88:	0002d504 	andeq	sp, r2, r4, lsl #10
    5f8c:	412c0300 			; <UNDEFINED> instruction: 0x412c0300
    5f90:	04000000 	streq	r0, [r0], #-0
    5f94:	000003bf 			; <UNDEFINED> instruction: 0x000003bf
    5f98:	00417203 	subeq	r7, r1, r3, lsl #4
    5f9c:	76050000 	strvc	r0, [r5], -r0
    5fa0:	04000002 	streq	r0, [r0], #-2
    5fa4:	002c0165 	eoreq	r0, ip, r5, ror #2
    5fa8:	04060000 	streq	r0, [r6], #-0
    5fac:	00b7a603 	adcseq	sl, r7, r3, lsl #12
    5fb0:	70070000 	andvc	r0, r7, r0
    5fb4:	03000002 	movweq	r0, #2
    5fb8:	00008ca8 	andeq	r8, r0, r8, lsr #25
    5fbc:	01e50700 	mvneq	r0, r0, lsl #14
    5fc0:	a9030000 	stmdbge	r3, {}	; <UNPREDICTABLE>
    5fc4:	000000b7 	strheq	r0, [r0], -r7
    5fc8:	004f0800 	subeq	r0, pc, r0, lsl #16
    5fcc:	00c70000 	sbceq	r0, r7, r0
    5fd0:	c7090000 	strgt	r0, [r9, -r0]
    5fd4:	03000000 	movweq	r0, #0
    5fd8:	07040300 	streq	r0, [r4, -r0, lsl #6]
    5fdc:	000002a9 	andeq	r0, r0, r9, lsr #5
    5fe0:	a303080a 	movwge	r0, #14346	; 0x380a
    5fe4:	000000ef 	andeq	r0, r0, pc, ror #1
    5fe8:	0003a90b 	andeq	sl, r3, fp, lsl #18
    5fec:	25a50300 	strcs	r0, [r5, #768]!	; 0x300
    5ff0:	00000000 	andeq	r0, r0, r0
    5ff4:	0003b10b 	andeq	fp, r3, fp, lsl #2
    5ff8:	98aa0300 	stmials	sl!, {r8, r9}
    5ffc:	04000000 	streq	r0, [r0], #-0
    6000:	033c0400 	teqeq	ip, #0, 8
    6004:	ab030000 	blge	c600c <__bss_end__+0xbbfe4>
    6008:	000000ce 	andeq	r0, r0, lr, asr #1
    600c:	0001a204 	andeq	sl, r1, r4, lsl #4
    6010:	6baf0300 	blvs	febc6c18 <__bss_end__+0xfebbcbf0>
    6014:	0c000000 	stceq	0, cr0, [r0], {-0}
    6018:	0d040d04 	stceq	13, cr0, [r4, #-16]
    601c:	03000001 	movweq	r0, #1
    6020:	03010801 	movweq	r0, #6145	; 0x1801
    6024:	0d0e0000 	stceq	0, cr0, [lr, #-0]
    6028:	04000001 	streq	r0, [r0], #-1
    602c:	00000453 	andeq	r0, r0, r3, asr r4
    6030:	005d1605 	subseq	r1, sp, r5, lsl #12
    6034:	b30f0000 	movwlt	r0, #61440	; 0xf000
    6038:	18000001 	stmdane	r0, {r0}
    603c:	01772d05 	cmneq	r7, r5, lsl #26
    6040:	5d0b0000 	stcpl	0, cr0, [fp, #-0]
    6044:	05000003 	streq	r0, [r0, #-3]
    6048:	0001772f 	andeq	r7, r1, pc, lsr #14
    604c:	5f100000 	svcpl	0x00100000
    6050:	3005006b 	andcc	r0, r5, fp, rrx
    6054:	00000025 	andeq	r0, r0, r5, lsr #32
    6058:	03940b04 	orrseq	r0, r4, #4, 22	; 0x1000
    605c:	30050000 	andcc	r0, r5, r0
    6060:	00000025 	andeq	r0, r0, r5, lsr #32
    6064:	019c0b08 	orrseq	r0, ip, r8, lsl #22
    6068:	30050000 	andcc	r0, r5, r0
    606c:	00000025 	andeq	r0, r0, r5, lsr #32
    6070:	04a10b0c 	strteq	r0, [r1], #2828	; 0xb0c
    6074:	30050000 	andcc	r0, r5, r0
    6078:	00000025 	andeq	r0, r0, r5, lsr #32
    607c:	785f1010 	ldmdavc	pc, {r4, ip}^	; <UNPREDICTABLE>
    6080:	7d310500 	cfldr32vc	mvfx0, [r1, #-0]
    6084:	14000001 	strne	r0, [r0], #-1
    6088:	24040d00 	strcs	r0, [r4], #-3328	; 0xfffff300
    608c:	08000001 	stmdaeq	r0, {r0}
    6090:	00000119 	andeq	r0, r0, r9, lsl r1
    6094:	0000018d 	andeq	r0, r0, sp, lsl #3
    6098:	0000c709 	andeq	ip, r0, r9, lsl #14
    609c:	0f000000 	svceq	0x00000000
    60a0:	000001e0 	andeq	r0, r0, r0, ror #3
    60a4:	06350524 	ldrteq	r0, [r5], -r4, lsr #10
    60a8:	0b000002 	bleq	60b8 <_start-0x1f48>
    60ac:	000000a1 	andeq	r0, r0, r1, lsr #1
    60b0:	00253705 	eoreq	r3, r5, r5, lsl #14
    60b4:	0b000000 	bleq	60bc <_start-0x1f44>
    60b8:	000003c7 	andeq	r0, r0, r7, asr #7
    60bc:	00253805 	eoreq	r3, r5, r5, lsl #16
    60c0:	0b040000 	bleq	1060c8 <__bss_end__+0xfc0a0>
    60c4:	000000c4 	andeq	r0, r0, r4, asr #1
    60c8:	00253905 	eoreq	r3, r5, r5, lsl #18
    60cc:	0b080000 	bleq	2060d4 <__bss_end__+0x1fc0ac>
    60d0:	00000522 	andeq	r0, r0, r2, lsr #10
    60d4:	00253a05 	eoreq	r3, r5, r5, lsl #20
    60d8:	0b0c0000 	bleq	3060e0 <__bss_end__+0x2fc0b8>
    60dc:	000002b9 			; <UNDEFINED> instruction: 0x000002b9
    60e0:	00253b05 	eoreq	r3, r5, r5, lsl #22
    60e4:	0b100000 	bleq	4060ec <__bss_end__+0x3fc0c4>
    60e8:	00000292 	muleq	r0, r2, r2
    60ec:	00253c05 	eoreq	r3, r5, r5, lsl #24
    60f0:	0b140000 	bleq	5060f8 <__bss_end__+0x4fc0d0>
    60f4:	000004a6 	andeq	r0, r0, r6, lsr #9
    60f8:	00253d05 	eoreq	r3, r5, r5, lsl #26
    60fc:	0b180000 	bleq	606104 <__bss_end__+0x5fc0dc>
    6100:	0000031e 	andeq	r0, r0, lr, lsl r3
    6104:	00253e05 	eoreq	r3, r5, r5, lsl #28
    6108:	0b1c0000 	bleq	706110 <__bss_end__+0x6fc0e8>
    610c:	000004e9 	andeq	r0, r0, r9, ror #9
    6110:	00253f05 	eoreq	r3, r5, r5, lsl #30
    6114:	00200000 	eoreq	r0, r0, r0
    6118:	00010411 	andeq	r0, r1, r1, lsl r4
    611c:	05010800 	streq	r0, [r1, #-2048]	; 0xfffff800
    6120:	00024648 	andeq	r4, r2, r8, asr #12
    6124:	018f0b00 	orreq	r0, pc, r0, lsl #22
    6128:	49050000 	stmdbmi	r5, {}	; <UNPREDICTABLE>
    612c:	00000246 	andeq	r0, r0, r6, asr #4
    6130:	00000b00 	andeq	r0, r0, r0, lsl #22
    6134:	4a050000 	bmi	14613c <__bss_end__+0x13c114>
    6138:	00000246 	andeq	r0, r0, r6, asr #4
    613c:	04451280 	strbeq	r1, [r5], #-640	; 0xfffffd80
    6140:	4c050000 	stcmi	0, cr0, [r5], {-0}
    6144:	00000119 	andeq	r0, r0, r9, lsl r1
    6148:	29120100 	ldmdbcs	r2, {r8}
    614c:	05000001 	streq	r0, [r0, #-1]
    6150:	0001194f 	andeq	r1, r1, pc, asr #18
    6154:	00010400 	andeq	r0, r1, r0, lsl #8
    6158:	00010508 	andeq	r0, r1, r8, lsl #10
    615c:	00025600 	andeq	r5, r2, r0, lsl #12
    6160:	00c70900 	sbceq	r0, r7, r0, lsl #18
    6164:	001f0000 	andseq	r0, pc, r0
    6168:	0002c211 	andeq	ip, r2, r1, lsl r2
    616c:	05019000 	streq	r9, [r1, #-0]
    6170:	0002945b 	andeq	r9, r2, fp, asr r4
    6174:	035d0b00 	cmpeq	sp, #0, 22
    6178:	5c050000 	stcpl	0, cr0, [r5], {-0}
    617c:	00000294 	muleq	r0, r4, r2
    6180:	03750b00 	cmneq	r5, #0, 22
    6184:	5d050000 	stcpl	0, cr0, [r5, #-0]
    6188:	00000025 	andeq	r0, r0, r5, lsr #32
    618c:	01970b04 	orrseq	r0, r7, r4, lsl #22
    6190:	5f050000 	svcpl	0x00050000
    6194:	0000029a 	muleq	r0, sl, r2
    6198:	01040b08 	tsteq	r4, r8, lsl #22
    619c:	60050000 	andvs	r0, r5, r0
    61a0:	00000206 	andeq	r0, r0, r6, lsl #4
    61a4:	040d0088 	streq	r0, [sp], #-136	; 0xffffff78
    61a8:	00000256 	andeq	r0, r0, r6, asr r2
    61ac:	0002aa08 	andeq	sl, r2, r8, lsl #20
    61b0:	0002aa00 	andeq	sl, r2, r0, lsl #20
    61b4:	00c70900 	sbceq	r0, r7, r0, lsl #18
    61b8:	001f0000 	andseq	r0, pc, r0
    61bc:	02b0040d 	adcseq	r0, r0, #218103808	; 0xd000000
    61c0:	0f130000 	svceq	0x00130000
    61c4:	00000328 	andeq	r0, r0, r8, lsr #6
    61c8:	d6730508 	ldrbtle	r0, [r3], -r8, lsl #10
    61cc:	0b000002 	bleq	61dc <_start-0x1e24>
    61d0:	000000be 	strheq	r0, [r0], -lr
    61d4:	02d67405 	sbcseq	r7, r6, #83886080	; 0x5000000
    61d8:	0b000000 	bleq	61e0 <_start-0x1e20>
    61dc:	0000001b 	andeq	r0, r0, fp, lsl r0
    61e0:	00257505 	eoreq	r7, r5, r5, lsl #10
    61e4:	00040000 	andeq	r0, r4, r0
    61e8:	004f040d 	subeq	r0, pc, sp, lsl #8
    61ec:	470f0000 	strmi	r0, [pc, -r0]
    61f0:	68000003 	stmdavs	r0, {r0, r1}
    61f4:	0406b305 	streq	fp, [r6], #-773	; 0xfffffcfb
    61f8:	5f100000 	svcpl	0x00100000
    61fc:	b4050070 	strlt	r0, [r5], #-112	; 0xffffff90
    6200:	000002d6 	ldrdeq	r0, [r0], -r6
    6204:	725f1000 	subsvc	r1, pc, #0
    6208:	25b50500 	ldrcs	r0, [r5, #1280]!	; 0x500
    620c:	04000000 	streq	r0, [r0], #-0
    6210:	00775f10 	rsbseq	r5, r7, r0, lsl pc
    6214:	0025b605 	eoreq	fp, r5, r5, lsl #12
    6218:	0b080000 	bleq	206220 <__bss_end__+0x1fc1f8>
    621c:	00000122 	andeq	r0, r0, r2, lsr #2
    6220:	003ab705 	eorseq	fp, sl, r5, lsl #14
    6224:	0b0c0000 	bleq	30622c <__bss_end__+0x2fc204>
    6228:	0000020b 	andeq	r0, r0, fp, lsl #4
    622c:	003ab805 	eorseq	fp, sl, r5, lsl #16
    6230:	100e0000 	andne	r0, lr, r0
    6234:	0066625f 	rsbeq	r6, r6, pc, asr r2
    6238:	02b1b905 	adcseq	fp, r1, #81920	; 0x14000
    623c:	0b100000 	bleq	406244 <__bss_end__+0x3fc21c>
    6240:	0000007b 	andeq	r0, r0, fp, ror r0
    6244:	0025ba05 	eoreq	fp, r5, r5, lsl #20
    6248:	0b180000 	bleq	606250 <__bss_end__+0x5fc228>
    624c:	00000112 	andeq	r0, r0, r2, lsl r1
    6250:	0105c105 	tsteq	r5, r5, lsl #2
    6254:	0b1c0000 	bleq	70625c <__bss_end__+0x6fc234>
    6258:	00000a78 	andeq	r0, r0, r8, ror sl
    625c:	0561c305 	strbeq	ip, [r1, #-773]!	; 0xfffffcfb
    6260:	0b200000 	bleq	806268 <__bss_end__+0x7fc240>
    6264:	0000060c 	andeq	r0, r0, ip, lsl #12
    6268:	058bc505 	streq	ip, [fp, #1285]	; 0x505
    626c:	0b240000 	bleq	906274 <__bss_end__+0x8fc24c>
    6270:	000003b9 			; <UNDEFINED> instruction: 0x000003b9
    6274:	05afc805 	streq	ip, [pc, #2053]!	; 6a81 <_start-0x157f>
    6278:	0b280000 	bleq	a06280 <__bss_end__+0x9fc258>
    627c:	00000503 	andeq	r0, r0, r3, lsl #10
    6280:	05c9c905 	strbeq	ip, [r9, #2309]	; 0x905
    6284:	102c0000 	eorne	r0, ip, r0
    6288:	0062755f 	rsbeq	r7, r2, pc, asr r5
    628c:	02b1cc05 	adcseq	ip, r1, #1280	; 0x500
    6290:	10300000 	eorsne	r0, r0, r0
    6294:	0070755f 	rsbseq	r7, r0, pc, asr r5
    6298:	02d6cd05 	sbcseq	ip, r6, #320	; 0x140
    629c:	10380000 	eorsne	r0, r8, r0
    62a0:	0072755f 	rsbseq	r7, r2, pc, asr r5
    62a4:	0025ce05 	eoreq	ip, r5, r5, lsl #28
    62a8:	0b3c0000 	bleq	f062b0 <__bss_end__+0xefc288>
    62ac:	000000b8 	strheq	r0, [r0], -r8
    62b0:	05cfd105 	strbeq	sp, [pc, #261]	; 63bd <_start-0x1c43>
    62b4:	0b400000 	bleq	10062bc <__bss_end__+0xffc294>
    62b8:	000004db 	ldrdeq	r0, [r0], -fp
    62bc:	05dfd205 	ldrbeq	sp, [pc, #517]	; 64c9 <_start-0x1b37>
    62c0:	10430000 	subne	r0, r3, r0
    62c4:	00626c5f 	rsbeq	r6, r2, pc, asr ip
    62c8:	02b1d505 	adcseq	sp, r1, #20971520	; 0x1400000
    62cc:	0b440000 	bleq	11062d4 <__bss_end__+0x10fc2ac>
    62d0:	00000140 	andeq	r0, r0, r0, asr #2
    62d4:	0025d805 	eoreq	sp, r5, r5, lsl #16
    62d8:	0b4c0000 	bleq	13062e0 <__bss_end__+0x12fc2b8>
    62dc:	00000151 	andeq	r0, r0, r1, asr r1
    62e0:	0076d905 	rsbseq	sp, r6, r5, lsl #18
    62e4:	0b500000 	bleq	14062ec <__bss_end__+0x13fc2c4>
    62e8:	00000a19 	andeq	r0, r0, r9, lsl sl
    62ec:	0424dc05 	strteq	sp, [r4], #-3077	; 0xfffff3fb
    62f0:	0b540000 	bleq	15062f8 <__bss_end__+0x14fc2d0>
    62f4:	00000284 	andeq	r0, r0, r4, lsl #5
    62f8:	00fae005 	rscseq	lr, sl, r5
    62fc:	0b580000 	bleq	1606304 <__bss_end__+0x15fc2dc>
    6300:	0000034f 	andeq	r0, r0, pc, asr #6
    6304:	00efe205 	rsceq	lr, pc, r5, lsl #4
    6308:	0b5c0000 	bleq	1706310 <__bss_end__+0x16fc2e8>
    630c:	0000028a 	andeq	r0, r0, sl, lsl #5
    6310:	0025e305 	eoreq	lr, r5, r5, lsl #6
    6314:	00640000 	rsbeq	r0, r4, r0
    6318:	00002514 	andeq	r2, r0, r4, lsl r5
    631c:	00042400 	andeq	r2, r4, r0, lsl #8
    6320:	04241500 	strteq	r1, [r4], #-1280	; 0xfffffb00
    6324:	05150000 	ldreq	r0, [r5, #-0]
    6328:	15000001 	strne	r0, [r0, #-1]
    632c:	00000107 	andeq	r0, r0, r7, lsl #2
    6330:	00002515 	andeq	r2, r0, r5, lsl r5
    6334:	040d0000 	streq	r0, [sp], #-0
    6338:	0000042f 	andeq	r0, r0, pc, lsr #8
    633c:	0004240e 	andeq	r2, r4, lr, lsl #8
    6340:	039c1600 	orrseq	r1, ip, #0, 12
    6344:	04280000 	strteq	r0, [r8], #-0
    6348:	61023805 	tstvs	r2, r5, lsl #16
    634c:	17000005 	strne	r0, [r0, -r5]
    6350:	0000030d 	andeq	r0, r0, sp, lsl #6
    6354:	25023a05 	strcs	r3, [r2, #-2565]	; 0xfffff5fb
    6358:	00000000 	andeq	r0, r0, r0
    635c:	00013117 	andeq	r3, r1, r7, lsl r1
    6360:	023f0500 	eorseq	r0, pc, #0, 10
    6364:	00000636 	andeq	r0, r0, r6, lsr r6
    6368:	01fb1704 	mvnseq	r1, r4, lsl #14
    636c:	3f050000 	svccc	0x00050000
    6370:	00063602 	andeq	r3, r6, r2, lsl #12
    6374:	ab170800 	blge	5c837c <__bss_end__+0x5be354>
    6378:	05000001 	streq	r0, [r0, #-1]
    637c:	0636023f 			; <UNDEFINED> instruction: 0x0636023f
    6380:	170c0000 	strne	r0, [ip, -r0]
    6384:	00000370 	andeq	r0, r0, r0, ror r3
    6388:	25024105 	strcs	r4, [r2, #-261]	; 0xfffffefb
    638c:	10000000 	andne	r0, r0, r0
    6390:	00002917 	andeq	r2, r0, r7, lsl r9
    6394:	02420500 	subeq	r0, r2, #0, 10
    6398:	00000818 	andeq	r0, r0, r8, lsl r8
    639c:	047b1714 	ldrbteq	r1, [fp], #-1812	; 0xfffff8ec
    63a0:	44050000 	strmi	r0, [r5], #-0
    63a4:	00002502 	andeq	r2, r0, r2, lsl #10
    63a8:	7a173000 	bvc	5d23b0 <__bss_end__+0x5c8388>
    63ac:	05000003 	streq	r0, [r0, #-3]
    63b0:	05850245 	streq	r0, [r5, #581]	; 0x245
    63b4:	17340000 	ldrne	r0, [r4, -r0]!
    63b8:	000002ca 	andeq	r0, r0, sl, asr #5
    63bc:	25024705 	strcs	r4, [r2, #-1797]	; 0xfffff8fb
    63c0:	38000000 	stmdacc	r0, {}	; <UNPREDICTABLE>
    63c4:	00038a17 	andeq	r8, r3, r7, lsl sl
    63c8:	02490500 	subeq	r0, r9, #0, 10
    63cc:	00000833 	andeq	r0, r0, r3, lsr r8
    63d0:	0268173c 	rsbeq	r1, r8, #60, 14	; 0xf00000
    63d4:	4c050000 	stcmi	0, cr0, [r5], {-0}
    63d8:	00017702 	andeq	r7, r1, r2, lsl #14
    63dc:	ca174000 	bgt	5d63e4 <__bss_end__+0x5cc3bc>
    63e0:	05000001 	streq	r0, [r0, #-1]
    63e4:	0025024d 	eoreq	r0, r5, sp, asr #4
    63e8:	17440000 	strbne	r0, [r4, -r0]
    63ec:	0000051d 	andeq	r0, r0, sp, lsl r5
    63f0:	77024e05 	strvc	r4, [r2, -r5, lsl #28]
    63f4:	48000001 	stmdami	r0, {r0}
    63f8:	0002dc17 	andeq	sp, r2, r7, lsl ip
    63fc:	024f0500 	subeq	r0, pc, #0, 10
    6400:	00000839 	andeq	r0, r0, r9, lsr r8
    6404:	0203174c 	andeq	r1, r3, #76, 14	; 0x1300000
    6408:	52050000 	andpl	r0, r5, #0
    640c:	00002502 	andeq	r2, r0, r2, lsl #10
    6410:	49175000 	ldmdbmi	r7, {ip, lr}
    6414:	05000001 	streq	r0, [r0, #-1]
    6418:	01070253 	tsteq	r7, r3, asr r2
    641c:	17540000 	ldrbne	r0, [r4, -r0]
    6420:	00000306 	andeq	r0, r0, r6, lsl #6
    6424:	f6027605 			; <UNDEFINED> instruction: 0xf6027605
    6428:	58000007 	stmdapl	r0, {r0, r1, r2}
    642c:	0002c218 	andeq	ip, r2, r8, lsl r2
    6430:	027a0500 	rsbseq	r0, sl, #0, 10
    6434:	00000294 	muleq	r0, r4, r2
    6438:	46180148 	ldrmi	r0, [r8], -r8, asr #2
    643c:	05000002 	streq	r0, [r0, #-2]
    6440:	0256027b 	subseq	r0, r6, #-1342177273	; 0xb0000007
    6444:	014c0000 	mrseq	r0, (UNDEF: 76)
    6448:	0004c918 	andeq	ip, r4, r8, lsl r9
    644c:	027f0500 	rsbseq	r0, pc, #0, 10
    6450:	0000084a 	andeq	r0, r0, sl, asr #16
    6454:	1a1802dc 	bne	606fcc <__bss_end__+0x5fcfa4>
    6458:	05000001 	streq	r0, [r0, #-1]
    645c:	05fb0284 	ldrbeq	r0, [fp, #644]!	; 0x284
    6460:	02e00000 	rsceq	r0, r0, #0
    6464:	0000ff18 	andeq	pc, r0, r8, lsl pc	; <UNPREDICTABLE>
    6468:	02850500 	addeq	r0, r5, #0, 10
    646c:	00000856 	andeq	r0, r0, r6, asr r8
    6470:	0d0002ec 	sfmeq	f0, 4, [r0, #-944]	; 0xfffffc50
    6474:	00040604 	andeq	r0, r4, r4, lsl #12
    6478:	00251400 	eoreq	r1, r5, r0, lsl #8
    647c:	05850000 	streq	r0, [r5]
    6480:	24150000 	ldrcs	r0, [r5], #-0
    6484:	15000004 	strne	r0, [r0, #-4]
    6488:	00000105 	andeq	r0, r0, r5, lsl #2
    648c:	00058515 	andeq	r8, r5, r5, lsl r5
    6490:	00251500 	eoreq	r1, r5, r0, lsl #10
    6494:	0d000000 	stceq	0, cr0, [r0, #-0]
    6498:	00011404 	andeq	r1, r1, r4, lsl #8
    649c:	67040d00 	strvs	r0, [r4, -r0, lsl #26]
    64a0:	14000005 	strne	r0, [r0], #-5
    64a4:	00000081 	andeq	r0, r0, r1, lsl #1
    64a8:	000005af 	andeq	r0, r0, pc, lsr #11
    64ac:	00042415 	andeq	r2, r4, r5, lsl r4
    64b0:	01051500 	tsteq	r5, r0, lsl #10
    64b4:	81150000 	tsthi	r5, r0
    64b8:	15000000 	strne	r0, [r0, #-0]
    64bc:	00000025 	andeq	r0, r0, r5, lsr #32
    64c0:	91040d00 	tstls	r4, r0, lsl #26
    64c4:	14000005 	strne	r0, [r0], #-5
    64c8:	00000025 	andeq	r0, r0, r5, lsr #32
    64cc:	000005c9 	andeq	r0, r0, r9, asr #11
    64d0:	00042415 	andeq	r2, r4, r5, lsl r4
    64d4:	01051500 	tsteq	r5, r0, lsl #10
    64d8:	0d000000 	stceq	0, cr0, [r0, #-0]
    64dc:	0005b504 	andeq	fp, r5, r4, lsl #10
    64e0:	004f0800 	subeq	r0, pc, r0, lsl #16
    64e4:	05df0000 	ldrbeq	r0, [pc]	; 64ec <_start-0x1b14>
    64e8:	c7090000 	strgt	r0, [r9, -r0]
    64ec:	02000000 	andeq	r0, r0, #0
    64f0:	004f0800 	subeq	r0, pc, r0, lsl #16
    64f4:	05ef0000 	strbeq	r0, [pc, #0]!	; 64fc <_start-0x1b04>
    64f8:	c7090000 	strgt	r0, [r9, -r0]
    64fc:	00000000 	andeq	r0, r0, r0
    6500:	03350500 	teqeq	r5, #0, 10
    6504:	1d050000 	stcne	0, cr0, [r5, #-0]
    6508:	0002dc01 	andeq	sp, r2, r1, lsl #24
    650c:	04b01900 	ldrteq	r1, [r0], #2304	; 0x900
    6510:	050c0000 	streq	r0, [ip, #-0]
    6514:	06300121 	ldrteq	r0, [r0], -r1, lsr #2
    6518:	5d170000 	ldcpl	0, cr0, [r7, #-0]
    651c:	05000003 	streq	r0, [r0, #-3]
    6520:	06300123 	ldrteq	r0, [r0], -r3, lsr #2
    6524:	17000000 	strne	r0, [r0, -r0]
    6528:	0000021e 	andeq	r0, r0, lr, lsl r2
    652c:	25012405 	strcs	r2, [r1, #-1029]	; 0xfffffbfb
    6530:	04000000 	streq	r0, [r0], #-0
    6534:	00032f17 	andeq	r2, r3, r7, lsl pc
    6538:	01250500 			; <UNDEFINED> instruction: 0x01250500
    653c:	00000636 	andeq	r0, r0, r6, lsr r6
    6540:	040d0008 	streq	r0, [sp], #-8
    6544:	000005fb 	strdeq	r0, [r0], -fp
    6548:	05ef040d 	strbeq	r0, [pc, #1037]!	; 695d <_start-0x16a3>
    654c:	21190000 	tstcs	r9, r0
    6550:	0e000000 	cdpeq	0, 0, cr0, cr0, cr0, {0}
    6554:	71013d05 	tstvc	r1, r5, lsl #26
    6558:	17000006 	strne	r0, [r0, -r6]
    655c:	000003a3 	andeq	r0, r0, r3, lsr #7
    6560:	71013e05 	tstvc	r1, r5, lsl #28
    6564:	00000006 	andeq	r0, r0, r6
    6568:	0003d017 	andeq	sp, r3, r7, lsl r0
    656c:	013f0500 	teqeq	pc, r0, lsl #10
    6570:	00000671 	andeq	r0, r0, r1, ror r6
    6574:	044e1706 	strbeq	r1, [lr], #-1798	; 0xfffff8fa
    6578:	40050000 	andmi	r0, r5, r0
    657c:	00005601 	andeq	r5, r0, r1, lsl #12
    6580:	08000c00 	stmdaeq	r0, {sl, fp}
    6584:	00000056 	andeq	r0, r0, r6, asr r0
    6588:	00000681 	andeq	r0, r0, r1, lsl #13
    658c:	0000c709 	andeq	ip, r0, r9, lsl #14
    6590:	1a000200 	bne	6d98 <_start-0x1268>
    6594:	025705d0 	subseq	r0, r7, #208, 10	; 0x34000000
    6598:	00000782 	andeq	r0, r0, r2, lsl #15
    659c:	00049417 	andeq	r9, r4, r7, lsl r4
    65a0:	02590500 	subseq	r0, r9, #0, 10
    65a4:	0000002c 	andeq	r0, r0, ip, lsr #32
    65a8:	04381700 	ldrteq	r1, [r8], #-1792	; 0xfffff900
    65ac:	5a050000 	bpl	1465b4 <__bss_end__+0x13c58c>
    65b0:	00010702 	andeq	r0, r1, r2, lsl #14
    65b4:	5b170400 	blpl	5c75bc <__bss_end__+0x5bd594>
    65b8:	05000002 	streq	r0, [r0, #-2]
    65bc:	0782025b 			; <UNDEFINED> instruction: 0x0782025b
    65c0:	17080000 	strne	r0, [r8, -r0]
    65c4:	000004f4 	strdeq	r0, [r0], -r4
    65c8:	8d025c05 	stchi	12, cr5, [r2, #-20]	; 0xffffffec
    65cc:	24000001 	strcs	r0, [r0], #-1
    65d0:	0001bb17 	andeq	fp, r1, r7, lsl fp
    65d4:	025d0500 	subseq	r0, sp, #0, 10
    65d8:	00000025 	andeq	r0, r0, r5, lsr #32
    65dc:	03581748 	cmpeq	r8, #72, 14	; 0x1200000
    65e0:	5e050000 	cdppl	0, 0, cr0, cr5, cr0, {0}
    65e4:	00006402 	andeq	r6, r0, r2, lsl #8
    65e8:	0a175000 	beq	5da5f0 <__bss_end__+0x5d05c8>
    65ec:	05000005 	streq	r0, [r0, #-5]
    65f0:	063c025f 			; <UNDEFINED> instruction: 0x063c025f
    65f4:	17580000 	ldrbne	r0, [r8, -r0]
    65f8:	00000363 	andeq	r0, r0, r3, ror #6
    65fc:	ef026005 	svc	0x00026005
    6600:	68000000 	stmdavs	r0, {}	; <UNPREDICTABLE>
    6604:	00050f17 	andeq	r0, r5, r7, lsl pc
    6608:	02610500 	rsbeq	r0, r1, #0, 10
    660c:	000000ef 	andeq	r0, r0, pc, ror #1
    6610:	00931770 	addseq	r1, r3, r0, ror r7
    6614:	62050000 	andvs	r0, r5, #0
    6618:	0000ef02 	andeq	lr, r0, r2, lsl #30
    661c:	bf177800 	svclt	0x00177800
    6620:	05000004 	streq	r0, [r0, #-4]
    6624:	07920263 	ldreq	r0, [r2, r3, ror #4]
    6628:	17800000 	strne	r0, [r0, r0]
    662c:	0000024f 	andeq	r0, r0, pc, asr #4
    6630:	a2026405 	andge	r6, r2, #83886080	; 0x5000000
    6634:	88000007 	stmdahi	r0, {r0, r1, r2}
    6638:	00045b17 	andeq	r5, r4, r7, lsl fp
    663c:	02650500 	rsbeq	r0, r5, #0, 10
    6640:	00000025 	andeq	r0, r0, r5, lsr #32
    6644:	018117a0 	orreq	r1, r1, r0, lsr #15
    6648:	66050000 	strvs	r0, [r5], -r0
    664c:	0000ef02 	andeq	lr, r0, r2, lsl #30
    6650:	8417a400 	ldrhi	sl, [r7], #-1024	; 0xfffffc00
    6654:	05000000 	streq	r0, [r0, #-0]
    6658:	00ef0267 	rsceq	r0, pc, r7, ror #4
    665c:	17ac0000 	strne	r0, [ip, r0]!
    6660:	00000170 	andeq	r0, r0, r0, ror r1
    6664:	ef026805 	svc	0x00026805
    6668:	b4000000 	strlt	r0, [r0], #-0
    666c:	00003c17 	andeq	r3, r0, r7, lsl ip
    6670:	02690500 	rsbeq	r0, r9, #0, 10
    6674:	000000ef 	andeq	r0, r0, pc, ror #1
    6678:	004b17bc 	strheq	r1, [fp], #-124	; 0xffffff84
    667c:	6a050000 	bvs	146684 <__bss_end__+0x13c65c>
    6680:	0000ef02 	andeq	lr, r0, r2, lsl #30
    6684:	0b17c400 	bleq	5f768c <__bss_end__+0x5ed664>
    6688:	05000003 	streq	r0, [r0, #-3]
    668c:	0025026b 	eoreq	r0, r5, fp, ror #4
    6690:	00cc0000 	sbceq	r0, ip, r0
    6694:	00010d08 	andeq	r0, r1, r8, lsl #26
    6698:	00079200 	andeq	r9, r7, r0, lsl #4
    669c:	00c70900 	sbceq	r0, r7, r0, lsl #18
    66a0:	00190000 	andseq	r0, r9, r0
    66a4:	00010d08 	andeq	r0, r1, r8, lsl #26
    66a8:	0007a200 	andeq	sl, r7, r0, lsl #4
    66ac:	00c70900 	sbceq	r0, r7, r0, lsl #18
    66b0:	00070000 	andeq	r0, r7, r0
    66b4:	00010d08 	andeq	r0, r1, r8, lsl #26
    66b8:	0007b200 	andeq	fp, r7, r0, lsl #4
    66bc:	00c70900 	sbceq	r0, r7, r0, lsl #18
    66c0:	00170000 	andseq	r0, r7, r0
    66c4:	7005f01a 	andvc	pc, r5, sl, lsl r0	; <UNPREDICTABLE>
    66c8:	0007d602 	andeq	sp, r7, r2, lsl #12
    66cc:	02b21700 	adcseq	r1, r2, #0, 14
    66d0:	73050000 	movwvc	r0, #20480	; 0x5000
    66d4:	0007d602 	andeq	sp, r7, r2, lsl #12
    66d8:	b6170000 	ldrlt	r0, [r7], -r0
    66dc:	05000004 	streq	r0, [r0, #-4]
    66e0:	07e60274 			; <UNDEFINED> instruction: 0x07e60274
    66e4:	00780000 	rsbseq	r0, r8, r0
    66e8:	0002d608 	andeq	sp, r2, r8, lsl #12
    66ec:	0007e600 	andeq	lr, r7, r0, lsl #12
    66f0:	00c70900 	sbceq	r0, r7, r0, lsl #18
    66f4:	001d0000 	andseq	r0, sp, r0
    66f8:	00002c08 	andeq	r2, r0, r8, lsl #24
    66fc:	0007f600 	andeq	pc, r7, r0, lsl #12
    6700:	00c70900 	sbceq	r0, r7, r0, lsl #18
    6704:	001d0000 	andseq	r0, sp, r0
    6708:	5505f01b 	strpl	pc, [r5, #-27]	; 0xffffffe5
    670c:	00081802 	andeq	r1, r8, r2, lsl #16
    6710:	039c1c00 	orrseq	r1, ip, #0, 24
    6714:	6c050000 	stcvs	0, cr0, [r5], {-0}
    6718:	00068102 	andeq	r8, r6, r2, lsl #2
    671c:	04e11c00 	strbteq	r1, [r1], #3072	; 0xc00
    6720:	75050000 	strvc	r0, [r5, #-0]
    6724:	0007b202 	andeq	fp, r7, r2, lsl #4
    6728:	0d080000 	stceq	0, cr0, [r8, #-0]
    672c:	28000001 	stmdacs	r0, {r0}
    6730:	09000008 	stmdbeq	r0, {r3}
    6734:	000000c7 	andeq	r0, r0, r7, asr #1
    6738:	331d0018 	tstcc	sp, #24
    673c:	15000008 	strne	r0, [r0, #-8]
    6740:	00000424 	andeq	r0, r0, r4, lsr #8
    6744:	28040d00 	stmdacs	r4, {r8, sl, fp}
    6748:	0d000008 	stceq	0, cr0, [r0, #-32]	; 0xffffffe0
    674c:	00017704 	andeq	r7, r1, r4, lsl #14
    6750:	084a1d00 	stmdaeq	sl, {r8, sl, fp, ip}^
    6754:	25150000 	ldrcs	r0, [r5, #-0]
    6758:	00000000 	andeq	r0, r0, r0
    675c:	0850040d 	ldmdaeq	r0, {r0, r2, r3, sl}^
    6760:	040d0000 	streq	r0, [sp], #-0
    6764:	0000083f 	andeq	r0, r0, pc, lsr r8
    6768:	0005ef08 	andeq	lr, r5, r8, lsl #30
    676c:	00086600 	andeq	r6, r8, r0, lsl #12
    6770:	00c70900 	sbceq	r0, r7, r0, lsl #18
    6774:	00020000 	andeq	r0, r2, r0
    6778:	00046f1e 	andeq	r6, r4, lr, lsl pc
    677c:	02fd0500 	rscseq	r0, sp, #0, 10
    6780:	00000424 	andeq	r0, r0, r4, lsr #8
    6784:	0004681e 	andeq	r6, r4, lr, lsl r8
    6788:	02fe0500 	rscseq	r0, lr, #0, 10
    678c:	0000042a 	andeq	r0, r0, sl, lsr #8
    6790:	00002514 	andeq	r2, r0, r4, lsl r5
    6794:	00088d00 	andeq	r8, r8, r0, lsl #26
    6798:	00251500 	eoreq	r1, r5, r0, lsl #10
    679c:	1f000000 	svcne	0x00000000
    67a0:	000001d4 	ldrdeq	r0, [r0], -r4
    67a4:	08981d06 	ldmeq	r8, {r1, r2, r8, sl, fp, ip}
    67a8:	040d0000 	streq	r0, [sp], #-0
    67ac:	0000087e 	andeq	r0, r0, lr, ror r8
    67b0:	00002514 	andeq	r2, r0, r4, lsl r5
    67b4:	0008ad00 	andeq	sl, r8, r0, lsl #26
    67b8:	05851500 	streq	r1, [r5, #1280]	; 0x500
    67bc:	1f000000 	svcne	0x00000000
    67c0:	00000769 	andeq	r0, r0, r9, ror #14
    67c4:	08b82206 	ldmeq	r8!, {r1, r2, r9, sp}
    67c8:	040d0000 	streq	r0, [sp], #-0
    67cc:	0000089e 	muleq	r0, lr, r8
    67d0:	0007d920 	andeq	sp, r7, r0, lsr #18
    67d4:	700d0100 	andvc	r0, sp, r0, lsl #2
    67d8:	34000090 	strcc	r0, [r0], #-144	; 0xffffff70
    67dc:	01000000 	mrseq	r0, (UNDEF: 0)
    67e0:	00091d9c 	muleq	r9, ip, sp
    67e4:	07e91f00 	strbeq	r1, [r9, r0, lsl #30]!
    67e8:	0e010000 	cdpeq	0, 0, cr0, cr1, cr0, {0}
    67ec:	00000025 	andeq	r0, r0, r5, lsr #32
    67f0:	0007f71f 	andeq	pc, r7, pc, lsl r7	; <UNPREDICTABLE>
    67f4:	250e0100 	strcs	r0, [lr, #-256]	; 0xffffff00
    67f8:	21000000 	mrscs	r0, (UNDEF: 0)
    67fc:	00000034 	andeq	r0, r0, r4, lsr r0
    6800:	62220f01 	eorvs	r0, r2, #1, 30
    6804:	01007373 	tsteq	r0, r3, ror r3
    6808:	00091d11 	andeq	r1, r9, r1, lsl sp
    680c:	000fa500 	andeq	sl, pc, r0, lsl #10
    6810:	07e12300 	strbeq	r2, [r1, r0, lsl #6]!
    6814:	12010000 	andne	r0, r1, #0
    6818:	0000091d 	andeq	r0, r0, sp, lsl r9
    681c:	00909824 	addseq	r9, r0, r4, lsr #16
    6820:	00092300 	andeq	r2, r9, r0, lsl #6
    6824:	909c2400 	addsls	r2, ip, r0, lsl #8
    6828:	092e0000 	stmdbeq	lr!, {}	; <UNPREDICTABLE>
    682c:	0d000000 	stceq	0, cr0, [r0, #-0]
    6830:	00002504 	andeq	r2, r0, r4, lsl #10
    6834:	00342500 	eorseq	r2, r4, r0, lsl #10
    6838:	00340000 	eorseq	r0, r4, r0
    683c:	d7060000 	strle	r0, [r6, -r0]
    6840:	00029c25 	andeq	r9, r2, r5, lsr #24
    6844:	00029c00 	andeq	r9, r2, r0, lsl #24
    6848:	00650600 	rsbeq	r0, r5, r0, lsl #12
    684c:	000009e6 	andeq	r0, r0, r6, ror #19
    6850:	136a0004 	cmnne	sl, #4
    6854:	01040000 	mrseq	r0, (UNDEF: 4)
    6858:	000003d6 	ldrdeq	r0, [r0], -r6
    685c:	0008570c 	andeq	r5, r8, ip, lsl #14
    6860:	0006de00 	andeq	sp, r6, r0, lsl #28
    6864:	00009800 	andeq	r9, r0, r0, lsl #16
    6868:	00000000 	andeq	r0, r0, r0
    686c:	000aeb00 	andeq	lr, sl, r0, lsl #22
    6870:	05040200 	streq	r0, [r4, #-512]	; 0xfffffe00
    6874:	00746e69 	rsbseq	r6, r4, r9, ror #28
    6878:	00002503 	andeq	r2, r0, r3, lsl #10
    687c:	07040400 	streq	r0, [r4, -r0, lsl #8]
    6880:	00000066 	andeq	r0, r0, r6, rrx
    6884:	fa060104 	blx	186c9c <__bss_end__+0x17cc74>
    6888:	04000002 	streq	r0, [r0], #-2
    688c:	03140502 	tsteq	r4, #8388608	; 0x800000
    6890:	04040000 	streq	r0, [r4], #-0
    6894:	0000af05 	andeq	sl, r0, r5, lsl #30
    6898:	05080400 	streq	r0, [r8, #-1024]	; 0xfffffc00
    689c:	000000aa 	andeq	r0, r0, sl, lsr #1
    68a0:	f8080104 			; <UNDEFINED> instruction: 0xf8080104
    68a4:	04000002 	streq	r0, [r0], #-2
    68a8:	02250702 	eoreq	r0, r5, #524288	; 0x80000
    68ac:	04040000 	streq	r0, [r4], #-0
    68b0:	00006107 	andeq	r6, r0, r7, lsl #2
    68b4:	07080400 	streq	r0, [r8, -r0, lsl #8]
    68b8:	0000005c 	andeq	r0, r0, ip, asr r0
    68bc:	0002e605 	andeq	lr, r2, r5, lsl #12
    68c0:	25070200 	strcs	r0, [r7, #-512]	; 0xfffffe00
    68c4:	05000000 	streq	r0, [r0, #-0]
    68c8:	000002d5 	ldrdeq	r0, [r0], -r5
    68cc:	00462c03 	subeq	r2, r6, r3, lsl #24
    68d0:	bf050000 	svclt	0x00050000
    68d4:	03000003 	movweq	r0, #3
    68d8:	00004672 	andeq	r4, r0, r2, ror r6
    68dc:	02760600 	rsbseq	r0, r6, #0, 12
    68e0:	65040000 	strvs	r0, [r4, #-0]
    68e4:	00003101 	andeq	r3, r0, r1, lsl #2
    68e8:	03040700 	movweq	r0, #18176	; 0x4700
    68ec:	0000bca6 	andeq	fp, r0, r6, lsr #25
    68f0:	02700800 	rsbseq	r0, r0, #0, 16
    68f4:	a8030000 	stmdage	r3, {}	; <UNPREDICTABLE>
    68f8:	00000091 	muleq	r0, r1, r0
    68fc:	0001e508 	andeq	lr, r1, r8, lsl #10
    6900:	bca90300 	stclt	3, cr0, [r9]
    6904:	00000000 	andeq	r0, r0, r0
    6908:	00005409 	andeq	r5, r0, r9, lsl #8
    690c:	0000cc00 	andeq	ip, r0, r0, lsl #24
    6910:	00cc0a00 	sbceq	r0, ip, r0, lsl #20
    6914:	00030000 	andeq	r0, r3, r0
    6918:	a9070404 	stmdbge	r7, {r2, sl}
    691c:	0b000002 	bleq	692c <_start-0x16d4>
    6920:	f4a30308 	vld4.8	{d0[0],d1[0],d2[0],d3[0]}, [r3], r8
    6924:	0c000000 	stceq	0, cr0, [r0], {-0}
    6928:	000003a9 	andeq	r0, r0, r9, lsr #7
    692c:	0025a503 	eoreq	sl, r5, r3, lsl #10
    6930:	0c000000 	stceq	0, cr0, [r0], {-0}
    6934:	000003b1 			; <UNDEFINED> instruction: 0x000003b1
    6938:	009daa03 	addseq	sl, sp, r3, lsl #20
    693c:	00040000 	andeq	r0, r4, r0
    6940:	00033c05 	andeq	r3, r3, r5, lsl #24
    6944:	d3ab0300 			; <UNDEFINED> instruction: 0xd3ab0300
    6948:	05000000 	streq	r0, [r0, #-0]
    694c:	000001a2 	andeq	r0, r0, r2, lsr #3
    6950:	0070af03 	rsbseq	sl, r0, r3, lsl #30
    6954:	040d0000 	streq	r0, [sp], #-0
    6958:	0112040e 	tsteq	r2, lr, lsl #8
    695c:	01040000 	mrseq	r0, (UNDEF: 4)
    6960:	00030108 	andeq	r0, r3, r8, lsl #2
    6964:	01120300 	tsteq	r2, r0, lsl #6
    6968:	53050000 	movwpl	r0, #20480	; 0x5000
    696c:	05000004 	streq	r0, [r0, #-4]
    6970:	00006216 	andeq	r6, r0, r6, lsl r2
    6974:	01b30f00 			; <UNDEFINED> instruction: 0x01b30f00
    6978:	05180000 	ldreq	r0, [r8, #-0]
    697c:	00017c2d 	andeq	r7, r1, sp, lsr #24
    6980:	035d0c00 	cmpeq	sp, #0, 24
    6984:	2f050000 	svccs	0x00050000
    6988:	0000017c 	andeq	r0, r0, ip, ror r1
    698c:	6b5f1000 	blvs	17ca994 <__bss_end__+0x17c096c>
    6990:	25300500 	ldrcs	r0, [r0, #-1280]!	; 0xfffffb00
    6994:	04000000 	streq	r0, [r0], #-0
    6998:	0003940c 	andeq	r9, r3, ip, lsl #8
    699c:	25300500 	ldrcs	r0, [r0, #-1280]!	; 0xfffffb00
    69a0:	08000000 	stmdaeq	r0, {}	; <UNPREDICTABLE>
    69a4:	00019c0c 	andeq	r9, r1, ip, lsl #24
    69a8:	25300500 	ldrcs	r0, [r0, #-1280]!	; 0xfffffb00
    69ac:	0c000000 	stceq	0, cr0, [r0], {-0}
    69b0:	0004a10c 	andeq	sl, r4, ip, lsl #2
    69b4:	25300500 	ldrcs	r0, [r0, #-1280]!	; 0xfffffb00
    69b8:	10000000 	andne	r0, r0, r0
    69bc:	00785f10 	rsbseq	r5, r8, r0, lsl pc
    69c0:	01823105 	orreq	r3, r2, r5, lsl #2
    69c4:	00140000 	andseq	r0, r4, r0
    69c8:	0129040e 			; <UNDEFINED> instruction: 0x0129040e
    69cc:	1e090000 	cdpne	0, 0, cr0, cr9, cr0, {0}
    69d0:	92000001 	andls	r0, r0, #1
    69d4:	0a000001 	beq	69e0 <_start-0x1620>
    69d8:	000000cc 	andeq	r0, r0, ip, asr #1
    69dc:	e00f0000 	and	r0, pc, r0
    69e0:	24000001 	strcs	r0, [r0], #-1
    69e4:	020b3505 	andeq	r3, fp, #20971520	; 0x1400000
    69e8:	a10c0000 	mrsge	r0, (UNDEF: 12)
    69ec:	05000000 	streq	r0, [r0, #-0]
    69f0:	00002537 	andeq	r2, r0, r7, lsr r5
    69f4:	c70c0000 	strgt	r0, [ip, -r0]
    69f8:	05000003 	streq	r0, [r0, #-3]
    69fc:	00002538 	andeq	r2, r0, r8, lsr r5
    6a00:	c40c0400 	strgt	r0, [ip], #-1024	; 0xfffffc00
    6a04:	05000000 	streq	r0, [r0, #-0]
    6a08:	00002539 	andeq	r2, r0, r9, lsr r5
    6a0c:	220c0800 	andcs	r0, ip, #0, 16
    6a10:	05000005 	streq	r0, [r0, #-5]
    6a14:	0000253a 	andeq	r2, r0, sl, lsr r5
    6a18:	b90c0c00 	stmdblt	ip, {sl, fp}
    6a1c:	05000002 	streq	r0, [r0, #-2]
    6a20:	0000253b 	andeq	r2, r0, fp, lsr r5
    6a24:	920c1000 	andls	r1, ip, #0
    6a28:	05000002 	streq	r0, [r0, #-2]
    6a2c:	0000253c 	andeq	r2, r0, ip, lsr r5
    6a30:	a60c1400 	strge	r1, [ip], -r0, lsl #8
    6a34:	05000004 	streq	r0, [r0, #-4]
    6a38:	0000253d 	andeq	r2, r0, sp, lsr r5
    6a3c:	1e0c1800 	cdpne	8, 0, cr1, cr12, cr0, {0}
    6a40:	05000003 	streq	r0, [r0, #-3]
    6a44:	0000253e 	andeq	r2, r0, lr, lsr r5
    6a48:	e90c1c00 	stmdb	ip, {sl, fp, ip}
    6a4c:	05000004 	streq	r0, [r0, #-4]
    6a50:	0000253f 	andeq	r2, r0, pc, lsr r5
    6a54:	11002000 	mrsne	r2, (UNDEF: 0)
    6a58:	00000104 	andeq	r0, r0, r4, lsl #2
    6a5c:	48050108 	stmdami	r5, {r3, r8}
    6a60:	0000024b 	andeq	r0, r0, fp, asr #4
    6a64:	00018f0c 	andeq	r8, r1, ip, lsl #30
    6a68:	4b490500 	blmi	1247e70 <__bss_end__+0x123de48>
    6a6c:	00000002 	andeq	r0, r0, r2
    6a70:	0000000c 	andeq	r0, r0, ip
    6a74:	4b4a0500 	blmi	1287e7c <__bss_end__+0x127de54>
    6a78:	80000002 	andhi	r0, r0, r2
    6a7c:	00044512 	andeq	r4, r4, r2, lsl r5
    6a80:	1e4c0500 	cdpne	5, 4, cr0, cr12, cr0, {0}
    6a84:	00000001 	andeq	r0, r0, r1
    6a88:	01291201 			; <UNDEFINED> instruction: 0x01291201
    6a8c:	4f050000 	svcmi	0x00050000
    6a90:	0000011e 	andeq	r0, r0, lr, lsl r1
    6a94:	09000104 	stmdbeq	r0, {r2, r8}
    6a98:	0000010a 	andeq	r0, r0, sl, lsl #2
    6a9c:	0000025b 	andeq	r0, r0, fp, asr r2
    6aa0:	0000cc0a 	andeq	ip, r0, sl, lsl #24
    6aa4:	11001f00 	tstne	r0, r0, lsl #30
    6aa8:	000002c2 	andeq	r0, r0, r2, asr #5
    6aac:	5b050190 	blpl	1470f4 <__bss_end__+0x13d0cc>
    6ab0:	00000299 	muleq	r0, r9, r2
    6ab4:	00035d0c 	andeq	r5, r3, ip, lsl #26
    6ab8:	995c0500 	ldmdbls	ip, {r8, sl}^
    6abc:	00000002 	andeq	r0, r0, r2
    6ac0:	0003750c 	andeq	r7, r3, ip, lsl #10
    6ac4:	255d0500 	ldrbcs	r0, [sp, #-1280]	; 0xfffffb00
    6ac8:	04000000 	streq	r0, [r0], #-0
    6acc:	0001970c 	andeq	r9, r1, ip, lsl #14
    6ad0:	9f5f0500 	svcls	0x005f0500
    6ad4:	08000002 	stmdaeq	r0, {r1}
    6ad8:	0001040c 	andeq	r0, r1, ip, lsl #8
    6adc:	0b600500 	bleq	1807ee4 <__bss_end__+0x17fdebc>
    6ae0:	88000002 	stmdahi	r0, {r1}
    6ae4:	5b040e00 	blpl	10a2ec <__bss_end__+0x1002c4>
    6ae8:	09000002 	stmdbeq	r0, {r1}
    6aec:	000002af 	andeq	r0, r0, pc, lsr #5
    6af0:	000002af 	andeq	r0, r0, pc, lsr #5
    6af4:	0000cc0a 	andeq	ip, r0, sl, lsl #24
    6af8:	0e001f00 	cdpeq	15, 0, cr1, cr0, cr0, {0}
    6afc:	0002b504 	andeq	fp, r2, r4, lsl #10
    6b00:	280f1300 	stmdacs	pc, {r8, r9, ip}	; <UNPREDICTABLE>
    6b04:	08000003 	stmdaeq	r0, {r0, r1}
    6b08:	02db7305 	sbcseq	r7, fp, #335544320	; 0x14000000
    6b0c:	be0c0000 	cdplt	0, 0, cr0, cr12, cr0, {0}
    6b10:	05000000 	streq	r0, [r0, #-0]
    6b14:	0002db74 	andeq	sp, r2, r4, ror fp
    6b18:	1b0c0000 	blne	306b20 <__bss_end__+0x2fcaf8>
    6b1c:	05000000 	streq	r0, [r0, #-0]
    6b20:	00002575 	andeq	r2, r0, r5, ror r5
    6b24:	0e000400 	cfcpyseq	mvf0, mvf0
    6b28:	00005404 	andeq	r5, r0, r4, lsl #8
    6b2c:	03470f00 	movteq	r0, #32512	; 0x7f00
    6b30:	05680000 	strbeq	r0, [r8, #-0]!
    6b34:	00040bb3 			; <UNDEFINED> instruction: 0x00040bb3
    6b38:	705f1000 	subsvc	r1, pc, r0
    6b3c:	dbb40500 	blle	fed07f44 <__bss_end__+0xfecfdf1c>
    6b40:	00000002 	andeq	r0, r0, r2
    6b44:	00725f10 	rsbseq	r5, r2, r0, lsl pc
    6b48:	0025b505 	eoreq	fp, r5, r5, lsl #10
    6b4c:	10040000 	andne	r0, r4, r0
    6b50:	0500775f 	streq	r7, [r0, #-1887]	; 0xfffff8a1
    6b54:	000025b6 			; <UNDEFINED> instruction: 0x000025b6
    6b58:	220c0800 	andcs	r0, ip, #0, 16
    6b5c:	05000001 	streq	r0, [r0, #-1]
    6b60:	00003fb7 			; <UNDEFINED> instruction: 0x00003fb7
    6b64:	0b0c0c00 	bleq	309b6c <__bss_end__+0x2ffb44>
    6b68:	05000002 	streq	r0, [r0, #-2]
    6b6c:	00003fb8 			; <UNDEFINED> instruction: 0x00003fb8
    6b70:	5f100e00 	svcpl	0x00100e00
    6b74:	05006662 	streq	r6, [r0, #-1634]	; 0xfffff99e
    6b78:	0002b6b9 			; <UNDEFINED> instruction: 0x0002b6b9
    6b7c:	7b0c1000 	blvc	30ab84 <__bss_end__+0x300b5c>
    6b80:	05000000 	streq	r0, [r0, #-0]
    6b84:	000025ba 			; <UNDEFINED> instruction: 0x000025ba
    6b88:	120c1800 	andne	r1, ip, #0, 16
    6b8c:	05000001 	streq	r0, [r0, #-1]
    6b90:	00010ac1 	andeq	r0, r1, r1, asr #21
    6b94:	780c1c00 	stmdavc	ip, {sl, fp, ip}
    6b98:	0500000a 	streq	r0, [r0, #-10]
    6b9c:	000566c3 	andeq	r6, r5, r3, asr #13
    6ba0:	0c0c2000 	stceq	0, cr2, [ip], {-0}
    6ba4:	05000006 	streq	r0, [r0, #-6]
    6ba8:	000590c5 	andeq	r9, r5, r5, asr #1
    6bac:	b90c2400 	stmdblt	ip, {sl, sp}
    6bb0:	05000003 	streq	r0, [r0, #-3]
    6bb4:	0005b4c8 	andeq	fp, r5, r8, asr #9
    6bb8:	030c2800 	movweq	r2, #51200	; 0xc800
    6bbc:	05000005 	streq	r0, [r0, #-5]
    6bc0:	0005cec9 	andeq	ip, r5, r9, asr #29
    6bc4:	5f102c00 	svcpl	0x00102c00
    6bc8:	05006275 	streq	r6, [r0, #-629]	; 0xfffffd8b
    6bcc:	0002b6cc 	andeq	fp, r2, ip, asr #13
    6bd0:	5f103000 	svcpl	0x00103000
    6bd4:	05007075 	streq	r7, [r0, #-117]	; 0xffffff8b
    6bd8:	0002dbcd 	andeq	sp, r2, sp, asr #23
    6bdc:	5f103800 	svcpl	0x00103800
    6be0:	05007275 	streq	r7, [r0, #-629]	; 0xfffffd8b
    6be4:	000025ce 	andeq	r2, r0, lr, asr #11
    6be8:	b80c3c00 	stmdalt	ip, {sl, fp, ip, sp}
    6bec:	05000000 	streq	r0, [r0, #-0]
    6bf0:	0005d4d1 	ldrdeq	sp, [r5], -r1
    6bf4:	db0c4000 	blle	316bfc <__bss_end__+0x30cbd4>
    6bf8:	05000004 	streq	r0, [r0, #-4]
    6bfc:	0005e4d2 	ldrdeq	lr, [r5], -r2
    6c00:	5f104300 	svcpl	0x00104300
    6c04:	0500626c 	streq	r6, [r0, #-620]	; 0xfffffd94
    6c08:	0002b6d5 	ldrdeq	fp, [r2], -r5
    6c0c:	400c4400 	andmi	r4, ip, r0, lsl #8
    6c10:	05000001 	streq	r0, [r0, #-1]
    6c14:	000025d8 	ldrdeq	r2, [r0], -r8
    6c18:	510c4c00 	tstpl	ip, r0, lsl #24
    6c1c:	05000001 	streq	r0, [r0, #-1]
    6c20:	00007bd9 	ldrdeq	r7, [r0], -r9
    6c24:	190c5000 	stmdbne	ip, {ip, lr}
    6c28:	0500000a 	streq	r0, [r0, #-10]
    6c2c:	000429dc 	ldrdeq	r2, [r4], -ip
    6c30:	840c5400 	strhi	r5, [ip], #-1024	; 0xfffffc00
    6c34:	05000002 	streq	r0, [r0, #-2]
    6c38:	0000ffe0 	andeq	pc, r0, r0, ror #31
    6c3c:	4f0c5800 	svcmi	0x000c5800
    6c40:	05000003 	streq	r0, [r0, #-3]
    6c44:	0000f4e2 	andeq	pc, r0, r2, ror #9
    6c48:	8a0c5c00 	bhi	31dc50 <__bss_end__+0x313c28>
    6c4c:	05000002 	streq	r0, [r0, #-2]
    6c50:	000025e3 	andeq	r2, r0, r3, ror #11
    6c54:	14006400 	strne	r6, [r0], #-1024	; 0xfffffc00
    6c58:	00000025 	andeq	r0, r0, r5, lsr #32
    6c5c:	00000429 	andeq	r0, r0, r9, lsr #8
    6c60:	00042915 	andeq	r2, r4, r5, lsl r9
    6c64:	010a1500 	tsteq	sl, r0, lsl #10
    6c68:	0c150000 	ldceq	0, cr0, [r5], {-0}
    6c6c:	15000001 	strne	r0, [r0, #-1]
    6c70:	00000025 	andeq	r0, r0, r5, lsr #32
    6c74:	34040e00 	strcc	r0, [r4], #-3584	; 0xfffff200
    6c78:	03000004 	movweq	r0, #4
    6c7c:	00000429 	andeq	r0, r0, r9, lsr #8
    6c80:	00039c16 	andeq	r9, r3, r6, lsl ip
    6c84:	05042800 	streq	r2, [r4, #-2048]	; 0xfffff800
    6c88:	05660238 	strbeq	r0, [r6, #-568]!	; 0xfffffdc8
    6c8c:	0d170000 	ldceq	0, cr0, [r7, #-0]
    6c90:	05000003 	streq	r0, [r0, #-3]
    6c94:	0025023a 	eoreq	r0, r5, sl, lsr r2
    6c98:	17000000 	strne	r0, [r0, -r0]
    6c9c:	00000131 	andeq	r0, r0, r1, lsr r1
    6ca0:	3b023f05 	blcc	968bc <__bss_end__+0x8c894>
    6ca4:	04000006 	streq	r0, [r0], #-6
    6ca8:	0001fb17 	andeq	pc, r1, r7, lsl fp	; <UNPREDICTABLE>
    6cac:	023f0500 	eorseq	r0, pc, #0, 10
    6cb0:	0000063b 	andeq	r0, r0, fp, lsr r6
    6cb4:	01ab1708 			; <UNDEFINED> instruction: 0x01ab1708
    6cb8:	3f050000 	svccc	0x00050000
    6cbc:	00063b02 	andeq	r3, r6, r2, lsl #22
    6cc0:	70170c00 	andsvc	r0, r7, r0, lsl #24
    6cc4:	05000003 	streq	r0, [r0, #-3]
    6cc8:	00250241 	eoreq	r0, r5, r1, asr #4
    6ccc:	17100000 	ldrne	r0, [r0, -r0]
    6cd0:	00000029 	andeq	r0, r0, r9, lsr #32
    6cd4:	1d024205 	sfmne	f4, 4, [r2, #-20]	; 0xffffffec
    6cd8:	14000008 	strne	r0, [r0], #-8
    6cdc:	00047b17 	andeq	r7, r4, r7, lsl fp
    6ce0:	02440500 	subeq	r0, r4, #0, 10
    6ce4:	00000025 	andeq	r0, r0, r5, lsr #32
    6ce8:	037a1730 	cmneq	sl, #48, 14	; 0xc00000
    6cec:	45050000 	strmi	r0, [r5, #-0]
    6cf0:	00058a02 	andeq	r8, r5, r2, lsl #20
    6cf4:	ca173400 	bgt	5d3cfc <__bss_end__+0x5c9cd4>
    6cf8:	05000002 	streq	r0, [r0, #-2]
    6cfc:	00250247 	eoreq	r0, r5, r7, asr #4
    6d00:	17380000 	ldrne	r0, [r8, -r0]!
    6d04:	0000038a 	andeq	r0, r0, sl, lsl #7
    6d08:	38024905 	stmdacc	r2, {r0, r2, r8, fp, lr}
    6d0c:	3c000008 	stccc	0, cr0, [r0], {8}
    6d10:	00026817 	andeq	r6, r2, r7, lsl r8
    6d14:	024c0500 	subeq	r0, ip, #0, 10
    6d18:	0000017c 	andeq	r0, r0, ip, ror r1
    6d1c:	01ca1740 	biceq	r1, sl, r0, asr #14
    6d20:	4d050000 	stcmi	0, cr0, [r5, #-0]
    6d24:	00002502 	andeq	r2, r0, r2, lsl #10
    6d28:	1d174400 	cfldrsne	mvf4, [r7, #-0]
    6d2c:	05000005 	streq	r0, [r0, #-5]
    6d30:	017c024e 	cmneq	ip, lr, asr #4
    6d34:	17480000 	strbne	r0, [r8, -r0]
    6d38:	000002dc 	ldrdeq	r0, [r0], -ip
    6d3c:	3e024f05 	cdpcc	15, 0, cr4, cr2, cr5, {0}
    6d40:	4c000008 	stcmi	0, cr0, [r0], {8}
    6d44:	00020317 	andeq	r0, r2, r7, lsl r3
    6d48:	02520500 	subseq	r0, r2, #0, 10
    6d4c:	00000025 	andeq	r0, r0, r5, lsr #32
    6d50:	01491750 	cmpeq	r9, r0, asr r7
    6d54:	53050000 	movwpl	r0, #20480	; 0x5000
    6d58:	00010c02 	andeq	r0, r1, r2, lsl #24
    6d5c:	06175400 	ldreq	r5, [r7], -r0, lsl #8
    6d60:	05000003 	streq	r0, [r0, #-3]
    6d64:	07fb0276 			; <UNDEFINED> instruction: 0x07fb0276
    6d68:	18580000 	ldmdane	r8, {}^	; <UNPREDICTABLE>
    6d6c:	000002c2 	andeq	r0, r0, r2, asr #5
    6d70:	99027a05 	stmdbls	r2, {r0, r2, r9, fp, ip, sp, lr}
    6d74:	48000002 	stmdami	r0, {r1}
    6d78:	02461801 	subeq	r1, r6, #65536	; 0x10000
    6d7c:	7b050000 	blvc	146d84 <__bss_end__+0x13cd5c>
    6d80:	00025b02 	andeq	r5, r2, r2, lsl #22
    6d84:	18014c00 	stmdane	r1, {sl, fp, lr}
    6d88:	000004c9 	andeq	r0, r0, r9, asr #9
    6d8c:	4f027f05 	svcmi	0x00027f05
    6d90:	dc000008 	stcle	0, cr0, [r0], {8}
    6d94:	011a1802 	tsteq	sl, r2, lsl #16
    6d98:	84050000 	strhi	r0, [r5], #-0
    6d9c:	00060002 	andeq	r0, r6, r2
    6da0:	1802e000 	stmdane	r2, {sp, lr, pc}
    6da4:	000000ff 	strdeq	r0, [r0], -pc	; <UNPREDICTABLE>
    6da8:	5b028505 	blpl	a81c4 <__bss_end__+0x9e19c>
    6dac:	ec000008 	stc	0, cr0, [r0], {8}
    6db0:	040e0002 	streq	r0, [lr], #-2
    6db4:	0000040b 	andeq	r0, r0, fp, lsl #8
    6db8:	00002514 	andeq	r2, r0, r4, lsl r5
    6dbc:	00058a00 	andeq	r8, r5, r0, lsl #20
    6dc0:	04291500 	strteq	r1, [r9], #-1280	; 0xfffffb00
    6dc4:	0a150000 	beq	546dcc <__bss_end__+0x53cda4>
    6dc8:	15000001 	strne	r0, [r0, #-1]
    6dcc:	0000058a 	andeq	r0, r0, sl, lsl #11
    6dd0:	00002515 	andeq	r2, r0, r5, lsl r5
    6dd4:	040e0000 	streq	r0, [lr], #-0
    6dd8:	00000119 	andeq	r0, r0, r9, lsl r1
    6ddc:	056c040e 	strbeq	r0, [ip, #-1038]!	; 0xfffffbf2
    6de0:	86140000 	ldrhi	r0, [r4], -r0
    6de4:	b4000000 	strlt	r0, [r0], #-0
    6de8:	15000005 	strne	r0, [r0, #-5]
    6dec:	00000429 	andeq	r0, r0, r9, lsr #8
    6df0:	00010a15 	andeq	r0, r1, r5, lsl sl
    6df4:	00861500 	addeq	r1, r6, r0, lsl #10
    6df8:	25150000 	ldrcs	r0, [r5, #-0]
    6dfc:	00000000 	andeq	r0, r0, r0
    6e00:	0596040e 	ldreq	r0, [r6, #1038]	; 0x40e
    6e04:	25140000 	ldrcs	r0, [r4, #-0]
    6e08:	ce000000 	cdpgt	0, 0, cr0, cr0, cr0, {0}
    6e0c:	15000005 	strne	r0, [r0, #-5]
    6e10:	00000429 	andeq	r0, r0, r9, lsr #8
    6e14:	00010a15 	andeq	r0, r1, r5, lsl sl
    6e18:	040e0000 	streq	r0, [lr], #-0
    6e1c:	000005ba 			; <UNDEFINED> instruction: 0x000005ba
    6e20:	00005409 	andeq	r5, r0, r9, lsl #8
    6e24:	0005e400 	andeq	lr, r5, r0, lsl #8
    6e28:	00cc0a00 	sbceq	r0, ip, r0, lsl #20
    6e2c:	00020000 	andeq	r0, r2, r0
    6e30:	00005409 	andeq	r5, r0, r9, lsl #8
    6e34:	0005f400 	andeq	pc, r5, r0, lsl #8
    6e38:	00cc0a00 	sbceq	r0, ip, r0, lsl #20
    6e3c:	00000000 	andeq	r0, r0, r0
    6e40:	00033506 	andeq	r3, r3, r6, lsl #10
    6e44:	011d0500 	tsteq	sp, r0, lsl #10
    6e48:	000002e1 	andeq	r0, r0, r1, ror #5
    6e4c:	0004b019 	andeq	fp, r4, r9, lsl r0
    6e50:	21050c00 	tstcs	r5, r0, lsl #24
    6e54:	00063501 	andeq	r3, r6, r1, lsl #10
    6e58:	035d1700 	cmpeq	sp, #0, 14
    6e5c:	23050000 	movwcs	r0, #20480	; 0x5000
    6e60:	00063501 	andeq	r3, r6, r1, lsl #10
    6e64:	1e170000 	cdpne	0, 1, cr0, cr7, cr0, {0}
    6e68:	05000002 	streq	r0, [r0, #-2]
    6e6c:	00250124 	eoreq	r0, r5, r4, lsr #2
    6e70:	17040000 	strne	r0, [r4, -r0]
    6e74:	0000032f 	andeq	r0, r0, pc, lsr #6
    6e78:	3b012505 	blcc	50294 <__bss_end__+0x4626c>
    6e7c:	08000006 	stmdaeq	r0, {r1, r2}
    6e80:	00040e00 	andeq	r0, r4, r0, lsl #28
    6e84:	0e000006 	cdpeq	0, 0, cr0, cr0, cr6, {0}
    6e88:	0005f404 	andeq	pc, r5, r4, lsl #8
    6e8c:	00211900 	eoreq	r1, r1, r0, lsl #18
    6e90:	050e0000 	streq	r0, [lr, #-0]
    6e94:	0676013d 			; <UNDEFINED> instruction: 0x0676013d
    6e98:	a3170000 	tstge	r7, #0
    6e9c:	05000003 	streq	r0, [r0, #-3]
    6ea0:	0676013e 			; <UNDEFINED> instruction: 0x0676013e
    6ea4:	17000000 	strne	r0, [r0, -r0]
    6ea8:	000003d0 	ldrdeq	r0, [r0], -r0	; <UNPREDICTABLE>
    6eac:	76013f05 	strvc	r3, [r1], -r5, lsl #30
    6eb0:	06000006 	streq	r0, [r0], -r6
    6eb4:	00044e17 	andeq	r4, r4, r7, lsl lr
    6eb8:	01400500 	cmpeq	r0, r0, lsl #10
    6ebc:	0000005b 	andeq	r0, r0, fp, asr r0
    6ec0:	5b09000c 	blpl	246ef8 <__bss_end__+0x23ced0>
    6ec4:	86000000 	strhi	r0, [r0], -r0
    6ec8:	0a000006 	beq	6ee8 <_start-0x1118>
    6ecc:	000000cc 	andeq	r0, r0, ip, asr #1
    6ed0:	d01a0002 	andsle	r0, sl, r2
    6ed4:	87025705 	strhi	r5, [r2, -r5, lsl #14]
    6ed8:	17000007 	strne	r0, [r0, -r7]
    6edc:	00000494 	muleq	r0, r4, r4
    6ee0:	31025905 	tstcc	r2, r5, lsl #18
    6ee4:	00000000 	andeq	r0, r0, r0
    6ee8:	00043817 	andeq	r3, r4, r7, lsl r8
    6eec:	025a0500 	subseq	r0, sl, #0, 10
    6ef0:	0000010c 	andeq	r0, r0, ip, lsl #2
    6ef4:	025b1704 	subseq	r1, fp, #4, 14	; 0x100000
    6ef8:	5b050000 	blpl	146f00 <__bss_end__+0x13ced8>
    6efc:	00078702 	andeq	r8, r7, r2, lsl #14
    6f00:	f4170800 			; <UNDEFINED> instruction: 0xf4170800
    6f04:	05000004 	streq	r0, [r0, #-4]
    6f08:	0192025c 	orrseq	r0, r2, ip, asr r2
    6f0c:	17240000 	strne	r0, [r4, -r0]!
    6f10:	000001bb 			; <UNDEFINED> instruction: 0x000001bb
    6f14:	25025d05 	strcs	r5, [r2, #-3333]	; 0xfffff2fb
    6f18:	48000000 	stmdami	r0, {}	; <UNPREDICTABLE>
    6f1c:	00035817 	andeq	r5, r3, r7, lsl r8
    6f20:	025e0500 	subseq	r0, lr, #0, 10
    6f24:	00000069 	andeq	r0, r0, r9, rrx
    6f28:	050a1750 	streq	r1, [sl, #-1872]	; 0xfffff8b0
    6f2c:	5f050000 	svcpl	0x00050000
    6f30:	00064102 	andeq	r4, r6, r2, lsl #2
    6f34:	63175800 	tstvs	r7, #0, 16
    6f38:	05000003 	streq	r0, [r0, #-3]
    6f3c:	00f40260 	rscseq	r0, r4, r0, ror #4
    6f40:	17680000 	strbne	r0, [r8, -r0]!
    6f44:	0000050f 	andeq	r0, r0, pc, lsl #10
    6f48:	f4026105 	vst4.8	{d6,d8,d10,d12}, [r2], r5
    6f4c:	70000000 	andvc	r0, r0, r0
    6f50:	00009317 	andeq	r9, r0, r7, lsl r3
    6f54:	02620500 	rsbeq	r0, r2, #0, 10
    6f58:	000000f4 	strdeq	r0, [r0], -r4
    6f5c:	04bf1778 	ldrteq	r1, [pc], #1912	; 6f64 <_start-0x109c>
    6f60:	63050000 	movwvs	r0, #20480	; 0x5000
    6f64:	00079702 	andeq	r9, r7, r2, lsl #14
    6f68:	4f178000 	svcmi	0x00178000
    6f6c:	05000002 	streq	r0, [r0, #-2]
    6f70:	07a70264 	streq	r0, [r7, r4, ror #4]!
    6f74:	17880000 	strne	r0, [r8, r0]
    6f78:	0000045b 	andeq	r0, r0, fp, asr r4
    6f7c:	25026505 	strcs	r6, [r2, #-1285]	; 0xfffffafb
    6f80:	a0000000 	andge	r0, r0, r0
    6f84:	00018117 	andeq	r8, r1, r7, lsl r1
    6f88:	02660500 	rsbeq	r0, r6, #0, 10
    6f8c:	000000f4 	strdeq	r0, [r0], -r4
    6f90:	008417a4 	addeq	r1, r4, r4, lsr #15
    6f94:	67050000 	strvs	r0, [r5, -r0]
    6f98:	0000f402 	andeq	pc, r0, r2, lsl #8
    6f9c:	7017ac00 	andsvc	sl, r7, r0, lsl #24
    6fa0:	05000001 	streq	r0, [r0, #-1]
    6fa4:	00f40268 	rscseq	r0, r4, r8, ror #4
    6fa8:	17b40000 	ldrne	r0, [r4, r0]!
    6fac:	0000003c 	andeq	r0, r0, ip, lsr r0
    6fb0:	f4026905 	vst2.8	{d6,d8}, [r2], r5
    6fb4:	bc000000 	stclt	0, cr0, [r0], {-0}
    6fb8:	00004b17 	andeq	r4, r0, r7, lsl fp
    6fbc:	026a0500 	rsbeq	r0, sl, #0, 10
    6fc0:	000000f4 	strdeq	r0, [r0], -r4
    6fc4:	030b17c4 	movweq	r1, #47044	; 0xb7c4
    6fc8:	6b050000 	blvs	146fd0 <__bss_end__+0x13cfa8>
    6fcc:	00002502 	andeq	r2, r0, r2, lsl #10
    6fd0:	0900cc00 	stmdbeq	r0, {sl, fp, lr, pc}
    6fd4:	00000112 	andeq	r0, r0, r2, lsl r1
    6fd8:	00000797 	muleq	r0, r7, r7
    6fdc:	0000cc0a 	andeq	ip, r0, sl, lsl #24
    6fe0:	09001900 	stmdbeq	r0, {r8, fp, ip}
    6fe4:	00000112 	andeq	r0, r0, r2, lsl r1
    6fe8:	000007a7 	andeq	r0, r0, r7, lsr #15
    6fec:	0000cc0a 	andeq	ip, r0, sl, lsl #24
    6ff0:	09000700 	stmdbeq	r0, {r8, r9, sl}
    6ff4:	00000112 	andeq	r0, r0, r2, lsl r1
    6ff8:	000007b7 			; <UNDEFINED> instruction: 0x000007b7
    6ffc:	0000cc0a 	andeq	ip, r0, sl, lsl #24
    7000:	1a001700 	bne	cc08 <__bss_end__+0x2be0>
    7004:	027005f0 	rsbseq	r0, r0, #240, 10	; 0x3c000000
    7008:	000007db 	ldrdeq	r0, [r0], -fp
    700c:	0002b217 	andeq	fp, r2, r7, lsl r2
    7010:	02730500 	rsbseq	r0, r3, #0, 10
    7014:	000007db 	ldrdeq	r0, [r0], -fp
    7018:	04b61700 	ldrteq	r1, [r6], #1792	; 0x700
    701c:	74050000 	strvc	r0, [r5], #-0
    7020:	0007eb02 	andeq	lr, r7, r2, lsl #22
    7024:	09007800 	stmdbeq	r0, {fp, ip, sp, lr}
    7028:	000002db 	ldrdeq	r0, [r0], -fp
    702c:	000007eb 	andeq	r0, r0, fp, ror #15
    7030:	0000cc0a 	andeq	ip, r0, sl, lsl #24
    7034:	09001d00 	stmdbeq	r0, {r8, sl, fp, ip}
    7038:	00000031 	andeq	r0, r0, r1, lsr r0
    703c:	000007fb 	strdeq	r0, [r0], -fp
    7040:	0000cc0a 	andeq	ip, r0, sl, lsl #24
    7044:	1b001d00 	blne	e44c <__bss_end__+0x4424>
    7048:	025505f0 	subseq	r0, r5, #240, 10	; 0x3c000000
    704c:	0000081d 	andeq	r0, r0, sp, lsl r8
    7050:	00039c1c 	andeq	r9, r3, ip, lsl ip
    7054:	026c0500 	rsbeq	r0, ip, #0, 10
    7058:	00000686 	andeq	r0, r0, r6, lsl #13
    705c:	0004e11c 	andeq	lr, r4, ip, lsl r1
    7060:	02750500 	rsbseq	r0, r5, #0, 10
    7064:	000007b7 			; <UNDEFINED> instruction: 0x000007b7
    7068:	01120900 	tsteq	r2, r0, lsl #18
    706c:	082d0000 	stmdaeq	sp!, {}	; <UNPREDICTABLE>
    7070:	cc0a0000 	stcgt	0, cr0, [sl], {-0}
    7074:	18000000 	stmdane	r0, {}	; <UNPREDICTABLE>
    7078:	08381d00 	ldmdaeq	r8!, {r8, sl, fp, ip}
    707c:	29150000 	ldmdbcs	r5, {}	; <UNPREDICTABLE>
    7080:	00000004 	andeq	r0, r0, r4
    7084:	082d040e 	stmdaeq	sp!, {r1, r2, r3, sl}
    7088:	040e0000 	streq	r0, [lr], #-0
    708c:	0000017c 	andeq	r0, r0, ip, ror r1
    7090:	00084f1d 	andeq	r4, r8, sp, lsl pc
    7094:	00251500 	eoreq	r1, r5, r0, lsl #10
    7098:	0e000000 	cdpeq	0, 0, cr0, cr0, cr0, {0}
    709c:	00085504 	andeq	r5, r8, r4, lsl #10
    70a0:	44040e00 	strmi	r0, [r4], #-3584	; 0xfffff200
    70a4:	09000008 	stmdbeq	r0, {r3}
    70a8:	000005f4 	strdeq	r0, [r0], -r4
    70ac:	0000086b 	andeq	r0, r0, fp, ror #16
    70b0:	0000cc0a 	andeq	ip, r0, sl, lsl #24
    70b4:	1e000200 	cdpne	2, 0, cr0, cr0, cr0, {0}
    70b8:	0000046f 	andeq	r0, r0, pc, ror #8
    70bc:	2902fd05 	stmdbcs	r2, {r0, r2, r8, sl, fp, ip, sp, lr, pc}
    70c0:	1e000004 	cdpne	0, 0, cr0, cr0, cr4, {0}
    70c4:	00000468 	andeq	r0, r0, r8, ror #8
    70c8:	2f02fe05 	svccs	0x0002fe05
    70cc:	14000004 	strne	r0, [r0], #-4
    70d0:	00000025 	andeq	r0, r0, r5, lsr #32
    70d4:	00000892 	muleq	r0, r2, r8
    70d8:	00002515 	andeq	r2, r0, r5, lsl r5
    70dc:	d41f0000 	ldrle	r0, [pc], #-0	; 70e4 <_start-0xf1c>
    70e0:	06000001 	streq	r0, [r0], -r1
    70e4:	00089d1d 	andeq	r9, r8, sp, lsl sp
    70e8:	83040e00 	movwhi	r0, #19968	; 0x4e00
    70ec:	14000008 	strne	r0, [r0], #-8
    70f0:	00000025 	andeq	r0, r0, r5, lsr #32
    70f4:	000008b2 			; <UNDEFINED> instruction: 0x000008b2
    70f8:	00058a15 	andeq	r8, r5, r5, lsl sl
    70fc:	691f0000 	ldmdbvs	pc, {}	; <UNPREDICTABLE>
    7100:	06000007 	streq	r0, [r0], -r7
    7104:	0008bd22 	andeq	fp, r8, r2, lsr #26
    7108:	a3040e00 	movwge	r0, #19968	; 0x4e00
    710c:	20000008 	andcs	r0, r0, r8
    7110:	0000087c 	andeq	r0, r0, ip, ror r8
    7114:	00310d01 	eorseq	r0, r1, r1, lsl #26
    7118:	4c210000 	stcmi	0, cr0, [r1], #-0
    711c:	01000008 	tsteq	r0, r8
    7120:	0090d01f 	addseq	sp, r0, pc, lsl r0
    7124:	00004c00 	andeq	r4, r0, r0, lsl #24
    7128:	859c0100 	ldrhi	r0, [ip, #256]	; 0x100
    712c:	22000009 	andcs	r0, r0, #9
    7130:	00000803 	andeq	r0, r0, r3, lsl #16
    7134:	002c2a01 	eoreq	r2, ip, r1, lsl #20
    7138:	0fc50000 	svceq	0x00c50000
    713c:	2a220000 	bcs	887144 <__bss_end__+0x87d11c>
    7140:	01000008 	tsteq	r0, r8
    7144:	00002c2b 	andeq	r2, r0, fp, lsr #24
    7148:	000fdd00 	andeq	sp, pc, r0, lsl #26
    714c:	08372200 	ldmdaeq	r7!, {r9, sp}
    7150:	2c010000 	stccs	0, cr0, [r1], {-0}
    7154:	0000002c 	andeq	r0, r0, ip, lsr #32
    7158:	00000ff5 	strdeq	r0, [r0], -r5
    715c:	00081122 	andeq	r1, r8, r2, lsr #2
    7160:	2c2d0100 	stfcss	f0, [sp], #-0
    7164:	0c000000 	stceq	0, cr0, [r0], {-0}
    7168:	23000010 	movwcs	r0, #16
    716c:	000090d8 	ldrdeq	r9, [r0], -r8
    7170:	000009aa 	andeq	r0, r0, sl, lsr #19
    7174:	0090e824 	addseq	lr, r0, r4, lsr #16
    7178:	0009d300 	andeq	sp, r9, r0, lsl #6
    717c:	00093b00 	andeq	r3, r9, r0, lsl #22
    7180:	50012500 	andpl	r2, r1, r0, lsl #10
    7184:	24004e01 	strcs	r4, [r0], #-3585	; 0xfffff1ff
    7188:	000090f4 	strdeq	r9, [r0], -r4
    718c:	000009de 	ldrdeq	r0, [r0], -lr
    7190:	0000095b 	andeq	r0, r0, fp, asr r9
    7194:	05500125 	ldrbeq	r0, [r0, #-293]	; 0xfffffedb
    7198:	1000240c 	andne	r2, r0, ip, lsl #8
    719c:	51012520 	tstpl	r1, r0, lsr #10
    71a0:	00010c05 	andeq	r0, r1, r5, lsl #24
    71a4:	24005a00 	strcs	r5, [r0], #-2560	; 0xfffff600
    71a8:	00009100 	andeq	r9, r0, r0, lsl #2
    71ac:	000009de 	ldrdeq	r0, [r0], -lr
    71b0:	0000097b 	andeq	r0, r0, fp, ror r9
    71b4:	05500125 	ldrbeq	r0, [r0, #-293]	; 0xfffffedb
    71b8:	10001c0c 	andne	r1, r0, ip, lsl #24
    71bc:	51012520 	tstpl	r1, r0, lsr #10
    71c0:	00200c05 	eoreq	r0, r0, r5, lsl #24
    71c4:	23005a00 	movwcs	r5, #2560	; 0xa00
    71c8:	00009108 	andeq	r9, r0, r8, lsl #2
    71cc:	00000985 	andeq	r0, r0, r5, lsl #19
    71d0:	086a2600 	stmdaeq	sl!, {r9, sl, sp}^
    71d4:	17010000 	strne	r0, [r1, -r0]
    71d8:	000090bc 	strheq	r9, [r0], -ip
    71dc:	00000014 	andeq	r0, r0, r4, lsl r0
    71e0:	09aa9c01 	stmibeq	sl!, {r0, sl, fp, ip, pc}
    71e4:	32220000 	eorcc	r0, r2, #0
    71e8:	01000008 	tsteq	r0, r8
    71ec:	00003118 	andeq	r3, r0, r8, lsl r1
    71f0:	00102100 	andseq	r2, r0, r0, lsl #2
    71f4:	79270000 	stmdbvc	r7!, {}	; <UNPREDICTABLE>
    71f8:	01000008 	tsteq	r0, r8
    71fc:	0000250e 	andeq	r2, r0, lr, lsl #10
    7200:	0090a400 	addseq	sl, r0, r0, lsl #8
    7204:	00001800 	andeq	r1, r0, r0, lsl #16
    7208:	d39c0100 	orrsle	r0, ip, #0, 2
    720c:	22000009 	andcs	r0, r0, #9
    7210:	00000832 	andeq	r0, r0, r2, lsr r8
    7214:	00310f01 	eorseq	r0, r1, r1, lsl #30
    7218:	104b0000 	subne	r0, fp, r0
    721c:	28000000 	stmdacs	r0, {}	; <UNPREDICTABLE>
    7220:	00000843 	andeq	r0, r0, r3, asr #16
    7224:	00000843 	andeq	r0, r0, r3, asr #16
    7228:	0b284f06 	bleq	a1ae48 <__bss_end__+0xa10e20>
    722c:	0b000008 	bleq	7254 <_start-0xdac>
    7230:	06000008 	streq	r0, [r0], -r8
    7234:	0917009b 	ldmdbeq	r7, {r0, r1, r3, r4, r7}
    7238:	00040000 	andeq	r0, r4, r0
    723c:	00001594 	muleq	r0, r4, r5
    7240:	03d60104 	bicseq	r0, r6, #4, 2
    7244:	870c0000 	strhi	r0, [ip, -r0]
    7248:	de000008 	cdple	0, 0, cr0, cr0, cr8, {0}
    724c:	1c000006 	stcne	0, cr0, [r0], {6}
    7250:	28000091 	stmdacs	r0, {r0, r4, r7}
    7254:	d8000000 	stmdale	r0, {}	; <UNPREDICTABLE>
    7258:	0200000b 	andeq	r0, r0, #11
    725c:	6e690504 	cdpvs	5, 6, cr0, cr9, cr4, {0}
    7260:	04030074 	streq	r0, [r3], #-116	; 0xffffff8c
    7264:	00006607 	andeq	r6, r0, r7, lsl #12
    7268:	06010300 	streq	r0, [r1], -r0, lsl #6
    726c:	000002fa 	strdeq	r0, [r0], -sl
    7270:	14050203 	strne	r0, [r5], #-515	; 0xfffffdfd
    7274:	03000003 	movweq	r0, #3
    7278:	00af0504 	adceq	r0, pc, r4, lsl #10
    727c:	08030000 	stmdaeq	r3, {}	; <UNPREDICTABLE>
    7280:	0000aa05 	andeq	sl, r0, r5, lsl #20
    7284:	08010300 	stmdaeq	r1, {r8, r9}
    7288:	000002f8 	strdeq	r0, [r0], -r8
    728c:	25070203 	strcs	r0, [r7, #-515]	; 0xfffffdfd
    7290:	03000002 	movweq	r0, #2
    7294:	00610704 	rsbeq	r0, r1, r4, lsl #14
    7298:	08030000 	stmdaeq	r3, {}	; <UNPREDICTABLE>
    729c:	00005c07 	andeq	r5, r0, r7, lsl #24
    72a0:	02e60400 	rsceq	r0, r6, #0, 8
    72a4:	07020000 	streq	r0, [r2, -r0]
    72a8:	00000025 	andeq	r0, r0, r5, lsr #32
    72ac:	0002d504 	andeq	sp, r2, r4, lsl #10
    72b0:	412c0300 			; <UNDEFINED> instruction: 0x412c0300
    72b4:	04000000 	streq	r0, [r0], #-0
    72b8:	000003bf 			; <UNDEFINED> instruction: 0x000003bf
    72bc:	00417203 	subeq	r7, r1, r3, lsl #4
    72c0:	76050000 	strvc	r0, [r5], -r0
    72c4:	04000002 	streq	r0, [r0], #-2
    72c8:	002c0165 	eoreq	r0, ip, r5, ror #2
    72cc:	04060000 	streq	r0, [r6], #-0
    72d0:	00b7a603 	adcseq	sl, r7, r3, lsl #12
    72d4:	70070000 	andvc	r0, r7, r0
    72d8:	03000002 	movweq	r0, #2
    72dc:	00008ca8 	andeq	r8, r0, r8, lsr #25
    72e0:	01e50700 	mvneq	r0, r0, lsl #14
    72e4:	a9030000 	stmdbge	r3, {}	; <UNPREDICTABLE>
    72e8:	000000b7 	strheq	r0, [r0], -r7
    72ec:	004f0800 	subeq	r0, pc, r0, lsl #16
    72f0:	00c70000 	sbceq	r0, r7, r0
    72f4:	c7090000 	strgt	r0, [r9, -r0]
    72f8:	03000000 	movweq	r0, #0
    72fc:	07040300 	streq	r0, [r4, -r0, lsl #6]
    7300:	000002a9 	andeq	r0, r0, r9, lsr #5
    7304:	a303080a 	movwge	r0, #14346	; 0x380a
    7308:	000000ef 	andeq	r0, r0, pc, ror #1
    730c:	0003a90b 	andeq	sl, r3, fp, lsl #18
    7310:	25a50300 	strcs	r0, [r5, #768]!	; 0x300
    7314:	00000000 	andeq	r0, r0, r0
    7318:	0003b10b 	andeq	fp, r3, fp, lsl #2
    731c:	98aa0300 	stmials	sl!, {r8, r9}
    7320:	04000000 	streq	r0, [r0], #-0
    7324:	033c0400 	teqeq	ip, #0, 8
    7328:	ab030000 	blge	c7330 <__bss_end__+0xbd308>
    732c:	000000ce 	andeq	r0, r0, lr, asr #1
    7330:	0001a204 	andeq	sl, r1, r4, lsl #4
    7334:	6baf0300 	blvs	febc7f3c <__bss_end__+0xfebbdf14>
    7338:	0c000000 	stceq	0, cr0, [r0], {-0}
    733c:	0d040d04 	stceq	13, cr0, [r4, #-16]
    7340:	03000001 	movweq	r0, #1
    7344:	03010801 	movweq	r0, #6145	; 0x1801
    7348:	0d0e0000 	stceq	0, cr0, [lr, #-0]
    734c:	04000001 	streq	r0, [r0], #-1
    7350:	00000453 	andeq	r0, r0, r3, asr r4
    7354:	005d1605 	subseq	r1, sp, r5, lsl #12
    7358:	b30f0000 	movwlt	r0, #61440	; 0xf000
    735c:	18000001 	stmdane	r0, {r0}
    7360:	01772d05 	cmneq	r7, r5, lsl #26
    7364:	5d0b0000 	stcpl	0, cr0, [fp, #-0]
    7368:	05000003 	streq	r0, [r0, #-3]
    736c:	0001772f 	andeq	r7, r1, pc, lsr #14
    7370:	5f100000 	svcpl	0x00100000
    7374:	3005006b 	andcc	r0, r5, fp, rrx
    7378:	00000025 	andeq	r0, r0, r5, lsr #32
    737c:	03940b04 	orrseq	r0, r4, #4, 22	; 0x1000
    7380:	30050000 	andcc	r0, r5, r0
    7384:	00000025 	andeq	r0, r0, r5, lsr #32
    7388:	019c0b08 	orrseq	r0, ip, r8, lsl #22
    738c:	30050000 	andcc	r0, r5, r0
    7390:	00000025 	andeq	r0, r0, r5, lsr #32
    7394:	04a10b0c 	strteq	r0, [r1], #2828	; 0xb0c
    7398:	30050000 	andcc	r0, r5, r0
    739c:	00000025 	andeq	r0, r0, r5, lsr #32
    73a0:	785f1010 	ldmdavc	pc, {r4, ip}^	; <UNPREDICTABLE>
    73a4:	7d310500 	cfldr32vc	mvfx0, [r1, #-0]
    73a8:	14000001 	strne	r0, [r0], #-1
    73ac:	24040d00 	strcs	r0, [r4], #-3328	; 0xfffff300
    73b0:	08000001 	stmdaeq	r0, {r0}
    73b4:	00000119 	andeq	r0, r0, r9, lsl r1
    73b8:	0000018d 	andeq	r0, r0, sp, lsl #3
    73bc:	0000c709 	andeq	ip, r0, r9, lsl #14
    73c0:	0f000000 	svceq	0x00000000
    73c4:	000001e0 	andeq	r0, r0, r0, ror #3
    73c8:	06350524 	ldrteq	r0, [r5], -r4, lsr #10
    73cc:	0b000002 	bleq	73dc <_start-0xc24>
    73d0:	000000a1 	andeq	r0, r0, r1, lsr #1
    73d4:	00253705 	eoreq	r3, r5, r5, lsl #14
    73d8:	0b000000 	bleq	73e0 <_start-0xc20>
    73dc:	000003c7 	andeq	r0, r0, r7, asr #7
    73e0:	00253805 	eoreq	r3, r5, r5, lsl #16
    73e4:	0b040000 	bleq	1073ec <__bss_end__+0xfd3c4>
    73e8:	000000c4 	andeq	r0, r0, r4, asr #1
    73ec:	00253905 	eoreq	r3, r5, r5, lsl #18
    73f0:	0b080000 	bleq	2073f8 <__bss_end__+0x1fd3d0>
    73f4:	00000522 	andeq	r0, r0, r2, lsr #10
    73f8:	00253a05 	eoreq	r3, r5, r5, lsl #20
    73fc:	0b0c0000 	bleq	307404 <__bss_end__+0x2fd3dc>
    7400:	000002b9 			; <UNDEFINED> instruction: 0x000002b9
    7404:	00253b05 	eoreq	r3, r5, r5, lsl #22
    7408:	0b100000 	bleq	407410 <__bss_end__+0x3fd3e8>
    740c:	00000292 	muleq	r0, r2, r2
    7410:	00253c05 	eoreq	r3, r5, r5, lsl #24
    7414:	0b140000 	bleq	50741c <__bss_end__+0x4fd3f4>
    7418:	000004a6 	andeq	r0, r0, r6, lsr #9
    741c:	00253d05 	eoreq	r3, r5, r5, lsl #26
    7420:	0b180000 	bleq	607428 <__bss_end__+0x5fd400>
    7424:	0000031e 	andeq	r0, r0, lr, lsl r3
    7428:	00253e05 	eoreq	r3, r5, r5, lsl #28
    742c:	0b1c0000 	bleq	707434 <__bss_end__+0x6fd40c>
    7430:	000004e9 	andeq	r0, r0, r9, ror #9
    7434:	00253f05 	eoreq	r3, r5, r5, lsl #30
    7438:	00200000 	eoreq	r0, r0, r0
    743c:	00010411 	andeq	r0, r1, r1, lsl r4
    7440:	05010800 	streq	r0, [r1, #-2048]	; 0xfffff800
    7444:	00024648 	andeq	r4, r2, r8, asr #12
    7448:	018f0b00 	orreq	r0, pc, r0, lsl #22
    744c:	49050000 	stmdbmi	r5, {}	; <UNPREDICTABLE>
    7450:	00000246 	andeq	r0, r0, r6, asr #4
    7454:	00000b00 	andeq	r0, r0, r0, lsl #22
    7458:	4a050000 	bmi	147460 <__bss_end__+0x13d438>
    745c:	00000246 	andeq	r0, r0, r6, asr #4
    7460:	04451280 	strbeq	r1, [r5], #-640	; 0xfffffd80
    7464:	4c050000 	stcmi	0, cr0, [r5], {-0}
    7468:	00000119 	andeq	r0, r0, r9, lsl r1
    746c:	29120100 	ldmdbcs	r2, {r8}
    7470:	05000001 	streq	r0, [r0, #-1]
    7474:	0001194f 	andeq	r1, r1, pc, asr #18
    7478:	00010400 	andeq	r0, r1, r0, lsl #8
    747c:	00010508 	andeq	r0, r1, r8, lsl #10
    7480:	00025600 	andeq	r5, r2, r0, lsl #12
    7484:	00c70900 	sbceq	r0, r7, r0, lsl #18
    7488:	001f0000 	andseq	r0, pc, r0
    748c:	0002c211 	andeq	ip, r2, r1, lsl r2
    7490:	05019000 	streq	r9, [r1, #-0]
    7494:	0002945b 	andeq	r9, r2, fp, asr r4
    7498:	035d0b00 	cmpeq	sp, #0, 22
    749c:	5c050000 	stcpl	0, cr0, [r5], {-0}
    74a0:	00000294 	muleq	r0, r4, r2
    74a4:	03750b00 	cmneq	r5, #0, 22
    74a8:	5d050000 	stcpl	0, cr0, [r5, #-0]
    74ac:	00000025 	andeq	r0, r0, r5, lsr #32
    74b0:	01970b04 	orrseq	r0, r7, r4, lsl #22
    74b4:	5f050000 	svcpl	0x00050000
    74b8:	0000029a 	muleq	r0, sl, r2
    74bc:	01040b08 	tsteq	r4, r8, lsl #22
    74c0:	60050000 	andvs	r0, r5, r0
    74c4:	00000206 	andeq	r0, r0, r6, lsl #4
    74c8:	040d0088 	streq	r0, [sp], #-136	; 0xffffff78
    74cc:	00000256 	andeq	r0, r0, r6, asr r2
    74d0:	0002aa08 	andeq	sl, r2, r8, lsl #20
    74d4:	0002aa00 	andeq	sl, r2, r0, lsl #20
    74d8:	00c70900 	sbceq	r0, r7, r0, lsl #18
    74dc:	001f0000 	andseq	r0, pc, r0
    74e0:	02b0040d 	adcseq	r0, r0, #218103808	; 0xd000000
    74e4:	0f130000 	svceq	0x00130000
    74e8:	00000328 	andeq	r0, r0, r8, lsr #6
    74ec:	d6730508 	ldrbtle	r0, [r3], -r8, lsl #10
    74f0:	0b000002 	bleq	7500 <_start-0xb00>
    74f4:	000000be 	strheq	r0, [r0], -lr
    74f8:	02d67405 	sbcseq	r7, r6, #83886080	; 0x5000000
    74fc:	0b000000 	bleq	7504 <_start-0xafc>
    7500:	0000001b 	andeq	r0, r0, fp, lsl r0
    7504:	00257505 	eoreq	r7, r5, r5, lsl #10
    7508:	00040000 	andeq	r0, r4, r0
    750c:	004f040d 	subeq	r0, pc, sp, lsl #8
    7510:	470f0000 	strmi	r0, [pc, -r0]
    7514:	68000003 	stmdavs	r0, {r0, r1}
    7518:	0406b305 	streq	fp, [r6], #-773	; 0xfffffcfb
    751c:	5f100000 	svcpl	0x00100000
    7520:	b4050070 	strlt	r0, [r5], #-112	; 0xffffff90
    7524:	000002d6 	ldrdeq	r0, [r0], -r6
    7528:	725f1000 	subsvc	r1, pc, #0
    752c:	25b50500 	ldrcs	r0, [r5, #1280]!	; 0x500
    7530:	04000000 	streq	r0, [r0], #-0
    7534:	00775f10 	rsbseq	r5, r7, r0, lsl pc
    7538:	0025b605 	eoreq	fp, r5, r5, lsl #12
    753c:	0b080000 	bleq	207544 <__bss_end__+0x1fd51c>
    7540:	00000122 	andeq	r0, r0, r2, lsr #2
    7544:	003ab705 	eorseq	fp, sl, r5, lsl #14
    7548:	0b0c0000 	bleq	307550 <__bss_end__+0x2fd528>
    754c:	0000020b 	andeq	r0, r0, fp, lsl #4
    7550:	003ab805 	eorseq	fp, sl, r5, lsl #16
    7554:	100e0000 	andne	r0, lr, r0
    7558:	0066625f 	rsbeq	r6, r6, pc, asr r2
    755c:	02b1b905 	adcseq	fp, r1, #81920	; 0x14000
    7560:	0b100000 	bleq	407568 <__bss_end__+0x3fd540>
    7564:	0000007b 	andeq	r0, r0, fp, ror r0
    7568:	0025ba05 	eoreq	fp, r5, r5, lsl #20
    756c:	0b180000 	bleq	607574 <__bss_end__+0x5fd54c>
    7570:	00000112 	andeq	r0, r0, r2, lsl r1
    7574:	0105c105 	tsteq	r5, r5, lsl #2
    7578:	0b1c0000 	bleq	707580 <__bss_end__+0x6fd558>
    757c:	00000a78 	andeq	r0, r0, r8, ror sl
    7580:	0561c305 	strbeq	ip, [r1, #-773]!	; 0xfffffcfb
    7584:	0b200000 	bleq	80758c <__bss_end__+0x7fd564>
    7588:	0000060c 	andeq	r0, r0, ip, lsl #12
    758c:	058bc505 	streq	ip, [fp, #1285]	; 0x505
    7590:	0b240000 	bleq	907598 <__bss_end__+0x8fd570>
    7594:	000003b9 			; <UNDEFINED> instruction: 0x000003b9
    7598:	05afc805 	streq	ip, [pc, #2053]!	; 7da5 <_start-0x25b>
    759c:	0b280000 	bleq	a075a4 <__bss_end__+0x9fd57c>
    75a0:	00000503 	andeq	r0, r0, r3, lsl #10
    75a4:	05c9c905 	strbeq	ip, [r9, #2309]	; 0x905
    75a8:	102c0000 	eorne	r0, ip, r0
    75ac:	0062755f 	rsbeq	r7, r2, pc, asr r5
    75b0:	02b1cc05 	adcseq	ip, r1, #1280	; 0x500
    75b4:	10300000 	eorsne	r0, r0, r0
    75b8:	0070755f 	rsbseq	r7, r0, pc, asr r5
    75bc:	02d6cd05 	sbcseq	ip, r6, #320	; 0x140
    75c0:	10380000 	eorsne	r0, r8, r0
    75c4:	0072755f 	rsbseq	r7, r2, pc, asr r5
    75c8:	0025ce05 	eoreq	ip, r5, r5, lsl #28
    75cc:	0b3c0000 	bleq	f075d4 <__bss_end__+0xefd5ac>
    75d0:	000000b8 	strheq	r0, [r0], -r8
    75d4:	05cfd105 	strbeq	sp, [pc, #261]	; 76e1 <_start-0x91f>
    75d8:	0b400000 	bleq	10075e0 <__bss_end__+0xffd5b8>
    75dc:	000004db 	ldrdeq	r0, [r0], -fp
    75e0:	05dfd205 	ldrbeq	sp, [pc, #517]	; 77ed <_start-0x813>
    75e4:	10430000 	subne	r0, r3, r0
    75e8:	00626c5f 	rsbeq	r6, r2, pc, asr ip
    75ec:	02b1d505 	adcseq	sp, r1, #20971520	; 0x1400000
    75f0:	0b440000 	bleq	11075f8 <__bss_end__+0x10fd5d0>
    75f4:	00000140 	andeq	r0, r0, r0, asr #2
    75f8:	0025d805 	eoreq	sp, r5, r5, lsl #16
    75fc:	0b4c0000 	bleq	1307604 <__bss_end__+0x12fd5dc>
    7600:	00000151 	andeq	r0, r0, r1, asr r1
    7604:	0076d905 	rsbseq	sp, r6, r5, lsl #18
    7608:	0b500000 	bleq	1407610 <__bss_end__+0x13fd5e8>
    760c:	00000a19 	andeq	r0, r0, r9, lsl sl
    7610:	0424dc05 	strteq	sp, [r4], #-3077	; 0xfffff3fb
    7614:	0b540000 	bleq	150761c <__bss_end__+0x14fd5f4>
    7618:	00000284 	andeq	r0, r0, r4, lsl #5
    761c:	00fae005 	rscseq	lr, sl, r5
    7620:	0b580000 	bleq	1607628 <__bss_end__+0x15fd600>
    7624:	0000034f 	andeq	r0, r0, pc, asr #6
    7628:	00efe205 	rsceq	lr, pc, r5, lsl #4
    762c:	0b5c0000 	bleq	1707634 <__bss_end__+0x16fd60c>
    7630:	0000028a 	andeq	r0, r0, sl, lsl #5
    7634:	0025e305 	eoreq	lr, r5, r5, lsl #6
    7638:	00640000 	rsbeq	r0, r4, r0
    763c:	00002514 	andeq	r2, r0, r4, lsl r5
    7640:	00042400 	andeq	r2, r4, r0, lsl #8
    7644:	04241500 	strteq	r1, [r4], #-1280	; 0xfffffb00
    7648:	05150000 	ldreq	r0, [r5, #-0]
    764c:	15000001 	strne	r0, [r0, #-1]
    7650:	00000107 	andeq	r0, r0, r7, lsl #2
    7654:	00002515 	andeq	r2, r0, r5, lsl r5
    7658:	040d0000 	streq	r0, [sp], #-0
    765c:	0000042f 	andeq	r0, r0, pc, lsr #8
    7660:	0004240e 	andeq	r2, r4, lr, lsl #8
    7664:	039c1600 	orrseq	r1, ip, #0, 12
    7668:	04280000 	strteq	r0, [r8], #-0
    766c:	61023805 	tstvs	r2, r5, lsl #16
    7670:	17000005 	strne	r0, [r0, -r5]
    7674:	0000030d 	andeq	r0, r0, sp, lsl #6
    7678:	25023a05 	strcs	r3, [r2, #-2565]	; 0xfffff5fb
    767c:	00000000 	andeq	r0, r0, r0
    7680:	00013117 	andeq	r3, r1, r7, lsl r1
    7684:	023f0500 	eorseq	r0, pc, #0, 10
    7688:	00000636 	andeq	r0, r0, r6, lsr r6
    768c:	01fb1704 	mvnseq	r1, r4, lsl #14
    7690:	3f050000 	svccc	0x00050000
    7694:	00063602 	andeq	r3, r6, r2, lsl #12
    7698:	ab170800 	blge	5c96a0 <__bss_end__+0x5bf678>
    769c:	05000001 	streq	r0, [r0, #-1]
    76a0:	0636023f 			; <UNDEFINED> instruction: 0x0636023f
    76a4:	170c0000 	strne	r0, [ip, -r0]
    76a8:	00000370 	andeq	r0, r0, r0, ror r3
    76ac:	25024105 	strcs	r4, [r2, #-261]	; 0xfffffefb
    76b0:	10000000 	andne	r0, r0, r0
    76b4:	00002917 	andeq	r2, r0, r7, lsl r9
    76b8:	02420500 	subeq	r0, r2, #0, 10
    76bc:	00000818 	andeq	r0, r0, r8, lsl r8
    76c0:	047b1714 	ldrbteq	r1, [fp], #-1812	; 0xfffff8ec
    76c4:	44050000 	strmi	r0, [r5], #-0
    76c8:	00002502 	andeq	r2, r0, r2, lsl #10
    76cc:	7a173000 	bvc	5d36d4 <__bss_end__+0x5c96ac>
    76d0:	05000003 	streq	r0, [r0, #-3]
    76d4:	05850245 	streq	r0, [r5, #581]	; 0x245
    76d8:	17340000 	ldrne	r0, [r4, -r0]!
    76dc:	000002ca 	andeq	r0, r0, sl, asr #5
    76e0:	25024705 	strcs	r4, [r2, #-1797]	; 0xfffff8fb
    76e4:	38000000 	stmdacc	r0, {}	; <UNPREDICTABLE>
    76e8:	00038a17 	andeq	r8, r3, r7, lsl sl
    76ec:	02490500 	subeq	r0, r9, #0, 10
    76f0:	00000833 	andeq	r0, r0, r3, lsr r8
    76f4:	0268173c 	rsbeq	r1, r8, #60, 14	; 0xf00000
    76f8:	4c050000 	stcmi	0, cr0, [r5], {-0}
    76fc:	00017702 	andeq	r7, r1, r2, lsl #14
    7700:	ca174000 	bgt	5d7708 <__bss_end__+0x5cd6e0>
    7704:	05000001 	streq	r0, [r0, #-1]
    7708:	0025024d 	eoreq	r0, r5, sp, asr #4
    770c:	17440000 	strbne	r0, [r4, -r0]
    7710:	0000051d 	andeq	r0, r0, sp, lsl r5
    7714:	77024e05 	strvc	r4, [r2, -r5, lsl #28]
    7718:	48000001 	stmdami	r0, {r0}
    771c:	0002dc17 	andeq	sp, r2, r7, lsl ip
    7720:	024f0500 	subeq	r0, pc, #0, 10
    7724:	00000839 	andeq	r0, r0, r9, lsr r8
    7728:	0203174c 	andeq	r1, r3, #76, 14	; 0x1300000
    772c:	52050000 	andpl	r0, r5, #0
    7730:	00002502 	andeq	r2, r0, r2, lsl #10
    7734:	49175000 	ldmdbmi	r7, {ip, lr}
    7738:	05000001 	streq	r0, [r0, #-1]
    773c:	01070253 	tsteq	r7, r3, asr r2
    7740:	17540000 	ldrbne	r0, [r4, -r0]
    7744:	00000306 	andeq	r0, r0, r6, lsl #6
    7748:	f6027605 			; <UNDEFINED> instruction: 0xf6027605
    774c:	58000007 	stmdapl	r0, {r0, r1, r2}
    7750:	0002c218 	andeq	ip, r2, r8, lsl r2
    7754:	027a0500 	rsbseq	r0, sl, #0, 10
    7758:	00000294 	muleq	r0, r4, r2
    775c:	46180148 	ldrmi	r0, [r8], -r8, asr #2
    7760:	05000002 	streq	r0, [r0, #-2]
    7764:	0256027b 	subseq	r0, r6, #-1342177273	; 0xb0000007
    7768:	014c0000 	mrseq	r0, (UNDEF: 76)
    776c:	0004c918 	andeq	ip, r4, r8, lsl r9
    7770:	027f0500 	rsbseq	r0, pc, #0, 10
    7774:	0000084a 	andeq	r0, r0, sl, asr #16
    7778:	1a1802dc 	bne	6082f0 <__bss_end__+0x5fe2c8>
    777c:	05000001 	streq	r0, [r0, #-1]
    7780:	05fb0284 	ldrbeq	r0, [fp, #644]!	; 0x284
    7784:	02e00000 	rsceq	r0, r0, #0
    7788:	0000ff18 	andeq	pc, r0, r8, lsl pc	; <UNPREDICTABLE>
    778c:	02850500 	addeq	r0, r5, #0, 10
    7790:	00000856 	andeq	r0, r0, r6, asr r8
    7794:	0d0002ec 	sfmeq	f0, 4, [r0, #-944]	; 0xfffffc50
    7798:	00040604 	andeq	r0, r4, r4, lsl #12
    779c:	00251400 	eoreq	r1, r5, r0, lsl #8
    77a0:	05850000 	streq	r0, [r5]
    77a4:	24150000 	ldrcs	r0, [r5], #-0
    77a8:	15000004 	strne	r0, [r0, #-4]
    77ac:	00000105 	andeq	r0, r0, r5, lsl #2
    77b0:	00058515 	andeq	r8, r5, r5, lsl r5
    77b4:	00251500 	eoreq	r1, r5, r0, lsl #10
    77b8:	0d000000 	stceq	0, cr0, [r0, #-0]
    77bc:	00011404 	andeq	r1, r1, r4, lsl #8
    77c0:	67040d00 	strvs	r0, [r4, -r0, lsl #26]
    77c4:	14000005 	strne	r0, [r0], #-5
    77c8:	00000081 	andeq	r0, r0, r1, lsl #1
    77cc:	000005af 	andeq	r0, r0, pc, lsr #11
    77d0:	00042415 	andeq	r2, r4, r5, lsl r4
    77d4:	01051500 	tsteq	r5, r0, lsl #10
    77d8:	81150000 	tsthi	r5, r0
    77dc:	15000000 	strne	r0, [r0, #-0]
    77e0:	00000025 	andeq	r0, r0, r5, lsr #32
    77e4:	91040d00 	tstls	r4, r0, lsl #26
    77e8:	14000005 	strne	r0, [r0], #-5
    77ec:	00000025 	andeq	r0, r0, r5, lsr #32
    77f0:	000005c9 	andeq	r0, r0, r9, asr #11
    77f4:	00042415 	andeq	r2, r4, r5, lsl r4
    77f8:	01051500 	tsteq	r5, r0, lsl #10
    77fc:	0d000000 	stceq	0, cr0, [r0, #-0]
    7800:	0005b504 	andeq	fp, r5, r4, lsl #10
    7804:	004f0800 	subeq	r0, pc, r0, lsl #16
    7808:	05df0000 	ldrbeq	r0, [pc]	; 7810 <_start-0x7f0>
    780c:	c7090000 	strgt	r0, [r9, -r0]
    7810:	02000000 	andeq	r0, r0, #0
    7814:	004f0800 	subeq	r0, pc, r0, lsl #16
    7818:	05ef0000 	strbeq	r0, [pc, #0]!	; 7820 <_start-0x7e0>
    781c:	c7090000 	strgt	r0, [r9, -r0]
    7820:	00000000 	andeq	r0, r0, r0
    7824:	03350500 	teqeq	r5, #0, 10
    7828:	1d050000 	stcne	0, cr0, [r5, #-0]
    782c:	0002dc01 	andeq	sp, r2, r1, lsl #24
    7830:	04b01900 	ldrteq	r1, [r0], #2304	; 0x900
    7834:	050c0000 	streq	r0, [ip, #-0]
    7838:	06300121 	ldrteq	r0, [r0], -r1, lsr #2
    783c:	5d170000 	ldcpl	0, cr0, [r7, #-0]
    7840:	05000003 	streq	r0, [r0, #-3]
    7844:	06300123 	ldrteq	r0, [r0], -r3, lsr #2
    7848:	17000000 	strne	r0, [r0, -r0]
    784c:	0000021e 	andeq	r0, r0, lr, lsl r2
    7850:	25012405 	strcs	r2, [r1, #-1029]	; 0xfffffbfb
    7854:	04000000 	streq	r0, [r0], #-0
    7858:	00032f17 	andeq	r2, r3, r7, lsl pc
    785c:	01250500 			; <UNDEFINED> instruction: 0x01250500
    7860:	00000636 	andeq	r0, r0, r6, lsr r6
    7864:	040d0008 	streq	r0, [sp], #-8
    7868:	000005fb 	strdeq	r0, [r0], -fp
    786c:	05ef040d 	strbeq	r0, [pc, #1037]!	; 7c81 <_start-0x37f>
    7870:	21190000 	tstcs	r9, r0
    7874:	0e000000 	cdpeq	0, 0, cr0, cr0, cr0, {0}
    7878:	71013d05 	tstvc	r1, r5, lsl #26
    787c:	17000006 	strne	r0, [r0, -r6]
    7880:	000003a3 	andeq	r0, r0, r3, lsr #7
    7884:	71013e05 	tstvc	r1, r5, lsl #28
    7888:	00000006 	andeq	r0, r0, r6
    788c:	0003d017 	andeq	sp, r3, r7, lsl r0
    7890:	013f0500 	teqeq	pc, r0, lsl #10
    7894:	00000671 	andeq	r0, r0, r1, ror r6
    7898:	044e1706 	strbeq	r1, [lr], #-1798	; 0xfffff8fa
    789c:	40050000 	andmi	r0, r5, r0
    78a0:	00005601 	andeq	r5, r0, r1, lsl #12
    78a4:	08000c00 	stmdaeq	r0, {sl, fp}
    78a8:	00000056 	andeq	r0, r0, r6, asr r0
    78ac:	00000681 	andeq	r0, r0, r1, lsl #13
    78b0:	0000c709 	andeq	ip, r0, r9, lsl #14
    78b4:	1a000200 	bne	80bc <notmain+0xac>
    78b8:	025705d0 	subseq	r0, r7, #208, 10	; 0x34000000
    78bc:	00000782 	andeq	r0, r0, r2, lsl #15
    78c0:	00049417 	andeq	r9, r4, r7, lsl r4
    78c4:	02590500 	subseq	r0, r9, #0, 10
    78c8:	0000002c 	andeq	r0, r0, ip, lsr #32
    78cc:	04381700 	ldrteq	r1, [r8], #-1792	; 0xfffff900
    78d0:	5a050000 	bpl	1478d8 <__bss_end__+0x13d8b0>
    78d4:	00010702 	andeq	r0, r1, r2, lsl #14
    78d8:	5b170400 	blpl	5c88e0 <__bss_end__+0x5be8b8>
    78dc:	05000002 	streq	r0, [r0, #-2]
    78e0:	0782025b 			; <UNDEFINED> instruction: 0x0782025b
    78e4:	17080000 	strne	r0, [r8, -r0]
    78e8:	000004f4 	strdeq	r0, [r0], -r4
    78ec:	8d025c05 	stchi	12, cr5, [r2, #-20]	; 0xffffffec
    78f0:	24000001 	strcs	r0, [r0], #-1
    78f4:	0001bb17 	andeq	fp, r1, r7, lsl fp
    78f8:	025d0500 	subseq	r0, sp, #0, 10
    78fc:	00000025 	andeq	r0, r0, r5, lsr #32
    7900:	03581748 	cmpeq	r8, #72, 14	; 0x1200000
    7904:	5e050000 	cdppl	0, 0, cr0, cr5, cr0, {0}
    7908:	00006402 	andeq	r6, r0, r2, lsl #8
    790c:	0a175000 	beq	5db914 <__bss_end__+0x5d18ec>
    7910:	05000005 	streq	r0, [r0, #-5]
    7914:	063c025f 			; <UNDEFINED> instruction: 0x063c025f
    7918:	17580000 	ldrbne	r0, [r8, -r0]
    791c:	00000363 	andeq	r0, r0, r3, ror #6
    7920:	ef026005 	svc	0x00026005
    7924:	68000000 	stmdavs	r0, {}	; <UNPREDICTABLE>
    7928:	00050f17 	andeq	r0, r5, r7, lsl pc
    792c:	02610500 	rsbeq	r0, r1, #0, 10
    7930:	000000ef 	andeq	r0, r0, pc, ror #1
    7934:	00931770 	addseq	r1, r3, r0, ror r7
    7938:	62050000 	andvs	r0, r5, #0
    793c:	0000ef02 	andeq	lr, r0, r2, lsl #30
    7940:	bf177800 	svclt	0x00177800
    7944:	05000004 	streq	r0, [r0, #-4]
    7948:	07920263 	ldreq	r0, [r2, r3, ror #4]
    794c:	17800000 	strne	r0, [r0, r0]
    7950:	0000024f 	andeq	r0, r0, pc, asr #4
    7954:	a2026405 	andge	r6, r2, #83886080	; 0x5000000
    7958:	88000007 	stmdahi	r0, {r0, r1, r2}
    795c:	00045b17 	andeq	r5, r4, r7, lsl fp
    7960:	02650500 	rsbeq	r0, r5, #0, 10
    7964:	00000025 	andeq	r0, r0, r5, lsr #32
    7968:	018117a0 	orreq	r1, r1, r0, lsr #15
    796c:	66050000 	strvs	r0, [r5], -r0
    7970:	0000ef02 	andeq	lr, r0, r2, lsl #30
    7974:	8417a400 	ldrhi	sl, [r7], #-1024	; 0xfffffc00
    7978:	05000000 	streq	r0, [r0, #-0]
    797c:	00ef0267 	rsceq	r0, pc, r7, ror #4
    7980:	17ac0000 	strne	r0, [ip, r0]!
    7984:	00000170 	andeq	r0, r0, r0, ror r1
    7988:	ef026805 	svc	0x00026805
    798c:	b4000000 	strlt	r0, [r0], #-0
    7990:	00003c17 	andeq	r3, r0, r7, lsl ip
    7994:	02690500 	rsbeq	r0, r9, #0, 10
    7998:	000000ef 	andeq	r0, r0, pc, ror #1
    799c:	004b17bc 	strheq	r1, [fp], #-124	; 0xffffff84
    79a0:	6a050000 	bvs	1479a8 <__bss_end__+0x13d980>
    79a4:	0000ef02 	andeq	lr, r0, r2, lsl #30
    79a8:	0b17c400 	bleq	5f89b0 <__bss_end__+0x5ee988>
    79ac:	05000003 	streq	r0, [r0, #-3]
    79b0:	0025026b 	eoreq	r0, r5, fp, ror #4
    79b4:	00cc0000 	sbceq	r0, ip, r0
    79b8:	00010d08 	andeq	r0, r1, r8, lsl #26
    79bc:	00079200 	andeq	r9, r7, r0, lsl #4
    79c0:	00c70900 	sbceq	r0, r7, r0, lsl #18
    79c4:	00190000 	andseq	r0, r9, r0
    79c8:	00010d08 	andeq	r0, r1, r8, lsl #26
    79cc:	0007a200 	andeq	sl, r7, r0, lsl #4
    79d0:	00c70900 	sbceq	r0, r7, r0, lsl #18
    79d4:	00070000 	andeq	r0, r7, r0
    79d8:	00010d08 	andeq	r0, r1, r8, lsl #26
    79dc:	0007b200 	andeq	fp, r7, r0, lsl #4
    79e0:	00c70900 	sbceq	r0, r7, r0, lsl #18
    79e4:	00170000 	andseq	r0, r7, r0
    79e8:	7005f01a 	andvc	pc, r5, sl, lsl r0	; <UNPREDICTABLE>
    79ec:	0007d602 	andeq	sp, r7, r2, lsl #12
    79f0:	02b21700 	adcseq	r1, r2, #0, 14
    79f4:	73050000 	movwvc	r0, #20480	; 0x5000
    79f8:	0007d602 	andeq	sp, r7, r2, lsl #12
    79fc:	b6170000 	ldrlt	r0, [r7], -r0
    7a00:	05000004 	streq	r0, [r0, #-4]
    7a04:	07e60274 			; <UNDEFINED> instruction: 0x07e60274
    7a08:	00780000 	rsbseq	r0, r8, r0
    7a0c:	0002d608 	andeq	sp, r2, r8, lsl #12
    7a10:	0007e600 	andeq	lr, r7, r0, lsl #12
    7a14:	00c70900 	sbceq	r0, r7, r0, lsl #18
    7a18:	001d0000 	andseq	r0, sp, r0
    7a1c:	00002c08 	andeq	r2, r0, r8, lsl #24
    7a20:	0007f600 	andeq	pc, r7, r0, lsl #12
    7a24:	00c70900 	sbceq	r0, r7, r0, lsl #18
    7a28:	001d0000 	andseq	r0, sp, r0
    7a2c:	5505f01b 	strpl	pc, [r5, #-27]	; 0xffffffe5
    7a30:	00081802 	andeq	r1, r8, r2, lsl #16
    7a34:	039c1c00 	orrseq	r1, ip, #0, 24
    7a38:	6c050000 	stcvs	0, cr0, [r5], {-0}
    7a3c:	00068102 	andeq	r8, r6, r2, lsl #2
    7a40:	04e11c00 	strbteq	r1, [r1], #3072	; 0xc00
    7a44:	75050000 	strvc	r0, [r5, #-0]
    7a48:	0007b202 	andeq	fp, r7, r2, lsl #4
    7a4c:	0d080000 	stceq	0, cr0, [r8, #-0]
    7a50:	28000001 	stmdacs	r0, {r0}
    7a54:	09000008 	stmdbeq	r0, {r3}
    7a58:	000000c7 	andeq	r0, r0, r7, asr #1
    7a5c:	331d0018 	tstcc	sp, #24
    7a60:	15000008 	strne	r0, [r0, #-8]
    7a64:	00000424 	andeq	r0, r0, r4, lsr #8
    7a68:	28040d00 	stmdacs	r4, {r8, sl, fp}
    7a6c:	0d000008 	stceq	0, cr0, [r0, #-32]	; 0xffffffe0
    7a70:	00017704 	andeq	r7, r1, r4, lsl #14
    7a74:	084a1d00 	stmdaeq	sl, {r8, sl, fp, ip}^
    7a78:	25150000 	ldrcs	r0, [r5, #-0]
    7a7c:	00000000 	andeq	r0, r0, r0
    7a80:	0850040d 	ldmdaeq	r0, {r0, r2, r3, sl}^
    7a84:	040d0000 	streq	r0, [sp], #-0
    7a88:	0000083f 	andeq	r0, r0, pc, lsr r8
    7a8c:	0005ef08 	andeq	lr, r5, r8, lsl #30
    7a90:	00086600 	andeq	r6, r8, r0, lsl #12
    7a94:	00c70900 	sbceq	r0, r7, r0, lsl #18
    7a98:	00020000 	andeq	r0, r2, r0
    7a9c:	00046f1e 	andeq	r6, r4, lr, lsl pc
    7aa0:	02fd0500 	rscseq	r0, sp, #0, 10
    7aa4:	00000424 	andeq	r0, r0, r4, lsr #8
    7aa8:	0004681e 	andeq	r6, r4, lr, lsl r8
    7aac:	02fe0500 	rscseq	r0, lr, #0, 10
    7ab0:	0000042a 	andeq	r0, r0, sl, lsr #8
    7ab4:	00002514 	andeq	r2, r0, r4, lsl r5
    7ab8:	00088d00 	andeq	r8, r8, r0, lsl #26
    7abc:	00251500 	eoreq	r1, r5, r0, lsl #10
    7ac0:	1f000000 	svcne	0x00000000
    7ac4:	000001d4 	ldrdeq	r0, [r0], -r4
    7ac8:	08981d06 	ldmeq	r8, {r1, r2, r8, sl, fp, ip}
    7acc:	040d0000 	streq	r0, [sp], #-0
    7ad0:	0000087e 	andeq	r0, r0, lr, ror r8
    7ad4:	00002514 	andeq	r2, r0, r4, lsl r5
    7ad8:	0008ad00 	andeq	sl, r8, r0, lsl #26
    7adc:	05851500 	streq	r1, [r5, #1280]	; 0x500
    7ae0:	1f000000 	svcne	0x00000000
    7ae4:	00000769 	andeq	r0, r0, r9, ror #14
    7ae8:	08b82206 	ldmeq	r8!, {r1, r2, r9, sp}
    7aec:	040d0000 	streq	r0, [sp], #-0
    7af0:	0000089e 	muleq	r0, lr, r8
    7af4:	00029c20 	andeq	r9, r2, r0, lsr #24
    7af8:	1c040100 	stfnes	f0, [r4], {-0}
    7afc:	28000091 	stmdacs	r0, {r0, r4, r7}
    7b00:	01000000 	mrseq	r0, (UNDEF: 0)
    7b04:	0009049c 	muleq	r9, ip, r4
    7b08:	91302100 	teqls	r0, r0, lsl #2
    7b0c:	08e60000 	stmiaeq	r6!, {}^	; <UNPREDICTABLE>
    7b10:	01220000 			; <UNDEFINED> instruction: 0x01220000
    7b14:	f0030550 			; <UNDEFINED> instruction: 0xf0030550
    7b18:	0000009a 	muleq	r0, sl, r0
    7b1c:	00913823 	addseq	r3, r1, r3, lsr #16
    7b20:	00090400 	andeq	r0, r9, r0, lsl #8
    7b24:	0008fa00 	andeq	pc, r8, r0, lsl #20
    7b28:	50012200 	andpl	r2, r1, r0, lsl #4
    7b2c:	00640802 	rsbeq	r0, r4, r2, lsl #16
    7b30:	00913c24 	addseq	r3, r1, r4, lsr #24
    7b34:	00090f00 	andeq	r0, r9, r0, lsl #30
    7b38:	43250000 			; <UNDEFINED> instruction: 0x43250000
    7b3c:	43000008 	movwmi	r0, #8
    7b40:	06000008 	streq	r0, [r0], -r8
    7b44:	084c254f 	stmdaeq	ip, {r0, r1, r2, r3, r6, r8, sl, sp}^
    7b48:	084c0000 	stmdaeq	ip, {}^	; <UNPREDICTABLE>
    7b4c:	62060000 	andvs	r0, r6, #0
    7b50:	000a1700 	andeq	r1, sl, r0, lsl #14
    7b54:	77000400 	strvc	r0, [r0, -r0, lsl #8]
    7b58:	04000017 	streq	r0, [r0], #-23	; 0xffffffe9
    7b5c:	0003d601 	andeq	sp, r3, r1, lsl #12
    7b60:	08c60c00 	stmiaeq	r6, {sl, fp}^
    7b64:	06de0000 	ldrbeq	r0, [lr], r0
    7b68:	91440000 	mrsls	r0, (UNDEF: 68)
    7b6c:	00880000 	addeq	r0, r8, r0
    7b70:	0cbd0000 	ldceq	0, cr0, [sp]
    7b74:	04020000 	streq	r0, [r2], #-0
    7b78:	746e6905 	strbtvc	r6, [lr], #-2309	; 0xfffff6fb
    7b7c:	07040300 	streq	r0, [r4, -r0, lsl #6]
    7b80:	00000066 	andeq	r0, r0, r6, rrx
    7b84:	fa060103 	blx	187f98 <__bss_end__+0x17df70>
    7b88:	03000002 	movweq	r0, #2
    7b8c:	03140502 	tsteq	r4, #8388608	; 0x800000
    7b90:	04030000 	streq	r0, [r3], #-0
    7b94:	0000af05 	andeq	sl, r0, r5, lsl #30
    7b98:	05080300 	streq	r0, [r8, #-768]	; 0xfffffd00
    7b9c:	000000aa 	andeq	r0, r0, sl, lsr #1
    7ba0:	f8080103 			; <UNDEFINED> instruction: 0xf8080103
    7ba4:	03000002 	movweq	r0, #2
    7ba8:	02250702 	eoreq	r0, r5, #524288	; 0x80000
    7bac:	04030000 	streq	r0, [r3], #-0
    7bb0:	00006107 	andeq	r6, r0, r7, lsl #2
    7bb4:	07080300 	streq	r0, [r8, -r0, lsl #6]
    7bb8:	0000005c 	andeq	r0, r0, ip, asr r0
    7bbc:	0002e604 	andeq	lr, r2, r4, lsl #12
    7bc0:	25070200 	strcs	r0, [r7, #-512]	; 0xfffffe00
    7bc4:	04000000 	streq	r0, [r0], #-0
    7bc8:	000002d5 	ldrdeq	r0, [r0], -r5
    7bcc:	00412c03 	subeq	r2, r1, r3, lsl #24
    7bd0:	bf040000 	svclt	0x00040000
    7bd4:	03000003 	movweq	r0, #3
    7bd8:	00004172 	andeq	r4, r0, r2, ror r1
    7bdc:	02760500 	rsbseq	r0, r6, #0, 10
    7be0:	65040000 	strvs	r0, [r4, #-0]
    7be4:	00002c01 	andeq	r2, r0, r1, lsl #24
    7be8:	03040600 	movweq	r0, #17920	; 0x4600
    7bec:	0000b7a6 	andeq	fp, r0, r6, lsr #15
    7bf0:	02700700 	rsbseq	r0, r0, #0, 14
    7bf4:	a8030000 	stmdage	r3, {}	; <UNPREDICTABLE>
    7bf8:	0000008c 	andeq	r0, r0, ip, lsl #1
    7bfc:	0001e507 	andeq	lr, r1, r7, lsl #10
    7c00:	b7a90300 	strlt	r0, [r9, r0, lsl #6]!
    7c04:	00000000 	andeq	r0, r0, r0
    7c08:	00004f08 	andeq	r4, r0, r8, lsl #30
    7c0c:	0000c700 	andeq	ip, r0, r0, lsl #14
    7c10:	00c70900 	sbceq	r0, r7, r0, lsl #18
    7c14:	00030000 	andeq	r0, r3, r0
    7c18:	a9070403 	stmdbge	r7, {r0, r1, sl}
    7c1c:	0a000002 	beq	7c2c <_start-0x3d4>
    7c20:	efa30308 	svc	0x00a30308
    7c24:	0b000000 	bleq	7c2c <_start-0x3d4>
    7c28:	000003a9 	andeq	r0, r0, r9, lsr #7
    7c2c:	0025a503 	eoreq	sl, r5, r3, lsl #10
    7c30:	0b000000 	bleq	7c38 <_start-0x3c8>
    7c34:	000003b1 			; <UNDEFINED> instruction: 0x000003b1
    7c38:	0098aa03 	addseq	sl, r8, r3, lsl #20
    7c3c:	00040000 	andeq	r0, r4, r0
    7c40:	00033c04 	andeq	r3, r3, r4, lsl #24
    7c44:	ceab0300 	cdpgt	3, 10, cr0, cr11, cr0, {0}
    7c48:	04000000 	streq	r0, [r0], #-0
    7c4c:	000001a2 	andeq	r0, r0, r2, lsr #3
    7c50:	006baf03 	rsbeq	sl, fp, r3, lsl #30
    7c54:	040c0000 	streq	r0, [ip], #-0
    7c58:	010d040d 	tsteq	sp, sp, lsl #8
    7c5c:	01030000 	mrseq	r0, (UNDEF: 3)
    7c60:	00030108 	andeq	r0, r3, r8, lsl #2
    7c64:	010d0e00 	tsteq	sp, r0, lsl #28
    7c68:	53040000 	movwpl	r0, #16384	; 0x4000
    7c6c:	05000004 	streq	r0, [r0, #-4]
    7c70:	00005d16 	andeq	r5, r0, r6, lsl sp
    7c74:	01b30f00 			; <UNDEFINED> instruction: 0x01b30f00
    7c78:	05180000 	ldreq	r0, [r8, #-0]
    7c7c:	0001772d 	andeq	r7, r1, sp, lsr #14
    7c80:	035d0b00 	cmpeq	sp, #0, 22
    7c84:	2f050000 	svccs	0x00050000
    7c88:	00000177 	andeq	r0, r0, r7, ror r1
    7c8c:	6b5f1000 	blvs	17cbc94 <__bss_end__+0x17c1c6c>
    7c90:	25300500 	ldrcs	r0, [r0, #-1280]!	; 0xfffffb00
    7c94:	04000000 	streq	r0, [r0], #-0
    7c98:	0003940b 	andeq	r9, r3, fp, lsl #8
    7c9c:	25300500 	ldrcs	r0, [r0, #-1280]!	; 0xfffffb00
    7ca0:	08000000 	stmdaeq	r0, {}	; <UNPREDICTABLE>
    7ca4:	00019c0b 	andeq	r9, r1, fp, lsl #24
    7ca8:	25300500 	ldrcs	r0, [r0, #-1280]!	; 0xfffffb00
    7cac:	0c000000 	stceq	0, cr0, [r0], {-0}
    7cb0:	0004a10b 	andeq	sl, r4, fp, lsl #2
    7cb4:	25300500 	ldrcs	r0, [r0, #-1280]!	; 0xfffffb00
    7cb8:	10000000 	andne	r0, r0, r0
    7cbc:	00785f10 	rsbseq	r5, r8, r0, lsl pc
    7cc0:	017d3105 	cmneq	sp, r5, lsl #2
    7cc4:	00140000 	andseq	r0, r4, r0
    7cc8:	0124040d 			; <UNDEFINED> instruction: 0x0124040d
    7ccc:	19080000 	stmdbne	r8, {}	; <UNPREDICTABLE>
    7cd0:	8d000001 	stchi	0, cr0, [r0, #-4]
    7cd4:	09000001 	stmdbeq	r0, {r0}
    7cd8:	000000c7 	andeq	r0, r0, r7, asr #1
    7cdc:	e00f0000 	and	r0, pc, r0
    7ce0:	24000001 	strcs	r0, [r0], #-1
    7ce4:	02063505 	andeq	r3, r6, #20971520	; 0x1400000
    7ce8:	a10b0000 	mrsge	r0, (UNDEF: 11)
    7cec:	05000000 	streq	r0, [r0, #-0]
    7cf0:	00002537 	andeq	r2, r0, r7, lsr r5
    7cf4:	c70b0000 	strgt	r0, [fp, -r0]
    7cf8:	05000003 	streq	r0, [r0, #-3]
    7cfc:	00002538 	andeq	r2, r0, r8, lsr r5
    7d00:	c40b0400 	strgt	r0, [fp], #-1024	; 0xfffffc00
    7d04:	05000000 	streq	r0, [r0, #-0]
    7d08:	00002539 	andeq	r2, r0, r9, lsr r5
    7d0c:	220b0800 	andcs	r0, fp, #0, 16
    7d10:	05000005 	streq	r0, [r0, #-5]
    7d14:	0000253a 	andeq	r2, r0, sl, lsr r5
    7d18:	b90b0c00 	stmdblt	fp, {sl, fp}
    7d1c:	05000002 	streq	r0, [r0, #-2]
    7d20:	0000253b 	andeq	r2, r0, fp, lsr r5
    7d24:	920b1000 	andls	r1, fp, #0
    7d28:	05000002 	streq	r0, [r0, #-2]
    7d2c:	0000253c 	andeq	r2, r0, ip, lsr r5
    7d30:	a60b1400 	strge	r1, [fp], -r0, lsl #8
    7d34:	05000004 	streq	r0, [r0, #-4]
    7d38:	0000253d 	andeq	r2, r0, sp, lsr r5
    7d3c:	1e0b1800 	cdpne	8, 0, cr1, cr11, cr0, {0}
    7d40:	05000003 	streq	r0, [r0, #-3]
    7d44:	0000253e 	andeq	r2, r0, lr, lsr r5
    7d48:	e90b1c00 	stmdb	fp, {sl, fp, ip}
    7d4c:	05000004 	streq	r0, [r0, #-4]
    7d50:	0000253f 	andeq	r2, r0, pc, lsr r5
    7d54:	11002000 	mrsne	r2, (UNDEF: 0)
    7d58:	00000104 	andeq	r0, r0, r4, lsl #2
    7d5c:	48050108 	stmdami	r5, {r3, r8}
    7d60:	00000246 	andeq	r0, r0, r6, asr #4
    7d64:	00018f0b 	andeq	r8, r1, fp, lsl #30
    7d68:	46490500 	strbmi	r0, [r9], -r0, lsl #10
    7d6c:	00000002 	andeq	r0, r0, r2
    7d70:	0000000b 	andeq	r0, r0, fp
    7d74:	464a0500 	strbmi	r0, [sl], -r0, lsl #10
    7d78:	80000002 	andhi	r0, r0, r2
    7d7c:	00044512 	andeq	r4, r4, r2, lsl r5
    7d80:	194c0500 	stmdbne	ip, {r8, sl}^
    7d84:	00000001 	andeq	r0, r0, r1
    7d88:	01291201 			; <UNDEFINED> instruction: 0x01291201
    7d8c:	4f050000 	svcmi	0x00050000
    7d90:	00000119 	andeq	r0, r0, r9, lsl r1
    7d94:	08000104 	stmdaeq	r0, {r2, r8}
    7d98:	00000105 	andeq	r0, r0, r5, lsl #2
    7d9c:	00000256 	andeq	r0, r0, r6, asr r2
    7da0:	0000c709 	andeq	ip, r0, r9, lsl #14
    7da4:	11001f00 	tstne	r0, r0, lsl #30
    7da8:	000002c2 	andeq	r0, r0, r2, asr #5
    7dac:	5b050190 	blpl	1483f4 <__bss_end__+0x13e3cc>
    7db0:	00000294 	muleq	r0, r4, r2
    7db4:	00035d0b 	andeq	r5, r3, fp, lsl #26
    7db8:	945c0500 	ldrbls	r0, [ip], #-1280	; 0xfffffb00
    7dbc:	00000002 	andeq	r0, r0, r2
    7dc0:	0003750b 	andeq	r7, r3, fp, lsl #10
    7dc4:	255d0500 	ldrbcs	r0, [sp, #-1280]	; 0xfffffb00
    7dc8:	04000000 	streq	r0, [r0], #-0
    7dcc:	0001970b 	andeq	r9, r1, fp, lsl #14
    7dd0:	9a5f0500 	bls	17c91d8 <__bss_end__+0x17bf1b0>
    7dd4:	08000002 	stmdaeq	r0, {r1}
    7dd8:	0001040b 	andeq	r0, r1, fp, lsl #8
    7ddc:	06600500 	strbteq	r0, [r0], -r0, lsl #10
    7de0:	88000002 	stmdahi	r0, {r1}
    7de4:	56040d00 	strpl	r0, [r4], -r0, lsl #26
    7de8:	08000002 	stmdaeq	r0, {r1}
    7dec:	000002aa 	andeq	r0, r0, sl, lsr #5
    7df0:	000002aa 	andeq	r0, r0, sl, lsr #5
    7df4:	0000c709 	andeq	ip, r0, r9, lsl #14
    7df8:	0d001f00 	stceq	15, cr1, [r0, #-0]
    7dfc:	0002b004 	andeq	fp, r2, r4
    7e00:	280f1300 	stmdacs	pc, {r8, r9, ip}	; <UNPREDICTABLE>
    7e04:	08000003 	stmdaeq	r0, {r0, r1}
    7e08:	02d67305 	sbcseq	r7, r6, #335544320	; 0x14000000
    7e0c:	be0b0000 	cdplt	0, 0, cr0, cr11, cr0, {0}
    7e10:	05000000 	streq	r0, [r0, #-0]
    7e14:	0002d674 	andeq	sp, r2, r4, ror r6
    7e18:	1b0b0000 	blne	2c7e20 <__bss_end__+0x2bddf8>
    7e1c:	05000000 	streq	r0, [r0, #-0]
    7e20:	00002575 	andeq	r2, r0, r5, ror r5
    7e24:	0d000400 	cfstrseq	mvf0, [r0, #-0]
    7e28:	00004f04 	andeq	r4, r0, r4, lsl #30
    7e2c:	03470f00 	movteq	r0, #32512	; 0x7f00
    7e30:	05680000 	strbeq	r0, [r8, #-0]!
    7e34:	000406b3 			; <UNDEFINED> instruction: 0x000406b3
    7e38:	705f1000 	subsvc	r1, pc, r0
    7e3c:	d6b40500 	ldrtle	r0, [r4], r0, lsl #10
    7e40:	00000002 	andeq	r0, r0, r2
    7e44:	00725f10 	rsbseq	r5, r2, r0, lsl pc
    7e48:	0025b505 	eoreq	fp, r5, r5, lsl #10
    7e4c:	10040000 	andne	r0, r4, r0
    7e50:	0500775f 	streq	r7, [r0, #-1887]	; 0xfffff8a1
    7e54:	000025b6 			; <UNDEFINED> instruction: 0x000025b6
    7e58:	220b0800 	andcs	r0, fp, #0, 16
    7e5c:	05000001 	streq	r0, [r0, #-1]
    7e60:	00003ab7 			; <UNDEFINED> instruction: 0x00003ab7
    7e64:	0b0b0c00 	bleq	2cae6c <__bss_end__+0x2c0e44>
    7e68:	05000002 	streq	r0, [r0, #-2]
    7e6c:	00003ab8 			; <UNDEFINED> instruction: 0x00003ab8
    7e70:	5f100e00 	svcpl	0x00100e00
    7e74:	05006662 	streq	r6, [r0, #-1634]	; 0xfffff99e
    7e78:	0002b1b9 			; <UNDEFINED> instruction: 0x0002b1b9
    7e7c:	7b0b1000 	blvc	2cbe84 <__bss_end__+0x2c1e5c>
    7e80:	05000000 	streq	r0, [r0, #-0]
    7e84:	000025ba 			; <UNDEFINED> instruction: 0x000025ba
    7e88:	120b1800 	andne	r1, fp, #0, 16
    7e8c:	05000001 	streq	r0, [r0, #-1]
    7e90:	000105c1 	andeq	r0, r1, r1, asr #11
    7e94:	780b1c00 	stmdavc	fp, {sl, fp, ip}
    7e98:	0500000a 	streq	r0, [r0, #-10]
    7e9c:	000561c3 	andeq	r6, r5, r3, asr #3
    7ea0:	0c0b2000 	stceq	0, cr2, [fp], {-0}
    7ea4:	05000006 	streq	r0, [r0, #-6]
    7ea8:	00058bc5 	andeq	r8, r5, r5, asr #23
    7eac:	b90b2400 	stmdblt	fp, {sl, sp}
    7eb0:	05000003 	streq	r0, [r0, #-3]
    7eb4:	0005afc8 	andeq	sl, r5, r8, asr #31
    7eb8:	030b2800 	movweq	r2, #47104	; 0xb800
    7ebc:	05000005 	streq	r0, [r0, #-5]
    7ec0:	0005c9c9 	andeq	ip, r5, r9, asr #19
    7ec4:	5f102c00 	svcpl	0x00102c00
    7ec8:	05006275 	streq	r6, [r0, #-629]	; 0xfffffd8b
    7ecc:	0002b1cc 	andeq	fp, r2, ip, asr #3
    7ed0:	5f103000 	svcpl	0x00103000
    7ed4:	05007075 	streq	r7, [r0, #-117]	; 0xffffff8b
    7ed8:	0002d6cd 	andeq	sp, r2, sp, asr #13
    7edc:	5f103800 	svcpl	0x00103800
    7ee0:	05007275 	streq	r7, [r0, #-629]	; 0xfffffd8b
    7ee4:	000025ce 	andeq	r2, r0, lr, asr #11
    7ee8:	b80b3c00 	stmdalt	fp, {sl, fp, ip, sp}
    7eec:	05000000 	streq	r0, [r0, #-0]
    7ef0:	0005cfd1 	ldrdeq	ip, [r5], -r1
    7ef4:	db0b4000 	blle	2d7efc <__bss_end__+0x2cded4>
    7ef8:	05000004 	streq	r0, [r0, #-4]
    7efc:	0005dfd2 	ldrdeq	sp, [r5], -r2
    7f00:	5f104300 	svcpl	0x00104300
    7f04:	0500626c 	streq	r6, [r0, #-620]	; 0xfffffd94
    7f08:	0002b1d5 	ldrdeq	fp, [r2], -r5
    7f0c:	400b4400 	andmi	r4, fp, r0, lsl #8
    7f10:	05000001 	streq	r0, [r0, #-1]
    7f14:	000025d8 	ldrdeq	r2, [r0], -r8
    7f18:	510b4c00 	tstpl	fp, r0, lsl #24
    7f1c:	05000001 	streq	r0, [r0, #-1]
    7f20:	000076d9 	ldrdeq	r7, [r0], -r9
    7f24:	190b5000 	stmdbne	fp, {ip, lr}
    7f28:	0500000a 	streq	r0, [r0, #-10]
    7f2c:	000424dc 	ldrdeq	r2, [r4], -ip
    7f30:	840b5400 	strhi	r5, [fp], #-1024	; 0xfffffc00
    7f34:	05000002 	streq	r0, [r0, #-2]
    7f38:	0000fae0 	andeq	pc, r0, r0, ror #21
    7f3c:	4f0b5800 	svcmi	0x000b5800
    7f40:	05000003 	streq	r0, [r0, #-3]
    7f44:	0000efe2 	andeq	lr, r0, r2, ror #31
    7f48:	8a0b5c00 	bhi	2def50 <__bss_end__+0x2d4f28>
    7f4c:	05000002 	streq	r0, [r0, #-2]
    7f50:	000025e3 	andeq	r2, r0, r3, ror #11
    7f54:	14006400 	strne	r6, [r0], #-1024	; 0xfffffc00
    7f58:	00000025 	andeq	r0, r0, r5, lsr #32
    7f5c:	00000424 	andeq	r0, r0, r4, lsr #8
    7f60:	00042415 	andeq	r2, r4, r5, lsl r4
    7f64:	01051500 	tsteq	r5, r0, lsl #10
    7f68:	07150000 	ldreq	r0, [r5, -r0]
    7f6c:	15000001 	strne	r0, [r0, #-1]
    7f70:	00000025 	andeq	r0, r0, r5, lsr #32
    7f74:	2f040d00 	svccs	0x00040d00
    7f78:	0e000004 	cdpeq	0, 0, cr0, cr0, cr4, {0}
    7f7c:	00000424 	andeq	r0, r0, r4, lsr #8
    7f80:	00039c16 	andeq	r9, r3, r6, lsl ip
    7f84:	05042800 	streq	r2, [r4, #-2048]	; 0xfffff800
    7f88:	05610238 	strbeq	r0, [r1, #-568]!	; 0xfffffdc8
    7f8c:	0d170000 	ldceq	0, cr0, [r7, #-0]
    7f90:	05000003 	streq	r0, [r0, #-3]
    7f94:	0025023a 	eoreq	r0, r5, sl, lsr r2
    7f98:	17000000 	strne	r0, [r0, -r0]
    7f9c:	00000131 	andeq	r0, r0, r1, lsr r1
    7fa0:	36023f05 	strcc	r3, [r2], -r5, lsl #30
    7fa4:	04000006 	streq	r0, [r0], #-6
    7fa8:	0001fb17 	andeq	pc, r1, r7, lsl fp	; <UNPREDICTABLE>
    7fac:	023f0500 	eorseq	r0, pc, #0, 10
    7fb0:	00000636 	andeq	r0, r0, r6, lsr r6
    7fb4:	01ab1708 			; <UNDEFINED> instruction: 0x01ab1708
    7fb8:	3f050000 	svccc	0x00050000
    7fbc:	00063602 	andeq	r3, r6, r2, lsl #12
    7fc0:	70170c00 	andsvc	r0, r7, r0, lsl #24
    7fc4:	05000003 	streq	r0, [r0, #-3]
    7fc8:	00250241 	eoreq	r0, r5, r1, asr #4
    7fcc:	17100000 	ldrne	r0, [r0, -r0]
    7fd0:	00000029 	andeq	r0, r0, r9, lsr #32
    7fd4:	18024205 	stmdane	r2, {r0, r2, r9, lr}
    7fd8:	14000008 	strne	r0, [r0], #-8
    7fdc:	00047b17 	andeq	r7, r4, r7, lsl fp
    7fe0:	02440500 	subeq	r0, r4, #0, 10
    7fe4:	00000025 	andeq	r0, r0, r5, lsr #32
    7fe8:	037a1730 	cmneq	sl, #48, 14	; 0xc00000
    7fec:	45050000 	strmi	r0, [r5, #-0]
    7ff0:	00058502 	andeq	r8, r5, r2, lsl #10
    7ff4:	ca173400 	bgt	5d4ffc <__bss_end__+0x5cafd4>
    7ff8:	05000002 	streq	r0, [r0, #-2]
    7ffc:	00250247 	eoreq	r0, r5, r7, asr #4
    8000:	17380000 	ldrne	r0, [r8, -r0]!
    8004:	0000038a 	andeq	r0, r0, sl, lsl #7
    8008:	33024905 	movwcc	r4, #10501	; 0x2905
    800c:	3c000008 	stccc	0, cr0, [r0], {8}
    8010:	00026817 	andeq	r6, r2, r7, lsl r8
    8014:	024c0500 	subeq	r0, ip, #0, 10
    8018:	00000177 	andeq	r0, r0, r7, ror r1
    801c:	01ca1740 	biceq	r1, sl, r0, asr #14
    8020:	4d050000 	stcmi	0, cr0, [r5, #-0]
    8024:	00002502 	andeq	r2, r0, r2, lsl #10
    8028:	1d174400 	cfldrsne	mvf4, [r7, #-0]
    802c:	05000005 	streq	r0, [r0, #-5]
    8030:	0177024e 	cmneq	r7, lr, asr #4
    8034:	17480000 	strbne	r0, [r8, -r0]
    8038:	000002dc 	ldrdeq	r0, [r0], -ip
    803c:	39024f05 	stmdbcc	r2, {r0, r2, r8, r9, sl, fp, lr}
    8040:	4c000008 	stcmi	0, cr0, [r0], {8}
    8044:	00020317 	andeq	r0, r2, r7, lsl r3
    8048:	02520500 	subseq	r0, r2, #0, 10
    804c:	00000025 	andeq	r0, r0, r5, lsr #32
    8050:	01491750 	cmpeq	r9, r0, asr r7
    8054:	53050000 	movwpl	r0, #20480	; 0x5000
    8058:	00010702 	andeq	r0, r1, r2, lsl #14
    805c:	06175400 	ldreq	r5, [r7], -r0, lsl #8
    8060:	05000003 	streq	r0, [r0, #-3]
    8064:	07f60276 			; <UNDEFINED> instruction: 0x07f60276
    8068:	18580000 	ldmdane	r8, {}^	; <UNPREDICTABLE>
    806c:	000002c2 	andeq	r0, r0, r2, asr #5
    8070:	94027a05 	strls	r7, [r2], #-2565	; 0xfffff5fb
    8074:	48000002 	stmdami	r0, {r1}
    8078:	02461801 	subeq	r1, r6, #65536	; 0x10000
    807c:	7b050000 	blvc	148084 <__bss_end__+0x13e05c>
    8080:	00025602 	andeq	r5, r2, r2, lsl #12
    8084:	18014c00 	stmdane	r1, {sl, fp, lr}
    8088:	000004c9 	andeq	r0, r0, r9, asr #9
    808c:	4a027f05 	bmi	a7ca8 <__bss_end__+0x9dc80>
    8090:	dc000008 	stcle	0, cr0, [r0], {8}
    8094:	011a1802 	tsteq	sl, r2, lsl #16
    8098:	84050000 	strhi	r0, [r5], #-0
    809c:	0005fb02 	andeq	pc, r5, r2, lsl #22
    80a0:	1802e000 	stmdane	r2, {sp, lr, pc}
    80a4:	000000ff 	strdeq	r0, [r0], -pc	; <UNPREDICTABLE>
    80a8:	56028505 	strpl	r8, [r2], -r5, lsl #10
    80ac:	ec000008 	stc	0, cr0, [r0], {8}
    80b0:	040d0002 	streq	r0, [sp], #-2
    80b4:	00000406 	andeq	r0, r0, r6, lsl #8
    80b8:	00002514 	andeq	r2, r0, r4, lsl r5
    80bc:	00058500 	andeq	r8, r5, r0, lsl #10
    80c0:	04241500 	strteq	r1, [r4], #-1280	; 0xfffffb00
    80c4:	05150000 	ldreq	r0, [r5, #-0]
    80c8:	15000001 	strne	r0, [r0, #-1]
    80cc:	00000585 	andeq	r0, r0, r5, lsl #11
    80d0:	00002515 	andeq	r2, r0, r5, lsl r5
    80d4:	040d0000 	streq	r0, [sp], #-0
    80d8:	00000114 	andeq	r0, r0, r4, lsl r1
    80dc:	0567040d 	strbeq	r0, [r7, #-1037]!	; 0xfffffbf3
    80e0:	81140000 	tsthi	r4, r0
    80e4:	af000000 	svcge	0x00000000
    80e8:	15000005 	strne	r0, [r0, #-5]
    80ec:	00000424 	andeq	r0, r0, r4, lsr #8
    80f0:	00010515 	andeq	r0, r1, r5, lsl r5
    80f4:	00811500 	addeq	r1, r1, r0, lsl #10
    80f8:	25150000 	ldrcs	r0, [r5, #-0]
    80fc:	00000000 	andeq	r0, r0, r0
    8100:	0591040d 	ldreq	r0, [r1, #1037]	; 0x40d
    8104:	25140000 	ldrcs	r0, [r4, #-0]
    8108:	c9000000 	stmdbgt	r0, {}	; <UNPREDICTABLE>
    810c:	15000005 	strne	r0, [r0, #-5]
    8110:	00000424 	andeq	r0, r0, r4, lsr #8
    8114:	00010515 	andeq	r0, r1, r5, lsl r5
    8118:	040d0000 	streq	r0, [sp], #-0
    811c:	000005b5 			; <UNDEFINED> instruction: 0x000005b5
    8120:	00004f08 	andeq	r4, r0, r8, lsl #30
    8124:	0005df00 	andeq	sp, r5, r0, lsl #30
    8128:	00c70900 	sbceq	r0, r7, r0, lsl #18
    812c:	00020000 	andeq	r0, r2, r0
    8130:	00004f08 	andeq	r4, r0, r8, lsl #30
    8134:	0005ef00 	andeq	lr, r5, r0, lsl #30
    8138:	00c70900 	sbceq	r0, r7, r0, lsl #18
    813c:	00000000 	andeq	r0, r0, r0
    8140:	00033505 	andeq	r3, r3, r5, lsl #10
    8144:	011d0500 	tsteq	sp, r0, lsl #10
    8148:	000002dc 	ldrdeq	r0, [r0], -ip
    814c:	0004b019 	andeq	fp, r4, r9, lsl r0
    8150:	21050c00 	tstcs	r5, r0, lsl #24
    8154:	00063001 	andeq	r3, r6, r1
    8158:	035d1700 	cmpeq	sp, #0, 14
    815c:	23050000 	movwcs	r0, #20480	; 0x5000
    8160:	00063001 	andeq	r3, r6, r1
    8164:	1e170000 	cdpne	0, 1, cr0, cr7, cr0, {0}
    8168:	05000002 	streq	r0, [r0, #-2]
    816c:	00250124 	eoreq	r0, r5, r4, lsr #2
    8170:	17040000 	strne	r0, [r4, -r0]
    8174:	0000032f 	andeq	r0, r0, pc, lsr #6
    8178:	36012505 	strcc	r2, [r1], -r5, lsl #10
    817c:	08000006 	stmdaeq	r0, {r1, r2}
    8180:	fb040d00 	blx	10b58a <__bss_end__+0x101562>
    8184:	0d000005 	stceq	0, cr0, [r0, #-20]	; 0xffffffec
    8188:	0005ef04 	andeq	lr, r5, r4, lsl #30
    818c:	00211900 	eoreq	r1, r1, r0, lsl #18
    8190:	050e0000 	streq	r0, [lr, #-0]
    8194:	0671013d 			; <UNDEFINED> instruction: 0x0671013d
    8198:	a3170000 	tstge	r7, #0
    819c:	05000003 	streq	r0, [r0, #-3]
    81a0:	0671013e 			; <UNDEFINED> instruction: 0x0671013e
    81a4:	17000000 	strne	r0, [r0, -r0]
    81a8:	000003d0 	ldrdeq	r0, [r0], -r0	; <UNPREDICTABLE>
    81ac:	71013f05 	tstvc	r1, r5, lsl #30
    81b0:	06000006 	streq	r0, [r0], -r6
    81b4:	00044e17 	andeq	r4, r4, r7, lsl lr
    81b8:	01400500 	cmpeq	r0, r0, lsl #10
    81bc:	00000056 	andeq	r0, r0, r6, asr r0
    81c0:	5608000c 	strpl	r0, [r8], -ip
    81c4:	81000000 	mrshi	r0, (UNDEF: 0)
    81c8:	09000006 	stmdbeq	r0, {r1, r2}
    81cc:	000000c7 	andeq	r0, r0, r7, asr #1
    81d0:	d01a0002 	andsle	r0, sl, r2
    81d4:	82025705 	andhi	r5, r2, #1310720	; 0x140000
    81d8:	17000007 	strne	r0, [r0, -r7]
    81dc:	00000494 	muleq	r0, r4, r4
    81e0:	2c025905 			; <UNDEFINED> instruction: 0x2c025905
    81e4:	00000000 	andeq	r0, r0, r0
    81e8:	00043817 	andeq	r3, r4, r7, lsl r8
    81ec:	025a0500 	subseq	r0, sl, #0, 10
    81f0:	00000107 	andeq	r0, r0, r7, lsl #2
    81f4:	025b1704 	subseq	r1, fp, #4, 14	; 0x100000
    81f8:	5b050000 	blpl	148200 <__bss_end__+0x13e1d8>
    81fc:	00078202 	andeq	r8, r7, r2, lsl #4
    8200:	f4170800 			; <UNDEFINED> instruction: 0xf4170800
    8204:	05000004 	streq	r0, [r0, #-4]
    8208:	018d025c 	orreq	r0, sp, ip, asr r2
    820c:	17240000 	strne	r0, [r4, -r0]!
    8210:	000001bb 			; <UNDEFINED> instruction: 0x000001bb
    8214:	25025d05 	strcs	r5, [r2, #-3333]	; 0xfffff2fb
    8218:	48000000 	stmdami	r0, {}	; <UNPREDICTABLE>
    821c:	00035817 	andeq	r5, r3, r7, lsl r8
    8220:	025e0500 	subseq	r0, lr, #0, 10
    8224:	00000064 	andeq	r0, r0, r4, rrx
    8228:	050a1750 	streq	r1, [sl, #-1872]	; 0xfffff8b0
    822c:	5f050000 	svcpl	0x00050000
    8230:	00063c02 	andeq	r3, r6, r2, lsl #24
    8234:	63175800 	tstvs	r7, #0, 16
    8238:	05000003 	streq	r0, [r0, #-3]
    823c:	00ef0260 	rsceq	r0, pc, r0, ror #4
    8240:	17680000 	strbne	r0, [r8, -r0]!
    8244:	0000050f 	andeq	r0, r0, pc, lsl #10
    8248:	ef026105 	svc	0x00026105
    824c:	70000000 	andvc	r0, r0, r0
    8250:	00009317 	andeq	r9, r0, r7, lsl r3
    8254:	02620500 	rsbeq	r0, r2, #0, 10
    8258:	000000ef 	andeq	r0, r0, pc, ror #1
    825c:	04bf1778 	ldrteq	r1, [pc], #1912	; 8264 <hdr_cksum+0x1c>
    8260:	63050000 	movwvs	r0, #20480	; 0x5000
    8264:	00079202 	andeq	r9, r7, r2, lsl #4
    8268:	4f178000 	svcmi	0x00178000
    826c:	05000002 	streq	r0, [r0, #-2]
    8270:	07a20264 	streq	r0, [r2, r4, ror #4]!
    8274:	17880000 	strne	r0, [r8, r0]
    8278:	0000045b 	andeq	r0, r0, fp, asr r4
    827c:	25026505 	strcs	r6, [r2, #-1285]	; 0xfffffafb
    8280:	a0000000 	andge	r0, r0, r0
    8284:	00018117 	andeq	r8, r1, r7, lsl r1
    8288:	02660500 	rsbeq	r0, r6, #0, 10
    828c:	000000ef 	andeq	r0, r0, pc, ror #1
    8290:	008417a4 	addeq	r1, r4, r4, lsr #15
    8294:	67050000 	strvs	r0, [r5, -r0]
    8298:	0000ef02 	andeq	lr, r0, r2, lsl #30
    829c:	7017ac00 	andsvc	sl, r7, r0, lsl #24
    82a0:	05000001 	streq	r0, [r0, #-1]
    82a4:	00ef0268 	rsceq	r0, pc, r8, ror #4
    82a8:	17b40000 	ldrne	r0, [r4, r0]!
    82ac:	0000003c 	andeq	r0, r0, ip, lsr r0
    82b0:	ef026905 	svc	0x00026905
    82b4:	bc000000 	stclt	0, cr0, [r0], {-0}
    82b8:	00004b17 	andeq	r4, r0, r7, lsl fp
    82bc:	026a0500 	rsbeq	r0, sl, #0, 10
    82c0:	000000ef 	andeq	r0, r0, pc, ror #1
    82c4:	030b17c4 	movweq	r1, #47044	; 0xb7c4
    82c8:	6b050000 	blvs	1482d0 <__bss_end__+0x13e2a8>
    82cc:	00002502 	andeq	r2, r0, r2, lsl #10
    82d0:	0800cc00 	stmdaeq	r0, {sl, fp, lr, pc}
    82d4:	0000010d 	andeq	r0, r0, sp, lsl #2
    82d8:	00000792 	muleq	r0, r2, r7
    82dc:	0000c709 	andeq	ip, r0, r9, lsl #14
    82e0:	08001900 	stmdaeq	r0, {r8, fp, ip}
    82e4:	0000010d 	andeq	r0, r0, sp, lsl #2
    82e8:	000007a2 	andeq	r0, r0, r2, lsr #15
    82ec:	0000c709 	andeq	ip, r0, r9, lsl #14
    82f0:	08000700 	stmdaeq	r0, {r8, r9, sl}
    82f4:	0000010d 	andeq	r0, r0, sp, lsl #2
    82f8:	000007b2 			; <UNDEFINED> instruction: 0x000007b2
    82fc:	0000c709 	andeq	ip, r0, r9, lsl #14
    8300:	1a001700 	bne	df08 <__bss_end__+0x3ee0>
    8304:	027005f0 	rsbseq	r0, r0, #240, 10	; 0x3c000000
    8308:	000007d6 	ldrdeq	r0, [r0], -r6
    830c:	0002b217 	andeq	fp, r2, r7, lsl r2
    8310:	02730500 	rsbseq	r0, r3, #0, 10
    8314:	000007d6 	ldrdeq	r0, [r0], -r6
    8318:	04b61700 	ldrteq	r1, [r6], #1792	; 0x700
    831c:	74050000 	strvc	r0, [r5], #-0
    8320:	0007e602 	andeq	lr, r7, r2, lsl #12
    8324:	08007800 	stmdaeq	r0, {fp, ip, sp, lr}
    8328:	000002d6 	ldrdeq	r0, [r0], -r6
    832c:	000007e6 	andeq	r0, r0, r6, ror #15
    8330:	0000c709 	andeq	ip, r0, r9, lsl #14
    8334:	08001d00 	stmdaeq	r0, {r8, sl, fp, ip}
    8338:	0000002c 	andeq	r0, r0, ip, lsr #32
    833c:	000007f6 	strdeq	r0, [r0], -r6
    8340:	0000c709 	andeq	ip, r0, r9, lsl #14
    8344:	1b001d00 	blne	f74c <__bss_end__+0x5724>
    8348:	025505f0 	subseq	r0, r5, #240, 10	; 0x3c000000
    834c:	00000818 	andeq	r0, r0, r8, lsl r8
    8350:	00039c1c 	andeq	r9, r3, ip, lsl ip
    8354:	026c0500 	rsbeq	r0, ip, #0, 10
    8358:	00000681 	andeq	r0, r0, r1, lsl #13
    835c:	0004e11c 	andeq	lr, r4, ip, lsl r1
    8360:	02750500 	rsbseq	r0, r5, #0, 10
    8364:	000007b2 			; <UNDEFINED> instruction: 0x000007b2
    8368:	010d0800 	tsteq	sp, r0, lsl #16
    836c:	08280000 	stmdaeq	r8!, {}	; <UNPREDICTABLE>
    8370:	c7090000 	strgt	r0, [r9, -r0]
    8374:	18000000 	stmdane	r0, {}	; <UNPREDICTABLE>
    8378:	08331d00 	ldmdaeq	r3!, {r8, sl, fp, ip}
    837c:	24150000 	ldrcs	r0, [r5], #-0
    8380:	00000004 	andeq	r0, r0, r4
    8384:	0828040d 	stmdaeq	r8!, {r0, r2, r3, sl}
    8388:	040d0000 	streq	r0, [sp], #-0
    838c:	00000177 	andeq	r0, r0, r7, ror r1
    8390:	00084a1d 	andeq	r4, r8, sp, lsl sl
    8394:	00251500 	eoreq	r1, r5, r0, lsl #10
    8398:	0d000000 	stceq	0, cr0, [r0, #-0]
    839c:	00085004 	andeq	r5, r8, r4
    83a0:	3f040d00 	svccc	0x00040d00
    83a4:	08000008 	stmdaeq	r0, {r3}
    83a8:	000005ef 	andeq	r0, r0, pc, ror #11
    83ac:	00000866 	andeq	r0, r0, r6, ror #16
    83b0:	0000c709 	andeq	ip, r0, r9, lsl #14
    83b4:	1e000200 	cdpne	2, 0, cr0, cr0, cr0, {0}
    83b8:	0000046f 	andeq	r0, r0, pc, ror #8
    83bc:	2402fd05 	strcs	pc, [r2], #-3333	; 0xfffff2fb
    83c0:	1e000004 	cdpne	0, 0, cr0, cr0, cr4, {0}
    83c4:	00000468 	andeq	r0, r0, r8, ror #8
    83c8:	2a02fe05 	bcs	c7be4 <__bss_end__+0xbdbbc>
    83cc:	14000004 	strne	r0, [r0], #-4
    83d0:	00000025 	andeq	r0, r0, r5, lsr #32
    83d4:	0000088d 	andeq	r0, r0, sp, lsl #17
    83d8:	00002515 	andeq	r2, r0, r5, lsl r5
    83dc:	d41f0000 	ldrle	r0, [pc], #-0	; 83e4 <check_mem+0x84>
    83e0:	06000001 	streq	r0, [r0], -r1
    83e4:	0008981d 	andeq	r9, r8, sp, lsl r8
    83e8:	7e040d00 	cdpvc	13, 0, cr0, cr4, cr0, {0}
    83ec:	14000008 	strne	r0, [r0], #-8
    83f0:	00000025 	andeq	r0, r0, r5, lsr #32
    83f4:	000008ad 	andeq	r0, r0, sp, lsr #17
    83f8:	00058515 	andeq	r8, r5, r5, lsl r5
    83fc:	691f0000 	ldmdbvs	pc, {}	; <UNPREDICTABLE>
    8400:	06000007 	streq	r0, [r0], -r7
    8404:	0008b822 	andeq	fp, r8, r2, lsr #16
    8408:	9e040d00 	cdpls	13, 0, cr0, cr4, cr0, {0}
    840c:	20000008 	andcs	r0, r0, r8
    8410:	000008af 	andeq	r0, r0, pc, lsr #17
    8414:	91b82b01 			; <UNDEFINED> instruction: 0x91b82b01
    8418:	00140000 	andseq	r0, r4, r0
    841c:	9c010000 	stcls	0, cr0, [r1], {-0}
    8420:	000008f8 	strdeq	r0, [r0], -r8
    8424:	63657321 	cmnvs	r5, #-2080374784	; 0x84000000
    8428:	2c2b0100 	stfcss	f0, [fp], #-0
    842c:	6a000000 	bvs	8434 <check_mem+0xd4>
    8430:	22000010 	andcs	r0, r0, #16
    8434:	000091c8 	andeq	r9, r0, r8, asr #3
    8438:	000008f8 	strdeq	r0, [r0], -r8
    843c:	07500123 	ldrbeq	r0, [r0, -r3, lsr #2]
    8440:	0a5001f3 	beq	1408c14 <__bss_end__+0x13febec>
    8444:	001e03e8 	andseq	r0, lr, r8, ror #7
    8448:	08432000 	stmdaeq	r3, {sp}^
    844c:	28010000 	stmdacs	r1, {}	; <UNPREDICTABLE>
    8450:	000091a4 	andeq	r9, r0, r4, lsr #3
    8454:	00000014 	andeq	r0, r0, r4, lsl r0
    8458:	09319c01 	ldmdbeq	r1!, {r0, sl, fp, ip, pc}
    845c:	6d210000 	stcvs	0, cr0, [r1, #-0]
    8460:	28010073 	stmdacs	r1, {r0, r1, r4, r5, r6}
    8464:	0000002c 	andeq	r0, r0, ip, lsr #32
    8468:	0000108b 	andeq	r1, r0, fp, lsl #1
    846c:	0091b422 	addseq	fp, r1, r2, lsr #8
    8470:	00093100 	andeq	r3, r9, r0, lsl #2
    8474:	50012300 	andpl	r2, r1, r0, lsl #6
    8478:	5001f307 	andpl	pc, r1, r7, lsl #6
    847c:	1e03e80a 	cdpne	8, 0, cr14, cr3, cr10, {0}
    8480:	f7200000 			; <UNDEFINED> instruction: 0xf7200000
    8484:	01000008 	tsteq	r0, r8
    8488:	0091801f 	addseq	r8, r1, pc, lsl r0
    848c:	00002400 	andeq	r2, r0, r0, lsl #8
    8490:	8f9c0100 	svchi	0x009c0100
    8494:	21000009 	tstcs	r0, r9
    8498:	01007375 	tsteq	r0, r5, ror r3
    849c:	00002c1f 	andeq	r2, r0, pc, lsl ip
    84a0:	0010ac00 	andseq	sl, r0, r0, lsl #24
    84a4:	62722400 	rsbsvs	r2, r2, #0, 8
    84a8:	2c200100 	stfcss	f0, [r0], #-0
    84ac:	01000000 	mrseq	r0, (UNDEF: 0)
    84b0:	91902554 	orrsls	r2, r0, r4, asr r5
    84b4:	00100000 	andseq	r0, r0, r0
    84b8:	09850000 	stmibeq	r5, {}	; <UNPREDICTABLE>
    84bc:	72260000 	eorvc	r0, r6, #0
    84c0:	22010061 	andcs	r0, r1, #97	; 0x61
    84c4:	0000002c 	andeq	r0, r0, ip, lsr #32
    84c8:	000010ca 	andeq	r1, r0, sl, asr #1
    84cc:	00919427 	addseq	r9, r1, r7, lsr #8
    84d0:	00098f00 	andeq	r8, r9, r0, lsl #30
    84d4:	8c270000 	stchi	0, cr0, [r7], #-0
    84d8:	8f000091 	svchi	0x00000091
    84dc:	00000009 	andeq	r0, r0, r9
    84e0:	0008a028 	andeq	sl, r8, r8, lsr #32
    84e4:	2c160100 	ldfcss	f0, [r6], {-0}
    84e8:	74000000 	strvc	r0, [r0], #-0
    84ec:	0c000091 	stceq	0, cr0, [r0], {145}	; 0x91
    84f0:	01000000 	mrseq	r0, (UNDEF: 0)
    84f4:	0009bd9c 	muleq	r9, ip, sp
    84f8:	00752400 	rsbseq	r2, r5, r0, lsl #8
    84fc:	002c1a01 	eoreq	r1, ip, r1, lsl #20
    8500:	50010000 	andpl	r0, r1, r0
    8504:	00917c27 	addseq	r7, r1, r7, lsr #24
    8508:	0009bd00 	andeq	fp, r9, r0, lsl #26
    850c:	e4280000 	strt	r0, [r8], #-0
    8510:	01000008 	tsteq	r0, r8
    8514:	00002c11 	andeq	r2, r0, r1, lsl ip
    8518:	00916000 	addseq	r6, r1, r0
    851c:	00001400 	andeq	r1, r0, r0, lsl #8
    8520:	ea9c0100 	b	fe708928 <__bss_end__+0xfe6fe900>
    8524:	22000009 	andcs	r0, r0, #9
    8528:	0000916c 	andeq	r9, r0, ip, ror #2
    852c:	00000a0f 	andeq	r0, r0, pc, lsl #20
    8530:	05500123 	ldrbeq	r0, [r0, #-291]	; 0xfffffedd
    8534:	0030040c 	eorseq	r0, r0, ip, lsl #8
    8538:	20000020 	andcs	r0, r0, r0, lsr #32
    853c:	000008b9 			; <UNDEFINED> instruction: 0x000008b9
    8540:	91440501 	cmpls	r4, r1, lsl #10
    8544:	001c0000 	andseq	r0, ip, r0
    8548:	9c010000 	stcls	0, cr0, [r1], {-0}
    854c:	00000a0f 	andeq	r0, r0, pc, lsl #20
    8550:	0008d829 	andeq	sp, r8, r9, lsr #16
    8554:	2c050100 	stfcss	f0, [r5], {-0}
    8558:	dd000000 	stcle	0, cr0, [r0, #-0]
    855c:	00000010 	andeq	r0, r0, r0, lsl r0
    8560:	0008de2a 	andeq	sp, r8, sl, lsr #28
    8564:	0008de00 	andeq	sp, r8, r0, lsl #28
    8568:	00a70600 	adceq	r0, r7, r0, lsl #12
    856c:	00000cc5 	andeq	r0, r0, r5, asr #25
    8570:	19ad0004 	stmibne	sp!, {r2}
    8574:	01040000 	mrseq	r0, (UNDEF: 4)
    8578:	000003d6 	ldrdeq	r0, [r0], -r6
    857c:	0009330c 	andeq	r3, r9, ip, lsl #6
    8580:	00094600 	andeq	r4, r9, r0, lsl #12
    8584:	00921800 	addseq	r1, r2, r0, lsl #16
    8588:	00017800 	andeq	r7, r1, r0, lsl #16
    858c:	000dab00 	andeq	sl, sp, r0, lsl #22
    8590:	05040200 	streq	r0, [r4, #-512]	; 0xfffffe00
    8594:	00746e69 	rsbseq	r6, r4, r9, ror #28
    8598:	66070403 	strvs	r0, [r7], -r3, lsl #8
    859c:	04000000 	streq	r0, [r0], #-0
    85a0:	0000002c 	andeq	r0, r0, ip, lsr #32
    85a4:	fa060103 	blx	1889b8 <__bss_end__+0x17e990>
    85a8:	03000002 	movweq	r0, #2
    85ac:	03140502 	tsteq	r4, #8388608	; 0x800000
    85b0:	04030000 	streq	r0, [r3], #-0
    85b4:	0000af05 	andeq	sl, r0, r5, lsl #30
    85b8:	05080300 	streq	r0, [r8, #-768]	; 0xfffffd00
    85bc:	000000aa 	andeq	r0, r0, sl, lsr #1
    85c0:	f8080103 			; <UNDEFINED> instruction: 0xf8080103
    85c4:	03000002 	movweq	r0, #2
    85c8:	02250702 	eoreq	r0, r5, #524288	; 0x80000
    85cc:	04030000 	streq	r0, [r3], #-0
    85d0:	00006107 	andeq	r6, r0, r7, lsl #2
    85d4:	07080300 	streq	r0, [r8, -r0, lsl #6]
    85d8:	0000005c 	andeq	r0, r0, ip, asr r0
    85dc:	0002e605 	andeq	lr, r2, r5, lsl #12
    85e0:	25070200 	strcs	r0, [r7, #-512]	; 0xfffffe00
    85e4:	05000000 	streq	r0, [r0, #-0]
    85e8:	000002d5 	ldrdeq	r0, [r0], -r5
    85ec:	00462c03 	subeq	r2, r6, r3, lsl #24
    85f0:	bf050000 	svclt	0x00050000
    85f4:	03000003 	movweq	r0, #3
    85f8:	00004672 	andeq	r4, r0, r2, ror r6
    85fc:	02760600 	rsbseq	r0, r6, #0, 12
    8600:	65040000 	strvs	r0, [r4, #-0]
    8604:	00002c01 	andeq	r2, r0, r1, lsl #24
    8608:	03040700 	movweq	r0, #18176	; 0x4700
    860c:	0000bca6 	andeq	fp, r0, r6, lsr #25
    8610:	02700800 	rsbseq	r0, r0, #0, 16
    8614:	a8030000 	stmdage	r3, {}	; <UNPREDICTABLE>
    8618:	00000091 	muleq	r0, r1, r0
    861c:	0001e508 	andeq	lr, r1, r8, lsl #10
    8620:	bca90300 	stclt	3, cr0, [r9]
    8624:	00000000 	andeq	r0, r0, r0
    8628:	00005409 	andeq	r5, r0, r9, lsl #8
    862c:	0000cc00 	andeq	ip, r0, r0, lsl #24
    8630:	00cc0a00 	sbceq	r0, ip, r0, lsl #20
    8634:	00030000 	andeq	r0, r3, r0
    8638:	a9070403 	stmdbge	r7, {r0, r1, sl}
    863c:	0b000002 	bleq	864c <ckalloc+0x54>
    8640:	f4a30308 	vld4.8	{d0[0],d1[0],d2[0],d3[0]}, [r3], r8
    8644:	0c000000 	stceq	0, cr0, [r0], {-0}
    8648:	000003a9 	andeq	r0, r0, r9, lsr #7
    864c:	0025a503 	eoreq	sl, r5, r3, lsl #10
    8650:	0c000000 	stceq	0, cr0, [r0], {-0}
    8654:	000003b1 			; <UNDEFINED> instruction: 0x000003b1
    8658:	009daa03 	addseq	sl, sp, r3, lsl #20
    865c:	00040000 	andeq	r0, r4, r0
    8660:	00033c05 	andeq	r3, r3, r5, lsl #24
    8664:	d3ab0300 			; <UNDEFINED> instruction: 0xd3ab0300
    8668:	05000000 	streq	r0, [r0, #-0]
    866c:	000001a2 	andeq	r0, r0, r2, lsr #3
    8670:	0070af03 	rsbseq	sl, r0, r3, lsl #30
    8674:	040d0000 	streq	r0, [sp], #-0
    8678:	0112040e 	tsteq	r2, lr, lsl #8
    867c:	01030000 	mrseq	r0, (UNDEF: 3)
    8680:	00030108 	andeq	r0, r3, r8, lsl #2
    8684:	01120f00 	tsteq	r2, r0, lsl #30
    8688:	53050000 	movwpl	r0, #20480	; 0x5000
    868c:	05000004 	streq	r0, [r0, #-4]
    8690:	00006216 	andeq	r6, r0, r6, lsl r2
    8694:	01b31000 			; <UNDEFINED> instruction: 0x01b31000
    8698:	05180000 	ldreq	r0, [r8, #-0]
    869c:	00017c2d 	andeq	r7, r1, sp, lsr #24
    86a0:	035d0c00 	cmpeq	sp, #0, 24
    86a4:	2f050000 	svccs	0x00050000
    86a8:	0000017c 	andeq	r0, r0, ip, ror r1
    86ac:	6b5f1100 	blvs	17ccab4 <__bss_end__+0x17c2a8c>
    86b0:	25300500 	ldrcs	r0, [r0, #-1280]!	; 0xfffffb00
    86b4:	04000000 	streq	r0, [r0], #-0
    86b8:	0003940c 	andeq	r9, r3, ip, lsl #8
    86bc:	25300500 	ldrcs	r0, [r0, #-1280]!	; 0xfffffb00
    86c0:	08000000 	stmdaeq	r0, {}	; <UNPREDICTABLE>
    86c4:	00019c0c 	andeq	r9, r1, ip, lsl #24
    86c8:	25300500 	ldrcs	r0, [r0, #-1280]!	; 0xfffffb00
    86cc:	0c000000 	stceq	0, cr0, [r0], {-0}
    86d0:	0004a10c 	andeq	sl, r4, ip, lsl #2
    86d4:	25300500 	ldrcs	r0, [r0, #-1280]!	; 0xfffffb00
    86d8:	10000000 	andne	r0, r0, r0
    86dc:	00785f11 	rsbseq	r5, r8, r1, lsl pc
    86e0:	01823105 	orreq	r3, r2, r5, lsl #2
    86e4:	00140000 	andseq	r0, r4, r0
    86e8:	0129040e 			; <UNDEFINED> instruction: 0x0129040e
    86ec:	1e090000 	cdpne	0, 0, cr0, cr9, cr0, {0}
    86f0:	92000001 	andls	r0, r0, #1
    86f4:	0a000001 	beq	8700 <ckalloc+0x108>
    86f8:	000000cc 	andeq	r0, r0, ip, asr #1
    86fc:	e0100000 	ands	r0, r0, r0
    8700:	24000001 	strcs	r0, [r0], #-1
    8704:	020b3505 	andeq	r3, fp, #20971520	; 0x1400000
    8708:	a10c0000 	mrsge	r0, (UNDEF: 12)
    870c:	05000000 	streq	r0, [r0, #-0]
    8710:	00002537 	andeq	r2, r0, r7, lsr r5
    8714:	c70c0000 	strgt	r0, [ip, -r0]
    8718:	05000003 	streq	r0, [r0, #-3]
    871c:	00002538 	andeq	r2, r0, r8, lsr r5
    8720:	c40c0400 	strgt	r0, [ip], #-1024	; 0xfffffc00
    8724:	05000000 	streq	r0, [r0, #-0]
    8728:	00002539 	andeq	r2, r0, r9, lsr r5
    872c:	220c0800 	andcs	r0, ip, #0, 16
    8730:	05000005 	streq	r0, [r0, #-5]
    8734:	0000253a 	andeq	r2, r0, sl, lsr r5
    8738:	b90c0c00 	stmdblt	ip, {sl, fp}
    873c:	05000002 	streq	r0, [r0, #-2]
    8740:	0000253b 	andeq	r2, r0, fp, lsr r5
    8744:	920c1000 	andls	r1, ip, #0
    8748:	05000002 	streq	r0, [r0, #-2]
    874c:	0000253c 	andeq	r2, r0, ip, lsr r5
    8750:	a60c1400 	strge	r1, [ip], -r0, lsl #8
    8754:	05000004 	streq	r0, [r0, #-4]
    8758:	0000253d 	andeq	r2, r0, sp, lsr r5
    875c:	1e0c1800 	cdpne	8, 0, cr1, cr12, cr0, {0}
    8760:	05000003 	streq	r0, [r0, #-3]
    8764:	0000253e 	andeq	r2, r0, lr, lsr r5
    8768:	e90c1c00 	stmdb	ip, {sl, fp, ip}
    876c:	05000004 	streq	r0, [r0, #-4]
    8770:	0000253f 	andeq	r2, r0, pc, lsr r5
    8774:	12002000 	andne	r2, r0, #0
    8778:	00000104 	andeq	r0, r0, r4, lsl #2
    877c:	48050108 	stmdami	r5, {r3, r8}
    8780:	0000024b 	andeq	r0, r0, fp, asr #4
    8784:	00018f0c 	andeq	r8, r1, ip, lsl #30
    8788:	4b490500 	blmi	1249b90 <__bss_end__+0x123fb68>
    878c:	00000002 	andeq	r0, r0, r2
    8790:	0000000c 	andeq	r0, r0, ip
    8794:	4b4a0500 	blmi	1289b9c <__bss_end__+0x127fb74>
    8798:	80000002 	andhi	r0, r0, r2
    879c:	00044513 	andeq	r4, r4, r3, lsl r5
    87a0:	1e4c0500 	cdpne	5, 4, cr0, cr12, cr0, {0}
    87a4:	00000001 	andeq	r0, r0, r1
    87a8:	01291301 			; <UNDEFINED> instruction: 0x01291301
    87ac:	4f050000 	svcmi	0x00050000
    87b0:	0000011e 	andeq	r0, r0, lr, lsl r1
    87b4:	09000104 	stmdbeq	r0, {r2, r8}
    87b8:	0000010a 	andeq	r0, r0, sl, lsl #2
    87bc:	0000025b 	andeq	r0, r0, fp, asr r2
    87c0:	0000cc0a 	andeq	ip, r0, sl, lsl #24
    87c4:	12001f00 	andne	r1, r0, #0, 30
    87c8:	000002c2 	andeq	r0, r0, r2, asr #5
    87cc:	5b050190 	blpl	148e14 <__bss_end__+0x13edec>
    87d0:	00000299 	muleq	r0, r9, r2
    87d4:	00035d0c 	andeq	r5, r3, ip, lsl #26
    87d8:	995c0500 	ldmdbls	ip, {r8, sl}^
    87dc:	00000002 	andeq	r0, r0, r2
    87e0:	0003750c 	andeq	r7, r3, ip, lsl #10
    87e4:	255d0500 	ldrbcs	r0, [sp, #-1280]	; 0xfffffb00
    87e8:	04000000 	streq	r0, [r0], #-0
    87ec:	0001970c 	andeq	r9, r1, ip, lsl #14
    87f0:	9f5f0500 	svcls	0x005f0500
    87f4:	08000002 	stmdaeq	r0, {r1}
    87f8:	0001040c 	andeq	r0, r1, ip, lsl #8
    87fc:	0b600500 	bleq	1809c04 <__bss_end__+0x17ffbdc>
    8800:	88000002 	stmdahi	r0, {r1}
    8804:	5b040e00 	blpl	10c00c <__bss_end__+0x101fe4>
    8808:	09000002 	stmdbeq	r0, {r1}
    880c:	000002af 	andeq	r0, r0, pc, lsr #5
    8810:	000002af 	andeq	r0, r0, pc, lsr #5
    8814:	0000cc0a 	andeq	ip, r0, sl, lsl #24
    8818:	0e001f00 	cdpeq	15, 0, cr1, cr0, cr0, {0}
    881c:	0002b504 	andeq	fp, r2, r4, lsl #10
    8820:	28101400 	ldmdacs	r0, {sl, ip}
    8824:	08000003 	stmdaeq	r0, {r0, r1}
    8828:	02db7305 	sbcseq	r7, fp, #335544320	; 0x14000000
    882c:	be0c0000 	cdplt	0, 0, cr0, cr12, cr0, {0}
    8830:	05000000 	streq	r0, [r0, #-0]
    8834:	0002db74 	andeq	sp, r2, r4, ror fp
    8838:	1b0c0000 	blne	308840 <__bss_end__+0x2fe818>
    883c:	05000000 	streq	r0, [r0, #-0]
    8840:	00002575 	andeq	r2, r0, r5, ror r5
    8844:	0e000400 	cfcpyseq	mvf0, mvf0
    8848:	00005404 	andeq	r5, r0, r4, lsl #8
    884c:	03471000 	movteq	r1, #28672	; 0x7000
    8850:	05680000 	strbeq	r0, [r8, #-0]!
    8854:	00040bb3 			; <UNDEFINED> instruction: 0x00040bb3
    8858:	705f1100 	subsvc	r1, pc, r0, lsl #2
    885c:	dbb40500 	blle	fed09c64 <__bss_end__+0xfecffc3c>
    8860:	00000002 	andeq	r0, r0, r2
    8864:	00725f11 	rsbseq	r5, r2, r1, lsl pc
    8868:	0025b505 	eoreq	fp, r5, r5, lsl #10
    886c:	11040000 	mrsne	r0, (UNDEF: 4)
    8870:	0500775f 	streq	r7, [r0, #-1887]	; 0xfffff8a1
    8874:	000025b6 			; <UNDEFINED> instruction: 0x000025b6
    8878:	220c0800 	andcs	r0, ip, #0, 16
    887c:	05000001 	streq	r0, [r0, #-1]
    8880:	00003fb7 			; <UNDEFINED> instruction: 0x00003fb7
    8884:	0b0c0c00 	bleq	30b88c <__bss_end__+0x301864>
    8888:	05000002 	streq	r0, [r0, #-2]
    888c:	00003fb8 			; <UNDEFINED> instruction: 0x00003fb8
    8890:	5f110e00 	svcpl	0x00110e00
    8894:	05006662 	streq	r6, [r0, #-1634]	; 0xfffff99e
    8898:	0002b6b9 			; <UNDEFINED> instruction: 0x0002b6b9
    889c:	7b0c1000 	blvc	30c8a4 <__bss_end__+0x30287c>
    88a0:	05000000 	streq	r0, [r0, #-0]
    88a4:	000025ba 			; <UNDEFINED> instruction: 0x000025ba
    88a8:	120c1800 	andne	r1, ip, #0, 16
    88ac:	05000001 	streq	r0, [r0, #-1]
    88b0:	00010ac1 	andeq	r0, r1, r1, asr #21
    88b4:	780c1c00 	stmdavc	ip, {sl, fp, ip}
    88b8:	0500000a 	streq	r0, [r0, #-10]
    88bc:	000566c3 	andeq	r6, r5, r3, asr #13
    88c0:	0c0c2000 	stceq	0, cr2, [ip], {-0}
    88c4:	05000006 	streq	r0, [r0, #-6]
    88c8:	000590c5 	andeq	r9, r5, r5, asr #1
    88cc:	b90c2400 	stmdblt	ip, {sl, sp}
    88d0:	05000003 	streq	r0, [r0, #-3]
    88d4:	0005b4c8 	andeq	fp, r5, r8, asr #9
    88d8:	030c2800 	movweq	r2, #51200	; 0xc800
    88dc:	05000005 	streq	r0, [r0, #-5]
    88e0:	0005cec9 	andeq	ip, r5, r9, asr #29
    88e4:	5f112c00 	svcpl	0x00112c00
    88e8:	05006275 	streq	r6, [r0, #-629]	; 0xfffffd8b
    88ec:	0002b6cc 	andeq	fp, r2, ip, asr #13
    88f0:	5f113000 	svcpl	0x00113000
    88f4:	05007075 	streq	r7, [r0, #-117]	; 0xffffff8b
    88f8:	0002dbcd 	andeq	sp, r2, sp, asr #23
    88fc:	5f113800 	svcpl	0x00113800
    8900:	05007275 	streq	r7, [r0, #-629]	; 0xfffffd8b
    8904:	000025ce 	andeq	r2, r0, lr, asr #11
    8908:	b80c3c00 	stmdalt	ip, {sl, fp, ip, sp}
    890c:	05000000 	streq	r0, [r0, #-0]
    8910:	0005d4d1 	ldrdeq	sp, [r5], -r1
    8914:	db0c4000 	blle	31891c <__bss_end__+0x30e8f4>
    8918:	05000004 	streq	r0, [r0, #-4]
    891c:	0005e4d2 	ldrdeq	lr, [r5], -r2
    8920:	5f114300 	svcpl	0x00114300
    8924:	0500626c 	streq	r6, [r0, #-620]	; 0xfffffd94
    8928:	0002b6d5 	ldrdeq	fp, [r2], -r5
    892c:	400c4400 	andmi	r4, ip, r0, lsl #8
    8930:	05000001 	streq	r0, [r0, #-1]
    8934:	000025d8 	ldrdeq	r2, [r0], -r8
    8938:	510c4c00 	tstpl	ip, r0, lsl #24
    893c:	05000001 	streq	r0, [r0, #-1]
    8940:	00007bd9 	ldrdeq	r7, [r0], -r9
    8944:	190c5000 	stmdbne	ip, {ip, lr}
    8948:	0500000a 	streq	r0, [r0, #-10]
    894c:	000429dc 	ldrdeq	r2, [r4], -ip
    8950:	840c5400 	strhi	r5, [ip], #-1024	; 0xfffffc00
    8954:	05000002 	streq	r0, [r0, #-2]
    8958:	0000ffe0 	andeq	pc, r0, r0, ror #31
    895c:	4f0c5800 	svcmi	0x000c5800
    8960:	05000003 	streq	r0, [r0, #-3]
    8964:	0000f4e2 	andeq	pc, r0, r2, ror #9
    8968:	8a0c5c00 	bhi	31f970 <__bss_end__+0x315948>
    896c:	05000002 	streq	r0, [r0, #-2]
    8970:	000025e3 	andeq	r2, r0, r3, ror #11
    8974:	15006400 	strne	r6, [r0, #-1024]	; 0xfffffc00
    8978:	00000025 	andeq	r0, r0, r5, lsr #32
    897c:	00000429 	andeq	r0, r0, r9, lsr #8
    8980:	00042916 	andeq	r2, r4, r6, lsl r9
    8984:	010a1600 	tsteq	sl, r0, lsl #12
    8988:	0c160000 	ldceq	0, cr0, [r6], {-0}
    898c:	16000001 	strne	r0, [r0], -r1
    8990:	00000025 	andeq	r0, r0, r5, lsr #32
    8994:	34040e00 	strcc	r0, [r4], #-3584	; 0xfffff200
    8998:	0f000004 	svceq	0x00000004
    899c:	00000429 	andeq	r0, r0, r9, lsr #8
    89a0:	00039c17 	andeq	r9, r3, r7, lsl ip
    89a4:	05042800 	streq	r2, [r4, #-2048]	; 0xfffff800
    89a8:	05660238 	strbeq	r0, [r6, #-568]!	; 0xfffffdc8
    89ac:	0d180000 	ldceq	0, cr0, [r8, #-0]
    89b0:	05000003 	streq	r0, [r0, #-3]
    89b4:	0025023a 	eoreq	r0, r5, sl, lsr r2
    89b8:	18000000 	stmdane	r0, {}	; <UNPREDICTABLE>
    89bc:	00000131 	andeq	r0, r0, r1, lsr r1
    89c0:	3b023f05 	blcc	985dc <__bss_end__+0x8e5b4>
    89c4:	04000006 	streq	r0, [r0], #-6
    89c8:	0001fb18 	andeq	pc, r1, r8, lsl fp	; <UNPREDICTABLE>
    89cc:	023f0500 	eorseq	r0, pc, #0, 10
    89d0:	0000063b 	andeq	r0, r0, fp, lsr r6
    89d4:	01ab1808 			; <UNDEFINED> instruction: 0x01ab1808
    89d8:	3f050000 	svccc	0x00050000
    89dc:	00063b02 	andeq	r3, r6, r2, lsl #22
    89e0:	70180c00 	andsvc	r0, r8, r0, lsl #24
    89e4:	05000003 	streq	r0, [r0, #-3]
    89e8:	00250241 	eoreq	r0, r5, r1, asr #4
    89ec:	18100000 	ldmdane	r0, {}	; <UNPREDICTABLE>
    89f0:	00000029 	andeq	r0, r0, r9, lsr #32
    89f4:	1d024205 	sfmne	f4, 4, [r2, #-20]	; 0xffffffec
    89f8:	14000008 	strne	r0, [r0], #-8
    89fc:	00047b18 	andeq	r7, r4, r8, lsl fp
    8a00:	02440500 	subeq	r0, r4, #0, 10
    8a04:	00000025 	andeq	r0, r0, r5, lsr #32
    8a08:	037a1830 	cmneq	sl, #48, 16	; 0x300000
    8a0c:	45050000 	strmi	r0, [r5, #-0]
    8a10:	00058a02 	andeq	r8, r5, r2, lsl #20
    8a14:	ca183400 	bgt	615a1c <__bss_end__+0x60b9f4>
    8a18:	05000002 	streq	r0, [r0, #-2]
    8a1c:	00250247 	eoreq	r0, r5, r7, asr #4
    8a20:	18380000 	ldmdane	r8!, {}	; <UNPREDICTABLE>
    8a24:	0000038a 	andeq	r0, r0, sl, lsl #7
    8a28:	38024905 	stmdacc	r2, {r0, r2, r8, fp, lr}
    8a2c:	3c000008 	stccc	0, cr0, [r0], {8}
    8a30:	00026818 	andeq	r6, r2, r8, lsl r8
    8a34:	024c0500 	subeq	r0, ip, #0, 10
    8a38:	0000017c 	andeq	r0, r0, ip, ror r1
    8a3c:	01ca1840 	biceq	r1, sl, r0, asr #16
    8a40:	4d050000 	stcmi	0, cr0, [r5, #-0]
    8a44:	00002502 	andeq	r2, r0, r2, lsl #10
    8a48:	1d184400 	cfldrsne	mvf4, [r8, #-0]
    8a4c:	05000005 	streq	r0, [r0, #-5]
    8a50:	017c024e 	cmneq	ip, lr, asr #4
    8a54:	18480000 	stmdane	r8, {}^	; <UNPREDICTABLE>
    8a58:	000002dc 	ldrdeq	r0, [r0], -ip
    8a5c:	3e024f05 	cdpcc	15, 0, cr4, cr2, cr5, {0}
    8a60:	4c000008 	stcmi	0, cr0, [r0], {8}
    8a64:	00020318 	andeq	r0, r2, r8, lsl r3
    8a68:	02520500 	subseq	r0, r2, #0, 10
    8a6c:	00000025 	andeq	r0, r0, r5, lsr #32
    8a70:	01491850 	cmpeq	r9, r0, asr r8
    8a74:	53050000 	movwpl	r0, #20480	; 0x5000
    8a78:	00010c02 	andeq	r0, r1, r2, lsl #24
    8a7c:	06185400 	ldreq	r5, [r8], -r0, lsl #8
    8a80:	05000003 	streq	r0, [r0, #-3]
    8a84:	07fb0276 			; <UNDEFINED> instruction: 0x07fb0276
    8a88:	19580000 	ldmdbne	r8, {}^	; <UNPREDICTABLE>
    8a8c:	000002c2 	andeq	r0, r0, r2, asr #5
    8a90:	99027a05 	stmdbls	r2, {r0, r2, r9, fp, ip, sp, lr}
    8a94:	48000002 	stmdami	r0, {r1}
    8a98:	02461901 	subeq	r1, r6, #16384	; 0x4000
    8a9c:	7b050000 	blvc	148aa4 <__bss_end__+0x13ea7c>
    8aa0:	00025b02 	andeq	r5, r2, r2, lsl #22
    8aa4:	19014c00 	stmdbne	r1, {sl, fp, lr}
    8aa8:	000004c9 	andeq	r0, r0, r9, asr #9
    8aac:	4f027f05 	svcmi	0x00027f05
    8ab0:	dc000008 	stcle	0, cr0, [r0], {8}
    8ab4:	011a1902 	tsteq	sl, r2, lsl #18
    8ab8:	84050000 	strhi	r0, [r5], #-0
    8abc:	00060002 	andeq	r0, r6, r2
    8ac0:	1902e000 	stmdbne	r2, {sp, lr, pc}
    8ac4:	000000ff 	strdeq	r0, [r0], -pc	; <UNPREDICTABLE>
    8ac8:	5b028505 	blpl	a9ee4 <__bss_end__+0x9febc>
    8acc:	ec000008 	stc	0, cr0, [r0], {8}
    8ad0:	040e0002 	streq	r0, [lr], #-2
    8ad4:	0000040b 	andeq	r0, r0, fp, lsl #8
    8ad8:	00002515 	andeq	r2, r0, r5, lsl r5
    8adc:	00058a00 	andeq	r8, r5, r0, lsl #20
    8ae0:	04291600 	strteq	r1, [r9], #-1536	; 0xfffffa00
    8ae4:	0a160000 	beq	588aec <__bss_end__+0x57eac4>
    8ae8:	16000001 	strne	r0, [r0], -r1
    8aec:	0000058a 	andeq	r0, r0, sl, lsl #11
    8af0:	00002516 	andeq	r2, r0, r6, lsl r5
    8af4:	040e0000 	streq	r0, [lr], #-0
    8af8:	00000119 	andeq	r0, r0, r9, lsl r1
    8afc:	056c040e 	strbeq	r0, [ip, #-1038]!	; 0xfffffbf2
    8b00:	86150000 	ldrhi	r0, [r5], -r0
    8b04:	b4000000 	strlt	r0, [r0], #-0
    8b08:	16000005 	strne	r0, [r0], -r5
    8b0c:	00000429 	andeq	r0, r0, r9, lsr #8
    8b10:	00010a16 	andeq	r0, r1, r6, lsl sl
    8b14:	00861600 	addeq	r1, r6, r0, lsl #12
    8b18:	25160000 	ldrcs	r0, [r6, #-0]
    8b1c:	00000000 	andeq	r0, r0, r0
    8b20:	0596040e 	ldreq	r0, [r6, #1038]	; 0x40e
    8b24:	25150000 	ldrcs	r0, [r5, #-0]
    8b28:	ce000000 	cdpgt	0, 0, cr0, cr0, cr0, {0}
    8b2c:	16000005 	strne	r0, [r0], -r5
    8b30:	00000429 	andeq	r0, r0, r9, lsr #8
    8b34:	00010a16 	andeq	r0, r1, r6, lsl sl
    8b38:	040e0000 	streq	r0, [lr], #-0
    8b3c:	000005ba 			; <UNDEFINED> instruction: 0x000005ba
    8b40:	00005409 	andeq	r5, r0, r9, lsl #8
    8b44:	0005e400 	andeq	lr, r5, r0, lsl #8
    8b48:	00cc0a00 	sbceq	r0, ip, r0, lsl #20
    8b4c:	00020000 	andeq	r0, r2, r0
    8b50:	00005409 	andeq	r5, r0, r9, lsl #8
    8b54:	0005f400 	andeq	pc, r5, r0, lsl #8
    8b58:	00cc0a00 	sbceq	r0, ip, r0, lsl #20
    8b5c:	00000000 	andeq	r0, r0, r0
    8b60:	00033506 	andeq	r3, r3, r6, lsl #10
    8b64:	011d0500 	tsteq	sp, r0, lsl #10
    8b68:	000002e1 	andeq	r0, r0, r1, ror #5
    8b6c:	0004b01a 	andeq	fp, r4, sl, lsl r0
    8b70:	21050c00 	tstcs	r5, r0, lsl #24
    8b74:	00063501 	andeq	r3, r6, r1, lsl #10
    8b78:	035d1800 	cmpeq	sp, #0, 16
    8b7c:	23050000 	movwcs	r0, #20480	; 0x5000
    8b80:	00063501 	andeq	r3, r6, r1, lsl #10
    8b84:	1e180000 	cdpne	0, 1, cr0, cr8, cr0, {0}
    8b88:	05000002 	streq	r0, [r0, #-2]
    8b8c:	00250124 	eoreq	r0, r5, r4, lsr #2
    8b90:	18040000 	stmdane	r4, {}	; <UNPREDICTABLE>
    8b94:	0000032f 	andeq	r0, r0, pc, lsr #6
    8b98:	3b012505 	blcc	51fb4 <__bss_end__+0x47f8c>
    8b9c:	08000006 	stmdaeq	r0, {r1, r2}
    8ba0:	00040e00 	andeq	r0, r4, r0, lsl #28
    8ba4:	0e000006 	cdpeq	0, 0, cr0, cr0, cr6, {0}
    8ba8:	0005f404 	andeq	pc, r5, r4, lsl #8
    8bac:	00211a00 	eoreq	r1, r1, r0, lsl #20
    8bb0:	050e0000 	streq	r0, [lr, #-0]
    8bb4:	0676013d 			; <UNDEFINED> instruction: 0x0676013d
    8bb8:	a3180000 	tstge	r8, #0
    8bbc:	05000003 	streq	r0, [r0, #-3]
    8bc0:	0676013e 			; <UNDEFINED> instruction: 0x0676013e
    8bc4:	18000000 	stmdane	r0, {}	; <UNPREDICTABLE>
    8bc8:	000003d0 	ldrdeq	r0, [r0], -r0	; <UNPREDICTABLE>
    8bcc:	76013f05 	strvc	r3, [r1], -r5, lsl #30
    8bd0:	06000006 	streq	r0, [r0], -r6
    8bd4:	00044e18 	andeq	r4, r4, r8, lsl lr
    8bd8:	01400500 	cmpeq	r0, r0, lsl #10
    8bdc:	0000005b 	andeq	r0, r0, fp, asr r0
    8be0:	5b09000c 	blpl	248c18 <__bss_end__+0x23ebf0>
    8be4:	86000000 	strhi	r0, [r0], -r0
    8be8:	0a000006 	beq	8c08 <rpi_set_output+0x24>
    8bec:	000000cc 	andeq	r0, r0, ip, asr #1
    8bf0:	d01b0002 	andsle	r0, fp, r2
    8bf4:	87025705 	strhi	r5, [r2, -r5, lsl #14]
    8bf8:	18000007 	stmdane	r0, {r0, r1, r2}
    8bfc:	00000494 	muleq	r0, r4, r4
    8c00:	2c025905 			; <UNDEFINED> instruction: 0x2c025905
    8c04:	00000000 	andeq	r0, r0, r0
    8c08:	00043818 	andeq	r3, r4, r8, lsl r8
    8c0c:	025a0500 	subseq	r0, sl, #0, 10
    8c10:	0000010c 	andeq	r0, r0, ip, lsl #2
    8c14:	025b1804 	subseq	r1, fp, #4, 16	; 0x40000
    8c18:	5b050000 	blpl	148c20 <__bss_end__+0x13ebf8>
    8c1c:	00078702 	andeq	r8, r7, r2, lsl #14
    8c20:	f4180800 			; <UNDEFINED> instruction: 0xf4180800
    8c24:	05000004 	streq	r0, [r0, #-4]
    8c28:	0192025c 	orrseq	r0, r2, ip, asr r2
    8c2c:	18240000 	stmdane	r4!, {}	; <UNPREDICTABLE>
    8c30:	000001bb 			; <UNDEFINED> instruction: 0x000001bb
    8c34:	25025d05 	strcs	r5, [r2, #-3333]	; 0xfffff2fb
    8c38:	48000000 	stmdami	r0, {}	; <UNPREDICTABLE>
    8c3c:	00035818 	andeq	r5, r3, r8, lsl r8
    8c40:	025e0500 	subseq	r0, lr, #0, 10
    8c44:	00000069 	andeq	r0, r0, r9, rrx
    8c48:	050a1850 	streq	r1, [sl, #-2128]	; 0xfffff7b0
    8c4c:	5f050000 	svcpl	0x00050000
    8c50:	00064102 	andeq	r4, r6, r2, lsl #2
    8c54:	63185800 	tstvs	r8, #0, 16
    8c58:	05000003 	streq	r0, [r0, #-3]
    8c5c:	00f40260 	rscseq	r0, r4, r0, ror #4
    8c60:	18680000 	stmdane	r8!, {}^	; <UNPREDICTABLE>
    8c64:	0000050f 	andeq	r0, r0, pc, lsl #10
    8c68:	f4026105 	vst4.8	{d6,d8,d10,d12}, [r2], r5
    8c6c:	70000000 	andvc	r0, r0, r0
    8c70:	00009318 	andeq	r9, r0, r8, lsl r3
    8c74:	02620500 	rsbeq	r0, r2, #0, 10
    8c78:	000000f4 	strdeq	r0, [r0], -r4
    8c7c:	04bf1878 	ldrteq	r1, [pc], #2168	; 8c84 <va_printk+0x4c>
    8c80:	63050000 	movwvs	r0, #20480	; 0x5000
    8c84:	00079702 	andeq	r9, r7, r2, lsl #14
    8c88:	4f188000 	svcmi	0x00188000
    8c8c:	05000002 	streq	r0, [r0, #-2]
    8c90:	07a70264 	streq	r0, [r7, r4, ror #4]!
    8c94:	18880000 	stmne	r8, {}	; <UNPREDICTABLE>
    8c98:	0000045b 	andeq	r0, r0, fp, asr r4
    8c9c:	25026505 	strcs	r6, [r2, #-1285]	; 0xfffffafb
    8ca0:	a0000000 	andge	r0, r0, r0
    8ca4:	00018118 	andeq	r8, r1, r8, lsl r1
    8ca8:	02660500 	rsbeq	r0, r6, #0, 10
    8cac:	000000f4 	strdeq	r0, [r0], -r4
    8cb0:	008418a4 	addeq	r1, r4, r4, lsr #17
    8cb4:	67050000 	strvs	r0, [r5, -r0]
    8cb8:	0000f402 	andeq	pc, r0, r2, lsl #8
    8cbc:	7018ac00 	andsvc	sl, r8, r0, lsl #24
    8cc0:	05000001 	streq	r0, [r0, #-1]
    8cc4:	00f40268 	rscseq	r0, r4, r8, ror #4
    8cc8:	18b40000 	ldmne	r4!, {}	; <UNPREDICTABLE>
    8ccc:	0000003c 	andeq	r0, r0, ip, lsr r0
    8cd0:	f4026905 	vst2.8	{d6,d8}, [r2], r5
    8cd4:	bc000000 	stclt	0, cr0, [r0], {-0}
    8cd8:	00004b18 	andeq	r4, r0, r8, lsl fp
    8cdc:	026a0500 	rsbeq	r0, sl, #0, 10
    8ce0:	000000f4 	strdeq	r0, [r0], -r4
    8ce4:	030b18c4 	movweq	r1, #47300	; 0xb8c4
    8ce8:	6b050000 	blvs	148cf0 <__bss_end__+0x13ecc8>
    8cec:	00002502 	andeq	r2, r0, r2, lsl #10
    8cf0:	0900cc00 	stmdbeq	r0, {sl, fp, lr, pc}
    8cf4:	00000112 	andeq	r0, r0, r2, lsl r1
    8cf8:	00000797 	muleq	r0, r7, r7
    8cfc:	0000cc0a 	andeq	ip, r0, sl, lsl #24
    8d00:	09001900 	stmdbeq	r0, {r8, fp, ip}
    8d04:	00000112 	andeq	r0, r0, r2, lsl r1
    8d08:	000007a7 	andeq	r0, r0, r7, lsr #15
    8d0c:	0000cc0a 	andeq	ip, r0, sl, lsl #24
    8d10:	09000700 	stmdbeq	r0, {r8, r9, sl}
    8d14:	00000112 	andeq	r0, r0, r2, lsl r1
    8d18:	000007b7 			; <UNDEFINED> instruction: 0x000007b7
    8d1c:	0000cc0a 	andeq	ip, r0, sl, lsl #24
    8d20:	1b001700 	blne	e928 <__bss_end__+0x4900>
    8d24:	027005f0 	rsbseq	r0, r0, #240, 10	; 0x3c000000
    8d28:	000007db 	ldrdeq	r0, [r0], -fp
    8d2c:	0002b218 	andeq	fp, r2, r8, lsl r2
    8d30:	02730500 	rsbseq	r0, r3, #0, 10
    8d34:	000007db 	ldrdeq	r0, [r0], -fp
    8d38:	04b61800 	ldrteq	r1, [r6], #2048	; 0x800
    8d3c:	74050000 	strvc	r0, [r5], #-0
    8d40:	0007eb02 	andeq	lr, r7, r2, lsl #22
    8d44:	09007800 	stmdbeq	r0, {fp, ip, sp, lr}
    8d48:	000002db 	ldrdeq	r0, [r0], -fp
    8d4c:	000007eb 	andeq	r0, r0, fp, ror #15
    8d50:	0000cc0a 	andeq	ip, r0, sl, lsl #24
    8d54:	09001d00 	stmdbeq	r0, {r8, sl, fp, ip}
    8d58:	0000002c 	andeq	r0, r0, ip, lsr #32
    8d5c:	000007fb 	strdeq	r0, [r0], -fp
    8d60:	0000cc0a 	andeq	ip, r0, sl, lsl #24
    8d64:	1c001d00 	stcne	13, cr1, [r0], {-0}
    8d68:	025505f0 	subseq	r0, r5, #240, 10	; 0x3c000000
    8d6c:	0000081d 	andeq	r0, r0, sp, lsl r8
    8d70:	00039c1d 	andeq	r9, r3, sp, lsl ip
    8d74:	026c0500 	rsbeq	r0, ip, #0, 10
    8d78:	00000686 	andeq	r0, r0, r6, lsl #13
    8d7c:	0004e11d 	andeq	lr, r4, sp, lsl r1
    8d80:	02750500 	rsbseq	r0, r5, #0, 10
    8d84:	000007b7 			; <UNDEFINED> instruction: 0x000007b7
    8d88:	01120900 	tsteq	r2, r0, lsl #18
    8d8c:	082d0000 	stmdaeq	sp!, {}	; <UNPREDICTABLE>
    8d90:	cc0a0000 	stcgt	0, cr0, [sl], {-0}
    8d94:	18000000 	stmdane	r0, {}	; <UNPREDICTABLE>
    8d98:	08381e00 	ldmdaeq	r8!, {r9, sl, fp, ip}
    8d9c:	29160000 	ldmdbcs	r6, {}	; <UNPREDICTABLE>
    8da0:	00000004 	andeq	r0, r0, r4
    8da4:	082d040e 	stmdaeq	sp!, {r1, r2, r3, sl}
    8da8:	040e0000 	streq	r0, [lr], #-0
    8dac:	0000017c 	andeq	r0, r0, ip, ror r1
    8db0:	00084f1e 	andeq	r4, r8, lr, lsl pc
    8db4:	00251600 	eoreq	r1, r5, r0, lsl #12
    8db8:	0e000000 	cdpeq	0, 0, cr0, cr0, cr0, {0}
    8dbc:	00085504 	andeq	r5, r8, r4, lsl #10
    8dc0:	44040e00 	strmi	r0, [r4], #-3584	; 0xfffff200
    8dc4:	09000008 	stmdbeq	r0, {r3}
    8dc8:	000005f4 	strdeq	r0, [r0], -r4
    8dcc:	0000086b 	andeq	r0, r0, fp, ror #16
    8dd0:	0000cc0a 	andeq	ip, r0, sl, lsl #24
    8dd4:	1f000200 	svcne	0x00000200
    8dd8:	0000046f 	andeq	r0, r0, pc, ror #8
    8ddc:	2902fd05 	stmdbcs	r2, {r0, r2, r8, sl, fp, ip, sp, lr, pc}
    8de0:	1f000004 	svcne	0x00000004
    8de4:	00000468 	andeq	r0, r0, r8, ror #8
    8de8:	2f02fe05 	svccs	0x0002fe05
    8dec:	15000004 	strne	r0, [r0, #-4]
    8df0:	00000025 	andeq	r0, r0, r5, lsr #32
    8df4:	00000892 	muleq	r0, r2, r8
    8df8:	00002516 	andeq	r2, r0, r6, lsl r5
    8dfc:	d4200000 	strtle	r0, [r0], #-0
    8e00:	06000001 	streq	r0, [r0], -r1
    8e04:	00089d1d 	andeq	r9, r8, sp, lsl sp
    8e08:	83040e00 	movwhi	r0, #19968	; 0x4e00
    8e0c:	15000008 	strne	r0, [r0, #-8]
    8e10:	00000025 	andeq	r0, r0, r5, lsr #32
    8e14:	000008b2 			; <UNDEFINED> instruction: 0x000008b2
    8e18:	00058a16 	andeq	r8, r5, r6, lsl sl
    8e1c:	69200000 	stmdbvs	r0!, {}	; <UNPREDICTABLE>
    8e20:	06000007 	streq	r0, [r0], -r7
    8e24:	0008bd22 	andeq	fp, r8, r2, lsr #26
    8e28:	a3040e00 	movwge	r0, #19968	; 0x4e00
    8e2c:	21000008 	tstcs	r0, r8
    8e30:	00005401 	andeq	r5, r0, r1, lsl #8
    8e34:	000c0800 	andeq	r0, ip, r0, lsl #16
    8e38:	22000009 	andcs	r0, r0, #9
    8e3c:	0000090a 	andeq	r0, r0, sl, lsl #18
    8e40:	09e42200 	stmibeq	r4!, {r9, sp}^
    8e44:	22010000 	andcs	r0, r1, #0
    8e48:	00000a1f 	andeq	r0, r0, pc, lsl sl
    8e4c:	091f2204 	ldmdbeq	pc, {r2, r9, sp}	; <UNPREDICTABLE>
    8e50:	22050000 	andcs	r0, r5, #0
    8e54:	000009ab 	andeq	r0, r0, fp, lsr #19
    8e58:	0a2e2206 	beq	b91678 <__bss_end__+0xb87650>
    8e5c:	22070000 	andcs	r0, r7, #0
    8e60:	00000a3d 	andeq	r0, r0, sp, lsr sl
    8e64:	0a4c2203 	beq	1311678 <__bss_end__+0x1307650>
    8e68:	00020000 	andeq	r0, r2, r0
    8e6c:	00093a10 	andeq	r3, r9, r0, lsl sl
    8e70:	06072c00 	streq	r2, [r7], -r0, lsl #24
    8e74:	00000990 	muleq	r0, r0, r9
    8e78:	006f6911 	rsbeq	r6, pc, r1, lsl r9	; <UNPREDICTABLE>
    8e7c:	00330907 	eorseq	r0, r3, r7, lsl #18
    8e80:	11000000 	mrsne	r0, (UNDEF: 0)
    8e84:	00726569 	rsbseq	r6, r2, r9, ror #10
    8e88:	00330a07 	eorseq	r0, r3, r7, lsl #20
    8e8c:	11040000 	mrsne	r0, (UNDEF: 4)
    8e90:	00726969 	rsbseq	r6, r2, r9, ror #18
    8e94:	00331107 	eorseq	r1, r3, r7, lsl #2
    8e98:	11080000 	mrsne	r0, (UNDEF: 8)
    8e9c:	0072636c 	rsbseq	r6, r2, ip, ror #6
    8ea0:	00331307 	eorseq	r1, r3, r7, lsl #6
    8ea4:	110c0000 	mrsne	r0, (UNDEF: 12)
    8ea8:	0072636d 	rsbseq	r6, r2, sp, ror #6
    8eac:	00331407 	eorseq	r1, r3, r7, lsl #8
    8eb0:	11100000 	tstne	r0, r0
    8eb4:	0072736c 	rsbseq	r7, r2, ip, ror #6
    8eb8:	00331507 	eorseq	r1, r3, r7, lsl #10
    8ebc:	11140000 	tstne	r4, r0
    8ec0:	0072736d 	rsbseq	r7, r2, sp, ror #6
    8ec4:	00331607 	eorseq	r1, r3, r7, lsl #12
    8ec8:	0c180000 	ldceq	0, cr0, [r8], {-0}
    8ecc:	000009d6 	ldrdeq	r0, [r0], -r6
    8ed0:	00331707 	eorseq	r1, r3, r7, lsl #14
    8ed4:	0c1c0000 	ldceq	0, cr0, [ip], {-0}
    8ed8:	0000092e 	andeq	r0, r0, lr, lsr #18
    8edc:	00331b07 	eorseq	r1, r3, r7, lsl #22
    8ee0:	0c200000 	stceq	0, cr0, [r0], #-0
    8ee4:	0000091a 	andeq	r0, r0, sl, lsl r9
    8ee8:	00331d07 	eorseq	r1, r3, r7, lsl #26
    8eec:	0c240000 	stceq	0, cr0, [r4], #-0
    8ef0:	000009d1 	ldrdeq	r0, [r0], -r1
    8ef4:	00331e07 	eorseq	r1, r3, r7, lsl #28
    8ef8:	00280000 	eoreq	r0, r8, r0
    8efc:	00097b23 	andeq	r7, r9, r3, lsr #22
    8f00:	a5070100 	strge	r0, [r7, #-256]	; 0xffffff00
    8f04:	04000009 	streq	r0, [r0], #-9
    8f08:	0e202150 	mcreq	1, 1, r2, cr0, cr0, {2}
    8f0c:	00003304 	andeq	r3, r0, r4, lsl #6
    8f10:	099f0f00 	ldmibeq	pc, {r8, r9, sl, fp}	; <UNPREDICTABLE>
    8f14:	cc230000 	stcgt	0, cr0, [r3], #-0
    8f18:	01000009 	tsteq	r0, r9
    8f1c:	0009bf28 	andeq	fp, r9, r8, lsr #30
    8f20:	21504000 	cmpcs	r0, r0
    8f24:	00040e20 	andeq	r0, r4, r0, lsr #28
    8f28:	0f000009 	svceq	0x00000009
    8f2c:	000009b9 			; <UNDEFINED> instruction: 0x000009b9
    8f30:	000a1124 	andeq	r1, sl, r4, lsr #2
    8f34:	25a70100 	strcs	r0, [r7, #256]!	; 0x100
    8f38:	80000000 	andhi	r0, r0, r0
    8f3c:	10000093 	mulne	r0, r3, r0
    8f40:	01000000 	mrseq	r0, (UNDEF: 0)
    8f44:	0009f09c 	muleq	r9, ip, r0
    8f48:	93882500 	orrls	r2, r8, #0, 10
    8f4c:	0c9c0000 	ldceq	0, cr0, [ip], {0}
    8f50:	8c250000 	stchi	0, cr0, [r5], #-0
    8f54:	d2000093 	andle	r0, r0, #147	; 0x93
    8f58:	0000000a 	andeq	r0, r0, sl
    8f5c:	00078726 	andeq	r8, r7, r6, lsr #14
    8f60:	509f0100 	addspl	r0, pc, r0, lsl #2
    8f64:	30000093 	mulcc	r0, r3, r0
    8f68:	01000000 	mrseq	r0, (UNDEF: 0)
    8f6c:	000a4e9c 	muleq	sl, ip, lr
    8f70:	00632700 	rsbeq	r2, r3, r0, lsl #14
    8f74:	002c9f01 	eoreq	r9, ip, r1, lsl #30
    8f78:	11110000 	tstne	r1, r0
    8f7c:	5c250000 	stcpl	0, cr0, [r5], #-0
    8f80:	9c000093 	stcls	0, cr0, [r0], {147}	; 0x93
    8f84:	2500000c 	strcs	r0, [r0, #-12]
    8f88:	00009360 	andeq	r9, r0, r0, ror #6
    8f8c:	00000aa5 	andeq	r0, r0, r5, lsr #21
    8f90:	00937428 	addseq	r7, r3, r8, lsr #8
    8f94:	000ca700 	andeq	sl, ip, r0, lsl #14
    8f98:	000a4400 	andeq	r4, sl, r0, lsl #8
    8f9c:	50012900 	andpl	r2, r1, r0, lsl #18
    8fa0:	50400c05 	subpl	r0, r0, r5, lsl #24
    8fa4:	01292021 			; <UNDEFINED> instruction: 0x01292021
    8fa8:	00740551 	rsbseq	r0, r4, r1, asr r5
    8fac:	001aff08 	andseq	pc, sl, r8, lsl #30
    8fb0:	00937825 	addseq	r7, r3, r5, lsr #16
    8fb4:	000c9c00 	andeq	r9, ip, r0, lsl #24
    8fb8:	95240000 	strls	r0, [r4, #-0]!
    8fbc:	01000009 	tsteq	r0, r9
    8fc0:	00002597 	muleq	r0, r7, r5
    8fc4:	00932000 	addseq	r2, r3, r0
    8fc8:	00003000 	andeq	r3, r0, r0
    8fcc:	a59c0100 	ldrge	r0, [ip, #256]	; 0x100
    8fd0:	2a00000a 	bcs	9000 <internal_putk+0x20>
    8fd4:	9b010063 	blls	49168 <__bss_end__+0x3f140>
    8fd8:	00000025 	andeq	r0, r0, r5, lsr #32
    8fdc:	28255401 	stmdacs	r5!, {r0, sl, ip, lr}
    8fe0:	9c000093 	stcls	0, cr0, [r0], {147}	; 0x93
    8fe4:	2500000c 	strcs	r0, [r0, #-12]
    8fe8:	0000932c 	andeq	r9, r0, ip, lsr #6
    8fec:	00000ad2 	ldrdeq	r0, [r0], -r2
    8ff0:	00933c28 	addseq	r3, r3, r8, lsr #24
    8ff4:	000cb200 	andeq	fp, ip, r0, lsl #4
    8ff8:	000a9b00 	andeq	r9, sl, r0, lsl #22
    8ffc:	50012900 	andpl	r2, r1, r0, lsl #18
    9000:	50400c05 	subpl	r0, r0, r5, lsl #24
    9004:	25002021 	strcs	r2, [r0, #-33]	; 0xffffffdf
    9008:	00009344 	andeq	r9, r0, r4, asr #6
    900c:	00000c9c 	muleq	r0, ip, ip
    9010:	09872400 	stmibeq	r7, {sl, sp}
    9014:	88010000 	stmdahi	r1, {}	; <UNPREDICTABLE>
    9018:	00000025 	andeq	r0, r0, r5, lsr #32
    901c:	00009300 	andeq	r9, r0, r0, lsl #6
    9020:	00000020 	andeq	r0, r0, r0, lsr #32
    9024:	0ad29c01 	beq	ff4b0030 <__bss_end__+0xff4a6008>
    9028:	0c2b0000 	stceq	0, cr0, [fp], #-0
    902c:	b2000093 	andlt	r0, r0, #147	; 0x93
    9030:	2900000c 	stmdbcs	r0, {r2, r3}
    9034:	0c055001 	stceq	0, cr5, [r5], {1}
    9038:	20215064 	eorcs	r5, r1, r4, rrx
    903c:	fb240000 	blx	909046 <__bss_end__+0x8ff01e>
    9040:	01000009 	tsteq	r0, r9
    9044:	0000257f 	andeq	r2, r0, pc, ror r5
    9048:	0092e800 	addseq	lr, r2, r0, lsl #16
    904c:	00001800 	andeq	r1, r0, r0, lsl #16
    9050:	ff9c0100 			; <UNDEFINED> instruction: 0xff9c0100
    9054:	2b00000a 	blcs	9084 <_cstart+0x14>
    9058:	000092f4 	strdeq	r9, [r0], -r4
    905c:	00000cb2 			; <UNDEFINED> instruction: 0x00000cb2
    9060:	05500129 	ldrbeq	r0, [r0, #-297]	; 0xfffffed7
    9064:	2150640c 	cmpcs	r0, ip, lsl #8
    9068:	26000020 	strcs	r0, [r0], -r0, lsr #32
    906c:	00000900 	andeq	r0, r0, r0, lsl #18
    9070:	92383a01 	eorsls	r3, r8, #4096	; 0x1000
    9074:	00b00000 	adcseq	r0, r0, r0
    9078:	9c010000 	stcls	0, cr0, [r1], {-0}
    907c:	00000c3d 	andeq	r0, r0, sp, lsr ip
    9080:	00924828 	addseq	r4, r2, r8, lsr #16
    9084:	000cbd00 	andeq	fp, ip, r0, lsl #26
    9088:	000b2c00 	andeq	r2, fp, r0, lsl #24
    908c:	50012900 	andpl	r2, r1, r0, lsl #18
    9090:	01293e01 			; <UNDEFINED> instruction: 0x01293e01
    9094:	00320151 	eorseq	r0, r2, r1, asr r1
    9098:	00925428 	addseq	r5, r2, r8, lsr #8
    909c:	000cbd00 	andeq	fp, ip, r0, lsl #26
    90a0:	000b4400 	andeq	r4, fp, r0, lsl #8
    90a4:	50012900 	andpl	r2, r1, r0, lsl #18
    90a8:	01293f01 			; <UNDEFINED> instruction: 0x01293f01
    90ac:	00320151 	eorseq	r0, r2, r1, asr r1
    90b0:	00925825 	addseq	r5, r2, r5, lsr #16
    90b4:	000c9c00 	andeq	r9, ip, r0, lsl #24
    90b8:	92642800 	rsbls	r2, r4, #0, 16
    90bc:	0c3d0000 	ldceq	0, cr0, [sp], #-0
    90c0:	0b690000 	bleq	1a490c8 <__bss_end__+0x1a3f0a0>
    90c4:	01290000 			; <UNDEFINED> instruction: 0x01290000
    90c8:	040c0550 	streq	r0, [ip], #-1360	; 0xfffffab0
    90cc:	29202150 	stmdbcs	r0!, {r4, r6, r8, sp}
    90d0:	31015101 	tstcc	r1, r1, lsl #2
    90d4:	92682500 	rsbls	r2, r8, #0, 10
    90d8:	0c9c0000 	ldceq	0, cr0, [ip], {0}
    90dc:	78280000 	stmdavc	r8!, {}	; <UNPREDICTABLE>
    90e0:	a7000092 			; <UNDEFINED> instruction: 0xa7000092
    90e4:	8b00000c 	blhi	911c <clean_reboot>
    90e8:	2900000b 	stmdbcs	r0, {r0, r1, r3}
    90ec:	74025001 	strvc	r5, [r2], #-1
    90f0:	51012900 	tstpl	r1, r0, lsl #18
    90f4:	28003001 	stmdacs	r0, {r0, ip, sp}
    90f8:	00009284 	andeq	r9, r0, r4, lsl #5
    90fc:	00000ca7 	andeq	r0, r0, r7, lsr #25
    9100:	00000ba7 	andeq	r0, r0, r7, lsr #23
    9104:	05500129 	ldrbeq	r0, [r0, #-297]	; 0xfffffed7
    9108:	2150440c 	cmpcs	r0, ip, lsl #8
    910c:	51012920 	tstpl	r1, r0, lsr #18
    9110:	28003001 	stmdacs	r0, {r0, ip, sp}
    9114:	00009290 	muleq	r0, r0, r2
    9118:	00000ca7 	andeq	r0, r0, r7, lsr #25
    911c:	00000bc3 	andeq	r0, r0, r3, asr #23
    9120:	05500129 	ldrbeq	r0, [r0, #-297]	; 0xfffffed7
    9124:	21504c0c 	cmpcs	r0, ip, lsl #24
    9128:	51012920 	tstpl	r1, r0, lsr #18
    912c:	28003301 	stmdacs	r0, {r0, r8, r9, ip, sp}
    9130:	0000929c 	muleq	r0, ip, r2
    9134:	00000ca7 	andeq	r0, r0, r7, lsr #25
    9138:	00000bdf 	ldrdeq	r0, [r0], -pc	; <UNPREDICTABLE>
    913c:	05500129 	ldrbeq	r0, [r0, #-297]	; 0xfffffed7
    9140:	2150500c 	cmpcs	r0, ip
    9144:	51012920 	tstpl	r1, r0, lsr #18
    9148:	28003001 	stmdacs	r0, {r0, ip, sp}
    914c:	000092a8 	andeq	r9, r0, r8, lsr #5
    9150:	00000ca7 	andeq	r0, r0, r7, lsr #25
    9154:	00000bfc 	strdeq	r0, [r0], -ip
    9158:	05500129 	ldrbeq	r0, [r0, #-297]	; 0xfffffed7
    915c:	2150480c 	cmpcs	r0, ip, lsl #16
    9160:	51012920 	tstpl	r1, r0, lsr #18
    9164:	00c70802 	sbceq	r0, r7, r2, lsl #16
    9168:	0092b428 	addseq	fp, r2, r8, lsr #8
    916c:	000ca700 	andeq	sl, ip, r0, lsl #14
    9170:	000c1a00 	andeq	r1, ip, r0, lsl #20
    9174:	50012900 	andpl	r2, r1, r0, lsl #18
    9178:	50680c05 	rsbpl	r0, r8, r5, lsl #24
    917c:	01292021 			; <UNDEFINED> instruction: 0x01292021
    9180:	0e0a0351 	mcreq	3, 0, r0, cr10, cr1, {2}
    9184:	c0280001 	eorgt	r0, r8, r1
    9188:	a7000092 			; <UNDEFINED> instruction: 0xa7000092
    918c:	3300000c 	movwcc	r0, #12
    9190:	2900000c 	stmdbcs	r0, {r2, r3}
    9194:	74025001 	strvc	r5, [r2], #-1
    9198:	51012900 	tstpl	r1, r0, lsl #18
    919c:	25003301 	strcs	r3, [r0, #-769]	; 0xfffffcff
    91a0:	000092c4 	andeq	r9, r0, r4, asr #5
    91a4:	00000c9c 	muleq	r0, ip, ip
    91a8:	0a092c00 	beq	2541b0 <__bss_end__+0x24a188>
    91ac:	2d010000 	stccs	0, cr0, [r1, #-0]
    91b0:	00009218 	andeq	r9, r0, r8, lsl r2
    91b4:	00000020 	andeq	r0, r0, r0, lsr #32
    91b8:	0c959c01 	ldceq	12, cr9, [r5], {1}
    91bc:	602d0000 	eorvs	r0, sp, r0
    91c0:	0100000b 	tsteq	r0, fp
    91c4:	000c952d 	andeq	r9, ip, sp, lsr #10
    91c8:	00112f00 	andseq	r2, r1, r0, lsl #30
    91cc:	61762700 	cmnvs	r6, r0, lsl #14
    91d0:	2d01006c 	stccs	0, cr0, [r1, #-432]	; 0xfffffe50
    91d4:	0000002c 	andeq	r0, r0, ip, lsr #32
    91d8:	0000114d 	andeq	r1, r0, sp, asr #2
    91dc:	00922828 	addseq	r2, r2, r8, lsr #16
    91e0:	000cb200 	andeq	fp, ip, r0, lsl #4
    91e4:	000c8400 	andeq	r8, ip, r0, lsl #8
    91e8:	50012900 	andpl	r2, r1, r0, lsl #18
    91ec:	00007402 	andeq	r7, r0, r2, lsl #8
    91f0:	0092342b 	addseq	r3, r2, fp, lsr #8
    91f4:	000ca700 	andeq	sl, ip, r0, lsl #14
    91f8:	50012900 	andpl	r2, r1, r0, lsl #18
    91fc:	00007402 	andeq	r7, r0, r2, lsl #8
    9200:	9b040e00 	blls	10ca08 <__bss_end__+0x1029e0>
    9204:	2e00000c 	cdpcs	0, 0, cr0, cr0, cr12, {0}
    9208:	00099f2f 	andeq	r9, r9, pc, lsr #30
    920c:	00099f00 	andeq	r9, r9, r0, lsl #30
    9210:	2f890600 	svccs	0x00890600
    9214:	000009de 	ldrdeq	r0, [r0], -lr
    9218:	000009de 	ldrdeq	r0, [r0], -lr
    921c:	f52f9c06 			; <UNDEFINED> instruction: 0xf52f9c06
    9220:	f5000009 			; <UNDEFINED> instruction: 0xf5000009
    9224:	06000009 	streq	r0, [r0], -r9
    9228:	09ba2fa8 	ldmibeq	sl!, {r3, r5, r7, r8, r9, sl, fp, sp}
    922c:	09ba0000 	ldmibeq	sl!, {}	; <UNPREDICTABLE>
    9230:	19080000 	stmdbne	r8, {}	; <UNPREDICTABLE>
    9234:	000b7000 	andeq	r7, fp, r0
    9238:	21000400 	tstcs	r0, r0, lsl #8
    923c:	0400001c 	streq	r0, [r0], #-28	; 0xffffffe4
    9240:	0003d601 	andeq	sp, r3, r1, lsl #12
    9244:	0a6d0c00 	beq	1b4c24c <__bss_end__+0x1b42224>
    9248:	09460000 	stmdbeq	r6, {}^	; <UNPREDICTABLE>
    924c:	93900000 	orrsls	r0, r0, #0
    9250:	01200000 			; <UNDEFINED> instruction: 0x01200000
    9254:	0ef70000 	cdpeq	0, 15, cr0, cr7, cr0, {0}
    9258:	04020000 	streq	r0, [r2], #-0
    925c:	746e6905 	strbtvc	r6, [lr], #-2309	; 0xfffff6fb
    9260:	07040300 	streq	r0, [r4, -r0, lsl #6]
    9264:	00000066 	andeq	r0, r0, r6, rrx
    9268:	00002c04 	andeq	r2, r0, r4, lsl #24
    926c:	06010300 	streq	r0, [r1], -r0, lsl #6
    9270:	000002fa 	strdeq	r0, [r0], -sl
    9274:	14050203 	strne	r0, [r5], #-515	; 0xfffffdfd
    9278:	03000003 	movweq	r0, #3
    927c:	00af0504 	adceq	r0, pc, r4, lsl #10
    9280:	08030000 	stmdaeq	r3, {}	; <UNPREDICTABLE>
    9284:	0000aa05 	andeq	sl, r0, r5, lsl #20
    9288:	08010300 	stmdaeq	r1, {r8, r9}
    928c:	000002f8 	strdeq	r0, [r0], -r8
    9290:	25070203 	strcs	r0, [r7, #-515]	; 0xfffffdfd
    9294:	03000002 	movweq	r0, #2
    9298:	00610704 	rsbeq	r0, r1, r4, lsl #14
    929c:	08030000 	stmdaeq	r3, {}	; <UNPREDICTABLE>
    92a0:	00005c07 	andeq	r5, r0, r7, lsl #24
    92a4:	02e60500 	rsceq	r0, r6, #0, 10
    92a8:	07020000 	streq	r0, [r2, -r0]
    92ac:	00000025 	andeq	r0, r0, r5, lsr #32
    92b0:	0002d505 	andeq	sp, r2, r5, lsl #10
    92b4:	462c0300 	strtmi	r0, [ip], -r0, lsl #6
    92b8:	05000000 	streq	r0, [r0, #-0]
    92bc:	000003bf 			; <UNDEFINED> instruction: 0x000003bf
    92c0:	00467203 	subeq	r7, r6, r3, lsl #4
    92c4:	76060000 	strvc	r0, [r6], -r0
    92c8:	04000002 	streq	r0, [r0], #-2
    92cc:	002c0165 	eoreq	r0, ip, r5, ror #2
    92d0:	04070000 	streq	r0, [r7], #-0
    92d4:	00bca603 	adcseq	sl, ip, r3, lsl #12
    92d8:	70080000 	andvc	r0, r8, r0
    92dc:	03000002 	movweq	r0, #2
    92e0:	000091a8 	andeq	r9, r0, r8, lsr #3
    92e4:	01e50800 	mvneq	r0, r0, lsl #16
    92e8:	a9030000 	stmdbge	r3, {}	; <UNPREDICTABLE>
    92ec:	000000bc 	strheq	r0, [r0], -ip
    92f0:	00540900 	subseq	r0, r4, r0, lsl #18
    92f4:	00cc0000 	sbceq	r0, ip, r0
    92f8:	cc0a0000 	stcgt	0, cr0, [sl], {-0}
    92fc:	03000000 	movweq	r0, #0
    9300:	07040300 	streq	r0, [r4, -r0, lsl #6]
    9304:	000002a9 	andeq	r0, r0, r9, lsr #5
    9308:	a303080b 	movwge	r0, #14347	; 0x380b
    930c:	000000f4 	strdeq	r0, [r0], -r4
    9310:	0003a90c 	andeq	sl, r3, ip, lsl #18
    9314:	25a50300 	strcs	r0, [r5, #768]!	; 0x300
    9318:	00000000 	andeq	r0, r0, r0
    931c:	0003b10c 	andeq	fp, r3, ip, lsl #2
    9320:	9daa0300 	stcls	3, cr0, [sl]
    9324:	04000000 	streq	r0, [r0], #-0
    9328:	033c0500 	teqeq	ip, #0, 10
    932c:	ab030000 	blge	c9334 <__bss_end__+0xbf30c>
    9330:	000000d3 	ldrdeq	r0, [r0], -r3
    9334:	0001a205 	andeq	sl, r1, r5, lsl #4
    9338:	70af0300 	adcvc	r0, pc, r0, lsl #6
    933c:	0d000000 	stceq	0, cr0, [r0, #-0]
    9340:	12040e04 	andne	r0, r4, #4, 28	; 0x40
    9344:	03000001 	movweq	r0, #1
    9348:	03010801 	movweq	r0, #6145	; 0x1801
    934c:	12040000 	andne	r0, r4, #0
    9350:	05000001 	streq	r0, [r0, #-1]
    9354:	00000453 	andeq	r0, r0, r3, asr r4
    9358:	00621605 	rsbeq	r1, r2, r5, lsl #12
    935c:	b30f0000 	movwlt	r0, #61440	; 0xf000
    9360:	18000001 	stmdane	r0, {r0}
    9364:	017c2d05 	cmneq	ip, r5, lsl #26
    9368:	5d0c0000 	stcpl	0, cr0, [ip, #-0]
    936c:	05000003 	streq	r0, [r0, #-3]
    9370:	00017c2f 	andeq	r7, r1, pc, lsr #24
    9374:	5f100000 	svcpl	0x00100000
    9378:	3005006b 	andcc	r0, r5, fp, rrx
    937c:	00000025 	andeq	r0, r0, r5, lsr #32
    9380:	03940c04 	orrseq	r0, r4, #4, 24	; 0x400
    9384:	30050000 	andcc	r0, r5, r0
    9388:	00000025 	andeq	r0, r0, r5, lsr #32
    938c:	019c0c08 	orrseq	r0, ip, r8, lsl #24
    9390:	30050000 	andcc	r0, r5, r0
    9394:	00000025 	andeq	r0, r0, r5, lsr #32
    9398:	04a10c0c 	strteq	r0, [r1], #3084	; 0xc0c
    939c:	30050000 	andcc	r0, r5, r0
    93a0:	00000025 	andeq	r0, r0, r5, lsr #32
    93a4:	785f1010 	ldmdavc	pc, {r4, ip}^	; <UNPREDICTABLE>
    93a8:	82310500 	eorshi	r0, r1, #0, 10
    93ac:	14000001 	strne	r0, [r0], #-1
    93b0:	29040e00 	stmdbcs	r4, {r9, sl, fp}
    93b4:	09000001 	stmdbeq	r0, {r0}
    93b8:	0000011e 	andeq	r0, r0, lr, lsl r1
    93bc:	00000192 	muleq	r0, r2, r1
    93c0:	0000cc0a 	andeq	ip, r0, sl, lsl #24
    93c4:	0f000000 	svceq	0x00000000
    93c8:	000001e0 	andeq	r0, r0, r0, ror #3
    93cc:	0b350524 	bleq	d4a864 <__bss_end__+0xd4083c>
    93d0:	0c000002 	stceq	0, cr0, [r0], {2}
    93d4:	000000a1 	andeq	r0, r0, r1, lsr #1
    93d8:	00253705 	eoreq	r3, r5, r5, lsl #14
    93dc:	0c000000 	stceq	0, cr0, [r0], {-0}
    93e0:	000003c7 	andeq	r0, r0, r7, asr #7
    93e4:	00253805 	eoreq	r3, r5, r5, lsl #16
    93e8:	0c040000 	stceq	0, cr0, [r4], {-0}
    93ec:	000000c4 	andeq	r0, r0, r4, asr #1
    93f0:	00253905 	eoreq	r3, r5, r5, lsl #18
    93f4:	0c080000 	stceq	0, cr0, [r8], {-0}
    93f8:	00000522 	andeq	r0, r0, r2, lsr #10
    93fc:	00253a05 	eoreq	r3, r5, r5, lsl #20
    9400:	0c0c0000 	stceq	0, cr0, [ip], {-0}
    9404:	000002b9 			; <UNDEFINED> instruction: 0x000002b9
    9408:	00253b05 	eoreq	r3, r5, r5, lsl #22
    940c:	0c100000 	ldceq	0, cr0, [r0], {-0}
    9410:	00000292 	muleq	r0, r2, r2
    9414:	00253c05 	eoreq	r3, r5, r5, lsl #24
    9418:	0c140000 	ldceq	0, cr0, [r4], {-0}
    941c:	000004a6 	andeq	r0, r0, r6, lsr #9
    9420:	00253d05 	eoreq	r3, r5, r5, lsl #26
    9424:	0c180000 	ldceq	0, cr0, [r8], {-0}
    9428:	0000031e 	andeq	r0, r0, lr, lsl r3
    942c:	00253e05 	eoreq	r3, r5, r5, lsl #28
    9430:	0c1c0000 	ldceq	0, cr0, [ip], {-0}
    9434:	000004e9 	andeq	r0, r0, r9, ror #9
    9438:	00253f05 	eoreq	r3, r5, r5, lsl #30
    943c:	00200000 	eoreq	r0, r0, r0
    9440:	00010411 	andeq	r0, r1, r1, lsl r4
    9444:	05010800 	streq	r0, [r1, #-2048]	; 0xfffff800
    9448:	00024b48 	andeq	r4, r2, r8, asr #22
    944c:	018f0c00 	orreq	r0, pc, r0, lsl #24
    9450:	49050000 	stmdbmi	r5, {}	; <UNPREDICTABLE>
    9454:	0000024b 	andeq	r0, r0, fp, asr #4
    9458:	00000c00 	andeq	r0, r0, r0, lsl #24
    945c:	4a050000 	bmi	149464 <__bss_end__+0x13f43c>
    9460:	0000024b 	andeq	r0, r0, fp, asr #4
    9464:	04451280 	strbeq	r1, [r5], #-640	; 0xfffffd80
    9468:	4c050000 	stcmi	0, cr0, [r5], {-0}
    946c:	0000011e 	andeq	r0, r0, lr, lsl r1
    9470:	29120100 	ldmdbcs	r2, {r8}
    9474:	05000001 	streq	r0, [r0, #-1]
    9478:	00011e4f 	andeq	r1, r1, pc, asr #28
    947c:	00010400 	andeq	r0, r1, r0, lsl #8
    9480:	00010a09 	andeq	r0, r1, r9, lsl #20
    9484:	00025b00 	andeq	r5, r2, r0, lsl #22
    9488:	00cc0a00 	sbceq	r0, ip, r0, lsl #20
    948c:	001f0000 	andseq	r0, pc, r0
    9490:	0002c211 	andeq	ip, r2, r1, lsl r2
    9494:	05019000 	streq	r9, [r1, #-0]
    9498:	0002995b 	andeq	r9, r2, fp, asr r9
    949c:	035d0c00 	cmpeq	sp, #0, 24
    94a0:	5c050000 	stcpl	0, cr0, [r5], {-0}
    94a4:	00000299 	muleq	r0, r9, r2
    94a8:	03750c00 	cmneq	r5, #0, 24
    94ac:	5d050000 	stcpl	0, cr0, [r5, #-0]
    94b0:	00000025 	andeq	r0, r0, r5, lsr #32
    94b4:	01970c04 	orrseq	r0, r7, r4, lsl #24
    94b8:	5f050000 	svcpl	0x00050000
    94bc:	0000029f 	muleq	r0, pc, r2	; <UNPREDICTABLE>
    94c0:	01040c08 	tsteq	r4, r8, lsl #24
    94c4:	60050000 	andvs	r0, r5, r0
    94c8:	0000020b 	andeq	r0, r0, fp, lsl #4
    94cc:	040e0088 	streq	r0, [lr], #-136	; 0xffffff78
    94d0:	0000025b 	andeq	r0, r0, fp, asr r2
    94d4:	0002af09 	andeq	sl, r2, r9, lsl #30
    94d8:	0002af00 	andeq	sl, r2, r0, lsl #30
    94dc:	00cc0a00 	sbceq	r0, ip, r0, lsl #20
    94e0:	001f0000 	andseq	r0, pc, r0
    94e4:	02b5040e 	adcseq	r0, r5, #234881024	; 0xe000000
    94e8:	0f130000 	svceq	0x00130000
    94ec:	00000328 	andeq	r0, r0, r8, lsr #6
    94f0:	db730508 	blle	1cca918 <__bss_end__+0x1cc08f0>
    94f4:	0c000002 	stceq	0, cr0, [r0], {2}
    94f8:	000000be 	strheq	r0, [r0], -lr
    94fc:	02db7405 	sbcseq	r7, fp, #83886080	; 0x5000000
    9500:	0c000000 	stceq	0, cr0, [r0], {-0}
    9504:	0000001b 	andeq	r0, r0, fp, lsl r0
    9508:	00257505 	eoreq	r7, r5, r5, lsl #10
    950c:	00040000 	andeq	r0, r4, r0
    9510:	0054040e 	subseq	r0, r4, lr, lsl #8
    9514:	470f0000 	strmi	r0, [pc, -r0]
    9518:	68000003 	stmdavs	r0, {r0, r1}
    951c:	040bb305 	streq	fp, [fp], #-773	; 0xfffffcfb
    9520:	5f100000 	svcpl	0x00100000
    9524:	b4050070 	strlt	r0, [r5], #-112	; 0xffffff90
    9528:	000002db 	ldrdeq	r0, [r0], -fp
    952c:	725f1000 	subsvc	r1, pc, #0
    9530:	25b50500 	ldrcs	r0, [r5, #1280]!	; 0x500
    9534:	04000000 	streq	r0, [r0], #-0
    9538:	00775f10 	rsbseq	r5, r7, r0, lsl pc
    953c:	0025b605 	eoreq	fp, r5, r5, lsl #12
    9540:	0c080000 	stceq	0, cr0, [r8], {-0}
    9544:	00000122 	andeq	r0, r0, r2, lsr #2
    9548:	003fb705 	eorseq	fp, pc, r5, lsl #14
    954c:	0c0c0000 	stceq	0, cr0, [ip], {-0}
    9550:	0000020b 	andeq	r0, r0, fp, lsl #4
    9554:	003fb805 	eorseq	fp, pc, r5, lsl #16
    9558:	100e0000 	andne	r0, lr, r0
    955c:	0066625f 	rsbeq	r6, r6, pc, asr r2
    9560:	02b6b905 	adcseq	fp, r6, #81920	; 0x14000
    9564:	0c100000 	ldceq	0, cr0, [r0], {-0}
    9568:	0000007b 	andeq	r0, r0, fp, ror r0
    956c:	0025ba05 	eoreq	fp, r5, r5, lsl #20
    9570:	0c180000 	ldceq	0, cr0, [r8], {-0}
    9574:	00000112 	andeq	r0, r0, r2, lsl r1
    9578:	010ac105 	tsteq	sl, r5, lsl #2
    957c:	0c1c0000 	ldceq	0, cr0, [ip], {-0}
    9580:	00000a78 	andeq	r0, r0, r8, ror sl
    9584:	0566c305 	strbeq	ip, [r6, #-773]!	; 0xfffffcfb
    9588:	0c200000 	stceq	0, cr0, [r0], #-0
    958c:	0000060c 	andeq	r0, r0, ip, lsl #12
    9590:	0590c505 	ldreq	ip, [r0, #1285]	; 0x505
    9594:	0c240000 	stceq	0, cr0, [r4], #-0
    9598:	000003b9 			; <UNDEFINED> instruction: 0x000003b9
    959c:	05b4c805 	ldreq	ip, [r4, #2053]!	; 0x805
    95a0:	0c280000 	stceq	0, cr0, [r8], #-0
    95a4:	00000503 	andeq	r0, r0, r3, lsl #10
    95a8:	05cec905 	strbeq	ip, [lr, #2309]	; 0x905
    95ac:	102c0000 	eorne	r0, ip, r0
    95b0:	0062755f 	rsbeq	r7, r2, pc, asr r5
    95b4:	02b6cc05 	adcseq	ip, r6, #1280	; 0x500
    95b8:	10300000 	eorsne	r0, r0, r0
    95bc:	0070755f 	rsbseq	r7, r0, pc, asr r5
    95c0:	02dbcd05 	sbcseq	ip, fp, #320	; 0x140
    95c4:	10380000 	eorsne	r0, r8, r0
    95c8:	0072755f 	rsbseq	r7, r2, pc, asr r5
    95cc:	0025ce05 	eoreq	ip, r5, r5, lsl #28
    95d0:	0c3c0000 	ldceq	0, cr0, [ip], #-0
    95d4:	000000b8 	strheq	r0, [r0], -r8
    95d8:	05d4d105 	ldrbeq	sp, [r4, #261]	; 0x105
    95dc:	0c400000 	mareq	acc0, r0, r0
    95e0:	000004db 	ldrdeq	r0, [r0], -fp
    95e4:	05e4d205 	strbeq	sp, [r4, #517]!	; 0x205
    95e8:	10430000 	subne	r0, r3, r0
    95ec:	00626c5f 	rsbeq	r6, r2, pc, asr ip
    95f0:	02b6d505 	adcseq	sp, r6, #20971520	; 0x1400000
    95f4:	0c440000 	mareq	acc0, r0, r4
    95f8:	00000140 	andeq	r0, r0, r0, asr #2
    95fc:	0025d805 	eoreq	sp, r5, r5, lsl #16
    9600:	0c4c0000 	mareq	acc0, r0, ip
    9604:	00000151 	andeq	r0, r0, r1, asr r1
    9608:	007bd905 	rsbseq	sp, fp, r5, lsl #18
    960c:	0c500000 	mraeq	r0, r0, acc0
    9610:	00000a19 	andeq	r0, r0, r9, lsl sl
    9614:	0429dc05 	strteq	sp, [r9], #-3077	; 0xfffff3fb
    9618:	0c540000 	mraeq	r0, r4, acc0
    961c:	00000284 	andeq	r0, r0, r4, lsl #5
    9620:	00ffe005 	rscseq	lr, pc, r5
    9624:	0c580000 	mraeq	r0, r8, acc0
    9628:	0000034f 	andeq	r0, r0, pc, asr #6
    962c:	00f4e205 	rscseq	lr, r4, r5, lsl #4
    9630:	0c5c0000 	mraeq	r0, ip, acc0
    9634:	0000028a 	andeq	r0, r0, sl, lsl #5
    9638:	0025e305 	eoreq	lr, r5, r5, lsl #6
    963c:	00640000 	rsbeq	r0, r4, r0
    9640:	00002514 	andeq	r2, r0, r4, lsl r5
    9644:	00042900 	andeq	r2, r4, r0, lsl #18
    9648:	04291500 	strteq	r1, [r9], #-1280	; 0xfffffb00
    964c:	0a150000 	beq	549654 <__bss_end__+0x53f62c>
    9650:	15000001 	strne	r0, [r0, #-1]
    9654:	0000010c 	andeq	r0, r0, ip, lsl #2
    9658:	00002515 	andeq	r2, r0, r5, lsl r5
    965c:	040e0000 	streq	r0, [lr], #-0
    9660:	00000434 	andeq	r0, r0, r4, lsr r4
    9664:	00042904 	andeq	r2, r4, r4, lsl #18
    9668:	039c1600 	orrseq	r1, ip, #0, 12
    966c:	04280000 	strteq	r0, [r8], #-0
    9670:	66023805 	strvs	r3, [r2], -r5, lsl #16
    9674:	17000005 	strne	r0, [r0, -r5]
    9678:	0000030d 	andeq	r0, r0, sp, lsl #6
    967c:	25023a05 	strcs	r3, [r2, #-2565]	; 0xfffff5fb
    9680:	00000000 	andeq	r0, r0, r0
    9684:	00013117 	andeq	r3, r1, r7, lsl r1
    9688:	023f0500 	eorseq	r0, pc, #0, 10
    968c:	0000063b 	andeq	r0, r0, fp, lsr r6
    9690:	01fb1704 	mvnseq	r1, r4, lsl #14
    9694:	3f050000 	svccc	0x00050000
    9698:	00063b02 	andeq	r3, r6, r2, lsl #22
    969c:	ab170800 	blge	5cb6a4 <__bss_end__+0x5c167c>
    96a0:	05000001 	streq	r0, [r0, #-1]
    96a4:	063b023f 			; <UNDEFINED> instruction: 0x063b023f
    96a8:	170c0000 	strne	r0, [ip, -r0]
    96ac:	00000370 	andeq	r0, r0, r0, ror r3
    96b0:	25024105 	strcs	r4, [r2, #-261]	; 0xfffffefb
    96b4:	10000000 	andne	r0, r0, r0
    96b8:	00002917 	andeq	r2, r0, r7, lsl r9
    96bc:	02420500 	subeq	r0, r2, #0, 10
    96c0:	0000081d 	andeq	r0, r0, sp, lsl r8
    96c4:	047b1714 	ldrbteq	r1, [fp], #-1812	; 0xfffff8ec
    96c8:	44050000 	strmi	r0, [r5], #-0
    96cc:	00002502 	andeq	r2, r0, r2, lsl #10
    96d0:	7a173000 	bvc	5d56d8 <__bss_end__+0x5cb6b0>
    96d4:	05000003 	streq	r0, [r0, #-3]
    96d8:	058a0245 	streq	r0, [sl, #581]	; 0x245
    96dc:	17340000 	ldrne	r0, [r4, -r0]!
    96e0:	000002ca 	andeq	r0, r0, sl, asr #5
    96e4:	25024705 	strcs	r4, [r2, #-1797]	; 0xfffff8fb
    96e8:	38000000 	stmdacc	r0, {}	; <UNPREDICTABLE>
    96ec:	00038a17 	andeq	r8, r3, r7, lsl sl
    96f0:	02490500 	subeq	r0, r9, #0, 10
    96f4:	00000838 	andeq	r0, r0, r8, lsr r8
    96f8:	0268173c 	rsbeq	r1, r8, #60, 14	; 0xf00000
    96fc:	4c050000 	stcmi	0, cr0, [r5], {-0}
    9700:	00017c02 	andeq	r7, r1, r2, lsl #24
    9704:	ca174000 	bgt	5d970c <__bss_end__+0x5cf6e4>
    9708:	05000001 	streq	r0, [r0, #-1]
    970c:	0025024d 	eoreq	r0, r5, sp, asr #4
    9710:	17440000 	strbne	r0, [r4, -r0]
    9714:	0000051d 	andeq	r0, r0, sp, lsl r5
    9718:	7c024e05 	stcvc	14, cr4, [r2], {5}
    971c:	48000001 	stmdami	r0, {r0}
    9720:	0002dc17 	andeq	sp, r2, r7, lsl ip
    9724:	024f0500 	subeq	r0, pc, #0, 10
    9728:	0000083e 	andeq	r0, r0, lr, lsr r8
    972c:	0203174c 	andeq	r1, r3, #76, 14	; 0x1300000
    9730:	52050000 	andpl	r0, r5, #0
    9734:	00002502 	andeq	r2, r0, r2, lsl #10
    9738:	49175000 	ldmdbmi	r7, {ip, lr}
    973c:	05000001 	streq	r0, [r0, #-1]
    9740:	010c0253 	tsteq	ip, r3, asr r2
    9744:	17540000 	ldrbne	r0, [r4, -r0]
    9748:	00000306 	andeq	r0, r0, r6, lsl #6
    974c:	fb027605 	blx	a6f6a <__bss_end__+0x9cf42>
    9750:	58000007 	stmdapl	r0, {r0, r1, r2}
    9754:	0002c218 	andeq	ip, r2, r8, lsl r2
    9758:	027a0500 	rsbseq	r0, sl, #0, 10
    975c:	00000299 	muleq	r0, r9, r2
    9760:	46180148 	ldrmi	r0, [r8], -r8, asr #2
    9764:	05000002 	streq	r0, [r0, #-2]
    9768:	025b027b 	subseq	r0, fp, #-1342177273	; 0xb0000007
    976c:	014c0000 	mrseq	r0, (UNDEF: 76)
    9770:	0004c918 	andeq	ip, r4, r8, lsl r9
    9774:	027f0500 	rsbseq	r0, pc, #0, 10
    9778:	0000084f 	andeq	r0, r0, pc, asr #16
    977c:	1a1802dc 	bne	60a2f4 <__bss_end__+0x6002cc>
    9780:	05000001 	streq	r0, [r0, #-1]
    9784:	06000284 	streq	r0, [r0], -r4, lsl #5
    9788:	02e00000 	rsceq	r0, r0, #0
    978c:	0000ff18 	andeq	pc, r0, r8, lsl pc	; <UNPREDICTABLE>
    9790:	02850500 	addeq	r0, r5, #0, 10
    9794:	0000085b 	andeq	r0, r0, fp, asr r8
    9798:	0e0002ec 	cdpeq	2, 0, cr0, cr0, cr12, {7}
    979c:	00040b04 	andeq	r0, r4, r4, lsl #22
    97a0:	00251400 	eoreq	r1, r5, r0, lsl #8
    97a4:	058a0000 	streq	r0, [sl]
    97a8:	29150000 	ldmdbcs	r5, {}	; <UNPREDICTABLE>
    97ac:	15000004 	strne	r0, [r0, #-4]
    97b0:	0000010a 	andeq	r0, r0, sl, lsl #2
    97b4:	00058a15 	andeq	r8, r5, r5, lsl sl
    97b8:	00251500 	eoreq	r1, r5, r0, lsl #10
    97bc:	0e000000 	cdpeq	0, 0, cr0, cr0, cr0, {0}
    97c0:	00011904 	andeq	r1, r1, r4, lsl #18
    97c4:	6c040e00 	stcvs	14, cr0, [r4], {-0}
    97c8:	14000005 	strne	r0, [r0], #-5
    97cc:	00000086 	andeq	r0, r0, r6, lsl #1
    97d0:	000005b4 			; <UNDEFINED> instruction: 0x000005b4
    97d4:	00042915 	andeq	r2, r4, r5, lsl r9
    97d8:	010a1500 	tsteq	sl, r0, lsl #10
    97dc:	86150000 	ldrhi	r0, [r5], -r0
    97e0:	15000000 	strne	r0, [r0, #-0]
    97e4:	00000025 	andeq	r0, r0, r5, lsr #32
    97e8:	96040e00 	strls	r0, [r4], -r0, lsl #28
    97ec:	14000005 	strne	r0, [r0], #-5
    97f0:	00000025 	andeq	r0, r0, r5, lsr #32
    97f4:	000005ce 	andeq	r0, r0, lr, asr #11
    97f8:	00042915 	andeq	r2, r4, r5, lsl r9
    97fc:	010a1500 	tsteq	sl, r0, lsl #10
    9800:	0e000000 	cdpeq	0, 0, cr0, cr0, cr0, {0}
    9804:	0005ba04 	andeq	fp, r5, r4, lsl #20
    9808:	00540900 	subseq	r0, r4, r0, lsl #18
    980c:	05e40000 	strbeq	r0, [r4, #0]!
    9810:	cc0a0000 	stcgt	0, cr0, [sl], {-0}
    9814:	02000000 	andeq	r0, r0, #0
    9818:	00540900 	subseq	r0, r4, r0, lsl #18
    981c:	05f40000 	ldrbeq	r0, [r4, #0]!
    9820:	cc0a0000 	stcgt	0, cr0, [sl], {-0}
    9824:	00000000 	andeq	r0, r0, r0
    9828:	03350600 	teqeq	r5, #0, 12
    982c:	1d050000 	stcne	0, cr0, [r5, #-0]
    9830:	0002e101 	andeq	lr, r2, r1, lsl #2
    9834:	04b01900 	ldrteq	r1, [r0], #2304	; 0x900
    9838:	050c0000 	streq	r0, [ip, #-0]
    983c:	06350121 	ldrteq	r0, [r5], -r1, lsr #2
    9840:	5d170000 	ldcpl	0, cr0, [r7, #-0]
    9844:	05000003 	streq	r0, [r0, #-3]
    9848:	06350123 	ldrteq	r0, [r5], -r3, lsr #2
    984c:	17000000 	strne	r0, [r0, -r0]
    9850:	0000021e 	andeq	r0, r0, lr, lsl r2
    9854:	25012405 	strcs	r2, [r1, #-1029]	; 0xfffffbfb
    9858:	04000000 	streq	r0, [r0], #-0
    985c:	00032f17 	andeq	r2, r3, r7, lsl pc
    9860:	01250500 			; <UNDEFINED> instruction: 0x01250500
    9864:	0000063b 	andeq	r0, r0, fp, lsr r6
    9868:	040e0008 	streq	r0, [lr], #-8
    986c:	00000600 	andeq	r0, r0, r0, lsl #12
    9870:	05f4040e 	ldrbeq	r0, [r4, #1038]!	; 0x40e
    9874:	21190000 	tstcs	r9, r0
    9878:	0e000000 	cdpeq	0, 0, cr0, cr0, cr0, {0}
    987c:	76013d05 	strvc	r3, [r1], -r5, lsl #26
    9880:	17000006 	strne	r0, [r0, -r6]
    9884:	000003a3 	andeq	r0, r0, r3, lsr #7
    9888:	76013e05 	strvc	r3, [r1], -r5, lsl #28
    988c:	00000006 	andeq	r0, r0, r6
    9890:	0003d017 	andeq	sp, r3, r7, lsl r0
    9894:	013f0500 	teqeq	pc, r0, lsl #10
    9898:	00000676 	andeq	r0, r0, r6, ror r6
    989c:	044e1706 	strbeq	r1, [lr], #-1798	; 0xfffff8fa
    98a0:	40050000 	andmi	r0, r5, r0
    98a4:	00005b01 	andeq	r5, r0, r1, lsl #22
    98a8:	09000c00 	stmdbeq	r0, {sl, fp}
    98ac:	0000005b 	andeq	r0, r0, fp, asr r0
    98b0:	00000686 	andeq	r0, r0, r6, lsl #13
    98b4:	0000cc0a 	andeq	ip, r0, sl, lsl #24
    98b8:	1a000200 	bne	a0c0 <__bss_end__+0x98>
    98bc:	025705d0 	subseq	r0, r7, #208, 10	; 0x34000000
    98c0:	00000787 	andeq	r0, r0, r7, lsl #15
    98c4:	00049417 	andeq	r9, r4, r7, lsl r4
    98c8:	02590500 	subseq	r0, r9, #0, 10
    98cc:	0000002c 	andeq	r0, r0, ip, lsr #32
    98d0:	04381700 	ldrteq	r1, [r8], #-1792	; 0xfffff900
    98d4:	5a050000 	bpl	1498dc <__bss_end__+0x13f8b4>
    98d8:	00010c02 	andeq	r0, r1, r2, lsl #24
    98dc:	5b170400 	blpl	5ca8e4 <__bss_end__+0x5c08bc>
    98e0:	05000002 	streq	r0, [r0, #-2]
    98e4:	0787025b 			; <UNDEFINED> instruction: 0x0787025b
    98e8:	17080000 	strne	r0, [r8, -r0]
    98ec:	000004f4 	strdeq	r0, [r0], -r4
    98f0:	92025c05 	andls	r5, r2, #1280	; 0x500
    98f4:	24000001 	strcs	r0, [r0], #-1
    98f8:	0001bb17 	andeq	fp, r1, r7, lsl fp
    98fc:	025d0500 	subseq	r0, sp, #0, 10
    9900:	00000025 	andeq	r0, r0, r5, lsr #32
    9904:	03581748 	cmpeq	r8, #72, 14	; 0x1200000
    9908:	5e050000 	cdppl	0, 0, cr0, cr5, cr0, {0}
    990c:	00006902 	andeq	r6, r0, r2, lsl #18
    9910:	0a175000 	beq	5dd918 <__bss_end__+0x5d38f0>
    9914:	05000005 	streq	r0, [r0, #-5]
    9918:	0641025f 			; <UNDEFINED> instruction: 0x0641025f
    991c:	17580000 	ldrbne	r0, [r8, -r0]
    9920:	00000363 	andeq	r0, r0, r3, ror #6
    9924:	f4026005 	vst4.8	{d6-d9}, [r2], r5
    9928:	68000000 	stmdavs	r0, {}	; <UNPREDICTABLE>
    992c:	00050f17 	andeq	r0, r5, r7, lsl pc
    9930:	02610500 	rsbeq	r0, r1, #0, 10
    9934:	000000f4 	strdeq	r0, [r0], -r4
    9938:	00931770 	addseq	r1, r3, r0, ror r7
    993c:	62050000 	andvs	r0, r5, #0
    9940:	0000f402 	andeq	pc, r0, r2, lsl #8
    9944:	bf177800 	svclt	0x00177800
    9948:	05000004 	streq	r0, [r0, #-4]
    994c:	07970263 	ldreq	r0, [r7, r3, ror #4]
    9950:	17800000 	strne	r0, [r0, r0]
    9954:	0000024f 	andeq	r0, r0, pc, asr #4
    9958:	a7026405 	strge	r6, [r2, -r5, lsl #8]
    995c:	88000007 	stmdahi	r0, {r0, r1, r2}
    9960:	00045b17 	andeq	r5, r4, r7, lsl fp
    9964:	02650500 	rsbeq	r0, r5, #0, 10
    9968:	00000025 	andeq	r0, r0, r5, lsr #32
    996c:	018117a0 	orreq	r1, r1, r0, lsr #15
    9970:	66050000 	strvs	r0, [r5], -r0
    9974:	0000f402 	andeq	pc, r0, r2, lsl #8
    9978:	8417a400 	ldrhi	sl, [r7], #-1024	; 0xfffffc00
    997c:	05000000 	streq	r0, [r0, #-0]
    9980:	00f40267 	rscseq	r0, r4, r7, ror #4
    9984:	17ac0000 	strne	r0, [ip, r0]!
    9988:	00000170 	andeq	r0, r0, r0, ror r1
    998c:	f4026805 	vst2.8	{d6-d7}, [r2], r5
    9990:	b4000000 	strlt	r0, [r0], #-0
    9994:	00003c17 	andeq	r3, r0, r7, lsl ip
    9998:	02690500 	rsbeq	r0, r9, #0, 10
    999c:	000000f4 	strdeq	r0, [r0], -r4
    99a0:	004b17bc 	strheq	r1, [fp], #-124	; 0xffffff84
    99a4:	6a050000 	bvs	1499ac <__bss_end__+0x13f984>
    99a8:	0000f402 	andeq	pc, r0, r2, lsl #8
    99ac:	0b17c400 	bleq	5fa9b4 <__bss_end__+0x5f098c>
    99b0:	05000003 	streq	r0, [r0, #-3]
    99b4:	0025026b 	eoreq	r0, r5, fp, ror #4
    99b8:	00cc0000 	sbceq	r0, ip, r0
    99bc:	00011209 	andeq	r1, r1, r9, lsl #4
    99c0:	00079700 	andeq	r9, r7, r0, lsl #14
    99c4:	00cc0a00 	sbceq	r0, ip, r0, lsl #20
    99c8:	00190000 	andseq	r0, r9, r0
    99cc:	00011209 	andeq	r1, r1, r9, lsl #4
    99d0:	0007a700 	andeq	sl, r7, r0, lsl #14
    99d4:	00cc0a00 	sbceq	r0, ip, r0, lsl #20
    99d8:	00070000 	andeq	r0, r7, r0
    99dc:	00011209 	andeq	r1, r1, r9, lsl #4
    99e0:	0007b700 	andeq	fp, r7, r0, lsl #14
    99e4:	00cc0a00 	sbceq	r0, ip, r0, lsl #20
    99e8:	00170000 	andseq	r0, r7, r0
    99ec:	7005f01a 	andvc	pc, r5, sl, lsl r0	; <UNPREDICTABLE>
    99f0:	0007db02 	andeq	sp, r7, r2, lsl #22
    99f4:	02b21700 	adcseq	r1, r2, #0, 14
    99f8:	73050000 	movwvc	r0, #20480	; 0x5000
    99fc:	0007db02 	andeq	sp, r7, r2, lsl #22
    9a00:	b6170000 	ldrlt	r0, [r7], -r0
    9a04:	05000004 	streq	r0, [r0, #-4]
    9a08:	07eb0274 			; <UNDEFINED> instruction: 0x07eb0274
    9a0c:	00780000 	rsbseq	r0, r8, r0
    9a10:	0002db09 	andeq	sp, r2, r9, lsl #22
    9a14:	0007eb00 	andeq	lr, r7, r0, lsl #22
    9a18:	00cc0a00 	sbceq	r0, ip, r0, lsl #20
    9a1c:	001d0000 	andseq	r0, sp, r0
    9a20:	00002c09 	andeq	r2, r0, r9, lsl #24
    9a24:	0007fb00 	andeq	pc, r7, r0, lsl #22
    9a28:	00cc0a00 	sbceq	r0, ip, r0, lsl #20
    9a2c:	001d0000 	andseq	r0, sp, r0
    9a30:	5505f01b 	strpl	pc, [r5, #-27]	; 0xffffffe5
    9a34:	00081d02 	andeq	r1, r8, r2, lsl #26
    9a38:	039c1c00 	orrseq	r1, ip, #0, 24
    9a3c:	6c050000 	stcvs	0, cr0, [r5], {-0}
    9a40:	00068602 	andeq	r8, r6, r2, lsl #12
    9a44:	04e11c00 	strbteq	r1, [r1], #3072	; 0xc00
    9a48:	75050000 	strvc	r0, [r5, #-0]
    9a4c:	0007b702 	andeq	fp, r7, r2, lsl #14
    9a50:	12090000 	andne	r0, r9, #0
    9a54:	2d000001 	stccs	0, cr0, [r0, #-4]
    9a58:	0a000008 	beq	9a80 <__FUNCTION__.4303+0x7c>
    9a5c:	000000cc 	andeq	r0, r0, ip, asr #1
    9a60:	381d0018 	ldmdacc	sp, {r3, r4}
    9a64:	15000008 	strne	r0, [r0, #-8]
    9a68:	00000429 	andeq	r0, r0, r9, lsr #8
    9a6c:	2d040e00 	stccs	14, cr0, [r4, #-0]
    9a70:	0e000008 	cdpeq	0, 0, cr0, cr0, cr8, {0}
    9a74:	00017c04 	andeq	r7, r1, r4, lsl #24
    9a78:	084f1d00 	stmdaeq	pc, {r8, sl, fp, ip}^	; <UNPREDICTABLE>
    9a7c:	25150000 	ldrcs	r0, [r5, #-0]
    9a80:	00000000 	andeq	r0, r0, r0
    9a84:	0855040e 	ldmdaeq	r5, {r1, r2, r3, sl}^
    9a88:	040e0000 	streq	r0, [lr], #-0
    9a8c:	00000844 	andeq	r0, r0, r4, asr #16
    9a90:	0005f409 	andeq	pc, r5, r9, lsl #8
    9a94:	00086b00 	andeq	r6, r8, r0, lsl #22
    9a98:	00cc0a00 	sbceq	r0, ip, r0, lsl #20
    9a9c:	00020000 	andeq	r0, r2, r0
    9aa0:	00046f1e 	andeq	r6, r4, lr, lsl pc
    9aa4:	02fd0500 	rscseq	r0, sp, #0, 10
    9aa8:	00000429 	andeq	r0, r0, r9, lsr #8
    9aac:	0004681e 	andeq	r6, r4, lr, lsl r8
    9ab0:	02fe0500 	rscseq	r0, lr, #0, 10
    9ab4:	0000042f 	andeq	r0, r0, pc, lsr #8
    9ab8:	00002514 	andeq	r2, r0, r4, lsl r5
    9abc:	00089200 	andeq	r9, r8, r0, lsl #4
    9ac0:	00251500 	eoreq	r1, r5, r0, lsl #10
    9ac4:	1f000000 	svcne	0x00000000
    9ac8:	000001d4 	ldrdeq	r0, [r0], -r4
    9acc:	089d1d06 	ldmeq	sp, {r1, r2, r8, sl, fp, ip}
    9ad0:	040e0000 	streq	r0, [lr], #-0
    9ad4:	00000883 	andeq	r0, r0, r3, lsl #17
    9ad8:	00002514 	andeq	r2, r0, r4, lsl r5
    9adc:	0008b200 	andeq	fp, r8, r0, lsl #4
    9ae0:	058a1500 	streq	r1, [sl, #1280]	; 0x500
    9ae4:	1f000000 	svcne	0x00000000
    9ae8:	00000769 	andeq	r0, r0, r9, ror #14
    9aec:	08bd2206 	popeq	{r1, r2, r9, sp}
    9af0:	040e0000 	streq	r0, [lr], #-0
    9af4:	000008a3 	andeq	r0, r0, r3, lsr #17
    9af8:	00540120 	subseq	r0, r4, r0, lsr #2
    9afc:	0c070000 	stceq	0, cr0, [r7], {-0}
    9b00:	00000900 	andeq	r0, r0, r0, lsl #18
    9b04:	00090a21 	andeq	r0, r9, r1, lsr #20
    9b08:	e4210000 	strt	r0, [r1], #-0
    9b0c:	01000009 	tsteq	r0, r9
    9b10:	000a1f21 	andeq	r1, sl, r1, lsr #30
    9b14:	1f210400 	svcne	0x00210400
    9b18:	05000009 	streq	r0, [r0, #-9]
    9b1c:	0009ab21 	andeq	sl, r9, r1, lsr #22
    9b20:	2e210600 	cfmadda32cs	mvax0, mvax0, mvfx1, mvfx0
    9b24:	0700000a 	streq	r0, [r0, -sl]
    9b28:	000a3d21 	andeq	r3, sl, r1, lsr #26
    9b2c:	4c210300 	stcmi	3, cr0, [r1], #-0
    9b30:	0200000a 	andeq	r0, r0, #10
    9b34:	0ac80500 	beq	ff20af3c <__bss_end__+0xff200f14>
    9b38:	15070000 	strne	r0, [r7, #-0]
    9b3c:	000008c3 	andeq	r0, r0, r3, asr #17
    9b40:	000a9922 	andeq	r9, sl, r2, lsr #18
    9b44:	331d0100 	tstcc	sp, #0, 2
    9b48:	1c000000 	stcne	0, cr0, [r0], {-0}
    9b4c:	22202000 	eorcs	r2, r0, #0
    9b50:	00000ad4 	ldrdeq	r0, [r0], -r4
    9b54:	00331e01 	eorseq	r1, r3, r1, lsl #28
    9b58:	00280000 	eoreq	r0, r8, r0
    9b5c:	a3222020 			; <UNDEFINED> instruction: 0xa3222020
    9b60:	0100000a 	tsteq	r0, sl
    9b64:	0000331f 	andeq	r3, r0, pc, lsl r3
    9b68:	20003400 	andcs	r3, r0, r0, lsl #8
    9b6c:	0a742320 	beq	1d127f4 <__bss_end__+0x1d087cc>
    9b70:	56010000 	strpl	r0, [r1], -r0
    9b74:	00000025 	andeq	r0, r0, r5, lsr #32
    9b78:	0000947c 	andeq	r9, r0, ip, ror r4
    9b7c:	00000034 	andeq	r0, r0, r4, lsr r0
    9b80:	09989c01 	ldmibeq	r8, {r0, sl, fp, ip, pc}
    9b84:	70240000 	eorvc	r0, r4, r0
    9b88:	01006e69 	tsteq	r0, r9, ror #28
    9b8c:	00002c56 	andeq	r2, r0, r6, asr ip
    9b90:	00116b00 	andseq	r6, r1, r0, lsl #22
    9b94:	0a682500 	beq	1a12f9c <__bss_end__+0x1a08f74>
    9b98:	59010000 	stmdbpl	r1, {}	; <UNPREDICTABLE>
    9b9c:	0000002c 	andeq	r0, r0, ip, lsr #32
    9ba0:	000011a5 	andeq	r1, r0, r5, lsr #3
    9ba4:	66666f26 	strbtvs	r6, [r6], -r6, lsr #30
    9ba8:	2c5a0100 	ldfcse	f0, [sl], {-0}
    9bac:	e3000000 	movw	r0, #0
    9bb0:	27000011 	smladcs	r0, r1, r0, r0
    9bb4:	00009498 	muleq	r0, r8, r4
    9bb8:	00000b5d 	andeq	r0, r0, sp, asr fp
    9bbc:	0b500128 	bleq	140a064 <__bss_end__+0x140003c>
    9bc0:	355001f3 	ldrbcc	r0, [r0, #-499]	; 0xfffffe0d
    9bc4:	80b42325 	adcshi	r2, r4, r5, lsr #6
    9bc8:	00028180 	andeq	r8, r2, r0, lsl #3
    9bcc:	0a8e2900 	beq	fe393fd4 <__bss_end__+0xfe389fac>
    9bd0:	4f010000 	svcmi	0x00010000
    9bd4:	00009460 	andeq	r9, r0, r0, ror #8
    9bd8:	0000001c 	andeq	r0, r0, ip, lsl r0
    9bdc:	09e89c01 	stmibeq	r8!, {r0, sl, fp, ip, pc}^
    9be0:	70240000 	eorvc	r0, r4, r0
    9be4:	01006e69 	tsteq	r0, r9, ror #28
    9be8:	00002c4f 	andeq	r2, r0, pc, asr #24
    9bec:	0011f600 	andseq	pc, r1, r0, lsl #12
    9bf0:	00762400 	rsbseq	r2, r6, r0, lsl #8
    9bf4:	002c4f01 	eoreq	r4, ip, r1, lsl #30
    9bf8:	12300000 	eorsne	r0, r0, #0
    9bfc:	702a0000 	eorvc	r0, sl, r0
    9c00:	23000094 	movwcs	r0, #148	; 0x94
    9c04:	de00000a 	cdple	0, 0, cr0, cr0, cr10, {0}
    9c08:	28000009 	stmdacs	r0, {r0, r3}
    9c0c:	f3035001 	vhadd.u8	d5, d3, d1
    9c10:	2b005001 	blcs	1dc1c <__bss_end__+0x13bf4>
    9c14:	00009478 	andeq	r9, r0, r8, ror r4
    9c18:	00000a64 	andeq	r0, r0, r4, ror #20
    9c1c:	0aad2900 	beq	feb54024 <__bss_end__+0xfeb49ffc>
    9c20:	4a010000 	bmi	49c28 <__bss_end__+0x3fc00>
    9c24:	00009450 	andeq	r9, r0, r0, asr r4
    9c28:	00000010 	andeq	r0, r0, r0, lsl r0
    9c2c:	0a239c01 	beq	8f0c38 <__bss_end__+0x8e6c10>
    9c30:	70240000 	eorvc	r0, r4, r0
    9c34:	01006e69 	tsteq	r0, r9, ror #28
    9c38:	00002c4a 	andeq	r2, r0, sl, asr #24
    9c3c:	00126a00 	andseq	r6, r2, r0, lsl #20
    9c40:	945c2700 	ldrbls	r2, [ip], #-1792	; 0xfffff900
    9c44:	0ae00000 	beq	ff809c4c <__bss_end__+0xff7ffc24>
    9c48:	01280000 			; <UNDEFINED> instruction: 0x01280000
    9c4c:	01f30350 	mvnseq	r0, r0, asr r3
    9c50:	51012850 	tstpl	r1, r0, asr r8
    9c54:	00003001 	andeq	r3, r0, r1
    9c58:	000a5b29 	andeq	r5, sl, r9, lsr #22
    9c5c:	2c430100 	stfcse	f0, [r3], {-0}
    9c60:	24000094 	strcs	r0, [r0], #-148	; 0xffffff6c
    9c64:	01000000 	mrseq	r0, (UNDEF: 0)
    9c68:	000a649c 	muleq	sl, ip, r4
    9c6c:	69702400 	ldmdbvs	r0!, {sl, sp}^
    9c70:	4301006e 	movwmi	r0, #4206	; 0x106e
    9c74:	0000002c 	andeq	r0, r0, ip, lsr #32
    9c78:	0000128b 	andeq	r1, r0, fp, lsl #5
    9c7c:	00944827 	addseq	r4, r4, r7, lsr #16
    9c80:	000b6800 	andeq	r6, fp, r0, lsl #16
    9c84:	50012800 	andpl	r2, r1, r0, lsl #16
    9c88:	00280c05 	eoreq	r0, r8, r5, lsl #24
    9c8c:	01282020 			; <UNDEFINED> instruction: 0x01282020
    9c90:	f3310551 	vqrshl.u64	q0, <illegal reg q0.5>, <illegal reg q0.5>
    9c94:	00245001 	eoreq	r5, r4, r1
    9c98:	0abc2900 	beq	fef140a0 <__bss_end__+0xfef0a078>
    9c9c:	3c010000 	stccc	0, cr0, [r1], {-0}
    9ca0:	00009408 	andeq	r9, r0, r8, lsl #8
    9ca4:	00000024 	andeq	r0, r0, r4, lsr #32
    9ca8:	0aa59c01 	beq	fe970cb4 <__bss_end__+0xfe966c8c>
    9cac:	70240000 	eorvc	r0, r4, r0
    9cb0:	01006e69 	tsteq	r0, r9, ror #28
    9cb4:	00002c3c 	andeq	r2, r0, ip, lsr ip
    9cb8:	0012ac00 	andseq	sl, r2, r0, lsl #24
    9cbc:	94242700 	strtls	r2, [r4], #-1792	; 0xfffff900
    9cc0:	0b680000 	bleq	1a09cc8 <__bss_end__+0x19ffca0>
    9cc4:	01280000 			; <UNDEFINED> instruction: 0x01280000
    9cc8:	1c0c0550 	cfstr32ne	mvfx0, [ip], {80}	; 0x50
    9ccc:	28202000 	stmdacs	r0!, {sp}
    9cd0:	31055101 	tstcc	r5, r1, lsl #2
    9cd4:	245001f3 	ldrbcs	r0, [r0], #-499	; 0xfffffe0d
    9cd8:	7e290000 	cdpvc	0, 2, cr0, cr9, cr0, {0}
    9cdc:	0100000a 	tsteq	r0, sl
    9ce0:	0093f837 	addseq	pc, r3, r7, lsr r8	; <UNPREDICTABLE>
    9ce4:	00001000 	andeq	r1, r0, r0
    9ce8:	e09c0100 	adds	r0, ip, r0, lsl #2
    9cec:	2400000a 	strcs	r0, [r0], #-10
    9cf0:	006e6970 	rsbeq	r6, lr, r0, ror r9
    9cf4:	002c3701 	eoreq	r3, ip, r1, lsl #14
    9cf8:	12cd0000 	sbcne	r0, sp, #0
    9cfc:	04270000 	strteq	r0, [r7], #-0
    9d00:	e0000094 	mul	r0, r4, r0
    9d04:	2800000a 	stmdacs	r0, {r1, r3}
    9d08:	f3035001 	vhadd.u8	d5, d3, d1
    9d0c:	01285001 			; <UNDEFINED> instruction: 0x01285001
    9d10:	00310151 	eorseq	r0, r1, r1, asr r1
    9d14:	09ba2900 	ldmibeq	sl!, {r8, fp, sp}
    9d18:	28010000 	stmdacs	r1, {}	; <UNPREDICTABLE>
    9d1c:	00009390 	muleq	r0, r0, r3
    9d20:	00000068 	andeq	r0, r0, r8, rrx
    9d24:	0b5d9c01 	bleq	1770d30 <__bss_end__+0x1766d08>
    9d28:	70240000 	eorvc	r0, r4, r0
    9d2c:	01006e69 	tsteq	r0, r9, ror #28
    9d30:	00002c28 	andeq	r2, r0, r8, lsr #24
    9d34:	0012ee00 	andseq	lr, r2, r0, lsl #28
    9d38:	04ce2c00 	strbeq	r2, [lr], #3072	; 0xc00
    9d3c:	28010000 	stmdacs	r1, {}	; <UNPREDICTABLE>
    9d40:	00000900 	andeq	r0, r0, r0, lsl #18
    9d44:	0000130f 	andeq	r1, r0, pc, lsl #6
    9d48:	66666f2d 	strbtvs	r6, [r6], -sp, lsr #30
    9d4c:	2c2d0100 	stfcss	f0, [sp], #-0
    9d50:	01000000 	mrseq	r0, (UNDEF: 0)
    9d54:	00672d54 	rsbeq	r2, r7, r4, asr sp
    9d58:	002c2f01 	eoreq	r2, ip, r1, lsl #30
    9d5c:	56010000 	strpl	r0, [r1], -r0
    9d60:	01007626 	tsteq	r0, r6, lsr #12
    9d64:	00002c31 	andeq	r2, r0, r1, lsr ip
    9d68:	00133000 	andseq	r3, r3, r0
    9d6c:	93dc2a00 	bicsls	r2, ip, #0, 20
    9d70:	0b5d0000 	bleq	1749d78 <__bss_end__+0x173fd50>
    9d74:	0b4c0000 	bleq	1309d7c <__bss_end__+0x12ffd54>
    9d78:	01280000 			; <UNDEFINED> instruction: 0x01280000
    9d7c:	00760250 	rsbseq	r0, r6, r0, asr r2
    9d80:	93f02700 	mvnsls	r2, #0, 14
    9d84:	0b680000 	bleq	1a09d8c <__bss_end__+0x19ffd64>
    9d88:	01280000 			; <UNDEFINED> instruction: 0x01280000
    9d8c:	00760250 	rsbseq	r0, r6, r0, asr r2
    9d90:	de2e0000 	cdple	0, 2, cr0, cr14, cr0, {0}
    9d94:	de000008 	cdple	0, 0, cr0, cr0, cr8, {0}
    9d98:	06000008 	streq	r0, [r0], -r8
    9d9c:	080b2ea7 	stmdaeq	fp, {r0, r1, r2, r5, r7, r9, sl, fp, sp}
    9da0:	080b0000 	stmdaeq	fp, {}	; <UNPREDICTABLE>
    9da4:	9b060000 	blls	189dac <__bss_end__+0x17fd84>
    9da8:	000c2400 	andeq	r2, ip, r0, lsl #8
    9dac:	8f000400 	svchi	0x00000400
    9db0:	0400001e 	streq	r0, [r0], #-30	; 0xffffffe2
    9db4:	0003d601 	andeq	sp, r3, r1, lsl #12
    9db8:	0ade0c00 	beq	ff78cdc0 <__bss_end__+0xff782d98>
    9dbc:	09460000 	stmdbeq	r6, {}^	; <UNPREDICTABLE>
    9dc0:	94b00000 	ldrtls	r0, [r0], #0
    9dc4:	01940000 	orrseq	r0, r4, r0
    9dc8:	10260000 	eorne	r0, r6, r0
    9dcc:	04020000 	streq	r0, [r2], #-0
    9dd0:	746e6905 	strbtvc	r6, [lr], #-2309	; 0xfffff6fb
    9dd4:	07040300 	streq	r0, [r4, -r0, lsl #6]
    9dd8:	00000066 	andeq	r0, r0, r6, rrx
    9ddc:	fa060103 	blx	18a1f0 <__bss_end__+0x1801c8>
    9de0:	03000002 	movweq	r0, #2
    9de4:	03140502 	tsteq	r4, #8388608	; 0x800000
    9de8:	04030000 	streq	r0, [r3], #-0
    9dec:	0000af05 	andeq	sl, r0, r5, lsl #30
    9df0:	05080300 	streq	r0, [r8, #-768]	; 0xfffffd00
    9df4:	000000aa 	andeq	r0, r0, sl, lsr #1
    9df8:	f8080103 			; <UNDEFINED> instruction: 0xf8080103
    9dfc:	03000002 	movweq	r0, #2
    9e00:	02250702 	eoreq	r0, r5, #524288	; 0x80000
    9e04:	04030000 	streq	r0, [r3], #-0
    9e08:	00006107 	andeq	r6, r0, r7, lsl #2
    9e0c:	07080300 	streq	r0, [r8, -r0, lsl #6]
    9e10:	0000005c 	andeq	r0, r0, ip, asr r0
    9e14:	0002e604 	andeq	lr, r2, r4, lsl #12
    9e18:	25070200 	strcs	r0, [r7, #-512]	; 0xfffffe00
    9e1c:	04000000 	streq	r0, [r0], #-0
    9e20:	000002d5 	ldrdeq	r0, [r0], -r5
    9e24:	00412c03 	subeq	r2, r1, r3, lsl #24
    9e28:	bf040000 	svclt	0x00040000
    9e2c:	03000003 	movweq	r0, #3
    9e30:	00004172 	andeq	r4, r0, r2, ror r1
    9e34:	02760500 	rsbseq	r0, r6, #0, 10
    9e38:	65040000 	strvs	r0, [r4, #-0]
    9e3c:	00002c01 	andeq	r2, r0, r1, lsl #24
    9e40:	03040600 	movweq	r0, #17920	; 0x4600
    9e44:	0000b7a6 	andeq	fp, r0, r6, lsr #15
    9e48:	02700700 	rsbseq	r0, r0, #0, 14
    9e4c:	a8030000 	stmdage	r3, {}	; <UNPREDICTABLE>
    9e50:	0000008c 	andeq	r0, r0, ip, lsl #1
    9e54:	0001e507 	andeq	lr, r1, r7, lsl #10
    9e58:	b7a90300 	strlt	r0, [r9, r0, lsl #6]!
    9e5c:	00000000 	andeq	r0, r0, r0
    9e60:	00004f08 	andeq	r4, r0, r8, lsl #30
    9e64:	0000c700 	andeq	ip, r0, r0, lsl #14
    9e68:	00c70900 	sbceq	r0, r7, r0, lsl #18
    9e6c:	00030000 	andeq	r0, r3, r0
    9e70:	a9070403 	stmdbge	r7, {r0, r1, sl}
    9e74:	0a000002 	beq	9e84 <buf.4229+0x25c>
    9e78:	efa30308 	svc	0x00a30308
    9e7c:	0b000000 	bleq	9e84 <buf.4229+0x25c>
    9e80:	000003a9 	andeq	r0, r0, r9, lsr #7
    9e84:	0025a503 	eoreq	sl, r5, r3, lsl #10
    9e88:	0b000000 	bleq	9e90 <buf.4229+0x268>
    9e8c:	000003b1 			; <UNDEFINED> instruction: 0x000003b1
    9e90:	0098aa03 	addseq	sl, r8, r3, lsl #20
    9e94:	00040000 	andeq	r0, r4, r0
    9e98:	00033c04 	andeq	r3, r3, r4, lsl #24
    9e9c:	ceab0300 	cdpgt	3, 10, cr0, cr11, cr0, {0}
    9ea0:	04000000 	streq	r0, [r0], #-0
    9ea4:	000001a2 	andeq	r0, r0, r2, lsr #3
    9ea8:	006baf03 	rsbeq	sl, fp, r3, lsl #30
    9eac:	040c0000 	streq	r0, [ip], #-0
    9eb0:	010d040d 	tsteq	sp, sp, lsl #8
    9eb4:	01030000 	mrseq	r0, (UNDEF: 3)
    9eb8:	00030108 	andeq	r0, r3, r8, lsl #2
    9ebc:	010d0e00 	tsteq	sp, r0, lsl #28
    9ec0:	53040000 	movwpl	r0, #16384	; 0x4000
    9ec4:	05000004 	streq	r0, [r0, #-4]
    9ec8:	00005d16 	andeq	r5, r0, r6, lsl sp
    9ecc:	01b30f00 			; <UNDEFINED> instruction: 0x01b30f00
    9ed0:	05180000 	ldreq	r0, [r8, #-0]
    9ed4:	0001772d 	andeq	r7, r1, sp, lsr #14
    9ed8:	035d0b00 	cmpeq	sp, #0, 22
    9edc:	2f050000 	svccs	0x00050000
    9ee0:	00000177 	andeq	r0, r0, r7, ror r1
    9ee4:	6b5f1000 	blvs	17cdeec <__bss_end__+0x17c3ec4>
    9ee8:	25300500 	ldrcs	r0, [r0, #-1280]!	; 0xfffffb00
    9eec:	04000000 	streq	r0, [r0], #-0
    9ef0:	0003940b 	andeq	r9, r3, fp, lsl #8
    9ef4:	25300500 	ldrcs	r0, [r0, #-1280]!	; 0xfffffb00
    9ef8:	08000000 	stmdaeq	r0, {}	; <UNPREDICTABLE>
    9efc:	00019c0b 	andeq	r9, r1, fp, lsl #24
    9f00:	25300500 	ldrcs	r0, [r0, #-1280]!	; 0xfffffb00
    9f04:	0c000000 	stceq	0, cr0, [r0], {-0}
    9f08:	0004a10b 	andeq	sl, r4, fp, lsl #2
    9f0c:	25300500 	ldrcs	r0, [r0, #-1280]!	; 0xfffffb00
    9f10:	10000000 	andne	r0, r0, r0
    9f14:	00785f10 	rsbseq	r5, r8, r0, lsl pc
    9f18:	017d3105 	cmneq	sp, r5, lsl #2
    9f1c:	00140000 	andseq	r0, r4, r0
    9f20:	0124040d 			; <UNDEFINED> instruction: 0x0124040d
    9f24:	19080000 	stmdbne	r8, {}	; <UNPREDICTABLE>
    9f28:	8d000001 	stchi	0, cr0, [r0, #-4]
    9f2c:	09000001 	stmdbeq	r0, {r0}
    9f30:	000000c7 	andeq	r0, r0, r7, asr #1
    9f34:	e00f0000 	and	r0, pc, r0
    9f38:	24000001 	strcs	r0, [r0], #-1
    9f3c:	02063505 	andeq	r3, r6, #20971520	; 0x1400000
    9f40:	a10b0000 	mrsge	r0, (UNDEF: 11)
    9f44:	05000000 	streq	r0, [r0, #-0]
    9f48:	00002537 	andeq	r2, r0, r7, lsr r5
    9f4c:	c70b0000 	strgt	r0, [fp, -r0]
    9f50:	05000003 	streq	r0, [r0, #-3]
    9f54:	00002538 	andeq	r2, r0, r8, lsr r5
    9f58:	c40b0400 	strgt	r0, [fp], #-1024	; 0xfffffc00
    9f5c:	05000000 	streq	r0, [r0, #-0]
    9f60:	00002539 	andeq	r2, r0, r9, lsr r5
    9f64:	220b0800 	andcs	r0, fp, #0, 16
    9f68:	05000005 	streq	r0, [r0, #-5]
    9f6c:	0000253a 	andeq	r2, r0, sl, lsr r5
    9f70:	b90b0c00 	stmdblt	fp, {sl, fp}
    9f74:	05000002 	streq	r0, [r0, #-2]
    9f78:	0000253b 	andeq	r2, r0, fp, lsr r5
    9f7c:	920b1000 	andls	r1, fp, #0
    9f80:	05000002 	streq	r0, [r0, #-2]
    9f84:	0000253c 	andeq	r2, r0, ip, lsr r5
    9f88:	a60b1400 	strge	r1, [fp], -r0, lsl #8
    9f8c:	05000004 	streq	r0, [r0, #-4]
    9f90:	0000253d 	andeq	r2, r0, sp, lsr r5
    9f94:	1e0b1800 	cdpne	8, 0, cr1, cr11, cr0, {0}
    9f98:	05000003 	streq	r0, [r0, #-3]
    9f9c:	0000253e 	andeq	r2, r0, lr, lsr r5
    9fa0:	e90b1c00 	stmdb	fp, {sl, fp, ip}
    9fa4:	05000004 	streq	r0, [r0, #-4]
    9fa8:	0000253f 	andeq	r2, r0, pc, lsr r5
    9fac:	11002000 	mrsne	r2, (UNDEF: 0)
    9fb0:	00000104 	andeq	r0, r0, r4, lsl #2
    9fb4:	48050108 	stmdami	r5, {r3, r8}
    9fb8:	00000246 	andeq	r0, r0, r6, asr #4
    9fbc:	00018f0b 	andeq	r8, r1, fp, lsl #30
    9fc0:	46490500 	strbmi	r0, [r9], -r0, lsl #10
    9fc4:	00000002 	andeq	r0, r0, r2
    9fc8:	0000000b 	andeq	r0, r0, fp
    9fcc:	464a0500 	strbmi	r0, [sl], -r0, lsl #10
    9fd0:	80000002 	andhi	r0, r0, r2
    9fd4:	00044512 	andeq	r4, r4, r2, lsl r5
    9fd8:	194c0500 	stmdbne	ip, {r8, sl}^
    9fdc:	00000001 	andeq	r0, r0, r1
    9fe0:	01291201 			; <UNDEFINED> instruction: 0x01291201
    9fe4:	4f050000 	svcmi	0x00050000
    9fe8:	00000119 	andeq	r0, r0, r9, lsl r1
    9fec:	08000104 	stmdaeq	r0, {r2, r8}
    9ff0:	00000105 	andeq	r0, r0, r5, lsl #2
    9ff4:	00000256 	andeq	r0, r0, r6, asr r2
    9ff8:	0000c709 	andeq	ip, r0, r9, lsl #14
    9ffc:	11001f00 	tstne	r0, r0, lsl #30
    a000:	000002c2 	andeq	r0, r0, r2, asr #5
    a004:	5b050190 	blpl	14a64c <__bss_end__+0x140624>
    a008:	00000294 	muleq	r0, r4, r2
    a00c:	00035d0b 	andeq	r5, r3, fp, lsl #26
    a010:	945c0500 	ldrbls	r0, [ip], #-1280	; 0xfffffb00
    a014:	00000002 	andeq	r0, r0, r2
    a018:	0003750b 	andeq	r7, r3, fp, lsl #10
    a01c:	255d0500 	ldrbcs	r0, [sp, #-1280]	; 0xfffffb00
    a020:	04000000 	streq	r0, [r0], #-0
    a024:	0001970b 	andeq	r9, r1, fp, lsl #14
    a028:	9a5f0500 	bls	17cb430 <__bss_end__+0x17c1408>
    a02c:	08000002 	stmdaeq	r0, {r1}
    a030:	0001040b 	andeq	r0, r1, fp, lsl #8
    a034:	06600500 	strbteq	r0, [r0], -r0, lsl #10
    a038:	88000002 	stmdahi	r0, {r1}
    a03c:	56040d00 	strpl	r0, [r4], -r0, lsl #26
    a040:	08000002 	stmdaeq	r0, {r1}
    a044:	000002aa 	andeq	r0, r0, sl, lsr #5
    a048:	000002aa 	andeq	r0, r0, sl, lsr #5
    a04c:	0000c709 	andeq	ip, r0, r9, lsl #14
    a050:	0d001f00 	stceq	15, cr1, [r0, #-0]
    a054:	0002b004 	andeq	fp, r2, r4
    a058:	280f1300 	stmdacs	pc, {r8, r9, ip}	; <UNPREDICTABLE>
    a05c:	08000003 	stmdaeq	r0, {r0, r1}
    a060:	02d67305 	sbcseq	r7, r6, #335544320	; 0x14000000
    a064:	be0b0000 	cdplt	0, 0, cr0, cr11, cr0, {0}
    a068:	05000000 	streq	r0, [r0, #-0]
    a06c:	0002d674 	andeq	sp, r2, r4, ror r6
    a070:	1b0b0000 	blne	2ca078 <__bss_end__+0x2c0050>
    a074:	05000000 	streq	r0, [r0, #-0]
    a078:	00002575 	andeq	r2, r0, r5, ror r5
    a07c:	0d000400 	cfstrseq	mvf0, [r0, #-0]
    a080:	00004f04 	andeq	r4, r0, r4, lsl #30
    a084:	03470f00 	movteq	r0, #32512	; 0x7f00
    a088:	05680000 	strbeq	r0, [r8, #-0]!
    a08c:	000406b3 			; <UNDEFINED> instruction: 0x000406b3
    a090:	705f1000 	subsvc	r1, pc, r0
    a094:	d6b40500 	ldrtle	r0, [r4], r0, lsl #10
    a098:	00000002 	andeq	r0, r0, r2
    a09c:	00725f10 	rsbseq	r5, r2, r0, lsl pc
    a0a0:	0025b505 	eoreq	fp, r5, r5, lsl #10
    a0a4:	10040000 	andne	r0, r4, r0
    a0a8:	0500775f 	streq	r7, [r0, #-1887]	; 0xfffff8a1
    a0ac:	000025b6 			; <UNDEFINED> instruction: 0x000025b6
    a0b0:	220b0800 	andcs	r0, fp, #0, 16
    a0b4:	05000001 	streq	r0, [r0, #-1]
    a0b8:	00003ab7 			; <UNDEFINED> instruction: 0x00003ab7
    a0bc:	0b0b0c00 	bleq	2cd0c4 <__bss_end__+0x2c309c>
    a0c0:	05000002 	streq	r0, [r0, #-2]
    a0c4:	00003ab8 			; <UNDEFINED> instruction: 0x00003ab8
    a0c8:	5f100e00 	svcpl	0x00100e00
    a0cc:	05006662 	streq	r6, [r0, #-1634]	; 0xfffff99e
    a0d0:	0002b1b9 			; <UNDEFINED> instruction: 0x0002b1b9
    a0d4:	7b0b1000 	blvc	2ce0dc <__bss_end__+0x2c40b4>
    a0d8:	05000000 	streq	r0, [r0, #-0]
    a0dc:	000025ba 			; <UNDEFINED> instruction: 0x000025ba
    a0e0:	120b1800 	andne	r1, fp, #0, 16
    a0e4:	05000001 	streq	r0, [r0, #-1]
    a0e8:	000105c1 	andeq	r0, r1, r1, asr #11
    a0ec:	780b1c00 	stmdavc	fp, {sl, fp, ip}
    a0f0:	0500000a 	streq	r0, [r0, #-10]
    a0f4:	000561c3 	andeq	r6, r5, r3, asr #3
    a0f8:	0c0b2000 	stceq	0, cr2, [fp], {-0}
    a0fc:	05000006 	streq	r0, [r0, #-6]
    a100:	00058bc5 	andeq	r8, r5, r5, asr #23
    a104:	b90b2400 	stmdblt	fp, {sl, sp}
    a108:	05000003 	streq	r0, [r0, #-3]
    a10c:	0005afc8 	andeq	sl, r5, r8, asr #31
    a110:	030b2800 	movweq	r2, #47104	; 0xb800
    a114:	05000005 	streq	r0, [r0, #-5]
    a118:	0005c9c9 	andeq	ip, r5, r9, asr #19
    a11c:	5f102c00 	svcpl	0x00102c00
    a120:	05006275 	streq	r6, [r0, #-629]	; 0xfffffd8b
    a124:	0002b1cc 	andeq	fp, r2, ip, asr #3
    a128:	5f103000 	svcpl	0x00103000
    a12c:	05007075 	streq	r7, [r0, #-117]	; 0xffffff8b
    a130:	0002d6cd 	andeq	sp, r2, sp, asr #13
    a134:	5f103800 	svcpl	0x00103800
    a138:	05007275 	streq	r7, [r0, #-629]	; 0xfffffd8b
    a13c:	000025ce 	andeq	r2, r0, lr, asr #11
    a140:	b80b3c00 	stmdalt	fp, {sl, fp, ip, sp}
    a144:	05000000 	streq	r0, [r0, #-0]
    a148:	0005cfd1 	ldrdeq	ip, [r5], -r1
    a14c:	db0b4000 	blle	2da154 <__bss_end__+0x2d012c>
    a150:	05000004 	streq	r0, [r0, #-4]
    a154:	0005dfd2 	ldrdeq	sp, [r5], -r2
    a158:	5f104300 	svcpl	0x00104300
    a15c:	0500626c 	streq	r6, [r0, #-620]	; 0xfffffd94
    a160:	0002b1d5 	ldrdeq	fp, [r2], -r5
    a164:	400b4400 	andmi	r4, fp, r0, lsl #8
    a168:	05000001 	streq	r0, [r0, #-1]
    a16c:	000025d8 	ldrdeq	r2, [r0], -r8
    a170:	510b4c00 	tstpl	fp, r0, lsl #24
    a174:	05000001 	streq	r0, [r0, #-1]
    a178:	000076d9 	ldrdeq	r7, [r0], -r9
    a17c:	190b5000 	stmdbne	fp, {ip, lr}
    a180:	0500000a 	streq	r0, [r0, #-10]
    a184:	000424dc 	ldrdeq	r2, [r4], -ip
    a188:	840b5400 	strhi	r5, [fp], #-1024	; 0xfffffc00
    a18c:	05000002 	streq	r0, [r0, #-2]
    a190:	0000fae0 	andeq	pc, r0, r0, ror #21
    a194:	4f0b5800 	svcmi	0x000b5800
    a198:	05000003 	streq	r0, [r0, #-3]
    a19c:	0000efe2 	andeq	lr, r0, r2, ror #31
    a1a0:	8a0b5c00 	bhi	2e11a8 <__bss_end__+0x2d7180>
    a1a4:	05000002 	streq	r0, [r0, #-2]
    a1a8:	000025e3 	andeq	r2, r0, r3, ror #11
    a1ac:	14006400 	strne	r6, [r0], #-1024	; 0xfffffc00
    a1b0:	00000025 	andeq	r0, r0, r5, lsr #32
    a1b4:	00000424 	andeq	r0, r0, r4, lsr #8
    a1b8:	00042415 	andeq	r2, r4, r5, lsl r4
    a1bc:	01051500 	tsteq	r5, r0, lsl #10
    a1c0:	07150000 	ldreq	r0, [r5, -r0]
    a1c4:	15000001 	strne	r0, [r0, #-1]
    a1c8:	00000025 	andeq	r0, r0, r5, lsr #32
    a1cc:	2f040d00 	svccs	0x00040d00
    a1d0:	0e000004 	cdpeq	0, 0, cr0, cr0, cr4, {0}
    a1d4:	00000424 	andeq	r0, r0, r4, lsr #8
    a1d8:	00039c16 	andeq	r9, r3, r6, lsl ip
    a1dc:	05042800 	streq	r2, [r4, #-2048]	; 0xfffff800
    a1e0:	05610238 	strbeq	r0, [r1, #-568]!	; 0xfffffdc8
    a1e4:	0d170000 	ldceq	0, cr0, [r7, #-0]
    a1e8:	05000003 	streq	r0, [r0, #-3]
    a1ec:	0025023a 	eoreq	r0, r5, sl, lsr r2
    a1f0:	17000000 	strne	r0, [r0, -r0]
    a1f4:	00000131 	andeq	r0, r0, r1, lsr r1
    a1f8:	36023f05 	strcc	r3, [r2], -r5, lsl #30
    a1fc:	04000006 	streq	r0, [r0], #-6
    a200:	0001fb17 	andeq	pc, r1, r7, lsl fp	; <UNPREDICTABLE>
    a204:	023f0500 	eorseq	r0, pc, #0, 10
    a208:	00000636 	andeq	r0, r0, r6, lsr r6
    a20c:	01ab1708 			; <UNDEFINED> instruction: 0x01ab1708
    a210:	3f050000 	svccc	0x00050000
    a214:	00063602 	andeq	r3, r6, r2, lsl #12
    a218:	70170c00 	andsvc	r0, r7, r0, lsl #24
    a21c:	05000003 	streq	r0, [r0, #-3]
    a220:	00250241 	eoreq	r0, r5, r1, asr #4
    a224:	17100000 	ldrne	r0, [r0, -r0]
    a228:	00000029 	andeq	r0, r0, r9, lsr #32
    a22c:	18024205 	stmdane	r2, {r0, r2, r9, lr}
    a230:	14000008 	strne	r0, [r0], #-8
    a234:	00047b17 	andeq	r7, r4, r7, lsl fp
    a238:	02440500 	subeq	r0, r4, #0, 10
    a23c:	00000025 	andeq	r0, r0, r5, lsr #32
    a240:	037a1730 	cmneq	sl, #48, 14	; 0xc00000
    a244:	45050000 	strmi	r0, [r5, #-0]
    a248:	00058502 	andeq	r8, r5, r2, lsl #10
    a24c:	ca173400 	bgt	5d7254 <__bss_end__+0x5cd22c>
    a250:	05000002 	streq	r0, [r0, #-2]
    a254:	00250247 	eoreq	r0, r5, r7, asr #4
    a258:	17380000 	ldrne	r0, [r8, -r0]!
    a25c:	0000038a 	andeq	r0, r0, sl, lsl #7
    a260:	33024905 	movwcc	r4, #10501	; 0x2905
    a264:	3c000008 	stccc	0, cr0, [r0], {8}
    a268:	00026817 	andeq	r6, r2, r7, lsl r8
    a26c:	024c0500 	subeq	r0, ip, #0, 10
    a270:	00000177 	andeq	r0, r0, r7, ror r1
    a274:	01ca1740 	biceq	r1, sl, r0, asr #14
    a278:	4d050000 	stcmi	0, cr0, [r5, #-0]
    a27c:	00002502 	andeq	r2, r0, r2, lsl #10
    a280:	1d174400 	cfldrsne	mvf4, [r7, #-0]
    a284:	05000005 	streq	r0, [r0, #-5]
    a288:	0177024e 	cmneq	r7, lr, asr #4
    a28c:	17480000 	strbne	r0, [r8, -r0]
    a290:	000002dc 	ldrdeq	r0, [r0], -ip
    a294:	39024f05 	stmdbcc	r2, {r0, r2, r8, r9, sl, fp, lr}
    a298:	4c000008 	stcmi	0, cr0, [r0], {8}
    a29c:	00020317 	andeq	r0, r2, r7, lsl r3
    a2a0:	02520500 	subseq	r0, r2, #0, 10
    a2a4:	00000025 	andeq	r0, r0, r5, lsr #32
    a2a8:	01491750 	cmpeq	r9, r0, asr r7
    a2ac:	53050000 	movwpl	r0, #20480	; 0x5000
    a2b0:	00010702 	andeq	r0, r1, r2, lsl #14
    a2b4:	06175400 	ldreq	r5, [r7], -r0, lsl #8
    a2b8:	05000003 	streq	r0, [r0, #-3]
    a2bc:	07f60276 			; <UNDEFINED> instruction: 0x07f60276
    a2c0:	18580000 	ldmdane	r8, {}^	; <UNPREDICTABLE>
    a2c4:	000002c2 	andeq	r0, r0, r2, asr #5
    a2c8:	94027a05 	strls	r7, [r2], #-2565	; 0xfffff5fb
    a2cc:	48000002 	stmdami	r0, {r1}
    a2d0:	02461801 	subeq	r1, r6, #65536	; 0x10000
    a2d4:	7b050000 	blvc	14a2dc <__bss_end__+0x1402b4>
    a2d8:	00025602 	andeq	r5, r2, r2, lsl #12
    a2dc:	18014c00 	stmdane	r1, {sl, fp, lr}
    a2e0:	000004c9 	andeq	r0, r0, r9, asr #9
    a2e4:	4a027f05 	bmi	a9f00 <__bss_end__+0x9fed8>
    a2e8:	dc000008 	stcle	0, cr0, [r0], {8}
    a2ec:	011a1802 	tsteq	sl, r2, lsl #16
    a2f0:	84050000 	strhi	r0, [r5], #-0
    a2f4:	0005fb02 	andeq	pc, r5, r2, lsl #22
    a2f8:	1802e000 	stmdane	r2, {sp, lr, pc}
    a2fc:	000000ff 	strdeq	r0, [r0], -pc	; <UNPREDICTABLE>
    a300:	56028505 	strpl	r8, [r2], -r5, lsl #10
    a304:	ec000008 	stc	0, cr0, [r0], {8}
    a308:	040d0002 	streq	r0, [sp], #-2
    a30c:	00000406 	andeq	r0, r0, r6, lsl #8
    a310:	00002514 	andeq	r2, r0, r4, lsl r5
    a314:	00058500 	andeq	r8, r5, r0, lsl #10
    a318:	04241500 	strteq	r1, [r4], #-1280	; 0xfffffb00
    a31c:	05150000 	ldreq	r0, [r5, #-0]
    a320:	15000001 	strne	r0, [r0, #-1]
    a324:	00000585 	andeq	r0, r0, r5, lsl #11
    a328:	00002515 	andeq	r2, r0, r5, lsl r5
    a32c:	040d0000 	streq	r0, [sp], #-0
    a330:	00000114 	andeq	r0, r0, r4, lsl r1
    a334:	0567040d 	strbeq	r0, [r7, #-1037]!	; 0xfffffbf3
    a338:	81140000 	tsthi	r4, r0
    a33c:	af000000 	svcge	0x00000000
    a340:	15000005 	strne	r0, [r0, #-5]
    a344:	00000424 	andeq	r0, r0, r4, lsr #8
    a348:	00010515 	andeq	r0, r1, r5, lsl r5
    a34c:	00811500 	addeq	r1, r1, r0, lsl #10
    a350:	25150000 	ldrcs	r0, [r5, #-0]
    a354:	00000000 	andeq	r0, r0, r0
    a358:	0591040d 	ldreq	r0, [r1, #1037]	; 0x40d
    a35c:	25140000 	ldrcs	r0, [r4, #-0]
    a360:	c9000000 	stmdbgt	r0, {}	; <UNPREDICTABLE>
    a364:	15000005 	strne	r0, [r0, #-5]
    a368:	00000424 	andeq	r0, r0, r4, lsr #8
    a36c:	00010515 	andeq	r0, r1, r5, lsl r5
    a370:	040d0000 	streq	r0, [sp], #-0
    a374:	000005b5 			; <UNDEFINED> instruction: 0x000005b5
    a378:	00004f08 	andeq	r4, r0, r8, lsl #30
    a37c:	0005df00 	andeq	sp, r5, r0, lsl #30
    a380:	00c70900 	sbceq	r0, r7, r0, lsl #18
    a384:	00020000 	andeq	r0, r2, r0
    a388:	00004f08 	andeq	r4, r0, r8, lsl #30
    a38c:	0005ef00 	andeq	lr, r5, r0, lsl #30
    a390:	00c70900 	sbceq	r0, r7, r0, lsl #18
    a394:	00000000 	andeq	r0, r0, r0
    a398:	00033505 	andeq	r3, r3, r5, lsl #10
    a39c:	011d0500 	tsteq	sp, r0, lsl #10
    a3a0:	000002dc 	ldrdeq	r0, [r0], -ip
    a3a4:	0004b019 	andeq	fp, r4, r9, lsl r0
    a3a8:	21050c00 	tstcs	r5, r0, lsl #24
    a3ac:	00063001 	andeq	r3, r6, r1
    a3b0:	035d1700 	cmpeq	sp, #0, 14
    a3b4:	23050000 	movwcs	r0, #20480	; 0x5000
    a3b8:	00063001 	andeq	r3, r6, r1
    a3bc:	1e170000 	cdpne	0, 1, cr0, cr7, cr0, {0}
    a3c0:	05000002 	streq	r0, [r0, #-2]
    a3c4:	00250124 	eoreq	r0, r5, r4, lsr #2
    a3c8:	17040000 	strne	r0, [r4, -r0]
    a3cc:	0000032f 	andeq	r0, r0, pc, lsr #6
    a3d0:	36012505 	strcc	r2, [r1], -r5, lsl #10
    a3d4:	08000006 	stmdaeq	r0, {r1, r2}
    a3d8:	fb040d00 	blx	10d7e2 <__bss_end__+0x1037ba>
    a3dc:	0d000005 	stceq	0, cr0, [r0, #-20]	; 0xffffffec
    a3e0:	0005ef04 	andeq	lr, r5, r4, lsl #30
    a3e4:	00211900 	eoreq	r1, r1, r0, lsl #18
    a3e8:	050e0000 	streq	r0, [lr, #-0]
    a3ec:	0671013d 			; <UNDEFINED> instruction: 0x0671013d
    a3f0:	a3170000 	tstge	r7, #0
    a3f4:	05000003 	streq	r0, [r0, #-3]
    a3f8:	0671013e 			; <UNDEFINED> instruction: 0x0671013e
    a3fc:	17000000 	strne	r0, [r0, -r0]
    a400:	000003d0 	ldrdeq	r0, [r0], -r0	; <UNPREDICTABLE>
    a404:	71013f05 	tstvc	r1, r5, lsl #30
    a408:	06000006 	streq	r0, [r0], -r6
    a40c:	00044e17 	andeq	r4, r4, r7, lsl lr
    a410:	01400500 	cmpeq	r0, r0, lsl #10
    a414:	00000056 	andeq	r0, r0, r6, asr r0
    a418:	5608000c 	strpl	r0, [r8], -ip
    a41c:	81000000 	mrshi	r0, (UNDEF: 0)
    a420:	09000006 	stmdbeq	r0, {r1, r2}
    a424:	000000c7 	andeq	r0, r0, r7, asr #1
    a428:	d01a0002 	andsle	r0, sl, r2
    a42c:	82025705 	andhi	r5, r2, #1310720	; 0x140000
    a430:	17000007 	strne	r0, [r0, -r7]
    a434:	00000494 	muleq	r0, r4, r4
    a438:	2c025905 			; <UNDEFINED> instruction: 0x2c025905
    a43c:	00000000 	andeq	r0, r0, r0
    a440:	00043817 	andeq	r3, r4, r7, lsl r8
    a444:	025a0500 	subseq	r0, sl, #0, 10
    a448:	00000107 	andeq	r0, r0, r7, lsl #2
    a44c:	025b1704 	subseq	r1, fp, #4, 14	; 0x100000
    a450:	5b050000 	blpl	14a458 <__bss_end__+0x140430>
    a454:	00078202 	andeq	r8, r7, r2, lsl #4
    a458:	f4170800 			; <UNDEFINED> instruction: 0xf4170800
    a45c:	05000004 	streq	r0, [r0, #-4]
    a460:	018d025c 	orreq	r0, sp, ip, asr r2
    a464:	17240000 	strne	r0, [r4, -r0]!
    a468:	000001bb 			; <UNDEFINED> instruction: 0x000001bb
    a46c:	25025d05 	strcs	r5, [r2, #-3333]	; 0xfffff2fb
    a470:	48000000 	stmdami	r0, {}	; <UNPREDICTABLE>
    a474:	00035817 	andeq	r5, r3, r7, lsl r8
    a478:	025e0500 	subseq	r0, lr, #0, 10
    a47c:	00000064 	andeq	r0, r0, r4, rrx
    a480:	050a1750 	streq	r1, [sl, #-1872]	; 0xfffff8b0
    a484:	5f050000 	svcpl	0x00050000
    a488:	00063c02 	andeq	r3, r6, r2, lsl #24
    a48c:	63175800 	tstvs	r7, #0, 16
    a490:	05000003 	streq	r0, [r0, #-3]
    a494:	00ef0260 	rsceq	r0, pc, r0, ror #4
    a498:	17680000 	strbne	r0, [r8, -r0]!
    a49c:	0000050f 	andeq	r0, r0, pc, lsl #10
    a4a0:	ef026105 	svc	0x00026105
    a4a4:	70000000 	andvc	r0, r0, r0
    a4a8:	00009317 	andeq	r9, r0, r7, lsl r3
    a4ac:	02620500 	rsbeq	r0, r2, #0, 10
    a4b0:	000000ef 	andeq	r0, r0, pc, ror #1
    a4b4:	04bf1778 	ldrteq	r1, [pc], #1912	; a4bc <__bss_end__+0x494>
    a4b8:	63050000 	movwvs	r0, #20480	; 0x5000
    a4bc:	00079202 	andeq	r9, r7, r2, lsl #4
    a4c0:	4f178000 	svcmi	0x00178000
    a4c4:	05000002 	streq	r0, [r0, #-2]
    a4c8:	07a20264 	streq	r0, [r2, r4, ror #4]!
    a4cc:	17880000 	strne	r0, [r8, r0]
    a4d0:	0000045b 	andeq	r0, r0, fp, asr r4
    a4d4:	25026505 	strcs	r6, [r2, #-1285]	; 0xfffffafb
    a4d8:	a0000000 	andge	r0, r0, r0
    a4dc:	00018117 	andeq	r8, r1, r7, lsl r1
    a4e0:	02660500 	rsbeq	r0, r6, #0, 10
    a4e4:	000000ef 	andeq	r0, r0, pc, ror #1
    a4e8:	008417a4 	addeq	r1, r4, r4, lsr #15
    a4ec:	67050000 	strvs	r0, [r5, -r0]
    a4f0:	0000ef02 	andeq	lr, r0, r2, lsl #30
    a4f4:	7017ac00 	andsvc	sl, r7, r0, lsl #24
    a4f8:	05000001 	streq	r0, [r0, #-1]
    a4fc:	00ef0268 	rsceq	r0, pc, r8, ror #4
    a500:	17b40000 	ldrne	r0, [r4, r0]!
    a504:	0000003c 	andeq	r0, r0, ip, lsr r0
    a508:	ef026905 	svc	0x00026905
    a50c:	bc000000 	stclt	0, cr0, [r0], {-0}
    a510:	00004b17 	andeq	r4, r0, r7, lsl fp
    a514:	026a0500 	rsbeq	r0, sl, #0, 10
    a518:	000000ef 	andeq	r0, r0, pc, ror #1
    a51c:	030b17c4 	movweq	r1, #47044	; 0xb7c4
    a520:	6b050000 	blvs	14a528 <__bss_end__+0x140500>
    a524:	00002502 	andeq	r2, r0, r2, lsl #10
    a528:	0800cc00 	stmdaeq	r0, {sl, fp, lr, pc}
    a52c:	0000010d 	andeq	r0, r0, sp, lsl #2
    a530:	00000792 	muleq	r0, r2, r7
    a534:	0000c709 	andeq	ip, r0, r9, lsl #14
    a538:	08001900 	stmdaeq	r0, {r8, fp, ip}
    a53c:	0000010d 	andeq	r0, r0, sp, lsl #2
    a540:	000007a2 	andeq	r0, r0, r2, lsr #15
    a544:	0000c709 	andeq	ip, r0, r9, lsl #14
    a548:	08000700 	stmdaeq	r0, {r8, r9, sl}
    a54c:	0000010d 	andeq	r0, r0, sp, lsl #2
    a550:	000007b2 			; <UNDEFINED> instruction: 0x000007b2
    a554:	0000c709 	andeq	ip, r0, r9, lsl #14
    a558:	1a001700 	bne	10160 <__bss_end__+0x6138>
    a55c:	027005f0 	rsbseq	r0, r0, #240, 10	; 0x3c000000
    a560:	000007d6 	ldrdeq	r0, [r0], -r6
    a564:	0002b217 	andeq	fp, r2, r7, lsl r2
    a568:	02730500 	rsbseq	r0, r3, #0, 10
    a56c:	000007d6 	ldrdeq	r0, [r0], -r6
    a570:	04b61700 	ldrteq	r1, [r6], #1792	; 0x700
    a574:	74050000 	strvc	r0, [r5], #-0
    a578:	0007e602 	andeq	lr, r7, r2, lsl #12
    a57c:	08007800 	stmdaeq	r0, {fp, ip, sp, lr}
    a580:	000002d6 	ldrdeq	r0, [r0], -r6
    a584:	000007e6 	andeq	r0, r0, r6, ror #15
    a588:	0000c709 	andeq	ip, r0, r9, lsl #14
    a58c:	08001d00 	stmdaeq	r0, {r8, sl, fp, ip}
    a590:	0000002c 	andeq	r0, r0, ip, lsr #32
    a594:	000007f6 	strdeq	r0, [r0], -r6
    a598:	0000c709 	andeq	ip, r0, r9, lsl #14
    a59c:	1b001d00 	blne	119a4 <__bss_end__+0x797c>
    a5a0:	025505f0 	subseq	r0, r5, #240, 10	; 0x3c000000
    a5a4:	00000818 	andeq	r0, r0, r8, lsl r8
    a5a8:	00039c1c 	andeq	r9, r3, ip, lsl ip
    a5ac:	026c0500 	rsbeq	r0, ip, #0, 10
    a5b0:	00000681 	andeq	r0, r0, r1, lsl #13
    a5b4:	0004e11c 	andeq	lr, r4, ip, lsl r1
    a5b8:	02750500 	rsbseq	r0, r5, #0, 10
    a5bc:	000007b2 			; <UNDEFINED> instruction: 0x000007b2
    a5c0:	010d0800 	tsteq	sp, r0, lsl #16
    a5c4:	08280000 	stmdaeq	r8!, {}	; <UNPREDICTABLE>
    a5c8:	c7090000 	strgt	r0, [r9, -r0]
    a5cc:	18000000 	stmdane	r0, {}	; <UNPREDICTABLE>
    a5d0:	08331d00 	ldmdaeq	r3!, {r8, sl, fp, ip}
    a5d4:	24150000 	ldrcs	r0, [r5], #-0
    a5d8:	00000004 	andeq	r0, r0, r4
    a5dc:	0828040d 	stmdaeq	r8!, {r0, r2, r3, sl}
    a5e0:	040d0000 	streq	r0, [sp], #-0
    a5e4:	00000177 	andeq	r0, r0, r7, ror r1
    a5e8:	00084a1d 	andeq	r4, r8, sp, lsl sl
    a5ec:	00251500 	eoreq	r1, r5, r0, lsl #10
    a5f0:	0d000000 	stceq	0, cr0, [r0, #-0]
    a5f4:	00085004 	andeq	r5, r8, r4
    a5f8:	3f040d00 	svccc	0x00040d00
    a5fc:	08000008 	stmdaeq	r0, {r3}
    a600:	000005ef 	andeq	r0, r0, pc, ror #11
    a604:	00000866 	andeq	r0, r0, r6, ror #16
    a608:	0000c709 	andeq	ip, r0, r9, lsl #14
    a60c:	1e000200 	cdpne	2, 0, cr0, cr0, cr0, {0}
    a610:	0000046f 	andeq	r0, r0, pc, ror #8
    a614:	2402fd05 	strcs	pc, [r2], #-3333	; 0xfffff2fb
    a618:	1e000004 	cdpne	0, 0, cr0, cr0, cr4, {0}
    a61c:	00000468 	andeq	r0, r0, r8, ror #8
    a620:	2a02fe05 	bcs	c9e3c <__bss_end__+0xbfe14>
    a624:	14000004 	strne	r0, [r0], #-4
    a628:	00000025 	andeq	r0, r0, r5, lsr #32
    a62c:	0000088d 	andeq	r0, r0, sp, lsl #17
    a630:	00002515 	andeq	r2, r0, r5, lsl r5
    a634:	d41f0000 	ldrle	r0, [pc], #-0	; a63c <__bss_end__+0x614>
    a638:	06000001 	streq	r0, [r0], -r1
    a63c:	0008981d 	andeq	r9, r8, sp, lsl r8
    a640:	7e040d00 	cdpvc	13, 0, cr0, cr4, cr0, {0}
    a644:	14000008 	strne	r0, [r0], #-8
    a648:	00000025 	andeq	r0, r0, r5, lsr #32
    a64c:	000008ad 	andeq	r0, r0, sp, lsr #17
    a650:	00058515 	andeq	r8, r5, r5, lsl r5
    a654:	691f0000 	ldmdbvs	pc, {}	; <UNPREDICTABLE>
    a658:	06000007 	streq	r0, [r0], -r7
    a65c:	0008b822 	andeq	fp, r8, r2, lsr #16
    a660:	9e040d00 	cdpls	13, 0, cr0, cr4, cr0, {0}
    a664:	03000008 	movweq	r0, #8
    a668:	0b050408 	bleq	14b690 <__bss_end__+0x141668>
    a66c:	3d1f0000 	ldccc	0, cr0, [pc, #-0]	; a674 <__bss_end__+0x64c>
    a670:	0100000b 	tsteq	r0, fp
    a674:	00010d0d 	andeq	r0, r1, sp, lsl #26
    a678:	06522000 	ldrbeq	r2, [r2], -r0
    a67c:	0e010000 	cdpeq	0, 0, cr0, cr1, cr0, {0}
    a680:	00000107 	andeq	r0, r0, r7, lsl #2
    a684:	96640305 	strbtls	r0, [r4], -r5, lsl #6
    a688:	54200000 	strtpl	r0, [r0], #-0
    a68c:	0100000b 	tsteq	r0, fp
    a690:	0001070f 	andeq	r0, r1, pc, lsl #14
    a694:	68030500 	stmdavs	r3, {r8, sl}
    a698:	21000096 	swpcs	r0, r6, [r0]	; <UNPREDICTABLE>
    a69c:	00000b16 	andeq	r0, r0, r6, lsl fp
    a6a0:	96343801 	ldrtls	r3, [r4], -r1, lsl #16
    a6a4:	00100000 	andseq	r0, r0, r0
    a6a8:	9c010000 	stcls	0, cr0, [r1], {-0}
    a6ac:	00000913 	andeq	r0, r0, r3, lsl r9
    a6b0:	01007022 	tsteq	r0, r2, lsr #32
    a6b4:	00010538 	andeq	r0, r1, r8, lsr r5
    a6b8:	00500100 	subseq	r0, r0, r0, lsl #2
    a6bc:	000b0c23 	andeq	r0, fp, r3, lsr #24
    a6c0:	20370100 	eorscs	r0, r7, r0, lsl #2
    a6c4:	14000096 	strne	r0, [r0], #-150	; 0xffffff6a
    a6c8:	01000000 	mrseq	r0, (UNDEF: 0)
    a6cc:	027e219c 	rsbseq	r2, lr, #156, 2	; 0x27
    a6d0:	36010000 	strcc	r0, [r1], -r0
    a6d4:	0000961c 	andeq	r9, r0, ip, lsl r6
    a6d8:	00000004 	andeq	r0, r0, r4
    a6dc:	09459c01 	stmdbeq	r5, {r0, sl, fp, ip, pc}^
    a6e0:	70220000 	eorvc	r0, r2, r0
    a6e4:	05360100 	ldreq	r0, [r6, #-256]!	; 0xffffff00
    a6e8:	01000001 	tsteq	r0, r1
    a6ec:	f5240050 			; <UNDEFINED> instruction: 0xf5240050
    a6f0:	0100000a 	tsteq	r0, sl
    a6f4:	00010529 	andeq	r0, r1, r9, lsr #10
    a6f8:	00959000 	addseq	r9, r5, r0
    a6fc:	00008c00 	andeq	r8, r0, r0, lsl #24
    a700:	309c0100 	addscc	r0, ip, r0, lsl #2
    a704:	2500000a 	strcs	r0, [r0, #-10]
    a708:	00000672 	andeq	r0, r0, r2, ror r6
    a70c:	002c2901 	eoreq	r2, ip, r1, lsl #18
    a710:	13610000 	cmnne	r1, #0
    a714:	33250000 			; <UNDEFINED> instruction: 0x33250000
    a718:	0100000b 	tsteq	r0, fp
    a71c:	00002c29 	andeq	r2, r0, r9, lsr #24
    a720:	0013b400 	andseq	fp, r3, r0, lsl #8
    a724:	02112600 	andseq	r2, r1, #0, 12
    a728:	0a400000 	beq	100a730 <__bss_end__+0x1000708>
    a72c:	03050000 	movweq	r0, #20480	; 0x5000
    a730:	00009b1c 	andeq	r9, r0, ip, lsl fp
    a734:	01006827 	tsteq	r0, r7, lsr #16
    a738:	00002c2e 	andeq	r2, r0, lr, lsr #24
    a73c:	0013fb00 	andseq	pc, r3, r0, lsl #22
    a740:	95cc2800 	strbls	r2, [ip, #2048]	; 0x800
    a744:	0a790000 	beq	1e4a74c <__bss_end__+0x1e40724>
    a748:	09ad0000 	stmibeq	sp!, {}	; <UNPREDICTABLE>
    a74c:	01290000 			; <UNDEFINED> instruction: 0x01290000
    a750:	01f30350 	mvnseq	r0, r0, asr r3
    a754:	d42a0050 	strtle	r0, [sl], #-80	; 0xffffffb0
    a758:	fb000095 	blx	a9b6 <__bss_end__+0x98e>
    a75c:	2800000b 	stmdacs	r0, {r0, r1, r3}
    a760:	000095e8 	andeq	r9, r0, r8, ror #11
    a764:	00000c06 	andeq	r0, r0, r6, lsl #24
    a768:	000009e5 	andeq	r0, r0, r5, ror #19
    a76c:	05500129 	ldrbeq	r0, [r0, #-297]	; 0xfffffed7
    a770:	009b6803 	addseq	r6, fp, r3, lsl #16
    a774:	51012900 	tstpl	r1, r0, lsl #18
    a778:	9b2c0305 	blls	b0b394 <__bss_end__+0xb0136c>
    a77c:	01290000 			; <UNDEFINED> instruction: 0x01290000
    a780:	1c030552 	cfstr32ne	mvfx0, [r3], {82}	; 0x52
    a784:	2900009b 	stmdbcs	r0, {r0, r1, r3, r4, r7}
    a788:	08025301 	stmdaeq	r2, {r0, r8, r9, ip, lr}
    a78c:	ec2a002a 	stc	0, cr0, [sl], #-168	; 0xffffff58
    a790:	11000095 	swpne	r0, r5, [r0]	; <UNPREDICTABLE>
    a794:	2a00000c 	bcs	a7cc <__bss_end__+0x7a4>
    a798:	000095f0 	strdeq	r9, [r0], -r0
    a79c:	00000bfb 	strdeq	r0, [r0], -fp
    a7a0:	00960428 	addseq	r0, r6, r8, lsr #8
    a7a4:	000c0600 	andeq	r0, ip, r0, lsl #12
    a7a8:	000a2600 	andeq	r2, sl, r0, lsl #12
    a7ac:	50012900 	andpl	r2, r1, r0, lsl #18
    a7b0:	9bc80305 	blls	ff20b3cc <__bss_end__+0xff2013a4>
    a7b4:	01290000 			; <UNDEFINED> instruction: 0x01290000
    a7b8:	2c030551 	cfstr32cs	mvfx0, [r3], {81}	; 0x51
    a7bc:	2900009b 	stmdbcs	r0, {r0, r1, r3, r4, r7}
    a7c0:	03055201 	movweq	r5, #20993	; 0x5201
    a7c4:	00009b1c 	andeq	r9, r0, ip, lsl fp
    a7c8:	02530129 	subseq	r0, r3, #1073741834	; 0x4000000a
    a7cc:	2a003008 	bcs	167f4 <__bss_end__+0xc7cc>
    a7d0:	00009608 	andeq	r9, r0, r8, lsl #12
    a7d4:	00000c11 	andeq	r0, r0, r1, lsl ip
    a7d8:	01140800 	tsteq	r4, r0, lsl #16
    a7dc:	0a400000 	beq	100a7e4 <__bss_end__+0x10007bc>
    a7e0:	c7090000 	strgt	r0, [r9, -r0]
    a7e4:	0f000000 	svceq	0x00000000
    a7e8:	0a300e00 	beq	c0dff0 <__bss_end__+0xc03fc8>
    a7ec:	22240000 	eorcs	r0, r4, #0
    a7f0:	0100000b 	tsteq	r0, fp
    a7f4:	00010525 	andeq	r0, r1, r5, lsr #10
    a7f8:	00958400 	addseq	r8, r5, r0, lsl #8
    a7fc:	00000c00 	andeq	r0, r0, r0, lsl #24
    a800:	689c0100 	ldmvs	ip, {r8}
    a804:	2a00000a 	bcs	a834 <__bss_end__+0x80c>
    a808:	0000958c 	andeq	r9, r0, ip, lsl #11
    a80c:	00000bd1 	ldrdeq	r0, [r0], -r1
    a810:	0ae82300 	beq	ffa13418 <__bss_end__+0xffa093f0>
    a814:	24010000 	strcs	r0, [r1], #-0
    a818:	00009580 	andeq	r9, r0, r0, lsl #11
    a81c:	00000004 	andeq	r0, r0, r4
    a820:	d3249c01 			; <UNDEFINED> instruction: 0xd3249c01
    a824:	01000004 	tsteq	r0, r4
    a828:	0001051a 	andeq	r0, r1, sl, lsl r5
    a82c:	00951c00 	addseq	r1, r5, r0, lsl #24
    a830:	00006400 	andeq	r6, r0, r0, lsl #8
    a834:	249c0100 	ldrcs	r0, [ip], #256	; 0x100
    a838:	2b00000b 	blcs	a86c <__bss_end__+0x844>
    a83c:	01007a73 	tsteq	r0, r3, ror sl
    a840:	00002c1a 	andeq	r2, r0, sl, lsl ip
    a844:	00143300 	andseq	r3, r4, r0, lsl #6
    a848:	02112600 	andseq	r2, r1, #0, 12
    a84c:	0b340000 	bleq	d0a854 <__bss_end__+0xd0082c>
    a850:	03050000 	movweq	r0, #20480	; 0x5000
    a854:	00009b14 	andeq	r9, r0, r4, lsl fp
    a858:	000b602c 	andeq	r6, fp, ip, lsr #32
    a85c:	051e0100 	ldreq	r0, [lr, #-256]	; 0xffffff00
    a860:	7d000001 	stcvc	0, cr0, [r0, #-4]
    a864:	28000014 	stmdacs	r0, {r2, r4}
    a868:	0000954c 	andeq	r9, r0, ip, asr #10
    a86c:	00000c1c 	andeq	r0, r0, ip, lsl ip
    a870:	00000ae3 	andeq	r0, r0, r3, ror #21
    a874:	02500129 	subseq	r0, r0, #1073741834	; 0x4000000a
    a878:	01290074 			; <UNDEFINED> instruction: 0x01290074
    a87c:	29300151 	ldmdbcs	r0!, {r0, r4, r6, r8}
    a880:	f3085201 	vhsub.u8	d5, d8, d1
    a884:	07235001 	streq	r5, [r3, -r1]!
    a888:	001af809 	andseq	pc, sl, r9, lsl #16
    a88c:	0095582a 	addseq	r5, r5, sl, lsr #16
    a890:	000bfb00 	andeq	pc, fp, r0, lsl #22
    a894:	956c2800 	strbls	r2, [ip, #-2048]!	; 0xfffff800
    a898:	0c060000 	stceq	0, cr0, [r6], {-0}
    a89c:	0b1a0000 	bleq	68a8a4 <__bss_end__+0x68087c>
    a8a0:	01290000 			; <UNDEFINED> instruction: 0x01290000
    a8a4:	54030550 	strpl	r0, [r3], #-1360	; 0xfffffab0
    a8a8:	2900009b 	stmdbcs	r0, {r0, r1, r3, r4, r7}
    a8ac:	03055101 	movweq	r5, #20737	; 0x5101
    a8b0:	00009b2c 	andeq	r9, r0, ip, lsr #22
    a8b4:	05520129 	ldrbeq	r0, [r2, #-297]	; 0xfffffed7
    a8b8:	009b1403 	addseq	r1, fp, r3, lsl #8
    a8bc:	53012900 	movwpl	r2, #6400	; 0x1900
    a8c0:	2a004b01 	bcs	1d4cc <__bss_end__+0x134a4>
    a8c4:	00009570 	andeq	r9, r0, r0, ror r5
    a8c8:	00000c11 	andeq	r0, r0, r1, lsl ip
    a8cc:	01140800 	tsteq	r4, r0, lsl #16
    a8d0:	0b340000 	bleq	d0a8d8 <__bss_end__+0xd008b0>
    a8d4:	c7090000 	strgt	r0, [r9, -r0]
    a8d8:	07000000 	streq	r0, [r0, -r0]
    a8dc:	0b240e00 	bleq	90e0e4 <__bss_end__+0x9040bc>
    a8e0:	59210000 	stmdbpl	r1!, {}	; <UNPREDICTABLE>
    a8e4:	01000001 	tsteq	r0, r1
    a8e8:	0094cc14 	addseq	ip, r4, r4, lsl ip
    a8ec:	00005000 	andeq	r5, r0, r0
    a8f0:	bc9c0100 	ldflts	f0, [ip], {0}
    a8f4:	2500000b 	strcs	r0, [r0, #-11]
    a8f8:	00000b5f 	andeq	r0, r0, pc, asr fp
    a8fc:	002c1401 	eoreq	r1, ip, r1, lsl #8
    a900:	14900000 	ldrne	r0, [r0], #0
    a904:	602c0000 	eorvs	r0, ip, r0
    a908:	0100000b 	tsteq	r0, fp
    a90c:	00010715 	andeq	r0, r1, r5, lsl r7
    a910:	0014b100 	andseq	fp, r4, r0, lsl #2
    a914:	02112600 	andseq	r2, r1, #0, 12
    a918:	0bcc0000 	bleq	ff30a920 <__bss_end__+0xff3008f8>
    a91c:	03050000 	movweq	r0, #20480	; 0x5000
    a920:	00009afc 	strdeq	r9, [r0], -ip
    a924:	0094f42a 	addseq	pc, r4, sl, lsr #8
    a928:	000bfb00 	andeq	pc, fp, r0, lsl #22
    a92c:	95082800 	strls	r2, [r8, #-2048]	; 0xfffff800
    a930:	0c060000 	stceq	0, cr0, [r6], {-0}
    a934:	0bb20000 	bleq	fec8a93c <__bss_end__+0xfec80914>
    a938:	01290000 			; <UNDEFINED> instruction: 0x01290000
    a93c:	38030550 	stmdacc	r3, {r4, r6, r8, sl}
    a940:	2900009b 	stmdbcs	r0, {r0, r1, r3, r4, r7}
    a944:	03055101 	movweq	r5, #20737	; 0x5101
    a948:	00009b2c 	andeq	r9, r0, ip, lsr #22
    a94c:	05520129 	ldrbeq	r0, [r2, #-297]	; 0xfffffed7
    a950:	009afc03 	addseq	pc, sl, r3, lsl #24
    a954:	53012900 	movwpl	r2, #6400	; 0x1900
    a958:	2a004601 	bcs	1c164 <__bss_end__+0x1213c>
    a95c:	0000950c 	andeq	r9, r0, ip, lsl #10
    a960:	00000c11 	andeq	r0, r0, r1, lsl ip
    a964:	01140800 	tsteq	r4, r0, lsl #16
    a968:	0bcc0000 	bleq	ff30a970 <__bss_end__+0xff300948>
    a96c:	c7090000 	strgt	r0, [r9, -r0]
    a970:	16000000 	strne	r0, [r0], -r0
    a974:	0bbc0e00 	bleq	fef0e17c <__bss_end__+0xfef04154>
    a978:	4c2d0000 	stcmi	0, cr0, [sp], #-0
    a97c:	0100000b 	tsteq	r0, fp
    a980:	00010512 	andeq	r0, r1, r2, lsl r5
    a984:	0094c000 	addseq	ip, r4, r0
    a988:	00000c00 	andeq	r0, r0, r0, lsl #24
    a98c:	2d9c0100 	ldfcss	f0, [ip]
    a990:	00000b65 	andeq	r0, r0, r5, ror #22
    a994:	01051101 	tsteq	r5, r1, lsl #2
    a998:	94b00000 	ldrtls	r0, [r0], #0
    a99c:	00100000 	andseq	r0, r0, r0
    a9a0:	9c010000 	stcls	0, cr0, [r1], {-0}
    a9a4:	0001ec2e 	andeq	lr, r1, lr, lsr #24
    a9a8:	0001ec00 	andeq	lr, r1, r0, lsl #24
    a9ac:	2e1e0600 	cfmsub32cs	mvax0, mvfx0, mvfx14, mvfx0
    a9b0:	000006b5 			; <UNDEFINED> instruction: 0x000006b5
    a9b4:	000006b5 			; <UNDEFINED> instruction: 0x000006b5
    a9b8:	9c2e2906 			; <UNDEFINED> instruction: 0x9c2e2906
    a9bc:	9c000002 	stcls	0, cr0, [r0], {2}
    a9c0:	06000002 	streq	r0, [r0], -r2
    a9c4:	048d2e65 	streq	r2, [sp], #3685	; 0xe65
    a9c8:	048d0000 	streq	r0, [sp], #0
    a9cc:	19070000 	stmdbne	r7, {}	; <UNPREDICTABLE>
	...

Disassembly of section .debug_abbrev:

00000000 <.debug_abbrev>:
       0:	25011101 	strcs	r1, [r1, #-257]	; 0xfffffeff
       4:	030b130e 	movweq	r1, #45838	; 0xb30e
       8:	110e1b0e 	tstne	lr, lr, lsl #22
       c:	10061201 	andne	r1, r6, r1, lsl #4
      10:	02000017 	andeq	r0, r0, #23
      14:	0b0b0024 	bleq	2c00ac <__bss_end__+0x2b6084>
      18:	08030b3e 	stmdaeq	r3, {r1, r2, r3, r4, r5, r8, r9, fp}
      1c:	24030000 	strcs	r0, [r3], #-0
      20:	3e0b0b00 	vmlacc.f64	d0, d11, d0
      24:	000e030b 	andeq	r0, lr, fp, lsl #6
      28:	00160400 	andseq	r0, r6, r0, lsl #8
      2c:	0b3a0e03 	bleq	e83840 <__bss_end__+0xe79818>
      30:	13490b3b 	movtne	r0, #39739	; 0x9b3b
      34:	16050000 	strne	r0, [r5], -r0
      38:	3a0e0300 	bcc	380c40 <__bss_end__+0x376c18>
      3c:	49053b0b 	stmdbmi	r5, {r0, r1, r3, r8, r9, fp, ip, sp}
      40:	06000013 			; <UNDEFINED> instruction: 0x06000013
      44:	0b0b0117 	bleq	2c04a8 <__bss_end__+0x2b6480>
      48:	0b3b0b3a 	bleq	ec2d38 <__bss_end__+0xeb8d10>
      4c:	00001301 	andeq	r1, r0, r1, lsl #6
      50:	03000d07 	movweq	r0, #3335	; 0xd07
      54:	3b0b3a0e 	blcc	2ce894 <__bss_end__+0x2c486c>
      58:	0013490b 	andseq	r4, r3, fp, lsl #18
      5c:	01010800 	tsteq	r1, r0, lsl #16
      60:	13011349 	movwne	r1, #4937	; 0x1349
      64:	21090000 	mrscs	r0, (UNDEF: 9)
      68:	2f134900 	svccs	0x00134900
      6c:	0a00000b 	beq	a0 <_start-0x7f60>
      70:	0b0b0113 	bleq	2c04c4 <__bss_end__+0x2b649c>
      74:	0b3b0b3a 	bleq	ec2d64 <__bss_end__+0xeb8d3c>
      78:	00001301 	andeq	r1, r0, r1, lsl #6
      7c:	03000d0b 	movweq	r0, #3339	; 0xd0b
      80:	3b0b3a0e 	blcc	2ce8c0 <__bss_end__+0x2c4898>
      84:	3813490b 	ldmdacc	r3, {r0, r1, r3, r8, fp, lr}
      88:	0c00000b 	stceq	0, cr0, [r0], {11}
      8c:	0b0b000f 	bleq	2c00d0 <__bss_end__+0x2b60a8>
      90:	0f0d0000 	svceq	0x000d0000
      94:	490b0b00 	stmdbmi	fp, {r8, r9, fp}
      98:	0e000013 	mcreq	0, 0, r0, cr0, cr3, {0}
      9c:	13490026 	movtne	r0, #36902	; 0x9026
      a0:	130f0000 	movwne	r0, #61440	; 0xf000
      a4:	0b0e0301 	bleq	380cb0 <__bss_end__+0x376c88>
      a8:	3b0b3a0b 	blcc	2ce8dc <__bss_end__+0x2c48b4>
      ac:	0013010b 	andseq	r0, r3, fp, lsl #2
      b0:	000d1000 	andeq	r1, sp, r0
      b4:	0b3a0803 	bleq	e820c8 <__bss_end__+0xe780a0>
      b8:	13490b3b 	movtne	r0, #39739	; 0x9b3b
      bc:	00000b38 	andeq	r0, r0, r8, lsr fp
      c0:	03011311 	movweq	r1, #4881	; 0x1311
      c4:	3a050b0e 	bcc	142d04 <__bss_end__+0x138cdc>
      c8:	010b3b0b 	tsteq	fp, fp, lsl #22
      cc:	12000013 	andne	r0, r0, #19
      d0:	0e03000d 	cdpeq	0, 0, cr0, cr3, cr13, {0}
      d4:	0b3b0b3a 	bleq	ec2dc4 <__bss_end__+0xeb8d9c>
      d8:	05381349 	ldreq	r1, [r8, #-841]!	; 0xfffffcb7
      dc:	15130000 	ldrne	r0, [r3, #-0]
      e0:	00192700 	andseq	r2, r9, r0, lsl #14
      e4:	01151400 	tsteq	r5, r0, lsl #8
      e8:	13491927 	movtne	r1, #39207	; 0x9927
      ec:	00001301 	andeq	r1, r0, r1, lsl #6
      f0:	49000515 	stmdbmi	r0, {r0, r2, r4, r8, sl}
      f4:	16000013 			; <UNDEFINED> instruction: 0x16000013
      f8:	0e030113 	mcreq	1, 0, r0, cr3, cr3, {0}
      fc:	0b3a050b 	bleq	e81530 <__bss_end__+0xe77508>
     100:	1301053b 	movwne	r0, #5435	; 0x153b
     104:	0d170000 	ldceq	0, cr0, [r7, #-0]
     108:	3a0e0300 	bcc	380d10 <__bss_end__+0x376ce8>
     10c:	49053b0b 	stmdbmi	r5, {r0, r1, r3, r8, r9, fp, ip, sp}
     110:	000b3813 	andeq	r3, fp, r3, lsl r8
     114:	000d1800 	andeq	r1, sp, r0, lsl #16
     118:	0b3a0e03 	bleq	e8392c <__bss_end__+0xe79904>
     11c:	1349053b 	movtne	r0, #38203	; 0x953b
     120:	00000538 	andeq	r0, r0, r8, lsr r5
     124:	03011319 	movweq	r1, #4889	; 0x1319
     128:	3a0b0b0e 	bcc	2c2d68 <__bss_end__+0x2b8d40>
     12c:	01053b0b 	tsteq	r5, fp, lsl #22
     130:	1a000013 	bne	184 <_start-0x7e7c>
     134:	0b0b0113 	bleq	2c0588 <__bss_end__+0x2b6560>
     138:	053b0b3a 	ldreq	r0, [fp, #-2874]!	; 0xfffff4c6
     13c:	00001301 	andeq	r1, r0, r1, lsl #6
     140:	0b01171b 	bleq	45db4 <__bss_end__+0x3bd8c>
     144:	3b0b3a0b 	blcc	2ce978 <__bss_end__+0x2c4950>
     148:	00130105 	andseq	r0, r3, r5, lsl #2
     14c:	000d1c00 	andeq	r1, sp, r0, lsl #24
     150:	0b3a0e03 	bleq	e83964 <__bss_end__+0xe7993c>
     154:	1349053b 	movtne	r0, #38203	; 0x953b
     158:	151d0000 	ldrne	r0, [sp, #-0]
     15c:	01192701 	tsteq	r9, r1, lsl #14
     160:	1e000013 	mcrne	0, 0, r0, cr0, cr3, {0}
     164:	0e030034 	mcreq	0, 0, r0, cr3, cr4, {1}
     168:	053b0b3a 	ldreq	r0, [fp, #-2874]!	; 0xfffff4c6
     16c:	193f1349 	ldmdbne	pc!, {r0, r3, r6, r8, r9, ip}	; <UNPREDICTABLE>
     170:	0000193c 	andeq	r1, r0, ip, lsr r9
     174:	0300341f 	movweq	r3, #1055	; 0x41f
     178:	3b0b3a0e 	blcc	2ce9b8 <__bss_end__+0x2c4990>
     17c:	3f13490b 	svccc	0x0013490b
     180:	00193c19 	andseq	r3, r9, r9, lsl ip
     184:	012e2000 			; <UNDEFINED> instruction: 0x012e2000
     188:	0e03193f 			; <UNDEFINED> instruction: 0x0e03193f
     18c:	0b3b0b3a 	bleq	ec2e7c <__bss_end__+0xeb8e54>
     190:	01111927 	tsteq	r1, r7, lsr #18
     194:	18400612 	stmdane	r0, {r1, r4, r9, sl}^
     198:	01194297 			; <UNDEFINED> instruction: 0x01194297
     19c:	21000013 	tstcs	r0, r3, lsl r0
     1a0:	08030034 	stmdaeq	r3, {r2, r4, r5}
     1a4:	0b3b0b3a 	bleq	ec2e94 <__bss_end__+0xeb8e6c>
     1a8:	061c1349 	ldreq	r1, [ip], -r9, asr #6
     1ac:	34220000 	strtcc	r0, [r2], #-0
     1b0:	3a080300 	bcc	200db8 <__bss_end__+0x1f6d90>
     1b4:	490b3b0b 	stmdbmi	fp, {r0, r1, r3, r8, r9, fp, ip, sp}
     1b8:	00170213 	andseq	r0, r7, r3, lsl r2
     1bc:	00342300 	eorseq	r2, r4, r0, lsl #6
     1c0:	13490e03 	movtne	r0, #40451	; 0x9e03
     1c4:	18021934 	stmdane	r2, {r2, r4, r5, r8, fp, ip}
     1c8:	89240000 	stmdbhi	r4!, {}	; <UNPREDICTABLE>
     1cc:	11010182 	smlabbne	r1, r2, r1, r0
     1d0:	01133101 	tsteq	r3, r1, lsl #2
     1d4:	25000013 	strcs	r0, [r0, #-19]	; 0xffffffed
     1d8:	0001828a 	andeq	r8, r1, sl, lsl #5
     1dc:	42911802 	addsmi	r1, r1, #131072	; 0x20000
     1e0:	26000018 			; <UNDEFINED> instruction: 0x26000018
     1e4:	00018289 	andeq	r8, r1, r9, lsl #5
     1e8:	13310111 	teqne	r1, #1073741828	; 0x40000004
     1ec:	2e270000 	cdpcs	0, 2, cr0, cr7, cr0, {0}
     1f0:	3c193f00 	ldccc	15, cr3, [r9], {-0}
     1f4:	030e6e19 	movweq	r6, #60953	; 0xee19
     1f8:	3b0b3a0e 	blcc	2cea38 <__bss_end__+0x2c4a10>
     1fc:	0000000b 	andeq	r0, r0, fp
     200:	25011101 	strcs	r1, [r1, #-257]	; 0xfffffeff
     204:	030b130e 	movweq	r1, #45838	; 0xb30e
     208:	110e1b0e 	tstne	lr, lr, lsl #22
     20c:	10061201 	andne	r1, r6, r1, lsl #4
     210:	02000017 	andeq	r0, r0, #23
     214:	0b0b0024 	bleq	2c02ac <__bss_end__+0x2b6284>
     218:	08030b3e 	stmdaeq	r3, {r1, r2, r3, r4, r5, r8, r9, fp}
     21c:	24030000 	strcs	r0, [r3], #-0
     220:	3e0b0b00 	vmlacc.f64	d0, d11, d0
     224:	000e030b 	andeq	r0, lr, fp, lsl #6
     228:	00160400 	andseq	r0, r6, r0, lsl #8
     22c:	0b3a0e03 	bleq	e83a40 <__bss_end__+0xe79a18>
     230:	13490b3b 	movtne	r0, #39739	; 0x9b3b
     234:	16050000 	strne	r0, [r5], -r0
     238:	3a0e0300 	bcc	380e40 <__bss_end__+0x376e18>
     23c:	49053b0b 	stmdbmi	r5, {r0, r1, r3, r8, r9, fp, ip, sp}
     240:	06000013 			; <UNDEFINED> instruction: 0x06000013
     244:	0b0b0117 	bleq	2c06a8 <__bss_end__+0x2b6680>
     248:	0b3b0b3a 	bleq	ec2f38 <__bss_end__+0xeb8f10>
     24c:	00001301 	andeq	r1, r0, r1, lsl #6
     250:	03000d07 	movweq	r0, #3335	; 0xd07
     254:	3b0b3a0e 	blcc	2cea94 <__bss_end__+0x2c4a6c>
     258:	0013490b 	andseq	r4, r3, fp, lsl #18
     25c:	01010800 	tsteq	r1, r0, lsl #16
     260:	13011349 	movwne	r1, #4937	; 0x1349
     264:	21090000 	mrscs	r0, (UNDEF: 9)
     268:	2f134900 	svccs	0x00134900
     26c:	0a00000b 	beq	2a0 <_start-0x7d60>
     270:	0b0b0113 	bleq	2c06c4 <__bss_end__+0x2b669c>
     274:	0b3b0b3a 	bleq	ec2f64 <__bss_end__+0xeb8f3c>
     278:	00001301 	andeq	r1, r0, r1, lsl #6
     27c:	03000d0b 	movweq	r0, #3339	; 0xd0b
     280:	3b0b3a0e 	blcc	2ceac0 <__bss_end__+0x2c4a98>
     284:	3813490b 	ldmdacc	r3, {r0, r1, r3, r8, fp, lr}
     288:	0c00000b 	stceq	0, cr0, [r0], {11}
     28c:	0b0b000f 	bleq	2c02d0 <__bss_end__+0x2b62a8>
     290:	0f0d0000 	svceq	0x000d0000
     294:	490b0b00 	stmdbmi	fp, {r8, r9, fp}
     298:	0e000013 	mcreq	0, 0, r0, cr0, cr3, {0}
     29c:	13490026 	movtne	r0, #36902	; 0x9026
     2a0:	130f0000 	movwne	r0, #61440	; 0xf000
     2a4:	0b0e0301 	bleq	380eb0 <__bss_end__+0x376e88>
     2a8:	3b0b3a0b 	blcc	2ceadc <__bss_end__+0x2c4ab4>
     2ac:	0013010b 	andseq	r0, r3, fp, lsl #2
     2b0:	000d1000 	andeq	r1, sp, r0
     2b4:	0b3a0803 	bleq	e822c8 <__bss_end__+0xe782a0>
     2b8:	13490b3b 	movtne	r0, #39739	; 0x9b3b
     2bc:	00000b38 	andeq	r0, r0, r8, lsr fp
     2c0:	03011311 	movweq	r1, #4881	; 0x1311
     2c4:	3a050b0e 	bcc	142f04 <__bss_end__+0x138edc>
     2c8:	010b3b0b 	tsteq	fp, fp, lsl #22
     2cc:	12000013 	andne	r0, r0, #19
     2d0:	0e03000d 	cdpeq	0, 0, cr0, cr3, cr13, {0}
     2d4:	0b3b0b3a 	bleq	ec2fc4 <__bss_end__+0xeb8f9c>
     2d8:	05381349 	ldreq	r1, [r8, #-841]!	; 0xfffffcb7
     2dc:	15130000 	ldrne	r0, [r3, #-0]
     2e0:	00192700 	andseq	r2, r9, r0, lsl #14
     2e4:	01151400 	tsteq	r5, r0, lsl #8
     2e8:	13491927 	movtne	r1, #39207	; 0x9927
     2ec:	00001301 	andeq	r1, r0, r1, lsl #6
     2f0:	49000515 	stmdbmi	r0, {r0, r2, r4, r8, sl}
     2f4:	16000013 			; <UNDEFINED> instruction: 0x16000013
     2f8:	0e030113 	mcreq	1, 0, r0, cr3, cr3, {0}
     2fc:	0b3a050b 	bleq	e81730 <__bss_end__+0xe77708>
     300:	1301053b 	movwne	r0, #5435	; 0x153b
     304:	0d170000 	ldceq	0, cr0, [r7, #-0]
     308:	3a0e0300 	bcc	380f10 <__bss_end__+0x376ee8>
     30c:	49053b0b 	stmdbmi	r5, {r0, r1, r3, r8, r9, fp, ip, sp}
     310:	000b3813 	andeq	r3, fp, r3, lsl r8
     314:	000d1800 	andeq	r1, sp, r0, lsl #16
     318:	0b3a0e03 	bleq	e83b2c <__bss_end__+0xe79b04>
     31c:	1349053b 	movtne	r0, #38203	; 0x953b
     320:	00000538 	andeq	r0, r0, r8, lsr r5
     324:	03011319 	movweq	r1, #4889	; 0x1319
     328:	3a0b0b0e 	bcc	2c2f68 <__bss_end__+0x2b8f40>
     32c:	01053b0b 	tsteq	r5, fp, lsl #22
     330:	1a000013 	bne	384 <_start-0x7c7c>
     334:	0b0b0113 	bleq	2c0788 <__bss_end__+0x2b6760>
     338:	053b0b3a 	ldreq	r0, [fp, #-2874]!	; 0xfffff4c6
     33c:	00001301 	andeq	r1, r0, r1, lsl #6
     340:	0b01171b 	bleq	45fb4 <__bss_end__+0x3bf8c>
     344:	3b0b3a0b 	blcc	2ceb78 <__bss_end__+0x2c4b50>
     348:	00130105 	andseq	r0, r3, r5, lsl #2
     34c:	000d1c00 	andeq	r1, sp, r0, lsl #24
     350:	0b3a0e03 	bleq	e83b64 <__bss_end__+0xe79b3c>
     354:	1349053b 	movtne	r0, #38203	; 0x953b
     358:	151d0000 	ldrne	r0, [sp, #-0]
     35c:	01192701 	tsteq	r9, r1, lsl #14
     360:	1e000013 	mcrne	0, 0, r0, cr0, cr3, {0}
     364:	0e030034 	mcreq	0, 0, r0, cr3, cr4, {1}
     368:	053b0b3a 	ldreq	r0, [fp, #-2874]!	; 0xfffff4c6
     36c:	193f1349 	ldmdbne	pc!, {r0, r3, r6, r8, r9, ip}	; <UNPREDICTABLE>
     370:	0000193c 	andeq	r1, r0, ip, lsr r9
     374:	0300341f 	movweq	r3, #1055	; 0x41f
     378:	3b0b3a0e 	blcc	2cebb8 <__bss_end__+0x2c4b90>
     37c:	3f13490b 	svccc	0x0013490b
     380:	00193c19 	andseq	r3, r9, r9, lsl ip
     384:	01042000 	mrseq	r2, (UNDEF: 4)
     388:	13490b0b 	movtne	r0, #39691	; 0x9b0b
     38c:	0b3b0b3a 	bleq	ec307c <__bss_end__+0xeb9054>
     390:	00001301 	andeq	r1, r0, r1, lsl #6
     394:	03002821 	movweq	r2, #2081	; 0x821
     398:	000b1c0e 	andeq	r1, fp, lr, lsl #24
     39c:	00282200 	eoreq	r2, r8, r0, lsl #4
     3a0:	051c0e03 	ldreq	r0, [ip, #-3587]	; 0xfffff1fd
     3a4:	34230000 	strtcc	r0, [r3], #-0
     3a8:	3a0e0300 	bcc	380fb0 <__bss_end__+0x376f88>
     3ac:	490b3b0b 	stmdbmi	fp, {r0, r1, r3, r8, r9, fp, ip, sp}
     3b0:	00180213 	andseq	r0, r8, r3, lsl r2
     3b4:	012e2400 			; <UNDEFINED> instruction: 0x012e2400
     3b8:	0e03193f 			; <UNDEFINED> instruction: 0x0e03193f
     3bc:	0b3b0b3a 	bleq	ec30ac <__bss_end__+0xeb9084>
     3c0:	13491927 	movtne	r1, #39207	; 0x9927
     3c4:	06120111 			; <UNDEFINED> instruction: 0x06120111
     3c8:	42971840 	addsmi	r1, r7, #64, 16	; 0x400000
     3cc:	00130119 	andseq	r0, r3, r9, lsl r1
     3d0:	00342500 	eorseq	r2, r4, r0, lsl #10
     3d4:	0b3a0e03 	bleq	e83be8 <__bss_end__+0xe79bc0>
     3d8:	13490b3b 	movtne	r0, #39739	; 0x9b3b
     3dc:	00001702 	andeq	r1, r0, r2, lsl #14
     3e0:	55010b26 	strpl	r0, [r1, #-2854]	; 0xfffff4da
     3e4:	00130117 	andseq	r0, r3, r7, lsl r1
     3e8:	82892700 	addhi	r2, r9, #0, 14
     3ec:	01110101 	tsteq	r1, r1, lsl #2
     3f0:	13011331 	movwne	r1, #4913	; 0x1331
     3f4:	8a280000 	bhi	a003fc <__bss_end__+0x9f63d4>
     3f8:	02000182 	andeq	r0, r0, #-2147483616	; 0x80000020
     3fc:	18429118 	stmdane	r2, {r3, r4, r8, ip, pc}^
     400:	89290000 	stmdbhi	r9!, {}	; <UNPREDICTABLE>
     404:	11010182 	smlabbne	r1, r2, r1, r0
     408:	00133101 	andseq	r3, r3, r1, lsl #2
     40c:	00052a00 	andeq	r2, r5, r0, lsl #20
     410:	0b3a0e03 	bleq	e83c24 <__bss_end__+0xe79bfc>
     414:	13490b3b 	movtne	r0, #39739	; 0x9b3b
     418:	00001702 	andeq	r1, r0, r2, lsl #14
     41c:	0300342b 	movweq	r3, #1067	; 0x42b
     420:	3b0b3a08 	blcc	2cec48 <__bss_end__+0x2c4c20>
     424:	0213490b 	andseq	r4, r3, #180224	; 0x2c000
     428:	2c000017 	stccs	0, cr0, [r0], {23}
     42c:	0e030034 	mcreq	0, 0, r0, cr3, cr4, {1}
     430:	19341349 	ldmdbne	r4!, {r0, r3, r6, r8, r9, ip}
     434:	00001802 	andeq	r1, r0, r2, lsl #16
     438:	0182892d 	orreq	r8, r2, sp, lsr #18
     43c:	31011100 	mrscc	r1, (UNDEF: 17)
     440:	2e000013 	mcrcs	0, 0, r0, cr0, cr3, {0}
     444:	193f012e 	ldmdbne	pc!, {r1, r2, r3, r5, r8}	; <UNPREDICTABLE>
     448:	0b3a0e03 	bleq	e83c5c <__bss_end__+0xe79c34>
     44c:	19270b3b 	stmdbne	r7!, {r0, r1, r3, r4, r5, r8, r9, fp}
     450:	06120111 			; <UNDEFINED> instruction: 0x06120111
     454:	42971840 	addsmi	r1, r7, #64, 16	; 0x400000
     458:	00130119 	andseq	r0, r3, r9, lsl r1
     45c:	012e2f00 			; <UNDEFINED> instruction: 0x012e2f00
     460:	0b3a0e03 	bleq	e83c74 <__bss_end__+0xe79c4c>
     464:	19270b3b 	stmdbne	r7!, {r0, r1, r3, r4, r5, r8, r9, fp}
     468:	01111349 	tsteq	r1, r9, asr #6
     46c:	18400612 	stmdane	r0, {r1, r4, r9, sl}^
     470:	01194297 			; <UNDEFINED> instruction: 0x01194297
     474:	30000013 	andcc	r0, r0, r3, lsl r0
     478:	08030005 	stmdaeq	r3, {r0, r2}
     47c:	0b3b0b3a 	bleq	ec316c <__bss_end__+0xeb9144>
     480:	17021349 	strne	r1, [r2, -r9, asr #6]
     484:	2e310000 	cdpcs	0, 3, cr0, cr1, cr0, {0}
     488:	3a0e0301 	bcc	381094 <__bss_end__+0x37706c>
     48c:	270b3b0b 	strcs	r3, [fp, -fp, lsl #22]
     490:	12011119 	andne	r1, r1, #1073741830	; 0x40000006
     494:	97184006 	ldrls	r4, [r8, -r6]
     498:	13011942 	movwne	r1, #6466	; 0x1942
     49c:	0b320000 	bleq	c804a4 <__bss_end__+0xc7647c>
     4a0:	12011101 	andne	r1, r1, #1073741824	; 0x40000000
     4a4:	33000006 	movwcc	r0, #6
     4a8:	1331011d 	teqne	r1, #1073741831	; 0x40000007
     4ac:	17550152 			; <UNDEFINED> instruction: 0x17550152
     4b0:	0b590b58 	bleq	1643218 <__bss_end__+0x16391f0>
     4b4:	00001301 	andeq	r1, r0, r1, lsl #6
     4b8:	31000534 	tstcc	r0, r4, lsr r5
     4bc:	00170213 	andseq	r0, r7, r3, lsl r2
     4c0:	010b3500 	tsteq	fp, r0, lsl #10
     4c4:	00001755 	andeq	r1, r0, r5, asr r7
     4c8:	31003436 	tstcc	r0, r6, lsr r4
     4cc:	00170213 	andseq	r0, r7, r3, lsl r2
     4d0:	00343700 	eorseq	r3, r4, r0, lsl #14
     4d4:	0b3a0803 	bleq	e824e8 <__bss_end__+0xe784c0>
     4d8:	13490b3b 	movtne	r0, #39739	; 0x9b3b
     4dc:	00001802 	andeq	r1, r0, r2, lsl #16
     4e0:	03012e38 	movweq	r2, #7736	; 0x1e38
     4e4:	3b0b3a0e 	blcc	2ced24 <__bss_end__+0x2c4cfc>
     4e8:	2019270b 	andscs	r2, r9, fp, lsl #14
     4ec:	0013010b 	andseq	r0, r3, fp, lsl #2
     4f0:	00053900 	andeq	r3, r5, r0, lsl #18
     4f4:	0b3a0803 	bleq	e82508 <__bss_end__+0xe784e0>
     4f8:	13490b3b 	movtne	r0, #39739	; 0x9b3b
     4fc:	343a0000 	ldrtcc	r0, [sl], #-0
     500:	3a080300 	bcc	201108 <__bss_end__+0x1f70e0>
     504:	490b3b0b 	stmdbmi	fp, {r0, r1, r3, r8, r9, fp, ip, sp}
     508:	3b000013 	blcc	55c <_start-0x7aa4>
     50c:	193f002e 	ldmdbne	pc!, {r1, r2, r3, r5}	; <UNPREDICTABLE>
     510:	0e6e193c 			; <UNDEFINED> instruction: 0x0e6e193c
     514:	0b3a0e03 	bleq	e83d28 <__bss_end__+0xe79d00>
     518:	00000b3b 	andeq	r0, r0, fp, lsr fp
     51c:	01110100 	tsteq	r1, r0, lsl #2
     520:	0b130e25 	bleq	4c3dbc <__bss_end__+0x4b9d94>
     524:	0e1b0e03 	cdpeq	14, 1, cr0, cr11, cr3, {0}
     528:	06120111 			; <UNDEFINED> instruction: 0x06120111
     52c:	00001710 	andeq	r1, r0, r0, lsl r7
     530:	03001602 	movweq	r1, #1538	; 0x602
     534:	3b0b3a0e 	blcc	2ced74 <__bss_end__+0x2c4d4c>
     538:	0013490b 	andseq	r4, r3, fp, lsl #18
     53c:	01130300 	tsteq	r3, r0, lsl #6
     540:	0b0b0e03 	bleq	2c3d54 <__bss_end__+0x2b9d2c>
     544:	0b3b0b3a 	bleq	ec3234 <__bss_end__+0xeb920c>
     548:	00001301 	andeq	r1, r0, r1, lsl #6
     54c:	03000d04 	movweq	r0, #3332	; 0xd04
     550:	3813490e 	ldmdacc	r3, {r1, r2, r3, r8, fp, lr}
     554:	0019340b 	andseq	r3, r9, fp, lsl #8
     558:	000f0500 	andeq	r0, pc, r0, lsl #10
     55c:	00000b0b 	andeq	r0, r0, fp, lsl #22
     560:	0b002406 	bleq	9580 <kmalloc_init>
     564:	030b3e0b 	movweq	r3, #48651	; 0xbe0b
     568:	07000008 	streq	r0, [r0, -r8]
     56c:	0b0b0024 	bleq	2c0604 <__bss_end__+0x2b65dc>
     570:	0e030b3e 	vmoveq.16	d3[0], r0
     574:	16080000 	strne	r0, [r8], -r0
     578:	3a0e0300 	bcc	381180 <__bss_end__+0x377158>
     57c:	49053b0b 	stmdbmi	r5, {r0, r1, r3, r8, r9, fp, ip, sp}
     580:	09000013 	stmdbeq	r0, {r0, r1, r4}
     584:	0b0b0117 	bleq	2c09e8 <__bss_end__+0x2b69c0>
     588:	0b3b0b3a 	bleq	ec3278 <__bss_end__+0xeb9250>
     58c:	00001301 	andeq	r1, r0, r1, lsl #6
     590:	03000d0a 	movweq	r0, #3338	; 0xd0a
     594:	3b0b3a0e 	blcc	2cedd4 <__bss_end__+0x2c4dac>
     598:	0013490b 	andseq	r4, r3, fp, lsl #18
     59c:	01010b00 	tsteq	r1, r0, lsl #22
     5a0:	13011349 	movwne	r1, #4937	; 0x1349
     5a4:	210c0000 	mrscs	r0, (UNDEF: 12)
     5a8:	2f134900 	svccs	0x00134900
     5ac:	0d00000b 	stceq	0, cr0, [r0, #-44]	; 0xffffffd4
     5b0:	0b0b0113 	bleq	2c0a04 <__bss_end__+0x2b69dc>
     5b4:	0b3b0b3a 	bleq	ec32a4 <__bss_end__+0xeb927c>
     5b8:	00001301 	andeq	r1, r0, r1, lsl #6
     5bc:	03000d0e 	movweq	r0, #3342	; 0xd0e
     5c0:	3b0b3a0e 	blcc	2cee00 <__bss_end__+0x2c4dd8>
     5c4:	3813490b 	ldmdacc	r3, {r0, r1, r3, r8, fp, lr}
     5c8:	0f00000b 	svceq	0x0000000b
     5cc:	0b0b000f 	bleq	2c0610 <__bss_end__+0x2b65e8>
     5d0:	00001349 	andeq	r1, r0, r9, asr #6
     5d4:	49002610 	stmdbmi	r0, {r4, r9, sl, sp}
     5d8:	11000013 	tstne	r0, r3, lsl r0
     5dc:	0803000d 	stmdaeq	r3, {r0, r2, r3}
     5e0:	0b3b0b3a 	bleq	ec32d0 <__bss_end__+0xeb92a8>
     5e4:	0b381349 	bleq	e05310 <__bss_end__+0xdfb2e8>
     5e8:	13120000 	tstne	r2, #0
     5ec:	0b0e0301 	bleq	3811f8 <__bss_end__+0x3771d0>
     5f0:	3b0b3a05 	blcc	2cee0c <__bss_end__+0x2c4de4>
     5f4:	0013010b 	andseq	r0, r3, fp, lsl #2
     5f8:	000d1300 	andeq	r1, sp, r0, lsl #6
     5fc:	0b3a0e03 	bleq	e83e10 <__bss_end__+0xe79de8>
     600:	13490b3b 	movtne	r0, #39739	; 0x9b3b
     604:	00000538 	andeq	r0, r0, r8, lsr r5
     608:	27001514 	smladcs	r0, r4, r5, r1
     60c:	15000019 	strne	r0, [r0, #-25]	; 0xffffffe7
     610:	19270115 	stmdbne	r7!, {r0, r2, r4, r8}
     614:	13011349 	movwne	r1, #4937	; 0x1349
     618:	05160000 	ldreq	r0, [r6, #-0]
     61c:	00134900 	andseq	r4, r3, r0, lsl #18
     620:	01131700 	tsteq	r3, r0, lsl #14
     624:	050b0e03 	streq	r0, [fp, #-3587]	; 0xfffff1fd
     628:	053b0b3a 	ldreq	r0, [fp, #-2874]!	; 0xfffff4c6
     62c:	00001301 	andeq	r1, r0, r1, lsl #6
     630:	03000d18 	movweq	r0, #3352	; 0xd18
     634:	3b0b3a0e 	blcc	2cee74 <__bss_end__+0x2c4e4c>
     638:	38134905 	ldmdacc	r3, {r0, r2, r8, fp, lr}
     63c:	1900000b 	stmdbne	r0, {r0, r1, r3}
     640:	0e03000d 	cdpeq	0, 0, cr0, cr3, cr13, {0}
     644:	053b0b3a 	ldreq	r0, [fp, #-2874]!	; 0xfffff4c6
     648:	05381349 	ldreq	r1, [r8, #-841]!	; 0xfffffcb7
     64c:	131a0000 	tstne	sl, #0
     650:	0b0e0301 	bleq	38125c <__bss_end__+0x377234>
     654:	3b0b3a0b 	blcc	2cee88 <__bss_end__+0x2c4e60>
     658:	00130105 	andseq	r0, r3, r5, lsl #2
     65c:	01131b00 	tsteq	r3, r0, lsl #22
     660:	0b3a0b0b 	bleq	e83294 <__bss_end__+0xe7926c>
     664:	1301053b 	movwne	r0, #5435	; 0x153b
     668:	171c0000 	ldrne	r0, [ip, -r0]
     66c:	3a0b0b01 	bcc	2c3278 <__bss_end__+0x2b9250>
     670:	01053b0b 	tsteq	r5, fp, lsl #22
     674:	1d000013 	stcne	0, cr0, [r0, #-76]	; 0xffffffb4
     678:	0e03000d 	cdpeq	0, 0, cr0, cr3, cr13, {0}
     67c:	053b0b3a 	ldreq	r0, [fp, #-2874]!	; 0xfffff4c6
     680:	00001349 	andeq	r1, r0, r9, asr #6
     684:	2701151e 	smladcs	r1, lr, r5, r1
     688:	00130119 	andseq	r0, r3, r9, lsl r1
     68c:	00341f00 	eorseq	r1, r4, r0, lsl #30
     690:	0b3a0e03 	bleq	e83ea4 <__bss_end__+0xe79e7c>
     694:	1349053b 	movtne	r0, #38203	; 0x953b
     698:	193c193f 	ldmdbne	ip!, {r0, r1, r2, r3, r4, r5, r8, fp, ip}
     69c:	34200000 	strtcc	r0, [r0], #-0
     6a0:	3a0e0300 	bcc	3812a8 <__bss_end__+0x377280>
     6a4:	490b3b0b 	stmdbmi	fp, {r0, r1, r3, r8, r9, fp, ip, sp}
     6a8:	3c193f13 	ldccc	15, cr3, [r9], {19}
     6ac:	21000019 	tstcs	r0, r9, lsl r0
     6b0:	193f012e 	ldmdbne	pc!, {r1, r2, r3, r5, r8}	; <UNPREDICTABLE>
     6b4:	0b3a0e03 	bleq	e83ec8 <__bss_end__+0xe79ea0>
     6b8:	19270b3b 	stmdbne	r7!, {r0, r1, r3, r4, r5, r8, r9, fp}
     6bc:	01111349 	tsteq	r1, r9, asr #6
     6c0:	18400612 	stmdane	r0, {r1, r4, r9, sl}^
     6c4:	01194297 			; <UNDEFINED> instruction: 0x01194297
     6c8:	22000013 	andcs	r0, r0, #19
     6cc:	08030005 	stmdaeq	r3, {r0, r2}
     6d0:	0b3b0b3a 	bleq	ec33c0 <__bss_end__+0xeb9398>
     6d4:	18021349 	stmdane	r2, {r0, r3, r6, r8, r9, ip}
     6d8:	18230000 	stmdane	r3!, {}	; <UNPREDICTABLE>
     6dc:	24000000 	strcs	r0, [r0], #-0
     6e0:	08030034 	stmdaeq	r3, {r2, r4, r5}
     6e4:	0b3b0b3a 	bleq	ec33d4 <__bss_end__+0xeb93ac>
     6e8:	18021349 	stmdane	r2, {r0, r3, r6, r8, r9, ip}
     6ec:	34250000 	strtcc	r0, [r5], #-0
     6f0:	3a0e0300 	bcc	3812f8 <__bss_end__+0x3772d0>
     6f4:	490b3b0b 	stmdbmi	fp, {r0, r1, r3, r8, r9, fp, ip, sp}
     6f8:	00180213 	andseq	r0, r8, r3, lsl r2
     6fc:	00342600 	eorseq	r2, r4, r0, lsl #12
     700:	0b3a0803 	bleq	e82714 <__bss_end__+0xe786ec>
     704:	13490b3b 	movtne	r0, #39739	; 0x9b3b
     708:	00001702 	andeq	r1, r0, r2, lsl #14
     70c:	01828927 	orreq	r8, r2, r7, lsr #18
     710:	31011101 	tstcc	r1, r1, lsl #2
     714:	00130113 	andseq	r0, r3, r3, lsl r1
     718:	828a2800 	addhi	r2, sl, #0, 16
     71c:	18020001 	stmdane	r2, {r0}
     720:	00184291 	mulseq	r8, r1, r2
     724:	82892900 	addhi	r2, r9, #0, 18
     728:	01110101 	tsteq	r1, r1, lsl #2
     72c:	212a0000 			; <UNDEFINED> instruction: 0x212a0000
     730:	2f134900 	svccs	0x00134900
     734:	2b000005 	blcs	750 <_start-0x78b0>
     738:	193f002e 	ldmdbne	pc!, {r1, r2, r3, r5}	; <UNPREDICTABLE>
     73c:	0e6e193c 			; <UNDEFINED> instruction: 0x0e6e193c
     740:	0b3a0e03 	bleq	e83f54 <__bss_end__+0xe79f2c>
     744:	00000b3b 	andeq	r0, r0, fp, lsr fp
     748:	01110100 	tsteq	r1, r0, lsl #2
     74c:	0b130e25 	bleq	4c3fe8 <__bss_end__+0x4b9fc0>
     750:	0e1b0e03 	cdpeq	14, 1, cr0, cr11, cr3, {0}
     754:	06120111 			; <UNDEFINED> instruction: 0x06120111
     758:	00001710 	andeq	r1, r0, r0, lsl r7
     75c:	0b002402 	bleq	976c <__FUNCTION__.4339+0x74>
     760:	030b3e0b 	movweq	r3, #48651	; 0xbe0b
     764:	03000008 	movweq	r0, #8
     768:	0b0b0024 	bleq	2c0800 <__bss_end__+0x2b67d8>
     76c:	0e030b3e 	vmoveq.16	d3[0], r0
     770:	16040000 	strne	r0, [r4], -r0
     774:	3a0e0300 	bcc	38137c <__bss_end__+0x377354>
     778:	490b3b0b 	stmdbmi	fp, {r0, r1, r3, r8, r9, fp, ip, sp}
     77c:	05000013 	streq	r0, [r0, #-19]	; 0xffffffed
     780:	0e030016 	mcreq	0, 0, r0, cr3, cr6, {0}
     784:	053b0b3a 	ldreq	r0, [fp, #-2874]!	; 0xfffff4c6
     788:	00001349 	andeq	r1, r0, r9, asr #6
     78c:	0b011706 	bleq	463ac <__bss_end__+0x3c384>
     790:	3b0b3a0b 	blcc	2cefc4 <__bss_end__+0x2c4f9c>
     794:	0013010b 	andseq	r0, r3, fp, lsl #2
     798:	000d0700 	andeq	r0, sp, r0, lsl #14
     79c:	0b3a0e03 	bleq	e83fb0 <__bss_end__+0xe79f88>
     7a0:	13490b3b 	movtne	r0, #39739	; 0x9b3b
     7a4:	01080000 	mrseq	r0, (UNDEF: 8)
     7a8:	01134901 	tsteq	r3, r1, lsl #18
     7ac:	09000013 	stmdbeq	r0, {r0, r1, r4}
     7b0:	13490021 	movtne	r0, #36897	; 0x9021
     7b4:	00000b2f 	andeq	r0, r0, pc, lsr #22
     7b8:	0b01130a 	bleq	453e8 <__bss_end__+0x3b3c0>
     7bc:	3b0b3a0b 	blcc	2ceff0 <__bss_end__+0x2c4fc8>
     7c0:	0013010b 	andseq	r0, r3, fp, lsl #2
     7c4:	000d0b00 	andeq	r0, sp, r0, lsl #22
     7c8:	0b3a0e03 	bleq	e83fdc <__bss_end__+0xe79fb4>
     7cc:	13490b3b 	movtne	r0, #39739	; 0x9b3b
     7d0:	00000b38 	andeq	r0, r0, r8, lsr fp
     7d4:	0b000f0c 	bleq	440c <_start-0x3bf4>
     7d8:	0d00000b 	stceq	0, cr0, [r0, #-44]	; 0xffffffd4
     7dc:	0b0b000f 	bleq	2c0820 <__bss_end__+0x2b67f8>
     7e0:	00001349 	andeq	r1, r0, r9, asr #6
     7e4:	4900260e 	stmdbmi	r0, {r1, r2, r3, r9, sl, sp}
     7e8:	0f000013 	svceq	0x00000013
     7ec:	0e030113 	mcreq	1, 0, r0, cr3, cr3, {0}
     7f0:	0b3a0b0b 	bleq	e83424 <__bss_end__+0xe793fc>
     7f4:	13010b3b 	movwne	r0, #6971	; 0x1b3b
     7f8:	0d100000 	ldceq	0, cr0, [r0, #-0]
     7fc:	3a080300 	bcc	201404 <__bss_end__+0x1f73dc>
     800:	490b3b0b 	stmdbmi	fp, {r0, r1, r3, r8, r9, fp, ip, sp}
     804:	000b3813 	andeq	r3, fp, r3, lsl r8
     808:	01131100 	tsteq	r3, r0, lsl #2
     80c:	050b0e03 	streq	r0, [fp, #-3587]	; 0xfffff1fd
     810:	0b3b0b3a 	bleq	ec3500 <__bss_end__+0xeb94d8>
     814:	00001301 	andeq	r1, r0, r1, lsl #6
     818:	03000d12 	movweq	r0, #3346	; 0xd12
     81c:	3b0b3a0e 	blcc	2cf05c <__bss_end__+0x2c5034>
     820:	3813490b 	ldmdacc	r3, {r0, r1, r3, r8, fp, lr}
     824:	13000005 	movwne	r0, #5
     828:	19270015 	stmdbne	r7!, {r0, r2, r4}
     82c:	15140000 	ldrne	r0, [r4, #-0]
     830:	49192701 	ldmdbmi	r9, {r0, r8, r9, sl, sp}
     834:	00130113 	andseq	r0, r3, r3, lsl r1
     838:	00051500 	andeq	r1, r5, r0, lsl #10
     83c:	00001349 	andeq	r1, r0, r9, asr #6
     840:	03011316 	movweq	r1, #4886	; 0x1316
     844:	3a050b0e 	bcc	143484 <__bss_end__+0x13945c>
     848:	01053b0b 	tsteq	r5, fp, lsl #22
     84c:	17000013 	smladne	r0, r3, r0, r0
     850:	0e03000d 	cdpeq	0, 0, cr0, cr3, cr13, {0}
     854:	053b0b3a 	ldreq	r0, [fp, #-2874]!	; 0xfffff4c6
     858:	0b381349 	bleq	e05584 <__bss_end__+0xdfb55c>
     85c:	0d180000 	ldceq	0, cr0, [r8, #-0]
     860:	3a0e0300 	bcc	381468 <__bss_end__+0x377440>
     864:	49053b0b 	stmdbmi	r5, {r0, r1, r3, r8, r9, fp, ip, sp}
     868:	00053813 	andeq	r3, r5, r3, lsl r8
     86c:	01131900 	tsteq	r3, r0, lsl #18
     870:	0b0b0e03 	bleq	2c4084 <__bss_end__+0x2ba05c>
     874:	053b0b3a 	ldreq	r0, [fp, #-2874]!	; 0xfffff4c6
     878:	00001301 	andeq	r1, r0, r1, lsl #6
     87c:	0b01131a 	bleq	454ec <__bss_end__+0x3b4c4>
     880:	3b0b3a0b 	blcc	2cf0b4 <__bss_end__+0x2c508c>
     884:	00130105 	andseq	r0, r3, r5, lsl #2
     888:	01171b00 	tsteq	r7, r0, lsl #22
     88c:	0b3a0b0b 	bleq	e834c0 <__bss_end__+0xe79498>
     890:	1301053b 	movwne	r0, #5435	; 0x153b
     894:	0d1c0000 	ldceq	0, cr0, [ip, #-0]
     898:	3a0e0300 	bcc	3814a0 <__bss_end__+0x377478>
     89c:	49053b0b 	stmdbmi	r5, {r0, r1, r3, r8, r9, fp, ip, sp}
     8a0:	1d000013 	stcne	0, cr0, [r0, #-76]	; 0xffffffb4
     8a4:	19270115 	stmdbne	r7!, {r0, r2, r4, r8}
     8a8:	00001301 	andeq	r1, r0, r1, lsl #6
     8ac:	0300341e 	movweq	r3, #1054	; 0x41e
     8b0:	3b0b3a0e 	blcc	2cf0f0 <__bss_end__+0x2c50c8>
     8b4:	3f134905 	svccc	0x00134905
     8b8:	00193c19 	andseq	r3, r9, r9, lsl ip
     8bc:	00341f00 	eorseq	r1, r4, r0, lsl #30
     8c0:	0b3a0e03 	bleq	e840d4 <__bss_end__+0xe7a0ac>
     8c4:	13490b3b 	movtne	r0, #39739	; 0x9b3b
     8c8:	193c193f 	ldmdbne	ip!, {r0, r1, r2, r3, r4, r5, r8, fp, ip}
     8cc:	0d200000 	stceq	0, cr0, [r0, #-0]
     8d0:	490e0300 	stmdbmi	lr, {r8, r9}
     8d4:	340b3813 	strcc	r3, [fp], #-2067	; 0xfffff7ed
     8d8:	21000019 	tstcs	r0, r9, lsl r0
     8dc:	193f012e 	ldmdbne	pc!, {r1, r2, r3, r5, r8}	; <UNPREDICTABLE>
     8e0:	0b3a0e03 	bleq	e840f4 <__bss_end__+0xe7a0cc>
     8e4:	19270b3b 	stmdbne	r7!, {r0, r1, r3, r4, r5, r8, r9, fp}
     8e8:	01111349 	tsteq	r1, r9, asr #6
     8ec:	18400612 	stmdane	r0, {r1, r4, r9, sl}^
     8f0:	01194297 			; <UNDEFINED> instruction: 0x01194297
     8f4:	22000013 	andcs	r0, r0, #19
     8f8:	08030005 	stmdaeq	r3, {r0, r2}
     8fc:	0b3b0b3a 	bleq	ec35ec <__bss_end__+0xeb95c4>
     900:	17021349 	strne	r1, [r2, -r9, asr #6]
     904:	05230000 	streq	r0, [r3, #-0]!
     908:	3a0e0300 	bcc	381510 <__bss_end__+0x3774e8>
     90c:	490b3b0b 	stmdbmi	fp, {r0, r1, r3, r8, r9, fp, ip, sp}
     910:	00180213 	andseq	r0, r8, r3, lsl r2
     914:	00342400 	eorseq	r2, r4, r0, lsl #8
     918:	0b3a0803 	bleq	e8292c <__bss_end__+0xe78904>
     91c:	13490b3b 	movtne	r0, #39739	; 0x9b3b
     920:	00001702 	andeq	r1, r0, r2, lsl #14
     924:	03003425 	movweq	r3, #1061	; 0x425
     928:	3413490e 	ldrcc	r4, [r3], #-2318	; 0xfffff6f2
     92c:	00180219 	andseq	r0, r8, r9, lsl r2
     930:	010b2600 	tsteq	fp, r0, lsl #12
     934:	00001755 	andeq	r1, r0, r5, asr r7
     938:	03003427 	movweq	r3, #1063	; 0x427
     93c:	3b0b3a08 	blcc	2cf164 <__bss_end__+0x2c513c>
     940:	0213490b 	andseq	r4, r3, #180224	; 0x2c000
     944:	28000018 	stmdacs	r0, {r3, r4}
     948:	0e030034 	mcreq	0, 0, r0, cr3, cr4, {1}
     94c:	0b3b0b3a 	bleq	ec363c <__bss_end__+0xeb9614>
     950:	17021349 	strne	r1, [r2, -r9, asr #6]
     954:	89290000 	stmdbhi	r9!, {}	; <UNPREDICTABLE>
     958:	11010182 	smlabbne	r1, r2, r1, r0
     95c:	01133101 	tsteq	r3, r1, lsl #2
     960:	2a000013 	bcs	9b4 <_start-0x764c>
     964:	0001828a 	andeq	r8, r1, sl, lsl #5
     968:	42911802 	addsmi	r1, r1, #131072	; 0x20000
     96c:	2b000018 	blcs	9d4 <_start-0x762c>
     970:	00018289 	andeq	r8, r1, r9, lsl #5
     974:	13310111 	teqne	r1, #1073741828	; 0x40000004
     978:	2e2c0000 	cdpcs	0, 2, cr0, cr12, cr0, {0}
     97c:	3a0e0301 	bcc	381588 <__bss_end__+0x377560>
     980:	270b3b0b 	strcs	r3, [fp, -fp, lsl #22]
     984:	11134919 	tstne	r3, r9, lsl r9
     988:	40061201 	andmi	r1, r6, r1, lsl #4
     98c:	19429718 	stmdbne	r2, {r3, r4, r8, r9, sl, ip, pc}^
     990:	00001301 	andeq	r1, r0, r1, lsl #6
     994:	0300052d 	movweq	r0, #1325	; 0x52d
     998:	3b0b3a0e 	blcc	2cf1d8 <__bss_end__+0x2c51b0>
     99c:	0213490b 	andseq	r4, r3, #180224	; 0x2c000
     9a0:	2e000017 	mcrcs	0, 0, r0, cr0, cr7, {0}
     9a4:	0111010b 	tsteq	r1, fp, lsl #2
     9a8:	13010612 	movwne	r0, #5650	; 0x1612
     9ac:	2e2f0000 	cdpcs	0, 2, cr0, cr15, cr0, {0}
     9b0:	3a080301 	bcc	2015bc <__bss_end__+0x1f7594>
     9b4:	270b3b0b 	strcs	r3, [fp, -fp, lsl #22]
     9b8:	11134919 	tstne	r3, r9, lsl r9
     9bc:	40061201 	andmi	r1, r6, r1, lsl #4
     9c0:	19429718 	stmdbne	r2, {r3, r4, r8, r9, sl, ip, pc}^
     9c4:	00001301 	andeq	r1, r0, r1, lsl #6
     9c8:	3f012e30 	svccc	0x00012e30
     9cc:	3a0e0319 	bcc	381638 <__bss_end__+0x377610>
     9d0:	270b3b0b 	strcs	r3, [fp, -fp, lsl #22]
     9d4:	12011119 	andne	r1, r1, #1073741830	; 0x40000006
     9d8:	97184006 	ldrls	r4, [r8, -r6]
     9dc:	13011942 	movwne	r1, #6466	; 0x1942
     9e0:	2e310000 	cdpcs	0, 3, cr0, cr1, cr0, {0}
     9e4:	3c193f00 	ldccc	15, cr3, [r9], {-0}
     9e8:	030e6e19 	movweq	r6, #60953	; 0xee19
     9ec:	3b0b3a0e 	blcc	2cf22c <__bss_end__+0x2c5204>
     9f0:	0000000b 	andeq	r0, r0, fp
     9f4:	25011101 	strcs	r1, [r1, #-257]	; 0xfffffeff
     9f8:	030b130e 	movweq	r1, #45838	; 0xb30e
     9fc:	110e1b0e 	tstne	lr, lr, lsl #22
     a00:	10061201 	andne	r1, r6, r1, lsl #4
     a04:	02000017 	andeq	r0, r0, #23
     a08:	0b0b0024 	bleq	2c0aa0 <__bss_end__+0x2b6a78>
     a0c:	08030b3e 	stmdaeq	r3, {r1, r2, r3, r4, r5, r8, r9, fp}
     a10:	24030000 	strcs	r0, [r3], #-0
     a14:	3e0b0b00 	vmlacc.f64	d0, d11, d0
     a18:	000e030b 	andeq	r0, lr, fp, lsl #6
     a1c:	00160400 	andseq	r0, r6, r0, lsl #8
     a20:	0b3a0e03 	bleq	e84234 <__bss_end__+0xe7a20c>
     a24:	13490b3b 	movtne	r0, #39739	; 0x9b3b
     a28:	16050000 	strne	r0, [r5], -r0
     a2c:	3a0e0300 	bcc	381634 <__bss_end__+0x37760c>
     a30:	49053b0b 	stmdbmi	r5, {r0, r1, r3, r8, r9, fp, ip, sp}
     a34:	06000013 			; <UNDEFINED> instruction: 0x06000013
     a38:	0b0b0117 	bleq	2c0e9c <__bss_end__+0x2b6e74>
     a3c:	0b3b0b3a 	bleq	ec372c <__bss_end__+0xeb9704>
     a40:	00001301 	andeq	r1, r0, r1, lsl #6
     a44:	03000d07 	movweq	r0, #3335	; 0xd07
     a48:	3b0b3a0e 	blcc	2cf288 <__bss_end__+0x2c5260>
     a4c:	0013490b 	andseq	r4, r3, fp, lsl #18
     a50:	01010800 	tsteq	r1, r0, lsl #16
     a54:	13011349 	movwne	r1, #4937	; 0x1349
     a58:	21090000 	mrscs	r0, (UNDEF: 9)
     a5c:	2f134900 	svccs	0x00134900
     a60:	0a00000b 	beq	a94 <_start-0x756c>
     a64:	0b0b0113 	bleq	2c0eb8 <__bss_end__+0x2b6e90>
     a68:	0b3b0b3a 	bleq	ec3758 <__bss_end__+0xeb9730>
     a6c:	00001301 	andeq	r1, r0, r1, lsl #6
     a70:	03000d0b 	movweq	r0, #3339	; 0xd0b
     a74:	3b0b3a0e 	blcc	2cf2b4 <__bss_end__+0x2c528c>
     a78:	3813490b 	ldmdacc	r3, {r0, r1, r3, r8, fp, lr}
     a7c:	0c00000b 	stceq	0, cr0, [r0], {11}
     a80:	0b0b000f 	bleq	2c0ac4 <__bss_end__+0x2b6a9c>
     a84:	0f0d0000 	svceq	0x000d0000
     a88:	490b0b00 	stmdbmi	fp, {r8, r9, fp}
     a8c:	0e000013 	mcreq	0, 0, r0, cr0, cr3, {0}
     a90:	13490026 	movtne	r0, #36902	; 0x9026
     a94:	130f0000 	movwne	r0, #61440	; 0xf000
     a98:	0b0e0301 	bleq	3816a4 <__bss_end__+0x37767c>
     a9c:	3b0b3a0b 	blcc	2cf2d0 <__bss_end__+0x2c52a8>
     aa0:	0013010b 	andseq	r0, r3, fp, lsl #2
     aa4:	000d1000 	andeq	r1, sp, r0
     aa8:	0b3a0803 	bleq	e82abc <__bss_end__+0xe78a94>
     aac:	13490b3b 	movtne	r0, #39739	; 0x9b3b
     ab0:	00000b38 	andeq	r0, r0, r8, lsr fp
     ab4:	03011311 	movweq	r1, #4881	; 0x1311
     ab8:	3a050b0e 	bcc	1436f8 <__bss_end__+0x1396d0>
     abc:	010b3b0b 	tsteq	fp, fp, lsl #22
     ac0:	12000013 	andne	r0, r0, #19
     ac4:	0e03000d 	cdpeq	0, 0, cr0, cr3, cr13, {0}
     ac8:	0b3b0b3a 	bleq	ec37b8 <__bss_end__+0xeb9790>
     acc:	05381349 	ldreq	r1, [r8, #-841]!	; 0xfffffcb7
     ad0:	15130000 	ldrne	r0, [r3, #-0]
     ad4:	00192700 	andseq	r2, r9, r0, lsl #14
     ad8:	01151400 	tsteq	r5, r0, lsl #8
     adc:	13491927 	movtne	r1, #39207	; 0x9927
     ae0:	00001301 	andeq	r1, r0, r1, lsl #6
     ae4:	49000515 	stmdbmi	r0, {r0, r2, r4, r8, sl}
     ae8:	16000013 			; <UNDEFINED> instruction: 0x16000013
     aec:	0e030113 	mcreq	1, 0, r0, cr3, cr3, {0}
     af0:	0b3a050b 	bleq	e81f24 <__bss_end__+0xe77efc>
     af4:	1301053b 	movwne	r0, #5435	; 0x153b
     af8:	0d170000 	ldceq	0, cr0, [r7, #-0]
     afc:	3a0e0300 	bcc	381704 <__bss_end__+0x3776dc>
     b00:	49053b0b 	stmdbmi	r5, {r0, r1, r3, r8, r9, fp, ip, sp}
     b04:	000b3813 	andeq	r3, fp, r3, lsl r8
     b08:	000d1800 	andeq	r1, sp, r0, lsl #16
     b0c:	0b3a0e03 	bleq	e84320 <__bss_end__+0xe7a2f8>
     b10:	1349053b 	movtne	r0, #38203	; 0x953b
     b14:	00000538 	andeq	r0, r0, r8, lsr r5
     b18:	03011319 	movweq	r1, #4889	; 0x1319
     b1c:	3a0b0b0e 	bcc	2c375c <__bss_end__+0x2b9734>
     b20:	01053b0b 	tsteq	r5, fp, lsl #22
     b24:	1a000013 	bne	b78 <_start-0x7488>
     b28:	0b0b0113 	bleq	2c0f7c <__bss_end__+0x2b6f54>
     b2c:	053b0b3a 	ldreq	r0, [fp, #-2874]!	; 0xfffff4c6
     b30:	00001301 	andeq	r1, r0, r1, lsl #6
     b34:	0b01171b 	bleq	467a8 <__bss_end__+0x3c780>
     b38:	3b0b3a0b 	blcc	2cf36c <__bss_end__+0x2c5344>
     b3c:	00130105 	andseq	r0, r3, r5, lsl #2
     b40:	000d1c00 	andeq	r1, sp, r0, lsl #24
     b44:	0b3a0e03 	bleq	e84358 <__bss_end__+0xe7a330>
     b48:	1349053b 	movtne	r0, #38203	; 0x953b
     b4c:	151d0000 	ldrne	r0, [sp, #-0]
     b50:	01192701 	tsteq	r9, r1, lsl #14
     b54:	1e000013 	mcrne	0, 0, r0, cr0, cr3, {0}
     b58:	0e030034 	mcreq	0, 0, r0, cr3, cr4, {1}
     b5c:	053b0b3a 	ldreq	r0, [fp, #-2874]!	; 0xfffff4c6
     b60:	193f1349 	ldmdbne	pc!, {r0, r3, r6, r8, r9, ip}	; <UNPREDICTABLE>
     b64:	0000193c 	andeq	r1, r0, ip, lsr r9
     b68:	0300341f 	movweq	r3, #1055	; 0x41f
     b6c:	3b0b3a0e 	blcc	2cf3ac <__bss_end__+0x2c5384>
     b70:	3f13490b 	svccc	0x0013490b
     b74:	00193c19 	andseq	r3, r9, r9, lsl ip
     b78:	012e2000 			; <UNDEFINED> instruction: 0x012e2000
     b7c:	0e03193f 			; <UNDEFINED> instruction: 0x0e03193f
     b80:	0b3b0b3a 	bleq	ec3870 <__bss_end__+0xeb9848>
     b84:	13491927 	movtne	r1, #39207	; 0x9927
     b88:	06120111 			; <UNDEFINED> instruction: 0x06120111
     b8c:	42971840 	addsmi	r1, r7, #64, 16	; 0x400000
     b90:	00130119 	andseq	r0, r3, r9, lsl r1
     b94:	00052100 	andeq	r2, r5, r0, lsl #2
     b98:	0b3a0e03 	bleq	e843ac <__bss_end__+0xe7a384>
     b9c:	13490b3b 	movtne	r0, #39739	; 0x9b3b
     ba0:	00001702 	andeq	r1, r0, r2, lsl #14
     ba4:	03000522 	movweq	r0, #1314	; 0x522
     ba8:	3b0b3a08 	blcc	2cf3d0 <__bss_end__+0x2c53a8>
     bac:	0213490b 	andseq	r4, r3, #180224	; 0x2c000
     bb0:	23000017 	movwcs	r0, #23
     bb4:	0e030034 	mcreq	0, 0, r0, cr3, cr4, {1}
     bb8:	0b3b0b3a 	bleq	ec38a8 <__bss_end__+0xeb9880>
     bbc:	17021349 	strne	r1, [r2, -r9, asr #6]
     bc0:	34240000 	strtcc	r0, [r4], #-0
     bc4:	3a080300 	bcc	2017cc <__bss_end__+0x1f77a4>
     bc8:	490b3b0b 	stmdbmi	fp, {r0, r1, r3, r8, r9, fp, ip, sp}
     bcc:	00170213 	andseq	r0, r7, r3, lsl r2
     bd0:	00262500 	eoreq	r2, r6, r0, lsl #10
     bd4:	01000000 	mrseq	r0, (UNDEF: 0)
     bd8:	0e250111 	mcreq	1, 1, r0, cr5, cr1, {0}
     bdc:	0e030b13 	vmoveq.32	d3[0], r0
     be0:	01110e1b 	tsteq	r1, fp, lsl lr
     be4:	17100612 			; <UNDEFINED> instruction: 0x17100612
     be8:	24020000 	strcs	r0, [r2], #-0
     bec:	3e0b0b00 	vmlacc.f64	d0, d11, d0
     bf0:	0008030b 	andeq	r0, r8, fp, lsl #6
     bf4:	00240300 	eoreq	r0, r4, r0, lsl #6
     bf8:	0b3e0b0b 	bleq	f8382c <__bss_end__+0xf79804>
     bfc:	00000e03 	andeq	r0, r0, r3, lsl #28
     c00:	03001604 	movweq	r1, #1540	; 0x604
     c04:	3b0b3a0e 	blcc	2cf444 <__bss_end__+0x2c541c>
     c08:	0013490b 	andseq	r4, r3, fp, lsl #18
     c0c:	00160500 	andseq	r0, r6, r0, lsl #10
     c10:	0b3a0e03 	bleq	e84424 <__bss_end__+0xe7a3fc>
     c14:	1349053b 	movtne	r0, #38203	; 0x953b
     c18:	17060000 	strne	r0, [r6, -r0]
     c1c:	3a0b0b01 	bcc	2c3828 <__bss_end__+0x2b9800>
     c20:	010b3b0b 	tsteq	fp, fp, lsl #22
     c24:	07000013 	smladeq	r0, r3, r0, r0
     c28:	0e03000d 	cdpeq	0, 0, cr0, cr3, cr13, {0}
     c2c:	0b3b0b3a 	bleq	ec391c <__bss_end__+0xeb98f4>
     c30:	00001349 	andeq	r1, r0, r9, asr #6
     c34:	49010108 	stmdbmi	r1, {r3, r8}
     c38:	00130113 	andseq	r0, r3, r3, lsl r1
     c3c:	00210900 	eoreq	r0, r1, r0, lsl #18
     c40:	0b2f1349 	bleq	bc596c <__bss_end__+0xbbb944>
     c44:	130a0000 	movwne	r0, #40960	; 0xa000
     c48:	3a0b0b01 	bcc	2c3854 <__bss_end__+0x2b982c>
     c4c:	010b3b0b 	tsteq	fp, fp, lsl #22
     c50:	0b000013 	bleq	ca4 <_start-0x735c>
     c54:	0e03000d 	cdpeq	0, 0, cr0, cr3, cr13, {0}
     c58:	0b3b0b3a 	bleq	ec3948 <__bss_end__+0xeb9920>
     c5c:	0b381349 	bleq	e05988 <__bss_end__+0xdfb960>
     c60:	0f0c0000 	svceq	0x000c0000
     c64:	000b0b00 	andeq	r0, fp, r0, lsl #22
     c68:	000f0d00 	andeq	r0, pc, r0, lsl #26
     c6c:	13490b0b 	movtne	r0, #39691	; 0x9b0b
     c70:	260e0000 	strcs	r0, [lr], -r0
     c74:	00134900 	andseq	r4, r3, r0, lsl #18
     c78:	01130f00 	tsteq	r3, r0, lsl #30
     c7c:	0b0b0e03 	bleq	2c4490 <__bss_end__+0x2ba468>
     c80:	0b3b0b3a 	bleq	ec3970 <__bss_end__+0xeb9948>
     c84:	00001301 	andeq	r1, r0, r1, lsl #6
     c88:	03000d10 	movweq	r0, #3344	; 0xd10
     c8c:	3b0b3a08 	blcc	2cf4b4 <__bss_end__+0x2c548c>
     c90:	3813490b 	ldmdacc	r3, {r0, r1, r3, r8, fp, lr}
     c94:	1100000b 	tstne	r0, fp
     c98:	0e030113 	mcreq	1, 0, r0, cr3, cr3, {0}
     c9c:	0b3a050b 	bleq	e820d0 <__bss_end__+0xe780a8>
     ca0:	13010b3b 	movwne	r0, #6971	; 0x1b3b
     ca4:	0d120000 	ldceq	0, cr0, [r2, #-0]
     ca8:	3a0e0300 	bcc	3818b0 <__bss_end__+0x377888>
     cac:	490b3b0b 	stmdbmi	fp, {r0, r1, r3, r8, r9, fp, ip, sp}
     cb0:	00053813 	andeq	r3, r5, r3, lsl r8
     cb4:	00151300 	andseq	r1, r5, r0, lsl #6
     cb8:	00001927 	andeq	r1, r0, r7, lsr #18
     cbc:	27011514 	smladcs	r1, r4, r5, r1
     cc0:	01134919 	tsteq	r3, r9, lsl r9
     cc4:	15000013 	strne	r0, [r0, #-19]	; 0xffffffed
     cc8:	13490005 	movtne	r0, #36869	; 0x9005
     ccc:	13160000 	tstne	r6, #0
     cd0:	0b0e0301 	bleq	3818dc <__bss_end__+0x3778b4>
     cd4:	3b0b3a05 	blcc	2cf4f0 <__bss_end__+0x2c54c8>
     cd8:	00130105 	andseq	r0, r3, r5, lsl #2
     cdc:	000d1700 	andeq	r1, sp, r0, lsl #14
     ce0:	0b3a0e03 	bleq	e844f4 <__bss_end__+0xe7a4cc>
     ce4:	1349053b 	movtne	r0, #38203	; 0x953b
     ce8:	00000b38 	andeq	r0, r0, r8, lsr fp
     cec:	03000d18 	movweq	r0, #3352	; 0xd18
     cf0:	3b0b3a0e 	blcc	2cf530 <__bss_end__+0x2c5508>
     cf4:	38134905 	ldmdacc	r3, {r0, r2, r8, fp, lr}
     cf8:	19000005 	stmdbne	r0, {r0, r2}
     cfc:	0e030113 	mcreq	1, 0, r0, cr3, cr3, {0}
     d00:	0b3a0b0b 	bleq	e83934 <__bss_end__+0xe7990c>
     d04:	1301053b 	movwne	r0, #5435	; 0x153b
     d08:	131a0000 	tstne	sl, #0
     d0c:	3a0b0b01 	bcc	2c3918 <__bss_end__+0x2b98f0>
     d10:	01053b0b 	tsteq	r5, fp, lsl #22
     d14:	1b000013 	blne	d68 <_start-0x7298>
     d18:	0b0b0117 	bleq	2c117c <__bss_end__+0x2b7154>
     d1c:	053b0b3a 	ldreq	r0, [fp, #-2874]!	; 0xfffff4c6
     d20:	00001301 	andeq	r1, r0, r1, lsl #6
     d24:	03000d1c 	movweq	r0, #3356	; 0xd1c
     d28:	3b0b3a0e 	blcc	2cf568 <__bss_end__+0x2c5540>
     d2c:	00134905 	andseq	r4, r3, r5, lsl #18
     d30:	01151d00 	tsteq	r5, r0, lsl #26
     d34:	13011927 	movwne	r1, #6439	; 0x1927
     d38:	341e0000 	ldrcc	r0, [lr], #-0
     d3c:	3a0e0300 	bcc	381944 <__bss_end__+0x37791c>
     d40:	49053b0b 	stmdbmi	r5, {r0, r1, r3, r8, r9, fp, ip, sp}
     d44:	3c193f13 	ldccc	15, cr3, [r9], {19}
     d48:	1f000019 	svcne	0x00000019
     d4c:	0e030034 	mcreq	0, 0, r0, cr3, cr4, {1}
     d50:	0b3b0b3a 	bleq	ec3a40 <__bss_end__+0xeb9a18>
     d54:	193f1349 	ldmdbne	pc!, {r0, r3, r6, r8, r9, ip}	; <UNPREDICTABLE>
     d58:	0000193c 	andeq	r1, r0, ip, lsr r9
     d5c:	47003420 	strmi	r3, [r0, -r0, lsr #8]
     d60:	3b0b3a13 	blcc	2cf5b4 <__bss_end__+0x2c558c>
     d64:	0018020b 	andseq	r0, r8, fp, lsl #4
     d68:	012e2100 			; <UNDEFINED> instruction: 0x012e2100
     d6c:	0e03193f 			; <UNDEFINED> instruction: 0x0e03193f
     d70:	0b3b0b3a 	bleq	ec3a60 <__bss_end__+0xeb9a38>
     d74:	13491927 	movtne	r1, #39207	; 0x9927
     d78:	06120111 			; <UNDEFINED> instruction: 0x06120111
     d7c:	42961840 	addsmi	r1, r6, #64, 16	; 0x400000
     d80:	22000019 	andcs	r0, r0, #25
     d84:	08030005 	stmdaeq	r3, {r0, r2}
     d88:	0b3b0b3a 	bleq	ec3a78 <__bss_end__+0xeb9a50>
     d8c:	17021349 	strne	r1, [r2, -r9, asr #6]
     d90:	01000000 	mrseq	r0, (UNDEF: 0)
     d94:	0e250111 	mcreq	1, 1, r0, cr5, cr1, {0}
     d98:	0e030b13 	vmoveq.32	d3[0], r0
     d9c:	01110e1b 	tsteq	r1, fp, lsl lr
     da0:	17100612 			; <UNDEFINED> instruction: 0x17100612
     da4:	24020000 	strcs	r0, [r2], #-0
     da8:	3e0b0b00 	vmlacc.f64	d0, d11, d0
     dac:	0008030b 	andeq	r0, r8, fp, lsl #6
     db0:	00240300 	eoreq	r0, r4, r0, lsl #6
     db4:	0b3e0b0b 	bleq	f839e8 <__bss_end__+0xf799c0>
     db8:	00000e03 	andeq	r0, r0, r3, lsl #28
     dbc:	03001604 	movweq	r1, #1540	; 0x604
     dc0:	3b0b3a0e 	blcc	2cf600 <__bss_end__+0x2c55d8>
     dc4:	0013490b 	andseq	r4, r3, fp, lsl #18
     dc8:	00160500 	andseq	r0, r6, r0, lsl #10
     dcc:	0b3a0e03 	bleq	e845e0 <__bss_end__+0xe7a5b8>
     dd0:	1349053b 	movtne	r0, #38203	; 0x953b
     dd4:	17060000 	strne	r0, [r6, -r0]
     dd8:	3a0b0b01 	bcc	2c39e4 <__bss_end__+0x2b99bc>
     ddc:	010b3b0b 	tsteq	fp, fp, lsl #22
     de0:	07000013 	smladeq	r0, r3, r0, r0
     de4:	0e03000d 	cdpeq	0, 0, cr0, cr3, cr13, {0}
     de8:	0b3b0b3a 	bleq	ec3ad8 <__bss_end__+0xeb9ab0>
     dec:	00001349 	andeq	r1, r0, r9, asr #6
     df0:	49010108 	stmdbmi	r1, {r3, r8}
     df4:	00130113 	andseq	r0, r3, r3, lsl r1
     df8:	00210900 	eoreq	r0, r1, r0, lsl #18
     dfc:	0b2f1349 	bleq	bc5b28 <__bss_end__+0xbbbb00>
     e00:	130a0000 	movwne	r0, #40960	; 0xa000
     e04:	3a0b0b01 	bcc	2c3a10 <__bss_end__+0x2b99e8>
     e08:	010b3b0b 	tsteq	fp, fp, lsl #22
     e0c:	0b000013 	bleq	e60 <_start-0x71a0>
     e10:	0e03000d 	cdpeq	0, 0, cr0, cr3, cr13, {0}
     e14:	0b3b0b3a 	bleq	ec3b04 <__bss_end__+0xeb9adc>
     e18:	0b381349 	bleq	e05b44 <__bss_end__+0xdfbb1c>
     e1c:	0f0c0000 	svceq	0x000c0000
     e20:	000b0b00 	andeq	r0, fp, r0, lsl #22
     e24:	000f0d00 	andeq	r0, pc, r0, lsl #26
     e28:	13490b0b 	movtne	r0, #39691	; 0x9b0b
     e2c:	260e0000 	strcs	r0, [lr], -r0
     e30:	00134900 	andseq	r4, r3, r0, lsl #18
     e34:	01130f00 	tsteq	r3, r0, lsl #30
     e38:	0b0b0e03 	bleq	2c464c <__bss_end__+0x2ba624>
     e3c:	0b3b0b3a 	bleq	ec3b2c <__bss_end__+0xeb9b04>
     e40:	00001301 	andeq	r1, r0, r1, lsl #6
     e44:	03000d10 	movweq	r0, #3344	; 0xd10
     e48:	3b0b3a08 	blcc	2cf670 <__bss_end__+0x2c5648>
     e4c:	3813490b 	ldmdacc	r3, {r0, r1, r3, r8, fp, lr}
     e50:	1100000b 	tstne	r0, fp
     e54:	0e030113 	mcreq	1, 0, r0, cr3, cr3, {0}
     e58:	0b3a050b 	bleq	e8228c <__bss_end__+0xe78264>
     e5c:	13010b3b 	movwne	r0, #6971	; 0x1b3b
     e60:	0d120000 	ldceq	0, cr0, [r2, #-0]
     e64:	3a0e0300 	bcc	381a6c <__bss_end__+0x377a44>
     e68:	490b3b0b 	stmdbmi	fp, {r0, r1, r3, r8, r9, fp, ip, sp}
     e6c:	00053813 	andeq	r3, r5, r3, lsl r8
     e70:	00151300 	andseq	r1, r5, r0, lsl #6
     e74:	00001927 	andeq	r1, r0, r7, lsr #18
     e78:	27011514 	smladcs	r1, r4, r5, r1
     e7c:	01134919 	tsteq	r3, r9, lsl r9
     e80:	15000013 	strne	r0, [r0, #-19]	; 0xffffffed
     e84:	13490005 	movtne	r0, #36869	; 0x9005
     e88:	13160000 	tstne	r6, #0
     e8c:	0b0e0301 	bleq	381a98 <__bss_end__+0x377a70>
     e90:	3b0b3a05 	blcc	2cf6ac <__bss_end__+0x2c5684>
     e94:	00130105 	andseq	r0, r3, r5, lsl #2
     e98:	000d1700 	andeq	r1, sp, r0, lsl #14
     e9c:	0b3a0e03 	bleq	e846b0 <__bss_end__+0xe7a688>
     ea0:	1349053b 	movtne	r0, #38203	; 0x953b
     ea4:	00000b38 	andeq	r0, r0, r8, lsr fp
     ea8:	03000d18 	movweq	r0, #3352	; 0xd18
     eac:	3b0b3a0e 	blcc	2cf6ec <__bss_end__+0x2c56c4>
     eb0:	38134905 	ldmdacc	r3, {r0, r2, r8, fp, lr}
     eb4:	19000005 	stmdbne	r0, {r0, r2}
     eb8:	0e030113 	mcreq	1, 0, r0, cr3, cr3, {0}
     ebc:	0b3a0b0b 	bleq	e83af0 <__bss_end__+0xe79ac8>
     ec0:	1301053b 	movwne	r0, #5435	; 0x153b
     ec4:	131a0000 	tstne	sl, #0
     ec8:	3a0b0b01 	bcc	2c3ad4 <__bss_end__+0x2b9aac>
     ecc:	01053b0b 	tsteq	r5, fp, lsl #22
     ed0:	1b000013 	blne	f24 <_start-0x70dc>
     ed4:	0b0b0117 	bleq	2c1338 <__bss_end__+0x2b7310>
     ed8:	053b0b3a 	ldreq	r0, [fp, #-2874]!	; 0xfffff4c6
     edc:	00001301 	andeq	r1, r0, r1, lsl #6
     ee0:	03000d1c 	movweq	r0, #3356	; 0xd1c
     ee4:	3b0b3a0e 	blcc	2cf724 <__bss_end__+0x2c56fc>
     ee8:	00134905 	andseq	r4, r3, r5, lsl #18
     eec:	01151d00 	tsteq	r5, r0, lsl #26
     ef0:	13011927 	movwne	r1, #6439	; 0x1927
     ef4:	341e0000 	ldrcc	r0, [lr], #-0
     ef8:	3a0e0300 	bcc	381b00 <__bss_end__+0x377ad8>
     efc:	49053b0b 	stmdbmi	r5, {r0, r1, r3, r8, r9, fp, ip, sp}
     f00:	3c193f13 	ldccc	15, cr3, [r9], {19}
     f04:	1f000019 	svcne	0x00000019
     f08:	0e030034 	mcreq	0, 0, r0, cr3, cr4, {1}
     f0c:	0b3b0b3a 	bleq	ec3bfc <__bss_end__+0xeb9bd4>
     f10:	193f1349 	ldmdbne	pc!, {r0, r3, r6, r8, r9, ip}	; <UNPREDICTABLE>
     f14:	0000193c 	andeq	r1, r0, ip, lsr r9
     f18:	47003420 	strmi	r3, [r0, -r0, lsr #8]
     f1c:	3b0b3a13 	blcc	2cf770 <__bss_end__+0x2c5748>
     f20:	0018020b 	andseq	r0, r8, fp, lsl #4
     f24:	012e2100 			; <UNDEFINED> instruction: 0x012e2100
     f28:	0e03193f 			; <UNDEFINED> instruction: 0x0e03193f
     f2c:	0b3b0b3a 	bleq	ec3c1c <__bss_end__+0xeb9bf4>
     f30:	01111927 	tsteq	r1, r7, lsr #18
     f34:	18400612 	stmdane	r0, {r1, r4, r9, sl}^
     f38:	01194297 			; <UNDEFINED> instruction: 0x01194297
     f3c:	22000013 	andcs	r0, r0, #19
     f40:	08030005 	stmdaeq	r3, {r0, r2}
     f44:	0b3b0b3a 	bleq	ec3c34 <__bss_end__+0xeb9c0c>
     f48:	18021349 	stmdane	r2, {r0, r3, r6, r8, r9, ip}
     f4c:	2e230000 	cdpcs	0, 2, cr0, cr3, cr0, {0}
     f50:	03193f00 	tsteq	r9, #0, 30
     f54:	3b0b3a0e 	blcc	2cf794 <__bss_end__+0x2c576c>
     f58:	1119270b 	tstne	r9, fp, lsl #14
     f5c:	40061201 	andmi	r1, r6, r1, lsl #4
     f60:	19429718 	stmdbne	r2, {r3, r4, r8, r9, sl, ip, pc}^
     f64:	2e240000 	cdpcs	0, 2, cr0, cr4, cr0, {0}
     f68:	3a0e0301 	bcc	381b74 <__bss_end__+0x377b4c>
     f6c:	270b3b0b 	strcs	r3, [fp, -fp, lsl #22]
     f70:	11134919 	tstne	r3, r9, lsl r9
     f74:	40061201 	andmi	r1, r6, r1, lsl #4
     f78:	19429718 	stmdbne	r2, {r3, r4, r8, r9, sl, ip, pc}^
     f7c:	00001301 	andeq	r1, r0, r1, lsl #6
     f80:	03000525 	movweq	r0, #1317	; 0x525
     f84:	3b0b3a08 	blcc	2cf7ac <__bss_end__+0x2c5784>
     f88:	0213490b 	andseq	r4, r3, #180224	; 0x2c000
     f8c:	26000017 			; <UNDEFINED> instruction: 0x26000017
     f90:	01018289 	smlabbeq	r1, r9, r2, r8
     f94:	13310111 	teqne	r1, #1073741828	; 0x40000004
     f98:	8a270000 	bhi	9c0fa0 <__bss_end__+0x9b6f78>
     f9c:	02000182 	andeq	r0, r0, #-2147483616	; 0x80000020
     fa0:	18429118 	stmdane	r2, {r3, r4, r8, ip, pc}^
     fa4:	2e280000 	cdpcs	0, 2, cr0, cr8, cr0, {0}
     fa8:	3c193f00 	ldccc	15, cr3, [r9], {-0}
     fac:	030e6e19 	movweq	r6, #60953	; 0xee19
     fb0:	3b0b3a0e 	blcc	2cf7f0 <__bss_end__+0x2c57c8>
     fb4:	0000000b 	andeq	r0, r0, fp
     fb8:	25011101 	strcs	r1, [r1, #-257]	; 0xfffffeff
     fbc:	030b130e 	movweq	r1, #45838	; 0xb30e
     fc0:	110e1b0e 	tstne	lr, lr, lsl #22
     fc4:	10061201 	andne	r1, r6, r1, lsl #4
     fc8:	02000017 	andeq	r0, r0, #23
     fcc:	0b0b0024 	bleq	2c1064 <__bss_end__+0x2b703c>
     fd0:	08030b3e 	stmdaeq	r3, {r1, r2, r3, r4, r5, r8, r9, fp}
     fd4:	16030000 	strne	r0, [r3], -r0
     fd8:	3a0e0300 	bcc	381be0 <__bss_end__+0x377bb8>
     fdc:	490b3b0b 	stmdbmi	fp, {r0, r1, r3, r8, r9, fp, ip, sp}
     fe0:	04000013 	streq	r0, [r0], #-19	; 0xffffffed
     fe4:	0b0b0024 	bleq	2c107c <__bss_end__+0x2b7054>
     fe8:	0e030b3e 	vmoveq.16	d3[0], r0
     fec:	16050000 	strne	r0, [r5], -r0
     ff0:	3a0e0300 	bcc	381bf8 <__bss_end__+0x377bd0>
     ff4:	49053b0b 	stmdbmi	r5, {r0, r1, r3, r8, r9, fp, ip, sp}
     ff8:	06000013 			; <UNDEFINED> instruction: 0x06000013
     ffc:	0b0b0117 	bleq	2c1460 <__bss_end__+0x2b7438>
    1000:	0b3b0b3a 	bleq	ec3cf0 <__bss_end__+0xeb9cc8>
    1004:	00001301 	andeq	r1, r0, r1, lsl #6
    1008:	03000d07 	movweq	r0, #3335	; 0xd07
    100c:	3b0b3a0e 	blcc	2cf84c <__bss_end__+0x2c5824>
    1010:	0013490b 	andseq	r4, r3, fp, lsl #18
    1014:	01010800 	tsteq	r1, r0, lsl #16
    1018:	13011349 	movwne	r1, #4937	; 0x1349
    101c:	21090000 	mrscs	r0, (UNDEF: 9)
    1020:	2f134900 	svccs	0x00134900
    1024:	0a00000b 	beq	1058 <_start-0x6fa8>
    1028:	0b0b0113 	bleq	2c147c <__bss_end__+0x2b7454>
    102c:	0b3b0b3a 	bleq	ec3d1c <__bss_end__+0xeb9cf4>
    1030:	00001301 	andeq	r1, r0, r1, lsl #6
    1034:	03000d0b 	movweq	r0, #3339	; 0xd0b
    1038:	3b0b3a0e 	blcc	2cf878 <__bss_end__+0x2c5850>
    103c:	3813490b 	ldmdacc	r3, {r0, r1, r3, r8, fp, lr}
    1040:	0c00000b 	stceq	0, cr0, [r0], {11}
    1044:	0b0b000f 	bleq	2c1088 <__bss_end__+0x2b7060>
    1048:	0f0d0000 	svceq	0x000d0000
    104c:	490b0b00 	stmdbmi	fp, {r8, r9, fp}
    1050:	0e000013 	mcreq	0, 0, r0, cr0, cr3, {0}
    1054:	13490026 	movtne	r0, #36902	; 0x9026
    1058:	130f0000 	movwne	r0, #61440	; 0xf000
    105c:	0b0e0301 	bleq	381c68 <__bss_end__+0x377c40>
    1060:	3b0b3a0b 	blcc	2cf894 <__bss_end__+0x2c586c>
    1064:	0013010b 	andseq	r0, r3, fp, lsl #2
    1068:	000d1000 	andeq	r1, sp, r0
    106c:	0b3a0803 	bleq	e83080 <__bss_end__+0xe79058>
    1070:	13490b3b 	movtne	r0, #39739	; 0x9b3b
    1074:	00000b38 	andeq	r0, r0, r8, lsr fp
    1078:	03011311 	movweq	r1, #4881	; 0x1311
    107c:	3a050b0e 	bcc	143cbc <__bss_end__+0x139c94>
    1080:	010b3b0b 	tsteq	fp, fp, lsl #22
    1084:	12000013 	andne	r0, r0, #19
    1088:	0e03000d 	cdpeq	0, 0, cr0, cr3, cr13, {0}
    108c:	0b3b0b3a 	bleq	ec3d7c <__bss_end__+0xeb9d54>
    1090:	05381349 	ldreq	r1, [r8, #-841]!	; 0xfffffcb7
    1094:	15130000 	ldrne	r0, [r3, #-0]
    1098:	00192700 	andseq	r2, r9, r0, lsl #14
    109c:	01151400 	tsteq	r5, r0, lsl #8
    10a0:	13491927 	movtne	r1, #39207	; 0x9927
    10a4:	00001301 	andeq	r1, r0, r1, lsl #6
    10a8:	49000515 	stmdbmi	r0, {r0, r2, r4, r8, sl}
    10ac:	16000013 			; <UNDEFINED> instruction: 0x16000013
    10b0:	0e030113 	mcreq	1, 0, r0, cr3, cr3, {0}
    10b4:	0b3a050b 	bleq	e824e8 <__bss_end__+0xe784c0>
    10b8:	1301053b 	movwne	r0, #5435	; 0x153b
    10bc:	0d170000 	ldceq	0, cr0, [r7, #-0]
    10c0:	3a0e0300 	bcc	381cc8 <__bss_end__+0x377ca0>
    10c4:	49053b0b 	stmdbmi	r5, {r0, r1, r3, r8, r9, fp, ip, sp}
    10c8:	000b3813 	andeq	r3, fp, r3, lsl r8
    10cc:	000d1800 	andeq	r1, sp, r0, lsl #16
    10d0:	0b3a0e03 	bleq	e848e4 <__bss_end__+0xe7a8bc>
    10d4:	1349053b 	movtne	r0, #38203	; 0x953b
    10d8:	00000538 	andeq	r0, r0, r8, lsr r5
    10dc:	03011319 	movweq	r1, #4889	; 0x1319
    10e0:	3a0b0b0e 	bcc	2c3d20 <__bss_end__+0x2b9cf8>
    10e4:	01053b0b 	tsteq	r5, fp, lsl #22
    10e8:	1a000013 	bne	113c <_start-0x6ec4>
    10ec:	0b0b0113 	bleq	2c1540 <__bss_end__+0x2b7518>
    10f0:	053b0b3a 	ldreq	r0, [fp, #-2874]!	; 0xfffff4c6
    10f4:	00001301 	andeq	r1, r0, r1, lsl #6
    10f8:	0b01171b 	bleq	46d6c <__bss_end__+0x3cd44>
    10fc:	3b0b3a0b 	blcc	2cf930 <__bss_end__+0x2c5908>
    1100:	00130105 	andseq	r0, r3, r5, lsl #2
    1104:	000d1c00 	andeq	r1, sp, r0, lsl #24
    1108:	0b3a0e03 	bleq	e8491c <__bss_end__+0xe7a8f4>
    110c:	1349053b 	movtne	r0, #38203	; 0x953b
    1110:	151d0000 	ldrne	r0, [sp, #-0]
    1114:	01192701 	tsteq	r9, r1, lsl #14
    1118:	1e000013 	mcrne	0, 0, r0, cr0, cr3, {0}
    111c:	0e030034 	mcreq	0, 0, r0, cr3, cr4, {1}
    1120:	053b0b3a 	ldreq	r0, [fp, #-2874]!	; 0xfffff4c6
    1124:	193f1349 	ldmdbne	pc!, {r0, r3, r6, r8, r9, ip}	; <UNPREDICTABLE>
    1128:	0000193c 	andeq	r1, r0, ip, lsr r9
    112c:	3f012e1f 	svccc	0x00012e1f
    1130:	3a0e0319 	bcc	381d9c <__bss_end__+0x377d74>
    1134:	270b3b0b 	strcs	r3, [fp, -fp, lsl #22]
    1138:	11134919 	tstne	r3, r9, lsl r9
    113c:	40061201 	andmi	r1, r6, r1, lsl #4
    1140:	19429718 	stmdbne	r2, {r3, r4, r8, r9, sl, ip, pc}^
    1144:	05200000 	streq	r0, [r0, #-0]!
    1148:	3a080300 	bcc	201d50 <__bss_end__+0x1f7d28>
    114c:	490b3b0b 	stmdbmi	fp, {r0, r1, r3, r8, r9, fp, ip, sp}
    1150:	00180213 	andseq	r0, r8, r3, lsl r2
    1154:	00052100 	andeq	r2, r5, r0, lsl #2
    1158:	0b3a0803 	bleq	e8316c <__bss_end__+0xe79144>
    115c:	13490b3b 	movtne	r0, #39739	; 0x9b3b
    1160:	00001702 	andeq	r1, r0, r2, lsl #14
    1164:	03003422 	movweq	r3, #1058	; 0x422
    1168:	3b0b3a08 	blcc	2cf990 <__bss_end__+0x2c5968>
    116c:	0213490b 	andseq	r4, r3, #180224	; 0x2c000
    1170:	23000017 	movwcs	r0, #23
    1174:	08030034 	stmdaeq	r3, {r2, r4, r5}
    1178:	0b3b0b3a 	bleq	ec3e68 <__bss_end__+0xeb9e40>
    117c:	18021349 	stmdane	r2, {r0, r3, r6, r8, r9, ip}
    1180:	01000000 	mrseq	r0, (UNDEF: 0)
    1184:	0e250111 	mcreq	1, 1, r0, cr5, cr1, {0}
    1188:	0e030b13 	vmoveq.32	d3[0], r0
    118c:	01110e1b 	tsteq	r1, fp, lsl lr
    1190:	17100612 			; <UNDEFINED> instruction: 0x17100612
    1194:	24020000 	strcs	r0, [r2], #-0
    1198:	3e0b0b00 	vmlacc.f64	d0, d11, d0
    119c:	0008030b 	andeq	r0, r8, fp, lsl #6
    11a0:	00240300 	eoreq	r0, r4, r0, lsl #6
    11a4:	0b3e0b0b 	bleq	f83dd8 <__bss_end__+0xf79db0>
    11a8:	00000e03 	andeq	r0, r0, r3, lsl #28
    11ac:	03001604 	movweq	r1, #1540	; 0x604
    11b0:	3b0b3a0e 	blcc	2cf9f0 <__bss_end__+0x2c59c8>
    11b4:	0013490b 	andseq	r4, r3, fp, lsl #18
    11b8:	00160500 	andseq	r0, r6, r0, lsl #10
    11bc:	0b3a0e03 	bleq	e849d0 <__bss_end__+0xe7a9a8>
    11c0:	1349053b 	movtne	r0, #38203	; 0x953b
    11c4:	17060000 	strne	r0, [r6, -r0]
    11c8:	3a0b0b01 	bcc	2c3dd4 <__bss_end__+0x2b9dac>
    11cc:	010b3b0b 	tsteq	fp, fp, lsl #22
    11d0:	07000013 	smladeq	r0, r3, r0, r0
    11d4:	0e03000d 	cdpeq	0, 0, cr0, cr3, cr13, {0}
    11d8:	0b3b0b3a 	bleq	ec3ec8 <__bss_end__+0xeb9ea0>
    11dc:	00001349 	andeq	r1, r0, r9, asr #6
    11e0:	49010108 	stmdbmi	r1, {r3, r8}
    11e4:	00130113 	andseq	r0, r3, r3, lsl r1
    11e8:	00210900 	eoreq	r0, r1, r0, lsl #18
    11ec:	0b2f1349 	bleq	bc5f18 <__bss_end__+0xbbbef0>
    11f0:	130a0000 	movwne	r0, #40960	; 0xa000
    11f4:	3a0b0b01 	bcc	2c3e00 <__bss_end__+0x2b9dd8>
    11f8:	010b3b0b 	tsteq	fp, fp, lsl #22
    11fc:	0b000013 	bleq	1250 <_start-0x6db0>
    1200:	0e03000d 	cdpeq	0, 0, cr0, cr3, cr13, {0}
    1204:	0b3b0b3a 	bleq	ec3ef4 <__bss_end__+0xeb9ecc>
    1208:	0b381349 	bleq	e05f34 <__bss_end__+0xdfbf0c>
    120c:	0f0c0000 	svceq	0x000c0000
    1210:	000b0b00 	andeq	r0, fp, r0, lsl #22
    1214:	000f0d00 	andeq	r0, pc, r0, lsl #26
    1218:	13490b0b 	movtne	r0, #39691	; 0x9b0b
    121c:	260e0000 	strcs	r0, [lr], -r0
    1220:	00134900 	andseq	r4, r3, r0, lsl #18
    1224:	01130f00 	tsteq	r3, r0, lsl #30
    1228:	0b0b0e03 	bleq	2c4a3c <__bss_end__+0x2baa14>
    122c:	0b3b0b3a 	bleq	ec3f1c <__bss_end__+0xeb9ef4>
    1230:	00001301 	andeq	r1, r0, r1, lsl #6
    1234:	03000d10 	movweq	r0, #3344	; 0xd10
    1238:	3b0b3a08 	blcc	2cfa60 <__bss_end__+0x2c5a38>
    123c:	3813490b 	ldmdacc	r3, {r0, r1, r3, r8, fp, lr}
    1240:	1100000b 	tstne	r0, fp
    1244:	0e030113 	mcreq	1, 0, r0, cr3, cr3, {0}
    1248:	0b3a050b 	bleq	e8267c <__bss_end__+0xe78654>
    124c:	13010b3b 	movwne	r0, #6971	; 0x1b3b
    1250:	0d120000 	ldceq	0, cr0, [r2, #-0]
    1254:	3a0e0300 	bcc	381e5c <__bss_end__+0x377e34>
    1258:	490b3b0b 	stmdbmi	fp, {r0, r1, r3, r8, r9, fp, ip, sp}
    125c:	00053813 	andeq	r3, r5, r3, lsl r8
    1260:	00151300 	andseq	r1, r5, r0, lsl #6
    1264:	00001927 	andeq	r1, r0, r7, lsr #18
    1268:	27011514 	smladcs	r1, r4, r5, r1
    126c:	01134919 	tsteq	r3, r9, lsl r9
    1270:	15000013 	strne	r0, [r0, #-19]	; 0xffffffed
    1274:	13490005 	movtne	r0, #36869	; 0x9005
    1278:	13160000 	tstne	r6, #0
    127c:	0b0e0301 	bleq	381e88 <__bss_end__+0x377e60>
    1280:	3b0b3a05 	blcc	2cfa9c <__bss_end__+0x2c5a74>
    1284:	00130105 	andseq	r0, r3, r5, lsl #2
    1288:	000d1700 	andeq	r1, sp, r0, lsl #14
    128c:	0b3a0e03 	bleq	e84aa0 <__bss_end__+0xe7aa78>
    1290:	1349053b 	movtne	r0, #38203	; 0x953b
    1294:	00000b38 	andeq	r0, r0, r8, lsr fp
    1298:	03000d18 	movweq	r0, #3352	; 0xd18
    129c:	3b0b3a0e 	blcc	2cfadc <__bss_end__+0x2c5ab4>
    12a0:	38134905 	ldmdacc	r3, {r0, r2, r8, fp, lr}
    12a4:	19000005 	stmdbne	r0, {r0, r2}
    12a8:	0e030113 	mcreq	1, 0, r0, cr3, cr3, {0}
    12ac:	0b3a0b0b 	bleq	e83ee0 <__bss_end__+0xe79eb8>
    12b0:	1301053b 	movwne	r0, #5435	; 0x153b
    12b4:	131a0000 	tstne	sl, #0
    12b8:	3a0b0b01 	bcc	2c3ec4 <__bss_end__+0x2b9e9c>
    12bc:	01053b0b 	tsteq	r5, fp, lsl #22
    12c0:	1b000013 	blne	1314 <_start-0x6cec>
    12c4:	0b0b0117 	bleq	2c1728 <__bss_end__+0x2b7700>
    12c8:	053b0b3a 	ldreq	r0, [fp, #-2874]!	; 0xfffff4c6
    12cc:	00001301 	andeq	r1, r0, r1, lsl #6
    12d0:	03000d1c 	movweq	r0, #3356	; 0xd1c
    12d4:	3b0b3a0e 	blcc	2cfb14 <__bss_end__+0x2c5aec>
    12d8:	00134905 	andseq	r4, r3, r5, lsl #18
    12dc:	01151d00 	tsteq	r5, r0, lsl #26
    12e0:	13011927 	movwne	r1, #6439	; 0x1927
    12e4:	341e0000 	ldrcc	r0, [lr], #-0
    12e8:	3a0e0300 	bcc	381ef0 <__bss_end__+0x377ec8>
    12ec:	49053b0b 	stmdbmi	r5, {r0, r1, r3, r8, r9, fp, ip, sp}
    12f0:	3c193f13 	ldccc	15, cr3, [r9], {19}
    12f4:	1f000019 	svcne	0x00000019
    12f8:	0e030034 	mcreq	0, 0, r0, cr3, cr4, {1}
    12fc:	0b3b0b3a 	bleq	ec3fec <__bss_end__+0xeb9fc4>
    1300:	193f1349 	ldmdbne	pc!, {r0, r3, r6, r8, r9, ip}	; <UNPREDICTABLE>
    1304:	0000193c 	andeq	r1, r0, ip, lsr r9
    1308:	3f012e20 	svccc	0x00012e20
    130c:	3a0e0319 	bcc	381f78 <__bss_end__+0x377f50>
    1310:	110b3b0b 	tstne	fp, fp, lsl #22
    1314:	40061201 	andmi	r1, r6, r1, lsl #4
    1318:	19429718 	stmdbne	r2, {r3, r4, r8, r9, sl, ip, pc}^
    131c:	00001301 	andeq	r1, r0, r1, lsl #6
    1320:	3f002e21 	svccc	0x00002e21
    1324:	3a0e0319 	bcc	381f90 <__bss_end__+0x377f68>
    1328:	270b3b0b 	strcs	r3, [fp, -fp, lsl #22]
    132c:	00193c19 	andseq	r3, r9, r9, lsl ip
    1330:	00342200 	eorseq	r2, r4, r0, lsl #4
    1334:	0b3a0803 	bleq	e83348 <__bss_end__+0xe79320>
    1338:	13490b3b 	movtne	r0, #39739	; 0x9b3b
    133c:	00001702 	andeq	r1, r0, r2, lsl #14
    1340:	03003423 	movweq	r3, #1059	; 0x423
    1344:	3b0b3a0e 	blcc	2cfb84 <__bss_end__+0x2c5b5c>
    1348:	0013490b 	andseq	r4, r3, fp, lsl #18
    134c:	82892400 	addhi	r2, r9, #0, 8
    1350:	01110001 	tsteq	r1, r1
    1354:	00001331 	andeq	r1, r0, r1, lsr r3
    1358:	3f002e25 	svccc	0x00002e25
    135c:	6e193c19 	mrcvs	12, 0, r3, cr9, cr9, {0}
    1360:	3a0e030e 	bcc	381fa0 <__bss_end__+0x377f78>
    1364:	000b3b0b 	andeq	r3, fp, fp, lsl #22
    1368:	11010000 	mrsne	r0, (UNDEF: 1)
    136c:	130e2501 	movwne	r2, #58625	; 0xe501
    1370:	1b0e030b 	blne	381fa4 <__bss_end__+0x377f7c>
    1374:	1117550e 	tstne	r7, lr, lsl #10
    1378:	00171001 	andseq	r1, r7, r1
    137c:	00240200 	eoreq	r0, r4, r0, lsl #4
    1380:	0b3e0b0b 	bleq	f83fb4 <__bss_end__+0xf79f8c>
    1384:	00000803 	andeq	r0, r0, r3, lsl #16
    1388:	49002603 	stmdbmi	r0, {r0, r1, r9, sl, sp}
    138c:	04000013 	streq	r0, [r0], #-19	; 0xffffffed
    1390:	0b0b0024 	bleq	2c1428 <__bss_end__+0x2b7400>
    1394:	0e030b3e 	vmoveq.16	d3[0], r0
    1398:	16050000 	strne	r0, [r5], -r0
    139c:	3a0e0300 	bcc	381fa4 <__bss_end__+0x377f7c>
    13a0:	490b3b0b 	stmdbmi	fp, {r0, r1, r3, r8, r9, fp, ip, sp}
    13a4:	06000013 			; <UNDEFINED> instruction: 0x06000013
    13a8:	0e030016 	mcreq	0, 0, r0, cr3, cr6, {0}
    13ac:	053b0b3a 	ldreq	r0, [fp, #-2874]!	; 0xfffff4c6
    13b0:	00001349 	andeq	r1, r0, r9, asr #6
    13b4:	0b011707 	bleq	46fd8 <__bss_end__+0x3cfb0>
    13b8:	3b0b3a0b 	blcc	2cfbec <__bss_end__+0x2c5bc4>
    13bc:	0013010b 	andseq	r0, r3, fp, lsl #2
    13c0:	000d0800 	andeq	r0, sp, r0, lsl #16
    13c4:	0b3a0e03 	bleq	e84bd8 <__bss_end__+0xe7abb0>
    13c8:	13490b3b 	movtne	r0, #39739	; 0x9b3b
    13cc:	01090000 	mrseq	r0, (UNDEF: 9)
    13d0:	01134901 	tsteq	r3, r1, lsl #18
    13d4:	0a000013 	beq	1428 <_start-0x6bd8>
    13d8:	13490021 	movtne	r0, #36897	; 0x9021
    13dc:	00000b2f 	andeq	r0, r0, pc, lsr #22
    13e0:	0b01130b 	bleq	46014 <__bss_end__+0x3bfec>
    13e4:	3b0b3a0b 	blcc	2cfc18 <__bss_end__+0x2c5bf0>
    13e8:	0013010b 	andseq	r0, r3, fp, lsl #2
    13ec:	000d0c00 	andeq	r0, sp, r0, lsl #24
    13f0:	0b3a0e03 	bleq	e84c04 <__bss_end__+0xe7abdc>
    13f4:	13490b3b 	movtne	r0, #39739	; 0x9b3b
    13f8:	00000b38 	andeq	r0, r0, r8, lsr fp
    13fc:	0b000f0d 	bleq	5038 <_start-0x2fc8>
    1400:	0e00000b 	cdpeq	0, 0, cr0, cr0, cr11, {0}
    1404:	0b0b000f 	bleq	2c1448 <__bss_end__+0x2b7420>
    1408:	00001349 	andeq	r1, r0, r9, asr #6
    140c:	0301130f 	movweq	r1, #4879	; 0x130f
    1410:	3a0b0b0e 	bcc	2c4050 <__bss_end__+0x2ba028>
    1414:	010b3b0b 	tsteq	fp, fp, lsl #22
    1418:	10000013 	andne	r0, r0, r3, lsl r0
    141c:	0803000d 	stmdaeq	r3, {r0, r2, r3}
    1420:	0b3b0b3a 	bleq	ec4110 <__bss_end__+0xeba0e8>
    1424:	0b381349 	bleq	e06150 <__bss_end__+0xdfc128>
    1428:	13110000 	tstne	r1, #0
    142c:	0b0e0301 	bleq	382038 <__bss_end__+0x378010>
    1430:	3b0b3a05 	blcc	2cfc4c <__bss_end__+0x2c5c24>
    1434:	0013010b 	andseq	r0, r3, fp, lsl #2
    1438:	000d1200 	andeq	r1, sp, r0, lsl #4
    143c:	0b3a0e03 	bleq	e84c50 <__bss_end__+0xe7ac28>
    1440:	13490b3b 	movtne	r0, #39739	; 0x9b3b
    1444:	00000538 	andeq	r0, r0, r8, lsr r5
    1448:	27001513 	smladcs	r0, r3, r5, r1
    144c:	14000019 	strne	r0, [r0], #-25	; 0xffffffe7
    1450:	19270115 	stmdbne	r7!, {r0, r2, r4, r8}
    1454:	13011349 	movwne	r1, #4937	; 0x1349
    1458:	05150000 	ldreq	r0, [r5, #-0]
    145c:	00134900 	andseq	r4, r3, r0, lsl #18
    1460:	01131600 	tsteq	r3, r0, lsl #12
    1464:	050b0e03 	streq	r0, [fp, #-3587]	; 0xfffff1fd
    1468:	053b0b3a 	ldreq	r0, [fp, #-2874]!	; 0xfffff4c6
    146c:	00001301 	andeq	r1, r0, r1, lsl #6
    1470:	03000d17 	movweq	r0, #3351	; 0xd17
    1474:	3b0b3a0e 	blcc	2cfcb4 <__bss_end__+0x2c5c8c>
    1478:	38134905 	ldmdacc	r3, {r0, r2, r8, fp, lr}
    147c:	1800000b 	stmdane	r0, {r0, r1, r3}
    1480:	0e03000d 	cdpeq	0, 0, cr0, cr3, cr13, {0}
    1484:	053b0b3a 	ldreq	r0, [fp, #-2874]!	; 0xfffff4c6
    1488:	05381349 	ldreq	r1, [r8, #-841]!	; 0xfffffcb7
    148c:	13190000 	tstne	r9, #0
    1490:	0b0e0301 	bleq	38209c <__bss_end__+0x378074>
    1494:	3b0b3a0b 	blcc	2cfcc8 <__bss_end__+0x2c5ca0>
    1498:	00130105 	andseq	r0, r3, r5, lsl #2
    149c:	01131a00 	tsteq	r3, r0, lsl #20
    14a0:	0b3a0b0b 	bleq	e840d4 <__bss_end__+0xe7a0ac>
    14a4:	1301053b 	movwne	r0, #5435	; 0x153b
    14a8:	171b0000 	ldrne	r0, [fp, -r0]
    14ac:	3a0b0b01 	bcc	2c40b8 <__bss_end__+0x2ba090>
    14b0:	01053b0b 	tsteq	r5, fp, lsl #22
    14b4:	1c000013 	stcne	0, cr0, [r0], {19}
    14b8:	0e03000d 	cdpeq	0, 0, cr0, cr3, cr13, {0}
    14bc:	053b0b3a 	ldreq	r0, [fp, #-2874]!	; 0xfffff4c6
    14c0:	00001349 	andeq	r1, r0, r9, asr #6
    14c4:	2701151d 	smladcs	r1, sp, r5, r1
    14c8:	00130119 	andseq	r0, r3, r9, lsl r1
    14cc:	00341e00 	eorseq	r1, r4, r0, lsl #28
    14d0:	0b3a0e03 	bleq	e84ce4 <__bss_end__+0xe7acbc>
    14d4:	1349053b 	movtne	r0, #38203	; 0x953b
    14d8:	193c193f 	ldmdbne	ip!, {r0, r1, r2, r3, r4, r5, r8, fp, ip}
    14dc:	341f0000 	ldrcc	r0, [pc], #-0	; 14e4 <_start-0x6b1c>
    14e0:	3a0e0300 	bcc	3820e8 <__bss_end__+0x3780c0>
    14e4:	490b3b0b 	stmdbmi	fp, {r0, r1, r3, r8, r9, fp, ip, sp}
    14e8:	3c193f13 	ldccc	15, cr3, [r9], {19}
    14ec:	20000019 	andcs	r0, r0, r9, lsl r0
    14f0:	0e030034 	mcreq	0, 0, r0, cr3, cr4, {1}
    14f4:	0b3b0b3a 	bleq	ec41e4 <__bss_end__+0xeba1bc>
    14f8:	00001349 	andeq	r1, r0, r9, asr #6
    14fc:	3f012e21 	svccc	0x00012e21
    1500:	3a0e0319 	bcc	38216c <__bss_end__+0x378144>
    1504:	270b3b0b 	strcs	r3, [fp, -fp, lsl #22]
    1508:	19018719 	stmdbne	r1, {r0, r3, r4, r8, r9, sl, pc}
    150c:	06120111 			; <UNDEFINED> instruction: 0x06120111
    1510:	42971840 	addsmi	r1, r7, #64, 16	; 0x400000
    1514:	00130119 	andseq	r0, r3, r9, lsl r1
    1518:	00342200 	eorseq	r2, r4, r0, lsl #4
    151c:	0b3a0e03 	bleq	e84d30 <__bss_end__+0xe7ad08>
    1520:	13490b3b 	movtne	r0, #39739	; 0x9b3b
    1524:	00001702 	andeq	r1, r0, r2, lsl #14
    1528:	01828923 	orreq	r8, r2, r3, lsr #18
    152c:	31011100 	mrscc	r1, (UNDEF: 17)
    1530:	24000013 	strcs	r0, [r0], #-19	; 0xffffffed
    1534:	01018289 	smlabbeq	r1, r9, r2, r8
    1538:	13310111 	teqne	r1, #1073741828	; 0x40000004
    153c:	00001301 	andeq	r1, r0, r1, lsl #6
    1540:	01828a25 	orreq	r8, r2, r5, lsr #20
    1544:	91180200 	tstls	r8, r0, lsl #4
    1548:	00001842 	andeq	r1, r0, r2, asr #16
    154c:	3f012e26 	svccc	0x00012e26
    1550:	3a0e0319 	bcc	3821bc <__bss_end__+0x378194>
    1554:	270b3b0b 	strcs	r3, [fp, -fp, lsl #22]
    1558:	12011119 	andne	r1, r1, #1073741830	; 0x40000006
    155c:	97184006 	ldrls	r4, [r8, -r6]
    1560:	13011942 	movwne	r1, #6466	; 0x1942
    1564:	2e270000 	cdpcs	0, 2, cr0, cr7, cr0, {0}
    1568:	03193f01 	tsteq	r9, #1, 30
    156c:	3b0b3a0e 	blcc	2cfdac <__bss_end__+0x2c5d84>
    1570:	4919270b 	ldmdbmi	r9, {r0, r1, r3, r8, r9, sl, sp}
    1574:	12011113 	andne	r1, r1, #-1073741820	; 0xc0000004
    1578:	97184006 	ldrls	r4, [r8, -r6]
    157c:	13011942 	movwne	r1, #6466	; 0x1942
    1580:	2e280000 	cdpcs	0, 2, cr0, cr8, cr0, {0}
    1584:	3c193f00 	ldccc	15, cr3, [r9], {-0}
    1588:	030e6e19 	movweq	r6, #60953	; 0xee19
    158c:	3b0b3a0e 	blcc	2cfdcc <__bss_end__+0x2c5da4>
    1590:	0000000b 	andeq	r0, r0, fp
    1594:	25011101 	strcs	r1, [r1, #-257]	; 0xfffffeff
    1598:	030b130e 	movweq	r1, #45838	; 0xb30e
    159c:	110e1b0e 	tstne	lr, lr, lsl #22
    15a0:	10061201 	andne	r1, r6, r1, lsl #4
    15a4:	02000017 	andeq	r0, r0, #23
    15a8:	0b0b0024 	bleq	2c1640 <__bss_end__+0x2b7618>
    15ac:	08030b3e 	stmdaeq	r3, {r1, r2, r3, r4, r5, r8, r9, fp}
    15b0:	24030000 	strcs	r0, [r3], #-0
    15b4:	3e0b0b00 	vmlacc.f64	d0, d11, d0
    15b8:	000e030b 	andeq	r0, lr, fp, lsl #6
    15bc:	00160400 	andseq	r0, r6, r0, lsl #8
    15c0:	0b3a0e03 	bleq	e84dd4 <__bss_end__+0xe7adac>
    15c4:	13490b3b 	movtne	r0, #39739	; 0x9b3b
    15c8:	16050000 	strne	r0, [r5], -r0
    15cc:	3a0e0300 	bcc	3821d4 <__bss_end__+0x3781ac>
    15d0:	49053b0b 	stmdbmi	r5, {r0, r1, r3, r8, r9, fp, ip, sp}
    15d4:	06000013 			; <UNDEFINED> instruction: 0x06000013
    15d8:	0b0b0117 	bleq	2c1a3c <__bss_end__+0x2b7a14>
    15dc:	0b3b0b3a 	bleq	ec42cc <__bss_end__+0xeba2a4>
    15e0:	00001301 	andeq	r1, r0, r1, lsl #6
    15e4:	03000d07 	movweq	r0, #3335	; 0xd07
    15e8:	3b0b3a0e 	blcc	2cfe28 <__bss_end__+0x2c5e00>
    15ec:	0013490b 	andseq	r4, r3, fp, lsl #18
    15f0:	01010800 	tsteq	r1, r0, lsl #16
    15f4:	13011349 	movwne	r1, #4937	; 0x1349
    15f8:	21090000 	mrscs	r0, (UNDEF: 9)
    15fc:	2f134900 	svccs	0x00134900
    1600:	0a00000b 	beq	1634 <_start-0x69cc>
    1604:	0b0b0113 	bleq	2c1a58 <__bss_end__+0x2b7a30>
    1608:	0b3b0b3a 	bleq	ec42f8 <__bss_end__+0xeba2d0>
    160c:	00001301 	andeq	r1, r0, r1, lsl #6
    1610:	03000d0b 	movweq	r0, #3339	; 0xd0b
    1614:	3b0b3a0e 	blcc	2cfe54 <__bss_end__+0x2c5e2c>
    1618:	3813490b 	ldmdacc	r3, {r0, r1, r3, r8, fp, lr}
    161c:	0c00000b 	stceq	0, cr0, [r0], {11}
    1620:	0b0b000f 	bleq	2c1664 <__bss_end__+0x2b763c>
    1624:	0f0d0000 	svceq	0x000d0000
    1628:	490b0b00 	stmdbmi	fp, {r8, r9, fp}
    162c:	0e000013 	mcreq	0, 0, r0, cr0, cr3, {0}
    1630:	13490026 	movtne	r0, #36902	; 0x9026
    1634:	130f0000 	movwne	r0, #61440	; 0xf000
    1638:	0b0e0301 	bleq	382244 <__bss_end__+0x37821c>
    163c:	3b0b3a0b 	blcc	2cfe70 <__bss_end__+0x2c5e48>
    1640:	0013010b 	andseq	r0, r3, fp, lsl #2
    1644:	000d1000 	andeq	r1, sp, r0
    1648:	0b3a0803 	bleq	e8365c <__bss_end__+0xe79634>
    164c:	13490b3b 	movtne	r0, #39739	; 0x9b3b
    1650:	00000b38 	andeq	r0, r0, r8, lsr fp
    1654:	03011311 	movweq	r1, #4881	; 0x1311
    1658:	3a050b0e 	bcc	144298 <__bss_end__+0x13a270>
    165c:	010b3b0b 	tsteq	fp, fp, lsl #22
    1660:	12000013 	andne	r0, r0, #19
    1664:	0e03000d 	cdpeq	0, 0, cr0, cr3, cr13, {0}
    1668:	0b3b0b3a 	bleq	ec4358 <__bss_end__+0xeba330>
    166c:	05381349 	ldreq	r1, [r8, #-841]!	; 0xfffffcb7
    1670:	15130000 	ldrne	r0, [r3, #-0]
    1674:	00192700 	andseq	r2, r9, r0, lsl #14
    1678:	01151400 	tsteq	r5, r0, lsl #8
    167c:	13491927 	movtne	r1, #39207	; 0x9927
    1680:	00001301 	andeq	r1, r0, r1, lsl #6
    1684:	49000515 	stmdbmi	r0, {r0, r2, r4, r8, sl}
    1688:	16000013 			; <UNDEFINED> instruction: 0x16000013
    168c:	0e030113 	mcreq	1, 0, r0, cr3, cr3, {0}
    1690:	0b3a050b 	bleq	e82ac4 <__bss_end__+0xe78a9c>
    1694:	1301053b 	movwne	r0, #5435	; 0x153b
    1698:	0d170000 	ldceq	0, cr0, [r7, #-0]
    169c:	3a0e0300 	bcc	3822a4 <__bss_end__+0x37827c>
    16a0:	49053b0b 	stmdbmi	r5, {r0, r1, r3, r8, r9, fp, ip, sp}
    16a4:	000b3813 	andeq	r3, fp, r3, lsl r8
    16a8:	000d1800 	andeq	r1, sp, r0, lsl #16
    16ac:	0b3a0e03 	bleq	e84ec0 <__bss_end__+0xe7ae98>
    16b0:	1349053b 	movtne	r0, #38203	; 0x953b
    16b4:	00000538 	andeq	r0, r0, r8, lsr r5
    16b8:	03011319 	movweq	r1, #4889	; 0x1319
    16bc:	3a0b0b0e 	bcc	2c42fc <__bss_end__+0x2ba2d4>
    16c0:	01053b0b 	tsteq	r5, fp, lsl #22
    16c4:	1a000013 	bne	1718 <_start-0x68e8>
    16c8:	0b0b0113 	bleq	2c1b1c <__bss_end__+0x2b7af4>
    16cc:	053b0b3a 	ldreq	r0, [fp, #-2874]!	; 0xfffff4c6
    16d0:	00001301 	andeq	r1, r0, r1, lsl #6
    16d4:	0b01171b 	bleq	47348 <__bss_end__+0x3d320>
    16d8:	3b0b3a0b 	blcc	2cff0c <__bss_end__+0x2c5ee4>
    16dc:	00130105 	andseq	r0, r3, r5, lsl #2
    16e0:	000d1c00 	andeq	r1, sp, r0, lsl #24
    16e4:	0b3a0e03 	bleq	e84ef8 <__bss_end__+0xe7aed0>
    16e8:	1349053b 	movtne	r0, #38203	; 0x953b
    16ec:	151d0000 	ldrne	r0, [sp, #-0]
    16f0:	01192701 	tsteq	r9, r1, lsl #14
    16f4:	1e000013 	mcrne	0, 0, r0, cr0, cr3, {0}
    16f8:	0e030034 	mcreq	0, 0, r0, cr3, cr4, {1}
    16fc:	053b0b3a 	ldreq	r0, [fp, #-2874]!	; 0xfffff4c6
    1700:	193f1349 	ldmdbne	pc!, {r0, r3, r6, r8, r9, ip}	; <UNPREDICTABLE>
    1704:	0000193c 	andeq	r1, r0, ip, lsr r9
    1708:	0300341f 	movweq	r3, #1055	; 0x41f
    170c:	3b0b3a0e 	blcc	2cff4c <__bss_end__+0x2c5f24>
    1710:	3f13490b 	svccc	0x0013490b
    1714:	00193c19 	andseq	r3, r9, r9, lsl ip
    1718:	012e2000 			; <UNDEFINED> instruction: 0x012e2000
    171c:	0e03193f 			; <UNDEFINED> instruction: 0x0e03193f
    1720:	0b3b0b3a 	bleq	ec4410 <__bss_end__+0xeba3e8>
    1724:	01871927 	orreq	r1, r7, r7, lsr #18
    1728:	12011119 	andne	r1, r1, #1073741830	; 0x40000006
    172c:	97184006 	ldrls	r4, [r8, -r6]
    1730:	13011942 	movwne	r1, #6466	; 0x1942
    1734:	89210000 	stmdbhi	r1!, {}	; <UNPREDICTABLE>
    1738:	11010182 	smlabbne	r1, r2, r1, r0
    173c:	00130101 	andseq	r0, r3, r1, lsl #2
    1740:	828a2200 	addhi	r2, sl, #0, 4
    1744:	18020001 	stmdane	r2, {r0}
    1748:	00184291 	mulseq	r8, r1, r2
    174c:	82892300 	addhi	r2, r9, #0, 6
    1750:	01110101 	tsteq	r1, r1, lsl #2
    1754:	13011331 	movwne	r1, #4913	; 0x1331
    1758:	89240000 	stmdbhi	r4!, {}	; <UNPREDICTABLE>
    175c:	11000182 	smlabbne	r0, r2, r1, r0
    1760:	00133101 	andseq	r3, r3, r1, lsl #2
    1764:	002e2500 	eoreq	r2, lr, r0, lsl #10
    1768:	193c193f 	ldmdbne	ip!, {r0, r1, r2, r3, r4, r5, r8, fp, ip}
    176c:	0e030e6e 	cdpeq	14, 0, cr0, cr3, cr14, {3}
    1770:	0b3b0b3a 	bleq	ec4460 <__bss_end__+0xeba438>
    1774:	01000000 	mrseq	r0, (UNDEF: 0)
    1778:	0e250111 	mcreq	1, 1, r0, cr5, cr1, {0}
    177c:	0e030b13 	vmoveq.32	d3[0], r0
    1780:	01110e1b 	tsteq	r1, fp, lsl lr
    1784:	17100612 			; <UNDEFINED> instruction: 0x17100612
    1788:	24020000 	strcs	r0, [r2], #-0
    178c:	3e0b0b00 	vmlacc.f64	d0, d11, d0
    1790:	0008030b 	andeq	r0, r8, fp, lsl #6
    1794:	00240300 	eoreq	r0, r4, r0, lsl #6
    1798:	0b3e0b0b 	bleq	f843cc <__bss_end__+0xf7a3a4>
    179c:	00000e03 	andeq	r0, r0, r3, lsl #28
    17a0:	03001604 	movweq	r1, #1540	; 0x604
    17a4:	3b0b3a0e 	blcc	2cffe4 <__bss_end__+0x2c5fbc>
    17a8:	0013490b 	andseq	r4, r3, fp, lsl #18
    17ac:	00160500 	andseq	r0, r6, r0, lsl #10
    17b0:	0b3a0e03 	bleq	e84fc4 <__bss_end__+0xe7af9c>
    17b4:	1349053b 	movtne	r0, #38203	; 0x953b
    17b8:	17060000 	strne	r0, [r6, -r0]
    17bc:	3a0b0b01 	bcc	2c43c8 <__bss_end__+0x2ba3a0>
    17c0:	010b3b0b 	tsteq	fp, fp, lsl #22
    17c4:	07000013 	smladeq	r0, r3, r0, r0
    17c8:	0e03000d 	cdpeq	0, 0, cr0, cr3, cr13, {0}
    17cc:	0b3b0b3a 	bleq	ec44bc <__bss_end__+0xeba494>
    17d0:	00001349 	andeq	r1, r0, r9, asr #6
    17d4:	49010108 	stmdbmi	r1, {r3, r8}
    17d8:	00130113 	andseq	r0, r3, r3, lsl r1
    17dc:	00210900 	eoreq	r0, r1, r0, lsl #18
    17e0:	0b2f1349 	bleq	bc650c <__bss_end__+0xbbc4e4>
    17e4:	130a0000 	movwne	r0, #40960	; 0xa000
    17e8:	3a0b0b01 	bcc	2c43f4 <__bss_end__+0x2ba3cc>
    17ec:	010b3b0b 	tsteq	fp, fp, lsl #22
    17f0:	0b000013 	bleq	1844 <_start-0x67bc>
    17f4:	0e03000d 	cdpeq	0, 0, cr0, cr3, cr13, {0}
    17f8:	0b3b0b3a 	bleq	ec44e8 <__bss_end__+0xeba4c0>
    17fc:	0b381349 	bleq	e06528 <__bss_end__+0xdfc500>
    1800:	0f0c0000 	svceq	0x000c0000
    1804:	000b0b00 	andeq	r0, fp, r0, lsl #22
    1808:	000f0d00 	andeq	r0, pc, r0, lsl #26
    180c:	13490b0b 	movtne	r0, #39691	; 0x9b0b
    1810:	260e0000 	strcs	r0, [lr], -r0
    1814:	00134900 	andseq	r4, r3, r0, lsl #18
    1818:	01130f00 	tsteq	r3, r0, lsl #30
    181c:	0b0b0e03 	bleq	2c5030 <__bss_end__+0x2bb008>
    1820:	0b3b0b3a 	bleq	ec4510 <__bss_end__+0xeba4e8>
    1824:	00001301 	andeq	r1, r0, r1, lsl #6
    1828:	03000d10 	movweq	r0, #3344	; 0xd10
    182c:	3b0b3a08 	blcc	2d0054 <__bss_end__+0x2c602c>
    1830:	3813490b 	ldmdacc	r3, {r0, r1, r3, r8, fp, lr}
    1834:	1100000b 	tstne	r0, fp
    1838:	0e030113 	mcreq	1, 0, r0, cr3, cr3, {0}
    183c:	0b3a050b 	bleq	e82c70 <__bss_end__+0xe78c48>
    1840:	13010b3b 	movwne	r0, #6971	; 0x1b3b
    1844:	0d120000 	ldceq	0, cr0, [r2, #-0]
    1848:	3a0e0300 	bcc	382450 <__bss_end__+0x378428>
    184c:	490b3b0b 	stmdbmi	fp, {r0, r1, r3, r8, r9, fp, ip, sp}
    1850:	00053813 	andeq	r3, r5, r3, lsl r8
    1854:	00151300 	andseq	r1, r5, r0, lsl #6
    1858:	00001927 	andeq	r1, r0, r7, lsr #18
    185c:	27011514 	smladcs	r1, r4, r5, r1
    1860:	01134919 	tsteq	r3, r9, lsl r9
    1864:	15000013 	strne	r0, [r0, #-19]	; 0xffffffed
    1868:	13490005 	movtne	r0, #36869	; 0x9005
    186c:	13160000 	tstne	r6, #0
    1870:	0b0e0301 	bleq	38247c <__bss_end__+0x378454>
    1874:	3b0b3a05 	blcc	2d0090 <__bss_end__+0x2c6068>
    1878:	00130105 	andseq	r0, r3, r5, lsl #2
    187c:	000d1700 	andeq	r1, sp, r0, lsl #14
    1880:	0b3a0e03 	bleq	e85094 <__bss_end__+0xe7b06c>
    1884:	1349053b 	movtne	r0, #38203	; 0x953b
    1888:	00000b38 	andeq	r0, r0, r8, lsr fp
    188c:	03000d18 	movweq	r0, #3352	; 0xd18
    1890:	3b0b3a0e 	blcc	2d00d0 <__bss_end__+0x2c60a8>
    1894:	38134905 	ldmdacc	r3, {r0, r2, r8, fp, lr}
    1898:	19000005 	stmdbne	r0, {r0, r2}
    189c:	0e030113 	mcreq	1, 0, r0, cr3, cr3, {0}
    18a0:	0b3a0b0b 	bleq	e844d4 <__bss_end__+0xe7a4ac>
    18a4:	1301053b 	movwne	r0, #5435	; 0x153b
    18a8:	131a0000 	tstne	sl, #0
    18ac:	3a0b0b01 	bcc	2c44b8 <__bss_end__+0x2ba490>
    18b0:	01053b0b 	tsteq	r5, fp, lsl #22
    18b4:	1b000013 	blne	1908 <_start-0x66f8>
    18b8:	0b0b0117 	bleq	2c1d1c <__bss_end__+0x2b7cf4>
    18bc:	053b0b3a 	ldreq	r0, [fp, #-2874]!	; 0xfffff4c6
    18c0:	00001301 	andeq	r1, r0, r1, lsl #6
    18c4:	03000d1c 	movweq	r0, #3356	; 0xd1c
    18c8:	3b0b3a0e 	blcc	2d0108 <__bss_end__+0x2c60e0>
    18cc:	00134905 	andseq	r4, r3, r5, lsl #18
    18d0:	01151d00 	tsteq	r5, r0, lsl #26
    18d4:	13011927 	movwne	r1, #6439	; 0x1927
    18d8:	341e0000 	ldrcc	r0, [lr], #-0
    18dc:	3a0e0300 	bcc	3824e4 <__bss_end__+0x3784bc>
    18e0:	49053b0b 	stmdbmi	r5, {r0, r1, r3, r8, r9, fp, ip, sp}
    18e4:	3c193f13 	ldccc	15, cr3, [r9], {19}
    18e8:	1f000019 	svcne	0x00000019
    18ec:	0e030034 	mcreq	0, 0, r0, cr3, cr4, {1}
    18f0:	0b3b0b3a 	bleq	ec45e0 <__bss_end__+0xeba5b8>
    18f4:	193f1349 	ldmdbne	pc!, {r0, r3, r6, r8, r9, ip}	; <UNPREDICTABLE>
    18f8:	0000193c 	andeq	r1, r0, ip, lsr r9
    18fc:	3f012e20 	svccc	0x00012e20
    1900:	3a0e0319 	bcc	38256c <__bss_end__+0x378544>
    1904:	270b3b0b 	strcs	r3, [fp, -fp, lsl #22]
    1908:	12011119 	andne	r1, r1, #1073741830	; 0x40000006
    190c:	97184006 	ldrls	r4, [r8, -r6]
    1910:	13011942 	movwne	r1, #6466	; 0x1942
    1914:	05210000 	streq	r0, [r1, #-0]!
    1918:	3a080300 	bcc	202520 <__bss_end__+0x1f84f8>
    191c:	490b3b0b 	stmdbmi	fp, {r0, r1, r3, r8, r9, fp, ip, sp}
    1920:	00170213 	andseq	r0, r7, r3, lsl r2
    1924:	82892200 	addhi	r2, r9, #0, 4
    1928:	01110101 	tsteq	r1, r1, lsl #2
    192c:	00001331 	andeq	r1, r0, r1, lsr r3
    1930:	01828a23 	orreq	r8, r2, r3, lsr #20
    1934:	91180200 	tstls	r8, r0, lsl #4
    1938:	00001842 	andeq	r1, r0, r2, asr #16
    193c:	03003424 	movweq	r3, #1060	; 0x424
    1940:	3b0b3a08 	blcc	2d0168 <__bss_end__+0x2c6140>
    1944:	0213490b 	andseq	r4, r3, #180224	; 0x2c000
    1948:	25000018 	strcs	r0, [r0, #-24]	; 0xffffffe8
    194c:	0111010b 	tsteq	r1, fp, lsl #2
    1950:	13010612 	movwne	r0, #5650	; 0x1612
    1954:	34260000 	strtcc	r0, [r6], #-0
    1958:	3a080300 	bcc	202560 <__bss_end__+0x1f8538>
    195c:	490b3b0b 	stmdbmi	fp, {r0, r1, r3, r8, r9, fp, ip, sp}
    1960:	00170213 	andseq	r0, r7, r3, lsl r2
    1964:	82892700 	addhi	r2, r9, #0, 14
    1968:	01110001 	tsteq	r1, r1
    196c:	00001331 	andeq	r1, r0, r1, lsr r3
    1970:	3f012e28 	svccc	0x00012e28
    1974:	3a0e0319 	bcc	3825e0 <__bss_end__+0x3785b8>
    1978:	270b3b0b 	strcs	r3, [fp, -fp, lsl #22]
    197c:	11134919 	tstne	r3, r9, lsl r9
    1980:	40061201 	andmi	r1, r6, r1, lsl #4
    1984:	19429718 	stmdbne	r2, {r3, r4, r8, r9, sl, ip, pc}^
    1988:	00001301 	andeq	r1, r0, r1, lsl #6
    198c:	03000529 	movweq	r0, #1321	; 0x529
    1990:	3b0b3a0e 	blcc	2d01d0 <__bss_end__+0x2c61a8>
    1994:	0213490b 	andseq	r4, r3, #180224	; 0x2c000
    1998:	2a000017 	bcs	19fc <_start-0x6604>
    199c:	193f002e 	ldmdbne	pc!, {r1, r2, r3, r5}	; <UNPREDICTABLE>
    19a0:	0e6e193c 			; <UNDEFINED> instruction: 0x0e6e193c
    19a4:	0b3a0e03 	bleq	e851b8 <__bss_end__+0xe7b190>
    19a8:	00000b3b 	andeq	r0, r0, fp, lsr fp
    19ac:	01110100 	tsteq	r1, r0, lsl #2
    19b0:	0b130e25 	bleq	4c524c <__bss_end__+0x4bb224>
    19b4:	0e1b0e03 	cdpeq	14, 1, cr0, cr11, cr3, {0}
    19b8:	06120111 			; <UNDEFINED> instruction: 0x06120111
    19bc:	00001710 	andeq	r1, r0, r0, lsl r7
    19c0:	0b002402 	bleq	a9d0 <__bss_end__+0x9a8>
    19c4:	030b3e0b 	movweq	r3, #48651	; 0xbe0b
    19c8:	03000008 	movweq	r0, #8
    19cc:	0b0b0024 	bleq	2c1a64 <__bss_end__+0x2b7a3c>
    19d0:	0e030b3e 	vmoveq.16	d3[0], r0
    19d4:	35040000 	strcc	r0, [r4, #-0]
    19d8:	00134900 	andseq	r4, r3, r0, lsl #18
    19dc:	00160500 	andseq	r0, r6, r0, lsl #10
    19e0:	0b3a0e03 	bleq	e851f4 <__bss_end__+0xe7b1cc>
    19e4:	13490b3b 	movtne	r0, #39739	; 0x9b3b
    19e8:	16060000 	strne	r0, [r6], -r0
    19ec:	3a0e0300 	bcc	3825f4 <__bss_end__+0x3785cc>
    19f0:	49053b0b 	stmdbmi	r5, {r0, r1, r3, r8, r9, fp, ip, sp}
    19f4:	07000013 	smladeq	r0, r3, r0, r0
    19f8:	0b0b0117 	bleq	2c1e5c <__bss_end__+0x2b7e34>
    19fc:	0b3b0b3a 	bleq	ec46ec <__bss_end__+0xeba6c4>
    1a00:	00001301 	andeq	r1, r0, r1, lsl #6
    1a04:	03000d08 	movweq	r0, #3336	; 0xd08
    1a08:	3b0b3a0e 	blcc	2d0248 <__bss_end__+0x2c6220>
    1a0c:	0013490b 	andseq	r4, r3, fp, lsl #18
    1a10:	01010900 	tsteq	r1, r0, lsl #18
    1a14:	13011349 	movwne	r1, #4937	; 0x1349
    1a18:	210a0000 	mrscs	r0, (UNDEF: 10)
    1a1c:	2f134900 	svccs	0x00134900
    1a20:	0b00000b 	bleq	1a54 <_start-0x65ac>
    1a24:	0b0b0113 	bleq	2c1e78 <__bss_end__+0x2b7e50>
    1a28:	0b3b0b3a 	bleq	ec4718 <__bss_end__+0xeba6f0>
    1a2c:	00001301 	andeq	r1, r0, r1, lsl #6
    1a30:	03000d0c 	movweq	r0, #3340	; 0xd0c
    1a34:	3b0b3a0e 	blcc	2d0274 <__bss_end__+0x2c624c>
    1a38:	3813490b 	ldmdacc	r3, {r0, r1, r3, r8, fp, lr}
    1a3c:	0d00000b 	stceq	0, cr0, [r0, #-44]	; 0xffffffd4
    1a40:	0b0b000f 	bleq	2c1a84 <__bss_end__+0x2b7a5c>
    1a44:	0f0e0000 	svceq	0x000e0000
    1a48:	490b0b00 	stmdbmi	fp, {r8, r9, fp}
    1a4c:	0f000013 	svceq	0x00000013
    1a50:	13490026 	movtne	r0, #36902	; 0x9026
    1a54:	13100000 	tstne	r0, #0
    1a58:	0b0e0301 	bleq	382664 <__bss_end__+0x37863c>
    1a5c:	3b0b3a0b 	blcc	2d0290 <__bss_end__+0x2c6268>
    1a60:	0013010b 	andseq	r0, r3, fp, lsl #2
    1a64:	000d1100 	andeq	r1, sp, r0, lsl #2
    1a68:	0b3a0803 	bleq	e83a7c <__bss_end__+0xe79a54>
    1a6c:	13490b3b 	movtne	r0, #39739	; 0x9b3b
    1a70:	00000b38 	andeq	r0, r0, r8, lsr fp
    1a74:	03011312 	movweq	r1, #4882	; 0x1312
    1a78:	3a050b0e 	bcc	1446b8 <__bss_end__+0x13a690>
    1a7c:	010b3b0b 	tsteq	fp, fp, lsl #22
    1a80:	13000013 	movwne	r0, #19
    1a84:	0e03000d 	cdpeq	0, 0, cr0, cr3, cr13, {0}
    1a88:	0b3b0b3a 	bleq	ec4778 <__bss_end__+0xeba750>
    1a8c:	05381349 	ldreq	r1, [r8, #-841]!	; 0xfffffcb7
    1a90:	15140000 	ldrne	r0, [r4, #-0]
    1a94:	00192700 	andseq	r2, r9, r0, lsl #14
    1a98:	01151500 	tsteq	r5, r0, lsl #10
    1a9c:	13491927 	movtne	r1, #39207	; 0x9927
    1aa0:	00001301 	andeq	r1, r0, r1, lsl #6
    1aa4:	49000516 	stmdbmi	r0, {r1, r2, r4, r8, sl}
    1aa8:	17000013 	smladne	r0, r3, r0, r0
    1aac:	0e030113 	mcreq	1, 0, r0, cr3, cr3, {0}
    1ab0:	0b3a050b 	bleq	e82ee4 <__bss_end__+0xe78ebc>
    1ab4:	1301053b 	movwne	r0, #5435	; 0x153b
    1ab8:	0d180000 	ldceq	0, cr0, [r8, #-0]
    1abc:	3a0e0300 	bcc	3826c4 <__bss_end__+0x37869c>
    1ac0:	49053b0b 	stmdbmi	r5, {r0, r1, r3, r8, r9, fp, ip, sp}
    1ac4:	000b3813 	andeq	r3, fp, r3, lsl r8
    1ac8:	000d1900 	andeq	r1, sp, r0, lsl #18
    1acc:	0b3a0e03 	bleq	e852e0 <__bss_end__+0xe7b2b8>
    1ad0:	1349053b 	movtne	r0, #38203	; 0x953b
    1ad4:	00000538 	andeq	r0, r0, r8, lsr r5
    1ad8:	0301131a 	movweq	r1, #4890	; 0x131a
    1adc:	3a0b0b0e 	bcc	2c471c <__bss_end__+0x2ba6f4>
    1ae0:	01053b0b 	tsteq	r5, fp, lsl #22
    1ae4:	1b000013 	blne	1b38 <_start-0x64c8>
    1ae8:	0b0b0113 	bleq	2c1f3c <__bss_end__+0x2b7f14>
    1aec:	053b0b3a 	ldreq	r0, [fp, #-2874]!	; 0xfffff4c6
    1af0:	00001301 	andeq	r1, r0, r1, lsl #6
    1af4:	0b01171c 	bleq	4776c <__bss_end__+0x3d744>
    1af8:	3b0b3a0b 	blcc	2d032c <__bss_end__+0x2c6304>
    1afc:	00130105 	andseq	r0, r3, r5, lsl #2
    1b00:	000d1d00 	andeq	r1, sp, r0, lsl #26
    1b04:	0b3a0e03 	bleq	e85318 <__bss_end__+0xe7b2f0>
    1b08:	1349053b 	movtne	r0, #38203	; 0x953b
    1b0c:	151e0000 	ldrne	r0, [lr, #-0]
    1b10:	01192701 	tsteq	r9, r1, lsl #14
    1b14:	1f000013 	svcne	0x00000013
    1b18:	0e030034 	mcreq	0, 0, r0, cr3, cr4, {1}
    1b1c:	053b0b3a 	ldreq	r0, [fp, #-2874]!	; 0xfffff4c6
    1b20:	193f1349 	ldmdbne	pc!, {r0, r3, r6, r8, r9, ip}	; <UNPREDICTABLE>
    1b24:	0000193c 	andeq	r1, r0, ip, lsr r9
    1b28:	03003420 	movweq	r3, #1056	; 0x420
    1b2c:	3b0b3a0e 	blcc	2d036c <__bss_end__+0x2c6344>
    1b30:	3f13490b 	svccc	0x0013490b
    1b34:	00193c19 	andseq	r3, r9, r9, lsl ip
    1b38:	01042100 	mrseq	r2, (UNDEF: 20)
    1b3c:	13490b0b 	movtne	r0, #39691	; 0x9b0b
    1b40:	0b3b0b3a 	bleq	ec4830 <__bss_end__+0xeba808>
    1b44:	00001301 	andeq	r1, r0, r1, lsl #6
    1b48:	03002822 	movweq	r2, #2082	; 0x822
    1b4c:	000b1c0e 	andeq	r1, fp, lr, lsl #24
    1b50:	00342300 	eorseq	r2, r4, r0, lsl #6
    1b54:	0b3a0e03 	bleq	e85368 <__bss_end__+0xe7b340>
    1b58:	13490b3b 	movtne	r0, #39739	; 0x9b3b
    1b5c:	0000061c 	andeq	r0, r0, ip, lsl r6
    1b60:	3f012e24 	svccc	0x00012e24
    1b64:	3a0e0319 	bcc	3827d0 <__bss_end__+0x3787a8>
    1b68:	270b3b0b 	strcs	r3, [fp, -fp, lsl #22]
    1b6c:	11134919 	tstne	r3, r9, lsl r9
    1b70:	40061201 	andmi	r1, r6, r1, lsl #4
    1b74:	19429718 	stmdbne	r2, {r3, r4, r8, r9, sl, ip, pc}^
    1b78:	00001301 	andeq	r1, r0, r1, lsl #6
    1b7c:	01828925 	orreq	r8, r2, r5, lsr #18
    1b80:	31011100 	mrscc	r1, (UNDEF: 17)
    1b84:	26000013 			; <UNDEFINED> instruction: 0x26000013
    1b88:	193f012e 	ldmdbne	pc!, {r1, r2, r3, r5, r8}	; <UNPREDICTABLE>
    1b8c:	0b3a0e03 	bleq	e853a0 <__bss_end__+0xe7b378>
    1b90:	19270b3b 	stmdbne	r7!, {r0, r1, r3, r4, r5, r8, r9, fp}
    1b94:	06120111 			; <UNDEFINED> instruction: 0x06120111
    1b98:	42971840 	addsmi	r1, r7, #64, 16	; 0x400000
    1b9c:	00130119 	andseq	r0, r3, r9, lsl r1
    1ba0:	00052700 	andeq	r2, r5, r0, lsl #14
    1ba4:	0b3a0803 	bleq	e83bb8 <__bss_end__+0xe79b90>
    1ba8:	13490b3b 	movtne	r0, #39739	; 0x9b3b
    1bac:	00001702 	andeq	r1, r0, r2, lsl #14
    1bb0:	01828928 	orreq	r8, r2, r8, lsr #18
    1bb4:	31011101 	tstcc	r1, r1, lsl #2
    1bb8:	00130113 	andseq	r0, r3, r3, lsl r1
    1bbc:	828a2900 	addhi	r2, sl, #0, 18
    1bc0:	18020001 	stmdane	r2, {r0}
    1bc4:	00184291 	mulseq	r8, r1, r2
    1bc8:	00342a00 	eorseq	r2, r4, r0, lsl #20
    1bcc:	0b3a0803 	bleq	e83be0 <__bss_end__+0xe79bb8>
    1bd0:	13490b3b 	movtne	r0, #39739	; 0x9b3b
    1bd4:	00001802 	andeq	r1, r0, r2, lsl #16
    1bd8:	0182892b 	orreq	r8, r2, fp, lsr #18
    1bdc:	31011101 	tstcc	r1, r1, lsl #2
    1be0:	2c000013 	stccs	0, cr0, [r0], {19}
    1be4:	0e03012e 	adfeqsp	f0, f3, #0.5
    1be8:	0b3b0b3a 	bleq	ec48d8 <__bss_end__+0xeba8b0>
    1bec:	01111927 	tsteq	r1, r7, lsr #18
    1bf0:	18400612 	stmdane	r0, {r1, r4, r9, sl}^
    1bf4:	01194297 			; <UNDEFINED> instruction: 0x01194297
    1bf8:	2d000013 	stccs	0, cr0, [r0, #-76]	; 0xffffffb4
    1bfc:	0e030005 	cdpeq	0, 0, cr0, cr3, cr5, {0}
    1c00:	0b3b0b3a 	bleq	ec48f0 <__bss_end__+0xeba8c8>
    1c04:	17021349 	strne	r1, [r2, -r9, asr #6]
    1c08:	352e0000 	strcc	r0, [lr, #-0]!
    1c0c:	2f000000 	svccs	0x00000000
    1c10:	193f002e 	ldmdbne	pc!, {r1, r2, r3, r5}	; <UNPREDICTABLE>
    1c14:	0e6e193c 			; <UNDEFINED> instruction: 0x0e6e193c
    1c18:	0b3a0e03 	bleq	e8542c <__bss_end__+0xe7b404>
    1c1c:	00000b3b 	andeq	r0, r0, fp, lsr fp
    1c20:	01110100 	tsteq	r1, r0, lsl #2
    1c24:	0b130e25 	bleq	4c54c0 <__bss_end__+0x4bb498>
    1c28:	0e1b0e03 	cdpeq	14, 1, cr0, cr11, cr3, {0}
    1c2c:	06120111 			; <UNDEFINED> instruction: 0x06120111
    1c30:	00001710 	andeq	r1, r0, r0, lsl r7
    1c34:	0b002402 	bleq	ac44 <__bss_end__+0xc1c>
    1c38:	030b3e0b 	movweq	r3, #48651	; 0xbe0b
    1c3c:	03000008 	movweq	r0, #8
    1c40:	0b0b0024 	bleq	2c1cd8 <__bss_end__+0x2b7cb0>
    1c44:	0e030b3e 	vmoveq.16	d3[0], r0
    1c48:	26040000 	strcs	r0, [r4], -r0
    1c4c:	00134900 	andseq	r4, r3, r0, lsl #18
    1c50:	00160500 	andseq	r0, r6, r0, lsl #10
    1c54:	0b3a0e03 	bleq	e85468 <__bss_end__+0xe7b440>
    1c58:	13490b3b 	movtne	r0, #39739	; 0x9b3b
    1c5c:	16060000 	strne	r0, [r6], -r0
    1c60:	3a0e0300 	bcc	382868 <__bss_end__+0x378840>
    1c64:	49053b0b 	stmdbmi	r5, {r0, r1, r3, r8, r9, fp, ip, sp}
    1c68:	07000013 	smladeq	r0, r3, r0, r0
    1c6c:	0b0b0117 	bleq	2c20d0 <__bss_end__+0x2b80a8>
    1c70:	0b3b0b3a 	bleq	ec4960 <__bss_end__+0xeba938>
    1c74:	00001301 	andeq	r1, r0, r1, lsl #6
    1c78:	03000d08 	movweq	r0, #3336	; 0xd08
    1c7c:	3b0b3a0e 	blcc	2d04bc <__bss_end__+0x2c6494>
    1c80:	0013490b 	andseq	r4, r3, fp, lsl #18
    1c84:	01010900 	tsteq	r1, r0, lsl #18
    1c88:	13011349 	movwne	r1, #4937	; 0x1349
    1c8c:	210a0000 	mrscs	r0, (UNDEF: 10)
    1c90:	2f134900 	svccs	0x00134900
    1c94:	0b00000b 	bleq	1cc8 <_start-0x6338>
    1c98:	0b0b0113 	bleq	2c20ec <__bss_end__+0x2b80c4>
    1c9c:	0b3b0b3a 	bleq	ec498c <__bss_end__+0xeba964>
    1ca0:	00001301 	andeq	r1, r0, r1, lsl #6
    1ca4:	03000d0c 	movweq	r0, #3340	; 0xd0c
    1ca8:	3b0b3a0e 	blcc	2d04e8 <__bss_end__+0x2c64c0>
    1cac:	3813490b 	ldmdacc	r3, {r0, r1, r3, r8, fp, lr}
    1cb0:	0d00000b 	stceq	0, cr0, [r0, #-44]	; 0xffffffd4
    1cb4:	0b0b000f 	bleq	2c1cf8 <__bss_end__+0x2b7cd0>
    1cb8:	0f0e0000 	svceq	0x000e0000
    1cbc:	490b0b00 	stmdbmi	fp, {r8, r9, fp}
    1cc0:	0f000013 	svceq	0x00000013
    1cc4:	0e030113 	mcreq	1, 0, r0, cr3, cr3, {0}
    1cc8:	0b3a0b0b 	bleq	e848fc <__bss_end__+0xe7a8d4>
    1ccc:	13010b3b 	movwne	r0, #6971	; 0x1b3b
    1cd0:	0d100000 	ldceq	0, cr0, [r0, #-0]
    1cd4:	3a080300 	bcc	2028dc <__bss_end__+0x1f88b4>
    1cd8:	490b3b0b 	stmdbmi	fp, {r0, r1, r3, r8, r9, fp, ip, sp}
    1cdc:	000b3813 	andeq	r3, fp, r3, lsl r8
    1ce0:	01131100 	tsteq	r3, r0, lsl #2
    1ce4:	050b0e03 	streq	r0, [fp, #-3587]	; 0xfffff1fd
    1ce8:	0b3b0b3a 	bleq	ec49d8 <__bss_end__+0xeba9b0>
    1cec:	00001301 	andeq	r1, r0, r1, lsl #6
    1cf0:	03000d12 	movweq	r0, #3346	; 0xd12
    1cf4:	3b0b3a0e 	blcc	2d0534 <__bss_end__+0x2c650c>
    1cf8:	3813490b 	ldmdacc	r3, {r0, r1, r3, r8, fp, lr}
    1cfc:	13000005 	movwne	r0, #5
    1d00:	19270015 	stmdbne	r7!, {r0, r2, r4}
    1d04:	15140000 	ldrne	r0, [r4, #-0]
    1d08:	49192701 	ldmdbmi	r9, {r0, r8, r9, sl, sp}
    1d0c:	00130113 	andseq	r0, r3, r3, lsl r1
    1d10:	00051500 	andeq	r1, r5, r0, lsl #10
    1d14:	00001349 	andeq	r1, r0, r9, asr #6
    1d18:	03011316 	movweq	r1, #4886	; 0x1316
    1d1c:	3a050b0e 	bcc	14495c <__bss_end__+0x13a934>
    1d20:	01053b0b 	tsteq	r5, fp, lsl #22
    1d24:	17000013 	smladne	r0, r3, r0, r0
    1d28:	0e03000d 	cdpeq	0, 0, cr0, cr3, cr13, {0}
    1d2c:	053b0b3a 	ldreq	r0, [fp, #-2874]!	; 0xfffff4c6
    1d30:	0b381349 	bleq	e06a5c <__bss_end__+0xdfca34>
    1d34:	0d180000 	ldceq	0, cr0, [r8, #-0]
    1d38:	3a0e0300 	bcc	382940 <__bss_end__+0x378918>
    1d3c:	49053b0b 	stmdbmi	r5, {r0, r1, r3, r8, r9, fp, ip, sp}
    1d40:	00053813 	andeq	r3, r5, r3, lsl r8
    1d44:	01131900 	tsteq	r3, r0, lsl #18
    1d48:	0b0b0e03 	bleq	2c555c <__bss_end__+0x2bb534>
    1d4c:	053b0b3a 	ldreq	r0, [fp, #-2874]!	; 0xfffff4c6
    1d50:	00001301 	andeq	r1, r0, r1, lsl #6
    1d54:	0b01131a 	bleq	469c4 <__bss_end__+0x3c99c>
    1d58:	3b0b3a0b 	blcc	2d058c <__bss_end__+0x2c6564>
    1d5c:	00130105 	andseq	r0, r3, r5, lsl #2
    1d60:	01171b00 	tsteq	r7, r0, lsl #22
    1d64:	0b3a0b0b 	bleq	e84998 <__bss_end__+0xe7a970>
    1d68:	1301053b 	movwne	r0, #5435	; 0x153b
    1d6c:	0d1c0000 	ldceq	0, cr0, [ip, #-0]
    1d70:	3a0e0300 	bcc	382978 <__bss_end__+0x378950>
    1d74:	49053b0b 	stmdbmi	r5, {r0, r1, r3, r8, r9, fp, ip, sp}
    1d78:	1d000013 	stcne	0, cr0, [r0, #-76]	; 0xffffffb4
    1d7c:	19270115 	stmdbne	r7!, {r0, r2, r4, r8}
    1d80:	00001301 	andeq	r1, r0, r1, lsl #6
    1d84:	0300341e 	movweq	r3, #1054	; 0x41e
    1d88:	3b0b3a0e 	blcc	2d05c8 <__bss_end__+0x2c65a0>
    1d8c:	3f134905 	svccc	0x00134905
    1d90:	00193c19 	andseq	r3, r9, r9, lsl ip
    1d94:	00341f00 	eorseq	r1, r4, r0, lsl #30
    1d98:	0b3a0e03 	bleq	e855ac <__bss_end__+0xe7b584>
    1d9c:	13490b3b 	movtne	r0, #39739	; 0x9b3b
    1da0:	193c193f 	ldmdbne	ip!, {r0, r1, r2, r3, r4, r5, r8, fp, ip}
    1da4:	04200000 	strteq	r0, [r0], #-0
    1da8:	490b0b01 	stmdbmi	fp, {r0, r8, r9, fp}
    1dac:	3b0b3a13 	blcc	2d0600 <__bss_end__+0x2c65d8>
    1db0:	0013010b 	andseq	r0, r3, fp, lsl #2
    1db4:	00282100 	eoreq	r2, r8, r0, lsl #2
    1db8:	0b1c0e03 	bleq	7055cc <__bss_end__+0x6fb5a4>
    1dbc:	34220000 	strtcc	r0, [r2], #-0
    1dc0:	3a0e0300 	bcc	3829c8 <__bss_end__+0x3789a0>
    1dc4:	490b3b0b 	stmdbmi	fp, {r0, r1, r3, r8, r9, fp, ip, sp}
    1dc8:	00061c13 	andeq	r1, r6, r3, lsl ip
    1dcc:	012e2300 			; <UNDEFINED> instruction: 0x012e2300
    1dd0:	0e03193f 			; <UNDEFINED> instruction: 0x0e03193f
    1dd4:	0b3b0b3a 	bleq	ec4ac4 <__bss_end__+0xebaa9c>
    1dd8:	13491927 	movtne	r1, #39207	; 0x9927
    1ddc:	06120111 			; <UNDEFINED> instruction: 0x06120111
    1de0:	42971840 	addsmi	r1, r7, #64, 16	; 0x400000
    1de4:	00130119 	andseq	r0, r3, r9, lsl r1
    1de8:	00052400 	andeq	r2, r5, r0, lsl #8
    1dec:	0b3a0803 	bleq	e83e00 <__bss_end__+0xe79dd8>
    1df0:	13490b3b 	movtne	r0, #39739	; 0x9b3b
    1df4:	00001702 	andeq	r1, r0, r2, lsl #14
    1df8:	03003425 	movweq	r3, #1061	; 0x425
    1dfc:	3b0b3a0e 	blcc	2d063c <__bss_end__+0x2c6614>
    1e00:	0213490b 	andseq	r4, r3, #180224	; 0x2c000
    1e04:	26000017 			; <UNDEFINED> instruction: 0x26000017
    1e08:	08030034 	stmdaeq	r3, {r2, r4, r5}
    1e0c:	0b3b0b3a 	bleq	ec4afc <__bss_end__+0xebaad4>
    1e10:	17021349 	strne	r1, [r2, -r9, asr #6]
    1e14:	89270000 	stmdbhi	r7!, {}	; <UNPREDICTABLE>
    1e18:	11010182 	smlabbne	r1, r2, r1, r0
    1e1c:	00133101 	andseq	r3, r3, r1, lsl #2
    1e20:	828a2800 	addhi	r2, sl, #0, 16
    1e24:	18020001 	stmdane	r2, {r0}
    1e28:	00184291 	mulseq	r8, r1, r2
    1e2c:	012e2900 			; <UNDEFINED> instruction: 0x012e2900
    1e30:	0e03193f 			; <UNDEFINED> instruction: 0x0e03193f
    1e34:	0b3b0b3a 	bleq	ec4b24 <__bss_end__+0xebaafc>
    1e38:	01111927 	tsteq	r1, r7, lsr #18
    1e3c:	18400612 	stmdane	r0, {r1, r4, r9, sl}^
    1e40:	01194297 			; <UNDEFINED> instruction: 0x01194297
    1e44:	2a000013 	bcs	1e98 <_start-0x6168>
    1e48:	01018289 	smlabbeq	r1, r9, r2, r8
    1e4c:	13310111 	teqne	r1, #1073741828	; 0x40000004
    1e50:	00001301 	andeq	r1, r0, r1, lsl #6
    1e54:	0182892b 	orreq	r8, r2, fp, lsr #18
    1e58:	31011100 	mrscc	r1, (UNDEF: 17)
    1e5c:	2c000013 	stccs	0, cr0, [r0], {19}
    1e60:	0e030005 	cdpeq	0, 0, cr0, cr3, cr5, {0}
    1e64:	0b3b0b3a 	bleq	ec4b54 <__bss_end__+0xebab2c>
    1e68:	17021349 	strne	r1, [r2, -r9, asr #6]
    1e6c:	342d0000 	strtcc	r0, [sp], #-0
    1e70:	3a080300 	bcc	202a78 <__bss_end__+0x1f8a50>
    1e74:	490b3b0b 	stmdbmi	fp, {r0, r1, r3, r8, r9, fp, ip, sp}
    1e78:	00180213 	andseq	r0, r8, r3, lsl r2
    1e7c:	002e2e00 	eoreq	r2, lr, r0, lsl #28
    1e80:	193c193f 	ldmdbne	ip!, {r0, r1, r2, r3, r4, r5, r8, fp, ip}
    1e84:	0e030e6e 	cdpeq	14, 0, cr0, cr3, cr14, {3}
    1e88:	0b3b0b3a 	bleq	ec4b78 <__bss_end__+0xebab50>
    1e8c:	01000000 	mrseq	r0, (UNDEF: 0)
    1e90:	0e250111 	mcreq	1, 1, r0, cr5, cr1, {0}
    1e94:	0e030b13 	vmoveq.32	d3[0], r0
    1e98:	01110e1b 	tsteq	r1, fp, lsl lr
    1e9c:	17100612 			; <UNDEFINED> instruction: 0x17100612
    1ea0:	24020000 	strcs	r0, [r2], #-0
    1ea4:	3e0b0b00 	vmlacc.f64	d0, d11, d0
    1ea8:	0008030b 	andeq	r0, r8, fp, lsl #6
    1eac:	00240300 	eoreq	r0, r4, r0, lsl #6
    1eb0:	0b3e0b0b 	bleq	f84ae4 <__bss_end__+0xf7aabc>
    1eb4:	00000e03 	andeq	r0, r0, r3, lsl #28
    1eb8:	03001604 	movweq	r1, #1540	; 0x604
    1ebc:	3b0b3a0e 	blcc	2d06fc <__bss_end__+0x2c66d4>
    1ec0:	0013490b 	andseq	r4, r3, fp, lsl #18
    1ec4:	00160500 	andseq	r0, r6, r0, lsl #10
    1ec8:	0b3a0e03 	bleq	e856dc <__bss_end__+0xe7b6b4>
    1ecc:	1349053b 	movtne	r0, #38203	; 0x953b
    1ed0:	17060000 	strne	r0, [r6, -r0]
    1ed4:	3a0b0b01 	bcc	2c4ae0 <__bss_end__+0x2baab8>
    1ed8:	010b3b0b 	tsteq	fp, fp, lsl #22
    1edc:	07000013 	smladeq	r0, r3, r0, r0
    1ee0:	0e03000d 	cdpeq	0, 0, cr0, cr3, cr13, {0}
    1ee4:	0b3b0b3a 	bleq	ec4bd4 <__bss_end__+0xebabac>
    1ee8:	00001349 	andeq	r1, r0, r9, asr #6
    1eec:	49010108 	stmdbmi	r1, {r3, r8}
    1ef0:	00130113 	andseq	r0, r3, r3, lsl r1
    1ef4:	00210900 	eoreq	r0, r1, r0, lsl #18
    1ef8:	0b2f1349 	bleq	bc6c24 <__bss_end__+0xbbcbfc>
    1efc:	130a0000 	movwne	r0, #40960	; 0xa000
    1f00:	3a0b0b01 	bcc	2c4b0c <__bss_end__+0x2baae4>
    1f04:	010b3b0b 	tsteq	fp, fp, lsl #22
    1f08:	0b000013 	bleq	1f5c <_start-0x60a4>
    1f0c:	0e03000d 	cdpeq	0, 0, cr0, cr3, cr13, {0}
    1f10:	0b3b0b3a 	bleq	ec4c00 <__bss_end__+0xebabd8>
    1f14:	0b381349 	bleq	e06c40 <__bss_end__+0xdfcc18>
    1f18:	0f0c0000 	svceq	0x000c0000
    1f1c:	000b0b00 	andeq	r0, fp, r0, lsl #22
    1f20:	000f0d00 	andeq	r0, pc, r0, lsl #26
    1f24:	13490b0b 	movtne	r0, #39691	; 0x9b0b
    1f28:	260e0000 	strcs	r0, [lr], -r0
    1f2c:	00134900 	andseq	r4, r3, r0, lsl #18
    1f30:	01130f00 	tsteq	r3, r0, lsl #30
    1f34:	0b0b0e03 	bleq	2c5748 <__bss_end__+0x2bb720>
    1f38:	0b3b0b3a 	bleq	ec4c28 <__bss_end__+0xebac00>
    1f3c:	00001301 	andeq	r1, r0, r1, lsl #6
    1f40:	03000d10 	movweq	r0, #3344	; 0xd10
    1f44:	3b0b3a08 	blcc	2d076c <__bss_end__+0x2c6744>
    1f48:	3813490b 	ldmdacc	r3, {r0, r1, r3, r8, fp, lr}
    1f4c:	1100000b 	tstne	r0, fp
    1f50:	0e030113 	mcreq	1, 0, r0, cr3, cr3, {0}
    1f54:	0b3a050b 	bleq	e83388 <__bss_end__+0xe79360>
    1f58:	13010b3b 	movwne	r0, #6971	; 0x1b3b
    1f5c:	0d120000 	ldceq	0, cr0, [r2, #-0]
    1f60:	3a0e0300 	bcc	382b68 <__bss_end__+0x378b40>
    1f64:	490b3b0b 	stmdbmi	fp, {r0, r1, r3, r8, r9, fp, ip, sp}
    1f68:	00053813 	andeq	r3, r5, r3, lsl r8
    1f6c:	00151300 	andseq	r1, r5, r0, lsl #6
    1f70:	00001927 	andeq	r1, r0, r7, lsr #18
    1f74:	27011514 	smladcs	r1, r4, r5, r1
    1f78:	01134919 	tsteq	r3, r9, lsl r9
    1f7c:	15000013 	strne	r0, [r0, #-19]	; 0xffffffed
    1f80:	13490005 	movtne	r0, #36869	; 0x9005
    1f84:	13160000 	tstne	r6, #0
    1f88:	0b0e0301 	bleq	382b94 <__bss_end__+0x378b6c>
    1f8c:	3b0b3a05 	blcc	2d07a8 <__bss_end__+0x2c6780>
    1f90:	00130105 	andseq	r0, r3, r5, lsl #2
    1f94:	000d1700 	andeq	r1, sp, r0, lsl #14
    1f98:	0b3a0e03 	bleq	e857ac <__bss_end__+0xe7b784>
    1f9c:	1349053b 	movtne	r0, #38203	; 0x953b
    1fa0:	00000b38 	andeq	r0, r0, r8, lsr fp
    1fa4:	03000d18 	movweq	r0, #3352	; 0xd18
    1fa8:	3b0b3a0e 	blcc	2d07e8 <__bss_end__+0x2c67c0>
    1fac:	38134905 	ldmdacc	r3, {r0, r2, r8, fp, lr}
    1fb0:	19000005 	stmdbne	r0, {r0, r2}
    1fb4:	0e030113 	mcreq	1, 0, r0, cr3, cr3, {0}
    1fb8:	0b3a0b0b 	bleq	e84bec <__bss_end__+0xe7abc4>
    1fbc:	1301053b 	movwne	r0, #5435	; 0x153b
    1fc0:	131a0000 	tstne	sl, #0
    1fc4:	3a0b0b01 	bcc	2c4bd0 <__bss_end__+0x2baba8>
    1fc8:	01053b0b 	tsteq	r5, fp, lsl #22
    1fcc:	1b000013 	blne	2020 <_start-0x5fe0>
    1fd0:	0b0b0117 	bleq	2c2434 <__bss_end__+0x2b840c>
    1fd4:	053b0b3a 	ldreq	r0, [fp, #-2874]!	; 0xfffff4c6
    1fd8:	00001301 	andeq	r1, r0, r1, lsl #6
    1fdc:	03000d1c 	movweq	r0, #3356	; 0xd1c
    1fe0:	3b0b3a0e 	blcc	2d0820 <__bss_end__+0x2c67f8>
    1fe4:	00134905 	andseq	r4, r3, r5, lsl #18
    1fe8:	01151d00 	tsteq	r5, r0, lsl #26
    1fec:	13011927 	movwne	r1, #6439	; 0x1927
    1ff0:	341e0000 	ldrcc	r0, [lr], #-0
    1ff4:	3a0e0300 	bcc	382bfc <__bss_end__+0x378bd4>
    1ff8:	49053b0b 	stmdbmi	r5, {r0, r1, r3, r8, r9, fp, ip, sp}
    1ffc:	3c193f13 	ldccc	15, cr3, [r9], {19}
    2000:	1f000019 	svcne	0x00000019
    2004:	0e030034 	mcreq	0, 0, r0, cr3, cr4, {1}
    2008:	0b3b0b3a 	bleq	ec4cf8 <__bss_end__+0xebacd0>
    200c:	193f1349 	ldmdbne	pc!, {r0, r3, r6, r8, r9, ip}	; <UNPREDICTABLE>
    2010:	0000193c 	andeq	r1, r0, ip, lsr r9
    2014:	03003420 	movweq	r3, #1056	; 0x420
    2018:	3b0b3a0e 	blcc	2d0858 <__bss_end__+0x2c6830>
    201c:	0213490b 	andseq	r4, r3, #180224	; 0x2c000
    2020:	21000018 	tstcs	r0, r8, lsl r0
    2024:	193f012e 	ldmdbne	pc!, {r1, r2, r3, r5, r8}	; <UNPREDICTABLE>
    2028:	0b3a0e03 	bleq	e8583c <__bss_end__+0xe7b814>
    202c:	19270b3b 	stmdbne	r7!, {r0, r1, r3, r4, r5, r8, r9, fp}
    2030:	06120111 			; <UNDEFINED> instruction: 0x06120111
    2034:	42971840 	addsmi	r1, r7, #64, 16	; 0x400000
    2038:	00130119 	andseq	r0, r3, r9, lsl r1
    203c:	00052200 	andeq	r2, r5, r0, lsl #4
    2040:	0b3a0803 	bleq	e84054 <__bss_end__+0xe7a02c>
    2044:	13490b3b 	movtne	r0, #39739	; 0x9b3b
    2048:	00001802 	andeq	r1, r0, r2, lsl #16
    204c:	3f002e23 	svccc	0x00002e23
    2050:	3a0e0319 	bcc	382cbc <__bss_end__+0x378c94>
    2054:	270b3b0b 	strcs	r3, [fp, -fp, lsl #22]
    2058:	12011119 	andne	r1, r1, #1073741830	; 0x40000006
    205c:	97184006 	ldrls	r4, [r8, -r6]
    2060:	00001942 	andeq	r1, r0, r2, asr #18
    2064:	3f012e24 	svccc	0x00012e24
    2068:	3a0e0319 	bcc	382cd4 <__bss_end__+0x378cac>
    206c:	270b3b0b 	strcs	r3, [fp, -fp, lsl #22]
    2070:	11134919 	tstne	r3, r9, lsl r9
    2074:	40061201 	andmi	r1, r6, r1, lsl #4
    2078:	19429718 	stmdbne	r2, {r3, r4, r8, r9, sl, ip, pc}^
    207c:	00001301 	andeq	r1, r0, r1, lsl #6
    2080:	03000525 	movweq	r0, #1317	; 0x525
    2084:	3b0b3a0e 	blcc	2d08c4 <__bss_end__+0x2c689c>
    2088:	0213490b 	andseq	r4, r3, #180224	; 0x2c000
    208c:	26000017 			; <UNDEFINED> instruction: 0x26000017
    2090:	0e030034 	mcreq	0, 0, r0, cr3, cr4, {1}
    2094:	19341349 	ldmdbne	r4!, {r0, r3, r6, r8, r9, ip}
    2098:	00001802 	andeq	r1, r0, r2, lsl #16
    209c:	03003427 	movweq	r3, #1063	; 0x427
    20a0:	3b0b3a08 	blcc	2d08c8 <__bss_end__+0x2c68a0>
    20a4:	0213490b 	andseq	r4, r3, #180224	; 0x2c000
    20a8:	28000017 	stmdacs	r0, {r0, r1, r2, r4}
    20ac:	01018289 	smlabbeq	r1, r9, r2, r8
    20b0:	13310111 	teqne	r1, #1073741828	; 0x40000004
    20b4:	00001301 	andeq	r1, r0, r1, lsl #6
    20b8:	01828a29 	orreq	r8, r2, r9, lsr #20
    20bc:	91180200 	tstls	r8, r0, lsl #4
    20c0:	00001842 	andeq	r1, r0, r2, asr #16
    20c4:	0182892a 	orreq	r8, r2, sl, lsr #18
    20c8:	31011100 	mrscc	r1, (UNDEF: 17)
    20cc:	2b000013 	blcs	2120 <_start-0x5ee0>
    20d0:	08030005 	stmdaeq	r3, {r0, r2}
    20d4:	0b3b0b3a 	bleq	ec4dc4 <__bss_end__+0xebad9c>
    20d8:	17021349 	strne	r1, [r2, -r9, asr #6]
    20dc:	342c0000 	strtcc	r0, [ip], #-0
    20e0:	3a0e0300 	bcc	382ce8 <__bss_end__+0x378cc0>
    20e4:	490b3b0b 	stmdbmi	fp, {r0, r1, r3, r8, r9, fp, ip, sp}
    20e8:	00170213 	andseq	r0, r7, r3, lsl r2
    20ec:	002e2d00 	eoreq	r2, lr, r0, lsl #26
    20f0:	0e03193f 			; <UNDEFINED> instruction: 0x0e03193f
    20f4:	0b3b0b3a 	bleq	ec4de4 <__bss_end__+0xebadbc>
    20f8:	13491927 	movtne	r1, #39207	; 0x9927
    20fc:	06120111 			; <UNDEFINED> instruction: 0x06120111
    2100:	42971840 	addsmi	r1, r7, #64, 16	; 0x400000
    2104:	2e000019 	mcrcs	0, 0, r0, cr0, cr9, {0}
    2108:	193f002e 	ldmdbne	pc!, {r1, r2, r3, r5}	; <UNPREDICTABLE>
    210c:	0e6e193c 			; <UNDEFINED> instruction: 0x0e6e193c
    2110:	0b3a0e03 	bleq	e85924 <__bss_end__+0xe7b8fc>
    2114:	00000b3b 	andeq	r0, r0, fp, lsr fp
	...

Disassembly of section .debug_loc:

00000000 <.debug_loc>:
       0:	00000044 	andeq	r0, r0, r4, asr #32
       4:	00000048 	andeq	r0, r0, r8, asr #32
       8:	48500001 	ldmdami	r0, {r0}^
       c:	d4000000 	strle	r0, [r0], #-0
      10:	01000000 	mrseq	r0, (UNDEF: 0)
      14:	00005400 	andeq	r5, r0, r0, lsl #8
      18:	00000000 	andeq	r0, r0, r0
      1c:	07400000 	strbeq	r0, [r0, -r0]
      20:	07680000 	strbeq	r0, [r8, -r0]!
      24:	00010000 	andeq	r0, r1, r0
      28:	00000055 	andeq	r0, r0, r5, asr r0
      2c:	00000000 	andeq	r0, r0, r0
      30:	00074800 	andeq	r4, r7, r0, lsl #16
      34:	00076c00 	andeq	r6, r7, r0, lsl #24
      38:	56000100 	strpl	r0, [r0], -r0, lsl #2
	...
      44:	00000760 	andeq	r0, r0, r0, ror #14
      48:	00000770 	andeq	r0, r0, r0, ror r7
      4c:	9f300002 	svcls	0x00300002
      50:	00000770 	andeq	r0, r0, r0, ror r7
      54:	00000878 	andeq	r0, r0, r8, ror r8
      58:	00560001 	subseq	r0, r6, r1
      5c:	00000000 	andeq	r0, r0, r0
      60:	60000000 	andvs	r0, r0, r0
      64:	70000007 	andvc	r0, r0, r7
      68:	02000007 	andeq	r0, r0, #7
      6c:	709f3000 	addsvc	r3, pc, r0
      70:	78000007 	stmdavc	r0, {r0, r1, r2}
      74:	01000008 	tsteq	r0, r8
      78:	00005500 	andeq	r5, r0, r0, lsl #10
      7c:	00000000 	andeq	r0, r0, r0
      80:	05140000 	ldreq	r0, [r4, #-0]
      84:	05400000 	strbeq	r0, [r0, #-0]
      88:	00010000 	andeq	r0, r1, r0
      8c:	00054050 	andeq	r4, r5, r0, asr r0
      90:	00063800 	andeq	r3, r6, r0, lsl #16
      94:	55000100 	strpl	r0, [r0, #-256]	; 0xffffff00
      98:	00000638 	andeq	r0, r0, r8, lsr r6
      9c:	0000063b 	andeq	r0, r0, fp, lsr r6
      a0:	3b500001 	blcc	14000ac <__bss_end__+0x13f6084>
      a4:	54000006 	strpl	r0, [r0], #-6
      a8:	04000006 	streq	r0, [r0], #-6
      ac:	5001f300 	andpl	pc, r1, r0, lsl #6
      b0:	0006549f 	muleq	r6, pc, r4	; <UNPREDICTABLE>
      b4:	00072c00 	andeq	r2, r7, r0, lsl #24
      b8:	55000100 	strpl	r0, [r0, #-256]	; 0xffffff00
	...
      c4:	00000514 	andeq	r0, r0, r4, lsl r5
      c8:	00000543 	andeq	r0, r0, r3, asr #10
      cc:	43510001 	cmpmi	r1, #1
      d0:	38000005 	stmdacc	r0, {r0, r2}
      d4:	01000006 	tsteq	r0, r6
      d8:	06385900 	ldrteq	r5, [r8], -r0, lsl #18
      dc:	063b0000 	ldrteq	r0, [fp], -r0
      e0:	00010000 	andeq	r0, r1, r0
      e4:	00063b51 	andeq	r3, r6, r1, asr fp
      e8:	00065400 	andeq	r5, r6, r0, lsl #8
      ec:	f3000400 	vshl.u8	d0, d0, d0
      f0:	549f5101 	ldrpl	r5, [pc], #257	; f8 <_start-0x7f08>
      f4:	2c000006 	stccs	0, cr0, [r0], {6}
      f8:	01000007 	tsteq	r0, r7
      fc:	00005900 	andeq	r5, r0, r0, lsl #18
     100:	00000000 	andeq	r0, r0, r0
     104:	05140000 	ldreq	r0, [r4, #-0]
     108:	05430000 	strbeq	r0, [r3, #-0]
     10c:	00010000 	andeq	r0, r1, r0
     110:	00054352 	andeq	r4, r5, r2, asr r3
     114:	00063800 	andeq	r3, r6, r0, lsl #16
     118:	58000100 	stmdapl	r0, {r8}
     11c:	00000638 	andeq	r0, r0, r8, lsr r6
     120:	0000063b 	andeq	r0, r0, fp, lsr r6
     124:	3b520001 	blcc	1480130 <__bss_end__+0x1476108>
     128:	54000006 	strpl	r0, [r0], #-6
     12c:	04000006 	streq	r0, [r0], #-6
     130:	5201f300 	andpl	pc, r1, #0, 6
     134:	0006549f 	muleq	r6, pc, r4	; <UNPREDICTABLE>
     138:	00072c00 	andeq	r2, r7, r0, lsl #24
     13c:	58000100 	stmdapl	r0, {r8}
	...
     148:	00000514 	andeq	r0, r0, r4, lsl r5
     14c:	00000524 	andeq	r0, r0, r4, lsr #10
     150:	24530001 	ldrbcs	r0, [r3], #-1
     154:	c4000005 	strgt	r0, [r0], #-5
     158:	01000005 	tsteq	r0, r5
     15c:	05c45700 	strbeq	r5, [r4, #1792]	; 0x700
     160:	06380000 	ldrteq	r0, [r8], -r0
     164:	00040000 	andeq	r0, r4, r0
     168:	9f5301f3 	svcls	0x005301f3
     16c:	00000638 	andeq	r0, r0, r8, lsr r6
     170:	000006dc 	ldrdeq	r0, [r0], -ip
     174:	dc570001 	mrrcle	0, 0, r0, r7, cr1
     178:	2c000006 	stccs	0, cr0, [r0], {6}
     17c:	04000007 	streq	r0, [r0], #-7
     180:	5301f300 	movwpl	pc, #4864	; 0x1300	; <UNPREDICTABLE>
     184:	0000009f 	muleq	r0, pc, r0	; <UNPREDICTABLE>
     188:	00000000 	andeq	r0, r0, r0
     18c:	00052000 	andeq	r2, r5, r0
     190:	00057c00 	andeq	r7, r5, r0, lsl #24
     194:	30000200 	andcc	r0, r0, r0, lsl #4
     198:	00057c9f 	muleq	r5, pc, ip	; <UNPREDICTABLE>
     19c:	00061000 	andeq	r1, r6, r0
     1a0:	54000100 	strpl	r0, [r0], #-256	; 0xffffff00
     1a4:	00000638 	andeq	r0, r0, r8, lsr r6
     1a8:	000006dc 	ldrdeq	r0, [r0], -ip
     1ac:	9f300002 	svcls	0x00300002
     1b0:	000006dc 	ldrdeq	r0, [r0], -ip
     1b4:	0000072c 	andeq	r0, r0, ip, lsr #14
     1b8:	00540001 	subseq	r0, r4, r1
     1bc:	00000000 	andeq	r0, r0, r0
     1c0:	20000000 	andcs	r0, r0, r0
     1c4:	10000005 	andne	r0, r0, r5
     1c8:	02000006 	andeq	r0, r0, #6
     1cc:	109f3000 	addsne	r3, pc, r0
     1d0:	14000006 	strne	r0, [r0], #-6
     1d4:	01000006 	tsteq	r0, r6
     1d8:	06145000 	ldreq	r5, [r4], -r0
     1dc:	06380000 	ldrteq	r0, [r8], -r0
     1e0:	00010000 	andeq	r0, r1, r0
     1e4:	00063854 	andeq	r3, r6, r4, asr r8
     1e8:	00072c00 	andeq	r2, r7, r0, lsl #24
     1ec:	30000200 	andcc	r0, r0, r0, lsl #4
     1f0:	0000009f 	muleq	r0, pc, r0	; <UNPREDICTABLE>
     1f4:	00000000 	andeq	r0, r0, r0
     1f8:	00055800 	andeq	r5, r5, r0, lsl #16
     1fc:	00058800 	andeq	r8, r5, r0, lsl #16
     200:	53000100 	movwpl	r0, #256	; 0x100
     204:	00000588 	andeq	r0, r0, r8, lsl #11
     208:	000005af 	andeq	r0, r0, pc, lsr #11
     20c:	04740002 	ldrbteq	r0, [r4], #-2
     210:	000005af 	andeq	r0, r0, pc, lsr #11
     214:	00000638 	andeq	r0, r0, r8, lsr r6
     218:	c8760004 	ldmdagt	r6!, {r2}^
     21c:	06549f7d 	usub16eq	r9, r4, sp
     220:	065b0000 	ldrbeq	r0, [fp], -r0
     224:	00010000 	andeq	r0, r1, r0
     228:	00065b53 	andeq	r5, r6, r3, asr fp
     22c:	00068800 	andeq	r8, r6, r0, lsl #16
     230:	76000400 	strvc	r0, [r0], -r0, lsl #8
     234:	889f7dc8 	ldmhi	pc, {r3, r6, r7, r8, sl, fp, ip, sp, lr}	; <UNPREDICTABLE>
     238:	8f000006 	svchi	0x00000006
     23c:	01000006 	tsteq	r0, r6
     240:	068f5300 	streq	r5, [pc], r0, lsl #6
     244:	072c0000 	streq	r0, [ip, -r0]!
     248:	00040000 	andeq	r0, r4, r0
     24c:	9f7dc876 	svcls	0x007dc876
	...
     258:	0000055c 	andeq	r0, r0, ip, asr r5
     25c:	00000638 	andeq	r0, r0, r8, lsr r6
     260:	54560001 	ldrbpl	r0, [r6], #-1
     264:	2c000006 	stccs	0, cr0, [r0], {6}
     268:	01000007 	tsteq	r0, r7
     26c:	00005600 	andeq	r5, r0, r0, lsl #12
     270:	00000000 	andeq	r0, r0, r0
     274:	045c0000 	ldrbeq	r0, [ip], #-0
     278:	04730000 	ldrbteq	r0, [r3], #-0
     27c:	00010000 	andeq	r0, r1, r0
     280:	00047350 	andeq	r7, r4, r0, asr r3
     284:	00051400 	andeq	r1, r5, r0, lsl #8
     288:	55000100 	strpl	r0, [r0, #-256]	; 0xffffff00
	...
     294:	0000045c 	andeq	r0, r0, ip, asr r4
     298:	00000473 	andeq	r0, r0, r3, ror r4
     29c:	73510001 	cmpvc	r1, #1
     2a0:	14000004 	strne	r0, [r0], #-4
     2a4:	01000005 	tsteq	r0, r5
     2a8:	00005800 	andeq	r5, r0, r0, lsl #16
     2ac:	00000000 	andeq	r0, r0, r0
     2b0:	045c0000 	ldrbeq	r0, [ip], #-0
     2b4:	04730000 	ldrbteq	r0, [r3], #-0
     2b8:	00010000 	andeq	r0, r1, r0
     2bc:	00047352 	andeq	r7, r4, r2, asr r3
     2c0:	00051400 	andeq	r1, r5, r0, lsl #8
     2c4:	57000100 	strpl	r0, [r0, -r0, lsl #2]
	...
     2d0:	0000045c 	andeq	r0, r0, ip, asr r4
     2d4:	00000473 	andeq	r0, r0, r3, ror r4
     2d8:	73530001 	cmpvc	r3, #1
     2dc:	14000004 	strne	r0, [r0], #-4
     2e0:	01000005 	tsteq	r0, r5
     2e4:	00005600 	andeq	r5, r0, r0, lsl #12
     2e8:	00000000 	andeq	r0, r0, r0
     2ec:	04740000 	ldrbteq	r0, [r4], #-0
     2f0:	048c0000 	streq	r0, [ip], #0
     2f4:	00010000 	andeq	r0, r1, r0
     2f8:	00048c50 	andeq	r8, r4, r0, asr ip
     2fc:	0004e000 	andeq	lr, r4, r0
     300:	54000100 	strpl	r0, [r0], #-256	; 0xffffff00
     304:	000004e0 	andeq	r0, r0, r0, ror #9
     308:	000004e3 	andeq	r0, r0, r3, ror #9
     30c:	00500001 	subseq	r0, r0, r1
     310:	00000000 	andeq	r0, r0, r0
     314:	84000000 	strhi	r0, [r0], #-0
     318:	8f000003 	svchi	0x00000003
     31c:	01000003 	tsteq	r0, r3
     320:	038f5000 	orreq	r5, pc, #0
     324:	03e80000 	mvneq	r0, #0
     328:	00010000 	andeq	r0, r1, r0
     32c:	00000054 	andeq	r0, r0, r4, asr r0
     330:	00000000 	andeq	r0, r0, r0
     334:	00015000 	andeq	r5, r1, r0
     338:	00015f00 	andeq	r5, r1, r0, lsl #30
     33c:	50000100 	andpl	r0, r0, r0, lsl #2
     340:	0000015f 	andeq	r0, r0, pc, asr r1
     344:	00000164 	andeq	r0, r0, r4, ror #2
     348:	01f30004 	mvnseq	r0, r4
     34c:	00009f50 	andeq	r9, r0, r0, asr pc
     350:	00000000 	andeq	r0, r0, r0
     354:	01500000 	cmpeq	r0, r0
     358:	015c0000 	cmpeq	ip, r0
     35c:	00010000 	andeq	r0, r1, r0
     360:	00015c51 	andeq	r5, r1, r1, asr ip
     364:	00015f00 	andeq	r5, r1, r0, lsl #30
     368:	52000100 	andpl	r0, r0, #0, 2
     36c:	0000015f 	andeq	r0, r0, pc, asr r1
     370:	00000164 	andeq	r0, r0, r4, ror #2
     374:	01f30004 	mvnseq	r0, r4
     378:	00009f51 	andeq	r9, r0, r1, asr pc
     37c:	00000000 	andeq	r0, r0, r0
     380:	00440000 	subeq	r0, r4, r0
     384:	00700000 	rsbseq	r0, r0, r0
     388:	00010000 	andeq	r0, r1, r0
     38c:	00007050 	andeq	r7, r0, r0, asr r0
     390:	00012c00 	andeq	r2, r1, r0, lsl #24
     394:	55000100 	strpl	r0, [r0, #-256]	; 0xffffff00
     398:	0000012c 	andeq	r0, r0, ip, lsr #2
     39c:	00000130 	andeq	r0, r0, r0, lsr r1
     3a0:	30500001 	subscc	r0, r0, r1
     3a4:	50000001 	andpl	r0, r0, r1
     3a8:	04000001 	streq	r0, [r0], #-1
     3ac:	5001f300 	andpl	pc, r1, r0, lsl #6
     3b0:	0000009f 	muleq	r0, pc, r0	; <UNPREDICTABLE>
     3b4:	00000000 	andeq	r0, r0, r0
     3b8:	00004400 	andeq	r4, r0, r0, lsl #8
     3bc:	00007300 	andeq	r7, r0, r0, lsl #6
     3c0:	51000100 	mrspl	r0, (UNDEF: 16)
     3c4:	00000073 	andeq	r0, r0, r3, ror r0
     3c8:	0000012c 	andeq	r0, r0, ip, lsr #2
     3cc:	01f30004 	mvnseq	r0, r4
     3d0:	012c9f51 			; <UNDEFINED> instruction: 0x012c9f51
     3d4:	01500000 	cmpeq	r0, r0
     3d8:	00010000 	andeq	r0, r1, r0
     3dc:	00000051 	andeq	r0, r0, r1, asr r0
     3e0:	00000000 	andeq	r0, r0, r0
     3e4:	00004400 	andeq	r4, r0, r0, lsl #8
     3e8:	00007300 	andeq	r7, r0, r0, lsl #6
     3ec:	52000100 	andpl	r0, r0, #0, 2
     3f0:	00000073 	andeq	r0, r0, r3, ror r0
     3f4:	0000012c 	andeq	r0, r0, ip, lsr #2
     3f8:	2c560001 	mrrccs	0, 0, r0, r6, cr1
     3fc:	50000001 	andpl	r0, r0, r1
     400:	01000001 	tsteq	r0, r1
     404:	00005200 	andeq	r5, r0, r0, lsl #4
     408:	00000000 	andeq	r0, r0, r0
     40c:	00480000 	subeq	r0, r8, r0
     410:	004c0000 	subeq	r0, ip, r0
     414:	00020000 	andeq	r0, r2, r0
     418:	004c9f30 	subeq	r9, ip, r0, lsr pc
     41c:	007c0000 	rsbseq	r0, ip, r0
     420:	00010000 	andeq	r0, r1, r0
     424:	00012c54 	andeq	r2, r1, r4, asr ip
     428:	00015000 	andeq	r5, r1, r0
     42c:	54000100 	strpl	r0, [r0], #-256	; 0xffffff00
	...
     438:	0000007c 	andeq	r0, r0, ip, ror r0
     43c:	0000012c 	andeq	r0, r0, ip, lsr #2
     440:	00540001 	subseq	r0, r4, r1
     444:	00000000 	andeq	r0, r0, r0
     448:	a0000000 	andge	r0, r0, r0
     44c:	e8000000 	stmda	r0, {}	; <UNPREDICTABLE>
     450:	01000000 	mrseq	r0, (UNDEF: 0)
     454:	01005600 	tsteq	r0, r0, lsl #12
     458:	012c0000 			; <UNDEFINED> instruction: 0x012c0000
     45c:	00010000 	andeq	r0, r1, r0
     460:	00000056 	andeq	r0, r0, r6, asr r0
     464:	00000000 	andeq	r0, r0, r0
     468:	0000b400 	andeq	fp, r0, r0, lsl #8
     46c:	0000dc00 	andeq	sp, r0, r0, lsl #24
     470:	76000300 	strvc	r0, [r0], -r0, lsl #6
     474:	00dc9f10 	sbcseq	r9, ip, r0, lsl pc
     478:	012c0000 			; <UNDEFINED> instruction: 0x012c0000
     47c:	00030000 	andeq	r0, r3, r0
     480:	009f1c76 	addseq	r1, pc, r6, ror ip	; <UNPREDICTABLE>
     484:	00000000 	andeq	r0, r0, r0
     488:	7c000000 	stcvc	0, cr0, [r0], {-0}
     48c:	a8000002 	stmdage	r0, {r1}
     490:	01000002 	tsteq	r0, r2
     494:	02a85000 	adceq	r5, r8, #0
     498:	035c0000 	cmpeq	ip, #0
     49c:	00010000 	andeq	r0, r1, r0
     4a0:	00035c55 	andeq	r5, r3, r5, asr ip
     4a4:	00036000 	andeq	r6, r3, r0
     4a8:	50000100 	andpl	r0, r0, r0, lsl #2
     4ac:	00000360 	andeq	r0, r0, r0, ror #6
     4b0:	00000364 	andeq	r0, r0, r4, ror #6
     4b4:	01f30004 	mvnseq	r0, r4
     4b8:	03649f50 	cmneq	r4, #80, 30	; 0x140
     4bc:	03840000 	orreq	r0, r4, #0
     4c0:	00010000 	andeq	r0, r1, r0
     4c4:	00000055 	andeq	r0, r0, r5, asr r0
     4c8:	00000000 	andeq	r0, r0, r0
     4cc:	00027c00 	andeq	r7, r2, r0, lsl #24
     4d0:	0002ab00 	andeq	sl, r2, r0, lsl #22
     4d4:	51000100 	mrspl	r0, (UNDEF: 16)
     4d8:	000002ab 	andeq	r0, r0, fp, lsr #5
     4dc:	0000035c 	andeq	r0, r0, ip, asr r3
     4e0:	01f30004 	mvnseq	r0, r4
     4e4:	035c9f51 	cmpeq	ip, #324	; 0x144
     4e8:	03640000 	cmneq	r4, #0
     4ec:	00010000 	andeq	r0, r1, r0
     4f0:	00036451 	andeq	r6, r3, r1, asr r4
     4f4:	00038400 	andeq	r8, r3, r0, lsl #8
     4f8:	f3000400 	vshl.u8	d0, d0, d0
     4fc:	009f5101 	addseq	r5, pc, r1, lsl #2
     500:	00000000 	andeq	r0, r0, r0
     504:	7c000000 	stcvc	0, cr0, [r0], {-0}
     508:	ab000002 	blge	518 <_start-0x7ae8>
     50c:	01000002 	tsteq	r0, r2
     510:	02ab5200 	adceq	r5, fp, #0, 4
     514:	035c0000 	cmpeq	ip, #0
     518:	00010000 	andeq	r0, r1, r0
     51c:	00035c56 	andeq	r5, r3, r6, asr ip
     520:	00036400 	andeq	r6, r3, r0, lsl #8
     524:	52000100 	andpl	r0, r0, #0, 2
     528:	00000364 	andeq	r0, r0, r4, ror #6
     52c:	00000384 	andeq	r0, r0, r4, lsl #7
     530:	00560001 	subseq	r0, r6, r1
     534:	00000000 	andeq	r0, r0, r0
     538:	80000000 	andhi	r0, r0, r0
     53c:	84000002 	strhi	r0, [r0], #-2
     540:	02000002 	andeq	r0, r0, #2
     544:	849f3000 	ldrhi	r3, [pc], #0	; 54c <_start-0x7ab4>
     548:	b4000002 	strlt	r0, [r0], #-2
     54c:	01000002 	tsteq	r0, r2
     550:	035c5400 	cmpeq	ip, #0, 8
     554:	03640000 	cmneq	r4, #0
     558:	00010000 	andeq	r0, r1, r0
     55c:	00000054 	andeq	r0, r0, r4, asr r0
     560:	00000000 	andeq	r0, r0, r0
     564:	0002b400 	andeq	fp, r2, r0, lsl #8
     568:	00035c00 	andeq	r5, r3, r0, lsl #24
     56c:	54000100 	strpl	r0, [r0], #-256	; 0xffffff00
     570:	00000364 	andeq	r0, r0, r4, ror #6
     574:	00000384 	andeq	r0, r0, r4, lsl #7
     578:	00540001 	subseq	r0, r4, r1
     57c:	00000000 	andeq	r0, r0, r0
     580:	dc000000 	stcle	0, cr0, [r0], {-0}
     584:	5c000002 	stcpl	0, cr0, [r0], {2}
     588:	01000003 	tsteq	r0, r3
     58c:	03645600 	cmneq	r4, #0, 12
     590:	03840000 	orreq	r0, r4, #0
     594:	00010000 	andeq	r0, r1, r0
     598:	00000056 	andeq	r0, r0, r6, asr r0
     59c:	00000000 	andeq	r0, r0, r0
     5a0:	0002f000 	andeq	pc, r2, r0
     5a4:	00031800 	andeq	r1, r3, r0, lsl #16
     5a8:	76000300 	strvc	r0, [r0], -r0, lsl #6
     5ac:	03189f10 	tsteq	r8, #16, 30	; 0x40
     5b0:	035c0000 	cmpeq	ip, #0
     5b4:	00030000 	andeq	r0, r3, r0
     5b8:	649f1c76 	ldrvs	r1, [pc], #3190	; 5c0 <_start-0x7a40>
     5bc:	84000003 	strhi	r0, [r0], #-3
     5c0:	03000003 	movweq	r0, #3
     5c4:	9f1c7600 	svcls	0x001c7600
	...
     5d0:	00000188 	andeq	r0, r0, r8, lsl #3
     5d4:	000001a0 	andeq	r0, r0, r0, lsr #3
     5d8:	a0500001 	subsge	r0, r0, r1
     5dc:	14000001 	strne	r0, [r0], #-1
     5e0:	01000002 	tsteq	r0, r2
     5e4:	02145400 	andseq	r5, r4, #0, 8
     5e8:	021b0000 	andseq	r0, fp, #0
     5ec:	00010000 	andeq	r0, r1, r0
     5f0:	00021b50 	andeq	r1, r2, r0, asr fp
     5f4:	00027c00 	andeq	r7, r2, r0, lsl #24
     5f8:	54000100 	strpl	r0, [r0], #-256	; 0xffffff00
	...
     604:	000001c4 	andeq	r0, r0, r4, asr #3
     608:	00000214 	andeq	r0, r0, r4, lsl r2
     60c:	2c540001 	mrrccs	0, 0, r0, r4, cr1
     610:	7c000002 	stcvc	0, cr0, [r0], {2}
     614:	01000002 	tsteq	r0, r2
     618:	00005400 	andeq	r5, r0, r0, lsl #8
     61c:	00000000 	andeq	r0, r0, r0
     620:	01d80000 	bicseq	r0, r8, r0
     624:	02000000 	andeq	r0, r0, #0
     628:	00030000 	andeq	r0, r3, r0
     62c:	009f1074 	addseq	r1, pc, r4, ror r0	; <UNPREDICTABLE>
     630:	14000002 	strne	r0, [r0], #-2
     634:	03000002 	movweq	r0, #2
     638:	9f1c7400 	svcls	0x001c7400
     63c:	0000022c 	andeq	r0, r0, ip, lsr #4
     640:	0000027c 	andeq	r0, r0, ip, ror r2
     644:	1c740003 	ldclne	0, cr0, [r4], #-12
     648:	0000009f 	muleq	r0, pc, r0	; <UNPREDICTABLE>
     64c:	00000000 	andeq	r0, r0, r0
     650:	00016400 	andeq	r6, r1, r0, lsl #8
     654:	00017f00 	andeq	r7, r1, r0, lsl #30
     658:	50000100 	andpl	r0, r0, r0, lsl #2
     65c:	0000017f 	andeq	r0, r0, pc, ror r1
     660:	00000188 	andeq	r0, r0, r8, lsl #3
     664:	00540001 	subseq	r0, r4, r1
     668:	00000000 	andeq	r0, r0, r0
     66c:	3c000000 	stccc	0, cr0, [r0], {-0}
     670:	40000000 	andmi	r0, r0, r0
     674:	01000000 	mrseq	r0, (UNDEF: 0)
     678:	00405000 	subeq	r5, r0, r0
     67c:	00440000 	subeq	r0, r4, r0
     680:	00040000 	andeq	r0, r4, r0
     684:	9f01b870 	svcls	0x0001b870
	...
     690:	00000030 	andeq	r0, r0, r0, lsr r0
     694:	00000034 	andeq	r0, r0, r4, lsr r0
     698:	34500001 	ldrbcc	r0, [r0], #-1
     69c:	3c000000 	stccc	0, cr0, [r0], {-0}
     6a0:	04000000 	streq	r0, [r0], #-0
     6a4:	5001f300 	andpl	pc, r1, r0, lsl #6
     6a8:	0000009f 	muleq	r0, pc, r0	; <UNPREDICTABLE>
     6ac:	00000000 	andeq	r0, r0, r0
     6b0:	00001800 	andeq	r1, r0, r0, lsl #16
     6b4:	00002300 	andeq	r2, r0, r0, lsl #6
     6b8:	50000100 	andpl	r0, r0, r0, lsl #2
     6bc:	00000023 	andeq	r0, r0, r3, lsr #32
     6c0:	00000030 	andeq	r0, r0, r0, lsr r0
     6c4:	00540001 	subseq	r0, r4, r1
     6c8:	00000000 	andeq	r0, r0, r0
     6cc:	08000000 	stmdaeq	r0, {}	; <UNPREDICTABLE>
     6d0:	0f000000 	svceq	0x00000000
     6d4:	01000000 	mrseq	r0, (UNDEF: 0)
     6d8:	000f5000 	andeq	r5, pc, r0
     6dc:	00180000 	andseq	r0, r8, r0
     6e0:	00040000 	andeq	r0, r4, r0
     6e4:	9f5001f3 	svcls	0x005001f3
	...
     6f4:	00000004 	andeq	r0, r0, r4
     6f8:	04500001 	ldrbeq	r0, [r0], #-1
     6fc:	08000000 	stmdaeq	r0, {}	; <UNPREDICTABLE>
     700:	03000000 	movweq	r0, #0
     704:	9f487000 	svcls	0x00487000
	...
     710:	000003e8 	andeq	r0, r0, r8, ror #7
     714:	00000410 	andeq	r0, r0, r0, lsl r4
     718:	10500001 	subsne	r0, r0, r1
     71c:	24000004 	strcs	r0, [r0], #-4
     720:	01000004 	tsteq	r0, r4
     724:	04245400 	strteq	r5, [r4], #-1024	; 0xfffffc00
     728:	042c0000 	strteq	r0, [ip], #-0
     72c:	00050000 	andeq	r0, r5, r0
     730:	009c1c03 	addseq	r1, ip, r3, lsl #24
     734:	00042c00 	andeq	r2, r4, r0, lsl #24
     738:	00042f00 	andeq	r2, r4, r0, lsl #30
     73c:	50000100 	andpl	r0, r0, r0, lsl #2
     740:	0000042f 	andeq	r0, r0, pc, lsr #8
     744:	0000045c 	andeq	r0, r0, ip, asr r4
     748:	01f30004 	mvnseq	r0, r4
     74c:	00009f50 	andeq	r9, r0, r0, asr pc
     750:	00000000 	andeq	r0, r0, r0
     754:	03e80000 	mvneq	r0, #0
     758:	040c0000 	streq	r0, [ip], #-0
     75c:	00010000 	andeq	r0, r1, r0
     760:	00040c51 	andeq	r0, r4, r1, asr ip
     764:	00042c00 	andeq	r2, r4, r0, lsl #24
     768:	55000100 	strpl	r0, [r0, #-256]	; 0xffffff00
     76c:	0000042c 	andeq	r0, r0, ip, lsr #8
     770:	0000042f 	andeq	r0, r0, pc, lsr #8
     774:	2f510001 	svccs	0x00510001
     778:	5c000004 	stcpl	0, cr0, [r0], {4}
     77c:	04000004 	streq	r0, [r0], #-4
     780:	5101f300 	mrspl	pc, SP_irq	; <UNPREDICTABLE>
     784:	0000009f 	muleq	r0, pc, r0	; <UNPREDICTABLE>
     788:	00000000 	andeq	r0, r0, r0
     78c:	00002c00 	andeq	r2, r0, r0, lsl #24
     790:	00003800 	andeq	r3, r0, r0, lsl #16
     794:	50000100 	andpl	r0, r0, r0, lsl #2
     798:	00000038 	andeq	r0, r0, r8, lsr r0
     79c:	00000048 	andeq	r0, r0, r8, asr #32
     7a0:	48550001 	ldmdami	r5, {r0}^
     7a4:	58000000 	stmdapl	r0, {}	; <UNPREDICTABLE>
     7a8:	01000000 	mrseq	r0, (UNDEF: 0)
     7ac:	00005000 	andeq	r5, r0, r0
     7b0:	00000000 	andeq	r0, r0, r0
     7b4:	02840000 	addeq	r0, r4, #0
     7b8:	02a80000 	adceq	r0, r8, #0
     7bc:	00010000 	andeq	r0, r1, r0
     7c0:	0002a850 	andeq	sl, r2, r0, asr r8
     7c4:	00053000 	andeq	r3, r5, r0
     7c8:	59000100 	stmdbpl	r0, {r8}
     7cc:	00000530 	andeq	r0, r0, r0, lsr r5
     7d0:	00000544 	andeq	r0, r0, r4, asr #10
     7d4:	01f30004 	mvnseq	r0, r4
     7d8:	00009f50 	andeq	r9, r0, r0, asr pc
     7dc:	00000000 	andeq	r0, r0, r0
     7e0:	02840000 	addeq	r0, r4, #0
     7e4:	02980000 	addseq	r0, r8, #0
     7e8:	00010000 	andeq	r0, r1, r0
     7ec:	00029851 	andeq	r9, r2, r1, asr r8
     7f0:	0002a800 	andeq	sl, r2, r0, lsl #16
     7f4:	71000300 	mrsvc	r0, LR_irq
     7f8:	02a89f01 	adceq	r9, r8, #1, 30
     7fc:	05440000 	strbeq	r0, [r4, #-0]
     800:	00040000 	andeq	r0, r4, r0
     804:	9f5101f3 	svcls	0x005101f3
	...
     810:	00000284 	andeq	r0, r0, r4, lsl #5
     814:	000002c4 	andeq	r0, r0, r4, asr #5
     818:	c4520001 	ldrbgt	r0, [r2], #-1
     81c:	dc000002 	stcle	0, cr0, [r0], {2}
     820:	01000002 	tsteq	r0, r2
     824:	02dc5200 	sbcseq	r5, ip, #0, 4
     828:	02e40000 	rsceq	r0, r4, #0
     82c:	00010000 	andeq	r0, r1, r0
     830:	0002e455 	andeq	lr, r2, r5, asr r4
     834:	0002f400 	andeq	pc, r2, r0, lsl #8
     838:	52000100 	andpl	r0, r0, #0, 2
     83c:	000002f4 	strdeq	r0, [r0], -r4
     840:	000003f8 	strdeq	r0, [r0], -r8
     844:	f8550001 			; <UNDEFINED> instruction: 0xf8550001
     848:	fc000003 	stc2	0, cr0, [r0], {3}
     84c:	01000003 	tsteq	r0, r3
     850:	03fc5200 	mvnseq	r5, #0, 4
     854:	04f40000 	ldrbteq	r0, [r4], #0
     858:	00010000 	andeq	r0, r1, r0
     85c:	0004f455 	andeq	pc, r4, r5, asr r4	; <UNPREDICTABLE>
     860:	00054400 	andeq	r4, r5, r0, lsl #8
     864:	52000100 	andpl	r0, r0, #0, 2
	...
     870:	00000294 	muleq	r0, r4, r2
     874:	000002a8 	andeq	r0, r0, r8, lsr #5
     878:	a8500001 	ldmdage	r0, {r0}^
     87c:	c0000002 	andgt	r0, r0, r2
     880:	01000002 	tsteq	r0, r2
     884:	02c05600 	sbceq	r5, r0, #0, 12
     888:	02cc0000 	sbceq	r0, ip, #0
     88c:	00030000 	andeq	r0, r3, r0
     890:	cc9f0176 	ldfgts	f0, [pc], {118}	; 0x76
     894:	e4000002 	str	r0, [r0], #-2
     898:	01000002 	tsteq	r0, r2
     89c:	02e45600 	rsceq	r5, r4, #0, 12
     8a0:	02f00000 	rscseq	r0, r0, #0
     8a4:	00030000 	andeq	r0, r3, r0
     8a8:	f09f0176 			; <UNDEFINED> instruction: 0xf09f0176
     8ac:	f4000002 	vst4.8	{d0-d3}, [r0], r2
     8b0:	01000004 	tsteq	r0, r4
     8b4:	04f45600 	ldrbteq	r5, [r4], #1536	; 0x600
     8b8:	05000000 	streq	r0, [r0, #-0]
     8bc:	00030000 	andeq	r0, r3, r0
     8c0:	009f0176 	addseq	r0, pc, r6, ror r1	; <UNPREDICTABLE>
     8c4:	1c000005 	stcne	0, cr0, [r0], {5}
     8c8:	01000005 	tsteq	r0, r5
     8cc:	051c5600 	ldreq	r5, [ip, #-1536]	; 0xfffffa00
     8d0:	05280000 	streq	r0, [r8, #-0]!
     8d4:	00010000 	andeq	r0, r1, r0
     8d8:	00052850 	andeq	r2, r5, r0, asr r8
     8dc:	00053000 	andeq	r3, r5, r0
     8e0:	76000300 	strvc	r0, [r0], -r0, lsl #6
     8e4:	00009f01 	andeq	r9, r0, r1, lsl #30
     8e8:	00000000 	andeq	r0, r0, r0
     8ec:	029c0000 	addseq	r0, ip, #0
     8f0:	05300000 	ldreq	r0, [r0, #-0]!
     8f4:	00010000 	andeq	r0, r1, r0
     8f8:	00053058 	andeq	r3, r5, r8, asr r0
     8fc:	00054400 	andeq	r4, r5, r0, lsl #8
     900:	f3000a00 	vpmax.u8	d0, d0, d0
     904:	01f35101 	mvnseq	r5, r1, lsl #2
     908:	1c312250 	lfmne	f2, 4, [r1], #-320	; 0xfffffec0
     90c:	0000009f 	muleq	r0, pc, r0	; <UNPREDICTABLE>
     910:	00000000 	andeq	r0, r0, r0
     914:	0003f400 	andeq	pc, r3, r0, lsl #8
     918:	0003fc00 	andeq	pc, r3, r0, lsl #24
     91c:	50000100 	andpl	r0, r0, r0, lsl #2
     920:	00000428 	andeq	r0, r0, r8, lsr #8
     924:	0000042c 	andeq	r0, r0, ip, lsr #8
     928:	58500001 	ldmdapl	r0, {r0}^
     92c:	5c000004 	stcpl	0, cr0, [r0], {4}
     930:	01000004 	tsteq	r0, r4
     934:	04885000 	streq	r5, [r8], #0
     938:	048c0000 	streq	r0, [ip], #0
     93c:	00010000 	andeq	r0, r1, r0
     940:	0004cc50 	andeq	ip, r4, r0, asr ip
     944:	0004d000 	andeq	sp, r4, r0
     948:	50000100 	andpl	r0, r0, r0, lsl #2
     94c:	000004f4 	strdeq	r0, [r0], -r4
     950:	00000518 	andeq	r0, r0, r8, lsl r5
     954:	00500001 	subseq	r0, r0, r1
     958:	00000000 	andeq	r0, r0, r0
     95c:	dc000000 	stcle	0, cr0, [r0], {-0}
     960:	e4000002 	str	r0, [r0], #-2
     964:	02000002 	andeq	r0, r0, #2
     968:	f49f3000 			; <UNDEFINED> instruction: 0xf49f3000
     96c:	f8000002 			; <UNDEFINED> instruction: 0xf8000002
     970:	01000002 	tsteq	r0, r2
     974:	03045400 	movweq	r5, #17408	; 0x4400
     978:	05180000 	ldreq	r0, [r8, #-0]
     97c:	00010000 	andeq	r0, r1, r0
     980:	00000054 	andeq	r0, r0, r4, asr r0
     984:	00000000 	andeq	r0, r0, r0
     988:	00008000 	andeq	r8, r0, r0
     98c:	0000a400 	andeq	sl, r0, r0, lsl #8
     990:	50000100 	andpl	r0, r0, r0, lsl #2
     994:	000000a4 	andeq	r0, r0, r4, lsr #1
     998:	000000f0 	strdeq	r0, [r0], -r0	; <UNPREDICTABLE>
     99c:	02700003 	rsbseq	r0, r0, #3
     9a0:	0000f09f 	muleq	r0, pc, r0	; <UNPREDICTABLE>
     9a4:	00023000 	andeq	r3, r2, r0
     9a8:	f3000400 	vshl.u8	d0, d0, d0
     9ac:	009f5001 	addseq	r5, pc, r1
     9b0:	00000000 	andeq	r0, r0, r0
     9b4:	80000000 	andhi	r0, r0, r0
     9b8:	a0000000 	andge	r0, r0, r0
     9bc:	01000000 	mrseq	r0, (UNDEF: 0)
     9c0:	00a05100 	adceq	r5, r0, r0, lsl #2
     9c4:	02300000 	eorseq	r0, r0, #0
     9c8:	00010000 	andeq	r0, r1, r0
     9cc:	00000055 	andeq	r0, r0, r5, asr r0
     9d0:	00000000 	andeq	r0, r0, r0
     9d4:	00008000 	andeq	r8, r0, r0
     9d8:	00009400 	andeq	r9, r0, r0, lsl #8
     9dc:	52000100 	andpl	r0, r0, #0, 2
     9e0:	00000094 	muleq	r0, r4, r0
     9e4:	00000230 	andeq	r0, r0, r0, lsr r2
     9e8:	00540001 	subseq	r0, r4, r1
     9ec:	00000000 	andeq	r0, r0, r0
     9f0:	80000000 	andhi	r0, r0, r0
     9f4:	ec000000 	stc	0, cr0, [r0], {-0}
     9f8:	01000000 	mrseq	r0, (UNDEF: 0)
     9fc:	00ec5300 	rsceq	r5, ip, r0, lsl #6
     a00:	01040000 	mrseq	r0, (UNDEF: 4)
     a04:	00010000 	andeq	r0, r1, r0
     a08:	00011051 	andeq	r1, r1, r1, asr r0
     a0c:	00011800 	andeq	r1, r1, r0, lsl #16
     a10:	51000100 	mrspl	r0, (UNDEF: 16)
     a14:	00000168 	andeq	r0, r0, r8, ror #2
     a18:	0000016c 	andeq	r0, r0, ip, ror #2
     a1c:	6c510001 	mrrcvs	0, 0, r0, r1, cr1
     a20:	a0000001 	andge	r0, r0, r1
     a24:	04000001 	streq	r0, [r0], #-1
     a28:	5301f300 	movwpl	pc, #4864	; 0x1300	; <UNPREDICTABLE>
     a2c:	0001c49f 	muleq	r1, pc, r4	; <UNPREDICTABLE>
     a30:	0001d400 	andeq	sp, r1, r0, lsl #8
     a34:	51000100 	mrspl	r0, (UNDEF: 16)
     a38:	000001d4 	ldrdeq	r0, [r0], -r4
     a3c:	000001f8 	strdeq	r0, [r0], -r8
     a40:	01f30004 	mvnseq	r0, r4
     a44:	01f89f53 	mvnseq	r9, r3, asr pc
     a48:	01fb0000 	mvnseq	r0, r0
     a4c:	00010000 	andeq	r0, r1, r0
     a50:	0001fb51 	andeq	pc, r1, r1, asr fp	; <UNPREDICTABLE>
     a54:	00023000 	andeq	r3, r2, r0
     a58:	f3000400 	vshl.u8	d0, d0, d0
     a5c:	009f5301 	addseq	r5, pc, r1, lsl #6
     a60:	00000000 	andeq	r0, r0, r0
     a64:	80000000 	andhi	r0, r0, r0
     a68:	9c000000 	stcls	0, cr0, [r0], {-0}
     a6c:	02000000 	andeq	r0, r0, #0
     a70:	9c009100 	stflsd	f1, [r0], {-0}
     a74:	a7000000 	strge	r0, [r0, -r0]
     a78:	01000001 	tsteq	r0, r1
     a7c:	01c45200 	biceq	r5, r4, r0, lsl #4
     a80:	01fb0000 	mvnseq	r0, r0
     a84:	00010000 	andeq	r0, r1, r0
     a88:	00000052 	andeq	r0, r0, r2, asr r0
     a8c:	00000000 	andeq	r0, r0, r0
     a90:	00009c00 	andeq	r9, r0, r0, lsl #24
     a94:	00011800 	andeq	r1, r1, r0, lsl #16
     a98:	5d000100 	stfpls	f0, [r0, #-0]
     a9c:	00000118 	andeq	r0, r0, r8, lsl r1
     aa0:	0000011c 	andeq	r0, r0, ip, lsl r1
     aa4:	1c500001 	mrrcne	0, 0, r0, r0, cr1	; <UNPREDICTABLE>
     aa8:	20000001 	andcs	r0, r0, r1
     aac:	01000001 	tsteq	r0, r1
     ab0:	01205c00 			; <UNDEFINED> instruction: 0x01205c00
     ab4:	01580000 	cmpeq	r8, r0
     ab8:	00010000 	andeq	r0, r1, r0
     abc:	00015850 	andeq	r5, r1, r0, asr r8
     ac0:	00016400 	andeq	r6, r1, r0, lsl #8
     ac4:	7c000300 	stcvc	3, cr0, [r0], {-0}
     ac8:	01649f02 	cmneq	r4, r2, lsl #30
     acc:	01680000 	cmneq	r8, r0
     ad0:	00010000 	andeq	r0, r1, r0
     ad4:	00016850 	andeq	r6, r1, r0, asr r8
     ad8:	00016c00 	andeq	r6, r1, r0, lsl #24
     adc:	5d000100 	stfpls	f0, [r0, #-0]
     ae0:	0000016c 	andeq	r0, r0, ip, ror #2
     ae4:	00000170 	andeq	r0, r0, r0, ror r1
     ae8:	70530001 	subsvc	r0, r3, r1
     aec:	8c000001 	stchi	0, cr0, [r0], {1}
     af0:	01000001 	tsteq	r0, r1
     af4:	018c5c00 	orreq	r5, ip, r0, lsl #24
     af8:	01980000 	orrseq	r0, r8, r0
     afc:	00030000 	andeq	r0, r3, r0
     b00:	989f027c 	ldmls	pc, {r2, r3, r4, r5, r6, r9}	; <UNPREDICTABLE>
     b04:	a7000001 	strge	r0, [r0, -r1]
     b08:	01000001 	tsteq	r0, r1
     b0c:	01c45000 	biceq	r5, r4, r0
     b10:	01cc0000 	biceq	r0, ip, r0
     b14:	00040000 	andeq	r0, r4, r0
     b18:	9f7fa191 	svcls	0x007fa191
     b1c:	000001cc 	andeq	r0, r0, ip, asr #3
     b20:	000001d0 	ldrdeq	r0, [r0], -r0	; <UNPREDICTABLE>
     b24:	d0500001 	subsle	r0, r0, r1
     b28:	d4000001 	strle	r0, [r0], #-1
     b2c:	01000001 	tsteq	r0, r1
     b30:	01d45d00 	bicseq	r5, r4, r0, lsl #26
     b34:	01d80000 	bicseq	r0, r8, r0
     b38:	00010000 	andeq	r0, r1, r0
     b3c:	0001d853 	andeq	sp, r1, r3, asr r8
     b40:	0001f800 	andeq	pc, r1, r0, lsl #16
     b44:	50000100 	andpl	r0, r0, r0, lsl #2
     b48:	000001f8 	strdeq	r0, [r0], -r8
     b4c:	00000230 	andeq	r0, r0, r0, lsr r2
     b50:	005d0001 	subseq	r0, sp, r1
     b54:	00000000 	andeq	r0, r0, r0
     b58:	a0000000 	andge	r0, r0, r0
     b5c:	40000000 	andmi	r0, r0, r0
     b60:	01000001 	tsteq	r0, r1
     b64:	014c5100 	mrseq	r5, (UNDEF: 92)
     b68:	01800000 	orreq	r0, r0, r0
     b6c:	00010000 	andeq	r0, r1, r0
     b70:	00018051 	andeq	r8, r1, r1, asr r0
     b74:	00018800 	andeq	r8, r1, r0, lsl #16
     b78:	71000500 	tstvc	r0, r0, lsl #10
     b7c:	9f253400 	svcls	0x00253400
     b80:	00000188 	andeq	r0, r0, r8, lsl #3
     b84:	000001a4 	andeq	r0, r0, r4, lsr #3
     b88:	c4510001 	ldrbgt	r0, [r1], #-1
     b8c:	e8000001 	stmda	r0, {r0}
     b90:	01000001 	tsteq	r0, r1
     b94:	01e85100 	mvneq	r5, r0, lsl #2
     b98:	01f00000 	mvnseq	r0, r0
     b9c:	00050000 	andeq	r0, r5, r0
     ba0:	25310071 	ldrcs	r0, [r1, #-113]!	; 0xffffff8f
     ba4:	0001f09f 	muleq	r1, pc, r0	; <UNPREDICTABLE>
     ba8:	0001fb00 	andeq	pc, r1, r0, lsl #22
     bac:	51000100 	mrspl	r0, (UNDEF: 16)
     bb0:	000001fb 	strdeq	r0, [r0], -fp
     bb4:	00000230 	andeq	r0, r0, r0, lsr r2
     bb8:	01f30004 	mvnseq	r0, r4
     bbc:	00009f53 	andeq	r9, r0, r3, asr pc
     bc0:	00000000 	andeq	r0, r0, r0
     bc4:	00ec0000 	rsceq	r0, ip, r0
     bc8:	01000000 	mrseq	r0, (UNDEF: 0)
     bcc:	00020000 	andeq	r0, r2, r0
     bd0:	01009f30 	tsteq	r0, r0, lsr pc
     bd4:	01080000 	mrseq	r0, (UNDEF: 8)
     bd8:	00020000 	andeq	r0, r2, r0
     bdc:	01109f31 	tsteq	r0, r1, lsr pc
     be0:	01180000 	tsteq	r8, r0
     be4:	00020000 	andeq	r0, r2, r0
     be8:	01189f30 	tsteq	r8, r0, lsr pc
     bec:	01680000 	cmneq	r8, r0
     bf0:	00010000 	andeq	r0, r1, r0
     bf4:	00000057 	andeq	r0, r0, r7, asr r0
     bf8:	00000000 	andeq	r0, r0, r0
     bfc:	00004000 	andeq	r4, r0, r0
     c00:	00006000 	andeq	r6, r0, r0
     c04:	50000100 	andpl	r0, r0, r0, lsl #2
     c08:	00000060 	andeq	r0, r0, r0, rrx
     c0c:	0000006c 	andeq	r0, r0, ip, rrx
     c10:	01710003 	cmneq	r1, r3
     c14:	00006c9f 	muleq	r0, pc, ip	; <UNPREDICTABLE>
     c18:	00007400 	andeq	r7, r0, r0, lsl #8
     c1c:	51000100 	mrspl	r0, (UNDEF: 16)
     c20:	00000074 	andeq	r0, r0, r4, ror r0
     c24:	00000080 	andeq	r0, r0, r0, lsl #1
     c28:	01710003 	cmneq	r1, r3
     c2c:	0000009f 	muleq	r0, pc, r0	; <UNPREDICTABLE>
     c30:	00000000 	andeq	r0, r0, r0
     c34:	00004000 	andeq	r4, r0, r0
     c38:	00005c00 	andeq	r5, r0, r0, lsl #24
     c3c:	51000100 	mrspl	r0, (UNDEF: 16)
     c40:	0000005c 	andeq	r0, r0, ip, asr r0
     c44:	00000080 	andeq	r0, r0, r0, lsl #1
     c48:	01f30004 	mvnseq	r0, r4
     c4c:	00009f51 	andeq	r9, r0, r1, asr pc
     c50:	00000000 	andeq	r0, r0, r0
     c54:	00400000 	subeq	r0, r0, r0
     c58:	00580000 	subseq	r0, r8, r0
     c5c:	00010000 	andeq	r0, r1, r0
     c60:	00005852 	andeq	r5, r0, r2, asr r8
     c64:	00006400 	andeq	r6, r0, r0, lsl #8
     c68:	52000100 	andpl	r0, r0, #0, 2
     c6c:	00000064 	andeq	r0, r0, r4, rrx
     c70:	00000068 	andeq	r0, r0, r8, rrx
     c74:	01720003 	cmneq	r2, r3
     c78:	0000689f 	muleq	r0, pc, r8	; <UNPREDICTABLE>
     c7c:	00008000 	andeq	r8, r0, r0
     c80:	52000100 	andpl	r0, r0, #0, 2
	...
     c8c:	00000040 	andeq	r0, r0, r0, asr #32
     c90:	00000054 	andeq	r0, r0, r4, asr r0
     c94:	54530001 	ldrbpl	r0, [r3], #-1
     c98:	78000000 	stmdavc	r0, {}	; <UNPREDICTABLE>
     c9c:	01000000 	mrseq	r0, (UNDEF: 0)
     ca0:	00005300 	andeq	r5, r0, r0, lsl #6
     ca4:	00000000 	andeq	r0, r0, r0
     ca8:	00480000 	subeq	r0, r8, r0
     cac:	00500000 	subseq	r0, r0, r0
     cb0:	00010000 	andeq	r0, r1, r0
     cb4:	0000505c 	andeq	r5, r0, ip, asr r0
     cb8:	00005400 	andeq	r5, r0, r0, lsl #8
     cbc:	72000800 	andvc	r0, r0, #0, 16
     cc0:	1c007300 	stcne	3, cr7, [r0], {-0}
     cc4:	549f0123 	ldrpl	r0, [pc], #291	; ccc <_start-0x7334>
     cc8:	58000000 	stmdapl	r0, {}	; <UNPREDICTABLE>
     ccc:	09000000 	stmdbeq	r0, {}	; <UNPREDICTABLE>
     cd0:	f3007200 	vhsub.u8	d7, d0, d0
     cd4:	231c5301 	tstcs	ip, #67108864	; 0x4000000
     cd8:	00589f01 	subseq	r9, r8, r1, lsl #30
     cdc:	00600000 	rsbeq	r0, r0, r0
     ce0:	00090000 	andeq	r0, r9, r0
     ce4:	01f30072 	mvnseq	r0, r2, ror r0
     ce8:	02231c53 	eoreq	r1, r3, #21248	; 0x5300
     cec:	0000609f 	muleq	r0, pc, r0	; <UNPREDICTABLE>
     cf0:	00008000 	andeq	r8, r0, r0
     cf4:	f3000a00 	vpmax.u8	d0, d0, d0
     cf8:	01f35201 	mvnseq	r5, r1, lsl #4
     cfc:	01231c53 			; <UNDEFINED> instruction: 0x01231c53
     d00:	0000009f 	muleq	r0, pc, r0	; <UNPREDICTABLE>
     d04:	00000000 	andeq	r0, r0, r0
     d08:	00001400 	andeq	r1, r0, r0, lsl #8
     d0c:	00001c00 	andeq	r1, r0, r0, lsl #24
     d10:	50000100 	andpl	r0, r0, r0, lsl #2
     d14:	0000001c 	andeq	r0, r0, ip, lsl r0
     d18:	0000002c 	andeq	r0, r0, ip, lsr #32
     d1c:	01700003 	cmneq	r0, r3
     d20:	00002c9f 	muleq	r0, pc, ip	; <UNPREDICTABLE>
     d24:	00004000 	andeq	r4, r0, r0
     d28:	50000100 	andpl	r0, r0, r0, lsl #2
	...
     d34:	00000014 	andeq	r0, r0, r4, lsl r0
     d38:	00000018 	andeq	r0, r0, r8, lsl r0
     d3c:	18510001 	ldmdane	r1, {r0}^
     d40:	40000000 	andmi	r0, r0, r0
     d44:	04000000 	streq	r0, [r0], #-0
     d48:	5101f300 	mrspl	pc, SP_irq	; <UNPREDICTABLE>
     d4c:	0000009f 	muleq	r0, pc, r0	; <UNPREDICTABLE>
	...
     d58:	00000400 	andeq	r0, r0, r0, lsl #8
     d5c:	50000100 	andpl	r0, r0, r0, lsl #2
     d60:	00000004 	andeq	r0, r0, r4
     d64:	0000000c 	andeq	r0, r0, ip
     d68:	30700003 	rsbscc	r0, r0, r3
     d6c:	00000c9f 	muleq	r0, pc, ip	; <UNPREDICTABLE>
     d70:	00001400 	andeq	r1, r0, r0, lsl #8
     d74:	f3000400 	vshl.u8	d0, d0, d0
     d78:	009f5001 	addseq	r5, pc, r1
     d7c:	00000000 	andeq	r0, r0, r0
     d80:	30000000 	andcc	r0, r0, r0
     d84:	57000002 	strpl	r0, [r0, -r2]
     d88:	01000002 	tsteq	r0, r2
     d8c:	02575000 	subseq	r5, r7, #0
     d90:	02840000 	addeq	r0, r4, #0
     d94:	00040000 	andeq	r0, r4, r0
     d98:	9f5001f3 	svcls	0x005001f3
	...
     da4:	00000230 	andeq	r0, r0, r0, lsr r2
     da8:	00000257 	andeq	r0, r0, r7, asr r2
     dac:	57510001 	ldrbpl	r0, [r1, -r1]
     db0:	84000002 	strhi	r0, [r0], #-2
     db4:	04000002 	streq	r0, [r0], #-2
     db8:	5101f300 	mrspl	pc, SP_irq	; <UNPREDICTABLE>
     dbc:	0000009f 	muleq	r0, pc, r0	; <UNPREDICTABLE>
	...
     dc8:	00002000 	andeq	r2, r0, r0
     dcc:	50000100 	andpl	r0, r0, r0, lsl #2
     dd0:	00000020 	andeq	r0, r0, r0, lsr #32
     dd4:	000000e0 	andeq	r0, r0, r0, ror #1
     dd8:	01f30004 	mvnseq	r0, r4
     ddc:	00e09f50 	rsceq	r9, r0, r0, asr pc
     de0:	00e40000 	rsceq	r0, r4, r0
     de4:	00010000 	andeq	r0, r1, r0
     de8:	0000e450 	andeq	lr, r0, r0, asr r4
     dec:	0000e800 	andeq	lr, r0, r0, lsl #16
     df0:	f3000400 	vshl.u8	d0, d0, d0
     df4:	009f5001 	addseq	r5, pc, r1
	...
     e00:	1c000000 	stcne	0, cr0, [r0], {-0}
     e04:	01000000 	mrseq	r0, (UNDEF: 0)
     e08:	001c5100 	andseq	r5, ip, r0, lsl #2
     e0c:	00700000 	rsbseq	r0, r0, r0
     e10:	00010000 	andeq	r0, r1, r0
     e14:	00008c51 	andeq	r8, r0, r1, asr ip
     e18:	00009000 	andeq	r9, r0, r0
     e1c:	51000100 	mrspl	r0, (UNDEF: 16)
     e20:	000000b0 	strheq	r0, [r0], -r0	; <UNPREDICTABLE>
     e24:	000000b4 	strheq	r0, [r0], -r4
     e28:	cc510001 	mrrcgt	0, 0, r0, r1, cr1
     e2c:	e8000000 	stmda	r0, {}	; <UNPREDICTABLE>
     e30:	01000000 	mrseq	r0, (UNDEF: 0)
     e34:	00005100 	andeq	r5, r0, r0, lsl #2
	...
     e40:	00740000 	rsbseq	r0, r4, r0
     e44:	00010000 	andeq	r0, r1, r0
     e48:	00008c50 	andeq	r8, r0, r0, asr ip
     e4c:	0000e400 	andeq	lr, r0, r0, lsl #8
     e50:	50000100 	andpl	r0, r0, r0, lsl #2
     e54:	000000e4 	andeq	r0, r0, r4, ror #1
     e58:	000000e8 	andeq	r0, r0, r8, ror #1
     e5c:	01f30004 	mvnseq	r0, r4
     e60:	00009f50 	andeq	r9, r0, r0, asr pc
	...
     e6c:	001c0000 	andseq	r0, ip, r0
     e70:	00010000 	andeq	r0, r1, r0
     e74:	00001c51 	andeq	r1, r0, r1, asr ip
     e78:	00003000 	andeq	r3, r0, r0
     e7c:	53000100 	movwpl	r0, #256	; 0x100
     e80:	00000030 	andeq	r0, r0, r0, lsr r0
     e84:	00000044 	andeq	r0, r0, r4, asr #32
     e88:	44520001 	ldrbmi	r0, [r2], #-1
     e8c:	74000000 	strvc	r0, [r0], #-0
     e90:	01000000 	mrseq	r0, (UNDEF: 0)
     e94:	00745300 	rsbseq	r5, r4, r0, lsl #6
     e98:	008c0000 	addeq	r0, ip, r0
     e9c:	00010000 	andeq	r0, r1, r0
     ea0:	00008c50 	andeq	r8, r0, r0, asr ip
     ea4:	0000e000 	andeq	lr, r0, r0
     ea8:	53000100 	movwpl	r0, #256	; 0x100
     eac:	000000e0 	andeq	r0, r0, r0, ror #1
     eb0:	000000e8 	andeq	r0, r0, r8, ror #1
     eb4:	00510001 	subseq	r0, r1, r1
     eb8:	00000000 	andeq	r0, r0, r0
     ebc:	40000000 	andmi	r0, r0, r0
     ec0:	44000000 	strmi	r0, [r0], #-0
     ec4:	01000000 	mrseq	r0, (UNDEF: 0)
     ec8:	00445300 	subeq	r5, r4, r0, lsl #6
     ecc:	00480000 	subeq	r0, r8, r0
     ed0:	00120000 	andseq	r0, r2, r0
     ed4:	2438007c 	ldrtcs	r0, [r8], #-124	; 0xffffff84
     ed8:	01940270 	orrseq	r0, r4, r0, ror r2
     edc:	221aff08 	andscs	pc, sl, #8, 30
     ee0:	0072243b 	rsbseq	r2, r2, fp, lsr r4
     ee4:	00489f27 	subeq	r9, r8, r7, lsr #30
     ee8:	00500000 	subseq	r0, r0, r0
     eec:	00120000 	andseq	r0, r2, r0
     ef0:	2438007c 	ldrtcs	r0, [r8], #-124	; 0xffffff84
     ef4:	01947e70 	orrseq	r7, r4, r0, ror lr
     ef8:	221aff08 	andscs	pc, sl, #8, 30
     efc:	0072243b 	rsbseq	r2, r2, fp, lsr r4
     f00:	00009f27 	andeq	r9, r0, r7, lsr #30
     f04:	00000000 	andeq	r0, r0, r0
     f08:	00180000 	andseq	r0, r8, r0
     f0c:	00e00000 	rsceq	r0, r0, r0
     f10:	00010000 	andeq	r0, r1, r0
     f14:	0000005e 	andeq	r0, r0, lr, asr r0
	...
     f20:	00000c00 	andeq	r0, r0, r0, lsl #24
     f24:	50000100 	andpl	r0, r0, r0, lsl #2
     f28:	0000000c 	andeq	r0, r0, ip
     f2c:	00000034 	andeq	r0, r0, r4, lsr r0
     f30:	00540001 	subseq	r0, r4, r1
	...
     f3c:	0b000000 	bleq	f44 <_start-0x70bc>
     f40:	01000000 	mrseq	r0, (UNDEF: 0)
     f44:	000b5000 	andeq	r5, fp, r0
     f48:	00140000 	andseq	r0, r4, r0
     f4c:	00010000 	andeq	r0, r1, r0
     f50:	00000054 	andeq	r0, r0, r4, asr r0
	...
     f5c:	00000400 	andeq	r0, r0, r0, lsl #8
     f60:	52000100 	andpl	r0, r0, #0, 2
     f64:	00000004 	andeq	r0, r0, r4
     f68:	00000020 	andeq	r0, r0, r0, lsr #32
     f6c:	01f30004 	mvnseq	r0, r4
     f70:	00009f52 	andeq	r9, r0, r2, asr pc
	...
     f7c:	000c0000 	andeq	r0, ip, r0
     f80:	00010000 	andeq	r0, r1, r0
     f84:	00000c50 	andeq	r0, r0, r0, asr ip
     f88:	00001400 	andeq	r1, r0, r0, lsl #8
     f8c:	73000300 	movwvc	r0, #768	; 0x300
     f90:	00149f01 	andseq	r9, r4, r1, lsl #30
     f94:	00200000 	eoreq	r0, r0, r0
     f98:	00010000 	andeq	r0, r1, r0
     f9c:	00000053 	andeq	r0, r0, r3, asr r0
     fa0:	00000000 	andeq	r0, r0, r0
     fa4:	00000c00 	andeq	r0, r0, r0, lsl #24
     fa8:	00001800 	andeq	r1, r0, r0, lsl #16
     fac:	73000300 	movwvc	r0, #768	; 0x300
     fb0:	00189f04 	andseq	r9, r8, r4, lsl #30
     fb4:	00270000 	eoreq	r0, r7, r0
     fb8:	00010000 	andeq	r0, r1, r0
     fbc:	00000053 	andeq	r0, r0, r3, asr r0
     fc0:	00000000 	andeq	r0, r0, r0
     fc4:	0090e800 	addseq	lr, r0, r0, lsl #16
     fc8:	00910400 	addseq	r0, r1, r0, lsl #8
     fcc:	0c000600 	stceq	6, cr0, [r0], {-0}
     fd0:	2010001c 	andscs	r0, r0, ip, lsl r0
     fd4:	0000009f 	muleq	r0, pc, r0	; <UNPREDICTABLE>
     fd8:	00000000 	andeq	r0, r0, r0
     fdc:	0090e800 	addseq	lr, r0, r0, lsl #16
     fe0:	00910400 	addseq	r0, r1, r0, lsl #8
     fe4:	0c000600 	stceq	6, cr0, [r0], {-0}
     fe8:	20100024 	andscs	r0, r0, r4, lsr #32
     fec:	0000009f 	muleq	r0, pc, r0	; <UNPREDICTABLE>
     ff0:	00000000 	andeq	r0, r0, r0
     ff4:	0090e800 	addseq	lr, r0, r0, lsl #16
     ff8:	00910400 	addseq	r0, r1, r0, lsl #8
     ffc:	08000500 	stmdaeq	r0, {r8, sl}
    1000:	9f2447b4 	svcls	0x002447b4
	...
    100c:	000090e8 	andeq	r9, r0, r8, ror #1
    1010:	00009104 	andeq	r9, r0, r4, lsl #2
    1014:	20080003 	andcs	r0, r8, r3
    1018:	0000009f 	muleq	r0, pc, r0	; <UNPREDICTABLE>
    101c:	00000000 	andeq	r0, r0, r0
    1020:	0090bc00 	addseq	fp, r0, r0, lsl #24
    1024:	0090c000 	addseq	ip, r0, r0
    1028:	30000200 	andcc	r0, r0, r0, lsl #4
    102c:	0090c09f 	umullseq	ip, r0, pc, r0	; <UNPREDICTABLE>
    1030:	0090c400 	addseq	ip, r0, r0, lsl #8
    1034:	53000100 	movwpl	r0, #256	; 0x100
    1038:	000090c8 	andeq	r9, r0, r8, asr #1
    103c:	000090d0 	ldrdeq	r9, [r0], -r0
    1040:	00530001 	subseq	r0, r3, r1
    1044:	00000000 	andeq	r0, r0, r0
    1048:	a4000000 	strge	r0, [r0], #-0
    104c:	a8000090 	stmdage	r0, {r4, r7}
    1050:	02000090 	andeq	r0, r0, #144	; 0x90
    1054:	a89f3000 	ldmge	pc, {ip, sp}	; <UNPREDICTABLE>
    1058:	ac000090 	stcge	0, cr0, [r0], {144}	; 0x90
    105c:	01000090 	swpeq	r0, r0, [r0]	; <UNPREDICTABLE>
    1060:	00005000 	andeq	r5, r0, r0
    1064:	00000000 	andeq	r0, r0, r0
    1068:	00740000 	rsbseq	r0, r4, r0
    106c:	00800000 	addeq	r0, r0, r0
    1070:	00010000 	andeq	r0, r1, r0
    1074:	00008050 	andeq	r8, r0, r0, asr r0
    1078:	00008800 	andeq	r8, r0, r0, lsl #16
    107c:	f3000400 	vshl.u8	d0, d0, d0
    1080:	009f5001 	addseq	r5, pc, r1
    1084:	00000000 	andeq	r0, r0, r0
    1088:	60000000 	andvs	r0, r0, r0
    108c:	6c000000 	stcvs	0, cr0, [r0], {-0}
    1090:	01000000 	mrseq	r0, (UNDEF: 0)
    1094:	006c5000 	rsbeq	r5, ip, r0
    1098:	00740000 	rsbseq	r0, r4, r0
    109c:	00040000 	andeq	r0, r4, r0
    10a0:	9f5001f3 	svcls	0x005001f3
	...
    10ac:	0000003c 	andeq	r0, r0, ip, lsr r0
    10b0:	00000047 	andeq	r0, r0, r7, asr #32
    10b4:	47500001 	ldrbmi	r0, [r0, -r1]
    10b8:	60000000 	andvs	r0, r0, r0
    10bc:	01000000 	mrseq	r0, (UNDEF: 0)
    10c0:	00005500 	andeq	r5, r0, r0, lsl #10
    10c4:	00000000 	andeq	r0, r0, r0
    10c8:	00500000 	subseq	r0, r0, r0
    10cc:	00540000 	subseq	r0, r4, r0
    10d0:	00010000 	andeq	r0, r1, r0
    10d4:	00000050 	andeq	r0, r0, r0, asr r0
	...
    10e0:	00000400 	andeq	r0, r0, r0, lsl #8
    10e4:	50000100 	andpl	r0, r0, r0, lsl #2
    10e8:	00000004 	andeq	r0, r0, r4
    10ec:	0000000c 	andeq	r0, r0, ip
    10f0:	0c530001 	mrrceq	0, 0, r0, r3, cr1
    10f4:	10000000 	andne	r0, r0, r0
    10f8:	01000000 	mrseq	r0, (UNDEF: 0)
    10fc:	00105000 	andseq	r5, r0, r0
    1100:	001c0000 	andseq	r0, ip, r0
    1104:	00010000 	andeq	r0, r1, r0
    1108:	00000053 	andeq	r0, r0, r3, asr r0
    110c:	00000000 	andeq	r0, r0, r0
    1110:	00013800 	andeq	r3, r1, r0, lsl #16
    1114:	00014300 	andeq	r4, r1, r0, lsl #6
    1118:	50000100 	andpl	r0, r0, r0, lsl #2
    111c:	00000143 	andeq	r0, r0, r3, asr #2
    1120:	00000168 	andeq	r0, r0, r8, ror #2
    1124:	00540001 	subseq	r0, r4, r1
	...
    1130:	0f000000 	svceq	0x00000000
    1134:	01000000 	mrseq	r0, (UNDEF: 0)
    1138:	000f5000 	andeq	r5, pc, r0
    113c:	00200000 	eoreq	r0, r0, r0
    1140:	00010000 	andeq	r0, r1, r0
    1144:	00000054 	andeq	r0, r0, r4, asr r0
	...
    1150:	00000f00 	andeq	r0, r0, r0, lsl #30
    1154:	51000100 	mrspl	r0, (UNDEF: 16)
    1158:	0000000f 	andeq	r0, r0, pc
    115c:	00000020 	andeq	r0, r0, r0, lsr #32
    1160:	00550001 	subseq	r0, r5, r1
    1164:	00000000 	andeq	r0, r0, r0
    1168:	ec000000 	stc	0, cr0, [r0], {-0}
    116c:	04000000 	streq	r0, [r0], #-0
    1170:	01000001 	tsteq	r0, r1
    1174:	01045000 	mrseq	r5, (UNDEF: 4)
    1178:	01140000 	tsteq	r4, r0
    117c:	00040000 	andeq	r0, r4, r0
    1180:	9f5001f3 	svcls	0x005001f3
    1184:	00000114 	andeq	r0, r0, r4, lsl r1
    1188:	00000118 	andeq	r0, r0, r8, lsl r1
    118c:	18500001 	ldmdane	r0, {r0}^
    1190:	20000001 	andcs	r0, r0, r1
    1194:	04000001 	streq	r0, [r0], #-1
    1198:	5001f300 	andpl	pc, r1, r0, lsl #6
    119c:	0000009f 	muleq	r0, pc, r0	; <UNPREDICTABLE>
    11a0:	00000000 	andeq	r0, r0, r0
    11a4:	0000f800 	andeq	pc, r0, r0, lsl #16
    11a8:	00010400 	andeq	r0, r1, r0, lsl #8
    11ac:	70000b00 	andvc	r0, r0, r0, lsl #22
    11b0:	23253500 			; <UNDEFINED> instruction: 0x23253500
    11b4:	818080b4 	strhhi	r8, [r0, r4]
    11b8:	01049f02 	tsteq	r4, r2, lsl #30
    11bc:	01070000 	mrseq	r0, (UNDEF: 7)
    11c0:	00010000 	andeq	r0, r1, r0
    11c4:	00010750 	andeq	r0, r1, r0, asr r7
    11c8:	00011400 	andeq	r1, r1, r0, lsl #8
    11cc:	f3000c00 			; <UNDEFINED> instruction: 0xf3000c00
    11d0:	25355001 	ldrcs	r5, [r5, #-1]!
    11d4:	8080b423 	addhi	fp, r0, r3, lsr #8
    11d8:	009f0281 	addseq	r0, pc, r1, lsl #5
    11dc:	00000000 	andeq	r0, r0, r0
    11e0:	fc000000 	stc2	0, cr0, [r0], {-0}
    11e4:	14000000 	strne	r0, [r0], #-0
    11e8:	01000001 	tsteq	r0, r1
    11ec:	00005400 	andeq	r5, r0, r0, lsl #8
    11f0:	00000000 	andeq	r0, r0, r0
    11f4:	00d00000 	sbcseq	r0, r0, r0
    11f8:	00df0000 	sbcseq	r0, pc, r0
    11fc:	00010000 	andeq	r0, r1, r0
    1200:	0000df50 	andeq	sp, r0, r0, asr pc
    1204:	0000e400 	andeq	lr, r0, r0, lsl #8
    1208:	f3000400 	vshl.u8	d0, d0, d0
    120c:	e49f5001 	ldr	r5, [pc], #1	; 1214 <_start-0x6dec>
    1210:	e7000000 	str	r0, [r0, -r0]
    1214:	01000000 	mrseq	r0, (UNDEF: 0)
    1218:	00e75000 	rsceq	r5, r7, r0
    121c:	00ec0000 	rsceq	r0, ip, r0
    1220:	00040000 	andeq	r0, r4, r0
    1224:	9f5001f3 	svcls	0x005001f3
	...
    1230:	000000d0 	ldrdeq	r0, [r0], -r0	; <UNPREDICTABLE>
    1234:	000000df 	ldrdeq	r0, [r0], -pc	; <UNPREDICTABLE>
    1238:	df510001 	svcle	0x00510001
    123c:	e4000000 	str	r0, [r0], #-0
    1240:	04000000 	streq	r0, [r0], #-0
    1244:	5101f300 	mrspl	pc, SP_irq	; <UNPREDICTABLE>
    1248:	0000e49f 	muleq	r0, pc, r4	; <UNPREDICTABLE>
    124c:	0000e700 	andeq	lr, r0, r0, lsl #14
    1250:	51000100 	mrspl	r0, (UNDEF: 16)
    1254:	000000e7 	andeq	r0, r0, r7, ror #1
    1258:	000000ec 	andeq	r0, r0, ip, ror #1
    125c:	01f30004 	mvnseq	r0, r4
    1260:	00009f51 	andeq	r9, r0, r1, asr pc
    1264:	00000000 	andeq	r0, r0, r0
    1268:	00c00000 	sbceq	r0, r0, r0
    126c:	00cb0000 	sbceq	r0, fp, r0
    1270:	00010000 	andeq	r0, r1, r0
    1274:	0000cb50 	andeq	ip, r0, r0, asr fp
    1278:	0000d000 	andeq	sp, r0, r0
    127c:	f3000400 	vshl.u8	d0, d0, d0
    1280:	009f5001 	addseq	r5, pc, r1
    1284:	00000000 	andeq	r0, r0, r0
    1288:	9c000000 	stcls	0, cr0, [r0], {-0}
    128c:	b4000000 	strlt	r0, [r0], #-0
    1290:	01000000 	mrseq	r0, (UNDEF: 0)
    1294:	00b45000 	adcseq	r5, r4, r0
    1298:	00c00000 	sbceq	r0, r0, r0
    129c:	00040000 	andeq	r0, r4, r0
    12a0:	9f5001f3 	svcls	0x005001f3
	...
    12ac:	00000078 	andeq	r0, r0, r8, ror r0
    12b0:	00000090 	muleq	r0, r0, r0
    12b4:	90500001 	subsls	r0, r0, r1
    12b8:	9c000000 	stcls	0, cr0, [r0], {-0}
    12bc:	04000000 	streq	r0, [r0], #-0
    12c0:	5001f300 	andpl	pc, r1, r0, lsl #6
    12c4:	0000009f 	muleq	r0, pc, r0	; <UNPREDICTABLE>
    12c8:	00000000 	andeq	r0, r0, r0
    12cc:	00006800 	andeq	r6, r0, r0, lsl #16
    12d0:	00007300 	andeq	r7, r0, r0, lsl #6
    12d4:	50000100 	andpl	r0, r0, r0, lsl #2
    12d8:	00000073 	andeq	r0, r0, r3, ror r0
    12dc:	00000078 	andeq	r0, r0, r8, ror r0
    12e0:	01f30004 	mvnseq	r0, r4
    12e4:	00009f50 	andeq	r9, r0, r0, asr pc
	...
    12f0:	00480000 	subeq	r0, r8, r0
    12f4:	00010000 	andeq	r0, r1, r0
    12f8:	00004850 	andeq	r4, r0, r0, asr r8
    12fc:	00006800 	andeq	r6, r0, r0, lsl #16
    1300:	f3000400 	vshl.u8	d0, d0, d0
    1304:	009f5001 	addseq	r5, pc, r1
	...
    1310:	4b000000 	blmi	1318 <_start-0x6ce8>
    1314:	01000000 	mrseq	r0, (UNDEF: 0)
    1318:	004b5100 	subeq	r5, fp, r0, lsl #2
    131c:	00680000 	rsbeq	r0, r8, r0
    1320:	00040000 	andeq	r0, r4, r0
    1324:	9f5101f3 	svcls	0x005101f3
	...
    1330:	0000004c 	andeq	r0, r0, ip, asr #32
    1334:	00000054 	andeq	r0, r0, r4, asr r0
    1338:	54500001 	ldrbpl	r0, [r0], #-1
    133c:	58000000 	stmdapl	r0, {}	; <UNPREDICTABLE>
    1340:	09000000 	stmdbeq	r0, {}	; <UNPREDICTABLE>
    1344:	74007500 	strvc	r7, [r0], #-1280	; 0xfffffb00
    1348:	00712400 	rsbseq	r2, r1, r0, lsl #8
    134c:	00589f21 	subseq	r9, r8, r1, lsr #30
    1350:	005f0000 	subseq	r0, pc, r0
    1354:	00010000 	andeq	r0, r1, r0
    1358:	00000051 	andeq	r0, r0, r1, asr r0
    135c:	00000000 	andeq	r0, r0, r0
    1360:	0000e000 	andeq	lr, r0, r0
    1364:	00011b00 	andeq	r1, r1, r0, lsl #22
    1368:	50000100 	andpl	r0, r0, r0, lsl #2
    136c:	0000011b 	andeq	r0, r0, fp, lsl r1
    1370:	00000120 	andeq	r0, r0, r0, lsr #2
    1374:	01f30004 	mvnseq	r0, r4
    1378:	01209f50 			; <UNDEFINED> instruction: 0x01209f50
    137c:	01230000 			; <UNDEFINED> instruction: 0x01230000
    1380:	00010000 	andeq	r0, r1, r0
    1384:	00012350 	andeq	r2, r1, r0, asr r3
    1388:	00013c00 	andeq	r3, r1, r0, lsl #24
    138c:	f3000400 	vshl.u8	d0, d0, d0
    1390:	3c9f5001 	ldccc	0, cr5, [pc], {1}
    1394:	3f000001 	svccc	0x00000001
    1398:	01000001 	tsteq	r0, r1
    139c:	013f5000 	teqeq	pc, r0
    13a0:	016c0000 	cmneq	ip, r0
    13a4:	00040000 	andeq	r0, r4, r0
    13a8:	9f5001f3 	svcls	0x005001f3
	...
    13b4:	000000e0 	andeq	r0, r0, r0, ror #1
    13b8:	00000108 	andeq	r0, r0, r8, lsl #2
    13bc:	08510001 	ldmdaeq	r1, {r0}^
    13c0:	1b000001 	blne	13cc <_start-0x6c34>
    13c4:	03000001 	movweq	r0, #1
    13c8:	9f017100 	svcls	0x00017100
    13cc:	0000011b 	andeq	r0, r0, fp, lsl r1
    13d0:	00000120 	andeq	r0, r0, r0, lsr #2
    13d4:	01f30004 	mvnseq	r0, r4
    13d8:	01209f51 			; <UNDEFINED> instruction: 0x01209f51
    13dc:	01230000 			; <UNDEFINED> instruction: 0x01230000
    13e0:	00010000 	andeq	r0, r1, r0
    13e4:	00012351 	andeq	r2, r1, r1, asr r3
    13e8:	00016c00 	andeq	r6, r1, r0, lsl #24
    13ec:	f3000400 	vshl.u8	d0, d0, d0
    13f0:	009f5101 	addseq	r5, pc, r1, lsl #2
    13f4:	00000000 	andeq	r0, r0, r0
    13f8:	f8000000 			; <UNDEFINED> instruction: 0xf8000000
    13fc:	fc000000 	stc2	0, cr0, [r0], {-0}
    1400:	01000000 	mrseq	r0, (UNDEF: 0)
    1404:	00fc5200 	rscseq	r5, ip, r0, lsl #4
    1408:	01040000 	mrseq	r0, (UNDEF: 4)
    140c:	00050000 	andeq	r0, r5, r0
    1410:	00966403 	addseq	r6, r6, r3, lsl #8
    1414:	00010400 	andeq	r0, r1, r0, lsl #8
    1418:	00011b00 	andeq	r1, r1, r0, lsl #22
    141c:	53000100 	movwpl	r0, #256	; 0x100
    1420:	0000013c 	andeq	r0, r0, ip, lsr r1
    1424:	0000013f 	andeq	r0, r0, pc, lsr r1
    1428:	00530001 	subseq	r0, r3, r1
    142c:	00000000 	andeq	r0, r0, r0
    1430:	6c000000 	stcvs	0, cr0, [r0], {-0}
    1434:	80000000 	andhi	r0, r0, r0
    1438:	01000000 	mrseq	r0, (UNDEF: 0)
    143c:	00805000 	addeq	r5, r0, r0
    1440:	009b0000 	addseq	r0, fp, r0
    1444:	00010000 	andeq	r0, r1, r0
    1448:	00009b52 	andeq	r9, r0, r2, asr fp
    144c:	0000a400 	andeq	sl, r0, r0, lsl #8
    1450:	f3000900 	vmls.i8	d0, d0, d0
    1454:	07235001 	streq	r5, [r3, -r1]!
    1458:	9f1af809 	svcls	0x001af809
    145c:	000000a4 	andeq	r0, r0, r4, lsr #1
    1460:	000000a7 	andeq	r0, r0, r7, lsr #1
    1464:	a7500001 	ldrbge	r0, [r0, -r1]
    1468:	d0000000 	andle	r0, r0, r0
    146c:	04000000 	streq	r0, [r0], #-0
    1470:	5001f300 	andpl	pc, r1, r0, lsl #6
    1474:	0000009f 	muleq	r0, pc, r0	; <UNPREDICTABLE>
    1478:	00000000 	andeq	r0, r0, r0
    147c:	00008800 	andeq	r8, r0, r0, lsl #16
    1480:	0000a400 	andeq	sl, r0, r0, lsl #8
    1484:	54000100 	strpl	r0, [r0], #-256	; 0xffffff00
	...
    1490:	0000001c 	andeq	r0, r0, ip, lsl r0
    1494:	00000043 	andeq	r0, r0, r3, asr #32
    1498:	43500001 	cmpmi	r0, #1
    149c:	6c000000 	stcvs	0, cr0, [r0], {-0}
    14a0:	04000000 	streq	r0, [r0], #-0
    14a4:	5001f300 	andpl	pc, r1, r0, lsl #6
    14a8:	0000009f 	muleq	r0, pc, r0	; <UNPREDICTABLE>
    14ac:	00000000 	andeq	r0, r0, r0
    14b0:	00001c00 	andeq	r1, r0, r0, lsl #24
    14b4:	00004300 	andeq	r4, r0, r0, lsl #6
    14b8:	50000100 	andpl	r0, r0, r0, lsl #2
    14bc:	00000043 	andeq	r0, r0, r3, asr #32
    14c0:	0000006c 	andeq	r0, r0, ip, rrx
    14c4:	01f30004 	mvnseq	r0, r4
    14c8:	00009f50 	andeq	r9, r0, r0, asr pc
    14cc:	00000000 	andeq	r0, r0, r0
	...

Disassembly of section .debug_aranges:

00000000 <.debug_aranges>:
   0:	0000001c 	andeq	r0, r0, ip, lsl r0
   4:	00000002 	andeq	r0, r0, r2
   8:	00040000 	andeq	r0, r4, r0
   c:	00000000 	andeq	r0, r0, r0
  10:	00008010 	andeq	r8, r0, r0, lsl r0
  14:	000000d4 	ldrdeq	r0, [r0], -r4
	...
  20:	0000001c 	andeq	r0, r0, ip, lsl r0
  24:	0ae30002 	beq	ff8c0034 <__bss_end__+0xff8b600c>
  28:	00040000 	andeq	r0, r4, r0
  2c:	00000000 	andeq	r0, r0, r0
  30:	000080e4 	andeq	r8, r0, r4, ror #1
  34:	00000878 	andeq	r0, r0, r8, ror r8
	...
  40:	0000001c 	andeq	r0, r0, ip, lsl r0
  44:	22b00002 	adcscs	r0, r0, #2
  48:	00040000 	andeq	r0, r4, r0
  4c:	00000000 	andeq	r0, r0, r0
  50:	0000895c 	andeq	r8, r0, ip, asr r9
  54:	00000058 	andeq	r0, r0, r8, asr r0
	...
  60:	0000001c 	andeq	r0, r0, ip, lsl r0
  64:	2c420002 	mcrrcs	0, 0, r0, r2, cr2
  68:	00040000 	andeq	r0, r4, r0
  6c:	00000000 	andeq	r0, r0, r0
  70:	000089b4 			; <UNDEFINED> instruction: 0x000089b4
  74:	00000544 	andeq	r0, r0, r4, asr #10
	...
  80:	0000001c 	andeq	r0, r0, ip, lsl r0
  84:	3ab60002 	bcc	fed80094 <__bss_end__+0xfed7606c>
  88:	00040000 	andeq	r0, r4, r0
  8c:	00000000 	andeq	r0, r0, r0
  90:	00008ef8 	strdeq	r8, [r0], -r8	; <UNPREDICTABLE>
  94:	000000e8 	andeq	r0, r0, r8, ror #1
	...
  a0:	0000001c 	andeq	r0, r0, ip, lsl r0
  a4:	44060002 	strmi	r0, [r6], #-2
  a8:	00040000 	andeq	r0, r4, r0
  ac:	00000000 	andeq	r0, r0, r0
  b0:	00008fe0 	andeq	r8, r0, r0, ror #31
  b4:	00000034 	andeq	r0, r0, r4, lsr r0
	...
  c0:	0000001c 	andeq	r0, r0, ip, lsl r0
  c4:	4cf50002 	ldclmi	0, cr0, [r5], #8
  c8:	00040000 	andeq	r0, r4, r0
  cc:	00000000 	andeq	r0, r0, r0
  d0:	00009014 	andeq	r9, r0, r4, lsl r0
  d4:	0000003c 	andeq	r0, r0, ip, lsr r0
	...
  e0:	0000001c 	andeq	r0, r0, ip, lsl r0
  e4:	56360002 	ldrtpl	r0, [r6], -r2
  e8:	00040000 	andeq	r0, r4, r0
  ec:	00000000 	andeq	r0, r0, r0
  f0:	00009050 	andeq	r9, r0, r0, asr r0
  f4:	00000020 	andeq	r0, r0, r0, lsr #32
	...
 100:	0000001c 	andeq	r0, r0, ip, lsl r0
 104:	5f120002 	svcpl	0x00120002
 108:	00040000 	andeq	r0, r4, r0
 10c:	00000000 	andeq	r0, r0, r0
 110:	00009070 	andeq	r9, r0, r0, ror r0
 114:	00000034 	andeq	r0, r0, r4, lsr r0
	...
 120:	0000001c 	andeq	r0, r0, ip, lsl r0
 124:	684c0002 	stmdavs	ip, {r1}^
 128:	00040000 	andeq	r0, r4, r0
 12c:	00000000 	andeq	r0, r0, r0
 130:	000090a4 	andeq	r9, r0, r4, lsr #1
 134:	00000078 	andeq	r0, r0, r8, ror r0
	...
 140:	0000001c 	andeq	r0, r0, ip, lsl r0
 144:	72360002 	eorsvc	r0, r6, #2
 148:	00040000 	andeq	r0, r4, r0
 14c:	00000000 	andeq	r0, r0, r0
 150:	0000911c 	andeq	r9, r0, ip, lsl r1
 154:	00000028 	andeq	r0, r0, r8, lsr #32
	...
 160:	0000001c 	andeq	r0, r0, ip, lsl r0
 164:	7b510002 	blvc	1440174 <__bss_end__+0x143614c>
 168:	00040000 	andeq	r0, r4, r0
 16c:	00000000 	andeq	r0, r0, r0
 170:	00009144 	andeq	r9, r0, r4, asr #2
 174:	00000088 	andeq	r0, r0, r8, lsl #1
	...
 180:	0000001c 	andeq	r0, r0, ip, lsl r0
 184:	856c0002 	strbhi	r0, [ip, #-2]!
 188:	00040000 	andeq	r0, r4, r0
 18c:	00000000 	andeq	r0, r0, r0
 190:	00009218 	andeq	r9, r0, r8, lsl r2
 194:	00000178 	andeq	r0, r0, r8, ror r1
	...
 1a0:	0000001c 	andeq	r0, r0, ip, lsl r0
 1a4:	92350002 	eorsls	r0, r5, #2
 1a8:	00040000 	andeq	r0, r4, r0
 1ac:	00000000 	andeq	r0, r0, r0
 1b0:	00009390 	muleq	r0, r0, r3
 1b4:	00000120 	andeq	r0, r0, r0, lsr #2
	...
 1c0:	0000001c 	andeq	r0, r0, ip, lsl r0
 1c4:	9da90002 	stcls	0, cr0, [r9, #8]!
 1c8:	00040000 	andeq	r0, r4, r0
 1cc:	00000000 	andeq	r0, r0, r0
 1d0:	000094b0 			; <UNDEFINED> instruction: 0x000094b0
 1d4:	00000194 	muleq	r0, r4, r1
	...

Disassembly of section .debug_line:

00000000 <.debug_line>:
       0:	0000010c 	andeq	r0, r0, ip, lsl #2
       4:	00ed0002 	rsceq	r0, sp, r2
       8:	01020000 	mrseq	r0, (UNDEF: 2)
       c:	000d0efb 	strdeq	r0, [sp], -fp
      10:	01010101 	tsteq	r1, r1, lsl #2
      14:	01000000 	mrseq	r0, (UNDEF: 0)
      18:	2f010000 	svccs	0x00010000
      1c:	2f727375 	svccs	0x00727375
      20:	6c636e69 	stclvs	14, cr6, [r3], #-420	; 0xfffffe5c
      24:	2f656475 	svccs	0x00656475
      28:	6c77656e 	cfldr64vs	mvdx6, [r7], #-440	; 0xfffffe48
      2c:	732f6269 			; <UNDEFINED> instruction: 0x732f6269
      30:	2f007379 	svccs	0x00007379
      34:	2f727375 	svccs	0x00727375
      38:	2f62696c 	svccs	0x0062696c
      3c:	2f636367 	svccs	0x00636367
      40:	2d6d7261 	sfmcs	f7, 2, [sp, #-388]!	; 0xfffffe7c
      44:	656e6f6e 	strbvs	r6, [lr, #-3950]!	; 0xfffff092
      48:	6261652d 	rsbvs	r6, r1, #188743680	; 0xb400000
      4c:	2e362f69 	cdpcs	15, 3, cr2, cr6, cr9, {3}
      50:	2f312e33 	svccs	0x00312e33
      54:	6c636e69 	stclvs	14, cr6, [r3], #-420	; 0xfffffe5c
      58:	00656475 	rsbeq	r6, r5, r5, ror r4
      5c:	6d6f682f 	stclvs	8, cr6, [pc, #-188]!	; ffffffa8 <__bss_end__+0xffff5f80>
      60:	73752f65 	cmnvc	r5, #404	; 0x194
      64:	442f7265 	strtmi	r7, [pc], #-613	; 6c <_start-0x7f94>
      68:	432f7665 			; <UNDEFINED> instruction: 0x432f7665
      6c:	30343253 	eorscc	r3, r4, r3, asr r2
      70:	6c2f2f58 	stcvs	15, cr2, [pc], #-352	; ffffff18 <__bss_end__+0xffff5ef0>
      74:	69706269 	ldmdbvs	r0!, {r0, r3, r5, r6, r9, sp, lr}^
      78:	636e692f 	cmnvs	lr, #770048	; 0xbc000
      7c:	6564756c 	strbvs	r7, [r4, #-1388]!	; 0xfffffa94
      80:	73752f00 	cmnvc	r5, #0, 30
      84:	6e692f72 	mcrvs	15, 3, r2, cr9, cr2, {3}
      88:	64756c63 	ldrbtvs	r6, [r5], #-3171	; 0xfffff39d
      8c:	656e2f65 	strbvs	r2, [lr, #-3941]!	; 0xfffff09b
      90:	62696c77 	rsbvs	r6, r9, #30464	; 0x7700
      94:	61700000 	cmnvs	r0, r0
      98:	2d317472 	cfldrscs	mvf7, [r1, #-456]!	; 0xfffffe38
      9c:	74736574 	ldrbtvc	r6, [r3], #-1396	; 0xfffffa8c
      a0:	00632e31 	rsbeq	r2, r3, r1, lsr lr
      a4:	6c000000 	stcvs	0, cr0, [r0], {-0}
      a8:	2e6b636f 	cdpcs	3, 6, cr6, cr11, cr15, {3}
      ac:	00010068 	andeq	r0, r1, r8, rrx
      b0:	79745f00 	ldmdbvc	r4!, {r8, r9, sl, fp, ip, lr}^
      b4:	2e736570 	mrccs	5, 3, r6, cr3, cr0, {3}
      b8:	00010068 	andeq	r0, r1, r8, rrx
      bc:	64747300 	ldrbtvs	r7, [r4], #-768	; 0xfffffd00
      c0:	2e666564 	cdpcs	5, 6, cr6, cr6, cr4, {3}
      c4:	00020068 	andeq	r0, r2, r8, rrx
      c8:	65657200 	strbvs	r7, [r5, #-512]!	; 0xfffffe00
      cc:	682e746e 	stmdavs	lr!, {r1, r2, r3, r5, r6, sl, ip, sp, lr}
      d0:	00000100 	andeq	r0, r0, r0, lsl #2
      d4:	2e697072 	mcrcs	0, 3, r7, cr9, cr2, {3}
      d8:	00030068 	andeq	r0, r3, r8, rrx
      dc:	616b6300 	cmnvs	fp, r0, lsl #6
      e0:	636f6c6c 	cmnvs	pc, #108, 24	; 0x6c00
      e4:	0000682e 	andeq	r6, r0, lr, lsr #16
      e8:	74730000 	ldrbtvc	r0, [r3], #-0
      ec:	676e6972 			; <UNDEFINED> instruction: 0x676e6972
      f0:	0400682e 	streq	r6, [r0], #-2094	; 0xfffff7d2
      f4:	00000000 	andeq	r0, r0, r0
      f8:	80100205 	andshi	r0, r0, r5, lsl #4
      fc:	0c030000 	stceq	0, cr0, [r3], {-0}
     100:	4c4d2f01 	mcrrmi	15, 0, r2, sp, cr1
     104:	839ff384 	orrshi	pc, pc, #132, 6	; 0x10000002
     108:	029c699f 	addseq	r6, ip, #2605056	; 0x27c000
     10c:	0101001c 	tsteq	r1, ip, lsl r0
     110:	0000025a 	andeq	r0, r0, sl, asr r2
     114:	012b0002 			; <UNDEFINED> instruction: 0x012b0002
     118:	01020000 	mrseq	r0, (UNDEF: 2)
     11c:	000d0efb 	strdeq	r0, [sp], -fp
     120:	01010101 	tsteq	r1, r1, lsl #2
     124:	01000000 	mrseq	r0, (UNDEF: 0)
     128:	2f010000 	svccs	0x00010000
     12c:	2f727375 	svccs	0x00727375
     130:	2f62696c 	svccs	0x0062696c
     134:	2f636367 	svccs	0x00636367
     138:	2d6d7261 	sfmcs	f7, 2, [sp, #-388]!	; 0xfffffe7c
     13c:	656e6f6e 	strbvs	r6, [lr, #-3950]!	; 0xfffff092
     140:	6261652d 	rsbvs	r6, r1, #188743680	; 0xb400000
     144:	2e362f69 	cdpcs	15, 3, cr2, cr6, cr9, {3}
     148:	2f312e33 	svccs	0x00312e33
     14c:	6c636e69 	stclvs	14, cr6, [r3], #-420	; 0xfffffe5c
     150:	00656475 	rsbeq	r6, r5, r5, ror r4
     154:	7273752f 	rsbsvc	r7, r3, #197132288	; 0xbc00000
     158:	636e692f 	cmnvs	lr, #770048	; 0xbc000
     15c:	6564756c 	strbvs	r7, [r4, #-1388]!	; 0xfffffa94
     160:	77656e2f 	strbvc	r6, [r5, -pc, lsr #28]!
     164:	2f62696c 	svccs	0x0062696c
     168:	00737973 	rsbseq	r7, r3, r3, ror r9
     16c:	6d6f682f 	stclvs	8, cr6, [pc, #-188]!	; b8 <_start-0x7f48>
     170:	73752f65 	cmnvc	r5, #404	; 0x194
     174:	442f7265 	strtmi	r7, [pc], #-613	; 17c <_start-0x7e84>
     178:	432f7665 			; <UNDEFINED> instruction: 0x432f7665
     17c:	30343253 	eorscc	r3, r4, r3, asr r2
     180:	6c2f2f58 	stcvs	15, cr2, [pc], #-352	; 28 <_start-0x7fd8>
     184:	69706269 	ldmdbvs	r0!, {r0, r3, r5, r6, r9, sp, lr}^
     188:	636e692f 	cmnvs	lr, #770048	; 0xbc000
     18c:	6564756c 	strbvs	r7, [r4, #-1388]!	; 0xfffffa94
     190:	73752f00 	cmnvc	r5, #0, 30
     194:	6e692f72 	mcrvs	15, 3, r2, cr9, cr2, {3}
     198:	64756c63 	ldrbtvs	r6, [r5], #-3171	; 0xfffff39d
     19c:	656e2f65 	strbvs	r2, [lr, #-3941]!	; 0xfffff09b
     1a0:	62696c77 	rsbvs	r6, r9, #30464	; 0x7700
     1a4:	6f682f00 	svcvs	0x00682f00
     1a8:	752f656d 	strvc	r6, [pc, #-1389]!	; fffffc43 <__bss_end__+0xffff5c1b>
     1ac:	2f726573 	svccs	0x00726573
     1b0:	2f766544 	svccs	0x00766544
     1b4:	34325343 	ldrtcc	r5, [r2], #-835	; 0xfffffcbd
     1b8:	2f2f5830 	svccs	0x002f5830
     1bc:	7062696c 	rsbvc	r6, r2, ip, ror #18
     1c0:	696c2f69 	stmdbvs	ip!, {r0, r3, r5, r6, r8, r9, sl, fp, sp}^
     1c4:	00006362 	andeq	r6, r0, r2, ror #6
     1c8:	6c616b63 			; <UNDEFINED> instruction: 0x6c616b63
     1cc:	2e636f6c 	cdpcs	15, 6, cr6, cr3, cr12, {3}
     1d0:	00000063 	andeq	r0, r0, r3, rrx
     1d4:	616b6300 	cmnvs	fp, r0, lsl #6
     1d8:	636f6c6c 	cmnvs	pc, #108, 24	; 0x6c00
     1dc:	0000682e 	andeq	r6, r0, lr, lsr #16
     1e0:	74730000 	ldrbtvc	r0, [r3], #-0
     1e4:	746e6964 	strbtvc	r6, [lr], #-2404	; 0xfffff69c
     1e8:	6363672d 	cmnvs	r3, #11796480	; 0xb40000
     1ec:	0100682e 	tsteq	r0, lr, lsr #16
     1f0:	6f6c0000 	svcvs	0x006c0000
     1f4:	682e6b63 	stmdavs	lr!, {r0, r1, r5, r6, r8, r9, fp, sp, lr}
     1f8:	00000200 	andeq	r0, r0, r0, lsl #4
     1fc:	7079745f 	rsbsvc	r7, r9, pc, asr r4
     200:	682e7365 	stmdavs	lr!, {r0, r2, r5, r6, r8, r9, ip, sp, lr}
     204:	00000200 	andeq	r0, r0, r0, lsl #4
     208:	64647473 	strbtvs	r7, [r4], #-1139	; 0xfffffb8d
     20c:	682e6665 	stmdavs	lr!, {r0, r2, r5, r6, r9, sl, sp, lr}
     210:	00000100 	andeq	r0, r0, r0, lsl #2
     214:	6e656572 	mcrvs	5, 3, r6, cr5, cr2, {3}
     218:	00682e74 	rsbeq	r2, r8, r4, ror lr
     21c:	72000002 	andvc	r0, r0, #2
     220:	682e6970 	stmdavs	lr!, {r4, r5, r6, r8, fp, sp, lr}
     224:	00000300 	andeq	r0, r0, r0, lsl #6
     228:	69727473 	ldmdbvs	r2!, {r0, r1, r4, r5, r6, sl, ip, sp, lr}^
     22c:	682e676e 	stmdavs	lr!, {r1, r2, r3, r5, r6, r8, r9, sl, sp, lr}
     230:	00000400 	andeq	r0, r0, r0, lsl #8
     234:	6362696c 	cmnvs	r2, #108, 18	; 0x1b0000
     238:	7478652d 	ldrbtvc	r6, [r8], #-1325	; 0xfffffad3
     23c:	682e6172 	stmdavs	lr!, {r1, r4, r5, r6, r8, sp, lr}
     240:	00000500 	andeq	r0, r0, r0, lsl #10
     244:	02050000 	andeq	r0, r5, #0
     248:	000080e4 	andeq	r8, r0, r4, ror #1
     24c:	01011203 	tsteq	r1, r3, lsl #4
     250:	4a682e4c 	bmi	1a0bb88 <__bss_end__+0x1a01b60>
     254:	14690184 	strbtne	r0, [r9], #-388	; 0xfffffe7c
     258:	304a2303 	subcc	r2, sl, r3, lsl #6
     25c:	01040200 	mrseq	r0, R12_usr
     260:	4b062e06 	blmi	18ba80 <__bss_end__+0x181a58>
     264:	02040200 	andeq	r0, r4, #0, 4
     268:	04838449 	streq	r8, [r3], #1097	; 0x449
     26c:	08100302 	ldmdaeq	r0, {r1, r8, r9}
     270:	d967a020 	stmdble	r7!, {r5, sp, pc}^
     274:	6b030104 	blvs	c068c <__bss_end__+0xb6664>
     278:	02048366 	andeq	r8, r4, #-1744830463	; 0x98000001
     27c:	674a1403 	strbvs	r1, [sl, -r3, lsl #8]
     280:	6f030104 	svcvs	0x00030104
     284:	2ff42ff2 	svccs	0x00f42ff2
     288:	4b825103 	blmi	fe09469c <__bss_end__+0xfe08a674>
     28c:	304b4b2f 	subcc	r4, fp, pc, lsr #22
     290:	04844b31 	streq	r4, [r4], #2865	; 0xb31
     294:	08290302 	stmdaeq	r9!, {r1, r8, r9}
     298:	d967a020 	stmdble	r7!, {r5, sp, pc}^
     29c:	52030104 	andpl	r0, r3, #4, 2
     2a0:	04020066 	streq	r0, [r2], #-102	; 0xffffff9a
     2a4:	04884701 	streq	r4, [r8], #1793	; 0x701
     2a8:	4a2b0302 	bmi	ac0eb8 <__bss_end__+0xab6e90>
     2ac:	03010467 	movweq	r0, #5223	; 0x1467
     2b0:	d86ad651 	stmdale	sl!, {r0, r4, r6, r9, sl, ip, lr, pc}^
     2b4:	04020030 	streq	r0, [r2], #-48	; 0xffffffd0
     2b8:	062e0601 	strteq	r0, [lr], -r1, lsl #12
     2bc:	0402004b 	streq	r0, [r2], #-75	; 0xffffffb5
     2c0:	83844902 	orrhi	r4, r4, #32768	; 0x8000
     2c4:	1d030204 	sfmne	f0, 4, [r3, #-16]
     2c8:	67a03c08 	strvs	r3, [r0, r8, lsl #24]!
     2cc:	030104d9 	movweq	r0, #5337	; 0x14d9
     2d0:	0204665e 	andeq	r6, r4, #98566144	; 0x5e00000
     2d4:	674a2203 	strbvs	r2, [sl, -r3, lsl #4]
     2d8:	5d030104 	stfpls	f0, [r3, #-16]
     2dc:	33464ed6 	movtcc	r4, #28374	; 0x6ed6
     2e0:	4cd61a03 	vldmiami	r6, {s3-s5}
     2e4:	02004930 	andeq	r4, r0, #48, 18	; 0xc0000
     2e8:	06d70304 	ldrbeq	r0, [r7], r4, lsl #6
     2ec:	2f065808 	svccs	0x00065808
     2f0:	2e7fab03 	vaddcs.f64	d26, d15, d3
     2f4:	6783bb2f 	strvs	fp, [r3, pc, lsr #22]
     2f8:	01040200 	mrseq	r0, R12_usr
     2fc:	00e80363 	rsceq	r0, r8, r3, ror #6
     300:	309f7408 	addscc	r7, pc, r8, lsl #8
     304:	6b849f9f 	blvs	fe128188 <__bss_end__+0xfe11e160>
     308:	0200834e 	andeq	r8, r0, #939524097	; 0x38000001
     30c:	72030104 	andvc	r0, r3, #4, 2
     310:	08120382 	ldmdaeq	r2, {r1, r7, r8, r9}
     314:	a0d76a90 	smullsge	r6, r7, r0, sl
     318:	bf4d314b 	svclt	0x004d314b
     31c:	674b2f2f 	strbvs	r2, [fp, -pc, lsr #30]
     320:	f3834b4b 			; <UNDEFINED> instruction: 0xf3834b4b
     324:	67838368 	strvs	r8, [r3, r8, ror #6]
     328:	040200d8 	streq	r0, [r2], #-216	; 0xffffff28
     32c:	66620301 	strbtvs	r0, [r2], -r1, lsl #6
     330:	009308de 			; <UNDEFINED> instruction: 0x009308de
     334:	03010402 	movweq	r0, #5122	; 0x1402
     338:	012a020f 			; <UNDEFINED> instruction: 0x012a020f
     33c:	28020903 	stmdacs	r2, {r0, r1, r8, fp}
     340:	4c832f01 	stcmi	15, cr2, [r3], {1}
     344:	322d2bc0 	eorcc	r2, sp, #192, 22	; 0x30000
     348:	10032f33 	andne	r2, r3, r3, lsr pc
     34c:	03a04d2e 	moveq	r4, #2944	; 0xb80
     350:	03354a70 	teqeq	r5, #112, 20	; 0x70000
     354:	02002e6f 	andeq	r2, r0, #1776	; 0x6f0
     358:	859d0104 	ldrhi	r0, [sp, #260]	; 0x104
     35c:	04020089 	streq	r0, [r2], #-137	; 0xffffff77
     360:	06d60601 	ldrbeq	r0, [r6], r1, lsl #12
     364:	bb4c5a08 	bllt	1316b8c <__bss_end__+0x130cb64>
     368:	00180252 	andseq	r0, r8, r2, asr r2
     36c:	01000101 	tsteq	r0, r1, lsl #2
     370:	00020000 	andeq	r0, r2, r0
     374:	000000e9 	andeq	r0, r0, r9, ror #1
     378:	0efb0102 	cdpeq	1, 15, cr0, cr11, cr2, {0}
     37c:	0101000d 	tsteq	r1, sp
     380:	00000101 	andeq	r0, r0, r1, lsl #2
     384:	00000100 	andeq	r0, r0, r0, lsl #2
     388:	62696c01 	rsbvs	r6, r9, #256	; 0x100
     38c:	752f0063 	strvc	r0, [pc, #-99]!	; 331 <_start-0x7ccf>
     390:	6c2f7273 	sfmvs	f7, 4, [pc], #-460	; 1cc <_start-0x7e34>
     394:	672f6269 	strvs	r6, [pc, -r9, ror #4]!
     398:	612f6363 			; <UNDEFINED> instruction: 0x612f6363
     39c:	6e2d6d72 	mcrvs	13, 1, r6, cr13, cr2, {3}
     3a0:	2d656e6f 	stclcs	14, cr6, [r5, #-444]!	; 0xfffffe44
     3a4:	69626165 	stmdbvs	r2!, {r0, r2, r5, r6, r8, sp, lr}^
     3a8:	332e362f 			; <UNDEFINED> instruction: 0x332e362f
     3ac:	692f312e 	stmdbvs	pc!, {r1, r2, r3, r5, r8, ip, sp}	; <UNPREDICTABLE>
     3b0:	756c636e 	strbvc	r6, [ip, #-878]!	; 0xfffffc92
     3b4:	2f006564 	svccs	0x00006564
     3b8:	2f727375 	svccs	0x00727375
     3bc:	6c636e69 	stclvs	14, cr6, [r3], #-420	; 0xfffffe5c
     3c0:	2f656475 	svccs	0x00656475
     3c4:	6c77656e 	cfldr64vs	mvdx6, [r7], #-440	; 0xfffffe48
     3c8:	732f6269 			; <UNDEFINED> instruction: 0x732f6269
     3cc:	2f007379 	svccs	0x00007379
     3d0:	656d6f68 	strbvs	r6, [sp, #-3944]!	; 0xfffff098
     3d4:	6573752f 	ldrbvs	r7, [r3, #-1327]!	; 0xfffffad1
     3d8:	65442f72 	strbvs	r2, [r4, #-3954]	; 0xfffff08e
     3dc:	53432f76 	movtpl	r2, #16246	; 0x3f76
     3e0:	58303432 	ldmdapl	r0!, {r1, r4, r5, sl, ip, sp}
     3e4:	696c2f2f 	stmdbvs	ip!, {r0, r1, r2, r3, r5, r8, r9, sl, fp, sp}^
     3e8:	2f697062 	svccs	0x00697062
     3ec:	6c636e69 	stclvs	14, cr6, [r3], #-420	; 0xfffffe5c
     3f0:	00656475 	rsbeq	r6, r5, r5, ror r4
     3f4:	69727000 	ldmdbvs	r2!, {ip, sp, lr}^
     3f8:	2e6b746e 	cdpcs	4, 6, cr7, cr11, cr14, {3}
     3fc:	00010063 	andeq	r0, r1, r3, rrx
     400:	64747300 	ldrbtvs	r7, [r4], #-768	; 0xfffffd00
     404:	2e677261 	cdpcs	2, 6, cr7, cr7, cr1, {3}
     408:	00020068 	andeq	r0, r2, r8, rrx
     40c:	636f6c00 	cmnvs	pc, #0, 24
     410:	00682e6b 	rsbeq	r2, r8, fp, ror #28
     414:	5f000003 	svcpl	0x00000003
     418:	65707974 	ldrbvs	r7, [r0, #-2420]!	; 0xfffff68c
     41c:	00682e73 	rsbeq	r2, r8, r3, ror lr
     420:	73000003 	movwvc	r0, #3
     424:	65646474 	strbvs	r6, [r4, #-1140]!	; 0xfffffb8c
     428:	00682e66 	rsbeq	r2, r8, r6, ror #28
     42c:	72000002 	andvc	r0, r0, #2
     430:	746e6565 	strbtvc	r6, [lr], #-1381	; 0xfffffa9b
     434:	0300682e 	movweq	r6, #2094	; 0x82e
     438:	623c0000 	eorsvs	r0, ip, #0
     43c:	746c6975 	strbtvc	r6, [ip], #-2421	; 0xfffff68b
     440:	3e6e692d 	vmulcc.f16	s13, s28, s27	; <UNPREDICTABLE>
     444:	00000000 	andeq	r0, r0, r0
     448:	2e697072 	mcrcs	0, 3, r7, cr9, cr2, {3}
     44c:	00040068 	andeq	r0, r4, r8, rrx
     450:	2d617600 	stclcs	6, cr7, [r1, #-0]
     454:	6e697270 	mcrvs	2, 3, r7, cr9, cr0, {3}
     458:	682e6b74 	stmdavs	lr!, {r2, r4, r5, r6, r8, r9, fp, sp, lr}
     45c:	00000100 	andeq	r0, r0, r0, lsl #2
     460:	02050000 	andeq	r0, r5, #0
     464:	0000895c 	andeq	r8, r0, ip, asr r9
     468:	bf4b6b17 	svclt	0x004b6b17
     46c:	000e0289 	andeq	r0, lr, r9, lsl #5
     470:	01ce0101 	biceq	r0, lr, r1, lsl #2
     474:	00020000 	andeq	r0, r2, r0
     478:	000000dd 	ldrdeq	r0, [r0], -sp
     47c:	0efb0102 	cdpeq	1, 15, cr0, cr11, cr2, {0}
     480:	0101000d 	tsteq	r1, sp
     484:	00000101 	andeq	r0, r0, r1, lsl #2
     488:	00000100 	andeq	r0, r0, r0, lsl #2
     48c:	62696c01 	rsbvs	r6, r9, #256	; 0x100
     490:	752f0063 	strvc	r0, [pc, #-99]!	; 435 <_start-0x7bcb>
     494:	692f7273 	stmdbvs	pc!, {r0, r1, r4, r5, r6, r9, ip, sp, lr}	; <UNPREDICTABLE>
     498:	756c636e 	strbvc	r6, [ip, #-878]!	; 0xfffffc92
     49c:	6e2f6564 	cfsh64vs	mvdx6, mvdx15, #52
     4a0:	696c7765 	stmdbvs	ip!, {r0, r2, r5, r6, r8, r9, sl, ip, sp, lr}^
     4a4:	79732f62 	ldmdbvc	r3!, {r1, r5, r6, r8, r9, sl, fp, sp}^
     4a8:	752f0073 	strvc	r0, [pc, #-115]!	; 43d <_start-0x7bc3>
     4ac:	6c2f7273 	sfmvs	f7, 4, [pc], #-460	; 2e8 <_start-0x7d18>
     4b0:	672f6269 	strvs	r6, [pc, -r9, ror #4]!
     4b4:	612f6363 			; <UNDEFINED> instruction: 0x612f6363
     4b8:	6e2d6d72 	mcrvs	13, 1, r6, cr13, cr2, {3}
     4bc:	2d656e6f 	stclcs	14, cr6, [r5, #-444]!	; 0xfffffe44
     4c0:	69626165 	stmdbvs	r2!, {r0, r2, r5, r6, r8, sp, lr}^
     4c4:	332e362f 			; <UNDEFINED> instruction: 0x332e362f
     4c8:	692f312e 	stmdbvs	pc!, {r1, r2, r3, r5, r8, ip, sp}	; <UNPREDICTABLE>
     4cc:	756c636e 	strbvc	r6, [ip, #-878]!	; 0xfffffc92
     4d0:	2f006564 	svccs	0x00006564
     4d4:	656d6f68 	strbvs	r6, [sp, #-3944]!	; 0xfffff098
     4d8:	6573752f 	ldrbvs	r7, [r3, #-1327]!	; 0xfffffad1
     4dc:	65442f72 	strbvs	r2, [r4, #-3954]	; 0xfffff08e
     4e0:	53432f76 	movtpl	r2, #16246	; 0x3f76
     4e4:	58303432 	ldmdapl	r0!, {r1, r4, r5, sl, ip, sp}
     4e8:	696c2f2f 	stmdbvs	ip!, {r0, r1, r2, r3, r5, r8, r9, sl, fp, sp}^
     4ec:	2f697062 	svccs	0x00697062
     4f0:	6c636e69 	stclvs	14, cr6, [r3], #-420	; 0xfffffe5c
     4f4:	00656475 	rsbeq	r6, r5, r5, ror r4
     4f8:	2d617600 	stclcs	6, cr7, [r1, #-0]
     4fc:	6e697270 	mcrvs	2, 3, r7, cr9, cr0, {3}
     500:	632e6b74 			; <UNDEFINED> instruction: 0x632e6b74
     504:	00000100 	andeq	r0, r0, r0, lsl #2
     508:	6b636f6c 	blvs	18dc2c0 <__bss_end__+0x18d2298>
     50c:	0200682e 	andeq	r6, r0, #3014656	; 0x2e0000
     510:	745f0000 	ldrbvc	r0, [pc], #-0	; 518 <_start-0x7ae8>
     514:	73657079 	cmnvc	r5, #121	; 0x79
     518:	0200682e 	andeq	r6, r0, #3014656	; 0x2e0000
     51c:	74730000 	ldrbtvc	r0, [r3], #-0
     520:	66656464 	strbtvs	r6, [r5], -r4, ror #8
     524:	0300682e 	movweq	r6, #2094	; 0x82e
     528:	65720000 	ldrbvs	r0, [r2, #-0]!
     52c:	2e746e65 	cdpcs	14, 7, cr6, cr4, cr5, {3}
     530:	00020068 	andeq	r0, r2, r8, rrx
     534:	69707200 	ldmdbvs	r0!, {r9, ip, sp, lr}^
     538:	0400682e 	streq	r6, [r0], #-2094	; 0xfffff7d2
     53c:	74730000 	ldrbtvc	r0, [r3], #-0
     540:	67726164 	ldrbvs	r6, [r2, -r4, ror #2]!
     544:	0300682e 	movweq	r6, #2094	; 0x82e
     548:	623c0000 	eorsvs	r0, ip, #0
     54c:	746c6975 	strbtvc	r6, [ip], #-2421	; 0xfffff68b
     550:	3e6e692d 	vmulcc.f16	s13, s28, s27	; <UNPREDICTABLE>
     554:	00000000 	andeq	r0, r0, r0
     558:	02050000 	andeq	r0, r5, #0
     55c:	000089b4 			; <UNDEFINED> instruction: 0x000089b4
     560:	01012603 	tsteq	r1, r3, lsl #12
     564:	003013a5 	eorseq	r1, r0, r5, lsr #7
     568:	2f020402 	svccs	0x00020402
     56c:	02040200 	andeq	r0, r4, #0, 4
     570:	04020049 	streq	r0, [r2], #-73	; 0xffffffb7
     574:	02002f02 	andeq	r2, r0, #2, 30
     578:	4c2d0104 	stfmis	f0, [sp], #-16
     57c:	4b14304c 	blmi	50c6b4 <__bss_end__+0x50268c>
     580:	02004f2f 	andeq	r4, r0, #47, 30	; 0xbc
     584:	00670304 	rsbeq	r0, r7, r4, lsl #6
     588:	65010402 	strvs	r0, [r1, #-1026]	; 0xfffffbfe
     58c:	a0304d4c 	eorsge	r4, r0, ip, asr #26
     590:	0230312f 	eorseq	r3, r0, #-1073741813	; 0xc000000b
     594:	2da01626 	stccs	6, cr1, [r0, #152]!	; 0x98
     598:	01040200 	mrseq	r0, R12_usr
     59c:	48062e06 	stmdami	r6, {r1, r2, r9, sl, fp, sp}
     5a0:	04020051 	streq	r0, [r2], #-81	; 0xffffffaf
     5a4:	002e0601 	eoreq	r0, lr, r1, lsl #12
     5a8:	06010402 	streq	r0, [r1], -r2, lsl #8
     5ac:	2f675908 	svccs	0x00675908
     5b0:	00827303 	addeq	r7, r2, r3, lsl #6
     5b4:	03010402 	movweq	r0, #5122	; 0x1402
     5b8:	02002e13 	andeq	r2, r0, #304	; 0x130
     5bc:	4bbb0104 	blmi	feec09d4 <__bss_end__+0xfeeb69ac>
     5c0:	4a150367 	bmi	541364 <__bss_end__+0x53733c>
     5c4:	4a6e03d7 	bmi	1b81528 <__bss_end__+0x1b77500>
     5c8:	2e65034b 	cdpcs	3, 6, cr0, cr5, cr11, {2}
     5cc:	01040200 	mrseq	r0, R12_usr
     5d0:	002e2303 	eoreq	r2, lr, r3, lsl #6
     5d4:	bb010402 	bllt	415e4 <__bss_end__+0x375bc>
     5d8:	01040200 	mrseq	r0, R12_usr
     5dc:	7fa8036a 	svcvc	0x00a8036a
     5e0:	4b13ac08 	blmi	4eb608 <__bss_end__+0x4e15e0>
     5e4:	02002f4b 	andeq	r2, r0, #300	; 0x12c
     5e8:	00620104 	rsbeq	r0, r2, r4, lsl #2
     5ec:	2f010402 	svccs	0x00010402
     5f0:	0800df03 	stmdaeq	r0, {r0, r1, r8, r9, sl, fp, ip, lr, pc}
     5f4:	484c8374 	stmdami	ip, {r2, r4, r5, r6, r8, r9, pc}^
     5f8:	04020031 	streq	r0, [r2], #-49	; 0xffffffcf
     5fc:	06660601 	strbteq	r0, [r6], -r1, lsl #12
     600:	4e842f4b 	cdpmi	15, 8, cr2, cr4, cr11, {2}
     604:	78033031 	stmdavc	r3, {r0, r4, r5, ip, sp}
     608:	032d2f2e 			; <UNDEFINED> instruction: 0x032d2f2e
     60c:	2c834a09 	vstmiacs	r3, {s8-s16}
     610:	02004ca2 	andeq	r4, r0, #41472	; 0xa200
     614:	36020104 	strcc	r0, [r2], -r4, lsl #2
     618:	0e03dc10 	mcreq	12, 0, sp, cr3, cr0, {0}
     61c:	081603d6 	ldmdaeq	r6, {r1, r2, r4, r6, r7, r8, r9}
     620:	6a033158 	bvs	ccb88 <__bss_end__+0xc2b60>
     624:	3159082e 	cmpcc	r9, lr, lsr #16
     628:	08305908 	ldmdaeq	r0!, {r3, r8, fp, ip, lr}
     62c:	30833059 	addcc	r3, r3, r9, asr r0
     630:	08305908 	ldmdaeq	r0!, {r3, r8, fp, ip, lr}
     634:	02006527 	andeq	r6, r0, #163577856	; 0x9c00000
     638:	4a060104 	bmi	180a50 <__bss_end__+0x176a28>
     63c:	02688606 	rsbeq	r8, r8, #6291456	; 0x600000
     640:	01010010 	tsteq	r1, r0, lsl r0
     644:	0000012a 	andeq	r0, r0, sl, lsr #2
     648:	00ce0002 	sbceq	r0, lr, r2
     64c:	01020000 	mrseq	r0, (UNDEF: 2)
     650:	000d0efb 	strdeq	r0, [sp], -fp
     654:	01010101 	tsteq	r1, r1, lsl #2
     658:	01000000 	mrseq	r0, (UNDEF: 0)
     65c:	6c010000 	stcvs	0, cr0, [r1], {-0}
     660:	00636269 	rsbeq	r6, r3, r9, ror #4
     664:	7273752f 	rsbsvc	r7, r3, #197132288	; 0xbc00000
     668:	62696c2f 	rsbvs	r6, r9, #12032	; 0x2f00
     66c:	6363672f 	cmnvs	r3, #12320768	; 0xbc0000
     670:	6d72612f 	ldfvse	f6, [r2, #-188]!	; 0xffffff44
     674:	6e6f6e2d 	cdpvs	14, 6, cr6, cr15, cr13, {1}
     678:	61652d65 	cmnvs	r5, r5, ror #26
     67c:	362f6962 	strtcc	r6, [pc], -r2, ror #18
     680:	312e332e 			; <UNDEFINED> instruction: 0x312e332e
     684:	636e692f 	cmnvs	lr, #770048	; 0xbc000
     688:	6564756c 	strbvs	r7, [r4, #-1388]!	; 0xfffffa94
     68c:	73752f00 	cmnvc	r5, #0, 30
     690:	6e692f72 	mcrvs	15, 3, r2, cr9, cr2, {3}
     694:	64756c63 	ldrbtvs	r6, [r5], #-3171	; 0xfffff39d
     698:	656e2f65 	strbvs	r2, [lr, #-3941]!	; 0xfffff09b
     69c:	62696c77 	rsbvs	r6, r9, #30464	; 0x7700
     6a0:	7379732f 	cmnvc	r9, #-1140850688	; 0xbc000000
     6a4:	6f682f00 	svcvs	0x00682f00
     6a8:	752f656d 	strvc	r6, [pc, #-1389]!	; 143 <_start-0x7ebd>
     6ac:	2f726573 	svccs	0x00726573
     6b0:	2f766544 	svccs	0x00766544
     6b4:	34325343 	ldrtcc	r5, [r2], #-835	; 0xfffffcbd
     6b8:	2f2f5830 	svccs	0x002f5830
     6bc:	7062696c 	rsbvc	r6, r2, ip, ror #18
     6c0:	6e692f69 	cdpvs	15, 6, cr2, cr9, cr9, {3}
     6c4:	64756c63 	ldrbtvs	r6, [r5], #-3171	; 0xfffff39d
     6c8:	68000065 	stmdavs	r0, {r0, r2, r5, r6}
     6cc:	2e687361 	cdpcs	3, 6, cr7, cr8, cr1, {3}
     6d0:	00010063 	andeq	r0, r1, r3, rrx
     6d4:	64747300 	ldrbtvs	r7, [r4], #-768	; 0xfffffd00
     6d8:	2d746e69 	ldclcs	14, cr6, [r4, #-420]!	; 0xfffffe5c
     6dc:	2e636367 	cdpcs	3, 6, cr6, cr3, cr7, {3}
     6e0:	00020068 	andeq	r0, r2, r8, rrx
     6e4:	636f6c00 	cmnvs	pc, #0, 24
     6e8:	00682e6b 	rsbeq	r2, r8, fp, ror #28
     6ec:	5f000003 	svcpl	0x00000003
     6f0:	65707974 	ldrbvs	r7, [r0, #-2420]!	; 0xfffff68c
     6f4:	00682e73 	rsbeq	r2, r8, r3, ror lr
     6f8:	73000003 	movwvc	r0, #3
     6fc:	65646474 	strbvs	r6, [r4, #-1140]!	; 0xfffffb8c
     700:	00682e66 	rsbeq	r2, r8, r6, ror #28
     704:	72000002 	andvc	r0, r0, #2
     708:	746e6565 	strbtvc	r6, [lr], #-1381	; 0xfffffa9b
     70c:	0300682e 	movweq	r6, #2094	; 0x82e
     710:	70720000 	rsbsvc	r0, r2, r0
     714:	00682e69 	rsbeq	r2, r8, r9, ror #28
     718:	00000004 	andeq	r0, r0, r4
     71c:	f8020500 			; <UNDEFINED> instruction: 0xf8020500
     720:	0300008e 	movweq	r0, #142	; 0x8e
     724:	6117010e 	tstvs	r7, lr, lsl #2
     728:	00312f51 	eorseq	r2, r1, r1, asr pc
     72c:	2f020402 	svccs	0x00020402
     730:	02040200 	andeq	r0, r4, #0, 4
     734:	04020083 	streq	r0, [r2], #-131	; 0xffffff7d
     738:	02008302 	andeq	r8, r0, #134217728	; 0x8000000
     73c:	002f0204 	eoreq	r0, pc, r4, lsl #4
     740:	2f020402 	svccs	0x00020402
     744:	02040200 	andeq	r0, r4, #0, 4
     748:	04020029 	streq	r0, [r2], #-41	; 0xffffffd7
     74c:	062e0601 	strteq	r0, [lr], -r1, lsl #12
     750:	034a0903 	movteq	r0, #43267	; 0xa903
     754:	2f2fba10 	svccs	0x002fba10
     758:	302f2f2f 	eorcc	r2, pc, pc, lsr #30
     75c:	832e6a03 			; <UNDEFINED> instruction: 0x832e6a03
     760:	2f2f4b2f 	svccs	0x002f4b2f
     764:	2f2f2f83 	svccs	0x002f2f83
     768:	65032f4b 	strvs	r2, [r3, #-3915]	; 0xfffff0b5
     76c:	0004024a 	andeq	r0, r4, sl, asr #4
     770:	00e40101 	rsceq	r0, r4, r1, lsl #2
     774:	00020000 	andeq	r0, r2, r0
     778:	000000be 	strheq	r0, [r0], -lr
     77c:	0efb0102 	cdpeq	1, 15, cr0, cr11, cr2, {0}
     780:	0101000d 	tsteq	r1, sp
     784:	00000101 	andeq	r0, r0, r1, lsl #2
     788:	00000100 	andeq	r0, r0, r0, lsl #2
     78c:	62696c01 	rsbvs	r6, r9, #256	; 0x100
     790:	752f0063 	strvc	r0, [pc, #-99]!	; 735 <_start-0x78cb>
     794:	692f7273 	stmdbvs	pc!, {r0, r1, r4, r5, r6, r9, ip, sp, lr}	; <UNPREDICTABLE>
     798:	756c636e 	strbvc	r6, [ip, #-878]!	; 0xfffffc92
     79c:	6e2f6564 	cfsh64vs	mvdx6, mvdx15, #52
     7a0:	696c7765 	stmdbvs	ip!, {r0, r2, r5, r6, r8, r9, sl, ip, sp, lr}^
     7a4:	79732f62 	ldmdbvc	r3!, {r1, r5, r6, r8, r9, sl, fp, sp}^
     7a8:	752f0073 	strvc	r0, [pc, #-115]!	; 73d <_start-0x78c3>
     7ac:	6c2f7273 	sfmvs	f7, 4, [pc], #-460	; 5e8 <_start-0x7a18>
     7b0:	672f6269 	strvs	r6, [pc, -r9, ror #4]!
     7b4:	612f6363 			; <UNDEFINED> instruction: 0x612f6363
     7b8:	6e2d6d72 	mcrvs	13, 1, r6, cr13, cr2, {3}
     7bc:	2d656e6f 	stclcs	14, cr6, [r5, #-444]!	; 0xfffffe44
     7c0:	69626165 	stmdbvs	r2!, {r0, r2, r5, r6, r8, sp, lr}^
     7c4:	332e362f 			; <UNDEFINED> instruction: 0x332e362f
     7c8:	692f312e 	stmdbvs	pc!, {r1, r2, r3, r5, r8, ip, sp}	; <UNPREDICTABLE>
     7cc:	756c636e 	strbvc	r6, [ip, #-878]!	; 0xfffffc92
     7d0:	2f006564 	svccs	0x00006564
     7d4:	656d6f68 	strbvs	r6, [sp, #-3944]!	; 0xfffff098
     7d8:	6573752f 	ldrbvs	r7, [r3, #-1327]!	; 0xfffffad1
     7dc:	65442f72 	strbvs	r2, [r4, #-3954]	; 0xfffff08e
     7e0:	53432f76 	movtpl	r2, #16246	; 0x3f76
     7e4:	58303432 	ldmdapl	r0!, {r1, r4, r5, sl, ip, sp}
     7e8:	696c2f2f 	stmdbvs	ip!, {r0, r1, r2, r3, r5, r8, r9, sl, fp, sp}^
     7ec:	2f697062 	svccs	0x00697062
     7f0:	6c636e69 	stclvs	14, cr6, [r3], #-420	; 0xfffffe5c
     7f4:	00656475 	rsbeq	r6, r5, r5, ror r4
     7f8:	74757000 	ldrbtvc	r7, [r5], #-0
     7fc:	00632e6b 	rsbeq	r2, r3, fp, ror #28
     800:	6c000001 	stcvs	0, cr0, [r0], {1}
     804:	2e6b636f 	cdpcs	3, 6, cr6, cr11, cr15, {3}
     808:	00020068 	andeq	r0, r2, r8, rrx
     80c:	79745f00 	ldmdbvc	r4!, {r8, r9, sl, fp, ip, lr}^
     810:	2e736570 	mrccs	5, 3, r6, cr3, cr0, {3}
     814:	00020068 	andeq	r0, r2, r8, rrx
     818:	64747300 	ldrbtvs	r7, [r4], #-768	; 0xfffffd00
     81c:	2e666564 	cdpcs	5, 6, cr6, cr6, cr4, {3}
     820:	00030068 	andeq	r0, r3, r8, rrx
     824:	65657200 	strbvs	r7, [r5, #-512]!	; 0xfffffe00
     828:	682e746e 	stmdavs	lr!, {r1, r2, r3, r5, r6, sl, ip, sp, lr}
     82c:	00000200 	andeq	r0, r0, r0, lsl #4
     830:	2e697072 	mcrcs	0, 3, r7, cr9, cr2, {3}
     834:	00040068 	andeq	r0, r4, r8, rrx
     838:	05000000 	streq	r0, [r0, #-0]
     83c:	008fe002 	addeq	lr, pc, r2
     840:	004b1500 	subeq	r1, fp, r0, lsl #10
     844:	2f020402 	svccs	0x00020402
     848:	02040200 	andeq	r0, r4, #0, 4
     84c:	04020065 	streq	r0, [r2], #-101	; 0xffffff9b
     850:	062e0601 	strteq	r0, [lr], -r1, lsl #12
     854:	0006026b 	andeq	r0, r6, fp, ror #4
     858:	00d90101 	sbcseq	r0, r9, r1, lsl #2
     85c:	00020000 	andeq	r0, r2, r0
     860:	000000c1 	andeq	r0, r0, r1, asr #1
     864:	0efb0102 	cdpeq	1, 15, cr0, cr11, cr2, {0}
     868:	0101000d 	tsteq	r1, sp
     86c:	00000101 	andeq	r0, r0, r1, lsl #2
     870:	00000100 	andeq	r0, r0, r0, lsl #2
     874:	62696c01 	rsbvs	r6, r9, #256	; 0x100
     878:	752f0063 	strvc	r0, [pc, #-99]!	; 81d <_start-0x77e3>
     87c:	692f7273 	stmdbvs	pc!, {r0, r1, r4, r5, r6, r9, ip, sp, lr}	; <UNPREDICTABLE>
     880:	756c636e 	strbvc	r6, [ip, #-878]!	; 0xfffffc92
     884:	6e2f6564 	cfsh64vs	mvdx6, mvdx15, #52
     888:	696c7765 	stmdbvs	ip!, {r0, r2, r5, r6, r8, r9, sl, ip, sp, lr}^
     88c:	79732f62 	ldmdbvc	r3!, {r1, r5, r6, r8, r9, sl, fp, sp}^
     890:	752f0073 	strvc	r0, [pc, #-115]!	; 825 <_start-0x77db>
     894:	6c2f7273 	sfmvs	f7, 4, [pc], #-460	; 6d0 <_start-0x7930>
     898:	672f6269 	strvs	r6, [pc, -r9, ror #4]!
     89c:	612f6363 			; <UNDEFINED> instruction: 0x612f6363
     8a0:	6e2d6d72 	mcrvs	13, 1, r6, cr13, cr2, {3}
     8a4:	2d656e6f 	stclcs	14, cr6, [r5, #-444]!	; 0xfffffe44
     8a8:	69626165 	stmdbvs	r2!, {r0, r2, r5, r6, r8, sp, lr}^
     8ac:	332e362f 			; <UNDEFINED> instruction: 0x332e362f
     8b0:	692f312e 	stmdbvs	pc!, {r1, r2, r3, r5, r8, ip, sp}	; <UNPREDICTABLE>
     8b4:	756c636e 	strbvc	r6, [ip, #-878]!	; 0xfffffc92
     8b8:	2f006564 	svccs	0x00006564
     8bc:	656d6f68 	strbvs	r6, [sp, #-3944]!	; 0xfffff098
     8c0:	6573752f 	ldrbvs	r7, [r3, #-1327]!	; 0xfffffad1
     8c4:	65442f72 	strbvs	r2, [r4, #-3954]	; 0xfffff08e
     8c8:	53432f76 	movtpl	r2, #16246	; 0x3f76
     8cc:	58303432 	ldmdapl	r0!, {r1, r4, r5, sl, ip, sp}
     8d0:	696c2f2f 	stmdbvs	ip!, {r0, r1, r2, r3, r5, r8, r9, sl, fp, sp}^
     8d4:	2f697062 	svccs	0x00697062
     8d8:	6c636e69 	stclvs	14, cr6, [r3], #-420	; 0xfffffe5c
     8dc:	00656475 	rsbeq	r6, r5, r5, ror r4
     8e0:	74757000 	ldrbtvc	r7, [r5], #-0
     8e4:	72616863 	rsbvc	r6, r1, #6488064	; 0x630000
     8e8:	0100632e 	tsteq	r0, lr, lsr #6
     8ec:	6f6c0000 	svcvs	0x006c0000
     8f0:	682e6b63 	stmdavs	lr!, {r0, r1, r5, r6, r8, r9, fp, sp, lr}
     8f4:	00000200 	andeq	r0, r0, r0, lsl #4
     8f8:	7079745f 	rsbsvc	r7, r9, pc, asr r4
     8fc:	682e7365 	stmdavs	lr!, {r0, r2, r5, r6, r8, r9, ip, sp, lr}
     900:	00000200 	andeq	r0, r0, r0, lsl #4
     904:	64647473 	strbtvs	r7, [r4], #-1139	; 0xfffffb8d
     908:	682e6665 	stmdavs	lr!, {r0, r2, r5, r6, r9, sl, sp, lr}
     90c:	00000300 	andeq	r0, r0, r0, lsl #6
     910:	6e656572 	mcrvs	5, 3, r6, cr5, cr2, {3}
     914:	00682e74 	rsbeq	r2, r8, r4, ror lr
     918:	72000002 	andvc	r0, r0, #2
     91c:	682e6970 	stmdavs	lr!, {r4, r5, r6, r8, fp, sp, lr}
     920:	00000400 	andeq	r0, r0, r0, lsl #8
     924:	02050000 	andeq	r0, r5, #0
     928:	00009014 	andeq	r9, r0, r4, lsl r0
     92c:	136b4a14 	cmnne	fp, #20, 20	; 0x14000
     930:	080213bc 	stmdaeq	r2, {r2, r3, r4, r5, r7, r8, r9, ip}
     934:	ca010100 	bgt	40d3c <__bss_end__+0x36d14>
     938:	02000000 	andeq	r0, r0, #0
     93c:	0000b200 	andeq	fp, r0, r0, lsl #4
     940:	fb010200 	blx	4114a <__bss_end__+0x37122>
     944:	01000d0e 	tsteq	r0, lr, lsl #26
     948:	00010101 	andeq	r0, r1, r1, lsl #2
     94c:	00010000 	andeq	r0, r1, r0
     950:	696c0100 	stmdbvs	ip!, {r8}^
     954:	2f006362 	svccs	0x00006362
     958:	2f727375 	svccs	0x00727375
     95c:	2f62696c 	svccs	0x0062696c
     960:	2f636367 	svccs	0x00636367
     964:	2d6d7261 	sfmcs	f7, 2, [sp, #-388]!	; 0xfffffe7c
     968:	656e6f6e 	strbvs	r6, [lr, #-3950]!	; 0xfffff092
     96c:	6261652d 	rsbvs	r6, r1, #188743680	; 0xb400000
     970:	2e362f69 	cdpcs	15, 3, cr2, cr6, cr9, {3}
     974:	2f312e33 	svccs	0x00312e33
     978:	6c636e69 	stclvs	14, cr6, [r3], #-420	; 0xfffffe5c
     97c:	00656475 	rsbeq	r6, r5, r5, ror r4
     980:	7273752f 	rsbsvc	r7, r3, #197132288	; 0xbc00000
     984:	636e692f 	cmnvs	lr, #770048	; 0xbc000
     988:	6564756c 	strbvs	r7, [r4, #-1388]!	; 0xfffffa94
     98c:	77656e2f 	strbvc	r6, [r5, -pc, lsr #28]!
     990:	2f62696c 	svccs	0x0062696c
     994:	00737973 	rsbseq	r7, r3, r3, ror r9
     998:	7273752f 	rsbsvc	r7, r3, #197132288	; 0xbc00000
     99c:	636e692f 	cmnvs	lr, #770048	; 0xbc000
     9a0:	6564756c 	strbvs	r7, [r4, #-1388]!	; 0xfffffa94
     9a4:	77656e2f 	strbvc	r6, [r5, -pc, lsr #28]!
     9a8:	0062696c 	rsbeq	r6, r2, ip, ror #18
     9ac:	6d656d00 	stclvs	13, cr6, [r5, #-0]
     9b0:	2e746573 	mrccs	5, 3, r6, cr4, cr3, {3}
     9b4:	00010063 	andeq	r0, r1, r3, rrx
     9b8:	64747300 	ldrbtvs	r7, [r4], #-768	; 0xfffffd00
     9bc:	2e666564 	cdpcs	5, 6, cr6, cr6, cr4, {3}
     9c0:	00020068 	andeq	r0, r2, r8, rrx
     9c4:	636f6c00 	cmnvs	pc, #0, 24
     9c8:	00682e6b 	rsbeq	r2, r8, fp, ror #28
     9cc:	5f000003 	svcpl	0x00000003
     9d0:	65707974 	ldrbvs	r7, [r0, #-2420]!	; 0xfffff68c
     9d4:	00682e73 	rsbeq	r2, r8, r3, ror lr
     9d8:	72000003 	andvc	r0, r0, #3
     9dc:	746e6565 	strbtvc	r6, [lr], #-1381	; 0xfffffa9b
     9e0:	0300682e 	movweq	r6, #2094	; 0x82e
     9e4:	74730000 	ldrbtvc	r0, [r3], #-0
     9e8:	676e6972 			; <UNDEFINED> instruction: 0x676e6972
     9ec:	0400682e 	streq	r6, [r0], #-2094	; 0xfffff7d2
     9f0:	00000000 	andeq	r0, r0, r0
     9f4:	90500205 	subsls	r0, r0, r5, lsl #4
     9f8:	13140000 	tstne	r4, #0
     9fc:	4d492f4c 	stclmi	15, cr2, [r9, #-304]	; 0xfffffed0
     a00:	01000202 	tsteq	r0, r2, lsl #4
     a04:	0000e201 	andeq	lr, r0, r1, lsl #4
     a08:	c5000200 	strgt	r0, [r0, #-512]	; 0xfffffe00
     a0c:	02000000 	andeq	r0, r0, #0
     a10:	0d0efb01 	vstreq	d15, [lr, #-4]
     a14:	01010100 	mrseq	r0, (UNDEF: 17)
     a18:	00000001 	andeq	r0, r0, r1
     a1c:	01000001 	tsteq	r0, r1
     a20:	66617473 			; <UNDEFINED> instruction: 0x66617473
     a24:	72732d66 	rsbsvc	r2, r3, #6528	; 0x1980
     a28:	752f0063 	strvc	r0, [pc, #-99]!	; 9cd <_start-0x7633>
     a2c:	692f7273 	stmdbvs	pc!, {r0, r1, r4, r5, r6, r9, ip, sp, lr}	; <UNPREDICTABLE>
     a30:	756c636e 	strbvc	r6, [ip, #-878]!	; 0xfffffc92
     a34:	6e2f6564 	cfsh64vs	mvdx6, mvdx15, #52
     a38:	696c7765 	stmdbvs	ip!, {r0, r2, r5, r6, r8, r9, sl, ip, sp, lr}^
     a3c:	79732f62 	ldmdbvc	r3!, {r1, r5, r6, r8, r9, sl, fp, sp}^
     a40:	752f0073 	strvc	r0, [pc, #-115]!	; 9d5 <_start-0x762b>
     a44:	6c2f7273 	sfmvs	f7, 4, [pc], #-460	; 880 <_start-0x7780>
     a48:	672f6269 	strvs	r6, [pc, -r9, ror #4]!
     a4c:	612f6363 			; <UNDEFINED> instruction: 0x612f6363
     a50:	6e2d6d72 	mcrvs	13, 1, r6, cr13, cr2, {3}
     a54:	2d656e6f 	stclcs	14, cr6, [r5, #-444]!	; 0xfffffe44
     a58:	69626165 	stmdbvs	r2!, {r0, r2, r5, r6, r8, sp, lr}^
     a5c:	332e362f 			; <UNDEFINED> instruction: 0x332e362f
     a60:	692f312e 	stmdbvs	pc!, {r1, r2, r3, r5, r8, ip, sp}	; <UNPREDICTABLE>
     a64:	756c636e 	strbvc	r6, [ip, #-878]!	; 0xfffffc92
     a68:	2f006564 	svccs	0x00006564
     a6c:	656d6f68 	strbvs	r6, [sp, #-3944]!	; 0xfffff098
     a70:	6573752f 	ldrbvs	r7, [r3, #-1327]!	; 0xfffffad1
     a74:	65442f72 	strbvs	r2, [r4, #-3954]	; 0xfffff08e
     a78:	53432f76 	movtpl	r2, #16246	; 0x3f76
     a7c:	58303432 	ldmdapl	r0!, {r1, r4, r5, sl, ip, sp}
     a80:	696c2f2f 	stmdbvs	ip!, {r0, r1, r2, r3, r5, r8, r9, sl, fp, sp}^
     a84:	2f697062 	svccs	0x00697062
     a88:	6c636e69 	stclvs	14, cr6, [r3], #-420	; 0xfffffe5c
     a8c:	00656475 	rsbeq	r6, r5, r5, ror r4
     a90:	74736300 	ldrbtvc	r6, [r3], #-768	; 0xfffffd00
     a94:	2e747261 	cdpcs	2, 7, cr7, cr4, cr1, {3}
     a98:	00010063 	andeq	r0, r1, r3, rrx
     a9c:	636f6c00 	cmnvs	pc, #0, 24
     aa0:	00682e6b 	rsbeq	r2, r8, fp, ror #28
     aa4:	5f000002 	svcpl	0x00000002
     aa8:	65707974 	ldrbvs	r7, [r0, #-2420]!	; 0xfffff68c
     aac:	00682e73 	rsbeq	r2, r8, r3, ror lr
     ab0:	73000002 	movwvc	r0, #2
     ab4:	65646474 	strbvs	r6, [r4, #-1140]!	; 0xfffffb8c
     ab8:	00682e66 	rsbeq	r2, r8, r6, ror #28
     abc:	72000003 	andvc	r0, r0, #3
     ac0:	746e6565 	strbtvc	r6, [lr], #-1381	; 0xfffffa9b
     ac4:	0200682e 	andeq	r6, r0, #3014656	; 0x2e0000
     ac8:	70720000 	rsbsvc	r0, r2, r0
     acc:	00682e69 	rsbeq	r2, r8, r9, ror #28
     ad0:	00000004 	andeq	r0, r0, r4
     ad4:	70020500 	andvc	r0, r2, r0, lsl #10
     ad8:	03000090 	movweq	r0, #144	; 0x90
     adc:	3132010c 	teqcc	r2, ip, lsl #2
     ae0:	1503652f 	strne	r6, [r3, #-1327]	; 0xfffffad1
     ae4:	06022f66 	streq	r2, [r2], -r6, ror #30
     ae8:	e9010100 	stmdb	r1, {r8}
     aec:	02000000 	andeq	r0, r0, #0
     af0:	0000c500 	andeq	ip, r0, r0, lsl #10
     af4:	fb010200 	blx	412fe <__bss_end__+0x372d6>
     af8:	01000d0e 	tsteq	r0, lr, lsl #26
     afc:	00010101 	andeq	r0, r1, r1, lsl #2
     b00:	00010000 	andeq	r0, r1, r0
     b04:	74730100 	ldrbtvc	r0, [r3], #-256	; 0xffffff00
     b08:	2d666661 	stclcs	6, cr6, [r6, #-388]!	; 0xfffffe7c
     b0c:	00637273 	rsbeq	r7, r3, r3, ror r2
     b10:	7273752f 	rsbsvc	r7, r3, #197132288	; 0xbc00000
     b14:	636e692f 	cmnvs	lr, #770048	; 0xbc000
     b18:	6564756c 	strbvs	r7, [r4, #-1388]!	; 0xfffffa94
     b1c:	77656e2f 	strbvc	r6, [r5, -pc, lsr #28]!
     b20:	2f62696c 	svccs	0x0062696c
     b24:	00737973 	rsbseq	r7, r3, r3, ror r9
     b28:	7273752f 	rsbsvc	r7, r3, #197132288	; 0xbc00000
     b2c:	62696c2f 	rsbvs	r6, r9, #12032	; 0x2f00
     b30:	6363672f 	cmnvs	r3, #12320768	; 0xbc0000
     b34:	6d72612f 	ldfvse	f6, [r2, #-188]!	; 0xffffff44
     b38:	6e6f6e2d 	cdpvs	14, 6, cr6, cr15, cr13, {1}
     b3c:	61652d65 	cmnvs	r5, r5, ror #26
     b40:	362f6962 	strtcc	r6, [pc], -r2, ror #18
     b44:	312e332e 			; <UNDEFINED> instruction: 0x312e332e
     b48:	636e692f 	cmnvs	lr, #770048	; 0xbc000
     b4c:	6564756c 	strbvs	r7, [r4, #-1388]!	; 0xfffffa94
     b50:	6f682f00 	svcvs	0x00682f00
     b54:	752f656d 	strvc	r6, [pc, #-1389]!	; 5ef <_start-0x7a11>
     b58:	2f726573 	svccs	0x00726573
     b5c:	2f766544 	svccs	0x00766544
     b60:	34325343 	ldrtcc	r5, [r2], #-835	; 0xfffffcbd
     b64:	2f2f5830 	svccs	0x002f5830
     b68:	7062696c 	rsbvc	r6, r2, ip, ror #18
     b6c:	6e692f69 	cdpvs	15, 6, cr2, cr9, cr9, {3}
     b70:	64756c63 	ldrbtvs	r6, [r5], #-3171	; 0xfffff39d
     b74:	72000065 	andvc	r0, r0, #101	; 0x65
     b78:	6f6f6265 	svcvs	0x006f6265
     b7c:	00632e74 	rsbeq	r2, r3, r4, ror lr
     b80:	6c000001 	stcvs	0, cr0, [r0], {1}
     b84:	2e6b636f 	cdpcs	3, 6, cr6, cr11, cr15, {3}
     b88:	00020068 	andeq	r0, r2, r8, rrx
     b8c:	79745f00 	ldmdbvc	r4!, {r8, r9, sl, fp, ip, lr}^
     b90:	2e736570 	mrccs	5, 3, r6, cr3, cr0, {3}
     b94:	00020068 	andeq	r0, r2, r8, rrx
     b98:	64747300 	ldrbtvs	r7, [r4], #-768	; 0xfffffd00
     b9c:	2e666564 	cdpcs	5, 6, cr6, cr6, cr4, {3}
     ba0:	00030068 	andeq	r0, r3, r8, rrx
     ba4:	65657200 	strbvs	r7, [r5, #-512]!	; 0xfffffe00
     ba8:	682e746e 	stmdavs	lr!, {r1, r2, r3, r5, r6, sl, ip, sp, lr}
     bac:	00000200 	andeq	r0, r0, r0, lsl #4
     bb0:	2e697072 	mcrcs	0, 3, r7, cr9, cr2, {3}
     bb4:	00040068 	andeq	r0, r4, r8, rrx
     bb8:	05000000 	streq	r0, [r0, #-0]
     bbc:	0090a402 	addseq	sl, r0, r2, lsl #8
     bc0:	010d0300 	mrseq	r0, SP_mon
     bc4:	852f3114 	strhi	r3, [pc, #-276]!	; ab8 <_start-0x7548>
     bc8:	4d4b2f15 	stclmi	15, cr2, [fp, #-84]	; 0xffffffac
     bcc:	67526e2f 	ldrbvs	r6, [r2, -pc, lsr #28]
     bd0:	02827003 	addeq	r7, r2, #3
     bd4:	0101000c 	tsteq	r1, ip
     bd8:	000000e1 	andeq	r0, r0, r1, ror #1
     bdc:	00cb0002 	sbceq	r0, fp, r2
     be0:	01020000 	mrseq	r0, (UNDEF: 2)
     be4:	000d0efb 	strdeq	r0, [sp], -fp
     be8:	01010101 	tsteq	r1, r1, lsl #2
     bec:	01000000 	mrseq	r0, (UNDEF: 0)
     bf0:	73010000 	movwvc	r0, #4096	; 0x1000
     bf4:	66666174 			; <UNDEFINED> instruction: 0x66666174
     bf8:	6372732d 	cmnvs	r2, #-1275068416	; 0xb4000000
     bfc:	73752f00 	cmnvc	r5, #0, 30
     c00:	6e692f72 	mcrvs	15, 3, r2, cr9, cr2, {3}
     c04:	64756c63 	ldrbtvs	r6, [r5], #-3171	; 0xfffff39d
     c08:	656e2f65 	strbvs	r2, [lr, #-3941]!	; 0xfffff09b
     c0c:	62696c77 	rsbvs	r6, r9, #30464	; 0x7700
     c10:	7379732f 	cmnvc	r9, #-1140850688	; 0xbc000000
     c14:	73752f00 	cmnvc	r5, #0, 30
     c18:	696c2f72 	stmdbvs	ip!, {r1, r4, r5, r6, r8, r9, sl, fp, sp}^
     c1c:	63672f62 	cmnvs	r7, #392	; 0x188
     c20:	72612f63 	rsbvc	r2, r1, #396	; 0x18c
     c24:	6f6e2d6d 	svcvs	0x006e2d6d
     c28:	652d656e 	strvs	r6, [sp, #-1390]!	; 0xfffffa92
     c2c:	2f696261 	svccs	0x00696261
     c30:	2e332e36 	mrccs	14, 1, r2, cr3, cr6, {1}
     c34:	6e692f31 	mcrvs	15, 3, r2, cr9, cr1, {1}
     c38:	64756c63 	ldrbtvs	r6, [r5], #-3171	; 0xfffff39d
     c3c:	682f0065 	stmdavs	pc!, {r0, r2, r5, r6}	; <UNPREDICTABLE>
     c40:	2f656d6f 	svccs	0x00656d6f
     c44:	72657375 	rsbvc	r7, r5, #-738197503	; 0xd4000001
     c48:	7665442f 	strbtvc	r4, [r5], -pc, lsr #8
     c4c:	3253432f 	subscc	r4, r3, #-1140850688	; 0xbc000000
     c50:	2f583034 	svccs	0x00583034
     c54:	62696c2f 	rsbvs	r6, r9, #12032	; 0x2f00
     c58:	692f6970 	stmdbvs	pc!, {r4, r5, r6, r8, fp, sp, lr}	; <UNPREDICTABLE>
     c5c:	756c636e 	strbvc	r6, [ip, #-878]!	; 0xfffffc92
     c60:	00006564 	andeq	r6, r0, r4, ror #10
     c64:	61656c63 	cmnvs	r5, r3, ror #24
     c68:	65722d6e 	ldrbvs	r2, [r2, #-3438]!	; 0xfffff292
     c6c:	746f6f62 	strbtvc	r6, [pc], #-3938	; c74 <_start-0x738c>
     c70:	0100632e 	tsteq	r0, lr, lsr #6
     c74:	6f6c0000 	svcvs	0x006c0000
     c78:	682e6b63 	stmdavs	lr!, {r0, r1, r5, r6, r8, r9, fp, sp, lr}
     c7c:	00000200 	andeq	r0, r0, r0, lsl #4
     c80:	7079745f 	rsbsvc	r7, r9, pc, asr r4
     c84:	682e7365 	stmdavs	lr!, {r0, r2, r5, r6, r8, r9, ip, sp, lr}
     c88:	00000200 	andeq	r0, r0, r0, lsl #4
     c8c:	64647473 	strbtvs	r7, [r4], #-1139	; 0xfffffb8d
     c90:	682e6665 	stmdavs	lr!, {r0, r2, r5, r6, r9, sl, sp, lr}
     c94:	00000300 	andeq	r0, r0, r0, lsl #6
     c98:	6e656572 	mcrvs	5, 3, r6, cr5, cr2, {3}
     c9c:	00682e74 	rsbeq	r2, r8, r4, ror lr
     ca0:	72000002 	andvc	r0, r0, #2
     ca4:	682e6970 	stmdavs	lr!, {r4, r5, r6, r8, fp, sp, lr}
     ca8:	00000400 	andeq	r0, r0, r0, lsl #8
     cac:	02050000 	andeq	r0, r5, #0
     cb0:	0000911c 	andeq	r9, r0, ip, lsl r1
     cb4:	4b832f15 	blmi	fe0cc910 <__bss_end__+0xfe0c28e8>
     cb8:	01000602 	tsteq	r0, r2, lsl #12
     cbc:	0000ea01 	andeq	lr, r0, r1, lsl #20
     cc0:	c4000200 	strgt	r0, [r0], #-512	; 0xfffffe00
     cc4:	02000000 	andeq	r0, r0, #0
     cc8:	0d0efb01 	vstreq	d15, [lr, #-4]
     ccc:	01010100 	mrseq	r0, (UNDEF: 17)
     cd0:	00000001 	andeq	r0, r0, r1
     cd4:	01000001 	tsteq	r0, r1
     cd8:	66617473 			; <UNDEFINED> instruction: 0x66617473
     cdc:	72732d66 	rsbsvc	r2, r3, #6528	; 0x1980
     ce0:	752f0063 	strvc	r0, [pc, #-99]!	; c85 <_start-0x737b>
     ce4:	692f7273 	stmdbvs	pc!, {r0, r1, r4, r5, r6, r9, ip, sp, lr}	; <UNPREDICTABLE>
     ce8:	756c636e 	strbvc	r6, [ip, #-878]!	; 0xfffffc92
     cec:	6e2f6564 	cfsh64vs	mvdx6, mvdx15, #52
     cf0:	696c7765 	stmdbvs	ip!, {r0, r2, r5, r6, r8, r9, sl, ip, sp, lr}^
     cf4:	79732f62 	ldmdbvc	r3!, {r1, r5, r6, r8, r9, sl, fp, sp}^
     cf8:	752f0073 	strvc	r0, [pc, #-115]!	; c8d <_start-0x7373>
     cfc:	6c2f7273 	sfmvs	f7, 4, [pc], #-460	; b38 <_start-0x74c8>
     d00:	672f6269 	strvs	r6, [pc, -r9, ror #4]!
     d04:	612f6363 			; <UNDEFINED> instruction: 0x612f6363
     d08:	6e2d6d72 	mcrvs	13, 1, r6, cr13, cr2, {3}
     d0c:	2d656e6f 	stclcs	14, cr6, [r5, #-444]!	; 0xfffffe44
     d10:	69626165 	stmdbvs	r2!, {r0, r2, r5, r6, r8, sp, lr}^
     d14:	332e362f 			; <UNDEFINED> instruction: 0x332e362f
     d18:	692f312e 	stmdbvs	pc!, {r1, r2, r3, r5, r8, ip, sp}	; <UNPREDICTABLE>
     d1c:	756c636e 	strbvc	r6, [ip, #-878]!	; 0xfffffc92
     d20:	2f006564 	svccs	0x00006564
     d24:	656d6f68 	strbvs	r6, [sp, #-3944]!	; 0xfffff098
     d28:	6573752f 	ldrbvs	r7, [r3, #-1327]!	; 0xfffffad1
     d2c:	65442f72 	strbvs	r2, [r4, #-3954]	; 0xfffff08e
     d30:	53432f76 	movtpl	r2, #16246	; 0x3f76
     d34:	58303432 	ldmdapl	r0!, {r1, r4, r5, sl, ip, sp}
     d38:	696c2f2f 	stmdbvs	ip!, {r0, r1, r2, r3, r5, r8, r9, sl, fp, sp}^
     d3c:	2f697062 	svccs	0x00697062
     d40:	6c636e69 	stclvs	14, cr6, [r3], #-420	; 0xfffffe5c
     d44:	00656475 	rsbeq	r6, r5, r5, ror r4
     d48:	6d697400 	cfstrdvs	mvd7, [r9, #-0]
     d4c:	632e7265 			; <UNDEFINED> instruction: 0x632e7265
     d50:	00000100 	andeq	r0, r0, r0, lsl #2
     d54:	6b636f6c 	blvs	18dcb0c <__bss_end__+0x18d2ae4>
     d58:	0200682e 	andeq	r6, r0, #3014656	; 0x2e0000
     d5c:	745f0000 	ldrbvc	r0, [pc], #-0	; d64 <_start-0x729c>
     d60:	73657079 	cmnvc	r5, #121	; 0x79
     d64:	0200682e 	andeq	r6, r0, #3014656	; 0x2e0000
     d68:	74730000 	ldrbtvc	r0, [r3], #-0
     d6c:	66656464 	strbtvs	r6, [r5], -r4, ror #8
     d70:	0300682e 	movweq	r6, #2094	; 0x82e
     d74:	65720000 	ldrbvs	r0, [r2, #-0]!
     d78:	2e746e65 	cdpcs	14, 7, cr6, cr4, cr5, {3}
     d7c:	00020068 	andeq	r0, r2, r8, rrx
     d80:	69707200 	ldmdbvs	r0!, {r9, ip, sp, lr}^
     d84:	0400682e 	streq	r6, [r0], #-2094	; 0xfffff7d2
     d88:	00000000 	andeq	r0, r0, r0
     d8c:	91440205 	cmpls	r4, r5, lsl #4
     d90:	14160000 	ldrne	r0, [r6], #-0
     d94:	31892d2f 	orrcc	r2, r9, pc, lsr #26
     d98:	324d4b2f 	subcc	r4, sp, #48128	; 0xbc00
     d9c:	4c4b3031 	mcrrmi	0, 3, r3, fp, cr1
     da0:	2f2f6a2f 	svccs	0x002f6a2f
     da4:	08022f84 	stmdaeq	r2, {r2, r7, r8, r9, sl, fp, sp}
     da8:	48010100 	stmdami	r1, {r8}
     dac:	02000001 	andeq	r0, r0, #1
     db0:	00010200 	andeq	r0, r1, r0, lsl #4
     db4:	fb010200 	blx	415be <__bss_end__+0x37596>
     db8:	01000d0e 	tsteq	r0, lr, lsl #26
     dbc:	00010101 	andeq	r0, r1, r1, lsl #2
     dc0:	00010000 	andeq	r0, r1, r0
     dc4:	752f0100 	strvc	r0, [pc, #-256]!	; ccc <_start-0x7334>
     dc8:	692f7273 	stmdbvs	pc!, {r0, r1, r4, r5, r6, r9, ip, sp, lr}	; <UNPREDICTABLE>
     dcc:	756c636e 	strbvc	r6, [ip, #-878]!	; 0xfffffc92
     dd0:	6e2f6564 	cfsh64vs	mvdx6, mvdx15, #52
     dd4:	696c7765 	stmdbvs	ip!, {r0, r2, r5, r6, r8, r9, sl, ip, sp, lr}^
     dd8:	79732f62 	ldmdbvc	r3!, {r1, r5, r6, r8, r9, sl, fp, sp}^
     ddc:	752f0073 	strvc	r0, [pc, #-115]!	; d71 <_start-0x728f>
     de0:	6c2f7273 	sfmvs	f7, 4, [pc], #-460	; c1c <_start-0x73e4>
     de4:	672f6269 	strvs	r6, [pc, -r9, ror #4]!
     de8:	612f6363 			; <UNDEFINED> instruction: 0x612f6363
     dec:	6e2d6d72 	mcrvs	13, 1, r6, cr13, cr2, {3}
     df0:	2d656e6f 	stclcs	14, cr6, [r5, #-444]!	; 0xfffffe44
     df4:	69626165 	stmdbvs	r2!, {r0, r2, r5, r6, r8, sp, lr}^
     df8:	332e362f 			; <UNDEFINED> instruction: 0x332e362f
     dfc:	692f312e 	stmdbvs	pc!, {r1, r2, r3, r5, r8, ip, sp}	; <UNPREDICTABLE>
     e00:	756c636e 	strbvc	r6, [ip, #-878]!	; 0xfffffc92
     e04:	2f006564 	svccs	0x00006564
     e08:	656d6f68 	strbvs	r6, [sp, #-3944]!	; 0xfffff098
     e0c:	676e652f 	strbvs	r6, [lr, -pc, lsr #10]!
     e10:	2f72656c 	svccs	0x0072656c
     e14:	73616c63 	cmnvc	r1, #25344	; 0x6300
     e18:	73632f73 	cmnvc	r3, #460	; 0x1cc
     e1c:	6c303432 	cfldrsvs	mvf3, [r0], #-200	; 0xffffff38
     e20:	30322d78 	eorscc	r2, r2, r8, ror sp
     e24:	2f727073 	svccs	0x00727073
     e28:	62696c2f 	rsbvs	r6, r9, #12032	; 0x2f00
     e2c:	2f006970 	svccs	0x00006970
     e30:	656d6f68 	strbvs	r6, [sp, #-3944]!	; 0xfffff098
     e34:	676e652f 	strbvs	r6, [lr, -pc, lsr #10]!
     e38:	2f72656c 	svccs	0x0072656c
     e3c:	73616c63 	cmnvc	r1, #25344	; 0x6300
     e40:	73632f73 	cmnvc	r3, #460	; 0x1cc
     e44:	6c303432 	cfldrsvs	mvf3, [r0], #-200	; 0xffffff38
     e48:	30322d78 	eorscc	r2, r2, r8, ror sp
     e4c:	2f727073 	svccs	0x00727073
     e50:	62696c2f 	rsbvs	r6, r9, #12032	; 0x2f00
     e54:	732f6970 			; <UNDEFINED> instruction: 0x732f6970
     e58:	66666174 			; <UNDEFINED> instruction: 0x66666174
     e5c:	6372732d 	cmnvs	r2, #-1275068416	; 0xb4000000
     e60:	61750000 	cmnvs	r5, r0
     e64:	632e7472 			; <UNDEFINED> instruction: 0x632e7472
     e68:	00000000 	andeq	r0, r0, r0
     e6c:	6b636f6c 	blvs	18dcc24 <__bss_end__+0x18d2bfc>
     e70:	0100682e 	tsteq	r0, lr, lsr #16
     e74:	745f0000 	ldrbvc	r0, [pc], #-0	; e7c <_start-0x7184>
     e78:	73657079 	cmnvc	r5, #121	; 0x79
     e7c:	0100682e 	tsteq	r0, lr, lsr #16
     e80:	74730000 	ldrbtvc	r0, [r3], #-0
     e84:	66656464 	strbtvs	r6, [r5], -r4, ror #8
     e88:	0200682e 	andeq	r6, r0, #3014656	; 0x2e0000
     e8c:	65720000 	ldrbvs	r0, [r2, #-0]!
     e90:	2e746e65 	cdpcs	14, 7, cr6, cr4, cr5, {3}
     e94:	00010068 	andeq	r0, r1, r8, rrx
     e98:	69707200 	ldmdbvs	r0!, {r9, ip, sp, lr}^
     e9c:	0300682e 	movweq	r6, #2094	; 0x82e
     ea0:	61750000 	cmnvs	r5, r0
     ea4:	682e7472 	stmdavs	lr!, {r1, r4, r5, r6, sl, ip, sp, lr}
     ea8:	00000400 	andeq	r0, r0, r0, lsl #8
     eac:	6f697067 	svcvs	0x00697067
     eb0:	0400682e 	streq	r6, [r0], #-2094	; 0xfffff7d2
     eb4:	00000000 	andeq	r0, r0, r0
     eb8:	92180205 	andsls	r0, r8, #1342177280	; 0x50000000
     ebc:	2c030000 	stccs	0, cr0, [r3], {-0}
     ec0:	0c036701 	stceq	7, cr6, [r3], {1}
     ec4:	6867359e 	stmdavs	r7!, {r1, r2, r3, r4, r7, r8, sl, ip, sp}^
     ec8:	0c036835 	stceq	8, cr6, [r3], {53}	; 0x35
     ecc:	696b852e 	stmdbvs	fp!, {r1, r2, r3, r5, r8, sl, pc}^
     ed0:	660c0369 	strvs	r0, [ip], -r9, ror #6
     ed4:	4208676b 	andmi	r6, r8, #28049408	; 0x1ac0000
     ed8:	364b6834 			; <UNDEFINED> instruction: 0x364b6834
     edc:	002f8768 	eoreq	r8, pc, r8, ror #14
     ee0:	2f010402 	svccs	0x00010402
     ee4:	67306768 	ldrvs	r6, [r0, -r8, ror #14]!
     ee8:	0402004b 	streq	r0, [r2], #-75	; 0xffffffb5
     eec:	67682f01 	strbvs	r2, [r8, -r1, lsl #30]!
     ef0:	06022e69 	streq	r2, [r2], -r9, ror #28
     ef4:	2b010100 	blcs	412fc <__bss_end__+0x372d4>
     ef8:	02000001 	andeq	r0, r0, #1
     efc:	0000f800 	andeq	pc, r0, r0, lsl #16
     f00:	fb010200 	blx	4170a <__bss_end__+0x376e2>
     f04:	01000d0e 	tsteq	r0, lr, lsl #26
     f08:	00010101 	andeq	r0, r1, r1, lsl #2
     f0c:	00010000 	andeq	r0, r1, r0
     f10:	752f0100 	strvc	r0, [pc, #-256]!	; e18 <_start-0x71e8>
     f14:	692f7273 	stmdbvs	pc!, {r0, r1, r4, r5, r6, r9, ip, sp, lr}	; <UNPREDICTABLE>
     f18:	756c636e 	strbvc	r6, [ip, #-878]!	; 0xfffffc92
     f1c:	6e2f6564 	cfsh64vs	mvdx6, mvdx15, #52
     f20:	696c7765 	stmdbvs	ip!, {r0, r2, r5, r6, r8, r9, sl, ip, sp, lr}^
     f24:	79732f62 	ldmdbvc	r3!, {r1, r5, r6, r8, r9, sl, fp, sp}^
     f28:	752f0073 	strvc	r0, [pc, #-115]!	; ebd <_start-0x7143>
     f2c:	6c2f7273 	sfmvs	f7, 4, [pc], #-460	; d68 <_start-0x7298>
     f30:	672f6269 	strvs	r6, [pc, -r9, ror #4]!
     f34:	612f6363 			; <UNDEFINED> instruction: 0x612f6363
     f38:	6e2d6d72 	mcrvs	13, 1, r6, cr13, cr2, {3}
     f3c:	2d656e6f 	stclcs	14, cr6, [r5, #-444]!	; 0xfffffe44
     f40:	69626165 	stmdbvs	r2!, {r0, r2, r5, r6, r8, sp, lr}^
     f44:	332e362f 			; <UNDEFINED> instruction: 0x332e362f
     f48:	692f312e 	stmdbvs	pc!, {r1, r2, r3, r5, r8, ip, sp}	; <UNPREDICTABLE>
     f4c:	756c636e 	strbvc	r6, [ip, #-878]!	; 0xfffffc92
     f50:	2f006564 	svccs	0x00006564
     f54:	656d6f68 	strbvs	r6, [sp, #-3944]!	; 0xfffff098
     f58:	676e652f 	strbvs	r6, [lr, -pc, lsr #10]!
     f5c:	2f72656c 	svccs	0x0072656c
     f60:	73616c63 	cmnvc	r1, #25344	; 0x6300
     f64:	73632f73 	cmnvc	r3, #460	; 0x1cc
     f68:	6c303432 	cfldrsvs	mvf3, [r0], #-200	; 0xffffff38
     f6c:	30322d78 	eorscc	r2, r2, r8, ror sp
     f70:	2f727073 	svccs	0x00727073
     f74:	62696c2f 	rsbvs	r6, r9, #12032	; 0x2f00
     f78:	2f006970 	svccs	0x00006970
     f7c:	656d6f68 	strbvs	r6, [sp, #-3944]!	; 0xfffff098
     f80:	676e652f 	strbvs	r6, [lr, -pc, lsr #10]!
     f84:	2f72656c 	svccs	0x0072656c
     f88:	73616c63 	cmnvc	r1, #25344	; 0x6300
     f8c:	73632f73 	cmnvc	r3, #460	; 0x1cc
     f90:	6c303432 	cfldrsvs	mvf3, [r0], #-200	; 0xffffff38
     f94:	30322d78 	eorscc	r2, r2, r8, ror sp
     f98:	2f727073 	svccs	0x00727073
     f9c:	62696c2f 	rsbvs	r6, r9, #12032	; 0x2f00
     fa0:	732f6970 			; <UNDEFINED> instruction: 0x732f6970
     fa4:	66666174 			; <UNDEFINED> instruction: 0x66666174
     fa8:	6372732d 	cmnvs	r2, #-1275068416	; 0xb4000000
     fac:	70670000 	rsbvc	r0, r7, r0
     fb0:	632e6f69 			; <UNDEFINED> instruction: 0x632e6f69
     fb4:	00000000 	andeq	r0, r0, r0
     fb8:	6b636f6c 	blvs	18dcd70 <__bss_end__+0x18d2d48>
     fbc:	0100682e 	tsteq	r0, lr, lsr #16
     fc0:	745f0000 	ldrbvc	r0, [pc], #-0	; fc8 <_start-0x7038>
     fc4:	73657079 	cmnvc	r5, #121	; 0x79
     fc8:	0100682e 	tsteq	r0, lr, lsr #16
     fcc:	74730000 	ldrbtvc	r0, [r3], #-0
     fd0:	66656464 	strbtvs	r6, [r5], -r4, ror #8
     fd4:	0200682e 	andeq	r6, r0, #3014656	; 0x2e0000
     fd8:	65720000 	ldrbvs	r0, [r2, #-0]!
     fdc:	2e746e65 	cdpcs	14, 7, cr6, cr4, cr5, {3}
     fe0:	00010068 	andeq	r0, r1, r8, rrx
     fe4:	69707200 	ldmdbvs	r0!, {r9, ip, sp, lr}^
     fe8:	0300682e 	movweq	r6, #2094	; 0x82e
     fec:	70670000 	rsbvc	r0, r7, r0
     ff0:	682e6f69 	stmdavs	lr!, {r0, r3, r5, r6, r8, r9, sl, fp, sp, lr}
     ff4:	00000400 	andeq	r0, r0, r0, lsl #8
     ff8:	02050000 	andeq	r0, r5, #0
     ffc:	00009390 	muleq	r0, r0, r3
    1000:	13012703 	movwne	r2, #5891	; 0x1703
    1004:	f44f474c 	vst1.16	{d20}, [pc], ip
    1008:	a14c4b68 	cmpge	ip, r8, ror #22
    100c:	49136a2f 	ldmdbmi	r3, {r0, r1, r2, r3, r5, r9, fp, sp, lr}
    1010:	4913be31 	ldmdbmi	r3, {r0, r4, r5, r9, sl, fp, ip, sp, pc}
    1014:	6a2fbe31 	bvs	bf08e0 <__bss_end__+0xbe68b8>
    1018:	4f484d2f 	svcmi	0x00484d2f
    101c:	2f324913 	svccs	0x00324913
    1020:	000602b7 			; <UNDEFINED> instruction: 0x000602b7
    1024:	01340101 	teqeq	r4, r1, lsl #2
    1028:	00020000 	andeq	r0, r2, r0
    102c:	000000df 	ldrdeq	r0, [r0], -pc	; <UNPREDICTABLE>
    1030:	0efb0102 	cdpeq	1, 15, cr0, cr11, cr2, {0}
    1034:	0101000d 	tsteq	r1, sp
    1038:	00000101 	andeq	r0, r0, r1, lsl #2
    103c:	00000100 	andeq	r0, r0, r0, lsl #2
    1040:	73752f01 	cmnvc	r5, #1, 30
    1044:	6e692f72 	mcrvs	15, 3, r2, cr9, cr2, {3}
    1048:	64756c63 	ldrbtvs	r6, [r5], #-3171	; 0xfffff39d
    104c:	656e2f65 	strbvs	r2, [lr, #-3941]!	; 0xfffff09b
    1050:	62696c77 	rsbvs	r6, r9, #30464	; 0x7700
    1054:	7379732f 	cmnvc	r9, #-1140850688	; 0xbc000000
    1058:	73752f00 	cmnvc	r5, #0, 30
    105c:	696c2f72 	stmdbvs	ip!, {r1, r4, r5, r6, r8, r9, sl, fp, sp}^
    1060:	63672f62 	cmnvs	r7, #392	; 0x188
    1064:	72612f63 	rsbvc	r2, r1, #396	; 0x18c
    1068:	6f6e2d6d 	svcvs	0x006e2d6d
    106c:	652d656e 	strvs	r6, [sp, #-1390]!	; 0xfffffa92
    1070:	2f696261 	svccs	0x00696261
    1074:	2e332e36 	mrccs	14, 1, r2, cr3, cr6, {1}
    1078:	6e692f31 	mcrvs	15, 3, r2, cr9, cr1, {1}
    107c:	64756c63 	ldrbtvs	r6, [r5], #-3171	; 0xfffff39d
    1080:	682f0065 	stmdavs	pc!, {r0, r2, r5, r6}	; <UNPREDICTABLE>
    1084:	2f656d6f 	svccs	0x00656d6f
    1088:	6c676e65 	stclvs	14, cr6, [r7], #-404	; 0xfffffe6c
    108c:	632f7265 			; <UNDEFINED> instruction: 0x632f7265
    1090:	7373616c 	cmnvc	r3, #108, 2
    1094:	3273632f 	rsbscc	r6, r3, #-1140850688	; 0xbc000000
    1098:	786c3034 	stmdavc	ip!, {r2, r4, r5, ip, sp}^
    109c:	7330322d 	teqvc	r0, #-805306366	; 0xd0000002
    10a0:	2f2f7270 	svccs	0x002f7270
    10a4:	7062696c 	rsbvc	r6, r2, ip, ror #18
    10a8:	752f0069 	strvc	r0, [pc, #-105]!	; 1047 <_start-0x6fb9>
    10ac:	692f7273 	stmdbvs	pc!, {r0, r1, r4, r5, r6, r9, ip, sp, lr}	; <UNPREDICTABLE>
    10b0:	756c636e 	strbvc	r6, [ip, #-878]!	; 0xfffffc92
    10b4:	6e2f6564 	cfsh64vs	mvdx6, mvdx15, #52
    10b8:	696c7765 	stmdbvs	ip!, {r0, r2, r5, r6, r8, r9, sl, ip, sp, lr}^
    10bc:	6b000062 	blvs	124c <_start-0x6db4>
    10c0:	6c6c616d 	stfvse	f6, [ip], #-436	; 0xfffffe4c
    10c4:	632e636f 			; <UNDEFINED> instruction: 0x632e636f
    10c8:	00000000 	andeq	r0, r0, r0
    10cc:	6b636f6c 	blvs	18dce84 <__bss_end__+0x18d2e5c>
    10d0:	0100682e 	tsteq	r0, lr, lsr #16
    10d4:	745f0000 	ldrbvc	r0, [pc], #-0	; 10dc <_start-0x6f24>
    10d8:	73657079 	cmnvc	r5, #121	; 0x79
    10dc:	0100682e 	tsteq	r0, lr, lsr #16
    10e0:	74730000 	ldrbtvc	r0, [r3], #-0
    10e4:	66656464 	strbtvs	r6, [r5], -r4, ror #8
    10e8:	0200682e 	andeq	r6, r0, #3014656	; 0x2e0000
    10ec:	65720000 	ldrbvs	r0, [r2, #-0]!
    10f0:	2e746e65 	cdpcs	14, 7, cr6, cr4, cr5, {3}
    10f4:	00010068 	andeq	r0, r1, r8, rrx
    10f8:	69707200 	ldmdbvs	r0!, {r9, ip, sp, lr}^
    10fc:	0300682e 	movweq	r6, #2094	; 0x82e
    1100:	74730000 	ldrbtvc	r0, [r3], #-0
    1104:	676e6972 			; <UNDEFINED> instruction: 0x676e6972
    1108:	0400682e 	streq	r6, [r0], #-2094	; 0xfffff7d2
    110c:	00000000 	andeq	r0, r0, r0
    1110:	94b00205 	ldrtls	r0, [r0], #517	; 0x205
    1114:	10030000 	andne	r0, r3, r0
    1118:	01830101 	orreq	r0, r3, r1, lsl #2
    111c:	00831468 	addeq	r1, r3, r8, ror #8
    1120:	7f010402 	svcvc	0x00010402
    1124:	01040200 	mrseq	r0, R12_usr
    1128:	2f5c0830 	svccs	0x005c0830
    112c:	4b4b4c4b 	blmi	12d4260 <__bss_end__+0x12ca238>
    1130:	04020068 	streq	r0, [r2], #-104	; 0xffffff98
    1134:	4a790301 	bmi	1e41d40 <__bss_end__+0x1e37d18>
    1138:	58080903 	stmdapl	r8, {r0, r1, r8, fp}
    113c:	4e2e012f 	sufmiep	f0, f6, #10.0
    1140:	674b6a2f 	strbvs	r6, [fp, -pc, lsr #20]
    1144:	002f4c67 	eoreq	r4, pc, r7, ror #24
    1148:	03010402 	movweq	r0, #5122	; 0x1402
    114c:	02002e76 	andeq	r2, r0, #1888	; 0x760
    1150:	08dc0104 	ldmeq	ip, {r2, r8}^
    1154:	9f012f7a 	svcls	0x00012f7a
    1158:	00080201 	andeq	r0, r8, r1, lsl #4
    115c:	Address 0x000000000000115c is out of bounds.


Disassembly of section .debug_str:

00000000 <.debug_str>:
   0:	6f73645f 	svcvs	0x0073645f
   4:	6e61685f 	mcrvs	8, 3, r6, cr1, cr15, {2}
   8:	00656c64 	rsbeq	r6, r5, r4, ror #24
   c:	685f6b63 	ldmdavs	pc, {r0, r1, r5, r6, r8, r9, fp, sp, lr}^	; <UNPREDICTABLE>
  10:	5f706165 	svcpl	0x00706165
  14:	6f727265 	svcvs	0x00727265
  18:	5f007372 	svcpl	0x00007372
  1c:	657a6973 	ldrbvs	r6, [sl, #-2419]!	; 0xfffff68d
  20:	61725f00 	cmnvs	r2, r0, lsl #30
  24:	3834646e 	ldmdacc	r4!, {r1, r2, r3, r5, r6, sl, sp, lr}
  28:	6d655f00 	stclvs	15, cr5, [r5, #-0]
  2c:	65677265 	strbvs	r7, [r7, #-613]!	; 0xfffffd9b
  30:	0079636e 	rsbseq	r6, r9, lr, ror #6
  34:	6d746f6e 	ldclvs	15, cr6, [r4, #-440]!	; 0xfffffe48
  38:	006e6961 	rsbeq	r6, lr, r1, ror #18
  3c:	7263775f 	rsbvc	r7, r3, #24903680	; 0x17c0000
  40:	626d6f74 	rsbvs	r6, sp, #116, 30	; 0x1d0
  44:	6174735f 	cmnvs	r4, pc, asr r3
  48:	5f006574 	svcpl	0x00006574
  4c:	72736377 	rsbsvc	r6, r3, #-603979775	; 0xdc000001
  50:	626d6f74 	rsbvs	r6, sp, #116, 30	; 0x1d0
  54:	74735f73 	ldrbtvc	r5, [r3], #-3955	; 0xfffff08d
  58:	00657461 	rsbeq	r7, r5, r1, ror #8
  5c:	676e6f6c 	strbvs	r6, [lr, -ip, ror #30]!
  60:	6e6f6c20 	cdpvs	12, 6, cr6, cr15, cr0, {1}
  64:	6e752067 	cdpvs	0, 7, cr2, cr5, cr7, {3}
  68:	6e676973 			; <UNDEFINED> instruction: 0x6e676973
  6c:	69206465 	stmdbvs	r0!, {r0, r2, r5, r6, sl, sp, lr}
  70:	6300746e 	movwvs	r7, #1134	; 0x46e
  74:	6c6c616b 	stfvse	f6, [ip], #-428	; 0xfffffe54
  78:	5f00636f 	svcpl	0x0000636f
  7c:	7366626c 	cmnvc	r6, #108, 4	; 0xc0000006
  80:	00657a69 	rsbeq	r7, r5, r9, ror #20
  84:	72626d5f 	rsbvc	r6, r2, #6080	; 0x17c0
  88:	63776f74 	cmnvs	r7, #116, 30	; 0x1d0
  8c:	6174735f 	cmnvs	r4, pc, asr r3
  90:	5f006574 	svcpl	0x00006574
  94:	6f746377 	svcvs	0x00746377
  98:	735f626d 	cmpvc	pc, #-805306362	; 0xd0000006
  9c:	65746174 	ldrbvs	r6, [r4, #-372]!	; 0xfffffe8c
  a0:	745f5f00 	ldrbvc	r5, [pc], #-3840	; a8 <_start-0x7f58>
  a4:	65735f6d 	ldrbvs	r5, [r3, #-3949]!	; 0xfffff093
  a8:	6f6c0063 	svcvs	0x006c0063
  ac:	6c20676e 	stcvs	7, cr6, [r0], #-440	; 0xfffffe48
  b0:	20676e6f 	rsbcs	r6, r7, pc, ror #28
  b4:	00746e69 	rsbseq	r6, r4, r9, ror #28
  b8:	7562755f 	strbvc	r7, [r2, #-1375]!	; 0xfffffaa1
  bc:	625f0066 	subsvs	r0, pc, #102	; 0x66
  c0:	00657361 	rsbeq	r7, r5, r1, ror #6
  c4:	6d745f5f 	ldclvs	15, cr5, [r4, #-380]!	; 0xfffffe84
  c8:	756f685f 	strbvc	r6, [pc, #-2143]!	; fffff871 <__bss_end__+0xffff5849>
  cc:	682f0072 	stmdavs	pc!, {r1, r4, r5, r6}	; <UNPREDICTABLE>
  d0:	2f656d6f 	svccs	0x00656d6f
  d4:	72657375 	rsbvc	r7, r5, #-738197503	; 0xd4000001
  d8:	7665442f 	strbtvc	r4, [r5], -pc, lsr #8
  dc:	3253432f 	subscc	r4, r3, #-1140850688	; 0xbc000000
  e0:	2f583034 	svccs	0x00583034
  e4:	7362616c 	cmnvc	r2, #108, 2
  e8:	2d30312f 	ldfcss	f3, [r0, #-188]!	; 0xffffff44
  ec:	636d656d 	cmnvs	sp, #457179136	; 0x1b400000
  f0:	6b636568 	blvs	18d9698 <__bss_end__+0x18cf670>
  f4:	6174732d 	cmnvs	r4, sp, lsr #6
  f8:	6f632f74 	svcvs	0x00632f74
  fc:	5f006564 	svcpl	0x00006564
 100:	0066735f 	rsbeq	r7, r6, pc, asr r3
 104:	5f6e6f5f 	svcpl	0x006e6f5f
 108:	74697865 	strbtvc	r7, [r9], #-2149	; 0xfffff79b
 10c:	6772615f 			; <UNDEFINED> instruction: 0x6772615f
 110:	635f0073 	cmpvs	pc, #115	; 0x73
 114:	696b6f6f 	stmdbvs	fp!, {r0, r1, r2, r3, r5, r6, r8, r9, sl, fp, sp, lr}^
 118:	5f5f0065 	svcpl	0x005f0065
 11c:	756c6773 	strbvc	r6, [ip, #-1907]!	; 0xfffff88d
 120:	665f0065 	ldrbvs	r0, [pc], -r5, rrx
 124:	7367616c 	cmnvc	r7, #108, 2
 128:	73695f00 	cmnvc	r9, #0, 30
 12c:	6178635f 	cmnvs	r8, pc, asr r3
 130:	74735f00 	ldrbtvc	r5, [r3], #-3840	; 0xfffff100
 134:	006e6964 	rsbeq	r6, lr, r4, ror #18
 138:	695f6b63 	ldmdbvs	pc, {r0, r1, r5, r6, r8, r9, fp, sp, lr}^	; <UNPREDICTABLE>
 13c:	0074696e 	rsbseq	r6, r4, lr, ror #18
 140:	6b6c625f 	blvs	1b18ac4 <__bss_end__+0x1b0ea9c>
 144:	657a6973 	ldrbvs	r6, [sl, #-2419]!	; 0xfffff68d
 148:	76635f00 	strbtvc	r5, [r3], -r0, lsl #30
 14c:	66756274 			; <UNDEFINED> instruction: 0x66756274
 150:	666f5f00 	strbtvs	r5, [pc], -r0, lsl #30
 154:	74657366 	strbtvc	r7, [r5], #-870	; 0xfffffc9a
 158:	616d6b00 	cmnvs	sp, r0, lsl #22
 15c:	636f6c6c 	cmnvs	pc, #108, 24	; 0x6c00
 160:	696e695f 	stmdbvs	lr!, {r0, r1, r2, r3, r4, r6, r8, fp, sp, lr}^
 164:	65735f74 	ldrbvs	r5, [r3, #-3956]!	; 0xfffff08c
 168:	74735f74 	ldrbtvc	r5, [r3], #-3956	; 0xfffff08c
 16c:	00747261 	rsbseq	r7, r4, r1, ror #4
 170:	73626d5f 	cmnvc	r2, #6080	; 0x17c0
 174:	776f7472 			; <UNDEFINED> instruction: 0x776f7472
 178:	735f7363 	cmpvc	pc, #-1946157055	; 0x8c000001
 17c:	65746174 	ldrbvs	r6, [r4, #-372]!	; 0xfffffe8c
 180:	626d5f00 	rsbvs	r5, sp, #0, 30
 184:	6e656c72 	mcrvs	12, 3, r6, cr5, cr2, {3}
 188:	6174735f 	cmnvs	r4, pc, asr r3
 18c:	5f006574 	svcpl	0x00006574
 190:	72616e66 	rsbvc	r6, r1, #1632	; 0x660
 194:	5f007367 	svcpl	0x00007367
 198:	00736e66 	rsbseq	r6, r3, r6, ror #28
 19c:	6769735f 			; <UNDEFINED> instruction: 0x6769735f
 1a0:	665f006e 	ldrbvs	r0, [pc], -lr, rrx
 1a4:	6b636f6c 	blvs	18dbf5c <__bss_end__+0x18d1f34>
 1a8:	5f00745f 	svcpl	0x0000745f
 1ac:	65647473 	strbvs	r7, [r4, #-1139]!	; 0xfffffb8d
 1b0:	5f007272 	svcpl	0x00007272
 1b4:	69676942 	stmdbvs	r7!, {r1, r6, r8, fp, sp, lr}^
 1b8:	5f00746e 	svcpl	0x0000746e
 1bc:	6d6d6167 	stfvse	f6, [sp, #-412]!	; 0xfffffe64
 1c0:	69735f61 	ldmdbvs	r3!, {r0, r5, r6, r8, r9, sl, fp, ip, lr}^
 1c4:	61676e67 	cmnvs	r7, r7, ror #28
 1c8:	725f006d 	subsvc	r0, pc, #109	; 0x6d
 1cc:	6c757365 	ldclvs	3, cr7, [r5], #-404	; 0xfffffe6c
 1d0:	006b5f74 	rsbeq	r5, fp, r4, ror pc
 1d4:	5f697072 	svcpl	0x00697072
 1d8:	63747570 	cmnvs	r4, #112, 10	; 0x1c000000
 1dc:	00726168 	rsbseq	r6, r2, r8, ror #2
 1e0:	6d745f5f 	ldclvs	15, cr5, [r4, #-380]!	; 0xfffffe84
 1e4:	775f5f00 	ldrbvc	r5, [pc, -r0, lsl #30]
 1e8:	00626863 	rsbeq	r6, r2, r3, ror #16
 1ec:	5f697072 	svcpl	0x00697072
 1f0:	65736572 	ldrbvs	r6, [r3, #-1394]!	; 0xfffffa8e
 1f4:	75705f74 	ldrbvc	r5, [r0, #-3956]!	; 0xfffff08c
 1f8:	5f006374 	svcpl	0x00006374
 1fc:	6f647473 	svcvs	0x00647473
 200:	5f007475 	svcpl	0x00007475
 204:	6c747663 	ldclvs	6, cr7, [r4], #-396	; 0xfffffe74
 208:	5f006e65 	svcpl	0x00006e65
 20c:	656c6966 	strbvs	r6, [ip, #-2406]!	; 0xfffff69a
 210:	465f5f00 	ldrbmi	r5, [pc], -r0, lsl #30
 214:	54434e55 	strbpl	r4, [r3], #-3669	; 0xfffff1ab
 218:	5f4e4f49 	svcpl	0x004e4f49
 21c:	6e5f005f 	mrcvs	0, 2, r0, cr15, cr15, {2}
 220:	73626f69 	cmnvc	r2, #420	; 0x1a4
 224:	6f687300 	svcvs	0x00687300
 228:	75207472 	strvc	r7, [r0, #-1138]!	; 0xfffffb8e
 22c:	6769736e 	strbvs	r7, [r9, -lr, ror #6]!
 230:	2064656e 	rsbcs	r6, r4, lr, ror #10
 234:	00746e69 	rsbseq	r6, r4, r9, ror #28
 238:	74726170 	ldrbtvc	r6, [r2], #-368	; 0xfffffe90
 23c:	65742d31 	ldrbvs	r2, [r4, #-3377]!	; 0xfffff2cf
 240:	2e317473 	mrccs	4, 1, r7, cr1, cr3, {3}
 244:	615f0063 	cmpvs	pc, r3, rrx
 248:	69786574 	ldmdbvs	r8!, {r2, r4, r5, r6, r8, sl, sp, lr}^
 24c:	5f003074 	svcpl	0x00003074
 250:	6e676973 			; <UNDEFINED> instruction: 0x6e676973
 254:	625f6c61 	subsvs	r6, pc, #24832	; 0x6100
 258:	5f006675 	svcpl	0x00006675
 25c:	74637361 	strbtvc	r7, [r3], #-865	; 0xfffffc9f
 260:	5f656d69 	svcpl	0x00656d69
 264:	00667562 	rsbeq	r7, r6, r2, ror #10
 268:	7365725f 	cmnvc	r5, #-268435451	; 0xf0000005
 26c:	00746c75 	rsbseq	r6, r4, r5, ror ip
 270:	63775f5f 	cmnvs	r7, #380	; 0x17c
 274:	69770068 	ldmdbvs	r7!, {r3, r5, r6}^
 278:	745f746e 	ldrbvc	r7, [pc], #-1134	; 280 <_start-0x7d80>
 27c:	666b6300 	strbtvs	r6, [fp], -r0, lsl #6
 280:	00656572 	rsbeq	r6, r5, r2, ror r5
 284:	636f6c5f 	cmnvs	pc, #24320	; 0x5f00
 288:	665f006b 	ldrbvs	r0, [pc], -fp, rrx
 28c:	7367616c 	cmnvc	r7, #108, 2
 290:	5f5f0032 	svcpl	0x005f0032
 294:	795f6d74 	ldmdbvc	pc, {r2, r4, r5, r6, r8, sl, fp, sp, lr}^	; <UNPREDICTABLE>
 298:	00726165 	rsbseq	r6, r2, r5, ror #2
 29c:	61656c63 	cmnvs	r5, r3, ror #24
 2a0:	65725f6e 	ldrbvs	r5, [r2, #-3950]!	; 0xfffff092
 2a4:	746f6f62 	strbtvc	r6, [pc], #-3938	; 2ac <_start-0x7d54>
 2a8:	7a697300 	bvc	1a5ceb0 <__bss_end__+0x1a52e88>
 2ac:	70797465 	rsbsvc	r7, r9, r5, ror #8
 2b0:	6e5f0065 	cdpvs	0, 5, cr0, cr15, cr5, {3}
 2b4:	66747865 	ldrbtvs	r7, [r4], -r5, ror #16
 2b8:	745f5f00 	ldrbvc	r5, [pc], #-3840	; 2c0 <_start-0x7d40>
 2bc:	6f6d5f6d 	svcvs	0x006d5f6d
 2c0:	615f006e 	cmpvs	pc, lr, rrx
 2c4:	69786574 	ldmdbvs	r8!, {r2, r4, r5, r6, r8, sl, sp, lr}^
 2c8:	5f5f0074 	svcpl	0x005f0074
 2cc:	64696473 	strbtvs	r6, [r9], #-1139	; 0xfffffb8d
 2d0:	74696e69 	strbtvc	r6, [r9], #-3689	; 0xfffff197
 2d4:	666f5f00 	strbtvs	r5, [pc], -r0, lsl #30
 2d8:	00745f66 	rsbseq	r5, r4, r6, ror #30
 2dc:	6572665f 	ldrbvs	r6, [r2, #-1631]!	; 0xfffff9a1
 2e0:	73696c65 	cmnvc	r9, #25856	; 0x6500
 2e4:	4c5f0074 	mrrcmi	0, 7, r0, pc, cr4	; <UNPREDICTABLE>
 2e8:	5f4b434f 	svcpl	0x004b434f
 2ec:	55434552 	strbpl	r4, [r3, #-1362]	; 0xfffffaae
 2f0:	56495352 			; <UNDEFINED> instruction: 0x56495352
 2f4:	00545f45 	subseq	r5, r4, r5, asr #30
 2f8:	69736e75 	ldmdbvs	r3!, {r0, r2, r4, r5, r6, r9, sl, fp, sp, lr}^
 2fc:	64656e67 	strbtvs	r6, [r5], #-3687	; 0xfffff199
 300:	61686320 	cmnvs	r8, r0, lsr #6
 304:	6e5f0072 	mrcvs	0, 2, r0, cr15, cr2, {3}
 308:	5f007765 	svcpl	0x00007765
 30c:	72655f68 	rsbvc	r5, r5, #104, 30	; 0x1a0
 310:	006f6e72 	rsbeq	r6, pc, r2, ror lr	; <UNPREDICTABLE>
 314:	726f6873 	rsbvc	r6, pc, #7536640	; 0x730000
 318:	6e692074 	mcrvs	0, 3, r2, cr9, cr4, {3}
 31c:	5f5f0074 	svcpl	0x005f0074
 320:	795f6d74 	ldmdbvc	pc, {r2, r4, r5, r6, r8, sl, fp, sp, lr}^	; <UNPREDICTABLE>
 324:	00796164 	rsbseq	r6, r9, r4, ror #2
 328:	62735f5f 	rsbsvs	r5, r3, #380	; 0x17c
 32c:	5f006675 	svcpl	0x00006675
 330:	73626f69 	cmnvc	r2, #420	; 0x1a4
 334:	465f5f00 	ldrbmi	r5, [pc], -r0, lsl #30
 338:	00454c49 	subeq	r4, r5, r9, asr #24
 33c:	73626d5f 	cmnvc	r2, #6080	; 0x17c0
 340:	65746174 	ldrbvs	r6, [r4, #-372]!	; 0xfffffe8c
 344:	5f00745f 	svcpl	0x0000745f
 348:	4946735f 	stmdbmi	r6, {r0, r1, r2, r3, r4, r6, r8, r9, ip, sp, lr}^
 34c:	5f00454c 	svcpl	0x0000454c
 350:	7473626d 	ldrbtvc	r6, [r3], #-621	; 0xfffffd93
 354:	00657461 	rsbeq	r7, r5, r1, ror #8
 358:	6e61725f 	mcrvs	2, 3, r7, cr1, cr15, {2}
 35c:	656e5f64 	strbvs	r5, [lr, #-3940]!	; 0xfffff09c
 360:	5f007478 	svcpl	0x00007478
 364:	656c626d 	strbvs	r6, [ip, #-621]!	; 0xfffffd93
 368:	74735f6e 	ldrbtvc	r5, [r3], #-3950	; 0xfffff092
 36c:	00657461 	rsbeq	r7, r5, r1, ror #8
 370:	636e695f 	cmnvs	lr, #1556480	; 0x17c000
 374:	6e695f00 	cdpvs	15, 6, cr5, cr9, cr0, {0}
 378:	635f0064 	cmpvs	pc, #100	; 0x64
 37c:	65727275 	ldrbvs	r7, [r2, #-629]!	; 0xfffffd8b
 380:	6c5f746e 	cfldrdvs	mvd7, [pc], {110}	; 0x6e
 384:	6c61636f 	stclvs	3, cr6, [r1], #-444	; 0xfffffe44
 388:	5f5f0065 	svcpl	0x005f0065
 38c:	61656c63 	cmnvs	r5, r3, ror #24
 390:	0070756e 	rsbseq	r7, r0, lr, ror #10
 394:	78616d5f 	stmdavc	r1!, {r0, r1, r2, r3, r4, r6, r8, sl, fp, sp, lr}^
 398:	00736477 	rsbseq	r6, r3, r7, ror r4
 39c:	6565725f 	strbvs	r7, [r5, #-607]!	; 0xfffffda1
 3a0:	5f00746e 	svcpl	0x0000746e
 3a4:	64656573 	strbtvs	r6, [r5], #-1395	; 0xfffffa8d
 3a8:	635f5f00 	cmpvs	pc, #0, 30
 3ac:	746e756f 	strbtvc	r7, [lr], #-1391	; 0xfffffa91
 3b0:	765f5f00 	ldrbvc	r5, [pc], -r0, lsl #30
 3b4:	65756c61 	ldrbvs	r6, [r5, #-3169]!	; 0xfffff39f
 3b8:	65735f00 	ldrbvs	r5, [r3, #-3840]!	; 0xfffff100
 3bc:	5f006b65 	svcpl	0x00006b65
 3c0:	736f7066 	cmnvc	pc, #102	; 0x66
 3c4:	5f00745f 	svcpl	0x0000745f
 3c8:	5f6d745f 	svcpl	0x006d745f
 3cc:	006e696d 	rsbeq	r6, lr, sp, ror #18
 3d0:	6c756d5f 	ldclvs	13, cr6, [r5], #-380	; 0xfffffe84
 3d4:	4e470074 	mcrmi	0, 2, r0, cr7, cr4, {3}
 3d8:	39432055 	stmdbcc	r3, {r0, r2, r4, r6, sp}^
 3dc:	2e362039 	mrccs	0, 1, r2, cr6, cr9, {1}
 3e0:	20312e33 	eorscs	r2, r1, r3, lsr lr
 3e4:	37313032 			; <UNDEFINED> instruction: 0x37313032
 3e8:	30323630 	eorscc	r3, r2, r0, lsr r6
 3ec:	636d2d20 	cmnvs	sp, #32, 26	; 0x800
 3f0:	613d7570 	teqvs	sp, r0, ror r5
 3f4:	31316d72 	teqcc	r1, r2, ror sp
 3f8:	7a6a3637 	bvc	1a8dcdc <__bss_end__+0x1a83cb4>
 3fc:	20732d66 	rsbscs	r2, r3, r6, ror #26
 400:	75746d2d 	ldrbvc	r6, [r4, #-3373]!	; 0xfffff2d3
 404:	613d656e 	teqvs	sp, lr, ror #10
 408:	31316d72 	teqcc	r1, r2, ror sp
 40c:	7a6a3637 	bvc	1a8dcf0 <__bss_end__+0x1a83cc8>
 410:	20732d66 	rsbscs	r2, r3, r6, ror #26
 414:	6467672d 	strbtvs	r6, [r7], #-1837	; 0xfffff8d3
 418:	4f2d2062 	svcmi	0x002d2062
 41c:	732d2067 			; <UNDEFINED> instruction: 0x732d2067
 420:	673d6474 			; <UNDEFINED> instruction: 0x673d6474
 424:	3939756e 	ldmdbcc	r9!, {r1, r2, r3, r5, r6, r8, sl, ip, sp, lr}
 428:	66662d20 	strbtvs	r2, [r6], -r0, lsr #26
 42c:	73656572 	cmnvc	r5, #478150656	; 0x1c800000
 430:	646e6174 	strbtvs	r6, [lr], #-372	; 0xfffffe8c
 434:	00676e69 	rsbeq	r6, r7, r9, ror #28
 438:	7274735f 	rsbsvc	r7, r4, #2080374785	; 0x7c000001
 43c:	5f6b6f74 	svcpl	0x006b6f74
 440:	7473616c 	ldrbtvc	r6, [r3], #-364	; 0xfffffe94
 444:	6e665f00 	cdpvs	15, 6, cr5, cr6, cr0, {0}
 448:	65707974 	ldrbvs	r7, [r0, #-2420]!	; 0xfffff68c
 44c:	615f0073 	cmpvs	pc, r3, ror r0	; <UNPREDICTABLE>
 450:	5f006464 	svcpl	0x00006464
 454:	6f4c555f 	svcvs	0x004c555f
 458:	5f00676e 	svcpl	0x0000676e
 45c:	64746567 	ldrbtvs	r6, [r4], #-1383	; 0xfffffa99
 460:	5f657461 	svcpl	0x00657461
 464:	00727265 	rsbseq	r7, r2, r5, ror #4
 468:	6f6c675f 	svcvs	0x006c675f
 46c:	5f6c6162 	svcpl	0x006c6162
 470:	75706d69 	ldrbvc	r6, [r0, #-3433]!	; 0xfffff297
 474:	705f6572 	subsvc	r6, pc, r2, ror r5	; <UNPREDICTABLE>
 478:	5f007274 	svcpl	0x00007274
 47c:	72727563 	rsbsvc	r7, r2, #415236096	; 0x18c00000
 480:	5f746e65 	svcpl	0x00746e65
 484:	65746163 	ldrbvs	r6, [r4, #-355]!	; 0xfffffe9d
 488:	79726f67 	ldmdbvc	r2!, {r0, r1, r2, r5, r6, r8, r9, sl, fp, sp, lr}^
 48c:	6d656d00 	stclvs	13, cr6, [r5, #-0]
 490:	00746573 	rsbseq	r6, r4, r3, ror r5
 494:	756e755f 	strbvc	r7, [lr, #-1375]!	; 0xfffffaa1
 498:	5f646573 	svcpl	0x00646573
 49c:	646e6172 	strbtvs	r6, [lr], #-370	; 0xfffffe8e
 4a0:	64775f00 	ldrbtvs	r5, [r7], #-3840	; 0xfffff100
 4a4:	5f5f0073 	svcpl	0x005f0073
 4a8:	775f6d74 			; <UNDEFINED> instruction: 0x775f6d74
 4ac:	00796164 	rsbseq	r6, r9, r4, ror #2
 4b0:	756c675f 	strbvc	r6, [ip, #-1887]!	; 0xfffff8a1
 4b4:	6e5f0065 	cdpvs	0, 5, cr0, cr15, cr5, {3}
 4b8:	6c6c616d 	stfvse	f6, [ip], #-436	; 0xfffffe4c
 4bc:	5f00636f 	svcpl	0x0000636f
 4c0:	6134366c 	teqvs	r4, ip, ror #12
 4c4:	6675625f 			; <UNDEFINED> instruction: 0x6675625f
 4c8:	69735f00 	ldmdbvs	r3!, {r8, r9, sl, fp, ip, lr}^
 4cc:	75665f67 	strbvc	r5, [r6, #-3943]!	; 0xfffff099
 4d0:	6b00636e 	blvs	19290 <__bss_end__+0xf268>
 4d4:	6c6c616d 	stfvse	f6, [ip], #-436	; 0xfffffe4c
 4d8:	5f00636f 	svcpl	0x0000636f
 4dc:	6675626e 	ldrbtvs	r6, [r5], -lr, ror #4
 4e0:	6e755f00 	cdpvs	15, 7, cr5, cr5, cr0, {0}
 4e4:	64657375 	strbtvs	r7, [r5], #-885	; 0xfffffc8b
 4e8:	745f5f00 	ldrbvc	r5, [pc], #-3840	; 4f0 <_start-0x7b10>
 4ec:	73695f6d 	cmnvc	r9, #436	; 0x1b4
 4f0:	00747364 	rsbseq	r7, r4, r4, ror #6
 4f4:	636f6c5f 	cmnvs	pc, #24320	; 0x5f00
 4f8:	69746c61 	ldmdbvs	r4!, {r0, r5, r6, sl, fp, sp, lr}^
 4fc:	625f656d 	subsvs	r6, pc, #457179136	; 0x1b400000
 500:	5f006675 	svcpl	0x00006675
 504:	736f6c63 	cmnvc	pc, #25344	; 0x6300
 508:	725f0065 	subsvc	r0, pc, #101	; 0x65
 50c:	5f003834 	svcpl	0x00003834
 510:	6f74626d 	svcvs	0x0074626d
 514:	735f6377 	cmpvc	pc, #-603979775	; 0xdc000001
 518:	65746174 	ldrbvs	r6, [r4, #-372]!	; 0xfffffe8c
 51c:	35705f00 	ldrbcc	r5, [r0, #-3840]!	; 0xfffff100
 520:	5f5f0073 	svcpl	0x005f0073
 524:	6d5f6d74 	ldclvs	13, cr6, [pc, #-464]	; 35c <_start-0x7ca4>
 528:	00796164 	rsbseq	r6, r9, r4, ror #2
 52c:	64646170 	strbtvs	r6, [r4], #-368	; 0xfffffe90
 530:	00676e69 	rsbeq	r6, r7, r9, ror #28
 534:	656e696c 	strbvs	r6, [lr, #-2412]!	; 0xfffff694
 538:	70006f6e 	andvc	r6, r0, lr, ror #30
 53c:	00766572 	rsbseq	r6, r6, r2, ror r5
 540:	74736166 	ldrbtvc	r6, [r3], #-358	; 0xfffffe9a
 544:	7361685f 	cmnvc	r1, #6225920	; 0x5f0000
 548:	72660068 	rsbvc	r0, r6, #104	; 0x68
 54c:	6c5f6565 	cfldr64vs	mvdx6, [pc], {101}	; 0x65
 550:	6200636f 	andvs	r6, r0, #-1140850687	; 0xbc000001
 554:	317a725f 	cmncc	sl, pc, asr r2
 558:	7274705f 	rsbsvc	r7, r4, #95	; 0x5f
 55c:	45524600 	ldrbmi	r4, [r2, #-1536]	; 0xfffffa00
 560:	41004445 	tstmi	r0, r5, asr #8
 564:	434f4c4c 	movtmi	r4, #64588	; 0xfc4c
 568:	72004445 	andvc	r4, r0, #1157627904	; 0x45000000
 56c:	5f736665 	svcpl	0x00736665
 570:	6464696d 	strbtvs	r6, [r4], #-2413	; 0xfffff693
 574:	7200656c 	andvc	r6, r0, #108, 10	; 0x1b000000
 578:	5f736665 	svcpl	0x00736665
 57c:	72617473 	rsbvc	r7, r1, #1929379840	; 0x73000000
 580:	6c610074 	stclvs	0, cr0, [r1], #-464	; 0xfffffe30
 584:	65636f6c 	strbvs	r6, [r3, #-3948]!	; 0xfffff094
 588:	564f0064 	strbpl	r0, [pc], -r4, rrx
 58c:	45485245 	strbmi	r5, [r8, #-581]	; 0xfffffdbb
 590:	4e5f4441 	cdpmi	4, 5, cr4, cr15, cr1, {2}
 594:	45545942 	ldrbmi	r5, [r4, #-2370]	; 0xfffff6be
 598:	45520053 	ldrbmi	r0, [r2, #-83]	; 0xffffffad
 59c:	4e4f5a44 	vmlsmi.f32	s11, s30, s8
 5a0:	4c410045 	mcrrmi	0, 4, r0, r1, cr5
 5a4:	5f434f4c 	svcpl	0x00434f4c
 5a8:	5346464f 	movtpl	r4, #26191	; 0x664f
 5ac:	6d005445 	cfstrsvs	mvf5, [r0, #-276]	; 0xfffffeec
 5b0:	5f6b7261 	svcpl	0x006b7261
 5b4:	006d656d 	rsbeq	r6, sp, sp, ror #10
 5b8:	64615f62 	strbtvs	r5, [r1], #-3938	; 0xfffff09e
 5bc:	745f7264 	ldrbvc	r7, [pc], #-612	; 5c4 <_start-0x7a3c>
 5c0:	64685f6f 	strbtvs	r5, [r8], #-3951	; 0xfffff091
 5c4:	6b630072 	blvs	18c0794 <__bss_end__+0x18b676c>
 5c8:	6f6c6c61 	svcvs	0x006c6c61
 5cc:	00632e63 	rsbeq	r2, r3, r3, ror #28
 5d0:	7366666f 	cmnvc	r6, #116391936	; 0x6f00000
 5d4:	6c6c6100 	stfvse	f6, [ip], #-0
 5d8:	6c5f636f 	mrrcvs	3, 6, r6, pc, cr15	; <UNPREDICTABLE>
 5dc:	6800636f 	stmdavs	r0, {r0, r1, r2, r3, r5, r6, r8, r9, sp, lr}
 5e0:	635f7264 	cmpvs	pc, #100, 4	; 0x40000006
 5e4:	6d75736b 	ldclvs	3, cr7, [r5, #-428]!	; 0xfffffe54
 5e8:	79626e00 	stmdbvc	r2!, {r9, sl, fp, sp, lr}^
 5ec:	5f736574 	svcpl	0x00736574
 5f0:	6f6c6c61 	svcvs	0x006c6c61
 5f4:	5f620063 	svcpl	0x00620063
 5f8:	6f6c6c61 	svcvs	0x006c6c61
 5fc:	74705f63 	ldrbtvc	r5, [r0], #-3939	; 0xfffff09d
 600:	68630072 	stmdavs	r3!, {r1, r4, r5, r6}^
 604:	5f6b6365 	svcpl	0x006b6365
 608:	65657266 	strbvs	r7, [r5, #-614]!	; 0xfffffd9a
 60c:	6972775f 	ldmdbvs	r2!, {r0, r1, r2, r3, r4, r6, r8, r9, sl, ip, sp, lr}^
 610:	63006574 	movwvs	r6, #1396	; 0x574
 614:	6b636568 	blvs	18d9bbc <__bss_end__+0x18cfb94>
 618:	7264685f 	rsbvc	r6, r4, #6225920	; 0x5f0000
 61c:	725f6200 	subsvc	r6, pc, #0, 4
 620:	705f327a 	subsvc	r3, pc, sl, ror r2	; <UNPREDICTABLE>
 624:	6e007274 	mcrvs	2, 0, r7, cr0, cr4, {3}
 628:	736b6c62 	cmnvc	fp, #25088	; 0x6200
 62c:	63727300 	cmnvs	r2, #0, 6
 630:	636f6c5f 	cmnvs	pc, #24320	; 0x5f00
 634:	7500745f 	strvc	r7, [r0, #-1119]	; 0xfffffba1
 638:	33746e69 	cmncc	r4, #1680	; 0x690
 63c:	00745f32 	rsbseq	r5, r4, r2, lsr pc
 640:	7272656e 	rsbsvc	r6, r2, #461373440	; 0x1b800000
 644:	0073726f 	rsbseq	r7, r3, pc, ror #4
 648:	5f726468 	svcpl	0x00726468
 64c:	6e697270 	mcrvs	2, 3, r7, cr9, cr0, {3}
 650:	65680074 	strbvs	r0, [r8, #-116]!	; 0xffffff8c
 654:	53007061 	movwpl	r7, #97	; 0x61
 658:	49544e45 	ldmdbmi	r4, {r0, r2, r6, r9, sl, fp, lr}^
 65c:	004c414e 	subeq	r4, ip, lr, asr #2
 660:	63656863 	cmnvs	r5, #6488064	; 0x630000
 664:	6c625f6b 	stclvs	15, cr5, [r2], #-428	; 0xfffffe54
 668:	006b636f 	rsbeq	r6, fp, pc, ror #6
 66c:	7a725f62 	bvc	1c983fc <__bss_end__+0x1c8e3d4>
 670:	626e5f32 	rsbvs	r5, lr, #50, 30	; 0xc8
 674:	73657479 	cmnvc	r5, #2030043136	; 0x79000000
 678:	6e697500 	cdpvs	5, 6, cr7, cr9, cr0, {0}
 67c:	745f3874 	ldrbvc	r3, [pc], #-2164	; 684 <_start-0x797c>
 680:	72646800 	rsbvc	r6, r4, #0, 16
 684:	6e00745f 	cfmvsrvs	mvf0, r7
 688:	65747962 	ldrbvs	r7, [r4, #-2402]!	; 0xfffff69e
 68c:	65725f73 	ldrbvs	r5, [r2, #-3955]!	; 0xfffff08d
 690:	656c006d 	strbvs	r0, [ip, #-109]!	; 0xffffff93
 694:	63007466 	movwvs	r7, #1126	; 0x466
 698:	6b636568 	blvs	18d9c40 <__bss_end__+0x18cfc18>
 69c:	6d656d5f 	stclvs	13, cr6, [r5, #-380]!	; 0xfffffe84
 6a0:	61656800 	cmnvs	r5, r0, lsl #16
 6a4:	00726564 	rsbseq	r6, r2, r4, ror #10
 6a8:	61765f5f 	cmnvs	r6, pc, asr pc
 6ac:	73696c5f 	cmnvc	r9, #24320	; 0x5f00
 6b0:	61760074 	cmnvs	r6, r4, ror r0
 6b4:	6972705f 	ldmdbvs	r2!, {r0, r1, r2, r3, r4, r6, ip, sp, lr}^
 6b8:	006b746e 	rsbeq	r7, fp, lr, ror #8
 6bc:	6e675f5f 	mcrvs	15, 3, r5, cr7, cr15, {2}
 6c0:	765f6375 			; <UNDEFINED> instruction: 0x765f6375
 6c4:	696c5f61 	stmdbvs	ip!, {r0, r5, r6, r8, r9, sl, fp, ip, lr}^
 6c8:	5f007473 	svcpl	0x00007473
 6cc:	0070615f 	rsbseq	r6, r0, pc, asr r1
 6d0:	6362696c 	cmnvs	r2, #108, 18	; 0x1b0000
 6d4:	6972702f 	ldmdbvs	r2!, {r0, r1, r2, r3, r5, ip, sp, lr}^
 6d8:	2e6b746e 	cdpcs	4, 6, cr7, cr11, cr14, {3}
 6dc:	682f0063 	stmdavs	pc!, {r0, r1, r5, r6}	; <UNPREDICTABLE>
 6e0:	2f656d6f 	svccs	0x00656d6f
 6e4:	72657375 	rsbvc	r7, r5, #-738197503	; 0xd4000001
 6e8:	7665442f 	strbtvc	r4, [r5], -pc, lsr #8
 6ec:	3253432f 	subscc	r4, r3, #-1140850688	; 0xbc000000
 6f0:	2f583034 	svccs	0x00583034
 6f4:	7062696c 	rsbvc	r6, r2, ip, ror #18
 6f8:	696c0069 	stmdbvs	ip!, {r0, r3, r5, r6}^
 6fc:	762f6362 	strtvc	r6, [pc], -r2, ror #6
 700:	72702d61 	rsbsvc	r2, r0, #6208	; 0x1840
 704:	6b746e69 	blvs	1d1c0b0 <__bss_end__+0x1d12088>
 708:	7200632e 	andvc	r6, r0, #-1207959552	; 0xb8000000
 70c:	735f6970 	cmpvc	pc, #112, 18	; 0x1c0000
 710:	6f5f7465 	svcvs	0x005f7465
 714:	75707475 	ldrbvc	r7, [r0, #-1141]!	; 0xfffffb8b
 718:	69730074 	ldmdbvs	r3!, {r2, r4, r5, r6}^
 71c:	64656e67 	strbtvs	r6, [r5], #-3687	; 0xfffff199
 720:	7200705f 	andvc	r7, r0, #95	; 0x5f
 724:	72657665 	rsbvc	r7, r5, #105906176	; 0x6500000
 728:	77006573 	smlsdxvc	r0, r3, r5, r6
 72c:	68746469 	ldmdavs	r4!, {r0, r3, r5, r6, sl, sp, lr}^
 730:	74757000 	ldrbtvc	r7, [r5], #-0
 734:	70665f73 	rsbvc	r5, r6, r3, ror pc
 738:	67656e00 	strbvs	r6, [r5, -r0, lsl #28]!
 73c:	7000705f 	andvc	r7, r0, pc, asr r0
 740:	5f637475 	svcpl	0x00637475
 744:	69007066 	stmdbvs	r0, {r1, r2, r5, r6, ip, sp, lr}
 748:	67696473 			; <UNDEFINED> instruction: 0x67696473
 74c:	65007469 	strvs	r7, [r0, #-1129]	; 0xfffffb97
 750:	0074696d 	rsbseq	r6, r4, sp, ror #18
 754:	6362696c 	cmnvs	r2, #108, 18	; 0x1b0000
 758:	7361682f 	cmnvc	r1, #3080192	; 0x2f0000
 75c:	00632e68 	rsbeq	r2, r3, r8, ror #28
 760:	65746e69 	ldrbvs	r6, [r4, #-3689]!	; 0xfffff197
 764:	6c616e72 	stclvs	14, cr6, [r1], #-456	; 0xfffffe38
 768:	7475705f 	ldrbtvc	r7, [r5], #-95	; 0xffffffa1
 76c:	696c006b 	stmdbvs	ip!, {r0, r1, r3, r5, r6}^
 770:	702f6362 	eorvc	r6, pc, r2, ror #6
 774:	2e6b7475 	mcrcs	4, 3, r7, cr11, cr5, {3}
 778:	70720063 	rsbsvc	r0, r2, r3, rrx
 77c:	65735f69 	ldrbvs	r5, [r3, #-3945]!	; 0xfffff097
 780:	75705f74 	ldrbvc	r5, [r0, #-3956]!	; 0xfffff08c
 784:	75006374 	strvc	r6, [r0, #-884]	; 0xfffffc8c
 788:	5f747261 	svcpl	0x00747261
 78c:	63747570 	cmnvs	r4, #112, 10	; 0x1c000000
 790:	746e6900 	strbtvc	r6, [lr], #-2304	; 0xfffff700
 794:	616e7265 	cmnvs	lr, r5, ror #4
 798:	75705f6c 	ldrbvc	r5, [r0, #-3948]!	; 0xfffff094
 79c:	61686374 	smcvs	34356	; 0x8634
 7a0:	696c0072 	stmdbvs	ip!, {r1, r4, r5, r6}^
 7a4:	702f6362 	eorvc	r6, pc, r2, ror #6
 7a8:	68637475 	stmdavs	r3!, {r0, r2, r4, r5, r6, sl, ip, sp, lr}^
 7ac:	632e7261 			; <UNDEFINED> instruction: 0x632e7261
 7b0:	7a697300 	bvc	1a5d3b8 <__bss_end__+0x1a53390>
 7b4:	00745f65 	rsbseq	r5, r4, r5, ror #30
 7b8:	6362696c 	cmnvs	r2, #108, 18	; 0x1b0000
 7bc:	6d656d2f 	stclvs	13, cr6, [r5, #-188]!	; 0xffffff44
 7c0:	2e746573 	mrccs	5, 3, r6, cr4, cr3, {3}
 7c4:	74730063 	ldrbtvc	r0, [r3], #-99	; 0xffffff9d
 7c8:	2d666661 	stclcs	6, cr6, [r6, #-388]!	; 0xfffffe7c
 7cc:	2f637273 	svccs	0x00637273
 7d0:	61747363 	cmnvs	r4, r3, ror #6
 7d4:	632e7472 			; <UNDEFINED> instruction: 0x632e7472
 7d8:	73635f00 	cmnvc	r3, #0, 30
 7dc:	74726174 	ldrbtvc	r6, [r2], #-372	; 0xfffffe8c
 7e0:	73736200 	cmnvc	r3, #0, 4
 7e4:	646e655f 	strbtvs	r6, [lr], #-1375	; 0xfffffaa1
 7e8:	625f5f00 	subsvs	r5, pc, #0, 30
 7ec:	735f7373 	cmpvc	pc, #-872415231	; 0xcc000001
 7f0:	74726174 	ldrbtvc	r6, [r2], #-372	; 0xfffffe8c
 7f4:	5f005f5f 	svcpl	0x00005f5f
 7f8:	7373625f 	cmnvc	r3, #-268435451	; 0xf0000005
 7fc:	646e655f 	strbtvs	r6, [lr], #-1375	; 0xfffffaa1
 800:	50005f5f 	andpl	r5, r0, pc, asr pc
 804:	53525f4d 	cmppl	r2, #308	; 0x134
 808:	50004354 	andpl	r4, r0, r4, asr r3
 80c:	32335455 	eorscc	r5, r3, #1426063360	; 0x55000000
 810:	5f4d5000 	svcpl	0x004d5000
 814:	43545352 	cmpmi	r4, #1207959553	; 0x48000001
 818:	4352575f 	cmpmi	r2, #24903680	; 0x17c0000
 81c:	465f4746 	ldrbmi	r4, [pc], -r6, asr #14
 820:	5f4c4c55 	svcpl	0x004c4c55
 824:	45534552 	ldrbmi	r4, [r3, #-1362]	; 0xfffffaae
 828:	4d500054 	ldclmi	0, cr0, [r0, #-336]	; 0xfffffeb0
 82c:	4f44575f 	svcmi	0x0044575f
 830:	70630047 	rsbvc	r0, r3, r7, asr #32
 834:	50007273 	andpl	r7, r0, r3, ror r2
 838:	41505f4d 	cmpmi	r0, sp, asr #30
 83c:	4f575353 	svcmi	0x00575353
 840:	64004452 	strvs	r4, [r0], #-1106	; 0xfffffbae
 844:	79616c65 	stmdbvc	r1!, {r0, r2, r5, r6, sl, fp, sp, lr}^
 848:	00736d5f 	rsbseq	r6, r3, pc, asr sp
 84c:	5f697072 	svcpl	0x00697072
 850:	6f626572 	svcvs	0x00626572
 854:	7300746f 	movwvc	r7, #1135	; 0x46f
 858:	66666174 			; <UNDEFINED> instruction: 0x66666174
 85c:	6372732d 	cmnvs	r2, #-1275068416	; 0xb4000000
 860:	6265722f 	rsbvs	r7, r5, #-268435454	; 0xf0000002
 864:	2e746f6f 	cdpcs	15, 7, cr6, cr4, cr15, {3}
 868:	65730063 	ldrbvs	r0, [r3, #-99]!	; 0xffffff9d
 86c:	73755f74 	cmnvc	r5, #116, 30	; 0x1d0
 870:	6c5f7265 	lfmvs	f7, 2, [pc], {101}	; 0x65
 874:	6c657665 	stclvs	6, cr7, [r5], #-404	; 0xfffffe6c
 878:	5f746100 	svcpl	0x00746100
 87c:	72657375 	rsbvc	r7, r5, #-738197503	; 0xd4000001
 880:	76656c5f 			; <UNDEFINED> instruction: 0x76656c5f
 884:	73006c65 	movwvc	r6, #3173	; 0xc65
 888:	66666174 			; <UNDEFINED> instruction: 0x66666174
 88c:	6372732d 	cmnvs	r2, #-1275068416	; 0xb4000000
 890:	656c632f 	strbvs	r6, [ip, #-815]!	; 0xfffffcd1
 894:	722d6e61 	eorvc	r6, sp, #1552	; 0x610
 898:	6f6f6265 	svcvs	0x006f6265
 89c:	00632e74 	rsbeq	r2, r3, r4, ror lr
 8a0:	656d6974 	strbvs	r6, [sp, #-2420]!	; 0xfffff68c
 8a4:	65675f72 	strbvs	r5, [r7, #-3954]!	; 0xfffff08e
 8a8:	73755f74 	cmnvc	r5, #116, 30	; 0x1d0
 8ac:	64006365 	strvs	r6, [r0], #-869	; 0xfffffc9b
 8b0:	79616c65 	stmdbvc	r1!, {r0, r2, r5, r6, sl, fp, sp, lr}^
 8b4:	6365735f 	cmnvs	r5, #2080374785	; 0x7c000001
 8b8:	6c656400 	cfstrdvs	mvd6, [r5], #-0
 8bc:	635f7961 	cmpvs	pc, #1589248	; 0x184000
 8c0:	656c6379 	strbvs	r6, [ip, #-889]!	; 0xfffffc87
 8c4:	74730073 	ldrbtvc	r0, [r3], #-115	; 0xffffff8d
 8c8:	2d666661 	stclcs	6, cr6, [r6, #-388]!	; 0xfffffe7c
 8cc:	2f637273 	svccs	0x00637273
 8d0:	656d6974 	strbvs	r6, [sp, #-2420]!	; 0xfffff68c
 8d4:	00632e72 	rsbeq	r2, r3, r2, ror lr
 8d8:	6b636974 	blvs	18daeb0 <__bss_end__+0x18d0e88>
 8dc:	45470073 	strbmi	r0, [r7, #-115]	; 0xffffff8d
 8e0:	00323354 	eorseq	r3, r2, r4, asr r3
 8e4:	656d6974 	strbvs	r6, [sp, #-2420]!	; 0xfffff68c
 8e8:	65675f72 	strbvs	r5, [r7, #-3954]!	; 0xfffff08e
 8ec:	73755f74 	cmnvc	r5, #116, 30	; 0x1d0
 8f0:	725f6365 	subsvc	r6, pc, #-1811939327	; 0x94000001
 8f4:	64007761 	strvs	r7, [r0], #-1889	; 0xfffff89f
 8f8:	79616c65 	stmdbvc	r1!, {r0, r2, r5, r6, sl, fp, sp, lr}^
 8fc:	0073755f 	rsbseq	r7, r3, pc, asr r5
 900:	74726175 	ldrbtvc	r6, [r2], #-373	; 0xfffffe8b
 904:	696e695f 	stmdbvs	lr!, {r0, r1, r2, r3, r4, r6, r8, fp, sp, lr}^
 908:	50470074 	subpl	r0, r7, r4, ror r0
 90c:	465f4f49 	ldrbmi	r4, [pc], -r9, asr #30
 910:	5f434e55 	svcpl	0x00434e55
 914:	55504e49 	ldrbpl	r4, [r0, #-3657]	; 0xfffff1b7
 918:	74730054 	ldrbtvc	r0, [r3], #-84	; 0xffffffac
 91c:	47007461 	strmi	r7, [r0, -r1, ror #8]
 920:	5f4f4950 	svcpl	0x004f4950
 924:	434e5546 	movtmi	r5, #58694	; 0xe546
 928:	544c415f 	strbpl	r4, [ip], #-351	; 0xfffffea1
 92c:	6e630031 	mcrvs	0, 3, r0, cr3, cr1, {1}
 930:	75006c74 	strvc	r6, [r0, #-3188]	; 0xfffff38c
 934:	2e747261 	cdpcs	2, 7, cr7, cr4, cr1, {3}
 938:	75610063 	strbvc	r0, [r1, #-99]!	; 0xffffff9d
 93c:	65705f78 	ldrbvs	r5, [r0, #-3960]!	; 0xfffff088
 940:	68706972 	ldmdavs	r0!, {r1, r4, r5, r6, r8, fp, sp, lr}^
 944:	682f0073 	stmdavs	pc!, {r0, r1, r4, r5, r6}	; <UNPREDICTABLE>
 948:	2f656d6f 	svccs	0x00656d6f
 94c:	6c676e65 	stclvs	14, cr6, [r7], #-404	; 0xfffffe6c
 950:	632f7265 			; <UNDEFINED> instruction: 0x632f7265
 954:	7373616c 	cmnvc	r3, #108, 2
 958:	3273632f 	rsbscc	r6, r3, #-1140850688	; 0xbc000000
 95c:	786c3034 	stmdavc	ip!, {r2, r4, r5, ip, sp}^
 960:	7330322d 	teqvc	r0, #-805306366	; 0xd0000002
 964:	6c2f7270 	sfmvs	f7, 4, [pc], #-448	; 7ac <_start-0x7854>
 968:	69706269 	ldmdbvs	r0!, {r0, r3, r5, r6, r9, sp, lr}^
 96c:	6174732f 	cmnvs	r4, pc, lsr #6
 970:	702d6666 	eorvc	r6, sp, r6, ror #12
 974:	61766972 	cmnvs	r6, r2, ror r9
 978:	61006574 	tstvs	r0, r4, ror r5
 97c:	655f7875 	ldrbvs	r7, [pc, #-2165]	; 10f <_start-0x7ef1>
 980:	6c62616e 	stfvse	f6, [r2], #-440	; 0xfffffe48
 984:	75007365 	strvc	r7, [r0, #-869]	; 0xfffffc9b
 988:	5f747261 	svcpl	0x00747261
 98c:	5f6e6163 	svcpl	0x006e6163
 990:	63747570 	cmnvs	r4, #112, 10	; 0x1c000000
 994:	72617500 	rsbvc	r7, r1, #0, 10
 998:	65675f74 	strbvs	r5, [r7, #-3956]!	; 0xfffff08c
 99c:	64006374 	strvs	r6, [r0], #-884	; 0xfffffc8c
 9a0:	625f7665 	subsvs	r7, pc, #105906176	; 0x6500000
 9a4:	69727261 	ldmdbvs	r2!, {r0, r5, r6, r9, ip, sp, lr}^
 9a8:	47007265 	strmi	r7, [r0, -r5, ror #4]
 9ac:	5f4f4950 	svcpl	0x004f4950
 9b0:	434e5546 	movtmi	r5, #58694	; 0xe546
 9b4:	544c415f 	strbpl	r4, [ip], #-351	; 0xfffffea1
 9b8:	70670032 	rsbvc	r0, r7, r2, lsr r0
 9bc:	735f6f69 	cmpvc	pc, #420	; 0x1a4
 9c0:	665f7465 	ldrbvs	r7, [pc], -r5, ror #8
 9c4:	74636e75 	strbtvc	r6, [r3], #-3701	; 0xfffff18b
 9c8:	006e6f69 	rsbeq	r6, lr, r9, ror #30
 9cc:	74726175 	ldrbtvc	r6, [r2], #-373	; 0xfffffe8b
 9d0:	75616200 	strbvc	r6, [r1, #-512]!	; 0xfffffe00
 9d4:	63730064 	cmnvs	r3, #100	; 0x64
 9d8:	63746172 	cmnvs	r4, #-2147483620	; 0x8000001c
 9dc:	75700068 	ldrbvc	r0, [r0, #-104]!	; 0xffffff98
 9e0:	00323374 	eorseq	r3, r2, r4, ror r3
 9e4:	4f495047 	svcmi	0x00495047
 9e8:	4e55465f 	mrcmi	6, 2, r4, cr5, cr15, {2}
 9ec:	554f5f43 	strbpl	r5, [pc, #-3907]	; fffffab1 <__bss_end__+0xffff5a89>
 9f0:	54555054 	ldrbpl	r5, [r5], #-84	; 0xffffffac
 9f4:	74656700 	strbtvc	r6, [r5], #-1792	; 0xfffff900
 9f8:	75003233 	strvc	r3, [r0, #-563]	; 0xfffffdcd
 9fc:	5f747261 	svcpl	0x00747261
 a00:	5f6e6163 	svcpl	0x006e6163
 a04:	63746567 	cmnvs	r4, #432013312	; 0x19c00000
 a08:	5f726f00 	svcpl	0x00726f00
 a0c:	32336e69 	eorscc	r6, r3, #1680	; 0x690
 a10:	72617500 	rsbvc	r7, r1, #0, 10
 a14:	61685f74 	smcvs	34292	; 0x85f4
 a18:	61645f73 	smcvs	17907	; 0x45f3
 a1c:	47006174 	smlsdxmi	r0, r4, r1, r6
 a20:	5f4f4950 	svcpl	0x004f4950
 a24:	434e5546 	movtmi	r5, #58694	; 0xe546
 a28:	544c415f 	strbpl	r4, [ip], #-351	; 0xfffffea1
 a2c:	50470030 	subpl	r0, r7, r0, lsr r0
 a30:	465f4f49 	ldrbmi	r4, [pc], -r9, asr #30
 a34:	5f434e55 	svcpl	0x00434e55
 a38:	33544c41 	cmpcc	r4, #16640	; 0x4100
 a3c:	49504700 	ldmdbmi	r0, {r8, r9, sl, lr}^
 a40:	55465f4f 	strbpl	r5, [r6, #-3919]	; 0xfffff0b1
 a44:	415f434e 	cmpmi	pc, lr, asr #6
 a48:	0034544c 	eorseq	r5, r4, ip, asr #8
 a4c:	4f495047 	svcmi	0x00495047
 a50:	4e55465f 	mrcmi	6, 2, r4, cr5, cr15, {2}
 a54:	4c415f43 	mcrrmi	15, 4, r5, r1, cr3
 a58:	67003554 	smlsdvs	r0, r4, r5, r3
 a5c:	5f6f6970 	svcpl	0x006f6970
 a60:	5f746573 	svcpl	0x00746573
 a64:	0066666f 	rsbeq	r6, r6, pc, ror #12
 a68:	6b6e6162 	blvs	1b98ff8 <__bss_end__+0x1b8efd0>
 a6c:	69706700 	ldmdbvs	r0!, {r8, r9, sl, sp, lr}^
 a70:	00632e6f 	rsbeq	r2, r3, pc, ror #28
 a74:	6f697067 	svcvs	0x00697067
 a78:	6165725f 	cmnvs	r5, pc, asr r2
 a7c:	70670064 	rsbvc	r0, r7, r4, rrx
 a80:	735f6f69 	cmpvc	pc, #420	; 0x1a4
 a84:	6f5f7465 	svcvs	0x005f7465
 a88:	75707475 	ldrbvc	r7, [r0, #-1141]!	; 0xfffffb8b
 a8c:	70670074 	rsbvc	r0, r7, r4, ror r0
 a90:	775f6f69 	ldrbvc	r6, [pc, -r9, ror #30]
 a94:	65746972 	ldrbvs	r6, [r4, #-2418]!	; 0xfffff68e
 a98:	69706700 	ldmdbvs	r0!, {r8, r9, sl, sp, lr}^
 a9c:	65735f6f 	ldrbvs	r5, [r3, #-3951]!	; 0xfffff091
 aa0:	67003074 	smlsdxvs	r0, r4, r0, r3
 aa4:	5f6f6970 	svcpl	0x006f6970
 aa8:	3076656c 	rsbscc	r6, r6, ip, ror #10
 aac:	69706700 	ldmdbvs	r0!, {r8, r9, sl, sp, lr}^
 ab0:	65735f6f 	ldrbvs	r5, [r3, #-3951]!	; 0xfffff091
 ab4:	6e695f74 	mcrvs	15, 3, r5, cr9, cr4, {3}
 ab8:	00747570 	rsbseq	r7, r4, r0, ror r5
 abc:	6f697067 	svcvs	0x00697067
 ac0:	7465735f 	strbtvc	r7, [r5], #-863	; 0xfffffca1
 ac4:	006e6f5f 	rsbeq	r6, lr, pc, asr pc
 ac8:	6f697067 	svcvs	0x00697067
 acc:	6e75665f 	mrcvs	6, 3, r6, cr5, cr15, {2}
 ad0:	00745f63 	rsbseq	r5, r4, r3, ror #30
 ad4:	6f697067 	svcvs	0x00697067
 ad8:	726c635f 	rsbvc	r6, ip, #2080374785	; 0x7c000001
 adc:	6d6b0030 	stclvs	0, cr0, [fp, #-192]!	; 0xffffff40
 ae0:	6f6c6c61 	svcvs	0x006c6c61
 ae4:	00632e63 	rsbeq	r2, r3, r3, ror #28
 ae8:	6c616d6b 	stclvs	13, cr6, [r1], #-428	; 0xfffffe54
 aec:	5f636f6c 	svcpl	0x00636f6c
 af0:	74696e69 	strbtvc	r6, [r9], #-3689	; 0xfffff197
 af4:	616d6b00 	cmnvs	sp, r0, lsl #22
 af8:	636f6c6c 	cmnvs	pc, #108, 24	; 0x6c00
 afc:	696c615f 	stmdbvs	ip!, {r0, r1, r2, r3, r4, r6, r8, sp, lr}^
 b00:	64656e67 	strbtvs	r6, [r5], #-3687	; 0xfffff199
 b04:	756f6400 	strbvc	r6, [pc, #-1024]!	; 70c <_start-0x78f4>
 b08:	00656c62 	rsbeq	r6, r5, r2, ror #24
 b0c:	6572666b 	ldrbvs	r6, [r2, #-1643]!	; 0xfffff995
 b10:	6c615f65 	stclvs	15, cr5, [r1], #-404	; 0xfffffe6c
 b14:	666b006c 	strbtvs	r0, [fp], -ip, rrx
 b18:	5f656572 	svcpl	0x00656572
 b1c:	65746661 	ldrbvs	r6, [r4, #-1633]!	; 0xfffff99f
 b20:	6d6b0072 	stclvs	0, cr0, [fp, #-456]!	; 0xfffffe38
 b24:	6f6c6c61 	svcvs	0x006c6c61
 b28:	65685f63 	strbvs	r5, [r8, #-3939]!	; 0xfffff09d
 b2c:	705f7061 	subsvc	r7, pc, r1, rrx
 b30:	61007274 	tstvs	r0, r4, ror r2
 b34:	6e67696c 	vnmulvs.f16	s13, s14, s25	; <UNPREDICTABLE>
 b38:	746e656d 	strbtvc	r6, [lr], #-1389	; 0xfffffa93
 b3c:	685f5f00 	ldmdavs	pc, {r8, r9, sl, fp, ip, lr}^	; <UNPREDICTABLE>
 b40:	5f706165 	svcpl	0x00706165
 b44:	72617473 	rsbvc	r7, r1, #1929379840	; 0x73000000
 b48:	005f5f74 	subseq	r5, pc, r4, ror pc	; <UNPREDICTABLE>
 b4c:	6c616d6b 	stclvs	13, cr6, [r1], #-428	; 0xfffffe54
 b50:	5f636f6c 	svcpl	0x00636f6c
 b54:	70616568 	rsbvc	r6, r1, r8, ror #10
 b58:	6174735f 	cmnvs	r4, pc, asr r3
 b5c:	5f007472 	svcpl	0x00007472
 b60:	72646461 	rsbvc	r6, r4, #1627389952	; 0x61000000
 b64:	616d6b00 	cmnvs	sp, r0, lsl #22
 b68:	636f6c6c 	cmnvs	pc, #108, 24	; 0x6c00
 b6c:	6165685f 	cmnvs	r5, pc, asr r8
 b70:	6e655f70 	mcrvs	15, 3, r5, cr5, cr0, {3}
 b74:	Address 0x0000000000000b74 is out of bounds.


Disassembly of section .debug_frame:

00000000 <.debug_frame>:
   0:	0000000c 	andeq	r0, r0, ip
   4:	ffffffff 			; <UNDEFINED> instruction: 0xffffffff
   8:	7c020001 	stcvc	0, cr0, [r2], {1}
   c:	000d0c0e 	andeq	r0, sp, lr, lsl #24
  10:	00000018 	andeq	r0, r0, r8, lsl r0
  14:	00000000 	andeq	r0, r0, r0
  18:	00008010 	andeq	r8, r0, r0, lsl r0
  1c:	000000d4 	ldrdeq	r0, [r0], -r4
  20:	84100e42 	ldrhi	r0, [r0], #-3650	; 0xfffff1be
  24:	86038504 	strhi	r8, [r3], -r4, lsl #10
  28:	00018e02 	andeq	r8, r1, r2, lsl #28
  2c:	0000000c 	andeq	r0, r0, ip
  30:	ffffffff 			; <UNDEFINED> instruction: 0xffffffff
  34:	7c020001 	stcvc	0, cr0, [r2], {1}
  38:	000d0c0e 	andeq	r0, sp, lr, lsl #24
  3c:	0000000c 	andeq	r0, r0, ip
  40:	0000002c 	andeq	r0, r0, ip, lsr #32
  44:	000080e4 	andeq	r8, r0, r4, ror #1
  48:	00000008 	andeq	r0, r0, r8
  4c:	00000014 	andeq	r0, r0, r4, lsl r0
  50:	0000002c 	andeq	r0, r0, ip, lsr #32
  54:	000080ec 	andeq	r8, r0, ip, ror #1
  58:	00000010 	andeq	r0, r0, r0, lsl r0
  5c:	84080e42 	strhi	r0, [r8], #-3650	; 0xfffff1be
  60:	00018e02 	andeq	r8, r1, r2, lsl #28
  64:	00000014 	andeq	r0, r0, r4, lsl r0
  68:	0000002c 	andeq	r0, r0, ip, lsr #32
  6c:	000080fc 	strdeq	r8, [r0], -ip
  70:	00000018 	andeq	r0, r0, r8, lsl r0
  74:	84080e42 	strhi	r0, [r8], #-3650	; 0xfffff1be
  78:	00018e02 	andeq	r8, r1, r2, lsl #28
  7c:	0000000c 	andeq	r0, r0, ip
  80:	0000002c 	andeq	r0, r0, ip, lsr #32
  84:	00008114 	andeq	r8, r0, r4, lsl r1
  88:	0000000c 	andeq	r0, r0, ip
  8c:	0000000c 	andeq	r0, r0, ip
  90:	0000002c 	andeq	r0, r0, ip, lsr #32
  94:	00008120 	andeq	r8, r0, r0, lsr #2
  98:	00000008 	andeq	r0, r0, r8
  9c:	0000001c 	andeq	r0, r0, ip, lsl r0
  a0:	0000002c 	andeq	r0, r0, ip, lsr #32
  a4:	00008128 	andeq	r8, r0, r8, lsr #2
  a8:	0000010c 	andeq	r0, r0, ip, lsl #2
  ac:	84180e42 	ldrhi	r0, [r8], #-3650	; 0xfffff1be
  b0:	86058506 	strhi	r8, [r5], -r6, lsl #10
  b4:	88038704 	stmdahi	r3, {r2, r8, r9, sl, pc}
  b8:	00018e02 	andeq	r8, r1, r2, lsl #28
  bc:	00000014 	andeq	r0, r0, r4, lsl r0
  c0:	0000002c 	andeq	r0, r0, ip, lsr #32
  c4:	00008234 	andeq	r8, r0, r4, lsr r2
  c8:	00000014 	andeq	r0, r0, r4, lsl r0
  cc:	84080e42 	strhi	r0, [r8], #-3650	; 0xfffff1be
  d0:	00018e02 	andeq	r8, r1, r2, lsl #28
  d4:	00000018 	andeq	r0, r0, r8, lsl r0
  d8:	0000002c 	andeq	r0, r0, ip, lsr #32
  dc:	00008248 	andeq	r8, r0, r8, asr #4
  e0:	00000024 	andeq	r0, r0, r4, lsr #32
  e4:	84100e42 	ldrhi	r0, [r0], #-3650	; 0xfffff1be
  e8:	86038504 	strhi	r8, [r3], -r4, lsl #10
  ec:	00018e02 	andeq	r8, r1, r2, lsl #28
  f0:	00000018 	andeq	r0, r0, r8, lsl r0
  f4:	0000002c 	andeq	r0, r0, ip, lsr #32
  f8:	0000826c 	andeq	r8, r0, ip, ror #4
  fc:	000000f4 	strdeq	r0, [r0], -r4
 100:	84100e42 	ldrhi	r0, [r0], #-3650	; 0xfffff1be
 104:	86038504 	strhi	r8, [r3], -r4, lsl #10
 108:	00018e02 	andeq	r8, r1, r2, lsl #28
 10c:	0000001c 	andeq	r0, r0, ip, lsl r0
 110:	0000002c 	andeq	r0, r0, ip, lsr #32
 114:	00008360 	andeq	r8, r0, r0, ror #6
 118:	00000108 	andeq	r0, r0, r8, lsl #2
 11c:	84180e42 	ldrhi	r0, [r8], #-3650	; 0xfffff1be
 120:	86058506 	strhi	r8, [r5], -r6, lsl #10
 124:	88038704 	stmdahi	r3, {r2, r8, r9, sl, pc}
 128:	00018e02 	andeq	r8, r1, r2, lsl #28
 12c:	00000018 	andeq	r0, r0, r8, lsl r0
 130:	0000002c 	andeq	r0, r0, ip, lsr #32
 134:	00008468 	andeq	r8, r0, r8, ror #8
 138:	00000064 	andeq	r0, r0, r4, rrx
 13c:	84100e42 	ldrhi	r0, [r0], #-3650	; 0xfffff1be
 140:	86038504 	strhi	r8, [r3], -r4, lsl #10
 144:	00018e02 	andeq	r8, r1, r2, lsl #28
 148:	00000018 	andeq	r0, r0, r8, lsl r0
 14c:	0000002c 	andeq	r0, r0, ip, lsr #32
 150:	000084cc 	andeq	r8, r0, ip, asr #9
 154:	00000074 	andeq	r0, r0, r4, ror r0
 158:	84100e42 	ldrhi	r0, [r0], #-3650	; 0xfffff1be
 15c:	86038504 	strhi	r8, [r3], -r4, lsl #10
 160:	00018e02 	andeq	r8, r1, r2, lsl #28
 164:	0000001c 	andeq	r0, r0, ip, lsl r0
 168:	0000002c 	andeq	r0, r0, ip, lsr #32
 16c:	00008540 	andeq	r8, r0, r0, asr #10
 170:	000000b8 	strheq	r0, [r0], -r8
 174:	84180e42 	ldrhi	r0, [r8], #-3650	; 0xfffff1be
 178:	86058506 	strhi	r8, [r5], -r6, lsl #10
 17c:	88038704 	stmdahi	r3, {r2, r8, r9, sl, pc}
 180:	00018e02 	andeq	r8, r1, r2, lsl #28
 184:	00000028 	andeq	r0, r0, r8, lsr #32
 188:	0000002c 	andeq	r0, r0, ip, lsr #32
 18c:	000085f8 	strdeq	r8, [r0], -r8	; <UNPREDICTABLE>
 190:	00000218 	andeq	r0, r0, r8, lsl r2
 194:	841c0e42 	ldrhi	r0, [ip], #-3650	; 0xfffff1be
 198:	86068507 	strhi	r8, [r6], -r7, lsl #10
 19c:	88048705 	stmdahi	r4, {r0, r2, r8, r9, sl, pc}
 1a0:	8e028903 	vmlahi.f16	s16, s4, s6	; <UNPREDICTABLE>
 1a4:	280e4201 	stmdacs	lr, {r0, r9, lr}
 1a8:	0e0a8c02 	cdpeq	12, 0, cr8, cr10, cr2, {0}
 1ac:	000b421c 	andeq	r4, fp, ip, lsl r2
 1b0:	0000001c 	andeq	r0, r0, ip, lsl r0
 1b4:	0000002c 	andeq	r0, r0, ip, lsr #32
 1b8:	00008810 	andeq	r8, r0, r0, lsl r8
 1bc:	0000014c 	andeq	r0, r0, ip, asr #2
 1c0:	84180e42 	ldrhi	r0, [r8], #-3650	; 0xfffff1be
 1c4:	86058506 	strhi	r8, [r5], -r6, lsl #10
 1c8:	88038704 	stmdahi	r3, {r2, r8, r9, sl, pc}
 1cc:	00018e02 	andeq	r8, r1, r2, lsl #28
 1d0:	0000000c 	andeq	r0, r0, ip
 1d4:	ffffffff 			; <UNDEFINED> instruction: 0xffffffff
 1d8:	7c020001 	stcvc	0, cr0, [r2], {1}
 1dc:	000d0c0e 	andeq	r0, sp, lr, lsl #24
 1e0:	00000034 	andeq	r0, r0, r4, lsr r0
 1e4:	000001d0 	ldrdeq	r0, [r0], -r0	; <UNPREDICTABLE>
 1e8:	0000895c 	andeq	r8, r0, ip, asr r9
 1ec:	00000058 	andeq	r0, r0, r8, asr r0
 1f0:	80100e42 	andshi	r0, r0, r2, asr #28
 1f4:	82038104 	andhi	r8, r3, #4, 2
 1f8:	42018302 	andmi	r8, r1, #134217728	; 0x8000000
 1fc:	07841c0e 	streq	r1, [r4, lr, lsl #24]
 200:	058e0685 	streq	r0, [lr, #1669]	; 0x685
 204:	5c280e42 	stcpl	14, cr0, [r8], #-264	; 0xfffffef8
 208:	ce421c0e 	cdpgt	12, 4, cr1, cr2, cr14, {0}
 20c:	100ec4c5 	andne	ip, lr, r5, asr #9
 210:	c1c2c342 	bicgt	ip, r2, r2, asr #6
 214:	00000ec0 	andeq	r0, r0, r0, asr #29
 218:	0000000c 	andeq	r0, r0, ip
 21c:	ffffffff 			; <UNDEFINED> instruction: 0xffffffff
 220:	7c020001 	stcvc	0, cr0, [r2], {1}
 224:	000d0c0e 	andeq	r0, sp, lr, lsl #24
 228:	0000000c 	andeq	r0, r0, ip
 22c:	00000218 	andeq	r0, r0, r8, lsl r2
 230:	000089b4 			; <UNDEFINED> instruction: 0x000089b4
 234:	00000014 	andeq	r0, r0, r4, lsl r0
 238:	0000000c 	andeq	r0, r0, ip
 23c:	00000218 	andeq	r0, r0, r8, lsl r2
 240:	000089c8 	andeq	r8, r0, r8, asr #19
 244:	0000002c 	andeq	r0, r0, ip, lsr #32
 248:	0000000c 	andeq	r0, r0, ip
 24c:	00000218 	andeq	r0, r0, r8, lsl r2
 250:	000089f4 	strdeq	r8, [r0], -r4
 254:	00000040 	andeq	r0, r0, r0, asr #32
 258:	00000024 	andeq	r0, r0, r4, lsr #32
 25c:	00000218 	andeq	r0, r0, r8, lsl r2
 260:	00008a34 	andeq	r8, r0, r4, lsr sl
 264:	000001b0 			; <UNDEFINED> instruction: 0x000001b0
 268:	84140e42 	ldrhi	r0, [r4], #-3650	; 0xfffff1be
 26c:	86048505 	strhi	r8, [r4], -r5, lsl #10
 270:	8e028703 	cdphi	7, 0, cr8, cr2, cr3, {0}
 274:	580e4201 	stmdapl	lr, {r0, r9, lr}
 278:	0e0a9c02 	cdpeq	12, 0, cr9, cr10, cr2, {0}
 27c:	000b4214 	andeq	r4, fp, r4, lsl r2
 280:	00000014 	andeq	r0, r0, r4, lsl r0
 284:	00000218 	andeq	r0, r0, r8, lsl r2
 288:	00008be4 	andeq	r8, r0, r4, ror #23
 28c:	00000054 	andeq	r0, r0, r4, asr r0
 290:	84080e52 	strhi	r0, [r8], #-3666	; 0xfffff1ae
 294:	00018e02 	andeq	r8, r1, r2, lsl #28
 298:	00000028 	andeq	r0, r0, r8, lsr #32
 29c:	00000218 	andeq	r0, r0, r8, lsl r2
 2a0:	00008c38 	andeq	r8, r0, r8, lsr ip
 2a4:	000002c0 	andeq	r0, r0, r0, asr #5
 2a8:	841c0e42 	ldrhi	r0, [ip], #-3650	; 0xfffff1be
 2ac:	86068507 	strhi	r8, [r6], -r7, lsl #10
 2b0:	88048705 	stmdahi	r4, {r0, r2, r8, r9, sl, pc}
 2b4:	8e028903 	vmlahi.f16	s16, s4, s6	; <UNPREDICTABLE>
 2b8:	b00e4201 	andlt	r4, lr, r1, lsl #4
 2bc:	01500301 	cmpeq	r0, r1, lsl #6
 2c0:	00001c0e 	andeq	r1, r0, lr, lsl #24
 2c4:	0000000c 	andeq	r0, r0, ip
 2c8:	ffffffff 			; <UNDEFINED> instruction: 0xffffffff
 2cc:	7c020001 	stcvc	0, cr0, [r2], {1}
 2d0:	000d0c0e 	andeq	r0, sp, lr, lsl #24
 2d4:	00000018 	andeq	r0, r0, r8, lsl r0
 2d8:	000002c4 	andeq	r0, r0, r4, asr #5
 2dc:	00008ef8 	strdeq	r8, [r0], -r8	; <UNPREDICTABLE>
 2e0:	000000e8 	andeq	r0, r0, r8, ror #1
 2e4:	8e040e48 	cdphi	14, 0, cr0, cr4, cr8, {2}
 2e8:	0e680201 	cdpeq	2, 6, cr0, cr8, cr1, {0}
 2ec:	0000ce00 	andeq	ip, r0, r0, lsl #28
 2f0:	0000000c 	andeq	r0, r0, ip
 2f4:	ffffffff 			; <UNDEFINED> instruction: 0xffffffff
 2f8:	7c020001 	stcvc	0, cr0, [r2], {1}
 2fc:	000d0c0e 	andeq	r0, sp, lr, lsl #24
 300:	00000014 	andeq	r0, r0, r4, lsl r0
 304:	000002f0 	strdeq	r0, [r0], -r0	; <UNPREDICTABLE>
 308:	00008fe0 	andeq	r8, r0, r0, ror #31
 30c:	00000034 	andeq	r0, r0, r4, lsr r0
 310:	84080e42 	strhi	r0, [r8], #-3650	; 0xfffff1be
 314:	00018e02 	andeq	r8, r1, r2, lsl #28
 318:	0000000c 	andeq	r0, r0, ip
 31c:	ffffffff 			; <UNDEFINED> instruction: 0xffffffff
 320:	7c020001 	stcvc	0, cr0, [r2], {1}
 324:	000d0c0e 	andeq	r0, sp, lr, lsl #24
 328:	00000014 	andeq	r0, r0, r4, lsl r0
 32c:	00000318 	andeq	r0, r0, r8, lsl r3
 330:	00009014 	andeq	r9, r0, r4, lsl r0
 334:	00000014 	andeq	r0, r0, r4, lsl r0
 338:	84080e42 	strhi	r0, [r8], #-3650	; 0xfffff1be
 33c:	00018e02 	andeq	r8, r1, r2, lsl #28
 340:	0000000c 	andeq	r0, r0, ip
 344:	00000318 	andeq	r0, r0, r8, lsl r3
 348:	00009028 	andeq	r9, r0, r8, lsr #32
 34c:	00000018 	andeq	r0, r0, r8, lsl r0
 350:	0000000c 	andeq	r0, r0, ip
 354:	00000318 	andeq	r0, r0, r8, lsl r3
 358:	00009040 	andeq	r9, r0, r0, asr #32
 35c:	00000010 	andeq	r0, r0, r0, lsl r0
 360:	0000000c 	andeq	r0, r0, ip
 364:	ffffffff 			; <UNDEFINED> instruction: 0xffffffff
 368:	7c020001 	stcvc	0, cr0, [r2], {1}
 36c:	000d0c0e 	andeq	r0, sp, lr, lsl #24
 370:	0000000c 	andeq	r0, r0, ip
 374:	00000360 	andeq	r0, r0, r0, ror #6
 378:	00009050 	andeq	r9, r0, r0, asr r0
 37c:	00000020 	andeq	r0, r0, r0, lsr #32
 380:	0000000c 	andeq	r0, r0, ip
 384:	ffffffff 			; <UNDEFINED> instruction: 0xffffffff
 388:	7c020001 	stcvc	0, cr0, [r2], {1}
 38c:	000d0c0e 	andeq	r0, sp, lr, lsl #24
 390:	00000014 	andeq	r0, r0, r4, lsl r0
 394:	00000380 	andeq	r0, r0, r0, lsl #7
 398:	00009070 	andeq	r9, r0, r0, ror r0
 39c:	00000034 	andeq	r0, r0, r4, lsr r0
 3a0:	84080e42 	strhi	r0, [r8], #-3650	; 0xfffff1be
 3a4:	00018e02 	andeq	r8, r1, r2, lsl #28
 3a8:	0000000c 	andeq	r0, r0, ip
 3ac:	ffffffff 			; <UNDEFINED> instruction: 0xffffffff
 3b0:	7c020001 	stcvc	0, cr0, [r2], {1}
 3b4:	000d0c0e 	andeq	r0, sp, lr, lsl #24
 3b8:	0000000c 	andeq	r0, r0, ip
 3bc:	000003a8 	andeq	r0, r0, r8, lsr #7
 3c0:	000090a4 	andeq	r9, r0, r4, lsr #1
 3c4:	00000018 	andeq	r0, r0, r8, lsl r0
 3c8:	0000000c 	andeq	r0, r0, ip
 3cc:	000003a8 	andeq	r0, r0, r8, lsr #7
 3d0:	000090bc 	strheq	r9, [r0], -ip
 3d4:	00000014 	andeq	r0, r0, r4, lsl r0
 3d8:	00000014 	andeq	r0, r0, r4, lsl r0
 3dc:	000003a8 	andeq	r0, r0, r8, lsr #7
 3e0:	000090d0 	ldrdeq	r9, [r0], -r0
 3e4:	0000004c 	andeq	r0, r0, ip, asr #32
 3e8:	84080e42 	strhi	r0, [r8], #-3650	; 0xfffff1be
 3ec:	00018e02 	andeq	r8, r1, r2, lsl #28
 3f0:	0000000c 	andeq	r0, r0, ip
 3f4:	ffffffff 			; <UNDEFINED> instruction: 0xffffffff
 3f8:	7c020001 	stcvc	0, cr0, [r2], {1}
 3fc:	000d0c0e 	andeq	r0, sp, lr, lsl #24
 400:	00000014 	andeq	r0, r0, r4, lsl r0
 404:	000003f0 	strdeq	r0, [r0], -r0	; <UNPREDICTABLE>
 408:	0000911c 	andeq	r9, r0, ip, lsl r1
 40c:	00000028 	andeq	r0, r0, r8, lsr #32
 410:	84080e42 	strhi	r0, [r8], #-3650	; 0xfffff1be
 414:	00018e02 	andeq	r8, r1, r2, lsl #28
 418:	0000000c 	andeq	r0, r0, ip
 41c:	ffffffff 			; <UNDEFINED> instruction: 0xffffffff
 420:	7c020001 	stcvc	0, cr0, [r2], {1}
 424:	000d0c0e 	andeq	r0, sp, lr, lsl #24
 428:	0000000c 	andeq	r0, r0, ip
 42c:	00000418 	andeq	r0, r0, r8, lsl r4
 430:	00009144 	andeq	r9, r0, r4, asr #2
 434:	0000001c 	andeq	r0, r0, ip, lsl r0
 438:	00000014 	andeq	r0, r0, r4, lsl r0
 43c:	00000418 	andeq	r0, r0, r8, lsl r4
 440:	00009160 	andeq	r9, r0, r0, ror #2
 444:	00000014 	andeq	r0, r0, r4, lsl r0
 448:	84080e42 	strhi	r0, [r8], #-3650	; 0xfffff1be
 44c:	00018e02 	andeq	r8, r1, r2, lsl #28
 450:	00000014 	andeq	r0, r0, r4, lsl r0
 454:	00000418 	andeq	r0, r0, r8, lsl r4
 458:	00009174 	andeq	r9, r0, r4, ror r1
 45c:	0000000c 	andeq	r0, r0, ip
 460:	84080e42 	strhi	r0, [r8], #-3650	; 0xfffff1be
 464:	00018e02 	andeq	r8, r1, r2, lsl #28
 468:	00000018 	andeq	r0, r0, r8, lsl r0
 46c:	00000418 	andeq	r0, r0, r8, lsl r4
 470:	00009180 	andeq	r9, r0, r0, lsl #3
 474:	00000024 	andeq	r0, r0, r4, lsr #32
 478:	84100e42 	ldrhi	r0, [r0], #-3650	; 0xfffff1be
 47c:	86038504 	strhi	r8, [r3], -r4, lsl #10
 480:	00018e02 	andeq	r8, r1, r2, lsl #28
 484:	00000014 	andeq	r0, r0, r4, lsl r0
 488:	00000418 	andeq	r0, r0, r8, lsl r4
 48c:	000091a4 	andeq	r9, r0, r4, lsr #3
 490:	00000014 	andeq	r0, r0, r4, lsl r0
 494:	84080e42 	strhi	r0, [r8], #-3650	; 0xfffff1be
 498:	00018e02 	andeq	r8, r1, r2, lsl #28
 49c:	00000014 	andeq	r0, r0, r4, lsl r0
 4a0:	00000418 	andeq	r0, r0, r8, lsl r4
 4a4:	000091b8 			; <UNDEFINED> instruction: 0x000091b8
 4a8:	00000014 	andeq	r0, r0, r4, lsl r0
 4ac:	84080e42 	strhi	r0, [r8], #-3650	; 0xfffff1be
 4b0:	00018e02 	andeq	r8, r1, r2, lsl #28
 4b4:	0000000c 	andeq	r0, r0, ip
 4b8:	ffffffff 			; <UNDEFINED> instruction: 0xffffffff
 4bc:	7c020001 	stcvc	0, cr0, [r2], {1}
 4c0:	000d0c0e 	andeq	r0, sp, lr, lsl #24
 4c4:	00000018 	andeq	r0, r0, r8, lsl r0
 4c8:	000004b4 			; <UNDEFINED> instruction: 0x000004b4
 4cc:	00009218 	andeq	r9, r0, r8, lsl r2
 4d0:	00000020 	andeq	r0, r0, r0, lsr #32
 4d4:	84100e42 	ldrhi	r0, [r0], #-3650	; 0xfffff1be
 4d8:	86038504 	strhi	r8, [r3], -r4, lsl #10
 4dc:	00018e02 	andeq	r8, r1, r2, lsl #28
 4e0:	00000014 	andeq	r0, r0, r4, lsl r0
 4e4:	000004b4 			; <UNDEFINED> instruction: 0x000004b4
 4e8:	00009238 	andeq	r9, r0, r8, lsr r2
 4ec:	000000b0 	strheq	r0, [r0], -r0	; <UNPREDICTABLE>
 4f0:	84080e42 	strhi	r0, [r8], #-3650	; 0xfffff1be
 4f4:	00018e02 	andeq	r8, r1, r2, lsl #28
 4f8:	00000014 	andeq	r0, r0, r4, lsl r0
 4fc:	000004b4 			; <UNDEFINED> instruction: 0x000004b4
 500:	000092e8 	andeq	r9, r0, r8, ror #5
 504:	00000018 	andeq	r0, r0, r8, lsl r0
 508:	84080e42 	strhi	r0, [r8], #-3650	; 0xfffff1be
 50c:	00018e02 	andeq	r8, r1, r2, lsl #28
 510:	00000014 	andeq	r0, r0, r4, lsl r0
 514:	000004b4 			; <UNDEFINED> instruction: 0x000004b4
 518:	00009300 	andeq	r9, r0, r0, lsl #6
 51c:	00000020 	andeq	r0, r0, r0, lsr #32
 520:	84080e42 	strhi	r0, [r8], #-3650	; 0xfffff1be
 524:	00018e02 	andeq	r8, r1, r2, lsl #28
 528:	00000014 	andeq	r0, r0, r4, lsl r0
 52c:	000004b4 			; <UNDEFINED> instruction: 0x000004b4
 530:	00009320 	andeq	r9, r0, r0, lsr #6
 534:	00000030 	andeq	r0, r0, r0, lsr r0
 538:	84080e42 	strhi	r0, [r8], #-3650	; 0xfffff1be
 53c:	00018e02 	andeq	r8, r1, r2, lsl #28
 540:	00000014 	andeq	r0, r0, r4, lsl r0
 544:	000004b4 			; <UNDEFINED> instruction: 0x000004b4
 548:	00009350 	andeq	r9, r0, r0, asr r3
 54c:	00000030 	andeq	r0, r0, r0, lsr r0
 550:	84080e42 	strhi	r0, [r8], #-3650	; 0xfffff1be
 554:	00018e02 	andeq	r8, r1, r2, lsl #28
 558:	00000014 	andeq	r0, r0, r4, lsl r0
 55c:	000004b4 			; <UNDEFINED> instruction: 0x000004b4
 560:	00009380 	andeq	r9, r0, r0, lsl #7
 564:	00000010 	andeq	r0, r0, r0, lsl r0
 568:	84080e42 	strhi	r0, [r8], #-3650	; 0xfffff1be
 56c:	00018e02 	andeq	r8, r1, r2, lsl #28
 570:	0000000c 	andeq	r0, r0, ip
 574:	ffffffff 			; <UNDEFINED> instruction: 0xffffffff
 578:	7c020001 	stcvc	0, cr0, [r2], {1}
 57c:	000d0c0e 	andeq	r0, sp, lr, lsl #24
 580:	00000018 	andeq	r0, r0, r8, lsl r0
 584:	00000570 	andeq	r0, r0, r0, ror r5
 588:	00009390 	muleq	r0, r0, r3
 58c:	00000068 	andeq	r0, r0, r8, rrx
 590:	84100e4a 	ldrhi	r0, [r0], #-3658	; 0xfffff1b6
 594:	86038504 	strhi	r8, [r3], -r4, lsl #10
 598:	00018e02 	andeq	r8, r1, r2, lsl #28
 59c:	00000014 	andeq	r0, r0, r4, lsl r0
 5a0:	00000570 	andeq	r0, r0, r0, ror r5
 5a4:	000093f8 	strdeq	r9, [r0], -r8
 5a8:	00000010 	andeq	r0, r0, r0, lsl r0
 5ac:	84080e42 	strhi	r0, [r8], #-3650	; 0xfffff1be
 5b0:	00018e02 	andeq	r8, r1, r2, lsl #28
 5b4:	00000014 	andeq	r0, r0, r4, lsl r0
 5b8:	00000570 	andeq	r0, r0, r0, ror r5
 5bc:	00009408 	andeq	r9, r0, r8, lsl #8
 5c0:	00000024 	andeq	r0, r0, r4, lsr #32
 5c4:	84080e46 	strhi	r0, [r8], #-3654	; 0xfffff1ba
 5c8:	00018e02 	andeq	r8, r1, r2, lsl #28
 5cc:	00000014 	andeq	r0, r0, r4, lsl r0
 5d0:	00000570 	andeq	r0, r0, r0, ror r5
 5d4:	0000942c 	andeq	r9, r0, ip, lsr #8
 5d8:	00000024 	andeq	r0, r0, r4, lsr #32
 5dc:	84080e46 	strhi	r0, [r8], #-3654	; 0xfffff1ba
 5e0:	00018e02 	andeq	r8, r1, r2, lsl #28
 5e4:	00000014 	andeq	r0, r0, r4, lsl r0
 5e8:	00000570 	andeq	r0, r0, r0, ror r5
 5ec:	00009450 	andeq	r9, r0, r0, asr r4
 5f0:	00000010 	andeq	r0, r0, r0, lsl r0
 5f4:	84080e42 	strhi	r0, [r8], #-3650	; 0xfffff1be
 5f8:	00018e02 	andeq	r8, r1, r2, lsl #28
 5fc:	00000014 	andeq	r0, r0, r4, lsl r0
 600:	00000570 	andeq	r0, r0, r0, ror r5
 604:	00009460 	andeq	r9, r0, r0, ror #8
 608:	0000001c 	andeq	r0, r0, ip, lsl r0
 60c:	84080e42 	strhi	r0, [r8], #-3650	; 0xfffff1be
 610:	00018e02 	andeq	r8, r1, r2, lsl #28
 614:	00000018 	andeq	r0, r0, r8, lsl r0
 618:	00000570 	andeq	r0, r0, r0, ror r5
 61c:	0000947c 	andeq	r9, r0, ip, ror r4
 620:	00000034 	andeq	r0, r0, r4, lsr r0
 624:	84080e46 	strhi	r0, [r8], #-3654	; 0xfffff1ba
 628:	4e018e02 	cdpmi	14, 0, cr8, cr1, cr2, {0}
 62c:	cec4000e 	cdpgt	0, 12, cr0, cr4, cr14, {0}
 630:	0000000c 	andeq	r0, r0, ip
 634:	ffffffff 			; <UNDEFINED> instruction: 0xffffffff
 638:	7c020001 	stcvc	0, cr0, [r2], {1}
 63c:	000d0c0e 	andeq	r0, sp, lr, lsl #24
 640:	0000000c 	andeq	r0, r0, ip
 644:	00000630 	andeq	r0, r0, r0, lsr r6
 648:	000094b0 			; <UNDEFINED> instruction: 0x000094b0
 64c:	00000010 	andeq	r0, r0, r0, lsl r0
 650:	0000000c 	andeq	r0, r0, ip
 654:	00000630 	andeq	r0, r0, r0, lsr r6
 658:	000094c0 	andeq	r9, r0, r0, asr #9
 65c:	0000000c 	andeq	r0, r0, ip
 660:	00000014 	andeq	r0, r0, r4, lsl r0
 664:	00000630 	andeq	r0, r0, r0, lsr r6
 668:	000094cc 	andeq	r9, r0, ip, asr #9
 66c:	00000050 	andeq	r0, r0, r0, asr r0
 670:	84080e52 	strhi	r0, [r8], #-3666	; 0xfffff1ae
 674:	00018e02 	andeq	r8, r1, r2, lsl #28
 678:	00000014 	andeq	r0, r0, r4, lsl r0
 67c:	00000630 	andeq	r0, r0, r0, lsr r6
 680:	0000951c 	andeq	r9, r0, ip, lsl r5
 684:	00000064 	andeq	r0, r0, r4, rrx
 688:	84080e42 	strhi	r0, [r8], #-3650	; 0xfffff1be
 68c:	00018e02 	andeq	r8, r1, r2, lsl #28
 690:	0000000c 	andeq	r0, r0, ip
 694:	00000630 	andeq	r0, r0, r0, lsr r6
 698:	00009580 	andeq	r9, r0, r0, lsl #11
 69c:	00000004 	andeq	r0, r0, r4
 6a0:	00000014 	andeq	r0, r0, r4, lsl r0
 6a4:	00000630 	andeq	r0, r0, r0, lsr r6
 6a8:	00009584 	andeq	r9, r0, r4, lsl #11
 6ac:	0000000c 	andeq	r0, r0, ip
 6b0:	84080e42 	strhi	r0, [r8], #-3650	; 0xfffff1be
 6b4:	00018e02 	andeq	r8, r1, r2, lsl #28
 6b8:	00000014 	andeq	r0, r0, r4, lsl r0
 6bc:	00000630 	andeq	r0, r0, r0, lsr r6
 6c0:	00009590 	muleq	r0, r0, r5
 6c4:	0000008c 	andeq	r0, r0, ip, lsl #1
 6c8:	84080e42 	strhi	r0, [r8], #-3650	; 0xfffff1be
 6cc:	00018e02 	andeq	r8, r1, r2, lsl #28
 6d0:	0000000c 	andeq	r0, r0, ip
 6d4:	00000630 	andeq	r0, r0, r0, lsr r6
 6d8:	0000961c 	andeq	r9, r0, ip, lsl r6
 6dc:	00000004 	andeq	r0, r0, r4
 6e0:	0000000c 	andeq	r0, r0, ip
 6e4:	00000630 	andeq	r0, r0, r0, lsr r6
 6e8:	00009620 	andeq	r9, r0, r0, lsr #12
 6ec:	00000014 	andeq	r0, r0, r4, lsl r0
 6f0:	0000000c 	andeq	r0, r0, ip
 6f4:	00000630 	andeq	r0, r0, r0, lsr r6
 6f8:	00009634 	andeq	r9, r0, r4, lsr r6
 6fc:	00000010 	andeq	r0, r0, r0, lsl r0

Disassembly of section .debug_ranges:

00000000 <.debug_ranges>:
   0:	000000a0 	andeq	r0, r0, r0, lsr #1
   4:	000000e8 	andeq	r0, r0, r8, ror #1
   8:	00000100 	andeq	r0, r0, r0, lsl #2
   c:	0000012c 	andeq	r0, r0, ip, lsr #2
	...
  18:	000001c4 	andeq	r0, r0, r4, asr #3
  1c:	0000020c 	andeq	r0, r0, ip, lsl #4
  20:	0000022c 	andeq	r0, r0, ip, lsr #4
  24:	00000254 	andeq	r0, r0, r4, asr r2
	...
  30:	000002a4 	andeq	r0, r0, r4, lsr #5
  34:	0000035c 	andeq	r0, r0, ip, asr r3
  38:	00000364 	andeq	r0, r0, r4, ror #6
  3c:	00000368 	andeq	r0, r0, r8, ror #6
	...
  48:	000002dc 	ldrdeq	r0, [r0], -ip
  4c:	00000324 	andeq	r0, r0, r4, lsr #6
  50:	0000032c 	andeq	r0, r0, ip, lsr #6
  54:	00000354 	andeq	r0, r0, r4, asr r3
	...
  60:	00000760 	andeq	r0, r0, r0, ror #14
  64:	00000764 	andeq	r0, r0, r4, ror #14
  68:	0000076c 	andeq	r0, r0, ip, ror #14
  6c:	00000778 	andeq	r0, r0, r8, ror r7
  70:	0000079c 	muleq	r0, ip, r7
  74:	00000848 	andeq	r0, r0, r8, asr #16
	...
  80:	000002d8 	ldrdeq	r0, [r0], -r8
  84:	000002e4 	andeq	r0, r0, r4, ror #5
  88:	000002f4 	strdeq	r0, [r0], -r4
  8c:	00000518 	andeq	r0, r0, r8, lsl r5
	...
  98:	000090a4 	andeq	r9, r0, r4, lsr #1
  9c:	0000911c 	andeq	r9, r0, ip, lsl r1
	...
