
part1-test4.elf:     file format elf32-littlearm


Disassembly of section .text:

00008000 <_start>:
    8000:	e3a0d302 	mov	sp, #134217728	; 0x8000000
    8004:	e3a0b000 	mov	fp, #0
    8008:	eb00041e 	bl	9088 <_cstart>
    800c:	eb000433 	bl	90e0 <rpi_reboot>

00008010 <notmain>:
    8010:	e92d4070 	push	{r4, r5, r6, lr}
    8014:	e59f00d4 	ldr	r0, [pc, #212]	; 80f0 <notmain+0xe0>
    8018:	eb000296 	bl	8a78 <printk>
    801c:	e3a00601 	mov	r0, #1048576	; 0x100000
    8020:	eb000524 	bl	94b8 <kmalloc_init_set_start>
    8024:	e3a00601 	mov	r0, #1048576	; 0x100000
    8028:	eb000536 	bl	9508 <kmalloc>
    802c:	e3a01601 	mov	r1, #1048576	; 0x100000
    8030:	eb000129 	bl	84dc <ck_init>
    8034:	e59f60b8 	ldr	r6, [pc, #184]	; 80f4 <notmain+0xe4>
    8038:	e59f50b8 	ldr	r5, [pc, #184]	; 80f8 <notmain+0xe8>
    803c:	e3a0300d 	mov	r3, #13
    8040:	e1a02006 	mov	r2, r6
    8044:	e1a01005 	mov	r1, r5
    8048:	e3a00004 	mov	r0, #4
    804c:	eb00016d 	bl	8608 <ckalloc>
    8050:	e1a04000 	mov	r4, r0
    8054:	e3a02004 	mov	r2, #4
    8058:	e3a01000 	mov	r1, #0
    805c:	eb00027f 	bl	8a60 <memset>
    8060:	e3a0300f 	mov	r3, #15
    8064:	e1a02006 	mov	r2, r6
    8068:	e1a01005 	mov	r1, r5
    806c:	e1a00004 	mov	r0, r4
    8070:	eb000136 	bl	8550 <ckfree>
    8074:	eb0001ea 	bl	8824 <ck_heap_errors>
    8078:	e3500000 	cmp	r0, #0
    807c:	1a00000d 	bne	80b8 <notmain+0xa8>
    8080:	e59f0074 	ldr	r0, [pc, #116]	; 80fc <notmain+0xec>
    8084:	eb00027b 	bl	8a78 <printk>
    8088:	e59f0070 	ldr	r0, [pc, #112]	; 8100 <notmain+0xf0>
    808c:	eb000279 	bl	8a78 <printk>
    8090:	e3a03001 	mov	r3, #1
    8094:	e5c43004 	strb	r3, [r4, #4]
    8098:	eb0001e1 	bl	8824 <ck_heap_errors>
    809c:	e3500001 	cmp	r0, #1
    80a0:	1a00000b 	bne	80d4 <notmain+0xc4>
    80a4:	e59f0050 	ldr	r0, [pc, #80]	; 80fc <notmain+0xec>
    80a8:	eb000272 	bl	8a78 <printk>
    80ac:	e59f0050 	ldr	r0, [pc, #80]	; 8104 <notmain+0xf4>
    80b0:	eb000270 	bl	8a78 <printk>
    80b4:	e8bd8070 	pop	{r4, r5, r6, pc}
    80b8:	eb000289 	bl	8ae4 <rpi_reset_putc>
    80bc:	e3a03012 	mov	r3, #18
    80c0:	e1a02006 	mov	r2, r6
    80c4:	e1a01005 	mov	r1, r5
    80c8:	e59f0038 	ldr	r0, [pc, #56]	; 8108 <notmain+0xf8>
    80cc:	eb000269 	bl	8a78 <printk>
    80d0:	eb0003e2 	bl	9060 <clean_reboot>
    80d4:	eb000282 	bl	8ae4 <rpi_reset_putc>
    80d8:	e3a03019 	mov	r3, #25
    80dc:	e59f2010 	ldr	r2, [pc, #16]	; 80f4 <notmain+0xe4>
    80e0:	e59f1010 	ldr	r1, [pc, #16]	; 80f8 <notmain+0xe8>
    80e4:	e59f001c 	ldr	r0, [pc, #28]	; 8108 <notmain+0xf8>
    80e8:	eb000262 	bl	8a78 <printk>
    80ec:	eb0003db 	bl	9060 <clean_reboot>
    80f0:	00009658 	andeq	r9, r0, r8, asr r6
    80f4:	000096e8 	andeq	r9, r0, r8, ror #13
    80f8:	00009670 	andeq	r9, r0, r0, ror r6
    80fc:	000096a4 	andeq	r9, r0, r4, lsr #13
    8100:	000096ac 	andeq	r9, r0, ip, lsr #13
    8104:	000096c8 	andeq	r9, r0, r8, asr #13
    8108:	00009680 	andeq	r9, r0, r0, lsl #13

0000810c <b_rz1_ptr>:
    810c:	e2800038 	add	r0, r0, #56	; 0x38
    8110:	e12fff1e 	bx	lr

00008114 <b_alloc_ptr>:
    8114:	e92d4010 	push	{r4, lr}
    8118:	ebfffffb 	bl	810c <b_rz1_ptr>
    811c:	e2800080 	add	r0, r0, #128	; 0x80
    8120:	e8bd8010 	pop	{r4, pc}

00008124 <b_rz2_ptr>:
    8124:	e92d4010 	push	{r4, lr}
    8128:	e1a04000 	mov	r4, r0
    812c:	ebfffff8 	bl	8114 <b_alloc_ptr>
    8130:	e5943000 	ldr	r3, [r4]
    8134:	e0800003 	add	r0, r0, r3
    8138:	e8bd8010 	pop	{r4, pc}

0000813c <b_rz2_nbytes>:
    813c:	e5900004 	ldr	r0, [r0, #4]
    8140:	e2800080 	add	r0, r0, #128	; 0x80
    8144:	e12fff1e 	bx	lr

00008148 <b_addr_to_hdr>:
    8148:	e24000b8 	sub	r0, r0, #184	; 0xb8
    814c:	e12fff1e 	bx	lr

00008150 <check_free_write>:
    8150:	e92d41f0 	push	{r4, r5, r6, r7, r8, lr}
    8154:	e1a05000 	mov	r5, r0
    8158:	e1a06002 	mov	r6, r2
    815c:	e3a04000 	mov	r4, #0
    8160:	e1540001 	cmp	r4, r1
    8164:	2a000033 	bcs	8238 <check_free_write+0xe8>
    8168:	e7d53004 	ldrb	r3, [r5, r4]
    816c:	e35300fe 	cmp	r3, #254	; 0xfe
    8170:	02844001 	addeq	r4, r4, #1
    8174:	0afffff9 	beq	8160 <check_free_write+0x10>
    8178:	e1a00006 	mov	r0, r6
    817c:	ebffffe4 	bl	8114 <b_alloc_ptr>
    8180:	e0450000 	sub	r0, r5, r0
    8184:	e0804004 	add	r4, r0, r4
    8188:	e59f70b0 	ldr	r7, [pc, #176]	; 8240 <check_free_write+0xf0>
    818c:	e1a00007 	mov	r0, r7
    8190:	eb000238 	bl	8a78 <printk>
    8194:	e59f00a8 	ldr	r0, [pc, #168]	; 8244 <check_free_write+0xf4>
    8198:	eb000236 	bl	8a78 <printk>
    819c:	e1a02004 	mov	r2, r4
    81a0:	e1a01005 	mov	r1, r5
    81a4:	e59f009c 	ldr	r0, [pc, #156]	; 8248 <check_free_write+0xf8>
    81a8:	eb000232 	bl	8a78 <printk>
    81ac:	e1a00007 	mov	r0, r7
    81b0:	eb000230 	bl	8a78 <printk>
    81b4:	e5961000 	ldr	r1, [r6]
    81b8:	e59f008c 	ldr	r0, [pc, #140]	; 824c <check_free_write+0xfc>
    81bc:	eb00022d 	bl	8a78 <printk>
    81c0:	e5963010 	ldr	r3, [r6, #16]
    81c4:	e3530000 	cmp	r3, #0
    81c8:	0a000006 	beq	81e8 <check_free_write+0x98>
    81cc:	e1a00007 	mov	r0, r7
    81d0:	eb000228 	bl	8a78 <printk>
    81d4:	e5963018 	ldr	r3, [r6, #24]
    81d8:	e5962014 	ldr	r2, [r6, #20]
    81dc:	e5961010 	ldr	r1, [r6, #16]
    81e0:	e59f0068 	ldr	r0, [pc, #104]	; 8250 <check_free_write+0x100>
    81e4:	eb000223 	bl	8a78 <printk>
    81e8:	e5963008 	ldr	r3, [r6, #8]
    81ec:	e353000c 	cmp	r3, #12
    81f0:	0a000005 	beq	820c <check_free_write+0xbc>
    81f4:	e59f0044 	ldr	r0, [pc, #68]	; 8240 <check_free_write+0xf0>
    81f8:	eb00021e 	bl	8a78 <printk>
    81fc:	e59f0050 	ldr	r0, [pc, #80]	; 8254 <check_free_write+0x104>
    8200:	eb00021c 	bl	8a78 <printk>
    8204:	e3a00000 	mov	r0, #0
    8208:	e8bd81f0 	pop	{r4, r5, r6, r7, r8, pc}
    820c:	e596301c 	ldr	r3, [r6, #28]
    8210:	e3530000 	cmp	r3, #0
    8214:	0afffff6 	beq	81f4 <check_free_write+0xa4>
    8218:	e59f0020 	ldr	r0, [pc, #32]	; 8240 <check_free_write+0xf0>
    821c:	eb000215 	bl	8a78 <printk>
    8220:	e5963024 	ldr	r3, [r6, #36]	; 0x24
    8224:	e5962020 	ldr	r2, [r6, #32]
    8228:	e596101c 	ldr	r1, [r6, #28]
    822c:	e59f0024 	ldr	r0, [pc, #36]	; 8258 <check_free_write+0x108>
    8230:	eb000210 	bl	8a78 <printk>
    8234:	eaffffee 	b	81f4 <check_free_write+0xa4>
    8238:	e3a00001 	mov	r0, #1
    823c:	e8bd81f0 	pop	{r4, r5, r6, r7, r8, pc}
    8240:	000096a4 	andeq	r9, r0, r4, lsr #13
    8244:	000096f0 	strdeq	r9, [r0], -r0
    8248:	000096f8 	strdeq	r9, [r0], -r8
    824c:	0000971c 	andeq	r9, r0, ip, lsl r7
    8250:	00009728 	andeq	r9, r0, r8, lsr #14
    8254:	00009764 	andeq	r9, r0, r4, ror #14
    8258:	00009748 	andeq	r9, r0, r8, asr #14

0000825c <mark_mem>:
    825c:	e92d4010 	push	{r4, lr}
    8260:	e1a02001 	mov	r2, r1
    8264:	e3a010fe 	mov	r1, #254	; 0xfe
    8268:	eb0001fc 	bl	8a60 <memset>
    826c:	e8bd8010 	pop	{r4, pc}

00008270 <hdr_cksum>:
    8270:	e92d4070 	push	{r4, r5, r6, lr}
    8274:	e1a04000 	mov	r4, r0
    8278:	e590500c 	ldr	r5, [r0, #12]
    827c:	e3a03000 	mov	r3, #0
    8280:	e580300c 	str	r3, [r0, #12]
    8284:	e3a01038 	mov	r1, #56	; 0x38
    8288:	eb0001b9 	bl	8974 <fast_hash>
    828c:	e584500c 	str	r5, [r4, #12]
    8290:	e8bd8070 	pop	{r4, r5, r6, pc}

00008294 <check_hdr>:
    8294:	e92d4070 	push	{r4, r5, r6, lr}
    8298:	e1a04000 	mov	r4, r0
    829c:	e5903008 	ldr	r3, [r0, #8]
    82a0:	e243300b 	sub	r3, r3, #11
    82a4:	e3530001 	cmp	r3, #1
    82a8:	8a000003 	bhi	82bc <check_hdr+0x28>
    82ac:	e590500c 	ldr	r5, [r0, #12]
    82b0:	ebffffee 	bl	8270 <hdr_cksum>
    82b4:	e1550000 	cmp	r5, r0
    82b8:	0a000027 	beq	835c <check_hdr+0xc8>
    82bc:	e59f50a0 	ldr	r5, [pc, #160]	; 8364 <check_hdr+0xd0>
    82c0:	e1a00005 	mov	r0, r5
    82c4:	eb0001eb 	bl	8a78 <printk>
    82c8:	e59f0098 	ldr	r0, [pc, #152]	; 8368 <check_hdr+0xd4>
    82cc:	eb0001e9 	bl	8a78 <printk>
    82d0:	e3a02000 	mov	r2, #0
    82d4:	e1a01004 	mov	r1, r4
    82d8:	e59f008c 	ldr	r0, [pc, #140]	; 836c <check_hdr+0xd8>
    82dc:	eb0001e5 	bl	8a78 <printk>
    82e0:	e1a00005 	mov	r0, r5
    82e4:	eb0001e3 	bl	8a78 <printk>
    82e8:	e5941000 	ldr	r1, [r4]
    82ec:	e59f007c 	ldr	r0, [pc, #124]	; 8370 <check_hdr+0xdc>
    82f0:	eb0001e0 	bl	8a78 <printk>
    82f4:	e5943010 	ldr	r3, [r4, #16]
    82f8:	e3530000 	cmp	r3, #0
    82fc:	0a000006 	beq	831c <check_hdr+0x88>
    8300:	e1a00005 	mov	r0, r5
    8304:	eb0001db 	bl	8a78 <printk>
    8308:	e5943018 	ldr	r3, [r4, #24]
    830c:	e5942014 	ldr	r2, [r4, #20]
    8310:	e5941010 	ldr	r1, [r4, #16]
    8314:	e59f0058 	ldr	r0, [pc, #88]	; 8374 <check_hdr+0xe0>
    8318:	eb0001d6 	bl	8a78 <printk>
    831c:	e5943008 	ldr	r3, [r4, #8]
    8320:	e353000c 	cmp	r3, #12
    8324:	0a000001 	beq	8330 <check_hdr+0x9c>
    8328:	e3a00000 	mov	r0, #0
    832c:	e8bd8070 	pop	{r4, r5, r6, pc}
    8330:	e594301c 	ldr	r3, [r4, #28]
    8334:	e3530000 	cmp	r3, #0
    8338:	0afffffa 	beq	8328 <check_hdr+0x94>
    833c:	e59f0020 	ldr	r0, [pc, #32]	; 8364 <check_hdr+0xd0>
    8340:	eb0001cc 	bl	8a78 <printk>
    8344:	e5943024 	ldr	r3, [r4, #36]	; 0x24
    8348:	e5942020 	ldr	r2, [r4, #32]
    834c:	e594101c 	ldr	r1, [r4, #28]
    8350:	e59f0020 	ldr	r0, [pc, #32]	; 8378 <check_hdr+0xe4>
    8354:	eb0001c7 	bl	8a78 <printk>
    8358:	eafffff2 	b	8328 <check_hdr+0x94>
    835c:	e3a00001 	mov	r0, #1
    8360:	e8bd8070 	pop	{r4, r5, r6, pc}
    8364:	000096a4 	andeq	r9, r0, r4, lsr #13
    8368:	000096f0 	strdeq	r9, [r0], -r0
    836c:	000096f8 	strdeq	r9, [r0], -r8
    8370:	0000971c 	andeq	r9, r0, ip, lsl r7
    8374:	00009728 	andeq	r9, r0, r8, lsr #14
    8378:	00009748 	andeq	r9, r0, r8, asr #14

0000837c <check_mem>:
    837c:	e92d41f0 	push	{r4, r5, r6, r7, r8, lr}
    8380:	e1a05000 	mov	r5, r0
    8384:	e1a06002 	mov	r6, r2
    8388:	e3a04000 	mov	r4, #0
    838c:	e1540001 	cmp	r4, r1
    8390:	2a000030 	bcs	8458 <check_mem+0xdc>
    8394:	e7d53004 	ldrb	r3, [r5, r4]
    8398:	e35300fe 	cmp	r3, #254	; 0xfe
    839c:	02844001 	addeq	r4, r4, #1
    83a0:	0afffff9 	beq	838c <check_mem+0x10>
    83a4:	e1a00006 	mov	r0, r6
    83a8:	ebffff59 	bl	8114 <b_alloc_ptr>
    83ac:	e0450000 	sub	r0, r5, r0
    83b0:	e0804004 	add	r4, r0, r4
    83b4:	e59f70a4 	ldr	r7, [pc, #164]	; 8460 <check_mem+0xe4>
    83b8:	e1a00007 	mov	r0, r7
    83bc:	eb0001ad 	bl	8a78 <printk>
    83c0:	e59f009c 	ldr	r0, [pc, #156]	; 8464 <check_mem+0xe8>
    83c4:	eb0001ab 	bl	8a78 <printk>
    83c8:	e5961000 	ldr	r1, [r6]
    83cc:	e1a02004 	mov	r2, r4
    83d0:	e0451001 	sub	r1, r5, r1
    83d4:	e59f008c 	ldr	r0, [pc, #140]	; 8468 <check_mem+0xec>
    83d8:	eb0001a6 	bl	8a78 <printk>
    83dc:	e1a00007 	mov	r0, r7
    83e0:	eb0001a4 	bl	8a78 <printk>
    83e4:	e5961000 	ldr	r1, [r6]
    83e8:	e59f007c 	ldr	r0, [pc, #124]	; 846c <check_mem+0xf0>
    83ec:	eb0001a1 	bl	8a78 <printk>
    83f0:	e5963010 	ldr	r3, [r6, #16]
    83f4:	e3530000 	cmp	r3, #0
    83f8:	0a000006 	beq	8418 <check_mem+0x9c>
    83fc:	e1a00007 	mov	r0, r7
    8400:	eb00019c 	bl	8a78 <printk>
    8404:	e5963018 	ldr	r3, [r6, #24]
    8408:	e5962014 	ldr	r2, [r6, #20]
    840c:	e5961010 	ldr	r1, [r6, #16]
    8410:	e59f0058 	ldr	r0, [pc, #88]	; 8470 <check_mem+0xf4>
    8414:	eb000197 	bl	8a78 <printk>
    8418:	e5963008 	ldr	r3, [r6, #8]
    841c:	e353000c 	cmp	r3, #12
    8420:	0a000001 	beq	842c <check_mem+0xb0>
    8424:	e3a00000 	mov	r0, #0
    8428:	e8bd81f0 	pop	{r4, r5, r6, r7, r8, pc}
    842c:	e596301c 	ldr	r3, [r6, #28]
    8430:	e3530000 	cmp	r3, #0
    8434:	0afffffa 	beq	8424 <check_mem+0xa8>
    8438:	e59f0020 	ldr	r0, [pc, #32]	; 8460 <check_mem+0xe4>
    843c:	eb00018d 	bl	8a78 <printk>
    8440:	e5963024 	ldr	r3, [r6, #36]	; 0x24
    8444:	e5962020 	ldr	r2, [r6, #32]
    8448:	e596101c 	ldr	r1, [r6, #28]
    844c:	e59f0020 	ldr	r0, [pc, #32]	; 8474 <check_mem+0xf8>
    8450:	eb000188 	bl	8a78 <printk>
    8454:	eafffff2 	b	8424 <check_mem+0xa8>
    8458:	e3a00001 	mov	r0, #1
    845c:	e8bd81f0 	pop	{r4, r5, r6, r7, r8, pc}
    8460:	000096a4 	andeq	r9, r0, r4, lsr #13
    8464:	000096f0 	strdeq	r9, [r0], -r0
    8468:	000096f8 	strdeq	r9, [r0], -r8
    846c:	0000971c 	andeq	r9, r0, ip, lsl r7
    8470:	00009728 	andeq	r9, r0, r8, lsr #14
    8474:	00009748 	andeq	r9, r0, r8, asr #14

00008478 <check_block>:
    8478:	e92d4070 	push	{r4, r5, r6, lr}
    847c:	e1a04000 	mov	r4, r0
    8480:	ebffff83 	bl	8294 <check_hdr>
    8484:	e3500000 	cmp	r0, #0
    8488:	08bd8070 	popeq	{r4, r5, r6, pc}
    848c:	e1a00004 	mov	r0, r4
    8490:	ebffff1d 	bl	810c <b_rz1_ptr>
    8494:	e1a02004 	mov	r2, r4
    8498:	e3a01080 	mov	r1, #128	; 0x80
    849c:	ebffffb6 	bl	837c <check_mem>
    84a0:	e3500000 	cmp	r0, #0
    84a4:	08bd8070 	popeq	{r4, r5, r6, pc}
    84a8:	e1a00004 	mov	r0, r4
    84ac:	ebffff1c 	bl	8124 <b_rz2_ptr>
    84b0:	e1a05000 	mov	r5, r0
    84b4:	e1a00004 	mov	r0, r4
    84b8:	ebffff1f 	bl	813c <b_rz2_nbytes>
    84bc:	e1a01000 	mov	r1, r0
    84c0:	e1a02004 	mov	r2, r4
    84c4:	e1a00005 	mov	r0, r5
    84c8:	ebffffab 	bl	837c <check_mem>
    84cc:	e3500000 	cmp	r0, #0
    84d0:	08bd8070 	popeq	{r4, r5, r6, pc}
    84d4:	e3a00001 	mov	r0, #1
    84d8:	e8bd8070 	pop	{r4, r5, r6, pc}

000084dc <ck_init>:
    84dc:	e92d4070 	push	{r4, r5, r6, lr}
    84e0:	e59f3054 	ldr	r3, [pc, #84]	; 853c <ck_init+0x60>
    84e4:	e5933000 	ldr	r3, [r3]
    84e8:	e3130007 	tst	r3, #7
    84ec:	1a00000b 	bne	8520 <ck_init+0x44>
    84f0:	e1a04000 	mov	r4, r0
    84f4:	e1a05001 	mov	r5, r1
    84f8:	e3a02080 	mov	r2, #128	; 0x80
    84fc:	e3a01038 	mov	r1, #56	; 0x38
    8500:	e59f0038 	ldr	r0, [pc, #56]	; 8540 <ck_init+0x64>
    8504:	eb00015b 	bl	8a78 <printk>
    8508:	e59f302c 	ldr	r3, [pc, #44]	; 853c <ck_init+0x60>
    850c:	e5834000 	str	r4, [r3]
    8510:	e5834004 	str	r4, [r3, #4]
    8514:	e0844005 	add	r4, r4, r5
    8518:	e5834008 	str	r4, [r3, #8]
    851c:	e8bd8070 	pop	{r4, r5, r6, pc}
    8520:	eb00016f 	bl	8ae4 <rpi_reset_putc>
    8524:	e3a0300a 	mov	r3, #10
    8528:	e59f2014 	ldr	r2, [pc, #20]	; 8544 <ck_init+0x68>
    852c:	e59f1014 	ldr	r1, [pc, #20]	; 8548 <ck_init+0x6c>
    8530:	e59f0014 	ldr	r0, [pc, #20]	; 854c <ck_init+0x70>
    8534:	eb00014f 	bl	8a78 <printk>
    8538:	eb0002c8 	bl	9060 <clean_reboot>
    853c:	00009c24 	andeq	r9, r0, r4, lsr #24
    8540:	000097b4 			; <UNDEFINED> instruction: 0x000097b4
    8544:	000099dc 	ldrdeq	r9, [r0], -ip
    8548:	00009780 	andeq	r9, r0, r0, lsl #15
    854c:	0000978c 	andeq	r9, r0, ip, lsl #15

00008550 <ckfree>:
    8550:	e92d41f0 	push	{r4, r5, r6, r7, r8, lr}
    8554:	e1a05000 	mov	r5, r0
    8558:	e1a07001 	mov	r7, r1
    855c:	e1a06002 	mov	r6, r2
    8560:	e1a08003 	mov	r8, r3
    8564:	ebfffef7 	bl	8148 <b_addr_to_hdr>
    8568:	e59fc080 	ldr	ip, [pc, #128]	; 85f0 <ckfree+0xa0>
    856c:	e59cc004 	ldr	ip, [ip, #4]
    8570:	e35c0000 	cmp	ip, #0
    8574:	0a000016 	beq	85d4 <ckfree+0x84>
    8578:	e1a04000 	mov	r4, r0
    857c:	e59f0070 	ldr	r0, [pc, #112]	; 85f4 <ckfree+0xa4>
    8580:	eb00013c 	bl	8a78 <printk>
    8584:	e1a01005 	mov	r1, r5
    8588:	e59f0068 	ldr	r0, [pc, #104]	; 85f8 <ckfree+0xa8>
    858c:	eb000139 	bl	8a78 <printk>
    8590:	e1a00004 	mov	r0, r4
    8594:	ebffffb7 	bl	8478 <check_block>
    8598:	e3500000 	cmp	r0, #0
    859c:	08bd81f0 	popeq	{r4, r5, r6, r7, r8, pc}
    85a0:	e584701c 	str	r7, [r4, #28]
    85a4:	e5846020 	str	r6, [r4, #32]
    85a8:	e5848024 	str	r8, [r4, #36]	; 0x24
    85ac:	e3a0300c 	mov	r3, #12
    85b0:	e5843008 	str	r3, [r4, #8]
    85b4:	e1a00004 	mov	r0, r4
    85b8:	ebfffed5 	bl	8114 <b_alloc_ptr>
    85bc:	e5941000 	ldr	r1, [r4]
    85c0:	ebffff25 	bl	825c <mark_mem>
    85c4:	e1a00004 	mov	r0, r4
    85c8:	ebffff28 	bl	8270 <hdr_cksum>
    85cc:	e584000c 	str	r0, [r4, #12]
    85d0:	e8bd81f0 	pop	{r4, r5, r6, r7, r8, pc}
    85d4:	eb000142 	bl	8ae4 <rpi_reset_putc>
    85d8:	e3a03074 	mov	r3, #116	; 0x74
    85dc:	e59f2018 	ldr	r2, [pc, #24]	; 85fc <ckfree+0xac>
    85e0:	e59f1018 	ldr	r1, [pc, #24]	; 8600 <ckfree+0xb0>
    85e4:	e59f0018 	ldr	r0, [pc, #24]	; 8604 <ckfree+0xb4>
    85e8:	eb000122 	bl	8a78 <printk>
    85ec:	eb00029b 	bl	9060 <clean_reboot>
    85f0:	00009c24 	andeq	r9, r0, r4, lsr #24
    85f4:	000096a4 	andeq	r9, r0, r4, lsr #13
    85f8:	00009804 	andeq	r9, r0, r4, lsl #16
    85fc:	000099e4 	andeq	r9, r0, r4, ror #19
    8600:	00009780 	andeq	r9, r0, r0, lsl #15
    8604:	000097d0 	ldrdeq	r9, [r0], -r0

00008608 <ckalloc>:
    8608:	e92d43f0 	push	{r4, r5, r6, r7, r8, r9, lr}
    860c:	e24dd00c 	sub	sp, sp, #12
    8610:	e1a06003 	mov	r6, r3
    8614:	e59f31d4 	ldr	r3, [pc, #468]	; 87f0 <ckalloc+0x1e8>
    8618:	e5933004 	ldr	r3, [r3, #4]
    861c:	e3530000 	cmp	r3, #0
    8620:	0a000042 	beq	8730 <ckalloc+0x128>
    8624:	e1a05000 	mov	r5, r0
    8628:	e1a08001 	mov	r8, r1
    862c:	e1a07002 	mov	r7, r2
    8630:	e59f01bc 	ldr	r0, [pc, #444]	; 87f4 <ckalloc+0x1ec>
    8634:	eb00010f 	bl	8a78 <printk>
    8638:	e1a01005 	mov	r1, r5
    863c:	e59f01b4 	ldr	r0, [pc, #436]	; 87f8 <ckalloc+0x1f0>
    8640:	eb00010c 	bl	8a78 <printk>
    8644:	e2850007 	add	r0, r5, #7
    8648:	e3c00007 	bic	r0, r0, #7
    864c:	e2809f4e 	add	r9, r0, #312	; 0x138
    8650:	e1550009 	cmp	r5, r9
    8654:	8a00003c 	bhi	874c <ckalloc+0x144>
    8658:	e59f3190 	ldr	r3, [pc, #400]	; 87f0 <ckalloc+0x1e8>
    865c:	e5934004 	ldr	r4, [r3, #4]
    8660:	e0842009 	add	r2, r4, r9
    8664:	e5933008 	ldr	r3, [r3, #8]
    8668:	e1520003 	cmp	r2, r3
    866c:	2a000043 	bcs	8780 <ckalloc+0x178>
    8670:	e5845000 	str	r5, [r4]
    8674:	e0400005 	sub	r0, r0, r5
    8678:	e5840004 	str	r0, [r4, #4]
    867c:	e3a0300b 	mov	r3, #11
    8680:	e5843008 	str	r3, [r4, #8]
    8684:	e5848010 	str	r8, [r4, #16]
    8688:	e5847014 	str	r7, [r4, #20]
    868c:	e5846018 	str	r6, [r4, #24]
    8690:	e3a03001 	mov	r3, #1
    8694:	e5843028 	str	r3, [r4, #40]	; 0x28
    8698:	e3a03000 	mov	r3, #0
    869c:	e584302c 	str	r3, [r4, #44]	; 0x2c
    86a0:	e1a00004 	mov	r0, r4
    86a4:	ebfffe98 	bl	810c <b_rz1_ptr>
    86a8:	e3a01080 	mov	r1, #128	; 0x80
    86ac:	ebfffeea 	bl	825c <mark_mem>
    86b0:	e1a00004 	mov	r0, r4
    86b4:	ebfffe9a 	bl	8124 <b_rz2_ptr>
    86b8:	e1a06000 	mov	r6, r0
    86bc:	e1a00004 	mov	r0, r4
    86c0:	ebfffe9d 	bl	813c <b_rz2_nbytes>
    86c4:	e1a01000 	mov	r1, r0
    86c8:	e1a00006 	mov	r0, r6
    86cc:	ebfffee2 	bl	825c <mark_mem>
    86d0:	e1a00004 	mov	r0, r4
    86d4:	ebfffee5 	bl	8270 <hdr_cksum>
    86d8:	e584000c 	str	r0, [r4, #12]
    86dc:	e59f210c 	ldr	r2, [pc, #268]	; 87f0 <ckalloc+0x1e8>
    86e0:	e5923004 	ldr	r3, [r2, #4]
    86e4:	e0833009 	add	r3, r3, r9
    86e8:	e5823004 	str	r3, [r2, #4]
    86ec:	e1a00004 	mov	r0, r4
    86f0:	ebffff60 	bl	8478 <check_block>
    86f4:	e3500000 	cmp	r0, #0
    86f8:	0a000035 	beq	87d4 <ckalloc+0x1cc>
    86fc:	e1a00004 	mov	r0, r4
    8700:	ebfffe83 	bl	8114 <b_alloc_ptr>
    8704:	e1a04000 	mov	r4, r0
    8708:	e59f00e4 	ldr	r0, [pc, #228]	; 87f4 <ckalloc+0x1ec>
    870c:	eb0000d9 	bl	8a78 <printk>
    8710:	e1a03004 	mov	r3, r4
    8714:	e1a02009 	mov	r2, r9
    8718:	e1a01005 	mov	r1, r5
    871c:	e59f00d8 	ldr	r0, [pc, #216]	; 87fc <ckalloc+0x1f4>
    8720:	eb0000d4 	bl	8a78 <printk>
    8724:	e1a00004 	mov	r0, r4
    8728:	e28dd00c 	add	sp, sp, #12
    872c:	e8bd83f0 	pop	{r4, r5, r6, r7, r8, r9, pc}
    8730:	eb0000eb 	bl	8ae4 <rpi_reset_putc>
    8734:	e3a03087 	mov	r3, #135	; 0x87
    8738:	e59f20c0 	ldr	r2, [pc, #192]	; 8800 <ckalloc+0x1f8>
    873c:	e59f10c0 	ldr	r1, [pc, #192]	; 8804 <ckalloc+0x1fc>
    8740:	e59f00c0 	ldr	r0, [pc, #192]	; 8808 <ckalloc+0x200>
    8744:	eb0000cb 	bl	8a78 <printk>
    8748:	eb000244 	bl	9060 <clean_reboot>
    874c:	e59f00b8 	ldr	r0, [pc, #184]	; 880c <ckalloc+0x204>
    8750:	eb0000c8 	bl	8a78 <printk>
    8754:	e1a01005 	mov	r1, r5
    8758:	e59f00b0 	ldr	r0, [pc, #176]	; 8810 <ckalloc+0x208>
    875c:	eb0000c5 	bl	8a78 <printk>
    8760:	eb0000df 	bl	8ae4 <rpi_reset_putc>
    8764:	e58d5000 	str	r5, [sp]
    8768:	e3a0308f 	mov	r3, #143	; 0x8f
    876c:	e59f208c 	ldr	r2, [pc, #140]	; 8800 <ckalloc+0x1f8>
    8770:	e59f108c 	ldr	r1, [pc, #140]	; 8804 <ckalloc+0x1fc>
    8774:	e59f0098 	ldr	r0, [pc, #152]	; 8814 <ckalloc+0x20c>
    8778:	eb0000be 	bl	8a78 <printk>
    877c:	eb000237 	bl	9060 <clean_reboot>
    8780:	e59f0084 	ldr	r0, [pc, #132]	; 880c <ckalloc+0x204>
    8784:	eb0000bb 	bl	8a78 <printk>
    8788:	e59f4060 	ldr	r4, [pc, #96]	; 87f0 <ckalloc+0x1e8>
    878c:	e5941008 	ldr	r1, [r4, #8]
    8790:	e5943004 	ldr	r3, [r4, #4]
    8794:	e1a02009 	mov	r2, r9
    8798:	e0411003 	sub	r1, r1, r3
    879c:	e59f0074 	ldr	r0, [pc, #116]	; 8818 <ckalloc+0x210>
    87a0:	eb0000b4 	bl	8a78 <printk>
    87a4:	eb0000ce 	bl	8ae4 <rpi_reset_putc>
    87a8:	e58d9004 	str	r9, [sp, #4]
    87ac:	e5943008 	ldr	r3, [r4, #8]
    87b0:	e5942004 	ldr	r2, [r4, #4]
    87b4:	e0433002 	sub	r3, r3, r2
    87b8:	e58d3000 	str	r3, [sp]
    87bc:	e3a03092 	mov	r3, #146	; 0x92
    87c0:	e59f2038 	ldr	r2, [pc, #56]	; 8800 <ckalloc+0x1f8>
    87c4:	e59f1038 	ldr	r1, [pc, #56]	; 8804 <ckalloc+0x1fc>
    87c8:	e59f004c 	ldr	r0, [pc, #76]	; 881c <ckalloc+0x214>
    87cc:	eb0000a9 	bl	8a78 <printk>
    87d0:	eb000222 	bl	9060 <clean_reboot>
    87d4:	eb0000c2 	bl	8ae4 <rpi_reset_putc>
    87d8:	e3a030a1 	mov	r3, #161	; 0xa1
    87dc:	e59f201c 	ldr	r2, [pc, #28]	; 8800 <ckalloc+0x1f8>
    87e0:	e59f101c 	ldr	r1, [pc, #28]	; 8804 <ckalloc+0x1fc>
    87e4:	e59f0034 	ldr	r0, [pc, #52]	; 8820 <ckalloc+0x218>
    87e8:	eb0000a2 	bl	8a78 <printk>
    87ec:	eb00021b 	bl	9060 <clean_reboot>
    87f0:	00009c24 	andeq	r9, r0, r4, lsr #24
    87f4:	000096a4 	andeq	r9, r0, r4, lsr #13
    87f8:	00009810 	andeq	r9, r0, r0, lsl r8
    87fc:	0000991c 	andeq	r9, r0, ip, lsl r9
    8800:	000099ec 	andeq	r9, r0, ip, ror #19
    8804:	00009780 	andeq	r9, r0, r0, lsl #15
    8808:	000097d0 	ldrdeq	r9, [r0], -r0
    880c:	00009828 	andeq	r9, r0, r8, lsr #16
    8810:	00009834 	andeq	r9, r0, r4, lsr r8
    8814:	0000985c 	andeq	r9, r0, ip, asr r8
    8818:	00009894 	muleq	r0, r4, r8
    881c:	000098c0 	andeq	r9, r0, r0, asr #17
    8820:	000098fc 	strdeq	r9, [r0], -ip

00008824 <ck_heap_errors>:
    8824:	e92d41f0 	push	{r4, r5, r6, r7, r8, lr}
    8828:	e59f4130 	ldr	r4, [pc, #304]	; 8960 <ck_heap_errors+0x13c>
    882c:	e5943004 	ldr	r3, [r4, #4]
    8830:	e5945000 	ldr	r5, [r4]
    8834:	e0435005 	sub	r5, r3, r5
    8838:	e5946008 	ldr	r6, [r4, #8]
    883c:	e0466003 	sub	r6, r6, r3
    8840:	e59f011c 	ldr	r0, [pc, #284]	; 8964 <ck_heap_errors+0x140>
    8844:	eb00008b 	bl	8a78 <printk>
    8848:	e1a02006 	mov	r2, r6
    884c:	e1a01005 	mov	r1, r5
    8850:	e59f0110 	ldr	r0, [pc, #272]	; 8968 <ck_heap_errors+0x144>
    8854:	eb000087 	bl	8a78 <printk>
    8858:	e5944000 	ldr	r4, [r4]
    885c:	e3a05000 	mov	r5, #0
    8860:	e1a06005 	mov	r6, r5
    8864:	ea000012 	b	88b4 <ck_heap_errors+0x90>
    8868:	e2866001 	add	r6, r6, #1
    886c:	e2855001 	add	r5, r5, #1
    8870:	e3560000 	cmp	r6, #0
    8874:	0a000033 	beq	8948 <ck_heap_errors+0x124>
    8878:	e59f00e4 	ldr	r0, [pc, #228]	; 8964 <ck_heap_errors+0x140>
    887c:	eb00007d 	bl	8a78 <printk>
    8880:	e1a02006 	mov	r2, r6
    8884:	e1a01005 	mov	r1, r5
    8888:	e59f00dc 	ldr	r0, [pc, #220]	; 896c <ck_heap_errors+0x148>
    888c:	eb000079 	bl	8a78 <printk>
    8890:	e1a00006 	mov	r0, r6
    8894:	e8bd81f0 	pop	{r4, r5, r6, r7, r8, pc}
    8898:	e2866001 	add	r6, r6, #1
    889c:	e2855001 	add	r5, r5, #1
    88a0:	e5943000 	ldr	r3, [r4]
    88a4:	e5942004 	ldr	r2, [r4, #4]
    88a8:	e0833002 	add	r3, r3, r2
    88ac:	e2833f4e 	add	r3, r3, #312	; 0x138
    88b0:	e0844003 	add	r4, r4, r3
    88b4:	e59f30a4 	ldr	r3, [pc, #164]	; 8960 <ck_heap_errors+0x13c>
    88b8:	e5933004 	ldr	r3, [r3, #4]
    88bc:	e1530004 	cmp	r3, r4
    88c0:	9affffea 	bls	8870 <ck_heap_errors+0x4c>
    88c4:	e1a00004 	mov	r0, r4
    88c8:	ebfffe71 	bl	8294 <check_hdr>
    88cc:	e3500000 	cmp	r0, #0
    88d0:	0affffe4 	beq	8868 <ck_heap_errors+0x44>
    88d4:	e1a00004 	mov	r0, r4
    88d8:	ebfffe0b 	bl	810c <b_rz1_ptr>
    88dc:	e1a02004 	mov	r2, r4
    88e0:	e3a01080 	mov	r1, #128	; 0x80
    88e4:	ebfffea4 	bl	837c <check_mem>
    88e8:	e3500000 	cmp	r0, #0
    88ec:	0affffe9 	beq	8898 <ck_heap_errors+0x74>
    88f0:	e1a00004 	mov	r0, r4
    88f4:	ebfffe0a 	bl	8124 <b_rz2_ptr>
    88f8:	e1a07000 	mov	r7, r0
    88fc:	e1a00004 	mov	r0, r4
    8900:	ebfffe0d 	bl	813c <b_rz2_nbytes>
    8904:	e1a01000 	mov	r1, r0
    8908:	e1a02004 	mov	r2, r4
    890c:	e1a00007 	mov	r0, r7
    8910:	ebfffe99 	bl	837c <check_mem>
    8914:	e3500000 	cmp	r0, #0
    8918:	0affffde 	beq	8898 <ck_heap_errors+0x74>
    891c:	e5943008 	ldr	r3, [r4, #8]
    8920:	e353000c 	cmp	r3, #12
    8924:	1affffdc 	bne	889c <ck_heap_errors+0x78>
    8928:	e1a00004 	mov	r0, r4
    892c:	ebfffdf8 	bl	8114 <b_alloc_ptr>
    8930:	e1a02004 	mov	r2, r4
    8934:	e5941000 	ldr	r1, [r4]
    8938:	ebfffe04 	bl	8150 <check_free_write>
    893c:	e3500000 	cmp	r0, #0
    8940:	02866001 	addeq	r6, r6, #1
    8944:	eaffffd4 	b	889c <ck_heap_errors+0x78>
    8948:	e59f0014 	ldr	r0, [pc, #20]	; 8964 <ck_heap_errors+0x140>
    894c:	eb000049 	bl	8a78 <printk>
    8950:	e1a01005 	mov	r1, r5
    8954:	e59f0014 	ldr	r0, [pc, #20]	; 8970 <ck_heap_errors+0x14c>
    8958:	eb000046 	bl	8a78 <printk>
    895c:	eaffffcb 	b	8890 <ck_heap_errors+0x6c>
    8960:	00009c24 	andeq	r9, r0, r4, lsr #24
    8964:	000096a4 	andeq	r9, r0, r4, lsr #13
    8968:	0000994c 	andeq	r9, r0, ip, asr #18
    896c:	00009984 	andeq	r9, r0, r4, lsl #19
    8970:	000099ac 	andeq	r9, r0, ip, lsr #19

00008974 <fast_hash>:
    8974:	e3500000 	cmp	r0, #0
    8978:	13510000 	cmpne	r1, #0
    897c:	da000035 	ble	8a58 <fast_hash+0xe4>
    8980:	e52de004 	push	{lr}		; (str lr, [sp, #-4]!)
    8984:	e1a03001 	mov	r3, r1
    8988:	e1a0c000 	mov	ip, r0
    898c:	e201e003 	and	lr, r1, #3
    8990:	e1a01141 	asr	r1, r1, #2
    8994:	e3510000 	cmp	r1, #0
    8998:	da00000c 	ble	89d0 <fast_hash+0x5c>
    899c:	e5dc0001 	ldrb	r0, [ip, #1]
    89a0:	e5dc2000 	ldrb	r2, [ip]
    89a4:	e0822400 	add	r2, r2, r0, lsl #8
    89a8:	e0822003 	add	r2, r2, r3
    89ac:	e5dc0003 	ldrb	r0, [ip, #3]
    89b0:	e5dc3002 	ldrb	r3, [ip, #2]
    89b4:	e0833400 	add	r3, r3, r0, lsl #8
    89b8:	e0223583 	eor	r3, r2, r3, lsl #11
    89bc:	e0233802 	eor	r3, r3, r2, lsl #16
    89c0:	e28cc004 	add	ip, ip, #4
    89c4:	e08335a3 	add	r3, r3, r3, lsr #11
    89c8:	e2411001 	sub	r1, r1, #1
    89cc:	eafffff0 	b	8994 <fast_hash+0x20>
    89d0:	e35e0002 	cmp	lr, #2
    89d4:	0a000013 	beq	8a28 <fast_hash+0xb4>
    89d8:	e35e0003 	cmp	lr, #3
    89dc:	0a000008 	beq	8a04 <fast_hash+0x90>
    89e0:	e35e0001 	cmp	lr, #1
    89e4:	0a000016 	beq	8a44 <fast_hash+0xd0>
    89e8:	e0230183 	eor	r0, r3, r3, lsl #3
    89ec:	e08002a0 	add	r0, r0, r0, lsr #5
    89f0:	e0200200 	eor	r0, r0, r0, lsl #4
    89f4:	e08008a0 	add	r0, r0, r0, lsr #17
    89f8:	e0200c80 	eor	r0, r0, r0, lsl #25
    89fc:	e0800320 	add	r0, r0, r0, lsr #6
    8a00:	e49df004 	pop	{pc}		; (ldr pc, [sp], #4)
    8a04:	e5dc1001 	ldrb	r1, [ip, #1]
    8a08:	e5dc2000 	ldrb	r2, [ip]
    8a0c:	e0822401 	add	r2, r2, r1, lsl #8
    8a10:	e0823003 	add	r3, r2, r3
    8a14:	e0233803 	eor	r3, r3, r3, lsl #16
    8a18:	e1dc20d2 	ldrsb	r2, [ip, #2]
    8a1c:	e0233902 	eor	r3, r3, r2, lsl #18
    8a20:	e08335a3 	add	r3, r3, r3, lsr #11
    8a24:	eaffffef 	b	89e8 <fast_hash+0x74>
    8a28:	e5dc1001 	ldrb	r1, [ip, #1]
    8a2c:	e5dc2000 	ldrb	r2, [ip]
    8a30:	e0822401 	add	r2, r2, r1, lsl #8
    8a34:	e0823003 	add	r3, r2, r3
    8a38:	e0233583 	eor	r3, r3, r3, lsl #11
    8a3c:	e08338a3 	add	r3, r3, r3, lsr #17
    8a40:	eaffffe8 	b	89e8 <fast_hash+0x74>
    8a44:	e1dc20d0 	ldrsb	r2, [ip]
    8a48:	e0823003 	add	r3, r2, r3
    8a4c:	e0233503 	eor	r3, r3, r3, lsl #10
    8a50:	e08330a3 	add	r3, r3, r3, lsr #1
    8a54:	eaffffe3 	b	89e8 <fast_hash+0x74>
    8a58:	e3a00000 	mov	r0, #0
    8a5c:	e12fff1e 	bx	lr

00008a60 <memset>:
    8a60:	e0802002 	add	r2, r0, r2
    8a64:	e1a03000 	mov	r3, r0
    8a68:	e1530002 	cmp	r3, r2
    8a6c:	212fff1e 	bxcs	lr
    8a70:	e4c31001 	strb	r1, [r3], #1
    8a74:	eafffffb 	b	8a68 <memset+0x8>

00008a78 <printk>:
    8a78:	e92d000f 	push	{r0, r1, r2, r3}
    8a7c:	e92d4030 	push	{r4, r5, lr}
    8a80:	e24dd00c 	sub	sp, sp, #12
    8a84:	e28d301c 	add	r3, sp, #28
    8a88:	e58d3004 	str	r3, [sp, #4]
    8a8c:	e59f5034 	ldr	r5, [pc, #52]	; 8ac8 <printk+0x50>
    8a90:	e59d2018 	ldr	r2, [sp, #24]
    8a94:	e3a01b01 	mov	r1, #1024	; 0x400
    8a98:	e1a00005 	mov	r0, r5
    8a9c:	eb0000c3 	bl	8db0 <va_printk>
    8aa0:	e1a04000 	mov	r4, r0
    8aa4:	e59f3020 	ldr	r3, [pc, #32]	; 8acc <printk+0x54>
    8aa8:	e5933000 	ldr	r3, [r3]
    8aac:	e1a00005 	mov	r0, r5
    8ab0:	e12fff33 	blx	r3
    8ab4:	e1a00004 	mov	r0, r4
    8ab8:	e28dd00c 	add	sp, sp, #12
    8abc:	e8bd4030 	pop	{r4, r5, lr}
    8ac0:	e28dd010 	add	sp, sp, #16
    8ac4:	e12fff1e 	bx	lr
    8ac8:	00009c30 	andeq	r9, r0, r0, lsr ip
    8acc:	0000964c 	andeq	r9, r0, ip, asr #12

00008ad0 <internal_putchar>:
    8ad0:	e92d4010 	push	{r4, lr}
    8ad4:	e1a04000 	mov	r4, r0
    8ad8:	eb000217 	bl	933c <uart_putc>
    8adc:	e1a00004 	mov	r0, r4
    8ae0:	e8bd8010 	pop	{r4, pc}

00008ae4 <rpi_reset_putc>:
    8ae4:	e59f3008 	ldr	r3, [pc, #8]	; 8af4 <rpi_reset_putc+0x10>
    8ae8:	e59f2008 	ldr	r2, [pc, #8]	; 8af8 <rpi_reset_putc+0x14>
    8aec:	e5832000 	str	r2, [r3]
    8af0:	e12fff1e 	bx	lr
    8af4:	00009648 	andeq	r9, r0, r8, asr #12
    8af8:	00008ad0 	ldrdeq	r8, [r0], -r0

00008afc <rpi_set_putc>:
    8afc:	e59f3004 	ldr	r3, [pc, #4]	; 8b08 <rpi_set_putc+0xc>
    8b00:	e5830000 	str	r0, [r3]
    8b04:	e12fff1e 	bx	lr
    8b08:	00009648 	andeq	r9, r0, r8, asr #12

00008b0c <internal_putk>:
    8b0c:	e92d4010 	push	{r4, lr}
    8b10:	e1a04000 	mov	r4, r0
    8b14:	e5d40000 	ldrb	r0, [r4]
    8b18:	e3500000 	cmp	r0, #0
    8b1c:	0a000004 	beq	8b34 <internal_putk+0x28>
    8b20:	e59f3014 	ldr	r3, [pc, #20]	; 8b3c <internal_putk+0x30>
    8b24:	e5933000 	ldr	r3, [r3]
    8b28:	e12fff33 	blx	r3
    8b2c:	e2844001 	add	r4, r4, #1
    8b30:	eafffff7 	b	8b14 <internal_putk+0x8>
    8b34:	e3a00001 	mov	r0, #1
    8b38:	e8bd8010 	pop	{r4, pc}
    8b3c:	00009648 	andeq	r9, r0, r8, asr #12

00008b40 <isdigit>:
    8b40:	e2400030 	sub	r0, r0, #48	; 0x30
    8b44:	e3500009 	cmp	r0, #9
    8b48:	83a00000 	movhi	r0, #0
    8b4c:	93a00001 	movls	r0, #1
    8b50:	e12fff1e 	bx	lr

00008b54 <pad>:
    8b54:	e0401001 	sub	r1, r0, r1
    8b58:	e1510002 	cmp	r1, r2
    8b5c:	b3a03020 	movlt	r3, #32
    8b60:	b4c03001 	strblt	r3, [r0], #1
    8b64:	b2811001 	addlt	r1, r1, #1
    8b68:	bafffffa 	blt	8b58 <pad+0x4>
    8b6c:	e3a03000 	mov	r3, #0
    8b70:	e5c03000 	strb	r3, [r0]
    8b74:	e12fff1e 	bx	lr

00008b78 <reverse>:
    8b78:	e042c003 	sub	ip, r2, r3
    8b7c:	e28cc001 	add	ip, ip, #1
    8b80:	e15c0001 	cmp	ip, r1
    8b84:	c04cc001 	subgt	ip, ip, r1
    8b88:	c083300c 	addgt	r3, r3, ip
    8b8c:	e2421001 	sub	r1, r2, #1
    8b90:	e1a02000 	mov	r2, r0
    8b94:	e1510003 	cmp	r1, r3
    8b98:	2451c001 	ldrbcs	ip, [r1], #-1
    8b9c:	24c2c001 	strbcs	ip, [r2], #1
    8ba0:	2afffffb 	bcs	8b94 <reverse+0x1c>
    8ba4:	e3a03000 	mov	r3, #0
    8ba8:	e5c23000 	strb	r3, [r2]
    8bac:	e12fff1e 	bx	lr

00008bb0 <emit>:
    8bb0:	e92d40f0 	push	{r4, r5, r6, r7, lr}
    8bb4:	e24dd044 	sub	sp, sp, #68	; 0x44
    8bb8:	e1a05001 	mov	r5, r1
    8bbc:	e1a04002 	mov	r4, r2
    8bc0:	e59d2058 	ldr	r2, [sp, #88]	; 0x58
    8bc4:	e1520004 	cmp	r2, r4
    8bc8:	c2442001 	subgt	r2, r4, #1
    8bcc:	e1a0c003 	mov	ip, r3
    8bd0:	e2400002 	sub	r0, r0, #2
    8bd4:	e350000e 	cmp	r0, #14
    8bd8:	979ff100 	ldrls	pc, [pc, r0, lsl #2]
    8bdc:	ea000050 	b	8d24 <emit+0x174>
    8be0:	00008cfc 	strdeq	r8, [r0], -ip
    8be4:	00008d24 	andeq	r8, r0, r4, lsr #26
    8be8:	00008d24 	andeq	r8, r0, r4, lsr #26
    8bec:	00008d24 	andeq	r8, r0, r4, lsr #26
    8bf0:	00008d24 	andeq	r8, r0, r4, lsr #26
    8bf4:	00008d24 	andeq	r8, r0, r4, lsr #26
    8bf8:	00008cf0 	strdeq	r8, [r0], -r0
    8bfc:	00008d24 	andeq	r8, r0, r4, lsr #26
    8c00:	00008c1c 	andeq	r8, r0, ip, lsl ip
    8c04:	00008d24 	andeq	r8, r0, r4, lsr #26
    8c08:	00008d24 	andeq	r8, r0, r4, lsr #26
    8c0c:	00008d24 	andeq	r8, r0, r4, lsr #26
    8c10:	00008d24 	andeq	r8, r0, r4, lsr #26
    8c14:	00008d24 	andeq	r8, r0, r4, lsr #26
    8c18:	00008c94 	muleq	r0, r4, ip
    8c1c:	e59d105c 	ldr	r1, [sp, #92]	; 0x5c
    8c20:	e2511000 	subs	r1, r1, #0
    8c24:	13a01001 	movne	r1, #1
    8c28:	e0111fa3 	ands	r1, r1, r3, lsr #31
    8c2c:	0a000016 	beq	8c8c <emit+0xdc>
    8c30:	e263c000 	rsb	ip, r3, #0
    8c34:	e3a06001 	mov	r6, #1
    8c38:	e1a0000d 	mov	r0, sp
    8c3c:	e59f30fc 	ldr	r3, [pc, #252]	; 8d40 <emit+0x190>
    8c40:	e0831c93 	umull	r1, r3, r3, ip
    8c44:	e1a031a3 	lsr	r3, r3, #3
    8c48:	e1a0e003 	mov	lr, r3
    8c4c:	e0833103 	add	r3, r3, r3, lsl #2
    8c50:	e04c3083 	sub	r3, ip, r3, lsl #1
    8c54:	e1a01000 	mov	r1, r0
    8c58:	e2800001 	add	r0, r0, #1
    8c5c:	e59f70e0 	ldr	r7, [pc, #224]	; 8d44 <emit+0x194>
    8c60:	e7d73003 	ldrb	r3, [r7, r3]
    8c64:	e5c13000 	strb	r3, [r1]
    8c68:	e1a0300c 	mov	r3, ip
    8c6c:	e1a0c00e 	mov	ip, lr
    8c70:	e3530009 	cmp	r3, #9
    8c74:	8afffff0 	bhi	8c3c <emit+0x8c>
    8c78:	e3560000 	cmp	r6, #0
    8c7c:	13a0302d 	movne	r3, #45	; 0x2d
    8c80:	15c03000 	strbne	r3, [r0]
    8c84:	12810002 	addne	r0, r1, #2
    8c88:	ea00000f 	b	8ccc <emit+0x11c>
    8c8c:	e3a06000 	mov	r6, #0
    8c90:	eaffffe8 	b	8c38 <emit+0x88>
    8c94:	e1a0100d 	mov	r1, sp
    8c98:	e20c000f 	and	r0, ip, #15
    8c9c:	e59fe0a4 	ldr	lr, [pc, #164]	; 8d48 <emit+0x198>
    8ca0:	e7de0000 	ldrb	r0, [lr, r0]
    8ca4:	e5c10000 	strb	r0, [r1]
    8ca8:	e2811001 	add	r1, r1, #1
    8cac:	e35c000f 	cmp	ip, #15
    8cb0:	e1a0c22c 	lsr	ip, ip, #4
    8cb4:	8afffff7 	bhi	8c98 <emit+0xe8>
    8cb8:	e1a00001 	mov	r0, r1
    8cbc:	e3a03078 	mov	r3, #120	; 0x78
    8cc0:	e4c03002 	strb	r3, [r0], #2
    8cc4:	e3a03030 	mov	r3, #48	; 0x30
    8cc8:	e5c13001 	strb	r3, [r1, #1]
    8ccc:	e1a0100d 	mov	r1, sp
    8cd0:	ebffff9f 	bl	8b54 <pad>
    8cd4:	e1a02000 	mov	r2, r0
    8cd8:	e1a0300d 	mov	r3, sp
    8cdc:	e1a01004 	mov	r1, r4
    8ce0:	e1a00005 	mov	r0, r5
    8ce4:	ebffffa3 	bl	8b78 <reverse>
    8ce8:	e28dd044 	add	sp, sp, #68	; 0x44
    8cec:	e8bd80f0 	pop	{r4, r5, r6, r7, pc}
    8cf0:	e5cd3000 	strb	r3, [sp]
    8cf4:	e28d0001 	add	r0, sp, #1
    8cf8:	eafffff3 	b	8ccc <emit+0x11c>
    8cfc:	e1a0000d 	mov	r0, sp
    8d00:	e20c1001 	and	r1, ip, #1
    8d04:	e59fe040 	ldr	lr, [pc, #64]	; 8d4c <emit+0x19c>
    8d08:	e7de1001 	ldrb	r1, [lr, r1]
    8d0c:	e5c01000 	strb	r1, [r0]
    8d10:	e2800001 	add	r0, r0, #1
    8d14:	e35c0001 	cmp	ip, #1
    8d18:	e1a0c0ac 	lsr	ip, ip, #1
    8d1c:	8afffff7 	bhi	8d00 <emit+0x150>
    8d20:	eaffffe9 	b	8ccc <emit+0x11c>
    8d24:	ebffff6e 	bl	8ae4 <rpi_reset_putc>
    8d28:	e3a03077 	mov	r3, #119	; 0x77
    8d2c:	e59f201c 	ldr	r2, [pc, #28]	; 8d50 <emit+0x1a0>
    8d30:	e59f101c 	ldr	r1, [pc, #28]	; 8d54 <emit+0x1a4>
    8d34:	e59f001c 	ldr	r0, [pc, #28]	; 8d58 <emit+0x1a8>
    8d38:	ebffff4e 	bl	8a78 <printk>
    8d3c:	eb0000c7 	bl	9060 <clean_reboot>
    8d40:	cccccccd 	stclgt	12, cr12, [ip], {205}	; 0xcd
    8d44:	00009a1c 	andeq	r9, r0, ip, lsl sl
    8d48:	00009a28 	andeq	r9, r0, r8, lsr #20
    8d4c:	00009a3c 	andeq	r9, r0, ip, lsr sl
    8d50:	00009ad4 	ldrdeq	r9, [r0], -r4
    8d54:	000099f4 	strdeq	r9, [r0], -r4
    8d58:	00009a08 	andeq	r9, r0, r8, lsl #20

00008d5c <rpi_set_output>:
    8d5c:	e3500000 	cmp	r0, #0
    8d60:	0a000005 	beq	8d7c <rpi_set_output+0x20>
    8d64:	e59f3030 	ldr	r3, [pc, #48]	; 8d9c <rpi_set_output+0x40>
    8d68:	e5830000 	str	r0, [r3]
    8d6c:	e3510000 	cmp	r1, #0
    8d70:	159f3028 	ldrne	r3, [pc, #40]	; 8da0 <rpi_set_output+0x44>
    8d74:	15831000 	strne	r1, [r3]
    8d78:	e12fff1e 	bx	lr
    8d7c:	e92d4010 	push	{r4, lr}
    8d80:	ebffff57 	bl	8ae4 <rpi_reset_putc>
    8d84:	e3a03020 	mov	r3, #32
    8d88:	e59f2014 	ldr	r2, [pc, #20]	; 8da4 <rpi_set_output+0x48>
    8d8c:	e59f1014 	ldr	r1, [pc, #20]	; 8da8 <rpi_set_output+0x4c>
    8d90:	e59f0014 	ldr	r0, [pc, #20]	; 8dac <rpi_set_output+0x50>
    8d94:	ebffff37 	bl	8a78 <printk>
    8d98:	eb0000b0 	bl	9060 <clean_reboot>
    8d9c:	00009648 	andeq	r9, r0, r8, asr #12
    8da0:	0000964c 	andeq	r9, r0, ip, asr #12
    8da4:	00009adc 	ldrdeq	r9, [r0], -ip
    8da8:	000099f4 	strdeq	r9, [r0], -r4
    8dac:	00009a40 	andeq	r9, r0, r0, asr #20

00008db0 <va_printk>:
    8db0:	e92d43f0 	push	{r4, r5, r6, r7, r8, r9, lr}
    8db4:	e24dd094 	sub	sp, sp, #148	; 0x94
    8db8:	e1a07000 	mov	r7, r0
    8dbc:	e1a09002 	mov	r9, r2
    8dc0:	e58d300c 	str	r3, [sp, #12]
    8dc4:	e2411001 	sub	r1, r1, #1
    8dc8:	e0808001 	add	r8, r0, r1
    8dcc:	e3a03000 	mov	r3, #0
    8dd0:	e5c03000 	strb	r3, [r0]
    8dd4:	e1a04000 	mov	r4, r0
    8dd8:	ea000001 	b	8de4 <va_printk+0x34>
    8ddc:	e2899001 	add	r9, r9, #1
    8de0:	e4c43001 	strb	r3, [r4], #1
    8de4:	e5d93000 	ldrb	r3, [r9]
    8de8:	e3530000 	cmp	r3, #0
    8dec:	0a000091 	beq	9038 <va_printk+0x288>
    8df0:	e1540008 	cmp	r4, r8
    8df4:	2a00008f 	bcs	9038 <va_printk+0x288>
    8df8:	e3530025 	cmp	r3, #37	; 0x25
    8dfc:	1afffff6 	bne	8ddc <va_printk+0x2c>
    8e00:	e5d92001 	ldrb	r2, [r9, #1]
    8e04:	e3520025 	cmp	r2, #37	; 0x25
    8e08:	04c43001 	strbeq	r3, [r4], #1
    8e0c:	02899002 	addeq	r9, r9, #2
    8e10:	0afffff3 	beq	8de4 <va_printk+0x34>
    8e14:	e2899001 	add	r9, r9, #1
    8e18:	e3a06000 	mov	r6, #0
    8e1c:	ea000003 	b	8e30 <va_printk+0x80>
    8e20:	e0866106 	add	r6, r6, r6, lsl #2
    8e24:	e0855086 	add	r5, r5, r6, lsl #1
    8e28:	e2456030 	sub	r6, r5, #48	; 0x30
    8e2c:	e2899001 	add	r9, r9, #1
    8e30:	e5d95000 	ldrb	r5, [r9]
    8e34:	e1a00005 	mov	r0, r5
    8e38:	ebffff40 	bl	8b40 <isdigit>
    8e3c:	e3500000 	cmp	r0, #0
    8e40:	1afffff6 	bne	8e20 <va_printk+0x70>
    8e44:	e356001f 	cmp	r6, #31
    8e48:	8a00001a 	bhi	8eb8 <va_printk+0x108>
    8e4c:	e2455062 	sub	r5, r5, #98	; 0x62
    8e50:	e3550016 	cmp	r5, #22
    8e54:	979ff105 	ldrls	pc, [pc, r5, lsl #2]
    8e58:	ea00006d 	b	9014 <va_printk+0x264>
    8e5c:	00008fa0 	andeq	r8, r0, r0, lsr #31
    8e60:	00008fe4 	andeq	r8, r0, r4, ror #31
    8e64:	00008ef0 	strdeq	r8, [r0], -r0
    8e68:	00009014 	andeq	r9, r0, r4, lsl r0
    8e6c:	00008ed4 	ldrdeq	r8, [r0], -r4
    8e70:	00009014 	andeq	r9, r0, r4, lsl r0
    8e74:	00009014 	andeq	r9, r0, r4, lsl r0
    8e78:	00009014 	andeq	r9, r0, r4, lsl r0
    8e7c:	00009014 	andeq	r9, r0, r4, lsl r0
    8e80:	00009014 	andeq	r9, r0, r4, lsl r0
    8e84:	00009014 	andeq	r9, r0, r4, lsl r0
    8e88:	00009014 	andeq	r9, r0, r4, lsl r0
    8e8c:	00009014 	andeq	r9, r0, r4, lsl r0
    8e90:	00009014 	andeq	r9, r0, r4, lsl r0
    8e94:	00008f70 	andeq	r8, r0, r0, ror pc
    8e98:	00009014 	andeq	r9, r0, r4, lsl r0
    8e9c:	00009014 	andeq	r9, r0, r4, lsl r0
    8ea0:	00008fd0 	ldrdeq	r8, [r0], -r0
    8ea4:	00009014 	andeq	r9, r0, r4, lsl r0
    8ea8:	00008f40 	andeq	r8, r0, r0, asr #30
    8eac:	00009014 	andeq	r9, r0, r4, lsl r0
    8eb0:	00009014 	andeq	r9, r0, r4, lsl r0
    8eb4:	00008f70 	andeq	r8, r0, r0, ror pc
    8eb8:	ebffff09 	bl	8ae4 <rpi_reset_putc>
    8ebc:	e3a03094 	mov	r3, #148	; 0x94
    8ec0:	e59f2184 	ldr	r2, [pc, #388]	; 904c <va_printk+0x29c>
    8ec4:	e59f1184 	ldr	r1, [pc, #388]	; 9050 <va_printk+0x2a0>
    8ec8:	e59f0184 	ldr	r0, [pc, #388]	; 9054 <va_printk+0x2a4>
    8ecc:	ebfffee9 	bl	8a78 <printk>
    8ed0:	eb000062 	bl	9060 <clean_reboot>
    8ed4:	ebffff02 	bl	8ae4 <rpi_reset_putc>
    8ed8:	e3a0309a 	mov	r3, #154	; 0x9a
    8edc:	e59f2168 	ldr	r2, [pc, #360]	; 904c <va_printk+0x29c>
    8ee0:	e59f1168 	ldr	r1, [pc, #360]	; 9050 <va_printk+0x2a0>
    8ee4:	e59f016c 	ldr	r0, [pc, #364]	; 9058 <va_printk+0x2a8>
    8ee8:	ebfffee2 	bl	8a78 <printk>
    8eec:	eb00005b 	bl	9060 <clean_reboot>
    8ef0:	e59d300c 	ldr	r3, [sp, #12]
    8ef4:	e2832004 	add	r2, r3, #4
    8ef8:	e58d200c 	str	r2, [sp, #12]
    8efc:	e5933000 	ldr	r3, [r3]
    8f00:	e3a02001 	mov	r2, #1
    8f04:	e58d2004 	str	r2, [sp, #4]
    8f08:	e58d6000 	str	r6, [sp]
    8f0c:	e3a02080 	mov	r2, #128	; 0x80
    8f10:	e28d1010 	add	r1, sp, #16
    8f14:	e3a0000a 	mov	r0, #10
    8f18:	ebffff24 	bl	8bb0 <emit>
    8f1c:	e2899001 	add	r9, r9, #1
    8f20:	e1540008 	cmp	r4, r8
    8f24:	2affffae 	bcs	8de4 <va_printk+0x34>
    8f28:	e5d03000 	ldrb	r3, [r0]
    8f2c:	e3530000 	cmp	r3, #0
    8f30:	0affffab 	beq	8de4 <va_printk+0x34>
    8f34:	e2800001 	add	r0, r0, #1
    8f38:	e4c43001 	strb	r3, [r4], #1
    8f3c:	eafffff7 	b	8f20 <va_printk+0x170>
    8f40:	e59d300c 	ldr	r3, [sp, #12]
    8f44:	e2832004 	add	r2, r3, #4
    8f48:	e58d200c 	str	r2, [sp, #12]
    8f4c:	e5933000 	ldr	r3, [r3]
    8f50:	e3a02000 	mov	r2, #0
    8f54:	e58d2004 	str	r2, [sp, #4]
    8f58:	e58d6000 	str	r6, [sp]
    8f5c:	e3a02080 	mov	r2, #128	; 0x80
    8f60:	e28d1010 	add	r1, sp, #16
    8f64:	e3a0000a 	mov	r0, #10
    8f68:	ebffff10 	bl	8bb0 <emit>
    8f6c:	eaffffea 	b	8f1c <va_printk+0x16c>
    8f70:	e59d300c 	ldr	r3, [sp, #12]
    8f74:	e2832004 	add	r2, r3, #4
    8f78:	e58d200c 	str	r2, [sp, #12]
    8f7c:	e5933000 	ldr	r3, [r3]
    8f80:	e3a02000 	mov	r2, #0
    8f84:	e58d2004 	str	r2, [sp, #4]
    8f88:	e58d6000 	str	r6, [sp]
    8f8c:	e3a02080 	mov	r2, #128	; 0x80
    8f90:	e28d1010 	add	r1, sp, #16
    8f94:	e3a00010 	mov	r0, #16
    8f98:	ebffff04 	bl	8bb0 <emit>
    8f9c:	eaffffde 	b	8f1c <va_printk+0x16c>
    8fa0:	e59d300c 	ldr	r3, [sp, #12]
    8fa4:	e2832004 	add	r2, r3, #4
    8fa8:	e58d200c 	str	r2, [sp, #12]
    8fac:	e5933000 	ldr	r3, [r3]
    8fb0:	e3a02000 	mov	r2, #0
    8fb4:	e58d2004 	str	r2, [sp, #4]
    8fb8:	e58d6000 	str	r6, [sp]
    8fbc:	e3a02080 	mov	r2, #128	; 0x80
    8fc0:	e28d1010 	add	r1, sp, #16
    8fc4:	e3a00002 	mov	r0, #2
    8fc8:	ebfffef8 	bl	8bb0 <emit>
    8fcc:	eaffffd2 	b	8f1c <va_printk+0x16c>
    8fd0:	e59d300c 	ldr	r3, [sp, #12]
    8fd4:	e2832004 	add	r2, r3, #4
    8fd8:	e58d200c 	str	r2, [sp, #12]
    8fdc:	e5930000 	ldr	r0, [r3]
    8fe0:	eaffffcd 	b	8f1c <va_printk+0x16c>
    8fe4:	e59d300c 	ldr	r3, [sp, #12]
    8fe8:	e2832004 	add	r2, r3, #4
    8fec:	e58d200c 	str	r2, [sp, #12]
    8ff0:	e5933000 	ldr	r3, [r3]
    8ff4:	e3a02000 	mov	r2, #0
    8ff8:	e58d2004 	str	r2, [sp, #4]
    8ffc:	e58d6000 	str	r6, [sp]
    9000:	e3a02080 	mov	r2, #128	; 0x80
    9004:	e28d1010 	add	r1, sp, #16
    9008:	e3a00008 	mov	r0, #8
    900c:	ebfffee7 	bl	8bb0 <emit>
    9010:	eaffffc1 	b	8f1c <va_printk+0x16c>
    9014:	ebfffeb2 	bl	8ae4 <rpi_reset_putc>
    9018:	e5d93000 	ldrb	r3, [r9]
    901c:	e58d3000 	str	r3, [sp]
    9020:	e3a030bb 	mov	r3, #187	; 0xbb
    9024:	e59f2020 	ldr	r2, [pc, #32]	; 904c <va_printk+0x29c>
    9028:	e59f1020 	ldr	r1, [pc, #32]	; 9050 <va_printk+0x2a0>
    902c:	e59f0028 	ldr	r0, [pc, #40]	; 905c <va_printk+0x2ac>
    9030:	ebfffe90 	bl	8a78 <printk>
    9034:	eb000009 	bl	9060 <clean_reboot>
    9038:	e3a03000 	mov	r3, #0
    903c:	e4c43001 	strb	r3, [r4], #1
    9040:	e0440007 	sub	r0, r4, r7
    9044:	e28dd094 	add	sp, sp, #148	; 0x94
    9048:	e8bd83f0 	pop	{r4, r5, r6, r7, r8, r9, pc}
    904c:	00009aec 	andeq	r9, r0, ip, ror #21
    9050:	000099f4 	strdeq	r9, [r0], -r4
    9054:	00009a58 	andeq	r9, r0, r8, asr sl
    9058:	00009a74 	andeq	r9, r0, r4, ror sl
    905c:	00009a9c 	muleq	r0, ip, sl

00009060 <clean_reboot>:
    9060:	e92d4010 	push	{r4, lr}
    9064:	e59f3014 	ldr	r3, [pc, #20]	; 9080 <clean_reboot+0x20>
    9068:	e5933000 	ldr	r3, [r3]
    906c:	e59f0010 	ldr	r0, [pc, #16]	; 9084 <clean_reboot+0x24>
    9070:	e12fff33 	blx	r3
    9074:	e3a00064 	mov	r0, #100	; 0x64
    9078:	eb000042 	bl	9188 <delay_ms>
    907c:	eb000017 	bl	90e0 <rpi_reboot>
    9080:	0000964c 	andeq	r9, r0, ip, asr #12
    9084:	00009af8 	strdeq	r9, [r0], -r8

00009088 <_cstart>:
    9088:	e92d4010 	push	{r4, lr}
    908c:	e59f3018 	ldr	r3, [pc, #24]	; 90ac <_cstart+0x24>
    9090:	e59f2018 	ldr	r2, [pc, #24]	; 90b0 <_cstart+0x28>
    9094:	e1530002 	cmp	r3, r2
    9098:	33a02000 	movcc	r2, #0
    909c:	34832004 	strcc	r2, [r3], #4
    90a0:	3afffffa 	bcc	9090 <_cstart+0x8>
    90a4:	ebfffbd9 	bl	8010 <notmain>
    90a8:	ebffffec 	bl	9060 <clean_reboot>
    90ac:	00009c24 	andeq	r9, r0, r4, lsr #24
    90b0:	0000a030 	andeq	sl, r0, r0, lsr r0

000090b4 <at_user_level>:
    90b4:	e10f0000 	mrs	r0, CPSR
    90b8:	e200001f 	and	r0, r0, #31
    90bc:	e3500010 	cmp	r0, #16
    90c0:	13a00000 	movne	r0, #0
    90c4:	03a00001 	moveq	r0, #1
    90c8:	e12fff1e 	bx	lr

000090cc <set_user_level>:
    90cc:	e10f3000 	mrs	r3, CPSR
    90d0:	e3c3301f 	bic	r3, r3, #31
    90d4:	e3833010 	orr	r3, r3, #16
    90d8:	e129f003 	msr	CPSR_fc, r3
    90dc:	e12fff1e 	bx	lr

000090e0 <rpi_reboot>:
    90e0:	e92d4010 	push	{r4, lr}
    90e4:	ebfffff2 	bl	90b4 <at_user_level>
    90e8:	e3500000 	cmp	r0, #0
    90ec:	1a000008 	bne	9114 <rpi_reboot+0x34>
    90f0:	e3a0001e 	mov	r0, #30
    90f4:	eb000023 	bl	9188 <delay_ms>
    90f8:	e59f101c 	ldr	r1, [pc, #28]	; 911c <rpi_reboot+0x3c>
    90fc:	e59f001c 	ldr	r0, [pc, #28]	; 9120 <rpi_reboot+0x40>
    9100:	eb00002e 	bl	91c0 <PUT32>
    9104:	e59f1018 	ldr	r1, [pc, #24]	; 9124 <rpi_reboot+0x44>
    9108:	e59f0018 	ldr	r0, [pc, #24]	; 9128 <rpi_reboot+0x48>
    910c:	eb00002b 	bl	91c0 <PUT32>
    9110:	eafffffe 	b	9110 <rpi_reboot+0x30>
    9114:	ebffffec 	bl	90cc <set_user_level>
    9118:	eafffff4 	b	90f0 <rpi_reboot+0x10>
    911c:	5a000001 	bpl	9128 <rpi_reboot+0x48>
    9120:	20100024 	andscs	r0, r0, r4, lsr #32
    9124:	5a000020 	bpl	91ac <delay_sec+0xc>
    9128:	2010001c 	andscs	r0, r0, ip, lsl r0

0000912c <delay_cycles>:
    912c:	e2403001 	sub	r3, r0, #1
    9130:	e3500000 	cmp	r0, #0
    9134:	012fff1e 	bxeq	lr
    9138:	e2811000 	add	r1, r1, #0
    913c:	e1a00003 	mov	r0, r3
    9140:	eafffff9 	b	912c <delay_cycles>

00009144 <timer_get_usec_raw>:
    9144:	e92d4010 	push	{r4, lr}
    9148:	e59f0004 	ldr	r0, [pc, #4]	; 9154 <timer_get_usec_raw+0x10>
    914c:	eb000027 	bl	91f0 <GET32>
    9150:	e8bd8010 	pop	{r4, pc}
    9154:	20003004 	andcs	r3, r0, r4

00009158 <timer_get_usec>:
    9158:	e92d4010 	push	{r4, lr}
    915c:	ebfffff8 	bl	9144 <timer_get_usec_raw>
    9160:	e8bd8010 	pop	{r4, pc}

00009164 <delay_us>:
    9164:	e92d4070 	push	{r4, r5, r6, lr}
    9168:	e1a05000 	mov	r5, r0
    916c:	ebfffff9 	bl	9158 <timer_get_usec>
    9170:	e1a04000 	mov	r4, r0
    9174:	ebfffff7 	bl	9158 <timer_get_usec>
    9178:	e0400004 	sub	r0, r0, r4
    917c:	e1500005 	cmp	r0, r5
    9180:	3afffffb 	bcc	9174 <delay_us+0x10>
    9184:	e8bd8070 	pop	{r4, r5, r6, pc}

00009188 <delay_ms>:
    9188:	e92d4010 	push	{r4, lr}
    918c:	e0603280 	rsb	r3, r0, r0, lsl #5
    9190:	e0800103 	add	r0, r0, r3, lsl #2
    9194:	e1a00180 	lsl	r0, r0, #3
    9198:	ebfffff1 	bl	9164 <delay_us>
    919c:	e8bd8010 	pop	{r4, pc}

000091a0 <delay_sec>:
    91a0:	e92d4010 	push	{r4, lr}
    91a4:	e0603280 	rsb	r3, r0, r0, lsl #5
    91a8:	e0800103 	add	r0, r0, r3, lsl #2
    91ac:	e1a00180 	lsl	r0, r0, #3
    91b0:	ebfffff4 	bl	9188 <delay_ms>
    91b4:	e8bd8010 	pop	{r4, pc}

000091b8 <put32>:
    91b8:	e5801000 	str	r1, [r0]
    91bc:	e12fff1e 	bx	lr

000091c0 <PUT32>:
    91c0:	e5801000 	str	r1, [r0]
    91c4:	e12fff1e 	bx	lr

000091c8 <put16>:
    91c8:	e1c010b0 	strh	r1, [r0]
    91cc:	e12fff1e 	bx	lr

000091d0 <PUT16>:
    91d0:	e1c010b0 	strh	r1, [r0]
    91d4:	e12fff1e 	bx	lr

000091d8 <put8>:
    91d8:	e5c01000 	strb	r1, [r0]
    91dc:	e12fff1e 	bx	lr

000091e0 <PUT8>:
    91e0:	e5c01000 	strb	r1, [r0]
    91e4:	e12fff1e 	bx	lr

000091e8 <get32>:
    91e8:	e5900000 	ldr	r0, [r0]
    91ec:	e12fff1e 	bx	lr

000091f0 <GET32>:
    91f0:	e5900000 	ldr	r0, [r0]
    91f4:	e12fff1e 	bx	lr

000091f8 <GETPC>:
    91f8:	e1a0000e 	mov	r0, lr
    91fc:	e12fff1e 	bx	lr

00009200 <dummy>:
    9200:	e12fff1e 	bx	lr

00009204 <or_in32>:
    9204:	e92d4070 	push	{r4, r5, r6, lr}
    9208:	e1a04000 	mov	r4, r0
    920c:	e1a05001 	mov	r5, r1
    9210:	ebfffff4 	bl	91e8 <get32>
    9214:	e1801005 	orr	r1, r0, r5
    9218:	e1a00004 	mov	r0, r4
    921c:	ebffffe5 	bl	91b8 <put32>
    9220:	e8bd8070 	pop	{r4, r5, r6, pc}

00009224 <uart_init>:
    9224:	e92d4010 	push	{r4, lr}
    9228:	e3a01002 	mov	r1, #2
    922c:	e3a0000e 	mov	r0, #14
    9230:	eb000051 	bl	937c <gpio_set_function>
    9234:	e3a01002 	mov	r1, #2
    9238:	e3a0000f 	mov	r0, #15
    923c:	eb00004e 	bl	937c <gpio_set_function>
    9240:	eb0000fa 	bl	9630 <dev_barrier>
    9244:	e3a01001 	mov	r1, #1
    9248:	e59f0064 	ldr	r0, [pc, #100]	; 92b4 <uart_init+0x90>
    924c:	ebffffec 	bl	9204 <or_in32>
    9250:	eb0000f6 	bl	9630 <dev_barrier>
    9254:	e59f405c 	ldr	r4, [pc, #92]	; 92b8 <uart_init+0x94>
    9258:	e3a01000 	mov	r1, #0
    925c:	e1a00004 	mov	r0, r4
    9260:	ebffffd4 	bl	91b8 <put32>
    9264:	e3a01000 	mov	r1, #0
    9268:	e59f004c 	ldr	r0, [pc, #76]	; 92bc <uart_init+0x98>
    926c:	ebffffd1 	bl	91b8 <put32>
    9270:	e3a01003 	mov	r1, #3
    9274:	e59f0044 	ldr	r0, [pc, #68]	; 92c0 <uart_init+0x9c>
    9278:	ebffffce 	bl	91b8 <put32>
    927c:	e3a01000 	mov	r1, #0
    9280:	e59f003c 	ldr	r0, [pc, #60]	; 92c4 <uart_init+0xa0>
    9284:	ebffffcb 	bl	91b8 <put32>
    9288:	e3a010c7 	mov	r1, #199	; 0xc7
    928c:	e59f0034 	ldr	r0, [pc, #52]	; 92c8 <uart_init+0xa4>
    9290:	ebffffc8 	bl	91b8 <put32>
    9294:	e59f1030 	ldr	r1, [pc, #48]	; 92cc <uart_init+0xa8>
    9298:	e59f0030 	ldr	r0, [pc, #48]	; 92d0 <uart_init+0xac>
    929c:	ebffffc5 	bl	91b8 <put32>
    92a0:	e3a01003 	mov	r1, #3
    92a4:	e1a00004 	mov	r0, r4
    92a8:	ebffffc2 	bl	91b8 <put32>
    92ac:	eb0000df 	bl	9630 <dev_barrier>
    92b0:	e8bd8010 	pop	{r4, pc}
    92b4:	20215004 	eorcs	r5, r1, r4
    92b8:	20215060 	eorcs	r5, r1, r0, rrx
    92bc:	20215044 	eorcs	r5, r1, r4, asr #32
    92c0:	2021504c 	eorcs	r5, r1, ip, asr #32
    92c4:	20215050 	eorcs	r5, r1, r0, asr r0
    92c8:	20215048 	eorcs	r5, r1, r8, asr #32
    92cc:	0000010e 	andeq	r0, r0, lr, lsl #2
    92d0:	20215068 	eorcs	r5, r1, r8, rrx

000092d4 <uart_can_getc>:
    92d4:	e92d4010 	push	{r4, lr}
    92d8:	e59f0008 	ldr	r0, [pc, #8]	; 92e8 <uart_can_getc+0x14>
    92dc:	ebffffc1 	bl	91e8 <get32>
    92e0:	e2000001 	and	r0, r0, #1
    92e4:	e8bd8010 	pop	{r4, pc}
    92e8:	20215064 	eorcs	r5, r1, r4, rrx

000092ec <uart_can_putc>:
    92ec:	e92d4010 	push	{r4, lr}
    92f0:	e59f0010 	ldr	r0, [pc, #16]	; 9308 <uart_can_putc+0x1c>
    92f4:	ebffffbb 	bl	91e8 <get32>
    92f8:	e3100002 	tst	r0, #2
    92fc:	13a00001 	movne	r0, #1
    9300:	03a00000 	moveq	r0, #0
    9304:	e8bd8010 	pop	{r4, pc}
    9308:	20215064 	eorcs	r5, r1, r4, rrx

0000930c <uart_getc>:
    930c:	e92d4010 	push	{r4, lr}
    9310:	eb0000c6 	bl	9630 <dev_barrier>
    9314:	ebffffee 	bl	92d4 <uart_can_getc>
    9318:	e3500000 	cmp	r0, #0
    931c:	0afffffc 	beq	9314 <uart_getc+0x8>
    9320:	e59f0010 	ldr	r0, [pc, #16]	; 9338 <uart_getc+0x2c>
    9324:	ebffffaf 	bl	91e8 <get32>
    9328:	e6ef4070 	uxtb	r4, r0
    932c:	eb0000bf 	bl	9630 <dev_barrier>
    9330:	e1a00004 	mov	r0, r4
    9334:	e8bd8010 	pop	{r4, pc}
    9338:	20215040 	eorcs	r5, r1, r0, asr #32

0000933c <uart_putc>:
    933c:	e92d4010 	push	{r4, lr}
    9340:	e1a04000 	mov	r4, r0
    9344:	eb0000b9 	bl	9630 <dev_barrier>
    9348:	ebffffe7 	bl	92ec <uart_can_putc>
    934c:	e3500000 	cmp	r0, #0
    9350:	0afffffc 	beq	9348 <uart_putc+0xc>
    9354:	e6ef1074 	uxtb	r1, r4
    9358:	e59f0008 	ldr	r0, [pc, #8]	; 9368 <uart_putc+0x2c>
    935c:	ebffff95 	bl	91b8 <put32>
    9360:	eb0000b2 	bl	9630 <dev_barrier>
    9364:	e8bd8010 	pop	{r4, pc}
    9368:	20215040 	eorcs	r5, r1, r0, asr #32

0000936c <uart_has_data>:
    936c:	e92d4010 	push	{r4, lr}
    9370:	eb0000ae 	bl	9630 <dev_barrier>
    9374:	ebffffd6 	bl	92d4 <uart_can_getc>
    9378:	e8bd8010 	pop	{r4, pc}

0000937c <gpio_set_function>:
    937c:	e350001f 	cmp	r0, #31
    9380:	812fff1e 	bxhi	lr
    9384:	e3d13007 	bics	r3, r1, #7
    9388:	112fff1e 	bxne	lr
    938c:	e92d4070 	push	{r4, r5, r6, lr}
    9390:	e1a05001 	mov	r5, r1
    9394:	e59f3044 	ldr	r3, [pc, #68]	; 93e0 <gpio_set_function+0x64>
    9398:	e0832093 	umull	r2, r3, r3, r0
    939c:	e1a031a3 	lsr	r3, r3, #3
    93a0:	e1a06003 	mov	r6, r3
    93a4:	e0833103 	add	r3, r3, r3, lsl #2
    93a8:	e1a02083 	lsl	r2, r3, #1
    93ac:	e0403002 	sub	r3, r0, r2
    93b0:	e0834083 	add	r4, r3, r3, lsl #1
    93b4:	e2866302 	add	r6, r6, #134217728	; 0x8000000
    93b8:	e2866702 	add	r6, r6, #524288	; 0x80000
    93bc:	e1a06106 	lsl	r6, r6, #2
    93c0:	e1a00006 	mov	r0, r6
    93c4:	ebffff89 	bl	91f0 <GET32>
    93c8:	e3a01007 	mov	r1, #7
    93cc:	e1c01411 	bic	r1, r0, r1, lsl r4
    93d0:	e1811415 	orr	r1, r1, r5, lsl r4
    93d4:	e1a00006 	mov	r0, r6
    93d8:	ebffff78 	bl	91c0 <PUT32>
    93dc:	e8bd8070 	pop	{r4, r5, r6, pc}
    93e0:	cccccccd 	stclgt	12, cr12, [ip], {205}	; 0xcd

000093e4 <gpio_set_output>:
    93e4:	e92d4010 	push	{r4, lr}
    93e8:	e3a01001 	mov	r1, #1
    93ec:	ebffffe2 	bl	937c <gpio_set_function>
    93f0:	e8bd8010 	pop	{r4, pc}

000093f4 <gpio_set_on>:
    93f4:	e350001f 	cmp	r0, #31
    93f8:	812fff1e 	bxhi	lr
    93fc:	e92d4010 	push	{r4, lr}
    9400:	e3a01001 	mov	r1, #1
    9404:	e1a01011 	lsl	r1, r1, r0
    9408:	e59f0004 	ldr	r0, [pc, #4]	; 9414 <gpio_set_on+0x20>
    940c:	ebffff6b 	bl	91c0 <PUT32>
    9410:	e8bd8010 	pop	{r4, pc}
    9414:	2020001c 	eorcs	r0, r0, ip, lsl r0

00009418 <gpio_set_off>:
    9418:	e350001f 	cmp	r0, #31
    941c:	812fff1e 	bxhi	lr
    9420:	e92d4010 	push	{r4, lr}
    9424:	e3a01001 	mov	r1, #1
    9428:	e1a01011 	lsl	r1, r1, r0
    942c:	e59f0004 	ldr	r0, [pc, #4]	; 9438 <gpio_set_off+0x20>
    9430:	ebffff62 	bl	91c0 <PUT32>
    9434:	e8bd8010 	pop	{r4, pc}
    9438:	20200028 	eorcs	r0, r0, r8, lsr #32

0000943c <gpio_set_input>:
    943c:	e92d4010 	push	{r4, lr}
    9440:	e3a01000 	mov	r1, #0
    9444:	ebffffcc 	bl	937c <gpio_set_function>
    9448:	e8bd8010 	pop	{r4, pc}

0000944c <gpio_write>:
    944c:	e92d4010 	push	{r4, lr}
    9450:	e3510000 	cmp	r1, #0
    9454:	1a000001 	bne	9460 <gpio_write+0x14>
    9458:	ebffffee 	bl	9418 <gpio_set_off>
    945c:	e8bd8010 	pop	{r4, pc}
    9460:	ebffffe3 	bl	93f4 <gpio_set_on>
    9464:	e8bd8010 	pop	{r4, pc}

00009468 <gpio_read>:
    9468:	e350001f 	cmp	r0, #31
    946c:	8a000007 	bhi	9490 <gpio_read+0x28>
    9470:	e92d4010 	push	{r4, lr}
    9474:	e200401f 	and	r4, r0, #31
    9478:	e59f3018 	ldr	r3, [pc, #24]	; 9498 <gpio_read+0x30>
    947c:	e08302a0 	add	r0, r3, r0, lsr #5
    9480:	ebffff5a 	bl	91f0 <GET32>
    9484:	e1a00430 	lsr	r0, r0, r4
    9488:	e2000001 	and	r0, r0, #1
    948c:	e8bd8010 	pop	{r4, pc}
    9490:	e3e00000 	mvn	r0, #0
    9494:	e12fff1e 	bx	lr
    9498:	20200034 	eorcs	r0, r0, r4, lsr r0

0000949c <kmalloc_heap_end>:
    949c:	e59f3004 	ldr	r3, [pc, #4]	; 94a8 <kmalloc_heap_end+0xc>
    94a0:	e5930000 	ldr	r0, [r3]
    94a4:	e12fff1e 	bx	lr
    94a8:	00009650 	andeq	r9, r0, r0, asr r6

000094ac <kmalloc_heap_start>:
    94ac:	e59f0000 	ldr	r0, [pc]	; 94b4 <kmalloc_heap_start+0x8>
    94b0:	e12fff1e 	bx	lr
    94b4:	0000a030 	andeq	sl, r0, r0, lsr r0

000094b8 <kmalloc_init_set_start>:
    94b8:	e59f3038 	ldr	r3, [pc, #56]	; 94f8 <kmalloc_init_set_start+0x40>
    94bc:	e5933000 	ldr	r3, [r3]
    94c0:	e1500003 	cmp	r0, r3
    94c4:	9a000003 	bls	94d8 <kmalloc_init_set_start+0x20>
    94c8:	e59f3028 	ldr	r3, [pc, #40]	; 94f8 <kmalloc_init_set_start+0x40>
    94cc:	e5830000 	str	r0, [r3]
    94d0:	e5830004 	str	r0, [r3, #4]
    94d4:	e12fff1e 	bx	lr
    94d8:	e92d4010 	push	{r4, lr}
    94dc:	ebfffd80 	bl	8ae4 <rpi_reset_putc>
    94e0:	e3a03016 	mov	r3, #22
    94e4:	e59f2010 	ldr	r2, [pc, #16]	; 94fc <kmalloc_init_set_start+0x44>
    94e8:	e59f1010 	ldr	r1, [pc, #16]	; 9500 <kmalloc_init_set_start+0x48>
    94ec:	e59f0010 	ldr	r0, [pc, #16]	; 9504 <kmalloc_init_set_start+0x4c>
    94f0:	ebfffd60 	bl	8a78 <printk>
    94f4:	ebfffed9 	bl	9060 <clean_reboot>
    94f8:	00009650 	andeq	r9, r0, r0, asr r6
    94fc:	00009b04 	andeq	r9, r0, r4, lsl #22
    9500:	00009b34 	andeq	r9, r0, r4, lsr fp
    9504:	00009b40 	andeq	r9, r0, r0, asr #22

00009508 <kmalloc>:
    9508:	e92d4010 	push	{r4, lr}
    950c:	e3500000 	cmp	r0, #0
    9510:	0a00000a 	beq	9540 <kmalloc+0x38>
    9514:	e2802007 	add	r2, r0, #7
    9518:	e3c22007 	bic	r2, r2, #7
    951c:	e59f3038 	ldr	r3, [pc, #56]	; 955c <kmalloc+0x54>
    9520:	e5934000 	ldr	r4, [r3]
    9524:	e0841002 	add	r1, r4, r2
    9528:	e5831000 	str	r1, [r3]
    952c:	e3a01000 	mov	r1, #0
    9530:	e1a00004 	mov	r0, r4
    9534:	ebfffd49 	bl	8a60 <memset>
    9538:	e1a00004 	mov	r0, r4
    953c:	e8bd8010 	pop	{r4, pc}
    9540:	ebfffd67 	bl	8ae4 <rpi_reset_putc>
    9544:	e3a0301b 	mov	r3, #27
    9548:	e59f2010 	ldr	r2, [pc, #16]	; 9560 <kmalloc+0x58>
    954c:	e59f1010 	ldr	r1, [pc, #16]	; 9564 <kmalloc+0x5c>
    9550:	e59f0010 	ldr	r0, [pc, #16]	; 9568 <kmalloc+0x60>
    9554:	ebfffd47 	bl	8a78 <printk>
    9558:	ebfffec0 	bl	9060 <clean_reboot>
    955c:	00009650 	andeq	r9, r0, r0, asr r6
    9560:	00009b1c 	andeq	r9, r0, ip, lsl fp
    9564:	00009b34 	andeq	r9, r0, r4, lsr fp
    9568:	00009b5c 	andeq	r9, r0, ip, asr fp

0000956c <kmalloc_init>:
    956c:	e12fff1e 	bx	lr

00009570 <kmalloc_heap_ptr>:
    9570:	e92d4010 	push	{r4, lr}
    9574:	ebffffcc 	bl	94ac <kmalloc_heap_start>
    9578:	e8bd8010 	pop	{r4, pc}

0000957c <kmalloc_aligned>:
    957c:	e92d4010 	push	{r4, lr}
    9580:	e2613000 	rsb	r3, r1, #0
    9584:	e1d12003 	bics	r2, r1, r3
    9588:	1a00000b 	bne	95bc <kmalloc_aligned+0x40>
    958c:	e59f2060 	ldr	r2, [pc, #96]	; 95f4 <kmalloc_aligned+0x78>
    9590:	e5922000 	ldr	r2, [r2]
    9594:	e0812002 	add	r2, r1, r2
    9598:	e2422001 	sub	r2, r2, #1
    959c:	e0033002 	and	r3, r3, r2
    95a0:	e2411001 	sub	r1, r1, #1
    95a4:	e1130001 	tst	r3, r1
    95a8:	1a00000a 	bne	95d8 <kmalloc_aligned+0x5c>
    95ac:	e59f2040 	ldr	r2, [pc, #64]	; 95f4 <kmalloc_aligned+0x78>
    95b0:	e5823000 	str	r3, [r2]
    95b4:	ebffffd3 	bl	9508 <kmalloc>
    95b8:	e8bd8010 	pop	{r4, pc}
    95bc:	ebfffd48 	bl	8ae4 <rpi_reset_putc>
    95c0:	e3a0302a 	mov	r3, #42	; 0x2a
    95c4:	e59f202c 	ldr	r2, [pc, #44]	; 95f8 <kmalloc_aligned+0x7c>
    95c8:	e59f102c 	ldr	r1, [pc, #44]	; 95fc <kmalloc_aligned+0x80>
    95cc:	e59f002c 	ldr	r0, [pc, #44]	; 9600 <kmalloc_aligned+0x84>
    95d0:	ebfffd28 	bl	8a78 <printk>
    95d4:	ebfffea1 	bl	9060 <clean_reboot>
    95d8:	ebfffd41 	bl	8ae4 <rpi_reset_putc>
    95dc:	e3a03030 	mov	r3, #48	; 0x30
    95e0:	e59f2010 	ldr	r2, [pc, #16]	; 95f8 <kmalloc_aligned+0x7c>
    95e4:	e59f1010 	ldr	r1, [pc, #16]	; 95fc <kmalloc_aligned+0x80>
    95e8:	e59f0014 	ldr	r0, [pc, #20]	; 9604 <kmalloc_aligned+0x88>
    95ec:	ebfffd21 	bl	8a78 <printk>
    95f0:	ebfffe9a 	bl	9060 <clean_reboot>
    95f4:	00009650 	andeq	r9, r0, r0, asr r6
    95f8:	00009b24 	andeq	r9, r0, r4, lsr #22
    95fc:	00009b34 	andeq	r9, r0, r4, lsr fp
    9600:	00009b70 	andeq	r9, r0, r0, ror fp
    9604:	00009bd0 	ldrdeq	r9, [r0], -r0

00009608 <kfree>:
    9608:	e12fff1e 	bx	lr

0000960c <kfree_all>:
    960c:	e59f3008 	ldr	r3, [pc, #8]	; 961c <kfree_all+0x10>
    9610:	e5932004 	ldr	r2, [r3, #4]
    9614:	e5832000 	str	r2, [r3]
    9618:	e12fff1e 	bx	lr
    961c:	00009650 	andeq	r9, r0, r0, asr r6

00009620 <kfree_after>:
    9620:	e59f3004 	ldr	r3, [pc, #4]	; 962c <kfree_after+0xc>
    9624:	e5830000 	str	r0, [r3]
    9628:	e12fff1e 	bx	lr
    962c:	00009650 	andeq	r9, r0, r0, asr r6

00009630 <dev_barrier>:
    9630:	ea000002 	b	9640 <dsb>

00009634 <dmb>:
    9634:	e3a00000 	mov	r0, #0
    9638:	ee070fba 	mcr	15, 0, r0, cr7, cr10, {5}
    963c:	e12fff1e 	bx	lr

00009640 <dsb>:
    9640:	ee070f9a 	mcr	15, 0, r0, cr7, cr10, {4}
    9644:	e12fff1e 	bx	lr

Disassembly of section .data:

00009648 <rpi_putchar>:
    9648:	00008ad0 	ldrdeq	r8, [r0], -r0

0000964c <putk>:
    964c:	00008b0c 	andeq	r8, r0, ip, lsl #22

00009650 <heap>:
    9650:	0000a030 	andeq	sl, r0, r0, lsr r0

00009654 <heap_start>:
    9654:	0000a030 	andeq	sl, r0, r0, lsr r0

Disassembly of section .rodata:

00009658 <__FUNCTION__.4337-0x90>:
    9658:	74736574 	ldrbtvc	r6, [r3], #-1396	; 0xfffffa8c
    965c:	75203a34 	strvc	r3, [r0, #-2612]!	; 0xfffff5cc
    9660:	61206573 			; <UNDEFINED> instruction: 0x61206573
    9664:	72657466 	rsbvc	r7, r5, #1711276032	; 0x66000000
    9668:	65726620 	ldrbvs	r6, [r2, #-1568]!	; 0xfffff9e0
    966c:	00000a65 	andeq	r0, r0, r5, ror #20
    9670:	74726170 	ldrbtvc	r6, [r2], #-368	; 0xfffffe90
    9674:	65742d31 	ldrbvs	r2, [r4, #-3377]!	; 0xfffff2cf
    9678:	2e347473 	mrccs	4, 1, r7, cr4, cr3, {3}
    967c:	00000063 	andeq	r0, r0, r3, rrx
    9680:	494e4150 	stmdbmi	lr, {r4, r6, r8, lr}^
    9684:	73253a43 			; <UNDEFINED> instruction: 0x73253a43
    9688:	3a73253a 	bcc	1cd2b78 <__bss_end__+0x1cc8b48>
    968c:	693a6425 	ldmdbvs	sl!, {r0, r2, r5, sl, sp, lr}
    9690:	6c61766e 	stclvs	6, cr7, [r1], #-440	; 0xfffffe48
    9694:	65206469 	strvs	r6, [r0, #-1129]!	; 0xfffffb97
    9698:	726f7272 	rsbvc	r7, pc, #536870919	; 0x20000007
    969c:	0a0a2121 	beq	291b28 <__bss_end__+0x287af8>
    96a0:	00000000 	andeq	r0, r0, r0
    96a4:	43415254 	movtmi	r5, #4692	; 0x1254
    96a8:	00003a45 	andeq	r3, r0, r5, asr #20
    96ac:	43435553 	movtmi	r5, #13651	; 0x3553
    96b0:	20535345 	subscs	r5, r3, r5, asr #6
    96b4:	70616568 	rsbvc	r6, r1, r8, ror #10
    96b8:	65686320 	strbvs	r6, [r8, #-800]!	; 0xfffffce0
    96bc:	64656b63 	strbtvs	r6, [r5], #-2915	; 0xfffff49d
    96c0:	74756f20 	ldrbtvc	r6, [r5], #-3872	; 0xfffff0e0
    96c4:	0000000a 	andeq	r0, r0, sl
    96c8:	43435553 	movtmi	r5, #13651	; 0x3553
    96cc:	3a535345 	bcc	14de3e8 <__bss_end__+0x14d43b8>
    96d0:	74656420 	strbtvc	r6, [r5], #-1056	; 0xfffffbe0
    96d4:	65746365 	ldrbvs	r6, [r4, #-869]!	; 0xfffffc9b
    96d8:	6f632064 	svcvs	0x00632064
    96dc:	70757272 	rsbsvc	r7, r5, r2, ror r2
    96e0:	6e6f6974 			; <UNDEFINED> instruction: 0x6e6f6974
    96e4:	0000000a 	andeq	r0, r0, sl

000096e8 <__FUNCTION__.4337>:
    96e8:	6d746f6e 	ldclvs	15, cr6, [r4, #-440]!	; 0xfffffe48
    96ec:	006e6961 	rsbeq	r6, lr, r1, ror #18
    96f0:	4f525245 	svcmi	0x00525245
    96f4:	00003a52 	andeq	r3, r0, r2, asr sl
    96f8:	636f6c62 	cmnvs	pc, #25088	; 0x6200
    96fc:	7025206b 	eorvc	r2, r5, fp, rrx
    9700:	726f6320 	rsbvc	r6, pc, #32, 6	; 0x80000000
    9704:	74707572 	ldrbtvc	r7, [r0], #-1394	; 0xfffffa8e
    9708:	61206465 			; <UNDEFINED> instruction: 0x61206465
    970c:	666f2074 			; <UNDEFINED> instruction: 0x666f2074
    9710:	74657366 	strbtvc	r7, [r5], #-870	; 0xfffffc9a
    9714:	0a642520 	beq	1912b9c <__bss_end__+0x1908b6c>
    9718:	00000000 	andeq	r0, r0, r0
    971c:	79626e09 	stmdbvc	r2!, {r0, r3, r9, sl, fp, sp, lr}^
    9720:	3d736574 	cfldr64cc	mvdx6, [r3, #-464]!	; 0xfffffe30
    9724:	000a6425 	andeq	r6, sl, r5, lsr #8
    9728:	6f6c4209 	svcvs	0x006c4209
    972c:	61206b63 			; <UNDEFINED> instruction: 0x61206b63
    9730:	636f6c6c 	cmnvs	pc, #108, 24	; 0x6c00
    9734:	64657461 	strbtvs	r7, [r5], #-1121	; 0xfffffb9f
    9738:	3a746120 	bcc	1d21bc0 <__bss_end__+0x1d17b90>
    973c:	3a732520 	bcc	1cd2bc4 <__bss_end__+0x1cc8b94>
    9740:	253a7325 	ldrcs	r7, [sl, #-805]!	; 0xfffffcdb
    9744:	00000a64 	andeq	r0, r0, r4, ror #20
    9748:	6f6c4209 	svcvs	0x006c4209
    974c:	66206b63 	strtvs	r6, [r0], -r3, ror #22
    9750:	64656572 	strbtvs	r6, [r5], #-1394	; 0xfffffa8e
    9754:	3a746120 	bcc	1d21bdc <__bss_end__+0x1d17bac>
    9758:	3a732520 	bcc	1cd2be0 <__bss_end__+0x1cc8bb0>
    975c:	253a7325 	ldrcs	r7, [sl, #-805]!	; 0xfffffcdb
    9760:	00000a64 	andeq	r0, r0, r4, ror #20
    9764:	6f725709 	svcvs	0x00725709
    9768:	62206574 	eorvs	r6, r0, #116, 10	; 0x1d000000
    976c:	6b636f6c 	blvs	18e5524 <__bss_end__+0x18db4f4>
    9770:	74666120 	strbtvc	r6, [r6], #-288	; 0xfffffee0
    9774:	66207265 	strtvs	r7, [r0], -r5, ror #4
    9778:	21656572 	smccs	22098	; 0x5652
    977c:	0000000a 	andeq	r0, r0, sl
    9780:	6c616b63 			; <UNDEFINED> instruction: 0x6c616b63
    9784:	2e636f6c 	cdpcs	15, 6, cr6, cr3, cr12, {3}
    9788:	00000063 	andeq	r0, r0, r3, rrx
    978c:	494e4150 	stmdbmi	lr, {r4, r6, r8, lr}^
    9790:	73253a43 			; <UNDEFINED> instruction: 0x73253a43
    9794:	3a73253a 	bcc	1cd2c84 <__bss_end__+0x1cc8c54>
    9798:	613a6425 	teqvs	sl, r5, lsr #8
    979c:	6e67696c 	vnmulvs.f16	s13, s14, s25	; <UNPREDICTABLE>
    97a0:	68286465 	stmdavs	r8!, {r0, r2, r5, r6, sl, sp, lr}
    97a4:	5f706165 	svcpl	0x00706165
    97a8:	72617473 	rsbvc	r7, r1, #1929379840	; 0x73000000
    97ac:	38202c74 	stmdacc	r0!, {r2, r4, r5, r6, sl, fp, sp}
    97b0:	00000a29 	andeq	r0, r0, r9, lsr #20
    97b4:	657a6973 	ldrbvs	r6, [sl, #-2419]!	; 0xfffff68d
    97b8:	6820666f 	stmdavs	r0!, {r0, r1, r2, r3, r5, r6, r9, sl, sp, lr}
    97bc:	253d7264 	ldrcs	r7, [sp, #-612]!	; 0xfffffd9c
    97c0:	72202c64 	eorvc	r2, r0, #100, 24	; 0x6400
    97c4:	6f7a6465 	svcvs	0x007a6465
    97c8:	253d656e 	ldrcs	r6, [sp, #-1390]!	; 0xfffffa92
    97cc:	00000a64 	andeq	r0, r0, r4, ror #20
    97d0:	4f525245 	svcmi	0x00525245
    97d4:	73253a52 			; <UNDEFINED> instruction: 0x73253a52
    97d8:	3a73253a 	bcc	1cd2cc8 <__bss_end__+0x1cc8c98>
    97dc:	203a6425 	eorscs	r6, sl, r5, lsr #8
    97e0:	534c4146 	movtpl	r4, #49478	; 0xc146
    97e4:	683c2845 	ldmdavs	ip!, {r0, r2, r6, fp, sp}
    97e8:	3e706165 	rpwccsz	f6, f0, f5
    97ec:	6e203a29 	vmulvs.f32	s6, s0, s19
    97f0:	6920746f 	stmdbvs	r0!, {r0, r1, r2, r3, r5, r6, sl, ip, sp, lr}
    97f4:	6974696e 	ldmdbvs	r4!, {r1, r2, r3, r5, r6, r8, fp, sp, lr}^
    97f8:	7a696c61 	bvc	1a64984 <__bss_end__+0x1a5a954>
    97fc:	0a3f6465 	beq	fe2998 <__bss_end__+0xfd8968>
    9800:	00000000 	andeq	r0, r0, r0
    9804:	65657266 	strbvs	r7, [r5, #-614]!	; 0xfffffd9a
    9808:	20676e69 	rsbcs	r6, r7, r9, ror #28
    980c:	000a7025 	andeq	r7, sl, r5, lsr #32
    9810:	6f6c6c61 	svcvs	0x006c6c61
    9814:	69746163 	ldmdbvs	r4!, {r0, r1, r5, r6, r8, sp, lr}^
    9818:	2520676e 	strcs	r6, [r0, #-1902]!	; 0xfffff892
    981c:	79622064 	stmdbvc	r2!, {r2, r5, r6, sp}^
    9820:	0a736574 	beq	1ce2df8 <__bss_end__+0x1cd8dc8>
    9824:	00000000 	andeq	r0, r0, r0
    9828:	43415254 	movtmi	r5, #4692	; 0x1254
    982c:	52453a45 	subpl	r3, r5, #282624	; 0x45000
    9830:	00524f52 	subseq	r4, r2, r2, asr pc
    9834:	657a6973 	ldrbvs	r6, [sl, #-2419]!	; 0xfffff68d
    9838:	65766f20 	ldrbvs	r6, [r6, #-3872]!	; 0xfffff0e0
    983c:	6f6c6672 	svcvs	0x006c6672
    9840:	3a646577 	bcc	1922e24 <__bss_end__+0x1918df4>
    9844:	20642520 	rsbcs	r2, r4, r0, lsr #10
    9848:	65747962 	ldrbvs	r7, [r4, #-2402]!	; 0xfffff69e
    984c:	73692073 	cmnvc	r9, #115	; 0x73
    9850:	6f6f7420 	svcvs	0x006f7420
    9854:	72616c20 	rsbvc	r6, r1, #32, 24	; 0x2000
    9858:	000a6567 	andeq	r6, sl, r7, ror #10
    985c:	494e4150 	stmdbmi	lr, {r4, r6, r8, lr}^
    9860:	73253a43 			; <UNDEFINED> instruction: 0x73253a43
    9864:	3a73253a 	bcc	1cd2d54 <__bss_end__+0x1cc8d24>
    9868:	733a6425 	teqvc	sl, #620756992	; 0x25000000
    986c:	20657a69 	rsbcs	r7, r5, r9, ror #20
    9870:	7265766f 	rsbvc	r7, r5, #116391936	; 0x6f00000
    9874:	776f6c66 	strbvc	r6, [pc, -r6, ror #24]!
    9878:	203a6465 	eorscs	r6, sl, r5, ror #8
    987c:	62206425 	eorvs	r6, r0, #620756992	; 0x25000000
    9880:	73657479 	cmnvc	r5, #2030043136	; 0x79000000
    9884:	20736920 	rsbscs	r6, r3, r0, lsr #18
    9888:	206f6f74 	rsbcs	r6, pc, r4, ror pc	; <UNPREDICTABLE>
    988c:	6772616c 	ldrbvs	r6, [r2, -ip, ror #2]!
    9890:	000a0a65 	andeq	r0, sl, r5, ror #20
    9894:	2074756f 	rsbscs	r7, r4, pc, ror #10
    9898:	6d20666f 	stcvs	6, cr6, [r0, #-444]!	; 0xfffffe44
    989c:	726f6d65 	rsbvc	r6, pc, #6464	; 0x1940
    98a0:	20202179 	eorcs	r2, r0, r9, ror r1
    98a4:	65766168 	ldrbvs	r6, [r6, #-360]!	; 0xfffffe98
    98a8:	6c6e6f20 	stclvs	15, cr6, [lr], #-128	; 0xffffff80
    98ac:	64252079 	strtvs	r2, [r5], #-121	; 0xffffff87
    98b0:	66656c20 	strbtvs	r6, [r5], -r0, lsr #24
    98b4:	6e202c74 	mcrvs	12, 1, r2, cr0, cr4, {3}
    98b8:	20646565 	rsbcs	r6, r4, r5, ror #10
    98bc:	000a6425 	andeq	r6, sl, r5, lsr #8
    98c0:	494e4150 	stmdbmi	lr, {r4, r6, r8, lr}^
    98c4:	73253a43 			; <UNDEFINED> instruction: 0x73253a43
    98c8:	3a73253a 	bcc	1cd2db8 <__bss_end__+0x1cc8d88>
    98cc:	6f3a6425 	svcvs	0x003a6425
    98d0:	6f207475 	svcvs	0x00207475
    98d4:	656d2066 	strbvs	r2, [sp, #-102]!	; 0xffffff9a
    98d8:	79726f6d 	ldmdbvc	r2!, {r0, r2, r3, r5, r6, r8, r9, sl, fp, sp, lr}^
    98dc:	68202021 	stmdavs	r0!, {r0, r5, sp}
    98e0:	20657661 	rsbcs	r7, r5, r1, ror #12
    98e4:	796c6e6f 	stmdbvc	ip!, {r0, r1, r2, r3, r5, r6, r9, sl, fp, sp, lr}^
    98e8:	20642520 	rsbcs	r2, r4, r0, lsr #10
    98ec:	7466656c 	strbtvc	r6, [r6], #-1388	; 0xfffffa94
    98f0:	656e202c 	strbvs	r2, [lr, #-44]!	; 0xffffffd4
    98f4:	25206465 	strcs	r6, [r0, #-1125]!	; 0xfffffb9b
    98f8:	000a0a64 	andeq	r0, sl, r4, ror #20
    98fc:	494e4150 	stmdbmi	lr, {r4, r6, r8, lr}^
    9900:	73253a43 			; <UNDEFINED> instruction: 0x73253a43
    9904:	3a73253a 	bcc	1cd2df4 <__bss_end__+0x1cc8dc4>
    9908:	633a6425 	teqvs	sl, #620756992	; 0x25000000
    990c:	6b636568 	blvs	18e2eb4 <__bss_end__+0x18d8e84>
    9910:	6f6c625f 	svcvs	0x006c625f
    9914:	68286b63 	stmdavs	r8!, {r0, r1, r5, r6, r8, r9, fp, sp, lr}
    9918:	00000a29 	andeq	r0, r0, r9, lsr #20
    991c:	6c616b63 			; <UNDEFINED> instruction: 0x6c616b63
    9920:	3a636f6c 	bcc	18e56d8 <__bss_end__+0x18db6a8>
    9924:	6f6c6c61 	svcvs	0x006c6c61
    9928:	65746163 	ldrbvs	r6, [r4, #-355]!	; 0xfffffe9d
    992c:	64252064 	strtvs	r2, [r5], #-100	; 0xffffff9c
    9930:	74796220 	ldrbtvc	r6, [r9], #-544	; 0xfffffde0
    9934:	202c7365 	eorcs	r7, ip, r5, ror #6
    9938:	746f7428 	strbtvc	r7, [pc], #-1064	; 9940 <__FUNCTION__.4337+0x258>
    993c:	253d6c61 	ldrcs	r6, [sp, #-3169]!	; 0xfffff39f
    9940:	202c2964 	eorcs	r2, ip, r4, ror #18
    9944:	3d727470 	cfldrdcc	mvd7, [r2, #-448]!	; 0xfffffe40
    9948:	000a7025 	andeq	r7, sl, r5, lsr #32
    994c:	6e696f67 	cdpvs	15, 6, cr6, cr9, cr7, {3}
    9950:	6f742067 	svcvs	0x00742067
    9954:	65686320 	strbvs	r6, [r8, #-800]!	; 0xfffffce0
    9958:	68206b63 	stmdavs	r0!, {r0, r1, r5, r6, r8, r9, fp, sp, lr}
    995c:	3a706165 	bcc	1c21ef8 <__bss_end__+0x1c17ec8>
    9960:	20642520 	rsbcs	r2, r4, r0, lsr #10
    9964:	65747962 	ldrbvs	r7, [r4, #-2402]!	; 0xfffff69e
    9968:	6c612073 	stclvs	0, cr2, [r1], #-460	; 0xfffffe34
    996c:	61636f6c 	cmnvs	r3, ip, ror #30
    9970:	2c646574 	cfstr64cs	mvdx6, [r4], #-464	; 0xfffffe30
    9974:	20642520 	rsbcs	r2, r4, r0, lsr #10
    9978:	65747962 	ldrbvs	r7, [r4, #-2402]!	; 0xfffff69e
    997c:	656c2073 	strbvs	r2, [ip, #-115]!	; 0xffffff8d
    9980:	000a7466 	andeq	r7, sl, r6, ror #8
    9984:	63656863 	cmnvs	r5, #6488064	; 0x630000
    9988:	2064656b 	rsbcs	r6, r4, fp, ror #10
    998c:	62206425 	eorvs	r6, r0, #620756992	; 0x25000000
    9990:	6b636f6c 	blvs	18e5748 <__bss_end__+0x18db718>
    9994:	64202c73 	strtvs	r2, [r0], #-3187	; 0xfffff38d
    9998:	63657465 	cmnvs	r5, #1694498816	; 0x65000000
    999c:	20646574 	rsbcs	r6, r4, r4, ror r5
    99a0:	65206425 	strvs	r6, [r0, #-1061]!	; 0xfffffbdb
    99a4:	726f7272 	rsbvc	r7, pc, #536870919	; 0x20000007
    99a8:	00000a73 	andeq	r0, r0, r3, ror sl
    99ac:	43435553 	movtmi	r5, #13651	; 0x3553
    99b0:	3a535345 	bcc	14de6cc <__bss_end__+0x14d469c>
    99b4:	65686320 	strbvs	r6, [r8, #-800]!	; 0xfffffce0
    99b8:	64656b63 	strbtvs	r6, [r5], #-2915	; 0xfffff49d
    99bc:	20642520 	rsbcs	r2, r4, r0, lsr #10
    99c0:	636f6c62 	cmnvs	pc, #25088	; 0x6200
    99c4:	202c736b 	eorcs	r7, ip, fp, ror #6
    99c8:	65746564 	ldrbvs	r6, [r4, #-1380]!	; 0xfffffa9c
    99cc:	64657463 	strbtvs	r7, [r5], #-1123	; 0xfffffb9d
    99d0:	206f6e20 	rsbcs	r6, pc, r0, lsr #28
    99d4:	6f727265 	svcvs	0x00727265
    99d8:	000a7372 	andeq	r7, sl, r2, ror r3

000099dc <__FUNCTION__.4339>:
    99dc:	695f6b63 	ldmdbvs	pc, {r0, r1, r5, r6, r8, r9, fp, sp, lr}^	; <UNPREDICTABLE>
    99e0:	0074696e 	rsbseq	r6, r4, lr, ror #18

000099e4 <__FUNCTION__.4397>:
    99e4:	72666b63 	rsbvc	r6, r6, #101376	; 0x18c00
    99e8:	00006565 	andeq	r6, r0, r5, ror #10

000099ec <__FUNCTION__.4407>:
    99ec:	6c616b63 			; <UNDEFINED> instruction: 0x6c616b63
    99f0:	00636f6c 	rsbeq	r6, r3, ip, ror #30
    99f4:	6362696c 	cmnvs	r2, #108, 18	; 0x1b0000
    99f8:	2d61762f 	stclcs	6, cr7, [r1, #-188]!	; 0xffffff44
    99fc:	6e697270 	mcrvs	2, 3, r7, cr9, cr0, {3}
    9a00:	632e6b74 			; <UNDEFINED> instruction: 0x632e6b74
    9a04:	00000000 	andeq	r0, r0, r0
    9a08:	494e4150 	stmdbmi	lr, {r4, r6, r8, lr}^
    9a0c:	73253a43 			; <UNDEFINED> instruction: 0x73253a43
    9a10:	3a73253a 	bcc	1cd2f00 <__bss_end__+0x1cc8ed0>
    9a14:	303a6425 	eorscc	r6, sl, r5, lsr #8
    9a18:	0000000a 	andeq	r0, r0, sl
    9a1c:	33323130 	teqcc	r2, #48, 2
    9a20:	37363534 			; <UNDEFINED> instruction: 0x37363534
    9a24:	00003938 	andeq	r3, r0, r8, lsr r9
    9a28:	33323130 	teqcc	r2, #48, 2
    9a2c:	37363534 			; <UNDEFINED> instruction: 0x37363534
    9a30:	62613938 	rsbvs	r3, r1, #56, 18	; 0xe0000
    9a34:	66656463 	strbtvs	r6, [r5], -r3, ror #8
    9a38:	00000000 	andeq	r0, r0, r0
    9a3c:	00003130 	andeq	r3, r0, r0, lsr r1
    9a40:	494e4150 	stmdbmi	lr, {r4, r6, r8, lr}^
    9a44:	73253a43 			; <UNDEFINED> instruction: 0x73253a43
    9a48:	3a73253a 	bcc	1cd2f38 <__bss_end__+0x1cc8f08>
    9a4c:	703a6425 	eorsvc	r6, sl, r5, lsr #8
    9a50:	5f637475 	svcpl	0x00637475
    9a54:	000a7066 	andeq	r7, sl, r6, rrx
    9a58:	494e4150 	stmdbmi	lr, {r4, r6, r8, lr}^
    9a5c:	73253a43 			; <UNDEFINED> instruction: 0x73253a43
    9a60:	3a73253a 	bcc	1cd2f50 <__bss_end__+0x1cc8f20>
    9a64:	773a6425 	ldrvc	r6, [sl, -r5, lsr #8]!
    9a68:	68746469 	ldmdavs	r4!, {r0, r3, r5, r6, sl, sp, lr}^
    9a6c:	33203c20 			; <UNDEFINED> instruction: 0x33203c20
    9a70:	00000a32 	andeq	r0, r0, r2, lsr sl
    9a74:	494e4150 	stmdbmi	lr, {r4, r6, r8, lr}^
    9a78:	73253a43 			; <UNDEFINED> instruction: 0x73253a43
    9a7c:	3a73253a 	bcc	1cd2f6c <__bss_end__+0x1cc8f3c>
    9a80:	663a6425 	ldrtvs	r6, [sl], -r5, lsr #8
    9a84:	74616f6c 	strbtvc	r6, [r1], #-3948	; 0xfffff094
    9a88:	746f6e20 	strbtvc	r6, [pc], #-3616	; 9a90 <__FUNCTION__.4407+0xa4>
    9a8c:	616e6520 	cmnvs	lr, r0, lsr #10
    9a90:	64656c62 	strbtvs	r6, [r5], #-3170	; 0xfffff39e
    9a94:	0a212121 	beq	851f20 <__bss_end__+0x847ef0>
    9a98:	00000000 	andeq	r0, r0, r0
    9a9c:	494e4150 	stmdbmi	lr, {r4, r6, r8, lr}^
    9aa0:	73253a43 			; <UNDEFINED> instruction: 0x73253a43
    9aa4:	3a73253a 	bcc	1cd2f94 <__bss_end__+0x1cc8f64>
    9aa8:	703a6425 	eorsvc	r6, sl, r5, lsr #8
    9aac:	746e6972 	strbtvc	r6, [lr], #-2418	; 0xfffff68e
    9ab0:	6e203a6b 	vnmulvs.f32	s6, s0, s23
    9ab4:	6820746f 	stmdavs	r0!, {r0, r1, r2, r3, r5, r6, sl, ip, sp, lr}
    9ab8:	6c646e61 	stclvs	14, cr6, [r4], #-388	; 0xfffffe7c
    9abc:	20676e69 	rsbcs	r6, r7, r9, ror #28
    9ac0:	63657073 	cmnvs	r5, #115	; 0x73
    9ac4:	65696669 	strbvs	r6, [r9, #-1641]!	; 0xfffff997
    9ac8:	25272072 	strcs	r2, [r7, #-114]!	; 0xffffff8e
    9acc:	0a0a2763 	beq	293860 <__bss_end__+0x289830>
    9ad0:	00000000 	andeq	r0, r0, r0

00009ad4 <__FUNCTION__.4349>:
    9ad4:	74696d65 	strbtvc	r6, [r9], #-3429	; 0xfffff29b
    9ad8:	00000000 	andeq	r0, r0, r0

00009adc <__FUNCTION__.4297>:
    9adc:	5f697072 	svcpl	0x00697072
    9ae0:	5f746573 	svcpl	0x00746573
    9ae4:	7074756f 	rsbsvc	r7, r4, pc, ror #10
    9ae8:	00007475 	andeq	r7, r0, r5, ror r4

00009aec <__FUNCTION__.4371>:
    9aec:	705f6176 	subsvc	r6, pc, r6, ror r1	; <UNPREDICTABLE>
    9af0:	746e6972 	strbtvc	r6, [lr], #-2418	; 0xfffff68e
    9af4:	0000006b 	andeq	r0, r0, fp, rrx
    9af8:	454e4f44 	strbmi	r4, [lr, #-3908]	; 0xfffff0bc
    9afc:	0a212121 	beq	851f88 <__bss_end__+0x847f58>
    9b00:	00000000 	andeq	r0, r0, r0

00009b04 <__FUNCTION__.4237>:
    9b04:	6c616d6b 	stclvs	13, cr6, [r1], #-428	; 0xfffffe54
    9b08:	5f636f6c 	svcpl	0x00636f6c
    9b0c:	74696e69 	strbtvc	r6, [r9], #-3689	; 0xfffff197
    9b10:	7465735f 	strbtvc	r7, [r5], #-863	; 0xfffffca1
    9b14:	6174735f 	cmnvs	r4, pc, asr r3
    9b18:	00007472 	andeq	r7, r0, r2, ror r4

00009b1c <__FUNCTION__.4241>:
    9b1c:	6c616d6b 	stclvs	13, cr6, [r1], #-428	; 0xfffffe54
    9b20:	00636f6c 	rsbeq	r6, r3, ip, ror #30

00009b24 <__FUNCTION__.4253>:
    9b24:	6c616d6b 	stclvs	13, cr6, [r1], #-428	; 0xfffffe54
    9b28:	5f636f6c 	svcpl	0x00636f6c
    9b2c:	67696c61 	strbvs	r6, [r9, -r1, ror #24]!
    9b30:	0064656e 	rsbeq	r6, r4, lr, ror #10
    9b34:	6c616d6b 	stclvs	13, cr6, [r1], #-428	; 0xfffffe54
    9b38:	2e636f6c 	cdpcs	15, 6, cr6, cr3, cr12, {3}
    9b3c:	00000063 	andeq	r0, r0, r3, rrx
    9b40:	494e4150 	stmdbmi	lr, {r4, r6, r8, lr}^
    9b44:	73253a43 			; <UNDEFINED> instruction: 0x73253a43
    9b48:	3a73253a 	bcc	1cd3038 <__bss_end__+0x1cc9008>
    9b4c:	613a6425 	teqvs	sl, r5, lsr #8
    9b50:	20726464 	rsbscs	r6, r2, r4, ror #8
    9b54:	6568203e 	strbvs	r2, [r8, #-62]!	; 0xffffffc2
    9b58:	000a7061 	andeq	r7, sl, r1, rrx
    9b5c:	494e4150 	stmdbmi	lr, {r4, r6, r8, lr}^
    9b60:	73253a43 			; <UNDEFINED> instruction: 0x73253a43
    9b64:	3a73253a 	bcc	1cd3054 <__bss_end__+0x1cc9024>
    9b68:	733a6425 	teqvc	sl, #620756992	; 0x25000000
    9b6c:	00000a7a 	andeq	r0, r0, sl, ror sl
    9b70:	4f525245 	svcmi	0x00525245
    9b74:	73253a52 			; <UNDEFINED> instruction: 0x73253a52
    9b78:	3a73253a 	bcc	1cd3068 <__bss_end__+0x1cc9038>
    9b7c:	203a6425 	eorscs	r6, sl, r5, lsr #8
    9b80:	534c4146 	movtpl	r4, #49478	; 0xc146
    9b84:	283c2845 	ldmdacs	ip!, {r0, r2, r6, fp, sp}
    9b88:	6c612828 	stclvs	8, cr2, [r1], #-160	; 0xffffff60
    9b8c:	6d6e6769 	stclvs	7, cr6, [lr, #-420]!	; 0xfffffe5c
    9b90:	29746e65 	ldmdbcs	r4!, {r0, r2, r5, r6, r9, sl, fp, sp, lr}^
    9b94:	61282d26 			; <UNDEFINED> instruction: 0x61282d26
    9b98:	6e67696c 	vnmulvs.f16	s13, s14, s25	; <UNPREDICTABLE>
    9b9c:	746e656d 	strbtvc	r6, [lr], #-1389	; 0xfffffa93
    9ba0:	3d202929 			; <UNDEFINED> instruction: 0x3d202929
    9ba4:	6128203d 			; <UNDEFINED> instruction: 0x6128203d
    9ba8:	6e67696c 	vnmulvs.f16	s13, s14, s25	; <UNPREDICTABLE>
    9bac:	746e656d 	strbtvc	r6, [lr], #-1389	; 0xfffffa93
    9bb0:	293e2929 	ldmdbcs	lr!, {r0, r3, r5, r8, fp, sp}
    9bb4:	7361203a 	cmnvc	r1, #58	; 0x3a
    9bb8:	696d7573 	stmdbvs	sp!, {r0, r1, r4, r5, r6, r8, sl, ip, sp, lr}^
    9bbc:	7020676e 	eorvc	r6, r0, lr, ror #14
    9bc0:	7265776f 	rsbvc	r7, r5, #29097984	; 0x1bc0000
    9bc4:	20666f20 	rsbcs	r6, r6, r0, lsr #30
    9bc8:	0a6f7774 	beq	1be79a0 <__bss_end__+0x1bdd970>
    9bcc:	00000000 	andeq	r0, r0, r0
    9bd0:	4f525245 	svcmi	0x00525245
    9bd4:	73253a52 			; <UNDEFINED> instruction: 0x73253a52
    9bd8:	3a73253a 	bcc	1cd30c8 <__bss_end__+0x1cc9098>
    9bdc:	203a6425 	eorscs	r6, sl, r5, lsr #8
    9be0:	534c4146 	movtpl	r4, #49478	; 0xc146
    9be4:	283c2845 	ldmdacs	ip!, {r0, r2, r6, fp, sp}
    9be8:	29682828 	stmdbcs	r8!, {r3, r5, fp, sp}^
    9bec:	28202620 	stmdacs	r0!, {r5, r9, sl, sp}
    9bf0:	70797428 	rsbsvc	r7, r9, r8, lsr #8
    9bf4:	28666f65 	stmdacs	r6!, {r0, r2, r5, r6, r8, r9, sl, fp, sp, lr}^
    9bf8:	28292968 	stmdacs	r9!, {r3, r5, r6, r8, fp, sp}
    9bfc:	67696c61 	strbvs	r6, [r9, -r1, ror #24]!
    9c00:	6e656d6e 	cdpvs	13, 6, cr6, cr5, cr14, {3}
    9c04:	2d202974 			; <UNDEFINED> instruction: 0x2d202974
    9c08:	29293120 	stmdbcs	r9!, {r5, r8, ip, sp}
    9c0c:	203d3d20 	eorscs	r3, sp, r0, lsr #26
    9c10:	293e2930 	ldmdbcs	lr!, {r4, r5, r8, fp, sp}
    9c14:	6d69203a 	stclvs	0, cr2, [r9, #-232]!	; 0xffffff18
    9c18:	73736f70 	cmnvc	r3, #112, 30	; 0x1c0
    9c1c:	656c6269 	strbvs	r6, [ip, #-617]!	; 0xfffffd97
    9c20:	Address 0x0000000000009c20 is out of bounds.


Disassembly of section .bss:

00009c24 <__bss_start__>:
    9c24:	00000000 	andeq	r0, r0, r0

00009c28 <heap>:
    9c28:	00000000 	andeq	r0, r0, r0

00009c2c <heap_end>:
    9c2c:	00000000 	andeq	r0, r0, r0

00009c30 <buf.4297>:
	...

Disassembly of section .ARM.attributes:

00000000 <.ARM.attributes>:
   0:	00002c41 	andeq	r2, r0, r1, asr #24
   4:	61656100 	cmnvs	r5, r0, lsl #2
   8:	01006962 	tsteq	r0, r2, ror #18
   c:	00000022 	andeq	r0, r0, r2, lsr #32
  10:	4b5a3605 	blmi	168d82c <__bss_end__+0x16837fc>
  14:	08070600 	stmdaeq	r7, {r9, sl}
  18:	0a010901 	beq	42424 <__bss_end__+0x383f4>
  1c:	14041202 	strne	r1, [r4], #-514	; 0xfffffdfe
  20:	17011501 	strne	r1, [r1, -r1, lsl #10]
  24:	1a011803 	bne	46038 <__bss_end__+0x3c008>
  28:	44012201 	strmi	r2, [r1], #-513	; 0xfffffdff
  2c:	Address 0x000000000000002c is out of bounds.


Disassembly of section .comment:

00000000 <.comment>:
   0:	3a434347 	bcc	10d0d24 <__bss_end__+0x10c6cf4>
   4:	72412820 	subvc	r2, r1, #32, 16	; 0x200000
   8:	52206863 	eorpl	r6, r0, #6488064	; 0x630000
   c:	736f7065 	cmnvc	pc, #101	; 0x65
  10:	726f7469 	rsbvc	r7, pc, #1761607680	; 0x69000000
  14:	39202979 	stmdbcc	r0!, {r0, r3, r4, r5, r6, r8, fp, sp}
  18:	302e322e 	eorcc	r3, lr, lr, lsr #4
  1c:	43434700 	movtmi	r4, #14080	; 0x3700
  20:	3128203a 			; <UNDEFINED> instruction: 0x3128203a
  24:	2e363a35 			; <UNDEFINED> instruction: 0x2e363a35
  28:	2b312e33 	blcs	c4b8fc <__bss_end__+0xc418cc>
  2c:	326e7673 	rsbcc	r7, lr, #120586240	; 0x7300000
  30:	33303335 	teqcc	r0, #-738197504	; 0xd4000000
  34:	62312d39 	eorsvs	r2, r1, #3648	; 0xe40
  38:	646c6975 	strbtvs	r6, [ip], #-2421	; 0xfffff68b
  3c:	36202931 			; <UNDEFINED> instruction: 0x36202931
  40:	312e332e 			; <UNDEFINED> instruction: 0x312e332e
  44:	31303220 	teqcc	r0, r0, lsr #4
  48:	32363037 	eorscc	r3, r6, #55	; 0x37
  4c:	Address 0x000000000000004c is out of bounds.


Disassembly of section .debug_info:

00000000 <.debug_info>:
       0:	00000bbe 			; <UNDEFINED> instruction: 0x00000bbe
       4:	00000004 	andeq	r0, r0, r4
       8:	01040000 	mrseq	r0, (UNDEF: 4)
       c:	000002ef 	andeq	r0, r0, pc, ror #5
      10:	0004790c 	andeq	r7, r4, ip, lsl #18
      14:	0000cb00 	andeq	ip, r0, r0, lsl #22
      18:	00801000 	addeq	r1, r0, r0
      1c:	0000fc00 	andeq	pc, r0, r0, lsl #24
      20:	00000000 	andeq	r0, r0, r0
      24:	05040200 	streq	r0, [r4, #-512]	; 0xfffffe00
      28:	00746e69 	rsbseq	r6, r4, r9, ror #28
      2c:	66070403 	strvs	r0, [r7], -r3, lsl #8
      30:	03000000 	movweq	r0, #0
      34:	02de0601 	sbcseq	r0, lr, #1048576	; 0x100000
      38:	02030000 	andeq	r0, r3, #0
      3c:	00037705 	andeq	r7, r3, r5, lsl #14
      40:	05040300 	streq	r0, [r4, #-768]	; 0xfffffd00
      44:	000000ac 	andeq	r0, r0, ip, lsr #1
      48:	a7050803 	strge	r0, [r5, -r3, lsl #16]
      4c:	03000000 	movweq	r0, #0
      50:	02dc0801 	sbcseq	r0, ip, #65536	; 0x10000
      54:	02030000 	andeq	r0, r3, #0
      58:	00022207 	andeq	r2, r2, r7, lsl #4
      5c:	07040300 	streq	r0, [r4, -r0, lsl #6]
      60:	00000061 	andeq	r0, r0, r1, rrx
      64:	5c070803 	stcpl	8, cr0, [r7], {3}
      68:	04000000 	streq	r0, [r0], #-0
      6c:	00000265 	andeq	r0, r0, r5, ror #4
      70:	77192202 	ldrvc	r2, [r9, -r2, lsl #4]
      74:	05000000 	streq	r0, [r0, #-0]
      78:	00007d04 	andeq	r7, r0, r4, lsl #26
      7c:	041d0600 	ldreq	r0, [sp], #-1536	; 0xfffffa00
      80:	bd040000 	stclt	0, cr0, [r4, #-0]
      84:	03000002 	movweq	r0, #2
      88:	00410e2c 	subeq	r0, r1, ip, lsr #28
      8c:	32040000 	andcc	r0, r4, #0
      90:	03000004 	movweq	r0, #4
      94:	00410e72 	subeq	r0, r1, r2, ror lr
      98:	6d070000 	stcvs	0, cr0, [r7, #-0]
      9c:	04000002 	streq	r0, [r0], #-2
      a0:	2c17015e 	ldfcss	f0, [r7], {94}	; 0x5e
      a4:	08000000 	stmdaeq	r0, {}	; <UNPREDICTABLE>
      a8:	03a60304 			; <UNDEFINED> instruction: 0x03a60304
      ac:	000000c9 	andeq	r0, r0, r9, asr #1
      b0:	00025f09 	andeq	r5, r2, r9, lsl #30
      b4:	0ca80300 	stceq	3, cr0, [r8]
      b8:	0000009a 	muleq	r0, sl, r0
      bc:	0001e209 	andeq	lr, r1, r9, lsl #4
      c0:	13a90300 			; <UNDEFINED> instruction: 0x13a90300
      c4:	000000c9 	andeq	r0, r0, r9, asr #1
      c8:	004f0a00 	subeq	r0, pc, r0, lsl #20
      cc:	00d90000 	sbcseq	r0, r9, r0
      d0:	2c0b0000 	stccs	0, cr0, [fp], {-0}
      d4:	03000000 	movweq	r0, #0
      d8:	03080c00 	movweq	r0, #35840	; 0x8c00
      dc:	00fd09a3 	rscseq	r0, sp, r3, lsr #19
      e0:	150d0000 	strne	r0, [sp, #-0]
      e4:	03000004 	movweq	r0, #4
      e8:	002507a5 	eoreq	r0, r5, r5, lsr #15
      ec:	0d000000 	stceq	0, cr0, [r0, #-0]
      f0:	00000424 	andeq	r0, r0, r4, lsr #8
      f4:	a705aa03 	strge	sl, [r5, -r3, lsl #20]
      f8:	04000000 	streq	r0, [r0], #-0
      fc:	039f0400 	orrseq	r0, pc, #0, 8
     100:	ab030000 	blge	c0108 <__bss_end__+0xb60d8>
     104:	0000d903 	andeq	sp, r0, r3, lsl #18
     108:	019f0400 	orrseq	r0, pc, r0, lsl #8
     10c:	af030000 	svcge	0x00030000
     110:	00006b1b 	andeq	r6, r0, fp, lsl fp
     114:	05040e00 	streq	r0, [r4, #-3584]	; 0xfffff200
     118:	00011d04 	andeq	r1, r1, r4, lsl #26
     11c:	08010300 	stmdaeq	r1, {r8, r9}
     120:	000002e5 	andeq	r0, r0, r5, ror #5
     124:	00011d0f 	andeq	r1, r1, pc, lsl #26
     128:	04640400 	strbteq	r0, [r4], #-1024	; 0xfffffc00
     12c:	16050000 	strne	r0, [r5], -r0
     130:	00005d19 	andeq	r5, r0, r9, lsl sp
     134:	01b01000 	movseq	r1, r0
     138:	05180000 	ldreq	r0, [r8, #-0]
     13c:	018f082f 	orreq	r0, pc, pc, lsr #16
     140:	c00d0000 	andgt	r0, sp, r0
     144:	05000003 	streq	r0, [r0, #-3]
     148:	018f1331 	orreq	r1, pc, r1, lsr r3	; <UNPREDICTABLE>
     14c:	11000000 	mrsne	r0, (UNDEF: 0)
     150:	05006b5f 	streq	r6, [r0, #-2911]	; 0xfffff4a1
     154:	00250732 	eoreq	r0, r5, r2, lsr r7
     158:	0d040000 	stceq	0, cr0, [r4, #-0]
     15c:	00000400 	andeq	r0, r0, r0, lsl #8
     160:	250b3205 	strcs	r3, [fp, #-517]	; 0xfffffdfb
     164:	08000000 	stmdaeq	r0, {}	; <UNPREDICTABLE>
     168:	0001990d 	andeq	r9, r1, sp, lsl #18
     16c:	14320500 	ldrtne	r0, [r2], #-1280	; 0xfffffb00
     170:	00000025 	andeq	r0, r0, r5, lsr #32
     174:	04ae0d0c 	strteq	r0, [lr], #3340	; 0xd0c
     178:	32050000 	andcc	r0, r5, #0
     17c:	0000251b 	andeq	r2, r0, fp, lsl r5
     180:	5f111000 	svcpl	0x00111000
     184:	33050078 	movwcc	r0, #20600	; 0x5078
     188:	0001950b 	andeq	r9, r1, fp, lsl #10
     18c:	05001400 	streq	r1, [r0, #-1024]	; 0xfffffc00
     190:	00013504 	andeq	r3, r1, r4, lsl #10
     194:	01290a00 			; <UNDEFINED> instruction: 0x01290a00
     198:	01a50000 			; <UNDEFINED> instruction: 0x01a50000
     19c:	2c0b0000 	stccs	0, cr0, [fp], {-0}
     1a0:	00000000 	andeq	r0, r0, r0
     1a4:	01dd1000 	bicseq	r1, sp, r0
     1a8:	05240000 	streq	r0, [r4, #-0]!
     1ac:	02280837 	eoreq	r0, r8, #3604480	; 0x370000
     1b0:	9e0d0000 	cdpls	0, 0, cr0, cr13, cr0, {0}
     1b4:	05000000 	streq	r0, [r0, #-0]
     1b8:	00250939 	eoreq	r0, r5, r9, lsr r9
     1bc:	0d000000 	stceq	0, cr0, [r0, #-0]
     1c0:	0000043a 	andeq	r0, r0, sl, lsr r4
     1c4:	25093a05 	strcs	r3, [r9, #-2565]	; 0xfffff5fb
     1c8:	04000000 	streq	r0, [r0], #-0
     1cc:	0000c10d 	andeq	ip, r0, sp, lsl #2
     1d0:	093b0500 	ldmdbeq	fp!, {r8, sl}
     1d4:	00000025 	andeq	r0, r0, r5, lsr #32
     1d8:	052f0d08 	streq	r0, [pc, #-3336]!	; fffff4d8 <__bss_end__+0xffff54a8>
     1dc:	3c050000 	stccc	0, cr0, [r5], {-0}
     1e0:	00002509 	andeq	r2, r0, r9, lsl #10
     1e4:	a10d0c00 	tstge	sp, r0, lsl #24
     1e8:	05000002 	streq	r0, [r0, #-2]
     1ec:	0025093d 	eoreq	r0, r5, sp, lsr r9
     1f0:	0d100000 	ldceq	0, cr0, [r0, #-0]
     1f4:	00000283 	andeq	r0, r0, r3, lsl #5
     1f8:	25093e05 	strcs	r3, [r9, #-3589]	; 0xfffff1fb
     1fc:	14000000 	strne	r0, [r0], #-0
     200:	0004b30d 	andeq	fp, r4, sp, lsl #6
     204:	093f0500 	ldmdbeq	pc!, {r8, sl}	; <UNPREDICTABLE>
     208:	00000025 	andeq	r0, r0, r5, lsr #32
     20c:	03810d18 	orreq	r0, r1, #24, 26	; 0x600
     210:	40050000 	andmi	r0, r5, r0
     214:	00002509 	andeq	r2, r0, r9, lsl #10
     218:	f60d1c00 			; <UNDEFINED> instruction: 0xf60d1c00
     21c:	05000004 	streq	r0, [r0, #-4]
     220:	00250941 	eoreq	r0, r5, r1, asr #18
     224:	00200000 	eoreq	r0, r0, r0
     228:	00010112 	andeq	r0, r1, r2, lsl r1
     22c:	05010800 	streq	r0, [r1, #-2048]	; 0xfffff800
     230:	026d084a 	rsbeq	r0, sp, #4849664	; 0x4a0000
     234:	8c0d0000 	stchi	0, cr0, [sp], {-0}
     238:	05000001 	streq	r0, [r0, #-1]
     23c:	026d0a4b 	rsbeq	r0, sp, #307200	; 0x4b000
     240:	0d000000 	stceq	0, cr0, [r0, #-0]
     244:	00000000 	andeq	r0, r0, r0
     248:	6d094c05 	stcvs	12, cr4, [r9, #-20]	; 0xffffffec
     24c:	80000002 	andhi	r0, r0, r2
     250:	00045613 	andeq	r5, r4, r3, lsl r6
     254:	0a4e0500 	beq	138165c <__bss_end__+0x137762c>
     258:	00000129 	andeq	r0, r0, r9, lsr #2
     25c:	26130100 	ldrcs	r0, [r3], -r0, lsl #2
     260:	05000001 	streq	r0, [r0, #-1]
     264:	01290a51 			; <UNDEFINED> instruction: 0x01290a51
     268:	01040000 	mrseq	r0, (UNDEF: 4)
     26c:	01150a00 	tsteq	r5, r0, lsl #20
     270:	027d0000 	rsbseq	r0, sp, #0
     274:	2c0b0000 	stccs	0, cr0, [fp], {-0}
     278:	1f000000 	svcne	0x00000000
     27c:	02aa1200 	adceq	r1, sl, #0, 4
     280:	01900000 	orrseq	r0, r0, r0
     284:	c0085d05 	andgt	r5, r8, r5, lsl #26
     288:	0d000002 	stceq	0, cr0, [r0, #-8]
     28c:	000003c0 	andeq	r0, r0, r0, asr #7
     290:	c0125e05 	andsgt	r5, r2, r5, lsl #28
     294:	00000002 	andeq	r0, r0, r2
     298:	0003d80d 	andeq	sp, r3, sp, lsl #16
     29c:	065f0500 	ldrbeq	r0, [pc], -r0, lsl #10
     2a0:	00000025 	andeq	r0, r0, r5, lsr #32
     2a4:	01940d04 	orrseq	r0, r4, r4, lsl #26
     2a8:	61050000 	mrsvs	r0, (UNDEF: 5)
     2ac:	0002c609 	andeq	ip, r2, r9, lsl #12
     2b0:	010d0800 	tsteq	sp, r0, lsl #16
     2b4:	05000001 	streq	r0, [r0, #-1]
     2b8:	02281e62 	eoreq	r1, r8, #1568	; 0x620
     2bc:	00880000 	addeq	r0, r8, r0
     2c0:	027d0405 	rsbseq	r0, sp, #83886080	; 0x5000000
     2c4:	d60a0000 	strle	r0, [sl], -r0
     2c8:	d6000002 	strle	r0, [r0], -r2
     2cc:	0b000002 	bleq	2dc <_start-0x7d24>
     2d0:	0000002c 	andeq	r0, r0, ip, lsr #32
     2d4:	0405001f 	streq	r0, [r5], #-31	; 0xffffffe1
     2d8:	000002dc 	ldrdeq	r0, [r0], -ip
     2dc:	038b1014 	orreq	r1, fp, #20
     2e0:	05080000 	streq	r0, [r8, #-0]
     2e4:	03050875 	movweq	r0, #22645	; 0x5875
     2e8:	bb0d0000 	bllt	3402f0 <__bss_end__+0x3362c0>
     2ec:	05000000 	streq	r0, [r0, #-0]
     2f0:	03051176 	movweq	r1, #20854	; 0x5176
     2f4:	0d000000 	stceq	0, cr0, [r0, #-0]
     2f8:	0000001b 	andeq	r0, r0, fp, lsl r0
     2fc:	25067705 	strcs	r7, [r6, #-1797]	; 0xfffff8fb
     300:	04000000 	streq	r0, [r0], #-0
     304:	4f040500 	svcmi	0x00040500
     308:	10000000 	andne	r0, r0, r0
     30c:	000003aa 	andeq	r0, r0, sl, lsr #7
     310:	08b50568 	ldmeq	r5!, {r3, r5, r6, r8, sl}
     314:	0000044e 	andeq	r0, r0, lr, asr #8
     318:	00705f11 	rsbseq	r5, r0, r1, lsl pc
     31c:	0512b605 	ldreq	fp, [r2, #-1541]	; 0xfffff9fb
     320:	00000003 	andeq	r0, r0, r3
     324:	00725f11 	rsbseq	r5, r2, r1, lsl pc
     328:	2507b705 	strcs	fp, [r7, #-1797]	; 0xfffff8fb
     32c:	04000000 	streq	r0, [r0], #-0
     330:	00775f11 	rsbseq	r5, r7, r1, lsl pc
     334:	2507b805 	strcs	fp, [r7, #-2053]	; 0xfffff7fb
     338:	08000000 	stmdaeq	r0, {}	; <UNPREDICTABLE>
     33c:	00011f0d 	andeq	r1, r1, sp, lsl #30
     340:	09b90500 	ldmibeq	r9!, {r8, sl}
     344:	0000003a 	andeq	r0, r0, sl, lsr r0
     348:	02080d0c 	andeq	r0, r8, #12, 26	; 0x300
     34c:	ba050000 	blt	140354 <__bss_end__+0x136324>
     350:	00003a09 	andeq	r3, r0, r9, lsl #20
     354:	5f110e00 	svcpl	0x00110e00
     358:	05006662 	streq	r6, [r0, #-1634]	; 0xfffff99e
     35c:	02dd11bb 	sbcseq	r1, sp, #-1073741778	; 0xc000002e
     360:	0d100000 	ldceq	0, cr0, [r0, #-0]
     364:	0000007b 	andeq	r0, r0, fp, ror r0
     368:	2507bc05 	strcs	fp, [r7, #-3077]	; 0xfffff3fb
     36c:	18000000 	stmdane	r0, {}	; <UNPREDICTABLE>
     370:	00010f0d 	andeq	r0, r1, sp, lsl #30
     374:	0ac30500 	beq	ff0c177c <__bss_end__+0xff0b774c>
     378:	00000115 	andeq	r0, r0, r5, lsl r1
     37c:	0b240d1c 	bleq	9037f4 <__bss_end__+0x8f97c4>
     380:	c5050000 	strgt	r0, [r5, #-0]
     384:	0005c01d 	andeq	ip, r5, sp, lsl r0
     388:	190d2000 	stmdbne	sp, {sp}
     38c:	05000006 	streq	r0, [r0, #-6]
     390:	05ea1dc7 	strbeq	r1, [sl, #3527]!	; 0xdc7
     394:	0d240000 	stceq	0, cr0, [r4, #-0]
     398:	0000042c 	andeq	r0, r0, ip, lsr #8
     39c:	0e0dca05 	vmlaeq.f32	s24, s26, s10
     3a0:	28000006 	stmdacs	r0, {r1, r2}
     3a4:	0005100d 	andeq	r1, r5, sp
     3a8:	09cb0500 	stmibeq	fp, {r8, sl}^
     3ac:	00000628 	andeq	r0, r0, r8, lsr #12
     3b0:	755f112c 	ldrbvc	r1, [pc, #-300]	; 28c <_start-0x7d74>
     3b4:	ce050062 	cdpgt	0, 0, cr0, cr5, cr2, {3}
     3b8:	0002dd11 	andeq	sp, r2, r1, lsl sp
     3bc:	5f113000 	svcpl	0x00113000
     3c0:	05007075 	streq	r7, [r0, #-117]	; 0xffffff8b
     3c4:	030512cf 	movweq	r1, #21199	; 0x52cf
     3c8:	11380000 	teqne	r8, r0
     3cc:	0072755f 	rsbseq	r7, r2, pc, asr r5
     3d0:	2507d005 	strcs	sp, [r7, #-5]
     3d4:	3c000000 	stccc	0, cr0, [r0], {-0}
     3d8:	0000b50d 	andeq	fp, r0, sp, lsl #10
     3dc:	11d30500 	bicsne	r0, r3, r0, lsl #10
     3e0:	0000062e 	andeq	r0, r0, lr, lsr #12
     3e4:	04e80d40 	strbteq	r0, [r8], #3392	; 0xd40
     3e8:	d4050000 	strle	r0, [r5], #-0
     3ec:	00063e11 	andeq	r3, r6, r1, lsl lr
     3f0:	5f114300 	svcpl	0x00114300
     3f4:	0500626c 	streq	r6, [r0, #-620]	; 0xfffffd94
     3f8:	02dd11d7 	sbcseq	r1, sp, #-1073741771	; 0xc0000035
     3fc:	0d440000 	stcleq	0, cr0, [r4, #-0]
     400:	0000013d 	andeq	r0, r0, sp, lsr r1
     404:	2507da05 	strcs	sp, [r7, #-2565]	; 0xfffff5fb
     408:	4c000000 	stcmi	0, cr0, [r0], {-0}
     40c:	00014e0d 	andeq	r4, r1, sp, lsl #28
     410:	0adb0500 	beq	ff6c1818 <__bss_end__+0xff6b77e8>
     414:	00000082 	andeq	r0, r0, r2, lsl #1
     418:	0ac50d50 	beq	ff143960 <__bss_end__+0xff139930>
     41c:	de050000 	cdple	0, 0, cr0, cr5, cr0, {0}
     420:	00046c12 	andeq	r6, r4, r2, lsl ip
     424:	1e0d5400 	cfcpysne	mvf5, mvf13
     428:	05000004 	streq	r0, [r0, #-4]
     42c:	01090ce2 	smlatteq	r9, r2, ip, r0
     430:	0d580000 	ldcleq	0, cr0, [r8, #-0]
     434:	000003b2 			; <UNDEFINED> instruction: 0x000003b2
     438:	fd0ee405 	stc2	4, cr14, [lr, #-20]	; 0xffffffec
     43c:	5c000000 	stcpl	0, cr0, [r0], {-0}
     440:	00027b0d 	andeq	r7, r2, sp, lsl #22
     444:	09e50500 	stmibeq	r5!, {r8, sl}^
     448:	00000025 	andeq	r0, r0, r5, lsr #32
     44c:	25150064 	ldrcs	r0, [r5, #-100]	; 0xffffff9c
     450:	6c000000 	stcvs	0, cr0, [r0], {-0}
     454:	16000004 	strne	r0, [r0], -r4
     458:	0000046c 	andeq	r0, r0, ip, ror #8
     45c:	00011516 	andeq	r1, r1, r6, lsl r5
     460:	01171600 	tsteq	r7, r0, lsl #12
     464:	25160000 	ldrcs	r0, [r6, #-0]
     468:	00000000 	andeq	r0, r0, r0
     46c:	04770405 	ldrbteq	r0, [r7], #-1029	; 0xfffffbfb
     470:	6c0f0000 	stcvs	0, cr0, [pc], {-0}
     474:	17000004 	strne	r0, [r0, -r4]
     478:	00000408 	andeq	r0, r0, r8, lsl #8
     47c:	60050428 	andvs	r0, r5, r8, lsr #8
     480:	05c00802 	strbeq	r0, [r0, #2050]	; 0x802
     484:	70180000 	andsvc	r0, r8, r0
     488:	05000003 	streq	r0, [r0, #-3]
     48c:	25070262 	strcs	r0, [r7, #-610]	; 0xfffffd9e
     490:	00000000 	andeq	r0, r0, r0
     494:	00012e18 	andeq	r2, r1, r8, lsl lr
     498:	02670500 	rsbeq	r0, r7, #0, 10
     49c:	00069a0b 	andeq	r9, r6, fp, lsl #20
     4a0:	f8180400 			; <UNDEFINED> instruction: 0xf8180400
     4a4:	05000001 	streq	r0, [r0, #-1]
     4a8:	9a140267 	bls	500e4c <__bss_end__+0x4f6e1c>
     4ac:	08000006 	stmdaeq	r0, {r1, r2}
     4b0:	0001a818 	andeq	sl, r1, r8, lsl r8
     4b4:	02670500 	rsbeq	r0, r7, #0, 10
     4b8:	00069a1e 	andeq	r9, r6, lr, lsl sl
     4bc:	d3180c00 	tstle	r8, #0, 24
     4c0:	05000003 	streq	r0, [r0, #-3]
     4c4:	25080269 	strcs	r0, [r8, #-617]	; 0xfffffd97
     4c8:	10000000 	andne	r0, r0, r0
     4cc:	00002918 	andeq	r2, r0, r8, lsl r9
     4d0:	026a0500 	rsbeq	r0, sl, #0, 10
     4d4:	00089a08 	andeq	r9, r8, r8, lsl #20
     4d8:	e7181400 	ldr	r1, [r8, -r0, lsl #8]
     4dc:	05000003 	streq	r0, [r0, #-3]
     4e0:	2507026d 	strcs	r0, [r7, #-621]	; 0xfffffd93
     4e4:	30000000 	andcc	r0, r0, r0
     4e8:	000a0118 	andeq	r0, sl, r8, lsl r1
     4ec:	026e0500 	rsbeq	r0, lr, #0, 10
     4f0:	0008af16 	andeq	sl, r8, r6, lsl pc
     4f4:	b2183400 	andslt	r3, r8, #0, 8
     4f8:	05000002 	streq	r0, [r0, #-2]
     4fc:	25070270 	strcs	r0, [r7, #-624]	; 0xfffffd90
     500:	38000000 	stmdacc	r0, {}	; <UNPREDICTABLE>
     504:	0003dd18 	andeq	sp, r3, r8, lsl sp
     508:	02720500 	rsbseq	r0, r2, #0, 10
     50c:	0008c00a 	andeq	ip, r8, sl
     510:	57183c00 	ldrpl	r3, [r8, -r0, lsl #24]
     514:	05000002 	streq	r0, [r0, #-2]
     518:	8f130275 	svchi	0x00130275
     51c:	40000001 	andmi	r0, r0, r1
     520:	0001c718 	andeq	ip, r1, r8, lsl r7
     524:	02760500 	rsbseq	r0, r6, #0, 10
     528:	00002507 	andeq	r2, r0, r7, lsl #10
     52c:	2a184400 	bcs	611534 <__bss_end__+0x607504>
     530:	05000005 	streq	r0, [r0, #-5]
     534:	8f130277 	svchi	0x00130277
     538:	48000001 	stmdami	r0, {r0}
     53c:	0002c418 	andeq	ip, r2, r8, lsl r4
     540:	02780500 	rsbseq	r0, r8, #0, 10
     544:	0008c614 	andeq	ip, r8, r4, lsl r6
     548:	00184c00 	andseq	r4, r8, r0, lsl #24
     54c:	05000002 	streq	r0, [r0, #-2]
     550:	2507027b 	strcs	r0, [r7, #-635]	; 0xfffffd85
     554:	50000000 	andpl	r0, r0, r0
     558:	00014618 	andeq	r4, r1, r8, lsl r6
     55c:	027c0500 	rsbseq	r0, ip, #0, 10
     560:	00011709 	andeq	r1, r1, r9, lsl #14
     564:	ea185400 	b	61556c <__bss_end__+0x60b53c>
     568:	05000002 	streq	r0, [r0, #-2]
     56c:	7507029f 	strvc	r0, [r7, #-671]	; 0xfffffd61
     570:	58000008 	stmdapl	r0, {r3}
     574:	0002aa19 	andeq	sl, r2, r9, lsl sl
     578:	02a30500 	adceq	r0, r3, #0, 10
     57c:	0002c013 	andeq	ip, r2, r3, lsl r0
     580:	19014800 	stmdbne	r1, {fp, lr}
     584:	00000235 	andeq	r0, r0, r5, lsr r2
     588:	1202a405 	andne	sl, r2, #83886080	; 0x5000000
     58c:	0000027d 	andeq	r0, r0, sp, ror r2
     590:	d619014c 	ldrle	r0, [r9], -ip, asr #2
     594:	05000004 	streq	r0, [r0, #-4]
     598:	d70c02a8 	strle	r0, [ip, -r8, lsr #5]
     59c:	dc000008 	stcle	0, cr0, [r0], {8}
     5a0:	01171902 	tsteq	r7, r2, lsl #18
     5a4:	ad050000 	stcge	0, cr0, [r5, #-0]
     5a8:	065b1002 	ldrbeq	r1, [fp], -r2
     5ac:	02e00000 	rsceq	r0, r0, #0
     5b0:	0000fc19 	andeq	pc, r0, r9, lsl ip	; <UNPREDICTABLE>
     5b4:	02af0500 	adceq	r0, pc, #0, 10
     5b8:	0008e30a 	andeq	lr, r8, sl, lsl #6
     5bc:	0002ec00 	andeq	lr, r2, r0, lsl #24
     5c0:	044e0405 	strbeq	r0, [lr], #-1029	; 0xfffffbfb
     5c4:	25150000 	ldrcs	r0, [r5, #-0]
     5c8:	e4000000 	str	r0, [r0], #-0
     5cc:	16000005 	strne	r0, [r0], -r5
     5d0:	0000046c 	andeq	r0, r0, ip, ror #8
     5d4:	00011516 	andeq	r1, r1, r6, lsl r5
     5d8:	05e41600 	strbeq	r1, [r4, #1536]!	; 0x600
     5dc:	25160000 	ldrcs	r0, [r6, #-0]
     5e0:	00000000 	andeq	r0, r0, r0
     5e4:	01240405 			; <UNDEFINED> instruction: 0x01240405
     5e8:	04050000 	streq	r0, [r5], #-0
     5ec:	000005c6 	andeq	r0, r0, r6, asr #11
     5f0:	00008e15 	andeq	r8, r0, r5, lsl lr
     5f4:	00060e00 	andeq	r0, r6, r0, lsl #28
     5f8:	046c1600 	strbteq	r1, [ip], #-1536	; 0xfffffa00
     5fc:	15160000 	ldrne	r0, [r6, #-0]
     600:	16000001 	strne	r0, [r0], -r1
     604:	0000008e 	andeq	r0, r0, lr, lsl #1
     608:	00002516 	andeq	r2, r0, r6, lsl r5
     60c:	04050000 	streq	r0, [r5], #-0
     610:	000005f0 	strdeq	r0, [r0], -r0	; <UNPREDICTABLE>
     614:	00002515 	andeq	r2, r0, r5, lsl r5
     618:	00062800 	andeq	r2, r6, r0, lsl #16
     61c:	046c1600 	strbteq	r1, [ip], #-1536	; 0xfffffa00
     620:	15160000 	ldrne	r0, [r6, #-0]
     624:	00000001 	andeq	r0, r0, r1
     628:	06140405 	ldreq	r0, [r4], -r5, lsl #8
     62c:	4f0a0000 	svcmi	0x000a0000
     630:	3e000000 	cdpcc	0, 0, cr0, cr0, cr0, {0}
     634:	0b000006 	bleq	654 <_start-0x79ac>
     638:	0000002c 	andeq	r0, r0, ip, lsr #32
     63c:	4f0a0002 	svcmi	0x000a0002
     640:	4e000000 	cdpmi	0, 0, cr0, cr0, cr0, {0}
     644:	0b000006 	bleq	664 <_start-0x799c>
     648:	0000002c 	andeq	r0, r0, ip, lsr #32
     64c:	98070000 	stmdals	r7, {}	; <UNPREDICTABLE>
     650:	05000003 	streq	r0, [r0, #-3]
     654:	0b1a011f 	bleq	680ad8 <__bss_end__+0x676aa8>
     658:	1a000003 	bne	66c <_start-0x7994>
     65c:	000004bd 			; <UNDEFINED> instruction: 0x000004bd
     660:	0123050c 			; <UNDEFINED> instruction: 0x0123050c
     664:	00069408 	andeq	r9, r6, r8, lsl #8
     668:	03c01800 	biceq	r1, r0, #0, 16
     66c:	25050000 	strcs	r0, [r5, #-0]
     670:	06941101 	ldreq	r1, [r4], r1, lsl #2
     674:	18000000 	stmdane	r0, {}	; <UNPREDICTABLE>
     678:	0000021b 	andeq	r0, r0, fp, lsl r2
     67c:	07012605 	streq	r2, [r1, -r5, lsl #12]
     680:	00000025 	andeq	r0, r0, r5, lsr #32
     684:	03921804 	orrseq	r1, r2, #4, 16	; 0x40000
     688:	27050000 	strcs	r0, [r5, -r0]
     68c:	069a0b01 	ldreq	r0, [sl], r1, lsl #22
     690:	00080000 	andeq	r0, r8, r0
     694:	065b0405 	ldrbeq	r0, [fp], -r5, lsl #8
     698:	04050000 	streq	r0, [r5], #-0
     69c:	0000064e 	andeq	r0, r0, lr, asr #12
     6a0:	0000211a 	andeq	r2, r0, sl, lsl r1
     6a4:	3f050e00 	svccc	0x00050e00
     6a8:	06d90801 	ldrbeq	r0, [r9], r1, lsl #16
     6ac:	0f180000 	svceq	0x00180000
     6b0:	05000004 	streq	r0, [r0, #-4]
     6b4:	d9120140 	ldmdble	r2, {r6, r8}
     6b8:	00000006 	andeq	r0, r0, r6
     6bc:	00044318 	andeq	r4, r4, r8, lsl r3
     6c0:	01410500 	cmpeq	r1, r0, lsl #10
     6c4:	0006d912 	andeq	sp, r6, r2, lsl r9
     6c8:	5f180600 	svcpl	0x00180600
     6cc:	05000004 	streq	r0, [r0, #-4]
     6d0:	56120142 	ldrpl	r0, [r2], -r2, asr #2
     6d4:	0c000000 	stceq	0, cr0, [r0], {-0}
     6d8:	00560a00 	subseq	r0, r6, r0, lsl #20
     6dc:	06e90000 	strbteq	r0, [r9], r0
     6e0:	2c0b0000 	stccs	0, cr0, [fp], {-0}
     6e4:	02000000 	andeq	r0, r0, #0
     6e8:	05d01b00 	ldrbeq	r1, [r0, #2816]	; 0xb00
     6ec:	fe070280 	cdp2	2, 0, cr0, cr7, cr0, {4}
     6f0:	18000007 	stmdane	r0, {r0, r1, r2}
     6f4:	000004a1 	andeq	r0, r0, r1, lsr #9
     6f8:	18028205 	stmdane	r2, {r0, r2, r9, pc}
     6fc:	0000002c 	andeq	r0, r0, ip, lsr #32
     700:	04491800 	strbeq	r1, [r9], #-2048	; 0xfffff800
     704:	83050000 	movwhi	r0, #20480	; 0x5000
     708:	01171202 	tsteq	r7, r2, lsl #4
     70c:	18040000 	stmdane	r4, {}	; <UNPREDICTABLE>
     710:	0000024a 	andeq	r0, r0, sl, asr #4
     714:	10028405 	andne	r8, r2, r5, lsl #8
     718:	000007fe 	strdeq	r0, [r0], -lr
     71c:	05011808 	streq	r1, [r1, #-2056]	; 0xfffff7f8
     720:	85050000 	strhi	r0, [r5, #-0]
     724:	01a51702 			; <UNDEFINED> instruction: 0x01a51702
     728:	18240000 	stmdane	r4!, {}	; <UNPREDICTABLE>
     72c:	000001b8 			; <UNDEFINED> instruction: 0x000001b8
     730:	0f028605 	svceq	0x00028605
     734:	00000025 	andeq	r0, r0, r5, lsr #32
     738:	03bb1848 			; <UNDEFINED> instruction: 0x03bb1848
     73c:	87050000 	strhi	r0, [r5, -r0]
     740:	00642c02 	rsbeq	r2, r4, r2, lsl #24
     744:	18500000 	ldmdane	r0, {}^	; <UNPREDICTABLE>
     748:	00000517 	andeq	r0, r0, r7, lsl r5
     74c:	1a028805 	bne	a2768 <__bss_end__+0x98738>
     750:	000006a0 	andeq	r0, r0, r0, lsr #13
     754:	03c61858 	biceq	r1, r6, #88, 16	; 0x580000
     758:	89050000 	stmdbhi	r5, {}	; <UNPREDICTABLE>
     75c:	00fd1602 	rscseq	r1, sp, r2, lsl #12
     760:	18680000 	stmdane	r8!, {}^	; <UNPREDICTABLE>
     764:	0000051c 	andeq	r0, r0, ip, lsl r5
     768:	16028a05 	strne	r8, [r2], -r5, lsl #20
     76c:	000000fd 	strdeq	r0, [r0], -sp
     770:	02ce1870 	sbceq	r1, lr, #112, 16	; 0x700000
     774:	8b050000 	blhi	14077c <__bss_end__+0x13674c>
     778:	00fd1602 	rscseq	r1, sp, r2, lsl #12
     77c:	18780000 	ldmdane	r8!, {}^	; <UNPREDICTABLE>
     780:	000004cc 	andeq	r0, r0, ip, asr #9
     784:	10028c05 	andne	r8, r2, r5, lsl #24
     788:	0000080e 	andeq	r0, r0, lr, lsl #16
     78c:	023e1880 	eorseq	r1, lr, #128, 16	; 0x800000
     790:	8d050000 	stchi	0, cr0, [r5, #-0]
     794:	081e1002 	ldmdaeq	lr, {r1, ip}
     798:	18880000 	stmne	r8, {}	; <UNPREDICTABLE>
     79c:	0000046c 	andeq	r0, r0, ip, ror #8
     7a0:	0f028e05 	svceq	0x00028e05
     7a4:	00000025 	andeq	r0, r0, r5, lsr #32
     7a8:	017e18a0 	cmneq	lr, r0, lsr #17
     7ac:	8f050000 	svchi	0x00050000
     7b0:	00fd1602 	rscseq	r1, sp, r2, lsl #12
     7b4:	18a40000 	stmiane	r4!, {}	; <UNPREDICTABLE>
     7b8:	0000008f 	andeq	r0, r0, pc, lsl #1
     7bc:	16029005 	strne	r9, [r2], -r5
     7c0:	000000fd 	strdeq	r0, [r0], -sp
     7c4:	016d18ac 	cmneq	sp, ip, lsr #17
     7c8:	91050000 	mrsls	r0, (UNDEF: 5)
     7cc:	00fd1602 	rscseq	r1, sp, r2, lsl #12
     7d0:	18b40000 	ldmne	r4!, {}	; <UNPREDICTABLE>
     7d4:	0000003c 	andeq	r0, r0, ip, lsr r0
     7d8:	16029205 	strne	r9, [r2], -r5, lsl #4
     7dc:	000000fd 	strdeq	r0, [r0], -sp
     7e0:	004b18bc 	strheq	r1, [fp], #-140	; 0xffffff74
     7e4:	93050000 	movwls	r0, #20480	; 0x5000
     7e8:	00fd1602 	rscseq	r1, sp, r2, lsl #12
     7ec:	18c40000 	stmiane	r4, {}^	; <UNPREDICTABLE>
     7f0:	0000036e 	andeq	r0, r0, lr, ror #6
     7f4:	08029405 	stmdaeq	r2, {r0, r2, sl, ip, pc}
     7f8:	00000025 	andeq	r0, r0, r5, lsr #32
     7fc:	1d0a00cc 	stcne	0, cr0, [sl, #-816]	; 0xfffffcd0
     800:	0e000001 	cdpeq	0, 0, cr0, cr0, cr1, {0}
     804:	0b000008 	bleq	82c <_start-0x77d4>
     808:	0000002c 	andeq	r0, r0, ip, lsr #32
     80c:	1d0a0019 	stcne	0, cr0, [sl, #-100]	; 0xffffff9c
     810:	1e000001 	cdpne	0, 0, cr0, cr0, cr1, {0}
     814:	0b000008 	bleq	83c <_start-0x77c4>
     818:	0000002c 	andeq	r0, r0, ip, lsr #32
     81c:	1d0a0007 	stcne	0, cr0, [sl, #-28]	; 0xffffffe4
     820:	2e000001 	cdpcs	0, 0, cr0, cr0, cr1, {0}
     824:	0b000008 	bleq	84c <_start-0x77b4>
     828:	0000002c 	andeq	r0, r0, ip, lsr #32
     82c:	f01b0017 			; <UNDEFINED> instruction: 0xf01b0017
     830:	07029905 	streq	r9, [r2, -r5, lsl #18]
     834:	00000855 	andeq	r0, r0, r5, asr r8
     838:	00029a18 	andeq	r9, r2, r8, lsl sl
     83c:	029c0500 	addseq	r0, ip, #0, 10
     840:	0008551b 	andeq	r5, r8, fp, lsl r5
     844:	c3180000 	tstgt	r8, #0
     848:	05000004 	streq	r0, [r0, #-4]
     84c:	6518029d 	ldrvs	r0, [r8, #-669]	; 0xfffffd63
     850:	78000008 	stmdavc	r0, {r3}
     854:	03050a00 	movweq	r0, #23040	; 0x5a00
     858:	08650000 	stmdaeq	r5!, {}^	; <UNPREDICTABLE>
     85c:	2c0b0000 	stccs	0, cr0, [fp], {-0}
     860:	1d000000 	stcne	0, cr0, [r0, #-0]
     864:	002c0a00 	eoreq	r0, ip, r0, lsl #20
     868:	08750000 	ldmdaeq	r5!, {}^	; <UNPREDICTABLE>
     86c:	2c0b0000 	stccs	0, cr0, [fp], {-0}
     870:	1d000000 	stcne	0, cr0, [r0, #-0]
     874:	05f01c00 	ldrbeq	r1, [r0, #3072]!	; 0xc00
     878:	9a03027e 	bls	c1278 <__bss_end__+0xb7248>
     87c:	1d000008 	stcne	0, cr0, [r0, #-32]	; 0xffffffe0
     880:	00000408 	andeq	r0, r0, r8, lsl #8
     884:	0b029505 	bleq	a5ca0 <__bss_end__+0x9bc70>
     888:	000006e9 	andeq	r0, r0, r9, ror #13
     88c:	0004ee1d 	andeq	lr, r4, sp, lsl lr
     890:	029e0500 	addseq	r0, lr, #0, 10
     894:	00082e0b 	andeq	r2, r8, fp, lsl #28
     898:	1d0a0000 	stcne	0, cr0, [sl, #-0]
     89c:	aa000001 	bge	8a8 <_start-0x7758>
     8a0:	0b000008 	bleq	8c8 <_start-0x7738>
     8a4:	0000002c 	andeq	r0, r0, ip, lsr #32
     8a8:	84060018 	strhi	r0, [r6], #-24	; 0xffffffe8
     8ac:	05000000 	streq	r0, [r0, #-0]
     8b0:	0008aa04 	andeq	sl, r8, r4, lsl #20
     8b4:	08c01e00 	stmiaeq	r0, {r9, sl, fp, ip}^
     8b8:	6c160000 	ldcvs	0, cr0, [r6], {-0}
     8bc:	00000004 	andeq	r0, r0, r4
     8c0:	08b50405 	ldmeq	r5!, {r0, r2, sl}
     8c4:	04050000 	streq	r0, [r5], #-0
     8c8:	0000018f 	andeq	r0, r0, pc, lsl #3
     8cc:	0008d71e 	andeq	sp, r8, lr, lsl r7
     8d0:	00251600 	eoreq	r1, r5, r0, lsl #12
     8d4:	05000000 	streq	r0, [r0, #-0]
     8d8:	0008dd04 	andeq	sp, r8, r4, lsl #26
     8dc:	cc040500 	cfstr32gt	mvfx0, [r4], {-0}
     8e0:	0a000008 	beq	908 <_start-0x76f8>
     8e4:	0000064e 	andeq	r0, r0, lr, asr #12
     8e8:	000008f3 	strdeq	r0, [r0], -r3
     8ec:	00002c0b 	andeq	r2, r0, fp, lsl #24
     8f0:	1f000200 	svcne	0x00000200
     8f4:	0000048e 	andeq	r0, r0, lr, lsl #9
     8f8:	17032e05 	strne	r2, [r3, -r5, lsl #28]
     8fc:	0000046c 	andeq	r0, r0, ip, ror #8
     900:	0004871f 	andeq	r8, r4, pc, lsl r7
     904:	032f0500 			; <UNDEFINED> instruction: 0x032f0500
     908:	0004721d 	andeq	r7, r4, sp, lsl r2
     90c:	00251500 	eoreq	r1, r5, r0, lsl #10
     910:	091c0000 	ldmdbeq	ip, {}	; <UNPREDICTABLE>
     914:	25160000 	ldrcs	r0, [r6, #-0]
     918:	00000000 	andeq	r0, r0, r0
     91c:	0001d120 	andeq	sp, r1, r0, lsr #2
     920:	0e1d0600 	cfmsub32eq	mvax0, mvfx0, mvfx13, mvfx0
     924:	00000928 	andeq	r0, r0, r8, lsr #18
     928:	090d0405 	stmdbeq	sp, {r0, r2, sl}
     92c:	25150000 	ldrcs	r0, [r5, #-0]
     930:	3d000000 	stccc	0, cr0, [r0, #-0]
     934:	16000009 	strne	r0, [r0], -r9
     938:	000005e4 	andeq	r0, r0, r4, ror #11
     93c:	07682000 	strbeq	r2, [r8, -r0]!
     940:	22060000 	andcs	r0, r6, #0
     944:	0009490e 	andeq	r4, r9, lr, lsl #18
     948:	2e040500 	cfsh32cs	mvfx0, mvfx4, #0
     94c:	21000009 	tstcs	r0, r9
     950:	00000034 	andeq	r0, r0, r4, lsr r0
     954:	10060501 	andne	r0, r6, r1, lsl #10
     958:	fc000080 	stc2	0, cr0, [r0], {128}	; 0x80
     95c:	01000000 	mrseq	r0, (UNDEF: 0)
     960:	000b349c 	muleq	fp, ip, r4
     964:	006e2200 	rsbeq	r2, lr, r0, lsl #4
     968:	2c0e0a01 			; <UNDEFINED> instruction: 0x2c0e0a01
     96c:	00000000 	andeq	r0, r0, r0
     970:	23001000 	movwcs	r1, #0
     974:	0d010070 	stceq	0, cr0, [r1, #-448]	; 0xfffffe40
     978:	0001170b 	andeq	r1, r1, fp, lsl #14
     97c:	00000400 	andeq	r0, r0, r0, lsl #8
     980:	00000000 	andeq	r0, r0, r0
     984:	020e2400 	andeq	r2, lr, #0, 8
     988:	0b440000 	bleq	1100990 <__bss_end__+0x10f6960>
     98c:	03050000 	movweq	r0, #20480	; 0x5000
     990:	000096e8 	andeq	r9, r0, r8, ror #13
     994:	00801c25 	addeq	r1, r0, r5, lsr #24
     998:	000b4900 	andeq	r4, fp, r0, lsl #18
     99c:	0009ab00 	andeq	sl, r9, r0, lsl #22
     9a0:	50012600 	andpl	r2, r1, r0, lsl #12
     9a4:	96580305 	ldrbls	r0, [r8], -r5, lsl #6
     9a8:	25000000 	strcs	r0, [r0, #-0]
     9ac:	00008024 	andeq	r8, r0, r4, lsr #32
     9b0:	00000b55 	andeq	r0, r0, r5, asr fp
     9b4:	000009c0 	andeq	r0, r0, r0, asr #19
     9b8:	03500126 	cmpeq	r0, #-2147483639	; 0x80000009
     9bc:	00244040 	eoreq	r4, r4, r0, asr #32
     9c0:	00802c25 	addeq	r2, r0, r5, lsr #24
     9c4:	000b6100 	andeq	r6, fp, r0, lsl #2
     9c8:	0009d500 	andeq	sp, r9, r0, lsl #10
     9cc:	50012600 	andpl	r2, r1, r0, lsl #12
     9d0:	24404003 	strbcs	r4, [r0], #-3
     9d4:	80342500 	eorshi	r2, r4, r0, lsl #10
     9d8:	0b6d0000 	bleq	1b409e0 <__bss_end__+0x1b369b0>
     9dc:	09ea0000 	stmibeq	sl!, {}^	; <UNPREDICTABLE>
     9e0:	01260000 			; <UNDEFINED> instruction: 0x01260000
     9e4:	40400351 	submi	r0, r0, r1, asr r3
     9e8:	50250024 	eorpl	r0, r5, r4, lsr #32
     9ec:	79000080 	stmdbvc	r0, {r7}
     9f0:	0e00000b 	cdpeq	0, 0, cr0, cr0, cr11, {0}
     9f4:	2600000a 	strcs	r0, [r0], -sl
     9f8:	34015001 	strcc	r5, [r1], #-1
     9fc:	02510126 	subseq	r0, r1, #-2147483639	; 0x80000009
     a00:	01260075 			; <UNDEFINED> instruction: 0x01260075
     a04:	00760252 	rsbseq	r0, r6, r2, asr r2
     a08:	01530126 	cmpeq	r3, r6, lsr #2
     a0c:	6025003d 	eorvs	r0, r5, sp, lsr r0
     a10:	85000080 	strhi	r0, [r0, #-128]	; 0xffffff80
     a14:	2c00000b 	stccs	0, cr0, [r0], {11}
     a18:	2600000a 	strcs	r0, [r0], -sl
     a1c:	74025001 	strvc	r5, [r2], #-1
     a20:	51012600 	tstpl	r1, r0, lsl #12
     a24:	01263001 			; <UNDEFINED> instruction: 0x01263001
     a28:	00340152 	eorseq	r0, r4, r2, asr r1
     a2c:	00807425 	addeq	r7, r0, r5, lsr #8
     a30:	000b9100 	andeq	r9, fp, r0, lsl #2
     a34:	000a5100 	andeq	r5, sl, r0, lsl #2
     a38:	50012600 	andpl	r2, r1, r0, lsl #12
     a3c:	26007402 	strcs	r7, [r0], -r2, lsl #8
     a40:	75025101 	strvc	r5, [r2, #-257]	; 0xfffffeff
     a44:	52012600 	andpl	r2, r1, #0, 12
     a48:	26007602 	strcs	r7, [r0], -r2, lsl #12
     a4c:	3f015301 	svccc	0x00015301
     a50:	80782700 	rsbshi	r2, r8, r0, lsl #14
     a54:	0b9d0000 	bleq	fe740a5c <__bss_end__+0xfe736a2c>
     a58:	88250000 	stmdahi	r5!, {}	; <UNPREDICTABLE>
     a5c:	49000080 	stmdbmi	r0, {r7}
     a60:	7100000b 	tstvc	r0, fp
     a64:	2600000a 	strcs	r0, [r0], -sl
     a68:	03055001 	movweq	r5, #20481	; 0x5001
     a6c:	000096a4 	andeq	r9, r0, r4, lsr #13
     a70:	80902500 	addshi	r2, r0, r0, lsl #10
     a74:	0b490000 	bleq	1240a7c <__bss_end__+0x1236a4c>
     a78:	0a880000 	beq	fe200a80 <__bss_end__+0xfe1f6a50>
     a7c:	01260000 			; <UNDEFINED> instruction: 0x01260000
     a80:	ac030550 	cfstr32ge	mvfx0, [r3], {80}	; 0x50
     a84:	00000096 	muleq	r0, r6, r0
     a88:	00809c27 	addeq	r9, r0, r7, lsr #24
     a8c:	000b9d00 	andeq	r9, fp, r0, lsl #26
     a90:	80ac2500 	adchi	r2, ip, r0, lsl #10
     a94:	0b490000 	bleq	1240a9c <__bss_end__+0x1236a6c>
     a98:	0aa80000 	beq	fea00aa0 <__bss_end__+0xfe9f6a70>
     a9c:	01260000 			; <UNDEFINED> instruction: 0x01260000
     aa0:	a4030550 	strge	r0, [r3], #-1360	; 0xfffffab0
     aa4:	00000096 	muleq	r0, r6, r0
     aa8:	0080b425 	addeq	fp, r0, r5, lsr #8
     aac:	000b4900 	andeq	r4, fp, r0, lsl #18
     ab0:	000abf00 	andeq	fp, sl, r0, lsl #30
     ab4:	50012600 	andpl	r2, r1, r0, lsl #12
     ab8:	96c80305 	strbls	r0, [r8], r5, lsl #6
     abc:	27000000 	strcs	r0, [r0, -r0]
     ac0:	000080bc 	strheq	r8, [r0], -ip
     ac4:	00000ba9 	andeq	r0, r0, r9, lsr #23
     ac8:	0080d025 	addeq	sp, r0, r5, lsr #32
     acc:	000b4900 	andeq	r4, fp, r0, lsl #18
     ad0:	000af000 	andeq	pc, sl, r0
     ad4:	50012600 	andpl	r2, r1, r0, lsl #12
     ad8:	96800305 	strls	r0, [r0], r5, lsl #6
     adc:	01260000 			; <UNDEFINED> instruction: 0x01260000
     ae0:	00750251 	rsbseq	r0, r5, r1, asr r2
     ae4:	02520126 	subseq	r0, r2, #-2147483639	; 0x80000009
     ae8:	01260076 			; <UNDEFINED> instruction: 0x01260076
     aec:	00420153 	subeq	r0, r2, r3, asr r1
     af0:	0080d427 	addeq	sp, r0, r7, lsr #8
     af4:	000bb500 	andeq	fp, fp, r0, lsl #10
     af8:	80d82700 	sbcshi	r2, r8, r0, lsl #14
     afc:	0ba90000 	bleq	fea40b04 <__bss_end__+0xfea36ad4>
     b00:	ec250000 	stc	0, cr0, [r5], #-0
     b04:	49000080 	stmdbmi	r0, {r7}
     b08:	2a00000b 	bcs	b3c <_start-0x74c4>
     b0c:	2600000b 	strcs	r0, [r0], -fp
     b10:	03055001 	movweq	r5, #20481	; 0x5001
     b14:	00009680 	andeq	r9, r0, r0, lsl #13
     b18:	02510126 	subseq	r0, r1, #-2147483639	; 0x80000009
     b1c:	01260075 			; <UNDEFINED> instruction: 0x01260075
     b20:	00760252 	rsbseq	r0, r6, r2, asr r2
     b24:	01530126 	cmpeq	r3, r6, lsr #2
     b28:	f0270049 			; <UNDEFINED> instruction: 0xf0270049
     b2c:	b5000080 	strlt	r0, [r0, #-128]	; 0xffffff80
     b30:	0000000b 	andeq	r0, r0, fp
     b34:	0001240a 	andeq	r2, r1, sl, lsl #8
     b38:	000b4400 	andeq	r4, fp, r0, lsl #8
     b3c:	002c0b00 	eoreq	r0, ip, r0, lsl #22
     b40:	00070000 	andeq	r0, r7, r0
     b44:	000b340f 	andeq	r3, fp, pc, lsl #8
     b48:	06ff2800 	ldrbteq	r2, [pc], r0, lsl #16
     b4c:	06ff0000 	ldrbteq	r0, [pc], r0
     b50:	29060000 	stmdbcs	r6, {}	; <UNPREDICTABLE>
     b54:	01562805 	cmpeq	r6, r5, lsl #16
     b58:	01560000 	cmpeq	r6, r0
     b5c:	72060000 	andvc	r0, r6, #0
     b60:	04e02806 	strbteq	r2, [r0], #2054	; 0x806
     b64:	04e00000 	strbteq	r0, [r0], #0
     b68:	6c060000 	stcvs	0, cr0, [r6], {-0}
     b6c:	01352807 	teqeq	r5, r7, lsl #16
     b70:	01350000 	teqeq	r5, r0
     b74:	77070000 	strvc	r0, [r7, -r0]
     b78:	00732806 	rsbseq	r2, r3, r6, lsl #16
     b7c:	00730000 	rsbseq	r0, r3, r0
     b80:	74070000 	strvc	r0, [r7], #-0
     b84:	049a2808 	ldreq	r2, [sl], #2056	; 0x808
     b88:	049a0000 	ldreq	r0, [sl], #0
     b8c:	21080000 	mrscs	r0, (UNDEF: 8)
     b90:	02742809 	rsbseq	r2, r4, #589824	; 0x90000
     b94:	02740000 	rsbseq	r0, r4, #0
     b98:	75070000 	strvc	r0, [r7, #-0]
     b9c:	000c2807 	andeq	r2, ip, r7, lsl #16
     ba0:	000c0000 	andeq	r0, ip, r0
     ba4:	7d070000 	stcvc	0, cr0, [r7, #-0]
     ba8:	01e92805 	mvneq	r2, r5, lsl #16
     bac:	01e90000 	mvneq	r0, r0
     bb0:	1e060000 	cdpne	0, 0, cr0, cr6, cr0, {0}
     bb4:	028d2806 	addeq	r2, sp, #393216	; 0x60000
     bb8:	028d0000 	addeq	r0, sp, #0
     bbc:	65060000 	strvs	r0, [r6, #-0]
     bc0:	19850006 	stmibne	r5, {r1, r2}
     bc4:	00040000 	andeq	r0, r4, r0
     bc8:	0000023a 	andeq	r0, r0, sl, lsr r2
     bcc:	02ef0104 	rsceq	r0, pc, #4, 2
     bd0:	d30c0000 	movwle	r0, #49152	; 0xc000
     bd4:	cb000005 	blgt	bf0 <_start-0x7410>
     bd8:	0c000000 	stceq	0, cr0, [r0], {-0}
     bdc:	68000081 	stmdavs	r0, {r0, r7}
     be0:	5e000008 	cdppl	0, 0, cr0, cr0, cr8, {0}
     be4:	02000001 	andeq	r0, r0, #1
     be8:	6e690504 	cdpvs	5, 6, cr0, cr9, cr4, {0}
     bec:	04030074 	streq	r0, [r3], #-116	; 0xffffff8c
     bf0:	00006607 	andeq	r6, r0, r7, lsl #12
     bf4:	06010300 	streq	r0, [r1], -r0, lsl #6
     bf8:	000002de 	ldrdeq	r0, [r0], -lr
     bfc:	77050203 	strvc	r0, [r5, -r3, lsl #4]
     c00:	03000003 	movweq	r0, #3
     c04:	00ac0504 	adceq	r0, ip, r4, lsl #10
     c08:	08030000 	stmdaeq	r3, {}	; <UNPREDICTABLE>
     c0c:	0000a705 	andeq	sl, r0, r5, lsl #14
     c10:	06860400 	streq	r0, [r6], r0, lsl #8
     c14:	2e030000 	cdpcs	0, 0, cr0, cr3, cr0, {0}
     c18:	00005b18 	andeq	r5, r0, r8, lsl fp
     c1c:	08010300 	stmdaeq	r1, {r8, r9}
     c20:	000002dc 	ldrdeq	r0, [r0], -ip
     c24:	22070203 	andcs	r0, r7, #805306368	; 0x30000000
     c28:	04000002 	streq	r0, [r0], #-2
     c2c:	00000644 	andeq	r0, r0, r4, asr #12
     c30:	75193403 	ldrvc	r3, [r9, #-1027]	; 0xfffffbfd
     c34:	03000000 	movweq	r0, #0
     c38:	00610704 	rsbeq	r0, r1, r4, lsl #14
     c3c:	08030000 	stmdaeq	r3, {}	; <UNPREDICTABLE>
     c40:	00005c07 	andeq	r5, r0, r7, lsl #24
     c44:	02650400 	rsbeq	r0, r5, #0, 8
     c48:	22040000 	andcs	r0, r4, #0
     c4c:	00008f19 	andeq	r8, r0, r9, lsl pc
     c50:	95040500 	strls	r0, [r4, #-1280]	; 0xfffffb00
     c54:	06000000 	streq	r0, [r0], -r0
     c58:	0000041d 	andeq	r0, r0, sp, lsl r4
     c5c:	0002bd04 	andeq	fp, r2, r4, lsl #26
     c60:	0e2c0500 	cfsh64eq	mvdx0, mvdx12, #0
     c64:	00000041 	andeq	r0, r0, r1, asr #32
     c68:	00043204 	andeq	r3, r4, r4, lsl #4
     c6c:	0e720500 	cdpeq	5, 7, cr0, cr2, cr0, {0}
     c70:	00000041 	andeq	r0, r0, r1, asr #32
     c74:	00026d07 	andeq	r6, r2, r7, lsl #26
     c78:	015e0600 	cmpeq	lr, r0, lsl #12
     c7c:	00002c17 	andeq	r2, r0, r7, lsl ip
     c80:	05040800 	streq	r0, [r4, #-2048]	; 0xfffff800
     c84:	00e103a6 	rsceq	r0, r1, r6, lsr #7
     c88:	5f090000 	svcpl	0x00090000
     c8c:	05000002 	streq	r0, [r0, #-2]
     c90:	00b20ca8 	adcseq	r0, r2, r8, lsr #25
     c94:	e2090000 	and	r0, r9, #0
     c98:	05000001 	streq	r0, [r0, #-1]
     c9c:	00e113a9 	rsceq	r1, r1, r9, lsr #7
     ca0:	0a000000 	beq	ca8 <_start-0x7358>
     ca4:	0000005b 	andeq	r0, r0, fp, asr r0
     ca8:	000000f1 	strdeq	r0, [r0], -r1
     cac:	00002c0b 	andeq	r2, r0, fp, lsl #24
     cb0:	0c000300 	stceq	3, cr0, [r0], {-0}
     cb4:	09a30508 	stmibeq	r3!, {r3, r8, sl}
     cb8:	00000115 	andeq	r0, r0, r5, lsl r1
     cbc:	0004150d 	andeq	r1, r4, sp, lsl #10
     cc0:	07a50500 	streq	r0, [r5, r0, lsl #10]!
     cc4:	00000025 	andeq	r0, r0, r5, lsr #32
     cc8:	04240d00 	strteq	r0, [r4], #-3328	; 0xfffff300
     ccc:	aa050000 	bge	140cd4 <__bss_end__+0x136ca4>
     cd0:	0000bf05 	andeq	fp, r0, r5, lsl #30
     cd4:	04000400 	streq	r0, [r0], #-1024	; 0xfffffc00
     cd8:	0000039f 	muleq	r0, pc, r3	; <UNPREDICTABLE>
     cdc:	f103ab05 			; <UNDEFINED> instruction: 0xf103ab05
     ce0:	04000000 	streq	r0, [r0], #-0
     ce4:	0000019f 	muleq	r0, pc, r1	; <UNPREDICTABLE>
     ce8:	831baf05 	tsthi	fp, #5, 30
     cec:	0e000000 	cdpeq	0, 0, cr0, cr0, cr0, {0}
     cf0:	35040504 	strcc	r0, [r4, #-1284]	; 0xfffffafc
     cf4:	03000001 	movweq	r0, #1
     cf8:	02e50801 	rsceq	r0, r5, #65536	; 0x10000
     cfc:	350f0000 	strcc	r0, [pc, #-0]	; d04 <_start-0x72fc>
     d00:	04000001 	streq	r0, [r0], #-1
     d04:	00000464 	andeq	r0, r0, r4, ror #8
     d08:	75191607 	ldrvc	r1, [r9, #-1543]	; 0xfffff9f9
     d0c:	10000000 	andne	r0, r0, r0
     d10:	000001b0 			; <UNDEFINED> instruction: 0x000001b0
     d14:	082f0718 	stmdaeq	pc!, {r3, r4, r8, r9, sl}	; <UNPREDICTABLE>
     d18:	000001a7 	andeq	r0, r0, r7, lsr #3
     d1c:	0003c00d 	andeq	ip, r3, sp
     d20:	13310700 	teqne	r1, #0, 14
     d24:	000001a7 	andeq	r0, r0, r7, lsr #3
     d28:	6b5f1100 	blvs	17c5130 <__bss_end__+0x17bb100>
     d2c:	07320700 	ldreq	r0, [r2, -r0, lsl #14]!
     d30:	00000025 	andeq	r0, r0, r5, lsr #32
     d34:	04000d04 	streq	r0, [r0], #-3332	; 0xfffff2fc
     d38:	32070000 	andcc	r0, r7, #0
     d3c:	0000250b 	andeq	r2, r0, fp, lsl #10
     d40:	990d0800 	stmdbls	sp, {fp}
     d44:	07000001 	streq	r0, [r0, -r1]
     d48:	00251432 	eoreq	r1, r5, r2, lsr r4
     d4c:	0d0c0000 	stceq	0, cr0, [ip, #-0]
     d50:	000004ae 	andeq	r0, r0, lr, lsr #9
     d54:	251b3207 	ldrcs	r3, [fp, #-519]	; 0xfffffdf9
     d58:	10000000 	andne	r0, r0, r0
     d5c:	00785f11 	rsbseq	r5, r8, r1, lsl pc
     d60:	ad0b3307 	stcge	3, cr3, [fp, #-28]	; 0xffffffe4
     d64:	14000001 	strne	r0, [r0], #-1
     d68:	4d040500 	cfstr32mi	mvfx0, [r4, #-0]
     d6c:	0a000001 	beq	d78 <_start-0x7288>
     d70:	00000141 	andeq	r0, r0, r1, asr #2
     d74:	000001bd 			; <UNDEFINED> instruction: 0x000001bd
     d78:	00002c0b 	andeq	r2, r0, fp, lsl #24
     d7c:	10000000 	andne	r0, r0, r0
     d80:	000001dd 	ldrdeq	r0, [r0], -sp
     d84:	08370724 	ldmdaeq	r7!, {r2, r5, r8, r9, sl}
     d88:	00000240 	andeq	r0, r0, r0, asr #4
     d8c:	00009e0d 	andeq	r9, r0, sp, lsl #28
     d90:	09390700 	ldmdbeq	r9!, {r8, r9, sl}
     d94:	00000025 	andeq	r0, r0, r5, lsr #32
     d98:	043a0d00 	ldrteq	r0, [sl], #-3328	; 0xfffff300
     d9c:	3a070000 	bcc	1c0da4 <__bss_end__+0x1b6d74>
     da0:	00002509 	andeq	r2, r0, r9, lsl #10
     da4:	c10d0400 	tstgt	sp, r0, lsl #8
     da8:	07000000 	streq	r0, [r0, -r0]
     dac:	0025093b 	eoreq	r0, r5, fp, lsr r9
     db0:	0d080000 	stceq	0, cr0, [r8, #-0]
     db4:	0000052f 	andeq	r0, r0, pc, lsr #10
     db8:	25093c07 	strcs	r3, [r9, #-3079]	; 0xfffff3f9
     dbc:	0c000000 	stceq	0, cr0, [r0], {-0}
     dc0:	0002a10d 	andeq	sl, r2, sp, lsl #2
     dc4:	093d0700 	ldmdbeq	sp!, {r8, r9, sl}
     dc8:	00000025 	andeq	r0, r0, r5, lsr #32
     dcc:	02830d10 	addeq	r0, r3, #16, 26	; 0x400
     dd0:	3e070000 	cdpcc	0, 0, cr0, cr7, cr0, {0}
     dd4:	00002509 	andeq	r2, r0, r9, lsl #10
     dd8:	b30d1400 	movwlt	r1, #54272	; 0xd400
     ddc:	07000004 	streq	r0, [r0, -r4]
     de0:	0025093f 	eoreq	r0, r5, pc, lsr r9
     de4:	0d180000 	ldceq	0, cr0, [r8, #-0]
     de8:	00000381 	andeq	r0, r0, r1, lsl #7
     dec:	25094007 	strcs	r4, [r9, #-7]
     df0:	1c000000 	stcne	0, cr0, [r0], {-0}
     df4:	0004f60d 	andeq	pc, r4, sp, lsl #12
     df8:	09410700 	stmdbeq	r1, {r8, r9, sl}^
     dfc:	00000025 	andeq	r0, r0, r5, lsr #32
     e00:	01120020 	tsteq	r2, r0, lsr #32
     e04:	08000001 	stmdaeq	r0, {r0}
     e08:	084a0701 	stmdaeq	sl, {r0, r8, r9, sl}^
     e0c:	00000285 	andeq	r0, r0, r5, lsl #5
     e10:	00018c0d 	andeq	r8, r1, sp, lsl #24
     e14:	0a4b0700 	beq	12c2a1c <__bss_end__+0x12b89ec>
     e18:	00000285 	andeq	r0, r0, r5, lsl #5
     e1c:	00000d00 	andeq	r0, r0, r0, lsl #26
     e20:	4c070000 	stcmi	0, cr0, [r7], {-0}
     e24:	00028509 	andeq	r8, r2, r9, lsl #10
     e28:	56138000 	ldrpl	r8, [r3], -r0
     e2c:	07000004 	streq	r0, [r0, -r4]
     e30:	01410a4e 	cmpeq	r1, lr, asr #20
     e34:	01000000 	mrseq	r0, (UNDEF: 0)
     e38:	00012613 	andeq	r2, r1, r3, lsl r6
     e3c:	0a510700 	beq	1442a44 <__bss_end__+0x1438a14>
     e40:	00000141 	andeq	r0, r0, r1, asr #2
     e44:	0a000104 	beq	125c <_start-0x6da4>
     e48:	0000012d 	andeq	r0, r0, sp, lsr #2
     e4c:	00000295 	muleq	r0, r5, r2
     e50:	00002c0b 	andeq	r2, r0, fp, lsl #24
     e54:	12001f00 	andne	r1, r0, #0, 30
     e58:	000002aa 	andeq	r0, r0, sl, lsr #5
     e5c:	5d070190 	stfpls	f0, [r7, #-576]	; 0xfffffdc0
     e60:	0002d808 	andeq	sp, r2, r8, lsl #16
     e64:	03c00d00 	biceq	r0, r0, #0, 26
     e68:	5e070000 	cdppl	0, 0, cr0, cr7, cr0, {0}
     e6c:	0002d812 	andeq	sp, r2, r2, lsl r8
     e70:	d80d0000 	stmdale	sp, {}	; <UNPREDICTABLE>
     e74:	07000003 	streq	r0, [r0, -r3]
     e78:	0025065f 	eoreq	r0, r5, pc, asr r6
     e7c:	0d040000 	stceq	0, cr0, [r4, #-0]
     e80:	00000194 	muleq	r0, r4, r1
     e84:	de096107 	adflee	f6, f1, f7
     e88:	08000002 	stmdaeq	r0, {r1}
     e8c:	0001010d 	andeq	r0, r1, sp, lsl #2
     e90:	1e620700 	cdpne	7, 6, cr0, cr2, cr0, {0}
     e94:	00000240 	andeq	r0, r0, r0, asr #4
     e98:	04050088 	streq	r0, [r5], #-136	; 0xffffff78
     e9c:	00000295 	muleq	r0, r5, r2
     ea0:	0002ee0a 	andeq	lr, r2, sl, lsl #28
     ea4:	0002ee00 	andeq	lr, r2, r0, lsl #28
     ea8:	002c0b00 	eoreq	r0, ip, r0, lsl #22
     eac:	001f0000 	andseq	r0, pc, r0
     eb0:	02f40405 	rscseq	r0, r4, #83886080	; 0x5000000
     eb4:	10140000 	andsne	r0, r4, r0
     eb8:	0000038b 	andeq	r0, r0, fp, lsl #7
     ebc:	08750708 	ldmdaeq	r5!, {r3, r8, r9, sl}^
     ec0:	0000031d 	andeq	r0, r0, sp, lsl r3
     ec4:	0000bb0d 	andeq	fp, r0, sp, lsl #22
     ec8:	11760700 	cmnne	r6, r0, lsl #14
     ecc:	0000031d 	andeq	r0, r0, sp, lsl r3
     ed0:	001b0d00 	andseq	r0, fp, r0, lsl #26
     ed4:	77070000 	strvc	r0, [r7, -r0]
     ed8:	00002506 	andeq	r2, r0, r6, lsl #10
     edc:	05000400 	streq	r0, [r0, #-1024]	; 0xfffffc00
     ee0:	00005b04 	andeq	r5, r0, r4, lsl #22
     ee4:	03aa1000 			; <UNDEFINED> instruction: 0x03aa1000
     ee8:	07680000 	strbeq	r0, [r8, -r0]!
     eec:	046608b5 	strbteq	r0, [r6], #-2229	; 0xfffff74b
     ef0:	5f110000 	svcpl	0x00110000
     ef4:	b6070070 			; <UNDEFINED> instruction: 0xb6070070
     ef8:	00031d12 	andeq	r1, r3, r2, lsl sp
     efc:	5f110000 	svcpl	0x00110000
     f00:	b7070072 	smlsdxlt	r7, r2, r0, r0
     f04:	00002507 	andeq	r2, r0, r7, lsl #10
     f08:	5f110400 	svcpl	0x00110400
     f0c:	b8070077 	stmdalt	r7, {r0, r1, r2, r4, r5, r6}
     f10:	00002507 	andeq	r2, r0, r7, lsl #10
     f14:	1f0d0800 	svcne	0x000d0800
     f18:	07000001 	streq	r0, [r0, -r1]
     f1c:	003a09b9 	ldrhteq	r0, [sl], -r9
     f20:	0d0c0000 	stceq	0, cr0, [ip, #-0]
     f24:	00000208 	andeq	r0, r0, r8, lsl #4
     f28:	3a09ba07 	bcc	26f74c <__bss_end__+0x26571c>
     f2c:	0e000000 	cdpeq	0, 0, cr0, cr0, cr0, {0}
     f30:	66625f11 	uqadd16vs	r5, r2, r1
     f34:	11bb0700 			; <UNDEFINED> instruction: 0x11bb0700
     f38:	000002f5 	strdeq	r0, [r0], -r5
     f3c:	007b0d10 	rsbseq	r0, fp, r0, lsl sp
     f40:	bc070000 	stclt	0, cr0, [r7], {-0}
     f44:	00002507 	andeq	r2, r0, r7, lsl #10
     f48:	0f0d1800 	svceq	0x000d1800
     f4c:	07000001 	streq	r0, [r0, -r1]
     f50:	012d0ac3 	smlawteq	sp, r3, sl, r0
     f54:	0d1c0000 	ldceq	0, cr0, [ip, #-0]
     f58:	00000b24 	andeq	r0, r0, r4, lsr #22
     f5c:	d81dc507 	ldmdale	sp, {r0, r1, r2, r8, sl, lr, pc}
     f60:	20000005 	andcs	r0, r0, r5
     f64:	0006190d 	andeq	r1, r6, sp, lsl #18
     f68:	1dc70700 	stclne	7, cr0, [r7]
     f6c:	00000602 	andeq	r0, r0, r2, lsl #12
     f70:	042c0d24 	strteq	r0, [ip], #-3364	; 0xfffff2dc
     f74:	ca070000 	bgt	1c0f7c <__bss_end__+0x1b6f4c>
     f78:	0006260d 	andeq	r2, r6, sp, lsl #12
     f7c:	100d2800 	andne	r2, sp, r0, lsl #16
     f80:	07000005 	streq	r0, [r0, -r5]
     f84:	064009cb 	strbeq	r0, [r0], -fp, asr #19
     f88:	112c0000 			; <UNDEFINED> instruction: 0x112c0000
     f8c:	0062755f 	rsbeq	r7, r2, pc, asr r5
     f90:	f511ce07 			; <UNDEFINED> instruction: 0xf511ce07
     f94:	30000002 	andcc	r0, r0, r2
     f98:	70755f11 	rsbsvc	r5, r5, r1, lsl pc
     f9c:	12cf0700 	sbcne	r0, pc, #0, 14
     fa0:	0000031d 	andeq	r0, r0, sp, lsl r3
     fa4:	755f1138 	ldrbvc	r1, [pc, #-312]	; e74 <_start-0x718c>
     fa8:	d0070072 	andle	r0, r7, r2, ror r0
     fac:	00002507 	andeq	r2, r0, r7, lsl #10
     fb0:	b50d3c00 	strlt	r3, [sp, #-3072]	; 0xfffff400
     fb4:	07000000 	streq	r0, [r0, -r0]
     fb8:	064611d3 			; <UNDEFINED> instruction: 0x064611d3
     fbc:	0d400000 	stcleq	0, cr0, [r0, #-0]
     fc0:	000004e8 	andeq	r0, r0, r8, ror #9
     fc4:	5611d407 	ldrpl	sp, [r1], -r7, lsl #8
     fc8:	43000006 	movwmi	r0, #6
     fcc:	626c5f11 	rsbvs	r5, ip, #17, 30	; 0x44
     fd0:	11d70700 	bicsne	r0, r7, r0, lsl #14
     fd4:	000002f5 	strdeq	r0, [r0], -r5
     fd8:	013d0d44 	teqeq	sp, r4, asr #26
     fdc:	da070000 	ble	1c0fe4 <__bss_end__+0x1b6fb4>
     fe0:	00002507 	andeq	r2, r0, r7, lsl #10
     fe4:	4e0d4c00 	cdpmi	12, 0, cr4, cr13, cr0, {0}
     fe8:	07000001 	streq	r0, [r0, -r1]
     fec:	009a0adb 			; <UNDEFINED> instruction: 0x009a0adb
     ff0:	0d500000 	ldcleq	0, cr0, [r0, #-0]
     ff4:	00000ac5 	andeq	r0, r0, r5, asr #21
     ff8:	8412de07 	ldrhi	sp, [r2], #-3591	; 0xfffff1f9
     ffc:	54000004 	strpl	r0, [r0], #-4
    1000:	00041e0d 	andeq	r1, r4, sp, lsl #28
    1004:	0ce20700 	stcleq	7, cr0, [r2]
    1008:	00000121 	andeq	r0, r0, r1, lsr #2
    100c:	03b20d58 			; <UNDEFINED> instruction: 0x03b20d58
    1010:	e4070000 	str	r0, [r7], #-0
    1014:	0001150e 	andeq	r1, r1, lr, lsl #10
    1018:	7b0d5c00 	blvc	358020 <__bss_end__+0x34dff0>
    101c:	07000002 	streq	r0, [r0, -r2]
    1020:	002509e5 	eoreq	r0, r5, r5, ror #19
    1024:	00640000 	rsbeq	r0, r4, r0
    1028:	00002515 	andeq	r2, r0, r5, lsl r5
    102c:	00048400 	andeq	r8, r4, r0, lsl #8
    1030:	04841600 	streq	r1, [r4], #1536	; 0x600
    1034:	2d160000 	ldccs	0, cr0, [r6, #-0]
    1038:	16000001 	strne	r0, [r0], -r1
    103c:	0000012f 	andeq	r0, r0, pc, lsr #2
    1040:	00002516 	andeq	r2, r0, r6, lsl r5
    1044:	04050000 	streq	r0, [r5], #-0
    1048:	0000048f 	andeq	r0, r0, pc, lsl #9
    104c:	0004840f 	andeq	r8, r4, pc, lsl #8
    1050:	04081700 	streq	r1, [r8], #-1792	; 0xfffff900
    1054:	04280000 	strteq	r0, [r8], #-0
    1058:	08026007 	stmdaeq	r2, {r0, r1, r2, sp, lr}
    105c:	000005d8 	ldrdeq	r0, [r0], -r8
    1060:	00037018 	andeq	r7, r3, r8, lsl r0
    1064:	02620700 	rsbeq	r0, r2, #0, 14
    1068:	00002507 	andeq	r2, r0, r7, lsl #10
    106c:	2e180000 	cdpcs	0, 1, cr0, cr8, cr0, {0}
    1070:	07000001 	streq	r0, [r0, -r1]
    1074:	b20b0267 	andlt	r0, fp, #1879048198	; 0x70000006
    1078:	04000006 	streq	r0, [r0], #-6
    107c:	0001f818 	andeq	pc, r1, r8, lsl r8	; <UNPREDICTABLE>
    1080:	02670700 	rsbeq	r0, r7, #0, 14
    1084:	0006b214 	andeq	fp, r6, r4, lsl r2
    1088:	a8180800 	ldmdage	r8, {fp}
    108c:	07000001 	streq	r0, [r0, -r1]
    1090:	b21e0267 	andslt	r0, lr, #1879048198	; 0x70000006
    1094:	0c000006 	stceq	0, cr0, [r0], {6}
    1098:	0003d318 	andeq	sp, r3, r8, lsl r3
    109c:	02690700 	rsbeq	r0, r9, #0, 14
    10a0:	00002508 	andeq	r2, r0, r8, lsl #10
    10a4:	29181000 	ldmdbcs	r8, {ip}
    10a8:	07000000 	streq	r0, [r0, -r0]
    10ac:	b208026a 	andlt	r0, r8, #-1610612730	; 0xa0000006
    10b0:	14000008 	strne	r0, [r0], #-8
    10b4:	0003e718 	andeq	lr, r3, r8, lsl r7
    10b8:	026d0700 	rsbeq	r0, sp, #0, 14
    10bc:	00002507 	andeq	r2, r0, r7, lsl #10
    10c0:	01183000 	tsteq	r8, r0
    10c4:	0700000a 	streq	r0, [r0, -sl]
    10c8:	c716026e 	ldrgt	r0, [r6, -lr, ror #4]
    10cc:	34000008 	strcc	r0, [r0], #-8
    10d0:	0002b218 	andeq	fp, r2, r8, lsl r2
    10d4:	02700700 	rsbseq	r0, r0, #0, 14
    10d8:	00002507 	andeq	r2, r0, r7, lsl #10
    10dc:	dd183800 	ldcle	8, cr3, [r8, #-0]
    10e0:	07000003 	streq	r0, [r0, -r3]
    10e4:	d80a0272 	stmdale	sl, {r1, r4, r5, r6, r9}
    10e8:	3c000008 	stccc	0, cr0, [r0], {8}
    10ec:	00025718 	andeq	r5, r2, r8, lsl r7
    10f0:	02750700 	rsbseq	r0, r5, #0, 14
    10f4:	0001a713 	andeq	sl, r1, r3, lsl r7
    10f8:	c7184000 	ldrgt	r4, [r8, -r0]
    10fc:	07000001 	streq	r0, [r0, -r1]
    1100:	25070276 	strcs	r0, [r7, #-630]	; 0xfffffd8a
    1104:	44000000 	strmi	r0, [r0], #-0
    1108:	00052a18 	andeq	r2, r5, r8, lsl sl
    110c:	02770700 	rsbseq	r0, r7, #0, 14
    1110:	0001a713 	andeq	sl, r1, r3, lsl r7
    1114:	c4184800 	ldrgt	r4, [r8], #-2048	; 0xfffff800
    1118:	07000002 	streq	r0, [r0, -r2]
    111c:	de140278 	mrcle	2, 0, r0, cr4, cr8, {3}
    1120:	4c000008 	stcmi	0, cr0, [r0], {8}
    1124:	00020018 	andeq	r0, r2, r8, lsl r0
    1128:	027b0700 	rsbseq	r0, fp, #0, 14
    112c:	00002507 	andeq	r2, r0, r7, lsl #10
    1130:	46185000 	ldrmi	r5, [r8], -r0
    1134:	07000001 	streq	r0, [r0, -r1]
    1138:	2f09027c 	svccs	0x0009027c
    113c:	54000001 	strpl	r0, [r0], #-1
    1140:	0002ea18 	andeq	lr, r2, r8, lsl sl
    1144:	029f0700 	addseq	r0, pc, #0, 14
    1148:	00088d07 	andeq	r8, r8, r7, lsl #26
    114c:	aa195800 	bge	657154 <__bss_end__+0x64d124>
    1150:	07000002 	streq	r0, [r0, -r2]
    1154:	d81302a3 	ldmdale	r3, {r0, r1, r5, r7, r9}
    1158:	48000002 	stmdami	r0, {r1}
    115c:	02351901 	eorseq	r1, r5, #16384	; 0x4000
    1160:	a4070000 	strge	r0, [r7], #-0
    1164:	02951202 	addseq	r1, r5, #536870912	; 0x20000000
    1168:	014c0000 	mrseq	r0, (UNDEF: 76)
    116c:	0004d619 	andeq	sp, r4, r9, lsl r6
    1170:	02a80700 	adceq	r0, r8, #0, 14
    1174:	0008ef0c 	andeq	lr, r8, ip, lsl #30
    1178:	1902dc00 	stmdbne	r2, {sl, fp, ip, lr, pc}
    117c:	00000117 	andeq	r0, r0, r7, lsl r1
    1180:	1002ad07 	andne	sl, r2, r7, lsl #26
    1184:	00000673 	andeq	r0, r0, r3, ror r6
    1188:	fc1902e0 	ldc2	2, cr0, [r9], {224}	; 0xe0
    118c:	07000000 	streq	r0, [r0, -r0]
    1190:	fb0a02af 	blx	281c56 <__bss_end__+0x277c26>
    1194:	ec000008 	stc	0, cr0, [r0], {8}
    1198:	04050002 	streq	r0, [r5], #-2
    119c:	00000466 	andeq	r0, r0, r6, ror #8
    11a0:	00002515 	andeq	r2, r0, r5, lsl r5
    11a4:	0005fc00 	andeq	pc, r5, r0, lsl #24
    11a8:	04841600 	streq	r1, [r4], #1536	; 0x600
    11ac:	2d160000 	ldccs	0, cr0, [r6, #-0]
    11b0:	16000001 	strne	r0, [r0], -r1
    11b4:	000005fc 	strdeq	r0, [r0], -ip
    11b8:	00002516 	andeq	r2, r0, r6, lsl r5
    11bc:	04050000 	streq	r0, [r5], #-0
    11c0:	0000013c 	andeq	r0, r0, ip, lsr r1
    11c4:	05de0405 	ldrbeq	r0, [lr, #1029]	; 0x405
    11c8:	a6150000 	ldrge	r0, [r5], -r0
    11cc:	26000000 	strcs	r0, [r0], -r0
    11d0:	16000006 	strne	r0, [r0], -r6
    11d4:	00000484 	andeq	r0, r0, r4, lsl #9
    11d8:	00012d16 	andeq	r2, r1, r6, lsl sp
    11dc:	00a61600 	adceq	r1, r6, r0, lsl #12
    11e0:	25160000 	ldrcs	r0, [r6, #-0]
    11e4:	00000000 	andeq	r0, r0, r0
    11e8:	06080405 	streq	r0, [r8], -r5, lsl #8
    11ec:	25150000 	ldrcs	r0, [r5, #-0]
    11f0:	40000000 	andmi	r0, r0, r0
    11f4:	16000006 	strne	r0, [r0], -r6
    11f8:	00000484 	andeq	r0, r0, r4, lsl #9
    11fc:	00012d16 	andeq	r2, r1, r6, lsl sp
    1200:	04050000 	streq	r0, [r5], #-0
    1204:	0000062c 	andeq	r0, r0, ip, lsr #12
    1208:	00005b0a 	andeq	r5, r0, sl, lsl #22
    120c:	00065600 	andeq	r5, r6, r0, lsl #12
    1210:	002c0b00 	eoreq	r0, ip, r0, lsl #22
    1214:	00020000 	andeq	r0, r2, r0
    1218:	00005b0a 	andeq	r5, r0, sl, lsl #22
    121c:	00066600 	andeq	r6, r6, r0, lsl #12
    1220:	002c0b00 	eoreq	r0, ip, r0, lsl #22
    1224:	00000000 	andeq	r0, r0, r0
    1228:	00039807 	andeq	r9, r3, r7, lsl #16
    122c:	011f0700 	tsteq	pc, r0, lsl #14
    1230:	0003231a 	andeq	r2, r3, sl, lsl r3
    1234:	04bd1a00 	ldrteq	r1, [sp], #2560	; 0xa00
    1238:	070c0000 	streq	r0, [ip, -r0]
    123c:	ac080123 	stfges	f0, [r8], {35}	; 0x23
    1240:	18000006 	stmdane	r0, {r1, r2}
    1244:	000003c0 	andeq	r0, r0, r0, asr #7
    1248:	11012507 	tstne	r1, r7, lsl #10
    124c:	000006ac 	andeq	r0, r0, ip, lsr #13
    1250:	021b1800 	andseq	r1, fp, #0, 16
    1254:	26070000 	strcs	r0, [r7], -r0
    1258:	00250701 	eoreq	r0, r5, r1, lsl #14
    125c:	18040000 	stmdane	r4, {}	; <UNPREDICTABLE>
    1260:	00000392 	muleq	r0, r2, r3
    1264:	0b012707 	bleq	4ae88 <__bss_end__+0x40e58>
    1268:	000006b2 			; <UNDEFINED> instruction: 0x000006b2
    126c:	04050008 	streq	r0, [r5], #-8
    1270:	00000673 	andeq	r0, r0, r3, ror r6
    1274:	06660405 	strbteq	r0, [r6], -r5, lsl #8
    1278:	211a0000 	tstcs	sl, r0
    127c:	0e000000 	cdpeq	0, 0, cr0, cr0, cr0, {0}
    1280:	08013f07 	stmdaeq	r1, {r0, r1, r2, r8, r9, sl, fp, ip, sp}
    1284:	000006f1 	strdeq	r0, [r0], -r1
    1288:	00040f18 	andeq	r0, r4, r8, lsl pc
    128c:	01400700 	cmpeq	r0, r0, lsl #14
    1290:	0006f112 	andeq	pc, r6, r2, lsl r1	; <UNPREDICTABLE>
    1294:	43180000 	tstmi	r8, #0
    1298:	07000004 	streq	r0, [r0, -r4]
    129c:	f1120141 			; <UNDEFINED> instruction: 0xf1120141
    12a0:	06000006 	streq	r0, [r0], -r6
    12a4:	00045f18 	andeq	r5, r4, r8, lsl pc
    12a8:	01420700 	cmpeq	r2, r0, lsl #14
    12ac:	00006212 	andeq	r6, r0, r2, lsl r2
    12b0:	0a000c00 	beq	42b8 <_start-0x3d48>
    12b4:	00000062 	andeq	r0, r0, r2, rrx
    12b8:	00000701 	andeq	r0, r0, r1, lsl #14
    12bc:	00002c0b 	andeq	r2, r0, fp, lsl #24
    12c0:	1b000200 	blne	1ac8 <_start-0x6538>
    12c4:	028007d0 	addeq	r0, r0, #208, 14	; 0x3400000
    12c8:	00081607 	andeq	r1, r8, r7, lsl #12
    12cc:	04a11800 	strteq	r1, [r1], #2048	; 0x800
    12d0:	82070000 	andhi	r0, r7, #0
    12d4:	002c1802 	eoreq	r1, ip, r2, lsl #16
    12d8:	18000000 	stmdane	r0, {}	; <UNPREDICTABLE>
    12dc:	00000449 	andeq	r0, r0, r9, asr #8
    12e0:	12028307 	andne	r8, r2, #469762048	; 0x1c000000
    12e4:	0000012f 	andeq	r0, r0, pc, lsr #2
    12e8:	024a1804 	subeq	r1, sl, #4, 16	; 0x40000
    12ec:	84070000 	strhi	r0, [r7], #-0
    12f0:	08161002 	ldmdaeq	r6, {r1, ip}
    12f4:	18080000 	stmdane	r8, {}	; <UNPREDICTABLE>
    12f8:	00000501 	andeq	r0, r0, r1, lsl #10
    12fc:	17028507 	strne	r8, [r2, -r7, lsl #10]
    1300:	000001bd 			; <UNDEFINED> instruction: 0x000001bd
    1304:	01b81824 			; <UNDEFINED> instruction: 0x01b81824
    1308:	86070000 	strhi	r0, [r7], -r0
    130c:	00250f02 	eoreq	r0, r5, r2, lsl #30
    1310:	18480000 	stmdane	r8, {}^	; <UNPREDICTABLE>
    1314:	000003bb 			; <UNDEFINED> instruction: 0x000003bb
    1318:	2c028707 	stccs	7, cr8, [r2], {7}
    131c:	0000007c 	andeq	r0, r0, ip, ror r0
    1320:	05171850 	ldreq	r1, [r7, #-2128]	; 0xfffff7b0
    1324:	88070000 	stmdahi	r7, {}	; <UNPREDICTABLE>
    1328:	06b81a02 	ldrteq	r1, [r8], r2, lsl #20
    132c:	18580000 	ldmdane	r8, {}^	; <UNPREDICTABLE>
    1330:	000003c6 	andeq	r0, r0, r6, asr #7
    1334:	16028907 	strne	r8, [r2], -r7, lsl #18
    1338:	00000115 	andeq	r0, r0, r5, lsl r1
    133c:	051c1868 	ldreq	r1, [ip, #-2152]	; 0xfffff798
    1340:	8a070000 	bhi	1c1348 <__bss_end__+0x1b7318>
    1344:	01151602 	tsteq	r5, r2, lsl #12
    1348:	18700000 	ldmdane	r0!, {}^	; <UNPREDICTABLE>
    134c:	000002ce 	andeq	r0, r0, lr, asr #5
    1350:	16028b07 	strne	r8, [r2], -r7, lsl #22
    1354:	00000115 	andeq	r0, r0, r5, lsl r1
    1358:	04cc1878 	strbeq	r1, [ip], #2168	; 0x878
    135c:	8c070000 	stchi	0, cr0, [r7], {-0}
    1360:	08261002 	stmdaeq	r6!, {r1, ip}
    1364:	18800000 	stmne	r0, {}	; <UNPREDICTABLE>
    1368:	0000023e 	andeq	r0, r0, lr, lsr r2
    136c:	10028d07 	andne	r8, r2, r7, lsl #26
    1370:	00000836 	andeq	r0, r0, r6, lsr r8
    1374:	046c1888 	strbteq	r1, [ip], #-2184	; 0xfffff778
    1378:	8e070000 	cdphi	0, 0, cr0, cr7, cr0, {0}
    137c:	00250f02 	eoreq	r0, r5, r2, lsl #30
    1380:	18a00000 	stmiane	r0!, {}	; <UNPREDICTABLE>
    1384:	0000017e 	andeq	r0, r0, lr, ror r1
    1388:	16028f07 	strne	r8, [r2], -r7, lsl #30
    138c:	00000115 	andeq	r0, r0, r5, lsl r1
    1390:	008f18a4 	addeq	r1, pc, r4, lsr #17
    1394:	90070000 	andls	r0, r7, r0
    1398:	01151602 	tsteq	r5, r2, lsl #12
    139c:	18ac0000 	stmiane	ip!, {}	; <UNPREDICTABLE>
    13a0:	0000016d 	andeq	r0, r0, sp, ror #2
    13a4:	16029107 	strne	r9, [r2], -r7, lsl #2
    13a8:	00000115 	andeq	r0, r0, r5, lsl r1
    13ac:	003c18b4 	ldrhteq	r1, [ip], -r4
    13b0:	92070000 	andls	r0, r7, #0
    13b4:	01151602 	tsteq	r5, r2, lsl #12
    13b8:	18bc0000 	ldmne	ip!, {}	; <UNPREDICTABLE>
    13bc:	0000004b 	andeq	r0, r0, fp, asr #32
    13c0:	16029307 	strne	r9, [r2], -r7, lsl #6
    13c4:	00000115 	andeq	r0, r0, r5, lsl r1
    13c8:	036e18c4 	cmneq	lr, #196, 16	; 0xc40000
    13cc:	94070000 	strls	r0, [r7], #-0
    13d0:	00250802 	eoreq	r0, r5, r2, lsl #16
    13d4:	00cc0000 	sbceq	r0, ip, r0
    13d8:	0001350a 	andeq	r3, r1, sl, lsl #10
    13dc:	00082600 	andeq	r2, r8, r0, lsl #12
    13e0:	002c0b00 	eoreq	r0, ip, r0, lsl #22
    13e4:	00190000 	andseq	r0, r9, r0
    13e8:	0001350a 	andeq	r3, r1, sl, lsl #10
    13ec:	00083600 	andeq	r3, r8, r0, lsl #12
    13f0:	002c0b00 	eoreq	r0, ip, r0, lsl #22
    13f4:	00070000 	andeq	r0, r7, r0
    13f8:	0001350a 	andeq	r3, r1, sl, lsl #10
    13fc:	00084600 	andeq	r4, r8, r0, lsl #12
    1400:	002c0b00 	eoreq	r0, ip, r0, lsl #22
    1404:	00170000 	andseq	r0, r7, r0
    1408:	9907f01b 	stmdbls	r7, {r0, r1, r3, r4, ip, sp, lr, pc}
    140c:	086d0702 	stmdaeq	sp!, {r1, r8, r9, sl}^
    1410:	9a180000 	bls	601418 <__bss_end__+0x5f73e8>
    1414:	07000002 	streq	r0, [r0, -r2]
    1418:	6d1b029c 	lfmvs	f0, 4, [fp, #-624]	; 0xfffffd90
    141c:	00000008 	andeq	r0, r0, r8
    1420:	0004c318 	andeq	ip, r4, r8, lsl r3
    1424:	029d0700 	addseq	r0, sp, #0, 14
    1428:	00087d18 	andeq	r7, r8, r8, lsl sp
    142c:	0a007800 	beq	1f434 <__bss_end__+0x15404>
    1430:	0000031d 	andeq	r0, r0, sp, lsl r3
    1434:	0000087d 	andeq	r0, r0, sp, ror r8
    1438:	00002c0b 	andeq	r2, r0, fp, lsl #24
    143c:	0a001d00 	beq	8844 <ck_heap_errors+0x20>
    1440:	0000002c 	andeq	r0, r0, ip, lsr #32
    1444:	0000088d 	andeq	r0, r0, sp, lsl #17
    1448:	00002c0b 	andeq	r2, r0, fp, lsl #24
    144c:	1c001d00 	stcne	13, cr1, [r0], {-0}
    1450:	027e07f0 	rsbseq	r0, lr, #240, 14	; 0x3c00000
    1454:	0008b203 	andeq	fp, r8, r3, lsl #4
    1458:	04081d00 	streq	r1, [r8], #-3328	; 0xfffff300
    145c:	95070000 	strls	r0, [r7, #-0]
    1460:	07010b02 	streq	r0, [r1, -r2, lsl #22]
    1464:	ee1d0000 	cdp	0, 1, cr0, cr13, cr0, {0}
    1468:	07000004 	streq	r0, [r0, -r4]
    146c:	460b029e 			; <UNDEFINED> instruction: 0x460b029e
    1470:	00000008 	andeq	r0, r0, r8
    1474:	0001350a 	andeq	r3, r1, sl, lsl #10
    1478:	0008c200 	andeq	ip, r8, r0, lsl #4
    147c:	002c0b00 	eoreq	r0, ip, r0, lsl #22
    1480:	00180000 	andseq	r0, r8, r0
    1484:	00008406 	andeq	r8, r0, r6, lsl #8
    1488:	c2040500 	andgt	r0, r4, #0, 10
    148c:	1e000008 	cdpne	0, 0, cr0, cr0, cr8, {0}
    1490:	000008d8 	ldrdeq	r0, [r0], -r8
    1494:	00048416 	andeq	r8, r4, r6, lsl r4
    1498:	04050000 	streq	r0, [r5], #-0
    149c:	000008cd 	andeq	r0, r0, sp, asr #17
    14a0:	01a70405 			; <UNDEFINED> instruction: 0x01a70405
    14a4:	ef1e0000 	svc	0x001e0000
    14a8:	16000008 	strne	r0, [r0], -r8
    14ac:	00000025 	andeq	r0, r0, r5, lsr #32
    14b0:	f5040500 			; <UNDEFINED> instruction: 0xf5040500
    14b4:	05000008 	streq	r0, [r0, #-8]
    14b8:	0008e404 	andeq	lr, r8, r4, lsl #8
    14bc:	06660a00 	strbteq	r0, [r6], -r0, lsl #20
    14c0:	090b0000 	stmdbeq	fp, {}	; <UNPREDICTABLE>
    14c4:	2c0b0000 	stccs	0, cr0, [fp], {-0}
    14c8:	02000000 	andeq	r0, r0, #0
    14cc:	048e1f00 	streq	r1, [lr], #3840	; 0xf00
    14d0:	2e070000 	cdpcs	0, 0, cr0, cr7, cr0, {0}
    14d4:	04841703 	streq	r1, [r4], #1795	; 0x703
    14d8:	871f0000 	ldrhi	r0, [pc, -r0]
    14dc:	07000004 	streq	r0, [r0, -r4]
    14e0:	8a1d032f 	bhi	7421a4 <__bss_end__+0x738174>
    14e4:	15000004 	strne	r0, [r0, #-4]
    14e8:	00000025 	andeq	r0, r0, r5, lsr #32
    14ec:	00000934 	andeq	r0, r0, r4, lsr r9
    14f0:	00002516 	andeq	r2, r0, r6, lsl r5
    14f4:	d1200000 			; <UNDEFINED> instruction: 0xd1200000
    14f8:	08000001 	stmdaeq	r0, {r0}
    14fc:	09400e1d 	stmdbeq	r0, {r0, r2, r3, r4, r9, sl, fp}^
    1500:	04050000 	streq	r0, [r5], #-0
    1504:	00000925 	andeq	r0, r0, r5, lsr #18
    1508:	00002515 	andeq	r2, r0, r5, lsl r5
    150c:	00095500 	andeq	r5, r9, r0, lsl #10
    1510:	05fc1600 	ldrbeq	r1, [ip, #1536]!	; 0x600
    1514:	20000000 	andcs	r0, r0, r0
    1518:	00000768 	andeq	r0, r0, r8, ror #14
    151c:	610e2208 	tstvs	lr, r8, lsl #4
    1520:	05000009 	streq	r0, [r0, #-9]
    1524:	00094604 	andeq	r4, r9, r4, lsl #12
    1528:	01072100 	mrseq	r2, (UNDEF: 23)
    152c:	0000005b 	andeq	r0, r0, fp, asr r0
    1530:	820e2402 	andhi	r2, lr, #33554432	; 0x2000000
    1534:	22000009 	andcs	r0, r0, #9
    1538:	00000570 	andeq	r0, r0, r0, ror r5
    153c:	056a220b 	strbeq	r2, [sl, #-523]!	; 0xfffffdf5
    1540:	000c0000 	andeq	r0, ip, r0
    1544:	26020c0c 	strcs	r0, [r2], -ip, lsl #24
    1548:	0009b309 	andeq	fp, r9, r9, lsl #6
    154c:	02090d00 	andeq	r0, r9, #0, 26
    1550:	27020000 	strcs	r0, [r2, -r0]
    1554:	0005fc11 	andeq	pc, r5, r1, lsl ip	; <UNPREDICTABLE>
    1558:	db0d0000 	blle	341560 <__bss_end__+0x337530>
    155c:	02000004 	andeq	r0, r0, #4
    1560:	05fc1128 	ldrbeq	r1, [ip, #296]!	; 0x128
    1564:	0d040000 	stceq	0, cr0, [r4, #-0]
    1568:	00000541 	andeq	r0, r0, r1, asr #10
    156c:	2c0e2902 			; <UNDEFINED> instruction: 0x2c0e2902
    1570:	08000000 	stmdaeq	r0, {}	; <UNPREDICTABLE>
    1574:	063a0400 	ldrteq	r0, [sl], -r0, lsl #8
    1578:	2a020000 	bcs	81580 <__bss_end__+0x77550>
    157c:	00098203 	andeq	r8, r9, r3, lsl #4
    1580:	06ae1000 	strteq	r1, [lr], r0
    1584:	02380000 	eorseq	r0, r8, #0
    1588:	0a4f102d 	beq	13c5644 <__bss_end__+0x13bb614>
    158c:	f60d0000 			; <UNDEFINED> instruction: 0xf60d0000
    1590:	02000005 	andeq	r0, r0, #5
    1594:	00690e2e 	rsbeq	r0, r9, lr, lsr #28
    1598:	0d000000 	stceq	0, cr0, [r0, #-0]
    159c:	00000694 	muleq	r0, r4, r6
    15a0:	690e2f02 	stmdbvs	lr, {r1, r8, r9, sl, fp, sp}
    15a4:	04000000 	streq	r0, [r0], #-0
    15a8:	0002d60d 	andeq	sp, r2, sp, lsl #12
    15ac:	0e300200 	cdpeq	2, 3, cr0, cr0, cr0, {0}
    15b0:	00000069 	andeq	r0, r0, r9, rrx
    15b4:	05f00d08 	ldrbeq	r0, [r0, #3336]!	; 0xd08
    15b8:	34020000 	strcc	r0, [r2], #-0
    15bc:	0000690e 	andeq	r6, r0, lr, lsl #18
    15c0:	e20d0c00 	and	r0, sp, #0, 24
    15c4:	02000005 	andeq	r0, r0, #5
    15c8:	09b30f36 	ldmibeq	r3!, {r1, r2, r4, r5, r8, r9, sl, fp}
    15cc:	0d100000 	ldceq	0, cr0, [r0, #-0]
    15d0:	00000557 	andeq	r0, r0, r7, asr r5
    15d4:	b30f3702 	movwlt	r3, #63234	; 0xf702
    15d8:	1c000009 	stcne	0, cr0, [r0], {9}
    15dc:	0005840d 	andeq	r8, r5, sp, lsl #8
    15e0:	0e3b0200 	cdpeq	2, 3, cr0, cr11, cr0, {0}
    15e4:	00000069 	andeq	r0, r0, r9, rrx
    15e8:	05780d28 	ldrbeq	r0, [r8, #-3368]!	; 0xfffff2d8
    15ec:	3c020000 	stccc	0, cr0, [r2], {-0}
    15f0:	0000690e 	andeq	r6, r0, lr, lsl #18
    15f4:	480d2c00 	stmdami	sp, {sl, fp, sp}
    15f8:	02000005 	andeq	r0, r0, #5
    15fc:	0a4f153f 	beq	13c6b00 <__bss_end__+0x13bcad0>
    1600:	0d300000 	ldceq	0, cr0, [r0, #-0]
    1604:	00000539 	andeq	r0, r0, r9, lsr r5
    1608:	690e4102 	stmdbvs	lr, {r1, r8, lr}
    160c:	34000000 	strcc	r0, [r0], #-0
    1610:	bf040500 	svclt	0x00040500
    1614:	04000009 	streq	r0, [r0], #-9
    1618:	0000068e 	andeq	r0, r0, lr, lsl #13
    161c:	bf034202 	svclt	0x00034202
    1620:	21000009 	tstcs	r0, r9
    1624:	00620207 	rsbeq	r0, r2, r7, lsl #4
    1628:	62020000 	andvs	r0, r2, #0
    162c:	000a8906 	andeq	r8, sl, r6, lsl #18
    1630:	06642200 	strbteq	r2, [r4], -r0, lsl #4
    1634:	22fe0000 	rscscs	r0, lr, #0
    1638:	000005a7 	andeq	r0, r0, r7, lsr #11
    163c:	05af2280 	streq	r2, [pc, #640]!	; 18c4 <_start-0x673c>
    1640:	23b80000 			; <UNDEFINED> instruction: 0x23b80000
    1644:	00000597 	muleq	r0, r7, r5
    1648:	24000138 	strcs	r0, [r0], #-312	; 0xfffffec8
    164c:	0000065f 	andeq	r0, r0, pc, asr r6
    1650:	9b110701 	blls	44325c <__bss_end__+0x43922c>
    1654:	0500000a 	streq	r0, [r0, #-10]
    1658:	009c2803 	addseq	r2, ip, r3, lsl #16
    165c:	4f040500 	svcmi	0x00040500
    1660:	24000000 	strcs	r0, [r0], #-0
    1664:	00000c19 	andeq	r0, r0, r9, lsl ip
    1668:	9b1c0701 	blls	703274 <__bss_end__+0x6f9244>
    166c:	0500000a 	streq	r0, [r0, #-10]
    1670:	009c2c03 	addseq	r2, ip, r3, lsl #24
    1674:	0c002400 	cfstrseq	mvf2, [r0], {-0}
    1678:	07010000 	streq	r0, [r1, -r0]
    167c:	000a9b27 	andeq	r9, sl, r7, lsr #22
    1680:	24030500 	strcs	r0, [r3], #-1280	; 0xfffffb00
    1684:	2500009c 	strcs	r0, [r0, #-156]	; 0xffffff64
    1688:	0000000c 	andeq	r0, r0, ip
    168c:	2505aa01 	strcs	sl, [r5, #-2561]	; 0xfffff5ff
    1690:	24000000 	strcs	r0, [r0], #-0
    1694:	50000088 	andpl	r0, r0, r8, lsl #1
    1698:	01000001 	tsteq	r0, r1
    169c:	000c9a9c 	muleq	ip, ip, sl
    16a0:	058f2600 	streq	r2, [pc, #1536]	; 1ca8 <_start-0x6358>
    16a4:	ab010000 	blge	416ac <__bss_end__+0x3767c>
    16a8:	00002c0e 	andeq	r2, r0, lr, lsl #24
    16ac:	00002400 	andeq	r2, r0, r0, lsl #8
    16b0:	00002200 	andeq	r2, r0, r0, lsl #4
    16b4:	069f2600 	ldreq	r2, [pc], r0, lsl #12
    16b8:	ac010000 	stcge	0, cr0, [r1], {-0}
    16bc:	00002c0e 	andeq	r2, r0, lr, lsl #24
    16c0:	00003900 	andeq	r3, r0, r0, lsl #18
    16c4:	00003700 	andeq	r3, r0, r0, lsl #14
    16c8:	064d2600 	strbeq	r2, [sp], -r0, lsl #12
    16cc:	b0010000 	andlt	r0, r1, r0
    16d0:	00002c0e 	andeq	r2, r0, lr, lsl #24
    16d4:	00005000 	andeq	r5, r0, r0
    16d8:	00004c00 	andeq	r4, r0, r0, lsl #24
    16dc:	06342600 	ldrteq	r2, [r4], -r0, lsl #12
    16e0:	b1010000 	mrslt	r0, (UNDEF: 1)
    16e4:	00002c0e 	andeq	r2, r0, lr, lsl #24
    16e8:	00007300 	andeq	r7, r0, r0, lsl #6
    16ec:	00006f00 	andeq	r6, r0, r0, lsl #30
    16f0:	00482700 	subeq	r2, r8, r0, lsl #14
    16f4:	0bf50000 	bleq	ffd416fc <__bss_end__+0xffd376cc>
    16f8:	73260000 			; <UNDEFINED> instruction: 0x73260000
    16fc:	01000006 	tsteq	r0, r6
    1700:	0c9a11b4 	ldfeqs	f1, [sl], {180}	; 0xb4
    1704:	00940000 	addseq	r0, r4, r0
    1708:	00920000 	addseq	r0, r2, r0
    170c:	cc280000 	stcgt	0, cr0, [r8], #-0
    1710:	c9000088 	stmdbgt	r0, {r3, r7}
    1714:	60000015 	andvs	r0, r0, r5, lsl r0
    1718:	2900000b 	stmdbcs	r0, {r0, r1, r3}
    171c:	74025001 	strvc	r5, [r2], #-1
    1720:	dc280000 	stcle	0, cr0, [r8], #-0
    1724:	48000088 	stmdami	r0, {r3, r7}
    1728:	74000018 	strvc	r0, [r0], #-24	; 0xffffffe8
    172c:	2900000b 	stmdbcs	r0, {r0, r1, r3}
    1730:	74025001 	strvc	r5, [r2], #-1
    1734:	e8280000 	stmda	r8!, {}	; <UNPREDICTABLE>
    1738:	3b000088 	blcc	1960 <_start-0x66a0>
    173c:	8e000014 	mcrhi	0, 0, r0, cr0, cr4, {0}
    1740:	2900000b 	stmdbcs	r0, {r0, r1, r3}
    1744:	08025101 	stmdaeq	r2, {r0, r8, ip, lr}
    1748:	52012980 	andpl	r2, r1, #128, 18	; 0x200000
    174c:	00007402 	andeq	r7, r0, r2, lsl #8
    1750:	0088f828 	addeq	pc, r8, r8, lsr #16
    1754:	0017cd00 	andseq	ip, r7, r0, lsl #26
    1758:	000ba200 	andeq	sl, fp, r0, lsl #4
    175c:	50012900 	andpl	r2, r1, r0, lsl #18
    1760:	00007402 	andeq	r7, r0, r2, lsl #8
    1764:	00890428 	addeq	r0, r9, r8, lsr #8
    1768:	0017a000 	andseq	sl, r7, r0
    176c:	000bb600 	andeq	fp, fp, r0, lsl #12
    1770:	50012900 	andpl	r2, r1, r0, lsl #18
    1774:	00007402 	andeq	r7, r0, r2, lsl #8
    1778:	00891428 	addeq	r1, r9, r8, lsr #8
    177c:	00143b00 	andseq	r3, r4, r0, lsl #22
    1780:	000bd000 	andeq	sp, fp, r0
    1784:	50012900 	andpl	r2, r1, r0, lsl #18
    1788:	29007702 	stmdbcs	r0, {r1, r8, r9, sl, ip, sp, lr}
    178c:	74025201 	strvc	r5, [r2], #-513	; 0xfffffdff
    1790:	30280000 	eorcc	r0, r8, r0
    1794:	0a000089 	beq	19c0 <_start-0x6640>
    1798:	e4000018 	str	r0, [r0], #-24	; 0xffffffe8
    179c:	2900000b 	stmdbcs	r0, {r0, r1, r3}
    17a0:	74025001 	strvc	r5, [r2], #-1
    17a4:	3c2a0000 	stccc	0, cr0, [sl], #-0
    17a8:	7c000089 	stcvc	0, cr0, [r0], {137}	; 0x89
    17ac:	29000012 	stmdbcs	r0, {r1, r4}
    17b0:	74025201 	strvc	r5, [r2], #-513	; 0xfffffdff
    17b4:	28000000 	stmdacs	r0, {}	; <UNPREDICTABLE>
    17b8:	00008848 	andeq	r8, r0, r8, asr #16
    17bc:	0000194c 	andeq	r1, r0, ip, asr #18
    17c0:	00000c0c 	andeq	r0, r0, ip, lsl #24
    17c4:	05500129 	ldrbeq	r0, [r0, #-297]	; 0xfffffed7
    17c8:	0096a403 	addseq	sl, r6, r3, lsl #8
    17cc:	58280000 	stmdapl	r8!, {}	; <UNPREDICTABLE>
    17d0:	4c000088 	stcmi	0, cr0, [r0], {136}	; 0x88
    17d4:	2f000019 	svccs	0x00000019
    17d8:	2900000c 	stmdbcs	r0, {r2, r3}
    17dc:	03055001 	movweq	r5, #20481	; 0x5001
    17e0:	0000994c 	andeq	r9, r0, ip, asr #18
    17e4:	02510129 	subseq	r0, r1, #1073741834	; 0x4000000a
    17e8:	01290075 			; <UNDEFINED> instruction: 0x01290075
    17ec:	00760252 	rsbseq	r0, r6, r2, asr r2
    17f0:	88802800 	stmhi	r0, {fp, sp}
    17f4:	194c0000 	stmdbne	ip, {}^	; <UNPREDICTABLE>
    17f8:	0c460000 	mareq	acc0, r0, r6
    17fc:	01290000 			; <UNDEFINED> instruction: 0x01290000
    1800:	a4030550 	strge	r0, [r3], #-1360	; 0xfffffab0
    1804:	00000096 	muleq	r0, r6, r0
    1808:	00889028 	addeq	r9, r8, r8, lsr #32
    180c:	00194c00 	andseq	r4, r9, r0, lsl #24
    1810:	000c6900 	andeq	r6, ip, r0, lsl #18
    1814:	50012900 	andpl	r2, r1, r0, lsl #18
    1818:	99840305 	stmibls	r4, {r0, r2, r8, r9}
    181c:	01290000 			; <UNDEFINED> instruction: 0x01290000
    1820:	00750251 	rsbseq	r0, r5, r1, asr r2
    1824:	02520129 	subseq	r0, r2, #1073741834	; 0x4000000a
    1828:	28000076 	stmdacs	r0, {r1, r2, r4, r5, r6}
    182c:	00008950 	andeq	r8, r0, r0, asr r9
    1830:	0000194c 	andeq	r1, r0, ip, asr #18
    1834:	00000c80 	andeq	r0, r0, r0, lsl #25
    1838:	05500129 	ldrbeq	r0, [r0, #-297]	; 0xfffffed7
    183c:	0096a403 	addseq	sl, r6, r3, lsl #8
    1840:	5c2a0000 	stcpl	0, cr0, [sl], #-0
    1844:	4c000089 	stcmi	0, cr0, [r0], {137}	; 0x89
    1848:	29000019 	stmdbcs	r0, {r0, r3, r4}
    184c:	03055001 	movweq	r5, #20481	; 0x5001
    1850:	000099ac 	andeq	r9, r0, ip, lsr #19
    1854:	02510129 	subseq	r0, r1, #1073741834	; 0x4000000a
    1858:	00000075 	andeq	r0, r0, r5, ror r0
    185c:	0a550405 	beq	1542878 <__bss_end__+0x1538848>
    1860:	73250000 			; <UNDEFINED> instruction: 0x73250000
    1864:	01000000 	mrseq	r0, (UNDEF: 0)
    1868:	012d0883 	smlawbeq	sp, r3, r8, r0
    186c:	86080000 	strhi	r0, [r8], -r0
    1870:	021c0000 	andseq	r0, ip, #0
    1874:	9c010000 	stcls	0, cr0, [r1], {-0}
    1878:	00000ff4 	strdeq	r0, [r0], -r4
    187c:	00067f2b 	andeq	r7, r6, fp, lsr #30
    1880:	1a830100 	bne	fe0c1c88 <__bss_end__+0xfe0b7c58>
    1884:	00000069 	andeq	r0, r0, r9, rrx
    1888:	000000b1 	strheq	r0, [r0], -r1
    188c:	000000a7 	andeq	r0, r0, r7, lsr #1
    1890:	0002092b 	andeq	r0, r2, fp, lsr #18
    1894:	2e830100 	rmfcss	f0, f3, f0
    1898:	000005fc 	strdeq	r0, [r0], -ip
    189c:	000000fd 	strdeq	r0, [r0], -sp
    18a0:	000000f3 	strdeq	r0, [r0], -r3
    18a4:	0004db2b 	andeq	sp, r4, fp, lsr #22
    18a8:	40830100 	addmi	r0, r3, r0, lsl #2
    18ac:	000005fc 	strdeq	r0, [r0], -ip
    18b0:	00000149 	andeq	r0, r0, r9, asr #2
    18b4:	0000013f 	andeq	r0, r0, pc, lsr r1
    18b8:	0005412b 	andeq	r4, r5, fp, lsr #2
    18bc:	4f830100 	svcmi	0x00830100
    18c0:	0000002c 	andeq	r0, r0, ip, lsr #32
    18c4:	00000195 	muleq	r0, r5, r1
    18c8:	0000018b 	andeq	r0, r0, fp, lsl #3
    18cc:	0100682c 	tsteq	r0, ip, lsr #16
    18d0:	0c9a0c84 	ldceq	12, cr0, [sl], {132}	; 0x84
    18d4:	01e20000 	mvneq	r0, r0
    18d8:	01da0000 	bicseq	r0, sl, r0
    18dc:	702c0000 	eorvc	r0, ip, r0
    18e0:	01007274 	tsteq	r0, r4, ror r2
    18e4:	012d0b85 	smlawbeq	sp, r5, fp, r0
    18e8:	02200000 	eoreq	r0, r0, #0
    18ec:	02180000 	andseq	r0, r8, #0
    18f0:	0e2d0000 	cdpeq	0, 2, cr0, cr13, cr0, {0}
    18f4:	04000002 	streq	r0, [r0], #-2
    18f8:	05000010 	streq	r0, [r0, #-16]
    18fc:	0099ec03 	addseq	lr, r9, r3, lsl #24
    1900:	6f742c00 	svcvs	0x00742c00
    1904:	8a010074 	bhi	41adc <__bss_end__+0x37aac>
    1908:	00002c0e 	andeq	r2, r0, lr, lsl #24
    190c:	00026200 	andeq	r6, r2, r0, lsl #4
    1910:	00025600 	andeq	r5, r2, r0, lsl #12
    1914:	006e2c00 	rsbeq	r2, lr, r0, lsl #24
    1918:	2c0e8b01 			; <UNDEFINED> instruction: 0x2c0e8b01
    191c:	b9000000 	stmdblt	r0, {}	; <UNPREDICTABLE>
    1920:	b5000002 	strlt	r0, [r0, #-2]
    1924:	28000002 	stmdacs	r0, {r1}
    1928:	00008638 	andeq	r8, r0, r8, lsr r6
    192c:	0000194c 	andeq	r1, r0, ip, asr #18
    1930:	00000d7c 	andeq	r0, r0, ip, ror sp
    1934:	05500129 	ldrbeq	r0, [r0, #-297]	; 0xfffffed7
    1938:	0096a403 	addseq	sl, r6, r3, lsl #8
    193c:	44280000 	strtmi	r0, [r8], #-0
    1940:	4c000086 	stcmi	0, cr0, [r0], {134}	; 0x86
    1944:	99000019 	stmdbls	r0, {r0, r3, r4}
    1948:	2900000d 	stmdbcs	r0, {r0, r2, r3}
    194c:	03055001 	movweq	r5, #20481	; 0x5001
    1950:	00009810 	andeq	r9, r0, r0, lsl r8
    1954:	02510129 	subseq	r0, r1, #1073741834	; 0x4000000a
    1958:	28000075 	stmdacs	r0, {r0, r2, r4, r5, r6}
    195c:	000086a8 	andeq	r8, r0, r8, lsr #13
    1960:	00001848 	andeq	r1, r0, r8, asr #16
    1964:	00000dad 	andeq	r0, r0, sp, lsr #27
    1968:	02500129 	subseq	r0, r0, #1073741834	; 0x4000000a
    196c:	28000074 	stmdacs	r0, {r2, r4, r5, r6}
    1970:	000086b0 			; <UNDEFINED> instruction: 0x000086b0
    1974:	00001221 	andeq	r1, r0, r1, lsr #4
    1978:	00000dc1 	andeq	r0, r0, r1, asr #27
    197c:	02510129 	subseq	r0, r1, #1073741834	; 0x4000000a
    1980:	28008008 	stmdacs	r0, {r3, pc}
    1984:	000086b8 			; <UNDEFINED> instruction: 0x000086b8
    1988:	000017cd 	andeq	r1, r0, sp, asr #15
    198c:	00000dd5 	ldrdeq	r0, [r0], -r5
    1990:	02500129 	subseq	r0, r0, #1073741834	; 0x4000000a
    1994:	28000074 	stmdacs	r0, {r2, r4, r5, r6}
    1998:	000086c4 	andeq	r8, r0, r4, asr #13
    199c:	000017a0 	andeq	r1, r0, r0, lsr #15
    19a0:	00000de9 	andeq	r0, r0, r9, ror #27
    19a4:	02500129 	subseq	r0, r0, #1073741834	; 0x4000000a
    19a8:	28000074 	stmdacs	r0, {r2, r4, r5, r6}
    19ac:	000086d0 	ldrdeq	r8, [r0], -r0
    19b0:	00001221 	andeq	r1, r0, r1, lsr #4
    19b4:	00000dfd 	strdeq	r0, [r0], -sp
    19b8:	02500129 	subseq	r0, r0, #1073741834	; 0x4000000a
    19bc:	28000076 	stmdacs	r0, {r1, r2, r4, r5, r6}
    19c0:	000086d8 	ldrdeq	r8, [r0], -r8	; <UNPREDICTABLE>
    19c4:	00001706 	andeq	r1, r0, r6, lsl #14
    19c8:	00000e11 	andeq	r0, r0, r1, lsl lr
    19cc:	02500129 	subseq	r0, r0, #1073741834	; 0x4000000a
    19d0:	28000074 	stmdacs	r0, {r2, r4, r5, r6}
    19d4:	000086f4 	strdeq	r8, [r0], -r4
    19d8:	00001174 	andeq	r1, r0, r4, ror r1
    19dc:	00000e25 	andeq	r0, r0, r5, lsr #28
    19e0:	02500129 	subseq	r0, r0, #1073741834	; 0x4000000a
    19e4:	28000074 	stmdacs	r0, {r2, r4, r5, r6}
    19e8:	00008704 	andeq	r8, r0, r4, lsl #14
    19ec:	0000180a 	andeq	r1, r0, sl, lsl #16
    19f0:	00000e39 	andeq	r0, r0, r9, lsr lr
    19f4:	02500129 	subseq	r0, r0, #1073741834	; 0x4000000a
    19f8:	28000074 	stmdacs	r0, {r2, r4, r5, r6}
    19fc:	00008710 	andeq	r8, r0, r0, lsl r7
    1a00:	0000194c 	andeq	r1, r0, ip, asr #18
    1a04:	00000e50 	andeq	r0, r0, r0, asr lr
    1a08:	05500129 	ldrbeq	r0, [r0, #-297]	; 0xfffffed7
    1a0c:	0096a403 	addseq	sl, r6, r3, lsl #8
    1a10:	24280000 	strtcs	r0, [r8], #-0
    1a14:	4c000087 	stcmi	0, cr0, [r0], {135}	; 0x87
    1a18:	79000019 	stmdbvc	r0, {r0, r3, r4}
    1a1c:	2900000e 	stmdbcs	r0, {r1, r2, r3}
    1a20:	03055001 	movweq	r5, #20481	; 0x5001
    1a24:	0000991c 	andeq	r9, r0, ip, lsl r9
    1a28:	02510129 	subseq	r0, r1, #1073741834	; 0x4000000a
    1a2c:	01290075 			; <UNDEFINED> instruction: 0x01290075
    1a30:	00790252 	rsbseq	r0, r9, r2, asr r2
    1a34:	02530129 	subseq	r0, r3, #1073741834	; 0x4000000a
    1a38:	2e000074 	mcrcs	0, 0, r0, cr0, cr4, {3}
    1a3c:	00008734 	andeq	r8, r0, r4, lsr r7
    1a40:	00001958 	andeq	r1, r0, r8, asr r9
    1a44:	00874828 	addeq	r4, r7, r8, lsr #16
    1a48:	00194c00 	andseq	r4, r9, r0, lsl #24
    1a4c:	000eb100 	andeq	fp, lr, r0, lsl #2
    1a50:	50012900 	andpl	r2, r1, r0, lsl #18
    1a54:	97d00305 	ldrbls	r0, [r0, r5, lsl #6]
    1a58:	01290000 			; <UNDEFINED> instruction: 0x01290000
    1a5c:	80030551 	andhi	r0, r3, r1, asr r5
    1a60:	29000097 	stmdbcs	r0, {r0, r1, r2, r4, r7}
    1a64:	03055201 	movweq	r5, #20993	; 0x5201
    1a68:	000099ec 	andeq	r9, r0, ip, ror #19
    1a6c:	02530129 	subseq	r0, r3, #1073741834	; 0x4000000a
    1a70:	2e008708 	cdpcs	7, 0, cr8, cr0, cr8, {0}
    1a74:	0000874c 	andeq	r8, r0, ip, asr #14
    1a78:	00001964 	andeq	r1, r0, r4, ror #18
    1a7c:	00875428 	addeq	r5, r7, r8, lsr #8
    1a80:	00194c00 	andseq	r4, r9, r0, lsl #24
    1a84:	000ed100 	andeq	sp, lr, r0, lsl #2
    1a88:	50012900 	andpl	r2, r1, r0, lsl #18
    1a8c:	98280305 	stmdals	r8!, {r0, r2, r8, r9}
    1a90:	28000000 	stmdacs	r0, {}	; <UNPREDICTABLE>
    1a94:	00008760 	andeq	r8, r0, r0, ror #14
    1a98:	0000194c 	andeq	r1, r0, ip, asr #18
    1a9c:	00000eee 	andeq	r0, r0, lr, ror #29
    1aa0:	05500129 	ldrbeq	r0, [r0, #-297]	; 0xfffffed7
    1aa4:	00983403 	addseq	r3, r8, r3, lsl #8
    1aa8:	51012900 	tstpl	r1, r0, lsl #18
    1aac:	00007502 	andeq	r7, r0, r2, lsl #10
    1ab0:	0087642e 	addeq	r6, r7, lr, lsr #8
    1ab4:	00195800 	andseq	r5, r9, r0, lsl #16
    1ab8:	877c2800 	ldrbhi	r2, [ip, -r0, lsl #16]!
    1abc:	194c0000 	stmdbne	ip, {}^	; <UNPREDICTABLE>
    1ac0:	0f2d0000 	svceq	0x002d0000
    1ac4:	01290000 			; <UNDEFINED> instruction: 0x01290000
    1ac8:	5c030550 	cfstr32pl	mvfx0, [r3], {80}	; 0x50
    1acc:	29000098 	stmdbcs	r0, {r3, r4, r7}
    1ad0:	03055101 	movweq	r5, #20737	; 0x5101
    1ad4:	00009780 	andeq	r9, r0, r0, lsl #15
    1ad8:	05520129 	ldrbeq	r0, [r2, #-297]	; 0xfffffed7
    1adc:	0099ec03 	addseq	lr, r9, r3, lsl #24
    1ae0:	53012900 	movwpl	r2, #6400	; 0x1900
    1ae4:	298f0802 	stmibcs	pc, {r1, fp}	; <UNPREDICTABLE>
    1ae8:	02007d02 	andeq	r7, r0, #2, 26	; 0x80
    1aec:	2e000075 	mcrcs	0, 0, r0, cr0, cr5, {3}
    1af0:	00008780 	andeq	r8, r0, r0, lsl #15
    1af4:	00001964 	andeq	r1, r0, r4, ror #18
    1af8:	00878828 	addeq	r8, r7, r8, lsr #16
    1afc:	00194c00 	andseq	r4, r9, r0, lsl #24
    1b00:	000f4d00 	andeq	r4, pc, r0, lsl #26
    1b04:	50012900 	andpl	r2, r1, r0, lsl #18
    1b08:	98280305 	stmdals	r8!, {r0, r2, r8, r9}
    1b0c:	28000000 	stmdacs	r0, {}	; <UNPREDICTABLE>
    1b10:	000087a4 	andeq	r8, r0, r4, lsr #15
    1b14:	0000194c 	andeq	r1, r0, ip, asr #18
    1b18:	00000f6a 	andeq	r0, r0, sl, ror #30
    1b1c:	05500129 	ldrbeq	r0, [r0, #-297]	; 0xfffffed7
    1b20:	00989403 	addseq	r9, r8, r3, lsl #8
    1b24:	52012900 	andpl	r2, r1, #0, 18
    1b28:	00007902 	andeq	r7, r0, r2, lsl #18
    1b2c:	0087a82e 	addeq	sl, r7, lr, lsr #16
    1b30:	00195800 	andseq	r5, r9, r0, lsl #16
    1b34:	87d02800 	ldrbhi	r2, [r0, r0, lsl #16]
    1b38:	194c0000 	stmdbne	ip, {}^	; <UNPREDICTABLE>
    1b3c:	0fa90000 	svceq	0x00a90000
    1b40:	01290000 			; <UNDEFINED> instruction: 0x01290000
    1b44:	c0030550 	andgt	r0, r3, r0, asr r5
    1b48:	29000098 	stmdbcs	r0, {r3, r4, r7}
    1b4c:	03055101 	movweq	r5, #20737	; 0x5101
    1b50:	00009780 	andeq	r9, r0, r0, lsl #15
    1b54:	05520129 	ldrbeq	r0, [r2, #-297]	; 0xfffffed7
    1b58:	0099ec03 	addseq	lr, r9, r3, lsl #24
    1b5c:	53012900 	movwpl	r2, #6400	; 0x1900
    1b60:	29920802 	ldmibcs	r2, {r1, fp}
    1b64:	02047d02 	andeq	r7, r4, #2, 26	; 0x80
    1b68:	2e000079 	mcrcs	0, 0, r0, cr0, cr9, {3}
    1b6c:	000087d4 	ldrdeq	r8, [r0], -r4
    1b70:	00001964 	andeq	r1, r0, r4, ror #18
    1b74:	0087d82e 	addeq	sp, r7, lr, lsr #16
    1b78:	00195800 	andseq	r5, r9, r0, lsl #16
    1b7c:	87ec2800 	strbhi	r2, [ip, r0, lsl #16]!
    1b80:	194c0000 	stmdbne	ip, {}^	; <UNPREDICTABLE>
    1b84:	0fea0000 	svceq	0x00ea0000
    1b88:	01290000 			; <UNDEFINED> instruction: 0x01290000
    1b8c:	fc030550 	stc2	5, cr0, [r3], {80}	; 0x50
    1b90:	29000098 	stmdbcs	r0, {r3, r4, r7}
    1b94:	03055101 	movweq	r5, #20737	; 0x5101
    1b98:	00009780 	andeq	r9, r0, r0, lsl #15
    1b9c:	05520129 	ldrbeq	r0, [r2, #-297]	; 0xfffffed7
    1ba0:	0099ec03 	addseq	lr, r9, r3, lsl #24
    1ba4:	53012900 	movwpl	r2, #6400	; 0x1900
    1ba8:	00a10802 	adceq	r0, r1, r2, lsl #16
    1bac:	0087f02e 	addeq	pc, r7, lr, lsr #32
    1bb0:	00196400 	andseq	r6, r9, r0, lsl #8
    1bb4:	3c0a0000 	stccc	0, cr0, [sl], {-0}
    1bb8:	04000001 	streq	r0, [r0], #-1
    1bbc:	0b000010 	bleq	1c04 <_start-0x63fc>
    1bc0:	0000002c 	andeq	r0, r0, ip, lsr #32
    1bc4:	f40f0007 	vst4.8	{d0-d3}, [pc], r7
    1bc8:	2f00000f 	svccs	0x0000000f
    1bcc:	00000274 	andeq	r0, r0, r4, ror r2
    1bd0:	50077101 	andpl	r7, r7, r1, lsl #2
    1bd4:	b8000085 	stmdalt	r0, {r0, r2, r7}
    1bd8:	01000000 	mrseq	r0, (UNDEF: 0)
    1bdc:	00115f9c 	mulseq	r1, ip, pc	; <UNPREDICTABLE>
    1be0:	0c0c2b00 			; <UNDEFINED> instruction: 0x0c0c2b00
    1be4:	71010000 	mrsvc	r0, (UNDEF: 1)
    1be8:	00012d15 	andeq	r2, r1, r5, lsl sp
    1bec:	0002db00 	andeq	sp, r2, r0, lsl #22
    1bf0:	0002d700 	andeq	sp, r2, r0, lsl #14
    1bf4:	02092b00 	andeq	r2, r9, #0, 22
    1bf8:	71010000 	mrsvc	r0, (UNDEF: 1)
    1bfc:	0005fc27 	andeq	pc, r5, r7, lsr #24
    1c00:	0002fd00 	andeq	pc, r2, r0, lsl #26
    1c04:	0002f900 	andeq	pc, r2, r0, lsl #18
    1c08:	04db2b00 	ldrbeq	r2, [fp], #2816	; 0xb00
    1c0c:	71010000 	mrsvc	r0, (UNDEF: 1)
    1c10:	0005fc39 	andeq	pc, r5, r9, lsr ip	; <UNPREDICTABLE>
    1c14:	00031f00 	andeq	r1, r3, r0, lsl #30
    1c18:	00031b00 	andeq	r1, r3, r0, lsl #22
    1c1c:	05412b00 	strbeq	r2, [r1, #-2816]	; 0xfffff500
    1c20:	71010000 	mrsvc	r0, (UNDEF: 1)
    1c24:	00002c48 	andeq	r2, r0, r8, asr #24
    1c28:	00034100 	andeq	r4, r3, r0, lsl #2
    1c2c:	00033d00 	andeq	r3, r3, r0, lsl #26
    1c30:	00682c00 	rsbeq	r2, r8, r0, lsl #24
    1c34:	9a0c7201 	bls	31e440 <__bss_end__+0x314410>
    1c38:	6500000c 	strvs	r0, [r0, #-12]
    1c3c:	5f000003 	svcpl	0x00000003
    1c40:	2d000003 	stccs	0, cr0, [r0, #-12]
    1c44:	0000020e 	andeq	r0, r0, lr, lsl #4
    1c48:	0000116f 	andeq	r1, r0, pc, ror #2
    1c4c:	99e40305 	stmibls	r4!, {r0, r2, r8, r9}^
    1c50:	68280000 	stmdavs	r8!, {}	; <UNPREDICTABLE>
    1c54:	71000085 	smlabbvc	r0, r5, r0, r0
    1c58:	a4000017 	strge	r0, [r0], #-23	; 0xffffffe9
    1c5c:	29000010 	stmdbcs	r0, {r4}
    1c60:	75025001 	strvc	r5, [r2, #-1]
    1c64:	84280000 	strthi	r0, [r8], #-0
    1c68:	4c000085 	stcmi	0, cr0, [r0], {133}	; 0x85
    1c6c:	bb000019 	bllt	1cd8 <_start-0x6328>
    1c70:	29000010 	stmdbcs	r0, {r4}
    1c74:	03055001 	movweq	r5, #20481	; 0x5001
    1c78:	000096a4 	andeq	r9, r0, r4, lsr #13
    1c7c:	85902800 	ldrhi	r2, [r0, #2048]	; 0x800
    1c80:	194c0000 	stmdbne	ip, {}^	; <UNPREDICTABLE>
    1c84:	10d80000 	sbcsne	r0, r8, r0
    1c88:	01290000 			; <UNDEFINED> instruction: 0x01290000
    1c8c:	04030550 	streq	r0, [r3], #-1360	; 0xfffffab0
    1c90:	29000098 	stmdbcs	r0, {r3, r4, r7}
    1c94:	75025101 	strvc	r5, [r2, #-257]	; 0xfffffeff
    1c98:	98280000 	stmdals	r8!, {}	; <UNPREDICTABLE>
    1c9c:	74000085 	strvc	r0, [r0], #-133	; 0xffffff7b
    1ca0:	ec000011 	stc	0, cr0, [r0], {17}
    1ca4:	29000010 	stmdbcs	r0, {r4}
    1ca8:	74025001 	strvc	r5, [r2], #-1
    1cac:	bc280000 	stclt	0, cr0, [r8], #-0
    1cb0:	0a000085 	beq	1ecc <_start-0x6134>
    1cb4:	00000018 	andeq	r0, r0, r8, lsl r0
    1cb8:	29000011 	stmdbcs	r0, {r0, r4}
    1cbc:	74025001 	strvc	r5, [r2], #-1
    1cc0:	c42e0000 	strtgt	r0, [lr], #-0
    1cc4:	21000085 	smlabbcs	r0, r5, r0, r0
    1cc8:	28000012 	stmdacs	r0, {r1, r4}
    1ccc:	000085cc 	andeq	r8, r0, ip, asr #11
    1cd0:	00001706 	andeq	r1, r0, r6, lsl #14
    1cd4:	0000111d 	andeq	r1, r0, sp, lsl r1
    1cd8:	02500129 	subseq	r0, r0, #1073741834	; 0x4000000a
    1cdc:	2e000074 	mcrcs	0, 0, r0, cr0, cr4, {3}
    1ce0:	000085d8 	ldrdeq	r8, [r0], -r8	; <UNPREDICTABLE>
    1ce4:	00001958 	andeq	r1, r0, r8, asr r9
    1ce8:	0085ec28 	addeq	lr, r5, r8, lsr #24
    1cec:	00194c00 	andseq	r4, r9, r0, lsl #24
    1cf0:	00115500 	andseq	r5, r1, r0, lsl #10
    1cf4:	50012900 	andpl	r2, r1, r0, lsl #18
    1cf8:	97d00305 	ldrbls	r0, [r0, r5, lsl #6]
    1cfc:	01290000 			; <UNDEFINED> instruction: 0x01290000
    1d00:	80030551 	andhi	r0, r3, r1, asr r5
    1d04:	29000097 	stmdbcs	r0, {r0, r1, r2, r4, r7}
    1d08:	03055201 	movweq	r5, #20993	; 0x5201
    1d0c:	000099e4 	andeq	r9, r0, r4, ror #19
    1d10:	02530129 	subseq	r0, r3, #1073741834	; 0x4000000a
    1d14:	2e007408 	cdpcs	4, 0, cr7, cr0, cr8, {0}
    1d18:	000085f0 	strdeq	r8, [r0], -r0
    1d1c:	00001964 	andeq	r1, r0, r4, ror #18
    1d20:	013c0a00 	teqeq	ip, r0, lsl #20
    1d24:	116f0000 	cmnne	pc, r0
    1d28:	2c0b0000 	stccs	0, cr0, [fp], {-0}
    1d2c:	06000000 	streq	r0, [r0], -r0
    1d30:	115f0f00 	cmpne	pc, r0, lsl #30
    1d34:	6d300000 	ldcvs	0, cr0, [r0, #-0]
    1d38:	01000006 	tsteq	r0, r6
    1d3c:	00250c59 	eoreq	r0, r5, r9, asr ip
    1d40:	84780000 	ldrbthi	r0, [r8], #-0
    1d44:	00640000 	rsbeq	r0, r4, r0
    1d48:	9c010000 	stcls	0, cr0, [r1], {-0}
    1d4c:	00001221 	andeq	r1, r0, r1, lsr #4
    1d50:	01006831 	tsteq	r0, r1, lsr r8
    1d54:	0c9a1f59 	ldceq	15, cr1, [sl], {89}	; 0x59
    1d58:	03920000 	orrseq	r0, r2, #0
    1d5c:	038e0000 	orreq	r0, lr, #0
    1d60:	84280000 	strthi	r0, [r8], #-0
    1d64:	c9000084 	stmdbgt	r0, {r2, r7}
    1d68:	b4000015 	strlt	r0, [r0], #-21	; 0xffffffeb
    1d6c:	29000011 	stmdbcs	r0, {r0, r4}
    1d70:	74025001 	strvc	r5, [r2], #-1
    1d74:	94280000 	strtls	r0, [r8], #-0
    1d78:	48000084 	stmdami	r0, {r2, r7}
    1d7c:	c8000018 	stmdagt	r0, {r3, r4}
    1d80:	29000011 	stmdbcs	r0, {r0, r4}
    1d84:	74025001 	strvc	r5, [r2], #-1
    1d88:	a0280000 	eorge	r0, r8, r0
    1d8c:	3b000084 	blcc	1fa4 <_start-0x605c>
    1d90:	e2000014 	and	r0, r0, #20
    1d94:	29000011 	stmdbcs	r0, {r0, r4}
    1d98:	08025101 	stmdaeq	r2, {r0, r8, ip, lr}
    1d9c:	52012980 	andpl	r2, r1, #128, 18	; 0x200000
    1da0:	00007402 	andeq	r7, r0, r2, lsl #8
    1da4:	0084b028 	addeq	fp, r4, r8, lsr #32
    1da8:	0017cd00 	andseq	ip, r7, r0, lsl #26
    1dac:	0011f600 	andseq	pc, r1, r0, lsl #12
    1db0:	50012900 	andpl	r2, r1, r0, lsl #18
    1db4:	00007402 	andeq	r7, r0, r2, lsl #8
    1db8:	0084bc28 	addeq	fp, r4, r8, lsr #24
    1dbc:	0017a000 	andseq	sl, r7, r0
    1dc0:	00120a00 	andseq	r0, r2, r0, lsl #20
    1dc4:	50012900 	andpl	r2, r1, r0, lsl #18
    1dc8:	00007402 	andeq	r7, r0, r2, lsl #8
    1dcc:	0084cc2a 	addeq	ip, r4, sl, lsr #24
    1dd0:	00143b00 	andseq	r3, r4, r0, lsl #22
    1dd4:	50012900 	andpl	r2, r1, r0, lsl #18
    1dd8:	29007502 	stmdbcs	r0, {r1, r8, sl, ip, sp, lr}
    1ddc:	74025201 	strvc	r5, [r2], #-513	; 0xfffffdff
    1de0:	32000000 	andcc	r0, r0, #0
    1de4:	000005bc 			; <UNDEFINED> instruction: 0x000005bc
    1de8:	5c0d4f01 	stcpl	15, cr4, [sp], {1}
    1dec:	14000082 	strne	r0, [r0], #-130	; 0xffffff7e
    1df0:	01000000 	mrseq	r0, (UNDEF: 0)
    1df4:	00127c9c 	mulseq	r2, ip, ip
    1df8:	00703100 	rsbseq	r3, r0, r0, lsl #2
    1dfc:	2d1c4f01 	ldccs	15, cr4, [ip, #-4]
    1e00:	b4000001 	strlt	r0, [r0], #-1
    1e04:	b0000003 	andlt	r0, r0, r3
    1e08:	2b000003 	blcs	1e1c <_start-0x61e4>
    1e0c:	0000067f 	andeq	r0, r0, pc, ror r6
    1e10:	2c284f01 	stccs	15, cr4, [r8], #-4
    1e14:	db000000 	blle	1e1c <_start-0x61e4>
    1e18:	d5000003 	strle	r0, [r0, #-3]
    1e1c:	2a000003 	bcs	1e30 <_start-0x61d0>
    1e20:	0000826c 	andeq	r8, r0, ip, ror #4
    1e24:	00001970 	andeq	r1, r0, r0, ror r9
    1e28:	03500129 	cmpeq	r0, #1073741834	; 0x4000000a
    1e2c:	295001f3 	ldmdbcs	r0, {r0, r1, r4, r5, r6, r7, r8}^
    1e30:	08025101 	stmdaeq	r2, {r0, r8, ip, lr}
    1e34:	520129fe 	andpl	r2, r1, #4161536	; 0x3f8000
    1e38:	5101f303 	tstpl	r1, r3, lsl #6	; <UNPREDICTABLE>
    1e3c:	0f300000 	svceq	0x00300000
    1e40:	01000006 	tsteq	r0, r6
    1e44:	00250c41 	eoreq	r0, r5, r1, asr #24
    1e48:	81500000 	cmphi	r0, r0
    1e4c:	010c0000 	mrseq	r0, (UNDEF: 12)
    1e50:	9c010000 	stcls	0, cr0, [r1], {-0}
    1e54:	0000143b 	andeq	r1, r0, fp, lsr r4
    1e58:	01007031 	tsteq	r0, r1, lsr r0
    1e5c:	012f2441 			; <UNDEFINED> instruction: 0x012f2441
    1e60:	040f0000 	streq	r0, [pc], #-0	; 1e68 <_start-0x6198>
    1e64:	04070000 	streq	r0, [r7], #-0
    1e68:	7f2b0000 	svcvc	0x002b0000
    1e6c:	01000006 	tsteq	r0, r6
    1e70:	002c3041 	eoreq	r3, ip, r1, asr #32
    1e74:	04490000 	strbeq	r0, [r9], #-0
    1e78:	04430000 	strbeq	r0, [r3], #-0
    1e7c:	68310000 	ldmdavs	r1!, {}	; <UNPREDICTABLE>
    1e80:	3f410100 	svccc	0x00410100
    1e84:	00000c9a 	muleq	r0, sl, ip
    1e88:	0000047b 	andeq	r0, r0, fp, ror r4
    1e8c:	00000475 	andeq	r0, r0, r5, ror r4
    1e90:	0100692c 	tsteq	r0, ip, lsr #18
    1e94:	00250942 	eoreq	r0, r5, r2, asr #18
    1e98:	04aa0000 	strteq	r0, [sl], #0
    1e9c:	04a40000 	strteq	r0, [r4], #0
    1ea0:	78330000 	ldmdavc	r3!, {}	; <UNPREDICTABLE>
    1ea4:	c0000081 	andgt	r0, r0, r1, lsl #1
    1ea8:	26000000 	strcs	r0, [r0], -r0
    1eac:	000005dd 	ldrdeq	r0, [r0], -sp
    1eb0:	25114501 	ldrcs	r4, [r1, #-1281]	; 0xfffffaff
    1eb4:	d6000000 	strle	r0, [r0], -r0
    1eb8:	d4000004 	strle	r0, [r0], #-4
    1ebc:	34000004 	strcc	r0, [r0], #-4
    1ec0:	00001924 	andeq	r1, r0, r4, lsr #18
    1ec4:	000081ac 	andeq	r8, r0, ip, lsr #3
    1ec8:	00000001 	andeq	r0, r0, r1
    1ecc:	0d460100 	stfeqe	f0, [r6, #-0]
    1ed0:	000013b0 			; <UNDEFINED> instruction: 0x000013b0
    1ed4:	00193135 	andseq	r3, r9, r5, lsr r1
    1ed8:	0004ed00 	andeq	lr, r4, r0, lsl #26
    1edc:	0004e900 	andeq	lr, r4, r0, lsl #18
    1ee0:	00003600 	andeq	r3, r0, r0, lsl #12
    1ee4:	3b370000 	blcc	dc1eec <__bss_end__+0xdb7ebc>
    1ee8:	0f000019 	svceq	0x00000019
    1eec:	0b000005 	bleq	1f08 <_start-0x60f8>
    1ef0:	28000005 	stmdacs	r0, {r0, r2}
    1ef4:	000081b4 			; <UNDEFINED> instruction: 0x000081b4
    1ef8:	0000194c 	andeq	r1, r0, ip, asr #18
    1efc:	00001345 	andeq	r1, r0, r5, asr #6
    1f00:	02500129 	subseq	r0, r0, #1073741834	; 0x4000000a
    1f04:	28000077 	stmdacs	r0, {r0, r1, r2, r4, r5, r6}
    1f08:	000081c0 	andeq	r8, r0, r0, asr #3
    1f0c:	0000194c 	andeq	r1, r0, ip, asr #18
    1f10:	0000135c 	andeq	r1, r0, ip, asr r3
    1f14:	05500129 	ldrbeq	r0, [r0, #-297]	; 0xfffffed7
    1f18:	00971c03 	addseq	r1, r7, r3, lsl #24
    1f1c:	d4280000 	strtle	r0, [r8], #-0
    1f20:	4c000081 	stcmi	0, cr0, [r0], {129}	; 0x81
    1f24:	70000019 	andvc	r0, r0, r9, lsl r0
    1f28:	29000013 	stmdbcs	r0, {r0, r1, r4}
    1f2c:	77025001 	strvc	r5, [r2, -r1]
    1f30:	e8280000 	stmda	r8!, {}	; <UNPREDICTABLE>
    1f34:	4c000081 	stcmi	0, cr0, [r0], {129}	; 0x81
    1f38:	87000019 	smladhi	r0, r9, r0, r0
    1f3c:	29000013 	stmdbcs	r0, {r0, r1, r4}
    1f40:	03055001 	movweq	r5, #20481	; 0x5001
    1f44:	00009728 	andeq	r9, r0, r8, lsr #14
    1f48:	82202800 	eorhi	r2, r0, #0, 16
    1f4c:	194c0000 	stmdbne	ip, {}^	; <UNPREDICTABLE>
    1f50:	139b0000 	orrsne	r0, fp, #0
    1f54:	01290000 			; <UNDEFINED> instruction: 0x01290000
    1f58:	00770250 	rsbseq	r0, r7, r0, asr r2
    1f5c:	82342a00 	eorshi	r2, r4, #0, 20
    1f60:	194c0000 	stmdbne	ip, {}^	; <UNPREDICTABLE>
    1f64:	01290000 			; <UNDEFINED> instruction: 0x01290000
    1f68:	48030550 	stmdami	r3, {r4, r6, r8, sl}
    1f6c:	00000097 	muleq	r0, r7, r0
    1f70:	80280000 	eorhi	r0, r8, r0
    1f74:	0a000081 	beq	2180 <_start-0x5e80>
    1f78:	c4000018 	strgt	r0, [r0], #-24	; 0xffffffe8
    1f7c:	29000013 	stmdbcs	r0, {r0, r1, r4}
    1f80:	76025001 	strvc	r5, [r2], -r1
    1f84:	94280000 	strtls	r0, [r8], #-0
    1f88:	4c000081 	stcmi	0, cr0, [r0], {129}	; 0x81
    1f8c:	d8000019 	stmdale	r0, {r0, r3, r4}
    1f90:	29000013 	stmdbcs	r0, {r0, r1, r4}
    1f94:	77025001 	strvc	r5, [r2, -r1]
    1f98:	9c280000 	stcls	0, cr0, [r8], #-0
    1f9c:	4c000081 	stcmi	0, cr0, [r0], {129}	; 0x81
    1fa0:	ef000019 	svc	0x00000019
    1fa4:	29000013 	stmdbcs	r0, {r0, r1, r4}
    1fa8:	03055001 	movweq	r5, #20481	; 0x5001
    1fac:	000096f0 	strdeq	r9, [r0], -r0
    1fb0:	81ac2800 			; <UNDEFINED> instruction: 0x81ac2800
    1fb4:	194c0000 	stmdbne	ip, {}^	; <UNPREDICTABLE>
    1fb8:	14120000 	ldrne	r0, [r2], #-0
    1fbc:	01290000 			; <UNDEFINED> instruction: 0x01290000
    1fc0:	f8030550 			; <UNDEFINED> instruction: 0xf8030550
    1fc4:	29000096 	stmdbcs	r0, {r1, r2, r4, r7}
    1fc8:	75025101 	strvc	r5, [r2, #-257]	; 0xfffffeff
    1fcc:	52012900 	andpl	r2, r1, #0, 18
    1fd0:	00007402 	andeq	r7, r0, r2, lsl #8
    1fd4:	0081fc28 	addeq	pc, r1, r8, lsr #24
    1fd8:	00194c00 	andseq	r4, r9, r0, lsl #24
    1fdc:	00142600 	andseq	r2, r4, r0, lsl #12
    1fe0:	50012900 	andpl	r2, r1, r0, lsl #18
    1fe4:	00007702 	andeq	r7, r0, r2, lsl #14
    1fe8:	0082042a 	addeq	r0, r2, sl, lsr #8
    1fec:	00194c00 	andseq	r4, r9, r0, lsl #24
    1ff0:	50012900 	andpl	r2, r1, r0, lsl #18
    1ff4:	97640305 	strbls	r0, [r4, -r5, lsl #6]!
    1ff8:	00000000 	andeq	r0, r0, r0
    1ffc:	06a43000 	strteq	r3, [r4], r0
    2000:	34010000 	strcc	r0, [r1], #-0
    2004:	0000250c 	andeq	r2, r0, ip, lsl #10
    2008:	00837c00 	addeq	r7, r3, r0, lsl #24
    200c:	0000fc00 	andeq	pc, r0, r0, lsl #24
    2010:	c99c0100 	ldmibgt	ip, {r8}
    2014:	31000015 	tstcc	r0, r5, lsl r0
    2018:	34010070 	strcc	r0, [r1], #-112	; 0xffffff90
    201c:	00012f1c 	andeq	r2, r1, ip, lsl pc
    2020:	00053900 	andeq	r3, r5, r0, lsl #18
    2024:	00053100 	andeq	r3, r5, r0, lsl #2
    2028:	067f2b00 	ldrbteq	r2, [pc], -r0, lsl #22
    202c:	34010000 	strcc	r0, [r1], #-0
    2030:	00002c28 	andeq	r2, r0, r8, lsr #24
    2034:	00057300 	andeq	r7, r5, r0, lsl #6
    2038:	00056d00 	andeq	r6, r5, r0, lsl #26
    203c:	00683100 	rsbeq	r3, r8, r0, lsl #2
    2040:	9a373401 	bls	dcf04c <__bss_end__+0xdc501c>
    2044:	a500000c 	strge	r0, [r0, #-12]
    2048:	9f000005 	svcls	0x00000005
    204c:	2c000005 	stccs	0, cr0, [r0], {5}
    2050:	35010069 	strcc	r0, [r1, #-105]	; 0xffffff97
    2054:	00002509 	andeq	r2, r0, r9, lsl #10
    2058:	0005d400 	andeq	sp, r5, r0, lsl #8
    205c:	0005ce00 	andeq	ip, r5, r0, lsl #28
    2060:	83a43300 			; <UNDEFINED> instruction: 0x83a43300
    2064:	00b40000 	adcseq	r0, r4, r0
    2068:	dd260000 	stcle	0, cr0, [r6, #-0]
    206c:	01000005 	tsteq	r0, r5
    2070:	00251138 	eoreq	r1, r5, r8, lsr r1
    2074:	06000000 	streq	r0, [r0], -r0
    2078:	05fe0000 	ldrbeq	r0, [lr, #0]!
    207c:	24340000 	ldrtcs	r0, [r4], #-0
    2080:	dc000019 	stcle	0, cr0, [r0], {25}
    2084:	01000083 	smlabbeq	r0, r3, r0, r0
    2088:	00000030 	andeq	r0, r0, r0, lsr r0
    208c:	6f0d3901 	svcvs	0x000d3901
    2090:	35000015 	strcc	r0, [r0, #-21]	; 0xffffffeb
    2094:	00001931 	andeq	r1, r0, r1, lsr r9
    2098:	00000615 	andeq	r0, r0, r5, lsl r6
    209c:	00000613 	andeq	r0, r0, r3, lsl r6
    20a0:	00003036 	andeq	r3, r0, r6, lsr r0
    20a4:	193b3700 	ldmdbne	fp!, {r8, r9, sl, ip, sp}
    20a8:	062c0000 	strteq	r0, [ip], -r0
    20ac:	06280000 	strteq	r0, [r8], -r0
    20b0:	e4280000 	strt	r0, [r8], #-0
    20b4:	4c000083 	stcmi	0, cr0, [r0], {131}	; 0x83
    20b8:	04000019 	streq	r0, [r0], #-25	; 0xffffffe7
    20bc:	29000015 	stmdbcs	r0, {r0, r2, r4}
    20c0:	77025001 	strvc	r5, [r2, -r1]
    20c4:	f0280000 			; <UNDEFINED> instruction: 0xf0280000
    20c8:	4c000083 	stcmi	0, cr0, [r0], {131}	; 0x83
    20cc:	1b000019 	blne	2138 <_start-0x5ec8>
    20d0:	29000015 	stmdbcs	r0, {r0, r2, r4}
    20d4:	03055001 	movweq	r5, #20481	; 0x5001
    20d8:	0000971c 	andeq	r9, r0, ip, lsl r7
    20dc:	84042800 	strhi	r2, [r4], #-2048	; 0xfffff800
    20e0:	194c0000 	stmdbne	ip, {}^	; <UNPREDICTABLE>
    20e4:	152f0000 	strne	r0, [pc, #-0]!	; 20ec <_start-0x5f14>
    20e8:	01290000 			; <UNDEFINED> instruction: 0x01290000
    20ec:	00770250 	rsbseq	r0, r7, r0, asr r2
    20f0:	84182800 	ldrhi	r2, [r8], #-2048	; 0xfffff800
    20f4:	194c0000 	stmdbne	ip, {}^	; <UNPREDICTABLE>
    20f8:	15460000 	strbne	r0, [r6, #-0]
    20fc:	01290000 			; <UNDEFINED> instruction: 0x01290000
    2100:	28030550 	stmdacs	r3, {r4, r6, r8, sl}
    2104:	00000097 	muleq	r0, r7, r0
    2108:	00844028 	addeq	r4, r4, r8, lsr #32
    210c:	00194c00 	andseq	r4, r9, r0, lsl #24
    2110:	00155a00 	andseq	r5, r5, r0, lsl #20
    2114:	50012900 	andpl	r2, r1, r0, lsl #18
    2118:	00007702 	andeq	r7, r0, r2, lsl #14
    211c:	0084542a 	addeq	r5, r4, sl, lsr #8
    2120:	00194c00 	andseq	r4, r9, r0, lsl #24
    2124:	50012900 	andpl	r2, r1, r0, lsl #18
    2128:	97480305 	strbls	r0, [r8, -r5, lsl #6]
    212c:	00000000 	andeq	r0, r0, r0
    2130:	83ac2800 			; <UNDEFINED> instruction: 0x83ac2800
    2134:	180a0000 	stmdane	sl, {}	; <UNPREDICTABLE>
    2138:	15830000 	strne	r0, [r3]
    213c:	01290000 			; <UNDEFINED> instruction: 0x01290000
    2140:	00760250 	rsbseq	r0, r6, r0, asr r2
    2144:	83c02800 	bichi	r2, r0, #0, 16
    2148:	194c0000 	stmdbne	ip, {}^	; <UNPREDICTABLE>
    214c:	15970000 	ldrne	r0, [r7]
    2150:	01290000 			; <UNDEFINED> instruction: 0x01290000
    2154:	00770250 	rsbseq	r0, r7, r0, asr r2
    2158:	83c82800 	bichi	r2, r8, #0, 16
    215c:	194c0000 	stmdbne	ip, {}^	; <UNPREDICTABLE>
    2160:	15ae0000 	strne	r0, [lr, #0]!
    2164:	01290000 			; <UNDEFINED> instruction: 0x01290000
    2168:	f0030550 			; <UNDEFINED> instruction: 0xf0030550
    216c:	00000096 	muleq	r0, r6, r0
    2170:	0083dc2a 	addeq	sp, r3, sl, lsr #24
    2174:	00194c00 	andseq	r4, r9, r0, lsl #24
    2178:	50012900 	andpl	r2, r1, r0, lsl #18
    217c:	96f80305 	ldrbtls	r0, [r8], r5, lsl #6
    2180:	01290000 			; <UNDEFINED> instruction: 0x01290000
    2184:	00740252 	rsbseq	r0, r4, r2, asr r2
    2188:	30000000 	andcc	r0, r0, r0
    218c:	00000620 	andeq	r0, r0, r0, lsr #12
    2190:	250c2a01 	strcs	r2, [ip, #-2561]	; 0xfffff5ff
    2194:	94000000 	strls	r0, [r0], #-0
    2198:	e8000082 	stmda	r0, {r1, r7}
    219c:	01000000 	mrseq	r0, (UNDEF: 0)
    21a0:	0017069c 	mulseq	r7, ip, r6
    21a4:	00683100 	rsbeq	r3, r8, r0, lsl #2
    21a8:	9a1d2a01 	bls	74c9b4 <__bss_end__+0x742984>
    21ac:	5200000c 	andpl	r0, r0, #12
    21b0:	4e000006 	cdpmi	0, 0, cr0, cr0, cr6, {0}
    21b4:	34000006 	strcc	r0, [r0], #-6
    21b8:	00001924 	andeq	r1, r0, r4, lsr #18
    21bc:	000082e0 	andeq	r8, r0, r0, ror #5
    21c0:	00001801 	andeq	r1, r0, r1, lsl #16
    21c4:	092d0100 	stmfdeq	sp!, {r8}
    21c8:	000016a8 	andeq	r1, r0, r8, lsr #13
    21cc:	00193135 	andseq	r3, r9, r5, lsr r1
    21d0:	00067200 	andeq	r7, r6, r0, lsl #4
    21d4:	00067000 	andeq	r7, r6, r0
    21d8:	00183600 	andseq	r3, r8, r0, lsl #12
    21dc:	3b370000 	blcc	dc21e4 <__bss_end__+0xdb81b4>
    21e0:	89000019 	stmdbhi	r0, {r0, r3, r4}
    21e4:	85000006 	strhi	r0, [r0, #-6]
    21e8:	28000006 	stmdacs	r0, {r1, r2}
    21ec:	000082e8 	andeq	r8, r0, r8, ror #5
    21f0:	0000194c 	andeq	r1, r0, ip, asr #18
    21f4:	0000163d 	andeq	r1, r0, sp, lsr r6
    21f8:	02500129 	subseq	r0, r0, #1073741834	; 0x4000000a
    21fc:	28000075 	stmdacs	r0, {r0, r2, r4, r5, r6}
    2200:	000082f4 	strdeq	r8, [r0], -r4
    2204:	0000194c 	andeq	r1, r0, ip, asr #18
    2208:	00001654 	andeq	r1, r0, r4, asr r6
    220c:	05500129 	ldrbeq	r0, [r0, #-297]	; 0xfffffed7
    2210:	00971c03 	addseq	r1, r7, r3, lsl #24
    2214:	08280000 	stmdaeq	r8!, {}	; <UNPREDICTABLE>
    2218:	4c000083 	stcmi	0, cr0, [r0], {131}	; 0x83
    221c:	68000019 	stmdavs	r0, {r0, r3, r4}
    2220:	29000016 	stmdbcs	r0, {r1, r2, r4}
    2224:	75025001 	strvc	r5, [r2, #-1]
    2228:	1c280000 	stcne	0, cr0, [r8], #-0
    222c:	4c000083 	stcmi	0, cr0, [r0], {131}	; 0x83
    2230:	7f000019 	svcvc	0x00000019
    2234:	29000016 	stmdbcs	r0, {r1, r2, r4}
    2238:	03055001 	movweq	r5, #20481	; 0x5001
    223c:	00009728 	andeq	r9, r0, r8, lsr #14
    2240:	83442800 	movthi	r2, #18432	; 0x4800
    2244:	194c0000 	stmdbne	ip, {}^	; <UNPREDICTABLE>
    2248:	16930000 	ldrne	r0, [r3], r0
    224c:	01290000 			; <UNDEFINED> instruction: 0x01290000
    2250:	00750250 	rsbseq	r0, r5, r0, asr r2
    2254:	83582a00 	cmphi	r8, #0, 20
    2258:	194c0000 	stmdbne	ip, {}^	; <UNPREDICTABLE>
    225c:	01290000 			; <UNDEFINED> instruction: 0x01290000
    2260:	48030550 	stmdami	r3, {r4, r6, r8, sl}
    2264:	00000097 	muleq	r0, r7, r0
    2268:	b4280000 	strtlt	r0, [r8], #-0
    226c:	06000082 	streq	r0, [r0], -r2, lsl #1
    2270:	bc000017 	stclt	0, cr0, [r0], {23}
    2274:	29000016 	stmdbcs	r0, {r1, r2, r4}
    2278:	74025001 	strvc	r5, [r2], #-1
    227c:	c8280000 	stmdagt	r8!, {}	; <UNPREDICTABLE>
    2280:	4c000082 	stcmi	0, cr0, [r0], {130}	; 0x82
    2284:	d0000019 	andle	r0, r0, r9, lsl r0
    2288:	29000016 	stmdbcs	r0, {r1, r2, r4}
    228c:	75025001 	strvc	r5, [r2, #-1]
    2290:	d0280000 	eorle	r0, r8, r0
    2294:	4c000082 	stcmi	0, cr0, [r0], {130}	; 0x82
    2298:	e7000019 	smlad	r0, r9, r0, r0
    229c:	29000016 	stmdbcs	r0, {r1, r2, r4}
    22a0:	03055001 	movweq	r5, #20481	; 0x5001
    22a4:	000096f0 	strdeq	r9, [r0], -r0
    22a8:	82e02a00 	rschi	r2, r0, #0, 20
    22ac:	194c0000 	stmdbne	ip, {}^	; <UNPREDICTABLE>
    22b0:	01290000 			; <UNDEFINED> instruction: 0x01290000
    22b4:	f8030550 			; <UNDEFINED> instruction: 0xf8030550
    22b8:	29000096 	stmdbcs	r0, {r1, r2, r4, r7}
    22bc:	74025101 	strvc	r5, [r2], #-257	; 0xfffffeff
    22c0:	52012900 	andpl	r2, r1, #0, 18
    22c4:	00003001 	andeq	r3, r0, r1
    22c8:	0005ec30 	andeq	lr, r5, r0, lsr ip
    22cc:	11210100 			; <UNDEFINED> instruction: 0x11210100
    22d0:	00000069 	andeq	r0, r0, r9, rrx
    22d4:	00008270 	andeq	r8, r0, r0, ror r2
    22d8:	00000024 	andeq	r0, r0, r4, lsr #32
    22dc:	17719c01 	ldrbne	r9, [r1, -r1, lsl #24]!
    22e0:	68310000 	ldmdavs	r1!, {}	; <UNPREDICTABLE>
    22e4:	22210100 	eorcs	r0, r1, #0, 2
    22e8:	00000c9a 	muleq	r0, sl, ip
    22ec:	000006af 	andeq	r0, r0, pc, lsr #13
    22f0:	000006ab 	andeq	r0, r0, fp, lsr #13
    22f4:	646c6f2c 	strbtvs	r6, [ip], #-3884	; 0xfffff0d4
    22f8:	0e220100 	sufeqs	f0, f2, f0
    22fc:	0000002c 	andeq	r0, r0, ip, lsr #32
    2300:	000006cf 	andeq	r0, r0, pc, asr #13
    2304:	000006cd 	andeq	r0, r0, sp, asr #13
    2308:	0005f026 	andeq	pc, r5, r6, lsr #32
    230c:	0e240100 	sufeqs	f0, f4, f0
    2310:	00000069 	andeq	r0, r0, r9, rrx
    2314:	000006e4 	andeq	r0, r0, r4, ror #13
    2318:	000006e2 	andeq	r0, r0, r2, ror #13
    231c:	00828c2a 	addeq	r8, r2, sl, lsr #24
    2320:	00197c00 	andseq	r7, r9, r0, lsl #24
    2324:	50012900 	andpl	r2, r1, r0, lsl #18
    2328:	29007402 	stmdbcs	r0, {r1, sl, ip, sp, lr}
    232c:	08025101 	stmdaeq	r2, {r0, r8, ip, lr}
    2330:	30000038 	andcc	r0, r0, r8, lsr r0
    2334:	000005c5 	andeq	r0, r0, r5, asr #11
    2338:	9a0f1c01 	bls	3c9344 <__bss_end__+0x3bf314>
    233c:	4800000c 	stmdami	r0, {r2, r3}
    2340:	08000081 	stmdaeq	r0, {r0, r7}
    2344:	01000000 	mrseq	r0, (UNDEF: 0)
    2348:	0017a09c 	mulseq	r7, ip, r0
    234c:	0c0c2b00 			; <UNDEFINED> instruction: 0x0c0c2b00
    2350:	1c010000 	stcne	0, cr0, [r1], {-0}
    2354:	00012d23 	andeq	r2, r1, r3, lsr #26
    2358:	0006fb00 	andeq	pc, r6, r0, lsl #22
    235c:	0006f700 	andeq	pc, r6, r0, lsl #14
    2360:	79300000 	ldmdbvc	r0!, {}	; <UNPREDICTABLE>
    2364:	01000006 	tsteq	r0, r6
    2368:	002c1119 	eoreq	r1, ip, r9, lsl r1
    236c:	813c0000 	teqhi	ip, r0
    2370:	000c0000 	andeq	r0, ip, r0
    2374:	9c010000 	stcls	0, cr0, [r1], {-0}
    2378:	000017cd 	andeq	r1, r0, sp, asr #15
    237c:	01006831 	tsteq	r0, r1, lsr r8
    2380:	0c9a2519 	cfldr32eq	mvfx2, [sl], {25}
    2384:	07200000 	streq	r0, [r0, -r0]!
    2388:	071c0000 	ldreq	r0, [ip, -r0]
    238c:	30000000 	andcc	r0, r0, r0
    2390:	0000062a 	andeq	r0, r0, sl, lsr #12
    2394:	2d0e1701 	stccs	7, cr1, [lr, #-4]
    2398:	24000001 	strcs	r0, [r0], #-1
    239c:	18000081 	stmdane	r0, {r0, r7}
    23a0:	01000000 	mrseq	r0, (UNDEF: 0)
    23a4:	00180a9c 	mulseq	r8, ip, sl
    23a8:	00683100 	rsbeq	r3, r8, r0, lsl #2
    23ac:	9a1f1701 	bls	7c7fb8 <__bss_end__+0x7bdf88>
    23b0:	4500000c 	strmi	r0, [r0, #-12]
    23b4:	41000007 	tstmi	r0, r7
    23b8:	2a000007 	bcs	23dc <_start-0x5c24>
    23bc:	00008130 	andeq	r8, r0, r0, lsr r1
    23c0:	0000180a 	andeq	r1, r0, sl, lsl #16
    23c4:	02500129 	subseq	r0, r0, #1073741834	; 0x4000000a
    23c8:	00000074 	andeq	r0, r0, r4, ror r0
    23cc:	00060330 	andeq	r0, r6, r0, lsr r3
    23d0:	0e150100 	mufeqs	f0, f5, f0
    23d4:	0000012d 	andeq	r0, r0, sp, lsr #2
    23d8:	00008114 	andeq	r8, r0, r4, lsl r1
    23dc:	00000010 	andeq	r0, r0, r0, lsl r0
    23e0:	18489c01 	stmdane	r8, {r0, sl, fp, ip, pc}^
    23e4:	68310000 	ldmdavs	r1!, {}	; <UNPREDICTABLE>
    23e8:	21150100 	tstcs	r5, r0, lsl #2
    23ec:	00000c9a 	muleq	r0, sl, ip
    23f0:	00000767 	andeq	r0, r0, r7, ror #14
    23f4:	00000763 	andeq	r0, r0, r3, ror #14
    23f8:	00811c2a 	addeq	r1, r1, sl, lsr #24
    23fc:	00184800 	andseq	r4, r8, r0, lsl #16
    2400:	50012900 	andpl	r2, r1, r0, lsl #18
    2404:	5001f303 	andpl	pc, r1, r3, lsl #6
    2408:	60300000 	eorsvs	r0, r0, r0
    240c:	01000005 	tsteq	r0, r5
    2410:	012d0e13 			; <UNDEFINED> instruction: 0x012d0e13
    2414:	810c0000 	mrshi	r0, (UNDEF: 12)
    2418:	00080000 	andeq	r0, r8, r0
    241c:	9c010000 	stcls	0, cr0, [r1], {-0}
    2420:	00001875 	andeq	r1, r0, r5, ror r8
    2424:	01006831 	tsteq	r0, r1, lsr r8
    2428:	0c9a1f13 	ldceq	15, cr1, [sl], {19}
    242c:	078c0000 	streq	r0, [ip, r0]
    2430:	07880000 	streq	r0, [r8, r0]
    2434:	2f000000 	svccs	0x00000000
    2438:	00000135 	andeq	r0, r0, r5, lsr r1
    243c:	dc060901 			; <UNDEFINED> instruction: 0xdc060901
    2440:	74000084 	strvc	r0, [r0], #-132	; 0xffffff7c
    2444:	01000000 	mrseq	r0, (UNDEF: 0)
    2448:	0019249c 	mulseq	r9, ip, r4
    244c:	0c052b00 			; <UNDEFINED> instruction: 0x0c052b00
    2450:	09010000 	stmdbeq	r1, {}	; <UNPREDICTABLE>
    2454:	00012d14 	andeq	r2, r1, r4, lsl sp
    2458:	0007b600 	andeq	fp, r7, r0, lsl #12
    245c:	0007ac00 	andeq	sl, r7, r0, lsl #24
    2460:	006e3100 	rsbeq	r3, lr, r0, lsl #2
    2464:	2c240901 			; <UNDEFINED> instruction: 0x2c240901
    2468:	04000000 	streq	r0, [r0], #-0
    246c:	fc000008 	stc2	0, cr0, [r0], {8}
    2470:	2d000007 	stccs	0, cr0, [r0, #-28]	; 0xffffffe4
    2474:	0000020e 	andeq	r0, r0, lr, lsl #4
    2478:	00001004 	andeq	r1, r0, r4
    247c:	99dc0305 	ldmibls	ip, {r0, r2, r8, r9}^
    2480:	08280000 	stmdaeq	r8!, {}	; <UNPREDICTABLE>
    2484:	4c000085 	stcmi	0, cr0, [r0], {133}	; 0x85
    2488:	e3000019 	movw	r0, #25
    248c:	29000018 	stmdbcs	r0, {r3, r4}
    2490:	03055001 	movweq	r5, #20481	; 0x5001
    2494:	000097b4 			; <UNDEFINED> instruction: 0x000097b4
    2498:	02510129 	subseq	r0, r1, #1073741834	; 0x4000000a
    249c:	01293808 			; <UNDEFINED> instruction: 0x01293808
    24a0:	80080252 	andhi	r0, r8, r2, asr r2
    24a4:	85242e00 	strhi	r2, [r4, #-3584]!	; 0xfffff200
    24a8:	19580000 	ldmdbne	r8, {}^	; <UNPREDICTABLE>
    24ac:	38280000 	stmdacc	r8!, {}	; <UNPREDICTABLE>
    24b0:	4c000085 	stcmi	0, cr0, [r0], {133}	; 0x85
    24b4:	1a000019 	bne	2520 <_start-0x5ae0>
    24b8:	29000019 	stmdbcs	r0, {r0, r3, r4}
    24bc:	03055001 	movweq	r5, #20481	; 0x5001
    24c0:	0000978c 	andeq	r9, r0, ip, lsl #15
    24c4:	05510129 	ldrbeq	r0, [r1, #-297]	; 0xfffffed7
    24c8:	00978003 	addseq	r8, r7, r3
    24cc:	52012900 	andpl	r2, r1, #0, 18
    24d0:	99dc0305 	ldmibls	ip, {r0, r2, r8, r9}^
    24d4:	01290000 			; <UNDEFINED> instruction: 0x01290000
    24d8:	003a0153 	eorseq	r0, sl, r3, asr r1
    24dc:	00853c2e 	addeq	r3, r5, lr, lsr #24
    24e0:	00196400 	andseq	r6, r9, r0, lsl #8
    24e4:	55380000 	ldrpl	r0, [r8, #-0]!
    24e8:	02000006 	andeq	r0, r0, #6
    24ec:	46031455 			; <UNDEFINED> instruction: 0x46031455
    24f0:	39000019 	stmdbcc	r0, {r0, r3, r4}
    24f4:	55020068 	strpl	r0, [r2, #-104]	; 0xffffff98
    24f8:	000c9a25 	andeq	r9, ip, r5, lsr #20
    24fc:	006c3a00 	rsbeq	r3, ip, r0, lsl #20
    2500:	46105702 	ldrmi	r5, [r0], -r2, lsl #14
    2504:	00000019 	andeq	r0, r0, r9, lsl r0
    2508:	09b30405 	ldmibeq	r3!, {r0, r2, sl}
    250c:	ff3b0000 			; <UNDEFINED> instruction: 0xff3b0000
    2510:	ff000006 			; <UNDEFINED> instruction: 0xff000006
    2514:	08000006 	stmdaeq	r0, {r1, r2}
    2518:	e93b0529 	ldmdb	fp!, {r0, r3, r5, r8, sl}
    251c:	e9000001 	stmdb	r0, {r0}
    2520:	08000001 	stmdaeq	r0, {r0}
    2524:	8d3b061e 	ldchi	6, cr0, [fp, #-120]!	; 0xffffff88
    2528:	8d000002 	stchi	0, cr0, [r0, #-8]
    252c:	08000002 	stmdaeq	r0, {r1}
    2530:	9a3b0665 	bls	ec3ecc <__bss_end__+0xeb9e9c>
    2534:	9a000004 	bls	254c <_start-0x5ab4>
    2538:	09000004 	stmdbeq	r0, {r2}
    253c:	4d3b0921 			; <UNDEFINED> instruction: 0x4d3b0921
    2540:	4d000005 	stcmi	0, cr0, [r0, #-20]	; 0xffffffec
    2544:	0a000005 	beq	2560 <_start-0x5aa0>
    2548:	fe000a05 	vseleq.f32	s0, s0, s10
    254c:	04000009 	streq	r0, [r0], #-9
    2550:	0005ac00 	andeq	sl, r5, r0, lsl #24
    2554:	ef010400 	svc	0x00010400
    2558:	0c000002 	stceq	0, cr0, [r0], {2}
    255c:	000006b5 			; <UNDEFINED> instruction: 0x000006b5
    2560:	000006c1 	andeq	r0, r0, r1, asr #13
    2564:	00008974 	andeq	r8, r0, r4, ror r9
    2568:	000000ec 	andeq	r0, r0, ip, ror #1
    256c:	00000891 	muleq	r0, r1, r8
    2570:	69050402 	stmdbvs	r5, {r1, sl}
    2574:	0300746e 	movweq	r7, #1134	; 0x46e
    2578:	00660704 	rsbeq	r0, r6, r4, lsl #14
    257c:	01030000 	mrseq	r0, (UNDEF: 3)
    2580:	0002de06 	andeq	sp, r2, r6, lsl #28
    2584:	05020300 	streq	r0, [r2, #-768]	; 0xfffffd00
    2588:	00000377 	andeq	r0, r0, r7, ror r3
    258c:	ac050403 	cfstrsge	mvf0, [r5], {3}
    2590:	03000000 	movweq	r0, #0
    2594:	00a70508 	adceq	r0, r7, r8, lsl #10
    2598:	86040000 	strhi	r0, [r4], -r0
    259c:	02000006 	andeq	r0, r0, #6
    25a0:	005b182e 	subseq	r1, fp, lr, lsr #16
    25a4:	01030000 	mrseq	r0, (UNDEF: 3)
    25a8:	0002dc08 	andeq	sp, r2, r8, lsl #24
    25ac:	07020300 	streq	r0, [r2, -r0, lsl #6]
    25b0:	00000222 	andeq	r0, r0, r2, lsr #4
    25b4:	00064404 	andeq	r4, r6, r4, lsl #8
    25b8:	19340200 	ldmdbne	r4!, {r9}
    25bc:	00000075 	andeq	r0, r0, r5, ror r0
    25c0:	61070403 	tstvs	r7, r3, lsl #8
    25c4:	03000000 	movweq	r0, #0
    25c8:	005c0708 	subseq	r0, ip, r8, lsl #14
    25cc:	65040000 	strvs	r0, [r4, #-0]
    25d0:	03000002 	movweq	r0, #2
    25d4:	008f1922 	addeq	r1, pc, r2, lsr #18
    25d8:	04050000 	streq	r0, [r5], #-0
    25dc:	00000095 	muleq	r0, r5, r0
    25e0:	00041d06 	andeq	r1, r4, r6, lsl #26
    25e4:	02bd0400 	adcseq	r0, sp, #0, 8
    25e8:	2c040000 	stccs	0, cr0, [r4], {-0}
    25ec:	0000410e 	andeq	r4, r0, lr, lsl #2
    25f0:	04320400 	ldrteq	r0, [r2], #-1024	; 0xfffffc00
    25f4:	72040000 	andvc	r0, r4, #0
    25f8:	0000410e 	andeq	r4, r0, lr, lsl #2
    25fc:	026d0700 	rsbeq	r0, sp, #0, 14
    2600:	5e050000 	cdppl	0, 0, cr0, cr5, cr0, {0}
    2604:	002c1701 	eoreq	r1, ip, r1, lsl #14
    2608:	04080000 	streq	r0, [r8], #-0
    260c:	e103a604 	tst	r3, r4, lsl #12
    2610:	09000000 	stmdbeq	r0, {}	; <UNPREDICTABLE>
    2614:	0000025f 	andeq	r0, r0, pc, asr r2
    2618:	b20ca804 	andlt	sl, ip, #4, 16	; 0x40000
    261c:	09000000 	stmdbeq	r0, {}	; <UNPREDICTABLE>
    2620:	000001e2 	andeq	r0, r0, r2, ror #3
    2624:	e113a904 	tst	r3, r4, lsl #18
    2628:	00000000 	andeq	r0, r0, r0
    262c:	00005b0a 	andeq	r5, r0, sl, lsl #22
    2630:	0000f100 	andeq	pc, r0, r0, lsl #2
    2634:	002c0b00 	eoreq	r0, ip, r0, lsl #22
    2638:	00030000 	andeq	r0, r3, r0
    263c:	a304080c 	movwge	r0, #18444	; 0x480c
    2640:	00011509 	andeq	r1, r1, r9, lsl #10
    2644:	04150d00 	ldreq	r0, [r5], #-3328	; 0xfffff300
    2648:	a5040000 	strge	r0, [r4, #-0]
    264c:	00002507 	andeq	r2, r0, r7, lsl #10
    2650:	240d0000 	strcs	r0, [sp], #-0
    2654:	04000004 	streq	r0, [r0], #-4
    2658:	00bf05aa 	adcseq	r0, pc, sl, lsr #11
    265c:	00040000 	andeq	r0, r4, r0
    2660:	00039f04 	andeq	r9, r3, r4, lsl #30
    2664:	03ab0400 			; <UNDEFINED> instruction: 0x03ab0400
    2668:	000000f1 	strdeq	r0, [r0], -r1
    266c:	00019f04 	andeq	r9, r1, r4, lsl #30
    2670:	1baf0400 	blne	febc3678 <__bss_end__+0xfebb9648>
    2674:	00000083 	andeq	r0, r0, r3, lsl #1
    2678:	0405040e 	streq	r0, [r5], #-1038	; 0xfffffbf2
    267c:	00000135 	andeq	r0, r0, r5, lsr r1
    2680:	e5080103 	str	r0, [r8, #-259]	; 0xfffffefd
    2684:	0f000002 	svceq	0x00000002
    2688:	00000135 	andeq	r0, r0, r5, lsr r1
    268c:	00046404 	andeq	r6, r4, r4, lsl #8
    2690:	19160600 	ldmdbne	r6, {r9, sl}
    2694:	00000075 	andeq	r0, r0, r5, ror r0
    2698:	0001b010 	andeq	fp, r1, r0, lsl r0
    269c:	2f061800 	svccs	0x00061800
    26a0:	0001a708 	andeq	sl, r1, r8, lsl #14
    26a4:	03c00d00 	biceq	r0, r0, #0, 26
    26a8:	31060000 	mrscc	r0, (UNDEF: 6)
    26ac:	0001a713 	andeq	sl, r1, r3, lsl r7
    26b0:	5f110000 	svcpl	0x00110000
    26b4:	3206006b 	andcc	r0, r6, #107	; 0x6b
    26b8:	00002507 	andeq	r2, r0, r7, lsl #10
    26bc:	000d0400 	andeq	r0, sp, r0, lsl #8
    26c0:	06000004 	streq	r0, [r0], -r4
    26c4:	00250b32 	eoreq	r0, r5, r2, lsr fp
    26c8:	0d080000 	stceq	0, cr0, [r8, #-0]
    26cc:	00000199 	muleq	r0, r9, r1
    26d0:	25143206 	ldrcs	r3, [r4, #-518]	; 0xfffffdfa
    26d4:	0c000000 	stceq	0, cr0, [r0], {-0}
    26d8:	0004ae0d 	andeq	sl, r4, sp, lsl #28
    26dc:	1b320600 	blne	c83ee4 <__bss_end__+0xc79eb4>
    26e0:	00000025 	andeq	r0, r0, r5, lsr #32
    26e4:	785f1110 	ldmdavc	pc, {r4, r8, ip}^	; <UNPREDICTABLE>
    26e8:	0b330600 	bleq	cc3ef0 <__bss_end__+0xcb9ec0>
    26ec:	000001ad 	andeq	r0, r0, sp, lsr #3
    26f0:	04050014 	streq	r0, [r5], #-20	; 0xffffffec
    26f4:	0000014d 	andeq	r0, r0, sp, asr #2
    26f8:	0001410a 	andeq	r4, r1, sl, lsl #2
    26fc:	0001bd00 	andeq	fp, r1, r0, lsl #26
    2700:	002c0b00 	eoreq	r0, ip, r0, lsl #22
    2704:	00000000 	andeq	r0, r0, r0
    2708:	0001dd10 	andeq	sp, r1, r0, lsl sp
    270c:	37062400 	strcc	r2, [r6, -r0, lsl #8]
    2710:	00024008 	andeq	r4, r2, r8
    2714:	009e0d00 	addseq	r0, lr, r0, lsl #26
    2718:	39060000 	stmdbcc	r6, {}	; <UNPREDICTABLE>
    271c:	00002509 	andeq	r2, r0, r9, lsl #10
    2720:	3a0d0000 	bcc	342728 <__bss_end__+0x3386f8>
    2724:	06000004 	streq	r0, [r0], -r4
    2728:	0025093a 	eoreq	r0, r5, sl, lsr r9
    272c:	0d040000 	stceq	0, cr0, [r4, #-0]
    2730:	000000c1 	andeq	r0, r0, r1, asr #1
    2734:	25093b06 	strcs	r3, [r9, #-2822]	; 0xfffff4fa
    2738:	08000000 	stmdaeq	r0, {}	; <UNPREDICTABLE>
    273c:	00052f0d 	andeq	r2, r5, sp, lsl #30
    2740:	093c0600 	ldmdbeq	ip!, {r9, sl}
    2744:	00000025 	andeq	r0, r0, r5, lsr #32
    2748:	02a10d0c 	adceq	r0, r1, #12, 26	; 0x300
    274c:	3d060000 	stccc	0, cr0, [r6, #-0]
    2750:	00002509 	andeq	r2, r0, r9, lsl #10
    2754:	830d1000 	movwhi	r1, #53248	; 0xd000
    2758:	06000002 	streq	r0, [r0], -r2
    275c:	0025093e 	eoreq	r0, r5, lr, lsr r9
    2760:	0d140000 	ldceq	0, cr0, [r4, #-0]
    2764:	000004b3 			; <UNDEFINED> instruction: 0x000004b3
    2768:	25093f06 	strcs	r3, [r9, #-3846]	; 0xfffff0fa
    276c:	18000000 	stmdane	r0, {}	; <UNPREDICTABLE>
    2770:	0003810d 	andeq	r8, r3, sp, lsl #2
    2774:	09400600 	stmdbeq	r0, {r9, sl}^
    2778:	00000025 	andeq	r0, r0, r5, lsr #32
    277c:	04f60d1c 	ldrbteq	r0, [r6], #3356	; 0xd1c
    2780:	41060000 	mrsmi	r0, (UNDEF: 6)
    2784:	00002509 	andeq	r2, r0, r9, lsl #10
    2788:	12002000 	andne	r2, r0, #0
    278c:	00000101 	andeq	r0, r0, r1, lsl #2
    2790:	4a060108 	bmi	182bb8 <__bss_end__+0x178b88>
    2794:	00028508 	andeq	r8, r2, r8, lsl #10
    2798:	018c0d00 	orreq	r0, ip, r0, lsl #26
    279c:	4b060000 	blmi	1827a4 <__bss_end__+0x178774>
    27a0:	0002850a 	andeq	r8, r2, sl, lsl #10
    27a4:	000d0000 	andeq	r0, sp, r0
    27a8:	06000000 	streq	r0, [r0], -r0
    27ac:	0285094c 	addeq	r0, r5, #76, 18	; 0x130000
    27b0:	13800000 	orrne	r0, r0, #0
    27b4:	00000456 	andeq	r0, r0, r6, asr r4
    27b8:	410a4e06 	tstmi	sl, r6, lsl #28
    27bc:	00000001 	andeq	r0, r0, r1
    27c0:	01261301 			; <UNDEFINED> instruction: 0x01261301
    27c4:	51060000 	mrspl	r0, (UNDEF: 6)
    27c8:	0001410a 	andeq	r4, r1, sl, lsl #2
    27cc:	00010400 	andeq	r0, r1, r0, lsl #8
    27d0:	00012d0a 	andeq	r2, r1, sl, lsl #26
    27d4:	00029500 	andeq	r9, r2, r0, lsl #10
    27d8:	002c0b00 	eoreq	r0, ip, r0, lsl #22
    27dc:	001f0000 	andseq	r0, pc, r0
    27e0:	0002aa12 	andeq	sl, r2, r2, lsl sl
    27e4:	06019000 	streq	r9, [r1], -r0
    27e8:	02d8085d 	sbcseq	r0, r8, #6094848	; 0x5d0000
    27ec:	c00d0000 	andgt	r0, sp, r0
    27f0:	06000003 	streq	r0, [r0], -r3
    27f4:	02d8125e 	sbcseq	r1, r8, #-536870907	; 0xe0000005
    27f8:	0d000000 	stceq	0, cr0, [r0, #-0]
    27fc:	000003d8 	ldrdeq	r0, [r0], -r8
    2800:	25065f06 	strcs	r5, [r6, #-3846]	; 0xfffff0fa
    2804:	04000000 	streq	r0, [r0], #-0
    2808:	0001940d 	andeq	r9, r1, sp, lsl #8
    280c:	09610600 	stmdbeq	r1!, {r9, sl}^
    2810:	000002de 	ldrdeq	r0, [r0], -lr
    2814:	01010d08 	tsteq	r1, r8, lsl #26
    2818:	62060000 	andvs	r0, r6, #0
    281c:	0002401e 	andeq	r4, r2, lr, lsl r0
    2820:	05008800 	streq	r8, [r0, #-2048]	; 0xfffff800
    2824:	00029504 	andeq	r9, r2, r4, lsl #10
    2828:	02ee0a00 	rsceq	r0, lr, #0, 20
    282c:	02ee0000 	rsceq	r0, lr, #0
    2830:	2c0b0000 	stccs	0, cr0, [fp], {-0}
    2834:	1f000000 	svcne	0x00000000
    2838:	f4040500 	vst3.8	{d0,d2,d4}, [r4], r0
    283c:	14000002 	strne	r0, [r0], #-2
    2840:	00038b10 	andeq	r8, r3, r0, lsl fp
    2844:	75060800 	strvc	r0, [r6, #-2048]	; 0xfffff800
    2848:	00031d08 	andeq	r1, r3, r8, lsl #26
    284c:	00bb0d00 	adcseq	r0, fp, r0, lsl #26
    2850:	76060000 	strvc	r0, [r6], -r0
    2854:	00031d11 	andeq	r1, r3, r1, lsl sp
    2858:	1b0d0000 	blne	342860 <__bss_end__+0x338830>
    285c:	06000000 	streq	r0, [r0], -r0
    2860:	00250677 	eoreq	r0, r5, r7, ror r6
    2864:	00040000 	andeq	r0, r4, r0
    2868:	005b0405 	subseq	r0, fp, r5, lsl #8
    286c:	aa100000 	bge	402874 <__bss_end__+0x3f8844>
    2870:	68000003 	stmdavs	r0, {r0, r1}
    2874:	6608b506 	strvs	fp, [r8], -r6, lsl #10
    2878:	11000004 	tstne	r0, r4
    287c:	0600705f 			; <UNDEFINED> instruction: 0x0600705f
    2880:	031d12b6 	tsteq	sp, #1610612747	; 0x6000000b
    2884:	11000000 	mrsne	r0, (UNDEF: 0)
    2888:	0600725f 			; <UNDEFINED> instruction: 0x0600725f
    288c:	002507b7 	strhteq	r0, [r5], -r7
    2890:	11040000 	mrsne	r0, (UNDEF: 4)
    2894:	0600775f 			; <UNDEFINED> instruction: 0x0600775f
    2898:	002507b8 	strhteq	r0, [r5], -r8
    289c:	0d080000 	stceq	0, cr0, [r8, #-0]
    28a0:	0000011f 	andeq	r0, r0, pc, lsl r1
    28a4:	3a09b906 	bcc	270cc4 <__bss_end__+0x266c94>
    28a8:	0c000000 	stceq	0, cr0, [r0], {-0}
    28ac:	0002080d 	andeq	r0, r2, sp, lsl #16
    28b0:	09ba0600 	ldmibeq	sl!, {r9, sl}
    28b4:	0000003a 	andeq	r0, r0, sl, lsr r0
    28b8:	625f110e 	subsvs	r1, pc, #-2147483645	; 0x80000003
    28bc:	bb060066 	bllt	182a5c <__bss_end__+0x178a2c>
    28c0:	0002f511 	andeq	pc, r2, r1, lsl r5	; <UNPREDICTABLE>
    28c4:	7b0d1000 	blvc	3468cc <__bss_end__+0x33c89c>
    28c8:	06000000 	streq	r0, [r0], -r0
    28cc:	002507bc 	strhteq	r0, [r5], -ip
    28d0:	0d180000 	ldceq	0, cr0, [r8, #-0]
    28d4:	0000010f 	andeq	r0, r0, pc, lsl #2
    28d8:	2d0ac306 	stccs	3, cr12, [sl, #-24]	; 0xffffffe8
    28dc:	1c000001 	stcne	0, cr0, [r0], {1}
    28e0:	000b240d 	andeq	r2, fp, sp, lsl #8
    28e4:	1dc50600 	stclne	6, cr0, [r5]
    28e8:	000005d8 	ldrdeq	r0, [r0], -r8
    28ec:	06190d20 	ldreq	r0, [r9], -r0, lsr #26
    28f0:	c7060000 	strgt	r0, [r6, -r0]
    28f4:	0006021d 	andeq	r0, r6, sp, lsl r2
    28f8:	2c0d2400 	cfstrscs	mvf2, [sp], {-0}
    28fc:	06000004 	streq	r0, [r0], -r4
    2900:	06260dca 	strteq	r0, [r6], -sl, asr #27
    2904:	0d280000 	stceq	0, cr0, [r8, #-0]
    2908:	00000510 	andeq	r0, r0, r0, lsl r5
    290c:	4009cb06 	andmi	ip, r9, r6, lsl #22
    2910:	2c000006 	stccs	0, cr0, [r0], {6}
    2914:	62755f11 	rsbsvs	r5, r5, #17, 30	; 0x44
    2918:	11ce0600 	bicne	r0, lr, r0, lsl #12
    291c:	000002f5 	strdeq	r0, [r0], -r5
    2920:	755f1130 	ldrbvc	r1, [pc, #-304]	; 27f8 <_start-0x5808>
    2924:	cf060070 	svcgt	0x00060070
    2928:	00031d12 	andeq	r1, r3, r2, lsl sp
    292c:	5f113800 	svcpl	0x00113800
    2930:	06007275 			; <UNDEFINED> instruction: 0x06007275
    2934:	002507d0 	ldrdeq	r0, [r5], -r0	; <UNPREDICTABLE>
    2938:	0d3c0000 	ldceq	0, cr0, [ip, #-0]
    293c:	000000b5 	strheq	r0, [r0], -r5
    2940:	4611d306 	ldrmi	sp, [r1], -r6, lsl #6
    2944:	40000006 	andmi	r0, r0, r6
    2948:	0004e80d 	andeq	lr, r4, sp, lsl #16
    294c:	11d40600 	bicsne	r0, r4, r0, lsl #12
    2950:	00000656 	andeq	r0, r0, r6, asr r6
    2954:	6c5f1143 	ldfvse	f1, [pc], {67}	; 0x43
    2958:	d7060062 	strle	r0, [r6, -r2, rrx]
    295c:	0002f511 	andeq	pc, r2, r1, lsl r5	; <UNPREDICTABLE>
    2960:	3d0d4400 	cfstrscc	mvf4, [sp, #-0]
    2964:	06000001 	streq	r0, [r0], -r1
    2968:	002507da 	ldrdeq	r0, [r5], -sl	; <UNPREDICTABLE>
    296c:	0d4c0000 	stcleq	0, cr0, [ip, #-0]
    2970:	0000014e 	andeq	r0, r0, lr, asr #2
    2974:	9a0adb06 	bls	2b9594 <__bss_end__+0x2af564>
    2978:	50000000 	andpl	r0, r0, r0
    297c:	000ac50d 	andeq	ip, sl, sp, lsl #10
    2980:	12de0600 	sbcsne	r0, lr, #0, 12
    2984:	00000484 	andeq	r0, r0, r4, lsl #9
    2988:	041e0d54 	ldreq	r0, [lr], #-3412	; 0xfffff2ac
    298c:	e2060000 	and	r0, r6, #0
    2990:	0001210c 	andeq	r2, r1, ip, lsl #2
    2994:	b20d5800 	andlt	r5, sp, #0, 16
    2998:	06000003 	streq	r0, [r0], -r3
    299c:	01150ee4 	tsteq	r5, r4, ror #29
    29a0:	0d5c0000 	ldcleq	0, cr0, [ip, #-0]
    29a4:	0000027b 	andeq	r0, r0, fp, ror r2
    29a8:	2509e506 	strcs	lr, [r9, #-1286]	; 0xfffffafa
    29ac:	64000000 	strvs	r0, [r0], #-0
    29b0:	00251500 	eoreq	r1, r5, r0, lsl #10
    29b4:	04840000 	streq	r0, [r4], #0
    29b8:	84160000 	ldrhi	r0, [r6], #-0
    29bc:	16000004 	strne	r0, [r0], -r4
    29c0:	0000012d 	andeq	r0, r0, sp, lsr #2
    29c4:	00012f16 	andeq	r2, r1, r6, lsl pc
    29c8:	00251600 	eoreq	r1, r5, r0, lsl #12
    29cc:	05000000 	streq	r0, [r0, #-0]
    29d0:	00048f04 	andeq	r8, r4, r4, lsl #30
    29d4:	04840f00 	streq	r0, [r4], #3840	; 0xf00
    29d8:	08170000 	ldmdaeq	r7, {}	; <UNPREDICTABLE>
    29dc:	28000004 	stmdacs	r0, {r2}
    29e0:	02600604 	rsbeq	r0, r0, #4, 12	; 0x400000
    29e4:	0005d808 	andeq	sp, r5, r8, lsl #16
    29e8:	03701800 	cmneq	r0, #0, 16
    29ec:	62060000 	andvs	r0, r6, #0
    29f0:	00250702 	eoreq	r0, r5, r2, lsl #14
    29f4:	18000000 	stmdane	r0, {}	; <UNPREDICTABLE>
    29f8:	0000012e 	andeq	r0, r0, lr, lsr #2
    29fc:	0b026706 	bleq	9c61c <__bss_end__+0x925ec>
    2a00:	000006b2 			; <UNDEFINED> instruction: 0x000006b2
    2a04:	01f81804 	mvnseq	r1, r4, lsl #16
    2a08:	67060000 	strvs	r0, [r6, -r0]
    2a0c:	06b21402 	ldrteq	r1, [r2], r2, lsl #8
    2a10:	18080000 	stmdane	r8, {}	; <UNPREDICTABLE>
    2a14:	000001a8 	andeq	r0, r0, r8, lsr #3
    2a18:	1e026706 	cdpne	7, 0, cr6, cr2, cr6, {0}
    2a1c:	000006b2 			; <UNDEFINED> instruction: 0x000006b2
    2a20:	03d3180c 	bicseq	r1, r3, #12, 16	; 0xc0000
    2a24:	69060000 	stmdbvs	r6, {}	; <UNPREDICTABLE>
    2a28:	00250802 	eoreq	r0, r5, r2, lsl #16
    2a2c:	18100000 	ldmdane	r0, {}	; <UNPREDICTABLE>
    2a30:	00000029 	andeq	r0, r0, r9, lsr #32
    2a34:	08026a06 	stmdaeq	r2, {r1, r2, r9, fp, sp, lr}
    2a38:	000008b2 			; <UNDEFINED> instruction: 0x000008b2
    2a3c:	03e71814 	mvneq	r1, #20, 16	; 0x140000
    2a40:	6d060000 	stcvs	0, cr0, [r6, #-0]
    2a44:	00250702 	eoreq	r0, r5, r2, lsl #14
    2a48:	18300000 	ldmdane	r0!, {}	; <UNPREDICTABLE>
    2a4c:	00000a01 	andeq	r0, r0, r1, lsl #20
    2a50:	16026e06 	strne	r6, [r2], -r6, lsl #28
    2a54:	000008c7 	andeq	r0, r0, r7, asr #17
    2a58:	02b21834 	adcseq	r1, r2, #52, 16	; 0x340000
    2a5c:	70060000 	andvc	r0, r6, r0
    2a60:	00250702 	eoreq	r0, r5, r2, lsl #14
    2a64:	18380000 	ldmdane	r8!, {}	; <UNPREDICTABLE>
    2a68:	000003dd 	ldrdeq	r0, [r0], -sp
    2a6c:	0a027206 	beq	9f28c <__bss_end__+0x9525c>
    2a70:	000008d8 	ldrdeq	r0, [r0], -r8
    2a74:	0257183c 	subseq	r1, r7, #60, 16	; 0x3c0000
    2a78:	75060000 	strvc	r0, [r6, #-0]
    2a7c:	01a71302 			; <UNDEFINED> instruction: 0x01a71302
    2a80:	18400000 	stmdane	r0, {}^	; <UNPREDICTABLE>
    2a84:	000001c7 	andeq	r0, r0, r7, asr #3
    2a88:	07027606 	streq	r7, [r2, -r6, lsl #12]
    2a8c:	00000025 	andeq	r0, r0, r5, lsr #32
    2a90:	052a1844 	streq	r1, [sl, #-2116]!	; 0xfffff7bc
    2a94:	77060000 	strvc	r0, [r6, -r0]
    2a98:	01a71302 			; <UNDEFINED> instruction: 0x01a71302
    2a9c:	18480000 	stmdane	r8, {}^	; <UNPREDICTABLE>
    2aa0:	000002c4 	andeq	r0, r0, r4, asr #5
    2aa4:	14027806 	strne	r7, [r2], #-2054	; 0xfffff7fa
    2aa8:	000008de 	ldrdeq	r0, [r0], -lr
    2aac:	0200184c 	andeq	r1, r0, #76, 16	; 0x4c0000
    2ab0:	7b060000 	blvc	182ab8 <__bss_end__+0x178a88>
    2ab4:	00250702 	eoreq	r0, r5, r2, lsl #14
    2ab8:	18500000 	ldmdane	r0, {}^	; <UNPREDICTABLE>
    2abc:	00000146 	andeq	r0, r0, r6, asr #2
    2ac0:	09027c06 	stmdbeq	r2, {r1, r2, sl, fp, ip, sp, lr}
    2ac4:	0000012f 	andeq	r0, r0, pc, lsr #2
    2ac8:	02ea1854 	rsceq	r1, sl, #84, 16	; 0x540000
    2acc:	9f060000 	svcls	0x00060000
    2ad0:	088d0702 	stmeq	sp, {r1, r8, r9, sl}
    2ad4:	19580000 	ldmdbne	r8, {}^	; <UNPREDICTABLE>
    2ad8:	000002aa 	andeq	r0, r0, sl, lsr #5
    2adc:	1302a306 	movwne	sl, #8966	; 0x2306
    2ae0:	000002d8 	ldrdeq	r0, [r0], -r8
    2ae4:	35190148 	ldrcc	r0, [r9, #-328]	; 0xfffffeb8
    2ae8:	06000002 	streq	r0, [r0], -r2
    2aec:	951202a4 	ldrls	r0, [r2, #-676]	; 0xfffffd5c
    2af0:	4c000002 	stcmi	0, cr0, [r0], {2}
    2af4:	04d61901 	ldrbeq	r1, [r6], #2305	; 0x901
    2af8:	a8060000 	stmdage	r6, {}	; <UNPREDICTABLE>
    2afc:	08ef0c02 	stmiaeq	pc!, {r1, sl, fp}^	; <UNPREDICTABLE>
    2b00:	02dc0000 	sbcseq	r0, ip, #0
    2b04:	00011719 	andeq	r1, r1, r9, lsl r7
    2b08:	02ad0600 	adceq	r0, sp, #0, 12
    2b0c:	00067310 	andeq	r7, r6, r0, lsl r3
    2b10:	1902e000 	stmdbne	r2, {sp, lr, pc}
    2b14:	000000fc 	strdeq	r0, [r0], -ip
    2b18:	0a02af06 	beq	ae738 <__bss_end__+0xa4708>
    2b1c:	000008fb 	strdeq	r0, [r0], -fp
    2b20:	050002ec 	streq	r0, [r0, #-748]	; 0xfffffd14
    2b24:	00046604 	andeq	r6, r4, r4, lsl #12
    2b28:	00251500 	eoreq	r1, r5, r0, lsl #10
    2b2c:	05fc0000 	ldrbeq	r0, [ip, #0]!
    2b30:	84160000 	ldrhi	r0, [r6], #-0
    2b34:	16000004 	strne	r0, [r0], -r4
    2b38:	0000012d 	andeq	r0, r0, sp, lsr #2
    2b3c:	0005fc16 	andeq	pc, r5, r6, lsl ip	; <UNPREDICTABLE>
    2b40:	00251600 	eoreq	r1, r5, r0, lsl #12
    2b44:	05000000 	streq	r0, [r0, #-0]
    2b48:	00013c04 	andeq	r3, r1, r4, lsl #24
    2b4c:	de040500 	cfsh32le	mvfx0, mvfx4, #0
    2b50:	15000005 	strne	r0, [r0, #-5]
    2b54:	000000a6 	andeq	r0, r0, r6, lsr #1
    2b58:	00000626 	andeq	r0, r0, r6, lsr #12
    2b5c:	00048416 	andeq	r8, r4, r6, lsl r4
    2b60:	012d1600 			; <UNDEFINED> instruction: 0x012d1600
    2b64:	a6160000 	ldrge	r0, [r6], -r0
    2b68:	16000000 	strne	r0, [r0], -r0
    2b6c:	00000025 	andeq	r0, r0, r5, lsr #32
    2b70:	08040500 	stmdaeq	r4, {r8, sl}
    2b74:	15000006 	strne	r0, [r0, #-6]
    2b78:	00000025 	andeq	r0, r0, r5, lsr #32
    2b7c:	00000640 	andeq	r0, r0, r0, asr #12
    2b80:	00048416 	andeq	r8, r4, r6, lsl r4
    2b84:	012d1600 			; <UNDEFINED> instruction: 0x012d1600
    2b88:	05000000 	streq	r0, [r0, #-0]
    2b8c:	00062c04 	andeq	r2, r6, r4, lsl #24
    2b90:	005b0a00 	subseq	r0, fp, r0, lsl #20
    2b94:	06560000 	ldrbeq	r0, [r6], -r0
    2b98:	2c0b0000 	stccs	0, cr0, [fp], {-0}
    2b9c:	02000000 	andeq	r0, r0, #0
    2ba0:	005b0a00 	subseq	r0, fp, r0, lsl #20
    2ba4:	06660000 	strbteq	r0, [r6], -r0
    2ba8:	2c0b0000 	stccs	0, cr0, [fp], {-0}
    2bac:	00000000 	andeq	r0, r0, r0
    2bb0:	03980700 	orrseq	r0, r8, #0, 14
    2bb4:	1f060000 	svcne	0x00060000
    2bb8:	03231a01 			; <UNDEFINED> instruction: 0x03231a01
    2bbc:	bd1a0000 	ldclt	0, cr0, [sl, #-0]
    2bc0:	0c000004 	stceq	0, cr0, [r0], {4}
    2bc4:	08012306 	stmdaeq	r1, {r1, r2, r8, r9, sp}
    2bc8:	000006ac 	andeq	r0, r0, ip, lsr #13
    2bcc:	0003c018 	andeq	ip, r3, r8, lsl r0
    2bd0:	01250600 			; <UNDEFINED> instruction: 0x01250600
    2bd4:	0006ac11 	andeq	sl, r6, r1, lsl ip
    2bd8:	1b180000 	blne	602be0 <__bss_end__+0x5f8bb0>
    2bdc:	06000002 	streq	r0, [r0], -r2
    2be0:	25070126 	strcs	r0, [r7, #-294]	; 0xfffffeda
    2be4:	04000000 	streq	r0, [r0], #-0
    2be8:	00039218 	andeq	r9, r3, r8, lsl r2
    2bec:	01270600 			; <UNDEFINED> instruction: 0x01270600
    2bf0:	0006b20b 	andeq	fp, r6, fp, lsl #4
    2bf4:	05000800 	streq	r0, [r0, #-2048]	; 0xfffff800
    2bf8:	00067304 	andeq	r7, r6, r4, lsl #6
    2bfc:	66040500 	strvs	r0, [r4], -r0, lsl #10
    2c00:	1a000006 	bne	2c20 <_start-0x53e0>
    2c04:	00000021 	andeq	r0, r0, r1, lsr #32
    2c08:	013f060e 	teqeq	pc, lr, lsl #12
    2c0c:	0006f108 	andeq	pc, r6, r8, lsl #2
    2c10:	040f1800 	streq	r1, [pc], #-2048	; 2c18 <_start-0x53e8>
    2c14:	40060000 	andmi	r0, r6, r0
    2c18:	06f11201 	ldrbteq	r1, [r1], r1, lsl #4
    2c1c:	18000000 	stmdane	r0, {}	; <UNPREDICTABLE>
    2c20:	00000443 	andeq	r0, r0, r3, asr #8
    2c24:	12014106 	andne	r4, r1, #-2147483647	; 0x80000001
    2c28:	000006f1 	strdeq	r0, [r0], -r1
    2c2c:	045f1806 	ldrbeq	r1, [pc], #-2054	; 2c34 <_start-0x53cc>
    2c30:	42060000 	andmi	r0, r6, #0
    2c34:	00621201 	rsbeq	r1, r2, r1, lsl #4
    2c38:	000c0000 	andeq	r0, ip, r0
    2c3c:	0000620a 	andeq	r6, r0, sl, lsl #4
    2c40:	00070100 	andeq	r0, r7, r0, lsl #2
    2c44:	002c0b00 	eoreq	r0, ip, r0, lsl #22
    2c48:	00020000 	andeq	r0, r2, r0
    2c4c:	8006d01b 	andhi	sp, r6, fp, lsl r0
    2c50:	08160702 	ldmdaeq	r6, {r1, r8, r9, sl}
    2c54:	a1180000 	tstge	r8, r0
    2c58:	06000004 	streq	r0, [r0], -r4
    2c5c:	2c180282 	lfmcs	f0, 4, [r8], {130}	; 0x82
    2c60:	00000000 	andeq	r0, r0, r0
    2c64:	00044918 	andeq	r4, r4, r8, lsl r9
    2c68:	02830600 	addeq	r0, r3, #0, 12
    2c6c:	00012f12 	andeq	r2, r1, r2, lsl pc
    2c70:	4a180400 	bmi	603c78 <__bss_end__+0x5f9c48>
    2c74:	06000002 	streq	r0, [r0], -r2
    2c78:	16100284 	ldrne	r0, [r0], -r4, lsl #5
    2c7c:	08000008 	stmdaeq	r0, {r3}
    2c80:	00050118 	andeq	r0, r5, r8, lsl r1
    2c84:	02850600 	addeq	r0, r5, #0, 12
    2c88:	0001bd17 	andeq	fp, r1, r7, lsl sp
    2c8c:	b8182400 	ldmdalt	r8, {sl, sp}
    2c90:	06000001 	streq	r0, [r0], -r1
    2c94:	250f0286 	strcs	r0, [pc, #-646]	; 2a16 <_start-0x55ea>
    2c98:	48000000 	stmdami	r0, {}	; <UNPREDICTABLE>
    2c9c:	0003bb18 	andeq	fp, r3, r8, lsl fp
    2ca0:	02870600 	addeq	r0, r7, #0, 12
    2ca4:	00007c2c 	andeq	r7, r0, ip, lsr #24
    2ca8:	17185000 	ldrne	r5, [r8, -r0]
    2cac:	06000005 	streq	r0, [r0], -r5
    2cb0:	b81a0288 	ldmdalt	sl, {r3, r7, r9}
    2cb4:	58000006 	stmdapl	r0, {r1, r2}
    2cb8:	0003c618 	andeq	ip, r3, r8, lsl r6
    2cbc:	02890600 	addeq	r0, r9, #0, 12
    2cc0:	00011516 	andeq	r1, r1, r6, lsl r5
    2cc4:	1c186800 	ldcne	8, cr6, [r8], {-0}
    2cc8:	06000005 	streq	r0, [r0], -r5
    2ccc:	1516028a 	ldrne	r0, [r6, #-650]	; 0xfffffd76
    2cd0:	70000001 	andvc	r0, r0, r1
    2cd4:	0002ce18 	andeq	ip, r2, r8, lsl lr
    2cd8:	028b0600 	addeq	r0, fp, #0, 12
    2cdc:	00011516 	andeq	r1, r1, r6, lsl r5
    2ce0:	cc187800 	ldcgt	8, cr7, [r8], {-0}
    2ce4:	06000004 	streq	r0, [r0], -r4
    2ce8:	2610028c 	ldrcs	r0, [r0], -ip, lsl #5
    2cec:	80000008 	andhi	r0, r0, r8
    2cf0:	00023e18 	andeq	r3, r2, r8, lsl lr
    2cf4:	028d0600 	addeq	r0, sp, #0, 12
    2cf8:	00083610 	andeq	r3, r8, r0, lsl r6
    2cfc:	6c188800 	ldcvs	8, cr8, [r8], {-0}
    2d00:	06000004 	streq	r0, [r0], -r4
    2d04:	250f028e 	strcs	r0, [pc, #-654]	; 2a7e <_start-0x5582>
    2d08:	a0000000 	andge	r0, r0, r0
    2d0c:	00017e18 	andeq	r7, r1, r8, lsl lr
    2d10:	028f0600 	addeq	r0, pc, #0, 12
    2d14:	00011516 	andeq	r1, r1, r6, lsl r5
    2d18:	8f18a400 	svchi	0x0018a400
    2d1c:	06000000 	streq	r0, [r0], -r0
    2d20:	15160290 	ldrne	r0, [r6, #-656]	; 0xfffffd70
    2d24:	ac000001 	stcge	0, cr0, [r0], {1}
    2d28:	00016d18 	andeq	r6, r1, r8, lsl sp
    2d2c:	02910600 	addseq	r0, r1, #0, 12
    2d30:	00011516 	andeq	r1, r1, r6, lsl r5
    2d34:	3c18b400 	cfldrscc	mvf11, [r8], {-0}
    2d38:	06000000 	streq	r0, [r0], -r0
    2d3c:	15160292 	ldrne	r0, [r6, #-658]	; 0xfffffd6e
    2d40:	bc000001 	stclt	0, cr0, [r0], {1}
    2d44:	00004b18 	andeq	r4, r0, r8, lsl fp
    2d48:	02930600 	addseq	r0, r3, #0, 12
    2d4c:	00011516 	andeq	r1, r1, r6, lsl r5
    2d50:	6e18c400 	cfmulsvs	mvf12, mvf8, mvf0
    2d54:	06000003 	streq	r0, [r0], -r3
    2d58:	25080294 	strcs	r0, [r8, #-660]	; 0xfffffd6c
    2d5c:	cc000000 	stcgt	0, cr0, [r0], {-0}
    2d60:	01350a00 	teqeq	r5, r0, lsl #20
    2d64:	08260000 	stmdaeq	r6!, {}	; <UNPREDICTABLE>
    2d68:	2c0b0000 	stccs	0, cr0, [fp], {-0}
    2d6c:	19000000 	stmdbne	r0, {}	; <UNPREDICTABLE>
    2d70:	01350a00 	teqeq	r5, r0, lsl #20
    2d74:	08360000 	ldmdaeq	r6!, {}	; <UNPREDICTABLE>
    2d78:	2c0b0000 	stccs	0, cr0, [fp], {-0}
    2d7c:	07000000 	streq	r0, [r0, -r0]
    2d80:	01350a00 	teqeq	r5, r0, lsl #20
    2d84:	08460000 	stmdaeq	r6, {}^	; <UNPREDICTABLE>
    2d88:	2c0b0000 	stccs	0, cr0, [fp], {-0}
    2d8c:	17000000 	strne	r0, [r0, -r0]
    2d90:	06f01b00 	ldrbteq	r1, [r0], r0, lsl #22
    2d94:	6d070299 	sfmvs	f0, 4, [r7, #-612]	; 0xfffffd9c
    2d98:	18000008 	stmdane	r0, {r3}
    2d9c:	0000029a 	muleq	r0, sl, r2
    2da0:	1b029c06 	blne	a9dc0 <__bss_end__+0x9fd90>
    2da4:	0000086d 	andeq	r0, r0, sp, ror #16
    2da8:	04c31800 	strbeq	r1, [r3], #2048	; 0x800
    2dac:	9d060000 	stcls	0, cr0, [r6, #-0]
    2db0:	087d1802 	ldmdaeq	sp!, {r1, fp, ip}^
    2db4:	00780000 	rsbseq	r0, r8, r0
    2db8:	00031d0a 	andeq	r1, r3, sl, lsl #26
    2dbc:	00087d00 	andeq	r7, r8, r0, lsl #26
    2dc0:	002c0b00 	eoreq	r0, ip, r0, lsl #22
    2dc4:	001d0000 	andseq	r0, sp, r0
    2dc8:	00002c0a 	andeq	r2, r0, sl, lsl #24
    2dcc:	00088d00 	andeq	r8, r8, r0, lsl #26
    2dd0:	002c0b00 	eoreq	r0, ip, r0, lsl #22
    2dd4:	001d0000 	andseq	r0, sp, r0
    2dd8:	7e06f01c 	mcrvc	0, 0, pc, cr6, cr12, {0}	; <UNPREDICTABLE>
    2ddc:	08b20302 	ldmeq	r2!, {r1, r8, r9}
    2de0:	081d0000 	ldmdaeq	sp, {}	; <UNPREDICTABLE>
    2de4:	06000004 	streq	r0, [r0], -r4
    2de8:	010b0295 			; <UNDEFINED> instruction: 0x010b0295
    2dec:	1d000007 	stcne	0, cr0, [r0, #-28]	; 0xffffffe4
    2df0:	000004ee 	andeq	r0, r0, lr, ror #9
    2df4:	0b029e06 	bleq	aa614 <__bss_end__+0xa05e4>
    2df8:	00000846 	andeq	r0, r0, r6, asr #16
    2dfc:	01350a00 	teqeq	r5, r0, lsl #20
    2e00:	08c20000 	stmiaeq	r2, {}^	; <UNPREDICTABLE>
    2e04:	2c0b0000 	stccs	0, cr0, [fp], {-0}
    2e08:	18000000 	stmdane	r0, {}	; <UNPREDICTABLE>
    2e0c:	00840600 	addeq	r0, r4, r0, lsl #12
    2e10:	04050000 	streq	r0, [r5], #-0
    2e14:	000008c2 	andeq	r0, r0, r2, asr #17
    2e18:	0008d81e 	andeq	sp, r8, lr, lsl r8
    2e1c:	04841600 	streq	r1, [r4], #1536	; 0x600
    2e20:	05000000 	streq	r0, [r0, #-0]
    2e24:	0008cd04 	andeq	ip, r8, r4, lsl #26
    2e28:	a7040500 	strge	r0, [r4, -r0, lsl #10]
    2e2c:	1e000001 	cdpne	0, 0, cr0, cr0, cr1, {0}
    2e30:	000008ef 	andeq	r0, r0, pc, ror #17
    2e34:	00002516 	andeq	r2, r0, r6, lsl r5
    2e38:	04050000 	streq	r0, [r5], #-0
    2e3c:	000008f5 	strdeq	r0, [r0], -r5
    2e40:	08e40405 	stmiaeq	r4!, {r0, r2, sl}^
    2e44:	660a0000 	strvs	r0, [sl], -r0
    2e48:	0b000006 	bleq	2e68 <_start-0x5198>
    2e4c:	0b000009 	bleq	2e78 <_start-0x5188>
    2e50:	0000002c 	andeq	r0, r0, ip, lsr #32
    2e54:	8e1f0002 	cdphi	0, 1, cr0, cr15, cr2, {0}
    2e58:	06000004 	streq	r0, [r0], -r4
    2e5c:	8417032e 	ldrhi	r0, [r7], #-814	; 0xfffffcd2
    2e60:	1f000004 	svcne	0x00000004
    2e64:	00000487 	andeq	r0, r0, r7, lsl #9
    2e68:	1d032f06 	stcne	15, cr2, [r3, #-24]	; 0xffffffe8
    2e6c:	0000048a 	andeq	r0, r0, sl, lsl #9
    2e70:	00002515 	andeq	r2, r0, r5, lsl r5
    2e74:	00093400 	andeq	r3, r9, r0, lsl #8
    2e78:	00251600 	eoreq	r1, r5, r0, lsl #12
    2e7c:	20000000 	andcs	r0, r0, r0
    2e80:	000001d1 	ldrdeq	r0, [r0], -r1
    2e84:	400e1d07 	andmi	r1, lr, r7, lsl #26
    2e88:	05000009 	streq	r0, [r0, #-9]
    2e8c:	00092504 	andeq	r2, r9, r4, lsl #10
    2e90:	00251500 	eoreq	r1, r5, r0, lsl #10
    2e94:	09550000 	ldmdbeq	r5, {}^	; <UNPREDICTABLE>
    2e98:	fc160000 	ldc2	0, cr0, [r6], {-0}
    2e9c:	00000005 	andeq	r0, r0, r5
    2ea0:	00076820 	andeq	r6, r7, r0, lsr #16
    2ea4:	0e220700 	cdpeq	7, 2, cr0, cr2, cr0, {0}
    2ea8:	00000961 	andeq	r0, r0, r1, ror #18
    2eac:	09460405 	stmdbeq	r6, {r0, r2, sl}^
    2eb0:	4d210000 	stcmi	0, cr0, [r1, #-0]
    2eb4:	01000005 	tsteq	r0, r5
    2eb8:	00690a0f 	rsbeq	r0, r9, pc, lsl #20
    2ebc:	89740000 	ldmdbhi	r4!, {}^	; <UNPREDICTABLE>
    2ec0:	00ec0000 	rsceq	r0, ip, r0
    2ec4:	9c010000 	stcls	0, cr0, [r1], {-0}
    2ec8:	000009fa 	strdeq	r0, [r0], -sl
    2ecc:	000ac522 	andeq	ip, sl, r2, lsr #10
    2ed0:	210f0100 	mrscs	r0, (UNDEF: 31)
    2ed4:	000009fa 	strdeq	r0, [r0], -sl
    2ed8:	00000843 	andeq	r0, r0, r3, asr #16
    2edc:	0000083b 	andeq	r0, r0, fp, lsr r8
    2ee0:	6e656c23 	cdpvs	12, 6, cr6, cr5, cr3, {1}
    2ee4:	2c0f0100 	stfcss	f0, [pc], {-0}
    2ee8:	00000025 	andeq	r0, r0, r5, lsr #32
    2eec:	00000887 	andeq	r0, r0, r7, lsl #17
    2ef0:	0000087d 	andeq	r0, r0, sp, ror r8
    2ef4:	000ac624 	andeq	ip, sl, r4, lsr #12
    2ef8:	12100100 	andsne	r0, r0, #0, 2
    2efc:	000005fc 	strdeq	r0, [r0], -ip
    2f00:	000008ce 	andeq	r0, r0, lr, asr #17
    2f04:	000008c6 	andeq	r0, r0, r6, asr #17
    2f08:	00055224 	andeq	r5, r5, r4, lsr #4
    2f0c:	0a110100 	beq	443314 <__bss_end__+0x4392e4>
    2f10:	00000069 	andeq	r0, r0, r9, rrx
    2f14:	00000913 	andeq	r0, r0, r3, lsl r9
    2f18:	00000905 	andeq	r0, r0, r5, lsl #18
    2f1c:	706d7425 	rsbvc	r7, sp, r5, lsr #8
    2f20:	16110100 	ldrne	r0, [r1], -r0, lsl #2
    2f24:	00000069 	andeq	r0, r0, r9, rrx
    2f28:	0000096e 	andeq	r0, r0, lr, ror #18
    2f2c:	00000968 	andeq	r0, r0, r8, ror #18
    2f30:	6d657225 	sfmvs	f7, 2, [r5, #-148]!	; 0xffffff6c
    2f34:	05120100 	ldreq	r0, [r2, #-256]	; 0xffffff00
    2f38:	00000025 	andeq	r0, r0, r5, lsr #32
    2f3c:	000009bb 			; <UNDEFINED> instruction: 0x000009bb
    2f40:	000009b9 			; <UNDEFINED> instruction: 0x000009b9
    2f44:	00040500 	andeq	r0, r4, r0, lsl #10
    2f48:	2600000a 	strcs	r0, [r0], -sl
    2f4c:	00097c00 	andeq	r7, r9, r0, lsl #24
    2f50:	d4000400 	strle	r0, [r0], #-1024	; 0xfffffc00
    2f54:	04000007 	streq	r0, [r0], #-7
    2f58:	0002ef01 	andeq	lr, r2, r1, lsl #30
    2f5c:	06e40c00 	strbteq	r0, [r4], r0, lsl #24
    2f60:	06c10000 	strbeq	r0, [r1], r0
    2f64:	8a600000 	bhi	1802f6c <__bss_end__+0x17f8f3c>
    2f68:	00180000 	andseq	r0, r8, r0
    2f6c:	0ad10000 	beq	ff442f74 <__bss_end__+0xff438f44>
    2f70:	04020000 	streq	r0, [r2], #-0
    2f74:	746e6905 	strbtvc	r6, [lr], #-2309	; 0xfffff6fb
    2f78:	06dd0300 	ldrbeq	r0, [sp], r0, lsl #6
    2f7c:	d1020000 	mrsle	r0, (UNDEF: 2)
    2f80:	00003817 	andeq	r3, r0, r7, lsl r8
    2f84:	07040400 	streq	r0, [r4, -r0, lsl #8]
    2f88:	00000066 	andeq	r0, r0, r6, rrx
    2f8c:	de060104 	adfles	f0, f6, f4
    2f90:	04000002 	streq	r0, [r0], #-2
    2f94:	02dc0801 	sbcseq	r0, ip, #65536	; 0x10000
    2f98:	02040000 	andeq	r0, r4, #0
    2f9c:	00037705 	andeq	r7, r3, r5, lsl #14
    2fa0:	07020400 	streq	r0, [r2, -r0, lsl #8]
    2fa4:	00000222 	andeq	r0, r0, r2, lsr #4
    2fa8:	ac050404 	cfstrsge	mvf0, [r5], {4}
    2fac:	04000000 	streq	r0, [r0], #-0
    2fb0:	00610704 	rsbeq	r0, r1, r4, lsl #14
    2fb4:	08040000 	stmdaeq	r4, {}	; <UNPREDICTABLE>
    2fb8:	0000a705 	andeq	sl, r0, r5, lsl #14
    2fbc:	07080400 	streq	r0, [r8, -r0, lsl #8]
    2fc0:	0000005c 	andeq	r0, r0, ip, asr r0
    2fc4:	00026503 	andeq	r6, r2, r3, lsl #10
    2fc8:	19220300 	stmdbne	r2!, {r8, r9}
    2fcc:	00000083 	andeq	r0, r0, r3, lsl #1
    2fd0:	00890405 	addeq	r0, r9, r5, lsl #8
    2fd4:	1d060000 	stcne	0, cr0, [r6, #-0]
    2fd8:	03000004 	movweq	r0, #4
    2fdc:	000002bd 			; <UNDEFINED> instruction: 0x000002bd
    2fe0:	5b0e2c04 	blpl	38dff8 <__bss_end__+0x383fc8>
    2fe4:	03000000 	movweq	r0, #0
    2fe8:	00000432 	andeq	r0, r0, r2, lsr r4
    2fec:	5b0e7204 	blpl	39f804 <__bss_end__+0x3957d4>
    2ff0:	07000000 	streq	r0, [r0, -r0]
    2ff4:	0000026d 	andeq	r0, r0, sp, ror #4
    2ff8:	17015e02 	strne	r5, [r1, -r2, lsl #28]
    2ffc:	00000038 	andeq	r0, r0, r8, lsr r0
    3000:	a6040408 	strge	r0, [r4], -r8, lsl #8
    3004:	0000d503 	andeq	sp, r0, r3, lsl #10
    3008:	025f0900 	subseq	r0, pc, #0, 18
    300c:	a8040000 	stmdage	r4, {}	; <UNPREDICTABLE>
    3010:	0000a60c 	andeq	sl, r0, ip, lsl #12
    3014:	01e20900 	mvneq	r0, r0, lsl #18
    3018:	a9040000 	stmdbge	r4, {}	; <UNPREDICTABLE>
    301c:	0000d513 	andeq	sp, r0, r3, lsl r5
    3020:	460a0000 	strmi	r0, [sl], -r0
    3024:	e5000000 	str	r0, [r0, #-0]
    3028:	0b000000 	bleq	3030 <_start-0x4fd0>
    302c:	00000038 	andeq	r0, r0, r8, lsr r0
    3030:	080c0003 	stmdaeq	ip, {r0, r1}
    3034:	0909a304 	stmdbeq	r9, {r2, r8, r9, sp, pc}
    3038:	0d000001 	stceq	0, cr0, [r0, #-4]
    303c:	00000415 	andeq	r0, r0, r5, lsl r4
    3040:	2507a504 	strcs	sl, [r7, #-1284]	; 0xfffffafc
    3044:	00000000 	andeq	r0, r0, r0
    3048:	0004240d 	andeq	r2, r4, sp, lsl #8
    304c:	05aa0400 	streq	r0, [sl, #1024]!	; 0x400
    3050:	000000b3 	strheq	r0, [r0], -r3
    3054:	9f030004 	svcls	0x00030004
    3058:	04000003 	streq	r0, [r0], #-3
    305c:	00e503ab 	rsceq	r0, r5, fp, lsr #7
    3060:	9f030000 	svcls	0x00030000
    3064:	04000001 	streq	r0, [r0], #-1
    3068:	00771baf 	rsbseq	r1, r7, pc, lsr #23
    306c:	040e0000 	streq	r0, [lr], #-0
    3070:	01290405 			; <UNDEFINED> instruction: 0x01290405
    3074:	01040000 	mrseq	r0, (UNDEF: 4)
    3078:	0002e508 	andeq	lr, r2, r8, lsl #10
    307c:	01290f00 			; <UNDEFINED> instruction: 0x01290f00
    3080:	64030000 	strvs	r0, [r3], #-0
    3084:	05000004 	streq	r0, [r0, #-4]
    3088:	00621916 	rsbeq	r1, r2, r6, lsl r9
    308c:	b0100000 	andslt	r0, r0, r0
    3090:	18000001 	stmdane	r0, {r0}
    3094:	9b082f05 	blls	20ecb0 <__bss_end__+0x204c80>
    3098:	0d000001 	stceq	0, cr0, [r0, #-4]
    309c:	000003c0 	andeq	r0, r0, r0, asr #7
    30a0:	9b133105 	blls	4cf4bc <__bss_end__+0x4c548c>
    30a4:	00000001 	andeq	r0, r0, r1
    30a8:	006b5f11 	rsbeq	r5, fp, r1, lsl pc
    30ac:	25073205 	strcs	r3, [r7, #-517]	; 0xfffffdfb
    30b0:	04000000 	streq	r0, [r0], #-0
    30b4:	0004000d 	andeq	r0, r4, sp
    30b8:	0b320500 	bleq	c844c0 <__bss_end__+0xc7a490>
    30bc:	00000025 	andeq	r0, r0, r5, lsr #32
    30c0:	01990d08 	orrseq	r0, r9, r8, lsl #26
    30c4:	32050000 	andcc	r0, r5, #0
    30c8:	00002514 	andeq	r2, r0, r4, lsl r5
    30cc:	ae0d0c00 	cdpge	12, 0, cr0, cr13, cr0, {0}
    30d0:	05000004 	streq	r0, [r0, #-4]
    30d4:	00251b32 	eoreq	r1, r5, r2, lsr fp
    30d8:	11100000 	tstne	r0, r0
    30dc:	0500785f 	streq	r7, [r0, #-2143]	; 0xfffff7a1
    30e0:	01a10b33 			; <UNDEFINED> instruction: 0x01a10b33
    30e4:	00140000 	andseq	r0, r4, r0
    30e8:	01410405 	cmpeq	r1, r5, lsl #8
    30ec:	350a0000 	strcc	r0, [sl, #-0]
    30f0:	b1000001 	tstlt	r0, r1
    30f4:	0b000001 	bleq	3100 <_start-0x4f00>
    30f8:	00000038 	andeq	r0, r0, r8, lsr r0
    30fc:	dd100000 	ldcle	0, cr0, [r0, #-0]
    3100:	24000001 	strcs	r0, [r0], #-1
    3104:	34083705 	strcc	r3, [r8], #-1797	; 0xfffff8fb
    3108:	0d000002 	stceq	0, cr0, [r0, #-8]
    310c:	0000009e 	muleq	r0, lr, r0
    3110:	25093905 	strcs	r3, [r9, #-2309]	; 0xfffff6fb
    3114:	00000000 	andeq	r0, r0, r0
    3118:	00043a0d 	andeq	r3, r4, sp, lsl #20
    311c:	093a0500 	ldmdbeq	sl!, {r8, sl}
    3120:	00000025 	andeq	r0, r0, r5, lsr #32
    3124:	00c10d04 	sbceq	r0, r1, r4, lsl #26
    3128:	3b050000 	blcc	143130 <__bss_end__+0x139100>
    312c:	00002509 	andeq	r2, r0, r9, lsl #10
    3130:	2f0d0800 	svccs	0x000d0800
    3134:	05000005 	streq	r0, [r0, #-5]
    3138:	0025093c 	eoreq	r0, r5, ip, lsr r9
    313c:	0d0c0000 	stceq	0, cr0, [ip, #-0]
    3140:	000002a1 	andeq	r0, r0, r1, lsr #5
    3144:	25093d05 	strcs	r3, [r9, #-3333]	; 0xfffff2fb
    3148:	10000000 	andne	r0, r0, r0
    314c:	0002830d 	andeq	r8, r2, sp, lsl #6
    3150:	093e0500 	ldmdbeq	lr!, {r8, sl}
    3154:	00000025 	andeq	r0, r0, r5, lsr #32
    3158:	04b30d14 	ldrteq	r0, [r3], #3348	; 0xd14
    315c:	3f050000 	svccc	0x00050000
    3160:	00002509 	andeq	r2, r0, r9, lsl #10
    3164:	810d1800 	tsthi	sp, r0, lsl #16
    3168:	05000003 	streq	r0, [r0, #-3]
    316c:	00250940 	eoreq	r0, r5, r0, asr #18
    3170:	0d1c0000 	ldceq	0, cr0, [ip, #-0]
    3174:	000004f6 	strdeq	r0, [r0], -r6
    3178:	25094105 	strcs	r4, [r9, #-261]	; 0xfffffefb
    317c:	20000000 	andcs	r0, r0, r0
    3180:	01011200 	mrseq	r1, R9_usr
    3184:	01080000 	mrseq	r0, (UNDEF: 8)
    3188:	79084a05 	stmdbvc	r8, {r0, r2, r9, fp, lr}
    318c:	0d000002 	stceq	0, cr0, [r0, #-8]
    3190:	0000018c 	andeq	r0, r0, ip, lsl #3
    3194:	790a4b05 	stmdbvc	sl, {r0, r2, r8, r9, fp, lr}
    3198:	00000002 	andeq	r0, r0, r2
    319c:	0000000d 	andeq	r0, r0, sp
    31a0:	094c0500 	stmdbeq	ip, {r8, sl}^
    31a4:	00000279 	andeq	r0, r0, r9, ror r2
    31a8:	04561380 	ldrbeq	r1, [r6], #-896	; 0xfffffc80
    31ac:	4e050000 	cdpmi	0, 0, cr0, cr5, cr0, {0}
    31b0:	0001350a 	andeq	r3, r1, sl, lsl #10
    31b4:	13010000 	movwne	r0, #4096	; 0x1000
    31b8:	00000126 	andeq	r0, r0, r6, lsr #2
    31bc:	350a5105 	strcc	r5, [sl, #-261]	; 0xfffffefb
    31c0:	04000001 	streq	r0, [r0], #-1
    31c4:	210a0001 	tstcs	sl, r1
    31c8:	89000001 	stmdbhi	r0, {r0}
    31cc:	0b000002 	bleq	31dc <_start-0x4e24>
    31d0:	00000038 	andeq	r0, r0, r8, lsr r0
    31d4:	aa12001f 	bge	483258 <__bss_end__+0x479228>
    31d8:	90000002 	andls	r0, r0, r2
    31dc:	085d0501 	ldmdaeq	sp, {r0, r8, sl}^
    31e0:	000002cc 	andeq	r0, r0, ip, asr #5
    31e4:	0003c00d 	andeq	ip, r3, sp
    31e8:	125e0500 	subsne	r0, lr, #0, 10
    31ec:	000002cc 	andeq	r0, r0, ip, asr #5
    31f0:	03d80d00 	bicseq	r0, r8, #0, 26
    31f4:	5f050000 	svcpl	0x00050000
    31f8:	00002506 	andeq	r2, r0, r6, lsl #10
    31fc:	940d0400 	strls	r0, [sp], #-1024	; 0xfffffc00
    3200:	05000001 	streq	r0, [r0, #-1]
    3204:	02d20961 	sbcseq	r0, r2, #1589248	; 0x184000
    3208:	0d080000 	stceq	0, cr0, [r8, #-0]
    320c:	00000101 	andeq	r0, r0, r1, lsl #2
    3210:	341e6205 	ldrcc	r6, [lr], #-517	; 0xfffffdfb
    3214:	88000002 	stmdahi	r0, {r1}
    3218:	89040500 	stmdbhi	r4, {r8, sl}
    321c:	0a000002 	beq	322c <_start-0x4dd4>
    3220:	000002e2 	andeq	r0, r0, r2, ror #5
    3224:	000002e2 	andeq	r0, r0, r2, ror #5
    3228:	0000380b 	andeq	r3, r0, fp, lsl #16
    322c:	05001f00 	streq	r1, [r0, #-3840]	; 0xfffff100
    3230:	0002e804 	andeq	lr, r2, r4, lsl #16
    3234:	8b101400 	blhi	40823c <__bss_end__+0x3fe20c>
    3238:	08000003 	stmdaeq	r0, {r0, r1}
    323c:	11087505 	tstne	r8, r5, lsl #10
    3240:	0d000003 	stceq	0, cr0, [r0, #-12]
    3244:	000000bb 	strheq	r0, [r0], -fp
    3248:	11117605 	tstne	r1, r5, lsl #12
    324c:	00000003 	andeq	r0, r0, r3
    3250:	00001b0d 	andeq	r1, r0, sp, lsl #22
    3254:	06770500 	ldrbteq	r0, [r7], -r0, lsl #10
    3258:	00000025 	andeq	r0, r0, r5, lsr #32
    325c:	04050004 	streq	r0, [r5], #-4
    3260:	00000046 	andeq	r0, r0, r6, asr #32
    3264:	0003aa10 	andeq	sl, r3, r0, lsl sl
    3268:	b5056800 	strlt	r6, [r5, #-2048]	; 0xfffff800
    326c:	00045a08 	andeq	r5, r4, r8, lsl #20
    3270:	705f1100 	subsvc	r1, pc, r0, lsl #2
    3274:	12b60500 	adcsne	r0, r6, #0, 10
    3278:	00000311 	andeq	r0, r0, r1, lsl r3
    327c:	725f1100 	subsvc	r1, pc, #0, 2
    3280:	07b70500 	ldreq	r0, [r7, r0, lsl #10]!
    3284:	00000025 	andeq	r0, r0, r5, lsr #32
    3288:	775f1104 	ldrbvc	r1, [pc, -r4, lsl #2]
    328c:	07b80500 	ldreq	r0, [r8, r0, lsl #10]!
    3290:	00000025 	andeq	r0, r0, r5, lsr #32
    3294:	011f0d08 	tsteq	pc, r8, lsl #26
    3298:	b9050000 	stmdblt	r5, {}	; <UNPREDICTABLE>
    329c:	00004d09 	andeq	r4, r0, r9, lsl #26
    32a0:	080d0c00 	stmdaeq	sp, {sl, fp}
    32a4:	05000002 	streq	r0, [r0, #-2]
    32a8:	004d09ba 	strheq	r0, [sp], #-154	; 0xffffff66
    32ac:	110e0000 	mrsne	r0, (UNDEF: 14)
    32b0:	0066625f 	rsbeq	r6, r6, pc, asr r2
    32b4:	e911bb05 	ldmdb	r1, {r0, r2, r8, r9, fp, ip, sp, pc}
    32b8:	10000002 	andne	r0, r0, r2
    32bc:	00007b0d 	andeq	r7, r0, sp, lsl #22
    32c0:	07bc0500 	ldreq	r0, [ip, r0, lsl #10]!
    32c4:	00000025 	andeq	r0, r0, r5, lsr #32
    32c8:	010f0d18 	tsteq	pc, r8, lsl sp	; <UNPREDICTABLE>
    32cc:	c3050000 	movwgt	r0, #20480	; 0x5000
    32d0:	0001210a 	andeq	r2, r1, sl, lsl #2
    32d4:	240d1c00 	strcs	r1, [sp], #-3072	; 0xfffff400
    32d8:	0500000b 	streq	r0, [r0, #-11]
    32dc:	05cc1dc5 	strbeq	r1, [ip, #3525]	; 0xdc5
    32e0:	0d200000 	stceq	0, cr0, [r0, #-0]
    32e4:	00000619 	andeq	r0, r0, r9, lsl r6
    32e8:	f61dc705 			; <UNDEFINED> instruction: 0xf61dc705
    32ec:	24000005 	strcs	r0, [r0], #-5
    32f0:	00042c0d 	andeq	r2, r4, sp, lsl #24
    32f4:	0dca0500 	cfstr64eq	mvdx0, [sl]
    32f8:	0000061a 	andeq	r0, r0, sl, lsl r6
    32fc:	05100d28 	ldreq	r0, [r0, #-3368]	; 0xfffff2d8
    3300:	cb050000 	blgt	143308 <__bss_end__+0x1392d8>
    3304:	00063409 	andeq	r3, r6, r9, lsl #8
    3308:	5f112c00 	svcpl	0x00112c00
    330c:	05006275 	streq	r6, [r0, #-629]	; 0xfffffd8b
    3310:	02e911ce 	rsceq	r1, r9, #-2147483597	; 0x80000033
    3314:	11300000 	teqne	r0, r0
    3318:	0070755f 	rsbseq	r7, r0, pc, asr r5
    331c:	1112cf05 	tstne	r2, r5, lsl #30
    3320:	38000003 	stmdacc	r0, {r0, r1}
    3324:	72755f11 	rsbsvc	r5, r5, #17, 30	; 0x44
    3328:	07d00500 	ldrbeq	r0, [r0, r0, lsl #10]
    332c:	00000025 	andeq	r0, r0, r5, lsr #32
    3330:	00b50d3c 	adcseq	r0, r5, ip, lsr sp
    3334:	d3050000 	movwle	r0, #20480	; 0x5000
    3338:	00063a11 	andeq	r3, r6, r1, lsl sl
    333c:	e80d4000 	stmda	sp, {lr}
    3340:	05000004 	streq	r0, [r0, #-4]
    3344:	064a11d4 			; <UNDEFINED> instruction: 0x064a11d4
    3348:	11430000 	mrsne	r0, (UNDEF: 67)
    334c:	00626c5f 	rsbeq	r6, r2, pc, asr ip
    3350:	e911d705 	ldmdb	r1, {r0, r2, r8, r9, sl, ip, lr, pc}
    3354:	44000002 	strmi	r0, [r0], #-2
    3358:	00013d0d 	andeq	r3, r1, sp, lsl #26
    335c:	07da0500 	ldrbeq	r0, [sl, r0, lsl #10]
    3360:	00000025 	andeq	r0, r0, r5, lsr #32
    3364:	014e0d4c 	cmpeq	lr, ip, asr #26
    3368:	db050000 	blle	143370 <__bss_end__+0x139340>
    336c:	00008e0a 	andeq	r8, r0, sl, lsl #28
    3370:	c50d5000 	strgt	r5, [sp, #-0]
    3374:	0500000a 	streq	r0, [r0, #-10]
    3378:	047812de 	ldrbteq	r1, [r8], #-734	; 0xfffffd22
    337c:	0d540000 	ldcleq	0, cr0, [r4, #-0]
    3380:	0000041e 	andeq	r0, r0, lr, lsl r4
    3384:	150ce205 	strne	lr, [ip, #-517]	; 0xfffffdfb
    3388:	58000001 	stmdapl	r0, {r0}
    338c:	0003b20d 	andeq	fp, r3, sp, lsl #4
    3390:	0ee40500 	cdpeq	5, 14, cr0, cr4, cr0, {0}
    3394:	00000109 	andeq	r0, r0, r9, lsl #2
    3398:	027b0d5c 	rsbseq	r0, fp, #92, 26	; 0x1700
    339c:	e5050000 	str	r0, [r5, #-0]
    33a0:	00002509 	andeq	r2, r0, r9, lsl #10
    33a4:	15006400 	strne	r6, [r0, #-1024]	; 0xfffffc00
    33a8:	00000025 	andeq	r0, r0, r5, lsr #32
    33ac:	00000478 	andeq	r0, r0, r8, ror r4
    33b0:	00047816 	andeq	r7, r4, r6, lsl r8
    33b4:	01211600 			; <UNDEFINED> instruction: 0x01211600
    33b8:	23160000 	tstcs	r6, #0
    33bc:	16000001 	strne	r0, [r0], -r1
    33c0:	00000025 	andeq	r0, r0, r5, lsr #32
    33c4:	83040500 	movwhi	r0, #17664	; 0x4500
    33c8:	0f000004 	svceq	0x00000004
    33cc:	00000478 	andeq	r0, r0, r8, ror r4
    33d0:	00040817 	andeq	r0, r4, r7, lsl r8
    33d4:	05042800 	streq	r2, [r4, #-2048]	; 0xfffff800
    33d8:	cc080260 	sfmgt	f0, 4, [r8], {96}	; 0x60
    33dc:	18000005 	stmdane	r0, {r0, r2}
    33e0:	00000370 	andeq	r0, r0, r0, ror r3
    33e4:	07026205 	streq	r6, [r2, -r5, lsl #4]
    33e8:	00000025 	andeq	r0, r0, r5, lsr #32
    33ec:	012e1800 			; <UNDEFINED> instruction: 0x012e1800
    33f0:	67050000 	strvs	r0, [r5, -r0]
    33f4:	06a60b02 	strteq	r0, [r6], r2, lsl #22
    33f8:	18040000 	stmdane	r4, {}	; <UNPREDICTABLE>
    33fc:	000001f8 	strdeq	r0, [r0], -r8
    3400:	14026705 	strne	r6, [r2], #-1797	; 0xfffff8fb
    3404:	000006a6 	andeq	r0, r0, r6, lsr #13
    3408:	01a81808 			; <UNDEFINED> instruction: 0x01a81808
    340c:	67050000 	strvs	r0, [r5, -r0]
    3410:	06a61e02 	strteq	r1, [r6], r2, lsl #28
    3414:	180c0000 	stmdane	ip, {}	; <UNPREDICTABLE>
    3418:	000003d3 	ldrdeq	r0, [r0], -r3
    341c:	08026905 	stmdaeq	r2, {r0, r2, r8, fp, sp, lr}
    3420:	00000025 	andeq	r0, r0, r5, lsr #32
    3424:	00291810 	eoreq	r1, r9, r0, lsl r8
    3428:	6a050000 	bvs	143430 <__bss_end__+0x139400>
    342c:	08a60802 	stmiaeq	r6!, {r1, fp}
    3430:	18140000 	ldmdane	r4, {}	; <UNPREDICTABLE>
    3434:	000003e7 	andeq	r0, r0, r7, ror #7
    3438:	07026d05 	streq	r6, [r2, -r5, lsl #26]
    343c:	00000025 	andeq	r0, r0, r5, lsr #32
    3440:	0a011830 	beq	49508 <__bss_end__+0x3f4d8>
    3444:	6e050000 	cdpvs	0, 0, cr0, cr5, cr0, {0}
    3448:	08bb1602 	ldmeq	fp!, {r1, r9, sl, ip}
    344c:	18340000 	ldmdane	r4!, {}	; <UNPREDICTABLE>
    3450:	000002b2 			; <UNDEFINED> instruction: 0x000002b2
    3454:	07027005 	streq	r7, [r2, -r5]
    3458:	00000025 	andeq	r0, r0, r5, lsr #32
    345c:	03dd1838 	bicseq	r1, sp, #56, 16	; 0x380000
    3460:	72050000 	andvc	r0, r5, #0
    3464:	08cc0a02 	stmiaeq	ip, {r1, r9, fp}^
    3468:	183c0000 	ldmdane	ip!, {}	; <UNPREDICTABLE>
    346c:	00000257 	andeq	r0, r0, r7, asr r2
    3470:	13027505 	movwne	r7, #9477	; 0x2505
    3474:	0000019b 	muleq	r0, fp, r1
    3478:	01c71840 	biceq	r1, r7, r0, asr #16
    347c:	76050000 	strvc	r0, [r5], -r0
    3480:	00250702 	eoreq	r0, r5, r2, lsl #14
    3484:	18440000 	stmdane	r4, {}^	; <UNPREDICTABLE>
    3488:	0000052a 	andeq	r0, r0, sl, lsr #10
    348c:	13027705 	movwne	r7, #9989	; 0x2705
    3490:	0000019b 	muleq	r0, fp, r1
    3494:	02c41848 	sbceq	r1, r4, #72, 16	; 0x480000
    3498:	78050000 	stmdavc	r5, {}	; <UNPREDICTABLE>
    349c:	08d21402 	ldmeq	r2, {r1, sl, ip}^
    34a0:	184c0000 	stmdane	ip, {}^	; <UNPREDICTABLE>
    34a4:	00000200 	andeq	r0, r0, r0, lsl #4
    34a8:	07027b05 	streq	r7, [r2, -r5, lsl #22]
    34ac:	00000025 	andeq	r0, r0, r5, lsr #32
    34b0:	01461850 	cmpeq	r6, r0, asr r8
    34b4:	7c050000 	stcvc	0, cr0, [r5], {-0}
    34b8:	01230902 			; <UNDEFINED> instruction: 0x01230902
    34bc:	18540000 	ldmdane	r4, {}^	; <UNPREDICTABLE>
    34c0:	000002ea 	andeq	r0, r0, sl, ror #5
    34c4:	07029f05 	streq	r9, [r2, -r5, lsl #30]
    34c8:	00000881 	andeq	r0, r0, r1, lsl #17
    34cc:	02aa1958 	adceq	r1, sl, #88, 18	; 0x160000
    34d0:	a3050000 	movwge	r0, #20480	; 0x5000
    34d4:	02cc1302 	sbceq	r1, ip, #134217728	; 0x8000000
    34d8:	01480000 	mrseq	r0, (UNDEF: 72)
    34dc:	00023519 	andeq	r3, r2, r9, lsl r5
    34e0:	02a40500 	adceq	r0, r4, #0, 10
    34e4:	00028912 	andeq	r8, r2, r2, lsl r9
    34e8:	19014c00 	stmdbne	r1, {sl, fp, lr}
    34ec:	000004d6 	ldrdeq	r0, [r0], -r6
    34f0:	0c02a805 	stceq	8, cr10, [r2], {5}
    34f4:	000008e3 	andeq	r0, r0, r3, ror #17
    34f8:	171902dc 			; <UNDEFINED> instruction: 0x171902dc
    34fc:	05000001 	streq	r0, [r0, #-1]
    3500:	671002ad 	ldrvs	r0, [r0, -sp, lsr #5]
    3504:	e0000006 	and	r0, r0, r6
    3508:	00fc1902 	rscseq	r1, ip, r2, lsl #18
    350c:	af050000 	svcge	0x00050000
    3510:	08ef0a02 	stmiaeq	pc!, {r1, r9, fp}^	; <UNPREDICTABLE>
    3514:	02ec0000 	rsceq	r0, ip, #0
    3518:	5a040500 	bpl	104920 <__bss_end__+0xfa8f0>
    351c:	15000004 	strne	r0, [r0, #-4]
    3520:	00000025 	andeq	r0, r0, r5, lsr #32
    3524:	000005f0 	strdeq	r0, [r0], -r0	; <UNPREDICTABLE>
    3528:	00047816 	andeq	r7, r4, r6, lsl r8
    352c:	01211600 			; <UNDEFINED> instruction: 0x01211600
    3530:	f0160000 			; <UNDEFINED> instruction: 0xf0160000
    3534:	16000005 	strne	r0, [r0], -r5
    3538:	00000025 	andeq	r0, r0, r5, lsr #32
    353c:	30040500 	andcc	r0, r4, r0, lsl #10
    3540:	05000001 	streq	r0, [r0, #-1]
    3544:	0005d204 	andeq	sp, r5, r4, lsl #4
    3548:	009a1500 	addseq	r1, sl, r0, lsl #10
    354c:	061a0000 	ldreq	r0, [sl], -r0
    3550:	78160000 	ldmdavc	r6, {}	; <UNPREDICTABLE>
    3554:	16000004 	strne	r0, [r0], -r4
    3558:	00000121 	andeq	r0, r0, r1, lsr #2
    355c:	00009a16 	andeq	r9, r0, r6, lsl sl
    3560:	00251600 	eoreq	r1, r5, r0, lsl #12
    3564:	05000000 	streq	r0, [r0, #-0]
    3568:	0005fc04 	andeq	pc, r5, r4, lsl #24
    356c:	00251500 	eoreq	r1, r5, r0, lsl #10
    3570:	06340000 	ldrteq	r0, [r4], -r0
    3574:	78160000 	ldmdavc	r6, {}	; <UNPREDICTABLE>
    3578:	16000004 	strne	r0, [r0], -r4
    357c:	00000121 	andeq	r0, r0, r1, lsr #2
    3580:	20040500 	andcs	r0, r4, r0, lsl #10
    3584:	0a000006 	beq	35a4 <_start-0x4a5c>
    3588:	00000046 	andeq	r0, r0, r6, asr #32
    358c:	0000064a 	andeq	r0, r0, sl, asr #12
    3590:	0000380b 	andeq	r3, r0, fp, lsl #16
    3594:	0a000200 	beq	3d9c <_start-0x4264>
    3598:	00000046 	andeq	r0, r0, r6, asr #32
    359c:	0000065a 	andeq	r0, r0, sl, asr r6
    35a0:	0000380b 	andeq	r3, r0, fp, lsl #16
    35a4:	07000000 	streq	r0, [r0, -r0]
    35a8:	00000398 	muleq	r0, r8, r3
    35ac:	1a011f05 	bne	4b1c8 <__bss_end__+0x41198>
    35b0:	00000317 	andeq	r0, r0, r7, lsl r3
    35b4:	0004bd1a 	andeq	fp, r4, sl, lsl sp
    35b8:	23050c00 	movwcs	r0, #23552	; 0x5c00
    35bc:	06a00801 	strteq	r0, [r0], r1, lsl #16
    35c0:	c0180000 	andsgt	r0, r8, r0
    35c4:	05000003 	streq	r0, [r0, #-3]
    35c8:	a0110125 	andsge	r0, r1, r5, lsr #2
    35cc:	00000006 	andeq	r0, r0, r6
    35d0:	00021b18 	andeq	r1, r2, r8, lsl fp
    35d4:	01260500 			; <UNDEFINED> instruction: 0x01260500
    35d8:	00002507 	andeq	r2, r0, r7, lsl #10
    35dc:	92180400 	andsls	r0, r8, #0, 8
    35e0:	05000003 	streq	r0, [r0, #-3]
    35e4:	a60b0127 	strge	r0, [fp], -r7, lsr #2
    35e8:	08000006 	stmdaeq	r0, {r1, r2}
    35ec:	67040500 	strvs	r0, [r4, -r0, lsl #10]
    35f0:	05000006 	streq	r0, [r0, #-6]
    35f4:	00065a04 	andeq	r5, r6, r4, lsl #20
    35f8:	00211a00 	eoreq	r1, r1, r0, lsl #20
    35fc:	050e0000 	streq	r0, [lr, #-0]
    3600:	e508013f 	str	r0, [r8, #-319]	; 0xfffffec1
    3604:	18000006 	stmdane	r0, {r1, r2}
    3608:	0000040f 	andeq	r0, r0, pc, lsl #8
    360c:	12014005 	andne	r4, r1, #5
    3610:	000006e5 	andeq	r0, r0, r5, ror #13
    3614:	04431800 	strbeq	r1, [r3], #-2048	; 0xfffff800
    3618:	41050000 	mrsmi	r0, (UNDEF: 5)
    361c:	06e51201 	strbteq	r1, [r5], r1, lsl #4
    3620:	18060000 	stmdane	r6, {}	; <UNPREDICTABLE>
    3624:	0000045f 	andeq	r0, r0, pc, asr r4
    3628:	12014205 	andne	r4, r1, #1342177280	; 0x50000000
    362c:	00000054 	andeq	r0, r0, r4, asr r0
    3630:	540a000c 	strpl	r0, [sl], #-12
    3634:	f5000000 			; <UNDEFINED> instruction: 0xf5000000
    3638:	0b000006 	bleq	3658 <_start-0x49a8>
    363c:	00000038 	andeq	r0, r0, r8, lsr r0
    3640:	d01b0002 	andsle	r0, fp, r2
    3644:	07028005 	streq	r8, [r2, -r5]
    3648:	0000080a 	andeq	r0, r0, sl, lsl #16
    364c:	0004a118 	andeq	sl, r4, r8, lsl r1
    3650:	02820500 	addeq	r0, r2, #0, 10
    3654:	00003818 	andeq	r3, r0, r8, lsl r8
    3658:	49180000 	ldmdbmi	r8, {}	; <UNPREDICTABLE>
    365c:	05000004 	streq	r0, [r0, #-4]
    3660:	23120283 	tstcs	r2, #805306376	; 0x30000008
    3664:	04000001 	streq	r0, [r0], #-1
    3668:	00024a18 	andeq	r4, r2, r8, lsl sl
    366c:	02840500 	addeq	r0, r4, #0, 10
    3670:	00080a10 	andeq	r0, r8, r0, lsl sl
    3674:	01180800 	tsteq	r8, r0, lsl #16
    3678:	05000005 	streq	r0, [r0, #-5]
    367c:	b1170285 	tstlt	r7, r5, lsl #5
    3680:	24000001 	strcs	r0, [r0], #-1
    3684:	0001b818 	andeq	fp, r1, r8, lsl r8
    3688:	02860500 	addeq	r0, r6, #0, 10
    368c:	0000250f 	andeq	r2, r0, pc, lsl #10
    3690:	bb184800 	bllt	615698 <__bss_end__+0x60b668>
    3694:	05000003 	streq	r0, [r0, #-3]
    3698:	702c0287 	eorvc	r0, ip, r7, lsl #5
    369c:	50000000 	andpl	r0, r0, r0
    36a0:	00051718 	andeq	r1, r5, r8, lsl r7
    36a4:	02880500 	addeq	r0, r8, #0, 10
    36a8:	0006ac1a 	andeq	sl, r6, sl, lsl ip
    36ac:	c6185800 	ldrgt	r5, [r8], -r0, lsl #16
    36b0:	05000003 	streq	r0, [r0, #-3]
    36b4:	09160289 	ldmdbeq	r6, {r0, r3, r7, r9}
    36b8:	68000001 	stmdavs	r0, {r0}
    36bc:	00051c18 	andeq	r1, r5, r8, lsl ip
    36c0:	028a0500 	addeq	r0, sl, #0, 10
    36c4:	00010916 	andeq	r0, r1, r6, lsl r9
    36c8:	ce187000 	cdpgt	0, 1, cr7, cr8, cr0, {0}
    36cc:	05000002 	streq	r0, [r0, #-2]
    36d0:	0916028b 	ldmdbeq	r6, {r0, r1, r3, r7, r9}
    36d4:	78000001 	stmdavc	r0, {r0}
    36d8:	0004cc18 	andeq	ip, r4, r8, lsl ip
    36dc:	028c0500 	addeq	r0, ip, #0, 10
    36e0:	00081a10 	andeq	r1, r8, r0, lsl sl
    36e4:	3e188000 	cdpcc	0, 1, cr8, cr8, cr0, {0}
    36e8:	05000002 	streq	r0, [r0, #-2]
    36ec:	2a10028d 	bcs	404128 <__bss_end__+0x3fa0f8>
    36f0:	88000008 	stmdahi	r0, {r3}
    36f4:	00046c18 	andeq	r6, r4, r8, lsl ip
    36f8:	028e0500 	addeq	r0, lr, #0, 10
    36fc:	0000250f 	andeq	r2, r0, pc, lsl #10
    3700:	7e18a000 	cdpvc	0, 1, cr10, cr8, cr0, {0}
    3704:	05000001 	streq	r0, [r0, #-1]
    3708:	0916028f 	ldmdbeq	r6, {r0, r1, r2, r3, r7, r9}
    370c:	a4000001 	strge	r0, [r0], #-1
    3710:	00008f18 	andeq	r8, r0, r8, lsl pc
    3714:	02900500 	addseq	r0, r0, #0, 10
    3718:	00010916 	andeq	r0, r1, r6, lsl r9
    371c:	6d18ac00 	ldcvs	12, cr10, [r8, #-0]
    3720:	05000001 	streq	r0, [r0, #-1]
    3724:	09160291 	ldmdbeq	r6, {r0, r4, r7, r9}
    3728:	b4000001 	strlt	r0, [r0], #-1
    372c:	00003c18 	andeq	r3, r0, r8, lsl ip
    3730:	02920500 	addseq	r0, r2, #0, 10
    3734:	00010916 	andeq	r0, r1, r6, lsl r9
    3738:	4b18bc00 	blmi	632740 <__bss_end__+0x628710>
    373c:	05000000 	streq	r0, [r0, #-0]
    3740:	09160293 	ldmdbeq	r6, {r0, r1, r4, r7, r9}
    3744:	c4000001 	strgt	r0, [r0], #-1
    3748:	00036e18 	andeq	r6, r3, r8, lsl lr
    374c:	02940500 	addseq	r0, r4, #0, 10
    3750:	00002508 	andeq	r2, r0, r8, lsl #10
    3754:	0a00cc00 	beq	3675c <__bss_end__+0x2c72c>
    3758:	00000129 	andeq	r0, r0, r9, lsr #2
    375c:	0000081a 	andeq	r0, r0, sl, lsl r8
    3760:	0000380b 	andeq	r3, r0, fp, lsl #16
    3764:	0a001900 	beq	9b6c <__FUNCTION__.4253+0x48>
    3768:	00000129 	andeq	r0, r0, r9, lsr #2
    376c:	0000082a 	andeq	r0, r0, sl, lsr #16
    3770:	0000380b 	andeq	r3, r0, fp, lsl #16
    3774:	0a000700 	beq	537c <_start-0x2c84>
    3778:	00000129 	andeq	r0, r0, r9, lsr #2
    377c:	0000083a 	andeq	r0, r0, sl, lsr r8
    3780:	0000380b 	andeq	r3, r0, fp, lsl #16
    3784:	1b001700 	blne	938c <gpio_set_function+0x10>
    3788:	029905f0 	addseq	r0, r9, #240, 10	; 0x3c000000
    378c:	00086107 	andeq	r6, r8, r7, lsl #2
    3790:	029a1800 	addseq	r1, sl, #0, 16
    3794:	9c050000 	stcls	0, cr0, [r5], {-0}
    3798:	08611b02 	stmdaeq	r1!, {r1, r8, r9, fp, ip}^
    379c:	18000000 	stmdane	r0, {}	; <UNPREDICTABLE>
    37a0:	000004c3 	andeq	r0, r0, r3, asr #9
    37a4:	18029d05 	stmdane	r2, {r0, r2, r8, sl, fp, ip, pc}
    37a8:	00000871 	andeq	r0, r0, r1, ror r8
    37ac:	110a0078 	tstne	sl, r8, ror r0
    37b0:	71000003 	tstvc	r0, r3
    37b4:	0b000008 	bleq	37dc <_start-0x4824>
    37b8:	00000038 	andeq	r0, r0, r8, lsr r0
    37bc:	380a001d 	stmdacc	sl, {r0, r2, r3, r4}
    37c0:	81000000 	mrshi	r0, (UNDEF: 0)
    37c4:	0b000008 	bleq	37ec <_start-0x4814>
    37c8:	00000038 	andeq	r0, r0, r8, lsr r0
    37cc:	f01c001d 			; <UNDEFINED> instruction: 0xf01c001d
    37d0:	03027e05 	movweq	r7, #11781	; 0x2e05
    37d4:	000008a6 	andeq	r0, r0, r6, lsr #17
    37d8:	0004081d 	andeq	r0, r4, sp, lsl r8
    37dc:	02950500 	addseq	r0, r5, #0, 10
    37e0:	0006f50b 	andeq	pc, r6, fp, lsl #10
    37e4:	04ee1d00 	strbteq	r1, [lr], #3328	; 0xd00
    37e8:	9e050000 	cdpls	0, 0, cr0, cr5, cr0, {0}
    37ec:	083a0b02 	ldmdaeq	sl!, {r1, r8, r9, fp}
    37f0:	0a000000 	beq	37f8 <_start-0x4808>
    37f4:	00000129 	andeq	r0, r0, r9, lsr #2
    37f8:	000008b6 			; <UNDEFINED> instruction: 0x000008b6
    37fc:	0000380b 	andeq	r3, r0, fp, lsl #16
    3800:	06001800 	streq	r1, [r0], -r0, lsl #16
    3804:	00000084 	andeq	r0, r0, r4, lsl #1
    3808:	08b60405 	ldmeq	r6!, {r0, r2, sl}
    380c:	cc1e0000 	ldcgt	0, cr0, [lr], {-0}
    3810:	16000008 	strne	r0, [r0], -r8
    3814:	00000478 	andeq	r0, r0, r8, ror r4
    3818:	c1040500 	tstgt	r4, r0, lsl #10
    381c:	05000008 	streq	r0, [r0, #-8]
    3820:	00019b04 	andeq	r9, r1, r4, lsl #22
    3824:	08e31e00 	stmiaeq	r3!, {r9, sl, fp, ip}^
    3828:	25160000 	ldrcs	r0, [r6, #-0]
    382c:	00000000 	andeq	r0, r0, r0
    3830:	08e90405 	stmiaeq	r9!, {r0, r2, sl}^
    3834:	04050000 	streq	r0, [r5], #-0
    3838:	000008d8 	ldrdeq	r0, [r0], -r8
    383c:	00065a0a 	andeq	r5, r6, sl, lsl #20
    3840:	0008ff00 	andeq	pc, r8, r0, lsl #30
    3844:	00380b00 	eorseq	r0, r8, r0, lsl #22
    3848:	00020000 	andeq	r0, r2, r0
    384c:	00048e1f 	andeq	r8, r4, pc, lsl lr
    3850:	032e0500 			; <UNDEFINED> instruction: 0x032e0500
    3854:	00047817 	andeq	r7, r4, r7, lsl r8
    3858:	04871f00 	streq	r1, [r7], #3840	; 0xf00
    385c:	2f050000 	svccs	0x00050000
    3860:	047e1d03 	ldrbteq	r1, [lr], #-3331	; 0xfffff2fd
    3864:	9a200000 	bls	80386c <__bss_end__+0x7f983c>
    3868:	06000004 	streq	r0, [r0], -r4
    386c:	01210921 			; <UNDEFINED> instruction: 0x01210921
    3870:	8a600000 	bhi	1803878 <__bss_end__+0x17f9848>
    3874:	00180000 	andseq	r0, r8, r0
    3878:	9c010000 	stcls	0, cr0, [r1], {-0}
    387c:	00705f21 	rsbseq	r5, r0, r1, lsr #30
    3880:	21140301 	tstcs	r4, r1, lsl #6
    3884:	01000001 	tsteq	r0, r1
    3888:	00632150 	rsbeq	r2, r3, r0, asr r1
    388c:	251c0301 	ldrcs	r0, [ip, #-769]	; 0xfffffcff
    3890:	01000000 	mrseq	r0, (UNDEF: 0)
    3894:	006e2251 	rsbeq	r2, lr, r1, asr r2
    3898:	2c260301 	stccs	3, cr0, [r6], #-4
    389c:	d2000000 	andle	r0, r0, #0
    38a0:	ce000009 	cdpgt	0, 0, cr0, cr0, cr9, {0}
    38a4:	23000009 	movwcs	r0, #9
    38a8:	04010070 	streq	r0, [r1], #-112	; 0xffffff90
    38ac:	0001230b 	andeq	r2, r1, fp, lsl #6
    38b0:	0009fb00 	andeq	pc, r9, r0, lsl #22
    38b4:	0009f300 	andeq	pc, r9, r0, lsl #6
    38b8:	00652300 	rsbeq	r2, r5, r0, lsl #6
    38bc:	23140401 	tstcs	r4, #16777216	; 0x1000000
    38c0:	33000001 	movwcc	r0, #1
    38c4:	3100000a 	tstcc	r0, sl
    38c8:	0000000a 	andeq	r0, r0, sl
    38cc:	000a2b00 	andeq	r2, sl, r0, lsl #22
    38d0:	cb000400 	blgt	48d8 <_start-0x3728>
    38d4:	04000009 	streq	r0, [r0], #-9
    38d8:	0002ef01 	andeq	lr, r2, r1, lsl #30
    38dc:	071a0c00 	ldreq	r0, [sl, -r0, lsl #24]
    38e0:	06c10000 	strbeq	r0, [r1], r0
    38e4:	8a780000 	bhi	1e038ec <__bss_end__+0x1df98bc>
    38e8:	00580000 	subseq	r0, r8, r0
    38ec:	0bc50000 	bleq	ff1438f4 <__bss_end__+0xff1398c4>
    38f0:	06020000 	streq	r0, [r2], -r0
    38f4:	02000007 	andeq	r0, r0, #7
    38f8:	00311b28 	eorseq	r1, r1, r8, lsr #22
    38fc:	f2030000 	vhadd.s8	d0, d3, d0
    3900:	04000006 	streq	r0, [r0], #-6
    3904:	00480008 	subeq	r0, r8, r8
    3908:	15040000 	strne	r0, [r4, #-0]
    390c:	48000007 	stmdami	r0, {r0, r1, r2}
    3910:	00000000 	andeq	r0, r0, r0
    3914:	02040500 	andeq	r0, r4, #0, 10
    3918:	000006f4 	strdeq	r0, [r0], -r4
    391c:	25186302 	ldrcs	r6, [r8, #-770]	; 0xfffffcfe
    3920:	06000000 	streq	r0, [r0], -r0
    3924:	6e690504 	cdpvs	5, 6, cr0, cr9, cr4, {0}
    3928:	04070074 	streq	r0, [r7], #-116	; 0xffffff8c
    392c:	00006607 	andeq	r6, r0, r7, lsl #12
    3930:	06010700 	streq	r0, [r1], -r0, lsl #14
    3934:	000002de 	ldrdeq	r0, [r0], -lr
    3938:	77050207 	strvc	r0, [r5, -r7, lsl #4]
    393c:	07000003 	streq	r0, [r0, -r3]
    3940:	00ac0504 	adceq	r0, ip, r4, lsl #10
    3944:	08070000 	stmdaeq	r7, {}	; <UNPREDICTABLE>
    3948:	0000a705 	andeq	sl, r0, r5, lsl #14
    394c:	08010700 	stmdaeq	r1, {r8, r9, sl}
    3950:	000002dc 	ldrdeq	r0, [r0], -ip
    3954:	22070207 	andcs	r0, r7, #1879048192	; 0x70000000
    3958:	07000002 	streq	r0, [r0, -r2]
    395c:	00610704 	rsbeq	r0, r1, r4, lsl #14
    3960:	08070000 	stmdaeq	r7, {}	; <UNPREDICTABLE>
    3964:	00005c07 	andeq	r5, r0, r7, lsl #24
    3968:	02650200 	rsbeq	r0, r5, #0, 4
    396c:	22030000 	andcs	r0, r3, #0
    3970:	0000a819 	andeq	sl, r0, r9, lsl r8
    3974:	ae040800 	cdpge	8, 0, cr0, cr4, cr0, {0}
    3978:	09000000 	stmdbeq	r0, {}	; <UNPREDICTABLE>
    397c:	0000041d 	andeq	r0, r0, sp, lsl r4
    3980:	0002bd02 	andeq	fp, r2, r2, lsl #26
    3984:	0e2c0400 	cdpeq	4, 2, cr0, cr12, cr0, {0}
    3988:	00000072 	andeq	r0, r0, r2, ror r0
    398c:	00043202 	andeq	r3, r4, r2, lsl #4
    3990:	0e720400 	cdpeq	4, 7, cr0, cr2, cr0, {0}
    3994:	00000072 	andeq	r0, r0, r2, ror r0
    3998:	00026d0a 	andeq	r6, r2, sl, lsl #26
    399c:	015e0500 	cmpeq	lr, r0, lsl #10
    39a0:	00005d17 	andeq	r5, r0, r7, lsl sp
    39a4:	04040b00 	streq	r0, [r4], #-2816	; 0xfffff500
    39a8:	00fa03a6 	rscseq	r0, sl, r6, lsr #7
    39ac:	5f0c0000 	svcpl	0x000c0000
    39b0:	04000002 	streq	r0, [r0], #-2
    39b4:	00cb0ca8 	sbceq	r0, fp, r8, lsr #25
    39b8:	e20c0000 	and	r0, ip, #0
    39bc:	04000001 	streq	r0, [r0], #-1
    39c0:	00fa13a9 	rscseq	r1, sl, r9, lsr #7
    39c4:	0d000000 	stceq	0, cr0, [r0, #-0]
    39c8:	00000080 	andeq	r0, r0, r0, lsl #1
    39cc:	0000010a 	andeq	r0, r0, sl, lsl #2
    39d0:	00005d0e 	andeq	r5, r0, lr, lsl #26
    39d4:	0f000300 	svceq	0x00000300
    39d8:	09a30408 	stmibeq	r3!, {r3, sl}
    39dc:	0000012e 	andeq	r0, r0, lr, lsr #2
    39e0:	00041510 	andeq	r1, r4, r0, lsl r5
    39e4:	07a50400 	streq	r0, [r5, r0, lsl #8]!
    39e8:	00000056 	andeq	r0, r0, r6, asr r0
    39ec:	04241000 	strteq	r1, [r4], #-0
    39f0:	aa040000 	bge	1039f8 <__bss_end__+0xf99c8>
    39f4:	0000d805 	andeq	sp, r0, r5, lsl #16
    39f8:	02000400 	andeq	r0, r0, #0, 8
    39fc:	0000039f 	muleq	r0, pc, r3	; <UNPREDICTABLE>
    3a00:	0a03ab04 	beq	ee618 <__bss_end__+0xe45e8>
    3a04:	02000001 	andeq	r0, r0, #1
    3a08:	0000019f 	muleq	r0, pc, r1	; <UNPREDICTABLE>
    3a0c:	9c1baf04 	ldcls	15, cr10, [fp], {4}
    3a10:	08000000 	stmdaeq	r0, {}	; <UNPREDICTABLE>
    3a14:	00014c04 	andeq	r4, r1, r4, lsl #24
    3a18:	08010700 	stmdaeq	r1, {r8, r9, sl}
    3a1c:	000002e5 	andeq	r0, r0, r5, ror #5
    3a20:	00014c11 	andeq	r4, r1, r1, lsl ip
    3a24:	04640200 	strbteq	r0, [r4], #-512	; 0xfffffe00
    3a28:	16060000 	strne	r0, [r6], -r0
    3a2c:	00008e19 	andeq	r8, r0, r9, lsl lr
    3a30:	01b01200 	lslseq	r1, r0, #4
    3a34:	06180000 	ldreq	r0, [r8], -r0
    3a38:	01be082f 			; <UNDEFINED> instruction: 0x01be082f
    3a3c:	c0100000 	andsgt	r0, r0, r0
    3a40:	06000003 	streq	r0, [r0], -r3
    3a44:	01be1331 			; <UNDEFINED> instruction: 0x01be1331
    3a48:	13000000 	movwne	r0, #0
    3a4c:	06006b5f 			; <UNDEFINED> instruction: 0x06006b5f
    3a50:	00560732 	subseq	r0, r6, r2, lsr r7
    3a54:	10040000 	andne	r0, r4, r0
    3a58:	00000400 	andeq	r0, r0, r0, lsl #8
    3a5c:	560b3206 	strpl	r3, [fp], -r6, lsl #4
    3a60:	08000000 	stmdaeq	r0, {}	; <UNPREDICTABLE>
    3a64:	00019910 	andeq	r9, r1, r0, lsl r9
    3a68:	14320600 	ldrtne	r0, [r2], #-1536	; 0xfffffa00
    3a6c:	00000056 	andeq	r0, r0, r6, asr r0
    3a70:	04ae100c 	strteq	r1, [lr], #12
    3a74:	32060000 	andcc	r0, r6, #0
    3a78:	0000561b 	andeq	r5, r0, fp, lsl r6
    3a7c:	5f131000 	svcpl	0x00131000
    3a80:	33060078 	movwcc	r0, #24696	; 0x6078
    3a84:	0001c40b 	andeq	ip, r1, fp, lsl #8
    3a88:	08001400 	stmdaeq	r0, {sl, ip}
    3a8c:	00016404 	andeq	r6, r1, r4, lsl #8
    3a90:	01580d00 	cmpeq	r8, r0, lsl #26
    3a94:	01d40000 	bicseq	r0, r4, r0
    3a98:	5d0e0000 	stcpl	0, cr0, [lr, #-0]
    3a9c:	00000000 	andeq	r0, r0, r0
    3aa0:	01dd1200 	bicseq	r1, sp, r0, lsl #4
    3aa4:	06240000 	strteq	r0, [r4], -r0
    3aa8:	02570837 	subseq	r0, r7, #3604480	; 0x370000
    3aac:	9e100000 	cdpls	0, 1, cr0, cr0, cr0, {0}
    3ab0:	06000000 	streq	r0, [r0], -r0
    3ab4:	00560939 	subseq	r0, r6, r9, lsr r9
    3ab8:	10000000 	andne	r0, r0, r0
    3abc:	0000043a 	andeq	r0, r0, sl, lsr r4
    3ac0:	56093a06 	strpl	r3, [r9], -r6, lsl #20
    3ac4:	04000000 	streq	r0, [r0], #-0
    3ac8:	0000c110 	andeq	ip, r0, r0, lsl r1
    3acc:	093b0600 	ldmdbeq	fp!, {r9, sl}
    3ad0:	00000056 	andeq	r0, r0, r6, asr r0
    3ad4:	052f1008 	streq	r1, [pc, #-8]!	; 3ad4 <_start-0x452c>
    3ad8:	3c060000 	stccc	0, cr0, [r6], {-0}
    3adc:	00005609 	andeq	r5, r0, r9, lsl #12
    3ae0:	a1100c00 	tstge	r0, r0, lsl #24
    3ae4:	06000002 	streq	r0, [r0], -r2
    3ae8:	0056093d 	subseq	r0, r6, sp, lsr r9
    3aec:	10100000 	andsne	r0, r0, r0
    3af0:	00000283 	andeq	r0, r0, r3, lsl #5
    3af4:	56093e06 	strpl	r3, [r9], -r6, lsl #28
    3af8:	14000000 	strne	r0, [r0], #-0
    3afc:	0004b310 	andeq	fp, r4, r0, lsl r3
    3b00:	093f0600 	ldmdbeq	pc!, {r9, sl}	; <UNPREDICTABLE>
    3b04:	00000056 	andeq	r0, r0, r6, asr r0
    3b08:	03811018 	orreq	r1, r1, #24
    3b0c:	40060000 	andmi	r0, r6, r0
    3b10:	00005609 	andeq	r5, r0, r9, lsl #12
    3b14:	f6101c00 			; <UNDEFINED> instruction: 0xf6101c00
    3b18:	06000004 	streq	r0, [r0], -r4
    3b1c:	00560941 	subseq	r0, r6, r1, asr #18
    3b20:	00200000 	eoreq	r0, r0, r0
    3b24:	00010114 	andeq	r0, r1, r4, lsl r1
    3b28:	06010800 	streq	r0, [r1], -r0, lsl #16
    3b2c:	029c084a 	addseq	r0, ip, #4849664	; 0x4a0000
    3b30:	8c100000 	ldchi	0, cr0, [r0], {-0}
    3b34:	06000001 	streq	r0, [r0], -r1
    3b38:	029c0a4b 	addseq	r0, ip, #307200	; 0x4b000
    3b3c:	10000000 	andne	r0, r0, r0
    3b40:	00000000 	andeq	r0, r0, r0
    3b44:	9c094c06 	stcls	12, cr4, [r9], {6}
    3b48:	80000002 	andhi	r0, r0, r2
    3b4c:	00045615 	andeq	r5, r4, r5, lsl r6
    3b50:	0a4e0600 	beq	1385358 <__bss_end__+0x137b328>
    3b54:	00000158 	andeq	r0, r0, r8, asr r1
    3b58:	26150100 	ldrcs	r0, [r5], -r0, lsl #2
    3b5c:	06000001 	streq	r0, [r0], -r1
    3b60:	01580a51 	cmpeq	r8, r1, asr sl
    3b64:	01040000 	mrseq	r0, (UNDEF: 4)
    3b68:	00480d00 	subeq	r0, r8, r0, lsl #26
    3b6c:	02ac0000 	adceq	r0, ip, #0
    3b70:	5d0e0000 	stcpl	0, cr0, [lr, #-0]
    3b74:	1f000000 	svcne	0x00000000
    3b78:	02aa1400 	adceq	r1, sl, #0, 8
    3b7c:	01900000 	orrseq	r0, r0, r0
    3b80:	ef085d06 	svc	0x00085d06
    3b84:	10000002 	andne	r0, r0, r2
    3b88:	000003c0 	andeq	r0, r0, r0, asr #7
    3b8c:	ef125e06 	svc	0x00125e06
    3b90:	00000002 	andeq	r0, r0, r2
    3b94:	0003d810 	andeq	sp, r3, r0, lsl r8
    3b98:	065f0600 	ldrbeq	r0, [pc], -r0, lsl #12
    3b9c:	00000056 	andeq	r0, r0, r6, asr r0
    3ba0:	01941004 	orrseq	r1, r4, r4
    3ba4:	61060000 	mrsvs	r0, (UNDEF: 6)
    3ba8:	0002f509 	andeq	pc, r2, r9, lsl #10
    3bac:	01100800 	tsteq	r0, r0, lsl #16
    3bb0:	06000001 	streq	r0, [r0], -r1
    3bb4:	02571e62 	subseq	r1, r7, #1568	; 0x620
    3bb8:	00880000 	addeq	r0, r8, r0
    3bbc:	02ac0408 	adceq	r0, ip, #8, 8	; 0x8000000
    3bc0:	050d0000 	streq	r0, [sp, #-0]
    3bc4:	05000003 	streq	r0, [r0, #-3]
    3bc8:	0e000003 	cdpeq	0, 0, cr0, cr0, cr3, {0}
    3bcc:	0000005d 	andeq	r0, r0, sp, asr r0
    3bd0:	0408001f 	streq	r0, [r8], #-31	; 0xffffffe1
    3bd4:	0000030b 	andeq	r0, r0, fp, lsl #6
    3bd8:	038b1216 	orreq	r1, fp, #1610612737	; 0x60000001
    3bdc:	06080000 	streq	r0, [r8], -r0
    3be0:	03340875 	teqeq	r4, #7667712	; 0x750000
    3be4:	bb100000 	bllt	403bec <__bss_end__+0x3f9bbc>
    3be8:	06000000 	streq	r0, [r0], -r0
    3bec:	03341176 	teqeq	r4, #-2147483619	; 0x8000001d
    3bf0:	10000000 	andne	r0, r0, r0
    3bf4:	0000001b 	andeq	r0, r0, fp, lsl r0
    3bf8:	56067706 	strpl	r7, [r6], -r6, lsl #14
    3bfc:	04000000 	streq	r0, [r0], #-0
    3c00:	80040800 	andhi	r0, r4, r0, lsl #16
    3c04:	12000000 	andne	r0, r0, #0
    3c08:	000003aa 	andeq	r0, r0, sl, lsr #7
    3c0c:	08b50668 	ldmeq	r5!, {r3, r5, r6, r9, sl}
    3c10:	0000047d 	andeq	r0, r0, sp, ror r4
    3c14:	00705f13 	rsbseq	r5, r0, r3, lsl pc
    3c18:	3412b606 	ldrcc	fp, [r2], #-1542	; 0xfffff9fa
    3c1c:	00000003 	andeq	r0, r0, r3
    3c20:	00725f13 	rsbseq	r5, r2, r3, lsl pc
    3c24:	5607b706 	strpl	fp, [r7], -r6, lsl #14
    3c28:	04000000 	streq	r0, [r0], #-0
    3c2c:	00775f13 	rsbseq	r5, r7, r3, lsl pc
    3c30:	5607b806 	strpl	fp, [r7], -r6, lsl #16
    3c34:	08000000 	stmdaeq	r0, {}	; <UNPREDICTABLE>
    3c38:	00011f10 	andeq	r1, r1, r0, lsl pc
    3c3c:	09b90600 	ldmibeq	r9!, {r9, sl}
    3c40:	0000006b 	andeq	r0, r0, fp, rrx
    3c44:	0208100c 	andeq	r1, r8, #12
    3c48:	ba060000 	blt	183c50 <__bss_end__+0x179c20>
    3c4c:	00006b09 	andeq	r6, r0, r9, lsl #22
    3c50:	5f130e00 	svcpl	0x00130e00
    3c54:	06006662 	streq	r6, [r0], -r2, ror #12
    3c58:	030c11bb 	movweq	r1, #49595	; 0xc1bb
    3c5c:	10100000 	andsne	r0, r0, r0
    3c60:	0000007b 	andeq	r0, r0, fp, ror r0
    3c64:	5607bc06 	strpl	fp, [r7], -r6, lsl #24
    3c68:	18000000 	stmdane	r0, {}	; <UNPREDICTABLE>
    3c6c:	00010f10 	andeq	r0, r1, r0, lsl pc
    3c70:	0ac30600 	beq	ff0c5478 <__bss_end__+0xff0bb448>
    3c74:	00000048 	andeq	r0, r0, r8, asr #32
    3c78:	0b24101c 	bleq	907cf0 <__bss_end__+0x8fdcc0>
    3c7c:	c5060000 	strgt	r0, [r6, #-0]
    3c80:	0005ef1d 	andeq	lr, r5, sp, lsl pc
    3c84:	19102000 	ldmdbne	r0, {sp}
    3c88:	06000006 	streq	r0, [r0], -r6
    3c8c:	06191dc7 	ldreq	r1, [r9], -r7, asr #27
    3c90:	10240000 	eorne	r0, r4, r0
    3c94:	0000042c 	andeq	r0, r0, ip, lsr #8
    3c98:	3d0dca06 	vstrcc	s24, [sp, #-24]	; 0xffffffe8
    3c9c:	28000006 	stmdacs	r0, {r1, r2}
    3ca0:	00051010 	andeq	r1, r5, r0, lsl r0
    3ca4:	09cb0600 	stmibeq	fp, {r9, sl}^
    3ca8:	00000657 	andeq	r0, r0, r7, asr r6
    3cac:	755f132c 	ldrbvc	r1, [pc, #-812]	; 3988 <_start-0x4678>
    3cb0:	ce060062 	cdpgt	0, 0, cr0, cr6, cr2, {3}
    3cb4:	00030c11 	andeq	r0, r3, r1, lsl ip
    3cb8:	5f133000 	svcpl	0x00133000
    3cbc:	06007075 			; <UNDEFINED> instruction: 0x06007075
    3cc0:	033412cf 	teqeq	r4, #-268435444	; 0xf000000c
    3cc4:	13380000 	teqne	r8, #0
    3cc8:	0072755f 	rsbseq	r7, r2, pc, asr r5
    3ccc:	5607d006 	strpl	sp, [r7], -r6
    3cd0:	3c000000 	stccc	0, cr0, [r0], {-0}
    3cd4:	0000b510 	andeq	fp, r0, r0, lsl r5
    3cd8:	11d30600 	bicsne	r0, r3, r0, lsl #12
    3cdc:	0000065d 	andeq	r0, r0, sp, asr r6
    3ce0:	04e81040 	strbteq	r1, [r8], #64	; 0x40
    3ce4:	d4060000 	strle	r0, [r6], #-0
    3ce8:	00066d11 	andeq	r6, r6, r1, lsl sp
    3cec:	5f134300 	svcpl	0x00134300
    3cf0:	0600626c 	streq	r6, [r0], -ip, ror #4
    3cf4:	030c11d7 	movweq	r1, #49623	; 0xc1d7
    3cf8:	10440000 	subne	r0, r4, r0
    3cfc:	0000013d 	andeq	r0, r0, sp, lsr r1
    3d00:	5607da06 	strpl	sp, [r7], -r6, lsl #20
    3d04:	4c000000 	stcmi	0, cr0, [r0], {-0}
    3d08:	00014e10 	andeq	r4, r1, r0, lsl lr
    3d0c:	0adb0600 	beq	ff6c5514 <__bss_end__+0xff6bb4e4>
    3d10:	000000b3 	strheq	r0, [r0], -r3
    3d14:	0ac51050 	beq	ff147e5c <__bss_end__+0xff13de2c>
    3d18:	de060000 	cdple	0, 0, cr0, cr6, cr0, {0}
    3d1c:	00049b12 	andeq	r9, r4, r2, lsl fp
    3d20:	1e105400 	cfmulsne	mvf5, mvf0, mvf0
    3d24:	06000004 	streq	r0, [r0], -r4
    3d28:	013a0ce2 	teqeq	sl, r2, ror #25
    3d2c:	10580000 	subsne	r0, r8, r0
    3d30:	000003b2 			; <UNDEFINED> instruction: 0x000003b2
    3d34:	2e0ee406 	cdpcs	4, 0, cr14, cr14, cr6, {0}
    3d38:	5c000001 	stcpl	0, cr0, [r0], {1}
    3d3c:	00027b10 	andeq	r7, r2, r0, lsl fp
    3d40:	09e50600 	stmibeq	r5!, {r9, sl}^
    3d44:	00000056 	andeq	r0, r0, r6, asr r0
    3d48:	56170064 	ldrpl	r0, [r7], -r4, rrx
    3d4c:	9b000000 	blls	3d54 <_start-0x42ac>
    3d50:	18000004 	stmdane	r0, {r2}
    3d54:	0000049b 	muleq	r0, fp, r4
    3d58:	00004818 	andeq	r4, r0, r8, lsl r8
    3d5c:	01461800 	cmpeq	r6, r0, lsl #16
    3d60:	56180000 	ldrpl	r0, [r8], -r0
    3d64:	00000000 	andeq	r0, r0, r0
    3d68:	04a60408 	strteq	r0, [r6], #1032	; 0x408
    3d6c:	9b110000 	blls	443d74 <__bss_end__+0x439d44>
    3d70:	19000004 	stmdbne	r0, {r2}
    3d74:	00000408 	andeq	r0, r0, r8, lsl #8
    3d78:	60060428 	andvs	r0, r6, r8, lsr #8
    3d7c:	05ef0802 	strbeq	r0, [pc, #2050]!	; 4586 <_start-0x3a7a>
    3d80:	701a0000 	andsvc	r0, sl, r0
    3d84:	06000003 	streq	r0, [r0], -r3
    3d88:	56070262 	strpl	r0, [r7], -r2, ror #4
    3d8c:	00000000 	andeq	r0, r0, r0
    3d90:	00012e1a 	andeq	r2, r1, sl, lsl lr
    3d94:	02670600 	rsbeq	r0, r7, #0, 12
    3d98:	0006c90b 	andeq	ip, r6, fp, lsl #18
    3d9c:	f81a0400 			; <UNDEFINED> instruction: 0xf81a0400
    3da0:	06000001 	streq	r0, [r0], -r1
    3da4:	c9140267 	ldmdbgt	r4, {r0, r1, r2, r5, r6, r9}
    3da8:	08000006 	stmdaeq	r0, {r1, r2}
    3dac:	0001a81a 	andeq	sl, r1, sl, lsl r8
    3db0:	02670600 	rsbeq	r0, r7, #0, 12
    3db4:	0006c91e 	andeq	ip, r6, lr, lsl r9
    3db8:	d31a0c00 	tstle	sl, #0, 24
    3dbc:	06000003 	streq	r0, [r0], -r3
    3dc0:	56080269 	strpl	r0, [r8], -r9, ror #4
    3dc4:	10000000 	andne	r0, r0, r0
    3dc8:	0000291a 	andeq	r2, r0, sl, lsl r9
    3dcc:	026a0600 	rsbeq	r0, sl, #0, 12
    3dd0:	0008c908 	andeq	ip, r8, r8, lsl #18
    3dd4:	e71a1400 	ldr	r1, [sl, -r0, lsl #8]
    3dd8:	06000003 	streq	r0, [r0], -r3
    3ddc:	5607026d 	strpl	r0, [r7], -sp, ror #4
    3de0:	30000000 	andcc	r0, r0, r0
    3de4:	000a011a 	andeq	r0, sl, sl, lsl r1
    3de8:	026e0600 	rsbeq	r0, lr, #0, 12
    3dec:	0008de16 	andeq	sp, r8, r6, lsl lr
    3df0:	b21a3400 	andslt	r3, sl, #0, 8
    3df4:	06000002 	streq	r0, [r0], -r2
    3df8:	56070270 			; <UNDEFINED> instruction: 0x56070270
    3dfc:	38000000 	stmdacc	r0, {}	; <UNPREDICTABLE>
    3e00:	0003dd1a 	andeq	sp, r3, sl, lsl sp
    3e04:	02720600 	rsbseq	r0, r2, #0, 12
    3e08:	0008ef0a 	andeq	lr, r8, sl, lsl #30
    3e0c:	571a3c00 	ldrpl	r3, [sl, -r0, lsl #24]
    3e10:	06000002 	streq	r0, [r0], -r2
    3e14:	be130275 	mrclt	2, 0, r0, cr3, cr5, {3}
    3e18:	40000001 	andmi	r0, r0, r1
    3e1c:	0001c71a 	andeq	ip, r1, sl, lsl r7
    3e20:	02760600 	rsbseq	r0, r6, #0, 12
    3e24:	00005607 	andeq	r5, r0, r7, lsl #12
    3e28:	2a1a4400 	bcs	694e30 <__bss_end__+0x68ae00>
    3e2c:	06000005 	streq	r0, [r0], -r5
    3e30:	be130277 	mrclt	2, 0, r0, cr3, cr7, {3}
    3e34:	48000001 	stmdami	r0, {r0}
    3e38:	0002c41a 	andeq	ip, r2, sl, lsl r4
    3e3c:	02780600 	rsbseq	r0, r8, #0, 12
    3e40:	0008f514 	andeq	pc, r8, r4, lsl r5	; <UNPREDICTABLE>
    3e44:	001a4c00 	andseq	r4, sl, r0, lsl #24
    3e48:	06000002 	streq	r0, [r0], -r2
    3e4c:	5607027b 			; <UNDEFINED> instruction: 0x5607027b
    3e50:	50000000 	andpl	r0, r0, r0
    3e54:	0001461a 	andeq	r4, r1, sl, lsl r6
    3e58:	027c0600 	rsbseq	r0, ip, #0, 12
    3e5c:	00014609 	andeq	r4, r1, r9, lsl #12
    3e60:	ea1a5400 	b	698e68 <__bss_end__+0x68ee38>
    3e64:	06000002 	streq	r0, [r0], -r2
    3e68:	a407029f 	strge	r0, [r7], #-671	; 0xfffffd61
    3e6c:	58000008 	stmdapl	r0, {r3}
    3e70:	0002aa1b 	andeq	sl, r2, fp, lsl sl
    3e74:	02a30600 	adceq	r0, r3, #0, 12
    3e78:	0002ef13 	andeq	lr, r2, r3, lsl pc
    3e7c:	1b014800 	blne	55e84 <__bss_end__+0x4be54>
    3e80:	00000235 	andeq	r0, r0, r5, lsr r2
    3e84:	1202a406 	andne	sl, r2, #100663296	; 0x6000000
    3e88:	000002ac 	andeq	r0, r0, ip, lsr #5
    3e8c:	d61b014c 	ldrle	r0, [fp], -ip, asr #2
    3e90:	06000004 	streq	r0, [r0], -r4
    3e94:	060c02a8 	streq	r0, [ip], -r8, lsr #5
    3e98:	dc000009 	stcle	0, cr0, [r0], {9}
    3e9c:	01171b02 	tsteq	r7, r2, lsl #22
    3ea0:	ad060000 	stcge	0, cr0, [r6, #-0]
    3ea4:	068a1002 	streq	r1, [sl], r2
    3ea8:	02e00000 	rsceq	r0, r0, #0
    3eac:	0000fc1b 	andeq	pc, r0, fp, lsl ip	; <UNPREDICTABLE>
    3eb0:	02af0600 	adceq	r0, pc, #0, 12
    3eb4:	0009120a 	andeq	r1, r9, sl, lsl #4
    3eb8:	0002ec00 	andeq	lr, r2, r0, lsl #24
    3ebc:	047d0408 	ldrbteq	r0, [sp], #-1032	; 0xfffffbf8
    3ec0:	56170000 	ldrpl	r0, [r7], -r0
    3ec4:	13000000 	movwne	r0, #0
    3ec8:	18000006 	stmdane	r0, {r1, r2}
    3ecc:	0000049b 	muleq	r0, fp, r4
    3ed0:	00004818 	andeq	r4, r0, r8, lsl r8
    3ed4:	06131800 	ldreq	r1, [r3], -r0, lsl #16
    3ed8:	56180000 	ldrpl	r0, [r8], -r0
    3edc:	00000000 	andeq	r0, r0, r0
    3ee0:	01530408 	cmpeq	r3, r8, lsl #8
    3ee4:	04080000 	streq	r0, [r8], #-0
    3ee8:	000005f5 	strdeq	r0, [r0], -r5
    3eec:	0000bf17 	andeq	fp, r0, r7, lsl pc
    3ef0:	00063d00 	andeq	r3, r6, r0, lsl #26
    3ef4:	049b1800 	ldreq	r1, [fp], #2048	; 0x800
    3ef8:	48180000 	ldmdami	r8, {}	; <UNPREDICTABLE>
    3efc:	18000000 	stmdane	r0, {}	; <UNPREDICTABLE>
    3f00:	000000bf 	strheq	r0, [r0], -pc	; <UNPREDICTABLE>
    3f04:	00005618 	andeq	r5, r0, r8, lsl r6
    3f08:	04080000 	streq	r0, [r8], #-0
    3f0c:	0000061f 	andeq	r0, r0, pc, lsl r6
    3f10:	00005617 	andeq	r5, r0, r7, lsl r6
    3f14:	00065700 	andeq	r5, r6, r0, lsl #14
    3f18:	049b1800 	ldreq	r1, [fp], #2048	; 0x800
    3f1c:	48180000 	ldmdami	r8, {}	; <UNPREDICTABLE>
    3f20:	00000000 	andeq	r0, r0, r0
    3f24:	06430408 	strbeq	r0, [r3], -r8, lsl #8
    3f28:	800d0000 	andhi	r0, sp, r0
    3f2c:	6d000000 	stcvs	0, cr0, [r0, #-0]
    3f30:	0e000006 	cdpeq	0, 0, cr0, cr0, cr6, {0}
    3f34:	0000005d 	andeq	r0, r0, sp, asr r0
    3f38:	800d0002 	andhi	r0, sp, r2
    3f3c:	7d000000 	stcvc	0, cr0, [r0, #-0]
    3f40:	0e000006 	cdpeq	0, 0, cr0, cr0, cr6, {0}
    3f44:	0000005d 	andeq	r0, r0, sp, asr r0
    3f48:	980a0000 	stmdals	sl, {}	; <UNPREDICTABLE>
    3f4c:	06000003 	streq	r0, [r0], -r3
    3f50:	3a1a011f 	bcc	6843d4 <__bss_end__+0x67a3a4>
    3f54:	1c000003 	stcne	0, cr0, [r0], {3}
    3f58:	000004bd 			; <UNDEFINED> instruction: 0x000004bd
    3f5c:	0123060c 			; <UNDEFINED> instruction: 0x0123060c
    3f60:	0006c308 	andeq	ip, r6, r8, lsl #6
    3f64:	03c01a00 	biceq	r1, r0, #0, 20
    3f68:	25060000 	strcs	r0, [r6, #-0]
    3f6c:	06c31101 	strbeq	r1, [r3], r1, lsl #2
    3f70:	1a000000 	bne	3f78 <_start-0x4088>
    3f74:	0000021b 	andeq	r0, r0, fp, lsl r2
    3f78:	07012606 	streq	r2, [r1, -r6, lsl #12]
    3f7c:	00000056 	andeq	r0, r0, r6, asr r0
    3f80:	03921a04 	orrseq	r1, r2, #4, 20	; 0x4000
    3f84:	27060000 	strcs	r0, [r6, -r0]
    3f88:	06c90b01 	strbeq	r0, [r9], r1, lsl #22
    3f8c:	00080000 	andeq	r0, r8, r0
    3f90:	068a0408 	streq	r0, [sl], r8, lsl #8
    3f94:	04080000 	streq	r0, [r8], #-0
    3f98:	0000067d 	andeq	r0, r0, sp, ror r6
    3f9c:	0000211c 	andeq	r2, r0, ip, lsl r1
    3fa0:	3f060e00 	svccc	0x00060e00
    3fa4:	07080801 	streq	r0, [r8, -r1, lsl #16]
    3fa8:	0f1a0000 	svceq	0x001a0000
    3fac:	06000004 	streq	r0, [r0], -r4
    3fb0:	08120140 	ldmdaeq	r2, {r6, r8}
    3fb4:	00000007 	andeq	r0, r0, r7
    3fb8:	0004431a 	andeq	r4, r4, sl, lsl r3
    3fbc:	01410600 	cmpeq	r1, r0, lsl #12
    3fc0:	00070812 	andeq	r0, r7, r2, lsl r8
    3fc4:	5f1a0600 	svcpl	0x001a0600
    3fc8:	06000004 	streq	r0, [r0], -r4
    3fcc:	87120142 	ldrhi	r0, [r2, -r2, asr #2]
    3fd0:	0c000000 	stceq	0, cr0, [r0], {-0}
    3fd4:	00870d00 	addeq	r0, r7, r0, lsl #26
    3fd8:	07180000 	ldreq	r0, [r8, -r0]
    3fdc:	5d0e0000 	stcpl	0, cr0, [lr, #-0]
    3fe0:	02000000 	andeq	r0, r0, #0
    3fe4:	06d01d00 	ldrbeq	r1, [r0], r0, lsl #26
    3fe8:	2d070280 	sfmcs	f0, 4, [r7, #-512]	; 0xfffffe00
    3fec:	1a000008 	bne	4014 <_start-0x3fec>
    3ff0:	000004a1 	andeq	r0, r0, r1, lsr #9
    3ff4:	18028206 	stmdane	r2, {r1, r2, r9, pc}
    3ff8:	0000005d 	andeq	r0, r0, sp, asr r0
    3ffc:	04491a00 	strbeq	r1, [r9], #-2560	; 0xfffff600
    4000:	83060000 	movwhi	r0, #24576	; 0x6000
    4004:	01461202 	cmpeq	r6, r2, lsl #4
    4008:	1a040000 	bne	104010 <__bss_end__+0xf9fe0>
    400c:	0000024a 	andeq	r0, r0, sl, asr #4
    4010:	10028406 	andne	r8, r2, r6, lsl #8
    4014:	0000082d 	andeq	r0, r0, sp, lsr #16
    4018:	05011a08 	streq	r1, [r1, #-2568]	; 0xfffff5f8
    401c:	85060000 	strhi	r0, [r6, #-0]
    4020:	01d41702 	bicseq	r1, r4, r2, lsl #14
    4024:	1a240000 	bne	90402c <__bss_end__+0x8f9ffc>
    4028:	000001b8 			; <UNDEFINED> instruction: 0x000001b8
    402c:	0f028606 	svceq	0x00028606
    4030:	00000056 	andeq	r0, r0, r6, asr r0
    4034:	03bb1a48 			; <UNDEFINED> instruction: 0x03bb1a48
    4038:	87060000 	strhi	r0, [r6, -r0]
    403c:	00952c02 	addseq	r2, r5, r2, lsl #24
    4040:	1a500000 	bne	1404048 <__bss_end__+0x13fa018>
    4044:	00000517 	andeq	r0, r0, r7, lsl r5
    4048:	1a028806 	bne	a6068 <__bss_end__+0x9c038>
    404c:	000006cf 	andeq	r0, r0, pc, asr #13
    4050:	03c61a58 	biceq	r1, r6, #88, 20	; 0x58000
    4054:	89060000 	stmdbhi	r6, {}	; <UNPREDICTABLE>
    4058:	012e1602 			; <UNDEFINED> instruction: 0x012e1602
    405c:	1a680000 	bne	1a04064 <__bss_end__+0x19fa034>
    4060:	0000051c 	andeq	r0, r0, ip, lsl r5
    4064:	16028a06 	strne	r8, [r2], -r6, lsl #20
    4068:	0000012e 	andeq	r0, r0, lr, lsr #2
    406c:	02ce1a70 	sbceq	r1, lr, #112, 20	; 0x70000
    4070:	8b060000 	blhi	184078 <__bss_end__+0x17a048>
    4074:	012e1602 			; <UNDEFINED> instruction: 0x012e1602
    4078:	1a780000 	bne	1e04080 <__bss_end__+0x1dfa050>
    407c:	000004cc 	andeq	r0, r0, ip, asr #9
    4080:	10028c06 	andne	r8, r2, r6, lsl #24
    4084:	0000083d 	andeq	r0, r0, sp, lsr r8
    4088:	023e1a80 	eorseq	r1, lr, #128, 20	; 0x80000
    408c:	8d060000 	stchi	0, cr0, [r6, #-0]
    4090:	084d1002 	stmdaeq	sp, {r1, ip}^
    4094:	1a880000 	bne	fe20409c <__bss_end__+0xfe1fa06c>
    4098:	0000046c 	andeq	r0, r0, ip, ror #8
    409c:	0f028e06 	svceq	0x00028e06
    40a0:	00000056 	andeq	r0, r0, r6, asr r0
    40a4:	017e1aa0 	cmneq	lr, r0, lsr #21
    40a8:	8f060000 	svchi	0x00060000
    40ac:	012e1602 			; <UNDEFINED> instruction: 0x012e1602
    40b0:	1aa40000 	bne	fe9040b8 <__bss_end__+0xfe8fa088>
    40b4:	0000008f 	andeq	r0, r0, pc, lsl #1
    40b8:	16029006 	strne	r9, [r2], -r6
    40bc:	0000012e 	andeq	r0, r0, lr, lsr #2
    40c0:	016d1aac 	cmneq	sp, ip, lsr #21
    40c4:	91060000 	mrsls	r0, (UNDEF: 6)
    40c8:	012e1602 			; <UNDEFINED> instruction: 0x012e1602
    40cc:	1ab40000 	bne	fed040d4 <__bss_end__+0xfecfa0a4>
    40d0:	0000003c 	andeq	r0, r0, ip, lsr r0
    40d4:	16029206 	strne	r9, [r2], -r6, lsl #4
    40d8:	0000012e 	andeq	r0, r0, lr, lsr #2
    40dc:	004b1abc 	strheq	r1, [fp], #-172	; 0xffffff54
    40e0:	93060000 	movwls	r0, #24576	; 0x6000
    40e4:	012e1602 			; <UNDEFINED> instruction: 0x012e1602
    40e8:	1ac40000 	bne	ff1040f0 <__bss_end__+0xff0fa0c0>
    40ec:	0000036e 	andeq	r0, r0, lr, ror #6
    40f0:	08029406 	stmdaeq	r2, {r1, r2, sl, ip, pc}
    40f4:	00000056 	andeq	r0, r0, r6, asr r0
    40f8:	4c0d00cc 	stcmi	0, cr0, [sp], {204}	; 0xcc
    40fc:	3d000001 	stccc	0, cr0, [r0, #-4]
    4100:	0e000008 	cdpeq	0, 0, cr0, cr0, cr8, {0}
    4104:	0000005d 	andeq	r0, r0, sp, asr r0
    4108:	4c0d0019 	stcmi	0, cr0, [sp], {25}
    410c:	4d000001 	stcmi	0, cr0, [r0, #-4]
    4110:	0e000008 	cdpeq	0, 0, cr0, cr0, cr8, {0}
    4114:	0000005d 	andeq	r0, r0, sp, asr r0
    4118:	4c0d0007 	stcmi	0, cr0, [sp], {7}
    411c:	5d000001 	stcpl	0, cr0, [r0, #-4]
    4120:	0e000008 	cdpeq	0, 0, cr0, cr0, cr8, {0}
    4124:	0000005d 	andeq	r0, r0, sp, asr r0
    4128:	f01d0017 			; <UNDEFINED> instruction: 0xf01d0017
    412c:	07029906 	streq	r9, [r2, -r6, lsl #18]
    4130:	00000884 	andeq	r0, r0, r4, lsl #17
    4134:	00029a1a 	andeq	r9, r2, sl, lsl sl
    4138:	029c0600 	addseq	r0, ip, #0, 12
    413c:	0008841b 	andeq	r8, r8, fp, lsl r4
    4140:	c31a0000 	tstgt	sl, #0
    4144:	06000004 	streq	r0, [r0], -r4
    4148:	9418029d 	ldrls	r0, [r8], #-669	; 0xfffffd63
    414c:	78000008 	stmdavc	r0, {r3}
    4150:	03340d00 	teqeq	r4, #0, 26
    4154:	08940000 	ldmeq	r4, {}	; <UNPREDICTABLE>
    4158:	5d0e0000 	stcpl	0, cr0, [lr, #-0]
    415c:	1d000000 	stcne	0, cr0, [r0, #-0]
    4160:	005d0d00 	subseq	r0, sp, r0, lsl #26
    4164:	08a40000 	stmiaeq	r4!, {}	; <UNPREDICTABLE>
    4168:	5d0e0000 	stcpl	0, cr0, [lr, #-0]
    416c:	1d000000 	stcne	0, cr0, [r0, #-0]
    4170:	06f01e00 	ldrbteq	r1, [r0], r0, lsl #28
    4174:	c903027e 	stmdbgt	r3, {r1, r2, r3, r4, r5, r6, r9}
    4178:	1f000008 	svcne	0x00000008
    417c:	00000408 	andeq	r0, r0, r8, lsl #8
    4180:	0b029506 	bleq	a95a0 <__bss_end__+0x9f570>
    4184:	00000718 	andeq	r0, r0, r8, lsl r7
    4188:	0004ee1f 	andeq	lr, r4, pc, lsl lr
    418c:	029e0600 	addseq	r0, lr, #0, 12
    4190:	00085d0b 	andeq	r5, r8, fp, lsl #26
    4194:	4c0d0000 	stcmi	0, cr0, [sp], {-0}
    4198:	d9000001 	stmdble	r0, {r0}
    419c:	0e000008 	cdpeq	0, 0, cr0, cr0, cr8, {0}
    41a0:	0000005d 	andeq	r0, r0, sp, asr r0
    41a4:	84090018 	strhi	r0, [r9], #-24	; 0xffffffe8
    41a8:	08000000 	stmdaeq	r0, {}	; <UNPREDICTABLE>
    41ac:	0008d904 	andeq	sp, r8, r4, lsl #18
    41b0:	08ef2000 	stmiaeq	pc!, {sp}^	; <UNPREDICTABLE>
    41b4:	9b180000 	blls	6041bc <__bss_end__+0x5fa18c>
    41b8:	00000004 	andeq	r0, r0, r4
    41bc:	08e40408 	stmiaeq	r4!, {r3, sl}^
    41c0:	04080000 	streq	r0, [r8], #-0
    41c4:	000001be 			; <UNDEFINED> instruction: 0x000001be
    41c8:	00090620 	andeq	r0, r9, r0, lsr #12
    41cc:	00561800 	subseq	r1, r6, r0, lsl #16
    41d0:	08000000 	stmdaeq	r0, {}	; <UNPREDICTABLE>
    41d4:	00090c04 	andeq	r0, r9, r4, lsl #24
    41d8:	fb040800 	blx	1061e2 <__bss_end__+0xfc1b2>
    41dc:	0d000008 	stceq	0, cr0, [r0, #-32]	; 0xffffffe0
    41e0:	0000067d 	andeq	r0, r0, sp, ror r6
    41e4:	00000922 	andeq	r0, r0, r2, lsr #18
    41e8:	00005d0e 	andeq	r5, r0, lr, lsl #26
    41ec:	21000200 	mrscs	r0, R8_usr
    41f0:	0000048e 	andeq	r0, r0, lr, lsl #9
    41f4:	17032e06 	strne	r2, [r3, -r6, lsl #28]
    41f8:	0000049b 	muleq	r0, fp, r4
    41fc:	00048721 	andeq	r8, r4, r1, lsr #14
    4200:	032f0600 			; <UNDEFINED> instruction: 0x032f0600
    4204:	0004a11d 	andeq	sl, r4, sp, lsl r1
    4208:	00561700 	subseq	r1, r6, r0, lsl #14
    420c:	094b0000 	stmdbeq	fp, {}^	; <UNPREDICTABLE>
    4210:	56180000 	ldrpl	r0, [r8], -r0
    4214:	00000000 	andeq	r0, r0, r0
    4218:	0001d122 	andeq	sp, r1, r2, lsr #2
    421c:	0e1d0700 	cdpeq	7, 1, cr0, cr13, cr0, {0}
    4220:	00000957 	andeq	r0, r0, r7, asr r9
    4224:	093c0408 	ldmdbeq	ip!, {r3, sl}
    4228:	56170000 	ldrpl	r0, [r7], -r0
    422c:	6c000000 	stcvs	0, cr0, [r0], {-0}
    4230:	18000009 	stmdane	r0, {r0, r3}
    4234:	00000613 	andeq	r0, r0, r3, lsl r6
    4238:	07682200 	strbeq	r2, [r8, -r0, lsl #4]!
    423c:	22070000 	andcs	r0, r7, #0
    4240:	0009780e 	andeq	r7, r9, lr, lsl #16
    4244:	5d040800 	stcpl	8, cr0, [r4, #-0]
    4248:	23000009 	movwcs	r0, #9
    424c:	000006ff 	strdeq	r0, [r0], -pc	; <UNPREDICTABLE>
    4250:	56050601 	strpl	r0, [r5], -r1, lsl #12
    4254:	78000000 	stmdavc	r0, {}	; <UNPREDICTABLE>
    4258:	5800008a 	stmdapl	r0, {r1, r3, r7}
    425c:	01000000 	mrseq	r0, (UNDEF: 0)
    4260:	000a119c 	muleq	sl, ip, r1
    4264:	6d662400 	cfstrdvs	mvd2, [r6, #-0]
    4268:	06010074 			; <UNDEFINED> instruction: 0x06010074
    426c:	00061318 	andeq	r1, r6, r8, lsl r3
    4270:	70910200 	addsvc	r0, r1, r0, lsl #4
    4274:	75622625 	strbvc	r2, [r2, #-1573]!	; 0xfffff9db
    4278:	08010066 	stmdaeq	r1, {r1, r2, r5, r6}
    427c:	000a1111 	andeq	r1, sl, r1, lsl r1
    4280:	30030500 	andcc	r0, r3, r0, lsl #10
    4284:	2700009c 			; <UNDEFINED> instruction: 0x2700009c
    4288:	0000010a 	andeq	r0, r0, sl, lsl #2
    428c:	4a0d0901 	bmi	346698 <__bss_end__+0x33c668>
    4290:	02000000 	andeq	r0, r0, #0
    4294:	73285c91 			; <UNDEFINED> instruction: 0x73285c91
    4298:	0c01007a 	stceq	0, cr0, [r1], {122}	; 0x7a
    429c:	0000560d 	andeq	r5, r0, sp, lsl #12
    42a0:	000a4c00 	andeq	r4, sl, r0, lsl #24
    42a4:	000a4600 	andeq	r4, sl, r0, lsl #12
    42a8:	8aa02900 	bhi	fe80e6b0 <__bss_end__+0xfe804680>
    42ac:	0a220000 	beq	8842b4 <__bss_end__+0x87a284>
    42b0:	0a040000 	beq	1042b8 <__bss_end__+0xfa288>
    42b4:	012a0000 			; <UNDEFINED> instruction: 0x012a0000
    42b8:	00750250 	rsbseq	r0, r5, r0, asr r2
    42bc:	0351012a 	cmpeq	r1, #-2147483638	; 0x8000000a
    42c0:	2a04000a 	bcs	1042f0 <__bss_end__+0xfa2c0>
    42c4:	91035201 	tstls	r3, r1, lsl #4
    42c8:	012a0648 			; <UNDEFINED> instruction: 0x012a0648
    42cc:	4c910253 	lfmmi	f0, 4, [r1], {83}	; 0x53
    42d0:	8ab42b00 	bhi	fed0eed8 <__bss_end__+0xfed04ea8>
    42d4:	012a0000 			; <UNDEFINED> instruction: 0x012a0000
    42d8:	00750250 	rsbseq	r0, r5, r0, asr r2
    42dc:	4c0d0000 	stcmi	0, cr0, [sp], {-0}
    42e0:	22000001 	andcs	r0, r0, #1
    42e4:	2c00000a 	stccs	0, cr0, [r0], {10}
    42e8:	0000005d 	andeq	r0, r0, sp, asr r0
    42ec:	2d0003ff 	stccs	3, cr0, [r0, #-1020]	; 0xfffffc04
    42f0:	000006fc 	strdeq	r0, [r0], -ip
    42f4:	000006fc 	strdeq	r0, [r0], -ip
    42f8:	00050209 	andeq	r0, r5, r9, lsl #4
    42fc:	000009d9 	ldrdeq	r0, [r0], -r9
    4300:	0c440004 	mcrreq	0, 0, r0, r4, cr4
    4304:	01040000 	mrseq	r0, (UNDEF: 4)
    4308:	000002ef 	andeq	r0, r0, pc, ror #5
    430c:	0007500c 	andeq	r5, r7, ip
    4310:	0006c100 	andeq	ip, r6, r0, lsl #2
    4314:	008ad000 	addeq	sp, sl, r0
    4318:	00003c00 	andeq	r3, r0, r0, lsl #24
    431c:	000cea00 	andeq	lr, ip, r0, lsl #20
    4320:	05040200 	streq	r0, [r4, #-512]	; 0xfffffe00
    4324:	00746e69 	rsbseq	r6, r4, r9, ror #28
    4328:	66070403 	strvs	r0, [r7], -r3, lsl #8
    432c:	03000000 	movweq	r0, #0
    4330:	02de0601 	sbcseq	r0, lr, #1048576	; 0x100000
    4334:	02030000 	andeq	r0, r3, #0
    4338:	00037705 	andeq	r7, r3, r5, lsl #14
    433c:	05040300 	streq	r0, [r4, #-768]	; 0xfffffd00
    4340:	000000ac 	andeq	r0, r0, ip, lsr #1
    4344:	a7050803 	strge	r0, [r5, -r3, lsl #16]
    4348:	03000000 	movweq	r0, #0
    434c:	02dc0801 	sbcseq	r0, ip, #65536	; 0x10000
    4350:	02030000 	andeq	r0, r3, #0
    4354:	00022207 	andeq	r2, r2, r7, lsl #4
    4358:	07040300 	streq	r0, [r4, -r0, lsl #6]
    435c:	00000061 	andeq	r0, r0, r1, rrx
    4360:	5c070803 	stcpl	8, cr0, [r7], {3}
    4364:	04000000 	streq	r0, [r0], #-0
    4368:	00000265 	andeq	r0, r0, r5, ror #4
    436c:	77192202 	ldrvc	r2, [r9, -r2, lsl #4]
    4370:	05000000 	streq	r0, [r0, #-0]
    4374:	00007d04 	andeq	r7, r0, r4, lsl #26
    4378:	041d0600 	ldreq	r0, [sp], #-1536	; 0xfffffa00
    437c:	bd040000 	stclt	0, cr0, [r4, #-0]
    4380:	03000002 	movweq	r0, #2
    4384:	00410e2c 	subeq	r0, r1, ip, lsr #28
    4388:	32040000 	andcc	r0, r4, #0
    438c:	03000004 	movweq	r0, #4
    4390:	00410e72 	subeq	r0, r1, r2, ror lr
    4394:	6d070000 	stcvs	0, cr0, [r7, #-0]
    4398:	04000002 	streq	r0, [r0], #-2
    439c:	2c17015e 	ldfcss	f0, [r7], {94}	; 0x5e
    43a0:	08000000 	stmdaeq	r0, {}	; <UNPREDICTABLE>
    43a4:	03a60304 			; <UNDEFINED> instruction: 0x03a60304
    43a8:	000000c9 	andeq	r0, r0, r9, asr #1
    43ac:	00025f09 	andeq	r5, r2, r9, lsl #30
    43b0:	0ca80300 	stceq	3, cr0, [r8]
    43b4:	0000009a 	muleq	r0, sl, r0
    43b8:	0001e209 	andeq	lr, r1, r9, lsl #4
    43bc:	13a90300 			; <UNDEFINED> instruction: 0x13a90300
    43c0:	000000c9 	andeq	r0, r0, r9, asr #1
    43c4:	004f0a00 	subeq	r0, pc, r0, lsl #20
    43c8:	00d90000 	sbcseq	r0, r9, r0
    43cc:	2c0b0000 	stccs	0, cr0, [fp], {-0}
    43d0:	03000000 	movweq	r0, #0
    43d4:	03080c00 	movweq	r0, #35840	; 0x8c00
    43d8:	00fd09a3 	rscseq	r0, sp, r3, lsr #19
    43dc:	150d0000 	strne	r0, [sp, #-0]
    43e0:	03000004 	movweq	r0, #4
    43e4:	002507a5 	eoreq	r0, r5, r5, lsr #15
    43e8:	0d000000 	stceq	0, cr0, [r0, #-0]
    43ec:	00000424 	andeq	r0, r0, r4, lsr #8
    43f0:	a705aa03 	strge	sl, [r5, -r3, lsl #20]
    43f4:	04000000 	streq	r0, [r0], #-0
    43f8:	039f0400 	orrseq	r0, pc, #0, 8
    43fc:	ab030000 	blge	c4404 <__bss_end__+0xba3d4>
    4400:	0000d903 	andeq	sp, r0, r3, lsl #18
    4404:	019f0400 	orrseq	r0, pc, r0, lsl #8
    4408:	af030000 	svcge	0x00030000
    440c:	00006b1b 	andeq	r6, r0, fp, lsl fp
    4410:	05040e00 	streq	r0, [r4, #-3584]	; 0xfffff200
    4414:	00011d04 	andeq	r1, r1, r4, lsl #26
    4418:	08010300 	stmdaeq	r1, {r8, r9}
    441c:	000002e5 	andeq	r0, r0, r5, ror #5
    4420:	00011d0f 	andeq	r1, r1, pc, lsl #26
    4424:	04640400 	strbteq	r0, [r4], #-1024	; 0xfffffc00
    4428:	16050000 	strne	r0, [r5], -r0
    442c:	00005d19 	andeq	r5, r0, r9, lsl sp
    4430:	01b01000 	movseq	r1, r0
    4434:	05180000 	ldreq	r0, [r8, #-0]
    4438:	018f082f 	orreq	r0, pc, pc, lsr #16
    443c:	c00d0000 	andgt	r0, sp, r0
    4440:	05000003 	streq	r0, [r0, #-3]
    4444:	018f1331 	orreq	r1, pc, r1, lsr r3	; <UNPREDICTABLE>
    4448:	11000000 	mrsne	r0, (UNDEF: 0)
    444c:	05006b5f 	streq	r6, [r0, #-2911]	; 0xfffff4a1
    4450:	00250732 	eoreq	r0, r5, r2, lsr r7
    4454:	0d040000 	stceq	0, cr0, [r4, #-0]
    4458:	00000400 	andeq	r0, r0, r0, lsl #8
    445c:	250b3205 	strcs	r3, [fp, #-517]	; 0xfffffdfb
    4460:	08000000 	stmdaeq	r0, {}	; <UNPREDICTABLE>
    4464:	0001990d 	andeq	r9, r1, sp, lsl #18
    4468:	14320500 	ldrtne	r0, [r2], #-1280	; 0xfffffb00
    446c:	00000025 	andeq	r0, r0, r5, lsr #32
    4470:	04ae0d0c 	strteq	r0, [lr], #3340	; 0xd0c
    4474:	32050000 	andcc	r0, r5, #0
    4478:	0000251b 	andeq	r2, r0, fp, lsl r5
    447c:	5f111000 	svcpl	0x00111000
    4480:	33050078 	movwcc	r0, #20600	; 0x5078
    4484:	0001950b 	andeq	r9, r1, fp, lsl #10
    4488:	05001400 	streq	r1, [r0, #-1024]	; 0xfffffc00
    448c:	00013504 	andeq	r3, r1, r4, lsl #10
    4490:	01290a00 			; <UNDEFINED> instruction: 0x01290a00
    4494:	01a50000 			; <UNDEFINED> instruction: 0x01a50000
    4498:	2c0b0000 	stccs	0, cr0, [fp], {-0}
    449c:	00000000 	andeq	r0, r0, r0
    44a0:	01dd1000 	bicseq	r1, sp, r0
    44a4:	05240000 	streq	r0, [r4, #-0]!
    44a8:	02280837 	eoreq	r0, r8, #3604480	; 0x370000
    44ac:	9e0d0000 	cdpls	0, 0, cr0, cr13, cr0, {0}
    44b0:	05000000 	streq	r0, [r0, #-0]
    44b4:	00250939 	eoreq	r0, r5, r9, lsr r9
    44b8:	0d000000 	stceq	0, cr0, [r0, #-0]
    44bc:	0000043a 	andeq	r0, r0, sl, lsr r4
    44c0:	25093a05 	strcs	r3, [r9, #-2565]	; 0xfffff5fb
    44c4:	04000000 	streq	r0, [r0], #-0
    44c8:	0000c10d 	andeq	ip, r0, sp, lsl #2
    44cc:	093b0500 	ldmdbeq	fp!, {r8, sl}
    44d0:	00000025 	andeq	r0, r0, r5, lsr #32
    44d4:	052f0d08 	streq	r0, [pc, #-3336]!	; 37d4 <_start-0x482c>
    44d8:	3c050000 	stccc	0, cr0, [r5], {-0}
    44dc:	00002509 	andeq	r2, r0, r9, lsl #10
    44e0:	a10d0c00 	tstge	sp, r0, lsl #24
    44e4:	05000002 	streq	r0, [r0, #-2]
    44e8:	0025093d 	eoreq	r0, r5, sp, lsr r9
    44ec:	0d100000 	ldceq	0, cr0, [r0, #-0]
    44f0:	00000283 	andeq	r0, r0, r3, lsl #5
    44f4:	25093e05 	strcs	r3, [r9, #-3589]	; 0xfffff1fb
    44f8:	14000000 	strne	r0, [r0], #-0
    44fc:	0004b30d 	andeq	fp, r4, sp, lsl #6
    4500:	093f0500 	ldmdbeq	pc!, {r8, sl}	; <UNPREDICTABLE>
    4504:	00000025 	andeq	r0, r0, r5, lsr #32
    4508:	03810d18 	orreq	r0, r1, #24, 26	; 0x600
    450c:	40050000 	andmi	r0, r5, r0
    4510:	00002509 	andeq	r2, r0, r9, lsl #10
    4514:	f60d1c00 			; <UNDEFINED> instruction: 0xf60d1c00
    4518:	05000004 	streq	r0, [r0, #-4]
    451c:	00250941 	eoreq	r0, r5, r1, asr #18
    4520:	00200000 	eoreq	r0, r0, r0
    4524:	00010112 	andeq	r0, r1, r2, lsl r1
    4528:	05010800 	streq	r0, [r1, #-2048]	; 0xfffff800
    452c:	026d084a 	rsbeq	r0, sp, #4849664	; 0x4a0000
    4530:	8c0d0000 	stchi	0, cr0, [sp], {-0}
    4534:	05000001 	streq	r0, [r0, #-1]
    4538:	026d0a4b 	rsbeq	r0, sp, #307200	; 0x4b000
    453c:	0d000000 	stceq	0, cr0, [r0, #-0]
    4540:	00000000 	andeq	r0, r0, r0
    4544:	6d094c05 	stcvs	12, cr4, [r9, #-20]	; 0xffffffec
    4548:	80000002 	andhi	r0, r0, r2
    454c:	00045613 	andeq	r5, r4, r3, lsl r6
    4550:	0a4e0500 	beq	1385958 <__bss_end__+0x137b928>
    4554:	00000129 	andeq	r0, r0, r9, lsr #2
    4558:	26130100 	ldrcs	r0, [r3], -r0, lsl #2
    455c:	05000001 	streq	r0, [r0, #-1]
    4560:	01290a51 			; <UNDEFINED> instruction: 0x01290a51
    4564:	01040000 	mrseq	r0, (UNDEF: 4)
    4568:	01150a00 	tsteq	r5, r0, lsl #20
    456c:	027d0000 	rsbseq	r0, sp, #0
    4570:	2c0b0000 	stccs	0, cr0, [fp], {-0}
    4574:	1f000000 	svcne	0x00000000
    4578:	02aa1200 	adceq	r1, sl, #0, 4
    457c:	01900000 	orrseq	r0, r0, r0
    4580:	c0085d05 	andgt	r5, r8, r5, lsl #26
    4584:	0d000002 	stceq	0, cr0, [r0, #-8]
    4588:	000003c0 	andeq	r0, r0, r0, asr #7
    458c:	c0125e05 	andsgt	r5, r2, r5, lsl #28
    4590:	00000002 	andeq	r0, r0, r2
    4594:	0003d80d 	andeq	sp, r3, sp, lsl #16
    4598:	065f0500 	ldrbeq	r0, [pc], -r0, lsl #10
    459c:	00000025 	andeq	r0, r0, r5, lsr #32
    45a0:	01940d04 	orrseq	r0, r4, r4, lsl #26
    45a4:	61050000 	mrsvs	r0, (UNDEF: 5)
    45a8:	0002c609 	andeq	ip, r2, r9, lsl #12
    45ac:	010d0800 	tsteq	sp, r0, lsl #16
    45b0:	05000001 	streq	r0, [r0, #-1]
    45b4:	02281e62 	eoreq	r1, r8, #1568	; 0x620
    45b8:	00880000 	addeq	r0, r8, r0
    45bc:	027d0405 	rsbseq	r0, sp, #83886080	; 0x5000000
    45c0:	d60a0000 	strle	r0, [sl], -r0
    45c4:	d6000002 	strle	r0, [r0], -r2
    45c8:	0b000002 	bleq	45d8 <_start-0x3a28>
    45cc:	0000002c 	andeq	r0, r0, ip, lsr #32
    45d0:	0405001f 	streq	r0, [r5], #-31	; 0xffffffe1
    45d4:	000002dc 	ldrdeq	r0, [r0], -ip
    45d8:	038b1014 	orreq	r1, fp, #20
    45dc:	05080000 	streq	r0, [r8, #-0]
    45e0:	03050875 	movweq	r0, #22645	; 0x5875
    45e4:	bb0d0000 	bllt	3445ec <__bss_end__+0x33a5bc>
    45e8:	05000000 	streq	r0, [r0, #-0]
    45ec:	03051176 	movweq	r1, #20854	; 0x5176
    45f0:	0d000000 	stceq	0, cr0, [r0, #-0]
    45f4:	0000001b 	andeq	r0, r0, fp, lsl r0
    45f8:	25067705 	strcs	r7, [r6, #-1797]	; 0xfffff8fb
    45fc:	04000000 	streq	r0, [r0], #-0
    4600:	4f040500 	svcmi	0x00040500
    4604:	10000000 	andne	r0, r0, r0
    4608:	000003aa 	andeq	r0, r0, sl, lsr #7
    460c:	08b50568 	ldmeq	r5!, {r3, r5, r6, r8, sl}
    4610:	0000044e 	andeq	r0, r0, lr, asr #8
    4614:	00705f11 	rsbseq	r5, r0, r1, lsl pc
    4618:	0512b605 	ldreq	fp, [r2, #-1541]	; 0xfffff9fb
    461c:	00000003 	andeq	r0, r0, r3
    4620:	00725f11 	rsbseq	r5, r2, r1, lsl pc
    4624:	2507b705 	strcs	fp, [r7, #-1797]	; 0xfffff8fb
    4628:	04000000 	streq	r0, [r0], #-0
    462c:	00775f11 	rsbseq	r5, r7, r1, lsl pc
    4630:	2507b805 	strcs	fp, [r7, #-2053]	; 0xfffff7fb
    4634:	08000000 	stmdaeq	r0, {}	; <UNPREDICTABLE>
    4638:	00011f0d 	andeq	r1, r1, sp, lsl #30
    463c:	09b90500 	ldmibeq	r9!, {r8, sl}
    4640:	0000003a 	andeq	r0, r0, sl, lsr r0
    4644:	02080d0c 	andeq	r0, r8, #12, 26	; 0x300
    4648:	ba050000 	blt	144650 <__bss_end__+0x13a620>
    464c:	00003a09 	andeq	r3, r0, r9, lsl #20
    4650:	5f110e00 	svcpl	0x00110e00
    4654:	05006662 	streq	r6, [r0, #-1634]	; 0xfffff99e
    4658:	02dd11bb 	sbcseq	r1, sp, #-1073741778	; 0xc000002e
    465c:	0d100000 	ldceq	0, cr0, [r0, #-0]
    4660:	0000007b 	andeq	r0, r0, fp, ror r0
    4664:	2507bc05 	strcs	fp, [r7, #-3077]	; 0xfffff3fb
    4668:	18000000 	stmdane	r0, {}	; <UNPREDICTABLE>
    466c:	00010f0d 	andeq	r0, r1, sp, lsl #30
    4670:	0ac30500 	beq	ff0c5a78 <__bss_end__+0xff0bba48>
    4674:	00000115 	andeq	r0, r0, r5, lsl r1
    4678:	0b240d1c 	bleq	907af0 <__bss_end__+0x8fdac0>
    467c:	c5050000 	strgt	r0, [r5, #-0]
    4680:	0005c01d 	andeq	ip, r5, sp, lsl r0
    4684:	190d2000 	stmdbne	sp, {sp}
    4688:	05000006 	streq	r0, [r0, #-6]
    468c:	05ea1dc7 	strbeq	r1, [sl, #3527]!	; 0xdc7
    4690:	0d240000 	stceq	0, cr0, [r4, #-0]
    4694:	0000042c 	andeq	r0, r0, ip, lsr #8
    4698:	0e0dca05 	vmlaeq.f32	s24, s26, s10
    469c:	28000006 	stmdacs	r0, {r1, r2}
    46a0:	0005100d 	andeq	r1, r5, sp
    46a4:	09cb0500 	stmibeq	fp, {r8, sl}^
    46a8:	00000628 	andeq	r0, r0, r8, lsr #12
    46ac:	755f112c 	ldrbvc	r1, [pc, #-300]	; 4588 <_start-0x3a78>
    46b0:	ce050062 	cdpgt	0, 0, cr0, cr5, cr2, {3}
    46b4:	0002dd11 	andeq	sp, r2, r1, lsl sp
    46b8:	5f113000 	svcpl	0x00113000
    46bc:	05007075 	streq	r7, [r0, #-117]	; 0xffffff8b
    46c0:	030512cf 	movweq	r1, #21199	; 0x52cf
    46c4:	11380000 	teqne	r8, r0
    46c8:	0072755f 	rsbseq	r7, r2, pc, asr r5
    46cc:	2507d005 	strcs	sp, [r7, #-5]
    46d0:	3c000000 	stccc	0, cr0, [r0], {-0}
    46d4:	0000b50d 	andeq	fp, r0, sp, lsl #10
    46d8:	11d30500 	bicsne	r0, r3, r0, lsl #10
    46dc:	0000062e 	andeq	r0, r0, lr, lsr #12
    46e0:	04e80d40 	strbteq	r0, [r8], #3392	; 0xd40
    46e4:	d4050000 	strle	r0, [r5], #-0
    46e8:	00063e11 	andeq	r3, r6, r1, lsl lr
    46ec:	5f114300 	svcpl	0x00114300
    46f0:	0500626c 	streq	r6, [r0, #-620]	; 0xfffffd94
    46f4:	02dd11d7 	sbcseq	r1, sp, #-1073741771	; 0xc0000035
    46f8:	0d440000 	stcleq	0, cr0, [r4, #-0]
    46fc:	0000013d 	andeq	r0, r0, sp, lsr r1
    4700:	2507da05 	strcs	sp, [r7, #-2565]	; 0xfffff5fb
    4704:	4c000000 	stcmi	0, cr0, [r0], {-0}
    4708:	00014e0d 	andeq	r4, r1, sp, lsl #28
    470c:	0adb0500 	beq	ff6c5b14 <__bss_end__+0xff6bbae4>
    4710:	00000082 	andeq	r0, r0, r2, lsl #1
    4714:	0ac50d50 	beq	ff147c5c <__bss_end__+0xff13dc2c>
    4718:	de050000 	cdple	0, 0, cr0, cr5, cr0, {0}
    471c:	00046c12 	andeq	r6, r4, r2, lsl ip
    4720:	1e0d5400 	cfcpysne	mvf5, mvf13
    4724:	05000004 	streq	r0, [r0, #-4]
    4728:	01090ce2 	smlatteq	r9, r2, ip, r0
    472c:	0d580000 	ldcleq	0, cr0, [r8, #-0]
    4730:	000003b2 			; <UNDEFINED> instruction: 0x000003b2
    4734:	fd0ee405 	stc2	4, cr14, [lr, #-20]	; 0xffffffec
    4738:	5c000000 	stcpl	0, cr0, [r0], {-0}
    473c:	00027b0d 	andeq	r7, r2, sp, lsl #22
    4740:	09e50500 	stmibeq	r5!, {r8, sl}^
    4744:	00000025 	andeq	r0, r0, r5, lsr #32
    4748:	25150064 	ldrcs	r0, [r5, #-100]	; 0xffffff9c
    474c:	6c000000 	stcvs	0, cr0, [r0], {-0}
    4750:	16000004 	strne	r0, [r0], -r4
    4754:	0000046c 	andeq	r0, r0, ip, ror #8
    4758:	00011516 	andeq	r1, r1, r6, lsl r5
    475c:	01171600 	tsteq	r7, r0, lsl #12
    4760:	25160000 	ldrcs	r0, [r6, #-0]
    4764:	00000000 	andeq	r0, r0, r0
    4768:	04770405 	ldrbteq	r0, [r7], #-1029	; 0xfffffbfb
    476c:	6c0f0000 	stcvs	0, cr0, [pc], {-0}
    4770:	17000004 	strne	r0, [r0, -r4]
    4774:	00000408 	andeq	r0, r0, r8, lsl #8
    4778:	60050428 	andvs	r0, r5, r8, lsr #8
    477c:	05c00802 	strbeq	r0, [r0, #2050]	; 0x802
    4780:	70180000 	andsvc	r0, r8, r0
    4784:	05000003 	streq	r0, [r0, #-3]
    4788:	25070262 	strcs	r0, [r7, #-610]	; 0xfffffd9e
    478c:	00000000 	andeq	r0, r0, r0
    4790:	00012e18 	andeq	r2, r1, r8, lsl lr
    4794:	02670500 	rsbeq	r0, r7, #0, 10
    4798:	00069a0b 	andeq	r9, r6, fp, lsl #20
    479c:	f8180400 			; <UNDEFINED> instruction: 0xf8180400
    47a0:	05000001 	streq	r0, [r0, #-1]
    47a4:	9a140267 	bls	505148 <__bss_end__+0x4fb118>
    47a8:	08000006 	stmdaeq	r0, {r1, r2}
    47ac:	0001a818 	andeq	sl, r1, r8, lsl r8
    47b0:	02670500 	rsbeq	r0, r7, #0, 10
    47b4:	00069a1e 	andeq	r9, r6, lr, lsl sl
    47b8:	d3180c00 	tstle	r8, #0, 24
    47bc:	05000003 	streq	r0, [r0, #-3]
    47c0:	25080269 	strcs	r0, [r8, #-617]	; 0xfffffd97
    47c4:	10000000 	andne	r0, r0, r0
    47c8:	00002918 	andeq	r2, r0, r8, lsl r9
    47cc:	026a0500 	rsbeq	r0, sl, #0, 10
    47d0:	00089a08 	andeq	r9, r8, r8, lsl #20
    47d4:	e7181400 	ldr	r1, [r8, -r0, lsl #8]
    47d8:	05000003 	streq	r0, [r0, #-3]
    47dc:	2507026d 	strcs	r0, [r7, #-621]	; 0xfffffd93
    47e0:	30000000 	andcc	r0, r0, r0
    47e4:	000a0118 	andeq	r0, sl, r8, lsl r1
    47e8:	026e0500 	rsbeq	r0, lr, #0, 10
    47ec:	0008af16 	andeq	sl, r8, r6, lsl pc
    47f0:	b2183400 	andslt	r3, r8, #0, 8
    47f4:	05000002 	streq	r0, [r0, #-2]
    47f8:	25070270 	strcs	r0, [r7, #-624]	; 0xfffffd90
    47fc:	38000000 	stmdacc	r0, {}	; <UNPREDICTABLE>
    4800:	0003dd18 	andeq	sp, r3, r8, lsl sp
    4804:	02720500 	rsbseq	r0, r2, #0, 10
    4808:	0008c00a 	andeq	ip, r8, sl
    480c:	57183c00 	ldrpl	r3, [r8, -r0, lsl #24]
    4810:	05000002 	streq	r0, [r0, #-2]
    4814:	8f130275 	svchi	0x00130275
    4818:	40000001 	andmi	r0, r0, r1
    481c:	0001c718 	andeq	ip, r1, r8, lsl r7
    4820:	02760500 	rsbseq	r0, r6, #0, 10
    4824:	00002507 	andeq	r2, r0, r7, lsl #10
    4828:	2a184400 	bcs	615830 <__bss_end__+0x60b800>
    482c:	05000005 	streq	r0, [r0, #-5]
    4830:	8f130277 	svchi	0x00130277
    4834:	48000001 	stmdami	r0, {r0}
    4838:	0002c418 	andeq	ip, r2, r8, lsl r4
    483c:	02780500 	rsbseq	r0, r8, #0, 10
    4840:	0008c614 	andeq	ip, r8, r4, lsl r6
    4844:	00184c00 	andseq	r4, r8, r0, lsl #24
    4848:	05000002 	streq	r0, [r0, #-2]
    484c:	2507027b 	strcs	r0, [r7, #-635]	; 0xfffffd85
    4850:	50000000 	andpl	r0, r0, r0
    4854:	00014618 	andeq	r4, r1, r8, lsl r6
    4858:	027c0500 	rsbseq	r0, ip, #0, 10
    485c:	00011709 	andeq	r1, r1, r9, lsl #14
    4860:	ea185400 	b	619868 <__bss_end__+0x60f838>
    4864:	05000002 	streq	r0, [r0, #-2]
    4868:	7507029f 	strvc	r0, [r7, #-671]	; 0xfffffd61
    486c:	58000008 	stmdapl	r0, {r3}
    4870:	0002aa19 	andeq	sl, r2, r9, lsl sl
    4874:	02a30500 	adceq	r0, r3, #0, 10
    4878:	0002c013 	andeq	ip, r2, r3, lsl r0
    487c:	19014800 	stmdbne	r1, {fp, lr}
    4880:	00000235 	andeq	r0, r0, r5, lsr r2
    4884:	1202a405 	andne	sl, r2, #83886080	; 0x5000000
    4888:	0000027d 	andeq	r0, r0, sp, ror r2
    488c:	d619014c 	ldrle	r0, [r9], -ip, asr #2
    4890:	05000004 	streq	r0, [r0, #-4]
    4894:	d70c02a8 	strle	r0, [ip, -r8, lsr #5]
    4898:	dc000008 	stcle	0, cr0, [r0], {8}
    489c:	01171902 	tsteq	r7, r2, lsl #18
    48a0:	ad050000 	stcge	0, cr0, [r5, #-0]
    48a4:	065b1002 	ldrbeq	r1, [fp], -r2
    48a8:	02e00000 	rsceq	r0, r0, #0
    48ac:	0000fc19 	andeq	pc, r0, r9, lsl ip	; <UNPREDICTABLE>
    48b0:	02af0500 	adceq	r0, pc, #0, 10
    48b4:	0008e30a 	andeq	lr, r8, sl, lsl #6
    48b8:	0002ec00 	andeq	lr, r2, r0, lsl #24
    48bc:	044e0405 	strbeq	r0, [lr], #-1029	; 0xfffffbfb
    48c0:	25150000 	ldrcs	r0, [r5, #-0]
    48c4:	e4000000 	str	r0, [r0], #-0
    48c8:	16000005 	strne	r0, [r0], -r5
    48cc:	0000046c 	andeq	r0, r0, ip, ror #8
    48d0:	00011516 	andeq	r1, r1, r6, lsl r5
    48d4:	05e41600 	strbeq	r1, [r4, #1536]!	; 0x600
    48d8:	25160000 	ldrcs	r0, [r6, #-0]
    48dc:	00000000 	andeq	r0, r0, r0
    48e0:	01240405 			; <UNDEFINED> instruction: 0x01240405
    48e4:	04050000 	streq	r0, [r5], #-0
    48e8:	000005c6 	andeq	r0, r0, r6, asr #11
    48ec:	00008e15 	andeq	r8, r0, r5, lsl lr
    48f0:	00060e00 	andeq	r0, r6, r0, lsl #28
    48f4:	046c1600 	strbteq	r1, [ip], #-1536	; 0xfffffa00
    48f8:	15160000 	ldrne	r0, [r6, #-0]
    48fc:	16000001 	strne	r0, [r0], -r1
    4900:	0000008e 	andeq	r0, r0, lr, lsl #1
    4904:	00002516 	andeq	r2, r0, r6, lsl r5
    4908:	04050000 	streq	r0, [r5], #-0
    490c:	000005f0 	strdeq	r0, [r0], -r0	; <UNPREDICTABLE>
    4910:	00002515 	andeq	r2, r0, r5, lsl r5
    4914:	00062800 	andeq	r2, r6, r0, lsl #16
    4918:	046c1600 	strbteq	r1, [ip], #-1536	; 0xfffffa00
    491c:	15160000 	ldrne	r0, [r6, #-0]
    4920:	00000001 	andeq	r0, r0, r1
    4924:	06140405 	ldreq	r0, [r4], -r5, lsl #8
    4928:	4f0a0000 	svcmi	0x000a0000
    492c:	3e000000 	cdpcc	0, 0, cr0, cr0, cr0, {0}
    4930:	0b000006 	bleq	4950 <_start-0x36b0>
    4934:	0000002c 	andeq	r0, r0, ip, lsr #32
    4938:	4f0a0002 	svcmi	0x000a0002
    493c:	4e000000 	cdpmi	0, 0, cr0, cr0, cr0, {0}
    4940:	0b000006 	bleq	4960 <_start-0x36a0>
    4944:	0000002c 	andeq	r0, r0, ip, lsr #32
    4948:	98070000 	stmdals	r7, {}	; <UNPREDICTABLE>
    494c:	05000003 	streq	r0, [r0, #-3]
    4950:	0b1a011f 	bleq	684dd4 <__bss_end__+0x67ada4>
    4954:	1a000003 	bne	4968 <_start-0x3698>
    4958:	000004bd 			; <UNDEFINED> instruction: 0x000004bd
    495c:	0123050c 			; <UNDEFINED> instruction: 0x0123050c
    4960:	00069408 	andeq	r9, r6, r8, lsl #8
    4964:	03c01800 	biceq	r1, r0, #0, 16
    4968:	25050000 	strcs	r0, [r5, #-0]
    496c:	06941101 	ldreq	r1, [r4], r1, lsl #2
    4970:	18000000 	stmdane	r0, {}	; <UNPREDICTABLE>
    4974:	0000021b 	andeq	r0, r0, fp, lsl r2
    4978:	07012605 	streq	r2, [r1, -r5, lsl #12]
    497c:	00000025 	andeq	r0, r0, r5, lsr #32
    4980:	03921804 	orrseq	r1, r2, #4, 16	; 0x40000
    4984:	27050000 	strcs	r0, [r5, -r0]
    4988:	069a0b01 	ldreq	r0, [sl], r1, lsl #22
    498c:	00080000 	andeq	r0, r8, r0
    4990:	065b0405 	ldrbeq	r0, [fp], -r5, lsl #8
    4994:	04050000 	streq	r0, [r5], #-0
    4998:	0000064e 	andeq	r0, r0, lr, asr #12
    499c:	0000211a 	andeq	r2, r0, sl, lsl r1
    49a0:	3f050e00 	svccc	0x00050e00
    49a4:	06d90801 	ldrbeq	r0, [r9], r1, lsl #16
    49a8:	0f180000 	svceq	0x00180000
    49ac:	05000004 	streq	r0, [r0, #-4]
    49b0:	d9120140 	ldmdble	r2, {r6, r8}
    49b4:	00000006 	andeq	r0, r0, r6
    49b8:	00044318 	andeq	r4, r4, r8, lsl r3
    49bc:	01410500 	cmpeq	r1, r0, lsl #10
    49c0:	0006d912 	andeq	sp, r6, r2, lsl r9
    49c4:	5f180600 	svcpl	0x00180600
    49c8:	05000004 	streq	r0, [r0, #-4]
    49cc:	56120142 	ldrpl	r0, [r2], -r2, asr #2
    49d0:	0c000000 	stceq	0, cr0, [r0], {-0}
    49d4:	00560a00 	subseq	r0, r6, r0, lsl #20
    49d8:	06e90000 	strbteq	r0, [r9], r0
    49dc:	2c0b0000 	stccs	0, cr0, [fp], {-0}
    49e0:	02000000 	andeq	r0, r0, #0
    49e4:	05d01b00 	ldrbeq	r1, [r0, #2816]	; 0xb00
    49e8:	fe070280 	cdp2	2, 0, cr0, cr7, cr0, {4}
    49ec:	18000007 	stmdane	r0, {r0, r1, r2}
    49f0:	000004a1 	andeq	r0, r0, r1, lsr #9
    49f4:	18028205 	stmdane	r2, {r0, r2, r9, pc}
    49f8:	0000002c 	andeq	r0, r0, ip, lsr #32
    49fc:	04491800 	strbeq	r1, [r9], #-2048	; 0xfffff800
    4a00:	83050000 	movwhi	r0, #20480	; 0x5000
    4a04:	01171202 	tsteq	r7, r2, lsl #4
    4a08:	18040000 	stmdane	r4, {}	; <UNPREDICTABLE>
    4a0c:	0000024a 	andeq	r0, r0, sl, asr #4
    4a10:	10028405 	andne	r8, r2, r5, lsl #8
    4a14:	000007fe 	strdeq	r0, [r0], -lr
    4a18:	05011808 	streq	r1, [r1, #-2056]	; 0xfffff7f8
    4a1c:	85050000 	strhi	r0, [r5, #-0]
    4a20:	01a51702 			; <UNDEFINED> instruction: 0x01a51702
    4a24:	18240000 	stmdane	r4!, {}	; <UNPREDICTABLE>
    4a28:	000001b8 			; <UNDEFINED> instruction: 0x000001b8
    4a2c:	0f028605 	svceq	0x00028605
    4a30:	00000025 	andeq	r0, r0, r5, lsr #32
    4a34:	03bb1848 			; <UNDEFINED> instruction: 0x03bb1848
    4a38:	87050000 	strhi	r0, [r5, -r0]
    4a3c:	00642c02 	rsbeq	r2, r4, r2, lsl #24
    4a40:	18500000 	ldmdane	r0, {}^	; <UNPREDICTABLE>
    4a44:	00000517 	andeq	r0, r0, r7, lsl r5
    4a48:	1a028805 	bne	a6a64 <__bss_end__+0x9ca34>
    4a4c:	000006a0 	andeq	r0, r0, r0, lsr #13
    4a50:	03c61858 	biceq	r1, r6, #88, 16	; 0x580000
    4a54:	89050000 	stmdbhi	r5, {}	; <UNPREDICTABLE>
    4a58:	00fd1602 	rscseq	r1, sp, r2, lsl #12
    4a5c:	18680000 	stmdane	r8!, {}^	; <UNPREDICTABLE>
    4a60:	0000051c 	andeq	r0, r0, ip, lsl r5
    4a64:	16028a05 	strne	r8, [r2], -r5, lsl #20
    4a68:	000000fd 	strdeq	r0, [r0], -sp
    4a6c:	02ce1870 	sbceq	r1, lr, #112, 16	; 0x700000
    4a70:	8b050000 	blhi	144a78 <__bss_end__+0x13aa48>
    4a74:	00fd1602 	rscseq	r1, sp, r2, lsl #12
    4a78:	18780000 	ldmdane	r8!, {}^	; <UNPREDICTABLE>
    4a7c:	000004cc 	andeq	r0, r0, ip, asr #9
    4a80:	10028c05 	andne	r8, r2, r5, lsl #24
    4a84:	0000080e 	andeq	r0, r0, lr, lsl #16
    4a88:	023e1880 	eorseq	r1, lr, #128, 16	; 0x800000
    4a8c:	8d050000 	stchi	0, cr0, [r5, #-0]
    4a90:	081e1002 	ldmdaeq	lr, {r1, ip}
    4a94:	18880000 	stmne	r8, {}	; <UNPREDICTABLE>
    4a98:	0000046c 	andeq	r0, r0, ip, ror #8
    4a9c:	0f028e05 	svceq	0x00028e05
    4aa0:	00000025 	andeq	r0, r0, r5, lsr #32
    4aa4:	017e18a0 	cmneq	lr, r0, lsr #17
    4aa8:	8f050000 	svchi	0x00050000
    4aac:	00fd1602 	rscseq	r1, sp, r2, lsl #12
    4ab0:	18a40000 	stmiane	r4!, {}	; <UNPREDICTABLE>
    4ab4:	0000008f 	andeq	r0, r0, pc, lsl #1
    4ab8:	16029005 	strne	r9, [r2], -r5
    4abc:	000000fd 	strdeq	r0, [r0], -sp
    4ac0:	016d18ac 	cmneq	sp, ip, lsr #17
    4ac4:	91050000 	mrsls	r0, (UNDEF: 5)
    4ac8:	00fd1602 	rscseq	r1, sp, r2, lsl #12
    4acc:	18b40000 	ldmne	r4!, {}	; <UNPREDICTABLE>
    4ad0:	0000003c 	andeq	r0, r0, ip, lsr r0
    4ad4:	16029205 	strne	r9, [r2], -r5, lsl #4
    4ad8:	000000fd 	strdeq	r0, [r0], -sp
    4adc:	004b18bc 	strheq	r1, [fp], #-140	; 0xffffff74
    4ae0:	93050000 	movwls	r0, #20480	; 0x5000
    4ae4:	00fd1602 	rscseq	r1, sp, r2, lsl #12
    4ae8:	18c40000 	stmiane	r4, {}^	; <UNPREDICTABLE>
    4aec:	0000036e 	andeq	r0, r0, lr, ror #6
    4af0:	08029405 	stmdaeq	r2, {r0, r2, sl, ip, pc}
    4af4:	00000025 	andeq	r0, r0, r5, lsr #32
    4af8:	1d0a00cc 	stcne	0, cr0, [sl, #-816]	; 0xfffffcd0
    4afc:	0e000001 	cdpeq	0, 0, cr0, cr0, cr1, {0}
    4b00:	0b000008 	bleq	4b28 <_start-0x34d8>
    4b04:	0000002c 	andeq	r0, r0, ip, lsr #32
    4b08:	1d0a0019 	stcne	0, cr0, [sl, #-100]	; 0xffffff9c
    4b0c:	1e000001 	cdpne	0, 0, cr0, cr0, cr1, {0}
    4b10:	0b000008 	bleq	4b38 <_start-0x34c8>
    4b14:	0000002c 	andeq	r0, r0, ip, lsr #32
    4b18:	1d0a0007 	stcne	0, cr0, [sl, #-28]	; 0xffffffe4
    4b1c:	2e000001 	cdpcs	0, 0, cr0, cr0, cr1, {0}
    4b20:	0b000008 	bleq	4b48 <_start-0x34b8>
    4b24:	0000002c 	andeq	r0, r0, ip, lsr #32
    4b28:	f01b0017 			; <UNDEFINED> instruction: 0xf01b0017
    4b2c:	07029905 	streq	r9, [r2, -r5, lsl #18]
    4b30:	00000855 	andeq	r0, r0, r5, asr r8
    4b34:	00029a18 	andeq	r9, r2, r8, lsl sl
    4b38:	029c0500 	addseq	r0, ip, #0, 10
    4b3c:	0008551b 	andeq	r5, r8, fp, lsl r5
    4b40:	c3180000 	tstgt	r8, #0
    4b44:	05000004 	streq	r0, [r0, #-4]
    4b48:	6518029d 	ldrvs	r0, [r8, #-669]	; 0xfffffd63
    4b4c:	78000008 	stmdavc	r0, {r3}
    4b50:	03050a00 	movweq	r0, #23040	; 0x5a00
    4b54:	08650000 	stmdaeq	r5!, {}^	; <UNPREDICTABLE>
    4b58:	2c0b0000 	stccs	0, cr0, [fp], {-0}
    4b5c:	1d000000 	stcne	0, cr0, [r0, #-0]
    4b60:	002c0a00 	eoreq	r0, ip, r0, lsl #20
    4b64:	08750000 	ldmdaeq	r5!, {}^	; <UNPREDICTABLE>
    4b68:	2c0b0000 	stccs	0, cr0, [fp], {-0}
    4b6c:	1d000000 	stcne	0, cr0, [r0, #-0]
    4b70:	05f01c00 	ldrbeq	r1, [r0, #3072]!	; 0xc00
    4b74:	9a03027e 	bls	c5574 <__bss_end__+0xbb544>
    4b78:	1d000008 	stcne	0, cr0, [r0, #-32]	; 0xffffffe0
    4b7c:	00000408 	andeq	r0, r0, r8, lsl #8
    4b80:	0b029505 	bleq	a9f9c <__bss_end__+0x9ff6c>
    4b84:	000006e9 	andeq	r0, r0, r9, ror #13
    4b88:	0004ee1d 	andeq	lr, r4, sp, lsl lr
    4b8c:	029e0500 	addseq	r0, lr, #0, 10
    4b90:	00082e0b 	andeq	r2, r8, fp, lsl #28
    4b94:	1d0a0000 	stcne	0, cr0, [sl, #-0]
    4b98:	aa000001 	bge	4ba4 <_start-0x345c>
    4b9c:	0b000008 	bleq	4bc4 <_start-0x343c>
    4ba0:	0000002c 	andeq	r0, r0, ip, lsr #32
    4ba4:	84060018 	strhi	r0, [r6], #-24	; 0xffffffe8
    4ba8:	05000000 	streq	r0, [r0, #-0]
    4bac:	0008aa04 	andeq	sl, r8, r4, lsl #20
    4bb0:	08c01e00 	stmiaeq	r0, {r9, sl, fp, ip}^
    4bb4:	6c160000 	ldcvs	0, cr0, [r6], {-0}
    4bb8:	00000004 	andeq	r0, r0, r4
    4bbc:	08b50405 	ldmeq	r5!, {r0, r2, sl}
    4bc0:	04050000 	streq	r0, [r5], #-0
    4bc4:	0000018f 	andeq	r0, r0, pc, lsl #3
    4bc8:	0008d71e 	andeq	sp, r8, lr, lsl r7
    4bcc:	00251600 	eoreq	r1, r5, r0, lsl #12
    4bd0:	05000000 	streq	r0, [r0, #-0]
    4bd4:	0008dd04 	andeq	sp, r8, r4, lsl #26
    4bd8:	cc040500 	cfstr32gt	mvfx0, [r4], {-0}
    4bdc:	0a000008 	beq	4c04 <_start-0x33fc>
    4be0:	0000064e 	andeq	r0, r0, lr, asr #12
    4be4:	000008f3 	strdeq	r0, [r0], -r3
    4be8:	00002c0b 	andeq	r2, r0, fp, lsl #24
    4bec:	1f000200 	svcne	0x00000200
    4bf0:	0000048e 	andeq	r0, r0, lr, lsl #9
    4bf4:	17032e05 	strne	r2, [r3, -r5, lsl #28]
    4bf8:	0000046c 	andeq	r0, r0, ip, ror #8
    4bfc:	0004871f 	andeq	r8, r4, pc, lsl r7
    4c00:	032f0500 			; <UNDEFINED> instruction: 0x032f0500
    4c04:	0004721d 	andeq	r7, r4, sp, lsl r2
    4c08:	00251500 	eoreq	r1, r5, r0, lsl #10
    4c0c:	091c0000 	ldmdbeq	ip, {}	; <UNPREDICTABLE>
    4c10:	25160000 	ldrcs	r0, [r6, #-0]
    4c14:	00000000 	andeq	r0, r0, r0
    4c18:	0001d120 	andeq	sp, r1, r0, lsr #2
    4c1c:	0e1d0600 	cfmsub32eq	mvax0, mvfx0, mvfx13, mvfx0
    4c20:	00000928 	andeq	r0, r0, r8, lsr #18
    4c24:	090d0405 	stmdbeq	sp, {r0, r2, sl}
    4c28:	25150000 	ldrcs	r0, [r5, #-0]
    4c2c:	3d000000 	stccc	0, cr0, [r0, #-0]
    4c30:	16000009 	strne	r0, [r0], -r9
    4c34:	000005e4 	andeq	r0, r0, r4, ror #11
    4c38:	07682000 	strbeq	r2, [r8, -r0]!
    4c3c:	22060000 	andcs	r0, r6, #0
    4c40:	0009490e 	andeq	r4, r9, lr, lsl #18
    4c44:	2e040500 	cfsh32cs	mvfx0, mvfx4, #0
    4c48:	21000009 	tstcs	r0, r9
    4c4c:	0000091c 	andeq	r0, r0, ip, lsl r9
    4c50:	05070601 	streq	r0, [r7, #-1537]	; 0xfffff9ff
    4c54:	00964803 	addseq	r4, r6, r3, lsl #16
    4c58:	07282200 	streq	r2, [r8, -r0, lsl #4]!
    4c5c:	0b010000 	bleq	44c64 <__bss_end__+0x3ac34>
    4c60:	008afc06 	addeq	pc, sl, r6, lsl #24
    4c64:	00001000 	andeq	r1, r0, r0
    4c68:	819c0100 	orrshi	r0, ip, r0, lsl #2
    4c6c:	23000009 	movwcs	r0, #9
    4c70:	01007066 	tsteq	r0, r6, rrx
    4c74:	0928190b 	stmdbeq	r8!, {r0, r1, r3, r8, fp, ip}
    4c78:	50010000 	andpl	r0, r1, r0
    4c7c:	01e92400 	mvneq	r2, r0, lsl #8
    4c80:	08010000 	stmdaeq	r1, {}	; <UNPREDICTABLE>
    4c84:	008ae406 	addeq	lr, sl, r6, lsl #8
    4c88:	00001800 	andeq	r1, r0, r0, lsl #16
    4c8c:	259c0100 	ldrcs	r0, [ip, #256]	; 0x100
    4c90:	0000073f 	andeq	r0, r0, pc, lsr r7
    4c94:	250c0301 	strcs	r0, [ip, #-769]	; 0xfffffcff
    4c98:	d0000000 	andle	r0, r0, r0
    4c9c:	1400008a 	strne	r0, [r0], #-138	; 0xffffff76
    4ca0:	01000000 	mrseq	r0, (UNDEF: 0)
    4ca4:	0009d09c 	muleq	r9, ip, r0
    4ca8:	00632600 	rsbeq	r2, r3, r0, lsl #12
    4cac:	25210301 	strcs	r0, [r1, #-769]!	; 0xfffffcff
    4cb0:	79000000 	stmdbvc	r0, {}	; <UNPREDICTABLE>
    4cb4:	7500000a 	strvc	r0, [r0, #-10]
    4cb8:	2700000a 	strcs	r0, [r0, -sl]
    4cbc:	00008adc 	ldrdeq	r8, [r0], -ip
    4cc0:	000009d0 	ldrdeq	r0, [r0], -r0	; <UNPREDICTABLE>
    4cc4:	02500128 	subseq	r0, r0, #40, 2
    4cc8:	00000074 	andeq	r0, r0, r4, ror r0
    4ccc:	00073529 	andeq	r3, r7, r9, lsr #10
    4cd0:	00073500 	andeq	r3, r7, r0, lsl #10
    4cd4:	063c0600 	ldrteq	r0, [ip], -r0, lsl #12
    4cd8:	00098300 	andeq	r8, r9, r0, lsl #6
    4cdc:	a9000400 	stmdbge	r0, {sl}
    4ce0:	0400000e 	streq	r0, [r0], #-14
    4ce4:	0002ef01 	andeq	lr, r2, r1, lsl #30
    4ce8:	076d0c00 	strbeq	r0, [sp, -r0, lsl #24]!
    4cec:	06c10000 	strbeq	r0, [r1], r0
    4cf0:	8b0c0000 	blhi	304cf8 <__bss_end__+0x2facc8>
    4cf4:	00340000 	eorseq	r0, r4, r0
    4cf8:	0df30000 	ldcleq	0, cr0, [r3]
    4cfc:	04020000 	streq	r0, [r2], #-0
    4d00:	746e6905 	strbtvc	r6, [lr], #-2309	; 0xfffff6fb
    4d04:	07040300 	streq	r0, [r4, -r0, lsl #6]
    4d08:	00000066 	andeq	r0, r0, r6, rrx
    4d0c:	de060103 	adfles	f0, f6, f3
    4d10:	03000002 	movweq	r0, #2
    4d14:	03770502 	cmneq	r7, #8388608	; 0x800000
    4d18:	04030000 	streq	r0, [r3], #-0
    4d1c:	0000ac05 	andeq	sl, r0, r5, lsl #24
    4d20:	05080300 	streq	r0, [r8, #-768]	; 0xfffffd00
    4d24:	000000a7 	andeq	r0, r0, r7, lsr #1
    4d28:	dc080103 	stfles	f0, [r8], {3}
    4d2c:	03000002 	movweq	r0, #2
    4d30:	02220702 	eoreq	r0, r2, #524288	; 0x80000
    4d34:	04030000 	streq	r0, [r3], #-0
    4d38:	00006107 	andeq	r6, r0, r7, lsl #2
    4d3c:	07080300 	streq	r0, [r8, -r0, lsl #6]
    4d40:	0000005c 	andeq	r0, r0, ip, asr r0
    4d44:	00026504 	andeq	r6, r2, r4, lsl #10
    4d48:	19220200 	stmdbne	r2!, {r9}
    4d4c:	00000077 	andeq	r0, r0, r7, ror r0
    4d50:	007d0405 	rsbseq	r0, sp, r5, lsl #8
    4d54:	1d060000 	stcne	0, cr0, [r6, #-0]
    4d58:	04000004 	streq	r0, [r0], #-4
    4d5c:	000002bd 			; <UNDEFINED> instruction: 0x000002bd
    4d60:	410e2c03 	tstmi	lr, r3, lsl #24
    4d64:	04000000 	streq	r0, [r0], #-0
    4d68:	00000432 	andeq	r0, r0, r2, lsr r4
    4d6c:	410e7203 	tstmi	lr, r3, lsl #4
    4d70:	07000000 	streq	r0, [r0, -r0]
    4d74:	0000026d 	andeq	r0, r0, sp, ror #4
    4d78:	17015e04 	strne	r5, [r1, -r4, lsl #28]
    4d7c:	0000002c 	andeq	r0, r0, ip, lsr #32
    4d80:	a6030408 	strge	r0, [r3], -r8, lsl #8
    4d84:	0000c903 	andeq	ip, r0, r3, lsl #18
    4d88:	025f0900 	subseq	r0, pc, #0, 18
    4d8c:	a8030000 	stmdage	r3, {}	; <UNPREDICTABLE>
    4d90:	00009a0c 	andeq	r9, r0, ip, lsl #20
    4d94:	01e20900 	mvneq	r0, r0, lsl #18
    4d98:	a9030000 	stmdbge	r3, {}	; <UNPREDICTABLE>
    4d9c:	0000c913 	andeq	ip, r0, r3, lsl r9
    4da0:	4f0a0000 	svcmi	0x000a0000
    4da4:	d9000000 	stmdble	r0, {}	; <UNPREDICTABLE>
    4da8:	0b000000 	bleq	4db0 <_start-0x3250>
    4dac:	0000002c 	andeq	r0, r0, ip, lsr #32
    4db0:	080c0003 	stmdaeq	ip, {r0, r1}
    4db4:	fd09a303 	stc2	3, cr10, [r9, #-12]
    4db8:	0d000000 	stceq	0, cr0, [r0, #-0]
    4dbc:	00000415 	andeq	r0, r0, r5, lsl r4
    4dc0:	2507a503 	strcs	sl, [r7, #-1283]	; 0xfffffafd
    4dc4:	00000000 	andeq	r0, r0, r0
    4dc8:	0004240d 	andeq	r2, r4, sp, lsl #8
    4dcc:	05aa0300 	streq	r0, [sl, #768]!	; 0x300
    4dd0:	000000a7 	andeq	r0, r0, r7, lsr #1
    4dd4:	9f040004 	svcls	0x00040004
    4dd8:	03000003 	movweq	r0, #3
    4ddc:	00d903ab 	sbcseq	r0, r9, fp, lsr #7
    4de0:	9f040000 	svcls	0x00040000
    4de4:	03000001 	movweq	r0, #1
    4de8:	006b1baf 	rsbeq	r1, fp, pc, lsr #23
    4dec:	040e0000 	streq	r0, [lr], #-0
    4df0:	011d0405 	tsteq	sp, r5, lsl #8
    4df4:	01030000 	mrseq	r0, (UNDEF: 3)
    4df8:	0002e508 	andeq	lr, r2, r8, lsl #10
    4dfc:	011d0f00 	tsteq	sp, r0, lsl #30
    4e00:	64040000 	strvs	r0, [r4], #-0
    4e04:	05000004 	streq	r0, [r0, #-4]
    4e08:	005d1916 	subseq	r1, sp, r6, lsl r9
    4e0c:	b0100000 	andslt	r0, r0, r0
    4e10:	18000001 	stmdane	r0, {r0}
    4e14:	8f082f05 	svchi	0x00082f05
    4e18:	0d000001 	stceq	0, cr0, [r0, #-4]
    4e1c:	000003c0 	andeq	r0, r0, r0, asr #7
    4e20:	8f133105 	svchi	0x00133105
    4e24:	00000001 	andeq	r0, r0, r1
    4e28:	006b5f11 	rsbeq	r5, fp, r1, lsl pc
    4e2c:	25073205 	strcs	r3, [r7, #-517]	; 0xfffffdfb
    4e30:	04000000 	streq	r0, [r0], #-0
    4e34:	0004000d 	andeq	r0, r4, sp
    4e38:	0b320500 	bleq	c86240 <__bss_end__+0xc7c210>
    4e3c:	00000025 	andeq	r0, r0, r5, lsr #32
    4e40:	01990d08 	orrseq	r0, r9, r8, lsl #26
    4e44:	32050000 	andcc	r0, r5, #0
    4e48:	00002514 	andeq	r2, r0, r4, lsl r5
    4e4c:	ae0d0c00 	cdpge	12, 0, cr0, cr13, cr0, {0}
    4e50:	05000004 	streq	r0, [r0, #-4]
    4e54:	00251b32 	eoreq	r1, r5, r2, lsr fp
    4e58:	11100000 	tstne	r0, r0
    4e5c:	0500785f 	streq	r7, [r0, #-2143]	; 0xfffff7a1
    4e60:	01950b33 	orrseq	r0, r5, r3, lsr fp
    4e64:	00140000 	andseq	r0, r4, r0
    4e68:	01350405 	teqeq	r5, r5, lsl #8
    4e6c:	290a0000 	stmdbcs	sl, {}	; <UNPREDICTABLE>
    4e70:	a5000001 	strge	r0, [r0, #-1]
    4e74:	0b000001 	bleq	4e80 <_start-0x3180>
    4e78:	0000002c 	andeq	r0, r0, ip, lsr #32
    4e7c:	dd100000 	ldcle	0, cr0, [r0, #-0]
    4e80:	24000001 	strcs	r0, [r0], #-1
    4e84:	28083705 	stmdacs	r8, {r0, r2, r8, r9, sl, ip, sp}
    4e88:	0d000002 	stceq	0, cr0, [r0, #-8]
    4e8c:	0000009e 	muleq	r0, lr, r0
    4e90:	25093905 	strcs	r3, [r9, #-2309]	; 0xfffff6fb
    4e94:	00000000 	andeq	r0, r0, r0
    4e98:	00043a0d 	andeq	r3, r4, sp, lsl #20
    4e9c:	093a0500 	ldmdbeq	sl!, {r8, sl}
    4ea0:	00000025 	andeq	r0, r0, r5, lsr #32
    4ea4:	00c10d04 	sbceq	r0, r1, r4, lsl #26
    4ea8:	3b050000 	blcc	144eb0 <__bss_end__+0x13ae80>
    4eac:	00002509 	andeq	r2, r0, r9, lsl #10
    4eb0:	2f0d0800 	svccs	0x000d0800
    4eb4:	05000005 	streq	r0, [r0, #-5]
    4eb8:	0025093c 	eoreq	r0, r5, ip, lsr r9
    4ebc:	0d0c0000 	stceq	0, cr0, [ip, #-0]
    4ec0:	000002a1 	andeq	r0, r0, r1, lsr #5
    4ec4:	25093d05 	strcs	r3, [r9, #-3333]	; 0xfffff2fb
    4ec8:	10000000 	andne	r0, r0, r0
    4ecc:	0002830d 	andeq	r8, r2, sp, lsl #6
    4ed0:	093e0500 	ldmdbeq	lr!, {r8, sl}
    4ed4:	00000025 	andeq	r0, r0, r5, lsr #32
    4ed8:	04b30d14 	ldrteq	r0, [r3], #3348	; 0xd14
    4edc:	3f050000 	svccc	0x00050000
    4ee0:	00002509 	andeq	r2, r0, r9, lsl #10
    4ee4:	810d1800 	tsthi	sp, r0, lsl #16
    4ee8:	05000003 	streq	r0, [r0, #-3]
    4eec:	00250940 	eoreq	r0, r5, r0, asr #18
    4ef0:	0d1c0000 	ldceq	0, cr0, [ip, #-0]
    4ef4:	000004f6 	strdeq	r0, [r0], -r6
    4ef8:	25094105 	strcs	r4, [r9, #-261]	; 0xfffffefb
    4efc:	20000000 	andcs	r0, r0, r0
    4f00:	01011200 	mrseq	r1, R9_usr
    4f04:	01080000 	mrseq	r0, (UNDEF: 8)
    4f08:	6d084a05 	vstrvs	s8, [r8, #-20]	; 0xffffffec
    4f0c:	0d000002 	stceq	0, cr0, [r0, #-8]
    4f10:	0000018c 	andeq	r0, r0, ip, lsl #3
    4f14:	6d0a4b05 	vstrvs	d4, [sl, #-20]	; 0xffffffec
    4f18:	00000002 	andeq	r0, r0, r2
    4f1c:	0000000d 	andeq	r0, r0, sp
    4f20:	094c0500 	stmdbeq	ip, {r8, sl}^
    4f24:	0000026d 	andeq	r0, r0, sp, ror #4
    4f28:	04561380 	ldrbeq	r1, [r6], #-896	; 0xfffffc80
    4f2c:	4e050000 	cdpmi	0, 0, cr0, cr5, cr0, {0}
    4f30:	0001290a 	andeq	r2, r1, sl, lsl #18
    4f34:	13010000 	movwne	r0, #4096	; 0x1000
    4f38:	00000126 	andeq	r0, r0, r6, lsr #2
    4f3c:	290a5105 	stmdbcs	sl, {r0, r2, r8, ip, lr}
    4f40:	04000001 	streq	r0, [r0], #-1
    4f44:	150a0001 	strne	r0, [sl, #-1]
    4f48:	7d000001 	stcvc	0, cr0, [r0, #-4]
    4f4c:	0b000002 	bleq	4f5c <_start-0x30a4>
    4f50:	0000002c 	andeq	r0, r0, ip, lsr #32
    4f54:	aa12001f 	bge	484fd8 <__bss_end__+0x47afa8>
    4f58:	90000002 	andls	r0, r0, r2
    4f5c:	085d0501 	ldmdaeq	sp, {r0, r8, sl}^
    4f60:	000002c0 	andeq	r0, r0, r0, asr #5
    4f64:	0003c00d 	andeq	ip, r3, sp
    4f68:	125e0500 	subsne	r0, lr, #0, 10
    4f6c:	000002c0 	andeq	r0, r0, r0, asr #5
    4f70:	03d80d00 	bicseq	r0, r8, #0, 26
    4f74:	5f050000 	svcpl	0x00050000
    4f78:	00002506 	andeq	r2, r0, r6, lsl #10
    4f7c:	940d0400 	strls	r0, [sp], #-1024	; 0xfffffc00
    4f80:	05000001 	streq	r0, [r0, #-1]
    4f84:	02c60961 	sbceq	r0, r6, #1589248	; 0x184000
    4f88:	0d080000 	stceq	0, cr0, [r8, #-0]
    4f8c:	00000101 	andeq	r0, r0, r1, lsl #2
    4f90:	281e6205 	ldmdacs	lr, {r0, r2, r9, sp, lr}
    4f94:	88000002 	stmdahi	r0, {r1}
    4f98:	7d040500 	cfstr32vc	mvfx0, [r4, #-0]
    4f9c:	0a000002 	beq	4fac <_start-0x3054>
    4fa0:	000002d6 	ldrdeq	r0, [r0], -r6
    4fa4:	000002d6 	ldrdeq	r0, [r0], -r6
    4fa8:	00002c0b 	andeq	r2, r0, fp, lsl #24
    4fac:	05001f00 	streq	r1, [r0, #-3840]	; 0xfffff100
    4fb0:	0002dc04 	andeq	sp, r2, r4, lsl #24
    4fb4:	8b101400 	blhi	409fbc <__bss_end__+0x3fff8c>
    4fb8:	08000003 	stmdaeq	r0, {r0, r1}
    4fbc:	05087505 	streq	r7, [r8, #-1285]	; 0xfffffafb
    4fc0:	0d000003 	stceq	0, cr0, [r0, #-12]
    4fc4:	000000bb 	strheq	r0, [r0], -fp
    4fc8:	05117605 	ldreq	r7, [r1, #-1541]	; 0xfffff9fb
    4fcc:	00000003 	andeq	r0, r0, r3
    4fd0:	00001b0d 	andeq	r1, r0, sp, lsl #22
    4fd4:	06770500 	ldrbteq	r0, [r7], -r0, lsl #10
    4fd8:	00000025 	andeq	r0, r0, r5, lsr #32
    4fdc:	04050004 	streq	r0, [r5], #-4
    4fe0:	0000004f 	andeq	r0, r0, pc, asr #32
    4fe4:	0003aa10 	andeq	sl, r3, r0, lsl sl
    4fe8:	b5056800 	strlt	r6, [r5, #-2048]	; 0xfffff800
    4fec:	00044e08 	andeq	r4, r4, r8, lsl #28
    4ff0:	705f1100 	subsvc	r1, pc, r0, lsl #2
    4ff4:	12b60500 	adcsne	r0, r6, #0, 10
    4ff8:	00000305 	andeq	r0, r0, r5, lsl #6
    4ffc:	725f1100 	subsvc	r1, pc, #0, 2
    5000:	07b70500 	ldreq	r0, [r7, r0, lsl #10]!
    5004:	00000025 	andeq	r0, r0, r5, lsr #32
    5008:	775f1104 	ldrbvc	r1, [pc, -r4, lsl #2]
    500c:	07b80500 	ldreq	r0, [r8, r0, lsl #10]!
    5010:	00000025 	andeq	r0, r0, r5, lsr #32
    5014:	011f0d08 	tsteq	pc, r8, lsl #26
    5018:	b9050000 	stmdblt	r5, {}	; <UNPREDICTABLE>
    501c:	00003a09 	andeq	r3, r0, r9, lsl #20
    5020:	080d0c00 	stmdaeq	sp, {sl, fp}
    5024:	05000002 	streq	r0, [r0, #-2]
    5028:	003a09ba 	ldrhteq	r0, [sl], -sl
    502c:	110e0000 	mrsne	r0, (UNDEF: 14)
    5030:	0066625f 	rsbeq	r6, r6, pc, asr r2
    5034:	dd11bb05 	vldrle	d11, [r1, #-20]	; 0xffffffec
    5038:	10000002 	andne	r0, r0, r2
    503c:	00007b0d 	andeq	r7, r0, sp, lsl #22
    5040:	07bc0500 	ldreq	r0, [ip, r0, lsl #10]!
    5044:	00000025 	andeq	r0, r0, r5, lsr #32
    5048:	010f0d18 	tsteq	pc, r8, lsl sp	; <UNPREDICTABLE>
    504c:	c3050000 	movwgt	r0, #20480	; 0x5000
    5050:	0001150a 	andeq	r1, r1, sl, lsl #10
    5054:	240d1c00 	strcs	r1, [sp], #-3072	; 0xfffff400
    5058:	0500000b 	streq	r0, [r0, #-11]
    505c:	05c01dc5 	strbeq	r1, [r0, #3525]	; 0xdc5
    5060:	0d200000 	stceq	0, cr0, [r0, #-0]
    5064:	00000619 	andeq	r0, r0, r9, lsl r6
    5068:	ea1dc705 	b	776c84 <__bss_end__+0x76cc54>
    506c:	24000005 	strcs	r0, [r0], #-5
    5070:	00042c0d 	andeq	r2, r4, sp, lsl #24
    5074:	0dca0500 	cfstr64eq	mvdx0, [sl]
    5078:	0000060e 	andeq	r0, r0, lr, lsl #12
    507c:	05100d28 	ldreq	r0, [r0, #-3368]	; 0xfffff2d8
    5080:	cb050000 	blgt	145088 <__bss_end__+0x13b058>
    5084:	00062809 	andeq	r2, r6, r9, lsl #16
    5088:	5f112c00 	svcpl	0x00112c00
    508c:	05006275 	streq	r6, [r0, #-629]	; 0xfffffd8b
    5090:	02dd11ce 	sbcseq	r1, sp, #-2147483597	; 0x80000033
    5094:	11300000 	teqne	r0, r0
    5098:	0070755f 	rsbseq	r7, r0, pc, asr r5
    509c:	0512cf05 	ldreq	ip, [r2, #-3845]	; 0xfffff0fb
    50a0:	38000003 	stmdacc	r0, {r0, r1}
    50a4:	72755f11 	rsbsvc	r5, r5, #17, 30	; 0x44
    50a8:	07d00500 	ldrbeq	r0, [r0, r0, lsl #10]
    50ac:	00000025 	andeq	r0, r0, r5, lsr #32
    50b0:	00b50d3c 	adcseq	r0, r5, ip, lsr sp
    50b4:	d3050000 	movwle	r0, #20480	; 0x5000
    50b8:	00062e11 	andeq	r2, r6, r1, lsl lr
    50bc:	e80d4000 	stmda	sp, {lr}
    50c0:	05000004 	streq	r0, [r0, #-4]
    50c4:	063e11d4 			; <UNDEFINED> instruction: 0x063e11d4
    50c8:	11430000 	mrsne	r0, (UNDEF: 67)
    50cc:	00626c5f 	rsbeq	r6, r2, pc, asr ip
    50d0:	dd11d705 	ldcle	7, cr13, [r1, #-20]	; 0xffffffec
    50d4:	44000002 	strmi	r0, [r0], #-2
    50d8:	00013d0d 	andeq	r3, r1, sp, lsl #26
    50dc:	07da0500 	ldrbeq	r0, [sl, r0, lsl #10]
    50e0:	00000025 	andeq	r0, r0, r5, lsr #32
    50e4:	014e0d4c 	cmpeq	lr, ip, asr #26
    50e8:	db050000 	blle	1450f0 <__bss_end__+0x13b0c0>
    50ec:	0000820a 	andeq	r8, r0, sl, lsl #4
    50f0:	c50d5000 	strgt	r5, [sp, #-0]
    50f4:	0500000a 	streq	r0, [r0, #-10]
    50f8:	046c12de 	strbteq	r1, [ip], #-734	; 0xfffffd22
    50fc:	0d540000 	ldcleq	0, cr0, [r4, #-0]
    5100:	0000041e 	andeq	r0, r0, lr, lsl r4
    5104:	090ce205 	stmdbeq	ip, {r0, r2, r9, sp, lr, pc}
    5108:	58000001 	stmdapl	r0, {r0}
    510c:	0003b20d 	andeq	fp, r3, sp, lsl #4
    5110:	0ee40500 	cdpeq	5, 14, cr0, cr4, cr0, {0}
    5114:	000000fd 	strdeq	r0, [r0], -sp
    5118:	027b0d5c 	rsbseq	r0, fp, #92, 26	; 0x1700
    511c:	e5050000 	str	r0, [r5, #-0]
    5120:	00002509 	andeq	r2, r0, r9, lsl #10
    5124:	15006400 	strne	r6, [r0, #-1024]	; 0xfffffc00
    5128:	00000025 	andeq	r0, r0, r5, lsr #32
    512c:	0000046c 	andeq	r0, r0, ip, ror #8
    5130:	00046c16 	andeq	r6, r4, r6, lsl ip
    5134:	01151600 	tsteq	r5, r0, lsl #12
    5138:	17160000 	ldrne	r0, [r6, -r0]
    513c:	16000001 	strne	r0, [r0], -r1
    5140:	00000025 	andeq	r0, r0, r5, lsr #32
    5144:	77040500 	strvc	r0, [r4, -r0, lsl #10]
    5148:	0f000004 	svceq	0x00000004
    514c:	0000046c 	andeq	r0, r0, ip, ror #8
    5150:	00040817 	andeq	r0, r4, r7, lsl r8
    5154:	05042800 	streq	r2, [r4, #-2048]	; 0xfffff800
    5158:	c0080260 	andgt	r0, r8, r0, ror #4
    515c:	18000005 	stmdane	r0, {r0, r2}
    5160:	00000370 	andeq	r0, r0, r0, ror r3
    5164:	07026205 	streq	r6, [r2, -r5, lsl #4]
    5168:	00000025 	andeq	r0, r0, r5, lsr #32
    516c:	012e1800 			; <UNDEFINED> instruction: 0x012e1800
    5170:	67050000 	strvs	r0, [r5, -r0]
    5174:	069a0b02 	ldreq	r0, [sl], r2, lsl #22
    5178:	18040000 	stmdane	r4, {}	; <UNPREDICTABLE>
    517c:	000001f8 	strdeq	r0, [r0], -r8
    5180:	14026705 	strne	r6, [r2], #-1797	; 0xfffff8fb
    5184:	0000069a 	muleq	r0, sl, r6
    5188:	01a81808 			; <UNDEFINED> instruction: 0x01a81808
    518c:	67050000 	strvs	r0, [r5, -r0]
    5190:	069a1e02 	ldreq	r1, [sl], r2, lsl #28
    5194:	180c0000 	stmdane	ip, {}	; <UNPREDICTABLE>
    5198:	000003d3 	ldrdeq	r0, [r0], -r3
    519c:	08026905 	stmdaeq	r2, {r0, r2, r8, fp, sp, lr}
    51a0:	00000025 	andeq	r0, r0, r5, lsr #32
    51a4:	00291810 	eoreq	r1, r9, r0, lsl r8
    51a8:	6a050000 	bvs	1451b0 <__bss_end__+0x13b180>
    51ac:	089a0802 	ldmeq	sl, {r1, fp}
    51b0:	18140000 	ldmdane	r4, {}	; <UNPREDICTABLE>
    51b4:	000003e7 	andeq	r0, r0, r7, ror #7
    51b8:	07026d05 	streq	r6, [r2, -r5, lsl #26]
    51bc:	00000025 	andeq	r0, r0, r5, lsr #32
    51c0:	0a011830 	beq	4b288 <__bss_end__+0x41258>
    51c4:	6e050000 	cdpvs	0, 0, cr0, cr5, cr0, {0}
    51c8:	08af1602 	stmiaeq	pc!, {r1, r9, sl, ip}	; <UNPREDICTABLE>
    51cc:	18340000 	ldmdane	r4!, {}	; <UNPREDICTABLE>
    51d0:	000002b2 			; <UNDEFINED> instruction: 0x000002b2
    51d4:	07027005 	streq	r7, [r2, -r5]
    51d8:	00000025 	andeq	r0, r0, r5, lsr #32
    51dc:	03dd1838 	bicseq	r1, sp, #56, 16	; 0x380000
    51e0:	72050000 	andvc	r0, r5, #0
    51e4:	08c00a02 	stmiaeq	r0, {r1, r9, fp}^
    51e8:	183c0000 	ldmdane	ip!, {}	; <UNPREDICTABLE>
    51ec:	00000257 	andeq	r0, r0, r7, asr r2
    51f0:	13027505 	movwne	r7, #9477	; 0x2505
    51f4:	0000018f 	andeq	r0, r0, pc, lsl #3
    51f8:	01c71840 	biceq	r1, r7, r0, asr #16
    51fc:	76050000 	strvc	r0, [r5], -r0
    5200:	00250702 	eoreq	r0, r5, r2, lsl #14
    5204:	18440000 	stmdane	r4, {}^	; <UNPREDICTABLE>
    5208:	0000052a 	andeq	r0, r0, sl, lsr #10
    520c:	13027705 	movwne	r7, #9989	; 0x2705
    5210:	0000018f 	andeq	r0, r0, pc, lsl #3
    5214:	02c41848 	sbceq	r1, r4, #72, 16	; 0x480000
    5218:	78050000 	stmdavc	r5, {}	; <UNPREDICTABLE>
    521c:	08c61402 	stmiaeq	r6, {r1, sl, ip}^
    5220:	184c0000 	stmdane	ip, {}^	; <UNPREDICTABLE>
    5224:	00000200 	andeq	r0, r0, r0, lsl #4
    5228:	07027b05 	streq	r7, [r2, -r5, lsl #22]
    522c:	00000025 	andeq	r0, r0, r5, lsr #32
    5230:	01461850 	cmpeq	r6, r0, asr r8
    5234:	7c050000 	stcvc	0, cr0, [r5], {-0}
    5238:	01170902 	tsteq	r7, r2, lsl #18
    523c:	18540000 	ldmdane	r4, {}^	; <UNPREDICTABLE>
    5240:	000002ea 	andeq	r0, r0, sl, ror #5
    5244:	07029f05 	streq	r9, [r2, -r5, lsl #30]
    5248:	00000875 	andeq	r0, r0, r5, ror r8
    524c:	02aa1958 	adceq	r1, sl, #88, 18	; 0x160000
    5250:	a3050000 	movwge	r0, #20480	; 0x5000
    5254:	02c01302 	sbceq	r1, r0, #134217728	; 0x8000000
    5258:	01480000 	mrseq	r0, (UNDEF: 72)
    525c:	00023519 	andeq	r3, r2, r9, lsl r5
    5260:	02a40500 	adceq	r0, r4, #0, 10
    5264:	00027d12 	andeq	r7, r2, r2, lsl sp
    5268:	19014c00 	stmdbne	r1, {sl, fp, lr}
    526c:	000004d6 	ldrdeq	r0, [r0], -r6
    5270:	0c02a805 	stceq	8, cr10, [r2], {5}
    5274:	000008d7 	ldrdeq	r0, [r0], -r7
    5278:	171902dc 			; <UNDEFINED> instruction: 0x171902dc
    527c:	05000001 	streq	r0, [r0, #-1]
    5280:	5b1002ad 	blpl	405d3c <__bss_end__+0x3fbd0c>
    5284:	e0000006 	and	r0, r0, r6
    5288:	00fc1902 	rscseq	r1, ip, r2, lsl #18
    528c:	af050000 	svcge	0x00050000
    5290:	08e30a02 	stmiaeq	r3!, {r1, r9, fp}^
    5294:	02ec0000 	rsceq	r0, ip, #0
    5298:	4e040500 	cfsh32mi	mvfx0, mvfx4, #0
    529c:	15000004 	strne	r0, [r0, #-4]
    52a0:	00000025 	andeq	r0, r0, r5, lsr #32
    52a4:	000005e4 	andeq	r0, r0, r4, ror #11
    52a8:	00046c16 	andeq	r6, r4, r6, lsl ip
    52ac:	01151600 	tsteq	r5, r0, lsl #12
    52b0:	e4160000 	ldr	r0, [r6], #-0
    52b4:	16000005 	strne	r0, [r0], -r5
    52b8:	00000025 	andeq	r0, r0, r5, lsr #32
    52bc:	24040500 	strcs	r0, [r4], #-1280	; 0xfffffb00
    52c0:	05000001 	streq	r0, [r0, #-1]
    52c4:	0005c604 	andeq	ip, r5, r4, lsl #12
    52c8:	008e1500 	addeq	r1, lr, r0, lsl #10
    52cc:	060e0000 	streq	r0, [lr], -r0
    52d0:	6c160000 	ldcvs	0, cr0, [r6], {-0}
    52d4:	16000004 	strne	r0, [r0], -r4
    52d8:	00000115 	andeq	r0, r0, r5, lsl r1
    52dc:	00008e16 	andeq	r8, r0, r6, lsl lr
    52e0:	00251600 	eoreq	r1, r5, r0, lsl #12
    52e4:	05000000 	streq	r0, [r0, #-0]
    52e8:	0005f004 	andeq	pc, r5, r4
    52ec:	00251500 	eoreq	r1, r5, r0, lsl #10
    52f0:	06280000 	strteq	r0, [r8], -r0
    52f4:	6c160000 	ldcvs	0, cr0, [r6], {-0}
    52f8:	16000004 	strne	r0, [r0], -r4
    52fc:	00000115 	andeq	r0, r0, r5, lsl r1
    5300:	14040500 	strne	r0, [r4], #-1280	; 0xfffffb00
    5304:	0a000006 	beq	5324 <_start-0x2cdc>
    5308:	0000004f 	andeq	r0, r0, pc, asr #32
    530c:	0000063e 	andeq	r0, r0, lr, lsr r6
    5310:	00002c0b 	andeq	r2, r0, fp, lsl #24
    5314:	0a000200 	beq	5b1c <_start-0x24e4>
    5318:	0000004f 	andeq	r0, r0, pc, asr #32
    531c:	0000064e 	andeq	r0, r0, lr, asr #12
    5320:	00002c0b 	andeq	r2, r0, fp, lsl #24
    5324:	07000000 	streq	r0, [r0, -r0]
    5328:	00000398 	muleq	r0, r8, r3
    532c:	1a011f05 	bne	4cf48 <__bss_end__+0x42f18>
    5330:	0000030b 	andeq	r0, r0, fp, lsl #6
    5334:	0004bd1a 	andeq	fp, r4, sl, lsl sp
    5338:	23050c00 	movwcs	r0, #23552	; 0x5c00
    533c:	06940801 	ldreq	r0, [r4], r1, lsl #16
    5340:	c0180000 	andsgt	r0, r8, r0
    5344:	05000003 	streq	r0, [r0, #-3]
    5348:	94110125 	ldrls	r0, [r1], #-293	; 0xfffffedb
    534c:	00000006 	andeq	r0, r0, r6
    5350:	00021b18 	andeq	r1, r2, r8, lsl fp
    5354:	01260500 			; <UNDEFINED> instruction: 0x01260500
    5358:	00002507 	andeq	r2, r0, r7, lsl #10
    535c:	92180400 	andsls	r0, r8, #0, 8
    5360:	05000003 	streq	r0, [r0, #-3]
    5364:	9a0b0127 	bls	2c5808 <__bss_end__+0x2bb7d8>
    5368:	08000006 	stmdaeq	r0, {r1, r2}
    536c:	5b040500 	blpl	106774 <__bss_end__+0xfc744>
    5370:	05000006 	streq	r0, [r0, #-6]
    5374:	00064e04 	andeq	r4, r6, r4, lsl #28
    5378:	00211a00 	eoreq	r1, r1, r0, lsl #20
    537c:	050e0000 	streq	r0, [lr, #-0]
    5380:	d908013f 	stmdble	r8, {r0, r1, r2, r3, r4, r5, r8}
    5384:	18000006 	stmdane	r0, {r1, r2}
    5388:	0000040f 	andeq	r0, r0, pc, lsl #8
    538c:	12014005 	andne	r4, r1, #5
    5390:	000006d9 	ldrdeq	r0, [r0], -r9
    5394:	04431800 	strbeq	r1, [r3], #-2048	; 0xfffff800
    5398:	41050000 	mrsmi	r0, (UNDEF: 5)
    539c:	06d91201 	ldrbeq	r1, [r9], r1, lsl #4
    53a0:	18060000 	stmdane	r6, {}	; <UNPREDICTABLE>
    53a4:	0000045f 	andeq	r0, r0, pc, asr r4
    53a8:	12014205 	andne	r4, r1, #1342177280	; 0x50000000
    53ac:	00000056 	andeq	r0, r0, r6, asr r0
    53b0:	560a000c 	strpl	r0, [sl], -ip
    53b4:	e9000000 	stmdb	r0, {}	; <UNPREDICTABLE>
    53b8:	0b000006 	bleq	53d8 <_start-0x2c28>
    53bc:	0000002c 	andeq	r0, r0, ip, lsr #32
    53c0:	d01b0002 	andsle	r0, fp, r2
    53c4:	07028005 	streq	r8, [r2, -r5]
    53c8:	000007fe 	strdeq	r0, [r0], -lr
    53cc:	0004a118 	andeq	sl, r4, r8, lsl r1
    53d0:	02820500 	addeq	r0, r2, #0, 10
    53d4:	00002c18 	andeq	r2, r0, r8, lsl ip
    53d8:	49180000 	ldmdbmi	r8, {}	; <UNPREDICTABLE>
    53dc:	05000004 	streq	r0, [r0, #-4]
    53e0:	17120283 	ldrne	r0, [r2, -r3, lsl #5]
    53e4:	04000001 	streq	r0, [r0], #-1
    53e8:	00024a18 	andeq	r4, r2, r8, lsl sl
    53ec:	02840500 	addeq	r0, r4, #0, 10
    53f0:	0007fe10 	andeq	pc, r7, r0, lsl lr	; <UNPREDICTABLE>
    53f4:	01180800 	tsteq	r8, r0, lsl #16
    53f8:	05000005 	streq	r0, [r0, #-5]
    53fc:	a5170285 	ldrge	r0, [r7, #-645]	; 0xfffffd7b
    5400:	24000001 	strcs	r0, [r0], #-1
    5404:	0001b818 	andeq	fp, r1, r8, lsl r8
    5408:	02860500 	addeq	r0, r6, #0, 10
    540c:	0000250f 	andeq	r2, r0, pc, lsl #10
    5410:	bb184800 	bllt	617418 <__bss_end__+0x60d3e8>
    5414:	05000003 	streq	r0, [r0, #-3]
    5418:	642c0287 	strtvs	r0, [ip], #-647	; 0xfffffd79
    541c:	50000000 	andpl	r0, r0, r0
    5420:	00051718 	andeq	r1, r5, r8, lsl r7
    5424:	02880500 	addeq	r0, r8, #0, 10
    5428:	0006a01a 	andeq	sl, r6, sl, lsl r0
    542c:	c6185800 	ldrgt	r5, [r8], -r0, lsl #16
    5430:	05000003 	streq	r0, [r0, #-3]
    5434:	fd160289 	ldc2	2, cr0, [r6, #-548]	; 0xfffffddc
    5438:	68000000 	stmdavs	r0, {}	; <UNPREDICTABLE>
    543c:	00051c18 	andeq	r1, r5, r8, lsl ip
    5440:	028a0500 	addeq	r0, sl, #0, 10
    5444:	0000fd16 	andeq	pc, r0, r6, lsl sp	; <UNPREDICTABLE>
    5448:	ce187000 	cdpgt	0, 1, cr7, cr8, cr0, {0}
    544c:	05000002 	streq	r0, [r0, #-2]
    5450:	fd16028b 	ldc2	2, cr0, [r6, #-556]	; 0xfffffdd4
    5454:	78000000 	stmdavc	r0, {}	; <UNPREDICTABLE>
    5458:	0004cc18 	andeq	ip, r4, r8, lsl ip
    545c:	028c0500 	addeq	r0, ip, #0, 10
    5460:	00080e10 	andeq	r0, r8, r0, lsl lr
    5464:	3e188000 	cdpcc	0, 1, cr8, cr8, cr0, {0}
    5468:	05000002 	streq	r0, [r0, #-2]
    546c:	1e10028d 	cdpne	2, 1, cr0, cr0, cr13, {4}
    5470:	88000008 	stmdahi	r0, {r3}
    5474:	00046c18 	andeq	r6, r4, r8, lsl ip
    5478:	028e0500 	addeq	r0, lr, #0, 10
    547c:	0000250f 	andeq	r2, r0, pc, lsl #10
    5480:	7e18a000 	cdpvc	0, 1, cr10, cr8, cr0, {0}
    5484:	05000001 	streq	r0, [r0, #-1]
    5488:	fd16028f 	ldc2	2, cr0, [r6, #-572]	; 0xfffffdc4
    548c:	a4000000 	strge	r0, [r0], #-0
    5490:	00008f18 	andeq	r8, r0, r8, lsl pc
    5494:	02900500 	addseq	r0, r0, #0, 10
    5498:	0000fd16 	andeq	pc, r0, r6, lsl sp	; <UNPREDICTABLE>
    549c:	6d18ac00 	ldcvs	12, cr10, [r8, #-0]
    54a0:	05000001 	streq	r0, [r0, #-1]
    54a4:	fd160291 	ldc2	2, cr0, [r6, #-580]	; 0xfffffdbc
    54a8:	b4000000 	strlt	r0, [r0], #-0
    54ac:	00003c18 	andeq	r3, r0, r8, lsl ip
    54b0:	02920500 	addseq	r0, r2, #0, 10
    54b4:	0000fd16 	andeq	pc, r0, r6, lsl sp	; <UNPREDICTABLE>
    54b8:	4b18bc00 	blmi	6344c0 <__bss_end__+0x62a490>
    54bc:	05000000 	streq	r0, [r0, #-0]
    54c0:	fd160293 	ldc2	2, cr0, [r6, #-588]	; 0xfffffdb4
    54c4:	c4000000 	strgt	r0, [r0], #-0
    54c8:	00036e18 	andeq	r6, r3, r8, lsl lr
    54cc:	02940500 	addseq	r0, r4, #0, 10
    54d0:	00002508 	andeq	r2, r0, r8, lsl #10
    54d4:	0a00cc00 	beq	384dc <__bss_end__+0x2e4ac>
    54d8:	0000011d 	andeq	r0, r0, sp, lsl r1
    54dc:	0000080e 	andeq	r0, r0, lr, lsl #16
    54e0:	00002c0b 	andeq	r2, r0, fp, lsl #24
    54e4:	0a001900 	beq	b8ec <__bss_end__+0x18bc>
    54e8:	0000011d 	andeq	r0, r0, sp, lsl r1
    54ec:	0000081e 	andeq	r0, r0, lr, lsl r8
    54f0:	00002c0b 	andeq	r2, r0, fp, lsl #24
    54f4:	0a000700 	beq	70fc <_start-0xf04>
    54f8:	0000011d 	andeq	r0, r0, sp, lsl r1
    54fc:	0000082e 	andeq	r0, r0, lr, lsr #16
    5500:	00002c0b 	andeq	r2, r0, fp, lsl #24
    5504:	1b001700 	blne	b10c <__bss_end__+0x10dc>
    5508:	029905f0 	addseq	r0, r9, #240, 10	; 0x3c000000
    550c:	00085507 	andeq	r5, r8, r7, lsl #10
    5510:	029a1800 	addseq	r1, sl, #0, 16
    5514:	9c050000 	stcls	0, cr0, [r5], {-0}
    5518:	08551b02 	ldmdaeq	r5, {r1, r8, r9, fp, ip}^
    551c:	18000000 	stmdane	r0, {}	; <UNPREDICTABLE>
    5520:	000004c3 	andeq	r0, r0, r3, asr #9
    5524:	18029d05 	stmdane	r2, {r0, r2, r8, sl, fp, ip, pc}
    5528:	00000865 	andeq	r0, r0, r5, ror #16
    552c:	050a0078 	streq	r0, [sl, #-120]	; 0xffffff88
    5530:	65000003 	strvs	r0, [r0, #-3]
    5534:	0b000008 	bleq	555c <_start-0x2aa4>
    5538:	0000002c 	andeq	r0, r0, ip, lsr #32
    553c:	2c0a001d 	stccs	0, cr0, [sl], {29}
    5540:	75000000 	strvc	r0, [r0, #-0]
    5544:	0b000008 	bleq	556c <_start-0x2a94>
    5548:	0000002c 	andeq	r0, r0, ip, lsr #32
    554c:	f01c001d 			; <UNDEFINED> instruction: 0xf01c001d
    5550:	03027e05 	movweq	r7, #11781	; 0x2e05
    5554:	0000089a 	muleq	r0, sl, r8
    5558:	0004081d 	andeq	r0, r4, sp, lsl r8
    555c:	02950500 	addseq	r0, r5, #0, 10
    5560:	0006e90b 	andeq	lr, r6, fp, lsl #18
    5564:	04ee1d00 	strbteq	r1, [lr], #3328	; 0xd00
    5568:	9e050000 	cdpls	0, 0, cr0, cr5, cr0, {0}
    556c:	082e0b02 	stmdaeq	lr!, {r1, r8, r9, fp}
    5570:	0a000000 	beq	5578 <_start-0x2a88>
    5574:	0000011d 	andeq	r0, r0, sp, lsl r1
    5578:	000008aa 	andeq	r0, r0, sl, lsr #17
    557c:	00002c0b 	andeq	r2, r0, fp, lsl #24
    5580:	06001800 	streq	r1, [r0], -r0, lsl #16
    5584:	00000084 	andeq	r0, r0, r4, lsl #1
    5588:	08aa0405 	stmiaeq	sl!, {r0, r2, sl}
    558c:	c01e0000 	andsgt	r0, lr, r0
    5590:	16000008 	strne	r0, [r0], -r8
    5594:	0000046c 	andeq	r0, r0, ip, ror #8
    5598:	b5040500 	strlt	r0, [r4, #-1280]	; 0xfffffb00
    559c:	05000008 	streq	r0, [r0, #-8]
    55a0:	00018f04 	andeq	r8, r1, r4, lsl #30
    55a4:	08d71e00 	ldmeq	r7, {r9, sl, fp, ip}^
    55a8:	25160000 	ldrcs	r0, [r6, #-0]
    55ac:	00000000 	andeq	r0, r0, r0
    55b0:	08dd0405 	ldmeq	sp, {r0, r2, sl}^
    55b4:	04050000 	streq	r0, [r5], #-0
    55b8:	000008cc 	andeq	r0, r0, ip, asr #17
    55bc:	00064e0a 	andeq	r4, r6, sl, lsl #28
    55c0:	0008f300 	andeq	pc, r8, r0, lsl #6
    55c4:	002c0b00 	eoreq	r0, ip, r0, lsl #22
    55c8:	00020000 	andeq	r0, r2, r0
    55cc:	00048e1f 	andeq	r8, r4, pc, lsl lr
    55d0:	032e0500 			; <UNDEFINED> instruction: 0x032e0500
    55d4:	00046c17 	andeq	r6, r4, r7, lsl ip
    55d8:	04871f00 	streq	r1, [r7], #3840	; 0xf00
    55dc:	2f050000 	svccs	0x00050000
    55e0:	04721d03 	ldrbteq	r1, [r2], #-3331	; 0xfffff2fd
    55e4:	25150000 	ldrcs	r0, [r5, #-0]
    55e8:	1c000000 	stcne	0, cr0, [r0], {-0}
    55ec:	16000009 	strne	r0, [r0], -r9
    55f0:	00000025 	andeq	r0, r0, r5, lsr #32
    55f4:	01d12000 	bicseq	r2, r1, r0
    55f8:	1d060000 	stcne	0, cr0, [r6, #-0]
    55fc:	0009280e 	andeq	r2, r9, lr, lsl #16
    5600:	0d040500 	cfstr32eq	mvfx0, [r4, #-0]
    5604:	15000009 	strne	r0, [r0, #-9]
    5608:	00000025 	andeq	r0, r0, r5, lsr #32
    560c:	0000093d 	andeq	r0, r0, sp, lsr r9
    5610:	0005e416 	andeq	lr, r5, r6, lsl r4
    5614:	68200000 	stmdavs	r0!, {}	; <UNPREDICTABLE>
    5618:	06000007 	streq	r0, [r0], -r7
    561c:	09490e22 	stmdbeq	r9, {r1, r5, r9, sl, fp}^
    5620:	04050000 	streq	r0, [r5], #-0
    5624:	0000092e 	andeq	r0, r0, lr, lsr #18
    5628:	00093d21 	andeq	r3, r9, r1, lsr #26
    562c:	070c0100 	streq	r0, [ip, -r0, lsl #2]
    5630:	964c0305 	strbls	r0, [ip], -r5, lsl #6
    5634:	5f220000 	svcpl	0x00220000
    5638:	01000007 	tsteq	r0, r7
    563c:	00250504 	eoreq	r0, r5, r4, lsl #10
    5640:	8b0c0000 	blhi	305648 <__bss_end__+0x2fb618>
    5644:	00340000 	eorseq	r0, r4, r0
    5648:	9c010000 	stcls	0, cr0, [r1], {-0}
    564c:	01007023 	tsteq	r0, r3, lsr #32
    5650:	05e41f04 	strbeq	r1, [r4, #3844]!	; 0xf04
    5654:	0a9b0000 	beq	fe6c565c <__bss_end__+0xfe6bb62c>
    5658:	0a970000 	beq	fe5c5660 <__bss_end__+0xfe5bb630>
    565c:	00000000 	andeq	r0, r0, r0
    5660:	00000fa0 	andeq	r0, r0, r0, lsr #31
    5664:	109d0004 	addsne	r0, sp, r4
    5668:	01040000 	mrseq	r0, (UNDEF: 4)
    566c:	000002ef 	andeq	r0, r0, pc, ror #5
    5670:	0007790c 	andeq	r7, r7, ip, lsl #18
    5674:	0006c100 	andeq	ip, r6, r0, lsl #2
    5678:	008b4000 	addeq	r4, fp, r0
    567c:	00052000 	andeq	r2, r5, r0
    5680:	000f0900 	andeq	r0, pc, r0, lsl #18
    5684:	05040200 	streq	r0, [r4, #-512]	; 0xfffffe00
    5688:	00746e69 	rsbseq	r6, r4, r9, ror #28
    568c:	66070403 	strvs	r0, [r7], -r3, lsl #8
    5690:	03000000 	movweq	r0, #0
    5694:	02de0601 	sbcseq	r0, lr, #1048576	; 0x100000
    5698:	02030000 	andeq	r0, r3, #0
    569c:	00037705 	andeq	r7, r3, r5, lsl #14
    56a0:	05040300 	streq	r0, [r4, #-768]	; 0xfffffd00
    56a4:	000000ac 	andeq	r0, r0, ip, lsr #1
    56a8:	a7050803 	strge	r0, [r5, -r3, lsl #16]
    56ac:	03000000 	movweq	r0, #0
    56b0:	02dc0801 	sbcseq	r0, ip, #65536	; 0x10000
    56b4:	02030000 	andeq	r0, r3, #0
    56b8:	00022207 	andeq	r2, r2, r7, lsl #4
    56bc:	07040300 	streq	r0, [r4, -r0, lsl #6]
    56c0:	00000061 	andeq	r0, r0, r1, rrx
    56c4:	5c070803 	stcpl	8, cr0, [r7], {3}
    56c8:	04000000 	streq	r0, [r0], #-0
    56cc:	00000265 	andeq	r0, r0, r5, ror #4
    56d0:	77192202 	ldrvc	r2, [r9, -r2, lsl #4]
    56d4:	05000000 	streq	r0, [r0, #-0]
    56d8:	00007d04 	andeq	r7, r0, r4, lsl #26
    56dc:	041d0600 	ldreq	r0, [sp], #-1536	; 0xfffffa00
    56e0:	bd040000 	stclt	0, cr0, [r4, #-0]
    56e4:	03000002 	movweq	r0, #2
    56e8:	00410e2c 	subeq	r0, r1, ip, lsr #28
    56ec:	32040000 	andcc	r0, r4, #0
    56f0:	03000004 	movweq	r0, #4
    56f4:	00410e72 	subeq	r0, r1, r2, ror lr
    56f8:	6d070000 	stcvs	0, cr0, [r7, #-0]
    56fc:	04000002 	streq	r0, [r0], #-2
    5700:	2c17015e 	ldfcss	f0, [r7], {94}	; 0x5e
    5704:	08000000 	stmdaeq	r0, {}	; <UNPREDICTABLE>
    5708:	03a60304 			; <UNDEFINED> instruction: 0x03a60304
    570c:	000000c9 	andeq	r0, r0, r9, asr #1
    5710:	00025f09 	andeq	r5, r2, r9, lsl #30
    5714:	0ca80300 	stceq	3, cr0, [r8]
    5718:	0000009a 	muleq	r0, sl, r0
    571c:	0001e209 	andeq	lr, r1, r9, lsl #4
    5720:	13a90300 			; <UNDEFINED> instruction: 0x13a90300
    5724:	000000c9 	andeq	r0, r0, r9, asr #1
    5728:	004f0a00 	subeq	r0, pc, r0, lsl #20
    572c:	00d90000 	sbcseq	r0, r9, r0
    5730:	2c0b0000 	stccs	0, cr0, [fp], {-0}
    5734:	03000000 	movweq	r0, #0
    5738:	03080c00 	movweq	r0, #35840	; 0x8c00
    573c:	00fd09a3 	rscseq	r0, sp, r3, lsr #19
    5740:	150d0000 	strne	r0, [sp, #-0]
    5744:	03000004 	movweq	r0, #4
    5748:	002507a5 	eoreq	r0, r5, r5, lsr #15
    574c:	0d000000 	stceq	0, cr0, [r0, #-0]
    5750:	00000424 	andeq	r0, r0, r4, lsr #8
    5754:	a705aa03 	strge	sl, [r5, -r3, lsl #20]
    5758:	04000000 	streq	r0, [r0], #-0
    575c:	039f0400 	orrseq	r0, pc, #0, 8
    5760:	ab030000 	blge	c5768 <__bss_end__+0xbb738>
    5764:	0000d903 	andeq	sp, r0, r3, lsl #18
    5768:	019f0400 	orrseq	r0, pc, r0, lsl #8
    576c:	af030000 	svcge	0x00030000
    5770:	00006b1b 	andeq	r6, r0, fp, lsl fp
    5774:	05040e00 	streq	r0, [r4, #-3584]	; 0xfffff200
    5778:	00011d04 	andeq	r1, r1, r4, lsl #26
    577c:	08010300 	stmdaeq	r1, {r8, r9}
    5780:	000002e5 	andeq	r0, r0, r5, ror #5
    5784:	00011d0f 	andeq	r1, r1, pc, lsl #26
    5788:	04640400 	strbteq	r0, [r4], #-1024	; 0xfffffc00
    578c:	16050000 	strne	r0, [r5], -r0
    5790:	00005d19 	andeq	r5, r0, r9, lsl sp
    5794:	01b01000 	movseq	r1, r0
    5798:	05180000 	ldreq	r0, [r8, #-0]
    579c:	018f082f 	orreq	r0, pc, pc, lsr #16
    57a0:	c00d0000 	andgt	r0, sp, r0
    57a4:	05000003 	streq	r0, [r0, #-3]
    57a8:	018f1331 	orreq	r1, pc, r1, lsr r3	; <UNPREDICTABLE>
    57ac:	11000000 	mrsne	r0, (UNDEF: 0)
    57b0:	05006b5f 	streq	r6, [r0, #-2911]	; 0xfffff4a1
    57b4:	00250732 	eoreq	r0, r5, r2, lsr r7
    57b8:	0d040000 	stceq	0, cr0, [r4, #-0]
    57bc:	00000400 	andeq	r0, r0, r0, lsl #8
    57c0:	250b3205 	strcs	r3, [fp, #-517]	; 0xfffffdfb
    57c4:	08000000 	stmdaeq	r0, {}	; <UNPREDICTABLE>
    57c8:	0001990d 	andeq	r9, r1, sp, lsl #18
    57cc:	14320500 	ldrtne	r0, [r2], #-1280	; 0xfffffb00
    57d0:	00000025 	andeq	r0, r0, r5, lsr #32
    57d4:	04ae0d0c 	strteq	r0, [lr], #3340	; 0xd0c
    57d8:	32050000 	andcc	r0, r5, #0
    57dc:	0000251b 	andeq	r2, r0, fp, lsl r5
    57e0:	5f111000 	svcpl	0x00111000
    57e4:	33050078 	movwcc	r0, #20600	; 0x5078
    57e8:	0001950b 	andeq	r9, r1, fp, lsl #10
    57ec:	05001400 	streq	r1, [r0, #-1024]	; 0xfffffc00
    57f0:	00013504 	andeq	r3, r1, r4, lsl #10
    57f4:	01290a00 			; <UNDEFINED> instruction: 0x01290a00
    57f8:	01a50000 			; <UNDEFINED> instruction: 0x01a50000
    57fc:	2c0b0000 	stccs	0, cr0, [fp], {-0}
    5800:	00000000 	andeq	r0, r0, r0
    5804:	01dd1000 	bicseq	r1, sp, r0
    5808:	05240000 	streq	r0, [r4, #-0]!
    580c:	02280837 	eoreq	r0, r8, #3604480	; 0x370000
    5810:	9e0d0000 	cdpls	0, 0, cr0, cr13, cr0, {0}
    5814:	05000000 	streq	r0, [r0, #-0]
    5818:	00250939 	eoreq	r0, r5, r9, lsr r9
    581c:	0d000000 	stceq	0, cr0, [r0, #-0]
    5820:	0000043a 	andeq	r0, r0, sl, lsr r4
    5824:	25093a05 	strcs	r3, [r9, #-2565]	; 0xfffff5fb
    5828:	04000000 	streq	r0, [r0], #-0
    582c:	0000c10d 	andeq	ip, r0, sp, lsl #2
    5830:	093b0500 	ldmdbeq	fp!, {r8, sl}
    5834:	00000025 	andeq	r0, r0, r5, lsr #32
    5838:	052f0d08 	streq	r0, [pc, #-3336]!	; 4b38 <_start-0x34c8>
    583c:	3c050000 	stccc	0, cr0, [r5], {-0}
    5840:	00002509 	andeq	r2, r0, r9, lsl #10
    5844:	a10d0c00 	tstge	sp, r0, lsl #24
    5848:	05000002 	streq	r0, [r0, #-2]
    584c:	0025093d 	eoreq	r0, r5, sp, lsr r9
    5850:	0d100000 	ldceq	0, cr0, [r0, #-0]
    5854:	00000283 	andeq	r0, r0, r3, lsl #5
    5858:	25093e05 	strcs	r3, [r9, #-3589]	; 0xfffff1fb
    585c:	14000000 	strne	r0, [r0], #-0
    5860:	0004b30d 	andeq	fp, r4, sp, lsl #6
    5864:	093f0500 	ldmdbeq	pc!, {r8, sl}	; <UNPREDICTABLE>
    5868:	00000025 	andeq	r0, r0, r5, lsr #32
    586c:	03810d18 	orreq	r0, r1, #24, 26	; 0x600
    5870:	40050000 	andmi	r0, r5, r0
    5874:	00002509 	andeq	r2, r0, r9, lsl #10
    5878:	f60d1c00 			; <UNDEFINED> instruction: 0xf60d1c00
    587c:	05000004 	streq	r0, [r0, #-4]
    5880:	00250941 	eoreq	r0, r5, r1, asr #18
    5884:	00200000 	eoreq	r0, r0, r0
    5888:	00010112 	andeq	r0, r1, r2, lsl r1
    588c:	05010800 	streq	r0, [r1, #-2048]	; 0xfffff800
    5890:	026d084a 	rsbeq	r0, sp, #4849664	; 0x4a0000
    5894:	8c0d0000 	stchi	0, cr0, [sp], {-0}
    5898:	05000001 	streq	r0, [r0, #-1]
    589c:	026d0a4b 	rsbeq	r0, sp, #307200	; 0x4b000
    58a0:	0d000000 	stceq	0, cr0, [r0, #-0]
    58a4:	00000000 	andeq	r0, r0, r0
    58a8:	6d094c05 	stcvs	12, cr4, [r9, #-20]	; 0xffffffec
    58ac:	80000002 	andhi	r0, r0, r2
    58b0:	00045613 	andeq	r5, r4, r3, lsl r6
    58b4:	0a4e0500 	beq	1386cbc <__bss_end__+0x137cc8c>
    58b8:	00000129 	andeq	r0, r0, r9, lsr #2
    58bc:	26130100 	ldrcs	r0, [r3], -r0, lsl #2
    58c0:	05000001 	streq	r0, [r0, #-1]
    58c4:	01290a51 			; <UNDEFINED> instruction: 0x01290a51
    58c8:	01040000 	mrseq	r0, (UNDEF: 4)
    58cc:	01150a00 	tsteq	r5, r0, lsl #20
    58d0:	027d0000 	rsbseq	r0, sp, #0
    58d4:	2c0b0000 	stccs	0, cr0, [fp], {-0}
    58d8:	1f000000 	svcne	0x00000000
    58dc:	02aa1200 	adceq	r1, sl, #0, 4
    58e0:	01900000 	orrseq	r0, r0, r0
    58e4:	c0085d05 	andgt	r5, r8, r5, lsl #26
    58e8:	0d000002 	stceq	0, cr0, [r0, #-8]
    58ec:	000003c0 	andeq	r0, r0, r0, asr #7
    58f0:	c0125e05 	andsgt	r5, r2, r5, lsl #28
    58f4:	00000002 	andeq	r0, r0, r2
    58f8:	0003d80d 	andeq	sp, r3, sp, lsl #16
    58fc:	065f0500 	ldrbeq	r0, [pc], -r0, lsl #10
    5900:	00000025 	andeq	r0, r0, r5, lsr #32
    5904:	01940d04 	orrseq	r0, r4, r4, lsl #26
    5908:	61050000 	mrsvs	r0, (UNDEF: 5)
    590c:	0002c609 	andeq	ip, r2, r9, lsl #12
    5910:	010d0800 	tsteq	sp, r0, lsl #16
    5914:	05000001 	streq	r0, [r0, #-1]
    5918:	02281e62 	eoreq	r1, r8, #1568	; 0x620
    591c:	00880000 	addeq	r0, r8, r0
    5920:	027d0405 	rsbseq	r0, sp, #83886080	; 0x5000000
    5924:	d60a0000 	strle	r0, [sl], -r0
    5928:	d6000002 	strle	r0, [r0], -r2
    592c:	0b000002 	bleq	593c <_start-0x26c4>
    5930:	0000002c 	andeq	r0, r0, ip, lsr #32
    5934:	0405001f 	streq	r0, [r5], #-31	; 0xffffffe1
    5938:	000002dc 	ldrdeq	r0, [r0], -ip
    593c:	038b1014 	orreq	r1, fp, #20
    5940:	05080000 	streq	r0, [r8, #-0]
    5944:	03050875 	movweq	r0, #22645	; 0x5875
    5948:	bb0d0000 	bllt	345950 <__bss_end__+0x33b920>
    594c:	05000000 	streq	r0, [r0, #-0]
    5950:	03051176 	movweq	r1, #20854	; 0x5176
    5954:	0d000000 	stceq	0, cr0, [r0, #-0]
    5958:	0000001b 	andeq	r0, r0, fp, lsl r0
    595c:	25067705 	strcs	r7, [r6, #-1797]	; 0xfffff8fb
    5960:	04000000 	streq	r0, [r0], #-0
    5964:	4f040500 	svcmi	0x00040500
    5968:	10000000 	andne	r0, r0, r0
    596c:	000003aa 	andeq	r0, r0, sl, lsr #7
    5970:	08b50568 	ldmeq	r5!, {r3, r5, r6, r8, sl}
    5974:	0000044e 	andeq	r0, r0, lr, asr #8
    5978:	00705f11 	rsbseq	r5, r0, r1, lsl pc
    597c:	0512b605 	ldreq	fp, [r2, #-1541]	; 0xfffff9fb
    5980:	00000003 	andeq	r0, r0, r3
    5984:	00725f11 	rsbseq	r5, r2, r1, lsl pc
    5988:	2507b705 	strcs	fp, [r7, #-1797]	; 0xfffff8fb
    598c:	04000000 	streq	r0, [r0], #-0
    5990:	00775f11 	rsbseq	r5, r7, r1, lsl pc
    5994:	2507b805 	strcs	fp, [r7, #-2053]	; 0xfffff7fb
    5998:	08000000 	stmdaeq	r0, {}	; <UNPREDICTABLE>
    599c:	00011f0d 	andeq	r1, r1, sp, lsl #30
    59a0:	09b90500 	ldmibeq	r9!, {r8, sl}
    59a4:	0000003a 	andeq	r0, r0, sl, lsr r0
    59a8:	02080d0c 	andeq	r0, r8, #12, 26	; 0x300
    59ac:	ba050000 	blt	1459b4 <__bss_end__+0x13b984>
    59b0:	00003a09 	andeq	r3, r0, r9, lsl #20
    59b4:	5f110e00 	svcpl	0x00110e00
    59b8:	05006662 	streq	r6, [r0, #-1634]	; 0xfffff99e
    59bc:	02dd11bb 	sbcseq	r1, sp, #-1073741778	; 0xc000002e
    59c0:	0d100000 	ldceq	0, cr0, [r0, #-0]
    59c4:	0000007b 	andeq	r0, r0, fp, ror r0
    59c8:	2507bc05 	strcs	fp, [r7, #-3077]	; 0xfffff3fb
    59cc:	18000000 	stmdane	r0, {}	; <UNPREDICTABLE>
    59d0:	00010f0d 	andeq	r0, r1, sp, lsl #30
    59d4:	0ac30500 	beq	ff0c6ddc <__bss_end__+0xff0bcdac>
    59d8:	00000115 	andeq	r0, r0, r5, lsl r1
    59dc:	0b240d1c 	bleq	908e54 <__bss_end__+0x8fee24>
    59e0:	c5050000 	strgt	r0, [r5, #-0]
    59e4:	0005c01d 	andeq	ip, r5, sp, lsl r0
    59e8:	190d2000 	stmdbne	sp, {sp}
    59ec:	05000006 	streq	r0, [r0, #-6]
    59f0:	05ea1dc7 	strbeq	r1, [sl, #3527]!	; 0xdc7
    59f4:	0d240000 	stceq	0, cr0, [r4, #-0]
    59f8:	0000042c 	andeq	r0, r0, ip, lsr #8
    59fc:	0e0dca05 	vmlaeq.f32	s24, s26, s10
    5a00:	28000006 	stmdacs	r0, {r1, r2}
    5a04:	0005100d 	andeq	r1, r5, sp
    5a08:	09cb0500 	stmibeq	fp, {r8, sl}^
    5a0c:	00000628 	andeq	r0, r0, r8, lsr #12
    5a10:	755f112c 	ldrbvc	r1, [pc, #-300]	; 58ec <_start-0x2714>
    5a14:	ce050062 	cdpgt	0, 0, cr0, cr5, cr2, {3}
    5a18:	0002dd11 	andeq	sp, r2, r1, lsl sp
    5a1c:	5f113000 	svcpl	0x00113000
    5a20:	05007075 	streq	r7, [r0, #-117]	; 0xffffff8b
    5a24:	030512cf 	movweq	r1, #21199	; 0x52cf
    5a28:	11380000 	teqne	r8, r0
    5a2c:	0072755f 	rsbseq	r7, r2, pc, asr r5
    5a30:	2507d005 	strcs	sp, [r7, #-5]
    5a34:	3c000000 	stccc	0, cr0, [r0], {-0}
    5a38:	0000b50d 	andeq	fp, r0, sp, lsl #10
    5a3c:	11d30500 	bicsne	r0, r3, r0, lsl #10
    5a40:	0000062e 	andeq	r0, r0, lr, lsr #12
    5a44:	04e80d40 	strbteq	r0, [r8], #3392	; 0xd40
    5a48:	d4050000 	strle	r0, [r5], #-0
    5a4c:	00063e11 	andeq	r3, r6, r1, lsl lr
    5a50:	5f114300 	svcpl	0x00114300
    5a54:	0500626c 	streq	r6, [r0, #-620]	; 0xfffffd94
    5a58:	02dd11d7 	sbcseq	r1, sp, #-1073741771	; 0xc0000035
    5a5c:	0d440000 	stcleq	0, cr0, [r4, #-0]
    5a60:	0000013d 	andeq	r0, r0, sp, lsr r1
    5a64:	2507da05 	strcs	sp, [r7, #-2565]	; 0xfffff5fb
    5a68:	4c000000 	stcmi	0, cr0, [r0], {-0}
    5a6c:	00014e0d 	andeq	r4, r1, sp, lsl #28
    5a70:	0adb0500 	beq	ff6c6e78 <__bss_end__+0xff6bce48>
    5a74:	00000082 	andeq	r0, r0, r2, lsl #1
    5a78:	0ac50d50 	beq	ff148fc0 <__bss_end__+0xff13ef90>
    5a7c:	de050000 	cdple	0, 0, cr0, cr5, cr0, {0}
    5a80:	00046c12 	andeq	r6, r4, r2, lsl ip
    5a84:	1e0d5400 	cfcpysne	mvf5, mvf13
    5a88:	05000004 	streq	r0, [r0, #-4]
    5a8c:	01090ce2 	smlatteq	r9, r2, ip, r0
    5a90:	0d580000 	ldcleq	0, cr0, [r8, #-0]
    5a94:	000003b2 			; <UNDEFINED> instruction: 0x000003b2
    5a98:	fd0ee405 	stc2	4, cr14, [lr, #-20]	; 0xffffffec
    5a9c:	5c000000 	stcpl	0, cr0, [r0], {-0}
    5aa0:	00027b0d 	andeq	r7, r2, sp, lsl #22
    5aa4:	09e50500 	stmibeq	r5!, {r8, sl}^
    5aa8:	00000025 	andeq	r0, r0, r5, lsr #32
    5aac:	25150064 	ldrcs	r0, [r5, #-100]	; 0xffffff9c
    5ab0:	6c000000 	stcvs	0, cr0, [r0], {-0}
    5ab4:	16000004 	strne	r0, [r0], -r4
    5ab8:	0000046c 	andeq	r0, r0, ip, ror #8
    5abc:	00011516 	andeq	r1, r1, r6, lsl r5
    5ac0:	01171600 	tsteq	r7, r0, lsl #12
    5ac4:	25160000 	ldrcs	r0, [r6, #-0]
    5ac8:	00000000 	andeq	r0, r0, r0
    5acc:	04770405 	ldrbteq	r0, [r7], #-1029	; 0xfffffbfb
    5ad0:	6c0f0000 	stcvs	0, cr0, [pc], {-0}
    5ad4:	17000004 	strne	r0, [r0, -r4]
    5ad8:	00000408 	andeq	r0, r0, r8, lsl #8
    5adc:	60050428 	andvs	r0, r5, r8, lsr #8
    5ae0:	05c00802 	strbeq	r0, [r0, #2050]	; 0x802
    5ae4:	70180000 	andsvc	r0, r8, r0
    5ae8:	05000003 	streq	r0, [r0, #-3]
    5aec:	25070262 	strcs	r0, [r7, #-610]	; 0xfffffd9e
    5af0:	00000000 	andeq	r0, r0, r0
    5af4:	00012e18 	andeq	r2, r1, r8, lsl lr
    5af8:	02670500 	rsbeq	r0, r7, #0, 10
    5afc:	00069a0b 	andeq	r9, r6, fp, lsl #20
    5b00:	f8180400 			; <UNDEFINED> instruction: 0xf8180400
    5b04:	05000001 	streq	r0, [r0, #-1]
    5b08:	9a140267 	bls	5064ac <__bss_end__+0x4fc47c>
    5b0c:	08000006 	stmdaeq	r0, {r1, r2}
    5b10:	0001a818 	andeq	sl, r1, r8, lsl r8
    5b14:	02670500 	rsbeq	r0, r7, #0, 10
    5b18:	00069a1e 	andeq	r9, r6, lr, lsl sl
    5b1c:	d3180c00 	tstle	r8, #0, 24
    5b20:	05000003 	streq	r0, [r0, #-3]
    5b24:	25080269 	strcs	r0, [r8, #-617]	; 0xfffffd97
    5b28:	10000000 	andne	r0, r0, r0
    5b2c:	00002918 	andeq	r2, r0, r8, lsl r9
    5b30:	026a0500 	rsbeq	r0, sl, #0, 10
    5b34:	00089a08 	andeq	r9, r8, r8, lsl #20
    5b38:	e7181400 	ldr	r1, [r8, -r0, lsl #8]
    5b3c:	05000003 	streq	r0, [r0, #-3]
    5b40:	2507026d 	strcs	r0, [r7, #-621]	; 0xfffffd93
    5b44:	30000000 	andcc	r0, r0, r0
    5b48:	000a0118 	andeq	r0, sl, r8, lsl r1
    5b4c:	026e0500 	rsbeq	r0, lr, #0, 10
    5b50:	0008af16 	andeq	sl, r8, r6, lsl pc
    5b54:	b2183400 	andslt	r3, r8, #0, 8
    5b58:	05000002 	streq	r0, [r0, #-2]
    5b5c:	25070270 	strcs	r0, [r7, #-624]	; 0xfffffd90
    5b60:	38000000 	stmdacc	r0, {}	; <UNPREDICTABLE>
    5b64:	0003dd18 	andeq	sp, r3, r8, lsl sp
    5b68:	02720500 	rsbseq	r0, r2, #0, 10
    5b6c:	0008c00a 	andeq	ip, r8, sl
    5b70:	57183c00 	ldrpl	r3, [r8, -r0, lsl #24]
    5b74:	05000002 	streq	r0, [r0, #-2]
    5b78:	8f130275 	svchi	0x00130275
    5b7c:	40000001 	andmi	r0, r0, r1
    5b80:	0001c718 	andeq	ip, r1, r8, lsl r7
    5b84:	02760500 	rsbseq	r0, r6, #0, 10
    5b88:	00002507 	andeq	r2, r0, r7, lsl #10
    5b8c:	2a184400 	bcs	616b94 <__bss_end__+0x60cb64>
    5b90:	05000005 	streq	r0, [r0, #-5]
    5b94:	8f130277 	svchi	0x00130277
    5b98:	48000001 	stmdami	r0, {r0}
    5b9c:	0002c418 	andeq	ip, r2, r8, lsl r4
    5ba0:	02780500 	rsbseq	r0, r8, #0, 10
    5ba4:	0008c614 	andeq	ip, r8, r4, lsl r6
    5ba8:	00184c00 	andseq	r4, r8, r0, lsl #24
    5bac:	05000002 	streq	r0, [r0, #-2]
    5bb0:	2507027b 	strcs	r0, [r7, #-635]	; 0xfffffd85
    5bb4:	50000000 	andpl	r0, r0, r0
    5bb8:	00014618 	andeq	r4, r1, r8, lsl r6
    5bbc:	027c0500 	rsbseq	r0, ip, #0, 10
    5bc0:	00011709 	andeq	r1, r1, r9, lsl #14
    5bc4:	ea185400 	b	61abcc <__bss_end__+0x610b9c>
    5bc8:	05000002 	streq	r0, [r0, #-2]
    5bcc:	7507029f 	strvc	r0, [r7, #-671]	; 0xfffffd61
    5bd0:	58000008 	stmdapl	r0, {r3}
    5bd4:	0002aa19 	andeq	sl, r2, r9, lsl sl
    5bd8:	02a30500 	adceq	r0, r3, #0, 10
    5bdc:	0002c013 	andeq	ip, r2, r3, lsl r0
    5be0:	19014800 	stmdbne	r1, {fp, lr}
    5be4:	00000235 	andeq	r0, r0, r5, lsr r2
    5be8:	1202a405 	andne	sl, r2, #83886080	; 0x5000000
    5bec:	0000027d 	andeq	r0, r0, sp, ror r2
    5bf0:	d619014c 	ldrle	r0, [r9], -ip, asr #2
    5bf4:	05000004 	streq	r0, [r0, #-4]
    5bf8:	d70c02a8 	strle	r0, [ip, -r8, lsr #5]
    5bfc:	dc000008 	stcle	0, cr0, [r0], {8}
    5c00:	01171902 	tsteq	r7, r2, lsl #18
    5c04:	ad050000 	stcge	0, cr0, [r5, #-0]
    5c08:	065b1002 	ldrbeq	r1, [fp], -r2
    5c0c:	02e00000 	rsceq	r0, r0, #0
    5c10:	0000fc19 	andeq	pc, r0, r9, lsl ip	; <UNPREDICTABLE>
    5c14:	02af0500 	adceq	r0, pc, #0, 10
    5c18:	0008e30a 	andeq	lr, r8, sl, lsl #6
    5c1c:	0002ec00 	andeq	lr, r2, r0, lsl #24
    5c20:	044e0405 	strbeq	r0, [lr], #-1029	; 0xfffffbfb
    5c24:	25150000 	ldrcs	r0, [r5, #-0]
    5c28:	e4000000 	str	r0, [r0], #-0
    5c2c:	16000005 	strne	r0, [r0], -r5
    5c30:	0000046c 	andeq	r0, r0, ip, ror #8
    5c34:	00011516 	andeq	r1, r1, r6, lsl r5
    5c38:	05e41600 	strbeq	r1, [r4, #1536]!	; 0x600
    5c3c:	25160000 	ldrcs	r0, [r6, #-0]
    5c40:	00000000 	andeq	r0, r0, r0
    5c44:	01240405 			; <UNDEFINED> instruction: 0x01240405
    5c48:	04050000 	streq	r0, [r5], #-0
    5c4c:	000005c6 	andeq	r0, r0, r6, asr #11
    5c50:	00008e15 	andeq	r8, r0, r5, lsl lr
    5c54:	00060e00 	andeq	r0, r6, r0, lsl #28
    5c58:	046c1600 	strbteq	r1, [ip], #-1536	; 0xfffffa00
    5c5c:	15160000 	ldrne	r0, [r6, #-0]
    5c60:	16000001 	strne	r0, [r0], -r1
    5c64:	0000008e 	andeq	r0, r0, lr, lsl #1
    5c68:	00002516 	andeq	r2, r0, r6, lsl r5
    5c6c:	04050000 	streq	r0, [r5], #-0
    5c70:	000005f0 	strdeq	r0, [r0], -r0	; <UNPREDICTABLE>
    5c74:	00002515 	andeq	r2, r0, r5, lsl r5
    5c78:	00062800 	andeq	r2, r6, r0, lsl #16
    5c7c:	046c1600 	strbteq	r1, [ip], #-1536	; 0xfffffa00
    5c80:	15160000 	ldrne	r0, [r6, #-0]
    5c84:	00000001 	andeq	r0, r0, r1
    5c88:	06140405 	ldreq	r0, [r4], -r5, lsl #8
    5c8c:	4f0a0000 	svcmi	0x000a0000
    5c90:	3e000000 	cdpcc	0, 0, cr0, cr0, cr0, {0}
    5c94:	0b000006 	bleq	5cb4 <_start-0x234c>
    5c98:	0000002c 	andeq	r0, r0, ip, lsr #32
    5c9c:	4f0a0002 	svcmi	0x000a0002
    5ca0:	4e000000 	cdpmi	0, 0, cr0, cr0, cr0, {0}
    5ca4:	0b000006 	bleq	5cc4 <_start-0x233c>
    5ca8:	0000002c 	andeq	r0, r0, ip, lsr #32
    5cac:	98070000 	stmdals	r7, {}	; <UNPREDICTABLE>
    5cb0:	05000003 	streq	r0, [r0, #-3]
    5cb4:	0b1a011f 	bleq	686138 <__bss_end__+0x67c108>
    5cb8:	1a000003 	bne	5ccc <_start-0x2334>
    5cbc:	000004bd 			; <UNDEFINED> instruction: 0x000004bd
    5cc0:	0123050c 			; <UNDEFINED> instruction: 0x0123050c
    5cc4:	00069408 	andeq	r9, r6, r8, lsl #8
    5cc8:	03c01800 	biceq	r1, r0, #0, 16
    5ccc:	25050000 	strcs	r0, [r5, #-0]
    5cd0:	06941101 	ldreq	r1, [r4], r1, lsl #2
    5cd4:	18000000 	stmdane	r0, {}	; <UNPREDICTABLE>
    5cd8:	0000021b 	andeq	r0, r0, fp, lsl r2
    5cdc:	07012605 	streq	r2, [r1, -r5, lsl #12]
    5ce0:	00000025 	andeq	r0, r0, r5, lsr #32
    5ce4:	03921804 	orrseq	r1, r2, #4, 16	; 0x40000
    5ce8:	27050000 	strcs	r0, [r5, -r0]
    5cec:	069a0b01 	ldreq	r0, [sl], r1, lsl #22
    5cf0:	00080000 	andeq	r0, r8, r0
    5cf4:	065b0405 	ldrbeq	r0, [fp], -r5, lsl #8
    5cf8:	04050000 	streq	r0, [r5], #-0
    5cfc:	0000064e 	andeq	r0, r0, lr, asr #12
    5d00:	0000211a 	andeq	r2, r0, sl, lsl r1
    5d04:	3f050e00 	svccc	0x00050e00
    5d08:	06d90801 	ldrbeq	r0, [r9], r1, lsl #16
    5d0c:	0f180000 	svceq	0x00180000
    5d10:	05000004 	streq	r0, [r0, #-4]
    5d14:	d9120140 	ldmdble	r2, {r6, r8}
    5d18:	00000006 	andeq	r0, r0, r6
    5d1c:	00044318 	andeq	r4, r4, r8, lsl r3
    5d20:	01410500 	cmpeq	r1, r0, lsl #10
    5d24:	0006d912 	andeq	sp, r6, r2, lsl r9
    5d28:	5f180600 	svcpl	0x00180600
    5d2c:	05000004 	streq	r0, [r0, #-4]
    5d30:	56120142 	ldrpl	r0, [r2], -r2, asr #2
    5d34:	0c000000 	stceq	0, cr0, [r0], {-0}
    5d38:	00560a00 	subseq	r0, r6, r0, lsl #20
    5d3c:	06e90000 	strbteq	r0, [r9], r0
    5d40:	2c0b0000 	stccs	0, cr0, [fp], {-0}
    5d44:	02000000 	andeq	r0, r0, #0
    5d48:	05d01b00 	ldrbeq	r1, [r0, #2816]	; 0xb00
    5d4c:	fe070280 	cdp2	2, 0, cr0, cr7, cr0, {4}
    5d50:	18000007 	stmdane	r0, {r0, r1, r2}
    5d54:	000004a1 	andeq	r0, r0, r1, lsr #9
    5d58:	18028205 	stmdane	r2, {r0, r2, r9, pc}
    5d5c:	0000002c 	andeq	r0, r0, ip, lsr #32
    5d60:	04491800 	strbeq	r1, [r9], #-2048	; 0xfffff800
    5d64:	83050000 	movwhi	r0, #20480	; 0x5000
    5d68:	01171202 	tsteq	r7, r2, lsl #4
    5d6c:	18040000 	stmdane	r4, {}	; <UNPREDICTABLE>
    5d70:	0000024a 	andeq	r0, r0, sl, asr #4
    5d74:	10028405 	andne	r8, r2, r5, lsl #8
    5d78:	000007fe 	strdeq	r0, [r0], -lr
    5d7c:	05011808 	streq	r1, [r1, #-2056]	; 0xfffff7f8
    5d80:	85050000 	strhi	r0, [r5, #-0]
    5d84:	01a51702 			; <UNDEFINED> instruction: 0x01a51702
    5d88:	18240000 	stmdane	r4!, {}	; <UNPREDICTABLE>
    5d8c:	000001b8 			; <UNDEFINED> instruction: 0x000001b8
    5d90:	0f028605 	svceq	0x00028605
    5d94:	00000025 	andeq	r0, r0, r5, lsr #32
    5d98:	03bb1848 			; <UNDEFINED> instruction: 0x03bb1848
    5d9c:	87050000 	strhi	r0, [r5, -r0]
    5da0:	00642c02 	rsbeq	r2, r4, r2, lsl #24
    5da4:	18500000 	ldmdane	r0, {}^	; <UNPREDICTABLE>
    5da8:	00000517 	andeq	r0, r0, r7, lsl r5
    5dac:	1a028805 	bne	a7dc8 <__bss_end__+0x9dd98>
    5db0:	000006a0 	andeq	r0, r0, r0, lsr #13
    5db4:	03c61858 	biceq	r1, r6, #88, 16	; 0x580000
    5db8:	89050000 	stmdbhi	r5, {}	; <UNPREDICTABLE>
    5dbc:	00fd1602 	rscseq	r1, sp, r2, lsl #12
    5dc0:	18680000 	stmdane	r8!, {}^	; <UNPREDICTABLE>
    5dc4:	0000051c 	andeq	r0, r0, ip, lsl r5
    5dc8:	16028a05 	strne	r8, [r2], -r5, lsl #20
    5dcc:	000000fd 	strdeq	r0, [r0], -sp
    5dd0:	02ce1870 	sbceq	r1, lr, #112, 16	; 0x700000
    5dd4:	8b050000 	blhi	145ddc <__bss_end__+0x13bdac>
    5dd8:	00fd1602 	rscseq	r1, sp, r2, lsl #12
    5ddc:	18780000 	ldmdane	r8!, {}^	; <UNPREDICTABLE>
    5de0:	000004cc 	andeq	r0, r0, ip, asr #9
    5de4:	10028c05 	andne	r8, r2, r5, lsl #24
    5de8:	0000080e 	andeq	r0, r0, lr, lsl #16
    5dec:	023e1880 	eorseq	r1, lr, #128, 16	; 0x800000
    5df0:	8d050000 	stchi	0, cr0, [r5, #-0]
    5df4:	081e1002 	ldmdaeq	lr, {r1, ip}
    5df8:	18880000 	stmne	r8, {}	; <UNPREDICTABLE>
    5dfc:	0000046c 	andeq	r0, r0, ip, ror #8
    5e00:	0f028e05 	svceq	0x00028e05
    5e04:	00000025 	andeq	r0, r0, r5, lsr #32
    5e08:	017e18a0 	cmneq	lr, r0, lsr #17
    5e0c:	8f050000 	svchi	0x00050000
    5e10:	00fd1602 	rscseq	r1, sp, r2, lsl #12
    5e14:	18a40000 	stmiane	r4!, {}	; <UNPREDICTABLE>
    5e18:	0000008f 	andeq	r0, r0, pc, lsl #1
    5e1c:	16029005 	strne	r9, [r2], -r5
    5e20:	000000fd 	strdeq	r0, [r0], -sp
    5e24:	016d18ac 	cmneq	sp, ip, lsr #17
    5e28:	91050000 	mrsls	r0, (UNDEF: 5)
    5e2c:	00fd1602 	rscseq	r1, sp, r2, lsl #12
    5e30:	18b40000 	ldmne	r4!, {}	; <UNPREDICTABLE>
    5e34:	0000003c 	andeq	r0, r0, ip, lsr r0
    5e38:	16029205 	strne	r9, [r2], -r5, lsl #4
    5e3c:	000000fd 	strdeq	r0, [r0], -sp
    5e40:	004b18bc 	strheq	r1, [fp], #-140	; 0xffffff74
    5e44:	93050000 	movwls	r0, #20480	; 0x5000
    5e48:	00fd1602 	rscseq	r1, sp, r2, lsl #12
    5e4c:	18c40000 	stmiane	r4, {}^	; <UNPREDICTABLE>
    5e50:	0000036e 	andeq	r0, r0, lr, ror #6
    5e54:	08029405 	stmdaeq	r2, {r0, r2, sl, ip, pc}
    5e58:	00000025 	andeq	r0, r0, r5, lsr #32
    5e5c:	1d0a00cc 	stcne	0, cr0, [sl, #-816]	; 0xfffffcd0
    5e60:	0e000001 	cdpeq	0, 0, cr0, cr0, cr1, {0}
    5e64:	0b000008 	bleq	5e8c <_start-0x2174>
    5e68:	0000002c 	andeq	r0, r0, ip, lsr #32
    5e6c:	1d0a0019 	stcne	0, cr0, [sl, #-100]	; 0xffffff9c
    5e70:	1e000001 	cdpne	0, 0, cr0, cr0, cr1, {0}
    5e74:	0b000008 	bleq	5e9c <_start-0x2164>
    5e78:	0000002c 	andeq	r0, r0, ip, lsr #32
    5e7c:	1d0a0007 	stcne	0, cr0, [sl, #-28]	; 0xffffffe4
    5e80:	2e000001 	cdpcs	0, 0, cr0, cr0, cr1, {0}
    5e84:	0b000008 	bleq	5eac <_start-0x2154>
    5e88:	0000002c 	andeq	r0, r0, ip, lsr #32
    5e8c:	f01b0017 			; <UNDEFINED> instruction: 0xf01b0017
    5e90:	07029905 	streq	r9, [r2, -r5, lsl #18]
    5e94:	00000855 	andeq	r0, r0, r5, asr r8
    5e98:	00029a18 	andeq	r9, r2, r8, lsl sl
    5e9c:	029c0500 	addseq	r0, ip, #0, 10
    5ea0:	0008551b 	andeq	r5, r8, fp, lsl r5
    5ea4:	c3180000 	tstgt	r8, #0
    5ea8:	05000004 	streq	r0, [r0, #-4]
    5eac:	6518029d 	ldrvs	r0, [r8, #-669]	; 0xfffffd63
    5eb0:	78000008 	stmdavc	r0, {r3}
    5eb4:	03050a00 	movweq	r0, #23040	; 0x5a00
    5eb8:	08650000 	stmdaeq	r5!, {}^	; <UNPREDICTABLE>
    5ebc:	2c0b0000 	stccs	0, cr0, [fp], {-0}
    5ec0:	1d000000 	stcne	0, cr0, [r0, #-0]
    5ec4:	002c0a00 	eoreq	r0, ip, r0, lsl #20
    5ec8:	08750000 	ldmdaeq	r5!, {}^	; <UNPREDICTABLE>
    5ecc:	2c0b0000 	stccs	0, cr0, [fp], {-0}
    5ed0:	1d000000 	stcne	0, cr0, [r0, #-0]
    5ed4:	05f01c00 	ldrbeq	r1, [r0, #3072]!	; 0xc00
    5ed8:	9a03027e 	bls	c68d8 <__bss_end__+0xbc8a8>
    5edc:	1d000008 	stcne	0, cr0, [r0, #-32]	; 0xffffffe0
    5ee0:	00000408 	andeq	r0, r0, r8, lsl #8
    5ee4:	0b029505 	bleq	ab300 <__bss_end__+0xa12d0>
    5ee8:	000006e9 	andeq	r0, r0, r9, ror #13
    5eec:	0004ee1d 	andeq	lr, r4, sp, lsl lr
    5ef0:	029e0500 	addseq	r0, lr, #0, 10
    5ef4:	00082e0b 	andeq	r2, r8, fp, lsl #28
    5ef8:	1d0a0000 	stcne	0, cr0, [sl, #-0]
    5efc:	aa000001 	bge	5f08 <_start-0x20f8>
    5f00:	0b000008 	bleq	5f28 <_start-0x20d8>
    5f04:	0000002c 	andeq	r0, r0, ip, lsr #32
    5f08:	84060018 	strhi	r0, [r6], #-24	; 0xffffffe8
    5f0c:	05000000 	streq	r0, [r0, #-0]
    5f10:	0008aa04 	andeq	sl, r8, r4, lsl #20
    5f14:	08c01e00 	stmiaeq	r0, {r9, sl, fp, ip}^
    5f18:	6c160000 	ldcvs	0, cr0, [r6], {-0}
    5f1c:	00000004 	andeq	r0, r0, r4
    5f20:	08b50405 	ldmeq	r5!, {r0, r2, sl}
    5f24:	04050000 	streq	r0, [r5], #-0
    5f28:	0000018f 	andeq	r0, r0, pc, lsl #3
    5f2c:	0008d71e 	andeq	sp, r8, lr, lsl r7
    5f30:	00251600 	eoreq	r1, r5, r0, lsl #12
    5f34:	05000000 	streq	r0, [r0, #-0]
    5f38:	0008dd04 	andeq	sp, r8, r4, lsl #26
    5f3c:	cc040500 	cfstr32gt	mvfx0, [r4], {-0}
    5f40:	0a000008 	beq	5f68 <_start-0x2098>
    5f44:	0000064e 	andeq	r0, r0, lr, asr #12
    5f48:	000008f3 	strdeq	r0, [r0], -r3
    5f4c:	00002c0b 	andeq	r2, r0, fp, lsl #24
    5f50:	1f000200 	svcne	0x00000200
    5f54:	0000048e 	andeq	r0, r0, lr, lsl #9
    5f58:	17032e05 	strne	r2, [r3, -r5, lsl #28]
    5f5c:	0000046c 	andeq	r0, r0, ip, ror #8
    5f60:	0004871f 	andeq	r8, r4, pc, lsl r7
    5f64:	032f0500 			; <UNDEFINED> instruction: 0x032f0500
    5f68:	0004721d 	andeq	r7, r4, sp, lsl r2
    5f6c:	00251500 	eoreq	r1, r5, r0, lsl #10
    5f70:	091c0000 	ldmdbeq	ip, {}	; <UNPREDICTABLE>
    5f74:	25160000 	ldrcs	r0, [r6, #-0]
    5f78:	00000000 	andeq	r0, r0, r0
    5f7c:	0001d120 	andeq	sp, r1, r0, lsr #2
    5f80:	0e1d0600 	cfmsub32eq	mvax0, mvfx0, mvfx13, mvfx0
    5f84:	00000928 	andeq	r0, r0, r8, lsr #18
    5f88:	090d0405 	stmdbeq	sp, {r0, r2, sl}
    5f8c:	25150000 	ldrcs	r0, [r5, #-0]
    5f90:	3d000000 	stccc	0, cr0, [r0, #-0]
    5f94:	16000009 	strne	r0, [r0], -r9
    5f98:	000005e4 	andeq	r0, r0, r4, ror #11
    5f9c:	07682000 	strbeq	r2, [r8, -r0]!
    5fa0:	22060000 	andcs	r0, r6, #0
    5fa4:	0009490e 	andeq	r4, r9, lr, lsl #18
    5fa8:	2e040500 	cfsh32cs	mvfx0, mvfx4, #0
    5fac:	04000009 	streq	r0, [r0], #-9
    5fb0:	00000706 	andeq	r0, r0, r6, lsl #14
    5fb4:	5b1b2807 	blpl	6cffd8 <__bss_end__+0x6c5fa8>
    5fb8:	21000009 	tstcs	r0, r9
    5fbc:	000006f2 	strdeq	r0, [r0], -r2
    5fc0:	72000804 	andvc	r0, r0, #4, 16	; 0x40000
    5fc4:	22000009 	andcs	r0, r0, #9
    5fc8:	00000715 	andeq	r0, r0, r5, lsl r7
    5fcc:	00000115 	andeq	r0, r0, r5, lsl r1
    5fd0:	f4040000 	vst4.8	{d0-d3}, [r4], r0
    5fd4:	07000006 	streq	r0, [r0, -r6]
    5fd8:	094f1863 	stmdbeq	pc, {r0, r1, r5, r6, fp, ip}^	; <UNPREDICTABLE>
    5fdc:	fc230000 	stc2	0, cr0, [r3], #-0
    5fe0:	01000006 	tsteq	r0, r6
    5fe4:	0025057f 	eoreq	r0, r5, pc, ror r5
    5fe8:	8db00000 	ldchi	0, cr0, [r0]
    5fec:	02b00000 	adcseq	r0, r0, #0
    5ff0:	9c010000 	stcls	0, cr0, [r1], {-0}
    5ff4:	00000c0e 	andeq	r0, r0, lr, lsl #24
    5ff8:	66756224 	ldrbtvs	r6, [r5], -r4, lsr #4
    5ffc:	157f0100 	ldrbne	r0, [pc, #-256]!	; 5f04 <_start-0x20fc>
    6000:	00000117 	andeq	r0, r0, r7, lsl r1
    6004:	00000abf 			; <UNDEFINED> instruction: 0x00000abf
    6008:	00000ab9 			; <UNDEFINED> instruction: 0x00000ab9
    600c:	01006e24 	tsteq	r0, r4, lsr #28
    6010:	00251e7f 	eoreq	r1, r5, pc, ror lr
    6014:	0af10000 	beq	ffc4601c <__bss_end__+0xffc3bfec>
    6018:	0aeb0000 	beq	ffac6020 <__bss_end__+0xffabbff0>
    601c:	66240000 	strtvs	r0, [r4], -r0
    6020:	0100746d 	tsteq	r0, sp, ror #8
    6024:	05e42d7f 	strbeq	r2, [r4, #3455]!	; 0xd7f
    6028:	0b230000 	bleq	8c6030 <__bss_end__+0x8bc000>
    602c:	0b1f0000 	bleq	7c6034 <__bss_end__+0x7bc004>
    6030:	0a250000 	beq	946038 <__bss_end__+0x93c008>
    6034:	01000001 	tsteq	r0, r1
    6038:	09723a7f 	ldmdbeq	r2!, {r0, r1, r2, r3, r4, r5, r6, r9, fp, ip, sp}^
    603c:	91030000 	mrsls	r0, (UNDEF: 3)
    6040:	70267edc 	ldrdvc	r7, [r6], -ip	; <UNPREDICTABLE>
    6044:	08800100 	stmeq	r0, {r8}
    6048:	00000117 	andeq	r0, r0, r7, lsl r1
    604c:	00000b55 	andeq	r0, r0, r5, asr fp
    6050:	00000b41 	andeq	r0, r0, r1, asr #22
    6054:	01006526 	tsteq	r0, r6, lsr #10
    6058:	01171280 	tsteq	r7, r0, lsl #5
    605c:	0bd70000 	bleq	ff5c6064 <__bss_end__+0xff5bc034>
    6060:	0bd30000 	bleq	ff4c6068 <__bss_end__+0xff4bc038>
    6064:	0e270000 	cdpeq	0, 2, cr0, cr7, cr0, {0}
    6068:	1e000002 	cdpne	0, 0, cr0, cr0, cr2, {0}
    606c:	0500000c 	streq	r0, [r0, #-12]
    6070:	009aec03 	addseq	lr, sl, r3, lsl #24
    6074:	8e142800 	cdphi	8, 1, cr2, cr4, cr0, {0}
    6078:	02240000 	eoreq	r0, r4, #0
    607c:	73260000 			; <UNDEFINED> instruction: 0x73260000
    6080:	0a8d0100 	beq	fe346488 <__bss_end__+0xfe33c458>
    6084:	00000117 	andeq	r0, r0, r7, lsl r1
    6088:	00000c08 	andeq	r0, r0, r8, lsl #24
    608c:	00000bfe 	strdeq	r0, [r0], -lr
    6090:	6d756e29 	ldclvs	14, cr6, [r5, #-164]!	; 0xffffff5c
    6094:	0d8d0100 	stfeqs	f0, [sp]
    6098:	00000c23 	andeq	r0, r0, r3, lsr #24
    609c:	7ee09103 	urdvcs	f1, f3
    60a0:	0007aa2a 	andeq	sl, r7, sl, lsr #20
    60a4:	0d8e0100 	stfeqs	f0, [lr]
    60a8:	0000002c 	andeq	r0, r0, ip, lsr #32
    60ac:	00000c4d 	andeq	r0, r0, sp, asr #24
    60b0:	00000c47 	andeq	r0, r0, r7, asr #24
    60b4:	008e3c2b 	addeq	r3, lr, fp, lsr #24
    60b8:	000eae00 	andeq	sl, lr, r0, lsl #28
    60bc:	000a6800 	andeq	r6, sl, r0, lsl #16
    60c0:	50012c00 	andpl	r2, r1, r0, lsl #24
    60c4:	00007502 	andeq	r7, r0, r2, lsl #10
    60c8:	008ebc2d 	addeq	fp, lr, sp, lsr #24
    60cc:	000f7f00 	andeq	r7, pc, r0, lsl #30
    60d0:	8ed02b00 	vfnmshi.f64	d18, d0, d0
    60d4:	0f8b0000 	svceq	0x008b0000
    60d8:	0aa00000 	beq	fe8060e0 <__bss_end__+0xfe7fc0b0>
    60dc:	012c0000 			; <UNDEFINED> instruction: 0x012c0000
    60e0:	58030550 	stmdapl	r3, {r4, r6, r8, sl}
    60e4:	2c00009a 	stccs	0, cr0, [r0], {154}	; 0x9a
    60e8:	03055101 	movweq	r5, #20737	; 0x5101
    60ec:	000099f4 	strdeq	r9, [r0], -r4
    60f0:	0552012c 	ldrbeq	r0, [r2, #-300]	; 0xfffffed4
    60f4:	009aec03 	addseq	lr, sl, r3, lsl #24
    60f8:	53012c00 	movwpl	r2, #7168	; 0x1c00
    60fc:	00940802 	addseq	r0, r4, r2, lsl #16
    6100:	008ed42d 	addeq	sp, lr, sp, lsr #8
    6104:	000f9700 	andeq	r9, pc, r0, lsl #14
    6108:	8ed82d00 	cdphi	13, 13, cr2, cr8, cr0, {0}
    610c:	0f7f0000 	svceq	0x007f0000
    6110:	ec2b0000 	stc	0, cr0, [fp], #-0
    6114:	8b00008e 	blhi	6354 <_start-0x1cac>
    6118:	e100000f 	tst	r0, pc
    611c:	2c00000a 	stccs	0, cr0, [r0], {10}
    6120:	03055001 	movweq	r5, #20481	; 0x5001
    6124:	00009a74 	andeq	r9, r0, r4, ror sl
    6128:	0551012c 	ldrbeq	r0, [r1, #-300]	; 0xfffffed4
    612c:	0099f403 	addseq	pc, r9, r3, lsl #8
    6130:	52012c00 	andpl	r2, r1, #0, 24
    6134:	9aec0305 	bls	ffb06d50 <__bss_end__+0xffafcd20>
    6138:	012c0000 			; <UNDEFINED> instruction: 0x012c0000
    613c:	9a080253 	bls	206a90 <__bss_end__+0x1fca60>
    6140:	8ef02d00 	cdphi	13, 15, cr2, cr0, cr0, {0}
    6144:	0f970000 	svceq	0x00970000
    6148:	1c2b0000 	stcne	0, cr0, [fp], #-0
    614c:	3300008f 	movwcc	r0, #143	; 0x8f
    6150:	1700000c 	strne	r0, [r0, -ip]
    6154:	2c00000b 	stccs	0, cr0, [r0], {11}
    6158:	3a015001 	bcc	5a164 <__bss_end__+0x50134>
    615c:	0351012c 	cmpeq	r1, #44, 2
    6160:	2c7ed891 	ldclcs	8, cr13, [lr], #-580	; 0xfffffdbc
    6164:	08025201 	stmdaeq	r2, {r0, r9, ip, lr}
    6168:	7d022c80 	stcvc	12, cr2, [r2, #-512]	; 0xfffffe00
    616c:	00760200 	rsbseq	r0, r6, r0, lsl #4
    6170:	047d022c 	ldrbteq	r0, [sp], #-556	; 0xfffffdd4
    6174:	2b003101 	blcs	12580 <__bss_end__+0x8550>
    6178:	00008f6c 	andeq	r8, r0, ip, ror #30
    617c:	00000c33 	andeq	r0, r0, r3, lsr ip
    6180:	00000b44 	andeq	r0, r0, r4, asr #22
    6184:	0150012c 	cmpeq	r0, ip, lsr #2
    6188:	51012c3a 	tstpl	r1, sl, lsr ip
    618c:	7ed89103 	atnvce	f1, f3
    6190:	0252012c 	subseq	r0, r2, #44, 2
    6194:	022c8008 	eoreq	r8, ip, #8
    6198:	7602007d 			; <UNDEFINED> instruction: 0x7602007d
    619c:	7d022c00 	stcvc	12, cr2, [r2, #-0]
    61a0:	00300104 	eorseq	r0, r0, r4, lsl #2
    61a4:	008f9c2b 	addeq	r9, pc, fp, lsr #24
    61a8:	000c3300 	andeq	r3, ip, r0, lsl #6
    61ac:	000b7100 	andeq	r7, fp, r0, lsl #2
    61b0:	50012c00 	andpl	r2, r1, r0, lsl #24
    61b4:	012c4001 			; <UNDEFINED> instruction: 0x012c4001
    61b8:	d8910351 	ldmle	r1, {r0, r4, r6, r8, r9}
    61bc:	52012c7e 	andpl	r2, r1, #32256	; 0x7e00
    61c0:	2c800802 	stccs	8, cr0, [r0], {2}
    61c4:	02007d02 	andeq	r7, r0, #2, 26	; 0x80
    61c8:	022c0076 	eoreq	r0, ip, #118	; 0x76
    61cc:	3001047d 	andcc	r0, r1, sp, ror r4
    61d0:	8fcc2b00 	svchi	0x00cc2b00
    61d4:	0c330000 	ldceq	0, cr0, [r3], #-0
    61d8:	0b9e0000 	bleq	fe7861e0 <__bss_end__+0xfe77c1b0>
    61dc:	012c0000 			; <UNDEFINED> instruction: 0x012c0000
    61e0:	2c320150 	ldfcss	f0, [r2], #-320	; 0xfffffec0
    61e4:	91035101 	tstls	r3, r1, lsl #2
    61e8:	012c7ed8 	ldrdeq	r7, [ip, -r8]!
    61ec:	80080252 	andhi	r0, r8, r2, asr r2
    61f0:	007d022c 	rsbseq	r0, sp, ip, lsr #4
    61f4:	2c007602 	stccs	6, cr7, [r0], {2}
    61f8:	01047d02 	tsteq	r4, r2, lsl #26
    61fc:	102b0030 	eorne	r0, fp, r0, lsr r0
    6200:	33000090 	movwcc	r0, #144	; 0x90
    6204:	cb00000c 	blgt	623c <_start-0x1dc4>
    6208:	2c00000b 	stccs	0, cr0, [r0], {11}
    620c:	38015001 	stmdacc	r1, {r0, ip, lr}
    6210:	0351012c 	cmpeq	r1, #44, 2
    6214:	2c7ed891 	ldclcs	8, cr13, [lr], #-580	; 0xfffffdbc
    6218:	08025201 	stmdaeq	r2, {r0, r9, ip, lr}
    621c:	7d022c80 	stcvc	12, cr2, [r2, #-512]	; 0xfffffe00
    6220:	00760200 	rsbseq	r0, r6, r0, lsl #4
    6224:	047d022c 	ldrbteq	r0, [sp], #-556	; 0xfffffdd4
    6228:	2d003001 	stccs	0, cr3, [r0, #-4]
    622c:	00009018 	andeq	r9, r0, r8, lsl r0
    6230:	00000f7f 	andeq	r0, r0, pc, ror pc
    6234:	0090342b 	addseq	r3, r0, fp, lsr #8
    6238:	000f8b00 	andeq	r8, pc, r0, lsl #22
    623c:	000c0300 	andeq	r0, ip, r0, lsl #6
    6240:	50012c00 	andpl	r2, r1, r0, lsl #24
    6244:	9a9c0305 	bls	fe706e60 <__bss_end__+0xfe6fce30>
    6248:	012c0000 			; <UNDEFINED> instruction: 0x012c0000
    624c:	f4030551 	vst3.16	{d0,d2,d4}, [r3 :64], r1
    6250:	2c000099 	stccs	0, cr0, [r0], {153}	; 0x99
    6254:	03055201 	movweq	r5, #20993	; 0x5201
    6258:	00009aec 	andeq	r9, r0, ip, ror #21
    625c:	0253012c 	subseq	r0, r3, #44, 2
    6260:	2d00bb08 	vstrcs	d11, [r0, #-32]	; 0xffffffe0
    6264:	00009038 	andeq	r9, r0, r8, lsr r0
    6268:	00000f97 	muleq	r0, r7, pc	; <UNPREDICTABLE>
    626c:	240a0000 	strcs	r0, [sl], #-0
    6270:	1e000001 	cdpne	0, 0, cr0, cr0, cr1, {0}
    6274:	0b00000c 	bleq	62ac <_start-0x1d54>
    6278:	0000002c 	andeq	r0, r0, ip, lsr #32
    627c:	0e0f0009 	cdpeq	0, 0, cr0, cr15, cr9, {0}
    6280:	0a00000c 	beq	62b8 <_start-0x1d48>
    6284:	0000011d 	andeq	r0, r0, sp, lsl r1
    6288:	00000c33 	andeq	r0, r0, r3, lsr ip
    628c:	00002c0b 	andeq	r2, r0, fp, lsl #24
    6290:	2e007f00 	cdpcs	15, 0, cr7, cr0, cr0, {0}
    6294:	000007ce 	andeq	r0, r0, lr, asr #15
    6298:	170e4701 	strne	r4, [lr, -r1, lsl #14]
    629c:	b0000001 	andlt	r0, r0, r1
    62a0:	ac00008b 	stcge	0, cr0, [r0], {139}	; 0x8b
    62a4:	01000001 	tsteq	r0, r1
    62a8:	000d999c 	muleq	sp, ip, r9
    62ac:	00bc2f00 	adcseq	r2, ip, r0, lsl #30
    62b0:	47010000 	strmi	r0, [r1, -r0]
    62b4:	00002c1c 	andeq	r2, r0, ip, lsl ip
    62b8:	000c7d00 	andeq	r7, ip, r0, lsl #26
    62bc:	000c7700 	andeq	r7, ip, r0, lsl #14
    62c0:	73642400 	cmnvc	r4, #0, 8
    62c4:	47010074 	smlsdxmi	r1, r4, r0, r0
    62c8:	00011728 	andeq	r1, r1, r8, lsr #14
    62cc:	000cbb00 	andeq	fp, ip, r0, lsl #22
    62d0:	000cab00 	andeq	sl, ip, r0, lsl #22
    62d4:	006e2400 	rsbeq	r2, lr, r0, lsl #8
    62d8:	25314701 	ldrcs	r4, [r1, #-1793]!	; 0xfffff8ff
    62dc:	1f000000 	svcne	0x00000000
    62e0:	1b00000d 	blne	631c <_start-0x1ce4>
    62e4:	2400000d 	strcs	r0, [r0], #-13
    62e8:	006c6176 	rsbeq	r6, ip, r6, ror r1
    62ec:	25384701 	ldrcs	r4, [r8, #-1793]!	; 0xfffff8ff
    62f0:	47000000 	strmi	r0, [r0, -r0]
    62f4:	3d00000d 	stccc	0, cr0, [r0, #-52]	; 0xffffffcc
    62f8:	2f00000d 	svccs	0x0000000d
    62fc:	000007aa 	andeq	r0, r0, sl, lsr #15
    6300:	25414701 	strbcs	r4, [r1, #-1793]	; 0xfffff8ff
    6304:	92000000 	andls	r0, r0, #0
    6308:	8c00000d 	stchi	0, cr0, [r0], {13}
    630c:	2500000d 	strcs	r0, [r0, #-13]
    6310:	00000799 	muleq	r0, r9, r7
    6314:	254c4701 	strbcs	r4, [ip, #-1793]	; 0xfffff8ff
    6318:	02000000 	andeq	r0, r0, #0
    631c:	62290491 	eorvs	r0, r9, #-1862270976	; 0x91000000
    6320:	01006675 	tsteq	r0, r5, ror r6
    6324:	0d99074c 	ldceq	7, cr0, [r9, #304]	; 0x130
    6328:	91030000 	mrsls	r0, (UNDEF: 3)
    632c:	70267fa8 	eorvc	r7, r6, r8, lsr #31
    6330:	114c0100 	mrsne	r0, (UNDEF: 92)
    6334:	00000117 	andeq	r0, r0, r7, lsl r1
    6338:	00000ddc 	ldrdeq	r0, [r0], -ip
    633c:	00000dbc 			; <UNDEFINED> instruction: 0x00000dbc
    6340:	01007526 	tsteq	r0, r6, lsr #10
    6344:	002c0b4d 	eoreq	r0, ip, sp, asr #22
    6348:	0eb10000 	cdpeq	0, 11, cr0, cr1, cr0, {0}
    634c:	0e9f0000 	cdpeq	0, 9, cr0, cr15, cr0, {0}
    6350:	0e270000 	cdpeq	0, 2, cr0, cr7, cr0, {0}
    6354:	b9000002 	stmdblt	r0, {r1}
    6358:	0500000d 	streq	r0, [r0, #-13]
    635c:	009ad403 	addseq	sp, sl, r3, lsl #8
    6360:	8c1c3000 	ldchi	0, cr3, [ip], {-0}
    6364:	00780000 	rsbseq	r0, r8, r0
    6368:	0d230000 	stceq	0, cr0, [r3, #-0]
    636c:	b82a0000 	stmdalt	sl!, {}	; <UNPREDICTABLE>
    6370:	01000007 	tsteq	r0, r7
    6374:	002c0d52 	eoreq	r0, ip, r2, asr sp
    6378:	0f270000 	svceq	0x00270000
    637c:	0f1f0000 	svceq	0x001f0000
    6380:	2b000000 	blcs	6388 <_start-0x1c78>
    6384:	00008cd4 	ldrdeq	r8, [r0], -r4
    6388:	00000e4b 	andeq	r0, r0, fp, asr #28
    638c:	00000d37 	andeq	r0, r0, r7, lsr sp
    6390:	0251012c 	subseq	r0, r1, #44, 2
    6394:	2b00007d 	blcs	6590 <_start-0x1a70>
    6398:	00008ce8 	andeq	r8, r0, r8, ror #25
    639c:	00000dbe 			; <UNDEFINED> instruction: 0x00000dbe
    63a0:	00000d57 	andeq	r0, r0, r7, asr sp
    63a4:	0250012c 	subseq	r0, r0, #44, 2
    63a8:	012c0075 			; <UNDEFINED> instruction: 0x012c0075
    63ac:	00740251 	rsbseq	r0, r4, r1, asr r2
    63b0:	0253012c 	subseq	r0, r3, #44, 2
    63b4:	2d00007d 	stccs	0, cr0, [r0, #-500]	; 0xfffffe0c
    63b8:	00008d28 	andeq	r8, r0, r8, lsr #26
    63bc:	00000f7f 	andeq	r0, r0, pc, ror pc
    63c0:	008d3c2b 	addeq	r3, sp, fp, lsr #24
    63c4:	000f8b00 	andeq	r8, pc, r0, lsl #22
    63c8:	000d8f00 	andeq	r8, sp, r0, lsl #30
    63cc:	50012c00 	andpl	r2, r1, r0, lsl #24
    63d0:	9a080305 	bls	206fec <__bss_end__+0x1fcfbc>
    63d4:	012c0000 			; <UNDEFINED> instruction: 0x012c0000
    63d8:	f4030551 	vst3.16	{d0,d2,d4}, [r3 :64], r1
    63dc:	2c000099 	stccs	0, cr0, [r0], {153}	; 0x99
    63e0:	03055201 	movweq	r5, #20993	; 0x5201
    63e4:	00009ad4 	ldrdeq	r9, [r0], -r4
    63e8:	0253012c 	subseq	r0, r3, #44, 2
    63ec:	2d007708 	stccs	7, cr7, [r0, #-32]	; 0xffffffe0
    63f0:	00008d40 	andeq	r8, r0, r0, asr #26
    63f4:	00000f97 	muleq	r0, r7, pc	; <UNPREDICTABLE>
    63f8:	011d0a00 	tsteq	sp, r0, lsl #20
    63fc:	0da90000 	stceq	0, cr0, [r9]
    6400:	2c0b0000 	stccs	0, cr0, [fp], {-0}
    6404:	3f000000 	svccc	0x00000000
    6408:	01240a00 			; <UNDEFINED> instruction: 0x01240a00
    640c:	0db90000 	ldceq	0, cr0, [r9]
    6410:	2c0b0000 	stccs	0, cr0, [fp], {-0}
    6414:	04000000 	streq	r0, [r0], #-0
    6418:	0da90f00 	stceq	15, cr0, [r9]
    641c:	a22e0000 	eorge	r0, lr, #0
    6420:	01000007 	tsteq	r0, r7
    6424:	01170e37 	tsteq	r7, r7, lsr lr
    6428:	8b780000 	blhi	1e06430 <__bss_end__+0x1dfc400>
    642c:	00380000 	eorseq	r0, r8, r0
    6430:	9c010000 	stcls	0, cr0, [r1], {-0}
    6434:	00000e4b 	andeq	r0, r0, fp, asr #28
    6438:	74736424 	ldrbtvc	r6, [r3], #-1060	; 0xfffffbdc
    643c:	1c370100 	ldfnes	f0, [r7], #-0
    6440:	00000117 	andeq	r0, r0, r7, lsl r1
    6444:	00000f68 	andeq	r0, r0, r8, ror #30
    6448:	00000f5e 	andeq	r0, r0, lr, asr pc
    644c:	01006e24 	tsteq	r0, r4, lsr #28
    6450:	00252537 	eoreq	r2, r5, r7, lsr r5
    6454:	0faf0000 	svceq	0x00af0000
    6458:	0fab0000 	svceq	0x00ab0000
    645c:	70240000 	eorvc	r0, r4, r0
    6460:	2e370100 	rsfcss	f0, f7, f0
    6464:	00000117 	andeq	r0, r0, r7, lsl r1
    6468:	00000fd8 	ldrdeq	r0, [r0], -r8
    646c:	00000fd0 	ldrdeq	r0, [r0], -r0	; <UNPREDICTABLE>
    6470:	000c052f 	andeq	r0, ip, pc, lsr #10
    6474:	37370100 	ldrcc	r0, [r7, -r0, lsl #2]!
    6478:	00000117 	andeq	r0, r0, r7, lsl r1
    647c:	00001012 	andeq	r1, r0, r2, lsl r0
    6480:	0000100e 	andeq	r1, r0, lr
    6484:	6e656c26 	cdpvs	12, 6, cr6, cr5, cr6, {1}
    6488:	06390100 	ldrteq	r0, [r9], -r0, lsl #2
    648c:	00000025 	andeq	r0, r0, r5, lsr #32
    6490:	00001038 	andeq	r1, r0, r8, lsr r0
    6494:	00001030 	andeq	r1, r0, r0, lsr r0
    6498:	01007326 	tsteq	r0, r6, lsr #6
    649c:	0117083d 	tsteq	r7, sp, lsr r8
    64a0:	10860000 	addne	r0, r6, r0
    64a4:	10840000 	addne	r0, r4, r0
    64a8:	31000000 	mrscc	r0, (UNDEF: 0)
    64ac:	00646170 	rsbeq	r6, r4, r0, ror r1
    64b0:	170e2e01 	strne	r2, [lr, -r1, lsl #28]
    64b4:	54000001 	strpl	r0, [r0], #-1
    64b8:	2400008b 	strcs	r0, [r0], #-139	; 0xffffff75
    64bc:	01000000 	mrseq	r0, (UNDEF: 0)
    64c0:	000eae9c 	muleq	lr, ip, lr
    64c4:	00702400 	rsbseq	r2, r0, r0, lsl #8
    64c8:	17182e01 	ldrne	r2, [r8, -r1, lsl #28]
    64cc:	9f000001 	svcls	0x00000001
    64d0:	99000010 	stmdbls	r0, {r4}
    64d4:	2f000010 	svccs	0x00000010
    64d8:	000000bc 	strheq	r0, [r0], -ip
    64dc:	17222e01 	strne	r2, [r2, -r1, lsl #28]!
    64e0:	ce000001 	cdpgt	0, 0, cr0, cr0, cr1, {0}
    64e4:	ca000010 	bgt	652c <_start-0x1ad4>
    64e8:	25000010 	strcs	r0, [r0, #-16]
    64ec:	000007aa 	andeq	r0, r0, sl, lsr #15
    64f0:	252c2e01 	strcs	r2, [ip, #-3585]!	; 0xfffff1ff
    64f4:	01000000 	mrseq	r0, (UNDEF: 0)
    64f8:	656c2652 	strbvs	r2, [ip, #-1618]!	; 0xfffff9ae
    64fc:	2f01006e 	svccs	0x0001006e
    6500:	00002506 	andeq	r2, r0, r6, lsl #10
    6504:	0010f100 	andseq	pc, r0, r0, lsl #2
    6508:	0010ef00 	andseq	lr, r0, r0, lsl #30
    650c:	c62e0000 	strtgt	r0, [lr], -r0
    6510:	01000007 	tsteq	r0, r7
    6514:	00250c27 	eoreq	r0, r5, r7, lsr #24
    6518:	8b400000 	blhi	1006520 <__bss_end__+0xffc4f0>
    651c:	00140000 	andseq	r0, r4, r0
    6520:	9c010000 	stcls	0, cr0, [r1], {-0}
    6524:	00000edb 	ldrdeq	r0, [r0], -fp
    6528:	01006324 	tsteq	r0, r4, lsr #6
    652c:	00251827 	eoreq	r1, r5, r7, lsr #16
    6530:	110a0000 	mrsne	r0, (UNDEF: 10)
    6534:	11040000 	mrsne	r0, (UNDEF: 4)
    6538:	32000000 	andcc	r0, r0, #0
    653c:	0000078a 	andeq	r0, r0, sl, lsl #15
    6540:	5c061f01 	stcpl	15, cr1, [r6], {1}
    6544:	5400008d 	strpl	r0, [r0], #-141	; 0xffffff73
    6548:	01000000 	mrseq	r0, (UNDEF: 0)
    654c:	000f6a9c 	muleq	pc, ip, sl	; <UNPREDICTABLE>
    6550:	07be2f00 	ldreq	r2, [lr, r0, lsl #30]!
    6554:	1f010000 	svcne	0x00010000
    6558:	0009281b 	andeq	r2, r9, fp, lsl r8
    655c:	00113c00 	andseq	r3, r1, r0, lsl #24
    6560:	00113800 	andseq	r3, r1, r0, lsl #16
    6564:	07b02f00 	ldreq	r2, [r0, r0, lsl #30]!
    6568:	1f010000 	svcne	0x00010000
    656c:	00094930 	andeq	r4, r9, r0, lsr r9
    6570:	00116100 	andseq	r6, r1, r0, lsl #2
    6574:	00115d00 	andseq	r5, r1, r0, lsl #26
    6578:	020e2700 	andeq	r2, lr, #0, 14
    657c:	0f7a0000 	svceq	0x007a0000
    6580:	03050000 	movweq	r0, #20480	; 0x5000
    6584:	00009adc 	ldrdeq	r9, [r0], -ip
    6588:	008d842d 	addeq	r8, sp, sp, lsr #8
    658c:	000f7f00 	andeq	r7, pc, r0, lsl #30
    6590:	8d982b00 	vldrhi	d2, [r8]
    6594:	0f8b0000 	svceq	0x008b0000
    6598:	0f600000 	svceq	0x00600000
    659c:	012c0000 			; <UNDEFINED> instruction: 0x012c0000
    65a0:	40030550 	andmi	r0, r3, r0, asr r5
    65a4:	2c00009a 	stccs	0, cr0, [r0], {154}	; 0x9a
    65a8:	03055101 	movweq	r5, #20737	; 0x5101
    65ac:	000099f4 	strdeq	r9, [r0], -r4
    65b0:	0552012c 	ldrbeq	r0, [r2, #-300]	; 0xfffffed4
    65b4:	009adc03 	addseq	sp, sl, r3, lsl #24
    65b8:	53012c00 	movwpl	r2, #7168	; 0x1c00
    65bc:	00200802 	eoreq	r0, r0, r2, lsl #16
    65c0:	008d9c2d 	addeq	r9, sp, sp, lsr #24
    65c4:	000f9700 	andeq	r9, pc, r0, lsl #14
    65c8:	240a0000 	strcs	r0, [sl], #-0
    65cc:	7a000001 	bvc	65d8 <_start-0x1a28>
    65d0:	0b00000f 	bleq	6614 <_start-0x19ec>
    65d4:	0000002c 	andeq	r0, r0, ip, lsr #32
    65d8:	6a0f000e 	bvs	3c6618 <__bss_end__+0x3bc5e8>
    65dc:	3300000f 	movwcc	r0, #15
    65e0:	000001e9 	andeq	r0, r0, r9, ror #3
    65e4:	000001e9 	andeq	r0, r0, r9, ror #3
    65e8:	33061e06 	movwcc	r1, #28166	; 0x6e06
    65ec:	000006ff 	strdeq	r0, [r0], -pc	; <UNPREDICTABLE>
    65f0:	000006ff 	strdeq	r0, [r0], -pc	; <UNPREDICTABLE>
    65f4:	33052906 	movwcc	r2, #22790	; 0x5906
    65f8:	0000028d 	andeq	r0, r0, sp, lsl #5
    65fc:	0000028d 	andeq	r0, r0, sp, lsl #5
    6600:	00066506 	andeq	r6, r6, r6, lsl #10
    6604:	000009ab 	andeq	r0, r0, fp, lsr #19
    6608:	13aa0004 			; <UNDEFINED> instruction: 0x13aa0004
    660c:	01040000 	mrseq	r0, (UNDEF: 4)
    6610:	000002ef 	andeq	r0, r0, pc, ror #5
    6614:	0007d30c 	andeq	sp, r7, ip, lsl #6
    6618:	0006c100 	andeq	ip, r6, r0, lsl #2
    661c:	00906000 	addseq	r6, r0, r0
    6620:	00002800 	andeq	r2, r0, r0, lsl #16
    6624:	00141a00 	andseq	r1, r4, r0, lsl #20
    6628:	05040200 	streq	r0, [r4, #-512]	; 0xfffffe00
    662c:	00746e69 	rsbseq	r6, r4, r9, ror #28
    6630:	66070403 	strvs	r0, [r7], -r3, lsl #8
    6634:	03000000 	movweq	r0, #0
    6638:	02de0601 	sbcseq	r0, lr, #1048576	; 0x100000
    663c:	02030000 	andeq	r0, r3, #0
    6640:	00037705 	andeq	r7, r3, r5, lsl #14
    6644:	05040300 	streq	r0, [r4, #-768]	; 0xfffffd00
    6648:	000000ac 	andeq	r0, r0, ip, lsr #1
    664c:	a7050803 	strge	r0, [r5, -r3, lsl #16]
    6650:	03000000 	movweq	r0, #0
    6654:	02dc0801 	sbcseq	r0, ip, #65536	; 0x10000
    6658:	02030000 	andeq	r0, r3, #0
    665c:	00022207 	andeq	r2, r2, r7, lsl #4
    6660:	07040300 	streq	r0, [r4, -r0, lsl #6]
    6664:	00000061 	andeq	r0, r0, r1, rrx
    6668:	5c070803 	stcpl	8, cr0, [r7], {3}
    666c:	04000000 	streq	r0, [r0], #-0
    6670:	00000265 	andeq	r0, r0, r5, ror #4
    6674:	77192202 	ldrvc	r2, [r9, -r2, lsl #4]
    6678:	05000000 	streq	r0, [r0, #-0]
    667c:	00007d04 	andeq	r7, r0, r4, lsl #26
    6680:	041d0600 	ldreq	r0, [sp], #-1536	; 0xfffffa00
    6684:	bd040000 	stclt	0, cr0, [r4, #-0]
    6688:	03000002 	movweq	r0, #2
    668c:	00410e2c 	subeq	r0, r1, ip, lsr #28
    6690:	32040000 	andcc	r0, r4, #0
    6694:	03000004 	movweq	r0, #4
    6698:	00410e72 	subeq	r0, r1, r2, ror lr
    669c:	6d070000 	stcvs	0, cr0, [r7, #-0]
    66a0:	04000002 	streq	r0, [r0], #-2
    66a4:	2c17015e 	ldfcss	f0, [r7], {94}	; 0x5e
    66a8:	08000000 	stmdaeq	r0, {}	; <UNPREDICTABLE>
    66ac:	03a60304 			; <UNDEFINED> instruction: 0x03a60304
    66b0:	000000c9 	andeq	r0, r0, r9, asr #1
    66b4:	00025f09 	andeq	r5, r2, r9, lsl #30
    66b8:	0ca80300 	stceq	3, cr0, [r8]
    66bc:	0000009a 	muleq	r0, sl, r0
    66c0:	0001e209 	andeq	lr, r1, r9, lsl #4
    66c4:	13a90300 			; <UNDEFINED> instruction: 0x13a90300
    66c8:	000000c9 	andeq	r0, r0, r9, asr #1
    66cc:	004f0a00 	subeq	r0, pc, r0, lsl #20
    66d0:	00d90000 	sbcseq	r0, r9, r0
    66d4:	2c0b0000 	stccs	0, cr0, [fp], {-0}
    66d8:	03000000 	movweq	r0, #0
    66dc:	03080c00 	movweq	r0, #35840	; 0x8c00
    66e0:	00fd09a3 	rscseq	r0, sp, r3, lsr #19
    66e4:	150d0000 	strne	r0, [sp, #-0]
    66e8:	03000004 	movweq	r0, #4
    66ec:	002507a5 	eoreq	r0, r5, r5, lsr #15
    66f0:	0d000000 	stceq	0, cr0, [r0, #-0]
    66f4:	00000424 	andeq	r0, r0, r4, lsr #8
    66f8:	a705aa03 	strge	sl, [r5, -r3, lsl #20]
    66fc:	04000000 	streq	r0, [r0], #-0
    6700:	039f0400 	orrseq	r0, pc, #0, 8
    6704:	ab030000 	blge	c670c <__bss_end__+0xbc6dc>
    6708:	0000d903 	andeq	sp, r0, r3, lsl #18
    670c:	019f0400 	orrseq	r0, pc, r0, lsl #8
    6710:	af030000 	svcge	0x00030000
    6714:	00006b1b 	andeq	r6, r0, fp, lsl fp
    6718:	05040e00 	streq	r0, [r4, #-3584]	; 0xfffff200
    671c:	00011d04 	andeq	r1, r1, r4, lsl #26
    6720:	08010300 	stmdaeq	r1, {r8, r9}
    6724:	000002e5 	andeq	r0, r0, r5, ror #5
    6728:	00011d0f 	andeq	r1, r1, pc, lsl #26
    672c:	04640400 	strbteq	r0, [r4], #-1024	; 0xfffffc00
    6730:	16050000 	strne	r0, [r5], -r0
    6734:	00005d19 	andeq	r5, r0, r9, lsl sp
    6738:	01b01000 	movseq	r1, r0
    673c:	05180000 	ldreq	r0, [r8, #-0]
    6740:	018f082f 	orreq	r0, pc, pc, lsr #16
    6744:	c00d0000 	andgt	r0, sp, r0
    6748:	05000003 	streq	r0, [r0, #-3]
    674c:	018f1331 	orreq	r1, pc, r1, lsr r3	; <UNPREDICTABLE>
    6750:	11000000 	mrsne	r0, (UNDEF: 0)
    6754:	05006b5f 	streq	r6, [r0, #-2911]	; 0xfffff4a1
    6758:	00250732 	eoreq	r0, r5, r2, lsr r7
    675c:	0d040000 	stceq	0, cr0, [r4, #-0]
    6760:	00000400 	andeq	r0, r0, r0, lsl #8
    6764:	250b3205 	strcs	r3, [fp, #-517]	; 0xfffffdfb
    6768:	08000000 	stmdaeq	r0, {}	; <UNPREDICTABLE>
    676c:	0001990d 	andeq	r9, r1, sp, lsl #18
    6770:	14320500 	ldrtne	r0, [r2], #-1280	; 0xfffffb00
    6774:	00000025 	andeq	r0, r0, r5, lsr #32
    6778:	04ae0d0c 	strteq	r0, [lr], #3340	; 0xd0c
    677c:	32050000 	andcc	r0, r5, #0
    6780:	0000251b 	andeq	r2, r0, fp, lsl r5
    6784:	5f111000 	svcpl	0x00111000
    6788:	33050078 	movwcc	r0, #20600	; 0x5078
    678c:	0001950b 	andeq	r9, r1, fp, lsl #10
    6790:	05001400 	streq	r1, [r0, #-1024]	; 0xfffffc00
    6794:	00013504 	andeq	r3, r1, r4, lsl #10
    6798:	01290a00 			; <UNDEFINED> instruction: 0x01290a00
    679c:	01a50000 			; <UNDEFINED> instruction: 0x01a50000
    67a0:	2c0b0000 	stccs	0, cr0, [fp], {-0}
    67a4:	00000000 	andeq	r0, r0, r0
    67a8:	01dd1000 	bicseq	r1, sp, r0
    67ac:	05240000 	streq	r0, [r4, #-0]!
    67b0:	02280837 	eoreq	r0, r8, #3604480	; 0x370000
    67b4:	9e0d0000 	cdpls	0, 0, cr0, cr13, cr0, {0}
    67b8:	05000000 	streq	r0, [r0, #-0]
    67bc:	00250939 	eoreq	r0, r5, r9, lsr r9
    67c0:	0d000000 	stceq	0, cr0, [r0, #-0]
    67c4:	0000043a 	andeq	r0, r0, sl, lsr r4
    67c8:	25093a05 	strcs	r3, [r9, #-2565]	; 0xfffff5fb
    67cc:	04000000 	streq	r0, [r0], #-0
    67d0:	0000c10d 	andeq	ip, r0, sp, lsl #2
    67d4:	093b0500 	ldmdbeq	fp!, {r8, sl}
    67d8:	00000025 	andeq	r0, r0, r5, lsr #32
    67dc:	052f0d08 	streq	r0, [pc, #-3336]!	; 5adc <_start-0x2524>
    67e0:	3c050000 	stccc	0, cr0, [r5], {-0}
    67e4:	00002509 	andeq	r2, r0, r9, lsl #10
    67e8:	a10d0c00 	tstge	sp, r0, lsl #24
    67ec:	05000002 	streq	r0, [r0, #-2]
    67f0:	0025093d 	eoreq	r0, r5, sp, lsr r9
    67f4:	0d100000 	ldceq	0, cr0, [r0, #-0]
    67f8:	00000283 	andeq	r0, r0, r3, lsl #5
    67fc:	25093e05 	strcs	r3, [r9, #-3589]	; 0xfffff1fb
    6800:	14000000 	strne	r0, [r0], #-0
    6804:	0004b30d 	andeq	fp, r4, sp, lsl #6
    6808:	093f0500 	ldmdbeq	pc!, {r8, sl}	; <UNPREDICTABLE>
    680c:	00000025 	andeq	r0, r0, r5, lsr #32
    6810:	03810d18 	orreq	r0, r1, #24, 26	; 0x600
    6814:	40050000 	andmi	r0, r5, r0
    6818:	00002509 	andeq	r2, r0, r9, lsl #10
    681c:	f60d1c00 			; <UNDEFINED> instruction: 0xf60d1c00
    6820:	05000004 	streq	r0, [r0, #-4]
    6824:	00250941 	eoreq	r0, r5, r1, asr #18
    6828:	00200000 	eoreq	r0, r0, r0
    682c:	00010112 	andeq	r0, r1, r2, lsl r1
    6830:	05010800 	streq	r0, [r1, #-2048]	; 0xfffff800
    6834:	026d084a 	rsbeq	r0, sp, #4849664	; 0x4a0000
    6838:	8c0d0000 	stchi	0, cr0, [sp], {-0}
    683c:	05000001 	streq	r0, [r0, #-1]
    6840:	026d0a4b 	rsbeq	r0, sp, #307200	; 0x4b000
    6844:	0d000000 	stceq	0, cr0, [r0, #-0]
    6848:	00000000 	andeq	r0, r0, r0
    684c:	6d094c05 	stcvs	12, cr4, [r9, #-20]	; 0xffffffec
    6850:	80000002 	andhi	r0, r0, r2
    6854:	00045613 	andeq	r5, r4, r3, lsl r6
    6858:	0a4e0500 	beq	1387c60 <__bss_end__+0x137dc30>
    685c:	00000129 	andeq	r0, r0, r9, lsr #2
    6860:	26130100 	ldrcs	r0, [r3], -r0, lsl #2
    6864:	05000001 	streq	r0, [r0, #-1]
    6868:	01290a51 			; <UNDEFINED> instruction: 0x01290a51
    686c:	01040000 	mrseq	r0, (UNDEF: 4)
    6870:	01150a00 	tsteq	r5, r0, lsl #20
    6874:	027d0000 	rsbseq	r0, sp, #0
    6878:	2c0b0000 	stccs	0, cr0, [fp], {-0}
    687c:	1f000000 	svcne	0x00000000
    6880:	02aa1200 	adceq	r1, sl, #0, 4
    6884:	01900000 	orrseq	r0, r0, r0
    6888:	c0085d05 	andgt	r5, r8, r5, lsl #26
    688c:	0d000002 	stceq	0, cr0, [r0, #-8]
    6890:	000003c0 	andeq	r0, r0, r0, asr #7
    6894:	c0125e05 	andsgt	r5, r2, r5, lsl #28
    6898:	00000002 	andeq	r0, r0, r2
    689c:	0003d80d 	andeq	sp, r3, sp, lsl #16
    68a0:	065f0500 	ldrbeq	r0, [pc], -r0, lsl #10
    68a4:	00000025 	andeq	r0, r0, r5, lsr #32
    68a8:	01940d04 	orrseq	r0, r4, r4, lsl #26
    68ac:	61050000 	mrsvs	r0, (UNDEF: 5)
    68b0:	0002c609 	andeq	ip, r2, r9, lsl #12
    68b4:	010d0800 	tsteq	sp, r0, lsl #16
    68b8:	05000001 	streq	r0, [r0, #-1]
    68bc:	02281e62 	eoreq	r1, r8, #1568	; 0x620
    68c0:	00880000 	addeq	r0, r8, r0
    68c4:	027d0405 	rsbseq	r0, sp, #83886080	; 0x5000000
    68c8:	d60a0000 	strle	r0, [sl], -r0
    68cc:	d6000002 	strle	r0, [r0], -r2
    68d0:	0b000002 	bleq	68e0 <_start-0x1720>
    68d4:	0000002c 	andeq	r0, r0, ip, lsr #32
    68d8:	0405001f 	streq	r0, [r5], #-31	; 0xffffffe1
    68dc:	000002dc 	ldrdeq	r0, [r0], -ip
    68e0:	038b1014 	orreq	r1, fp, #20
    68e4:	05080000 	streq	r0, [r8, #-0]
    68e8:	03050875 	movweq	r0, #22645	; 0x5875
    68ec:	bb0d0000 	bllt	3468f4 <__bss_end__+0x33c8c4>
    68f0:	05000000 	streq	r0, [r0, #-0]
    68f4:	03051176 	movweq	r1, #20854	; 0x5176
    68f8:	0d000000 	stceq	0, cr0, [r0, #-0]
    68fc:	0000001b 	andeq	r0, r0, fp, lsl r0
    6900:	25067705 	strcs	r7, [r6, #-1797]	; 0xfffff8fb
    6904:	04000000 	streq	r0, [r0], #-0
    6908:	4f040500 	svcmi	0x00040500
    690c:	10000000 	andne	r0, r0, r0
    6910:	000003aa 	andeq	r0, r0, sl, lsr #7
    6914:	08b50568 	ldmeq	r5!, {r3, r5, r6, r8, sl}
    6918:	0000044e 	andeq	r0, r0, lr, asr #8
    691c:	00705f11 	rsbseq	r5, r0, r1, lsl pc
    6920:	0512b605 	ldreq	fp, [r2, #-1541]	; 0xfffff9fb
    6924:	00000003 	andeq	r0, r0, r3
    6928:	00725f11 	rsbseq	r5, r2, r1, lsl pc
    692c:	2507b705 	strcs	fp, [r7, #-1797]	; 0xfffff8fb
    6930:	04000000 	streq	r0, [r0], #-0
    6934:	00775f11 	rsbseq	r5, r7, r1, lsl pc
    6938:	2507b805 	strcs	fp, [r7, #-2053]	; 0xfffff7fb
    693c:	08000000 	stmdaeq	r0, {}	; <UNPREDICTABLE>
    6940:	00011f0d 	andeq	r1, r1, sp, lsl #30
    6944:	09b90500 	ldmibeq	r9!, {r8, sl}
    6948:	0000003a 	andeq	r0, r0, sl, lsr r0
    694c:	02080d0c 	andeq	r0, r8, #12, 26	; 0x300
    6950:	ba050000 	blt	146958 <__bss_end__+0x13c928>
    6954:	00003a09 	andeq	r3, r0, r9, lsl #20
    6958:	5f110e00 	svcpl	0x00110e00
    695c:	05006662 	streq	r6, [r0, #-1634]	; 0xfffff99e
    6960:	02dd11bb 	sbcseq	r1, sp, #-1073741778	; 0xc000002e
    6964:	0d100000 	ldceq	0, cr0, [r0, #-0]
    6968:	0000007b 	andeq	r0, r0, fp, ror r0
    696c:	2507bc05 	strcs	fp, [r7, #-3077]	; 0xfffff3fb
    6970:	18000000 	stmdane	r0, {}	; <UNPREDICTABLE>
    6974:	00010f0d 	andeq	r0, r1, sp, lsl #30
    6978:	0ac30500 	beq	ff0c7d80 <__bss_end__+0xff0bdd50>
    697c:	00000115 	andeq	r0, r0, r5, lsl r1
    6980:	0b240d1c 	bleq	909df8 <__bss_end__+0x8ffdc8>
    6984:	c5050000 	strgt	r0, [r5, #-0]
    6988:	0005c01d 	andeq	ip, r5, sp, lsl r0
    698c:	190d2000 	stmdbne	sp, {sp}
    6990:	05000006 	streq	r0, [r0, #-6]
    6994:	05ea1dc7 	strbeq	r1, [sl, #3527]!	; 0xdc7
    6998:	0d240000 	stceq	0, cr0, [r4, #-0]
    699c:	0000042c 	andeq	r0, r0, ip, lsr #8
    69a0:	0e0dca05 	vmlaeq.f32	s24, s26, s10
    69a4:	28000006 	stmdacs	r0, {r1, r2}
    69a8:	0005100d 	andeq	r1, r5, sp
    69ac:	09cb0500 	stmibeq	fp, {r8, sl}^
    69b0:	00000628 	andeq	r0, r0, r8, lsr #12
    69b4:	755f112c 	ldrbvc	r1, [pc, #-300]	; 6890 <_start-0x1770>
    69b8:	ce050062 	cdpgt	0, 0, cr0, cr5, cr2, {3}
    69bc:	0002dd11 	andeq	sp, r2, r1, lsl sp
    69c0:	5f113000 	svcpl	0x00113000
    69c4:	05007075 	streq	r7, [r0, #-117]	; 0xffffff8b
    69c8:	030512cf 	movweq	r1, #21199	; 0x52cf
    69cc:	11380000 	teqne	r8, r0
    69d0:	0072755f 	rsbseq	r7, r2, pc, asr r5
    69d4:	2507d005 	strcs	sp, [r7, #-5]
    69d8:	3c000000 	stccc	0, cr0, [r0], {-0}
    69dc:	0000b50d 	andeq	fp, r0, sp, lsl #10
    69e0:	11d30500 	bicsne	r0, r3, r0, lsl #10
    69e4:	0000062e 	andeq	r0, r0, lr, lsr #12
    69e8:	04e80d40 	strbteq	r0, [r8], #3392	; 0xd40
    69ec:	d4050000 	strle	r0, [r5], #-0
    69f0:	00063e11 	andeq	r3, r6, r1, lsl lr
    69f4:	5f114300 	svcpl	0x00114300
    69f8:	0500626c 	streq	r6, [r0, #-620]	; 0xfffffd94
    69fc:	02dd11d7 	sbcseq	r1, sp, #-1073741771	; 0xc0000035
    6a00:	0d440000 	stcleq	0, cr0, [r4, #-0]
    6a04:	0000013d 	andeq	r0, r0, sp, lsr r1
    6a08:	2507da05 	strcs	sp, [r7, #-2565]	; 0xfffff5fb
    6a0c:	4c000000 	stcmi	0, cr0, [r0], {-0}
    6a10:	00014e0d 	andeq	r4, r1, sp, lsl #28
    6a14:	0adb0500 	beq	ff6c7e1c <__bss_end__+0xff6bddec>
    6a18:	00000082 	andeq	r0, r0, r2, lsl #1
    6a1c:	0ac50d50 	beq	ff149f64 <__bss_end__+0xff13ff34>
    6a20:	de050000 	cdple	0, 0, cr0, cr5, cr0, {0}
    6a24:	00046c12 	andeq	r6, r4, r2, lsl ip
    6a28:	1e0d5400 	cfcpysne	mvf5, mvf13
    6a2c:	05000004 	streq	r0, [r0, #-4]
    6a30:	01090ce2 	smlatteq	r9, r2, ip, r0
    6a34:	0d580000 	ldcleq	0, cr0, [r8, #-0]
    6a38:	000003b2 			; <UNDEFINED> instruction: 0x000003b2
    6a3c:	fd0ee405 	stc2	4, cr14, [lr, #-20]	; 0xffffffec
    6a40:	5c000000 	stcpl	0, cr0, [r0], {-0}
    6a44:	00027b0d 	andeq	r7, r2, sp, lsl #22
    6a48:	09e50500 	stmibeq	r5!, {r8, sl}^
    6a4c:	00000025 	andeq	r0, r0, r5, lsr #32
    6a50:	25150064 	ldrcs	r0, [r5, #-100]	; 0xffffff9c
    6a54:	6c000000 	stcvs	0, cr0, [r0], {-0}
    6a58:	16000004 	strne	r0, [r0], -r4
    6a5c:	0000046c 	andeq	r0, r0, ip, ror #8
    6a60:	00011516 	andeq	r1, r1, r6, lsl r5
    6a64:	01171600 	tsteq	r7, r0, lsl #12
    6a68:	25160000 	ldrcs	r0, [r6, #-0]
    6a6c:	00000000 	andeq	r0, r0, r0
    6a70:	04770405 	ldrbteq	r0, [r7], #-1029	; 0xfffffbfb
    6a74:	6c0f0000 	stcvs	0, cr0, [pc], {-0}
    6a78:	17000004 	strne	r0, [r0, -r4]
    6a7c:	00000408 	andeq	r0, r0, r8, lsl #8
    6a80:	60050428 	andvs	r0, r5, r8, lsr #8
    6a84:	05c00802 	strbeq	r0, [r0, #2050]	; 0x802
    6a88:	70180000 	andsvc	r0, r8, r0
    6a8c:	05000003 	streq	r0, [r0, #-3]
    6a90:	25070262 	strcs	r0, [r7, #-610]	; 0xfffffd9e
    6a94:	00000000 	andeq	r0, r0, r0
    6a98:	00012e18 	andeq	r2, r1, r8, lsl lr
    6a9c:	02670500 	rsbeq	r0, r7, #0, 10
    6aa0:	00069a0b 	andeq	r9, r6, fp, lsl #20
    6aa4:	f8180400 			; <UNDEFINED> instruction: 0xf8180400
    6aa8:	05000001 	streq	r0, [r0, #-1]
    6aac:	9a140267 	bls	507450 <__bss_end__+0x4fd420>
    6ab0:	08000006 	stmdaeq	r0, {r1, r2}
    6ab4:	0001a818 	andeq	sl, r1, r8, lsl r8
    6ab8:	02670500 	rsbeq	r0, r7, #0, 10
    6abc:	00069a1e 	andeq	r9, r6, lr, lsl sl
    6ac0:	d3180c00 	tstle	r8, #0, 24
    6ac4:	05000003 	streq	r0, [r0, #-3]
    6ac8:	25080269 	strcs	r0, [r8, #-617]	; 0xfffffd97
    6acc:	10000000 	andne	r0, r0, r0
    6ad0:	00002918 	andeq	r2, r0, r8, lsl r9
    6ad4:	026a0500 	rsbeq	r0, sl, #0, 10
    6ad8:	00089a08 	andeq	r9, r8, r8, lsl #20
    6adc:	e7181400 	ldr	r1, [r8, -r0, lsl #8]
    6ae0:	05000003 	streq	r0, [r0, #-3]
    6ae4:	2507026d 	strcs	r0, [r7, #-621]	; 0xfffffd93
    6ae8:	30000000 	andcc	r0, r0, r0
    6aec:	000a0118 	andeq	r0, sl, r8, lsl r1
    6af0:	026e0500 	rsbeq	r0, lr, #0, 10
    6af4:	0008af16 	andeq	sl, r8, r6, lsl pc
    6af8:	b2183400 	andslt	r3, r8, #0, 8
    6afc:	05000002 	streq	r0, [r0, #-2]
    6b00:	25070270 	strcs	r0, [r7, #-624]	; 0xfffffd90
    6b04:	38000000 	stmdacc	r0, {}	; <UNPREDICTABLE>
    6b08:	0003dd18 	andeq	sp, r3, r8, lsl sp
    6b0c:	02720500 	rsbseq	r0, r2, #0, 10
    6b10:	0008c00a 	andeq	ip, r8, sl
    6b14:	57183c00 	ldrpl	r3, [r8, -r0, lsl #24]
    6b18:	05000002 	streq	r0, [r0, #-2]
    6b1c:	8f130275 	svchi	0x00130275
    6b20:	40000001 	andmi	r0, r0, r1
    6b24:	0001c718 	andeq	ip, r1, r8, lsl r7
    6b28:	02760500 	rsbseq	r0, r6, #0, 10
    6b2c:	00002507 	andeq	r2, r0, r7, lsl #10
    6b30:	2a184400 	bcs	617b38 <__bss_end__+0x60db08>
    6b34:	05000005 	streq	r0, [r0, #-5]
    6b38:	8f130277 	svchi	0x00130277
    6b3c:	48000001 	stmdami	r0, {r0}
    6b40:	0002c418 	andeq	ip, r2, r8, lsl r4
    6b44:	02780500 	rsbseq	r0, r8, #0, 10
    6b48:	0008c614 	andeq	ip, r8, r4, lsl r6
    6b4c:	00184c00 	andseq	r4, r8, r0, lsl #24
    6b50:	05000002 	streq	r0, [r0, #-2]
    6b54:	2507027b 	strcs	r0, [r7, #-635]	; 0xfffffd85
    6b58:	50000000 	andpl	r0, r0, r0
    6b5c:	00014618 	andeq	r4, r1, r8, lsl r6
    6b60:	027c0500 	rsbseq	r0, ip, #0, 10
    6b64:	00011709 	andeq	r1, r1, r9, lsl #14
    6b68:	ea185400 	b	61bb70 <__bss_end__+0x611b40>
    6b6c:	05000002 	streq	r0, [r0, #-2]
    6b70:	7507029f 	strvc	r0, [r7, #-671]	; 0xfffffd61
    6b74:	58000008 	stmdapl	r0, {r3}
    6b78:	0002aa19 	andeq	sl, r2, r9, lsl sl
    6b7c:	02a30500 	adceq	r0, r3, #0, 10
    6b80:	0002c013 	andeq	ip, r2, r3, lsl r0
    6b84:	19014800 	stmdbne	r1, {fp, lr}
    6b88:	00000235 	andeq	r0, r0, r5, lsr r2
    6b8c:	1202a405 	andne	sl, r2, #83886080	; 0x5000000
    6b90:	0000027d 	andeq	r0, r0, sp, ror r2
    6b94:	d619014c 	ldrle	r0, [r9], -ip, asr #2
    6b98:	05000004 	streq	r0, [r0, #-4]
    6b9c:	d70c02a8 	strle	r0, [ip, -r8, lsr #5]
    6ba0:	dc000008 	stcle	0, cr0, [r0], {8}
    6ba4:	01171902 	tsteq	r7, r2, lsl #18
    6ba8:	ad050000 	stcge	0, cr0, [r5, #-0]
    6bac:	065b1002 	ldrbeq	r1, [fp], -r2
    6bb0:	02e00000 	rsceq	r0, r0, #0
    6bb4:	0000fc19 	andeq	pc, r0, r9, lsl ip	; <UNPREDICTABLE>
    6bb8:	02af0500 	adceq	r0, pc, #0, 10
    6bbc:	0008e30a 	andeq	lr, r8, sl, lsl #6
    6bc0:	0002ec00 	andeq	lr, r2, r0, lsl #24
    6bc4:	044e0405 	strbeq	r0, [lr], #-1029	; 0xfffffbfb
    6bc8:	25150000 	ldrcs	r0, [r5, #-0]
    6bcc:	e4000000 	str	r0, [r0], #-0
    6bd0:	16000005 	strne	r0, [r0], -r5
    6bd4:	0000046c 	andeq	r0, r0, ip, ror #8
    6bd8:	00011516 	andeq	r1, r1, r6, lsl r5
    6bdc:	05e41600 	strbeq	r1, [r4, #1536]!	; 0x600
    6be0:	25160000 	ldrcs	r0, [r6, #-0]
    6be4:	00000000 	andeq	r0, r0, r0
    6be8:	01240405 			; <UNDEFINED> instruction: 0x01240405
    6bec:	04050000 	streq	r0, [r5], #-0
    6bf0:	000005c6 	andeq	r0, r0, r6, asr #11
    6bf4:	00008e15 	andeq	r8, r0, r5, lsl lr
    6bf8:	00060e00 	andeq	r0, r6, r0, lsl #28
    6bfc:	046c1600 	strbteq	r1, [ip], #-1536	; 0xfffffa00
    6c00:	15160000 	ldrne	r0, [r6, #-0]
    6c04:	16000001 	strne	r0, [r0], -r1
    6c08:	0000008e 	andeq	r0, r0, lr, lsl #1
    6c0c:	00002516 	andeq	r2, r0, r6, lsl r5
    6c10:	04050000 	streq	r0, [r5], #-0
    6c14:	000005f0 	strdeq	r0, [r0], -r0	; <UNPREDICTABLE>
    6c18:	00002515 	andeq	r2, r0, r5, lsl r5
    6c1c:	00062800 	andeq	r2, r6, r0, lsl #16
    6c20:	046c1600 	strbteq	r1, [ip], #-1536	; 0xfffffa00
    6c24:	15160000 	ldrne	r0, [r6, #-0]
    6c28:	00000001 	andeq	r0, r0, r1
    6c2c:	06140405 	ldreq	r0, [r4], -r5, lsl #8
    6c30:	4f0a0000 	svcmi	0x000a0000
    6c34:	3e000000 	cdpcc	0, 0, cr0, cr0, cr0, {0}
    6c38:	0b000006 	bleq	6c58 <_start-0x13a8>
    6c3c:	0000002c 	andeq	r0, r0, ip, lsr #32
    6c40:	4f0a0002 	svcmi	0x000a0002
    6c44:	4e000000 	cdpmi	0, 0, cr0, cr0, cr0, {0}
    6c48:	0b000006 	bleq	6c68 <_start-0x1398>
    6c4c:	0000002c 	andeq	r0, r0, ip, lsr #32
    6c50:	98070000 	stmdals	r7, {}	; <UNPREDICTABLE>
    6c54:	05000003 	streq	r0, [r0, #-3]
    6c58:	0b1a011f 	bleq	6870dc <__bss_end__+0x67d0ac>
    6c5c:	1a000003 	bne	6c70 <_start-0x1390>
    6c60:	000004bd 			; <UNDEFINED> instruction: 0x000004bd
    6c64:	0123050c 			; <UNDEFINED> instruction: 0x0123050c
    6c68:	00069408 	andeq	r9, r6, r8, lsl #8
    6c6c:	03c01800 	biceq	r1, r0, #0, 16
    6c70:	25050000 	strcs	r0, [r5, #-0]
    6c74:	06941101 	ldreq	r1, [r4], r1, lsl #2
    6c78:	18000000 	stmdane	r0, {}	; <UNPREDICTABLE>
    6c7c:	0000021b 	andeq	r0, r0, fp, lsl r2
    6c80:	07012605 	streq	r2, [r1, -r5, lsl #12]
    6c84:	00000025 	andeq	r0, r0, r5, lsr #32
    6c88:	03921804 	orrseq	r1, r2, #4, 16	; 0x40000
    6c8c:	27050000 	strcs	r0, [r5, -r0]
    6c90:	069a0b01 	ldreq	r0, [sl], r1, lsl #22
    6c94:	00080000 	andeq	r0, r8, r0
    6c98:	065b0405 	ldrbeq	r0, [fp], -r5, lsl #8
    6c9c:	04050000 	streq	r0, [r5], #-0
    6ca0:	0000064e 	andeq	r0, r0, lr, asr #12
    6ca4:	0000211a 	andeq	r2, r0, sl, lsl r1
    6ca8:	3f050e00 	svccc	0x00050e00
    6cac:	06d90801 	ldrbeq	r0, [r9], r1, lsl #16
    6cb0:	0f180000 	svceq	0x00180000
    6cb4:	05000004 	streq	r0, [r0, #-4]
    6cb8:	d9120140 	ldmdble	r2, {r6, r8}
    6cbc:	00000006 	andeq	r0, r0, r6
    6cc0:	00044318 	andeq	r4, r4, r8, lsl r3
    6cc4:	01410500 	cmpeq	r1, r0, lsl #10
    6cc8:	0006d912 	andeq	sp, r6, r2, lsl r9
    6ccc:	5f180600 	svcpl	0x00180600
    6cd0:	05000004 	streq	r0, [r0, #-4]
    6cd4:	56120142 	ldrpl	r0, [r2], -r2, asr #2
    6cd8:	0c000000 	stceq	0, cr0, [r0], {-0}
    6cdc:	00560a00 	subseq	r0, r6, r0, lsl #20
    6ce0:	06e90000 	strbteq	r0, [r9], r0
    6ce4:	2c0b0000 	stccs	0, cr0, [fp], {-0}
    6ce8:	02000000 	andeq	r0, r0, #0
    6cec:	05d01b00 	ldrbeq	r1, [r0, #2816]	; 0xb00
    6cf0:	fe070280 	cdp2	2, 0, cr0, cr7, cr0, {4}
    6cf4:	18000007 	stmdane	r0, {r0, r1, r2}
    6cf8:	000004a1 	andeq	r0, r0, r1, lsr #9
    6cfc:	18028205 	stmdane	r2, {r0, r2, r9, pc}
    6d00:	0000002c 	andeq	r0, r0, ip, lsr #32
    6d04:	04491800 	strbeq	r1, [r9], #-2048	; 0xfffff800
    6d08:	83050000 	movwhi	r0, #20480	; 0x5000
    6d0c:	01171202 	tsteq	r7, r2, lsl #4
    6d10:	18040000 	stmdane	r4, {}	; <UNPREDICTABLE>
    6d14:	0000024a 	andeq	r0, r0, sl, asr #4
    6d18:	10028405 	andne	r8, r2, r5, lsl #8
    6d1c:	000007fe 	strdeq	r0, [r0], -lr
    6d20:	05011808 	streq	r1, [r1, #-2056]	; 0xfffff7f8
    6d24:	85050000 	strhi	r0, [r5, #-0]
    6d28:	01a51702 			; <UNDEFINED> instruction: 0x01a51702
    6d2c:	18240000 	stmdane	r4!, {}	; <UNPREDICTABLE>
    6d30:	000001b8 			; <UNDEFINED> instruction: 0x000001b8
    6d34:	0f028605 	svceq	0x00028605
    6d38:	00000025 	andeq	r0, r0, r5, lsr #32
    6d3c:	03bb1848 			; <UNDEFINED> instruction: 0x03bb1848
    6d40:	87050000 	strhi	r0, [r5, -r0]
    6d44:	00642c02 	rsbeq	r2, r4, r2, lsl #24
    6d48:	18500000 	ldmdane	r0, {}^	; <UNPREDICTABLE>
    6d4c:	00000517 	andeq	r0, r0, r7, lsl r5
    6d50:	1a028805 	bne	a8d6c <__bss_end__+0x9ed3c>
    6d54:	000006a0 	andeq	r0, r0, r0, lsr #13
    6d58:	03c61858 	biceq	r1, r6, #88, 16	; 0x580000
    6d5c:	89050000 	stmdbhi	r5, {}	; <UNPREDICTABLE>
    6d60:	00fd1602 	rscseq	r1, sp, r2, lsl #12
    6d64:	18680000 	stmdane	r8!, {}^	; <UNPREDICTABLE>
    6d68:	0000051c 	andeq	r0, r0, ip, lsl r5
    6d6c:	16028a05 	strne	r8, [r2], -r5, lsl #20
    6d70:	000000fd 	strdeq	r0, [r0], -sp
    6d74:	02ce1870 	sbceq	r1, lr, #112, 16	; 0x700000
    6d78:	8b050000 	blhi	146d80 <__bss_end__+0x13cd50>
    6d7c:	00fd1602 	rscseq	r1, sp, r2, lsl #12
    6d80:	18780000 	ldmdane	r8!, {}^	; <UNPREDICTABLE>
    6d84:	000004cc 	andeq	r0, r0, ip, asr #9
    6d88:	10028c05 	andne	r8, r2, r5, lsl #24
    6d8c:	0000080e 	andeq	r0, r0, lr, lsl #16
    6d90:	023e1880 	eorseq	r1, lr, #128, 16	; 0x800000
    6d94:	8d050000 	stchi	0, cr0, [r5, #-0]
    6d98:	081e1002 	ldmdaeq	lr, {r1, ip}
    6d9c:	18880000 	stmne	r8, {}	; <UNPREDICTABLE>
    6da0:	0000046c 	andeq	r0, r0, ip, ror #8
    6da4:	0f028e05 	svceq	0x00028e05
    6da8:	00000025 	andeq	r0, r0, r5, lsr #32
    6dac:	017e18a0 	cmneq	lr, r0, lsr #17
    6db0:	8f050000 	svchi	0x00050000
    6db4:	00fd1602 	rscseq	r1, sp, r2, lsl #12
    6db8:	18a40000 	stmiane	r4!, {}	; <UNPREDICTABLE>
    6dbc:	0000008f 	andeq	r0, r0, pc, lsl #1
    6dc0:	16029005 	strne	r9, [r2], -r5
    6dc4:	000000fd 	strdeq	r0, [r0], -sp
    6dc8:	016d18ac 	cmneq	sp, ip, lsr #17
    6dcc:	91050000 	mrsls	r0, (UNDEF: 5)
    6dd0:	00fd1602 	rscseq	r1, sp, r2, lsl #12
    6dd4:	18b40000 	ldmne	r4!, {}	; <UNPREDICTABLE>
    6dd8:	0000003c 	andeq	r0, r0, ip, lsr r0
    6ddc:	16029205 	strne	r9, [r2], -r5, lsl #4
    6de0:	000000fd 	strdeq	r0, [r0], -sp
    6de4:	004b18bc 	strheq	r1, [fp], #-140	; 0xffffff74
    6de8:	93050000 	movwls	r0, #20480	; 0x5000
    6dec:	00fd1602 	rscseq	r1, sp, r2, lsl #12
    6df0:	18c40000 	stmiane	r4, {}^	; <UNPREDICTABLE>
    6df4:	0000036e 	andeq	r0, r0, lr, ror #6
    6df8:	08029405 	stmdaeq	r2, {r0, r2, sl, ip, pc}
    6dfc:	00000025 	andeq	r0, r0, r5, lsr #32
    6e00:	1d0a00cc 	stcne	0, cr0, [sl, #-816]	; 0xfffffcd0
    6e04:	0e000001 	cdpeq	0, 0, cr0, cr0, cr1, {0}
    6e08:	0b000008 	bleq	6e30 <_start-0x11d0>
    6e0c:	0000002c 	andeq	r0, r0, ip, lsr #32
    6e10:	1d0a0019 	stcne	0, cr0, [sl, #-100]	; 0xffffff9c
    6e14:	1e000001 	cdpne	0, 0, cr0, cr0, cr1, {0}
    6e18:	0b000008 	bleq	6e40 <_start-0x11c0>
    6e1c:	0000002c 	andeq	r0, r0, ip, lsr #32
    6e20:	1d0a0007 	stcne	0, cr0, [sl, #-28]	; 0xffffffe4
    6e24:	2e000001 	cdpcs	0, 0, cr0, cr0, cr1, {0}
    6e28:	0b000008 	bleq	6e50 <_start-0x11b0>
    6e2c:	0000002c 	andeq	r0, r0, ip, lsr #32
    6e30:	f01b0017 			; <UNDEFINED> instruction: 0xf01b0017
    6e34:	07029905 	streq	r9, [r2, -r5, lsl #18]
    6e38:	00000855 	andeq	r0, r0, r5, asr r8
    6e3c:	00029a18 	andeq	r9, r2, r8, lsl sl
    6e40:	029c0500 	addseq	r0, ip, #0, 10
    6e44:	0008551b 	andeq	r5, r8, fp, lsl r5
    6e48:	c3180000 	tstgt	r8, #0
    6e4c:	05000004 	streq	r0, [r0, #-4]
    6e50:	6518029d 	ldrvs	r0, [r8, #-669]	; 0xfffffd63
    6e54:	78000008 	stmdavc	r0, {r3}
    6e58:	03050a00 	movweq	r0, #23040	; 0x5a00
    6e5c:	08650000 	stmdaeq	r5!, {}^	; <UNPREDICTABLE>
    6e60:	2c0b0000 	stccs	0, cr0, [fp], {-0}
    6e64:	1d000000 	stcne	0, cr0, [r0, #-0]
    6e68:	002c0a00 	eoreq	r0, ip, r0, lsl #20
    6e6c:	08750000 	ldmdaeq	r5!, {}^	; <UNPREDICTABLE>
    6e70:	2c0b0000 	stccs	0, cr0, [fp], {-0}
    6e74:	1d000000 	stcne	0, cr0, [r0, #-0]
    6e78:	05f01c00 	ldrbeq	r1, [r0, #3072]!	; 0xc00
    6e7c:	9a03027e 	bls	c787c <__bss_end__+0xbd84c>
    6e80:	1d000008 	stcne	0, cr0, [r0, #-32]	; 0xffffffe0
    6e84:	00000408 	andeq	r0, r0, r8, lsl #8
    6e88:	0b029505 	bleq	ac2a4 <__bss_end__+0xa2274>
    6e8c:	000006e9 	andeq	r0, r0, r9, ror #13
    6e90:	0004ee1d 	andeq	lr, r4, sp, lsl lr
    6e94:	029e0500 	addseq	r0, lr, #0, 10
    6e98:	00082e0b 	andeq	r2, r8, fp, lsl #28
    6e9c:	1d0a0000 	stcne	0, cr0, [sl, #-0]
    6ea0:	aa000001 	bge	6eac <_start-0x1154>
    6ea4:	0b000008 	bleq	6ecc <_start-0x1134>
    6ea8:	0000002c 	andeq	r0, r0, ip, lsr #32
    6eac:	84060018 	strhi	r0, [r6], #-24	; 0xffffffe8
    6eb0:	05000000 	streq	r0, [r0, #-0]
    6eb4:	0008aa04 	andeq	sl, r8, r4, lsl #20
    6eb8:	08c01e00 	stmiaeq	r0, {r9, sl, fp, ip}^
    6ebc:	6c160000 	ldcvs	0, cr0, [r6], {-0}
    6ec0:	00000004 	andeq	r0, r0, r4
    6ec4:	08b50405 	ldmeq	r5!, {r0, r2, sl}
    6ec8:	04050000 	streq	r0, [r5], #-0
    6ecc:	0000018f 	andeq	r0, r0, pc, lsl #3
    6ed0:	0008d71e 	andeq	sp, r8, lr, lsl r7
    6ed4:	00251600 	eoreq	r1, r5, r0, lsl #12
    6ed8:	05000000 	streq	r0, [r0, #-0]
    6edc:	0008dd04 	andeq	sp, r8, r4, lsl #26
    6ee0:	cc040500 	cfstr32gt	mvfx0, [r4], {-0}
    6ee4:	0a000008 	beq	6f0c <_start-0x10f4>
    6ee8:	0000064e 	andeq	r0, r0, lr, asr #12
    6eec:	000008f3 	strdeq	r0, [r0], -r3
    6ef0:	00002c0b 	andeq	r2, r0, fp, lsl #24
    6ef4:	1f000200 	svcne	0x00000200
    6ef8:	0000048e 	andeq	r0, r0, lr, lsl #9
    6efc:	17032e05 	strne	r2, [r3, -r5, lsl #28]
    6f00:	0000046c 	andeq	r0, r0, ip, ror #8
    6f04:	0004871f 	andeq	r8, r4, pc, lsl r7
    6f08:	032f0500 			; <UNDEFINED> instruction: 0x032f0500
    6f0c:	0004721d 	andeq	r7, r4, sp, lsl r2
    6f10:	00251500 	eoreq	r1, r5, r0, lsl #10
    6f14:	091c0000 	ldmdbeq	ip, {}	; <UNPREDICTABLE>
    6f18:	25160000 	ldrcs	r0, [r6, #-0]
    6f1c:	00000000 	andeq	r0, r0, r0
    6f20:	0001d120 	andeq	sp, r1, r0, lsr #2
    6f24:	0e1d0600 	cfmsub32eq	mvax0, mvfx0, mvfx13, mvfx0
    6f28:	00000928 	andeq	r0, r0, r8, lsr #18
    6f2c:	090d0405 	stmdbeq	sp, {r0, r2, sl}
    6f30:	25150000 	ldrcs	r0, [r5, #-0]
    6f34:	3d000000 	stccc	0, cr0, [r0, #-0]
    6f38:	16000009 	strne	r0, [r0], -r9
    6f3c:	000005e4 	andeq	r0, r0, r4, ror #11
    6f40:	07682000 	strbeq	r2, [r8, -r0]!
    6f44:	22060000 	andcs	r0, r6, #0
    6f48:	0009490e 	andeq	r4, r9, lr, lsl #18
    6f4c:	2e040500 	cfsh32cs	mvfx0, mvfx4, #0
    6f50:	21000009 	tstcs	r0, r9
    6f54:	0000028d 	andeq	r0, r0, sp, lsl #5
    6f58:	60060401 	andvs	r0, r6, r1, lsl #8
    6f5c:	28000090 	stmdacs	r0, {r4, r7}
    6f60:	01000000 	mrseq	r0, (UNDEF: 0)
    6f64:	0009969c 	muleq	r9, ip, r6
    6f68:	90742200 	rsbsls	r2, r4, r0, lsl #4
    6f6c:	09780000 	ldmdbeq	r8!, {}^	; <UNPREDICTABLE>
    6f70:	01230000 			; <UNDEFINED> instruction: 0x01230000
    6f74:	f8030550 			; <UNDEFINED> instruction: 0xf8030550
    6f78:	0000009a 	muleq	r0, sl, r0
    6f7c:	00907c24 	addseq	r7, r0, r4, lsr #24
    6f80:	00099600 	andeq	r9, r9, r0, lsl #12
    6f84:	00098c00 	andeq	r8, r9, r0, lsl #24
    6f88:	50012300 	andpl	r2, r1, r0, lsl #6
    6f8c:	00640802 	rsbeq	r0, r4, r2, lsl #16
    6f90:	00908025 	addseq	r8, r0, r5, lsr #32
    6f94:	0009a200 	andeq	sl, r9, r0, lsl #4
    6f98:	ec260000 	stc	0, cr0, [r6], #-0
    6f9c:	ec000007 	stc	0, cr0, [r0], {7}
    6fa0:	06000007 	streq	r0, [r0], -r7
    6fa4:	f526064f 			; <UNDEFINED> instruction: 0xf526064f
    6fa8:	f5000007 			; <UNDEFINED> instruction: 0xf5000007
    6fac:	06000007 	streq	r0, [r0], -r7
    6fb0:	d3000662 	movwle	r0, #1634	; 0x662
    6fb4:	04000009 	streq	r0, [r0], #-9
    6fb8:	0015c000 	andseq	ip, r5, r0
    6fbc:	ef010400 	svc	0x00010400
    6fc0:	0c000002 	stceq	0, cr0, [r0], {2}
    6fc4:	00000800 	andeq	r0, r0, r0, lsl #16
    6fc8:	000006c1 	andeq	r0, r0, r1, asr #13
    6fcc:	00009088 	andeq	r9, r0, r8, lsl #1
    6fd0:	0000002c 	andeq	r0, r0, ip, lsr #32
    6fd4:	00001509 	andeq	r1, r0, r9, lsl #10
    6fd8:	69050402 	stmdbvs	r5, {r1, sl}
    6fdc:	0300746e 	movweq	r7, #1134	; 0x46e
    6fe0:	00660704 	rsbeq	r0, r6, r4, lsl #14
    6fe4:	01030000 	mrseq	r0, (UNDEF: 3)
    6fe8:	0002de06 	andeq	sp, r2, r6, lsl #28
    6fec:	05020300 	streq	r0, [r2, #-768]	; 0xfffffd00
    6ff0:	00000377 	andeq	r0, r0, r7, ror r3
    6ff4:	ac050403 	cfstrsge	mvf0, [r5], {3}
    6ff8:	03000000 	movweq	r0, #0
    6ffc:	00a70508 	adceq	r0, r7, r8, lsl #10
    7000:	01030000 	mrseq	r0, (UNDEF: 3)
    7004:	0002dc08 	andeq	sp, r2, r8, lsl #24
    7008:	07020300 	streq	r0, [r2, -r0, lsl #6]
    700c:	00000222 	andeq	r0, r0, r2, lsr #4
    7010:	61070403 	tstvs	r7, r3, lsl #8
    7014:	03000000 	movweq	r0, #0
    7018:	005c0708 	subseq	r0, ip, r8, lsl #14
    701c:	65040000 	strvs	r0, [r4, #-0]
    7020:	02000002 	andeq	r0, r0, #2
    7024:	00771922 	rsbseq	r1, r7, r2, lsr #18
    7028:	04050000 	streq	r0, [r5], #-0
    702c:	0000007d 	andeq	r0, r0, sp, ror r0
    7030:	00041d06 	andeq	r1, r4, r6, lsl #26
    7034:	02bd0400 	adcseq	r0, sp, #0, 8
    7038:	2c030000 	stccs	0, cr0, [r3], {-0}
    703c:	0000410e 	andeq	r4, r0, lr, lsl #2
    7040:	04320400 	ldrteq	r0, [r2], #-1024	; 0xfffffc00
    7044:	72030000 	andvc	r0, r3, #0
    7048:	0000410e 	andeq	r4, r0, lr, lsl #2
    704c:	026d0700 	rsbeq	r0, sp, #0, 14
    7050:	5e040000 	cdppl	0, 0, cr0, cr4, cr0, {0}
    7054:	002c1701 	eoreq	r1, ip, r1, lsl #14
    7058:	04080000 	streq	r0, [r8], #-0
    705c:	c903a603 	stmdbgt	r3, {r0, r1, r9, sl, sp, pc}
    7060:	09000000 	stmdbeq	r0, {}	; <UNPREDICTABLE>
    7064:	0000025f 	andeq	r0, r0, pc, asr r2
    7068:	9a0ca803 	bls	33107c <__bss_end__+0x32704c>
    706c:	09000000 	stmdbeq	r0, {}	; <UNPREDICTABLE>
    7070:	000001e2 	andeq	r0, r0, r2, ror #3
    7074:	c913a903 	ldmdbgt	r3, {r0, r1, r8, fp, sp, pc}
    7078:	00000000 	andeq	r0, r0, r0
    707c:	00004f0a 	andeq	r4, r0, sl, lsl #30
    7080:	0000d900 	andeq	sp, r0, r0, lsl #18
    7084:	002c0b00 	eoreq	r0, ip, r0, lsl #22
    7088:	00030000 	andeq	r0, r3, r0
    708c:	a303080c 	movwge	r0, #14348	; 0x380c
    7090:	0000fd09 	andeq	pc, r0, r9, lsl #26
    7094:	04150d00 	ldreq	r0, [r5], #-3328	; 0xfffff300
    7098:	a5030000 	strge	r0, [r3, #-0]
    709c:	00002507 	andeq	r2, r0, r7, lsl #10
    70a0:	240d0000 	strcs	r0, [sp], #-0
    70a4:	03000004 	movweq	r0, #4
    70a8:	00a705aa 	adceq	r0, r7, sl, lsr #11
    70ac:	00040000 	andeq	r0, r4, r0
    70b0:	00039f04 	andeq	r9, r3, r4, lsl #30
    70b4:	03ab0300 			; <UNDEFINED> instruction: 0x03ab0300
    70b8:	000000d9 	ldrdeq	r0, [r0], -r9
    70bc:	00019f04 	andeq	r9, r1, r4, lsl #30
    70c0:	1baf0300 	blne	febc7cc8 <__bss_end__+0xfebbdc98>
    70c4:	0000006b 	andeq	r0, r0, fp, rrx
    70c8:	0405040e 	streq	r0, [r5], #-1038	; 0xfffffbf2
    70cc:	0000011d 	andeq	r0, r0, sp, lsl r1
    70d0:	e5080103 	str	r0, [r8, #-259]	; 0xfffffefd
    70d4:	0f000002 	svceq	0x00000002
    70d8:	0000011d 	andeq	r0, r0, sp, lsl r1
    70dc:	00046404 	andeq	r6, r4, r4, lsl #8
    70e0:	19160500 	ldmdbne	r6, {r8, sl}
    70e4:	0000005d 	andeq	r0, r0, sp, asr r0
    70e8:	0001b010 	andeq	fp, r1, r0, lsl r0
    70ec:	2f051800 	svccs	0x00051800
    70f0:	00018f08 	andeq	r8, r1, r8, lsl #30
    70f4:	03c00d00 	biceq	r0, r0, #0, 26
    70f8:	31050000 	mrscc	r0, (UNDEF: 5)
    70fc:	00018f13 	andeq	r8, r1, r3, lsl pc
    7100:	5f110000 	svcpl	0x00110000
    7104:	3205006b 	andcc	r0, r5, #107	; 0x6b
    7108:	00002507 	andeq	r2, r0, r7, lsl #10
    710c:	000d0400 	andeq	r0, sp, r0, lsl #8
    7110:	05000004 	streq	r0, [r0, #-4]
    7114:	00250b32 	eoreq	r0, r5, r2, lsr fp
    7118:	0d080000 	stceq	0, cr0, [r8, #-0]
    711c:	00000199 	muleq	r0, r9, r1
    7120:	25143205 	ldrcs	r3, [r4, #-517]	; 0xfffffdfb
    7124:	0c000000 	stceq	0, cr0, [r0], {-0}
    7128:	0004ae0d 	andeq	sl, r4, sp, lsl #28
    712c:	1b320500 	blne	c88534 <__bss_end__+0xc7e504>
    7130:	00000025 	andeq	r0, r0, r5, lsr #32
    7134:	785f1110 	ldmdavc	pc, {r4, r8, ip}^	; <UNPREDICTABLE>
    7138:	0b330500 	bleq	cc8540 <__bss_end__+0xcbe510>
    713c:	00000195 	muleq	r0, r5, r1
    7140:	04050014 	streq	r0, [r5], #-20	; 0xffffffec
    7144:	00000135 	andeq	r0, r0, r5, lsr r1
    7148:	0001290a 	andeq	r2, r1, sl, lsl #18
    714c:	0001a500 	andeq	sl, r1, r0, lsl #10
    7150:	002c0b00 	eoreq	r0, ip, r0, lsl #22
    7154:	00000000 	andeq	r0, r0, r0
    7158:	0001dd10 	andeq	sp, r1, r0, lsl sp
    715c:	37052400 	strcc	r2, [r5, -r0, lsl #8]
    7160:	00022808 	andeq	r2, r2, r8, lsl #16
    7164:	009e0d00 	addseq	r0, lr, r0, lsl #26
    7168:	39050000 	stmdbcc	r5, {}	; <UNPREDICTABLE>
    716c:	00002509 	andeq	r2, r0, r9, lsl #10
    7170:	3a0d0000 	bcc	347178 <__bss_end__+0x33d148>
    7174:	05000004 	streq	r0, [r0, #-4]
    7178:	0025093a 	eoreq	r0, r5, sl, lsr r9
    717c:	0d040000 	stceq	0, cr0, [r4, #-0]
    7180:	000000c1 	andeq	r0, r0, r1, asr #1
    7184:	25093b05 	strcs	r3, [r9, #-2821]	; 0xfffff4fb
    7188:	08000000 	stmdaeq	r0, {}	; <UNPREDICTABLE>
    718c:	00052f0d 	andeq	r2, r5, sp, lsl #30
    7190:	093c0500 	ldmdbeq	ip!, {r8, sl}
    7194:	00000025 	andeq	r0, r0, r5, lsr #32
    7198:	02a10d0c 	adceq	r0, r1, #12, 26	; 0x300
    719c:	3d050000 	stccc	0, cr0, [r5, #-0]
    71a0:	00002509 	andeq	r2, r0, r9, lsl #10
    71a4:	830d1000 	movwhi	r1, #53248	; 0xd000
    71a8:	05000002 	streq	r0, [r0, #-2]
    71ac:	0025093e 	eoreq	r0, r5, lr, lsr r9
    71b0:	0d140000 	ldceq	0, cr0, [r4, #-0]
    71b4:	000004b3 			; <UNDEFINED> instruction: 0x000004b3
    71b8:	25093f05 	strcs	r3, [r9, #-3845]	; 0xfffff0fb
    71bc:	18000000 	stmdane	r0, {}	; <UNPREDICTABLE>
    71c0:	0003810d 	andeq	r8, r3, sp, lsl #2
    71c4:	09400500 	stmdbeq	r0, {r8, sl}^
    71c8:	00000025 	andeq	r0, r0, r5, lsr #32
    71cc:	04f60d1c 	ldrbteq	r0, [r6], #3356	; 0xd1c
    71d0:	41050000 	mrsmi	r0, (UNDEF: 5)
    71d4:	00002509 	andeq	r2, r0, r9, lsl #10
    71d8:	12002000 	andne	r2, r0, #0
    71dc:	00000101 	andeq	r0, r0, r1, lsl #2
    71e0:	4a050108 	bmi	147608 <__bss_end__+0x13d5d8>
    71e4:	00026d08 	andeq	r6, r2, r8, lsl #26
    71e8:	018c0d00 	orreq	r0, ip, r0, lsl #26
    71ec:	4b050000 	blmi	1471f4 <__bss_end__+0x13d1c4>
    71f0:	00026d0a 	andeq	r6, r2, sl, lsl #26
    71f4:	000d0000 	andeq	r0, sp, r0
    71f8:	05000000 	streq	r0, [r0, #-0]
    71fc:	026d094c 	rsbeq	r0, sp, #76, 18	; 0x130000
    7200:	13800000 	orrne	r0, r0, #0
    7204:	00000456 	andeq	r0, r0, r6, asr r4
    7208:	290a4e05 	stmdbcs	sl, {r0, r2, r9, sl, fp, lr}
    720c:	00000001 	andeq	r0, r0, r1
    7210:	01261301 			; <UNDEFINED> instruction: 0x01261301
    7214:	51050000 	mrspl	r0, (UNDEF: 5)
    7218:	0001290a 	andeq	r2, r1, sl, lsl #18
    721c:	00010400 	andeq	r0, r1, r0, lsl #8
    7220:	0001150a 	andeq	r1, r1, sl, lsl #10
    7224:	00027d00 	andeq	r7, r2, r0, lsl #26
    7228:	002c0b00 	eoreq	r0, ip, r0, lsl #22
    722c:	001f0000 	andseq	r0, pc, r0
    7230:	0002aa12 	andeq	sl, r2, r2, lsl sl
    7234:	05019000 	streq	r9, [r1, #-0]
    7238:	02c0085d 	sbceq	r0, r0, #6094848	; 0x5d0000
    723c:	c00d0000 	andgt	r0, sp, r0
    7240:	05000003 	streq	r0, [r0, #-3]
    7244:	02c0125e 	sbceq	r1, r0, #-536870907	; 0xe0000005
    7248:	0d000000 	stceq	0, cr0, [r0, #-0]
    724c:	000003d8 	ldrdeq	r0, [r0], -r8
    7250:	25065f05 	strcs	r5, [r6, #-3845]	; 0xfffff0fb
    7254:	04000000 	streq	r0, [r0], #-0
    7258:	0001940d 	andeq	r9, r1, sp, lsl #8
    725c:	09610500 	stmdbeq	r1!, {r8, sl}^
    7260:	000002c6 	andeq	r0, r0, r6, asr #5
    7264:	01010d08 	tsteq	r1, r8, lsl #26
    7268:	62050000 	andvs	r0, r5, #0
    726c:	0002281e 	andeq	r2, r2, lr, lsl r8
    7270:	05008800 	streq	r8, [r0, #-2048]	; 0xfffff800
    7274:	00027d04 	andeq	r7, r2, r4, lsl #26
    7278:	02d60a00 	sbcseq	r0, r6, #0, 20
    727c:	02d60000 	sbcseq	r0, r6, #0
    7280:	2c0b0000 	stccs	0, cr0, [fp], {-0}
    7284:	1f000000 	svcne	0x00000000
    7288:	dc040500 	cfstr32le	mvfx0, [r4], {-0}
    728c:	14000002 	strne	r0, [r0], #-2
    7290:	00038b10 	andeq	r8, r3, r0, lsl fp
    7294:	75050800 	strvc	r0, [r5, #-2048]	; 0xfffff800
    7298:	00030508 	andeq	r0, r3, r8, lsl #10
    729c:	00bb0d00 	adcseq	r0, fp, r0, lsl #26
    72a0:	76050000 	strvc	r0, [r5], -r0
    72a4:	00030511 	andeq	r0, r3, r1, lsl r5
    72a8:	1b0d0000 	blne	3472b0 <__bss_end__+0x33d280>
    72ac:	05000000 	streq	r0, [r0, #-0]
    72b0:	00250677 	eoreq	r0, r5, r7, ror r6
    72b4:	00040000 	andeq	r0, r4, r0
    72b8:	004f0405 	subeq	r0, pc, r5, lsl #8
    72bc:	aa100000 	bge	4072c4 <__bss_end__+0x3fd294>
    72c0:	68000003 	stmdavs	r0, {r0, r1}
    72c4:	4e08b505 	cfsh32mi	mvfx11, mvfx8, #5
    72c8:	11000004 	tstne	r0, r4
    72cc:	0500705f 	streq	r7, [r0, #-95]	; 0xffffffa1
    72d0:	030512b6 	movweq	r1, #21174	; 0x52b6
    72d4:	11000000 	mrsne	r0, (UNDEF: 0)
    72d8:	0500725f 	streq	r7, [r0, #-607]	; 0xfffffda1
    72dc:	002507b7 	strhteq	r0, [r5], -r7
    72e0:	11040000 	mrsne	r0, (UNDEF: 4)
    72e4:	0500775f 	streq	r7, [r0, #-1887]	; 0xfffff8a1
    72e8:	002507b8 	strhteq	r0, [r5], -r8
    72ec:	0d080000 	stceq	0, cr0, [r8, #-0]
    72f0:	0000011f 	andeq	r0, r0, pc, lsl r1
    72f4:	3a09b905 	bcc	275710 <__bss_end__+0x26b6e0>
    72f8:	0c000000 	stceq	0, cr0, [r0], {-0}
    72fc:	0002080d 	andeq	r0, r2, sp, lsl #16
    7300:	09ba0500 	ldmibeq	sl!, {r8, sl}
    7304:	0000003a 	andeq	r0, r0, sl, lsr r0
    7308:	625f110e 	subsvs	r1, pc, #-2147483645	; 0x80000003
    730c:	bb050066 	bllt	1474ac <__bss_end__+0x13d47c>
    7310:	0002dd11 	andeq	sp, r2, r1, lsl sp
    7314:	7b0d1000 	blvc	34b31c <__bss_end__+0x3412ec>
    7318:	05000000 	streq	r0, [r0, #-0]
    731c:	002507bc 	strhteq	r0, [r5], -ip
    7320:	0d180000 	ldceq	0, cr0, [r8, #-0]
    7324:	0000010f 	andeq	r0, r0, pc, lsl #2
    7328:	150ac305 	strne	ip, [sl, #-773]	; 0xfffffcfb
    732c:	1c000001 	stcne	0, cr0, [r0], {1}
    7330:	000b240d 	andeq	r2, fp, sp, lsl #8
    7334:	1dc50500 	cfstr64ne	mvdx0, [r5]
    7338:	000005c0 	andeq	r0, r0, r0, asr #11
    733c:	06190d20 	ldreq	r0, [r9], -r0, lsr #26
    7340:	c7050000 	strgt	r0, [r5, -r0]
    7344:	0005ea1d 	andeq	lr, r5, sp, lsl sl
    7348:	2c0d2400 	cfstrscs	mvf2, [sp], {-0}
    734c:	05000004 	streq	r0, [r0, #-4]
    7350:	060e0dca 	streq	r0, [lr], -sl, asr #27
    7354:	0d280000 	stceq	0, cr0, [r8, #-0]
    7358:	00000510 	andeq	r0, r0, r0, lsl r5
    735c:	2809cb05 	stmdacs	r9, {r0, r2, r8, r9, fp, lr, pc}
    7360:	2c000006 	stccs	0, cr0, [r0], {6}
    7364:	62755f11 	rsbsvs	r5, r5, #17, 30	; 0x44
    7368:	11ce0500 	bicne	r0, lr, r0, lsl #10
    736c:	000002dd 	ldrdeq	r0, [r0], -sp
    7370:	755f1130 	ldrbvc	r1, [pc, #-304]	; 7248 <_start-0xdb8>
    7374:	cf050070 	svcgt	0x00050070
    7378:	00030512 	andeq	r0, r3, r2, lsl r5
    737c:	5f113800 	svcpl	0x00113800
    7380:	05007275 	streq	r7, [r0, #-629]	; 0xfffffd8b
    7384:	002507d0 	ldrdeq	r0, [r5], -r0	; <UNPREDICTABLE>
    7388:	0d3c0000 	ldceq	0, cr0, [ip, #-0]
    738c:	000000b5 	strheq	r0, [r0], -r5
    7390:	2e11d305 	cdpcs	3, 1, cr13, cr1, cr5, {0}
    7394:	40000006 	andmi	r0, r0, r6
    7398:	0004e80d 	andeq	lr, r4, sp, lsl #16
    739c:	11d40500 	bicsne	r0, r4, r0, lsl #10
    73a0:	0000063e 	andeq	r0, r0, lr, lsr r6
    73a4:	6c5f1143 	ldfvse	f1, [pc], {67}	; 0x43
    73a8:	d7050062 	strle	r0, [r5, -r2, rrx]
    73ac:	0002dd11 	andeq	sp, r2, r1, lsl sp
    73b0:	3d0d4400 	cfstrscc	mvf4, [sp, #-0]
    73b4:	05000001 	streq	r0, [r0, #-1]
    73b8:	002507da 	ldrdeq	r0, [r5], -sl	; <UNPREDICTABLE>
    73bc:	0d4c0000 	stcleq	0, cr0, [ip, #-0]
    73c0:	0000014e 	andeq	r0, r0, lr, asr #2
    73c4:	820adb05 	andhi	sp, sl, #5120	; 0x1400
    73c8:	50000000 	andpl	r0, r0, r0
    73cc:	000ac50d 	andeq	ip, sl, sp, lsl #10
    73d0:	12de0500 	sbcsne	r0, lr, #0, 10
    73d4:	0000046c 	andeq	r0, r0, ip, ror #8
    73d8:	041e0d54 	ldreq	r0, [lr], #-3412	; 0xfffff2ac
    73dc:	e2050000 	and	r0, r5, #0
    73e0:	0001090c 	andeq	r0, r1, ip, lsl #18
    73e4:	b20d5800 	andlt	r5, sp, #0, 16
    73e8:	05000003 	streq	r0, [r0, #-3]
    73ec:	00fd0ee4 	rscseq	r0, sp, r4, ror #29
    73f0:	0d5c0000 	ldcleq	0, cr0, [ip, #-0]
    73f4:	0000027b 	andeq	r0, r0, fp, ror r2
    73f8:	2509e505 	strcs	lr, [r9, #-1285]	; 0xfffffafb
    73fc:	64000000 	strvs	r0, [r0], #-0
    7400:	00251500 	eoreq	r1, r5, r0, lsl #10
    7404:	046c0000 	strbteq	r0, [ip], #-0
    7408:	6c160000 	ldcvs	0, cr0, [r6], {-0}
    740c:	16000004 	strne	r0, [r0], -r4
    7410:	00000115 	andeq	r0, r0, r5, lsl r1
    7414:	00011716 	andeq	r1, r1, r6, lsl r7
    7418:	00251600 	eoreq	r1, r5, r0, lsl #12
    741c:	05000000 	streq	r0, [r0, #-0]
    7420:	00047704 	andeq	r7, r4, r4, lsl #14
    7424:	046c0f00 	strbteq	r0, [ip], #-3840	; 0xfffff100
    7428:	08170000 	ldmdaeq	r7, {}	; <UNPREDICTABLE>
    742c:	28000004 	stmdacs	r0, {r2}
    7430:	02600504 	rsbeq	r0, r0, #4, 10	; 0x1000000
    7434:	0005c008 	andeq	ip, r5, r8
    7438:	03701800 	cmneq	r0, #0, 16
    743c:	62050000 	andvs	r0, r5, #0
    7440:	00250702 	eoreq	r0, r5, r2, lsl #14
    7444:	18000000 	stmdane	r0, {}	; <UNPREDICTABLE>
    7448:	0000012e 	andeq	r0, r0, lr, lsr #2
    744c:	0b026705 	bleq	a1068 <__bss_end__+0x97038>
    7450:	0000069a 	muleq	r0, sl, r6
    7454:	01f81804 	mvnseq	r1, r4, lsl #16
    7458:	67050000 	strvs	r0, [r5, -r0]
    745c:	069a1402 	ldreq	r1, [sl], r2, lsl #8
    7460:	18080000 	stmdane	r8, {}	; <UNPREDICTABLE>
    7464:	000001a8 	andeq	r0, r0, r8, lsr #3
    7468:	1e026705 	cdpne	7, 0, cr6, cr2, cr5, {0}
    746c:	0000069a 	muleq	r0, sl, r6
    7470:	03d3180c 	bicseq	r1, r3, #12, 16	; 0xc0000
    7474:	69050000 	stmdbvs	r5, {}	; <UNPREDICTABLE>
    7478:	00250802 	eoreq	r0, r5, r2, lsl #16
    747c:	18100000 	ldmdane	r0, {}	; <UNPREDICTABLE>
    7480:	00000029 	andeq	r0, r0, r9, lsr #32
    7484:	08026a05 	stmdaeq	r2, {r0, r2, r9, fp, sp, lr}
    7488:	0000089a 	muleq	r0, sl, r8
    748c:	03e71814 	mvneq	r1, #20, 16	; 0x140000
    7490:	6d050000 	stcvs	0, cr0, [r5, #-0]
    7494:	00250702 	eoreq	r0, r5, r2, lsl #14
    7498:	18300000 	ldmdane	r0!, {}	; <UNPREDICTABLE>
    749c:	00000a01 	andeq	r0, r0, r1, lsl #20
    74a0:	16026e05 	strne	r6, [r2], -r5, lsl #28
    74a4:	000008af 	andeq	r0, r0, pc, lsr #17
    74a8:	02b21834 	adcseq	r1, r2, #52, 16	; 0x340000
    74ac:	70050000 	andvc	r0, r5, r0
    74b0:	00250702 	eoreq	r0, r5, r2, lsl #14
    74b4:	18380000 	ldmdane	r8!, {}	; <UNPREDICTABLE>
    74b8:	000003dd 	ldrdeq	r0, [r0], -sp
    74bc:	0a027205 	beq	a3cd8 <__bss_end__+0x99ca8>
    74c0:	000008c0 	andeq	r0, r0, r0, asr #17
    74c4:	0257183c 	subseq	r1, r7, #60, 16	; 0x3c0000
    74c8:	75050000 	strvc	r0, [r5, #-0]
    74cc:	018f1302 	orreq	r1, pc, r2, lsl #6
    74d0:	18400000 	stmdane	r0, {}^	; <UNPREDICTABLE>
    74d4:	000001c7 	andeq	r0, r0, r7, asr #3
    74d8:	07027605 	streq	r7, [r2, -r5, lsl #12]
    74dc:	00000025 	andeq	r0, r0, r5, lsr #32
    74e0:	052a1844 	streq	r1, [sl, #-2116]!	; 0xfffff7bc
    74e4:	77050000 	strvc	r0, [r5, -r0]
    74e8:	018f1302 	orreq	r1, pc, r2, lsl #6
    74ec:	18480000 	stmdane	r8, {}^	; <UNPREDICTABLE>
    74f0:	000002c4 	andeq	r0, r0, r4, asr #5
    74f4:	14027805 	strne	r7, [r2], #-2053	; 0xfffff7fb
    74f8:	000008c6 	andeq	r0, r0, r6, asr #17
    74fc:	0200184c 	andeq	r1, r0, #76, 16	; 0x4c0000
    7500:	7b050000 	blvc	147508 <__bss_end__+0x13d4d8>
    7504:	00250702 	eoreq	r0, r5, r2, lsl #14
    7508:	18500000 	ldmdane	r0, {}^	; <UNPREDICTABLE>
    750c:	00000146 	andeq	r0, r0, r6, asr #2
    7510:	09027c05 	stmdbeq	r2, {r0, r2, sl, fp, ip, sp, lr}
    7514:	00000117 	andeq	r0, r0, r7, lsl r1
    7518:	02ea1854 	rsceq	r1, sl, #84, 16	; 0x540000
    751c:	9f050000 	svcls	0x00050000
    7520:	08750702 	ldmdaeq	r5!, {r1, r8, r9, sl}^
    7524:	19580000 	ldmdbne	r8, {}^	; <UNPREDICTABLE>
    7528:	000002aa 	andeq	r0, r0, sl, lsr #5
    752c:	1302a305 	movwne	sl, #8965	; 0x2305
    7530:	000002c0 	andeq	r0, r0, r0, asr #5
    7534:	35190148 	ldrcc	r0, [r9, #-328]	; 0xfffffeb8
    7538:	05000002 	streq	r0, [r0, #-2]
    753c:	7d1202a4 	lfmvc	f0, 4, [r2, #-656]	; 0xfffffd70
    7540:	4c000002 	stcmi	0, cr0, [r0], {2}
    7544:	04d61901 	ldrbeq	r1, [r6], #2305	; 0x901
    7548:	a8050000 	stmdage	r5, {}	; <UNPREDICTABLE>
    754c:	08d70c02 	ldmeq	r7, {r1, sl, fp}^
    7550:	02dc0000 	sbcseq	r0, ip, #0
    7554:	00011719 	andeq	r1, r1, r9, lsl r7
    7558:	02ad0500 	adceq	r0, sp, #0, 10
    755c:	00065b10 	andeq	r5, r6, r0, lsl fp
    7560:	1902e000 	stmdbne	r2, {sp, lr, pc}
    7564:	000000fc 	strdeq	r0, [r0], -ip
    7568:	0a02af05 	beq	b3184 <__bss_end__+0xa9154>
    756c:	000008e3 	andeq	r0, r0, r3, ror #17
    7570:	050002ec 	streq	r0, [r0, #-748]	; 0xfffffd14
    7574:	00044e04 	andeq	r4, r4, r4, lsl #28
    7578:	00251500 	eoreq	r1, r5, r0, lsl #10
    757c:	05e40000 	strbeq	r0, [r4, #0]!
    7580:	6c160000 	ldcvs	0, cr0, [r6], {-0}
    7584:	16000004 	strne	r0, [r0], -r4
    7588:	00000115 	andeq	r0, r0, r5, lsl r1
    758c:	0005e416 	andeq	lr, r5, r6, lsl r4
    7590:	00251600 	eoreq	r1, r5, r0, lsl #12
    7594:	05000000 	streq	r0, [r0, #-0]
    7598:	00012404 	andeq	r2, r1, r4, lsl #8
    759c:	c6040500 	strgt	r0, [r4], -r0, lsl #10
    75a0:	15000005 	strne	r0, [r0, #-5]
    75a4:	0000008e 	andeq	r0, r0, lr, lsl #1
    75a8:	0000060e 	andeq	r0, r0, lr, lsl #12
    75ac:	00046c16 	andeq	r6, r4, r6, lsl ip
    75b0:	01151600 	tsteq	r5, r0, lsl #12
    75b4:	8e160000 	cdphi	0, 1, cr0, cr6, cr0, {0}
    75b8:	16000000 	strne	r0, [r0], -r0
    75bc:	00000025 	andeq	r0, r0, r5, lsr #32
    75c0:	f0040500 			; <UNDEFINED> instruction: 0xf0040500
    75c4:	15000005 	strne	r0, [r0, #-5]
    75c8:	00000025 	andeq	r0, r0, r5, lsr #32
    75cc:	00000628 	andeq	r0, r0, r8, lsr #12
    75d0:	00046c16 	andeq	r6, r4, r6, lsl ip
    75d4:	01151600 	tsteq	r5, r0, lsl #12
    75d8:	05000000 	streq	r0, [r0, #-0]
    75dc:	00061404 	andeq	r1, r6, r4, lsl #8
    75e0:	004f0a00 	subeq	r0, pc, r0, lsl #20
    75e4:	063e0000 	ldrteq	r0, [lr], -r0
    75e8:	2c0b0000 	stccs	0, cr0, [fp], {-0}
    75ec:	02000000 	andeq	r0, r0, #0
    75f0:	004f0a00 	subeq	r0, pc, r0, lsl #20
    75f4:	064e0000 	strbeq	r0, [lr], -r0
    75f8:	2c0b0000 	stccs	0, cr0, [fp], {-0}
    75fc:	00000000 	andeq	r0, r0, r0
    7600:	03980700 	orrseq	r0, r8, #0, 14
    7604:	1f050000 	svcne	0x00050000
    7608:	030b1a01 	movweq	r1, #47617	; 0xba01
    760c:	bd1a0000 	ldclt	0, cr0, [sl, #-0]
    7610:	0c000004 	stceq	0, cr0, [r0], {4}
    7614:	08012305 	stmdaeq	r1, {r0, r2, r8, r9, sp}
    7618:	00000694 	muleq	r0, r4, r6
    761c:	0003c018 	andeq	ip, r3, r8, lsl r0
    7620:	01250500 			; <UNDEFINED> instruction: 0x01250500
    7624:	00069411 	andeq	r9, r6, r1, lsl r4
    7628:	1b180000 	blne	607630 <__bss_end__+0x5fd600>
    762c:	05000002 	streq	r0, [r0, #-2]
    7630:	25070126 	strcs	r0, [r7, #-294]	; 0xfffffeda
    7634:	04000000 	streq	r0, [r0], #-0
    7638:	00039218 	andeq	r9, r3, r8, lsl r2
    763c:	01270500 			; <UNDEFINED> instruction: 0x01270500
    7640:	00069a0b 	andeq	r9, r6, fp, lsl #20
    7644:	05000800 	streq	r0, [r0, #-2048]	; 0xfffff800
    7648:	00065b04 	andeq	r5, r6, r4, lsl #22
    764c:	4e040500 	cfsh32mi	mvfx0, mvfx4, #0
    7650:	1a000006 	bne	7670 <_start-0x990>
    7654:	00000021 	andeq	r0, r0, r1, lsr #32
    7658:	013f050e 	teqeq	pc, lr, lsl #10
    765c:	0006d908 	andeq	sp, r6, r8, lsl #18
    7660:	040f1800 	streq	r1, [pc], #-2048	; 7668 <_start-0x998>
    7664:	40050000 	andmi	r0, r5, r0
    7668:	06d91201 	ldrbeq	r1, [r9], r1, lsl #4
    766c:	18000000 	stmdane	r0, {}	; <UNPREDICTABLE>
    7670:	00000443 	andeq	r0, r0, r3, asr #8
    7674:	12014105 	andne	r4, r1, #1073741825	; 0x40000001
    7678:	000006d9 	ldrdeq	r0, [r0], -r9
    767c:	045f1806 	ldrbeq	r1, [pc], #-2054	; 7684 <_start-0x97c>
    7680:	42050000 	andmi	r0, r5, #0
    7684:	00561201 	subseq	r1, r6, r1, lsl #4
    7688:	000c0000 	andeq	r0, ip, r0
    768c:	0000560a 	andeq	r5, r0, sl, lsl #12
    7690:	0006e900 	andeq	lr, r6, r0, lsl #18
    7694:	002c0b00 	eoreq	r0, ip, r0, lsl #22
    7698:	00020000 	andeq	r0, r2, r0
    769c:	8005d01b 	andhi	sp, r5, fp, lsl r0
    76a0:	07fe0702 	ldrbeq	r0, [lr, r2, lsl #14]!
    76a4:	a1180000 	tstge	r8, r0
    76a8:	05000004 	streq	r0, [r0, #-4]
    76ac:	2c180282 	lfmcs	f0, 4, [r8], {130}	; 0x82
    76b0:	00000000 	andeq	r0, r0, r0
    76b4:	00044918 	andeq	r4, r4, r8, lsl r9
    76b8:	02830500 	addeq	r0, r3, #0, 10
    76bc:	00011712 	andeq	r1, r1, r2, lsl r7
    76c0:	4a180400 	bmi	6086c8 <__bss_end__+0x5fe698>
    76c4:	05000002 	streq	r0, [r0, #-2]
    76c8:	fe100284 	cdp2	2, 1, cr0, cr0, cr4, {4}
    76cc:	08000007 	stmdaeq	r0, {r0, r1, r2}
    76d0:	00050118 	andeq	r0, r5, r8, lsl r1
    76d4:	02850500 	addeq	r0, r5, #0, 10
    76d8:	0001a517 	andeq	sl, r1, r7, lsl r5
    76dc:	b8182400 	ldmdalt	r8, {sl, sp}
    76e0:	05000001 	streq	r0, [r0, #-1]
    76e4:	250f0286 	strcs	r0, [pc, #-646]	; 7466 <_start-0xb9a>
    76e8:	48000000 	stmdami	r0, {}	; <UNPREDICTABLE>
    76ec:	0003bb18 	andeq	fp, r3, r8, lsl fp
    76f0:	02870500 	addeq	r0, r7, #0, 10
    76f4:	0000642c 	andeq	r6, r0, ip, lsr #8
    76f8:	17185000 	ldrne	r5, [r8, -r0]
    76fc:	05000005 	streq	r0, [r0, #-5]
    7700:	a01a0288 	andsge	r0, sl, r8, lsl #5
    7704:	58000006 	stmdapl	r0, {r1, r2}
    7708:	0003c618 	andeq	ip, r3, r8, lsl r6
    770c:	02890500 	addeq	r0, r9, #0, 10
    7710:	0000fd16 	andeq	pc, r0, r6, lsl sp	; <UNPREDICTABLE>
    7714:	1c186800 	ldcne	8, cr6, [r8], {-0}
    7718:	05000005 	streq	r0, [r0, #-5]
    771c:	fd16028a 	ldc2	2, cr0, [r6, #-552]	; 0xfffffdd8
    7720:	70000000 	andvc	r0, r0, r0
    7724:	0002ce18 	andeq	ip, r2, r8, lsl lr
    7728:	028b0500 	addeq	r0, fp, #0, 10
    772c:	0000fd16 	andeq	pc, r0, r6, lsl sp	; <UNPREDICTABLE>
    7730:	cc187800 	ldcgt	8, cr7, [r8], {-0}
    7734:	05000004 	streq	r0, [r0, #-4]
    7738:	0e10028c 	cdpeq	2, 1, cr0, cr0, cr12, {4}
    773c:	80000008 	andhi	r0, r0, r8
    7740:	00023e18 	andeq	r3, r2, r8, lsl lr
    7744:	028d0500 	addeq	r0, sp, #0, 10
    7748:	00081e10 	andeq	r1, r8, r0, lsl lr
    774c:	6c188800 	ldcvs	8, cr8, [r8], {-0}
    7750:	05000004 	streq	r0, [r0, #-4]
    7754:	250f028e 	strcs	r0, [pc, #-654]	; 74ce <_start-0xb32>
    7758:	a0000000 	andge	r0, r0, r0
    775c:	00017e18 	andeq	r7, r1, r8, lsl lr
    7760:	028f0500 	addeq	r0, pc, #0, 10
    7764:	0000fd16 	andeq	pc, r0, r6, lsl sp	; <UNPREDICTABLE>
    7768:	8f18a400 	svchi	0x0018a400
    776c:	05000000 	streq	r0, [r0, #-0]
    7770:	fd160290 	ldc2	2, cr0, [r6, #-576]	; 0xfffffdc0
    7774:	ac000000 	stcge	0, cr0, [r0], {-0}
    7778:	00016d18 	andeq	r6, r1, r8, lsl sp
    777c:	02910500 	addseq	r0, r1, #0, 10
    7780:	0000fd16 	andeq	pc, r0, r6, lsl sp	; <UNPREDICTABLE>
    7784:	3c18b400 	cfldrscc	mvf11, [r8], {-0}
    7788:	05000000 	streq	r0, [r0, #-0]
    778c:	fd160292 	ldc2	2, cr0, [r6, #-584]	; 0xfffffdb8
    7790:	bc000000 	stclt	0, cr0, [r0], {-0}
    7794:	00004b18 	andeq	r4, r0, r8, lsl fp
    7798:	02930500 	addseq	r0, r3, #0, 10
    779c:	0000fd16 	andeq	pc, r0, r6, lsl sp	; <UNPREDICTABLE>
    77a0:	6e18c400 	cfmulsvs	mvf12, mvf8, mvf0
    77a4:	05000003 	streq	r0, [r0, #-3]
    77a8:	25080294 	strcs	r0, [r8, #-660]	; 0xfffffd6c
    77ac:	cc000000 	stcgt	0, cr0, [r0], {-0}
    77b0:	011d0a00 	tsteq	sp, r0, lsl #20
    77b4:	080e0000 	stmdaeq	lr, {}	; <UNPREDICTABLE>
    77b8:	2c0b0000 	stccs	0, cr0, [fp], {-0}
    77bc:	19000000 	stmdbne	r0, {}	; <UNPREDICTABLE>
    77c0:	011d0a00 	tsteq	sp, r0, lsl #20
    77c4:	081e0000 	ldmdaeq	lr, {}	; <UNPREDICTABLE>
    77c8:	2c0b0000 	stccs	0, cr0, [fp], {-0}
    77cc:	07000000 	streq	r0, [r0, -r0]
    77d0:	011d0a00 	tsteq	sp, r0, lsl #20
    77d4:	082e0000 	stmdaeq	lr!, {}	; <UNPREDICTABLE>
    77d8:	2c0b0000 	stccs	0, cr0, [fp], {-0}
    77dc:	17000000 	strne	r0, [r0, -r0]
    77e0:	05f01b00 	ldrbeq	r1, [r0, #2816]!	; 0xb00
    77e4:	55070299 	strpl	r0, [r7, #-665]	; 0xfffffd67
    77e8:	18000008 	stmdane	r0, {r3}
    77ec:	0000029a 	muleq	r0, sl, r2
    77f0:	1b029c05 	blne	ae80c <__bss_end__+0xa47dc>
    77f4:	00000855 	andeq	r0, r0, r5, asr r8
    77f8:	04c31800 	strbeq	r1, [r3], #2048	; 0x800
    77fc:	9d050000 	stcls	0, cr0, [r5, #-0]
    7800:	08651802 	stmdaeq	r5!, {r1, fp, ip}^
    7804:	00780000 	rsbseq	r0, r8, r0
    7808:	0003050a 	andeq	r0, r3, sl, lsl #10
    780c:	00086500 	andeq	r6, r8, r0, lsl #10
    7810:	002c0b00 	eoreq	r0, ip, r0, lsl #22
    7814:	001d0000 	andseq	r0, sp, r0
    7818:	00002c0a 	andeq	r2, r0, sl, lsl #24
    781c:	00087500 	andeq	r7, r8, r0, lsl #10
    7820:	002c0b00 	eoreq	r0, ip, r0, lsl #22
    7824:	001d0000 	andseq	r0, sp, r0
    7828:	7e05f01c 	mcrvc	0, 0, pc, cr5, cr12, {0}	; <UNPREDICTABLE>
    782c:	089a0302 	ldmeq	sl, {r1, r8, r9}
    7830:	081d0000 	ldmdaeq	sp, {}	; <UNPREDICTABLE>
    7834:	05000004 	streq	r0, [r0, #-4]
    7838:	e90b0295 	stmdb	fp, {r0, r2, r4, r7, r9}
    783c:	1d000006 	stcne	0, cr0, [r0, #-24]	; 0xffffffe8
    7840:	000004ee 	andeq	r0, r0, lr, ror #9
    7844:	0b029e05 	bleq	af060 <__bss_end__+0xa5030>
    7848:	0000082e 	andeq	r0, r0, lr, lsr #16
    784c:	011d0a00 	tsteq	sp, r0, lsl #20
    7850:	08aa0000 	stmiaeq	sl!, {}	; <UNPREDICTABLE>
    7854:	2c0b0000 	stccs	0, cr0, [fp], {-0}
    7858:	18000000 	stmdane	r0, {}	; <UNPREDICTABLE>
    785c:	00840600 	addeq	r0, r4, r0, lsl #12
    7860:	04050000 	streq	r0, [r5], #-0
    7864:	000008aa 	andeq	r0, r0, sl, lsr #17
    7868:	0008c01e 	andeq	ip, r8, lr, lsl r0
    786c:	046c1600 	strbteq	r1, [ip], #-1536	; 0xfffffa00
    7870:	05000000 	streq	r0, [r0, #-0]
    7874:	0008b504 	andeq	fp, r8, r4, lsl #10
    7878:	8f040500 	svchi	0x00040500
    787c:	1e000001 	cdpne	0, 0, cr0, cr0, cr1, {0}
    7880:	000008d7 	ldrdeq	r0, [r0], -r7
    7884:	00002516 	andeq	r2, r0, r6, lsl r5
    7888:	04050000 	streq	r0, [r5], #-0
    788c:	000008dd 	ldrdeq	r0, [r0], -sp
    7890:	08cc0405 	stmiaeq	ip, {r0, r2, sl}^
    7894:	4e0a0000 	cdpmi	0, 0, cr0, cr10, cr0, {0}
    7898:	f3000006 	vhadd.u8	d0, d0, d6
    789c:	0b000008 	bleq	78c4 <_start-0x73c>
    78a0:	0000002c 	andeq	r0, r0, ip, lsr #32
    78a4:	8e1f0002 	cdphi	0, 1, cr0, cr15, cr2, {0}
    78a8:	05000004 	streq	r0, [r0, #-4]
    78ac:	6c17032e 	ldcvs	3, cr0, [r7], {46}	; 0x2e
    78b0:	1f000004 	svcne	0x00000004
    78b4:	00000487 	andeq	r0, r0, r7, lsl #9
    78b8:	1d032f05 	stcne	15, cr2, [r3, #-20]	; 0xffffffec
    78bc:	00000472 	andeq	r0, r0, r2, ror r4
    78c0:	00002515 	andeq	r2, r0, r5, lsl r5
    78c4:	00091c00 	andeq	r1, r9, r0, lsl #24
    78c8:	00251600 	eoreq	r1, r5, r0, lsl #12
    78cc:	20000000 	andcs	r0, r0, r0
    78d0:	000001d1 	ldrdeq	r0, [r0], -r1
    78d4:	280e1d06 	stmdacs	lr, {r1, r2, r8, sl, fp, ip}
    78d8:	05000009 	streq	r0, [r0, #-9]
    78dc:	00090d04 	andeq	r0, r9, r4, lsl #26
    78e0:	00251500 	eoreq	r1, r5, r0, lsl #10
    78e4:	093d0000 	ldmdbeq	sp!, {}	; <UNPREDICTABLE>
    78e8:	e4160000 	ldr	r0, [r6], #-0
    78ec:	00000005 	andeq	r0, r0, r5
    78f0:	00076820 	andeq	r6, r7, r0, lsr #16
    78f4:	0e220600 	cfmadda32eq	mvax0, mvax0, mvfx2, mvfx0
    78f8:	00000949 	andeq	r0, r0, r9, asr #18
    78fc:	092e0405 	stmdbeq	lr!, {r0, r2, sl}
    7900:	13210000 			; <UNDEFINED> instruction: 0x13210000
    7904:	01000008 	tsteq	r0, r8
    7908:	9088060d 	addls	r0, r8, sp, lsl #12
    790c:	002c0000 	eoreq	r0, ip, r0
    7910:	9c010000 	stcls	0, cr0, [r1], {-0}
    7914:	000009b8 			; <UNDEFINED> instruction: 0x000009b8
    7918:	00082320 	andeq	r2, r8, r0, lsr #6
    791c:	100e0100 	andne	r0, lr, r0, lsl #2
    7920:	00000025 	andeq	r0, r0, r5, lsr #32
    7924:	00083120 	andeq	r3, r8, r0, lsr #2
    7928:	1f0e0100 	svcne	0x000e0100
    792c:	00000025 	andeq	r0, r0, r5, lsr #32
    7930:	00003422 	andeq	r3, r0, r2, lsr #8
    7934:	070f0100 	streq	r0, [pc, -r0, lsl #2]
    7938:	73736223 	cmnvc	r3, #805306370	; 0x30000002
    793c:	0a110100 	beq	447d44 <__bss_end__+0x43dd14>
    7940:	000009b8 			; <UNDEFINED> instruction: 0x000009b8
    7944:	00001188 	andeq	r1, r0, r8, lsl #3
    7948:	00001182 	andeq	r1, r0, r2, lsl #3
    794c:	00081b24 	andeq	r1, r8, r4, lsr #22
    7950:	0a120100 	beq	487d58 <__bss_end__+0x47dd28>
    7954:	000009b8 			; <UNDEFINED> instruction: 0x000009b8
    7958:	0090a825 	addseq	sl, r0, r5, lsr #16
    795c:	0009be00 	andeq	fp, r9, r0, lsl #28
    7960:	90ac2500 	adcls	r2, ip, r0, lsl #10
    7964:	09ca0000 	stmibeq	sl, {}^	; <UNPREDICTABLE>
    7968:	05000000 	streq	r0, [r0, #-0]
    796c:	00002504 	andeq	r2, r0, r4, lsl #10
    7970:	00342600 	eorseq	r2, r4, r0, lsl #12
    7974:	00340000 	eorseq	r0, r4, r0
    7978:	d7060000 	strle	r0, [r6, -r0]
    797c:	028d2606 	addeq	r2, sp, #6291456	; 0x600000
    7980:	028d0000 	addeq	r0, sp, #0
    7984:	65060000 	strvs	r0, [r6, #-0]
    7988:	0a9b0006 	beq	fe6c79a8 <__bss_end__+0xfe6bd978>
    798c:	00040000 	andeq	r0, r4, r0
    7990:	000017e3 	andeq	r1, r0, r3, ror #15
    7994:	02ef0104 	rsceq	r0, pc, #4, 2
    7998:	7d0c0000 	stcvc	0, cr0, [ip, #-0]
    799c:	c1000008 	tstgt	r0, r8
    79a0:	68000006 	stmdavs	r0, {r1, r2}
    79a4:	00000000 	andeq	r0, r0, r0
    79a8:	11000000 	mrsne	r0, (UNDEF: 0)
    79ac:	02000016 	andeq	r0, r0, #22
    79b0:	6e690504 	cdpvs	5, 6, cr0, cr9, cr4, {0}
    79b4:	25030074 	strcs	r0, [r3, #-116]	; 0xffffff8c
    79b8:	04000000 	streq	r0, [r0], #-0
    79bc:	00660704 	rsbeq	r0, r6, r4, lsl #14
    79c0:	01040000 	mrseq	r0, (UNDEF: 4)
    79c4:	0002de06 	andeq	sp, r2, r6, lsl #28
    79c8:	05020400 	streq	r0, [r2, #-1024]	; 0xfffffc00
    79cc:	00000377 	andeq	r0, r0, r7, ror r3
    79d0:	ac050404 	cfstrsge	mvf0, [r5], {4}
    79d4:	04000000 	streq	r0, [r0], #-0
    79d8:	00a70508 	adceq	r0, r7, r8, lsl #10
    79dc:	01040000 	mrseq	r0, (UNDEF: 4)
    79e0:	0002dc08 	andeq	sp, r2, r8, lsl #24
    79e4:	07020400 	streq	r0, [r2, -r0, lsl #8]
    79e8:	00000222 	andeq	r0, r0, r2, lsr #4
    79ec:	61070404 	tstvs	r7, r4, lsl #8
    79f0:	04000000 	streq	r0, [r0], #-0
    79f4:	005c0708 	subseq	r0, ip, r8, lsl #14
    79f8:	65050000 	strvs	r0, [r5, #-0]
    79fc:	02000002 	andeq	r0, r0, #2
    7a00:	007c1922 	rsbseq	r1, ip, r2, lsr #18
    7a04:	04060000 	streq	r0, [r6], #-0
    7a08:	00000082 	andeq	r0, r0, r2, lsl #1
    7a0c:	00041d07 	andeq	r1, r4, r7, lsl #26
    7a10:	02bd0500 	adcseq	r0, sp, #0, 10
    7a14:	2c030000 	stccs	0, cr0, [r3], {-0}
    7a18:	0000460e 	andeq	r4, r0, lr, lsl #12
    7a1c:	04320500 	ldrteq	r0, [r2], #-1280	; 0xfffffb00
    7a20:	72030000 	andvc	r0, r3, #0
    7a24:	0000460e 	andeq	r4, r0, lr, lsl #12
    7a28:	026d0800 	rsbeq	r0, sp, #0, 16
    7a2c:	5e040000 	cdppl	0, 0, cr0, cr4, cr0, {0}
    7a30:	00311701 	eorseq	r1, r1, r1, lsl #14
    7a34:	04090000 	streq	r0, [r9], #-0
    7a38:	ce03a603 	cfmadd32gt	mvax0, mvfx10, mvfx3, mvfx3
    7a3c:	0a000000 	beq	7a44 <_start-0x5bc>
    7a40:	0000025f 	andeq	r0, r0, pc, asr r2
    7a44:	9f0ca803 	svcls	0x000ca803
    7a48:	0a000000 	beq	7a50 <_start-0x5b0>
    7a4c:	000001e2 	andeq	r0, r0, r2, ror #3
    7a50:	ce13a903 	vnmlsgt.f16	s20, s6, s6	; <UNPREDICTABLE>
    7a54:	00000000 	andeq	r0, r0, r0
    7a58:	0000540b 	andeq	r5, r0, fp, lsl #8
    7a5c:	0000de00 	andeq	sp, r0, r0, lsl #28
    7a60:	00310c00 	eorseq	r0, r1, r0, lsl #24
    7a64:	00030000 	andeq	r0, r3, r0
    7a68:	a303080d 	movwge	r0, #14349	; 0x380d
    7a6c:	00010209 	andeq	r0, r1, r9, lsl #4
    7a70:	04150e00 	ldreq	r0, [r5], #-3584	; 0xfffff200
    7a74:	a5030000 	strge	r0, [r3, #-0]
    7a78:	00002507 	andeq	r2, r0, r7, lsl #10
    7a7c:	240e0000 	strcs	r0, [lr], #-0
    7a80:	03000004 	movweq	r0, #4
    7a84:	00ac05aa 	adceq	r0, ip, sl, lsr #11
    7a88:	00040000 	andeq	r0, r4, r0
    7a8c:	00039f05 	andeq	r9, r3, r5, lsl #30
    7a90:	03ab0300 			; <UNDEFINED> instruction: 0x03ab0300
    7a94:	000000de 	ldrdeq	r0, [r0], -lr
    7a98:	00019f05 	andeq	r9, r1, r5, lsl #30
    7a9c:	1baf0300 	blne	febc86a4 <__bss_end__+0xfebbe674>
    7aa0:	00000070 	andeq	r0, r0, r0, ror r0
    7aa4:	0406040f 	streq	r0, [r6], #-1039	; 0xfffffbf1
    7aa8:	00000122 	andeq	r0, r0, r2, lsr #2
    7aac:	e5080104 	str	r0, [r8, #-260]	; 0xfffffefc
    7ab0:	03000002 	movweq	r0, #2
    7ab4:	00000122 	andeq	r0, r0, r2, lsr #2
    7ab8:	00046405 	andeq	r6, r4, r5, lsl #8
    7abc:	19160500 	ldmdbne	r6, {r8, sl}
    7ac0:	00000062 	andeq	r0, r0, r2, rrx
    7ac4:	0001b010 	andeq	fp, r1, r0, lsl r0
    7ac8:	2f051800 	svccs	0x00051800
    7acc:	00019408 	andeq	r9, r1, r8, lsl #8
    7ad0:	03c00e00 	biceq	r0, r0, #0, 28
    7ad4:	31050000 	mrscc	r0, (UNDEF: 5)
    7ad8:	00019413 	andeq	r9, r1, r3, lsl r4
    7adc:	5f110000 	svcpl	0x00110000
    7ae0:	3205006b 	andcc	r0, r5, #107	; 0x6b
    7ae4:	00002507 	andeq	r2, r0, r7, lsl #10
    7ae8:	000e0400 	andeq	r0, lr, r0, lsl #8
    7aec:	05000004 	streq	r0, [r0, #-4]
    7af0:	00250b32 	eoreq	r0, r5, r2, lsr fp
    7af4:	0e080000 	cdpeq	0, 0, cr0, cr8, cr0, {0}
    7af8:	00000199 	muleq	r0, r9, r1
    7afc:	25143205 	ldrcs	r3, [r4, #-517]	; 0xfffffdfb
    7b00:	0c000000 	stceq	0, cr0, [r0], {-0}
    7b04:	0004ae0e 	andeq	sl, r4, lr, lsl #28
    7b08:	1b320500 	blne	c88f10 <__bss_end__+0xc7eee0>
    7b0c:	00000025 	andeq	r0, r0, r5, lsr #32
    7b10:	785f1110 	ldmdavc	pc, {r4, r8, ip}^	; <UNPREDICTABLE>
    7b14:	0b330500 	bleq	cc8f1c <__bss_end__+0xcbeeec>
    7b18:	0000019a 	muleq	r0, sl, r1
    7b1c:	04060014 	streq	r0, [r6], #-20	; 0xffffffec
    7b20:	0000013a 	andeq	r0, r0, sl, lsr r1
    7b24:	00012e0b 	andeq	r2, r1, fp, lsl #28
    7b28:	0001aa00 	andeq	sl, r1, r0, lsl #20
    7b2c:	00310c00 	eorseq	r0, r1, r0, lsl #24
    7b30:	00000000 	andeq	r0, r0, r0
    7b34:	0001dd10 	andeq	sp, r1, r0, lsl sp
    7b38:	37052400 	strcc	r2, [r5, -r0, lsl #8]
    7b3c:	00022d08 	andeq	r2, r2, r8, lsl #26
    7b40:	009e0e00 	addseq	r0, lr, r0, lsl #28
    7b44:	39050000 	stmdbcc	r5, {}	; <UNPREDICTABLE>
    7b48:	00002509 	andeq	r2, r0, r9, lsl #10
    7b4c:	3a0e0000 	bcc	387b54 <__bss_end__+0x37db24>
    7b50:	05000004 	streq	r0, [r0, #-4]
    7b54:	0025093a 	eoreq	r0, r5, sl, lsr r9
    7b58:	0e040000 	cdpeq	0, 0, cr0, cr4, cr0, {0}
    7b5c:	000000c1 	andeq	r0, r0, r1, asr #1
    7b60:	25093b05 	strcs	r3, [r9, #-2821]	; 0xfffff4fb
    7b64:	08000000 	stmdaeq	r0, {}	; <UNPREDICTABLE>
    7b68:	00052f0e 	andeq	r2, r5, lr, lsl #30
    7b6c:	093c0500 	ldmdbeq	ip!, {r8, sl}
    7b70:	00000025 	andeq	r0, r0, r5, lsr #32
    7b74:	02a10e0c 	adceq	r0, r1, #12, 28	; 0xc0
    7b78:	3d050000 	stccc	0, cr0, [r5, #-0]
    7b7c:	00002509 	andeq	r2, r0, r9, lsl #10
    7b80:	830e1000 	movwhi	r1, #57344	; 0xe000
    7b84:	05000002 	streq	r0, [r0, #-2]
    7b88:	0025093e 	eoreq	r0, r5, lr, lsr r9
    7b8c:	0e140000 	cdpeq	0, 1, cr0, cr4, cr0, {0}
    7b90:	000004b3 			; <UNDEFINED> instruction: 0x000004b3
    7b94:	25093f05 	strcs	r3, [r9, #-3845]	; 0xfffff0fb
    7b98:	18000000 	stmdane	r0, {}	; <UNPREDICTABLE>
    7b9c:	0003810e 	andeq	r8, r3, lr, lsl #2
    7ba0:	09400500 	stmdbeq	r0, {r8, sl}^
    7ba4:	00000025 	andeq	r0, r0, r5, lsr #32
    7ba8:	04f60e1c 	ldrbteq	r0, [r6], #3612	; 0xe1c
    7bac:	41050000 	mrsmi	r0, (UNDEF: 5)
    7bb0:	00002509 	andeq	r2, r0, r9, lsl #10
    7bb4:	12002000 	andne	r2, r0, #0
    7bb8:	00000101 	andeq	r0, r0, r1, lsl #2
    7bbc:	4a050108 	bmi	147fe4 <__bss_end__+0x13dfb4>
    7bc0:	00027208 	andeq	r7, r2, r8, lsl #4
    7bc4:	018c0e00 	orreq	r0, ip, r0, lsl #28
    7bc8:	4b050000 	blmi	147bd0 <__bss_end__+0x13dba0>
    7bcc:	0002720a 	andeq	r7, r2, sl, lsl #4
    7bd0:	000e0000 	andeq	r0, lr, r0
    7bd4:	05000000 	streq	r0, [r0, #-0]
    7bd8:	0272094c 	rsbseq	r0, r2, #76, 18	; 0x130000
    7bdc:	13800000 	orrne	r0, r0, #0
    7be0:	00000456 	andeq	r0, r0, r6, asr r4
    7be4:	2e0a4e05 	cdpcs	14, 0, cr4, cr10, cr5, {0}
    7be8:	00000001 	andeq	r0, r0, r1
    7bec:	01261301 			; <UNDEFINED> instruction: 0x01261301
    7bf0:	51050000 	mrspl	r0, (UNDEF: 5)
    7bf4:	00012e0a 	andeq	r2, r1, sl, lsl #28
    7bf8:	00010400 	andeq	r0, r1, r0, lsl #8
    7bfc:	00011a0b 	andeq	r1, r1, fp, lsl #20
    7c00:	00028200 	andeq	r8, r2, r0, lsl #4
    7c04:	00310c00 	eorseq	r0, r1, r0, lsl #24
    7c08:	001f0000 	andseq	r0, pc, r0
    7c0c:	0002aa12 	andeq	sl, r2, r2, lsl sl
    7c10:	05019000 	streq	r9, [r1, #-0]
    7c14:	02c5085d 	sbceq	r0, r5, #6094848	; 0x5d0000
    7c18:	c00e0000 	andgt	r0, lr, r0
    7c1c:	05000003 	streq	r0, [r0, #-3]
    7c20:	02c5125e 	sbceq	r1, r5, #-536870907	; 0xe0000005
    7c24:	0e000000 	cdpeq	0, 0, cr0, cr0, cr0, {0}
    7c28:	000003d8 	ldrdeq	r0, [r0], -r8
    7c2c:	25065f05 	strcs	r5, [r6, #-3845]	; 0xfffff0fb
    7c30:	04000000 	streq	r0, [r0], #-0
    7c34:	0001940e 	andeq	r9, r1, lr, lsl #8
    7c38:	09610500 	stmdbeq	r1!, {r8, sl}^
    7c3c:	000002cb 	andeq	r0, r0, fp, asr #5
    7c40:	01010e08 	tsteq	r1, r8, lsl #28
    7c44:	62050000 	andvs	r0, r5, #0
    7c48:	00022d1e 	andeq	r2, r2, lr, lsl sp
    7c4c:	06008800 	streq	r8, [r0], -r0, lsl #16
    7c50:	00028204 	andeq	r8, r2, r4, lsl #4
    7c54:	02db0b00 	sbcseq	r0, fp, #0, 22
    7c58:	02db0000 	sbcseq	r0, fp, #0
    7c5c:	310c0000 	mrscc	r0, (UNDEF: 12)
    7c60:	1f000000 	svcne	0x00000000
    7c64:	e1040600 	tst	r4, r0, lsl #12
    7c68:	14000002 	strne	r0, [r0], #-2
    7c6c:	00038b10 	andeq	r8, r3, r0, lsl fp
    7c70:	75050800 	strvc	r0, [r5, #-2048]	; 0xfffff800
    7c74:	00030a08 	andeq	r0, r3, r8, lsl #20
    7c78:	00bb0e00 	adcseq	r0, fp, r0, lsl #28
    7c7c:	76050000 	strvc	r0, [r5], -r0
    7c80:	00030a11 	andeq	r0, r3, r1, lsl sl
    7c84:	1b0e0000 	blne	387c8c <__bss_end__+0x37dc5c>
    7c88:	05000000 	streq	r0, [r0, #-0]
    7c8c:	00250677 	eoreq	r0, r5, r7, ror r6
    7c90:	00040000 	andeq	r0, r4, r0
    7c94:	00540406 	subseq	r0, r4, r6, lsl #8
    7c98:	aa100000 	bge	407ca0 <__bss_end__+0x3fdc70>
    7c9c:	68000003 	stmdavs	r0, {r0, r1}
    7ca0:	5308b505 	movwpl	fp, #34053	; 0x8505
    7ca4:	11000004 	tstne	r0, r4
    7ca8:	0500705f 	streq	r7, [r0, #-95]	; 0xffffffa1
    7cac:	030a12b6 	movweq	r1, #41654	; 0xa2b6
    7cb0:	11000000 	mrsne	r0, (UNDEF: 0)
    7cb4:	0500725f 	streq	r7, [r0, #-607]	; 0xfffffda1
    7cb8:	002507b7 	strhteq	r0, [r5], -r7
    7cbc:	11040000 	mrsne	r0, (UNDEF: 4)
    7cc0:	0500775f 	streq	r7, [r0, #-1887]	; 0xfffff8a1
    7cc4:	002507b8 	strhteq	r0, [r5], -r8
    7cc8:	0e080000 	cdpeq	0, 0, cr0, cr8, cr0, {0}
    7ccc:	0000011f 	andeq	r0, r0, pc, lsl r1
    7cd0:	3f09b905 	svccc	0x0009b905
    7cd4:	0c000000 	stceq	0, cr0, [r0], {-0}
    7cd8:	0002080e 	andeq	r0, r2, lr, lsl #16
    7cdc:	09ba0500 	ldmibeq	sl!, {r8, sl}
    7ce0:	0000003f 	andeq	r0, r0, pc, lsr r0
    7ce4:	625f110e 	subsvs	r1, pc, #-2147483645	; 0x80000003
    7ce8:	bb050066 	bllt	147e88 <__bss_end__+0x13de58>
    7cec:	0002e211 	andeq	lr, r2, r1, lsl r2
    7cf0:	7b0e1000 	blvc	38bcf8 <__bss_end__+0x381cc8>
    7cf4:	05000000 	streq	r0, [r0, #-0]
    7cf8:	002507bc 	strhteq	r0, [r5], -ip
    7cfc:	0e180000 	cdpeq	0, 1, cr0, cr8, cr0, {0}
    7d00:	0000010f 	andeq	r0, r0, pc, lsl #2
    7d04:	1a0ac305 	bne	2b8920 <__bss_end__+0x2ae8f0>
    7d08:	1c000001 	stcne	0, cr0, [r0], {1}
    7d0c:	000b240e 	andeq	r2, fp, lr, lsl #8
    7d10:	1dc50500 	cfstr64ne	mvdx0, [r5]
    7d14:	000005c5 	andeq	r0, r0, r5, asr #11
    7d18:	06190e20 	ldreq	r0, [r9], -r0, lsr #28
    7d1c:	c7050000 	strgt	r0, [r5, -r0]
    7d20:	0005ef1d 	andeq	lr, r5, sp, lsl pc
    7d24:	2c0e2400 	cfstrscs	mvf2, [lr], {-0}
    7d28:	05000004 	streq	r0, [r0, #-4]
    7d2c:	06130dca 	ldreq	r0, [r3], -sl, asr #27
    7d30:	0e280000 	cdpeq	0, 2, cr0, cr8, cr0, {0}
    7d34:	00000510 	andeq	r0, r0, r0, lsl r5
    7d38:	2d09cb05 	vstrcs	d12, [r9, #-20]	; 0xffffffec
    7d3c:	2c000006 	stccs	0, cr0, [r0], {6}
    7d40:	62755f11 	rsbsvs	r5, r5, #17, 30	; 0x44
    7d44:	11ce0500 	bicne	r0, lr, r0, lsl #10
    7d48:	000002e2 	andeq	r0, r0, r2, ror #5
    7d4c:	755f1130 	ldrbvc	r1, [pc, #-304]	; 7c24 <_start-0x3dc>
    7d50:	cf050070 	svcgt	0x00050070
    7d54:	00030a12 	andeq	r0, r3, r2, lsl sl
    7d58:	5f113800 	svcpl	0x00113800
    7d5c:	05007275 	streq	r7, [r0, #-629]	; 0xfffffd8b
    7d60:	002507d0 	ldrdeq	r0, [r5], -r0	; <UNPREDICTABLE>
    7d64:	0e3c0000 	cdpeq	0, 3, cr0, cr12, cr0, {0}
    7d68:	000000b5 	strheq	r0, [r0], -r5
    7d6c:	3311d305 	tstcc	r1, #335544320	; 0x14000000
    7d70:	40000006 	andmi	r0, r0, r6
    7d74:	0004e80e 	andeq	lr, r4, lr, lsl #16
    7d78:	11d40500 	bicsne	r0, r4, r0, lsl #10
    7d7c:	00000643 	andeq	r0, r0, r3, asr #12
    7d80:	6c5f1143 	ldfvse	f1, [pc], {67}	; 0x43
    7d84:	d7050062 	strle	r0, [r5, -r2, rrx]
    7d88:	0002e211 	andeq	lr, r2, r1, lsl r2
    7d8c:	3d0e4400 	cfstrscc	mvf4, [lr, #-0]
    7d90:	05000001 	streq	r0, [r0, #-1]
    7d94:	002507da 	ldrdeq	r0, [r5], -sl	; <UNPREDICTABLE>
    7d98:	0e4c0000 	cdpeq	0, 4, cr0, cr12, cr0, {0}
    7d9c:	0000014e 	andeq	r0, r0, lr, asr #2
    7da0:	870adb05 	strhi	sp, [sl, -r5, lsl #22]
    7da4:	50000000 	andpl	r0, r0, r0
    7da8:	000ac50e 	andeq	ip, sl, lr, lsl #10
    7dac:	12de0500 	sbcsne	r0, lr, #0, 10
    7db0:	00000471 	andeq	r0, r0, r1, ror r4
    7db4:	041e0e54 	ldreq	r0, [lr], #-3668	; 0xfffff1ac
    7db8:	e2050000 	and	r0, r5, #0
    7dbc:	00010e0c 	andeq	r0, r1, ip, lsl #28
    7dc0:	b20e5800 	andlt	r5, lr, #0, 16
    7dc4:	05000003 	streq	r0, [r0, #-3]
    7dc8:	01020ee4 	smlatteq	r2, r4, lr, r0
    7dcc:	0e5c0000 	cdpeq	0, 5, cr0, cr12, cr0, {0}
    7dd0:	0000027b 	andeq	r0, r0, fp, ror r2
    7dd4:	2509e505 	strcs	lr, [r9, #-1285]	; 0xfffffafb
    7dd8:	64000000 	strvs	r0, [r0], #-0
    7ddc:	00251500 	eoreq	r1, r5, r0, lsl #10
    7de0:	04710000 	ldrbteq	r0, [r1], #-0
    7de4:	71160000 	tstvc	r6, r0
    7de8:	16000004 	strne	r0, [r0], -r4
    7dec:	0000011a 	andeq	r0, r0, sl, lsl r1
    7df0:	00011c16 	andeq	r1, r1, r6, lsl ip
    7df4:	00251600 	eoreq	r1, r5, r0, lsl #12
    7df8:	06000000 	streq	r0, [r0], -r0
    7dfc:	00047c04 	andeq	r7, r4, r4, lsl #24
    7e00:	04710300 	ldrbteq	r0, [r1], #-768	; 0xfffffd00
    7e04:	08170000 	ldmdaeq	r7, {}	; <UNPREDICTABLE>
    7e08:	28000004 	stmdacs	r0, {r2}
    7e0c:	02600504 	rsbeq	r0, r0, #4, 10	; 0x1000000
    7e10:	0005c508 	andeq	ip, r5, r8, lsl #10
    7e14:	03701800 	cmneq	r0, #0, 16
    7e18:	62050000 	andvs	r0, r5, #0
    7e1c:	00250702 	eoreq	r0, r5, r2, lsl #14
    7e20:	18000000 	stmdane	r0, {}	; <UNPREDICTABLE>
    7e24:	0000012e 	andeq	r0, r0, lr, lsr #2
    7e28:	0b026705 	bleq	a1a44 <__bss_end__+0x97a14>
    7e2c:	0000069f 	muleq	r0, pc, r6	; <UNPREDICTABLE>
    7e30:	01f81804 	mvnseq	r1, r4, lsl #16
    7e34:	67050000 	strvs	r0, [r5, -r0]
    7e38:	069f1402 	ldreq	r1, [pc], r2, lsl #8
    7e3c:	18080000 	stmdane	r8, {}	; <UNPREDICTABLE>
    7e40:	000001a8 	andeq	r0, r0, r8, lsr #3
    7e44:	1e026705 	cdpne	7, 0, cr6, cr2, cr5, {0}
    7e48:	0000069f 	muleq	r0, pc, r6	; <UNPREDICTABLE>
    7e4c:	03d3180c 	bicseq	r1, r3, #12, 16	; 0xc0000
    7e50:	69050000 	stmdbvs	r5, {}	; <UNPREDICTABLE>
    7e54:	00250802 	eoreq	r0, r5, r2, lsl #16
    7e58:	18100000 	ldmdane	r0, {}	; <UNPREDICTABLE>
    7e5c:	00000029 	andeq	r0, r0, r9, lsr #32
    7e60:	08026a05 	stmdaeq	r2, {r0, r2, r9, fp, sp, lr}
    7e64:	0000089f 	muleq	r0, pc, r8	; <UNPREDICTABLE>
    7e68:	03e71814 	mvneq	r1, #20, 16	; 0x140000
    7e6c:	6d050000 	stcvs	0, cr0, [r5, #-0]
    7e70:	00250702 	eoreq	r0, r5, r2, lsl #14
    7e74:	18300000 	ldmdane	r0!, {}	; <UNPREDICTABLE>
    7e78:	00000a01 	andeq	r0, r0, r1, lsl #20
    7e7c:	16026e05 	strne	r6, [r2], -r5, lsl #28
    7e80:	000008b4 			; <UNDEFINED> instruction: 0x000008b4
    7e84:	02b21834 	adcseq	r1, r2, #52, 16	; 0x340000
    7e88:	70050000 	andvc	r0, r5, r0
    7e8c:	00250702 	eoreq	r0, r5, r2, lsl #14
    7e90:	18380000 	ldmdane	r8!, {}	; <UNPREDICTABLE>
    7e94:	000003dd 	ldrdeq	r0, [r0], -sp
    7e98:	0a027205 	beq	a46b4 <__bss_end__+0x9a684>
    7e9c:	000008c5 	andeq	r0, r0, r5, asr #17
    7ea0:	0257183c 	subseq	r1, r7, #60, 16	; 0x3c0000
    7ea4:	75050000 	strvc	r0, [r5, #-0]
    7ea8:	01941302 	orrseq	r1, r4, r2, lsl #6
    7eac:	18400000 	stmdane	r0, {}^	; <UNPREDICTABLE>
    7eb0:	000001c7 	andeq	r0, r0, r7, asr #3
    7eb4:	07027605 	streq	r7, [r2, -r5, lsl #12]
    7eb8:	00000025 	andeq	r0, r0, r5, lsr #32
    7ebc:	052a1844 	streq	r1, [sl, #-2116]!	; 0xfffff7bc
    7ec0:	77050000 	strvc	r0, [r5, -r0]
    7ec4:	01941302 	orrseq	r1, r4, r2, lsl #6
    7ec8:	18480000 	stmdane	r8, {}^	; <UNPREDICTABLE>
    7ecc:	000002c4 	andeq	r0, r0, r4, asr #5
    7ed0:	14027805 	strne	r7, [r2], #-2053	; 0xfffff7fb
    7ed4:	000008cb 	andeq	r0, r0, fp, asr #17
    7ed8:	0200184c 	andeq	r1, r0, #76, 16	; 0x4c0000
    7edc:	7b050000 	blvc	147ee4 <__bss_end__+0x13deb4>
    7ee0:	00250702 	eoreq	r0, r5, r2, lsl #14
    7ee4:	18500000 	ldmdane	r0, {}^	; <UNPREDICTABLE>
    7ee8:	00000146 	andeq	r0, r0, r6, asr #2
    7eec:	09027c05 	stmdbeq	r2, {r0, r2, sl, fp, ip, sp, lr}
    7ef0:	0000011c 	andeq	r0, r0, ip, lsl r1
    7ef4:	02ea1854 	rsceq	r1, sl, #84, 16	; 0x540000
    7ef8:	9f050000 	svcls	0x00050000
    7efc:	087a0702 	ldmdaeq	sl!, {r1, r8, r9, sl}^
    7f00:	19580000 	ldmdbne	r8, {}^	; <UNPREDICTABLE>
    7f04:	000002aa 	andeq	r0, r0, sl, lsr #5
    7f08:	1302a305 	movwne	sl, #8965	; 0x2305
    7f0c:	000002c5 	andeq	r0, r0, r5, asr #5
    7f10:	35190148 	ldrcc	r0, [r9, #-328]	; 0xfffffeb8
    7f14:	05000002 	streq	r0, [r0, #-2]
    7f18:	821202a4 	andshi	r0, r2, #164, 4	; 0x4000000a
    7f1c:	4c000002 	stcmi	0, cr0, [r0], {2}
    7f20:	04d61901 	ldrbeq	r1, [r6], #2305	; 0x901
    7f24:	a8050000 	stmdage	r5, {}	; <UNPREDICTABLE>
    7f28:	08dc0c02 	ldmeq	ip, {r1, sl, fp}^
    7f2c:	02dc0000 	sbcseq	r0, ip, #0
    7f30:	00011719 	andeq	r1, r1, r9, lsl r7
    7f34:	02ad0500 	adceq	r0, sp, #0, 10
    7f38:	00066010 	andeq	r6, r6, r0, lsl r0
    7f3c:	1902e000 	stmdbne	r2, {sp, lr, pc}
    7f40:	000000fc 	strdeq	r0, [r0], -ip
    7f44:	0a02af05 	beq	b3b60 <__bss_end__+0xa9b30>
    7f48:	000008e8 	andeq	r0, r0, r8, ror #17
    7f4c:	060002ec 	streq	r0, [r0], -ip, ror #5
    7f50:	00045304 	andeq	r5, r4, r4, lsl #6
    7f54:	00251500 	eoreq	r1, r5, r0, lsl #10
    7f58:	05e90000 	strbeq	r0, [r9, #0]!
    7f5c:	71160000 	tstvc	r6, r0
    7f60:	16000004 	strne	r0, [r0], -r4
    7f64:	0000011a 	andeq	r0, r0, sl, lsl r1
    7f68:	0005e916 	andeq	lr, r5, r6, lsl r9
    7f6c:	00251600 	eoreq	r1, r5, r0, lsl #12
    7f70:	06000000 	streq	r0, [r0], -r0
    7f74:	00012904 	andeq	r2, r1, r4, lsl #18
    7f78:	cb040600 	blgt	109780 <__bss_end__+0xff750>
    7f7c:	15000005 	strne	r0, [r0, #-5]
    7f80:	00000093 	muleq	r0, r3, r0
    7f84:	00000613 	andeq	r0, r0, r3, lsl r6
    7f88:	00047116 	andeq	r7, r4, r6, lsl r1
    7f8c:	011a1600 	tsteq	sl, r0, lsl #12
    7f90:	93160000 	tstls	r6, #0
    7f94:	16000000 	strne	r0, [r0], -r0
    7f98:	00000025 	andeq	r0, r0, r5, lsr #32
    7f9c:	f5040600 			; <UNDEFINED> instruction: 0xf5040600
    7fa0:	15000005 	strne	r0, [r0, #-5]
    7fa4:	00000025 	andeq	r0, r0, r5, lsr #32
    7fa8:	0000062d 	andeq	r0, r0, sp, lsr #12
    7fac:	00047116 	andeq	r7, r4, r6, lsl r1
    7fb0:	011a1600 	tsteq	sl, r0, lsl #12
    7fb4:	06000000 	streq	r0, [r0], -r0
    7fb8:	00061904 	andeq	r1, r6, r4, lsl #18
    7fbc:	00540b00 	subseq	r0, r4, r0, lsl #22
    7fc0:	06430000 	strbeq	r0, [r3], -r0
    7fc4:	310c0000 	mrscc	r0, (UNDEF: 12)
    7fc8:	02000000 	andeq	r0, r0, #0
    7fcc:	00540b00 	subseq	r0, r4, r0, lsl #22
    7fd0:	06530000 	ldrbeq	r0, [r3], -r0
    7fd4:	310c0000 	mrscc	r0, (UNDEF: 12)
    7fd8:	00000000 	andeq	r0, r0, r0
    7fdc:	03980800 	orrseq	r0, r8, #0, 16
    7fe0:	1f050000 	svcne	0x00050000
    7fe4:	03101a01 	tsteq	r0, #4096	; 0x1000
    7fe8:	bd1a0000 	ldclt	0, cr0, [sl, #-0]
    7fec:	0c000004 	stceq	0, cr0, [r0], {4}
    7ff0:	08012305 	stmdaeq	r1, {r0, r2, r8, r9, sp}
    7ff4:	00000699 	muleq	r0, r9, r6
    7ff8:	0003c018 	andeq	ip, r3, r8, lsl r0
    7ffc:	01250500 			; <UNDEFINED> instruction: 0x01250500
    8000:	00069911 	andeq	r9, r6, r1, lsl r9
    8004:	1b180000 	blne	60800c <__bss_end__+0x5fdfdc>
    8008:	05000002 	streq	r0, [r0, #-2]
    800c:	25070126 	strcs	r0, [r7, #-294]	; 0xfffffeda
    8010:	04000000 	streq	r0, [r0], #-0
    8014:	00039218 	andeq	r9, r3, r8, lsl r2
    8018:	01270500 			; <UNDEFINED> instruction: 0x01270500
    801c:	00069f0b 	andeq	r9, r6, fp, lsl #30
    8020:	06000800 	streq	r0, [r0], -r0, lsl #16
    8024:	00066004 	andeq	r6, r6, r4
    8028:	53040600 	movwpl	r0, #17920	; 0x4600
    802c:	1a000006 	bne	804c <notmain+0x3c>
    8030:	00000021 	andeq	r0, r0, r1, lsr #32
    8034:	013f050e 	teqeq	pc, lr, lsl #10
    8038:	0006de08 	andeq	sp, r6, r8, lsl #28
    803c:	040f1800 	streq	r1, [pc], #-2048	; 8044 <notmain+0x34>
    8040:	40050000 	andmi	r0, r5, r0
    8044:	06de1201 	ldrbeq	r1, [lr], r1, lsl #4
    8048:	18000000 	stmdane	r0, {}	; <UNPREDICTABLE>
    804c:	00000443 	andeq	r0, r0, r3, asr #8
    8050:	12014105 	andne	r4, r1, #1073741825	; 0x40000001
    8054:	000006de 	ldrdeq	r0, [r0], -lr
    8058:	045f1806 	ldrbeq	r1, [pc], #-2054	; 8060 <notmain+0x50>
    805c:	42050000 	andmi	r0, r5, #0
    8060:	005b1201 	subseq	r1, fp, r1, lsl #4
    8064:	000c0000 	andeq	r0, ip, r0
    8068:	00005b0b 	andeq	r5, r0, fp, lsl #22
    806c:	0006ee00 	andeq	lr, r6, r0, lsl #28
    8070:	00310c00 	eorseq	r0, r1, r0, lsl #24
    8074:	00020000 	andeq	r0, r2, r0
    8078:	8005d01b 	andhi	sp, r5, fp, lsl r0
    807c:	08030702 	stmdaeq	r3, {r1, r8, r9, sl}
    8080:	a1180000 	tstge	r8, r0
    8084:	05000004 	streq	r0, [r0, #-4]
    8088:	31180282 	tstcc	r8, r2, lsl #5
    808c:	00000000 	andeq	r0, r0, r0
    8090:	00044918 	andeq	r4, r4, r8, lsl r9
    8094:	02830500 	addeq	r0, r3, #0, 10
    8098:	00011c12 	andeq	r1, r1, r2, lsl ip
    809c:	4a180400 	bmi	6090a4 <__bss_end__+0x5ff074>
    80a0:	05000002 	streq	r0, [r0, #-2]
    80a4:	03100284 	tsteq	r0, #132, 4	; 0x40000008
    80a8:	08000008 	stmdaeq	r0, {r3}
    80ac:	00050118 	andeq	r0, r5, r8, lsl r1
    80b0:	02850500 	addeq	r0, r5, #0, 10
    80b4:	0001aa17 	andeq	sl, r1, r7, lsl sl
    80b8:	b8182400 	ldmdalt	r8, {sl, sp}
    80bc:	05000001 	streq	r0, [r0, #-1]
    80c0:	250f0286 	strcs	r0, [pc, #-646]	; 7e42 <_start-0x1be>
    80c4:	48000000 	stmdami	r0, {}	; <UNPREDICTABLE>
    80c8:	0003bb18 	andeq	fp, r3, r8, lsl fp
    80cc:	02870500 	addeq	r0, r7, #0, 10
    80d0:	0000692c 	andeq	r6, r0, ip, lsr #18
    80d4:	17185000 	ldrne	r5, [r8, -r0]
    80d8:	05000005 	streq	r0, [r0, #-5]
    80dc:	a51a0288 	ldrge	r0, [sl, #-648]	; 0xfffffd78
    80e0:	58000006 	stmdapl	r0, {r1, r2}
    80e4:	0003c618 	andeq	ip, r3, r8, lsl r6
    80e8:	02890500 	addeq	r0, r9, #0, 10
    80ec:	00010216 	andeq	r0, r1, r6, lsl r2
    80f0:	1c186800 	ldcne	8, cr6, [r8], {-0}
    80f4:	05000005 	streq	r0, [r0, #-5]
    80f8:	0216028a 	andseq	r0, r6, #-1610612728	; 0xa0000008
    80fc:	70000001 	andvc	r0, r0, r1
    8100:	0002ce18 	andeq	ip, r2, r8, lsl lr
    8104:	028b0500 	addeq	r0, fp, #0, 10
    8108:	00010216 	andeq	r0, r1, r6, lsl r2
    810c:	cc187800 	ldcgt	8, cr7, [r8], {-0}
    8110:	05000004 	streq	r0, [r0, #-4]
    8114:	1310028c 	tstne	r0, #140, 4	; 0xc0000008
    8118:	80000008 	andhi	r0, r0, r8
    811c:	00023e18 	andeq	r3, r2, r8, lsl lr
    8120:	028d0500 	addeq	r0, sp, #0, 10
    8124:	00082310 	andeq	r2, r8, r0, lsl r3
    8128:	6c188800 	ldcvs	8, cr8, [r8], {-0}
    812c:	05000004 	streq	r0, [r0, #-4]
    8130:	250f028e 	strcs	r0, [pc, #-654]	; 7eaa <_start-0x156>
    8134:	a0000000 	andge	r0, r0, r0
    8138:	00017e18 	andeq	r7, r1, r8, lsl lr
    813c:	028f0500 	addeq	r0, pc, #0, 10
    8140:	00010216 	andeq	r0, r1, r6, lsl r2
    8144:	8f18a400 	svchi	0x0018a400
    8148:	05000000 	streq	r0, [r0, #-0]
    814c:	02160290 	andseq	r0, r6, #144, 4
    8150:	ac000001 	stcge	0, cr0, [r0], {1}
    8154:	00016d18 	andeq	r6, r1, r8, lsl sp
    8158:	02910500 	addseq	r0, r1, #0, 10
    815c:	00010216 	andeq	r0, r1, r6, lsl r2
    8160:	3c18b400 	cfldrscc	mvf11, [r8], {-0}
    8164:	05000000 	streq	r0, [r0, #-0]
    8168:	02160292 	andseq	r0, r6, #536870921	; 0x20000009
    816c:	bc000001 	stclt	0, cr0, [r0], {1}
    8170:	00004b18 	andeq	r4, r0, r8, lsl fp
    8174:	02930500 	addseq	r0, r3, #0, 10
    8178:	00010216 	andeq	r0, r1, r6, lsl r2
    817c:	6e18c400 	cfmulsvs	mvf12, mvf8, mvf0
    8180:	05000003 	streq	r0, [r0, #-3]
    8184:	25080294 	strcs	r0, [r8, #-660]	; 0xfffffd6c
    8188:	cc000000 	stcgt	0, cr0, [r0], {-0}
    818c:	01220b00 			; <UNDEFINED> instruction: 0x01220b00
    8190:	08130000 	ldmdaeq	r3, {}	; <UNPREDICTABLE>
    8194:	310c0000 	mrscc	r0, (UNDEF: 12)
    8198:	19000000 	stmdbne	r0, {}	; <UNPREDICTABLE>
    819c:	01220b00 			; <UNDEFINED> instruction: 0x01220b00
    81a0:	08230000 	stmdaeq	r3!, {}	; <UNPREDICTABLE>
    81a4:	310c0000 	mrscc	r0, (UNDEF: 12)
    81a8:	07000000 	streq	r0, [r0, -r0]
    81ac:	01220b00 			; <UNDEFINED> instruction: 0x01220b00
    81b0:	08330000 	ldmdaeq	r3!, {}	; <UNPREDICTABLE>
    81b4:	310c0000 	mrscc	r0, (UNDEF: 12)
    81b8:	17000000 	strne	r0, [r0, -r0]
    81bc:	05f01b00 	ldrbeq	r1, [r0, #2816]!	; 0xb00
    81c0:	5a070299 	bpl	1c8c2c <__bss_end__+0x1bebfc>
    81c4:	18000008 	stmdane	r0, {r3}
    81c8:	0000029a 	muleq	r0, sl, r2
    81cc:	1b029c05 	blne	af1e8 <__bss_end__+0xa51b8>
    81d0:	0000085a 	andeq	r0, r0, sl, asr r8
    81d4:	04c31800 	strbeq	r1, [r3], #2048	; 0x800
    81d8:	9d050000 	stcls	0, cr0, [r5, #-0]
    81dc:	086a1802 	stmdaeq	sl!, {r1, fp, ip}^
    81e0:	00780000 	rsbseq	r0, r8, r0
    81e4:	00030a0b 	andeq	r0, r3, fp, lsl #20
    81e8:	00086a00 	andeq	r6, r8, r0, lsl #20
    81ec:	00310c00 	eorseq	r0, r1, r0, lsl #24
    81f0:	001d0000 	andseq	r0, sp, r0
    81f4:	0000310b 	andeq	r3, r0, fp, lsl #2
    81f8:	00087a00 	andeq	r7, r8, r0, lsl #20
    81fc:	00310c00 	eorseq	r0, r1, r0, lsl #24
    8200:	001d0000 	andseq	r0, sp, r0
    8204:	7e05f01c 	mcrvc	0, 0, pc, cr5, cr12, {0}	; <UNPREDICTABLE>
    8208:	089f0302 	ldmeq	pc, {r1, r8, r9}	; <UNPREDICTABLE>
    820c:	081d0000 	ldmdaeq	sp, {}	; <UNPREDICTABLE>
    8210:	05000004 	streq	r0, [r0, #-4]
    8214:	ee0b0295 	mcr	2, 0, r0, cr11, cr5, {4}
    8218:	1d000006 	stcne	0, cr0, [r0, #-24]	; 0xffffffe8
    821c:	000004ee 	andeq	r0, r0, lr, ror #9
    8220:	0b029e05 	bleq	afa3c <__bss_end__+0xa5a0c>
    8224:	00000833 	andeq	r0, r0, r3, lsr r8
    8228:	01220b00 			; <UNDEFINED> instruction: 0x01220b00
    822c:	08af0000 	stmiaeq	pc!, {}	; <UNPREDICTABLE>
    8230:	310c0000 	mrscc	r0, (UNDEF: 12)
    8234:	18000000 	stmdane	r0, {}	; <UNPREDICTABLE>
    8238:	00840700 	addeq	r0, r4, r0, lsl #14
    823c:	04060000 	streq	r0, [r6], #-0
    8240:	000008af 	andeq	r0, r0, pc, lsr #17
    8244:	0008c51e 	andeq	ip, r8, lr, lsl r5
    8248:	04711600 	ldrbteq	r1, [r1], #-1536	; 0xfffffa00
    824c:	06000000 	streq	r0, [r0], -r0
    8250:	0008ba04 	andeq	fp, r8, r4, lsl #20
    8254:	94040600 	strls	r0, [r4], #-1536	; 0xfffffa00
    8258:	1e000001 	cdpne	0, 0, cr0, cr0, cr1, {0}
    825c:	000008dc 	ldrdeq	r0, [r0], -ip
    8260:	00002516 	andeq	r2, r0, r6, lsl r5
    8264:	04060000 	streq	r0, [r6], #-0
    8268:	000008e2 	andeq	r0, r0, r2, ror #17
    826c:	08d10406 	ldmeq	r1, {r1, r2, sl}^
    8270:	530b0000 	movwpl	r0, #45056	; 0xb000
    8274:	f8000006 			; <UNDEFINED> instruction: 0xf8000006
    8278:	0c000008 	stceq	0, cr0, [r0], {8}
    827c:	00000031 	andeq	r0, r0, r1, lsr r0
    8280:	8e1f0002 	cdphi	0, 1, cr0, cr15, cr2, {0}
    8284:	05000004 	streq	r0, [r0, #-4]
    8288:	7117032e 	tstvc	r7, lr, lsr #6
    828c:	1f000004 	svcne	0x00000004
    8290:	00000487 	andeq	r0, r0, r7, lsl #9
    8294:	1d032f05 	stcne	15, cr2, [r3, #-20]	; 0xffffffec
    8298:	00000477 	andeq	r0, r0, r7, ror r4
    829c:	00002515 	andeq	r2, r0, r5, lsl r5
    82a0:	00092100 	andeq	r2, r9, r0, lsl #2
    82a4:	00251600 	eoreq	r1, r5, r0, lsl #12
    82a8:	20000000 	andcs	r0, r0, r0
    82ac:	000001d1 	ldrdeq	r0, [r0], -r1
    82b0:	2d0e1d06 	stccs	13, cr1, [lr, #-24]	; 0xffffffe8
    82b4:	06000009 	streq	r0, [r0], -r9
    82b8:	00091204 	andeq	r1, r9, r4, lsl #4
    82bc:	00251500 	eoreq	r1, r5, r0, lsl #10
    82c0:	09420000 	stmdbeq	r2, {}^	; <UNPREDICTABLE>
    82c4:	e9160000 	ldmdb	r6, {}	; <UNPREDICTABLE>
    82c8:	00000005 	andeq	r0, r0, r5
    82cc:	00076820 	andeq	r6, r7, r0, lsr #16
    82d0:	0e220600 	cfmadda32eq	mvax0, mvax0, mvfx2, mvfx0
    82d4:	0000094e 	andeq	r0, r0, lr, asr #18
    82d8:	09330406 	ldmdbeq	r3!, {r1, r2, sl}
    82dc:	a2210000 	eorge	r0, r1, #0
    82e0:	01000008 	tsteq	r0, r8
    82e4:	0031110d 	eorseq	r1, r1, sp, lsl #2
    82e8:	f5220000 			; <UNDEFINED> instruction: 0xf5220000
    82ec:	01000007 	tsteq	r0, r7
    82f0:	90e0061f 	rscls	r0, r0, pc, lsl r6
    82f4:	004c0000 	subeq	r0, ip, r0
    82f8:	9c010000 	stcls	0, cr0, [r1], {-0}
    82fc:	00000a2c 	andeq	r0, r0, ip, lsr #20
    8300:	00083d23 	andeq	r3, r8, r3, lsr #26
    8304:	0f2a0100 	svceq	0x002a0100
    8308:	0000002c 	andeq	r0, r0, ip, lsr #32
    830c:	000011b5 			; <UNDEFINED> instruction: 0x000011b5
    8310:	000011b3 			; <UNDEFINED> instruction: 0x000011b3
    8314:	00086423 	andeq	r6, r8, r3, lsr #8
    8318:	0f2b0100 	svceq	0x002b0100
    831c:	0000002c 	andeq	r0, r0, ip, lsr #32
    8320:	000011cf 	andeq	r1, r0, pc, asr #3
    8324:	000011cd 	andeq	r1, r0, sp, asr #3
    8328:	00087123 	andeq	r7, r8, r3, lsr #2
    832c:	0f2c0100 	svceq	0x002c0100
    8330:	0000002c 	andeq	r0, r0, ip, lsr #32
    8334:	000011e9 	andeq	r1, r0, r9, ror #3
    8338:	000011e7 	andeq	r1, r0, r7, ror #3
    833c:	00084b23 	andeq	r4, r8, r3, lsr #22
    8340:	0f2d0100 	svceq	0x002d0100
    8344:	0000002c 	andeq	r0, r0, ip, lsr #32
    8348:	00001202 	andeq	r1, r0, r2, lsl #4
    834c:	00001200 	andeq	r1, r0, r0, lsl #4
    8350:	0090e824 	addseq	lr, r0, r4, lsr #16
    8354:	000a5700 	andeq	r5, sl, r0, lsl #14
    8358:	90f82500 	rscsls	r2, r8, r0, lsl #10
    835c:	0a860000 	beq	fe188364 <__bss_end__+0xfe17e334>
    8360:	09e20000 	stmibeq	r2!, {}^	; <UNPREDICTABLE>
    8364:	01260000 			; <UNDEFINED> instruction: 0x01260000
    8368:	004e0150 	subeq	r0, lr, r0, asr r1
    836c:	00910425 	addseq	r0, r1, r5, lsr #8
    8370:	000a9200 	andeq	r9, sl, r0, lsl #4
    8374:	000a0200 	andeq	r0, sl, r0, lsl #4
    8378:	50012600 	andpl	r2, r1, r0, lsl #12
    837c:	00240c05 	eoreq	r0, r4, r5, lsl #24
    8380:	01262010 			; <UNDEFINED> instruction: 0x01262010
    8384:	010c0551 	tsteq	ip, r1, asr r5
    8388:	005a0000 	subseq	r0, sl, r0
    838c:	00911025 	addseq	r1, r1, r5, lsr #32
    8390:	000a9200 	andeq	r9, sl, r0, lsl #4
    8394:	000a2200 	andeq	r2, sl, r0, lsl #4
    8398:	50012600 	andpl	r2, r1, r0, lsl #12
    839c:	001c0c05 	andseq	r0, ip, r5, lsl #24
    83a0:	01262010 			; <UNDEFINED> instruction: 0x01262010
    83a4:	200c0551 	andcs	r0, ip, r1, asr r5
    83a8:	005a0000 	subseq	r0, sl, r0
    83ac:	00911824 	addseq	r1, r1, r4, lsr #16
    83b0:	000a2c00 	andeq	r2, sl, r0, lsl #24
    83b4:	90270000 	eorls	r0, r7, r0
    83b8:	01000008 	tsteq	r0, r8
    83bc:	90cc0617 	sbcls	r0, ip, r7, lsl r6
    83c0:	00140000 	andseq	r0, r4, r0
    83c4:	9c010000 	stcls	0, cr0, [r1], {-0}
    83c8:	00000a57 	andeq	r0, r0, r7, asr sl
    83cc:	00086c23 	andeq	r6, r8, r3, lsr #24
    83d0:	0e180100 	mufeqe	f0, f0, f0
    83d4:	00000031 	andeq	r0, r0, r1, lsr r0
    83d8:	0000121d 	andeq	r1, r0, sp, lsl r2
    83dc:	00001217 	andeq	r1, r0, r7, lsl r2
    83e0:	089f2800 	ldmeq	pc, {fp, sp}	; <UNPREDICTABLE>
    83e4:	0e010000 	cdpeq	0, 0, cr0, cr1, cr0, {0}
    83e8:	00002505 	andeq	r2, r0, r5, lsl #10
    83ec:	0090b400 	addseq	fp, r0, r0, lsl #8
    83f0:	00001800 	andeq	r1, r0, r0, lsl #16
    83f4:	869c0100 	ldrhi	r0, [ip], r0, lsl #2
    83f8:	2300000a 	movwcs	r0, #10
    83fc:	0000086c 	andeq	r0, r0, ip, ror #16
    8400:	310e0f01 	tstcc	lr, r1, lsl #30
    8404:	4b000000 	blmi	840c <check_mem+0x90>
    8408:	47000012 	smladmi	r0, r2, r0, r0
    840c:	00000012 	andeq	r0, r0, r2, lsl r0
    8410:	0007ec29 	andeq	lr, r7, r9, lsr #24
    8414:	0007ec00 	andeq	lr, r7, r0, lsl #24
    8418:	064f0600 	strbeq	r0, [pc], -r0, lsl #12
    841c:	00084529 	andeq	r4, r8, r9, lsr #10
    8420:	00084500 	andeq	r4, r8, r0, lsl #10
    8424:	069b0600 	ldreq	r0, [fp], r0, lsl #12
    8428:	000aea00 	andeq	lr, sl, r0, lsl #20
    842c:	4b000400 	blmi	9434 <gpio_set_off+0x1c>
    8430:	0400001a 	streq	r0, [r0], #-26	; 0xffffffe6
    8434:	0002ef01 	andeq	lr, r2, r1, lsl #30
    8438:	08d30c00 	ldmeq	r3, {sl, fp}^
    843c:	06c10000 	strbeq	r0, [r1], r0
    8440:	912c0000 			; <UNDEFINED> instruction: 0x912c0000
    8444:	008c0000 	addeq	r0, ip, r0
    8448:	174d0000 	strbne	r0, [sp, -r0]
    844c:	04020000 	streq	r0, [r2], #-0
    8450:	746e6905 	strbtvc	r6, [lr], #-2309	; 0xfffff6fb
    8454:	07040300 	streq	r0, [r4, -r0, lsl #6]
    8458:	00000066 	andeq	r0, r0, r6, rrx
    845c:	de060103 	adfles	f0, f6, f3
    8460:	03000002 	movweq	r0, #2
    8464:	03770502 	cmneq	r7, #8388608	; 0x800000
    8468:	04030000 	streq	r0, [r3], #-0
    846c:	0000ac05 	andeq	sl, r0, r5, lsl #24
    8470:	05080300 	streq	r0, [r8, #-768]	; 0xfffffd00
    8474:	000000a7 	andeq	r0, r0, r7, lsr #1
    8478:	dc080103 	stfles	f0, [r8], {3}
    847c:	03000002 	movweq	r0, #2
    8480:	02220702 	eoreq	r0, r2, #524288	; 0x80000
    8484:	04030000 	streq	r0, [r3], #-0
    8488:	00006107 	andeq	r6, r0, r7, lsl #2
    848c:	07080300 	streq	r0, [r8, -r0, lsl #6]
    8490:	0000005c 	andeq	r0, r0, ip, asr r0
    8494:	00026504 	andeq	r6, r2, r4, lsl #10
    8498:	19220200 	stmdbne	r2!, {r9}
    849c:	00000077 	andeq	r0, r0, r7, ror r0
    84a0:	007d0405 	rsbseq	r0, sp, r5, lsl #8
    84a4:	1d060000 	stcne	0, cr0, [r6, #-0]
    84a8:	04000004 	streq	r0, [r0], #-4
    84ac:	000002bd 			; <UNDEFINED> instruction: 0x000002bd
    84b0:	410e2c03 	tstmi	lr, r3, lsl #24
    84b4:	04000000 	streq	r0, [r0], #-0
    84b8:	00000432 	andeq	r0, r0, r2, lsr r4
    84bc:	410e7203 	tstmi	lr, r3, lsl #4
    84c0:	07000000 	streq	r0, [r0, -r0]
    84c4:	0000026d 	andeq	r0, r0, sp, ror #4
    84c8:	17015e04 	strne	r5, [r1, -r4, lsl #28]
    84cc:	0000002c 	andeq	r0, r0, ip, lsr #32
    84d0:	a6030408 	strge	r0, [r3], -r8, lsl #8
    84d4:	0000c903 	andeq	ip, r0, r3, lsl #18
    84d8:	025f0900 	subseq	r0, pc, #0, 18
    84dc:	a8030000 	stmdage	r3, {}	; <UNPREDICTABLE>
    84e0:	00009a0c 	andeq	r9, r0, ip, lsl #20
    84e4:	01e20900 	mvneq	r0, r0, lsl #18
    84e8:	a9030000 	stmdbge	r3, {}	; <UNPREDICTABLE>
    84ec:	0000c913 	andeq	ip, r0, r3, lsl r9
    84f0:	4f0a0000 	svcmi	0x000a0000
    84f4:	d9000000 	stmdble	r0, {}	; <UNPREDICTABLE>
    84f8:	0b000000 	bleq	8500 <ck_init+0x24>
    84fc:	0000002c 	andeq	r0, r0, ip, lsr #32
    8500:	080c0003 	stmdaeq	ip, {r0, r1}
    8504:	fd09a303 	stc2	3, cr10, [r9, #-12]
    8508:	0d000000 	stceq	0, cr0, [r0, #-0]
    850c:	00000415 	andeq	r0, r0, r5, lsl r4
    8510:	2507a503 	strcs	sl, [r7, #-1283]	; 0xfffffafd
    8514:	00000000 	andeq	r0, r0, r0
    8518:	0004240d 	andeq	r2, r4, sp, lsl #8
    851c:	05aa0300 	streq	r0, [sl, #768]!	; 0x300
    8520:	000000a7 	andeq	r0, r0, r7, lsr #1
    8524:	9f040004 	svcls	0x00040004
    8528:	03000003 	movweq	r0, #3
    852c:	00d903ab 	sbcseq	r0, r9, fp, lsr #7
    8530:	9f040000 	svcls	0x00040000
    8534:	03000001 	movweq	r0, #1
    8538:	006b1baf 	rsbeq	r1, fp, pc, lsr #23
    853c:	040e0000 	streq	r0, [lr], #-0
    8540:	011d0405 	tsteq	sp, r5, lsl #8
    8544:	01030000 	mrseq	r0, (UNDEF: 3)
    8548:	0002e508 	andeq	lr, r2, r8, lsl #10
    854c:	011d0f00 	tsteq	sp, r0, lsl #30
    8550:	64040000 	strvs	r0, [r4], #-0
    8554:	05000004 	streq	r0, [r0, #-4]
    8558:	005d1916 	subseq	r1, sp, r6, lsl r9
    855c:	b0100000 	andslt	r0, r0, r0
    8560:	18000001 	stmdane	r0, {r0}
    8564:	8f082f05 	svchi	0x00082f05
    8568:	0d000001 	stceq	0, cr0, [r0, #-4]
    856c:	000003c0 	andeq	r0, r0, r0, asr #7
    8570:	8f133105 	svchi	0x00133105
    8574:	00000001 	andeq	r0, r0, r1
    8578:	006b5f11 	rsbeq	r5, fp, r1, lsl pc
    857c:	25073205 	strcs	r3, [r7, #-517]	; 0xfffffdfb
    8580:	04000000 	streq	r0, [r0], #-0
    8584:	0004000d 	andeq	r0, r4, sp
    8588:	0b320500 	bleq	c89990 <__bss_end__+0xc7f960>
    858c:	00000025 	andeq	r0, r0, r5, lsr #32
    8590:	01990d08 	orrseq	r0, r9, r8, lsl #26
    8594:	32050000 	andcc	r0, r5, #0
    8598:	00002514 	andeq	r2, r0, r4, lsl r5
    859c:	ae0d0c00 	cdpge	12, 0, cr0, cr13, cr0, {0}
    85a0:	05000004 	streq	r0, [r0, #-4]
    85a4:	00251b32 	eoreq	r1, r5, r2, lsr fp
    85a8:	11100000 	tstne	r0, r0
    85ac:	0500785f 	streq	r7, [r0, #-2143]	; 0xfffff7a1
    85b0:	01950b33 	orrseq	r0, r5, r3, lsr fp
    85b4:	00140000 	andseq	r0, r4, r0
    85b8:	01350405 	teqeq	r5, r5, lsl #8
    85bc:	290a0000 	stmdbcs	sl, {}	; <UNPREDICTABLE>
    85c0:	a5000001 	strge	r0, [r0, #-1]
    85c4:	0b000001 	bleq	85d0 <ckfree+0x80>
    85c8:	0000002c 	andeq	r0, r0, ip, lsr #32
    85cc:	dd100000 	ldcle	0, cr0, [r0, #-0]
    85d0:	24000001 	strcs	r0, [r0], #-1
    85d4:	28083705 	stmdacs	r8, {r0, r2, r8, r9, sl, ip, sp}
    85d8:	0d000002 	stceq	0, cr0, [r0, #-8]
    85dc:	0000009e 	muleq	r0, lr, r0
    85e0:	25093905 	strcs	r3, [r9, #-2309]	; 0xfffff6fb
    85e4:	00000000 	andeq	r0, r0, r0
    85e8:	00043a0d 	andeq	r3, r4, sp, lsl #20
    85ec:	093a0500 	ldmdbeq	sl!, {r8, sl}
    85f0:	00000025 	andeq	r0, r0, r5, lsr #32
    85f4:	00c10d04 	sbceq	r0, r1, r4, lsl #26
    85f8:	3b050000 	blcc	148600 <__bss_end__+0x13e5d0>
    85fc:	00002509 	andeq	r2, r0, r9, lsl #10
    8600:	2f0d0800 	svccs	0x000d0800
    8604:	05000005 	streq	r0, [r0, #-5]
    8608:	0025093c 	eoreq	r0, r5, ip, lsr r9
    860c:	0d0c0000 	stceq	0, cr0, [ip, #-0]
    8610:	000002a1 	andeq	r0, r0, r1, lsr #5
    8614:	25093d05 	strcs	r3, [r9, #-3333]	; 0xfffff2fb
    8618:	10000000 	andne	r0, r0, r0
    861c:	0002830d 	andeq	r8, r2, sp, lsl #6
    8620:	093e0500 	ldmdbeq	lr!, {r8, sl}
    8624:	00000025 	andeq	r0, r0, r5, lsr #32
    8628:	04b30d14 	ldrteq	r0, [r3], #3348	; 0xd14
    862c:	3f050000 	svccc	0x00050000
    8630:	00002509 	andeq	r2, r0, r9, lsl #10
    8634:	810d1800 	tsthi	sp, r0, lsl #16
    8638:	05000003 	streq	r0, [r0, #-3]
    863c:	00250940 	eoreq	r0, r5, r0, asr #18
    8640:	0d1c0000 	ldceq	0, cr0, [ip, #-0]
    8644:	000004f6 	strdeq	r0, [r0], -r6
    8648:	25094105 	strcs	r4, [r9, #-261]	; 0xfffffefb
    864c:	20000000 	andcs	r0, r0, r0
    8650:	01011200 	mrseq	r1, R9_usr
    8654:	01080000 	mrseq	r0, (UNDEF: 8)
    8658:	6d084a05 	vstrvs	s8, [r8, #-20]	; 0xffffffec
    865c:	0d000002 	stceq	0, cr0, [r0, #-8]
    8660:	0000018c 	andeq	r0, r0, ip, lsl #3
    8664:	6d0a4b05 	vstrvs	d4, [sl, #-20]	; 0xffffffec
    8668:	00000002 	andeq	r0, r0, r2
    866c:	0000000d 	andeq	r0, r0, sp
    8670:	094c0500 	stmdbeq	ip, {r8, sl}^
    8674:	0000026d 	andeq	r0, r0, sp, ror #4
    8678:	04561380 	ldrbeq	r1, [r6], #-896	; 0xfffffc80
    867c:	4e050000 	cdpmi	0, 0, cr0, cr5, cr0, {0}
    8680:	0001290a 	andeq	r2, r1, sl, lsl #18
    8684:	13010000 	movwne	r0, #4096	; 0x1000
    8688:	00000126 	andeq	r0, r0, r6, lsr #2
    868c:	290a5105 	stmdbcs	sl, {r0, r2, r8, ip, lr}
    8690:	04000001 	streq	r0, [r0], #-1
    8694:	150a0001 	strne	r0, [sl, #-1]
    8698:	7d000001 	stcvc	0, cr0, [r0, #-4]
    869c:	0b000002 	bleq	86ac <ckalloc+0xa4>
    86a0:	0000002c 	andeq	r0, r0, ip, lsr #32
    86a4:	aa12001f 	bge	488728 <__bss_end__+0x47e6f8>
    86a8:	90000002 	andls	r0, r0, r2
    86ac:	085d0501 	ldmdaeq	sp, {r0, r8, sl}^
    86b0:	000002c0 	andeq	r0, r0, r0, asr #5
    86b4:	0003c00d 	andeq	ip, r3, sp
    86b8:	125e0500 	subsne	r0, lr, #0, 10
    86bc:	000002c0 	andeq	r0, r0, r0, asr #5
    86c0:	03d80d00 	bicseq	r0, r8, #0, 26
    86c4:	5f050000 	svcpl	0x00050000
    86c8:	00002506 	andeq	r2, r0, r6, lsl #10
    86cc:	940d0400 	strls	r0, [sp], #-1024	; 0xfffffc00
    86d0:	05000001 	streq	r0, [r0, #-1]
    86d4:	02c60961 	sbceq	r0, r6, #1589248	; 0x184000
    86d8:	0d080000 	stceq	0, cr0, [r8, #-0]
    86dc:	00000101 	andeq	r0, r0, r1, lsl #2
    86e0:	281e6205 	ldmdacs	lr, {r0, r2, r9, sp, lr}
    86e4:	88000002 	stmdahi	r0, {r1}
    86e8:	7d040500 	cfstr32vc	mvfx0, [r4, #-0]
    86ec:	0a000002 	beq	86fc <ckalloc+0xf4>
    86f0:	000002d6 	ldrdeq	r0, [r0], -r6
    86f4:	000002d6 	ldrdeq	r0, [r0], -r6
    86f8:	00002c0b 	andeq	r2, r0, fp, lsl #24
    86fc:	05001f00 	streq	r1, [r0, #-3840]	; 0xfffff100
    8700:	0002dc04 	andeq	sp, r2, r4, lsl #24
    8704:	8b101400 	blhi	40d70c <__bss_end__+0x4036dc>
    8708:	08000003 	stmdaeq	r0, {r0, r1}
    870c:	05087505 	streq	r7, [r8, #-1285]	; 0xfffffafb
    8710:	0d000003 	stceq	0, cr0, [r0, #-12]
    8714:	000000bb 	strheq	r0, [r0], -fp
    8718:	05117605 	ldreq	r7, [r1, #-1541]	; 0xfffff9fb
    871c:	00000003 	andeq	r0, r0, r3
    8720:	00001b0d 	andeq	r1, r0, sp, lsl #22
    8724:	06770500 	ldrbteq	r0, [r7], -r0, lsl #10
    8728:	00000025 	andeq	r0, r0, r5, lsr #32
    872c:	04050004 	streq	r0, [r5], #-4
    8730:	0000004f 	andeq	r0, r0, pc, asr #32
    8734:	0003aa10 	andeq	sl, r3, r0, lsl sl
    8738:	b5056800 	strlt	r6, [r5, #-2048]	; 0xfffff800
    873c:	00044e08 	andeq	r4, r4, r8, lsl #28
    8740:	705f1100 	subsvc	r1, pc, r0, lsl #2
    8744:	12b60500 	adcsne	r0, r6, #0, 10
    8748:	00000305 	andeq	r0, r0, r5, lsl #6
    874c:	725f1100 	subsvc	r1, pc, #0, 2
    8750:	07b70500 	ldreq	r0, [r7, r0, lsl #10]!
    8754:	00000025 	andeq	r0, r0, r5, lsr #32
    8758:	775f1104 	ldrbvc	r1, [pc, -r4, lsl #2]
    875c:	07b80500 	ldreq	r0, [r8, r0, lsl #10]!
    8760:	00000025 	andeq	r0, r0, r5, lsr #32
    8764:	011f0d08 	tsteq	pc, r8, lsl #26
    8768:	b9050000 	stmdblt	r5, {}	; <UNPREDICTABLE>
    876c:	00003a09 	andeq	r3, r0, r9, lsl #20
    8770:	080d0c00 	stmdaeq	sp, {sl, fp}
    8774:	05000002 	streq	r0, [r0, #-2]
    8778:	003a09ba 	ldrhteq	r0, [sl], -sl
    877c:	110e0000 	mrsne	r0, (UNDEF: 14)
    8780:	0066625f 	rsbeq	r6, r6, pc, asr r2
    8784:	dd11bb05 	vldrle	d11, [r1, #-20]	; 0xffffffec
    8788:	10000002 	andne	r0, r0, r2
    878c:	00007b0d 	andeq	r7, r0, sp, lsl #22
    8790:	07bc0500 	ldreq	r0, [ip, r0, lsl #10]!
    8794:	00000025 	andeq	r0, r0, r5, lsr #32
    8798:	010f0d18 	tsteq	pc, r8, lsl sp	; <UNPREDICTABLE>
    879c:	c3050000 	movwgt	r0, #20480	; 0x5000
    87a0:	0001150a 	andeq	r1, r1, sl, lsl #10
    87a4:	240d1c00 	strcs	r1, [sp], #-3072	; 0xfffff400
    87a8:	0500000b 	streq	r0, [r0, #-11]
    87ac:	05c01dc5 	strbeq	r1, [r0, #3525]	; 0xdc5
    87b0:	0d200000 	stceq	0, cr0, [r0, #-0]
    87b4:	00000619 	andeq	r0, r0, r9, lsl r6
    87b8:	ea1dc705 	b	77a3d4 <__bss_end__+0x7703a4>
    87bc:	24000005 	strcs	r0, [r0], #-5
    87c0:	00042c0d 	andeq	r2, r4, sp, lsl #24
    87c4:	0dca0500 	cfstr64eq	mvdx0, [sl]
    87c8:	0000060e 	andeq	r0, r0, lr, lsl #12
    87cc:	05100d28 	ldreq	r0, [r0, #-3368]	; 0xfffff2d8
    87d0:	cb050000 	blgt	1487d8 <__bss_end__+0x13e7a8>
    87d4:	00062809 	andeq	r2, r6, r9, lsl #16
    87d8:	5f112c00 	svcpl	0x00112c00
    87dc:	05006275 	streq	r6, [r0, #-629]	; 0xfffffd8b
    87e0:	02dd11ce 	sbcseq	r1, sp, #-2147483597	; 0x80000033
    87e4:	11300000 	teqne	r0, r0
    87e8:	0070755f 	rsbseq	r7, r0, pc, asr r5
    87ec:	0512cf05 	ldreq	ip, [r2, #-3845]	; 0xfffff0fb
    87f0:	38000003 	stmdacc	r0, {r0, r1}
    87f4:	72755f11 	rsbsvc	r5, r5, #17, 30	; 0x44
    87f8:	07d00500 	ldrbeq	r0, [r0, r0, lsl #10]
    87fc:	00000025 	andeq	r0, r0, r5, lsr #32
    8800:	00b50d3c 	adcseq	r0, r5, ip, lsr sp
    8804:	d3050000 	movwle	r0, #20480	; 0x5000
    8808:	00062e11 	andeq	r2, r6, r1, lsl lr
    880c:	e80d4000 	stmda	sp, {lr}
    8810:	05000004 	streq	r0, [r0, #-4]
    8814:	063e11d4 			; <UNDEFINED> instruction: 0x063e11d4
    8818:	11430000 	mrsne	r0, (UNDEF: 67)
    881c:	00626c5f 	rsbeq	r6, r2, pc, asr ip
    8820:	dd11d705 	ldcle	7, cr13, [r1, #-20]	; 0xffffffec
    8824:	44000002 	strmi	r0, [r0], #-2
    8828:	00013d0d 	andeq	r3, r1, sp, lsl #26
    882c:	07da0500 	ldrbeq	r0, [sl, r0, lsl #10]
    8830:	00000025 	andeq	r0, r0, r5, lsr #32
    8834:	014e0d4c 	cmpeq	lr, ip, asr #26
    8838:	db050000 	blle	148840 <__bss_end__+0x13e810>
    883c:	0000820a 	andeq	r8, r0, sl, lsl #4
    8840:	c50d5000 	strgt	r5, [sp, #-0]
    8844:	0500000a 	streq	r0, [r0, #-10]
    8848:	046c12de 	strbteq	r1, [ip], #-734	; 0xfffffd22
    884c:	0d540000 	ldcleq	0, cr0, [r4, #-0]
    8850:	0000041e 	andeq	r0, r0, lr, lsl r4
    8854:	090ce205 	stmdbeq	ip, {r0, r2, r9, sp, lr, pc}
    8858:	58000001 	stmdapl	r0, {r0}
    885c:	0003b20d 	andeq	fp, r3, sp, lsl #4
    8860:	0ee40500 	cdpeq	5, 14, cr0, cr4, cr0, {0}
    8864:	000000fd 	strdeq	r0, [r0], -sp
    8868:	027b0d5c 	rsbseq	r0, fp, #92, 26	; 0x1700
    886c:	e5050000 	str	r0, [r5, #-0]
    8870:	00002509 	andeq	r2, r0, r9, lsl #10
    8874:	15006400 	strne	r6, [r0, #-1024]	; 0xfffffc00
    8878:	00000025 	andeq	r0, r0, r5, lsr #32
    887c:	0000046c 	andeq	r0, r0, ip, ror #8
    8880:	00046c16 	andeq	r6, r4, r6, lsl ip
    8884:	01151600 	tsteq	r5, r0, lsl #12
    8888:	17160000 	ldrne	r0, [r6, -r0]
    888c:	16000001 	strne	r0, [r0], -r1
    8890:	00000025 	andeq	r0, r0, r5, lsr #32
    8894:	77040500 	strvc	r0, [r4, -r0, lsl #10]
    8898:	0f000004 	svceq	0x00000004
    889c:	0000046c 	andeq	r0, r0, ip, ror #8
    88a0:	00040817 	andeq	r0, r4, r7, lsl r8
    88a4:	05042800 	streq	r2, [r4, #-2048]	; 0xfffff800
    88a8:	c0080260 	andgt	r0, r8, r0, ror #4
    88ac:	18000005 	stmdane	r0, {r0, r2}
    88b0:	00000370 	andeq	r0, r0, r0, ror r3
    88b4:	07026205 	streq	r6, [r2, -r5, lsl #4]
    88b8:	00000025 	andeq	r0, r0, r5, lsr #32
    88bc:	012e1800 			; <UNDEFINED> instruction: 0x012e1800
    88c0:	67050000 	strvs	r0, [r5, -r0]
    88c4:	069a0b02 	ldreq	r0, [sl], r2, lsl #22
    88c8:	18040000 	stmdane	r4, {}	; <UNPREDICTABLE>
    88cc:	000001f8 	strdeq	r0, [r0], -r8
    88d0:	14026705 	strne	r6, [r2], #-1797	; 0xfffff8fb
    88d4:	0000069a 	muleq	r0, sl, r6
    88d8:	01a81808 			; <UNDEFINED> instruction: 0x01a81808
    88dc:	67050000 	strvs	r0, [r5, -r0]
    88e0:	069a1e02 	ldreq	r1, [sl], r2, lsl #28
    88e4:	180c0000 	stmdane	ip, {}	; <UNPREDICTABLE>
    88e8:	000003d3 	ldrdeq	r0, [r0], -r3
    88ec:	08026905 	stmdaeq	r2, {r0, r2, r8, fp, sp, lr}
    88f0:	00000025 	andeq	r0, r0, r5, lsr #32
    88f4:	00291810 	eoreq	r1, r9, r0, lsl r8
    88f8:	6a050000 	bvs	148900 <__bss_end__+0x13e8d0>
    88fc:	089a0802 	ldmeq	sl, {r1, fp}
    8900:	18140000 	ldmdane	r4, {}	; <UNPREDICTABLE>
    8904:	000003e7 	andeq	r0, r0, r7, ror #7
    8908:	07026d05 	streq	r6, [r2, -r5, lsl #26]
    890c:	00000025 	andeq	r0, r0, r5, lsr #32
    8910:	0a011830 	beq	4e9d8 <__bss_end__+0x449a8>
    8914:	6e050000 	cdpvs	0, 0, cr0, cr5, cr0, {0}
    8918:	08af1602 	stmiaeq	pc!, {r1, r9, sl, ip}	; <UNPREDICTABLE>
    891c:	18340000 	ldmdane	r4!, {}	; <UNPREDICTABLE>
    8920:	000002b2 			; <UNDEFINED> instruction: 0x000002b2
    8924:	07027005 	streq	r7, [r2, -r5]
    8928:	00000025 	andeq	r0, r0, r5, lsr #32
    892c:	03dd1838 	bicseq	r1, sp, #56, 16	; 0x380000
    8930:	72050000 	andvc	r0, r5, #0
    8934:	08c00a02 	stmiaeq	r0, {r1, r9, fp}^
    8938:	183c0000 	ldmdane	ip!, {}	; <UNPREDICTABLE>
    893c:	00000257 	andeq	r0, r0, r7, asr r2
    8940:	13027505 	movwne	r7, #9477	; 0x2505
    8944:	0000018f 	andeq	r0, r0, pc, lsl #3
    8948:	01c71840 	biceq	r1, r7, r0, asr #16
    894c:	76050000 	strvc	r0, [r5], -r0
    8950:	00250702 	eoreq	r0, r5, r2, lsl #14
    8954:	18440000 	stmdane	r4, {}^	; <UNPREDICTABLE>
    8958:	0000052a 	andeq	r0, r0, sl, lsr #10
    895c:	13027705 	movwne	r7, #9989	; 0x2705
    8960:	0000018f 	andeq	r0, r0, pc, lsl #3
    8964:	02c41848 	sbceq	r1, r4, #72, 16	; 0x480000
    8968:	78050000 	stmdavc	r5, {}	; <UNPREDICTABLE>
    896c:	08c61402 	stmiaeq	r6, {r1, sl, ip}^
    8970:	184c0000 	stmdane	ip, {}^	; <UNPREDICTABLE>
    8974:	00000200 	andeq	r0, r0, r0, lsl #4
    8978:	07027b05 	streq	r7, [r2, -r5, lsl #22]
    897c:	00000025 	andeq	r0, r0, r5, lsr #32
    8980:	01461850 	cmpeq	r6, r0, asr r8
    8984:	7c050000 	stcvc	0, cr0, [r5], {-0}
    8988:	01170902 	tsteq	r7, r2, lsl #18
    898c:	18540000 	ldmdane	r4, {}^	; <UNPREDICTABLE>
    8990:	000002ea 	andeq	r0, r0, sl, ror #5
    8994:	07029f05 	streq	r9, [r2, -r5, lsl #30]
    8998:	00000875 	andeq	r0, r0, r5, ror r8
    899c:	02aa1958 	adceq	r1, sl, #88, 18	; 0x160000
    89a0:	a3050000 	movwge	r0, #20480	; 0x5000
    89a4:	02c01302 	sbceq	r1, r0, #134217728	; 0x8000000
    89a8:	01480000 	mrseq	r0, (UNDEF: 72)
    89ac:	00023519 	andeq	r3, r2, r9, lsl r5
    89b0:	02a40500 	adceq	r0, r4, #0, 10
    89b4:	00027d12 	andeq	r7, r2, r2, lsl sp
    89b8:	19014c00 	stmdbne	r1, {sl, fp, lr}
    89bc:	000004d6 	ldrdeq	r0, [r0], -r6
    89c0:	0c02a805 	stceq	8, cr10, [r2], {5}
    89c4:	000008d7 	ldrdeq	r0, [r0], -r7
    89c8:	171902dc 			; <UNDEFINED> instruction: 0x171902dc
    89cc:	05000001 	streq	r0, [r0, #-1]
    89d0:	5b1002ad 	blpl	40948c <__bss_end__+0x3ff45c>
    89d4:	e0000006 	and	r0, r0, r6
    89d8:	00fc1902 	rscseq	r1, ip, r2, lsl #18
    89dc:	af050000 	svcge	0x00050000
    89e0:	08e30a02 	stmiaeq	r3!, {r1, r9, fp}^
    89e4:	02ec0000 	rsceq	r0, ip, #0
    89e8:	4e040500 	cfsh32mi	mvfx0, mvfx4, #0
    89ec:	15000004 	strne	r0, [r0, #-4]
    89f0:	00000025 	andeq	r0, r0, r5, lsr #32
    89f4:	000005e4 	andeq	r0, r0, r4, ror #11
    89f8:	00046c16 	andeq	r6, r4, r6, lsl ip
    89fc:	01151600 	tsteq	r5, r0, lsl #12
    8a00:	e4160000 	ldr	r0, [r6], #-0
    8a04:	16000005 	strne	r0, [r0], -r5
    8a08:	00000025 	andeq	r0, r0, r5, lsr #32
    8a0c:	24040500 	strcs	r0, [r4], #-1280	; 0xfffffb00
    8a10:	05000001 	streq	r0, [r0, #-1]
    8a14:	0005c604 	andeq	ip, r5, r4, lsl #12
    8a18:	008e1500 	addeq	r1, lr, r0, lsl #10
    8a1c:	060e0000 	streq	r0, [lr], -r0
    8a20:	6c160000 	ldcvs	0, cr0, [r6], {-0}
    8a24:	16000004 	strne	r0, [r0], -r4
    8a28:	00000115 	andeq	r0, r0, r5, lsl r1
    8a2c:	00008e16 	andeq	r8, r0, r6, lsl lr
    8a30:	00251600 	eoreq	r1, r5, r0, lsl #12
    8a34:	05000000 	streq	r0, [r0, #-0]
    8a38:	0005f004 	andeq	pc, r5, r4
    8a3c:	00251500 	eoreq	r1, r5, r0, lsl #10
    8a40:	06280000 	strteq	r0, [r8], -r0
    8a44:	6c160000 	ldcvs	0, cr0, [r6], {-0}
    8a48:	16000004 	strne	r0, [r0], -r4
    8a4c:	00000115 	andeq	r0, r0, r5, lsl r1
    8a50:	14040500 	strne	r0, [r4], #-1280	; 0xfffffb00
    8a54:	0a000006 	beq	8a74 <memset+0x14>
    8a58:	0000004f 	andeq	r0, r0, pc, asr #32
    8a5c:	0000063e 	andeq	r0, r0, lr, lsr r6
    8a60:	00002c0b 	andeq	r2, r0, fp, lsl #24
    8a64:	0a000200 	beq	926c <uart_init+0x48>
    8a68:	0000004f 	andeq	r0, r0, pc, asr #32
    8a6c:	0000064e 	andeq	r0, r0, lr, asr #12
    8a70:	00002c0b 	andeq	r2, r0, fp, lsl #24
    8a74:	07000000 	streq	r0, [r0, -r0]
    8a78:	00000398 	muleq	r0, r8, r3
    8a7c:	1a011f05 	bne	50698 <__bss_end__+0x46668>
    8a80:	0000030b 	andeq	r0, r0, fp, lsl #6
    8a84:	0004bd1a 	andeq	fp, r4, sl, lsl sp
    8a88:	23050c00 	movwcs	r0, #23552	; 0x5c00
    8a8c:	06940801 	ldreq	r0, [r4], r1, lsl #16
    8a90:	c0180000 	andsgt	r0, r8, r0
    8a94:	05000003 	streq	r0, [r0, #-3]
    8a98:	94110125 	ldrls	r0, [r1], #-293	; 0xfffffedb
    8a9c:	00000006 	andeq	r0, r0, r6
    8aa0:	00021b18 	andeq	r1, r2, r8, lsl fp
    8aa4:	01260500 			; <UNDEFINED> instruction: 0x01260500
    8aa8:	00002507 	andeq	r2, r0, r7, lsl #10
    8aac:	92180400 	andsls	r0, r8, #0, 8
    8ab0:	05000003 	streq	r0, [r0, #-3]
    8ab4:	9a0b0127 	bls	2c8f58 <__bss_end__+0x2bef28>
    8ab8:	08000006 	stmdaeq	r0, {r1, r2}
    8abc:	5b040500 	blpl	109ec4 <__bss_end__+0xffe94>
    8ac0:	05000006 	streq	r0, [r0, #-6]
    8ac4:	00064e04 	andeq	r4, r6, r4, lsl #28
    8ac8:	00211a00 	eoreq	r1, r1, r0, lsl #20
    8acc:	050e0000 	streq	r0, [lr, #-0]
    8ad0:	d908013f 	stmdble	r8, {r0, r1, r2, r3, r4, r5, r8}
    8ad4:	18000006 	stmdane	r0, {r1, r2}
    8ad8:	0000040f 	andeq	r0, r0, pc, lsl #8
    8adc:	12014005 	andne	r4, r1, #5
    8ae0:	000006d9 	ldrdeq	r0, [r0], -r9
    8ae4:	04431800 	strbeq	r1, [r3], #-2048	; 0xfffff800
    8ae8:	41050000 	mrsmi	r0, (UNDEF: 5)
    8aec:	06d91201 	ldrbeq	r1, [r9], r1, lsl #4
    8af0:	18060000 	stmdane	r6, {}	; <UNPREDICTABLE>
    8af4:	0000045f 	andeq	r0, r0, pc, asr r4
    8af8:	12014205 	andne	r4, r1, #1342177280	; 0x50000000
    8afc:	00000056 	andeq	r0, r0, r6, asr r0
    8b00:	560a000c 	strpl	r0, [sl], -ip
    8b04:	e9000000 	stmdb	r0, {}	; <UNPREDICTABLE>
    8b08:	0b000006 	bleq	8b28 <internal_putk+0x1c>
    8b0c:	0000002c 	andeq	r0, r0, ip, lsr #32
    8b10:	d01b0002 	andsle	r0, fp, r2
    8b14:	07028005 	streq	r8, [r2, -r5]
    8b18:	000007fe 	strdeq	r0, [r0], -lr
    8b1c:	0004a118 	andeq	sl, r4, r8, lsl r1
    8b20:	02820500 	addeq	r0, r2, #0, 10
    8b24:	00002c18 	andeq	r2, r0, r8, lsl ip
    8b28:	49180000 	ldmdbmi	r8, {}	; <UNPREDICTABLE>
    8b2c:	05000004 	streq	r0, [r0, #-4]
    8b30:	17120283 	ldrne	r0, [r2, -r3, lsl #5]
    8b34:	04000001 	streq	r0, [r0], #-1
    8b38:	00024a18 	andeq	r4, r2, r8, lsl sl
    8b3c:	02840500 	addeq	r0, r4, #0, 10
    8b40:	0007fe10 	andeq	pc, r7, r0, lsl lr	; <UNPREDICTABLE>
    8b44:	01180800 	tsteq	r8, r0, lsl #16
    8b48:	05000005 	streq	r0, [r0, #-5]
    8b4c:	a5170285 	ldrge	r0, [r7, #-645]	; 0xfffffd7b
    8b50:	24000001 	strcs	r0, [r0], #-1
    8b54:	0001b818 	andeq	fp, r1, r8, lsl r8
    8b58:	02860500 	addeq	r0, r6, #0, 10
    8b5c:	0000250f 	andeq	r2, r0, pc, lsl #10
    8b60:	bb184800 	bllt	61ab68 <__bss_end__+0x610b38>
    8b64:	05000003 	streq	r0, [r0, #-3]
    8b68:	642c0287 	strtvs	r0, [ip], #-647	; 0xfffffd79
    8b6c:	50000000 	andpl	r0, r0, r0
    8b70:	00051718 	andeq	r1, r5, r8, lsl r7
    8b74:	02880500 	addeq	r0, r8, #0, 10
    8b78:	0006a01a 	andeq	sl, r6, sl, lsl r0
    8b7c:	c6185800 	ldrgt	r5, [r8], -r0, lsl #16
    8b80:	05000003 	streq	r0, [r0, #-3]
    8b84:	fd160289 	ldc2	2, cr0, [r6, #-548]	; 0xfffffddc
    8b88:	68000000 	stmdavs	r0, {}	; <UNPREDICTABLE>
    8b8c:	00051c18 	andeq	r1, r5, r8, lsl ip
    8b90:	028a0500 	addeq	r0, sl, #0, 10
    8b94:	0000fd16 	andeq	pc, r0, r6, lsl sp	; <UNPREDICTABLE>
    8b98:	ce187000 	cdpgt	0, 1, cr7, cr8, cr0, {0}
    8b9c:	05000002 	streq	r0, [r0, #-2]
    8ba0:	fd16028b 	ldc2	2, cr0, [r6, #-556]	; 0xfffffdd4
    8ba4:	78000000 	stmdavc	r0, {}	; <UNPREDICTABLE>
    8ba8:	0004cc18 	andeq	ip, r4, r8, lsl ip
    8bac:	028c0500 	addeq	r0, ip, #0, 10
    8bb0:	00080e10 	andeq	r0, r8, r0, lsl lr
    8bb4:	3e188000 	cdpcc	0, 1, cr8, cr8, cr0, {0}
    8bb8:	05000002 	streq	r0, [r0, #-2]
    8bbc:	1e10028d 	cdpne	2, 1, cr0, cr0, cr13, {4}
    8bc0:	88000008 	stmdahi	r0, {r3}
    8bc4:	00046c18 	andeq	r6, r4, r8, lsl ip
    8bc8:	028e0500 	addeq	r0, lr, #0, 10
    8bcc:	0000250f 	andeq	r2, r0, pc, lsl #10
    8bd0:	7e18a000 	cdpvc	0, 1, cr10, cr8, cr0, {0}
    8bd4:	05000001 	streq	r0, [r0, #-1]
    8bd8:	fd16028f 	ldc2	2, cr0, [r6, #-572]	; 0xfffffdc4
    8bdc:	a4000000 	strge	r0, [r0], #-0
    8be0:	00008f18 	andeq	r8, r0, r8, lsl pc
    8be4:	02900500 	addseq	r0, r0, #0, 10
    8be8:	0000fd16 	andeq	pc, r0, r6, lsl sp	; <UNPREDICTABLE>
    8bec:	6d18ac00 	ldcvs	12, cr10, [r8, #-0]
    8bf0:	05000001 	streq	r0, [r0, #-1]
    8bf4:	fd160291 	ldc2	2, cr0, [r6, #-580]	; 0xfffffdbc
    8bf8:	b4000000 	strlt	r0, [r0], #-0
    8bfc:	00003c18 	andeq	r3, r0, r8, lsl ip
    8c00:	02920500 	addseq	r0, r2, #0, 10
    8c04:	0000fd16 	andeq	pc, r0, r6, lsl sp	; <UNPREDICTABLE>
    8c08:	4b18bc00 	blmi	637c10 <__bss_end__+0x62dbe0>
    8c0c:	05000000 	streq	r0, [r0, #-0]
    8c10:	fd160293 	ldc2	2, cr0, [r6, #-588]	; 0xfffffdb4
    8c14:	c4000000 	strgt	r0, [r0], #-0
    8c18:	00036e18 	andeq	r6, r3, r8, lsl lr
    8c1c:	02940500 	addseq	r0, r4, #0, 10
    8c20:	00002508 	andeq	r2, r0, r8, lsl #10
    8c24:	0a00cc00 	beq	3bc2c <__bss_end__+0x31bfc>
    8c28:	0000011d 	andeq	r0, r0, sp, lsl r1
    8c2c:	0000080e 	andeq	r0, r0, lr, lsl #16
    8c30:	00002c0b 	andeq	r2, r0, fp, lsl #24
    8c34:	0a001900 	beq	f03c <__bss_end__+0x500c>
    8c38:	0000011d 	andeq	r0, r0, sp, lsl r1
    8c3c:	0000081e 	andeq	r0, r0, lr, lsl r8
    8c40:	00002c0b 	andeq	r2, r0, fp, lsl #24
    8c44:	0a000700 	beq	a84c <__bss_end__+0x81c>
    8c48:	0000011d 	andeq	r0, r0, sp, lsl r1
    8c4c:	0000082e 	andeq	r0, r0, lr, lsr #16
    8c50:	00002c0b 	andeq	r2, r0, fp, lsl #24
    8c54:	1b001700 	blne	e85c <__bss_end__+0x482c>
    8c58:	029905f0 	addseq	r0, r9, #240, 10	; 0x3c000000
    8c5c:	00085507 	andeq	r5, r8, r7, lsl #10
    8c60:	029a1800 	addseq	r1, sl, #0, 16
    8c64:	9c050000 	stcls	0, cr0, [r5], {-0}
    8c68:	08551b02 	ldmdaeq	r5, {r1, r8, r9, fp, ip}^
    8c6c:	18000000 	stmdane	r0, {}	; <UNPREDICTABLE>
    8c70:	000004c3 	andeq	r0, r0, r3, asr #9
    8c74:	18029d05 	stmdane	r2, {r0, r2, r8, sl, fp, ip, pc}
    8c78:	00000865 	andeq	r0, r0, r5, ror #16
    8c7c:	050a0078 	streq	r0, [sl, #-120]	; 0xffffff88
    8c80:	65000003 	strvs	r0, [r0, #-3]
    8c84:	0b000008 	bleq	8cac <emit+0xfc>
    8c88:	0000002c 	andeq	r0, r0, ip, lsr #32
    8c8c:	2c0a001d 	stccs	0, cr0, [sl], {29}
    8c90:	75000000 	strvc	r0, [r0, #-0]
    8c94:	0b000008 	bleq	8cbc <emit+0x10c>
    8c98:	0000002c 	andeq	r0, r0, ip, lsr #32
    8c9c:	f01c001d 			; <UNDEFINED> instruction: 0xf01c001d
    8ca0:	03027e05 	movweq	r7, #11781	; 0x2e05
    8ca4:	0000089a 	muleq	r0, sl, r8
    8ca8:	0004081d 	andeq	r0, r4, sp, lsl r8
    8cac:	02950500 	addseq	r0, r5, #0, 10
    8cb0:	0006e90b 	andeq	lr, r6, fp, lsl #18
    8cb4:	04ee1d00 	strbteq	r1, [lr], #3328	; 0xd00
    8cb8:	9e050000 	cdpls	0, 0, cr0, cr5, cr0, {0}
    8cbc:	082e0b02 	stmdaeq	lr!, {r1, r8, r9, fp}
    8cc0:	0a000000 	beq	8cc8 <emit+0x118>
    8cc4:	0000011d 	andeq	r0, r0, sp, lsl r1
    8cc8:	000008aa 	andeq	r0, r0, sl, lsr #17
    8ccc:	00002c0b 	andeq	r2, r0, fp, lsl #24
    8cd0:	06001800 	streq	r1, [r0], -r0, lsl #16
    8cd4:	00000084 	andeq	r0, r0, r4, lsl #1
    8cd8:	08aa0405 	stmiaeq	sl!, {r0, r2, sl}
    8cdc:	c01e0000 	andsgt	r0, lr, r0
    8ce0:	16000008 	strne	r0, [r0], -r8
    8ce4:	0000046c 	andeq	r0, r0, ip, ror #8
    8ce8:	b5040500 	strlt	r0, [r4, #-1280]	; 0xfffffb00
    8cec:	05000008 	streq	r0, [r0, #-8]
    8cf0:	00018f04 	andeq	r8, r1, r4, lsl #30
    8cf4:	08d71e00 	ldmeq	r7, {r9, sl, fp, ip}^
    8cf8:	25160000 	ldrcs	r0, [r6, #-0]
    8cfc:	00000000 	andeq	r0, r0, r0
    8d00:	08dd0405 	ldmeq	sp, {r0, r2, sl}^
    8d04:	04050000 	streq	r0, [r5], #-0
    8d08:	000008cc 	andeq	r0, r0, ip, asr #17
    8d0c:	00064e0a 	andeq	r4, r6, sl, lsl #28
    8d10:	0008f300 	andeq	pc, r8, r0, lsl #6
    8d14:	002c0b00 	eoreq	r0, ip, r0, lsl #22
    8d18:	00020000 	andeq	r0, r2, r0
    8d1c:	00048e1f 	andeq	r8, r4, pc, lsl lr
    8d20:	032e0500 			; <UNDEFINED> instruction: 0x032e0500
    8d24:	00046c17 	andeq	r6, r4, r7, lsl ip
    8d28:	04871f00 	streq	r1, [r7], #3840	; 0xf00
    8d2c:	2f050000 	svccs	0x00050000
    8d30:	04721d03 	ldrbteq	r1, [r2], #-3331	; 0xfffff2fd
    8d34:	25150000 	ldrcs	r0, [r5, #-0]
    8d38:	1c000000 	stcne	0, cr0, [r0], {-0}
    8d3c:	16000009 	strne	r0, [r0], -r9
    8d40:	00000025 	andeq	r0, r0, r5, lsr #32
    8d44:	01d12000 	bicseq	r2, r1, r0
    8d48:	1d060000 	stcne	0, cr0, [r6, #-0]
    8d4c:	0009280e 	andeq	r2, r9, lr, lsl #16
    8d50:	0d040500 	cfstr32eq	mvfx0, [r4, #-0]
    8d54:	15000009 	strne	r0, [r0, #-9]
    8d58:	00000025 	andeq	r0, r0, r5, lsr #32
    8d5c:	0000093d 	andeq	r0, r0, sp, lsr r9
    8d60:	0005e416 	andeq	lr, r5, r6, lsl r4
    8d64:	68200000 	stmdavs	r0!, {}	; <UNPREDICTABLE>
    8d68:	06000007 	streq	r0, [r0], -r7
    8d6c:	09490e22 	stmdbeq	r9, {r1, r5, r9, sl, fp}^
    8d70:	04050000 	streq	r0, [r5], #-0
    8d74:	0000092e 	andeq	r0, r0, lr, lsr #18
    8d78:	0008bc21 	andeq	fp, r8, r1, lsr #24
    8d7c:	062b0100 	strteq	r0, [fp], -r0, lsl #2
    8d80:	000091a0 	andeq	r9, r0, r0, lsr #3
    8d84:	00000018 	andeq	r0, r0, r8, lsl r0
    8d88:	09999c01 	ldmibeq	r9, {r0, sl, fp, ip, pc}
    8d8c:	73220000 			; <UNDEFINED> instruction: 0x73220000
    8d90:	01006365 	tsteq	r0, r5, ror #6
    8d94:	002c192b 	eoreq	r1, ip, fp, lsr #18
    8d98:	126e0000 	rsbne	r0, lr, #0
    8d9c:	126a0000 	rsbne	r0, sl, #0
    8da0:	b4230000 	strtlt	r0, [r3], #-0
    8da4:	99000091 	stmdbls	r0, {r0, r4, r7}
    8da8:	24000009 	strcs	r0, [r0], #-9
    8dac:	f3115001 	vhadd.u16	d5, d1, d1
    8db0:	24355001 	ldrtcs	r5, [r5], #-1
    8db4:	1c5001f3 	ldfnee	f0, [r0], {243}	; 0xf3
    8db8:	01f32432 	mvnseq	r2, r2, lsr r4
    8dbc:	24332250 	ldrtcs	r2, [r3], #-592	; 0xfffffdb0
    8dc0:	ec210000 	stc	0, cr0, [r1], #-0
    8dc4:	01000007 	tsteq	r0, r7
    8dc8:	91880628 	orrls	r0, r8, r8, lsr #12
    8dcc:	00180000 	andseq	r0, r8, r0
    8dd0:	9c010000 	stcls	0, cr0, [r1], {-0}
    8dd4:	000009e2 	andeq	r0, r0, r2, ror #19
    8dd8:	00736d22 	rsbseq	r6, r3, r2, lsr #26
    8ddc:	2c182801 	ldccs	8, cr2, [r8], {1}
    8de0:	93000000 	movwls	r0, #0
    8de4:	8f000012 	svchi	0x00000012
    8de8:	23000012 	movwcs	r0, #18
    8dec:	0000919c 	muleq	r0, ip, r1
    8df0:	000009e2 	andeq	r0, r0, r2, ror #19
    8df4:	11500124 	cmpne	r0, r4, lsr #2
    8df8:	355001f3 	ldrbcc	r0, [r0, #-499]	; 0xfffffe0d
    8dfc:	5001f324 	andpl	pc, r1, r4, lsr #6
    8e00:	f324321c 	vqsub.u32	d3, d4, d12
    8e04:	33225001 			; <UNDEFINED> instruction: 0x33225001
    8e08:	21000024 	tstcs	r0, r4, lsr #32
    8e0c:	00000904 	andeq	r0, r0, r4, lsl #18
    8e10:	64061f01 	strvs	r1, [r6], #-3841	; 0xfffff0ff
    8e14:	24000091 	strcs	r0, [r0], #-145	; 0xffffff6f
    8e18:	01000000 	mrseq	r0, (UNDEF: 0)
    8e1c:	000a529c 	muleq	sl, ip, r2
    8e20:	73752200 	cmnvc	r5, #0, 4
    8e24:	181f0100 	ldmdane	pc, {r8}	; <UNPREDICTABLE>
    8e28:	0000002c 	andeq	r0, r0, ip, lsr #32
    8e2c:	000012b8 			; <UNDEFINED> instruction: 0x000012b8
    8e30:	000012b4 			; <UNDEFINED> instruction: 0x000012b4
    8e34:	00627225 	rsbeq	r7, r2, r5, lsr #4
    8e38:	2c0e2001 	stccs	0, cr2, [lr], {1}
    8e3c:	d8000000 	stmdale	r0, {}	; <UNPREDICTABLE>
    8e40:	d6000012 			; <UNDEFINED> instruction: 0xd6000012
    8e44:	26000012 			; <UNDEFINED> instruction: 0x26000012
    8e48:	00009174 	andeq	r9, r0, r4, ror r1
    8e4c:	00000014 	andeq	r0, r0, r4, lsl r0
    8e50:	00000a48 	andeq	r0, r0, r8, asr #20
    8e54:	00617225 	rsbeq	r7, r1, r5, lsr #4
    8e58:	2c122201 	lfmcs	f2, 4, [r2], {1}
    8e5c:	ed000000 	stc	0, cr0, [r0, #-0]
    8e60:	eb000012 	bl	8eb0 <va_printk+0x100>
    8e64:	27000012 	smladcs	r0, r2, r0, r0
    8e68:	00009178 	andeq	r9, r0, r8, ror r1
    8e6c:	00000a52 	andeq	r0, r0, r2, asr sl
    8e70:	91702700 	cmnls	r0, r0, lsl #14
    8e74:	0a520000 	beq	1488e7c <__bss_end__+0x147ee4c>
    8e78:	28000000 	stmdacs	r0, {}	; <UNPREDICTABLE>
    8e7c:	000008ad 	andeq	r0, r0, sp, lsr #17
    8e80:	2c0a1601 	stccs	6, cr1, [sl], {1}
    8e84:	58000000 	stmdapl	r0, {}	; <UNPREDICTABLE>
    8e88:	0c000091 	stceq	0, cr0, [r0], {145}	; 0x91
    8e8c:	01000000 	mrseq	r0, (UNDEF: 0)
    8e90:	000a889c 	muleq	sl, ip, r8
    8e94:	00752500 	rsbseq	r2, r5, r0, lsl #10
    8e98:	2c0e1a01 			; <UNDEFINED> instruction: 0x2c0e1a01
    8e9c:	02000000 	andeq	r0, r0, #0
    8ea0:	00000013 	andeq	r0, r0, r3, lsl r0
    8ea4:	27000013 	smladcs	r0, r3, r0, r0
    8ea8:	00009160 	andeq	r9, r0, r0, ror #2
    8eac:	00000a88 	andeq	r0, r0, r8, lsl #21
    8eb0:	08f12800 	ldmeq	r1!, {fp, sp}^
    8eb4:	11010000 	mrsne	r0, (UNDEF: 1)
    8eb8:	00002c0a 	andeq	r2, r0, sl, lsl #24
    8ebc:	00914400 	addseq	r4, r1, r0, lsl #8
    8ec0:	00001400 	andeq	r1, r0, r0, lsl #8
    8ec4:	b69c0100 	ldrlt	r0, [ip], r0, lsl #2
    8ec8:	2300000a 	movwcs	r0, #10
    8ecc:	00009150 	andeq	r9, r0, r0, asr r1
    8ed0:	00000ae1 	andeq	r0, r0, r1, ror #21
    8ed4:	05500124 	ldrbeq	r0, [r0, #-292]	; 0xfffffedc
    8ed8:	0030040c 	eorseq	r0, r0, ip, lsl #8
    8edc:	21000020 	tstcs	r0, r0, lsr #32
    8ee0:	000008c6 	andeq	r0, r0, r6, asr #17
    8ee4:	2c060501 	cfstr32cs	mvfx0, [r6], {1}
    8ee8:	18000091 	stmdane	r0, {r0, r4, r7}
    8eec:	01000000 	mrseq	r0, (UNDEF: 0)
    8ef0:	000ae19c 	muleq	sl, ip, r1
    8ef4:	08e52900 	stmiaeq	r5!, {r8, fp, sp}^
    8ef8:	05010000 	streq	r0, [r1, #-0]
    8efc:	00002c1c 	andeq	r2, r0, ip, lsl ip
    8f00:	00131900 	andseq	r1, r3, r0, lsl #18
    8f04:	00131500 	andseq	r1, r3, r0, lsl #10
    8f08:	eb2a0000 	bl	a88f10 <__bss_end__+0xa7eee0>
    8f0c:	eb000008 	bl	8f34 <va_printk+0x184>
    8f10:	06000008 	streq	r0, [r0], -r8
    8f14:	c5000aa7 	strgt	r0, [r0, #-2727]	; 0xfffff559
    8f18:	0400000c 	streq	r0, [r0], #-12
    8f1c:	001cb600 	andseq	fp, ip, r0, lsl #12
    8f20:	1c010400 	cfstrsne	mvf0, [r1], {-0}
    8f24:	0c00000a 	stceq	0, cr0, [r0], {10}
    8f28:	00000940 	andeq	r0, r0, r0, asr #18
    8f2c:	00000953 	andeq	r0, r0, r3, asr r9
    8f30:	00009204 	andeq	r9, r0, r4, lsl #4
    8f34:	00000178 	andeq	r0, r0, r8, ror r1
    8f38:	000018ab 	andeq	r1, r0, fp, lsr #17
    8f3c:	69050402 	stmdbvs	r5, {r1, sl}
    8f40:	0300746e 	movweq	r7, #1134	; 0x46e
    8f44:	00660704 	rsbeq	r0, r6, r4, lsl #14
    8f48:	2c040000 	stccs	0, cr0, [r4], {-0}
    8f4c:	03000000 	movweq	r0, #0
    8f50:	02de0601 	sbcseq	r0, lr, #1048576	; 0x100000
    8f54:	02030000 	andeq	r0, r3, #0
    8f58:	00037705 	andeq	r7, r3, r5, lsl #14
    8f5c:	05040300 	streq	r0, [r4, #-768]	; 0xfffffd00
    8f60:	000000ac 	andeq	r0, r0, ip, lsr #1
    8f64:	a7050803 	strge	r0, [r5, -r3, lsl #16]
    8f68:	03000000 	movweq	r0, #0
    8f6c:	02dc0801 	sbcseq	r0, ip, #65536	; 0x10000
    8f70:	02030000 	andeq	r0, r3, #0
    8f74:	00022207 	andeq	r2, r2, r7, lsl #4
    8f78:	07040300 	streq	r0, [r4, -r0, lsl #6]
    8f7c:	00000061 	andeq	r0, r0, r1, rrx
    8f80:	5c070803 	stcpl	8, cr0, [r7], {3}
    8f84:	05000000 	streq	r0, [r0, #-0]
    8f88:	000009e7 	andeq	r0, r0, r7, ror #19
    8f8c:	00250702 	eoreq	r0, r5, r2, lsl #14
    8f90:	bd050000 	stclt	0, cr0, [r5, #-0]
    8f94:	03000002 	movweq	r0, #2
    8f98:	0000462c 	andeq	r4, r0, ip, lsr #12
    8f9c:	04320500 	ldrteq	r0, [r2], #-1280	; 0xfffffb00
    8fa0:	72030000 	andvc	r0, r3, #0
    8fa4:	00000046 	andeq	r0, r0, r6, asr #32
    8fa8:	00026d06 	andeq	r6, r2, r6, lsl #26
    8fac:	01650400 	cmneq	r5, r0, lsl #8
    8fb0:	0000002c 	andeq	r0, r0, ip, lsr #32
    8fb4:	a6030407 	strge	r0, [r3], -r7, lsl #8
    8fb8:	000000bc 	strheq	r0, [r0], -ip
    8fbc:	00025f08 	andeq	r5, r2, r8, lsl #30
    8fc0:	91a80300 			; <UNDEFINED> instruction: 0x91a80300
    8fc4:	08000000 	stmdaeq	r0, {}	; <UNPREDICTABLE>
    8fc8:	000001e2 	andeq	r0, r0, r2, ror #3
    8fcc:	00bca903 	adcseq	sl, ip, r3, lsl #18
    8fd0:	09000000 	stmdbeq	r0, {}	; <UNPREDICTABLE>
    8fd4:	00000054 	andeq	r0, r0, r4, asr r0
    8fd8:	000000cc 	andeq	r0, r0, ip, asr #1
    8fdc:	0000cc0a 	andeq	ip, r0, sl, lsl #24
    8fe0:	03000300 	movweq	r0, #768	; 0x300
    8fe4:	09c70704 	stmibeq	r7, {r2, r8, r9, sl}^
    8fe8:	080b0000 	stmdaeq	fp, {}	; <UNPREDICTABLE>
    8fec:	00f4a303 	rscseq	sl, r4, r3, lsl #6
    8ff0:	150c0000 	strne	r0, [ip, #-0]
    8ff4:	03000004 	movweq	r0, #4
    8ff8:	000025a5 	andeq	r2, r0, r5, lsr #11
    8ffc:	240c0000 	strcs	r0, [ip], #-0
    9000:	03000004 	movweq	r0, #4
    9004:	00009daa 	andeq	r9, r0, sl, lsr #27
    9008:	05000400 	streq	r0, [r0, #-1024]	; 0xfffffc00
    900c:	0000039f 	muleq	r0, pc, r3	; <UNPREDICTABLE>
    9010:	00d3ab03 	sbcseq	sl, r3, r3, lsl #22
    9014:	9f050000 	svcls	0x00050000
    9018:	03000001 	movweq	r0, #1
    901c:	000070af 	andeq	r7, r0, pc, lsr #1
    9020:	0e040d00 	cdpeq	13, 0, cr0, cr4, cr0, {0}
    9024:	00011204 	andeq	r1, r1, r4, lsl #4
    9028:	08010300 	stmdaeq	r1, {r8, r9}
    902c:	000002e5 	andeq	r0, r0, r5, ror #5
    9030:	0001120f 	andeq	r1, r1, pc, lsl #4
    9034:	04640500 	strbteq	r0, [r4], #-1280	; 0xfffffb00
    9038:	16050000 	strne	r0, [r5], -r0
    903c:	00000062 	andeq	r0, r0, r2, rrx
    9040:	0001b010 	andeq	fp, r1, r0, lsl r0
    9044:	2d051800 	stccs	8, cr1, [r5, #-0]
    9048:	0000017c 	andeq	r0, r0, ip, ror r1
    904c:	0003c00c 	andeq	ip, r3, ip
    9050:	7c2f0500 	cfstr32vc	mvfx0, [pc], #-0	; 9058 <va_printk+0x2a8>
    9054:	00000001 	andeq	r0, r0, r1
    9058:	006b5f11 	rsbeq	r5, fp, r1, lsl pc
    905c:	00253005 	eoreq	r3, r5, r5
    9060:	0c040000 	stceq	0, cr0, [r4], {-0}
    9064:	00000400 	andeq	r0, r0, r0, lsl #8
    9068:	00253005 	eoreq	r3, r5, r5
    906c:	0c080000 	stceq	0, cr0, [r8], {-0}
    9070:	00000199 	muleq	r0, r9, r1
    9074:	00253005 	eoreq	r3, r5, r5
    9078:	0c0c0000 	stceq	0, cr0, [ip], {-0}
    907c:	000004ae 	andeq	r0, r0, lr, lsr #9
    9080:	00253005 	eoreq	r3, r5, r5
    9084:	11100000 	tstne	r0, r0
    9088:	0500785f 	streq	r7, [r0, #-2143]	; 0xfffff7a1
    908c:	00018231 	andeq	r8, r1, r1, lsr r2
    9090:	0e001400 	cfcpyseq	mvf1, mvf0
    9094:	00012904 	andeq	r2, r1, r4, lsl #18
    9098:	011e0900 	tsteq	lr, r0, lsl #18
    909c:	01920000 	orrseq	r0, r2, r0
    90a0:	cc0a0000 	stcgt	0, cr0, [sl], {-0}
    90a4:	00000000 	andeq	r0, r0, r0
    90a8:	01dd1000 	bicseq	r1, sp, r0
    90ac:	05240000 	streq	r0, [r4, #-0]!
    90b0:	00020b35 	andeq	r0, r2, r5, lsr fp
    90b4:	009e0c00 	addseq	r0, lr, r0, lsl #24
    90b8:	37050000 	strcc	r0, [r5, -r0]
    90bc:	00000025 	andeq	r0, r0, r5, lsr #32
    90c0:	043a0c00 	ldrteq	r0, [sl], #-3072	; 0xfffff400
    90c4:	38050000 	stmdacc	r5, {}	; <UNPREDICTABLE>
    90c8:	00000025 	andeq	r0, r0, r5, lsr #32
    90cc:	00c10c04 	sbceq	r0, r1, r4, lsl #24
    90d0:	39050000 	stmdbcc	r5, {}	; <UNPREDICTABLE>
    90d4:	00000025 	andeq	r0, r0, r5, lsr #32
    90d8:	052f0c08 	streq	r0, [pc, #-3080]!	; 84d8 <check_block+0x60>
    90dc:	3a050000 	bcc	1490e4 <__bss_end__+0x13f0b4>
    90e0:	00000025 	andeq	r0, r0, r5, lsr #32
    90e4:	02a10c0c 	adceq	r0, r1, #12, 24	; 0xc00
    90e8:	3b050000 	blcc	1490f0 <__bss_end__+0x13f0c0>
    90ec:	00000025 	andeq	r0, r0, r5, lsr #32
    90f0:	02830c10 	addeq	r0, r3, #16, 24	; 0x1000
    90f4:	3c050000 	stccc	0, cr0, [r5], {-0}
    90f8:	00000025 	andeq	r0, r0, r5, lsr #32
    90fc:	04b30c14 	ldrteq	r0, [r3], #3092	; 0xc14
    9100:	3d050000 	stccc	0, cr0, [r5, #-0]
    9104:	00000025 	andeq	r0, r0, r5, lsr #32
    9108:	03810c18 	orreq	r0, r1, #24, 24	; 0x1800
    910c:	3e050000 	cdpcc	0, 0, cr0, cr5, cr0, {0}
    9110:	00000025 	andeq	r0, r0, r5, lsr #32
    9114:	04f60c1c 	ldrbteq	r0, [r6], #3100	; 0xc1c
    9118:	3f050000 	svccc	0x00050000
    911c:	00000025 	andeq	r0, r0, r5, lsr #32
    9120:	01120020 	tsteq	r2, r0, lsr #32
    9124:	08000001 	stmdaeq	r0, {r0}
    9128:	4b480501 	blmi	120a534 <__bss_end__+0x1200504>
    912c:	0c000002 	stceq	0, cr0, [r0], {2}
    9130:	0000018c 	andeq	r0, r0, ip, lsl #3
    9134:	024b4905 	subeq	r4, fp, #81920	; 0x14000
    9138:	0c000000 	stceq	0, cr0, [r0], {-0}
    913c:	00000000 	andeq	r0, r0, r0
    9140:	024b4a05 	subeq	r4, fp, #20480	; 0x5000
    9144:	13800000 	orrne	r0, r0, #0
    9148:	00000456 	andeq	r0, r0, r6, asr r4
    914c:	011e4c05 	tsteq	lr, r5, lsl #24
    9150:	01000000 	mrseq	r0, (UNDEF: 0)
    9154:	00012613 	andeq	r2, r1, r3, lsl r6
    9158:	1e4f0500 	cdpne	5, 4, cr0, cr15, cr0, {0}
    915c:	04000001 	streq	r0, [r0], #-1
    9160:	0a090001 	beq	24916c <__bss_end__+0x23f13c>
    9164:	5b000001 	blpl	9170 <delay_us+0xc>
    9168:	0a000002 	beq	9178 <delay_us+0x14>
    916c:	000000cc 	andeq	r0, r0, ip, asr #1
    9170:	aa12001f 	bge	4891f4 <__bss_end__+0x47f1c4>
    9174:	90000002 	andls	r0, r0, r2
    9178:	995b0501 	ldmdbls	fp, {r0, r8, sl}^
    917c:	0c000002 	stceq	0, cr0, [r0], {2}
    9180:	000003c0 	andeq	r0, r0, r0, asr #7
    9184:	02995c05 	addseq	r5, r9, #1280	; 0x500
    9188:	0c000000 	stceq	0, cr0, [r0], {-0}
    918c:	000003d8 	ldrdeq	r0, [r0], -r8
    9190:	00255d05 	eoreq	r5, r5, r5, lsl #26
    9194:	0c040000 	stceq	0, cr0, [r4], {-0}
    9198:	00000194 	muleq	r0, r4, r1
    919c:	029f5f05 	addseq	r5, pc, #5, 30
    91a0:	0c080000 	stceq	0, cr0, [r8], {-0}
    91a4:	00000101 	andeq	r0, r0, r1, lsl #2
    91a8:	020b6005 	andeq	r6, fp, #5
    91ac:	00880000 	addeq	r0, r8, r0
    91b0:	025b040e 	subseq	r0, fp, #234881024	; 0xe000000
    91b4:	af090000 	svcge	0x00090000
    91b8:	af000002 	svcge	0x00000002
    91bc:	0a000002 	beq	91cc <put16+0x4>
    91c0:	000000cc 	andeq	r0, r0, ip, asr #1
    91c4:	040e001f 	streq	r0, [lr], #-31	; 0xffffffe1
    91c8:	000002b5 			; <UNDEFINED> instruction: 0x000002b5
    91cc:	038b1014 	orreq	r1, fp, #20
    91d0:	05080000 	streq	r0, [r8, #-0]
    91d4:	0002db73 	andeq	sp, r2, r3, ror fp
    91d8:	00bb0c00 	adcseq	r0, fp, r0, lsl #24
    91dc:	74050000 	strvc	r0, [r5], #-0
    91e0:	000002db 	ldrdeq	r0, [r0], -fp
    91e4:	001b0c00 	andseq	r0, fp, r0, lsl #24
    91e8:	75050000 	strvc	r0, [r5, #-0]
    91ec:	00000025 	andeq	r0, r0, r5, lsr #32
    91f0:	040e0004 	streq	r0, [lr], #-4
    91f4:	00000054 	andeq	r0, r0, r4, asr r0
    91f8:	0003aa10 	andeq	sl, r3, r0, lsl sl
    91fc:	b3056800 	movwlt	r6, #22528	; 0x5800
    9200:	0000040b 	andeq	r0, r0, fp, lsl #8
    9204:	00705f11 	rsbseq	r5, r0, r1, lsl pc
    9208:	02dbb405 	sbcseq	fp, fp, #83886080	; 0x5000000
    920c:	11000000 	mrsne	r0, (UNDEF: 0)
    9210:	0500725f 	streq	r7, [r0, #-607]	; 0xfffffda1
    9214:	000025b5 			; <UNDEFINED> instruction: 0x000025b5
    9218:	5f110400 	svcpl	0x00110400
    921c:	b6050077 			; <UNDEFINED> instruction: 0xb6050077
    9220:	00000025 	andeq	r0, r0, r5, lsr #32
    9224:	011f0c08 	tsteq	pc, r8, lsl #24
    9228:	b7050000 	strlt	r0, [r5, -r0]
    922c:	0000003f 	andeq	r0, r0, pc, lsr r0
    9230:	02080c0c 	andeq	r0, r8, #12, 24	; 0xc00
    9234:	b8050000 	stmdalt	r5, {}	; <UNPREDICTABLE>
    9238:	0000003f 	andeq	r0, r0, pc, lsr r0
    923c:	625f110e 	subsvs	r1, pc, #-2147483645	; 0x80000003
    9240:	b9050066 	stmdblt	r5, {r1, r2, r5, r6}
    9244:	000002b6 			; <UNDEFINED> instruction: 0x000002b6
    9248:	007b0c10 	rsbseq	r0, fp, r0, lsl ip
    924c:	ba050000 	blt	149254 <__bss_end__+0x13f224>
    9250:	00000025 	andeq	r0, r0, r5, lsr #32
    9254:	010f0c18 	tsteq	pc, r8, lsl ip	; <UNPREDICTABLE>
    9258:	c1050000 	mrsgt	r0, (UNDEF: 5)
    925c:	0000010a 	andeq	r0, r0, sl, lsl #2
    9260:	0b240c1c 	bleq	90c2d8 <__bss_end__+0x9022a8>
    9264:	c3050000 	movwgt	r0, #20480	; 0x5000
    9268:	00000566 	andeq	r0, r0, r6, ror #10
    926c:	06190c20 	ldreq	r0, [r9], -r0, lsr #24
    9270:	c5050000 	strgt	r0, [r5, #-0]
    9274:	00000590 	muleq	r0, r0, r5
    9278:	042c0c24 	strteq	r0, [ip], #-3108	; 0xfffff3dc
    927c:	c8050000 	stmdagt	r5, {}	; <UNPREDICTABLE>
    9280:	000005b4 			; <UNDEFINED> instruction: 0x000005b4
    9284:	05100c28 	ldreq	r0, [r0, #-3112]	; 0xfffff3d8
    9288:	c9050000 	stmdbgt	r5, {}	; <UNPREDICTABLE>
    928c:	000005ce 	andeq	r0, r0, lr, asr #11
    9290:	755f112c 	ldrbvc	r1, [pc, #-300]	; 916c <delay_us+0x8>
    9294:	cc050062 	stcgt	0, cr0, [r5], {98}	; 0x62
    9298:	000002b6 			; <UNDEFINED> instruction: 0x000002b6
    929c:	755f1130 	ldrbvc	r1, [pc, #-304]	; 9174 <delay_us+0x10>
    92a0:	cd050070 	stcgt	0, cr0, [r5, #-448]	; 0xfffffe40
    92a4:	000002db 	ldrdeq	r0, [r0], -fp
    92a8:	755f1138 	ldrbvc	r1, [pc, #-312]	; 9178 <delay_us+0x14>
    92ac:	ce050072 	mcrgt	0, 0, r0, cr5, cr2, {3}
    92b0:	00000025 	andeq	r0, r0, r5, lsr #32
    92b4:	00b50c3c 	adcseq	r0, r5, ip, lsr ip
    92b8:	d1050000 	mrsle	r0, (UNDEF: 5)
    92bc:	000005d4 	ldrdeq	r0, [r0], -r4
    92c0:	04e80c40 	strbteq	r0, [r8], #3136	; 0xc40
    92c4:	d2050000 	andle	r0, r5, #0
    92c8:	000005e4 	andeq	r0, r0, r4, ror #11
    92cc:	6c5f1143 	ldfvse	f1, [pc], {67}	; 0x43
    92d0:	d5050062 	strle	r0, [r5, #-98]	; 0xffffff9e
    92d4:	000002b6 			; <UNDEFINED> instruction: 0x000002b6
    92d8:	013d0c44 	teqeq	sp, r4, asr #24
    92dc:	d8050000 	stmdale	r5, {}	; <UNPREDICTABLE>
    92e0:	00000025 	andeq	r0, r0, r5, lsr #32
    92e4:	014e0c4c 	cmpeq	lr, ip, asr #24
    92e8:	d9050000 	stmdble	r5, {}	; <UNPREDICTABLE>
    92ec:	0000007b 	andeq	r0, r0, fp, ror r0
    92f0:	0ac50c50 	beq	ff14c438 <__bss_end__+0xff142408>
    92f4:	dc050000 	stcle	0, cr0, [r5], {-0}
    92f8:	00000429 	andeq	r0, r0, r9, lsr #8
    92fc:	041e0c54 	ldreq	r0, [lr], #-3156	; 0xfffff3ac
    9300:	e0050000 	and	r0, r5, r0
    9304:	000000ff 	strdeq	r0, [r0], -pc	; <UNPREDICTABLE>
    9308:	03b20c58 			; <UNDEFINED> instruction: 0x03b20c58
    930c:	e2050000 	and	r0, r5, #0
    9310:	000000f4 	strdeq	r0, [r0], -r4
    9314:	027b0c5c 	rsbseq	r0, fp, #92, 24	; 0x5c00
    9318:	e3050000 	movw	r0, #20480	; 0x5000
    931c:	00000025 	andeq	r0, r0, r5, lsr #32
    9320:	25150064 	ldrcs	r0, [r5, #-100]	; 0xffffff9c
    9324:	29000000 	stmdbcs	r0, {}	; <UNPREDICTABLE>
    9328:	16000004 	strne	r0, [r0], -r4
    932c:	00000429 	andeq	r0, r0, r9, lsr #8
    9330:	00010a16 	andeq	r0, r1, r6, lsl sl
    9334:	010c1600 	tsteq	ip, r0, lsl #12
    9338:	25160000 	ldrcs	r0, [r6, #-0]
    933c:	00000000 	andeq	r0, r0, r0
    9340:	0434040e 	ldrteq	r0, [r4], #-1038	; 0xfffffbf2
    9344:	290f0000 	stmdbcs	pc, {}	; <UNPREDICTABLE>
    9348:	17000004 	strne	r0, [r0, -r4]
    934c:	00000408 	andeq	r0, r0, r8, lsl #8
    9350:	38050428 	stmdacc	r5, {r3, r5, sl}
    9354:	00056602 	andeq	r6, r5, r2, lsl #12
    9358:	03701800 	cmneq	r0, #0, 16
    935c:	3a050000 	bcc	149364 <__bss_end__+0x13f334>
    9360:	00002502 	andeq	r2, r0, r2, lsl #10
    9364:	2e180000 	cdpcs	0, 1, cr0, cr8, cr0, {0}
    9368:	05000001 	streq	r0, [r0, #-1]
    936c:	063b023f 			; <UNDEFINED> instruction: 0x063b023f
    9370:	18040000 	stmdane	r4, {}	; <UNPREDICTABLE>
    9374:	000001f8 	strdeq	r0, [r0], -r8
    9378:	3b023f05 	blcc	98f94 <__bss_end__+0x8ef64>
    937c:	08000006 	stmdaeq	r0, {r1, r2}
    9380:	0001a818 	andeq	sl, r1, r8, lsl r8
    9384:	023f0500 	eorseq	r0, pc, #0, 10
    9388:	0000063b 	andeq	r0, r0, fp, lsr r6
    938c:	03d3180c 	bicseq	r1, r3, #12, 16	; 0xc0000
    9390:	41050000 	mrsmi	r0, (UNDEF: 5)
    9394:	00002502 	andeq	r2, r0, r2, lsl #10
    9398:	29181000 	ldmdbcs	r8, {ip}
    939c:	05000000 	streq	r0, [r0, #-0]
    93a0:	081d0242 	ldmdaeq	sp, {r1, r6, r9}
    93a4:	18140000 	ldmdane	r4, {}	; <UNPREDICTABLE>
    93a8:	00000a7e 	andeq	r0, r0, lr, ror sl
    93ac:	25024405 	strcs	r4, [r2, #-1029]	; 0xfffffbfb
    93b0:	30000000 	andcc	r0, r0, r0
    93b4:	0009f918 	andeq	pc, r9, r8, lsl r9	; <UNPREDICTABLE>
    93b8:	02450500 	subeq	r0, r5, #0, 10
    93bc:	0000058a 	andeq	r0, r0, sl, lsl #11
    93c0:	02b21834 	adcseq	r1, r2, #52, 16	; 0x340000
    93c4:	47050000 	strmi	r0, [r5, -r0]
    93c8:	00002502 	andeq	r2, r0, r2, lsl #10
    93cc:	dd183800 	ldcle	8, cr3, [r8, #-0]
    93d0:	05000003 	streq	r0, [r0, #-3]
    93d4:	08380249 	ldmdaeq	r8!, {r0, r3, r6, r9}
    93d8:	183c0000 	ldmdane	ip!, {}	; <UNPREDICTABLE>
    93dc:	00000257 	andeq	r0, r0, r7, asr r2
    93e0:	7c024c05 	stcvc	12, cr4, [r2], {5}
    93e4:	40000001 	andmi	r0, r0, r1
    93e8:	0001c718 	andeq	ip, r1, r8, lsl r7
    93ec:	024d0500 	subeq	r0, sp, #0, 10
    93f0:	00000025 	andeq	r0, r0, r5, lsr #32
    93f4:	052a1844 	streq	r1, [sl, #-2116]!	; 0xfffff7bc
    93f8:	4e050000 	cdpmi	0, 0, cr0, cr5, cr0, {0}
    93fc:	00017c02 	andeq	r7, r1, r2, lsl #24
    9400:	c4184800 	ldrgt	r4, [r8], #-2048	; 0xfffff800
    9404:	05000002 	streq	r0, [r0, #-2]
    9408:	083e024f 	ldmdaeq	lr!, {r0, r1, r2, r3, r6, r9}
    940c:	184c0000 	stmdane	ip, {}^	; <UNPREDICTABLE>
    9410:	00000200 	andeq	r0, r0, r0, lsl #4
    9414:	25025205 	strcs	r5, [r2, #-517]	; 0xfffffdfb
    9418:	50000000 	andpl	r0, r0, r0
    941c:	00014618 	andeq	r4, r1, r8, lsl r6
    9420:	02530500 	subseq	r0, r3, #0, 10
    9424:	0000010c 	andeq	r0, r0, ip, lsl #2
    9428:	02ea1854 	rsceq	r1, sl, #84, 16	; 0x540000
    942c:	76050000 	strvc	r0, [r5], -r0
    9430:	0007fb02 	andeq	pc, r7, r2, lsl #22
    9434:	aa195800 	bge	65f43c <__bss_end__+0x65540c>
    9438:	05000002 	streq	r0, [r0, #-2]
    943c:	0299027a 	addseq	r0, r9, #-1610612729	; 0xa0000007
    9440:	01480000 	mrseq	r0, (UNDEF: 72)
    9444:	00023519 	andeq	r3, r2, r9, lsl r5
    9448:	027b0500 	rsbseq	r0, fp, #0, 10
    944c:	0000025b 	andeq	r0, r0, fp, asr r2
    9450:	d619014c 	ldrle	r0, [r9], -ip, asr #2
    9454:	05000004 	streq	r0, [r0, #-4]
    9458:	084f027f 	stmdaeq	pc, {r0, r1, r2, r3, r4, r5, r6, r9}^	; <UNPREDICTABLE>
    945c:	02dc0000 	sbcseq	r0, ip, #0
    9460:	00011719 	andeq	r1, r1, r9, lsl r7
    9464:	02840500 	addeq	r0, r4, #0, 10
    9468:	00000600 	andeq	r0, r0, r0, lsl #12
    946c:	fc1902e0 	ldc2	2, cr0, [r9], {224}	; 0xe0
    9470:	05000000 	streq	r0, [r0, #-0]
    9474:	085b0285 	ldmdaeq	fp, {r0, r2, r7, r9}^
    9478:	02ec0000 	rsceq	r0, ip, #0
    947c:	0b040e00 	bleq	10cc84 <__bss_end__+0x102c54>
    9480:	15000004 	strne	r0, [r0, #-4]
    9484:	00000025 	andeq	r0, r0, r5, lsr #32
    9488:	0000058a 	andeq	r0, r0, sl, lsl #11
    948c:	00042916 	andeq	r2, r4, r6, lsl r9
    9490:	010a1600 	tsteq	sl, r0, lsl #12
    9494:	8a160000 	bhi	58949c <__bss_end__+0x57f46c>
    9498:	16000005 	strne	r0, [r0], -r5
    949c:	00000025 	andeq	r0, r0, r5, lsr #32
    94a0:	19040e00 	stmdbne	r4, {r9, sl, fp}
    94a4:	0e000001 	cdpeq	0, 0, cr0, cr0, cr1, {0}
    94a8:	00056c04 	andeq	r6, r5, r4, lsl #24
    94ac:	00861500 	addeq	r1, r6, r0, lsl #10
    94b0:	05b40000 	ldreq	r0, [r4, #0]!
    94b4:	29160000 	ldmdbcs	r6, {}	; <UNPREDICTABLE>
    94b8:	16000004 	strne	r0, [r0], -r4
    94bc:	0000010a 	andeq	r0, r0, sl, lsl #2
    94c0:	00008616 	andeq	r8, r0, r6, lsl r6
    94c4:	00251600 	eoreq	r1, r5, r0, lsl #12
    94c8:	0e000000 	cdpeq	0, 0, cr0, cr0, cr0, {0}
    94cc:	00059604 	andeq	r9, r5, r4, lsl #12
    94d0:	00251500 	eoreq	r1, r5, r0, lsl #10
    94d4:	05ce0000 	strbeq	r0, [lr]
    94d8:	29160000 	ldmdbcs	r6, {}	; <UNPREDICTABLE>
    94dc:	16000004 	strne	r0, [r0], -r4
    94e0:	0000010a 	andeq	r0, r0, sl, lsl #2
    94e4:	ba040e00 	blt	10ccec <__bss_end__+0x102cbc>
    94e8:	09000005 	stmdbeq	r0, {r0, r2}
    94ec:	00000054 	andeq	r0, r0, r4, asr r0
    94f0:	000005e4 	andeq	r0, r0, r4, ror #11
    94f4:	0000cc0a 	andeq	ip, r0, sl, lsl #24
    94f8:	09000200 	stmdbeq	r0, {r9}
    94fc:	00000054 	andeq	r0, r0, r4, asr r0
    9500:	000005f4 	strdeq	r0, [r0], -r4
    9504:	0000cc0a 	andeq	ip, r0, sl, lsl #24
    9508:	06000000 	streq	r0, [r0], -r0
    950c:	00000398 	muleq	r0, r8, r3
    9510:	e1011d05 	tst	r1, r5, lsl #26
    9514:	1a000002 	bne	9524 <kmalloc+0x1c>
    9518:	000004bd 			; <UNDEFINED> instruction: 0x000004bd
    951c:	0121050c 			; <UNDEFINED> instruction: 0x0121050c
    9520:	00000635 	andeq	r0, r0, r5, lsr r6
    9524:	0003c018 	andeq	ip, r3, r8, lsl r0
    9528:	01230500 			; <UNDEFINED> instruction: 0x01230500
    952c:	00000635 	andeq	r0, r0, r5, lsr r6
    9530:	021b1800 	andseq	r1, fp, #0, 16
    9534:	24050000 	strcs	r0, [r5], #-0
    9538:	00002501 	andeq	r2, r0, r1, lsl #10
    953c:	92180400 	andsls	r0, r8, #0, 8
    9540:	05000003 	streq	r0, [r0, #-3]
    9544:	063b0125 	ldrteq	r0, [fp], -r5, lsr #2
    9548:	00080000 	andeq	r0, r8, r0
    954c:	0600040e 	streq	r0, [r0], -lr, lsl #8
    9550:	040e0000 	streq	r0, [lr], #-0
    9554:	000005f4 	strdeq	r0, [r0], -r4
    9558:	0000211a 	andeq	r2, r0, sl, lsl r1
    955c:	3d050e00 	stccc	14, cr0, [r5, #-0]
    9560:	00067601 	andeq	r7, r6, r1, lsl #12
    9564:	040f1800 	streq	r1, [pc], #-2048	; 956c <kmalloc_init>
    9568:	3e050000 	cdpcc	0, 0, cr0, cr5, cr0, {0}
    956c:	00067601 	andeq	r7, r6, r1, lsl #12
    9570:	43180000 	tstmi	r8, #0
    9574:	05000004 	streq	r0, [r0, #-4]
    9578:	0676013f 			; <UNDEFINED> instruction: 0x0676013f
    957c:	18060000 	stmdane	r6, {}	; <UNPREDICTABLE>
    9580:	0000045f 	andeq	r0, r0, pc, asr r4
    9584:	5b014005 	blpl	595a0 <__bss_end__+0x4f570>
    9588:	0c000000 	stceq	0, cr0, [r0], {-0}
    958c:	005b0900 	subseq	r0, fp, r0, lsl #18
    9590:	06860000 	streq	r0, [r6], r0
    9594:	cc0a0000 	stcgt	0, cr0, [sl], {-0}
    9598:	02000000 	andeq	r0, r0, #0
    959c:	05d01b00 	ldrbeq	r1, [r0, #2816]	; 0xb00
    95a0:	07870257 			; <UNDEFINED> instruction: 0x07870257
    95a4:	a1180000 	tstge	r8, r0
    95a8:	05000004 	streq	r0, [r0, #-4]
    95ac:	002c0259 	eoreq	r0, ip, r9, asr r2
    95b0:	18000000 	stmdane	r0, {}	; <UNPREDICTABLE>
    95b4:	00000449 	andeq	r0, r0, r9, asr #8
    95b8:	0c025a05 			; <UNDEFINED> instruction: 0x0c025a05
    95bc:	04000001 	streq	r0, [r0], #-1
    95c0:	00024a18 	andeq	r4, r2, r8, lsl sl
    95c4:	025b0500 	subseq	r0, fp, #0, 10
    95c8:	00000787 	andeq	r0, r0, r7, lsl #15
    95cc:	05011808 	streq	r1, [r1, #-2056]	; 0xfffff7f8
    95d0:	5c050000 	stcpl	0, cr0, [r5], {-0}
    95d4:	00019202 	andeq	r9, r1, r2, lsl #4
    95d8:	b8182400 	ldmdalt	r8, {sl, sp}
    95dc:	05000001 	streq	r0, [r0, #-1]
    95e0:	0025025d 	eoreq	r0, r5, sp, asr r2
    95e4:	18480000 	stmdane	r8, {}^	; <UNPREDICTABLE>
    95e8:	000003bb 			; <UNDEFINED> instruction: 0x000003bb
    95ec:	69025e05 	stmdbvs	r2, {r0, r2, r9, sl, fp, ip, lr}
    95f0:	50000000 	andpl	r0, r0, r0
    95f4:	00051718 	andeq	r1, r5, r8, lsl r7
    95f8:	025f0500 	subseq	r0, pc, #0, 10
    95fc:	00000641 	andeq	r0, r0, r1, asr #12
    9600:	03c61858 	biceq	r1, r6, #88, 16	; 0x580000
    9604:	60050000 	andvs	r0, r5, r0
    9608:	0000f402 	andeq	pc, r0, r2, lsl #8
    960c:	1c186800 	ldcne	8, cr6, [r8], {-0}
    9610:	05000005 	streq	r0, [r0, #-5]
    9614:	00f40261 	rscseq	r0, r4, r1, ror #4
    9618:	18700000 	ldmdane	r0!, {}^	; <UNPREDICTABLE>
    961c:	000002ce 	andeq	r0, r0, lr, asr #5
    9620:	f4026205 	vst1.8	{d6-d9}, [r2], r5
    9624:	78000000 	stmdavc	r0, {}	; <UNPREDICTABLE>
    9628:	0004cc18 	andeq	ip, r4, r8, lsl ip
    962c:	02630500 	rsbeq	r0, r3, #0, 10
    9630:	00000797 	muleq	r0, r7, r7
    9634:	023e1880 	eorseq	r1, lr, #128, 16	; 0x800000
    9638:	64050000 	strvs	r0, [r5], #-0
    963c:	0007a702 	andeq	sl, r7, r2, lsl #14
    9640:	6c188800 	ldcvs	8, cr8, [r8], {-0}
    9644:	05000004 	streq	r0, [r0, #-4]
    9648:	00250265 	eoreq	r0, r5, r5, ror #4
    964c:	18a00000 	stmiane	r0!, {}	; <UNPREDICTABLE>
    9650:	0000017e 	andeq	r0, r0, lr, ror r1
    9654:	f4026605 	vst1.8	{d6-d8}, [r2], r5
    9658:	a4000000 	strge	r0, [r0], #-0
    965c:	00008f18 	andeq	r8, r0, r8, lsl pc
    9660:	02670500 	rsbeq	r0, r7, #0, 10
    9664:	000000f4 	strdeq	r0, [r0], -r4
    9668:	016d18ac 	cmneq	sp, ip, lsr #17
    966c:	68050000 	stmdavs	r5, {}	; <UNPREDICTABLE>
    9670:	0000f402 	andeq	pc, r0, r2, lsl #8
    9674:	3c18b400 	cfldrscc	mvf11, [r8], {-0}
    9678:	05000000 	streq	r0, [r0, #-0]
    967c:	00f40269 	rscseq	r0, r4, r9, ror #4
    9680:	18bc0000 	ldmne	ip!, {}	; <UNPREDICTABLE>
    9684:	0000004b 	andeq	r0, r0, fp, asr #32
    9688:	f4026a05 	vst1.8	{d6-d7}, [r2], r5
    968c:	c4000000 	strgt	r0, [r0], #-0
    9690:	00036e18 	andeq	r6, r3, r8, lsl lr
    9694:	026b0500 	rsbeq	r0, fp, #0, 10
    9698:	00000025 	andeq	r0, r0, r5, lsr #32
    969c:	120900cc 	andne	r0, r9, #204	; 0xcc
    96a0:	97000001 	strls	r0, [r0, -r1]
    96a4:	0a000007 	beq	96c8 <__data_end__+0x70>
    96a8:	000000cc 	andeq	r0, r0, ip, asr #1
    96ac:	12090019 	andne	r0, r9, #25
    96b0:	a7000001 	strge	r0, [r0, -r1]
    96b4:	0a000007 	beq	96d8 <__data_end__+0x80>
    96b8:	000000cc 	andeq	r0, r0, ip, asr #1
    96bc:	12090007 	andne	r0, r9, #7
    96c0:	b7000001 	strlt	r0, [r0, -r1]
    96c4:	0a000007 	beq	96e8 <__FUNCTION__.4337>
    96c8:	000000cc 	andeq	r0, r0, ip, asr #1
    96cc:	f01b0017 			; <UNDEFINED> instruction: 0xf01b0017
    96d0:	db027005 	blle	a56ec <__bss_end__+0x9b6bc>
    96d4:	18000007 	stmdane	r0, {r0, r1, r2}
    96d8:	0000029a 	muleq	r0, sl, r2
    96dc:	db027305 	blle	a62f8 <__bss_end__+0x9c2c8>
    96e0:	00000007 	andeq	r0, r0, r7
    96e4:	0004c318 	andeq	ip, r4, r8, lsl r3
    96e8:	02740500 	rsbseq	r0, r4, #0, 10
    96ec:	000007eb 	andeq	r0, r0, fp, ror #15
    96f0:	db090078 	blle	2498d8 <__bss_end__+0x23f8a8>
    96f4:	eb000002 	bl	9704 <__FUNCTION__.4337+0x1c>
    96f8:	0a000007 	beq	971c <__FUNCTION__.4337+0x34>
    96fc:	000000cc 	andeq	r0, r0, ip, asr #1
    9700:	2c09001d 	stccs	0, cr0, [r9], {29}
    9704:	fb000000 	blx	970e <__FUNCTION__.4337+0x26>
    9708:	0a000007 	beq	972c <__FUNCTION__.4337+0x44>
    970c:	000000cc 	andeq	r0, r0, ip, asr #1
    9710:	f01c001d 			; <UNDEFINED> instruction: 0xf01c001d
    9714:	1d025505 	cfstr32ne	mvfx5, [r2, #-20]	; 0xffffffec
    9718:	1d000008 	stcne	0, cr0, [r0, #-32]	; 0xffffffe0
    971c:	00000408 	andeq	r0, r0, r8, lsl #8
    9720:	86026c05 	strhi	r6, [r2], -r5, lsl #24
    9724:	1d000006 	stcne	0, cr0, [r0, #-24]	; 0xffffffe8
    9728:	000004ee 	andeq	r0, r0, lr, ror #9
    972c:	b7027505 	strlt	r7, [r2, -r5, lsl #10]
    9730:	00000007 	andeq	r0, r0, r7
    9734:	00011209 	andeq	r1, r1, r9, lsl #4
    9738:	00082d00 	andeq	r2, r8, r0, lsl #26
    973c:	00cc0a00 	sbceq	r0, ip, r0, lsl #20
    9740:	00180000 	andseq	r0, r8, r0
    9744:	0008381e 	andeq	r3, r8, lr, lsl r8
    9748:	04291600 	strteq	r1, [r9], #-1536	; 0xfffffa00
    974c:	0e000000 	cdpeq	0, 0, cr0, cr0, cr0, {0}
    9750:	00082d04 	andeq	r2, r8, r4, lsl #26
    9754:	7c040e00 	stcvc	14, cr0, [r4], {-0}
    9758:	1e000001 	cdpne	0, 0, cr0, cr0, cr1, {0}
    975c:	0000084f 	andeq	r0, r0, pc, asr #16
    9760:	00002516 	andeq	r2, r0, r6, lsl r5
    9764:	040e0000 	streq	r0, [lr], #-0
    9768:	00000855 	andeq	r0, r0, r5, asr r8
    976c:	0844040e 	stmdaeq	r4, {r1, r2, r3, sl}^
    9770:	f4090000 	vst4.8	{d0-d3}, [r9], r0
    9774:	6b000005 	blvs	9790 <__FUNCTION__.4337+0xa8>
    9778:	0a000008 	beq	97a0 <__FUNCTION__.4337+0xb8>
    977c:	000000cc 	andeq	r0, r0, ip, asr #1
    9780:	8e1f0002 	cdphi	0, 1, cr0, cr15, cr2, {0}
    9784:	05000004 	streq	r0, [r0, #-4]
    9788:	042902fd 	strteq	r0, [r9], #-765	; 0xfffffd03
    978c:	871f0000 	ldrhi	r0, [pc, -r0]
    9790:	05000004 	streq	r0, [r0, #-4]
    9794:	042f02fe 	strteq	r0, [pc], #-766	; 979c <__FUNCTION__.4337+0xb4>
    9798:	25150000 	ldrcs	r0, [r5, #-0]
    979c:	92000000 	andls	r0, r0, #0
    97a0:	16000008 	strne	r0, [r0], -r8
    97a4:	00000025 	andeq	r0, r0, r5, lsr #32
    97a8:	01d12000 	bicseq	r2, r1, r0
    97ac:	1d060000 	stcne	0, cr0, [r6, #-0]
    97b0:	0000089d 	muleq	r0, sp, r8
    97b4:	0883040e 	stmeq	r3, {r1, r2, r3, sl}
    97b8:	25150000 	ldrcs	r0, [r5, #-0]
    97bc:	b2000000 	andlt	r0, r0, #0
    97c0:	16000008 	strne	r0, [r0], -r8
    97c4:	0000058a 	andeq	r0, r0, sl, lsl #11
    97c8:	07682000 	strbeq	r2, [r8, -r0]!
    97cc:	22060000 	andcs	r0, r6, #0
    97d0:	000008bd 			; <UNDEFINED> instruction: 0x000008bd
    97d4:	08a3040e 	stmiaeq	r3!, {r1, r2, r3, sl}
    97d8:	01210000 			; <UNDEFINED> instruction: 0x01210000
    97dc:	00000054 	andeq	r0, r0, r4, asr r0
    97e0:	09000c08 	stmdbeq	r0, {r3, sl, fp}
    97e4:	17220000 	strne	r0, [r2, -r0]!
    97e8:	00000009 	andeq	r0, r0, r9
    97ec:	000a9022 	andeq	r9, sl, r2, lsr #32
    97f0:	cb220100 	blgt	889bf8 <__bss_end__+0x87fbc8>
    97f4:	0400000a 	streq	r0, [r0], #-10
    97f8:	00092c22 	andeq	r2, r9, r2, lsr #24
    97fc:	b8220500 	stmdalt	r2!, {r8, sl}
    9800:	06000009 	streq	r0, [r0], -r9
    9804:	000ada22 	andeq	sp, sl, r2, lsr #20
    9808:	e9220700 	stmdb	r2!, {r8, r9, sl}
    980c:	0300000a 	movweq	r0, #10
    9810:	000af822 	andeq	pc, sl, r2, lsr #16
    9814:	10000200 	andne	r0, r0, r0, lsl #4
    9818:	00000947 	andeq	r0, r0, r7, asr #18
    981c:	9006072c 	andls	r0, r6, ip, lsr #14
    9820:	11000009 	tstne	r0, r9
    9824:	07006f69 	streq	r6, [r0, -r9, ror #30]
    9828:	00003309 	andeq	r3, r0, r9, lsl #6
    982c:	69110000 	ldmdbvs	r1, {}	; <UNPREDICTABLE>
    9830:	07007265 	streq	r7, [r0, -r5, ror #4]
    9834:	0000330a 	andeq	r3, r0, sl, lsl #6
    9838:	69110400 	ldmdbvs	r1, {sl}
    983c:	07007269 	streq	r7, [r0, -r9, ror #4]
    9840:	00003311 	andeq	r3, r0, r1, lsl r3
    9844:	6c110800 	ldcvs	8, cr0, [r1], {-0}
    9848:	07007263 	streq	r7, [r0, -r3, ror #4]
    984c:	00003313 	andeq	r3, r0, r3, lsl r3
    9850:	6d110c00 	ldcvs	12, cr0, [r1, #-0]
    9854:	07007263 	streq	r7, [r0, -r3, ror #4]
    9858:	00003314 	andeq	r3, r0, r4, lsl r3
    985c:	6c111000 	ldcvs	0, cr1, [r1], {-0}
    9860:	07007273 	smlsdxeq	r0, r3, r2, r7
    9864:	00003315 	andeq	r3, r0, r5, lsl r3
    9868:	6d111400 	cfldrsvs	mvf1, [r1, #-0]
    986c:	07007273 	smlsdxeq	r0, r3, r2, r7
    9870:	00003316 	andeq	r3, r0, r6, lsl r3
    9874:	0e0c1800 	cdpeq	8, 0, cr1, cr12, cr0, {0}
    9878:	0700000a 	streq	r0, [r0, -sl]
    987c:	00003317 	andeq	r3, r0, r7, lsl r3
    9880:	3b0c1c00 	blcc	310888 <__bss_end__+0x306858>
    9884:	07000009 	streq	r0, [r0, -r9]
    9888:	0000331b 	andeq	r3, r0, fp, lsl r3
    988c:	270c2000 	strcs	r2, [ip, -r0]
    9890:	07000009 	streq	r0, [r0, -r9]
    9894:	0000331d 	andeq	r3, r0, sp, lsl r3
    9898:	090c2400 	stmdbeq	ip, {sl, sp}
    989c:	0700000a 	streq	r0, [r0, -sl]
    98a0:	0000331e 	andeq	r3, r0, lr, lsl r3
    98a4:	23002800 	movwcs	r2, #2048	; 0x800
    98a8:	00000988 	andeq	r0, r0, r8, lsl #19
    98ac:	09a50701 	stmibeq	r5!, {r0, r8, r9, sl}
    98b0:	50040000 	andpl	r0, r4, r0
    98b4:	040e2021 	streq	r2, [lr], #-33	; 0xffffffdf
    98b8:	00000033 	andeq	r0, r0, r3, lsr r0
    98bc:	00099f0f 	andeq	r9, r9, pc, lsl #30
    98c0:	09e22300 	stmibeq	r2!, {r8, r9, sp}^
    98c4:	28010000 	stmdacs	r1, {}	; <UNPREDICTABLE>
    98c8:	000009bf 			; <UNDEFINED> instruction: 0x000009bf
    98cc:	20215040 	eorcs	r5, r1, r0, asr #32
    98d0:	0900040e 	stmdbeq	r0, {r1, r2, r3, sl}
    98d4:	b90f0000 	stmdblt	pc, {}	; <UNPREDICTABLE>
    98d8:	24000009 	strcs	r0, [r0], #-9
    98dc:	00000abd 			; <UNDEFINED> instruction: 0x00000abd
    98e0:	0025a701 	eoreq	sl, r5, r1, lsl #14
    98e4:	936c0000 	cmnls	ip, #0
    98e8:	00100000 	andseq	r0, r0, r0
    98ec:	9c010000 	stcls	0, cr0, [r1], {-0}
    98f0:	000009f0 	strdeq	r0, [r0], -r0	; <UNPREDICTABLE>
    98f4:	00937425 	addseq	r7, r3, r5, lsr #8
    98f8:	000c9c00 	andeq	r9, ip, r0, lsl #24
    98fc:	93782500 	cmnls	r8, #0, 10
    9900:	0ad20000 	beq	ff489908 <__bss_end__+0xff47f8d8>
    9904:	26000000 	strcs	r0, [r0], -r0
    9908:	00000735 	andeq	r0, r0, r5, lsr r7
    990c:	933c9f01 	teqls	ip, #1, 30
    9910:	00300000 	eorseq	r0, r0, r0
    9914:	9c010000 	stcls	0, cr0, [r1], {-0}
    9918:	00000a4e 	andeq	r0, r0, lr, asr #20
    991c:	01006327 	tsteq	r0, r7, lsr #6
    9920:	00002c9f 	muleq	r0, pc, ip	; <UNPREDICTABLE>
    9924:	00133700 	andseq	r3, r3, r0, lsl #14
    9928:	93482500 	movtls	r2, #34048	; 0x8500
    992c:	0c9c0000 	ldceq	0, cr0, [ip], {0}
    9930:	4c250000 	stcmi	0, cr0, [r5], #-0
    9934:	a5000093 	strge	r0, [r0, #-147]	; 0xffffff6d
    9938:	2800000a 	stmdacs	r0, {r1, r3}
    993c:	00009360 	andeq	r9, r0, r0, ror #6
    9940:	00000ca7 	andeq	r0, r0, r7, lsr #25
    9944:	00000a44 	andeq	r0, r0, r4, asr #20
    9948:	05500129 	ldrbeq	r0, [r0, #-297]	; 0xfffffed7
    994c:	2150400c 	cmpcs	r0, ip
    9950:	51012920 	tstpl	r1, r0, lsr #18
    9954:	08007405 	stmdaeq	r0, {r0, r2, sl, ip, sp, lr}
    9958:	25001aff 	strcs	r1, [r0, #-2815]	; 0xfffff501
    995c:	00009364 	andeq	r9, r0, r4, ror #6
    9960:	00000c9c 	muleq	r0, ip, ip
    9964:	09a22400 	stmibeq	r2!, {sl, sp}
    9968:	97010000 	strls	r0, [r1, -r0]
    996c:	00000025 	andeq	r0, r0, r5, lsr #32
    9970:	0000930c 	andeq	r9, r0, ip, lsl #6
    9974:	00000030 	andeq	r0, r0, r0, lsr r0
    9978:	0aa59c01 	beq	fe970984 <__bss_end__+0xfe966954>
    997c:	632a0000 			; <UNDEFINED> instruction: 0x632a0000
    9980:	259b0100 	ldrcs	r0, [fp, #256]	; 0x100
    9984:	01000000 	mrseq	r0, (UNDEF: 0)
    9988:	93142554 	tstls	r4, #84, 10	; 0x15000000
    998c:	0c9c0000 	ldceq	0, cr0, [ip], {0}
    9990:	18250000 	stmdane	r5!, {}	; <UNPREDICTABLE>
    9994:	d2000093 	andle	r0, r0, #147	; 0x93
    9998:	2800000a 	stmdacs	r0, {r1, r3}
    999c:	00009328 	andeq	r9, r0, r8, lsr #6
    99a0:	00000cb2 			; <UNDEFINED> instruction: 0x00000cb2
    99a4:	00000a9b 	muleq	r0, fp, sl
    99a8:	05500129 	ldrbeq	r0, [r0, #-297]	; 0xfffffed7
    99ac:	2150400c 	cmpcs	r0, ip
    99b0:	30250020 	eorcc	r0, r5, r0, lsr #32
    99b4:	9c000093 	stcls	0, cr0, [r0], {147}	; 0x93
    99b8:	0000000c 	andeq	r0, r0, ip
    99bc:	00099424 	andeq	r9, r9, r4, lsr #8
    99c0:	25880100 	strcs	r0, [r8, #256]	; 0x100
    99c4:	ec000000 	stc	0, cr0, [r0], {-0}
    99c8:	20000092 	mulcs	r0, r2, r0
    99cc:	01000000 	mrseq	r0, (UNDEF: 0)
    99d0:	000ad29c 	muleq	sl, ip, r2
    99d4:	92f82b00 	rscsls	r2, r8, #0, 22
    99d8:	0cb20000 	ldceq	0, cr0, [r2]
    99dc:	01290000 			; <UNDEFINED> instruction: 0x01290000
    99e0:	640c0550 	strvs	r0, [ip], #-1360	; 0xfffffab0
    99e4:	00202150 	eoreq	r2, r0, r0, asr r1
    99e8:	0aa72400 	beq	fe9d29f0 <__bss_end__+0xfe9c89c0>
    99ec:	7f010000 	svcvc	0x00010000
    99f0:	00000025 	andeq	r0, r0, r5, lsr #32
    99f4:	000092d4 	ldrdeq	r9, [r0], -r4
    99f8:	00000018 	andeq	r0, r0, r8, lsl r0
    99fc:	0aff9c01 	beq	ffff0a08 <__bss_end__+0xfffe69d8>
    9a00:	e02b0000 	eor	r0, fp, r0
    9a04:	b2000092 	andlt	r0, r0, #146	; 0x92
    9a08:	2900000c 	stmdbcs	r0, {r2, r3}
    9a0c:	0c055001 	stceq	0, cr5, [r5], {1}
    9a10:	20215064 	eorcs	r5, r1, r4, rrx
    9a14:	0d260000 	stceq	0, cr0, [r6, #-0]
    9a18:	01000009 	tsteq	r0, r9
    9a1c:	0092243a 	addseq	r2, r2, sl, lsr r4
    9a20:	0000b000 	andeq	fp, r0, r0
    9a24:	3d9c0100 	ldfccs	f0, [ip]
    9a28:	2800000c 	stmdacs	r0, {r2, r3}
    9a2c:	00009234 	andeq	r9, r0, r4, lsr r2
    9a30:	00000cbd 			; <UNDEFINED> instruction: 0x00000cbd
    9a34:	00000b2c 	andeq	r0, r0, ip, lsr #22
    9a38:	01500129 	cmpeq	r0, r9, lsr #2
    9a3c:	5101293e 	tstpl	r1, lr, lsr r9
    9a40:	28003201 	stmdacs	r0, {r0, r9, ip, sp}
    9a44:	00009240 	andeq	r9, r0, r0, asr #4
    9a48:	00000cbd 			; <UNDEFINED> instruction: 0x00000cbd
    9a4c:	00000b44 	andeq	r0, r0, r4, asr #22
    9a50:	01500129 	cmpeq	r0, r9, lsr #2
    9a54:	5101293f 	tstpl	r1, pc, lsr r9
    9a58:	25003201 	strcs	r3, [r0, #-513]	; 0xfffffdff
    9a5c:	00009244 	andeq	r9, r0, r4, asr #4
    9a60:	00000c9c 	muleq	r0, ip, ip
    9a64:	00925028 	addseq	r5, r2, r8, lsr #32
    9a68:	000c3d00 	andeq	r3, ip, r0, lsl #26
    9a6c:	000b6900 	andeq	r6, fp, r0, lsl #18
    9a70:	50012900 	andpl	r2, r1, r0, lsl #18
    9a74:	50040c05 	andpl	r0, r4, r5, lsl #24
    9a78:	01292021 			; <UNDEFINED> instruction: 0x01292021
    9a7c:	00310151 	eorseq	r0, r1, r1, asr r1
    9a80:	00925425 	addseq	r5, r2, r5, lsr #8
    9a84:	000c9c00 	andeq	r9, ip, r0, lsl #24
    9a88:	92642800 	rsbls	r2, r4, #0, 16
    9a8c:	0ca70000 	stceq	0, cr0, [r7]
    9a90:	0b8b0000 	bleq	fe2c9a98 <__bss_end__+0xfe2bfa68>
    9a94:	01290000 			; <UNDEFINED> instruction: 0x01290000
    9a98:	00740250 	rsbseq	r0, r4, r0, asr r2
    9a9c:	01510129 	cmpeq	r1, r9, lsr #2
    9aa0:	70280030 	eorvc	r0, r8, r0, lsr r0
    9aa4:	a7000092 			; <UNDEFINED> instruction: 0xa7000092
    9aa8:	a700000c 	strge	r0, [r0, -ip]
    9aac:	2900000b 	stmdbcs	r0, {r0, r1, r3}
    9ab0:	0c055001 	stceq	0, cr5, [r5], {1}
    9ab4:	20215044 	eorcs	r5, r1, r4, asr #32
    9ab8:	01510129 	cmpeq	r1, r9, lsr #2
    9abc:	7c280030 	stcvc	0, cr0, [r8], #-192	; 0xffffff40
    9ac0:	a7000092 			; <UNDEFINED> instruction: 0xa7000092
    9ac4:	c300000c 	movwgt	r0, #12
    9ac8:	2900000b 	stmdbcs	r0, {r0, r1, r3}
    9acc:	0c055001 	stceq	0, cr5, [r5], {1}
    9ad0:	2021504c 	eorcs	r5, r1, ip, asr #32
    9ad4:	01510129 	cmpeq	r1, r9, lsr #2
    9ad8:	88280033 	stmdahi	r8!, {r0, r1, r4, r5}
    9adc:	a7000092 			; <UNDEFINED> instruction: 0xa7000092
    9ae0:	df00000c 	svcle	0x0000000c
    9ae4:	2900000b 	stmdbcs	r0, {r0, r1, r3}
    9ae8:	0c055001 	stceq	0, cr5, [r5], {1}
    9aec:	20215050 	eorcs	r5, r1, r0, asr r0
    9af0:	01510129 	cmpeq	r1, r9, lsr #2
    9af4:	94280030 	strtls	r0, [r8], #-48	; 0xffffffd0
    9af8:	a7000092 			; <UNDEFINED> instruction: 0xa7000092
    9afc:	fc00000c 	stc2	0, cr0, [r0], {12}
    9b00:	2900000b 	stmdbcs	r0, {r0, r1, r3}
    9b04:	0c055001 	stceq	0, cr5, [r5], {1}
    9b08:	20215048 	eorcs	r5, r1, r8, asr #32
    9b0c:	02510129 	subseq	r0, r1, #1073741834	; 0x4000000a
    9b10:	2800c708 	stmdacs	r0, {r3, r8, r9, sl, lr, pc}
    9b14:	000092a0 	andeq	r9, r0, r0, lsr #5
    9b18:	00000ca7 	andeq	r0, r0, r7, lsr #25
    9b1c:	00000c1a 	andeq	r0, r0, sl, lsl ip
    9b20:	05500129 	ldrbeq	r0, [r0, #-297]	; 0xfffffed7
    9b24:	2150680c 	cmpcs	r0, ip, lsl #16
    9b28:	51012920 	tstpl	r1, r0, lsr #18
    9b2c:	010e0a03 	tsteq	lr, r3, lsl #20
    9b30:	92ac2800 	adcls	r2, ip, #0, 16
    9b34:	0ca70000 	stceq	0, cr0, [r7]
    9b38:	0c330000 	ldceq	0, cr0, [r3], #-0
    9b3c:	01290000 			; <UNDEFINED> instruction: 0x01290000
    9b40:	00740250 	rsbseq	r0, r4, r0, asr r2
    9b44:	01510129 	cmpeq	r1, r9, lsr #2
    9b48:	b0250033 	eorlt	r0, r5, r3, lsr r0
    9b4c:	9c000092 	stcls	0, cr0, [r0], {146}	; 0x92
    9b50:	0000000c 	andeq	r0, r0, ip
    9b54:	000ab52c 	andeq	fp, sl, ip, lsr #10
    9b58:	042d0100 	strteq	r0, [sp], #-256	; 0xffffff00
    9b5c:	20000092 	mulcs	r0, r2, r0
    9b60:	01000000 	mrseq	r0, (UNDEF: 0)
    9b64:	000c959c 	muleq	ip, ip, r5
    9b68:	0c0c2d00 	stceq	13, cr2, [ip], {-0}
    9b6c:	2d010000 	stccs	0, cr0, [r1, #-0]
    9b70:	00000c95 	muleq	r0, r5, ip
    9b74:	00001355 	andeq	r1, r0, r5, asr r3
    9b78:	6c617627 	stclvs	6, cr7, [r1], #-156	; 0xffffff64
    9b7c:	2c2d0100 	stfcss	f0, [sp], #-0
    9b80:	73000000 	movwvc	r0, #0
    9b84:	28000013 	stmdacs	r0, {r0, r1, r4}
    9b88:	00009214 	andeq	r9, r0, r4, lsl r2
    9b8c:	00000cb2 			; <UNDEFINED> instruction: 0x00000cb2
    9b90:	00000c84 	andeq	r0, r0, r4, lsl #25
    9b94:	02500129 	subseq	r0, r0, #1073741834	; 0x4000000a
    9b98:	2b000074 	blcs	9d70 <buf.4297+0x140>
    9b9c:	00009220 	andeq	r9, r0, r0, lsr #4
    9ba0:	00000ca7 	andeq	r0, r0, r7, lsr #25
    9ba4:	02500129 	subseq	r0, r0, #1073741834	; 0x4000000a
    9ba8:	00000074 	andeq	r0, r0, r4, ror r0
    9bac:	0c9b040e 	cfldrseq	mvf0, [fp], {14}
    9bb0:	2f2e0000 	svccs	0x002e0000
    9bb4:	000009ac 	andeq	r0, r0, ip, lsr #19
    9bb8:	000009ac 	andeq	r0, r0, ip, lsr #19
    9bbc:	162f8906 	strtne	r8, [pc], -r6, lsl #18
    9bc0:	1600000a 	strne	r0, [r0], -sl
    9bc4:	0600000a 	streq	r0, [r0], -sl
    9bc8:	0aa12f9c 	beq	fe855a40 <__bss_end__+0xfe84ba10>
    9bcc:	0aa10000 	beq	fe849bd4 <__bss_end__+0xfe83fba4>
    9bd0:	a8060000 	stmdage	r6, {}	; <UNPREDICTABLE>
    9bd4:	0009d02f 	andeq	sp, r9, pc, lsr #32
    9bd8:	0009d000 	andeq	sp, r9, r0
    9bdc:	00190800 	andseq	r0, r9, r0, lsl #16
    9be0:	00000b70 	andeq	r0, r0, r0, ror fp
    9be4:	1f2a0004 	svcne	0x002a0004
    9be8:	01040000 	mrseq	r0, (UNDEF: 4)
    9bec:	00000a1c 	andeq	r0, r0, ip, lsl sl
    9bf0:	000b190c 	andeq	r1, fp, ip, lsl #18
    9bf4:	00095300 	andeq	r5, r9, r0, lsl #6
    9bf8:	00937c00 	addseq	r7, r3, r0, lsl #24
    9bfc:	00012000 	andeq	r2, r1, r0
    9c00:	0019f700 	andseq	pc, r9, r0, lsl #14
    9c04:	05040200 	streq	r0, [r4, #-512]	; 0xfffffe00
    9c08:	00746e69 	rsbseq	r6, r4, r9, ror #28
    9c0c:	66070403 	strvs	r0, [r7], -r3, lsl #8
    9c10:	04000000 	streq	r0, [r0], #-0
    9c14:	0000002c 	andeq	r0, r0, ip, lsr #32
    9c18:	de060103 	adfles	f0, f6, f3
    9c1c:	03000002 	movweq	r0, #2
    9c20:	03770502 	cmneq	r7, #8388608	; 0x800000
    9c24:	04030000 	streq	r0, [r3], #-0
    9c28:	0000ac05 	andeq	sl, r0, r5, lsl #24
    9c2c:	05080300 	streq	r0, [r8, #-768]	; 0xfffffd00
    9c30:	000000a7 	andeq	r0, r0, r7, lsr #1
    9c34:	dc080103 	stfles	f0, [r8], {3}
    9c38:	03000002 	movweq	r0, #2
    9c3c:	02220702 	eoreq	r0, r2, #524288	; 0x80000
    9c40:	04030000 	streq	r0, [r3], #-0
    9c44:	00006107 	andeq	r6, r0, r7, lsl #2
    9c48:	07080300 	streq	r0, [r8, -r0, lsl #6]
    9c4c:	0000005c 	andeq	r0, r0, ip, asr r0
    9c50:	0009e705 	andeq	lr, r9, r5, lsl #14
    9c54:	25070200 	strcs	r0, [r7, #-512]	; 0xfffffe00
    9c58:	05000000 	streq	r0, [r0, #-0]
    9c5c:	000002bd 			; <UNDEFINED> instruction: 0x000002bd
    9c60:	00462c03 	subeq	r2, r6, r3, lsl #24
    9c64:	32050000 	andcc	r0, r5, #0
    9c68:	03000004 	movweq	r0, #4
    9c6c:	00004672 	andeq	r4, r0, r2, ror r6
    9c70:	026d0600 	rsbeq	r0, sp, #0, 12
    9c74:	65040000 	strvs	r0, [r4, #-0]
    9c78:	00002c01 	andeq	r2, r0, r1, lsl #24
    9c7c:	03040700 	movweq	r0, #18176	; 0x4700
    9c80:	0000bca6 	andeq	fp, r0, r6, lsr #25
    9c84:	025f0800 	subseq	r0, pc, #0, 16
    9c88:	a8030000 	stmdage	r3, {}	; <UNPREDICTABLE>
    9c8c:	00000091 	muleq	r0, r1, r0
    9c90:	0001e208 	andeq	lr, r1, r8, lsl #4
    9c94:	bca90300 	stclt	3, cr0, [r9]
    9c98:	00000000 	andeq	r0, r0, r0
    9c9c:	00005409 	andeq	r5, r0, r9, lsl #8
    9ca0:	0000cc00 	andeq	ip, r0, r0, lsl #24
    9ca4:	00cc0a00 	sbceq	r0, ip, r0, lsl #20
    9ca8:	00030000 	andeq	r0, r3, r0
    9cac:	c7070403 	strgt	r0, [r7, -r3, lsl #8]
    9cb0:	0b000009 	bleq	9cdc <buf.4297+0xac>
    9cb4:	f4a30308 	vld4.8	{d0[0],d1[0],d2[0],d3[0]}, [r3], r8
    9cb8:	0c000000 	stceq	0, cr0, [r0], {-0}
    9cbc:	00000415 	andeq	r0, r0, r5, lsl r4
    9cc0:	0025a503 	eoreq	sl, r5, r3, lsl #10
    9cc4:	0c000000 	stceq	0, cr0, [r0], {-0}
    9cc8:	00000424 	andeq	r0, r0, r4, lsr #8
    9ccc:	009daa03 	addseq	sl, sp, r3, lsl #20
    9cd0:	00040000 	andeq	r0, r4, r0
    9cd4:	00039f05 	andeq	r9, r3, r5, lsl #30
    9cd8:	d3ab0300 			; <UNDEFINED> instruction: 0xd3ab0300
    9cdc:	05000000 	streq	r0, [r0, #-0]
    9ce0:	0000019f 	muleq	r0, pc, r1	; <UNPREDICTABLE>
    9ce4:	0070af03 	rsbseq	sl, r0, r3, lsl #30
    9ce8:	040d0000 	streq	r0, [sp], #-0
    9cec:	0112040e 	tsteq	r2, lr, lsl #8
    9cf0:	01030000 	mrseq	r0, (UNDEF: 3)
    9cf4:	0002e508 	andeq	lr, r2, r8, lsl #10
    9cf8:	01120400 	tsteq	r2, r0, lsl #8
    9cfc:	64050000 	strvs	r0, [r5], #-0
    9d00:	05000004 	streq	r0, [r0, #-4]
    9d04:	00006216 	andeq	r6, r0, r6, lsl r2
    9d08:	01b00f00 	lslseq	r0, r0, #30
    9d0c:	05180000 	ldreq	r0, [r8, #-0]
    9d10:	00017c2d 	andeq	r7, r1, sp, lsr #24
    9d14:	03c00c00 	biceq	r0, r0, #0, 24
    9d18:	2f050000 	svccs	0x00050000
    9d1c:	0000017c 	andeq	r0, r0, ip, ror r1
    9d20:	6b5f1000 	blvs	17cdd28 <__bss_end__+0x17c3cf8>
    9d24:	25300500 	ldrcs	r0, [r0, #-1280]!	; 0xfffffb00
    9d28:	04000000 	streq	r0, [r0], #-0
    9d2c:	0004000c 	andeq	r0, r4, ip
    9d30:	25300500 	ldrcs	r0, [r0, #-1280]!	; 0xfffffb00
    9d34:	08000000 	stmdaeq	r0, {}	; <UNPREDICTABLE>
    9d38:	0001990c 	andeq	r9, r1, ip, lsl #18
    9d3c:	25300500 	ldrcs	r0, [r0, #-1280]!	; 0xfffffb00
    9d40:	0c000000 	stceq	0, cr0, [r0], {-0}
    9d44:	0004ae0c 	andeq	sl, r4, ip, lsl #28
    9d48:	25300500 	ldrcs	r0, [r0, #-1280]!	; 0xfffffb00
    9d4c:	10000000 	andne	r0, r0, r0
    9d50:	00785f10 	rsbseq	r5, r8, r0, lsl pc
    9d54:	01823105 	orreq	r3, r2, r5, lsl #2
    9d58:	00140000 	andseq	r0, r4, r0
    9d5c:	0129040e 			; <UNDEFINED> instruction: 0x0129040e
    9d60:	1e090000 	cdpne	0, 0, cr0, cr9, cr0, {0}
    9d64:	92000001 	andls	r0, r0, #1
    9d68:	0a000001 	beq	9d74 <buf.4297+0x144>
    9d6c:	000000cc 	andeq	r0, r0, ip, asr #1
    9d70:	dd0f0000 	stcle	0, cr0, [pc, #-0]	; 9d78 <buf.4297+0x148>
    9d74:	24000001 	strcs	r0, [r0], #-1
    9d78:	020b3505 	andeq	r3, fp, #20971520	; 0x1400000
    9d7c:	9e0c0000 	cdpls	0, 0, cr0, cr12, cr0, {0}
    9d80:	05000000 	streq	r0, [r0, #-0]
    9d84:	00002537 	andeq	r2, r0, r7, lsr r5
    9d88:	3a0c0000 	bcc	309d90 <__bss_end__+0x2ffd60>
    9d8c:	05000004 	streq	r0, [r0, #-4]
    9d90:	00002538 	andeq	r2, r0, r8, lsr r5
    9d94:	c10c0400 	tstgt	ip, r0, lsl #8
    9d98:	05000000 	streq	r0, [r0, #-0]
    9d9c:	00002539 	andeq	r2, r0, r9, lsr r5
    9da0:	2f0c0800 	svccs	0x000c0800
    9da4:	05000005 	streq	r0, [r0, #-5]
    9da8:	0000253a 	andeq	r2, r0, sl, lsr r5
    9dac:	a10c0c00 	tstge	ip, r0, lsl #24
    9db0:	05000002 	streq	r0, [r0, #-2]
    9db4:	0000253b 	andeq	r2, r0, fp, lsr r5
    9db8:	830c1000 	movwhi	r1, #49152	; 0xc000
    9dbc:	05000002 	streq	r0, [r0, #-2]
    9dc0:	0000253c 	andeq	r2, r0, ip, lsr r5
    9dc4:	b30c1400 	movwlt	r1, #50176	; 0xc400
    9dc8:	05000004 	streq	r0, [r0, #-4]
    9dcc:	0000253d 	andeq	r2, r0, sp, lsr r5
    9dd0:	810c1800 	tsthi	ip, r0, lsl #16
    9dd4:	05000003 	streq	r0, [r0, #-3]
    9dd8:	0000253e 	andeq	r2, r0, lr, lsr r5
    9ddc:	f60c1c00 			; <UNDEFINED> instruction: 0xf60c1c00
    9de0:	05000004 	streq	r0, [r0, #-4]
    9de4:	0000253f 	andeq	r2, r0, pc, lsr r5
    9de8:	11002000 	mrsne	r2, (UNDEF: 0)
    9dec:	00000101 	andeq	r0, r0, r1, lsl #2
    9df0:	48050108 	stmdami	r5, {r3, r8}
    9df4:	0000024b 	andeq	r0, r0, fp, asr #4
    9df8:	00018c0c 	andeq	r8, r1, ip, lsl #24
    9dfc:	4b490500 	blmi	124b204 <__bss_end__+0x12411d4>
    9e00:	00000002 	andeq	r0, r0, r2
    9e04:	0000000c 	andeq	r0, r0, ip
    9e08:	4b4a0500 	blmi	128b210 <__bss_end__+0x12811e0>
    9e0c:	80000002 	andhi	r0, r0, r2
    9e10:	00045612 	andeq	r5, r4, r2, lsl r6
    9e14:	1e4c0500 	cdpne	5, 4, cr0, cr12, cr0, {0}
    9e18:	00000001 	andeq	r0, r0, r1
    9e1c:	01261201 			; <UNDEFINED> instruction: 0x01261201
    9e20:	4f050000 	svcmi	0x00050000
    9e24:	0000011e 	andeq	r0, r0, lr, lsl r1
    9e28:	09000104 	stmdbeq	r0, {r2, r8}
    9e2c:	0000010a 	andeq	r0, r0, sl, lsl #2
    9e30:	0000025b 	andeq	r0, r0, fp, asr r2
    9e34:	0000cc0a 	andeq	ip, r0, sl, lsl #24
    9e38:	11001f00 	tstne	r0, r0, lsl #30
    9e3c:	000002aa 	andeq	r0, r0, sl, lsr #5
    9e40:	5b050190 	blpl	14a488 <__bss_end__+0x140458>
    9e44:	00000299 	muleq	r0, r9, r2
    9e48:	0003c00c 	andeq	ip, r3, ip
    9e4c:	995c0500 	ldmdbls	ip, {r8, sl}^
    9e50:	00000002 	andeq	r0, r0, r2
    9e54:	0003d80c 	andeq	sp, r3, ip, lsl #16
    9e58:	255d0500 	ldrbcs	r0, [sp, #-1280]	; 0xfffffb00
    9e5c:	04000000 	streq	r0, [r0], #-0
    9e60:	0001940c 	andeq	r9, r1, ip, lsl #8
    9e64:	9f5f0500 	svcls	0x005f0500
    9e68:	08000002 	stmdaeq	r0, {r1}
    9e6c:	0001010c 	andeq	r0, r1, ip, lsl #2
    9e70:	0b600500 	bleq	180b278 <__bss_end__+0x1801248>
    9e74:	88000002 	stmdahi	r0, {r1}
    9e78:	5b040e00 	blpl	10d680 <__bss_end__+0x103650>
    9e7c:	09000002 	stmdbeq	r0, {r1}
    9e80:	000002af 	andeq	r0, r0, pc, lsr #5
    9e84:	000002af 	andeq	r0, r0, pc, lsr #5
    9e88:	0000cc0a 	andeq	ip, r0, sl, lsl #24
    9e8c:	0e001f00 	cdpeq	15, 0, cr1, cr0, cr0, {0}
    9e90:	0002b504 	andeq	fp, r2, r4, lsl #10
    9e94:	8b0f1300 	blhi	3cea9c <__bss_end__+0x3c4a6c>
    9e98:	08000003 	stmdaeq	r0, {r0, r1}
    9e9c:	02db7305 	sbcseq	r7, fp, #335544320	; 0x14000000
    9ea0:	bb0c0000 	bllt	309ea8 <__bss_end__+0x2ffe78>
    9ea4:	05000000 	streq	r0, [r0, #-0]
    9ea8:	0002db74 	andeq	sp, r2, r4, ror fp
    9eac:	1b0c0000 	blne	309eb4 <__bss_end__+0x2ffe84>
    9eb0:	05000000 	streq	r0, [r0, #-0]
    9eb4:	00002575 	andeq	r2, r0, r5, ror r5
    9eb8:	0e000400 	cfcpyseq	mvf0, mvf0
    9ebc:	00005404 	andeq	r5, r0, r4, lsl #8
    9ec0:	03aa0f00 			; <UNDEFINED> instruction: 0x03aa0f00
    9ec4:	05680000 	strbeq	r0, [r8, #-0]!
    9ec8:	00040bb3 			; <UNDEFINED> instruction: 0x00040bb3
    9ecc:	705f1000 	subsvc	r1, pc, r0
    9ed0:	dbb40500 	blle	fed0b2d8 <__bss_end__+0xfed012a8>
    9ed4:	00000002 	andeq	r0, r0, r2
    9ed8:	00725f10 	rsbseq	r5, r2, r0, lsl pc
    9edc:	0025b505 	eoreq	fp, r5, r5, lsl #10
    9ee0:	10040000 	andne	r0, r4, r0
    9ee4:	0500775f 	streq	r7, [r0, #-1887]	; 0xfffff8a1
    9ee8:	000025b6 			; <UNDEFINED> instruction: 0x000025b6
    9eec:	1f0c0800 	svcne	0x000c0800
    9ef0:	05000001 	streq	r0, [r0, #-1]
    9ef4:	00003fb7 			; <UNDEFINED> instruction: 0x00003fb7
    9ef8:	080c0c00 	stmdaeq	ip, {sl, fp}
    9efc:	05000002 	streq	r0, [r0, #-2]
    9f00:	00003fb8 			; <UNDEFINED> instruction: 0x00003fb8
    9f04:	5f100e00 	svcpl	0x00100e00
    9f08:	05006662 	streq	r6, [r0, #-1634]	; 0xfffff99e
    9f0c:	0002b6b9 			; <UNDEFINED> instruction: 0x0002b6b9
    9f10:	7b0c1000 	blvc	30df18 <__bss_end__+0x303ee8>
    9f14:	05000000 	streq	r0, [r0, #-0]
    9f18:	000025ba 			; <UNDEFINED> instruction: 0x000025ba
    9f1c:	0f0c1800 	svceq	0x000c1800
    9f20:	05000001 	streq	r0, [r0, #-1]
    9f24:	00010ac1 	andeq	r0, r1, r1, asr #21
    9f28:	240c1c00 	strcs	r1, [ip], #-3072	; 0xfffff400
    9f2c:	0500000b 	streq	r0, [r0, #-11]
    9f30:	000566c3 	andeq	r6, r5, r3, asr #13
    9f34:	190c2000 	stmdbne	ip, {sp}
    9f38:	05000006 	streq	r0, [r0, #-6]
    9f3c:	000590c5 	andeq	r9, r5, r5, asr #1
    9f40:	2c0c2400 	cfstrscs	mvf2, [ip], {-0}
    9f44:	05000004 	streq	r0, [r0, #-4]
    9f48:	0005b4c8 	andeq	fp, r5, r8, asr #9
    9f4c:	100c2800 	andne	r2, ip, r0, lsl #16
    9f50:	05000005 	streq	r0, [r0, #-5]
    9f54:	0005cec9 	andeq	ip, r5, r9, asr #29
    9f58:	5f102c00 	svcpl	0x00102c00
    9f5c:	05006275 	streq	r6, [r0, #-629]	; 0xfffffd8b
    9f60:	0002b6cc 	andeq	fp, r2, ip, asr #13
    9f64:	5f103000 	svcpl	0x00103000
    9f68:	05007075 	streq	r7, [r0, #-117]	; 0xffffff8b
    9f6c:	0002dbcd 	andeq	sp, r2, sp, asr #23
    9f70:	5f103800 	svcpl	0x00103800
    9f74:	05007275 	streq	r7, [r0, #-629]	; 0xfffffd8b
    9f78:	000025ce 	andeq	r2, r0, lr, asr #11
    9f7c:	b50c3c00 	strlt	r3, [ip, #-3072]	; 0xfffff400
    9f80:	05000000 	streq	r0, [r0, #-0]
    9f84:	0005d4d1 	ldrdeq	sp, [r5], -r1
    9f88:	e80c4000 	stmda	ip, {lr}
    9f8c:	05000004 	streq	r0, [r0, #-4]
    9f90:	0005e4d2 	ldrdeq	lr, [r5], -r2
    9f94:	5f104300 	svcpl	0x00104300
    9f98:	0500626c 	streq	r6, [r0, #-620]	; 0xfffffd94
    9f9c:	0002b6d5 	ldrdeq	fp, [r2], -r5
    9fa0:	3d0c4400 	cfstrscc	mvf4, [ip, #-0]
    9fa4:	05000001 	streq	r0, [r0, #-1]
    9fa8:	000025d8 	ldrdeq	r2, [r0], -r8
    9fac:	4e0c4c00 	cdpmi	12, 0, cr4, cr12, cr0, {0}
    9fb0:	05000001 	streq	r0, [r0, #-1]
    9fb4:	00007bd9 	ldrdeq	r7, [r0], -r9
    9fb8:	c50c5000 	strgt	r5, [ip, #-0]
    9fbc:	0500000a 	streq	r0, [r0, #-10]
    9fc0:	000429dc 	ldrdeq	r2, [r4], -ip
    9fc4:	1e0c5400 	cfcpysne	mvf5, mvf12
    9fc8:	05000004 	streq	r0, [r0, #-4]
    9fcc:	0000ffe0 	andeq	pc, r0, r0, ror #31
    9fd0:	b20c5800 	andlt	r5, ip, #0, 16
    9fd4:	05000003 	streq	r0, [r0, #-3]
    9fd8:	0000f4e2 	andeq	pc, r0, r2, ror #9
    9fdc:	7b0c5c00 	blvc	320fe4 <__bss_end__+0x316fb4>
    9fe0:	05000002 	streq	r0, [r0, #-2]
    9fe4:	000025e3 	andeq	r2, r0, r3, ror #11
    9fe8:	14006400 	strne	r6, [r0], #-1024	; 0xfffffc00
    9fec:	00000025 	andeq	r0, r0, r5, lsr #32
    9ff0:	00000429 	andeq	r0, r0, r9, lsr #8
    9ff4:	00042915 	andeq	r2, r4, r5, lsl r9
    9ff8:	010a1500 	tsteq	sl, r0, lsl #10
    9ffc:	0c150000 	ldceq	0, cr0, [r5], {-0}
    a000:	15000001 	strne	r0, [r0, #-1]
    a004:	00000025 	andeq	r0, r0, r5, lsr #32
    a008:	34040e00 	strcc	r0, [r4], #-3584	; 0xfffff200
    a00c:	04000004 	streq	r0, [r0], #-4
    a010:	00000429 	andeq	r0, r0, r9, lsr #8
    a014:	00040816 	andeq	r0, r4, r6, lsl r8
    a018:	05042800 	streq	r2, [r4, #-2048]	; 0xfffff800
    a01c:	05660238 	strbeq	r0, [r6, #-568]!	; 0xfffffdc8
    a020:	70170000 	andsvc	r0, r7, r0
    a024:	05000003 	streq	r0, [r0, #-3]
    a028:	0025023a 	eoreq	r0, r5, sl, lsr r2
    a02c:	17000000 	strne	r0, [r0, -r0]
    a030:	0000012e 	andeq	r0, r0, lr, lsr #2
    a034:	3b023f05 	blcc	99c50 <__bss_end__+0x8fc20>
    a038:	04000006 	streq	r0, [r0], #-6
    a03c:	0001f817 	andeq	pc, r1, r7, lsl r8	; <UNPREDICTABLE>
    a040:	023f0500 	eorseq	r0, pc, #0, 10
    a044:	0000063b 	andeq	r0, r0, fp, lsr r6
    a048:	01a81708 			; <UNDEFINED> instruction: 0x01a81708
    a04c:	3f050000 	svccc	0x00050000
    a050:	00063b02 	andeq	r3, r6, r2, lsl #22
    a054:	d3170c00 	tstle	r7, #0, 24
    a058:	05000003 	streq	r0, [r0, #-3]
    a05c:	00250241 	eoreq	r0, r5, r1, asr #4
    a060:	17100000 	ldrne	r0, [r0, -r0]
    a064:	00000029 	andeq	r0, r0, r9, lsr #32
    a068:	1d024205 	sfmne	f4, 4, [r2, #-20]	; 0xffffffec
    a06c:	14000008 	strne	r0, [r0], #-8
    a070:	000a7e17 	andeq	r7, sl, r7, lsl lr
    a074:	02440500 	subeq	r0, r4, #0, 10
    a078:	00000025 	andeq	r0, r0, r5, lsr #32
    a07c:	09f91730 	ldmibeq	r9!, {r4, r5, r8, r9, sl, ip}^
    a080:	45050000 	strmi	r0, [r5, #-0]
    a084:	00058a02 	andeq	r8, r5, r2, lsl #20
    a088:	b2173400 	andslt	r3, r7, #0, 8
    a08c:	05000002 	streq	r0, [r0, #-2]
    a090:	00250247 	eoreq	r0, r5, r7, asr #4
    a094:	17380000 	ldrne	r0, [r8, -r0]!
    a098:	000003dd 	ldrdeq	r0, [r0], -sp
    a09c:	38024905 	stmdacc	r2, {r0, r2, r8, fp, lr}
    a0a0:	3c000008 	stccc	0, cr0, [r0], {8}
    a0a4:	00025717 	andeq	r5, r2, r7, lsl r7
    a0a8:	024c0500 	subeq	r0, ip, #0, 10
    a0ac:	0000017c 	andeq	r0, r0, ip, ror r1
    a0b0:	01c71740 	biceq	r1, r7, r0, asr #14
    a0b4:	4d050000 	stcmi	0, cr0, [r5, #-0]
    a0b8:	00002502 	andeq	r2, r0, r2, lsl #10
    a0bc:	2a174400 	bcs	5db0c4 <__bss_end__+0x5d1094>
    a0c0:	05000005 	streq	r0, [r0, #-5]
    a0c4:	017c024e 	cmneq	ip, lr, asr #4
    a0c8:	17480000 	strbne	r0, [r8, -r0]
    a0cc:	000002c4 	andeq	r0, r0, r4, asr #5
    a0d0:	3e024f05 	cdpcc	15, 0, cr4, cr2, cr5, {0}
    a0d4:	4c000008 	stcmi	0, cr0, [r0], {8}
    a0d8:	00020017 	andeq	r0, r2, r7, lsl r0
    a0dc:	02520500 	subseq	r0, r2, #0, 10
    a0e0:	00000025 	andeq	r0, r0, r5, lsr #32
    a0e4:	01461750 	cmpeq	r6, r0, asr r7
    a0e8:	53050000 	movwpl	r0, #20480	; 0x5000
    a0ec:	00010c02 	andeq	r0, r1, r2, lsl #24
    a0f0:	ea175400 	b	5df0f8 <__bss_end__+0x5d50c8>
    a0f4:	05000002 	streq	r0, [r0, #-2]
    a0f8:	07fb0276 			; <UNDEFINED> instruction: 0x07fb0276
    a0fc:	18580000 	ldmdane	r8, {}^	; <UNPREDICTABLE>
    a100:	000002aa 	andeq	r0, r0, sl, lsr #5
    a104:	99027a05 	stmdbls	r2, {r0, r2, r9, fp, ip, sp, lr}
    a108:	48000002 	stmdami	r0, {r1}
    a10c:	02351801 	eorseq	r1, r5, #65536	; 0x10000
    a110:	7b050000 	blvc	14a118 <__bss_end__+0x1400e8>
    a114:	00025b02 	andeq	r5, r2, r2, lsl #22
    a118:	18014c00 	stmdane	r1, {sl, fp, lr}
    a11c:	000004d6 	ldrdeq	r0, [r0], -r6
    a120:	4f027f05 	svcmi	0x00027f05
    a124:	dc000008 	stcle	0, cr0, [r0], {8}
    a128:	01171802 	tsteq	r7, r2, lsl #16
    a12c:	84050000 	strhi	r0, [r5], #-0
    a130:	00060002 	andeq	r0, r6, r2
    a134:	1802e000 	stmdane	r2, {sp, lr, pc}
    a138:	000000fc 	strdeq	r0, [r0], -ip
    a13c:	5b028505 	blpl	ab558 <__bss_end__+0xa1528>
    a140:	ec000008 	stc	0, cr0, [r0], {8}
    a144:	040e0002 	streq	r0, [lr], #-2
    a148:	0000040b 	andeq	r0, r0, fp, lsl #8
    a14c:	00002514 	andeq	r2, r0, r4, lsl r5
    a150:	00058a00 	andeq	r8, r5, r0, lsl #20
    a154:	04291500 	strteq	r1, [r9], #-1280	; 0xfffffb00
    a158:	0a150000 	beq	54a160 <__bss_end__+0x540130>
    a15c:	15000001 	strne	r0, [r0, #-1]
    a160:	0000058a 	andeq	r0, r0, sl, lsl #11
    a164:	00002515 	andeq	r2, r0, r5, lsl r5
    a168:	040e0000 	streq	r0, [lr], #-0
    a16c:	00000119 	andeq	r0, r0, r9, lsl r1
    a170:	056c040e 	strbeq	r0, [ip, #-1038]!	; 0xfffffbf2
    a174:	86140000 	ldrhi	r0, [r4], -r0
    a178:	b4000000 	strlt	r0, [r0], #-0
    a17c:	15000005 	strne	r0, [r0, #-5]
    a180:	00000429 	andeq	r0, r0, r9, lsr #8
    a184:	00010a15 	andeq	r0, r1, r5, lsl sl
    a188:	00861500 	addeq	r1, r6, r0, lsl #10
    a18c:	25150000 	ldrcs	r0, [r5, #-0]
    a190:	00000000 	andeq	r0, r0, r0
    a194:	0596040e 	ldreq	r0, [r6, #1038]	; 0x40e
    a198:	25140000 	ldrcs	r0, [r4, #-0]
    a19c:	ce000000 	cdpgt	0, 0, cr0, cr0, cr0, {0}
    a1a0:	15000005 	strne	r0, [r0, #-5]
    a1a4:	00000429 	andeq	r0, r0, r9, lsr #8
    a1a8:	00010a15 	andeq	r0, r1, r5, lsl sl
    a1ac:	040e0000 	streq	r0, [lr], #-0
    a1b0:	000005ba 			; <UNDEFINED> instruction: 0x000005ba
    a1b4:	00005409 	andeq	r5, r0, r9, lsl #8
    a1b8:	0005e400 	andeq	lr, r5, r0, lsl #8
    a1bc:	00cc0a00 	sbceq	r0, ip, r0, lsl #20
    a1c0:	00020000 	andeq	r0, r2, r0
    a1c4:	00005409 	andeq	r5, r0, r9, lsl #8
    a1c8:	0005f400 	andeq	pc, r5, r0, lsl #8
    a1cc:	00cc0a00 	sbceq	r0, ip, r0, lsl #20
    a1d0:	00000000 	andeq	r0, r0, r0
    a1d4:	00039806 	andeq	r9, r3, r6, lsl #16
    a1d8:	011d0500 	tsteq	sp, r0, lsl #10
    a1dc:	000002e1 	andeq	r0, r0, r1, ror #5
    a1e0:	0004bd19 	andeq	fp, r4, r9, lsl sp
    a1e4:	21050c00 	tstcs	r5, r0, lsl #24
    a1e8:	00063501 	andeq	r3, r6, r1, lsl #10
    a1ec:	03c01700 	biceq	r1, r0, #0, 14
    a1f0:	23050000 	movwcs	r0, #20480	; 0x5000
    a1f4:	00063501 	andeq	r3, r6, r1, lsl #10
    a1f8:	1b170000 	blne	5ca200 <__bss_end__+0x5c01d0>
    a1fc:	05000002 	streq	r0, [r0, #-2]
    a200:	00250124 	eoreq	r0, r5, r4, lsr #2
    a204:	17040000 	strne	r0, [r4, -r0]
    a208:	00000392 	muleq	r0, r2, r3
    a20c:	3b012505 	blcc	53628 <__bss_end__+0x495f8>
    a210:	08000006 	stmdaeq	r0, {r1, r2}
    a214:	00040e00 	andeq	r0, r4, r0, lsl #28
    a218:	0e000006 	cdpeq	0, 0, cr0, cr0, cr6, {0}
    a21c:	0005f404 	andeq	pc, r5, r4, lsl #8
    a220:	00211900 	eoreq	r1, r1, r0, lsl #18
    a224:	050e0000 	streq	r0, [lr, #-0]
    a228:	0676013d 			; <UNDEFINED> instruction: 0x0676013d
    a22c:	0f170000 	svceq	0x00170000
    a230:	05000004 	streq	r0, [r0, #-4]
    a234:	0676013e 			; <UNDEFINED> instruction: 0x0676013e
    a238:	17000000 	strne	r0, [r0, -r0]
    a23c:	00000443 	andeq	r0, r0, r3, asr #8
    a240:	76013f05 	strvc	r3, [r1], -r5, lsl #30
    a244:	06000006 	streq	r0, [r0], -r6
    a248:	00045f17 	andeq	r5, r4, r7, lsl pc
    a24c:	01400500 	cmpeq	r0, r0, lsl #10
    a250:	0000005b 	andeq	r0, r0, fp, asr r0
    a254:	5b09000c 	blpl	24a28c <__bss_end__+0x24025c>
    a258:	86000000 	strhi	r0, [r0], -r0
    a25c:	0a000006 	beq	a27c <__bss_end__+0x24c>
    a260:	000000cc 	andeq	r0, r0, ip, asr #1
    a264:	d01a0002 	andsle	r0, sl, r2
    a268:	87025705 	strhi	r5, [r2, -r5, lsl #14]
    a26c:	17000007 	strne	r0, [r0, -r7]
    a270:	000004a1 	andeq	r0, r0, r1, lsr #9
    a274:	2c025905 			; <UNDEFINED> instruction: 0x2c025905
    a278:	00000000 	andeq	r0, r0, r0
    a27c:	00044917 	andeq	r4, r4, r7, lsl r9
    a280:	025a0500 	subseq	r0, sl, #0, 10
    a284:	0000010c 	andeq	r0, r0, ip, lsl #2
    a288:	024a1704 	subeq	r1, sl, #4, 14	; 0x100000
    a28c:	5b050000 	blpl	14a294 <__bss_end__+0x140264>
    a290:	00078702 	andeq	r8, r7, r2, lsl #14
    a294:	01170800 	tsteq	r7, r0, lsl #16
    a298:	05000005 	streq	r0, [r0, #-5]
    a29c:	0192025c 	orrseq	r0, r2, ip, asr r2
    a2a0:	17240000 	strne	r0, [r4, -r0]!
    a2a4:	000001b8 			; <UNDEFINED> instruction: 0x000001b8
    a2a8:	25025d05 	strcs	r5, [r2, #-3333]	; 0xfffff2fb
    a2ac:	48000000 	stmdami	r0, {}	; <UNPREDICTABLE>
    a2b0:	0003bb17 	andeq	fp, r3, r7, lsl fp
    a2b4:	025e0500 	subseq	r0, lr, #0, 10
    a2b8:	00000069 	andeq	r0, r0, r9, rrx
    a2bc:	05171750 	ldreq	r1, [r7, #-1872]	; 0xfffff8b0
    a2c0:	5f050000 	svcpl	0x00050000
    a2c4:	00064102 	andeq	r4, r6, r2, lsl #2
    a2c8:	c6175800 	ldrgt	r5, [r7], -r0, lsl #16
    a2cc:	05000003 	streq	r0, [r0, #-3]
    a2d0:	00f40260 	rscseq	r0, r4, r0, ror #4
    a2d4:	17680000 	strbne	r0, [r8, -r0]!
    a2d8:	0000051c 	andeq	r0, r0, ip, lsl r5
    a2dc:	f4026105 	vst4.8	{d6,d8,d10,d12}, [r2], r5
    a2e0:	70000000 	andvc	r0, r0, r0
    a2e4:	0002ce17 	andeq	ip, r2, r7, lsl lr
    a2e8:	02620500 	rsbeq	r0, r2, #0, 10
    a2ec:	000000f4 	strdeq	r0, [r0], -r4
    a2f0:	04cc1778 	strbeq	r1, [ip], #1912	; 0x778
    a2f4:	63050000 	movwvs	r0, #20480	; 0x5000
    a2f8:	00079702 	andeq	r9, r7, r2, lsl #14
    a2fc:	3e178000 	cdpcc	0, 1, cr8, cr7, cr0, {0}
    a300:	05000002 	streq	r0, [r0, #-2]
    a304:	07a70264 	streq	r0, [r7, r4, ror #4]!
    a308:	17880000 	strne	r0, [r8, r0]
    a30c:	0000046c 	andeq	r0, r0, ip, ror #8
    a310:	25026505 	strcs	r6, [r2, #-1285]	; 0xfffffafb
    a314:	a0000000 	andge	r0, r0, r0
    a318:	00017e17 	andeq	r7, r1, r7, lsl lr
    a31c:	02660500 	rsbeq	r0, r6, #0, 10
    a320:	000000f4 	strdeq	r0, [r0], -r4
    a324:	008f17a4 	addeq	r1, pc, r4, lsr #15
    a328:	67050000 	strvs	r0, [r5, -r0]
    a32c:	0000f402 	andeq	pc, r0, r2, lsl #8
    a330:	6d17ac00 	ldcvs	12, cr10, [r7, #-0]
    a334:	05000001 	streq	r0, [r0, #-1]
    a338:	00f40268 	rscseq	r0, r4, r8, ror #4
    a33c:	17b40000 	ldrne	r0, [r4, r0]!
    a340:	0000003c 	andeq	r0, r0, ip, lsr r0
    a344:	f4026905 	vst2.8	{d6,d8}, [r2], r5
    a348:	bc000000 	stclt	0, cr0, [r0], {-0}
    a34c:	00004b17 	andeq	r4, r0, r7, lsl fp
    a350:	026a0500 	rsbeq	r0, sl, #0, 10
    a354:	000000f4 	strdeq	r0, [r0], -r4
    a358:	036e17c4 	cmneq	lr, #196, 14	; 0x3100000
    a35c:	6b050000 	blvs	14a364 <__bss_end__+0x140334>
    a360:	00002502 	andeq	r2, r0, r2, lsl #10
    a364:	0900cc00 	stmdbeq	r0, {sl, fp, lr, pc}
    a368:	00000112 	andeq	r0, r0, r2, lsl r1
    a36c:	00000797 	muleq	r0, r7, r7
    a370:	0000cc0a 	andeq	ip, r0, sl, lsl #24
    a374:	09001900 	stmdbeq	r0, {r8, fp, ip}
    a378:	00000112 	andeq	r0, r0, r2, lsl r1
    a37c:	000007a7 	andeq	r0, r0, r7, lsr #15
    a380:	0000cc0a 	andeq	ip, r0, sl, lsl #24
    a384:	09000700 	stmdbeq	r0, {r8, r9, sl}
    a388:	00000112 	andeq	r0, r0, r2, lsl r1
    a38c:	000007b7 			; <UNDEFINED> instruction: 0x000007b7
    a390:	0000cc0a 	andeq	ip, r0, sl, lsl #24
    a394:	1a001700 	bne	ff9c <__bss_end__+0x5f6c>
    a398:	027005f0 	rsbseq	r0, r0, #240, 10	; 0x3c000000
    a39c:	000007db 	ldrdeq	r0, [r0], -fp
    a3a0:	00029a17 	andeq	r9, r2, r7, lsl sl
    a3a4:	02730500 	rsbseq	r0, r3, #0, 10
    a3a8:	000007db 	ldrdeq	r0, [r0], -fp
    a3ac:	04c31700 	strbeq	r1, [r3], #1792	; 0x700
    a3b0:	74050000 	strvc	r0, [r5], #-0
    a3b4:	0007eb02 	andeq	lr, r7, r2, lsl #22
    a3b8:	09007800 	stmdbeq	r0, {fp, ip, sp, lr}
    a3bc:	000002db 	ldrdeq	r0, [r0], -fp
    a3c0:	000007eb 	andeq	r0, r0, fp, ror #15
    a3c4:	0000cc0a 	andeq	ip, r0, sl, lsl #24
    a3c8:	09001d00 	stmdbeq	r0, {r8, sl, fp, ip}
    a3cc:	0000002c 	andeq	r0, r0, ip, lsr #32
    a3d0:	000007fb 	strdeq	r0, [r0], -fp
    a3d4:	0000cc0a 	andeq	ip, r0, sl, lsl #24
    a3d8:	1b001d00 	blne	117e0 <__bss_end__+0x77b0>
    a3dc:	025505f0 	subseq	r0, r5, #240, 10	; 0x3c000000
    a3e0:	0000081d 	andeq	r0, r0, sp, lsl r8
    a3e4:	0004081c 	andeq	r0, r4, ip, lsl r8
    a3e8:	026c0500 	rsbeq	r0, ip, #0, 10
    a3ec:	00000686 	andeq	r0, r0, r6, lsl #13
    a3f0:	0004ee1c 	andeq	lr, r4, ip, lsl lr
    a3f4:	02750500 	rsbseq	r0, r5, #0, 10
    a3f8:	000007b7 			; <UNDEFINED> instruction: 0x000007b7
    a3fc:	01120900 	tsteq	r2, r0, lsl #18
    a400:	082d0000 	stmdaeq	sp!, {}	; <UNPREDICTABLE>
    a404:	cc0a0000 	stcgt	0, cr0, [sl], {-0}
    a408:	18000000 	stmdane	r0, {}	; <UNPREDICTABLE>
    a40c:	08381d00 	ldmdaeq	r8!, {r8, sl, fp, ip}
    a410:	29150000 	ldmdbcs	r5, {}	; <UNPREDICTABLE>
    a414:	00000004 	andeq	r0, r0, r4
    a418:	082d040e 	stmdaeq	sp!, {r1, r2, r3, sl}
    a41c:	040e0000 	streq	r0, [lr], #-0
    a420:	0000017c 	andeq	r0, r0, ip, ror r1
    a424:	00084f1d 	andeq	r4, r8, sp, lsl pc
    a428:	00251500 	eoreq	r1, r5, r0, lsl #10
    a42c:	0e000000 	cdpeq	0, 0, cr0, cr0, cr0, {0}
    a430:	00085504 	andeq	r5, r8, r4, lsl #10
    a434:	44040e00 	strmi	r0, [r4], #-3584	; 0xfffff200
    a438:	09000008 	stmdbeq	r0, {r3}
    a43c:	000005f4 	strdeq	r0, [r0], -r4
    a440:	0000086b 	andeq	r0, r0, fp, ror #16
    a444:	0000cc0a 	andeq	ip, r0, sl, lsl #24
    a448:	1e000200 	cdpne	2, 0, cr0, cr0, cr0, {0}
    a44c:	0000048e 	andeq	r0, r0, lr, lsl #9
    a450:	2902fd05 	stmdbcs	r2, {r0, r2, r8, sl, fp, ip, sp, lr, pc}
    a454:	1e000004 	cdpne	0, 0, cr0, cr0, cr4, {0}
    a458:	00000487 	andeq	r0, r0, r7, lsl #9
    a45c:	2f02fe05 	svccs	0x0002fe05
    a460:	14000004 	strne	r0, [r0], #-4
    a464:	00000025 	andeq	r0, r0, r5, lsr #32
    a468:	00000892 	muleq	r0, r2, r8
    a46c:	00002515 	andeq	r2, r0, r5, lsl r5
    a470:	d11f0000 	tstle	pc, r0
    a474:	06000001 	streq	r0, [r0], -r1
    a478:	00089d1d 	andeq	r9, r8, sp, lsl sp
    a47c:	83040e00 	movwhi	r0, #19968	; 0x4e00
    a480:	14000008 	strne	r0, [r0], #-8
    a484:	00000025 	andeq	r0, r0, r5, lsr #32
    a488:	000008b2 			; <UNDEFINED> instruction: 0x000008b2
    a48c:	00058a15 	andeq	r8, r5, r5, lsl sl
    a490:	681f0000 	ldmdavs	pc, {}	; <UNPREDICTABLE>
    a494:	06000007 	streq	r0, [r0], -r7
    a498:	0008bd22 	andeq	fp, r8, r2, lsr #26
    a49c:	a3040e00 	movwge	r0, #19968	; 0x4e00
    a4a0:	20000008 	andcs	r0, r0, r8
    a4a4:	00005401 	andeq	r5, r0, r1, lsl #8
    a4a8:	000c0700 	andeq	r0, ip, r0, lsl #14
    a4ac:	21000009 	tstcs	r0, r9
    a4b0:	00000917 	andeq	r0, r0, r7, lsl r9
    a4b4:	0a902100 	beq	fe4128bc <__bss_end__+0xfe40888c>
    a4b8:	21010000 	mrscs	r0, (UNDEF: 1)
    a4bc:	00000acb 	andeq	r0, r0, fp, asr #21
    a4c0:	092c2104 	stmdbeq	ip!, {r2, r8, sp}
    a4c4:	21050000 	mrscs	r0, (UNDEF: 5)
    a4c8:	000009b8 			; <UNDEFINED> instruction: 0x000009b8
    a4cc:	0ada2106 	beq	ff6928ec <__bss_end__+0xff6888bc>
    a4d0:	21070000 	mrscs	r0, (UNDEF: 7)
    a4d4:	00000ae9 	andeq	r0, r0, r9, ror #21
    a4d8:	0af82103 	beq	ffe128ec <__bss_end__+0xffe088bc>
    a4dc:	00020000 	andeq	r0, r2, r0
    a4e0:	000b7405 	andeq	r7, fp, r5, lsl #8
    a4e4:	c3150700 	tstgt	r5, #0, 14
    a4e8:	22000008 	andcs	r0, r0, #8
    a4ec:	00000b45 	andeq	r0, r0, r5, asr #22
    a4f0:	00331d01 	eorseq	r1, r3, r1, lsl #26
    a4f4:	001c0000 	andseq	r0, ip, r0
    a4f8:	80222020 	eorhi	r2, r2, r0, lsr #32
    a4fc:	0100000b 	tsteq	r0, fp
    a500:	0000331e 	andeq	r3, r0, lr, lsl r3
    a504:	20002800 	andcs	r2, r0, r0, lsl #16
    a508:	0b4f2220 	bleq	13d2d90 <__bss_end__+0x13c8d60>
    a50c:	1f010000 	svcne	0x00010000
    a510:	00000033 	andeq	r0, r0, r3, lsr r0
    a514:	20200034 	eorcs	r0, r0, r4, lsr r0
    a518:	000b2023 	andeq	r2, fp, r3, lsr #32
    a51c:	25560100 	ldrbcs	r0, [r6, #-256]	; 0xffffff00
    a520:	68000000 	stmdavs	r0, {}	; <UNPREDICTABLE>
    a524:	34000094 	strcc	r0, [r0], #-148	; 0xffffff6c
    a528:	01000000 	mrseq	r0, (UNDEF: 0)
    a52c:	0009989c 	muleq	r9, ip, r8
    a530:	69702400 	ldmdbvs	r0!, {sl, sp}^
    a534:	5601006e 	strpl	r0, [r1], -lr, rrx
    a538:	0000002c 	andeq	r0, r0, ip, lsr #32
    a53c:	00001391 	muleq	r0, r1, r3
    a540:	000b1425 	andeq	r1, fp, r5, lsr #8
    a544:	2c590100 	ldfcse	f0, [r9], {-0}
    a548:	cb000000 	blgt	a550 <__bss_end__+0x520>
    a54c:	26000013 			; <UNDEFINED> instruction: 0x26000013
    a550:	0066666f 	rsbeq	r6, r6, pc, ror #12
    a554:	002c5a01 	eoreq	r5, ip, r1, lsl #20
    a558:	14090000 	strne	r0, [r9], #-0
    a55c:	84270000 	strthi	r0, [r7], #-0
    a560:	5d000094 	stcpl	0, cr0, [r0, #-592]	; 0xfffffdb0
    a564:	2800000b 	stmdacs	r0, {r0, r1, r3}
    a568:	f30b5001 	vhadd.u8	d5, d11, d1
    a56c:	25355001 	ldrcs	r5, [r5, #-1]!
    a570:	8080b423 	addhi	fp, r0, r3, lsr #8
    a574:	00000281 	andeq	r0, r0, r1, lsl #5
    a578:	000b3a29 	andeq	r3, fp, r9, lsr #20
    a57c:	4c4f0100 	stfmie	f0, [pc], {-0}
    a580:	1c000094 	stcne	0, cr0, [r0], {148}	; 0x94
    a584:	01000000 	mrseq	r0, (UNDEF: 0)
    a588:	0009e89c 	muleq	r9, ip, r8
    a58c:	69702400 	ldmdbvs	r0!, {sl, sp}^
    a590:	4f01006e 	svcmi	0x0001006e
    a594:	0000002c 	andeq	r0, r0, ip, lsr #32
    a598:	0000141c 	andeq	r1, r0, ip, lsl r4
    a59c:	01007624 	tsteq	r0, r4, lsr #12
    a5a0:	00002c4f 	andeq	r2, r0, pc, asr #24
    a5a4:	00145600 	andseq	r5, r4, r0, lsl #12
    a5a8:	945c2a00 	ldrbls	r2, [ip], #-2560	; 0xfffff600
    a5ac:	0a230000 	beq	8ca5b4 <__bss_end__+0x8c0584>
    a5b0:	09de0000 	ldmibeq	lr, {}^	; <UNPREDICTABLE>
    a5b4:	01280000 			; <UNDEFINED> instruction: 0x01280000
    a5b8:	01f30350 	mvnseq	r0, r0, asr r3
    a5bc:	642b0050 	strtvs	r0, [fp], #-80	; 0xffffffb0
    a5c0:	64000094 	strvs	r0, [r0], #-148	; 0xffffff6c
    a5c4:	0000000a 	andeq	r0, r0, sl
    a5c8:	000b5929 	andeq	r5, fp, r9, lsr #18
    a5cc:	3c4a0100 	stfcce	f0, [sl], {-0}
    a5d0:	10000094 	mulne	r0, r4, r0
    a5d4:	01000000 	mrseq	r0, (UNDEF: 0)
    a5d8:	000a239c 	muleq	sl, ip, r3
    a5dc:	69702400 	ldmdbvs	r0!, {sl, sp}^
    a5e0:	4a01006e 	bmi	4a7a0 <__bss_end__+0x40770>
    a5e4:	0000002c 	andeq	r0, r0, ip, lsr #32
    a5e8:	00001490 	muleq	r0, r0, r4
    a5ec:	00944827 	addseq	r4, r4, r7, lsr #16
    a5f0:	000ae000 	andeq	lr, sl, r0
    a5f4:	50012800 	andpl	r2, r1, r0, lsl #16
    a5f8:	5001f303 	andpl	pc, r1, r3, lsl #6
    a5fc:	01510128 	cmpeq	r1, r8, lsr #2
    a600:	29000030 	stmdbcs	r0, {r4, r5}
    a604:	00000b07 	andeq	r0, r0, r7, lsl #22
    a608:	94184301 	ldrls	r4, [r8], #-769	; 0xfffffcff
    a60c:	00240000 	eoreq	r0, r4, r0
    a610:	9c010000 	stcls	0, cr0, [r1], {-0}
    a614:	00000a64 	andeq	r0, r0, r4, ror #20
    a618:	6e697024 	cdpvs	0, 6, cr7, cr9, cr4, {1}
    a61c:	2c430100 	stfcse	f0, [r3], {-0}
    a620:	b1000000 	mrslt	r0, (UNDEF: 0)
    a624:	27000014 	smladcs	r0, r4, r0, r0
    a628:	00009434 	andeq	r9, r0, r4, lsr r4
    a62c:	00000b68 	andeq	r0, r0, r8, ror #22
    a630:	05500128 	ldrbeq	r0, [r0, #-296]	; 0xfffffed8
    a634:	2000280c 	andcs	r2, r0, ip, lsl #16
    a638:	51012820 	tstpl	r1, r0, lsr #16
    a63c:	01f33105 	mvnseq	r3, r5, lsl #2
    a640:	00002450 	andeq	r2, r0, r0, asr r4
    a644:	000b6829 	andeq	r6, fp, r9, lsr #16
    a648:	f43c0100 			; <UNDEFINED> instruction: 0xf43c0100
    a64c:	24000093 	strcs	r0, [r0], #-147	; 0xffffff6d
    a650:	01000000 	mrseq	r0, (UNDEF: 0)
    a654:	000aa59c 	muleq	sl, ip, r5
    a658:	69702400 	ldmdbvs	r0!, {sl, sp}^
    a65c:	3c01006e 	stccc	0, cr0, [r1], {110}	; 0x6e
    a660:	0000002c 	andeq	r0, r0, ip, lsr #32
    a664:	000014d2 	ldrdeq	r1, [r0], -r2
    a668:	00941027 	addseq	r1, r4, r7, lsr #32
    a66c:	000b6800 	andeq	r6, fp, r0, lsl #16
    a670:	50012800 	andpl	r2, r1, r0, lsl #16
    a674:	001c0c05 	andseq	r0, ip, r5, lsl #24
    a678:	01282020 			; <UNDEFINED> instruction: 0x01282020
    a67c:	f3310551 	vqrshl.u64	q0, <illegal reg q0.5>, <illegal reg q0.5>
    a680:	00245001 	eoreq	r5, r4, r1
    a684:	0b2a2900 	bleq	a94a8c <__bss_end__+0xa8aa5c>
    a688:	37010000 	strcc	r0, [r1, -r0]
    a68c:	000093e4 	andeq	r9, r0, r4, ror #7
    a690:	00000010 	andeq	r0, r0, r0, lsl r0
    a694:	0ae09c01 	beq	ff8316a0 <__bss_end__+0xff827670>
    a698:	70240000 	eorvc	r0, r4, r0
    a69c:	01006e69 	tsteq	r0, r9, ror #28
    a6a0:	00002c37 	andeq	r2, r0, r7, lsr ip
    a6a4:	0014f300 	andseq	pc, r4, r0, lsl #6
    a6a8:	93f02700 	mvnsls	r2, #0, 14
    a6ac:	0ae00000 	beq	ff80a6b4 <__bss_end__+0xff800684>
    a6b0:	01280000 			; <UNDEFINED> instruction: 0x01280000
    a6b4:	01f30350 	mvnseq	r0, r0, asr r3
    a6b8:	51012850 	tstpl	r1, r0, asr r8
    a6bc:	00003101 	andeq	r3, r0, r1, lsl #2
    a6c0:	0009d029 	andeq	sp, r9, r9, lsr #32
    a6c4:	7c280100 	stfvcs	f0, [r8], #-0
    a6c8:	68000093 	stmdavs	r0, {r0, r1, r4, r7}
    a6cc:	01000000 	mrseq	r0, (UNDEF: 0)
    a6d0:	000b5d9c 	muleq	fp, ip, sp
    a6d4:	69702400 	ldmdbvs	r0!, {sl, sp}^
    a6d8:	2801006e 	stmdacs	r1, {r1, r2, r3, r5, r6}
    a6dc:	0000002c 	andeq	r0, r0, ip, lsr #32
    a6e0:	00001514 	andeq	r1, r0, r4, lsl r5
    a6e4:	0004db2c 	andeq	sp, r4, ip, lsr #22
    a6e8:	00280100 	eoreq	r0, r8, r0, lsl #2
    a6ec:	35000009 	strcc	r0, [r0, #-9]
    a6f0:	2d000015 	stccs	0, cr0, [r0, #-84]	; 0xffffffac
    a6f4:	0066666f 	rsbeq	r6, r6, pc, ror #12
    a6f8:	002c2d01 	eoreq	r2, ip, r1, lsl #26
    a6fc:	54010000 	strpl	r0, [r1], #-0
    a700:	0100672d 	tsteq	r0, sp, lsr #14
    a704:	00002c2f 	andeq	r2, r0, pc, lsr #24
    a708:	26560100 	ldrbcs	r0, [r6], -r0, lsl #2
    a70c:	31010076 	tstcc	r1, r6, ror r0
    a710:	0000002c 	andeq	r0, r0, ip, lsr #32
    a714:	00001556 	andeq	r1, r0, r6, asr r5
    a718:	0093c82a 	addseq	ip, r3, sl, lsr #16
    a71c:	000b5d00 	andeq	r5, fp, r0, lsl #26
    a720:	000b4c00 	andeq	r4, fp, r0, lsl #24
    a724:	50012800 	andpl	r2, r1, r0, lsl #16
    a728:	00007602 	andeq	r7, r0, r2, lsl #12
    a72c:	0093dc27 	addseq	sp, r3, r7, lsr #24
    a730:	000b6800 	andeq	r6, fp, r0, lsl #16
    a734:	50012800 	andpl	r2, r1, r0, lsl #16
    a738:	00007602 	andeq	r7, r0, r2, lsl #12
    a73c:	08eb2e00 	stmiaeq	fp!, {r9, sl, fp, sp}^
    a740:	08eb0000 	stmiaeq	fp!, {}^	; <UNPREDICTABLE>
    a744:	a7060000 	strge	r0, [r6, -r0]
    a748:	0008452e 	andeq	r4, r8, lr, lsr #10
    a74c:	00084500 	andeq	r4, r8, r0, lsl #10
    a750:	009b0600 	addseq	r0, fp, r0, lsl #12
    a754:	00000c24 	andeq	r0, r0, r4, lsr #24
    a758:	21980004 	orrscs	r0, r8, r4
    a75c:	01040000 	mrseq	r0, (UNDEF: 4)
    a760:	00000a1c 	andeq	r0, r0, ip, lsl sl
    a764:	000b8a0c 	andeq	r8, fp, ip, lsl #20
    a768:	00095300 	andeq	r5, r9, r0, lsl #6
    a76c:	00949c00 	addseq	r9, r4, r0, lsl #24
    a770:	00019400 	andeq	r9, r1, r0, lsl #8
    a774:	001b2600 	andseq	r2, fp, r0, lsl #12
    a778:	05040200 	streq	r0, [r4, #-512]	; 0xfffffe00
    a77c:	00746e69 	rsbseq	r6, r4, r9, ror #28
    a780:	66070403 	strvs	r0, [r7], -r3, lsl #8
    a784:	03000000 	movweq	r0, #0
    a788:	02de0601 	sbcseq	r0, lr, #1048576	; 0x100000
    a78c:	02030000 	andeq	r0, r3, #0
    a790:	00037705 	andeq	r7, r3, r5, lsl #14
    a794:	05040300 	streq	r0, [r4, #-768]	; 0xfffffd00
    a798:	000000ac 	andeq	r0, r0, ip, lsr #1
    a79c:	a7050803 	strge	r0, [r5, -r3, lsl #16]
    a7a0:	03000000 	movweq	r0, #0
    a7a4:	02dc0801 	sbcseq	r0, ip, #65536	; 0x10000
    a7a8:	02030000 	andeq	r0, r3, #0
    a7ac:	00022207 	andeq	r2, r2, r7, lsl #4
    a7b0:	07040300 	streq	r0, [r4, -r0, lsl #6]
    a7b4:	00000061 	andeq	r0, r0, r1, rrx
    a7b8:	5c070803 	stcpl	8, cr0, [r7], {3}
    a7bc:	04000000 	streq	r0, [r0], #-0
    a7c0:	000009e7 	andeq	r0, r0, r7, ror #19
    a7c4:	00250702 	eoreq	r0, r5, r2, lsl #14
    a7c8:	bd040000 	stclt	0, cr0, [r4, #-0]
    a7cc:	03000002 	movweq	r0, #2
    a7d0:	0000412c 	andeq	r4, r0, ip, lsr #2
    a7d4:	04320400 	ldrteq	r0, [r2], #-1024	; 0xfffffc00
    a7d8:	72030000 	andvc	r0, r3, #0
    a7dc:	00000041 	andeq	r0, r0, r1, asr #32
    a7e0:	00026d05 	andeq	r6, r2, r5, lsl #26
    a7e4:	01650400 	cmneq	r5, r0, lsl #8
    a7e8:	0000002c 	andeq	r0, r0, ip, lsr #32
    a7ec:	a6030406 	strge	r0, [r3], -r6, lsl #8
    a7f0:	000000b7 	strheq	r0, [r0], -r7
    a7f4:	00025f07 	andeq	r5, r2, r7, lsl #30
    a7f8:	8ca80300 	stchi	3, cr0, [r8]
    a7fc:	07000000 	streq	r0, [r0, -r0]
    a800:	000001e2 	andeq	r0, r0, r2, ror #3
    a804:	00b7a903 	adcseq	sl, r7, r3, lsl #18
    a808:	08000000 	stmdaeq	r0, {}	; <UNPREDICTABLE>
    a80c:	0000004f 	andeq	r0, r0, pc, asr #32
    a810:	000000c7 	andeq	r0, r0, r7, asr #1
    a814:	0000c709 	andeq	ip, r0, r9, lsl #14
    a818:	03000300 	movweq	r0, #768	; 0x300
    a81c:	09c70704 	stmibeq	r7, {r2, r8, r9, sl}^
    a820:	080a0000 	stmdaeq	sl, {}	; <UNPREDICTABLE>
    a824:	00efa303 	rsceq	sl, pc, r3, lsl #6
    a828:	150b0000 	strne	r0, [fp, #-0]
    a82c:	03000004 	movweq	r0, #4
    a830:	000025a5 	andeq	r2, r0, r5, lsr #11
    a834:	240b0000 	strcs	r0, [fp], #-0
    a838:	03000004 	movweq	r0, #4
    a83c:	000098aa 	andeq	r9, r0, sl, lsr #17
    a840:	04000400 	streq	r0, [r0], #-1024	; 0xfffffc00
    a844:	0000039f 	muleq	r0, pc, r3	; <UNPREDICTABLE>
    a848:	00ceab03 	sbceq	sl, lr, r3, lsl #22
    a84c:	9f040000 	svcls	0x00040000
    a850:	03000001 	movweq	r0, #1
    a854:	00006baf 	andeq	r6, r0, pc, lsr #23
    a858:	0d040c00 	stceq	12, cr0, [r4, #-0]
    a85c:	00010d04 	andeq	r0, r1, r4, lsl #26
    a860:	08010300 	stmdaeq	r1, {r8, r9}
    a864:	000002e5 	andeq	r0, r0, r5, ror #5
    a868:	00010d0e 	andeq	r0, r1, lr, lsl #26
    a86c:	04640400 	strbteq	r0, [r4], #-1024	; 0xfffffc00
    a870:	16050000 	strne	r0, [r5], -r0
    a874:	0000005d 	andeq	r0, r0, sp, asr r0
    a878:	0001b00f 	andeq	fp, r1, pc
    a87c:	2d051800 	stccs	8, cr1, [r5, #-0]
    a880:	00000177 	andeq	r0, r0, r7, ror r1
    a884:	0003c00b 	andeq	ip, r3, fp
    a888:	772f0500 	strvc	r0, [pc, -r0, lsl #10]!
    a88c:	00000001 	andeq	r0, r0, r1
    a890:	006b5f10 	rsbeq	r5, fp, r0, lsl pc
    a894:	00253005 	eoreq	r3, r5, r5
    a898:	0b040000 	bleq	10a8a0 <__bss_end__+0x100870>
    a89c:	00000400 	andeq	r0, r0, r0, lsl #8
    a8a0:	00253005 	eoreq	r3, r5, r5
    a8a4:	0b080000 	bleq	20a8ac <__bss_end__+0x20087c>
    a8a8:	00000199 	muleq	r0, r9, r1
    a8ac:	00253005 	eoreq	r3, r5, r5
    a8b0:	0b0c0000 	bleq	30a8b8 <__bss_end__+0x300888>
    a8b4:	000004ae 	andeq	r0, r0, lr, lsr #9
    a8b8:	00253005 	eoreq	r3, r5, r5
    a8bc:	10100000 	andsne	r0, r0, r0
    a8c0:	0500785f 	streq	r7, [r0, #-2143]	; 0xfffff7a1
    a8c4:	00017d31 	andeq	r7, r1, r1, lsr sp
    a8c8:	0d001400 	cfstrseq	mvf1, [r0, #-0]
    a8cc:	00012404 	andeq	r2, r1, r4, lsl #8
    a8d0:	01190800 	tsteq	r9, r0, lsl #16
    a8d4:	018d0000 	orreq	r0, sp, r0
    a8d8:	c7090000 	strgt	r0, [r9, -r0]
    a8dc:	00000000 	andeq	r0, r0, r0
    a8e0:	01dd0f00 	bicseq	r0, sp, r0, lsl #30
    a8e4:	05240000 	streq	r0, [r4, #-0]!
    a8e8:	00020635 	andeq	r0, r2, r5, lsr r6
    a8ec:	009e0b00 	addseq	r0, lr, r0, lsl #22
    a8f0:	37050000 	strcc	r0, [r5, -r0]
    a8f4:	00000025 	andeq	r0, r0, r5, lsr #32
    a8f8:	043a0b00 	ldrteq	r0, [sl], #-2816	; 0xfffff500
    a8fc:	38050000 	stmdacc	r5, {}	; <UNPREDICTABLE>
    a900:	00000025 	andeq	r0, r0, r5, lsr #32
    a904:	00c10b04 	sbceq	r0, r1, r4, lsl #22
    a908:	39050000 	stmdbcc	r5, {}	; <UNPREDICTABLE>
    a90c:	00000025 	andeq	r0, r0, r5, lsr #32
    a910:	052f0b08 	streq	r0, [pc, #-2824]!	; 9e10 <buf.4297+0x1e0>
    a914:	3a050000 	bcc	14a91c <__bss_end__+0x1408ec>
    a918:	00000025 	andeq	r0, r0, r5, lsr #32
    a91c:	02a10b0c 	adceq	r0, r1, #12, 22	; 0x3000
    a920:	3b050000 	blcc	14a928 <__bss_end__+0x1408f8>
    a924:	00000025 	andeq	r0, r0, r5, lsr #32
    a928:	02830b10 	addeq	r0, r3, #16, 22	; 0x4000
    a92c:	3c050000 	stccc	0, cr0, [r5], {-0}
    a930:	00000025 	andeq	r0, r0, r5, lsr #32
    a934:	04b30b14 	ldrteq	r0, [r3], #2836	; 0xb14
    a938:	3d050000 	stccc	0, cr0, [r5, #-0]
    a93c:	00000025 	andeq	r0, r0, r5, lsr #32
    a940:	03810b18 	orreq	r0, r1, #24, 22	; 0x6000
    a944:	3e050000 	cdpcc	0, 0, cr0, cr5, cr0, {0}
    a948:	00000025 	andeq	r0, r0, r5, lsr #32
    a94c:	04f60b1c 	ldrbteq	r0, [r6], #2844	; 0xb1c
    a950:	3f050000 	svccc	0x00050000
    a954:	00000025 	andeq	r0, r0, r5, lsr #32
    a958:	01110020 	tsteq	r1, r0, lsr #32
    a95c:	08000001 	stmdaeq	r0, {r0}
    a960:	46480501 	strbmi	r0, [r8], -r1, lsl #10
    a964:	0b000002 	bleq	a974 <__bss_end__+0x944>
    a968:	0000018c 	andeq	r0, r0, ip, lsl #3
    a96c:	02464905 	subeq	r4, r6, #81920	; 0x14000
    a970:	0b000000 	bleq	a978 <__bss_end__+0x948>
    a974:	00000000 	andeq	r0, r0, r0
    a978:	02464a05 	subeq	r4, r6, #20480	; 0x5000
    a97c:	12800000 	addne	r0, r0, #0
    a980:	00000456 	andeq	r0, r0, r6, asr r4
    a984:	01194c05 	tsteq	r9, r5, lsl #24
    a988:	01000000 	mrseq	r0, (UNDEF: 0)
    a98c:	00012612 	andeq	r2, r1, r2, lsl r6
    a990:	194f0500 	stmdbne	pc, {r8, sl}^	; <UNPREDICTABLE>
    a994:	04000001 	streq	r0, [r0], #-1
    a998:	05080001 	streq	r0, [r8, #-1]
    a99c:	56000001 	strpl	r0, [r0], -r1
    a9a0:	09000002 	stmdbeq	r0, {r1}
    a9a4:	000000c7 	andeq	r0, r0, r7, asr #1
    a9a8:	aa11001f 	bge	44aa2c <__bss_end__+0x4409fc>
    a9ac:	90000002 	andls	r0, r0, r2
    a9b0:	945b0501 	ldrbls	r0, [fp], #-1281	; 0xfffffaff
    a9b4:	0b000002 	bleq	a9c4 <__bss_end__+0x994>
    a9b8:	000003c0 	andeq	r0, r0, r0, asr #7
    a9bc:	02945c05 	addseq	r5, r4, #1280	; 0x500
    a9c0:	0b000000 	bleq	a9c8 <__bss_end__+0x998>
    a9c4:	000003d8 	ldrdeq	r0, [r0], -r8
    a9c8:	00255d05 	eoreq	r5, r5, r5, lsl #26
    a9cc:	0b040000 	bleq	10a9d4 <__bss_end__+0x1009a4>
    a9d0:	00000194 	muleq	r0, r4, r1
    a9d4:	029a5f05 	addseq	r5, sl, #5, 30
    a9d8:	0b080000 	bleq	20a9e0 <__bss_end__+0x2009b0>
    a9dc:	00000101 	andeq	r0, r0, r1, lsl #2
    a9e0:	02066005 	andeq	r6, r6, #5
    a9e4:	00880000 	addeq	r0, r8, r0
    a9e8:	0256040d 	subseq	r0, r6, #218103808	; 0xd000000
    a9ec:	aa080000 	bge	20a9f4 <__bss_end__+0x2009c4>
    a9f0:	aa000002 	bge	aa00 <__bss_end__+0x9d0>
    a9f4:	09000002 	stmdbeq	r0, {r1}
    a9f8:	000000c7 	andeq	r0, r0, r7, asr #1
    a9fc:	040d001f 	streq	r0, [sp], #-31	; 0xffffffe1
    aa00:	000002b0 			; <UNDEFINED> instruction: 0x000002b0
    aa04:	038b0f13 	orreq	r0, fp, #19, 30	; 0x4c
    aa08:	05080000 	streq	r0, [r8, #-0]
    aa0c:	0002d673 	andeq	sp, r2, r3, ror r6
    aa10:	00bb0b00 	adcseq	r0, fp, r0, lsl #22
    aa14:	74050000 	strvc	r0, [r5], #-0
    aa18:	000002d6 	ldrdeq	r0, [r0], -r6
    aa1c:	001b0b00 	andseq	r0, fp, r0, lsl #22
    aa20:	75050000 	strvc	r0, [r5, #-0]
    aa24:	00000025 	andeq	r0, r0, r5, lsr #32
    aa28:	040d0004 	streq	r0, [sp], #-4
    aa2c:	0000004f 	andeq	r0, r0, pc, asr #32
    aa30:	0003aa0f 	andeq	sl, r3, pc, lsl #20
    aa34:	b3056800 	movwlt	r6, #22528	; 0x5800
    aa38:	00000406 	andeq	r0, r0, r6, lsl #8
    aa3c:	00705f10 	rsbseq	r5, r0, r0, lsl pc
    aa40:	02d6b405 	sbcseq	fp, r6, #83886080	; 0x5000000
    aa44:	10000000 	andne	r0, r0, r0
    aa48:	0500725f 	streq	r7, [r0, #-607]	; 0xfffffda1
    aa4c:	000025b5 			; <UNDEFINED> instruction: 0x000025b5
    aa50:	5f100400 	svcpl	0x00100400
    aa54:	b6050077 			; <UNDEFINED> instruction: 0xb6050077
    aa58:	00000025 	andeq	r0, r0, r5, lsr #32
    aa5c:	011f0b08 	tsteq	pc, r8, lsl #22
    aa60:	b7050000 	strlt	r0, [r5, -r0]
    aa64:	0000003a 	andeq	r0, r0, sl, lsr r0
    aa68:	02080b0c 	andeq	r0, r8, #12, 22	; 0x3000
    aa6c:	b8050000 	stmdalt	r5, {}	; <UNPREDICTABLE>
    aa70:	0000003a 	andeq	r0, r0, sl, lsr r0
    aa74:	625f100e 	subsvs	r1, pc, #14
    aa78:	b9050066 	stmdblt	r5, {r1, r2, r5, r6}
    aa7c:	000002b1 			; <UNDEFINED> instruction: 0x000002b1
    aa80:	007b0b10 	rsbseq	r0, fp, r0, lsl fp
    aa84:	ba050000 	blt	14aa8c <__bss_end__+0x140a5c>
    aa88:	00000025 	andeq	r0, r0, r5, lsr #32
    aa8c:	010f0b18 	tsteq	pc, r8, lsl fp	; <UNPREDICTABLE>
    aa90:	c1050000 	mrsgt	r0, (UNDEF: 5)
    aa94:	00000105 	andeq	r0, r0, r5, lsl #2
    aa98:	0b240b1c 	bleq	90d710 <__bss_end__+0x9036e0>
    aa9c:	c3050000 	movwgt	r0, #20480	; 0x5000
    aaa0:	00000561 	andeq	r0, r0, r1, ror #10
    aaa4:	06190b20 	ldreq	r0, [r9], -r0, lsr #22
    aaa8:	c5050000 	strgt	r0, [r5, #-0]
    aaac:	0000058b 	andeq	r0, r0, fp, lsl #11
    aab0:	042c0b24 	strteq	r0, [ip], #-2852	; 0xfffff4dc
    aab4:	c8050000 	stmdagt	r5, {}	; <UNPREDICTABLE>
    aab8:	000005af 	andeq	r0, r0, pc, lsr #11
    aabc:	05100b28 	ldreq	r0, [r0, #-2856]	; 0xfffff4d8
    aac0:	c9050000 	stmdbgt	r5, {}	; <UNPREDICTABLE>
    aac4:	000005c9 	andeq	r0, r0, r9, asr #11
    aac8:	755f102c 	ldrbvc	r1, [pc, #-44]	; aaa4 <__bss_end__+0xa74>
    aacc:	cc050062 	stcgt	0, cr0, [r5], {98}	; 0x62
    aad0:	000002b1 			; <UNDEFINED> instruction: 0x000002b1
    aad4:	755f1030 	ldrbvc	r1, [pc, #-48]	; aaac <__bss_end__+0xa7c>
    aad8:	cd050070 	stcgt	0, cr0, [r5, #-448]	; 0xfffffe40
    aadc:	000002d6 	ldrdeq	r0, [r0], -r6
    aae0:	755f1038 	ldrbvc	r1, [pc, #-56]	; aab0 <__bss_end__+0xa80>
    aae4:	ce050072 	mcrgt	0, 0, r0, cr5, cr2, {3}
    aae8:	00000025 	andeq	r0, r0, r5, lsr #32
    aaec:	00b50b3c 	adcseq	r0, r5, ip, lsr fp
    aaf0:	d1050000 	mrsle	r0, (UNDEF: 5)
    aaf4:	000005cf 	andeq	r0, r0, pc, asr #11
    aaf8:	04e80b40 	strbteq	r0, [r8], #2880	; 0xb40
    aafc:	d2050000 	andle	r0, r5, #0
    ab00:	000005df 	ldrdeq	r0, [r0], -pc	; <UNPREDICTABLE>
    ab04:	6c5f1043 	mrrcvs	0, 4, r1, pc, cr3	; <UNPREDICTABLE>
    ab08:	d5050062 	strle	r0, [r5, #-98]	; 0xffffff9e
    ab0c:	000002b1 			; <UNDEFINED> instruction: 0x000002b1
    ab10:	013d0b44 	teqeq	sp, r4, asr #22
    ab14:	d8050000 	stmdale	r5, {}	; <UNPREDICTABLE>
    ab18:	00000025 	andeq	r0, r0, r5, lsr #32
    ab1c:	014e0b4c 	cmpeq	lr, ip, asr #22
    ab20:	d9050000 	stmdble	r5, {}	; <UNPREDICTABLE>
    ab24:	00000076 	andeq	r0, r0, r6, ror r0
    ab28:	0ac50b50 	beq	ff14d870 <__bss_end__+0xff143840>
    ab2c:	dc050000 	stcle	0, cr0, [r5], {-0}
    ab30:	00000424 	andeq	r0, r0, r4, lsr #8
    ab34:	041e0b54 	ldreq	r0, [lr], #-2900	; 0xfffff4ac
    ab38:	e0050000 	and	r0, r5, r0
    ab3c:	000000fa 	strdeq	r0, [r0], -sl
    ab40:	03b20b58 			; <UNDEFINED> instruction: 0x03b20b58
    ab44:	e2050000 	and	r0, r5, #0
    ab48:	000000ef 	andeq	r0, r0, pc, ror #1
    ab4c:	027b0b5c 	rsbseq	r0, fp, #92, 22	; 0x17000
    ab50:	e3050000 	movw	r0, #20480	; 0x5000
    ab54:	00000025 	andeq	r0, r0, r5, lsr #32
    ab58:	25140064 	ldrcs	r0, [r4, #-100]	; 0xffffff9c
    ab5c:	24000000 	strcs	r0, [r0], #-0
    ab60:	15000004 	strne	r0, [r0, #-4]
    ab64:	00000424 	andeq	r0, r0, r4, lsr #8
    ab68:	00010515 	andeq	r0, r1, r5, lsl r5
    ab6c:	01071500 	tsteq	r7, r0, lsl #10
    ab70:	25150000 	ldrcs	r0, [r5, #-0]
    ab74:	00000000 	andeq	r0, r0, r0
    ab78:	042f040d 	strteq	r0, [pc], #-1037	; ab80 <__bss_end__+0xb50>
    ab7c:	240e0000 	strcs	r0, [lr], #-0
    ab80:	16000004 	strne	r0, [r0], -r4
    ab84:	00000408 	andeq	r0, r0, r8, lsl #8
    ab88:	38050428 	stmdacc	r5, {r3, r5, sl}
    ab8c:	00056102 	andeq	r6, r5, r2, lsl #2
    ab90:	03701700 	cmneq	r0, #0, 14
    ab94:	3a050000 	bcc	14ab9c <__bss_end__+0x140b6c>
    ab98:	00002502 	andeq	r2, r0, r2, lsl #10
    ab9c:	2e170000 	cdpcs	0, 1, cr0, cr7, cr0, {0}
    aba0:	05000001 	streq	r0, [r0, #-1]
    aba4:	0636023f 			; <UNDEFINED> instruction: 0x0636023f
    aba8:	17040000 	strne	r0, [r4, -r0]
    abac:	000001f8 	strdeq	r0, [r0], -r8
    abb0:	36023f05 	strcc	r3, [r2], -r5, lsl #30
    abb4:	08000006 	stmdaeq	r0, {r1, r2}
    abb8:	0001a817 	andeq	sl, r1, r7, lsl r8
    abbc:	023f0500 	eorseq	r0, pc, #0, 10
    abc0:	00000636 	andeq	r0, r0, r6, lsr r6
    abc4:	03d3170c 	bicseq	r1, r3, #12, 14	; 0x300000
    abc8:	41050000 	mrsmi	r0, (UNDEF: 5)
    abcc:	00002502 	andeq	r2, r0, r2, lsl #10
    abd0:	29171000 	ldmdbcs	r7, {ip}
    abd4:	05000000 	streq	r0, [r0, #-0]
    abd8:	08180242 	ldmdaeq	r8, {r1, r6, r9}
    abdc:	17140000 	ldrne	r0, [r4, -r0]
    abe0:	00000a7e 	andeq	r0, r0, lr, ror sl
    abe4:	25024405 	strcs	r4, [r2, #-1029]	; 0xfffffbfb
    abe8:	30000000 	andcc	r0, r0, r0
    abec:	0009f917 	andeq	pc, r9, r7, lsl r9	; <UNPREDICTABLE>
    abf0:	02450500 	subeq	r0, r5, #0, 10
    abf4:	00000585 	andeq	r0, r0, r5, lsl #11
    abf8:	02b21734 	adcseq	r1, r2, #52, 14	; 0xd00000
    abfc:	47050000 	strmi	r0, [r5, -r0]
    ac00:	00002502 	andeq	r2, r0, r2, lsl #10
    ac04:	dd173800 	ldcle	8, cr3, [r7, #-0]
    ac08:	05000003 	streq	r0, [r0, #-3]
    ac0c:	08330249 	ldmdaeq	r3!, {r0, r3, r6, r9}
    ac10:	173c0000 	ldrne	r0, [ip, -r0]!
    ac14:	00000257 	andeq	r0, r0, r7, asr r2
    ac18:	77024c05 	strvc	r4, [r2, -r5, lsl #24]
    ac1c:	40000001 	andmi	r0, r0, r1
    ac20:	0001c717 	andeq	ip, r1, r7, lsl r7
    ac24:	024d0500 	subeq	r0, sp, #0, 10
    ac28:	00000025 	andeq	r0, r0, r5, lsr #32
    ac2c:	052a1744 	streq	r1, [sl, #-1860]!	; 0xfffff8bc
    ac30:	4e050000 	cdpmi	0, 0, cr0, cr5, cr0, {0}
    ac34:	00017702 	andeq	r7, r1, r2, lsl #14
    ac38:	c4174800 	ldrgt	r4, [r7], #-2048	; 0xfffff800
    ac3c:	05000002 	streq	r0, [r0, #-2]
    ac40:	0839024f 	ldmdaeq	r9!, {r0, r1, r2, r3, r6, r9}
    ac44:	174c0000 	strbne	r0, [ip, -r0]
    ac48:	00000200 	andeq	r0, r0, r0, lsl #4
    ac4c:	25025205 	strcs	r5, [r2, #-517]	; 0xfffffdfb
    ac50:	50000000 	andpl	r0, r0, r0
    ac54:	00014617 	andeq	r4, r1, r7, lsl r6
    ac58:	02530500 	subseq	r0, r3, #0, 10
    ac5c:	00000107 	andeq	r0, r0, r7, lsl #2
    ac60:	02ea1754 	rsceq	r1, sl, #84, 14	; 0x1500000
    ac64:	76050000 	strvc	r0, [r5], -r0
    ac68:	0007f602 	andeq	pc, r7, r2, lsl #12
    ac6c:	aa185800 	bge	620c74 <__bss_end__+0x616c44>
    ac70:	05000002 	streq	r0, [r0, #-2]
    ac74:	0294027a 	addseq	r0, r4, #-1610612729	; 0xa0000007
    ac78:	01480000 	mrseq	r0, (UNDEF: 72)
    ac7c:	00023518 	andeq	r3, r2, r8, lsl r5
    ac80:	027b0500 	rsbseq	r0, fp, #0, 10
    ac84:	00000256 	andeq	r0, r0, r6, asr r2
    ac88:	d618014c 	ldrle	r0, [r8], -ip, asr #2
    ac8c:	05000004 	streq	r0, [r0, #-4]
    ac90:	084a027f 	stmdaeq	sl, {r0, r1, r2, r3, r4, r5, r6, r9}^
    ac94:	02dc0000 	sbcseq	r0, ip, #0
    ac98:	00011718 	andeq	r1, r1, r8, lsl r7
    ac9c:	02840500 	addeq	r0, r4, #0, 10
    aca0:	000005fb 	strdeq	r0, [r0], -fp
    aca4:	fc1802e0 	ldc2	2, cr0, [r8], {224}	; 0xe0
    aca8:	05000000 	streq	r0, [r0, #-0]
    acac:	08560285 	ldmdaeq	r6, {r0, r2, r7, r9}^
    acb0:	02ec0000 	rsceq	r0, ip, #0
    acb4:	06040d00 	streq	r0, [r4], -r0, lsl #26
    acb8:	14000004 	strne	r0, [r0], #-4
    acbc:	00000025 	andeq	r0, r0, r5, lsr #32
    acc0:	00000585 	andeq	r0, r0, r5, lsl #11
    acc4:	00042415 	andeq	r2, r4, r5, lsl r4
    acc8:	01051500 	tsteq	r5, r0, lsl #10
    accc:	85150000 	ldrhi	r0, [r5, #-0]
    acd0:	15000005 	strne	r0, [r0, #-5]
    acd4:	00000025 	andeq	r0, r0, r5, lsr #32
    acd8:	14040d00 	strne	r0, [r4], #-3328	; 0xfffff300
    acdc:	0d000001 	stceq	0, cr0, [r0, #-4]
    ace0:	00056704 	andeq	r6, r5, r4, lsl #14
    ace4:	00811400 	addeq	r1, r1, r0, lsl #8
    ace8:	05af0000 	streq	r0, [pc, #0]!	; acf0 <__bss_end__+0xcc0>
    acec:	24150000 	ldrcs	r0, [r5], #-0
    acf0:	15000004 	strne	r0, [r0, #-4]
    acf4:	00000105 	andeq	r0, r0, r5, lsl #2
    acf8:	00008115 	andeq	r8, r0, r5, lsl r1
    acfc:	00251500 	eoreq	r1, r5, r0, lsl #10
    ad00:	0d000000 	stceq	0, cr0, [r0, #-0]
    ad04:	00059104 	andeq	r9, r5, r4, lsl #2
    ad08:	00251400 	eoreq	r1, r5, r0, lsl #8
    ad0c:	05c90000 	strbeq	r0, [r9]
    ad10:	24150000 	ldrcs	r0, [r5], #-0
    ad14:	15000004 	strne	r0, [r0, #-4]
    ad18:	00000105 	andeq	r0, r0, r5, lsl #2
    ad1c:	b5040d00 	strlt	r0, [r4, #-3328]	; 0xfffff300
    ad20:	08000005 	stmdaeq	r0, {r0, r2}
    ad24:	0000004f 	andeq	r0, r0, pc, asr #32
    ad28:	000005df 	ldrdeq	r0, [r0], -pc	; <UNPREDICTABLE>
    ad2c:	0000c709 	andeq	ip, r0, r9, lsl #14
    ad30:	08000200 	stmdaeq	r0, {r9}
    ad34:	0000004f 	andeq	r0, r0, pc, asr #32
    ad38:	000005ef 	andeq	r0, r0, pc, ror #11
    ad3c:	0000c709 	andeq	ip, r0, r9, lsl #14
    ad40:	05000000 	streq	r0, [r0, #-0]
    ad44:	00000398 	muleq	r0, r8, r3
    ad48:	dc011d05 	stcle	13, cr1, [r1], {5}
    ad4c:	19000002 	stmdbne	r0, {r1}
    ad50:	000004bd 			; <UNDEFINED> instruction: 0x000004bd
    ad54:	0121050c 			; <UNDEFINED> instruction: 0x0121050c
    ad58:	00000630 	andeq	r0, r0, r0, lsr r6
    ad5c:	0003c017 	andeq	ip, r3, r7, lsl r0
    ad60:	01230500 			; <UNDEFINED> instruction: 0x01230500
    ad64:	00000630 	andeq	r0, r0, r0, lsr r6
    ad68:	021b1700 	andseq	r1, fp, #0, 14
    ad6c:	24050000 	strcs	r0, [r5], #-0
    ad70:	00002501 	andeq	r2, r0, r1, lsl #10
    ad74:	92170400 	andsls	r0, r7, #0, 8
    ad78:	05000003 	streq	r0, [r0, #-3]
    ad7c:	06360125 	ldrteq	r0, [r6], -r5, lsr #2
    ad80:	00080000 	andeq	r0, r8, r0
    ad84:	05fb040d 	ldrbeq	r0, [fp, #1037]!	; 0x40d
    ad88:	040d0000 	streq	r0, [sp], #-0
    ad8c:	000005ef 	andeq	r0, r0, pc, ror #11
    ad90:	00002119 	andeq	r2, r0, r9, lsl r1
    ad94:	3d050e00 	stccc	14, cr0, [r5, #-0]
    ad98:	00067101 	andeq	r7, r6, r1, lsl #2
    ad9c:	040f1700 	streq	r1, [pc], #-1792	; ada4 <__bss_end__+0xd74>
    ada0:	3e050000 	cdpcc	0, 0, cr0, cr5, cr0, {0}
    ada4:	00067101 	andeq	r7, r6, r1, lsl #2
    ada8:	43170000 	tstmi	r7, #0
    adac:	05000004 	streq	r0, [r0, #-4]
    adb0:	0671013f 			; <UNDEFINED> instruction: 0x0671013f
    adb4:	17060000 	strne	r0, [r6, -r0]
    adb8:	0000045f 	andeq	r0, r0, pc, asr r4
    adbc:	56014005 	strpl	r4, [r1], -r5
    adc0:	0c000000 	stceq	0, cr0, [r0], {-0}
    adc4:	00560800 	subseq	r0, r6, r0, lsl #16
    adc8:	06810000 	streq	r0, [r1], r0
    adcc:	c7090000 	strgt	r0, [r9, -r0]
    add0:	02000000 	andeq	r0, r0, #0
    add4:	05d01a00 	ldrbeq	r1, [r0, #2560]	; 0xa00
    add8:	07820257 			; <UNDEFINED> instruction: 0x07820257
    addc:	a1170000 	tstge	r7, r0
    ade0:	05000004 	streq	r0, [r0, #-4]
    ade4:	002c0259 	eoreq	r0, ip, r9, asr r2
    ade8:	17000000 	strne	r0, [r0, -r0]
    adec:	00000449 	andeq	r0, r0, r9, asr #8
    adf0:	07025a05 	streq	r5, [r2, -r5, lsl #20]
    adf4:	04000001 	streq	r0, [r0], #-1
    adf8:	00024a17 	andeq	r4, r2, r7, lsl sl
    adfc:	025b0500 	subseq	r0, fp, #0, 10
    ae00:	00000782 	andeq	r0, r0, r2, lsl #15
    ae04:	05011708 	streq	r1, [r1, #-1800]	; 0xfffff8f8
    ae08:	5c050000 	stcpl	0, cr0, [r5], {-0}
    ae0c:	00018d02 	andeq	r8, r1, r2, lsl #26
    ae10:	b8172400 	ldmdalt	r7, {sl, sp}
    ae14:	05000001 	streq	r0, [r0, #-1]
    ae18:	0025025d 	eoreq	r0, r5, sp, asr r2
    ae1c:	17480000 	strbne	r0, [r8, -r0]
    ae20:	000003bb 			; <UNDEFINED> instruction: 0x000003bb
    ae24:	64025e05 	strvs	r5, [r2], #-3589	; 0xfffff1fb
    ae28:	50000000 	andpl	r0, r0, r0
    ae2c:	00051717 	andeq	r1, r5, r7, lsl r7
    ae30:	025f0500 	subseq	r0, pc, #0, 10
    ae34:	0000063c 	andeq	r0, r0, ip, lsr r6
    ae38:	03c61758 	biceq	r1, r6, #88, 14	; 0x1600000
    ae3c:	60050000 	andvs	r0, r5, r0
    ae40:	0000ef02 	andeq	lr, r0, r2, lsl #30
    ae44:	1c176800 	ldcne	8, cr6, [r7], {-0}
    ae48:	05000005 	streq	r0, [r0, #-5]
    ae4c:	00ef0261 	rsceq	r0, pc, r1, ror #4
    ae50:	17700000 	ldrbne	r0, [r0, -r0]!
    ae54:	000002ce 	andeq	r0, r0, lr, asr #5
    ae58:	ef026205 	svc	0x00026205
    ae5c:	78000000 	stmdavc	r0, {}	; <UNPREDICTABLE>
    ae60:	0004cc17 	andeq	ip, r4, r7, lsl ip
    ae64:	02630500 	rsbeq	r0, r3, #0, 10
    ae68:	00000792 	muleq	r0, r2, r7
    ae6c:	023e1780 	eorseq	r1, lr, #128, 14	; 0x2000000
    ae70:	64050000 	strvs	r0, [r5], #-0
    ae74:	0007a202 	andeq	sl, r7, r2, lsl #4
    ae78:	6c178800 	ldcvs	8, cr8, [r7], {-0}
    ae7c:	05000004 	streq	r0, [r0, #-4]
    ae80:	00250265 	eoreq	r0, r5, r5, ror #4
    ae84:	17a00000 	strne	r0, [r0, r0]!
    ae88:	0000017e 	andeq	r0, r0, lr, ror r1
    ae8c:	ef026605 	svc	0x00026605
    ae90:	a4000000 	strge	r0, [r0], #-0
    ae94:	00008f17 	andeq	r8, r0, r7, lsl pc
    ae98:	02670500 	rsbeq	r0, r7, #0, 10
    ae9c:	000000ef 	andeq	r0, r0, pc, ror #1
    aea0:	016d17ac 	cmneq	sp, ip, lsr #15
    aea4:	68050000 	stmdavs	r5, {}	; <UNPREDICTABLE>
    aea8:	0000ef02 	andeq	lr, r0, r2, lsl #30
    aeac:	3c17b400 	cfldrscc	mvf11, [r7], {-0}
    aeb0:	05000000 	streq	r0, [r0, #-0]
    aeb4:	00ef0269 	rsceq	r0, pc, r9, ror #4
    aeb8:	17bc0000 	ldrne	r0, [ip, r0]!
    aebc:	0000004b 	andeq	r0, r0, fp, asr #32
    aec0:	ef026a05 	svc	0x00026a05
    aec4:	c4000000 	strgt	r0, [r0], #-0
    aec8:	00036e17 	andeq	r6, r3, r7, lsl lr
    aecc:	026b0500 	rsbeq	r0, fp, #0, 10
    aed0:	00000025 	andeq	r0, r0, r5, lsr #32
    aed4:	0d0800cc 	stceq	0, cr0, [r8, #-816]	; 0xfffffcd0
    aed8:	92000001 	andls	r0, r0, #1
    aedc:	09000007 	stmdbeq	r0, {r0, r1, r2}
    aee0:	000000c7 	andeq	r0, r0, r7, asr #1
    aee4:	0d080019 	stceq	0, cr0, [r8, #-100]	; 0xffffff9c
    aee8:	a2000001 	andge	r0, r0, #1
    aeec:	09000007 	stmdbeq	r0, {r0, r1, r2}
    aef0:	000000c7 	andeq	r0, r0, r7, asr #1
    aef4:	0d080007 	stceq	0, cr0, [r8, #-28]	; 0xffffffe4
    aef8:	b2000001 	andlt	r0, r0, #1
    aefc:	09000007 	stmdbeq	r0, {r0, r1, r2}
    af00:	000000c7 	andeq	r0, r0, r7, asr #1
    af04:	f01a0017 			; <UNDEFINED> instruction: 0xf01a0017
    af08:	d6027005 	strle	r7, [r2], -r5
    af0c:	17000007 	strne	r0, [r0, -r7]
    af10:	0000029a 	muleq	r0, sl, r2
    af14:	d6027305 	strle	r7, [r2], -r5, lsl #6
    af18:	00000007 	andeq	r0, r0, r7
    af1c:	0004c317 	andeq	ip, r4, r7, lsl r3
    af20:	02740500 	rsbseq	r0, r4, #0, 10
    af24:	000007e6 	andeq	r0, r0, r6, ror #15
    af28:	d6080078 			; <UNDEFINED> instruction: 0xd6080078
    af2c:	e6000002 	str	r0, [r0], -r2
    af30:	09000007 	stmdbeq	r0, {r0, r1, r2}
    af34:	000000c7 	andeq	r0, r0, r7, asr #1
    af38:	2c08001d 	stccs	0, cr0, [r8], {29}
    af3c:	f6000000 			; <UNDEFINED> instruction: 0xf6000000
    af40:	09000007 	stmdbeq	r0, {r0, r1, r2}
    af44:	000000c7 	andeq	r0, r0, r7, asr #1
    af48:	f01b001d 			; <UNDEFINED> instruction: 0xf01b001d
    af4c:	18025505 	stmdane	r2, {r0, r2, r8, sl, ip, lr}
    af50:	1c000008 	stcne	0, cr0, [r0], {8}
    af54:	00000408 	andeq	r0, r0, r8, lsl #8
    af58:	81026c05 	tsthi	r2, r5, lsl #24
    af5c:	1c000006 	stcne	0, cr0, [r0], {6}
    af60:	000004ee 	andeq	r0, r0, lr, ror #9
    af64:	b2027505 	andlt	r7, r2, #20971520	; 0x1400000
    af68:	00000007 	andeq	r0, r0, r7
    af6c:	00010d08 	andeq	r0, r1, r8, lsl #26
    af70:	00082800 	andeq	r2, r8, r0, lsl #16
    af74:	00c70900 	sbceq	r0, r7, r0, lsl #18
    af78:	00180000 	andseq	r0, r8, r0
    af7c:	0008331d 	andeq	r3, r8, sp, lsl r3
    af80:	04241500 	strteq	r1, [r4], #-1280	; 0xfffffb00
    af84:	0d000000 	stceq	0, cr0, [r0, #-0]
    af88:	00082804 	andeq	r2, r8, r4, lsl #16
    af8c:	77040d00 	strvc	r0, [r4, -r0, lsl #26]
    af90:	1d000001 	stcne	0, cr0, [r0, #-4]
    af94:	0000084a 	andeq	r0, r0, sl, asr #16
    af98:	00002515 	andeq	r2, r0, r5, lsl r5
    af9c:	040d0000 	streq	r0, [sp], #-0
    afa0:	00000850 	andeq	r0, r0, r0, asr r8
    afa4:	083f040d 	ldmdaeq	pc!, {r0, r2, r3, sl}	; <UNPREDICTABLE>
    afa8:	ef080000 	svc	0x00080000
    afac:	66000005 	strvs	r0, [r0], -r5
    afb0:	09000008 	stmdbeq	r0, {r3}
    afb4:	000000c7 	andeq	r0, r0, r7, asr #1
    afb8:	8e1e0002 	cdphi	0, 1, cr0, cr14, cr2, {0}
    afbc:	05000004 	streq	r0, [r0, #-4]
    afc0:	042402fd 	strteq	r0, [r4], #-765	; 0xfffffd03
    afc4:	871e0000 	ldrhi	r0, [lr, -r0]
    afc8:	05000004 	streq	r0, [r0, #-4]
    afcc:	042a02fe 	strteq	r0, [sl], #-766	; 0xfffffd02
    afd0:	25140000 	ldrcs	r0, [r4, #-0]
    afd4:	8d000000 	stchi	0, cr0, [r0, #-0]
    afd8:	15000008 	strne	r0, [r0, #-8]
    afdc:	00000025 	andeq	r0, r0, r5, lsr #32
    afe0:	01d11f00 	bicseq	r1, r1, r0, lsl #30
    afe4:	1d060000 	stcne	0, cr0, [r6, #-0]
    afe8:	00000898 	muleq	r0, r8, r8
    afec:	087e040d 	ldmdaeq	lr!, {r0, r2, r3, sl}^
    aff0:	25140000 	ldrcs	r0, [r4, #-0]
    aff4:	ad000000 	stcge	0, cr0, [r0, #-0]
    aff8:	15000008 	strne	r0, [r0, #-8]
    affc:	00000585 	andeq	r0, r0, r5, lsl #11
    b000:	07681f00 	strbeq	r1, [r8, -r0, lsl #30]!
    b004:	22060000 	andcs	r0, r6, #0
    b008:	000008b8 			; <UNDEFINED> instruction: 0x000008b8
    b00c:	089e040d 	ldmeq	lr, {r0, r2, r3, sl}
    b010:	08030000 	stmdaeq	r3, {}	; <UNPREDICTABLE>
    b014:	000bb104 	andeq	fp, fp, r4, lsl #2
    b018:	0be91f00 	bleq	ffa52c20 <__bss_end__+0xffa48bf0>
    b01c:	0d010000 	stceq	0, cr0, [r1, #-0]
    b020:	0000010d 	andeq	r0, r0, sp, lsl #2
    b024:	00065f20 	andeq	r5, r6, r0, lsr #30
    b028:	070e0100 	streq	r0, [lr, -r0, lsl #2]
    b02c:	05000001 	streq	r0, [r0, #-1]
    b030:	00965003 	addseq	r5, r6, r3
    b034:	0c002000 	stceq	0, cr2, [r0], {-0}
    b038:	0f010000 	svceq	0x00010000
    b03c:	00000107 	andeq	r0, r0, r7, lsl #2
    b040:	96540305 	ldrbls	r0, [r4], -r5, lsl #6
    b044:	c2210000 	eorgt	r0, r1, #0
    b048:	0100000b 	tsteq	r0, fp
    b04c:	00962038 	addseq	r2, r6, r8, lsr r0
    b050:	00001000 	andeq	r1, r0, r0
    b054:	139c0100 	orrsne	r0, ip, #0, 2
    b058:	22000009 	andcs	r0, r0, #9
    b05c:	38010070 	stmdacc	r1, {r4, r5, r6}
    b060:	00000105 	andeq	r0, r0, r5, lsl #2
    b064:	23005001 	movwcs	r5, #1
    b068:	00000bb8 			; <UNDEFINED> instruction: 0x00000bb8
    b06c:	960c3701 	strls	r3, [ip], -r1, lsl #14
    b070:	00140000 	andseq	r0, r4, r0
    b074:	9c010000 	stcls	0, cr0, [r1], {-0}
    b078:	00027521 	andeq	r7, r2, r1, lsr #10
    b07c:	08360100 	ldmdaeq	r6!, {r8}
    b080:	04000096 	streq	r0, [r0], #-150	; 0xffffff6a
    b084:	01000000 	mrseq	r0, (UNDEF: 0)
    b088:	0009459c 	muleq	r9, ip, r5
    b08c:	00702200 	rsbseq	r2, r0, r0, lsl #4
    b090:	01053601 	tsteq	r5, r1, lsl #12
    b094:	50010000 	andpl	r0, r1, r0
    b098:	0ba12400 	bleq	fe8540a0 <__bss_end__+0xfe84a070>
    b09c:	29010000 	stmdbcs	r1, {}	; <UNPREDICTABLE>
    b0a0:	00000105 	andeq	r0, r0, r5, lsl #2
    b0a4:	0000957c 	andeq	r9, r0, ip, ror r5
    b0a8:	0000008c 	andeq	r0, r0, ip, lsl #1
    b0ac:	0a309c01 	beq	c320b8 <__bss_end__+0xc28088>
    b0b0:	7f250000 	svcvc	0x00250000
    b0b4:	01000006 	tsteq	r0, r6
    b0b8:	00002c29 	andeq	r2, r0, r9, lsr #24
    b0bc:	00158700 	andseq	r8, r5, r0, lsl #14
    b0c0:	0bdf2500 	bleq	ff7d44c8 <__bss_end__+0xff7ca498>
    b0c4:	29010000 	stmdbcs	r1, {}	; <UNPREDICTABLE>
    b0c8:	0000002c 	andeq	r0, r0, ip, lsr #32
    b0cc:	000015da 	ldrdeq	r1, [r0], -sl
    b0d0:	00020e26 	andeq	r0, r2, r6, lsr #28
    b0d4:	000a4000 	andeq	r4, sl, r0
    b0d8:	24030500 	strcs	r0, [r3], #-1280	; 0xfffffb00
    b0dc:	2700009b 			; <UNDEFINED> instruction: 0x2700009b
    b0e0:	2e010068 	cdpcs	0, 0, cr0, cr1, cr8, {3}
    b0e4:	0000002c 	andeq	r0, r0, ip, lsr #32
    b0e8:	00001621 	andeq	r1, r0, r1, lsr #12
    b0ec:	0095b828 	addseq	fp, r5, r8, lsr #16
    b0f0:	000a7900 	andeq	r7, sl, r0, lsl #18
    b0f4:	0009ad00 	andeq	sl, r9, r0, lsl #26
    b0f8:	50012900 	andpl	r2, r1, r0, lsl #18
    b0fc:	5001f303 	andpl	pc, r1, r3, lsl #6
    b100:	95c02a00 	strbls	r2, [r0, #2560]	; 0xa00
    b104:	0bfb0000 	bleq	ffecb10c <__bss_end__+0xffec10dc>
    b108:	d4280000 	strtle	r0, [r8], #-0
    b10c:	06000095 			; <UNDEFINED> instruction: 0x06000095
    b110:	e500000c 	str	r0, [r0, #-12]
    b114:	29000009 	stmdbcs	r0, {r0, r3}
    b118:	03055001 	movweq	r5, #20481	; 0x5001
    b11c:	00009b70 	andeq	r9, r0, r0, ror fp
    b120:	05510129 	ldrbeq	r0, [r1, #-297]	; 0xfffffed7
    b124:	009b3403 	addseq	r3, fp, r3, lsl #8
    b128:	52012900 	andpl	r2, r1, #0, 18
    b12c:	9b240305 	blls	90bd48 <__bss_end__+0x901d18>
    b130:	01290000 			; <UNDEFINED> instruction: 0x01290000
    b134:	2a080253 	bcs	20ba88 <__bss_end__+0x201a58>
    b138:	95d82a00 	ldrbls	r2, [r8, #2560]	; 0xa00
    b13c:	0c110000 	ldceq	0, cr0, [r1], {-0}
    b140:	dc2a0000 	stcle	0, cr0, [sl], #-0
    b144:	fb000095 	blx	b3a2 <__bss_end__+0x1372>
    b148:	2800000b 	stmdacs	r0, {r0, r1, r3}
    b14c:	000095f0 	strdeq	r9, [r0], -r0
    b150:	00000c06 	andeq	r0, r0, r6, lsl #24
    b154:	00000a26 	andeq	r0, r0, r6, lsr #20
    b158:	05500129 	ldrbeq	r0, [r0, #-297]	; 0xfffffed7
    b15c:	009bd003 	addseq	sp, fp, r3
    b160:	51012900 	tstpl	r1, r0, lsl #18
    b164:	9b340305 	blls	d0bd80 <__bss_end__+0xd01d50>
    b168:	01290000 			; <UNDEFINED> instruction: 0x01290000
    b16c:	24030552 	strcs	r0, [r3], #-1362	; 0xfffffaae
    b170:	2900009b 	stmdbcs	r0, {r0, r1, r3, r4, r7}
    b174:	08025301 	stmdaeq	r2, {r0, r8, r9, ip, lr}
    b178:	f42a0030 	vld4.8	{d0-d3}, [sl :256], r0
    b17c:	11000095 	swpne	r0, r5, [r0]	; <UNPREDICTABLE>
    b180:	0000000c 	andeq	r0, r0, ip
    b184:	00011408 	andeq	r1, r1, r8, lsl #8
    b188:	000a4000 	andeq	r4, sl, r0
    b18c:	00c70900 	sbceq	r0, r7, r0, lsl #18
    b190:	000f0000 	andeq	r0, pc, r0
    b194:	000a300e 	andeq	r3, sl, lr
    b198:	0bce2400 	bleq	ff3941a0 <__bss_end__+0xff38a170>
    b19c:	25010000 	strcs	r0, [r1, #-0]
    b1a0:	00000105 	andeq	r0, r0, r5, lsl #2
    b1a4:	00009570 	andeq	r9, r0, r0, ror r5
    b1a8:	0000000c 	andeq	r0, r0, ip
    b1ac:	0a689c01 	beq	1a321b8 <__bss_end__+0x1a28188>
    b1b0:	782a0000 	stmdavc	sl!, {}	; <UNPREDICTABLE>
    b1b4:	d1000095 	swple	r0, r5, [r0]	; <UNPREDICTABLE>
    b1b8:	0000000b 	andeq	r0, r0, fp
    b1bc:	000b9423 	andeq	r9, fp, r3, lsr #8
    b1c0:	6c240100 	stfvss	f0, [r4], #-0
    b1c4:	04000095 	streq	r0, [r0], #-149	; 0xffffff6b
    b1c8:	01000000 	mrseq	r0, (UNDEF: 0)
    b1cc:	04e0249c 	strbteq	r2, [r0], #1180	; 0x49c
    b1d0:	1a010000 	bne	4b1d8 <__bss_end__+0x411a8>
    b1d4:	00000105 	andeq	r0, r0, r5, lsl #2
    b1d8:	00009508 	andeq	r9, r0, r8, lsl #10
    b1dc:	00000064 	andeq	r0, r0, r4, rrx
    b1e0:	0b249c01 	bleq	9321ec <__bss_end__+0x9281bc>
    b1e4:	732b0000 			; <UNDEFINED> instruction: 0x732b0000
    b1e8:	1a01007a 	bne	4b3d8 <__bss_end__+0x413a8>
    b1ec:	0000002c 	andeq	r0, r0, ip, lsr #32
    b1f0:	00001659 	andeq	r1, r0, r9, asr r6
    b1f4:	00020e26 	andeq	r0, r2, r6, lsr #28
    b1f8:	000b3400 	andeq	r3, fp, r0, lsl #8
    b1fc:	1c030500 	cfstr32ne	mvfx0, [r3], {-0}
    b200:	2c00009b 	stccs	0, cr0, [r0], {155}	; 0x9b
    b204:	00000c0c 	andeq	r0, r0, ip, lsl #24
    b208:	01051e01 	tsteq	r5, r1, lsl #28
    b20c:	16a30000 	strtne	r0, [r3], r0
    b210:	38280000 	stmdacc	r8!, {}	; <UNPREDICTABLE>
    b214:	1c000095 	stcne	0, cr0, [r0], {149}	; 0x95
    b218:	e300000c 	movw	r0, #12
    b21c:	2900000a 	stmdbcs	r0, {r1, r3}
    b220:	74025001 	strvc	r5, [r2], #-1
    b224:	51012900 	tstpl	r1, r0, lsl #18
    b228:	01293001 			; <UNDEFINED> instruction: 0x01293001
    b22c:	01f30852 	mvnseq	r0, r2, asr r8
    b230:	09072350 	stmdbeq	r7, {r4, r6, r8, r9, sp}
    b234:	2a001af8 	bcs	11e1c <__bss_end__+0x7dec>
    b238:	00009544 	andeq	r9, r0, r4, asr #10
    b23c:	00000bfb 	strdeq	r0, [r0], -fp
    b240:	00955828 	addseq	r5, r5, r8, lsr #16
    b244:	000c0600 	andeq	r0, ip, r0, lsl #12
    b248:	000b1a00 	andeq	r1, fp, r0, lsl #20
    b24c:	50012900 	andpl	r2, r1, r0, lsl #18
    b250:	9b5c0305 	blls	170be6c <__bss_end__+0x1701e3c>
    b254:	01290000 			; <UNDEFINED> instruction: 0x01290000
    b258:	34030551 	strcc	r0, [r3], #-1361	; 0xfffffaaf
    b25c:	2900009b 	stmdbcs	r0, {r0, r1, r3, r4, r7}
    b260:	03055201 	movweq	r5, #20993	; 0x5201
    b264:	00009b1c 	andeq	r9, r0, ip, lsl fp
    b268:	01530129 	cmpeq	r3, r9, lsr #2
    b26c:	5c2a004b 	stcpl	0, cr0, [sl], #-300	; 0xfffffed4
    b270:	11000095 	swpne	r0, r5, [r0]	; <UNPREDICTABLE>
    b274:	0000000c 	andeq	r0, r0, ip
    b278:	00011408 	andeq	r1, r1, r8, lsl #8
    b27c:	000b3400 	andeq	r3, fp, r0, lsl #8
    b280:	00c70900 	sbceq	r0, r7, r0, lsl #18
    b284:	00070000 	andeq	r0, r7, r0
    b288:	000b240e 	andeq	r2, fp, lr, lsl #8
    b28c:	01562100 	cmpeq	r6, r0, lsl #2
    b290:	14010000 	strne	r0, [r1], #-0
    b294:	000094b8 			; <UNDEFINED> instruction: 0x000094b8
    b298:	00000050 	andeq	r0, r0, r0, asr r0
    b29c:	0bbc9c01 	bleq	fef322a8 <__bss_end__+0xfef28278>
    b2a0:	0b250000 	bleq	94b2a8 <__bss_end__+0x941278>
    b2a4:	0100000c 	tsteq	r0, ip
    b2a8:	00002c14 	andeq	r2, r0, r4, lsl ip
    b2ac:	0016b600 	andseq	fp, r6, r0, lsl #12
    b2b0:	0c0c2c00 	stceq	12, cr2, [ip], {-0}
    b2b4:	15010000 	strne	r0, [r1, #-0]
    b2b8:	00000107 	andeq	r0, r0, r7, lsl #2
    b2bc:	000016d7 	ldrdeq	r1, [r0], -r7
    b2c0:	00020e26 	andeq	r0, r2, r6, lsr #28
    b2c4:	000bcc00 	andeq	ip, fp, r0, lsl #24
    b2c8:	04030500 	streq	r0, [r3], #-1280	; 0xfffffb00
    b2cc:	2a00009b 	bcs	b540 <__bss_end__+0x1510>
    b2d0:	000094e0 	andeq	r9, r0, r0, ror #9
    b2d4:	00000bfb 	strdeq	r0, [r0], -fp
    b2d8:	0094f428 	addseq	pc, r4, r8, lsr #8
    b2dc:	000c0600 	andeq	r0, ip, r0, lsl #12
    b2e0:	000bb200 	andeq	fp, fp, r0, lsl #4
    b2e4:	50012900 	andpl	r2, r1, r0, lsl #18
    b2e8:	9b400305 	blls	100bf04 <__bss_end__+0x1001ed4>
    b2ec:	01290000 			; <UNDEFINED> instruction: 0x01290000
    b2f0:	34030551 	strcc	r0, [r3], #-1361	; 0xfffffaaf
    b2f4:	2900009b 	stmdbcs	r0, {r0, r1, r3, r4, r7}
    b2f8:	03055201 	movweq	r5, #20993	; 0x5201
    b2fc:	00009b04 	andeq	r9, r0, r4, lsl #22
    b300:	01530129 	cmpeq	r3, r9, lsr #2
    b304:	f82a0046 			; <UNDEFINED> instruction: 0xf82a0046
    b308:	11000094 	swpne	r0, r4, [r0]	; <UNPREDICTABLE>
    b30c:	0000000c 	andeq	r0, r0, ip
    b310:	00011408 	andeq	r1, r1, r8, lsl #8
    b314:	000bcc00 	andeq	ip, fp, r0, lsl #24
    b318:	00c70900 	sbceq	r0, r7, r0, lsl #18
    b31c:	00160000 	andseq	r0, r6, r0
    b320:	000bbc0e 	andeq	fp, fp, lr, lsl #24
    b324:	0bf82d00 	bleq	ffe1672c <__bss_end__+0xffe0c6fc>
    b328:	12010000 	andne	r0, r1, #0
    b32c:	00000105 	andeq	r0, r0, r5, lsl #2
    b330:	000094ac 	andeq	r9, r0, ip, lsr #9
    b334:	0000000c 	andeq	r0, r0, ip
    b338:	112d9c01 			; <UNDEFINED> instruction: 0x112d9c01
    b33c:	0100000c 	tsteq	r0, ip
    b340:	00010511 	andeq	r0, r1, r1, lsl r5
    b344:	00949c00 	addseq	r9, r4, r0, lsl #24
    b348:	00001000 	andeq	r1, r0, r0
    b34c:	2e9c0100 	fmlcse	f0, f4, f0
    b350:	000001e9 	andeq	r0, r0, r9, ror #3
    b354:	000001e9 	andeq	r0, r0, r9, ror #3
    b358:	ff2e1e06 			; <UNDEFINED> instruction: 0xff2e1e06
    b35c:	ff000006 			; <UNDEFINED> instruction: 0xff000006
    b360:	06000006 	streq	r0, [r0], -r6
    b364:	028d2e29 	addeq	r2, sp, #656	; 0x290
    b368:	028d0000 	addeq	r0, sp, #0
    b36c:	65060000 	strvs	r0, [r6, #-0]
    b370:	00049a2e 	andeq	r9, r4, lr, lsr #20
    b374:	00049a00 	andeq	r9, r4, r0, lsl #20
    b378:	00190700 	andseq	r0, r9, r0, lsl #14

Disassembly of section .debug_abbrev:

00000000 <.debug_abbrev>:
       0:	25011101 	strcs	r1, [r1, #-257]	; 0xfffffeff
       4:	030b130e 	movweq	r1, #45838	; 0xb30e
       8:	110e1b0e 	tstne	lr, lr, lsl #22
       c:	10061201 	andne	r1, r6, r1, lsl #4
      10:	02000017 	andeq	r0, r0, #23
      14:	0b0b0024 	bleq	2c00ac <__bss_end__+0x2b607c>
      18:	08030b3e 	stmdaeq	r3, {r1, r2, r3, r4, r5, r8, r9, fp}
      1c:	24030000 	strcs	r0, [r3], #-0
      20:	3e0b0b00 	vmlacc.f64	d0, d11, d0
      24:	000e030b 	andeq	r0, lr, fp, lsl #6
      28:	00160400 	andseq	r0, r6, r0, lsl #8
      2c:	0b3a0e03 	bleq	e83840 <__bss_end__+0xe79810>
      30:	0b390b3b 	bleq	e42d24 <__bss_end__+0xe38cf4>
      34:	00001349 	andeq	r1, r0, r9, asr #6
      38:	0b000f05 	bleq	3c54 <_start-0x43ac>
      3c:	0013490b 	andseq	r4, r3, fp, lsl #18
      40:	00130600 	andseq	r0, r3, r0, lsl #12
      44:	193c0e03 	ldmdbne	ip!, {r0, r1, r9, sl, fp}
      48:	16070000 	strne	r0, [r7], -r0
      4c:	3a0e0300 	bcc	380c54 <__bss_end__+0x376c24>
      50:	39053b0b 	stmdbcc	r5, {r0, r1, r3, r8, r9, fp, ip, sp}
      54:	0013490b 	andseq	r4, r3, fp, lsl #18
      58:	01170800 	tsteq	r7, r0, lsl #16
      5c:	0b3a0b0b 	bleq	e82c90 <__bss_end__+0xe78c60>
      60:	0b390b3b 	bleq	e42d54 <__bss_end__+0xe38d24>
      64:	00001301 	andeq	r1, r0, r1, lsl #6
      68:	03000d09 	movweq	r0, #3337	; 0xd09
      6c:	3b0b3a0e 	blcc	2ce8ac <__bss_end__+0x2c487c>
      70:	490b390b 	stmdbmi	fp, {r0, r1, r3, r8, fp, ip, sp}
      74:	0a000013 	beq	c8 <_start-0x7f38>
      78:	13490101 	movtne	r0, #37121	; 0x9101
      7c:	00001301 	andeq	r1, r0, r1, lsl #6
      80:	4900210b 	stmdbmi	r0, {r0, r1, r3, r8, sp}
      84:	000b2f13 	andeq	r2, fp, r3, lsl pc
      88:	01130c00 	tsteq	r3, r0, lsl #24
      8c:	0b3a0b0b 	bleq	e82cc0 <__bss_end__+0xe78c90>
      90:	0b390b3b 	bleq	e42d84 <__bss_end__+0xe38d54>
      94:	00001301 	andeq	r1, r0, r1, lsl #6
      98:	03000d0d 	movweq	r0, #3341	; 0xd0d
      9c:	3b0b3a0e 	blcc	2ce8dc <__bss_end__+0x2c48ac>
      a0:	490b390b 	stmdbmi	fp, {r0, r1, r3, r8, fp, ip, sp}
      a4:	000b3813 	andeq	r3, fp, r3, lsl r8
      a8:	000f0e00 	andeq	r0, pc, r0, lsl #28
      ac:	00000b0b 	andeq	r0, r0, fp, lsl #22
      b0:	4900260f 	stmdbmi	r0, {r0, r1, r2, r3, r9, sl, sp}
      b4:	10000013 	andne	r0, r0, r3, lsl r0
      b8:	0e030113 	mcreq	1, 0, r0, cr3, cr3, {0}
      bc:	0b3a0b0b 	bleq	e82cf0 <__bss_end__+0xe78cc0>
      c0:	0b390b3b 	bleq	e42db4 <__bss_end__+0xe38d84>
      c4:	00001301 	andeq	r1, r0, r1, lsl #6
      c8:	03000d11 	movweq	r0, #3345	; 0xd11
      cc:	3b0b3a08 	blcc	2ce8f4 <__bss_end__+0x2c48c4>
      d0:	490b390b 	stmdbmi	fp, {r0, r1, r3, r8, fp, ip, sp}
      d4:	000b3813 	andeq	r3, fp, r3, lsl r8
      d8:	01131200 	tsteq	r3, r0, lsl #4
      dc:	050b0e03 	streq	r0, [fp, #-3587]	; 0xfffff1fd
      e0:	0b3b0b3a 	bleq	ec2dd0 <__bss_end__+0xeb8da0>
      e4:	13010b39 	movwne	r0, #6969	; 0x1b39
      e8:	0d130000 	ldceq	0, cr0, [r3, #-0]
      ec:	3a0e0300 	bcc	380cf4 <__bss_end__+0x376cc4>
      f0:	390b3b0b 	stmdbcc	fp, {r0, r1, r3, r8, r9, fp, ip, sp}
      f4:	3813490b 	ldmdacc	r3, {r0, r1, r3, r8, fp, lr}
      f8:	14000005 	strne	r0, [r0], #-5
      fc:	19270015 	stmdbne	r7!, {r0, r2, r4}
     100:	15150000 	ldrne	r0, [r5, #-0]
     104:	49192701 	ldmdbmi	r9, {r0, r8, r9, sl, sp}
     108:	00130113 	andseq	r0, r3, r3, lsl r1
     10c:	00051600 	andeq	r1, r5, r0, lsl #12
     110:	00001349 	andeq	r1, r0, r9, asr #6
     114:	03011317 	movweq	r1, #4887	; 0x1317
     118:	3a050b0e 	bcc	142d58 <__bss_end__+0x138d28>
     11c:	39053b0b 	stmdbcc	r5, {r0, r1, r3, r8, r9, fp, ip, sp}
     120:	0013010b 	andseq	r0, r3, fp, lsl #2
     124:	000d1800 	andeq	r1, sp, r0, lsl #16
     128:	0b3a0e03 	bleq	e8393c <__bss_end__+0xe7990c>
     12c:	0b39053b 	bleq	e41620 <__bss_end__+0xe375f0>
     130:	0b381349 	bleq	e04e5c <__bss_end__+0xdfae2c>
     134:	0d190000 	ldceq	0, cr0, [r9, #-0]
     138:	3a0e0300 	bcc	380d40 <__bss_end__+0x376d10>
     13c:	39053b0b 	stmdbcc	r5, {r0, r1, r3, r8, r9, fp, ip, sp}
     140:	3813490b 	ldmdacc	r3, {r0, r1, r3, r8, fp, lr}
     144:	1a000005 	bne	160 <_start-0x7ea0>
     148:	0e030113 	mcreq	1, 0, r0, cr3, cr3, {0}
     14c:	0b3a0b0b 	bleq	e82d80 <__bss_end__+0xe78d50>
     150:	0b39053b 	bleq	e41644 <__bss_end__+0xe37614>
     154:	00001301 	andeq	r1, r0, r1, lsl #6
     158:	0b01131b 	bleq	44dcc <__bss_end__+0x3ad9c>
     15c:	3b0b3a0b 	blcc	2ce990 <__bss_end__+0x2c4960>
     160:	010b3905 	tsteq	fp, r5, lsl #18
     164:	1c000013 	stcne	0, cr0, [r0], {19}
     168:	0b0b0117 	bleq	2c05cc <__bss_end__+0x2b659c>
     16c:	053b0b3a 	ldreq	r0, [fp, #-2874]!	; 0xfffff4c6
     170:	13010b39 	movwne	r0, #6969	; 0x1b39
     174:	0d1d0000 	ldceq	0, cr0, [sp, #-0]
     178:	3a0e0300 	bcc	380d80 <__bss_end__+0x376d50>
     17c:	39053b0b 	stmdbcc	r5, {r0, r1, r3, r8, r9, fp, ip, sp}
     180:	0013490b 	andseq	r4, r3, fp, lsl #18
     184:	01151e00 	tsteq	r5, r0, lsl #28
     188:	13011927 	movwne	r1, #6439	; 0x1927
     18c:	341f0000 	ldrcc	r0, [pc], #-0	; 194 <_start-0x7e6c>
     190:	3a0e0300 	bcc	380d98 <__bss_end__+0x376d68>
     194:	39053b0b 	stmdbcc	r5, {r0, r1, r3, r8, r9, fp, ip, sp}
     198:	3f13490b 	svccc	0x0013490b
     19c:	00193c19 	andseq	r3, r9, r9, lsl ip
     1a0:	00342000 	eorseq	r2, r4, r0
     1a4:	0b3a0e03 	bleq	e839b8 <__bss_end__+0xe79988>
     1a8:	0b390b3b 	bleq	e42e9c <__bss_end__+0xe38e6c>
     1ac:	193f1349 	ldmdbne	pc!, {r0, r3, r6, r8, r9, ip}	; <UNPREDICTABLE>
     1b0:	0000193c 	andeq	r1, r0, ip, lsr r9
     1b4:	3f012e21 	svccc	0x00012e21
     1b8:	3a0e0319 	bcc	380e24 <__bss_end__+0x376df4>
     1bc:	390b3b0b 	stmdbcc	fp, {r0, r1, r3, r8, r9, fp, ip, sp}
     1c0:	1119270b 	tstne	r9, fp, lsl #14
     1c4:	40061201 	andmi	r1, r6, r1, lsl #4
     1c8:	19429718 	stmdbne	r2, {r3, r4, r8, r9, sl, ip, pc}^
     1cc:	00001301 	andeq	r1, r0, r1, lsl #6
     1d0:	03003422 	movweq	r3, #1058	; 0x422
     1d4:	3b0b3a08 	blcc	2ce9fc <__bss_end__+0x2c49cc>
     1d8:	490b390b 	stmdbmi	fp, {r0, r1, r3, r8, fp, ip, sp}
     1dc:	00061c13 	andeq	r1, r6, r3, lsl ip
     1e0:	00342300 	eorseq	r2, r4, r0, lsl #6
     1e4:	0b3a0803 	bleq	e821f8 <__bss_end__+0xe781c8>
     1e8:	0b390b3b 	bleq	e42edc <__bss_end__+0xe38eac>
     1ec:	17021349 	strne	r1, [r2, -r9, asr #6]
     1f0:	001742b7 			; <UNDEFINED> instruction: 0x001742b7
     1f4:	00342400 	eorseq	r2, r4, r0, lsl #8
     1f8:	13490e03 	movtne	r0, #40451	; 0x9e03
     1fc:	18021934 	stmdane	r2, {r2, r4, r5, r8, fp, ip}
     200:	89250000 	stmdbhi	r5!, {}	; <UNPREDICTABLE>
     204:	11010182 	smlabbne	r1, r2, r1, r0
     208:	01133101 	tsteq	r3, r1, lsl #2
     20c:	26000013 			; <UNDEFINED> instruction: 0x26000013
     210:	0001828a 	andeq	r8, r1, sl, lsl #5
     214:	42911802 	addsmi	r1, r1, #131072	; 0x20000
     218:	27000018 	smladcs	r0, r8, r0, r0
     21c:	00018289 	andeq	r8, r1, r9, lsl #5
     220:	13310111 	teqne	r1, #1073741828	; 0x40000004
     224:	2e280000 	cdpcs	0, 2, cr0, cr8, cr0, {0}
     228:	3c193f00 	ldccc	15, cr3, [r9], {-0}
     22c:	030e6e19 	movweq	r6, #60953	; 0xee19
     230:	3b0b3a0e 	blcc	2cea70 <__bss_end__+0x2c4a40>
     234:	000b390b 	andeq	r3, fp, fp, lsl #18
     238:	11010000 	mrsne	r0, (UNDEF: 1)
     23c:	130e2501 	movwne	r2, #58625	; 0xe501
     240:	1b0e030b 	blne	380e74 <__bss_end__+0x376e44>
     244:	1201110e 	andne	r1, r1, #-2147483645	; 0x80000003
     248:	00171006 	andseq	r1, r7, r6
     24c:	00240200 	eoreq	r0, r4, r0, lsl #4
     250:	0b3e0b0b 	bleq	f82e84 <__bss_end__+0xf78e54>
     254:	00000803 	andeq	r0, r0, r3, lsl #16
     258:	0b002403 	bleq	926c <uart_init+0x48>
     25c:	030b3e0b 	movweq	r3, #48651	; 0xbe0b
     260:	0400000e 	streq	r0, [r0], #-14
     264:	0e030016 	mcreq	0, 0, r0, cr3, cr6, {0}
     268:	0b3b0b3a 	bleq	ec2f58 <__bss_end__+0xeb8f28>
     26c:	13490b39 	movtne	r0, #39737	; 0x9b39
     270:	0f050000 	svceq	0x00050000
     274:	490b0b00 	stmdbmi	fp, {r8, r9, fp}
     278:	06000013 			; <UNDEFINED> instruction: 0x06000013
     27c:	0e030013 	mcreq	0, 0, r0, cr3, cr3, {0}
     280:	0000193c 	andeq	r1, r0, ip, lsr r9
     284:	03001607 	movweq	r1, #1543	; 0x607
     288:	3b0b3a0e 	blcc	2ceac8 <__bss_end__+0x2c4a98>
     28c:	490b3905 	stmdbmi	fp, {r0, r2, r8, fp, ip, sp}
     290:	08000013 	stmdaeq	r0, {r0, r1, r4}
     294:	0b0b0117 	bleq	2c06f8 <__bss_end__+0x2b66c8>
     298:	0b3b0b3a 	bleq	ec2f88 <__bss_end__+0xeb8f58>
     29c:	13010b39 	movwne	r0, #6969	; 0x1b39
     2a0:	0d090000 	stceq	0, cr0, [r9, #-0]
     2a4:	3a0e0300 	bcc	380eac <__bss_end__+0x376e7c>
     2a8:	390b3b0b 	stmdbcc	fp, {r0, r1, r3, r8, r9, fp, ip, sp}
     2ac:	0013490b 	andseq	r4, r3, fp, lsl #18
     2b0:	01010a00 	tsteq	r1, r0, lsl #20
     2b4:	13011349 	movwne	r1, #4937	; 0x1349
     2b8:	210b0000 	mrscs	r0, (UNDEF: 11)
     2bc:	2f134900 	svccs	0x00134900
     2c0:	0c00000b 	stceq	0, cr0, [r0], {11}
     2c4:	0b0b0113 	bleq	2c0718 <__bss_end__+0x2b66e8>
     2c8:	0b3b0b3a 	bleq	ec2fb8 <__bss_end__+0xeb8f88>
     2cc:	13010b39 	movwne	r0, #6969	; 0x1b39
     2d0:	0d0d0000 	stceq	0, cr0, [sp, #-0]
     2d4:	3a0e0300 	bcc	380edc <__bss_end__+0x376eac>
     2d8:	390b3b0b 	stmdbcc	fp, {r0, r1, r3, r8, r9, fp, ip, sp}
     2dc:	3813490b 	ldmdacc	r3, {r0, r1, r3, r8, fp, lr}
     2e0:	0e00000b 	cdpeq	0, 0, cr0, cr0, cr11, {0}
     2e4:	0b0b000f 	bleq	2c0328 <__bss_end__+0x2b62f8>
     2e8:	260f0000 	strcs	r0, [pc], -r0
     2ec:	00134900 	andseq	r4, r3, r0, lsl #18
     2f0:	01131000 	tsteq	r3, r0
     2f4:	0b0b0e03 	bleq	2c3b08 <__bss_end__+0x2b9ad8>
     2f8:	0b3b0b3a 	bleq	ec2fe8 <__bss_end__+0xeb8fb8>
     2fc:	13010b39 	movwne	r0, #6969	; 0x1b39
     300:	0d110000 	ldceq	0, cr0, [r1, #-0]
     304:	3a080300 	bcc	200f0c <__bss_end__+0x1f6edc>
     308:	390b3b0b 	stmdbcc	fp, {r0, r1, r3, r8, r9, fp, ip, sp}
     30c:	3813490b 	ldmdacc	r3, {r0, r1, r3, r8, fp, lr}
     310:	1200000b 	andne	r0, r0, #11
     314:	0e030113 	mcreq	1, 0, r0, cr3, cr3, {0}
     318:	0b3a050b 	bleq	e8174c <__bss_end__+0xe7771c>
     31c:	0b390b3b 	bleq	e43010 <__bss_end__+0xe38fe0>
     320:	00001301 	andeq	r1, r0, r1, lsl #6
     324:	03000d13 	movweq	r0, #3347	; 0xd13
     328:	3b0b3a0e 	blcc	2ceb68 <__bss_end__+0x2c4b38>
     32c:	490b390b 	stmdbmi	fp, {r0, r1, r3, r8, fp, ip, sp}
     330:	00053813 	andeq	r3, r5, r3, lsl r8
     334:	00151400 	andseq	r1, r5, r0, lsl #8
     338:	00001927 	andeq	r1, r0, r7, lsr #18
     33c:	27011515 	smladcs	r1, r5, r5, r1
     340:	01134919 	tsteq	r3, r9, lsl r9
     344:	16000013 			; <UNDEFINED> instruction: 0x16000013
     348:	13490005 	movtne	r0, #36869	; 0x9005
     34c:	13170000 	tstne	r7, #0
     350:	0b0e0301 	bleq	380f5c <__bss_end__+0x376f2c>
     354:	3b0b3a05 	blcc	2ceb70 <__bss_end__+0x2c4b40>
     358:	010b3905 	tsteq	fp, r5, lsl #18
     35c:	18000013 	stmdane	r0, {r0, r1, r4}
     360:	0e03000d 	cdpeq	0, 0, cr0, cr3, cr13, {0}
     364:	053b0b3a 	ldreq	r0, [fp, #-2874]!	; 0xfffff4c6
     368:	13490b39 	movtne	r0, #39737	; 0x9b39
     36c:	00000b38 	andeq	r0, r0, r8, lsr fp
     370:	03000d19 	movweq	r0, #3353	; 0xd19
     374:	3b0b3a0e 	blcc	2cebb4 <__bss_end__+0x2c4b84>
     378:	490b3905 	stmdbmi	fp, {r0, r2, r8, fp, ip, sp}
     37c:	00053813 	andeq	r3, r5, r3, lsl r8
     380:	01131a00 	tsteq	r3, r0, lsl #20
     384:	0b0b0e03 	bleq	2c3b98 <__bss_end__+0x2b9b68>
     388:	053b0b3a 	ldreq	r0, [fp, #-2874]!	; 0xfffff4c6
     38c:	13010b39 	movwne	r0, #6969	; 0x1b39
     390:	131b0000 	tstne	fp, #0
     394:	3a0b0b01 	bcc	2c2fa0 <__bss_end__+0x2b8f70>
     398:	39053b0b 	stmdbcc	r5, {r0, r1, r3, r8, r9, fp, ip, sp}
     39c:	0013010b 	andseq	r0, r3, fp, lsl #2
     3a0:	01171c00 	tsteq	r7, r0, lsl #24
     3a4:	0b3a0b0b 	bleq	e82fd8 <__bss_end__+0xe78fa8>
     3a8:	0b39053b 	bleq	e4189c <__bss_end__+0xe3786c>
     3ac:	00001301 	andeq	r1, r0, r1, lsl #6
     3b0:	03000d1d 	movweq	r0, #3357	; 0xd1d
     3b4:	3b0b3a0e 	blcc	2cebf4 <__bss_end__+0x2c4bc4>
     3b8:	490b3905 	stmdbmi	fp, {r0, r2, r8, fp, ip, sp}
     3bc:	1e000013 	mcrne	0, 0, r0, cr0, cr3, {0}
     3c0:	19270115 	stmdbne	r7!, {r0, r2, r4, r8}
     3c4:	00001301 	andeq	r1, r0, r1, lsl #6
     3c8:	0300341f 	movweq	r3, #1055	; 0x41f
     3cc:	3b0b3a0e 	blcc	2cec0c <__bss_end__+0x2c4bdc>
     3d0:	490b3905 	stmdbmi	fp, {r0, r2, r8, fp, ip, sp}
     3d4:	3c193f13 	ldccc	15, cr3, [r9], {19}
     3d8:	20000019 	andcs	r0, r0, r9, lsl r0
     3dc:	0e030034 	mcreq	0, 0, r0, cr3, cr4, {1}
     3e0:	0b3b0b3a 	bleq	ec30d0 <__bss_end__+0xeb90a0>
     3e4:	13490b39 	movtne	r0, #39737	; 0x9b39
     3e8:	193c193f 	ldmdbne	ip!, {r0, r1, r2, r3, r4, r5, r8, fp, ip}
     3ec:	04210000 	strteq	r0, [r1], #-0
     3f0:	0b0b3e01 	bleq	2cfbfc <__bss_end__+0x2c5bcc>
     3f4:	3a13490b 	bcc	4d2828 <__bss_end__+0x4c87f8>
     3f8:	390b3b0b 	stmdbcc	fp, {r0, r1, r3, r8, r9, fp, ip, sp}
     3fc:	0013010b 	andseq	r0, r3, fp, lsl #2
     400:	00282200 	eoreq	r2, r8, r0, lsl #4
     404:	0b1c0e03 	bleq	703c18 <__bss_end__+0x6f9be8>
     408:	28230000 	stmdacs	r3!, {}	; <UNPREDICTABLE>
     40c:	1c0e0300 	stcne	3, cr0, [lr], {-0}
     410:	24000005 	strcs	r0, [r0], #-5
     414:	0e030034 	mcreq	0, 0, r0, cr3, cr4, {1}
     418:	0b3b0b3a 	bleq	ec3108 <__bss_end__+0xeb90d8>
     41c:	13490b39 	movtne	r0, #39737	; 0x9b39
     420:	00001802 	andeq	r1, r0, r2, lsl #16
     424:	3f012e25 	svccc	0x00012e25
     428:	3a0e0319 	bcc	381094 <__bss_end__+0x377064>
     42c:	390b3b0b 	stmdbcc	fp, {r0, r1, r3, r8, r9, fp, ip, sp}
     430:	4919270b 	ldmdbmi	r9, {r0, r1, r3, r8, r9, sl, sp}
     434:	12011113 	andne	r1, r1, #-1073741820	; 0xc0000004
     438:	97184006 	ldrls	r4, [r8, -r6]
     43c:	13011942 	movwne	r1, #6466	; 0x1942
     440:	34260000 	strtcc	r0, [r6], #-0
     444:	3a0e0300 	bcc	38104c <__bss_end__+0x37701c>
     448:	390b3b0b 	stmdbcc	fp, {r0, r1, r3, r8, r9, fp, ip, sp}
     44c:	0213490b 	andseq	r4, r3, #180224	; 0x2c000
     450:	1742b717 	smlaldne	fp, r2, r7, r7
     454:	0b270000 	bleq	9c045c <__bss_end__+0x9b642c>
     458:	01175501 	tsteq	r7, r1, lsl #10
     45c:	28000013 	stmdacs	r0, {r0, r1, r4}
     460:	01018289 	smlabbeq	r1, r9, r2, r8
     464:	13310111 	teqne	r1, #1073741828	; 0x40000004
     468:	00001301 	andeq	r1, r0, r1, lsl #6
     46c:	01828a29 	orreq	r8, r2, r9, lsr #20
     470:	91180200 	tstls	r8, r0, lsl #4
     474:	00001842 	andeq	r1, r0, r2, asr #16
     478:	0182892a 	orreq	r8, r2, sl, lsr #18
     47c:	31011101 	tstcc	r1, r1, lsl #2
     480:	2b000013 	blcs	4d4 <_start-0x7b2c>
     484:	0e030005 	cdpeq	0, 0, cr0, cr3, cr5, {0}
     488:	0b3b0b3a 	bleq	ec3178 <__bss_end__+0xeb9148>
     48c:	13490b39 	movtne	r0, #39737	; 0x9b39
     490:	42b71702 	adcsmi	r1, r7, #524288	; 0x80000
     494:	2c000017 	stccs	0, cr0, [r0], {23}
     498:	08030034 	stmdaeq	r3, {r2, r4, r5}
     49c:	0b3b0b3a 	bleq	ec318c <__bss_end__+0xeb915c>
     4a0:	13490b39 	movtne	r0, #39737	; 0x9b39
     4a4:	42b71702 	adcsmi	r1, r7, #524288	; 0x80000
     4a8:	2d000017 	stccs	0, cr0, [r0, #-92]	; 0xffffffa4
     4ac:	0e030034 	mcreq	0, 0, r0, cr3, cr4, {1}
     4b0:	19341349 	ldmdbne	r4!, {r0, r3, r6, r8, r9, ip}
     4b4:	00001802 	andeq	r1, r0, r2, lsl #16
     4b8:	0182892e 	orreq	r8, r2, lr, lsr #18
     4bc:	31011100 	mrscc	r1, (UNDEF: 17)
     4c0:	2f000013 	svccs	0x00000013
     4c4:	193f012e 	ldmdbne	pc!, {r1, r2, r3, r5, r8}	; <UNPREDICTABLE>
     4c8:	0b3a0e03 	bleq	e83cdc <__bss_end__+0xe79cac>
     4cc:	0b390b3b 	bleq	e431c0 <__bss_end__+0xe39190>
     4d0:	01111927 	tsteq	r1, r7, lsr #18
     4d4:	18400612 	stmdane	r0, {r1, r4, r9, sl}^
     4d8:	01194297 			; <UNDEFINED> instruction: 0x01194297
     4dc:	30000013 	andcc	r0, r0, r3, lsl r0
     4e0:	0e03012e 	adfeqsp	f0, f3, #0.5
     4e4:	0b3b0b3a 	bleq	ec31d4 <__bss_end__+0xeb91a4>
     4e8:	19270b39 	stmdbne	r7!, {r0, r3, r4, r5, r8, r9, fp}
     4ec:	01111349 	tsteq	r1, r9, asr #6
     4f0:	18400612 	stmdane	r0, {r1, r4, r9, sl}^
     4f4:	01194297 			; <UNDEFINED> instruction: 0x01194297
     4f8:	31000013 	tstcc	r0, r3, lsl r0
     4fc:	08030005 	stmdaeq	r3, {r0, r2}
     500:	0b3b0b3a 	bleq	ec31f0 <__bss_end__+0xeb91c0>
     504:	13490b39 	movtne	r0, #39737	; 0x9b39
     508:	42b71702 	adcsmi	r1, r7, #524288	; 0x80000
     50c:	32000017 	andcc	r0, r0, #23
     510:	0e03012e 	adfeqsp	f0, f3, #0.5
     514:	0b3b0b3a 	bleq	ec3204 <__bss_end__+0xeb91d4>
     518:	19270b39 	stmdbne	r7!, {r0, r3, r4, r5, r8, r9, fp}
     51c:	06120111 			; <UNDEFINED> instruction: 0x06120111
     520:	42971840 	addsmi	r1, r7, #64, 16	; 0x400000
     524:	00130119 	andseq	r0, r3, r9, lsl r1
     528:	010b3300 	mrseq	r3, (UNDEF: 59)
     52c:	06120111 			; <UNDEFINED> instruction: 0x06120111
     530:	1d340000 	ldcne	0, cr0, [r4, #-0]
     534:	52133101 	andspl	r3, r3, #1073741824	; 0x40000000
     538:	0b42b801 	bleq	10ae544 <__bss_end__+0x10a4514>
     53c:	0b581755 	bleq	1606298 <__bss_end__+0x15fc268>
     540:	0b570b59 	bleq	15c32ac <__bss_end__+0x15b927c>
     544:	00001301 	andeq	r1, r0, r1, lsl #6
     548:	31000535 	tstcc	r0, r5, lsr r5
     54c:	b7170213 			; <UNDEFINED> instruction: 0xb7170213
     550:	00001742 	andeq	r1, r0, r2, asr #14
     554:	55010b36 	strpl	r0, [r1, #-2870]	; 0xfffff4ca
     558:	37000017 	smladcc	r0, r7, r0, r0
     55c:	13310034 	teqne	r1, #52	; 0x34
     560:	42b71702 	adcsmi	r1, r7, #524288	; 0x80000
     564:	38000017 	stmdacc	r0, {r0, r1, r2, r4}
     568:	0e03012e 	adfeqsp	f0, f3, #0.5
     56c:	0b3b0b3a 	bleq	ec325c <__bss_end__+0xeb922c>
     570:	19270b39 	stmdbne	r7!, {r0, r3, r4, r5, r8, r9, fp}
     574:	13010b20 	movwne	r0, #6944	; 0x1b20
     578:	05390000 	ldreq	r0, [r9, #-0]!
     57c:	3a080300 	bcc	201184 <__bss_end__+0x1f7154>
     580:	390b3b0b 	stmdbcc	fp, {r0, r1, r3, r8, r9, fp, ip, sp}
     584:	0013490b 	andseq	r4, r3, fp, lsl #18
     588:	00343a00 	eorseq	r3, r4, r0, lsl #20
     58c:	0b3a0803 	bleq	e825a0 <__bss_end__+0xe78570>
     590:	0b390b3b 	bleq	e43284 <__bss_end__+0xe39254>
     594:	00001349 	andeq	r1, r0, r9, asr #6
     598:	3f002e3b 	svccc	0x00002e3b
     59c:	6e193c19 	mrcvs	12, 0, r3, cr9, cr9, {0}
     5a0:	3a0e030e 	bcc	3811e0 <__bss_end__+0x3771b0>
     5a4:	390b3b0b 	stmdbcc	fp, {r0, r1, r3, r8, r9, fp, ip, sp}
     5a8:	0000000b 	andeq	r0, r0, fp
     5ac:	25011101 	strcs	r1, [r1, #-257]	; 0xfffffeff
     5b0:	030b130e 	movweq	r1, #45838	; 0xb30e
     5b4:	110e1b0e 	tstne	lr, lr, lsl #22
     5b8:	10061201 	andne	r1, r6, r1, lsl #4
     5bc:	02000017 	andeq	r0, r0, #23
     5c0:	0b0b0024 	bleq	2c0658 <__bss_end__+0x2b6628>
     5c4:	08030b3e 	stmdaeq	r3, {r1, r2, r3, r4, r5, r8, r9, fp}
     5c8:	24030000 	strcs	r0, [r3], #-0
     5cc:	3e0b0b00 	vmlacc.f64	d0, d11, d0
     5d0:	000e030b 	andeq	r0, lr, fp, lsl #6
     5d4:	00160400 	andseq	r0, r6, r0, lsl #8
     5d8:	0b3a0e03 	bleq	e83dec <__bss_end__+0xe79dbc>
     5dc:	0b390b3b 	bleq	e432d0 <__bss_end__+0xe392a0>
     5e0:	00001349 	andeq	r1, r0, r9, asr #6
     5e4:	0b000f05 	bleq	4200 <_start-0x3e00>
     5e8:	0013490b 	andseq	r4, r3, fp, lsl #18
     5ec:	00130600 	andseq	r0, r3, r0, lsl #12
     5f0:	193c0e03 	ldmdbne	ip!, {r0, r1, r9, sl, fp}
     5f4:	16070000 	strne	r0, [r7], -r0
     5f8:	3a0e0300 	bcc	381200 <__bss_end__+0x3771d0>
     5fc:	39053b0b 	stmdbcc	r5, {r0, r1, r3, r8, r9, fp, ip, sp}
     600:	0013490b 	andseq	r4, r3, fp, lsl #18
     604:	01170800 	tsteq	r7, r0, lsl #16
     608:	0b3a0b0b 	bleq	e8323c <__bss_end__+0xe7920c>
     60c:	0b390b3b 	bleq	e43300 <__bss_end__+0xe392d0>
     610:	00001301 	andeq	r1, r0, r1, lsl #6
     614:	03000d09 	movweq	r0, #3337	; 0xd09
     618:	3b0b3a0e 	blcc	2cee58 <__bss_end__+0x2c4e28>
     61c:	490b390b 	stmdbmi	fp, {r0, r1, r3, r8, fp, ip, sp}
     620:	0a000013 	beq	674 <_start-0x798c>
     624:	13490101 	movtne	r0, #37121	; 0x9101
     628:	00001301 	andeq	r1, r0, r1, lsl #6
     62c:	4900210b 	stmdbmi	r0, {r0, r1, r3, r8, sp}
     630:	000b2f13 	andeq	r2, fp, r3, lsl pc
     634:	01130c00 	tsteq	r3, r0, lsl #24
     638:	0b3a0b0b 	bleq	e8326c <__bss_end__+0xe7923c>
     63c:	0b390b3b 	bleq	e43330 <__bss_end__+0xe39300>
     640:	00001301 	andeq	r1, r0, r1, lsl #6
     644:	03000d0d 	movweq	r0, #3341	; 0xd0d
     648:	3b0b3a0e 	blcc	2cee88 <__bss_end__+0x2c4e58>
     64c:	490b390b 	stmdbmi	fp, {r0, r1, r3, r8, fp, ip, sp}
     650:	000b3813 	andeq	r3, fp, r3, lsl r8
     654:	000f0e00 	andeq	r0, pc, r0, lsl #28
     658:	00000b0b 	andeq	r0, r0, fp, lsl #22
     65c:	4900260f 	stmdbmi	r0, {r0, r1, r2, r3, r9, sl, sp}
     660:	10000013 	andne	r0, r0, r3, lsl r0
     664:	0e030113 	mcreq	1, 0, r0, cr3, cr3, {0}
     668:	0b3a0b0b 	bleq	e8329c <__bss_end__+0xe7926c>
     66c:	0b390b3b 	bleq	e43360 <__bss_end__+0xe39330>
     670:	00001301 	andeq	r1, r0, r1, lsl #6
     674:	03000d11 	movweq	r0, #3345	; 0xd11
     678:	3b0b3a08 	blcc	2ceea0 <__bss_end__+0x2c4e70>
     67c:	490b390b 	stmdbmi	fp, {r0, r1, r3, r8, fp, ip, sp}
     680:	000b3813 	andeq	r3, fp, r3, lsl r8
     684:	01131200 	tsteq	r3, r0, lsl #4
     688:	050b0e03 	streq	r0, [fp, #-3587]	; 0xfffff1fd
     68c:	0b3b0b3a 	bleq	ec337c <__bss_end__+0xeb934c>
     690:	13010b39 	movwne	r0, #6969	; 0x1b39
     694:	0d130000 	ldceq	0, cr0, [r3, #-0]
     698:	3a0e0300 	bcc	3812a0 <__bss_end__+0x377270>
     69c:	390b3b0b 	stmdbcc	fp, {r0, r1, r3, r8, r9, fp, ip, sp}
     6a0:	3813490b 	ldmdacc	r3, {r0, r1, r3, r8, fp, lr}
     6a4:	14000005 	strne	r0, [r0], #-5
     6a8:	19270015 	stmdbne	r7!, {r0, r2, r4}
     6ac:	15150000 	ldrne	r0, [r5, #-0]
     6b0:	49192701 	ldmdbmi	r9, {r0, r8, r9, sl, sp}
     6b4:	00130113 	andseq	r0, r3, r3, lsl r1
     6b8:	00051600 	andeq	r1, r5, r0, lsl #12
     6bc:	00001349 	andeq	r1, r0, r9, asr #6
     6c0:	03011317 	movweq	r1, #4887	; 0x1317
     6c4:	3a050b0e 	bcc	143304 <__bss_end__+0x1392d4>
     6c8:	39053b0b 	stmdbcc	r5, {r0, r1, r3, r8, r9, fp, ip, sp}
     6cc:	0013010b 	andseq	r0, r3, fp, lsl #2
     6d0:	000d1800 	andeq	r1, sp, r0, lsl #16
     6d4:	0b3a0e03 	bleq	e83ee8 <__bss_end__+0xe79eb8>
     6d8:	0b39053b 	bleq	e41bcc <__bss_end__+0xe37b9c>
     6dc:	0b381349 	bleq	e05408 <__bss_end__+0xdfb3d8>
     6e0:	0d190000 	ldceq	0, cr0, [r9, #-0]
     6e4:	3a0e0300 	bcc	3812ec <__bss_end__+0x3772bc>
     6e8:	39053b0b 	stmdbcc	r5, {r0, r1, r3, r8, r9, fp, ip, sp}
     6ec:	3813490b 	ldmdacc	r3, {r0, r1, r3, r8, fp, lr}
     6f0:	1a000005 	bne	70c <_start-0x78f4>
     6f4:	0e030113 	mcreq	1, 0, r0, cr3, cr3, {0}
     6f8:	0b3a0b0b 	bleq	e8332c <__bss_end__+0xe792fc>
     6fc:	0b39053b 	bleq	e41bf0 <__bss_end__+0xe37bc0>
     700:	00001301 	andeq	r1, r0, r1, lsl #6
     704:	0b01131b 	bleq	45378 <__bss_end__+0x3b348>
     708:	3b0b3a0b 	blcc	2cef3c <__bss_end__+0x2c4f0c>
     70c:	010b3905 	tsteq	fp, r5, lsl #18
     710:	1c000013 	stcne	0, cr0, [r0], {19}
     714:	0b0b0117 	bleq	2c0b78 <__bss_end__+0x2b6b48>
     718:	053b0b3a 	ldreq	r0, [fp, #-2874]!	; 0xfffff4c6
     71c:	13010b39 	movwne	r0, #6969	; 0x1b39
     720:	0d1d0000 	ldceq	0, cr0, [sp, #-0]
     724:	3a0e0300 	bcc	38132c <__bss_end__+0x3772fc>
     728:	39053b0b 	stmdbcc	r5, {r0, r1, r3, r8, r9, fp, ip, sp}
     72c:	0013490b 	andseq	r4, r3, fp, lsl #18
     730:	01151e00 	tsteq	r5, r0, lsl #28
     734:	13011927 	movwne	r1, #6439	; 0x1927
     738:	341f0000 	ldrcc	r0, [pc], #-0	; 740 <_start-0x78c0>
     73c:	3a0e0300 	bcc	381344 <__bss_end__+0x377314>
     740:	39053b0b 	stmdbcc	r5, {r0, r1, r3, r8, r9, fp, ip, sp}
     744:	3f13490b 	svccc	0x0013490b
     748:	00193c19 	andseq	r3, r9, r9, lsl ip
     74c:	00342000 	eorseq	r2, r4, r0
     750:	0b3a0e03 	bleq	e83f64 <__bss_end__+0xe79f34>
     754:	0b390b3b 	bleq	e43448 <__bss_end__+0xe39418>
     758:	193f1349 	ldmdbne	pc!, {r0, r3, r6, r8, r9, ip}	; <UNPREDICTABLE>
     75c:	0000193c 	andeq	r1, r0, ip, lsr r9
     760:	3f012e21 	svccc	0x00012e21
     764:	3a0e0319 	bcc	3813d0 <__bss_end__+0x3773a0>
     768:	390b3b0b 	stmdbcc	fp, {r0, r1, r3, r8, r9, fp, ip, sp}
     76c:	4919270b 	ldmdbmi	r9, {r0, r1, r3, r8, r9, sl, sp}
     770:	12011113 	andne	r1, r1, #-1073741820	; 0xc0000004
     774:	97184006 	ldrls	r4, [r8, -r6]
     778:	13011942 	movwne	r1, #6466	; 0x1942
     77c:	05220000 	streq	r0, [r2, #-0]!
     780:	3a0e0300 	bcc	381388 <__bss_end__+0x377358>
     784:	390b3b0b 	stmdbcc	fp, {r0, r1, r3, r8, r9, fp, ip, sp}
     788:	0213490b 	andseq	r4, r3, #180224	; 0x2c000
     78c:	1742b717 	smlaldne	fp, r2, r7, r7
     790:	05230000 	streq	r0, [r3, #-0]!
     794:	3a080300 	bcc	20139c <__bss_end__+0x1f736c>
     798:	390b3b0b 	stmdbcc	fp, {r0, r1, r3, r8, r9, fp, ip, sp}
     79c:	0213490b 	andseq	r4, r3, #180224	; 0x2c000
     7a0:	1742b717 	smlaldne	fp, r2, r7, r7
     7a4:	34240000 	strtcc	r0, [r4], #-0
     7a8:	3a0e0300 	bcc	3813b0 <__bss_end__+0x377380>
     7ac:	390b3b0b 	stmdbcc	fp, {r0, r1, r3, r8, r9, fp, ip, sp}
     7b0:	0213490b 	andseq	r4, r3, #180224	; 0x2c000
     7b4:	1742b717 	smlaldne	fp, r2, r7, r7
     7b8:	34250000 	strtcc	r0, [r5], #-0
     7bc:	3a080300 	bcc	2013c4 <__bss_end__+0x1f7394>
     7c0:	390b3b0b 	stmdbcc	fp, {r0, r1, r3, r8, r9, fp, ip, sp}
     7c4:	0213490b 	andseq	r4, r3, #180224	; 0x2c000
     7c8:	1742b717 	smlaldne	fp, r2, r7, r7
     7cc:	26260000 	strtcs	r0, [r6], -r0
     7d0:	00000000 	andeq	r0, r0, r0
     7d4:	25011101 	strcs	r1, [r1, #-257]	; 0xfffffeff
     7d8:	030b130e 	movweq	r1, #45838	; 0xb30e
     7dc:	110e1b0e 	tstne	lr, lr, lsl #22
     7e0:	10061201 	andne	r1, r6, r1, lsl #4
     7e4:	02000017 	andeq	r0, r0, #23
     7e8:	0b0b0024 	bleq	2c0880 <__bss_end__+0x2b6850>
     7ec:	08030b3e 	stmdaeq	r3, {r1, r2, r3, r4, r5, r8, r9, fp}
     7f0:	16030000 	strne	r0, [r3], -r0
     7f4:	3a0e0300 	bcc	3813fc <__bss_end__+0x3773cc>
     7f8:	390b3b0b 	stmdbcc	fp, {r0, r1, r3, r8, r9, fp, ip, sp}
     7fc:	0013490b 	andseq	r4, r3, fp, lsl #18
     800:	00240400 	eoreq	r0, r4, r0, lsl #8
     804:	0b3e0b0b 	bleq	f83438 <__bss_end__+0xf79408>
     808:	00000e03 	andeq	r0, r0, r3, lsl #28
     80c:	0b000f05 	bleq	4428 <_start-0x3bd8>
     810:	0013490b 	andseq	r4, r3, fp, lsl #18
     814:	00130600 	andseq	r0, r3, r0, lsl #12
     818:	193c0e03 	ldmdbne	ip!, {r0, r1, r9, sl, fp}
     81c:	16070000 	strne	r0, [r7], -r0
     820:	3a0e0300 	bcc	381428 <__bss_end__+0x3773f8>
     824:	39053b0b 	stmdbcc	r5, {r0, r1, r3, r8, r9, fp, ip, sp}
     828:	0013490b 	andseq	r4, r3, fp, lsl #18
     82c:	01170800 	tsteq	r7, r0, lsl #16
     830:	0b3a0b0b 	bleq	e83464 <__bss_end__+0xe79434>
     834:	0b390b3b 	bleq	e43528 <__bss_end__+0xe394f8>
     838:	00001301 	andeq	r1, r0, r1, lsl #6
     83c:	03000d09 	movweq	r0, #3337	; 0xd09
     840:	3b0b3a0e 	blcc	2cf080 <__bss_end__+0x2c5050>
     844:	490b390b 	stmdbmi	fp, {r0, r1, r3, r8, fp, ip, sp}
     848:	0a000013 	beq	89c <_start-0x7764>
     84c:	13490101 	movtne	r0, #37121	; 0x9101
     850:	00001301 	andeq	r1, r0, r1, lsl #6
     854:	4900210b 	stmdbmi	r0, {r0, r1, r3, r8, sp}
     858:	000b2f13 	andeq	r2, fp, r3, lsl pc
     85c:	01130c00 	tsteq	r3, r0, lsl #24
     860:	0b3a0b0b 	bleq	e83494 <__bss_end__+0xe79464>
     864:	0b390b3b 	bleq	e43558 <__bss_end__+0xe39528>
     868:	00001301 	andeq	r1, r0, r1, lsl #6
     86c:	03000d0d 	movweq	r0, #3341	; 0xd0d
     870:	3b0b3a0e 	blcc	2cf0b0 <__bss_end__+0x2c5080>
     874:	490b390b 	stmdbmi	fp, {r0, r1, r3, r8, fp, ip, sp}
     878:	000b3813 	andeq	r3, fp, r3, lsl r8
     87c:	000f0e00 	andeq	r0, pc, r0, lsl #28
     880:	00000b0b 	andeq	r0, r0, fp, lsl #22
     884:	4900260f 	stmdbmi	r0, {r0, r1, r2, r3, r9, sl, sp}
     888:	10000013 	andne	r0, r0, r3, lsl r0
     88c:	0e030113 	mcreq	1, 0, r0, cr3, cr3, {0}
     890:	0b3a0b0b 	bleq	e834c4 <__bss_end__+0xe79494>
     894:	0b390b3b 	bleq	e43588 <__bss_end__+0xe39558>
     898:	00001301 	andeq	r1, r0, r1, lsl #6
     89c:	03000d11 	movweq	r0, #3345	; 0xd11
     8a0:	3b0b3a08 	blcc	2cf0c8 <__bss_end__+0x2c5098>
     8a4:	490b390b 	stmdbmi	fp, {r0, r1, r3, r8, fp, ip, sp}
     8a8:	000b3813 	andeq	r3, fp, r3, lsl r8
     8ac:	01131200 	tsteq	r3, r0, lsl #4
     8b0:	050b0e03 	streq	r0, [fp, #-3587]	; 0xfffff1fd
     8b4:	0b3b0b3a 	bleq	ec35a4 <__bss_end__+0xeb9574>
     8b8:	13010b39 	movwne	r0, #6969	; 0x1b39
     8bc:	0d130000 	ldceq	0, cr0, [r3, #-0]
     8c0:	3a0e0300 	bcc	3814c8 <__bss_end__+0x377498>
     8c4:	390b3b0b 	stmdbcc	fp, {r0, r1, r3, r8, r9, fp, ip, sp}
     8c8:	3813490b 	ldmdacc	r3, {r0, r1, r3, r8, fp, lr}
     8cc:	14000005 	strne	r0, [r0], #-5
     8d0:	19270015 	stmdbne	r7!, {r0, r2, r4}
     8d4:	15150000 	ldrne	r0, [r5, #-0]
     8d8:	49192701 	ldmdbmi	r9, {r0, r8, r9, sl, sp}
     8dc:	00130113 	andseq	r0, r3, r3, lsl r1
     8e0:	00051600 	andeq	r1, r5, r0, lsl #12
     8e4:	00001349 	andeq	r1, r0, r9, asr #6
     8e8:	03011317 	movweq	r1, #4887	; 0x1317
     8ec:	3a050b0e 	bcc	14352c <__bss_end__+0x1394fc>
     8f0:	39053b0b 	stmdbcc	r5, {r0, r1, r3, r8, r9, fp, ip, sp}
     8f4:	0013010b 	andseq	r0, r3, fp, lsl #2
     8f8:	000d1800 	andeq	r1, sp, r0, lsl #16
     8fc:	0b3a0e03 	bleq	e84110 <__bss_end__+0xe7a0e0>
     900:	0b39053b 	bleq	e41df4 <__bss_end__+0xe37dc4>
     904:	0b381349 	bleq	e05630 <__bss_end__+0xdfb600>
     908:	0d190000 	ldceq	0, cr0, [r9, #-0]
     90c:	3a0e0300 	bcc	381514 <__bss_end__+0x3774e4>
     910:	39053b0b 	stmdbcc	r5, {r0, r1, r3, r8, r9, fp, ip, sp}
     914:	3813490b 	ldmdacc	r3, {r0, r1, r3, r8, fp, lr}
     918:	1a000005 	bne	934 <_start-0x76cc>
     91c:	0e030113 	mcreq	1, 0, r0, cr3, cr3, {0}
     920:	0b3a0b0b 	bleq	e83554 <__bss_end__+0xe79524>
     924:	0b39053b 	bleq	e41e18 <__bss_end__+0xe37de8>
     928:	00001301 	andeq	r1, r0, r1, lsl #6
     92c:	0b01131b 	bleq	455a0 <__bss_end__+0x3b570>
     930:	3b0b3a0b 	blcc	2cf164 <__bss_end__+0x2c5134>
     934:	010b3905 	tsteq	fp, r5, lsl #18
     938:	1c000013 	stcne	0, cr0, [r0], {19}
     93c:	0b0b0117 	bleq	2c0da0 <__bss_end__+0x2b6d70>
     940:	053b0b3a 	ldreq	r0, [fp, #-2874]!	; 0xfffff4c6
     944:	13010b39 	movwne	r0, #6969	; 0x1b39
     948:	0d1d0000 	ldceq	0, cr0, [sp, #-0]
     94c:	3a0e0300 	bcc	381554 <__bss_end__+0x377524>
     950:	39053b0b 	stmdbcc	r5, {r0, r1, r3, r8, r9, fp, ip, sp}
     954:	0013490b 	andseq	r4, r3, fp, lsl #18
     958:	01151e00 	tsteq	r5, r0, lsl #28
     95c:	13011927 	movwne	r1, #6439	; 0x1927
     960:	341f0000 	ldrcc	r0, [pc], #-0	; 968 <_start-0x7698>
     964:	3a0e0300 	bcc	38156c <__bss_end__+0x37753c>
     968:	39053b0b 	stmdbcc	r5, {r0, r1, r3, r8, r9, fp, ip, sp}
     96c:	3f13490b 	svccc	0x0013490b
     970:	00193c19 	andseq	r3, r9, r9, lsl ip
     974:	012e2000 			; <UNDEFINED> instruction: 0x012e2000
     978:	0e03193f 			; <UNDEFINED> instruction: 0x0e03193f
     97c:	0b3b0b3a 	bleq	ec366c <__bss_end__+0xeb963c>
     980:	19270b39 	stmdbne	r7!, {r0, r3, r4, r5, r8, r9, fp}
     984:	01111349 	tsteq	r1, r9, asr #6
     988:	18400612 	stmdane	r0, {r1, r4, r9, sl}^
     98c:	00194297 	mulseq	r9, r7, r2
     990:	00052100 	andeq	r2, r5, r0, lsl #2
     994:	0b3a0803 	bleq	e829a8 <__bss_end__+0xe78978>
     998:	0b390b3b 	bleq	e4368c <__bss_end__+0xe3965c>
     99c:	18021349 	stmdane	r2, {r0, r3, r6, r8, r9, ip}
     9a0:	05220000 	streq	r0, [r2, #-0]!
     9a4:	3a080300 	bcc	2015ac <__bss_end__+0x1f757c>
     9a8:	390b3b0b 	stmdbcc	fp, {r0, r1, r3, r8, r9, fp, ip, sp}
     9ac:	0213490b 	andseq	r4, r3, #180224	; 0x2c000
     9b0:	1742b717 	smlaldne	fp, r2, r7, r7
     9b4:	34230000 	strtcc	r0, [r3], #-0
     9b8:	3a080300 	bcc	2015c0 <__bss_end__+0x1f7590>
     9bc:	390b3b0b 	stmdbcc	fp, {r0, r1, r3, r8, r9, fp, ip, sp}
     9c0:	0213490b 	andseq	r4, r3, #180224	; 0x2c000
     9c4:	1742b717 	smlaldne	fp, r2, r7, r7
     9c8:	01000000 	mrseq	r0, (UNDEF: 0)
     9cc:	0e250111 	mcreq	1, 1, r0, cr5, cr1, {0}
     9d0:	0e030b13 	vmoveq.32	d3[0], r0
     9d4:	01110e1b 	tsteq	r1, fp, lsl lr
     9d8:	17100612 			; <UNDEFINED> instruction: 0x17100612
     9dc:	16020000 	strne	r0, [r2], -r0
     9e0:	3a0e0300 	bcc	3815e8 <__bss_end__+0x3775b8>
     9e4:	390b3b0b 	stmdbcc	fp, {r0, r1, r3, r8, r9, fp, ip, sp}
     9e8:	0013490b 	andseq	r4, r3, fp, lsl #18
     9ec:	01130300 	tsteq	r3, r0, lsl #6
     9f0:	0b0b0e03 	bleq	2c4204 <__bss_end__+0x2ba1d4>
     9f4:	0b3b0b3a 	bleq	ec36e4 <__bss_end__+0xeb96b4>
     9f8:	00001301 	andeq	r1, r0, r1, lsl #6
     9fc:	03000d04 	movweq	r0, #3332	; 0xd04
     a00:	3813490e 	ldmdacc	r3, {r1, r2, r3, r8, fp, lr}
     a04:	0019340b 	andseq	r3, r9, fp, lsl #8
     a08:	000f0500 	andeq	r0, pc, r0, lsl #10
     a0c:	00000b0b 	andeq	r0, r0, fp, lsl #22
     a10:	0b002406 	bleq	9a30 <__FUNCTION__.4407+0x44>
     a14:	030b3e0b 	movweq	r3, #48651	; 0xbe0b
     a18:	07000008 	streq	r0, [r0, -r8]
     a1c:	0b0b0024 	bleq	2c0ab4 <__bss_end__+0x2b6a84>
     a20:	0e030b3e 	vmoveq.16	d3[0], r0
     a24:	0f080000 	svceq	0x00080000
     a28:	490b0b00 	stmdbmi	fp, {r8, r9, fp}
     a2c:	09000013 	stmdbeq	r0, {r0, r1, r4}
     a30:	0e030013 	mcreq	0, 0, r0, cr3, cr3, {0}
     a34:	0000193c 	andeq	r1, r0, ip, lsr r9
     a38:	0300160a 	movweq	r1, #1546	; 0x60a
     a3c:	3b0b3a0e 	blcc	2cf27c <__bss_end__+0x2c524c>
     a40:	490b3905 	stmdbmi	fp, {r0, r2, r8, fp, ip, sp}
     a44:	0b000013 	bleq	a98 <_start-0x7568>
     a48:	0b0b0117 	bleq	2c0eac <__bss_end__+0x2b6e7c>
     a4c:	0b3b0b3a 	bleq	ec373c <__bss_end__+0xeb970c>
     a50:	13010b39 	movwne	r0, #6969	; 0x1b39
     a54:	0d0c0000 	stceq	0, cr0, [ip, #-0]
     a58:	3a0e0300 	bcc	381660 <__bss_end__+0x377630>
     a5c:	390b3b0b 	stmdbcc	fp, {r0, r1, r3, r8, r9, fp, ip, sp}
     a60:	0013490b 	andseq	r4, r3, fp, lsl #18
     a64:	01010d00 	tsteq	r1, r0, lsl #26
     a68:	13011349 	movwne	r1, #4937	; 0x1349
     a6c:	210e0000 	mrscs	r0, (UNDEF: 14)
     a70:	2f134900 	svccs	0x00134900
     a74:	0f00000b 	svceq	0x0000000b
     a78:	0b0b0113 	bleq	2c0ecc <__bss_end__+0x2b6e9c>
     a7c:	0b3b0b3a 	bleq	ec376c <__bss_end__+0xeb973c>
     a80:	13010b39 	movwne	r0, #6969	; 0x1b39
     a84:	0d100000 	ldceq	0, cr0, [r0, #-0]
     a88:	3a0e0300 	bcc	381690 <__bss_end__+0x377660>
     a8c:	390b3b0b 	stmdbcc	fp, {r0, r1, r3, r8, r9, fp, ip, sp}
     a90:	3813490b 	ldmdacc	r3, {r0, r1, r3, r8, fp, lr}
     a94:	1100000b 	tstne	r0, fp
     a98:	13490026 	movtne	r0, #36902	; 0x9026
     a9c:	13120000 	tstne	r2, #0
     aa0:	0b0e0301 	bleq	3816ac <__bss_end__+0x37767c>
     aa4:	3b0b3a0b 	blcc	2cf2d8 <__bss_end__+0x2c52a8>
     aa8:	010b390b 	tsteq	fp, fp, lsl #18
     aac:	13000013 	movwne	r0, #19
     ab0:	0803000d 	stmdaeq	r3, {r0, r2, r3}
     ab4:	0b3b0b3a 	bleq	ec37a4 <__bss_end__+0xeb9774>
     ab8:	13490b39 	movtne	r0, #39737	; 0x9b39
     abc:	00000b38 	andeq	r0, r0, r8, lsr fp
     ac0:	03011314 	movweq	r1, #4884	; 0x1314
     ac4:	3a050b0e 	bcc	143704 <__bss_end__+0x1396d4>
     ac8:	390b3b0b 	stmdbcc	fp, {r0, r1, r3, r8, r9, fp, ip, sp}
     acc:	0013010b 	andseq	r0, r3, fp, lsl #2
     ad0:	000d1500 	andeq	r1, sp, r0, lsl #10
     ad4:	0b3a0e03 	bleq	e842e8 <__bss_end__+0xe7a2b8>
     ad8:	0b390b3b 	bleq	e437cc <__bss_end__+0xe3979c>
     adc:	05381349 	ldreq	r1, [r8, #-841]!	; 0xfffffcb7
     ae0:	15160000 	ldrne	r0, [r6, #-0]
     ae4:	00192700 	andseq	r2, r9, r0, lsl #14
     ae8:	01151700 	tsteq	r5, r0, lsl #14
     aec:	13491927 	movtne	r1, #39207	; 0x9927
     af0:	00001301 	andeq	r1, r0, r1, lsl #6
     af4:	49000518 	stmdbmi	r0, {r3, r4, r8, sl}
     af8:	19000013 	stmdbne	r0, {r0, r1, r4}
     afc:	0e030113 	mcreq	1, 0, r0, cr3, cr3, {0}
     b00:	0b3a050b 	bleq	e81f34 <__bss_end__+0xe77f04>
     b04:	0b39053b 	bleq	e41ff8 <__bss_end__+0xe37fc8>
     b08:	00001301 	andeq	r1, r0, r1, lsl #6
     b0c:	03000d1a 	movweq	r0, #3354	; 0xd1a
     b10:	3b0b3a0e 	blcc	2cf350 <__bss_end__+0x2c5320>
     b14:	490b3905 	stmdbmi	fp, {r0, r2, r8, fp, ip, sp}
     b18:	000b3813 	andeq	r3, fp, r3, lsl r8
     b1c:	000d1b00 	andeq	r1, sp, r0, lsl #22
     b20:	0b3a0e03 	bleq	e84334 <__bss_end__+0xe7a304>
     b24:	0b39053b 	bleq	e42018 <__bss_end__+0xe37fe8>
     b28:	05381349 	ldreq	r1, [r8, #-841]!	; 0xfffffcb7
     b2c:	131c0000 	tstne	ip, #0
     b30:	0b0e0301 	bleq	38173c <__bss_end__+0x37770c>
     b34:	3b0b3a0b 	blcc	2cf368 <__bss_end__+0x2c5338>
     b38:	010b3905 	tsteq	fp, r5, lsl #18
     b3c:	1d000013 	stcne	0, cr0, [r0, #-76]	; 0xffffffb4
     b40:	0b0b0113 	bleq	2c0f94 <__bss_end__+0x2b6f64>
     b44:	053b0b3a 	ldreq	r0, [fp, #-2874]!	; 0xfffff4c6
     b48:	13010b39 	movwne	r0, #6969	; 0x1b39
     b4c:	171e0000 	ldrne	r0, [lr, -r0]
     b50:	3a0b0b01 	bcc	2c375c <__bss_end__+0x2b972c>
     b54:	39053b0b 	stmdbcc	r5, {r0, r1, r3, r8, r9, fp, ip, sp}
     b58:	0013010b 	andseq	r0, r3, fp, lsl #2
     b5c:	000d1f00 	andeq	r1, sp, r0, lsl #30
     b60:	0b3a0e03 	bleq	e84374 <__bss_end__+0xe7a344>
     b64:	0b39053b 	bleq	e42058 <__bss_end__+0xe38028>
     b68:	00001349 	andeq	r1, r0, r9, asr #6
     b6c:	27011520 	strcs	r1, [r1, -r0, lsr #10]
     b70:	00130119 	andseq	r0, r3, r9, lsl r1
     b74:	00342100 	eorseq	r2, r4, r0, lsl #2
     b78:	0b3a0e03 	bleq	e8438c <__bss_end__+0xe7a35c>
     b7c:	0b39053b 	bleq	e42070 <__bss_end__+0xe38040>
     b80:	193f1349 	ldmdbne	pc!, {r0, r3, r6, r8, r9, ip}	; <UNPREDICTABLE>
     b84:	0000193c 	andeq	r1, r0, ip, lsr r9
     b88:	03003422 	movweq	r3, #1058	; 0x422
     b8c:	3b0b3a0e 	blcc	2cf3cc <__bss_end__+0x2c539c>
     b90:	490b390b 	stmdbmi	fp, {r0, r1, r3, r8, fp, ip, sp}
     b94:	3c193f13 	ldccc	15, cr3, [r9], {19}
     b98:	23000019 	movwcs	r0, #25
     b9c:	193f012e 	ldmdbne	pc!, {r1, r2, r3, r5, r8}	; <UNPREDICTABLE>
     ba0:	0b3a0e03 	bleq	e843b4 <__bss_end__+0xe7a384>
     ba4:	0b390b3b 	bleq	e43898 <__bss_end__+0xe39868>
     ba8:	13491927 	movtne	r1, #39207	; 0x9927
     bac:	06120111 			; <UNDEFINED> instruction: 0x06120111
     bb0:	42971840 	addsmi	r1, r7, #64, 16	; 0x400000
     bb4:	00130119 	andseq	r0, r3, r9, lsl r1
     bb8:	00052400 	andeq	r2, r5, r0, lsl #8
     bbc:	0b3a0803 	bleq	e82bd0 <__bss_end__+0xe78ba0>
     bc0:	0b390b3b 	bleq	e438b4 <__bss_end__+0xe39884>
     bc4:	18021349 	stmdane	r2, {r0, r3, r6, r8, r9, ip}
     bc8:	18250000 	stmdane	r5!, {}	; <UNPREDICTABLE>
     bcc:	26000000 	strcs	r0, [r0], -r0
     bd0:	08030034 	stmdaeq	r3, {r2, r4, r5}
     bd4:	0b3b0b3a 	bleq	ec38c4 <__bss_end__+0xeb9894>
     bd8:	13490b39 	movtne	r0, #39737	; 0x9b39
     bdc:	00001802 	andeq	r1, r0, r2, lsl #16
     be0:	03003427 	movweq	r3, #1063	; 0x427
     be4:	3b0b3a0e 	blcc	2cf424 <__bss_end__+0x2c53f4>
     be8:	490b390b 	stmdbmi	fp, {r0, r1, r3, r8, fp, ip, sp}
     bec:	00180213 	andseq	r0, r8, r3, lsl r2
     bf0:	00342800 	eorseq	r2, r4, r0, lsl #16
     bf4:	0b3a0803 	bleq	e82c08 <__bss_end__+0xe78bd8>
     bf8:	0b390b3b 	bleq	e438ec <__bss_end__+0xe398bc>
     bfc:	17021349 	strne	r1, [r2, -r9, asr #6]
     c00:	001742b7 			; <UNDEFINED> instruction: 0x001742b7
     c04:	82892900 	addhi	r2, r9, #0, 18
     c08:	01110101 	tsteq	r1, r1, lsl #2
     c0c:	13011331 	movwne	r1, #4913	; 0x1331
     c10:	8a2a0000 	bhi	a80c18 <__bss_end__+0xa76be8>
     c14:	02000182 	andeq	r0, r0, #-2147483616	; 0x80000020
     c18:	18429118 	stmdane	r2, {r3, r4, r8, ip, pc}^
     c1c:	892b0000 	stmdbhi	fp!, {}	; <UNPREDICTABLE>
     c20:	11010182 	smlabbne	r1, r2, r1, r0
     c24:	2c000001 	stccs	0, cr0, [r0], {1}
     c28:	13490021 	movtne	r0, #36897	; 0x9021
     c2c:	0000052f 	andeq	r0, r0, pc, lsr #10
     c30:	3f002e2d 	svccc	0x00002e2d
     c34:	6e193c19 	mrcvs	12, 0, r3, cr9, cr9, {0}
     c38:	3a0e030e 	bcc	381878 <__bss_end__+0x377848>
     c3c:	390b3b0b 	stmdbcc	fp, {r0, r1, r3, r8, r9, fp, ip, sp}
     c40:	0000000b 	andeq	r0, r0, fp
     c44:	25011101 	strcs	r1, [r1, #-257]	; 0xfffffeff
     c48:	030b130e 	movweq	r1, #45838	; 0xb30e
     c4c:	110e1b0e 	tstne	lr, lr, lsl #22
     c50:	10061201 	andne	r1, r6, r1, lsl #4
     c54:	02000017 	andeq	r0, r0, #23
     c58:	0b0b0024 	bleq	2c0cf0 <__bss_end__+0x2b6cc0>
     c5c:	08030b3e 	stmdaeq	r3, {r1, r2, r3, r4, r5, r8, r9, fp}
     c60:	24030000 	strcs	r0, [r3], #-0
     c64:	3e0b0b00 	vmlacc.f64	d0, d11, d0
     c68:	000e030b 	andeq	r0, lr, fp, lsl #6
     c6c:	00160400 	andseq	r0, r6, r0, lsl #8
     c70:	0b3a0e03 	bleq	e84484 <__bss_end__+0xe7a454>
     c74:	0b390b3b 	bleq	e43968 <__bss_end__+0xe39938>
     c78:	00001349 	andeq	r1, r0, r9, asr #6
     c7c:	0b000f05 	bleq	4898 <_start-0x3768>
     c80:	0013490b 	andseq	r4, r3, fp, lsl #18
     c84:	00130600 	andseq	r0, r3, r0, lsl #12
     c88:	193c0e03 	ldmdbne	ip!, {r0, r1, r9, sl, fp}
     c8c:	16070000 	strne	r0, [r7], -r0
     c90:	3a0e0300 	bcc	381898 <__bss_end__+0x377868>
     c94:	39053b0b 	stmdbcc	r5, {r0, r1, r3, r8, r9, fp, ip, sp}
     c98:	0013490b 	andseq	r4, r3, fp, lsl #18
     c9c:	01170800 	tsteq	r7, r0, lsl #16
     ca0:	0b3a0b0b 	bleq	e838d4 <__bss_end__+0xe798a4>
     ca4:	0b390b3b 	bleq	e43998 <__bss_end__+0xe39968>
     ca8:	00001301 	andeq	r1, r0, r1, lsl #6
     cac:	03000d09 	movweq	r0, #3337	; 0xd09
     cb0:	3b0b3a0e 	blcc	2cf4f0 <__bss_end__+0x2c54c0>
     cb4:	490b390b 	stmdbmi	fp, {r0, r1, r3, r8, fp, ip, sp}
     cb8:	0a000013 	beq	d0c <_start-0x72f4>
     cbc:	13490101 	movtne	r0, #37121	; 0x9101
     cc0:	00001301 	andeq	r1, r0, r1, lsl #6
     cc4:	4900210b 	stmdbmi	r0, {r0, r1, r3, r8, sp}
     cc8:	000b2f13 	andeq	r2, fp, r3, lsl pc
     ccc:	01130c00 	tsteq	r3, r0, lsl #24
     cd0:	0b3a0b0b 	bleq	e83904 <__bss_end__+0xe798d4>
     cd4:	0b390b3b 	bleq	e439c8 <__bss_end__+0xe39998>
     cd8:	00001301 	andeq	r1, r0, r1, lsl #6
     cdc:	03000d0d 	movweq	r0, #3341	; 0xd0d
     ce0:	3b0b3a0e 	blcc	2cf520 <__bss_end__+0x2c54f0>
     ce4:	490b390b 	stmdbmi	fp, {r0, r1, r3, r8, fp, ip, sp}
     ce8:	000b3813 	andeq	r3, fp, r3, lsl r8
     cec:	000f0e00 	andeq	r0, pc, r0, lsl #28
     cf0:	00000b0b 	andeq	r0, r0, fp, lsl #22
     cf4:	4900260f 	stmdbmi	r0, {r0, r1, r2, r3, r9, sl, sp}
     cf8:	10000013 	andne	r0, r0, r3, lsl r0
     cfc:	0e030113 	mcreq	1, 0, r0, cr3, cr3, {0}
     d00:	0b3a0b0b 	bleq	e83934 <__bss_end__+0xe79904>
     d04:	0b390b3b 	bleq	e439f8 <__bss_end__+0xe399c8>
     d08:	00001301 	andeq	r1, r0, r1, lsl #6
     d0c:	03000d11 	movweq	r0, #3345	; 0xd11
     d10:	3b0b3a08 	blcc	2cf538 <__bss_end__+0x2c5508>
     d14:	490b390b 	stmdbmi	fp, {r0, r1, r3, r8, fp, ip, sp}
     d18:	000b3813 	andeq	r3, fp, r3, lsl r8
     d1c:	01131200 	tsteq	r3, r0, lsl #4
     d20:	050b0e03 	streq	r0, [fp, #-3587]	; 0xfffff1fd
     d24:	0b3b0b3a 	bleq	ec3a14 <__bss_end__+0xeb99e4>
     d28:	13010b39 	movwne	r0, #6969	; 0x1b39
     d2c:	0d130000 	ldceq	0, cr0, [r3, #-0]
     d30:	3a0e0300 	bcc	381938 <__bss_end__+0x377908>
     d34:	390b3b0b 	stmdbcc	fp, {r0, r1, r3, r8, r9, fp, ip, sp}
     d38:	3813490b 	ldmdacc	r3, {r0, r1, r3, r8, fp, lr}
     d3c:	14000005 	strne	r0, [r0], #-5
     d40:	19270015 	stmdbne	r7!, {r0, r2, r4}
     d44:	15150000 	ldrne	r0, [r5, #-0]
     d48:	49192701 	ldmdbmi	r9, {r0, r8, r9, sl, sp}
     d4c:	00130113 	andseq	r0, r3, r3, lsl r1
     d50:	00051600 	andeq	r1, r5, r0, lsl #12
     d54:	00001349 	andeq	r1, r0, r9, asr #6
     d58:	03011317 	movweq	r1, #4887	; 0x1317
     d5c:	3a050b0e 	bcc	14399c <__bss_end__+0x13996c>
     d60:	39053b0b 	stmdbcc	r5, {r0, r1, r3, r8, r9, fp, ip, sp}
     d64:	0013010b 	andseq	r0, r3, fp, lsl #2
     d68:	000d1800 	andeq	r1, sp, r0, lsl #16
     d6c:	0b3a0e03 	bleq	e84580 <__bss_end__+0xe7a550>
     d70:	0b39053b 	bleq	e42264 <__bss_end__+0xe38234>
     d74:	0b381349 	bleq	e05aa0 <__bss_end__+0xdfba70>
     d78:	0d190000 	ldceq	0, cr0, [r9, #-0]
     d7c:	3a0e0300 	bcc	381984 <__bss_end__+0x377954>
     d80:	39053b0b 	stmdbcc	r5, {r0, r1, r3, r8, r9, fp, ip, sp}
     d84:	3813490b 	ldmdacc	r3, {r0, r1, r3, r8, fp, lr}
     d88:	1a000005 	bne	da4 <_start-0x725c>
     d8c:	0e030113 	mcreq	1, 0, r0, cr3, cr3, {0}
     d90:	0b3a0b0b 	bleq	e839c4 <__bss_end__+0xe79994>
     d94:	0b39053b 	bleq	e42288 <__bss_end__+0xe38258>
     d98:	00001301 	andeq	r1, r0, r1, lsl #6
     d9c:	0b01131b 	bleq	45a10 <__bss_end__+0x3b9e0>
     da0:	3b0b3a0b 	blcc	2cf5d4 <__bss_end__+0x2c55a4>
     da4:	010b3905 	tsteq	fp, r5, lsl #18
     da8:	1c000013 	stcne	0, cr0, [r0], {19}
     dac:	0b0b0117 	bleq	2c1210 <__bss_end__+0x2b71e0>
     db0:	053b0b3a 	ldreq	r0, [fp, #-2874]!	; 0xfffff4c6
     db4:	13010b39 	movwne	r0, #6969	; 0x1b39
     db8:	0d1d0000 	ldceq	0, cr0, [sp, #-0]
     dbc:	3a0e0300 	bcc	3819c4 <__bss_end__+0x377994>
     dc0:	39053b0b 	stmdbcc	r5, {r0, r1, r3, r8, r9, fp, ip, sp}
     dc4:	0013490b 	andseq	r4, r3, fp, lsl #18
     dc8:	01151e00 	tsteq	r5, r0, lsl #28
     dcc:	13011927 	movwne	r1, #6439	; 0x1927
     dd0:	341f0000 	ldrcc	r0, [pc], #-0	; dd8 <_start-0x7228>
     dd4:	3a0e0300 	bcc	3819dc <__bss_end__+0x3779ac>
     dd8:	39053b0b 	stmdbcc	r5, {r0, r1, r3, r8, r9, fp, ip, sp}
     ddc:	3f13490b 	svccc	0x0013490b
     de0:	00193c19 	andseq	r3, r9, r9, lsl ip
     de4:	00342000 	eorseq	r2, r4, r0
     de8:	0b3a0e03 	bleq	e845fc <__bss_end__+0xe7a5cc>
     dec:	0b390b3b 	bleq	e43ae0 <__bss_end__+0xe39ab0>
     df0:	193f1349 	ldmdbne	pc!, {r0, r3, r6, r8, r9, ip}	; <UNPREDICTABLE>
     df4:	0000193c 	andeq	r1, r0, ip, lsr r9
     df8:	47003421 	strmi	r3, [r0, -r1, lsr #8]
     dfc:	3b0b3a13 	blcc	2cf650 <__bss_end__+0x2c5620>
     e00:	020b390b 	andeq	r3, fp, #180224	; 0x2c000
     e04:	22000018 	andcs	r0, r0, #24
     e08:	193f012e 	ldmdbne	pc!, {r1, r2, r3, r5, r8}	; <UNPREDICTABLE>
     e0c:	0b3a0e03 	bleq	e84620 <__bss_end__+0xe7a5f0>
     e10:	0b390b3b 	bleq	e43b04 <__bss_end__+0xe39ad4>
     e14:	01111927 	tsteq	r1, r7, lsr #18
     e18:	18400612 	stmdane	r0, {r1, r4, r9, sl}^
     e1c:	01194297 			; <UNDEFINED> instruction: 0x01194297
     e20:	23000013 	movwcs	r0, #19
     e24:	08030005 	stmdaeq	r3, {r0, r2}
     e28:	0b3b0b3a 	bleq	ec3b18 <__bss_end__+0xeb9ae8>
     e2c:	13490b39 	movtne	r0, #39737	; 0x9b39
     e30:	00001802 	andeq	r1, r0, r2, lsl #16
     e34:	3f002e24 	svccc	0x00002e24
     e38:	3a0e0319 	bcc	381aa4 <__bss_end__+0x377a74>
     e3c:	390b3b0b 	stmdbcc	fp, {r0, r1, r3, r8, r9, fp, ip, sp}
     e40:	1119270b 	tstne	r9, fp, lsl #14
     e44:	40061201 	andmi	r1, r6, r1, lsl #4
     e48:	19429718 	stmdbne	r2, {r3, r4, r8, r9, sl, ip, pc}^
     e4c:	2e250000 	cdpcs	0, 2, cr0, cr5, cr0, {0}
     e50:	3a0e0301 	bcc	381a5c <__bss_end__+0x377a2c>
     e54:	390b3b0b 	stmdbcc	fp, {r0, r1, r3, r8, r9, fp, ip, sp}
     e58:	4919270b 	ldmdbmi	r9, {r0, r1, r3, r8, r9, sl, sp}
     e5c:	12011113 	andne	r1, r1, #-1073741820	; 0xc0000004
     e60:	97184006 	ldrls	r4, [r8, -r6]
     e64:	13011942 	movwne	r1, #6466	; 0x1942
     e68:	05260000 	streq	r0, [r6, #-0]!
     e6c:	3a080300 	bcc	201a74 <__bss_end__+0x1f7a44>
     e70:	390b3b0b 	stmdbcc	fp, {r0, r1, r3, r8, r9, fp, ip, sp}
     e74:	0213490b 	andseq	r4, r3, #180224	; 0x2c000
     e78:	1742b717 	smlaldne	fp, r2, r7, r7
     e7c:	89270000 	stmdbhi	r7!, {}	; <UNPREDICTABLE>
     e80:	11010182 	smlabbne	r1, r2, r1, r0
     e84:	00133101 	andseq	r3, r3, r1, lsl #2
     e88:	828a2800 	addhi	r2, sl, #0, 16
     e8c:	18020001 	stmdane	r2, {r0}
     e90:	00184291 	mulseq	r8, r1, r2
     e94:	002e2900 	eoreq	r2, lr, r0, lsl #18
     e98:	193c193f 	ldmdbne	ip!, {r0, r1, r2, r3, r4, r5, r8, fp, ip}
     e9c:	0e030e6e 	cdpeq	14, 0, cr0, cr3, cr14, {3}
     ea0:	0b3b0b3a 	bleq	ec3b90 <__bss_end__+0xeb9b60>
     ea4:	00000b39 	andeq	r0, r0, r9, lsr fp
     ea8:	01110100 	tsteq	r1, r0, lsl #2
     eac:	0b130e25 	bleq	4c4748 <__bss_end__+0x4ba718>
     eb0:	0e1b0e03 	cdpeq	14, 1, cr0, cr11, cr3, {0}
     eb4:	06120111 			; <UNDEFINED> instruction: 0x06120111
     eb8:	00001710 	andeq	r1, r0, r0, lsl r7
     ebc:	0b002402 	bleq	9ecc <buf.4297+0x29c>
     ec0:	030b3e0b 	movweq	r3, #48651	; 0xbe0b
     ec4:	03000008 	movweq	r0, #8
     ec8:	0b0b0024 	bleq	2c0f60 <__bss_end__+0x2b6f30>
     ecc:	0e030b3e 	vmoveq.16	d3[0], r0
     ed0:	16040000 	strne	r0, [r4], -r0
     ed4:	3a0e0300 	bcc	381adc <__bss_end__+0x377aac>
     ed8:	390b3b0b 	stmdbcc	fp, {r0, r1, r3, r8, r9, fp, ip, sp}
     edc:	0013490b 	andseq	r4, r3, fp, lsl #18
     ee0:	000f0500 	andeq	r0, pc, r0, lsl #10
     ee4:	13490b0b 	movtne	r0, #39691	; 0x9b0b
     ee8:	13060000 	movwne	r0, #24576	; 0x6000
     eec:	3c0e0300 	stccc	3, cr0, [lr], {-0}
     ef0:	07000019 	smladeq	r0, r9, r0, r0
     ef4:	0e030016 	mcreq	0, 0, r0, cr3, cr6, {0}
     ef8:	053b0b3a 	ldreq	r0, [fp, #-2874]!	; 0xfffff4c6
     efc:	13490b39 	movtne	r0, #39737	; 0x9b39
     f00:	17080000 	strne	r0, [r8, -r0]
     f04:	3a0b0b01 	bcc	2c3b10 <__bss_end__+0x2b9ae0>
     f08:	390b3b0b 	stmdbcc	fp, {r0, r1, r3, r8, r9, fp, ip, sp}
     f0c:	0013010b 	andseq	r0, r3, fp, lsl #2
     f10:	000d0900 	andeq	r0, sp, r0, lsl #18
     f14:	0b3a0e03 	bleq	e84728 <__bss_end__+0xe7a6f8>
     f18:	0b390b3b 	bleq	e43c0c <__bss_end__+0xe39bdc>
     f1c:	00001349 	andeq	r1, r0, r9, asr #6
     f20:	4901010a 	stmdbmi	r1, {r1, r3, r8}
     f24:	00130113 	andseq	r0, r3, r3, lsl r1
     f28:	00210b00 	eoreq	r0, r1, r0, lsl #22
     f2c:	0b2f1349 	bleq	bc5c58 <__bss_end__+0xbbbc28>
     f30:	130c0000 	movwne	r0, #49152	; 0xc000
     f34:	3a0b0b01 	bcc	2c3b40 <__bss_end__+0x2b9b10>
     f38:	390b3b0b 	stmdbcc	fp, {r0, r1, r3, r8, r9, fp, ip, sp}
     f3c:	0013010b 	andseq	r0, r3, fp, lsl #2
     f40:	000d0d00 	andeq	r0, sp, r0, lsl #26
     f44:	0b3a0e03 	bleq	e84758 <__bss_end__+0xe7a728>
     f48:	0b390b3b 	bleq	e43c3c <__bss_end__+0xe39c0c>
     f4c:	0b381349 	bleq	e05c78 <__bss_end__+0xdfbc48>
     f50:	0f0e0000 	svceq	0x000e0000
     f54:	000b0b00 	andeq	r0, fp, r0, lsl #22
     f58:	00260f00 	eoreq	r0, r6, r0, lsl #30
     f5c:	00001349 	andeq	r1, r0, r9, asr #6
     f60:	03011310 	movweq	r1, #4880	; 0x1310
     f64:	3a0b0b0e 	bcc	2c3ba4 <__bss_end__+0x2b9b74>
     f68:	390b3b0b 	stmdbcc	fp, {r0, r1, r3, r8, r9, fp, ip, sp}
     f6c:	0013010b 	andseq	r0, r3, fp, lsl #2
     f70:	000d1100 	andeq	r1, sp, r0, lsl #2
     f74:	0b3a0803 	bleq	e82f88 <__bss_end__+0xe78f58>
     f78:	0b390b3b 	bleq	e43c6c <__bss_end__+0xe39c3c>
     f7c:	0b381349 	bleq	e05ca8 <__bss_end__+0xdfbc78>
     f80:	13120000 	tstne	r2, #0
     f84:	0b0e0301 	bleq	381b90 <__bss_end__+0x377b60>
     f88:	3b0b3a05 	blcc	2cf7a4 <__bss_end__+0x2c5774>
     f8c:	010b390b 	tsteq	fp, fp, lsl #18
     f90:	13000013 	movwne	r0, #19
     f94:	0e03000d 	cdpeq	0, 0, cr0, cr3, cr13, {0}
     f98:	0b3b0b3a 	bleq	ec3c88 <__bss_end__+0xeb9c58>
     f9c:	13490b39 	movtne	r0, #39737	; 0x9b39
     fa0:	00000538 	andeq	r0, r0, r8, lsr r5
     fa4:	27001514 	smladcs	r0, r4, r5, r1
     fa8:	15000019 	strne	r0, [r0, #-25]	; 0xffffffe7
     fac:	19270115 	stmdbne	r7!, {r0, r2, r4, r8}
     fb0:	13011349 	movwne	r1, #4937	; 0x1349
     fb4:	05160000 	ldreq	r0, [r6, #-0]
     fb8:	00134900 	andseq	r4, r3, r0, lsl #18
     fbc:	01131700 	tsteq	r3, r0, lsl #14
     fc0:	050b0e03 	streq	r0, [fp, #-3587]	; 0xfffff1fd
     fc4:	053b0b3a 	ldreq	r0, [fp, #-2874]!	; 0xfffff4c6
     fc8:	13010b39 	movwne	r0, #6969	; 0x1b39
     fcc:	0d180000 	ldceq	0, cr0, [r8, #-0]
     fd0:	3a0e0300 	bcc	381bd8 <__bss_end__+0x377ba8>
     fd4:	39053b0b 	stmdbcc	r5, {r0, r1, r3, r8, r9, fp, ip, sp}
     fd8:	3813490b 	ldmdacc	r3, {r0, r1, r3, r8, fp, lr}
     fdc:	1900000b 	stmdbne	r0, {r0, r1, r3}
     fe0:	0e03000d 	cdpeq	0, 0, cr0, cr3, cr13, {0}
     fe4:	053b0b3a 	ldreq	r0, [fp, #-2874]!	; 0xfffff4c6
     fe8:	13490b39 	movtne	r0, #39737	; 0x9b39
     fec:	00000538 	andeq	r0, r0, r8, lsr r5
     ff0:	0301131a 	movweq	r1, #4890	; 0x131a
     ff4:	3a0b0b0e 	bcc	2c3c34 <__bss_end__+0x2b9c04>
     ff8:	39053b0b 	stmdbcc	r5, {r0, r1, r3, r8, r9, fp, ip, sp}
     ffc:	0013010b 	andseq	r0, r3, fp, lsl #2
    1000:	01131b00 	tsteq	r3, r0, lsl #22
    1004:	0b3a0b0b 	bleq	e83c38 <__bss_end__+0xe79c08>
    1008:	0b39053b 	bleq	e424fc <__bss_end__+0xe384cc>
    100c:	00001301 	andeq	r1, r0, r1, lsl #6
    1010:	0b01171c 	bleq	46c88 <__bss_end__+0x3cc58>
    1014:	3b0b3a0b 	blcc	2cf848 <__bss_end__+0x2c5818>
    1018:	010b3905 	tsteq	fp, r5, lsl #18
    101c:	1d000013 	stcne	0, cr0, [r0, #-76]	; 0xffffffb4
    1020:	0e03000d 	cdpeq	0, 0, cr0, cr3, cr13, {0}
    1024:	053b0b3a 	ldreq	r0, [fp, #-2874]!	; 0xfffff4c6
    1028:	13490b39 	movtne	r0, #39737	; 0x9b39
    102c:	151e0000 	ldrne	r0, [lr, #-0]
    1030:	01192701 	tsteq	r9, r1, lsl #14
    1034:	1f000013 	svcne	0x00000013
    1038:	0e030034 	mcreq	0, 0, r0, cr3, cr4, {1}
    103c:	053b0b3a 	ldreq	r0, [fp, #-2874]!	; 0xfffff4c6
    1040:	13490b39 	movtne	r0, #39737	; 0x9b39
    1044:	193c193f 	ldmdbne	ip!, {r0, r1, r2, r3, r4, r5, r8, fp, ip}
    1048:	34200000 	strtcc	r0, [r0], #-0
    104c:	3a0e0300 	bcc	381c54 <__bss_end__+0x377c24>
    1050:	390b3b0b 	stmdbcc	fp, {r0, r1, r3, r8, r9, fp, ip, sp}
    1054:	3f13490b 	svccc	0x0013490b
    1058:	00193c19 	andseq	r3, r9, r9, lsl ip
    105c:	00342100 	eorseq	r2, r4, r0, lsl #2
    1060:	0b3a1347 	bleq	e85d84 <__bss_end__+0xe7bd54>
    1064:	0b390b3b 	bleq	e43d58 <__bss_end__+0xe39d28>
    1068:	00001802 	andeq	r1, r0, r2, lsl #16
    106c:	3f012e22 	svccc	0x00012e22
    1070:	3a0e0319 	bcc	381cdc <__bss_end__+0x377cac>
    1074:	390b3b0b 	stmdbcc	fp, {r0, r1, r3, r8, r9, fp, ip, sp}
    1078:	4919270b 	ldmdbmi	r9, {r0, r1, r3, r8, r9, sl, sp}
    107c:	12011113 	andne	r1, r1, #-1073741820	; 0xc0000004
    1080:	96184006 	ldrls	r4, [r8], -r6
    1084:	00001942 	andeq	r1, r0, r2, asr #18
    1088:	03000523 	movweq	r0, #1315	; 0x523
    108c:	3b0b3a08 	blcc	2cf8b4 <__bss_end__+0x2c5884>
    1090:	490b390b 	stmdbmi	fp, {r0, r1, r3, r8, fp, ip, sp}
    1094:	b7170213 			; <UNDEFINED> instruction: 0xb7170213
    1098:	00001742 	andeq	r1, r0, r2, asr #14
    109c:	01110100 	tsteq	r1, r0, lsl #2
    10a0:	0b130e25 	bleq	4c493c <__bss_end__+0x4ba90c>
    10a4:	0e1b0e03 	cdpeq	14, 1, cr0, cr11, cr3, {0}
    10a8:	06120111 			; <UNDEFINED> instruction: 0x06120111
    10ac:	00001710 	andeq	r1, r0, r0, lsl r7
    10b0:	0b002402 	bleq	a0c0 <__bss_end__+0x90>
    10b4:	030b3e0b 	movweq	r3, #48651	; 0xbe0b
    10b8:	03000008 	movweq	r0, #8
    10bc:	0b0b0024 	bleq	2c1154 <__bss_end__+0x2b7124>
    10c0:	0e030b3e 	vmoveq.16	d3[0], r0
    10c4:	16040000 	strne	r0, [r4], -r0
    10c8:	3a0e0300 	bcc	381cd0 <__bss_end__+0x377ca0>
    10cc:	390b3b0b 	stmdbcc	fp, {r0, r1, r3, r8, r9, fp, ip, sp}
    10d0:	0013490b 	andseq	r4, r3, fp, lsl #18
    10d4:	000f0500 	andeq	r0, pc, r0, lsl #10
    10d8:	13490b0b 	movtne	r0, #39691	; 0x9b0b
    10dc:	13060000 	movwne	r0, #24576	; 0x6000
    10e0:	3c0e0300 	stccc	3, cr0, [lr], {-0}
    10e4:	07000019 	smladeq	r0, r9, r0, r0
    10e8:	0e030016 	mcreq	0, 0, r0, cr3, cr6, {0}
    10ec:	053b0b3a 	ldreq	r0, [fp, #-2874]!	; 0xfffff4c6
    10f0:	13490b39 	movtne	r0, #39737	; 0x9b39
    10f4:	17080000 	strne	r0, [r8, -r0]
    10f8:	3a0b0b01 	bcc	2c3d04 <__bss_end__+0x2b9cd4>
    10fc:	390b3b0b 	stmdbcc	fp, {r0, r1, r3, r8, r9, fp, ip, sp}
    1100:	0013010b 	andseq	r0, r3, fp, lsl #2
    1104:	000d0900 	andeq	r0, sp, r0, lsl #18
    1108:	0b3a0e03 	bleq	e8491c <__bss_end__+0xe7a8ec>
    110c:	0b390b3b 	bleq	e43e00 <__bss_end__+0xe39dd0>
    1110:	00001349 	andeq	r1, r0, r9, asr #6
    1114:	4901010a 	stmdbmi	r1, {r1, r3, r8}
    1118:	00130113 	andseq	r0, r3, r3, lsl r1
    111c:	00210b00 	eoreq	r0, r1, r0, lsl #22
    1120:	0b2f1349 	bleq	bc5e4c <__bss_end__+0xbbbe1c>
    1124:	130c0000 	movwne	r0, #49152	; 0xc000
    1128:	3a0b0b01 	bcc	2c3d34 <__bss_end__+0x2b9d04>
    112c:	390b3b0b 	stmdbcc	fp, {r0, r1, r3, r8, r9, fp, ip, sp}
    1130:	0013010b 	andseq	r0, r3, fp, lsl #2
    1134:	000d0d00 	andeq	r0, sp, r0, lsl #26
    1138:	0b3a0e03 	bleq	e8494c <__bss_end__+0xe7a91c>
    113c:	0b390b3b 	bleq	e43e30 <__bss_end__+0xe39e00>
    1140:	0b381349 	bleq	e05e6c <__bss_end__+0xdfbe3c>
    1144:	0f0e0000 	svceq	0x000e0000
    1148:	000b0b00 	andeq	r0, fp, r0, lsl #22
    114c:	00260f00 	eoreq	r0, r6, r0, lsl #30
    1150:	00001349 	andeq	r1, r0, r9, asr #6
    1154:	03011310 	movweq	r1, #4880	; 0x1310
    1158:	3a0b0b0e 	bcc	2c3d98 <__bss_end__+0x2b9d68>
    115c:	390b3b0b 	stmdbcc	fp, {r0, r1, r3, r8, r9, fp, ip, sp}
    1160:	0013010b 	andseq	r0, r3, fp, lsl #2
    1164:	000d1100 	andeq	r1, sp, r0, lsl #2
    1168:	0b3a0803 	bleq	e8317c <__bss_end__+0xe7914c>
    116c:	0b390b3b 	bleq	e43e60 <__bss_end__+0xe39e30>
    1170:	0b381349 	bleq	e05e9c <__bss_end__+0xdfbe6c>
    1174:	13120000 	tstne	r2, #0
    1178:	0b0e0301 	bleq	381d84 <__bss_end__+0x377d54>
    117c:	3b0b3a05 	blcc	2cf998 <__bss_end__+0x2c5968>
    1180:	010b390b 	tsteq	fp, fp, lsl #18
    1184:	13000013 	movwne	r0, #19
    1188:	0e03000d 	cdpeq	0, 0, cr0, cr3, cr13, {0}
    118c:	0b3b0b3a 	bleq	ec3e7c <__bss_end__+0xeb9e4c>
    1190:	13490b39 	movtne	r0, #39737	; 0x9b39
    1194:	00000538 	andeq	r0, r0, r8, lsr r5
    1198:	27001514 	smladcs	r0, r4, r5, r1
    119c:	15000019 	strne	r0, [r0, #-25]	; 0xffffffe7
    11a0:	19270115 	stmdbne	r7!, {r0, r2, r4, r8}
    11a4:	13011349 	movwne	r1, #4937	; 0x1349
    11a8:	05160000 	ldreq	r0, [r6, #-0]
    11ac:	00134900 	andseq	r4, r3, r0, lsl #18
    11b0:	01131700 	tsteq	r3, r0, lsl #14
    11b4:	050b0e03 	streq	r0, [fp, #-3587]	; 0xfffff1fd
    11b8:	053b0b3a 	ldreq	r0, [fp, #-2874]!	; 0xfffff4c6
    11bc:	13010b39 	movwne	r0, #6969	; 0x1b39
    11c0:	0d180000 	ldceq	0, cr0, [r8, #-0]
    11c4:	3a0e0300 	bcc	381dcc <__bss_end__+0x377d9c>
    11c8:	39053b0b 	stmdbcc	r5, {r0, r1, r3, r8, r9, fp, ip, sp}
    11cc:	3813490b 	ldmdacc	r3, {r0, r1, r3, r8, fp, lr}
    11d0:	1900000b 	stmdbne	r0, {r0, r1, r3}
    11d4:	0e03000d 	cdpeq	0, 0, cr0, cr3, cr13, {0}
    11d8:	053b0b3a 	ldreq	r0, [fp, #-2874]!	; 0xfffff4c6
    11dc:	13490b39 	movtne	r0, #39737	; 0x9b39
    11e0:	00000538 	andeq	r0, r0, r8, lsr r5
    11e4:	0301131a 	movweq	r1, #4890	; 0x131a
    11e8:	3a0b0b0e 	bcc	2c3e28 <__bss_end__+0x2b9df8>
    11ec:	39053b0b 	stmdbcc	r5, {r0, r1, r3, r8, r9, fp, ip, sp}
    11f0:	0013010b 	andseq	r0, r3, fp, lsl #2
    11f4:	01131b00 	tsteq	r3, r0, lsl #22
    11f8:	0b3a0b0b 	bleq	e83e2c <__bss_end__+0xe79dfc>
    11fc:	0b39053b 	bleq	e426f0 <__bss_end__+0xe386c0>
    1200:	00001301 	andeq	r1, r0, r1, lsl #6
    1204:	0b01171c 	bleq	46e7c <__bss_end__+0x3ce4c>
    1208:	3b0b3a0b 	blcc	2cfa3c <__bss_end__+0x2c5a0c>
    120c:	010b3905 	tsteq	fp, r5, lsl #18
    1210:	1d000013 	stcne	0, cr0, [r0, #-76]	; 0xffffffb4
    1214:	0e03000d 	cdpeq	0, 0, cr0, cr3, cr13, {0}
    1218:	053b0b3a 	ldreq	r0, [fp, #-2874]!	; 0xfffff4c6
    121c:	13490b39 	movtne	r0, #39737	; 0x9b39
    1220:	151e0000 	ldrne	r0, [lr, #-0]
    1224:	01192701 	tsteq	r9, r1, lsl #14
    1228:	1f000013 	svcne	0x00000013
    122c:	0e030034 	mcreq	0, 0, r0, cr3, cr4, {1}
    1230:	053b0b3a 	ldreq	r0, [fp, #-2874]!	; 0xfffff4c6
    1234:	13490b39 	movtne	r0, #39737	; 0x9b39
    1238:	193c193f 	ldmdbne	ip!, {r0, r1, r2, r3, r4, r5, r8, fp, ip}
    123c:	34200000 	strtcc	r0, [r0], #-0
    1240:	3a0e0300 	bcc	381e48 <__bss_end__+0x377e18>
    1244:	390b3b0b 	stmdbcc	fp, {r0, r1, r3, r8, r9, fp, ip, sp}
    1248:	3f13490b 	svccc	0x0013490b
    124c:	00193c19 	andseq	r3, r9, r9, lsl ip
    1250:	01132100 	tsteq	r3, r0, lsl #2
    1254:	0b0b0e03 	bleq	2c4a68 <__bss_end__+0x2baa38>
    1258:	0b3b0b3a 	bleq	ec3f48 <__bss_end__+0xeb9f18>
    125c:	00001301 	andeq	r1, r0, r1, lsl #6
    1260:	03000d22 	movweq	r0, #3362	; 0xd22
    1264:	3813490e 	ldmdacc	r3, {r1, r2, r3, r8, fp, lr}
    1268:	0019340b 	andseq	r3, r9, fp, lsl #8
    126c:	012e2300 			; <UNDEFINED> instruction: 0x012e2300
    1270:	0e03193f 			; <UNDEFINED> instruction: 0x0e03193f
    1274:	0b3b0b3a 	bleq	ec3f64 <__bss_end__+0xeb9f34>
    1278:	19270b39 	stmdbne	r7!, {r0, r3, r4, r5, r8, r9, fp}
    127c:	01111349 	tsteq	r1, r9, asr #6
    1280:	18400612 	stmdane	r0, {r1, r4, r9, sl}^
    1284:	01194297 			; <UNDEFINED> instruction: 0x01194297
    1288:	24000013 	strcs	r0, [r0], #-19	; 0xffffffed
    128c:	08030005 	stmdaeq	r3, {r0, r2}
    1290:	0b3b0b3a 	bleq	ec3f80 <__bss_end__+0xeb9f50>
    1294:	13490b39 	movtne	r0, #39737	; 0x9b39
    1298:	42b71702 	adcsmi	r1, r7, #524288	; 0x80000
    129c:	25000017 	strcs	r0, [r0, #-23]	; 0xffffffe9
    12a0:	0e030005 	cdpeq	0, 0, cr0, cr3, cr5, {0}
    12a4:	0b3b0b3a 	bleq	ec3f94 <__bss_end__+0xeb9f64>
    12a8:	13490b39 	movtne	r0, #39737	; 0x9b39
    12ac:	00001802 	andeq	r1, r0, r2, lsl #16
    12b0:	03003426 	movweq	r3, #1062	; 0x426
    12b4:	3b0b3a08 	blcc	2cfadc <__bss_end__+0x2c5aac>
    12b8:	490b390b 	stmdbmi	fp, {r0, r1, r3, r8, fp, ip, sp}
    12bc:	b7170213 			; <UNDEFINED> instruction: 0xb7170213
    12c0:	00001742 	andeq	r1, r0, r2, asr #14
    12c4:	03003427 	movweq	r3, #1063	; 0x427
    12c8:	3413490e 	ldrcc	r4, [r3], #-2318	; 0xfffff6f2
    12cc:	00180219 	andseq	r0, r8, r9, lsl r2
    12d0:	010b2800 	tsteq	fp, r0, lsl #16
    12d4:	06120111 			; <UNDEFINED> instruction: 0x06120111
    12d8:	34290000 	strtcc	r0, [r9], #-0
    12dc:	3a080300 	bcc	201ee4 <__bss_end__+0x1f7eb4>
    12e0:	390b3b0b 	stmdbcc	fp, {r0, r1, r3, r8, r9, fp, ip, sp}
    12e4:	0213490b 	andseq	r4, r3, #180224	; 0x2c000
    12e8:	2a000018 	bcs	1350 <_start-0x6cb0>
    12ec:	0e030034 	mcreq	0, 0, r0, cr3, cr4, {1}
    12f0:	0b3b0b3a 	bleq	ec3fe0 <__bss_end__+0xeb9fb0>
    12f4:	13490b39 	movtne	r0, #39737	; 0x9b39
    12f8:	42b71702 	adcsmi	r1, r7, #524288	; 0x80000
    12fc:	2b000017 	blcs	1360 <_start-0x6ca0>
    1300:	01018289 	smlabbeq	r1, r9, r2, r8
    1304:	13310111 	teqne	r1, #1073741828	; 0x40000004
    1308:	00001301 	andeq	r1, r0, r1, lsl #6
    130c:	01828a2c 	orreq	r8, r2, ip, lsr #20
    1310:	91180200 	tstls	r8, r0, lsl #4
    1314:	00001842 	andeq	r1, r0, r2, asr #16
    1318:	0182892d 	orreq	r8, r2, sp, lsr #18
    131c:	31011100 	mrscc	r1, (UNDEF: 17)
    1320:	2e000013 	mcrcs	0, 0, r0, cr0, cr3, {0}
    1324:	0e03012e 	adfeqsp	f0, f3, #0.5
    1328:	0b3b0b3a 	bleq	ec4018 <__bss_end__+0xeb9fe8>
    132c:	19270b39 	stmdbne	r7!, {r0, r3, r4, r5, r8, r9, fp}
    1330:	01111349 	tsteq	r1, r9, asr #6
    1334:	18400612 	stmdane	r0, {r1, r4, r9, sl}^
    1338:	01194297 			; <UNDEFINED> instruction: 0x01194297
    133c:	2f000013 	svccs	0x00000013
    1340:	0e030005 	cdpeq	0, 0, cr0, cr3, cr5, {0}
    1344:	0b3b0b3a 	bleq	ec4034 <__bss_end__+0xeba004>
    1348:	13490b39 	movtne	r0, #39737	; 0x9b39
    134c:	42b71702 	adcsmi	r1, r7, #524288	; 0x80000
    1350:	30000017 	andcc	r0, r0, r7, lsl r0
    1354:	0111010b 	tsteq	r1, fp, lsl #2
    1358:	13010612 	movwne	r0, #5650	; 0x1612
    135c:	2e310000 	cdpcs	0, 3, cr0, cr1, cr0, {0}
    1360:	3a080301 	bcc	201f6c <__bss_end__+0x1f7f3c>
    1364:	390b3b0b 	stmdbcc	fp, {r0, r1, r3, r8, r9, fp, ip, sp}
    1368:	4919270b 	ldmdbmi	r9, {r0, r1, r3, r8, r9, sl, sp}
    136c:	12011113 	andne	r1, r1, #-1073741820	; 0xc0000004
    1370:	97184006 	ldrls	r4, [r8, -r6]
    1374:	13011942 	movwne	r1, #6466	; 0x1942
    1378:	2e320000 	cdpcs	0, 3, cr0, cr2, cr0, {0}
    137c:	03193f01 	tsteq	r9, #1, 30
    1380:	3b0b3a0e 	blcc	2cfbc0 <__bss_end__+0x2c5b90>
    1384:	270b390b 	strcs	r3, [fp, -fp, lsl #18]
    1388:	12011119 	andne	r1, r1, #1073741830	; 0x40000006
    138c:	97184006 	ldrls	r4, [r8, -r6]
    1390:	13011942 	movwne	r1, #6466	; 0x1942
    1394:	2e330000 	cdpcs	0, 3, cr0, cr3, cr0, {0}
    1398:	3c193f00 	ldccc	15, cr3, [r9], {-0}
    139c:	030e6e19 	movweq	r6, #60953	; 0xee19
    13a0:	3b0b3a0e 	blcc	2cfbe0 <__bss_end__+0x2c5bb0>
    13a4:	000b390b 	andeq	r3, fp, fp, lsl #18
    13a8:	11010000 	mrsne	r0, (UNDEF: 1)
    13ac:	130e2501 	movwne	r2, #58625	; 0xe501
    13b0:	1b0e030b 	blne	381fe4 <__bss_end__+0x377fb4>
    13b4:	1201110e 	andne	r1, r1, #-2147483645	; 0x80000003
    13b8:	00171006 	andseq	r1, r7, r6
    13bc:	00240200 	eoreq	r0, r4, r0, lsl #4
    13c0:	0b3e0b0b 	bleq	f83ff4 <__bss_end__+0xf79fc4>
    13c4:	00000803 	andeq	r0, r0, r3, lsl #16
    13c8:	0b002403 	bleq	a3dc <__bss_end__+0x3ac>
    13cc:	030b3e0b 	movweq	r3, #48651	; 0xbe0b
    13d0:	0400000e 	streq	r0, [r0], #-14
    13d4:	0e030016 	mcreq	0, 0, r0, cr3, cr6, {0}
    13d8:	0b3b0b3a 	bleq	ec40c8 <__bss_end__+0xeba098>
    13dc:	13490b39 	movtne	r0, #39737	; 0x9b39
    13e0:	0f050000 	svceq	0x00050000
    13e4:	490b0b00 	stmdbmi	fp, {r8, r9, fp}
    13e8:	06000013 			; <UNDEFINED> instruction: 0x06000013
    13ec:	0e030013 	mcreq	0, 0, r0, cr3, cr3, {0}
    13f0:	0000193c 	andeq	r1, r0, ip, lsr r9
    13f4:	03001607 	movweq	r1, #1543	; 0x607
    13f8:	3b0b3a0e 	blcc	2cfc38 <__bss_end__+0x2c5c08>
    13fc:	490b3905 	stmdbmi	fp, {r0, r2, r8, fp, ip, sp}
    1400:	08000013 	stmdaeq	r0, {r0, r1, r4}
    1404:	0b0b0117 	bleq	2c1868 <__bss_end__+0x2b7838>
    1408:	0b3b0b3a 	bleq	ec40f8 <__bss_end__+0xeba0c8>
    140c:	13010b39 	movwne	r0, #6969	; 0x1b39
    1410:	0d090000 	stceq	0, cr0, [r9, #-0]
    1414:	3a0e0300 	bcc	38201c <__bss_end__+0x377fec>
    1418:	390b3b0b 	stmdbcc	fp, {r0, r1, r3, r8, r9, fp, ip, sp}
    141c:	0013490b 	andseq	r4, r3, fp, lsl #18
    1420:	01010a00 	tsteq	r1, r0, lsl #20
    1424:	13011349 	movwne	r1, #4937	; 0x1349
    1428:	210b0000 	mrscs	r0, (UNDEF: 11)
    142c:	2f134900 	svccs	0x00134900
    1430:	0c00000b 	stceq	0, cr0, [r0], {11}
    1434:	0b0b0113 	bleq	2c1888 <__bss_end__+0x2b7858>
    1438:	0b3b0b3a 	bleq	ec4128 <__bss_end__+0xeba0f8>
    143c:	13010b39 	movwne	r0, #6969	; 0x1b39
    1440:	0d0d0000 	stceq	0, cr0, [sp, #-0]
    1444:	3a0e0300 	bcc	38204c <__bss_end__+0x37801c>
    1448:	390b3b0b 	stmdbcc	fp, {r0, r1, r3, r8, r9, fp, ip, sp}
    144c:	3813490b 	ldmdacc	r3, {r0, r1, r3, r8, fp, lr}
    1450:	0e00000b 	cdpeq	0, 0, cr0, cr0, cr11, {0}
    1454:	0b0b000f 	bleq	2c1498 <__bss_end__+0x2b7468>
    1458:	260f0000 	strcs	r0, [pc], -r0
    145c:	00134900 	andseq	r4, r3, r0, lsl #18
    1460:	01131000 	tsteq	r3, r0
    1464:	0b0b0e03 	bleq	2c4c78 <__bss_end__+0x2bac48>
    1468:	0b3b0b3a 	bleq	ec4158 <__bss_end__+0xeba128>
    146c:	13010b39 	movwne	r0, #6969	; 0x1b39
    1470:	0d110000 	ldceq	0, cr0, [r1, #-0]
    1474:	3a080300 	bcc	20207c <__bss_end__+0x1f804c>
    1478:	390b3b0b 	stmdbcc	fp, {r0, r1, r3, r8, r9, fp, ip, sp}
    147c:	3813490b 	ldmdacc	r3, {r0, r1, r3, r8, fp, lr}
    1480:	1200000b 	andne	r0, r0, #11
    1484:	0e030113 	mcreq	1, 0, r0, cr3, cr3, {0}
    1488:	0b3a050b 	bleq	e828bc <__bss_end__+0xe7888c>
    148c:	0b390b3b 	bleq	e44180 <__bss_end__+0xe3a150>
    1490:	00001301 	andeq	r1, r0, r1, lsl #6
    1494:	03000d13 	movweq	r0, #3347	; 0xd13
    1498:	3b0b3a0e 	blcc	2cfcd8 <__bss_end__+0x2c5ca8>
    149c:	490b390b 	stmdbmi	fp, {r0, r1, r3, r8, fp, ip, sp}
    14a0:	00053813 	andeq	r3, r5, r3, lsl r8
    14a4:	00151400 	andseq	r1, r5, r0, lsl #8
    14a8:	00001927 	andeq	r1, r0, r7, lsr #18
    14ac:	27011515 	smladcs	r1, r5, r5, r1
    14b0:	01134919 	tsteq	r3, r9, lsl r9
    14b4:	16000013 			; <UNDEFINED> instruction: 0x16000013
    14b8:	13490005 	movtne	r0, #36869	; 0x9005
    14bc:	13170000 	tstne	r7, #0
    14c0:	0b0e0301 	bleq	3820cc <__bss_end__+0x37809c>
    14c4:	3b0b3a05 	blcc	2cfce0 <__bss_end__+0x2c5cb0>
    14c8:	010b3905 	tsteq	fp, r5, lsl #18
    14cc:	18000013 	stmdane	r0, {r0, r1, r4}
    14d0:	0e03000d 	cdpeq	0, 0, cr0, cr3, cr13, {0}
    14d4:	053b0b3a 	ldreq	r0, [fp, #-2874]!	; 0xfffff4c6
    14d8:	13490b39 	movtne	r0, #39737	; 0x9b39
    14dc:	00000b38 	andeq	r0, r0, r8, lsr fp
    14e0:	03000d19 	movweq	r0, #3353	; 0xd19
    14e4:	3b0b3a0e 	blcc	2cfd24 <__bss_end__+0x2c5cf4>
    14e8:	490b3905 	stmdbmi	fp, {r0, r2, r8, fp, ip, sp}
    14ec:	00053813 	andeq	r3, r5, r3, lsl r8
    14f0:	01131a00 	tsteq	r3, r0, lsl #20
    14f4:	0b0b0e03 	bleq	2c4d08 <__bss_end__+0x2bacd8>
    14f8:	053b0b3a 	ldreq	r0, [fp, #-2874]!	; 0xfffff4c6
    14fc:	13010b39 	movwne	r0, #6969	; 0x1b39
    1500:	131b0000 	tstne	fp, #0
    1504:	3a0b0b01 	bcc	2c4110 <__bss_end__+0x2ba0e0>
    1508:	39053b0b 	stmdbcc	r5, {r0, r1, r3, r8, r9, fp, ip, sp}
    150c:	0013010b 	andseq	r0, r3, fp, lsl #2
    1510:	01171c00 	tsteq	r7, r0, lsl #24
    1514:	0b3a0b0b 	bleq	e84148 <__bss_end__+0xe7a118>
    1518:	0b39053b 	bleq	e42a0c <__bss_end__+0xe389dc>
    151c:	00001301 	andeq	r1, r0, r1, lsl #6
    1520:	03000d1d 	movweq	r0, #3357	; 0xd1d
    1524:	3b0b3a0e 	blcc	2cfd64 <__bss_end__+0x2c5d34>
    1528:	490b3905 	stmdbmi	fp, {r0, r2, r8, fp, ip, sp}
    152c:	1e000013 	mcrne	0, 0, r0, cr0, cr3, {0}
    1530:	19270115 	stmdbne	r7!, {r0, r2, r4, r8}
    1534:	00001301 	andeq	r1, r0, r1, lsl #6
    1538:	0300341f 	movweq	r3, #1055	; 0x41f
    153c:	3b0b3a0e 	blcc	2cfd7c <__bss_end__+0x2c5d4c>
    1540:	490b3905 	stmdbmi	fp, {r0, r2, r8, fp, ip, sp}
    1544:	3c193f13 	ldccc	15, cr3, [r9], {19}
    1548:	20000019 	andcs	r0, r0, r9, lsl r0
    154c:	0e030034 	mcreq	0, 0, r0, cr3, cr4, {1}
    1550:	0b3b0b3a 	bleq	ec4240 <__bss_end__+0xeba210>
    1554:	13490b39 	movtne	r0, #39737	; 0x9b39
    1558:	193c193f 	ldmdbne	ip!, {r0, r1, r2, r3, r4, r5, r8, fp, ip}
    155c:	2e210000 	cdpcs	0, 2, cr0, cr1, cr0, {0}
    1560:	03193f01 	tsteq	r9, #1, 30
    1564:	3b0b3a0e 	blcc	2cfda4 <__bss_end__+0x2c5d74>
    1568:	270b390b 	strcs	r3, [fp, -fp, lsl #18]
    156c:	19018719 	stmdbne	r1, {r0, r3, r4, r8, r9, sl, pc}
    1570:	06120111 			; <UNDEFINED> instruction: 0x06120111
    1574:	42971840 	addsmi	r1, r7, #64, 16	; 0x400000
    1578:	00130119 	andseq	r0, r3, r9, lsl r1
    157c:	82892200 	addhi	r2, r9, #0, 4
    1580:	01110101 	tsteq	r1, r1, lsl #2
    1584:	00001301 	andeq	r1, r0, r1, lsl #6
    1588:	01828a23 	orreq	r8, r2, r3, lsr #20
    158c:	91180200 	tstls	r8, r0, lsl #4
    1590:	00001842 	andeq	r1, r0, r2, asr #16
    1594:	01828924 	orreq	r8, r2, r4, lsr #18
    1598:	31011101 	tstcc	r1, r1, lsl #2
    159c:	00130113 	andseq	r0, r3, r3, lsl r1
    15a0:	82892500 	addhi	r2, r9, #0, 10
    15a4:	01110001 	tsteq	r1, r1
    15a8:	00001331 	andeq	r1, r0, r1, lsr r3
    15ac:	3f002e26 	svccc	0x00002e26
    15b0:	6e193c19 	mrcvs	12, 0, r3, cr9, cr9, {0}
    15b4:	3a0e030e 	bcc	3821f4 <__bss_end__+0x3781c4>
    15b8:	390b3b0b 	stmdbcc	fp, {r0, r1, r3, r8, r9, fp, ip, sp}
    15bc:	0000000b 	andeq	r0, r0, fp
    15c0:	25011101 	strcs	r1, [r1, #-257]	; 0xfffffeff
    15c4:	030b130e 	movweq	r1, #45838	; 0xb30e
    15c8:	110e1b0e 	tstne	lr, lr, lsl #22
    15cc:	10061201 	andne	r1, r6, r1, lsl #4
    15d0:	02000017 	andeq	r0, r0, #23
    15d4:	0b0b0024 	bleq	2c166c <__bss_end__+0x2b763c>
    15d8:	08030b3e 	stmdaeq	r3, {r1, r2, r3, r4, r5, r8, r9, fp}
    15dc:	24030000 	strcs	r0, [r3], #-0
    15e0:	3e0b0b00 	vmlacc.f64	d0, d11, d0
    15e4:	000e030b 	andeq	r0, lr, fp, lsl #6
    15e8:	00160400 	andseq	r0, r6, r0, lsl #8
    15ec:	0b3a0e03 	bleq	e84e00 <__bss_end__+0xe7add0>
    15f0:	0b390b3b 	bleq	e442e4 <__bss_end__+0xe3a2b4>
    15f4:	00001349 	andeq	r1, r0, r9, asr #6
    15f8:	0b000f05 	bleq	5214 <_start-0x2dec>
    15fc:	0013490b 	andseq	r4, r3, fp, lsl #18
    1600:	00130600 	andseq	r0, r3, r0, lsl #12
    1604:	193c0e03 	ldmdbne	ip!, {r0, r1, r9, sl, fp}
    1608:	16070000 	strne	r0, [r7], -r0
    160c:	3a0e0300 	bcc	382214 <__bss_end__+0x3781e4>
    1610:	39053b0b 	stmdbcc	r5, {r0, r1, r3, r8, r9, fp, ip, sp}
    1614:	0013490b 	andseq	r4, r3, fp, lsl #18
    1618:	01170800 	tsteq	r7, r0, lsl #16
    161c:	0b3a0b0b 	bleq	e84250 <__bss_end__+0xe7a220>
    1620:	0b390b3b 	bleq	e44314 <__bss_end__+0xe3a2e4>
    1624:	00001301 	andeq	r1, r0, r1, lsl #6
    1628:	03000d09 	movweq	r0, #3337	; 0xd09
    162c:	3b0b3a0e 	blcc	2cfe6c <__bss_end__+0x2c5e3c>
    1630:	490b390b 	stmdbmi	fp, {r0, r1, r3, r8, fp, ip, sp}
    1634:	0a000013 	beq	1688 <_start-0x6978>
    1638:	13490101 	movtne	r0, #37121	; 0x9101
    163c:	00001301 	andeq	r1, r0, r1, lsl #6
    1640:	4900210b 	stmdbmi	r0, {r0, r1, r3, r8, sp}
    1644:	000b2f13 	andeq	r2, fp, r3, lsl pc
    1648:	01130c00 	tsteq	r3, r0, lsl #24
    164c:	0b3a0b0b 	bleq	e84280 <__bss_end__+0xe7a250>
    1650:	0b390b3b 	bleq	e44344 <__bss_end__+0xe3a314>
    1654:	00001301 	andeq	r1, r0, r1, lsl #6
    1658:	03000d0d 	movweq	r0, #3341	; 0xd0d
    165c:	3b0b3a0e 	blcc	2cfe9c <__bss_end__+0x2c5e6c>
    1660:	490b390b 	stmdbmi	fp, {r0, r1, r3, r8, fp, ip, sp}
    1664:	000b3813 	andeq	r3, fp, r3, lsl r8
    1668:	000f0e00 	andeq	r0, pc, r0, lsl #28
    166c:	00000b0b 	andeq	r0, r0, fp, lsl #22
    1670:	4900260f 	stmdbmi	r0, {r0, r1, r2, r3, r9, sl, sp}
    1674:	10000013 	andne	r0, r0, r3, lsl r0
    1678:	0e030113 	mcreq	1, 0, r0, cr3, cr3, {0}
    167c:	0b3a0b0b 	bleq	e842b0 <__bss_end__+0xe7a280>
    1680:	0b390b3b 	bleq	e44374 <__bss_end__+0xe3a344>
    1684:	00001301 	andeq	r1, r0, r1, lsl #6
    1688:	03000d11 	movweq	r0, #3345	; 0xd11
    168c:	3b0b3a08 	blcc	2cfeb4 <__bss_end__+0x2c5e84>
    1690:	490b390b 	stmdbmi	fp, {r0, r1, r3, r8, fp, ip, sp}
    1694:	000b3813 	andeq	r3, fp, r3, lsl r8
    1698:	01131200 	tsteq	r3, r0, lsl #4
    169c:	050b0e03 	streq	r0, [fp, #-3587]	; 0xfffff1fd
    16a0:	0b3b0b3a 	bleq	ec4390 <__bss_end__+0xeba360>
    16a4:	13010b39 	movwne	r0, #6969	; 0x1b39
    16a8:	0d130000 	ldceq	0, cr0, [r3, #-0]
    16ac:	3a0e0300 	bcc	3822b4 <__bss_end__+0x378284>
    16b0:	390b3b0b 	stmdbcc	fp, {r0, r1, r3, r8, r9, fp, ip, sp}
    16b4:	3813490b 	ldmdacc	r3, {r0, r1, r3, r8, fp, lr}
    16b8:	14000005 	strne	r0, [r0], #-5
    16bc:	19270015 	stmdbne	r7!, {r0, r2, r4}
    16c0:	15150000 	ldrne	r0, [r5, #-0]
    16c4:	49192701 	ldmdbmi	r9, {r0, r8, r9, sl, sp}
    16c8:	00130113 	andseq	r0, r3, r3, lsl r1
    16cc:	00051600 	andeq	r1, r5, r0, lsl #12
    16d0:	00001349 	andeq	r1, r0, r9, asr #6
    16d4:	03011317 	movweq	r1, #4887	; 0x1317
    16d8:	3a050b0e 	bcc	144318 <__bss_end__+0x13a2e8>
    16dc:	39053b0b 	stmdbcc	r5, {r0, r1, r3, r8, r9, fp, ip, sp}
    16e0:	0013010b 	andseq	r0, r3, fp, lsl #2
    16e4:	000d1800 	andeq	r1, sp, r0, lsl #16
    16e8:	0b3a0e03 	bleq	e84efc <__bss_end__+0xe7aecc>
    16ec:	0b39053b 	bleq	e42be0 <__bss_end__+0xe38bb0>
    16f0:	0b381349 	bleq	e0641c <__bss_end__+0xdfc3ec>
    16f4:	0d190000 	ldceq	0, cr0, [r9, #-0]
    16f8:	3a0e0300 	bcc	382300 <__bss_end__+0x3782d0>
    16fc:	39053b0b 	stmdbcc	r5, {r0, r1, r3, r8, r9, fp, ip, sp}
    1700:	3813490b 	ldmdacc	r3, {r0, r1, r3, r8, fp, lr}
    1704:	1a000005 	bne	1720 <_start-0x68e0>
    1708:	0e030113 	mcreq	1, 0, r0, cr3, cr3, {0}
    170c:	0b3a0b0b 	bleq	e84340 <__bss_end__+0xe7a310>
    1710:	0b39053b 	bleq	e42c04 <__bss_end__+0xe38bd4>
    1714:	00001301 	andeq	r1, r0, r1, lsl #6
    1718:	0b01131b 	bleq	4638c <__bss_end__+0x3c35c>
    171c:	3b0b3a0b 	blcc	2cff50 <__bss_end__+0x2c5f20>
    1720:	010b3905 	tsteq	fp, r5, lsl #18
    1724:	1c000013 	stcne	0, cr0, [r0], {19}
    1728:	0b0b0117 	bleq	2c1b8c <__bss_end__+0x2b7b5c>
    172c:	053b0b3a 	ldreq	r0, [fp, #-2874]!	; 0xfffff4c6
    1730:	13010b39 	movwne	r0, #6969	; 0x1b39
    1734:	0d1d0000 	ldceq	0, cr0, [sp, #-0]
    1738:	3a0e0300 	bcc	382340 <__bss_end__+0x378310>
    173c:	39053b0b 	stmdbcc	r5, {r0, r1, r3, r8, r9, fp, ip, sp}
    1740:	0013490b 	andseq	r4, r3, fp, lsl #18
    1744:	01151e00 	tsteq	r5, r0, lsl #28
    1748:	13011927 	movwne	r1, #6439	; 0x1927
    174c:	341f0000 	ldrcc	r0, [pc], #-0	; 1754 <_start-0x68ac>
    1750:	3a0e0300 	bcc	382358 <__bss_end__+0x378328>
    1754:	39053b0b 	stmdbcc	r5, {r0, r1, r3, r8, r9, fp, ip, sp}
    1758:	3f13490b 	svccc	0x0013490b
    175c:	00193c19 	andseq	r3, r9, r9, lsl ip
    1760:	00342000 	eorseq	r2, r4, r0
    1764:	0b3a0e03 	bleq	e84f78 <__bss_end__+0xe7af48>
    1768:	0b390b3b 	bleq	e4445c <__bss_end__+0xe3a42c>
    176c:	193f1349 	ldmdbne	pc!, {r0, r3, r6, r8, r9, ip}	; <UNPREDICTABLE>
    1770:	0000193c 	andeq	r1, r0, ip, lsr r9
    1774:	3f012e21 	svccc	0x00012e21
    1778:	3a0e0319 	bcc	3823e4 <__bss_end__+0x3783b4>
    177c:	390b3b0b 	stmdbcc	fp, {r0, r1, r3, r8, r9, fp, ip, sp}
    1780:	1201110b 	andne	r1, r1, #-1073741822	; 0xc0000002
    1784:	97184006 	ldrls	r4, [r8, -r6]
    1788:	13011942 	movwne	r1, #6466	; 0x1942
    178c:	2e220000 	cdpcs	0, 2, cr0, cr2, cr0, {0}
    1790:	03193f00 	tsteq	r9, #0, 30
    1794:	3b0b3a0e 	blcc	2cffd4 <__bss_end__+0x2c5fa4>
    1798:	270b390b 	strcs	r3, [fp, -fp, lsl #18]
    179c:	00193c19 	andseq	r3, r9, r9, lsl ip
    17a0:	00342300 	eorseq	r2, r4, r0, lsl #6
    17a4:	0b3a0803 	bleq	e837b8 <__bss_end__+0xe79788>
    17a8:	0b390b3b 	bleq	e4449c <__bss_end__+0xe3a46c>
    17ac:	17021349 	strne	r1, [r2, -r9, asr #6]
    17b0:	001742b7 			; <UNDEFINED> instruction: 0x001742b7
    17b4:	00342400 	eorseq	r2, r4, r0, lsl #8
    17b8:	0b3a0e03 	bleq	e84fcc <__bss_end__+0xe7af9c>
    17bc:	0b390b3b 	bleq	e444b0 <__bss_end__+0xe3a480>
    17c0:	00001349 	andeq	r1, r0, r9, asr #6
    17c4:	01828925 	orreq	r8, r2, r5, lsr #18
    17c8:	31011100 	mrscc	r1, (UNDEF: 17)
    17cc:	26000013 			; <UNDEFINED> instruction: 0x26000013
    17d0:	193f002e 	ldmdbne	pc!, {r1, r2, r3, r5}	; <UNPREDICTABLE>
    17d4:	0e6e193c 			; <UNDEFINED> instruction: 0x0e6e193c
    17d8:	0b3a0e03 	bleq	e84fec <__bss_end__+0xe7afbc>
    17dc:	0b390b3b 	bleq	e444d0 <__bss_end__+0xe3a4a0>
    17e0:	01000000 	mrseq	r0, (UNDEF: 0)
    17e4:	0e250111 	mcreq	1, 1, r0, cr5, cr1, {0}
    17e8:	0e030b13 	vmoveq.32	d3[0], r0
    17ec:	17550e1b 	smmlane	r5, fp, lr, r0
    17f0:	17100111 			; <UNDEFINED> instruction: 0x17100111
    17f4:	24020000 	strcs	r0, [r2], #-0
    17f8:	3e0b0b00 	vmlacc.f64	d0, d11, d0
    17fc:	0008030b 	andeq	r0, r8, fp, lsl #6
    1800:	00260300 	eoreq	r0, r6, r0, lsl #6
    1804:	00001349 	andeq	r1, r0, r9, asr #6
    1808:	0b002404 	bleq	a820 <__bss_end__+0x7f0>
    180c:	030b3e0b 	movweq	r3, #48651	; 0xbe0b
    1810:	0500000e 	streq	r0, [r0, #-14]
    1814:	0e030016 	mcreq	0, 0, r0, cr3, cr6, {0}
    1818:	0b3b0b3a 	bleq	ec4508 <__bss_end__+0xeba4d8>
    181c:	13490b39 	movtne	r0, #39737	; 0x9b39
    1820:	0f060000 	svceq	0x00060000
    1824:	490b0b00 	stmdbmi	fp, {r8, r9, fp}
    1828:	07000013 	smladeq	r0, r3, r0, r0
    182c:	0e030013 	mcreq	0, 0, r0, cr3, cr3, {0}
    1830:	0000193c 	andeq	r1, r0, ip, lsr r9
    1834:	03001608 	movweq	r1, #1544	; 0x608
    1838:	3b0b3a0e 	blcc	2d0078 <__bss_end__+0x2c6048>
    183c:	490b3905 	stmdbmi	fp, {r0, r2, r8, fp, ip, sp}
    1840:	09000013 	stmdbeq	r0, {r0, r1, r4}
    1844:	0b0b0117 	bleq	2c1ca8 <__bss_end__+0x2b7c78>
    1848:	0b3b0b3a 	bleq	ec4538 <__bss_end__+0xeba508>
    184c:	13010b39 	movwne	r0, #6969	; 0x1b39
    1850:	0d0a0000 	stceq	0, cr0, [sl, #-0]
    1854:	3a0e0300 	bcc	38245c <__bss_end__+0x37842c>
    1858:	390b3b0b 	stmdbcc	fp, {r0, r1, r3, r8, r9, fp, ip, sp}
    185c:	0013490b 	andseq	r4, r3, fp, lsl #18
    1860:	01010b00 	tsteq	r1, r0, lsl #22
    1864:	13011349 	movwne	r1, #4937	; 0x1349
    1868:	210c0000 	mrscs	r0, (UNDEF: 12)
    186c:	2f134900 	svccs	0x00134900
    1870:	0d00000b 	stceq	0, cr0, [r0, #-44]	; 0xffffffd4
    1874:	0b0b0113 	bleq	2c1cc8 <__bss_end__+0x2b7c98>
    1878:	0b3b0b3a 	bleq	ec4568 <__bss_end__+0xeba538>
    187c:	13010b39 	movwne	r0, #6969	; 0x1b39
    1880:	0d0e0000 	stceq	0, cr0, [lr, #-0]
    1884:	3a0e0300 	bcc	38248c <__bss_end__+0x37845c>
    1888:	390b3b0b 	stmdbcc	fp, {r0, r1, r3, r8, r9, fp, ip, sp}
    188c:	3813490b 	ldmdacc	r3, {r0, r1, r3, r8, fp, lr}
    1890:	0f00000b 	svceq	0x0000000b
    1894:	0b0b000f 	bleq	2c18d8 <__bss_end__+0x2b78a8>
    1898:	13100000 	tstne	r0, #0
    189c:	0b0e0301 	bleq	3824a8 <__bss_end__+0x378478>
    18a0:	3b0b3a0b 	blcc	2d00d4 <__bss_end__+0x2c60a4>
    18a4:	010b390b 	tsteq	fp, fp, lsl #18
    18a8:	11000013 	tstne	r0, r3, lsl r0
    18ac:	0803000d 	stmdaeq	r3, {r0, r2, r3}
    18b0:	0b3b0b3a 	bleq	ec45a0 <__bss_end__+0xeba570>
    18b4:	13490b39 	movtne	r0, #39737	; 0x9b39
    18b8:	00000b38 	andeq	r0, r0, r8, lsr fp
    18bc:	03011312 	movweq	r1, #4882	; 0x1312
    18c0:	3a050b0e 	bcc	144500 <__bss_end__+0x13a4d0>
    18c4:	390b3b0b 	stmdbcc	fp, {r0, r1, r3, r8, r9, fp, ip, sp}
    18c8:	0013010b 	andseq	r0, r3, fp, lsl #2
    18cc:	000d1300 	andeq	r1, sp, r0, lsl #6
    18d0:	0b3a0e03 	bleq	e850e4 <__bss_end__+0xe7b0b4>
    18d4:	0b390b3b 	bleq	e445c8 <__bss_end__+0xe3a598>
    18d8:	05381349 	ldreq	r1, [r8, #-841]!	; 0xfffffcb7
    18dc:	15140000 	ldrne	r0, [r4, #-0]
    18e0:	00192700 	andseq	r2, r9, r0, lsl #14
    18e4:	01151500 	tsteq	r5, r0, lsl #10
    18e8:	13491927 	movtne	r1, #39207	; 0x9927
    18ec:	00001301 	andeq	r1, r0, r1, lsl #6
    18f0:	49000516 	stmdbmi	r0, {r1, r2, r4, r8, sl}
    18f4:	17000013 	smladne	r0, r3, r0, r0
    18f8:	0e030113 	mcreq	1, 0, r0, cr3, cr3, {0}
    18fc:	0b3a050b 	bleq	e82d30 <__bss_end__+0xe78d00>
    1900:	0b39053b 	bleq	e42df4 <__bss_end__+0xe38dc4>
    1904:	00001301 	andeq	r1, r0, r1, lsl #6
    1908:	03000d18 	movweq	r0, #3352	; 0xd18
    190c:	3b0b3a0e 	blcc	2d014c <__bss_end__+0x2c611c>
    1910:	490b3905 	stmdbmi	fp, {r0, r2, r8, fp, ip, sp}
    1914:	000b3813 	andeq	r3, fp, r3, lsl r8
    1918:	000d1900 	andeq	r1, sp, r0, lsl #18
    191c:	0b3a0e03 	bleq	e85130 <__bss_end__+0xe7b100>
    1920:	0b39053b 	bleq	e42e14 <__bss_end__+0xe38de4>
    1924:	05381349 	ldreq	r1, [r8, #-841]!	; 0xfffffcb7
    1928:	131a0000 	tstne	sl, #0
    192c:	0b0e0301 	bleq	382538 <__bss_end__+0x378508>
    1930:	3b0b3a0b 	blcc	2d0164 <__bss_end__+0x2c6134>
    1934:	010b3905 	tsteq	fp, r5, lsl #18
    1938:	1b000013 	blne	198c <_start-0x6674>
    193c:	0b0b0113 	bleq	2c1d90 <__bss_end__+0x2b7d60>
    1940:	053b0b3a 	ldreq	r0, [fp, #-2874]!	; 0xfffff4c6
    1944:	13010b39 	movwne	r0, #6969	; 0x1b39
    1948:	171c0000 	ldrne	r0, [ip, -r0]
    194c:	3a0b0b01 	bcc	2c4558 <__bss_end__+0x2ba528>
    1950:	39053b0b 	stmdbcc	r5, {r0, r1, r3, r8, r9, fp, ip, sp}
    1954:	0013010b 	andseq	r0, r3, fp, lsl #2
    1958:	000d1d00 	andeq	r1, sp, r0, lsl #26
    195c:	0b3a0e03 	bleq	e85170 <__bss_end__+0xe7b140>
    1960:	0b39053b 	bleq	e42e54 <__bss_end__+0xe38e24>
    1964:	00001349 	andeq	r1, r0, r9, asr #6
    1968:	2701151e 	smladcs	r1, lr, r5, r1
    196c:	00130119 	andseq	r0, r3, r9, lsl r1
    1970:	00341f00 	eorseq	r1, r4, r0, lsl #30
    1974:	0b3a0e03 	bleq	e85188 <__bss_end__+0xe7b158>
    1978:	0b39053b 	bleq	e42e6c <__bss_end__+0xe38e3c>
    197c:	193f1349 	ldmdbne	pc!, {r0, r3, r6, r8, r9, ip}	; <UNPREDICTABLE>
    1980:	0000193c 	andeq	r1, r0, ip, lsr r9
    1984:	03003420 	movweq	r3, #1056	; 0x420
    1988:	3b0b3a0e 	blcc	2d01c8 <__bss_end__+0x2c6198>
    198c:	490b390b 	stmdbmi	fp, {r0, r1, r3, r8, fp, ip, sp}
    1990:	3c193f13 	ldccc	15, cr3, [r9], {19}
    1994:	21000019 	tstcs	r0, r9, lsl r0
    1998:	0e030034 	mcreq	0, 0, r0, cr3, cr4, {1}
    199c:	0b3b0b3a 	bleq	ec468c <__bss_end__+0xeba65c>
    19a0:	13490b39 	movtne	r0, #39737	; 0x9b39
    19a4:	2e220000 	cdpcs	0, 2, cr0, cr2, cr0, {0}
    19a8:	03193f01 	tsteq	r9, #1, 30
    19ac:	3b0b3a0e 	blcc	2d01ec <__bss_end__+0x2c61bc>
    19b0:	270b390b 	strcs	r3, [fp, -fp, lsl #18]
    19b4:	19018719 	stmdbne	r1, {r0, r3, r4, r8, r9, sl, pc}
    19b8:	06120111 			; <UNDEFINED> instruction: 0x06120111
    19bc:	42971840 	addsmi	r1, r7, #64, 16	; 0x400000
    19c0:	00130119 	andseq	r0, r3, r9, lsl r1
    19c4:	00342300 	eorseq	r2, r4, r0, lsl #6
    19c8:	0b3a0e03 	bleq	e851dc <__bss_end__+0xe7b1ac>
    19cc:	0b390b3b 	bleq	e446c0 <__bss_end__+0xe3a690>
    19d0:	17021349 	strne	r1, [r2, -r9, asr #6]
    19d4:	001742b7 			; <UNDEFINED> instruction: 0x001742b7
    19d8:	82892400 	addhi	r2, r9, #0, 8
    19dc:	01110001 	tsteq	r1, r1
    19e0:	00001331 	andeq	r1, r0, r1, lsr r3
    19e4:	01828925 	orreq	r8, r2, r5, lsr #18
    19e8:	31011101 	tstcc	r1, r1, lsl #2
    19ec:	00130113 	andseq	r0, r3, r3, lsl r1
    19f0:	828a2600 	addhi	r2, sl, #0, 12
    19f4:	18020001 	stmdane	r2, {r0}
    19f8:	00184291 	mulseq	r8, r1, r2
    19fc:	012e2700 			; <UNDEFINED> instruction: 0x012e2700
    1a00:	0e03193f 			; <UNDEFINED> instruction: 0x0e03193f
    1a04:	0b3b0b3a 	bleq	ec46f4 <__bss_end__+0xeba6c4>
    1a08:	19270b39 	stmdbne	r7!, {r0, r3, r4, r5, r8, r9, fp}
    1a0c:	06120111 			; <UNDEFINED> instruction: 0x06120111
    1a10:	42971840 	addsmi	r1, r7, #64, 16	; 0x400000
    1a14:	00130119 	andseq	r0, r3, r9, lsl r1
    1a18:	012e2800 			; <UNDEFINED> instruction: 0x012e2800
    1a1c:	0e03193f 			; <UNDEFINED> instruction: 0x0e03193f
    1a20:	0b3b0b3a 	bleq	ec4710 <__bss_end__+0xeba6e0>
    1a24:	19270b39 	stmdbne	r7!, {r0, r3, r4, r5, r8, r9, fp}
    1a28:	01111349 	tsteq	r1, r9, asr #6
    1a2c:	18400612 	stmdane	r0, {r1, r4, r9, sl}^
    1a30:	01194297 			; <UNDEFINED> instruction: 0x01194297
    1a34:	29000013 	stmdbcs	r0, {r0, r1, r4}
    1a38:	193f002e 	ldmdbne	pc!, {r1, r2, r3, r5}	; <UNPREDICTABLE>
    1a3c:	0e6e193c 			; <UNDEFINED> instruction: 0x0e6e193c
    1a40:	0b3a0e03 	bleq	e85254 <__bss_end__+0xe7b224>
    1a44:	0b390b3b 	bleq	e44738 <__bss_end__+0xe3a708>
    1a48:	01000000 	mrseq	r0, (UNDEF: 0)
    1a4c:	0e250111 	mcreq	1, 1, r0, cr5, cr1, {0}
    1a50:	0e030b13 	vmoveq.32	d3[0], r0
    1a54:	01110e1b 	tsteq	r1, fp, lsl lr
    1a58:	17100612 			; <UNDEFINED> instruction: 0x17100612
    1a5c:	24020000 	strcs	r0, [r2], #-0
    1a60:	3e0b0b00 	vmlacc.f64	d0, d11, d0
    1a64:	0008030b 	andeq	r0, r8, fp, lsl #6
    1a68:	00240300 	eoreq	r0, r4, r0, lsl #6
    1a6c:	0b3e0b0b 	bleq	f846a0 <__bss_end__+0xf7a670>
    1a70:	00000e03 	andeq	r0, r0, r3, lsl #28
    1a74:	03001604 	movweq	r1, #1540	; 0x604
    1a78:	3b0b3a0e 	blcc	2d02b8 <__bss_end__+0x2c6288>
    1a7c:	490b390b 	stmdbmi	fp, {r0, r1, r3, r8, fp, ip, sp}
    1a80:	05000013 	streq	r0, [r0, #-19]	; 0xffffffed
    1a84:	0b0b000f 	bleq	2c1ac8 <__bss_end__+0x2b7a98>
    1a88:	00001349 	andeq	r1, r0, r9, asr #6
    1a8c:	03001306 	movweq	r1, #774	; 0x306
    1a90:	00193c0e 	andseq	r3, r9, lr, lsl #24
    1a94:	00160700 	andseq	r0, r6, r0, lsl #14
    1a98:	0b3a0e03 	bleq	e852ac <__bss_end__+0xe7b27c>
    1a9c:	0b39053b 	bleq	e42f90 <__bss_end__+0xe38f60>
    1aa0:	00001349 	andeq	r1, r0, r9, asr #6
    1aa4:	0b011708 	bleq	476cc <__bss_end__+0x3d69c>
    1aa8:	3b0b3a0b 	blcc	2d02dc <__bss_end__+0x2c62ac>
    1aac:	010b390b 	tsteq	fp, fp, lsl #18
    1ab0:	09000013 	stmdbeq	r0, {r0, r1, r4}
    1ab4:	0e03000d 	cdpeq	0, 0, cr0, cr3, cr13, {0}
    1ab8:	0b3b0b3a 	bleq	ec47a8 <__bss_end__+0xeba778>
    1abc:	13490b39 	movtne	r0, #39737	; 0x9b39
    1ac0:	010a0000 	mrseq	r0, (UNDEF: 10)
    1ac4:	01134901 	tsteq	r3, r1, lsl #18
    1ac8:	0b000013 	bleq	1b1c <_start-0x64e4>
    1acc:	13490021 	movtne	r0, #36897	; 0x9021
    1ad0:	00000b2f 	andeq	r0, r0, pc, lsr #22
    1ad4:	0b01130c 	bleq	4670c <__bss_end__+0x3c6dc>
    1ad8:	3b0b3a0b 	blcc	2d030c <__bss_end__+0x2c62dc>
    1adc:	010b390b 	tsteq	fp, fp, lsl #18
    1ae0:	0d000013 	stceq	0, cr0, [r0, #-76]	; 0xffffffb4
    1ae4:	0e03000d 	cdpeq	0, 0, cr0, cr3, cr13, {0}
    1ae8:	0b3b0b3a 	bleq	ec47d8 <__bss_end__+0xeba7a8>
    1aec:	13490b39 	movtne	r0, #39737	; 0x9b39
    1af0:	00000b38 	andeq	r0, r0, r8, lsr fp
    1af4:	0b000f0e 	bleq	5734 <_start-0x28cc>
    1af8:	0f00000b 	svceq	0x0000000b
    1afc:	13490026 	movtne	r0, #36902	; 0x9026
    1b00:	13100000 	tstne	r0, #0
    1b04:	0b0e0301 	bleq	382710 <__bss_end__+0x3786e0>
    1b08:	3b0b3a0b 	blcc	2d033c <__bss_end__+0x2c630c>
    1b0c:	010b390b 	tsteq	fp, fp, lsl #18
    1b10:	11000013 	tstne	r0, r3, lsl r0
    1b14:	0803000d 	stmdaeq	r3, {r0, r2, r3}
    1b18:	0b3b0b3a 	bleq	ec4808 <__bss_end__+0xeba7d8>
    1b1c:	13490b39 	movtne	r0, #39737	; 0x9b39
    1b20:	00000b38 	andeq	r0, r0, r8, lsr fp
    1b24:	03011312 	movweq	r1, #4882	; 0x1312
    1b28:	3a050b0e 	bcc	144768 <__bss_end__+0x13a738>
    1b2c:	390b3b0b 	stmdbcc	fp, {r0, r1, r3, r8, r9, fp, ip, sp}
    1b30:	0013010b 	andseq	r0, r3, fp, lsl #2
    1b34:	000d1300 	andeq	r1, sp, r0, lsl #6
    1b38:	0b3a0e03 	bleq	e8534c <__bss_end__+0xe7b31c>
    1b3c:	0b390b3b 	bleq	e44830 <__bss_end__+0xe3a800>
    1b40:	05381349 	ldreq	r1, [r8, #-841]!	; 0xfffffcb7
    1b44:	15140000 	ldrne	r0, [r4, #-0]
    1b48:	00192700 	andseq	r2, r9, r0, lsl #14
    1b4c:	01151500 	tsteq	r5, r0, lsl #10
    1b50:	13491927 	movtne	r1, #39207	; 0x9927
    1b54:	00001301 	andeq	r1, r0, r1, lsl #6
    1b58:	49000516 	stmdbmi	r0, {r1, r2, r4, r8, sl}
    1b5c:	17000013 	smladne	r0, r3, r0, r0
    1b60:	0e030113 	mcreq	1, 0, r0, cr3, cr3, {0}
    1b64:	0b3a050b 	bleq	e82f98 <__bss_end__+0xe78f68>
    1b68:	0b39053b 	bleq	e4305c <__bss_end__+0xe3902c>
    1b6c:	00001301 	andeq	r1, r0, r1, lsl #6
    1b70:	03000d18 	movweq	r0, #3352	; 0xd18
    1b74:	3b0b3a0e 	blcc	2d03b4 <__bss_end__+0x2c6384>
    1b78:	490b3905 	stmdbmi	fp, {r0, r2, r8, fp, ip, sp}
    1b7c:	000b3813 	andeq	r3, fp, r3, lsl r8
    1b80:	000d1900 	andeq	r1, sp, r0, lsl #18
    1b84:	0b3a0e03 	bleq	e85398 <__bss_end__+0xe7b368>
    1b88:	0b39053b 	bleq	e4307c <__bss_end__+0xe3904c>
    1b8c:	05381349 	ldreq	r1, [r8, #-841]!	; 0xfffffcb7
    1b90:	131a0000 	tstne	sl, #0
    1b94:	0b0e0301 	bleq	3827a0 <__bss_end__+0x378770>
    1b98:	3b0b3a0b 	blcc	2d03cc <__bss_end__+0x2c639c>
    1b9c:	010b3905 	tsteq	fp, r5, lsl #18
    1ba0:	1b000013 	blne	1bf4 <_start-0x640c>
    1ba4:	0b0b0113 	bleq	2c1ff8 <__bss_end__+0x2b7fc8>
    1ba8:	053b0b3a 	ldreq	r0, [fp, #-2874]!	; 0xfffff4c6
    1bac:	13010b39 	movwne	r0, #6969	; 0x1b39
    1bb0:	171c0000 	ldrne	r0, [ip, -r0]
    1bb4:	3a0b0b01 	bcc	2c47c0 <__bss_end__+0x2ba790>
    1bb8:	39053b0b 	stmdbcc	r5, {r0, r1, r3, r8, r9, fp, ip, sp}
    1bbc:	0013010b 	andseq	r0, r3, fp, lsl #2
    1bc0:	000d1d00 	andeq	r1, sp, r0, lsl #26
    1bc4:	0b3a0e03 	bleq	e853d8 <__bss_end__+0xe7b3a8>
    1bc8:	0b39053b 	bleq	e430bc <__bss_end__+0xe3908c>
    1bcc:	00001349 	andeq	r1, r0, r9, asr #6
    1bd0:	2701151e 	smladcs	r1, lr, r5, r1
    1bd4:	00130119 	andseq	r0, r3, r9, lsl r1
    1bd8:	00341f00 	eorseq	r1, r4, r0, lsl #30
    1bdc:	0b3a0e03 	bleq	e853f0 <__bss_end__+0xe7b3c0>
    1be0:	0b39053b 	bleq	e430d4 <__bss_end__+0xe390a4>
    1be4:	193f1349 	ldmdbne	pc!, {r0, r3, r6, r8, r9, ip}	; <UNPREDICTABLE>
    1be8:	0000193c 	andeq	r1, r0, ip, lsr r9
    1bec:	03003420 	movweq	r3, #1056	; 0x420
    1bf0:	3b0b3a0e 	blcc	2d0430 <__bss_end__+0x2c6400>
    1bf4:	490b390b 	stmdbmi	fp, {r0, r1, r3, r8, fp, ip, sp}
    1bf8:	3c193f13 	ldccc	15, cr3, [r9], {19}
    1bfc:	21000019 	tstcs	r0, r9, lsl r0
    1c00:	193f012e 	ldmdbne	pc!, {r1, r2, r3, r5, r8}	; <UNPREDICTABLE>
    1c04:	0b3a0e03 	bleq	e85418 <__bss_end__+0xe7b3e8>
    1c08:	0b390b3b 	bleq	e448fc <__bss_end__+0xe3a8cc>
    1c0c:	01111927 	tsteq	r1, r7, lsr #18
    1c10:	18400612 	stmdane	r0, {r1, r4, r9, sl}^
    1c14:	01194297 			; <UNDEFINED> instruction: 0x01194297
    1c18:	22000013 	andcs	r0, r0, #19
    1c1c:	08030005 	stmdaeq	r3, {r0, r2}
    1c20:	0b3b0b3a 	bleq	ec4910 <__bss_end__+0xeba8e0>
    1c24:	13490b39 	movtne	r0, #39737	; 0x9b39
    1c28:	42b71702 	adcsmi	r1, r7, #524288	; 0x80000
    1c2c:	23000017 	movwcs	r0, #23
    1c30:	01018289 	smlabbeq	r1, r9, r2, r8
    1c34:	13310111 	teqne	r1, #1073741828	; 0x40000004
    1c38:	8a240000 	bhi	901c40 <__bss_end__+0x8f7c10>
    1c3c:	02000182 	andeq	r0, r0, #-2147483616	; 0x80000020
    1c40:	18429118 	stmdane	r2, {r3, r4, r8, ip, pc}^
    1c44:	34250000 	strtcc	r0, [r5], #-0
    1c48:	3a080300 	bcc	202850 <__bss_end__+0x1f8820>
    1c4c:	390b3b0b 	stmdbcc	fp, {r0, r1, r3, r8, r9, fp, ip, sp}
    1c50:	0213490b 	andseq	r4, r3, #180224	; 0x2c000
    1c54:	1742b717 	smlaldne	fp, r2, r7, r7
    1c58:	0b260000 	bleq	981c60 <__bss_end__+0x977c30>
    1c5c:	12011101 	andne	r1, r1, #1073741824	; 0x40000000
    1c60:	00130106 	andseq	r0, r3, r6, lsl #2
    1c64:	82892700 	addhi	r2, r9, #0, 14
    1c68:	01110001 	tsteq	r1, r1
    1c6c:	00001331 	andeq	r1, r0, r1, lsr r3
    1c70:	3f012e28 	svccc	0x00012e28
    1c74:	3a0e0319 	bcc	3828e0 <__bss_end__+0x3788b0>
    1c78:	390b3b0b 	stmdbcc	fp, {r0, r1, r3, r8, r9, fp, ip, sp}
    1c7c:	4919270b 	ldmdbmi	r9, {r0, r1, r3, r8, r9, sl, sp}
    1c80:	12011113 	andne	r1, r1, #-1073741820	; 0xc0000004
    1c84:	97184006 	ldrls	r4, [r8, -r6]
    1c88:	13011942 	movwne	r1, #6466	; 0x1942
    1c8c:	05290000 	streq	r0, [r9, #-0]!
    1c90:	3a0e0300 	bcc	382898 <__bss_end__+0x378868>
    1c94:	390b3b0b 	stmdbcc	fp, {r0, r1, r3, r8, r9, fp, ip, sp}
    1c98:	0213490b 	andseq	r4, r3, #180224	; 0x2c000
    1c9c:	1742b717 	smlaldne	fp, r2, r7, r7
    1ca0:	2e2a0000 	cdpcs	0, 2, cr0, cr10, cr0, {0}
    1ca4:	3c193f00 	ldccc	15, cr3, [r9], {-0}
    1ca8:	030e6e19 	movweq	r6, #60953	; 0xee19
    1cac:	3b0b3a0e 	blcc	2d04ec <__bss_end__+0x2c64bc>
    1cb0:	000b390b 	andeq	r3, fp, fp, lsl #18
    1cb4:	11010000 	mrsne	r0, (UNDEF: 1)
    1cb8:	130e2501 	movwne	r2, #58625	; 0xe501
    1cbc:	1b0e030b 	blne	3828f0 <__bss_end__+0x3788c0>
    1cc0:	1201110e 	andne	r1, r1, #-2147483645	; 0x80000003
    1cc4:	00171006 	andseq	r1, r7, r6
    1cc8:	00240200 	eoreq	r0, r4, r0, lsl #4
    1ccc:	0b3e0b0b 	bleq	f84900 <__bss_end__+0xf7a8d0>
    1cd0:	00000803 	andeq	r0, r0, r3, lsl #16
    1cd4:	0b002403 	bleq	ace8 <__bss_end__+0xcb8>
    1cd8:	030b3e0b 	movweq	r3, #48651	; 0xbe0b
    1cdc:	0400000e 	streq	r0, [r0], #-14
    1ce0:	13490035 	movtne	r0, #36917	; 0x9035
    1ce4:	16050000 	strne	r0, [r5], -r0
    1ce8:	3a0e0300 	bcc	3828f0 <__bss_end__+0x3788c0>
    1cec:	490b3b0b 	stmdbmi	fp, {r0, r1, r3, r8, r9, fp, ip, sp}
    1cf0:	06000013 			; <UNDEFINED> instruction: 0x06000013
    1cf4:	0e030016 	mcreq	0, 0, r0, cr3, cr6, {0}
    1cf8:	053b0b3a 	ldreq	r0, [fp, #-2874]!	; 0xfffff4c6
    1cfc:	00001349 	andeq	r1, r0, r9, asr #6
    1d00:	0b011707 	bleq	47924 <__bss_end__+0x3d8f4>
    1d04:	3b0b3a0b 	blcc	2d0538 <__bss_end__+0x2c6508>
    1d08:	0013010b 	andseq	r0, r3, fp, lsl #2
    1d0c:	000d0800 	andeq	r0, sp, r0, lsl #16
    1d10:	0b3a0e03 	bleq	e85524 <__bss_end__+0xe7b4f4>
    1d14:	13490b3b 	movtne	r0, #39739	; 0x9b3b
    1d18:	01090000 	mrseq	r0, (UNDEF: 9)
    1d1c:	01134901 	tsteq	r3, r1, lsl #18
    1d20:	0a000013 	beq	1d74 <_start-0x628c>
    1d24:	13490021 	movtne	r0, #36897	; 0x9021
    1d28:	00000b2f 	andeq	r0, r0, pc, lsr #22
    1d2c:	0b01130b 	bleq	46960 <__bss_end__+0x3c930>
    1d30:	3b0b3a0b 	blcc	2d0564 <__bss_end__+0x2c6534>
    1d34:	0013010b 	andseq	r0, r3, fp, lsl #2
    1d38:	000d0c00 	andeq	r0, sp, r0, lsl #24
    1d3c:	0b3a0e03 	bleq	e85550 <__bss_end__+0xe7b520>
    1d40:	13490b3b 	movtne	r0, #39739	; 0x9b3b
    1d44:	00000b38 	andeq	r0, r0, r8, lsr fp
    1d48:	0b000f0d 	bleq	5984 <_start-0x267c>
    1d4c:	0e00000b 	cdpeq	0, 0, cr0, cr0, cr11, {0}
    1d50:	0b0b000f 	bleq	2c1d94 <__bss_end__+0x2b7d64>
    1d54:	00001349 	andeq	r1, r0, r9, asr #6
    1d58:	4900260f 	stmdbmi	r0, {r0, r1, r2, r3, r9, sl, sp}
    1d5c:	10000013 	andne	r0, r0, r3, lsl r0
    1d60:	0e030113 	mcreq	1, 0, r0, cr3, cr3, {0}
    1d64:	0b3a0b0b 	bleq	e84998 <__bss_end__+0xe7a968>
    1d68:	13010b3b 	movwne	r0, #6971	; 0x1b3b
    1d6c:	0d110000 	ldceq	0, cr0, [r1, #-0]
    1d70:	3a080300 	bcc	202978 <__bss_end__+0x1f8948>
    1d74:	490b3b0b 	stmdbmi	fp, {r0, r1, r3, r8, r9, fp, ip, sp}
    1d78:	000b3813 	andeq	r3, fp, r3, lsl r8
    1d7c:	01131200 	tsteq	r3, r0, lsl #4
    1d80:	050b0e03 	streq	r0, [fp, #-3587]	; 0xfffff1fd
    1d84:	0b3b0b3a 	bleq	ec4a74 <__bss_end__+0xebaa44>
    1d88:	00001301 	andeq	r1, r0, r1, lsl #6
    1d8c:	03000d13 	movweq	r0, #3347	; 0xd13
    1d90:	3b0b3a0e 	blcc	2d05d0 <__bss_end__+0x2c65a0>
    1d94:	3813490b 	ldmdacc	r3, {r0, r1, r3, r8, fp, lr}
    1d98:	14000005 	strne	r0, [r0], #-5
    1d9c:	19270015 	stmdbne	r7!, {r0, r2, r4}
    1da0:	15150000 	ldrne	r0, [r5, #-0]
    1da4:	49192701 	ldmdbmi	r9, {r0, r8, r9, sl, sp}
    1da8:	00130113 	andseq	r0, r3, r3, lsl r1
    1dac:	00051600 	andeq	r1, r5, r0, lsl #12
    1db0:	00001349 	andeq	r1, r0, r9, asr #6
    1db4:	03011317 	movweq	r1, #4887	; 0x1317
    1db8:	3a050b0e 	bcc	1449f8 <__bss_end__+0x13a9c8>
    1dbc:	01053b0b 	tsteq	r5, fp, lsl #22
    1dc0:	18000013 	stmdane	r0, {r0, r1, r4}
    1dc4:	0e03000d 	cdpeq	0, 0, cr0, cr3, cr13, {0}
    1dc8:	053b0b3a 	ldreq	r0, [fp, #-2874]!	; 0xfffff4c6
    1dcc:	0b381349 	bleq	e06af8 <__bss_end__+0xdfcac8>
    1dd0:	0d190000 	ldceq	0, cr0, [r9, #-0]
    1dd4:	3a0e0300 	bcc	3829dc <__bss_end__+0x3789ac>
    1dd8:	49053b0b 	stmdbmi	r5, {r0, r1, r3, r8, r9, fp, ip, sp}
    1ddc:	00053813 	andeq	r3, r5, r3, lsl r8
    1de0:	01131a00 	tsteq	r3, r0, lsl #20
    1de4:	0b0b0e03 	bleq	2c55f8 <__bss_end__+0x2bb5c8>
    1de8:	053b0b3a 	ldreq	r0, [fp, #-2874]!	; 0xfffff4c6
    1dec:	00001301 	andeq	r1, r0, r1, lsl #6
    1df0:	0b01131b 	bleq	46a64 <__bss_end__+0x3ca34>
    1df4:	3b0b3a0b 	blcc	2d0628 <__bss_end__+0x2c65f8>
    1df8:	00130105 	andseq	r0, r3, r5, lsl #2
    1dfc:	01171c00 	tsteq	r7, r0, lsl #24
    1e00:	0b3a0b0b 	bleq	e84a34 <__bss_end__+0xe7aa04>
    1e04:	1301053b 	movwne	r0, #5435	; 0x153b
    1e08:	0d1d0000 	ldceq	0, cr0, [sp, #-0]
    1e0c:	3a0e0300 	bcc	382a14 <__bss_end__+0x3789e4>
    1e10:	49053b0b 	stmdbmi	r5, {r0, r1, r3, r8, r9, fp, ip, sp}
    1e14:	1e000013 	mcrne	0, 0, r0, cr0, cr3, {0}
    1e18:	19270115 	stmdbne	r7!, {r0, r2, r4, r8}
    1e1c:	00001301 	andeq	r1, r0, r1, lsl #6
    1e20:	0300341f 	movweq	r3, #1055	; 0x41f
    1e24:	3b0b3a0e 	blcc	2d0664 <__bss_end__+0x2c6634>
    1e28:	3f134905 	svccc	0x00134905
    1e2c:	00193c19 	andseq	r3, r9, r9, lsl ip
    1e30:	00342000 	eorseq	r2, r4, r0
    1e34:	0b3a0e03 	bleq	e85648 <__bss_end__+0xe7b618>
    1e38:	13490b3b 	movtne	r0, #39739	; 0x9b3b
    1e3c:	193c193f 	ldmdbne	ip!, {r0, r1, r2, r3, r4, r5, r8, fp, ip}
    1e40:	04210000 	strteq	r0, [r1], #-0
    1e44:	490b0b01 	stmdbmi	fp, {r0, r8, r9, fp}
    1e48:	3b0b3a13 	blcc	2d069c <__bss_end__+0x2c666c>
    1e4c:	0013010b 	andseq	r0, r3, fp, lsl #2
    1e50:	00282200 	eoreq	r2, r8, r0, lsl #4
    1e54:	0b1c0e03 	bleq	705668 <__bss_end__+0x6fb638>
    1e58:	34230000 	strtcc	r0, [r3], #-0
    1e5c:	3a0e0300 	bcc	382a64 <__bss_end__+0x378a34>
    1e60:	490b3b0b 	stmdbmi	fp, {r0, r1, r3, r8, r9, fp, ip, sp}
    1e64:	00061c13 	andeq	r1, r6, r3, lsl ip
    1e68:	012e2400 			; <UNDEFINED> instruction: 0x012e2400
    1e6c:	0e03193f 			; <UNDEFINED> instruction: 0x0e03193f
    1e70:	0b3b0b3a 	bleq	ec4b60 <__bss_end__+0xebab30>
    1e74:	13491927 	movtne	r1, #39207	; 0x9927
    1e78:	06120111 			; <UNDEFINED> instruction: 0x06120111
    1e7c:	42971840 	addsmi	r1, r7, #64, 16	; 0x400000
    1e80:	00130119 	andseq	r0, r3, r9, lsl r1
    1e84:	82892500 	addhi	r2, r9, #0, 10
    1e88:	01110001 	tsteq	r1, r1
    1e8c:	00001331 	andeq	r1, r0, r1, lsr r3
    1e90:	3f012e26 	svccc	0x00012e26
    1e94:	3a0e0319 	bcc	382b00 <__bss_end__+0x378ad0>
    1e98:	270b3b0b 	strcs	r3, [fp, -fp, lsl #22]
    1e9c:	12011119 	andne	r1, r1, #1073741830	; 0x40000006
    1ea0:	97184006 	ldrls	r4, [r8, -r6]
    1ea4:	13011942 	movwne	r1, #6466	; 0x1942
    1ea8:	05270000 	streq	r0, [r7, #-0]!
    1eac:	3a080300 	bcc	202ab4 <__bss_end__+0x1f8a84>
    1eb0:	490b3b0b 	stmdbmi	fp, {r0, r1, r3, r8, r9, fp, ip, sp}
    1eb4:	00170213 	andseq	r0, r7, r3, lsl r2
    1eb8:	82892800 	addhi	r2, r9, #0, 16
    1ebc:	01110101 	tsteq	r1, r1, lsl #2
    1ec0:	13011331 	movwne	r1, #4913	; 0x1331
    1ec4:	8a290000 	bhi	a41ecc <__bss_end__+0xa37e9c>
    1ec8:	02000182 	andeq	r0, r0, #-2147483616	; 0x80000020
    1ecc:	18429118 	stmdane	r2, {r3, r4, r8, ip, pc}^
    1ed0:	342a0000 	strtcc	r0, [sl], #-0
    1ed4:	3a080300 	bcc	202adc <__bss_end__+0x1f8aac>
    1ed8:	490b3b0b 	stmdbmi	fp, {r0, r1, r3, r8, r9, fp, ip, sp}
    1edc:	00180213 	andseq	r0, r8, r3, lsl r2
    1ee0:	82892b00 	addhi	r2, r9, #0, 22
    1ee4:	01110101 	tsteq	r1, r1, lsl #2
    1ee8:	00001331 	andeq	r1, r0, r1, lsr r3
    1eec:	03012e2c 	movweq	r2, #7724	; 0x1e2c
    1ef0:	3b0b3a0e 	blcc	2d0730 <__bss_end__+0x2c6700>
    1ef4:	1119270b 	tstne	r9, fp, lsl #14
    1ef8:	40061201 	andmi	r1, r6, r1, lsl #4
    1efc:	19429718 	stmdbne	r2, {r3, r4, r8, r9, sl, ip, pc}^
    1f00:	00001301 	andeq	r1, r0, r1, lsl #6
    1f04:	0300052d 	movweq	r0, #1325	; 0x52d
    1f08:	3b0b3a0e 	blcc	2d0748 <__bss_end__+0x2c6718>
    1f0c:	0213490b 	andseq	r4, r3, #180224	; 0x2c000
    1f10:	2e000017 	mcrcs	0, 0, r0, cr0, cr7, {0}
    1f14:	00000035 	andeq	r0, r0, r5, lsr r0
    1f18:	3f002e2f 	svccc	0x00002e2f
    1f1c:	6e193c19 	mrcvs	12, 0, r3, cr9, cr9, {0}
    1f20:	3a0e030e 	bcc	382b60 <__bss_end__+0x378b30>
    1f24:	000b3b0b 	andeq	r3, fp, fp, lsl #22
    1f28:	11010000 	mrsne	r0, (UNDEF: 1)
    1f2c:	130e2501 	movwne	r2, #58625	; 0xe501
    1f30:	1b0e030b 	blne	382b64 <__bss_end__+0x378b34>
    1f34:	1201110e 	andne	r1, r1, #-2147483645	; 0x80000003
    1f38:	00171006 	andseq	r1, r7, r6
    1f3c:	00240200 	eoreq	r0, r4, r0, lsl #4
    1f40:	0b3e0b0b 	bleq	f84b74 <__bss_end__+0xf7ab44>
    1f44:	00000803 	andeq	r0, r0, r3, lsl #16
    1f48:	0b002403 	bleq	af5c <__bss_end__+0xf2c>
    1f4c:	030b3e0b 	movweq	r3, #48651	; 0xbe0b
    1f50:	0400000e 	streq	r0, [r0], #-14
    1f54:	13490026 	movtne	r0, #36902	; 0x9026
    1f58:	16050000 	strne	r0, [r5], -r0
    1f5c:	3a0e0300 	bcc	382b64 <__bss_end__+0x378b34>
    1f60:	490b3b0b 	stmdbmi	fp, {r0, r1, r3, r8, r9, fp, ip, sp}
    1f64:	06000013 			; <UNDEFINED> instruction: 0x06000013
    1f68:	0e030016 	mcreq	0, 0, r0, cr3, cr6, {0}
    1f6c:	053b0b3a 	ldreq	r0, [fp, #-2874]!	; 0xfffff4c6
    1f70:	00001349 	andeq	r1, r0, r9, asr #6
    1f74:	0b011707 	bleq	47b98 <__bss_end__+0x3db68>
    1f78:	3b0b3a0b 	blcc	2d07ac <__bss_end__+0x2c677c>
    1f7c:	0013010b 	andseq	r0, r3, fp, lsl #2
    1f80:	000d0800 	andeq	r0, sp, r0, lsl #16
    1f84:	0b3a0e03 	bleq	e85798 <__bss_end__+0xe7b768>
    1f88:	13490b3b 	movtne	r0, #39739	; 0x9b3b
    1f8c:	01090000 	mrseq	r0, (UNDEF: 9)
    1f90:	01134901 	tsteq	r3, r1, lsl #18
    1f94:	0a000013 	beq	1fe8 <_start-0x6018>
    1f98:	13490021 	movtne	r0, #36897	; 0x9021
    1f9c:	00000b2f 	andeq	r0, r0, pc, lsr #22
    1fa0:	0b01130b 	bleq	46bd4 <__bss_end__+0x3cba4>
    1fa4:	3b0b3a0b 	blcc	2d07d8 <__bss_end__+0x2c67a8>
    1fa8:	0013010b 	andseq	r0, r3, fp, lsl #2
    1fac:	000d0c00 	andeq	r0, sp, r0, lsl #24
    1fb0:	0b3a0e03 	bleq	e857c4 <__bss_end__+0xe7b794>
    1fb4:	13490b3b 	movtne	r0, #39739	; 0x9b3b
    1fb8:	00000b38 	andeq	r0, r0, r8, lsr fp
    1fbc:	0b000f0d 	bleq	5bf8 <_start-0x2408>
    1fc0:	0e00000b 	cdpeq	0, 0, cr0, cr0, cr11, {0}
    1fc4:	0b0b000f 	bleq	2c2008 <__bss_end__+0x2b7fd8>
    1fc8:	00001349 	andeq	r1, r0, r9, asr #6
    1fcc:	0301130f 	movweq	r1, #4879	; 0x130f
    1fd0:	3a0b0b0e 	bcc	2c4c10 <__bss_end__+0x2babe0>
    1fd4:	010b3b0b 	tsteq	fp, fp, lsl #22
    1fd8:	10000013 	andne	r0, r0, r3, lsl r0
    1fdc:	0803000d 	stmdaeq	r3, {r0, r2, r3}
    1fe0:	0b3b0b3a 	bleq	ec4cd0 <__bss_end__+0xebaca0>
    1fe4:	0b381349 	bleq	e06d10 <__bss_end__+0xdfcce0>
    1fe8:	13110000 	tstne	r1, #0
    1fec:	0b0e0301 	bleq	382bf8 <__bss_end__+0x378bc8>
    1ff0:	3b0b3a05 	blcc	2d080c <__bss_end__+0x2c67dc>
    1ff4:	0013010b 	andseq	r0, r3, fp, lsl #2
    1ff8:	000d1200 	andeq	r1, sp, r0, lsl #4
    1ffc:	0b3a0e03 	bleq	e85810 <__bss_end__+0xe7b7e0>
    2000:	13490b3b 	movtne	r0, #39739	; 0x9b3b
    2004:	00000538 	andeq	r0, r0, r8, lsr r5
    2008:	27001513 	smladcs	r0, r3, r5, r1
    200c:	14000019 	strne	r0, [r0], #-25	; 0xffffffe7
    2010:	19270115 	stmdbne	r7!, {r0, r2, r4, r8}
    2014:	13011349 	movwne	r1, #4937	; 0x1349
    2018:	05150000 	ldreq	r0, [r5, #-0]
    201c:	00134900 	andseq	r4, r3, r0, lsl #18
    2020:	01131600 	tsteq	r3, r0, lsl #12
    2024:	050b0e03 	streq	r0, [fp, #-3587]	; 0xfffff1fd
    2028:	053b0b3a 	ldreq	r0, [fp, #-2874]!	; 0xfffff4c6
    202c:	00001301 	andeq	r1, r0, r1, lsl #6
    2030:	03000d17 	movweq	r0, #3351	; 0xd17
    2034:	3b0b3a0e 	blcc	2d0874 <__bss_end__+0x2c6844>
    2038:	38134905 	ldmdacc	r3, {r0, r2, r8, fp, lr}
    203c:	1800000b 	stmdane	r0, {r0, r1, r3}
    2040:	0e03000d 	cdpeq	0, 0, cr0, cr3, cr13, {0}
    2044:	053b0b3a 	ldreq	r0, [fp, #-2874]!	; 0xfffff4c6
    2048:	05381349 	ldreq	r1, [r8, #-841]!	; 0xfffffcb7
    204c:	13190000 	tstne	r9, #0
    2050:	0b0e0301 	bleq	382c5c <__bss_end__+0x378c2c>
    2054:	3b0b3a0b 	blcc	2d0888 <__bss_end__+0x2c6858>
    2058:	00130105 	andseq	r0, r3, r5, lsl #2
    205c:	01131a00 	tsteq	r3, r0, lsl #20
    2060:	0b3a0b0b 	bleq	e84c94 <__bss_end__+0xe7ac64>
    2064:	1301053b 	movwne	r0, #5435	; 0x153b
    2068:	171b0000 	ldrne	r0, [fp, -r0]
    206c:	3a0b0b01 	bcc	2c4c78 <__bss_end__+0x2bac48>
    2070:	01053b0b 	tsteq	r5, fp, lsl #22
    2074:	1c000013 	stcne	0, cr0, [r0], {19}
    2078:	0e03000d 	cdpeq	0, 0, cr0, cr3, cr13, {0}
    207c:	053b0b3a 	ldreq	r0, [fp, #-2874]!	; 0xfffff4c6
    2080:	00001349 	andeq	r1, r0, r9, asr #6
    2084:	2701151d 	smladcs	r1, sp, r5, r1
    2088:	00130119 	andseq	r0, r3, r9, lsl r1
    208c:	00341e00 	eorseq	r1, r4, r0, lsl #28
    2090:	0b3a0e03 	bleq	e858a4 <__bss_end__+0xe7b874>
    2094:	1349053b 	movtne	r0, #38203	; 0x953b
    2098:	193c193f 	ldmdbne	ip!, {r0, r1, r2, r3, r4, r5, r8, fp, ip}
    209c:	341f0000 	ldrcc	r0, [pc], #-0	; 20a4 <_start-0x5f5c>
    20a0:	3a0e0300 	bcc	382ca8 <__bss_end__+0x378c78>
    20a4:	490b3b0b 	stmdbmi	fp, {r0, r1, r3, r8, r9, fp, ip, sp}
    20a8:	3c193f13 	ldccc	15, cr3, [r9], {19}
    20ac:	20000019 	andcs	r0, r0, r9, lsl r0
    20b0:	0b0b0104 	bleq	2c24c8 <__bss_end__+0x2b8498>
    20b4:	0b3a1349 	bleq	e86de0 <__bss_end__+0xe7cdb0>
    20b8:	13010b3b 	movwne	r0, #6971	; 0x1b3b
    20bc:	28210000 	stmdacs	r1!, {}	; <UNPREDICTABLE>
    20c0:	1c0e0300 	stcne	3, cr0, [lr], {-0}
    20c4:	2200000b 	andcs	r0, r0, #11
    20c8:	0e030034 	mcreq	0, 0, r0, cr3, cr4, {1}
    20cc:	0b3b0b3a 	bleq	ec4dbc <__bss_end__+0xebad8c>
    20d0:	061c1349 	ldreq	r1, [ip], -r9, asr #6
    20d4:	2e230000 	cdpcs	0, 2, cr0, cr3, cr0, {0}
    20d8:	03193f01 	tsteq	r9, #1, 30
    20dc:	3b0b3a0e 	blcc	2d091c <__bss_end__+0x2c68ec>
    20e0:	4919270b 	ldmdbmi	r9, {r0, r1, r3, r8, r9, sl, sp}
    20e4:	12011113 	andne	r1, r1, #-1073741820	; 0xc0000004
    20e8:	97184006 	ldrls	r4, [r8, -r6]
    20ec:	13011942 	movwne	r1, #6466	; 0x1942
    20f0:	05240000 	streq	r0, [r4, #-0]!
    20f4:	3a080300 	bcc	202cfc <__bss_end__+0x1f8ccc>
    20f8:	490b3b0b 	stmdbmi	fp, {r0, r1, r3, r8, r9, fp, ip, sp}
    20fc:	00170213 	andseq	r0, r7, r3, lsl r2
    2100:	00342500 	eorseq	r2, r4, r0, lsl #10
    2104:	0b3a0e03 	bleq	e85918 <__bss_end__+0xe7b8e8>
    2108:	13490b3b 	movtne	r0, #39739	; 0x9b3b
    210c:	00001702 	andeq	r1, r0, r2, lsl #14
    2110:	03003426 	movweq	r3, #1062	; 0x426
    2114:	3b0b3a08 	blcc	2d093c <__bss_end__+0x2c690c>
    2118:	0213490b 	andseq	r4, r3, #180224	; 0x2c000
    211c:	27000017 	smladcs	r0, r7, r0, r0
    2120:	01018289 	smlabbeq	r1, r9, r2, r8
    2124:	13310111 	teqne	r1, #1073741828	; 0x40000004
    2128:	8a280000 	bhi	a02130 <__bss_end__+0x9f8100>
    212c:	02000182 	andeq	r0, r0, #-2147483616	; 0x80000020
    2130:	18429118 	stmdane	r2, {r3, r4, r8, ip, pc}^
    2134:	2e290000 	cdpcs	0, 2, cr0, cr9, cr0, {0}
    2138:	03193f01 	tsteq	r9, #1, 30
    213c:	3b0b3a0e 	blcc	2d097c <__bss_end__+0x2c694c>
    2140:	1119270b 	tstne	r9, fp, lsl #14
    2144:	40061201 	andmi	r1, r6, r1, lsl #4
    2148:	19429718 	stmdbne	r2, {r3, r4, r8, r9, sl, ip, pc}^
    214c:	00001301 	andeq	r1, r0, r1, lsl #6
    2150:	0182892a 	orreq	r8, r2, sl, lsr #18
    2154:	31011101 	tstcc	r1, r1, lsl #2
    2158:	00130113 	andseq	r0, r3, r3, lsl r1
    215c:	82892b00 	addhi	r2, r9, #0, 22
    2160:	01110001 	tsteq	r1, r1
    2164:	00001331 	andeq	r1, r0, r1, lsr r3
    2168:	0300052c 	movweq	r0, #1324	; 0x52c
    216c:	3b0b3a0e 	blcc	2d09ac <__bss_end__+0x2c697c>
    2170:	0213490b 	andseq	r4, r3, #180224	; 0x2c000
    2174:	2d000017 	stccs	0, cr0, [r0, #-92]	; 0xffffffa4
    2178:	08030034 	stmdaeq	r3, {r2, r4, r5}
    217c:	0b3b0b3a 	bleq	ec4e6c <__bss_end__+0xebae3c>
    2180:	18021349 	stmdane	r2, {r0, r3, r6, r8, r9, ip}
    2184:	2e2e0000 	cdpcs	0, 2, cr0, cr14, cr0, {0}
    2188:	3c193f00 	ldccc	15, cr3, [r9], {-0}
    218c:	030e6e19 	movweq	r6, #60953	; 0xee19
    2190:	3b0b3a0e 	blcc	2d09d0 <__bss_end__+0x2c69a0>
    2194:	0000000b 	andeq	r0, r0, fp
    2198:	25011101 	strcs	r1, [r1, #-257]	; 0xfffffeff
    219c:	030b130e 	movweq	r1, #45838	; 0xb30e
    21a0:	110e1b0e 	tstne	lr, lr, lsl #22
    21a4:	10061201 	andne	r1, r6, r1, lsl #4
    21a8:	02000017 	andeq	r0, r0, #23
    21ac:	0b0b0024 	bleq	2c2244 <__bss_end__+0x2b8214>
    21b0:	08030b3e 	stmdaeq	r3, {r1, r2, r3, r4, r5, r8, r9, fp}
    21b4:	24030000 	strcs	r0, [r3], #-0
    21b8:	3e0b0b00 	vmlacc.f64	d0, d11, d0
    21bc:	000e030b 	andeq	r0, lr, fp, lsl #6
    21c0:	00160400 	andseq	r0, r6, r0, lsl #8
    21c4:	0b3a0e03 	bleq	e859d8 <__bss_end__+0xe7b9a8>
    21c8:	13490b3b 	movtne	r0, #39739	; 0x9b3b
    21cc:	16050000 	strne	r0, [r5], -r0
    21d0:	3a0e0300 	bcc	382dd8 <__bss_end__+0x378da8>
    21d4:	49053b0b 	stmdbmi	r5, {r0, r1, r3, r8, r9, fp, ip, sp}
    21d8:	06000013 			; <UNDEFINED> instruction: 0x06000013
    21dc:	0b0b0117 	bleq	2c2640 <__bss_end__+0x2b8610>
    21e0:	0b3b0b3a 	bleq	ec4ed0 <__bss_end__+0xebaea0>
    21e4:	00001301 	andeq	r1, r0, r1, lsl #6
    21e8:	03000d07 	movweq	r0, #3335	; 0xd07
    21ec:	3b0b3a0e 	blcc	2d0a2c <__bss_end__+0x2c69fc>
    21f0:	0013490b 	andseq	r4, r3, fp, lsl #18
    21f4:	01010800 	tsteq	r1, r0, lsl #16
    21f8:	13011349 	movwne	r1, #4937	; 0x1349
    21fc:	21090000 	mrscs	r0, (UNDEF: 9)
    2200:	2f134900 	svccs	0x00134900
    2204:	0a00000b 	beq	2238 <_start-0x5dc8>
    2208:	0b0b0113 	bleq	2c265c <__bss_end__+0x2b862c>
    220c:	0b3b0b3a 	bleq	ec4efc <__bss_end__+0xebaecc>
    2210:	00001301 	andeq	r1, r0, r1, lsl #6
    2214:	03000d0b 	movweq	r0, #3339	; 0xd0b
    2218:	3b0b3a0e 	blcc	2d0a58 <__bss_end__+0x2c6a28>
    221c:	3813490b 	ldmdacc	r3, {r0, r1, r3, r8, fp, lr}
    2220:	0c00000b 	stceq	0, cr0, [r0], {11}
    2224:	0b0b000f 	bleq	2c2268 <__bss_end__+0x2b8238>
    2228:	0f0d0000 	svceq	0x000d0000
    222c:	490b0b00 	stmdbmi	fp, {r8, r9, fp}
    2230:	0e000013 	mcreq	0, 0, r0, cr0, cr3, {0}
    2234:	13490026 	movtne	r0, #36902	; 0x9026
    2238:	130f0000 	movwne	r0, #61440	; 0xf000
    223c:	0b0e0301 	bleq	382e48 <__bss_end__+0x378e18>
    2240:	3b0b3a0b 	blcc	2d0a74 <__bss_end__+0x2c6a44>
    2244:	0013010b 	andseq	r0, r3, fp, lsl #2
    2248:	000d1000 	andeq	r1, sp, r0
    224c:	0b3a0803 	bleq	e84260 <__bss_end__+0xe7a230>
    2250:	13490b3b 	movtne	r0, #39739	; 0x9b3b
    2254:	00000b38 	andeq	r0, r0, r8, lsr fp
    2258:	03011311 	movweq	r1, #4881	; 0x1311
    225c:	3a050b0e 	bcc	144e9c <__bss_end__+0x13ae6c>
    2260:	010b3b0b 	tsteq	fp, fp, lsl #22
    2264:	12000013 	andne	r0, r0, #19
    2268:	0e03000d 	cdpeq	0, 0, cr0, cr3, cr13, {0}
    226c:	0b3b0b3a 	bleq	ec4f5c <__bss_end__+0xebaf2c>
    2270:	05381349 	ldreq	r1, [r8, #-841]!	; 0xfffffcb7
    2274:	15130000 	ldrne	r0, [r3, #-0]
    2278:	00192700 	andseq	r2, r9, r0, lsl #14
    227c:	01151400 	tsteq	r5, r0, lsl #8
    2280:	13491927 	movtne	r1, #39207	; 0x9927
    2284:	00001301 	andeq	r1, r0, r1, lsl #6
    2288:	49000515 	stmdbmi	r0, {r0, r2, r4, r8, sl}
    228c:	16000013 			; <UNDEFINED> instruction: 0x16000013
    2290:	0e030113 	mcreq	1, 0, r0, cr3, cr3, {0}
    2294:	0b3a050b 	bleq	e836c8 <__bss_end__+0xe79698>
    2298:	1301053b 	movwne	r0, #5435	; 0x153b
    229c:	0d170000 	ldceq	0, cr0, [r7, #-0]
    22a0:	3a0e0300 	bcc	382ea8 <__bss_end__+0x378e78>
    22a4:	49053b0b 	stmdbmi	r5, {r0, r1, r3, r8, r9, fp, ip, sp}
    22a8:	000b3813 	andeq	r3, fp, r3, lsl r8
    22ac:	000d1800 	andeq	r1, sp, r0, lsl #16
    22b0:	0b3a0e03 	bleq	e85ac4 <__bss_end__+0xe7ba94>
    22b4:	1349053b 	movtne	r0, #38203	; 0x953b
    22b8:	00000538 	andeq	r0, r0, r8, lsr r5
    22bc:	03011319 	movweq	r1, #4889	; 0x1319
    22c0:	3a0b0b0e 	bcc	2c4f00 <__bss_end__+0x2baed0>
    22c4:	01053b0b 	tsteq	r5, fp, lsl #22
    22c8:	1a000013 	bne	231c <_start-0x5ce4>
    22cc:	0b0b0113 	bleq	2c2720 <__bss_end__+0x2b86f0>
    22d0:	053b0b3a 	ldreq	r0, [fp, #-2874]!	; 0xfffff4c6
    22d4:	00001301 	andeq	r1, r0, r1, lsl #6
    22d8:	0b01171b 	bleq	47f4c <__bss_end__+0x3df1c>
    22dc:	3b0b3a0b 	blcc	2d0b10 <__bss_end__+0x2c6ae0>
    22e0:	00130105 	andseq	r0, r3, r5, lsl #2
    22e4:	000d1c00 	andeq	r1, sp, r0, lsl #24
    22e8:	0b3a0e03 	bleq	e85afc <__bss_end__+0xe7bacc>
    22ec:	1349053b 	movtne	r0, #38203	; 0x953b
    22f0:	151d0000 	ldrne	r0, [sp, #-0]
    22f4:	01192701 	tsteq	r9, r1, lsl #14
    22f8:	1e000013 	mcrne	0, 0, r0, cr0, cr3, {0}
    22fc:	0e030034 	mcreq	0, 0, r0, cr3, cr4, {1}
    2300:	053b0b3a 	ldreq	r0, [fp, #-2874]!	; 0xfffff4c6
    2304:	193f1349 	ldmdbne	pc!, {r0, r3, r6, r8, r9, ip}	; <UNPREDICTABLE>
    2308:	0000193c 	andeq	r1, r0, ip, lsr r9
    230c:	0300341f 	movweq	r3, #1055	; 0x41f
    2310:	3b0b3a0e 	blcc	2d0b50 <__bss_end__+0x2c6b20>
    2314:	3f13490b 	svccc	0x0013490b
    2318:	00193c19 	andseq	r3, r9, r9, lsl ip
    231c:	00342000 	eorseq	r2, r4, r0
    2320:	0b3a0e03 	bleq	e85b34 <__bss_end__+0xe7bb04>
    2324:	13490b3b 	movtne	r0, #39739	; 0x9b3b
    2328:	00001802 	andeq	r1, r0, r2, lsl #16
    232c:	3f012e21 	svccc	0x00012e21
    2330:	3a0e0319 	bcc	382f9c <__bss_end__+0x378f6c>
    2334:	270b3b0b 	strcs	r3, [fp, -fp, lsl #22]
    2338:	12011119 	andne	r1, r1, #1073741830	; 0x40000006
    233c:	97184006 	ldrls	r4, [r8, -r6]
    2340:	13011942 	movwne	r1, #6466	; 0x1942
    2344:	05220000 	streq	r0, [r2, #-0]!
    2348:	3a080300 	bcc	202f50 <__bss_end__+0x1f8f20>
    234c:	490b3b0b 	stmdbmi	fp, {r0, r1, r3, r8, r9, fp, ip, sp}
    2350:	00180213 	andseq	r0, r8, r3, lsl r2
    2354:	002e2300 	eoreq	r2, lr, r0, lsl #6
    2358:	0e03193f 			; <UNDEFINED> instruction: 0x0e03193f
    235c:	0b3b0b3a 	bleq	ec504c <__bss_end__+0xebb01c>
    2360:	01111927 	tsteq	r1, r7, lsr #18
    2364:	18400612 	stmdane	r0, {r1, r4, r9, sl}^
    2368:	00194297 	mulseq	r9, r7, r2
    236c:	012e2400 			; <UNDEFINED> instruction: 0x012e2400
    2370:	0e03193f 			; <UNDEFINED> instruction: 0x0e03193f
    2374:	0b3b0b3a 	bleq	ec5064 <__bss_end__+0xebb034>
    2378:	13491927 	movtne	r1, #39207	; 0x9927
    237c:	06120111 			; <UNDEFINED> instruction: 0x06120111
    2380:	42971840 	addsmi	r1, r7, #64, 16	; 0x400000
    2384:	00130119 	andseq	r0, r3, r9, lsl r1
    2388:	00052500 	andeq	r2, r5, r0, lsl #10
    238c:	0b3a0e03 	bleq	e85ba0 <__bss_end__+0xe7bb70>
    2390:	13490b3b 	movtne	r0, #39739	; 0x9b3b
    2394:	00001702 	andeq	r1, r0, r2, lsl #14
    2398:	03003426 	movweq	r3, #1062	; 0x426
    239c:	3413490e 	ldrcc	r4, [r3], #-2318	; 0xfffff6f2
    23a0:	00180219 	andseq	r0, r8, r9, lsl r2
    23a4:	00342700 	eorseq	r2, r4, r0, lsl #14
    23a8:	0b3a0803 	bleq	e843bc <__bss_end__+0xe7a38c>
    23ac:	13490b3b 	movtne	r0, #39739	; 0x9b3b
    23b0:	00001702 	andeq	r1, r0, r2, lsl #14
    23b4:	01828928 	orreq	r8, r2, r8, lsr #18
    23b8:	31011101 	tstcc	r1, r1, lsl #2
    23bc:	00130113 	andseq	r0, r3, r3, lsl r1
    23c0:	828a2900 	addhi	r2, sl, #0, 18
    23c4:	18020001 	stmdane	r2, {r0}
    23c8:	00184291 	mulseq	r8, r1, r2
    23cc:	82892a00 	addhi	r2, r9, #0, 20
    23d0:	01110001 	tsteq	r1, r1
    23d4:	00001331 	andeq	r1, r0, r1, lsr r3
    23d8:	0300052b 	movweq	r0, #1323	; 0x52b
    23dc:	3b0b3a08 	blcc	2d0c04 <__bss_end__+0x2c6bd4>
    23e0:	0213490b 	andseq	r4, r3, #180224	; 0x2c000
    23e4:	2c000017 	stccs	0, cr0, [r0], {23}
    23e8:	0e030034 	mcreq	0, 0, r0, cr3, cr4, {1}
    23ec:	0b3b0b3a 	bleq	ec50dc <__bss_end__+0xebb0ac>
    23f0:	17021349 	strne	r1, [r2, -r9, asr #6]
    23f4:	2e2d0000 	cdpcs	0, 2, cr0, cr13, cr0, {0}
    23f8:	03193f00 	tsteq	r9, #0, 30
    23fc:	3b0b3a0e 	blcc	2d0c3c <__bss_end__+0x2c6c0c>
    2400:	4919270b 	ldmdbmi	r9, {r0, r1, r3, r8, r9, sl, sp}
    2404:	12011113 	andne	r1, r1, #-1073741820	; 0xc0000004
    2408:	97184006 	ldrls	r4, [r8, -r6]
    240c:	00001942 	andeq	r1, r0, r2, asr #18
    2410:	3f002e2e 	svccc	0x00002e2e
    2414:	6e193c19 	mrcvs	12, 0, r3, cr9, cr9, {0}
    2418:	3a0e030e 	bcc	383058 <__bss_end__+0x379028>
    241c:	000b3b0b 	andeq	r3, fp, fp, lsl #22
	...

Disassembly of section .debug_loc:

00000000 <.debug_loc>:
       0:	00000000 	andeq	r0, r0, r0
       4:	00000044 	andeq	r0, r0, r4, asr #32
       8:	0000004f 	andeq	r0, r0, pc, asr #32
       c:	4f500001 	svcmi	0x00500001
      10:	fc000000 	stc2	0, cr0, [r0], {-0}
      14:	01000000 	mrseq	r0, (UNDEF: 0)
      18:	00005400 	andeq	r5, r0, r0, lsl #8
	...
      24:	0000072c 	andeq	r0, r0, ip, lsr #14
      28:	00000754 	andeq	r0, r0, r4, asr r7
      2c:	00550001 	subseq	r0, r5, r1
	...
      38:	00073400 	andeq	r3, r7, r0, lsl #8
      3c:	00075800 	andeq	r5, r7, r0, lsl #16
      40:	56000100 	strpl	r0, [r0], -r0, lsl #2
	...
      4c:	00000002 	andeq	r0, r0, r2
      50:	0000074c 	andeq	r0, r0, ip, asr #14
      54:	0000075c 	andeq	r0, r0, ip, asr r7
      58:	9f300002 	svcls	0x00300002
      5c:	0000075c 	andeq	r0, r0, ip, asr r7
      60:	00000868 	andeq	r0, r0, r8, ror #16
      64:	00560001 	subseq	r0, r6, r1
      68:	00000000 	andeq	r0, r0, r0
      6c:	03000000 	movweq	r0, #0
      70:	4c000000 	stcmi	0, cr0, [r0], {-0}
      74:	5c000007 	stcpl	0, cr0, [r0], {7}
      78:	02000007 	andeq	r0, r0, #7
      7c:	5c9f3000 	ldcpl	0, cr3, [pc], {0}
      80:	68000007 	stmdavs	r0, {r0, r1, r2}
      84:	01000008 	tsteq	r0, r8
      88:	00005500 	andeq	r5, r0, r0, lsl #10
	...
      94:	00000750 	andeq	r0, r0, r0, asr r7
      98:	00000868 	andeq	r0, r0, r8, ror #16
      9c:	00540001 	subseq	r0, r4, r1
	...
      b0:	0004fc00 	andeq	pc, r4, r0, lsl #24
      b4:	00052800 	andeq	r2, r5, r0, lsl #16
      b8:	50000100 	andpl	r0, r0, r0, lsl #2
      bc:	00000528 	andeq	r0, r0, r8, lsr #10
      c0:	00000624 	andeq	r0, r0, r4, lsr #12
      c4:	24550001 	ldrbcs	r0, [r5], #-1
      c8:	27000006 	strcs	r0, [r0, -r6]
      cc:	01000006 	tsteq	r0, r6
      d0:	06275000 	strteq	r5, [r7], -r0
      d4:	06400000 	strbeq	r0, [r0], -r0
      d8:	00040000 	andeq	r0, r4, r0
      dc:	9f5001f3 	svcls	0x005001f3
      e0:	00000640 	andeq	r0, r0, r0, asr #12
      e4:	00000718 	andeq	r0, r0, r8, lsl r7
      e8:	00550001 	subseq	r0, r5, r1
	...
      fc:	0004fc00 	andeq	pc, r4, r0, lsl #24
     100:	00052b00 	andeq	r2, r5, r0, lsl #22
     104:	51000100 	mrspl	r0, (UNDEF: 16)
     108:	0000052b 	andeq	r0, r0, fp, lsr #10
     10c:	00000624 	andeq	r0, r0, r4, lsr #12
     110:	24580001 	ldrbcs	r0, [r8], #-1
     114:	27000006 	strcs	r0, [r0, -r6]
     118:	01000006 	tsteq	r0, r6
     11c:	06275100 	strteq	r5, [r7], -r0, lsl #2
     120:	06400000 	strbeq	r0, [r0], -r0
     124:	00040000 	andeq	r0, r4, r0
     128:	9f5101f3 	svcls	0x005101f3
     12c:	00000640 	andeq	r0, r0, r0, asr #12
     130:	00000718 	andeq	r0, r0, r8, lsl r7
     134:	00580001 	subseq	r0, r8, r1
	...
     148:	0004fc00 	andeq	pc, r4, r0, lsl #24
     14c:	00052b00 	andeq	r2, r5, r0, lsl #22
     150:	52000100 	andpl	r0, r0, #0, 2
     154:	0000052b 	andeq	r0, r0, fp, lsr #10
     158:	00000624 	andeq	r0, r0, r4, lsr #12
     15c:	24570001 	ldrbcs	r0, [r7], #-1
     160:	27000006 	strcs	r0, [r0, -r6]
     164:	01000006 	tsteq	r0, r6
     168:	06275200 	strteq	r5, [r7], -r0, lsl #4
     16c:	06400000 	strbeq	r0, [r0], -r0
     170:	00040000 	andeq	r0, r4, r0
     174:	9f5201f3 	svcls	0x005201f3
     178:	00000640 	andeq	r0, r0, r0, asr #12
     17c:	00000718 	andeq	r0, r0, r8, lsl r7
     180:	00570001 	subseq	r0, r7, r1
	...
     194:	0004fc00 	andeq	pc, r4, r0, lsl #24
     198:	00050c00 	andeq	r0, r5, r0, lsl #24
     19c:	53000100 	movwpl	r0, #256	; 0x100
     1a0:	0000050c 	andeq	r0, r0, ip, lsl #10
     1a4:	000005b0 			; <UNDEFINED> instruction: 0x000005b0
     1a8:	b0560001 	subslt	r0, r6, r1
     1ac:	24000005 	strcs	r0, [r0], #-5
     1b0:	04000006 	streq	r0, [r0], #-6
     1b4:	5301f300 	movwpl	pc, #4864	; 0x1300	; <UNPREDICTABLE>
     1b8:	0006249f 	muleq	r6, pc, r4	; <UNPREDICTABLE>
     1bc:	0006c800 	andeq	ip, r6, r0, lsl #16
     1c0:	56000100 	strpl	r0, [r0], -r0, lsl #2
     1c4:	000006c8 	andeq	r0, r0, r8, asr #13
     1c8:	00000718 	andeq	r0, r0, r8, lsl r7
     1cc:	01f30004 	mvnseq	r0, r4
     1d0:	00009f53 	andeq	r9, r0, r3, asr pc
     1d4:	00000000 	andeq	r0, r0, r0
     1d8:	03010000 	movweq	r0, #4096	; 0x1000
     1dc:	00000003 	andeq	r0, r0, r3
     1e0:	05080000 	streq	r0, [r8, #-0]
     1e4:	05640000 	strbeq	r0, [r4, #-0]!
     1e8:	00020000 	andeq	r0, r2, r0
     1ec:	05649f30 	strbeq	r9, [r4, #-3888]!	; 0xfffff0d0
     1f0:	05fc0000 	ldrbeq	r0, [ip, #0]!
     1f4:	00010000 	andeq	r0, r1, r0
     1f8:	00062454 	andeq	r2, r6, r4, asr r4
     1fc:	0006c800 	andeq	ip, r6, r0, lsl #16
     200:	30000200 	andcc	r0, r0, r0, lsl #4
     204:	0006c89f 	muleq	r6, pc, r8	; <UNPREDICTABLE>
     208:	00071800 	andeq	r1, r7, r0, lsl #16
     20c:	54000100 	strpl	r0, [r0], #-256	; 0xffffff00
	...
     218:	00000002 	andeq	r0, r0, r2
     21c:	00000000 	andeq	r0, r0, r0
     220:	00000508 	andeq	r0, r0, r8, lsl #10
     224:	000005fc 	strdeq	r0, [r0], -ip
     228:	9f300002 	svcls	0x00300002
     22c:	000005fc 	strdeq	r0, [r0], -ip
     230:	00000600 	andeq	r0, r0, r0, lsl #12
     234:	00500001 	subseq	r0, r0, r1
     238:	24000006 	strcs	r0, [r0], #-6
     23c:	01000006 	tsteq	r0, r6
     240:	06245400 	strteq	r5, [r4], -r0, lsl #8
     244:	07180000 	ldreq	r0, [r8, -r0]
     248:	00020000 	andeq	r0, r2, r0
     24c:	00009f30 	andeq	r9, r0, r0, lsr pc
	...
     260:	05400000 	strbeq	r0, [r0, #-0]
     264:	056c0000 	strbeq	r0, [ip, #-0]!
     268:	00010000 	andeq	r0, r1, r0
     26c:	00056c50 	andeq	r6, r5, r0, asr ip
     270:	00062400 	andeq	r2, r6, r0, lsl #8
     274:	79000400 	stmdbvc	r0, {sl}
     278:	409f7dc8 	addsmi	r7, pc, r8, asr #27
     27c:	44000006 	strmi	r0, [r0], #-6
     280:	01000006 	tsteq	r0, r6
     284:	06445000 	strbeq	r5, [r4], -r0
     288:	06740000 	ldrbteq	r0, [r4], -r0
     28c:	00040000 	andeq	r0, r4, r0
     290:	9f7dc879 	svcls	0x007dc879
     294:	00000674 	andeq	r0, r0, r4, ror r6
     298:	00000678 	andeq	r0, r0, r8, ror r6
     29c:	78500001 	ldmdavc	r0, {r0}^
     2a0:	18000006 	stmdane	r0, {r1, r2}
     2a4:	04000007 	streq	r0, [r0], #-7
     2a8:	7dc87900 	vstrvc.16	s15, [r8]	; <UNPREDICTABLE>
     2ac:	0000009f 	muleq	r0, pc, r0	; <UNPREDICTABLE>
	...
     2b8:	00054400 	andeq	r4, r5, r0, lsl #8
     2bc:	00062400 	andeq	r2, r6, r0, lsl #8
     2c0:	59000100 	stmdbpl	r0, {r8}
     2c4:	00000640 	andeq	r0, r0, r0, asr #12
     2c8:	00000718 	andeq	r0, r0, r8, lsl r7
     2cc:	00590001 	subseq	r0, r9, r1
	...
     2d8:	44000000 	strmi	r0, [r0], #-0
     2dc:	5b000004 	blpl	2f4 <_start-0x7d0c>
     2e0:	01000004 	tsteq	r0, r4
     2e4:	045b5000 	ldrbeq	r5, [fp], #-0
     2e8:	04fc0000 	ldrbteq	r0, [ip], #0
     2ec:	00010000 	andeq	r0, r1, r0
     2f0:	00000055 	andeq	r0, r0, r5, asr r0
	...
     2fc:	00044400 	andeq	r4, r4, r0, lsl #8
     300:	00045b00 	andeq	r5, r4, r0, lsl #22
     304:	51000100 	mrspl	r0, (UNDEF: 16)
     308:	0000045b 	andeq	r0, r0, fp, asr r4
     30c:	000004fc 	strdeq	r0, [r0], -ip
     310:	00570001 	subseq	r0, r7, r1
	...
     31c:	44000000 	strmi	r0, [r0], #-0
     320:	5b000004 	blpl	338 <_start-0x7cc8>
     324:	01000004 	tsteq	r0, r4
     328:	045b5200 	ldrbeq	r5, [fp], #-512	; 0xfffffe00
     32c:	04fc0000 	ldrbteq	r0, [ip], #0
     330:	00010000 	andeq	r0, r1, r0
     334:	00000056 	andeq	r0, r0, r6, asr r0
	...
     340:	00044400 	andeq	r4, r4, r0, lsl #8
     344:	00045b00 	andeq	r5, r4, r0, lsl #22
     348:	53000100 	movwpl	r0, #256	; 0x100
     34c:	0000045b 	andeq	r0, r0, fp, asr r4
     350:	000004fc 	strdeq	r0, [r0], -ip
     354:	00580001 	subseq	r0, r8, r1
	...
     364:	00045c00 	andeq	r5, r4, r0, lsl #24
     368:	00047400 	andeq	r7, r4, r0, lsl #8
     36c:	50000100 	andpl	r0, r0, r0, lsl #2
     370:	00000474 	andeq	r0, r0, r4, ror r4
     374:	000004c8 	andeq	r0, r0, r8, asr #9
     378:	c8540001 	ldmdagt	r4, {r0}^
     37c:	cb000004 	blgt	394 <_start-0x7c6c>
     380:	01000004 	tsteq	r0, r4
     384:	00005000 	andeq	r5, r0, r0
	...
     390:	036c0000 	cmneq	ip, #0
     394:	03770000 	cmneq	r7, #0
     398:	00010000 	andeq	r0, r1, r0
     39c:	00037750 	andeq	r7, r3, r0, asr r7
     3a0:	0003d000 	andeq	sp, r3, r0
     3a4:	54000100 	strpl	r0, [r0], #-256	; 0xffffff00
	...
     3b4:	00000150 	andeq	r0, r0, r0, asr r1
     3b8:	0000015f 	andeq	r0, r0, pc, asr r1
     3bc:	5f500001 	svcpl	0x00500001
     3c0:	64000001 	strvs	r0, [r0], #-1
     3c4:	04000001 	streq	r0, [r0], #-1
     3c8:	5001f300 	andpl	pc, r1, r0, lsl #6
     3cc:	0000009f 	muleq	r0, pc, r0	; <UNPREDICTABLE>
	...
     3d8:	50000000 	andpl	r0, r0, r0
     3dc:	5c000001 	stcpl	0, cr0, [r0], {1}
     3e0:	01000001 	tsteq	r0, r1
     3e4:	015c5100 	cmpeq	ip, r0, lsl #2
     3e8:	015f0000 	cmpeq	pc, r0
     3ec:	00010000 	andeq	r0, r1, r0
     3f0:	00015f52 	andeq	r5, r1, r2, asr pc
     3f4:	00016400 	andeq	r6, r1, r0, lsl #8
     3f8:	f3000400 	vshl.u8	d0, d0, d0
     3fc:	009f5101 	addseq	r5, pc, r1, lsl #2
	...
     40c:	44000000 	strmi	r0, [r0], #-0
     410:	70000000 	andvc	r0, r0, r0
     414:	01000000 	mrseq	r0, (UNDEF: 0)
     418:	00705000 	rsbseq	r5, r0, r0
     41c:	012c0000 			; <UNDEFINED> instruction: 0x012c0000
     420:	00010000 	andeq	r0, r1, r0
     424:	00012c55 	andeq	r2, r1, r5, asr ip
     428:	00013000 	andeq	r3, r1, r0
     42c:	50000100 	andpl	r0, r0, r0, lsl #2
     430:	00000130 	andeq	r0, r0, r0, lsr r1
     434:	00000150 	andeq	r0, r0, r0, asr r1
     438:	00550001 	subseq	r0, r5, r1
	...
     448:	00004400 	andeq	r4, r0, r0, lsl #8
     44c:	00007300 	andeq	r7, r0, r0, lsl #6
     450:	51000100 	mrspl	r0, (UNDEF: 16)
     454:	00000073 	andeq	r0, r0, r3, ror r0
     458:	0000012c 	andeq	r0, r0, ip, lsr #2
     45c:	01f30004 	mvnseq	r0, r4
     460:	012c9f51 			; <UNDEFINED> instruction: 0x012c9f51
     464:	01500000 	cmpeq	r0, r0
     468:	00010000 	andeq	r0, r1, r0
     46c:	00000051 	andeq	r0, r0, r1, asr r0
	...
     478:	44000000 	strmi	r0, [r0], #-0
     47c:	73000000 	movwvc	r0, #0
     480:	01000000 	mrseq	r0, (UNDEF: 0)
     484:	00735200 	rsbseq	r5, r3, r0, lsl #4
     488:	012c0000 			; <UNDEFINED> instruction: 0x012c0000
     48c:	00010000 	andeq	r0, r1, r0
     490:	00012c56 	andeq	r2, r1, r6, asr ip
     494:	00015000 	andeq	r5, r1, r0
     498:	52000100 	andpl	r0, r0, #0, 2
	...
     4a4:	00000002 	andeq	r0, r0, r2
     4a8:	00500000 	subseq	r0, r0, r0
     4ac:	00540000 	subseq	r0, r4, r0
     4b0:	00020000 	andeq	r0, r2, r0
     4b4:	00549f30 	subseq	r9, r4, r0, lsr pc
     4b8:	007c0000 	rsbseq	r0, ip, r0
     4bc:	00010000 	andeq	r0, r1, r0
     4c0:	00012c54 	andeq	r2, r1, r4, asr ip
     4c4:	00015000 	andeq	r5, r1, r0
     4c8:	54000100 	strpl	r0, [r0], #-256	; 0xffffff00
	...
     4d4:	007c0000 	rsbseq	r0, ip, r0
     4d8:	012c0000 			; <UNDEFINED> instruction: 0x012c0000
     4dc:	00010000 	andeq	r0, r1, r0
     4e0:	00000054 	andeq	r0, r0, r4, asr r0
     4e4:	00000000 	andeq	r0, r0, r0
     4e8:	00010100 	andeq	r0, r1, r0, lsl #2
     4ec:	0000a000 	andeq	sl, r0, r0
     4f0:	0000e800 	andeq	lr, r0, r0, lsl #16
     4f4:	56000100 	strpl	r0, [r0], -r0, lsl #2
     4f8:	00000100 	andeq	r0, r0, r0, lsl #2
     4fc:	0000012c 	andeq	r0, r0, ip, lsr #2
     500:	00560001 	subseq	r0, r6, r1
     504:	00000000 	andeq	r0, r0, r0
     508:	02000000 	andeq	r0, r0, #0
     50c:	b4000202 	strlt	r0, [r0], #-514	; 0xfffffdfe
     510:	dc000000 	stcle	0, cr0, [r0], {-0}
     514:	03000000 	movweq	r0, #0
     518:	9f107600 	svcls	0x00107600
     51c:	000000dc 	ldrdeq	r0, [r0], -ip
     520:	0000012c 	andeq	r0, r0, ip, lsr #2
     524:	1c760003 	ldclne	0, cr0, [r6], #-12
     528:	0000009f 	muleq	r0, pc, r0	; <UNPREDICTABLE>
	...
     538:	00027000 	andeq	r7, r2, r0
     53c:	00029c00 	andeq	r9, r2, r0, lsl #24
     540:	50000100 	andpl	r0, r0, r0, lsl #2
     544:	0000029c 	muleq	r0, ip, r2
     548:	0000034c 	andeq	r0, r0, ip, asr #6
     54c:	4c550001 	mrrcmi	0, 0, r0, r5, cr1
     550:	50000003 	andpl	r0, r0, r3
     554:	01000003 	tsteq	r0, r3
     558:	03505000 	cmpeq	r0, #0
     55c:	036c0000 	cmneq	ip, #0
     560:	00010000 	andeq	r0, r1, r0
     564:	00000055 	andeq	r0, r0, r5, asr r0
	...
     570:	70000000 	andvc	r0, r0, r0
     574:	9f000002 	svcls	0x00000002
     578:	01000002 	tsteq	r0, r2
     57c:	029f5100 	addseq	r5, pc, #0, 2
     580:	034c0000 	movteq	r0, #49152	; 0xc000
     584:	00040000 	andeq	r0, r4, r0
     588:	9f5101f3 	svcls	0x005101f3
     58c:	0000034c 	andeq	r0, r0, ip, asr #6
     590:	0000036c 	andeq	r0, r0, ip, ror #6
     594:	00510001 	subseq	r0, r1, r1
	...
     5a4:	00027000 	andeq	r7, r2, r0
     5a8:	00029f00 	andeq	r9, r2, r0, lsl #30
     5ac:	52000100 	andpl	r0, r0, #0, 2
     5b0:	0000029f 	muleq	r0, pc, r2	; <UNPREDICTABLE>
     5b4:	0000034c 	andeq	r0, r0, ip, asr #6
     5b8:	4c560001 	mrrcmi	0, 0, r0, r6, cr1
     5bc:	6c000003 	stcvs	0, cr0, [r0], {3}
     5c0:	01000003 	tsteq	r0, r3
     5c4:	00005200 	andeq	r5, r0, r0, lsl #4
     5c8:	00000000 	andeq	r0, r0, r0
     5cc:	00020000 	andeq	r0, r2, r0
     5d0:	00000000 	andeq	r0, r0, r0
     5d4:	0000027c 	andeq	r0, r0, ip, ror r2
     5d8:	00000280 	andeq	r0, r0, r0, lsl #5
     5dc:	9f300002 	svcls	0x00300002
     5e0:	00000280 	andeq	r0, r0, r0, lsl #5
     5e4:	000002a8 	andeq	r0, r0, r8, lsr #5
     5e8:	4c540001 	mrrcmi	0, 0, r0, r4, cr1
     5ec:	6c000003 	stcvs	0, cr0, [r0], {3}
     5f0:	01000003 	tsteq	r0, r3
     5f4:	00005400 	andeq	r5, r0, r0, lsl #8
	...
     600:	000002a8 	andeq	r0, r0, r8, lsr #5
     604:	0000034c 	andeq	r0, r0, ip, asr #6
     608:	00540001 	subseq	r0, r4, r1
     60c:	00000000 	andeq	r0, r0, r0
     610:	01000000 	mrseq	r0, (UNDEF: 0)
     614:	0002d000 	andeq	sp, r2, r0
     618:	00034c00 	andeq	r4, r3, r0, lsl #24
     61c:	56000100 	strpl	r0, [r0], -r0, lsl #2
	...
     628:	00020202 	andeq	r0, r2, r2, lsl #4
     62c:	000002e4 	andeq	r0, r0, r4, ror #5
     630:	0000030c 	andeq	r0, r0, ip, lsl #6
     634:	10760003 	rsbsne	r0, r6, r3
     638:	00030c9f 	muleq	r3, pc, ip	; <UNPREDICTABLE>
     63c:	00034c00 	andeq	r4, r3, r0, lsl #24
     640:	76000300 	strvc	r0, [r0], -r0, lsl #6
     644:	00009f1c 	andeq	r9, r0, ip, lsl pc
	...
     650:	01880000 	orreq	r0, r8, r0
     654:	01a70000 			; <UNDEFINED> instruction: 0x01a70000
     658:	00010000 	andeq	r0, r1, r0
     65c:	0001a750 	andeq	sl, r1, r0, asr r7
     660:	00027000 	andeq	r7, r2, r0
     664:	54000100 	strpl	r0, [r0], #-256	; 0xffffff00
	...
     670:	01d40001 	bicseq	r0, r4, r1
     674:	02500000 	subseq	r0, r0, #0
     678:	00010000 	andeq	r0, r1, r0
     67c:	00000054 	andeq	r0, r0, r4, asr r0
     680:	00000000 	andeq	r0, r0, r0
     684:	02020200 	andeq	r0, r2, #0, 4
     688:	0001e800 	andeq	lr, r1, r0, lsl #16
     68c:	00021000 	andeq	r1, r2, r0
     690:	74000300 	strvc	r0, [r0], #-768	; 0xfffffd00
     694:	02109f10 	andseq	r9, r0, #16, 30	; 0x40
     698:	02500000 	subseq	r0, r0, #0
     69c:	00030000 	andeq	r0, r3, r0
     6a0:	009f1c74 	addseq	r1, pc, r4, ror ip	; <UNPREDICTABLE>
	...
     6ac:	64000000 	strvs	r0, [r0], #-0
     6b0:	7f000001 	svcvc	0x00000001
     6b4:	01000001 	tsteq	r0, r1
     6b8:	017f5000 	cmneq	pc, r0
     6bc:	01880000 	orreq	r0, r8, r0
     6c0:	00010000 	andeq	r0, r1, r0
     6c4:	00000054 	andeq	r0, r0, r4, asr r0
     6c8:	00000000 	andeq	r0, r0, r0
     6cc:	70000000 	andvc	r0, r0, r0
     6d0:	88000001 	stmdahi	r0, {r0}
     6d4:	01000001 	tsteq	r0, r1
     6d8:	00005500 	andeq	r5, r0, r0, lsl #10
	...
     6e4:	00000180 	andeq	r0, r0, r0, lsl #3
     6e8:	00000188 	andeq	r0, r0, r8, lsl #3
     6ec:	00500001 	subseq	r0, r0, r1
	...
     6f8:	3c000000 	stccc	0, cr0, [r0], {-0}
     6fc:	40000000 	andmi	r0, r0, r0
     700:	01000000 	mrseq	r0, (UNDEF: 0)
     704:	00405000 	subeq	r5, r0, r0
     708:	00440000 	subeq	r0, r4, r0
     70c:	00040000 	andeq	r0, r4, r0
     710:	9f01b870 	svcls	0x0001b870
	...
     720:	00000030 	andeq	r0, r0, r0, lsr r0
     724:	00000034 	andeq	r0, r0, r4, lsr r0
     728:	34500001 	ldrbcc	r0, [r0], #-1
     72c:	3c000000 	stccc	0, cr0, [r0], {-0}
     730:	04000000 	streq	r0, [r0], #-0
     734:	5001f300 	andpl	pc, r1, r0, lsl #6
     738:	0000009f 	muleq	r0, pc, r0	; <UNPREDICTABLE>
	...
     744:	00001800 	andeq	r1, r0, r0, lsl #16
     748:	00002300 	andeq	r2, r0, r0, lsl #6
     74c:	50000100 	andpl	r0, r0, r0, lsl #2
     750:	00000023 	andeq	r0, r0, r3, lsr #32
     754:	00000030 	andeq	r0, r0, r0, lsr r0
     758:	00540001 	subseq	r0, r4, r1
	...
     764:	08000000 	stmdaeq	r0, {}	; <UNPREDICTABLE>
     768:	0f000000 	svceq	0x00000000
     76c:	01000000 	mrseq	r0, (UNDEF: 0)
     770:	000f5000 	andeq	r5, pc, r0
     774:	00180000 	andseq	r0, r8, r0
     778:	00040000 	andeq	r0, r4, r0
     77c:	9f5001f3 	svcls	0x005001f3
	...
     790:	00000004 	andeq	r0, r0, r4
     794:	04500001 	ldrbeq	r0, [r0], #-1
     798:	08000000 	stmdaeq	r0, {}	; <UNPREDICTABLE>
     79c:	03000000 	movweq	r0, #0
     7a0:	9f487000 	svcls	0x00487000
	...
     7b4:	03d00000 	bicseq	r0, r0, #0
     7b8:	03f80000 	mvnseq	r0, #0
     7bc:	00010000 	andeq	r0, r1, r0
     7c0:	0003f850 	andeq	pc, r3, r0, asr r8	; <UNPREDICTABLE>
     7c4:	00040c00 	andeq	r0, r4, r0, lsl #24
     7c8:	54000100 	strpl	r0, [r0], #-256	; 0xffffff00
     7cc:	0000040c 	andeq	r0, r0, ip, lsl #8
     7d0:	00000414 	andeq	r0, r0, r4, lsl r4
     7d4:	24030005 	strcs	r0, [r3], #-5
     7d8:	1400009c 	strne	r0, [r0], #-156	; 0xffffff64
     7dc:	17000004 	strne	r0, [r0, -r4]
     7e0:	01000004 	tsteq	r0, r4
     7e4:	04175000 	ldreq	r5, [r7], #-0
     7e8:	04440000 	strbeq	r0, [r4], #-0
     7ec:	00040000 	andeq	r0, r4, r0
     7f0:	9f5001f3 	svcls	0x005001f3
	...
     804:	000003d0 	ldrdeq	r0, [r0], -r0	; <UNPREDICTABLE>
     808:	000003f4 	strdeq	r0, [r0], -r4
     80c:	f4510001 			; <UNDEFINED> instruction: 0xf4510001
     810:	14000003 	strne	r0, [r0], #-3
     814:	01000004 	tsteq	r0, r4
     818:	04145500 	ldreq	r5, [r4], #-1280	; 0xfffffb00
     81c:	04170000 	ldreq	r0, [r7], #-0
     820:	00010000 	andeq	r0, r1, r0
     824:	00041751 	andeq	r1, r4, r1, asr r7
     828:	00044400 	andeq	r4, r4, r0, lsl #8
     82c:	f3000400 	vshl.u8	d0, d0, d0
     830:	009f5101 	addseq	r5, pc, r1, lsl #2
	...
     83c:	00000101 	andeq	r0, r0, r1, lsl #2
     840:	00000000 	andeq	r0, r0, r0
     844:	20000000 	andcs	r0, r0, r0
     848:	01000000 	mrseq	r0, (UNDEF: 0)
     84c:	00205000 	eoreq	r5, r0, r0
     850:	00e40000 	rsceq	r0, r4, r0
     854:	00040000 	andeq	r0, r4, r0
     858:	9f5001f3 	svcls	0x005001f3
     85c:	000000e4 	andeq	r0, r0, r4, ror #1
     860:	000000e8 	andeq	r0, r0, r8, ror #1
     864:	e8500001 	ldmda	r0, {r0}^
     868:	ec000000 	stc	0, cr0, [r0], {-0}
     86c:	04000000 	streq	r0, [r0], #-0
     870:	5001f300 	andpl	pc, r1, r0, lsl #6
     874:	0000009f 	muleq	r0, pc, r0	; <UNPREDICTABLE>
	...
     888:	20000000 	andcs	r0, r0, r0
     88c:	01000000 	mrseq	r0, (UNDEF: 0)
     890:	00205100 	eoreq	r5, r0, r0, lsl #2
     894:	00740000 	rsbseq	r0, r4, r0
     898:	00010000 	andeq	r0, r1, r0
     89c:	00009051 	andeq	r9, r0, r1, asr r0
     8a0:	00009400 	andeq	r9, r0, r0, lsl #8
     8a4:	51000100 	mrspl	r0, (UNDEF: 16)
     8a8:	000000b4 	strheq	r0, [r0], -r4
     8ac:	000000b8 	strheq	r0, [r0], -r8
     8b0:	d0510001 	subsle	r0, r1, r1
     8b4:	ec000000 	stc	0, cr0, [r0], {-0}
     8b8:	01000000 	mrseq	r0, (UNDEF: 0)
     8bc:	00005100 	andeq	r5, r0, r0, lsl #2
     8c0:	00000000 	andeq	r0, r0, r0
     8c4:	01020000 	mrseq	r0, (UNDEF: 2)
     8c8:	00000001 	andeq	r0, r0, r1
     8cc:	00000000 	andeq	r0, r0, r0
     8d0:	00200000 	eoreq	r0, r0, r0
     8d4:	00010000 	andeq	r0, r1, r0
     8d8:	00002050 	andeq	r2, r0, r0, asr r0
     8dc:	0000e400 	andeq	lr, r0, r0, lsl #8
     8e0:	5c000100 	stfpls	f0, [r0], {-0}
     8e4:	000000e4 	andeq	r0, r0, r4, ror #1
     8e8:	000000e8 	andeq	r0, r0, r8, ror #1
     8ec:	e8500001 	ldmda	r0, {r0}^
     8f0:	ec000000 	stc	0, cr0, [r0], {-0}
     8f4:	04000000 	streq	r0, [r0], #-0
     8f8:	5001f300 	andpl	pc, r1, r0, lsl #6
     8fc:	0000009f 	muleq	r0, pc, r0	; <UNPREDICTABLE>
     900:	00000000 	andeq	r0, r0, r0
     904:	00000300 	andeq	r0, r0, r0, lsl #6
	...
     914:	20000000 	andcs	r0, r0, r0
     918:	01000000 	mrseq	r0, (UNDEF: 0)
     91c:	00205100 	eoreq	r5, r0, r0, lsl #2
     920:	00380000 	eorseq	r0, r8, r0
     924:	00010000 	andeq	r0, r1, r0
     928:	00003853 	andeq	r3, r0, r3, asr r8
     92c:	00004c00 	andeq	r4, r0, r0, lsl #24
     930:	52000100 	andpl	r0, r0, #0, 2
     934:	0000004c 	andeq	r0, r0, ip, asr #32
     938:	00000078 	andeq	r0, r0, r8, ror r0
     93c:	78530001 	ldmdavc	r3, {r0}^
     940:	90000000 	andls	r0, r0, r0
     944:	01000000 	mrseq	r0, (UNDEF: 0)
     948:	00905000 	addseq	r5, r0, r0
     94c:	00e40000 	rsceq	r0, r4, r0
     950:	00010000 	andeq	r0, r1, r0
     954:	0000e453 	andeq	lr, r0, r3, asr r4
     958:	0000ec00 	andeq	lr, r0, r0, lsl #24
     95c:	51000100 	mrspl	r0, (UNDEF: 16)
	...
     96c:	00480000 	subeq	r0, r8, r0
     970:	004c0000 	subeq	r0, ip, r0
     974:	00010000 	andeq	r0, r1, r0
     978:	00004c53 	andeq	r4, r0, r3, asr ip
     97c:	00005000 	andeq	r5, r0, r0
     980:	70001200 	andvc	r1, r0, r0, lsl #4
     984:	7c243800 	stcvc	8, cr3, [r4], #-0
     988:	08019402 	stmdaeq	r1, {r1, sl, ip, pc}
     98c:	3b221aff 	blcc	887590 <__bss_end__+0x87d560>
     990:	27007224 	strcs	r7, [r0, -r4, lsr #4]
     994:	0000509f 	muleq	r0, pc, r0	; <UNPREDICTABLE>
     998:	00005c00 	andeq	r5, r0, r0, lsl #24
     99c:	70001200 	andvc	r1, r0, r0, lsl #4
     9a0:	7c243800 	stcvc	8, cr3, [r4], #-0
     9a4:	0801947e 	stmdaeq	r1, {r1, r2, r3, r4, r5, r6, sl, ip, pc}
     9a8:	3b221aff 	blcc	8875ac <__bss_end__+0x87d57c>
     9ac:	27007224 	strcs	r7, [r0, -r4, lsr #4]
     9b0:	0000009f 	muleq	r0, pc, r0	; <UNPREDICTABLE>
     9b4:	00000000 	andeq	r0, r0, r0
     9b8:	1c000000 	stcne	0, cr0, [r0], {-0}
     9bc:	e4000000 	str	r0, [r0], #-0
     9c0:	01000000 	mrseq	r0, (UNDEF: 0)
     9c4:	00005e00 	andeq	r5, r0, r0, lsl #28
	...
     9d4:	00040000 	andeq	r0, r4, r0
     9d8:	00010000 	andeq	r0, r1, r0
     9dc:	00000452 	andeq	r0, r0, r2, asr r4
     9e0:	00001800 	andeq	r1, r0, r0, lsl #16
     9e4:	f3000400 	vshl.u8	d0, d0, d0
     9e8:	009f5201 	addseq	r5, pc, r1, lsl #4
     9ec:	00000000 	andeq	r0, r0, r0
     9f0:	02000000 	andeq	r0, r0, #0
     9f4:	01010000 	mrseq	r0, (UNDEF: 1)
     9f8:	00000000 	andeq	r0, r0, r0
     9fc:	08000000 	stmdaeq	r0, {}	; <UNPREDICTABLE>
     a00:	01000000 	mrseq	r0, (UNDEF: 0)
     a04:	00085000 	andeq	r5, r8, r0
     a08:	00100000 	andseq	r0, r0, r0
     a0c:	00010000 	andeq	r0, r1, r0
     a10:	00001053 	andeq	r1, r0, r3, asr r0
     a14:	00001400 	andeq	r1, r0, r0, lsl #8
     a18:	73000300 	movwvc	r0, #768	; 0x300
     a1c:	00149f01 	andseq	r9, r4, r1, lsl #30
     a20:	00180000 	andseq	r0, r8, r0
     a24:	00010000 	andeq	r0, r1, r0
     a28:	00000053 	andeq	r0, r0, r3, asr r0
     a2c:	00000000 	andeq	r0, r0, r0
     a30:	04000000 	streq	r0, [r0], #-0
     a34:	18000000 	stmdane	r0, {}	; <UNPREDICTABLE>
     a38:	01000000 	mrseq	r0, (UNDEF: 0)
     a3c:	00005200 	andeq	r5, r0, r0, lsl #4
	...
     a4c:	0000002c 	andeq	r0, r0, ip, lsr #32
     a50:	00000038 	andeq	r0, r0, r8, lsr r0
     a54:	38500001 	ldmdacc	r0, {r0}^
     a58:	48000000 	stmdami	r0, {}	; <UNPREDICTABLE>
     a5c:	01000000 	mrseq	r0, (UNDEF: 0)
     a60:	00485400 	subeq	r5, r8, r0, lsl #8
     a64:	00580000 	subseq	r0, r8, r0
     a68:	00010000 	andeq	r0, r1, r0
     a6c:	00000050 	andeq	r0, r0, r0, asr r0
	...
     a7c:	00000b00 	andeq	r0, r0, r0, lsl #22
     a80:	50000100 	andpl	r0, r0, r0, lsl #2
     a84:	0000000b 	andeq	r0, r0, fp
     a88:	00000014 	andeq	r0, r0, r4, lsl r0
     a8c:	00540001 	subseq	r0, r4, r1
	...
     a98:	00000101 	andeq	r0, r0, r1, lsl #2
     a9c:	08000000 	stmdaeq	r0, {}	; <UNPREDICTABLE>
     aa0:	01000000 	mrseq	r0, (UNDEF: 0)
     aa4:	00085000 	andeq	r5, r8, r0
     aa8:	00340000 	eorseq	r0, r4, r0
     aac:	00010000 	andeq	r0, r1, r0
     ab0:	00000054 	andeq	r0, r0, r4, asr r0
	...
     abc:	70000000 	andvc	r0, r0, r0
     ac0:	9c000002 	stcls	0, cr0, [r0], {2}
     ac4:	01000002 	tsteq	r0, r2
     ac8:	029c5000 	addseq	r5, ip, #0
     acc:	050c0000 	streq	r0, [ip, #-0]
     ad0:	00010000 	andeq	r0, r1, r0
     ad4:	00050c57 	andeq	r0, r5, r7, asr ip
     ad8:	00052000 	andeq	r2, r5, r0
     adc:	f3000400 	vshl.u8	d0, d0, d0
     ae0:	009f5001 	addseq	r5, pc, r1
	...
     af0:	00027000 	andeq	r7, r2, r0
     af4:	00028800 	andeq	r8, r2, r0, lsl #16
     af8:	51000100 	mrspl	r0, (UNDEF: 16)
     afc:	00000288 	andeq	r0, r0, r8, lsl #5
     b00:	0000029c 	muleq	r0, ip, r2
     b04:	01710003 	cmneq	r1, r3
     b08:	00029c9f 	muleq	r2, pc, ip	; <UNPREDICTABLE>
     b0c:	00052000 	andeq	r2, r5, r0
     b10:	f3000400 	vshl.u8	d0, d0, d0
     b14:	009f5101 	addseq	r5, pc, r1, lsl #2
	...
     b20:	70000000 	andvc	r0, r0, r0
     b24:	9c000002 	stcls	0, cr0, [r0], {2}
     b28:	01000002 	tsteq	r0, r2
     b2c:	029c5200 	addseq	r5, ip, #0, 4
     b30:	050c0000 	streq	r0, [ip, #-0]
     b34:	00010000 	andeq	r0, r1, r0
     b38:	00000059 	andeq	r0, r0, r9, asr r0
     b3c:	00000000 	andeq	r0, r0, r0
     b40:	00000100 	andeq	r0, r0, r0, lsl #2
     b44:	00000000 	andeq	r0, r0, r0
     b48:	00000101 	andeq	r0, r0, r1, lsl #2
     b4c:	00000000 	andeq	r0, r0, r0
     b50:	00000202 	andeq	r0, r0, r2, lsl #4
     b54:	00028400 	andeq	r8, r2, r0, lsl #8
     b58:	00029c00 	andeq	r9, r2, r0, lsl #24
     b5c:	50000100 	andpl	r0, r0, r0, lsl #2
     b60:	0000029c 	muleq	r0, ip, r2
     b64:	000002a0 	andeq	r0, r0, r0, lsr #5
     b68:	a0540001 	subsge	r0, r4, r1
     b6c:	a4000002 	strge	r0, [r0], #-2
     b70:	03000002 	movweq	r0, #2
     b74:	9f017400 	svcls	0x00017400
     b78:	000002a4 	andeq	r0, r0, r4, lsr #5
     b7c:	000002c8 	andeq	r0, r0, r8, asr #5
     b80:	c8540001 	ldmdagt	r4, {r0}^
     b84:	cc000002 	stcgt	0, cr0, [r0], {2}
     b88:	03000002 	movweq	r0, #2
     b8c:	9f017400 	svcls	0x00017400
     b90:	000002cc 	andeq	r0, r0, ip, asr #5
     b94:	000003f8 	strdeq	r0, [r0], -r8
     b98:	f8540001 			; <UNDEFINED> instruction: 0xf8540001
     b9c:	fc000003 	stc2	0, cr0, [r0], {3}
     ba0:	03000003 	movweq	r0, #3
     ba4:	9f017400 	svcls	0x00017400
     ba8:	000003fc 	strdeq	r0, [r0], -ip
     bac:	000004f8 	strdeq	r0, [r0], -r8
     bb0:	f8540001 			; <UNDEFINED> instruction: 0xf8540001
     bb4:	00000004 	andeq	r0, r0, r4
     bb8:	03000005 	movweq	r0, #5
     bbc:	9f017400 	svcls	0x00017400
     bc0:	00000500 	andeq	r0, r0, r0, lsl #10
     bc4:	0000050c 	andeq	r0, r0, ip, lsl #10
     bc8:	00540001 	subseq	r0, r4, r1
	...
     bd4:	8c000000 	stchi	0, cr0, [r0], {-0}
     bd8:	0c000002 	stceq	0, cr0, [r0], {2}
     bdc:	01000005 	tsteq	r0, r5
     be0:	050c5800 	streq	r5, [ip, #-2048]	; 0xfffff800
     be4:	05200000 	streq	r0, [r0, #-0]!
     be8:	000a0000 	andeq	r0, sl, r0
     bec:	f35101f3 	vbsl	q8, <illegal reg q8.5>, <illegal reg q9.5>
     bf0:	31225001 			; <UNDEFINED> instruction: 0x31225001
     bf4:	00009f1c 	andeq	r9, r0, ip, lsl pc
	...
     c08:	000003dc 	ldrdeq	r0, [r0], -ip
     c0c:	00000400 	andeq	r0, r0, r0, lsl #8
     c10:	2c500001 	mrrccs	0, 0, r0, r0, cr1	; <UNPREDICTABLE>
     c14:	30000004 	andcc	r0, r0, r4
     c18:	01000004 	tsteq	r0, r4
     c1c:	045c5000 	ldrbeq	r5, [ip], #-0
     c20:	04600000 	strbteq	r0, [r0], #-0
     c24:	00010000 	andeq	r0, r1, r0
     c28:	00048c50 	andeq	r8, r4, r0, asr ip
     c2c:	00049000 	andeq	r9, r4, r0
     c30:	50000100 	andpl	r0, r0, r0, lsl #2
     c34:	000004d0 	ldrdeq	r0, [r0], -r0	; <UNPREDICTABLE>
     c38:	000004d4 	ldrdeq	r0, [r0], -r4
     c3c:	00500001 	subseq	r0, r0, r1
     c40:	00000000 	andeq	r0, r0, r0
     c44:	02000000 	andeq	r0, r0, #0
     c48:	00000000 	andeq	r0, r0, r0
     c4c:	0002d800 	andeq	sp, r2, r0, lsl #16
     c50:	0002e000 	andeq	lr, r2, r0
     c54:	30000200 	andcc	r0, r0, r0, lsl #4
     c58:	0002e09f 	muleq	r2, pc, r0	; <UNPREDICTABLE>
     c5c:	0002e400 	andeq	lr, r2, r0, lsl #8
     c60:	56000100 	strpl	r0, [r0], -r0, lsl #2
     c64:	000002ec 	andeq	r0, r0, ip, ror #5
     c68:	000004f8 	strdeq	r0, [r0], -r8
     c6c:	00560001 	subseq	r0, r6, r1
	...
     c7c:	00007000 	andeq	r7, r0, r0
     c80:	00009400 	andeq	r9, r0, r0, lsl #8
     c84:	50000100 	andpl	r0, r0, r0, lsl #2
     c88:	00000094 	muleq	r0, r4, r0
     c8c:	000000fc 	strdeq	r0, [r0], -ip
     c90:	02700003 	rsbseq	r0, r0, #3
     c94:	0000fc9f 	muleq	r0, pc, ip	; <UNPREDICTABLE>
     c98:	00021c00 	andeq	r1, r2, r0, lsl #24
     c9c:	f3000400 	vshl.u8	d0, d0, d0
     ca0:	009f5001 	addseq	r5, pc, r1
	...
     cb8:	70000000 	andvc	r0, r0, r0
     cbc:	e0000000 	and	r0, r0, r0
     cc0:	01000000 	mrseq	r0, (UNDEF: 0)
     cc4:	00e05100 	rsceq	r5, r0, r0, lsl #2
     cc8:	01540000 	cmpeq	r4, r0
     ccc:	00010000 	andeq	r0, r1, r0
     cd0:	00015455 	andeq	r5, r1, r5, asr r4
     cd4:	00015800 	andeq	r5, r1, r0, lsl #16
     cd8:	51000100 	mrspl	r0, (UNDEF: 16)
     cdc:	00000158 	andeq	r0, r0, r8, asr r1
     ce0:	000001b0 			; <UNDEFINED> instruction: 0x000001b0
     ce4:	b0550001 	subslt	r0, r5, r1
     ce8:	c0000001 	andgt	r0, r0, r1
     cec:	01000001 	tsteq	r0, r1
     cf0:	01c05100 	biceq	r5, r0, r0, lsl #2
     cf4:	01e40000 	mvneq	r0, r0
     cf8:	00010000 	andeq	r0, r1, r0
     cfc:	0001e455 	andeq	lr, r1, r5, asr r4
     d00:	0001e700 	andeq	lr, r1, r0, lsl #14
     d04:	51000100 	mrspl	r0, (UNDEF: 16)
     d08:	000001e7 	andeq	r0, r0, r7, ror #3
     d0c:	0000021c 	andeq	r0, r0, ip, lsl r2
     d10:	00550001 	subseq	r0, r5, r1
	...
     d1c:	70000000 	andvc	r0, r0, r0
     d20:	84000000 	strhi	r0, [r0], #-0
     d24:	01000000 	mrseq	r0, (UNDEF: 0)
     d28:	00845200 	addeq	r5, r4, r0, lsl #4
     d2c:	021c0000 	andseq	r0, ip, #0
     d30:	00010000 	andeq	r0, r1, r0
     d34:	00000054 	andeq	r0, r0, r4, asr r0
	...
     d40:	00010000 	andeq	r0, r1, r0
     d44:	70000000 	andvc	r0, r0, r0
     d48:	f4000000 	vst4.8	{d0-d3}, [r0], r0
     d4c:	01000000 	mrseq	r0, (UNDEF: 0)
     d50:	014c5300 	mrseq	r5, SPSR_mon
     d54:	01800000 	orreq	r0, r0, r0
     d58:	00010000 	andeq	r0, r1, r0
     d5c:	00018053 	andeq	r8, r1, r3, asr r0
     d60:	00018c00 	andeq	r8, r1, r0, lsl #24
     d64:	f3000400 	vshl.u8	d0, d0, d0
     d68:	b09f5301 	addslt	r5, pc, r1, lsl #6
     d6c:	e7000001 	str	r0, [r0, -r1]
     d70:	01000001 	tsteq	r0, r1
     d74:	01e75300 	mvneq	r5, r0, lsl #6
     d78:	021c0000 	andseq	r0, ip, #0
     d7c:	00040000 	andeq	r0, r4, r0
     d80:	9f5301f3 	svcls	0x005301f3
	...
     d90:	00700000 	rsbseq	r0, r0, r0
     d94:	008c0000 	addeq	r0, ip, r0
     d98:	00020000 	andeq	r0, r2, r0
     d9c:	008c0091 	umulleq	r0, ip, r1, r0
     da0:	01930000 	orrseq	r0, r3, r0
     da4:	00010000 	andeq	r0, r1, r0
     da8:	0001b052 	andeq	fp, r1, r2, asr r0
     dac:	0001e700 	andeq	lr, r1, r0, lsl #14
     db0:	52000100 	andpl	r0, r0, #0, 2
	...
     dbc:	01000001 	tsteq	r0, r1
     dc0:	00000001 	andeq	r0, r0, r1
     dc4:	00000000 	andeq	r0, r0, r0
     dc8:	01010100 	mrseq	r0, (UNDEF: 17)
     dcc:	01000001 	tsteq	r0, r1
     dd0:	00000001 	andeq	r0, r0, r1
	...
     ddc:	0000008c 	andeq	r0, r0, ip, lsl #1
     de0:	000000fc 	strdeq	r0, [r0], -ip
     de4:	fc5d0001 	mrrc2	0, 0, r0, sp, cr1
     de8:	3c000000 	stccc	0, cr0, [r0], {-0}
     dec:	01000001 	tsteq	r0, r1
     df0:	013c5000 	teqeq	ip, r0
     df4:	01480000 	mrseq	r0, (UNDEF: 72)
     df8:	00030000 	andeq	r0, r3, r0
     dfc:	489f0271 	ldmmi	pc, {r0, r4, r5, r6, r9}	; <UNPREDICTABLE>
     e00:	4c000001 	stcmi	0, cr0, [r0], {1}
     e04:	01000001 	tsteq	r0, r1
     e08:	014c5000 	mrseq	r5, (UNDEF: 76)
     e0c:	01580000 	cmpeq	r8, r0
     e10:	00010000 	andeq	r0, r1, r0
     e14:	0001585d 	andeq	r5, r1, sp, asr r8
     e18:	00016c00 	andeq	r6, r1, r0, lsl #24
     e1c:	51000100 	mrspl	r0, (UNDEF: 16)
     e20:	0000016c 	andeq	r0, r0, ip, ror #2
     e24:	00000178 	andeq	r0, r0, r8, ror r1
     e28:	7f710003 	svcvc	0x00710003
     e2c:	0001789f 	muleq	r1, pc, r8	; <UNPREDICTABLE>
     e30:	00018400 	andeq	r8, r1, r0, lsl #8
     e34:	71000300 	mrsvc	r0, LR_irq
     e38:	01849f01 	orreq	r9, r4, r1, lsl #30
     e3c:	01930000 	orrseq	r0, r3, r0
     e40:	00010000 	andeq	r0, r1, r0
     e44:	0001b050 	andeq	fp, r1, r0, asr r0
     e48:	0001b000 	andeq	fp, r1, r0
     e4c:	5d000100 	stfpls	f0, [r0, #-0]
     e50:	000001b0 			; <UNDEFINED> instruction: 0x000001b0
     e54:	000001b8 			; <UNDEFINED> instruction: 0x000001b8
     e58:	a1910004 	orrsge	r0, r1, r4
     e5c:	01b89f7f 			; <UNDEFINED> instruction: 0x01b89f7f
     e60:	01bc0000 			; <UNDEFINED> instruction: 0x01bc0000
     e64:	00010000 	andeq	r0, r1, r0
     e68:	0001bc50 	andeq	fp, r1, r0, asr ip
     e6c:	0001c000 	andeq	ip, r1, r0
     e70:	5d000100 	stfpls	f0, [r0, #-0]
     e74:	000001c0 	andeq	r0, r0, r0, asr #3
     e78:	000001d4 	ldrdeq	r0, [r0], -r4
     e7c:	d4500001 	ldrble	r0, [r0], #-1
     e80:	e4000001 	str	r0, [r0], #-1
     e84:	03000001 	movweq	r0, #1
     e88:	9f7f7000 	svcls	0x007f7000
     e8c:	000001e4 	andeq	r0, r0, r4, ror #3
     e90:	0000021c 	andeq	r0, r0, ip, lsl r2
     e94:	005d0001 	subseq	r0, sp, r1
	...
     ea0:	01010000 	mrseq	r0, (UNDEF: 1)
	...
     eb0:	00009000 	andeq	r9, r0, r0
     eb4:	0000dc00 	andeq	sp, r0, r0, lsl #24
     eb8:	5c000100 	stfpls	f0, [r0], {-0}
     ebc:	000000dc 	ldrdeq	r0, [r0], -ip
     ec0:	000000f4 	strdeq	r0, [r0], -r4
     ec4:	f4530001 			; <UNDEFINED> instruction: 0xf4530001
     ec8:	4c000000 	stcmi	0, cr0, [r0], {-0}
     ecc:	01000001 	tsteq	r0, r1
     ed0:	014c5c00 	cmpeq	ip, r0, lsl #24
     ed4:	01580000 	cmpeq	r8, r0
     ed8:	00010000 	andeq	r0, r1, r0
     edc:	00015853 	andeq	r5, r1, r3, asr r8
     ee0:	00017400 	andeq	r7, r1, r0, lsl #8
     ee4:	5c000100 	stfpls	f0, [r0], {-0}
     ee8:	000001b0 			; <UNDEFINED> instruction: 0x000001b0
     eec:	000001c0 	andeq	r0, r0, r0, asr #3
     ef0:	c0530001 	subsgt	r0, r3, r1
     ef4:	dc000001 	stcle	0, cr0, [r0], {1}
     ef8:	01000001 	tsteq	r0, r1
     efc:	01e45c00 	mvneq	r5, r0, lsl #24
     f00:	01e70000 	mvneq	r0, r0
     f04:	00010000 	andeq	r0, r1, r0
     f08:	0001e753 	andeq	lr, r1, r3, asr r7
     f0c:	00021c00 	andeq	r1, r2, r0, lsl #24
     f10:	f3000400 	vshl.u8	d0, d0, d0
     f14:	009f5301 	addseq	r5, pc, r1, lsl #6
     f18:	00000000 	andeq	r0, r0, r0
     f1c:	01000000 	mrseq	r0, (UNDEF: 0)
     f20:	00000101 	andeq	r0, r0, r1, lsl #2
     f24:	dc000000 	stcle	0, cr0, [r0], {-0}
     f28:	f0000000 			; <UNDEFINED> instruction: 0xf0000000
     f2c:	02000000 	andeq	r0, r0, #0
     f30:	f09f3000 			; <UNDEFINED> instruction: 0xf09f3000
     f34:	f8000000 			; <UNDEFINED> instruction: 0xf8000000
     f38:	02000000 	andeq	r0, r0, #0
     f3c:	fc9f3100 	ldc2	1, cr3, [pc], {0}
     f40:	4c000000 	stcmi	0, cr0, [r0], {-0}
     f44:	01000001 	tsteq	r0, r1
     f48:	014c5600 	cmpeq	ip, r0, lsl #12
     f4c:	01540000 	cmpeq	r4, r0
     f50:	00020000 	andeq	r0, r2, r0
     f54:	00009f30 	andeq	r9, r0, r0, lsr pc
	...
     f60:	00010100 	andeq	r0, r1, r0, lsl #2
     f64:	00010100 	andeq	r0, r1, r0, lsl #2
     f68:	00000038 	andeq	r0, r0, r8, lsr r0
     f6c:	00000054 	andeq	r0, r0, r4, asr r0
     f70:	54500001 	ldrbpl	r0, [r0], #-1
     f74:	58000000 	stmdapl	r0, {}	; <UNPREDICTABLE>
     f78:	01000000 	mrseq	r0, (UNDEF: 0)
     f7c:	00585200 	subseq	r5, r8, r0, lsl #4
     f80:	00600000 	rsbeq	r0, r0, r0
     f84:	00030000 	andeq	r0, r3, r0
     f88:	609f0172 	addsvs	r0, pc, r2, ror r1	; <UNPREDICTABLE>
     f8c:	64000000 	strvs	r0, [r0], #-0
     f90:	01000000 	mrseq	r0, (UNDEF: 0)
     f94:	00645200 	rsbeq	r5, r4, r0, lsl #4
     f98:	00700000 	rsbseq	r0, r0, r0
     f9c:	00030000 	andeq	r0, r3, r0
     fa0:	009f0172 	addseq	r0, pc, r2, ror r1	; <UNPREDICTABLE>
	...
     fac:	38000000 	stmdacc	r0, {}	; <UNPREDICTABLE>
     fb0:	50000000 	andpl	r0, r0, r0
     fb4:	01000000 	mrseq	r0, (UNDEF: 0)
     fb8:	00505100 	subseq	r5, r0, r0, lsl #2
     fbc:	00700000 	rsbseq	r0, r0, r0
     fc0:	00040000 	andeq	r0, r4, r0
     fc4:	9f5101f3 	svcls	0x005101f3
	...
     fd4:	00010100 	andeq	r0, r1, r0, lsl #2
     fd8:	00000038 	andeq	r0, r0, r8, lsr r0
     fdc:	00000050 	andeq	r0, r0, r0, asr r0
     fe0:	50520001 	subspl	r0, r2, r1
     fe4:	5c000000 	stcpl	0, cr0, [r0], {-0}
     fe8:	01000000 	mrseq	r0, (UNDEF: 0)
     fec:	005c5100 	subseq	r5, ip, r0, lsl #2
     ff0:	00600000 	rsbeq	r0, r0, r0
     ff4:	00030000 	andeq	r0, r3, r0
     ff8:	609f0171 	addsvs	r0, pc, r1, ror r1	; <UNPREDICTABLE>
     ffc:	70000000 	andvc	r0, r0, r0
    1000:	01000000 	mrseq	r0, (UNDEF: 0)
    1004:	00005100 	andeq	r5, r0, r0, lsl #2
	...
    1010:	00380000 	eorseq	r0, r8, r0
    1014:	004c0000 	subeq	r0, ip, r0
    1018:	00010000 	andeq	r0, r1, r0
    101c:	00004c53 	andeq	r4, r0, r3, asr ip
    1020:	00006800 	andeq	r6, r0, r0, lsl #16
    1024:	53000100 	movwpl	r0, #256	; 0x100
	...
    1038:	00000040 	andeq	r0, r0, r0, asr #32
    103c:	00000048 	andeq	r0, r0, r8, asr #32
    1040:	485c0001 	ldmdami	ip, {r0}^
    1044:	4c000000 	stcmi	0, cr0, [r0], {-0}
    1048:	08000000 	stmdaeq	r0, {}	; <UNPREDICTABLE>
    104c:	73007200 	movwvc	r7, #512	; 0x200
    1050:	01231c00 			; <UNDEFINED> instruction: 0x01231c00
    1054:	00004c9f 	muleq	r0, pc, ip	; <UNPREDICTABLE>
    1058:	00005400 	andeq	r5, r0, r0, lsl #8
    105c:	72000900 	andvc	r0, r0, #0, 18
    1060:	5301f300 	movwpl	pc, #4864	; 0x1300	; <UNPREDICTABLE>
    1064:	9f01231c 	svcls	0x0001231c
    1068:	00000054 	andeq	r0, r0, r4, asr r0
    106c:	00000070 	andeq	r0, r0, r0, ror r0
    1070:	01f3000a 	mvnseq	r0, sl
    1074:	5301f352 	movwpl	pc, #4946	; 0x1352	; <UNPREDICTABLE>
    1078:	9f01231c 	svcls	0x0001231c
	...
    1084:	004c0001 	subeq	r0, ip, r1
    1088:	00700000 	rsbseq	r0, r0, r0
    108c:	00010000 	andeq	r0, r1, r0
    1090:	00000050 	andeq	r0, r0, r0, asr r0
    1094:	00000000 	andeq	r0, r0, r0
    1098:	01010000 	mrseq	r0, (UNDEF: 1)
    109c:	14000000 	strne	r0, [r0], #-0
    10a0:	1c000000 	stcne	0, cr0, [r0], {-0}
    10a4:	01000000 	mrseq	r0, (UNDEF: 0)
    10a8:	001c5000 	andseq	r5, ip, r0
    10ac:	00240000 	eoreq	r0, r4, r0
    10b0:	00030000 	andeq	r0, r3, r0
    10b4:	249f0170 	ldrcs	r0, [pc], #368	; 10bc <_start-0x6f44>
    10b8:	38000000 	stmdacc	r0, {}	; <UNPREDICTABLE>
    10bc:	01000000 	mrseq	r0, (UNDEF: 0)
    10c0:	00005000 	andeq	r5, r0, r0
	...
    10cc:	00140000 	andseq	r0, r4, r0
    10d0:	00180000 	andseq	r0, r8, r0
    10d4:	00010000 	andeq	r0, r1, r0
    10d8:	00001851 	andeq	r1, r0, r1, asr r8
    10dc:	00003800 	andeq	r3, r0, r0, lsl #16
    10e0:	f3000400 	vshl.u8	d0, d0, d0
    10e4:	009f5101 	addseq	r5, pc, r1, lsl #2
	...
    10f0:	00001800 	andeq	r1, r0, r0, lsl #16
    10f4:	00003800 	andeq	r3, r0, r0, lsl #16
    10f8:	51000100 	mrspl	r0, (UNDEF: 16)
	...
    110c:	00040000 	andeq	r0, r4, r0
    1110:	00010000 	andeq	r0, r1, r0
    1114:	00000450 	andeq	r0, r0, r0, asr r4
    1118:	00000c00 	andeq	r0, r0, r0, lsl #24
    111c:	70000300 	andvc	r0, r0, r0, lsl #6
    1120:	000c9f30 	andeq	r9, ip, r0, lsr pc
    1124:	00140000 	andseq	r0, r4, r0
    1128:	00040000 	andeq	r0, r4, r0
    112c:	9f5001f3 	svcls	0x005001f3
	...
    113c:	0000021c 	andeq	r0, r0, ip, lsl r2
    1140:	00000243 	andeq	r0, r0, r3, asr #4
    1144:	43500001 	cmpmi	r0, #1
    1148:	70000002 	andvc	r0, r0, r2
    114c:	04000002 	streq	r0, [r0], #-2
    1150:	5001f300 	andpl	pc, r1, r0, lsl #6
    1154:	0000009f 	muleq	r0, pc, r0	; <UNPREDICTABLE>
	...
    1160:	00021c00 	andeq	r1, r2, r0, lsl #24
    1164:	00024300 	andeq	r4, r2, r0, lsl #6
    1168:	51000100 	mrspl	r0, (UNDEF: 16)
    116c:	00000243 	andeq	r0, r0, r3, asr #4
    1170:	00000270 	andeq	r0, r0, r0, ror r2
    1174:	01f30004 	mvnseq	r0, r4
    1178:	00009f51 	andeq	r9, r0, r1, asr pc
    117c:	00000000 	andeq	r0, r0, r0
    1180:	01000000 	mrseq	r0, (UNDEF: 0)
    1184:	00000001 	andeq	r0, r0, r1
    1188:	00000008 	andeq	r0, r0, r8
    118c:	00000010 	andeq	r0, r0, r0, lsl r0
    1190:	10530001 	subsne	r0, r3, r1
    1194:	18000000 	stmdane	r0, {}	; <UNPREDICTABLE>
    1198:	03000000 	movweq	r0, #0
    119c:	9f047300 	svcls	0x00047300
    11a0:	00000018 	andeq	r0, r0, r8, lsl r0
    11a4:	0000001f 	andeq	r0, r0, pc, lsl r0
    11a8:	00530001 	subseq	r0, r3, r1
    11ac:	00000000 	andeq	r0, r0, r0
    11b0:	01000000 	mrseq	r0, (UNDEF: 0)
    11b4:	0090f800 	addseq	pc, r0, r0, lsl #16
    11b8:	00911400 	addseq	r1, r1, r0, lsl #8
    11bc:	0c000600 	stceq	6, cr0, [r0], {-0}
    11c0:	2010001c 	andscs	r0, r0, ip, lsl r0
    11c4:	0000009f 	muleq	r0, pc, r0	; <UNPREDICTABLE>
    11c8:	00000000 	andeq	r0, r0, r0
    11cc:	f8000200 			; <UNDEFINED> instruction: 0xf8000200
    11d0:	14000090 	strne	r0, [r0], #-144	; 0xffffff70
    11d4:	06000091 			; <UNDEFINED> instruction: 0x06000091
    11d8:	00240c00 	eoreq	r0, r4, r0, lsl #24
    11dc:	009f2010 	addseq	r2, pc, r0, lsl r0	; <UNPREDICTABLE>
    11e0:	00000000 	andeq	r0, r0, r0
    11e4:	03000000 	movweq	r0, #0
    11e8:	0090f800 	addseq	pc, r0, r0, lsl #16
    11ec:	00911400 	addseq	r1, r1, r0, lsl #8
    11f0:	08000500 	stmdaeq	r0, {r8, sl}
    11f4:	9f2447b4 	svcls	0x002447b4
	...
    1200:	90f80004 	rscsls	r0, r8, r4
    1204:	91140000 	tstls	r4, r0
    1208:	00030000 	andeq	r0, r3, r0
    120c:	009f2008 	addseq	r2, pc, r8
    1210:	00000000 	andeq	r0, r0, r0
    1214:	02000000 	andeq	r0, r0, #0
    1218:	00000000 	andeq	r0, r0, r0
    121c:	0090cc00 	addseq	ip, r0, r0, lsl #24
    1220:	0090d000 	addseq	sp, r0, r0
    1224:	30000200 	andcc	r0, r0, r0, lsl #4
    1228:	0090d09f 	umullseq	sp, r0, pc, r0	; <UNPREDICTABLE>
    122c:	0090d400 	addseq	sp, r0, r0, lsl #8
    1230:	53000100 	movwpl	r0, #256	; 0x100
    1234:	000090d8 	ldrdeq	r9, [r0], -r8
    1238:	000090e0 	andeq	r9, r0, r0, ror #1
    123c:	00530001 	subseq	r0, r3, r1
    1240:	00000000 	andeq	r0, r0, r0
    1244:	02000000 	andeq	r0, r0, #0
    1248:	b4000000 	strlt	r0, [r0], #-0
    124c:	b8000090 	stmdalt	r0, {r4, r7}
    1250:	02000090 	andeq	r0, r0, #144	; 0x90
    1254:	b89f3000 	ldmlt	pc, {ip, sp}	; <UNPREDICTABLE>
    1258:	bc000090 	stclt	0, cr0, [r0], {144}	; 0x90
    125c:	01000090 	swpeq	r0, r0, [r0]	; <UNPREDICTABLE>
    1260:	00005000 	andeq	r5, r0, r0
	...
    126c:	00740000 	rsbseq	r0, r4, r0
    1270:	00800000 	addeq	r0, r0, r0
    1274:	00010000 	andeq	r0, r1, r0
    1278:	00008050 	andeq	r8, r0, r0, asr r0
    127c:	00008c00 	andeq	r8, r0, r0, lsl #24
    1280:	f3000400 	vshl.u8	d0, d0, d0
    1284:	009f5001 	addseq	r5, pc, r1
	...
    1290:	5c000000 	stcpl	0, cr0, [r0], {-0}
    1294:	68000000 	stmdavs	r0, {}	; <UNPREDICTABLE>
    1298:	01000000 	mrseq	r0, (UNDEF: 0)
    129c:	00685000 	rsbeq	r5, r8, r0
    12a0:	00740000 	rsbseq	r0, r4, r0
    12a4:	00040000 	andeq	r0, r4, r0
    12a8:	9f5001f3 	svcls	0x005001f3
	...
    12b8:	00000038 	andeq	r0, r0, r8, lsr r0
    12bc:	00000043 	andeq	r0, r0, r3, asr #32
    12c0:	43500001 	cmpmi	r0, #1
    12c4:	5c000000 	stcpl	0, cr0, [r0], {-0}
    12c8:	01000000 	mrseq	r0, (UNDEF: 0)
    12cc:	00005500 	andeq	r5, r0, r0, lsl #10
	...
    12d8:	00000048 	andeq	r0, r0, r8, asr #32
    12dc:	0000005c 	andeq	r0, r0, ip, asr r0
    12e0:	00540001 	subseq	r0, r4, r1
	...
    12ec:	00004c00 	andeq	r4, r0, r0, lsl #24
    12f0:	00005000 	andeq	r5, r0, r0
    12f4:	50000100 	andpl	r0, r0, r0, lsl #2
	...
    1300:	00340000 	eorseq	r0, r4, r0
    1304:	00380000 	eorseq	r0, r8, r0
    1308:	00010000 	andeq	r0, r1, r0
    130c:	00000050 	andeq	r0, r0, r0, asr r0
	...
    131c:	00000400 	andeq	r0, r0, r0, lsl #8
    1320:	50000100 	andpl	r0, r0, r0, lsl #2
    1324:	00000004 	andeq	r0, r0, r4
    1328:	00000018 	andeq	r0, r0, r8, lsl r0
    132c:	00530001 	subseq	r0, r3, r1
    1330:	00000000 	andeq	r0, r0, r0
    1334:	38000000 	stmdacc	r0, {}	; <UNPREDICTABLE>
    1338:	43000001 	movwmi	r0, #1
    133c:	01000001 	tsteq	r0, r1
    1340:	01435000 	mrseq	r5, (UNDEF: 67)
    1344:	01680000 	cmneq	r8, r0
    1348:	00010000 	andeq	r0, r1, r0
    134c:	00000054 	andeq	r0, r0, r4, asr r0
	...
    1358:	00000f00 	andeq	r0, r0, r0, lsl #30
    135c:	50000100 	andpl	r0, r0, r0, lsl #2
    1360:	0000000f 	andeq	r0, r0, pc
    1364:	00000020 	andeq	r0, r0, r0, lsr #32
    1368:	00540001 	subseq	r0, r4, r1
	...
    1374:	0f000000 	svceq	0x00000000
    1378:	01000000 	mrseq	r0, (UNDEF: 0)
    137c:	000f5100 	andeq	r5, pc, r0, lsl #2
    1380:	00200000 	eoreq	r0, r0, r0
    1384:	00010000 	andeq	r0, r1, r0
    1388:	00000055 	andeq	r0, r0, r5, asr r0
    138c:	00000000 	andeq	r0, r0, r0
    1390:	0000ec00 	andeq	lr, r0, r0, lsl #24
    1394:	00010400 	andeq	r0, r1, r0, lsl #8
    1398:	50000100 	andpl	r0, r0, r0, lsl #2
    139c:	00000104 	andeq	r0, r0, r4, lsl #2
    13a0:	00000114 	andeq	r0, r0, r4, lsl r1
    13a4:	01f30004 	mvnseq	r0, r4
    13a8:	01149f50 	tsteq	r4, r0, asr pc
    13ac:	01180000 	tsteq	r8, r0
    13b0:	00010000 	andeq	r0, r1, r0
    13b4:	00011850 	andeq	r1, r1, r0, asr r8
    13b8:	00012000 	andeq	r2, r1, r0
    13bc:	f3000400 	vshl.u8	d0, d0, d0
    13c0:	009f5001 	addseq	r5, pc, r1
    13c4:	00000000 	andeq	r0, r0, r0
    13c8:	f8000000 			; <UNDEFINED> instruction: 0xf8000000
    13cc:	04000000 	streq	r0, [r0], #-0
    13d0:	0b000001 	bleq	13dc <_start-0x6c24>
    13d4:	35007000 	strcc	r7, [r0, #-0]
    13d8:	80b42325 	adcshi	r2, r4, r5, lsr #6
    13dc:	9f028180 	svcls	0x00028180
    13e0:	00000104 	andeq	r0, r0, r4, lsl #2
    13e4:	00000107 	andeq	r0, r0, r7, lsl #2
    13e8:	07500001 	ldrbeq	r0, [r0, -r1]
    13ec:	14000001 	strne	r0, [r0], #-1
    13f0:	0c000001 	stceq	0, cr0, [r0], {1}
    13f4:	5001f300 	andpl	pc, r1, r0, lsl #6
    13f8:	b4232535 	strtlt	r2, [r3], #-1333	; 0xfffffacb
    13fc:	02818080 	addeq	r8, r1, #128	; 0x80
    1400:	0000009f 	muleq	r0, pc, r0	; <UNPREDICTABLE>
    1404:	00000000 	andeq	r0, r0, r0
    1408:	0000fc00 	andeq	pc, r0, r0, lsl #24
    140c:	00011400 	andeq	r1, r1, r0, lsl #8
    1410:	54000100 	strpl	r0, [r0], #-256	; 0xffffff00
	...
    141c:	000000d0 	ldrdeq	r0, [r0], -r0	; <UNPREDICTABLE>
    1420:	000000df 	ldrdeq	r0, [r0], -pc	; <UNPREDICTABLE>
    1424:	df500001 	svcle	0x00500001
    1428:	e4000000 	str	r0, [r0], #-0
    142c:	04000000 	streq	r0, [r0], #-0
    1430:	5001f300 	andpl	pc, r1, r0, lsl #6
    1434:	0000e49f 	muleq	r0, pc, r4	; <UNPREDICTABLE>
    1438:	0000e700 	andeq	lr, r0, r0, lsl #14
    143c:	50000100 	andpl	r0, r0, r0, lsl #2
    1440:	000000e7 	andeq	r0, r0, r7, ror #1
    1444:	000000ec 	andeq	r0, r0, ip, ror #1
    1448:	01f30004 	mvnseq	r0, r4
    144c:	00009f50 	andeq	r9, r0, r0, asr pc
    1450:	00000000 	andeq	r0, r0, r0
    1454:	00d00000 	sbcseq	r0, r0, r0
    1458:	00df0000 	sbcseq	r0, pc, r0
    145c:	00010000 	andeq	r0, r1, r0
    1460:	0000df51 	andeq	sp, r0, r1, asr pc
    1464:	0000e400 	andeq	lr, r0, r0, lsl #8
    1468:	f3000400 	vshl.u8	d0, d0, d0
    146c:	e49f5101 	ldr	r5, [pc], #257	; 1474 <_start-0x6b8c>
    1470:	e7000000 	str	r0, [r0, -r0]
    1474:	01000000 	mrseq	r0, (UNDEF: 0)
    1478:	00e75100 	rsceq	r5, r7, r0, lsl #2
    147c:	00ec0000 	rsceq	r0, ip, r0
    1480:	00040000 	andeq	r0, r4, r0
    1484:	9f5101f3 	svcls	0x005101f3
	...
    1490:	000000c0 	andeq	r0, r0, r0, asr #1
    1494:	000000cb 	andeq	r0, r0, fp, asr #1
    1498:	cb500001 	blgt	14014a4 <__bss_end__+0x13f7474>
    149c:	d0000000 	andle	r0, r0, r0
    14a0:	04000000 	streq	r0, [r0], #-0
    14a4:	5001f300 	andpl	pc, r1, r0, lsl #6
    14a8:	0000009f 	muleq	r0, pc, r0	; <UNPREDICTABLE>
    14ac:	00000000 	andeq	r0, r0, r0
    14b0:	00009c00 	andeq	r9, r0, r0, lsl #24
    14b4:	0000b400 	andeq	fp, r0, r0, lsl #8
    14b8:	50000100 	andpl	r0, r0, r0, lsl #2
    14bc:	000000b4 	strheq	r0, [r0], -r4
    14c0:	000000c0 	andeq	r0, r0, r0, asr #1
    14c4:	01f30004 	mvnseq	r0, r4
    14c8:	00009f50 	andeq	r9, r0, r0, asr pc
    14cc:	00000000 	andeq	r0, r0, r0
    14d0:	00780000 	rsbseq	r0, r8, r0
    14d4:	00900000 	addseq	r0, r0, r0
    14d8:	00010000 	andeq	r0, r1, r0
    14dc:	00009050 	andeq	r9, r0, r0, asr r0
    14e0:	00009c00 	andeq	r9, r0, r0, lsl #24
    14e4:	f3000400 	vshl.u8	d0, d0, d0
    14e8:	009f5001 	addseq	r5, pc, r1
    14ec:	00000000 	andeq	r0, r0, r0
    14f0:	68000000 	stmdavs	r0, {}	; <UNPREDICTABLE>
    14f4:	73000000 	movwvc	r0, #0
    14f8:	01000000 	mrseq	r0, (UNDEF: 0)
    14fc:	00735000 	rsbseq	r5, r3, r0
    1500:	00780000 	rsbseq	r0, r8, r0
    1504:	00040000 	andeq	r0, r4, r0
    1508:	9f5001f3 	svcls	0x005001f3
	...
    1518:	00000048 	andeq	r0, r0, r8, asr #32
    151c:	48500001 	ldmdami	r0, {r0}^
    1520:	68000000 	stmdavs	r0, {}	; <UNPREDICTABLE>
    1524:	04000000 	streq	r0, [r0], #-0
    1528:	5001f300 	andpl	pc, r1, r0, lsl #6
    152c:	0000009f 	muleq	r0, pc, r0	; <UNPREDICTABLE>
	...
    1538:	00004b00 	andeq	r4, r0, r0, lsl #22
    153c:	51000100 	mrspl	r0, (UNDEF: 16)
    1540:	0000004b 	andeq	r0, r0, fp, asr #32
    1544:	00000068 	andeq	r0, r0, r8, rrx
    1548:	01f30004 	mvnseq	r0, r4
    154c:	00009f51 	andeq	r9, r0, r1, asr pc
    1550:	00000000 	andeq	r0, r0, r0
    1554:	004c0000 	subeq	r0, ip, r0
    1558:	00540000 	subseq	r0, r4, r0
    155c:	00010000 	andeq	r0, r1, r0
    1560:	00005450 	andeq	r5, r0, r0, asr r4
    1564:	00005800 	andeq	r5, r0, r0, lsl #16
    1568:	75000900 	strvc	r0, [r0, #-2304]	; 0xfffff700
    156c:	24007400 	strcs	r7, [r0], #-1024	; 0xfffffc00
    1570:	9f210071 	svcls	0x00210071
    1574:	00000058 	andeq	r0, r0, r8, asr r0
    1578:	0000005f 	andeq	r0, r0, pc, asr r0
    157c:	00510001 	subseq	r0, r1, r1
    1580:	00000000 	andeq	r0, r0, r0
    1584:	e0000000 	and	r0, r0, r0
    1588:	1b000000 	blne	1590 <_start-0x6a70>
    158c:	01000001 	tsteq	r0, r1
    1590:	011b5000 	tsteq	fp, r0
    1594:	01200000 			; <UNDEFINED> instruction: 0x01200000
    1598:	00040000 	andeq	r0, r4, r0
    159c:	9f5001f3 	svcls	0x005001f3
    15a0:	00000120 	andeq	r0, r0, r0, lsr #2
    15a4:	00000123 	andeq	r0, r0, r3, lsr #2
    15a8:	23500001 	cmpcs	r0, #1
    15ac:	3c000001 	stccc	0, cr0, [r0], {1}
    15b0:	04000001 	streq	r0, [r0], #-1
    15b4:	5001f300 	andpl	pc, r1, r0, lsl #6
    15b8:	00013c9f 	muleq	r1, pc, ip	; <UNPREDICTABLE>
    15bc:	00013f00 	andeq	r3, r1, r0, lsl #30
    15c0:	50000100 	andpl	r0, r0, r0, lsl #2
    15c4:	0000013f 	andeq	r0, r0, pc, lsr r1
    15c8:	0000016c 	andeq	r0, r0, ip, ror #2
    15cc:	01f30004 	mvnseq	r0, r4
    15d0:	00009f50 	andeq	r9, r0, r0, asr pc
    15d4:	00000000 	andeq	r0, r0, r0
    15d8:	00e00000 	rsceq	r0, r0, r0
    15dc:	01080000 	mrseq	r0, (UNDEF: 8)
    15e0:	00010000 	andeq	r0, r1, r0
    15e4:	00010851 	andeq	r0, r1, r1, asr r8
    15e8:	00011b00 	andeq	r1, r1, r0, lsl #22
    15ec:	71000300 	mrsvc	r0, LR_irq
    15f0:	011b9f01 	tsteq	fp, r1, lsl #30
    15f4:	01200000 			; <UNDEFINED> instruction: 0x01200000
    15f8:	00040000 	andeq	r0, r4, r0
    15fc:	9f5101f3 	svcls	0x005101f3
    1600:	00000120 	andeq	r0, r0, r0, lsr #2
    1604:	00000123 	andeq	r0, r0, r3, lsr #2
    1608:	23510001 	cmpcs	r1, #1
    160c:	6c000001 	stcvs	0, cr0, [r0], {1}
    1610:	04000001 	streq	r0, [r0], #-1
    1614:	5101f300 	mrspl	pc, SP_irq	; <UNPREDICTABLE>
    1618:	0000009f 	muleq	r0, pc, r0	; <UNPREDICTABLE>
    161c:	00000000 	andeq	r0, r0, r0
    1620:	0000f800 	andeq	pc, r0, r0, lsl #16
    1624:	0000fc00 	andeq	pc, r0, r0, lsl #24
    1628:	52000100 	andpl	r0, r0, #0, 2
    162c:	000000fc 	strdeq	r0, [r0], -ip
    1630:	00000104 	andeq	r0, r0, r4, lsl #2
    1634:	50030005 	andpl	r0, r3, r5
    1638:	04000096 	streq	r0, [r0], #-150	; 0xffffff6a
    163c:	1b000001 	blne	1648 <_start-0x69b8>
    1640:	01000001 	tsteq	r0, r1
    1644:	013c5300 	teqeq	ip, r0, lsl #6
    1648:	013f0000 	teqeq	pc, r0
    164c:	00010000 	andeq	r0, r1, r0
    1650:	00000053 	andeq	r0, r0, r3, asr r0
    1654:	00000000 	andeq	r0, r0, r0
    1658:	00006c00 	andeq	r6, r0, r0, lsl #24
    165c:	00008000 	andeq	r8, r0, r0
    1660:	50000100 	andpl	r0, r0, r0, lsl #2
    1664:	00000080 	andeq	r0, r0, r0, lsl #1
    1668:	0000009b 	muleq	r0, fp, r0
    166c:	9b520001 	blls	1481678 <__bss_end__+0x1477648>
    1670:	a4000000 	strge	r0, [r0], #-0
    1674:	09000000 	stmdbeq	r0, {}	; <UNPREDICTABLE>
    1678:	5001f300 	andpl	pc, r1, r0, lsl #6
    167c:	f8090723 			; <UNDEFINED> instruction: 0xf8090723
    1680:	00a49f1a 	adceq	r9, r4, sl, lsl pc
    1684:	00a70000 	adceq	r0, r7, r0
    1688:	00010000 	andeq	r0, r1, r0
    168c:	0000a750 	andeq	sl, r0, r0, asr r7
    1690:	0000d000 	andeq	sp, r0, r0
    1694:	f3000400 	vshl.u8	d0, d0, d0
    1698:	009f5001 	addseq	r5, pc, r1
    169c:	00000000 	andeq	r0, r0, r0
    16a0:	88000000 	stmdahi	r0, {}	; <UNPREDICTABLE>
    16a4:	a4000000 	strge	r0, [r0], #-0
    16a8:	01000000 	mrseq	r0, (UNDEF: 0)
    16ac:	00005400 	andeq	r5, r0, r0, lsl #8
    16b0:	00000000 	andeq	r0, r0, r0
    16b4:	001c0000 	andseq	r0, ip, r0
    16b8:	00430000 	subeq	r0, r3, r0
    16bc:	00010000 	andeq	r0, r1, r0
    16c0:	00004350 	andeq	r4, r0, r0, asr r3
    16c4:	00006c00 	andeq	r6, r0, r0, lsl #24
    16c8:	f3000400 	vshl.u8	d0, d0, d0
    16cc:	009f5001 	addseq	r5, pc, r1
    16d0:	00000000 	andeq	r0, r0, r0
    16d4:	1c000000 	stcne	0, cr0, [r0], {-0}
    16d8:	43000000 	movwmi	r0, #0
    16dc:	01000000 	mrseq	r0, (UNDEF: 0)
    16e0:	00435000 	subeq	r5, r3, r0
    16e4:	006c0000 	rsbeq	r0, ip, r0
    16e8:	00040000 	andeq	r0, r4, r0
    16ec:	9f5001f3 	svcls	0x005001f3
	...

Disassembly of section .debug_aranges:

00000000 <.debug_aranges>:
   0:	0000001c 	andeq	r0, r0, ip, lsl r0
   4:	00000002 	andeq	r0, r0, r2
   8:	00040000 	andeq	r0, r4, r0
   c:	00000000 	andeq	r0, r0, r0
  10:	00008010 	andeq	r8, r0, r0, lsl r0
  14:	000000fc 	strdeq	r0, [r0], -ip
	...
  20:	0000001c 	andeq	r0, r0, ip, lsl r0
  24:	0bc20002 	bleq	ff080034 <__bss_end__+0xff076004>
  28:	00040000 	andeq	r0, r4, r0
  2c:	00000000 	andeq	r0, r0, r0
  30:	0000810c 	andeq	r8, r0, ip, lsl #2
  34:	00000868 	andeq	r0, r0, r8, ror #16
	...
  40:	0000001c 	andeq	r0, r0, ip, lsl r0
  44:	254b0002 	strbcs	r0, [fp, #-2]
  48:	00040000 	andeq	r0, r4, r0
  4c:	00000000 	andeq	r0, r0, r0
  50:	00008974 	andeq	r8, r0, r4, ror r9
  54:	000000ec 	andeq	r0, r0, ip, ror #1
	...
  60:	0000001c 	andeq	r0, r0, ip, lsl r0
  64:	2f4d0002 	svccs	0x004d0002
  68:	00040000 	andeq	r0, r4, r0
  6c:	00000000 	andeq	r0, r0, r0
  70:	00008a60 	andeq	r8, r0, r0, ror #20
  74:	00000018 	andeq	r0, r0, r8, lsl r0
	...
  80:	0000001c 	andeq	r0, r0, ip, lsl r0
  84:	38cd0002 	stmiacc	sp, {r1}^
  88:	00040000 	andeq	r0, r4, r0
  8c:	00000000 	andeq	r0, r0, r0
  90:	00008a78 	andeq	r8, r0, r8, ror sl
  94:	00000058 	andeq	r0, r0, r8, asr r0
	...
  a0:	0000001c 	andeq	r0, r0, ip, lsl r0
  a4:	42fc0002 	rscsmi	r0, ip, #2
  a8:	00040000 	andeq	r0, r4, r0
  ac:	00000000 	andeq	r0, r0, r0
  b0:	00008ad0 	ldrdeq	r8, [r0], -r0
  b4:	0000003c 	andeq	r0, r0, ip, lsr r0
	...
  c0:	0000001c 	andeq	r0, r0, ip, lsl r0
  c4:	4cd90002 	ldclmi	0, cr0, [r9], {2}
  c8:	00040000 	andeq	r0, r4, r0
  cc:	00000000 	andeq	r0, r0, r0
  d0:	00008b0c 	andeq	r8, r0, ip, lsl #22
  d4:	00000034 	andeq	r0, r0, r4, lsr r0
	...
  e0:	0000001c 	andeq	r0, r0, ip, lsl r0
  e4:	56600002 	strbtpl	r0, [r0], -r2
  e8:	00040000 	andeq	r0, r4, r0
  ec:	00000000 	andeq	r0, r0, r0
  f0:	00008b40 	andeq	r8, r0, r0, asr #22
  f4:	00000520 	andeq	r0, r0, r0, lsr #10
	...
 100:	0000001c 	andeq	r0, r0, ip, lsl r0
 104:	66040002 	strvs	r0, [r4], -r2
 108:	00040000 	andeq	r0, r4, r0
 10c:	00000000 	andeq	r0, r0, r0
 110:	00009060 	andeq	r9, r0, r0, rrx
 114:	00000028 	andeq	r0, r0, r8, lsr #32
	...
 120:	0000001c 	andeq	r0, r0, ip, lsl r0
 124:	6fb30002 	svcvs	0x00b30002
 128:	00040000 	andeq	r0, r4, r0
 12c:	00000000 	andeq	r0, r0, r0
 130:	00009088 	andeq	r9, r0, r8, lsl #1
 134:	0000002c 	andeq	r0, r0, ip, lsr #32
	...
 140:	0000001c 	andeq	r0, r0, ip, lsl r0
 144:	798a0002 	stmibvc	sl, {r1}
 148:	00040000 	andeq	r0, r4, r0
 14c:	00000000 	andeq	r0, r0, r0
 150:	000090b4 	strheq	r9, [r0], -r4
 154:	00000078 	andeq	r0, r0, r8, ror r0
	...
 160:	0000001c 	andeq	r0, r0, ip, lsl r0
 164:	84290002 	strthi	r0, [r9], #-2
 168:	00040000 	andeq	r0, r4, r0
 16c:	00000000 	andeq	r0, r0, r0
 170:	0000912c 	andeq	r9, r0, ip, lsr #2
 174:	0000008c 	andeq	r0, r0, ip, lsl #1
	...
 180:	0000001c 	andeq	r0, r0, ip, lsl r0
 184:	8f170002 	svchi	0x00170002
 188:	00040000 	andeq	r0, r4, r0
 18c:	00000000 	andeq	r0, r0, r0
 190:	00009204 	andeq	r9, r0, r4, lsl #4
 194:	00000178 	andeq	r0, r0, r8, ror r1
	...
 1a0:	0000001c 	andeq	r0, r0, ip, lsl r0
 1a4:	9be00002 	blls	ff8001b4 <__bss_end__+0xff7f6184>
 1a8:	00040000 	andeq	r0, r4, r0
 1ac:	00000000 	andeq	r0, r0, r0
 1b0:	0000937c 	andeq	r9, r0, ip, ror r3
 1b4:	00000120 	andeq	r0, r0, r0, lsr #2
	...
 1c0:	0000001c 	andeq	r0, r0, ip, lsl r0
 1c4:	a7540002 	ldrbge	r0, [r4, -r2]
 1c8:	00040000 	andeq	r0, r4, r0
 1cc:	00000000 	andeq	r0, r0, r0
 1d0:	0000949c 	muleq	r0, ip, r4
 1d4:	00000194 	muleq	r0, r4, r1
	...

Disassembly of section .debug_line:

00000000 <.debug_line>:
       0:	0000015a 	andeq	r0, r0, sl, asr r1
       4:	00fa0003 	rscseq	r0, sl, r3
       8:	01020000 	mrseq	r0, (UNDEF: 2)
       c:	000d0efb 	strdeq	r0, [sp], -fp
      10:	01010101 	tsteq	r1, r1, lsl #2
      14:	01000000 	mrseq	r0, (UNDEF: 0)
      18:	2f010000 	svccs	0x00010000
      1c:	2f727375 	svccs	0x00727375
      20:	2d6d7261 	sfmcs	f7, 2, [sp, #-388]!	; 0xfffffe7c
      24:	656e6f6e 	strbvs	r6, [lr, #-3950]!	; 0xfffff092
      28:	6261652d 	rsbvs	r6, r1, #188743680	; 0xb400000
      2c:	6e692f69 	cdpvs	15, 6, cr2, cr9, cr9, {3}
      30:	64756c63 	ldrbtvs	r6, [r5], #-3171	; 0xfffff39d
      34:	79732f65 	ldmdbvc	r3!, {r0, r2, r5, r6, r8, r9, sl, fp, sp}^
      38:	752f0073 	strvc	r0, [pc, #-115]!	; ffffffcd <__bss_end__+0xffff5f9d>
      3c:	6c2f7273 	sfmvs	f7, 4, [pc], #-460	; fffffe78 <__bss_end__+0xffff5e48>
      40:	672f6269 	strvs	r6, [pc, -r9, ror #4]!
      44:	612f6363 			; <UNDEFINED> instruction: 0x612f6363
      48:	6e2d6d72 	mcrvs	13, 1, r6, cr13, cr2, {3}
      4c:	2d656e6f 	stclcs	14, cr6, [r5, #-444]!	; 0xfffffe44
      50:	69626165 	stmdbvs	r2!, {r0, r2, r5, r6, r8, sp, lr}^
      54:	322e392f 	eorcc	r3, lr, #770048	; 0xbc000
      58:	692f302e 	stmdbvs	pc!, {r1, r2, r3, r5, ip, sp}	; <UNPREDICTABLE>
      5c:	756c636e 	strbvc	r6, [ip, #-878]!	; 0xfffffc92
      60:	2f006564 	svccs	0x00006564
      64:	656d6f68 	strbvs	r6, [sp, #-3944]!	; 0xfffff098
      68:	6573752f 	ldrbvs	r7, [r3, #-1327]!	; 0xfffffad1
      6c:	65442f72 	strbvs	r2, [r4, #-3954]	; 0xfffff08e
      70:	53432f76 	movtpl	r2, #16246	; 0x3f76
      74:	58303432 	ldmdapl	r0!, {r1, r4, r5, sl, ip, sp}
      78:	62696c2f 	rsbvs	r6, r9, #12032	; 0x2f00
      7c:	692f6970 	stmdbvs	pc!, {r4, r5, r6, r8, fp, sp, lr}	; <UNPREDICTABLE>
      80:	756c636e 	strbvc	r6, [ip, #-878]!	; 0xfffffc92
      84:	2f006564 	svccs	0x00006564
      88:	2f727375 	svccs	0x00727375
      8c:	2d6d7261 	sfmcs	f7, 2, [sp, #-388]!	; 0xfffffe7c
      90:	656e6f6e 	strbvs	r6, [lr, #-3950]!	; 0xfffff092
      94:	6261652d 	rsbvs	r6, r1, #188743680	; 0xb400000
      98:	6e692f69 	cdpvs	15, 6, cr2, cr9, cr9, {3}
      9c:	64756c63 	ldrbtvs	r6, [r5], #-3171	; 0xfffff39d
      a0:	70000065 	andvc	r0, r0, r5, rrx
      a4:	31747261 	cmncc	r4, r1, ror #4
      a8:	7365742d 	cmnvc	r5, #754974720	; 0x2d000000
      ac:	632e3474 			; <UNDEFINED> instruction: 0x632e3474
      b0:	00000000 	andeq	r0, r0, r0
      b4:	6b636f6c 	blvs	18dbe6c <__bss_end__+0x18d1e3c>
      b8:	0100682e 	tsteq	r0, lr, lsr #16
      bc:	745f0000 	ldrbvc	r0, [pc], #-0	; c4 <_start-0x7f3c>
      c0:	73657079 	cmnvc	r5, #121	; 0x79
      c4:	0100682e 	tsteq	r0, lr, lsr #16
      c8:	74730000 	ldrbtvc	r0, [r3], #-0
      cc:	66656464 	strbtvs	r6, [r5], -r4, ror #8
      d0:	0200682e 	andeq	r6, r0, #3014656	; 0x2e0000
      d4:	65720000 	ldrbvs	r0, [r2, #-0]!
      d8:	2e746e65 	cdpcs	14, 7, cr6, cr4, cr5, {3}
      dc:	00010068 	andeq	r0, r1, r8, rrx
      e0:	69707200 	ldmdbvs	r0!, {r9, ip, sp, lr}^
      e4:	0300682e 	movweq	r6, #2094	; 0x82e
      e8:	6b630000 	blvs	18c00f0 <__bss_end__+0x18b60c0>
      ec:	6f6c6c61 	svcvs	0x006c6c61
      f0:	00682e63 	rsbeq	r2, r8, r3, ror #28
      f4:	73000000 	movwvc	r0, #0
      f8:	6e697274 	mcrvs	2, 3, r7, cr9, cr4, {3}
      fc:	00682e67 	rsbeq	r2, r8, r7, ror #28
     100:	00000004 	andeq	r0, r0, r4
     104:	05001405 	streq	r1, [r0, #-1029]	; 0xfffffbfb
     108:	00801002 	addeq	r1, r0, r2
     10c:	05051600 	streq	r1, [r5, #-1536]	; 0xfffffa00
     110:	134b4d2f 	movtne	r4, #48431	; 0xbd2f
     114:	060f0584 	streq	r0, [pc], -r4, lsl #11
     118:	06050501 	streq	r0, [r5], -r1, lsl #10
     11c:	05a067f3 	streq	r6, [r0, #2035]!	; 0x7f3
     120:	05010608 	streq	r0, [r1, #-1544]	; 0xfffff9f8
     124:	09052e07 	stmdbeq	r5, {r0, r1, r2, r9, sl, fp, sp}
     128:	01144b06 	tsteq	r4, r6, lsl #22
     12c:	05054a4a 	streq	r4, [r5, #-2634]	; 0xfffff5b6
     130:	060a0514 			; <UNDEFINED> instruction: 0x060a0514
     134:	06050501 	streq	r0, [r5], -r1, lsl #10
     138:	0608054c 	streq	r0, [r8], -ip, asr #10
     13c:	2e070501 	cfsh32cs	mvfx0, mvfx7, #1
     140:	4b060905 	blmi	18255c <__bss_end__+0x17852c>
     144:	4a4a0114 	bmi	128059c <__bss_end__+0x127656c>
     148:	13060105 	movwne	r0, #24837	; 0x6105
     14c:	03060905 	movweq	r0, #26885	; 0x6905
     150:	2e012e76 	mcrcs	14, 0, r2, cr1, cr6, {3}
     154:	2e01359e 	mcrcs	5, 0, r3, cr1, cr14, {4}
     158:	0010029e 	mulseq	r0, lr, r2
     15c:	072f0101 	streq	r0, [pc, -r1, lsl #2]!
     160:	00030000 	andeq	r0, r3, r0
     164:	00000137 	andeq	r0, r0, r7, lsr r1
     168:	0efb0102 	cdpeq	1, 15, cr0, cr11, cr2, {0}
     16c:	0101000d 	tsteq	r1, sp
     170:	00000101 	andeq	r0, r0, r1, lsl #2
     174:	00000100 	andeq	r0, r0, r0, lsl #2
     178:	73752f01 	cmnvc	r5, #1, 30
     17c:	696c2f72 	stmdbvs	ip!, {r1, r4, r5, r6, r8, r9, sl, fp, sp}^
     180:	63672f62 	cmnvs	r7, #392	; 0x188
     184:	72612f63 	rsbvc	r2, r1, #396	; 0x18c
     188:	6f6e2d6d 	svcvs	0x006e2d6d
     18c:	652d656e 	strvs	r6, [sp, #-1390]!	; 0xfffffa92
     190:	2f696261 	svccs	0x00696261
     194:	2e322e39 	mrccs	14, 1, r2, cr2, cr9, {1}
     198:	6e692f30 	mcrvs	15, 3, r2, cr9, cr0, {1}
     19c:	64756c63 	ldrbtvs	r6, [r5], #-3171	; 0xfffff39d
     1a0:	752f0065 	strvc	r0, [pc, #-101]!	; 143 <_start-0x7ebd>
     1a4:	612f7273 			; <UNDEFINED> instruction: 0x612f7273
     1a8:	6e2d6d72 	mcrvs	13, 1, r6, cr13, cr2, {3}
     1ac:	2d656e6f 	stclcs	14, cr6, [r5, #-444]!	; 0xfffffe44
     1b0:	69626165 	stmdbvs	r2!, {r0, r2, r5, r6, r8, sp, lr}^
     1b4:	636e692f 	cmnvs	lr, #770048	; 0xbc000
     1b8:	6564756c 	strbvs	r7, [r4, #-1388]!	; 0xfffffa94
     1bc:	7379732f 	cmnvc	r9, #-1140850688	; 0xbc000000
     1c0:	6f682f00 	svcvs	0x00682f00
     1c4:	752f656d 	strvc	r6, [pc, #-1389]!	; fffffc5f <__bss_end__+0xffff5c2f>
     1c8:	2f726573 	svccs	0x00726573
     1cc:	2f766544 	svccs	0x00766544
     1d0:	34325343 	ldrtcc	r5, [r2], #-835	; 0xfffffcbd
     1d4:	6c2f5830 	stcvs	8, cr5, [pc], #-192	; 11c <_start-0x7ee4>
     1d8:	69706269 	ldmdbvs	r0!, {r0, r3, r5, r6, r9, sp, lr}^
     1dc:	636e692f 	cmnvs	lr, #770048	; 0xbc000
     1e0:	6564756c 	strbvs	r7, [r4, #-1388]!	; 0xfffffa94
     1e4:	73752f00 	cmnvc	r5, #0, 30
     1e8:	72612f72 	rsbvc	r2, r1, #456	; 0x1c8
     1ec:	6f6e2d6d 	svcvs	0x006e2d6d
     1f0:	652d656e 	strvs	r6, [sp, #-1390]!	; 0xfffffa92
     1f4:	2f696261 	svccs	0x00696261
     1f8:	6c636e69 	stclvs	14, cr6, [r3], #-420	; 0xfffffe5c
     1fc:	00656475 	rsbeq	r6, r5, r5, ror r4
     200:	6d6f682f 	stclvs	8, cr6, [pc, #-188]!	; 14c <_start-0x7eb4>
     204:	73752f65 	cmnvc	r5, #404	; 0x194
     208:	442f7265 	strtmi	r7, [pc], #-613	; 210 <_start-0x7df0>
     20c:	432f7665 			; <UNDEFINED> instruction: 0x432f7665
     210:	30343253 	eorscc	r3, r4, r3, asr r2
     214:	696c2f58 	stmdbvs	ip!, {r3, r4, r6, r8, r9, sl, fp, sp}^
     218:	2f697062 	svccs	0x00697062
     21c:	6362696c 	cmnvs	r2, #108, 18	; 0x1b0000
     220:	6b630000 	blvs	18c0228 <__bss_end__+0x18b61f8>
     224:	6f6c6c61 	svcvs	0x006c6c61
     228:	00632e63 	rsbeq	r2, r3, r3, ror #28
     22c:	63000000 	movwvs	r0, #0
     230:	6c6c616b 	stfvse	f6, [ip], #-428	; 0xfffffe54
     234:	682e636f 	stmdavs	lr!, {r0, r1, r2, r3, r5, r6, r8, r9, sp, lr}
     238:	00000000 	andeq	r0, r0, r0
     23c:	69647473 	stmdbvs	r4!, {r0, r1, r4, r5, r6, sl, ip, sp, lr}^
     240:	672d746e 	strvs	r7, [sp, -lr, ror #8]!
     244:	682e6363 	stmdavs	lr!, {r0, r1, r5, r6, r8, r9, sp, lr}
     248:	00000100 	andeq	r0, r0, r0, lsl #2
     24c:	6b636f6c 	blvs	18dc004 <__bss_end__+0x18d1fd4>
     250:	0200682e 	andeq	r6, r0, #3014656	; 0x2e0000
     254:	745f0000 	ldrbvc	r0, [pc], #-0	; 25c <_start-0x7da4>
     258:	73657079 	cmnvc	r5, #121	; 0x79
     25c:	0200682e 	andeq	r6, r0, #3014656	; 0x2e0000
     260:	74730000 	ldrbtvc	r0, [r3], #-0
     264:	66656464 	strbtvs	r6, [r5], -r4, ror #8
     268:	0100682e 	tsteq	r0, lr, lsr #16
     26c:	65720000 	ldrbvs	r0, [r2, #-0]!
     270:	2e746e65 	cdpcs	14, 7, cr6, cr4, cr5, {3}
     274:	00020068 	andeq	r0, r2, r8, rrx
     278:	69707200 	ldmdbvs	r0!, {r9, ip, sp, lr}^
     27c:	0300682e 	movweq	r6, #2094	; 0x82e
     280:	74730000 	ldrbtvc	r0, [r3], #-0
     284:	676e6972 			; <UNDEFINED> instruction: 0x676e6972
     288:	0400682e 	streq	r6, [r0], #-2094	; 0xfffff7d2
     28c:	696c0000 	stmdbvs	ip!, {}^	; <UNPREDICTABLE>
     290:	652d6362 	strvs	r6, [sp, #-866]!	; 0xfffffc9e
     294:	61727478 	cmnvs	r2, r8, ror r4
     298:	0500682e 	streq	r6, [r0, #-2094]	; 0xfffff7d2
     29c:	05000000 	streq	r0, [r0, #-0]
     2a0:	02050022 	andeq	r0, r5, #34	; 0x22
     2a4:	0000810c 	andeq	r8, r0, ip, lsl #2
     2a8:	05011203 	streq	r1, [r1, #-515]	; 0xfffffdfd
     2ac:	01050124 	tsteq	r5, r4, lsr #2
     2b0:	052e0106 	streq	r0, [lr, #-262]!	; 0xfffffefa
     2b4:	06300624 	ldrteq	r0, [r0], -r4, lsr #12
     2b8:	06260501 	strteq	r0, [r6], -r1, lsl #10
     2bc:	062d052e 	strteq	r0, [sp], -lr, lsr #10
     2c0:	2e010501 	cfsh32cs	mvfx0, mvfx1, #1
     2c4:	4c062205 	sfmmi	f2, 4, [r6], {5}
     2c8:	24050106 	strcs	r0, [r5], #-262	; 0xfffffefa
     2cc:	2b054a06 	blcs	152aec <__bss_end__+0x148abc>
     2d0:	3d050106 	stfccs	f0, [r5, #-24]	; 0xffffffe8
     2d4:	2e01052e 	cfsh32cs	mvfx0, mvfx1, #30
     2d8:	4c062805 	stcmi	8, cr2, [r6], {5}
     2dc:	05012a05 	streq	r2, [r1, #-2565]	; 0xfffff5fb
     2e0:	0501063c 	streq	r0, [r1, #-1596]	; 0xfffff9c4
     2e4:	29052e01 	stmdbcs	r5, {r0, r9, sl, fp, sp}
     2e8:	05054d06 	streq	r4, [r5, #-3334]	; 0xfffff2fa
     2ec:	06010513 			; <UNDEFINED> instruction: 0x06010513
     2f0:	42052e13 	andmi	r2, r5, #304	; 0x130
     2f4:	2e230306 	cdpcs	3, 2, cr0, cr3, cr6, {0}
     2f8:	05050106 	streq	r0, [r5, #-262]	; 0xfffffefa
     2fc:	05136706 	ldreq	r6, [r3, #-1798]	; 0xfffff8fa
     300:	0501060b 	streq	r0, [r1, #-1547]	; 0xfffff9f5
     304:	04020010 	streq	r0, [r2], #-16
     308:	052e0601 	streq	r0, [lr, #-1537]!	; 0xfffff9ff
     30c:	04020005 	streq	r0, [r2], #-5
     310:	05010601 	streq	r0, [r1, #-1537]	; 0xfffff9ff
     314:	054b0609 	strbeq	r0, [fp, #-1545]	; 0xfffff9f7
     318:	0501060d 	streq	r0, [r1, #-1549]	; 0xfffff9f3
     31c:	1c052e0b 	stcne	14, cr2, [r5], {11}
     320:	02040200 	andeq	r0, r4, #0, 4
     324:	1d052d06 	stcne	13, cr2, [r5, #-24]	; 0xffffffe8
     328:	02040200 	andeq	r0, r4, #0, 4
     32c:	02000106 	andeq	r0, r0, #-2147483647	; 0x80000001
     330:	052e0204 	streq	r0, [lr, #-516]!	; 0xfffffdfc
     334:	0530060d 	ldreq	r0, [r0, #-1549]!	; 0xfffff9f3
     338:	2e010624 	cfmadd32cs	mvax1, mvfx0, mvfx1, mvfx4
     33c:	052e1a05 	streq	r1, [lr, #-2565]!	; 0xfffff5fb
     340:	0d052e11 	stceq	14, cr2, [r5, #-68]	; 0xffffffbc
     344:	01012f06 	tsteq	r1, r6, lsl #30
     348:	82014a66 	andhi	r4, r1, #417792	; 0x66000
     34c:	14050204 	strne	r0, [r5], #-516	; 0xfffffdfc
     350:	05010f03 	streq	r0, [r1, #-3843]	; 0xfffff0fd
     354:	4a011305 	bmi	44f70 <__bss_end__+0x3af40>
     358:	05131366 	ldreq	r1, [r3, #-870]	; 0xfffffc9a
     35c:	05010609 	streq	r0, [r1, #-1545]	; 0xfffff9f7
     360:	09052e07 	stmdbeq	r5, {r0, r1, r2, r9, sl, fp, sp}
     364:	4a014b06 	bmi	52f84 <__bss_end__+0x48f54>
     368:	1405059e 	strne	r0, [r5], #-1438	; 0xfffffa62
     36c:	06090513 			; <UNDEFINED> instruction: 0x06090513
     370:	2e070501 	cfsh32cs	mvfx0, mvfx7, #1
     374:	4b060905 	blmi	182790 <__bss_end__+0x178760>
     378:	01040106 	tsteq	r4, r6, lsl #2
     37c:	03060d05 	movweq	r0, #27909	; 0x6d05
     380:	01130169 	tsteq	r3, r9, ror #2
     384:	05134a4a 	ldreq	r4, [r3, #-2634]	; 0xfffff5b6
     388:	04010614 	streq	r0, [r1], #-1556	; 0xfffff9ec
     38c:	031e0502 	tsteq	lr, #8388608	; 0x800000
     390:	1a054a14 	bne	152be8 <__bss_end__+0x148bb8>
     394:	0609052e 	streq	r0, [r9], -lr, lsr #10
     398:	064a014b 	strbeq	r0, [sl], -fp, asr #2
     39c:	050104ba 	streq	r0, [r1, #-1210]	; 0xfffffb46
     3a0:	016f030c 	cmneq	pc, ip, lsl #6
     3a4:	052f0105 	streq	r0, [pc, #-261]!	; 2a7 <_start-0x7d59>
     3a8:	06f40630 			; <UNDEFINED> instruction: 0x06f40630
     3ac:	06050501 	streq	r0, [r5], -r1, lsl #10
     3b0:	052e064b 	streq	r0, [lr, #-1611]!	; 0xfffff9b5
     3b4:	25052f01 	strcs	r2, [r5, #-3841]	; 0xfffff0ff
     3b8:	2e500306 	cdpcs	3, 5, cr0, cr0, cr6, {0}
     3bc:	05050106 	streq	r0, [r5, #-262]	; 0xfffffefa
     3c0:	0e054b06 	vmlaeq.f64	d4, d5, d6
     3c4:	05050106 	streq	r0, [r5, #-262]	; 0xfffffefa
     3c8:	0e052f06 	cdpeq	15, 0, cr2, cr5, cr6, {0}
     3cc:	05050106 	streq	r0, [r5, #-262]	; 0xfffffefa
     3d0:	16054b06 	strne	r4, [r5], -r6, lsl #22
     3d4:	05050106 	streq	r0, [r5, #-262]	; 0xfffffefa
     3d8:	0e054b06 	vmlaeq.f64	d4, d5, d6
     3dc:	05050106 	streq	r0, [r5, #-262]	; 0xfffffefa
     3e0:	01052f06 	tsteq	r5, r6, lsl #30
     3e4:	20051306 	andcs	r1, r5, r6, lsl #6
     3e8:	01063106 	tsteq	r6, r6, lsl #2
     3ec:	4b060505 	blmi	181808 <__bss_end__+0x1777d8>
     3f0:	01060c05 	tsteq	r6, r5, lsl #24
     3f4:	052e1f05 	streq	r1, [lr, #-3845]!	; 0xfffff0fb
     3f8:	39052e09 	stmdbcc	r5, {r0, r3, r9, sl, fp, sp}
     3fc:	01040200 	mrseq	r0, R12_usr
     400:	0044054a 	subeq	r0, r4, sl, asr #10
     404:	2e010402 	cdpcs	4, 0, cr0, cr1, cr2, {0}
     408:	02003505 	andeq	r3, r0, #20971520	; 0x1400000
     40c:	052e0104 	streq	r0, [lr, #-260]!	; 0xfffffefc
     410:	014c0609 	cmpeq	ip, r9, lsl #12
     414:	014a6601 	cmpeq	sl, r1, lsl #12
     418:	05020482 	streq	r0, [r2, #-1154]	; 0xfffffb7e
     41c:	01280314 			; <UNDEFINED> instruction: 0x01280314
     420:	01130505 	tsteq	r3, r5, lsl #10
     424:	1313664a 	tstne	r3, #77594624	; 0x4a00000
     428:	01060905 	tsteq	r6, r5, lsl #18
     42c:	052e0705 	streq	r0, [lr, #-1797]!	; 0xfffff8fb
     430:	014b0609 	cmpeq	fp, r9, lsl #12
     434:	05059e4a 	streq	r9, [r5, #-3658]	; 0xfffff1b6
     438:	09051314 	stmdbeq	r5, {r2, r4, r8, r9, ip}
     43c:	07050106 	streq	r0, [r5, -r6, lsl #2]
     440:	0609052e 	streq	r0, [r9], -lr, lsr #10
     444:	0501044b 	streq	r0, [r1, #-1099]	; 0xfffffbb5
     448:	51030610 	tstpl	r3, r0, lsl r6
     44c:	05020401 	streq	r0, [r2, #-1025]	; 0xfffffbff
     450:	2e300301 	cdpcs	3, 3, cr0, cr0, cr1, {0}
     454:	052c1e05 	streq	r1, [ip, #-3589]!	; 0xfffff1fb
     458:	09052e1a 	stmdbeq	r5, {r1, r3, r4, r9, sl, fp, sp}
     45c:	4a014b06 	bmi	5307c <__bss_end__+0x4904c>
     460:	0104ba06 	tsteq	r4, r6, lsl #20
     464:	54030c05 	strpl	r0, [r3], #-3077	; 0xfffff3fb
     468:	2f010501 	svccs	0x00010501
     46c:	d8063a05 	stmdale	r6, {r0, r2, r9, fp, ip, sp}
     470:	05050106 	streq	r0, [r5, #-262]	; 0xfffffefa
     474:	05136706 	ldreq	r6, [r3, #-1798]	; 0xfffff8fa
     478:	0501060b 	streq	r0, [r1, #-1547]	; 0xfffff9f5
     47c:	04020010 	streq	r0, [r2], #-16
     480:	052e0601 	streq	r0, [lr, #-1537]!	; 0xfffff9ff
     484:	04020005 	streq	r0, [r2], #-5
     488:	05010601 	streq	r0, [r1, #-1537]	; 0xfffff9ff
     48c:	054b0609 	strbeq	r0, [fp, #-1545]	; 0xfffff9f7
     490:	0501060d 	streq	r0, [r1, #-1549]	; 0xfffff9f3
     494:	1c052e0b 	stcne	14, cr2, [r5], {11}
     498:	02040200 	andeq	r0, r4, #0, 4
     49c:	1d052d06 	stcne	13, cr2, [r5, #-24]	; 0xffffffe8
     4a0:	02040200 	andeq	r0, r4, #0, 4
     4a4:	02000106 	andeq	r0, r0, #-2147483647	; 0x80000001
     4a8:	052e0204 	streq	r0, [lr, #-516]!	; 0xfffffdfc
     4ac:	0530060d 	ldreq	r0, [r0, #-1549]!	; 0xfffff9f3
     4b0:	2e010624 	cfmadd32cs	mvax1, mvfx0, mvfx1, mvfx4
     4b4:	052e1a05 	streq	r1, [lr, #-2565]!	; 0xfffff5fb
     4b8:	0d052e11 	stceq	14, cr2, [r5, #-68]	; 0xffffffbc
     4bc:	01012f06 	tsteq	r1, r6, lsl #30
     4c0:	9e014a66 	vmlsls.f32	s8, s2, s13
     4c4:	14050204 	strne	r0, [r5], #-516	; 0xfffffdfc
     4c8:	05011c03 	streq	r1, [r1, #-3075]	; 0xfffff3fd
     4cc:	4a011305 	bmi	450e8 <__bss_end__+0x3b0b8>
     4d0:	05131366 	ldreq	r1, [r3, #-870]	; 0xfffffc9a
     4d4:	05010609 	streq	r0, [r1, #-1545]	; 0xfffff9f7
     4d8:	09052e07 	stmdbeq	r5, {r0, r1, r2, r9, sl, fp, sp}
     4dc:	4a014b06 	bmi	530fc <__bss_end__+0x490cc>
     4e0:	1405059e 	strne	r0, [r5], #-1438	; 0xfffffa62
     4e4:	06090513 			; <UNDEFINED> instruction: 0x06090513
     4e8:	2e070501 	cfsh32cs	mvfx0, mvfx7, #1
     4ec:	4b060905 	blmi	182908 <__bss_end__+0x1788d8>
     4f0:	14050104 	strne	r0, [r5], #-260	; 0xfffffefc
     4f4:	015d0306 	cmpeq	sp, r6, lsl #6
     4f8:	01050204 	tsteq	r5, r4, lsl #4
     4fc:	052e2403 	streq	r2, [lr, #-1027]!	; 0xfffffbfd
     500:	1a052c1e 	bne	14b580 <__bss_end__+0x141550>
     504:	0609052e 	streq	r0, [r9], -lr, lsr #10
     508:	064a014b 	strbeq	r0, [sl], -fp, asr #2
     50c:	050104ba 	streq	r0, [r1, #-1210]	; 0xfffffb46
     510:	0161030c 	cmneq	r1, ip, lsl #6
     514:	052f0105 	streq	r0, [pc, #-261]!	; 417 <_start-0x7be9>
     518:	1a030622 	bne	c1da8 <__bss_end__+0xb7d78>
     51c:	050106d6 	streq	r0, [r1, #-1750]	; 0xfffff92a
     520:	054c0605 	strbeq	r0, [ip, #-1541]	; 0xfffff9fb
     524:	0501060c 	streq	r0, [r1, #-1548]	; 0xfffff9f4
     528:	16053009 	strne	r3, [r5], -r9
     52c:	4a0c0549 	bmi	301a58 <__bss_end__+0x2f7a28>
     530:	05660905 	strbeq	r0, [r6, #-2309]!	; 0xfffff6fb
     534:	04020016 	streq	r0, [r2], #-22	; 0xffffffea
     538:	0c054b03 			; <UNDEFINED> instruction: 0x0c054b03
     53c:	03040200 	movweq	r0, #16896	; 0x4200
     540:	00090566 	andeq	r0, r9, r6, ror #10
     544:	ba030402 	blt	c1554 <__bss_end__+0xb7524>
     548:	2f01054a 	svccs	0x0001054a
     54c:	03062705 	movweq	r2, #26373	; 0x6705
     550:	062e7fab 	strteq	r7, [lr], -fp, lsr #31
     554:	06050501 	streq	r0, [r5], -r1, lsl #10
     558:	0200012f 	andeq	r0, r0, #-1073741813	; 0xc000000b
     55c:	00ba0204 	adcseq	r0, sl, r4, lsl #4
     560:	01020402 	tsteq	r2, r2, lsl #8
     564:	02040200 	andeq	r0, r4, #0, 4
     568:	04020013 	streq	r0, [r2], #-19	; 0xffffffed
     56c:	004a0602 	subeq	r0, sl, r2, lsl #12
     570:	2e020402 	cdpcs	4, 0, cr0, cr2, cr2, {0}
     574:	02040200 	andeq	r0, r4, #0, 4
     578:	17052f06 	strne	r2, [r5, -r6, lsl #30]
     57c:	02040200 	andeq	r0, r4, #0, 4
     580:	0a050106 	beq	1409a0 <__bss_end__+0x136970>
     584:	02040200 	andeq	r0, r4, #0, 4
     588:	0005054a 	andeq	r0, r5, sl, asr #10
     58c:	06020402 	streq	r0, [r2], -r2, lsl #8
     590:	0015052f 	andseq	r0, r5, pc, lsr #10
     594:	06020402 	streq	r0, [r2], -r2, lsl #8
     598:	000e0501 	andeq	r0, lr, r1, lsl #10
     59c:	2e020402 	cdpcs	4, 0, cr0, cr2, cr2, {0}
     5a0:	02000105 	andeq	r0, r0, #1073741825	; 0x40000001
     5a4:	052f0204 	streq	r0, [pc, #-516]!	; 3a8 <_start-0x7c58>
     5a8:	04020005 	streq	r0, [r2], #-5
     5ac:	002a0601 	eoreq	r0, sl, r1, lsl #12
     5b0:	01010402 	tsteq	r1, r2, lsl #8
     5b4:	01040200 	mrseq	r0, R12_usr
     5b8:	0402002e 	streq	r0, [r2], #-46	; 0xffffffd2
     5bc:	50059e01 	andpl	r9, r5, r1, lsl #28
     5c0:	ba00e703 	blt	3a1d4 <__bss_end__+0x301a4>
     5c4:	05050106 	streq	r0, [r5, #-262]	; 0xfffffefa
     5c8:	10059f06 	andne	r9, r5, r6, lsl #30
     5cc:	05050106 	streq	r0, [r5, #-262]	; 0xfffffefa
     5d0:	00013006 	andeq	r3, r1, r6
     5d4:	9e020402 	cdpls	4, 0, cr0, cr2, cr2, {0}
     5d8:	02040200 	andeq	r0, r4, #0, 4
     5dc:	04020013 	streq	r0, [r2], #-19	; 0xffffffed
     5e0:	02000102 	andeq	r0, r0, #-2147483648	; 0x80000000
     5e4:	2e060204 	cdpcs	2, 0, cr0, cr6, cr4, {0}
     5e8:	02040200 	andeq	r0, r4, #0, 4
     5ec:	02002e06 	andeq	r2, r0, #6, 28	; 0x60
     5f0:	00660204 	rsbeq	r0, r6, r4, lsl #4
     5f4:	13020402 	movwne	r0, #9218	; 0x2402
     5f8:	02000a05 	andeq	r0, r0, #20480	; 0x5000
     5fc:	01060204 	tsteq	r6, r4, lsl #4
     600:	02000805 	andeq	r0, r0, #327680	; 0x50000
     604:	054a0204 	strbeq	r0, [sl, #-516]	; 0xfffffdfc
     608:	054c0605 	strbeq	r0, [ip, #-1541]	; 0xfffff9fb
     60c:	05010611 	streq	r0, [r1, #-1553]	; 0xfffff9ef
     610:	056b0605 	strbeq	r0, [fp, #-1541]!	; 0xfffff9fb
     614:	0501060e 	streq	r0, [r1, #-1550]	; 0xfffff9f2
     618:	834b0605 	movthi	r0, #46597	; 0xb605
     61c:	01061005 	tsteq	r6, r5
     620:	054a0e05 	strbeq	r0, [sl, #-3589]	; 0xfffff1fb
     624:	05052f01 	streq	r2, [r5, #-3841]	; 0xfffff0ff
     628:	01040200 	mrseq	r0, R12_usr
     62c:	2e740306 	cdpcs	3, 7, cr0, cr4, cr6, {0}
     630:	01040200 	mrseq	r0, R12_usr
     634:	0402002e 	streq	r0, [r2], #-46	; 0xffffffd2
     638:	57059e01 	strpl	r9, [r5, -r1, lsl #28]
     63c:	06d60f03 	ldrbeq	r0, [r6], r3, lsl #30
     640:	06050501 	streq	r0, [r5], -r1, lsl #10
     644:	01141367 	tsteq	r4, r7, ror #6
     648:	02002e06 	andeq	r2, r0, #6, 28	; 0x60
     64c:	ba060204 	blt	180e64 <__bss_end__+0x176e34>
     650:	02040200 	andeq	r0, r4, #0, 4
     654:	04020013 	streq	r0, [r2], #-19	; 0xffffffed
     658:	02000102 	andeq	r0, r0, #-2147483648	; 0x80000000
     65c:	2e060204 	cdpcs	2, 0, cr0, cr6, cr4, {0}
     660:	02040200 	andeq	r0, r4, #0, 4
     664:	02002e06 	andeq	r2, r0, #6, 28	; 0x60
     668:	00660204 	rsbeq	r0, r6, r4, lsl #4
     66c:	14020402 	strne	r0, [r2], #-1026	; 0xfffffbfe
     670:	02001405 	andeq	r1, r0, #83886080	; 0x5000000
     674:	01060204 	tsteq	r6, r4, lsl #4
     678:	02000e05 	andeq	r0, r0, #5, 28	; 0x50
     67c:	052e0204 	streq	r0, [lr, #-516]!	; 0xfffffdfc
     680:	04020005 	streq	r0, [r2], #-5
     684:	052f0602 	streq	r0, [pc, #-1538]!	; 8a <_start-0x7f76>
     688:	0402000e 	streq	r0, [r2], #-14
     68c:	05010602 	streq	r0, [r1, #-1538]	; 0xfffff9fe
     690:	04020005 	streq	r0, [r2], #-5
     694:	05310602 	ldreq	r0, [r1, #-1538]!	; 0xfffff9fe
     698:	04020007 	streq	r0, [r2], #-7
     69c:	05010602 	streq	r0, [r1, #-1538]	; 0xfffff9fe
     6a0:	014b0609 	cmpeq	fp, r9, lsl #12
     6a4:	05140505 	ldreq	r0, [r4, #-1285]	; 0xfffffafb
     6a8:	0501060e 	streq	r0, [r1, #-1550]	; 0xfffff9f2
     6ac:	07056613 	smladeq	r5, r3, r6, r6
     6b0:	0609052e 	streq	r0, [r9], -lr, lsr #10
     6b4:	0505014b 	streq	r0, [r5, #-331]	; 0xfffffeb5
     6b8:	15051315 	strne	r1, [r5, #-789]	; 0xfffffceb
     6bc:	05050106 	streq	r0, [r5, #-262]	; 0xfffffefa
     6c0:	19052f06 	stmdbne	r5, {r1, r2, r8, r9, sl, fp, sp}
     6c4:	13050106 	movwne	r0, #20742	; 0x5106
     6c8:	0605052e 	streq	r0, [r5], -lr, lsr #10
     6cc:	060e052f 	streq	r0, [lr], -pc, lsr #10
     6d0:	06050501 	streq	r0, [r5], -r1, lsl #10
     6d4:	0612054b 	ldreq	r0, [r2], -fp, asr #10
     6d8:	06050501 	streq	r0, [r5], -r1, lsl #10
     6dc:	06130567 	ldreq	r0, [r3], -r7, ror #10
     6e0:	06050501 	streq	r0, [r5], -r1, lsl #10
     6e4:	0614054b 	ldreq	r0, [r4], -fp, asr #10
     6e8:	06050501 	streq	r0, [r5], -r1, lsl #10
     6ec:	6606834b 	strvs	r8, [r6], -fp, asr #6
     6f0:	10059f06 	andne	r9, r5, r6, lsl #30
     6f4:	0e050106 	adfeqs	f0, f5, f6
     6f8:	0605054a 	streq	r0, [r5], -sl, asr #10
     6fc:	060a0530 			; <UNDEFINED> instruction: 0x060a0530
     700:	06050501 	streq	r0, [r5], -r1, lsl #10
     704:	02000183 	andeq	r0, r0, #-1073741792	; 0xc0000020
     708:	00820204 	addeq	r0, r2, r4, lsl #4
     70c:	01020402 	tsteq	r2, r2, lsl #8
     710:	02040200 	andeq	r0, r4, #0, 4
     714:	000b0513 	andeq	r0, fp, r3, lsl r5
     718:	06020402 	streq	r0, [r2], -r2, lsl #8
     71c:	00050501 	andeq	r0, r5, r1, lsl #10
     720:	06020402 	streq	r0, [r2], -r2, lsl #8
     724:	04020067 	streq	r0, [r2], #-103	; 0xffffff99
     728:	02000102 	andeq	r0, r0, #-2147483648	; 0x80000000
     72c:	2e060204 	cdpcs	2, 0, cr0, cr6, cr4, {0}
     730:	02040200 	andeq	r0, r4, #0, 4
     734:	02002e06 	andeq	r2, r0, #6, 28	; 0x60
     738:	009e0204 	addseq	r0, lr, r4, lsl #4
     73c:	13020402 	movwne	r0, #9218	; 0x2402
     740:	02000105 	andeq	r0, r0, #1073741825	; 0x40000001
     744:	13060204 	movwne	r0, #25092	; 0x6204
     748:	02000505 	andeq	r0, r0, #20971520	; 0x1400000
     74c:	03060104 	movweq	r0, #24836	; 0x6104
     750:	02006662 	andeq	r6, r0, #102760448	; 0x6200000
     754:	002e0104 	eoreq	r0, lr, r4, lsl #2
     758:	9e010402 	cdpls	4, 0, cr0, cr1, cr2, {0}
     75c:	01360905 	teqeq	r6, r5, lsl #18
     760:	2e062e06 	cdpcs	14, 0, cr2, cr6, cr6, {0}
     764:	ba2e0166 	blt	b80d04 <__bss_end__+0xb76cd4>
     768:	2e060131 	mcrcs	1, 0, r0, cr6, cr1, {1}
     76c:	01d62e06 	bicseq	r2, r6, r6, lsl #28
     770:	053c082e 	ldreq	r0, [ip, #-2094]!	; 0xfffff7d2
     774:	04020005 	streq	r0, [r2], #-5
     778:	2e0f0301 	cdpcs	3, 0, cr0, cr15, cr1, {0}
     77c:	01040200 	mrseq	r0, R12_usr
     780:	04020001 	streq	r0, [r2], #-1
     784:	02002e01 	andeq	r2, r0, #1, 28
     788:	059e0104 	ldreq	r0, [lr, #260]	; 0x104
     78c:	0809031a 	stmdaeq	r9, {r1, r3, r4, r8, r9}
     790:	2f0505ac 	svccs	0x000505ac
     794:	01061d05 	tsteq	r6, r5, lsl #26
     798:	83060505 	movwhi	r0, #25861	; 0x6505
     79c:	01061e05 	tsteq	r6, r5, lsl #28
     7a0:	4c060505 	cfstr32mi	mvfx0, [r6], {5}
     7a4:	14824a01 	strne	r4, [r2], #2561	; 0xa01
     7a8:	0a051513 	beq	145bfc <__bss_end__+0x13bbcc>
     7ac:	06110501 	ldreq	r0, [r1], -r1, lsl #10
     7b0:	0e052e01 	cdpeq	14, 0, cr2, cr5, cr1, {0}
     7b4:	05052d0f 	streq	r2, [r5, #-3343]	; 0xfffff2f1
     7b8:	060d0532 			; <UNDEFINED> instruction: 0x060d0532
     7bc:	06140533 			; <UNDEFINED> instruction: 0x06140533
     7c0:	060d0501 	streq	r0, [sp], -r1, lsl #10
     7c4:	0612052f 	ldreq	r0, [r2], -pc, lsr #10
     7c8:	060d0501 	streq	r0, [sp], -r1, lsl #10
     7cc:	0501062f 	streq	r0, [r1, #-1583]	; 0xfffff9d1
     7d0:	0f030605 	svceq	0x00030605
     7d4:	06070501 	streq	r0, [r7], -r1, lsl #10
     7d8:	06090501 	streq	r0, [r9], -r1, lsl #10
     7dc:	824a014b 	subhi	r0, sl, #-1073741806	; 0xc0000012
     7e0:	01040200 	mrseq	r0, R12_usr
     7e4:	00050514 	andeq	r0, r5, r4, lsl r5
     7e8:	13010402 	movwne	r0, #5122	; 0x1402
     7ec:	02000105 	andeq	r0, r0, #1073741825	; 0x40000001
     7f0:	13060104 	movwne	r0, #24836	; 0x6104
     7f4:	03060d05 	movweq	r0, #27909	; 0x6d05
     7f8:	14054a70 	strne	r4, [r5], #-2672	; 0xfffff590
     7fc:	09050106 	stmdbeq	r5, {r1, r2, r8}
     800:	0e053506 	cfsh32eq	mvfx3, mvfx5, #6
     804:	0a050106 	beq	140c24 <__bss_end__+0x136bf4>
     808:	2e6f0306 	cdpcs	3, 6, cr0, cr15, cr6, {0}
     80c:	01063305 	tsteq	r6, r5, lsl #6
     810:	052e4905 	streq	r4, [lr, #-2309]!	; 0xfffff6fb
     814:	56052e42 	strpl	r2, [r5], -r2, asr #28
     818:	2e10052e 	cfmul64cs	mvdx0, mvdx0, mvdx14
     81c:	02002f05 	andeq	r2, r0, #5, 30
     820:	2d060104 	stfcss	f0, [r6, #-16]
     824:	02003705 	andeq	r3, r0, #1310720	; 0x140000
     828:	01060104 	tsteq	r6, r4, lsl #2
     82c:	02000505 	andeq	r0, r0, #20971520	; 0x1400000
     830:	054a0104 	strbeq	r0, [sl, #-260]	; 0xfffffefc
     834:	054d0609 	strbeq	r0, [sp, #-1545]	; 0xfffff9f7
     838:	0501060e 	streq	r0, [r1, #-1550]	; 0xfffff9f2
     83c:	09054a0c 	stmdbeq	r5, {r2, r3, r9, fp, lr}
     840:	18055106 	stmdane	r5, {r1, r2, r8, ip, lr}
     844:	0e050106 	adfeqs	f0, f5, f6
     848:	660c054a 	strvs	r0, [ip], -sl, asr #10
     84c:	02004805 	andeq	r4, r0, #327680	; 0x50000
     850:	054a0104 	strbeq	r0, [sl, #-260]	; 0xfffffefc
     854:	0402003e 	streq	r0, [r2], #-62	; 0xffffffc2
     858:	3a056601 	bcc	15a064 <__bss_end__+0x150034>
     85c:	01040200 	mrseq	r0, R12_usr
     860:	060e05ba 			; <UNDEFINED> instruction: 0x060e05ba
     864:	0617054c 	ldreq	r0, [r7], -ip, asr #10
     868:	2e110501 	cfmul32cs	mvfx0, mvfx1, mvfx1
     86c:	4c060d05 	stcmi	13, cr0, [r6], {5}
     870:	01062405 	tsteq	r6, r5, lsl #8
     874:	054a1205 	strbeq	r1, [sl, #-517]	; 0xfffffdfb
     878:	11056610 	tstne	r5, r0, lsl r6
     87c:	18052f06 	stmdane	r5, {r1, r2, r8, r9, sl, fp, sp}
     880:	2e2e0106 	sufcse	f0, f6, f6
     884:	03060905 	movweq	r0, #26885	; 0x6905
     888:	4a01010a 	bmi	40cb8 <__bss_end__+0x36c88>
     88c:	01001202 	tsteq	r0, r2, lsl #4
     890:	00023c01 	andeq	r3, r2, r1, lsl #24
     894:	d4000300 	strle	r0, [r0], #-768	; 0xfffffd00
     898:	02000000 	andeq	r0, r0, #0
     89c:	0d0efb01 	vstreq	d15, [lr, #-4]
     8a0:	01010100 	mrseq	r0, (UNDEF: 17)
     8a4:	00000001 	andeq	r0, r0, r1
     8a8:	01000001 	tsteq	r0, r1
     8ac:	6362696c 	cmnvs	r2, #108, 18	; 0x1b0000
     8b0:	73752f00 	cmnvc	r5, #0, 30
     8b4:	696c2f72 	stmdbvs	ip!, {r1, r4, r5, r6, r8, r9, sl, fp, sp}^
     8b8:	63672f62 	cmnvs	r7, #392	; 0x188
     8bc:	72612f63 	rsbvc	r2, r1, #396	; 0x18c
     8c0:	6f6e2d6d 	svcvs	0x006e2d6d
     8c4:	652d656e 	strvs	r6, [sp, #-1390]!	; 0xfffffa92
     8c8:	2f696261 	svccs	0x00696261
     8cc:	2e322e39 	mrccs	14, 1, r2, cr2, cr9, {1}
     8d0:	6e692f30 	mcrvs	15, 3, r2, cr9, cr0, {1}
     8d4:	64756c63 	ldrbtvs	r6, [r5], #-3171	; 0xfffff39d
     8d8:	752f0065 	strvc	r0, [pc, #-101]!	; 87b <_start-0x7785>
     8dc:	612f7273 			; <UNDEFINED> instruction: 0x612f7273
     8e0:	6e2d6d72 	mcrvs	13, 1, r6, cr13, cr2, {3}
     8e4:	2d656e6f 	stclcs	14, cr6, [r5, #-444]!	; 0xfffffe44
     8e8:	69626165 	stmdbvs	r2!, {r0, r2, r5, r6, r8, sp, lr}^
     8ec:	636e692f 	cmnvs	lr, #770048	; 0xbc000
     8f0:	6564756c 	strbvs	r7, [r4, #-1388]!	; 0xfffffa94
     8f4:	7379732f 	cmnvc	r9, #-1140850688	; 0xbc000000
     8f8:	6f682f00 	svcvs	0x00682f00
     8fc:	752f656d 	strvc	r6, [pc, #-1389]!	; 397 <_start-0x7c69>
     900:	2f726573 	svccs	0x00726573
     904:	2f766544 	svccs	0x00766544
     908:	34325343 	ldrtcc	r5, [r2], #-835	; 0xfffffcbd
     90c:	6c2f5830 	stcvs	8, cr5, [pc], #-192	; 854 <_start-0x77ac>
     910:	69706269 	ldmdbvs	r0!, {r0, r3, r5, r6, r9, sp, lr}^
     914:	636e692f 	cmnvs	lr, #770048	; 0xbc000
     918:	6564756c 	strbvs	r7, [r4, #-1388]!	; 0xfffffa94
     91c:	61680000 	cmnvs	r8, r0
     920:	632e6873 			; <UNDEFINED> instruction: 0x632e6873
     924:	00000100 	andeq	r0, r0, r0, lsl #2
     928:	69647473 	stmdbvs	r4!, {r0, r1, r4, r5, r6, sl, ip, sp, lr}^
     92c:	672d746e 	strvs	r7, [sp, -lr, ror #8]!
     930:	682e6363 	stmdavs	lr!, {r0, r1, r5, r6, r8, r9, sp, lr}
     934:	00000200 	andeq	r0, r0, r0, lsl #4
     938:	6b636f6c 	blvs	18dc6f0 <__bss_end__+0x18d26c0>
     93c:	0300682e 	movweq	r6, #2094	; 0x82e
     940:	745f0000 	ldrbvc	r0, [pc], #-0	; 948 <_start-0x76b8>
     944:	73657079 	cmnvc	r5, #121	; 0x79
     948:	0300682e 	movweq	r6, #2094	; 0x82e
     94c:	74730000 	ldrbtvc	r0, [r3], #-0
     950:	66656464 	strbtvs	r6, [r5], -r4, ror #8
     954:	0200682e 	andeq	r6, r0, #3014656	; 0x2e0000
     958:	65720000 	ldrbvs	r0, [r2, #-0]!
     95c:	2e746e65 	cdpcs	14, 7, cr6, cr4, cr5, {3}
     960:	00030068 	andeq	r0, r3, r8, rrx
     964:	69707200 	ldmdbvs	r0!, {r9, ip, sp, lr}^
     968:	0400682e 	streq	r6, [r0], #-2094	; 0xfffff7d2
     96c:	05000000 	streq	r0, [r0, #-0]
     970:	02050031 	andeq	r0, r5, #49	; 0x31
     974:	00008974 	andeq	r8, r0, r4, ror r9
     978:	05010e03 	streq	r0, [r1, #-3587]	; 0xfffff1fd
     97c:	01051305 	tsteq	r5, r5, lsl #6
     980:	05051313 	streq	r1, [r5, #-787]	; 0xfffffced
     984:	06080514 			; <UNDEFINED> instruction: 0x06080514
     988:	61310501 	teqvs	r1, r1, lsl #10
     98c:	6d060505 	cfstr32vs	mvfx0, [r6, #-20]	; 0xffffffec
     990:	01060905 	tsteq	r6, r5, lsl #18
     994:	2f060505 	svccs	0x00060505
     998:	01060905 	tsteq	r6, r5, lsl #18
     99c:	31060505 	tstcc	r6, r5, lsl #10
     9a0:	02000b05 	andeq	r0, r0, #5120	; 0x1400
     9a4:	05010104 	streq	r0, [r1, #-260]	; 0xfffffefc
     9a8:	04020005 	streq	r0, [r2], #-5
     9ac:	05010601 	streq	r0, [r1, #-1537]	; 0xfffff9ff
     9b0:	04020009 	streq	r0, [r2], #-9
     9b4:	054b0602 	strbeq	r0, [fp, #-1538]	; 0xfffff9fe
     9b8:	04020012 	streq	r0, [r2], #-18	; 0xffffffee
     9bc:	05010602 	streq	r0, [r1, #-1538]	; 0xfffff9fe
     9c0:	0402000f 	streq	r0, [r2], #-15
     9c4:	09056602 	stmdbeq	r5, {r1, r9, sl, sp, lr}
     9c8:	02040200 	andeq	r0, r4, #0, 4
     9cc:	13052f06 	movwne	r2, #24326	; 0x5f06
     9d0:	02040200 	andeq	r0, r4, #0, 4
     9d4:	10050106 	andne	r0, r5, r6, lsl #2
     9d8:	02040200 	andeq	r0, r4, #0, 4
     9dc:	00090566 	andeq	r0, r9, r6, ror #10
     9e0:	06020402 	streq	r0, [r2], -r2, lsl #8
     9e4:	0010052f 	andseq	r0, r0, pc, lsr #10
     9e8:	06020402 	streq	r0, [r2], -r2, lsl #8
     9ec:	00090501 	andeq	r0, r9, r1, lsl #10
     9f0:	06020402 	streq	r0, [r2], -r2, lsl #8
     9f4:	000f052f 	andeq	r0, pc, pc, lsr #10
     9f8:	06020402 	streq	r0, [r2], -r2, lsl #8
     9fc:	00090501 	andeq	r0, r9, r1, lsl #10
     a00:	06020402 	streq	r0, [r2], -r2, lsl #8
     a04:	000f052f 	andeq	r0, pc, pc, lsr #10
     a08:	06020402 	streq	r0, [r2], -r2, lsl #8
     a0c:	00140501 	andseq	r0, r4, r1, lsl #10
     a10:	06020402 	streq	r0, [r2], -r2, lsl #8
     a14:	00170529 	andseq	r0, r7, r9, lsr #10
     a18:	06020402 	streq	r0, [r2], -r2, lsl #8
     a1c:	04020001 	streq	r0, [r2], #-1
     a20:	05052e02 	streq	r2, [r5, #-3586]	; 0xfffff1fe
     a24:	2e090306 	cdpcs	3, 0, cr0, cr9, cr6, {0}
     a28:	05ba1003 	ldreq	r1, [sl, #3]!
     a2c:	0501060a 	streq	r0, [r1, #-1546]	; 0xfffff9f6
     a30:	052f0605 	streq	r0, [pc, #-1541]!	; 433 <_start-0x7bcd>
     a34:	0501060a 	streq	r0, [r1, #-1546]	; 0xfffff9f6
     a38:	052f0605 	streq	r0, [pc, #-1541]!	; 43b <_start-0x7bc5>
     a3c:	0501060a 	streq	r0, [r1, #-1546]	; 0xfffff9f6
     a40:	052f0605 	streq	r0, [pc, #-1541]!	; 443 <_start-0x7bbd>
     a44:	0501060a 	streq	r0, [r1, #-1546]	; 0xfffff9f6
     a48:	052f0605 	streq	r0, [pc, #-1541]!	; 44b <_start-0x7bb5>
     a4c:	0501060a 	streq	r0, [r1, #-1546]	; 0xfffff9f6
     a50:	052f0605 	streq	r0, [pc, #-1541]!	; 453 <_start-0x7bad>
     a54:	0501060a 	streq	r0, [r1, #-1546]	; 0xfffff9f6
     a58:	05300605 	ldreq	r0, [r0, #-1541]!	; 0xfffff9fb
     a5c:	05130601 	ldreq	r0, [r3, #-1537]	; 0xfffff9ff
     a60:	69030611 	stmdbvs	r3, {r0, r4, r9, sl}
     a64:	0619052e 	ldreq	r0, [r9], -lr, lsr #10
     a68:	16052e01 	strne	r2, [r5], -r1, lsl #28
     a6c:	0611054a 	ldreq	r0, [r1], -sl, asr #10
     a70:	0616052f 	ldreq	r0, [r6], -pc, lsr #10
     a74:	06110501 	ldreq	r0, [r1], -r1, lsl #10
     a78:	061a052f 	ldreq	r0, [sl], -pc, lsr #10
     a7c:	2e160501 	cfmul32cs	mvfx0, mvfx6, mvfx1
     a80:	2f061105 	svccs	0x00061105
     a84:	01061605 	tsteq	r6, r5, lsl #12
     a88:	2f061105 	svccs	0x00061105
     a8c:	0619052f 	ldreq	r0, [r9], -pc, lsr #10
     a90:	16052e01 	strne	r2, [r5], -r1, lsl #28
     a94:	0611054a 	ldreq	r0, [r1], -sl, asr #10
     a98:	0616052f 	ldreq	r0, [r6], -pc, lsr #10
     a9c:	06110501 	ldreq	r0, [r1], -r1, lsl #10
     aa0:	0616052f 	ldreq	r0, [r6], -pc, lsr #10
     aa4:	06110501 	ldreq	r0, [r1], -r1, lsl #10
     aa8:	19052f2f 	stmdbne	r5, {r0, r1, r2, r3, r5, r8, r9, sl, fp, sp}
     aac:	16050106 	strne	r0, [r5], -r6, lsl #2
     ab0:	0611052e 	ldreq	r0, [r1], -lr, lsr #10
     ab4:	0616052f 	ldreq	r0, [r6], -pc, lsr #10
     ab8:	06110501 	ldreq	r0, [r1], -r1, lsl #10
     abc:	0616052f 	ldreq	r0, [r6], -pc, lsr #10
     ac0:	2a052e01 	bcs	14c2cc <__bss_end__+0x14229c>
     ac4:	052e6503 	streq	r6, [lr, #-1283]!	; 0xfffffafd
     ac8:	2e270301 	cdpcs	3, 2, cr0, cr7, cr1, {0}
     acc:	01000202 	tsteq	r0, r2, lsl #4
     ad0:	0000f001 	andeq	pc, r0, r1
     ad4:	c0000300 	andgt	r0, r0, r0, lsl #6
     ad8:	02000000 	andeq	r0, r0, #0
     adc:	0d0efb01 	vstreq	d15, [lr, #-4]
     ae0:	01010100 	mrseq	r0, (UNDEF: 17)
     ae4:	00000001 	andeq	r0, r0, r1
     ae8:	01000001 	tsteq	r0, r1
     aec:	6362696c 	cmnvs	r2, #108, 18	; 0x1b0000
     af0:	73752f00 	cmnvc	r5, #0, 30
     af4:	696c2f72 	stmdbvs	ip!, {r1, r4, r5, r6, r8, r9, sl, fp, sp}^
     af8:	63672f62 	cmnvs	r7, #392	; 0x188
     afc:	72612f63 	rsbvc	r2, r1, #396	; 0x18c
     b00:	6f6e2d6d 	svcvs	0x006e2d6d
     b04:	652d656e 	strvs	r6, [sp, #-1390]!	; 0xfffffa92
     b08:	2f696261 	svccs	0x00696261
     b0c:	2e322e39 	mrccs	14, 1, r2, cr2, cr9, {1}
     b10:	6e692f30 	mcrvs	15, 3, r2, cr9, cr0, {1}
     b14:	64756c63 	ldrbtvs	r6, [r5], #-3171	; 0xfffff39d
     b18:	752f0065 	strvc	r0, [pc, #-101]!	; abb <_start-0x7545>
     b1c:	612f7273 			; <UNDEFINED> instruction: 0x612f7273
     b20:	6e2d6d72 	mcrvs	13, 1, r6, cr13, cr2, {3}
     b24:	2d656e6f 	stclcs	14, cr6, [r5, #-444]!	; 0xfffffe44
     b28:	69626165 	stmdbvs	r2!, {r0, r2, r5, r6, r8, sp, lr}^
     b2c:	636e692f 	cmnvs	lr, #770048	; 0xbc000
     b30:	6564756c 	strbvs	r7, [r4, #-1388]!	; 0xfffffa94
     b34:	7379732f 	cmnvc	r9, #-1140850688	; 0xbc000000
     b38:	73752f00 	cmnvc	r5, #0, 30
     b3c:	72612f72 	rsbvc	r2, r1, #456	; 0x1c8
     b40:	6f6e2d6d 	svcvs	0x006e2d6d
     b44:	652d656e 	strvs	r6, [sp, #-1390]!	; 0xfffffa92
     b48:	2f696261 	svccs	0x00696261
     b4c:	6c636e69 	stclvs	14, cr6, [r3], #-420	; 0xfffffe5c
     b50:	00656475 	rsbeq	r6, r5, r5, ror r4
     b54:	6d656d00 	stclvs	13, cr6, [r5, #-0]
     b58:	2e746573 	mrccs	5, 3, r6, cr4, cr3, {3}
     b5c:	00010063 	andeq	r0, r1, r3, rrx
     b60:	64747300 	ldrbtvs	r7, [r4], #-768	; 0xfffffd00
     b64:	2e666564 	cdpcs	5, 6, cr6, cr6, cr4, {3}
     b68:	00020068 	andeq	r0, r2, r8, rrx
     b6c:	636f6c00 	cmnvs	pc, #0, 24
     b70:	00682e6b 	rsbeq	r2, r8, fp, ror #28
     b74:	5f000003 	svcpl	0x00000003
     b78:	65707974 	ldrbvs	r7, [r0, #-2420]!	; 0xfffff68c
     b7c:	00682e73 	rsbeq	r2, r8, r3, ror lr
     b80:	72000003 	andvc	r0, r0, #3
     b84:	746e6565 	strbtvc	r6, [lr], #-1381	; 0xfffffa9b
     b88:	0300682e 	movweq	r6, #2094	; 0x82e
     b8c:	74730000 	ldrbtvc	r0, [r3], #-0
     b90:	676e6972 			; <UNDEFINED> instruction: 0x676e6972
     b94:	0400682e 	streq	r6, [r0], #-2094	; 0xfffff7d2
     b98:	05000000 	streq	r0, [r0, #-0]
     b9c:	02050029 	andeq	r0, r5, #41	; 0x29
     ba0:	00008a60 	andeq	r8, r0, r0, ror #20
     ba4:	13050514 	movwne	r0, #21780	; 0x5514
     ba8:	01061405 	tsteq	r6, r5, lsl #8
     bac:	30060505 	andcc	r0, r6, r5, lsl #10
     bb0:	10060b05 	andne	r0, r6, r5, lsl #22
     bb4:	30060a05 	andcc	r0, r6, r5, lsl #20
     bb8:	054b0905 	strbeq	r0, [fp, #-2309]	; 0xfffff6fb
     bbc:	2e01060e 	cfmadd32cs	mvax0, mvfx0, mvfx1, mvfx14
     bc0:	01000202 	tsteq	r0, r2, lsl #4
     bc4:	00012101 	andeq	r2, r1, r1, lsl #2
     bc8:	ef000300 	svc	0x00000300
     bcc:	02000000 	andeq	r0, r0, #0
     bd0:	0d0efb01 	vstreq	d15, [lr, #-4]
     bd4:	01010100 	mrseq	r0, (UNDEF: 17)
     bd8:	00000001 	andeq	r0, r0, r1
     bdc:	01000001 	tsteq	r0, r1
     be0:	6362696c 	cmnvs	r2, #108, 18	; 0x1b0000
     be4:	73752f00 	cmnvc	r5, #0, 30
     be8:	696c2f72 	stmdbvs	ip!, {r1, r4, r5, r6, r8, r9, sl, fp, sp}^
     bec:	63672f62 	cmnvs	r7, #392	; 0x188
     bf0:	72612f63 	rsbvc	r2, r1, #396	; 0x18c
     bf4:	6f6e2d6d 	svcvs	0x006e2d6d
     bf8:	652d656e 	strvs	r6, [sp, #-1390]!	; 0xfffffa92
     bfc:	2f696261 	svccs	0x00696261
     c00:	2e322e39 	mrccs	14, 1, r2, cr2, cr9, {1}
     c04:	6e692f30 	mcrvs	15, 3, r2, cr9, cr0, {1}
     c08:	64756c63 	ldrbtvs	r6, [r5], #-3171	; 0xfffff39d
     c0c:	752f0065 	strvc	r0, [pc, #-101]!	; baf <_start-0x7451>
     c10:	612f7273 			; <UNDEFINED> instruction: 0x612f7273
     c14:	6e2d6d72 	mcrvs	13, 1, r6, cr13, cr2, {3}
     c18:	2d656e6f 	stclcs	14, cr6, [r5, #-444]!	; 0xfffffe44
     c1c:	69626165 	stmdbvs	r2!, {r0, r2, r5, r6, r8, sp, lr}^
     c20:	636e692f 	cmnvs	lr, #770048	; 0xbc000
     c24:	6564756c 	strbvs	r7, [r4, #-1388]!	; 0xfffffa94
     c28:	7379732f 	cmnvc	r9, #-1140850688	; 0xbc000000
     c2c:	6f682f00 	svcvs	0x00682f00
     c30:	752f656d 	strvc	r6, [pc, #-1389]!	; 6cb <_start-0x7935>
     c34:	2f726573 	svccs	0x00726573
     c38:	2f766544 	svccs	0x00766544
     c3c:	34325343 	ldrtcc	r5, [r2], #-835	; 0xfffffcbd
     c40:	6c2f5830 	stcvs	8, cr5, [pc], #-192	; b88 <_start-0x7478>
     c44:	69706269 	ldmdbvs	r0!, {r0, r3, r5, r6, r9, sp, lr}^
     c48:	636e692f 	cmnvs	lr, #770048	; 0xbc000
     c4c:	6564756c 	strbvs	r7, [r4, #-1388]!	; 0xfffffa94
     c50:	72700000 	rsbsvc	r0, r0, #0
     c54:	6b746e69 	blvs	1d1c600 <__bss_end__+0x1d125d0>
     c58:	0100632e 	tsteq	r0, lr, lsr #6
     c5c:	74730000 	ldrbtvc	r0, [r3], #-0
     c60:	67726164 	ldrbvs	r6, [r2, -r4, ror #2]!
     c64:	0200682e 	andeq	r6, r0, #3014656	; 0x2e0000
     c68:	6f6c0000 	svcvs	0x006c0000
     c6c:	682e6b63 	stmdavs	lr!, {r0, r1, r5, r6, r8, r9, fp, sp, lr}
     c70:	00000300 	andeq	r0, r0, r0, lsl #6
     c74:	7079745f 	rsbsvc	r7, r9, pc, asr r4
     c78:	682e7365 	stmdavs	lr!, {r0, r2, r5, r6, r8, r9, ip, sp, lr}
     c7c:	00000300 	andeq	r0, r0, r0, lsl #6
     c80:	64647473 	strbtvs	r7, [r4], #-1139	; 0xfffffb8d
     c84:	682e6665 	stmdavs	lr!, {r0, r2, r5, r6, r9, sl, sp, lr}
     c88:	00000200 	andeq	r0, r0, r0, lsl #4
     c8c:	6e656572 	mcrvs	5, 3, r6, cr5, cr2, {3}
     c90:	00682e74 	rsbeq	r2, r8, r4, ror lr
     c94:	72000003 	andvc	r0, r0, #3
     c98:	682e6970 	stmdavs	lr!, {r4, r5, r6, r8, fp, sp, lr}
     c9c:	00000400 	andeq	r0, r0, r0, lsl #8
     ca0:	6975623c 	ldmdbvs	r5!, {r2, r3, r4, r5, r9, sp, lr}^
     ca4:	692d746c 	pushvs	{r2, r3, r5, r6, sl, ip, sp, lr}
     ca8:	00003e6e 	andeq	r3, r0, lr, ror #28
     cac:	61760000 	cmnvs	r6, r0
     cb0:	6972702d 	ldmdbvs	r2!, {r0, r2, r3, r5, ip, sp, lr}^
     cb4:	2e6b746e 	cdpcs	4, 6, cr7, cr11, cr14, {3}
     cb8:	00010068 	andeq	r0, r1, r8, rrx
     cbc:	22050000 	andcs	r0, r5, #0
     cc0:	78020500 	stmdavc	r2, {r8, sl}
     cc4:	1700008a 	strne	r0, [r0, -sl, lsl #1]
     cc8:	05050106 	streq	r0, [r5, #-262]	; 0xfffffefa
     ccc:	14136806 	ldrne	r6, [r3], #-2054	; 0xfffff7fa
     cd0:	054b0905 	strbeq	r0, [fp, #-2309]	; 0xfffff6fb
     cd4:	05010612 	streq	r0, [r1, #-1554]	; 0xfffff9ee
     cd8:	16bb0605 	ldrtne	r0, [fp], r5, lsl #12
     cdc:	34066606 	strcc	r6, [r6], #-1542	; 0xfffff9fa
     ce0:	13060105 	movwne	r0, #24837	; 0x6105
     ce4:	00080266 	andeq	r0, r8, r6, ror #4
     ce8:	01050101 	tsteq	r5, r1, lsl #2
     cec:	00030000 	andeq	r0, r3, r0
     cf0:	000000c7 	andeq	r0, r0, r7, asr #1
     cf4:	0efb0102 	cdpeq	1, 15, cr0, cr11, cr2, {0}
     cf8:	0101000d 	tsteq	r1, sp
     cfc:	00000101 	andeq	r0, r0, r1, lsl #2
     d00:	00000100 	andeq	r0, r0, r0, lsl #2
     d04:	62696c01 	rsbvs	r6, r9, #256	; 0x100
     d08:	752f0063 	strvc	r0, [pc, #-99]!	; cad <_start-0x7353>
     d0c:	612f7273 			; <UNDEFINED> instruction: 0x612f7273
     d10:	6e2d6d72 	mcrvs	13, 1, r6, cr13, cr2, {3}
     d14:	2d656e6f 	stclcs	14, cr6, [r5, #-444]!	; 0xfffffe44
     d18:	69626165 	stmdbvs	r2!, {r0, r2, r5, r6, r8, sp, lr}^
     d1c:	636e692f 	cmnvs	lr, #770048	; 0xbc000
     d20:	6564756c 	strbvs	r7, [r4, #-1388]!	; 0xfffffa94
     d24:	7379732f 	cmnvc	r9, #-1140850688	; 0xbc000000
     d28:	73752f00 	cmnvc	r5, #0, 30
     d2c:	696c2f72 	stmdbvs	ip!, {r1, r4, r5, r6, r8, r9, sl, fp, sp}^
     d30:	63672f62 	cmnvs	r7, #392	; 0x188
     d34:	72612f63 	rsbvc	r2, r1, #396	; 0x18c
     d38:	6f6e2d6d 	svcvs	0x006e2d6d
     d3c:	652d656e 	strvs	r6, [sp, #-1390]!	; 0xfffffa92
     d40:	2f696261 	svccs	0x00696261
     d44:	2e322e39 	mrccs	14, 1, r2, cr2, cr9, {1}
     d48:	6e692f30 	mcrvs	15, 3, r2, cr9, cr0, {1}
     d4c:	64756c63 	ldrbtvs	r6, [r5], #-3171	; 0xfffff39d
     d50:	682f0065 	stmdavs	pc!, {r0, r2, r5, r6}	; <UNPREDICTABLE>
     d54:	2f656d6f 	svccs	0x00656d6f
     d58:	72657375 	rsbvc	r7, r5, #-738197503	; 0xd4000001
     d5c:	7665442f 	strbtvc	r4, [r5], -pc, lsr #8
     d60:	3253432f 	subscc	r4, r3, #-1140850688	; 0xbc000000
     d64:	2f583034 	svccs	0x00583034
     d68:	7062696c 	rsbvc	r6, r2, ip, ror #18
     d6c:	6e692f69 	cdpvs	15, 6, cr2, cr9, cr9, {3}
     d70:	64756c63 	ldrbtvs	r6, [r5], #-3171	; 0xfffff39d
     d74:	70000065 	andvc	r0, r0, r5, rrx
     d78:	68637475 	stmdavs	r3!, {r0, r2, r4, r5, r6, sl, ip, sp, lr}^
     d7c:	632e7261 			; <UNDEFINED> instruction: 0x632e7261
     d80:	00000100 	andeq	r0, r0, r0, lsl #2
     d84:	6b636f6c 	blvs	18dcb3c <__bss_end__+0x18d2b0c>
     d88:	0200682e 	andeq	r6, r0, #3014656	; 0x2e0000
     d8c:	745f0000 	ldrbvc	r0, [pc], #-0	; d94 <_start-0x726c>
     d90:	73657079 	cmnvc	r5, #121	; 0x79
     d94:	0200682e 	andeq	r6, r0, #3014656	; 0x2e0000
     d98:	74730000 	ldrbtvc	r0, [r3], #-0
     d9c:	66656464 	strbtvs	r6, [r5], -r4, ror #8
     da0:	0300682e 	movweq	r6, #2094	; 0x82e
     da4:	65720000 	ldrbvs	r0, [r2, #-0]!
     da8:	2e746e65 	cdpcs	14, 7, cr6, cr4, cr5, {3}
     dac:	00020068 	andeq	r0, r2, r8, rrx
     db0:	69707200 	ldmdbvs	r0!, {r9, ip, sp, lr}^
     db4:	0400682e 	streq	r6, [r0], #-2094	; 0xfffff7d2
     db8:	05000000 	streq	r0, [r0, #-0]
     dbc:	02050024 	andeq	r0, r5, #36	; 0x24
     dc0:	00008ad0 	ldrdeq	r8, [r0], -r0
     dc4:	05010614 	streq	r0, [r1, #-1556]	; 0xfffff9ec
     dc8:	054a0626 	strbeq	r0, [sl, #-1574]	; 0xfffff9da
     dcc:	01052e34 	tsteq	r5, r4, lsr lr
     dd0:	1b050106 	blne	1411f0 <__bss_end__+0x1371c0>
     dd4:	05054f06 	streq	r4, [r5, #-3846]	; 0xfffff0fa
     dd8:	06110513 			; <UNDEFINED> instruction: 0x06110513
     ddc:	67010501 	strvs	r0, [r1, -r1, lsl #10]
     de0:	67062305 	strvs	r2, [r6, -r5, lsl #6]
     de4:	05130505 	ldreq	r0, [r3, #-1285]	; 0xfffffafb
     de8:	05010611 	streq	r0, [r1, #-1553]	; 0xfffff9ef
     dec:	04024b01 	streq	r4, [r2], #-2817	; 0xfffff4ff
     df0:	12010100 	andne	r0, r1, #0, 2
     df4:	03000001 	movweq	r0, #1
     df8:	0000c400 	andeq	ip, r0, r0, lsl #8
     dfc:	fb010200 	blx	41606 <__bss_end__+0x375d6>
     e00:	01000d0e 	tsteq	r0, lr, lsl #26
     e04:	00010101 	andeq	r0, r1, r1, lsl #2
     e08:	00010000 	andeq	r0, r1, r0
     e0c:	696c0100 	stmdbvs	ip!, {r8}^
     e10:	2f006362 	svccs	0x00006362
     e14:	2f727375 	svccs	0x00727375
     e18:	2d6d7261 	sfmcs	f7, 2, [sp, #-388]!	; 0xfffffe7c
     e1c:	656e6f6e 	strbvs	r6, [lr, #-3950]!	; 0xfffff092
     e20:	6261652d 	rsbvs	r6, r1, #188743680	; 0xb400000
     e24:	6e692f69 	cdpvs	15, 6, cr2, cr9, cr9, {3}
     e28:	64756c63 	ldrbtvs	r6, [r5], #-3171	; 0xfffff39d
     e2c:	79732f65 	ldmdbvc	r3!, {r0, r2, r5, r6, r8, r9, sl, fp, sp}^
     e30:	752f0073 	strvc	r0, [pc, #-115]!	; dc5 <_start-0x723b>
     e34:	6c2f7273 	sfmvs	f7, 4, [pc], #-460	; c70 <_start-0x7390>
     e38:	672f6269 	strvs	r6, [pc, -r9, ror #4]!
     e3c:	612f6363 			; <UNDEFINED> instruction: 0x612f6363
     e40:	6e2d6d72 	mcrvs	13, 1, r6, cr13, cr2, {3}
     e44:	2d656e6f 	stclcs	14, cr6, [r5, #-444]!	; 0xfffffe44
     e48:	69626165 	stmdbvs	r2!, {r0, r2, r5, r6, r8, sp, lr}^
     e4c:	322e392f 	eorcc	r3, lr, #770048	; 0xbc000
     e50:	692f302e 	stmdbvs	pc!, {r1, r2, r3, r5, ip, sp}	; <UNPREDICTABLE>
     e54:	756c636e 	strbvc	r6, [ip, #-878]!	; 0xfffffc92
     e58:	2f006564 	svccs	0x00006564
     e5c:	656d6f68 	strbvs	r6, [sp, #-3944]!	; 0xfffff098
     e60:	6573752f 	ldrbvs	r7, [r3, #-1327]!	; 0xfffffad1
     e64:	65442f72 	strbvs	r2, [r4, #-3954]	; 0xfffff08e
     e68:	53432f76 	movtpl	r2, #16246	; 0x3f76
     e6c:	58303432 	ldmdapl	r0!, {r1, r4, r5, sl, ip, sp}
     e70:	62696c2f 	rsbvs	r6, r9, #12032	; 0x2f00
     e74:	692f6970 	stmdbvs	pc!, {r4, r5, r6, r8, fp, sp, lr}	; <UNPREDICTABLE>
     e78:	756c636e 	strbvc	r6, [ip, #-878]!	; 0xfffffc92
     e7c:	00006564 	andeq	r6, r0, r4, ror #10
     e80:	6b747570 	blvs	1d1e448 <__bss_end__+0x1d14418>
     e84:	0100632e 	tsteq	r0, lr, lsr #6
     e88:	6f6c0000 	svcvs	0x006c0000
     e8c:	682e6b63 	stmdavs	lr!, {r0, r1, r5, r6, r8, r9, fp, sp, lr}
     e90:	00000200 	andeq	r0, r0, r0, lsl #4
     e94:	7079745f 	rsbsvc	r7, r9, pc, asr r4
     e98:	682e7365 	stmdavs	lr!, {r0, r2, r5, r6, r8, r9, ip, sp, lr}
     e9c:	00000200 	andeq	r0, r0, r0, lsl #4
     ea0:	64647473 	strbtvs	r7, [r4], #-1139	; 0xfffffb8d
     ea4:	682e6665 	stmdavs	lr!, {r0, r2, r5, r6, r9, sl, sp, lr}
     ea8:	00000300 	andeq	r0, r0, r0, lsl #6
     eac:	6e656572 	mcrvs	5, 3, r6, cr5, cr2, {3}
     eb0:	00682e74 	rsbeq	r2, r8, r4, ror lr
     eb4:	72000002 	andvc	r0, r0, #2
     eb8:	682e6970 	stmdavs	lr!, {r4, r5, r6, r8, fp, sp, lr}
     ebc:	00000400 	andeq	r0, r0, r0, lsl #8
     ec0:	00220500 	eoreq	r0, r2, r0, lsl #10
     ec4:	8b0c0205 	blhi	3016e0 <__bss_end__+0x2f76b0>
     ec8:	06150000 	ldreq	r0, [r5], -r0
     ecc:	06050501 	streq	r0, [r5], -r1, lsl #10
     ed0:	000b054b 	andeq	r0, fp, fp, asr #10
     ed4:	01010402 	tsteq	r1, r2, lsl #8
     ed8:	02000505 	andeq	r0, r0, #20971520	; 0x1400000
     edc:	2e060104 	adfcss	f0, f6, f4
     ee0:	02000905 	andeq	r0, r0, #81920	; 0x14000
     ee4:	4b060204 	blmi	1816fc <__bss_end__+0x1776cc>
     ee8:	02000f05 	andeq	r0, r0, #5, 30
     eec:	05650204 	strbeq	r0, [r5, #-516]!	; 0xfffffdfc
     ef0:	04020010 	streq	r0, [r2], #-16
     ef4:	00010602 	andeq	r0, r1, r2, lsl #12
     ef8:	2e020402 	cdpcs	4, 0, cr0, cr2, cr2, {0}
     efc:	32060505 	andcc	r0, r6, #20971520	; 0x1400000
     f00:	13060105 	movwne	r0, #24837	; 0x6105
     f04:	01000602 	tsteq	r0, r2, lsl #12
     f08:	00050d01 	andeq	r0, r5, r1, lsl #26
     f0c:	e3000300 	movw	r0, #768	; 0x300
     f10:	02000000 	andeq	r0, r0, #0
     f14:	0d0efb01 	vstreq	d15, [lr, #-4]
     f18:	01010100 	mrseq	r0, (UNDEF: 17)
     f1c:	00000001 	andeq	r0, r0, r1
     f20:	01000001 	tsteq	r0, r1
     f24:	6362696c 	cmnvs	r2, #108, 18	; 0x1b0000
     f28:	73752f00 	cmnvc	r5, #0, 30
     f2c:	72612f72 	rsbvc	r2, r1, #456	; 0x1c8
     f30:	6f6e2d6d 	svcvs	0x006e2d6d
     f34:	652d656e 	strvs	r6, [sp, #-1390]!	; 0xfffffa92
     f38:	2f696261 	svccs	0x00696261
     f3c:	6c636e69 	stclvs	14, cr6, [r3], #-420	; 0xfffffe5c
     f40:	2f656475 	svccs	0x00656475
     f44:	00737973 	rsbseq	r7, r3, r3, ror r9
     f48:	7273752f 	rsbsvc	r7, r3, #197132288	; 0xbc00000
     f4c:	62696c2f 	rsbvs	r6, r9, #12032	; 0x2f00
     f50:	6363672f 	cmnvs	r3, #12320768	; 0xbc0000
     f54:	6d72612f 	ldfvse	f6, [r2, #-188]!	; 0xffffff44
     f58:	6e6f6e2d 	cdpvs	14, 6, cr6, cr15, cr13, {1}
     f5c:	61652d65 	cmnvs	r5, r5, ror #26
     f60:	392f6962 	stmdbcc	pc!, {r1, r5, r6, r8, fp, sp, lr}	; <UNPREDICTABLE>
     f64:	302e322e 	eorcc	r3, lr, lr, lsr #4
     f68:	636e692f 	cmnvs	lr, #770048	; 0xbc000
     f6c:	6564756c 	strbvs	r7, [r4, #-1388]!	; 0xfffffa94
     f70:	6f682f00 	svcvs	0x00682f00
     f74:	752f656d 	strvc	r6, [pc, #-1389]!	; a0f <_start-0x75f1>
     f78:	2f726573 	svccs	0x00726573
     f7c:	2f766544 	svccs	0x00766544
     f80:	34325343 	ldrtcc	r5, [r2], #-835	; 0xfffffcbd
     f84:	6c2f5830 	stcvs	8, cr5, [pc], #-192	; ecc <_start-0x7134>
     f88:	69706269 	ldmdbvs	r0!, {r0, r3, r5, r6, r9, sp, lr}^
     f8c:	636e692f 	cmnvs	lr, #770048	; 0xbc000
     f90:	6564756c 	strbvs	r7, [r4, #-1388]!	; 0xfffffa94
     f94:	61760000 	cmnvs	r6, r0
     f98:	6972702d 	ldmdbvs	r2!, {r0, r2, r3, r5, ip, sp, lr}^
     f9c:	2e6b746e 	cdpcs	4, 6, cr7, cr11, cr14, {3}
     fa0:	00010063 	andeq	r0, r1, r3, rrx
     fa4:	636f6c00 	cmnvs	pc, #0, 24
     fa8:	00682e6b 	rsbeq	r2, r8, fp, ror #28
     fac:	5f000002 	svcpl	0x00000002
     fb0:	65707974 	ldrbvs	r7, [r0, #-2420]!	; 0xfffff68c
     fb4:	00682e73 	rsbeq	r2, r8, r3, ror lr
     fb8:	73000002 	movwvc	r0, #2
     fbc:	65646474 	strbvs	r6, [r4, #-1140]!	; 0xfffffb8c
     fc0:	00682e66 	rsbeq	r2, r8, r6, ror #28
     fc4:	72000003 	andvc	r0, r0, #3
     fc8:	746e6565 	strbtvc	r6, [lr], #-1381	; 0xfffffa9b
     fcc:	0200682e 	andeq	r6, r0, #3014656	; 0x2e0000
     fd0:	70720000 	rsbsvc	r0, r2, r0
     fd4:	00682e69 	rsbeq	r2, r8, r9, ror #28
     fd8:	73000004 	movwvc	r0, #4
     fdc:	72616474 	rsbvc	r6, r1, #116, 8	; 0x74000000
     fe0:	00682e67 	rsbeq	r2, r8, r7, ror #28
     fe4:	3c000003 	stccc	0, cr0, [r0], {3}
     fe8:	6c697562 	cfstr64vs	mvdx7, [r9], #-392	; 0xfffffe78
     fec:	6e692d74 	mcrvs	13, 3, r2, cr9, cr4, {3}
     ff0:	0000003e 	andeq	r0, r0, lr, lsr r0
     ff4:	1b050000 	blne	140ffc <__bss_end__+0x136fcc>
     ff8:	40020500 	andmi	r0, r2, r0, lsl #10
     ffc:	0300008b 	movweq	r0, #139	; 0x8b
    1000:	1d050126 	stfnes	f0, [r5, #-152]	; 0xffffff68
    1004:	062d0501 	strteq	r0, [sp], -r1, lsl #10
    1008:	2e010501 	cfsh32cs	mvfx0, mvfx1, #1
    100c:	0633054a 	ldrteq	r0, [r3], -sl, asr #10
    1010:	13020551 	movwne	r0, #9553	; 0x2551
    1014:	01060605 	tsteq	r6, r5, lsl #12
    1018:	30060205 	andcc	r0, r6, r5, lsl #4
    101c:	02000805 	andeq	r0, r0, #327680	; 0x50000
    1020:	05010104 	streq	r0, [r1, #-260]	; 0xfffffefc
    1024:	04020002 	streq	r0, [r2], #-2
    1028:	05010601 	streq	r0, [r1, #-1537]	; 0xfffff9ff
    102c:	04020003 	streq	r0, [r2], #-3
    1030:	052f0602 	streq	r0, [pc, #-1538]!	; a36 <_start-0x75ca>
    1034:	04020008 	streq	r0, [r2], #-8
    1038:	05010602 	streq	r0, [r1, #-1538]	; 0xfffff9fe
    103c:	04020015 	streq	r0, [r2], #-21	; 0xffffffeb
    1040:	05490602 	strbeq	r0, [r9, #-1538]	; 0xfffff9fe
    1044:	04020018 	streq	r0, [r2], #-24	; 0xffffffe8
    1048:	00010602 	andeq	r0, r1, r2, lsl #12
    104c:	2e020402 	cdpcs	4, 0, cr0, cr2, cr2, {0}
    1050:	30060205 	andcc	r0, r6, r5, lsl #4
    1054:	01060505 	tsteq	r6, r5, lsl #10
    1058:	4b060205 	blmi	181874 <__bss_end__+0x177844>
    105c:	13060105 	movwne	r0, #24837	; 0x6105
    1060:	30063e05 	andcc	r3, r6, r5, lsl #28
    1064:	05140205 	ldreq	r0, [r4, #-517]	; 0xfffffdfb
    1068:	0501060e 	streq	r0, [r1, #-1550]	; 0xfffff9f2
    106c:	02052e06 	andeq	r2, r5, #6, 28	; 0x60
    1070:	04052f06 	streq	r2, [r5], #-3846	; 0xfffff0fa
    1074:	03050106 	movweq	r0, #20742	; 0x5106
    1078:	11052f06 	tstne	r5, r6, lsl #30
    107c:	09050106 	stmdbeq	r5, {r1, r2, r8}
    1080:	0602052e 	streq	r0, [r2], -lr, lsr #10
    1084:	07051530 	smladxeq	r5, r0, r5, r1
    1088:	02050106 	andeq	r0, r5, #-2147483647	; 0x80000001
    108c:	000b052e 	andeq	r0, fp, lr, lsr #10
    1090:	06010402 	streq	r0, [r1], -r2, lsl #8
    1094:	0002052e 	andeq	r0, r2, lr, lsr #10
    1098:	06010402 	streq	r0, [r1], -r2, lsl #8
    109c:	00030501 	andeq	r0, r3, r1, lsl #10
    10a0:	06030402 	streq	r0, [r3], -r2, lsl #8
    10a4:	000c052f 	andeq	r0, ip, pc, lsr #10
    10a8:	06030402 	streq	r0, [r3], -r2, lsl #8
    10ac:	000a0501 	andeq	r0, sl, r1, lsl #10
    10b0:	2e030402 	cdpcs	4, 0, cr0, cr3, cr2, {0}
    10b4:	02001705 	andeq	r1, r0, #1310720	; 0x140000
    10b8:	2d060304 	stccs	3, cr0, [r6, #-16]
    10bc:	03040200 	movweq	r0, #16896	; 0x4200
    10c0:	02050106 	andeq	r0, r5, #-2147483647	; 0x80000001
    10c4:	09053006 	stmdbeq	r5, {r1, r2, ip, sp}
    10c8:	052e0106 	streq	r0, [lr, #-262]!	; 0xfffffefa
    10cc:	05300602 	ldreq	r0, [r0, #-1538]!	; 0xfffff9fe
    10d0:	05130601 	ldreq	r0, [r3, #-1537]	; 0xfffff9ff
    10d4:	06300656 			; <UNDEFINED> instruction: 0x06300656
    10d8:	06020501 	streq	r0, [r2], -r1, lsl #10
    10dc:	060405a0 	streq	r0, [r4], -r0, lsr #11
    10e0:	06030501 	streq	r0, [r3], -r1, lsl #10
    10e4:	0609052f 	streq	r0, [r9], -pc, lsr #10
    10e8:	06020501 	streq	r0, [r2], -r1, lsl #10
    10ec:	0b051330 	bleq	145db4 <__bss_end__+0x13bd84>
    10f0:	02050106 	andeq	r0, r5, #-2147483647	; 0x80000001
    10f4:	2e063006 	cdpcs	0, 0, cr3, cr6, cr6, {0}
    10f8:	02060405 	andeq	r0, r6, #83886080	; 0x5000000
    10fc:	05131524 	ldreq	r1, [r3, #-1316]	; 0xfffffadc
    1100:	2e01060f 	cfmadd32cs	mvax0, mvfx0, mvfx1, mvfx15
    1104:	054a0605 	strbeq	r0, [sl, #-1541]	; 0xfffff9fb
    1108:	134b0605 	movtne	r0, #46597	; 0xb605
    110c:	01060905 	tsteq	r6, r5, lsl #18
    1110:	2f060505 	svccs	0x00060505
    1114:	10060b05 	andne	r0, r6, r5, lsl #22
    1118:	02000d05 	andeq	r0, r0, #320	; 0x140
    111c:	052c0104 	streq	r0, [ip, #-260]!	; 0xfffffefc
    1120:	04020004 	streq	r0, [r2], #-4
    1124:	05340601 	ldreq	r0, [r4, #-1537]!	; 0xfffff9ff
    1128:	04020005 	streq	r0, [r2], #-5
    112c:	1b051301 	blne	145d38 <__bss_end__+0x13bd08>
    1130:	01040200 	mrseq	r0, R12_usr
    1134:	07050106 	streq	r0, [r5, -r6, lsl #2]
    1138:	01040200 	mrseq	r0, R12_usr
    113c:	001805d6 			; <UNDEFINED> instruction: 0x001805d6
    1140:	2e010402 	cdpcs	4, 0, cr0, cr1, cr2, {0}
    1144:	02000a05 	andeq	r0, r0, #20480	; 0x5000
    1148:	054a0104 	strbeq	r0, [sl, #-260]	; 0xfffffefc
    114c:	0402000b 	streq	r0, [r2], #-11
    1150:	052f0601 	streq	r0, [pc, #-1537]!	; b57 <_start-0x74a9>
    1154:	0402000e 	streq	r0, [r2], #-14
    1158:	052e0601 	streq	r0, [lr, #-1537]!	; 0xfffff9ff
    115c:	04020004 	streq	r0, [r2], #-4
    1160:	4b062e01 	blmi	18c96c <__bss_end__+0x18293c>
    1164:	01060605 	tsteq	r6, r5, lsl #12
    1168:	2f060505 	svccs	0x00060505
    116c:	01060a05 	tsteq	r6, r5, lsl #20
    1170:	2e4a0705 	cdpcs	7, 4, cr0, cr10, cr5, {0}
    1174:	76030d05 	strvc	r0, [r3], -r5, lsl #26
    1178:	0b054a2e 	bleq	153a38 <__bss_end__+0x149a08>
    117c:	000d050d 	andeq	r0, sp, sp, lsl #10
    1180:	06010402 	streq	r0, [r1], -r2, lsl #8
    1184:	052e1403 	streq	r1, [lr, #-1027]!	; 0xfffffbfd
    1188:	04020011 	streq	r0, [r2], #-17	; 0xffffffef
    118c:	2d051301 	stccs	3, cr1, [r5, #-4]
    1190:	01040200 	mrseq	r0, R12_usr
    1194:	2a050106 	bcs	1415b4 <__bss_end__+0x137584>
    1198:	01040200 	mrseq	r0, R12_usr
    119c:	0016052e 	andseq	r0, r6, lr, lsr #10
    11a0:	4a010402 	bmi	421b0 <__bss_end__+0x38180>
    11a4:	02001405 	andeq	r1, r0, #83886080	; 0x5000000
    11a8:	4b060104 	blmi	1815c0 <__bss_end__+0x177590>
    11ac:	02000d05 	andeq	r0, r0, #320	; 0x140
    11b0:	01060104 	tsteq	r6, r4, lsl #2
    11b4:	01040200 	mrseq	r0, R12_usr
    11b8:	052f064a 	streq	r0, [pc, #-1610]!	; b76 <_start-0x748a>
    11bc:	4a010612 	bmi	42a0c <__bss_end__+0x389dc>
    11c0:	2f060d05 	svccs	0x00060d05
    11c4:	01061205 	tsteq	r6, r5, lsl #4
    11c8:	4b061905 	blmi	1875e4 <__bss_end__+0x17d5b4>
    11cc:	02000405 	andeq	r0, r0, #83886080	; 0x5000000
    11d0:	11030204 	tstne	r3, r4, lsl #4
    11d4:	04020001 	streq	r0, [r2], #-1
    11d8:	02050102 	andeq	r0, r5, #-2147483648	; 0x80000000
    11dc:	02040200 	andeq	r0, r4, #0, 4
    11e0:	00090515 	andeq	r0, r9, r5, lsl r5
    11e4:	06020402 	streq	r0, [r2], -r2, lsl #8
    11e8:	04020001 	streq	r0, [r2], #-1
    11ec:	01054a02 	tsteq	r5, r2, lsl #20
    11f0:	02040200 	andeq	r0, r4, #0, 4
    11f4:	0604059f 			; <UNDEFINED> instruction: 0x0604059f
    11f8:	054a6e03 	strbeq	r6, [sl, #-3587]	; 0xfffff1fd
    11fc:	05010609 	streq	r0, [r1, #-1545]	; 0xfffff9f7
    1200:	052f0604 	streq	r0, [pc, #-1540]!	; c04 <_start-0x73fc>
    1204:	05110606 	ldreq	r0, [r1, #-1542]	; 0xfffff9fa
    1208:	0b052f04 	bleq	14ce20 <__bss_end__+0x142df0>
    120c:	052e6303 	streq	r6, [lr, #-771]!	; 0xfffffcfd
    1210:	04020019 	streq	r0, [r2], #-25	; 0xffffffe7
    1214:	24030601 	strcs	r0, [r3], #-1537	; 0xfffff9ff
    1218:	001a052e 	andseq	r0, sl, lr, lsr #10
    121c:	13010402 	movwne	r0, #5122	; 0x1402
    1220:	02002805 	andeq	r2, r0, #327680	; 0x50000
    1224:	01060104 	tsteq	r6, r4, lsl #2
    1228:	02002505 	andeq	r2, r0, #20971520	; 0x1400000
    122c:	052e0104 	streq	r0, [lr, #-260]!	; 0xfffffefc
    1230:	0402001f 	streq	r0, [r2], #-31	; 0xffffffe1
    1234:	0b054a01 	bleq	153a40 <__bss_end__+0x149a10>
    1238:	01040200 	mrseq	r0, R12_usr
    123c:	04054b06 	streq	r4, [r5], #-2822	; 0xfffff4fa
    1240:	01040200 	mrseq	r0, R12_usr
    1244:	02000106 	andeq	r0, r0, #-2147483647	; 0x80000001
    1248:	004a0104 	subeq	r0, sl, r4, lsl #2
    124c:	06010402 	streq	r0, [r1], -r2, lsl #8
    1250:	0402004e 	streq	r0, [r2], #-78	; 0xffffffb2
    1254:	02000101 	andeq	r0, r0, #1073741824	; 0x40000000
    1258:	00010104 	andeq	r0, r1, r4, lsl #2
    125c:	01010402 	tsteq	r1, r2, lsl #8
    1260:	01040200 	mrseq	r0, R12_usr
    1264:	0402002e 	streq	r0, [r2], #-46	; 0xffffffd2
    1268:	48059e01 	stmdami	r5, {r0, r9, sl, fp, ip, pc}
    126c:	f27fa803 	vadd.i64	d26, d15, d3
    1270:	01130505 	tsteq	r3, r5, lsl #10
    1274:	02002e06 	andeq	r2, r0, #6, 28	; 0x60
    1278:	2e060204 	cdpcs	2, 0, cr0, cr6, cr4, {0}
    127c:	02040200 	andeq	r0, r4, #0, 4
    1280:	04020001 	streq	r0, [r2], #-1
    1284:	11051302 	tstne	r5, r2, lsl #6
    1288:	02040200 	andeq	r0, r4, #0, 4
    128c:	05050106 	streq	r0, [r5, #-262]	; 0xfffffefa
    1290:	02040200 	andeq	r0, r4, #0, 4
    1294:	07054b06 	streq	r4, [r5, -r6, lsl #22]
    1298:	02040200 	andeq	r0, r4, #0, 4
    129c:	09050106 	stmdbeq	r5, {r1, r2, r8}
    12a0:	0e052f06 	cdpeq	15, 0, cr2, cr5, cr6, {0}
    12a4:	48050106 	stmdami	r5, {r1, r2, r8}
    12a8:	01040200 	mrseq	r0, R12_usr
    12ac:	00050562 	andeq	r0, r5, r2, ror #10
    12b0:	06010402 	streq	r0, [r1], -r2, lsl #8
    12b4:	0402002f 	streq	r0, [r2], #-47	; 0xffffffd1
    12b8:	02000101 	andeq	r0, r0, #1073741824	; 0x40000000
    12bc:	002e0104 	eoreq	r0, lr, r4, lsl #2
    12c0:	9e010402 	cdpls	4, 0, cr0, cr1, cr2, {0}
    12c4:	df034005 	svcle	0x00034005
    12c8:	0106ba00 	tsteq	r6, r0, lsl #20
    12cc:	9f060205 	svcls	0x00060205
    12d0:	01061e05 	tsteq	r6, r5, lsl #28
    12d4:	052e1205 	streq	r1, [lr, #-517]!	; 0xfffffdfb
    12d8:	05300602 	ldreq	r0, [r0, #-1538]!	; 0xfffff9fe
    12dc:	05010609 	streq	r0, [r1, #-1545]	; 0xfffff9f7
    12e0:	054b0602 	strbeq	r0, [fp, #-1538]	; 0xfffff9fe
    12e4:	050f0608 	streq	r0, [pc, #-1544]	; ce4 <_start-0x731c>
    12e8:	04053102 	streq	r3, [r5], #-258	; 0xfffffefe
    12ec:	0f053006 	svceq	0x00053006
    12f0:	09050106 	stmdbeq	r5, {r1, r2, r8}
    12f4:	0608052e 	streq	r0, [r8], -lr, lsr #10
    12f8:	0602052c 	streq	r0, [r2], -ip, lsr #10
    12fc:	000d052e 	andeq	r0, sp, lr, lsr #10
    1300:	4a010402 	bmi	42310 <__bss_end__+0x382e0>
    1304:	4b060305 	blmi	181f20 <__bss_end__+0x177ef0>
    1308:	01060505 	tsteq	r6, r5, lsl #10
    130c:	4d060805 	stcmi	8, cr0, [r6, #-20]	; 0xffffffec
    1310:	01060e05 	tsteq	r6, r5, lsl #28
    1314:	052e0a05 	streq	r0, [lr, #-2565]!	; 0xfffff5fb
    1318:	052f0604 	streq	r0, [pc, #-1540]!	; d1c <_start-0x72e4>
    131c:	05010609 	streq	r0, [r1, #-1545]	; 0xfffff9f7
    1320:	052f0604 	streq	r0, [pc, #-1540]!	; d24 <_start-0x72dc>
    1324:	2e010607 	cfmadd32cs	mvax0, mvfx0, mvfx1, mvfx7
    1328:	30060405 	andcc	r0, r6, r5, lsl #8
    132c:	01060705 	tsteq	r6, r5, lsl #14
    1330:	30060405 	andcc	r0, r6, r5, lsl #8
    1334:	0d051413 	cfstrseq	mvf1, [r5, #-76]	; 0xffffffb4
    1338:	09051006 	stmdbeq	r5, {r1, r2, ip}
    133c:	06050530 			; <UNDEFINED> instruction: 0x06050530
    1340:	0612052f 	ldreq	r0, [r2], -pc, lsr #10
    1344:	2e160501 	cfmul32cs	mvfx0, mvfx6, mvfx1
    1348:	052e0b05 	streq	r0, [lr, #-2821]!	; 0xfffff4fb
    134c:	052f0605 	streq	r0, [pc, #-1541]!	; d4f <_start-0x72b1>
    1350:	05010608 	streq	r0, [r1, #-1544]	; 0xfffff9f8
    1354:	052c0609 	streq	r0, [ip, #-1545]!	; 0xfffff9f7
    1358:	05010612 	streq	r0, [r1, #-1554]	; 0xfffff9ee
    135c:	09052e0a 	stmdbeq	r5, {r1, r3, r9, sl, fp, sp}
    1360:	0604054a 	streq	r0, [r4], -sl, asr #10
    1364:	014a014e 	cmpeq	sl, lr, asr #2
    1368:	04020014 	streq	r0, [r2], #-20	; 0xffffffec
    136c:	10360201 	eorsne	r0, r6, r1, lsl #4
    1370:	01040200 	mrseq	r0, R12_usr
    1374:	04020001 	streq	r0, [r2], #-1
    1378:	02002e01 	andeq	r2, r0, #1, 28
    137c:	059e0104 	ldreq	r0, [lr, #260]	; 0x104
    1380:	2e013405 	cdpcs	4, 0, cr3, cr1, cr5, {0}
    1384:	0e032e9e 	mcreq	14, 0, r2, cr3, cr14, {4}
    1388:	06090501 	streq	r0, [r9], -r1, lsl #10
    138c:	06050501 	streq	r0, [r5], -r1, lsl #10
    1390:	04055908 	streq	r5, [r5], #-2312	; 0xfffff6f8
    1394:	05011503 	streq	r1, [r1, #-1283]	; 0xfffffafd
    1398:	05010607 	streq	r0, [r1, #-1543]	; 0xfffff9f9
    139c:	05310604 	ldreq	r0, [r1, #-1540]!	; 0xfffff9fc
    13a0:	0405010a 	streq	r0, [r5], #-266	; 0xfffffef6
    13a4:	13050106 	movwne	r0, #20742	; 0x5106
    13a8:	01040200 	mrseq	r0, R12_usr
    13ac:	0010054a 	andseq	r0, r0, sl, asr #10
    13b0:	2e010402 	cdpcs	4, 0, cr0, cr1, cr2, {0}
    13b4:	4b060505 	blmi	1827d0 <__bss_end__+0x1787a0>
    13b8:	01060e05 	tsteq	r6, r5, lsl #28
    13bc:	2e2e0a05 	vmulcs.f32	s0, s28, s10
    13c0:	03060505 	movweq	r0, #25861	; 0x6505
    13c4:	1c052e69 	stcne	14, cr2, [r5], {105}	; 0x69
    13c8:	09050106 	stmdbeq	r5, {r1, r2, r8}
    13cc:	06050582 	streq	r0, [r5], -r2, lsl #11
    13d0:	1c0531d7 	stfnes	f3, [r5], {215}	; 0xd7
    13d4:	09050106 	stmdbeq	r5, {r1, r2, r8}
    13d8:	06050582 	streq	r0, [r5], -r2, lsl #11
    13dc:	1b0530d7 	blne	14d740 <__bss_end__+0x143710>
    13e0:	09050106 	stmdbeq	r5, {r1, r2, r8}
    13e4:	06050582 	streq	r0, [r5], -r2, lsl #11
    13e8:	070530d7 			; <UNDEFINED> instruction: 0x070530d7
    13ec:	05050106 	streq	r0, [r5, #-262]	; 0xfffffefa
    13f0:	05308306 	ldreq	r8, [r0, #-774]!	; 0xfffffcfa
    13f4:	05010609 	streq	r0, [r1, #-1545]	; 0xfffff9f7
    13f8:	59080605 	stmdbpl	r8, {r0, r2, r9, sl}
    13fc:	d62e0130 			; <UNDEFINED> instruction: 0xd62e0130
    1400:	02052e06 	andeq	r2, r5, #6, 28	; 0x60
    1404:	010a0306 	tsteq	sl, r6, lsl #6
    1408:	01060705 	tsteq	r6, r5, lsl #14
    140c:	4b060205 	blmi	181c28 <__bss_end__+0x177bf8>
    1410:	13060105 	movwne	r0, #24837	; 0x6105
    1414:	000a0266 	andeq	r0, sl, r6, ror #4
    1418:	00eb0101 	rsceq	r0, fp, r1, lsl #2
    141c:	00030000 	andeq	r0, r3, r0
    1420:	000000d1 	ldrdeq	r0, [r0], -r1
    1424:	0efb0102 	cdpeq	1, 15, cr0, cr11, cr2, {0}
    1428:	0101000d 	tsteq	r1, sp
    142c:	00000101 	andeq	r0, r0, r1, lsl #2
    1430:	00000100 	andeq	r0, r0, r0, lsl #2
    1434:	61747301 	cmnvs	r4, r1, lsl #6
    1438:	732d6666 			; <UNDEFINED> instruction: 0x732d6666
    143c:	2f006372 	svccs	0x00006372
    1440:	2f727375 	svccs	0x00727375
    1444:	2d6d7261 	sfmcs	f7, 2, [sp, #-388]!	; 0xfffffe7c
    1448:	656e6f6e 	strbvs	r6, [lr, #-3950]!	; 0xfffff092
    144c:	6261652d 	rsbvs	r6, r1, #188743680	; 0xb400000
    1450:	6e692f69 	cdpvs	15, 6, cr2, cr9, cr9, {3}
    1454:	64756c63 	ldrbtvs	r6, [r5], #-3171	; 0xfffff39d
    1458:	79732f65 	ldmdbvc	r3!, {r0, r2, r5, r6, r8, r9, sl, fp, sp}^
    145c:	752f0073 	strvc	r0, [pc, #-115]!	; 13f1 <_start-0x6c0f>
    1460:	6c2f7273 	sfmvs	f7, 4, [pc], #-460	; 129c <_start-0x6d64>
    1464:	672f6269 	strvs	r6, [pc, -r9, ror #4]!
    1468:	612f6363 			; <UNDEFINED> instruction: 0x612f6363
    146c:	6e2d6d72 	mcrvs	13, 1, r6, cr13, cr2, {3}
    1470:	2d656e6f 	stclcs	14, cr6, [r5, #-444]!	; 0xfffffe44
    1474:	69626165 	stmdbvs	r2!, {r0, r2, r5, r6, r8, sp, lr}^
    1478:	322e392f 	eorcc	r3, lr, #770048	; 0xbc000
    147c:	692f302e 	stmdbvs	pc!, {r1, r2, r3, r5, ip, sp}	; <UNPREDICTABLE>
    1480:	756c636e 	strbvc	r6, [ip, #-878]!	; 0xfffffc92
    1484:	2f006564 	svccs	0x00006564
    1488:	656d6f68 	strbvs	r6, [sp, #-3944]!	; 0xfffff098
    148c:	6573752f 	ldrbvs	r7, [r3, #-1327]!	; 0xfffffad1
    1490:	65442f72 	strbvs	r2, [r4, #-3954]	; 0xfffff08e
    1494:	53432f76 	movtpl	r2, #16246	; 0x3f76
    1498:	58303432 	ldmdapl	r0!, {r1, r4, r5, sl, ip, sp}
    149c:	62696c2f 	rsbvs	r6, r9, #12032	; 0x2f00
    14a0:	692f6970 	stmdbvs	pc!, {r4, r5, r6, r8, fp, sp, lr}	; <UNPREDICTABLE>
    14a4:	756c636e 	strbvc	r6, [ip, #-878]!	; 0xfffffc92
    14a8:	00006564 	andeq	r6, r0, r4, ror #10
    14ac:	61656c63 	cmnvs	r5, r3, ror #24
    14b0:	65722d6e 	ldrbvs	r2, [r2, #-3438]!	; 0xfffff292
    14b4:	746f6f62 	strbtvc	r6, [pc], #-3938	; 14bc <_start-0x6b44>
    14b8:	0100632e 	tsteq	r0, lr, lsr #6
    14bc:	6f6c0000 	svcvs	0x006c0000
    14c0:	682e6b63 	stmdavs	lr!, {r0, r1, r5, r6, r8, r9, fp, sp, lr}
    14c4:	00000200 	andeq	r0, r0, r0, lsl #4
    14c8:	7079745f 	rsbsvc	r7, r9, pc, asr r4
    14cc:	682e7365 	stmdavs	lr!, {r0, r2, r5, r6, r8, r9, ip, sp, lr}
    14d0:	00000200 	andeq	r0, r0, r0, lsl #4
    14d4:	64647473 	strbtvs	r7, [r4], #-1139	; 0xfffffb8d
    14d8:	682e6665 	stmdavs	lr!, {r0, r2, r5, r6, r9, sl, sp, lr}
    14dc:	00000300 	andeq	r0, r0, r0, lsl #6
    14e0:	6e656572 	mcrvs	5, 3, r6, cr5, cr2, {3}
    14e4:	00682e74 	rsbeq	r2, r8, r4, ror lr
    14e8:	72000002 	andvc	r0, r0, #2
    14ec:	682e6970 	stmdavs	lr!, {r4, r5, r6, r8, fp, sp, lr}
    14f0:	00000400 	andeq	r0, r0, r0, lsl #8
    14f4:	00190500 	andseq	r0, r9, r0, lsl #10
    14f8:	90600205 	rsbls	r0, r0, r5, lsl #4
    14fc:	05150000 	ldreq	r0, [r5, #-0]
    1500:	4b832f05 	blmi	fe0cd11c <__bss_end__+0xfe0c30ec>
    1504:	01000602 	tsteq	r0, r2, lsl #12
    1508:	00010401 	andeq	r0, r1, r1, lsl #8
    150c:	cb000300 	blgt	2114 <_start-0x5eec>
    1510:	02000000 	andeq	r0, r0, #0
    1514:	0d0efb01 	vstreq	d15, [lr, #-4]
    1518:	01010100 	mrseq	r0, (UNDEF: 17)
    151c:	00000001 	andeq	r0, r0, r1
    1520:	01000001 	tsteq	r0, r1
    1524:	66617473 			; <UNDEFINED> instruction: 0x66617473
    1528:	72732d66 	rsbsvc	r2, r3, #6528	; 0x1980
    152c:	752f0063 	strvc	r0, [pc, #-99]!	; 14d1 <_start-0x6b2f>
    1530:	612f7273 			; <UNDEFINED> instruction: 0x612f7273
    1534:	6e2d6d72 	mcrvs	13, 1, r6, cr13, cr2, {3}
    1538:	2d656e6f 	stclcs	14, cr6, [r5, #-444]!	; 0xfffffe44
    153c:	69626165 	stmdbvs	r2!, {r0, r2, r5, r6, r8, sp, lr}^
    1540:	636e692f 	cmnvs	lr, #770048	; 0xbc000
    1544:	6564756c 	strbvs	r7, [r4, #-1388]!	; 0xfffffa94
    1548:	7379732f 	cmnvc	r9, #-1140850688	; 0xbc000000
    154c:	73752f00 	cmnvc	r5, #0, 30
    1550:	696c2f72 	stmdbvs	ip!, {r1, r4, r5, r6, r8, r9, sl, fp, sp}^
    1554:	63672f62 	cmnvs	r7, #392	; 0x188
    1558:	72612f63 	rsbvc	r2, r1, #396	; 0x18c
    155c:	6f6e2d6d 	svcvs	0x006e2d6d
    1560:	652d656e 	strvs	r6, [sp, #-1390]!	; 0xfffffa92
    1564:	2f696261 	svccs	0x00696261
    1568:	2e322e39 	mrccs	14, 1, r2, cr2, cr9, {1}
    156c:	6e692f30 	mcrvs	15, 3, r2, cr9, cr0, {1}
    1570:	64756c63 	ldrbtvs	r6, [r5], #-3171	; 0xfffff39d
    1574:	682f0065 	stmdavs	pc!, {r0, r2, r5, r6}	; <UNPREDICTABLE>
    1578:	2f656d6f 	svccs	0x00656d6f
    157c:	72657375 	rsbvc	r7, r5, #-738197503	; 0xd4000001
    1580:	7665442f 	strbtvc	r4, [r5], -pc, lsr #8
    1584:	3253432f 	subscc	r4, r3, #-1140850688	; 0xbc000000
    1588:	2f583034 	svccs	0x00583034
    158c:	7062696c 	rsbvc	r6, r2, ip, ror #18
    1590:	6e692f69 	cdpvs	15, 6, cr2, cr9, cr9, {3}
    1594:	64756c63 	ldrbtvs	r6, [r5], #-3171	; 0xfffff39d
    1598:	63000065 	movwvs	r0, #101	; 0x65
    159c:	72617473 	rsbvc	r7, r1, #1929379840	; 0x73000000
    15a0:	00632e74 	rsbeq	r2, r3, r4, ror lr
    15a4:	6c000001 	stcvs	0, cr0, [r0], {1}
    15a8:	2e6b636f 	cdpcs	3, 6, cr6, cr11, cr15, {3}
    15ac:	00020068 	andeq	r0, r2, r8, rrx
    15b0:	79745f00 	ldmdbvc	r4!, {r8, r9, sl, fp, ip, lr}^
    15b4:	2e736570 	mrccs	5, 3, r6, cr3, cr0, {3}
    15b8:	00020068 	andeq	r0, r2, r8, rrx
    15bc:	64747300 	ldrbtvs	r7, [r4], #-768	; 0xfffffd00
    15c0:	2e666564 	cdpcs	5, 6, cr6, cr6, cr4, {3}
    15c4:	00030068 	andeq	r0, r3, r8, rrx
    15c8:	65657200 	strbvs	r7, [r5, #-512]!	; 0xfffffe00
    15cc:	682e746e 	stmdavs	lr!, {r1, r2, r3, r5, r6, sl, ip, sp, lr}
    15d0:	00000200 	andeq	r0, r0, r0, lsl #4
    15d4:	2e697072 	mcrcs	0, 3, r7, cr9, cr2, {3}
    15d8:	00040068 	andeq	r0, r4, r8, rrx
    15dc:	10050000 	andne	r0, r5, r0
    15e0:	88020500 	stmdahi	r2, {r8, sl}
    15e4:	03000090 	movweq	r0, #144	; 0x90
    15e8:	0505010c 	streq	r0, [r5, #-268]	; 0xfffffef4
    15ec:	1302052f 	movwne	r0, #9519	; 0x252f
    15f0:	13140505 	tstne	r4, #20971520	; 0x1400000
    15f4:	060a0514 			; <UNDEFINED> instruction: 0x060a0514
    15f8:	0531060f 	ldreq	r0, [r1, #-1551]!	; 0xfffff9f1
    15fc:	10054b09 	andne	r4, r5, r9, lsl #22
    1600:	054a0106 	strbeq	r0, [sl, #-262]	; 0xfffffefa
    1604:	14030605 	strne	r0, [r3], #-1541	; 0xfffff9fb
    1608:	2f02052e 	svccs	0x0002052e
    160c:	01000602 	tsteq	r0, r2, lsl #12
    1610:	00013801 	andeq	r3, r1, r1, lsl #16
    1614:	cb000300 	blgt	221c <_start-0x5de4>
    1618:	02000000 	andeq	r0, r0, #0
    161c:	0d0efb01 	vstreq	d15, [lr, #-4]
    1620:	01010100 	mrseq	r0, (UNDEF: 17)
    1624:	00000001 	andeq	r0, r0, r1
    1628:	01000001 	tsteq	r0, r1
    162c:	66617473 			; <UNDEFINED> instruction: 0x66617473
    1630:	72732d66 	rsbsvc	r2, r3, #6528	; 0x1980
    1634:	752f0063 	strvc	r0, [pc, #-99]!	; 15d9 <_start-0x6a27>
    1638:	612f7273 			; <UNDEFINED> instruction: 0x612f7273
    163c:	6e2d6d72 	mcrvs	13, 1, r6, cr13, cr2, {3}
    1640:	2d656e6f 	stclcs	14, cr6, [r5, #-444]!	; 0xfffffe44
    1644:	69626165 	stmdbvs	r2!, {r0, r2, r5, r6, r8, sp, lr}^
    1648:	636e692f 	cmnvs	lr, #770048	; 0xbc000
    164c:	6564756c 	strbvs	r7, [r4, #-1388]!	; 0xfffffa94
    1650:	7379732f 	cmnvc	r9, #-1140850688	; 0xbc000000
    1654:	73752f00 	cmnvc	r5, #0, 30
    1658:	696c2f72 	stmdbvs	ip!, {r1, r4, r5, r6, r8, r9, sl, fp, sp}^
    165c:	63672f62 	cmnvs	r7, #392	; 0x188
    1660:	72612f63 	rsbvc	r2, r1, #396	; 0x18c
    1664:	6f6e2d6d 	svcvs	0x006e2d6d
    1668:	652d656e 	strvs	r6, [sp, #-1390]!	; 0xfffffa92
    166c:	2f696261 	svccs	0x00696261
    1670:	2e322e39 	mrccs	14, 1, r2, cr2, cr9, {1}
    1674:	6e692f30 	mcrvs	15, 3, r2, cr9, cr0, {1}
    1678:	64756c63 	ldrbtvs	r6, [r5], #-3171	; 0xfffff39d
    167c:	682f0065 	stmdavs	pc!, {r0, r2, r5, r6}	; <UNPREDICTABLE>
    1680:	2f656d6f 	svccs	0x00656d6f
    1684:	72657375 	rsbvc	r7, r5, #-738197503	; 0xd4000001
    1688:	7665442f 	strbtvc	r4, [r5], -pc, lsr #8
    168c:	3253432f 	subscc	r4, r3, #-1140850688	; 0xbc000000
    1690:	2f583034 	svccs	0x00583034
    1694:	7062696c 	rsbvc	r6, r2, ip, ror #18
    1698:	6e692f69 	cdpvs	15, 6, cr2, cr9, cr9, {3}
    169c:	64756c63 	ldrbtvs	r6, [r5], #-3171	; 0xfffff39d
    16a0:	72000065 	andvc	r0, r0, #101	; 0x65
    16a4:	6f6f6265 	svcvs	0x006f6265
    16a8:	00632e74 	rsbeq	r2, r3, r4, ror lr
    16ac:	6c000001 	stcvs	0, cr0, [r0], {1}
    16b0:	2e6b636f 	cdpcs	3, 6, cr6, cr11, cr15, {3}
    16b4:	00020068 	andeq	r0, r2, r8, rrx
    16b8:	79745f00 	ldmdbvc	r4!, {r8, r9, sl, fp, ip, lr}^
    16bc:	2e736570 	mrccs	5, 3, r6, cr3, cr0, {3}
    16c0:	00020068 	andeq	r0, r2, r8, rrx
    16c4:	64747300 	ldrbtvs	r7, [r4], #-768	; 0xfffffd00
    16c8:	2e666564 	cdpcs	5, 6, cr6, cr6, cr4, {3}
    16cc:	00030068 	andeq	r0, r3, r8, rrx
    16d0:	65657200 	strbvs	r7, [r5, #-512]!	; 0xfffffe00
    16d4:	682e746e 	stmdavs	lr!, {r1, r2, r3, r5, r6, sl, ip, sp, lr}
    16d8:	00000200 	andeq	r0, r0, r0, lsl #4
    16dc:	2e697072 	mcrcs	0, 3, r7, cr9, cr2, {3}
    16e0:	00040068 	andeq	r0, r4, r8, rrx
    16e4:	19050000 	stmdbne	r5, {}	; <UNPREDICTABLE>
    16e8:	b4020500 	strlt	r0, [r2], #-1280	; 0xfffffb00
    16ec:	03000090 	movweq	r0, #144	; 0x90
    16f0:	0505010d 	streq	r0, [r5, #-269]	; 0xfffffef3
    16f4:	05311313 	ldreq	r1, [r1, #-787]!	; 0xfffffced
    16f8:	05010613 	streq	r0, [r1, #-1555]	; 0xfffff9ed
    16fc:	1b052f01 	blne	14d308 <__bss_end__+0x1432d8>
    1700:	05058506 	streq	r8, [r5, #-1286]	; 0xfffffafa
    1704:	09051413 	stmdbeq	r5, {r0, r1, r4, sl, ip}
    1708:	0616052f 	ldreq	r0, [r6], -pc, lsr #10
    170c:	2e0e0501 	cfsh32cs	mvfx0, mvfx14, #1
    1710:	2f060505 	svccs	0x00060505
    1714:	2f060105 	svccs	0x00060105
    1718:	30061705 	andcc	r1, r6, r5, lsl #14
    171c:	052f0505 	streq	r0, [pc, #-1285]!	; 121f <_start-0x6de1>
    1720:	05010608 	streq	r0, [r1, #-1544]	; 0xfffff9f8
    1724:	05052e07 	streq	r2, [r5, #-3591]	; 0xfffff1f9
    1728:	134c5206 	movtne	r5, #49670	; 0xc206
    172c:	67151313 			; <UNDEFINED> instruction: 0x67151313
    1730:	01040200 	mrseq	r0, R12_usr
    1734:	000d0567 	andeq	r0, sp, r7, ror #10
    1738:	01010402 	tsteq	r1, r2, lsl #8
    173c:	02000a05 	andeq	r0, r0, #20480	; 0x5000
    1740:	05010104 	streq	r0, [r1, #-260]	; 0xfffffefc
    1744:	2e6f0309 	cdpcs	3, 6, cr0, cr15, cr9, {0}
    1748:	01000c02 	tsteq	r0, r2, lsl #24
    174c:	00015a01 	andeq	r5, r1, r1, lsl #20
    1750:	ca000300 	bgt	2358 <_start-0x5ca8>
    1754:	02000000 	andeq	r0, r0, #0
    1758:	0d0efb01 	vstreq	d15, [lr, #-4]
    175c:	01010100 	mrseq	r0, (UNDEF: 17)
    1760:	00000001 	andeq	r0, r0, r1
    1764:	01000001 	tsteq	r0, r1
    1768:	66617473 			; <UNDEFINED> instruction: 0x66617473
    176c:	72732d66 	rsbsvc	r2, r3, #6528	; 0x1980
    1770:	752f0063 	strvc	r0, [pc, #-99]!	; 1715 <_start-0x68eb>
    1774:	612f7273 			; <UNDEFINED> instruction: 0x612f7273
    1778:	6e2d6d72 	mcrvs	13, 1, r6, cr13, cr2, {3}
    177c:	2d656e6f 	stclcs	14, cr6, [r5, #-444]!	; 0xfffffe44
    1780:	69626165 	stmdbvs	r2!, {r0, r2, r5, r6, r8, sp, lr}^
    1784:	636e692f 	cmnvs	lr, #770048	; 0xbc000
    1788:	6564756c 	strbvs	r7, [r4, #-1388]!	; 0xfffffa94
    178c:	7379732f 	cmnvc	r9, #-1140850688	; 0xbc000000
    1790:	73752f00 	cmnvc	r5, #0, 30
    1794:	696c2f72 	stmdbvs	ip!, {r1, r4, r5, r6, r8, r9, sl, fp, sp}^
    1798:	63672f62 	cmnvs	r7, #392	; 0x188
    179c:	72612f63 	rsbvc	r2, r1, #396	; 0x18c
    17a0:	6f6e2d6d 	svcvs	0x006e2d6d
    17a4:	652d656e 	strvs	r6, [sp, #-1390]!	; 0xfffffa92
    17a8:	2f696261 	svccs	0x00696261
    17ac:	2e322e39 	mrccs	14, 1, r2, cr2, cr9, {1}
    17b0:	6e692f30 	mcrvs	15, 3, r2, cr9, cr0, {1}
    17b4:	64756c63 	ldrbtvs	r6, [r5], #-3171	; 0xfffff39d
    17b8:	682f0065 	stmdavs	pc!, {r0, r2, r5, r6}	; <UNPREDICTABLE>
    17bc:	2f656d6f 	svccs	0x00656d6f
    17c0:	72657375 	rsbvc	r7, r5, #-738197503	; 0xd4000001
    17c4:	7665442f 	strbtvc	r4, [r5], -pc, lsr #8
    17c8:	3253432f 	subscc	r4, r3, #-1140850688	; 0xbc000000
    17cc:	2f583034 	svccs	0x00583034
    17d0:	7062696c 	rsbvc	r6, r2, ip, ror #18
    17d4:	6e692f69 	cdpvs	15, 6, cr2, cr9, cr9, {3}
    17d8:	64756c63 	ldrbtvs	r6, [r5], #-3171	; 0xfffff39d
    17dc:	74000065 	strvc	r0, [r0], #-101	; 0xffffff9b
    17e0:	72656d69 	rsbvc	r6, r5, #6720	; 0x1a40
    17e4:	0100632e 	tsteq	r0, lr, lsr #6
    17e8:	6f6c0000 	svcvs	0x006c0000
    17ec:	682e6b63 	stmdavs	lr!, {r0, r1, r5, r6, r8, r9, fp, sp, lr}
    17f0:	00000200 	andeq	r0, r0, r0, lsl #4
    17f4:	7079745f 	rsbsvc	r7, r9, pc, asr r4
    17f8:	682e7365 	stmdavs	lr!, {r0, r2, r5, r6, r8, r9, ip, sp, lr}
    17fc:	00000200 	andeq	r0, r0, r0, lsl #4
    1800:	64647473 	strbtvs	r7, [r4], #-1139	; 0xfffffb8d
    1804:	682e6665 	stmdavs	lr!, {r0, r2, r5, r6, r9, sl, sp, lr}
    1808:	00000300 	andeq	r0, r0, r0, lsl #6
    180c:	6e656572 	mcrvs	5, 3, r6, cr5, cr2, {3}
    1810:	00682e74 	rsbeq	r2, r8, r4, ror lr
    1814:	72000002 	andvc	r0, r0, #2
    1818:	682e6970 	stmdavs	lr!, {r4, r5, r6, r8, fp, sp, lr}
    181c:	00000400 	andeq	r0, r0, r0, lsl #8
    1820:	00230500 	eoreq	r0, r3, r0, lsl #10
    1824:	912c0205 			; <UNDEFINED> instruction: 0x912c0205
    1828:	05160000 	ldreq	r0, [r6, #-0]
    182c:	0a051405 	beq	146848 <__bss_end__+0x13c818>
    1830:	06100501 	ldreq	r0, [r0], -r1, lsl #10
    1834:	2e0a0501 	cfsh32cs	mvfx0, mvfx10, #1
    1838:	4b060905 	blmi	183c54 <__bss_end__+0x179c24>
    183c:	2d061005 	stccs	0, cr1, [r6, #-20]	; 0xffffffec
    1840:	03062305 	movweq	r2, #25349	; 0x6305
    1844:	05054a0a 	streq	r4, [r5, #-2570]	; 0xfffff5f6
    1848:	060c052f 	streq	r0, [ip], -pc, lsr #10
    184c:	4b010501 	blmi	42c58 <__bss_end__+0x38c28>
    1850:	4d061f05 	stcmi	15, cr1, [r6, #-20]	; 0xffffffec
    1854:	05320505 	ldreq	r0, [r2, #-1285]!	; 0xfffffafb
    1858:	05010612 	streq	r0, [r1, #-1554]	; 0xfffff9ee
    185c:	05300605 	ldreq	r0, [r0, #-1541]!	; 0xfffff9fb
    1860:	05130601 	ldreq	r0, [r3, #-1537]	; 0xfffff9ff
    1864:	0630061c 			; <UNDEFINED> instruction: 0x0630061c
    1868:	06050501 	streq	r0, [r5], -r1, lsl #10
    186c:	0613054b 	ldreq	r0, [r3], -fp, asr #10
    1870:	05052e01 	streq	r2, [r5, #-3585]	; 0xfffff1ff
    1874:	09052f06 	stmdbeq	r5, {r1, r2, r8, r9, sl, fp, sp}
    1878:	06170513 			; <UNDEFINED> instruction: 0x06170513
    187c:	06090501 	streq	r0, [r9], -r1, lsl #10
    1880:	0611052f 	ldreq	r0, [r1], -pc, lsr #10
    1884:	2e0c0501 	cfsh32cs	mvfx0, mvfx12, #1
    1888:	6b061c05 	blvs	1888a4 <__bss_end__+0x17e874>
    188c:	05050106 	streq	r0, [r5, #-262]	; 0xfffffefa
    1890:	4a062f06 	bmi	18d4b0 <__bss_end__+0x183480>
    1894:	054b0105 	strbeq	r0, [fp, #-261]	; 0xfffffefb
    1898:	062f061e 			; <UNDEFINED> instruction: 0x062f061e
    189c:	06050501 	streq	r0, [r5], -r1, lsl #10
    18a0:	054a062f 	strbeq	r0, [sl, #-1583]	; 0xfffff9d1
    18a4:	02024b01 	andeq	r4, r2, #1024	; 0x400
    18a8:	48010100 	stmdami	r1, {r8}
    18ac:	02000001 	andeq	r0, r0, #1
    18b0:	00010200 	andeq	r0, r1, r0, lsl #4
    18b4:	fb010200 	blx	420be <__bss_end__+0x3808e>
    18b8:	01000d0e 	tsteq	r0, lr, lsl #26
    18bc:	00010101 	andeq	r0, r1, r1, lsl #2
    18c0:	00010000 	andeq	r0, r1, r0
    18c4:	752f0100 	strvc	r0, [pc, #-256]!	; 17cc <_start-0x6834>
    18c8:	692f7273 	stmdbvs	pc!, {r0, r1, r4, r5, r6, r9, ip, sp, lr}	; <UNPREDICTABLE>
    18cc:	756c636e 	strbvc	r6, [ip, #-878]!	; 0xfffffc92
    18d0:	6e2f6564 	cfsh64vs	mvdx6, mvdx15, #52
    18d4:	696c7765 	stmdbvs	ip!, {r0, r2, r5, r6, r8, r9, sl, ip, sp, lr}^
    18d8:	79732f62 	ldmdbvc	r3!, {r1, r5, r6, r8, r9, sl, fp, sp}^
    18dc:	752f0073 	strvc	r0, [pc, #-115]!	; 1871 <_start-0x678f>
    18e0:	6c2f7273 	sfmvs	f7, 4, [pc], #-460	; 171c <_start-0x68e4>
    18e4:	672f6269 	strvs	r6, [pc, -r9, ror #4]!
    18e8:	612f6363 			; <UNDEFINED> instruction: 0x612f6363
    18ec:	6e2d6d72 	mcrvs	13, 1, r6, cr13, cr2, {3}
    18f0:	2d656e6f 	stclcs	14, cr6, [r5, #-444]!	; 0xfffffe44
    18f4:	69626165 	stmdbvs	r2!, {r0, r2, r5, r6, r8, sp, lr}^
    18f8:	332e362f 			; <UNDEFINED> instruction: 0x332e362f
    18fc:	692f312e 	stmdbvs	pc!, {r1, r2, r3, r5, r8, ip, sp}	; <UNPREDICTABLE>
    1900:	756c636e 	strbvc	r6, [ip, #-878]!	; 0xfffffc92
    1904:	2f006564 	svccs	0x00006564
    1908:	656d6f68 	strbvs	r6, [sp, #-3944]!	; 0xfffff098
    190c:	676e652f 	strbvs	r6, [lr, -pc, lsr #10]!
    1910:	2f72656c 	svccs	0x0072656c
    1914:	73616c63 	cmnvc	r1, #25344	; 0x6300
    1918:	73632f73 	cmnvc	r3, #460	; 0x1cc
    191c:	6c303432 	cfldrsvs	mvf3, [r0], #-200	; 0xffffff38
    1920:	30322d78 	eorscc	r2, r2, r8, ror sp
    1924:	2f727073 	svccs	0x00727073
    1928:	62696c2f 	rsbvs	r6, r9, #12032	; 0x2f00
    192c:	2f006970 	svccs	0x00006970
    1930:	656d6f68 	strbvs	r6, [sp, #-3944]!	; 0xfffff098
    1934:	676e652f 	strbvs	r6, [lr, -pc, lsr #10]!
    1938:	2f72656c 	svccs	0x0072656c
    193c:	73616c63 	cmnvc	r1, #25344	; 0x6300
    1940:	73632f73 	cmnvc	r3, #460	; 0x1cc
    1944:	6c303432 	cfldrsvs	mvf3, [r0], #-200	; 0xffffff38
    1948:	30322d78 	eorscc	r2, r2, r8, ror sp
    194c:	2f727073 	svccs	0x00727073
    1950:	62696c2f 	rsbvs	r6, r9, #12032	; 0x2f00
    1954:	732f6970 			; <UNDEFINED> instruction: 0x732f6970
    1958:	66666174 			; <UNDEFINED> instruction: 0x66666174
    195c:	6372732d 	cmnvs	r2, #-1275068416	; 0xb4000000
    1960:	61750000 	cmnvs	r5, r0
    1964:	632e7472 			; <UNDEFINED> instruction: 0x632e7472
    1968:	00000000 	andeq	r0, r0, r0
    196c:	6b636f6c 	blvs	18dd724 <__bss_end__+0x18d36f4>
    1970:	0100682e 	tsteq	r0, lr, lsr #16
    1974:	745f0000 	ldrbvc	r0, [pc], #-0	; 197c <_start-0x6684>
    1978:	73657079 	cmnvc	r5, #121	; 0x79
    197c:	0100682e 	tsteq	r0, lr, lsr #16
    1980:	74730000 	ldrbtvc	r0, [r3], #-0
    1984:	66656464 	strbtvs	r6, [r5], -r4, ror #8
    1988:	0200682e 	andeq	r6, r0, #3014656	; 0x2e0000
    198c:	65720000 	ldrbvs	r0, [r2, #-0]!
    1990:	2e746e65 	cdpcs	14, 7, cr6, cr4, cr5, {3}
    1994:	00010068 	andeq	r0, r1, r8, rrx
    1998:	69707200 	ldmdbvs	r0!, {r9, ip, sp, lr}^
    199c:	0300682e 	movweq	r6, #2094	; 0x82e
    19a0:	61750000 	cmnvs	r5, r0
    19a4:	682e7472 	stmdavs	lr!, {r1, r4, r5, r6, sl, ip, sp, lr}
    19a8:	00000400 	andeq	r0, r0, r0, lsl #8
    19ac:	6f697067 	svcvs	0x00697067
    19b0:	0400682e 	streq	r6, [r0], #-2094	; 0xfffff7d2
    19b4:	00000000 	andeq	r0, r0, r0
    19b8:	92040205 	andls	r0, r4, #1342177280	; 0x50000000
    19bc:	2c030000 	stccs	0, cr0, [r3], {-0}
    19c0:	0c036701 	stceq	7, cr6, [r3], {1}
    19c4:	6867359e 	stmdavs	r7!, {r1, r2, r3, r4, r7, r8, sl, ip, sp}^
    19c8:	0c036835 	stceq	8, cr6, [r3], {53}	; 0x35
    19cc:	696b852e 	stmdbvs	fp!, {r1, r2, r3, r5, r8, sl, pc}^
    19d0:	660c0369 	strvs	r0, [ip], -r9, ror #6
    19d4:	4208676b 	andmi	r6, r8, #28049408	; 0x1ac0000
    19d8:	364b6834 			; <UNDEFINED> instruction: 0x364b6834
    19dc:	002f8768 	eoreq	r8, pc, r8, ror #14
    19e0:	2f010402 	svccs	0x00010402
    19e4:	67306768 	ldrvs	r6, [r0, -r8, ror #14]!
    19e8:	0402004b 	streq	r0, [r2], #-75	; 0xffffffb5
    19ec:	67682f01 	strbvs	r2, [r8, -r1, lsl #30]!
    19f0:	06022e69 	streq	r2, [r2], -r9, ror #28
    19f4:	2b010100 	blcs	41dfc <__bss_end__+0x37dcc>
    19f8:	02000001 	andeq	r0, r0, #1
    19fc:	0000f800 	andeq	pc, r0, r0, lsl #16
    1a00:	fb010200 	blx	4220a <__bss_end__+0x381da>
    1a04:	01000d0e 	tsteq	r0, lr, lsl #26
    1a08:	00010101 	andeq	r0, r1, r1, lsl #2
    1a0c:	00010000 	andeq	r0, r1, r0
    1a10:	752f0100 	strvc	r0, [pc, #-256]!	; 1918 <_start-0x66e8>
    1a14:	692f7273 	stmdbvs	pc!, {r0, r1, r4, r5, r6, r9, ip, sp, lr}	; <UNPREDICTABLE>
    1a18:	756c636e 	strbvc	r6, [ip, #-878]!	; 0xfffffc92
    1a1c:	6e2f6564 	cfsh64vs	mvdx6, mvdx15, #52
    1a20:	696c7765 	stmdbvs	ip!, {r0, r2, r5, r6, r8, r9, sl, ip, sp, lr}^
    1a24:	79732f62 	ldmdbvc	r3!, {r1, r5, r6, r8, r9, sl, fp, sp}^
    1a28:	752f0073 	strvc	r0, [pc, #-115]!	; 19bd <_start-0x6643>
    1a2c:	6c2f7273 	sfmvs	f7, 4, [pc], #-460	; 1868 <_start-0x6798>
    1a30:	672f6269 	strvs	r6, [pc, -r9, ror #4]!
    1a34:	612f6363 			; <UNDEFINED> instruction: 0x612f6363
    1a38:	6e2d6d72 	mcrvs	13, 1, r6, cr13, cr2, {3}
    1a3c:	2d656e6f 	stclcs	14, cr6, [r5, #-444]!	; 0xfffffe44
    1a40:	69626165 	stmdbvs	r2!, {r0, r2, r5, r6, r8, sp, lr}^
    1a44:	332e362f 			; <UNDEFINED> instruction: 0x332e362f
    1a48:	692f312e 	stmdbvs	pc!, {r1, r2, r3, r5, r8, ip, sp}	; <UNPREDICTABLE>
    1a4c:	756c636e 	strbvc	r6, [ip, #-878]!	; 0xfffffc92
    1a50:	2f006564 	svccs	0x00006564
    1a54:	656d6f68 	strbvs	r6, [sp, #-3944]!	; 0xfffff098
    1a58:	676e652f 	strbvs	r6, [lr, -pc, lsr #10]!
    1a5c:	2f72656c 	svccs	0x0072656c
    1a60:	73616c63 	cmnvc	r1, #25344	; 0x6300
    1a64:	73632f73 	cmnvc	r3, #460	; 0x1cc
    1a68:	6c303432 	cfldrsvs	mvf3, [r0], #-200	; 0xffffff38
    1a6c:	30322d78 	eorscc	r2, r2, r8, ror sp
    1a70:	2f727073 	svccs	0x00727073
    1a74:	62696c2f 	rsbvs	r6, r9, #12032	; 0x2f00
    1a78:	2f006970 	svccs	0x00006970
    1a7c:	656d6f68 	strbvs	r6, [sp, #-3944]!	; 0xfffff098
    1a80:	676e652f 	strbvs	r6, [lr, -pc, lsr #10]!
    1a84:	2f72656c 	svccs	0x0072656c
    1a88:	73616c63 	cmnvc	r1, #25344	; 0x6300
    1a8c:	73632f73 	cmnvc	r3, #460	; 0x1cc
    1a90:	6c303432 	cfldrsvs	mvf3, [r0], #-200	; 0xffffff38
    1a94:	30322d78 	eorscc	r2, r2, r8, ror sp
    1a98:	2f727073 	svccs	0x00727073
    1a9c:	62696c2f 	rsbvs	r6, r9, #12032	; 0x2f00
    1aa0:	732f6970 			; <UNDEFINED> instruction: 0x732f6970
    1aa4:	66666174 			; <UNDEFINED> instruction: 0x66666174
    1aa8:	6372732d 	cmnvs	r2, #-1275068416	; 0xb4000000
    1aac:	70670000 	rsbvc	r0, r7, r0
    1ab0:	632e6f69 			; <UNDEFINED> instruction: 0x632e6f69
    1ab4:	00000000 	andeq	r0, r0, r0
    1ab8:	6b636f6c 	blvs	18dd870 <__bss_end__+0x18d3840>
    1abc:	0100682e 	tsteq	r0, lr, lsr #16
    1ac0:	745f0000 	ldrbvc	r0, [pc], #-0	; 1ac8 <_start-0x6538>
    1ac4:	73657079 	cmnvc	r5, #121	; 0x79
    1ac8:	0100682e 	tsteq	r0, lr, lsr #16
    1acc:	74730000 	ldrbtvc	r0, [r3], #-0
    1ad0:	66656464 	strbtvs	r6, [r5], -r4, ror #8
    1ad4:	0200682e 	andeq	r6, r0, #3014656	; 0x2e0000
    1ad8:	65720000 	ldrbvs	r0, [r2, #-0]!
    1adc:	2e746e65 	cdpcs	14, 7, cr6, cr4, cr5, {3}
    1ae0:	00010068 	andeq	r0, r1, r8, rrx
    1ae4:	69707200 	ldmdbvs	r0!, {r9, ip, sp, lr}^
    1ae8:	0300682e 	movweq	r6, #2094	; 0x82e
    1aec:	70670000 	rsbvc	r0, r7, r0
    1af0:	682e6f69 	stmdavs	lr!, {r0, r3, r5, r6, r8, r9, sl, fp, sp, lr}
    1af4:	00000400 	andeq	r0, r0, r0, lsl #8
    1af8:	02050000 	andeq	r0, r5, #0
    1afc:	0000937c 	andeq	r9, r0, ip, ror r3
    1b00:	13012703 	movwne	r2, #5891	; 0x1703
    1b04:	f44f474c 	vst1.16	{d20}, [pc], ip
    1b08:	a14c4b68 	cmpge	ip, r8, ror #22
    1b0c:	49136a2f 	ldmdbmi	r3, {r0, r1, r2, r3, r5, r9, fp, sp, lr}
    1b10:	4913be31 	ldmdbmi	r3, {r0, r4, r5, r9, sl, fp, ip, sp, pc}
    1b14:	6a2fbe31 	bvs	bf13e0 <__bss_end__+0xbe73b0>
    1b18:	4f484d2f 	svcmi	0x00484d2f
    1b1c:	2f324913 	svccs	0x00324913
    1b20:	000602b7 			; <UNDEFINED> instruction: 0x000602b7
    1b24:	01340101 	teqeq	r4, r1, lsl #2
    1b28:	00020000 	andeq	r0, r2, r0
    1b2c:	000000df 	ldrdeq	r0, [r0], -pc	; <UNPREDICTABLE>
    1b30:	0efb0102 	cdpeq	1, 15, cr0, cr11, cr2, {0}
    1b34:	0101000d 	tsteq	r1, sp
    1b38:	00000101 	andeq	r0, r0, r1, lsl #2
    1b3c:	00000100 	andeq	r0, r0, r0, lsl #2
    1b40:	73752f01 	cmnvc	r5, #1, 30
    1b44:	6e692f72 	mcrvs	15, 3, r2, cr9, cr2, {3}
    1b48:	64756c63 	ldrbtvs	r6, [r5], #-3171	; 0xfffff39d
    1b4c:	656e2f65 	strbvs	r2, [lr, #-3941]!	; 0xfffff09b
    1b50:	62696c77 	rsbvs	r6, r9, #30464	; 0x7700
    1b54:	7379732f 	cmnvc	r9, #-1140850688	; 0xbc000000
    1b58:	73752f00 	cmnvc	r5, #0, 30
    1b5c:	696c2f72 	stmdbvs	ip!, {r1, r4, r5, r6, r8, r9, sl, fp, sp}^
    1b60:	63672f62 	cmnvs	r7, #392	; 0x188
    1b64:	72612f63 	rsbvc	r2, r1, #396	; 0x18c
    1b68:	6f6e2d6d 	svcvs	0x006e2d6d
    1b6c:	652d656e 	strvs	r6, [sp, #-1390]!	; 0xfffffa92
    1b70:	2f696261 	svccs	0x00696261
    1b74:	2e332e36 	mrccs	14, 1, r2, cr3, cr6, {1}
    1b78:	6e692f31 	mcrvs	15, 3, r2, cr9, cr1, {1}
    1b7c:	64756c63 	ldrbtvs	r6, [r5], #-3171	; 0xfffff39d
    1b80:	682f0065 	stmdavs	pc!, {r0, r2, r5, r6}	; <UNPREDICTABLE>
    1b84:	2f656d6f 	svccs	0x00656d6f
    1b88:	6c676e65 	stclvs	14, cr6, [r7], #-404	; 0xfffffe6c
    1b8c:	632f7265 			; <UNDEFINED> instruction: 0x632f7265
    1b90:	7373616c 	cmnvc	r3, #108, 2
    1b94:	3273632f 	rsbscc	r6, r3, #-1140850688	; 0xbc000000
    1b98:	786c3034 	stmdavc	ip!, {r2, r4, r5, ip, sp}^
    1b9c:	7330322d 	teqvc	r0, #-805306366	; 0xd0000002
    1ba0:	2f2f7270 	svccs	0x002f7270
    1ba4:	7062696c 	rsbvc	r6, r2, ip, ror #18
    1ba8:	752f0069 	strvc	r0, [pc, #-105]!	; 1b47 <_start-0x64b9>
    1bac:	692f7273 	stmdbvs	pc!, {r0, r1, r4, r5, r6, r9, ip, sp, lr}	; <UNPREDICTABLE>
    1bb0:	756c636e 	strbvc	r6, [ip, #-878]!	; 0xfffffc92
    1bb4:	6e2f6564 	cfsh64vs	mvdx6, mvdx15, #52
    1bb8:	696c7765 	stmdbvs	ip!, {r0, r2, r5, r6, r8, r9, sl, ip, sp, lr}^
    1bbc:	6b000062 	blvs	1d4c <_start-0x62b4>
    1bc0:	6c6c616d 	stfvse	f6, [ip], #-436	; 0xfffffe4c
    1bc4:	632e636f 			; <UNDEFINED> instruction: 0x632e636f
    1bc8:	00000000 	andeq	r0, r0, r0
    1bcc:	6b636f6c 	blvs	18dd984 <__bss_end__+0x18d3954>
    1bd0:	0100682e 	tsteq	r0, lr, lsr #16
    1bd4:	745f0000 	ldrbvc	r0, [pc], #-0	; 1bdc <_start-0x6424>
    1bd8:	73657079 	cmnvc	r5, #121	; 0x79
    1bdc:	0100682e 	tsteq	r0, lr, lsr #16
    1be0:	74730000 	ldrbtvc	r0, [r3], #-0
    1be4:	66656464 	strbtvs	r6, [r5], -r4, ror #8
    1be8:	0200682e 	andeq	r6, r0, #3014656	; 0x2e0000
    1bec:	65720000 	ldrbvs	r0, [r2, #-0]!
    1bf0:	2e746e65 	cdpcs	14, 7, cr6, cr4, cr5, {3}
    1bf4:	00010068 	andeq	r0, r1, r8, rrx
    1bf8:	69707200 	ldmdbvs	r0!, {r9, ip, sp, lr}^
    1bfc:	0300682e 	movweq	r6, #2094	; 0x82e
    1c00:	74730000 	ldrbtvc	r0, [r3], #-0
    1c04:	676e6972 			; <UNDEFINED> instruction: 0x676e6972
    1c08:	0400682e 	streq	r6, [r0], #-2094	; 0xfffff7d2
    1c0c:	00000000 	andeq	r0, r0, r0
    1c10:	949c0205 	ldrls	r0, [ip], #517	; 0x205
    1c14:	10030000 	andne	r0, r3, r0
    1c18:	01830101 	orreq	r0, r3, r1, lsl #2
    1c1c:	00831468 	addeq	r1, r3, r8, ror #8
    1c20:	7f010402 	svcvc	0x00010402
    1c24:	01040200 	mrseq	r0, R12_usr
    1c28:	2f5c0830 	svccs	0x005c0830
    1c2c:	4b4b4c4b 	blmi	12d4d60 <__bss_end__+0x12cad30>
    1c30:	04020068 	streq	r0, [r2], #-104	; 0xffffff98
    1c34:	4a790301 	bmi	1e42840 <__bss_end__+0x1e38810>
    1c38:	58080903 	stmdapl	r8, {r0, r1, r8, fp}
    1c3c:	4e2e012f 	sufmiep	f0, f6, #10.0
    1c40:	674b6a2f 	strbvs	r6, [fp, -pc, lsr #20]
    1c44:	002f4c67 	eoreq	r4, pc, r7, ror #24
    1c48:	03010402 	movweq	r0, #5122	; 0x1402
    1c4c:	02002e76 	andeq	r2, r0, #1888	; 0x760
    1c50:	08dc0104 	ldmeq	ip, {r2, r8}^
    1c54:	9f012f7a 	svcls	0x00012f7a
    1c58:	00080201 	andeq	r0, r8, r1, lsl #4
    1c5c:	Address 0x0000000000001c5c is out of bounds.


Disassembly of section .debug_str:

00000000 <.debug_str>:
   0:	6f73645f 	svcvs	0x0073645f
   4:	6e61685f 	mcrvs	8, 3, r6, cr1, cr15, {2}
   8:	00656c64 	rsbeq	r6, r5, r4, ror #24
   c:	685f6b63 	ldmdavs	pc, {r0, r1, r5, r6, r8, r9, fp, sp, lr}^	; <UNPREDICTABLE>
  10:	5f706165 	svcpl	0x00706165
  14:	6f727265 	svcvs	0x00727265
  18:	5f007372 	svcpl	0x00007372
  1c:	657a6973 	ldrbvs	r6, [sl, #-2419]!	; 0xfffff68d
  20:	61725f00 	cmnvs	r2, r0, lsl #30
  24:	3834646e 	ldmdacc	r4!, {r1, r2, r3, r5, r6, sl, sp, lr}
  28:	6d655f00 	stclvs	15, cr5, [r5, #-0]
  2c:	65677265 	strbvs	r7, [r7, #-613]!	; 0xfffffd9b
  30:	0079636e 	rsbseq	r6, r9, lr, ror #6
  34:	6d746f6e 	ldclvs	15, cr6, [r4, #-440]!	; 0xfffffe48
  38:	006e6961 	rsbeq	r6, lr, r1, ror #18
  3c:	7263775f 	rsbvc	r7, r3, #24903680	; 0x17c0000
  40:	626d6f74 	rsbvs	r6, sp, #116, 30	; 0x1d0
  44:	6174735f 	cmnvs	r4, pc, asr r3
  48:	5f006574 	svcpl	0x00006574
  4c:	72736377 	rsbsvc	r6, r3, #-603979775	; 0xdc000001
  50:	626d6f74 	rsbvs	r6, sp, #116, 30	; 0x1d0
  54:	74735f73 	ldrbtvc	r5, [r3], #-3955	; 0xfffff08d
  58:	00657461 	rsbeq	r7, r5, r1, ror #8
  5c:	676e6f6c 	strbvs	r6, [lr, -ip, ror #30]!
  60:	6e6f6c20 	cdpvs	12, 6, cr6, cr15, cr0, {1}
  64:	6e752067 	cdpvs	0, 7, cr2, cr5, cr7, {3}
  68:	6e676973 			; <UNDEFINED> instruction: 0x6e676973
  6c:	69206465 	stmdbvs	r0!, {r0, r2, r5, r6, sl, sp, lr}
  70:	6300746e 	movwvs	r7, #1134	; 0x46e
  74:	6c6c616b 	stfvse	f6, [ip], #-428	; 0xfffffe54
  78:	5f00636f 	svcpl	0x0000636f
  7c:	7366626c 	cmnvc	r6, #108, 4	; 0xc0000006
  80:	00657a69 	rsbeq	r7, r5, r9, ror #20
  84:	6f6c5f5f 	svcvs	0x006c5f5f
  88:	656c6163 	strbvs	r6, [ip, #-355]!	; 0xfffffe9d
  8c:	5f00745f 	svcpl	0x0000745f
  90:	7472626d 	ldrbtvc	r6, [r2], #-621	; 0xfffffd93
  94:	5f63776f 	svcpl	0x0063776f
  98:	74617473 	strbtvc	r7, [r1], #-1139	; 0xfffffb8d
  9c:	5f5f0065 	svcpl	0x005f0065
  a0:	735f6d74 	cmpvc	pc, #116, 26	; 0x1d00
  a4:	6c006365 	stcvs	3, cr6, [r0], {101}	; 0x65
  a8:	20676e6f 	rsbcs	r6, r7, pc, ror #28
  ac:	676e6f6c 	strbvs	r6, [lr, -ip, ror #30]!
  b0:	746e6920 	strbtvc	r6, [lr], #-2336	; 0xfffff6e0
  b4:	62755f00 	rsbsvs	r5, r5, #0, 30
  b8:	5f006675 	svcpl	0x00006675
  bc:	65736162 	ldrbvs	r6, [r3, #-354]!	; 0xfffffe9e
  c0:	745f5f00 	ldrbvc	r5, [pc], #-3840	; c8 <_start-0x7f38>
  c4:	6f685f6d 	svcvs	0x00685f6d
  c8:	2f007275 	svccs	0x00007275
  cc:	656d6f68 	strbvs	r6, [sp, #-3944]!	; 0xfffff098
  d0:	6573752f 	ldrbvs	r7, [r3, #-1327]!	; 0xfffffad1
  d4:	65442f72 	strbvs	r2, [r4, #-3954]	; 0xfffff08e
  d8:	53432f76 	movtpl	r2, #16246	; 0x3f76
  dc:	58303432 	ldmdapl	r0!, {r1, r4, r5, sl, ip, sp}
  e0:	62616c2f 	rsbvs	r6, r1, #12032	; 0x2f00
  e4:	30312f73 	eorscc	r2, r1, r3, ror pc
  e8:	6d656d2d 	stclvs	13, cr6, [r5, #-180]!	; 0xffffff4c
  ec:	63656863 	cmnvs	r5, #6488064	; 0x630000
  f0:	74732d6b 	ldrbtvc	r2, [r3], #-3435	; 0xfffff295
  f4:	632f7461 			; <UNDEFINED> instruction: 0x632f7461
  f8:	0065646f 	rsbeq	r6, r5, pc, ror #8
  fc:	66735f5f 	uhsaxvs	r5, r3, pc	; <UNPREDICTABLE>
 100:	6e6f5f00 	cdpvs	15, 6, cr5, cr15, cr0, {0}
 104:	6978655f 	ldmdbvs	r8!, {r0, r1, r2, r3, r4, r6, r8, sl, sp, lr}^
 108:	72615f74 	rsbvc	r5, r1, #116, 30	; 0x1d0
 10c:	5f007367 	svcpl	0x00007367
 110:	6b6f6f63 	blvs	1bdbea4 <__bss_end__+0x1bd1e74>
 114:	5f006569 	svcpl	0x00006569
 118:	6c67735f 	stclvs	3, cr7, [r7], #-380	; 0xfffffe84
 11c:	5f006575 	svcpl	0x00006575
 120:	67616c66 	strbvs	r6, [r1, -r6, ror #24]!
 124:	695f0073 	ldmdbvs	pc, {r0, r1, r4, r5, r6}^	; <UNPREDICTABLE>
 128:	78635f73 	stmdavc	r3!, {r0, r1, r4, r5, r6, r8, r9, sl, fp, ip, lr}^
 12c:	735f0061 	cmpvc	pc, #97	; 0x61
 130:	6e696474 	mcrvs	4, 3, r6, cr9, cr4, {3}
 134:	5f6b6300 	svcpl	0x006b6300
 138:	74696e69 	strbtvc	r6, [r9], #-3689	; 0xfffff197
 13c:	6c625f00 	stclvs	15, cr5, [r2], #-0
 140:	7a69736b 	bvc	1a5cef4 <__bss_end__+0x1a52ec4>
 144:	635f0065 	cmpvs	pc, #101	; 0x65
 148:	75627476 	strbvc	r7, [r2, #-1142]!	; 0xfffffb8a
 14c:	6f5f0066 	svcvs	0x005f0066
 150:	65736666 	ldrbvs	r6, [r3, #-1638]!	; 0xfffff99a
 154:	6d6b0074 	stclvs	0, cr0, [fp, #-464]!	; 0xfffffe30
 158:	6f6c6c61 	svcvs	0x006c6c61
 15c:	6e695f63 	cdpvs	15, 6, cr5, cr9, cr3, {3}
 160:	735f7469 	cmpvc	pc, #1761607680	; 0x69000000
 164:	735f7465 	cmpvc	pc, #1694498816	; 0x65000000
 168:	74726174 	ldrbtvc	r6, [r2], #-372	; 0xfffffe8c
 16c:	626d5f00 	rsbvs	r5, sp, #0, 30
 170:	6f747273 	svcvs	0x00747273
 174:	5f736377 	svcpl	0x00736377
 178:	74617473 	strbtvc	r7, [r1], #-1139	; 0xfffffb8d
 17c:	6d5f0065 	ldclvs	0, cr0, [pc, #-404]	; fffffff0 <__bss_end__+0xffff5fc0>
 180:	656c7262 	strbvs	r7, [ip, #-610]!	; 0xfffffd9e
 184:	74735f6e 	ldrbtvc	r5, [r3], #-3950	; 0xfffff092
 188:	00657461 	rsbeq	r7, r5, r1, ror #8
 18c:	616e665f 	cmnvs	lr, pc, asr r6
 190:	00736772 	rsbseq	r6, r3, r2, ror r7
 194:	736e665f 	cmnvc	lr, #99614720	; 0x5f00000
 198:	69735f00 	ldmdbvs	r3!, {r8, r9, sl, fp, ip, lr}^
 19c:	5f006e67 	svcpl	0x00006e67
 1a0:	636f6c66 	cmnvs	pc, #26112	; 0x6600
 1a4:	00745f6b 	rsbseq	r5, r4, fp, ror #30
 1a8:	6474735f 	ldrbtvs	r7, [r4], #-863	; 0xfffffca1
 1ac:	00727265 	rsbseq	r7, r2, r5, ror #4
 1b0:	6769425f 			; <UNDEFINED> instruction: 0x6769425f
 1b4:	00746e69 	rsbseq	r6, r4, r9, ror #28
 1b8:	6d61675f 	stclvs	7, cr6, [r1, #-380]!	; 0xfffffe84
 1bc:	735f616d 	cmpvc	pc, #1073741851	; 0x4000001b
 1c0:	676e6769 	strbvs	r6, [lr, -r9, ror #14]!
 1c4:	5f006d61 	svcpl	0x00006d61
 1c8:	75736572 	ldrbvc	r6, [r3, #-1394]!	; 0xfffffa8e
 1cc:	6b5f746c 	blvs	17dd384 <__bss_end__+0x17d3354>
 1d0:	69707200 	ldmdbvs	r0!, {r9, ip, sp, lr}^
 1d4:	7475705f 	ldrbtvc	r7, [r5], #-95	; 0xffffffa1
 1d8:	72616863 	rsbvc	r6, r1, #6488064	; 0x630000
 1dc:	745f5f00 	ldrbvc	r5, [pc], #-3840	; 1e4 <_start-0x7e1c>
 1e0:	5f5f006d 	svcpl	0x005f006d
 1e4:	62686377 	rsbvs	r6, r8, #-603979775	; 0xdc000001
 1e8:	69707200 	ldmdbvs	r0!, {r9, ip, sp, lr}^
 1ec:	7365725f 	cmnvc	r5, #-268435451	; 0xf0000005
 1f0:	705f7465 	subsvc	r7, pc, r5, ror #8
 1f4:	00637475 	rsbeq	r7, r3, r5, ror r4
 1f8:	6474735f 	ldrbtvs	r7, [r4], #-863	; 0xfffffca1
 1fc:	0074756f 	rsbseq	r7, r4, pc, ror #10
 200:	7476635f 	ldrbtvc	r6, [r6], #-863	; 0xfffffca1
 204:	006e656c 	rsbeq	r6, lr, ip, ror #10
 208:	6c69665f 	stclvs	6, cr6, [r9], #-380	; 0xfffffe84
 20c:	5f5f0065 	svcpl	0x005f0065
 210:	434e5546 	movtmi	r5, #58694	; 0xe546
 214:	4e4f4954 			; <UNDEFINED> instruction: 0x4e4f4954
 218:	5f005f5f 	svcpl	0x00005f5f
 21c:	626f696e 	rsbvs	r6, pc, #1802240	; 0x1b8000
 220:	68730073 	ldmdavs	r3!, {r0, r1, r4, r5, r6}^
 224:	2074726f 	rsbscs	r7, r4, pc, ror #4
 228:	69736e75 	ldmdbvs	r3!, {r0, r2, r4, r5, r6, r9, sl, fp, sp, lr}^
 22c:	64656e67 	strbtvs	r6, [r5], #-3687	; 0xfffff199
 230:	746e6920 	strbtvc	r6, [lr], #-2336	; 0xfffff6e0
 234:	74615f00 	strbtvc	r5, [r1], #-3840	; 0xfffff100
 238:	74697865 	strbtvc	r7, [r9], #-2149	; 0xfffff79b
 23c:	735f0030 	cmpvc	pc, #48	; 0x30
 240:	616e6769 	cmnvs	lr, r9, ror #14
 244:	75625f6c 	strbvc	r5, [r2, #-3948]!	; 0xfffff094
 248:	615f0066 	cmpvs	pc, r6, rrx
 24c:	69746373 	ldmdbvs	r4!, {r0, r1, r4, r5, r6, r8, r9, sp, lr}^
 250:	625f656d 	subsvs	r6, pc, #457179136	; 0x1b400000
 254:	5f006675 	svcpl	0x00006675
 258:	75736572 	ldrbvc	r6, [r3, #-1394]!	; 0xfffffa8e
 25c:	5f00746c 	svcpl	0x0000746c
 260:	6863775f 	stmdavs	r3!, {r0, r1, r2, r3, r4, r6, r8, r9, sl, ip, sp, lr}^
 264:	4f4c5f00 	svcmi	0x004c5f00
 268:	545f4b43 	ldrbpl	r4, [pc], #-2883	; 270 <_start-0x7d90>
 26c:	6e697700 	cdpvs	7, 6, cr7, cr9, cr0, {0}
 270:	00745f74 	rsbseq	r5, r4, r4, ror pc
 274:	72666b63 	rsbvc	r6, r6, #101376	; 0x18c00
 278:	5f006565 	svcpl	0x00006565
 27c:	67616c66 	strbvs	r6, [r1, -r6, ror #24]!
 280:	5f003273 	svcpl	0x00003273
 284:	5f6d745f 	svcpl	0x006d745f
 288:	72616579 	rsbvc	r6, r1, #507510784	; 0x1e400000
 28c:	656c6300 	strbvs	r6, [ip, #-768]!	; 0xfffffd00
 290:	725f6e61 	subsvc	r6, pc, #1552	; 0x610
 294:	6f6f6265 	svcvs	0x006f6265
 298:	6e5f0074 	mrcvs	0, 2, r0, cr15, cr4, {3}
 29c:	66747865 	ldrbtvs	r7, [r4], -r5, ror #16
 2a0:	745f5f00 	ldrbvc	r5, [pc], #-3840	; 2a8 <_start-0x7d58>
 2a4:	6f6d5f6d 	svcvs	0x006d5f6d
 2a8:	615f006e 	cmpvs	pc, lr, rrx
 2ac:	69786574 	ldmdbvs	r8!, {r2, r4, r5, r6, r8, sl, sp, lr}^
 2b0:	5f5f0074 	svcpl	0x005f0074
 2b4:	64696473 	strbtvs	r6, [r9], #-1139	; 0xfffffb8d
 2b8:	74696e69 	strbtvc	r6, [r9], #-3689	; 0xfffff197
 2bc:	666f5f00 	strbtvs	r5, [pc], -r0, lsl #30
 2c0:	00745f66 	rsbseq	r5, r4, r6, ror #30
 2c4:	6572665f 	ldrbvs	r6, [r2, #-1631]!	; 0xfffff9a1
 2c8:	73696c65 	cmnvc	r9, #25856	; 0x6500
 2cc:	775f0074 			; <UNDEFINED> instruction: 0x775f0074
 2d0:	6d6f7463 	cfstrdvs	mvd7, [pc, #-396]!	; 14c <_start-0x7eb4>
 2d4:	74735f62 	ldrbtvc	r5, [r3], #-3938	; 0xfffff09e
 2d8:	00657461 	rsbeq	r7, r5, r1, ror #8
 2dc:	69736e75 	ldmdbvs	r3!, {r0, r2, r4, r5, r6, r9, sl, fp, sp, lr}^
 2e0:	64656e67 	strbtvs	r6, [r5], #-3687	; 0xfffff199
 2e4:	61686320 	cmnvs	r8, r0, lsr #6
 2e8:	6e5f0072 	mrcvs	0, 2, r0, cr15, cr2, {3}
 2ec:	47007765 	strmi	r7, [r0, -r5, ror #14]
 2f0:	4320554e 			; <UNDEFINED> instruction: 0x4320554e
 2f4:	39203939 	stmdbcc	r0!, {r0, r3, r4, r5, r8, fp, ip, sp}
 2f8:	302e322e 	eorcc	r3, lr, lr, lsr #4
 2fc:	636d2d20 	cmnvs	sp, #32, 26	; 0x800
 300:	613d7570 	teqvs	sp, r0, ror r5
 304:	31316d72 	teqcc	r1, r2, ror sp
 308:	7a6a3637 	bvc	1a8dbec <__bss_end__+0x1a83bbc>
 30c:	20732d66 	rsbscs	r2, r3, r6, ror #26
 310:	75746d2d 	ldrbvc	r6, [r4, #-3373]!	; 0xfffff2d3
 314:	613d656e 	teqvs	sp, lr, ror #10
 318:	31316d72 	teqcc	r1, r2, ror sp
 31c:	7a6a3637 	bvc	1a8dc00 <__bss_end__+0x1a83bd0>
 320:	20732d66 	rsbscs	r2, r3, r6, ror #26
 324:	6c666d2d 	stclvs	13, cr6, [r6], #-180	; 0xffffff4c
 328:	2d74616f 	ldfcse	f6, [r4, #-444]!	; 0xfffffe44
 32c:	3d696261 	sfmcc	f6, 2, [r9, #-388]!	; 0xfffffe7c
 330:	74666f73 	strbtvc	r6, [r6], #-3955	; 0xfffff08d
 334:	616d2d20 	cmnvs	sp, r0, lsr #26
 338:	2d206d72 	stccs	13, cr6, [r0, #-456]!	; 0xfffffe38
 33c:	6372616d 	cmnvs	r2, #1073741851	; 0x4000001b
 340:	72613d68 	rsbvc	r3, r1, #104, 26	; 0x1a00
 344:	6b36766d 	blvs	d9dd00 <__bss_end__+0xd93cd0>
 348:	672d207a 			; <UNDEFINED> instruction: 0x672d207a
 34c:	20626467 	rsbcs	r6, r2, r7, ror #8
 350:	20674f2d 	rsbcs	r4, r7, sp, lsr #30
 354:	6474732d 	ldrbtvs	r7, [r4], #-813	; 0xfffffcd3
 358:	756e673d 	strbvc	r6, [lr, #-1853]!	; 0xfffff8c3
 35c:	2d203939 			; <UNDEFINED> instruction: 0x2d203939
 360:	65726666 	ldrbvs	r6, [r2, #-1638]!	; 0xfffff99a
 364:	61747365 	cmnvs	r4, r5, ror #6
 368:	6e69646e 	cdpvs	4, 6, cr6, cr9, cr14, {3}
 36c:	685f0067 	ldmdavs	pc, {r0, r1, r2, r5, r6}^	; <UNPREDICTABLE>
 370:	7272655f 	rsbsvc	r6, r2, #398458880	; 0x17c00000
 374:	73006f6e 	movwvc	r6, #3950	; 0xf6e
 378:	74726f68 	ldrbtvc	r6, [r2], #-3944	; 0xfffff098
 37c:	746e6920 	strbtvc	r6, [lr], #-2336	; 0xfffff6e0
 380:	745f5f00 	ldrbvc	r5, [pc], #-3840	; 388 <_start-0x7c78>
 384:	64795f6d 	ldrbtvs	r5, [r9], #-3949	; 0xfffff093
 388:	5f007961 	svcpl	0x00007961
 38c:	7562735f 	strbvc	r7, [r2, #-863]!	; 0xfffffca1
 390:	695f0066 	ldmdbvs	pc, {r1, r2, r5, r6}^	; <UNPREDICTABLE>
 394:	0073626f 	rsbseq	r6, r3, pc, ror #4
 398:	49465f5f 	stmdbmi	r6, {r0, r1, r2, r3, r4, r6, r8, r9, sl, fp, ip, lr}^
 39c:	5f00454c 	svcpl	0x0000454c
 3a0:	7473626d 	ldrbtvc	r6, [r3], #-621	; 0xfffffd93
 3a4:	5f657461 	svcpl	0x00657461
 3a8:	5f5f0074 	svcpl	0x005f0074
 3ac:	4c494673 	mcrrmi	6, 7, r4, r9, cr3
 3b0:	6d5f0045 	ldclvs	0, cr0, [pc, #-276]	; 2a4 <_start-0x7d5c>
 3b4:	61747362 	cmnvs	r4, r2, ror #6
 3b8:	5f006574 	svcpl	0x00006574
 3bc:	646e6172 	strbtvs	r6, [lr], #-370	; 0xfffffe8e
 3c0:	78656e5f 	stmdavc	r5!, {r0, r1, r2, r3, r4, r6, r9, sl, fp, sp, lr}^
 3c4:	6d5f0074 	ldclvs	0, cr0, [pc, #-464]	; 1fc <_start-0x7e04>
 3c8:	6e656c62 	cdpvs	12, 6, cr6, cr5, cr2, {3}
 3cc:	6174735f 	cmnvs	r4, pc, asr r3
 3d0:	5f006574 	svcpl	0x00006574
 3d4:	00636e69 	rsbeq	r6, r3, r9, ror #28
 3d8:	646e695f 	strbtvs	r6, [lr], #-2399	; 0xfffff6a1
 3dc:	635f5f00 	cmpvs	pc, #0, 30
 3e0:	6e61656c 	cdpvs	5, 6, cr6, cr1, cr12, {3}
 3e4:	5f007075 	svcpl	0x00007075
 3e8:	70736e75 	rsbsvc	r6, r3, r5, ror lr
 3ec:	66696365 	strbtvs	r6, [r9], -r5, ror #6
 3f0:	5f646569 	svcpl	0x00646569
 3f4:	61636f6c 	cmnvs	r3, ip, ror #30
 3f8:	695f656c 	ldmdbvs	pc, {r2, r3, r5, r6, r8, sl, sp, lr}^	; <UNPREDICTABLE>
 3fc:	006f666e 	rsbeq	r6, pc, lr, ror #12
 400:	78616d5f 	stmdavc	r1!, {r0, r1, r2, r3, r4, r6, r8, sl, fp, sp, lr}^
 404:	00736477 	rsbseq	r6, r3, r7, ror r4
 408:	6565725f 	strbvs	r7, [r5, #-607]!	; 0xfffffda1
 40c:	5f00746e 	svcpl	0x0000746e
 410:	64656573 	strbtvs	r6, [r5], #-1395	; 0xfffffa8d
 414:	635f5f00 	cmpvs	pc, #0, 30
 418:	746e756f 	strbtvc	r7, [lr], #-1391	; 0xfffffa91
 41c:	6c5f5f00 	mrrcvs	15, 0, r5, pc, cr0	; <UNPREDICTABLE>
 420:	006b636f 	rsbeq	r6, fp, pc, ror #6
 424:	61765f5f 	cmnvs	r6, pc, asr pc
 428:	0065756c 	rsbeq	r7, r5, ip, ror #10
 42c:	6565735f 	strbvs	r7, [r5, #-863]!	; 0xfffffca1
 430:	665f006b 	ldrbvs	r0, [pc], -fp, rrx
 434:	5f736f70 	svcpl	0x00736f70
 438:	5f5f0074 	svcpl	0x005f0074
 43c:	6d5f6d74 	ldclvs	13, cr6, [pc, #-464]	; 274 <_start-0x7d8c>
 440:	5f006e69 	svcpl	0x00006e69
 444:	746c756d 	strbtvc	r7, [ip], #-1389	; 0xfffffa93
 448:	74735f00 	ldrbtvc	r5, [r3], #-3840	; 0xfffff100
 44c:	6b6f7472 	blvs	1bdd61c <__bss_end__+0x1bd35ec>
 450:	73616c5f 	cmnvc	r1, #24320	; 0x5f00
 454:	665f0074 			; <UNDEFINED> instruction: 0x665f0074
 458:	7079746e 	rsbsvc	r7, r9, lr, ror #8
 45c:	5f007365 	svcpl	0x00007365
 460:	00646461 	rsbeq	r6, r4, r1, ror #8
 464:	4c555f5f 	mrrcmi	15, 5, r5, r5, cr15	; <UNPREDICTABLE>
 468:	00676e6f 	rsbeq	r6, r7, pc, ror #28
 46c:	7465675f 	strbtvc	r6, [r5], #-1887	; 0xfffff8a1
 470:	65746164 	ldrbvs	r6, [r4, #-356]!	; 0xfffffe9c
 474:	7272655f 	rsbsvc	r6, r2, #398458880	; 0x17c00000
 478:	72617000 	rsbvc	r7, r1, #0
 47c:	742d3174 	strtvc	r3, [sp], #-372	; 0xfffffe8c
 480:	34747365 	ldrbtcc	r7, [r4], #-869	; 0xfffffc9b
 484:	5f00632e 	svcpl	0x0000632e
 488:	626f6c67 	rsbvs	r6, pc, #26368	; 0x6700
 48c:	695f6c61 	ldmdbvs	pc, {r0, r5, r6, sl, fp, sp, lr}^	; <UNPREDICTABLE>
 490:	7275706d 	rsbsvc	r7, r5, #109	; 0x6d
 494:	74705f65 	ldrbtvc	r5, [r0], #-3941	; 0xfffff09b
 498:	656d0072 	strbvs	r0, [sp, #-114]!	; 0xffffff8e
 49c:	7465736d 	strbtvc	r7, [r5], #-877	; 0xfffffc93
 4a0:	6e755f00 	cdpvs	15, 7, cr5, cr5, cr0, {0}
 4a4:	64657375 	strbtvs	r7, [r5], #-885	; 0xfffffc8b
 4a8:	6e61725f 	mcrvs	2, 3, r7, cr1, cr15, {2}
 4ac:	775f0064 	ldrbvc	r0, [pc, -r4, rrx]
 4b0:	5f007364 	svcpl	0x00007364
 4b4:	5f6d745f 	svcpl	0x006d745f
 4b8:	79616477 	stmdbvc	r1!, {r0, r1, r2, r4, r5, r6, sl, sp, lr}^
 4bc:	6c675f00 	stclvs	15, cr5, [r7], #-0
 4c0:	5f006575 	svcpl	0x00006575
 4c4:	6c616d6e 	stclvs	13, cr6, [r1], #-440	; 0xfffffe48
 4c8:	00636f6c 	rsbeq	r6, r3, ip, ror #30
 4cc:	34366c5f 	ldrtcc	r6, [r6], #-3167	; 0xfffff3a1
 4d0:	75625f61 	strbvc	r5, [r2, #-3937]!	; 0xfffff09f
 4d4:	735f0066 	cmpvc	pc, #102	; 0x66
 4d8:	665f6769 	ldrbvs	r6, [pc], -r9, ror #14
 4dc:	00636e75 	rsbeq	r6, r3, r5, ror lr
 4e0:	6c616d6b 	stclvs	13, cr6, [r1], #-428	; 0xfffffe54
 4e4:	00636f6c 	rsbeq	r6, r3, ip, ror #30
 4e8:	75626e5f 	strbvc	r6, [r2, #-3679]!	; 0xfffff1a1
 4ec:	755f0066 	ldrbvc	r0, [pc, #-102]	; 48e <_start-0x7b72>
 4f0:	6573756e 	ldrbvs	r7, [r3, #-1390]!	; 0xfffffa92
 4f4:	5f5f0064 	svcpl	0x005f0064
 4f8:	695f6d74 	ldmdbvs	pc, {r2, r4, r5, r6, r8, sl, fp, sp, lr}^	; <UNPREDICTABLE>
 4fc:	74736473 	ldrbtvc	r6, [r3], #-1139	; 0xfffffb8d
 500:	6f6c5f00 	svcvs	0x006c5f00
 504:	746c6163 	strbtvc	r6, [ip], #-355	; 0xfffffe9d
 508:	5f656d69 	svcpl	0x00656d69
 50c:	00667562 	rsbeq	r7, r6, r2, ror #10
 510:	6f6c635f 	svcvs	0x006c635f
 514:	5f006573 	svcpl	0x00006573
 518:	00383472 	eorseq	r3, r8, r2, ror r4
 51c:	74626d5f 	strbtvc	r6, [r2], #-3423	; 0xfffff2a1
 520:	5f63776f 	svcpl	0x0063776f
 524:	74617473 	strbtvc	r7, [r1], #-1139	; 0xfffffb8d
 528:	705f0065 	subsvc	r0, pc, r5, rrx
 52c:	5f007335 	svcpl	0x00007335
 530:	5f6d745f 	svcpl	0x006d745f
 534:	7961646d 	stmdbvc	r1!, {r0, r2, r3, r5, r6, sl, sp, lr}^
 538:	64617000 	strbtvs	r7, [r1], #-0
 53c:	676e6964 	strbvs	r6, [lr, -r4, ror #18]!
 540:	6e696c00 	cdpvs	12, 6, cr6, cr9, cr0, {0}
 544:	006f6e65 	rsbeq	r6, pc, r5, ror #28
 548:	76657270 			; <UNDEFINED> instruction: 0x76657270
 54c:	73616600 	cmnvc	r1, #0, 12
 550:	61685f74 	smcvs	34292	; 0x85f4
 554:	66006873 			; <UNDEFINED> instruction: 0x66006873
 558:	5f656572 	svcpl	0x00656572
 55c:	00636f6c 	rsbeq	r6, r3, ip, ror #30
 560:	7a725f62 	bvc	1c982f0 <__bss_end__+0x1c8e2c0>
 564:	74705f31 	ldrbtvc	r5, [r0], #-3889	; 0xfffff0cf
 568:	52460072 	subpl	r0, r6, #114	; 0x72
 56c:	00444545 	subeq	r4, r4, r5, asr #10
 570:	4f4c4c41 	svcmi	0x004c4c41
 574:	00444543 	subeq	r4, r4, r3, asr #10
 578:	73666572 	cmnvc	r6, #478150656	; 0x1c800000
 57c:	64696d5f 	strbtvs	r6, [r9], #-3423	; 0xfffff2a1
 580:	00656c64 	rsbeq	r6, r5, r4, ror #24
 584:	73666572 	cmnvc	r6, #478150656	; 0x1c800000
 588:	6174735f 	cmnvs	r4, pc, asr r3
 58c:	61007472 	tstvs	r0, r2, ror r4
 590:	636f6c6c 	cmnvs	pc, #108, 24	; 0x6c00
 594:	4f006465 	svcmi	0x00006465
 598:	48524556 	ldmdami	r2, {r1, r2, r4, r6, r8, sl, lr}^
 59c:	5f444145 	svcpl	0x00444145
 5a0:	5459424e 	ldrbpl	r4, [r9], #-590	; 0xfffffdb2
 5a4:	52005345 	andpl	r5, r0, #335544321	; 0x14000001
 5a8:	4f5a4445 	svcmi	0x005a4445
 5ac:	4100454e 	tstmi	r0, lr, asr #10
 5b0:	434f4c4c 	movtmi	r4, #64588	; 0xfc4c
 5b4:	46464f5f 			; <UNDEFINED> instruction: 0x46464f5f
 5b8:	00544553 	subseq	r4, r4, r3, asr r5
 5bc:	6b72616d 	blvs	1c98b78 <__bss_end__+0x1c8eb48>
 5c0:	6d656d5f 	stclvs	13, cr6, [r5, #-380]!	; 0xfffffe84
 5c4:	615f6200 	cmpvs	pc, r0, lsl #4
 5c8:	5f726464 	svcpl	0x00726464
 5cc:	685f6f74 	ldmdavs	pc, {r2, r4, r5, r6, r8, r9, sl, fp, sp, lr}^	; <UNPREDICTABLE>
 5d0:	63007264 	movwvs	r7, #612	; 0x264
 5d4:	6c6c616b 	stfvse	f6, [ip], #-428	; 0xfffffe54
 5d8:	632e636f 			; <UNDEFINED> instruction: 0x632e636f
 5dc:	66666f00 	strbtvs	r6, [r6], -r0, lsl #30
 5e0:	6c610073 	stclvs	0, cr0, [r1], #-460	; 0xfffffe34
 5e4:	5f636f6c 	svcpl	0x00636f6c
 5e8:	00636f6c 	rsbeq	r6, r3, ip, ror #30
 5ec:	5f726468 	svcpl	0x00726468
 5f0:	75736b63 	ldrbvc	r6, [r3, #-2915]!	; 0xfffff49d
 5f4:	626e006d 	rsbvs	r0, lr, #109	; 0x6d
 5f8:	73657479 	cmnvc	r5, #2030043136	; 0x79000000
 5fc:	6c6c615f 	stfvse	f6, [ip], #-380	; 0xfffffe84
 600:	6200636f 	andvs	r6, r0, #-1140850687	; 0xbc000001
 604:	6c6c615f 	stfvse	f6, [ip], #-380	; 0xfffffe84
 608:	705f636f 	subsvc	r6, pc, pc, ror #6
 60c:	63007274 	movwvs	r7, #628	; 0x274
 610:	6b636568 	blvs	18d9bb8 <__bss_end__+0x18cfb88>
 614:	6572665f 	ldrbvs	r6, [r2, #-1631]!	; 0xfffff9a1
 618:	72775f65 	rsbsvc	r5, r7, #404	; 0x194
 61c:	00657469 	rsbeq	r7, r5, r9, ror #8
 620:	63656863 	cmnvs	r5, #6488064	; 0x630000
 624:	64685f6b 	strbtvs	r5, [r8], #-3947	; 0xfffff095
 628:	5f620072 	svcpl	0x00620072
 62c:	5f327a72 	svcpl	0x00327a72
 630:	00727470 	rsbseq	r7, r2, r0, ror r4
 634:	6b6c626e 	blvs	1b18ff4 <__bss_end__+0x1b0efc4>
 638:	72730073 	rsbsvc	r0, r3, #115	; 0x73
 63c:	6f6c5f63 	svcvs	0x006c5f63
 640:	00745f63 	rsbseq	r5, r4, r3, ror #30
 644:	746e6975 	strbtvc	r6, [lr], #-2421	; 0xfffff68b
 648:	745f3233 	ldrbvc	r3, [pc], #-563	; 650 <_start-0x79b0>
 64c:	72656e00 	rsbvc	r6, r5, #0, 28
 650:	73726f72 	cmnvc	r2, #456	; 0x1c8
 654:	72646800 	rsbvc	r6, r4, #0, 16
 658:	6972705f 	ldmdbvs	r2!, {r0, r1, r2, r3, r4, r6, ip, sp, lr}^
 65c:	6800746e 	stmdavs	r0, {r1, r2, r3, r5, r6, sl, ip, sp, lr}
 660:	00706165 	rsbseq	r6, r0, r5, ror #2
 664:	544e4553 	strbpl	r4, [lr], #-1363	; 0xfffffaad
 668:	4c414e49 	mcrrmi	14, 4, r4, r1, cr9
 66c:	65686300 	strbvs	r6, [r8, #-768]!	; 0xfffffd00
 670:	625f6b63 	subsvs	r6, pc, #101376	; 0x18c00
 674:	6b636f6c 	blvs	18dc42c <__bss_end__+0x18d23fc>
 678:	725f6200 	subsvc	r6, pc, #0, 4
 67c:	6e5f327a 	mrcvs	2, 2, r3, cr15, cr10, {3}
 680:	65747962 	ldrbvs	r7, [r4, #-2402]!	; 0xfffff69e
 684:	69750073 	ldmdbvs	r5!, {r0, r1, r4, r5, r6}^
 688:	5f38746e 	svcpl	0x0038746e
 68c:	64680074 	strbtvs	r0, [r8], #-116	; 0xffffff8c
 690:	00745f72 	rsbseq	r5, r4, r2, ror pc
 694:	7479626e 	ldrbtvc	r6, [r9], #-622	; 0xfffffd92
 698:	725f7365 	subsvc	r7, pc, #-1811939327	; 0x94000001
 69c:	6c006d65 	stcvs	13, cr6, [r0], {101}	; 0x65
 6a0:	00746665 	rsbseq	r6, r4, r5, ror #12
 6a4:	63656863 	cmnvs	r5, #6488064	; 0x630000
 6a8:	656d5f6b 	strbvs	r5, [sp, #-3947]!	; 0xfffff095
 6ac:	6568006d 	strbvs	r0, [r8, #-109]!	; 0xffffff93
 6b0:	72656461 	rsbvc	r6, r5, #1627389952	; 0x61000000
 6b4:	62696c00 	rsbvs	r6, r9, #0, 24
 6b8:	61682f63 	cmnvs	r8, r3, ror #30
 6bc:	632e6873 			; <UNDEFINED> instruction: 0x632e6873
 6c0:	6f682f00 	svcvs	0x00682f00
 6c4:	752f656d 	strvc	r6, [pc, #-1389]!	; 15f <_start-0x7ea1>
 6c8:	2f726573 	svccs	0x00726573
 6cc:	2f766544 	svccs	0x00766544
 6d0:	34325343 	ldrtcc	r5, [r2], #-835	; 0xfffffcbd
 6d4:	6c2f5830 	stcvs	8, cr5, [pc], #-192	; 61c <_start-0x79e4>
 6d8:	69706269 	ldmdbvs	r0!, {r0, r3, r5, r6, r9, sp, lr}^
 6dc:	7a697300 	bvc	1a5d2e4 <__bss_end__+0x1a532b4>
 6e0:	00745f65 	rsbseq	r5, r4, r5, ror #30
 6e4:	6362696c 	cmnvs	r2, #108, 18	; 0x1b0000
 6e8:	6d656d2f 	stclvs	13, cr6, [r5, #-188]!	; 0xffffff44
 6ec:	2e746573 	mrccs	5, 3, r6, cr4, cr3, {3}
 6f0:	5f5f0063 	svcpl	0x005f0063
 6f4:	6c5f6176 	ldfvse	f6, [pc], {118}	; 0x76
 6f8:	00747369 	rsbseq	r7, r4, r9, ror #6
 6fc:	705f6176 	subsvc	r6, pc, r6, ror r1	; <UNPREDICTABLE>
 700:	746e6972 	strbtvc	r6, [lr], #-2418	; 0xfffff68e
 704:	5f5f006b 	svcpl	0x005f006b
 708:	63756e67 	cmnvs	r5, #1648	; 0x670
 70c:	5f61765f 	svcpl	0x0061765f
 710:	7473696c 	ldrbtvc	r6, [r3], #-2412	; 0xfffff694
 714:	615f5f00 	cmpvs	pc, r0, lsl #30
 718:	696c0070 	stmdbvs	ip!, {r4, r5, r6}^
 71c:	702f6362 	eorvc	r6, pc, r2, ror #6
 720:	746e6972 	strbtvc	r6, [lr], #-2418	; 0xfffff68e
 724:	00632e6b 	rsbeq	r2, r3, fp, ror #28
 728:	5f697072 	svcpl	0x00697072
 72c:	5f746573 	svcpl	0x00746573
 730:	63747570 	cmnvs	r4, #112, 10	; 0x1c000000
 734:	72617500 	rsbvc	r7, r1, #0, 10
 738:	75705f74 	ldrbvc	r5, [r0, #-3956]!	; 0xfffff08c
 73c:	69006374 	stmdbvs	r0, {r2, r4, r5, r6, r8, r9, sp, lr}
 740:	7265746e 	rsbvc	r7, r5, #1845493760	; 0x6e000000
 744:	5f6c616e 	svcpl	0x006c616e
 748:	63747570 	cmnvs	r4, #112, 10	; 0x1c000000
 74c:	00726168 	rsbseq	r6, r2, r8, ror #2
 750:	6362696c 	cmnvs	r2, #108, 18	; 0x1b0000
 754:	7475702f 	ldrbtvc	r7, [r5], #-47	; 0xffffffd1
 758:	72616863 	rsbvc	r6, r1, #6488064	; 0x630000
 75c:	6900632e 	stmdbvs	r0, {r1, r2, r3, r5, r8, r9, sp, lr}
 760:	7265746e 	rsbvc	r7, r5, #1845493760	; 0x6e000000
 764:	5f6c616e 	svcpl	0x006c616e
 768:	6b747570 	blvs	1d1dd30 <__bss_end__+0x1d13d00>
 76c:	62696c00 	rsbvs	r6, r9, #0, 24
 770:	75702f63 	ldrbvc	r2, [r0, #-3939]!	; 0xfffff09d
 774:	632e6b74 			; <UNDEFINED> instruction: 0x632e6b74
 778:	62696c00 	rsbvs	r6, r9, #0, 24
 77c:	61762f63 	cmnvs	r6, r3, ror #30
 780:	6972702d 	ldmdbvs	r2!, {r0, r2, r3, r5, ip, sp, lr}^
 784:	2e6b746e 	cdpcs	4, 6, cr7, cr11, cr14, {3}
 788:	70720063 	rsbsvc	r0, r2, r3, rrx
 78c:	65735f69 	ldrbvs	r5, [r3, #-3945]!	; 0xfffff097
 790:	756f5f74 	strbvc	r5, [pc, #-3956]!	; fffff824 <__bss_end__+0xffff57f4>
 794:	74757074 	ldrbtvc	r7, [r5], #-116	; 0xffffff8c
 798:	67697300 	strbvs	r7, [r9, -r0, lsl #6]!
 79c:	5f64656e 	svcpl	0x0064656e
 7a0:	65720070 	ldrbvs	r0, [r2, #-112]!	; 0xffffff90
 7a4:	73726576 	cmnvc	r2, #494927872	; 0x1d800000
 7a8:	69770065 	ldmdbvs	r7!, {r0, r2, r5, r6}^
 7ac:	00687464 	rsbeq	r7, r8, r4, ror #8
 7b0:	73747570 	cmnvc	r4, #112, 10	; 0x1c000000
 7b4:	0070665f 	rsbseq	r6, r0, pc, asr r6
 7b8:	5f67656e 	svcpl	0x0067656e
 7bc:	75700070 	ldrbvc	r0, [r0, #-112]!	; 0xffffff90
 7c0:	665f6374 			; <UNDEFINED> instruction: 0x665f6374
 7c4:	73690070 	cmnvc	r9, #112	; 0x70
 7c8:	69676964 	stmdbvs	r7!, {r2, r5, r6, r8, fp, sp, lr}^
 7cc:	6d650074 	stclvs	0, cr0, [r5, #-464]!	; 0xfffffe30
 7d0:	73007469 	movwvc	r7, #1129	; 0x469
 7d4:	66666174 			; <UNDEFINED> instruction: 0x66666174
 7d8:	6372732d 	cmnvs	r2, #-1275068416	; 0xb4000000
 7dc:	656c632f 	strbvs	r6, [ip, #-815]!	; 0xfffffcd1
 7e0:	722d6e61 	eorvc	r6, sp, #1552	; 0x610
 7e4:	6f6f6265 	svcvs	0x006f6265
 7e8:	00632e74 	rsbeq	r2, r3, r4, ror lr
 7ec:	616c6564 	cmnvs	ip, r4, ror #10
 7f0:	736d5f79 	cmnvc	sp, #484	; 0x1e4
 7f4:	69707200 	ldmdbvs	r0!, {r9, ip, sp, lr}^
 7f8:	6265725f 	rsbvs	r7, r5, #-268435451	; 0xf0000005
 7fc:	00746f6f 	rsbseq	r6, r4, pc, ror #30
 800:	66617473 			; <UNDEFINED> instruction: 0x66617473
 804:	72732d66 	rsbsvc	r2, r3, #6528	; 0x1980
 808:	73632f63 	cmnvc	r3, #396	; 0x18c
 80c:	74726174 	ldrbtvc	r6, [r2], #-372	; 0xfffffe8c
 810:	5f00632e 	svcpl	0x0000632e
 814:	61747363 	cmnvs	r4, r3, ror #6
 818:	62007472 	andvs	r7, r0, #1912602624	; 0x72000000
 81c:	655f7373 	ldrbvs	r7, [pc, #-883]	; 4b1 <_start-0x7b4f>
 820:	5f00646e 	svcpl	0x0000646e
 824:	7373625f 	cmnvc	r3, #-268435451	; 0xf0000005
 828:	6174735f 	cmnvs	r4, pc, asr r3
 82c:	5f5f7472 	svcpl	0x005f7472
 830:	625f5f00 	subsvs	r5, pc, #0, 30
 834:	655f7373 	ldrbvs	r7, [pc, #-883]	; 4c9 <_start-0x7b37>
 838:	5f5f646e 	svcpl	0x005f646e
 83c:	5f4d5000 	svcpl	0x004d5000
 840:	43545352 	cmpmi	r4, #1207959553	; 0x48000001
 844:	54555000 	ldrbpl	r5, [r5], #-0
 848:	50003233 	andpl	r3, r0, r3, lsr r2
 84c:	53525f4d 	cmppl	r2, #308	; 0x134
 850:	575f4354 			; <UNDEFINED> instruction: 0x575f4354
 854:	47464352 	smlsldmi	r4, r6, r2, r3
 858:	4c55465f 	mrrcmi	6, 5, r4, r5, cr15
 85c:	45525f4c 	ldrbmi	r5, [r2, #-3916]	; 0xfffff0b4
 860:	00544553 	subseq	r4, r4, r3, asr r5
 864:	575f4d50 			; <UNDEFINED> instruction: 0x575f4d50
 868:	00474f44 	subeq	r4, r7, r4, asr #30
 86c:	72737063 	rsbsvc	r7, r3, #99	; 0x63
 870:	5f4d5000 	svcpl	0x004d5000
 874:	53534150 	cmppl	r3, #80, 2
 878:	44524f57 	ldrbmi	r4, [r2], #-3927	; 0xfffff0a9
 87c:	61747300 	cmnvs	r4, r0, lsl #6
 880:	732d6666 			; <UNDEFINED> instruction: 0x732d6666
 884:	722f6372 	eorvc	r6, pc, #-939524095	; 0xc8000001
 888:	6f6f6265 	svcvs	0x006f6265
 88c:	00632e74 	rsbeq	r2, r3, r4, ror lr
 890:	5f746573 	svcpl	0x00746573
 894:	72657375 	rsbvc	r7, r5, #-738197503	; 0xd4000001
 898:	76656c5f 			; <UNDEFINED> instruction: 0x76656c5f
 89c:	61006c65 	tstvs	r0, r5, ror #24
 8a0:	73755f74 	cmnvc	r5, #116, 30	; 0x1d0
 8a4:	6c5f7265 	lfmvs	f7, 2, [pc], {101}	; 0x65
 8a8:	6c657665 	stclvs	6, cr7, [r5], #-404	; 0xfffffe6c
 8ac:	6d697400 	cfstrdvs	mvd7, [r9, #-0]
 8b0:	675f7265 	ldrbvs	r7, [pc, -r5, ror #4]
 8b4:	755f7465 	ldrbvc	r7, [pc, #-1125]	; 457 <_start-0x7ba9>
 8b8:	00636573 	rsbeq	r6, r3, r3, ror r5
 8bc:	616c6564 	cmnvs	ip, r4, ror #10
 8c0:	65735f79 	ldrbvs	r5, [r3, #-3961]!	; 0xfffff087
 8c4:	65640063 	strbvs	r0, [r4, #-99]!	; 0xffffff9d
 8c8:	5f79616c 	svcpl	0x0079616c
 8cc:	6c637963 			; <UNDEFINED> instruction: 0x6c637963
 8d0:	73007365 	movwvc	r7, #869	; 0x365
 8d4:	66666174 			; <UNDEFINED> instruction: 0x66666174
 8d8:	6372732d 	cmnvs	r2, #-1275068416	; 0xb4000000
 8dc:	6d69742f 	cfstrdvs	mvd7, [r9, #-188]!	; 0xffffff44
 8e0:	632e7265 			; <UNDEFINED> instruction: 0x632e7265
 8e4:	63697400 	cmnvs	r9, #0, 8
 8e8:	4700736b 	strmi	r7, [r0, -fp, ror #6]
 8ec:	32335445 	eorscc	r5, r3, #1157627904	; 0x45000000
 8f0:	6d697400 	cfstrdvs	mvd7, [r9, #-0]
 8f4:	675f7265 	ldrbvs	r7, [pc, -r5, ror #4]
 8f8:	755f7465 	ldrbvc	r7, [pc, #-1125]	; 49b <_start-0x7b65>
 8fc:	5f636573 	svcpl	0x00636573
 900:	00776172 	rsbseq	r6, r7, r2, ror r1
 904:	616c6564 	cmnvs	ip, r4, ror #10
 908:	73755f79 	cmnvc	r5, #484	; 0x1e4
 90c:	72617500 	rsbvc	r7, r1, #0, 10
 910:	6e695f74 	mcrvs	15, 3, r5, cr9, cr4, {3}
 914:	47007469 	strmi	r7, [r0, -r9, ror #8]
 918:	5f4f4950 	svcpl	0x004f4950
 91c:	434e5546 	movtmi	r5, #58694	; 0xe546
 920:	504e495f 	subpl	r4, lr, pc, asr r9
 924:	73005455 	movwvc	r5, #1109	; 0x455
 928:	00746174 	rsbseq	r6, r4, r4, ror r1
 92c:	4f495047 	svcmi	0x00495047
 930:	4e55465f 	mrcmi	6, 2, r4, cr5, cr15, {2}
 934:	4c415f43 	mcrrmi	15, 4, r5, r1, cr3
 938:	63003154 	movwvs	r3, #340	; 0x154
 93c:	006c746e 	rsbeq	r7, ip, lr, ror #8
 940:	74726175 	ldrbtvc	r6, [r2], #-373	; 0xfffffe8b
 944:	6100632e 	tstvs	r0, lr, lsr #6
 948:	705f7875 	subsvc	r7, pc, r5, ror r8	; <UNPREDICTABLE>
 94c:	70697265 	rsbvc	r7, r9, r5, ror #4
 950:	2f007368 	svccs	0x00007368
 954:	656d6f68 	strbvs	r6, [sp, #-3944]!	; 0xfffff098
 958:	676e652f 	strbvs	r6, [lr, -pc, lsr #10]!
 95c:	2f72656c 	svccs	0x0072656c
 960:	73616c63 	cmnvc	r1, #25344	; 0x6300
 964:	73632f73 	cmnvc	r3, #460	; 0x1cc
 968:	6c303432 	cfldrsvs	mvf3, [r0], #-200	; 0xffffff38
 96c:	30322d78 	eorscc	r2, r2, r8, ror sp
 970:	2f727073 	svccs	0x00727073
 974:	7062696c 	rsbvc	r6, r2, ip, ror #18
 978:	74732f69 	ldrbtvc	r2, [r3], #-3945	; 0xfffff097
 97c:	2d666661 	stclcs	6, cr6, [r6, #-388]!	; 0xfffffe7c
 980:	76697270 			; <UNDEFINED> instruction: 0x76697270
 984:	00657461 	rsbeq	r7, r5, r1, ror #8
 988:	5f787561 	svcpl	0x00787561
 98c:	62616e65 	rsbvs	r6, r1, #1616	; 0x650
 990:	0073656c 	rsbseq	r6, r3, ip, ror #10
 994:	74726175 	ldrbtvc	r6, [r2], #-373	; 0xfffffe8b
 998:	6e61635f 	mcrvs	3, 3, r6, cr1, cr15, {2}
 99c:	7475705f 	ldrbtvc	r7, [r5], #-95	; 0xffffffa1
 9a0:	61750063 	cmnvs	r5, r3, rrx
 9a4:	675f7472 			; <UNDEFINED> instruction: 0x675f7472
 9a8:	00637465 	rsbeq	r7, r3, r5, ror #8
 9ac:	5f766564 	svcpl	0x00766564
 9b0:	72726162 	rsbsvc	r6, r2, #-2147483624	; 0x80000018
 9b4:	00726569 	rsbseq	r6, r2, r9, ror #10
 9b8:	4f495047 	svcmi	0x00495047
 9bc:	4e55465f 	mrcmi	6, 2, r4, cr5, cr15, {2}
 9c0:	4c415f43 	mcrrmi	15, 4, r5, r1, cr3
 9c4:	73003254 	movwvc	r3, #596	; 0x254
 9c8:	74657a69 	strbtvc	r7, [r5], #-2665	; 0xfffff597
 9cc:	00657079 	rsbeq	r7, r5, r9, ror r0
 9d0:	6f697067 	svcvs	0x00697067
 9d4:	7465735f 	strbtvc	r7, [r5], #-863	; 0xfffffca1
 9d8:	6e75665f 	mrcvs	6, 3, r6, cr5, cr15, {2}
 9dc:	6f697463 	svcvs	0x00697463
 9e0:	6175006e 	cmnvs	r5, lr, rrx
 9e4:	5f007472 	svcpl	0x00007472
 9e8:	4b434f4c 	blmi	10d4720 <__bss_end__+0x10ca6f0>
 9ec:	4345525f 	movtmi	r5, #21087	; 0x525f
 9f0:	49535255 	ldmdbmi	r3, {r0, r2, r4, r6, r9, ip, lr}^
 9f4:	545f4556 	ldrbpl	r4, [pc], #-1366	; 9fc <_start-0x7604>
 9f8:	75635f00 	strbvc	r5, [r3, #-3840]!	; 0xfffff100
 9fc:	6e657272 	mcrvs	2, 3, r7, cr5, cr2, {3}
 a00:	6f6c5f74 	svcvs	0x006c5f74
 a04:	656c6163 	strbvs	r6, [ip, #-355]!	; 0xfffffe9d
 a08:	75616200 	strbvc	r6, [r1, #-512]!	; 0xfffffe00
 a0c:	63730064 	cmnvs	r3, #100	; 0x64
 a10:	63746172 	cmnvs	r4, #-2147483620	; 0x8000001c
 a14:	75700068 	ldrbvc	r0, [r0, #-104]!	; 0xffffff98
 a18:	00323374 	eorseq	r3, r2, r4, ror r3
 a1c:	20554e47 	subscs	r4, r5, r7, asr #28
 a20:	20393943 	eorscs	r3, r9, r3, asr #18
 a24:	2e332e36 	mrccs	14, 1, r2, cr3, cr6, {1}
 a28:	30322031 	eorscc	r2, r2, r1, lsr r0
 a2c:	36303731 			; <UNDEFINED> instruction: 0x36303731
 a30:	2d203032 	stccs	0, cr3, [r0, #-200]!	; 0xffffff38
 a34:	7570636d 	ldrbvc	r6, [r0, #-877]!	; 0xfffffc93
 a38:	6d72613d 	ldfvse	f6, [r2, #-244]!	; 0xffffff0c
 a3c:	36373131 			; <UNDEFINED> instruction: 0x36373131
 a40:	2d667a6a 	vstmdbcs	r6!, {s15-s120}
 a44:	6d2d2073 	stcvs	0, cr2, [sp, #-460]!	; 0xfffffe34
 a48:	656e7574 	strbvs	r7, [lr, #-1396]!	; 0xfffffa8c
 a4c:	6d72613d 	ldfvse	f6, [r2, #-244]!	; 0xffffff0c
 a50:	36373131 			; <UNDEFINED> instruction: 0x36373131
 a54:	2d667a6a 	vstmdbcs	r6!, {s15-s120}
 a58:	672d2073 			; <UNDEFINED> instruction: 0x672d2073
 a5c:	20626467 	rsbcs	r6, r2, r7, ror #8
 a60:	20674f2d 	rsbcs	r4, r7, sp, lsr #30
 a64:	6474732d 	ldrbtvs	r7, [r4], #-813	; 0xfffffcd3
 a68:	756e673d 	strbvc	r6, [lr, #-1853]!	; 0xfffff8c3
 a6c:	2d203939 			; <UNDEFINED> instruction: 0x2d203939
 a70:	65726666 	ldrbvs	r6, [r2, #-1638]!	; 0xfffff99a
 a74:	61747365 	cmnvs	r4, r5, ror #6
 a78:	6e69646e 	cdpvs	4, 6, cr6, cr9, cr14, {3}
 a7c:	635f0067 	cmpvs	pc, #103	; 0x67
 a80:	65727275 	ldrbvs	r7, [r2, #-629]!	; 0xfffffd8b
 a84:	635f746e 	cmpvs	pc, #1845493760	; 0x6e000000
 a88:	67657461 	strbvs	r7, [r5, -r1, ror #8]!
 a8c:	0079726f 	rsbseq	r7, r9, pc, ror #4
 a90:	4f495047 	svcmi	0x00495047
 a94:	4e55465f 	mrcmi	6, 2, r4, cr5, cr15, {2}
 a98:	554f5f43 	strbpl	r5, [pc, #-3907]	; fffffb5d <__bss_end__+0xffff5b2d>
 a9c:	54555054 	ldrbpl	r5, [r5], #-84	; 0xffffffac
 aa0:	74656700 	strbtvc	r6, [r5], #-1792	; 0xfffff900
 aa4:	75003233 	strvc	r3, [r0, #-563]	; 0xfffffdcd
 aa8:	5f747261 	svcpl	0x00747261
 aac:	5f6e6163 	svcpl	0x006e6163
 ab0:	63746567 	cmnvs	r4, #432013312	; 0x19c00000
 ab4:	5f726f00 	svcpl	0x00726f00
 ab8:	32336e69 	eorscc	r6, r3, #1680	; 0x690
 abc:	72617500 	rsbvc	r7, r1, #0, 10
 ac0:	61685f74 	smcvs	34292	; 0x85f4
 ac4:	61645f73 	smcvs	17907	; 0x45f3
 ac8:	47006174 	smlsdxmi	r0, r4, r1, r6
 acc:	5f4f4950 	svcpl	0x004f4950
 ad0:	434e5546 	movtmi	r5, #58694	; 0xe546
 ad4:	544c415f 	strbpl	r4, [ip], #-351	; 0xfffffea1
 ad8:	50470030 	subpl	r0, r7, r0, lsr r0
 adc:	465f4f49 	ldrbmi	r4, [pc], -r9, asr #30
 ae0:	5f434e55 	svcpl	0x00434e55
 ae4:	33544c41 	cmpcc	r4, #16640	; 0x4100
 ae8:	49504700 	ldmdbmi	r0, {r8, r9, sl, lr}^
 aec:	55465f4f 	strbpl	r5, [r6, #-3919]	; 0xfffff0b1
 af0:	415f434e 	cmpmi	pc, lr, asr #6
 af4:	0034544c 	eorseq	r5, r4, ip, asr #8
 af8:	4f495047 	svcmi	0x00495047
 afc:	4e55465f 	mrcmi	6, 2, r4, cr5, cr15, {2}
 b00:	4c415f43 	mcrrmi	15, 4, r5, r1, cr3
 b04:	67003554 	smlsdvs	r0, r4, r5, r3
 b08:	5f6f6970 	svcpl	0x006f6970
 b0c:	5f746573 	svcpl	0x00746573
 b10:	0066666f 	rsbeq	r6, r6, pc, ror #12
 b14:	6b6e6162 	blvs	1b990a4 <__bss_end__+0x1b8f074>
 b18:	69706700 	ldmdbvs	r0!, {r8, r9, sl, sp, lr}^
 b1c:	00632e6f 	rsbeq	r2, r3, pc, ror #28
 b20:	6f697067 	svcvs	0x00697067
 b24:	6165725f 	cmnvs	r5, pc, asr r2
 b28:	70670064 	rsbvc	r0, r7, r4, rrx
 b2c:	735f6f69 	cmpvc	pc, #420	; 0x1a4
 b30:	6f5f7465 	svcvs	0x005f7465
 b34:	75707475 	ldrbvc	r7, [r0, #-1141]!	; 0xfffffb8b
 b38:	70670074 	rsbvc	r0, r7, r4, ror r0
 b3c:	775f6f69 	ldrbvc	r6, [pc, -r9, ror #30]
 b40:	65746972 	ldrbvs	r6, [r4, #-2418]!	; 0xfffff68e
 b44:	69706700 	ldmdbvs	r0!, {r8, r9, sl, sp, lr}^
 b48:	65735f6f 	ldrbvs	r5, [r3, #-3951]!	; 0xfffff091
 b4c:	67003074 	smlsdxvs	r0, r4, r0, r3
 b50:	5f6f6970 	svcpl	0x006f6970
 b54:	3076656c 	rsbscc	r6, r6, ip, ror #10
 b58:	69706700 	ldmdbvs	r0!, {r8, r9, sl, sp, lr}^
 b5c:	65735f6f 	ldrbvs	r5, [r3, #-3951]!	; 0xfffff091
 b60:	6e695f74 	mcrvs	15, 3, r5, cr9, cr4, {3}
 b64:	00747570 	rsbseq	r7, r4, r0, ror r5
 b68:	6f697067 	svcvs	0x00697067
 b6c:	7465735f 	strbtvc	r7, [r5], #-863	; 0xfffffca1
 b70:	006e6f5f 	rsbeq	r6, lr, pc, asr pc
 b74:	6f697067 	svcvs	0x00697067
 b78:	6e75665f 	mrcvs	6, 3, r6, cr5, cr15, {2}
 b7c:	00745f63 	rsbseq	r5, r4, r3, ror #30
 b80:	6f697067 	svcvs	0x00697067
 b84:	726c635f 	rsbvc	r6, ip, #2080374785	; 0x7c000001
 b88:	6d6b0030 	stclvs	0, cr0, [fp, #-192]!	; 0xffffff40
 b8c:	6f6c6c61 	svcvs	0x006c6c61
 b90:	00632e63 	rsbeq	r2, r3, r3, ror #28
 b94:	6c616d6b 	stclvs	13, cr6, [r1], #-428	; 0xfffffe54
 b98:	5f636f6c 	svcpl	0x00636f6c
 b9c:	74696e69 	strbtvc	r6, [r9], #-3689	; 0xfffff197
 ba0:	616d6b00 	cmnvs	sp, r0, lsl #22
 ba4:	636f6c6c 	cmnvs	pc, #108, 24	; 0x6c00
 ba8:	696c615f 	stmdbvs	ip!, {r0, r1, r2, r3, r4, r6, r8, sp, lr}^
 bac:	64656e67 	strbtvs	r6, [r5], #-3687	; 0xfffff199
 bb0:	756f6400 	strbvc	r6, [pc, #-1024]!	; 7b8 <_start-0x7848>
 bb4:	00656c62 	rsbeq	r6, r5, r2, ror #24
 bb8:	6572666b 	ldrbvs	r6, [r2, #-1643]!	; 0xfffff995
 bbc:	6c615f65 	stclvs	15, cr5, [r1], #-404	; 0xfffffe6c
 bc0:	666b006c 	strbtvs	r0, [fp], -ip, rrx
 bc4:	5f656572 	svcpl	0x00656572
 bc8:	65746661 	ldrbvs	r6, [r4, #-1633]!	; 0xfffff99f
 bcc:	6d6b0072 	stclvs	0, cr0, [fp, #-456]!	; 0xfffffe38
 bd0:	6f6c6c61 	svcvs	0x006c6c61
 bd4:	65685f63 	strbvs	r5, [r8, #-3939]!	; 0xfffff09d
 bd8:	705f7061 	subsvc	r7, pc, r1, rrx
 bdc:	61007274 	tstvs	r0, r4, ror r2
 be0:	6e67696c 	vnmulvs.f16	s13, s14, s25	; <UNPREDICTABLE>
 be4:	746e656d 	strbtvc	r6, [lr], #-1389	; 0xfffffa93
 be8:	685f5f00 	ldmdavs	pc, {r8, r9, sl, fp, ip, lr}^	; <UNPREDICTABLE>
 bec:	5f706165 	svcpl	0x00706165
 bf0:	72617473 	rsbvc	r7, r1, #1929379840	; 0x73000000
 bf4:	005f5f74 	subseq	r5, pc, r4, ror pc	; <UNPREDICTABLE>
 bf8:	6c616d6b 	stclvs	13, cr6, [r1], #-428	; 0xfffffe54
 bfc:	5f636f6c 	svcpl	0x00636f6c
 c00:	70616568 	rsbvc	r6, r1, r8, ror #10
 c04:	6174735f 	cmnvs	r4, pc, asr r3
 c08:	5f007472 	svcpl	0x00007472
 c0c:	72646461 	rsbvc	r6, r4, #1627389952	; 0x61000000
 c10:	616d6b00 	cmnvs	sp, r0, lsl #22
 c14:	636f6c6c 	cmnvs	pc, #108, 24	; 0x6c00
 c18:	6165685f 	cmnvs	r5, pc, asr r8
 c1c:	6e655f70 	mcrvs	15, 3, r5, cr5, cr0, {3}
 c20:	Address 0x0000000000000c20 is out of bounds.


Disassembly of section .debug_frame:

00000000 <.debug_frame>:
   0:	0000000c 	andeq	r0, r0, ip
   4:	ffffffff 			; <UNDEFINED> instruction: 0xffffffff
   8:	7c020001 	stcvc	0, cr0, [r2], {1}
   c:	000d0c0e 	andeq	r0, sp, lr, lsl #24
  10:	00000018 	andeq	r0, r0, r8, lsl r0
  14:	00000000 	andeq	r0, r0, r0
  18:	00008010 	andeq	r8, r0, r0, lsl r0
  1c:	000000fc 	strdeq	r0, [r0], -ip
  20:	84100e42 	ldrhi	r0, [r0], #-3650	; 0xfffff1be
  24:	86038504 	strhi	r8, [r3], -r4, lsl #10
  28:	00018e02 	andeq	r8, r1, r2, lsl #28
  2c:	0000000c 	andeq	r0, r0, ip
  30:	ffffffff 			; <UNDEFINED> instruction: 0xffffffff
  34:	7c020001 	stcvc	0, cr0, [r2], {1}
  38:	000d0c0e 	andeq	r0, sp, lr, lsl #24
  3c:	0000000c 	andeq	r0, r0, ip
  40:	0000002c 	andeq	r0, r0, ip, lsr #32
  44:	0000810c 	andeq	r8, r0, ip, lsl #2
  48:	00000008 	andeq	r0, r0, r8
  4c:	00000014 	andeq	r0, r0, r4, lsl r0
  50:	0000002c 	andeq	r0, r0, ip, lsr #32
  54:	00008114 	andeq	r8, r0, r4, lsl r1
  58:	00000010 	andeq	r0, r0, r0, lsl r0
  5c:	84080e42 	strhi	r0, [r8], #-3650	; 0xfffff1be
  60:	00018e02 	andeq	r8, r1, r2, lsl #28
  64:	00000014 	andeq	r0, r0, r4, lsl r0
  68:	0000002c 	andeq	r0, r0, ip, lsr #32
  6c:	00008124 	andeq	r8, r0, r4, lsr #2
  70:	00000018 	andeq	r0, r0, r8, lsl r0
  74:	84080e42 	strhi	r0, [r8], #-3650	; 0xfffff1be
  78:	00018e02 	andeq	r8, r1, r2, lsl #28
  7c:	0000000c 	andeq	r0, r0, ip
  80:	0000002c 	andeq	r0, r0, ip, lsr #32
  84:	0000813c 	andeq	r8, r0, ip, lsr r1
  88:	0000000c 	andeq	r0, r0, ip
  8c:	0000000c 	andeq	r0, r0, ip
  90:	0000002c 	andeq	r0, r0, ip, lsr #32
  94:	00008148 	andeq	r8, r0, r8, asr #2
  98:	00000008 	andeq	r0, r0, r8
  9c:	0000001c 	andeq	r0, r0, ip, lsl r0
  a0:	0000002c 	andeq	r0, r0, ip, lsr #32
  a4:	00008150 	andeq	r8, r0, r0, asr r1
  a8:	0000010c 	andeq	r0, r0, ip, lsl #2
  ac:	84180e42 	ldrhi	r0, [r8], #-3650	; 0xfffff1be
  b0:	86058506 	strhi	r8, [r5], -r6, lsl #10
  b4:	88038704 	stmdahi	r3, {r2, r8, r9, sl, pc}
  b8:	00018e02 	andeq	r8, r1, r2, lsl #28
  bc:	00000014 	andeq	r0, r0, r4, lsl r0
  c0:	0000002c 	andeq	r0, r0, ip, lsr #32
  c4:	0000825c 	andeq	r8, r0, ip, asr r2
  c8:	00000014 	andeq	r0, r0, r4, lsl r0
  cc:	84080e42 	strhi	r0, [r8], #-3650	; 0xfffff1be
  d0:	00018e02 	andeq	r8, r1, r2, lsl #28
  d4:	00000018 	andeq	r0, r0, r8, lsl r0
  d8:	0000002c 	andeq	r0, r0, ip, lsr #32
  dc:	00008270 	andeq	r8, r0, r0, ror r2
  e0:	00000024 	andeq	r0, r0, r4, lsr #32
  e4:	84100e42 	ldrhi	r0, [r0], #-3650	; 0xfffff1be
  e8:	86038504 	strhi	r8, [r3], -r4, lsl #10
  ec:	00018e02 	andeq	r8, r1, r2, lsl #28
  f0:	00000018 	andeq	r0, r0, r8, lsl r0
  f4:	0000002c 	andeq	r0, r0, ip, lsr #32
  f8:	00008294 	muleq	r0, r4, r2
  fc:	000000e8 	andeq	r0, r0, r8, ror #1
 100:	84100e42 	ldrhi	r0, [r0], #-3650	; 0xfffff1be
 104:	86038504 	strhi	r8, [r3], -r4, lsl #10
 108:	00018e02 	andeq	r8, r1, r2, lsl #28
 10c:	0000001c 	andeq	r0, r0, ip, lsl r0
 110:	0000002c 	andeq	r0, r0, ip, lsr #32
 114:	0000837c 	andeq	r8, r0, ip, ror r3
 118:	000000fc 	strdeq	r0, [r0], -ip
 11c:	84180e42 	ldrhi	r0, [r8], #-3650	; 0xfffff1be
 120:	86058506 	strhi	r8, [r5], -r6, lsl #10
 124:	88038704 	stmdahi	r3, {r2, r8, r9, sl, pc}
 128:	00018e02 	andeq	r8, r1, r2, lsl #28
 12c:	00000018 	andeq	r0, r0, r8, lsl r0
 130:	0000002c 	andeq	r0, r0, ip, lsr #32
 134:	00008478 	andeq	r8, r0, r8, ror r4
 138:	00000064 	andeq	r0, r0, r4, rrx
 13c:	84100e42 	ldrhi	r0, [r0], #-3650	; 0xfffff1be
 140:	86038504 	strhi	r8, [r3], -r4, lsl #10
 144:	00018e02 	andeq	r8, r1, r2, lsl #28
 148:	00000018 	andeq	r0, r0, r8, lsl r0
 14c:	0000002c 	andeq	r0, r0, ip, lsr #32
 150:	000084dc 	ldrdeq	r8, [r0], -ip
 154:	00000074 	andeq	r0, r0, r4, ror r0
 158:	84100e42 	ldrhi	r0, [r0], #-3650	; 0xfffff1be
 15c:	86038504 	strhi	r8, [r3], -r4, lsl #10
 160:	00018e02 	andeq	r8, r1, r2, lsl #28
 164:	0000001c 	andeq	r0, r0, ip, lsl r0
 168:	0000002c 	andeq	r0, r0, ip, lsr #32
 16c:	00008550 	andeq	r8, r0, r0, asr r5
 170:	000000b8 	strheq	r0, [r0], -r8
 174:	84180e42 	ldrhi	r0, [r8], #-3650	; 0xfffff1be
 178:	86058506 	strhi	r8, [r5], -r6, lsl #10
 17c:	88038704 	stmdahi	r3, {r2, r8, r9, sl, pc}
 180:	00018e02 	andeq	r8, r1, r2, lsl #28
 184:	00000028 	andeq	r0, r0, r8, lsr #32
 188:	0000002c 	andeq	r0, r0, ip, lsr #32
 18c:	00008608 	andeq	r8, r0, r8, lsl #12
 190:	0000021c 	andeq	r0, r0, ip, lsl r2
 194:	841c0e42 	ldrhi	r0, [ip], #-3650	; 0xfffff1be
 198:	86068507 	strhi	r8, [r6], -r7, lsl #10
 19c:	88048705 	stmdahi	r4, {r0, r2, r8, r9, sl, pc}
 1a0:	8e028903 	vmlahi.f16	s16, s4, s6	; <UNPREDICTABLE>
 1a4:	280e4201 	stmdacs	lr, {r0, r9, lr}
 1a8:	0e0a8e02 	cdpeq	14, 0, cr8, cr10, cr2, {0}
 1ac:	000b421c 	andeq	r4, fp, ip, lsl r2
 1b0:	0000001c 	andeq	r0, r0, ip, lsl r0
 1b4:	0000002c 	andeq	r0, r0, ip, lsr #32
 1b8:	00008824 	andeq	r8, r0, r4, lsr #16
 1bc:	00000150 	andeq	r0, r0, r0, asr r1
 1c0:	84180e42 	ldrhi	r0, [r8], #-3650	; 0xfffff1be
 1c4:	86058506 	strhi	r8, [r5], -r6, lsl #10
 1c8:	88038704 	stmdahi	r3, {r2, r8, r9, sl, pc}
 1cc:	00018e02 	andeq	r8, r1, r2, lsl #28
 1d0:	0000000c 	andeq	r0, r0, ip
 1d4:	ffffffff 			; <UNDEFINED> instruction: 0xffffffff
 1d8:	7c020001 	stcvc	0, cr0, [r2], {1}
 1dc:	000d0c0e 	andeq	r0, sp, lr, lsl #24
 1e0:	00000018 	andeq	r0, r0, r8, lsl r0
 1e4:	000001d0 	ldrdeq	r0, [r0], -r0	; <UNPREDICTABLE>
 1e8:	00008974 	andeq	r8, r0, r4, ror r9
 1ec:	000000ec 	andeq	r0, r0, ip, ror #1
 1f0:	8e040e48 	cdphi	14, 0, cr0, cr4, cr8, {2}
 1f4:	0e6a0201 	cdpeq	2, 6, cr0, cr10, cr1, {0}
 1f8:	0000ce00 	andeq	ip, r0, r0, lsl #28
 1fc:	0000000c 	andeq	r0, r0, ip
 200:	ffffffff 			; <UNDEFINED> instruction: 0xffffffff
 204:	7c020001 	stcvc	0, cr0, [r2], {1}
 208:	000d0c0e 	andeq	r0, sp, lr, lsl #24
 20c:	0000000c 	andeq	r0, r0, ip
 210:	000001fc 	strdeq	r0, [r0], -ip
 214:	00008a60 	andeq	r8, r0, r0, ror #20
 218:	00000018 	andeq	r0, r0, r8, lsl r0
 21c:	0000000c 	andeq	r0, r0, ip
 220:	ffffffff 			; <UNDEFINED> instruction: 0xffffffff
 224:	7c020001 	stcvc	0, cr0, [r2], {1}
 228:	000d0c0e 	andeq	r0, sp, lr, lsl #24
 22c:	00000034 	andeq	r0, r0, r4, lsr r0
 230:	0000021c 	andeq	r0, r0, ip, lsl r2
 234:	00008a78 	andeq	r8, r0, r8, ror sl
 238:	00000058 	andeq	r0, r0, r8, asr r0
 23c:	80100e42 	andshi	r0, r0, r2, asr #28
 240:	82038104 	andhi	r8, r3, #4, 2
 244:	42018302 	andmi	r8, r1, #134217728	; 0x8000000
 248:	07841c0e 	streq	r1, [r4, lr, lsl #24]
 24c:	058e0685 	streq	r0, [lr, #1669]	; 0x685
 250:	5c280e42 	stcpl	14, cr0, [r8], #-264	; 0xfffffef8
 254:	ce421c0e 	cdpgt	12, 4, cr1, cr2, cr14, {0}
 258:	100ec4c5 	andne	ip, lr, r5, asr #9
 25c:	c1c2c342 	bicgt	ip, r2, r2, asr #6
 260:	00000ec0 	andeq	r0, r0, r0, asr #29
 264:	0000000c 	andeq	r0, r0, ip
 268:	ffffffff 			; <UNDEFINED> instruction: 0xffffffff
 26c:	7c020001 	stcvc	0, cr0, [r2], {1}
 270:	000d0c0e 	andeq	r0, sp, lr, lsl #24
 274:	00000014 	andeq	r0, r0, r4, lsl r0
 278:	00000264 	andeq	r0, r0, r4, ror #4
 27c:	00008ad0 	ldrdeq	r8, [r0], -r0
 280:	00000014 	andeq	r0, r0, r4, lsl r0
 284:	84080e42 	strhi	r0, [r8], #-3650	; 0xfffff1be
 288:	00018e02 	andeq	r8, r1, r2, lsl #28
 28c:	0000000c 	andeq	r0, r0, ip
 290:	00000264 	andeq	r0, r0, r4, ror #4
 294:	00008ae4 	andeq	r8, r0, r4, ror #21
 298:	00000018 	andeq	r0, r0, r8, lsl r0
 29c:	0000000c 	andeq	r0, r0, ip
 2a0:	00000264 	andeq	r0, r0, r4, ror #4
 2a4:	00008afc 	strdeq	r8, [r0], -ip
 2a8:	00000010 	andeq	r0, r0, r0, lsl r0
 2ac:	0000000c 	andeq	r0, r0, ip
 2b0:	ffffffff 			; <UNDEFINED> instruction: 0xffffffff
 2b4:	7c020001 	stcvc	0, cr0, [r2], {1}
 2b8:	000d0c0e 	andeq	r0, sp, lr, lsl #24
 2bc:	00000014 	andeq	r0, r0, r4, lsl r0
 2c0:	000002ac 	andeq	r0, r0, ip, lsr #5
 2c4:	00008b0c 	andeq	r8, r0, ip, lsl #22
 2c8:	00000034 	andeq	r0, r0, r4, lsr r0
 2cc:	84080e42 	strhi	r0, [r8], #-3650	; 0xfffff1be
 2d0:	00018e02 	andeq	r8, r1, r2, lsl #28
 2d4:	0000000c 	andeq	r0, r0, ip
 2d8:	ffffffff 			; <UNDEFINED> instruction: 0xffffffff
 2dc:	7c020001 	stcvc	0, cr0, [r2], {1}
 2e0:	000d0c0e 	andeq	r0, sp, lr, lsl #24
 2e4:	0000000c 	andeq	r0, r0, ip
 2e8:	000002d4 	ldrdeq	r0, [r0], -r4
 2ec:	00008b40 	andeq	r8, r0, r0, asr #22
 2f0:	00000014 	andeq	r0, r0, r4, lsl r0
 2f4:	0000000c 	andeq	r0, r0, ip
 2f8:	000002d4 	ldrdeq	r0, [r0], -r4
 2fc:	00008b54 	andeq	r8, r0, r4, asr fp
 300:	00000024 	andeq	r0, r0, r4, lsr #32
 304:	0000000c 	andeq	r0, r0, ip
 308:	000002d4 	ldrdeq	r0, [r0], -r4
 30c:	00008b78 	andeq	r8, r0, r8, ror fp
 310:	00000038 	andeq	r0, r0, r8, lsr r0
 314:	00000024 	andeq	r0, r0, r4, lsr #32
 318:	000002d4 	ldrdeq	r0, [r0], -r4
 31c:	00008bb0 			; <UNDEFINED> instruction: 0x00008bb0
 320:	000001ac 	andeq	r0, r0, ip, lsr #3
 324:	84140e42 	ldrhi	r0, [r4], #-3650	; 0xfffff1be
 328:	86048505 	strhi	r8, [r4], -r5, lsl #10
 32c:	8e028703 	cdphi	7, 0, cr8, cr2, cr3, {0}
 330:	580e4201 	stmdapl	lr, {r0, r9, lr}
 334:	0e0a9a02 	vmlaeq.f32	s18, s20, s4
 338:	000b4214 	andeq	r4, fp, r4, lsl r2
 33c:	00000014 	andeq	r0, r0, r4, lsl r0
 340:	000002d4 	ldrdeq	r0, [r0], -r4
 344:	00008d5c 	andeq	r8, r0, ip, asr sp
 348:	00000054 	andeq	r0, r0, r4, asr r0
 34c:	84080e52 	strhi	r0, [r8], #-3666	; 0xfffff1ae
 350:	00018e02 	andeq	r8, r1, r2, lsl #28
 354:	00000028 	andeq	r0, r0, r8, lsr #32
 358:	000002d4 	ldrdeq	r0, [r0], -r4
 35c:	00008db0 			; <UNDEFINED> instruction: 0x00008db0
 360:	000002b0 			; <UNDEFINED> instruction: 0x000002b0
 364:	841c0e42 	ldrhi	r0, [ip], #-3650	; 0xfffff1be
 368:	86068507 	strhi	r8, [r6], -r7, lsl #10
 36c:	88048705 	stmdahi	r4, {r0, r2, r8, r9, sl, pc}
 370:	8e028903 	vmlahi.f16	s16, s4, s6	; <UNPREDICTABLE>
 374:	b00e4201 	andlt	r4, lr, r1, lsl #4
 378:	01480301 	cmpeq	r8, r1, lsl #6
 37c:	00001c0e 	andeq	r1, r0, lr, lsl #24
 380:	0000000c 	andeq	r0, r0, ip
 384:	ffffffff 			; <UNDEFINED> instruction: 0xffffffff
 388:	7c020001 	stcvc	0, cr0, [r2], {1}
 38c:	000d0c0e 	andeq	r0, sp, lr, lsl #24
 390:	00000014 	andeq	r0, r0, r4, lsl r0
 394:	00000380 	andeq	r0, r0, r0, lsl #7
 398:	00009060 	andeq	r9, r0, r0, rrx
 39c:	00000028 	andeq	r0, r0, r8, lsr #32
 3a0:	84080e42 	strhi	r0, [r8], #-3650	; 0xfffff1be
 3a4:	00018e02 	andeq	r8, r1, r2, lsl #28
 3a8:	0000000c 	andeq	r0, r0, ip
 3ac:	ffffffff 			; <UNDEFINED> instruction: 0xffffffff
 3b0:	7c020001 	stcvc	0, cr0, [r2], {1}
 3b4:	000d0c0e 	andeq	r0, sp, lr, lsl #24
 3b8:	00000014 	andeq	r0, r0, r4, lsl r0
 3bc:	000003a8 	andeq	r0, r0, r8, lsr #7
 3c0:	00009088 	andeq	r9, r0, r8, lsl #1
 3c4:	0000002c 	andeq	r0, r0, ip, lsr #32
 3c8:	84080e42 	strhi	r0, [r8], #-3650	; 0xfffff1be
 3cc:	00018e02 	andeq	r8, r1, r2, lsl #28
 3d0:	0000000c 	andeq	r0, r0, ip
 3d4:	ffffffff 			; <UNDEFINED> instruction: 0xffffffff
 3d8:	7c020001 	stcvc	0, cr0, [r2], {1}
 3dc:	000d0c0e 	andeq	r0, sp, lr, lsl #24
 3e0:	0000000c 	andeq	r0, r0, ip
 3e4:	000003d0 	ldrdeq	r0, [r0], -r0	; <UNPREDICTABLE>
 3e8:	000090b4 	strheq	r9, [r0], -r4
 3ec:	00000018 	andeq	r0, r0, r8, lsl r0
 3f0:	0000000c 	andeq	r0, r0, ip
 3f4:	000003d0 	ldrdeq	r0, [r0], -r0	; <UNPREDICTABLE>
 3f8:	000090cc 	andeq	r9, r0, ip, asr #1
 3fc:	00000014 	andeq	r0, r0, r4, lsl r0
 400:	00000014 	andeq	r0, r0, r4, lsl r0
 404:	000003d0 	ldrdeq	r0, [r0], -r0	; <UNPREDICTABLE>
 408:	000090e0 	andeq	r9, r0, r0, ror #1
 40c:	0000004c 	andeq	r0, r0, ip, asr #32
 410:	84080e42 	strhi	r0, [r8], #-3650	; 0xfffff1be
 414:	00018e02 	andeq	r8, r1, r2, lsl #28
 418:	0000000c 	andeq	r0, r0, ip
 41c:	ffffffff 			; <UNDEFINED> instruction: 0xffffffff
 420:	7c020001 	stcvc	0, cr0, [r2], {1}
 424:	000d0c0e 	andeq	r0, sp, lr, lsl #24
 428:	0000000c 	andeq	r0, r0, ip
 42c:	00000418 	andeq	r0, r0, r8, lsl r4
 430:	0000912c 	andeq	r9, r0, ip, lsr #2
 434:	00000018 	andeq	r0, r0, r8, lsl r0
 438:	00000014 	andeq	r0, r0, r4, lsl r0
 43c:	00000418 	andeq	r0, r0, r8, lsl r4
 440:	00009144 	andeq	r9, r0, r4, asr #2
 444:	00000014 	andeq	r0, r0, r4, lsl r0
 448:	84080e42 	strhi	r0, [r8], #-3650	; 0xfffff1be
 44c:	00018e02 	andeq	r8, r1, r2, lsl #28
 450:	00000014 	andeq	r0, r0, r4, lsl r0
 454:	00000418 	andeq	r0, r0, r8, lsl r4
 458:	00009158 	andeq	r9, r0, r8, asr r1
 45c:	0000000c 	andeq	r0, r0, ip
 460:	84080e42 	strhi	r0, [r8], #-3650	; 0xfffff1be
 464:	00018e02 	andeq	r8, r1, r2, lsl #28
 468:	00000018 	andeq	r0, r0, r8, lsl r0
 46c:	00000418 	andeq	r0, r0, r8, lsl r4
 470:	00009164 	andeq	r9, r0, r4, ror #2
 474:	00000024 	andeq	r0, r0, r4, lsr #32
 478:	84100e42 	ldrhi	r0, [r0], #-3650	; 0xfffff1be
 47c:	86038504 	strhi	r8, [r3], -r4, lsl #10
 480:	00018e02 	andeq	r8, r1, r2, lsl #28
 484:	00000014 	andeq	r0, r0, r4, lsl r0
 488:	00000418 	andeq	r0, r0, r8, lsl r4
 48c:	00009188 	andeq	r9, r0, r8, lsl #3
 490:	00000018 	andeq	r0, r0, r8, lsl r0
 494:	84080e42 	strhi	r0, [r8], #-3650	; 0xfffff1be
 498:	00018e02 	andeq	r8, r1, r2, lsl #28
 49c:	00000014 	andeq	r0, r0, r4, lsl r0
 4a0:	00000418 	andeq	r0, r0, r8, lsl r4
 4a4:	000091a0 	andeq	r9, r0, r0, lsr #3
 4a8:	00000018 	andeq	r0, r0, r8, lsl r0
 4ac:	84080e42 	strhi	r0, [r8], #-3650	; 0xfffff1be
 4b0:	00018e02 	andeq	r8, r1, r2, lsl #28
 4b4:	0000000c 	andeq	r0, r0, ip
 4b8:	ffffffff 			; <UNDEFINED> instruction: 0xffffffff
 4bc:	7c020001 	stcvc	0, cr0, [r2], {1}
 4c0:	000d0c0e 	andeq	r0, sp, lr, lsl #24
 4c4:	00000018 	andeq	r0, r0, r8, lsl r0
 4c8:	000004b4 			; <UNDEFINED> instruction: 0x000004b4
 4cc:	00009204 	andeq	r9, r0, r4, lsl #4
 4d0:	00000020 	andeq	r0, r0, r0, lsr #32
 4d4:	84100e42 	ldrhi	r0, [r0], #-3650	; 0xfffff1be
 4d8:	86038504 	strhi	r8, [r3], -r4, lsl #10
 4dc:	00018e02 	andeq	r8, r1, r2, lsl #28
 4e0:	00000014 	andeq	r0, r0, r4, lsl r0
 4e4:	000004b4 			; <UNDEFINED> instruction: 0x000004b4
 4e8:	00009224 	andeq	r9, r0, r4, lsr #4
 4ec:	000000b0 	strheq	r0, [r0], -r0	; <UNPREDICTABLE>
 4f0:	84080e42 	strhi	r0, [r8], #-3650	; 0xfffff1be
 4f4:	00018e02 	andeq	r8, r1, r2, lsl #28
 4f8:	00000014 	andeq	r0, r0, r4, lsl r0
 4fc:	000004b4 			; <UNDEFINED> instruction: 0x000004b4
 500:	000092d4 	ldrdeq	r9, [r0], -r4
 504:	00000018 	andeq	r0, r0, r8, lsl r0
 508:	84080e42 	strhi	r0, [r8], #-3650	; 0xfffff1be
 50c:	00018e02 	andeq	r8, r1, r2, lsl #28
 510:	00000014 	andeq	r0, r0, r4, lsl r0
 514:	000004b4 			; <UNDEFINED> instruction: 0x000004b4
 518:	000092ec 	andeq	r9, r0, ip, ror #5
 51c:	00000020 	andeq	r0, r0, r0, lsr #32
 520:	84080e42 	strhi	r0, [r8], #-3650	; 0xfffff1be
 524:	00018e02 	andeq	r8, r1, r2, lsl #28
 528:	00000014 	andeq	r0, r0, r4, lsl r0
 52c:	000004b4 			; <UNDEFINED> instruction: 0x000004b4
 530:	0000930c 	andeq	r9, r0, ip, lsl #6
 534:	00000030 	andeq	r0, r0, r0, lsr r0
 538:	84080e42 	strhi	r0, [r8], #-3650	; 0xfffff1be
 53c:	00018e02 	andeq	r8, r1, r2, lsl #28
 540:	00000014 	andeq	r0, r0, r4, lsl r0
 544:	000004b4 			; <UNDEFINED> instruction: 0x000004b4
 548:	0000933c 	andeq	r9, r0, ip, lsr r3
 54c:	00000030 	andeq	r0, r0, r0, lsr r0
 550:	84080e42 	strhi	r0, [r8], #-3650	; 0xfffff1be
 554:	00018e02 	andeq	r8, r1, r2, lsl #28
 558:	00000014 	andeq	r0, r0, r4, lsl r0
 55c:	000004b4 			; <UNDEFINED> instruction: 0x000004b4
 560:	0000936c 	andeq	r9, r0, ip, ror #6
 564:	00000010 	andeq	r0, r0, r0, lsl r0
 568:	84080e42 	strhi	r0, [r8], #-3650	; 0xfffff1be
 56c:	00018e02 	andeq	r8, r1, r2, lsl #28
 570:	0000000c 	andeq	r0, r0, ip
 574:	ffffffff 			; <UNDEFINED> instruction: 0xffffffff
 578:	7c020001 	stcvc	0, cr0, [r2], {1}
 57c:	000d0c0e 	andeq	r0, sp, lr, lsl #24
 580:	00000018 	andeq	r0, r0, r8, lsl r0
 584:	00000570 	andeq	r0, r0, r0, ror r5
 588:	0000937c 	andeq	r9, r0, ip, ror r3
 58c:	00000068 	andeq	r0, r0, r8, rrx
 590:	84100e4a 	ldrhi	r0, [r0], #-3658	; 0xfffff1b6
 594:	86038504 	strhi	r8, [r3], -r4, lsl #10
 598:	00018e02 	andeq	r8, r1, r2, lsl #28
 59c:	00000014 	andeq	r0, r0, r4, lsl r0
 5a0:	00000570 	andeq	r0, r0, r0, ror r5
 5a4:	000093e4 	andeq	r9, r0, r4, ror #7
 5a8:	00000010 	andeq	r0, r0, r0, lsl r0
 5ac:	84080e42 	strhi	r0, [r8], #-3650	; 0xfffff1be
 5b0:	00018e02 	andeq	r8, r1, r2, lsl #28
 5b4:	00000014 	andeq	r0, r0, r4, lsl r0
 5b8:	00000570 	andeq	r0, r0, r0, ror r5
 5bc:	000093f4 	strdeq	r9, [r0], -r4
 5c0:	00000024 	andeq	r0, r0, r4, lsr #32
 5c4:	84080e46 	strhi	r0, [r8], #-3654	; 0xfffff1ba
 5c8:	00018e02 	andeq	r8, r1, r2, lsl #28
 5cc:	00000014 	andeq	r0, r0, r4, lsl r0
 5d0:	00000570 	andeq	r0, r0, r0, ror r5
 5d4:	00009418 	andeq	r9, r0, r8, lsl r4
 5d8:	00000024 	andeq	r0, r0, r4, lsr #32
 5dc:	84080e46 	strhi	r0, [r8], #-3654	; 0xfffff1ba
 5e0:	00018e02 	andeq	r8, r1, r2, lsl #28
 5e4:	00000014 	andeq	r0, r0, r4, lsl r0
 5e8:	00000570 	andeq	r0, r0, r0, ror r5
 5ec:	0000943c 	andeq	r9, r0, ip, lsr r4
 5f0:	00000010 	andeq	r0, r0, r0, lsl r0
 5f4:	84080e42 	strhi	r0, [r8], #-3650	; 0xfffff1be
 5f8:	00018e02 	andeq	r8, r1, r2, lsl #28
 5fc:	00000014 	andeq	r0, r0, r4, lsl r0
 600:	00000570 	andeq	r0, r0, r0, ror r5
 604:	0000944c 	andeq	r9, r0, ip, asr #8
 608:	0000001c 	andeq	r0, r0, ip, lsl r0
 60c:	84080e42 	strhi	r0, [r8], #-3650	; 0xfffff1be
 610:	00018e02 	andeq	r8, r1, r2, lsl #28
 614:	00000018 	andeq	r0, r0, r8, lsl r0
 618:	00000570 	andeq	r0, r0, r0, ror r5
 61c:	00009468 	andeq	r9, r0, r8, ror #8
 620:	00000034 	andeq	r0, r0, r4, lsr r0
 624:	84080e46 	strhi	r0, [r8], #-3654	; 0xfffff1ba
 628:	4e018e02 	cdpmi	14, 0, cr8, cr1, cr2, {0}
 62c:	cec4000e 	cdpgt	0, 12, cr0, cr4, cr14, {0}
 630:	0000000c 	andeq	r0, r0, ip
 634:	ffffffff 			; <UNDEFINED> instruction: 0xffffffff
 638:	7c020001 	stcvc	0, cr0, [r2], {1}
 63c:	000d0c0e 	andeq	r0, sp, lr, lsl #24
 640:	0000000c 	andeq	r0, r0, ip
 644:	00000630 	andeq	r0, r0, r0, lsr r6
 648:	0000949c 	muleq	r0, ip, r4
 64c:	00000010 	andeq	r0, r0, r0, lsl r0
 650:	0000000c 	andeq	r0, r0, ip
 654:	00000630 	andeq	r0, r0, r0, lsr r6
 658:	000094ac 	andeq	r9, r0, ip, lsr #9
 65c:	0000000c 	andeq	r0, r0, ip
 660:	00000014 	andeq	r0, r0, r4, lsl r0
 664:	00000630 	andeq	r0, r0, r0, lsr r6
 668:	000094b8 			; <UNDEFINED> instruction: 0x000094b8
 66c:	00000050 	andeq	r0, r0, r0, asr r0
 670:	84080e52 	strhi	r0, [r8], #-3666	; 0xfffff1ae
 674:	00018e02 	andeq	r8, r1, r2, lsl #28
 678:	00000014 	andeq	r0, r0, r4, lsl r0
 67c:	00000630 	andeq	r0, r0, r0, lsr r6
 680:	00009508 	andeq	r9, r0, r8, lsl #10
 684:	00000064 	andeq	r0, r0, r4, rrx
 688:	84080e42 	strhi	r0, [r8], #-3650	; 0xfffff1be
 68c:	00018e02 	andeq	r8, r1, r2, lsl #28
 690:	0000000c 	andeq	r0, r0, ip
 694:	00000630 	andeq	r0, r0, r0, lsr r6
 698:	0000956c 	andeq	r9, r0, ip, ror #10
 69c:	00000004 	andeq	r0, r0, r4
 6a0:	00000014 	andeq	r0, r0, r4, lsl r0
 6a4:	00000630 	andeq	r0, r0, r0, lsr r6
 6a8:	00009570 	andeq	r9, r0, r0, ror r5
 6ac:	0000000c 	andeq	r0, r0, ip
 6b0:	84080e42 	strhi	r0, [r8], #-3650	; 0xfffff1be
 6b4:	00018e02 	andeq	r8, r1, r2, lsl #28
 6b8:	00000014 	andeq	r0, r0, r4, lsl r0
 6bc:	00000630 	andeq	r0, r0, r0, lsr r6
 6c0:	0000957c 	andeq	r9, r0, ip, ror r5
 6c4:	0000008c 	andeq	r0, r0, ip, lsl #1
 6c8:	84080e42 	strhi	r0, [r8], #-3650	; 0xfffff1be
 6cc:	00018e02 	andeq	r8, r1, r2, lsl #28
 6d0:	0000000c 	andeq	r0, r0, ip
 6d4:	00000630 	andeq	r0, r0, r0, lsr r6
 6d8:	00009608 	andeq	r9, r0, r8, lsl #12
 6dc:	00000004 	andeq	r0, r0, r4
 6e0:	0000000c 	andeq	r0, r0, ip
 6e4:	00000630 	andeq	r0, r0, r0, lsr r6
 6e8:	0000960c 	andeq	r9, r0, ip, lsl #12
 6ec:	00000014 	andeq	r0, r0, r4, lsl r0
 6f0:	0000000c 	andeq	r0, r0, ip
 6f4:	00000630 	andeq	r0, r0, r0, lsr r6
 6f8:	00009620 	andeq	r9, r0, r0, lsr #12
 6fc:	00000010 	andeq	r0, r0, r0, lsl r0

Disassembly of section .debug_ranges:

00000000 <.debug_ranges>:
   0:	000000a0 	andeq	r0, r0, r0, lsr #1
   4:	000000e8 	andeq	r0, r0, r8, ror #1
   8:	00000100 	andeq	r0, r0, r0, lsl #2
   c:	0000012c 	andeq	r0, r0, ip, lsr #2
	...
  18:	000001d4 	ldrdeq	r0, [r0], -r4
  1c:	0000021c 	andeq	r0, r0, ip, lsl r2
  20:	00000220 	andeq	r0, r0, r0, lsr #4
  24:	00000250 	andeq	r0, r0, r0, asr r2
	...
  30:	000002d0 	ldrdeq	r0, [r0], -r0	; <UNPREDICTABLE>
  34:	00000318 	andeq	r0, r0, r8, lsl r3
  38:	0000031c 	andeq	r0, r0, ip, lsl r3
  3c:	0000034c 	andeq	r0, r0, ip, asr #6
	...
  48:	0000074c 	andeq	r0, r0, ip, asr #14
  4c:	00000750 	andeq	r0, r0, r0, asr r7
  50:	00000758 	andeq	r0, r0, r8, asr r7
  54:	00000764 	andeq	r0, r0, r4, ror #14
  58:	0000078c 	andeq	r0, r0, ip, lsl #15
  5c:	0000083c 	andeq	r0, r0, ip, lsr r8
	...
  68:	000090b4 	strheq	r9, [r0], -r4
  6c:	0000912c 	andeq	r9, r0, ip, lsr #2
	...
