
part1-test1.elf:     file format elf32-littlearm


Disassembly of section .text:

00008000 <_start>:
    8000:	e3a0d302 	mov	sp, #134217728	; 0x8000000
    8004:	e3a0b000 	mov	fp, #0
    8008:	eb000372 	bl	8dd8 <_cstart>
    800c:	eb000389 	bl	8e38 <rpi_reboot>

00008010 <notmain>:
    8010:	e92d4070 	push	{r4, r5, r6, lr}
    8014:	e59f00a0 	ldr	r0, [pc, #160]	; 80bc <notmain+0xac>
    8018:	eb000196 	bl	8678 <printk>
    801c:	e3a01601 	mov	r1, #1048576	; 0x100000
    8020:	e1a00001 	mov	r0, r1
    8024:	eb000088 	bl	824c <ck_init>
    8028:	e59f6090 	ldr	r6, [pc, #144]	; 80c0 <notmain+0xb0>
    802c:	e59f5090 	ldr	r5, [pc, #144]	; 80c4 <notmain+0xb4>
    8030:	e3a03013 	mov	r3, #19
    8034:	e1a02006 	mov	r2, r6
    8038:	e1a01005 	mov	r1, r5
    803c:	e3a00004 	mov	r0, #4
    8040:	eb0000d0 	bl	8388 <ckalloc>
    8044:	e1a04000 	mov	r4, r0
    8048:	e59f0078 	ldr	r0, [pc, #120]	; 80c8 <notmain+0xb8>
    804c:	eb000189 	bl	8678 <printk>
    8050:	e1a01004 	mov	r1, r4
    8054:	e59f0070 	ldr	r0, [pc, #112]	; 80cc <notmain+0xbc>
    8058:	eb000186 	bl	8678 <printk>
    805c:	e3a02004 	mov	r2, #4
    8060:	e3a01000 	mov	r1, #0
    8064:	e1a00004 	mov	r0, r4
    8068:	eb000352 	bl	8db8 <memset>
    806c:	e3a03016 	mov	r3, #22
    8070:	e1a02006 	mov	r2, r6
    8074:	e1a01005 	mov	r1, r5
    8078:	e1a00004 	mov	r0, r4
    807c:	eb00008f 	bl	82c0 <ckfree>
    8080:	eb000147 	bl	85a4 <ck_heap_errors>
    8084:	e3500000 	cmp	r0, #0
    8088:	1a000004 	bne	80a0 <notmain+0x90>
    808c:	e59f0034 	ldr	r0, [pc, #52]	; 80c8 <notmain+0xb8>
    8090:	eb000178 	bl	8678 <printk>
    8094:	e59f0034 	ldr	r0, [pc, #52]	; 80d0 <notmain+0xc0>
    8098:	eb000176 	bl	8678 <printk>
    809c:	e8bd8070 	pop	{r4, r5, r6, pc}
    80a0:	eb00033a 	bl	8d90 <rpi_reset_putc>
    80a4:	e3a03019 	mov	r3, #25
    80a8:	e1a02006 	mov	r2, r6
    80ac:	e1a01005 	mov	r1, r5
    80b0:	e59f001c 	ldr	r0, [pc, #28]	; 80d4 <notmain+0xc4>
    80b4:	eb00016f 	bl	8678 <printk>
    80b8:	eb000371 	bl	8e84 <clean_reboot>
    80bc:	00009240 	andeq	r9, r0, r0, asr #4
    80c0:	00009238 	andeq	r9, r0, r8, lsr r2
    80c4:	00009248 	andeq	r9, r0, r8, asr #4
    80c8:	00009258 	andeq	r9, r0, r8, asr r2
    80cc:	00009260 	andeq	r9, r0, r0, ror #4
    80d0:	00009298 	muleq	r0, r8, r2
    80d4:	00009274 	andeq	r9, r0, r4, ror r2

000080d8 <b_rz1_ptr>:
    80d8:	e2800038 	add	r0, r0, #56	; 0x38
    80dc:	e12fff1e 	bx	lr

000080e0 <b_alloc_ptr>:
    80e0:	e92d4010 	push	{r4, lr}
    80e4:	ebfffffb 	bl	80d8 <b_rz1_ptr>
    80e8:	e2800080 	add	r0, r0, #128	; 0x80
    80ec:	e8bd8010 	pop	{r4, pc}

000080f0 <b_rz2_ptr>:
    80f0:	e92d4010 	push	{r4, lr}
    80f4:	e1a04000 	mov	r4, r0
    80f8:	ebfffff8 	bl	80e0 <b_alloc_ptr>
    80fc:	e5943000 	ldr	r3, [r4]
    8100:	e0800003 	add	r0, r0, r3
    8104:	e8bd8010 	pop	{r4, pc}

00008108 <b_rz2_nbytes>:
    8108:	e5900004 	ldr	r0, [r0, #4]
    810c:	e2800080 	add	r0, r0, #128	; 0x80
    8110:	e12fff1e 	bx	lr

00008114 <b_addr_to_hdr>:
    8114:	e24000b8 	sub	r0, r0, #184	; 0xb8
    8118:	e12fff1e 	bx	lr

0000811c <check_mem>:
    811c:	e3a03000 	mov	r3, #0
    8120:	e1530001 	cmp	r3, r1
    8124:	2a00000e 	bcs	8164 <check_mem+0x48>
    8128:	e7d0c003 	ldrb	ip, [r0, r3]
    812c:	e35c00fe 	cmp	ip, #254	; 0xfe
    8130:	02833001 	addeq	r3, r3, #1
    8134:	0afffff9 	beq	8120 <check_mem+0x4>
    8138:	e92d4070 	push	{r4, r5, r6, lr}
    813c:	e1a04001 	mov	r4, r1
    8140:	e1a05000 	mov	r5, r0
    8144:	e59f0020 	ldr	r0, [pc, #32]	; 816c <check_mem+0x50>
    8148:	eb00014a 	bl	8678 <printk>
    814c:	e1a02004 	mov	r2, r4
    8150:	e1a01005 	mov	r1, r5
    8154:	e59f0014 	ldr	r0, [pc, #20]	; 8170 <check_mem+0x54>
    8158:	eb000146 	bl	8678 <printk>
    815c:	e3a00000 	mov	r0, #0
    8160:	e8bd8070 	pop	{r4, r5, r6, pc}
    8164:	e3a00001 	mov	r0, #1
    8168:	e12fff1e 	bx	lr
    816c:	00009258 	andeq	r9, r0, r8, asr r2
    8170:	000092cc 	andeq	r9, r0, ip, asr #5

00008174 <hdr_cksum>:
    8174:	e92d4070 	push	{r4, r5, r6, lr}
    8178:	e1a04000 	mov	r4, r0
    817c:	e590500c 	ldr	r5, [r0, #12]
    8180:	e3a03000 	mov	r3, #0
    8184:	e580300c 	str	r3, [r0, #12]
    8188:	e3a01038 	mov	r1, #56	; 0x38
    818c:	eb0002b3 	bl	8c60 <fast_hash>
    8190:	e584500c 	str	r5, [r4, #12]
    8194:	e8bd8070 	pop	{r4, r5, r6, pc}

00008198 <check_hdr>:
    8198:	e92d4070 	push	{r4, r5, r6, lr}
    819c:	e1a04000 	mov	r4, r0
    81a0:	e5903008 	ldr	r3, [r0, #8]
    81a4:	e243300b 	sub	r3, r3, #11
    81a8:	e3530001 	cmp	r3, #1
    81ac:	9a000007 	bls	81d0 <check_hdr+0x38>
    81b0:	e59f0030 	ldr	r0, [pc, #48]	; 81e8 <check_hdr+0x50>
    81b4:	eb00012f 	bl	8678 <printk>
    81b8:	e3a02000 	mov	r2, #0
    81bc:	e1a01004 	mov	r1, r4
    81c0:	e59f0024 	ldr	r0, [pc, #36]	; 81ec <check_hdr+0x54>
    81c4:	eb00012b 	bl	8678 <printk>
    81c8:	e3a00000 	mov	r0, #0
    81cc:	e8bd8070 	pop	{r4, r5, r6, pc}
    81d0:	e590500c 	ldr	r5, [r0, #12]
    81d4:	ebffffe6 	bl	8174 <hdr_cksum>
    81d8:	e1550000 	cmp	r5, r0
    81dc:	1afffff3 	bne	81b0 <check_hdr+0x18>
    81e0:	e3a00001 	mov	r0, #1
    81e4:	e8bd8070 	pop	{r4, r5, r6, pc}
    81e8:	00009258 	andeq	r9, r0, r8, asr r2
    81ec:	000092cc 	andeq	r9, r0, ip, asr #5

000081f0 <check_block>:
    81f0:	e92d4070 	push	{r4, r5, r6, lr}
    81f4:	e1a04000 	mov	r4, r0
    81f8:	ebffffe6 	bl	8198 <check_hdr>
    81fc:	e3500000 	cmp	r0, #0
    8200:	08bd8070 	popeq	{r4, r5, r6, pc}
    8204:	e1a00004 	mov	r0, r4
    8208:	ebffffb2 	bl	80d8 <b_rz1_ptr>
    820c:	e3a01080 	mov	r1, #128	; 0x80
    8210:	ebffffc1 	bl	811c <check_mem>
    8214:	e3500000 	cmp	r0, #0
    8218:	08bd8070 	popeq	{r4, r5, r6, pc}
    821c:	e1a00004 	mov	r0, r4
    8220:	ebffffb2 	bl	80f0 <b_rz2_ptr>
    8224:	e1a05000 	mov	r5, r0
    8228:	e1a00004 	mov	r0, r4
    822c:	ebffffb5 	bl	8108 <b_rz2_nbytes>
    8230:	e1a01000 	mov	r1, r0
    8234:	e1a00005 	mov	r0, r5
    8238:	ebffffb7 	bl	811c <check_mem>
    823c:	e3500000 	cmp	r0, #0
    8240:	08bd8070 	popeq	{r4, r5, r6, pc}
    8244:	e3a00001 	mov	r0, #1
    8248:	e8bd8070 	pop	{r4, r5, r6, pc}

0000824c <ck_init>:
    824c:	e92d4070 	push	{r4, r5, r6, lr}
    8250:	e59f3054 	ldr	r3, [pc, #84]	; 82ac <ck_init+0x60>
    8254:	e5933000 	ldr	r3, [r3]
    8258:	e3130007 	tst	r3, #7
    825c:	1a00000b 	bne	8290 <ck_init+0x44>
    8260:	e1a04000 	mov	r4, r0
    8264:	e1a05001 	mov	r5, r1
    8268:	e3a02080 	mov	r2, #128	; 0x80
    826c:	e3a01038 	mov	r1, #56	; 0x38
    8270:	e59f0038 	ldr	r0, [pc, #56]	; 82b0 <ck_init+0x64>
    8274:	eb0000ff 	bl	8678 <printk>
    8278:	e59f302c 	ldr	r3, [pc, #44]	; 82ac <ck_init+0x60>
    827c:	e5834000 	str	r4, [r3]
    8280:	e5834004 	str	r4, [r3, #4]
    8284:	e0844005 	add	r4, r4, r5
    8288:	e5834008 	str	r4, [r3, #8]
    828c:	e8bd8070 	pop	{r4, r5, r6, pc}
    8290:	eb0002be 	bl	8d90 <rpi_reset_putc>
    8294:	e3a0300a 	mov	r3, #10
    8298:	e59f2014 	ldr	r2, [pc, #20]	; 82b4 <ck_init+0x68>
    829c:	e59f1014 	ldr	r1, [pc, #20]	; 82b8 <ck_init+0x6c>
    82a0:	e59f0014 	ldr	r0, [pc, #20]	; 82bc <ck_init+0x70>
    82a4:	eb0000f3 	bl	8678 <printk>
    82a8:	eb0002f5 	bl	8e84 <clean_reboot>
    82ac:	0000965c 	andeq	r9, r0, ip, asr r6
    82b0:	00009324 	andeq	r9, r0, r4, lsr #6
    82b4:	000092b4 			; <UNDEFINED> instruction: 0x000092b4
    82b8:	000092f0 	strdeq	r9, [r0], -r0
    82bc:	000092fc 	strdeq	r9, [r0], -ip

000082c0 <ckfree>:
    82c0:	e92d41f0 	push	{r4, r5, r6, r7, r8, lr}
    82c4:	e1a08000 	mov	r8, r0
    82c8:	e1a07001 	mov	r7, r1
    82cc:	e1a06002 	mov	r6, r2
    82d0:	e1a05003 	mov	r5, r3
    82d4:	ebffff8e 	bl	8114 <b_addr_to_hdr>
    82d8:	e59f308c 	ldr	r3, [pc, #140]	; 836c <ckfree+0xac>
    82dc:	e5933004 	ldr	r3, [r3, #4]
    82e0:	e3530000 	cmp	r3, #0
    82e4:	0a000012 	beq	8334 <ckfree+0x74>
    82e8:	e1a04000 	mov	r4, r0
    82ec:	e59f007c 	ldr	r0, [pc, #124]	; 8370 <ckfree+0xb0>
    82f0:	eb0000e0 	bl	8678 <printk>
    82f4:	e1a01008 	mov	r1, r8
    82f8:	e59f0074 	ldr	r0, [pc, #116]	; 8374 <ckfree+0xb4>
    82fc:	eb0000dd 	bl	8678 <printk>
    8300:	e1a00004 	mov	r0, r4
    8304:	ebffffb9 	bl	81f0 <check_block>
    8308:	e3500000 	cmp	r0, #0
    830c:	0a00000f 	beq	8350 <ckfree+0x90>
    8310:	e584701c 	str	r7, [r4, #28]
    8314:	e5846020 	str	r6, [r4, #32]
    8318:	e5845024 	str	r5, [r4, #36]	; 0x24
    831c:	e3a0300c 	mov	r3, #12
    8320:	e5843008 	str	r3, [r4, #8]
    8324:	e1a00004 	mov	r0, r4
    8328:	ebffff91 	bl	8174 <hdr_cksum>
    832c:	e584000c 	str	r0, [r4, #12]
    8330:	e8bd81f0 	pop	{r4, r5, r6, r7, r8, pc}
    8334:	eb000295 	bl	8d90 <rpi_reset_putc>
    8338:	e3a03066 	mov	r3, #102	; 0x66
    833c:	e59f2034 	ldr	r2, [pc, #52]	; 8378 <ckfree+0xb8>
    8340:	e59f1034 	ldr	r1, [pc, #52]	; 837c <ckfree+0xbc>
    8344:	e59f0034 	ldr	r0, [pc, #52]	; 8380 <ckfree+0xc0>
    8348:	eb0000ca 	bl	8678 <printk>
    834c:	eb0002cc 	bl	8e84 <clean_reboot>
    8350:	eb00028e 	bl	8d90 <rpi_reset_putc>
    8354:	e3a03068 	mov	r3, #104	; 0x68
    8358:	e59f2018 	ldr	r2, [pc, #24]	; 8378 <ckfree+0xb8>
    835c:	e59f1018 	ldr	r1, [pc, #24]	; 837c <ckfree+0xbc>
    8360:	e59f001c 	ldr	r0, [pc, #28]	; 8384 <ckfree+0xc4>
    8364:	eb0000c3 	bl	8678 <printk>
    8368:	eb0002c5 	bl	8e84 <clean_reboot>
    836c:	0000965c 	andeq	r9, r0, ip, asr r6
    8370:	00009258 	andeq	r9, r0, r8, asr r2
    8374:	00009374 	andeq	r9, r0, r4, ror r3
    8378:	000092bc 			; <UNDEFINED> instruction: 0x000092bc
    837c:	000092f0 	strdeq	r9, [r0], -r0
    8380:	00009340 	andeq	r9, r0, r0, asr #6
    8384:	00009380 	andeq	r9, r0, r0, lsl #7

00008388 <ckalloc>:
    8388:	e92d43f0 	push	{r4, r5, r6, r7, r8, r9, lr}
    838c:	e24dd00c 	sub	sp, sp, #12
    8390:	e1a07003 	mov	r7, r3
    8394:	e59f31d4 	ldr	r3, [pc, #468]	; 8570 <ckalloc+0x1e8>
    8398:	e5933004 	ldr	r3, [r3, #4]
    839c:	e3530000 	cmp	r3, #0
    83a0:	0a000042 	beq	84b0 <ckalloc+0x128>
    83a4:	e1a05000 	mov	r5, r0
    83a8:	e1a09001 	mov	r9, r1
    83ac:	e1a08002 	mov	r8, r2
    83b0:	e59f01bc 	ldr	r0, [pc, #444]	; 8574 <ckalloc+0x1ec>
    83b4:	eb0000af 	bl	8678 <printk>
    83b8:	e59f01b8 	ldr	r0, [pc, #440]	; 8578 <ckalloc+0x1f0>
    83bc:	eb0000ad 	bl	8678 <printk>
    83c0:	e2853007 	add	r3, r5, #7
    83c4:	e3c33007 	bic	r3, r3, #7
    83c8:	e2836f4e 	add	r6, r3, #312	; 0x138
    83cc:	e1550006 	cmp	r5, r6
    83d0:	8a00003d 	bhi	84cc <ckalloc+0x144>
    83d4:	e59f2194 	ldr	r2, [pc, #404]	; 8570 <ckalloc+0x1e8>
    83d8:	e5924004 	ldr	r4, [r2, #4]
    83dc:	e0841006 	add	r1, r4, r6
    83e0:	e5922008 	ldr	r2, [r2, #8]
    83e4:	e1510002 	cmp	r1, r2
    83e8:	2a000044 	bcs	8500 <ckalloc+0x178>
    83ec:	e5845000 	str	r5, [r4]
    83f0:	e5843004 	str	r3, [r4, #4]
    83f4:	e3a0300c 	mov	r3, #12
    83f8:	e5843008 	str	r3, [r4, #8]
    83fc:	e5849010 	str	r9, [r4, #16]
    8400:	e5848014 	str	r8, [r4, #20]
    8404:	e5847018 	str	r7, [r4, #24]
    8408:	e3a03001 	mov	r3, #1
    840c:	e5843028 	str	r3, [r4, #40]	; 0x28
    8410:	e3a03000 	mov	r3, #0
    8414:	e584302c 	str	r3, [r4, #44]	; 0x2c
    8418:	e1a00004 	mov	r0, r4
    841c:	ebffff2d 	bl	80d8 <b_rz1_ptr>
    8420:	e3a02080 	mov	r2, #128	; 0x80
    8424:	e3a010fe 	mov	r1, #254	; 0xfe
    8428:	eb0001f4 	bl	8c00 <memcpy>
    842c:	e1a00004 	mov	r0, r4
    8430:	ebffff2e 	bl	80f0 <b_rz2_ptr>
    8434:	e1a07000 	mov	r7, r0
    8438:	e1a00004 	mov	r0, r4
    843c:	ebffff31 	bl	8108 <b_rz2_nbytes>
    8440:	e1a02000 	mov	r2, r0
    8444:	e3a010fe 	mov	r1, #254	; 0xfe
    8448:	e1a00007 	mov	r0, r7
    844c:	eb0001eb 	bl	8c00 <memcpy>
    8450:	e1a00004 	mov	r0, r4
    8454:	ebffff46 	bl	8174 <hdr_cksum>
    8458:	e584000c 	str	r0, [r4, #12]
    845c:	e59f210c 	ldr	r2, [pc, #268]	; 8570 <ckalloc+0x1e8>
    8460:	e5923004 	ldr	r3, [r2, #4]
    8464:	e0833006 	add	r3, r3, r6
    8468:	e5823004 	str	r3, [r2, #4]
    846c:	e1a00004 	mov	r0, r4
    8470:	ebffff5e 	bl	81f0 <check_block>
    8474:	e3500000 	cmp	r0, #0
    8478:	0a000035 	beq	8554 <ckalloc+0x1cc>
    847c:	e1a00004 	mov	r0, r4
    8480:	ebffff16 	bl	80e0 <b_alloc_ptr>
    8484:	e1a04000 	mov	r4, r0
    8488:	e59f00e4 	ldr	r0, [pc, #228]	; 8574 <ckalloc+0x1ec>
    848c:	eb000079 	bl	8678 <printk>
    8490:	e1a03004 	mov	r3, r4
    8494:	e1a02006 	mov	r2, r6
    8498:	e1a01005 	mov	r1, r5
    849c:	e59f00d8 	ldr	r0, [pc, #216]	; 857c <ckalloc+0x1f4>
    84a0:	eb000074 	bl	8678 <printk>
    84a4:	e1a00004 	mov	r0, r4
    84a8:	e28dd00c 	add	sp, sp, #12
    84ac:	e8bd83f0 	pop	{r4, r5, r6, r7, r8, r9, pc}
    84b0:	eb000236 	bl	8d90 <rpi_reset_putc>
    84b4:	e3a0307a 	mov	r3, #122	; 0x7a
    84b8:	e59f20c0 	ldr	r2, [pc, #192]	; 8580 <ckalloc+0x1f8>
    84bc:	e59f10c0 	ldr	r1, [pc, #192]	; 8584 <ckalloc+0x1fc>
    84c0:	e59f00c0 	ldr	r0, [pc, #192]	; 8588 <ckalloc+0x200>
    84c4:	eb00006b 	bl	8678 <printk>
    84c8:	eb00026d 	bl	8e84 <clean_reboot>
    84cc:	e59f00b8 	ldr	r0, [pc, #184]	; 858c <ckalloc+0x204>
    84d0:	eb000068 	bl	8678 <printk>
    84d4:	e1a01005 	mov	r1, r5
    84d8:	e59f00b0 	ldr	r0, [pc, #176]	; 8590 <ckalloc+0x208>
    84dc:	eb000065 	bl	8678 <printk>
    84e0:	eb00022a 	bl	8d90 <rpi_reset_putc>
    84e4:	e58d5000 	str	r5, [sp]
    84e8:	e3a03082 	mov	r3, #130	; 0x82
    84ec:	e59f208c 	ldr	r2, [pc, #140]	; 8580 <ckalloc+0x1f8>
    84f0:	e59f108c 	ldr	r1, [pc, #140]	; 8584 <ckalloc+0x1fc>
    84f4:	e59f0098 	ldr	r0, [pc, #152]	; 8594 <ckalloc+0x20c>
    84f8:	eb00005e 	bl	8678 <printk>
    84fc:	eb000260 	bl	8e84 <clean_reboot>
    8500:	e59f0084 	ldr	r0, [pc, #132]	; 858c <ckalloc+0x204>
    8504:	eb00005b 	bl	8678 <printk>
    8508:	e59f4060 	ldr	r4, [pc, #96]	; 8570 <ckalloc+0x1e8>
    850c:	e5941008 	ldr	r1, [r4, #8]
    8510:	e5943004 	ldr	r3, [r4, #4]
    8514:	e1a02006 	mov	r2, r6
    8518:	e0411003 	sub	r1, r1, r3
    851c:	e59f0074 	ldr	r0, [pc, #116]	; 8598 <ckalloc+0x210>
    8520:	eb000054 	bl	8678 <printk>
    8524:	eb000219 	bl	8d90 <rpi_reset_putc>
    8528:	e58d6004 	str	r6, [sp, #4]
    852c:	e5943008 	ldr	r3, [r4, #8]
    8530:	e5942004 	ldr	r2, [r4, #4]
    8534:	e0433002 	sub	r3, r3, r2
    8538:	e58d3000 	str	r3, [sp]
    853c:	e3a03086 	mov	r3, #134	; 0x86
    8540:	e59f2038 	ldr	r2, [pc, #56]	; 8580 <ckalloc+0x1f8>
    8544:	e59f1038 	ldr	r1, [pc, #56]	; 8584 <ckalloc+0x1fc>
    8548:	e59f004c 	ldr	r0, [pc, #76]	; 859c <ckalloc+0x214>
    854c:	eb000049 	bl	8678 <printk>
    8550:	eb00024b 	bl	8e84 <clean_reboot>
    8554:	eb00020d 	bl	8d90 <rpi_reset_putc>
    8558:	e3a03094 	mov	r3, #148	; 0x94
    855c:	e59f201c 	ldr	r2, [pc, #28]	; 8580 <ckalloc+0x1f8>
    8560:	e59f101c 	ldr	r1, [pc, #28]	; 8584 <ckalloc+0x1fc>
    8564:	e59f0034 	ldr	r0, [pc, #52]	; 85a0 <ckalloc+0x218>
    8568:	eb000042 	bl	8678 <printk>
    856c:	eb000244 	bl	8e84 <clean_reboot>
    8570:	0000965c 	andeq	r9, r0, ip, asr r6
    8574:	00009258 	andeq	r9, r0, r8, asr r2
    8578:	000093a0 	andeq	r9, r0, r0, lsr #7
    857c:	0000948c 	andeq	r9, r0, ip, lsl #9
    8580:	000092c4 	andeq	r9, r0, r4, asr #5
    8584:	000092f0 	strdeq	r9, [r0], -r0
    8588:	00009340 	andeq	r9, r0, r0, asr #6
    858c:	000093b8 			; <UNDEFINED> instruction: 0x000093b8
    8590:	000093c4 	andeq	r9, r0, r4, asr #7
    8594:	000093ec 	andeq	r9, r0, ip, ror #7
    8598:	00009424 	andeq	r9, r0, r4, lsr #8
    859c:	00009450 	andeq	r9, r0, r0, asr r4
    85a0:	00009380 	andeq	r9, r0, r0, lsl #7

000085a4 <ck_heap_errors>:
    85a4:	e92d4070 	push	{r4, r5, r6, lr}
    85a8:	e59f40b4 	ldr	r4, [pc, #180]	; 8664 <ck_heap_errors+0xc0>
    85ac:	e5943004 	ldr	r3, [r4, #4]
    85b0:	e5945000 	ldr	r5, [r4]
    85b4:	e0435005 	sub	r5, r3, r5
    85b8:	e5946008 	ldr	r6, [r4, #8]
    85bc:	e0466003 	sub	r6, r6, r3
    85c0:	e59f00a0 	ldr	r0, [pc, #160]	; 8668 <ck_heap_errors+0xc4>
    85c4:	eb00002b 	bl	8678 <printk>
    85c8:	e1a02006 	mov	r2, r6
    85cc:	e1a01005 	mov	r1, r5
    85d0:	e59f0094 	ldr	r0, [pc, #148]	; 866c <ck_heap_errors+0xc8>
    85d4:	eb000027 	bl	8678 <printk>
    85d8:	e5944000 	ldr	r4, [r4]
    85dc:	e3a05000 	mov	r5, #0
    85e0:	e1a06005 	mov	r6, r5
    85e4:	ea000005 	b	8600 <ck_heap_errors+0x5c>
    85e8:	e2855001 	add	r5, r5, #1
    85ec:	e5943000 	ldr	r3, [r4]
    85f0:	e5942004 	ldr	r2, [r4, #4]
    85f4:	e0833002 	add	r3, r3, r2
    85f8:	e2833f4e 	add	r3, r3, #312	; 0x138
    85fc:	e0844003 	add	r4, r4, r3
    8600:	e59f305c 	ldr	r3, [pc, #92]	; 8664 <ck_heap_errors+0xc0>
    8604:	e5933004 	ldr	r3, [r3, #4]
    8608:	e1540003 	cmp	r4, r3
    860c:	0a000004 	beq	8624 <ck_heap_errors+0x80>
    8610:	e1a00004 	mov	r0, r4
    8614:	ebfffef5 	bl	81f0 <check_block>
    8618:	e3500000 	cmp	r0, #0
    861c:	02866001 	addeq	r6, r6, #1
    8620:	eafffff0 	b	85e8 <ck_heap_errors+0x44>
    8624:	e3560000 	cmp	r6, #0
    8628:	1a000006 	bne	8648 <ck_heap_errors+0xa4>
    862c:	e59f0034 	ldr	r0, [pc, #52]	; 8668 <ck_heap_errors+0xc4>
    8630:	eb000010 	bl	8678 <printk>
    8634:	e1a01005 	mov	r1, r5
    8638:	e59f0030 	ldr	r0, [pc, #48]	; 8670 <ck_heap_errors+0xcc>
    863c:	eb00000d 	bl	8678 <printk>
    8640:	e1a00006 	mov	r0, r6
    8644:	e8bd8070 	pop	{r4, r5, r6, pc}
    8648:	e59f0018 	ldr	r0, [pc, #24]	; 8668 <ck_heap_errors+0xc4>
    864c:	eb000009 	bl	8678 <printk>
    8650:	e1a02006 	mov	r2, r6
    8654:	e1a01005 	mov	r1, r5
    8658:	e59f0014 	ldr	r0, [pc, #20]	; 8674 <ck_heap_errors+0xd0>
    865c:	eb000005 	bl	8678 <printk>
    8660:	eafffff6 	b	8640 <ck_heap_errors+0x9c>
    8664:	0000965c 	andeq	r9, r0, ip, asr r6
    8668:	00009258 	andeq	r9, r0, r8, asr r2
    866c:	000094bc 			; <UNDEFINED> instruction: 0x000094bc
    8670:	0000951c 	andeq	r9, r0, ip, lsl r5
    8674:	000094f4 	strdeq	r9, [r0], -r4

00008678 <printk>:
    8678:	e92d000f 	push	{r0, r1, r2, r3}
    867c:	e92d4030 	push	{r4, r5, lr}
    8680:	e24dd00c 	sub	sp, sp, #12
    8684:	e28d301c 	add	r3, sp, #28
    8688:	e58d3004 	str	r3, [sp, #4]
    868c:	e59f4034 	ldr	r4, [pc, #52]	; 86c8 <printk+0x50>
    8690:	e59d2018 	ldr	r2, [sp, #24]
    8694:	e3a01b01 	mov	r1, #1024	; 0x400
    8698:	e1a00004 	mov	r0, r4
    869c:	eb0000a7 	bl	8940 <va_printk>
    86a0:	e1a05000 	mov	r5, r0
    86a4:	e59f3020 	ldr	r3, [pc, #32]	; 86cc <printk+0x54>
    86a8:	e5933000 	ldr	r3, [r3]
    86ac:	e1a00004 	mov	r0, r4
    86b0:	e12fff33 	blx	r3
    86b4:	e1a00005 	mov	r0, r5
    86b8:	e28dd00c 	add	sp, sp, #12
    86bc:	e8bd4030 	pop	{r4, r5, lr}
    86c0:	e28dd010 	add	sp, sp, #16
    86c4:	e12fff1e 	bx	lr
    86c8:	00009668 	andeq	r9, r0, r8, ror #12
    86cc:	00009230 	andeq	r9, r0, r0, lsr r2

000086d0 <isdigit>:
    86d0:	e2400030 	sub	r0, r0, #48	; 0x30
    86d4:	e3500009 	cmp	r0, #9
    86d8:	83a00000 	movhi	r0, #0
    86dc:	93a00001 	movls	r0, #1
    86e0:	e12fff1e 	bx	lr

000086e4 <pad>:
    86e4:	e0401001 	sub	r1, r0, r1
    86e8:	ea000003 	b	86fc <pad+0x18>
    86ec:	e3a03020 	mov	r3, #32
    86f0:	e5c03000 	strb	r3, [r0]
    86f4:	e2811001 	add	r1, r1, #1
    86f8:	e2800001 	add	r0, r0, #1
    86fc:	e1510002 	cmp	r1, r2
    8700:	bafffff9 	blt	86ec <pad+0x8>
    8704:	e3a03000 	mov	r3, #0
    8708:	e5c03000 	strb	r3, [r0]
    870c:	e12fff1e 	bx	lr

00008710 <reverse>:
    8710:	e042c003 	sub	ip, r2, r3
    8714:	e28cc001 	add	ip, ip, #1
    8718:	e15c0001 	cmp	ip, r1
    871c:	c04cc001 	subgt	ip, ip, r1
    8720:	c083300c 	addgt	r3, r3, ip
    8724:	e2422001 	sub	r2, r2, #1
    8728:	e1a01000 	mov	r1, r0
    872c:	ea000002 	b	873c <reverse+0x2c>
    8730:	e452c001 	ldrb	ip, [r2], #-1
    8734:	e5c1c000 	strb	ip, [r1]
    8738:	e2811001 	add	r1, r1, #1
    873c:	e1520003 	cmp	r2, r3
    8740:	2afffffa 	bcs	8730 <reverse+0x20>
    8744:	e3a03000 	mov	r3, #0
    8748:	e5c13000 	strb	r3, [r1]
    874c:	e12fff1e 	bx	lr

00008750 <emit>:
    8750:	e92d40f0 	push	{r4, r5, r6, r7, lr}
    8754:	e24dd044 	sub	sp, sp, #68	; 0x44
    8758:	e1a05001 	mov	r5, r1
    875c:	e1a04002 	mov	r4, r2
    8760:	e59d2058 	ldr	r2, [sp, #88]	; 0x58
    8764:	e1520004 	cmp	r2, r4
    8768:	c2442001 	subgt	r2, r4, #1
    876c:	e1a01003 	mov	r1, r3
    8770:	e2400002 	sub	r0, r0, #2
    8774:	e350000e 	cmp	r0, #14
    8778:	979ff100 	ldrls	pc, [pc, r0, lsl #2]
    877c:	ea00004c 	b	88b4 <emit+0x164>
    8780:	0000888c 	andeq	r8, r0, ip, lsl #17
    8784:	000088b4 			; <UNDEFINED> instruction: 0x000088b4
    8788:	000088b4 			; <UNDEFINED> instruction: 0x000088b4
    878c:	000088b4 			; <UNDEFINED> instruction: 0x000088b4
    8790:	000088b4 			; <UNDEFINED> instruction: 0x000088b4
    8794:	000088b4 			; <UNDEFINED> instruction: 0x000088b4
    8798:	00008880 	andeq	r8, r0, r0, lsl #17
    879c:	000088b4 			; <UNDEFINED> instruction: 0x000088b4
    87a0:	000087bc 			; <UNDEFINED> instruction: 0x000087bc
    87a4:	000088b4 			; <UNDEFINED> instruction: 0x000088b4
    87a8:	000088b4 			; <UNDEFINED> instruction: 0x000088b4
    87ac:	000088b4 			; <UNDEFINED> instruction: 0x000088b4
    87b0:	000088b4 			; <UNDEFINED> instruction: 0x000088b4
    87b4:	000088b4 			; <UNDEFINED> instruction: 0x000088b4
    87b8:	00008838 	andeq	r8, r0, r8, lsr r8
    87bc:	e59d005c 	ldr	r0, [sp, #92]	; 0x5c
    87c0:	e2900000 	adds	r0, r0, #0
    87c4:	13a00001 	movne	r0, #1
    87c8:	e0100fa3 	ands	r0, r0, r3, lsr #31
    87cc:	0a000003 	beq	87e0 <emit+0x90>
    87d0:	e2631000 	rsb	r1, r3, #0
    87d4:	e3a07001 	mov	r7, #1
    87d8:	e1a0c00d 	mov	ip, sp
    87dc:	ea000002 	b	87ec <emit+0x9c>
    87e0:	e3a07000 	mov	r7, #0
    87e4:	eafffffb 	b	87d8 <emit+0x88>
    87e8:	e1a0c000 	mov	ip, r0
    87ec:	e28c0001 	add	r0, ip, #1
    87f0:	e59f30d8 	ldr	r3, [pc, #216]	; 88d0 <emit+0x180>
    87f4:	e083e193 	umull	lr, r3, r3, r1
    87f8:	e1a031a3 	lsr	r3, r3, #3
    87fc:	e1a0e003 	mov	lr, r3
    8800:	e0833103 	add	r3, r3, r3, lsl #2
    8804:	e1a06083 	lsl	r6, r3, #1
    8808:	e0413006 	sub	r3, r1, r6
    880c:	e59f10c0 	ldr	r1, [pc, #192]	; 88d4 <emit+0x184>
    8810:	e7d13003 	ldrb	r3, [r1, r3]
    8814:	e5cc3000 	strb	r3, [ip]
    8818:	e1a0100e 	mov	r1, lr
    881c:	e35e0000 	cmp	lr, #0
    8820:	1afffff0 	bne	87e8 <emit+0x98>
    8824:	e3570000 	cmp	r7, #0
    8828:	13a0302d 	movne	r3, #45	; 0x2d
    882c:	15c03000 	strbne	r3, [r0]
    8830:	128c0002 	addne	r0, ip, #2
    8834:	ea000008 	b	885c <emit+0x10c>
    8838:	e1a0300d 	mov	r3, sp
    883c:	e2830001 	add	r0, r3, #1
    8840:	e201c00f 	and	ip, r1, #15
    8844:	e59fe08c 	ldr	lr, [pc, #140]	; 88d8 <emit+0x188>
    8848:	e7dec00c 	ldrb	ip, [lr, ip]
    884c:	e5c3c000 	strb	ip, [r3]
    8850:	e1a03000 	mov	r3, r0
    8854:	e1b01221 	lsrs	r1, r1, #4
    8858:	1afffff7 	bne	883c <emit+0xec>
    885c:	e1a0100d 	mov	r1, sp
    8860:	ebffff9f 	bl	86e4 <pad>
    8864:	e1a0300d 	mov	r3, sp
    8868:	e1a02000 	mov	r2, r0
    886c:	e1a01004 	mov	r1, r4
    8870:	e1a00005 	mov	r0, r5
    8874:	ebffffa5 	bl	8710 <reverse>
    8878:	e28dd044 	add	sp, sp, #68	; 0x44
    887c:	e8bd80f0 	pop	{r4, r5, r6, r7, pc}
    8880:	e5cd3000 	strb	r3, [sp]
    8884:	e28d0001 	add	r0, sp, #1
    8888:	eafffff3 	b	885c <emit+0x10c>
    888c:	e1a0300d 	mov	r3, sp
    8890:	e2830001 	add	r0, r3, #1
    8894:	e201c001 	and	ip, r1, #1
    8898:	e59fe03c 	ldr	lr, [pc, #60]	; 88dc <emit+0x18c>
    889c:	e7dec00c 	ldrb	ip, [lr, ip]
    88a0:	e5c3c000 	strb	ip, [r3]
    88a4:	e1a03000 	mov	r3, r0
    88a8:	e1b010a1 	lsrs	r1, r1, #1
    88ac:	1afffff7 	bne	8890 <emit+0x140>
    88b0:	eaffffe9 	b	885c <emit+0x10c>
    88b4:	eb000135 	bl	8d90 <rpi_reset_putc>
    88b8:	e3a03075 	mov	r3, #117	; 0x75
    88bc:	e59f201c 	ldr	r2, [pc, #28]	; 88e0 <emit+0x190>
    88c0:	e59f101c 	ldr	r1, [pc, #28]	; 88e4 <emit+0x194>
    88c4:	e59f001c 	ldr	r0, [pc, #28]	; 88e8 <emit+0x198>
    88c8:	ebffff6a 	bl	8678 <printk>
    88cc:	eb00016c 	bl	8e84 <clean_reboot>
    88d0:	cccccccd 	stclgt	12, cr12, [ip], {205}	; 0xcd
    88d4:	00009598 	muleq	r0, r8, r5
    88d8:	000095a4 	andeq	r9, r0, r4, lsr #11
    88dc:	000095b8 			; <UNDEFINED> instruction: 0x000095b8
    88e0:	0000954c 	andeq	r9, r0, ip, asr #10
    88e4:	00009570 	andeq	r9, r0, r0, ror r5
    88e8:	00009584 	andeq	r9, r0, r4, lsl #11

000088ec <rpi_set_output>:
    88ec:	e3500000 	cmp	r0, #0
    88f0:	0a000005 	beq	890c <rpi_set_output+0x20>
    88f4:	e59f3030 	ldr	r3, [pc, #48]	; 892c <rpi_set_output+0x40>
    88f8:	e5830000 	str	r0, [r3]
    88fc:	e3510000 	cmp	r1, #0
    8900:	159f3028 	ldrne	r3, [pc, #40]	; 8930 <rpi_set_output+0x44>
    8904:	15831000 	strne	r1, [r3]
    8908:	e12fff1e 	bx	lr
    890c:	e92d4010 	push	{r4, lr}
    8910:	eb00011e 	bl	8d90 <rpi_reset_putc>
    8914:	e3a03020 	mov	r3, #32
    8918:	e59f2014 	ldr	r2, [pc, #20]	; 8934 <rpi_set_output+0x48>
    891c:	e59f1014 	ldr	r1, [pc, #20]	; 8938 <rpi_set_output+0x4c>
    8920:	e59f0014 	ldr	r0, [pc, #20]	; 893c <rpi_set_output+0x50>
    8924:	ebffff53 	bl	8678 <printk>
    8928:	eb000155 	bl	8e84 <clean_reboot>
    892c:	00009234 	andeq	r9, r0, r4, lsr r2
    8930:	00009230 	andeq	r9, r0, r0, lsr r2
    8934:	00009554 	andeq	r9, r0, r4, asr r5
    8938:	00009570 	andeq	r9, r0, r0, ror r5
    893c:	000095bc 			; <UNDEFINED> instruction: 0x000095bc

00008940 <va_printk>:
    8940:	e92d43f0 	push	{r4, r5, r6, r7, r8, r9, lr}
    8944:	e24dd094 	sub	sp, sp, #148	; 0x94
    8948:	e1a09000 	mov	r9, r0
    894c:	e58d300c 	str	r3, [sp, #12]
    8950:	e2411001 	sub	r1, r1, #1
    8954:	e0808001 	add	r8, r0, r1
    8958:	e3a03000 	mov	r3, #0
    895c:	e5c03000 	strb	r3, [r0]
    8960:	e1a06000 	mov	r6, r0
    8964:	e5d23000 	ldrb	r3, [r2]
    8968:	e3530000 	cmp	r3, #0
    896c:	0a000098 	beq	8bd4 <va_printk+0x294>
    8970:	e1560008 	cmp	r6, r8
    8974:	2a000096 	bcs	8bd4 <va_printk+0x294>
    8978:	e3530025 	cmp	r3, #37	; 0x25
    897c:	12822001 	addne	r2, r2, #1
    8980:	15c63000 	strbne	r3, [r6]
    8984:	12866001 	addne	r6, r6, #1
    8988:	1afffff5 	bne	8964 <va_printk+0x24>
    898c:	e5d21001 	ldrb	r1, [r2, #1]
    8990:	e3510025 	cmp	r1, #37	; 0x25
    8994:	12825001 	addne	r5, r2, #1
    8998:	13a04000 	movne	r4, #0
    899c:	1a000008 	bne	89c4 <va_printk+0x84>
    89a0:	e5c63000 	strb	r3, [r6]
    89a4:	e2822002 	add	r2, r2, #2
    89a8:	e2866001 	add	r6, r6, #1
    89ac:	eaffffec 	b	8964 <va_printk+0x24>
    89b0:	e0844104 	add	r4, r4, r4, lsl #2
    89b4:	e1a03084 	lsl	r3, r4, #1
    89b8:	e0834007 	add	r4, r3, r7
    89bc:	e2444030 	sub	r4, r4, #48	; 0x30
    89c0:	e2855001 	add	r5, r5, #1
    89c4:	e5d57000 	ldrb	r7, [r5]
    89c8:	e1a00007 	mov	r0, r7
    89cc:	ebffff3f 	bl	86d0 <isdigit>
    89d0:	e3500000 	cmp	r0, #0
    89d4:	1afffff5 	bne	89b0 <va_printk+0x70>
    89d8:	e354001f 	cmp	r4, #31
    89dc:	8a00001a 	bhi	8a4c <va_printk+0x10c>
    89e0:	e2477062 	sub	r7, r7, #98	; 0x62
    89e4:	e3570016 	cmp	r7, #22
    89e8:	979ff107 	ldrls	pc, [pc, r7, lsl #2]
    89ec:	ea000066 	b	8b8c <va_printk+0x24c>
    89f0:	00008b18 	andeq	r8, r0, r8, lsl fp
    89f4:	00008b5c 	andeq	r8, r0, ip, asr fp
    89f8:	00008a84 	andeq	r8, r0, r4, lsl #21
    89fc:	00008b8c 	andeq	r8, r0, ip, lsl #23
    8a00:	00008a68 	andeq	r8, r0, r8, ror #20
    8a04:	00008b8c 	andeq	r8, r0, ip, lsl #23
    8a08:	00008b8c 	andeq	r8, r0, ip, lsl #23
    8a0c:	00008b8c 	andeq	r8, r0, ip, lsl #23
    8a10:	00008b8c 	andeq	r8, r0, ip, lsl #23
    8a14:	00008b8c 	andeq	r8, r0, ip, lsl #23
    8a18:	00008b8c 	andeq	r8, r0, ip, lsl #23
    8a1c:	00008b8c 	andeq	r8, r0, ip, lsl #23
    8a20:	00008b8c 	andeq	r8, r0, ip, lsl #23
    8a24:	00008b8c 	andeq	r8, r0, ip, lsl #23
    8a28:	00008ae8 	andeq	r8, r0, r8, ror #21
    8a2c:	00008b8c 	andeq	r8, r0, ip, lsl #23
    8a30:	00008b8c 	andeq	r8, r0, ip, lsl #23
    8a34:	00008b48 	andeq	r8, r0, r8, asr #22
    8a38:	00008b8c 	andeq	r8, r0, ip, lsl #23
    8a3c:	00008ab8 			; <UNDEFINED> instruction: 0x00008ab8
    8a40:	00008b8c 	andeq	r8, r0, ip, lsl #23
    8a44:	00008b8c 	andeq	r8, r0, ip, lsl #23
    8a48:	00008ae8 	andeq	r8, r0, r8, ror #21
    8a4c:	eb0000cf 	bl	8d90 <rpi_reset_putc>
    8a50:	e3a03092 	mov	r3, #146	; 0x92
    8a54:	e59f2190 	ldr	r2, [pc, #400]	; 8bec <va_printk+0x2ac>
    8a58:	e59f1190 	ldr	r1, [pc, #400]	; 8bf0 <va_printk+0x2b0>
    8a5c:	e59f0190 	ldr	r0, [pc, #400]	; 8bf4 <va_printk+0x2b4>
    8a60:	ebffff04 	bl	8678 <printk>
    8a64:	eb000106 	bl	8e84 <clean_reboot>
    8a68:	eb0000c8 	bl	8d90 <rpi_reset_putc>
    8a6c:	e3a03098 	mov	r3, #152	; 0x98
    8a70:	e59f2174 	ldr	r2, [pc, #372]	; 8bec <va_printk+0x2ac>
    8a74:	e59f1174 	ldr	r1, [pc, #372]	; 8bf0 <va_printk+0x2b0>
    8a78:	e59f0178 	ldr	r0, [pc, #376]	; 8bf8 <va_printk+0x2b8>
    8a7c:	ebfffefd 	bl	8678 <printk>
    8a80:	eb0000ff 	bl	8e84 <clean_reboot>
    8a84:	e59d300c 	ldr	r3, [sp, #12]
    8a88:	e2832004 	add	r2, r3, #4
    8a8c:	e58d200c 	str	r2, [sp, #12]
    8a90:	e5933000 	ldr	r3, [r3]
    8a94:	e3a02001 	mov	r2, #1
    8a98:	e58d2004 	str	r2, [sp, #4]
    8a9c:	e58d4000 	str	r4, [sp]
    8aa0:	e3a02080 	mov	r2, #128	; 0x80
    8aa4:	e28d1010 	add	r1, sp, #16
    8aa8:	e3a0000a 	mov	r0, #10
    8aac:	ebffff27 	bl	8750 <emit>
    8ab0:	e2852001 	add	r2, r5, #1
    8ab4:	ea000040 	b	8bbc <va_printk+0x27c>
    8ab8:	e59d300c 	ldr	r3, [sp, #12]
    8abc:	e2832004 	add	r2, r3, #4
    8ac0:	e58d200c 	str	r2, [sp, #12]
    8ac4:	e5933000 	ldr	r3, [r3]
    8ac8:	e3a02000 	mov	r2, #0
    8acc:	e58d2004 	str	r2, [sp, #4]
    8ad0:	e58d4000 	str	r4, [sp]
    8ad4:	e3a02080 	mov	r2, #128	; 0x80
    8ad8:	e28d1010 	add	r1, sp, #16
    8adc:	e3a0000a 	mov	r0, #10
    8ae0:	ebffff1a 	bl	8750 <emit>
    8ae4:	eafffff1 	b	8ab0 <va_printk+0x170>
    8ae8:	e59d300c 	ldr	r3, [sp, #12]
    8aec:	e2832004 	add	r2, r3, #4
    8af0:	e58d200c 	str	r2, [sp, #12]
    8af4:	e5933000 	ldr	r3, [r3]
    8af8:	e3a02000 	mov	r2, #0
    8afc:	e58d2004 	str	r2, [sp, #4]
    8b00:	e58d4000 	str	r4, [sp]
    8b04:	e3a02080 	mov	r2, #128	; 0x80
    8b08:	e28d1010 	add	r1, sp, #16
    8b0c:	e3a00010 	mov	r0, #16
    8b10:	ebffff0e 	bl	8750 <emit>
    8b14:	eaffffe5 	b	8ab0 <va_printk+0x170>
    8b18:	e59d300c 	ldr	r3, [sp, #12]
    8b1c:	e2832004 	add	r2, r3, #4
    8b20:	e58d200c 	str	r2, [sp, #12]
    8b24:	e5933000 	ldr	r3, [r3]
    8b28:	e3a02000 	mov	r2, #0
    8b2c:	e58d2004 	str	r2, [sp, #4]
    8b30:	e58d4000 	str	r4, [sp]
    8b34:	e3a02080 	mov	r2, #128	; 0x80
    8b38:	e28d1010 	add	r1, sp, #16
    8b3c:	e3a00002 	mov	r0, #2
    8b40:	ebffff02 	bl	8750 <emit>
    8b44:	eaffffd9 	b	8ab0 <va_printk+0x170>
    8b48:	e59d300c 	ldr	r3, [sp, #12]
    8b4c:	e2832004 	add	r2, r3, #4
    8b50:	e58d200c 	str	r2, [sp, #12]
    8b54:	e5930000 	ldr	r0, [r3]
    8b58:	eaffffd4 	b	8ab0 <va_printk+0x170>
    8b5c:	e59d300c 	ldr	r3, [sp, #12]
    8b60:	e2832004 	add	r2, r3, #4
    8b64:	e58d200c 	str	r2, [sp, #12]
    8b68:	e5933000 	ldr	r3, [r3]
    8b6c:	e3a02000 	mov	r2, #0
    8b70:	e58d2004 	str	r2, [sp, #4]
    8b74:	e58d4000 	str	r4, [sp]
    8b78:	e3a02080 	mov	r2, #128	; 0x80
    8b7c:	e28d1010 	add	r1, sp, #16
    8b80:	e3a00008 	mov	r0, #8
    8b84:	ebfffef1 	bl	8750 <emit>
    8b88:	eaffffc8 	b	8ab0 <va_printk+0x170>
    8b8c:	eb00007f 	bl	8d90 <rpi_reset_putc>
    8b90:	e5d53000 	ldrb	r3, [r5]
    8b94:	e58d3000 	str	r3, [sp]
    8b98:	e3a030b9 	mov	r3, #185	; 0xb9
    8b9c:	e59f2048 	ldr	r2, [pc, #72]	; 8bec <va_printk+0x2ac>
    8ba0:	e59f1048 	ldr	r1, [pc, #72]	; 8bf0 <va_printk+0x2b0>
    8ba4:	e59f0050 	ldr	r0, [pc, #80]	; 8bfc <va_printk+0x2bc>
    8ba8:	ebfffeb2 	bl	8678 <printk>
    8bac:	eb0000b4 	bl	8e84 <clean_reboot>
    8bb0:	e2800001 	add	r0, r0, #1
    8bb4:	e5c63000 	strb	r3, [r6]
    8bb8:	e2866001 	add	r6, r6, #1
    8bbc:	e1560008 	cmp	r6, r8
    8bc0:	2affff67 	bcs	8964 <va_printk+0x24>
    8bc4:	e5d03000 	ldrb	r3, [r0]
    8bc8:	e3530000 	cmp	r3, #0
    8bcc:	1afffff7 	bne	8bb0 <va_printk+0x270>
    8bd0:	eaffff63 	b	8964 <va_printk+0x24>
    8bd4:	e2860001 	add	r0, r6, #1
    8bd8:	e3a03000 	mov	r3, #0
    8bdc:	e5c63000 	strb	r3, [r6]
    8be0:	e0400009 	sub	r0, r0, r9
    8be4:	e28dd094 	add	sp, sp, #148	; 0x94
    8be8:	e8bd83f0 	pop	{r4, r5, r6, r7, r8, r9, pc}
    8bec:	00009564 	andeq	r9, r0, r4, ror #10
    8bf0:	00009570 	andeq	r9, r0, r0, ror r5
    8bf4:	000095d4 	ldrdeq	r9, [r0], -r4
    8bf8:	000095f0 	strdeq	r9, [r0], -r0
    8bfc:	00009618 	andeq	r9, r0, r8, lsl r6

00008c00 <memcpy>:
    8c00:	e2103003 	ands	r3, r0, #3
    8c04:	1a000011 	bne	8c50 <memcpy+0x50>
    8c08:	e211c003 	ands	ip, r1, #3
    8c0c:	1a00000c 	bne	8c44 <memcpy+0x44>
    8c10:	e2123003 	ands	r3, r2, #3
    8c14:	1a00000f 	bne	8c58 <memcpy+0x58>
    8c18:	e1a02122 	lsr	r2, r2, #2
    8c1c:	ea000002 	b	8c2c <memcpy+0x2c>
    8c20:	e791c103 	ldr	ip, [r1, r3, lsl #2]
    8c24:	e780c103 	str	ip, [r0, r3, lsl #2]
    8c28:	e2833001 	add	r3, r3, #1
    8c2c:	e1530002 	cmp	r3, r2
    8c30:	3afffffa 	bcc	8c20 <memcpy+0x20>
    8c34:	e12fff1e 	bx	lr
    8c38:	e7d1c003 	ldrb	ip, [r1, r3]
    8c3c:	e7c0c003 	strb	ip, [r0, r3]
    8c40:	e2833001 	add	r3, r3, #1
    8c44:	e1530002 	cmp	r3, r2
    8c48:	3afffffa 	bcc	8c38 <memcpy+0x38>
    8c4c:	e12fff1e 	bx	lr
    8c50:	e3a03000 	mov	r3, #0
    8c54:	eafffffa 	b	8c44 <memcpy+0x44>
    8c58:	e1a0300c 	mov	r3, ip
    8c5c:	eafffff8 	b	8c44 <memcpy+0x44>

00008c60 <fast_hash>:
    8c60:	e3500000 	cmp	r0, #0
    8c64:	13510000 	cmpne	r1, #0
    8c68:	da000034 	ble	8d40 <fast_hash+0xe0>
    8c6c:	e52de004 	push	{lr}		; (str lr, [sp, #-4]!)
    8c70:	e1a03001 	mov	r3, r1
    8c74:	e201e003 	and	lr, r1, #3
    8c78:	e1a01141 	asr	r1, r1, #2
    8c7c:	ea00000b 	b	8cb0 <fast_hash+0x50>
    8c80:	e5d0c001 	ldrb	ip, [r0, #1]
    8c84:	e5d02000 	ldrb	r2, [r0]
    8c88:	e082240c 	add	r2, r2, ip, lsl #8
    8c8c:	e0832002 	add	r2, r3, r2
    8c90:	e5d0c003 	ldrb	ip, [r0, #3]
    8c94:	e5d03002 	ldrb	r3, [r0, #2]
    8c98:	e083340c 	add	r3, r3, ip, lsl #8
    8c9c:	e0223583 	eor	r3, r2, r3, lsl #11
    8ca0:	e0233802 	eor	r3, r3, r2, lsl #16
    8ca4:	e2800004 	add	r0, r0, #4
    8ca8:	e08335a3 	add	r3, r3, r3, lsr #11
    8cac:	e2411001 	sub	r1, r1, #1
    8cb0:	e3510000 	cmp	r1, #0
    8cb4:	cafffff1 	bgt	8c80 <fast_hash+0x20>
    8cb8:	e35e0002 	cmp	lr, #2
    8cbc:	0a000013 	beq	8d10 <fast_hash+0xb0>
    8cc0:	e35e0003 	cmp	lr, #3
    8cc4:	0a000008 	beq	8cec <fast_hash+0x8c>
    8cc8:	e35e0001 	cmp	lr, #1
    8ccc:	0a000016 	beq	8d2c <fast_hash+0xcc>
    8cd0:	e0230183 	eor	r0, r3, r3, lsl #3
    8cd4:	e08002a0 	add	r0, r0, r0, lsr #5
    8cd8:	e0200200 	eor	r0, r0, r0, lsl #4
    8cdc:	e08008a0 	add	r0, r0, r0, lsr #17
    8ce0:	e0200c80 	eor	r0, r0, r0, lsl #25
    8ce4:	e0800320 	add	r0, r0, r0, lsr #6
    8ce8:	e49df004 	pop	{pc}		; (ldr pc, [sp], #4)
    8cec:	e5d01001 	ldrb	r1, [r0, #1]
    8cf0:	e5d02000 	ldrb	r2, [r0]
    8cf4:	e0822401 	add	r2, r2, r1, lsl #8
    8cf8:	e0833002 	add	r3, r3, r2
    8cfc:	e0233803 	eor	r3, r3, r3, lsl #16
    8d00:	e1d020d2 	ldrsb	r2, [r0, #2]
    8d04:	e0233902 	eor	r3, r3, r2, lsl #18
    8d08:	e08335a3 	add	r3, r3, r3, lsr #11
    8d0c:	eaffffef 	b	8cd0 <fast_hash+0x70>
    8d10:	e5d01001 	ldrb	r1, [r0, #1]
    8d14:	e5d02000 	ldrb	r2, [r0]
    8d18:	e0822401 	add	r2, r2, r1, lsl #8
    8d1c:	e0833002 	add	r3, r3, r2
    8d20:	e0233583 	eor	r3, r3, r3, lsl #11
    8d24:	e08338a3 	add	r3, r3, r3, lsr #17
    8d28:	eaffffe8 	b	8cd0 <fast_hash+0x70>
    8d2c:	e1d020d0 	ldrsb	r2, [r0]
    8d30:	e0833002 	add	r3, r3, r2
    8d34:	e0233503 	eor	r3, r3, r3, lsl #10
    8d38:	e08330a3 	add	r3, r3, r3, lsr #1
    8d3c:	eaffffe3 	b	8cd0 <fast_hash+0x70>
    8d40:	e3a00000 	mov	r0, #0
    8d44:	e12fff1e 	bx	lr

00008d48 <internal_putk>:
    8d48:	e92d4010 	push	{r4, lr}
    8d4c:	e1a04000 	mov	r4, r0
    8d50:	ea000003 	b	8d64 <internal_putk+0x1c>
    8d54:	e59f301c 	ldr	r3, [pc, #28]	; 8d78 <internal_putk+0x30>
    8d58:	e5933000 	ldr	r3, [r3]
    8d5c:	e12fff33 	blx	r3
    8d60:	e2844001 	add	r4, r4, #1
    8d64:	e5d40000 	ldrb	r0, [r4]
    8d68:	e3500000 	cmp	r0, #0
    8d6c:	1afffff8 	bne	8d54 <internal_putk+0xc>
    8d70:	e3a00001 	mov	r0, #1
    8d74:	e8bd8010 	pop	{r4, pc}
    8d78:	00009234 	andeq	r9, r0, r4, lsr r2

00008d7c <internal_putchar>:
    8d7c:	e92d4010 	push	{r4, lr}
    8d80:	e1a04000 	mov	r4, r0
    8d84:	eb0000cb 	bl	90b8 <uart_putc>
    8d88:	e1a00004 	mov	r0, r4
    8d8c:	e8bd8010 	pop	{r4, pc}

00008d90 <rpi_reset_putc>:
    8d90:	e59f2008 	ldr	r2, [pc, #8]	; 8da0 <rpi_reset_putc+0x10>
    8d94:	e59f3008 	ldr	r3, [pc, #8]	; 8da4 <rpi_reset_putc+0x14>
    8d98:	e5832000 	str	r2, [r3]
    8d9c:	e12fff1e 	bx	lr
    8da0:	00008d7c 	andeq	r8, r0, ip, ror sp
    8da4:	00009234 	andeq	r9, r0, r4, lsr r2

00008da8 <rpi_set_putc>:
    8da8:	e59f3004 	ldr	r3, [pc, #4]	; 8db4 <rpi_set_putc+0xc>
    8dac:	e5830000 	str	r0, [r3]
    8db0:	e12fff1e 	bx	lr
    8db4:	00009234 	andeq	r9, r0, r4, lsr r2

00008db8 <memset>:
    8db8:	e0802002 	add	r2, r0, r2
    8dbc:	e1a03000 	mov	r3, r0
    8dc0:	ea000001 	b	8dcc <memset+0x14>
    8dc4:	e5c31000 	strb	r1, [r3]
    8dc8:	e2833001 	add	r3, r3, #1
    8dcc:	e1530002 	cmp	r3, r2
    8dd0:	3afffffb 	bcc	8dc4 <memset+0xc>
    8dd4:	e12fff1e 	bx	lr

00008dd8 <_cstart>:
    8dd8:	e92d4010 	push	{r4, lr}
    8ddc:	e59f3020 	ldr	r3, [pc, #32]	; 8e04 <_cstart+0x2c>
    8de0:	ea000002 	b	8df0 <_cstart+0x18>
    8de4:	e3a02000 	mov	r2, #0
    8de8:	e5832000 	str	r2, [r3]
    8dec:	e2833004 	add	r3, r3, #4
    8df0:	e59f2010 	ldr	r2, [pc, #16]	; 8e08 <_cstart+0x30>
    8df4:	e1530002 	cmp	r3, r2
    8df8:	3afffff9 	bcc	8de4 <_cstart+0xc>
    8dfc:	ebfffc83 	bl	8010 <notmain>
    8e00:	eb00001f 	bl	8e84 <clean_reboot>
    8e04:	0000965c 	andeq	r9, r0, ip, asr r6
    8e08:	00009a68 	andeq	r9, r0, r8, ror #20

00008e0c <at_user_level>:
    8e0c:	e10f0000 	mrs	r0, CPSR
    8e10:	e200001f 	and	r0, r0, #31
    8e14:	e3500010 	cmp	r0, #16
    8e18:	13a00000 	movne	r0, #0
    8e1c:	03a00001 	moveq	r0, #1
    8e20:	e12fff1e 	bx	lr

00008e24 <set_user_level>:
    8e24:	e10f3000 	mrs	r3, CPSR
    8e28:	e3c3301f 	bic	r3, r3, #31
    8e2c:	e3833010 	orr	r3, r3, #16
    8e30:	e129f003 	msr	CPSR_fc, r3
    8e34:	e12fff1e 	bx	lr

00008e38 <rpi_reboot>:
    8e38:	e92d4010 	push	{r4, lr}
    8e3c:	ebfffff2 	bl	8e0c <at_user_level>
    8e40:	e3500000 	cmp	r0, #0
    8e44:	1a000008 	bne	8e6c <rpi_reboot+0x34>
    8e48:	e3a0001e 	mov	r0, #30
    8e4c:	eb00002e 	bl	8f0c <delay_ms>
    8e50:	e59f101c 	ldr	r1, [pc, #28]	; 8e74 <rpi_reboot+0x3c>
    8e54:	e59f001c 	ldr	r0, [pc, #28]	; 8e78 <rpi_reboot+0x40>
    8e58:	eb000037 	bl	8f3c <PUT32>
    8e5c:	e59f1018 	ldr	r1, [pc, #24]	; 8e7c <rpi_reboot+0x44>
    8e60:	e59f0018 	ldr	r0, [pc, #24]	; 8e80 <rpi_reboot+0x48>
    8e64:	eb000034 	bl	8f3c <PUT32>
    8e68:	eafffffe 	b	8e68 <rpi_reboot+0x30>
    8e6c:	ebffffec 	bl	8e24 <set_user_level>
    8e70:	eafffff4 	b	8e48 <rpi_reboot+0x10>
    8e74:	5a000001 	bpl	8e80 <rpi_reboot+0x48>
    8e78:	20100024 	andscs	r0, r0, r4, lsr #32
    8e7c:	5a000020 	bpl	8f04 <delay_us+0x1c>
    8e80:	2010001c 	andscs	r0, r0, ip, lsl r0

00008e84 <clean_reboot>:
    8e84:	e92d4010 	push	{r4, lr}
    8e88:	e59f3014 	ldr	r3, [pc, #20]	; 8ea4 <clean_reboot+0x20>
    8e8c:	e5933000 	ldr	r3, [r3]
    8e90:	e59f0010 	ldr	r0, [pc, #16]	; 8ea8 <clean_reboot+0x24>
    8e94:	e12fff33 	blx	r3
    8e98:	e3a00064 	mov	r0, #100	; 0x64
    8e9c:	eb00001a 	bl	8f0c <delay_ms>
    8ea0:	ebffffe4 	bl	8e38 <rpi_reboot>
    8ea4:	00009230 	andeq	r9, r0, r0, lsr r2
    8ea8:	00009650 	andeq	r9, r0, r0, asr r6

00008eac <delay_cycles>:
    8eac:	ea000001 	b	8eb8 <delay_cycles+0xc>
    8eb0:	e2811000 	add	r1, r1, #0
    8eb4:	e1a00003 	mov	r0, r3
    8eb8:	e2403001 	sub	r3, r0, #1
    8ebc:	e3500000 	cmp	r0, #0
    8ec0:	1afffffa 	bne	8eb0 <delay_cycles+0x4>
    8ec4:	e12fff1e 	bx	lr

00008ec8 <timer_get_usec_raw>:
    8ec8:	e92d4010 	push	{r4, lr}
    8ecc:	e59f0004 	ldr	r0, [pc, #4]	; 8ed8 <timer_get_usec_raw+0x10>
    8ed0:	eb000025 	bl	8f6c <GET32>
    8ed4:	e8bd8010 	pop	{r4, pc}
    8ed8:	20003004 	andcs	r3, r0, r4

00008edc <timer_get_usec>:
    8edc:	e92d4010 	push	{r4, lr}
    8ee0:	ebfffff8 	bl	8ec8 <timer_get_usec_raw>
    8ee4:	e8bd8010 	pop	{r4, pc}

00008ee8 <delay_us>:
    8ee8:	e92d4070 	push	{r4, r5, r6, lr}
    8eec:	e1a05000 	mov	r5, r0
    8ef0:	ebfffff9 	bl	8edc <timer_get_usec>
    8ef4:	e1a04000 	mov	r4, r0
    8ef8:	ebfffff7 	bl	8edc <timer_get_usec>
    8efc:	e0400004 	sub	r0, r0, r4
    8f00:	e1500005 	cmp	r0, r5
    8f04:	3afffffb 	bcc	8ef8 <delay_us+0x10>
    8f08:	e8bd8070 	pop	{r4, r5, r6, pc}

00008f0c <delay_ms>:
    8f0c:	e92d4010 	push	{r4, lr}
    8f10:	e3a03ffa 	mov	r3, #1000	; 0x3e8
    8f14:	e0000093 	mul	r0, r3, r0
    8f18:	ebfffff2 	bl	8ee8 <delay_us>
    8f1c:	e8bd8010 	pop	{r4, pc}

00008f20 <delay_sec>:
    8f20:	e92d4010 	push	{r4, lr}
    8f24:	e3a03ffa 	mov	r3, #1000	; 0x3e8
    8f28:	e0000093 	mul	r0, r3, r0
    8f2c:	ebfffff6 	bl	8f0c <delay_ms>
    8f30:	e8bd8010 	pop	{r4, pc}

00008f34 <put32>:
    8f34:	e5801000 	str	r1, [r0]
    8f38:	e12fff1e 	bx	lr

00008f3c <PUT32>:
    8f3c:	e5801000 	str	r1, [r0]
    8f40:	e12fff1e 	bx	lr

00008f44 <put16>:
    8f44:	e1c010b0 	strh	r1, [r0]
    8f48:	e12fff1e 	bx	lr

00008f4c <PUT16>:
    8f4c:	e1c010b0 	strh	r1, [r0]
    8f50:	e12fff1e 	bx	lr

00008f54 <put8>:
    8f54:	e5c01000 	strb	r1, [r0]
    8f58:	e12fff1e 	bx	lr

00008f5c <PUT8>:
    8f5c:	e5c01000 	strb	r1, [r0]
    8f60:	e12fff1e 	bx	lr

00008f64 <get32>:
    8f64:	e5900000 	ldr	r0, [r0]
    8f68:	e12fff1e 	bx	lr

00008f6c <GET32>:
    8f6c:	e5900000 	ldr	r0, [r0]
    8f70:	e12fff1e 	bx	lr

00008f74 <GETPC>:
    8f74:	e1a0000e 	mov	r0, lr
    8f78:	e12fff1e 	bx	lr

00008f7c <dummy>:
    8f7c:	e12fff1e 	bx	lr

00008f80 <or_in32>:
    8f80:	e92d4070 	push	{r4, r5, r6, lr}
    8f84:	e1a04000 	mov	r4, r0
    8f88:	e1a05001 	mov	r5, r1
    8f8c:	ebfffff4 	bl	8f64 <get32>
    8f90:	e1801005 	orr	r1, r0, r5
    8f94:	e1a00004 	mov	r0, r4
    8f98:	ebffffe5 	bl	8f34 <put32>
    8f9c:	e8bd8070 	pop	{r4, r5, r6, pc}

00008fa0 <uart_init>:
    8fa0:	e92d4010 	push	{r4, lr}
    8fa4:	e3a01002 	mov	r1, #2
    8fa8:	e3a0000e 	mov	r0, #14
    8fac:	eb000051 	bl	90f8 <gpio_set_function>
    8fb0:	e3a01002 	mov	r1, #2
    8fb4:	e3a0000f 	mov	r0, #15
    8fb8:	eb00004e 	bl	90f8 <gpio_set_function>
    8fbc:	eb000095 	bl	9218 <dev_barrier>
    8fc0:	e3a01001 	mov	r1, #1
    8fc4:	e59f0064 	ldr	r0, [pc, #100]	; 9030 <uart_init+0x90>
    8fc8:	ebffffec 	bl	8f80 <or_in32>
    8fcc:	eb000091 	bl	9218 <dev_barrier>
    8fd0:	e59f405c 	ldr	r4, [pc, #92]	; 9034 <uart_init+0x94>
    8fd4:	e3a01000 	mov	r1, #0
    8fd8:	e1a00004 	mov	r0, r4
    8fdc:	ebffffd4 	bl	8f34 <put32>
    8fe0:	e3a01000 	mov	r1, #0
    8fe4:	e59f004c 	ldr	r0, [pc, #76]	; 9038 <uart_init+0x98>
    8fe8:	ebffffd1 	bl	8f34 <put32>
    8fec:	e3a01003 	mov	r1, #3
    8ff0:	e59f0044 	ldr	r0, [pc, #68]	; 903c <uart_init+0x9c>
    8ff4:	ebffffce 	bl	8f34 <put32>
    8ff8:	e3a01000 	mov	r1, #0
    8ffc:	e59f003c 	ldr	r0, [pc, #60]	; 9040 <uart_init+0xa0>
    9000:	ebffffcb 	bl	8f34 <put32>
    9004:	e3a010c7 	mov	r1, #199	; 0xc7
    9008:	e59f0034 	ldr	r0, [pc, #52]	; 9044 <uart_init+0xa4>
    900c:	ebffffc8 	bl	8f34 <put32>
    9010:	e59f1030 	ldr	r1, [pc, #48]	; 9048 <uart_init+0xa8>
    9014:	e59f0030 	ldr	r0, [pc, #48]	; 904c <uart_init+0xac>
    9018:	ebffffc5 	bl	8f34 <put32>
    901c:	e3a01003 	mov	r1, #3
    9020:	e1a00004 	mov	r0, r4
    9024:	ebffffc2 	bl	8f34 <put32>
    9028:	eb00007a 	bl	9218 <dev_barrier>
    902c:	e8bd8010 	pop	{r4, pc}
    9030:	20215004 	eorcs	r5, r1, r4
    9034:	20215060 	eorcs	r5, r1, r0, rrx
    9038:	20215044 	eorcs	r5, r1, r4, asr #32
    903c:	2021504c 	eorcs	r5, r1, ip, asr #32
    9040:	20215050 	eorcs	r5, r1, r0, asr r0
    9044:	20215048 	eorcs	r5, r1, r8, asr #32
    9048:	0000010e 	andeq	r0, r0, lr, lsl #2
    904c:	20215068 	eorcs	r5, r1, r8, rrx

00009050 <uart_can_getc>:
    9050:	e92d4010 	push	{r4, lr}
    9054:	e59f0008 	ldr	r0, [pc, #8]	; 9064 <uart_can_getc+0x14>
    9058:	ebffffc1 	bl	8f64 <get32>
    905c:	e2000001 	and	r0, r0, #1
    9060:	e8bd8010 	pop	{r4, pc}
    9064:	20215064 	eorcs	r5, r1, r4, rrx

00009068 <uart_can_putc>:
    9068:	e92d4010 	push	{r4, lr}
    906c:	e59f0010 	ldr	r0, [pc, #16]	; 9084 <uart_can_putc+0x1c>
    9070:	ebffffbb 	bl	8f64 <get32>
    9074:	e3100002 	tst	r0, #2
    9078:	13a00001 	movne	r0, #1
    907c:	03a00000 	moveq	r0, #0
    9080:	e8bd8010 	pop	{r4, pc}
    9084:	20215064 	eorcs	r5, r1, r4, rrx

00009088 <uart_getc>:
    9088:	e92d4010 	push	{r4, lr}
    908c:	eb000061 	bl	9218 <dev_barrier>
    9090:	ebffffee 	bl	9050 <uart_can_getc>
    9094:	e3500000 	cmp	r0, #0
    9098:	0afffffc 	beq	9090 <uart_getc+0x8>
    909c:	e59f0010 	ldr	r0, [pc, #16]	; 90b4 <uart_getc+0x2c>
    90a0:	ebffffaf 	bl	8f64 <get32>
    90a4:	e6ef4070 	uxtb	r4, r0
    90a8:	eb00005a 	bl	9218 <dev_barrier>
    90ac:	e1a00004 	mov	r0, r4
    90b0:	e8bd8010 	pop	{r4, pc}
    90b4:	20215040 	eorcs	r5, r1, r0, asr #32

000090b8 <uart_putc>:
    90b8:	e92d4010 	push	{r4, lr}
    90bc:	e1a04000 	mov	r4, r0
    90c0:	eb000054 	bl	9218 <dev_barrier>
    90c4:	ebffffe7 	bl	9068 <uart_can_putc>
    90c8:	e3500000 	cmp	r0, #0
    90cc:	0afffffc 	beq	90c4 <uart_putc+0xc>
    90d0:	e6ef1074 	uxtb	r1, r4
    90d4:	e59f0008 	ldr	r0, [pc, #8]	; 90e4 <uart_putc+0x2c>
    90d8:	ebffff95 	bl	8f34 <put32>
    90dc:	eb00004d 	bl	9218 <dev_barrier>
    90e0:	e8bd8010 	pop	{r4, pc}
    90e4:	20215040 	eorcs	r5, r1, r0, asr #32

000090e8 <uart_has_data>:
    90e8:	e92d4010 	push	{r4, lr}
    90ec:	eb000049 	bl	9218 <dev_barrier>
    90f0:	ebffffd6 	bl	9050 <uart_can_getc>
    90f4:	e8bd8010 	pop	{r4, pc}

000090f8 <gpio_set_function>:
    90f8:	e350001f 	cmp	r0, #31
    90fc:	812fff1e 	bxhi	lr
    9100:	e3d13007 	bics	r3, r1, #7
    9104:	112fff1e 	bxne	lr
    9108:	e92d4070 	push	{r4, r5, r6, lr}
    910c:	e1a05001 	mov	r5, r1
    9110:	e59f3044 	ldr	r3, [pc, #68]	; 915c <gpio_set_function+0x64>
    9114:	e0832093 	umull	r2, r3, r3, r0
    9118:	e1a031a3 	lsr	r3, r3, #3
    911c:	e1a06003 	mov	r6, r3
    9120:	e0833103 	add	r3, r3, r3, lsl #2
    9124:	e1a02083 	lsl	r2, r3, #1
    9128:	e0403002 	sub	r3, r0, r2
    912c:	e0834083 	add	r4, r3, r3, lsl #1
    9130:	e2866302 	add	r6, r6, #134217728	; 0x8000000
    9134:	e2866702 	add	r6, r6, #524288	; 0x80000
    9138:	e1a06106 	lsl	r6, r6, #2
    913c:	e1a00006 	mov	r0, r6
    9140:	ebffff89 	bl	8f6c <GET32>
    9144:	e3a01007 	mov	r1, #7
    9148:	e1c01411 	bic	r1, r0, r1, lsl r4
    914c:	e1811415 	orr	r1, r1, r5, lsl r4
    9150:	e1a00006 	mov	r0, r6
    9154:	ebffff78 	bl	8f3c <PUT32>
    9158:	e8bd8070 	pop	{r4, r5, r6, pc}
    915c:	cccccccd 	stclgt	12, cr12, [ip], {205}	; 0xcd

00009160 <gpio_set_output>:
    9160:	e92d4010 	push	{r4, lr}
    9164:	e3a01001 	mov	r1, #1
    9168:	ebffffe2 	bl	90f8 <gpio_set_function>
    916c:	e8bd8010 	pop	{r4, pc}

00009170 <gpio_set_on>:
    9170:	e350001f 	cmp	r0, #31
    9174:	812fff1e 	bxhi	lr
    9178:	e92d4010 	push	{r4, lr}
    917c:	e3a01001 	mov	r1, #1
    9180:	e1a01011 	lsl	r1, r1, r0
    9184:	e59f0004 	ldr	r0, [pc, #4]	; 9190 <gpio_set_on+0x20>
    9188:	ebffff6b 	bl	8f3c <PUT32>
    918c:	e8bd8010 	pop	{r4, pc}
    9190:	2020001c 	eorcs	r0, r0, ip, lsl r0

00009194 <gpio_set_off>:
    9194:	e350001f 	cmp	r0, #31
    9198:	812fff1e 	bxhi	lr
    919c:	e92d4010 	push	{r4, lr}
    91a0:	e3a01001 	mov	r1, #1
    91a4:	e1a01011 	lsl	r1, r1, r0
    91a8:	e59f0004 	ldr	r0, [pc, #4]	; 91b4 <gpio_set_off+0x20>
    91ac:	ebffff62 	bl	8f3c <PUT32>
    91b0:	e8bd8010 	pop	{r4, pc}
    91b4:	20200028 	eorcs	r0, r0, r8, lsr #32

000091b8 <gpio_set_input>:
    91b8:	e92d4010 	push	{r4, lr}
    91bc:	e3a01000 	mov	r1, #0
    91c0:	ebffffcc 	bl	90f8 <gpio_set_function>
    91c4:	e8bd8010 	pop	{r4, pc}

000091c8 <gpio_write>:
    91c8:	e92d4010 	push	{r4, lr}
    91cc:	e3510000 	cmp	r1, #0
    91d0:	1a000001 	bne	91dc <gpio_write+0x14>
    91d4:	ebffffee 	bl	9194 <gpio_set_off>
    91d8:	e8bd8010 	pop	{r4, pc}
    91dc:	ebffffe3 	bl	9170 <gpio_set_on>
    91e0:	e8bd8010 	pop	{r4, pc}

000091e4 <gpio_read>:
    91e4:	e350001f 	cmp	r0, #31
    91e8:	8a000007 	bhi	920c <gpio_read+0x28>
    91ec:	e92d4010 	push	{r4, lr}
    91f0:	e200401f 	and	r4, r0, #31
    91f4:	e59f3018 	ldr	r3, [pc, #24]	; 9214 <gpio_read+0x30>
    91f8:	e08302a0 	add	r0, r3, r0, lsr #5
    91fc:	ebffff5a 	bl	8f6c <GET32>
    9200:	e1a00430 	lsr	r0, r0, r4
    9204:	e2000001 	and	r0, r0, #1
    9208:	e8bd8010 	pop	{r4, pc}
    920c:	e3e00000 	mvn	r0, #0
    9210:	e12fff1e 	bx	lr
    9214:	20200034 	eorcs	r0, r0, r4, lsr r0

00009218 <dev_barrier>:
    9218:	ea000002 	b	9228 <dsb>

0000921c <dmb>:
    921c:	e3a00000 	mov	r0, #0
    9220:	ee070fba 	mcr	15, 0, r0, cr7, cr10, {5}
    9224:	e12fff1e 	bx	lr

00009228 <dsb>:
    9228:	ee070f9a 	mcr	15, 0, r0, cr7, cr10, {4}
    922c:	e12fff1e 	bx	lr

Disassembly of section .data:

00009230 <putk>:
    9230:	00008d48 	andeq	r8, r0, r8, asr #26

00009234 <rpi_putchar>:
    9234:	00008d7c 	andeq	r8, r0, ip, ror sp

Disassembly of section .rodata:

00009238 <__FUNCTION__.4264>:
    9238:	6d746f6e 	ldclvs	15, cr6, [r4, #-440]!	; 0xfffffe48
    923c:	006e6961 	rsbeq	r6, lr, r1, ror #18
    9240:	74736574 	ldrbtvc	r6, [r3], #-1396	; 0xfffffa8c
    9244:	00000a31 	andeq	r0, r0, r1, lsr sl
    9248:	74726170 	ldrbtvc	r6, [r2], #-368	; 0xfffffe90
    924c:	65742d31 	ldrbvs	r2, [r4, #-3377]!	; 0xfffff2cf
    9250:	2e317473 	mrccs	4, 1, r7, cr1, cr3, {3}
    9254:	00000063 	andeq	r0, r0, r3, rrx
    9258:	43415254 	movtmi	r5, #4692	; 0x1254
    925c:	00003a45 	andeq	r3, r0, r5, asr #20
    9260:	6f6c6c61 	svcvs	0x006c6c61
    9264:	65722063 	ldrbvs	r2, [r2, #-99]!	; 0xffffff9d
    9268:	6e727574 	mrcvs	5, 3, r7, cr2, cr4, {3}
    926c:	25206465 	strcs	r6, [r0, #-1125]!	; 0xfffffb9b
    9270:	00000a70 	andeq	r0, r0, r0, ror sl
    9274:	494e4150 	stmdbmi	lr, {r4, r6, r8, lr}^
    9278:	73253a43 			; <UNDEFINED> instruction: 0x73253a43
    927c:	3a73253a 	bcc	1cd276c <__bss_end__+0x1cc8d04>
    9280:	693a6425 	ldmdbvs	sl!, {r0, r2, r5, sl, sp, lr}
    9284:	6c61766e 	stclvs	6, cr7, [r1], #-440	; 0xfffffe48
    9288:	65206469 	strvs	r6, [r0, #-1129]!	; 0xfffffb97
    928c:	726f7272 	rsbvc	r7, pc, #536870919	; 0x20000007
    9290:	0a0a2121 	beq	29171c <__bss_end__+0x287cb4>
    9294:	00000000 	andeq	r0, r0, r0
    9298:	43435553 	movtmi	r5, #13651	; 0x3553
    929c:	20535345 	subscs	r5, r3, r5, asr #6
    92a0:	70616568 	rsbvc	r6, r1, r8, ror #10
    92a4:	65686320 	strbvs	r6, [r8, #-800]!	; 0xfffffce0
    92a8:	64656b63 	strbtvs	r6, [r5], #-2915	; 0xfffff49d
    92ac:	74756f20 	ldrbtvc	r6, [r5], #-3872	; 0xfffff0e0
    92b0:	0000000a 	andeq	r0, r0, sl

000092b4 <__FUNCTION__.4267>:
    92b4:	695f6b63 	ldmdbvs	pc, {r0, r1, r5, r6, r8, r9, fp, sp, lr}^	; <UNPREDICTABLE>
    92b8:	0074696e 	rsbseq	r6, r4, lr, ror #18

000092bc <__FUNCTION__.4317>:
    92bc:	72666b63 	rsbvc	r6, r6, #101376	; 0x18c00
    92c0:	00006565 	andeq	r6, r0, r5, ror #10

000092c4 <__FUNCTION__.4327>:
    92c4:	6c616b63 			; <UNDEFINED> instruction: 0x6c616b63
    92c8:	00636f6c 	rsbeq	r6, r3, ip, ror #30
    92cc:	636f6c62 	cmnvs	pc, #25088	; 0x6200
    92d0:	7025206b 	eorvc	r2, r5, fp, rrx
    92d4:	726f6320 	rsbvc	r6, pc, #32, 6	; 0x80000000
    92d8:	74707572 	ldrbtvc	r7, [r0], #-1394	; 0xfffffa8e
    92dc:	61206465 			; <UNDEFINED> instruction: 0x61206465
    92e0:	666f2074 			; <UNDEFINED> instruction: 0x666f2074
    92e4:	74657366 	strbtvc	r7, [r5], #-870	; 0xfffffc9a
    92e8:	0a642520 	beq	1912770 <__bss_end__+0x1908d08>
    92ec:	00000000 	andeq	r0, r0, r0
    92f0:	6c616b63 			; <UNDEFINED> instruction: 0x6c616b63
    92f4:	2e636f6c 	cdpcs	15, 6, cr6, cr3, cr12, {3}
    92f8:	00000063 	andeq	r0, r0, r3, rrx
    92fc:	494e4150 	stmdbmi	lr, {r4, r6, r8, lr}^
    9300:	73253a43 			; <UNDEFINED> instruction: 0x73253a43
    9304:	3a73253a 	bcc	1cd27f4 <__bss_end__+0x1cc8d8c>
    9308:	613a6425 	teqvs	sl, r5, lsr #8
    930c:	6e67696c 	vnmulvs.f16	s13, s14, s25	; <UNPREDICTABLE>
    9310:	68286465 	stmdavs	r8!, {r0, r2, r5, r6, sl, sp, lr}
    9314:	5f706165 	svcpl	0x00706165
    9318:	72617473 	rsbvc	r7, r1, #1929379840	; 0x73000000
    931c:	38202c74 	stmdacc	r0!, {r2, r4, r5, r6, sl, fp, sp}
    9320:	00000a29 	andeq	r0, r0, r9, lsr #20
    9324:	657a6973 	ldrbvs	r6, [sl, #-2419]!	; 0xfffff68d
    9328:	6820666f 	stmdavs	r0!, {r0, r1, r2, r3, r5, r6, r9, sl, sp, lr}
    932c:	253d7264 	ldrcs	r7, [sp, #-612]!	; 0xfffffd9c
    9330:	72202c64 	eorvc	r2, r0, #100, 24	; 0x6400
    9334:	6f7a6465 	svcvs	0x007a6465
    9338:	253d656e 	ldrcs	r6, [sp, #-1390]!	; 0xfffffa92
    933c:	00000a64 	andeq	r0, r0, r4, ror #20
    9340:	4f525245 	svcmi	0x00525245
    9344:	73253a52 			; <UNDEFINED> instruction: 0x73253a52
    9348:	3a73253a 	bcc	1cd2838 <__bss_end__+0x1cc8dd0>
    934c:	203a6425 	eorscs	r6, sl, r5, lsr #8
    9350:	534c4146 	movtpl	r4, #49478	; 0xc146
    9354:	683c2845 	ldmdavs	ip!, {r0, r2, r6, fp, sp}
    9358:	3e706165 	rpwccsz	f6, f0, f5
    935c:	6e203a29 	vmulvs.f32	s6, s0, s19
    9360:	6920746f 	stmdbvs	r0!, {r0, r1, r2, r3, r5, r6, sl, ip, sp, lr}
    9364:	6974696e 	ldmdbvs	r4!, {r1, r2, r3, r5, r6, r8, fp, sp, lr}^
    9368:	7a696c61 	bvc	1a644f4 <__bss_end__+0x1a5aa8c>
    936c:	0a3f6465 	beq	fe2508 <__bss_end__+0xfd8aa0>
    9370:	00000000 	andeq	r0, r0, r0
    9374:	65657266 	strbvs	r7, [r5, #-614]!	; 0xfffffd9a
    9378:	20676e69 	rsbcs	r6, r7, r9, ror #28
    937c:	000a7025 	andeq	r7, sl, r5, lsr #32
    9380:	494e4150 	stmdbmi	lr, {r4, r6, r8, lr}^
    9384:	73253a43 			; <UNDEFINED> instruction: 0x73253a43
    9388:	3a73253a 	bcc	1cd2878 <__bss_end__+0x1cc8e10>
    938c:	633a6425 	teqvs	sl, #620756992	; 0x25000000
    9390:	6b636568 	blvs	18e2938 <__bss_end__+0x18d8ed0>
    9394:	6f6c625f 	svcvs	0x006c625f
    9398:	68286b63 	stmdavs	r8!, {r0, r1, r5, r6, r8, r9, fp, sp, lr}
    939c:	00000a29 	andeq	r0, r0, r9, lsr #20
    93a0:	6f6c6c61 	svcvs	0x006c6c61
    93a4:	69746163 	ldmdbvs	r4!, {r0, r1, r5, r6, r8, sp, lr}^
    93a8:	2520676e 	strcs	r6, [r0, #-1902]!	; 0xfffff892
    93ac:	79622064 	stmdbvc	r2!, {r2, r5, r6, sp}^
    93b0:	0a736574 	beq	1ce2988 <__bss_end__+0x1cd8f20>
    93b4:	00000000 	andeq	r0, r0, r0
    93b8:	43415254 	movtmi	r5, #4692	; 0x1254
    93bc:	52453a45 	subpl	r3, r5, #282624	; 0x45000
    93c0:	00524f52 	subseq	r4, r2, r2, asr pc
    93c4:	657a6973 	ldrbvs	r6, [sl, #-2419]!	; 0xfffff68d
    93c8:	65766f20 	ldrbvs	r6, [r6, #-3872]!	; 0xfffff0e0
    93cc:	6f6c6672 	svcvs	0x006c6672
    93d0:	3a646577 	bcc	19229b4 <__bss_end__+0x1918f4c>
    93d4:	20642520 	rsbcs	r2, r4, r0, lsr #10
    93d8:	65747962 	ldrbvs	r7, [r4, #-2402]!	; 0xfffff69e
    93dc:	73692073 	cmnvc	r9, #115	; 0x73
    93e0:	6f6f7420 	svcvs	0x006f7420
    93e4:	72616c20 	rsbvc	r6, r1, #32, 24	; 0x2000
    93e8:	000a6567 	andeq	r6, sl, r7, ror #10
    93ec:	494e4150 	stmdbmi	lr, {r4, r6, r8, lr}^
    93f0:	73253a43 			; <UNDEFINED> instruction: 0x73253a43
    93f4:	3a73253a 	bcc	1cd28e4 <__bss_end__+0x1cc8e7c>
    93f8:	733a6425 	teqvc	sl, #620756992	; 0x25000000
    93fc:	20657a69 	rsbcs	r7, r5, r9, ror #20
    9400:	7265766f 	rsbvc	r7, r5, #116391936	; 0x6f00000
    9404:	776f6c66 	strbvc	r6, [pc, -r6, ror #24]!
    9408:	203a6465 	eorscs	r6, sl, r5, ror #8
    940c:	62206425 	eorvs	r6, r0, #620756992	; 0x25000000
    9410:	73657479 	cmnvc	r5, #2030043136	; 0x79000000
    9414:	20736920 	rsbscs	r6, r3, r0, lsr #18
    9418:	206f6f74 	rsbcs	r6, pc, r4, ror pc	; <UNPREDICTABLE>
    941c:	6772616c 	ldrbvs	r6, [r2, -ip, ror #2]!
    9420:	000a0a65 	andeq	r0, sl, r5, ror #20
    9424:	2074756f 	rsbscs	r7, r4, pc, ror #10
    9428:	6d20666f 	stcvs	6, cr6, [r0, #-444]!	; 0xfffffe44
    942c:	726f6d65 	rsbvc	r6, pc, #6464	; 0x1940
    9430:	20202179 	eorcs	r2, r0, r9, ror r1
    9434:	65766168 	ldrbvs	r6, [r6, #-360]!	; 0xfffffe98
    9438:	6c6e6f20 	stclvs	15, cr6, [lr], #-128	; 0xffffff80
    943c:	64252079 	strtvs	r2, [r5], #-121	; 0xffffff87
    9440:	66656c20 	strbtvs	r6, [r5], -r0, lsr #24
    9444:	6e202c74 	mcrvs	12, 1, r2, cr0, cr4, {3}
    9448:	20646565 	rsbcs	r6, r4, r5, ror #10
    944c:	000a6425 	andeq	r6, sl, r5, lsr #8
    9450:	494e4150 	stmdbmi	lr, {r4, r6, r8, lr}^
    9454:	73253a43 			; <UNDEFINED> instruction: 0x73253a43
    9458:	3a73253a 	bcc	1cd2948 <__bss_end__+0x1cc8ee0>
    945c:	6f3a6425 	svcvs	0x003a6425
    9460:	6f207475 	svcvs	0x00207475
    9464:	656d2066 	strbvs	r2, [sp, #-102]!	; 0xffffff9a
    9468:	79726f6d 	ldmdbvc	r2!, {r0, r2, r3, r5, r6, r8, r9, sl, fp, sp, lr}^
    946c:	68202021 	stmdavs	r0!, {r0, r5, sp}
    9470:	20657661 	rsbcs	r7, r5, r1, ror #12
    9474:	796c6e6f 	stmdbvc	ip!, {r0, r1, r2, r3, r5, r6, r9, sl, fp, sp, lr}^
    9478:	20642520 	rsbcs	r2, r4, r0, lsr #10
    947c:	7466656c 	strbtvc	r6, [r6], #-1388	; 0xfffffa94
    9480:	656e202c 	strbvs	r2, [lr, #-44]!	; 0xffffffd4
    9484:	25206465 	strcs	r6, [r0, #-1125]!	; 0xfffffb9b
    9488:	000a0a64 	andeq	r0, sl, r4, ror #20
    948c:	6c616b63 			; <UNDEFINED> instruction: 0x6c616b63
    9490:	3a636f6c 	bcc	18e5248 <__bss_end__+0x18db7e0>
    9494:	6f6c6c61 	svcvs	0x006c6c61
    9498:	65746163 	ldrbvs	r6, [r4, #-355]!	; 0xfffffe9d
    949c:	64252064 	strtvs	r2, [r5], #-100	; 0xffffff9c
    94a0:	74796220 	ldrbtvc	r6, [r9], #-544	; 0xfffffde0
    94a4:	202c7365 	eorcs	r7, ip, r5, ror #6
    94a8:	746f7428 	strbtvc	r7, [pc], #-1064	; 94b0 <__FUNCTION__.4327+0x1ec>
    94ac:	2964253d 	stmdbcs	r4!, {r0, r2, r3, r4, r5, r8, sl, sp}^
    94b0:	7470202c 	ldrbtvc	r2, [r0], #-44	; 0xffffffd4
    94b4:	70253d72 	eorvc	r3, r5, r2, ror sp
    94b8:	0000000a 	andeq	r0, r0, sl
    94bc:	6e696f67 	cdpvs	15, 6, cr6, cr9, cr7, {3}
    94c0:	6f742067 	svcvs	0x00742067
    94c4:	65686320 	strbvs	r6, [r8, #-800]!	; 0xfffffce0
    94c8:	68206b63 	stmdavs	r0!, {r0, r1, r5, r6, r8, r9, fp, sp, lr}
    94cc:	3a706165 	bcc	1c21a68 <__bss_end__+0x1c18000>
    94d0:	20642520 	rsbcs	r2, r4, r0, lsr #10
    94d4:	65747962 	ldrbvs	r7, [r4, #-2402]!	; 0xfffff69e
    94d8:	6c612073 	stclvs	0, cr2, [r1], #-460	; 0xfffffe34
    94dc:	61636f6c 	cmnvs	r3, ip, ror #30
    94e0:	2c646574 	cfstr64cs	mvdx6, [r4], #-464	; 0xfffffe30
    94e4:	20642520 	rsbcs	r2, r4, r0, lsr #10
    94e8:	65747962 	ldrbvs	r7, [r4, #-2402]!	; 0xfffff69e
    94ec:	656c2073 	strbvs	r2, [ip, #-115]!	; 0xffffff8d
    94f0:	000a7466 	andeq	r7, sl, r6, ror #8
    94f4:	63656863 	cmnvs	r5, #6488064	; 0x630000
    94f8:	2064656b 	rsbcs	r6, r4, fp, ror #10
    94fc:	62206425 	eorvs	r6, r0, #620756992	; 0x25000000
    9500:	6b636f6c 	blvs	18e52b8 <__bss_end__+0x18db850>
    9504:	64202c73 	strtvs	r2, [r0], #-3187	; 0xfffff38d
    9508:	63657465 	cmnvs	r5, #1694498816	; 0x65000000
    950c:	20646574 	rsbcs	r6, r4, r4, ror r5
    9510:	65206425 	strvs	r6, [r0, #-1061]!	; 0xfffffbdb
    9514:	726f7272 	rsbvc	r7, pc, #536870919	; 0x20000007
    9518:	00000a73 	andeq	r0, r0, r3, ror sl
    951c:	43435553 	movtmi	r5, #13651	; 0x3553
    9520:	3a535345 	bcc	14de23c <__bss_end__+0x14d47d4>
    9524:	65686320 	strbvs	r6, [r8, #-800]!	; 0xfffffce0
    9528:	64656b63 	strbtvs	r6, [r5], #-2915	; 0xfffff49d
    952c:	20642520 	rsbcs	r2, r4, r0, lsr #10
    9530:	636f6c62 	cmnvs	pc, #25088	; 0x6200
    9534:	202c736b 	eorcs	r7, ip, fp, ror #6
    9538:	65746564 	ldrbvs	r6, [r4, #-1380]!	; 0xfffffa9c
    953c:	64657463 	strbtvs	r7, [r5], #-1123	; 0xfffffb9d
    9540:	206f6e20 	rsbcs	r6, pc, r0, lsr #28
    9544:	6f727265 	svcvs	0x00727265
    9548:	000a7372 	andeq	r7, sl, r2, ror r3

0000954c <__FUNCTION__.4281>:
    954c:	74696d65 	strbtvc	r6, [r9], #-3429	; 0xfffff29b
    9550:	00000000 	andeq	r0, r0, r0

00009554 <__FUNCTION__.4229>:
    9554:	5f697072 	svcpl	0x00697072
    9558:	5f746573 	svcpl	0x00746573
    955c:	7074756f 	rsbsvc	r7, r4, pc, ror #10
    9560:	00007475 	andeq	r7, r0, r5, ror r4

00009564 <__FUNCTION__.4303>:
    9564:	705f6176 	subsvc	r6, pc, r6, ror r1	; <UNPREDICTABLE>
    9568:	746e6972 	strbtvc	r6, [lr], #-2418	; 0xfffff68e
    956c:	0000006b 	andeq	r0, r0, fp, rrx
    9570:	6362696c 	cmnvs	r2, #108, 18	; 0x1b0000
    9574:	2d61762f 	stclcs	6, cr7, [r1, #-188]!	; 0xffffff44
    9578:	6e697270 	mcrvs	2, 3, r7, cr9, cr0, {3}
    957c:	632e6b74 			; <UNDEFINED> instruction: 0x632e6b74
    9580:	00000000 	andeq	r0, r0, r0
    9584:	494e4150 	stmdbmi	lr, {r4, r6, r8, lr}^
    9588:	73253a43 			; <UNDEFINED> instruction: 0x73253a43
    958c:	3a73253a 	bcc	1cd2a7c <__bss_end__+0x1cc9014>
    9590:	303a6425 	eorscc	r6, sl, r5, lsr #8
    9594:	0000000a 	andeq	r0, r0, sl
    9598:	33323130 	teqcc	r2, #48, 2
    959c:	37363534 			; <UNDEFINED> instruction: 0x37363534
    95a0:	00003938 	andeq	r3, r0, r8, lsr r9
    95a4:	33323130 	teqcc	r2, #48, 2
    95a8:	37363534 			; <UNDEFINED> instruction: 0x37363534
    95ac:	62613938 	rsbvs	r3, r1, #56, 18	; 0xe0000
    95b0:	66656463 	strbtvs	r6, [r5], -r3, ror #8
    95b4:	00000000 	andeq	r0, r0, r0
    95b8:	00003130 	andeq	r3, r0, r0, lsr r1
    95bc:	494e4150 	stmdbmi	lr, {r4, r6, r8, lr}^
    95c0:	73253a43 			; <UNDEFINED> instruction: 0x73253a43
    95c4:	3a73253a 	bcc	1cd2ab4 <__bss_end__+0x1cc904c>
    95c8:	703a6425 	eorsvc	r6, sl, r5, lsr #8
    95cc:	5f637475 	svcpl	0x00637475
    95d0:	000a7066 	andeq	r7, sl, r6, rrx
    95d4:	494e4150 	stmdbmi	lr, {r4, r6, r8, lr}^
    95d8:	73253a43 			; <UNDEFINED> instruction: 0x73253a43
    95dc:	3a73253a 	bcc	1cd2acc <__bss_end__+0x1cc9064>
    95e0:	773a6425 	ldrvc	r6, [sl, -r5, lsr #8]!
    95e4:	68746469 	ldmdavs	r4!, {r0, r3, r5, r6, sl, sp, lr}^
    95e8:	33203c20 			; <UNDEFINED> instruction: 0x33203c20
    95ec:	00000a32 	andeq	r0, r0, r2, lsr sl
    95f0:	494e4150 	stmdbmi	lr, {r4, r6, r8, lr}^
    95f4:	73253a43 			; <UNDEFINED> instruction: 0x73253a43
    95f8:	3a73253a 	bcc	1cd2ae8 <__bss_end__+0x1cc9080>
    95fc:	663a6425 	ldrtvs	r6, [sl], -r5, lsr #8
    9600:	74616f6c 	strbtvc	r6, [r1], #-3948	; 0xfffff094
    9604:	746f6e20 	strbtvc	r6, [pc], #-3616	; 960c <__FUNCTION__.4303+0xa8>
    9608:	616e6520 	cmnvs	lr, r0, lsr #10
    960c:	64656c62 	strbtvs	r6, [r5], #-3170	; 0xfffff39e
    9610:	0a212121 	beq	851a9c <__bss_end__+0x848034>
    9614:	00000000 	andeq	r0, r0, r0
    9618:	494e4150 	stmdbmi	lr, {r4, r6, r8, lr}^
    961c:	73253a43 			; <UNDEFINED> instruction: 0x73253a43
    9620:	3a73253a 	bcc	1cd2b10 <__bss_end__+0x1cc90a8>
    9624:	703a6425 	eorsvc	r6, sl, r5, lsr #8
    9628:	746e6972 	strbtvc	r6, [lr], #-2418	; 0xfffff68e
    962c:	6e203a6b 	vnmulvs.f32	s6, s0, s23
    9630:	6820746f 	stmdavs	r0!, {r0, r1, r2, r3, r5, r6, sl, ip, sp, lr}
    9634:	6c646e61 	stclvs	14, cr6, [r4], #-388	; 0xfffffe7c
    9638:	20676e69 	rsbcs	r6, r7, r9, ror #28
    963c:	63657073 	cmnvs	r5, #115	; 0x73
    9640:	65696669 	strbvs	r6, [r9, #-1641]!	; 0xfffff997
    9644:	25272072 	strcs	r2, [r7, #-114]!	; 0xffffff8e
    9648:	0a0a2763 	beq	2933dc <__bss_end__+0x289974>
    964c:	00000000 	andeq	r0, r0, r0
    9650:	454e4f44 	strbmi	r4, [lr, #-3908]	; 0xfffff0bc
    9654:	0a212121 	beq	851ae0 <__bss_end__+0x848078>
    9658:	00000000 	andeq	r0, r0, r0

Disassembly of section .bss:

0000965c <__bss_start__>:
    965c:	00000000 	andeq	r0, r0, r0

00009660 <heap>:
    9660:	00000000 	andeq	r0, r0, r0

00009664 <heap_end>:
    9664:	00000000 	andeq	r0, r0, r0

00009668 <buf.4229>:
	...

Disassembly of section .ARM.attributes:

00000000 <.ARM.attributes>:
   0:	00002a41 	andeq	r2, r0, r1, asr #20
   4:	61656100 	cmnvs	r5, r0, lsl #2
   8:	01006962 	tsteq	r0, r2, ror #18
   c:	00000020 	andeq	r0, r0, r0, lsr #32
  10:	4b5a3605 	blmi	168d82c <__bss_end__+0x1683dc4>
  14:	08070600 	stmdaeq	r7, {r9, sl}
  18:	12010901 	andne	r0, r1, #16384	; 0x4000
  1c:	15011404 	strne	r1, [r1, #-1028]	; 0xfffffbfc
  20:	18031701 	stmdane	r3, {r0, r8, r9, sl, ip}
  24:	22011a01 	andcs	r1, r1, #4096	; 0x1000
  28:	Address 0x0000000000000028 is out of bounds.


Disassembly of section .comment:

00000000 <.comment>:
   0:	3a434347 	bcc	10d0d24 <__bss_end__+0x10c72bc>
   4:	35312820 	ldrcc	r2, [r1, #-2080]!	; 0xfffff7e0
   8:	332e363a 			; <UNDEFINED> instruction: 0x332e363a
   c:	732b312e 			; <UNDEFINED> instruction: 0x732b312e
  10:	35326e76 	ldrcc	r6, [r2, #-3702]!	; 0xfffff18a
  14:	39333033 	ldmdbcc	r3!, {r0, r1, r4, r5, ip, sp}
  18:	7562312d 	strbvc	r3, [r2, #-301]!	; 0xfffffed3
  1c:	31646c69 	cmncc	r4, r9, ror #24
  20:	2e362029 	cdpcs	0, 3, cr2, cr6, cr9, {1}
  24:	20312e33 	eorscs	r2, r1, r3, lsr lr
  28:	37313032 			; <UNDEFINED> instruction: 0x37313032
  2c:	30323630 	eorscc	r3, r2, r0, lsr r6
	...

Disassembly of section .debug_info:

00000000 <.debug_info>:
       0:	00000a99 	muleq	r0, r9, sl
       4:	00000004 	andeq	r0, r0, r4
       8:	01040000 	mrseq	r0, (UNDEF: 4)
       c:	000003bf 			; <UNDEFINED> instruction: 0x000003bf
      10:	0002210c 	andeq	r2, r2, ip, lsl #2
      14:	0000ce00 	andeq	ip, r0, r0, lsl #28
      18:	00801000 	addeq	r1, r0, r0
      1c:	0000c800 	andeq	ip, r0, r0, lsl #16
      20:	00000000 	andeq	r0, r0, r0
      24:	05040200 	streq	r0, [r4, #-512]	; 0xfffffe00
      28:	00746e69 	rsbseq	r6, r4, r9, ror #28
      2c:	66070403 	strvs	r0, [r7], -r3, lsl #8
      30:	03000000 	movweq	r0, #0
      34:	02e30601 	rsceq	r0, r3, #1048576	; 0x100000
      38:	02030000 	andeq	r0, r3, #0
      3c:	0002fd05 	andeq	pc, r2, r5, lsl #26
      40:	05040300 	streq	r0, [r4, #-768]	; 0xfffffd00
      44:	000000af 	andeq	r0, r0, pc, lsr #1
      48:	aa050803 	bge	14205c <__bss_end__+0x1385f4>
      4c:	03000000 	movweq	r0, #0
      50:	02e10801 	rsceq	r0, r1, #65536	; 0x10000
      54:	02030000 	andeq	r0, r3, #0
      58:	00020e07 	andeq	r0, r2, r7, lsl #28
      5c:	07040300 	streq	r0, [r4, -r0, lsl #6]
      60:	00000061 	andeq	r0, r0, r1, rrx
      64:	5c070803 	stcpl	8, cr0, [r7], {3}
      68:	04000000 	streq	r0, [r0], #-0
      6c:	000002cf 	andeq	r0, r0, pc, asr #5
      70:	00250702 	eoreq	r0, r5, r2, lsl #14
      74:	be040000 	cdplt	0, 0, cr0, cr4, cr0, {0}
      78:	03000002 	movweq	r0, #2
      7c:	0000412c 	andeq	r4, r0, ip, lsr #2
      80:	03a80400 			; <UNDEFINED> instruction: 0x03a80400
      84:	72030000 	andvc	r0, r3, #0
      88:	00000041 	andeq	r0, r0, r1, asr #32
      8c:	00025f05 	andeq	r5, r2, r5, lsl #30
      90:	01650400 	cmneq	r5, r0, lsl #8
      94:	0000002c 	andeq	r0, r0, ip, lsr #32
      98:	a6030406 	strge	r0, [r3], -r6, lsl #8
      9c:	000000b7 	strheq	r0, [r0], -r7
      a0:	00025907 	andeq	r5, r2, r7, lsl #18
      a4:	8ca80300 	stchi	3, cr0, [r8]
      a8:	07000000 	streq	r0, [r0, -r0]
      ac:	000001ce 	andeq	r0, r0, lr, asr #3
      b0:	00b7a903 	adcseq	sl, r7, r3, lsl #18
      b4:	08000000 	stmdaeq	r0, {}	; <UNPREDICTABLE>
      b8:	0000004f 	andeq	r0, r0, pc, asr #32
      bc:	000000c7 	andeq	r0, r0, r7, asr #1
      c0:	0000c709 	andeq	ip, r0, r9, lsl #14
      c4:	03000300 	movweq	r0, #768	; 0x300
      c8:	02920704 	addseq	r0, r2, #4, 14	; 0x100000
      cc:	080a0000 	stmdaeq	sl, {}	; <UNPREDICTABLE>
      d0:	00efa303 	rsceq	sl, pc, r3, lsl #6
      d4:	920b0000 	andls	r0, fp, #0
      d8:	03000003 	movweq	r0, #3
      dc:	000025a5 	andeq	r2, r0, r5, lsr #11
      e0:	9a0b0000 	bls	2c00e8 <__bss_end__+0x2b6680>
      e4:	03000003 	movweq	r0, #3
      e8:	000098aa 	andeq	r9, r0, sl, lsr #17
      ec:	04000400 	streq	r0, [r0], #-1024	; 0xfffffc00
      f0:	00000325 	andeq	r0, r0, r5, lsr #6
      f4:	00ceab03 	sbceq	sl, lr, r3, lsl #22
      f8:	8b040000 	blhi	100100 <__bss_end__+0xf6698>
      fc:	03000001 	movweq	r0, #1
     100:	00006baf 	andeq	r6, r0, pc, lsr #23
     104:	0d040c00 	stceq	12, cr0, [r4, #-0]
     108:	00010d04 	andeq	r0, r1, r4, lsl #26
     10c:	08010300 	stmdaeq	r1, {r8, r9}
     110:	000002ea 	andeq	r0, r0, sl, ror #5
     114:	00010d0e 	andeq	r0, r1, lr, lsl #26
     118:	043c0400 	ldrteq	r0, [ip], #-1024	; 0xfffffc00
     11c:	16050000 	strne	r0, [r5], -r0
     120:	0000005d 	andeq	r0, r0, sp, asr r0
     124:	00019c0f 	andeq	r9, r1, pc, lsl #24
     128:	2d051800 	stccs	8, cr1, [r5, #-0]
     12c:	00000177 	andeq	r0, r0, r7, ror r1
     130:	0003460b 	andeq	r4, r3, fp, lsl #12
     134:	772f0500 	strvc	r0, [pc, -r0, lsl #10]!
     138:	00000001 	andeq	r0, r0, r1
     13c:	006b5f10 	rsbeq	r5, fp, r0, lsl pc
     140:	00253005 	eoreq	r3, r5, r5
     144:	0b040000 	bleq	10014c <__bss_end__+0xf66e4>
     148:	0000037d 	andeq	r0, r0, sp, ror r3
     14c:	00253005 	eoreq	r3, r5, r5
     150:	0b080000 	bleq	200158 <__bss_end__+0x1f66f0>
     154:	00000185 	andeq	r0, r0, r5, lsl #3
     158:	00253005 	eoreq	r3, r5, r5
     15c:	0b0c0000 	bleq	300164 <__bss_end__+0x2f66fc>
     160:	0000048a 	andeq	r0, r0, sl, lsl #9
     164:	00253005 	eoreq	r3, r5, r5
     168:	10100000 	andsne	r0, r0, r0
     16c:	0500785f 	streq	r7, [r0, #-2143]	; 0xfffff7a1
     170:	00017d31 	andeq	r7, r1, r1, lsr sp
     174:	0d001400 	cfstrseq	mvf1, [r0, #-0]
     178:	00012404 	andeq	r2, r1, r4, lsl #8
     17c:	01190800 	tsteq	r9, r0, lsl #16
     180:	018d0000 	orreq	r0, sp, r0
     184:	c7090000 	strgt	r0, [r9, -r0]
     188:	00000000 	andeq	r0, r0, r0
     18c:	01c90f00 	biceq	r0, r9, r0, lsl #30
     190:	05240000 	streq	r0, [r4, #-0]!
     194:	00020635 	andeq	r0, r2, r5, lsr r6
     198:	00a10b00 	adceq	r0, r1, r0, lsl #22
     19c:	37050000 	strcc	r0, [r5, -r0]
     1a0:	00000025 	andeq	r0, r0, r5, lsr #32
     1a4:	03b00b00 	movseq	r0, #0, 22
     1a8:	38050000 	stmdacc	r5, {}	; <UNPREDICTABLE>
     1ac:	00000025 	andeq	r0, r0, r5, lsr #32
     1b0:	00c40b04 	sbceq	r0, r4, r4, lsl #22
     1b4:	39050000 	stmdbcc	r5, {}	; <UNPREDICTABLE>
     1b8:	00000025 	andeq	r0, r0, r5, lsr #32
     1bc:	05030b08 	streq	r0, [r3, #-2824]	; 0xfffff4f8
     1c0:	3a050000 	bcc	1401c8 <__bss_end__+0x136760>
     1c4:	00000025 	andeq	r0, r0, r5, lsr #32
     1c8:	02a20b0c 	adceq	r0, r2, #12, 22	; 0x3000
     1cc:	3b050000 	blcc	1401d4 <__bss_end__+0x13676c>
     1d0:	00000025 	andeq	r0, r0, r5, lsr #32
     1d4:	027b0b10 	rsbseq	r0, fp, #16, 22	; 0x4000
     1d8:	3c050000 	stccc	0, cr0, [r5], {-0}
     1dc:	00000025 	andeq	r0, r0, r5, lsr #32
     1e0:	048f0b14 	streq	r0, [pc], #2836	; 1e8 <_start-0x7e18>
     1e4:	3d050000 	stccc	0, cr0, [r5, #-0]
     1e8:	00000025 	andeq	r0, r0, r5, lsr #32
     1ec:	03070b18 	movweq	r0, #31512	; 0x7b18
     1f0:	3e050000 	cdpcc	0, 0, cr0, cr5, cr0, {0}
     1f4:	00000025 	andeq	r0, r0, r5, lsr #32
     1f8:	04ca0b1c 	strbeq	r0, [sl], #2844	; 0xb1c
     1fc:	3f050000 	svccc	0x00050000
     200:	00000025 	andeq	r0, r0, r5, lsr #32
     204:	04110020 	ldreq	r0, [r1], #-32	; 0xffffffe0
     208:	08000001 	stmdaeq	r0, {r0}
     20c:	46480501 	strbmi	r0, [r8], -r1, lsl #10
     210:	0b000002 	bleq	220 <_start-0x7de0>
     214:	00000178 	andeq	r0, r0, r8, ror r1
     218:	02464905 	subeq	r4, r6, #81920	; 0x14000
     21c:	0b000000 	bleq	224 <_start-0x7ddc>
     220:	00000000 	andeq	r0, r0, r0
     224:	02464a05 	subeq	r4, r6, #20480	; 0x5000
     228:	12800000 	addne	r0, r0, #0
     22c:	0000042e 	andeq	r0, r0, lr, lsr #8
     230:	01194c05 	tsteq	r9, r5, lsl #24
     234:	01000000 	mrseq	r0, (UNDEF: 0)
     238:	00012912 	andeq	r2, r1, r2, lsl r9
     23c:	194f0500 	stmdbne	pc, {r8, sl}^	; <UNPREDICTABLE>
     240:	04000001 	streq	r0, [r0], #-1
     244:	05080001 	streq	r0, [r8, #-1]
     248:	56000001 	strpl	r0, [r0], -r1
     24c:	09000002 	stmdbeq	r0, {r1}
     250:	000000c7 	andeq	r0, r0, r7, asr #1
     254:	ab11001f 	blge	4402d8 <__bss_end__+0x436870>
     258:	90000002 	andls	r0, r0, r2
     25c:	945b0501 	ldrbls	r0, [fp], #-1281	; 0xfffffaff
     260:	0b000002 	bleq	270 <_start-0x7d90>
     264:	00000346 	andeq	r0, r0, r6, asr #6
     268:	02945c05 	addseq	r5, r4, #1280	; 0x500
     26c:	0b000000 	bleq	274 <_start-0x7d8c>
     270:	0000035e 	andeq	r0, r0, lr, asr r3
     274:	00255d05 	eoreq	r5, r5, r5, lsl #26
     278:	0b040000 	bleq	100280 <__bss_end__+0xf6818>
     27c:	00000180 	andeq	r0, r0, r0, lsl #3
     280:	029a5f05 	addseq	r5, sl, #5, 30
     284:	0b080000 	bleq	20028c <__bss_end__+0x1f6824>
     288:	00000104 	andeq	r0, r0, r4, lsl #2
     28c:	02066005 	andeq	r6, r6, #5
     290:	00880000 	addeq	r0, r8, r0
     294:	0256040d 	subseq	r0, r6, #218103808	; 0xd000000
     298:	aa080000 	bge	2002a0 <__bss_end__+0x1f6838>
     29c:	aa000002 	bge	2ac <_start-0x7d54>
     2a0:	09000002 	stmdbeq	r0, {r1}
     2a4:	000000c7 	andeq	r0, r0, r7, asr #1
     2a8:	040d001f 	streq	r0, [sp], #-31	; 0xffffffe1
     2ac:	000002b0 			; <UNDEFINED> instruction: 0x000002b0
     2b0:	03110f13 	tsteq	r1, #19, 30	; 0x4c
     2b4:	05080000 	streq	r0, [r8, #-0]
     2b8:	0002d673 	andeq	sp, r2, r3, ror r6
     2bc:	00be0b00 	adcseq	r0, lr, r0, lsl #22
     2c0:	74050000 	strvc	r0, [r5], #-0
     2c4:	000002d6 	ldrdeq	r0, [r0], -r6
     2c8:	001b0b00 	andseq	r0, fp, r0, lsl #22
     2cc:	75050000 	strvc	r0, [r5, #-0]
     2d0:	00000025 	andeq	r0, r0, r5, lsr #32
     2d4:	040d0004 	streq	r0, [sp], #-4
     2d8:	0000004f 	andeq	r0, r0, pc, asr #32
     2dc:	0003300f 	andeq	r3, r3, pc
     2e0:	b3056800 	movwlt	r6, #22528	; 0x5800
     2e4:	00000406 	andeq	r0, r0, r6, lsl #8
     2e8:	00705f10 	rsbseq	r5, r0, r0, lsl pc
     2ec:	02d6b405 	sbcseq	fp, r6, #83886080	; 0x5000000
     2f0:	10000000 	andne	r0, r0, r0
     2f4:	0500725f 	streq	r7, [r0, #-607]	; 0xfffffda1
     2f8:	000025b5 			; <UNDEFINED> instruction: 0x000025b5
     2fc:	5f100400 	svcpl	0x00100400
     300:	b6050077 			; <UNDEFINED> instruction: 0xb6050077
     304:	00000025 	andeq	r0, r0, r5, lsr #32
     308:	01220b08 			; <UNDEFINED> instruction: 0x01220b08
     30c:	b7050000 	strlt	r0, [r5, -r0]
     310:	0000003a 	andeq	r0, r0, sl, lsr r0
     314:	01f40b0c 	mvnseq	r0, ip, lsl #22
     318:	b8050000 	stmdalt	r5, {}	; <UNPREDICTABLE>
     31c:	0000003a 	andeq	r0, r0, sl, lsr r0
     320:	625f100e 	subsvs	r1, pc, #14
     324:	b9050066 	stmdblt	r5, {r1, r2, r5, r6}
     328:	000002b1 			; <UNDEFINED> instruction: 0x000002b1
     32c:	007b0b10 	rsbseq	r0, fp, r0, lsl fp
     330:	ba050000 	blt	140338 <__bss_end__+0x1368d0>
     334:	00000025 	andeq	r0, r0, r5, lsr #32
     338:	01120b18 	tsteq	r2, r8, lsl fp
     33c:	c1050000 	mrsgt	r0, (UNDEF: 5)
     340:	00000105 	andeq	r0, r0, r5, lsl #2
     344:	0a5e0b1c 	beq	1782fbc <__bss_end__+0x1779554>
     348:	c3050000 	movwgt	r0, #20480	; 0x5000
     34c:	00000561 	andeq	r0, r0, r1, ror #10
     350:	0a780b20 	beq	1e02fd8 <__bss_end__+0x1df9570>
     354:	c5050000 	strgt	r0, [r5, #-0]
     358:	0000058b 	andeq	r0, r0, fp, lsl #11
     35c:	03a20b24 			; <UNDEFINED> instruction: 0x03a20b24
     360:	c8050000 	stmdagt	r5, {}	; <UNPREDICTABLE>
     364:	000005af 	andeq	r0, r0, pc, lsr #11
     368:	04e40b28 	strbteq	r0, [r4], #2856	; 0xb28
     36c:	c9050000 	stmdbgt	r5, {}	; <UNPREDICTABLE>
     370:	000005c9 	andeq	r0, r0, r9, asr #11
     374:	755f102c 	ldrbvc	r1, [pc, #-44]	; 350 <_start-0x7cb0>
     378:	cc050062 	stcgt	0, cr0, [r5], {98}	; 0x62
     37c:	000002b1 			; <UNDEFINED> instruction: 0x000002b1
     380:	755f1030 	ldrbvc	r1, [pc, #-48]	; 358 <_start-0x7ca8>
     384:	cd050070 	stcgt	0, cr0, [r5, #-448]	; 0xfffffe40
     388:	000002d6 	ldrdeq	r0, [r0], -r6
     38c:	755f1038 	ldrbvc	r1, [pc, #-56]	; 35c <_start-0x7ca4>
     390:	ce050072 	mcrgt	0, 0, r0, cr5, cr2, {3}
     394:	00000025 	andeq	r0, r0, r5, lsr #32
     398:	00b80b3c 	adcseq	r0, r8, ip, lsr fp
     39c:	d1050000 	mrsle	r0, (UNDEF: 5)
     3a0:	000005cf 	andeq	r0, r0, pc, asr #11
     3a4:	04bc0b40 	ldrteq	r0, [ip], #2880	; 0xb40
     3a8:	d2050000 	andle	r0, r5, #0
     3ac:	000005df 	ldrdeq	r0, [r0], -pc	; <UNPREDICTABLE>
     3b0:	6c5f1043 	mrrcvs	0, 4, r1, pc, cr3	; <UNPREDICTABLE>
     3b4:	d5050062 	strle	r0, [r5, #-98]	; 0xffffff9e
     3b8:	000002b1 			; <UNDEFINED> instruction: 0x000002b1
     3bc:	01400b44 	cmpeq	r0, r4, asr #22
     3c0:	d8050000 	stmdale	r5, {}	; <UNPREDICTABLE>
     3c4:	00000025 	andeq	r0, r0, r5, lsr #32
     3c8:	01510b4c 	cmpeq	r1, ip, asr #22
     3cc:	d9050000 	stmdble	r5, {}	; <UNPREDICTABLE>
     3d0:	00000076 	andeq	r0, r0, r6, ror r0
     3d4:	09ff0b50 	ldmibeq	pc!, {r4, r6, r8, r9, fp}^	; <UNPREDICTABLE>
     3d8:	dc050000 	stcle	0, cr0, [r5], {-0}
     3dc:	00000424 	andeq	r0, r0, r4, lsr #8
     3e0:	026d0b54 	rsbeq	r0, sp, #84, 22	; 0x15000
     3e4:	e0050000 	and	r0, r5, r0
     3e8:	000000fa 	strdeq	r0, [r0], -sl
     3ec:	03380b58 	teqeq	r8, #88, 22	; 0x16000
     3f0:	e2050000 	and	r0, r5, #0
     3f4:	000000ef 	andeq	r0, r0, pc, ror #1
     3f8:	02730b5c 	rsbseq	r0, r3, #92, 22	; 0x17000
     3fc:	e3050000 	movw	r0, #20480	; 0x5000
     400:	00000025 	andeq	r0, r0, r5, lsr #32
     404:	25140064 	ldrcs	r0, [r4, #-100]	; 0xffffff9c
     408:	24000000 	strcs	r0, [r0], #-0
     40c:	15000004 	strne	r0, [r0, #-4]
     410:	00000424 	andeq	r0, r0, r4, lsr #8
     414:	00010515 	andeq	r0, r1, r5, lsl r5
     418:	01071500 	tsteq	r7, r0, lsl #10
     41c:	25150000 	ldrcs	r0, [r5, #-0]
     420:	00000000 	andeq	r0, r0, r0
     424:	042f040d 	strteq	r0, [pc], #-1037	; 42c <_start-0x7bd4>
     428:	240e0000 	strcs	r0, [lr], #-0
     42c:	16000004 	strne	r0, [r0], -r4
     430:	00000385 	andeq	r0, r0, r5, lsl #7
     434:	38050428 	stmdacc	r5, {r3, r5, sl}
     438:	00056102 	andeq	r6, r5, r2, lsl #2
     43c:	02f61700 	rscseq	r1, r6, #0, 14
     440:	3a050000 	bcc	140448 <__bss_end__+0x1369e0>
     444:	00002502 	andeq	r2, r0, r2, lsl #10
     448:	31170000 	tstcc	r7, r0
     44c:	05000001 	streq	r0, [r0, #-1]
     450:	0636023f 			; <UNDEFINED> instruction: 0x0636023f
     454:	17040000 	strne	r0, [r4, -r0]
     458:	000001e4 	andeq	r0, r0, r4, ror #3
     45c:	36023f05 	strcc	r3, [r2], -r5, lsl #30
     460:	08000006 	stmdaeq	r0, {r1, r2}
     464:	00019417 	andeq	r9, r1, r7, lsl r4
     468:	023f0500 	eorseq	r0, pc, #0, 10
     46c:	00000636 	andeq	r0, r0, r6, lsr r6
     470:	0359170c 	cmpeq	r9, #12, 14	; 0x300000
     474:	41050000 	mrsmi	r0, (UNDEF: 5)
     478:	00002502 	andeq	r2, r0, r2, lsl #10
     47c:	29171000 	ldmdbcs	r7, {ip}
     480:	05000000 	streq	r0, [r0, #-0]
     484:	08180242 	ldmdaeq	r8, {r1, r6, r9}
     488:	17140000 	ldrne	r0, [r4, -r0]
     48c:	00000464 	andeq	r0, r0, r4, ror #8
     490:	25024405 	strcs	r4, [r2, #-1029]	; 0xfffffbfb
     494:	30000000 	andcc	r0, r0, r0
     498:	00036317 	andeq	r6, r3, r7, lsl r3
     49c:	02450500 	subeq	r0, r5, #0, 10
     4a0:	00000585 	andeq	r0, r0, r5, lsl #11
     4a4:	02b31734 	adcseq	r1, r3, #52, 14	; 0xd00000
     4a8:	47050000 	strmi	r0, [r5, -r0]
     4ac:	00002502 	andeq	r2, r0, r2, lsl #10
     4b0:	73173800 	tstvc	r7, #0, 16
     4b4:	05000003 	streq	r0, [r0, #-3]
     4b8:	08330249 	ldmdaeq	r3!, {r0, r3, r6, r9}
     4bc:	173c0000 	ldrne	r0, [ip, -r0]!
     4c0:	00000251 	andeq	r0, r0, r1, asr r2
     4c4:	77024c05 	strvc	r4, [r2, -r5, lsl #24]
     4c8:	40000001 	andmi	r0, r0, r1
     4cc:	0001b317 	andeq	fp, r1, r7, lsl r3
     4d0:	024d0500 	subeq	r0, sp, #0, 10
     4d4:	00000025 	andeq	r0, r0, r5, lsr #32
     4d8:	04fe1744 	ldrbteq	r1, [lr], #1860	; 0x744
     4dc:	4e050000 	cdpmi	0, 0, cr0, cr5, cr0, {0}
     4e0:	00017702 	andeq	r7, r1, r2, lsl #14
     4e4:	c5174800 	ldrgt	r4, [r7, #-2048]	; 0xfffff800
     4e8:	05000002 	streq	r0, [r0, #-2]
     4ec:	0839024f 	ldmdaeq	r9!, {r0, r1, r2, r3, r6, r9}
     4f0:	174c0000 	strbne	r0, [ip, -r0]
     4f4:	000001ec 	andeq	r0, r0, ip, ror #3
     4f8:	25025205 	strcs	r5, [r2, #-517]	; 0xfffffdfb
     4fc:	50000000 	andpl	r0, r0, r0
     500:	00014917 	andeq	r4, r1, r7, lsl r9
     504:	02530500 	subseq	r0, r3, #0, 10
     508:	00000107 	andeq	r0, r0, r7, lsl #2
     50c:	02ef1754 	rsceq	r1, pc, #84, 14	; 0x1500000
     510:	76050000 	strvc	r0, [r5], -r0
     514:	0007f602 	andeq	pc, r7, r2, lsl #12
     518:	ab185800 	blge	616520 <__bss_end__+0x60cab8>
     51c:	05000002 	streq	r0, [r0, #-2]
     520:	0294027a 	addseq	r0, r4, #-1610612729	; 0xa0000007
     524:	01480000 	mrseq	r0, (UNDEF: 72)
     528:	00022f18 	andeq	r2, r2, r8, lsl pc
     52c:	027b0500 	rsbseq	r0, fp, #0, 10
     530:	00000256 	andeq	r0, r0, r6, asr r2
     534:	b218014c 	andslt	r0, r8, #76, 2
     538:	05000004 	streq	r0, [r0, #-4]
     53c:	084a027f 	stmdaeq	sl, {r0, r1, r2, r3, r4, r5, r6, r9}^
     540:	02dc0000 	sbcseq	r0, ip, #0
     544:	00011a18 	andeq	r1, r1, r8, lsl sl
     548:	02840500 	addeq	r0, r4, #0, 10
     54c:	000005fb 	strdeq	r0, [r0], -fp
     550:	ff1802e0 			; <UNDEFINED> instruction: 0xff1802e0
     554:	05000000 	streq	r0, [r0, #-0]
     558:	08560285 	ldmdaeq	r6, {r0, r2, r7, r9}^
     55c:	02ec0000 	rsceq	r0, ip, #0
     560:	06040d00 	streq	r0, [r4], -r0, lsl #26
     564:	14000004 	strne	r0, [r0], #-4
     568:	00000025 	andeq	r0, r0, r5, lsr #32
     56c:	00000585 	andeq	r0, r0, r5, lsl #11
     570:	00042415 	andeq	r2, r4, r5, lsl r4
     574:	01051500 	tsteq	r5, r0, lsl #10
     578:	85150000 	ldrhi	r0, [r5, #-0]
     57c:	15000005 	strne	r0, [r0, #-5]
     580:	00000025 	andeq	r0, r0, r5, lsr #32
     584:	14040d00 	strne	r0, [r4], #-3328	; 0xfffff300
     588:	0d000001 	stceq	0, cr0, [r0, #-4]
     58c:	00056704 	andeq	r6, r5, r4, lsl #14
     590:	00811400 	addeq	r1, r1, r0, lsl #8
     594:	05af0000 	streq	r0, [pc, #0]!	; 59c <_start-0x7a64>
     598:	24150000 	ldrcs	r0, [r5], #-0
     59c:	15000004 	strne	r0, [r0, #-4]
     5a0:	00000105 	andeq	r0, r0, r5, lsl #2
     5a4:	00008115 	andeq	r8, r0, r5, lsl r1
     5a8:	00251500 	eoreq	r1, r5, r0, lsl #10
     5ac:	0d000000 	stceq	0, cr0, [r0, #-0]
     5b0:	00059104 	andeq	r9, r5, r4, lsl #2
     5b4:	00251400 	eoreq	r1, r5, r0, lsl #8
     5b8:	05c90000 	strbeq	r0, [r9]
     5bc:	24150000 	ldrcs	r0, [r5], #-0
     5c0:	15000004 	strne	r0, [r0, #-4]
     5c4:	00000105 	andeq	r0, r0, r5, lsl #2
     5c8:	b5040d00 	strlt	r0, [r4, #-3328]	; 0xfffff300
     5cc:	08000005 	stmdaeq	r0, {r0, r2}
     5d0:	0000004f 	andeq	r0, r0, pc, asr #32
     5d4:	000005df 	ldrdeq	r0, [r0], -pc	; <UNPREDICTABLE>
     5d8:	0000c709 	andeq	ip, r0, r9, lsl #14
     5dc:	08000200 	stmdaeq	r0, {r9}
     5e0:	0000004f 	andeq	r0, r0, pc, asr #32
     5e4:	000005ef 	andeq	r0, r0, pc, ror #11
     5e8:	0000c709 	andeq	ip, r0, r9, lsl #14
     5ec:	05000000 	streq	r0, [r0, #-0]
     5f0:	0000031e 	andeq	r0, r0, lr, lsl r3
     5f4:	dc011d05 	stcle	13, cr1, [r1], {5}
     5f8:	19000002 	stmdbne	r0, {r1}
     5fc:	00000499 	muleq	r0, r9, r4
     600:	0121050c 			; <UNDEFINED> instruction: 0x0121050c
     604:	00000630 	andeq	r0, r0, r0, lsr r6
     608:	00034617 	andeq	r4, r3, r7, lsl r6
     60c:	01230500 			; <UNDEFINED> instruction: 0x01230500
     610:	00000630 	andeq	r0, r0, r0, lsr r6
     614:	02071700 	andeq	r1, r7, #0, 14
     618:	24050000 	strcs	r0, [r5], #-0
     61c:	00002501 	andeq	r2, r0, r1, lsl #10
     620:	18170400 	ldmdane	r7, {sl}
     624:	05000003 	streq	r0, [r0, #-3]
     628:	06360125 	ldrteq	r0, [r6], -r5, lsr #2
     62c:	00080000 	andeq	r0, r8, r0
     630:	05fb040d 	ldrbeq	r0, [fp, #1037]!	; 0x40d
     634:	040d0000 	streq	r0, [sp], #-0
     638:	000005ef 	andeq	r0, r0, pc, ror #11
     63c:	00002119 	andeq	r2, r0, r9, lsl r1
     640:	3d050e00 	stccc	14, cr0, [r5, #-0]
     644:	00067101 	andeq	r7, r6, r1, lsl #2
     648:	038c1700 	orreq	r1, ip, #0, 14
     64c:	3e050000 	cdpcc	0, 0, cr0, cr5, cr0, {0}
     650:	00067101 	andeq	r7, r6, r1, lsl #2
     654:	b9170000 	ldmdblt	r7, {}	; <UNPREDICTABLE>
     658:	05000003 	streq	r0, [r0, #-3]
     65c:	0671013f 			; <UNDEFINED> instruction: 0x0671013f
     660:	17060000 	strne	r0, [r6, -r0]
     664:	00000437 	andeq	r0, r0, r7, lsr r4
     668:	56014005 	strpl	r4, [r1], -r5
     66c:	0c000000 	stceq	0, cr0, [r0], {-0}
     670:	00560800 	subseq	r0, r6, r0, lsl #16
     674:	06810000 	streq	r0, [r1], r0
     678:	c7090000 	strgt	r0, [r9, -r0]
     67c:	02000000 	andeq	r0, r0, #0
     680:	05d01a00 	ldrbeq	r1, [r0, #2560]	; 0xa00
     684:	07820257 			; <UNDEFINED> instruction: 0x07820257
     688:	7d170000 	ldcvc	0, cr0, [r7, #-0]
     68c:	05000004 	streq	r0, [r0, #-4]
     690:	002c0259 	eoreq	r0, ip, r9, asr r2
     694:	17000000 	strne	r0, [r0, -r0]
     698:	00000421 	andeq	r0, r0, r1, lsr #8
     69c:	07025a05 	streq	r5, [r2, -r5, lsl #20]
     6a0:	04000001 	streq	r0, [r0], #-1
     6a4:	00024417 	andeq	r4, r2, r7, lsl r4
     6a8:	025b0500 	subseq	r0, fp, #0, 10
     6ac:	00000782 	andeq	r0, r0, r2, lsl #15
     6b0:	04d51708 	ldrbeq	r1, [r5], #1800	; 0x708
     6b4:	5c050000 	stcpl	0, cr0, [r5], {-0}
     6b8:	00018d02 	andeq	r8, r1, r2, lsl #26
     6bc:	a4172400 	ldrge	r2, [r7], #-1024	; 0xfffffc00
     6c0:	05000001 	streq	r0, [r0, #-1]
     6c4:	0025025d 	eoreq	r0, r5, sp, asr r2
     6c8:	17480000 	strbne	r0, [r8, -r0]
     6cc:	00000341 	andeq	r0, r0, r1, asr #6
     6d0:	64025e05 	strvs	r5, [r2], #-3589	; 0xfffff1fb
     6d4:	50000000 	andpl	r0, r0, r0
     6d8:	0004eb17 	andeq	lr, r4, r7, lsl fp
     6dc:	025f0500 	subseq	r0, pc, #0, 10
     6e0:	0000063c 	andeq	r0, r0, ip, lsr r6
     6e4:	034c1758 	movteq	r1, #51032	; 0xc758
     6e8:	60050000 	andvs	r0, r5, r0
     6ec:	0000ef02 	andeq	lr, r0, r2, lsl #30
     6f0:	f0176800 			; <UNDEFINED> instruction: 0xf0176800
     6f4:	05000004 	streq	r0, [r0, #-4]
     6f8:	00ef0261 	rsceq	r0, pc, r1, ror #4
     6fc:	17700000 	ldrbne	r0, [r0, -r0]!
     700:	00000093 	muleq	r0, r3, r0
     704:	ef026205 	svc	0x00026205
     708:	78000000 	stmdavc	r0, {}	; <UNPREDICTABLE>
     70c:	0004a817 	andeq	sl, r4, r7, lsl r8
     710:	02630500 	rsbeq	r0, r3, #0, 10
     714:	00000792 	muleq	r0, r2, r7
     718:	02381780 	eorseq	r1, r8, #128, 14	; 0x2000000
     71c:	64050000 	strvs	r0, [r5], #-0
     720:	0007a202 	andeq	sl, r7, r2, lsl #4
     724:	44178800 	ldrmi	r8, [r7], #-2048	; 0xfffff800
     728:	05000004 	streq	r0, [r0, #-4]
     72c:	00250265 	eoreq	r0, r5, r5, ror #4
     730:	17a00000 	strne	r0, [r0, r0]!
     734:	0000016a 	andeq	r0, r0, sl, ror #2
     738:	ef026605 	svc	0x00026605
     73c:	a4000000 	strge	r0, [r0], #-0
     740:	00008417 	andeq	r8, r0, r7, lsl r4
     744:	02670500 	rsbeq	r0, r7, #0, 10
     748:	000000ef 	andeq	r0, r0, pc, ror #1
     74c:	015917ac 	cmpeq	r9, ip, lsr #15
     750:	68050000 	stmdavs	r5, {}	; <UNPREDICTABLE>
     754:	0000ef02 	andeq	lr, r0, r2, lsl #30
     758:	3c17b400 	cfldrscc	mvf11, [r7], {-0}
     75c:	05000000 	streq	r0, [r0, #-0]
     760:	00ef0269 	rsceq	r0, pc, r9, ror #4
     764:	17bc0000 	ldrne	r0, [ip, r0]!
     768:	0000004b 	andeq	r0, r0, fp, asr #32
     76c:	ef026a05 	svc	0x00026a05
     770:	c4000000 	strgt	r0, [r0], #-0
     774:	0002f417 	andeq	pc, r2, r7, lsl r4	; <UNPREDICTABLE>
     778:	026b0500 	rsbeq	r0, fp, #0, 10
     77c:	00000025 	andeq	r0, r0, r5, lsr #32
     780:	0d0800cc 	stceq	0, cr0, [r8, #-816]	; 0xfffffcd0
     784:	92000001 	andls	r0, r0, #1
     788:	09000007 	stmdbeq	r0, {r0, r1, r2}
     78c:	000000c7 	andeq	r0, r0, r7, asr #1
     790:	0d080019 	stceq	0, cr0, [r8, #-100]	; 0xffffff9c
     794:	a2000001 	andge	r0, r0, #1
     798:	09000007 	stmdbeq	r0, {r0, r1, r2}
     79c:	000000c7 	andeq	r0, r0, r7, asr #1
     7a0:	0d080007 	stceq	0, cr0, [r8, #-28]	; 0xffffffe4
     7a4:	b2000001 	andlt	r0, r0, #1
     7a8:	09000007 	stmdbeq	r0, {r0, r1, r2}
     7ac:	000000c7 	andeq	r0, r0, r7, asr #1
     7b0:	f01a0017 			; <UNDEFINED> instruction: 0xf01a0017
     7b4:	d6027005 	strle	r7, [r2], -r5
     7b8:	17000007 	strne	r0, [r0, -r7]
     7bc:	0000029b 	muleq	r0, fp, r2
     7c0:	d6027305 	strle	r7, [r2], -r5, lsl #6
     7c4:	00000007 	andeq	r0, r0, r7
     7c8:	00049f17 	andeq	r9, r4, r7, lsl pc
     7cc:	02740500 	rsbseq	r0, r4, #0, 10
     7d0:	000007e6 	andeq	r0, r0, r6, ror #15
     7d4:	d6080078 			; <UNDEFINED> instruction: 0xd6080078
     7d8:	e6000002 	str	r0, [r0], -r2
     7dc:	09000007 	stmdbeq	r0, {r0, r1, r2}
     7e0:	000000c7 	andeq	r0, r0, r7, asr #1
     7e4:	2c08001d 	stccs	0, cr0, [r8], {29}
     7e8:	f6000000 			; <UNDEFINED> instruction: 0xf6000000
     7ec:	09000007 	stmdbeq	r0, {r0, r1, r2}
     7f0:	000000c7 	andeq	r0, r0, r7, asr #1
     7f4:	f01b001d 			; <UNDEFINED> instruction: 0xf01b001d
     7f8:	18025505 	stmdane	r2, {r0, r2, r8, sl, ip, lr}
     7fc:	1c000008 	stcne	0, cr0, [r0], {8}
     800:	00000385 	andeq	r0, r0, r5, lsl #7
     804:	81026c05 	tsthi	r2, r5, lsl #24
     808:	1c000006 	stcne	0, cr0, [r0], {6}
     80c:	000004c2 	andeq	r0, r0, r2, asr #9
     810:	b2027505 	andlt	r7, r2, #20971520	; 0x1400000
     814:	00000007 	andeq	r0, r0, r7
     818:	00010d08 	andeq	r0, r1, r8, lsl #26
     81c:	00082800 	andeq	r2, r8, r0, lsl #16
     820:	00c70900 	sbceq	r0, r7, r0, lsl #18
     824:	00180000 	andseq	r0, r8, r0
     828:	0008331d 	andeq	r3, r8, sp, lsl r3
     82c:	04241500 	strteq	r1, [r4], #-1280	; 0xfffffb00
     830:	0d000000 	stceq	0, cr0, [r0, #-0]
     834:	00082804 	andeq	r2, r8, r4, lsl #16
     838:	77040d00 	strvc	r0, [r4, -r0, lsl #26]
     83c:	1d000001 	stcne	0, cr0, [r0, #-4]
     840:	0000084a 	andeq	r0, r0, sl, asr #16
     844:	00002515 	andeq	r2, r0, r5, lsl r5
     848:	040d0000 	streq	r0, [sp], #-0
     84c:	00000850 	andeq	r0, r0, r0, asr r8
     850:	083f040d 	ldmdaeq	pc!, {r0, r2, r3, sl}	; <UNPREDICTABLE>
     854:	ef080000 	svc	0x00080000
     858:	66000005 	strvs	r0, [r0], -r5
     85c:	09000008 	stmdbeq	r0, {r3}
     860:	000000c7 	andeq	r0, r0, r7, asr #1
     864:	581e0002 	ldmdapl	lr, {r1}
     868:	05000004 	streq	r0, [r0, #-4]
     86c:	042402fd 	strteq	r0, [r4], #-765	; 0xfffffd03
     870:	511e0000 	tstpl	lr, r0
     874:	05000004 	streq	r0, [r0, #-4]
     878:	042a02fe 	strteq	r0, [sl], #-766	; 0xfffffd02
     87c:	25140000 	ldrcs	r0, [r4, #-0]
     880:	8d000000 	stchi	0, cr0, [r0, #-0]
     884:	15000008 	strne	r0, [r0, #-8]
     888:	00000025 	andeq	r0, r0, r5, lsr #32
     88c:	01bd1f00 			; <UNDEFINED> instruction: 0x01bd1f00
     890:	1d060000 	stcne	0, cr0, [r6, #-0]
     894:	00000898 	muleq	r0, r8, r8
     898:	087e040d 	ldmdaeq	lr!, {r0, r2, r3, sl}^
     89c:	25140000 	ldrcs	r0, [r4, #-0]
     8a0:	ad000000 	stcge	0, cr0, [r0, #-0]
     8a4:	15000008 	strne	r0, [r0, #-8]
     8a8:	00000585 	andeq	r0, r0, r5, lsl #11
     8ac:	07561f00 	ldrbeq	r1, [r6, -r0, lsl #30]
     8b0:	22060000 	andcs	r0, r6, #0
     8b4:	000008b8 			; <UNDEFINED> instruction: 0x000008b8
     8b8:	089e040d 	ldmeq	lr, {r0, r2, r3, sl}
     8bc:	34200000 	strtcc	r0, [r0], #-0
     8c0:	01000000 	mrseq	r0, (UNDEF: 0)
     8c4:	0080100d 	addeq	r1, r0, sp
     8c8:	0000c800 	andeq	ip, r0, r0, lsl #16
     8cc:	2f9c0100 	svccs	0x009c0100
     8d0:	2100000a 	tstcs	r0, sl
     8d4:	13010070 	movwne	r0, #4208	; 0x1070
     8d8:	00000107 	andeq	r0, r0, r7, lsl #2
     8dc:	00000000 	andeq	r0, r0, r0
     8e0:	0001fa22 	andeq	pc, r1, r2, lsr #20
     8e4:	000a3f00 	andeq	r3, sl, r0, lsl #30
     8e8:	38030500 	stmdacc	r3, {r8, sl}
     8ec:	23000092 	movwcs	r0, #146	; 0x92
     8f0:	0000801c 	andeq	r8, r0, ip, lsl r0
     8f4:	00000a44 	andeq	r0, r0, r4, asr #20
     8f8:	00000906 	andeq	r0, r0, r6, lsl #18
     8fc:	05500124 	ldrbeq	r0, [r0, #-292]	; 0xfffffedc
     900:	00924003 	addseq	r4, r2, r3
     904:	28230000 	stmdacs	r3!, {}	; <UNPREDICTABLE>
     908:	4f000080 	svcmi	0x00000080
     90c:	2200000a 	andcs	r0, r0, #10
     910:	24000009 	strcs	r0, [r0], #-9
     914:	40035001 	andmi	r5, r3, r1
     918:	01242440 			; <UNDEFINED> instruction: 0x01242440
     91c:	40400351 	submi	r0, r0, r1, asr r3
     920:	44230024 	strtmi	r0, [r3], #-36	; 0xffffffdc
     924:	5a000080 	bpl	b2c <_start-0x74d4>
     928:	4600000a 	strmi	r0, [r0], -sl
     92c:	24000009 	strcs	r0, [r0], #-9
     930:	34015001 	strcc	r5, [r1], #-1
     934:	02510124 	subseq	r0, r1, #36, 2
     938:	01240075 			; <UNDEFINED> instruction: 0x01240075
     93c:	00760252 	rsbseq	r0, r6, r2, asr r2
     940:	01530124 	cmpeq	r3, r4, lsr #2
     944:	50230043 	eorpl	r0, r3, r3, asr #32
     948:	44000080 	strmi	r0, [r0], #-128	; 0xffffff80
     94c:	5d00000a 	stcpl	0, cr0, [r0, #-40]	; 0xffffffd8
     950:	24000009 	strcs	r0, [r0], #-9
     954:	03055001 	movweq	r5, #20481	; 0x5001
     958:	00009258 	andeq	r9, r0, r8, asr r2
     95c:	805c2300 	subshi	r2, ip, r0, lsl #6
     960:	0a440000 	beq	1100968 <__bss_end__+0x10f6f00>
     964:	097a0000 	ldmdbeq	sl!, {}^	; <UNPREDICTABLE>
     968:	01240000 			; <UNDEFINED> instruction: 0x01240000
     96c:	60030550 	andvs	r0, r3, r0, asr r5
     970:	24000092 	strcs	r0, [r0], #-146	; 0xffffff6e
     974:	74025101 	strvc	r5, [r2], #-257	; 0xfffffeff
     978:	6c230000 	stcvs	0, cr0, [r3], #-0
     97c:	65000080 	strvs	r0, [r0, #-128]	; 0xffffff80
     980:	9800000a 	stmdals	r0, {r1, r3}
     984:	24000009 	strcs	r0, [r0], #-9
     988:	74025001 	strvc	r5, [r2], #-1
     98c:	51012400 	tstpl	r1, r0, lsl #8
     990:	01243001 			; <UNDEFINED> instruction: 0x01243001
     994:	00340152 	eorseq	r0, r4, r2, asr r1
     998:	00808023 	addeq	r8, r0, r3, lsr #32
     99c:	000a7000 	andeq	r7, sl, r0
     9a0:	0009bd00 	andeq	fp, r9, r0, lsl #26
     9a4:	50012400 	andpl	r2, r1, r0, lsl #8
     9a8:	24007402 	strcs	r7, [r0], #-1026	; 0xfffffbfe
     9ac:	75025101 	strvc	r5, [r2, #-257]	; 0xfffffeff
     9b0:	52012400 	andpl	r2, r1, #0, 8
     9b4:	24007602 	strcs	r7, [r0], #-1538	; 0xfffff9fe
     9b8:	46015301 	strmi	r5, [r1], -r1, lsl #6
     9bc:	80842500 	addhi	r2, r4, r0, lsl #10
     9c0:	0a7b0000 	beq	1ec09c8 <__bss_end__+0x1eb6f60>
     9c4:	94230000 	strtls	r0, [r3], #-0
     9c8:	44000080 	strmi	r0, [r0], #-128	; 0xffffff80
     9cc:	dd00000a 	stcle	0, cr0, [r0, #-40]	; 0xffffffd8
     9d0:	24000009 	strcs	r0, [r0], #-9
     9d4:	03055001 	movweq	r5, #20481	; 0x5001
     9d8:	00009258 	andeq	r9, r0, r8, asr r2
     9dc:	809c2300 	addshi	r2, ip, r0, lsl #6
     9e0:	0a440000 	beq	11009e8 <__bss_end__+0x10f6f80>
     9e4:	09f40000 	ldmibeq	r4!, {}^	; <UNPREDICTABLE>
     9e8:	01240000 			; <UNDEFINED> instruction: 0x01240000
     9ec:	98030550 	stmdals	r3, {r4, r6, r8, sl}
     9f0:	00000092 	muleq	r0, r2, r0
     9f4:	0080a425 	addeq	sl, r0, r5, lsr #8
     9f8:	000a8600 	andeq	r8, sl, r0, lsl #12
     9fc:	80b82300 	adcshi	r2, r8, r0, lsl #6
     a00:	0a440000 	beq	1100a08 <__bss_end__+0x10f6fa0>
     a04:	0a250000 	beq	940a0c <__bss_end__+0x936fa4>
     a08:	01240000 			; <UNDEFINED> instruction: 0x01240000
     a0c:	74030550 	strvc	r0, [r3], #-1360	; 0xfffffab0
     a10:	24000092 	strcs	r0, [r0], #-146	; 0xffffff6e
     a14:	75025101 	strvc	r5, [r2, #-257]	; 0xfffffeff
     a18:	52012400 	andpl	r2, r1, #0, 8
     a1c:	24007602 	strcs	r7, [r0], #-1538	; 0xfffff9fe
     a20:	49015301 	stmdbmi	r1, {r0, r8, r9, ip, lr}
     a24:	80bc2500 	adcshi	r2, ip, r0, lsl #10
     a28:	0a910000 	beq	fe440a30 <__bss_end__+0xfe436fc8>
     a2c:	08000000 	stmdaeq	r0, {}	; <UNPREDICTABLE>
     a30:	00000114 	andeq	r0, r0, r4, lsl r1
     a34:	00000a3f 	andeq	r0, r0, pc, lsr sl
     a38:	0000c709 	andeq	ip, r0, r9, lsl #14
     a3c:	0e000700 	cdpeq	7, 0, cr0, cr0, cr0, {0}
     a40:	00000a2f 	andeq	r0, r0, pc, lsr #20
     a44:	00068d26 	andeq	r8, r6, r6, lsr #26
     a48:	00068d00 	andeq	r8, r6, r0, lsl #26
     a4c:	26290600 	strtcs	r0, [r9], -r0, lsl #12
     a50:	00000138 	andeq	r0, r0, r8, lsr r1
     a54:	00000138 	andeq	r0, r0, r8, lsr r1
     a58:	73267707 			; <UNDEFINED> instruction: 0x73267707
     a5c:	73000000 	movwvc	r0, #0
     a60:	07000000 	streq	r0, [r0, -r0]
     a64:	04762674 	ldrbteq	r2, [r6], #-1652	; 0xfffff98c
     a68:	04760000 	ldrbteq	r0, [r6], #-0
     a6c:	19080000 	stmdbne	r8, {}	; <UNPREDICTABLE>
     a70:	00026626 	andeq	r6, r2, r6, lsr #12
     a74:	00026600 	andeq	r6, r2, r0, lsl #12
     a78:	26750700 	ldrbtcs	r0, [r5], -r0, lsl #14
     a7c:	0000000c 	andeq	r0, r0, ip
     a80:	0000000c 	andeq	r0, r0, ip
     a84:	d5267d07 	strle	r7, [r6, #-3335]!	; 0xfffff2f9
     a88:	d5000001 	strle	r0, [r0, #-1]
     a8c:	06000001 	streq	r0, [r0], -r1
     a90:	0285261e 	addeq	r2, r5, #31457280	; 0x1e00000
     a94:	02850000 	addeq	r0, r5, #0
     a98:	65060000 	strvs	r0, [r6, #-0]
     a9c:	00139500 	andseq	r9, r3, r0, lsl #10
     aa0:	f1000400 			; <UNDEFINED> instruction: 0xf1000400
     aa4:	04000001 	streq	r0, [r0], #-1
     aa8:	0003bf01 	andeq	fp, r3, r1, lsl #30
     aac:	05aa0c00 	streq	r0, [sl, #3072]!	; 0xc00
     ab0:	00ce0000 	sbceq	r0, lr, r0
     ab4:	80d80000 	sbcshi	r0, r8, r0
     ab8:	05a00000 	streq	r0, [r0, #0]!
     abc:	010f0000 	mrseq	r0, CPSR
     ac0:	04020000 	streq	r0, [r2], #-0
     ac4:	746e6905 	strbtvc	r6, [lr], #-2309	; 0xfffff6fb
     ac8:	07040300 	streq	r0, [r4, -r0, lsl #6]
     acc:	00000066 	andeq	r0, r0, r6, rrx
     ad0:	e3060103 	movw	r0, #24835	; 0x6103
     ad4:	03000002 	movweq	r0, #2
     ad8:	02fd0502 	rscseq	r0, sp, #8388608	; 0x800000
     adc:	04030000 	streq	r0, [r3], #-0
     ae0:	0000af05 	andeq	sl, r0, r5, lsl #30
     ae4:	05080300 	streq	r0, [r8, #-768]	; 0xfffffd00
     ae8:	000000aa 	andeq	r0, r0, sl, lsr #1
     aec:	00065104 	andeq	r5, r6, r4, lsl #2
     af0:	5a2e0200 	bpl	b812f8 <__bss_end__+0xb77890>
     af4:	03000000 	movweq	r0, #0
     af8:	02e10801 	rsceq	r0, r1, #65536	; 0x10000
     afc:	02030000 	andeq	r0, r3, #0
     b00:	00020e07 	andeq	r0, r2, r7, lsl #28
     b04:	060e0400 	streq	r0, [lr], -r0, lsl #8
     b08:	34020000 	strcc	r0, [r2], #-0
     b0c:	00000073 	andeq	r0, r0, r3, ror r0
     b10:	61070403 	tstvs	r7, r3, lsl #8
     b14:	03000000 	movweq	r0, #0
     b18:	005c0708 	subseq	r0, ip, r8, lsl #14
     b1c:	cf040000 	svcgt	0x00040000
     b20:	03000002 	movweq	r0, #2
     b24:	00002507 	andeq	r2, r0, r7, lsl #10
     b28:	02be0400 	adcseq	r0, lr, #0, 8
     b2c:	2c040000 	stccs	0, cr0, [r4], {-0}
     b30:	00000041 	andeq	r0, r0, r1, asr #32
     b34:	0003a804 	andeq	sl, r3, r4, lsl #16
     b38:	41720400 	cmnmi	r2, r0, lsl #8
     b3c:	05000000 	streq	r0, [r0, #-0]
     b40:	0000025f 	andeq	r0, r0, pc, asr r2
     b44:	2c016505 	cfstr32cs	mvfx6, [r1], {5}
     b48:	06000000 	streq	r0, [r0], -r0
     b4c:	cda60404 	cfstrsgt	mvf0, [r6, #16]!
     b50:	07000000 	streq	r0, [r0, -r0]
     b54:	00000259 	andeq	r0, r0, r9, asr r2
     b58:	00a2a804 	adceq	sl, r2, r4, lsl #16
     b5c:	ce070000 	cdpgt	0, 0, cr0, cr7, cr0, {0}
     b60:	04000001 	streq	r0, [r0], #-1
     b64:	0000cda9 	andeq	ip, r0, r9, lsr #27
     b68:	5a080000 	bpl	200b70 <__bss_end__+0x1f7108>
     b6c:	dd000000 	stcle	0, cr0, [r0, #-0]
     b70:	09000000 	stmdbeq	r0, {}	; <UNPREDICTABLE>
     b74:	000000dd 	ldrdeq	r0, [r0], -sp
     b78:	04030003 	streq	r0, [r3], #-3
     b7c:	00029207 	andeq	r9, r2, r7, lsl #4
     b80:	04080a00 	streq	r0, [r8], #-2560	; 0xfffff600
     b84:	000105a3 	andeq	r0, r1, r3, lsr #11
     b88:	03920b00 	orrseq	r0, r2, #0, 22
     b8c:	a5040000 	strge	r0, [r4, #-0]
     b90:	00000025 	andeq	r0, r0, r5, lsr #32
     b94:	039a0b00 	orrseq	r0, sl, #0, 22
     b98:	aa040000 	bge	100ba0 <__bss_end__+0xf7138>
     b9c:	000000ae 	andeq	r0, r0, lr, lsr #1
     ba0:	25040004 	strcs	r0, [r4, #-4]
     ba4:	04000003 	streq	r0, [r0], #-3
     ba8:	0000e4ab 	andeq	lr, r0, fp, lsr #9
     bac:	018b0400 	orreq	r0, fp, r0, lsl #8
     bb0:	af040000 	svcge	0x00040000
     bb4:	00000081 	andeq	r0, r0, r1, lsl #1
     bb8:	040d040c 	streq	r0, [sp], #-1036	; 0xfffffbf4
     bbc:	00000123 	andeq	r0, r0, r3, lsr #2
     bc0:	ea080103 	b	200fd4 <__bss_end__+0x1f756c>
     bc4:	0e000002 	cdpeq	0, 0, cr0, cr0, cr2, {0}
     bc8:	00000123 	andeq	r0, r0, r3, lsr #2
     bcc:	00043c04 	andeq	r3, r4, r4, lsl #24
     bd0:	73160600 	tstvc	r6, #0, 12
     bd4:	0f000000 	svceq	0x00000000
     bd8:	0000019c 	muleq	r0, ip, r1
     bdc:	8d2d0618 	stchi	6, cr0, [sp, #-96]!	; 0xffffffa0
     be0:	0b000001 	bleq	bec <_start-0x7414>
     be4:	00000346 	andeq	r0, r0, r6, asr #6
     be8:	018d2f06 	orreq	r2, sp, r6, lsl #30
     bec:	10000000 	andne	r0, r0, r0
     bf0:	06006b5f 			; <UNDEFINED> instruction: 0x06006b5f
     bf4:	00002530 	andeq	r2, r0, r0, lsr r5
     bf8:	7d0b0400 	cfstrsvc	mvf0, [fp, #-0]
     bfc:	06000003 	streq	r0, [r0], -r3
     c00:	00002530 	andeq	r2, r0, r0, lsr r5
     c04:	850b0800 	strhi	r0, [fp, #-2048]	; 0xfffff800
     c08:	06000001 	streq	r0, [r0], -r1
     c0c:	00002530 	andeq	r2, r0, r0, lsr r5
     c10:	8a0b0c00 	bhi	2c3c18 <__bss_end__+0x2ba1b0>
     c14:	06000004 	streq	r0, [r0], -r4
     c18:	00002530 	andeq	r2, r0, r0, lsr r5
     c1c:	5f101000 	svcpl	0x00101000
     c20:	31060078 	tstcc	r6, r8, ror r0
     c24:	00000193 	muleq	r0, r3, r1
     c28:	040d0014 	streq	r0, [sp], #-20	; 0xffffffec
     c2c:	0000013a 	andeq	r0, r0, sl, lsr r1
     c30:	00012f08 	andeq	r2, r1, r8, lsl #30
     c34:	0001a300 	andeq	sl, r1, r0, lsl #6
     c38:	00dd0900 	sbcseq	r0, sp, r0, lsl #18
     c3c:	00000000 	andeq	r0, r0, r0
     c40:	0001c90f 	andeq	ip, r1, pc, lsl #18
     c44:	35062400 	strcc	r2, [r6, #-1024]	; 0xfffffc00
     c48:	0000021c 	andeq	r0, r0, ip, lsl r2
     c4c:	0000a10b 	andeq	sl, r0, fp, lsl #2
     c50:	25370600 	ldrcs	r0, [r7, #-1536]!	; 0xfffffa00
     c54:	00000000 	andeq	r0, r0, r0
     c58:	0003b00b 	andeq	fp, r3, fp
     c5c:	25380600 	ldrcs	r0, [r8, #-1536]!	; 0xfffffa00
     c60:	04000000 	streq	r0, [r0], #-0
     c64:	0000c40b 	andeq	ip, r0, fp, lsl #8
     c68:	25390600 	ldrcs	r0, [r9, #-1536]!	; 0xfffffa00
     c6c:	08000000 	stmdaeq	r0, {}	; <UNPREDICTABLE>
     c70:	0005030b 	andeq	r0, r5, fp, lsl #6
     c74:	253a0600 	ldrcs	r0, [sl, #-1536]!	; 0xfffffa00
     c78:	0c000000 	stceq	0, cr0, [r0], {-0}
     c7c:	0002a20b 	andeq	sl, r2, fp, lsl #4
     c80:	253b0600 	ldrcs	r0, [fp, #-1536]!	; 0xfffffa00
     c84:	10000000 	andne	r0, r0, r0
     c88:	00027b0b 	andeq	r7, r2, fp, lsl #22
     c8c:	253c0600 	ldrcs	r0, [ip, #-1536]!	; 0xfffffa00
     c90:	14000000 	strne	r0, [r0], #-0
     c94:	00048f0b 	andeq	r8, r4, fp, lsl #30
     c98:	253d0600 	ldrcs	r0, [sp, #-1536]!	; 0xfffffa00
     c9c:	18000000 	stmdane	r0, {}	; <UNPREDICTABLE>
     ca0:	0003070b 	andeq	r0, r3, fp, lsl #14
     ca4:	253e0600 	ldrcs	r0, [lr, #-1536]!	; 0xfffffa00
     ca8:	1c000000 	stcne	0, cr0, [r0], {-0}
     cac:	0004ca0b 	andeq	ip, r4, fp, lsl #20
     cb0:	253f0600 	ldrcs	r0, [pc, #-1536]!	; 6b8 <_start-0x7948>
     cb4:	20000000 	andcs	r0, r0, r0
     cb8:	01041100 	mrseq	r1, (UNDEF: 20)
     cbc:	01080000 	mrseq	r0, (UNDEF: 8)
     cc0:	025c4806 	subseq	r4, ip, #393216	; 0x60000
     cc4:	780b0000 	stmdavc	fp, {}	; <UNPREDICTABLE>
     cc8:	06000001 	streq	r0, [r0], -r1
     ccc:	00025c49 	andeq	r5, r2, r9, asr #24
     cd0:	000b0000 	andeq	r0, fp, r0
     cd4:	06000000 	streq	r0, [r0], -r0
     cd8:	00025c4a 	andeq	r5, r2, sl, asr #24
     cdc:	2e128000 	cdpcs	0, 1, cr8, cr2, cr0, {0}
     ce0:	06000004 	streq	r0, [r0], -r4
     ce4:	00012f4c 	andeq	r2, r1, ip, asr #30
     ce8:	12010000 	andne	r0, r1, #0
     cec:	00000129 	andeq	r0, r0, r9, lsr #2
     cf0:	012f4f06 			; <UNDEFINED> instruction: 0x012f4f06
     cf4:	01040000 	mrseq	r0, (UNDEF: 4)
     cf8:	011b0800 	tsteq	fp, r0, lsl #16
     cfc:	026c0000 	rsbeq	r0, ip, #0
     d00:	dd090000 	stcle	0, cr0, [r9, #-0]
     d04:	1f000000 	svcne	0x00000000
     d08:	02ab1100 	adceq	r1, fp, #0, 2
     d0c:	01900000 	orrseq	r0, r0, r0
     d10:	02aa5b06 	adceq	r5, sl, #6144	; 0x1800
     d14:	460b0000 	strmi	r0, [fp], -r0
     d18:	06000003 	streq	r0, [r0], -r3
     d1c:	0002aa5c 	andeq	sl, r2, ip, asr sl
     d20:	5e0b0000 	cdppl	0, 0, cr0, cr11, cr0, {0}
     d24:	06000003 	streq	r0, [r0], -r3
     d28:	0000255d 	andeq	r2, r0, sp, asr r5
     d2c:	800b0400 	andhi	r0, fp, r0, lsl #8
     d30:	06000001 	streq	r0, [r0], -r1
     d34:	0002b05f 	andeq	fp, r2, pc, asr r0
     d38:	040b0800 	streq	r0, [fp], #-2048	; 0xfffff800
     d3c:	06000001 	streq	r0, [r0], -r1
     d40:	00021c60 	andeq	r1, r2, r0, ror #24
     d44:	0d008800 	stceq	8, cr8, [r0, #-0]
     d48:	00026c04 	andeq	r6, r2, r4, lsl #24
     d4c:	02c00800 	sbceq	r0, r0, #0, 16
     d50:	02c00000 	sbceq	r0, r0, #0
     d54:	dd090000 	stcle	0, cr0, [r9, #-0]
     d58:	1f000000 	svcne	0x00000000
     d5c:	c6040d00 	strgt	r0, [r4], -r0, lsl #26
     d60:	13000002 	movwne	r0, #2
     d64:	0003110f 	andeq	r1, r3, pc, lsl #2
     d68:	73060800 	movwvc	r0, #26624	; 0x6800
     d6c:	000002ec 	andeq	r0, r0, ip, ror #5
     d70:	0000be0b 	andeq	fp, r0, fp, lsl #28
     d74:	ec740600 	ldcl	6, cr0, [r4], #-0
     d78:	00000002 	andeq	r0, r0, r2
     d7c:	00001b0b 	andeq	r1, r0, fp, lsl #22
     d80:	25750600 	ldrbcs	r0, [r5, #-1536]!	; 0xfffffa00
     d84:	04000000 	streq	r0, [r0], #-0
     d88:	5a040d00 	bpl	104190 <__bss_end__+0xfa728>
     d8c:	0f000000 	svceq	0x00000000
     d90:	00000330 	andeq	r0, r0, r0, lsr r3
     d94:	1cb30668 	ldcne	6, cr0, [r3], #416	; 0x1a0
     d98:	10000004 	andne	r0, r0, r4
     d9c:	0600705f 			; <UNDEFINED> instruction: 0x0600705f
     da0:	0002ecb4 			; <UNDEFINED> instruction: 0x0002ecb4
     da4:	5f100000 	svcpl	0x00100000
     da8:	b5060072 	strlt	r0, [r6, #-114]	; 0xffffff8e
     dac:	00000025 	andeq	r0, r0, r5, lsr #32
     db0:	775f1004 	ldrbvc	r1, [pc, -r4]
     db4:	25b60600 	ldrcs	r0, [r6, #1536]!	; 0x600
     db8:	08000000 	stmdaeq	r0, {}	; <UNPREDICTABLE>
     dbc:	0001220b 	andeq	r2, r1, fp, lsl #4
     dc0:	3ab70600 	bcc	fedc25c8 <__bss_end__+0xfedb8b60>
     dc4:	0c000000 	stceq	0, cr0, [r0], {-0}
     dc8:	0001f40b 	andeq	pc, r1, fp, lsl #8
     dcc:	3ab80600 	bcc	fee025d4 <__bss_end__+0xfedf8b6c>
     dd0:	0e000000 	cdpeq	0, 0, cr0, cr0, cr0, {0}
     dd4:	66625f10 	uqadd16vs	r5, r2, r0
     dd8:	c7b90600 	ldrgt	r0, [r9, r0, lsl #12]!
     ddc:	10000002 	andne	r0, r0, r2
     de0:	00007b0b 	andeq	r7, r0, fp, lsl #22
     de4:	25ba0600 	ldrcs	r0, [sl, #1536]!	; 0x600
     de8:	18000000 	stmdane	r0, {}	; <UNPREDICTABLE>
     dec:	0001120b 	andeq	r1, r1, fp, lsl #4
     df0:	1bc10600 	blne	ff0425f8 <__bss_end__+0xff038b90>
     df4:	1c000001 	stcne	0, cr0, [r0], {1}
     df8:	000a5e0b 	andeq	r5, sl, fp, lsl #28
     dfc:	77c30600 	strbvc	r0, [r3, r0, lsl #12]
     e00:	20000005 	andcs	r0, r0, r5
     e04:	000a780b 	andeq	r7, sl, fp, lsl #16
     e08:	a1c50600 	bicge	r0, r5, r0, lsl #12
     e0c:	24000005 	strcs	r0, [r0], #-5
     e10:	0003a20b 	andeq	sl, r3, fp, lsl #4
     e14:	c5c80600 	strbgt	r0, [r8, #1536]	; 0x600
     e18:	28000005 	stmdacs	r0, {r0, r2}
     e1c:	0004e40b 	andeq	lr, r4, fp, lsl #8
     e20:	dfc90600 	svcle	0x00c90600
     e24:	2c000005 	stccs	0, cr0, [r0], {5}
     e28:	62755f10 	rsbsvs	r5, r5, #16, 30	; 0x40
     e2c:	c7cc0600 	strbgt	r0, [ip, r0, lsl #12]
     e30:	30000002 	andcc	r0, r0, r2
     e34:	70755f10 	rsbsvc	r5, r5, r0, lsl pc
     e38:	eccd0600 	stcl	6, cr0, [sp], {0}
     e3c:	38000002 	stmdacc	r0, {r1}
     e40:	72755f10 	rsbsvc	r5, r5, #16, 30	; 0x40
     e44:	25ce0600 	strbcs	r0, [lr, #1536]	; 0x600
     e48:	3c000000 	stccc	0, cr0, [r0], {-0}
     e4c:	0000b80b 	andeq	fp, r0, fp, lsl #16
     e50:	e5d10600 	ldrb	r0, [r1, #1536]	; 0x600
     e54:	40000005 	andmi	r0, r0, r5
     e58:	0004bc0b 	andeq	fp, r4, fp, lsl #24
     e5c:	f5d20600 			; <UNDEFINED> instruction: 0xf5d20600
     e60:	43000005 	movwmi	r0, #5
     e64:	626c5f10 	rsbvs	r5, ip, #16, 30	; 0x40
     e68:	c7d50600 	ldrbgt	r0, [r5, r0, lsl #12]
     e6c:	44000002 	strmi	r0, [r0], #-2
     e70:	0001400b 	andeq	r4, r1, fp
     e74:	25d80600 	ldrbcs	r0, [r8, #1536]	; 0x600
     e78:	4c000000 	stcmi	0, cr0, [r0], {-0}
     e7c:	0001510b 	andeq	r5, r1, fp, lsl #2
     e80:	8cd90600 	ldclhi	6, cr0, [r9], {0}
     e84:	50000000 	andpl	r0, r0, r0
     e88:	0009ff0b 	andeq	pc, r9, fp, lsl #30
     e8c:	3adc0600 	bcc	ff702694 <__bss_end__+0xff6f8c2c>
     e90:	54000004 	strpl	r0, [r0], #-4
     e94:	00026d0b 	andeq	r6, r2, fp, lsl #26
     e98:	10e00600 	rscne	r0, r0, r0, lsl #12
     e9c:	58000001 	stmdapl	r0, {r0}
     ea0:	0003380b 	andeq	r3, r3, fp, lsl #16
     ea4:	05e20600 	strbeq	r0, [r2, #1536]!	; 0x600
     ea8:	5c000001 	stcpl	0, cr0, [r0], {1}
     eac:	0002730b 	andeq	r7, r2, fp, lsl #6
     eb0:	25e30600 	strbcs	r0, [r3, #1536]!	; 0x600
     eb4:	64000000 	strvs	r0, [r0], #-0
     eb8:	00251400 	eoreq	r1, r5, r0, lsl #8
     ebc:	043a0000 	ldrteq	r0, [sl], #-0
     ec0:	3a150000 	bcc	540ec8 <__bss_end__+0x537460>
     ec4:	15000004 	strne	r0, [r0, #-4]
     ec8:	0000011b 	andeq	r0, r0, fp, lsl r1
     ecc:	00011d15 	andeq	r1, r1, r5, lsl sp
     ed0:	00251500 	eoreq	r1, r5, r0, lsl #10
     ed4:	0d000000 	stceq	0, cr0, [r0, #-0]
     ed8:	00044504 	andeq	r4, r4, r4, lsl #10
     edc:	043a0e00 	ldrteq	r0, [sl], #-3584	; 0xfffff200
     ee0:	85160000 	ldrhi	r0, [r6, #-0]
     ee4:	28000003 	stmdacs	r0, {r0, r1}
     ee8:	02380604 	eorseq	r0, r8, #4, 12	; 0x400000
     eec:	00000577 	andeq	r0, r0, r7, ror r5
     ef0:	0002f617 	andeq	pc, r2, r7, lsl r6	; <UNPREDICTABLE>
     ef4:	023a0600 	eorseq	r0, sl, #0, 12
     ef8:	00000025 	andeq	r0, r0, r5, lsr #32
     efc:	01311700 	teqeq	r1, r0, lsl #14
     f00:	3f060000 	svccc	0x00060000
     f04:	00064c02 	andeq	r4, r6, r2, lsl #24
     f08:	e4170400 	ldr	r0, [r7], #-1024	; 0xfffffc00
     f0c:	06000001 	streq	r0, [r0], -r1
     f10:	064c023f 			; <UNDEFINED> instruction: 0x064c023f
     f14:	17080000 	strne	r0, [r8, -r0]
     f18:	00000194 	muleq	r0, r4, r1
     f1c:	4c023f06 	stcmi	15, cr3, [r2], {6}
     f20:	0c000006 	stceq	0, cr0, [r0], {6}
     f24:	00035917 	andeq	r5, r3, r7, lsl r9
     f28:	02410600 	subeq	r0, r1, #0, 12
     f2c:	00000025 	andeq	r0, r0, r5, lsr #32
     f30:	00291710 	eoreq	r1, r9, r0, lsl r7
     f34:	42060000 	andmi	r0, r6, #0
     f38:	00082e02 	andeq	r2, r8, r2, lsl #28
     f3c:	64171400 	ldrvs	r1, [r7], #-1024	; 0xfffffc00
     f40:	06000004 	streq	r0, [r0], -r4
     f44:	00250244 	eoreq	r0, r5, r4, asr #4
     f48:	17300000 	ldrne	r0, [r0, -r0]!
     f4c:	00000363 	andeq	r0, r0, r3, ror #6
     f50:	9b024506 	blls	92370 <__bss_end__+0x88908>
     f54:	34000005 	strcc	r0, [r0], #-5
     f58:	0002b317 	andeq	fp, r2, r7, lsl r3
     f5c:	02470600 	subeq	r0, r7, #0, 12
     f60:	00000025 	andeq	r0, r0, r5, lsr #32
     f64:	03731738 	cmneq	r3, #56, 14	; 0xe00000
     f68:	49060000 	stmdbmi	r6, {}	; <UNPREDICTABLE>
     f6c:	00084902 	andeq	r4, r8, r2, lsl #18
     f70:	51173c00 	tstpl	r7, r0, lsl #24
     f74:	06000002 	streq	r0, [r0], -r2
     f78:	018d024c 	orreq	r0, sp, ip, asr #4
     f7c:	17400000 	strbne	r0, [r0, -r0]
     f80:	000001b3 			; <UNDEFINED> instruction: 0x000001b3
     f84:	25024d06 	strcs	r4, [r2, #-3334]	; 0xfffff2fa
     f88:	44000000 	strmi	r0, [r0], #-0
     f8c:	0004fe17 	andeq	pc, r4, r7, lsl lr	; <UNPREDICTABLE>
     f90:	024e0600 	subeq	r0, lr, #0, 12
     f94:	0000018d 	andeq	r0, r0, sp, lsl #3
     f98:	02c51748 	sbceq	r1, r5, #72, 14	; 0x1200000
     f9c:	4f060000 	svcmi	0x00060000
     fa0:	00084f02 	andeq	r4, r8, r2, lsl #30
     fa4:	ec174c00 	ldc	12, cr4, [r7], {-0}
     fa8:	06000001 	streq	r0, [r0], -r1
     fac:	00250252 	eoreq	r0, r5, r2, asr r2
     fb0:	17500000 	ldrbne	r0, [r0, -r0]
     fb4:	00000149 	andeq	r0, r0, r9, asr #2
     fb8:	1d025306 	stcne	3, cr5, [r2, #-24]	; 0xffffffe8
     fbc:	54000001 	strpl	r0, [r0], #-1
     fc0:	0002ef17 	andeq	lr, r2, r7, lsl pc
     fc4:	02760600 	rsbseq	r0, r6, #0, 12
     fc8:	0000080c 	andeq	r0, r0, ip, lsl #16
     fcc:	02ab1858 	adceq	r1, fp, #88, 16	; 0x580000
     fd0:	7a060000 	bvc	180fd8 <__bss_end__+0x177570>
     fd4:	0002aa02 	andeq	sl, r2, r2, lsl #20
     fd8:	18014800 	stmdane	r1, {fp, lr}
     fdc:	0000022f 	andeq	r0, r0, pc, lsr #4
     fe0:	6c027b06 			; <UNDEFINED> instruction: 0x6c027b06
     fe4:	4c000002 	stcmi	0, cr0, [r0], {2}
     fe8:	04b21801 	ldrteq	r1, [r2], #2049	; 0x801
     fec:	7f060000 	svcvc	0x00060000
     ff0:	00086002 	andeq	r6, r8, r2
     ff4:	1802dc00 	stmdane	r2, {sl, fp, ip, lr, pc}
     ff8:	0000011a 	andeq	r0, r0, sl, lsl r1
     ffc:	11028406 	tstne	r2, r6, lsl #8
    1000:	e0000006 	and	r0, r0, r6
    1004:	00ff1802 	rscseq	r1, pc, r2, lsl #16
    1008:	85060000 	strhi	r0, [r6, #-0]
    100c:	00086c02 	andeq	r6, r8, r2, lsl #24
    1010:	0002ec00 	andeq	lr, r2, r0, lsl #24
    1014:	041c040d 	ldreq	r0, [ip], #-1037	; 0xfffffbf3
    1018:	25140000 	ldrcs	r0, [r4, #-0]
    101c:	9b000000 	blls	1024 <_start-0x6fdc>
    1020:	15000005 	strne	r0, [r0, #-5]
    1024:	0000043a 	andeq	r0, r0, sl, lsr r4
    1028:	00011b15 	andeq	r1, r1, r5, lsl fp
    102c:	059b1500 	ldreq	r1, [fp, #1280]	; 0x500
    1030:	25150000 	ldrcs	r0, [r5, #-0]
    1034:	00000000 	andeq	r0, r0, r0
    1038:	012a040d 			; <UNDEFINED> instruction: 0x012a040d
    103c:	040d0000 	streq	r0, [sp], #-0
    1040:	0000057d 	andeq	r0, r0, sp, ror r5
    1044:	00009714 	andeq	r9, r0, r4, lsl r7
    1048:	0005c500 	andeq	ip, r5, r0, lsl #10
    104c:	043a1500 	ldrteq	r1, [sl], #-1280	; 0xfffffb00
    1050:	1b150000 	blne	541058 <__bss_end__+0x5375f0>
    1054:	15000001 	strne	r0, [r0, #-1]
    1058:	00000097 	muleq	r0, r7, r0
    105c:	00002515 	andeq	r2, r0, r5, lsl r5
    1060:	040d0000 	streq	r0, [sp], #-0
    1064:	000005a7 	andeq	r0, r0, r7, lsr #11
    1068:	00002514 	andeq	r2, r0, r4, lsl r5
    106c:	0005df00 	andeq	sp, r5, r0, lsl #30
    1070:	043a1500 	ldrteq	r1, [sl], #-1280	; 0xfffffb00
    1074:	1b150000 	blne	54107c <__bss_end__+0x537614>
    1078:	00000001 	andeq	r0, r0, r1
    107c:	05cb040d 	strbeq	r0, [fp, #1037]	; 0x40d
    1080:	5a080000 	bpl	201088 <__bss_end__+0x1f7620>
    1084:	f5000000 			; <UNDEFINED> instruction: 0xf5000000
    1088:	09000005 	stmdbeq	r0, {r0, r2}
    108c:	000000dd 	ldrdeq	r0, [r0], -sp
    1090:	5a080002 	bpl	2010a0 <__bss_end__+0x1f7638>
    1094:	05000000 	streq	r0, [r0, #-0]
    1098:	09000006 	stmdbeq	r0, {r1, r2}
    109c:	000000dd 	ldrdeq	r0, [r0], -sp
    10a0:	1e050000 	cdpne	0, 0, cr0, cr5, cr0, {0}
    10a4:	06000003 	streq	r0, [r0], -r3
    10a8:	02f2011d 	rscseq	r0, r2, #1073741831	; 0x40000007
    10ac:	99190000 	ldmdbls	r9, {}	; <UNPREDICTABLE>
    10b0:	0c000004 	stceq	0, cr0, [r0], {4}
    10b4:	46012106 	strmi	r2, [r1], -r6, lsl #2
    10b8:	17000006 	strne	r0, [r0, -r6]
    10bc:	00000346 	andeq	r0, r0, r6, asr #6
    10c0:	46012306 	strmi	r2, [r1], -r6, lsl #6
    10c4:	00000006 	andeq	r0, r0, r6
    10c8:	00020717 	andeq	r0, r2, r7, lsl r7
    10cc:	01240600 			; <UNDEFINED> instruction: 0x01240600
    10d0:	00000025 	andeq	r0, r0, r5, lsr #32
    10d4:	03181704 	tsteq	r8, #4, 14	; 0x100000
    10d8:	25060000 	strcs	r0, [r6, #-0]
    10dc:	00064c01 	andeq	r4, r6, r1, lsl #24
    10e0:	0d000800 	stceq	8, cr0, [r0, #-0]
    10e4:	00061104 	andeq	r1, r6, r4, lsl #2
    10e8:	05040d00 	streq	r0, [r4, #-3328]	; 0xfffff300
    10ec:	19000006 	stmdbne	r0, {r1, r2}
    10f0:	00000021 	andeq	r0, r0, r1, lsr #32
    10f4:	013d060e 	teqeq	sp, lr, lsl #12
    10f8:	00000687 	andeq	r0, r0, r7, lsl #13
    10fc:	00038c17 	andeq	r8, r3, r7, lsl ip
    1100:	013e0600 	teqeq	lr, r0, lsl #12
    1104:	00000687 	andeq	r0, r0, r7, lsl #13
    1108:	03b91700 			; <UNDEFINED> instruction: 0x03b91700
    110c:	3f060000 	svccc	0x00060000
    1110:	00068701 	andeq	r8, r6, r1, lsl #14
    1114:	37170600 	ldrcc	r0, [r7, -r0, lsl #12]
    1118:	06000004 	streq	r0, [r0], -r4
    111c:	00610140 	rsbeq	r0, r1, r0, asr #2
    1120:	000c0000 	andeq	r0, ip, r0
    1124:	00006108 	andeq	r6, r0, r8, lsl #2
    1128:	00069700 	andeq	r9, r6, r0, lsl #14
    112c:	00dd0900 	sbcseq	r0, sp, r0, lsl #18
    1130:	00020000 	andeq	r0, r2, r0
    1134:	5706d01a 	smladpl	r6, sl, r0, sp
    1138:	00079802 	andeq	r9, r7, r2, lsl #16
    113c:	047d1700 	ldrbteq	r1, [sp], #-1792	; 0xfffff900
    1140:	59060000 	stmdbpl	r6, {}	; <UNPREDICTABLE>
    1144:	00002c02 	andeq	r2, r0, r2, lsl #24
    1148:	21170000 	tstcs	r7, r0
    114c:	06000004 	streq	r0, [r0], -r4
    1150:	011d025a 	tsteq	sp, sl, asr r2
    1154:	17040000 	strne	r0, [r4, -r0]
    1158:	00000244 	andeq	r0, r0, r4, asr #4
    115c:	98025b06 	stmdals	r2, {r1, r2, r8, r9, fp, ip, lr}
    1160:	08000007 	stmdaeq	r0, {r0, r1, r2}
    1164:	0004d517 	andeq	sp, r4, r7, lsl r5
    1168:	025c0600 	subseq	r0, ip, #0, 12
    116c:	000001a3 	andeq	r0, r0, r3, lsr #3
    1170:	01a41724 			; <UNDEFINED> instruction: 0x01a41724
    1174:	5d060000 	stcpl	0, cr0, [r6, #-0]
    1178:	00002502 	andeq	r2, r0, r2, lsl #10
    117c:	41174800 	tstmi	r7, r0, lsl #16
    1180:	06000003 	streq	r0, [r0], -r3
    1184:	007a025e 	rsbseq	r0, sl, lr, asr r2
    1188:	17500000 	ldrbne	r0, [r0, -r0]
    118c:	000004eb 	andeq	r0, r0, fp, ror #9
    1190:	52025f06 	andpl	r5, r2, #6, 30
    1194:	58000006 	stmdapl	r0, {r1, r2}
    1198:	00034c17 	andeq	r4, r3, r7, lsl ip
    119c:	02600600 	rsbeq	r0, r0, #0, 12
    11a0:	00000105 	andeq	r0, r0, r5, lsl #2
    11a4:	04f01768 	ldrbteq	r1, [r0], #1896	; 0x768
    11a8:	61060000 	mrsvs	r0, (UNDEF: 6)
    11ac:	00010502 	andeq	r0, r1, r2, lsl #10
    11b0:	93177000 	tstls	r7, #0
    11b4:	06000000 	streq	r0, [r0], -r0
    11b8:	01050262 	tsteq	r5, r2, ror #4
    11bc:	17780000 	ldrbne	r0, [r8, -r0]!
    11c0:	000004a8 	andeq	r0, r0, r8, lsr #9
    11c4:	a8026306 	stmdage	r2, {r1, r2, r8, r9, sp, lr}
    11c8:	80000007 	andhi	r0, r0, r7
    11cc:	00023817 	andeq	r3, r2, r7, lsl r8
    11d0:	02640600 	rsbeq	r0, r4, #0, 12
    11d4:	000007b8 			; <UNDEFINED> instruction: 0x000007b8
    11d8:	04441788 	strbeq	r1, [r4], #-1928	; 0xfffff878
    11dc:	65060000 	strvs	r0, [r6, #-0]
    11e0:	00002502 	andeq	r2, r0, r2, lsl #10
    11e4:	6a17a000 	bvs	5e91ec <__bss_end__+0x5df784>
    11e8:	06000001 	streq	r0, [r0], -r1
    11ec:	01050266 	tsteq	r5, r6, ror #4
    11f0:	17a40000 	strne	r0, [r4, r0]!
    11f4:	00000084 	andeq	r0, r0, r4, lsl #1
    11f8:	05026706 	streq	r6, [r2, #-1798]	; 0xfffff8fa
    11fc:	ac000001 	stcge	0, cr0, [r0], {1}
    1200:	00015917 	andeq	r5, r1, r7, lsl r9
    1204:	02680600 	rsbeq	r0, r8, #0, 12
    1208:	00000105 	andeq	r0, r0, r5, lsl #2
    120c:	003c17b4 	ldrhteq	r1, [ip], -r4
    1210:	69060000 	stmdbvs	r6, {}	; <UNPREDICTABLE>
    1214:	00010502 	andeq	r0, r1, r2, lsl #10
    1218:	4b17bc00 	blmi	5f0220 <__bss_end__+0x5e67b8>
    121c:	06000000 	streq	r0, [r0], -r0
    1220:	0105026a 	tsteq	r5, sl, ror #4
    1224:	17c40000 	strbne	r0, [r4, r0]
    1228:	000002f4 	strdeq	r0, [r0], -r4
    122c:	25026b06 	strcs	r6, [r2, #-2822]	; 0xfffff4fa
    1230:	cc000000 	stcgt	0, cr0, [r0], {-0}
    1234:	01230800 			; <UNDEFINED> instruction: 0x01230800
    1238:	07a80000 	streq	r0, [r8, r0]!
    123c:	dd090000 	stcle	0, cr0, [r9, #-0]
    1240:	19000000 	stmdbne	r0, {}	; <UNPREDICTABLE>
    1244:	01230800 			; <UNDEFINED> instruction: 0x01230800
    1248:	07b80000 	ldreq	r0, [r8, r0]!
    124c:	dd090000 	stcle	0, cr0, [r9, #-0]
    1250:	07000000 	streq	r0, [r0, -r0]
    1254:	01230800 			; <UNDEFINED> instruction: 0x01230800
    1258:	07c80000 	strbeq	r0, [r8, r0]
    125c:	dd090000 	stcle	0, cr0, [r9, #-0]
    1260:	17000000 	strne	r0, [r0, -r0]
    1264:	06f01a00 	ldrbteq	r1, [r0], r0, lsl #20
    1268:	07ec0270 			; <UNDEFINED> instruction: 0x07ec0270
    126c:	9b170000 	blls	5c1274 <__bss_end__+0x5b780c>
    1270:	06000002 	streq	r0, [r0], -r2
    1274:	07ec0273 			; <UNDEFINED> instruction: 0x07ec0273
    1278:	17000000 	strne	r0, [r0, -r0]
    127c:	0000049f 	muleq	r0, pc, r4	; <UNPREDICTABLE>
    1280:	fc027406 	stc2	4, cr7, [r2], {6}
    1284:	78000007 	stmdavc	r0, {r0, r1, r2}
    1288:	02ec0800 	rsceq	r0, ip, #0, 16
    128c:	07fc0000 	ldrbeq	r0, [ip, r0]!
    1290:	dd090000 	stcle	0, cr0, [r9, #-0]
    1294:	1d000000 	stcne	0, cr0, [r0, #-0]
    1298:	002c0800 	eoreq	r0, ip, r0, lsl #16
    129c:	080c0000 	stmdaeq	ip, {}	; <UNPREDICTABLE>
    12a0:	dd090000 	stcle	0, cr0, [r9, #-0]
    12a4:	1d000000 	stcne	0, cr0, [r0, #-0]
    12a8:	06f01b00 	ldrbteq	r1, [r0], r0, lsl #22
    12ac:	082e0255 	stmdaeq	lr!, {r0, r2, r4, r6, r9}
    12b0:	851c0000 	ldrhi	r0, [ip, #-0]
    12b4:	06000003 	streq	r0, [r0], -r3
    12b8:	0697026c 	ldreq	r0, [r7], ip, ror #4
    12bc:	c21c0000 	andsgt	r0, ip, #0
    12c0:	06000004 	streq	r0, [r0], -r4
    12c4:	07c80275 			; <UNDEFINED> instruction: 0x07c80275
    12c8:	08000000 	stmdaeq	r0, {}	; <UNPREDICTABLE>
    12cc:	00000123 	andeq	r0, r0, r3, lsr #2
    12d0:	0000083e 	andeq	r0, r0, lr, lsr r8
    12d4:	0000dd09 	andeq	sp, r0, r9, lsl #26
    12d8:	1d001800 	stcne	8, cr1, [r0, #-0]
    12dc:	00000849 	andeq	r0, r0, r9, asr #16
    12e0:	00043a15 	andeq	r3, r4, r5, lsl sl
    12e4:	040d0000 	streq	r0, [sp], #-0
    12e8:	0000083e 	andeq	r0, r0, lr, lsr r8
    12ec:	018d040d 	orreq	r0, sp, sp, lsl #8
    12f0:	601d0000 	andsvs	r0, sp, r0
    12f4:	15000008 	strne	r0, [r0, #-8]
    12f8:	00000025 	andeq	r0, r0, r5, lsr #32
    12fc:	66040d00 	strvs	r0, [r4], -r0, lsl #26
    1300:	0d000008 	stceq	0, cr0, [r0, #-32]	; 0xffffffe0
    1304:	00085504 	andeq	r5, r8, r4, lsl #10
    1308:	06050800 	streq	r0, [r5], -r0, lsl #16
    130c:	087c0000 	ldmdaeq	ip!, {}^	; <UNPREDICTABLE>
    1310:	dd090000 	stcle	0, cr0, [r9, #-0]
    1314:	02000000 	andeq	r0, r0, #0
    1318:	04581e00 	ldrbeq	r1, [r8], #-3584	; 0xfffff200
    131c:	fd060000 	stc2	0, cr0, [r6, #-0]
    1320:	00043a02 	andeq	r3, r4, r2, lsl #20
    1324:	04511e00 	ldrbeq	r1, [r1], #-3584	; 0xfffff200
    1328:	fe060000 	cdp2	0, 0, cr0, cr6, cr0, {0}
    132c:	00044002 	andeq	r4, r4, r2
    1330:	00251400 	eoreq	r1, r5, r0, lsl #8
    1334:	08a30000 	stmiaeq	r3!, {}	; <UNPREDICTABLE>
    1338:	25150000 	ldrcs	r0, [r5, #-0]
    133c:	00000000 	andeq	r0, r0, r0
    1340:	0001bd1f 	andeq	fp, r1, pc, lsl sp
    1344:	ae1d0700 	cdpge	7, 1, cr0, cr13, cr0, {0}
    1348:	0d000008 	stceq	0, cr0, [r0, #-32]	; 0xffffffe0
    134c:	00089404 	andeq	r9, r8, r4, lsl #8
    1350:	00251400 	eoreq	r1, r5, r0, lsl #8
    1354:	08c30000 	stmiaeq	r3, {}^	; <UNPREDICTABLE>
    1358:	9b150000 	blls	541360 <__bss_end__+0x5378f8>
    135c:	00000005 	andeq	r0, r0, r5
    1360:	0007561f 	andeq	r5, r7, pc, lsl r6
    1364:	ce220700 	cdpgt	7, 2, cr0, cr2, cr0, {0}
    1368:	0d000008 	stceq	0, cr0, [r0, #-32]	; 0xffffffe0
    136c:	0008b404 	andeq	fp, r8, r4, lsl #8
    1370:	5a012000 	bpl	49378 <__bss_end__+0x3f910>
    1374:	08000000 	stmdaeq	r0, {}	; <UNPREDICTABLE>
    1378:	0008ed24 	andeq	lr, r8, r4, lsr #26
    137c:	05492100 	strbeq	r2, [r9, #-256]	; 0xffffff00
    1380:	210b0000 	mrscs	r0, (UNDEF: 11)
    1384:	00000543 	andeq	r0, r0, r3, asr #10
    1388:	0c0a000c 	stceq	0, cr0, [sl], {12}
    138c:	091a2608 	ldmdbeq	sl, {r3, r9, sl, sp}
    1390:	f50b0000 			; <UNDEFINED> instruction: 0xf50b0000
    1394:	08000001 	stmdaeq	r0, {r0}
    1398:	00059b27 	andeq	r9, r5, r7, lsr #22
    139c:	b70b0000 	strlt	r0, [fp, -r0]
    13a0:	08000004 	stmdaeq	r0, {r2}
    13a4:	00059b28 	andeq	r9, r5, r8, lsr #22
    13a8:	150b0400 	strne	r0, [fp, #-1024]	; 0xfffffc00
    13ac:	08000005 	stmdaeq	r0, {r0, r2}
    13b0:	00002c29 	andeq	r2, r0, r9, lsr #24
    13b4:	04000800 	streq	r0, [r0], #-2048	; 0xfffff800
    13b8:	00000604 	andeq	r0, r0, r4, lsl #12
    13bc:	08ed2a08 	stmiaeq	sp!, {r3, r9, fp, sp}^
    13c0:	790f0000 	stmdbvc	pc, {}	; <UNPREDICTABLE>
    13c4:	38000006 	stmdacc	r0, {r1, r2}
    13c8:	09aa2d08 	stmibeq	sl!, {r3, r8, sl, fp, sp}
    13cc:	d10b0000 	mrsle	r0, (UNDEF: 11)
    13d0:	08000005 	stmdaeq	r0, {r0, r2}
    13d4:	0000682e 	andeq	r6, r0, lr, lsr #16
    13d8:	5f0b0000 	svcpl	0x000b0000
    13dc:	08000006 	stmdaeq	r0, {r1, r2}
    13e0:	0000682f 	andeq	r6, r0, pc, lsr #16
    13e4:	9b0b0400 	blls	2c23ec <__bss_end__+0x2b8984>
    13e8:	08000000 	stmdaeq	r0, {}	; <UNPREDICTABLE>
    13ec:	00006830 	andeq	r6, r0, r0, lsr r8
    13f0:	c20b0800 	andgt	r0, fp, #0, 16
    13f4:	08000005 	stmdaeq	r0, {r0, r2}
    13f8:	00006834 	andeq	r6, r0, r4, lsr r8
    13fc:	b40b0c00 	strlt	r0, [fp], #-3072	; 0xfffff400
    1400:	08000005 	stmdaeq	r0, {r0, r2}
    1404:	00091a36 	andeq	r1, r9, r6, lsr sl
    1408:	300b1000 	andcc	r1, fp, r0
    140c:	08000005 	stmdaeq	r0, {r0, r2}
    1410:	00091a37 	andeq	r1, r9, r7, lsr sl
    1414:	5d0b1c00 	stcpl	12, cr1, [fp, #-0]
    1418:	08000005 	stmdaeq	r0, {r0, r2}
    141c:	0000683b 	andeq	r6, r0, fp, lsr r8
    1420:	510b2800 	tstpl	fp, r0, lsl #16
    1424:	08000005 	stmdaeq	r0, {r0, r2}
    1428:	0000683c 	andeq	r6, r0, ip, lsr r8
    142c:	1c0b2c00 	stcne	12, cr2, [fp], {-0}
    1430:	08000005 	stmdaeq	r0, {r0, r2}
    1434:	0009aa3f 	andeq	sl, r9, pc, lsr sl
    1438:	0d0b3000 	stceq	0, cr3, [fp, #-0]
    143c:	08000005 	stmdaeq	r0, {r0, r2}
    1440:	00006841 	andeq	r6, r0, r1, asr #16
    1444:	0d003400 	cfstrseq	mvf3, [r0, #-0]
    1448:	00092504 	andeq	r2, r9, r4, lsl #10
    144c:	06590400 	ldrbeq	r0, [r9], -r0, lsl #8
    1450:	42080000 	andmi	r0, r8, #0
    1454:	00000925 	andeq	r0, r0, r5, lsr #18
    1458:	00610220 	rsbeq	r0, r1, r0, lsr #4
    145c:	62080000 	andvs	r0, r8, #0
    1460:	000009e1 	andeq	r0, r0, r1, ror #19
    1464:	00062f21 	andeq	r2, r6, r1, lsr #30
    1468:	8021fe00 	eorhi	pc, r1, r0, lsl #28
    146c:	80000005 	andhi	r0, r0, r5
    1470:	00058821 	andeq	r8, r5, r1, lsr #16
    1474:	7022b800 	eorvc	fp, r2, r0, lsl #16
    1478:	38000005 	stmdacc	r0, {r0, r2}
    147c:	2a230001 	bcs	8c1488 <__bss_end__+0x8b7a20>
    1480:	01000006 	tsteq	r0, r6
    1484:	0009f207 	andeq	pc, r9, r7, lsl #4
    1488:	60030500 	andvs	r0, r3, r0, lsl #10
    148c:	0d000096 	stceq	0, cr0, [r0, #-600]	; 0xfffffda8
    1490:	00004f04 	andeq	r4, r0, r4, lsl #30
    1494:	05c82300 	strbeq	r2, [r8, #768]	; 0x300
    1498:	07010000 	streq	r0, [r1, -r0]
    149c:	000009f2 	strdeq	r0, [r0], -r2
    14a0:	96640305 	strbtls	r0, [r4], -r5, lsl #6
    14a4:	17230000 	strne	r0, [r3, -r0]!
    14a8:	01000006 	tsteq	r0, r6
    14ac:	0009f207 	andeq	pc, r9, r7, lsl #4
    14b0:	5c030500 	cfstr32pl	mvfx0, [r3], {-0}
    14b4:	24000096 	strcs	r0, [r0], #-150	; 0xffffff6a
    14b8:	0000000c 	andeq	r0, r0, ip
    14bc:	00259d01 	eoreq	r9, r5, r1, lsl #26
    14c0:	85a40000 	strhi	r0, [r4, #0]!
    14c4:	00d40000 	sbcseq	r0, r4, r0
    14c8:	9c010000 	stcls	0, cr0, [r1], {-0}
    14cc:	00000b3b 	andeq	r0, r0, fp, lsr fp
    14d0:	00056825 	andeq	r6, r5, r5, lsr #16
    14d4:	2c9e0100 	ldfcss	f0, [lr], {0}
    14d8:	1e000000 	cdpne	0, 0, cr0, cr0, cr0, {0}
    14dc:	25000000 	strcs	r0, [r0, #-0]
    14e0:	0000066a 	andeq	r0, r0, sl, ror #12
    14e4:	002c9f01 	eoreq	r9, ip, r1, lsl #30
    14e8:	00310000 	eorseq	r0, r1, r0
    14ec:	22250000 	eorcs	r0, r5, #0
    14f0:	01000006 	tsteq	r0, r6
    14f4:	00002ca3 	andeq	r2, r0, r3, lsr #25
    14f8:	00004400 	andeq	r4, r0, r0, lsl #8
    14fc:	05fe2500 	ldrbeq	r2, [lr, #1280]!	; 0x500
    1500:	a4010000 	strge	r0, [r1], #-0
    1504:	0000002c 	andeq	r0, r0, ip, lsr #32
    1508:	00000063 	andeq	r0, r0, r3, rrx
    150c:	00000026 	andeq	r0, r0, r6, lsr #32
    1510:	000a9600 	andeq	r9, sl, r0, lsl #12
    1514:	063e2300 	ldrteq	r2, [lr], -r0, lsl #6
    1518:	a7010000 	strge	r0, [r1, -r0]
    151c:	00000b3b 	andeq	r0, r0, fp, lsr fp
    1520:	18275401 	stmdane	r7!, {r0, sl, ip, lr}
    1524:	fc000086 	stc2	0, cr0, [r0], {134}	; 0x86
    1528:	2800000f 	stmdacs	r0, {r0, r1, r2, r3}
    152c:	74025001 	strvc	r5, [r2], #-1
    1530:	29000000 	stmdbcs	r0, {}	; <UNPREDICTABLE>
    1534:	000085c8 	andeq	r8, r0, r8, asr #11
    1538:	00001361 	andeq	r1, r0, r1, ror #6
    153c:	00000aad 	andeq	r0, r0, sp, lsr #21
    1540:	05500128 	ldrbeq	r0, [r0, #-296]	; 0xfffffed8
    1544:	00925803 	addseq	r5, r2, r3, lsl #16
    1548:	d8290000 	stmdale	r9!, {}	; <UNPREDICTABLE>
    154c:	61000085 	smlabbvs	r0, r5, r0, r0
    1550:	d0000013 	andle	r0, r0, r3, lsl r0
    1554:	2800000a 	stmdacs	r0, {r1, r3}
    1558:	03055001 	movweq	r5, #20481	; 0x5001
    155c:	000094bc 			; <UNDEFINED> instruction: 0x000094bc
    1560:	02510128 	subseq	r0, r1, #40, 2
    1564:	01280075 			; <UNDEFINED> instruction: 0x01280075
    1568:	00760252 	rsbseq	r0, r6, r2, asr r2
    156c:	86342900 	ldrthi	r2, [r4], -r0, lsl #18
    1570:	13610000 	cmnne	r1, #0
    1574:	0ae70000 	beq	ff9c157c <__bss_end__+0xff9b7b14>
    1578:	01280000 			; <UNDEFINED> instruction: 0x01280000
    157c:	58030550 	stmdapl	r3, {r4, r6, r8, sl}
    1580:	00000092 	muleq	r0, r2, r0
    1584:	00864029 	addeq	r4, r6, r9, lsr #32
    1588:	00136100 	andseq	r6, r3, r0, lsl #2
    158c:	000b0400 	andeq	r0, fp, r0, lsl #8
    1590:	50012800 	andpl	r2, r1, r0, lsl #16
    1594:	951c0305 	ldrls	r0, [ip, #-773]	; 0xfffffcfb
    1598:	01280000 			; <UNDEFINED> instruction: 0x01280000
    159c:	00750251 	rsbseq	r0, r5, r1, asr r2
    15a0:	86502900 	ldrbhi	r2, [r0], -r0, lsl #18
    15a4:	13610000 	cmnne	r1, #0
    15a8:	0b1b0000 	bleq	6c15b0 <__bss_end__+0x6b7b48>
    15ac:	01280000 			; <UNDEFINED> instruction: 0x01280000
    15b0:	58030550 	stmdapl	r3, {r4, r6, r8, sl}
    15b4:	00000092 	muleq	r0, r2, r0
    15b8:	00866027 	addeq	r6, r6, r7, lsr #32
    15bc:	00136100 	andseq	r6, r3, r0, lsl #2
    15c0:	50012800 	andpl	r2, r1, r0, lsl #16
    15c4:	94f40305 	ldrbtls	r0, [r4], #773	; 0x305
    15c8:	01280000 			; <UNDEFINED> instruction: 0x01280000
    15cc:	00750251 	rsbseq	r0, r5, r1, asr r2
    15d0:	02520128 	subseq	r0, r2, #40, 2
    15d4:	00000076 	andeq	r0, r0, r6, ror r0
    15d8:	09b0040d 	ldmibeq	r0!, {r0, r2, r3, sl}
    15dc:	73240000 			; <UNDEFINED> instruction: 0x73240000
    15e0:	01000000 	mrseq	r0, (UNDEF: 0)
    15e4:	00011b76 	andeq	r1, r1, r6, ror fp
    15e8:	00838800 	addeq	r8, r3, r0, lsl #16
    15ec:	00021c00 	andeq	r1, r2, r0, lsl #24
    15f0:	729c0100 	addsvc	r0, ip, #0, 2
    15f4:	2a00000e 	bcs	1634 <_start-0x69cc>
    15f8:	0000064a 	andeq	r0, r0, sl, asr #12
    15fc:	00687601 	rsbeq	r7, r8, r1, lsl #12
    1600:	00820000 	addeq	r0, r2, r0
    1604:	f52a0000 			; <UNDEFINED> instruction: 0xf52a0000
    1608:	01000001 	tsteq	r0, r1
    160c:	00059b76 	andeq	r9, r5, r6, ror fp
    1610:	0000c400 	andeq	ip, r0, r0, lsl #8
    1614:	04b72a00 	ldrteq	r2, [r7], #2560	; 0xa00
    1618:	76010000 	strvc	r0, [r1], -r0
    161c:	0000059b 	muleq	r0, fp, r5
    1620:	00000106 	andeq	r0, r0, r6, lsl #2
    1624:	0005152a 	andeq	r1, r5, sl, lsr #10
    1628:	2c760100 	ldfcse	f0, [r6], #-0
    162c:	48000000 	stmdami	r0, {}	; <UNPREDICTABLE>
    1630:	2b000001 	blcs	163c <_start-0x69c4>
    1634:	77010068 	strvc	r0, [r1, -r8, rrx]
    1638:	00000b3b 	andeq	r0, r0, fp, lsr fp
    163c:	0000018d 	andeq	r0, r0, sp, lsl #3
    1640:	7274702b 	rsbsvc	r7, r4, #43	; 0x2b
    1644:	1b780100 	blne	1e01a4c <__bss_end__+0x1df7fe4>
    1648:	c3000001 	movwgt	r0, #1
    164c:	2c000001 	stccs	0, cr0, [r0], {1}
    1650:	000001fa 	strdeq	r0, [r0], -sl
    1654:	00000e82 	andeq	r0, r0, r2, lsl #29
    1658:	92c40305 	sbcls	r0, r4, #335544320	; 0x14000000
    165c:	742b0000 	strtvc	r0, [fp], #-0
    1660:	0100746f 	tsteq	r0, pc, ror #8
    1664:	00002c7d 	andeq	r2, r0, sp, ror ip
    1668:	0001f900 	andeq	pc, r1, r0, lsl #18
    166c:	006e2b00 	rsbeq	r2, lr, r0, lsl #22
    1670:	002c7e01 	eoreq	r7, ip, r1, lsl #28
    1674:	02580000 	subseq	r0, r8, #0
    1678:	b8290000 	stmdalt	r9!, {}	; <UNPREDICTABLE>
    167c:	61000083 	smlabbvs	r0, r3, r0, r0
    1680:	f4000013 	vst4.8	{d0-d3}, [r0 :64], r3
    1684:	2800000b 	stmdacs	r0, {r0, r1, r3}
    1688:	03055001 	movweq	r5, #20481	; 0x5001
    168c:	00009258 	andeq	r9, r0, r8, asr r2
    1690:	83c02900 	bichi	r2, r0, #0, 18
    1694:	13610000 	cmnne	r1, #0
    1698:	0c0b0000 	stceq	0, cr0, [fp], {-0}
    169c:	01280000 			; <UNDEFINED> instruction: 0x01280000
    16a0:	a0030550 	andge	r0, r3, r0, asr r5
    16a4:	00000093 	muleq	r0, r3, r0
    16a8:	00842029 	addeq	r2, r4, r9, lsr #32
    16ac:	00129600 	andseq	r9, r2, r0, lsl #12
    16b0:	000c1f00 	andeq	r1, ip, r0, lsl #30
    16b4:	50012800 	andpl	r2, r1, r0, lsl #16
    16b8:	00007402 	andeq	r7, r0, r2, lsl #8
    16bc:	00842c29 	addeq	r2, r4, r9, lsr #24
    16c0:	00136c00 	andseq	r6, r3, r0, lsl #24
    16c4:	000c3900 	andeq	r3, ip, r0, lsl #18
    16c8:	51012800 	tstpl	r1, r0, lsl #16
    16cc:	28fe0802 	ldmcs	lr!, {r1, fp}^
    16d0:	08025201 	stmdaeq	r2, {r0, r9, ip, lr}
    16d4:	34290080 	strtcc	r0, [r9], #-128	; 0xffffff80
    16d8:	27000084 	strcs	r0, [r0, -r4, lsl #1]
    16dc:	4d000012 	stcmi	0, cr0, [r0, #-72]	; 0xffffffb8
    16e0:	2800000c 	stmdacs	r0, {r2, r3}
    16e4:	74025001 	strvc	r5, [r2], #-1
    16e8:	40290000 	eormi	r0, r9, r0
    16ec:	00000084 	andeq	r0, r0, r4, lsl #1
    16f0:	61000012 	tstvs	r0, r2, lsl r0
    16f4:	2800000c 	stmdacs	r0, {r2, r3}
    16f8:	74025001 	strvc	r5, [r2], #-1
    16fc:	50290000 	eorpl	r0, r9, r0
    1700:	6c000084 	stcvs	0, cr0, [r0], {132}	; 0x84
    1704:	7b000013 	blvc	1758 <_start-0x68a8>
    1708:	2800000c 	stmdacs	r0, {r2, r3}
    170c:	77025001 	strvc	r5, [r2, -r1]
    1710:	51012800 	tstpl	r1, r0, lsl #16
    1714:	00fe0802 	rscseq	r0, lr, r2, lsl #16
    1718:	00845829 	addeq	r5, r4, r9, lsr #16
    171c:	00118000 	andseq	r8, r1, r0
    1720:	000c8f00 	andeq	r8, ip, r0, lsl #30
    1724:	50012800 	andpl	r2, r1, r0, lsl #16
    1728:	00007402 	andeq	r7, r0, r2, lsl #8
    172c:	00847429 	addeq	r7, r4, r9, lsr #8
    1730:	000ffc00 	andeq	pc, pc, r0, lsl #24
    1734:	000ca300 	andeq	sl, ip, r0, lsl #6
    1738:	50012800 	andpl	r2, r1, r0, lsl #16
    173c:	00007402 	andeq	r7, r0, r2, lsl #8
    1740:	00848429 	addeq	r8, r4, r9, lsr #8
    1744:	00125e00 	andseq	r5, r2, r0, lsl #28
    1748:	000cb700 	andeq	fp, ip, r0, lsl #14
    174c:	50012800 	andpl	r2, r1, r0, lsl #16
    1750:	00007402 	andeq	r7, r0, r2, lsl #8
    1754:	00849029 	addeq	r9, r4, r9, lsr #32
    1758:	00136100 	andseq	r6, r3, r0, lsl #2
    175c:	000cce00 	andeq	ip, ip, r0, lsl #28
    1760:	50012800 	andpl	r2, r1, r0, lsl #16
    1764:	92580305 	subsls	r0, r8, #335544320	; 0x14000000
    1768:	29000000 	stmdbcs	r0, {}	; <UNPREDICTABLE>
    176c:	000084a4 	andeq	r8, r0, r4, lsr #9
    1770:	00001361 	andeq	r1, r0, r1, ror #6
    1774:	00000cf7 	strdeq	r0, [r0], -r7
    1778:	05500128 	ldrbeq	r0, [r0, #-296]	; 0xfffffed8
    177c:	00948c03 	addseq	r8, r4, r3, lsl #24
    1780:	51012800 	tstpl	r1, r0, lsl #16
    1784:	28007502 	stmdacs	r0, {r1, r8, sl, ip, sp, lr}
    1788:	76025201 	strvc	r5, [r2], -r1, lsl #4
    178c:	53012800 	movwpl	r2, #6144	; 0x1800
    1790:	00007402 	andeq	r7, r0, r2, lsl #8
    1794:	0084b42d 	addeq	fp, r4, sp, lsr #8
    1798:	00137700 	andseq	r7, r3, r0, lsl #14
    179c:	84c82900 	strbhi	r2, [r8], #2304	; 0x900
    17a0:	13610000 	cmnne	r1, #0
    17a4:	0d2f0000 	stceq	0, cr0, [pc, #-0]	; 17ac <_start-0x6854>
    17a8:	01280000 			; <UNDEFINED> instruction: 0x01280000
    17ac:	40030550 	andmi	r0, r3, r0, asr r5
    17b0:	28000093 	stmdacs	r0, {r0, r1, r4, r7}
    17b4:	03055101 	movweq	r5, #20737	; 0x5101
    17b8:	000092f0 	strdeq	r9, [r0], -r0
    17bc:	05520128 	ldrbeq	r0, [r2, #-296]	; 0xfffffed8
    17c0:	0092c403 	addseq	ip, r2, r3, lsl #8
    17c4:	53012800 	movwpl	r2, #6144	; 0x1800
    17c8:	007a0802 	rsbseq	r0, sl, r2, lsl #16
    17cc:	0084cc2d 	addeq	ip, r4, sp, lsr #24
    17d0:	00138200 	andseq	r8, r3, r0, lsl #4
    17d4:	84d42900 	ldrbhi	r2, [r4], #2304	; 0x900
    17d8:	13610000 	cmnne	r1, #0
    17dc:	0d4f0000 	stcleq	0, cr0, [pc, #-0]	; 17e4 <_start-0x681c>
    17e0:	01280000 			; <UNDEFINED> instruction: 0x01280000
    17e4:	b8030550 	stmdalt	r3, {r4, r6, r8, sl}
    17e8:	00000093 	muleq	r0, r3, r0
    17ec:	0084e029 	addeq	lr, r4, r9, lsr #32
    17f0:	00136100 	andseq	r6, r3, r0, lsl #2
    17f4:	000d6c00 	andeq	r6, sp, r0, lsl #24
    17f8:	50012800 	andpl	r2, r1, r0, lsl #16
    17fc:	93c40305 	bicls	r0, r4, #335544320	; 0x14000000
    1800:	01280000 			; <UNDEFINED> instruction: 0x01280000
    1804:	00750251 	rsbseq	r0, r5, r1, asr r2
    1808:	84e42d00 	strbthi	r2, [r4], #3328	; 0xd00
    180c:	13770000 	cmnne	r7, #0
    1810:	fc290000 	stc2	0, cr0, [r9], #-0
    1814:	61000084 	smlabbvs	r0, r4, r0, r0
    1818:	ab000013 	blge	186c <_start-0x6794>
    181c:	2800000d 	stmdacs	r0, {r0, r2, r3}
    1820:	03055001 	movweq	r5, #20481	; 0x5001
    1824:	000093ec 	andeq	r9, r0, ip, ror #7
    1828:	05510128 	ldrbeq	r0, [r1, #-296]	; 0xfffffed8
    182c:	0092f003 	addseq	pc, r2, r3
    1830:	52012800 	andpl	r2, r1, #0, 16
    1834:	92c40305 	sbcls	r0, r4, #335544320	; 0x14000000
    1838:	01280000 			; <UNDEFINED> instruction: 0x01280000
    183c:	82080253 	andhi	r0, r8, #805306373	; 0x30000005
    1840:	007d0228 	rsbseq	r0, sp, r8, lsr #4
    1844:	00007502 	andeq	r7, r0, r2, lsl #10
    1848:	0085002d 	addeq	r0, r5, sp, lsr #32
    184c:	00138200 	andseq	r8, r3, r0, lsl #4
    1850:	85082900 	strhi	r2, [r8, #-2304]	; 0xfffff700
    1854:	13610000 	cmnne	r1, #0
    1858:	0dcb0000 	stcleq	0, cr0, [fp]
    185c:	01280000 			; <UNDEFINED> instruction: 0x01280000
    1860:	b8030550 	stmdalt	r3, {r4, r6, r8, sl}
    1864:	00000093 	muleq	r0, r3, r0
    1868:	00852429 	addeq	r2, r5, r9, lsr #8
    186c:	00136100 	andseq	r6, r3, r0, lsl #2
    1870:	000de800 	andeq	lr, sp, r0, lsl #16
    1874:	50012800 	andpl	r2, r1, r0, lsl #16
    1878:	94240305 	strtls	r0, [r4], #-773	; 0xfffffcfb
    187c:	01280000 			; <UNDEFINED> instruction: 0x01280000
    1880:	00760252 	rsbseq	r0, r6, r2, asr r2
    1884:	85282d00 	strhi	r2, [r8, #-3328]!	; 0xfffff300
    1888:	13770000 	cmnne	r7, #0
    188c:	50290000 	eorpl	r0, r9, r0
    1890:	61000085 	smlabbvs	r0, r5, r0, r0
    1894:	27000013 	smladcs	r0, r3, r0, r0
    1898:	2800000e 	stmdacs	r0, {r1, r2, r3}
    189c:	03055001 	movweq	r5, #20481	; 0x5001
    18a0:	00009450 	andeq	r9, r0, r0, asr r4
    18a4:	05510128 	ldrbeq	r0, [r1, #-296]	; 0xfffffed8
    18a8:	0092f003 	addseq	pc, r2, r3
    18ac:	52012800 	andpl	r2, r1, #0, 16
    18b0:	92c40305 	sbcls	r0, r4, #335544320	; 0x14000000
    18b4:	01280000 			; <UNDEFINED> instruction: 0x01280000
    18b8:	86080253 			; <UNDEFINED> instruction: 0x86080253
    18bc:	047d0228 	ldrbteq	r0, [sp], #-552	; 0xfffffdd8
    18c0:	00007602 	andeq	r7, r0, r2, lsl #12
    18c4:	0085542d 	addeq	r5, r5, sp, lsr #8
    18c8:	00138200 	andseq	r8, r3, r0, lsl #4
    18cc:	85582d00 	ldrbhi	r2, [r8, #-3328]	; 0xfffff300
    18d0:	13770000 	cmnne	r7, #0
    18d4:	6c290000 	stcvs	0, cr0, [r9], #-0
    18d8:	61000085 	smlabbvs	r0, r5, r0, r0
    18dc:	68000013 	stmdavs	r0, {r0, r1, r4}
    18e0:	2800000e 	stmdacs	r0, {r1, r2, r3}
    18e4:	03055001 	movweq	r5, #20481	; 0x5001
    18e8:	00009380 	andeq	r9, r0, r0, lsl #7
    18ec:	05510128 	ldrbeq	r0, [r1, #-296]	; 0xfffffed8
    18f0:	0092f003 	addseq	pc, r2, r3
    18f4:	52012800 	andpl	r2, r1, #0, 16
    18f8:	92c40305 	sbcls	r0, r4, #335544320	; 0x14000000
    18fc:	01280000 			; <UNDEFINED> instruction: 0x01280000
    1900:	94080253 	strls	r0, [r8], #-595	; 0xfffffdad
    1904:	85702d00 	ldrbhi	r2, [r0, #-3328]!	; 0xfffff300
    1908:	13820000 	orrne	r0, r2, #0
    190c:	08000000 	stmdaeq	r0, {}	; <UNPREDICTABLE>
    1910:	0000012a 	andeq	r0, r0, sl, lsr #2
    1914:	00000e82 	andeq	r0, r0, r2, lsl #29
    1918:	0000dd09 	andeq	sp, r0, r9, lsl #26
    191c:	0e000700 	cdpeq	7, 0, cr0, cr0, cr0, {0}
    1920:	00000e72 	andeq	r0, r0, r2, ror lr
    1924:	0002662e 	andeq	r6, r2, lr, lsr #12
    1928:	c0630100 	rsbgt	r0, r3, r0, lsl #2
    192c:	c8000082 	stmdagt	r0, {r1, r7}
    1930:	01000000 	mrseq	r0, (UNDEF: 0)
    1934:	000fe79c 	muleq	pc, ip, r7	; <UNPREDICTABLE>
    1938:	05212a00 	streq	r2, [r1, #-2560]!	; 0xfffff600
    193c:	63010000 	movwvs	r0, #4096	; 0x1000
    1940:	0000011b 	andeq	r0, r0, fp, lsl r1
    1944:	00000276 	andeq	r0, r0, r6, ror r2
    1948:	0001f52a 	andeq	pc, r1, sl, lsr #10
    194c:	9b630100 	blls	18c1d54 <__bss_end__+0x18b82ec>
    1950:	94000005 	strls	r0, [r0], #-5
    1954:	2a000002 	bcs	1964 <_start-0x669c>
    1958:	000004b7 			; <UNDEFINED> instruction: 0x000004b7
    195c:	059b6301 	ldreq	r6, [fp, #769]	; 0x301
    1960:	02b20000 	adcseq	r0, r2, #0
    1964:	152a0000 	strne	r0, [sl, #-0]!
    1968:	01000005 	tsteq	r0, r5
    196c:	00002c63 	andeq	r2, r0, r3, ror #24
    1970:	0002d000 	andeq	sp, r2, r0
    1974:	00682b00 	rsbeq	r2, r8, r0, lsl #22
    1978:	0b3b6401 	bleq	eda984 <__bss_end__+0xed0f1c>
    197c:	02ee0000 	rsceq	r0, lr, #0
    1980:	fa2c0000 	blx	b01988 <__bss_end__+0xaf7f20>
    1984:	f7000001 			; <UNDEFINED> instruction: 0xf7000001
    1988:	0500000f 	streq	r0, [r0, #-15]
    198c:	0092bc03 	addseq	fp, r2, r3, lsl #24
    1990:	82d82900 	sbcshi	r2, r8, #0, 18
    1994:	11d70000 	bicsne	r0, r7, r0
    1998:	0f080000 	svceq	0x00080000
    199c:	01280000 			; <UNDEFINED> instruction: 0x01280000
    19a0:	00780250 	rsbseq	r0, r8, r0, asr r2
    19a4:	82f42900 	rscshi	r2, r4, #0, 18
    19a8:	13610000 	cmnne	r1, #0
    19ac:	0f1f0000 	svceq	0x001f0000
    19b0:	01280000 			; <UNDEFINED> instruction: 0x01280000
    19b4:	58030550 	stmdapl	r3, {r4, r6, r8, sl}
    19b8:	00000092 	muleq	r0, r2, r0
    19bc:	00830029 	addeq	r0, r3, r9, lsr #32
    19c0:	00136100 	andseq	r6, r3, r0, lsl #2
    19c4:	000f3c00 	andeq	r3, pc, r0, lsl #24
    19c8:	50012800 	andpl	r2, r1, r0, lsl #16
    19cc:	93740305 	cmnls	r4, #335544320	; 0x14000000
    19d0:	01280000 			; <UNDEFINED> instruction: 0x01280000
    19d4:	00780251 	rsbseq	r0, r8, r1, asr r2
    19d8:	83082900 	movwhi	r2, #35072	; 0x8900
    19dc:	0ffc0000 	svceq	0x00fc0000
    19e0:	0f500000 	svceq	0x00500000
    19e4:	01280000 			; <UNDEFINED> instruction: 0x01280000
    19e8:	00740250 	rsbseq	r0, r4, r0, asr r2
    19ec:	832c2900 			; <UNDEFINED> instruction: 0x832c2900
    19f0:	11800000 	orrne	r0, r0, r0
    19f4:	0f640000 	svceq	0x00640000
    19f8:	01280000 			; <UNDEFINED> instruction: 0x01280000
    19fc:	00740250 	rsbseq	r0, r4, r0, asr r2
    1a00:	83382d00 	teqhi	r8, #0, 26
    1a04:	13770000 	cmnne	r7, #0
    1a08:	4c290000 	stcmi	0, cr0, [r9], #-0
    1a0c:	61000083 	smlabbvs	r0, r3, r0, r0
    1a10:	9c000013 	stcls	0, cr0, [r0], {19}
    1a14:	2800000f 	stmdacs	r0, {r0, r1, r2, r3}
    1a18:	03055001 	movweq	r5, #20481	; 0x5001
    1a1c:	00009340 	andeq	r9, r0, r0, asr #6
    1a20:	05510128 	ldrbeq	r0, [r1, #-296]	; 0xfffffed8
    1a24:	0092f003 	addseq	pc, r2, r3
    1a28:	52012800 	andpl	r2, r1, #0, 16
    1a2c:	92bc0305 	adcsls	r0, ip, #335544320	; 0x14000000
    1a30:	01280000 			; <UNDEFINED> instruction: 0x01280000
    1a34:	66080253 			; <UNDEFINED> instruction: 0x66080253
    1a38:	83502d00 	cmphi	r0, #0, 26
    1a3c:	13820000 	orrne	r0, r2, #0
    1a40:	542d0000 	strtpl	r0, [sp], #-0
    1a44:	77000083 	strvc	r0, [r0, -r3, lsl #1]
    1a48:	29000013 	stmdbcs	r0, {r0, r1, r4}
    1a4c:	00008368 	andeq	r8, r0, r8, ror #6
    1a50:	00001361 	andeq	r1, r0, r1, ror #6
    1a54:	00000fdd 	ldrdeq	r0, [r0], -sp
    1a58:	05500128 	ldrbeq	r0, [r0, #-296]	; 0xfffffed8
    1a5c:	00938003 	addseq	r8, r3, r3
    1a60:	51012800 	tstpl	r1, r0, lsl #16
    1a64:	92f00305 	rscsls	r0, r0, #335544320	; 0x14000000
    1a68:	01280000 			; <UNDEFINED> instruction: 0x01280000
    1a6c:	bc030552 	cfstr32lt	mvfx0, [r3], {82}	; 0x52
    1a70:	28000092 	stmdacs	r0, {r1, r4, r7}
    1a74:	08025301 	stmdaeq	r2, {r0, r8, r9, ip, lr}
    1a78:	6c2d0068 	stcvs	0, cr0, [sp], #-416	; 0xfffffe60
    1a7c:	82000083 	andhi	r0, r0, #131	; 0x83
    1a80:	00000013 	andeq	r0, r0, r3, lsl r0
    1a84:	00012a08 	andeq	r2, r1, r8, lsl #20
    1a88:	000ff700 	andeq	pc, pc, r0, lsl #14
    1a8c:	00dd0900 	sbcseq	r0, sp, r0, lsl #18
    1a90:	00060000 	andeq	r0, r6, r0
    1a94:	000fe70e 	andeq	lr, pc, lr, lsl #14
    1a98:	06382f00 	ldrteq	r2, [r8], -r0, lsl #30
    1a9c:	4a010000 	bmi	41aa4 <__bss_end__+0x3803c>
    1aa0:	00000025 	andeq	r0, r0, r5, lsr #32
    1aa4:	000081f0 	strdeq	r8, [r0], -r0
    1aa8:	0000005c 	andeq	r0, r0, ip, asr r0
    1aac:	10979c01 	addsne	r9, r7, r1, lsl #24
    1ab0:	68300000 	ldmdavs	r0!, {}	; <UNPREDICTABLE>
    1ab4:	3b4a0100 	blcc	1281ebc <__bss_end__+0x1278454>
    1ab8:	2200000b 	andcs	r0, r0, #11
    1abc:	29000003 	stmdbcs	r0, {r0, r1}
    1ac0:	000081fc 	strdeq	r8, [r0], -ip
    1ac4:	00001110 	andeq	r1, r0, r0, lsl r1
    1ac8:	00001036 	andeq	r1, r0, r6, lsr r0
    1acc:	02500128 	subseq	r0, r0, #40, 2
    1ad0:	29000074 	stmdbcs	r0, {r2, r4, r5, r6}
    1ad4:	0000820c 	andeq	r8, r0, ip, lsl #4
    1ad8:	00001296 	muleq	r0, r6, r2
    1adc:	0000104a 	andeq	r1, r0, sl, asr #32
    1ae0:	02500128 	subseq	r0, r0, #40, 2
    1ae4:	29000074 	stmdbcs	r0, {r2, r4, r5, r6}
    1ae8:	00008214 	andeq	r8, r0, r4, lsl r2
    1aec:	00001097 	muleq	r0, r7, r0
    1af0:	0000105e 	andeq	r1, r0, lr, asr r0
    1af4:	02510128 	subseq	r0, r1, #40, 2
    1af8:	29008008 	stmdbcs	r0, {r3, pc}
    1afc:	00008224 	andeq	r8, r0, r4, lsr #4
    1b00:	00001227 	andeq	r1, r0, r7, lsr #4
    1b04:	00001072 	andeq	r1, r0, r2, ror r0
    1b08:	02500128 	subseq	r0, r0, #40, 2
    1b0c:	29000074 	stmdbcs	r0, {r2, r4, r5, r6}
    1b10:	00008230 	andeq	r8, r0, r0, lsr r2
    1b14:	00001200 	andeq	r1, r0, r0, lsl #4
    1b18:	00001086 	andeq	r1, r0, r6, lsl #1
    1b1c:	02500128 	subseq	r0, r0, #40, 2
    1b20:	27000074 	smlsdxcs	r0, r4, r0, r0
    1b24:	0000823c 	andeq	r8, r0, ip, lsr r2
    1b28:	00001097 	muleq	r0, r7, r0
    1b2c:	02500128 	subseq	r0, r0, #40, 2
    1b30:	00000075 	andeq	r0, r0, r5, ror r0
    1b34:	00066f2f 	andeq	r6, r6, pc, lsr #30
    1b38:	25340100 	ldrcs	r0, [r4, #-256]!	; 0xffffff00
    1b3c:	1c000000 	stcne	0, cr0, [r0], {-0}
    1b40:	58000081 	stmdapl	r0, {r0, r7}
    1b44:	01000000 	mrseq	r0, (UNDEF: 0)
    1b48:	0011109c 	mulseq	r1, ip, r0
    1b4c:	00703000 	rsbseq	r3, r0, r0
    1b50:	011d3401 	tsteq	sp, r1, lsl #8
    1b54:	03400000 	movteq	r0, #0
    1b58:	4a2a0000 	bmi	a81b60 <__bss_end__+0xa780f8>
    1b5c:	01000006 	tsteq	r0, r6
    1b60:	00002c34 	andeq	r2, r0, r4, lsr ip
    1b64:	00037700 	andeq	r7, r3, r0, lsl #14
    1b68:	00692b00 	rsbeq	r2, r9, r0, lsl #22
    1b6c:	00253501 	eoreq	r3, r5, r1, lsl #10
    1b70:	03a00000 	moveq	r0, #0
    1b74:	4c290000 	stcmi	0, cr0, [r9], #-0
    1b78:	61000081 	smlabbvs	r0, r1, r0, r0
    1b7c:	f0000013 			; <UNDEFINED> instruction: 0xf0000013
    1b80:	28000010 	stmdacs	r0, {r4}
    1b84:	03055001 	movweq	r5, #20481	; 0x5001
    1b88:	00009258 	andeq	r9, r0, r8, asr r2
    1b8c:	815c2700 	cmphi	ip, r0, lsl #14
    1b90:	13610000 	cmnne	r1, #0
    1b94:	01280000 			; <UNDEFINED> instruction: 0x01280000
    1b98:	cc030550 	cfstr32gt	mvfx0, [r3], {80}	; 0x50
    1b9c:	28000092 	stmdacs	r0, {r1, r4, r7}
    1ba0:	75025101 	strvc	r5, [r2, #-257]	; 0xfffffeff
    1ba4:	52012800 	andpl	r2, r1, #0, 16
    1ba8:	00007402 	andeq	r7, r0, r2, lsl #8
    1bac:	05ea2f00 	strbeq	r2, [sl, #3840]!	; 0xf00
    1bb0:	2a010000 	bcs	41bb8 <__bss_end__+0x38150>
    1bb4:	00000025 	andeq	r0, r0, r5, lsr #32
    1bb8:	00008198 	muleq	r0, r8, r1
    1bbc:	00000058 	andeq	r0, r0, r8, asr r0
    1bc0:	11809c01 	orrne	r9, r0, r1, lsl #24
    1bc4:	68300000 	ldmdavs	r0!, {}	; <UNPREDICTABLE>
    1bc8:	3b2a0100 	blcc	a81fd0 <__bss_end__+0xa78568>
    1bcc:	ca00000b 	bgt	1c00 <_start-0x6400>
    1bd0:	29000003 	stmdbcs	r0, {r0, r1}
    1bd4:	000081b8 			; <UNDEFINED> instruction: 0x000081b8
    1bd8:	00001361 	andeq	r1, r0, r1, ror #6
    1bdc:	0000114d 	andeq	r1, r0, sp, asr #2
    1be0:	05500128 	ldrbeq	r0, [r0, #-296]	; 0xfffffed8
    1be4:	00925803 	addseq	r5, r2, r3, lsl #16
    1be8:	c8290000 	stmdagt	r9!, {}	; <UNPREDICTABLE>
    1bec:	61000081 	smlabbvs	r0, r1, r0, r0
    1bf0:	6f000013 	svcvs	0x00000013
    1bf4:	28000011 	stmdacs	r0, {r0, r4}
    1bf8:	03055001 	movweq	r5, #20481	; 0x5001
    1bfc:	000092cc 	andeq	r9, r0, ip, asr #5
    1c00:	02510128 	subseq	r0, r1, #40, 2
    1c04:	01280074 			; <UNDEFINED> instruction: 0x01280074
    1c08:	00300152 	eorseq	r0, r0, r2, asr r1
    1c0c:	0081d827 	addeq	sp, r1, r7, lsr #16
    1c10:	00118000 	andseq	r8, r1, r0
    1c14:	50012800 	andpl	r2, r1, r0, lsl #16
    1c18:	00007402 	andeq	r7, r0, r2, lsl #8
    1c1c:	05be2f00 	ldreq	r2, [lr, #3840]!	; 0xf00
    1c20:	21010000 	mrscs	r0, (UNDEF: 1)
    1c24:	00000068 	andeq	r0, r0, r8, rrx
    1c28:	00008174 	andeq	r8, r0, r4, ror r1
    1c2c:	00000024 	andeq	r0, r0, r4, lsr #32
    1c30:	11d79c01 	bicsne	r9, r7, r1, lsl #24
    1c34:	68300000 	ldmdavs	r0!, {}	; <UNPREDICTABLE>
    1c38:	3b210100 	blcc	842040 <__bss_end__+0x8385d8>
    1c3c:	fe00000b 	cdp2	0, 0, cr0, cr0, cr11, {0}
    1c40:	31000003 	tstcc	r0, r3
    1c44:	00646c6f 	rsbeq	r6, r4, pc, ror #24
    1c48:	002c2201 	eoreq	r2, ip, r1, lsl #4
    1c4c:	55010000 	strpl	r0, [r1, #-0]
    1c50:	0005c223 	andeq	ip, r5, r3, lsr #4
    1c54:	68240100 	stmdavs	r4!, {r8}
    1c58:	01000000 	mrseq	r0, (UNDEF: 0)
    1c5c:	81902750 	orrshi	r2, r0, r0, asr r7
    1c60:	138d0000 	orrne	r0, sp, #0
    1c64:	01280000 			; <UNDEFINED> instruction: 0x01280000
    1c68:	00740250 	rsbseq	r0, r4, r0, asr r2
    1c6c:	02510128 	subseq	r0, r1, #40, 2
    1c70:	00003808 	andeq	r3, r0, r8, lsl #16
    1c74:	0005952f 	andeq	r9, r5, pc, lsr #10
    1c78:	3b1c0100 	blcc	702080 <__bss_end__+0x6f8618>
    1c7c:	1400000b 	strne	r0, [r0], #-11
    1c80:	08000081 	stmdaeq	r0, {r0, r7}
    1c84:	01000000 	mrseq	r0, (UNDEF: 0)
    1c88:	0012009c 	mulseq	r2, ip, r0
    1c8c:	05212a00 	streq	r2, [r1, #-2560]!	; 0xfffff600
    1c90:	1c010000 	stcne	0, cr0, [r1], {-0}
    1c94:	0000011b 	andeq	r0, r0, fp, lsl r1
    1c98:	0000041c 	andeq	r0, r0, ip, lsl r4
    1c9c:	06442f00 	strbeq	r2, [r4], -r0, lsl #30
    1ca0:	19010000 	stmdbne	r1, {}	; <UNPREDICTABLE>
    1ca4:	0000002c 	andeq	r0, r0, ip, lsr #32
    1ca8:	00008108 	andeq	r8, r0, r8, lsl #2
    1cac:	0000000c 	andeq	r0, r0, ip
    1cb0:	12279c01 	eorne	r9, r7, #256	; 0x100
    1cb4:	68300000 	ldmdavs	r0!, {}	; <UNPREDICTABLE>
    1cb8:	3b190100 	blcc	6420c0 <__bss_end__+0x638658>
    1cbc:	3d00000b 	stccc	0, cr0, [r0, #-44]	; 0xffffffd4
    1cc0:	00000004 	andeq	r0, r0, r4
    1cc4:	0005f42f 	andeq	pc, r5, pc, lsr #8
    1cc8:	1b170100 	blne	5c20d0 <__bss_end__+0x5b8668>
    1ccc:	f0000001 			; <UNDEFINED> instruction: 0xf0000001
    1cd0:	18000080 	stmdane	r0, {r7}
    1cd4:	01000000 	mrseq	r0, (UNDEF: 0)
    1cd8:	00125e9c 	mulseq	r2, ip, lr
    1cdc:	00683000 	rsbeq	r3, r8, r0
    1ce0:	0b3b1701 	bleq	ec78ec <__bss_end__+0xebde84>
    1ce4:	045e0000 	ldrbeq	r0, [lr], #-0
    1ce8:	fc270000 	stc2	0, cr0, [r7], #-0
    1cec:	5e000080 	cdppl	0, 0, cr0, cr0, cr0, {4}
    1cf0:	28000012 	stmdacs	r0, {r1, r4}
    1cf4:	74025001 	strvc	r5, [r2], #-1
    1cf8:	2f000000 	svccs	0x00000000
    1cfc:	000005de 	ldrdeq	r0, [r0], -lr
    1d00:	011b1501 	tsteq	fp, r1, lsl #10
    1d04:	80e00000 	rschi	r0, r0, r0
    1d08:	00100000 	andseq	r0, r0, r0
    1d0c:	9c010000 	stcls	0, cr0, [r1], {-0}
    1d10:	00001296 	muleq	r0, r6, r2
    1d14:	01006830 	tsteq	r0, r0, lsr r8
    1d18:	000b3b15 	andeq	r3, fp, r5, lsl fp
    1d1c:	00047c00 	andeq	r7, r4, r0, lsl #24
    1d20:	80e82700 	rschi	r2, r8, r0, lsl #14
    1d24:	12960000 	addsne	r0, r6, #0
    1d28:	01280000 			; <UNDEFINED> instruction: 0x01280000
    1d2c:	01f30350 	mvnseq	r0, r0, asr r3
    1d30:	2f000050 	svccs	0x00000050
    1d34:	00000539 	andeq	r0, r0, r9, lsr r5
    1d38:	011b1301 	tsteq	fp, r1, lsl #6
    1d3c:	80d80000 	sbcshi	r0, r8, r0
    1d40:	00080000 	andeq	r0, r8, r0
    1d44:	9c010000 	stcls	0, cr0, [r1], {-0}
    1d48:	000012bd 			; <UNDEFINED> instruction: 0x000012bd
    1d4c:	01006830 	tsteq	r0, r0, lsr r8
    1d50:	000b3b13 	andeq	r3, fp, r3, lsl fp
    1d54:	00049d00 	andeq	r9, r4, r0, lsl #26
    1d58:	382e0000 	stmdacc	lr!, {}	; <UNPREDICTABLE>
    1d5c:	01000001 	tsteq	r0, r1
    1d60:	00824c09 	addeq	r4, r2, r9, lsl #24
    1d64:	00007400 	andeq	r7, r0, r0, lsl #8
    1d68:	619c0100 	orrsvs	r0, ip, r0, lsl #2
    1d6c:	2a000013 	bcs	1dc0 <_start-0x6240>
    1d70:	0000061c 	andeq	r0, r0, ip, lsl r6
    1d74:	011b0901 	tsteq	fp, r1, lsl #18
    1d78:	04bd0000 	ldrteq	r0, [sp], #0
    1d7c:	6e300000 	cdpvs	0, 3, cr0, cr0, cr0, {0}
    1d80:	2c090100 	stfcss	f0, [r9], {-0}
    1d84:	03000000 	movweq	r0, #0
    1d88:	2c000005 	stccs	0, cr0, [r0], {5}
    1d8c:	000001fa 	strdeq	r0, [r0], -sl
    1d90:	00000e82 	andeq	r0, r0, r2, lsl #29
    1d94:	92b40305 	adcsls	r0, r4, #335544320	; 0x14000000
    1d98:	78290000 	stmdavc	r9!, {}	; <UNPREDICTABLE>
    1d9c:	61000082 	smlabbvs	r0, r2, r0, r0
    1da0:	20000013 	andcs	r0, r0, r3, lsl r0
    1da4:	28000013 	stmdacs	r0, {r0, r1, r4}
    1da8:	03055001 	movweq	r5, #20481	; 0x5001
    1dac:	00009324 	andeq	r9, r0, r4, lsr #6
    1db0:	02510128 	subseq	r0, r1, #40, 2
    1db4:	01283808 			; <UNDEFINED> instruction: 0x01283808
    1db8:	80080252 	andhi	r0, r8, r2, asr r2
    1dbc:	82942d00 	addshi	r2, r4, #0, 26
    1dc0:	13770000 	cmnne	r7, #0
    1dc4:	a8290000 	stmdage	r9!, {}	; <UNPREDICTABLE>
    1dc8:	61000082 	smlabbvs	r0, r2, r0, r0
    1dcc:	57000013 	smladpl	r0, r3, r0, r0
    1dd0:	28000013 	stmdacs	r0, {r0, r1, r4}
    1dd4:	03055001 	movweq	r5, #20481	; 0x5001
    1dd8:	000092fc 	strdeq	r9, [r0], -ip
    1ddc:	05510128 	ldrbeq	r0, [r1, #-296]	; 0xfffffed8
    1de0:	0092f003 	addseq	pc, r2, r3
    1de4:	52012800 	andpl	r2, r1, #0, 16
    1de8:	92b40305 	adcsls	r0, r4, #335544320	; 0x14000000
    1dec:	01280000 			; <UNDEFINED> instruction: 0x01280000
    1df0:	003a0153 	eorseq	r0, sl, r3, asr r1
    1df4:	0082ac2d 	addeq	sl, r2, sp, lsr #24
    1df8:	00138200 	andseq	r8, r3, r0, lsl #4
    1dfc:	8d320000 	ldchi	0, cr0, [r2, #-0]
    1e00:	8d000006 	stchi	0, cr0, [r0, #-24]	; 0xffffffe8
    1e04:	07000006 	streq	r0, [r0, -r6]
    1e08:	05a33229 	streq	r3, [r3, #553]!	; 0x229
    1e0c:	05a30000 	streq	r0, [r3, #0]!
    1e10:	17090000 	strne	r0, [r9, -r0]
    1e14:	0001d532 	andeq	sp, r1, r2, lsr r5
    1e18:	0001d500 	andeq	sp, r1, r0, lsl #10
    1e1c:	321e0700 	andscc	r0, lr, #0, 14
    1e20:	00000285 	andeq	r0, r0, r5, lsl #5
    1e24:	00000285 	andeq	r0, r0, r5, lsl #5
    1e28:	26326507 	ldrtcs	r6, [r2], -r7, lsl #10
    1e2c:	26000005 	strcs	r0, [r0], -r5
    1e30:	0a000005 	beq	1e4c <_start-0x61b4>
    1e34:	098e0005 	stmibeq	lr, {r0, r2}
    1e38:	00040000 	andeq	r0, r4, r0
    1e3c:	00000498 	muleq	r0, r8, r4
    1e40:	03bf0104 			; <UNDEFINED> instruction: 0x03bf0104
    1e44:	a80c0000 	stmdage	ip, {}	; <UNPREDICTABLE>
    1e48:	b6000006 	strlt	r0, [r0], -r6
    1e4c:	78000006 	stmdavc	r0, {r1, r2}
    1e50:	58000086 	stmdapl	r0, {r1, r2, r7}
    1e54:	fe000000 	cdp2	0, 0, cr0, cr0, cr0, {0}
    1e58:	02000002 	andeq	r0, r0, #2
    1e5c:	00000694 	muleq	r0, r4, r6
    1e60:	00302802 	eorseq	r2, r0, r2, lsl #16
    1e64:	80030000 	andhi	r0, r3, r0
    1e68:	04000006 	streq	r0, [r0], #-6
    1e6c:	00470007 	subeq	r0, r7, r7
    1e70:	a3040000 	movwge	r0, #16384	; 0x4000
    1e74:	47000006 	strmi	r0, [r0, -r6]
    1e78:	00000000 	andeq	r0, r0, r0
    1e7c:	02040500 	andeq	r0, r4, #0, 10
    1e80:	00000682 	andeq	r0, r0, r2, lsl #13
    1e84:	00256302 	eoreq	r6, r5, r2, lsl #6
    1e88:	04060000 	streq	r0, [r6], #-0
    1e8c:	746e6905 	strbtvc	r6, [lr], #-2309	; 0xfffff6fb
    1e90:	07040700 	streq	r0, [r4, -r0, lsl #14]
    1e94:	00000066 	andeq	r0, r0, r6, rrx
    1e98:	e3060107 	movw	r0, #24839	; 0x6107
    1e9c:	07000002 	streq	r0, [r0, -r2]
    1ea0:	02fd0502 	rscseq	r0, sp, #8388608	; 0x800000
    1ea4:	04070000 	streq	r0, [r7], #-0
    1ea8:	0000af05 	andeq	sl, r0, r5, lsl #30
    1eac:	05080700 	streq	r0, [r8, #-1792]	; 0xfffff900
    1eb0:	000000aa 	andeq	r0, r0, sl, lsr #1
    1eb4:	e1080107 	tst	r8, r7, lsl #2
    1eb8:	07000002 	streq	r0, [r0, -r2]
    1ebc:	020e0702 	andeq	r0, lr, #524288	; 0x80000
    1ec0:	04070000 	streq	r0, [r7], #-0
    1ec4:	00006107 	andeq	r6, r0, r7, lsl #2
    1ec8:	07080700 	streq	r0, [r8, -r0, lsl #14]
    1ecc:	0000005c 	andeq	r0, r0, ip, asr r0
    1ed0:	0002cf02 	andeq	ip, r2, r2, lsl #30
    1ed4:	54070300 	strpl	r0, [r7], #-768	; 0xfffffd00
    1ed8:	02000000 	andeq	r0, r0, #0
    1edc:	000002be 			; <UNDEFINED> instruction: 0x000002be
    1ee0:	00702c04 	rsbseq	r2, r0, r4, lsl #24
    1ee4:	a8020000 	stmdage	r2, {}	; <UNPREDICTABLE>
    1ee8:	04000003 	streq	r0, [r0], #-3
    1eec:	00007072 	andeq	r7, r0, r2, ror r0
    1ef0:	025f0800 	subseq	r0, pc, #0, 16
    1ef4:	65050000 	strvs	r0, [r5, #-0]
    1ef8:	00005b01 	andeq	r5, r0, r1, lsl #22
    1efc:	04040900 	streq	r0, [r4], #-2304	; 0xfffff700
    1f00:	0000e6a6 	andeq	lr, r0, r6, lsr #13
    1f04:	02590a00 	subseq	r0, r9, #0, 20
    1f08:	a8040000 	stmdage	r4, {}	; <UNPREDICTABLE>
    1f0c:	000000bb 	strheq	r0, [r0], -fp
    1f10:	0001ce0a 	andeq	ip, r1, sl, lsl #28
    1f14:	e6a90400 	strt	r0, [r9], r0, lsl #8
    1f18:	00000000 	andeq	r0, r0, r0
    1f1c:	00007e0b 	andeq	r7, r0, fp, lsl #28
    1f20:	0000f600 	andeq	pc, r0, r0, lsl #12
    1f24:	00f60c00 	rscseq	r0, r6, r0, lsl #24
    1f28:	00030000 	andeq	r0, r3, r0
    1f2c:	92070407 	andls	r0, r7, #117440512	; 0x7000000
    1f30:	0d000002 	stceq	0, cr0, [r0, #-8]
    1f34:	1ea30408 	cdpne	4, 10, cr0, cr3, cr8, {0}
    1f38:	0e000001 	cdpeq	0, 0, cr0, cr0, cr1, {0}
    1f3c:	00000392 	muleq	r0, r2, r3
    1f40:	0054a504 	subseq	sl, r4, r4, lsl #10
    1f44:	0e000000 	cdpeq	0, 0, cr0, cr0, cr0, {0}
    1f48:	0000039a 	muleq	r0, sl, r3
    1f4c:	00c7aa04 	sbceq	sl, r7, r4, lsl #20
    1f50:	00040000 	andeq	r0, r4, r0
    1f54:	00032502 	andeq	r2, r3, r2, lsl #10
    1f58:	fdab0400 	stc2	4, cr0, [fp]
    1f5c:	02000000 	andeq	r0, r0, #0
    1f60:	0000018b 	andeq	r0, r0, fp, lsl #3
    1f64:	009aaf04 	addseq	sl, sl, r4, lsl #30
    1f68:	040f0000 	streq	r0, [pc], #-0	; 1f70 <_start-0x6090>
    1f6c:	0000013a 	andeq	r0, r0, sl, lsr r1
    1f70:	ea080107 	b	202394 <__bss_end__+0x1f892c>
    1f74:	10000002 	andne	r0, r0, r2
    1f78:	0000013a 	andeq	r0, r0, sl, lsr r1
    1f7c:	00043c02 	andeq	r3, r4, r2, lsl #24
    1f80:	8c160600 	ldchi	6, cr0, [r6], {-0}
    1f84:	03000000 	movweq	r0, #0
    1f88:	0000019c 	muleq	r0, ip, r1
    1f8c:	a42d0618 	strtge	r0, [sp], #-1560	; 0xfffff9e8
    1f90:	0e000001 	cdpeq	0, 0, cr0, cr0, cr1, {0}
    1f94:	00000346 	andeq	r0, r0, r6, asr #6
    1f98:	01a42f06 			; <UNDEFINED> instruction: 0x01a42f06
    1f9c:	11000000 	mrsne	r0, (UNDEF: 0)
    1fa0:	06006b5f 			; <UNDEFINED> instruction: 0x06006b5f
    1fa4:	00005430 	andeq	r5, r0, r0, lsr r4
    1fa8:	7d0e0400 	cfstrsvc	mvf0, [lr, #-0]
    1fac:	06000003 	streq	r0, [r0], -r3
    1fb0:	00005430 	andeq	r5, r0, r0, lsr r4
    1fb4:	850e0800 	strhi	r0, [lr, #-2048]	; 0xfffff800
    1fb8:	06000001 	streq	r0, [r0], -r1
    1fbc:	00005430 	andeq	r5, r0, r0, lsr r4
    1fc0:	8a0e0c00 	bhi	384fc8 <__bss_end__+0x37b560>
    1fc4:	06000004 	streq	r0, [r0], -r4
    1fc8:	00005430 	andeq	r5, r0, r0, lsr r4
    1fcc:	5f111000 	svcpl	0x00111000
    1fd0:	31060078 	tstcc	r6, r8, ror r0
    1fd4:	000001aa 	andeq	r0, r0, sl, lsr #3
    1fd8:	040f0014 	streq	r0, [pc], #-20	; 1fe0 <_start-0x6020>
    1fdc:	00000151 	andeq	r0, r0, r1, asr r1
    1fe0:	0001460b 	andeq	r4, r1, fp, lsl #12
    1fe4:	0001ba00 	andeq	fp, r1, r0, lsl #20
    1fe8:	00f60c00 	rscseq	r0, r6, r0, lsl #24
    1fec:	00000000 	andeq	r0, r0, r0
    1ff0:	0001c903 	andeq	ip, r1, r3, lsl #18
    1ff4:	35062400 	strcc	r2, [r6, #-1024]	; 0xfffffc00
    1ff8:	00000233 	andeq	r0, r0, r3, lsr r2
    1ffc:	0000a10e 	andeq	sl, r0, lr, lsl #2
    2000:	54370600 	ldrtpl	r0, [r7], #-1536	; 0xfffffa00
    2004:	00000000 	andeq	r0, r0, r0
    2008:	0003b00e 	andeq	fp, r3, lr
    200c:	54380600 	ldrtpl	r0, [r8], #-1536	; 0xfffffa00
    2010:	04000000 	streq	r0, [r0], #-0
    2014:	0000c40e 	andeq	ip, r0, lr, lsl #8
    2018:	54390600 	ldrtpl	r0, [r9], #-1536	; 0xfffffa00
    201c:	08000000 	stmdaeq	r0, {}	; <UNPREDICTABLE>
    2020:	0005030e 	andeq	r0, r5, lr, lsl #6
    2024:	543a0600 	ldrtpl	r0, [sl], #-1536	; 0xfffffa00
    2028:	0c000000 	stceq	0, cr0, [r0], {-0}
    202c:	0002a20e 	andeq	sl, r2, lr, lsl #4
    2030:	543b0600 	ldrtpl	r0, [fp], #-1536	; 0xfffffa00
    2034:	10000000 	andne	r0, r0, r0
    2038:	00027b0e 	andeq	r7, r2, lr, lsl #22
    203c:	543c0600 	ldrtpl	r0, [ip], #-1536	; 0xfffffa00
    2040:	14000000 	strne	r0, [r0], #-0
    2044:	00048f0e 	andeq	r8, r4, lr, lsl #30
    2048:	543d0600 	ldrtpl	r0, [sp], #-1536	; 0xfffffa00
    204c:	18000000 	stmdane	r0, {}	; <UNPREDICTABLE>
    2050:	0003070e 	andeq	r0, r3, lr, lsl #14
    2054:	543e0600 	ldrtpl	r0, [lr], #-1536	; 0xfffffa00
    2058:	1c000000 	stcne	0, cr0, [r0], {-0}
    205c:	0004ca0e 	andeq	ip, r4, lr, lsl #20
    2060:	543f0600 	ldrtpl	r0, [pc], #-1536	; 2068 <_start-0x5f98>
    2064:	20000000 	andcs	r0, r0, r0
    2068:	01041200 	mrseq	r1, R12_usr
    206c:	01080000 	mrseq	r0, (UNDEF: 8)
    2070:	02734806 	rsbseq	r4, r3, #393216	; 0x60000
    2074:	780e0000 	stmdavc	lr, {}	; <UNPREDICTABLE>
    2078:	06000001 	streq	r0, [r0], -r1
    207c:	00027349 	andeq	r7, r2, r9, asr #6
    2080:	000e0000 	andeq	r0, lr, r0
    2084:	06000000 	streq	r0, [r0], -r0
    2088:	0002734a 	andeq	r7, r2, sl, asr #6
    208c:	2e138000 	cdpcs	0, 1, cr8, cr3, cr0, {0}
    2090:	06000004 	streq	r0, [r0], -r4
    2094:	0001464c 	andeq	r4, r1, ip, asr #12
    2098:	13010000 	movwne	r0, #4096	; 0x1000
    209c:	00000129 	andeq	r0, r0, r9, lsr #2
    20a0:	01464f06 	cmpeq	r6, r6, lsl #30
    20a4:	01040000 	mrseq	r0, (UNDEF: 4)
    20a8:	00470b00 	subeq	r0, r7, r0, lsl #22
    20ac:	02830000 	addeq	r0, r3, #0
    20b0:	f60c0000 			; <UNDEFINED> instruction: 0xf60c0000
    20b4:	1f000000 	svcne	0x00000000
    20b8:	02ab1200 	adceq	r1, fp, #0, 4
    20bc:	01900000 	orrseq	r0, r0, r0
    20c0:	02c15b06 	sbceq	r5, r1, #6144	; 0x1800
    20c4:	460e0000 	strmi	r0, [lr], -r0
    20c8:	06000003 	streq	r0, [r0], -r3
    20cc:	0002c15c 	andeq	ip, r2, ip, asr r1
    20d0:	5e0e0000 	cdppl	0, 0, cr0, cr14, cr0, {0}
    20d4:	06000003 	streq	r0, [r0], -r3
    20d8:	0000545d 	andeq	r5, r0, sp, asr r4
    20dc:	800e0400 	andhi	r0, lr, r0, lsl #8
    20e0:	06000001 	streq	r0, [r0], -r1
    20e4:	0002c75f 	andeq	ip, r2, pc, asr r7
    20e8:	040e0800 	streq	r0, [lr], #-2048	; 0xfffff800
    20ec:	06000001 	streq	r0, [r0], -r1
    20f0:	00023360 	andeq	r3, r2, r0, ror #6
    20f4:	0f008800 	svceq	0x00008800
    20f8:	00028304 	andeq	r8, r2, r4, lsl #6
    20fc:	02d70b00 	sbcseq	r0, r7, #0, 22
    2100:	02d70000 	sbcseq	r0, r7, #0
    2104:	f60c0000 			; <UNDEFINED> instruction: 0xf60c0000
    2108:	1f000000 	svcne	0x00000000
    210c:	dd040f00 	stcle	15, cr0, [r4, #-0]
    2110:	14000002 	strne	r0, [r0], #-2
    2114:	00031103 	andeq	r1, r3, r3, lsl #2
    2118:	73060800 	movwvc	r0, #26624	; 0x6800
    211c:	00000303 	andeq	r0, r0, r3, lsl #6
    2120:	0000be0e 	andeq	fp, r0, lr, lsl #28
    2124:	03740600 	cmneq	r4, #0, 12
    2128:	00000003 	andeq	r0, r0, r3
    212c:	00001b0e 	andeq	r1, r0, lr, lsl #22
    2130:	54750600 	ldrbtpl	r0, [r5], #-1536	; 0xfffffa00
    2134:	04000000 	streq	r0, [r0], #-0
    2138:	7e040f00 	cdpvc	15, 0, cr0, cr4, cr0, {0}
    213c:	03000000 	movweq	r0, #0
    2140:	00000330 	andeq	r0, r0, r0, lsr r3
    2144:	33b30668 			; <UNDEFINED> instruction: 0x33b30668
    2148:	11000004 	tstne	r0, r4
    214c:	0600705f 			; <UNDEFINED> instruction: 0x0600705f
    2150:	000303b4 			; <UNDEFINED> instruction: 0x000303b4
    2154:	5f110000 	svcpl	0x00110000
    2158:	b5060072 	strlt	r0, [r6, #-114]	; 0xffffff8e
    215c:	00000054 	andeq	r0, r0, r4, asr r0
    2160:	775f1104 	ldrbvc	r1, [pc, -r4, lsl #2]
    2164:	54b60600 	ldrtpl	r0, [r6], #1536	; 0x600
    2168:	08000000 	stmdaeq	r0, {}	; <UNPREDICTABLE>
    216c:	0001220e 	andeq	r2, r1, lr, lsl #4
    2170:	69b70600 	ldmibvs	r7!, {r9, sl}
    2174:	0c000000 	stceq	0, cr0, [r0], {-0}
    2178:	0001f40e 	andeq	pc, r1, lr, lsl #8
    217c:	69b80600 	ldmibvs	r8!, {r9, sl}
    2180:	0e000000 	cdpeq	0, 0, cr0, cr0, cr0, {0}
    2184:	66625f11 	uqadd16vs	r5, r2, r1
    2188:	deb90600 	cdple	6, 11, cr0, cr9, cr0, {0}
    218c:	10000002 	andne	r0, r0, r2
    2190:	00007b0e 	andeq	r7, r0, lr, lsl #22
    2194:	54ba0600 	ldrtpl	r0, [sl], #1536	; 0x600
    2198:	18000000 	stmdane	r0, {}	; <UNPREDICTABLE>
    219c:	0001120e 	andeq	r1, r1, lr, lsl #4
    21a0:	47c10600 	strbmi	r0, [r1, r0, lsl #12]
    21a4:	1c000000 	stcne	0, cr0, [r0], {-0}
    21a8:	000a5e0e 	andeq	r5, sl, lr, lsl #28
    21ac:	8ec30600 	cdphi	6, 12, cr0, cr3, cr0, {0}
    21b0:	20000005 	andcs	r0, r0, r5
    21b4:	000a780e 	andeq	r7, sl, lr, lsl #16
    21b8:	b8c50600 	stmialt	r5, {r9, sl}^
    21bc:	24000005 	strcs	r0, [r0], #-5
    21c0:	0003a20e 	andeq	sl, r3, lr, lsl #4
    21c4:	dcc80600 	stclle	6, cr0, [r8], {0}
    21c8:	28000005 	stmdacs	r0, {r0, r2}
    21cc:	0004e40e 	andeq	lr, r4, lr, lsl #8
    21d0:	f6c90600 			; <UNDEFINED> instruction: 0xf6c90600
    21d4:	2c000005 	stccs	0, cr0, [r0], {5}
    21d8:	62755f11 	rsbsvs	r5, r5, #17, 30	; 0x44
    21dc:	decc0600 	cdple	6, 12, cr0, cr12, cr0, {0}
    21e0:	30000002 	andcc	r0, r0, r2
    21e4:	70755f11 	rsbsvc	r5, r5, r1, lsl pc
    21e8:	03cd0600 	biceq	r0, sp, #0, 12
    21ec:	38000003 	stmdacc	r0, {r0, r1}
    21f0:	72755f11 	rsbsvc	r5, r5, #17, 30	; 0x44
    21f4:	54ce0600 	strbpl	r0, [lr], #1536	; 0x600
    21f8:	3c000000 	stccc	0, cr0, [r0], {-0}
    21fc:	0000b80e 	andeq	fp, r0, lr, lsl #16
    2200:	fcd10600 	ldc2l	6, cr0, [r1], {0}
    2204:	40000005 	andmi	r0, r0, r5
    2208:	0004bc0e 	andeq	fp, r4, lr, lsl #24
    220c:	0cd20600 	ldcleq	6, cr0, [r2], {0}
    2210:	43000006 	movwmi	r0, #6
    2214:	626c5f11 	rsbvs	r5, ip, #17, 30	; 0x44
    2218:	ded50600 	cdple	6, 13, cr0, cr5, cr0, {0}
    221c:	44000002 	strmi	r0, [r0], #-2
    2220:	0001400e 	andeq	r4, r1, lr
    2224:	54d80600 	ldrbpl	r0, [r8], #1536	; 0x600
    2228:	4c000000 	stcmi	0, cr0, [r0], {-0}
    222c:	0001510e 	andeq	r5, r1, lr, lsl #2
    2230:	a5d90600 	ldrbge	r0, [r9, #1536]	; 0x600
    2234:	50000000 	andpl	r0, r0, r0
    2238:	0009ff0e 	andeq	pc, r9, lr, lsl #30
    223c:	51dc0600 	bicspl	r0, ip, r0, lsl #12
    2240:	54000004 	strpl	r0, [r0], #-4
    2244:	00026d0e 	andeq	r6, r2, lr, lsl #26
    2248:	29e00600 	stmibcs	r0!, {r9, sl}^
    224c:	58000001 	stmdapl	r0, {r0}
    2250:	0003380e 	andeq	r3, r3, lr, lsl #16
    2254:	1ee20600 	cdpne	6, 14, cr0, cr2, cr0, {0}
    2258:	5c000001 	stcpl	0, cr0, [r0], {1}
    225c:	0002730e 	andeq	r7, r2, lr, lsl #6
    2260:	54e30600 	strbtpl	r0, [r3], #1536	; 0x600
    2264:	64000000 	strvs	r0, [r0], #-0
    2268:	00541500 	subseq	r1, r4, r0, lsl #10
    226c:	04510000 	ldrbeq	r0, [r1], #-0
    2270:	51160000 	tstpl	r6, r0
    2274:	16000004 	strne	r0, [r0], -r4
    2278:	00000047 	andeq	r0, r0, r7, asr #32
    227c:	00013416 	andeq	r3, r1, r6, lsl r4
    2280:	00541600 	subseq	r1, r4, r0, lsl #12
    2284:	0f000000 	svceq	0x00000000
    2288:	00045c04 	andeq	r5, r4, r4, lsl #24
    228c:	04511000 	ldrbeq	r1, [r1], #-0
    2290:	85170000 	ldrhi	r0, [r7, #-0]
    2294:	28000003 	stmdacs	r0, {r0, r1}
    2298:	02380604 	eorseq	r0, r8, #4, 12	; 0x400000
    229c:	0000058e 	andeq	r0, r0, lr, lsl #11
    22a0:	0002f618 	andeq	pc, r2, r8, lsl r6	; <UNPREDICTABLE>
    22a4:	023a0600 	eorseq	r0, sl, #0, 12
    22a8:	00000054 	andeq	r0, r0, r4, asr r0
    22ac:	01311800 	teqeq	r1, r0, lsl #16
    22b0:	3f060000 	svccc	0x00060000
    22b4:	00066302 	andeq	r6, r6, r2, lsl #6
    22b8:	e4180400 	ldr	r0, [r8], #-1024	; 0xfffffc00
    22bc:	06000001 	streq	r0, [r0], -r1
    22c0:	0663023f 			; <UNDEFINED> instruction: 0x0663023f
    22c4:	18080000 	stmdane	r8, {}	; <UNPREDICTABLE>
    22c8:	00000194 	muleq	r0, r4, r1
    22cc:	63023f06 	movwvs	r3, #12038	; 0x2f06
    22d0:	0c000006 	stceq	0, cr0, [r0], {6}
    22d4:	00035918 	andeq	r5, r3, r8, lsl r9
    22d8:	02410600 	subeq	r0, r1, #0, 12
    22dc:	00000054 	andeq	r0, r0, r4, asr r0
    22e0:	00291810 	eoreq	r1, r9, r0, lsl r8
    22e4:	42060000 	andmi	r0, r6, #0
    22e8:	00084502 	andeq	r4, r8, r2, lsl #10
    22ec:	64181400 	ldrvs	r1, [r8], #-1024	; 0xfffffc00
    22f0:	06000004 	streq	r0, [r0], -r4
    22f4:	00540244 	subseq	r0, r4, r4, asr #4
    22f8:	18300000 	ldmdane	r0!, {}	; <UNPREDICTABLE>
    22fc:	00000363 	andeq	r0, r0, r3, ror #6
    2300:	b2024506 	andlt	r4, r2, #25165824	; 0x1800000
    2304:	34000005 	strcc	r0, [r0], #-5
    2308:	0002b318 	andeq	fp, r2, r8, lsl r3
    230c:	02470600 	subeq	r0, r7, #0, 12
    2310:	00000054 	andeq	r0, r0, r4, asr r0
    2314:	03731838 	cmneq	r3, #56, 16	; 0x380000
    2318:	49060000 	stmdbmi	r6, {}	; <UNPREDICTABLE>
    231c:	00086002 	andeq	r6, r8, r2
    2320:	51183c00 	tstpl	r8, r0, lsl #24
    2324:	06000002 	streq	r0, [r0], -r2
    2328:	01a4024c 			; <UNDEFINED> instruction: 0x01a4024c
    232c:	18400000 	stmdane	r0, {}^	; <UNPREDICTABLE>
    2330:	000001b3 			; <UNDEFINED> instruction: 0x000001b3
    2334:	54024d06 	strpl	r4, [r2], #-3334	; 0xfffff2fa
    2338:	44000000 	strmi	r0, [r0], #-0
    233c:	0004fe18 	andeq	pc, r4, r8, lsl lr	; <UNPREDICTABLE>
    2340:	024e0600 	subeq	r0, lr, #0, 12
    2344:	000001a4 	andeq	r0, r0, r4, lsr #3
    2348:	02c51848 	sbceq	r1, r5, #72, 16	; 0x480000
    234c:	4f060000 	svcmi	0x00060000
    2350:	00086602 	andeq	r6, r8, r2, lsl #12
    2354:	ec184c00 	ldc	12, cr4, [r8], {-0}
    2358:	06000001 	streq	r0, [r0], -r1
    235c:	00540252 	subseq	r0, r4, r2, asr r2
    2360:	18500000 	ldmdane	r0, {}^	; <UNPREDICTABLE>
    2364:	00000149 	andeq	r0, r0, r9, asr #2
    2368:	34025306 	strcc	r5, [r2], #-774	; 0xfffffcfa
    236c:	54000001 	strpl	r0, [r0], #-1
    2370:	0002ef18 	andeq	lr, r2, r8, lsl pc
    2374:	02760600 	rsbseq	r0, r6, #0, 12
    2378:	00000823 	andeq	r0, r0, r3, lsr #16
    237c:	02ab1958 	adceq	r1, fp, #88, 18	; 0x160000
    2380:	7a060000 	bvc	182388 <__bss_end__+0x178920>
    2384:	0002c102 	andeq	ip, r2, r2, lsl #2
    2388:	19014800 	stmdbne	r1, {fp, lr}
    238c:	0000022f 	andeq	r0, r0, pc, lsr #4
    2390:	83027b06 	movwhi	r7, #11014	; 0x2b06
    2394:	4c000002 	stcmi	0, cr0, [r0], {2}
    2398:	04b21901 	ldrteq	r1, [r2], #2305	; 0x901
    239c:	7f060000 	svcvc	0x00060000
    23a0:	00087702 	andeq	r7, r8, r2, lsl #14
    23a4:	1902dc00 	stmdbne	r2, {sl, fp, ip, lr, pc}
    23a8:	0000011a 	andeq	r0, r0, sl, lsl r1
    23ac:	28028406 	stmdacs	r2, {r1, r2, sl, pc}
    23b0:	e0000006 	and	r0, r0, r6
    23b4:	00ff1902 	rscseq	r1, pc, r2, lsl #18
    23b8:	85060000 	strhi	r0, [r6, #-0]
    23bc:	00088302 	andeq	r8, r8, r2, lsl #6
    23c0:	0002ec00 	andeq	lr, r2, r0, lsl #24
    23c4:	0433040f 	ldrteq	r0, [r3], #-1039	; 0xfffffbf1
    23c8:	54150000 	ldrpl	r0, [r5], #-0
    23cc:	b2000000 	andlt	r0, r0, #0
    23d0:	16000005 	strne	r0, [r0], -r5
    23d4:	00000451 	andeq	r0, r0, r1, asr r4
    23d8:	00004716 	andeq	r4, r0, r6, lsl r7
    23dc:	05b21600 	ldreq	r1, [r2, #1536]!	; 0x600
    23e0:	54160000 	ldrpl	r0, [r6], #-0
    23e4:	00000000 	andeq	r0, r0, r0
    23e8:	0141040f 	cmpeq	r1, pc, lsl #8
    23ec:	040f0000 	streq	r0, [pc], #-0	; 23f4 <_start-0x5c0c>
    23f0:	00000594 	muleq	r0, r4, r5
    23f4:	0000b015 	andeq	fp, r0, r5, lsl r0
    23f8:	0005dc00 	andeq	sp, r5, r0, lsl #24
    23fc:	04511600 	ldrbeq	r1, [r1], #-1536	; 0xfffffa00
    2400:	47160000 	ldrmi	r0, [r6, -r0]
    2404:	16000000 	strne	r0, [r0], -r0
    2408:	000000b0 	strheq	r0, [r0], -r0	; <UNPREDICTABLE>
    240c:	00005416 	andeq	r5, r0, r6, lsl r4
    2410:	040f0000 	streq	r0, [pc], #-0	; 2418 <_start-0x5be8>
    2414:	000005be 			; <UNDEFINED> instruction: 0x000005be
    2418:	00005415 	andeq	r5, r0, r5, lsl r4
    241c:	0005f600 	andeq	pc, r5, r0, lsl #12
    2420:	04511600 	ldrbeq	r1, [r1], #-1536	; 0xfffffa00
    2424:	47160000 	ldrmi	r0, [r6, -r0]
    2428:	00000000 	andeq	r0, r0, r0
    242c:	05e2040f 	strbeq	r0, [r2, #1039]!	; 0x40f
    2430:	7e0b0000 	cdpvc	0, 0, cr0, cr11, cr0, {0}
    2434:	0c000000 	stceq	0, cr0, [r0], {-0}
    2438:	0c000006 	stceq	0, cr0, [r0], {6}
    243c:	000000f6 	strdeq	r0, [r0], -r6
    2440:	7e0b0002 	cdpvc	0, 0, cr0, cr11, cr2, {0}
    2444:	1c000000 	stcne	0, cr0, [r0], {-0}
    2448:	0c000006 	stceq	0, cr0, [r0], {6}
    244c:	000000f6 	strdeq	r0, [r0], -r6
    2450:	1e080000 	cdpne	0, 0, cr0, cr8, cr0, {0}
    2454:	06000003 	streq	r0, [r0], -r3
    2458:	0309011d 	movweq	r0, #37149	; 0x911d
    245c:	991a0000 	ldmdbls	sl, {}	; <UNPREDICTABLE>
    2460:	0c000004 	stceq	0, cr0, [r0], {4}
    2464:	5d012106 	stfpls	f2, [r1, #-24]	; 0xffffffe8
    2468:	18000006 	stmdane	r0, {r1, r2}
    246c:	00000346 	andeq	r0, r0, r6, asr #6
    2470:	5d012306 	stcpl	3, cr2, [r1, #-24]	; 0xffffffe8
    2474:	00000006 	andeq	r0, r0, r6
    2478:	00020718 	andeq	r0, r2, r8, lsl r7
    247c:	01240600 			; <UNDEFINED> instruction: 0x01240600
    2480:	00000054 	andeq	r0, r0, r4, asr r0
    2484:	03181804 	tsteq	r8, #4, 16	; 0x40000
    2488:	25060000 	strcs	r0, [r6, #-0]
    248c:	00066301 	andeq	r6, r6, r1, lsl #6
    2490:	0f000800 	svceq	0x00000800
    2494:	00062804 	andeq	r2, r6, r4, lsl #16
    2498:	1c040f00 	stcne	15, cr0, [r4], {-0}
    249c:	1a000006 	bne	24bc <_start-0x5b44>
    24a0:	00000021 	andeq	r0, r0, r1, lsr #32
    24a4:	013d060e 	teqeq	sp, lr, lsl #12
    24a8:	0000069e 	muleq	r0, lr, r6
    24ac:	00038c18 	andeq	r8, r3, r8, lsl ip
    24b0:	013e0600 	teqeq	lr, r0, lsl #12
    24b4:	0000069e 	muleq	r0, lr, r6
    24b8:	03b91800 			; <UNDEFINED> instruction: 0x03b91800
    24bc:	3f060000 	svccc	0x00060000
    24c0:	00069e01 	andeq	r9, r6, r1, lsl #28
    24c4:	37180600 	ldrcc	r0, [r8, -r0, lsl #12]
    24c8:	06000004 	streq	r0, [r0], -r4
    24cc:	00850140 	addeq	r0, r5, r0, asr #2
    24d0:	000c0000 	andeq	r0, ip, r0
    24d4:	0000850b 	andeq	r8, r0, fp, lsl #10
    24d8:	0006ae00 	andeq	sl, r6, r0, lsl #28
    24dc:	00f60c00 	rscseq	r0, r6, r0, lsl #24
    24e0:	00020000 	andeq	r0, r2, r0
    24e4:	5706d01b 	smladpl	r6, fp, r0, sp
    24e8:	0007af02 	andeq	sl, r7, r2, lsl #30
    24ec:	047d1800 	ldrbteq	r1, [sp], #-2048	; 0xfffff800
    24f0:	59060000 	stmdbpl	r6, {}	; <UNPREDICTABLE>
    24f4:	00005b02 	andeq	r5, r0, r2, lsl #22
    24f8:	21180000 	tstcs	r8, r0
    24fc:	06000004 	streq	r0, [r0], -r4
    2500:	0134025a 	teqeq	r4, sl, asr r2
    2504:	18040000 	stmdane	r4, {}	; <UNPREDICTABLE>
    2508:	00000244 	andeq	r0, r0, r4, asr #4
    250c:	af025b06 	svcge	0x00025b06
    2510:	08000007 	stmdaeq	r0, {r0, r1, r2}
    2514:	0004d518 	andeq	sp, r4, r8, lsl r5
    2518:	025c0600 	subseq	r0, ip, #0, 12
    251c:	000001ba 			; <UNDEFINED> instruction: 0x000001ba
    2520:	01a41824 			; <UNDEFINED> instruction: 0x01a41824
    2524:	5d060000 	stcpl	0, cr0, [r6, #-0]
    2528:	00005402 	andeq	r5, r0, r2, lsl #8
    252c:	41184800 	tstmi	r8, r0, lsl #16
    2530:	06000003 	streq	r0, [r0], -r3
    2534:	0093025e 	addseq	r0, r3, lr, asr r2
    2538:	18500000 	ldmdane	r0, {}^	; <UNPREDICTABLE>
    253c:	000004eb 	andeq	r0, r0, fp, ror #9
    2540:	69025f06 	stmdbvs	r2, {r1, r2, r8, r9, sl, fp, ip, lr}
    2544:	58000006 	stmdapl	r0, {r1, r2}
    2548:	00034c18 	andeq	r4, r3, r8, lsl ip
    254c:	02600600 	rsbeq	r0, r0, #0, 12
    2550:	0000011e 	andeq	r0, r0, lr, lsl r1
    2554:	04f01868 	ldrbteq	r1, [r0], #2152	; 0x868
    2558:	61060000 	mrsvs	r0, (UNDEF: 6)
    255c:	00011e02 	andeq	r1, r1, r2, lsl #28
    2560:	93187000 	tstls	r8, #0
    2564:	06000000 	streq	r0, [r0], -r0
    2568:	011e0262 	tsteq	lr, r2, ror #4
    256c:	18780000 	ldmdane	r8!, {}^	; <UNPREDICTABLE>
    2570:	000004a8 	andeq	r0, r0, r8, lsr #9
    2574:	bf026306 	svclt	0x00026306
    2578:	80000007 	andhi	r0, r0, r7
    257c:	00023818 	andeq	r3, r2, r8, lsl r8
    2580:	02640600 	rsbeq	r0, r4, #0, 12
    2584:	000007cf 	andeq	r0, r0, pc, asr #15
    2588:	04441888 	strbeq	r1, [r4], #-2184	; 0xfffff778
    258c:	65060000 	strvs	r0, [r6, #-0]
    2590:	00005402 	andeq	r5, r0, r2, lsl #8
    2594:	6a18a000 	bvs	62a59c <__bss_end__+0x620b34>
    2598:	06000001 	streq	r0, [r0], -r1
    259c:	011e0266 	tsteq	lr, r6, ror #4
    25a0:	18a40000 	stmiane	r4!, {}	; <UNPREDICTABLE>
    25a4:	00000084 	andeq	r0, r0, r4, lsl #1
    25a8:	1e026706 	cdpne	7, 0, cr6, cr2, cr6, {0}
    25ac:	ac000001 	stcge	0, cr0, [r0], {1}
    25b0:	00015918 	andeq	r5, r1, r8, lsl r9
    25b4:	02680600 	rsbeq	r0, r8, #0, 12
    25b8:	0000011e 	andeq	r0, r0, lr, lsl r1
    25bc:	003c18b4 	ldrhteq	r1, [ip], -r4
    25c0:	69060000 	stmdbvs	r6, {}	; <UNPREDICTABLE>
    25c4:	00011e02 	andeq	r1, r1, r2, lsl #28
    25c8:	4b18bc00 	blmi	6315d0 <__bss_end__+0x627b68>
    25cc:	06000000 	streq	r0, [r0], -r0
    25d0:	011e026a 	tsteq	lr, sl, ror #4
    25d4:	18c40000 	stmiane	r4, {}^	; <UNPREDICTABLE>
    25d8:	000002f4 	strdeq	r0, [r0], -r4
    25dc:	54026b06 	strpl	r6, [r2], #-2822	; 0xfffff4fa
    25e0:	cc000000 	stcgt	0, cr0, [r0], {-0}
    25e4:	013a0b00 	teqeq	sl, r0, lsl #22
    25e8:	07bf0000 	ldreq	r0, [pc, r0]!
    25ec:	f60c0000 			; <UNDEFINED> instruction: 0xf60c0000
    25f0:	19000000 	stmdbne	r0, {}	; <UNPREDICTABLE>
    25f4:	013a0b00 	teqeq	sl, r0, lsl #22
    25f8:	07cf0000 	strbeq	r0, [pc, r0]
    25fc:	f60c0000 			; <UNDEFINED> instruction: 0xf60c0000
    2600:	07000000 	streq	r0, [r0, -r0]
    2604:	013a0b00 	teqeq	sl, r0, lsl #22
    2608:	07df0000 	ldrbeq	r0, [pc, r0]
    260c:	f60c0000 			; <UNDEFINED> instruction: 0xf60c0000
    2610:	17000000 	strne	r0, [r0, -r0]
    2614:	06f01b00 	ldrbteq	r1, [r0], r0, lsl #22
    2618:	08030270 	stmdaeq	r3, {r4, r5, r6, r9}
    261c:	9b180000 	blls	602624 <__bss_end__+0x5f8bbc>
    2620:	06000002 	streq	r0, [r0], -r2
    2624:	08030273 	stmdaeq	r3, {r0, r1, r4, r5, r6, r9}
    2628:	18000000 	stmdane	r0, {}	; <UNPREDICTABLE>
    262c:	0000049f 	muleq	r0, pc, r4	; <UNPREDICTABLE>
    2630:	13027406 	movwne	r7, #9222	; 0x2406
    2634:	78000008 	stmdavc	r0, {r3}
    2638:	03030b00 	movweq	r0, #15104	; 0x3b00
    263c:	08130000 	ldmdaeq	r3, {}	; <UNPREDICTABLE>
    2640:	f60c0000 			; <UNDEFINED> instruction: 0xf60c0000
    2644:	1d000000 	stcne	0, cr0, [r0, #-0]
    2648:	005b0b00 	subseq	r0, fp, r0, lsl #22
    264c:	08230000 	stmdaeq	r3!, {}	; <UNPREDICTABLE>
    2650:	f60c0000 			; <UNDEFINED> instruction: 0xf60c0000
    2654:	1d000000 	stcne	0, cr0, [r0, #-0]
    2658:	06f01c00 	ldrbteq	r1, [r0], r0, lsl #24
    265c:	08450255 	stmdaeq	r5, {r0, r2, r4, r6, r9}^
    2660:	851d0000 	ldrhi	r0, [sp, #-0]
    2664:	06000003 	streq	r0, [r0], -r3
    2668:	06ae026c 	strteq	r0, [lr], ip, ror #4
    266c:	c21d0000 	andsgt	r0, sp, #0
    2670:	06000004 	streq	r0, [r0], -r4
    2674:	07df0275 			; <UNDEFINED> instruction: 0x07df0275
    2678:	0b000000 	bleq	2680 <_start-0x5980>
    267c:	0000013a 	andeq	r0, r0, sl, lsr r1
    2680:	00000855 	andeq	r0, r0, r5, asr r8
    2684:	0000f60c 	andeq	pc, r0, ip, lsl #12
    2688:	1e001800 	cdpne	8, 0, cr1, cr0, cr0, {0}
    268c:	00000860 	andeq	r0, r0, r0, ror #16
    2690:	00045116 	andeq	r5, r4, r6, lsl r1
    2694:	040f0000 	streq	r0, [pc], #-0	; 269c <_start-0x5964>
    2698:	00000855 	andeq	r0, r0, r5, asr r8
    269c:	01a4040f 			; <UNDEFINED> instruction: 0x01a4040f
    26a0:	771e0000 	ldrvc	r0, [lr, -r0]
    26a4:	16000008 	strne	r0, [r0], -r8
    26a8:	00000054 	andeq	r0, r0, r4, asr r0
    26ac:	7d040f00 	stcvc	15, cr0, [r4, #-0]
    26b0:	0f000008 	svceq	0x00000008
    26b4:	00086c04 	andeq	r6, r8, r4, lsl #24
    26b8:	061c0b00 	ldreq	r0, [ip], -r0, lsl #22
    26bc:	08930000 	ldmeq	r3, {}	; <UNPREDICTABLE>
    26c0:	f60c0000 			; <UNDEFINED> instruction: 0xf60c0000
    26c4:	02000000 	andeq	r0, r0, #0
    26c8:	04581f00 	ldrbeq	r1, [r8], #-3840	; 0xfffff100
    26cc:	fd060000 	stc2	0, cr0, [r6, #-0]
    26d0:	00045102 	andeq	r5, r4, r2, lsl #2
    26d4:	04511f00 	ldrbeq	r1, [r1], #-3840	; 0xfffff100
    26d8:	fe060000 	cdp2	0, 0, cr0, cr6, cr0, {0}
    26dc:	00045702 	andeq	r5, r4, r2, lsl #14
    26e0:	00541500 	subseq	r1, r4, r0, lsl #10
    26e4:	08ba0000 	ldmeq	sl!, {}	; <UNPREDICTABLE>
    26e8:	54160000 	ldrpl	r0, [r6], #-0
    26ec:	00000000 	andeq	r0, r0, r0
    26f0:	0001bd20 	andeq	fp, r1, r0, lsr #26
    26f4:	c51d0800 	ldrgt	r0, [sp, #-2048]	; 0xfffff800
    26f8:	0f000008 	svceq	0x00000008
    26fc:	0008ab04 	andeq	sl, r8, r4, lsl #22
    2700:	00541500 	subseq	r1, r4, r0, lsl #10
    2704:	08da0000 	ldmeq	sl, {}^	; <UNPREDICTABLE>
    2708:	b2160000 	andslt	r0, r6, #0
    270c:	00000005 	andeq	r0, r0, r5
    2710:	00075620 	andeq	r5, r7, r0, lsr #12
    2714:	e5220800 	str	r0, [r2, #-2048]!	; 0xfffff800
    2718:	0f000008 	svceq	0x00000008
    271c:	0008cb04 	andeq	ip, r8, r4, lsl #22
    2720:	068d2100 	streq	r2, [sp], r0, lsl #2
    2724:	06010000 	streq	r0, [r1], -r0
    2728:	00000054 	andeq	r0, r0, r4, asr r0
    272c:	00008678 	andeq	r8, r0, r8, ror r6
    2730:	00000058 	andeq	r0, r0, r8, asr r0
    2734:	09759c01 	ldmdbeq	r5!, {r0, sl, fp, ip, pc}^
    2738:	66220000 	strtvs	r0, [r2], -r0
    273c:	0100746d 	tsteq	r0, sp, ror #8
    2740:	0005b206 	andeq	fp, r5, r6, lsl #4
    2744:	70910200 	addsvc	r0, r1, r0, lsl #4
    2748:	75622423 	strbvc	r2, [r2, #-1059]!	; 0xfffffbdd
    274c:	08010066 	stmdaeq	r1, {r1, r2, r5, r6}
    2750:	00000975 	andeq	r0, r0, r5, ror r9
    2754:	96680305 	strbtls	r0, [r8], -r5, lsl #6
    2758:	0d250000 	stceq	0, cr0, [r5, #-0]
    275c:	01000001 	tsteq	r0, r1
    2760:	00004909 	andeq	r4, r0, r9, lsl #18
    2764:	5c910200 	lfmpl	f0, 4, [r1], {0}
    2768:	007a7326 	rsbseq	r7, sl, r6, lsr #6
    276c:	00540c01 	subseq	r0, r4, r1, lsl #24
    2770:	053a0000 	ldreq	r0, [sl, #-0]!
    2774:	a0270000 	eorge	r0, r7, r0
    2778:	86000086 	strhi	r0, [r0], -r6, lsl #1
    277c:	68000009 	stmdavs	r0, {r0, r3}
    2780:	28000009 	stmdacs	r0, {r0, r3}
    2784:	74025001 	strvc	r5, [r2], #-1
    2788:	51012800 	tstpl	r1, r0, lsl #16
    278c:	04000a03 	streq	r0, [r0], #-2563	; 0xfffff5fd
    2790:	03520128 	cmpeq	r2, #40, 2
    2794:	28064891 	stmdacs	r6, {r0, r4, r7, fp, lr}
    2798:	91025301 	tstls	r2, r1, lsl #6
    279c:	b429004c 	strtlt	r0, [r9], #-76	; 0xffffffb4
    27a0:	28000086 	stmdacs	r0, {r1, r2, r7}
    27a4:	74025001 	strvc	r5, [r2], #-1
    27a8:	0b000000 	bleq	27b0 <_start-0x5850>
    27ac:	0000013a 	andeq	r0, r0, sl, lsr r1
    27b0:	00000986 	andeq	r0, r0, r6, lsl #19
    27b4:	0000f62a 	andeq	pc, r0, sl, lsr #12
    27b8:	0003ff00 	andeq	pc, r3, r0, lsl #30
    27bc:	00068a2b 	andeq	r8, r6, fp, lsr #20
    27c0:	00068a00 	andeq	r8, r6, r0, lsl #20
    27c4:	00020900 	andeq	r0, r2, r0, lsl #18
    27c8:	00000e70 	andeq	r0, r0, r0, ror lr
    27cc:	06c40004 	strbeq	r0, [r4], r4
    27d0:	01040000 	mrseq	r0, (UNDEF: 4)
    27d4:	000003bf 			; <UNDEFINED> instruction: 0x000003bf
    27d8:	0006d20c 	andeq	sp, r6, ip, lsl #4
    27dc:	0006b600 	andeq	fp, r6, r0, lsl #12
    27e0:	0086d000 	addeq	sp, r6, r0
    27e4:	00053000 	andeq	r3, r5, r0
    27e8:	00040200 	andeq	r0, r4, r0, lsl #4
    27ec:	05040200 	streq	r0, [r4, #-512]	; 0xfffffe00
    27f0:	00746e69 	rsbseq	r6, r4, r9, ror #28
    27f4:	66070403 	strvs	r0, [r7], -r3, lsl #8
    27f8:	03000000 	movweq	r0, #0
    27fc:	02e30601 	rsceq	r0, r3, #1048576	; 0x100000
    2800:	02030000 	andeq	r0, r3, #0
    2804:	0002fd05 	andeq	pc, r2, r5, lsl #26
    2808:	05040300 	streq	r0, [r4, #-768]	; 0xfffffd00
    280c:	000000af 	andeq	r0, r0, pc, lsr #1
    2810:	aa050803 	bge	144824 <__bss_end__+0x13adbc>
    2814:	03000000 	movweq	r0, #0
    2818:	02e10801 	rsceq	r0, r1, #65536	; 0x10000
    281c:	02030000 	andeq	r0, r3, #0
    2820:	00020e07 	andeq	r0, r2, r7, lsl #28
    2824:	07040300 	streq	r0, [r4, -r0, lsl #6]
    2828:	00000061 	andeq	r0, r0, r1, rrx
    282c:	5c070803 	stcpl	8, cr0, [r7], {3}
    2830:	04000000 	streq	r0, [r0], #-0
    2834:	000002cf 	andeq	r0, r0, pc, asr #5
    2838:	00250702 	eoreq	r0, r5, r2, lsl #14
    283c:	be040000 	cdplt	0, 0, cr0, cr4, cr0, {0}
    2840:	03000002 	movweq	r0, #2
    2844:	0000412c 	andeq	r4, r0, ip, lsr #2
    2848:	03a80400 			; <UNDEFINED> instruction: 0x03a80400
    284c:	72030000 	andvc	r0, r3, #0
    2850:	00000041 	andeq	r0, r0, r1, asr #32
    2854:	00025f05 	andeq	r5, r2, r5, lsl #30
    2858:	01650400 	cmneq	r5, r0, lsl #8
    285c:	0000002c 	andeq	r0, r0, ip, lsr #32
    2860:	a6030406 	strge	r0, [r3], -r6, lsl #8
    2864:	000000b7 	strheq	r0, [r0], -r7
    2868:	00025907 	andeq	r5, r2, r7, lsl #18
    286c:	8ca80300 	stchi	3, cr0, [r8]
    2870:	07000000 	streq	r0, [r0, -r0]
    2874:	000001ce 	andeq	r0, r0, lr, asr #3
    2878:	00b7a903 	adcseq	sl, r7, r3, lsl #18
    287c:	08000000 	stmdaeq	r0, {}	; <UNPREDICTABLE>
    2880:	0000004f 	andeq	r0, r0, pc, asr #32
    2884:	000000c7 	andeq	r0, r0, r7, asr #1
    2888:	0000c709 	andeq	ip, r0, r9, lsl #14
    288c:	03000300 	movweq	r0, #768	; 0x300
    2890:	02920704 	addseq	r0, r2, #4, 14	; 0x100000
    2894:	080a0000 	stmdaeq	sl, {}	; <UNPREDICTABLE>
    2898:	00efa303 	rsceq	sl, pc, r3, lsl #6
    289c:	920b0000 	andls	r0, fp, #0
    28a0:	03000003 	movweq	r0, #3
    28a4:	000025a5 	andeq	r2, r0, r5, lsr #11
    28a8:	9a0b0000 	bls	2c28b0 <__bss_end__+0x2b8e48>
    28ac:	03000003 	movweq	r0, #3
    28b0:	000098aa 	andeq	r9, r0, sl, lsr #17
    28b4:	04000400 	streq	r0, [r0], #-1024	; 0xfffffc00
    28b8:	00000325 	andeq	r0, r0, r5, lsr #6
    28bc:	00ceab03 	sbceq	sl, lr, r3, lsl #22
    28c0:	8b040000 	blhi	1028c8 <__bss_end__+0xf8e60>
    28c4:	03000001 	movweq	r0, #1
    28c8:	00006baf 	andeq	r6, r0, pc, lsr #23
    28cc:	0d040c00 	stceq	12, cr0, [r4, #-0]
    28d0:	00010d04 	andeq	r0, r1, r4, lsl #26
    28d4:	08010300 	stmdaeq	r1, {r8, r9}
    28d8:	000002ea 	andeq	r0, r0, sl, ror #5
    28dc:	00010d0e 	andeq	r0, r1, lr, lsl #26
    28e0:	043c0400 	ldrteq	r0, [ip], #-1024	; 0xfffffc00
    28e4:	16050000 	strne	r0, [r5], -r0
    28e8:	0000005d 	andeq	r0, r0, sp, asr r0
    28ec:	00019c0f 	andeq	r9, r1, pc, lsl #24
    28f0:	2d051800 	stccs	8, cr1, [r5, #-0]
    28f4:	00000177 	andeq	r0, r0, r7, ror r1
    28f8:	0003460b 	andeq	r4, r3, fp, lsl #12
    28fc:	772f0500 	strvc	r0, [pc, -r0, lsl #10]!
    2900:	00000001 	andeq	r0, r0, r1
    2904:	006b5f10 	rsbeq	r5, fp, r0, lsl pc
    2908:	00253005 	eoreq	r3, r5, r5
    290c:	0b040000 	bleq	102914 <__bss_end__+0xf8eac>
    2910:	0000037d 	andeq	r0, r0, sp, ror r3
    2914:	00253005 	eoreq	r3, r5, r5
    2918:	0b080000 	bleq	202920 <__bss_end__+0x1f8eb8>
    291c:	00000185 	andeq	r0, r0, r5, lsl #3
    2920:	00253005 	eoreq	r3, r5, r5
    2924:	0b0c0000 	bleq	30292c <__bss_end__+0x2f8ec4>
    2928:	0000048a 	andeq	r0, r0, sl, lsl #9
    292c:	00253005 	eoreq	r3, r5, r5
    2930:	10100000 	andsne	r0, r0, r0
    2934:	0500785f 	streq	r7, [r0, #-2143]	; 0xfffff7a1
    2938:	00017d31 	andeq	r7, r1, r1, lsr sp
    293c:	0d001400 	cfstrseq	mvf1, [r0, #-0]
    2940:	00012404 	andeq	r2, r1, r4, lsl #8
    2944:	01190800 	tsteq	r9, r0, lsl #16
    2948:	018d0000 	orreq	r0, sp, r0
    294c:	c7090000 	strgt	r0, [r9, -r0]
    2950:	00000000 	andeq	r0, r0, r0
    2954:	01c90f00 	biceq	r0, r9, r0, lsl #30
    2958:	05240000 	streq	r0, [r4, #-0]!
    295c:	00020635 	andeq	r0, r2, r5, lsr r6
    2960:	00a10b00 	adceq	r0, r1, r0, lsl #22
    2964:	37050000 	strcc	r0, [r5, -r0]
    2968:	00000025 	andeq	r0, r0, r5, lsr #32
    296c:	03b00b00 	movseq	r0, #0, 22
    2970:	38050000 	stmdacc	r5, {}	; <UNPREDICTABLE>
    2974:	00000025 	andeq	r0, r0, r5, lsr #32
    2978:	00c40b04 	sbceq	r0, r4, r4, lsl #22
    297c:	39050000 	stmdbcc	r5, {}	; <UNPREDICTABLE>
    2980:	00000025 	andeq	r0, r0, r5, lsr #32
    2984:	05030b08 	streq	r0, [r3, #-2824]	; 0xfffff4f8
    2988:	3a050000 	bcc	142990 <__bss_end__+0x138f28>
    298c:	00000025 	andeq	r0, r0, r5, lsr #32
    2990:	02a20b0c 	adceq	r0, r2, #12, 22	; 0x3000
    2994:	3b050000 	blcc	14299c <__bss_end__+0x138f34>
    2998:	00000025 	andeq	r0, r0, r5, lsr #32
    299c:	027b0b10 	rsbseq	r0, fp, #16, 22	; 0x4000
    29a0:	3c050000 	stccc	0, cr0, [r5], {-0}
    29a4:	00000025 	andeq	r0, r0, r5, lsr #32
    29a8:	048f0b14 	streq	r0, [pc], #2836	; 29b0 <_start-0x5650>
    29ac:	3d050000 	stccc	0, cr0, [r5, #-0]
    29b0:	00000025 	andeq	r0, r0, r5, lsr #32
    29b4:	03070b18 	movweq	r0, #31512	; 0x7b18
    29b8:	3e050000 	cdpcc	0, 0, cr0, cr5, cr0, {0}
    29bc:	00000025 	andeq	r0, r0, r5, lsr #32
    29c0:	04ca0b1c 	strbeq	r0, [sl], #2844	; 0xb1c
    29c4:	3f050000 	svccc	0x00050000
    29c8:	00000025 	andeq	r0, r0, r5, lsr #32
    29cc:	04110020 	ldreq	r0, [r1], #-32	; 0xffffffe0
    29d0:	08000001 	stmdaeq	r0, {r0}
    29d4:	46480501 	strbmi	r0, [r8], -r1, lsl #10
    29d8:	0b000002 	bleq	29e8 <_start-0x5618>
    29dc:	00000178 	andeq	r0, r0, r8, ror r1
    29e0:	02464905 	subeq	r4, r6, #81920	; 0x14000
    29e4:	0b000000 	bleq	29ec <_start-0x5614>
    29e8:	00000000 	andeq	r0, r0, r0
    29ec:	02464a05 	subeq	r4, r6, #20480	; 0x5000
    29f0:	12800000 	addne	r0, r0, #0
    29f4:	0000042e 	andeq	r0, r0, lr, lsr #8
    29f8:	01194c05 	tsteq	r9, r5, lsl #24
    29fc:	01000000 	mrseq	r0, (UNDEF: 0)
    2a00:	00012912 	andeq	r2, r1, r2, lsl r9
    2a04:	194f0500 	stmdbne	pc, {r8, sl}^	; <UNPREDICTABLE>
    2a08:	04000001 	streq	r0, [r0], #-1
    2a0c:	05080001 	streq	r0, [r8, #-1]
    2a10:	56000001 	strpl	r0, [r0], -r1
    2a14:	09000002 	stmdbeq	r0, {r1}
    2a18:	000000c7 	andeq	r0, r0, r7, asr #1
    2a1c:	ab11001f 	blge	442aa0 <__bss_end__+0x439038>
    2a20:	90000002 	andls	r0, r0, r2
    2a24:	945b0501 	ldrbls	r0, [fp], #-1281	; 0xfffffaff
    2a28:	0b000002 	bleq	2a38 <_start-0x55c8>
    2a2c:	00000346 	andeq	r0, r0, r6, asr #6
    2a30:	02945c05 	addseq	r5, r4, #1280	; 0x500
    2a34:	0b000000 	bleq	2a3c <_start-0x55c4>
    2a38:	0000035e 	andeq	r0, r0, lr, asr r3
    2a3c:	00255d05 	eoreq	r5, r5, r5, lsl #26
    2a40:	0b040000 	bleq	102a48 <__bss_end__+0xf8fe0>
    2a44:	00000180 	andeq	r0, r0, r0, lsl #3
    2a48:	029a5f05 	addseq	r5, sl, #5, 30
    2a4c:	0b080000 	bleq	202a54 <__bss_end__+0x1f8fec>
    2a50:	00000104 	andeq	r0, r0, r4, lsl #2
    2a54:	02066005 	andeq	r6, r6, #5
    2a58:	00880000 	addeq	r0, r8, r0
    2a5c:	0256040d 	subseq	r0, r6, #218103808	; 0xd000000
    2a60:	aa080000 	bge	202a68 <__bss_end__+0x1f9000>
    2a64:	aa000002 	bge	2a74 <_start-0x558c>
    2a68:	09000002 	stmdbeq	r0, {r1}
    2a6c:	000000c7 	andeq	r0, r0, r7, asr #1
    2a70:	040d001f 	streq	r0, [sp], #-31	; 0xffffffe1
    2a74:	000002b0 			; <UNDEFINED> instruction: 0x000002b0
    2a78:	03110f13 	tsteq	r1, #19, 30	; 0x4c
    2a7c:	05080000 	streq	r0, [r8, #-0]
    2a80:	0002d673 	andeq	sp, r2, r3, ror r6
    2a84:	00be0b00 	adcseq	r0, lr, r0, lsl #22
    2a88:	74050000 	strvc	r0, [r5], #-0
    2a8c:	000002d6 	ldrdeq	r0, [r0], -r6
    2a90:	001b0b00 	andseq	r0, fp, r0, lsl #22
    2a94:	75050000 	strvc	r0, [r5, #-0]
    2a98:	00000025 	andeq	r0, r0, r5, lsr #32
    2a9c:	040d0004 	streq	r0, [sp], #-4
    2aa0:	0000004f 	andeq	r0, r0, pc, asr #32
    2aa4:	0003300f 	andeq	r3, r3, pc
    2aa8:	b3056800 	movwlt	r6, #22528	; 0x5800
    2aac:	00000406 	andeq	r0, r0, r6, lsl #8
    2ab0:	00705f10 	rsbseq	r5, r0, r0, lsl pc
    2ab4:	02d6b405 	sbcseq	fp, r6, #83886080	; 0x5000000
    2ab8:	10000000 	andne	r0, r0, r0
    2abc:	0500725f 	streq	r7, [r0, #-607]	; 0xfffffda1
    2ac0:	000025b5 			; <UNDEFINED> instruction: 0x000025b5
    2ac4:	5f100400 	svcpl	0x00100400
    2ac8:	b6050077 			; <UNDEFINED> instruction: 0xb6050077
    2acc:	00000025 	andeq	r0, r0, r5, lsr #32
    2ad0:	01220b08 			; <UNDEFINED> instruction: 0x01220b08
    2ad4:	b7050000 	strlt	r0, [r5, -r0]
    2ad8:	0000003a 	andeq	r0, r0, sl, lsr r0
    2adc:	01f40b0c 	mvnseq	r0, ip, lsl #22
    2ae0:	b8050000 	stmdalt	r5, {}	; <UNPREDICTABLE>
    2ae4:	0000003a 	andeq	r0, r0, sl, lsr r0
    2ae8:	625f100e 	subsvs	r1, pc, #14
    2aec:	b9050066 	stmdblt	r5, {r1, r2, r5, r6}
    2af0:	000002b1 			; <UNDEFINED> instruction: 0x000002b1
    2af4:	007b0b10 	rsbseq	r0, fp, r0, lsl fp
    2af8:	ba050000 	blt	142b00 <__bss_end__+0x139098>
    2afc:	00000025 	andeq	r0, r0, r5, lsr #32
    2b00:	01120b18 	tsteq	r2, r8, lsl fp
    2b04:	c1050000 	mrsgt	r0, (UNDEF: 5)
    2b08:	00000105 	andeq	r0, r0, r5, lsl #2
    2b0c:	0a5e0b1c 	beq	1785784 <__bss_end__+0x177bd1c>
    2b10:	c3050000 	movwgt	r0, #20480	; 0x5000
    2b14:	00000561 	andeq	r0, r0, r1, ror #10
    2b18:	0a780b20 	beq	1e057a0 <__bss_end__+0x1dfbd38>
    2b1c:	c5050000 	strgt	r0, [r5, #-0]
    2b20:	0000058b 	andeq	r0, r0, fp, lsl #11
    2b24:	03a20b24 			; <UNDEFINED> instruction: 0x03a20b24
    2b28:	c8050000 	stmdagt	r5, {}	; <UNPREDICTABLE>
    2b2c:	000005af 	andeq	r0, r0, pc, lsr #11
    2b30:	04e40b28 	strbteq	r0, [r4], #2856	; 0xb28
    2b34:	c9050000 	stmdbgt	r5, {}	; <UNPREDICTABLE>
    2b38:	000005c9 	andeq	r0, r0, r9, asr #11
    2b3c:	755f102c 	ldrbvc	r1, [pc, #-44]	; 2b18 <_start-0x54e8>
    2b40:	cc050062 	stcgt	0, cr0, [r5], {98}	; 0x62
    2b44:	000002b1 			; <UNDEFINED> instruction: 0x000002b1
    2b48:	755f1030 	ldrbvc	r1, [pc, #-48]	; 2b20 <_start-0x54e0>
    2b4c:	cd050070 	stcgt	0, cr0, [r5, #-448]	; 0xfffffe40
    2b50:	000002d6 	ldrdeq	r0, [r0], -r6
    2b54:	755f1038 	ldrbvc	r1, [pc, #-56]	; 2b24 <_start-0x54dc>
    2b58:	ce050072 	mcrgt	0, 0, r0, cr5, cr2, {3}
    2b5c:	00000025 	andeq	r0, r0, r5, lsr #32
    2b60:	00b80b3c 	adcseq	r0, r8, ip, lsr fp
    2b64:	d1050000 	mrsle	r0, (UNDEF: 5)
    2b68:	000005cf 	andeq	r0, r0, pc, asr #11
    2b6c:	04bc0b40 	ldrteq	r0, [ip], #2880	; 0xb40
    2b70:	d2050000 	andle	r0, r5, #0
    2b74:	000005df 	ldrdeq	r0, [r0], -pc	; <UNPREDICTABLE>
    2b78:	6c5f1043 	mrrcvs	0, 4, r1, pc, cr3	; <UNPREDICTABLE>
    2b7c:	d5050062 	strle	r0, [r5, #-98]	; 0xffffff9e
    2b80:	000002b1 			; <UNDEFINED> instruction: 0x000002b1
    2b84:	01400b44 	cmpeq	r0, r4, asr #22
    2b88:	d8050000 	stmdale	r5, {}	; <UNPREDICTABLE>
    2b8c:	00000025 	andeq	r0, r0, r5, lsr #32
    2b90:	01510b4c 	cmpeq	r1, ip, asr #22
    2b94:	d9050000 	stmdble	r5, {}	; <UNPREDICTABLE>
    2b98:	00000076 	andeq	r0, r0, r6, ror r0
    2b9c:	09ff0b50 	ldmibeq	pc!, {r4, r6, r8, r9, fp}^	; <UNPREDICTABLE>
    2ba0:	dc050000 	stcle	0, cr0, [r5], {-0}
    2ba4:	00000424 	andeq	r0, r0, r4, lsr #8
    2ba8:	026d0b54 	rsbeq	r0, sp, #84, 22	; 0x15000
    2bac:	e0050000 	and	r0, r5, r0
    2bb0:	000000fa 	strdeq	r0, [r0], -sl
    2bb4:	03380b58 	teqeq	r8, #88, 22	; 0x16000
    2bb8:	e2050000 	and	r0, r5, #0
    2bbc:	000000ef 	andeq	r0, r0, pc, ror #1
    2bc0:	02730b5c 	rsbseq	r0, r3, #92, 22	; 0x17000
    2bc4:	e3050000 	movw	r0, #20480	; 0x5000
    2bc8:	00000025 	andeq	r0, r0, r5, lsr #32
    2bcc:	25140064 	ldrcs	r0, [r4, #-100]	; 0xffffff9c
    2bd0:	24000000 	strcs	r0, [r0], #-0
    2bd4:	15000004 	strne	r0, [r0, #-4]
    2bd8:	00000424 	andeq	r0, r0, r4, lsr #8
    2bdc:	00010515 	andeq	r0, r1, r5, lsl r5
    2be0:	01071500 	tsteq	r7, r0, lsl #10
    2be4:	25150000 	ldrcs	r0, [r5, #-0]
    2be8:	00000000 	andeq	r0, r0, r0
    2bec:	042f040d 	strteq	r0, [pc], #-1037	; 2bf4 <_start-0x540c>
    2bf0:	240e0000 	strcs	r0, [lr], #-0
    2bf4:	16000004 	strne	r0, [r0], -r4
    2bf8:	00000385 	andeq	r0, r0, r5, lsl #7
    2bfc:	38050428 	stmdacc	r5, {r3, r5, sl}
    2c00:	00056102 	andeq	r6, r5, r2, lsl #2
    2c04:	02f61700 	rscseq	r1, r6, #0, 14
    2c08:	3a050000 	bcc	142c10 <__bss_end__+0x1391a8>
    2c0c:	00002502 	andeq	r2, r0, r2, lsl #10
    2c10:	31170000 	tstcc	r7, r0
    2c14:	05000001 	streq	r0, [r0, #-1]
    2c18:	0636023f 			; <UNDEFINED> instruction: 0x0636023f
    2c1c:	17040000 	strne	r0, [r4, -r0]
    2c20:	000001e4 	andeq	r0, r0, r4, ror #3
    2c24:	36023f05 	strcc	r3, [r2], -r5, lsl #30
    2c28:	08000006 	stmdaeq	r0, {r1, r2}
    2c2c:	00019417 	andeq	r9, r1, r7, lsl r4
    2c30:	023f0500 	eorseq	r0, pc, #0, 10
    2c34:	00000636 	andeq	r0, r0, r6, lsr r6
    2c38:	0359170c 	cmpeq	r9, #12, 14	; 0x300000
    2c3c:	41050000 	mrsmi	r0, (UNDEF: 5)
    2c40:	00002502 	andeq	r2, r0, r2, lsl #10
    2c44:	29171000 	ldmdbcs	r7, {ip}
    2c48:	05000000 	streq	r0, [r0, #-0]
    2c4c:	08180242 	ldmdaeq	r8, {r1, r6, r9}
    2c50:	17140000 	ldrne	r0, [r4, -r0]
    2c54:	00000464 	andeq	r0, r0, r4, ror #8
    2c58:	25024405 	strcs	r4, [r2, #-1029]	; 0xfffffbfb
    2c5c:	30000000 	andcc	r0, r0, r0
    2c60:	00036317 	andeq	r6, r3, r7, lsl r3
    2c64:	02450500 	subeq	r0, r5, #0, 10
    2c68:	00000585 	andeq	r0, r0, r5, lsl #11
    2c6c:	02b31734 	adcseq	r1, r3, #52, 14	; 0xd00000
    2c70:	47050000 	strmi	r0, [r5, -r0]
    2c74:	00002502 	andeq	r2, r0, r2, lsl #10
    2c78:	73173800 	tstvc	r7, #0, 16
    2c7c:	05000003 	streq	r0, [r0, #-3]
    2c80:	08330249 	ldmdaeq	r3!, {r0, r3, r6, r9}
    2c84:	173c0000 	ldrne	r0, [ip, -r0]!
    2c88:	00000251 	andeq	r0, r0, r1, asr r2
    2c8c:	77024c05 	strvc	r4, [r2, -r5, lsl #24]
    2c90:	40000001 	andmi	r0, r0, r1
    2c94:	0001b317 	andeq	fp, r1, r7, lsl r3
    2c98:	024d0500 	subeq	r0, sp, #0, 10
    2c9c:	00000025 	andeq	r0, r0, r5, lsr #32
    2ca0:	04fe1744 	ldrbteq	r1, [lr], #1860	; 0x744
    2ca4:	4e050000 	cdpmi	0, 0, cr0, cr5, cr0, {0}
    2ca8:	00017702 	andeq	r7, r1, r2, lsl #14
    2cac:	c5174800 	ldrgt	r4, [r7, #-2048]	; 0xfffff800
    2cb0:	05000002 	streq	r0, [r0, #-2]
    2cb4:	0839024f 	ldmdaeq	r9!, {r0, r1, r2, r3, r6, r9}
    2cb8:	174c0000 	strbne	r0, [ip, -r0]
    2cbc:	000001ec 	andeq	r0, r0, ip, ror #3
    2cc0:	25025205 	strcs	r5, [r2, #-517]	; 0xfffffdfb
    2cc4:	50000000 	andpl	r0, r0, r0
    2cc8:	00014917 	andeq	r4, r1, r7, lsl r9
    2ccc:	02530500 	subseq	r0, r3, #0, 10
    2cd0:	00000107 	andeq	r0, r0, r7, lsl #2
    2cd4:	02ef1754 	rsceq	r1, pc, #84, 14	; 0x1500000
    2cd8:	76050000 	strvc	r0, [r5], -r0
    2cdc:	0007f602 	andeq	pc, r7, r2, lsl #12
    2ce0:	ab185800 	blge	618ce8 <__bss_end__+0x60f280>
    2ce4:	05000002 	streq	r0, [r0, #-2]
    2ce8:	0294027a 	addseq	r0, r4, #-1610612729	; 0xa0000007
    2cec:	01480000 	mrseq	r0, (UNDEF: 72)
    2cf0:	00022f18 	andeq	r2, r2, r8, lsl pc
    2cf4:	027b0500 	rsbseq	r0, fp, #0, 10
    2cf8:	00000256 	andeq	r0, r0, r6, asr r2
    2cfc:	b218014c 	andslt	r0, r8, #76, 2
    2d00:	05000004 	streq	r0, [r0, #-4]
    2d04:	084a027f 	stmdaeq	sl, {r0, r1, r2, r3, r4, r5, r6, r9}^
    2d08:	02dc0000 	sbcseq	r0, ip, #0
    2d0c:	00011a18 	andeq	r1, r1, r8, lsl sl
    2d10:	02840500 	addeq	r0, r4, #0, 10
    2d14:	000005fb 	strdeq	r0, [r0], -fp
    2d18:	ff1802e0 			; <UNDEFINED> instruction: 0xff1802e0
    2d1c:	05000000 	streq	r0, [r0, #-0]
    2d20:	08560285 	ldmdaeq	r6, {r0, r2, r7, r9}^
    2d24:	02ec0000 	rsceq	r0, ip, #0
    2d28:	06040d00 	streq	r0, [r4], -r0, lsl #26
    2d2c:	14000004 	strne	r0, [r0], #-4
    2d30:	00000025 	andeq	r0, r0, r5, lsr #32
    2d34:	00000585 	andeq	r0, r0, r5, lsl #11
    2d38:	00042415 	andeq	r2, r4, r5, lsl r4
    2d3c:	01051500 	tsteq	r5, r0, lsl #10
    2d40:	85150000 	ldrhi	r0, [r5, #-0]
    2d44:	15000005 	strne	r0, [r0, #-5]
    2d48:	00000025 	andeq	r0, r0, r5, lsr #32
    2d4c:	14040d00 	strne	r0, [r4], #-3328	; 0xfffff300
    2d50:	0d000001 	stceq	0, cr0, [r0, #-4]
    2d54:	00056704 	andeq	r6, r5, r4, lsl #14
    2d58:	00811400 	addeq	r1, r1, r0, lsl #8
    2d5c:	05af0000 	streq	r0, [pc, #0]!	; 2d64 <_start-0x529c>
    2d60:	24150000 	ldrcs	r0, [r5], #-0
    2d64:	15000004 	strne	r0, [r0, #-4]
    2d68:	00000105 	andeq	r0, r0, r5, lsl #2
    2d6c:	00008115 	andeq	r8, r0, r5, lsl r1
    2d70:	00251500 	eoreq	r1, r5, r0, lsl #10
    2d74:	0d000000 	stceq	0, cr0, [r0, #-0]
    2d78:	00059104 	andeq	r9, r5, r4, lsl #2
    2d7c:	00251400 	eoreq	r1, r5, r0, lsl #8
    2d80:	05c90000 	strbeq	r0, [r9]
    2d84:	24150000 	ldrcs	r0, [r5], #-0
    2d88:	15000004 	strne	r0, [r0, #-4]
    2d8c:	00000105 	andeq	r0, r0, r5, lsl #2
    2d90:	b5040d00 	strlt	r0, [r4, #-3328]	; 0xfffff300
    2d94:	08000005 	stmdaeq	r0, {r0, r2}
    2d98:	0000004f 	andeq	r0, r0, pc, asr #32
    2d9c:	000005df 	ldrdeq	r0, [r0], -pc	; <UNPREDICTABLE>
    2da0:	0000c709 	andeq	ip, r0, r9, lsl #14
    2da4:	08000200 	stmdaeq	r0, {r9}
    2da8:	0000004f 	andeq	r0, r0, pc, asr #32
    2dac:	000005ef 	andeq	r0, r0, pc, ror #11
    2db0:	0000c709 	andeq	ip, r0, r9, lsl #14
    2db4:	05000000 	streq	r0, [r0, #-0]
    2db8:	0000031e 	andeq	r0, r0, lr, lsl r3
    2dbc:	dc011d05 	stcle	13, cr1, [r1], {5}
    2dc0:	19000002 	stmdbne	r0, {r1}
    2dc4:	00000499 	muleq	r0, r9, r4
    2dc8:	0121050c 			; <UNDEFINED> instruction: 0x0121050c
    2dcc:	00000630 	andeq	r0, r0, r0, lsr r6
    2dd0:	00034617 	andeq	r4, r3, r7, lsl r6
    2dd4:	01230500 			; <UNDEFINED> instruction: 0x01230500
    2dd8:	00000630 	andeq	r0, r0, r0, lsr r6
    2ddc:	02071700 	andeq	r1, r7, #0, 14
    2de0:	24050000 	strcs	r0, [r5], #-0
    2de4:	00002501 	andeq	r2, r0, r1, lsl #10
    2de8:	18170400 	ldmdane	r7, {sl}
    2dec:	05000003 	streq	r0, [r0, #-3]
    2df0:	06360125 	ldrteq	r0, [r6], -r5, lsr #2
    2df4:	00080000 	andeq	r0, r8, r0
    2df8:	05fb040d 	ldrbeq	r0, [fp, #1037]!	; 0x40d
    2dfc:	040d0000 	streq	r0, [sp], #-0
    2e00:	000005ef 	andeq	r0, r0, pc, ror #11
    2e04:	00002119 	andeq	r2, r0, r9, lsl r1
    2e08:	3d050e00 	stccc	14, cr0, [r5, #-0]
    2e0c:	00067101 	andeq	r7, r6, r1, lsl #2
    2e10:	038c1700 	orreq	r1, ip, #0, 14
    2e14:	3e050000 	cdpcc	0, 0, cr0, cr5, cr0, {0}
    2e18:	00067101 	andeq	r7, r6, r1, lsl #2
    2e1c:	b9170000 	ldmdblt	r7, {}	; <UNPREDICTABLE>
    2e20:	05000003 	streq	r0, [r0, #-3]
    2e24:	0671013f 			; <UNDEFINED> instruction: 0x0671013f
    2e28:	17060000 	strne	r0, [r6, -r0]
    2e2c:	00000437 	andeq	r0, r0, r7, lsr r4
    2e30:	56014005 	strpl	r4, [r1], -r5
    2e34:	0c000000 	stceq	0, cr0, [r0], {-0}
    2e38:	00560800 	subseq	r0, r6, r0, lsl #16
    2e3c:	06810000 	streq	r0, [r1], r0
    2e40:	c7090000 	strgt	r0, [r9, -r0]
    2e44:	02000000 	andeq	r0, r0, #0
    2e48:	05d01a00 	ldrbeq	r1, [r0, #2560]	; 0xa00
    2e4c:	07820257 			; <UNDEFINED> instruction: 0x07820257
    2e50:	7d170000 	ldcvc	0, cr0, [r7, #-0]
    2e54:	05000004 	streq	r0, [r0, #-4]
    2e58:	002c0259 	eoreq	r0, ip, r9, asr r2
    2e5c:	17000000 	strne	r0, [r0, -r0]
    2e60:	00000421 	andeq	r0, r0, r1, lsr #8
    2e64:	07025a05 	streq	r5, [r2, -r5, lsl #20]
    2e68:	04000001 	streq	r0, [r0], #-1
    2e6c:	00024417 	andeq	r4, r2, r7, lsl r4
    2e70:	025b0500 	subseq	r0, fp, #0, 10
    2e74:	00000782 	andeq	r0, r0, r2, lsl #15
    2e78:	04d51708 	ldrbeq	r1, [r5], #1800	; 0x708
    2e7c:	5c050000 	stcpl	0, cr0, [r5], {-0}
    2e80:	00018d02 	andeq	r8, r1, r2, lsl #26
    2e84:	a4172400 	ldrge	r2, [r7], #-1024	; 0xfffffc00
    2e88:	05000001 	streq	r0, [r0, #-1]
    2e8c:	0025025d 	eoreq	r0, r5, sp, asr r2
    2e90:	17480000 	strbne	r0, [r8, -r0]
    2e94:	00000341 	andeq	r0, r0, r1, asr #6
    2e98:	64025e05 	strvs	r5, [r2], #-3589	; 0xfffff1fb
    2e9c:	50000000 	andpl	r0, r0, r0
    2ea0:	0004eb17 	andeq	lr, r4, r7, lsl fp
    2ea4:	025f0500 	subseq	r0, pc, #0, 10
    2ea8:	0000063c 	andeq	r0, r0, ip, lsr r6
    2eac:	034c1758 	movteq	r1, #51032	; 0xc758
    2eb0:	60050000 	andvs	r0, r5, r0
    2eb4:	0000ef02 	andeq	lr, r0, r2, lsl #30
    2eb8:	f0176800 			; <UNDEFINED> instruction: 0xf0176800
    2ebc:	05000004 	streq	r0, [r0, #-4]
    2ec0:	00ef0261 	rsceq	r0, pc, r1, ror #4
    2ec4:	17700000 	ldrbne	r0, [r0, -r0]!
    2ec8:	00000093 	muleq	r0, r3, r0
    2ecc:	ef026205 	svc	0x00026205
    2ed0:	78000000 	stmdavc	r0, {}	; <UNPREDICTABLE>
    2ed4:	0004a817 	andeq	sl, r4, r7, lsl r8
    2ed8:	02630500 	rsbeq	r0, r3, #0, 10
    2edc:	00000792 	muleq	r0, r2, r7
    2ee0:	02381780 	eorseq	r1, r8, #128, 14	; 0x2000000
    2ee4:	64050000 	strvs	r0, [r5], #-0
    2ee8:	0007a202 	andeq	sl, r7, r2, lsl #4
    2eec:	44178800 	ldrmi	r8, [r7], #-2048	; 0xfffff800
    2ef0:	05000004 	streq	r0, [r0, #-4]
    2ef4:	00250265 	eoreq	r0, r5, r5, ror #4
    2ef8:	17a00000 	strne	r0, [r0, r0]!
    2efc:	0000016a 	andeq	r0, r0, sl, ror #2
    2f00:	ef026605 	svc	0x00026605
    2f04:	a4000000 	strge	r0, [r0], #-0
    2f08:	00008417 	andeq	r8, r0, r7, lsl r4
    2f0c:	02670500 	rsbeq	r0, r7, #0, 10
    2f10:	000000ef 	andeq	r0, r0, pc, ror #1
    2f14:	015917ac 	cmpeq	r9, ip, lsr #15
    2f18:	68050000 	stmdavs	r5, {}	; <UNPREDICTABLE>
    2f1c:	0000ef02 	andeq	lr, r0, r2, lsl #30
    2f20:	3c17b400 	cfldrscc	mvf11, [r7], {-0}
    2f24:	05000000 	streq	r0, [r0, #-0]
    2f28:	00ef0269 	rsceq	r0, pc, r9, ror #4
    2f2c:	17bc0000 	ldrne	r0, [ip, r0]!
    2f30:	0000004b 	andeq	r0, r0, fp, asr #32
    2f34:	ef026a05 	svc	0x00026a05
    2f38:	c4000000 	strgt	r0, [r0], #-0
    2f3c:	0002f417 	andeq	pc, r2, r7, lsl r4	; <UNPREDICTABLE>
    2f40:	026b0500 	rsbeq	r0, fp, #0, 10
    2f44:	00000025 	andeq	r0, r0, r5, lsr #32
    2f48:	0d0800cc 	stceq	0, cr0, [r8, #-816]	; 0xfffffcd0
    2f4c:	92000001 	andls	r0, r0, #1
    2f50:	09000007 	stmdbeq	r0, {r0, r1, r2}
    2f54:	000000c7 	andeq	r0, r0, r7, asr #1
    2f58:	0d080019 	stceq	0, cr0, [r8, #-100]	; 0xffffff9c
    2f5c:	a2000001 	andge	r0, r0, #1
    2f60:	09000007 	stmdbeq	r0, {r0, r1, r2}
    2f64:	000000c7 	andeq	r0, r0, r7, asr #1
    2f68:	0d080007 	stceq	0, cr0, [r8, #-28]	; 0xffffffe4
    2f6c:	b2000001 	andlt	r0, r0, #1
    2f70:	09000007 	stmdbeq	r0, {r0, r1, r2}
    2f74:	000000c7 	andeq	r0, r0, r7, asr #1
    2f78:	f01a0017 			; <UNDEFINED> instruction: 0xf01a0017
    2f7c:	d6027005 	strle	r7, [r2], -r5
    2f80:	17000007 	strne	r0, [r0, -r7]
    2f84:	0000029b 	muleq	r0, fp, r2
    2f88:	d6027305 	strle	r7, [r2], -r5, lsl #6
    2f8c:	00000007 	andeq	r0, r0, r7
    2f90:	00049f17 	andeq	r9, r4, r7, lsl pc
    2f94:	02740500 	rsbseq	r0, r4, #0, 10
    2f98:	000007e6 	andeq	r0, r0, r6, ror #15
    2f9c:	d6080078 			; <UNDEFINED> instruction: 0xd6080078
    2fa0:	e6000002 	str	r0, [r0], -r2
    2fa4:	09000007 	stmdbeq	r0, {r0, r1, r2}
    2fa8:	000000c7 	andeq	r0, r0, r7, asr #1
    2fac:	2c08001d 	stccs	0, cr0, [r8], {29}
    2fb0:	f6000000 			; <UNDEFINED> instruction: 0xf6000000
    2fb4:	09000007 	stmdbeq	r0, {r0, r1, r2}
    2fb8:	000000c7 	andeq	r0, r0, r7, asr #1
    2fbc:	f01b001d 			; <UNDEFINED> instruction: 0xf01b001d
    2fc0:	18025505 	stmdane	r2, {r0, r2, r8, sl, ip, lr}
    2fc4:	1c000008 	stcne	0, cr0, [r0], {8}
    2fc8:	00000385 	andeq	r0, r0, r5, lsl #7
    2fcc:	81026c05 	tsthi	r2, r5, lsl #24
    2fd0:	1c000006 	stcne	0, cr0, [r0], {6}
    2fd4:	000004c2 	andeq	r0, r0, r2, asr #9
    2fd8:	b2027505 	andlt	r7, r2, #20971520	; 0x1400000
    2fdc:	00000007 	andeq	r0, r0, r7
    2fe0:	00010d08 	andeq	r0, r1, r8, lsl #26
    2fe4:	00082800 	andeq	r2, r8, r0, lsl #16
    2fe8:	00c70900 	sbceq	r0, r7, r0, lsl #18
    2fec:	00180000 	andseq	r0, r8, r0
    2ff0:	0008331d 	andeq	r3, r8, sp, lsl r3
    2ff4:	04241500 	strteq	r1, [r4], #-1280	; 0xfffffb00
    2ff8:	0d000000 	stceq	0, cr0, [r0, #-0]
    2ffc:	00082804 	andeq	r2, r8, r4, lsl #16
    3000:	77040d00 	strvc	r0, [r4, -r0, lsl #26]
    3004:	1d000001 	stcne	0, cr0, [r0, #-4]
    3008:	0000084a 	andeq	r0, r0, sl, asr #16
    300c:	00002515 	andeq	r2, r0, r5, lsl r5
    3010:	040d0000 	streq	r0, [sp], #-0
    3014:	00000850 	andeq	r0, r0, r0, asr r8
    3018:	083f040d 	ldmdaeq	pc!, {r0, r2, r3, sl}	; <UNPREDICTABLE>
    301c:	ef080000 	svc	0x00080000
    3020:	66000005 	strvs	r0, [r0], -r5
    3024:	09000008 	stmdbeq	r0, {r3}
    3028:	000000c7 	andeq	r0, r0, r7, asr #1
    302c:	581e0002 	ldmdapl	lr, {r1}
    3030:	05000004 	streq	r0, [r0, #-4]
    3034:	042402fd 	strteq	r0, [r4], #-765	; 0xfffffd03
    3038:	511e0000 	tstpl	lr, r0
    303c:	05000004 	streq	r0, [r0, #-4]
    3040:	042a02fe 	strteq	r0, [sl], #-766	; 0xfffffd02
    3044:	25140000 	ldrcs	r0, [r4, #-0]
    3048:	8d000000 	stchi	0, cr0, [r0, #-0]
    304c:	15000008 	strne	r0, [r0, #-8]
    3050:	00000025 	andeq	r0, r0, r5, lsr #32
    3054:	01bd1f00 			; <UNDEFINED> instruction: 0x01bd1f00
    3058:	1d060000 	stcne	0, cr0, [r6, #-0]
    305c:	00000898 	muleq	r0, r8, r8
    3060:	087e040d 	ldmdaeq	lr!, {r0, r2, r3, sl}^
    3064:	25140000 	ldrcs	r0, [r4, #-0]
    3068:	ad000000 	stcge	0, cr0, [r0, #-0]
    306c:	15000008 	strne	r0, [r0, #-8]
    3070:	00000585 	andeq	r0, r0, r5, lsl #11
    3074:	07561f00 	ldrbeq	r1, [r6, -r0, lsl #30]
    3078:	22060000 	andcs	r0, r6, #0
    307c:	000008b8 			; <UNDEFINED> instruction: 0x000008b8
    3080:	089e040d 	ldmeq	lr, {r0, r2, r3, sl}
    3084:	94040000 	strls	r0, [r4], #-0
    3088:	07000006 	streq	r0, [r0, -r6]
    308c:	0008c928 	andeq	ip, r8, r8, lsr #18
    3090:	06800f00 	streq	r0, [r0], r0, lsl #30
    3094:	08040000 	stmdaeq	r4, {}	; <UNPREDICTABLE>
    3098:	0008e000 	andeq	lr, r8, r0
    309c:	06a32000 	strteq	r2, [r3], r0
    30a0:	01050000 	mrseq	r0, (UNDEF: 5)
    30a4:	00000000 	andeq	r0, r0, r0
    30a8:	00068204 	andeq	r8, r6, r4, lsl #4
    30ac:	be630700 	cdplt	7, 6, cr0, cr3, cr0, {0}
    30b0:	21000008 	tstcs	r0, r8
    30b4:	0000068a 	andeq	r0, r0, sl, lsl #13
    30b8:	00257d01 	eoreq	r7, r5, r1, lsl #26
    30bc:	89400000 	stmdbhi	r0, {}^	; <UNPREDICTABLE>
    30c0:	02c00000 	sbceq	r0, r0, #0
    30c4:	9c010000 	stcls	0, cr0, [r1], {-0}
    30c8:	00000b51 	andeq	r0, r0, r1, asr fp
    30cc:	66756222 	ldrbtvs	r6, [r5], -r2, lsr #4
    30d0:	077d0100 	ldrbeq	r0, [sp, -r0, lsl #2]!
    30d4:	63000001 	movwvs	r0, #1
    30d8:	22000005 	andcs	r0, r0, #5
    30dc:	7d01006e 	stcvc	0, cr0, [r1, #-440]	; 0xfffffe48
    30e0:	00000025 	andeq	r0, r0, r5, lsr #32
    30e4:	0000058f 	andeq	r0, r0, pc, lsl #11
    30e8:	746d6622 	strbtvc	r6, [sp], #-1570	; 0xfffff9de
    30ec:	857d0100 	ldrbhi	r0, [sp, #-256]!	; 0xffffff00
    30f0:	bd000005 	stclt	0, cr0, [r0, #-20]	; 0xffffffec
    30f4:	23000005 	movwcs	r0, #5
    30f8:	0000010d 	andeq	r0, r0, sp, lsl #2
    30fc:	08e07d01 	stmiaeq	r0!, {r0, r8, sl, fp, ip, sp, lr}^
    3100:	91030000 	mrsls	r0, (UNDEF: 3)
    3104:	70247edc 	ldrdvc	r7, [r4], -ip	; <UNPREDICTABLE>
    3108:	077e0100 	ldrbeq	r0, [lr, -r0, lsl #2]!
    310c:	1d000001 	stcne	0, cr0, [r0, #-4]
    3110:	24000006 	strcs	r0, [r0], #-6
    3114:	7e010065 	cdpvc	0, 0, cr0, cr1, cr5, {3}
    3118:	00000107 	andeq	r0, r0, r7, lsl #2
    311c:	0000069b 	muleq	r0, fp, r6
    3120:	0001fa25 	andeq	pc, r1, r5, lsr #20
    3124:	000b6100 	andeq	r6, fp, r0, lsl #2
    3128:	64030500 	strvs	r0, [r3], #-1280	; 0xfffffb00
    312c:	26000095 			; <UNDEFINED> instruction: 0x26000095
    3130:	00000018 	andeq	r0, r0, r8, lsl r0
    3134:	01007324 	tsteq	r0, r4, lsr #6
    3138:	0001078b 	andeq	r0, r1, fp, lsl #15
    313c:	0006c200 	andeq	ip, r6, r0, lsl #4
    3140:	756e2700 	strbvc	r2, [lr, #-1792]!	; 0xfffff900
    3144:	8b01006d 	blhi	43300 <__bss_end__+0x39898>
    3148:	00000b66 	andeq	r0, r0, r6, ror #22
    314c:	7ee09103 	urdvcs	f1, f3
    3150:	00070328 	andeq	r0, r7, r8, lsr #6
    3154:	2c8c0100 	stfcss	f0, [ip], {0}
    3158:	0c000000 	stceq	0, cr0, [r0], {-0}
    315c:	29000007 	stmdbcs	r0, {r0, r1, r2}
    3160:	000089d0 	ldrdeq	r8, [r0], -r0
    3164:	00000d92 	muleq	r0, r2, sp
    3168:	000009ab 	andeq	r0, r0, fp, lsr #19
    316c:	0250012a 	subseq	r0, r0, #-2147483638	; 0x8000000a
    3170:	2b000077 	blcs	3354 <_start-0x4cac>
    3174:	00008a50 	andeq	r8, r0, r0, asr sl
    3178:	00000e52 	andeq	r0, r0, r2, asr lr
    317c:	008a6429 	addeq	r6, sl, r9, lsr #8
    3180:	000e5d00 	andeq	r5, lr, r0, lsl #26
    3184:	0009e300 	andeq	lr, r9, r0, lsl #6
    3188:	50012a00 	andpl	r2, r1, r0, lsl #20
    318c:	95d40305 	ldrbls	r0, [r4, #773]	; 0x305
    3190:	012a0000 			; <UNDEFINED> instruction: 0x012a0000
    3194:	70030551 	andvc	r0, r3, r1, asr r5
    3198:	2a000095 	bcs	33f4 <_start-0x4c0c>
    319c:	03055201 	movweq	r5, #20993	; 0x5201
    31a0:	00009564 	andeq	r9, r0, r4, ror #10
    31a4:	0253012a 	subseq	r0, r3, #-2147483638	; 0x8000000a
    31a8:	2b009208 	blcs	279d0 <__bss_end__+0x1df68>
    31ac:	00008a68 	andeq	r8, r0, r8, ror #20
    31b0:	00000e68 	andeq	r0, r0, r8, ror #28
    31b4:	008a6c2b 	addeq	r6, sl, fp, lsr #24
    31b8:	000e5200 	andeq	r5, lr, r0, lsl #4
    31bc:	8a802900 	bhi	fe00d5c4 <__bss_end__+0xfe003b5c>
    31c0:	0e5d0000 	cdpeq	0, 5, cr0, cr13, cr0, {0}
    31c4:	0a240000 	beq	9031cc <__bss_end__+0x8f9764>
    31c8:	012a0000 			; <UNDEFINED> instruction: 0x012a0000
    31cc:	f0030550 			; <UNDEFINED> instruction: 0xf0030550
    31d0:	2a000095 	bcs	342c <_start-0x4bd4>
    31d4:	03055101 	movweq	r5, #20737	; 0x5101
    31d8:	00009570 	andeq	r9, r0, r0, ror r5
    31dc:	0552012a 	ldrbeq	r0, [r2, #-298]	; 0xfffffed6
    31e0:	00956403 	addseq	r6, r5, r3, lsl #8
    31e4:	53012a00 	movwpl	r2, #6656	; 0x1a00
    31e8:	00980802 	addseq	r0, r8, r2, lsl #16
    31ec:	008a842b 	addeq	r8, sl, fp, lsr #8
    31f0:	000e6800 	andeq	r6, lr, r0, lsl #16
    31f4:	8ab02900 	bhi	fec0d5fc <__bss_end__+0xfec03b94>
    31f8:	0b760000 	bleq	1d83200 <__bss_end__+0x1d79798>
    31fc:	0a5a0000 	beq	1683204 <__bss_end__+0x167979c>
    3200:	012a0000 			; <UNDEFINED> instruction: 0x012a0000
    3204:	2a3a0150 	bcs	e8374c <__bss_end__+0xe79ce4>
    3208:	91035101 	tstls	r3, r1, lsl #2
    320c:	012a7ed8 	ldrdeq	r7, [sl, -r8]!
    3210:	80080252 	andhi	r0, r8, r2, asr r2
    3214:	007d022a 	rsbseq	r0, sp, sl, lsr #4
    3218:	2a007402 	bcs	20228 <__bss_end__+0x167c0>
    321c:	01047d02 	tsteq	r4, r2, lsl #26
    3220:	e4290031 	strt	r0, [r9], #-49	; 0xffffffcf
    3224:	7600008a 	strvc	r0, [r0], -sl, lsl #1
    3228:	8700000b 	strhi	r0, [r0, -fp]
    322c:	2a00000a 	bcs	325c <_start-0x4da4>
    3230:	3a015001 	bcc	5723c <__bss_end__+0x4d7d4>
    3234:	0351012a 	cmpeq	r1, #-2147483638	; 0x8000000a
    3238:	2a7ed891 	bcs	1fb9484 <__bss_end__+0x1fafa1c>
    323c:	08025201 	stmdaeq	r2, {r0, r9, ip, lr}
    3240:	7d022a80 	vstrvc	s4, [r2, #-512]	; 0xfffffe00
    3244:	00740200 	rsbseq	r0, r4, r0, lsl #4
    3248:	047d022a 	ldrbteq	r0, [sp], #-554	; 0xfffffdd6
    324c:	29003001 	stmdbcs	r0, {r0, ip, sp}
    3250:	00008b14 	andeq	r8, r0, r4, lsl fp
    3254:	00000b76 	andeq	r0, r0, r6, ror fp
    3258:	00000ab4 			; <UNDEFINED> instruction: 0x00000ab4
    325c:	0150012a 	cmpeq	r0, sl, lsr #2
    3260:	51012a40 	tstpl	r1, r0, asr #20
    3264:	7ed89103 	atnvce	f1, f3
    3268:	0252012a 	subseq	r0, r2, #-2147483638	; 0x8000000a
    326c:	022a8008 	eoreq	r8, sl, #8
    3270:	7402007d 	strvc	r0, [r2], #-125	; 0xffffff83
    3274:	7d022a00 	vstrvc	s4, [r2, #-0]
    3278:	00300104 	eorseq	r0, r0, r4, lsl #2
    327c:	008b4429 	addeq	r4, fp, r9, lsr #8
    3280:	000b7600 	andeq	r7, fp, r0, lsl #12
    3284:	000ae100 	andeq	lr, sl, r0, lsl #2
    3288:	50012a00 	andpl	r2, r1, r0, lsl #20
    328c:	012a3201 			; <UNDEFINED> instruction: 0x012a3201
    3290:	d8910351 	ldmle	r1, {r0, r4, r6, r8, r9}
    3294:	52012a7e 	andpl	r2, r1, #516096	; 0x7e000
    3298:	2a800802 	bcs	fe0052a8 <__bss_end__+0xfdffb840>
    329c:	02007d02 	andeq	r7, r0, #2, 26	; 0x80
    32a0:	022a0074 	eoreq	r0, sl, #116	; 0x74
    32a4:	3001047d 	andcc	r0, r1, sp, ror r4
    32a8:	8b882900 	blhi	fe20d6b0 <__bss_end__+0xfe203c48>
    32ac:	0b760000 	bleq	1d832b4 <__bss_end__+0x1d7984c>
    32b0:	0b0e0000 	bleq	3832b8 <__bss_end__+0x379850>
    32b4:	012a0000 			; <UNDEFINED> instruction: 0x012a0000
    32b8:	2a380150 	bcs	e03800 <__bss_end__+0xdf9d98>
    32bc:	91035101 	tstls	r3, r1, lsl #2
    32c0:	012a7ed8 	ldrdeq	r7, [sl, -r8]!
    32c4:	80080252 	andhi	r0, r8, r2, asr r2
    32c8:	007d022a 	rsbseq	r0, sp, sl, lsr #4
    32cc:	2a007402 	bcs	202dc <__bss_end__+0x16874>
    32d0:	01047d02 	tsteq	r4, r2, lsl #26
    32d4:	902b0030 	eorls	r0, fp, r0, lsr r0
    32d8:	5200008b 	andpl	r0, r0, #139	; 0x8b
    32dc:	2900000e 	stmdbcs	r0, {r1, r2, r3}
    32e0:	00008bac 	andeq	r8, r0, ip, lsr #23
    32e4:	00000e5d 	andeq	r0, r0, sp, asr lr
    32e8:	00000b46 	andeq	r0, r0, r6, asr #22
    32ec:	0550012a 	ldrbeq	r0, [r0, #-298]	; 0xfffffed6
    32f0:	00961803 	addseq	r1, r6, r3, lsl #16
    32f4:	51012a00 	tstpl	r1, r0, lsl #20
    32f8:	95700305 	ldrbls	r0, [r0, #-773]!	; 0xfffffcfb
    32fc:	012a0000 			; <UNDEFINED> instruction: 0x012a0000
    3300:	64030552 	strvs	r0, [r3], #-1362	; 0xfffffaae
    3304:	2a000095 	bcs	3560 <_start-0x4aa0>
    3308:	08025301 	stmdaeq	r2, {r0, r8, r9, ip, lr}
    330c:	b02b00b9 	strhtlt	r0, [fp], -r9
    3310:	6800008b 	stmdavs	r0, {r0, r1, r3, r7}
    3314:	0000000e 	andeq	r0, r0, lr
    3318:	01140800 	tsteq	r4, r0, lsl #16
    331c:	0b610000 	bleq	1843324 <__bss_end__+0x18398bc>
    3320:	c7090000 	strgt	r0, [r9, -r0]
    3324:	09000000 	stmdbeq	r0, {}	; <UNPREDICTABLE>
    3328:	0b510e00 	bleq	1446b30 <__bss_end__+0x143d0c8>
    332c:	0d080000 	stceq	0, cr0, [r8, #-0]
    3330:	76000001 	strvc	r0, [r0], -r1
    3334:	0900000b 	stmdbeq	r0, {r0, r1, r3}
    3338:	000000c7 	andeq	r0, r0, r7, asr #1
    333c:	272c007f 			; <UNDEFINED> instruction: 0x272c007f
    3340:	01000007 	tsteq	r0, r7
    3344:	00010747 	andeq	r0, r1, r7, asr #14
    3348:	00875000 	addeq	r5, r7, r0
    334c:	00019c00 	andeq	r9, r1, r0, lsl #24
    3350:	b19c0100 	orrslt	r0, ip, r0, lsl #2
    3354:	2d00000c 	stccs	0, cr0, [r0, #-48]	; 0xffffffd0
    3358:	000000bf 	strheq	r0, [r0], -pc	; <UNPREDICTABLE>
    335c:	002c4701 	eoreq	r4, ip, r1, lsl #14
    3360:	07360000 	ldreq	r0, [r6, -r0]!
    3364:	64220000 	strtvs	r0, [r2], #-0
    3368:	01007473 	tsteq	r0, r3, ror r4
    336c:	00010747 	andeq	r0, r1, r7, asr #14
    3370:	00076400 	andeq	r6, r7, r0, lsl #8
    3374:	006e2200 	rsbeq	r2, lr, r0, lsl #4
    3378:	00254701 	eoreq	r4, r5, r1, lsl #14
    337c:	07820000 	streq	r0, [r2, r0]
    3380:	76220000 	strtvc	r0, [r2], -r0
    3384:	01006c61 	tsteq	r0, r1, ror #24
    3388:	00002547 	andeq	r2, r0, r7, asr #10
    338c:	0007a000 	andeq	sl, r7, r0
    3390:	07032d00 	streq	r2, [r3, -r0, lsl #26]
    3394:	47010000 	strmi	r0, [r1, -r0]
    3398:	00000025 	andeq	r0, r0, r5, lsr #32
    339c:	00000814 	andeq	r0, r0, r4, lsl r8
    33a0:	0006f223 	andeq	pc, r6, r3, lsr #4
    33a4:	25470100 	strbcs	r0, [r7, #-256]	; 0xffffff00
    33a8:	02000000 	andeq	r0, r0, #0
    33ac:	62270491 	eorvs	r0, r7, #-1862270976	; 0x91000000
    33b0:	01006675 	tsteq	r0, r5, ror r6
    33b4:	000cb14c 	andeq	fp, ip, ip, asr #2
    33b8:	a8910300 	ldmge	r1, {r8, r9}
    33bc:	0070247f 	rsbseq	r2, r0, pc, ror r4
    33c0:	01074c01 	tsteq	r7, r1, lsl #24
    33c4:	083e0000 	ldmdaeq	lr!, {}	; <UNPREDICTABLE>
    33c8:	75240000 	strvc	r0, [r4, #-0]!
    33cc:	2c4d0100 	stfcse	f0, [sp], {-0}
    33d0:	f0000000 			; <UNDEFINED> instruction: 0xf0000000
    33d4:	25000008 	strcs	r0, [r0, #-8]
    33d8:	000001fa 	strdeq	r0, [r0], -sl
    33dc:	00000cd1 	ldrdeq	r0, [r0], -r1
    33e0:	954c0305 	strbls	r0, [ip, #-773]	; 0xfffffcfb
    33e4:	bc2e0000 	stclt	0, cr0, [lr], #-0
    33e8:	7c000087 	stcvc	0, cr0, [r0], {135}	; 0x87
    33ec:	3b000000 	blcc	33f4 <_start-0x4c0c>
    33f0:	2800000c 	stmdacs	r0, {r2, r3}
    33f4:	00000711 	andeq	r0, r0, r1, lsl r7
    33f8:	002c5201 	eoreq	r5, ip, r1, lsl #4
    33fc:	095b0000 	ldmdbeq	fp, {}^	; <UNPREDICTABLE>
    3400:	29000000 	stmdbcs	r0, {}	; <UNPREDICTABLE>
    3404:	00008864 	andeq	r8, r0, r4, ror #16
    3408:	00000d42 	andeq	r0, r0, r2, asr #26
    340c:	00000c4f 	andeq	r0, r0, pc, asr #24
    3410:	0251012a 	subseq	r0, r1, #-2147483638	; 0x8000000a
    3414:	2900007d 	stmdbcs	r0, {r0, r2, r3, r4, r5, r6}
    3418:	00008878 	andeq	r8, r0, r8, ror r8
    341c:	00000cd6 	ldrdeq	r0, [r0], -r6
    3420:	00000c6f 	andeq	r0, r0, pc, ror #24
    3424:	0250012a 	subseq	r0, r0, #-2147483638	; 0x8000000a
    3428:	012a0075 			; <UNDEFINED> instruction: 0x012a0075
    342c:	00740251 	rsbseq	r0, r4, r1, asr r2
    3430:	0253012a 	subseq	r0, r3, #-2147483638	; 0x8000000a
    3434:	2b00007d 	blcs	3630 <_start-0x49d0>
    3438:	000088b8 			; <UNDEFINED> instruction: 0x000088b8
    343c:	00000e52 	andeq	r0, r0, r2, asr lr
    3440:	0088cc29 	addeq	ip, r8, r9, lsr #24
    3444:	000e5d00 	andeq	r5, lr, r0, lsl #26
    3448:	000ca700 	andeq	sl, ip, r0, lsl #14
    344c:	50012a00 	andpl	r2, r1, r0, lsl #20
    3450:	95840305 	strls	r0, [r4, #773]	; 0x305
    3454:	012a0000 			; <UNDEFINED> instruction: 0x012a0000
    3458:	70030551 	andvc	r0, r3, r1, asr r5
    345c:	2a000095 	bcs	36b8 <_start-0x4948>
    3460:	03055201 	movweq	r5, #20993	; 0x5201
    3464:	0000954c 	andeq	r9, r0, ip, asr #10
    3468:	0253012a 	subseq	r0, r3, #-2147483638	; 0x8000000a
    346c:	2b007508 	blcs	20894 <__bss_end__+0x16e2c>
    3470:	000088d0 	ldrdeq	r8, [r0], -r0
    3474:	00000e68 	andeq	r0, r0, r8, ror #28
    3478:	010d0800 	tsteq	sp, r0, lsl #16
    347c:	0cc10000 	stcleq	0, cr0, [r1], {0}
    3480:	c7090000 	strgt	r0, [r9, -r0]
    3484:	3f000000 	svccc	0x00000000
    3488:	01140800 	tsteq	r4, r0, lsl #16
    348c:	0cd10000 	ldcleq	0, cr0, [r1], {0}
    3490:	c7090000 	strgt	r0, [r9, -r0]
    3494:	04000000 	streq	r0, [r0], #-0
    3498:	0cc10e00 	stcleq	14, cr0, [r1], {0}
    349c:	fb2c0000 	blx	b034a6 <__bss_end__+0xaf9a3e>
    34a0:	01000006 	tsteq	r0, r6
    34a4:	00010737 	andeq	r0, r1, r7, lsr r7
    34a8:	00871000 	addeq	r1, r7, r0
    34ac:	00004000 	andeq	r4, r0, r0
    34b0:	429c0100 	addsmi	r0, ip, #0, 2
    34b4:	2200000d 	andcs	r0, r0, #13
    34b8:	00747364 	rsbseq	r7, r4, r4, ror #6
    34bc:	01073701 	tsteq	r7, r1, lsl #14
    34c0:	09920000 	ldmibeq	r2, {}	; <UNPREDICTABLE>
    34c4:	6e220000 	cdpvs	0, 2, cr0, cr2, cr0, {0}
    34c8:	25370100 	ldrcs	r0, [r7, #-256]!	; 0xffffff00
    34cc:	ca000000 	bgt	34d4 <_start-0x4b2c>
    34d0:	22000009 	andcs	r0, r0, #9
    34d4:	37010070 	smlsdxcc	r1, r0, r0, r0
    34d8:	00000107 	andeq	r0, r0, r7, lsl #2
    34dc:	000009eb 	andeq	r0, r0, fp, ror #19
    34e0:	00061c2d 	andeq	r1, r6, sp, lsr #24
    34e4:	07370100 	ldreq	r0, [r7, -r0, lsl #2]!
    34e8:	21000001 	tstcs	r0, r1
    34ec:	2400000a 	strcs	r0, [r0], #-10
    34f0:	006e656c 	rsbeq	r6, lr, ip, ror #10
    34f4:	00253901 	eoreq	r3, r5, r1, lsl #18
    34f8:	0a3f0000 	beq	fc3500 <__bss_end__+0xfb9a98>
    34fc:	73270000 			; <UNDEFINED> instruction: 0x73270000
    3500:	073d0100 	ldreq	r0, [sp, -r0, lsl #2]!
    3504:	01000001 	tsteq	r0, r1
    3508:	702f0050 	eorvc	r0, pc, r0, asr r0	; <UNPREDICTABLE>
    350c:	01006461 	tsteq	r0, r1, ror #8
    3510:	0001072e 	andeq	r0, r1, lr, lsr #14
    3514:	0086e400 	addeq	lr, r6, r0, lsl #8
    3518:	00002c00 	andeq	r2, r0, r0, lsl #24
    351c:	929c0100 	addsls	r0, ip, #0, 2
    3520:	2200000d 	andcs	r0, r0, #13
    3524:	2e010070 	mcrcs	0, 0, r0, cr1, cr0, {3}
    3528:	00000107 	andeq	r0, r0, r7, lsl #2
    352c:	00000a9e 	muleq	r0, lr, sl
    3530:	0000bf2d 	andeq	fp, r0, sp, lsr #30
    3534:	072e0100 	streq	r0, [lr, -r0, lsl #2]!
    3538:	c9000001 	stmdbgt	r0, {r0}
    353c:	2300000a 	movwcs	r0, #10
    3540:	00000703 	andeq	r0, r0, r3, lsl #14
    3544:	00252e01 	eoreq	r2, r5, r1, lsl #28
    3548:	52010000 	andpl	r0, r1, #0
    354c:	6e656c27 	cdpvs	12, 6, cr6, cr5, cr7, {1}
    3550:	252f0100 	strcs	r0, [pc, #-256]!	; 3458 <_start-0x4ba8>
    3554:	01000000 	mrseq	r0, (UNDEF: 0)
    3558:	1f2c0051 	svcne	0x002c0051
    355c:	01000007 	tsteq	r0, r7
    3560:	00002527 	andeq	r2, r0, r7, lsr #10
    3564:	0086d000 	addeq	sp, r6, r0
    3568:	00001400 	andeq	r1, r0, r0, lsl #8
    356c:	b99c0100 	ldmiblt	ip, {r8}
    3570:	2200000d 	andcs	r0, r0, #13
    3574:	27010063 	strcs	r0, [r1, -r3, rrx]
    3578:	00000025 	andeq	r0, r0, r5, lsr #32
    357c:	00000aea 	andeq	r0, r0, sl, ror #21
    3580:	06e33000 	strbteq	r3, [r3], r0
    3584:	1f010000 	svcne	0x00010000
    3588:	000088ec 	andeq	r8, r0, ip, ror #17
    358c:	00000054 	andeq	r0, r0, r4, asr r0
    3590:	0e3d9c01 	cdpeq	12, 3, cr9, cr13, cr1, {0}
    3594:	172d0000 	strne	r0, [sp, -r0]!
    3598:	01000007 	tsteq	r0, r7
    359c:	0008981f 	andeq	r9, r8, pc, lsl r8
    35a0:	000b1800 	andeq	r1, fp, r0, lsl #16
    35a4:	07092d00 	streq	r2, [r9, -r0, lsl #26]
    35a8:	1f010000 	svcne	0x00010000
    35ac:	000008b8 			; <UNDEFINED> instruction: 0x000008b8
    35b0:	00000b39 	andeq	r0, r0, r9, lsr fp
    35b4:	0001fa25 	andeq	pc, r1, r5, lsr #20
    35b8:	000e4d00 	andeq	r4, lr, r0, lsl #26
    35bc:	54030500 	strpl	r0, [r3], #-1280	; 0xfffffb00
    35c0:	2b000095 	blcs	381c <_start-0x47e4>
    35c4:	00008914 	andeq	r8, r0, r4, lsl r9
    35c8:	00000e52 	andeq	r0, r0, r2, asr lr
    35cc:	00892829 	addeq	r2, r9, r9, lsr #16
    35d0:	000e5d00 	andeq	r5, lr, r0, lsl #26
    35d4:	000e3300 	andeq	r3, lr, r0, lsl #6
    35d8:	50012a00 	andpl	r2, r1, r0, lsl #20
    35dc:	95bc0305 	ldrls	r0, [ip, #773]!	; 0x305
    35e0:	012a0000 			; <UNDEFINED> instruction: 0x012a0000
    35e4:	70030551 	andvc	r0, r3, r1, asr r5
    35e8:	2a000095 	bcs	3844 <_start-0x47bc>
    35ec:	03055201 	movweq	r5, #20993	; 0x5201
    35f0:	00009554 	andeq	r9, r0, r4, asr r5
    35f4:	0253012a 	subseq	r0, r3, #-2147483638	; 0x8000000a
    35f8:	2b002008 	blcs	b620 <__bss_end__+0x1bb8>
    35fc:	0000892c 	andeq	r8, r0, ip, lsr #18
    3600:	00000e68 	andeq	r0, r0, r8, ror #28
    3604:	01140800 	tsteq	r4, r0, lsl #16
    3608:	0e4d0000 	cdpeq	0, 4, cr0, cr13, cr0, {0}
    360c:	c7090000 	strgt	r0, [r9, -r0]
    3610:	0e000000 	cdpeq	0, 0, cr0, cr0, cr0, {0}
    3614:	0e3d0e00 	cdpeq	14, 3, cr0, cr13, cr0, {0}
    3618:	d5310000 	ldrle	r0, [r1, #-0]!
    361c:	d5000001 	strle	r0, [r0, #-1]
    3620:	06000001 	streq	r0, [r0], -r1
    3624:	068d311e 	pkhbteq	r3, sp, lr, lsl #2
    3628:	068d0000 	streq	r0, [sp], r0
    362c:	29060000 	stmdbcs	r6, {}	; <UNPREDICTABLE>
    3630:	00028531 	andeq	r8, r2, r1, lsr r5
    3634:	00028500 	andeq	r8, r2, r0, lsl #10
    3638:	00650600 	rsbeq	r0, r5, r0, lsl #12
    363c:	0000096b 	andeq	r0, r0, fp, ror #18
    3640:	096f0004 	stmdbeq	pc!, {r2}^	; <UNPREDICTABLE>
    3644:	01040000 	mrseq	r0, (UNDEF: 4)
    3648:	000003bf 			; <UNDEFINED> instruction: 0x000003bf
    364c:	0007330c 	andeq	r3, r7, ip, lsl #6
    3650:	0006b600 	andeq	fp, r6, r0, lsl #12
    3654:	008c0000 	addeq	r0, ip, r0
    3658:	00006000 	andeq	r6, r0, r0
    365c:	0005d200 	andeq	sp, r5, r0, lsl #4
    3660:	05040200 	streq	r0, [r4, #-512]	; 0xfffffe00
    3664:	00746e69 	rsbseq	r6, r4, r9, ror #28
    3668:	00072c03 	andeq	r2, r7, r3, lsl #24
    366c:	37d80200 	ldrbcc	r0, [r8, r0, lsl #4]
    3670:	04000000 	streq	r0, [r0], #-0
    3674:	00660704 	rsbeq	r0, r6, r4, lsl #14
    3678:	37050000 	strcc	r0, [r5, -r0]
    367c:	04000000 	streq	r0, [r0], #-0
    3680:	02e30601 	rsceq	r0, r3, #1048576	; 0x100000
    3684:	01040000 	mrseq	r0, (UNDEF: 4)
    3688:	0002e108 	andeq	lr, r2, r8, lsl #2
    368c:	004a0500 	subeq	r0, sl, r0, lsl #10
    3690:	02040000 	andeq	r0, r4, #0
    3694:	0002fd05 	andeq	pc, r2, r5, lsl #26
    3698:	07020400 	streq	r0, [r2, -r0, lsl #8]
    369c:	0000020e 	andeq	r0, r0, lr, lsl #4
    36a0:	af050404 	svcge	0x00050404
    36a4:	04000000 	streq	r0, [r0], #-0
    36a8:	00610704 	rsbeq	r0, r1, r4, lsl #14
    36ac:	08040000 	stmdaeq	r4, {}	; <UNPREDICTABLE>
    36b0:	0000aa05 	andeq	sl, r0, r5, lsl #20
    36b4:	07080400 	streq	r0, [r8, -r0, lsl #8]
    36b8:	0000005c 	andeq	r0, r0, ip, asr r0
    36bc:	0002cf03 	andeq	ip, r2, r3, lsl #30
    36c0:	25070300 	strcs	r0, [r7, #-768]	; 0xfffffd00
    36c4:	03000000 	movweq	r0, #0
    36c8:	000002be 			; <UNDEFINED> instruction: 0x000002be
    36cc:	00642c04 	rsbeq	r2, r4, r4, lsl #24
    36d0:	a8030000 	stmdage	r3, {}	; <UNPREDICTABLE>
    36d4:	04000003 	streq	r0, [r0], #-3
    36d8:	00006472 	andeq	r6, r0, r2, ror r4
    36dc:	025f0600 	subseq	r0, pc, #0, 12
    36e0:	65020000 	strvs	r0, [r2, #-0]
    36e4:	00003701 	andeq	r3, r0, r1, lsl #14
    36e8:	04040700 	streq	r0, [r4], #-1792	; 0xfffff900
    36ec:	0000cca6 	andeq	ip, r0, r6, lsr #25
    36f0:	02590800 	subseq	r0, r9, #0, 16
    36f4:	a8040000 	stmdage	r4, {}	; <UNPREDICTABLE>
    36f8:	000000a1 	andeq	r0, r0, r1, lsr #1
    36fc:	0001ce08 	andeq	ip, r1, r8, lsl #28
    3700:	cca90400 	cfstrsgt	mvf0, [r9]
    3704:	00000000 	andeq	r0, r0, r0
    3708:	00004a09 	andeq	r4, r0, r9, lsl #20
    370c:	0000dc00 	andeq	sp, r0, r0, lsl #24
    3710:	00dc0a00 	sbcseq	r0, ip, r0, lsl #20
    3714:	00030000 	andeq	r0, r3, r0
    3718:	92070404 	andls	r0, r7, #4, 8	; 0x4000000
    371c:	0b000002 	bleq	372c <_start-0x48d4>
    3720:	04a30408 	strteq	r0, [r3], #1032	; 0x408
    3724:	0c000001 	stceq	0, cr0, [r0], {1}
    3728:	00000392 	muleq	r0, r2, r3
    372c:	0025a504 	eoreq	sl, r5, r4, lsl #10
    3730:	0c000000 	stceq	0, cr0, [r0], {-0}
    3734:	0000039a 	muleq	r0, sl, r3
    3738:	00adaa04 	adceq	sl, sp, r4, lsl #20
    373c:	00040000 	andeq	r0, r4, r0
    3740:	00032503 	andeq	r2, r3, r3, lsl #10
    3744:	e3ab0400 			; <UNDEFINED> instruction: 0xe3ab0400
    3748:	03000000 	movweq	r0, #0
    374c:	0000018b 	andeq	r0, r0, fp, lsl #3
    3750:	0080af04 	addeq	sl, r0, r4, lsl #30
    3754:	040d0000 	streq	r0, [sp], #-0
    3758:	0122040e 			; <UNDEFINED> instruction: 0x0122040e
    375c:	01040000 	mrseq	r0, (UNDEF: 4)
    3760:	0002ea08 	andeq	lr, r2, r8, lsl #20
    3764:	01220500 			; <UNDEFINED> instruction: 0x01220500
    3768:	3c030000 	stccc	0, cr0, [r3], {-0}
    376c:	05000004 	streq	r0, [r0, #-4]
    3770:	00006b16 	andeq	r6, r0, r6, lsl fp
    3774:	019c0f00 	orrseq	r0, ip, r0, lsl #30
    3778:	05180000 	ldreq	r0, [r8, #-0]
    377c:	00018c2d 	andeq	r8, r1, sp, lsr #24
    3780:	03460c00 	movteq	r0, #27648	; 0x6c00
    3784:	2f050000 	svccs	0x00050000
    3788:	0000018c 	andeq	r0, r0, ip, lsl #3
    378c:	6b5f1000 	blvs	17c7794 <__bss_end__+0x17bdd2c>
    3790:	25300500 	ldrcs	r0, [r0, #-1280]!	; 0xfffffb00
    3794:	04000000 	streq	r0, [r0], #-0
    3798:	00037d0c 	andeq	r7, r3, ip, lsl #26
    379c:	25300500 	ldrcs	r0, [r0, #-1280]!	; 0xfffffb00
    37a0:	08000000 	stmdaeq	r0, {}	; <UNPREDICTABLE>
    37a4:	0001850c 	andeq	r8, r1, ip, lsl #10
    37a8:	25300500 	ldrcs	r0, [r0, #-1280]!	; 0xfffffb00
    37ac:	0c000000 	stceq	0, cr0, [r0], {-0}
    37b0:	00048a0c 	andeq	r8, r4, ip, lsl #20
    37b4:	25300500 	ldrcs	r0, [r0, #-1280]!	; 0xfffffb00
    37b8:	10000000 	andne	r0, r0, r0
    37bc:	00785f10 	rsbseq	r5, r8, r0, lsl pc
    37c0:	01923105 	orrseq	r3, r2, r5, lsl #2
    37c4:	00140000 	andseq	r0, r4, r0
    37c8:	0139040e 	teqeq	r9, lr, lsl #8
    37cc:	2e090000 	cdpcs	0, 0, cr0, cr9, cr0, {0}
    37d0:	a2000001 	andge	r0, r0, #1
    37d4:	0a000001 	beq	37e0 <_start-0x4820>
    37d8:	000000dc 	ldrdeq	r0, [r0], -ip
    37dc:	c90f0000 	stmdbgt	pc, {}	; <UNPREDICTABLE>
    37e0:	24000001 	strcs	r0, [r0], #-1
    37e4:	021b3505 	andseq	r3, fp, #20971520	; 0x1400000
    37e8:	a10c0000 	mrsge	r0, (UNDEF: 12)
    37ec:	05000000 	streq	r0, [r0, #-0]
    37f0:	00002537 	andeq	r2, r0, r7, lsr r5
    37f4:	b00c0000 	andlt	r0, ip, r0
    37f8:	05000003 	streq	r0, [r0, #-3]
    37fc:	00002538 	andeq	r2, r0, r8, lsr r5
    3800:	c40c0400 	strgt	r0, [ip], #-1024	; 0xfffffc00
    3804:	05000000 	streq	r0, [r0, #-0]
    3808:	00002539 	andeq	r2, r0, r9, lsr r5
    380c:	030c0800 	movweq	r0, #51200	; 0xc800
    3810:	05000005 	streq	r0, [r0, #-5]
    3814:	0000253a 	andeq	r2, r0, sl, lsr r5
    3818:	a20c0c00 	andge	r0, ip, #0, 24
    381c:	05000002 	streq	r0, [r0, #-2]
    3820:	0000253b 	andeq	r2, r0, fp, lsr r5
    3824:	7b0c1000 	blvc	30782c <__bss_end__+0x2fddc4>
    3828:	05000002 	streq	r0, [r0, #-2]
    382c:	0000253c 	andeq	r2, r0, ip, lsr r5
    3830:	8f0c1400 	svchi	0x000c1400
    3834:	05000004 	streq	r0, [r0, #-4]
    3838:	0000253d 	andeq	r2, r0, sp, lsr r5
    383c:	070c1800 	streq	r1, [ip, -r0, lsl #16]
    3840:	05000003 	streq	r0, [r0, #-3]
    3844:	0000253e 	andeq	r2, r0, lr, lsr r5
    3848:	ca0c1c00 	bgt	30a850 <__bss_end__+0x300de8>
    384c:	05000004 	streq	r0, [r0, #-4]
    3850:	0000253f 	andeq	r2, r0, pc, lsr r5
    3854:	11002000 	mrsne	r2, (UNDEF: 0)
    3858:	00000104 	andeq	r0, r0, r4, lsl #2
    385c:	48050108 	stmdami	r5, {r3, r8}
    3860:	0000025b 	andeq	r0, r0, fp, asr r2
    3864:	0001780c 	andeq	r7, r1, ip, lsl #16
    3868:	5b490500 	blpl	1244c70 <__bss_end__+0x123b208>
    386c:	00000002 	andeq	r0, r0, r2
    3870:	0000000c 	andeq	r0, r0, ip
    3874:	5b4a0500 	blpl	1284c7c <__bss_end__+0x127b214>
    3878:	80000002 	andhi	r0, r0, r2
    387c:	00042e12 	andeq	r2, r4, r2, lsl lr
    3880:	2e4c0500 	cdpcs	5, 4, cr0, cr12, cr0, {0}
    3884:	00000001 	andeq	r0, r0, r1
    3888:	01291201 			; <UNDEFINED> instruction: 0x01291201
    388c:	4f050000 	svcmi	0x00050000
    3890:	0000012e 	andeq	r0, r0, lr, lsr #2
    3894:	09000104 	stmdbeq	r0, {r2, r8}
    3898:	0000011a 	andeq	r0, r0, sl, lsl r1
    389c:	0000026b 	andeq	r0, r0, fp, ror #4
    38a0:	0000dc0a 	andeq	sp, r0, sl, lsl #24
    38a4:	11001f00 	tstne	r0, r0, lsl #30
    38a8:	000002ab 	andeq	r0, r0, fp, lsr #5
    38ac:	5b050190 	blpl	143ef4 <__bss_end__+0x13a48c>
    38b0:	000002a9 	andeq	r0, r0, r9, lsr #5
    38b4:	0003460c 	andeq	r4, r3, ip, lsl #12
    38b8:	a95c0500 	ldmdbge	ip, {r8, sl}^
    38bc:	00000002 	andeq	r0, r0, r2
    38c0:	00035e0c 	andeq	r5, r3, ip, lsl #28
    38c4:	255d0500 	ldrbcs	r0, [sp, #-1280]	; 0xfffffb00
    38c8:	04000000 	streq	r0, [r0], #-0
    38cc:	0001800c 	andeq	r8, r1, ip
    38d0:	af5f0500 	svcge	0x005f0500
    38d4:	08000002 	stmdaeq	r0, {r1}
    38d8:	0001040c 	andeq	r0, r1, ip, lsl #8
    38dc:	1b600500 	blne	1804ce4 <__bss_end__+0x17fb27c>
    38e0:	88000002 	stmdahi	r0, {r1}
    38e4:	6b040e00 	blvs	1070ec <__bss_end__+0xfd684>
    38e8:	09000002 	stmdbeq	r0, {r1}
    38ec:	000002bf 			; <UNDEFINED> instruction: 0x000002bf
    38f0:	000002bf 			; <UNDEFINED> instruction: 0x000002bf
    38f4:	0000dc0a 	andeq	sp, r0, sl, lsl #24
    38f8:	0e001f00 	cdpeq	15, 0, cr1, cr0, cr0, {0}
    38fc:	0002c504 	andeq	ip, r2, r4, lsl #10
    3900:	110f1300 	mrsne	r1, SP_hyp
    3904:	08000003 	stmdaeq	r0, {r0, r1}
    3908:	02eb7305 	rsceq	r7, fp, #335544320	; 0x14000000
    390c:	be0c0000 	cdplt	0, 0, cr0, cr12, cr0, {0}
    3910:	05000000 	streq	r0, [r0, #-0]
    3914:	0002eb74 	andeq	lr, r2, r4, ror fp
    3918:	1b0c0000 	blne	303920 <__bss_end__+0x2f9eb8>
    391c:	05000000 	streq	r0, [r0, #-0]
    3920:	00002575 	andeq	r2, r0, r5, ror r5
    3924:	0e000400 	cfcpyseq	mvf0, mvf0
    3928:	00004a04 	andeq	r4, r0, r4, lsl #20
    392c:	03300f00 	teqeq	r0, #0, 30
    3930:	05680000 	strbeq	r0, [r8, #-0]!
    3934:	00041bb3 			; <UNDEFINED> instruction: 0x00041bb3
    3938:	705f1000 	subsvc	r1, pc, r0
    393c:	ebb40500 	bl	fed04d44 <__bss_end__+0xfecfb2dc>
    3940:	00000002 	andeq	r0, r0, r2
    3944:	00725f10 	rsbseq	r5, r2, r0, lsl pc
    3948:	0025b505 	eoreq	fp, r5, r5, lsl #10
    394c:	10040000 	andne	r0, r4, r0
    3950:	0500775f 	streq	r7, [r0, #-1887]	; 0xfffff8a1
    3954:	000025b6 			; <UNDEFINED> instruction: 0x000025b6
    3958:	220c0800 	andcs	r0, ip, #0, 16
    395c:	05000001 	streq	r0, [r0, #-1]
    3960:	000056b7 			; <UNDEFINED> instruction: 0x000056b7
    3964:	f40c0c00 			; <UNDEFINED> instruction: 0xf40c0c00
    3968:	05000001 	streq	r0, [r0, #-1]
    396c:	000056b8 			; <UNDEFINED> instruction: 0x000056b8
    3970:	5f100e00 	svcpl	0x00100e00
    3974:	05006662 	streq	r6, [r0, #-1634]	; 0xfffff99e
    3978:	0002c6b9 			; <UNDEFINED> instruction: 0x0002c6b9
    397c:	7b0c1000 	blvc	307984 <__bss_end__+0x2fdf1c>
    3980:	05000000 	streq	r0, [r0, #-0]
    3984:	000025ba 			; <UNDEFINED> instruction: 0x000025ba
    3988:	120c1800 	andne	r1, ip, #0, 16
    398c:	05000001 	streq	r0, [r0, #-1]
    3990:	00011ac1 	andeq	r1, r1, r1, asr #21
    3994:	5e0c1c00 	cdppl	12, 0, cr1, cr12, cr0, {0}
    3998:	0500000a 	streq	r0, [r0, #-10]
    399c:	000576c3 	andeq	r7, r5, r3, asr #13
    39a0:	780c2000 	stmdavc	ip, {sp}
    39a4:	0500000a 	streq	r0, [r0, #-10]
    39a8:	0005a0c5 	andeq	sl, r5, r5, asr #1
    39ac:	a20c2400 	andge	r2, ip, #0, 8
    39b0:	05000003 	streq	r0, [r0, #-3]
    39b4:	0005c4c8 	andeq	ip, r5, r8, asr #9
    39b8:	e40c2800 	str	r2, [ip], #-2048	; 0xfffff800
    39bc:	05000004 	streq	r0, [r0, #-4]
    39c0:	0005dec9 	andeq	sp, r5, r9, asr #29
    39c4:	5f102c00 	svcpl	0x00102c00
    39c8:	05006275 	streq	r6, [r0, #-629]	; 0xfffffd8b
    39cc:	0002c6cc 	andeq	ip, r2, ip, asr #13
    39d0:	5f103000 	svcpl	0x00103000
    39d4:	05007075 	streq	r7, [r0, #-117]	; 0xffffff8b
    39d8:	0002ebcd 	andeq	lr, r2, sp, asr #23
    39dc:	5f103800 	svcpl	0x00103800
    39e0:	05007275 	streq	r7, [r0, #-629]	; 0xfffffd8b
    39e4:	000025ce 	andeq	r2, r0, lr, asr #11
    39e8:	b80c3c00 	stmdalt	ip, {sl, fp, ip, sp}
    39ec:	05000000 	streq	r0, [r0, #-0]
    39f0:	0005e4d1 	ldrdeq	lr, [r5], -r1
    39f4:	bc0c4000 	stclt	0, cr4, [ip], {-0}
    39f8:	05000004 	streq	r0, [r0, #-4]
    39fc:	0005f4d2 	ldrdeq	pc, [r5], -r2
    3a00:	5f104300 	svcpl	0x00104300
    3a04:	0500626c 	streq	r6, [r0, #-620]	; 0xfffffd94
    3a08:	0002c6d5 	ldrdeq	ip, [r2], -r5
    3a0c:	400c4400 	andmi	r4, ip, r0, lsl #8
    3a10:	05000001 	streq	r0, [r0, #-1]
    3a14:	000025d8 	ldrdeq	r2, [r0], -r8
    3a18:	510c4c00 	tstpl	ip, r0, lsl #24
    3a1c:	05000001 	streq	r0, [r0, #-1]
    3a20:	00008bd9 	ldrdeq	r8, [r0], -r9
    3a24:	ff0c5000 			; <UNDEFINED> instruction: 0xff0c5000
    3a28:	05000009 	streq	r0, [r0, #-9]
    3a2c:	000439dc 	ldrdeq	r3, [r4], -ip
    3a30:	6d0c5400 	cfstrsvs	mvf5, [ip, #-0]
    3a34:	05000002 	streq	r0, [r0, #-2]
    3a38:	00010fe0 	andeq	r0, r1, r0, ror #31
    3a3c:	380c5800 	stmdacc	ip, {fp, ip, lr}
    3a40:	05000003 	streq	r0, [r0, #-3]
    3a44:	000104e2 	andeq	r0, r1, r2, ror #9
    3a48:	730c5c00 	movwvc	r5, #52224	; 0xcc00
    3a4c:	05000002 	streq	r0, [r0, #-2]
    3a50:	000025e3 	andeq	r2, r0, r3, ror #11
    3a54:	14006400 	strne	r6, [r0], #-1024	; 0xfffffc00
    3a58:	00000025 	andeq	r0, r0, r5, lsr #32
    3a5c:	00000439 	andeq	r0, r0, r9, lsr r4
    3a60:	00043915 	andeq	r3, r4, r5, lsl r9
    3a64:	011a1500 	tsteq	sl, r0, lsl #10
    3a68:	1c150000 	ldcne	0, cr0, [r5], {-0}
    3a6c:	15000001 	strne	r0, [r0, #-1]
    3a70:	00000025 	andeq	r0, r0, r5, lsr #32
    3a74:	44040e00 	strmi	r0, [r4], #-3584	; 0xfffff200
    3a78:	05000004 	streq	r0, [r0, #-4]
    3a7c:	00000439 	andeq	r0, r0, r9, lsr r4
    3a80:	00038516 	andeq	r8, r3, r6, lsl r5
    3a84:	05042800 	streq	r2, [r4, #-2048]	; 0xfffff800
    3a88:	05760238 	ldrbeq	r0, [r6, #-568]!	; 0xfffffdc8
    3a8c:	f6170000 			; <UNDEFINED> instruction: 0xf6170000
    3a90:	05000002 	streq	r0, [r0, #-2]
    3a94:	0025023a 	eoreq	r0, r5, sl, lsr r2
    3a98:	17000000 	strne	r0, [r0, -r0]
    3a9c:	00000131 	andeq	r0, r0, r1, lsr r1
    3aa0:	4b023f05 	blmi	936bc <__bss_end__+0x89c54>
    3aa4:	04000006 	streq	r0, [r0], #-6
    3aa8:	0001e417 	andeq	lr, r1, r7, lsl r4
    3aac:	023f0500 	eorseq	r0, pc, #0, 10
    3ab0:	0000064b 	andeq	r0, r0, fp, asr #12
    3ab4:	01941708 	orrseq	r1, r4, r8, lsl #14
    3ab8:	3f050000 	svccc	0x00050000
    3abc:	00064b02 	andeq	r4, r6, r2, lsl #22
    3ac0:	59170c00 	ldmdbpl	r7, {sl, fp}
    3ac4:	05000003 	streq	r0, [r0, #-3]
    3ac8:	00250241 	eoreq	r0, r5, r1, asr #4
    3acc:	17100000 	ldrne	r0, [r0, -r0]
    3ad0:	00000029 	andeq	r0, r0, r9, lsr #32
    3ad4:	2d024205 	sfmcs	f4, 4, [r2, #-20]	; 0xffffffec
    3ad8:	14000008 	strne	r0, [r0], #-8
    3adc:	00046417 	andeq	r6, r4, r7, lsl r4
    3ae0:	02440500 	subeq	r0, r4, #0, 10
    3ae4:	00000025 	andeq	r0, r0, r5, lsr #32
    3ae8:	03631730 	cmneq	r3, #48, 14	; 0xc00000
    3aec:	45050000 	strmi	r0, [r5, #-0]
    3af0:	00059a02 	andeq	r9, r5, r2, lsl #20
    3af4:	b3173400 	tstlt	r7, #0, 8
    3af8:	05000002 	streq	r0, [r0, #-2]
    3afc:	00250247 	eoreq	r0, r5, r7, asr #4
    3b00:	17380000 	ldrne	r0, [r8, -r0]!
    3b04:	00000373 	andeq	r0, r0, r3, ror r3
    3b08:	48024905 	stmdami	r2, {r0, r2, r8, fp, lr}
    3b0c:	3c000008 	stccc	0, cr0, [r0], {8}
    3b10:	00025117 	andeq	r5, r2, r7, lsl r1
    3b14:	024c0500 	subeq	r0, ip, #0, 10
    3b18:	0000018c 	andeq	r0, r0, ip, lsl #3
    3b1c:	01b31740 			; <UNDEFINED> instruction: 0x01b31740
    3b20:	4d050000 	stcmi	0, cr0, [r5, #-0]
    3b24:	00002502 	andeq	r2, r0, r2, lsl #10
    3b28:	fe174400 	cdp2	4, 1, cr4, cr7, cr0, {0}
    3b2c:	05000004 	streq	r0, [r0, #-4]
    3b30:	018c024e 	orreq	r0, ip, lr, asr #4
    3b34:	17480000 	strbne	r0, [r8, -r0]
    3b38:	000002c5 	andeq	r0, r0, r5, asr #5
    3b3c:	4e024f05 	cdpmi	15, 0, cr4, cr2, cr5, {0}
    3b40:	4c000008 	stcmi	0, cr0, [r0], {8}
    3b44:	0001ec17 	andeq	lr, r1, r7, lsl ip
    3b48:	02520500 	subseq	r0, r2, #0, 10
    3b4c:	00000025 	andeq	r0, r0, r5, lsr #32
    3b50:	01491750 	cmpeq	r9, r0, asr r7
    3b54:	53050000 	movwpl	r0, #20480	; 0x5000
    3b58:	00011c02 	andeq	r1, r1, r2, lsl #24
    3b5c:	ef175400 	svc	0x00175400
    3b60:	05000002 	streq	r0, [r0, #-2]
    3b64:	080b0276 	stmdaeq	fp, {r1, r2, r4, r5, r6, r9}
    3b68:	18580000 	ldmdane	r8, {}^	; <UNPREDICTABLE>
    3b6c:	000002ab 	andeq	r0, r0, fp, lsr #5
    3b70:	a9027a05 	stmdbge	r2, {r0, r2, r9, fp, ip, sp, lr}
    3b74:	48000002 	stmdami	r0, {r1}
    3b78:	022f1801 	eoreq	r1, pc, #65536	; 0x10000
    3b7c:	7b050000 	blvc	143b84 <__bss_end__+0x13a11c>
    3b80:	00026b02 	andeq	r6, r2, r2, lsl #22
    3b84:	18014c00 	stmdane	r1, {sl, fp, lr}
    3b88:	000004b2 			; <UNDEFINED> instruction: 0x000004b2
    3b8c:	5f027f05 	svcpl	0x00027f05
    3b90:	dc000008 	stcle	0, cr0, [r0], {8}
    3b94:	011a1802 	tsteq	sl, r2, lsl #16
    3b98:	84050000 	strhi	r0, [r5], #-0
    3b9c:	00061002 	andeq	r1, r6, r2
    3ba0:	1802e000 	stmdane	r2, {sp, lr, pc}
    3ba4:	000000ff 	strdeq	r0, [r0], -pc	; <UNPREDICTABLE>
    3ba8:	6b028505 	blvs	a4fc4 <__bss_end__+0x9b55c>
    3bac:	ec000008 	stc	0, cr0, [r0], {8}
    3bb0:	040e0002 	streq	r0, [lr], #-2
    3bb4:	0000041b 	andeq	r0, r0, fp, lsl r4
    3bb8:	00002514 	andeq	r2, r0, r4, lsl r5
    3bbc:	00059a00 	andeq	r9, r5, r0, lsl #20
    3bc0:	04391500 	ldrteq	r1, [r9], #-1280	; 0xfffffb00
    3bc4:	1a150000 	bne	543bcc <__bss_end__+0x53a164>
    3bc8:	15000001 	strne	r0, [r0, #-1]
    3bcc:	0000059a 	muleq	r0, sl, r5
    3bd0:	00002515 	andeq	r2, r0, r5, lsl r5
    3bd4:	040e0000 	streq	r0, [lr], #-0
    3bd8:	00000129 	andeq	r0, r0, r9, lsr #2
    3bdc:	057c040e 	ldrbeq	r0, [ip, #-1038]!	; 0xfffffbf2
    3be0:	96140000 	ldrls	r0, [r4], -r0
    3be4:	c4000000 	strgt	r0, [r0], #-0
    3be8:	15000005 	strne	r0, [r0, #-5]
    3bec:	00000439 	andeq	r0, r0, r9, lsr r4
    3bf0:	00011a15 	andeq	r1, r1, r5, lsl sl
    3bf4:	00961500 	addseq	r1, r6, r0, lsl #10
    3bf8:	25150000 	ldrcs	r0, [r5, #-0]
    3bfc:	00000000 	andeq	r0, r0, r0
    3c00:	05a6040e 	streq	r0, [r6, #1038]!	; 0x40e
    3c04:	25140000 	ldrcs	r0, [r4, #-0]
    3c08:	de000000 	cdple	0, 0, cr0, cr0, cr0, {0}
    3c0c:	15000005 	strne	r0, [r0, #-5]
    3c10:	00000439 	andeq	r0, r0, r9, lsr r4
    3c14:	00011a15 	andeq	r1, r1, r5, lsl sl
    3c18:	040e0000 	streq	r0, [lr], #-0
    3c1c:	000005ca 	andeq	r0, r0, sl, asr #11
    3c20:	00004a09 	andeq	r4, r0, r9, lsl #20
    3c24:	0005f400 	andeq	pc, r5, r0, lsl #8
    3c28:	00dc0a00 	sbcseq	r0, ip, r0, lsl #20
    3c2c:	00020000 	andeq	r0, r2, r0
    3c30:	00004a09 	andeq	r4, r0, r9, lsl #20
    3c34:	00060400 	andeq	r0, r6, r0, lsl #8
    3c38:	00dc0a00 	sbcseq	r0, ip, r0, lsl #20
    3c3c:	00000000 	andeq	r0, r0, r0
    3c40:	00031e06 	andeq	r1, r3, r6, lsl #28
    3c44:	011d0500 	tsteq	sp, r0, lsl #10
    3c48:	000002f1 	strdeq	r0, [r0], -r1
    3c4c:	00049919 	andeq	r9, r4, r9, lsl r9
    3c50:	21050c00 	tstcs	r5, r0, lsl #24
    3c54:	00064501 	andeq	r4, r6, r1, lsl #10
    3c58:	03461700 	movteq	r1, #26368	; 0x6700
    3c5c:	23050000 	movwcs	r0, #20480	; 0x5000
    3c60:	00064501 	andeq	r4, r6, r1, lsl #10
    3c64:	07170000 	ldreq	r0, [r7, -r0]
    3c68:	05000002 	streq	r0, [r0, #-2]
    3c6c:	00250124 	eoreq	r0, r5, r4, lsr #2
    3c70:	17040000 	strne	r0, [r4, -r0]
    3c74:	00000318 	andeq	r0, r0, r8, lsl r3
    3c78:	4b012505 	blmi	4d094 <__bss_end__+0x4362c>
    3c7c:	08000006 	stmdaeq	r0, {r1, r2}
    3c80:	10040e00 	andne	r0, r4, r0, lsl #28
    3c84:	0e000006 	cdpeq	0, 0, cr0, cr0, cr6, {0}
    3c88:	00060404 	andeq	r0, r6, r4, lsl #8
    3c8c:	00211900 	eoreq	r1, r1, r0, lsl #18
    3c90:	050e0000 	streq	r0, [lr, #-0]
    3c94:	0686013d 			; <UNDEFINED> instruction: 0x0686013d
    3c98:	8c170000 	ldchi	0, cr0, [r7], {-0}
    3c9c:	05000003 	streq	r0, [r0, #-3]
    3ca0:	0686013e 			; <UNDEFINED> instruction: 0x0686013e
    3ca4:	17000000 	strne	r0, [r0, -r0]
    3ca8:	000003b9 			; <UNDEFINED> instruction: 0x000003b9
    3cac:	86013f05 	strhi	r3, [r1], -r5, lsl #30
    3cb0:	06000006 	streq	r0, [r0], -r6
    3cb4:	00043717 	andeq	r3, r4, r7, lsl r7
    3cb8:	01400500 	cmpeq	r0, r0, lsl #10
    3cbc:	0000005d 	andeq	r0, r0, sp, asr r0
    3cc0:	5d09000c 	stcpl	0, cr0, [r9, #-48]	; 0xffffffd0
    3cc4:	96000000 	strls	r0, [r0], -r0
    3cc8:	0a000006 	beq	3ce8 <_start-0x4318>
    3ccc:	000000dc 	ldrdeq	r0, [r0], -ip
    3cd0:	d01a0002 	andsle	r0, sl, r2
    3cd4:	97025705 	strls	r5, [r2, -r5, lsl #14]
    3cd8:	17000007 	strne	r0, [r0, -r7]
    3cdc:	0000047d 	andeq	r0, r0, sp, ror r4
    3ce0:	37025905 	strcc	r5, [r2, -r5, lsl #18]
    3ce4:	00000000 	andeq	r0, r0, r0
    3ce8:	00042117 	andeq	r2, r4, r7, lsl r1
    3cec:	025a0500 	subseq	r0, sl, #0, 10
    3cf0:	0000011c 	andeq	r0, r0, ip, lsl r1
    3cf4:	02441704 	subeq	r1, r4, #4, 14	; 0x100000
    3cf8:	5b050000 	blpl	143d00 <__bss_end__+0x13a298>
    3cfc:	00079702 	andeq	r9, r7, r2, lsl #14
    3d00:	d5170800 	ldrle	r0, [r7, #-2048]	; 0xfffff800
    3d04:	05000004 	streq	r0, [r0, #-4]
    3d08:	01a2025c 			; <UNDEFINED> instruction: 0x01a2025c
    3d0c:	17240000 	strne	r0, [r4, -r0]!
    3d10:	000001a4 	andeq	r0, r0, r4, lsr #3
    3d14:	25025d05 	strcs	r5, [r2, #-3333]	; 0xfffff2fb
    3d18:	48000000 	stmdami	r0, {}	; <UNPREDICTABLE>
    3d1c:	00034117 	andeq	r4, r3, r7, lsl r1
    3d20:	025e0500 	subseq	r0, lr, #0, 10
    3d24:	00000079 	andeq	r0, r0, r9, ror r0
    3d28:	04eb1750 	strbteq	r1, [fp], #1872	; 0x750
    3d2c:	5f050000 	svcpl	0x00050000
    3d30:	00065102 	andeq	r5, r6, r2, lsl #2
    3d34:	4c175800 	ldcmi	8, cr5, [r7], {-0}
    3d38:	05000003 	streq	r0, [r0, #-3]
    3d3c:	01040260 	tsteq	r4, r0, ror #4
    3d40:	17680000 	strbne	r0, [r8, -r0]!
    3d44:	000004f0 	strdeq	r0, [r0], -r0	; <UNPREDICTABLE>
    3d48:	04026105 	streq	r6, [r2], #-261	; 0xfffffefb
    3d4c:	70000001 	andvc	r0, r0, r1
    3d50:	00009317 	andeq	r9, r0, r7, lsl r3
    3d54:	02620500 	rsbeq	r0, r2, #0, 10
    3d58:	00000104 	andeq	r0, r0, r4, lsl #2
    3d5c:	04a81778 	strteq	r1, [r8], #1912	; 0x778
    3d60:	63050000 	movwvs	r0, #20480	; 0x5000
    3d64:	0007a702 	andeq	sl, r7, r2, lsl #14
    3d68:	38178000 	ldmdacc	r7, {pc}
    3d6c:	05000002 	streq	r0, [r0, #-2]
    3d70:	07b70264 	ldreq	r0, [r7, r4, ror #4]!
    3d74:	17880000 	strne	r0, [r8, r0]
    3d78:	00000444 	andeq	r0, r0, r4, asr #8
    3d7c:	25026505 	strcs	r6, [r2, #-1285]	; 0xfffffafb
    3d80:	a0000000 	andge	r0, r0, r0
    3d84:	00016a17 	andeq	r6, r1, r7, lsl sl
    3d88:	02660500 	rsbeq	r0, r6, #0, 10
    3d8c:	00000104 	andeq	r0, r0, r4, lsl #2
    3d90:	008417a4 	addeq	r1, r4, r4, lsr #15
    3d94:	67050000 	strvs	r0, [r5, -r0]
    3d98:	00010402 	andeq	r0, r1, r2, lsl #8
    3d9c:	5917ac00 	ldmdbpl	r7, {sl, fp, sp, pc}
    3da0:	05000001 	streq	r0, [r0, #-1]
    3da4:	01040268 	tsteq	r4, r8, ror #4
    3da8:	17b40000 	ldrne	r0, [r4, r0]!
    3dac:	0000003c 	andeq	r0, r0, ip, lsr r0
    3db0:	04026905 	streq	r6, [r2], #-2309	; 0xfffff6fb
    3db4:	bc000001 	stclt	0, cr0, [r0], {1}
    3db8:	00004b17 	andeq	r4, r0, r7, lsl fp
    3dbc:	026a0500 	rsbeq	r0, sl, #0, 10
    3dc0:	00000104 	andeq	r0, r0, r4, lsl #2
    3dc4:	02f417c4 	rscseq	r1, r4, #196, 14	; 0x3100000
    3dc8:	6b050000 	blvs	143dd0 <__bss_end__+0x13a368>
    3dcc:	00002502 	andeq	r2, r0, r2, lsl #10
    3dd0:	0900cc00 	stmdbeq	r0, {sl, fp, lr, pc}
    3dd4:	00000122 	andeq	r0, r0, r2, lsr #2
    3dd8:	000007a7 	andeq	r0, r0, r7, lsr #15
    3ddc:	0000dc0a 	andeq	sp, r0, sl, lsl #24
    3de0:	09001900 	stmdbeq	r0, {r8, fp, ip}
    3de4:	00000122 	andeq	r0, r0, r2, lsr #2
    3de8:	000007b7 			; <UNDEFINED> instruction: 0x000007b7
    3dec:	0000dc0a 	andeq	sp, r0, sl, lsl #24
    3df0:	09000700 	stmdbeq	r0, {r8, r9, sl}
    3df4:	00000122 	andeq	r0, r0, r2, lsr #2
    3df8:	000007c7 	andeq	r0, r0, r7, asr #15
    3dfc:	0000dc0a 	andeq	sp, r0, sl, lsl #24
    3e00:	1a001700 	bne	9a08 <buf.4229+0x3a0>
    3e04:	027005f0 	rsbseq	r0, r0, #240, 10	; 0x3c000000
    3e08:	000007eb 	andeq	r0, r0, fp, ror #15
    3e0c:	00029b17 	andeq	r9, r2, r7, lsl fp
    3e10:	02730500 	rsbseq	r0, r3, #0, 10
    3e14:	000007eb 	andeq	r0, r0, fp, ror #15
    3e18:	049f1700 	ldreq	r1, [pc], #1792	; 3e20 <_start-0x41e0>
    3e1c:	74050000 	strvc	r0, [r5], #-0
    3e20:	0007fb02 	andeq	pc, r7, r2, lsl #22
    3e24:	09007800 	stmdbeq	r0, {fp, ip, sp, lr}
    3e28:	000002eb 	andeq	r0, r0, fp, ror #5
    3e2c:	000007fb 	strdeq	r0, [r0], -fp
    3e30:	0000dc0a 	andeq	sp, r0, sl, lsl #24
    3e34:	09001d00 	stmdbeq	r0, {r8, sl, fp, ip}
    3e38:	00000037 	andeq	r0, r0, r7, lsr r0
    3e3c:	0000080b 	andeq	r0, r0, fp, lsl #16
    3e40:	0000dc0a 	andeq	sp, r0, sl, lsl #24
    3e44:	1b001d00 	blne	b24c <__bss_end__+0x17e4>
    3e48:	025505f0 	subseq	r0, r5, #240, 10	; 0x3c000000
    3e4c:	0000082d 	andeq	r0, r0, sp, lsr #16
    3e50:	0003851c 	andeq	r8, r3, ip, lsl r5
    3e54:	026c0500 	rsbeq	r0, ip, #0, 10
    3e58:	00000696 	muleq	r0, r6, r6
    3e5c:	0004c21c 	andeq	ip, r4, ip, lsl r2
    3e60:	02750500 	rsbseq	r0, r5, #0, 10
    3e64:	000007c7 	andeq	r0, r0, r7, asr #15
    3e68:	01220900 			; <UNDEFINED> instruction: 0x01220900
    3e6c:	083d0000 	ldmdaeq	sp!, {}	; <UNPREDICTABLE>
    3e70:	dc0a0000 	stcle	0, cr0, [sl], {-0}
    3e74:	18000000 	stmdane	r0, {}	; <UNPREDICTABLE>
    3e78:	08481d00 	stmdaeq	r8, {r8, sl, fp, ip}^
    3e7c:	39150000 	ldmdbcc	r5, {}	; <UNPREDICTABLE>
    3e80:	00000004 	andeq	r0, r0, r4
    3e84:	083d040e 	ldmdaeq	sp!, {r1, r2, r3, sl}
    3e88:	040e0000 	streq	r0, [lr], #-0
    3e8c:	0000018c 	andeq	r0, r0, ip, lsl #3
    3e90:	00085f1d 	andeq	r5, r8, sp, lsl pc
    3e94:	00251500 	eoreq	r1, r5, r0, lsl #10
    3e98:	0e000000 	cdpeq	0, 0, cr0, cr0, cr0, {0}
    3e9c:	00086504 	andeq	r6, r8, r4, lsl #10
    3ea0:	54040e00 	strpl	r0, [r4], #-3584	; 0xfffff200
    3ea4:	09000008 	stmdbeq	r0, {r3}
    3ea8:	00000604 	andeq	r0, r0, r4, lsl #12
    3eac:	0000087b 	andeq	r0, r0, fp, ror r8
    3eb0:	0000dc0a 	andeq	sp, r0, sl, lsl #24
    3eb4:	1e000200 	cdpne	2, 0, cr0, cr0, cr0, {0}
    3eb8:	00000458 	andeq	r0, r0, r8, asr r4
    3ebc:	3902fd05 	stmdbcc	r2, {r0, r2, r8, sl, fp, ip, sp, lr, pc}
    3ec0:	1e000004 	cdpne	0, 0, cr0, cr0, cr4, {0}
    3ec4:	00000451 	andeq	r0, r0, r1, asr r4
    3ec8:	3f02fe05 	svccc	0x0002fe05
    3ecc:	1f000004 	svcne	0x00000004
    3ed0:	000005a3 	andeq	r0, r0, r3, lsr #11
    3ed4:	011a1706 	tsteq	sl, r6, lsl #14
    3ed8:	8c000000 	stchi	0, cr0, [r0], {-0}
    3edc:	00600000 	rsbeq	r0, r0, r0
    3ee0:	9c010000 	stcls	0, cr0, [r1], {-0}
    3ee4:	00000955 	andeq	r0, r0, r5, asr r9
    3ee8:	74736420 	ldrbtvc	r6, [r3], #-1056	; 0xfffffbe0
    3eec:	1a060100 	bne	1842f4 <__bss_end__+0x17a88c>
    3ef0:	01000001 	tsteq	r0, r1
    3ef4:	72732050 	rsbsvc	r2, r3, #80	; 0x50
    3ef8:	06010063 	streq	r0, [r1], -r3, rrx
    3efc:	00000955 	andeq	r0, r0, r5, asr r9
    3f00:	4a215101 	bmi	85830c <__bss_end__+0x84e8a4>
    3f04:	01000006 	tsteq	r0, r6
    3f08:	00002c06 	andeq	r2, r0, r6, lsl #24
    3f0c:	000b5a00 	andeq	r5, fp, r0, lsl #20
    3f10:	8c182200 	lfmhi	f2, 4, [r8], {-0}
    3f14:	00200000 	eoreq	r0, r0, r0
    3f18:	09210000 	stmdbeq	r1!, {}	; <UNPREDICTABLE>
    3f1c:	6e230000 	cdpvs	0, 2, cr0, cr3, cr0, {0}
    3f20:	370c0100 	strcc	r0, [ip, -r0, lsl #2]
    3f24:	86000000 	strhi	r0, [r0], -r0
    3f28:	2300000b 	movwcs	r0, #11
    3f2c:	0d010064 	stceq	0, cr0, [r1, #-400]	; 0xfffffe70
    3f30:	0000095c 	andeq	r0, r0, ip, asr r9
    3f34:	00000b99 	muleq	r0, r9, fp
    3f38:	01007323 	tsteq	r0, r3, lsr #6
    3f3c:	0009620e 	andeq	r6, r9, lr, lsl #4
    3f40:	000bac00 	andeq	sl, fp, r0, lsl #24
    3f44:	8c1c2400 	cfldrshi	mvf2, [ip], {-0}
    3f48:	001c0000 	andseq	r0, ip, r0
    3f4c:	69230000 	stmdbvs	r3!, {}	; <UNPREDICTABLE>
    3f50:	37100100 	ldrcc	r0, [r0, -r0, lsl #2]
    3f54:	bf000000 	svclt	0x00000000
    3f58:	0000000b 	andeq	r0, r0, fp
    3f5c:	8c382400 	cfldrshi	mvf2, [r8], #-0
    3f60:	00140000 	andseq	r0, r4, r0
    3f64:	64250000 	strtvs	r0, [r5], #-0
    3f68:	eb130100 	bl	4c4370 <__bss_end__+0x4ba908>
    3f6c:	25000002 	strcs	r0, [r0, #-2]
    3f70:	14010073 	strne	r0, [r1], #-115	; 0xffffff8d
    3f74:	00000968 	andeq	r0, r0, r8, ror #18
    3f78:	008c3824 	addeq	r3, ip, r4, lsr #16
    3f7c:	00001400 	andeq	r1, r0, r0, lsl #8
    3f80:	00692300 	rsbeq	r2, r9, r0, lsl #6
    3f84:	00371501 	eorseq	r1, r7, r1, lsl #10
    3f88:	0bde0000 	bleq	ff783f90 <__bss_end__+0xff77a528>
    3f8c:	00000000 	andeq	r0, r0, r0
    3f90:	5b040e00 	blpl	107798 <__bss_end__+0xfdd30>
    3f94:	26000009 	strcs	r0, [r0], -r9
    3f98:	0037040e 	eorseq	r0, r7, lr, lsl #8
    3f9c:	040e0000 	streq	r0, [lr], #-0
    3fa0:	0000003e 	andeq	r0, r0, lr, lsr r0
    3fa4:	0051040e 	subseq	r0, r1, lr, lsl #8
    3fa8:	4c000000 	stcmi	0, cr0, [r0], {-0}
    3fac:	04000009 	streq	r0, [r0], #-9
    3fb0:	000b5300 	andeq	r5, fp, r0, lsl #6
    3fb4:	bf010400 	svclt	0x00010400
    3fb8:	0c000003 	stceq	0, cr0, [r0], {3}
    3fbc:	00000741 	andeq	r0, r0, r1, asr #14
    3fc0:	000006b6 			; <UNDEFINED> instruction: 0x000006b6
    3fc4:	00008c60 	andeq	r8, r0, r0, ror #24
    3fc8:	000000e8 	andeq	r0, r0, r8, ror #1
    3fcc:	000006cd 	andeq	r0, r0, sp, asr #13
    3fd0:	69050402 	stmdbvs	r5, {r1, sl}
    3fd4:	0300746e 	movweq	r7, #1134	; 0x46e
    3fd8:	00660704 	rsbeq	r0, r6, r4, lsl #14
    3fdc:	01030000 	mrseq	r0, (UNDEF: 3)
    3fe0:	0002e306 	andeq	lr, r2, r6, lsl #6
    3fe4:	05020300 	streq	r0, [r2, #-768]	; 0xfffffd00
    3fe8:	000002fd 	strdeq	r0, [r0], -sp
    3fec:	af050403 	svcge	0x00050403
    3ff0:	03000000 	movweq	r0, #0
    3ff4:	00aa0508 	adceq	r0, sl, r8, lsl #10
    3ff8:	51040000 	mrspl	r0, (UNDEF: 4)
    3ffc:	02000006 	andeq	r0, r0, #6
    4000:	00005a2e 	andeq	r5, r0, lr, lsr #20
    4004:	08010300 	stmdaeq	r1, {r8, r9}
    4008:	000002e1 	andeq	r0, r0, r1, ror #5
    400c:	0e070203 	cdpeq	2, 0, cr0, cr7, cr3, {0}
    4010:	04000002 	streq	r0, [r0], #-2
    4014:	0000060e 	andeq	r0, r0, lr, lsl #12
    4018:	00733402 	rsbseq	r3, r3, r2, lsl #8
    401c:	04030000 	streq	r0, [r3], #-0
    4020:	00006107 	andeq	r6, r0, r7, lsl #2
    4024:	07080300 	streq	r0, [r8, -r0, lsl #6]
    4028:	0000005c 	andeq	r0, r0, ip, asr r0
    402c:	0002cf04 	andeq	ip, r2, r4, lsl #30
    4030:	25070300 	strcs	r0, [r7, #-768]	; 0xfffffd00
    4034:	04000000 	streq	r0, [r0], #-0
    4038:	000002be 			; <UNDEFINED> instruction: 0x000002be
    403c:	00412c04 	subeq	r2, r1, r4, lsl #24
    4040:	a8040000 	stmdage	r4, {}	; <UNPREDICTABLE>
    4044:	04000003 	streq	r0, [r0], #-3
    4048:	00004172 	andeq	r4, r0, r2, ror r1
    404c:	025f0500 	subseq	r0, pc, #0, 10
    4050:	65050000 	strvs	r0, [r5, #-0]
    4054:	00002c01 	andeq	r2, r0, r1, lsl #24
    4058:	04040600 	streq	r0, [r4], #-1536	; 0xfffffa00
    405c:	0000cda6 	andeq	ip, r0, r6, lsr #27
    4060:	02590700 	subseq	r0, r9, #0, 14
    4064:	a8040000 	stmdage	r4, {}	; <UNPREDICTABLE>
    4068:	000000a2 	andeq	r0, r0, r2, lsr #1
    406c:	0001ce07 	andeq	ip, r1, r7, lsl #28
    4070:	cda90400 	cfstrsgt	mvf0, [r9]
    4074:	00000000 	andeq	r0, r0, r0
    4078:	00005a08 	andeq	r5, r0, r8, lsl #20
    407c:	0000dd00 	andeq	sp, r0, r0, lsl #26
    4080:	00dd0900 	sbcseq	r0, sp, r0, lsl #18
    4084:	00030000 	andeq	r0, r3, r0
    4088:	92070403 	andls	r0, r7, #50331648	; 0x3000000
    408c:	0a000002 	beq	409c <_start-0x3f64>
    4090:	05a30408 	streq	r0, [r3, #1032]!	; 0x408
    4094:	0b000001 	bleq	40a0 <_start-0x3f60>
    4098:	00000392 	muleq	r0, r2, r3
    409c:	0025a504 	eoreq	sl, r5, r4, lsl #10
    40a0:	0b000000 	bleq	40a8 <_start-0x3f58>
    40a4:	0000039a 	muleq	r0, sl, r3
    40a8:	00aeaa04 	adceq	sl, lr, r4, lsl #20
    40ac:	00040000 	andeq	r0, r4, r0
    40b0:	00032504 	andeq	r2, r3, r4, lsl #10
    40b4:	e4ab0400 	strt	r0, [fp], #1024	; 0x400
    40b8:	04000000 	streq	r0, [r0], #-0
    40bc:	0000018b 	andeq	r0, r0, fp, lsl #3
    40c0:	0081af04 	addeq	sl, r1, r4, lsl #30
    40c4:	040c0000 	streq	r0, [ip], #-0
    40c8:	0123040d 			; <UNDEFINED> instruction: 0x0123040d
    40cc:	01030000 	mrseq	r0, (UNDEF: 3)
    40d0:	0002ea08 	andeq	lr, r2, r8, lsl #20
    40d4:	01230e00 			; <UNDEFINED> instruction: 0x01230e00
    40d8:	3c040000 	stccc	0, cr0, [r4], {-0}
    40dc:	06000004 	streq	r0, [r0], -r4
    40e0:	00007316 	andeq	r7, r0, r6, lsl r3
    40e4:	019c0f00 	orrseq	r0, ip, r0, lsl #30
    40e8:	06180000 	ldreq	r0, [r8], -r0
    40ec:	00018d2d 	andeq	r8, r1, sp, lsr #26
    40f0:	03460b00 	movteq	r0, #27392	; 0x6b00
    40f4:	2f060000 	svccs	0x00060000
    40f8:	0000018d 	andeq	r0, r0, sp, lsl #3
    40fc:	6b5f1000 	blvs	17c8104 <__bss_end__+0x17be69c>
    4100:	25300600 	ldrcs	r0, [r0, #-1536]!	; 0xfffffa00
    4104:	04000000 	streq	r0, [r0], #-0
    4108:	00037d0b 	andeq	r7, r3, fp, lsl #26
    410c:	25300600 	ldrcs	r0, [r0, #-1536]!	; 0xfffffa00
    4110:	08000000 	stmdaeq	r0, {}	; <UNPREDICTABLE>
    4114:	0001850b 	andeq	r8, r1, fp, lsl #10
    4118:	25300600 	ldrcs	r0, [r0, #-1536]!	; 0xfffffa00
    411c:	0c000000 	stceq	0, cr0, [r0], {-0}
    4120:	00048a0b 	andeq	r8, r4, fp, lsl #20
    4124:	25300600 	ldrcs	r0, [r0, #-1536]!	; 0xfffffa00
    4128:	10000000 	andne	r0, r0, r0
    412c:	00785f10 	rsbseq	r5, r8, r0, lsl pc
    4130:	01933106 	orrseq	r3, r3, r6, lsl #2
    4134:	00140000 	andseq	r0, r4, r0
    4138:	013a040d 	teqeq	sl, sp, lsl #8
    413c:	2f080000 	svccs	0x00080000
    4140:	a3000001 	movwge	r0, #1
    4144:	09000001 	stmdbeq	r0, {r0}
    4148:	000000dd 	ldrdeq	r0, [r0], -sp
    414c:	c90f0000 	stmdbgt	pc, {}	; <UNPREDICTABLE>
    4150:	24000001 	strcs	r0, [r0], #-1
    4154:	021c3506 	andseq	r3, ip, #25165824	; 0x1800000
    4158:	a10b0000 	mrsge	r0, (UNDEF: 11)
    415c:	06000000 	streq	r0, [r0], -r0
    4160:	00002537 	andeq	r2, r0, r7, lsr r5
    4164:	b00b0000 	andlt	r0, fp, r0
    4168:	06000003 	streq	r0, [r0], -r3
    416c:	00002538 	andeq	r2, r0, r8, lsr r5
    4170:	c40b0400 	strgt	r0, [fp], #-1024	; 0xfffffc00
    4174:	06000000 	streq	r0, [r0], -r0
    4178:	00002539 	andeq	r2, r0, r9, lsr r5
    417c:	030b0800 	movweq	r0, #47104	; 0xb800
    4180:	06000005 	streq	r0, [r0], -r5
    4184:	0000253a 	andeq	r2, r0, sl, lsr r5
    4188:	a20b0c00 	andge	r0, fp, #0, 24
    418c:	06000002 	streq	r0, [r0], -r2
    4190:	0000253b 	andeq	r2, r0, fp, lsr r5
    4194:	7b0b1000 	blvc	2c819c <__bss_end__+0x2be734>
    4198:	06000002 	streq	r0, [r0], -r2
    419c:	0000253c 	andeq	r2, r0, ip, lsr r5
    41a0:	8f0b1400 	svchi	0x000b1400
    41a4:	06000004 	streq	r0, [r0], -r4
    41a8:	0000253d 	andeq	r2, r0, sp, lsr r5
    41ac:	070b1800 	streq	r1, [fp, -r0, lsl #16]
    41b0:	06000003 	streq	r0, [r0], -r3
    41b4:	0000253e 	andeq	r2, r0, lr, lsr r5
    41b8:	ca0b1c00 	bgt	2cb1c0 <__bss_end__+0x2c1758>
    41bc:	06000004 	streq	r0, [r0], -r4
    41c0:	0000253f 	andeq	r2, r0, pc, lsr r5
    41c4:	11002000 	mrsne	r2, (UNDEF: 0)
    41c8:	00000104 	andeq	r0, r0, r4, lsl #2
    41cc:	48060108 	stmdami	r6, {r3, r8}
    41d0:	0000025c 	andeq	r0, r0, ip, asr r2
    41d4:	0001780b 	andeq	r7, r1, fp, lsl #16
    41d8:	5c490600 	mcrrpl	6, 0, r0, r9, cr0
    41dc:	00000002 	andeq	r0, r0, r2
    41e0:	0000000b 	andeq	r0, r0, fp
    41e4:	5c4a0600 	mcrrpl	6, 0, r0, sl, cr0
    41e8:	80000002 	andhi	r0, r0, r2
    41ec:	00042e12 	andeq	r2, r4, r2, lsl lr
    41f0:	2f4c0600 	svccs	0x004c0600
    41f4:	00000001 	andeq	r0, r0, r1
    41f8:	01291201 			; <UNDEFINED> instruction: 0x01291201
    41fc:	4f060000 	svcmi	0x00060000
    4200:	0000012f 	andeq	r0, r0, pc, lsr #2
    4204:	08000104 	stmdaeq	r0, {r2, r8}
    4208:	0000011b 	andeq	r0, r0, fp, lsl r1
    420c:	0000026c 	andeq	r0, r0, ip, ror #4
    4210:	0000dd09 	andeq	sp, r0, r9, lsl #26
    4214:	11001f00 	tstne	r0, r0, lsl #30
    4218:	000002ab 	andeq	r0, r0, fp, lsr #5
    421c:	5b060190 	blpl	184864 <__bss_end__+0x17adfc>
    4220:	000002aa 	andeq	r0, r0, sl, lsr #5
    4224:	0003460b 	andeq	r4, r3, fp, lsl #12
    4228:	aa5c0600 	bge	1705a30 <__bss_end__+0x16fbfc8>
    422c:	00000002 	andeq	r0, r0, r2
    4230:	00035e0b 	andeq	r5, r3, fp, lsl #28
    4234:	255d0600 	ldrbcs	r0, [sp, #-1536]	; 0xfffffa00
    4238:	04000000 	streq	r0, [r0], #-0
    423c:	0001800b 	andeq	r8, r1, fp
    4240:	b05f0600 	subslt	r0, pc, r0, lsl #12
    4244:	08000002 	stmdaeq	r0, {r1}
    4248:	0001040b 	andeq	r0, r1, fp, lsl #8
    424c:	1c600600 	stclne	6, cr0, [r0], #-0
    4250:	88000002 	stmdahi	r0, {r1}
    4254:	6c040d00 	stcvs	13, cr0, [r4], {-0}
    4258:	08000002 	stmdaeq	r0, {r1}
    425c:	000002c0 	andeq	r0, r0, r0, asr #5
    4260:	000002c0 	andeq	r0, r0, r0, asr #5
    4264:	0000dd09 	andeq	sp, r0, r9, lsl #26
    4268:	0d001f00 	stceq	15, cr1, [r0, #-0]
    426c:	0002c604 	andeq	ip, r2, r4, lsl #12
    4270:	110f1300 	mrsne	r1, SP_hyp
    4274:	08000003 	stmdaeq	r0, {r0, r1}
    4278:	02ec7306 	rsceq	r7, ip, #402653184	; 0x18000000
    427c:	be0b0000 	cdplt	0, 0, cr0, cr11, cr0, {0}
    4280:	06000000 	streq	r0, [r0], -r0
    4284:	0002ec74 	andeq	lr, r2, r4, ror ip
    4288:	1b0b0000 	blne	2c4290 <__bss_end__+0x2ba828>
    428c:	06000000 	streq	r0, [r0], -r0
    4290:	00002575 	andeq	r2, r0, r5, ror r5
    4294:	0d000400 	cfstrseq	mvf0, [r0, #-0]
    4298:	00005a04 	andeq	r5, r0, r4, lsl #20
    429c:	03300f00 	teqeq	r0, #0, 30
    42a0:	06680000 	strbteq	r0, [r8], -r0
    42a4:	00041cb3 			; <UNDEFINED> instruction: 0x00041cb3
    42a8:	705f1000 	subsvc	r1, pc, r0
    42ac:	ecb40600 	ldc	6, cr0, [r4]
    42b0:	00000002 	andeq	r0, r0, r2
    42b4:	00725f10 	rsbseq	r5, r2, r0, lsl pc
    42b8:	0025b506 	eoreq	fp, r5, r6, lsl #10
    42bc:	10040000 	andne	r0, r4, r0
    42c0:	0600775f 			; <UNDEFINED> instruction: 0x0600775f
    42c4:	000025b6 			; <UNDEFINED> instruction: 0x000025b6
    42c8:	220b0800 	andcs	r0, fp, #0, 16
    42cc:	06000001 	streq	r0, [r0], -r1
    42d0:	00003ab7 			; <UNDEFINED> instruction: 0x00003ab7
    42d4:	f40b0c00 			; <UNDEFINED> instruction: 0xf40b0c00
    42d8:	06000001 	streq	r0, [r0], -r1
    42dc:	00003ab8 			; <UNDEFINED> instruction: 0x00003ab8
    42e0:	5f100e00 	svcpl	0x00100e00
    42e4:	06006662 	streq	r6, [r0], -r2, ror #12
    42e8:	0002c7b9 			; <UNDEFINED> instruction: 0x0002c7b9
    42ec:	7b0b1000 	blvc	2c82f4 <__bss_end__+0x2be88c>
    42f0:	06000000 	streq	r0, [r0], -r0
    42f4:	000025ba 			; <UNDEFINED> instruction: 0x000025ba
    42f8:	120b1800 	andne	r1, fp, #0, 16
    42fc:	06000001 	streq	r0, [r0], -r1
    4300:	00011bc1 	andeq	r1, r1, r1, asr #23
    4304:	5e0b1c00 	cdppl	12, 0, cr1, cr11, cr0, {0}
    4308:	0600000a 	streq	r0, [r0], -sl
    430c:	000577c3 	andeq	r7, r5, r3, asr #15
    4310:	780b2000 	stmdavc	fp, {sp}
    4314:	0600000a 	streq	r0, [r0], -sl
    4318:	0005a1c5 	andeq	sl, r5, r5, asr #3
    431c:	a20b2400 	andge	r2, fp, #0, 8
    4320:	06000003 	streq	r0, [r0], -r3
    4324:	0005c5c8 	andeq	ip, r5, r8, asr #11
    4328:	e40b2800 	str	r2, [fp], #-2048	; 0xfffff800
    432c:	06000004 	streq	r0, [r0], -r4
    4330:	0005dfc9 	andeq	sp, r5, r9, asr #31
    4334:	5f102c00 	svcpl	0x00102c00
    4338:	06006275 			; <UNDEFINED> instruction: 0x06006275
    433c:	0002c7cc 	andeq	ip, r2, ip, asr #15
    4340:	5f103000 	svcpl	0x00103000
    4344:	06007075 			; <UNDEFINED> instruction: 0x06007075
    4348:	0002eccd 	andeq	lr, r2, sp, asr #25
    434c:	5f103800 	svcpl	0x00103800
    4350:	06007275 			; <UNDEFINED> instruction: 0x06007275
    4354:	000025ce 	andeq	r2, r0, lr, asr #11
    4358:	b80b3c00 	stmdalt	fp, {sl, fp, ip, sp}
    435c:	06000000 	streq	r0, [r0], -r0
    4360:	0005e5d1 	ldrdeq	lr, [r5], -r1
    4364:	bc0b4000 	stclt	0, cr4, [fp], {-0}
    4368:	06000004 	streq	r0, [r0], -r4
    436c:	0005f5d2 	ldrdeq	pc, [r5], -r2
    4370:	5f104300 	svcpl	0x00104300
    4374:	0600626c 	streq	r6, [r0], -ip, ror #4
    4378:	0002c7d5 	ldrdeq	ip, [r2], -r5
    437c:	400b4400 	andmi	r4, fp, r0, lsl #8
    4380:	06000001 	streq	r0, [r0], -r1
    4384:	000025d8 	ldrdeq	r2, [r0], -r8
    4388:	510b4c00 	tstpl	fp, r0, lsl #24
    438c:	06000001 	streq	r0, [r0], -r1
    4390:	00008cd9 	ldrdeq	r8, [r0], -r9
    4394:	ff0b5000 			; <UNDEFINED> instruction: 0xff0b5000
    4398:	06000009 	streq	r0, [r0], -r9
    439c:	00043adc 	ldrdeq	r3, [r4], -ip
    43a0:	6d0b5400 	cfstrsvs	mvf5, [fp, #-0]
    43a4:	06000002 	streq	r0, [r0], -r2
    43a8:	000110e0 	andeq	r1, r1, r0, ror #1
    43ac:	380b5800 	stmdacc	fp, {fp, ip, lr}
    43b0:	06000003 	streq	r0, [r0], -r3
    43b4:	000105e2 	andeq	r0, r1, r2, ror #11
    43b8:	730b5c00 	movwvc	r5, #48128	; 0xbc00
    43bc:	06000002 	streq	r0, [r0], -r2
    43c0:	000025e3 	andeq	r2, r0, r3, ror #11
    43c4:	14006400 	strne	r6, [r0], #-1024	; 0xfffffc00
    43c8:	00000025 	andeq	r0, r0, r5, lsr #32
    43cc:	0000043a 	andeq	r0, r0, sl, lsr r4
    43d0:	00043a15 	andeq	r3, r4, r5, lsl sl
    43d4:	011b1500 	tsteq	fp, r0, lsl #10
    43d8:	1d150000 	ldcne	0, cr0, [r5, #-0]
    43dc:	15000001 	strne	r0, [r0, #-1]
    43e0:	00000025 	andeq	r0, r0, r5, lsr #32
    43e4:	45040d00 	strmi	r0, [r4, #-3328]	; 0xfffff300
    43e8:	0e000004 	cdpeq	0, 0, cr0, cr0, cr4, {0}
    43ec:	0000043a 	andeq	r0, r0, sl, lsr r4
    43f0:	00038516 	andeq	r8, r3, r6, lsl r5
    43f4:	06042800 	streq	r2, [r4], -r0, lsl #16
    43f8:	05770238 	ldrbeq	r0, [r7, #-568]!	; 0xfffffdc8
    43fc:	f6170000 			; <UNDEFINED> instruction: 0xf6170000
    4400:	06000002 	streq	r0, [r0], -r2
    4404:	0025023a 	eoreq	r0, r5, sl, lsr r2
    4408:	17000000 	strne	r0, [r0, -r0]
    440c:	00000131 	andeq	r0, r0, r1, lsr r1
    4410:	4c023f06 	stcmi	15, cr3, [r2], {6}
    4414:	04000006 	streq	r0, [r0], #-6
    4418:	0001e417 	andeq	lr, r1, r7, lsl r4
    441c:	023f0600 	eorseq	r0, pc, #0, 12
    4420:	0000064c 	andeq	r0, r0, ip, asr #12
    4424:	01941708 	orrseq	r1, r4, r8, lsl #14
    4428:	3f060000 	svccc	0x00060000
    442c:	00064c02 	andeq	r4, r6, r2, lsl #24
    4430:	59170c00 	ldmdbpl	r7, {sl, fp}
    4434:	06000003 	streq	r0, [r0], -r3
    4438:	00250241 	eoreq	r0, r5, r1, asr #4
    443c:	17100000 	ldrne	r0, [r0, -r0]
    4440:	00000029 	andeq	r0, r0, r9, lsr #32
    4444:	2e024206 	cdpcs	2, 0, cr4, cr2, cr6, {0}
    4448:	14000008 	strne	r0, [r0], #-8
    444c:	00046417 	andeq	r6, r4, r7, lsl r4
    4450:	02440600 	subeq	r0, r4, #0, 12
    4454:	00000025 	andeq	r0, r0, r5, lsr #32
    4458:	03631730 	cmneq	r3, #48, 14	; 0xc00000
    445c:	45060000 	strmi	r0, [r6, #-0]
    4460:	00059b02 	andeq	r9, r5, r2, lsl #22
    4464:	b3173400 	tstlt	r7, #0, 8
    4468:	06000002 	streq	r0, [r0], -r2
    446c:	00250247 	eoreq	r0, r5, r7, asr #4
    4470:	17380000 	ldrne	r0, [r8, -r0]!
    4474:	00000373 	andeq	r0, r0, r3, ror r3
    4478:	49024906 	stmdbmi	r2, {r1, r2, r8, fp, lr}
    447c:	3c000008 	stccc	0, cr0, [r0], {8}
    4480:	00025117 	andeq	r5, r2, r7, lsl r1
    4484:	024c0600 	subeq	r0, ip, #0, 12
    4488:	0000018d 	andeq	r0, r0, sp, lsl #3
    448c:	01b31740 			; <UNDEFINED> instruction: 0x01b31740
    4490:	4d060000 	stcmi	0, cr0, [r6, #-0]
    4494:	00002502 	andeq	r2, r0, r2, lsl #10
    4498:	fe174400 	cdp2	4, 1, cr4, cr7, cr0, {0}
    449c:	06000004 	streq	r0, [r0], -r4
    44a0:	018d024e 	orreq	r0, sp, lr, asr #4
    44a4:	17480000 	strbne	r0, [r8, -r0]
    44a8:	000002c5 	andeq	r0, r0, r5, asr #5
    44ac:	4f024f06 	svcmi	0x00024f06
    44b0:	4c000008 	stcmi	0, cr0, [r0], {8}
    44b4:	0001ec17 	andeq	lr, r1, r7, lsl ip
    44b8:	02520600 	subseq	r0, r2, #0, 12
    44bc:	00000025 	andeq	r0, r0, r5, lsr #32
    44c0:	01491750 	cmpeq	r9, r0, asr r7
    44c4:	53060000 	movwpl	r0, #24576	; 0x6000
    44c8:	00011d02 	andeq	r1, r1, r2, lsl #26
    44cc:	ef175400 	svc	0x00175400
    44d0:	06000002 	streq	r0, [r0], -r2
    44d4:	080c0276 	stmdaeq	ip, {r1, r2, r4, r5, r6, r9}
    44d8:	18580000 	ldmdane	r8, {}^	; <UNPREDICTABLE>
    44dc:	000002ab 	andeq	r0, r0, fp, lsr #5
    44e0:	aa027a06 	bge	a2d00 <__bss_end__+0x99298>
    44e4:	48000002 	stmdami	r0, {r1}
    44e8:	022f1801 	eoreq	r1, pc, #65536	; 0x10000
    44ec:	7b060000 	blvc	1844f4 <__bss_end__+0x17aa8c>
    44f0:	00026c02 	andeq	r6, r2, r2, lsl #24
    44f4:	18014c00 	stmdane	r1, {sl, fp, lr}
    44f8:	000004b2 			; <UNDEFINED> instruction: 0x000004b2
    44fc:	60027f06 	andvs	r7, r2, r6, lsl #30
    4500:	dc000008 	stcle	0, cr0, [r0], {8}
    4504:	011a1802 	tsteq	sl, r2, lsl #16
    4508:	84060000 	strhi	r0, [r6], #-0
    450c:	00061102 	andeq	r1, r6, r2, lsl #2
    4510:	1802e000 	stmdane	r2, {sp, lr, pc}
    4514:	000000ff 	strdeq	r0, [r0], -pc	; <UNPREDICTABLE>
    4518:	6c028506 	cfstr32vs	mvfx8, [r2], {6}
    451c:	ec000008 	stc	0, cr0, [r0], {8}
    4520:	040d0002 	streq	r0, [sp], #-2
    4524:	0000041c 	andeq	r0, r0, ip, lsl r4
    4528:	00002514 	andeq	r2, r0, r4, lsl r5
    452c:	00059b00 	andeq	r9, r5, r0, lsl #22
    4530:	043a1500 	ldrteq	r1, [sl], #-1280	; 0xfffffb00
    4534:	1b150000 	blne	54453c <__bss_end__+0x53aad4>
    4538:	15000001 	strne	r0, [r0, #-1]
    453c:	0000059b 	muleq	r0, fp, r5
    4540:	00002515 	andeq	r2, r0, r5, lsl r5
    4544:	040d0000 	streq	r0, [sp], #-0
    4548:	0000012a 	andeq	r0, r0, sl, lsr #2
    454c:	057d040d 	ldrbeq	r0, [sp, #-1037]!	; 0xfffffbf3
    4550:	97140000 	ldrls	r0, [r4, -r0]
    4554:	c5000000 	strgt	r0, [r0, #-0]
    4558:	15000005 	strne	r0, [r0, #-5]
    455c:	0000043a 	andeq	r0, r0, sl, lsr r4
    4560:	00011b15 	andeq	r1, r1, r5, lsl fp
    4564:	00971500 	addseq	r1, r7, r0, lsl #10
    4568:	25150000 	ldrcs	r0, [r5, #-0]
    456c:	00000000 	andeq	r0, r0, r0
    4570:	05a7040d 	streq	r0, [r7, #1037]!	; 0x40d
    4574:	25140000 	ldrcs	r0, [r4, #-0]
    4578:	df000000 	svcle	0x00000000
    457c:	15000005 	strne	r0, [r0, #-5]
    4580:	0000043a 	andeq	r0, r0, sl, lsr r4
    4584:	00011b15 	andeq	r1, r1, r5, lsl fp
    4588:	040d0000 	streq	r0, [sp], #-0
    458c:	000005cb 	andeq	r0, r0, fp, asr #11
    4590:	00005a08 	andeq	r5, r0, r8, lsl #20
    4594:	0005f500 	andeq	pc, r5, r0, lsl #10
    4598:	00dd0900 	sbcseq	r0, sp, r0, lsl #18
    459c:	00020000 	andeq	r0, r2, r0
    45a0:	00005a08 	andeq	r5, r0, r8, lsl #20
    45a4:	00060500 	andeq	r0, r6, r0, lsl #10
    45a8:	00dd0900 	sbcseq	r0, sp, r0, lsl #18
    45ac:	00000000 	andeq	r0, r0, r0
    45b0:	00031e05 	andeq	r1, r3, r5, lsl #28
    45b4:	011d0600 	tsteq	sp, r0, lsl #12
    45b8:	000002f2 	strdeq	r0, [r0], -r2
    45bc:	00049919 	andeq	r9, r4, r9, lsl r9
    45c0:	21060c00 	tstcs	r6, r0, lsl #24
    45c4:	00064601 	andeq	r4, r6, r1, lsl #12
    45c8:	03461700 	movteq	r1, #26368	; 0x6700
    45cc:	23060000 	movwcs	r0, #24576	; 0x6000
    45d0:	00064601 	andeq	r4, r6, r1, lsl #12
    45d4:	07170000 	ldreq	r0, [r7, -r0]
    45d8:	06000002 	streq	r0, [r0], -r2
    45dc:	00250124 	eoreq	r0, r5, r4, lsr #2
    45e0:	17040000 	strne	r0, [r4, -r0]
    45e4:	00000318 	andeq	r0, r0, r8, lsl r3
    45e8:	4c012506 	cfstr32mi	mvfx2, [r1], {6}
    45ec:	08000006 	stmdaeq	r0, {r1, r2}
    45f0:	11040d00 	tstne	r4, r0, lsl #26
    45f4:	0d000006 	stceq	0, cr0, [r0, #-24]	; 0xffffffe8
    45f8:	00060504 	andeq	r0, r6, r4, lsl #10
    45fc:	00211900 	eoreq	r1, r1, r0, lsl #18
    4600:	060e0000 	streq	r0, [lr], -r0
    4604:	0687013d 			; <UNDEFINED> instruction: 0x0687013d
    4608:	8c170000 	ldchi	0, cr0, [r7], {-0}
    460c:	06000003 	streq	r0, [r0], -r3
    4610:	0687013e 			; <UNDEFINED> instruction: 0x0687013e
    4614:	17000000 	strne	r0, [r0, -r0]
    4618:	000003b9 			; <UNDEFINED> instruction: 0x000003b9
    461c:	87013f06 	strhi	r3, [r1, -r6, lsl #30]
    4620:	06000006 	streq	r0, [r0], -r6
    4624:	00043717 	andeq	r3, r4, r7, lsl r7
    4628:	01400600 	cmpeq	r0, r0, lsl #12
    462c:	00000061 	andeq	r0, r0, r1, rrx
    4630:	6108000c 	tstvs	r8, ip
    4634:	97000000 	strls	r0, [r0, -r0]
    4638:	09000006 	stmdbeq	r0, {r1, r2}
    463c:	000000dd 	ldrdeq	r0, [r0], -sp
    4640:	d01a0002 	andsle	r0, sl, r2
    4644:	98025706 	stmdals	r2, {r1, r2, r8, r9, sl, ip, lr}
    4648:	17000007 	strne	r0, [r0, -r7]
    464c:	0000047d 	andeq	r0, r0, sp, ror r4
    4650:	2c025906 			; <UNDEFINED> instruction: 0x2c025906
    4654:	00000000 	andeq	r0, r0, r0
    4658:	00042117 	andeq	r2, r4, r7, lsl r1
    465c:	025a0600 	subseq	r0, sl, #0, 12
    4660:	0000011d 	andeq	r0, r0, sp, lsl r1
    4664:	02441704 	subeq	r1, r4, #4, 14	; 0x100000
    4668:	5b060000 	blpl	184670 <__bss_end__+0x17ac08>
    466c:	00079802 	andeq	r9, r7, r2, lsl #16
    4670:	d5170800 	ldrle	r0, [r7, #-2048]	; 0xfffff800
    4674:	06000004 	streq	r0, [r0], -r4
    4678:	01a3025c 			; <UNDEFINED> instruction: 0x01a3025c
    467c:	17240000 	strne	r0, [r4, -r0]!
    4680:	000001a4 	andeq	r0, r0, r4, lsr #3
    4684:	25025d06 	strcs	r5, [r2, #-3334]	; 0xfffff2fa
    4688:	48000000 	stmdami	r0, {}	; <UNPREDICTABLE>
    468c:	00034117 	andeq	r4, r3, r7, lsl r1
    4690:	025e0600 	subseq	r0, lr, #0, 12
    4694:	0000007a 	andeq	r0, r0, sl, ror r0
    4698:	04eb1750 	strbteq	r1, [fp], #1872	; 0x750
    469c:	5f060000 	svcpl	0x00060000
    46a0:	00065202 	andeq	r5, r6, r2, lsl #4
    46a4:	4c175800 	ldcmi	8, cr5, [r7], {-0}
    46a8:	06000003 	streq	r0, [r0], -r3
    46ac:	01050260 	tsteq	r5, r0, ror #4
    46b0:	17680000 	strbne	r0, [r8, -r0]!
    46b4:	000004f0 	strdeq	r0, [r0], -r0	; <UNPREDICTABLE>
    46b8:	05026106 	streq	r6, [r2, #-262]	; 0xfffffefa
    46bc:	70000001 	andvc	r0, r0, r1
    46c0:	00009317 	andeq	r9, r0, r7, lsl r3
    46c4:	02620600 	rsbeq	r0, r2, #0, 12
    46c8:	00000105 	andeq	r0, r0, r5, lsl #2
    46cc:	04a81778 	strteq	r1, [r8], #1912	; 0x778
    46d0:	63060000 	movwvs	r0, #24576	; 0x6000
    46d4:	0007a802 	andeq	sl, r7, r2, lsl #16
    46d8:	38178000 	ldmdacc	r7, {pc}
    46dc:	06000002 	streq	r0, [r0], -r2
    46e0:	07b80264 	ldreq	r0, [r8, r4, ror #4]!
    46e4:	17880000 	strne	r0, [r8, r0]
    46e8:	00000444 	andeq	r0, r0, r4, asr #8
    46ec:	25026506 	strcs	r6, [r2, #-1286]	; 0xfffffafa
    46f0:	a0000000 	andge	r0, r0, r0
    46f4:	00016a17 	andeq	r6, r1, r7, lsl sl
    46f8:	02660600 	rsbeq	r0, r6, #0, 12
    46fc:	00000105 	andeq	r0, r0, r5, lsl #2
    4700:	008417a4 	addeq	r1, r4, r4, lsr #15
    4704:	67060000 	strvs	r0, [r6, -r0]
    4708:	00010502 	andeq	r0, r1, r2, lsl #10
    470c:	5917ac00 	ldmdbpl	r7, {sl, fp, sp, pc}
    4710:	06000001 	streq	r0, [r0], -r1
    4714:	01050268 	tsteq	r5, r8, ror #4
    4718:	17b40000 	ldrne	r0, [r4, r0]!
    471c:	0000003c 	andeq	r0, r0, ip, lsr r0
    4720:	05026906 	streq	r6, [r2, #-2310]	; 0xfffff6fa
    4724:	bc000001 	stclt	0, cr0, [r0], {1}
    4728:	00004b17 	andeq	r4, r0, r7, lsl fp
    472c:	026a0600 	rsbeq	r0, sl, #0, 12
    4730:	00000105 	andeq	r0, r0, r5, lsl #2
    4734:	02f417c4 	rscseq	r1, r4, #196, 14	; 0x3100000
    4738:	6b060000 	blvs	184740 <__bss_end__+0x17acd8>
    473c:	00002502 	andeq	r2, r0, r2, lsl #10
    4740:	0800cc00 	stmdaeq	r0, {sl, fp, lr, pc}
    4744:	00000123 	andeq	r0, r0, r3, lsr #2
    4748:	000007a8 	andeq	r0, r0, r8, lsr #15
    474c:	0000dd09 	andeq	sp, r0, r9, lsl #26
    4750:	08001900 	stmdaeq	r0, {r8, fp, ip}
    4754:	00000123 	andeq	r0, r0, r3, lsr #2
    4758:	000007b8 			; <UNDEFINED> instruction: 0x000007b8
    475c:	0000dd09 	andeq	sp, r0, r9, lsl #26
    4760:	08000700 	stmdaeq	r0, {r8, r9, sl}
    4764:	00000123 	andeq	r0, r0, r3, lsr #2
    4768:	000007c8 	andeq	r0, r0, r8, asr #15
    476c:	0000dd09 	andeq	sp, r0, r9, lsl #26
    4770:	1a001700 	bne	a378 <__bss_end__+0x910>
    4774:	027006f0 	rsbseq	r0, r0, #240, 12	; 0xf000000
    4778:	000007ec 	andeq	r0, r0, ip, ror #15
    477c:	00029b17 	andeq	r9, r2, r7, lsl fp
    4780:	02730600 	rsbseq	r0, r3, #0, 12
    4784:	000007ec 	andeq	r0, r0, ip, ror #15
    4788:	049f1700 	ldreq	r1, [pc], #1792	; 4790 <_start-0x3870>
    478c:	74060000 	strvc	r0, [r6], #-0
    4790:	0007fc02 	andeq	pc, r7, r2, lsl #24
    4794:	08007800 	stmdaeq	r0, {fp, ip, sp, lr}
    4798:	000002ec 	andeq	r0, r0, ip, ror #5
    479c:	000007fc 	strdeq	r0, [r0], -ip
    47a0:	0000dd09 	andeq	sp, r0, r9, lsl #26
    47a4:	08001d00 	stmdaeq	r0, {r8, sl, fp, ip}
    47a8:	0000002c 	andeq	r0, r0, ip, lsr #32
    47ac:	0000080c 	andeq	r0, r0, ip, lsl #16
    47b0:	0000dd09 	andeq	sp, r0, r9, lsl #26
    47b4:	1b001d00 	blne	bbbc <__bss_end__+0x2154>
    47b8:	025506f0 	subseq	r0, r5, #240, 12	; 0xf000000
    47bc:	0000082e 	andeq	r0, r0, lr, lsr #16
    47c0:	0003851c 	andeq	r8, r3, ip, lsl r5
    47c4:	026c0600 	rsbeq	r0, ip, #0, 12
    47c8:	00000697 	muleq	r0, r7, r6
    47cc:	0004c21c 	andeq	ip, r4, ip, lsl r2
    47d0:	02750600 	rsbseq	r0, r5, #0, 12
    47d4:	000007c8 	andeq	r0, r0, r8, asr #15
    47d8:	01230800 			; <UNDEFINED> instruction: 0x01230800
    47dc:	083e0000 	ldmdaeq	lr!, {}	; <UNPREDICTABLE>
    47e0:	dd090000 	stcle	0, cr0, [r9, #-0]
    47e4:	18000000 	stmdane	r0, {}	; <UNPREDICTABLE>
    47e8:	08491d00 	stmdaeq	r9, {r8, sl, fp, ip}^
    47ec:	3a150000 	bcc	5447f4 <__bss_end__+0x53ad8c>
    47f0:	00000004 	andeq	r0, r0, r4
    47f4:	083e040d 	ldmdaeq	lr!, {r0, r2, r3, sl}
    47f8:	040d0000 	streq	r0, [sp], #-0
    47fc:	0000018d 	andeq	r0, r0, sp, lsl #3
    4800:	0008601d 	andeq	r6, r8, sp, lsl r0
    4804:	00251500 	eoreq	r1, r5, r0, lsl #10
    4808:	0d000000 	stceq	0, cr0, [r0, #-0]
    480c:	00086604 	andeq	r6, r8, r4, lsl #12
    4810:	55040d00 	strpl	r0, [r4, #-3328]	; 0xfffff300
    4814:	08000008 	stmdaeq	r0, {r3}
    4818:	00000605 	andeq	r0, r0, r5, lsl #12
    481c:	0000087c 	andeq	r0, r0, ip, ror r8
    4820:	0000dd09 	andeq	sp, r0, r9, lsl #26
    4824:	1e000200 	cdpne	2, 0, cr0, cr0, cr0, {0}
    4828:	00000458 	andeq	r0, r0, r8, asr r4
    482c:	3a02fd06 	bcc	c3c4c <__bss_end__+0xba1e4>
    4830:	1e000004 	cdpne	0, 0, cr0, cr0, cr4, {0}
    4834:	00000451 	andeq	r0, r0, r1, asr r4
    4838:	4002fe06 	andmi	pc, r2, r6, lsl #28
    483c:	14000004 	strne	r0, [r0], #-4
    4840:	00000025 	andeq	r0, r0, r5, lsr #32
    4844:	000008a3 	andeq	r0, r0, r3, lsr #17
    4848:	00002515 	andeq	r2, r0, r5, lsl r5
    484c:	bd1f0000 	ldclt	0, cr0, [pc, #-0]	; 4854 <_start-0x37ac>
    4850:	07000001 	streq	r0, [r0, -r1]
    4854:	0008ae1d 	andeq	sl, r8, sp, lsl lr
    4858:	94040d00 	strls	r0, [r4], #-3328	; 0xfffff300
    485c:	14000008 	strne	r0, [r0], #-8
    4860:	00000025 	andeq	r0, r0, r5, lsr #32
    4864:	000008c3 	andeq	r0, r0, r3, asr #17
    4868:	00059b15 	andeq	r9, r5, r5, lsl fp
    486c:	561f0000 	ldrpl	r0, [pc], -r0
    4870:	07000007 	streq	r0, [r0, -r7]
    4874:	0008ce22 	andeq	ip, r8, r2, lsr #28
    4878:	b4040d00 	strlt	r0, [r4], #-3328	; 0xfffff300
    487c:	20000008 	andcs	r0, r0, r8
    4880:	00000526 	andeq	r0, r0, r6, lsr #10
    4884:	00680f01 	rsbeq	r0, r8, r1, lsl #30
    4888:	8c600000 	stclhi	0, cr0, [r0], #-0
    488c:	00e80000 	rsceq	r0, r8, r0
    4890:	9c010000 	stcls	0, cr0, [r1], {-0}
    4894:	00000948 	andeq	r0, r0, r8, asr #18
    4898:	0009ff21 	andeq	pc, r9, r1, lsr #30
    489c:	480f0100 	stmdami	pc, {r8}	; <UNPREDICTABLE>
    48a0:	f1000009 	cps	#9
    48a4:	2200000b 	andcs	r0, r0, #11
    48a8:	006e656c 	rsbeq	r6, lr, ip, ror #10
    48ac:	00250f01 	eoreq	r0, r5, r1, lsl #30
    48b0:	0c2b0000 	stceq	0, cr0, [fp], #-0
    48b4:	00230000 	eoreq	r0, r3, r0
    48b8:	0100000a 	tsteq	r0, sl
    48bc:	00059b10 	andeq	r9, r5, r0, lsl fp
    48c0:	000c6a00 	andeq	r6, ip, r0, lsl #20
    48c4:	052b2300 	streq	r2, [fp, #-768]!	; 0xfffffd00
    48c8:	11010000 	mrsne	r0, (UNDEF: 1)
    48cc:	00000068 	andeq	r0, r0, r8, rrx
    48d0:	00000c96 	muleq	r0, r6, ip
    48d4:	706d7424 	rsbvc	r7, sp, r4, lsr #8
    48d8:	68110100 	ldmdavs	r1, {r8}
    48dc:	eb000000 	bl	48e4 <_start-0x371c>
    48e0:	2400000c 	strcs	r0, [r0], #-12
    48e4:	006d6572 	rsbeq	r6, sp, r2, ror r5
    48e8:	00251201 	eoreq	r1, r5, r1, lsl #4
    48ec:	0d360000 	ldceq	0, cr0, [r6, #-0]
    48f0:	0d000000 	stceq	0, cr0, [r0, #-0]
    48f4:	00094e04 	andeq	r4, r9, r4, lsl #28
    48f8:	eb002500 	bl	dd00 <__bss_end__+0x4298>
    48fc:	04000008 	streq	r0, [r0], #-8
    4900:	000d3600 	andeq	r3, sp, r0, lsl #12
    4904:	bf010400 	svclt	0x00010400
    4908:	0c000003 	stceq	0, cr0, [r0], {3}
    490c:	0000075b 	andeq	r0, r0, fp, asr r7
    4910:	000006b6 			; <UNDEFINED> instruction: 0x000006b6
    4914:	00008d48 	andeq	r8, r0, r8, asr #26
    4918:	00000034 	andeq	r0, r0, r4, lsr r0
    491c:	000007fb 	strdeq	r0, [r0], -fp
    4920:	69050402 	stmdbvs	r5, {r1, sl}
    4924:	0300746e 	movweq	r7, #1134	; 0x46e
    4928:	00660704 	rsbeq	r0, r6, r4, lsl #14
    492c:	01030000 	mrseq	r0, (UNDEF: 3)
    4930:	0002e306 	andeq	lr, r2, r6, lsl #6
    4934:	05020300 	streq	r0, [r2, #-768]	; 0xfffffd00
    4938:	000002fd 	strdeq	r0, [r0], -sp
    493c:	af050403 	svcge	0x00050403
    4940:	03000000 	movweq	r0, #0
    4944:	00aa0508 	adceq	r0, sl, r8, lsl #10
    4948:	01030000 	mrseq	r0, (UNDEF: 3)
    494c:	0002e108 	andeq	lr, r2, r8, lsl #2
    4950:	07020300 	streq	r0, [r2, -r0, lsl #6]
    4954:	0000020e 	andeq	r0, r0, lr, lsl #4
    4958:	61070403 	tstvs	r7, r3, lsl #8
    495c:	03000000 	movweq	r0, #0
    4960:	005c0708 	subseq	r0, ip, r8, lsl #14
    4964:	cf040000 	svcgt	0x00040000
    4968:	02000002 	andeq	r0, r0, #2
    496c:	00002507 	andeq	r2, r0, r7, lsl #10
    4970:	02be0400 	adcseq	r0, lr, #0, 8
    4974:	2c030000 	stccs	0, cr0, [r3], {-0}
    4978:	00000041 	andeq	r0, r0, r1, asr #32
    497c:	0003a804 	andeq	sl, r3, r4, lsl #16
    4980:	41720300 	cmnmi	r2, r0, lsl #6
    4984:	05000000 	streq	r0, [r0, #-0]
    4988:	0000025f 	andeq	r0, r0, pc, asr r2
    498c:	2c016504 	cfstr32cs	mvfx6, [r1], {4}
    4990:	06000000 	streq	r0, [r0], -r0
    4994:	b7a60304 	strlt	r0, [r6, r4, lsl #6]!
    4998:	07000000 	streq	r0, [r0, -r0]
    499c:	00000259 	andeq	r0, r0, r9, asr r2
    49a0:	008ca803 	addeq	sl, ip, r3, lsl #16
    49a4:	ce070000 	cdpgt	0, 0, cr0, cr7, cr0, {0}
    49a8:	03000001 	movweq	r0, #1
    49ac:	0000b7a9 	andeq	fp, r0, r9, lsr #15
    49b0:	4f080000 	svcmi	0x00080000
    49b4:	c7000000 	strgt	r0, [r0, -r0]
    49b8:	09000000 	stmdbeq	r0, {}	; <UNPREDICTABLE>
    49bc:	000000c7 	andeq	r0, r0, r7, asr #1
    49c0:	04030003 	streq	r0, [r3], #-3
    49c4:	00029207 	andeq	r9, r2, r7, lsl #4
    49c8:	03080a00 	movweq	r0, #35328	; 0x8a00
    49cc:	0000efa3 	andeq	lr, r0, r3, lsr #31
    49d0:	03920b00 	orrseq	r0, r2, #0, 22
    49d4:	a5030000 	strge	r0, [r3, #-0]
    49d8:	00000025 	andeq	r0, r0, r5, lsr #32
    49dc:	039a0b00 	orrseq	r0, sl, #0, 22
    49e0:	aa030000 	bge	c49e8 <__bss_end__+0xbaf80>
    49e4:	00000098 	muleq	r0, r8, r0
    49e8:	25040004 	strcs	r0, [r4, #-4]
    49ec:	03000003 	movweq	r0, #3
    49f0:	0000ceab 	andeq	ip, r0, fp, lsr #29
    49f4:	018b0400 	orreq	r0, fp, r0, lsl #8
    49f8:	af030000 	svcge	0x00030000
    49fc:	0000006b 	andeq	r0, r0, fp, rrx
    4a00:	040d040c 	streq	r0, [sp], #-1036	; 0xfffffbf4
    4a04:	0000010d 	andeq	r0, r0, sp, lsl #2
    4a08:	ea080103 	b	204e1c <__bss_end__+0x1fb3b4>
    4a0c:	0e000002 	cdpeq	0, 0, cr0, cr0, cr2, {0}
    4a10:	0000010d 	andeq	r0, r0, sp, lsl #2
    4a14:	00043c04 	andeq	r3, r4, r4, lsl #24
    4a18:	5d160500 	cfldr32pl	mvfx0, [r6, #-0]
    4a1c:	0f000000 	svceq	0x00000000
    4a20:	0000019c 	muleq	r0, ip, r1
    4a24:	772d0518 			; <UNDEFINED> instruction: 0x772d0518
    4a28:	0b000001 	bleq	4a34 <_start-0x35cc>
    4a2c:	00000346 	andeq	r0, r0, r6, asr #6
    4a30:	01772f05 	cmneq	r7, r5, lsl #30
    4a34:	10000000 	andne	r0, r0, r0
    4a38:	05006b5f 	streq	r6, [r0, #-2911]	; 0xfffff4a1
    4a3c:	00002530 	andeq	r2, r0, r0, lsr r5
    4a40:	7d0b0400 	cfstrsvc	mvf0, [fp, #-0]
    4a44:	05000003 	streq	r0, [r0, #-3]
    4a48:	00002530 	andeq	r2, r0, r0, lsr r5
    4a4c:	850b0800 	strhi	r0, [fp, #-2048]	; 0xfffff800
    4a50:	05000001 	streq	r0, [r0, #-1]
    4a54:	00002530 	andeq	r2, r0, r0, lsr r5
    4a58:	8a0b0c00 	bhi	2c7a60 <__bss_end__+0x2bdff8>
    4a5c:	05000004 	streq	r0, [r0, #-4]
    4a60:	00002530 	andeq	r2, r0, r0, lsr r5
    4a64:	5f101000 	svcpl	0x00101000
    4a68:	31050078 	tstcc	r5, r8, ror r0
    4a6c:	0000017d 	andeq	r0, r0, sp, ror r1
    4a70:	040d0014 	streq	r0, [sp], #-20	; 0xffffffec
    4a74:	00000124 	andeq	r0, r0, r4, lsr #2
    4a78:	00011908 	andeq	r1, r1, r8, lsl #18
    4a7c:	00018d00 	andeq	r8, r1, r0, lsl #26
    4a80:	00c70900 	sbceq	r0, r7, r0, lsl #18
    4a84:	00000000 	andeq	r0, r0, r0
    4a88:	0001c90f 	andeq	ip, r1, pc, lsl #18
    4a8c:	35052400 	strcc	r2, [r5, #-1024]	; 0xfffffc00
    4a90:	00000206 	andeq	r0, r0, r6, lsl #4
    4a94:	0000a10b 	andeq	sl, r0, fp, lsl #2
    4a98:	25370500 	ldrcs	r0, [r7, #-1280]!	; 0xfffffb00
    4a9c:	00000000 	andeq	r0, r0, r0
    4aa0:	0003b00b 	andeq	fp, r3, fp
    4aa4:	25380500 	ldrcs	r0, [r8, #-1280]!	; 0xfffffb00
    4aa8:	04000000 	streq	r0, [r0], #-0
    4aac:	0000c40b 	andeq	ip, r0, fp, lsl #8
    4ab0:	25390500 	ldrcs	r0, [r9, #-1280]!	; 0xfffffb00
    4ab4:	08000000 	stmdaeq	r0, {}	; <UNPREDICTABLE>
    4ab8:	0005030b 	andeq	r0, r5, fp, lsl #6
    4abc:	253a0500 	ldrcs	r0, [sl, #-1280]!	; 0xfffffb00
    4ac0:	0c000000 	stceq	0, cr0, [r0], {-0}
    4ac4:	0002a20b 	andeq	sl, r2, fp, lsl #4
    4ac8:	253b0500 	ldrcs	r0, [fp, #-1280]!	; 0xfffffb00
    4acc:	10000000 	andne	r0, r0, r0
    4ad0:	00027b0b 	andeq	r7, r2, fp, lsl #22
    4ad4:	253c0500 	ldrcs	r0, [ip, #-1280]!	; 0xfffffb00
    4ad8:	14000000 	strne	r0, [r0], #-0
    4adc:	00048f0b 	andeq	r8, r4, fp, lsl #30
    4ae0:	253d0500 	ldrcs	r0, [sp, #-1280]!	; 0xfffffb00
    4ae4:	18000000 	stmdane	r0, {}	; <UNPREDICTABLE>
    4ae8:	0003070b 	andeq	r0, r3, fp, lsl #14
    4aec:	253e0500 	ldrcs	r0, [lr, #-1280]!	; 0xfffffb00
    4af0:	1c000000 	stcne	0, cr0, [r0], {-0}
    4af4:	0004ca0b 	andeq	ip, r4, fp, lsl #20
    4af8:	253f0500 	ldrcs	r0, [pc, #-1280]!	; 4600 <_start-0x3a00>
    4afc:	20000000 	andcs	r0, r0, r0
    4b00:	01041100 	mrseq	r1, (UNDEF: 20)
    4b04:	01080000 	mrseq	r0, (UNDEF: 8)
    4b08:	02464805 	subeq	r4, r6, #327680	; 0x50000
    4b0c:	780b0000 	stmdavc	fp, {}	; <UNPREDICTABLE>
    4b10:	05000001 	streq	r0, [r0, #-1]
    4b14:	00024649 	andeq	r4, r2, r9, asr #12
    4b18:	000b0000 	andeq	r0, fp, r0
    4b1c:	05000000 	streq	r0, [r0, #-0]
    4b20:	0002464a 	andeq	r4, r2, sl, asr #12
    4b24:	2e128000 	cdpcs	0, 1, cr8, cr2, cr0, {0}
    4b28:	05000004 	streq	r0, [r0, #-4]
    4b2c:	0001194c 	andeq	r1, r1, ip, asr #18
    4b30:	12010000 	andne	r0, r1, #0
    4b34:	00000129 	andeq	r0, r0, r9, lsr #2
    4b38:	01194f05 	tsteq	r9, r5, lsl #30
    4b3c:	01040000 	mrseq	r0, (UNDEF: 4)
    4b40:	01050800 	tsteq	r5, r0, lsl #16
    4b44:	02560000 	subseq	r0, r6, #0
    4b48:	c7090000 	strgt	r0, [r9, -r0]
    4b4c:	1f000000 	svcne	0x00000000
    4b50:	02ab1100 	adceq	r1, fp, #0, 2
    4b54:	01900000 	orrseq	r0, r0, r0
    4b58:	02945b05 	addseq	r5, r4, #5120	; 0x1400
    4b5c:	460b0000 	strmi	r0, [fp], -r0
    4b60:	05000003 	streq	r0, [r0, #-3]
    4b64:	0002945c 	andeq	r9, r2, ip, asr r4
    4b68:	5e0b0000 	cdppl	0, 0, cr0, cr11, cr0, {0}
    4b6c:	05000003 	streq	r0, [r0, #-3]
    4b70:	0000255d 	andeq	r2, r0, sp, asr r5
    4b74:	800b0400 	andhi	r0, fp, r0, lsl #8
    4b78:	05000001 	streq	r0, [r0, #-1]
    4b7c:	00029a5f 	andeq	r9, r2, pc, asr sl
    4b80:	040b0800 	streq	r0, [fp], #-2048	; 0xfffff800
    4b84:	05000001 	streq	r0, [r0, #-1]
    4b88:	00020660 	andeq	r0, r2, r0, ror #12
    4b8c:	0d008800 	stceq	8, cr8, [r0, #-0]
    4b90:	00025604 	andeq	r5, r2, r4, lsl #12
    4b94:	02aa0800 	adceq	r0, sl, #0, 16
    4b98:	02aa0000 	adceq	r0, sl, #0
    4b9c:	c7090000 	strgt	r0, [r9, -r0]
    4ba0:	1f000000 	svcne	0x00000000
    4ba4:	b0040d00 	andlt	r0, r4, r0, lsl #26
    4ba8:	13000002 	movwne	r0, #2
    4bac:	0003110f 	andeq	r1, r3, pc, lsl #2
    4bb0:	73050800 	movwvc	r0, #22528	; 0x5800
    4bb4:	000002d6 	ldrdeq	r0, [r0], -r6
    4bb8:	0000be0b 	andeq	fp, r0, fp, lsl #28
    4bbc:	d6740500 	ldrbtle	r0, [r4], -r0, lsl #10
    4bc0:	00000002 	andeq	r0, r0, r2
    4bc4:	00001b0b 	andeq	r1, r0, fp, lsl #22
    4bc8:	25750500 	ldrbcs	r0, [r5, #-1280]!	; 0xfffffb00
    4bcc:	04000000 	streq	r0, [r0], #-0
    4bd0:	4f040d00 	svcmi	0x00040d00
    4bd4:	0f000000 	svceq	0x00000000
    4bd8:	00000330 	andeq	r0, r0, r0, lsr r3
    4bdc:	06b30568 	ldrteq	r0, [r3], r8, ror #10
    4be0:	10000004 	andne	r0, r0, r4
    4be4:	0500705f 	streq	r7, [r0, #-95]	; 0xffffffa1
    4be8:	0002d6b4 			; <UNDEFINED> instruction: 0x0002d6b4
    4bec:	5f100000 	svcpl	0x00100000
    4bf0:	b5050072 	strlt	r0, [r5, #-114]	; 0xffffff8e
    4bf4:	00000025 	andeq	r0, r0, r5, lsr #32
    4bf8:	775f1004 	ldrbvc	r1, [pc, -r4]
    4bfc:	25b60500 	ldrcs	r0, [r6, #1280]!	; 0x500
    4c00:	08000000 	stmdaeq	r0, {}	; <UNPREDICTABLE>
    4c04:	0001220b 	andeq	r2, r1, fp, lsl #4
    4c08:	3ab70500 	bcc	fedc6010 <__bss_end__+0xfedbc5a8>
    4c0c:	0c000000 	stceq	0, cr0, [r0], {-0}
    4c10:	0001f40b 	andeq	pc, r1, fp, lsl #8
    4c14:	3ab80500 	bcc	fee0601c <__bss_end__+0xfedfc5b4>
    4c18:	0e000000 	cdpeq	0, 0, cr0, cr0, cr0, {0}
    4c1c:	66625f10 	uqadd16vs	r5, r2, r0
    4c20:	b1b90500 			; <UNDEFINED> instruction: 0xb1b90500
    4c24:	10000002 	andne	r0, r0, r2
    4c28:	00007b0b 	andeq	r7, r0, fp, lsl #22
    4c2c:	25ba0500 	ldrcs	r0, [sl, #1280]!	; 0x500
    4c30:	18000000 	stmdane	r0, {}	; <UNPREDICTABLE>
    4c34:	0001120b 	andeq	r1, r1, fp, lsl #4
    4c38:	05c10500 	strbeq	r0, [r1, #1280]	; 0x500
    4c3c:	1c000001 	stcne	0, cr0, [r0], {1}
    4c40:	000a5e0b 	andeq	r5, sl, fp, lsl #28
    4c44:	61c30500 	bicvs	r0, r3, r0, lsl #10
    4c48:	20000005 	andcs	r0, r0, r5
    4c4c:	000a780b 	andeq	r7, sl, fp, lsl #16
    4c50:	8bc50500 	blhi	ff146058 <__bss_end__+0xff13c5f0>
    4c54:	24000005 	strcs	r0, [r0], #-5
    4c58:	0003a20b 	andeq	sl, r3, fp, lsl #4
    4c5c:	afc80500 	svcge	0x00c80500
    4c60:	28000005 	stmdacs	r0, {r0, r2}
    4c64:	0004e40b 	andeq	lr, r4, fp, lsl #8
    4c68:	c9c90500 	stmibgt	r9, {r8, sl}^
    4c6c:	2c000005 	stccs	0, cr0, [r0], {5}
    4c70:	62755f10 	rsbsvs	r5, r5, #16, 30	; 0x40
    4c74:	b1cc0500 	biclt	r0, ip, r0, lsl #10
    4c78:	30000002 	andcc	r0, r0, r2
    4c7c:	70755f10 	rsbsvc	r5, r5, r0, lsl pc
    4c80:	d6cd0500 	strble	r0, [sp], r0, lsl #10
    4c84:	38000002 	stmdacc	r0, {r1}
    4c88:	72755f10 	rsbsvc	r5, r5, #16, 30	; 0x40
    4c8c:	25ce0500 	strbcs	r0, [lr, #1280]	; 0x500
    4c90:	3c000000 	stccc	0, cr0, [r0], {-0}
    4c94:	0000b80b 	andeq	fp, r0, fp, lsl #16
    4c98:	cfd10500 	svcgt	0x00d10500
    4c9c:	40000005 	andmi	r0, r0, r5
    4ca0:	0004bc0b 	andeq	fp, r4, fp, lsl #24
    4ca4:	dfd20500 	svcle	0x00d20500
    4ca8:	43000005 	movwmi	r0, #5
    4cac:	626c5f10 	rsbvs	r5, ip, #16, 30	; 0x40
    4cb0:	b1d50500 	bicslt	r0, r5, r0, lsl #10
    4cb4:	44000002 	strmi	r0, [r0], #-2
    4cb8:	0001400b 	andeq	r4, r1, fp
    4cbc:	25d80500 	ldrbcs	r0, [r8, #1280]	; 0x500
    4cc0:	4c000000 	stcmi	0, cr0, [r0], {-0}
    4cc4:	0001510b 	andeq	r5, r1, fp, lsl #2
    4cc8:	76d90500 	ldrbvc	r0, [r9], r0, lsl #10
    4ccc:	50000000 	andpl	r0, r0, r0
    4cd0:	0009ff0b 	andeq	pc, r9, fp, lsl #30
    4cd4:	24dc0500 	ldrbcs	r0, [ip], #1280	; 0x500
    4cd8:	54000004 	strpl	r0, [r0], #-4
    4cdc:	00026d0b 	andeq	r6, r2, fp, lsl #26
    4ce0:	fae00500 	blx	ff8060e8 <__bss_end__+0xff7fc680>
    4ce4:	58000000 	stmdapl	r0, {}	; <UNPREDICTABLE>
    4ce8:	0003380b 	andeq	r3, r3, fp, lsl #16
    4cec:	efe20500 	svc	0x00e20500
    4cf0:	5c000000 	stcpl	0, cr0, [r0], {-0}
    4cf4:	0002730b 	andeq	r7, r2, fp, lsl #6
    4cf8:	25e30500 	strbcs	r0, [r3, #1280]!	; 0x500
    4cfc:	64000000 	strvs	r0, [r0], #-0
    4d00:	00251400 	eoreq	r1, r5, r0, lsl #8
    4d04:	04240000 	strteq	r0, [r4], #-0
    4d08:	24150000 	ldrcs	r0, [r5], #-0
    4d0c:	15000004 	strne	r0, [r0, #-4]
    4d10:	00000105 	andeq	r0, r0, r5, lsl #2
    4d14:	00010715 	andeq	r0, r1, r5, lsl r7
    4d18:	00251500 	eoreq	r1, r5, r0, lsl #10
    4d1c:	0d000000 	stceq	0, cr0, [r0, #-0]
    4d20:	00042f04 	andeq	r2, r4, r4, lsl #30
    4d24:	04240e00 	strteq	r0, [r4], #-3584	; 0xfffff200
    4d28:	85160000 	ldrhi	r0, [r6, #-0]
    4d2c:	28000003 	stmdacs	r0, {r0, r1}
    4d30:	02380504 	eorseq	r0, r8, #4, 10	; 0x1000000
    4d34:	00000561 	andeq	r0, r0, r1, ror #10
    4d38:	0002f617 	andeq	pc, r2, r7, lsl r6	; <UNPREDICTABLE>
    4d3c:	023a0500 	eorseq	r0, sl, #0, 10
    4d40:	00000025 	andeq	r0, r0, r5, lsr #32
    4d44:	01311700 	teqeq	r1, r0, lsl #14
    4d48:	3f050000 	svccc	0x00050000
    4d4c:	00063602 	andeq	r3, r6, r2, lsl #12
    4d50:	e4170400 	ldr	r0, [r7], #-1024	; 0xfffffc00
    4d54:	05000001 	streq	r0, [r0, #-1]
    4d58:	0636023f 			; <UNDEFINED> instruction: 0x0636023f
    4d5c:	17080000 	strne	r0, [r8, -r0]
    4d60:	00000194 	muleq	r0, r4, r1
    4d64:	36023f05 	strcc	r3, [r2], -r5, lsl #30
    4d68:	0c000006 	stceq	0, cr0, [r0], {6}
    4d6c:	00035917 	andeq	r5, r3, r7, lsl r9
    4d70:	02410500 	subeq	r0, r1, #0, 10
    4d74:	00000025 	andeq	r0, r0, r5, lsr #32
    4d78:	00291710 	eoreq	r1, r9, r0, lsl r7
    4d7c:	42050000 	andmi	r0, r5, #0
    4d80:	00081802 	andeq	r1, r8, r2, lsl #16
    4d84:	64171400 	ldrvs	r1, [r7], #-1024	; 0xfffffc00
    4d88:	05000004 	streq	r0, [r0, #-4]
    4d8c:	00250244 	eoreq	r0, r5, r4, asr #4
    4d90:	17300000 	ldrne	r0, [r0, -r0]!
    4d94:	00000363 	andeq	r0, r0, r3, ror #6
    4d98:	85024505 	strhi	r4, [r2, #-1285]	; 0xfffffafb
    4d9c:	34000005 	strcc	r0, [r0], #-5
    4da0:	0002b317 	andeq	fp, r2, r7, lsl r3
    4da4:	02470500 	subeq	r0, r7, #0, 10
    4da8:	00000025 	andeq	r0, r0, r5, lsr #32
    4dac:	03731738 	cmneq	r3, #56, 14	; 0xe00000
    4db0:	49050000 	stmdbmi	r5, {}	; <UNPREDICTABLE>
    4db4:	00083302 	andeq	r3, r8, r2, lsl #6
    4db8:	51173c00 	tstpl	r7, r0, lsl #24
    4dbc:	05000002 	streq	r0, [r0, #-2]
    4dc0:	0177024c 	cmneq	r7, ip, asr #4
    4dc4:	17400000 	strbne	r0, [r0, -r0]
    4dc8:	000001b3 			; <UNDEFINED> instruction: 0x000001b3
    4dcc:	25024d05 	strcs	r4, [r2, #-3333]	; 0xfffff2fb
    4dd0:	44000000 	strmi	r0, [r0], #-0
    4dd4:	0004fe17 	andeq	pc, r4, r7, lsl lr	; <UNPREDICTABLE>
    4dd8:	024e0500 	subeq	r0, lr, #0, 10
    4ddc:	00000177 	andeq	r0, r0, r7, ror r1
    4de0:	02c51748 	sbceq	r1, r5, #72, 14	; 0x1200000
    4de4:	4f050000 	svcmi	0x00050000
    4de8:	00083902 	andeq	r3, r8, r2, lsl #18
    4dec:	ec174c00 	ldc	12, cr4, [r7], {-0}
    4df0:	05000001 	streq	r0, [r0, #-1]
    4df4:	00250252 	eoreq	r0, r5, r2, asr r2
    4df8:	17500000 	ldrbne	r0, [r0, -r0]
    4dfc:	00000149 	andeq	r0, r0, r9, asr #2
    4e00:	07025305 	streq	r5, [r2, -r5, lsl #6]
    4e04:	54000001 	strpl	r0, [r0], #-1
    4e08:	0002ef17 	andeq	lr, r2, r7, lsl pc
    4e0c:	02760500 	rsbseq	r0, r6, #0, 10
    4e10:	000007f6 	strdeq	r0, [r0], -r6
    4e14:	02ab1858 	adceq	r1, fp, #88, 16	; 0x580000
    4e18:	7a050000 	bvc	144e20 <__bss_end__+0x13b3b8>
    4e1c:	00029402 	andeq	r9, r2, r2, lsl #8
    4e20:	18014800 	stmdane	r1, {fp, lr}
    4e24:	0000022f 	andeq	r0, r0, pc, lsr #4
    4e28:	56027b05 	strpl	r7, [r2], -r5, lsl #22
    4e2c:	4c000002 	stcmi	0, cr0, [r0], {2}
    4e30:	04b21801 	ldrteq	r1, [r2], #2049	; 0x801
    4e34:	7f050000 	svcvc	0x00050000
    4e38:	00084a02 	andeq	r4, r8, r2, lsl #20
    4e3c:	1802dc00 	stmdane	r2, {sl, fp, ip, lr, pc}
    4e40:	0000011a 	andeq	r0, r0, sl, lsl r1
    4e44:	fb028405 	blx	a5e62 <__bss_end__+0x9c3fa>
    4e48:	e0000005 	and	r0, r0, r5
    4e4c:	00ff1802 	rscseq	r1, pc, r2, lsl #16
    4e50:	85050000 	strhi	r0, [r5, #-0]
    4e54:	00085602 	andeq	r5, r8, r2, lsl #12
    4e58:	0002ec00 	andeq	lr, r2, r0, lsl #24
    4e5c:	0406040d 	streq	r0, [r6], #-1037	; 0xfffffbf3
    4e60:	25140000 	ldrcs	r0, [r4, #-0]
    4e64:	85000000 	strhi	r0, [r0, #-0]
    4e68:	15000005 	strne	r0, [r0, #-5]
    4e6c:	00000424 	andeq	r0, r0, r4, lsr #8
    4e70:	00010515 	andeq	r0, r1, r5, lsl r5
    4e74:	05851500 	streq	r1, [r5, #1280]	; 0x500
    4e78:	25150000 	ldrcs	r0, [r5, #-0]
    4e7c:	00000000 	andeq	r0, r0, r0
    4e80:	0114040d 	tsteq	r4, sp, lsl #8
    4e84:	040d0000 	streq	r0, [sp], #-0
    4e88:	00000567 	andeq	r0, r0, r7, ror #10
    4e8c:	00008114 	andeq	r8, r0, r4, lsl r1
    4e90:	0005af00 	andeq	sl, r5, r0, lsl #30
    4e94:	04241500 	strteq	r1, [r4], #-1280	; 0xfffffb00
    4e98:	05150000 	ldreq	r0, [r5, #-0]
    4e9c:	15000001 	strne	r0, [r0, #-1]
    4ea0:	00000081 	andeq	r0, r0, r1, lsl #1
    4ea4:	00002515 	andeq	r2, r0, r5, lsl r5
    4ea8:	040d0000 	streq	r0, [sp], #-0
    4eac:	00000591 	muleq	r0, r1, r5
    4eb0:	00002514 	andeq	r2, r0, r4, lsl r5
    4eb4:	0005c900 	andeq	ip, r5, r0, lsl #18
    4eb8:	04241500 	strteq	r1, [r4], #-1280	; 0xfffffb00
    4ebc:	05150000 	ldreq	r0, [r5, #-0]
    4ec0:	00000001 	andeq	r0, r0, r1
    4ec4:	05b5040d 	ldreq	r0, [r5, #1037]!	; 0x40d
    4ec8:	4f080000 	svcmi	0x00080000
    4ecc:	df000000 	svcle	0x00000000
    4ed0:	09000005 	stmdbeq	r0, {r0, r2}
    4ed4:	000000c7 	andeq	r0, r0, r7, asr #1
    4ed8:	4f080002 	svcmi	0x00080002
    4edc:	ef000000 	svc	0x00000000
    4ee0:	09000005 	stmdbeq	r0, {r0, r2}
    4ee4:	000000c7 	andeq	r0, r0, r7, asr #1
    4ee8:	1e050000 	cdpne	0, 0, cr0, cr5, cr0, {0}
    4eec:	05000003 	streq	r0, [r0, #-3]
    4ef0:	02dc011d 	sbcseq	r0, ip, #1073741831	; 0x40000007
    4ef4:	99190000 	ldmdbls	r9, {}	; <UNPREDICTABLE>
    4ef8:	0c000004 	stceq	0, cr0, [r0], {4}
    4efc:	30012105 	andcc	r2, r1, r5, lsl #2
    4f00:	17000006 	strne	r0, [r0, -r6]
    4f04:	00000346 	andeq	r0, r0, r6, asr #6
    4f08:	30012305 	andcc	r2, r1, r5, lsl #6
    4f0c:	00000006 	andeq	r0, r0, r6
    4f10:	00020717 	andeq	r0, r2, r7, lsl r7
    4f14:	01240500 			; <UNDEFINED> instruction: 0x01240500
    4f18:	00000025 	andeq	r0, r0, r5, lsr #32
    4f1c:	03181704 	tsteq	r8, #4, 14	; 0x100000
    4f20:	25050000 	strcs	r0, [r5, #-0]
    4f24:	00063601 	andeq	r3, r6, r1, lsl #12
    4f28:	0d000800 	stceq	8, cr0, [r0, #-0]
    4f2c:	0005fb04 	andeq	pc, r5, r4, lsl #22
    4f30:	ef040d00 	svc	0x00040d00
    4f34:	19000005 	stmdbne	r0, {r0, r2}
    4f38:	00000021 	andeq	r0, r0, r1, lsr #32
    4f3c:	013d050e 	teqeq	sp, lr, lsl #10
    4f40:	00000671 	andeq	r0, r0, r1, ror r6
    4f44:	00038c17 	andeq	r8, r3, r7, lsl ip
    4f48:	013e0500 	teqeq	lr, r0, lsl #10
    4f4c:	00000671 	andeq	r0, r0, r1, ror r6
    4f50:	03b91700 			; <UNDEFINED> instruction: 0x03b91700
    4f54:	3f050000 	svccc	0x00050000
    4f58:	00067101 	andeq	r7, r6, r1, lsl #2
    4f5c:	37170600 	ldrcc	r0, [r7, -r0, lsl #12]
    4f60:	05000004 	streq	r0, [r0, #-4]
    4f64:	00560140 	subseq	r0, r6, r0, asr #2
    4f68:	000c0000 	andeq	r0, ip, r0
    4f6c:	00005608 	andeq	r5, r0, r8, lsl #12
    4f70:	00068100 	andeq	r8, r6, r0, lsl #2
    4f74:	00c70900 	sbceq	r0, r7, r0, lsl #18
    4f78:	00020000 	andeq	r0, r2, r0
    4f7c:	5705d01a 	smladpl	r5, sl, r0, sp
    4f80:	00078202 	andeq	r8, r7, r2, lsl #4
    4f84:	047d1700 	ldrbteq	r1, [sp], #-1792	; 0xfffff900
    4f88:	59050000 	stmdbpl	r5, {}	; <UNPREDICTABLE>
    4f8c:	00002c02 	andeq	r2, r0, r2, lsl #24
    4f90:	21170000 	tstcs	r7, r0
    4f94:	05000004 	streq	r0, [r0, #-4]
    4f98:	0107025a 	tsteq	r7, sl, asr r2
    4f9c:	17040000 	strne	r0, [r4, -r0]
    4fa0:	00000244 	andeq	r0, r0, r4, asr #4
    4fa4:	82025b05 	andhi	r5, r2, #5120	; 0x1400
    4fa8:	08000007 	stmdaeq	r0, {r0, r1, r2}
    4fac:	0004d517 	andeq	sp, r4, r7, lsl r5
    4fb0:	025c0500 	subseq	r0, ip, #0, 10
    4fb4:	0000018d 	andeq	r0, r0, sp, lsl #3
    4fb8:	01a41724 			; <UNDEFINED> instruction: 0x01a41724
    4fbc:	5d050000 	stcpl	0, cr0, [r5, #-0]
    4fc0:	00002502 	andeq	r2, r0, r2, lsl #10
    4fc4:	41174800 	tstmi	r7, r0, lsl #16
    4fc8:	05000003 	streq	r0, [r0, #-3]
    4fcc:	0064025e 	rsbeq	r0, r4, lr, asr r2
    4fd0:	17500000 	ldrbne	r0, [r0, -r0]
    4fd4:	000004eb 	andeq	r0, r0, fp, ror #9
    4fd8:	3c025f05 	stccc	15, cr5, [r2], {5}
    4fdc:	58000006 	stmdapl	r0, {r1, r2}
    4fe0:	00034c17 	andeq	r4, r3, r7, lsl ip
    4fe4:	02600500 	rsbeq	r0, r0, #0, 10
    4fe8:	000000ef 	andeq	r0, r0, pc, ror #1
    4fec:	04f01768 	ldrbteq	r1, [r0], #1896	; 0x768
    4ff0:	61050000 	mrsvs	r0, (UNDEF: 5)
    4ff4:	0000ef02 	andeq	lr, r0, r2, lsl #30
    4ff8:	93177000 	tstls	r7, #0
    4ffc:	05000000 	streq	r0, [r0, #-0]
    5000:	00ef0262 	rsceq	r0, pc, r2, ror #4
    5004:	17780000 	ldrbne	r0, [r8, -r0]!
    5008:	000004a8 	andeq	r0, r0, r8, lsr #9
    500c:	92026305 	andls	r6, r2, #335544320	; 0x14000000
    5010:	80000007 	andhi	r0, r0, r7
    5014:	00023817 	andeq	r3, r2, r7, lsl r8
    5018:	02640500 	rsbeq	r0, r4, #0, 10
    501c:	000007a2 	andeq	r0, r0, r2, lsr #15
    5020:	04441788 	strbeq	r1, [r4], #-1928	; 0xfffff878
    5024:	65050000 	strvs	r0, [r5, #-0]
    5028:	00002502 	andeq	r2, r0, r2, lsl #10
    502c:	6a17a000 	bvs	5ed034 <__bss_end__+0x5e35cc>
    5030:	05000001 	streq	r0, [r0, #-1]
    5034:	00ef0266 	rsceq	r0, pc, r6, ror #4
    5038:	17a40000 	strne	r0, [r4, r0]!
    503c:	00000084 	andeq	r0, r0, r4, lsl #1
    5040:	ef026705 	svc	0x00026705
    5044:	ac000000 	stcge	0, cr0, [r0], {-0}
    5048:	00015917 	andeq	r5, r1, r7, lsl r9
    504c:	02680500 	rsbeq	r0, r8, #0, 10
    5050:	000000ef 	andeq	r0, r0, pc, ror #1
    5054:	003c17b4 	ldrhteq	r1, [ip], -r4
    5058:	69050000 	stmdbvs	r5, {}	; <UNPREDICTABLE>
    505c:	0000ef02 	andeq	lr, r0, r2, lsl #30
    5060:	4b17bc00 	blmi	5f4068 <__bss_end__+0x5ea600>
    5064:	05000000 	streq	r0, [r0, #-0]
    5068:	00ef026a 	rsceq	r0, pc, sl, ror #4
    506c:	17c40000 	strbne	r0, [r4, r0]
    5070:	000002f4 	strdeq	r0, [r0], -r4
    5074:	25026b05 	strcs	r6, [r2, #-2821]	; 0xfffff4fb
    5078:	cc000000 	stcgt	0, cr0, [r0], {-0}
    507c:	010d0800 	tsteq	sp, r0, lsl #16
    5080:	07920000 	ldreq	r0, [r2, r0]
    5084:	c7090000 	strgt	r0, [r9, -r0]
    5088:	19000000 	stmdbne	r0, {}	; <UNPREDICTABLE>
    508c:	010d0800 	tsteq	sp, r0, lsl #16
    5090:	07a20000 	streq	r0, [r2, r0]!
    5094:	c7090000 	strgt	r0, [r9, -r0]
    5098:	07000000 	streq	r0, [r0, -r0]
    509c:	010d0800 	tsteq	sp, r0, lsl #16
    50a0:	07b20000 	ldreq	r0, [r2, r0]!
    50a4:	c7090000 	strgt	r0, [r9, -r0]
    50a8:	17000000 	strne	r0, [r0, -r0]
    50ac:	05f01a00 	ldrbeq	r1, [r0, #2560]!	; 0xa00
    50b0:	07d60270 			; <UNDEFINED> instruction: 0x07d60270
    50b4:	9b170000 	blls	5c50bc <__bss_end__+0x5bb654>
    50b8:	05000002 	streq	r0, [r0, #-2]
    50bc:	07d60273 			; <UNDEFINED> instruction: 0x07d60273
    50c0:	17000000 	strne	r0, [r0, -r0]
    50c4:	0000049f 	muleq	r0, pc, r4	; <UNPREDICTABLE>
    50c8:	e6027405 	str	r7, [r2], -r5, lsl #8
    50cc:	78000007 	stmdavc	r0, {r0, r1, r2}
    50d0:	02d60800 	sbcseq	r0, r6, #0, 16
    50d4:	07e60000 	strbeq	r0, [r6, r0]!
    50d8:	c7090000 	strgt	r0, [r9, -r0]
    50dc:	1d000000 	stcne	0, cr0, [r0, #-0]
    50e0:	002c0800 	eoreq	r0, ip, r0, lsl #16
    50e4:	07f60000 	ldrbeq	r0, [r6, r0]!
    50e8:	c7090000 	strgt	r0, [r9, -r0]
    50ec:	1d000000 	stcne	0, cr0, [r0, #-0]
    50f0:	05f01b00 	ldrbeq	r1, [r0, #2816]!	; 0xb00
    50f4:	08180255 	ldmdaeq	r8, {r0, r2, r4, r6, r9}
    50f8:	851c0000 	ldrhi	r0, [ip, #-0]
    50fc:	05000003 	streq	r0, [r0, #-3]
    5100:	0681026c 	streq	r0, [r1], ip, ror #4
    5104:	c21c0000 	andsgt	r0, ip, #0
    5108:	05000004 	streq	r0, [r0, #-4]
    510c:	07b20275 			; <UNDEFINED> instruction: 0x07b20275
    5110:	08000000 	stmdaeq	r0, {}	; <UNPREDICTABLE>
    5114:	0000010d 	andeq	r0, r0, sp, lsl #2
    5118:	00000828 	andeq	r0, r0, r8, lsr #16
    511c:	0000c709 	andeq	ip, r0, r9, lsl #14
    5120:	1d001800 	stcne	8, cr1, [r0, #-0]
    5124:	00000833 	andeq	r0, r0, r3, lsr r8
    5128:	00042415 	andeq	r2, r4, r5, lsl r4
    512c:	040d0000 	streq	r0, [sp], #-0
    5130:	00000828 	andeq	r0, r0, r8, lsr #16
    5134:	0177040d 	cmneq	r7, sp, lsl #8
    5138:	4a1d0000 	bmi	745140 <__bss_end__+0x73b6d8>
    513c:	15000008 	strne	r0, [r0, #-8]
    5140:	00000025 	andeq	r0, r0, r5, lsr #32
    5144:	50040d00 	andpl	r0, r4, r0, lsl #26
    5148:	0d000008 	stceq	0, cr0, [r0, #-32]	; 0xffffffe0
    514c:	00083f04 	andeq	r3, r8, r4, lsl #30
    5150:	05ef0800 	strbeq	r0, [pc, #2048]!	; 5958 <_start-0x26a8>
    5154:	08660000 	stmdaeq	r6!, {}^	; <UNPREDICTABLE>
    5158:	c7090000 	strgt	r0, [r9, -r0]
    515c:	02000000 	andeq	r0, r0, #0
    5160:	04581e00 	ldrbeq	r1, [r8], #-3584	; 0xfffff200
    5164:	fd050000 	stc2	0, cr0, [r5, #-0]
    5168:	00042402 	andeq	r2, r4, r2, lsl #8
    516c:	04511e00 	ldrbeq	r1, [r1], #-3584	; 0xfffff200
    5170:	fe050000 	cdp2	0, 0, cr0, cr5, cr0, {0}
    5174:	00042a02 	andeq	r2, r4, r2, lsl #20
    5178:	00251400 	eoreq	r1, r5, r0, lsl #8
    517c:	088d0000 	stmeq	sp, {}	; <UNPREDICTABLE>
    5180:	25150000 	ldrcs	r0, [r5, #-0]
    5184:	00000000 	andeq	r0, r0, r0
    5188:	0001bd1f 	andeq	fp, r1, pc, lsl sp
    518c:	981d0600 	ldmdals	sp, {r9, sl}
    5190:	0d000008 	stceq	0, cr0, [r0, #-32]	; 0xffffffe0
    5194:	00087e04 	andeq	r7, r8, r4, lsl #28
    5198:	00251400 	eoreq	r1, r5, r0, lsl #8
    519c:	08ad0000 	stmiaeq	sp!, {}	; <UNPREDICTABLE>
    51a0:	85150000 	ldrhi	r0, [r5, #-0]
    51a4:	00000005 	andeq	r0, r0, r5
    51a8:	0007561f 	andeq	r5, r7, pc, lsl r6
    51ac:	b8220600 	stmdalt	r2!, {r9, sl}
    51b0:	0d000008 	stceq	0, cr0, [r0, #-32]	; 0xffffffe0
    51b4:	00089e04 	andeq	r9, r8, r4, lsl #28
    51b8:	08ad2000 	stmiaeq	sp!, {sp}
    51bc:	0c010000 	stceq	0, cr0, [r1], {-0}
    51c0:	92300305 	eorsls	r0, r0, #335544320	; 0x14000000
    51c4:	4d210000 	stcmi	0, cr0, [r1, #-0]
    51c8:	01000007 	tsteq	r0, r7
    51cc:	00002504 	andeq	r2, r0, r4, lsl #10
    51d0:	008d4800 	addeq	r4, sp, r0, lsl #16
    51d4:	00003400 	andeq	r3, r0, r0, lsl #8
    51d8:	229c0100 	addscs	r0, ip, #0, 2
    51dc:	04010070 	streq	r0, [r1], #-112	; 0xffffff90
    51e0:	00000585 	andeq	r0, r0, r5, lsl #11
    51e4:	00000d49 	andeq	r0, r0, r9, asr #26
    51e8:	093d0000 	ldmdbeq	sp!, {}	; <UNPREDICTABLE>
    51ec:	00040000 	andeq	r0, r4, r0
    51f0:	00000ef2 	strdeq	r0, [r0], -r2
    51f4:	03bf0104 			; <UNDEFINED> instruction: 0x03bf0104
    51f8:	8f0c0000 	svchi	0x000c0000
    51fc:	b6000007 	strlt	r0, [r0], -r7
    5200:	7c000006 	stcvc	0, cr0, [r0], {6}
    5204:	3c00008d 	stccc	0, cr0, [r0], {141}	; 0x8d
    5208:	e3000000 	movw	r0, #0
    520c:	02000008 	andeq	r0, r0, #8
    5210:	6e690504 	cdpvs	5, 6, cr0, cr9, cr4, {0}
    5214:	04030074 	streq	r0, [r3], #-116	; 0xffffff8c
    5218:	00006607 	andeq	r6, r0, r7, lsl #12
    521c:	06010300 	streq	r0, [r1], -r0, lsl #6
    5220:	000002e3 	andeq	r0, r0, r3, ror #5
    5224:	fd050203 	stc2	2, cr0, [r5, #-12]
    5228:	03000002 	movweq	r0, #2
    522c:	00af0504 	adceq	r0, pc, r4, lsl #10
    5230:	08030000 	stmdaeq	r3, {}	; <UNPREDICTABLE>
    5234:	0000aa05 	andeq	sl, r0, r5, lsl #20
    5238:	08010300 	stmdaeq	r1, {r8, r9}
    523c:	000002e1 	andeq	r0, r0, r1, ror #5
    5240:	0e070203 	cdpeq	2, 0, cr0, cr7, cr3, {0}
    5244:	03000002 	movweq	r0, #2
    5248:	00610704 	rsbeq	r0, r1, r4, lsl #14
    524c:	08030000 	stmdaeq	r3, {}	; <UNPREDICTABLE>
    5250:	00005c07 	andeq	r5, r0, r7, lsl #24
    5254:	02cf0400 	sbceq	r0, pc, #0, 8
    5258:	07020000 	streq	r0, [r2, -r0]
    525c:	00000025 	andeq	r0, r0, r5, lsr #32
    5260:	0002be04 	andeq	fp, r2, r4, lsl #28
    5264:	412c0300 			; <UNDEFINED> instruction: 0x412c0300
    5268:	04000000 	streq	r0, [r0], #-0
    526c:	000003a8 	andeq	r0, r0, r8, lsr #7
    5270:	00417203 	subeq	r7, r1, r3, lsl #4
    5274:	5f050000 	svcpl	0x00050000
    5278:	04000002 	streq	r0, [r0], #-2
    527c:	002c0165 	eoreq	r0, ip, r5, ror #2
    5280:	04060000 	streq	r0, [r6], #-0
    5284:	00b7a603 	adcseq	sl, r7, r3, lsl #12
    5288:	59070000 	stmdbpl	r7, {}	; <UNPREDICTABLE>
    528c:	03000002 	movweq	r0, #2
    5290:	00008ca8 	andeq	r8, r0, r8, lsr #25
    5294:	01ce0700 	biceq	r0, lr, r0, lsl #14
    5298:	a9030000 	stmdbge	r3, {}	; <UNPREDICTABLE>
    529c:	000000b7 	strheq	r0, [r0], -r7
    52a0:	004f0800 	subeq	r0, pc, r0, lsl #16
    52a4:	00c70000 	sbceq	r0, r7, r0
    52a8:	c7090000 	strgt	r0, [r9, -r0]
    52ac:	03000000 	movweq	r0, #0
    52b0:	07040300 	streq	r0, [r4, -r0, lsl #6]
    52b4:	00000292 	muleq	r0, r2, r2
    52b8:	a303080a 	movwge	r0, #14346	; 0x380a
    52bc:	000000ef 	andeq	r0, r0, pc, ror #1
    52c0:	0003920b 	andeq	r9, r3, fp, lsl #4
    52c4:	25a50300 	strcs	r0, [r5, #768]!	; 0x300
    52c8:	00000000 	andeq	r0, r0, r0
    52cc:	00039a0b 	andeq	r9, r3, fp, lsl #20
    52d0:	98aa0300 	stmials	sl!, {r8, r9}
    52d4:	04000000 	streq	r0, [r0], #-0
    52d8:	03250400 			; <UNDEFINED> instruction: 0x03250400
    52dc:	ab030000 	blge	c52e4 <__bss_end__+0xbb87c>
    52e0:	000000ce 	andeq	r0, r0, lr, asr #1
    52e4:	00018b04 	andeq	r8, r1, r4, lsl #22
    52e8:	6baf0300 	blvs	febc5ef0 <__bss_end__+0xfebbc488>
    52ec:	0c000000 	stceq	0, cr0, [r0], {-0}
    52f0:	0d040d04 	stceq	13, cr0, [r4, #-16]
    52f4:	03000001 	movweq	r0, #1
    52f8:	02ea0801 	rsceq	r0, sl, #65536	; 0x10000
    52fc:	0d0e0000 	stceq	0, cr0, [lr, #-0]
    5300:	04000001 	streq	r0, [r0], #-1
    5304:	0000043c 	andeq	r0, r0, ip, lsr r4
    5308:	005d1605 	subseq	r1, sp, r5, lsl #12
    530c:	9c0f0000 	stcls	0, cr0, [pc], {-0}
    5310:	18000001 	stmdane	r0, {r0}
    5314:	01772d05 	cmneq	r7, r5, lsl #26
    5318:	460b0000 	strmi	r0, [fp], -r0
    531c:	05000003 	streq	r0, [r0, #-3]
    5320:	0001772f 	andeq	r7, r1, pc, lsr #14
    5324:	5f100000 	svcpl	0x00100000
    5328:	3005006b 	andcc	r0, r5, fp, rrx
    532c:	00000025 	andeq	r0, r0, r5, lsr #32
    5330:	037d0b04 	cmneq	sp, #4, 22	; 0x1000
    5334:	30050000 	andcc	r0, r5, r0
    5338:	00000025 	andeq	r0, r0, r5, lsr #32
    533c:	01850b08 	orreq	r0, r5, r8, lsl #22
    5340:	30050000 	andcc	r0, r5, r0
    5344:	00000025 	andeq	r0, r0, r5, lsr #32
    5348:	048a0b0c 	streq	r0, [sl], #2828	; 0xb0c
    534c:	30050000 	andcc	r0, r5, r0
    5350:	00000025 	andeq	r0, r0, r5, lsr #32
    5354:	785f1010 	ldmdavc	pc, {r4, ip}^	; <UNPREDICTABLE>
    5358:	7d310500 	cfldr32vc	mvfx0, [r1, #-0]
    535c:	14000001 	strne	r0, [r0], #-1
    5360:	24040d00 	strcs	r0, [r4], #-3328	; 0xfffff300
    5364:	08000001 	stmdaeq	r0, {r0}
    5368:	00000119 	andeq	r0, r0, r9, lsl r1
    536c:	0000018d 	andeq	r0, r0, sp, lsl #3
    5370:	0000c709 	andeq	ip, r0, r9, lsl #14
    5374:	0f000000 	svceq	0x00000000
    5378:	000001c9 	andeq	r0, r0, r9, asr #3
    537c:	06350524 	ldrteq	r0, [r5], -r4, lsr #10
    5380:	0b000002 	bleq	5390 <_start-0x2c70>
    5384:	000000a1 	andeq	r0, r0, r1, lsr #1
    5388:	00253705 	eoreq	r3, r5, r5, lsl #14
    538c:	0b000000 	bleq	5394 <_start-0x2c6c>
    5390:	000003b0 			; <UNDEFINED> instruction: 0x000003b0
    5394:	00253805 	eoreq	r3, r5, r5, lsl #16
    5398:	0b040000 	bleq	1053a0 <__bss_end__+0xfb938>
    539c:	000000c4 	andeq	r0, r0, r4, asr #1
    53a0:	00253905 	eoreq	r3, r5, r5, lsl #18
    53a4:	0b080000 	bleq	2053ac <__bss_end__+0x1fb944>
    53a8:	00000503 	andeq	r0, r0, r3, lsl #10
    53ac:	00253a05 	eoreq	r3, r5, r5, lsl #20
    53b0:	0b0c0000 	bleq	3053b8 <__bss_end__+0x2fb950>
    53b4:	000002a2 	andeq	r0, r0, r2, lsr #5
    53b8:	00253b05 	eoreq	r3, r5, r5, lsl #22
    53bc:	0b100000 	bleq	4053c4 <__bss_end__+0x3fb95c>
    53c0:	0000027b 	andeq	r0, r0, fp, ror r2
    53c4:	00253c05 	eoreq	r3, r5, r5, lsl #24
    53c8:	0b140000 	bleq	5053d0 <__bss_end__+0x4fb968>
    53cc:	0000048f 	andeq	r0, r0, pc, lsl #9
    53d0:	00253d05 	eoreq	r3, r5, r5, lsl #26
    53d4:	0b180000 	bleq	6053dc <__bss_end__+0x5fb974>
    53d8:	00000307 	andeq	r0, r0, r7, lsl #6
    53dc:	00253e05 	eoreq	r3, r5, r5, lsl #28
    53e0:	0b1c0000 	bleq	7053e8 <__bss_end__+0x6fb980>
    53e4:	000004ca 	andeq	r0, r0, sl, asr #9
    53e8:	00253f05 	eoreq	r3, r5, r5, lsl #30
    53ec:	00200000 	eoreq	r0, r0, r0
    53f0:	00010411 	andeq	r0, r1, r1, lsl r4
    53f4:	05010800 	streq	r0, [r1, #-2048]	; 0xfffff800
    53f8:	00024648 	andeq	r4, r2, r8, asr #12
    53fc:	01780b00 	cmneq	r8, r0, lsl #22
    5400:	49050000 	stmdbmi	r5, {}	; <UNPREDICTABLE>
    5404:	00000246 	andeq	r0, r0, r6, asr #4
    5408:	00000b00 	andeq	r0, r0, r0, lsl #22
    540c:	4a050000 	bmi	145414 <__bss_end__+0x13b9ac>
    5410:	00000246 	andeq	r0, r0, r6, asr #4
    5414:	042e1280 	strteq	r1, [lr], #-640	; 0xfffffd80
    5418:	4c050000 	stcmi	0, cr0, [r5], {-0}
    541c:	00000119 	andeq	r0, r0, r9, lsl r1
    5420:	29120100 	ldmdbcs	r2, {r8}
    5424:	05000001 	streq	r0, [r0, #-1]
    5428:	0001194f 	andeq	r1, r1, pc, asr #18
    542c:	00010400 	andeq	r0, r1, r0, lsl #8
    5430:	00010508 	andeq	r0, r1, r8, lsl #10
    5434:	00025600 	andeq	r5, r2, r0, lsl #12
    5438:	00c70900 	sbceq	r0, r7, r0, lsl #18
    543c:	001f0000 	andseq	r0, pc, r0
    5440:	0002ab11 	andeq	sl, r2, r1, lsl fp
    5444:	05019000 	streq	r9, [r1, #-0]
    5448:	0002945b 	andeq	r9, r2, fp, asr r4
    544c:	03460b00 	movteq	r0, #27392	; 0x6b00
    5450:	5c050000 	stcpl	0, cr0, [r5], {-0}
    5454:	00000294 	muleq	r0, r4, r2
    5458:	035e0b00 	cmpeq	lr, #0, 22
    545c:	5d050000 	stcpl	0, cr0, [r5, #-0]
    5460:	00000025 	andeq	r0, r0, r5, lsr #32
    5464:	01800b04 	orreq	r0, r0, r4, lsl #22
    5468:	5f050000 	svcpl	0x00050000
    546c:	0000029a 	muleq	r0, sl, r2
    5470:	01040b08 	tsteq	r4, r8, lsl #22
    5474:	60050000 	andvs	r0, r5, r0
    5478:	00000206 	andeq	r0, r0, r6, lsl #4
    547c:	040d0088 	streq	r0, [sp], #-136	; 0xffffff78
    5480:	00000256 	andeq	r0, r0, r6, asr r2
    5484:	0002aa08 	andeq	sl, r2, r8, lsl #20
    5488:	0002aa00 	andeq	sl, r2, r0, lsl #20
    548c:	00c70900 	sbceq	r0, r7, r0, lsl #18
    5490:	001f0000 	andseq	r0, pc, r0
    5494:	02b0040d 	adcseq	r0, r0, #218103808	; 0xd000000
    5498:	0f130000 	svceq	0x00130000
    549c:	00000311 	andeq	r0, r0, r1, lsl r3
    54a0:	d6730508 	ldrbtle	r0, [r3], -r8, lsl #10
    54a4:	0b000002 	bleq	54b4 <_start-0x2b4c>
    54a8:	000000be 	strheq	r0, [r0], -lr
    54ac:	02d67405 	sbcseq	r7, r6, #83886080	; 0x5000000
    54b0:	0b000000 	bleq	54b8 <_start-0x2b48>
    54b4:	0000001b 	andeq	r0, r0, fp, lsl r0
    54b8:	00257505 	eoreq	r7, r5, r5, lsl #10
    54bc:	00040000 	andeq	r0, r4, r0
    54c0:	004f040d 	subeq	r0, pc, sp, lsl #8
    54c4:	300f0000 	andcc	r0, pc, r0
    54c8:	68000003 	stmdavs	r0, {r0, r1}
    54cc:	0406b305 	streq	fp, [r6], #-773	; 0xfffffcfb
    54d0:	5f100000 	svcpl	0x00100000
    54d4:	b4050070 	strlt	r0, [r5], #-112	; 0xffffff90
    54d8:	000002d6 	ldrdeq	r0, [r0], -r6
    54dc:	725f1000 	subsvc	r1, pc, #0
    54e0:	25b50500 	ldrcs	r0, [r5, #1280]!	; 0x500
    54e4:	04000000 	streq	r0, [r0], #-0
    54e8:	00775f10 	rsbseq	r5, r7, r0, lsl pc
    54ec:	0025b605 	eoreq	fp, r5, r5, lsl #12
    54f0:	0b080000 	bleq	2054f8 <__bss_end__+0x1fba90>
    54f4:	00000122 	andeq	r0, r0, r2, lsr #2
    54f8:	003ab705 	eorseq	fp, sl, r5, lsl #14
    54fc:	0b0c0000 	bleq	305504 <__bss_end__+0x2fba9c>
    5500:	000001f4 	strdeq	r0, [r0], -r4
    5504:	003ab805 	eorseq	fp, sl, r5, lsl #16
    5508:	100e0000 	andne	r0, lr, r0
    550c:	0066625f 	rsbeq	r6, r6, pc, asr r2
    5510:	02b1b905 	adcseq	fp, r1, #81920	; 0x14000
    5514:	0b100000 	bleq	40551c <__bss_end__+0x3fbab4>
    5518:	0000007b 	andeq	r0, r0, fp, ror r0
    551c:	0025ba05 	eoreq	fp, r5, r5, lsl #20
    5520:	0b180000 	bleq	605528 <__bss_end__+0x5fbac0>
    5524:	00000112 	andeq	r0, r0, r2, lsl r1
    5528:	0105c105 	tsteq	r5, r5, lsl #2
    552c:	0b1c0000 	bleq	705534 <__bss_end__+0x6fbacc>
    5530:	00000a5e 	andeq	r0, r0, lr, asr sl
    5534:	0561c305 	strbeq	ip, [r1, #-773]!	; 0xfffffcfb
    5538:	0b200000 	bleq	805540 <__bss_end__+0x7fbad8>
    553c:	00000a78 	andeq	r0, r0, r8, ror sl
    5540:	058bc505 	streq	ip, [fp, #1285]	; 0x505
    5544:	0b240000 	bleq	90554c <__bss_end__+0x8fbae4>
    5548:	000003a2 	andeq	r0, r0, r2, lsr #7
    554c:	05afc805 	streq	ip, [pc, #2053]!	; 5d59 <_start-0x22a7>
    5550:	0b280000 	bleq	a05558 <__bss_end__+0x9fbaf0>
    5554:	000004e4 	andeq	r0, r0, r4, ror #9
    5558:	05c9c905 	strbeq	ip, [r9, #2309]	; 0x905
    555c:	102c0000 	eorne	r0, ip, r0
    5560:	0062755f 	rsbeq	r7, r2, pc, asr r5
    5564:	02b1cc05 	adcseq	ip, r1, #1280	; 0x500
    5568:	10300000 	eorsne	r0, r0, r0
    556c:	0070755f 	rsbseq	r7, r0, pc, asr r5
    5570:	02d6cd05 	sbcseq	ip, r6, #320	; 0x140
    5574:	10380000 	eorsne	r0, r8, r0
    5578:	0072755f 	rsbseq	r7, r2, pc, asr r5
    557c:	0025ce05 	eoreq	ip, r5, r5, lsl #28
    5580:	0b3c0000 	bleq	f05588 <__bss_end__+0xefbb20>
    5584:	000000b8 	strheq	r0, [r0], -r8
    5588:	05cfd105 	strbeq	sp, [pc, #261]	; 5695 <_start-0x296b>
    558c:	0b400000 	bleq	1005594 <__bss_end__+0xffbb2c>
    5590:	000004bc 			; <UNDEFINED> instruction: 0x000004bc
    5594:	05dfd205 	ldrbeq	sp, [pc, #517]	; 57a1 <_start-0x285f>
    5598:	10430000 	subne	r0, r3, r0
    559c:	00626c5f 	rsbeq	r6, r2, pc, asr ip
    55a0:	02b1d505 	adcseq	sp, r1, #20971520	; 0x1400000
    55a4:	0b440000 	bleq	11055ac <__bss_end__+0x10fbb44>
    55a8:	00000140 	andeq	r0, r0, r0, asr #2
    55ac:	0025d805 	eoreq	sp, r5, r5, lsl #16
    55b0:	0b4c0000 	bleq	13055b8 <__bss_end__+0x12fbb50>
    55b4:	00000151 	andeq	r0, r0, r1, asr r1
    55b8:	0076d905 	rsbseq	sp, r6, r5, lsl #18
    55bc:	0b500000 	bleq	14055c4 <__bss_end__+0x13fbb5c>
    55c0:	000009ff 	strdeq	r0, [r0], -pc	; <UNPREDICTABLE>
    55c4:	0424dc05 	strteq	sp, [r4], #-3077	; 0xfffff3fb
    55c8:	0b540000 	bleq	15055d0 <__bss_end__+0x14fbb68>
    55cc:	0000026d 	andeq	r0, r0, sp, ror #4
    55d0:	00fae005 	rscseq	lr, sl, r5
    55d4:	0b580000 	bleq	16055dc <__bss_end__+0x15fbb74>
    55d8:	00000338 	andeq	r0, r0, r8, lsr r3
    55dc:	00efe205 	rsceq	lr, pc, r5, lsl #4
    55e0:	0b5c0000 	bleq	17055e8 <__bss_end__+0x16fbb80>
    55e4:	00000273 	andeq	r0, r0, r3, ror r2
    55e8:	0025e305 	eoreq	lr, r5, r5, lsl #6
    55ec:	00640000 	rsbeq	r0, r4, r0
    55f0:	00002514 	andeq	r2, r0, r4, lsl r5
    55f4:	00042400 	andeq	r2, r4, r0, lsl #8
    55f8:	04241500 	strteq	r1, [r4], #-1280	; 0xfffffb00
    55fc:	05150000 	ldreq	r0, [r5, #-0]
    5600:	15000001 	strne	r0, [r0, #-1]
    5604:	00000107 	andeq	r0, r0, r7, lsl #2
    5608:	00002515 	andeq	r2, r0, r5, lsl r5
    560c:	040d0000 	streq	r0, [sp], #-0
    5610:	0000042f 	andeq	r0, r0, pc, lsr #8
    5614:	0004240e 	andeq	r2, r4, lr, lsl #8
    5618:	03851600 	orreq	r1, r5, #0, 12
    561c:	04280000 	strteq	r0, [r8], #-0
    5620:	61023805 	tstvs	r2, r5, lsl #16
    5624:	17000005 	strne	r0, [r0, -r5]
    5628:	000002f6 	strdeq	r0, [r0], -r6
    562c:	25023a05 	strcs	r3, [r2, #-2565]	; 0xfffff5fb
    5630:	00000000 	andeq	r0, r0, r0
    5634:	00013117 	andeq	r3, r1, r7, lsl r1
    5638:	023f0500 	eorseq	r0, pc, #0, 10
    563c:	00000636 	andeq	r0, r0, r6, lsr r6
    5640:	01e41704 	mvneq	r1, r4, lsl #14
    5644:	3f050000 	svccc	0x00050000
    5648:	00063602 	andeq	r3, r6, r2, lsl #12
    564c:	94170800 	ldrls	r0, [r7], #-2048	; 0xfffff800
    5650:	05000001 	streq	r0, [r0, #-1]
    5654:	0636023f 			; <UNDEFINED> instruction: 0x0636023f
    5658:	170c0000 	strne	r0, [ip, -r0]
    565c:	00000359 	andeq	r0, r0, r9, asr r3
    5660:	25024105 	strcs	r4, [r2, #-261]	; 0xfffffefb
    5664:	10000000 	andne	r0, r0, r0
    5668:	00002917 	andeq	r2, r0, r7, lsl r9
    566c:	02420500 	subeq	r0, r2, #0, 10
    5670:	00000818 	andeq	r0, r0, r8, lsl r8
    5674:	04641714 	strbteq	r1, [r4], #-1812	; 0xfffff8ec
    5678:	44050000 	strmi	r0, [r5], #-0
    567c:	00002502 	andeq	r2, r0, r2, lsl #10
    5680:	63173000 	tstvs	r7, #0
    5684:	05000003 	streq	r0, [r0, #-3]
    5688:	05850245 	streq	r0, [r5, #581]	; 0x245
    568c:	17340000 	ldrne	r0, [r4, -r0]!
    5690:	000002b3 			; <UNDEFINED> instruction: 0x000002b3
    5694:	25024705 	strcs	r4, [r2, #-1797]	; 0xfffff8fb
    5698:	38000000 	stmdacc	r0, {}	; <UNPREDICTABLE>
    569c:	00037317 	andeq	r7, r3, r7, lsl r3
    56a0:	02490500 	subeq	r0, r9, #0, 10
    56a4:	00000833 	andeq	r0, r0, r3, lsr r8
    56a8:	0251173c 	subseq	r1, r1, #60, 14	; 0xf00000
    56ac:	4c050000 	stcmi	0, cr0, [r5], {-0}
    56b0:	00017702 	andeq	r7, r1, r2, lsl #14
    56b4:	b3174000 	tstlt	r7, #0
    56b8:	05000001 	streq	r0, [r0, #-1]
    56bc:	0025024d 	eoreq	r0, r5, sp, asr #4
    56c0:	17440000 	strbne	r0, [r4, -r0]
    56c4:	000004fe 	strdeq	r0, [r0], -lr
    56c8:	77024e05 	strvc	r4, [r2, -r5, lsl #28]
    56cc:	48000001 	stmdami	r0, {r0}
    56d0:	0002c517 	andeq	ip, r2, r7, lsl r5
    56d4:	024f0500 	subeq	r0, pc, #0, 10
    56d8:	00000839 	andeq	r0, r0, r9, lsr r8
    56dc:	01ec174c 	mvneq	r1, ip, asr #14
    56e0:	52050000 	andpl	r0, r5, #0
    56e4:	00002502 	andeq	r2, r0, r2, lsl #10
    56e8:	49175000 	ldmdbmi	r7, {ip, lr}
    56ec:	05000001 	streq	r0, [r0, #-1]
    56f0:	01070253 	tsteq	r7, r3, asr r2
    56f4:	17540000 	ldrbne	r0, [r4, -r0]
    56f8:	000002ef 	andeq	r0, r0, pc, ror #5
    56fc:	f6027605 			; <UNDEFINED> instruction: 0xf6027605
    5700:	58000007 	stmdapl	r0, {r0, r1, r2}
    5704:	0002ab18 	andeq	sl, r2, r8, lsl fp
    5708:	027a0500 	rsbseq	r0, sl, #0, 10
    570c:	00000294 	muleq	r0, r4, r2
    5710:	2f180148 	svccs	0x00180148
    5714:	05000002 	streq	r0, [r0, #-2]
    5718:	0256027b 	subseq	r0, r6, #-1342177273	; 0xb0000007
    571c:	014c0000 	mrseq	r0, (UNDEF: 76)
    5720:	0004b218 	andeq	fp, r4, r8, lsl r2
    5724:	027f0500 	rsbseq	r0, pc, #0, 10
    5728:	0000084a 	andeq	r0, r0, sl, asr #16
    572c:	1a1802dc 	bne	6062a4 <__bss_end__+0x5fc83c>
    5730:	05000001 	streq	r0, [r0, #-1]
    5734:	05fb0284 	ldrbeq	r0, [fp, #644]!	; 0x284
    5738:	02e00000 	rsceq	r0, r0, #0
    573c:	0000ff18 	andeq	pc, r0, r8, lsl pc	; <UNPREDICTABLE>
    5740:	02850500 	addeq	r0, r5, #0, 10
    5744:	00000856 	andeq	r0, r0, r6, asr r8
    5748:	0d0002ec 	sfmeq	f0, 4, [r0, #-944]	; 0xfffffc50
    574c:	00040604 	andeq	r0, r4, r4, lsl #12
    5750:	00251400 	eoreq	r1, r5, r0, lsl #8
    5754:	05850000 	streq	r0, [r5]
    5758:	24150000 	ldrcs	r0, [r5], #-0
    575c:	15000004 	strne	r0, [r0, #-4]
    5760:	00000105 	andeq	r0, r0, r5, lsl #2
    5764:	00058515 	andeq	r8, r5, r5, lsl r5
    5768:	00251500 	eoreq	r1, r5, r0, lsl #10
    576c:	0d000000 	stceq	0, cr0, [r0, #-0]
    5770:	00011404 	andeq	r1, r1, r4, lsl #8
    5774:	67040d00 	strvs	r0, [r4, -r0, lsl #26]
    5778:	14000005 	strne	r0, [r0], #-5
    577c:	00000081 	andeq	r0, r0, r1, lsl #1
    5780:	000005af 	andeq	r0, r0, pc, lsr #11
    5784:	00042415 	andeq	r2, r4, r5, lsl r4
    5788:	01051500 	tsteq	r5, r0, lsl #10
    578c:	81150000 	tsthi	r5, r0
    5790:	15000000 	strne	r0, [r0, #-0]
    5794:	00000025 	andeq	r0, r0, r5, lsr #32
    5798:	91040d00 	tstls	r4, r0, lsl #26
    579c:	14000005 	strne	r0, [r0], #-5
    57a0:	00000025 	andeq	r0, r0, r5, lsr #32
    57a4:	000005c9 	andeq	r0, r0, r9, asr #11
    57a8:	00042415 	andeq	r2, r4, r5, lsl r4
    57ac:	01051500 	tsteq	r5, r0, lsl #10
    57b0:	0d000000 	stceq	0, cr0, [r0, #-0]
    57b4:	0005b504 	andeq	fp, r5, r4, lsl #10
    57b8:	004f0800 	subeq	r0, pc, r0, lsl #16
    57bc:	05df0000 	ldrbeq	r0, [pc]	; 57c4 <_start-0x283c>
    57c0:	c7090000 	strgt	r0, [r9, -r0]
    57c4:	02000000 	andeq	r0, r0, #0
    57c8:	004f0800 	subeq	r0, pc, r0, lsl #16
    57cc:	05ef0000 	strbeq	r0, [pc, #0]!	; 57d4 <_start-0x282c>
    57d0:	c7090000 	strgt	r0, [r9, -r0]
    57d4:	00000000 	andeq	r0, r0, r0
    57d8:	031e0500 	tsteq	lr, #0, 10
    57dc:	1d050000 	stcne	0, cr0, [r5, #-0]
    57e0:	0002dc01 	andeq	sp, r2, r1, lsl #24
    57e4:	04991900 	ldreq	r1, [r9], #2304	; 0x900
    57e8:	050c0000 	streq	r0, [ip, #-0]
    57ec:	06300121 	ldrteq	r0, [r0], -r1, lsr #2
    57f0:	46170000 	ldrmi	r0, [r7], -r0
    57f4:	05000003 	streq	r0, [r0, #-3]
    57f8:	06300123 	ldrteq	r0, [r0], -r3, lsr #2
    57fc:	17000000 	strne	r0, [r0, -r0]
    5800:	00000207 	andeq	r0, r0, r7, lsl #4
    5804:	25012405 	strcs	r2, [r1, #-1029]	; 0xfffffbfb
    5808:	04000000 	streq	r0, [r0], #-0
    580c:	00031817 	andeq	r1, r3, r7, lsl r8
    5810:	01250500 			; <UNDEFINED> instruction: 0x01250500
    5814:	00000636 	andeq	r0, r0, r6, lsr r6
    5818:	040d0008 	streq	r0, [sp], #-8
    581c:	000005fb 	strdeq	r0, [r0], -fp
    5820:	05ef040d 	strbeq	r0, [pc, #1037]!	; 5c35 <_start-0x23cb>
    5824:	21190000 	tstcs	r9, r0
    5828:	0e000000 	cdpeq	0, 0, cr0, cr0, cr0, {0}
    582c:	71013d05 	tstvc	r1, r5, lsl #26
    5830:	17000006 	strne	r0, [r0, -r6]
    5834:	0000038c 	andeq	r0, r0, ip, lsl #7
    5838:	71013e05 	tstvc	r1, r5, lsl #28
    583c:	00000006 	andeq	r0, r0, r6
    5840:	0003b917 	andeq	fp, r3, r7, lsl r9
    5844:	013f0500 	teqeq	pc, r0, lsl #10
    5848:	00000671 	andeq	r0, r0, r1, ror r6
    584c:	04371706 	ldrteq	r1, [r7], #-1798	; 0xfffff8fa
    5850:	40050000 	andmi	r0, r5, r0
    5854:	00005601 	andeq	r5, r0, r1, lsl #12
    5858:	08000c00 	stmdaeq	r0, {sl, fp}
    585c:	00000056 	andeq	r0, r0, r6, asr r0
    5860:	00000681 	andeq	r0, r0, r1, lsl #13
    5864:	0000c709 	andeq	ip, r0, r9, lsl #14
    5868:	1a000200 	bne	6070 <_start-0x1f90>
    586c:	025705d0 	subseq	r0, r7, #208, 10	; 0x34000000
    5870:	00000782 	andeq	r0, r0, r2, lsl #15
    5874:	00047d17 	andeq	r7, r4, r7, lsl sp
    5878:	02590500 	subseq	r0, r9, #0, 10
    587c:	0000002c 	andeq	r0, r0, ip, lsr #32
    5880:	04211700 	strteq	r1, [r1], #-1792	; 0xfffff900
    5884:	5a050000 	bpl	14588c <__bss_end__+0x13be24>
    5888:	00010702 	andeq	r0, r1, r2, lsl #14
    588c:	44170400 	ldrmi	r0, [r7], #-1024	; 0xfffffc00
    5890:	05000002 	streq	r0, [r0, #-2]
    5894:	0782025b 			; <UNDEFINED> instruction: 0x0782025b
    5898:	17080000 	strne	r0, [r8, -r0]
    589c:	000004d5 	ldrdeq	r0, [r0], -r5
    58a0:	8d025c05 	stchi	12, cr5, [r2, #-20]	; 0xffffffec
    58a4:	24000001 	strcs	r0, [r0], #-1
    58a8:	0001a417 	andeq	sl, r1, r7, lsl r4
    58ac:	025d0500 	subseq	r0, sp, #0, 10
    58b0:	00000025 	andeq	r0, r0, r5, lsr #32
    58b4:	03411748 	movteq	r1, #5960	; 0x1748
    58b8:	5e050000 	cdppl	0, 0, cr0, cr5, cr0, {0}
    58bc:	00006402 	andeq	r6, r0, r2, lsl #8
    58c0:	eb175000 	bl	5d98c8 <__bss_end__+0x5cfe60>
    58c4:	05000004 	streq	r0, [r0, #-4]
    58c8:	063c025f 			; <UNDEFINED> instruction: 0x063c025f
    58cc:	17580000 	ldrbne	r0, [r8, -r0]
    58d0:	0000034c 	andeq	r0, r0, ip, asr #6
    58d4:	ef026005 	svc	0x00026005
    58d8:	68000000 	stmdavs	r0, {}	; <UNPREDICTABLE>
    58dc:	0004f017 	andeq	pc, r4, r7, lsl r0	; <UNPREDICTABLE>
    58e0:	02610500 	rsbeq	r0, r1, #0, 10
    58e4:	000000ef 	andeq	r0, r0, pc, ror #1
    58e8:	00931770 	addseq	r1, r3, r0, ror r7
    58ec:	62050000 	andvs	r0, r5, #0
    58f0:	0000ef02 	andeq	lr, r0, r2, lsl #30
    58f4:	a8177800 	ldmdage	r7, {fp, ip, sp, lr}
    58f8:	05000004 	streq	r0, [r0, #-4]
    58fc:	07920263 	ldreq	r0, [r2, r3, ror #4]
    5900:	17800000 	strne	r0, [r0, r0]
    5904:	00000238 	andeq	r0, r0, r8, lsr r2
    5908:	a2026405 	andge	r6, r2, #83886080	; 0x5000000
    590c:	88000007 	stmdahi	r0, {r0, r1, r2}
    5910:	00044417 	andeq	r4, r4, r7, lsl r4
    5914:	02650500 	rsbeq	r0, r5, #0, 10
    5918:	00000025 	andeq	r0, r0, r5, lsr #32
    591c:	016a17a0 	cmneq	sl, r0, lsr #15
    5920:	66050000 	strvs	r0, [r5], -r0
    5924:	0000ef02 	andeq	lr, r0, r2, lsl #30
    5928:	8417a400 	ldrhi	sl, [r7], #-1024	; 0xfffffc00
    592c:	05000000 	streq	r0, [r0, #-0]
    5930:	00ef0267 	rsceq	r0, pc, r7, ror #4
    5934:	17ac0000 	strne	r0, [ip, r0]!
    5938:	00000159 	andeq	r0, r0, r9, asr r1
    593c:	ef026805 	svc	0x00026805
    5940:	b4000000 	strlt	r0, [r0], #-0
    5944:	00003c17 	andeq	r3, r0, r7, lsl ip
    5948:	02690500 	rsbeq	r0, r9, #0, 10
    594c:	000000ef 	andeq	r0, r0, pc, ror #1
    5950:	004b17bc 	strheq	r1, [fp], #-124	; 0xffffff84
    5954:	6a050000 	bvs	14595c <__bss_end__+0x13bef4>
    5958:	0000ef02 	andeq	lr, r0, r2, lsl #30
    595c:	f417c400 			; <UNDEFINED> instruction: 0xf417c400
    5960:	05000002 	streq	r0, [r0, #-2]
    5964:	0025026b 	eoreq	r0, r5, fp, ror #4
    5968:	00cc0000 	sbceq	r0, ip, r0
    596c:	00010d08 	andeq	r0, r1, r8, lsl #26
    5970:	00079200 	andeq	r9, r7, r0, lsl #4
    5974:	00c70900 	sbceq	r0, r7, r0, lsl #18
    5978:	00190000 	andseq	r0, r9, r0
    597c:	00010d08 	andeq	r0, r1, r8, lsl #26
    5980:	0007a200 	andeq	sl, r7, r0, lsl #4
    5984:	00c70900 	sbceq	r0, r7, r0, lsl #18
    5988:	00070000 	andeq	r0, r7, r0
    598c:	00010d08 	andeq	r0, r1, r8, lsl #26
    5990:	0007b200 	andeq	fp, r7, r0, lsl #4
    5994:	00c70900 	sbceq	r0, r7, r0, lsl #18
    5998:	00170000 	andseq	r0, r7, r0
    599c:	7005f01a 	andvc	pc, r5, sl, lsl r0	; <UNPREDICTABLE>
    59a0:	0007d602 	andeq	sp, r7, r2, lsl #12
    59a4:	029b1700 	addseq	r1, fp, #0, 14
    59a8:	73050000 	movwvc	r0, #20480	; 0x5000
    59ac:	0007d602 	andeq	sp, r7, r2, lsl #12
    59b0:	9f170000 	svcls	0x00170000
    59b4:	05000004 	streq	r0, [r0, #-4]
    59b8:	07e60274 			; <UNDEFINED> instruction: 0x07e60274
    59bc:	00780000 	rsbseq	r0, r8, r0
    59c0:	0002d608 	andeq	sp, r2, r8, lsl #12
    59c4:	0007e600 	andeq	lr, r7, r0, lsl #12
    59c8:	00c70900 	sbceq	r0, r7, r0, lsl #18
    59cc:	001d0000 	andseq	r0, sp, r0
    59d0:	00002c08 	andeq	r2, r0, r8, lsl #24
    59d4:	0007f600 	andeq	pc, r7, r0, lsl #12
    59d8:	00c70900 	sbceq	r0, r7, r0, lsl #18
    59dc:	001d0000 	andseq	r0, sp, r0
    59e0:	5505f01b 	strpl	pc, [r5, #-27]	; 0xffffffe5
    59e4:	00081802 	andeq	r1, r8, r2, lsl #16
    59e8:	03851c00 	orreq	r1, r5, #0, 24
    59ec:	6c050000 	stcvs	0, cr0, [r5], {-0}
    59f0:	00068102 	andeq	r8, r6, r2, lsl #2
    59f4:	04c21c00 	strbeq	r1, [r2], #3072	; 0xc00
    59f8:	75050000 	strvc	r0, [r5, #-0]
    59fc:	0007b202 	andeq	fp, r7, r2, lsl #4
    5a00:	0d080000 	stceq	0, cr0, [r8, #-0]
    5a04:	28000001 	stmdacs	r0, {r0}
    5a08:	09000008 	stmdbeq	r0, {r3}
    5a0c:	000000c7 	andeq	r0, r0, r7, asr #1
    5a10:	331d0018 	tstcc	sp, #24
    5a14:	15000008 	strne	r0, [r0, #-8]
    5a18:	00000424 	andeq	r0, r0, r4, lsr #8
    5a1c:	28040d00 	stmdacs	r4, {r8, sl, fp}
    5a20:	0d000008 	stceq	0, cr0, [r0, #-32]	; 0xffffffe0
    5a24:	00017704 	andeq	r7, r1, r4, lsl #14
    5a28:	084a1d00 	stmdaeq	sl, {r8, sl, fp, ip}^
    5a2c:	25150000 	ldrcs	r0, [r5, #-0]
    5a30:	00000000 	andeq	r0, r0, r0
    5a34:	0850040d 	ldmdaeq	r0, {r0, r2, r3, sl}^
    5a38:	040d0000 	streq	r0, [sp], #-0
    5a3c:	0000083f 	andeq	r0, r0, pc, lsr r8
    5a40:	0005ef08 	andeq	lr, r5, r8, lsl #30
    5a44:	00086600 	andeq	r6, r8, r0, lsl #12
    5a48:	00c70900 	sbceq	r0, r7, r0, lsl #18
    5a4c:	00020000 	andeq	r0, r2, r0
    5a50:	0004581e 	andeq	r5, r4, lr, lsl r8
    5a54:	02fd0500 	rscseq	r0, sp, #0, 10
    5a58:	00000424 	andeq	r0, r0, r4, lsr #8
    5a5c:	0004511e 	andeq	r5, r4, lr, lsl r1
    5a60:	02fe0500 	rscseq	r0, lr, #0, 10
    5a64:	0000042a 	andeq	r0, r0, sl, lsr #8
    5a68:	00002514 	andeq	r2, r0, r4, lsl r5
    5a6c:	00088d00 	andeq	r8, r8, r0, lsl #26
    5a70:	00251500 	eoreq	r1, r5, r0, lsl #10
    5a74:	1f000000 	svcne	0x00000000
    5a78:	000001bd 			; <UNDEFINED> instruction: 0x000001bd
    5a7c:	08981d06 	ldmeq	r8, {r1, r2, r8, sl, fp, ip}
    5a80:	040d0000 	streq	r0, [sp], #-0
    5a84:	0000087e 	andeq	r0, r0, lr, ror r8
    5a88:	00002514 	andeq	r2, r0, r4, lsl r5
    5a8c:	0008ad00 	andeq	sl, r8, r0, lsl #26
    5a90:	05851500 	streq	r1, [r5, #1280]	; 0x500
    5a94:	1f000000 	svcne	0x00000000
    5a98:	00000756 	andeq	r0, r0, r6, asr r7
    5a9c:	08b82206 	ldmeq	r8!, {r1, r2, r9, sp}
    5aa0:	040d0000 	streq	r0, [sp], #-0
    5aa4:	0000089e 	muleq	r0, lr, r8
    5aa8:	00088d20 	andeq	r8, r8, r0, lsr #26
    5aac:	05060100 	streq	r0, [r6, #-256]	; 0xffffff00
    5ab0:	00923403 	addseq	r3, r2, r3, lsl #8
    5ab4:	07672100 	strbeq	r2, [r7, -r0, lsl #2]!
    5ab8:	0b010000 	bleq	45ac0 <__bss_end__+0x3c058>
    5abc:	00008da8 	andeq	r8, r0, r8, lsr #27
    5ac0:	00000010 	andeq	r0, r0, r0, lsl r0
    5ac4:	08ed9c01 	stmiaeq	sp!, {r0, sl, fp, ip, pc}^
    5ac8:	66220000 	strtvs	r0, [r2], -r0
    5acc:	0b010070 	bleq	45c94 <__bss_end__+0x3c22c>
    5ad0:	00000898 	muleq	r0, r8, r8
    5ad4:	23005001 	movwcs	r5, #1
    5ad8:	000001d5 	ldrdeq	r0, [r0], -r5
    5adc:	8d900801 	ldchi	8, cr0, [r0, #4]
    5ae0:	00180000 	andseq	r0, r8, r0
    5ae4:	9c010000 	stcls	0, cr0, [r1], {-0}
    5ae8:	00077e24 	andeq	r7, r7, r4, lsr #28
    5aec:	25030100 	strcs	r0, [r3, #-256]	; 0xffffff00
    5af0:	7c000000 	stcvc	0, cr0, [r0], {-0}
    5af4:	1400008d 	strne	r0, [r0], #-141	; 0xffffff73
    5af8:	01000000 	mrseq	r0, (UNDEF: 0)
    5afc:	0009359c 	muleq	r9, ip, r5
    5b00:	00632500 	rsbeq	r2, r3, r0, lsl #10
    5b04:	00250301 	eoreq	r0, r5, r1, lsl #6
    5b08:	0d670000 	stcleq	0, cr0, [r7, #-0]
    5b0c:	88260000 	stmdahi	r6!, {}	; <UNPREDICTABLE>
    5b10:	3500008d 	strcc	r0, [r0, #-141]	; 0xffffff73
    5b14:	27000009 	strcs	r0, [r0, -r9]
    5b18:	74025001 	strvc	r5, [r2], #-1
    5b1c:	28000000 	stmdacs	r0, {}	; <UNPREDICTABLE>
    5b20:	00000774 	andeq	r0, r0, r4, ror r7
    5b24:	00000774 	andeq	r0, r0, r4, ror r7
    5b28:	d8003c06 	stmdale	r0, {r1, r2, sl, fp, ip, sp}
    5b2c:	04000008 	streq	r0, [r0], #-8
    5b30:	00111700 	andseq	r1, r1, r0, lsl #14
    5b34:	bf010400 	svclt	0x00010400
    5b38:	0c000003 	stceq	0, cr0, [r0], {3}
    5b3c:	0000079e 	muleq	r0, lr, r7
    5b40:	000006b6 			; <UNDEFINED> instruction: 0x000006b6
    5b44:	00008db8 			; <UNDEFINED> instruction: 0x00008db8
    5b48:	00000020 	andeq	r0, r0, r0, lsr #32
    5b4c:	000009c0 	andeq	r0, r0, r0, asr #19
    5b50:	69050402 	stmdbvs	r5, {r1, sl}
    5b54:	0300746e 	movweq	r7, #1134	; 0x46e
    5b58:	0000072c 	andeq	r0, r0, ip, lsr #14
    5b5c:	0037d802 	eorseq	sp, r7, r2, lsl #16
    5b60:	04040000 	streq	r0, [r4], #-0
    5b64:	00006607 	andeq	r6, r0, r7, lsl #12
    5b68:	06010400 	streq	r0, [r1], -r0, lsl #8
    5b6c:	000002e3 	andeq	r0, r0, r3, ror #5
    5b70:	e1080104 	tst	r8, r4, lsl #2
    5b74:	04000002 	streq	r0, [r0], #-2
    5b78:	02fd0502 	rscseq	r0, sp, #8388608	; 0x800000
    5b7c:	02040000 	andeq	r0, r4, #0
    5b80:	00020e07 	andeq	r0, r2, r7, lsl #28
    5b84:	05040400 	streq	r0, [r4, #-1024]	; 0xfffffc00
    5b88:	000000af 	andeq	r0, r0, pc, lsr #1
    5b8c:	61070404 	tstvs	r7, r4, lsl #8
    5b90:	04000000 	streq	r0, [r0], #-0
    5b94:	00aa0508 	adceq	r0, sl, r8, lsl #10
    5b98:	08040000 	stmdaeq	r4, {}	; <UNPREDICTABLE>
    5b9c:	00005c07 	andeq	r5, r0, r7, lsl #24
    5ba0:	02cf0300 	sbceq	r0, pc, #0, 6
    5ba4:	07030000 	streq	r0, [r3, -r0]
    5ba8:	00000025 	andeq	r0, r0, r5, lsr #32
    5bac:	0002be03 	andeq	fp, r2, r3, lsl #28
    5bb0:	5a2c0400 	bpl	b06bb8 <__bss_end__+0xafd150>
    5bb4:	03000000 	movweq	r0, #0
    5bb8:	000003a8 	andeq	r0, r0, r8, lsr #7
    5bbc:	005a7204 	subseq	r7, sl, r4, lsl #4
    5bc0:	5f050000 	svcpl	0x00050000
    5bc4:	02000002 	andeq	r0, r0, #2
    5bc8:	00370165 	eorseq	r0, r7, r5, ror #2
    5bcc:	04060000 	streq	r0, [r6], #-0
    5bd0:	00c2a604 	sbceq	sl, r2, r4, lsl #12
    5bd4:	59070000 	stmdbpl	r7, {}	; <UNPREDICTABLE>
    5bd8:	04000002 	streq	r0, [r0], #-2
    5bdc:	000097a8 	andeq	r9, r0, r8, lsr #15
    5be0:	01ce0700 	biceq	r0, lr, r0, lsl #14
    5be4:	a9040000 	stmdbge	r4, {}	; <UNPREDICTABLE>
    5be8:	000000c2 	andeq	r0, r0, r2, asr #1
    5bec:	00450800 	subeq	r0, r5, r0, lsl #16
    5bf0:	00d20000 	sbcseq	r0, r2, r0
    5bf4:	d2090000 	andle	r0, r9, #0
    5bf8:	03000000 	movweq	r0, #0
    5bfc:	07040400 	streq	r0, [r4, -r0, lsl #8]
    5c00:	00000292 	muleq	r0, r2, r2
    5c04:	a304080a 	movwge	r0, #18442	; 0x480a
    5c08:	000000fa 	strdeq	r0, [r0], -sl
    5c0c:	0003920b 	andeq	r9, r3, fp, lsl #4
    5c10:	25a50400 	strcs	r0, [r5, #1024]!	; 0x400
    5c14:	00000000 	andeq	r0, r0, r0
    5c18:	00039a0b 	andeq	r9, r3, fp, lsl #20
    5c1c:	a3aa0400 			; <UNDEFINED> instruction: 0xa3aa0400
    5c20:	04000000 	streq	r0, [r0], #-0
    5c24:	03250300 			; <UNDEFINED> instruction: 0x03250300
    5c28:	ab040000 	blge	105c30 <__bss_end__+0xfc1c8>
    5c2c:	000000d9 	ldrdeq	r0, [r0], -r9
    5c30:	00018b03 	andeq	r8, r1, r3, lsl #22
    5c34:	76af0400 	strtvc	r0, [pc], r0, lsl #8
    5c38:	0c000000 	stceq	0, cr0, [r0], {-0}
    5c3c:	18040d04 	stmdane	r4, {r2, r8, sl, fp}
    5c40:	04000001 	streq	r0, [r0], #-1
    5c44:	02ea0801 	rsceq	r0, sl, #65536	; 0x10000
    5c48:	180e0000 	stmdane	lr, {}	; <UNPREDICTABLE>
    5c4c:	03000001 	movweq	r0, #1
    5c50:	0000043c 	andeq	r0, r0, ip, lsr r4
    5c54:	00611605 	rsbeq	r1, r1, r5, lsl #12
    5c58:	9c0f0000 	stcls	0, cr0, [pc], {-0}
    5c5c:	18000001 	stmdane	r0, {r0}
    5c60:	01822d05 	orreq	r2, r2, r5, lsl #26
    5c64:	460b0000 	strmi	r0, [fp], -r0
    5c68:	05000003 	streq	r0, [r0, #-3]
    5c6c:	0001822f 	andeq	r8, r1, pc, lsr #4
    5c70:	5f100000 	svcpl	0x00100000
    5c74:	3005006b 	andcc	r0, r5, fp, rrx
    5c78:	00000025 	andeq	r0, r0, r5, lsr #32
    5c7c:	037d0b04 	cmneq	sp, #4, 22	; 0x1000
    5c80:	30050000 	andcc	r0, r5, r0
    5c84:	00000025 	andeq	r0, r0, r5, lsr #32
    5c88:	01850b08 	orreq	r0, r5, r8, lsl #22
    5c8c:	30050000 	andcc	r0, r5, r0
    5c90:	00000025 	andeq	r0, r0, r5, lsr #32
    5c94:	048a0b0c 	streq	r0, [sl], #2828	; 0xb0c
    5c98:	30050000 	andcc	r0, r5, r0
    5c9c:	00000025 	andeq	r0, r0, r5, lsr #32
    5ca0:	785f1010 	ldmdavc	pc, {r4, ip}^	; <UNPREDICTABLE>
    5ca4:	88310500 	ldmdahi	r1!, {r8, sl}
    5ca8:	14000001 	strne	r0, [r0], #-1
    5cac:	2f040d00 	svccs	0x00040d00
    5cb0:	08000001 	stmdaeq	r0, {r0}
    5cb4:	00000124 	andeq	r0, r0, r4, lsr #2
    5cb8:	00000198 	muleq	r0, r8, r1
    5cbc:	0000d209 	andeq	sp, r0, r9, lsl #4
    5cc0:	0f000000 	svceq	0x00000000
    5cc4:	000001c9 	andeq	r0, r0, r9, asr #3
    5cc8:	11350524 	teqne	r5, r4, lsr #10
    5ccc:	0b000002 	bleq	5cdc <_start-0x2324>
    5cd0:	000000a1 	andeq	r0, r0, r1, lsr #1
    5cd4:	00253705 	eoreq	r3, r5, r5, lsl #14
    5cd8:	0b000000 	bleq	5ce0 <_start-0x2320>
    5cdc:	000003b0 			; <UNDEFINED> instruction: 0x000003b0
    5ce0:	00253805 	eoreq	r3, r5, r5, lsl #16
    5ce4:	0b040000 	bleq	105cec <__bss_end__+0xfc284>
    5ce8:	000000c4 	andeq	r0, r0, r4, asr #1
    5cec:	00253905 	eoreq	r3, r5, r5, lsl #18
    5cf0:	0b080000 	bleq	205cf8 <__bss_end__+0x1fc290>
    5cf4:	00000503 	andeq	r0, r0, r3, lsl #10
    5cf8:	00253a05 	eoreq	r3, r5, r5, lsl #20
    5cfc:	0b0c0000 	bleq	305d04 <__bss_end__+0x2fc29c>
    5d00:	000002a2 	andeq	r0, r0, r2, lsr #5
    5d04:	00253b05 	eoreq	r3, r5, r5, lsl #22
    5d08:	0b100000 	bleq	405d10 <__bss_end__+0x3fc2a8>
    5d0c:	0000027b 	andeq	r0, r0, fp, ror r2
    5d10:	00253c05 	eoreq	r3, r5, r5, lsl #24
    5d14:	0b140000 	bleq	505d1c <__bss_end__+0x4fc2b4>
    5d18:	0000048f 	andeq	r0, r0, pc, lsl #9
    5d1c:	00253d05 	eoreq	r3, r5, r5, lsl #26
    5d20:	0b180000 	bleq	605d28 <__bss_end__+0x5fc2c0>
    5d24:	00000307 	andeq	r0, r0, r7, lsl #6
    5d28:	00253e05 	eoreq	r3, r5, r5, lsl #28
    5d2c:	0b1c0000 	bleq	705d34 <__bss_end__+0x6fc2cc>
    5d30:	000004ca 	andeq	r0, r0, sl, asr #9
    5d34:	00253f05 	eoreq	r3, r5, r5, lsl #30
    5d38:	00200000 	eoreq	r0, r0, r0
    5d3c:	00010411 	andeq	r0, r1, r1, lsl r4
    5d40:	05010800 	streq	r0, [r1, #-2048]	; 0xfffff800
    5d44:	00025148 	andeq	r5, r2, r8, asr #2
    5d48:	01780b00 	cmneq	r8, r0, lsl #22
    5d4c:	49050000 	stmdbmi	r5, {}	; <UNPREDICTABLE>
    5d50:	00000251 	andeq	r0, r0, r1, asr r2
    5d54:	00000b00 	andeq	r0, r0, r0, lsl #22
    5d58:	4a050000 	bmi	145d60 <__bss_end__+0x13c2f8>
    5d5c:	00000251 	andeq	r0, r0, r1, asr r2
    5d60:	042e1280 	strteq	r1, [lr], #-640	; 0xfffffd80
    5d64:	4c050000 	stcmi	0, cr0, [r5], {-0}
    5d68:	00000124 	andeq	r0, r0, r4, lsr #2
    5d6c:	29120100 	ldmdbcs	r2, {r8}
    5d70:	05000001 	streq	r0, [r0, #-1]
    5d74:	0001244f 	andeq	r2, r1, pc, asr #8
    5d78:	00010400 	andeq	r0, r1, r0, lsl #8
    5d7c:	00011008 	andeq	r1, r1, r8
    5d80:	00026100 	andeq	r6, r2, r0, lsl #2
    5d84:	00d20900 	sbcseq	r0, r2, r0, lsl #18
    5d88:	001f0000 	andseq	r0, pc, r0
    5d8c:	0002ab11 	andeq	sl, r2, r1, lsl fp
    5d90:	05019000 	streq	r9, [r1, #-0]
    5d94:	00029f5b 	andeq	r9, r2, fp, asr pc
    5d98:	03460b00 	movteq	r0, #27392	; 0x6b00
    5d9c:	5c050000 	stcpl	0, cr0, [r5], {-0}
    5da0:	0000029f 	muleq	r0, pc, r2	; <UNPREDICTABLE>
    5da4:	035e0b00 	cmpeq	lr, #0, 22
    5da8:	5d050000 	stcpl	0, cr0, [r5, #-0]
    5dac:	00000025 	andeq	r0, r0, r5, lsr #32
    5db0:	01800b04 	orreq	r0, r0, r4, lsl #22
    5db4:	5f050000 	svcpl	0x00050000
    5db8:	000002a5 	andeq	r0, r0, r5, lsr #5
    5dbc:	01040b08 	tsteq	r4, r8, lsl #22
    5dc0:	60050000 	andvs	r0, r5, r0
    5dc4:	00000211 	andeq	r0, r0, r1, lsl r2
    5dc8:	040d0088 	streq	r0, [sp], #-136	; 0xffffff78
    5dcc:	00000261 	andeq	r0, r0, r1, ror #4
    5dd0:	0002b508 	andeq	fp, r2, r8, lsl #10
    5dd4:	0002b500 	andeq	fp, r2, r0, lsl #10
    5dd8:	00d20900 	sbcseq	r0, r2, r0, lsl #18
    5ddc:	001f0000 	andseq	r0, pc, r0
    5de0:	02bb040d 	adcseq	r0, fp, #218103808	; 0xd000000
    5de4:	0f130000 	svceq	0x00130000
    5de8:	00000311 	andeq	r0, r0, r1, lsl r3
    5dec:	e1730508 	cmn	r3, r8, lsl #10
    5df0:	0b000002 	bleq	5e00 <_start-0x2200>
    5df4:	000000be 	strheq	r0, [r0], -lr
    5df8:	02e17405 	rsceq	r7, r1, #83886080	; 0x5000000
    5dfc:	0b000000 	bleq	5e04 <_start-0x21fc>
    5e00:	0000001b 	andeq	r0, r0, fp, lsl r0
    5e04:	00257505 	eoreq	r7, r5, r5, lsl #10
    5e08:	00040000 	andeq	r0, r4, r0
    5e0c:	0045040d 	subeq	r0, r5, sp, lsl #8
    5e10:	300f0000 	andcc	r0, pc, r0
    5e14:	68000003 	stmdavs	r0, {r0, r1}
    5e18:	0411b305 	ldreq	fp, [r1], #-773	; 0xfffffcfb
    5e1c:	5f100000 	svcpl	0x00100000
    5e20:	b4050070 	strlt	r0, [r5], #-112	; 0xffffff90
    5e24:	000002e1 	andeq	r0, r0, r1, ror #5
    5e28:	725f1000 	subsvc	r1, pc, #0
    5e2c:	25b50500 	ldrcs	r0, [r5, #1280]!	; 0x500
    5e30:	04000000 	streq	r0, [r0], #-0
    5e34:	00775f10 	rsbseq	r5, r7, r0, lsl pc
    5e38:	0025b605 	eoreq	fp, r5, r5, lsl #12
    5e3c:	0b080000 	bleq	205e44 <__bss_end__+0x1fc3dc>
    5e40:	00000122 	andeq	r0, r0, r2, lsr #2
    5e44:	004cb705 	subeq	fp, ip, r5, lsl #14
    5e48:	0b0c0000 	bleq	305e50 <__bss_end__+0x2fc3e8>
    5e4c:	000001f4 	strdeq	r0, [r0], -r4
    5e50:	004cb805 	subeq	fp, ip, r5, lsl #16
    5e54:	100e0000 	andne	r0, lr, r0
    5e58:	0066625f 	rsbeq	r6, r6, pc, asr r2
    5e5c:	02bcb905 	adcseq	fp, ip, #81920	; 0x14000
    5e60:	0b100000 	bleq	405e68 <__bss_end__+0x3fc400>
    5e64:	0000007b 	andeq	r0, r0, fp, ror r0
    5e68:	0025ba05 	eoreq	fp, r5, r5, lsl #20
    5e6c:	0b180000 	bleq	605e74 <__bss_end__+0x5fc40c>
    5e70:	00000112 	andeq	r0, r0, r2, lsl r1
    5e74:	0110c105 	tsteq	r0, r5, lsl #2
    5e78:	0b1c0000 	bleq	705e80 <__bss_end__+0x6fc418>
    5e7c:	00000a5e 	andeq	r0, r0, lr, asr sl
    5e80:	056cc305 	strbeq	ip, [ip, #-773]!	; 0xfffffcfb
    5e84:	0b200000 	bleq	805e8c <__bss_end__+0x7fc424>
    5e88:	00000a78 	andeq	r0, r0, r8, ror sl
    5e8c:	0596c505 	ldreq	ip, [r6, #1285]	; 0x505
    5e90:	0b240000 	bleq	905e98 <__bss_end__+0x8fc430>
    5e94:	000003a2 	andeq	r0, r0, r2, lsr #7
    5e98:	05bac805 	ldreq	ip, [sl, #2053]!	; 0x805
    5e9c:	0b280000 	bleq	a05ea4 <__bss_end__+0x9fc43c>
    5ea0:	000004e4 	andeq	r0, r0, r4, ror #9
    5ea4:	05d4c905 	ldrbeq	ip, [r4, #2309]	; 0x905
    5ea8:	102c0000 	eorne	r0, ip, r0
    5eac:	0062755f 	rsbeq	r7, r2, pc, asr r5
    5eb0:	02bccc05 	adcseq	ip, ip, #1280	; 0x500
    5eb4:	10300000 	eorsne	r0, r0, r0
    5eb8:	0070755f 	rsbseq	r7, r0, pc, asr r5
    5ebc:	02e1cd05 	rsceq	ip, r1, #320	; 0x140
    5ec0:	10380000 	eorsne	r0, r8, r0
    5ec4:	0072755f 	rsbseq	r7, r2, pc, asr r5
    5ec8:	0025ce05 	eoreq	ip, r5, r5, lsl #28
    5ecc:	0b3c0000 	bleq	f05ed4 <__bss_end__+0xefc46c>
    5ed0:	000000b8 	strheq	r0, [r0], -r8
    5ed4:	05dad105 	ldrbeq	sp, [sl, #261]	; 0x105
    5ed8:	0b400000 	bleq	1005ee0 <__bss_end__+0xffc478>
    5edc:	000004bc 			; <UNDEFINED> instruction: 0x000004bc
    5ee0:	05ead205 	strbeq	sp, [sl, #517]!	; 0x205
    5ee4:	10430000 	subne	r0, r3, r0
    5ee8:	00626c5f 	rsbeq	r6, r2, pc, asr ip
    5eec:	02bcd505 	adcseq	sp, ip, #20971520	; 0x1400000
    5ef0:	0b440000 	bleq	1105ef8 <__bss_end__+0x10fc490>
    5ef4:	00000140 	andeq	r0, r0, r0, asr #2
    5ef8:	0025d805 	eoreq	sp, r5, r5, lsl #16
    5efc:	0b4c0000 	bleq	1305f04 <__bss_end__+0x12fc49c>
    5f00:	00000151 	andeq	r0, r0, r1, asr r1
    5f04:	0081d905 	addeq	sp, r1, r5, lsl #18
    5f08:	0b500000 	bleq	1405f10 <__bss_end__+0x13fc4a8>
    5f0c:	000009ff 	strdeq	r0, [r0], -pc	; <UNPREDICTABLE>
    5f10:	042fdc05 	strteq	sp, [pc], #-3077	; 5f18 <_start-0x20e8>
    5f14:	0b540000 	bleq	1505f1c <__bss_end__+0x14fc4b4>
    5f18:	0000026d 	andeq	r0, r0, sp, ror #4
    5f1c:	0105e005 	tsteq	r5, r5
    5f20:	0b580000 	bleq	1605f28 <__bss_end__+0x15fc4c0>
    5f24:	00000338 	andeq	r0, r0, r8, lsr r3
    5f28:	00fae205 	rscseq	lr, sl, r5, lsl #4
    5f2c:	0b5c0000 	bleq	1705f34 <__bss_end__+0x16fc4cc>
    5f30:	00000273 	andeq	r0, r0, r3, ror r2
    5f34:	0025e305 	eoreq	lr, r5, r5, lsl #6
    5f38:	00640000 	rsbeq	r0, r4, r0
    5f3c:	00002514 	andeq	r2, r0, r4, lsl r5
    5f40:	00042f00 	andeq	r2, r4, r0, lsl #30
    5f44:	042f1500 	strteq	r1, [pc], #-1280	; 5f4c <_start-0x20b4>
    5f48:	10150000 	andsne	r0, r5, r0
    5f4c:	15000001 	strne	r0, [r0, #-1]
    5f50:	00000112 	andeq	r0, r0, r2, lsl r1
    5f54:	00002515 	andeq	r2, r0, r5, lsl r5
    5f58:	040d0000 	streq	r0, [sp], #-0
    5f5c:	0000043a 	andeq	r0, r0, sl, lsr r4
    5f60:	00042f0e 	andeq	r2, r4, lr, lsl #30
    5f64:	03851600 	orreq	r1, r5, #0, 12
    5f68:	04280000 	strteq	r0, [r8], #-0
    5f6c:	6c023805 	stcvs	8, cr3, [r2], {5}
    5f70:	17000005 	strne	r0, [r0, -r5]
    5f74:	000002f6 	strdeq	r0, [r0], -r6
    5f78:	25023a05 	strcs	r3, [r2, #-2565]	; 0xfffff5fb
    5f7c:	00000000 	andeq	r0, r0, r0
    5f80:	00013117 	andeq	r3, r1, r7, lsl r1
    5f84:	023f0500 	eorseq	r0, pc, #0, 10
    5f88:	00000641 	andeq	r0, r0, r1, asr #12
    5f8c:	01e41704 	mvneq	r1, r4, lsl #14
    5f90:	3f050000 	svccc	0x00050000
    5f94:	00064102 	andeq	r4, r6, r2, lsl #2
    5f98:	94170800 	ldrls	r0, [r7], #-2048	; 0xfffff800
    5f9c:	05000001 	streq	r0, [r0, #-1]
    5fa0:	0641023f 			; <UNDEFINED> instruction: 0x0641023f
    5fa4:	170c0000 	strne	r0, [ip, -r0]
    5fa8:	00000359 	andeq	r0, r0, r9, asr r3
    5fac:	25024105 	strcs	r4, [r2, #-261]	; 0xfffffefb
    5fb0:	10000000 	andne	r0, r0, r0
    5fb4:	00002917 	andeq	r2, r0, r7, lsl r9
    5fb8:	02420500 	subeq	r0, r2, #0, 10
    5fbc:	00000823 	andeq	r0, r0, r3, lsr #16
    5fc0:	04641714 	strbteq	r1, [r4], #-1812	; 0xfffff8ec
    5fc4:	44050000 	strmi	r0, [r5], #-0
    5fc8:	00002502 	andeq	r2, r0, r2, lsl #10
    5fcc:	63173000 	tstvs	r7, #0
    5fd0:	05000003 	streq	r0, [r0, #-3]
    5fd4:	05900245 	ldreq	r0, [r0, #581]	; 0x245
    5fd8:	17340000 	ldrne	r0, [r4, -r0]!
    5fdc:	000002b3 			; <UNDEFINED> instruction: 0x000002b3
    5fe0:	25024705 	strcs	r4, [r2, #-1797]	; 0xfffff8fb
    5fe4:	38000000 	stmdacc	r0, {}	; <UNPREDICTABLE>
    5fe8:	00037317 	andeq	r7, r3, r7, lsl r3
    5fec:	02490500 	subeq	r0, r9, #0, 10
    5ff0:	0000083e 	andeq	r0, r0, lr, lsr r8
    5ff4:	0251173c 	subseq	r1, r1, #60, 14	; 0xf00000
    5ff8:	4c050000 	stcmi	0, cr0, [r5], {-0}
    5ffc:	00018202 	andeq	r8, r1, r2, lsl #4
    6000:	b3174000 	tstlt	r7, #0
    6004:	05000001 	streq	r0, [r0, #-1]
    6008:	0025024d 	eoreq	r0, r5, sp, asr #4
    600c:	17440000 	strbne	r0, [r4, -r0]
    6010:	000004fe 	strdeq	r0, [r0], -lr
    6014:	82024e05 	andhi	r4, r2, #5, 28	; 0x50
    6018:	48000001 	stmdami	r0, {r0}
    601c:	0002c517 	andeq	ip, r2, r7, lsl r5
    6020:	024f0500 	subeq	r0, pc, #0, 10
    6024:	00000844 	andeq	r0, r0, r4, asr #16
    6028:	01ec174c 	mvneq	r1, ip, asr #14
    602c:	52050000 	andpl	r0, r5, #0
    6030:	00002502 	andeq	r2, r0, r2, lsl #10
    6034:	49175000 	ldmdbmi	r7, {ip, lr}
    6038:	05000001 	streq	r0, [r0, #-1]
    603c:	01120253 	tsteq	r2, r3, asr r2
    6040:	17540000 	ldrbne	r0, [r4, -r0]
    6044:	000002ef 	andeq	r0, r0, pc, ror #5
    6048:	01027605 	tsteq	r2, r5, lsl #12
    604c:	58000008 	stmdapl	r0, {r3}
    6050:	0002ab18 	andeq	sl, r2, r8, lsl fp
    6054:	027a0500 	rsbseq	r0, sl, #0, 10
    6058:	0000029f 	muleq	r0, pc, r2	; <UNPREDICTABLE>
    605c:	2f180148 	svccs	0x00180148
    6060:	05000002 	streq	r0, [r0, #-2]
    6064:	0261027b 	rsbeq	r0, r1, #-1342177273	; 0xb0000007
    6068:	014c0000 	mrseq	r0, (UNDEF: 76)
    606c:	0004b218 	andeq	fp, r4, r8, lsl r2
    6070:	027f0500 	rsbseq	r0, pc, #0, 10
    6074:	00000855 	andeq	r0, r0, r5, asr r8
    6078:	1a1802dc 	bne	606bf0 <__bss_end__+0x5fd188>
    607c:	05000001 	streq	r0, [r0, #-1]
    6080:	06060284 	streq	r0, [r6], -r4, lsl #5
    6084:	02e00000 	rsceq	r0, r0, #0
    6088:	0000ff18 	andeq	pc, r0, r8, lsl pc	; <UNPREDICTABLE>
    608c:	02850500 	addeq	r0, r5, #0, 10
    6090:	00000861 	andeq	r0, r0, r1, ror #16
    6094:	0d0002ec 	sfmeq	f0, 4, [r0, #-944]	; 0xfffffc50
    6098:	00041104 	andeq	r1, r4, r4, lsl #2
    609c:	00251400 	eoreq	r1, r5, r0, lsl #8
    60a0:	05900000 	ldreq	r0, [r0]
    60a4:	2f150000 	svccs	0x00150000
    60a8:	15000004 	strne	r0, [r0, #-4]
    60ac:	00000110 	andeq	r0, r0, r0, lsl r1
    60b0:	00059015 	andeq	r9, r5, r5, lsl r0
    60b4:	00251500 	eoreq	r1, r5, r0, lsl #10
    60b8:	0d000000 	stceq	0, cr0, [r0, #-0]
    60bc:	00011f04 	andeq	r1, r1, r4, lsl #30
    60c0:	72040d00 	andvc	r0, r4, #0, 26
    60c4:	14000005 	strne	r0, [r0], #-5
    60c8:	0000008c 	andeq	r0, r0, ip, lsl #1
    60cc:	000005ba 			; <UNDEFINED> instruction: 0x000005ba
    60d0:	00042f15 	andeq	r2, r4, r5, lsl pc
    60d4:	01101500 	tsteq	r0, r0, lsl #10
    60d8:	8c150000 	ldchi	0, cr0, [r5], {-0}
    60dc:	15000000 	strne	r0, [r0, #-0]
    60e0:	00000025 	andeq	r0, r0, r5, lsr #32
    60e4:	9c040d00 	stcls	13, cr0, [r4], {-0}
    60e8:	14000005 	strne	r0, [r0], #-5
    60ec:	00000025 	andeq	r0, r0, r5, lsr #32
    60f0:	000005d4 	ldrdeq	r0, [r0], -r4
    60f4:	00042f15 	andeq	r2, r4, r5, lsl pc
    60f8:	01101500 	tsteq	r0, r0, lsl #10
    60fc:	0d000000 	stceq	0, cr0, [r0, #-0]
    6100:	0005c004 	andeq	ip, r5, r4
    6104:	00450800 	subeq	r0, r5, r0, lsl #16
    6108:	05ea0000 	strbeq	r0, [sl, #0]!
    610c:	d2090000 	andle	r0, r9, #0
    6110:	02000000 	andeq	r0, r0, #0
    6114:	00450800 	subeq	r0, r5, r0, lsl #16
    6118:	05fa0000 	ldrbeq	r0, [sl, #0]!
    611c:	d2090000 	andle	r0, r9, #0
    6120:	00000000 	andeq	r0, r0, r0
    6124:	031e0500 	tsteq	lr, #0, 10
    6128:	1d050000 	stcne	0, cr0, [r5, #-0]
    612c:	0002e701 	andeq	lr, r2, r1, lsl #14
    6130:	04991900 	ldreq	r1, [r9], #2304	; 0x900
    6134:	050c0000 	streq	r0, [ip, #-0]
    6138:	063b0121 	ldrteq	r0, [fp], -r1, lsr #2
    613c:	46170000 	ldrmi	r0, [r7], -r0
    6140:	05000003 	streq	r0, [r0, #-3]
    6144:	063b0123 	ldrteq	r0, [fp], -r3, lsr #2
    6148:	17000000 	strne	r0, [r0, -r0]
    614c:	00000207 	andeq	r0, r0, r7, lsl #4
    6150:	25012405 	strcs	r2, [r1, #-1029]	; 0xfffffbfb
    6154:	04000000 	streq	r0, [r0], #-0
    6158:	00031817 	andeq	r1, r3, r7, lsl r8
    615c:	01250500 			; <UNDEFINED> instruction: 0x01250500
    6160:	00000641 	andeq	r0, r0, r1, asr #12
    6164:	040d0008 	streq	r0, [sp], #-8
    6168:	00000606 	andeq	r0, r0, r6, lsl #12
    616c:	05fa040d 	ldrbeq	r0, [sl, #1037]!	; 0x40d
    6170:	21190000 	tstcs	r9, r0
    6174:	0e000000 	cdpeq	0, 0, cr0, cr0, cr0, {0}
    6178:	7c013d05 	stcvc	13, cr3, [r1], {5}
    617c:	17000006 	strne	r0, [r0, -r6]
    6180:	0000038c 	andeq	r0, r0, ip, lsl #7
    6184:	7c013e05 	stcvc	14, cr3, [r1], {5}
    6188:	00000006 	andeq	r0, r0, r6
    618c:	0003b917 	andeq	fp, r3, r7, lsl r9
    6190:	013f0500 	teqeq	pc, r0, lsl #10
    6194:	0000067c 	andeq	r0, r0, ip, ror r6
    6198:	04371706 	ldrteq	r1, [r7], #-1798	; 0xfffff8fa
    619c:	40050000 	andmi	r0, r5, r0
    61a0:	00005301 	andeq	r5, r0, r1, lsl #6
    61a4:	08000c00 	stmdaeq	r0, {sl, fp}
    61a8:	00000053 	andeq	r0, r0, r3, asr r0
    61ac:	0000068c 	andeq	r0, r0, ip, lsl #13
    61b0:	0000d209 	andeq	sp, r0, r9, lsl #4
    61b4:	1a000200 	bne	69bc <_start-0x1644>
    61b8:	025705d0 	subseq	r0, r7, #208, 10	; 0x34000000
    61bc:	0000078d 	andeq	r0, r0, sp, lsl #15
    61c0:	00047d17 	andeq	r7, r4, r7, lsl sp
    61c4:	02590500 	subseq	r0, r9, #0, 10
    61c8:	00000037 	andeq	r0, r0, r7, lsr r0
    61cc:	04211700 	strteq	r1, [r1], #-1792	; 0xfffff900
    61d0:	5a050000 	bpl	1461d8 <__bss_end__+0x13c770>
    61d4:	00011202 	andeq	r1, r1, r2, lsl #4
    61d8:	44170400 	ldrmi	r0, [r7], #-1024	; 0xfffffc00
    61dc:	05000002 	streq	r0, [r0, #-2]
    61e0:	078d025b 			; <UNDEFINED> instruction: 0x078d025b
    61e4:	17080000 	strne	r0, [r8, -r0]
    61e8:	000004d5 	ldrdeq	r0, [r0], -r5
    61ec:	98025c05 	stmdals	r2, {r0, r2, sl, fp, ip, lr}
    61f0:	24000001 	strcs	r0, [r0], #-1
    61f4:	0001a417 	andeq	sl, r1, r7, lsl r4
    61f8:	025d0500 	subseq	r0, sp, #0, 10
    61fc:	00000025 	andeq	r0, r0, r5, lsr #32
    6200:	03411748 	movteq	r1, #5960	; 0x1748
    6204:	5e050000 	cdppl	0, 0, cr0, cr5, cr0, {0}
    6208:	00006f02 	andeq	r6, r0, r2, lsl #30
    620c:	eb175000 	bl	5da214 <__bss_end__+0x5d07ac>
    6210:	05000004 	streq	r0, [r0, #-4]
    6214:	0647025f 			; <UNDEFINED> instruction: 0x0647025f
    6218:	17580000 	ldrbne	r0, [r8, -r0]
    621c:	0000034c 	andeq	r0, r0, ip, asr #6
    6220:	fa026005 	blx	9e23c <__bss_end__+0x947d4>
    6224:	68000000 	stmdavs	r0, {}	; <UNPREDICTABLE>
    6228:	0004f017 	andeq	pc, r4, r7, lsl r0	; <UNPREDICTABLE>
    622c:	02610500 	rsbeq	r0, r1, #0, 10
    6230:	000000fa 	strdeq	r0, [r0], -sl
    6234:	00931770 	addseq	r1, r3, r0, ror r7
    6238:	62050000 	andvs	r0, r5, #0
    623c:	0000fa02 	andeq	pc, r0, r2, lsl #20
    6240:	a8177800 	ldmdage	r7, {fp, ip, sp, lr}
    6244:	05000004 	streq	r0, [r0, #-4]
    6248:	079d0263 	ldreq	r0, [sp, r3, ror #4]
    624c:	17800000 	strne	r0, [r0, r0]
    6250:	00000238 	andeq	r0, r0, r8, lsr r2
    6254:	ad026405 	cfstrsge	mvf6, [r2, #-20]	; 0xffffffec
    6258:	88000007 	stmdahi	r0, {r0, r1, r2}
    625c:	00044417 	andeq	r4, r4, r7, lsl r4
    6260:	02650500 	rsbeq	r0, r5, #0, 10
    6264:	00000025 	andeq	r0, r0, r5, lsr #32
    6268:	016a17a0 	cmneq	sl, r0, lsr #15
    626c:	66050000 	strvs	r0, [r5], -r0
    6270:	0000fa02 	andeq	pc, r0, r2, lsl #20
    6274:	8417a400 	ldrhi	sl, [r7], #-1024	; 0xfffffc00
    6278:	05000000 	streq	r0, [r0, #-0]
    627c:	00fa0267 	rscseq	r0, sl, r7, ror #4
    6280:	17ac0000 	strne	r0, [ip, r0]!
    6284:	00000159 	andeq	r0, r0, r9, asr r1
    6288:	fa026805 	blx	a02a4 <__bss_end__+0x9683c>
    628c:	b4000000 	strlt	r0, [r0], #-0
    6290:	00003c17 	andeq	r3, r0, r7, lsl ip
    6294:	02690500 	rsbeq	r0, r9, #0, 10
    6298:	000000fa 	strdeq	r0, [r0], -sl
    629c:	004b17bc 	strheq	r1, [fp], #-124	; 0xffffff84
    62a0:	6a050000 	bvs	1462a8 <__bss_end__+0x13c840>
    62a4:	0000fa02 	andeq	pc, r0, r2, lsl #20
    62a8:	f417c400 			; <UNDEFINED> instruction: 0xf417c400
    62ac:	05000002 	streq	r0, [r0, #-2]
    62b0:	0025026b 	eoreq	r0, r5, fp, ror #4
    62b4:	00cc0000 	sbceq	r0, ip, r0
    62b8:	00011808 	andeq	r1, r1, r8, lsl #16
    62bc:	00079d00 	andeq	r9, r7, r0, lsl #26
    62c0:	00d20900 	sbcseq	r0, r2, r0, lsl #18
    62c4:	00190000 	andseq	r0, r9, r0
    62c8:	00011808 	andeq	r1, r1, r8, lsl #16
    62cc:	0007ad00 	andeq	sl, r7, r0, lsl #26
    62d0:	00d20900 	sbcseq	r0, r2, r0, lsl #18
    62d4:	00070000 	andeq	r0, r7, r0
    62d8:	00011808 	andeq	r1, r1, r8, lsl #16
    62dc:	0007bd00 	andeq	fp, r7, r0, lsl #26
    62e0:	00d20900 	sbcseq	r0, r2, r0, lsl #18
    62e4:	00170000 	andseq	r0, r7, r0
    62e8:	7005f01a 	andvc	pc, r5, sl, lsl r0	; <UNPREDICTABLE>
    62ec:	0007e102 	andeq	lr, r7, r2, lsl #2
    62f0:	029b1700 	addseq	r1, fp, #0, 14
    62f4:	73050000 	movwvc	r0, #20480	; 0x5000
    62f8:	0007e102 	andeq	lr, r7, r2, lsl #2
    62fc:	9f170000 	svcls	0x00170000
    6300:	05000004 	streq	r0, [r0, #-4]
    6304:	07f10274 			; <UNDEFINED> instruction: 0x07f10274
    6308:	00780000 	rsbseq	r0, r8, r0
    630c:	0002e108 	andeq	lr, r2, r8, lsl #2
    6310:	0007f100 	andeq	pc, r7, r0, lsl #2
    6314:	00d20900 	sbcseq	r0, r2, r0, lsl #18
    6318:	001d0000 	andseq	r0, sp, r0
    631c:	00003708 	andeq	r3, r0, r8, lsl #14
    6320:	00080100 	andeq	r0, r8, r0, lsl #2
    6324:	00d20900 	sbcseq	r0, r2, r0, lsl #18
    6328:	001d0000 	andseq	r0, sp, r0
    632c:	5505f01b 	strpl	pc, [r5, #-27]	; 0xffffffe5
    6330:	00082302 	andeq	r2, r8, r2, lsl #6
    6334:	03851c00 	orreq	r1, r5, #0, 24
    6338:	6c050000 	stcvs	0, cr0, [r5], {-0}
    633c:	00068c02 	andeq	r8, r6, r2, lsl #24
    6340:	04c21c00 	strbeq	r1, [r2], #3072	; 0xc00
    6344:	75050000 	strvc	r0, [r5, #-0]
    6348:	0007bd02 	andeq	fp, r7, r2, lsl #26
    634c:	18080000 	stmdane	r8, {}	; <UNPREDICTABLE>
    6350:	33000001 	movwcc	r0, #1
    6354:	09000008 	stmdbeq	r0, {r3}
    6358:	000000d2 	ldrdeq	r0, [r0], -r2
    635c:	3e1d0018 	mrccc	0, 0, r0, cr13, cr8, {0}
    6360:	15000008 	strne	r0, [r0, #-8]
    6364:	0000042f 	andeq	r0, r0, pc, lsr #8
    6368:	33040d00 	movwcc	r0, #19712	; 0x4d00
    636c:	0d000008 	stceq	0, cr0, [r0, #-32]	; 0xffffffe0
    6370:	00018204 	andeq	r8, r1, r4, lsl #4
    6374:	08551d00 	ldmdaeq	r5, {r8, sl, fp, ip}^
    6378:	25150000 	ldrcs	r0, [r5, #-0]
    637c:	00000000 	andeq	r0, r0, r0
    6380:	085b040d 	ldmdaeq	fp, {r0, r2, r3, sl}^
    6384:	040d0000 	streq	r0, [sp], #-0
    6388:	0000084a 	andeq	r0, r0, sl, asr #16
    638c:	0005fa08 	andeq	pc, r5, r8, lsl #20
    6390:	00087100 	andeq	r7, r8, r0, lsl #2
    6394:	00d20900 	sbcseq	r0, r2, r0, lsl #18
    6398:	00020000 	andeq	r0, r2, r0
    639c:	0004581e 	andeq	r5, r4, lr, lsl r8
    63a0:	02fd0500 	rscseq	r0, sp, #0, 10
    63a4:	0000042f 	andeq	r0, r0, pc, lsr #8
    63a8:	0004511e 	andeq	r5, r4, lr, lsl r1
    63ac:	02fe0500 	rscseq	r0, lr, #0, 10
    63b0:	00000435 	andeq	r0, r0, r5, lsr r4
    63b4:	0004761f 	andeq	r7, r4, pc, lsl r6
    63b8:	10190600 	andsne	r0, r9, r0, lsl #12
    63bc:	b8000001 	stmdalt	r0, {r0}
    63c0:	2000008d 	andcs	r0, r0, sp, lsl #1
    63c4:	01000000 	mrseq	r0, (UNDEF: 0)
    63c8:	705f209c 			; <UNDEFINED> instruction: 0x705f209c
    63cc:	10030100 	andne	r0, r3, r0, lsl #2
    63d0:	01000001 	tsteq	r0, r1
    63d4:	00632050 	rsbeq	r2, r3, r0, asr r0
    63d8:	00250301 	eoreq	r0, r5, r1, lsl #6
    63dc:	51010000 	mrspl	r0, (UNDEF: 1)
    63e0:	01006e21 	tsteq	r0, r1, lsr #28
    63e4:	00002c03 	andeq	r2, r0, r3, lsl #24
    63e8:	000d8500 	andeq	r8, sp, r0, lsl #10
    63ec:	00702200 	rsbseq	r2, r0, r0, lsl #4
    63f0:	01120401 	tsteq	r2, r1, lsl #8
    63f4:	0da60000 	stceq	0, cr0, [r6]
    63f8:	65230000 	strvs	r0, [r3, #-0]!
    63fc:	12040100 	andne	r0, r4, #0, 2
    6400:	01000001 	tsteq	r0, r1
    6404:	36000052 			; <UNDEFINED> instruction: 0x36000052
    6408:	04000009 	streq	r0, [r0], #-9
    640c:	0012e200 	andseq	lr, r2, r0, lsl #4
    6410:	bf010400 	svclt	0x00010400
    6414:	0c000003 	stceq	0, cr0, [r0], {3}
    6418:	000007ac 	andeq	r0, r0, ip, lsr #15
    641c:	000006b6 			; <UNDEFINED> instruction: 0x000006b6
    6420:	00008dd8 	ldrdeq	r8, [r0], -r8	; <UNPREDICTABLE>
    6424:	00000034 	andeq	r0, r0, r4, lsr r0
    6428:	00000a8e 	andeq	r0, r0, lr, lsl #21
    642c:	69050402 	stmdbvs	r5, {r1, sl}
    6430:	0300746e 	movweq	r7, #1134	; 0x46e
    6434:	00660704 	rsbeq	r0, r6, r4, lsl #14
    6438:	01030000 	mrseq	r0, (UNDEF: 3)
    643c:	0002e306 	andeq	lr, r2, r6, lsl #6
    6440:	05020300 	streq	r0, [r2, #-768]	; 0xfffffd00
    6444:	000002fd 	strdeq	r0, [r0], -sp
    6448:	af050403 	svcge	0x00050403
    644c:	03000000 	movweq	r0, #0
    6450:	00aa0508 	adceq	r0, sl, r8, lsl #10
    6454:	01030000 	mrseq	r0, (UNDEF: 3)
    6458:	0002e108 	andeq	lr, r2, r8, lsl #2
    645c:	07020300 	streq	r0, [r2, -r0, lsl #6]
    6460:	0000020e 	andeq	r0, r0, lr, lsl #4
    6464:	61070403 	tstvs	r7, r3, lsl #8
    6468:	03000000 	movweq	r0, #0
    646c:	005c0708 	subseq	r0, ip, r8, lsl #14
    6470:	cf040000 	svcgt	0x00040000
    6474:	02000002 	andeq	r0, r0, #2
    6478:	00002507 	andeq	r2, r0, r7, lsl #10
    647c:	02be0400 	adcseq	r0, lr, #0, 8
    6480:	2c030000 	stccs	0, cr0, [r3], {-0}
    6484:	00000041 	andeq	r0, r0, r1, asr #32
    6488:	0003a804 	andeq	sl, r3, r4, lsl #16
    648c:	41720300 	cmnmi	r2, r0, lsl #6
    6490:	05000000 	streq	r0, [r0, #-0]
    6494:	0000025f 	andeq	r0, r0, pc, asr r2
    6498:	2c016504 	cfstr32cs	mvfx6, [r1], {4}
    649c:	06000000 	streq	r0, [r0], -r0
    64a0:	b7a60304 	strlt	r0, [r6, r4, lsl #6]!
    64a4:	07000000 	streq	r0, [r0, -r0]
    64a8:	00000259 	andeq	r0, r0, r9, asr r2
    64ac:	008ca803 	addeq	sl, ip, r3, lsl #16
    64b0:	ce070000 	cdpgt	0, 0, cr0, cr7, cr0, {0}
    64b4:	03000001 	movweq	r0, #1
    64b8:	0000b7a9 	andeq	fp, r0, r9, lsr #15
    64bc:	4f080000 	svcmi	0x00080000
    64c0:	c7000000 	strgt	r0, [r0, -r0]
    64c4:	09000000 	stmdbeq	r0, {}	; <UNPREDICTABLE>
    64c8:	000000c7 	andeq	r0, r0, r7, asr #1
    64cc:	04030003 	streq	r0, [r3], #-3
    64d0:	00029207 	andeq	r9, r2, r7, lsl #4
    64d4:	03080a00 	movweq	r0, #35328	; 0x8a00
    64d8:	0000efa3 	andeq	lr, r0, r3, lsr #31
    64dc:	03920b00 	orrseq	r0, r2, #0, 22
    64e0:	a5030000 	strge	r0, [r3, #-0]
    64e4:	00000025 	andeq	r0, r0, r5, lsr #32
    64e8:	039a0b00 	orrseq	r0, sl, #0, 22
    64ec:	aa030000 	bge	c64f4 <__bss_end__+0xbca8c>
    64f0:	00000098 	muleq	r0, r8, r0
    64f4:	25040004 	strcs	r0, [r4, #-4]
    64f8:	03000003 	movweq	r0, #3
    64fc:	0000ceab 	andeq	ip, r0, fp, lsr #29
    6500:	018b0400 	orreq	r0, fp, r0, lsl #8
    6504:	af030000 	svcge	0x00030000
    6508:	0000006b 	andeq	r0, r0, fp, rrx
    650c:	040d040c 	streq	r0, [sp], #-1036	; 0xfffffbf4
    6510:	0000010d 	andeq	r0, r0, sp, lsl #2
    6514:	ea080103 	b	206928 <__bss_end__+0x1fcec0>
    6518:	0e000002 	cdpeq	0, 0, cr0, cr0, cr2, {0}
    651c:	0000010d 	andeq	r0, r0, sp, lsl #2
    6520:	00043c04 	andeq	r3, r4, r4, lsl #24
    6524:	5d160500 	cfldr32pl	mvfx0, [r6, #-0]
    6528:	0f000000 	svceq	0x00000000
    652c:	0000019c 	muleq	r0, ip, r1
    6530:	772d0518 			; <UNDEFINED> instruction: 0x772d0518
    6534:	0b000001 	bleq	6540 <_start-0x1ac0>
    6538:	00000346 	andeq	r0, r0, r6, asr #6
    653c:	01772f05 	cmneq	r7, r5, lsl #30
    6540:	10000000 	andne	r0, r0, r0
    6544:	05006b5f 	streq	r6, [r0, #-2911]	; 0xfffff4a1
    6548:	00002530 	andeq	r2, r0, r0, lsr r5
    654c:	7d0b0400 	cfstrsvc	mvf0, [fp, #-0]
    6550:	05000003 	streq	r0, [r0, #-3]
    6554:	00002530 	andeq	r2, r0, r0, lsr r5
    6558:	850b0800 	strhi	r0, [fp, #-2048]	; 0xfffff800
    655c:	05000001 	streq	r0, [r0, #-1]
    6560:	00002530 	andeq	r2, r0, r0, lsr r5
    6564:	8a0b0c00 	bhi	2c956c <__bss_end__+0x2bfb04>
    6568:	05000004 	streq	r0, [r0, #-4]
    656c:	00002530 	andeq	r2, r0, r0, lsr r5
    6570:	5f101000 	svcpl	0x00101000
    6574:	31050078 	tstcc	r5, r8, ror r0
    6578:	0000017d 	andeq	r0, r0, sp, ror r1
    657c:	040d0014 	streq	r0, [sp], #-20	; 0xffffffec
    6580:	00000124 	andeq	r0, r0, r4, lsr #2
    6584:	00011908 	andeq	r1, r1, r8, lsl #18
    6588:	00018d00 	andeq	r8, r1, r0, lsl #26
    658c:	00c70900 	sbceq	r0, r7, r0, lsl #18
    6590:	00000000 	andeq	r0, r0, r0
    6594:	0001c90f 	andeq	ip, r1, pc, lsl #18
    6598:	35052400 	strcc	r2, [r5, #-1024]	; 0xfffffc00
    659c:	00000206 	andeq	r0, r0, r6, lsl #4
    65a0:	0000a10b 	andeq	sl, r0, fp, lsl #2
    65a4:	25370500 	ldrcs	r0, [r7, #-1280]!	; 0xfffffb00
    65a8:	00000000 	andeq	r0, r0, r0
    65ac:	0003b00b 	andeq	fp, r3, fp
    65b0:	25380500 	ldrcs	r0, [r8, #-1280]!	; 0xfffffb00
    65b4:	04000000 	streq	r0, [r0], #-0
    65b8:	0000c40b 	andeq	ip, r0, fp, lsl #8
    65bc:	25390500 	ldrcs	r0, [r9, #-1280]!	; 0xfffffb00
    65c0:	08000000 	stmdaeq	r0, {}	; <UNPREDICTABLE>
    65c4:	0005030b 	andeq	r0, r5, fp, lsl #6
    65c8:	253a0500 	ldrcs	r0, [sl, #-1280]!	; 0xfffffb00
    65cc:	0c000000 	stceq	0, cr0, [r0], {-0}
    65d0:	0002a20b 	andeq	sl, r2, fp, lsl #4
    65d4:	253b0500 	ldrcs	r0, [fp, #-1280]!	; 0xfffffb00
    65d8:	10000000 	andne	r0, r0, r0
    65dc:	00027b0b 	andeq	r7, r2, fp, lsl #22
    65e0:	253c0500 	ldrcs	r0, [ip, #-1280]!	; 0xfffffb00
    65e4:	14000000 	strne	r0, [r0], #-0
    65e8:	00048f0b 	andeq	r8, r4, fp, lsl #30
    65ec:	253d0500 	ldrcs	r0, [sp, #-1280]!	; 0xfffffb00
    65f0:	18000000 	stmdane	r0, {}	; <UNPREDICTABLE>
    65f4:	0003070b 	andeq	r0, r3, fp, lsl #14
    65f8:	253e0500 	ldrcs	r0, [lr, #-1280]!	; 0xfffffb00
    65fc:	1c000000 	stcne	0, cr0, [r0], {-0}
    6600:	0004ca0b 	andeq	ip, r4, fp, lsl #20
    6604:	253f0500 	ldrcs	r0, [pc, #-1280]!	; 610c <_start-0x1ef4>
    6608:	20000000 	andcs	r0, r0, r0
    660c:	01041100 	mrseq	r1, (UNDEF: 20)
    6610:	01080000 	mrseq	r0, (UNDEF: 8)
    6614:	02464805 	subeq	r4, r6, #327680	; 0x50000
    6618:	780b0000 	stmdavc	fp, {}	; <UNPREDICTABLE>
    661c:	05000001 	streq	r0, [r0, #-1]
    6620:	00024649 	andeq	r4, r2, r9, asr #12
    6624:	000b0000 	andeq	r0, fp, r0
    6628:	05000000 	streq	r0, [r0, #-0]
    662c:	0002464a 	andeq	r4, r2, sl, asr #12
    6630:	2e128000 	cdpcs	0, 1, cr8, cr2, cr0, {0}
    6634:	05000004 	streq	r0, [r0, #-4]
    6638:	0001194c 	andeq	r1, r1, ip, asr #18
    663c:	12010000 	andne	r0, r1, #0
    6640:	00000129 	andeq	r0, r0, r9, lsr #2
    6644:	01194f05 	tsteq	r9, r5, lsl #30
    6648:	01040000 	mrseq	r0, (UNDEF: 4)
    664c:	01050800 	tsteq	r5, r0, lsl #16
    6650:	02560000 	subseq	r0, r6, #0
    6654:	c7090000 	strgt	r0, [r9, -r0]
    6658:	1f000000 	svcne	0x00000000
    665c:	02ab1100 	adceq	r1, fp, #0, 2
    6660:	01900000 	orrseq	r0, r0, r0
    6664:	02945b05 	addseq	r5, r4, #5120	; 0x1400
    6668:	460b0000 	strmi	r0, [fp], -r0
    666c:	05000003 	streq	r0, [r0, #-3]
    6670:	0002945c 	andeq	r9, r2, ip, asr r4
    6674:	5e0b0000 	cdppl	0, 0, cr0, cr11, cr0, {0}
    6678:	05000003 	streq	r0, [r0, #-3]
    667c:	0000255d 	andeq	r2, r0, sp, asr r5
    6680:	800b0400 	andhi	r0, fp, r0, lsl #8
    6684:	05000001 	streq	r0, [r0, #-1]
    6688:	00029a5f 	andeq	r9, r2, pc, asr sl
    668c:	040b0800 	streq	r0, [fp], #-2048	; 0xfffff800
    6690:	05000001 	streq	r0, [r0, #-1]
    6694:	00020660 	andeq	r0, r2, r0, ror #12
    6698:	0d008800 	stceq	8, cr8, [r0, #-0]
    669c:	00025604 	andeq	r5, r2, r4, lsl #12
    66a0:	02aa0800 	adceq	r0, sl, #0, 16
    66a4:	02aa0000 	adceq	r0, sl, #0
    66a8:	c7090000 	strgt	r0, [r9, -r0]
    66ac:	1f000000 	svcne	0x00000000
    66b0:	b0040d00 	andlt	r0, r4, r0, lsl #26
    66b4:	13000002 	movwne	r0, #2
    66b8:	0003110f 	andeq	r1, r3, pc, lsl #2
    66bc:	73050800 	movwvc	r0, #22528	; 0x5800
    66c0:	000002d6 	ldrdeq	r0, [r0], -r6
    66c4:	0000be0b 	andeq	fp, r0, fp, lsl #28
    66c8:	d6740500 	ldrbtle	r0, [r4], -r0, lsl #10
    66cc:	00000002 	andeq	r0, r0, r2
    66d0:	00001b0b 	andeq	r1, r0, fp, lsl #22
    66d4:	25750500 	ldrbcs	r0, [r5, #-1280]!	; 0xfffffb00
    66d8:	04000000 	streq	r0, [r0], #-0
    66dc:	4f040d00 	svcmi	0x00040d00
    66e0:	0f000000 	svceq	0x00000000
    66e4:	00000330 	andeq	r0, r0, r0, lsr r3
    66e8:	06b30568 	ldrteq	r0, [r3], r8, ror #10
    66ec:	10000004 	andne	r0, r0, r4
    66f0:	0500705f 	streq	r7, [r0, #-95]	; 0xffffffa1
    66f4:	0002d6b4 			; <UNDEFINED> instruction: 0x0002d6b4
    66f8:	5f100000 	svcpl	0x00100000
    66fc:	b5050072 	strlt	r0, [r5, #-114]	; 0xffffff8e
    6700:	00000025 	andeq	r0, r0, r5, lsr #32
    6704:	775f1004 	ldrbvc	r1, [pc, -r4]
    6708:	25b60500 	ldrcs	r0, [r6, #1280]!	; 0x500
    670c:	08000000 	stmdaeq	r0, {}	; <UNPREDICTABLE>
    6710:	0001220b 	andeq	r2, r1, fp, lsl #4
    6714:	3ab70500 	bcc	fedc7b1c <__bss_end__+0xfedbe0b4>
    6718:	0c000000 	stceq	0, cr0, [r0], {-0}
    671c:	0001f40b 	andeq	pc, r1, fp, lsl #8
    6720:	3ab80500 	bcc	fee07b28 <__bss_end__+0xfedfe0c0>
    6724:	0e000000 	cdpeq	0, 0, cr0, cr0, cr0, {0}
    6728:	66625f10 	uqadd16vs	r5, r2, r0
    672c:	b1b90500 			; <UNDEFINED> instruction: 0xb1b90500
    6730:	10000002 	andne	r0, r0, r2
    6734:	00007b0b 	andeq	r7, r0, fp, lsl #22
    6738:	25ba0500 	ldrcs	r0, [sl, #1280]!	; 0x500
    673c:	18000000 	stmdane	r0, {}	; <UNPREDICTABLE>
    6740:	0001120b 	andeq	r1, r1, fp, lsl #4
    6744:	05c10500 	strbeq	r0, [r1, #1280]	; 0x500
    6748:	1c000001 	stcne	0, cr0, [r0], {1}
    674c:	000a5e0b 	andeq	r5, sl, fp, lsl #28
    6750:	61c30500 	bicvs	r0, r3, r0, lsl #10
    6754:	20000005 	andcs	r0, r0, r5
    6758:	000a780b 	andeq	r7, sl, fp, lsl #16
    675c:	8bc50500 	blhi	ff147b64 <__bss_end__+0xff13e0fc>
    6760:	24000005 	strcs	r0, [r0], #-5
    6764:	0003a20b 	andeq	sl, r3, fp, lsl #4
    6768:	afc80500 	svcge	0x00c80500
    676c:	28000005 	stmdacs	r0, {r0, r2}
    6770:	0004e40b 	andeq	lr, r4, fp, lsl #8
    6774:	c9c90500 	stmibgt	r9, {r8, sl}^
    6778:	2c000005 	stccs	0, cr0, [r0], {5}
    677c:	62755f10 	rsbsvs	r5, r5, #16, 30	; 0x40
    6780:	b1cc0500 	biclt	r0, ip, r0, lsl #10
    6784:	30000002 	andcc	r0, r0, r2
    6788:	70755f10 	rsbsvc	r5, r5, r0, lsl pc
    678c:	d6cd0500 	strble	r0, [sp], r0, lsl #10
    6790:	38000002 	stmdacc	r0, {r1}
    6794:	72755f10 	rsbsvc	r5, r5, #16, 30	; 0x40
    6798:	25ce0500 	strbcs	r0, [lr, #1280]	; 0x500
    679c:	3c000000 	stccc	0, cr0, [r0], {-0}
    67a0:	0000b80b 	andeq	fp, r0, fp, lsl #16
    67a4:	cfd10500 	svcgt	0x00d10500
    67a8:	40000005 	andmi	r0, r0, r5
    67ac:	0004bc0b 	andeq	fp, r4, fp, lsl #24
    67b0:	dfd20500 	svcle	0x00d20500
    67b4:	43000005 	movwmi	r0, #5
    67b8:	626c5f10 	rsbvs	r5, ip, #16, 30	; 0x40
    67bc:	b1d50500 	bicslt	r0, r5, r0, lsl #10
    67c0:	44000002 	strmi	r0, [r0], #-2
    67c4:	0001400b 	andeq	r4, r1, fp
    67c8:	25d80500 	ldrbcs	r0, [r8, #1280]	; 0x500
    67cc:	4c000000 	stcmi	0, cr0, [r0], {-0}
    67d0:	0001510b 	andeq	r5, r1, fp, lsl #2
    67d4:	76d90500 	ldrbvc	r0, [r9], r0, lsl #10
    67d8:	50000000 	andpl	r0, r0, r0
    67dc:	0009ff0b 	andeq	pc, r9, fp, lsl #30
    67e0:	24dc0500 	ldrbcs	r0, [ip], #1280	; 0x500
    67e4:	54000004 	strpl	r0, [r0], #-4
    67e8:	00026d0b 	andeq	r6, r2, fp, lsl #26
    67ec:	fae00500 	blx	ff807bf4 <__bss_end__+0xff7fe18c>
    67f0:	58000000 	stmdapl	r0, {}	; <UNPREDICTABLE>
    67f4:	0003380b 	andeq	r3, r3, fp, lsl #16
    67f8:	efe20500 	svc	0x00e20500
    67fc:	5c000000 	stcpl	0, cr0, [r0], {-0}
    6800:	0002730b 	andeq	r7, r2, fp, lsl #6
    6804:	25e30500 	strbcs	r0, [r3, #1280]!	; 0x500
    6808:	64000000 	strvs	r0, [r0], #-0
    680c:	00251400 	eoreq	r1, r5, r0, lsl #8
    6810:	04240000 	strteq	r0, [r4], #-0
    6814:	24150000 	ldrcs	r0, [r5], #-0
    6818:	15000004 	strne	r0, [r0, #-4]
    681c:	00000105 	andeq	r0, r0, r5, lsl #2
    6820:	00010715 	andeq	r0, r1, r5, lsl r7
    6824:	00251500 	eoreq	r1, r5, r0, lsl #10
    6828:	0d000000 	stceq	0, cr0, [r0, #-0]
    682c:	00042f04 	andeq	r2, r4, r4, lsl #30
    6830:	04240e00 	strteq	r0, [r4], #-3584	; 0xfffff200
    6834:	85160000 	ldrhi	r0, [r6, #-0]
    6838:	28000003 	stmdacs	r0, {r0, r1}
    683c:	02380504 	eorseq	r0, r8, #4, 10	; 0x1000000
    6840:	00000561 	andeq	r0, r0, r1, ror #10
    6844:	0002f617 	andeq	pc, r2, r7, lsl r6	; <UNPREDICTABLE>
    6848:	023a0500 	eorseq	r0, sl, #0, 10
    684c:	00000025 	andeq	r0, r0, r5, lsr #32
    6850:	01311700 	teqeq	r1, r0, lsl #14
    6854:	3f050000 	svccc	0x00050000
    6858:	00063602 	andeq	r3, r6, r2, lsl #12
    685c:	e4170400 	ldr	r0, [r7], #-1024	; 0xfffffc00
    6860:	05000001 	streq	r0, [r0, #-1]
    6864:	0636023f 			; <UNDEFINED> instruction: 0x0636023f
    6868:	17080000 	strne	r0, [r8, -r0]
    686c:	00000194 	muleq	r0, r4, r1
    6870:	36023f05 	strcc	r3, [r2], -r5, lsl #30
    6874:	0c000006 	stceq	0, cr0, [r0], {6}
    6878:	00035917 	andeq	r5, r3, r7, lsl r9
    687c:	02410500 	subeq	r0, r1, #0, 10
    6880:	00000025 	andeq	r0, r0, r5, lsr #32
    6884:	00291710 	eoreq	r1, r9, r0, lsl r7
    6888:	42050000 	andmi	r0, r5, #0
    688c:	00081802 	andeq	r1, r8, r2, lsl #16
    6890:	64171400 	ldrvs	r1, [r7], #-1024	; 0xfffffc00
    6894:	05000004 	streq	r0, [r0, #-4]
    6898:	00250244 	eoreq	r0, r5, r4, asr #4
    689c:	17300000 	ldrne	r0, [r0, -r0]!
    68a0:	00000363 	andeq	r0, r0, r3, ror #6
    68a4:	85024505 	strhi	r4, [r2, #-1285]	; 0xfffffafb
    68a8:	34000005 	strcc	r0, [r0], #-5
    68ac:	0002b317 	andeq	fp, r2, r7, lsl r3
    68b0:	02470500 	subeq	r0, r7, #0, 10
    68b4:	00000025 	andeq	r0, r0, r5, lsr #32
    68b8:	03731738 	cmneq	r3, #56, 14	; 0xe00000
    68bc:	49050000 	stmdbmi	r5, {}	; <UNPREDICTABLE>
    68c0:	00083302 	andeq	r3, r8, r2, lsl #6
    68c4:	51173c00 	tstpl	r7, r0, lsl #24
    68c8:	05000002 	streq	r0, [r0, #-2]
    68cc:	0177024c 	cmneq	r7, ip, asr #4
    68d0:	17400000 	strbne	r0, [r0, -r0]
    68d4:	000001b3 			; <UNDEFINED> instruction: 0x000001b3
    68d8:	25024d05 	strcs	r4, [r2, #-3333]	; 0xfffff2fb
    68dc:	44000000 	strmi	r0, [r0], #-0
    68e0:	0004fe17 	andeq	pc, r4, r7, lsl lr	; <UNPREDICTABLE>
    68e4:	024e0500 	subeq	r0, lr, #0, 10
    68e8:	00000177 	andeq	r0, r0, r7, ror r1
    68ec:	02c51748 	sbceq	r1, r5, #72, 14	; 0x1200000
    68f0:	4f050000 	svcmi	0x00050000
    68f4:	00083902 	andeq	r3, r8, r2, lsl #18
    68f8:	ec174c00 	ldc	12, cr4, [r7], {-0}
    68fc:	05000001 	streq	r0, [r0, #-1]
    6900:	00250252 	eoreq	r0, r5, r2, asr r2
    6904:	17500000 	ldrbne	r0, [r0, -r0]
    6908:	00000149 	andeq	r0, r0, r9, asr #2
    690c:	07025305 	streq	r5, [r2, -r5, lsl #6]
    6910:	54000001 	strpl	r0, [r0], #-1
    6914:	0002ef17 	andeq	lr, r2, r7, lsl pc
    6918:	02760500 	rsbseq	r0, r6, #0, 10
    691c:	000007f6 	strdeq	r0, [r0], -r6
    6920:	02ab1858 	adceq	r1, fp, #88, 16	; 0x580000
    6924:	7a050000 	bvc	14692c <__bss_end__+0x13cec4>
    6928:	00029402 	andeq	r9, r2, r2, lsl #8
    692c:	18014800 	stmdane	r1, {fp, lr}
    6930:	0000022f 	andeq	r0, r0, pc, lsr #4
    6934:	56027b05 	strpl	r7, [r2], -r5, lsl #22
    6938:	4c000002 	stcmi	0, cr0, [r0], {2}
    693c:	04b21801 	ldrteq	r1, [r2], #2049	; 0x801
    6940:	7f050000 	svcvc	0x00050000
    6944:	00084a02 	andeq	r4, r8, r2, lsl #20
    6948:	1802dc00 	stmdane	r2, {sl, fp, ip, lr, pc}
    694c:	0000011a 	andeq	r0, r0, sl, lsl r1
    6950:	fb028405 	blx	a796e <__bss_end__+0x9df06>
    6954:	e0000005 	and	r0, r0, r5
    6958:	00ff1802 	rscseq	r1, pc, r2, lsl #16
    695c:	85050000 	strhi	r0, [r5, #-0]
    6960:	00085602 	andeq	r5, r8, r2, lsl #12
    6964:	0002ec00 	andeq	lr, r2, r0, lsl #24
    6968:	0406040d 	streq	r0, [r6], #-1037	; 0xfffffbf3
    696c:	25140000 	ldrcs	r0, [r4, #-0]
    6970:	85000000 	strhi	r0, [r0, #-0]
    6974:	15000005 	strne	r0, [r0, #-5]
    6978:	00000424 	andeq	r0, r0, r4, lsr #8
    697c:	00010515 	andeq	r0, r1, r5, lsl r5
    6980:	05851500 	streq	r1, [r5, #1280]	; 0x500
    6984:	25150000 	ldrcs	r0, [r5, #-0]
    6988:	00000000 	andeq	r0, r0, r0
    698c:	0114040d 	tsteq	r4, sp, lsl #8
    6990:	040d0000 	streq	r0, [sp], #-0
    6994:	00000567 	andeq	r0, r0, r7, ror #10
    6998:	00008114 	andeq	r8, r0, r4, lsl r1
    699c:	0005af00 	andeq	sl, r5, r0, lsl #30
    69a0:	04241500 	strteq	r1, [r4], #-1280	; 0xfffffb00
    69a4:	05150000 	ldreq	r0, [r5, #-0]
    69a8:	15000001 	strne	r0, [r0, #-1]
    69ac:	00000081 	andeq	r0, r0, r1, lsl #1
    69b0:	00002515 	andeq	r2, r0, r5, lsl r5
    69b4:	040d0000 	streq	r0, [sp], #-0
    69b8:	00000591 	muleq	r0, r1, r5
    69bc:	00002514 	andeq	r2, r0, r4, lsl r5
    69c0:	0005c900 	andeq	ip, r5, r0, lsl #18
    69c4:	04241500 	strteq	r1, [r4], #-1280	; 0xfffffb00
    69c8:	05150000 	ldreq	r0, [r5, #-0]
    69cc:	00000001 	andeq	r0, r0, r1
    69d0:	05b5040d 	ldreq	r0, [r5, #1037]!	; 0x40d
    69d4:	4f080000 	svcmi	0x00080000
    69d8:	df000000 	svcle	0x00000000
    69dc:	09000005 	stmdbeq	r0, {r0, r2}
    69e0:	000000c7 	andeq	r0, r0, r7, asr #1
    69e4:	4f080002 	svcmi	0x00080002
    69e8:	ef000000 	svc	0x00000000
    69ec:	09000005 	stmdbeq	r0, {r0, r2}
    69f0:	000000c7 	andeq	r0, r0, r7, asr #1
    69f4:	1e050000 	cdpne	0, 0, cr0, cr5, cr0, {0}
    69f8:	05000003 	streq	r0, [r0, #-3]
    69fc:	02dc011d 	sbcseq	r0, ip, #1073741831	; 0x40000007
    6a00:	99190000 	ldmdbls	r9, {}	; <UNPREDICTABLE>
    6a04:	0c000004 	stceq	0, cr0, [r0], {4}
    6a08:	30012105 	andcc	r2, r1, r5, lsl #2
    6a0c:	17000006 	strne	r0, [r0, -r6]
    6a10:	00000346 	andeq	r0, r0, r6, asr #6
    6a14:	30012305 	andcc	r2, r1, r5, lsl #6
    6a18:	00000006 	andeq	r0, r0, r6
    6a1c:	00020717 	andeq	r0, r2, r7, lsl r7
    6a20:	01240500 			; <UNDEFINED> instruction: 0x01240500
    6a24:	00000025 	andeq	r0, r0, r5, lsr #32
    6a28:	03181704 	tsteq	r8, #4, 14	; 0x100000
    6a2c:	25050000 	strcs	r0, [r5, #-0]
    6a30:	00063601 	andeq	r3, r6, r1, lsl #12
    6a34:	0d000800 	stceq	8, cr0, [r0, #-0]
    6a38:	0005fb04 	andeq	pc, r5, r4, lsl #22
    6a3c:	ef040d00 	svc	0x00040d00
    6a40:	19000005 	stmdbne	r0, {r0, r2}
    6a44:	00000021 	andeq	r0, r0, r1, lsr #32
    6a48:	013d050e 	teqeq	sp, lr, lsl #10
    6a4c:	00000671 	andeq	r0, r0, r1, ror r6
    6a50:	00038c17 	andeq	r8, r3, r7, lsl ip
    6a54:	013e0500 	teqeq	lr, r0, lsl #10
    6a58:	00000671 	andeq	r0, r0, r1, ror r6
    6a5c:	03b91700 			; <UNDEFINED> instruction: 0x03b91700
    6a60:	3f050000 	svccc	0x00050000
    6a64:	00067101 	andeq	r7, r6, r1, lsl #2
    6a68:	37170600 	ldrcc	r0, [r7, -r0, lsl #12]
    6a6c:	05000004 	streq	r0, [r0, #-4]
    6a70:	00560140 	subseq	r0, r6, r0, asr #2
    6a74:	000c0000 	andeq	r0, ip, r0
    6a78:	00005608 	andeq	r5, r0, r8, lsl #12
    6a7c:	00068100 	andeq	r8, r6, r0, lsl #2
    6a80:	00c70900 	sbceq	r0, r7, r0, lsl #18
    6a84:	00020000 	andeq	r0, r2, r0
    6a88:	5705d01a 	smladpl	r5, sl, r0, sp
    6a8c:	00078202 	andeq	r8, r7, r2, lsl #4
    6a90:	047d1700 	ldrbteq	r1, [sp], #-1792	; 0xfffff900
    6a94:	59050000 	stmdbpl	r5, {}	; <UNPREDICTABLE>
    6a98:	00002c02 	andeq	r2, r0, r2, lsl #24
    6a9c:	21170000 	tstcs	r7, r0
    6aa0:	05000004 	streq	r0, [r0, #-4]
    6aa4:	0107025a 	tsteq	r7, sl, asr r2
    6aa8:	17040000 	strne	r0, [r4, -r0]
    6aac:	00000244 	andeq	r0, r0, r4, asr #4
    6ab0:	82025b05 	andhi	r5, r2, #5120	; 0x1400
    6ab4:	08000007 	stmdaeq	r0, {r0, r1, r2}
    6ab8:	0004d517 	andeq	sp, r4, r7, lsl r5
    6abc:	025c0500 	subseq	r0, ip, #0, 10
    6ac0:	0000018d 	andeq	r0, r0, sp, lsl #3
    6ac4:	01a41724 			; <UNDEFINED> instruction: 0x01a41724
    6ac8:	5d050000 	stcpl	0, cr0, [r5, #-0]
    6acc:	00002502 	andeq	r2, r0, r2, lsl #10
    6ad0:	41174800 	tstmi	r7, r0, lsl #16
    6ad4:	05000003 	streq	r0, [r0, #-3]
    6ad8:	0064025e 	rsbeq	r0, r4, lr, asr r2
    6adc:	17500000 	ldrbne	r0, [r0, -r0]
    6ae0:	000004eb 	andeq	r0, r0, fp, ror #9
    6ae4:	3c025f05 	stccc	15, cr5, [r2], {5}
    6ae8:	58000006 	stmdapl	r0, {r1, r2}
    6aec:	00034c17 	andeq	r4, r3, r7, lsl ip
    6af0:	02600500 	rsbeq	r0, r0, #0, 10
    6af4:	000000ef 	andeq	r0, r0, pc, ror #1
    6af8:	04f01768 	ldrbteq	r1, [r0], #1896	; 0x768
    6afc:	61050000 	mrsvs	r0, (UNDEF: 5)
    6b00:	0000ef02 	andeq	lr, r0, r2, lsl #30
    6b04:	93177000 	tstls	r7, #0
    6b08:	05000000 	streq	r0, [r0, #-0]
    6b0c:	00ef0262 	rsceq	r0, pc, r2, ror #4
    6b10:	17780000 	ldrbne	r0, [r8, -r0]!
    6b14:	000004a8 	andeq	r0, r0, r8, lsr #9
    6b18:	92026305 	andls	r6, r2, #335544320	; 0x14000000
    6b1c:	80000007 	andhi	r0, r0, r7
    6b20:	00023817 	andeq	r3, r2, r7, lsl r8
    6b24:	02640500 	rsbeq	r0, r4, #0, 10
    6b28:	000007a2 	andeq	r0, r0, r2, lsr #15
    6b2c:	04441788 	strbeq	r1, [r4], #-1928	; 0xfffff878
    6b30:	65050000 	strvs	r0, [r5, #-0]
    6b34:	00002502 	andeq	r2, r0, r2, lsl #10
    6b38:	6a17a000 	bvs	5eeb40 <__bss_end__+0x5e50d8>
    6b3c:	05000001 	streq	r0, [r0, #-1]
    6b40:	00ef0266 	rsceq	r0, pc, r6, ror #4
    6b44:	17a40000 	strne	r0, [r4, r0]!
    6b48:	00000084 	andeq	r0, r0, r4, lsl #1
    6b4c:	ef026705 	svc	0x00026705
    6b50:	ac000000 	stcge	0, cr0, [r0], {-0}
    6b54:	00015917 	andeq	r5, r1, r7, lsl r9
    6b58:	02680500 	rsbeq	r0, r8, #0, 10
    6b5c:	000000ef 	andeq	r0, r0, pc, ror #1
    6b60:	003c17b4 	ldrhteq	r1, [ip], -r4
    6b64:	69050000 	stmdbvs	r5, {}	; <UNPREDICTABLE>
    6b68:	0000ef02 	andeq	lr, r0, r2, lsl #30
    6b6c:	4b17bc00 	blmi	5f5b74 <__bss_end__+0x5ec10c>
    6b70:	05000000 	streq	r0, [r0, #-0]
    6b74:	00ef026a 	rsceq	r0, pc, sl, ror #4
    6b78:	17c40000 	strbne	r0, [r4, r0]
    6b7c:	000002f4 	strdeq	r0, [r0], -r4
    6b80:	25026b05 	strcs	r6, [r2, #-2821]	; 0xfffff4fb
    6b84:	cc000000 	stcgt	0, cr0, [r0], {-0}
    6b88:	010d0800 	tsteq	sp, r0, lsl #16
    6b8c:	07920000 	ldreq	r0, [r2, r0]
    6b90:	c7090000 	strgt	r0, [r9, -r0]
    6b94:	19000000 	stmdbne	r0, {}	; <UNPREDICTABLE>
    6b98:	010d0800 	tsteq	sp, r0, lsl #16
    6b9c:	07a20000 	streq	r0, [r2, r0]!
    6ba0:	c7090000 	strgt	r0, [r9, -r0]
    6ba4:	07000000 	streq	r0, [r0, -r0]
    6ba8:	010d0800 	tsteq	sp, r0, lsl #16
    6bac:	07b20000 	ldreq	r0, [r2, r0]!
    6bb0:	c7090000 	strgt	r0, [r9, -r0]
    6bb4:	17000000 	strne	r0, [r0, -r0]
    6bb8:	05f01a00 	ldrbeq	r1, [r0, #2560]!	; 0xa00
    6bbc:	07d60270 			; <UNDEFINED> instruction: 0x07d60270
    6bc0:	9b170000 	blls	5c6bc8 <__bss_end__+0x5bd160>
    6bc4:	05000002 	streq	r0, [r0, #-2]
    6bc8:	07d60273 			; <UNDEFINED> instruction: 0x07d60273
    6bcc:	17000000 	strne	r0, [r0, -r0]
    6bd0:	0000049f 	muleq	r0, pc, r4	; <UNPREDICTABLE>
    6bd4:	e6027405 	str	r7, [r2], -r5, lsl #8
    6bd8:	78000007 	stmdavc	r0, {r0, r1, r2}
    6bdc:	02d60800 	sbcseq	r0, r6, #0, 16
    6be0:	07e60000 	strbeq	r0, [r6, r0]!
    6be4:	c7090000 	strgt	r0, [r9, -r0]
    6be8:	1d000000 	stcne	0, cr0, [r0, #-0]
    6bec:	002c0800 	eoreq	r0, ip, r0, lsl #16
    6bf0:	07f60000 	ldrbeq	r0, [r6, r0]!
    6bf4:	c7090000 	strgt	r0, [r9, -r0]
    6bf8:	1d000000 	stcne	0, cr0, [r0, #-0]
    6bfc:	05f01b00 	ldrbeq	r1, [r0, #2816]!	; 0xb00
    6c00:	08180255 	ldmdaeq	r8, {r0, r2, r4, r6, r9}
    6c04:	851c0000 	ldrhi	r0, [ip, #-0]
    6c08:	05000003 	streq	r0, [r0, #-3]
    6c0c:	0681026c 	streq	r0, [r1], ip, ror #4
    6c10:	c21c0000 	andsgt	r0, ip, #0
    6c14:	05000004 	streq	r0, [r0, #-4]
    6c18:	07b20275 			; <UNDEFINED> instruction: 0x07b20275
    6c1c:	08000000 	stmdaeq	r0, {}	; <UNPREDICTABLE>
    6c20:	0000010d 	andeq	r0, r0, sp, lsl #2
    6c24:	00000828 	andeq	r0, r0, r8, lsr #16
    6c28:	0000c709 	andeq	ip, r0, r9, lsl #14
    6c2c:	1d001800 	stcne	8, cr1, [r0, #-0]
    6c30:	00000833 	andeq	r0, r0, r3, lsr r8
    6c34:	00042415 	andeq	r2, r4, r5, lsl r4
    6c38:	040d0000 	streq	r0, [sp], #-0
    6c3c:	00000828 	andeq	r0, r0, r8, lsr #16
    6c40:	0177040d 	cmneq	r7, sp, lsl #8
    6c44:	4a1d0000 	bmi	746c4c <__bss_end__+0x73d1e4>
    6c48:	15000008 	strne	r0, [r0, #-8]
    6c4c:	00000025 	andeq	r0, r0, r5, lsr #32
    6c50:	50040d00 	andpl	r0, r4, r0, lsl #26
    6c54:	0d000008 	stceq	0, cr0, [r0, #-32]	; 0xffffffe0
    6c58:	00083f04 	andeq	r3, r8, r4, lsl #30
    6c5c:	05ef0800 	strbeq	r0, [pc, #2048]!	; 7464 <_start-0xb9c>
    6c60:	08660000 	stmdaeq	r6!, {}^	; <UNPREDICTABLE>
    6c64:	c7090000 	strgt	r0, [r9, -r0]
    6c68:	02000000 	andeq	r0, r0, #0
    6c6c:	04581e00 	ldrbeq	r1, [r8], #-3584	; 0xfffff200
    6c70:	fd050000 	stc2	0, cr0, [r5, #-0]
    6c74:	00042402 	andeq	r2, r4, r2, lsl #8
    6c78:	04511e00 	ldrbeq	r1, [r1], #-3584	; 0xfffff200
    6c7c:	fe050000 	cdp2	0, 0, cr0, cr5, cr0, {0}
    6c80:	00042a02 	andeq	r2, r4, r2, lsl #20
    6c84:	00251400 	eoreq	r1, r5, r0, lsl #8
    6c88:	088d0000 	stmeq	sp, {}	; <UNPREDICTABLE>
    6c8c:	25150000 	ldrcs	r0, [r5, #-0]
    6c90:	00000000 	andeq	r0, r0, r0
    6c94:	0001bd1f 	andeq	fp, r1, pc, lsl sp
    6c98:	981d0600 	ldmdals	sp, {r9, sl}
    6c9c:	0d000008 	stceq	0, cr0, [r0, #-32]	; 0xffffffe0
    6ca0:	00087e04 	andeq	r7, r8, r4, lsl #28
    6ca4:	00251400 	eoreq	r1, r5, r0, lsl #8
    6ca8:	08ad0000 	stmiaeq	sp!, {}	; <UNPREDICTABLE>
    6cac:	85150000 	ldrhi	r0, [r5, #-0]
    6cb0:	00000005 	andeq	r0, r0, r5
    6cb4:	0007561f 	andeq	r5, r7, pc, lsl r6
    6cb8:	b8220600 	stmdalt	r2!, {r9, sl}
    6cbc:	0d000008 	stceq	0, cr0, [r0, #-32]	; 0xffffffe0
    6cc0:	00089e04 	andeq	r9, r8, r4, lsl #28
    6cc4:	07bf2000 	ldreq	r2, [pc, r0]!
    6cc8:	0d010000 	stceq	0, cr0, [r1, #-0]
    6ccc:	00008dd8 	ldrdeq	r8, [r0], -r8	; <UNPREDICTABLE>
    6cd0:	00000034 	andeq	r0, r0, r4, lsr r0
    6cd4:	091d9c01 	ldmdbeq	sp, {r0, sl, fp, ip, pc}
    6cd8:	cf1f0000 	svcgt	0x001f0000
    6cdc:	01000007 	tsteq	r0, r7
    6ce0:	0000250e 	andeq	r2, r0, lr, lsl #10
    6ce4:	07dd1f00 	ldrbeq	r1, [sp, r0, lsl #30]
    6ce8:	0e010000 	cdpeq	0, 0, cr0, cr1, cr0, {0}
    6cec:	00000025 	andeq	r0, r0, r5, lsr #32
    6cf0:	00003421 	andeq	r3, r0, r1, lsr #8
    6cf4:	220f0100 	andcs	r0, pc, #0, 2
    6cf8:	00737362 	rsbseq	r7, r3, r2, ror #6
    6cfc:	091d1101 	ldmdbeq	sp, {r0, r8, ip}
    6d00:	0dd10000 	ldcleq	0, cr0, [r1]
    6d04:	c7230000 	strgt	r0, [r3, -r0]!
    6d08:	01000007 	tsteq	r0, r7
    6d0c:	00091d12 	andeq	r1, r9, r2, lsl sp
    6d10:	8e002400 	cfcpyshi	mvf2, mvf0
    6d14:	09230000 	stmdbeq	r3!, {}	; <UNPREDICTABLE>
    6d18:	04240000 	strteq	r0, [r4], #-0
    6d1c:	2e00008e 	cdpcs	0, 0, cr0, cr0, cr14, {4}
    6d20:	00000009 	andeq	r0, r0, r9
    6d24:	0025040d 	eoreq	r0, r5, sp, lsl #8
    6d28:	34250000 	strtcc	r0, [r5], #-0
    6d2c:	34000000 	strcc	r0, [r0], #-0
    6d30:	06000000 	streq	r0, [r0], -r0
    6d34:	028525d7 	addeq	r2, r5, #901775360	; 0x35c00000
    6d38:	02850000 	addeq	r0, r5, #0
    6d3c:	65060000 	strvs	r0, [r6, #-0]
    6d40:	0009e600 	andeq	lr, r9, r0, lsl #12
    6d44:	c9000400 	stmdbgt	r0, {sl}
    6d48:	04000014 	streq	r0, [r0], #-20	; 0xffffffec
    6d4c:	0003bf01 	andeq	fp, r3, r1, lsl #30
    6d50:	083d0c00 	ldmdaeq	sp!, {sl, fp}
    6d54:	06b60000 	ldrteq	r0, [r6], r0
    6d58:	00300000 	eorseq	r0, r0, r0
    6d5c:	00000000 	andeq	r0, r0, r0
    6d60:	0b740000 	bleq	1d06d68 <__bss_end__+0x1cfd300>
    6d64:	04020000 	streq	r0, [r2], #-0
    6d68:	746e6905 	strbtvc	r6, [lr], #-2309	; 0xfffff6fb
    6d6c:	00250300 	eoreq	r0, r5, r0, lsl #6
    6d70:	04040000 	streq	r0, [r4], #-0
    6d74:	00006607 	andeq	r6, r0, r7, lsl #12
    6d78:	06010400 	streq	r0, [r1], -r0, lsl #8
    6d7c:	000002e3 	andeq	r0, r0, r3, ror #5
    6d80:	fd050204 	stc2	2, cr0, [r5, #-16]
    6d84:	04000002 	streq	r0, [r0], #-2
    6d88:	00af0504 	adceq	r0, pc, r4, lsl #10
    6d8c:	08040000 	stmdaeq	r4, {}	; <UNPREDICTABLE>
    6d90:	0000aa05 	andeq	sl, r0, r5, lsl #20
    6d94:	08010400 	stmdaeq	r1, {sl}
    6d98:	000002e1 	andeq	r0, r0, r1, ror #5
    6d9c:	0e070204 	cdpeq	2, 0, cr0, cr7, cr4, {0}
    6da0:	04000002 	streq	r0, [r0], #-2
    6da4:	00610704 	rsbeq	r0, r1, r4, lsl #14
    6da8:	08040000 	stmdaeq	r4, {}	; <UNPREDICTABLE>
    6dac:	00005c07 	andeq	r5, r0, r7, lsl #24
    6db0:	02cf0500 	sbceq	r0, pc, #0, 10
    6db4:	07020000 	streq	r0, [r2, -r0]
    6db8:	00000025 	andeq	r0, r0, r5, lsr #32
    6dbc:	0002be05 	andeq	fp, r2, r5, lsl #28
    6dc0:	462c0300 	strtmi	r0, [ip], -r0, lsl #6
    6dc4:	05000000 	streq	r0, [r0, #-0]
    6dc8:	000003a8 	andeq	r0, r0, r8, lsr #7
    6dcc:	00467203 	subeq	r7, r6, r3, lsl #4
    6dd0:	5f060000 	svcpl	0x00060000
    6dd4:	04000002 	streq	r0, [r0], #-2
    6dd8:	00310165 	eorseq	r0, r1, r5, ror #2
    6ddc:	04070000 	streq	r0, [r7], #-0
    6de0:	00bca603 	adcseq	sl, ip, r3, lsl #12
    6de4:	59080000 	stmdbpl	r8, {}	; <UNPREDICTABLE>
    6de8:	03000002 	movweq	r0, #2
    6dec:	000091a8 	andeq	r9, r0, r8, lsr #3
    6df0:	01ce0800 	biceq	r0, lr, r0, lsl #16
    6df4:	a9030000 	stmdbge	r3, {}	; <UNPREDICTABLE>
    6df8:	000000bc 	strheq	r0, [r0], -ip
    6dfc:	00540900 	subseq	r0, r4, r0, lsl #18
    6e00:	00cc0000 	sbceq	r0, ip, r0
    6e04:	cc0a0000 	stcgt	0, cr0, [sl], {-0}
    6e08:	03000000 	movweq	r0, #0
    6e0c:	07040400 	streq	r0, [r4, -r0, lsl #8]
    6e10:	00000292 	muleq	r0, r2, r2
    6e14:	a303080b 	movwge	r0, #14347	; 0x380b
    6e18:	000000f4 	strdeq	r0, [r0], -r4
    6e1c:	0003920c 	andeq	r9, r3, ip, lsl #4
    6e20:	25a50300 	strcs	r0, [r5, #768]!	; 0x300
    6e24:	00000000 	andeq	r0, r0, r0
    6e28:	00039a0c 	andeq	r9, r3, ip, lsl #20
    6e2c:	9daa0300 	stcls	3, cr0, [sl]
    6e30:	04000000 	streq	r0, [r0], #-0
    6e34:	03250500 			; <UNDEFINED> instruction: 0x03250500
    6e38:	ab030000 	blge	c6e40 <__bss_end__+0xbd3d8>
    6e3c:	000000d3 	ldrdeq	r0, [r0], -r3
    6e40:	00018b05 	andeq	r8, r1, r5, lsl #22
    6e44:	70af0300 	adcvc	r0, pc, r0, lsl #6
    6e48:	0d000000 	stceq	0, cr0, [r0, #-0]
    6e4c:	12040e04 	andne	r0, r4, #4, 28	; 0x40
    6e50:	04000001 	streq	r0, [r0], #-1
    6e54:	02ea0801 	rsceq	r0, sl, #65536	; 0x10000
    6e58:	12030000 	andne	r0, r3, #0
    6e5c:	05000001 	streq	r0, [r0, #-1]
    6e60:	0000043c 	andeq	r0, r0, ip, lsr r4
    6e64:	00621605 	rsbeq	r1, r2, r5, lsl #12
    6e68:	9c0f0000 	stcls	0, cr0, [pc], {-0}
    6e6c:	18000001 	stmdane	r0, {r0}
    6e70:	017c2d05 	cmneq	ip, r5, lsl #26
    6e74:	460c0000 	strmi	r0, [ip], -r0
    6e78:	05000003 	streq	r0, [r0, #-3]
    6e7c:	00017c2f 	andeq	r7, r1, pc, lsr #24
    6e80:	5f100000 	svcpl	0x00100000
    6e84:	3005006b 	andcc	r0, r5, fp, rrx
    6e88:	00000025 	andeq	r0, r0, r5, lsr #32
    6e8c:	037d0c04 	cmneq	sp, #4, 24	; 0x400
    6e90:	30050000 	andcc	r0, r5, r0
    6e94:	00000025 	andeq	r0, r0, r5, lsr #32
    6e98:	01850c08 	orreq	r0, r5, r8, lsl #24
    6e9c:	30050000 	andcc	r0, r5, r0
    6ea0:	00000025 	andeq	r0, r0, r5, lsr #32
    6ea4:	048a0c0c 	streq	r0, [sl], #3084	; 0xc0c
    6ea8:	30050000 	andcc	r0, r5, r0
    6eac:	00000025 	andeq	r0, r0, r5, lsr #32
    6eb0:	785f1010 	ldmdavc	pc, {r4, ip}^	; <UNPREDICTABLE>
    6eb4:	82310500 	eorshi	r0, r1, #0, 10
    6eb8:	14000001 	strne	r0, [r0], #-1
    6ebc:	29040e00 	stmdbcs	r4, {r9, sl, fp}
    6ec0:	09000001 	stmdbeq	r0, {r0}
    6ec4:	0000011e 	andeq	r0, r0, lr, lsl r1
    6ec8:	00000192 	muleq	r0, r2, r1
    6ecc:	0000cc0a 	andeq	ip, r0, sl, lsl #24
    6ed0:	0f000000 	svceq	0x00000000
    6ed4:	000001c9 	andeq	r0, r0, r9, asr #3
    6ed8:	0b350524 	bleq	d48370 <__bss_end__+0xd3e908>
    6edc:	0c000002 	stceq	0, cr0, [r0], {2}
    6ee0:	000000a1 	andeq	r0, r0, r1, lsr #1
    6ee4:	00253705 	eoreq	r3, r5, r5, lsl #14
    6ee8:	0c000000 	stceq	0, cr0, [r0], {-0}
    6eec:	000003b0 			; <UNDEFINED> instruction: 0x000003b0
    6ef0:	00253805 	eoreq	r3, r5, r5, lsl #16
    6ef4:	0c040000 	stceq	0, cr0, [r4], {-0}
    6ef8:	000000c4 	andeq	r0, r0, r4, asr #1
    6efc:	00253905 	eoreq	r3, r5, r5, lsl #18
    6f00:	0c080000 	stceq	0, cr0, [r8], {-0}
    6f04:	00000503 	andeq	r0, r0, r3, lsl #10
    6f08:	00253a05 	eoreq	r3, r5, r5, lsl #20
    6f0c:	0c0c0000 	stceq	0, cr0, [ip], {-0}
    6f10:	000002a2 	andeq	r0, r0, r2, lsr #5
    6f14:	00253b05 	eoreq	r3, r5, r5, lsl #22
    6f18:	0c100000 	ldceq	0, cr0, [r0], {-0}
    6f1c:	0000027b 	andeq	r0, r0, fp, ror r2
    6f20:	00253c05 	eoreq	r3, r5, r5, lsl #24
    6f24:	0c140000 	ldceq	0, cr0, [r4], {-0}
    6f28:	0000048f 	andeq	r0, r0, pc, lsl #9
    6f2c:	00253d05 	eoreq	r3, r5, r5, lsl #26
    6f30:	0c180000 	ldceq	0, cr0, [r8], {-0}
    6f34:	00000307 	andeq	r0, r0, r7, lsl #6
    6f38:	00253e05 	eoreq	r3, r5, r5, lsl #28
    6f3c:	0c1c0000 	ldceq	0, cr0, [ip], {-0}
    6f40:	000004ca 	andeq	r0, r0, sl, asr #9
    6f44:	00253f05 	eoreq	r3, r5, r5, lsl #30
    6f48:	00200000 	eoreq	r0, r0, r0
    6f4c:	00010411 	andeq	r0, r1, r1, lsl r4
    6f50:	05010800 	streq	r0, [r1, #-2048]	; 0xfffff800
    6f54:	00024b48 	andeq	r4, r2, r8, asr #22
    6f58:	01780c00 	cmneq	r8, r0, lsl #24
    6f5c:	49050000 	stmdbmi	r5, {}	; <UNPREDICTABLE>
    6f60:	0000024b 	andeq	r0, r0, fp, asr #4
    6f64:	00000c00 	andeq	r0, r0, r0, lsl #24
    6f68:	4a050000 	bmi	146f70 <__bss_end__+0x13d508>
    6f6c:	0000024b 	andeq	r0, r0, fp, asr #4
    6f70:	042e1280 	strteq	r1, [lr], #-640	; 0xfffffd80
    6f74:	4c050000 	stcmi	0, cr0, [r5], {-0}
    6f78:	0000011e 	andeq	r0, r0, lr, lsl r1
    6f7c:	29120100 	ldmdbcs	r2, {r8}
    6f80:	05000001 	streq	r0, [r0, #-1]
    6f84:	00011e4f 	andeq	r1, r1, pc, asr #28
    6f88:	00010400 	andeq	r0, r1, r0, lsl #8
    6f8c:	00010a09 	andeq	r0, r1, r9, lsl #20
    6f90:	00025b00 	andeq	r5, r2, r0, lsl #22
    6f94:	00cc0a00 	sbceq	r0, ip, r0, lsl #20
    6f98:	001f0000 	andseq	r0, pc, r0
    6f9c:	0002ab11 	andeq	sl, r2, r1, lsl fp
    6fa0:	05019000 	streq	r9, [r1, #-0]
    6fa4:	0002995b 	andeq	r9, r2, fp, asr r9
    6fa8:	03460c00 	movteq	r0, #27648	; 0x6c00
    6fac:	5c050000 	stcpl	0, cr0, [r5], {-0}
    6fb0:	00000299 	muleq	r0, r9, r2
    6fb4:	035e0c00 	cmpeq	lr, #0, 24
    6fb8:	5d050000 	stcpl	0, cr0, [r5, #-0]
    6fbc:	00000025 	andeq	r0, r0, r5, lsr #32
    6fc0:	01800c04 	orreq	r0, r0, r4, lsl #24
    6fc4:	5f050000 	svcpl	0x00050000
    6fc8:	0000029f 	muleq	r0, pc, r2	; <UNPREDICTABLE>
    6fcc:	01040c08 	tsteq	r4, r8, lsl #24
    6fd0:	60050000 	andvs	r0, r5, r0
    6fd4:	0000020b 	andeq	r0, r0, fp, lsl #4
    6fd8:	040e0088 	streq	r0, [lr], #-136	; 0xffffff78
    6fdc:	0000025b 	andeq	r0, r0, fp, asr r2
    6fe0:	0002af09 	andeq	sl, r2, r9, lsl #30
    6fe4:	0002af00 	andeq	sl, r2, r0, lsl #30
    6fe8:	00cc0a00 	sbceq	r0, ip, r0, lsl #20
    6fec:	001f0000 	andseq	r0, pc, r0
    6ff0:	02b5040e 	adcseq	r0, r5, #234881024	; 0xe000000
    6ff4:	0f130000 	svceq	0x00130000
    6ff8:	00000311 	andeq	r0, r0, r1, lsl r3
    6ffc:	db730508 	blle	1cc8424 <__bss_end__+0x1cbe9bc>
    7000:	0c000002 	stceq	0, cr0, [r0], {2}
    7004:	000000be 	strheq	r0, [r0], -lr
    7008:	02db7405 	sbcseq	r7, fp, #83886080	; 0x5000000
    700c:	0c000000 	stceq	0, cr0, [r0], {-0}
    7010:	0000001b 	andeq	r0, r0, fp, lsl r0
    7014:	00257505 	eoreq	r7, r5, r5, lsl #10
    7018:	00040000 	andeq	r0, r4, r0
    701c:	0054040e 	subseq	r0, r4, lr, lsl #8
    7020:	300f0000 	andcc	r0, pc, r0
    7024:	68000003 	stmdavs	r0, {r0, r1}
    7028:	040bb305 	streq	fp, [fp], #-773	; 0xfffffcfb
    702c:	5f100000 	svcpl	0x00100000
    7030:	b4050070 	strlt	r0, [r5], #-112	; 0xffffff90
    7034:	000002db 	ldrdeq	r0, [r0], -fp
    7038:	725f1000 	subsvc	r1, pc, #0
    703c:	25b50500 	ldrcs	r0, [r5, #1280]!	; 0x500
    7040:	04000000 	streq	r0, [r0], #-0
    7044:	00775f10 	rsbseq	r5, r7, r0, lsl pc
    7048:	0025b605 	eoreq	fp, r5, r5, lsl #12
    704c:	0c080000 	stceq	0, cr0, [r8], {-0}
    7050:	00000122 	andeq	r0, r0, r2, lsr #2
    7054:	003fb705 	eorseq	fp, pc, r5, lsl #14
    7058:	0c0c0000 	stceq	0, cr0, [ip], {-0}
    705c:	000001f4 	strdeq	r0, [r0], -r4
    7060:	003fb805 	eorseq	fp, pc, r5, lsl #16
    7064:	100e0000 	andne	r0, lr, r0
    7068:	0066625f 	rsbeq	r6, r6, pc, asr r2
    706c:	02b6b905 	adcseq	fp, r6, #81920	; 0x14000
    7070:	0c100000 	ldceq	0, cr0, [r0], {-0}
    7074:	0000007b 	andeq	r0, r0, fp, ror r0
    7078:	0025ba05 	eoreq	fp, r5, r5, lsl #20
    707c:	0c180000 	ldceq	0, cr0, [r8], {-0}
    7080:	00000112 	andeq	r0, r0, r2, lsl r1
    7084:	010ac105 	tsteq	sl, r5, lsl #2
    7088:	0c1c0000 	ldceq	0, cr0, [ip], {-0}
    708c:	00000a5e 	andeq	r0, r0, lr, asr sl
    7090:	0566c305 	strbeq	ip, [r6, #-773]!	; 0xfffffcfb
    7094:	0c200000 	stceq	0, cr0, [r0], #-0
    7098:	00000a78 	andeq	r0, r0, r8, ror sl
    709c:	0590c505 	ldreq	ip, [r0, #1285]	; 0x505
    70a0:	0c240000 	stceq	0, cr0, [r4], #-0
    70a4:	000003a2 	andeq	r0, r0, r2, lsr #7
    70a8:	05b4c805 	ldreq	ip, [r4, #2053]!	; 0x805
    70ac:	0c280000 	stceq	0, cr0, [r8], #-0
    70b0:	000004e4 	andeq	r0, r0, r4, ror #9
    70b4:	05cec905 	strbeq	ip, [lr, #2309]	; 0x905
    70b8:	102c0000 	eorne	r0, ip, r0
    70bc:	0062755f 	rsbeq	r7, r2, pc, asr r5
    70c0:	02b6cc05 	adcseq	ip, r6, #1280	; 0x500
    70c4:	10300000 	eorsne	r0, r0, r0
    70c8:	0070755f 	rsbseq	r7, r0, pc, asr r5
    70cc:	02dbcd05 	sbcseq	ip, fp, #320	; 0x140
    70d0:	10380000 	eorsne	r0, r8, r0
    70d4:	0072755f 	rsbseq	r7, r2, pc, asr r5
    70d8:	0025ce05 	eoreq	ip, r5, r5, lsl #28
    70dc:	0c3c0000 	ldceq	0, cr0, [ip], #-0
    70e0:	000000b8 	strheq	r0, [r0], -r8
    70e4:	05d4d105 	ldrbeq	sp, [r4, #261]	; 0x105
    70e8:	0c400000 	mareq	acc0, r0, r0
    70ec:	000004bc 			; <UNDEFINED> instruction: 0x000004bc
    70f0:	05e4d205 	strbeq	sp, [r4, #517]!	; 0x205
    70f4:	10430000 	subne	r0, r3, r0
    70f8:	00626c5f 	rsbeq	r6, r2, pc, asr ip
    70fc:	02b6d505 	adcseq	sp, r6, #20971520	; 0x1400000
    7100:	0c440000 	mareq	acc0, r0, r4
    7104:	00000140 	andeq	r0, r0, r0, asr #2
    7108:	0025d805 	eoreq	sp, r5, r5, lsl #16
    710c:	0c4c0000 	mareq	acc0, r0, ip
    7110:	00000151 	andeq	r0, r0, r1, asr r1
    7114:	007bd905 	rsbseq	sp, fp, r5, lsl #18
    7118:	0c500000 	mraeq	r0, r0, acc0
    711c:	000009ff 	strdeq	r0, [r0], -pc	; <UNPREDICTABLE>
    7120:	0429dc05 	strteq	sp, [r9], #-3077	; 0xfffff3fb
    7124:	0c540000 	mraeq	r0, r4, acc0
    7128:	0000026d 	andeq	r0, r0, sp, ror #4
    712c:	00ffe005 	rscseq	lr, pc, r5
    7130:	0c580000 	mraeq	r0, r8, acc0
    7134:	00000338 	andeq	r0, r0, r8, lsr r3
    7138:	00f4e205 	rscseq	lr, r4, r5, lsl #4
    713c:	0c5c0000 	mraeq	r0, ip, acc0
    7140:	00000273 	andeq	r0, r0, r3, ror r2
    7144:	0025e305 	eoreq	lr, r5, r5, lsl #6
    7148:	00640000 	rsbeq	r0, r4, r0
    714c:	00002514 	andeq	r2, r0, r4, lsl r5
    7150:	00042900 	andeq	r2, r4, r0, lsl #18
    7154:	04291500 	strteq	r1, [r9], #-1280	; 0xfffffb00
    7158:	0a150000 	beq	547160 <__bss_end__+0x53d6f8>
    715c:	15000001 	strne	r0, [r0, #-1]
    7160:	0000010c 	andeq	r0, r0, ip, lsl #2
    7164:	00002515 	andeq	r2, r0, r5, lsl r5
    7168:	040e0000 	streq	r0, [lr], #-0
    716c:	00000434 	andeq	r0, r0, r4, lsr r4
    7170:	00042903 	andeq	r2, r4, r3, lsl #18
    7174:	03851600 	orreq	r1, r5, #0, 12
    7178:	04280000 	strteq	r0, [r8], #-0
    717c:	66023805 	strvs	r3, [r2], -r5, lsl #16
    7180:	17000005 	strne	r0, [r0, -r5]
    7184:	000002f6 	strdeq	r0, [r0], -r6
    7188:	25023a05 	strcs	r3, [r2, #-2565]	; 0xfffff5fb
    718c:	00000000 	andeq	r0, r0, r0
    7190:	00013117 	andeq	r3, r1, r7, lsl r1
    7194:	023f0500 	eorseq	r0, pc, #0, 10
    7198:	0000063b 	andeq	r0, r0, fp, lsr r6
    719c:	01e41704 	mvneq	r1, r4, lsl #14
    71a0:	3f050000 	svccc	0x00050000
    71a4:	00063b02 	andeq	r3, r6, r2, lsl #22
    71a8:	94170800 	ldrls	r0, [r7], #-2048	; 0xfffff800
    71ac:	05000001 	streq	r0, [r0, #-1]
    71b0:	063b023f 			; <UNDEFINED> instruction: 0x063b023f
    71b4:	170c0000 	strne	r0, [ip, -r0]
    71b8:	00000359 	andeq	r0, r0, r9, asr r3
    71bc:	25024105 	strcs	r4, [r2, #-261]	; 0xfffffefb
    71c0:	10000000 	andne	r0, r0, r0
    71c4:	00002917 	andeq	r2, r0, r7, lsl r9
    71c8:	02420500 	subeq	r0, r2, #0, 10
    71cc:	0000081d 	andeq	r0, r0, sp, lsl r8
    71d0:	04641714 	strbteq	r1, [r4], #-1812	; 0xfffff8ec
    71d4:	44050000 	strmi	r0, [r5], #-0
    71d8:	00002502 	andeq	r2, r0, r2, lsl #10
    71dc:	63173000 	tstvs	r7, #0
    71e0:	05000003 	streq	r0, [r0, #-3]
    71e4:	058a0245 	streq	r0, [sl, #581]	; 0x245
    71e8:	17340000 	ldrne	r0, [r4, -r0]!
    71ec:	000002b3 			; <UNDEFINED> instruction: 0x000002b3
    71f0:	25024705 	strcs	r4, [r2, #-1797]	; 0xfffff8fb
    71f4:	38000000 	stmdacc	r0, {}	; <UNPREDICTABLE>
    71f8:	00037317 	andeq	r7, r3, r7, lsl r3
    71fc:	02490500 	subeq	r0, r9, #0, 10
    7200:	00000838 	andeq	r0, r0, r8, lsr r8
    7204:	0251173c 	subseq	r1, r1, #60, 14	; 0xf00000
    7208:	4c050000 	stcmi	0, cr0, [r5], {-0}
    720c:	00017c02 	andeq	r7, r1, r2, lsl #24
    7210:	b3174000 	tstlt	r7, #0
    7214:	05000001 	streq	r0, [r0, #-1]
    7218:	0025024d 	eoreq	r0, r5, sp, asr #4
    721c:	17440000 	strbne	r0, [r4, -r0]
    7220:	000004fe 	strdeq	r0, [r0], -lr
    7224:	7c024e05 	stcvc	14, cr4, [r2], {5}
    7228:	48000001 	stmdami	r0, {r0}
    722c:	0002c517 	andeq	ip, r2, r7, lsl r5
    7230:	024f0500 	subeq	r0, pc, #0, 10
    7234:	0000083e 	andeq	r0, r0, lr, lsr r8
    7238:	01ec174c 	mvneq	r1, ip, asr #14
    723c:	52050000 	andpl	r0, r5, #0
    7240:	00002502 	andeq	r2, r0, r2, lsl #10
    7244:	49175000 	ldmdbmi	r7, {ip, lr}
    7248:	05000001 	streq	r0, [r0, #-1]
    724c:	010c0253 	tsteq	ip, r3, asr r2
    7250:	17540000 	ldrbne	r0, [r4, -r0]
    7254:	000002ef 	andeq	r0, r0, pc, ror #5
    7258:	fb027605 	blx	a4a76 <__bss_end__+0x9b00e>
    725c:	58000007 	stmdapl	r0, {r0, r1, r2}
    7260:	0002ab18 	andeq	sl, r2, r8, lsl fp
    7264:	027a0500 	rsbseq	r0, sl, #0, 10
    7268:	00000299 	muleq	r0, r9, r2
    726c:	2f180148 	svccs	0x00180148
    7270:	05000002 	streq	r0, [r0, #-2]
    7274:	025b027b 	subseq	r0, fp, #-1342177273	; 0xb0000007
    7278:	014c0000 	mrseq	r0, (UNDEF: 76)
    727c:	0004b218 	andeq	fp, r4, r8, lsl r2
    7280:	027f0500 	rsbseq	r0, pc, #0, 10
    7284:	0000084f 	andeq	r0, r0, pc, asr #16
    7288:	1a1802dc 	bne	607e00 <__bss_end__+0x5fe398>
    728c:	05000001 	streq	r0, [r0, #-1]
    7290:	06000284 	streq	r0, [r0], -r4, lsl #5
    7294:	02e00000 	rsceq	r0, r0, #0
    7298:	0000ff18 	andeq	pc, r0, r8, lsl pc	; <UNPREDICTABLE>
    729c:	02850500 	addeq	r0, r5, #0, 10
    72a0:	0000085b 	andeq	r0, r0, fp, asr r8
    72a4:	0e0002ec 	cdpeq	2, 0, cr0, cr0, cr12, {7}
    72a8:	00040b04 	andeq	r0, r4, r4, lsl #22
    72ac:	00251400 	eoreq	r1, r5, r0, lsl #8
    72b0:	058a0000 	streq	r0, [sl]
    72b4:	29150000 	ldmdbcs	r5, {}	; <UNPREDICTABLE>
    72b8:	15000004 	strne	r0, [r0, #-4]
    72bc:	0000010a 	andeq	r0, r0, sl, lsl #2
    72c0:	00058a15 	andeq	r8, r5, r5, lsl sl
    72c4:	00251500 	eoreq	r1, r5, r0, lsl #10
    72c8:	0e000000 	cdpeq	0, 0, cr0, cr0, cr0, {0}
    72cc:	00011904 	andeq	r1, r1, r4, lsl #18
    72d0:	6c040e00 	stcvs	14, cr0, [r4], {-0}
    72d4:	14000005 	strne	r0, [r0], #-5
    72d8:	00000086 	andeq	r0, r0, r6, lsl #1
    72dc:	000005b4 			; <UNDEFINED> instruction: 0x000005b4
    72e0:	00042915 	andeq	r2, r4, r5, lsl r9
    72e4:	010a1500 	tsteq	sl, r0, lsl #10
    72e8:	86150000 	ldrhi	r0, [r5], -r0
    72ec:	15000000 	strne	r0, [r0, #-0]
    72f0:	00000025 	andeq	r0, r0, r5, lsr #32
    72f4:	96040e00 	strls	r0, [r4], -r0, lsl #28
    72f8:	14000005 	strne	r0, [r0], #-5
    72fc:	00000025 	andeq	r0, r0, r5, lsr #32
    7300:	000005ce 	andeq	r0, r0, lr, asr #11
    7304:	00042915 	andeq	r2, r4, r5, lsl r9
    7308:	010a1500 	tsteq	sl, r0, lsl #10
    730c:	0e000000 	cdpeq	0, 0, cr0, cr0, cr0, {0}
    7310:	0005ba04 	andeq	fp, r5, r4, lsl #20
    7314:	00540900 	subseq	r0, r4, r0, lsl #18
    7318:	05e40000 	strbeq	r0, [r4, #0]!
    731c:	cc0a0000 	stcgt	0, cr0, [sl], {-0}
    7320:	02000000 	andeq	r0, r0, #0
    7324:	00540900 	subseq	r0, r4, r0, lsl #18
    7328:	05f40000 	ldrbeq	r0, [r4, #0]!
    732c:	cc0a0000 	stcgt	0, cr0, [sl], {-0}
    7330:	00000000 	andeq	r0, r0, r0
    7334:	031e0600 	tsteq	lr, #0, 12
    7338:	1d050000 	stcne	0, cr0, [r5, #-0]
    733c:	0002e101 	andeq	lr, r2, r1, lsl #2
    7340:	04991900 	ldreq	r1, [r9], #2304	; 0x900
    7344:	050c0000 	streq	r0, [ip, #-0]
    7348:	06350121 	ldrteq	r0, [r5], -r1, lsr #2
    734c:	46170000 	ldrmi	r0, [r7], -r0
    7350:	05000003 	streq	r0, [r0, #-3]
    7354:	06350123 	ldrteq	r0, [r5], -r3, lsr #2
    7358:	17000000 	strne	r0, [r0, -r0]
    735c:	00000207 	andeq	r0, r0, r7, lsl #4
    7360:	25012405 	strcs	r2, [r1, #-1029]	; 0xfffffbfb
    7364:	04000000 	streq	r0, [r0], #-0
    7368:	00031817 	andeq	r1, r3, r7, lsl r8
    736c:	01250500 			; <UNDEFINED> instruction: 0x01250500
    7370:	0000063b 	andeq	r0, r0, fp, lsr r6
    7374:	040e0008 	streq	r0, [lr], #-8
    7378:	00000600 	andeq	r0, r0, r0, lsl #12
    737c:	05f4040e 	ldrbeq	r0, [r4, #1038]!	; 0x40e
    7380:	21190000 	tstcs	r9, r0
    7384:	0e000000 	cdpeq	0, 0, cr0, cr0, cr0, {0}
    7388:	76013d05 	strvc	r3, [r1], -r5, lsl #26
    738c:	17000006 	strne	r0, [r0, -r6]
    7390:	0000038c 	andeq	r0, r0, ip, lsl #7
    7394:	76013e05 	strvc	r3, [r1], -r5, lsl #28
    7398:	00000006 	andeq	r0, r0, r6
    739c:	0003b917 	andeq	fp, r3, r7, lsl r9
    73a0:	013f0500 	teqeq	pc, r0, lsl #10
    73a4:	00000676 	andeq	r0, r0, r6, ror r6
    73a8:	04371706 	ldrteq	r1, [r7], #-1798	; 0xfffff8fa
    73ac:	40050000 	andmi	r0, r5, r0
    73b0:	00005b01 	andeq	r5, r0, r1, lsl #22
    73b4:	09000c00 	stmdbeq	r0, {sl, fp}
    73b8:	0000005b 	andeq	r0, r0, fp, asr r0
    73bc:	00000686 	andeq	r0, r0, r6, lsl #13
    73c0:	0000cc0a 	andeq	ip, r0, sl, lsl #24
    73c4:	1a000200 	bne	7bcc <_start-0x434>
    73c8:	025705d0 	subseq	r0, r7, #208, 10	; 0x34000000
    73cc:	00000787 	andeq	r0, r0, r7, lsl #15
    73d0:	00047d17 	andeq	r7, r4, r7, lsl sp
    73d4:	02590500 	subseq	r0, r9, #0, 10
    73d8:	00000031 	andeq	r0, r0, r1, lsr r0
    73dc:	04211700 	strteq	r1, [r1], #-1792	; 0xfffff900
    73e0:	5a050000 	bpl	1473e8 <__bss_end__+0x13d980>
    73e4:	00010c02 	andeq	r0, r1, r2, lsl #24
    73e8:	44170400 	ldrmi	r0, [r7], #-1024	; 0xfffffc00
    73ec:	05000002 	streq	r0, [r0, #-2]
    73f0:	0787025b 			; <UNDEFINED> instruction: 0x0787025b
    73f4:	17080000 	strne	r0, [r8, -r0]
    73f8:	000004d5 	ldrdeq	r0, [r0], -r5
    73fc:	92025c05 	andls	r5, r2, #1280	; 0x500
    7400:	24000001 	strcs	r0, [r0], #-1
    7404:	0001a417 	andeq	sl, r1, r7, lsl r4
    7408:	025d0500 	subseq	r0, sp, #0, 10
    740c:	00000025 	andeq	r0, r0, r5, lsr #32
    7410:	03411748 	movteq	r1, #5960	; 0x1748
    7414:	5e050000 	cdppl	0, 0, cr0, cr5, cr0, {0}
    7418:	00006902 	andeq	r6, r0, r2, lsl #18
    741c:	eb175000 	bl	5db424 <__bss_end__+0x5d19bc>
    7420:	05000004 	streq	r0, [r0, #-4]
    7424:	0641025f 			; <UNDEFINED> instruction: 0x0641025f
    7428:	17580000 	ldrbne	r0, [r8, -r0]
    742c:	0000034c 	andeq	r0, r0, ip, asr #6
    7430:	f4026005 	vst4.8	{d6-d9}, [r2], r5
    7434:	68000000 	stmdavs	r0, {}	; <UNPREDICTABLE>
    7438:	0004f017 	andeq	pc, r4, r7, lsl r0	; <UNPREDICTABLE>
    743c:	02610500 	rsbeq	r0, r1, #0, 10
    7440:	000000f4 	strdeq	r0, [r0], -r4
    7444:	00931770 	addseq	r1, r3, r0, ror r7
    7448:	62050000 	andvs	r0, r5, #0
    744c:	0000f402 	andeq	pc, r0, r2, lsl #8
    7450:	a8177800 	ldmdage	r7, {fp, ip, sp, lr}
    7454:	05000004 	streq	r0, [r0, #-4]
    7458:	07970263 	ldreq	r0, [r7, r3, ror #4]
    745c:	17800000 	strne	r0, [r0, r0]
    7460:	00000238 	andeq	r0, r0, r8, lsr r2
    7464:	a7026405 	strge	r6, [r2, -r5, lsl #8]
    7468:	88000007 	stmdahi	r0, {r0, r1, r2}
    746c:	00044417 	andeq	r4, r4, r7, lsl r4
    7470:	02650500 	rsbeq	r0, r5, #0, 10
    7474:	00000025 	andeq	r0, r0, r5, lsr #32
    7478:	016a17a0 	cmneq	sl, r0, lsr #15
    747c:	66050000 	strvs	r0, [r5], -r0
    7480:	0000f402 	andeq	pc, r0, r2, lsl #8
    7484:	8417a400 	ldrhi	sl, [r7], #-1024	; 0xfffffc00
    7488:	05000000 	streq	r0, [r0, #-0]
    748c:	00f40267 	rscseq	r0, r4, r7, ror #4
    7490:	17ac0000 	strne	r0, [ip, r0]!
    7494:	00000159 	andeq	r0, r0, r9, asr r1
    7498:	f4026805 	vst2.8	{d6-d7}, [r2], r5
    749c:	b4000000 	strlt	r0, [r0], #-0
    74a0:	00003c17 	andeq	r3, r0, r7, lsl ip
    74a4:	02690500 	rsbeq	r0, r9, #0, 10
    74a8:	000000f4 	strdeq	r0, [r0], -r4
    74ac:	004b17bc 	strheq	r1, [fp], #-124	; 0xffffff84
    74b0:	6a050000 	bvs	1474b8 <__bss_end__+0x13da50>
    74b4:	0000f402 	andeq	pc, r0, r2, lsl #8
    74b8:	f417c400 			; <UNDEFINED> instruction: 0xf417c400
    74bc:	05000002 	streq	r0, [r0, #-2]
    74c0:	0025026b 	eoreq	r0, r5, fp, ror #4
    74c4:	00cc0000 	sbceq	r0, ip, r0
    74c8:	00011209 	andeq	r1, r1, r9, lsl #4
    74cc:	00079700 	andeq	r9, r7, r0, lsl #14
    74d0:	00cc0a00 	sbceq	r0, ip, r0, lsl #20
    74d4:	00190000 	andseq	r0, r9, r0
    74d8:	00011209 	andeq	r1, r1, r9, lsl #4
    74dc:	0007a700 	andeq	sl, r7, r0, lsl #14
    74e0:	00cc0a00 	sbceq	r0, ip, r0, lsl #20
    74e4:	00070000 	andeq	r0, r7, r0
    74e8:	00011209 	andeq	r1, r1, r9, lsl #4
    74ec:	0007b700 	andeq	fp, r7, r0, lsl #14
    74f0:	00cc0a00 	sbceq	r0, ip, r0, lsl #20
    74f4:	00170000 	andseq	r0, r7, r0
    74f8:	7005f01a 	andvc	pc, r5, sl, lsl r0	; <UNPREDICTABLE>
    74fc:	0007db02 	andeq	sp, r7, r2, lsl #22
    7500:	029b1700 	addseq	r1, fp, #0, 14
    7504:	73050000 	movwvc	r0, #20480	; 0x5000
    7508:	0007db02 	andeq	sp, r7, r2, lsl #22
    750c:	9f170000 	svcls	0x00170000
    7510:	05000004 	streq	r0, [r0, #-4]
    7514:	07eb0274 			; <UNDEFINED> instruction: 0x07eb0274
    7518:	00780000 	rsbseq	r0, r8, r0
    751c:	0002db09 	andeq	sp, r2, r9, lsl #22
    7520:	0007eb00 	andeq	lr, r7, r0, lsl #22
    7524:	00cc0a00 	sbceq	r0, ip, r0, lsl #20
    7528:	001d0000 	andseq	r0, sp, r0
    752c:	00003109 	andeq	r3, r0, r9, lsl #2
    7530:	0007fb00 	andeq	pc, r7, r0, lsl #22
    7534:	00cc0a00 	sbceq	r0, ip, r0, lsl #20
    7538:	001d0000 	andseq	r0, sp, r0
    753c:	5505f01b 	strpl	pc, [r5, #-27]	; 0xffffffe5
    7540:	00081d02 	andeq	r1, r8, r2, lsl #26
    7544:	03851c00 	orreq	r1, r5, #0, 24
    7548:	6c050000 	stcvs	0, cr0, [r5], {-0}
    754c:	00068602 	andeq	r8, r6, r2, lsl #12
    7550:	04c21c00 	strbeq	r1, [r2], #3072	; 0xc00
    7554:	75050000 	strvc	r0, [r5, #-0]
    7558:	0007b702 	andeq	fp, r7, r2, lsl #14
    755c:	12090000 	andne	r0, r9, #0
    7560:	2d000001 	stccs	0, cr0, [r0, #-4]
    7564:	0a000008 	beq	758c <_start-0xa74>
    7568:	000000cc 	andeq	r0, r0, ip, asr #1
    756c:	381d0018 	ldmdacc	sp, {r3, r4}
    7570:	15000008 	strne	r0, [r0, #-8]
    7574:	00000429 	andeq	r0, r0, r9, lsr #8
    7578:	2d040e00 	stccs	14, cr0, [r4, #-0]
    757c:	0e000008 	cdpeq	0, 0, cr0, cr0, cr8, {0}
    7580:	00017c04 	andeq	r7, r1, r4, lsl #24
    7584:	084f1d00 	stmdaeq	pc, {r8, sl, fp, ip}^	; <UNPREDICTABLE>
    7588:	25150000 	ldrcs	r0, [r5, #-0]
    758c:	00000000 	andeq	r0, r0, r0
    7590:	0855040e 	ldmdaeq	r5, {r1, r2, r3, sl}^
    7594:	040e0000 	streq	r0, [lr], #-0
    7598:	00000844 	andeq	r0, r0, r4, asr #16
    759c:	0005f409 	andeq	pc, r5, r9, lsl #8
    75a0:	00086b00 	andeq	r6, r8, r0, lsl #22
    75a4:	00cc0a00 	sbceq	r0, ip, r0, lsl #20
    75a8:	00020000 	andeq	r0, r2, r0
    75ac:	0004581e 	andeq	r5, r4, lr, lsl r8
    75b0:	02fd0500 	rscseq	r0, sp, #0, 10
    75b4:	00000429 	andeq	r0, r0, r9, lsr #8
    75b8:	0004511e 	andeq	r5, r4, lr, lsl r1
    75bc:	02fe0500 	rscseq	r0, lr, #0, 10
    75c0:	0000042f 	andeq	r0, r0, pc, lsr #8
    75c4:	00002514 	andeq	r2, r0, r4, lsl r5
    75c8:	00089200 	andeq	r9, r8, r0, lsl #4
    75cc:	00251500 	eoreq	r1, r5, r0, lsl #10
    75d0:	1f000000 	svcne	0x00000000
    75d4:	000001bd 			; <UNDEFINED> instruction: 0x000001bd
    75d8:	089d1d06 	ldmeq	sp, {r1, r2, r8, sl, fp, ip}
    75dc:	040e0000 	streq	r0, [lr], #-0
    75e0:	00000883 	andeq	r0, r0, r3, lsl #17
    75e4:	00002514 	andeq	r2, r0, r4, lsl r5
    75e8:	0008b200 	andeq	fp, r8, r0, lsl #4
    75ec:	058a1500 	streq	r1, [sl, #1280]	; 0x500
    75f0:	1f000000 	svcne	0x00000000
    75f4:	00000756 	andeq	r0, r0, r6, asr r7
    75f8:	08bd2206 	popeq	{r1, r2, r9, sp}
    75fc:	040e0000 	streq	r0, [lr], #-0
    7600:	000008a3 	andeq	r0, r0, r3, lsr #17
    7604:	00086220 	andeq	r6, r8, r0, lsr #4
    7608:	310d0100 	mrscc	r0, (UNDEF: 29)
    760c:	21000000 	mrscs	r0, (UNDEF: 0)
    7610:	00000832 	andeq	r0, r0, r2, lsr r8
    7614:	8e381f01 	cdphi	15, 3, cr1, cr8, cr1, {0}
    7618:	004c0000 	subeq	r0, ip, r0
    761c:	9c010000 	stcls	0, cr0, [r1], {-0}
    7620:	00000985 	andeq	r0, r0, r5, lsl #19
    7624:	0007e922 	andeq	lr, r7, r2, lsr #18
    7628:	2c2a0100 	stfcss	f0, [sl], #-0
    762c:	f1000000 	cps	#0
    7630:	2200000d 	andcs	r0, r0, #13
    7634:	00000810 	andeq	r0, r0, r0, lsl r8
    7638:	002c2b01 	eoreq	r2, ip, r1, lsl #22
    763c:	0e090000 	cdpeq	0, 0, cr0, cr9, cr0, {0}
    7640:	1d220000 	stcne	0, cr0, [r2, #-0]
    7644:	01000008 	tsteq	r0, r8
    7648:	00002c2c 	andeq	r2, r0, ip, lsr #24
    764c:	000e2100 	andeq	r2, lr, r0, lsl #2
    7650:	07f72200 	ldrbeq	r2, [r7, r0, lsl #4]!
    7654:	2d010000 	stccs	0, cr0, [r1, #-0]
    7658:	0000002c 	andeq	r0, r0, ip, lsr #32
    765c:	00000e38 	andeq	r0, r0, r8, lsr lr
    7660:	008e4023 	addeq	r4, lr, r3, lsr #32
    7664:	0009aa00 	andeq	sl, r9, r0, lsl #20
    7668:	8e502400 	cdphi	4, 5, cr2, cr0, cr0, {0}
    766c:	09d30000 	ldmibeq	r3, {}^	; <UNPREDICTABLE>
    7670:	093b0000 	ldmdbeq	fp!, {}	; <UNPREDICTABLE>
    7674:	01250000 			; <UNDEFINED> instruction: 0x01250000
    7678:	004e0150 	subeq	r0, lr, r0, asr r1
    767c:	008e5c24 	addeq	r5, lr, r4, lsr #24
    7680:	0009de00 	andeq	sp, r9, r0, lsl #28
    7684:	00095b00 	andeq	r5, r9, r0, lsl #22
    7688:	50012500 	andpl	r2, r1, r0, lsl #10
    768c:	00240c05 	eoreq	r0, r4, r5, lsl #24
    7690:	01252010 			; <UNDEFINED> instruction: 0x01252010
    7694:	010c0551 	tsteq	ip, r1, asr r5
    7698:	005a0000 	subseq	r0, sl, r0
    769c:	008e6824 	addeq	r6, lr, r4, lsr #16
    76a0:	0009de00 	andeq	sp, r9, r0, lsl #28
    76a4:	00097b00 	andeq	r7, r9, r0, lsl #22
    76a8:	50012500 	andpl	r2, r1, r0, lsl #10
    76ac:	001c0c05 	andseq	r0, ip, r5, lsl #24
    76b0:	01252010 			; <UNDEFINED> instruction: 0x01252010
    76b4:	200c0551 	andcs	r0, ip, r1, asr r5
    76b8:	005a0000 	subseq	r0, sl, r0
    76bc:	008e7023 	addeq	r7, lr, r3, lsr #32
    76c0:	00098500 	andeq	r8, r9, r0, lsl #10
    76c4:	50260000 	eorpl	r0, r6, r0
    76c8:	01000008 	tsteq	r0, r8
    76cc:	008e2417 	addeq	r2, lr, r7, lsl r4
    76d0:	00001400 	andeq	r1, r0, r0, lsl #8
    76d4:	aa9c0100 	bge	fe707adc <__bss_end__+0xfe6fe074>
    76d8:	22000009 	andcs	r0, r0, #9
    76dc:	00000818 	andeq	r0, r0, r8, lsl r8
    76e0:	00311801 	eorseq	r1, r1, r1, lsl #16
    76e4:	0e4d0000 	cdpeq	0, 4, cr0, cr13, cr0, {0}
    76e8:	27000000 	strcs	r0, [r0, -r0]
    76ec:	0000085f 	andeq	r0, r0, pc, asr r8
    76f0:	00250e01 	eoreq	r0, r5, r1, lsl #28
    76f4:	8e0c0000 	cdphi	0, 0, cr0, cr12, cr0, {0}
    76f8:	00180000 	andseq	r0, r8, r0
    76fc:	9c010000 	stcls	0, cr0, [r1], {-0}
    7700:	000009d3 	ldrdeq	r0, [r0], -r3
    7704:	00081822 	andeq	r1, r8, r2, lsr #16
    7708:	310f0100 	mrscc	r0, (UNDEF: 31)
    770c:	77000000 	strvc	r0, [r0, -r0]
    7710:	0000000e 	andeq	r0, r0, lr
    7714:	00082928 	andeq	r2, r8, r8, lsr #18
    7718:	00082900 	andeq	r2, r8, r0, lsl #18
    771c:	284f0600 	stmdacs	pc, {r9, sl}^	; <UNPREDICTABLE>
    7720:	000007f1 	strdeq	r0, [r0], -r1
    7724:	000007f1 	strdeq	r0, [r0], -r1
    7728:	17009b06 	strne	r9, [r0, -r6, lsl #22]
    772c:	04000009 	streq	r0, [r0], #-9
    7730:	0016f300 	andseq	pc, r6, r0, lsl #6
    7734:	bf010400 	svclt	0x00010400
    7738:	0c000003 	stceq	0, cr0, [r0], {3}
    773c:	0000086d 	andeq	r0, r0, sp, ror #16
    7740:	000006b6 			; <UNDEFINED> instruction: 0x000006b6
    7744:	00008e84 	andeq	r8, r0, r4, lsl #29
    7748:	00000028 	andeq	r0, r0, r8, lsr #32
    774c:	00000c61 	andeq	r0, r0, r1, ror #24
    7750:	69050402 	stmdbvs	r5, {r1, sl}
    7754:	0300746e 	movweq	r7, #1134	; 0x46e
    7758:	00660704 	rsbeq	r0, r6, r4, lsl #14
    775c:	01030000 	mrseq	r0, (UNDEF: 3)
    7760:	0002e306 	andeq	lr, r2, r6, lsl #6
    7764:	05020300 	streq	r0, [r2, #-768]	; 0xfffffd00
    7768:	000002fd 	strdeq	r0, [r0], -sp
    776c:	af050403 	svcge	0x00050403
    7770:	03000000 	movweq	r0, #0
    7774:	00aa0508 	adceq	r0, sl, r8, lsl #10
    7778:	01030000 	mrseq	r0, (UNDEF: 3)
    777c:	0002e108 	andeq	lr, r2, r8, lsl #2
    7780:	07020300 	streq	r0, [r2, -r0, lsl #6]
    7784:	0000020e 	andeq	r0, r0, lr, lsl #4
    7788:	61070403 	tstvs	r7, r3, lsl #8
    778c:	03000000 	movweq	r0, #0
    7790:	005c0708 	subseq	r0, ip, r8, lsl #14
    7794:	cf040000 	svcgt	0x00040000
    7798:	02000002 	andeq	r0, r0, #2
    779c:	00002507 	andeq	r2, r0, r7, lsl #10
    77a0:	02be0400 	adcseq	r0, lr, #0, 8
    77a4:	2c030000 	stccs	0, cr0, [r3], {-0}
    77a8:	00000041 	andeq	r0, r0, r1, asr #32
    77ac:	0003a804 	andeq	sl, r3, r4, lsl #16
    77b0:	41720300 	cmnmi	r2, r0, lsl #6
    77b4:	05000000 	streq	r0, [r0, #-0]
    77b8:	0000025f 	andeq	r0, r0, pc, asr r2
    77bc:	2c016504 	cfstr32cs	mvfx6, [r1], {4}
    77c0:	06000000 	streq	r0, [r0], -r0
    77c4:	b7a60304 	strlt	r0, [r6, r4, lsl #6]!
    77c8:	07000000 	streq	r0, [r0, -r0]
    77cc:	00000259 	andeq	r0, r0, r9, asr r2
    77d0:	008ca803 	addeq	sl, ip, r3, lsl #16
    77d4:	ce070000 	cdpgt	0, 0, cr0, cr7, cr0, {0}
    77d8:	03000001 	movweq	r0, #1
    77dc:	0000b7a9 	andeq	fp, r0, r9, lsr #15
    77e0:	4f080000 	svcmi	0x00080000
    77e4:	c7000000 	strgt	r0, [r0, -r0]
    77e8:	09000000 	stmdbeq	r0, {}	; <UNPREDICTABLE>
    77ec:	000000c7 	andeq	r0, r0, r7, asr #1
    77f0:	04030003 	streq	r0, [r3], #-3
    77f4:	00029207 	andeq	r9, r2, r7, lsl #4
    77f8:	03080a00 	movweq	r0, #35328	; 0x8a00
    77fc:	0000efa3 	andeq	lr, r0, r3, lsr #31
    7800:	03920b00 	orrseq	r0, r2, #0, 22
    7804:	a5030000 	strge	r0, [r3, #-0]
    7808:	00000025 	andeq	r0, r0, r5, lsr #32
    780c:	039a0b00 	orrseq	r0, sl, #0, 22
    7810:	aa030000 	bge	c7818 <__bss_end__+0xbddb0>
    7814:	00000098 	muleq	r0, r8, r0
    7818:	25040004 	strcs	r0, [r4, #-4]
    781c:	03000003 	movweq	r0, #3
    7820:	0000ceab 	andeq	ip, r0, fp, lsr #29
    7824:	018b0400 	orreq	r0, fp, r0, lsl #8
    7828:	af030000 	svcge	0x00030000
    782c:	0000006b 	andeq	r0, r0, fp, rrx
    7830:	040d040c 	streq	r0, [sp], #-1036	; 0xfffffbf4
    7834:	0000010d 	andeq	r0, r0, sp, lsl #2
    7838:	ea080103 	b	207c4c <__bss_end__+0x1fe1e4>
    783c:	0e000002 	cdpeq	0, 0, cr0, cr0, cr2, {0}
    7840:	0000010d 	andeq	r0, r0, sp, lsl #2
    7844:	00043c04 	andeq	r3, r4, r4, lsl #24
    7848:	5d160500 	cfldr32pl	mvfx0, [r6, #-0]
    784c:	0f000000 	svceq	0x00000000
    7850:	0000019c 	muleq	r0, ip, r1
    7854:	772d0518 			; <UNDEFINED> instruction: 0x772d0518
    7858:	0b000001 	bleq	7864 <_start-0x79c>
    785c:	00000346 	andeq	r0, r0, r6, asr #6
    7860:	01772f05 	cmneq	r7, r5, lsl #30
    7864:	10000000 	andne	r0, r0, r0
    7868:	05006b5f 	streq	r6, [r0, #-2911]	; 0xfffff4a1
    786c:	00002530 	andeq	r2, r0, r0, lsr r5
    7870:	7d0b0400 	cfstrsvc	mvf0, [fp, #-0]
    7874:	05000003 	streq	r0, [r0, #-3]
    7878:	00002530 	andeq	r2, r0, r0, lsr r5
    787c:	850b0800 	strhi	r0, [fp, #-2048]	; 0xfffff800
    7880:	05000001 	streq	r0, [r0, #-1]
    7884:	00002530 	andeq	r2, r0, r0, lsr r5
    7888:	8a0b0c00 	bhi	2ca890 <__bss_end__+0x2c0e28>
    788c:	05000004 	streq	r0, [r0, #-4]
    7890:	00002530 	andeq	r2, r0, r0, lsr r5
    7894:	5f101000 	svcpl	0x00101000
    7898:	31050078 	tstcc	r5, r8, ror r0
    789c:	0000017d 	andeq	r0, r0, sp, ror r1
    78a0:	040d0014 	streq	r0, [sp], #-20	; 0xffffffec
    78a4:	00000124 	andeq	r0, r0, r4, lsr #2
    78a8:	00011908 	andeq	r1, r1, r8, lsl #18
    78ac:	00018d00 	andeq	r8, r1, r0, lsl #26
    78b0:	00c70900 	sbceq	r0, r7, r0, lsl #18
    78b4:	00000000 	andeq	r0, r0, r0
    78b8:	0001c90f 	andeq	ip, r1, pc, lsl #18
    78bc:	35052400 	strcc	r2, [r5, #-1024]	; 0xfffffc00
    78c0:	00000206 	andeq	r0, r0, r6, lsl #4
    78c4:	0000a10b 	andeq	sl, r0, fp, lsl #2
    78c8:	25370500 	ldrcs	r0, [r7, #-1280]!	; 0xfffffb00
    78cc:	00000000 	andeq	r0, r0, r0
    78d0:	0003b00b 	andeq	fp, r3, fp
    78d4:	25380500 	ldrcs	r0, [r8, #-1280]!	; 0xfffffb00
    78d8:	04000000 	streq	r0, [r0], #-0
    78dc:	0000c40b 	andeq	ip, r0, fp, lsl #8
    78e0:	25390500 	ldrcs	r0, [r9, #-1280]!	; 0xfffffb00
    78e4:	08000000 	stmdaeq	r0, {}	; <UNPREDICTABLE>
    78e8:	0005030b 	andeq	r0, r5, fp, lsl #6
    78ec:	253a0500 	ldrcs	r0, [sl, #-1280]!	; 0xfffffb00
    78f0:	0c000000 	stceq	0, cr0, [r0], {-0}
    78f4:	0002a20b 	andeq	sl, r2, fp, lsl #4
    78f8:	253b0500 	ldrcs	r0, [fp, #-1280]!	; 0xfffffb00
    78fc:	10000000 	andne	r0, r0, r0
    7900:	00027b0b 	andeq	r7, r2, fp, lsl #22
    7904:	253c0500 	ldrcs	r0, [ip, #-1280]!	; 0xfffffb00
    7908:	14000000 	strne	r0, [r0], #-0
    790c:	00048f0b 	andeq	r8, r4, fp, lsl #30
    7910:	253d0500 	ldrcs	r0, [sp, #-1280]!	; 0xfffffb00
    7914:	18000000 	stmdane	r0, {}	; <UNPREDICTABLE>
    7918:	0003070b 	andeq	r0, r3, fp, lsl #14
    791c:	253e0500 	ldrcs	r0, [lr, #-1280]!	; 0xfffffb00
    7920:	1c000000 	stcne	0, cr0, [r0], {-0}
    7924:	0004ca0b 	andeq	ip, r4, fp, lsl #20
    7928:	253f0500 	ldrcs	r0, [pc, #-1280]!	; 7430 <_start-0xbd0>
    792c:	20000000 	andcs	r0, r0, r0
    7930:	01041100 	mrseq	r1, (UNDEF: 20)
    7934:	01080000 	mrseq	r0, (UNDEF: 8)
    7938:	02464805 	subeq	r4, r6, #327680	; 0x50000
    793c:	780b0000 	stmdavc	fp, {}	; <UNPREDICTABLE>
    7940:	05000001 	streq	r0, [r0, #-1]
    7944:	00024649 	andeq	r4, r2, r9, asr #12
    7948:	000b0000 	andeq	r0, fp, r0
    794c:	05000000 	streq	r0, [r0, #-0]
    7950:	0002464a 	andeq	r4, r2, sl, asr #12
    7954:	2e128000 	cdpcs	0, 1, cr8, cr2, cr0, {0}
    7958:	05000004 	streq	r0, [r0, #-4]
    795c:	0001194c 	andeq	r1, r1, ip, asr #18
    7960:	12010000 	andne	r0, r1, #0
    7964:	00000129 	andeq	r0, r0, r9, lsr #2
    7968:	01194f05 	tsteq	r9, r5, lsl #30
    796c:	01040000 	mrseq	r0, (UNDEF: 4)
    7970:	01050800 	tsteq	r5, r0, lsl #16
    7974:	02560000 	subseq	r0, r6, #0
    7978:	c7090000 	strgt	r0, [r9, -r0]
    797c:	1f000000 	svcne	0x00000000
    7980:	02ab1100 	adceq	r1, fp, #0, 2
    7984:	01900000 	orrseq	r0, r0, r0
    7988:	02945b05 	addseq	r5, r4, #5120	; 0x1400
    798c:	460b0000 	strmi	r0, [fp], -r0
    7990:	05000003 	streq	r0, [r0, #-3]
    7994:	0002945c 	andeq	r9, r2, ip, asr r4
    7998:	5e0b0000 	cdppl	0, 0, cr0, cr11, cr0, {0}
    799c:	05000003 	streq	r0, [r0, #-3]
    79a0:	0000255d 	andeq	r2, r0, sp, asr r5
    79a4:	800b0400 	andhi	r0, fp, r0, lsl #8
    79a8:	05000001 	streq	r0, [r0, #-1]
    79ac:	00029a5f 	andeq	r9, r2, pc, asr sl
    79b0:	040b0800 	streq	r0, [fp], #-2048	; 0xfffff800
    79b4:	05000001 	streq	r0, [r0, #-1]
    79b8:	00020660 	andeq	r0, r2, r0, ror #12
    79bc:	0d008800 	stceq	8, cr8, [r0, #-0]
    79c0:	00025604 	andeq	r5, r2, r4, lsl #12
    79c4:	02aa0800 	adceq	r0, sl, #0, 16
    79c8:	02aa0000 	adceq	r0, sl, #0
    79cc:	c7090000 	strgt	r0, [r9, -r0]
    79d0:	1f000000 	svcne	0x00000000
    79d4:	b0040d00 	andlt	r0, r4, r0, lsl #26
    79d8:	13000002 	movwne	r0, #2
    79dc:	0003110f 	andeq	r1, r3, pc, lsl #2
    79e0:	73050800 	movwvc	r0, #22528	; 0x5800
    79e4:	000002d6 	ldrdeq	r0, [r0], -r6
    79e8:	0000be0b 	andeq	fp, r0, fp, lsl #28
    79ec:	d6740500 	ldrbtle	r0, [r4], -r0, lsl #10
    79f0:	00000002 	andeq	r0, r0, r2
    79f4:	00001b0b 	andeq	r1, r0, fp, lsl #22
    79f8:	25750500 	ldrbcs	r0, [r5, #-1280]!	; 0xfffffb00
    79fc:	04000000 	streq	r0, [r0], #-0
    7a00:	4f040d00 	svcmi	0x00040d00
    7a04:	0f000000 	svceq	0x00000000
    7a08:	00000330 	andeq	r0, r0, r0, lsr r3
    7a0c:	06b30568 	ldrteq	r0, [r3], r8, ror #10
    7a10:	10000004 	andne	r0, r0, r4
    7a14:	0500705f 	streq	r7, [r0, #-95]	; 0xffffffa1
    7a18:	0002d6b4 			; <UNDEFINED> instruction: 0x0002d6b4
    7a1c:	5f100000 	svcpl	0x00100000
    7a20:	b5050072 	strlt	r0, [r5, #-114]	; 0xffffff8e
    7a24:	00000025 	andeq	r0, r0, r5, lsr #32
    7a28:	775f1004 	ldrbvc	r1, [pc, -r4]
    7a2c:	25b60500 	ldrcs	r0, [r6, #1280]!	; 0x500
    7a30:	08000000 	stmdaeq	r0, {}	; <UNPREDICTABLE>
    7a34:	0001220b 	andeq	r2, r1, fp, lsl #4
    7a38:	3ab70500 	bcc	fedc8e40 <__bss_end__+0xfedbf3d8>
    7a3c:	0c000000 	stceq	0, cr0, [r0], {-0}
    7a40:	0001f40b 	andeq	pc, r1, fp, lsl #8
    7a44:	3ab80500 	bcc	fee08e4c <__bss_end__+0xfedff3e4>
    7a48:	0e000000 	cdpeq	0, 0, cr0, cr0, cr0, {0}
    7a4c:	66625f10 	uqadd16vs	r5, r2, r0
    7a50:	b1b90500 			; <UNDEFINED> instruction: 0xb1b90500
    7a54:	10000002 	andne	r0, r0, r2
    7a58:	00007b0b 	andeq	r7, r0, fp, lsl #22
    7a5c:	25ba0500 	ldrcs	r0, [sl, #1280]!	; 0x500
    7a60:	18000000 	stmdane	r0, {}	; <UNPREDICTABLE>
    7a64:	0001120b 	andeq	r1, r1, fp, lsl #4
    7a68:	05c10500 	strbeq	r0, [r1, #1280]	; 0x500
    7a6c:	1c000001 	stcne	0, cr0, [r0], {1}
    7a70:	000a5e0b 	andeq	r5, sl, fp, lsl #28
    7a74:	61c30500 	bicvs	r0, r3, r0, lsl #10
    7a78:	20000005 	andcs	r0, r0, r5
    7a7c:	000a780b 	andeq	r7, sl, fp, lsl #16
    7a80:	8bc50500 	blhi	ff148e88 <__bss_end__+0xff13f420>
    7a84:	24000005 	strcs	r0, [r0], #-5
    7a88:	0003a20b 	andeq	sl, r3, fp, lsl #4
    7a8c:	afc80500 	svcge	0x00c80500
    7a90:	28000005 	stmdacs	r0, {r0, r2}
    7a94:	0004e40b 	andeq	lr, r4, fp, lsl #8
    7a98:	c9c90500 	stmibgt	r9, {r8, sl}^
    7a9c:	2c000005 	stccs	0, cr0, [r0], {5}
    7aa0:	62755f10 	rsbsvs	r5, r5, #16, 30	; 0x40
    7aa4:	b1cc0500 	biclt	r0, ip, r0, lsl #10
    7aa8:	30000002 	andcc	r0, r0, r2
    7aac:	70755f10 	rsbsvc	r5, r5, r0, lsl pc
    7ab0:	d6cd0500 	strble	r0, [sp], r0, lsl #10
    7ab4:	38000002 	stmdacc	r0, {r1}
    7ab8:	72755f10 	rsbsvc	r5, r5, #16, 30	; 0x40
    7abc:	25ce0500 	strbcs	r0, [lr, #1280]	; 0x500
    7ac0:	3c000000 	stccc	0, cr0, [r0], {-0}
    7ac4:	0000b80b 	andeq	fp, r0, fp, lsl #16
    7ac8:	cfd10500 	svcgt	0x00d10500
    7acc:	40000005 	andmi	r0, r0, r5
    7ad0:	0004bc0b 	andeq	fp, r4, fp, lsl #24
    7ad4:	dfd20500 	svcle	0x00d20500
    7ad8:	43000005 	movwmi	r0, #5
    7adc:	626c5f10 	rsbvs	r5, ip, #16, 30	; 0x40
    7ae0:	b1d50500 	bicslt	r0, r5, r0, lsl #10
    7ae4:	44000002 	strmi	r0, [r0], #-2
    7ae8:	0001400b 	andeq	r4, r1, fp
    7aec:	25d80500 	ldrbcs	r0, [r8, #1280]	; 0x500
    7af0:	4c000000 	stcmi	0, cr0, [r0], {-0}
    7af4:	0001510b 	andeq	r5, r1, fp, lsl #2
    7af8:	76d90500 	ldrbvc	r0, [r9], r0, lsl #10
    7afc:	50000000 	andpl	r0, r0, r0
    7b00:	0009ff0b 	andeq	pc, r9, fp, lsl #30
    7b04:	24dc0500 	ldrbcs	r0, [ip], #1280	; 0x500
    7b08:	54000004 	strpl	r0, [r0], #-4
    7b0c:	00026d0b 	andeq	r6, r2, fp, lsl #26
    7b10:	fae00500 	blx	ff808f18 <__bss_end__+0xff7ff4b0>
    7b14:	58000000 	stmdapl	r0, {}	; <UNPREDICTABLE>
    7b18:	0003380b 	andeq	r3, r3, fp, lsl #16
    7b1c:	efe20500 	svc	0x00e20500
    7b20:	5c000000 	stcpl	0, cr0, [r0], {-0}
    7b24:	0002730b 	andeq	r7, r2, fp, lsl #6
    7b28:	25e30500 	strbcs	r0, [r3, #1280]!	; 0x500
    7b2c:	64000000 	strvs	r0, [r0], #-0
    7b30:	00251400 	eoreq	r1, r5, r0, lsl #8
    7b34:	04240000 	strteq	r0, [r4], #-0
    7b38:	24150000 	ldrcs	r0, [r5], #-0
    7b3c:	15000004 	strne	r0, [r0, #-4]
    7b40:	00000105 	andeq	r0, r0, r5, lsl #2
    7b44:	00010715 	andeq	r0, r1, r5, lsl r7
    7b48:	00251500 	eoreq	r1, r5, r0, lsl #10
    7b4c:	0d000000 	stceq	0, cr0, [r0, #-0]
    7b50:	00042f04 	andeq	r2, r4, r4, lsl #30
    7b54:	04240e00 	strteq	r0, [r4], #-3584	; 0xfffff200
    7b58:	85160000 	ldrhi	r0, [r6, #-0]
    7b5c:	28000003 	stmdacs	r0, {r0, r1}
    7b60:	02380504 	eorseq	r0, r8, #4, 10	; 0x1000000
    7b64:	00000561 	andeq	r0, r0, r1, ror #10
    7b68:	0002f617 	andeq	pc, r2, r7, lsl r6	; <UNPREDICTABLE>
    7b6c:	023a0500 	eorseq	r0, sl, #0, 10
    7b70:	00000025 	andeq	r0, r0, r5, lsr #32
    7b74:	01311700 	teqeq	r1, r0, lsl #14
    7b78:	3f050000 	svccc	0x00050000
    7b7c:	00063602 	andeq	r3, r6, r2, lsl #12
    7b80:	e4170400 	ldr	r0, [r7], #-1024	; 0xfffffc00
    7b84:	05000001 	streq	r0, [r0, #-1]
    7b88:	0636023f 			; <UNDEFINED> instruction: 0x0636023f
    7b8c:	17080000 	strne	r0, [r8, -r0]
    7b90:	00000194 	muleq	r0, r4, r1
    7b94:	36023f05 	strcc	r3, [r2], -r5, lsl #30
    7b98:	0c000006 	stceq	0, cr0, [r0], {6}
    7b9c:	00035917 	andeq	r5, r3, r7, lsl r9
    7ba0:	02410500 	subeq	r0, r1, #0, 10
    7ba4:	00000025 	andeq	r0, r0, r5, lsr #32
    7ba8:	00291710 	eoreq	r1, r9, r0, lsl r7
    7bac:	42050000 	andmi	r0, r5, #0
    7bb0:	00081802 	andeq	r1, r8, r2, lsl #16
    7bb4:	64171400 	ldrvs	r1, [r7], #-1024	; 0xfffffc00
    7bb8:	05000004 	streq	r0, [r0, #-4]
    7bbc:	00250244 	eoreq	r0, r5, r4, asr #4
    7bc0:	17300000 	ldrne	r0, [r0, -r0]!
    7bc4:	00000363 	andeq	r0, r0, r3, ror #6
    7bc8:	85024505 	strhi	r4, [r2, #-1285]	; 0xfffffafb
    7bcc:	34000005 	strcc	r0, [r0], #-5
    7bd0:	0002b317 	andeq	fp, r2, r7, lsl r3
    7bd4:	02470500 	subeq	r0, r7, #0, 10
    7bd8:	00000025 	andeq	r0, r0, r5, lsr #32
    7bdc:	03731738 	cmneq	r3, #56, 14	; 0xe00000
    7be0:	49050000 	stmdbmi	r5, {}	; <UNPREDICTABLE>
    7be4:	00083302 	andeq	r3, r8, r2, lsl #6
    7be8:	51173c00 	tstpl	r7, r0, lsl #24
    7bec:	05000002 	streq	r0, [r0, #-2]
    7bf0:	0177024c 	cmneq	r7, ip, asr #4
    7bf4:	17400000 	strbne	r0, [r0, -r0]
    7bf8:	000001b3 			; <UNDEFINED> instruction: 0x000001b3
    7bfc:	25024d05 	strcs	r4, [r2, #-3333]	; 0xfffff2fb
    7c00:	44000000 	strmi	r0, [r0], #-0
    7c04:	0004fe17 	andeq	pc, r4, r7, lsl lr	; <UNPREDICTABLE>
    7c08:	024e0500 	subeq	r0, lr, #0, 10
    7c0c:	00000177 	andeq	r0, r0, r7, ror r1
    7c10:	02c51748 	sbceq	r1, r5, #72, 14	; 0x1200000
    7c14:	4f050000 	svcmi	0x00050000
    7c18:	00083902 	andeq	r3, r8, r2, lsl #18
    7c1c:	ec174c00 	ldc	12, cr4, [r7], {-0}
    7c20:	05000001 	streq	r0, [r0, #-1]
    7c24:	00250252 	eoreq	r0, r5, r2, asr r2
    7c28:	17500000 	ldrbne	r0, [r0, -r0]
    7c2c:	00000149 	andeq	r0, r0, r9, asr #2
    7c30:	07025305 	streq	r5, [r2, -r5, lsl #6]
    7c34:	54000001 	strpl	r0, [r0], #-1
    7c38:	0002ef17 	andeq	lr, r2, r7, lsl pc
    7c3c:	02760500 	rsbseq	r0, r6, #0, 10
    7c40:	000007f6 	strdeq	r0, [r0], -r6
    7c44:	02ab1858 	adceq	r1, fp, #88, 16	; 0x580000
    7c48:	7a050000 	bvc	147c50 <__bss_end__+0x13e1e8>
    7c4c:	00029402 	andeq	r9, r2, r2, lsl #8
    7c50:	18014800 	stmdane	r1, {fp, lr}
    7c54:	0000022f 	andeq	r0, r0, pc, lsr #4
    7c58:	56027b05 	strpl	r7, [r2], -r5, lsl #22
    7c5c:	4c000002 	stcmi	0, cr0, [r0], {2}
    7c60:	04b21801 	ldrteq	r1, [r2], #2049	; 0x801
    7c64:	7f050000 	svcvc	0x00050000
    7c68:	00084a02 	andeq	r4, r8, r2, lsl #20
    7c6c:	1802dc00 	stmdane	r2, {sl, fp, ip, lr, pc}
    7c70:	0000011a 	andeq	r0, r0, sl, lsl r1
    7c74:	fb028405 	blx	a8c92 <__bss_end__+0x9f22a>
    7c78:	e0000005 	and	r0, r0, r5
    7c7c:	00ff1802 	rscseq	r1, pc, r2, lsl #16
    7c80:	85050000 	strhi	r0, [r5, #-0]
    7c84:	00085602 	andeq	r5, r8, r2, lsl #12
    7c88:	0002ec00 	andeq	lr, r2, r0, lsl #24
    7c8c:	0406040d 	streq	r0, [r6], #-1037	; 0xfffffbf3
    7c90:	25140000 	ldrcs	r0, [r4, #-0]
    7c94:	85000000 	strhi	r0, [r0, #-0]
    7c98:	15000005 	strne	r0, [r0, #-5]
    7c9c:	00000424 	andeq	r0, r0, r4, lsr #8
    7ca0:	00010515 	andeq	r0, r1, r5, lsl r5
    7ca4:	05851500 	streq	r1, [r5, #1280]	; 0x500
    7ca8:	25150000 	ldrcs	r0, [r5, #-0]
    7cac:	00000000 	andeq	r0, r0, r0
    7cb0:	0114040d 	tsteq	r4, sp, lsl #8
    7cb4:	040d0000 	streq	r0, [sp], #-0
    7cb8:	00000567 	andeq	r0, r0, r7, ror #10
    7cbc:	00008114 	andeq	r8, r0, r4, lsl r1
    7cc0:	0005af00 	andeq	sl, r5, r0, lsl #30
    7cc4:	04241500 	strteq	r1, [r4], #-1280	; 0xfffffb00
    7cc8:	05150000 	ldreq	r0, [r5, #-0]
    7ccc:	15000001 	strne	r0, [r0, #-1]
    7cd0:	00000081 	andeq	r0, r0, r1, lsl #1
    7cd4:	00002515 	andeq	r2, r0, r5, lsl r5
    7cd8:	040d0000 	streq	r0, [sp], #-0
    7cdc:	00000591 	muleq	r0, r1, r5
    7ce0:	00002514 	andeq	r2, r0, r4, lsl r5
    7ce4:	0005c900 	andeq	ip, r5, r0, lsl #18
    7ce8:	04241500 	strteq	r1, [r4], #-1280	; 0xfffffb00
    7cec:	05150000 	ldreq	r0, [r5, #-0]
    7cf0:	00000001 	andeq	r0, r0, r1
    7cf4:	05b5040d 	ldreq	r0, [r5, #1037]!	; 0x40d
    7cf8:	4f080000 	svcmi	0x00080000
    7cfc:	df000000 	svcle	0x00000000
    7d00:	09000005 	stmdbeq	r0, {r0, r2}
    7d04:	000000c7 	andeq	r0, r0, r7, asr #1
    7d08:	4f080002 	svcmi	0x00080002
    7d0c:	ef000000 	svc	0x00000000
    7d10:	09000005 	stmdbeq	r0, {r0, r2}
    7d14:	000000c7 	andeq	r0, r0, r7, asr #1
    7d18:	1e050000 	cdpne	0, 0, cr0, cr5, cr0, {0}
    7d1c:	05000003 	streq	r0, [r0, #-3]
    7d20:	02dc011d 	sbcseq	r0, ip, #1073741831	; 0x40000007
    7d24:	99190000 	ldmdbls	r9, {}	; <UNPREDICTABLE>
    7d28:	0c000004 	stceq	0, cr0, [r0], {4}
    7d2c:	30012105 	andcc	r2, r1, r5, lsl #2
    7d30:	17000006 	strne	r0, [r0, -r6]
    7d34:	00000346 	andeq	r0, r0, r6, asr #6
    7d38:	30012305 	andcc	r2, r1, r5, lsl #6
    7d3c:	00000006 	andeq	r0, r0, r6
    7d40:	00020717 	andeq	r0, r2, r7, lsl r7
    7d44:	01240500 			; <UNDEFINED> instruction: 0x01240500
    7d48:	00000025 	andeq	r0, r0, r5, lsr #32
    7d4c:	03181704 	tsteq	r8, #4, 14	; 0x100000
    7d50:	25050000 	strcs	r0, [r5, #-0]
    7d54:	00063601 	andeq	r3, r6, r1, lsl #12
    7d58:	0d000800 	stceq	8, cr0, [r0, #-0]
    7d5c:	0005fb04 	andeq	pc, r5, r4, lsl #22
    7d60:	ef040d00 	svc	0x00040d00
    7d64:	19000005 	stmdbne	r0, {r0, r2}
    7d68:	00000021 	andeq	r0, r0, r1, lsr #32
    7d6c:	013d050e 	teqeq	sp, lr, lsl #10
    7d70:	00000671 	andeq	r0, r0, r1, ror r6
    7d74:	00038c17 	andeq	r8, r3, r7, lsl ip
    7d78:	013e0500 	teqeq	lr, r0, lsl #10
    7d7c:	00000671 	andeq	r0, r0, r1, ror r6
    7d80:	03b91700 			; <UNDEFINED> instruction: 0x03b91700
    7d84:	3f050000 	svccc	0x00050000
    7d88:	00067101 	andeq	r7, r6, r1, lsl #2
    7d8c:	37170600 	ldrcc	r0, [r7, -r0, lsl #12]
    7d90:	05000004 	streq	r0, [r0, #-4]
    7d94:	00560140 	subseq	r0, r6, r0, asr #2
    7d98:	000c0000 	andeq	r0, ip, r0
    7d9c:	00005608 	andeq	r5, r0, r8, lsl #12
    7da0:	00068100 	andeq	r8, r6, r0, lsl #2
    7da4:	00c70900 	sbceq	r0, r7, r0, lsl #18
    7da8:	00020000 	andeq	r0, r2, r0
    7dac:	5705d01a 	smladpl	r5, sl, r0, sp
    7db0:	00078202 	andeq	r8, r7, r2, lsl #4
    7db4:	047d1700 	ldrbteq	r1, [sp], #-1792	; 0xfffff900
    7db8:	59050000 	stmdbpl	r5, {}	; <UNPREDICTABLE>
    7dbc:	00002c02 	andeq	r2, r0, r2, lsl #24
    7dc0:	21170000 	tstcs	r7, r0
    7dc4:	05000004 	streq	r0, [r0, #-4]
    7dc8:	0107025a 	tsteq	r7, sl, asr r2
    7dcc:	17040000 	strne	r0, [r4, -r0]
    7dd0:	00000244 	andeq	r0, r0, r4, asr #4
    7dd4:	82025b05 	andhi	r5, r2, #5120	; 0x1400
    7dd8:	08000007 	stmdaeq	r0, {r0, r1, r2}
    7ddc:	0004d517 	andeq	sp, r4, r7, lsl r5
    7de0:	025c0500 	subseq	r0, ip, #0, 10
    7de4:	0000018d 	andeq	r0, r0, sp, lsl #3
    7de8:	01a41724 			; <UNDEFINED> instruction: 0x01a41724
    7dec:	5d050000 	stcpl	0, cr0, [r5, #-0]
    7df0:	00002502 	andeq	r2, r0, r2, lsl #10
    7df4:	41174800 	tstmi	r7, r0, lsl #16
    7df8:	05000003 	streq	r0, [r0, #-3]
    7dfc:	0064025e 	rsbeq	r0, r4, lr, asr r2
    7e00:	17500000 	ldrbne	r0, [r0, -r0]
    7e04:	000004eb 	andeq	r0, r0, fp, ror #9
    7e08:	3c025f05 	stccc	15, cr5, [r2], {5}
    7e0c:	58000006 	stmdapl	r0, {r1, r2}
    7e10:	00034c17 	andeq	r4, r3, r7, lsl ip
    7e14:	02600500 	rsbeq	r0, r0, #0, 10
    7e18:	000000ef 	andeq	r0, r0, pc, ror #1
    7e1c:	04f01768 	ldrbteq	r1, [r0], #1896	; 0x768
    7e20:	61050000 	mrsvs	r0, (UNDEF: 5)
    7e24:	0000ef02 	andeq	lr, r0, r2, lsl #30
    7e28:	93177000 	tstls	r7, #0
    7e2c:	05000000 	streq	r0, [r0, #-0]
    7e30:	00ef0262 	rsceq	r0, pc, r2, ror #4
    7e34:	17780000 	ldrbne	r0, [r8, -r0]!
    7e38:	000004a8 	andeq	r0, r0, r8, lsr #9
    7e3c:	92026305 	andls	r6, r2, #335544320	; 0x14000000
    7e40:	80000007 	andhi	r0, r0, r7
    7e44:	00023817 	andeq	r3, r2, r7, lsl r8
    7e48:	02640500 	rsbeq	r0, r4, #0, 10
    7e4c:	000007a2 	andeq	r0, r0, r2, lsr #15
    7e50:	04441788 	strbeq	r1, [r4], #-1928	; 0xfffff878
    7e54:	65050000 	strvs	r0, [r5, #-0]
    7e58:	00002502 	andeq	r2, r0, r2, lsl #10
    7e5c:	6a17a000 	bvs	5efe64 <__bss_end__+0x5e63fc>
    7e60:	05000001 	streq	r0, [r0, #-1]
    7e64:	00ef0266 	rsceq	r0, pc, r6, ror #4
    7e68:	17a40000 	strne	r0, [r4, r0]!
    7e6c:	00000084 	andeq	r0, r0, r4, lsl #1
    7e70:	ef026705 	svc	0x00026705
    7e74:	ac000000 	stcge	0, cr0, [r0], {-0}
    7e78:	00015917 	andeq	r5, r1, r7, lsl r9
    7e7c:	02680500 	rsbeq	r0, r8, #0, 10
    7e80:	000000ef 	andeq	r0, r0, pc, ror #1
    7e84:	003c17b4 	ldrhteq	r1, [ip], -r4
    7e88:	69050000 	stmdbvs	r5, {}	; <UNPREDICTABLE>
    7e8c:	0000ef02 	andeq	lr, r0, r2, lsl #30
    7e90:	4b17bc00 	blmi	5f6e98 <__bss_end__+0x5ed430>
    7e94:	05000000 	streq	r0, [r0, #-0]
    7e98:	00ef026a 	rsceq	r0, pc, sl, ror #4
    7e9c:	17c40000 	strbne	r0, [r4, r0]
    7ea0:	000002f4 	strdeq	r0, [r0], -r4
    7ea4:	25026b05 	strcs	r6, [r2, #-2821]	; 0xfffff4fb
    7ea8:	cc000000 	stcgt	0, cr0, [r0], {-0}
    7eac:	010d0800 	tsteq	sp, r0, lsl #16
    7eb0:	07920000 	ldreq	r0, [r2, r0]
    7eb4:	c7090000 	strgt	r0, [r9, -r0]
    7eb8:	19000000 	stmdbne	r0, {}	; <UNPREDICTABLE>
    7ebc:	010d0800 	tsteq	sp, r0, lsl #16
    7ec0:	07a20000 	streq	r0, [r2, r0]!
    7ec4:	c7090000 	strgt	r0, [r9, -r0]
    7ec8:	07000000 	streq	r0, [r0, -r0]
    7ecc:	010d0800 	tsteq	sp, r0, lsl #16
    7ed0:	07b20000 	ldreq	r0, [r2, r0]!
    7ed4:	c7090000 	strgt	r0, [r9, -r0]
    7ed8:	17000000 	strne	r0, [r0, -r0]
    7edc:	05f01a00 	ldrbeq	r1, [r0, #2560]!	; 0xa00
    7ee0:	07d60270 			; <UNDEFINED> instruction: 0x07d60270
    7ee4:	9b170000 	blls	5c7eec <__bss_end__+0x5be484>
    7ee8:	05000002 	streq	r0, [r0, #-2]
    7eec:	07d60273 			; <UNDEFINED> instruction: 0x07d60273
    7ef0:	17000000 	strne	r0, [r0, -r0]
    7ef4:	0000049f 	muleq	r0, pc, r4	; <UNPREDICTABLE>
    7ef8:	e6027405 	str	r7, [r2], -r5, lsl #8
    7efc:	78000007 	stmdavc	r0, {r0, r1, r2}
    7f00:	02d60800 	sbcseq	r0, r6, #0, 16
    7f04:	07e60000 	strbeq	r0, [r6, r0]!
    7f08:	c7090000 	strgt	r0, [r9, -r0]
    7f0c:	1d000000 	stcne	0, cr0, [r0, #-0]
    7f10:	002c0800 	eoreq	r0, ip, r0, lsl #16
    7f14:	07f60000 	ldrbeq	r0, [r6, r0]!
    7f18:	c7090000 	strgt	r0, [r9, -r0]
    7f1c:	1d000000 	stcne	0, cr0, [r0, #-0]
    7f20:	05f01b00 	ldrbeq	r1, [r0, #2816]!	; 0xb00
    7f24:	08180255 	ldmdaeq	r8, {r0, r2, r4, r6, r9}
    7f28:	851c0000 	ldrhi	r0, [ip, #-0]
    7f2c:	05000003 	streq	r0, [r0, #-3]
    7f30:	0681026c 	streq	r0, [r1], ip, ror #4
    7f34:	c21c0000 	andsgt	r0, ip, #0
    7f38:	05000004 	streq	r0, [r0, #-4]
    7f3c:	07b20275 			; <UNDEFINED> instruction: 0x07b20275
    7f40:	08000000 	stmdaeq	r0, {}	; <UNPREDICTABLE>
    7f44:	0000010d 	andeq	r0, r0, sp, lsl #2
    7f48:	00000828 	andeq	r0, r0, r8, lsr #16
    7f4c:	0000c709 	andeq	ip, r0, r9, lsl #14
    7f50:	1d001800 	stcne	8, cr1, [r0, #-0]
    7f54:	00000833 	andeq	r0, r0, r3, lsr r8
    7f58:	00042415 	andeq	r2, r4, r5, lsl r4
    7f5c:	040d0000 	streq	r0, [sp], #-0
    7f60:	00000828 	andeq	r0, r0, r8, lsr #16
    7f64:	0177040d 	cmneq	r7, sp, lsl #8
    7f68:	4a1d0000 	bmi	747f70 <__bss_end__+0x73e508>
    7f6c:	15000008 	strne	r0, [r0, #-8]
    7f70:	00000025 	andeq	r0, r0, r5, lsr #32
    7f74:	50040d00 	andpl	r0, r4, r0, lsl #26
    7f78:	0d000008 	stceq	0, cr0, [r0, #-32]	; 0xffffffe0
    7f7c:	00083f04 	andeq	r3, r8, r4, lsl #30
    7f80:	05ef0800 	strbeq	r0, [pc, #2048]!	; 8788 <emit+0x38>
    7f84:	08660000 	stmdaeq	r6!, {}^	; <UNPREDICTABLE>
    7f88:	c7090000 	strgt	r0, [r9, -r0]
    7f8c:	02000000 	andeq	r0, r0, #0
    7f90:	04581e00 	ldrbeq	r1, [r8], #-3584	; 0xfffff200
    7f94:	fd050000 	stc2	0, cr0, [r5, #-0]
    7f98:	00042402 	andeq	r2, r4, r2, lsl #8
    7f9c:	04511e00 	ldrbeq	r1, [r1], #-3584	; 0xfffff200
    7fa0:	fe050000 	cdp2	0, 0, cr0, cr5, cr0, {0}
    7fa4:	00042a02 	andeq	r2, r4, r2, lsl #20
    7fa8:	00251400 	eoreq	r1, r5, r0, lsl #8
    7fac:	088d0000 	stmeq	sp, {}	; <UNPREDICTABLE>
    7fb0:	25150000 	ldrcs	r0, [r5, #-0]
    7fb4:	00000000 	andeq	r0, r0, r0
    7fb8:	0001bd1f 	andeq	fp, r1, pc, lsl sp
    7fbc:	981d0600 	ldmdals	sp, {r9, sl}
    7fc0:	0d000008 	stceq	0, cr0, [r0, #-32]	; 0xffffffe0
    7fc4:	00087e04 	andeq	r7, r8, r4, lsl #28
    7fc8:	00251400 	eoreq	r1, r5, r0, lsl #8
    7fcc:	08ad0000 	stmiaeq	sp!, {}	; <UNPREDICTABLE>
    7fd0:	85150000 	ldrhi	r0, [r5, #-0]
    7fd4:	00000005 	andeq	r0, r0, r5
    7fd8:	0007561f 	andeq	r5, r7, pc, lsl r6
    7fdc:	b8220600 	stmdalt	r2!, {r9, sl}
    7fe0:	0d000008 	stceq	0, cr0, [r0, #-32]	; 0xffffffe0
    7fe4:	00089e04 	andeq	r9, r8, r4, lsl #28
    7fe8:	02852000 	addeq	r2, r5, #0
    7fec:	04010000 	streq	r0, [r1], #-0
    7ff0:	00008e84 	andeq	r8, r0, r4, lsl #29
    7ff4:	00000028 	andeq	r0, r0, r8, lsr #32
    7ff8:	09049c01 	stmdbeq	r4, {r0, sl, fp, ip, pc}
    7ffc:	98210000 	stmdals	r1!, {}	; <UNPREDICTABLE>
    8000:	e600008e 	str	r0, [r0], -lr, lsl #1
    8004:	22000008 	andcs	r0, r0, #8
    8008:	03055001 	movweq	r5, #20481	; 0x5001
    800c:	00009650 	andeq	r9, r0, r0, asr r6
    8010:	8ea02300 	cdphi	3, 10, cr2, cr0, cr0, {0}
    8014:	09040000 	stmdbeq	r4, {}	; <UNPREDICTABLE>
    8018:	08fa0000 	ldmeq	sl!, {}^	; <UNPREDICTABLE>
    801c:	01220000 			; <UNDEFINED> instruction: 0x01220000
    8020:	64080250 	strvs	r0, [r8], #-592	; 0xfffffdb0
    8024:	8ea42400 	cdphi	4, 10, cr2, cr4, cr0, {0}
    8028:	090f0000 	stmdbeq	pc, {}	; <UNPREDICTABLE>
    802c:	25000000 	strcs	r0, [r0, #-0]
    8030:	00000829 	andeq	r0, r0, r9, lsr #16
    8034:	00000829 	andeq	r0, r0, r9, lsr #16
    8038:	32254f06 	eorcc	r4, r5, #6, 30
    803c:	32000008 	andcc	r0, r0, #8
    8040:	06000008 	streq	r0, [r0], -r8
    8044:	0a170062 	beq	5c81d4 <__bss_end__+0x5be76c>
    8048:	00040000 	andeq	r0, r4, r0
    804c:	000018d6 	ldrdeq	r1, [r0], -r6
    8050:	03bf0104 			; <UNDEFINED> instruction: 0x03bf0104
    8054:	ac0c0000 	stcge	0, cr0, [ip], {-0}
    8058:	b6000008 	strlt	r0, [r0], -r8
    805c:	ac000006 	stcge	0, cr0, [r0], {6}
    8060:	8800008e 	stmdahi	r0, {r1, r2, r3, r7}
    8064:	46000000 	strmi	r0, [r0], -r0
    8068:	0200000d 	andeq	r0, r0, #13
    806c:	6e690504 	cdpvs	5, 6, cr0, cr9, cr4, {0}
    8070:	04030074 	streq	r0, [r3], #-116	; 0xffffff8c
    8074:	00006607 	andeq	r6, r0, r7, lsl #12
    8078:	06010300 	streq	r0, [r1], -r0, lsl #6
    807c:	000002e3 	andeq	r0, r0, r3, ror #5
    8080:	fd050203 	stc2	2, cr0, [r5, #-12]
    8084:	03000002 	movweq	r0, #2
    8088:	00af0504 	adceq	r0, pc, r4, lsl #10
    808c:	08030000 	stmdaeq	r3, {}	; <UNPREDICTABLE>
    8090:	0000aa05 	andeq	sl, r0, r5, lsl #20
    8094:	08010300 	stmdaeq	r1, {r8, r9}
    8098:	000002e1 	andeq	r0, r0, r1, ror #5
    809c:	0e070203 	cdpeq	2, 0, cr0, cr7, cr3, {0}
    80a0:	03000002 	movweq	r0, #2
    80a4:	00610704 	rsbeq	r0, r1, r4, lsl #14
    80a8:	08030000 	stmdaeq	r3, {}	; <UNPREDICTABLE>
    80ac:	00005c07 	andeq	r5, r0, r7, lsl #24
    80b0:	02cf0400 	sbceq	r0, pc, #0, 8
    80b4:	07020000 	streq	r0, [r2, -r0]
    80b8:	00000025 	andeq	r0, r0, r5, lsr #32
    80bc:	0002be04 	andeq	fp, r2, r4, lsl #28
    80c0:	412c0300 			; <UNDEFINED> instruction: 0x412c0300
    80c4:	04000000 	streq	r0, [r0], #-0
    80c8:	000003a8 	andeq	r0, r0, r8, lsr #7
    80cc:	00417203 	subeq	r7, r1, r3, lsl #4
    80d0:	5f050000 	svcpl	0x00050000
    80d4:	04000002 	streq	r0, [r0], #-2
    80d8:	002c0165 	eoreq	r0, ip, r5, ror #2
    80dc:	04060000 	streq	r0, [r6], #-0
    80e0:	00b7a603 	adcseq	sl, r7, r3, lsl #12
    80e4:	59070000 	stmdbpl	r7, {}	; <UNPREDICTABLE>
    80e8:	03000002 	movweq	r0, #2
    80ec:	00008ca8 	andeq	r8, r0, r8, lsr #25
    80f0:	01ce0700 	biceq	r0, lr, r0, lsl #14
    80f4:	a9030000 	stmdbge	r3, {}	; <UNPREDICTABLE>
    80f8:	000000b7 	strheq	r0, [r0], -r7
    80fc:	004f0800 	subeq	r0, pc, r0, lsl #16
    8100:	00c70000 	sbceq	r0, r7, r0
    8104:	c7090000 	strgt	r0, [r9, -r0]
    8108:	03000000 	movweq	r0, #0
    810c:	07040300 	streq	r0, [r4, -r0, lsl #6]
    8110:	00000292 	muleq	r0, r2, r2
    8114:	a303080a 	movwge	r0, #14346	; 0x380a
    8118:	000000ef 	andeq	r0, r0, pc, ror #1
    811c:	0003920b 	andeq	r9, r3, fp, lsl #4
    8120:	25a50300 	strcs	r0, [r5, #768]!	; 0x300
    8124:	00000000 	andeq	r0, r0, r0
    8128:	00039a0b 	andeq	r9, r3, fp, lsl #20
    812c:	98aa0300 	stmials	sl!, {r8, r9}
    8130:	04000000 	streq	r0, [r0], #-0
    8134:	03250400 			; <UNDEFINED> instruction: 0x03250400
    8138:	ab030000 	blge	c8140 <__bss_end__+0xbe6d8>
    813c:	000000ce 	andeq	r0, r0, lr, asr #1
    8140:	00018b04 	andeq	r8, r1, r4, lsl #22
    8144:	6baf0300 	blvs	febc8d4c <__bss_end__+0xfebbf2e4>
    8148:	0c000000 	stceq	0, cr0, [r0], {-0}
    814c:	0d040d04 	stceq	13, cr0, [r4, #-16]
    8150:	03000001 	movweq	r0, #1
    8154:	02ea0801 	rsceq	r0, sl, #65536	; 0x10000
    8158:	0d0e0000 	stceq	0, cr0, [lr, #-0]
    815c:	04000001 	streq	r0, [r0], #-1
    8160:	0000043c 	andeq	r0, r0, ip, lsr r4
    8164:	005d1605 	subseq	r1, sp, r5, lsl #12
    8168:	9c0f0000 	stcls	0, cr0, [pc], {-0}
    816c:	18000001 	stmdane	r0, {r0}
    8170:	01772d05 	cmneq	r7, r5, lsl #26
    8174:	460b0000 	strmi	r0, [fp], -r0
    8178:	05000003 	streq	r0, [r0, #-3]
    817c:	0001772f 	andeq	r7, r1, pc, lsr #14
    8180:	5f100000 	svcpl	0x00100000
    8184:	3005006b 	andcc	r0, r5, fp, rrx
    8188:	00000025 	andeq	r0, r0, r5, lsr #32
    818c:	037d0b04 	cmneq	sp, #4, 22	; 0x1000
    8190:	30050000 	andcc	r0, r5, r0
    8194:	00000025 	andeq	r0, r0, r5, lsr #32
    8198:	01850b08 	orreq	r0, r5, r8, lsl #22
    819c:	30050000 	andcc	r0, r5, r0
    81a0:	00000025 	andeq	r0, r0, r5, lsr #32
    81a4:	048a0b0c 	streq	r0, [sl], #2828	; 0xb0c
    81a8:	30050000 	andcc	r0, r5, r0
    81ac:	00000025 	andeq	r0, r0, r5, lsr #32
    81b0:	785f1010 	ldmdavc	pc, {r4, ip}^	; <UNPREDICTABLE>
    81b4:	7d310500 	cfldr32vc	mvfx0, [r1, #-0]
    81b8:	14000001 	strne	r0, [r0], #-1
    81bc:	24040d00 	strcs	r0, [r4], #-3328	; 0xfffff300
    81c0:	08000001 	stmdaeq	r0, {r0}
    81c4:	00000119 	andeq	r0, r0, r9, lsl r1
    81c8:	0000018d 	andeq	r0, r0, sp, lsl #3
    81cc:	0000c709 	andeq	ip, r0, r9, lsl #14
    81d0:	0f000000 	svceq	0x00000000
    81d4:	000001c9 	andeq	r0, r0, r9, asr #3
    81d8:	06350524 	ldrteq	r0, [r5], -r4, lsr #10
    81dc:	0b000002 	bleq	81ec <check_hdr+0x54>
    81e0:	000000a1 	andeq	r0, r0, r1, lsr #1
    81e4:	00253705 	eoreq	r3, r5, r5, lsl #14
    81e8:	0b000000 	bleq	81f0 <check_block>
    81ec:	000003b0 			; <UNDEFINED> instruction: 0x000003b0
    81f0:	00253805 	eoreq	r3, r5, r5, lsl #16
    81f4:	0b040000 	bleq	1081fc <__bss_end__+0xfe794>
    81f8:	000000c4 	andeq	r0, r0, r4, asr #1
    81fc:	00253905 	eoreq	r3, r5, r5, lsl #18
    8200:	0b080000 	bleq	208208 <__bss_end__+0x1fe7a0>
    8204:	00000503 	andeq	r0, r0, r3, lsl #10
    8208:	00253a05 	eoreq	r3, r5, r5, lsl #20
    820c:	0b0c0000 	bleq	308214 <__bss_end__+0x2fe7ac>
    8210:	000002a2 	andeq	r0, r0, r2, lsr #5
    8214:	00253b05 	eoreq	r3, r5, r5, lsl #22
    8218:	0b100000 	bleq	408220 <__bss_end__+0x3fe7b8>
    821c:	0000027b 	andeq	r0, r0, fp, ror r2
    8220:	00253c05 	eoreq	r3, r5, r5, lsl #24
    8224:	0b140000 	bleq	50822c <__bss_end__+0x4fe7c4>
    8228:	0000048f 	andeq	r0, r0, pc, lsl #9
    822c:	00253d05 	eoreq	r3, r5, r5, lsl #26
    8230:	0b180000 	bleq	608238 <__bss_end__+0x5fe7d0>
    8234:	00000307 	andeq	r0, r0, r7, lsl #6
    8238:	00253e05 	eoreq	r3, r5, r5, lsl #28
    823c:	0b1c0000 	bleq	708244 <__bss_end__+0x6fe7dc>
    8240:	000004ca 	andeq	r0, r0, sl, asr #9
    8244:	00253f05 	eoreq	r3, r5, r5, lsl #30
    8248:	00200000 	eoreq	r0, r0, r0
    824c:	00010411 	andeq	r0, r1, r1, lsl r4
    8250:	05010800 	streq	r0, [r1, #-2048]	; 0xfffff800
    8254:	00024648 	andeq	r4, r2, r8, asr #12
    8258:	01780b00 	cmneq	r8, r0, lsl #22
    825c:	49050000 	stmdbmi	r5, {}	; <UNPREDICTABLE>
    8260:	00000246 	andeq	r0, r0, r6, asr #4
    8264:	00000b00 	andeq	r0, r0, r0, lsl #22
    8268:	4a050000 	bmi	148270 <__bss_end__+0x13e808>
    826c:	00000246 	andeq	r0, r0, r6, asr #4
    8270:	042e1280 	strteq	r1, [lr], #-640	; 0xfffffd80
    8274:	4c050000 	stcmi	0, cr0, [r5], {-0}
    8278:	00000119 	andeq	r0, r0, r9, lsl r1
    827c:	29120100 	ldmdbcs	r2, {r8}
    8280:	05000001 	streq	r0, [r0, #-1]
    8284:	0001194f 	andeq	r1, r1, pc, asr #18
    8288:	00010400 	andeq	r0, r1, r0, lsl #8
    828c:	00010508 	andeq	r0, r1, r8, lsl #10
    8290:	00025600 	andeq	r5, r2, r0, lsl #12
    8294:	00c70900 	sbceq	r0, r7, r0, lsl #18
    8298:	001f0000 	andseq	r0, pc, r0
    829c:	0002ab11 	andeq	sl, r2, r1, lsl fp
    82a0:	05019000 	streq	r9, [r1, #-0]
    82a4:	0002945b 	andeq	r9, r2, fp, asr r4
    82a8:	03460b00 	movteq	r0, #27392	; 0x6b00
    82ac:	5c050000 	stcpl	0, cr0, [r5], {-0}
    82b0:	00000294 	muleq	r0, r4, r2
    82b4:	035e0b00 	cmpeq	lr, #0, 22
    82b8:	5d050000 	stcpl	0, cr0, [r5, #-0]
    82bc:	00000025 	andeq	r0, r0, r5, lsr #32
    82c0:	01800b04 	orreq	r0, r0, r4, lsl #22
    82c4:	5f050000 	svcpl	0x00050000
    82c8:	0000029a 	muleq	r0, sl, r2
    82cc:	01040b08 	tsteq	r4, r8, lsl #22
    82d0:	60050000 	andvs	r0, r5, r0
    82d4:	00000206 	andeq	r0, r0, r6, lsl #4
    82d8:	040d0088 	streq	r0, [sp], #-136	; 0xffffff78
    82dc:	00000256 	andeq	r0, r0, r6, asr r2
    82e0:	0002aa08 	andeq	sl, r2, r8, lsl #20
    82e4:	0002aa00 	andeq	sl, r2, r0, lsl #20
    82e8:	00c70900 	sbceq	r0, r7, r0, lsl #18
    82ec:	001f0000 	andseq	r0, pc, r0
    82f0:	02b0040d 	adcseq	r0, r0, #218103808	; 0xd000000
    82f4:	0f130000 	svceq	0x00130000
    82f8:	00000311 	andeq	r0, r0, r1, lsl r3
    82fc:	d6730508 	ldrbtle	r0, [r3], -r8, lsl #10
    8300:	0b000002 	bleq	8310 <ckfree+0x50>
    8304:	000000be 	strheq	r0, [r0], -lr
    8308:	02d67405 	sbcseq	r7, r6, #83886080	; 0x5000000
    830c:	0b000000 	bleq	8314 <ckfree+0x54>
    8310:	0000001b 	andeq	r0, r0, fp, lsl r0
    8314:	00257505 	eoreq	r7, r5, r5, lsl #10
    8318:	00040000 	andeq	r0, r4, r0
    831c:	004f040d 	subeq	r0, pc, sp, lsl #8
    8320:	300f0000 	andcc	r0, pc, r0
    8324:	68000003 	stmdavs	r0, {r0, r1}
    8328:	0406b305 	streq	fp, [r6], #-773	; 0xfffffcfb
    832c:	5f100000 	svcpl	0x00100000
    8330:	b4050070 	strlt	r0, [r5], #-112	; 0xffffff90
    8334:	000002d6 	ldrdeq	r0, [r0], -r6
    8338:	725f1000 	subsvc	r1, pc, #0
    833c:	25b50500 	ldrcs	r0, [r5, #1280]!	; 0x500
    8340:	04000000 	streq	r0, [r0], #-0
    8344:	00775f10 	rsbseq	r5, r7, r0, lsl pc
    8348:	0025b605 	eoreq	fp, r5, r5, lsl #12
    834c:	0b080000 	bleq	208354 <__bss_end__+0x1fe8ec>
    8350:	00000122 	andeq	r0, r0, r2, lsr #2
    8354:	003ab705 	eorseq	fp, sl, r5, lsl #14
    8358:	0b0c0000 	bleq	308360 <__bss_end__+0x2fe8f8>
    835c:	000001f4 	strdeq	r0, [r0], -r4
    8360:	003ab805 	eorseq	fp, sl, r5, lsl #16
    8364:	100e0000 	andne	r0, lr, r0
    8368:	0066625f 	rsbeq	r6, r6, pc, asr r2
    836c:	02b1b905 	adcseq	fp, r1, #81920	; 0x14000
    8370:	0b100000 	bleq	408378 <__bss_end__+0x3fe910>
    8374:	0000007b 	andeq	r0, r0, fp, ror r0
    8378:	0025ba05 	eoreq	fp, r5, r5, lsl #20
    837c:	0b180000 	bleq	608384 <__bss_end__+0x5fe91c>
    8380:	00000112 	andeq	r0, r0, r2, lsl r1
    8384:	0105c105 	tsteq	r5, r5, lsl #2
    8388:	0b1c0000 	bleq	708390 <__bss_end__+0x6fe928>
    838c:	00000a5e 	andeq	r0, r0, lr, asr sl
    8390:	0561c305 	strbeq	ip, [r1, #-773]!	; 0xfffffcfb
    8394:	0b200000 	bleq	80839c <__bss_end__+0x7fe934>
    8398:	00000a78 	andeq	r0, r0, r8, ror sl
    839c:	058bc505 	streq	ip, [fp, #1285]	; 0x505
    83a0:	0b240000 	bleq	9083a8 <__bss_end__+0x8fe940>
    83a4:	000003a2 	andeq	r0, r0, r2, lsr #7
    83a8:	05afc805 	streq	ip, [pc, #2053]!	; 8bb5 <va_printk+0x275>
    83ac:	0b280000 	bleq	a083b4 <__bss_end__+0x9fe94c>
    83b0:	000004e4 	andeq	r0, r0, r4, ror #9
    83b4:	05c9c905 	strbeq	ip, [r9, #2309]	; 0x905
    83b8:	102c0000 	eorne	r0, ip, r0
    83bc:	0062755f 	rsbeq	r7, r2, pc, asr r5
    83c0:	02b1cc05 	adcseq	ip, r1, #1280	; 0x500
    83c4:	10300000 	eorsne	r0, r0, r0
    83c8:	0070755f 	rsbseq	r7, r0, pc, asr r5
    83cc:	02d6cd05 	sbcseq	ip, r6, #320	; 0x140
    83d0:	10380000 	eorsne	r0, r8, r0
    83d4:	0072755f 	rsbseq	r7, r2, pc, asr r5
    83d8:	0025ce05 	eoreq	ip, r5, r5, lsl #28
    83dc:	0b3c0000 	bleq	f083e4 <__bss_end__+0xefe97c>
    83e0:	000000b8 	strheq	r0, [r0], -r8
    83e4:	05cfd105 	strbeq	sp, [pc, #261]	; 84f1 <ckalloc+0x169>
    83e8:	0b400000 	bleq	10083f0 <__bss_end__+0xffe988>
    83ec:	000004bc 			; <UNDEFINED> instruction: 0x000004bc
    83f0:	05dfd205 	ldrbeq	sp, [pc, #517]	; 85fd <ck_heap_errors+0x59>
    83f4:	10430000 	subne	r0, r3, r0
    83f8:	00626c5f 	rsbeq	r6, r2, pc, asr ip
    83fc:	02b1d505 	adcseq	sp, r1, #20971520	; 0x1400000
    8400:	0b440000 	bleq	1108408 <__bss_end__+0x10fe9a0>
    8404:	00000140 	andeq	r0, r0, r0, asr #2
    8408:	0025d805 	eoreq	sp, r5, r5, lsl #16
    840c:	0b4c0000 	bleq	1308414 <__bss_end__+0x12fe9ac>
    8410:	00000151 	andeq	r0, r0, r1, asr r1
    8414:	0076d905 	rsbseq	sp, r6, r5, lsl #18
    8418:	0b500000 	bleq	1408420 <__bss_end__+0x13fe9b8>
    841c:	000009ff 	strdeq	r0, [r0], -pc	; <UNPREDICTABLE>
    8420:	0424dc05 	strteq	sp, [r4], #-3077	; 0xfffff3fb
    8424:	0b540000 	bleq	150842c <__bss_end__+0x14fe9c4>
    8428:	0000026d 	andeq	r0, r0, sp, ror #4
    842c:	00fae005 	rscseq	lr, sl, r5
    8430:	0b580000 	bleq	1608438 <__bss_end__+0x15fe9d0>
    8434:	00000338 	andeq	r0, r0, r8, lsr r3
    8438:	00efe205 	rsceq	lr, pc, r5, lsl #4
    843c:	0b5c0000 	bleq	1708444 <__bss_end__+0x16fe9dc>
    8440:	00000273 	andeq	r0, r0, r3, ror r2
    8444:	0025e305 	eoreq	lr, r5, r5, lsl #6
    8448:	00640000 	rsbeq	r0, r4, r0
    844c:	00002514 	andeq	r2, r0, r4, lsl r5
    8450:	00042400 	andeq	r2, r4, r0, lsl #8
    8454:	04241500 	strteq	r1, [r4], #-1280	; 0xfffffb00
    8458:	05150000 	ldreq	r0, [r5, #-0]
    845c:	15000001 	strne	r0, [r0, #-1]
    8460:	00000107 	andeq	r0, r0, r7, lsl #2
    8464:	00002515 	andeq	r2, r0, r5, lsl r5
    8468:	040d0000 	streq	r0, [sp], #-0
    846c:	0000042f 	andeq	r0, r0, pc, lsr #8
    8470:	0004240e 	andeq	r2, r4, lr, lsl #8
    8474:	03851600 	orreq	r1, r5, #0, 12
    8478:	04280000 	strteq	r0, [r8], #-0
    847c:	61023805 	tstvs	r2, r5, lsl #16
    8480:	17000005 	strne	r0, [r0, -r5]
    8484:	000002f6 	strdeq	r0, [r0], -r6
    8488:	25023a05 	strcs	r3, [r2, #-2565]	; 0xfffff5fb
    848c:	00000000 	andeq	r0, r0, r0
    8490:	00013117 	andeq	r3, r1, r7, lsl r1
    8494:	023f0500 	eorseq	r0, pc, #0, 10
    8498:	00000636 	andeq	r0, r0, r6, lsr r6
    849c:	01e41704 	mvneq	r1, r4, lsl #14
    84a0:	3f050000 	svccc	0x00050000
    84a4:	00063602 	andeq	r3, r6, r2, lsl #12
    84a8:	94170800 	ldrls	r0, [r7], #-2048	; 0xfffff800
    84ac:	05000001 	streq	r0, [r0, #-1]
    84b0:	0636023f 			; <UNDEFINED> instruction: 0x0636023f
    84b4:	170c0000 	strne	r0, [ip, -r0]
    84b8:	00000359 	andeq	r0, r0, r9, asr r3
    84bc:	25024105 	strcs	r4, [r2, #-261]	; 0xfffffefb
    84c0:	10000000 	andne	r0, r0, r0
    84c4:	00002917 	andeq	r2, r0, r7, lsl r9
    84c8:	02420500 	subeq	r0, r2, #0, 10
    84cc:	00000818 	andeq	r0, r0, r8, lsl r8
    84d0:	04641714 	strbteq	r1, [r4], #-1812	; 0xfffff8ec
    84d4:	44050000 	strmi	r0, [r5], #-0
    84d8:	00002502 	andeq	r2, r0, r2, lsl #10
    84dc:	63173000 	tstvs	r7, #0
    84e0:	05000003 	streq	r0, [r0, #-3]
    84e4:	05850245 	streq	r0, [r5, #581]	; 0x245
    84e8:	17340000 	ldrne	r0, [r4, -r0]!
    84ec:	000002b3 			; <UNDEFINED> instruction: 0x000002b3
    84f0:	25024705 	strcs	r4, [r2, #-1797]	; 0xfffff8fb
    84f4:	38000000 	stmdacc	r0, {}	; <UNPREDICTABLE>
    84f8:	00037317 	andeq	r7, r3, r7, lsl r3
    84fc:	02490500 	subeq	r0, r9, #0, 10
    8500:	00000833 	andeq	r0, r0, r3, lsr r8
    8504:	0251173c 	subseq	r1, r1, #60, 14	; 0xf00000
    8508:	4c050000 	stcmi	0, cr0, [r5], {-0}
    850c:	00017702 	andeq	r7, r1, r2, lsl #14
    8510:	b3174000 	tstlt	r7, #0
    8514:	05000001 	streq	r0, [r0, #-1]
    8518:	0025024d 	eoreq	r0, r5, sp, asr #4
    851c:	17440000 	strbne	r0, [r4, -r0]
    8520:	000004fe 	strdeq	r0, [r0], -lr
    8524:	77024e05 	strvc	r4, [r2, -r5, lsl #28]
    8528:	48000001 	stmdami	r0, {r0}
    852c:	0002c517 	andeq	ip, r2, r7, lsl r5
    8530:	024f0500 	subeq	r0, pc, #0, 10
    8534:	00000839 	andeq	r0, r0, r9, lsr r8
    8538:	01ec174c 	mvneq	r1, ip, asr #14
    853c:	52050000 	andpl	r0, r5, #0
    8540:	00002502 	andeq	r2, r0, r2, lsl #10
    8544:	49175000 	ldmdbmi	r7, {ip, lr}
    8548:	05000001 	streq	r0, [r0, #-1]
    854c:	01070253 	tsteq	r7, r3, asr r2
    8550:	17540000 	ldrbne	r0, [r4, -r0]
    8554:	000002ef 	andeq	r0, r0, pc, ror #5
    8558:	f6027605 			; <UNDEFINED> instruction: 0xf6027605
    855c:	58000007 	stmdapl	r0, {r0, r1, r2}
    8560:	0002ab18 	andeq	sl, r2, r8, lsl fp
    8564:	027a0500 	rsbseq	r0, sl, #0, 10
    8568:	00000294 	muleq	r0, r4, r2
    856c:	2f180148 	svccs	0x00180148
    8570:	05000002 	streq	r0, [r0, #-2]
    8574:	0256027b 	subseq	r0, r6, #-1342177273	; 0xb0000007
    8578:	014c0000 	mrseq	r0, (UNDEF: 76)
    857c:	0004b218 	andeq	fp, r4, r8, lsl r2
    8580:	027f0500 	rsbseq	r0, pc, #0, 10
    8584:	0000084a 	andeq	r0, r0, sl, asr #16
    8588:	1a1802dc 	bne	609100 <__bss_end__+0x5ff698>
    858c:	05000001 	streq	r0, [r0, #-1]
    8590:	05fb0284 	ldrbeq	r0, [fp, #644]!	; 0x284
    8594:	02e00000 	rsceq	r0, r0, #0
    8598:	0000ff18 	andeq	pc, r0, r8, lsl pc	; <UNPREDICTABLE>
    859c:	02850500 	addeq	r0, r5, #0, 10
    85a0:	00000856 	andeq	r0, r0, r6, asr r8
    85a4:	0d0002ec 	sfmeq	f0, 4, [r0, #-944]	; 0xfffffc50
    85a8:	00040604 	andeq	r0, r4, r4, lsl #12
    85ac:	00251400 	eoreq	r1, r5, r0, lsl #8
    85b0:	05850000 	streq	r0, [r5]
    85b4:	24150000 	ldrcs	r0, [r5], #-0
    85b8:	15000004 	strne	r0, [r0, #-4]
    85bc:	00000105 	andeq	r0, r0, r5, lsl #2
    85c0:	00058515 	andeq	r8, r5, r5, lsl r5
    85c4:	00251500 	eoreq	r1, r5, r0, lsl #10
    85c8:	0d000000 	stceq	0, cr0, [r0, #-0]
    85cc:	00011404 	andeq	r1, r1, r4, lsl #8
    85d0:	67040d00 	strvs	r0, [r4, -r0, lsl #26]
    85d4:	14000005 	strne	r0, [r0], #-5
    85d8:	00000081 	andeq	r0, r0, r1, lsl #1
    85dc:	000005af 	andeq	r0, r0, pc, lsr #11
    85e0:	00042415 	andeq	r2, r4, r5, lsl r4
    85e4:	01051500 	tsteq	r5, r0, lsl #10
    85e8:	81150000 	tsthi	r5, r0
    85ec:	15000000 	strne	r0, [r0, #-0]
    85f0:	00000025 	andeq	r0, r0, r5, lsr #32
    85f4:	91040d00 	tstls	r4, r0, lsl #26
    85f8:	14000005 	strne	r0, [r0], #-5
    85fc:	00000025 	andeq	r0, r0, r5, lsr #32
    8600:	000005c9 	andeq	r0, r0, r9, asr #11
    8604:	00042415 	andeq	r2, r4, r5, lsl r4
    8608:	01051500 	tsteq	r5, r0, lsl #10
    860c:	0d000000 	stceq	0, cr0, [r0, #-0]
    8610:	0005b504 	andeq	fp, r5, r4, lsl #10
    8614:	004f0800 	subeq	r0, pc, r0, lsl #16
    8618:	05df0000 	ldrbeq	r0, [pc]	; 8620 <ck_heap_errors+0x7c>
    861c:	c7090000 	strgt	r0, [r9, -r0]
    8620:	02000000 	andeq	r0, r0, #0
    8624:	004f0800 	subeq	r0, pc, r0, lsl #16
    8628:	05ef0000 	strbeq	r0, [pc, #0]!	; 8630 <ck_heap_errors+0x8c>
    862c:	c7090000 	strgt	r0, [r9, -r0]
    8630:	00000000 	andeq	r0, r0, r0
    8634:	031e0500 	tsteq	lr, #0, 10
    8638:	1d050000 	stcne	0, cr0, [r5, #-0]
    863c:	0002dc01 	andeq	sp, r2, r1, lsl #24
    8640:	04991900 	ldreq	r1, [r9], #2304	; 0x900
    8644:	050c0000 	streq	r0, [ip, #-0]
    8648:	06300121 	ldrteq	r0, [r0], -r1, lsr #2
    864c:	46170000 	ldrmi	r0, [r7], -r0
    8650:	05000003 	streq	r0, [r0, #-3]
    8654:	06300123 	ldrteq	r0, [r0], -r3, lsr #2
    8658:	17000000 	strne	r0, [r0, -r0]
    865c:	00000207 	andeq	r0, r0, r7, lsl #4
    8660:	25012405 	strcs	r2, [r1, #-1029]	; 0xfffffbfb
    8664:	04000000 	streq	r0, [r0], #-0
    8668:	00031817 	andeq	r1, r3, r7, lsl r8
    866c:	01250500 			; <UNDEFINED> instruction: 0x01250500
    8670:	00000636 	andeq	r0, r0, r6, lsr r6
    8674:	040d0008 	streq	r0, [sp], #-8
    8678:	000005fb 	strdeq	r0, [r0], -fp
    867c:	05ef040d 	strbeq	r0, [pc, #1037]!	; 8a91 <va_printk+0x151>
    8680:	21190000 	tstcs	r9, r0
    8684:	0e000000 	cdpeq	0, 0, cr0, cr0, cr0, {0}
    8688:	71013d05 	tstvc	r1, r5, lsl #26
    868c:	17000006 	strne	r0, [r0, -r6]
    8690:	0000038c 	andeq	r0, r0, ip, lsl #7
    8694:	71013e05 	tstvc	r1, r5, lsl #28
    8698:	00000006 	andeq	r0, r0, r6
    869c:	0003b917 	andeq	fp, r3, r7, lsl r9
    86a0:	013f0500 	teqeq	pc, r0, lsl #10
    86a4:	00000671 	andeq	r0, r0, r1, ror r6
    86a8:	04371706 	ldrteq	r1, [r7], #-1798	; 0xfffff8fa
    86ac:	40050000 	andmi	r0, r5, r0
    86b0:	00005601 	andeq	r5, r0, r1, lsl #12
    86b4:	08000c00 	stmdaeq	r0, {sl, fp}
    86b8:	00000056 	andeq	r0, r0, r6, asr r0
    86bc:	00000681 	andeq	r0, r0, r1, lsl #13
    86c0:	0000c709 	andeq	ip, r0, r9, lsl #14
    86c4:	1a000200 	bne	8ecc <timer_get_usec_raw+0x4>
    86c8:	025705d0 	subseq	r0, r7, #208, 10	; 0x34000000
    86cc:	00000782 	andeq	r0, r0, r2, lsl #15
    86d0:	00047d17 	andeq	r7, r4, r7, lsl sp
    86d4:	02590500 	subseq	r0, r9, #0, 10
    86d8:	0000002c 	andeq	r0, r0, ip, lsr #32
    86dc:	04211700 	strteq	r1, [r1], #-1792	; 0xfffff900
    86e0:	5a050000 	bpl	1486e8 <__bss_end__+0x13ec80>
    86e4:	00010702 	andeq	r0, r1, r2, lsl #14
    86e8:	44170400 	ldrmi	r0, [r7], #-1024	; 0xfffffc00
    86ec:	05000002 	streq	r0, [r0, #-2]
    86f0:	0782025b 			; <UNDEFINED> instruction: 0x0782025b
    86f4:	17080000 	strne	r0, [r8, -r0]
    86f8:	000004d5 	ldrdeq	r0, [r0], -r5
    86fc:	8d025c05 	stchi	12, cr5, [r2, #-20]	; 0xffffffec
    8700:	24000001 	strcs	r0, [r0], #-1
    8704:	0001a417 	andeq	sl, r1, r7, lsl r4
    8708:	025d0500 	subseq	r0, sp, #0, 10
    870c:	00000025 	andeq	r0, r0, r5, lsr #32
    8710:	03411748 	movteq	r1, #5960	; 0x1748
    8714:	5e050000 	cdppl	0, 0, cr0, cr5, cr0, {0}
    8718:	00006402 	andeq	r6, r0, r2, lsl #8
    871c:	eb175000 	bl	5dc724 <__bss_end__+0x5d2cbc>
    8720:	05000004 	streq	r0, [r0, #-4]
    8724:	063c025f 			; <UNDEFINED> instruction: 0x063c025f
    8728:	17580000 	ldrbne	r0, [r8, -r0]
    872c:	0000034c 	andeq	r0, r0, ip, asr #6
    8730:	ef026005 	svc	0x00026005
    8734:	68000000 	stmdavs	r0, {}	; <UNPREDICTABLE>
    8738:	0004f017 	andeq	pc, r4, r7, lsl r0	; <UNPREDICTABLE>
    873c:	02610500 	rsbeq	r0, r1, #0, 10
    8740:	000000ef 	andeq	r0, r0, pc, ror #1
    8744:	00931770 	addseq	r1, r3, r0, ror r7
    8748:	62050000 	andvs	r0, r5, #0
    874c:	0000ef02 	andeq	lr, r0, r2, lsl #30
    8750:	a8177800 	ldmdage	r7, {fp, ip, sp, lr}
    8754:	05000004 	streq	r0, [r0, #-4]
    8758:	07920263 	ldreq	r0, [r2, r3, ror #4]
    875c:	17800000 	strne	r0, [r0, r0]
    8760:	00000238 	andeq	r0, r0, r8, lsr r2
    8764:	a2026405 	andge	r6, r2, #83886080	; 0x5000000
    8768:	88000007 	stmdahi	r0, {r0, r1, r2}
    876c:	00044417 	andeq	r4, r4, r7, lsl r4
    8770:	02650500 	rsbeq	r0, r5, #0, 10
    8774:	00000025 	andeq	r0, r0, r5, lsr #32
    8778:	016a17a0 	cmneq	sl, r0, lsr #15
    877c:	66050000 	strvs	r0, [r5], -r0
    8780:	0000ef02 	andeq	lr, r0, r2, lsl #30
    8784:	8417a400 	ldrhi	sl, [r7], #-1024	; 0xfffffc00
    8788:	05000000 	streq	r0, [r0, #-0]
    878c:	00ef0267 	rsceq	r0, pc, r7, ror #4
    8790:	17ac0000 	strne	r0, [ip, r0]!
    8794:	00000159 	andeq	r0, r0, r9, asr r1
    8798:	ef026805 	svc	0x00026805
    879c:	b4000000 	strlt	r0, [r0], #-0
    87a0:	00003c17 	andeq	r3, r0, r7, lsl ip
    87a4:	02690500 	rsbeq	r0, r9, #0, 10
    87a8:	000000ef 	andeq	r0, r0, pc, ror #1
    87ac:	004b17bc 	strheq	r1, [fp], #-124	; 0xffffff84
    87b0:	6a050000 	bvs	1487b8 <__bss_end__+0x13ed50>
    87b4:	0000ef02 	andeq	lr, r0, r2, lsl #30
    87b8:	f417c400 			; <UNDEFINED> instruction: 0xf417c400
    87bc:	05000002 	streq	r0, [r0, #-2]
    87c0:	0025026b 	eoreq	r0, r5, fp, ror #4
    87c4:	00cc0000 	sbceq	r0, ip, r0
    87c8:	00010d08 	andeq	r0, r1, r8, lsl #26
    87cc:	00079200 	andeq	r9, r7, r0, lsl #4
    87d0:	00c70900 	sbceq	r0, r7, r0, lsl #18
    87d4:	00190000 	andseq	r0, r9, r0
    87d8:	00010d08 	andeq	r0, r1, r8, lsl #26
    87dc:	0007a200 	andeq	sl, r7, r0, lsl #4
    87e0:	00c70900 	sbceq	r0, r7, r0, lsl #18
    87e4:	00070000 	andeq	r0, r7, r0
    87e8:	00010d08 	andeq	r0, r1, r8, lsl #26
    87ec:	0007b200 	andeq	fp, r7, r0, lsl #4
    87f0:	00c70900 	sbceq	r0, r7, r0, lsl #18
    87f4:	00170000 	andseq	r0, r7, r0
    87f8:	7005f01a 	andvc	pc, r5, sl, lsl r0	; <UNPREDICTABLE>
    87fc:	0007d602 	andeq	sp, r7, r2, lsl #12
    8800:	029b1700 	addseq	r1, fp, #0, 14
    8804:	73050000 	movwvc	r0, #20480	; 0x5000
    8808:	0007d602 	andeq	sp, r7, r2, lsl #12
    880c:	9f170000 	svcls	0x00170000
    8810:	05000004 	streq	r0, [r0, #-4]
    8814:	07e60274 			; <UNDEFINED> instruction: 0x07e60274
    8818:	00780000 	rsbseq	r0, r8, r0
    881c:	0002d608 	andeq	sp, r2, r8, lsl #12
    8820:	0007e600 	andeq	lr, r7, r0, lsl #12
    8824:	00c70900 	sbceq	r0, r7, r0, lsl #18
    8828:	001d0000 	andseq	r0, sp, r0
    882c:	00002c08 	andeq	r2, r0, r8, lsl #24
    8830:	0007f600 	andeq	pc, r7, r0, lsl #12
    8834:	00c70900 	sbceq	r0, r7, r0, lsl #18
    8838:	001d0000 	andseq	r0, sp, r0
    883c:	5505f01b 	strpl	pc, [r5, #-27]	; 0xffffffe5
    8840:	00081802 	andeq	r1, r8, r2, lsl #16
    8844:	03851c00 	orreq	r1, r5, #0, 24
    8848:	6c050000 	stcvs	0, cr0, [r5], {-0}
    884c:	00068102 	andeq	r8, r6, r2, lsl #2
    8850:	04c21c00 	strbeq	r1, [r2], #3072	; 0xc00
    8854:	75050000 	strvc	r0, [r5, #-0]
    8858:	0007b202 	andeq	fp, r7, r2, lsl #4
    885c:	0d080000 	stceq	0, cr0, [r8, #-0]
    8860:	28000001 	stmdacs	r0, {r0}
    8864:	09000008 	stmdbeq	r0, {r3}
    8868:	000000c7 	andeq	r0, r0, r7, asr #1
    886c:	331d0018 	tstcc	sp, #24
    8870:	15000008 	strne	r0, [r0, #-8]
    8874:	00000424 	andeq	r0, r0, r4, lsr #8
    8878:	28040d00 	stmdacs	r4, {r8, sl, fp}
    887c:	0d000008 	stceq	0, cr0, [r0, #-32]	; 0xffffffe0
    8880:	00017704 	andeq	r7, r1, r4, lsl #14
    8884:	084a1d00 	stmdaeq	sl, {r8, sl, fp, ip}^
    8888:	25150000 	ldrcs	r0, [r5, #-0]
    888c:	00000000 	andeq	r0, r0, r0
    8890:	0850040d 	ldmdaeq	r0, {r0, r2, r3, sl}^
    8894:	040d0000 	streq	r0, [sp], #-0
    8898:	0000083f 	andeq	r0, r0, pc, lsr r8
    889c:	0005ef08 	andeq	lr, r5, r8, lsl #30
    88a0:	00086600 	andeq	r6, r8, r0, lsl #12
    88a4:	00c70900 	sbceq	r0, r7, r0, lsl #18
    88a8:	00020000 	andeq	r0, r2, r0
    88ac:	0004581e 	andeq	r5, r4, lr, lsl r8
    88b0:	02fd0500 	rscseq	r0, sp, #0, 10
    88b4:	00000424 	andeq	r0, r0, r4, lsr #8
    88b8:	0004511e 	andeq	r5, r4, lr, lsl r1
    88bc:	02fe0500 	rscseq	r0, lr, #0, 10
    88c0:	0000042a 	andeq	r0, r0, sl, lsr #8
    88c4:	00002514 	andeq	r2, r0, r4, lsl r5
    88c8:	00088d00 	andeq	r8, r8, r0, lsl #26
    88cc:	00251500 	eoreq	r1, r5, r0, lsl #10
    88d0:	1f000000 	svcne	0x00000000
    88d4:	000001bd 			; <UNDEFINED> instruction: 0x000001bd
    88d8:	08981d06 	ldmeq	r8, {r1, r2, r8, sl, fp, ip}
    88dc:	040d0000 	streq	r0, [sp], #-0
    88e0:	0000087e 	andeq	r0, r0, lr, ror r8
    88e4:	00002514 	andeq	r2, r0, r4, lsl r5
    88e8:	0008ad00 	andeq	sl, r8, r0, lsl #26
    88ec:	05851500 	streq	r1, [r5, #1280]	; 0x500
    88f0:	1f000000 	svcne	0x00000000
    88f4:	00000756 	andeq	r0, r0, r6, asr r7
    88f8:	08b82206 	ldmeq	r8!, {r1, r2, r9, sp}
    88fc:	040d0000 	streq	r0, [sp], #-0
    8900:	0000089e 	muleq	r0, lr, r8
    8904:	00089520 	andeq	r9, r8, r0, lsr #10
    8908:	202b0100 	eorcs	r0, fp, r0, lsl #2
    890c:	1400008f 	strne	r0, [r0], #-143	; 0xffffff71
    8910:	01000000 	mrseq	r0, (UNDEF: 0)
    8914:	0008f89c 	muleq	r8, ip, r8
    8918:	65732100 	ldrbvs	r2, [r3, #-256]!	; 0xffffff00
    891c:	2b010063 	blcs	48ab0 <__bss_end__+0x3f048>
    8920:	0000002c 	andeq	r0, r0, ip, lsr #32
    8924:	00000e96 	muleq	r0, r6, lr
    8928:	008f3022 	addeq	r3, pc, r2, lsr #32
    892c:	0008f800 	andeq	pc, r8, r0, lsl #16
    8930:	50012300 	andpl	r2, r1, r0, lsl #6
    8934:	5001f307 	andpl	pc, r1, r7, lsl #6
    8938:	1e03e80a 	cdpne	8, 0, cr14, cr3, cr10, {0}
    893c:	29200000 	stmdbcs	r0!, {}	; <UNPREDICTABLE>
    8940:	01000008 	tsteq	r0, r8
    8944:	008f0c28 	addeq	r0, pc, r8, lsr #24
    8948:	00001400 	andeq	r1, r0, r0, lsl #8
    894c:	319c0100 	orrscc	r0, ip, r0, lsl #2
    8950:	21000009 	tstcs	r0, r9
    8954:	0100736d 	tsteq	r0, sp, ror #6
    8958:	00002c28 	andeq	r2, r0, r8, lsr #24
    895c:	000eb700 	andeq	fp, lr, r0, lsl #14
    8960:	8f1c2200 	svchi	0x001c2200
    8964:	09310000 	ldmdbeq	r1!, {}	; <UNPREDICTABLE>
    8968:	01230000 			; <UNDEFINED> instruction: 0x01230000
    896c:	01f30750 	mvnseq	r0, r0, asr r7
    8970:	03e80a50 	mvneq	r0, #80, 20	; 0x50000
    8974:	2000001e 	andcs	r0, r0, lr, lsl r0
    8978:	000008dd 	ldrdeq	r0, [r0], -sp
    897c:	8ee81f01 	cdphi	15, 14, cr1, cr8, cr1, {0}
    8980:	00240000 	eoreq	r0, r4, r0
    8984:	9c010000 	stcls	0, cr0, [r1], {-0}
    8988:	0000098f 	andeq	r0, r0, pc, lsl #19
    898c:	00737521 	rsbseq	r7, r3, r1, lsr #10
    8990:	002c1f01 	eoreq	r1, ip, r1, lsl #30
    8994:	0ed80000 	cdpeq	0, 13, cr0, cr8, cr0, {0}
    8998:	72240000 	eorvc	r0, r4, #0
    899c:	20010062 	andcs	r0, r1, r2, rrx
    89a0:	0000002c 	andeq	r0, r0, ip, lsr #32
    89a4:	f8255401 			; <UNDEFINED> instruction: 0xf8255401
    89a8:	1000008e 	andne	r0, r0, lr, lsl #1
    89ac:	85000000 	strhi	r0, [r0, #-0]
    89b0:	26000009 	strcs	r0, [r0], -r9
    89b4:	01006172 	tsteq	r0, r2, ror r1
    89b8:	00002c22 	andeq	r2, r0, r2, lsr #24
    89bc:	000ef600 	andeq	pc, lr, r0, lsl #12
    89c0:	8efc2700 	cdphi	7, 15, cr2, cr12, cr0, {0}
    89c4:	098f0000 	stmibeq	pc, {}	; <UNPREDICTABLE>
    89c8:	27000000 	strcs	r0, [r0, -r0]
    89cc:	00008ef4 	strdeq	r8, [r0], -r4
    89d0:	0000098f 	andeq	r0, r0, pc, lsl #19
    89d4:	08862800 	stmeq	r6, {fp, sp}
    89d8:	16010000 	strne	r0, [r1], -r0
    89dc:	0000002c 	andeq	r0, r0, ip, lsr #32
    89e0:	00008edc 	ldrdeq	r8, [r0], -ip
    89e4:	0000000c 	andeq	r0, r0, ip
    89e8:	09bd9c01 	ldmibeq	sp!, {r0, sl, fp, ip, pc}
    89ec:	75240000 	strvc	r0, [r4, #-0]!
    89f0:	2c1a0100 	ldfcss	f0, [sl], {-0}
    89f4:	01000000 	mrseq	r0, (UNDEF: 0)
    89f8:	8ee42750 	mcrhi	7, 7, r2, cr4, cr0, {2}
    89fc:	09bd0000 	ldmibeq	sp!, {}	; <UNPREDICTABLE>
    8a00:	28000000 	stmdacs	r0, {}	; <UNPREDICTABLE>
    8a04:	000008ca 	andeq	r0, r0, sl, asr #17
    8a08:	002c1101 	eoreq	r1, ip, r1, lsl #2
    8a0c:	8ec80000 	cdphi	0, 12, cr0, cr8, cr0, {0}
    8a10:	00140000 	andseq	r0, r4, r0
    8a14:	9c010000 	stcls	0, cr0, [r1], {-0}
    8a18:	000009ea 	andeq	r0, r0, sl, ror #19
    8a1c:	008ed422 	addeq	sp, lr, r2, lsr #8
    8a20:	000a0f00 	andeq	r0, sl, r0, lsl #30
    8a24:	50012300 	andpl	r2, r1, r0, lsl #6
    8a28:	30040c05 	andcc	r0, r4, r5, lsl #24
    8a2c:	00002000 	andeq	r2, r0, r0
    8a30:	00089f20 	andeq	r9, r8, r0, lsr #30
    8a34:	ac050100 	stfges	f0, [r5], {-0}
    8a38:	1c00008e 	stcne	0, cr0, [r0], {142}	; 0x8e
    8a3c:	01000000 	mrseq	r0, (UNDEF: 0)
    8a40:	000a0f9c 	muleq	sl, ip, pc	; <UNPREDICTABLE>
    8a44:	08be2900 	ldmeq	lr!, {r8, fp, sp}
    8a48:	05010000 	streq	r0, [r1, #-0]
    8a4c:	0000002c 	andeq	r0, r0, ip, lsr #32
    8a50:	00000f09 	andeq	r0, r0, r9, lsl #30
    8a54:	08c42a00 	stmiaeq	r4, {r9, fp, sp}^
    8a58:	08c40000 	stmiaeq	r4, {}^	; <UNPREDICTABLE>
    8a5c:	a7060000 	strge	r0, [r6, -r0]
    8a60:	000cc500 	andeq	ip, ip, r0, lsl #10
    8a64:	0c000400 	cfstrseq	mvf0, [r0], {-0}
    8a68:	0400001b 	streq	r0, [r0], #-27	; 0xffffffe5
    8a6c:	0003bf01 	andeq	fp, r3, r1, lsl #30
    8a70:	09190c00 	ldmdbeq	r9, {sl, fp}
    8a74:	092c0000 	stmdbeq	ip!, {}	; <UNPREDICTABLE>
    8a78:	8f800000 	svchi	0x00800000
    8a7c:	01780000 	cmneq	r8, r0
    8a80:	0e340000 	cdpeq	0, 3, cr0, cr4, cr0, {0}
    8a84:	04020000 	streq	r0, [r2], #-0
    8a88:	746e6905 	strbtvc	r6, [lr], #-2309	; 0xfffff6fb
    8a8c:	07040300 	streq	r0, [r4, -r0, lsl #6]
    8a90:	00000066 	andeq	r0, r0, r6, rrx
    8a94:	00002c04 	andeq	r2, r0, r4, lsl #24
    8a98:	06010300 	streq	r0, [r1], -r0, lsl #6
    8a9c:	000002e3 	andeq	r0, r0, r3, ror #5
    8aa0:	fd050203 	stc2	2, cr0, [r5, #-12]
    8aa4:	03000002 	movweq	r0, #2
    8aa8:	00af0504 	adceq	r0, pc, r4, lsl #10
    8aac:	08030000 	stmdaeq	r3, {}	; <UNPREDICTABLE>
    8ab0:	0000aa05 	andeq	sl, r0, r5, lsl #20
    8ab4:	08010300 	stmdaeq	r1, {r8, r9}
    8ab8:	000002e1 	andeq	r0, r0, r1, ror #5
    8abc:	0e070203 	cdpeq	2, 0, cr0, cr7, cr3, {0}
    8ac0:	03000002 	movweq	r0, #2
    8ac4:	00610704 	rsbeq	r0, r1, r4, lsl #14
    8ac8:	08030000 	stmdaeq	r3, {}	; <UNPREDICTABLE>
    8acc:	00005c07 	andeq	r5, r0, r7, lsl #24
    8ad0:	02cf0500 	sbceq	r0, pc, #0, 10
    8ad4:	07020000 	streq	r0, [r2, -r0]
    8ad8:	00000025 	andeq	r0, r0, r5, lsr #32
    8adc:	0002be05 	andeq	fp, r2, r5, lsl #28
    8ae0:	462c0300 	strtmi	r0, [ip], -r0, lsl #6
    8ae4:	05000000 	streq	r0, [r0, #-0]
    8ae8:	000003a8 	andeq	r0, r0, r8, lsr #7
    8aec:	00467203 	subeq	r7, r6, r3, lsl #4
    8af0:	5f060000 	svcpl	0x00060000
    8af4:	04000002 	streq	r0, [r0], #-2
    8af8:	002c0165 	eoreq	r0, ip, r5, ror #2
    8afc:	04070000 	streq	r0, [r7], #-0
    8b00:	00bca603 	adcseq	sl, ip, r3, lsl #12
    8b04:	59080000 	stmdbpl	r8, {}	; <UNPREDICTABLE>
    8b08:	03000002 	movweq	r0, #2
    8b0c:	000091a8 	andeq	r9, r0, r8, lsr #3
    8b10:	01ce0800 	biceq	r0, lr, r0, lsl #16
    8b14:	a9030000 	stmdbge	r3, {}	; <UNPREDICTABLE>
    8b18:	000000bc 	strheq	r0, [r0], -ip
    8b1c:	00540900 	subseq	r0, r4, r0, lsl #18
    8b20:	00cc0000 	sbceq	r0, ip, r0
    8b24:	cc0a0000 	stcgt	0, cr0, [sl], {-0}
    8b28:	03000000 	movweq	r0, #0
    8b2c:	07040300 	streq	r0, [r4, -r0, lsl #6]
    8b30:	00000292 	muleq	r0, r2, r2
    8b34:	a303080b 	movwge	r0, #14347	; 0x380b
    8b38:	000000f4 	strdeq	r0, [r0], -r4
    8b3c:	0003920c 	andeq	r9, r3, ip, lsl #4
    8b40:	25a50300 	strcs	r0, [r5, #768]!	; 0x300
    8b44:	00000000 	andeq	r0, r0, r0
    8b48:	00039a0c 	andeq	r9, r3, ip, lsl #20
    8b4c:	9daa0300 	stcls	3, cr0, [sl]
    8b50:	04000000 	streq	r0, [r0], #-0
    8b54:	03250500 			; <UNDEFINED> instruction: 0x03250500
    8b58:	ab030000 	blge	c8b60 <__bss_end__+0xbf0f8>
    8b5c:	000000d3 	ldrdeq	r0, [r0], -r3
    8b60:	00018b05 	andeq	r8, r1, r5, lsl #22
    8b64:	70af0300 	adcvc	r0, pc, r0, lsl #6
    8b68:	0d000000 	stceq	0, cr0, [r0, #-0]
    8b6c:	12040e04 	andne	r0, r4, #4, 28	; 0x40
    8b70:	03000001 	movweq	r0, #1
    8b74:	02ea0801 	rsceq	r0, sl, #65536	; 0x10000
    8b78:	120f0000 	andne	r0, pc, #0
    8b7c:	05000001 	streq	r0, [r0, #-1]
    8b80:	0000043c 	andeq	r0, r0, ip, lsr r4
    8b84:	00621605 	rsbeq	r1, r2, r5, lsl #12
    8b88:	9c100000 	ldcls	0, cr0, [r0], {-0}
    8b8c:	18000001 	stmdane	r0, {r0}
    8b90:	017c2d05 	cmneq	ip, r5, lsl #26
    8b94:	460c0000 	strmi	r0, [ip], -r0
    8b98:	05000003 	streq	r0, [r0, #-3]
    8b9c:	00017c2f 	andeq	r7, r1, pc, lsr #24
    8ba0:	5f110000 	svcpl	0x00110000
    8ba4:	3005006b 	andcc	r0, r5, fp, rrx
    8ba8:	00000025 	andeq	r0, r0, r5, lsr #32
    8bac:	037d0c04 	cmneq	sp, #4, 24	; 0x400
    8bb0:	30050000 	andcc	r0, r5, r0
    8bb4:	00000025 	andeq	r0, r0, r5, lsr #32
    8bb8:	01850c08 	orreq	r0, r5, r8, lsl #24
    8bbc:	30050000 	andcc	r0, r5, r0
    8bc0:	00000025 	andeq	r0, r0, r5, lsr #32
    8bc4:	048a0c0c 	streq	r0, [sl], #3084	; 0xc0c
    8bc8:	30050000 	andcc	r0, r5, r0
    8bcc:	00000025 	andeq	r0, r0, r5, lsr #32
    8bd0:	785f1110 	ldmdavc	pc, {r4, r8, ip}^	; <UNPREDICTABLE>
    8bd4:	82310500 	eorshi	r0, r1, #0, 10
    8bd8:	14000001 	strne	r0, [r0], #-1
    8bdc:	29040e00 	stmdbcs	r4, {r9, sl, fp}
    8be0:	09000001 	stmdbeq	r0, {r0}
    8be4:	0000011e 	andeq	r0, r0, lr, lsl r1
    8be8:	00000192 	muleq	r0, r2, r1
    8bec:	0000cc0a 	andeq	ip, r0, sl, lsl #24
    8bf0:	10000000 	andne	r0, r0, r0
    8bf4:	000001c9 	andeq	r0, r0, r9, asr #3
    8bf8:	0b350524 	bleq	d4a090 <__bss_end__+0xd40628>
    8bfc:	0c000002 	stceq	0, cr0, [r0], {2}
    8c00:	000000a1 	andeq	r0, r0, r1, lsr #1
    8c04:	00253705 	eoreq	r3, r5, r5, lsl #14
    8c08:	0c000000 	stceq	0, cr0, [r0], {-0}
    8c0c:	000003b0 			; <UNDEFINED> instruction: 0x000003b0
    8c10:	00253805 	eoreq	r3, r5, r5, lsl #16
    8c14:	0c040000 	stceq	0, cr0, [r4], {-0}
    8c18:	000000c4 	andeq	r0, r0, r4, asr #1
    8c1c:	00253905 	eoreq	r3, r5, r5, lsl #18
    8c20:	0c080000 	stceq	0, cr0, [r8], {-0}
    8c24:	00000503 	andeq	r0, r0, r3, lsl #10
    8c28:	00253a05 	eoreq	r3, r5, r5, lsl #20
    8c2c:	0c0c0000 	stceq	0, cr0, [ip], {-0}
    8c30:	000002a2 	andeq	r0, r0, r2, lsr #5
    8c34:	00253b05 	eoreq	r3, r5, r5, lsl #22
    8c38:	0c100000 	ldceq	0, cr0, [r0], {-0}
    8c3c:	0000027b 	andeq	r0, r0, fp, ror r2
    8c40:	00253c05 	eoreq	r3, r5, r5, lsl #24
    8c44:	0c140000 	ldceq	0, cr0, [r4], {-0}
    8c48:	0000048f 	andeq	r0, r0, pc, lsl #9
    8c4c:	00253d05 	eoreq	r3, r5, r5, lsl #26
    8c50:	0c180000 	ldceq	0, cr0, [r8], {-0}
    8c54:	00000307 	andeq	r0, r0, r7, lsl #6
    8c58:	00253e05 	eoreq	r3, r5, r5, lsl #28
    8c5c:	0c1c0000 	ldceq	0, cr0, [ip], {-0}
    8c60:	000004ca 	andeq	r0, r0, sl, asr #9
    8c64:	00253f05 	eoreq	r3, r5, r5, lsl #30
    8c68:	00200000 	eoreq	r0, r0, r0
    8c6c:	00010412 	andeq	r0, r1, r2, lsl r4
    8c70:	05010800 	streq	r0, [r1, #-2048]	; 0xfffff800
    8c74:	00024b48 	andeq	r4, r2, r8, asr #22
    8c78:	01780c00 	cmneq	r8, r0, lsl #24
    8c7c:	49050000 	stmdbmi	r5, {}	; <UNPREDICTABLE>
    8c80:	0000024b 	andeq	r0, r0, fp, asr #4
    8c84:	00000c00 	andeq	r0, r0, r0, lsl #24
    8c88:	4a050000 	bmi	148c90 <__bss_end__+0x13f228>
    8c8c:	0000024b 	andeq	r0, r0, fp, asr #4
    8c90:	042e1380 	strteq	r1, [lr], #-896	; 0xfffffc80
    8c94:	4c050000 	stcmi	0, cr0, [r5], {-0}
    8c98:	0000011e 	andeq	r0, r0, lr, lsl r1
    8c9c:	29130100 	ldmdbcs	r3, {r8}
    8ca0:	05000001 	streq	r0, [r0, #-1]
    8ca4:	00011e4f 	andeq	r1, r1, pc, asr #28
    8ca8:	00010400 	andeq	r0, r1, r0, lsl #8
    8cac:	00010a09 	andeq	r0, r1, r9, lsl #20
    8cb0:	00025b00 	andeq	r5, r2, r0, lsl #22
    8cb4:	00cc0a00 	sbceq	r0, ip, r0, lsl #20
    8cb8:	001f0000 	andseq	r0, pc, r0
    8cbc:	0002ab12 	andeq	sl, r2, r2, lsl fp
    8cc0:	05019000 	streq	r9, [r1, #-0]
    8cc4:	0002995b 	andeq	r9, r2, fp, asr r9
    8cc8:	03460c00 	movteq	r0, #27648	; 0x6c00
    8ccc:	5c050000 	stcpl	0, cr0, [r5], {-0}
    8cd0:	00000299 	muleq	r0, r9, r2
    8cd4:	035e0c00 	cmpeq	lr, #0, 24
    8cd8:	5d050000 	stcpl	0, cr0, [r5, #-0]
    8cdc:	00000025 	andeq	r0, r0, r5, lsr #32
    8ce0:	01800c04 	orreq	r0, r0, r4, lsl #24
    8ce4:	5f050000 	svcpl	0x00050000
    8ce8:	0000029f 	muleq	r0, pc, r2	; <UNPREDICTABLE>
    8cec:	01040c08 	tsteq	r4, r8, lsl #24
    8cf0:	60050000 	andvs	r0, r5, r0
    8cf4:	0000020b 	andeq	r0, r0, fp, lsl #4
    8cf8:	040e0088 	streq	r0, [lr], #-136	; 0xffffff78
    8cfc:	0000025b 	andeq	r0, r0, fp, asr r2
    8d00:	0002af09 	andeq	sl, r2, r9, lsl #30
    8d04:	0002af00 	andeq	sl, r2, r0, lsl #30
    8d08:	00cc0a00 	sbceq	r0, ip, r0, lsl #20
    8d0c:	001f0000 	andseq	r0, pc, r0
    8d10:	02b5040e 	adcseq	r0, r5, #234881024	; 0xe000000
    8d14:	10140000 	andsne	r0, r4, r0
    8d18:	00000311 	andeq	r0, r0, r1, lsl r3
    8d1c:	db730508 	blle	1cca144 <__bss_end__+0x1cc06dc>
    8d20:	0c000002 	stceq	0, cr0, [r0], {2}
    8d24:	000000be 	strheq	r0, [r0], -lr
    8d28:	02db7405 	sbcseq	r7, fp, #83886080	; 0x5000000
    8d2c:	0c000000 	stceq	0, cr0, [r0], {-0}
    8d30:	0000001b 	andeq	r0, r0, fp, lsl r0
    8d34:	00257505 	eoreq	r7, r5, r5, lsl #10
    8d38:	00040000 	andeq	r0, r4, r0
    8d3c:	0054040e 	subseq	r0, r4, lr, lsl #8
    8d40:	30100000 	andscc	r0, r0, r0
    8d44:	68000003 	stmdavs	r0, {r0, r1}
    8d48:	040bb305 	streq	fp, [fp], #-773	; 0xfffffcfb
    8d4c:	5f110000 	svcpl	0x00110000
    8d50:	b4050070 	strlt	r0, [r5], #-112	; 0xffffff90
    8d54:	000002db 	ldrdeq	r0, [r0], -fp
    8d58:	725f1100 	subsvc	r1, pc, #0, 2
    8d5c:	25b50500 	ldrcs	r0, [r5, #1280]!	; 0x500
    8d60:	04000000 	streq	r0, [r0], #-0
    8d64:	00775f11 	rsbseq	r5, r7, r1, lsl pc
    8d68:	0025b605 	eoreq	fp, r5, r5, lsl #12
    8d6c:	0c080000 	stceq	0, cr0, [r8], {-0}
    8d70:	00000122 	andeq	r0, r0, r2, lsr #2
    8d74:	003fb705 	eorseq	fp, pc, r5, lsl #14
    8d78:	0c0c0000 	stceq	0, cr0, [ip], {-0}
    8d7c:	000001f4 	strdeq	r0, [r0], -r4
    8d80:	003fb805 	eorseq	fp, pc, r5, lsl #16
    8d84:	110e0000 	mrsne	r0, (UNDEF: 14)
    8d88:	0066625f 	rsbeq	r6, r6, pc, asr r2
    8d8c:	02b6b905 	adcseq	fp, r6, #81920	; 0x14000
    8d90:	0c100000 	ldceq	0, cr0, [r0], {-0}
    8d94:	0000007b 	andeq	r0, r0, fp, ror r0
    8d98:	0025ba05 	eoreq	fp, r5, r5, lsl #20
    8d9c:	0c180000 	ldceq	0, cr0, [r8], {-0}
    8da0:	00000112 	andeq	r0, r0, r2, lsl r1
    8da4:	010ac105 	tsteq	sl, r5, lsl #2
    8da8:	0c1c0000 	ldceq	0, cr0, [ip], {-0}
    8dac:	00000a5e 	andeq	r0, r0, lr, asr sl
    8db0:	0566c305 	strbeq	ip, [r6, #-773]!	; 0xfffffcfb
    8db4:	0c200000 	stceq	0, cr0, [r0], #-0
    8db8:	00000a78 	andeq	r0, r0, r8, ror sl
    8dbc:	0590c505 	ldreq	ip, [r0, #1285]	; 0x505
    8dc0:	0c240000 	stceq	0, cr0, [r4], #-0
    8dc4:	000003a2 	andeq	r0, r0, r2, lsr #7
    8dc8:	05b4c805 	ldreq	ip, [r4, #2053]!	; 0x805
    8dcc:	0c280000 	stceq	0, cr0, [r8], #-0
    8dd0:	000004e4 	andeq	r0, r0, r4, ror #9
    8dd4:	05cec905 	strbeq	ip, [lr, #2309]	; 0x905
    8dd8:	112c0000 			; <UNDEFINED> instruction: 0x112c0000
    8ddc:	0062755f 	rsbeq	r7, r2, pc, asr r5
    8de0:	02b6cc05 	adcseq	ip, r6, #1280	; 0x500
    8de4:	11300000 	teqne	r0, r0
    8de8:	0070755f 	rsbseq	r7, r0, pc, asr r5
    8dec:	02dbcd05 	sbcseq	ip, fp, #320	; 0x140
    8df0:	11380000 	teqne	r8, r0
    8df4:	0072755f 	rsbseq	r7, r2, pc, asr r5
    8df8:	0025ce05 	eoreq	ip, r5, r5, lsl #28
    8dfc:	0c3c0000 	ldceq	0, cr0, [ip], #-0
    8e00:	000000b8 	strheq	r0, [r0], -r8
    8e04:	05d4d105 	ldrbeq	sp, [r4, #261]	; 0x105
    8e08:	0c400000 	mareq	acc0, r0, r0
    8e0c:	000004bc 			; <UNDEFINED> instruction: 0x000004bc
    8e10:	05e4d205 	strbeq	sp, [r4, #517]!	; 0x205
    8e14:	11430000 	mrsne	r0, (UNDEF: 67)
    8e18:	00626c5f 	rsbeq	r6, r2, pc, asr ip
    8e1c:	02b6d505 	adcseq	sp, r6, #20971520	; 0x1400000
    8e20:	0c440000 	mareq	acc0, r0, r4
    8e24:	00000140 	andeq	r0, r0, r0, asr #2
    8e28:	0025d805 	eoreq	sp, r5, r5, lsl #16
    8e2c:	0c4c0000 	mareq	acc0, r0, ip
    8e30:	00000151 	andeq	r0, r0, r1, asr r1
    8e34:	007bd905 	rsbseq	sp, fp, r5, lsl #18
    8e38:	0c500000 	mraeq	r0, r0, acc0
    8e3c:	000009ff 	strdeq	r0, [r0], -pc	; <UNPREDICTABLE>
    8e40:	0429dc05 	strteq	sp, [r9], #-3077	; 0xfffff3fb
    8e44:	0c540000 	mraeq	r0, r4, acc0
    8e48:	0000026d 	andeq	r0, r0, sp, ror #4
    8e4c:	00ffe005 	rscseq	lr, pc, r5
    8e50:	0c580000 	mraeq	r0, r8, acc0
    8e54:	00000338 	andeq	r0, r0, r8, lsr r3
    8e58:	00f4e205 	rscseq	lr, r4, r5, lsl #4
    8e5c:	0c5c0000 	mraeq	r0, ip, acc0
    8e60:	00000273 	andeq	r0, r0, r3, ror r2
    8e64:	0025e305 	eoreq	lr, r5, r5, lsl #6
    8e68:	00640000 	rsbeq	r0, r4, r0
    8e6c:	00002515 	andeq	r2, r0, r5, lsl r5
    8e70:	00042900 	andeq	r2, r4, r0, lsl #18
    8e74:	04291600 	strteq	r1, [r9], #-1536	; 0xfffffa00
    8e78:	0a160000 	beq	588e80 <__bss_end__+0x57f418>
    8e7c:	16000001 	strne	r0, [r0], -r1
    8e80:	0000010c 	andeq	r0, r0, ip, lsl #2
    8e84:	00002516 	andeq	r2, r0, r6, lsl r5
    8e88:	040e0000 	streq	r0, [lr], #-0
    8e8c:	00000434 	andeq	r0, r0, r4, lsr r4
    8e90:	0004290f 	andeq	r2, r4, pc, lsl #18
    8e94:	03851700 	orreq	r1, r5, #0, 14
    8e98:	04280000 	strteq	r0, [r8], #-0
    8e9c:	66023805 	strvs	r3, [r2], -r5, lsl #16
    8ea0:	18000005 	stmdane	r0, {r0, r2}
    8ea4:	000002f6 	strdeq	r0, [r0], -r6
    8ea8:	25023a05 	strcs	r3, [r2, #-2565]	; 0xfffff5fb
    8eac:	00000000 	andeq	r0, r0, r0
    8eb0:	00013118 	andeq	r3, r1, r8, lsl r1
    8eb4:	023f0500 	eorseq	r0, pc, #0, 10
    8eb8:	0000063b 	andeq	r0, r0, fp, lsr r6
    8ebc:	01e41804 	mvneq	r1, r4, lsl #16
    8ec0:	3f050000 	svccc	0x00050000
    8ec4:	00063b02 	andeq	r3, r6, r2, lsl #22
    8ec8:	94180800 	ldrls	r0, [r8], #-2048	; 0xfffff800
    8ecc:	05000001 	streq	r0, [r0, #-1]
    8ed0:	063b023f 			; <UNDEFINED> instruction: 0x063b023f
    8ed4:	180c0000 	stmdane	ip, {}	; <UNPREDICTABLE>
    8ed8:	00000359 	andeq	r0, r0, r9, asr r3
    8edc:	25024105 	strcs	r4, [r2, #-261]	; 0xfffffefb
    8ee0:	10000000 	andne	r0, r0, r0
    8ee4:	00002918 	andeq	r2, r0, r8, lsl r9
    8ee8:	02420500 	subeq	r0, r2, #0, 10
    8eec:	0000081d 	andeq	r0, r0, sp, lsl r8
    8ef0:	04641814 	strbteq	r1, [r4], #-2068	; 0xfffff7ec
    8ef4:	44050000 	strmi	r0, [r5], #-0
    8ef8:	00002502 	andeq	r2, r0, r2, lsl #10
    8efc:	63183000 	tstvs	r8, #0
    8f00:	05000003 	streq	r0, [r0, #-3]
    8f04:	058a0245 	streq	r0, [sl, #581]	; 0x245
    8f08:	18340000 	ldmdane	r4!, {}	; <UNPREDICTABLE>
    8f0c:	000002b3 			; <UNDEFINED> instruction: 0x000002b3
    8f10:	25024705 	strcs	r4, [r2, #-1797]	; 0xfffff8fb
    8f14:	38000000 	stmdacc	r0, {}	; <UNPREDICTABLE>
    8f18:	00037318 	andeq	r7, r3, r8, lsl r3
    8f1c:	02490500 	subeq	r0, r9, #0, 10
    8f20:	00000838 	andeq	r0, r0, r8, lsr r8
    8f24:	0251183c 	subseq	r1, r1, #60, 16	; 0x3c0000
    8f28:	4c050000 	stcmi	0, cr0, [r5], {-0}
    8f2c:	00017c02 	andeq	r7, r1, r2, lsl #24
    8f30:	b3184000 	tstlt	r8, #0
    8f34:	05000001 	streq	r0, [r0, #-1]
    8f38:	0025024d 	eoreq	r0, r5, sp, asr #4
    8f3c:	18440000 	stmdane	r4, {}^	; <UNPREDICTABLE>
    8f40:	000004fe 	strdeq	r0, [r0], -lr
    8f44:	7c024e05 	stcvc	14, cr4, [r2], {5}
    8f48:	48000001 	stmdami	r0, {r0}
    8f4c:	0002c518 	andeq	ip, r2, r8, lsl r5
    8f50:	024f0500 	subeq	r0, pc, #0, 10
    8f54:	0000083e 	andeq	r0, r0, lr, lsr r8
    8f58:	01ec184c 	mvneq	r1, ip, asr #16
    8f5c:	52050000 	andpl	r0, r5, #0
    8f60:	00002502 	andeq	r2, r0, r2, lsl #10
    8f64:	49185000 	ldmdbmi	r8, {ip, lr}
    8f68:	05000001 	streq	r0, [r0, #-1]
    8f6c:	010c0253 	tsteq	ip, r3, asr r2
    8f70:	18540000 	ldmdane	r4, {}^	; <UNPREDICTABLE>
    8f74:	000002ef 	andeq	r0, r0, pc, ror #5
    8f78:	fb027605 	blx	a6796 <__bss_end__+0x9cd2e>
    8f7c:	58000007 	stmdapl	r0, {r0, r1, r2}
    8f80:	0002ab19 	andeq	sl, r2, r9, lsl fp
    8f84:	027a0500 	rsbseq	r0, sl, #0, 10
    8f88:	00000299 	muleq	r0, r9, r2
    8f8c:	2f190148 	svccs	0x00190148
    8f90:	05000002 	streq	r0, [r0, #-2]
    8f94:	025b027b 	subseq	r0, fp, #-1342177273	; 0xb0000007
    8f98:	014c0000 	mrseq	r0, (UNDEF: 76)
    8f9c:	0004b219 	andeq	fp, r4, r9, lsl r2
    8fa0:	027f0500 	rsbseq	r0, pc, #0, 10
    8fa4:	0000084f 	andeq	r0, r0, pc, asr #16
    8fa8:	1a1902dc 	bne	649b20 <__bss_end__+0x6400b8>
    8fac:	05000001 	streq	r0, [r0, #-1]
    8fb0:	06000284 	streq	r0, [r0], -r4, lsl #5
    8fb4:	02e00000 	rsceq	r0, r0, #0
    8fb8:	0000ff19 	andeq	pc, r0, r9, lsl pc	; <UNPREDICTABLE>
    8fbc:	02850500 	addeq	r0, r5, #0, 10
    8fc0:	0000085b 	andeq	r0, r0, fp, asr r8
    8fc4:	0e0002ec 	cdpeq	2, 0, cr0, cr0, cr12, {7}
    8fc8:	00040b04 	andeq	r0, r4, r4, lsl #22
    8fcc:	00251500 	eoreq	r1, r5, r0, lsl #10
    8fd0:	058a0000 	streq	r0, [sl]
    8fd4:	29160000 	ldmdbcs	r6, {}	; <UNPREDICTABLE>
    8fd8:	16000004 	strne	r0, [r0], -r4
    8fdc:	0000010a 	andeq	r0, r0, sl, lsl #2
    8fe0:	00058a16 	andeq	r8, r5, r6, lsl sl
    8fe4:	00251600 	eoreq	r1, r5, r0, lsl #12
    8fe8:	0e000000 	cdpeq	0, 0, cr0, cr0, cr0, {0}
    8fec:	00011904 	andeq	r1, r1, r4, lsl #18
    8ff0:	6c040e00 	stcvs	14, cr0, [r4], {-0}
    8ff4:	15000005 	strne	r0, [r0, #-5]
    8ff8:	00000086 	andeq	r0, r0, r6, lsl #1
    8ffc:	000005b4 			; <UNDEFINED> instruction: 0x000005b4
    9000:	00042916 	andeq	r2, r4, r6, lsl r9
    9004:	010a1600 	tsteq	sl, r0, lsl #12
    9008:	86160000 	ldrhi	r0, [r6], -r0
    900c:	16000000 	strne	r0, [r0], -r0
    9010:	00000025 	andeq	r0, r0, r5, lsr #32
    9014:	96040e00 	strls	r0, [r4], -r0, lsl #28
    9018:	15000005 	strne	r0, [r0, #-5]
    901c:	00000025 	andeq	r0, r0, r5, lsr #32
    9020:	000005ce 	andeq	r0, r0, lr, asr #11
    9024:	00042916 	andeq	r2, r4, r6, lsl r9
    9028:	010a1600 	tsteq	sl, r0, lsl #12
    902c:	0e000000 	cdpeq	0, 0, cr0, cr0, cr0, {0}
    9030:	0005ba04 	andeq	fp, r5, r4, lsl #20
    9034:	00540900 	subseq	r0, r4, r0, lsl #18
    9038:	05e40000 	strbeq	r0, [r4, #0]!
    903c:	cc0a0000 	stcgt	0, cr0, [sl], {-0}
    9040:	02000000 	andeq	r0, r0, #0
    9044:	00540900 	subseq	r0, r4, r0, lsl #18
    9048:	05f40000 	ldrbeq	r0, [r4, #0]!
    904c:	cc0a0000 	stcgt	0, cr0, [sl], {-0}
    9050:	00000000 	andeq	r0, r0, r0
    9054:	031e0600 	tsteq	lr, #0, 12
    9058:	1d050000 	stcne	0, cr0, [r5, #-0]
    905c:	0002e101 	andeq	lr, r2, r1, lsl #2
    9060:	04991a00 	ldreq	r1, [r9], #2560	; 0xa00
    9064:	050c0000 	streq	r0, [ip, #-0]
    9068:	06350121 	ldrteq	r0, [r5], -r1, lsr #2
    906c:	46180000 	ldrmi	r0, [r8], -r0
    9070:	05000003 	streq	r0, [r0, #-3]
    9074:	06350123 	ldrteq	r0, [r5], -r3, lsr #2
    9078:	18000000 	stmdane	r0, {}	; <UNPREDICTABLE>
    907c:	00000207 	andeq	r0, r0, r7, lsl #4
    9080:	25012405 	strcs	r2, [r1, #-1029]	; 0xfffffbfb
    9084:	04000000 	streq	r0, [r0], #-0
    9088:	00031818 	andeq	r1, r3, r8, lsl r8
    908c:	01250500 			; <UNDEFINED> instruction: 0x01250500
    9090:	0000063b 	andeq	r0, r0, fp, lsr r6
    9094:	040e0008 	streq	r0, [lr], #-8
    9098:	00000600 	andeq	r0, r0, r0, lsl #12
    909c:	05f4040e 	ldrbeq	r0, [r4, #1038]!	; 0x40e
    90a0:	211a0000 	tstcs	sl, r0
    90a4:	0e000000 	cdpeq	0, 0, cr0, cr0, cr0, {0}
    90a8:	76013d05 	strvc	r3, [r1], -r5, lsl #26
    90ac:	18000006 	stmdane	r0, {r1, r2}
    90b0:	0000038c 	andeq	r0, r0, ip, lsl #7
    90b4:	76013e05 	strvc	r3, [r1], -r5, lsl #28
    90b8:	00000006 	andeq	r0, r0, r6
    90bc:	0003b918 	andeq	fp, r3, r8, lsl r9
    90c0:	013f0500 	teqeq	pc, r0, lsl #10
    90c4:	00000676 	andeq	r0, r0, r6, ror r6
    90c8:	04371806 	ldrteq	r1, [r7], #-2054	; 0xfffff7fa
    90cc:	40050000 	andmi	r0, r5, r0
    90d0:	00005b01 	andeq	r5, r0, r1, lsl #22
    90d4:	09000c00 	stmdbeq	r0, {sl, fp}
    90d8:	0000005b 	andeq	r0, r0, fp, asr r0
    90dc:	00000686 	andeq	r0, r0, r6, lsl #13
    90e0:	0000cc0a 	andeq	ip, r0, sl, lsl #24
    90e4:	1b000200 	blne	98ec <buf.4229+0x284>
    90e8:	025705d0 	subseq	r0, r7, #208, 10	; 0x34000000
    90ec:	00000787 	andeq	r0, r0, r7, lsl #15
    90f0:	00047d18 	andeq	r7, r4, r8, lsl sp
    90f4:	02590500 	subseq	r0, r9, #0, 10
    90f8:	0000002c 	andeq	r0, r0, ip, lsr #32
    90fc:	04211800 	strteq	r1, [r1], #-2048	; 0xfffff800
    9100:	5a050000 	bpl	149108 <__bss_end__+0x13f6a0>
    9104:	00010c02 	andeq	r0, r1, r2, lsl #24
    9108:	44180400 	ldrmi	r0, [r8], #-1024	; 0xfffffc00
    910c:	05000002 	streq	r0, [r0, #-2]
    9110:	0787025b 			; <UNDEFINED> instruction: 0x0787025b
    9114:	18080000 	stmdane	r8, {}	; <UNPREDICTABLE>
    9118:	000004d5 	ldrdeq	r0, [r0], -r5
    911c:	92025c05 	andls	r5, r2, #1280	; 0x500
    9120:	24000001 	strcs	r0, [r0], #-1
    9124:	0001a418 	andeq	sl, r1, r8, lsl r4
    9128:	025d0500 	subseq	r0, sp, #0, 10
    912c:	00000025 	andeq	r0, r0, r5, lsr #32
    9130:	03411848 	movteq	r1, #6216	; 0x1848
    9134:	5e050000 	cdppl	0, 0, cr0, cr5, cr0, {0}
    9138:	00006902 	andeq	r6, r0, r2, lsl #18
    913c:	eb185000 	bl	61d144 <__bss_end__+0x6136dc>
    9140:	05000004 	streq	r0, [r0, #-4]
    9144:	0641025f 			; <UNDEFINED> instruction: 0x0641025f
    9148:	18580000 	ldmdane	r8, {}^	; <UNPREDICTABLE>
    914c:	0000034c 	andeq	r0, r0, ip, asr #6
    9150:	f4026005 	vst4.8	{d6-d9}, [r2], r5
    9154:	68000000 	stmdavs	r0, {}	; <UNPREDICTABLE>
    9158:	0004f018 	andeq	pc, r4, r8, lsl r0	; <UNPREDICTABLE>
    915c:	02610500 	rsbeq	r0, r1, #0, 10
    9160:	000000f4 	strdeq	r0, [r0], -r4
    9164:	00931870 	addseq	r1, r3, r0, ror r8
    9168:	62050000 	andvs	r0, r5, #0
    916c:	0000f402 	andeq	pc, r0, r2, lsl #8
    9170:	a8187800 	ldmdage	r8, {fp, ip, sp, lr}
    9174:	05000004 	streq	r0, [r0, #-4]
    9178:	07970263 	ldreq	r0, [r7, r3, ror #4]
    917c:	18800000 	stmne	r0, {}	; <UNPREDICTABLE>
    9180:	00000238 	andeq	r0, r0, r8, lsr r2
    9184:	a7026405 	strge	r6, [r2, -r5, lsl #8]
    9188:	88000007 	stmdahi	r0, {r0, r1, r2}
    918c:	00044418 	andeq	r4, r4, r8, lsl r4
    9190:	02650500 	rsbeq	r0, r5, #0, 10
    9194:	00000025 	andeq	r0, r0, r5, lsr #32
    9198:	016a18a0 	cmneq	sl, r0, lsr #17
    919c:	66050000 	strvs	r0, [r5], -r0
    91a0:	0000f402 	andeq	pc, r0, r2, lsl #8
    91a4:	8418a400 	ldrhi	sl, [r8], #-1024	; 0xfffffc00
    91a8:	05000000 	streq	r0, [r0, #-0]
    91ac:	00f40267 	rscseq	r0, r4, r7, ror #4
    91b0:	18ac0000 	stmiane	ip!, {}	; <UNPREDICTABLE>
    91b4:	00000159 	andeq	r0, r0, r9, asr r1
    91b8:	f4026805 	vst2.8	{d6-d7}, [r2], r5
    91bc:	b4000000 	strlt	r0, [r0], #-0
    91c0:	00003c18 	andeq	r3, r0, r8, lsl ip
    91c4:	02690500 	rsbeq	r0, r9, #0, 10
    91c8:	000000f4 	strdeq	r0, [r0], -r4
    91cc:	004b18bc 	strheq	r1, [fp], #-140	; 0xffffff74
    91d0:	6a050000 	bvs	1491d8 <__bss_end__+0x13f770>
    91d4:	0000f402 	andeq	pc, r0, r2, lsl #8
    91d8:	f418c400 			; <UNDEFINED> instruction: 0xf418c400
    91dc:	05000002 	streq	r0, [r0, #-2]
    91e0:	0025026b 	eoreq	r0, r5, fp, ror #4
    91e4:	00cc0000 	sbceq	r0, ip, r0
    91e8:	00011209 	andeq	r1, r1, r9, lsl #4
    91ec:	00079700 	andeq	r9, r7, r0, lsl #14
    91f0:	00cc0a00 	sbceq	r0, ip, r0, lsl #20
    91f4:	00190000 	andseq	r0, r9, r0
    91f8:	00011209 	andeq	r1, r1, r9, lsl #4
    91fc:	0007a700 	andeq	sl, r7, r0, lsl #14
    9200:	00cc0a00 	sbceq	r0, ip, r0, lsl #20
    9204:	00070000 	andeq	r0, r7, r0
    9208:	00011209 	andeq	r1, r1, r9, lsl #4
    920c:	0007b700 	andeq	fp, r7, r0, lsl #14
    9210:	00cc0a00 	sbceq	r0, ip, r0, lsl #20
    9214:	00170000 	andseq	r0, r7, r0
    9218:	7005f01b 	andvc	pc, r5, fp, lsl r0	; <UNPREDICTABLE>
    921c:	0007db02 	andeq	sp, r7, r2, lsl #22
    9220:	029b1800 	addseq	r1, fp, #0, 16
    9224:	73050000 	movwvc	r0, #20480	; 0x5000
    9228:	0007db02 	andeq	sp, r7, r2, lsl #22
    922c:	9f180000 	svcls	0x00180000
    9230:	05000004 	streq	r0, [r0, #-4]
    9234:	07eb0274 			; <UNDEFINED> instruction: 0x07eb0274
    9238:	00780000 	rsbseq	r0, r8, r0
    923c:	0002db09 	andeq	sp, r2, r9, lsl #22
    9240:	0007eb00 	andeq	lr, r7, r0, lsl #22
    9244:	00cc0a00 	sbceq	r0, ip, r0, lsl #20
    9248:	001d0000 	andseq	r0, sp, r0
    924c:	00002c09 	andeq	r2, r0, r9, lsl #24
    9250:	0007fb00 	andeq	pc, r7, r0, lsl #22
    9254:	00cc0a00 	sbceq	r0, ip, r0, lsl #20
    9258:	001d0000 	andseq	r0, sp, r0
    925c:	5505f01c 	strpl	pc, [r5, #-28]	; 0xffffffe4
    9260:	00081d02 	andeq	r1, r8, r2, lsl #26
    9264:	03851d00 	orreq	r1, r5, #0, 26
    9268:	6c050000 	stcvs	0, cr0, [r5], {-0}
    926c:	00068602 	andeq	r8, r6, r2, lsl #12
    9270:	04c21d00 	strbeq	r1, [r2], #3328	; 0xd00
    9274:	75050000 	strvc	r0, [r5, #-0]
    9278:	0007b702 	andeq	fp, r7, r2, lsl #14
    927c:	12090000 	andne	r0, r9, #0
    9280:	2d000001 	stccs	0, cr0, [r0, #-4]
    9284:	0a000008 	beq	92ac <__FUNCTION__.4264+0x74>
    9288:	000000cc 	andeq	r0, r0, ip, asr #1
    928c:	381e0018 	ldmdacc	lr, {r3, r4}
    9290:	16000008 	strne	r0, [r0], -r8
    9294:	00000429 	andeq	r0, r0, r9, lsr #8
    9298:	2d040e00 	stccs	14, cr0, [r4, #-0]
    929c:	0e000008 	cdpeq	0, 0, cr0, cr0, cr8, {0}
    92a0:	00017c04 	andeq	r7, r1, r4, lsl #24
    92a4:	084f1e00 	stmdaeq	pc, {r9, sl, fp, ip}^	; <UNPREDICTABLE>
    92a8:	25160000 	ldrcs	r0, [r6, #-0]
    92ac:	00000000 	andeq	r0, r0, r0
    92b0:	0855040e 	ldmdaeq	r5, {r1, r2, r3, sl}^
    92b4:	040e0000 	streq	r0, [lr], #-0
    92b8:	00000844 	andeq	r0, r0, r4, asr #16
    92bc:	0005f409 	andeq	pc, r5, r9, lsl #8
    92c0:	00086b00 	andeq	r6, r8, r0, lsl #22
    92c4:	00cc0a00 	sbceq	r0, ip, r0, lsl #20
    92c8:	00020000 	andeq	r0, r2, r0
    92cc:	0004581f 	andeq	r5, r4, pc, lsl r8
    92d0:	02fd0500 	rscseq	r0, sp, #0, 10
    92d4:	00000429 	andeq	r0, r0, r9, lsr #8
    92d8:	0004511f 	andeq	r5, r4, pc, lsl r1
    92dc:	02fe0500 	rscseq	r0, lr, #0, 10
    92e0:	0000042f 	andeq	r0, r0, pc, lsr #8
    92e4:	00002515 	andeq	r2, r0, r5, lsl r5
    92e8:	00089200 	andeq	r9, r8, r0, lsl #4
    92ec:	00251600 	eoreq	r1, r5, r0, lsl #12
    92f0:	20000000 	andcs	r0, r0, r0
    92f4:	000001bd 			; <UNDEFINED> instruction: 0x000001bd
    92f8:	089d1d06 	ldmeq	sp, {r1, r2, r8, sl, fp, ip}
    92fc:	040e0000 	streq	r0, [lr], #-0
    9300:	00000883 	andeq	r0, r0, r3, lsl #17
    9304:	00002515 	andeq	r2, r0, r5, lsl r5
    9308:	0008b200 	andeq	fp, r8, r0, lsl #4
    930c:	058a1600 	streq	r1, [sl, #1536]	; 0x600
    9310:	20000000 	andcs	r0, r0, r0
    9314:	00000756 	andeq	r0, r0, r6, asr r7
    9318:	08bd2206 	popeq	{r1, r2, r9, sp}
    931c:	040e0000 	streq	r0, [lr], #-0
    9320:	000008a3 	andeq	r0, r0, r3, lsr #17
    9324:	00540121 	subseq	r0, r4, r1, lsr #2
    9328:	0c080000 	stceq	0, cr0, [r8], {-0}
    932c:	00000900 	andeq	r0, r0, r0, lsl #18
    9330:	0008f022 	andeq	pc, r8, r2, lsr #32
    9334:	ca220000 	bgt	88933c <__bss_end__+0x87f8d4>
    9338:	01000009 	tsteq	r0, r9
    933c:	000a0522 	andeq	r0, sl, r2, lsr #10
    9340:	05220400 	streq	r0, [r2, #-1024]!	; 0xfffffc00
    9344:	05000009 	streq	r0, [r0, #-9]
    9348:	00099122 	andeq	r9, r9, r2, lsr #2
    934c:	14220600 	strtne	r0, [r2], #-1536	; 0xfffffa00
    9350:	0700000a 	streq	r0, [r0, -sl]
    9354:	000a2322 	andeq	r2, sl, r2, lsr #6
    9358:	32220300 	eorcc	r0, r2, #0, 6
    935c:	0200000a 	andeq	r0, r0, #10
    9360:	09201000 	stmdbeq	r0!, {ip}
    9364:	072c0000 	streq	r0, [ip, -r0]!
    9368:	00099006 	andeq	r9, r9, r6
    936c:	6f691100 	svcvs	0x00691100
    9370:	33090700 	movwcc	r0, #38656	; 0x9700
    9374:	00000000 	andeq	r0, r0, r0
    9378:	72656911 	rsbvc	r6, r5, #278528	; 0x44000
    937c:	330a0700 	movwcc	r0, #42752	; 0xa700
    9380:	04000000 	streq	r0, [r0], #-0
    9384:	72696911 	rsbvc	r6, r9, #278528	; 0x44000
    9388:	33110700 	tstcc	r1, #0, 14
    938c:	08000000 	stmdaeq	r0, {}	; <UNPREDICTABLE>
    9390:	72636c11 	rsbvc	r6, r3, #4352	; 0x1100
    9394:	33130700 	tstcc	r3, #0, 14
    9398:	0c000000 	stceq	0, cr0, [r0], {-0}
    939c:	72636d11 	rsbvc	r6, r3, #1088	; 0x440
    93a0:	33140700 	tstcc	r4, #0, 14
    93a4:	10000000 	andne	r0, r0, r0
    93a8:	72736c11 	rsbsvc	r6, r3, #4352	; 0x1100
    93ac:	33150700 	tstcc	r5, #0, 14
    93b0:	14000000 	strne	r0, [r0], #-0
    93b4:	72736d11 	rsbsvc	r6, r3, #1088	; 0x440
    93b8:	33160700 	tstcc	r6, #0, 14
    93bc:	18000000 	stmdane	r0, {}	; <UNPREDICTABLE>
    93c0:	0009bc0c 	andeq	fp, r9, ip, lsl #24
    93c4:	33170700 	tstcc	r7, #0, 14
    93c8:	1c000000 	stcne	0, cr0, [r0], {-0}
    93cc:	0009140c 	andeq	r1, r9, ip, lsl #8
    93d0:	331b0700 	tstcc	fp, #0, 14
    93d4:	20000000 	andcs	r0, r0, r0
    93d8:	0009000c 	andeq	r0, r9, ip
    93dc:	331d0700 	tstcc	sp, #0, 14
    93e0:	24000000 	strcs	r0, [r0], #-0
    93e4:	0009b70c 	andeq	fp, r9, ip, lsl #14
    93e8:	331e0700 	tstcc	lr, #0, 14
    93ec:	28000000 	stmdacs	r0, {}	; <UNPREDICTABLE>
    93f0:	09612300 	stmdbeq	r1!, {r8, r9, sp}^
    93f4:	07010000 	streq	r0, [r1, -r0]
    93f8:	000009a5 	andeq	r0, r0, r5, lsr #19
    93fc:	20215004 	eorcs	r5, r1, r4
    9400:	0033040e 	eorseq	r0, r3, lr, lsl #8
    9404:	9f0f0000 	svcls	0x000f0000
    9408:	23000009 	movwcs	r0, #9
    940c:	000009b2 			; <UNDEFINED> instruction: 0x000009b2
    9410:	09bf2801 	ldmibeq	pc!, {r0, fp, sp}	; <UNPREDICTABLE>
    9414:	50400000 	subpl	r0, r0, r0
    9418:	040e2021 	streq	r2, [lr], #-33	; 0xffffffdf
    941c:	00000900 	andeq	r0, r0, r0, lsl #18
    9420:	0009b90f 	andeq	fp, r9, pc, lsl #18
    9424:	09f72400 	ldmibeq	r7!, {sl, sp}^
    9428:	a7010000 	strge	r0, [r1, -r0]
    942c:	00000025 	andeq	r0, r0, r5, lsr #32
    9430:	000090e8 	andeq	r9, r0, r8, ror #1
    9434:	00000010 	andeq	r0, r0, r0, lsl r0
    9438:	09f09c01 	ldmibeq	r0!, {r0, sl, fp, ip, pc}^
    943c:	f0250000 			; <UNDEFINED> instruction: 0xf0250000
    9440:	9c000090 	stcls	0, cr0, [r0], {144}	; 0x90
    9444:	2500000c 	strcs	r0, [r0, #-12]
    9448:	000090f4 	strdeq	r9, [r0], -r4
    944c:	00000ad2 	ldrdeq	r0, [r0], -r2
    9450:	07742600 	ldrbeq	r2, [r4, -r0, lsl #12]!
    9454:	9f010000 	svcls	0x00010000
    9458:	000090b8 	strheq	r9, [r0], -r8
    945c:	00000030 	andeq	r0, r0, r0, lsr r0
    9460:	0a4e9c01 	beq	13b046c <__bss_end__+0x13a6a04>
    9464:	63270000 			; <UNDEFINED> instruction: 0x63270000
    9468:	2c9f0100 	ldfcss	f0, [pc], {0}
    946c:	3d000000 	stccc	0, cr0, [r0, #-0]
    9470:	2500000f 	strcs	r0, [r0, #-15]
    9474:	000090c4 	andeq	r9, r0, r4, asr #1
    9478:	00000c9c 	muleq	r0, ip, ip
    947c:	0090c825 	addseq	ip, r0, r5, lsr #16
    9480:	000aa500 	andeq	sl, sl, r0, lsl #10
    9484:	90dc2800 	sbcsls	r2, ip, r0, lsl #16
    9488:	0ca70000 	stceq	0, cr0, [r7]
    948c:	0a440000 	beq	1109494 <__bss_end__+0x10ffa2c>
    9490:	01290000 			; <UNDEFINED> instruction: 0x01290000
    9494:	400c0550 	andmi	r0, ip, r0, asr r5
    9498:	29202150 	stmdbcs	r0!, {r4, r6, r8, sp}
    949c:	74055101 	strvc	r5, [r5], #-257	; 0xfffffeff
    94a0:	1aff0800 	bne	fffcb4a8 <__bss_end__+0xfffc1a40>
    94a4:	90e02500 	rscls	r2, r0, r0, lsl #10
    94a8:	0c9c0000 	ldceq	0, cr0, [ip], {0}
    94ac:	24000000 	strcs	r0, [r0], #-0
    94b0:	0000097b 	andeq	r0, r0, fp, ror r9
    94b4:	00259701 	eoreq	r9, r5, r1, lsl #14
    94b8:	90880000 	addls	r0, r8, r0
    94bc:	00300000 	eorseq	r0, r0, r0
    94c0:	9c010000 	stcls	0, cr0, [r1], {-0}
    94c4:	00000aa5 	andeq	r0, r0, r5, lsr #21
    94c8:	0100632a 	tsteq	r0, sl, lsr #6
    94cc:	0000259b 	muleq	r0, fp, r5
    94d0:	25540100 	ldrbcs	r0, [r4, #-256]	; 0xffffff00
    94d4:	00009090 	muleq	r0, r0, r0
    94d8:	00000c9c 	muleq	r0, ip, ip
    94dc:	00909425 	addseq	r9, r0, r5, lsr #8
    94e0:	000ad200 	andeq	sp, sl, r0, lsl #4
    94e4:	90a42800 	adcls	r2, r4, r0, lsl #16
    94e8:	0cb20000 	ldceq	0, cr0, [r2]
    94ec:	0a9b0000 	beq	fe6c94f4 <__bss_end__+0xfe6bfa8c>
    94f0:	01290000 			; <UNDEFINED> instruction: 0x01290000
    94f4:	400c0550 	andmi	r0, ip, r0, asr r5
    94f8:	00202150 	eoreq	r2, r0, r0, asr r1
    94fc:	0090ac25 	addseq	sl, r0, r5, lsr #24
    9500:	000c9c00 	andeq	r9, ip, r0, lsl #24
    9504:	6d240000 	stcvs	0, cr0, [r4, #-0]
    9508:	01000009 	tsteq	r0, r9
    950c:	00002588 	andeq	r2, r0, r8, lsl #11
    9510:	00906800 	addseq	r6, r0, r0, lsl #16
    9514:	00002000 	andeq	r2, r0, r0
    9518:	d29c0100 	addsle	r0, ip, #0, 2
    951c:	2b00000a 	blcs	954c <__FUNCTION__.4281>
    9520:	00009074 	andeq	r9, r0, r4, ror r0
    9524:	00000cb2 			; <UNDEFINED> instruction: 0x00000cb2
    9528:	05500129 	ldrbeq	r0, [r0, #-297]	; 0xfffffed7
    952c:	2150640c 	cmpcs	r0, ip, lsl #8
    9530:	24000020 	strcs	r0, [r0], #-32	; 0xffffffe0
    9534:	000009e1 	andeq	r0, r0, r1, ror #19
    9538:	00257f01 	eoreq	r7, r5, r1, lsl #30
    953c:	90500000 	subsls	r0, r0, r0
    9540:	00180000 	andseq	r0, r8, r0
    9544:	9c010000 	stcls	0, cr0, [r1], {-0}
    9548:	00000aff 	strdeq	r0, [r0], -pc	; <UNPREDICTABLE>
    954c:	00905c2b 	addseq	r5, r0, fp, lsr #24
    9550:	000cb200 	andeq	fp, ip, r0, lsl #4
    9554:	50012900 	andpl	r2, r1, r0, lsl #18
    9558:	50640c05 	rsbpl	r0, r4, r5, lsl #24
    955c:	00002021 	andeq	r2, r0, r1, lsr #32
    9560:	0008e626 	andeq	lr, r8, r6, lsr #12
    9564:	a03a0100 	eorsge	r0, sl, r0, lsl #2
    9568:	b000008f 	andlt	r0, r0, pc, lsl #1
    956c:	01000000 	mrseq	r0, (UNDEF: 0)
    9570:	000c3d9c 	muleq	ip, ip, sp
    9574:	8fb02800 	svchi	0x00b02800
    9578:	0cbd0000 	ldceq	0, cr0, [sp]
    957c:	0b2c0000 	bleq	b09584 <__bss_end__+0xaffb1c>
    9580:	01290000 			; <UNDEFINED> instruction: 0x01290000
    9584:	293e0150 	ldmdbcs	lr!, {r4, r6, r8}
    9588:	32015101 	andcc	r5, r1, #1073741824	; 0x40000000
    958c:	8fbc2800 	svchi	0x00bc2800
    9590:	0cbd0000 	ldceq	0, cr0, [sp]
    9594:	0b440000 	bleq	110959c <__bss_end__+0x10ffb34>
    9598:	01290000 			; <UNDEFINED> instruction: 0x01290000
    959c:	293f0150 	ldmdbcs	pc!, {r4, r6, r8}	; <UNPREDICTABLE>
    95a0:	32015101 	andcc	r5, r1, #1073741824	; 0x40000000
    95a4:	8fc02500 	svchi	0x00c02500
    95a8:	0c9c0000 	ldceq	0, cr0, [ip], {0}
    95ac:	cc280000 	stcgt	0, cr0, [r8], #-0
    95b0:	3d00008f 	stccc	0, cr0, [r0, #-572]	; 0xfffffdc4
    95b4:	6900000c 	stmdbvs	r0, {r2, r3}
    95b8:	2900000b 	stmdbcs	r0, {r0, r1, r3}
    95bc:	0c055001 	stceq	0, cr5, [r5], {1}
    95c0:	20215004 	eorcs	r5, r1, r4
    95c4:	01510129 	cmpeq	r1, r9, lsr #2
    95c8:	d0250031 	eorle	r0, r5, r1, lsr r0
    95cc:	9c00008f 	stcls	0, cr0, [r0], {143}	; 0x8f
    95d0:	2800000c 	stmdacs	r0, {r2, r3}
    95d4:	00008fe0 	andeq	r8, r0, r0, ror #31
    95d8:	00000ca7 	andeq	r0, r0, r7, lsr #25
    95dc:	00000b8b 	andeq	r0, r0, fp, lsl #23
    95e0:	02500129 	subseq	r0, r0, #1073741834	; 0x4000000a
    95e4:	01290074 			; <UNDEFINED> instruction: 0x01290074
    95e8:	00300151 	eorseq	r0, r0, r1, asr r1
    95ec:	008fec28 	addeq	lr, pc, r8, lsr #24
    95f0:	000ca700 	andeq	sl, ip, r0, lsl #14
    95f4:	000ba700 	andeq	sl, fp, r0, lsl #14
    95f8:	50012900 	andpl	r2, r1, r0, lsl #18
    95fc:	50440c05 	subpl	r0, r4, r5, lsl #24
    9600:	01292021 			; <UNDEFINED> instruction: 0x01292021
    9604:	00300151 	eorseq	r0, r0, r1, asr r1
    9608:	008ff828 	addeq	pc, pc, r8, lsr #16
    960c:	000ca700 	andeq	sl, ip, r0, lsl #14
    9610:	000bc300 	andeq	ip, fp, r0, lsl #6
    9614:	50012900 	andpl	r2, r1, r0, lsl #18
    9618:	504c0c05 	subpl	r0, ip, r5, lsl #24
    961c:	01292021 			; <UNDEFINED> instruction: 0x01292021
    9620:	00330151 	eorseq	r0, r3, r1, asr r1
    9624:	00900428 	addseq	r0, r0, r8, lsr #8
    9628:	000ca700 	andeq	sl, ip, r0, lsl #14
    962c:	000bdf00 	andeq	sp, fp, r0, lsl #30
    9630:	50012900 	andpl	r2, r1, r0, lsl #18
    9634:	50500c05 	subspl	r0, r0, r5, lsl #24
    9638:	01292021 			; <UNDEFINED> instruction: 0x01292021
    963c:	00300151 	eorseq	r0, r0, r1, asr r1
    9640:	00901028 	addseq	r1, r0, r8, lsr #32
    9644:	000ca700 	andeq	sl, ip, r0, lsl #14
    9648:	000bfc00 	andeq	pc, fp, r0, lsl #24
    964c:	50012900 	andpl	r2, r1, r0, lsl #18
    9650:	50480c05 	subpl	r0, r8, r5, lsl #24
    9654:	01292021 			; <UNDEFINED> instruction: 0x01292021
    9658:	c7080251 	smlsdgt	r8, r1, r2, r0
    965c:	901c2800 	andsls	r2, ip, r0, lsl #16
    9660:	0ca70000 	stceq	0, cr0, [r7]
    9664:	0c1a0000 	ldceq	0, cr0, [sl], {-0}
    9668:	01290000 			; <UNDEFINED> instruction: 0x01290000
    966c:	680c0550 	stmdavs	ip, {r4, r6, r8, sl}
    9670:	29202150 	stmdbcs	r0!, {r4, r6, r8, sp}
    9674:	0a035101 	beq	dda80 <__bss_end__+0xd4018>
    9678:	2800010e 	stmdacs	r0, {r1, r2, r3, r8}
    967c:	00009028 	andeq	r9, r0, r8, lsr #32
    9680:	00000ca7 	andeq	r0, r0, r7, lsr #25
    9684:	00000c33 	andeq	r0, r0, r3, lsr ip
    9688:	02500129 	subseq	r0, r0, #1073741834	; 0x4000000a
    968c:	01290074 			; <UNDEFINED> instruction: 0x01290074
    9690:	00330151 	eorseq	r0, r3, r1, asr r1
    9694:	00902c25 	addseq	r2, r0, r5, lsr #24
    9698:	000c9c00 	andeq	r9, ip, r0, lsl #24
    969c:	ef2c0000 	svc	0x002c0000
    96a0:	01000009 	tsteq	r0, r9
    96a4:	008f802d 	addeq	r8, pc, sp, lsr #32
    96a8:	00002000 	andeq	r2, r0, r0
    96ac:	959c0100 	ldrls	r0, [ip, #256]	; 0x100
    96b0:	2d00000c 	stccs	0, cr0, [r0, #-48]	; 0xffffffd0
    96b4:	00000521 	andeq	r0, r0, r1, lsr #10
    96b8:	0c952d01 	ldceq	13, cr2, [r5], {1}
    96bc:	0f5b0000 	svceq	0x005b0000
    96c0:	76270000 	strtvc	r0, [r7], -r0
    96c4:	01006c61 	tsteq	r0, r1, ror #24
    96c8:	00002c2d 	andeq	r2, r0, sp, lsr #24
    96cc:	000f7900 	andeq	r7, pc, r0, lsl #18
    96d0:	8f902800 	svchi	0x00902800
    96d4:	0cb20000 	ldceq	0, cr0, [r2]
    96d8:	0c840000 	stceq	0, cr0, [r4], {0}
    96dc:	01290000 			; <UNDEFINED> instruction: 0x01290000
    96e0:	00740250 	rsbseq	r0, r4, r0, asr r2
    96e4:	8f9c2b00 	svchi	0x009c2b00
    96e8:	0ca70000 	stceq	0, cr0, [r7]
    96ec:	01290000 			; <UNDEFINED> instruction: 0x01290000
    96f0:	00740250 	rsbseq	r0, r4, r0, asr r2
    96f4:	040e0000 	streq	r0, [lr], #-0
    96f8:	00000c9b 	muleq	r0, fp, ip
    96fc:	09852f2e 	stmibeq	r5, {r1, r2, r3, r5, r8, r9, sl, fp, sp}
    9700:	09850000 	stmibeq	r5, {}	; <UNPREDICTABLE>
    9704:	89060000 	stmdbhi	r6, {}	; <UNPREDICTABLE>
    9708:	0009c42f 	andeq	ip, r9, pc, lsr #8
    970c:	0009c400 	andeq	ip, r9, r0, lsl #8
    9710:	2f9c0600 	svccs	0x009c0600
    9714:	000009db 	ldrdeq	r0, [r0], -fp
    9718:	000009db 	ldrdeq	r0, [r0], -fp
    971c:	a02fa806 	eorge	sl, pc, r6, lsl #16
    9720:	a0000009 	andge	r0, r0, r9
    9724:	08000009 	stmdaeq	r0, {r0, r3}
    9728:	0b700019 	bleq	1c09794 <__bss_end__+0x1bffd2c>
    972c:	00040000 	andeq	r0, r4, r0
    9730:	00001d80 	andeq	r1, r0, r0, lsl #27
    9734:	03bf0104 			; <UNDEFINED> instruction: 0x03bf0104
    9738:	530c0000 	movwpl	r0, #49152	; 0xc000
    973c:	2c00000a 	stccs	0, cr0, [r0], {10}
    9740:	f8000009 			; <UNDEFINED> instruction: 0xf8000009
    9744:	20000090 	mulcs	r0, r0, r0
    9748:	80000001 	andhi	r0, r0, r1
    974c:	0200000f 	andeq	r0, r0, #15
    9750:	6e690504 	cdpvs	5, 6, cr0, cr9, cr4, {0}
    9754:	04030074 	streq	r0, [r3], #-116	; 0xffffff8c
    9758:	00006607 	andeq	r6, r0, r7, lsl #12
    975c:	002c0400 	eoreq	r0, ip, r0, lsl #8
    9760:	01030000 	mrseq	r0, (UNDEF: 3)
    9764:	0002e306 	andeq	lr, r2, r6, lsl #6
    9768:	05020300 	streq	r0, [r2, #-768]	; 0xfffffd00
    976c:	000002fd 	strdeq	r0, [r0], -sp
    9770:	af050403 	svcge	0x00050403
    9774:	03000000 	movweq	r0, #0
    9778:	00aa0508 	adceq	r0, sl, r8, lsl #10
    977c:	01030000 	mrseq	r0, (UNDEF: 3)
    9780:	0002e108 	andeq	lr, r2, r8, lsl #2
    9784:	07020300 	streq	r0, [r2, -r0, lsl #6]
    9788:	0000020e 	andeq	r0, r0, lr, lsl #4
    978c:	61070403 	tstvs	r7, r3, lsl #8
    9790:	03000000 	movweq	r0, #0
    9794:	005c0708 	subseq	r0, ip, r8, lsl #14
    9798:	cf050000 	svcgt	0x00050000
    979c:	02000002 	andeq	r0, r0, #2
    97a0:	00002507 	andeq	r2, r0, r7, lsl #10
    97a4:	02be0500 	adcseq	r0, lr, #0, 10
    97a8:	2c030000 	stccs	0, cr0, [r3], {-0}
    97ac:	00000046 	andeq	r0, r0, r6, asr #32
    97b0:	0003a805 	andeq	sl, r3, r5, lsl #16
    97b4:	46720300 	ldrbtmi	r0, [r2], -r0, lsl #6
    97b8:	06000000 	streq	r0, [r0], -r0
    97bc:	0000025f 	andeq	r0, r0, pc, asr r2
    97c0:	2c016504 	cfstr32cs	mvfx6, [r1], {4}
    97c4:	07000000 	streq	r0, [r0, -r0]
    97c8:	bca60304 	stclt	3, cr0, [r6], #16
    97cc:	08000000 	stmdaeq	r0, {}	; <UNPREDICTABLE>
    97d0:	00000259 	andeq	r0, r0, r9, asr r2
    97d4:	0091a803 	addseq	sl, r1, r3, lsl #16
    97d8:	ce080000 	cdpgt	0, 0, cr0, cr8, cr0, {0}
    97dc:	03000001 	movweq	r0, #1
    97e0:	0000bca9 	andeq	fp, r0, r9, lsr #25
    97e4:	54090000 	strpl	r0, [r9], #-0
    97e8:	cc000000 	stcgt	0, cr0, [r0], {-0}
    97ec:	0a000000 	beq	97f4 <buf.4229+0x18c>
    97f0:	000000cc 	andeq	r0, r0, ip, asr #1
    97f4:	04030003 	streq	r0, [r3], #-3
    97f8:	00029207 	andeq	r9, r2, r7, lsl #4
    97fc:	03080b00 	movweq	r0, #35584	; 0x8b00
    9800:	0000f4a3 	andeq	pc, r0, r3, lsr #9
    9804:	03920c00 	orrseq	r0, r2, #0, 24
    9808:	a5030000 	strge	r0, [r3, #-0]
    980c:	00000025 	andeq	r0, r0, r5, lsr #32
    9810:	039a0c00 	orrseq	r0, sl, #0, 24
    9814:	aa030000 	bge	c981c <__bss_end__+0xbfdb4>
    9818:	0000009d 	muleq	r0, sp, r0
    981c:	25050004 	strcs	r0, [r5, #-4]
    9820:	03000003 	movweq	r0, #3
    9824:	0000d3ab 	andeq	sp, r0, fp, lsr #7
    9828:	018b0500 	orreq	r0, fp, r0, lsl #10
    982c:	af030000 	svcge	0x00030000
    9830:	00000070 	andeq	r0, r0, r0, ror r0
    9834:	040e040d 	streq	r0, [lr], #-1037	; 0xfffffbf3
    9838:	00000112 	andeq	r0, r0, r2, lsl r1
    983c:	ea080103 	b	209c50 <__bss_end__+0x2001e8>
    9840:	04000002 	streq	r0, [r0], #-2
    9844:	00000112 	andeq	r0, r0, r2, lsl r1
    9848:	00043c05 	andeq	r3, r4, r5, lsl #24
    984c:	62160500 	andsvs	r0, r6, #0, 10
    9850:	0f000000 	svceq	0x00000000
    9854:	0000019c 	muleq	r0, ip, r1
    9858:	7c2d0518 	cfstr32vc	mvfx0, [sp], #-96	; 0xffffffa0
    985c:	0c000001 	stceq	0, cr0, [r0], {1}
    9860:	00000346 	andeq	r0, r0, r6, asr #6
    9864:	017c2f05 	cmneq	ip, r5, lsl #30
    9868:	10000000 	andne	r0, r0, r0
    986c:	05006b5f 	streq	r6, [r0, #-2911]	; 0xfffff4a1
    9870:	00002530 	andeq	r2, r0, r0, lsr r5
    9874:	7d0c0400 	cfstrsvc	mvf0, [ip, #-0]
    9878:	05000003 	streq	r0, [r0, #-3]
    987c:	00002530 	andeq	r2, r0, r0, lsr r5
    9880:	850c0800 	strhi	r0, [ip, #-2048]	; 0xfffff800
    9884:	05000001 	streq	r0, [r0, #-1]
    9888:	00002530 	andeq	r2, r0, r0, lsr r5
    988c:	8a0c0c00 	bhi	30c894 <__bss_end__+0x302e2c>
    9890:	05000004 	streq	r0, [r0, #-4]
    9894:	00002530 	andeq	r2, r0, r0, lsr r5
    9898:	5f101000 	svcpl	0x00101000
    989c:	31050078 	tstcc	r5, r8, ror r0
    98a0:	00000182 	andeq	r0, r0, r2, lsl #3
    98a4:	040e0014 	streq	r0, [lr], #-20	; 0xffffffec
    98a8:	00000129 	andeq	r0, r0, r9, lsr #2
    98ac:	00011e09 	andeq	r1, r1, r9, lsl #28
    98b0:	00019200 	andeq	r9, r1, r0, lsl #4
    98b4:	00cc0a00 	sbceq	r0, ip, r0, lsl #20
    98b8:	00000000 	andeq	r0, r0, r0
    98bc:	0001c90f 	andeq	ip, r1, pc, lsl #18
    98c0:	35052400 	strcc	r2, [r5, #-1024]	; 0xfffffc00
    98c4:	0000020b 	andeq	r0, r0, fp, lsl #4
    98c8:	0000a10c 	andeq	sl, r0, ip, lsl #2
    98cc:	25370500 	ldrcs	r0, [r7, #-1280]!	; 0xfffffb00
    98d0:	00000000 	andeq	r0, r0, r0
    98d4:	0003b00c 	andeq	fp, r3, ip
    98d8:	25380500 	ldrcs	r0, [r8, #-1280]!	; 0xfffffb00
    98dc:	04000000 	streq	r0, [r0], #-0
    98e0:	0000c40c 	andeq	ip, r0, ip, lsl #8
    98e4:	25390500 	ldrcs	r0, [r9, #-1280]!	; 0xfffffb00
    98e8:	08000000 	stmdaeq	r0, {}	; <UNPREDICTABLE>
    98ec:	0005030c 	andeq	r0, r5, ip, lsl #6
    98f0:	253a0500 	ldrcs	r0, [sl, #-1280]!	; 0xfffffb00
    98f4:	0c000000 	stceq	0, cr0, [r0], {-0}
    98f8:	0002a20c 	andeq	sl, r2, ip, lsl #4
    98fc:	253b0500 	ldrcs	r0, [fp, #-1280]!	; 0xfffffb00
    9900:	10000000 	andne	r0, r0, r0
    9904:	00027b0c 	andeq	r7, r2, ip, lsl #22
    9908:	253c0500 	ldrcs	r0, [ip, #-1280]!	; 0xfffffb00
    990c:	14000000 	strne	r0, [r0], #-0
    9910:	00048f0c 	andeq	r8, r4, ip, lsl #30
    9914:	253d0500 	ldrcs	r0, [sp, #-1280]!	; 0xfffffb00
    9918:	18000000 	stmdane	r0, {}	; <UNPREDICTABLE>
    991c:	0003070c 	andeq	r0, r3, ip, lsl #14
    9920:	253e0500 	ldrcs	r0, [lr, #-1280]!	; 0xfffffb00
    9924:	1c000000 	stcne	0, cr0, [r0], {-0}
    9928:	0004ca0c 	andeq	ip, r4, ip, lsl #20
    992c:	253f0500 	ldrcs	r0, [pc, #-1280]!	; 9434 <__FUNCTION__.4327+0x170>
    9930:	20000000 	andcs	r0, r0, r0
    9934:	01041100 	mrseq	r1, (UNDEF: 20)
    9938:	01080000 	mrseq	r0, (UNDEF: 8)
    993c:	024b4805 	subeq	r4, fp, #327680	; 0x50000
    9940:	780c0000 	stmdavc	ip, {}	; <UNPREDICTABLE>
    9944:	05000001 	streq	r0, [r0, #-1]
    9948:	00024b49 	andeq	r4, r2, r9, asr #22
    994c:	000c0000 	andeq	r0, ip, r0
    9950:	05000000 	streq	r0, [r0, #-0]
    9954:	00024b4a 	andeq	r4, r2, sl, asr #22
    9958:	2e128000 	cdpcs	0, 1, cr8, cr2, cr0, {0}
    995c:	05000004 	streq	r0, [r0, #-4]
    9960:	00011e4c 	andeq	r1, r1, ip, asr #28
    9964:	12010000 	andne	r0, r1, #0
    9968:	00000129 	andeq	r0, r0, r9, lsr #2
    996c:	011e4f05 	tsteq	lr, r5, lsl #30
    9970:	01040000 	mrseq	r0, (UNDEF: 4)
    9974:	010a0900 	tsteq	sl, r0, lsl #18
    9978:	025b0000 	subseq	r0, fp, #0
    997c:	cc0a0000 	stcgt	0, cr0, [sl], {-0}
    9980:	1f000000 	svcne	0x00000000
    9984:	02ab1100 	adceq	r1, fp, #0, 2
    9988:	01900000 	orrseq	r0, r0, r0
    998c:	02995b05 	addseq	r5, r9, #5120	; 0x1400
    9990:	460c0000 	strmi	r0, [ip], -r0
    9994:	05000003 	streq	r0, [r0, #-3]
    9998:	0002995c 	andeq	r9, r2, ip, asr r9
    999c:	5e0c0000 	cdppl	0, 0, cr0, cr12, cr0, {0}
    99a0:	05000003 	streq	r0, [r0, #-3]
    99a4:	0000255d 	andeq	r2, r0, sp, asr r5
    99a8:	800c0400 	andhi	r0, ip, r0, lsl #8
    99ac:	05000001 	streq	r0, [r0, #-1]
    99b0:	00029f5f 	andeq	r9, r2, pc, asr pc
    99b4:	040c0800 	streq	r0, [ip], #-2048	; 0xfffff800
    99b8:	05000001 	streq	r0, [r0, #-1]
    99bc:	00020b60 	andeq	r0, r2, r0, ror #22
    99c0:	0e008800 	cdpeq	8, 0, cr8, cr0, cr0, {0}
    99c4:	00025b04 	andeq	r5, r2, r4, lsl #22
    99c8:	02af0900 	adceq	r0, pc, #0, 18
    99cc:	02af0000 	adceq	r0, pc, #0
    99d0:	cc0a0000 	stcgt	0, cr0, [sl], {-0}
    99d4:	1f000000 	svcne	0x00000000
    99d8:	b5040e00 	strlt	r0, [r4, #-3584]	; 0xfffff200
    99dc:	13000002 	movwne	r0, #2
    99e0:	0003110f 	andeq	r1, r3, pc, lsl #2
    99e4:	73050800 	movwvc	r0, #22528	; 0x5800
    99e8:	000002db 	ldrdeq	r0, [r0], -fp
    99ec:	0000be0c 	andeq	fp, r0, ip, lsl #28
    99f0:	db740500 	blle	1d0adf8 <__bss_end__+0x1d01390>
    99f4:	00000002 	andeq	r0, r0, r2
    99f8:	00001b0c 	andeq	r1, r0, ip, lsl #22
    99fc:	25750500 	ldrbcs	r0, [r5, #-1280]!	; 0xfffffb00
    9a00:	04000000 	streq	r0, [r0], #-0
    9a04:	54040e00 	strpl	r0, [r4], #-3584	; 0xfffff200
    9a08:	0f000000 	svceq	0x00000000
    9a0c:	00000330 	andeq	r0, r0, r0, lsr r3
    9a10:	0bb30568 	bleq	feccafb8 <__bss_end__+0xfecc1550>
    9a14:	10000004 	andne	r0, r0, r4
    9a18:	0500705f 	streq	r7, [r0, #-95]	; 0xffffffa1
    9a1c:	0002dbb4 			; <UNDEFINED> instruction: 0x0002dbb4
    9a20:	5f100000 	svcpl	0x00100000
    9a24:	b5050072 	strlt	r0, [r5, #-114]	; 0xffffff8e
    9a28:	00000025 	andeq	r0, r0, r5, lsr #32
    9a2c:	775f1004 	ldrbvc	r1, [pc, -r4]
    9a30:	25b60500 	ldrcs	r0, [r6, #1280]!	; 0x500
    9a34:	08000000 	stmdaeq	r0, {}	; <UNPREDICTABLE>
    9a38:	0001220c 	andeq	r2, r1, ip, lsl #4
    9a3c:	3fb70500 	svccc	0x00b70500
    9a40:	0c000000 	stceq	0, cr0, [r0], {-0}
    9a44:	0001f40c 	andeq	pc, r1, ip, lsl #8
    9a48:	3fb80500 	svccc	0x00b80500
    9a4c:	0e000000 	cdpeq	0, 0, cr0, cr0, cr0, {0}
    9a50:	66625f10 	uqadd16vs	r5, r2, r0
    9a54:	b6b90500 	ldrtlt	r0, [r9], r0, lsl #10
    9a58:	10000002 	andne	r0, r0, r2
    9a5c:	00007b0c 	andeq	r7, r0, ip, lsl #22
    9a60:	25ba0500 	ldrcs	r0, [sl, #1280]!	; 0x500
    9a64:	18000000 	stmdane	r0, {}	; <UNPREDICTABLE>
    9a68:	0001120c 	andeq	r1, r1, ip, lsl #4
    9a6c:	0ac10500 	beq	ff04ae74 <__bss_end__+0xff04140c>
    9a70:	1c000001 	stcne	0, cr0, [r0], {1}
    9a74:	000a5e0c 	andeq	r5, sl, ip, lsl #28
    9a78:	66c30500 	strbvs	r0, [r3], r0, lsl #10
    9a7c:	20000005 	andcs	r0, r0, r5
    9a80:	000a780c 	andeq	r7, sl, ip, lsl #16
    9a84:	90c50500 	sbcls	r0, r5, r0, lsl #10
    9a88:	24000005 	strcs	r0, [r0], #-5
    9a8c:	0003a20c 	andeq	sl, r3, ip, lsl #4
    9a90:	b4c80500 	strblt	r0, [r8], #1280	; 0x500
    9a94:	28000005 	stmdacs	r0, {r0, r2}
    9a98:	0004e40c 	andeq	lr, r4, ip, lsl #8
    9a9c:	cec90500 	cdpgt	5, 12, cr0, cr9, cr0, {0}
    9aa0:	2c000005 	stccs	0, cr0, [r0], {5}
    9aa4:	62755f10 	rsbsvs	r5, r5, #16, 30	; 0x40
    9aa8:	b6cc0500 	strblt	r0, [ip], r0, lsl #10
    9aac:	30000002 	andcc	r0, r0, r2
    9ab0:	70755f10 	rsbsvc	r5, r5, r0, lsl pc
    9ab4:	dbcd0500 	blle	ff34aebc <__bss_end__+0xff341454>
    9ab8:	38000002 	stmdacc	r0, {r1}
    9abc:	72755f10 	rsbsvc	r5, r5, #16, 30	; 0x40
    9ac0:	25ce0500 	strbcs	r0, [lr, #1280]	; 0x500
    9ac4:	3c000000 	stccc	0, cr0, [r0], {-0}
    9ac8:	0000b80c 	andeq	fp, r0, ip, lsl #16
    9acc:	d4d10500 	ldrble	r0, [r1], #1280	; 0x500
    9ad0:	40000005 	andmi	r0, r0, r5
    9ad4:	0004bc0c 	andeq	fp, r4, ip, lsl #24
    9ad8:	e4d20500 	ldrb	r0, [r2], #1280	; 0x500
    9adc:	43000005 	movwmi	r0, #5
    9ae0:	626c5f10 	rsbvs	r5, ip, #16, 30	; 0x40
    9ae4:	b6d50500 	ldrblt	r0, [r5], r0, lsl #10
    9ae8:	44000002 	strmi	r0, [r0], #-2
    9aec:	0001400c 	andeq	r4, r1, ip
    9af0:	25d80500 	ldrbcs	r0, [r8, #1280]	; 0x500
    9af4:	4c000000 	stcmi	0, cr0, [r0], {-0}
    9af8:	0001510c 	andeq	r5, r1, ip, lsl #2
    9afc:	7bd90500 	blvc	ff64af04 <__bss_end__+0xff64149c>
    9b00:	50000000 	andpl	r0, r0, r0
    9b04:	0009ff0c 	andeq	pc, r9, ip, lsl #30
    9b08:	29dc0500 	ldmibcs	ip, {r8, sl}^
    9b0c:	54000004 	strpl	r0, [r0], #-4
    9b10:	00026d0c 	andeq	r6, r2, ip, lsl #26
    9b14:	ffe00500 			; <UNDEFINED> instruction: 0xffe00500
    9b18:	58000000 	stmdapl	r0, {}	; <UNPREDICTABLE>
    9b1c:	0003380c 	andeq	r3, r3, ip, lsl #16
    9b20:	f4e20500 	vld2.16	{d16[0],d17[0]}, [r2], r0
    9b24:	5c000000 	stcpl	0, cr0, [r0], {-0}
    9b28:	0002730c 	andeq	r7, r2, ip, lsl #6
    9b2c:	25e30500 	strbcs	r0, [r3, #1280]!	; 0x500
    9b30:	64000000 	strvs	r0, [r0], #-0
    9b34:	00251400 	eoreq	r1, r5, r0, lsl #8
    9b38:	04290000 	strteq	r0, [r9], #-0
    9b3c:	29150000 	ldmdbcs	r5, {}	; <UNPREDICTABLE>
    9b40:	15000004 	strne	r0, [r0, #-4]
    9b44:	0000010a 	andeq	r0, r0, sl, lsl #2
    9b48:	00010c15 	andeq	r0, r1, r5, lsl ip
    9b4c:	00251500 	eoreq	r1, r5, r0, lsl #10
    9b50:	0e000000 	cdpeq	0, 0, cr0, cr0, cr0, {0}
    9b54:	00043404 	andeq	r3, r4, r4, lsl #8
    9b58:	04290400 	strteq	r0, [r9], #-1024	; 0xfffffc00
    9b5c:	85160000 	ldrhi	r0, [r6, #-0]
    9b60:	28000003 	stmdacs	r0, {r0, r1}
    9b64:	02380504 	eorseq	r0, r8, #4, 10	; 0x1000000
    9b68:	00000566 	andeq	r0, r0, r6, ror #10
    9b6c:	0002f617 	andeq	pc, r2, r7, lsl r6	; <UNPREDICTABLE>
    9b70:	023a0500 	eorseq	r0, sl, #0, 10
    9b74:	00000025 	andeq	r0, r0, r5, lsr #32
    9b78:	01311700 	teqeq	r1, r0, lsl #14
    9b7c:	3f050000 	svccc	0x00050000
    9b80:	00063b02 	andeq	r3, r6, r2, lsl #22
    9b84:	e4170400 	ldr	r0, [r7], #-1024	; 0xfffffc00
    9b88:	05000001 	streq	r0, [r0, #-1]
    9b8c:	063b023f 			; <UNDEFINED> instruction: 0x063b023f
    9b90:	17080000 	strne	r0, [r8, -r0]
    9b94:	00000194 	muleq	r0, r4, r1
    9b98:	3b023f05 	blcc	997b4 <__bss_end__+0x8fd4c>
    9b9c:	0c000006 	stceq	0, cr0, [r0], {6}
    9ba0:	00035917 	andeq	r5, r3, r7, lsl r9
    9ba4:	02410500 	subeq	r0, r1, #0, 10
    9ba8:	00000025 	andeq	r0, r0, r5, lsr #32
    9bac:	00291710 	eoreq	r1, r9, r0, lsl r7
    9bb0:	42050000 	andmi	r0, r5, #0
    9bb4:	00081d02 	andeq	r1, r8, r2, lsl #26
    9bb8:	64171400 	ldrvs	r1, [r7], #-1024	; 0xfffffc00
    9bbc:	05000004 	streq	r0, [r0, #-4]
    9bc0:	00250244 	eoreq	r0, r5, r4, asr #4
    9bc4:	17300000 	ldrne	r0, [r0, -r0]!
    9bc8:	00000363 	andeq	r0, r0, r3, ror #6
    9bcc:	8a024505 	bhi	9afe8 <__bss_end__+0x91580>
    9bd0:	34000005 	strcc	r0, [r0], #-5
    9bd4:	0002b317 	andeq	fp, r2, r7, lsl r3
    9bd8:	02470500 	subeq	r0, r7, #0, 10
    9bdc:	00000025 	andeq	r0, r0, r5, lsr #32
    9be0:	03731738 	cmneq	r3, #56, 14	; 0xe00000
    9be4:	49050000 	stmdbmi	r5, {}	; <UNPREDICTABLE>
    9be8:	00083802 	andeq	r3, r8, r2, lsl #16
    9bec:	51173c00 	tstpl	r7, r0, lsl #24
    9bf0:	05000002 	streq	r0, [r0, #-2]
    9bf4:	017c024c 	cmneq	ip, ip, asr #4
    9bf8:	17400000 	strbne	r0, [r0, -r0]
    9bfc:	000001b3 			; <UNDEFINED> instruction: 0x000001b3
    9c00:	25024d05 	strcs	r4, [r2, #-3333]	; 0xfffff2fb
    9c04:	44000000 	strmi	r0, [r0], #-0
    9c08:	0004fe17 	andeq	pc, r4, r7, lsl lr	; <UNPREDICTABLE>
    9c0c:	024e0500 	subeq	r0, lr, #0, 10
    9c10:	0000017c 	andeq	r0, r0, ip, ror r1
    9c14:	02c51748 	sbceq	r1, r5, #72, 14	; 0x1200000
    9c18:	4f050000 	svcmi	0x00050000
    9c1c:	00083e02 	andeq	r3, r8, r2, lsl #28
    9c20:	ec174c00 	ldc	12, cr4, [r7], {-0}
    9c24:	05000001 	streq	r0, [r0, #-1]
    9c28:	00250252 	eoreq	r0, r5, r2, asr r2
    9c2c:	17500000 	ldrbne	r0, [r0, -r0]
    9c30:	00000149 	andeq	r0, r0, r9, asr #2
    9c34:	0c025305 	stceq	3, cr5, [r2], {5}
    9c38:	54000001 	strpl	r0, [r0], #-1
    9c3c:	0002ef17 	andeq	lr, r2, r7, lsl pc
    9c40:	02760500 	rsbseq	r0, r6, #0, 10
    9c44:	000007fb 	strdeq	r0, [r0], -fp
    9c48:	02ab1858 	adceq	r1, fp, #88, 16	; 0x580000
    9c4c:	7a050000 	bvc	149c54 <__bss_end__+0x1401ec>
    9c50:	00029902 	andeq	r9, r2, r2, lsl #18
    9c54:	18014800 	stmdane	r1, {fp, lr}
    9c58:	0000022f 	andeq	r0, r0, pc, lsr #4
    9c5c:	5b027b05 	blpl	a8878 <__bss_end__+0x9ee10>
    9c60:	4c000002 	stcmi	0, cr0, [r0], {2}
    9c64:	04b21801 	ldrteq	r1, [r2], #2049	; 0x801
    9c68:	7f050000 	svcvc	0x00050000
    9c6c:	00084f02 	andeq	r4, r8, r2, lsl #30
    9c70:	1802dc00 	stmdane	r2, {sl, fp, ip, lr, pc}
    9c74:	0000011a 	andeq	r0, r0, sl, lsl r1
    9c78:	00028405 	andeq	r8, r2, r5, lsl #8
    9c7c:	e0000006 	and	r0, r0, r6
    9c80:	00ff1802 	rscseq	r1, pc, r2, lsl #16
    9c84:	85050000 	strhi	r0, [r5, #-0]
    9c88:	00085b02 	andeq	r5, r8, r2, lsl #22
    9c8c:	0002ec00 	andeq	lr, r2, r0, lsl #24
    9c90:	040b040e 	streq	r0, [fp], #-1038	; 0xfffffbf2
    9c94:	25140000 	ldrcs	r0, [r4, #-0]
    9c98:	8a000000 	bhi	9ca0 <__bss_end__+0x238>
    9c9c:	15000005 	strne	r0, [r0, #-5]
    9ca0:	00000429 	andeq	r0, r0, r9, lsr #8
    9ca4:	00010a15 	andeq	r0, r1, r5, lsl sl
    9ca8:	058a1500 	streq	r1, [sl, #1280]	; 0x500
    9cac:	25150000 	ldrcs	r0, [r5, #-0]
    9cb0:	00000000 	andeq	r0, r0, r0
    9cb4:	0119040e 	tsteq	r9, lr, lsl #8
    9cb8:	040e0000 	streq	r0, [lr], #-0
    9cbc:	0000056c 	andeq	r0, r0, ip, ror #10
    9cc0:	00008614 	andeq	r8, r0, r4, lsl r6
    9cc4:	0005b400 	andeq	fp, r5, r0, lsl #8
    9cc8:	04291500 	strteq	r1, [r9], #-1280	; 0xfffffb00
    9ccc:	0a150000 	beq	549cd4 <__bss_end__+0x54026c>
    9cd0:	15000001 	strne	r0, [r0, #-1]
    9cd4:	00000086 	andeq	r0, r0, r6, lsl #1
    9cd8:	00002515 	andeq	r2, r0, r5, lsl r5
    9cdc:	040e0000 	streq	r0, [lr], #-0
    9ce0:	00000596 	muleq	r0, r6, r5
    9ce4:	00002514 	andeq	r2, r0, r4, lsl r5
    9ce8:	0005ce00 	andeq	ip, r5, r0, lsl #28
    9cec:	04291500 	strteq	r1, [r9], #-1280	; 0xfffffb00
    9cf0:	0a150000 	beq	549cf8 <__bss_end__+0x540290>
    9cf4:	00000001 	andeq	r0, r0, r1
    9cf8:	05ba040e 	ldreq	r0, [sl, #1038]!	; 0x40e
    9cfc:	54090000 	strpl	r0, [r9], #-0
    9d00:	e4000000 	str	r0, [r0], #-0
    9d04:	0a000005 	beq	9d20 <__bss_end__+0x2b8>
    9d08:	000000cc 	andeq	r0, r0, ip, asr #1
    9d0c:	54090002 	strpl	r0, [r9], #-2
    9d10:	f4000000 	vst4.8	{d0-d3}, [r0], r0
    9d14:	0a000005 	beq	9d30 <__bss_end__+0x2c8>
    9d18:	000000cc 	andeq	r0, r0, ip, asr #1
    9d1c:	1e060000 	cdpne	0, 0, cr0, cr6, cr0, {0}
    9d20:	05000003 	streq	r0, [r0, #-3]
    9d24:	02e1011d 	rsceq	r0, r1, #1073741831	; 0x40000007
    9d28:	99190000 	ldmdbls	r9, {}	; <UNPREDICTABLE>
    9d2c:	0c000004 	stceq	0, cr0, [r0], {4}
    9d30:	35012105 	strcc	r2, [r1, #-261]	; 0xfffffefb
    9d34:	17000006 	strne	r0, [r0, -r6]
    9d38:	00000346 	andeq	r0, r0, r6, asr #6
    9d3c:	35012305 	strcc	r2, [r1, #-773]	; 0xfffffcfb
    9d40:	00000006 	andeq	r0, r0, r6
    9d44:	00020717 	andeq	r0, r2, r7, lsl r7
    9d48:	01240500 			; <UNDEFINED> instruction: 0x01240500
    9d4c:	00000025 	andeq	r0, r0, r5, lsr #32
    9d50:	03181704 	tsteq	r8, #4, 14	; 0x100000
    9d54:	25050000 	strcs	r0, [r5, #-0]
    9d58:	00063b01 	andeq	r3, r6, r1, lsl #22
    9d5c:	0e000800 	cdpeq	8, 0, cr0, cr0, cr0, {0}
    9d60:	00060004 	andeq	r0, r6, r4
    9d64:	f4040e00 			; <UNDEFINED> instruction: 0xf4040e00
    9d68:	19000005 	stmdbne	r0, {r0, r2}
    9d6c:	00000021 	andeq	r0, r0, r1, lsr #32
    9d70:	013d050e 	teqeq	sp, lr, lsl #10
    9d74:	00000676 	andeq	r0, r0, r6, ror r6
    9d78:	00038c17 	andeq	r8, r3, r7, lsl ip
    9d7c:	013e0500 	teqeq	lr, r0, lsl #10
    9d80:	00000676 	andeq	r0, r0, r6, ror r6
    9d84:	03b91700 			; <UNDEFINED> instruction: 0x03b91700
    9d88:	3f050000 	svccc	0x00050000
    9d8c:	00067601 	andeq	r7, r6, r1, lsl #12
    9d90:	37170600 	ldrcc	r0, [r7, -r0, lsl #12]
    9d94:	05000004 	streq	r0, [r0, #-4]
    9d98:	005b0140 	subseq	r0, fp, r0, asr #2
    9d9c:	000c0000 	andeq	r0, ip, r0
    9da0:	00005b09 	andeq	r5, r0, r9, lsl #22
    9da4:	00068600 	andeq	r8, r6, r0, lsl #12
    9da8:	00cc0a00 	sbceq	r0, ip, r0, lsl #20
    9dac:	00020000 	andeq	r0, r2, r0
    9db0:	5705d01a 	smladpl	r5, sl, r0, sp
    9db4:	00078702 	andeq	r8, r7, r2, lsl #14
    9db8:	047d1700 	ldrbteq	r1, [sp], #-1792	; 0xfffff900
    9dbc:	59050000 	stmdbpl	r5, {}	; <UNPREDICTABLE>
    9dc0:	00002c02 	andeq	r2, r0, r2, lsl #24
    9dc4:	21170000 	tstcs	r7, r0
    9dc8:	05000004 	streq	r0, [r0, #-4]
    9dcc:	010c025a 	tsteq	ip, sl, asr r2
    9dd0:	17040000 	strne	r0, [r4, -r0]
    9dd4:	00000244 	andeq	r0, r0, r4, asr #4
    9dd8:	87025b05 	strhi	r5, [r2, -r5, lsl #22]
    9ddc:	08000007 	stmdaeq	r0, {r0, r1, r2}
    9de0:	0004d517 	andeq	sp, r4, r7, lsl r5
    9de4:	025c0500 	subseq	r0, ip, #0, 10
    9de8:	00000192 	muleq	r0, r2, r1
    9dec:	01a41724 			; <UNDEFINED> instruction: 0x01a41724
    9df0:	5d050000 	stcpl	0, cr0, [r5, #-0]
    9df4:	00002502 	andeq	r2, r0, r2, lsl #10
    9df8:	41174800 	tstmi	r7, r0, lsl #16
    9dfc:	05000003 	streq	r0, [r0, #-3]
    9e00:	0069025e 	rsbeq	r0, r9, lr, asr r2
    9e04:	17500000 	ldrbne	r0, [r0, -r0]
    9e08:	000004eb 	andeq	r0, r0, fp, ror #9
    9e0c:	41025f05 	tstmi	r2, r5, lsl #30
    9e10:	58000006 	stmdapl	r0, {r1, r2}
    9e14:	00034c17 	andeq	r4, r3, r7, lsl ip
    9e18:	02600500 	rsbeq	r0, r0, #0, 10
    9e1c:	000000f4 	strdeq	r0, [r0], -r4
    9e20:	04f01768 	ldrbteq	r1, [r0], #1896	; 0x768
    9e24:	61050000 	mrsvs	r0, (UNDEF: 5)
    9e28:	0000f402 	andeq	pc, r0, r2, lsl #8
    9e2c:	93177000 	tstls	r7, #0
    9e30:	05000000 	streq	r0, [r0, #-0]
    9e34:	00f40262 	rscseq	r0, r4, r2, ror #4
    9e38:	17780000 	ldrbne	r0, [r8, -r0]!
    9e3c:	000004a8 	andeq	r0, r0, r8, lsr #9
    9e40:	97026305 	strls	r6, [r2, -r5, lsl #6]
    9e44:	80000007 	andhi	r0, r0, r7
    9e48:	00023817 	andeq	r3, r2, r7, lsl r8
    9e4c:	02640500 	rsbeq	r0, r4, #0, 10
    9e50:	000007a7 	andeq	r0, r0, r7, lsr #15
    9e54:	04441788 	strbeq	r1, [r4], #-1928	; 0xfffff878
    9e58:	65050000 	strvs	r0, [r5, #-0]
    9e5c:	00002502 	andeq	r2, r0, r2, lsl #10
    9e60:	6a17a000 	bvs	5f1e68 <__bss_end__+0x5e8400>
    9e64:	05000001 	streq	r0, [r0, #-1]
    9e68:	00f40266 	rscseq	r0, r4, r6, ror #4
    9e6c:	17a40000 	strne	r0, [r4, r0]!
    9e70:	00000084 	andeq	r0, r0, r4, lsl #1
    9e74:	f4026705 	vst1.8	{d6}, [r2], r5
    9e78:	ac000000 	stcge	0, cr0, [r0], {-0}
    9e7c:	00015917 	andeq	r5, r1, r7, lsl r9
    9e80:	02680500 	rsbeq	r0, r8, #0, 10
    9e84:	000000f4 	strdeq	r0, [r0], -r4
    9e88:	003c17b4 	ldrhteq	r1, [ip], -r4
    9e8c:	69050000 	stmdbvs	r5, {}	; <UNPREDICTABLE>
    9e90:	0000f402 	andeq	pc, r0, r2, lsl #8
    9e94:	4b17bc00 	blmi	5f8e9c <__bss_end__+0x5ef434>
    9e98:	05000000 	streq	r0, [r0, #-0]
    9e9c:	00f4026a 	rscseq	r0, r4, sl, ror #4
    9ea0:	17c40000 	strbne	r0, [r4, r0]
    9ea4:	000002f4 	strdeq	r0, [r0], -r4
    9ea8:	25026b05 	strcs	r6, [r2, #-2821]	; 0xfffff4fb
    9eac:	cc000000 	stcgt	0, cr0, [r0], {-0}
    9eb0:	01120900 	tsteq	r2, r0, lsl #18
    9eb4:	07970000 	ldreq	r0, [r7, r0]
    9eb8:	cc0a0000 	stcgt	0, cr0, [sl], {-0}
    9ebc:	19000000 	stmdbne	r0, {}	; <UNPREDICTABLE>
    9ec0:	01120900 	tsteq	r2, r0, lsl #18
    9ec4:	07a70000 	streq	r0, [r7, r0]!
    9ec8:	cc0a0000 	stcgt	0, cr0, [sl], {-0}
    9ecc:	07000000 	streq	r0, [r0, -r0]
    9ed0:	01120900 	tsteq	r2, r0, lsl #18
    9ed4:	07b70000 	ldreq	r0, [r7, r0]!
    9ed8:	cc0a0000 	stcgt	0, cr0, [sl], {-0}
    9edc:	17000000 	strne	r0, [r0, -r0]
    9ee0:	05f01a00 	ldrbeq	r1, [r0, #2560]!	; 0xa00
    9ee4:	07db0270 			; <UNDEFINED> instruction: 0x07db0270
    9ee8:	9b170000 	blls	5c9ef0 <__bss_end__+0x5c0488>
    9eec:	05000002 	streq	r0, [r0, #-2]
    9ef0:	07db0273 			; <UNDEFINED> instruction: 0x07db0273
    9ef4:	17000000 	strne	r0, [r0, -r0]
    9ef8:	0000049f 	muleq	r0, pc, r4	; <UNPREDICTABLE>
    9efc:	eb027405 	bl	a6f18 <__bss_end__+0x9d4b0>
    9f00:	78000007 	stmdavc	r0, {r0, r1, r2}
    9f04:	02db0900 	sbcseq	r0, fp, #0, 18
    9f08:	07eb0000 	strbeq	r0, [fp, r0]!
    9f0c:	cc0a0000 	stcgt	0, cr0, [sl], {-0}
    9f10:	1d000000 	stcne	0, cr0, [r0, #-0]
    9f14:	002c0900 	eoreq	r0, ip, r0, lsl #18
    9f18:	07fb0000 	ldrbeq	r0, [fp, r0]!
    9f1c:	cc0a0000 	stcgt	0, cr0, [sl], {-0}
    9f20:	1d000000 	stcne	0, cr0, [r0, #-0]
    9f24:	05f01b00 	ldrbeq	r1, [r0, #2816]!	; 0xb00
    9f28:	081d0255 	ldmdaeq	sp, {r0, r2, r4, r6, r9}
    9f2c:	851c0000 	ldrhi	r0, [ip, #-0]
    9f30:	05000003 	streq	r0, [r0, #-3]
    9f34:	0686026c 	streq	r0, [r6], ip, ror #4
    9f38:	c21c0000 	andsgt	r0, ip, #0
    9f3c:	05000004 	streq	r0, [r0, #-4]
    9f40:	07b70275 			; <UNDEFINED> instruction: 0x07b70275
    9f44:	09000000 	stmdbeq	r0, {}	; <UNPREDICTABLE>
    9f48:	00000112 	andeq	r0, r0, r2, lsl r1
    9f4c:	0000082d 	andeq	r0, r0, sp, lsr #16
    9f50:	0000cc0a 	andeq	ip, r0, sl, lsl #24
    9f54:	1d001800 	stcne	8, cr1, [r0, #-0]
    9f58:	00000838 	andeq	r0, r0, r8, lsr r8
    9f5c:	00042915 	andeq	r2, r4, r5, lsl r9
    9f60:	040e0000 	streq	r0, [lr], #-0
    9f64:	0000082d 	andeq	r0, r0, sp, lsr #16
    9f68:	017c040e 	cmneq	ip, lr, lsl #8
    9f6c:	4f1d0000 	svcmi	0x001d0000
    9f70:	15000008 	strne	r0, [r0, #-8]
    9f74:	00000025 	andeq	r0, r0, r5, lsr #32
    9f78:	55040e00 	strpl	r0, [r4, #-3584]	; 0xfffff200
    9f7c:	0e000008 	cdpeq	0, 0, cr0, cr0, cr8, {0}
    9f80:	00084404 	andeq	r4, r8, r4, lsl #8
    9f84:	05f40900 	ldrbeq	r0, [r4, #2304]!	; 0x900
    9f88:	086b0000 	stmdaeq	fp!, {}^	; <UNPREDICTABLE>
    9f8c:	cc0a0000 	stcgt	0, cr0, [sl], {-0}
    9f90:	02000000 	andeq	r0, r0, #0
    9f94:	04581e00 	ldrbeq	r1, [r8], #-3584	; 0xfffff200
    9f98:	fd050000 	stc2	0, cr0, [r5, #-0]
    9f9c:	00042902 	andeq	r2, r4, r2, lsl #18
    9fa0:	04511e00 	ldrbeq	r1, [r1], #-3584	; 0xfffff200
    9fa4:	fe050000 	cdp2	0, 0, cr0, cr5, cr0, {0}
    9fa8:	00042f02 	andeq	r2, r4, r2, lsl #30
    9fac:	00251400 	eoreq	r1, r5, r0, lsl #8
    9fb0:	08920000 	ldmeq	r2, {}	; <UNPREDICTABLE>
    9fb4:	25150000 	ldrcs	r0, [r5, #-0]
    9fb8:	00000000 	andeq	r0, r0, r0
    9fbc:	0001bd1f 	andeq	fp, r1, pc, lsl sp
    9fc0:	9d1d0600 	ldcls	6, cr0, [sp, #-0]
    9fc4:	0e000008 	cdpeq	0, 0, cr0, cr0, cr8, {0}
    9fc8:	00088304 	andeq	r8, r8, r4, lsl #6
    9fcc:	00251400 	eoreq	r1, r5, r0, lsl #8
    9fd0:	08b20000 	ldmeq	r2!, {}	; <UNPREDICTABLE>
    9fd4:	8a150000 	bhi	549fdc <__bss_end__+0x540574>
    9fd8:	00000005 	andeq	r0, r0, r5
    9fdc:	0007561f 	andeq	r5, r7, pc, lsl r6
    9fe0:	bd220600 	stclt	6, cr0, [r2, #-0]
    9fe4:	0e000008 	cdpeq	0, 0, cr0, cr0, cr8, {0}
    9fe8:	0008a304 	andeq	sl, r8, r4, lsl #6
    9fec:	54012000 	strpl	r2, [r1], #-0
    9ff0:	07000000 	streq	r0, [r0, -r0]
    9ff4:	0009000c 	andeq	r0, r9, ip
    9ff8:	08f02100 	ldmeq	r0!, {r8, sp}^
    9ffc:	21000000 	mrscs	r0, (UNDEF: 0)
    a000:	000009ca 	andeq	r0, r0, sl, asr #19
    a004:	0a052101 	beq	152410 <__bss_end__+0x1489a8>
    a008:	21040000 	mrscs	r0, (UNDEF: 4)
    a00c:	00000905 	andeq	r0, r0, r5, lsl #18
    a010:	09912105 	ldmibeq	r1, {r0, r2, r8, sp}
    a014:	21060000 	mrscs	r0, (UNDEF: 6)
    a018:	00000a14 	andeq	r0, r0, r4, lsl sl
    a01c:	0a232107 	beq	8d2440 <__bss_end__+0x8c89d8>
    a020:	21030000 	mrscs	r0, (UNDEF: 3)
    a024:	00000a32 	andeq	r0, r0, r2, lsr sl
    a028:	ae050002 	cdpge	0, 0, cr0, cr5, cr2, {0}
    a02c:	0700000a 	streq	r0, [r0, -sl]
    a030:	0008c315 	andeq	ip, r8, r5, lsl r3
    a034:	0a7f2200 	beq	1fd283c <__bss_end__+0x1fc8dd4>
    a038:	1d010000 	stcne	0, cr0, [r1, #-0]
    a03c:	00000033 	andeq	r0, r0, r3, lsr r0
    a040:	2020001c 	eorcs	r0, r0, ip, lsl r0
    a044:	000aba22 	andeq	fp, sl, r2, lsr #20
    a048:	331e0100 	tstcc	lr, #0, 2
    a04c:	28000000 	stmdacs	r0, {}	; <UNPREDICTABLE>
    a050:	22202000 	eorcs	r2, r0, #0
    a054:	00000a89 	andeq	r0, r0, r9, lsl #21
    a058:	00331f01 	eorseq	r1, r3, r1, lsl #30
    a05c:	00340000 	eorseq	r0, r4, r0
    a060:	5a232020 	bpl	8d20e8 <__bss_end__+0x8c8680>
    a064:	0100000a 	tsteq	r0, sl
    a068:	00002556 	andeq	r2, r0, r6, asr r5
    a06c:	0091e400 	addseq	lr, r1, r0, lsl #8
    a070:	00003400 	andeq	r3, r0, r0, lsl #8
    a074:	989c0100 	ldmls	ip, {r8}
    a078:	24000009 	strcs	r0, [r0], #-9
    a07c:	006e6970 	rsbeq	r6, lr, r0, ror r9
    a080:	002c5601 	eoreq	r5, ip, r1, lsl #12
    a084:	0f970000 	svceq	0x00970000
    a088:	4e250000 	cdpmi	0, 2, cr0, cr5, cr0, {0}
    a08c:	0100000a 	tsteq	r0, sl
    a090:	00002c59 	andeq	r2, r0, r9, asr ip
    a094:	000fd100 	andeq	sp, pc, r0, lsl #2
    a098:	666f2600 	strbtvs	r2, [pc], -r0, lsl #12
    a09c:	5a010066 	bpl	4a23c <__bss_end__+0x407d4>
    a0a0:	0000002c 	andeq	r0, r0, ip, lsr #32
    a0a4:	0000100f 	andeq	r1, r0, pc
    a0a8:	00920027 	addseq	r0, r2, r7, lsr #32
    a0ac:	000b5d00 	andeq	r5, fp, r0, lsl #26
    a0b0:	50012800 	andpl	r2, r1, r0, lsl #16
    a0b4:	5001f30b 	andpl	pc, r1, fp, lsl #6
    a0b8:	b4232535 	strtlt	r2, [r3], #-1333	; 0xfffffacb
    a0bc:	02818080 	addeq	r8, r1, #128	; 0x80
    a0c0:	74290000 	strtvc	r0, [r9], #-0
    a0c4:	0100000a 	tsteq	r0, sl
    a0c8:	0091c84f 	addseq	ip, r1, pc, asr #16
    a0cc:	00001c00 	andeq	r1, r0, r0, lsl #24
    a0d0:	e89c0100 	ldm	ip, {r8}
    a0d4:	24000009 	strcs	r0, [r0], #-9
    a0d8:	006e6970 	rsbeq	r6, lr, r0, ror r9
    a0dc:	002c4f01 	eoreq	r4, ip, r1, lsl #30
    a0e0:	10220000 	eorne	r0, r2, r0
    a0e4:	76240000 	strtvc	r0, [r4], -r0
    a0e8:	2c4f0100 	stfcse	f0, [pc], {-0}
    a0ec:	5c000000 	stcpl	0, cr0, [r0], {-0}
    a0f0:	2a000010 	bcs	a138 <__bss_end__+0x6d0>
    a0f4:	000091d8 	ldrdeq	r9, [r0], -r8
    a0f8:	00000a23 	andeq	r0, r0, r3, lsr #20
    a0fc:	000009de 	ldrdeq	r0, [r0], -lr
    a100:	03500128 	cmpeq	r0, #40, 2
    a104:	005001f3 	ldrsheq	r0, [r0], #-19	; 0xffffffed
    a108:	0091e02b 	addseq	lr, r1, fp, lsr #32
    a10c:	000a6400 	andeq	r6, sl, r0, lsl #8
    a110:	93290000 			; <UNDEFINED> instruction: 0x93290000
    a114:	0100000a 	tsteq	r0, sl
    a118:	0091b84a 	addseq	fp, r1, sl, asr #16
    a11c:	00001000 	andeq	r1, r0, r0
    a120:	239c0100 	orrscs	r0, ip, #0, 2
    a124:	2400000a 	strcs	r0, [r0], #-10
    a128:	006e6970 	rsbeq	r6, lr, r0, ror r9
    a12c:	002c4a01 	eoreq	r4, ip, r1, lsl #20
    a130:	10960000 	addsne	r0, r6, r0
    a134:	c4270000 	strtgt	r0, [r7], #-0
    a138:	e0000091 	mul	r0, r1, r0
    a13c:	2800000a 	stmdacs	r0, {r1, r3}
    a140:	f3035001 	vhadd.u8	d5, d3, d1
    a144:	01285001 			; <UNDEFINED> instruction: 0x01285001
    a148:	00300151 	eorseq	r0, r0, r1, asr r1
    a14c:	0a412900 	beq	1054554 <__bss_end__+0x104aaec>
    a150:	43010000 	movwmi	r0, #4096	; 0x1000
    a154:	00009194 	muleq	r0, r4, r1
    a158:	00000024 	andeq	r0, r0, r4, lsr #32
    a15c:	0a649c01 	beq	1931168 <__bss_end__+0x1927700>
    a160:	70240000 	eorvc	r0, r4, r0
    a164:	01006e69 	tsteq	r0, r9, ror #28
    a168:	00002c43 	andeq	r2, r0, r3, asr #24
    a16c:	0010b700 	andseq	fp, r0, r0, lsl #14
    a170:	91b02700 	lslsls	r2, r0, #14
    a174:	0b680000 	bleq	1a0a17c <__bss_end__+0x1a00714>
    a178:	01280000 			; <UNDEFINED> instruction: 0x01280000
    a17c:	280c0550 	stmdacs	ip, {r4, r6, r8, sl}
    a180:	28202000 	stmdacs	r0!, {sp}
    a184:	31055101 	tstcc	r5, r1, lsl #2
    a188:	245001f3 	ldrbcs	r0, [r0], #-499	; 0xfffffe0d
    a18c:	a2290000 	eorge	r0, r9, #0
    a190:	0100000a 	tsteq	r0, sl
    a194:	0091703c 	addseq	r7, r1, ip, lsr r0
    a198:	00002400 	andeq	r2, r0, r0, lsl #8
    a19c:	a59c0100 	ldrge	r0, [ip, #256]	; 0x100
    a1a0:	2400000a 	strcs	r0, [r0], #-10
    a1a4:	006e6970 	rsbeq	r6, lr, r0, ror r9
    a1a8:	002c3c01 	eoreq	r3, ip, r1, lsl #24
    a1ac:	10d80000 	sbcsne	r0, r8, r0
    a1b0:	8c270000 	stchi	0, cr0, [r7], #-0
    a1b4:	68000091 	stmdavs	r0, {r0, r4, r7}
    a1b8:	2800000b 	stmdacs	r0, {r0, r1, r3}
    a1bc:	0c055001 	stceq	0, cr5, [r5], {1}
    a1c0:	2020001c 	eorcs	r0, r0, ip, lsl r0
    a1c4:	05510128 	ldrbeq	r0, [r1, #-296]	; 0xfffffed8
    a1c8:	5001f331 	andpl	pc, r1, r1, lsr r3	; <UNPREDICTABLE>
    a1cc:	29000024 	stmdbcs	r0, {r2, r5}
    a1d0:	00000a64 	andeq	r0, r0, r4, ror #20
    a1d4:	91603701 	cmnls	r0, r1, lsl #14
    a1d8:	00100000 	andseq	r0, r0, r0
    a1dc:	9c010000 	stcls	0, cr0, [r1], {-0}
    a1e0:	00000ae0 	andeq	r0, r0, r0, ror #21
    a1e4:	6e697024 	cdpvs	0, 6, cr7, cr9, cr4, {1}
    a1e8:	2c370100 	ldfcss	f0, [r7], #-0
    a1ec:	f9000000 			; <UNDEFINED> instruction: 0xf9000000
    a1f0:	27000010 	smladcs	r0, r0, r0, r0
    a1f4:	0000916c 	andeq	r9, r0, ip, ror #2
    a1f8:	00000ae0 	andeq	r0, r0, r0, ror #21
    a1fc:	03500128 	cmpeq	r0, #40, 2
    a200:	285001f3 	ldmdacs	r0, {r0, r1, r4, r5, r6, r7, r8}^
    a204:	31015101 	tstcc	r1, r1, lsl #2
    a208:	a0290000 	eorge	r0, r9, r0
    a20c:	01000009 	tsteq	r0, r9
    a210:	0090f828 	addseq	pc, r0, r8, lsr #16
    a214:	00006800 	andeq	r6, r0, r0, lsl #16
    a218:	5d9c0100 	ldfpls	f0, [ip]
    a21c:	2400000b 	strcs	r0, [r0], #-11
    a220:	006e6970 	rsbeq	r6, lr, r0, ror r9
    a224:	002c2801 	eoreq	r2, ip, r1, lsl #16
    a228:	111a0000 	tstne	sl, r0
    a22c:	b72c0000 	strlt	r0, [ip, -r0]!
    a230:	01000004 	tsteq	r0, r4
    a234:	00090028 	andeq	r0, r9, r8, lsr #32
    a238:	00113b00 	andseq	r3, r1, r0, lsl #22
    a23c:	666f2d00 	strbtvs	r2, [pc], -r0, lsl #26
    a240:	2d010066 	stccs	0, cr0, [r1, #-408]	; 0xfffffe68
    a244:	0000002c 	andeq	r0, r0, ip, lsr #32
    a248:	672d5401 	strvs	r5, [sp, -r1, lsl #8]!
    a24c:	2c2f0100 	stfcss	f0, [pc], #-0	; a254 <__bss_end__+0x7ec>
    a250:	01000000 	mrseq	r0, (UNDEF: 0)
    a254:	00762656 	rsbseq	r2, r6, r6, asr r6
    a258:	002c3101 	eoreq	r3, ip, r1, lsl #2
    a25c:	115c0000 	cmpne	ip, r0
    a260:	442a0000 	strtmi	r0, [sl], #-0
    a264:	5d000091 	stcpl	0, cr0, [r0, #-580]	; 0xfffffdbc
    a268:	4c00000b 	stcmi	0, cr0, [r0], {11}
    a26c:	2800000b 	stmdacs	r0, {r0, r1, r3}
    a270:	76025001 	strvc	r5, [r2], -r1
    a274:	58270000 	stmdapl	r7!, {}	; <UNPREDICTABLE>
    a278:	68000091 	stmdavs	r0, {r0, r4, r7}
    a27c:	2800000b 	stmdacs	r0, {r0, r1, r3}
    a280:	76025001 	strvc	r5, [r2], -r1
    a284:	2e000000 	cdpcs	0, 0, cr0, cr0, cr0, {0}
    a288:	000008c4 	andeq	r0, r0, r4, asr #17
    a28c:	000008c4 	andeq	r0, r0, r4, asr #17
    a290:	f12ea706 			; <UNDEFINED> instruction: 0xf12ea706
    a294:	f1000007 	cps	#7
    a298:	06000007 	streq	r0, [r0], -r7
    a29c:	Address 0x000000000000a29c is out of bounds.


Disassembly of section .debug_abbrev:

00000000 <.debug_abbrev>:
       0:	25011101 	strcs	r1, [r1, #-257]	; 0xfffffeff
       4:	030b130e 	movweq	r1, #45838	; 0xb30e
       8:	110e1b0e 	tstne	lr, lr, lsl #22
       c:	10061201 	andne	r1, r6, r1, lsl #4
      10:	02000017 	andeq	r0, r0, #23
      14:	0b0b0024 	bleq	2c00ac <__bss_end__+0x2b6644>
      18:	08030b3e 	stmdaeq	r3, {r1, r2, r3, r4, r5, r8, r9, fp}
      1c:	24030000 	strcs	r0, [r3], #-0
      20:	3e0b0b00 	vmlacc.f64	d0, d11, d0
      24:	000e030b 	andeq	r0, lr, fp, lsl #6
      28:	00160400 	andseq	r0, r6, r0, lsl #8
      2c:	0b3a0e03 	bleq	e83840 <__bss_end__+0xe79dd8>
      30:	13490b3b 	movtne	r0, #39739	; 0x9b3b
      34:	16050000 	strne	r0, [r5], -r0
      38:	3a0e0300 	bcc	380c40 <__bss_end__+0x3771d8>
      3c:	49053b0b 	stmdbmi	r5, {r0, r1, r3, r8, r9, fp, ip, sp}
      40:	06000013 			; <UNDEFINED> instruction: 0x06000013
      44:	0b0b0117 	bleq	2c04a8 <__bss_end__+0x2b6a40>
      48:	0b3b0b3a 	bleq	ec2d38 <__bss_end__+0xeb92d0>
      4c:	00001301 	andeq	r1, r0, r1, lsl #6
      50:	03000d07 	movweq	r0, #3335	; 0xd07
      54:	3b0b3a0e 	blcc	2ce894 <__bss_end__+0x2c4e2c>
      58:	0013490b 	andseq	r4, r3, fp, lsl #18
      5c:	01010800 	tsteq	r1, r0, lsl #16
      60:	13011349 	movwne	r1, #4937	; 0x1349
      64:	21090000 	mrscs	r0, (UNDEF: 9)
      68:	2f134900 	svccs	0x00134900
      6c:	0a00000b 	beq	a0 <_start-0x7f60>
      70:	0b0b0113 	bleq	2c04c4 <__bss_end__+0x2b6a5c>
      74:	0b3b0b3a 	bleq	ec2d64 <__bss_end__+0xeb92fc>
      78:	00001301 	andeq	r1, r0, r1, lsl #6
      7c:	03000d0b 	movweq	r0, #3339	; 0xd0b
      80:	3b0b3a0e 	blcc	2ce8c0 <__bss_end__+0x2c4e58>
      84:	3813490b 	ldmdacc	r3, {r0, r1, r3, r8, fp, lr}
      88:	0c00000b 	stceq	0, cr0, [r0], {11}
      8c:	0b0b000f 	bleq	2c00d0 <__bss_end__+0x2b6668>
      90:	0f0d0000 	svceq	0x000d0000
      94:	490b0b00 	stmdbmi	fp, {r8, r9, fp}
      98:	0e000013 	mcreq	0, 0, r0, cr0, cr3, {0}
      9c:	13490026 	movtne	r0, #36902	; 0x9026
      a0:	130f0000 	movwne	r0, #61440	; 0xf000
      a4:	0b0e0301 	bleq	380cb0 <__bss_end__+0x377248>
      a8:	3b0b3a0b 	blcc	2ce8dc <__bss_end__+0x2c4e74>
      ac:	0013010b 	andseq	r0, r3, fp, lsl #2
      b0:	000d1000 	andeq	r1, sp, r0
      b4:	0b3a0803 	bleq	e820c8 <__bss_end__+0xe78660>
      b8:	13490b3b 	movtne	r0, #39739	; 0x9b3b
      bc:	00000b38 	andeq	r0, r0, r8, lsr fp
      c0:	03011311 	movweq	r1, #4881	; 0x1311
      c4:	3a050b0e 	bcc	142d04 <__bss_end__+0x13929c>
      c8:	010b3b0b 	tsteq	fp, fp, lsl #22
      cc:	12000013 	andne	r0, r0, #19
      d0:	0e03000d 	cdpeq	0, 0, cr0, cr3, cr13, {0}
      d4:	0b3b0b3a 	bleq	ec2dc4 <__bss_end__+0xeb935c>
      d8:	05381349 	ldreq	r1, [r8, #-841]!	; 0xfffffcb7
      dc:	15130000 	ldrne	r0, [r3, #-0]
      e0:	00192700 	andseq	r2, r9, r0, lsl #14
      e4:	01151400 	tsteq	r5, r0, lsl #8
      e8:	13491927 	movtne	r1, #39207	; 0x9927
      ec:	00001301 	andeq	r1, r0, r1, lsl #6
      f0:	49000515 	stmdbmi	r0, {r0, r2, r4, r8, sl}
      f4:	16000013 			; <UNDEFINED> instruction: 0x16000013
      f8:	0e030113 	mcreq	1, 0, r0, cr3, cr3, {0}
      fc:	0b3a050b 	bleq	e81530 <__bss_end__+0xe77ac8>
     100:	1301053b 	movwne	r0, #5435	; 0x153b
     104:	0d170000 	ldceq	0, cr0, [r7, #-0]
     108:	3a0e0300 	bcc	380d10 <__bss_end__+0x3772a8>
     10c:	49053b0b 	stmdbmi	r5, {r0, r1, r3, r8, r9, fp, ip, sp}
     110:	000b3813 	andeq	r3, fp, r3, lsl r8
     114:	000d1800 	andeq	r1, sp, r0, lsl #16
     118:	0b3a0e03 	bleq	e8392c <__bss_end__+0xe79ec4>
     11c:	1349053b 	movtne	r0, #38203	; 0x953b
     120:	00000538 	andeq	r0, r0, r8, lsr r5
     124:	03011319 	movweq	r1, #4889	; 0x1319
     128:	3a0b0b0e 	bcc	2c2d68 <__bss_end__+0x2b9300>
     12c:	01053b0b 	tsteq	r5, fp, lsl #22
     130:	1a000013 	bne	184 <_start-0x7e7c>
     134:	0b0b0113 	bleq	2c0588 <__bss_end__+0x2b6b20>
     138:	053b0b3a 	ldreq	r0, [fp, #-2874]!	; 0xfffff4c6
     13c:	00001301 	andeq	r1, r0, r1, lsl #6
     140:	0b01171b 	bleq	45db4 <__bss_end__+0x3c34c>
     144:	3b0b3a0b 	blcc	2ce978 <__bss_end__+0x2c4f10>
     148:	00130105 	andseq	r0, r3, r5, lsl #2
     14c:	000d1c00 	andeq	r1, sp, r0, lsl #24
     150:	0b3a0e03 	bleq	e83964 <__bss_end__+0xe79efc>
     154:	1349053b 	movtne	r0, #38203	; 0x953b
     158:	151d0000 	ldrne	r0, [sp, #-0]
     15c:	01192701 	tsteq	r9, r1, lsl #14
     160:	1e000013 	mcrne	0, 0, r0, cr0, cr3, {0}
     164:	0e030034 	mcreq	0, 0, r0, cr3, cr4, {1}
     168:	053b0b3a 	ldreq	r0, [fp, #-2874]!	; 0xfffff4c6
     16c:	193f1349 	ldmdbne	pc!, {r0, r3, r6, r8, r9, ip}	; <UNPREDICTABLE>
     170:	0000193c 	andeq	r1, r0, ip, lsr r9
     174:	0300341f 	movweq	r3, #1055	; 0x41f
     178:	3b0b3a0e 	blcc	2ce9b8 <__bss_end__+0x2c4f50>
     17c:	3f13490b 	svccc	0x0013490b
     180:	00193c19 	andseq	r3, r9, r9, lsl ip
     184:	012e2000 			; <UNDEFINED> instruction: 0x012e2000
     188:	0e03193f 			; <UNDEFINED> instruction: 0x0e03193f
     18c:	0b3b0b3a 	bleq	ec2e7c <__bss_end__+0xeb9414>
     190:	01111927 	tsteq	r1, r7, lsr #18
     194:	18400612 	stmdane	r0, {r1, r4, r9, sl}^
     198:	01194297 			; <UNDEFINED> instruction: 0x01194297
     19c:	21000013 	tstcs	r0, r3, lsl r0
     1a0:	08030034 	stmdaeq	r3, {r2, r4, r5}
     1a4:	0b3b0b3a 	bleq	ec2e94 <__bss_end__+0xeb942c>
     1a8:	17021349 	strne	r1, [r2, -r9, asr #6]
     1ac:	34220000 	strtcc	r0, [r2], #-0
     1b0:	490e0300 	stmdbmi	lr, {r8, r9}
     1b4:	02193413 	andseq	r3, r9, #318767104	; 0x13000000
     1b8:	23000018 	movwcs	r0, #24
     1bc:	01018289 	smlabbeq	r1, r9, r2, r8
     1c0:	13310111 	teqne	r1, #1073741828	; 0x40000004
     1c4:	00001301 	andeq	r1, r0, r1, lsl #6
     1c8:	01828a24 	orreq	r8, r2, r4, lsr #20
     1cc:	91180200 	tstls	r8, r0, lsl #4
     1d0:	00001842 	andeq	r1, r0, r2, asr #16
     1d4:	01828925 	orreq	r8, r2, r5, lsr #18
     1d8:	31011100 	mrscc	r1, (UNDEF: 17)
     1dc:	26000013 			; <UNDEFINED> instruction: 0x26000013
     1e0:	193f002e 	ldmdbne	pc!, {r1, r2, r3, r5}	; <UNPREDICTABLE>
     1e4:	0e6e193c 			; <UNDEFINED> instruction: 0x0e6e193c
     1e8:	0b3a0e03 	bleq	e839fc <__bss_end__+0xe79f94>
     1ec:	00000b3b 	andeq	r0, r0, fp, lsr fp
     1f0:	01110100 	tsteq	r1, r0, lsl #2
     1f4:	0b130e25 	bleq	4c3a90 <__bss_end__+0x4ba028>
     1f8:	0e1b0e03 	cdpeq	14, 1, cr0, cr11, cr3, {0}
     1fc:	06120111 			; <UNDEFINED> instruction: 0x06120111
     200:	00001710 	andeq	r1, r0, r0, lsl r7
     204:	0b002402 	bleq	9214 <gpio_read+0x30>
     208:	030b3e0b 	movweq	r3, #48651	; 0xbe0b
     20c:	03000008 	movweq	r0, #8
     210:	0b0b0024 	bleq	2c02a8 <__bss_end__+0x2b6840>
     214:	0e030b3e 	vmoveq.16	d3[0], r0
     218:	16040000 	strne	r0, [r4], -r0
     21c:	3a0e0300 	bcc	380e24 <__bss_end__+0x3773bc>
     220:	490b3b0b 	stmdbmi	fp, {r0, r1, r3, r8, r9, fp, ip, sp}
     224:	05000013 	streq	r0, [r0, #-19]	; 0xffffffed
     228:	0e030016 	mcreq	0, 0, r0, cr3, cr6, {0}
     22c:	053b0b3a 	ldreq	r0, [fp, #-2874]!	; 0xfffff4c6
     230:	00001349 	andeq	r1, r0, r9, asr #6
     234:	0b011706 	bleq	45e54 <__bss_end__+0x3c3ec>
     238:	3b0b3a0b 	blcc	2cea6c <__bss_end__+0x2c5004>
     23c:	0013010b 	andseq	r0, r3, fp, lsl #2
     240:	000d0700 	andeq	r0, sp, r0, lsl #14
     244:	0b3a0e03 	bleq	e83a58 <__bss_end__+0xe79ff0>
     248:	13490b3b 	movtne	r0, #39739	; 0x9b3b
     24c:	01080000 	mrseq	r0, (UNDEF: 8)
     250:	01134901 	tsteq	r3, r1, lsl #18
     254:	09000013 	stmdbeq	r0, {r0, r1, r4}
     258:	13490021 	movtne	r0, #36897	; 0x9021
     25c:	00000b2f 	andeq	r0, r0, pc, lsr #22
     260:	0b01130a 	bleq	44e90 <__bss_end__+0x3b428>
     264:	3b0b3a0b 	blcc	2cea98 <__bss_end__+0x2c5030>
     268:	0013010b 	andseq	r0, r3, fp, lsl #2
     26c:	000d0b00 	andeq	r0, sp, r0, lsl #22
     270:	0b3a0e03 	bleq	e83a84 <__bss_end__+0xe7a01c>
     274:	13490b3b 	movtne	r0, #39739	; 0x9b3b
     278:	00000b38 	andeq	r0, r0, r8, lsr fp
     27c:	0b000f0c 	bleq	3eb4 <_start-0x414c>
     280:	0d00000b 	stceq	0, cr0, [r0, #-44]	; 0xffffffd4
     284:	0b0b000f 	bleq	2c02c8 <__bss_end__+0x2b6860>
     288:	00001349 	andeq	r1, r0, r9, asr #6
     28c:	4900260e 	stmdbmi	r0, {r1, r2, r3, r9, sl, sp}
     290:	0f000013 	svceq	0x00000013
     294:	0e030113 	mcreq	1, 0, r0, cr3, cr3, {0}
     298:	0b3a0b0b 	bleq	e82ecc <__bss_end__+0xe79464>
     29c:	13010b3b 	movwne	r0, #6971	; 0x1b3b
     2a0:	0d100000 	ldceq	0, cr0, [r0, #-0]
     2a4:	3a080300 	bcc	200eac <__bss_end__+0x1f7444>
     2a8:	490b3b0b 	stmdbmi	fp, {r0, r1, r3, r8, r9, fp, ip, sp}
     2ac:	000b3813 	andeq	r3, fp, r3, lsl r8
     2b0:	01131100 	tsteq	r3, r0, lsl #2
     2b4:	050b0e03 	streq	r0, [fp, #-3587]	; 0xfffff1fd
     2b8:	0b3b0b3a 	bleq	ec2fa8 <__bss_end__+0xeb9540>
     2bc:	00001301 	andeq	r1, r0, r1, lsl #6
     2c0:	03000d12 	movweq	r0, #3346	; 0xd12
     2c4:	3b0b3a0e 	blcc	2ceb04 <__bss_end__+0x2c509c>
     2c8:	3813490b 	ldmdacc	r3, {r0, r1, r3, r8, fp, lr}
     2cc:	13000005 	movwne	r0, #5
     2d0:	19270015 	stmdbne	r7!, {r0, r2, r4}
     2d4:	15140000 	ldrne	r0, [r4, #-0]
     2d8:	49192701 	ldmdbmi	r9, {r0, r8, r9, sl, sp}
     2dc:	00130113 	andseq	r0, r3, r3, lsl r1
     2e0:	00051500 	andeq	r1, r5, r0, lsl #10
     2e4:	00001349 	andeq	r1, r0, r9, asr #6
     2e8:	03011316 	movweq	r1, #4886	; 0x1316
     2ec:	3a050b0e 	bcc	142f2c <__bss_end__+0x1394c4>
     2f0:	01053b0b 	tsteq	r5, fp, lsl #22
     2f4:	17000013 	smladne	r0, r3, r0, r0
     2f8:	0e03000d 	cdpeq	0, 0, cr0, cr3, cr13, {0}
     2fc:	053b0b3a 	ldreq	r0, [fp, #-2874]!	; 0xfffff4c6
     300:	0b381349 	bleq	e0502c <__bss_end__+0xdfb5c4>
     304:	0d180000 	ldceq	0, cr0, [r8, #-0]
     308:	3a0e0300 	bcc	380f10 <__bss_end__+0x3774a8>
     30c:	49053b0b 	stmdbmi	r5, {r0, r1, r3, r8, r9, fp, ip, sp}
     310:	00053813 	andeq	r3, r5, r3, lsl r8
     314:	01131900 	tsteq	r3, r0, lsl #18
     318:	0b0b0e03 	bleq	2c3b2c <__bss_end__+0x2ba0c4>
     31c:	053b0b3a 	ldreq	r0, [fp, #-2874]!	; 0xfffff4c6
     320:	00001301 	andeq	r1, r0, r1, lsl #6
     324:	0b01131a 	bleq	44f94 <__bss_end__+0x3b52c>
     328:	3b0b3a0b 	blcc	2ceb5c <__bss_end__+0x2c50f4>
     32c:	00130105 	andseq	r0, r3, r5, lsl #2
     330:	01171b00 	tsteq	r7, r0, lsl #22
     334:	0b3a0b0b 	bleq	e82f68 <__bss_end__+0xe79500>
     338:	1301053b 	movwne	r0, #5435	; 0x153b
     33c:	0d1c0000 	ldceq	0, cr0, [ip, #-0]
     340:	3a0e0300 	bcc	380f48 <__bss_end__+0x3774e0>
     344:	49053b0b 	stmdbmi	r5, {r0, r1, r3, r8, r9, fp, ip, sp}
     348:	1d000013 	stcne	0, cr0, [r0, #-76]	; 0xffffffb4
     34c:	19270115 	stmdbne	r7!, {r0, r2, r4, r8}
     350:	00001301 	andeq	r1, r0, r1, lsl #6
     354:	0300341e 	movweq	r3, #1054	; 0x41e
     358:	3b0b3a0e 	blcc	2ceb98 <__bss_end__+0x2c5130>
     35c:	3f134905 	svccc	0x00134905
     360:	00193c19 	andseq	r3, r9, r9, lsl ip
     364:	00341f00 	eorseq	r1, r4, r0, lsl #30
     368:	0b3a0e03 	bleq	e83b7c <__bss_end__+0xe7a114>
     36c:	13490b3b 	movtne	r0, #39739	; 0x9b3b
     370:	193c193f 	ldmdbne	ip!, {r0, r1, r2, r3, r4, r5, r8, fp, ip}
     374:	04200000 	strteq	r0, [r0], #-0
     378:	490b0b01 	stmdbmi	fp, {r0, r8, r9, fp}
     37c:	3b0b3a13 	blcc	2cebd0 <__bss_end__+0x2c5168>
     380:	0013010b 	andseq	r0, r3, fp, lsl #2
     384:	00282100 	eoreq	r2, r8, r0, lsl #2
     388:	0b1c0e03 	bleq	703b9c <__bss_end__+0x6fa134>
     38c:	28220000 	stmdacs	r2!, {}	; <UNPREDICTABLE>
     390:	1c0e0300 	stcne	3, cr0, [lr], {-0}
     394:	23000005 	movwcs	r0, #5
     398:	0e030034 	mcreq	0, 0, r0, cr3, cr4, {1}
     39c:	0b3b0b3a 	bleq	ec308c <__bss_end__+0xeb9624>
     3a0:	18021349 	stmdane	r2, {r0, r3, r6, r8, r9, ip}
     3a4:	2e240000 	cdpcs	0, 2, cr0, cr4, cr0, {0}
     3a8:	03193f01 	tsteq	r9, #1, 30
     3ac:	3b0b3a0e 	blcc	2cebec <__bss_end__+0x2c5184>
     3b0:	4919270b 	ldmdbmi	r9, {r0, r1, r3, r8, r9, sl, sp}
     3b4:	12011113 	andne	r1, r1, #-1073741820	; 0xc0000004
     3b8:	97184006 	ldrls	r4, [r8, -r6]
     3bc:	13011942 	movwne	r1, #6466	; 0x1942
     3c0:	34250000 	strtcc	r0, [r5], #-0
     3c4:	3a0e0300 	bcc	380fcc <__bss_end__+0x377564>
     3c8:	490b3b0b 	stmdbmi	fp, {r0, r1, r3, r8, r9, fp, ip, sp}
     3cc:	00170213 	andseq	r0, r7, r3, lsl r2
     3d0:	010b2600 	tsteq	fp, r0, lsl #12
     3d4:	13011755 	movwne	r1, #5973	; 0x1755
     3d8:	89270000 	stmdbhi	r7!, {}	; <UNPREDICTABLE>
     3dc:	11010182 	smlabbne	r1, r2, r1, r0
     3e0:	00133101 	andseq	r3, r3, r1, lsl #2
     3e4:	828a2800 	addhi	r2, sl, #0, 16
     3e8:	18020001 	stmdane	r2, {r0}
     3ec:	00184291 	mulseq	r8, r1, r2
     3f0:	82892900 	addhi	r2, r9, #0, 18
     3f4:	01110101 	tsteq	r1, r1, lsl #2
     3f8:	13011331 	movwne	r1, #4913	; 0x1331
     3fc:	052a0000 	streq	r0, [sl, #-0]!
     400:	3a0e0300 	bcc	381008 <__bss_end__+0x3775a0>
     404:	490b3b0b 	stmdbmi	fp, {r0, r1, r3, r8, r9, fp, ip, sp}
     408:	00170213 	andseq	r0, r7, r3, lsl r2
     40c:	00342b00 	eorseq	r2, r4, r0, lsl #22
     410:	0b3a0803 	bleq	e82424 <__bss_end__+0xe789bc>
     414:	13490b3b 	movtne	r0, #39739	; 0x9b3b
     418:	00001702 	andeq	r1, r0, r2, lsl #14
     41c:	0300342c 	movweq	r3, #1068	; 0x42c
     420:	3413490e 	ldrcc	r4, [r3], #-2318	; 0xfffff6f2
     424:	00180219 	andseq	r0, r8, r9, lsl r2
     428:	82892d00 	addhi	r2, r9, #0, 26
     42c:	01110001 	tsteq	r1, r1
     430:	00001331 	andeq	r1, r0, r1, lsr r3
     434:	3f012e2e 	svccc	0x00012e2e
     438:	3a0e0319 	bcc	3810a4 <__bss_end__+0x37763c>
     43c:	270b3b0b 	strcs	r3, [fp, -fp, lsl #22]
     440:	12011119 	andne	r1, r1, #1073741830	; 0x40000006
     444:	97184006 	ldrls	r4, [r8, -r6]
     448:	13011942 	movwne	r1, #6466	; 0x1942
     44c:	2e2f0000 	cdpcs	0, 2, cr0, cr15, cr0, {0}
     450:	3a0e0301 	bcc	38105c <__bss_end__+0x3775f4>
     454:	270b3b0b 	strcs	r3, [fp, -fp, lsl #22]
     458:	11134919 	tstne	r3, r9, lsl r9
     45c:	40061201 	andmi	r1, r6, r1, lsl #4
     460:	19429718 	stmdbne	r2, {r3, r4, r8, r9, sl, ip, pc}^
     464:	00001301 	andeq	r1, r0, r1, lsl #6
     468:	03000530 	movweq	r0, #1328	; 0x530
     46c:	3b0b3a08 	blcc	2cec94 <__bss_end__+0x2c522c>
     470:	0213490b 	andseq	r4, r3, #180224	; 0x2c000
     474:	31000017 	tstcc	r0, r7, lsl r0
     478:	08030034 	stmdaeq	r3, {r2, r4, r5}
     47c:	0b3b0b3a 	bleq	ec316c <__bss_end__+0xeb9704>
     480:	18021349 	stmdane	r2, {r0, r3, r6, r8, r9, ip}
     484:	2e320000 	cdpcs	0, 3, cr0, cr2, cr0, {0}
     488:	3c193f00 	ldccc	15, cr3, [r9], {-0}
     48c:	030e6e19 	movweq	r6, #60953	; 0xee19
     490:	3b0b3a0e 	blcc	2cecd0 <__bss_end__+0x2c5268>
     494:	0000000b 	andeq	r0, r0, fp
     498:	25011101 	strcs	r1, [r1, #-257]	; 0xfffffeff
     49c:	030b130e 	movweq	r1, #45838	; 0xb30e
     4a0:	110e1b0e 	tstne	lr, lr, lsl #22
     4a4:	10061201 	andne	r1, r6, r1, lsl #4
     4a8:	02000017 	andeq	r0, r0, #23
     4ac:	0e030016 	mcreq	0, 0, r0, cr3, cr6, {0}
     4b0:	0b3b0b3a 	bleq	ec31a0 <__bss_end__+0xeb9738>
     4b4:	00001349 	andeq	r1, r0, r9, asr #6
     4b8:	03011303 	movweq	r1, #4867	; 0x1303
     4bc:	3a0b0b0e 	bcc	2c30fc <__bss_end__+0x2b9694>
     4c0:	010b3b0b 	tsteq	fp, fp, lsl #22
     4c4:	04000013 	streq	r0, [r0], #-19	; 0xffffffed
     4c8:	0e03000d 	cdpeq	0, 0, cr0, cr3, cr13, {0}
     4cc:	0b381349 	bleq	e051f8 <__bss_end__+0xdfb790>
     4d0:	00001934 	andeq	r1, r0, r4, lsr r9
     4d4:	0b000f05 	bleq	40f0 <_start-0x3f10>
     4d8:	0600000b 	streq	r0, [r0], -fp
     4dc:	0b0b0024 	bleq	2c0574 <__bss_end__+0x2b6b0c>
     4e0:	08030b3e 	stmdaeq	r3, {r1, r2, r3, r4, r5, r8, r9, fp}
     4e4:	24070000 	strcs	r0, [r7], #-0
     4e8:	3e0b0b00 	vmlacc.f64	d0, d11, d0
     4ec:	000e030b 	andeq	r0, lr, fp, lsl #6
     4f0:	00160800 	andseq	r0, r6, r0, lsl #16
     4f4:	0b3a0e03 	bleq	e83d08 <__bss_end__+0xe7a2a0>
     4f8:	1349053b 	movtne	r0, #38203	; 0x953b
     4fc:	17090000 	strne	r0, [r9, -r0]
     500:	3a0b0b01 	bcc	2c310c <__bss_end__+0x2b96a4>
     504:	010b3b0b 	tsteq	fp, fp, lsl #22
     508:	0a000013 	beq	55c <_start-0x7aa4>
     50c:	0e03000d 	cdpeq	0, 0, cr0, cr3, cr13, {0}
     510:	0b3b0b3a 	bleq	ec3200 <__bss_end__+0xeb9798>
     514:	00001349 	andeq	r1, r0, r9, asr #6
     518:	4901010b 	stmdbmi	r1, {r0, r1, r3, r8}
     51c:	00130113 	andseq	r0, r3, r3, lsl r1
     520:	00210c00 	eoreq	r0, r1, r0, lsl #24
     524:	0b2f1349 	bleq	bc5250 <__bss_end__+0xbbb7e8>
     528:	130d0000 	movwne	r0, #53248	; 0xd000
     52c:	3a0b0b01 	bcc	2c3138 <__bss_end__+0x2b96d0>
     530:	010b3b0b 	tsteq	fp, fp, lsl #22
     534:	0e000013 	mcreq	0, 0, r0, cr0, cr3, {0}
     538:	0e03000d 	cdpeq	0, 0, cr0, cr3, cr13, {0}
     53c:	0b3b0b3a 	bleq	ec322c <__bss_end__+0xeb97c4>
     540:	0b381349 	bleq	e0526c <__bss_end__+0xdfb804>
     544:	0f0f0000 	svceq	0x000f0000
     548:	490b0b00 	stmdbmi	fp, {r8, r9, fp}
     54c:	10000013 	andne	r0, r0, r3, lsl r0
     550:	13490026 	movtne	r0, #36902	; 0x9026
     554:	0d110000 	ldceq	0, cr0, [r1, #-0]
     558:	3a080300 	bcc	201160 <__bss_end__+0x1f76f8>
     55c:	490b3b0b 	stmdbmi	fp, {r0, r1, r3, r8, r9, fp, ip, sp}
     560:	000b3813 	andeq	r3, fp, r3, lsl r8
     564:	01131200 	tsteq	r3, r0, lsl #4
     568:	050b0e03 	streq	r0, [fp, #-3587]	; 0xfffff1fd
     56c:	0b3b0b3a 	bleq	ec325c <__bss_end__+0xeb97f4>
     570:	00001301 	andeq	r1, r0, r1, lsl #6
     574:	03000d13 	movweq	r0, #3347	; 0xd13
     578:	3b0b3a0e 	blcc	2cedb8 <__bss_end__+0x2c5350>
     57c:	3813490b 	ldmdacc	r3, {r0, r1, r3, r8, fp, lr}
     580:	14000005 	strne	r0, [r0], #-5
     584:	19270015 	stmdbne	r7!, {r0, r2, r4}
     588:	15150000 	ldrne	r0, [r5, #-0]
     58c:	49192701 	ldmdbmi	r9, {r0, r8, r9, sl, sp}
     590:	00130113 	andseq	r0, r3, r3, lsl r1
     594:	00051600 	andeq	r1, r5, r0, lsl #12
     598:	00001349 	andeq	r1, r0, r9, asr #6
     59c:	03011317 	movweq	r1, #4887	; 0x1317
     5a0:	3a050b0e 	bcc	1431e0 <__bss_end__+0x139778>
     5a4:	01053b0b 	tsteq	r5, fp, lsl #22
     5a8:	18000013 	stmdane	r0, {r0, r1, r4}
     5ac:	0e03000d 	cdpeq	0, 0, cr0, cr3, cr13, {0}
     5b0:	053b0b3a 	ldreq	r0, [fp, #-2874]!	; 0xfffff4c6
     5b4:	0b381349 	bleq	e052e0 <__bss_end__+0xdfb878>
     5b8:	0d190000 	ldceq	0, cr0, [r9, #-0]
     5bc:	3a0e0300 	bcc	3811c4 <__bss_end__+0x37775c>
     5c0:	49053b0b 	stmdbmi	r5, {r0, r1, r3, r8, r9, fp, ip, sp}
     5c4:	00053813 	andeq	r3, r5, r3, lsl r8
     5c8:	01131a00 	tsteq	r3, r0, lsl #20
     5cc:	0b0b0e03 	bleq	2c3de0 <__bss_end__+0x2ba378>
     5d0:	053b0b3a 	ldreq	r0, [fp, #-2874]!	; 0xfffff4c6
     5d4:	00001301 	andeq	r1, r0, r1, lsl #6
     5d8:	0b01131b 	bleq	4524c <__bss_end__+0x3b7e4>
     5dc:	3b0b3a0b 	blcc	2cee10 <__bss_end__+0x2c53a8>
     5e0:	00130105 	andseq	r0, r3, r5, lsl #2
     5e4:	01171c00 	tsteq	r7, r0, lsl #24
     5e8:	0b3a0b0b 	bleq	e8321c <__bss_end__+0xe797b4>
     5ec:	1301053b 	movwne	r0, #5435	; 0x153b
     5f0:	0d1d0000 	ldceq	0, cr0, [sp, #-0]
     5f4:	3a0e0300 	bcc	3811fc <__bss_end__+0x377794>
     5f8:	49053b0b 	stmdbmi	r5, {r0, r1, r3, r8, r9, fp, ip, sp}
     5fc:	1e000013 	mcrne	0, 0, r0, cr0, cr3, {0}
     600:	19270115 	stmdbne	r7!, {r0, r2, r4, r8}
     604:	00001301 	andeq	r1, r0, r1, lsl #6
     608:	0300341f 	movweq	r3, #1055	; 0x41f
     60c:	3b0b3a0e 	blcc	2cee4c <__bss_end__+0x2c53e4>
     610:	3f134905 	svccc	0x00134905
     614:	00193c19 	andseq	r3, r9, r9, lsl ip
     618:	00342000 	eorseq	r2, r4, r0
     61c:	0b3a0e03 	bleq	e83e30 <__bss_end__+0xe7a3c8>
     620:	13490b3b 	movtne	r0, #39739	; 0x9b3b
     624:	193c193f 	ldmdbne	ip!, {r0, r1, r2, r3, r4, r5, r8, fp, ip}
     628:	2e210000 	cdpcs	0, 2, cr0, cr1, cr0, {0}
     62c:	03193f01 	tsteq	r9, #1, 30
     630:	3b0b3a0e 	blcc	2cee70 <__bss_end__+0x2c5408>
     634:	4919270b 	ldmdbmi	r9, {r0, r1, r3, r8, r9, sl, sp}
     638:	12011113 	andne	r1, r1, #-1073741820	; 0xc0000004
     63c:	97184006 	ldrls	r4, [r8, -r6]
     640:	13011942 	movwne	r1, #6466	; 0x1942
     644:	05220000 	streq	r0, [r2, #-0]!
     648:	3a080300 	bcc	201250 <__bss_end__+0x1f77e8>
     64c:	490b3b0b 	stmdbmi	fp, {r0, r1, r3, r8, r9, fp, ip, sp}
     650:	00180213 	andseq	r0, r8, r3, lsl r2
     654:	00182300 	andseq	r2, r8, r0, lsl #6
     658:	34240000 	strtcc	r0, [r4], #-0
     65c:	3a080300 	bcc	201264 <__bss_end__+0x1f77fc>
     660:	490b3b0b 	stmdbmi	fp, {r0, r1, r3, r8, r9, fp, ip, sp}
     664:	00180213 	andseq	r0, r8, r3, lsl r2
     668:	00342500 	eorseq	r2, r4, r0, lsl #10
     66c:	0b3a0e03 	bleq	e83e80 <__bss_end__+0xe7a418>
     670:	13490b3b 	movtne	r0, #39739	; 0x9b3b
     674:	00001802 	andeq	r1, r0, r2, lsl #16
     678:	03003426 	movweq	r3, #1062	; 0x426
     67c:	3b0b3a08 	blcc	2ceea4 <__bss_end__+0x2c543c>
     680:	0213490b 	andseq	r4, r3, #180224	; 0x2c000
     684:	27000017 	smladcs	r0, r7, r0, r0
     688:	01018289 	smlabbeq	r1, r9, r2, r8
     68c:	13310111 	teqne	r1, #1073741828	; 0x40000004
     690:	00001301 	andeq	r1, r0, r1, lsl #6
     694:	01828a28 	orreq	r8, r2, r8, lsr #20
     698:	91180200 	tstls	r8, r0, lsl #4
     69c:	00001842 	andeq	r1, r0, r2, asr #16
     6a0:	01828929 	orreq	r8, r2, r9, lsr #18
     6a4:	00011101 	andeq	r1, r1, r1, lsl #2
     6a8:	00212a00 	eoreq	r2, r1, r0, lsl #20
     6ac:	052f1349 	streq	r1, [pc, #-841]!	; 36b <_start-0x7c95>
     6b0:	2e2b0000 	cdpcs	0, 2, cr0, cr11, cr0, {0}
     6b4:	3c193f00 	ldccc	15, cr3, [r9], {-0}
     6b8:	030e6e19 	movweq	r6, #60953	; 0xee19
     6bc:	3b0b3a0e 	blcc	2ceefc <__bss_end__+0x2c5494>
     6c0:	0000000b 	andeq	r0, r0, fp
     6c4:	25011101 	strcs	r1, [r1, #-257]	; 0xfffffeff
     6c8:	030b130e 	movweq	r1, #45838	; 0xb30e
     6cc:	110e1b0e 	tstne	lr, lr, lsl #22
     6d0:	10061201 	andne	r1, r6, r1, lsl #4
     6d4:	02000017 	andeq	r0, r0, #23
     6d8:	0b0b0024 	bleq	2c0770 <__bss_end__+0x2b6d08>
     6dc:	08030b3e 	stmdaeq	r3, {r1, r2, r3, r4, r5, r8, r9, fp}
     6e0:	24030000 	strcs	r0, [r3], #-0
     6e4:	3e0b0b00 	vmlacc.f64	d0, d11, d0
     6e8:	000e030b 	andeq	r0, lr, fp, lsl #6
     6ec:	00160400 	andseq	r0, r6, r0, lsl #8
     6f0:	0b3a0e03 	bleq	e83f04 <__bss_end__+0xe7a49c>
     6f4:	13490b3b 	movtne	r0, #39739	; 0x9b3b
     6f8:	16050000 	strne	r0, [r5], -r0
     6fc:	3a0e0300 	bcc	381304 <__bss_end__+0x37789c>
     700:	49053b0b 	stmdbmi	r5, {r0, r1, r3, r8, r9, fp, ip, sp}
     704:	06000013 			; <UNDEFINED> instruction: 0x06000013
     708:	0b0b0117 	bleq	2c0b6c <__bss_end__+0x2b7104>
     70c:	0b3b0b3a 	bleq	ec33fc <__bss_end__+0xeb9994>
     710:	00001301 	andeq	r1, r0, r1, lsl #6
     714:	03000d07 	movweq	r0, #3335	; 0xd07
     718:	3b0b3a0e 	blcc	2cef58 <__bss_end__+0x2c54f0>
     71c:	0013490b 	andseq	r4, r3, fp, lsl #18
     720:	01010800 	tsteq	r1, r0, lsl #16
     724:	13011349 	movwne	r1, #4937	; 0x1349
     728:	21090000 	mrscs	r0, (UNDEF: 9)
     72c:	2f134900 	svccs	0x00134900
     730:	0a00000b 	beq	764 <_start-0x789c>
     734:	0b0b0113 	bleq	2c0b88 <__bss_end__+0x2b7120>
     738:	0b3b0b3a 	bleq	ec3428 <__bss_end__+0xeb99c0>
     73c:	00001301 	andeq	r1, r0, r1, lsl #6
     740:	03000d0b 	movweq	r0, #3339	; 0xd0b
     744:	3b0b3a0e 	blcc	2cef84 <__bss_end__+0x2c551c>
     748:	3813490b 	ldmdacc	r3, {r0, r1, r3, r8, fp, lr}
     74c:	0c00000b 	stceq	0, cr0, [r0], {11}
     750:	0b0b000f 	bleq	2c0794 <__bss_end__+0x2b6d2c>
     754:	0f0d0000 	svceq	0x000d0000
     758:	490b0b00 	stmdbmi	fp, {r8, r9, fp}
     75c:	0e000013 	mcreq	0, 0, r0, cr0, cr3, {0}
     760:	13490026 	movtne	r0, #36902	; 0x9026
     764:	130f0000 	movwne	r0, #61440	; 0xf000
     768:	0b0e0301 	bleq	381374 <__bss_end__+0x37790c>
     76c:	3b0b3a0b 	blcc	2cefa0 <__bss_end__+0x2c5538>
     770:	0013010b 	andseq	r0, r3, fp, lsl #2
     774:	000d1000 	andeq	r1, sp, r0
     778:	0b3a0803 	bleq	e8278c <__bss_end__+0xe78d24>
     77c:	13490b3b 	movtne	r0, #39739	; 0x9b3b
     780:	00000b38 	andeq	r0, r0, r8, lsr fp
     784:	03011311 	movweq	r1, #4881	; 0x1311
     788:	3a050b0e 	bcc	1433c8 <__bss_end__+0x139960>
     78c:	010b3b0b 	tsteq	fp, fp, lsl #22
     790:	12000013 	andne	r0, r0, #19
     794:	0e03000d 	cdpeq	0, 0, cr0, cr3, cr13, {0}
     798:	0b3b0b3a 	bleq	ec3488 <__bss_end__+0xeb9a20>
     79c:	05381349 	ldreq	r1, [r8, #-841]!	; 0xfffffcb7
     7a0:	15130000 	ldrne	r0, [r3, #-0]
     7a4:	00192700 	andseq	r2, r9, r0, lsl #14
     7a8:	01151400 	tsteq	r5, r0, lsl #8
     7ac:	13491927 	movtne	r1, #39207	; 0x9927
     7b0:	00001301 	andeq	r1, r0, r1, lsl #6
     7b4:	49000515 	stmdbmi	r0, {r0, r2, r4, r8, sl}
     7b8:	16000013 			; <UNDEFINED> instruction: 0x16000013
     7bc:	0e030113 	mcreq	1, 0, r0, cr3, cr3, {0}
     7c0:	0b3a050b 	bleq	e81bf4 <__bss_end__+0xe7818c>
     7c4:	1301053b 	movwne	r0, #5435	; 0x153b
     7c8:	0d170000 	ldceq	0, cr0, [r7, #-0]
     7cc:	3a0e0300 	bcc	3813d4 <__bss_end__+0x37796c>
     7d0:	49053b0b 	stmdbmi	r5, {r0, r1, r3, r8, r9, fp, ip, sp}
     7d4:	000b3813 	andeq	r3, fp, r3, lsl r8
     7d8:	000d1800 	andeq	r1, sp, r0, lsl #16
     7dc:	0b3a0e03 	bleq	e83ff0 <__bss_end__+0xe7a588>
     7e0:	1349053b 	movtne	r0, #38203	; 0x953b
     7e4:	00000538 	andeq	r0, r0, r8, lsr r5
     7e8:	03011319 	movweq	r1, #4889	; 0x1319
     7ec:	3a0b0b0e 	bcc	2c342c <__bss_end__+0x2b99c4>
     7f0:	01053b0b 	tsteq	r5, fp, lsl #22
     7f4:	1a000013 	bne	848 <_start-0x77b8>
     7f8:	0b0b0113 	bleq	2c0c4c <__bss_end__+0x2b71e4>
     7fc:	053b0b3a 	ldreq	r0, [fp, #-2874]!	; 0xfffff4c6
     800:	00001301 	andeq	r1, r0, r1, lsl #6
     804:	0b01171b 	bleq	46478 <__bss_end__+0x3ca10>
     808:	3b0b3a0b 	blcc	2cf03c <__bss_end__+0x2c55d4>
     80c:	00130105 	andseq	r0, r3, r5, lsl #2
     810:	000d1c00 	andeq	r1, sp, r0, lsl #24
     814:	0b3a0e03 	bleq	e84028 <__bss_end__+0xe7a5c0>
     818:	1349053b 	movtne	r0, #38203	; 0x953b
     81c:	151d0000 	ldrne	r0, [sp, #-0]
     820:	01192701 	tsteq	r9, r1, lsl #14
     824:	1e000013 	mcrne	0, 0, r0, cr0, cr3, {0}
     828:	0e030034 	mcreq	0, 0, r0, cr3, cr4, {1}
     82c:	053b0b3a 	ldreq	r0, [fp, #-2874]!	; 0xfffff4c6
     830:	193f1349 	ldmdbne	pc!, {r0, r3, r6, r8, r9, ip}	; <UNPREDICTABLE>
     834:	0000193c 	andeq	r1, r0, ip, lsr r9
     838:	0300341f 	movweq	r3, #1055	; 0x41f
     83c:	3b0b3a0e 	blcc	2cf07c <__bss_end__+0x2c5614>
     840:	3f13490b 	svccc	0x0013490b
     844:	00193c19 	andseq	r3, r9, r9, lsl ip
     848:	000d2000 	andeq	r2, sp, r0
     84c:	13490e03 	movtne	r0, #40451	; 0x9e03
     850:	19340b38 	ldmdbne	r4!, {r3, r4, r5, r8, r9, fp}
     854:	2e210000 	cdpcs	0, 2, cr0, cr1, cr0, {0}
     858:	03193f01 	tsteq	r9, #1, 30
     85c:	3b0b3a0e 	blcc	2cf09c <__bss_end__+0x2c5634>
     860:	4919270b 	ldmdbmi	r9, {r0, r1, r3, r8, r9, sl, sp}
     864:	12011113 	andne	r1, r1, #-1073741820	; 0xc0000004
     868:	97184006 	ldrls	r4, [r8, -r6]
     86c:	13011942 	movwne	r1, #6466	; 0x1942
     870:	05220000 	streq	r0, [r2, #-0]!
     874:	3a080300 	bcc	20147c <__bss_end__+0x1f7a14>
     878:	490b3b0b 	stmdbmi	fp, {r0, r1, r3, r8, r9, fp, ip, sp}
     87c:	00170213 	andseq	r0, r7, r3, lsl r2
     880:	00052300 	andeq	r2, r5, r0, lsl #6
     884:	0b3a0e03 	bleq	e84098 <__bss_end__+0xe7a630>
     888:	13490b3b 	movtne	r0, #39739	; 0x9b3b
     88c:	00001802 	andeq	r1, r0, r2, lsl #16
     890:	03003424 	movweq	r3, #1060	; 0x424
     894:	3b0b3a08 	blcc	2cf0bc <__bss_end__+0x2c5654>
     898:	0213490b 	andseq	r4, r3, #180224	; 0x2c000
     89c:	25000017 	strcs	r0, [r0, #-23]	; 0xffffffe9
     8a0:	0e030034 	mcreq	0, 0, r0, cr3, cr4, {1}
     8a4:	19341349 	ldmdbne	r4!, {r0, r3, r6, r8, r9, ip}
     8a8:	00001802 	andeq	r1, r0, r2, lsl #16
     8ac:	55010b26 	strpl	r0, [r1, #-2854]	; 0xfffff4da
     8b0:	27000017 	smladcs	r0, r7, r0, r0
     8b4:	08030034 	stmdaeq	r3, {r2, r4, r5}
     8b8:	0b3b0b3a 	bleq	ec35a8 <__bss_end__+0xeb9b40>
     8bc:	18021349 	stmdane	r2, {r0, r3, r6, r8, r9, ip}
     8c0:	34280000 	strtcc	r0, [r8], #-0
     8c4:	3a0e0300 	bcc	3814cc <__bss_end__+0x377a64>
     8c8:	490b3b0b 	stmdbmi	fp, {r0, r1, r3, r8, r9, fp, ip, sp}
     8cc:	00170213 	andseq	r0, r7, r3, lsl r2
     8d0:	82892900 	addhi	r2, r9, #0, 18
     8d4:	01110101 	tsteq	r1, r1, lsl #2
     8d8:	13011331 	movwne	r1, #4913	; 0x1331
     8dc:	8a2a0000 	bhi	a808e4 <__bss_end__+0xa76e7c>
     8e0:	02000182 	andeq	r0, r0, #-2147483616	; 0x80000020
     8e4:	18429118 	stmdane	r2, {r3, r4, r8, ip, pc}^
     8e8:	892b0000 	stmdbhi	fp!, {}	; <UNPREDICTABLE>
     8ec:	11000182 	smlabbne	r0, r2, r1, r0
     8f0:	00133101 	andseq	r3, r3, r1, lsl #2
     8f4:	012e2c00 			; <UNDEFINED> instruction: 0x012e2c00
     8f8:	0b3a0e03 	bleq	e8410c <__bss_end__+0xe7a6a4>
     8fc:	19270b3b 	stmdbne	r7!, {r0, r1, r3, r4, r5, r8, r9, fp}
     900:	01111349 	tsteq	r1, r9, asr #6
     904:	18400612 	stmdane	r0, {r1, r4, r9, sl}^
     908:	01194297 			; <UNDEFINED> instruction: 0x01194297
     90c:	2d000013 	stccs	0, cr0, [r0, #-76]	; 0xffffffb4
     910:	0e030005 	cdpeq	0, 0, cr0, cr3, cr5, {0}
     914:	0b3b0b3a 	bleq	ec3604 <__bss_end__+0xeb9b9c>
     918:	17021349 	strne	r1, [r2, -r9, asr #6]
     91c:	0b2e0000 	bleq	b80924 <__bss_end__+0xb76ebc>
     920:	12011101 	andne	r1, r1, #1073741824	; 0x40000000
     924:	00130106 	andseq	r0, r3, r6, lsl #2
     928:	012e2f00 			; <UNDEFINED> instruction: 0x012e2f00
     92c:	0b3a0803 	bleq	e82940 <__bss_end__+0xe78ed8>
     930:	19270b3b 	stmdbne	r7!, {r0, r1, r3, r4, r5, r8, r9, fp}
     934:	01111349 	tsteq	r1, r9, asr #6
     938:	18400612 	stmdane	r0, {r1, r4, r9, sl}^
     93c:	01194297 			; <UNDEFINED> instruction: 0x01194297
     940:	30000013 	andcc	r0, r0, r3, lsl r0
     944:	193f012e 	ldmdbne	pc!, {r1, r2, r3, r5, r8}	; <UNPREDICTABLE>
     948:	0b3a0e03 	bleq	e8415c <__bss_end__+0xe7a6f4>
     94c:	19270b3b 	stmdbne	r7!, {r0, r1, r3, r4, r5, r8, r9, fp}
     950:	06120111 			; <UNDEFINED> instruction: 0x06120111
     954:	42971840 	addsmi	r1, r7, #64, 16	; 0x400000
     958:	00130119 	andseq	r0, r3, r9, lsl r1
     95c:	002e3100 	eoreq	r3, lr, r0, lsl #2
     960:	193c193f 	ldmdbne	ip!, {r0, r1, r2, r3, r4, r5, r8, fp, ip}
     964:	0e030e6e 	cdpeq	14, 0, cr0, cr3, cr14, {3}
     968:	0b3b0b3a 	bleq	ec3658 <__bss_end__+0xeb9bf0>
     96c:	01000000 	mrseq	r0, (UNDEF: 0)
     970:	0e250111 	mcreq	1, 1, r0, cr5, cr1, {0}
     974:	0e030b13 	vmoveq.32	d3[0], r0
     978:	01110e1b 	tsteq	r1, fp, lsl lr
     97c:	17100612 			; <UNDEFINED> instruction: 0x17100612
     980:	24020000 	strcs	r0, [r2], #-0
     984:	3e0b0b00 	vmlacc.f64	d0, d11, d0
     988:	0008030b 	andeq	r0, r8, fp, lsl #6
     98c:	00160300 	andseq	r0, r6, r0, lsl #6
     990:	0b3a0e03 	bleq	e841a4 <__bss_end__+0xe7a73c>
     994:	13490b3b 	movtne	r0, #39739	; 0x9b3b
     998:	24040000 	strcs	r0, [r4], #-0
     99c:	3e0b0b00 	vmlacc.f64	d0, d11, d0
     9a0:	000e030b 	andeq	r0, lr, fp, lsl #6
     9a4:	00260500 	eoreq	r0, r6, r0, lsl #10
     9a8:	00001349 	andeq	r1, r0, r9, asr #6
     9ac:	03001606 	movweq	r1, #1542	; 0x606
     9b0:	3b0b3a0e 	blcc	2cf1f0 <__bss_end__+0x2c5788>
     9b4:	00134905 	andseq	r4, r3, r5, lsl #18
     9b8:	01170700 	tsteq	r7, r0, lsl #14
     9bc:	0b3a0b0b 	bleq	e835f0 <__bss_end__+0xe79b88>
     9c0:	13010b3b 	movwne	r0, #6971	; 0x1b3b
     9c4:	0d080000 	stceq	0, cr0, [r8, #-0]
     9c8:	3a0e0300 	bcc	3815d0 <__bss_end__+0x377b68>
     9cc:	490b3b0b 	stmdbmi	fp, {r0, r1, r3, r8, r9, fp, ip, sp}
     9d0:	09000013 	stmdbeq	r0, {r0, r1, r4}
     9d4:	13490101 	movtne	r0, #37121	; 0x9101
     9d8:	00001301 	andeq	r1, r0, r1, lsl #6
     9dc:	4900210a 	stmdbmi	r0, {r1, r3, r8, sp}
     9e0:	000b2f13 	andeq	r2, fp, r3, lsl pc
     9e4:	01130b00 	tsteq	r3, r0, lsl #22
     9e8:	0b3a0b0b 	bleq	e8361c <__bss_end__+0xe79bb4>
     9ec:	13010b3b 	movwne	r0, #6971	; 0x1b3b
     9f0:	0d0c0000 	stceq	0, cr0, [ip, #-0]
     9f4:	3a0e0300 	bcc	3815fc <__bss_end__+0x377b94>
     9f8:	490b3b0b 	stmdbmi	fp, {r0, r1, r3, r8, r9, fp, ip, sp}
     9fc:	000b3813 	andeq	r3, fp, r3, lsl r8
     a00:	000f0d00 	andeq	r0, pc, r0, lsl #26
     a04:	00000b0b 	andeq	r0, r0, fp, lsl #22
     a08:	0b000f0e 	bleq	4648 <_start-0x39b8>
     a0c:	0013490b 	andseq	r4, r3, fp, lsl #18
     a10:	01130f00 	tsteq	r3, r0, lsl #30
     a14:	0b0b0e03 	bleq	2c4228 <__bss_end__+0x2ba7c0>
     a18:	0b3b0b3a 	bleq	ec3708 <__bss_end__+0xeb9ca0>
     a1c:	00001301 	andeq	r1, r0, r1, lsl #6
     a20:	03000d10 	movweq	r0, #3344	; 0xd10
     a24:	3b0b3a08 	blcc	2cf24c <__bss_end__+0x2c57e4>
     a28:	3813490b 	ldmdacc	r3, {r0, r1, r3, r8, fp, lr}
     a2c:	1100000b 	tstne	r0, fp
     a30:	0e030113 	mcreq	1, 0, r0, cr3, cr3, {0}
     a34:	0b3a050b 	bleq	e81e68 <__bss_end__+0xe78400>
     a38:	13010b3b 	movwne	r0, #6971	; 0x1b3b
     a3c:	0d120000 	ldceq	0, cr0, [r2, #-0]
     a40:	3a0e0300 	bcc	381648 <__bss_end__+0x377be0>
     a44:	490b3b0b 	stmdbmi	fp, {r0, r1, r3, r8, r9, fp, ip, sp}
     a48:	00053813 	andeq	r3, r5, r3, lsl r8
     a4c:	00151300 	andseq	r1, r5, r0, lsl #6
     a50:	00001927 	andeq	r1, r0, r7, lsr #18
     a54:	27011514 	smladcs	r1, r4, r5, r1
     a58:	01134919 	tsteq	r3, r9, lsl r9
     a5c:	15000013 	strne	r0, [r0, #-19]	; 0xffffffed
     a60:	13490005 	movtne	r0, #36869	; 0x9005
     a64:	13160000 	tstne	r6, #0
     a68:	0b0e0301 	bleq	381674 <__bss_end__+0x377c0c>
     a6c:	3b0b3a05 	blcc	2cf288 <__bss_end__+0x2c5820>
     a70:	00130105 	andseq	r0, r3, r5, lsl #2
     a74:	000d1700 	andeq	r1, sp, r0, lsl #14
     a78:	0b3a0e03 	bleq	e8428c <__bss_end__+0xe7a824>
     a7c:	1349053b 	movtne	r0, #38203	; 0x953b
     a80:	00000b38 	andeq	r0, r0, r8, lsr fp
     a84:	03000d18 	movweq	r0, #3352	; 0xd18
     a88:	3b0b3a0e 	blcc	2cf2c8 <__bss_end__+0x2c5860>
     a8c:	38134905 	ldmdacc	r3, {r0, r2, r8, fp, lr}
     a90:	19000005 	stmdbne	r0, {r0, r2}
     a94:	0e030113 	mcreq	1, 0, r0, cr3, cr3, {0}
     a98:	0b3a0b0b 	bleq	e836cc <__bss_end__+0xe79c64>
     a9c:	1301053b 	movwne	r0, #5435	; 0x153b
     aa0:	131a0000 	tstne	sl, #0
     aa4:	3a0b0b01 	bcc	2c36b0 <__bss_end__+0x2b9c48>
     aa8:	01053b0b 	tsteq	r5, fp, lsl #22
     aac:	1b000013 	blne	b00 <_start-0x7500>
     ab0:	0b0b0117 	bleq	2c0f14 <__bss_end__+0x2b74ac>
     ab4:	053b0b3a 	ldreq	r0, [fp, #-2874]!	; 0xfffff4c6
     ab8:	00001301 	andeq	r1, r0, r1, lsl #6
     abc:	03000d1c 	movweq	r0, #3356	; 0xd1c
     ac0:	3b0b3a0e 	blcc	2cf300 <__bss_end__+0x2c5898>
     ac4:	00134905 	andseq	r4, r3, r5, lsl #18
     ac8:	01151d00 	tsteq	r5, r0, lsl #26
     acc:	13011927 	movwne	r1, #6439	; 0x1927
     ad0:	341e0000 	ldrcc	r0, [lr], #-0
     ad4:	3a0e0300 	bcc	3816dc <__bss_end__+0x377c74>
     ad8:	49053b0b 	stmdbmi	r5, {r0, r1, r3, r8, r9, fp, ip, sp}
     adc:	3c193f13 	ldccc	15, cr3, [r9], {19}
     ae0:	1f000019 	svcne	0x00000019
     ae4:	193f012e 	ldmdbne	pc!, {r1, r2, r3, r5, r8}	; <UNPREDICTABLE>
     ae8:	0b3a0e03 	bleq	e842fc <__bss_end__+0xe7a894>
     aec:	19270b3b 	stmdbne	r7!, {r0, r1, r3, r4, r5, r8, r9, fp}
     af0:	01111349 	tsteq	r1, r9, asr #6
     af4:	18400612 	stmdane	r0, {r1, r4, r9, sl}^
     af8:	01194297 			; <UNDEFINED> instruction: 0x01194297
     afc:	20000013 	andcs	r0, r0, r3, lsl r0
     b00:	08030005 	stmdaeq	r3, {r0, r2}
     b04:	0b3b0b3a 	bleq	ec37f4 <__bss_end__+0xeb9d8c>
     b08:	18021349 	stmdane	r2, {r0, r3, r6, r8, r9, ip}
     b0c:	05210000 	streq	r0, [r1, #-0]!
     b10:	3a0e0300 	bcc	381718 <__bss_end__+0x377cb0>
     b14:	490b3b0b 	stmdbmi	fp, {r0, r1, r3, r8, r9, fp, ip, sp}
     b18:	00170213 	andseq	r0, r7, r3, lsl r2
     b1c:	010b2200 	mrseq	r2, R11_fiq
     b20:	06120111 			; <UNDEFINED> instruction: 0x06120111
     b24:	00001301 	andeq	r1, r0, r1, lsl #6
     b28:	03003423 	movweq	r3, #1059	; 0x423
     b2c:	3b0b3a08 	blcc	2cf354 <__bss_end__+0x2c58ec>
     b30:	0213490b 	andseq	r4, r3, #180224	; 0x2c000
     b34:	24000017 	strcs	r0, [r0], #-23	; 0xffffffe9
     b38:	0111010b 	tsteq	r1, fp, lsl #2
     b3c:	00000612 	andeq	r0, r0, r2, lsl r6
     b40:	03003425 	movweq	r3, #1061	; 0x425
     b44:	3b0b3a08 	blcc	2cf36c <__bss_end__+0x2c5904>
     b48:	0013490b 	andseq	r4, r3, fp, lsl #18
     b4c:	00262600 	eoreq	r2, r6, r0, lsl #12
     b50:	01000000 	mrseq	r0, (UNDEF: 0)
     b54:	0e250111 	mcreq	1, 1, r0, cr5, cr1, {0}
     b58:	0e030b13 	vmoveq.32	d3[0], r0
     b5c:	01110e1b 	tsteq	r1, fp, lsl lr
     b60:	17100612 			; <UNDEFINED> instruction: 0x17100612
     b64:	24020000 	strcs	r0, [r2], #-0
     b68:	3e0b0b00 	vmlacc.f64	d0, d11, d0
     b6c:	0008030b 	andeq	r0, r8, fp, lsl #6
     b70:	00240300 	eoreq	r0, r4, r0, lsl #6
     b74:	0b3e0b0b 	bleq	f837a8 <__bss_end__+0xf79d40>
     b78:	00000e03 	andeq	r0, r0, r3, lsl #28
     b7c:	03001604 	movweq	r1, #1540	; 0x604
     b80:	3b0b3a0e 	blcc	2cf3c0 <__bss_end__+0x2c5958>
     b84:	0013490b 	andseq	r4, r3, fp, lsl #18
     b88:	00160500 	andseq	r0, r6, r0, lsl #10
     b8c:	0b3a0e03 	bleq	e843a0 <__bss_end__+0xe7a938>
     b90:	1349053b 	movtne	r0, #38203	; 0x953b
     b94:	17060000 	strne	r0, [r6, -r0]
     b98:	3a0b0b01 	bcc	2c37a4 <__bss_end__+0x2b9d3c>
     b9c:	010b3b0b 	tsteq	fp, fp, lsl #22
     ba0:	07000013 	smladeq	r0, r3, r0, r0
     ba4:	0e03000d 	cdpeq	0, 0, cr0, cr3, cr13, {0}
     ba8:	0b3b0b3a 	bleq	ec3898 <__bss_end__+0xeb9e30>
     bac:	00001349 	andeq	r1, r0, r9, asr #6
     bb0:	49010108 	stmdbmi	r1, {r3, r8}
     bb4:	00130113 	andseq	r0, r3, r3, lsl r1
     bb8:	00210900 	eoreq	r0, r1, r0, lsl #18
     bbc:	0b2f1349 	bleq	bc58e8 <__bss_end__+0xbbbe80>
     bc0:	130a0000 	movwne	r0, #40960	; 0xa000
     bc4:	3a0b0b01 	bcc	2c37d0 <__bss_end__+0x2b9d68>
     bc8:	010b3b0b 	tsteq	fp, fp, lsl #22
     bcc:	0b000013 	bleq	c20 <_start-0x73e0>
     bd0:	0e03000d 	cdpeq	0, 0, cr0, cr3, cr13, {0}
     bd4:	0b3b0b3a 	bleq	ec38c4 <__bss_end__+0xeb9e5c>
     bd8:	0b381349 	bleq	e05904 <__bss_end__+0xdfbe9c>
     bdc:	0f0c0000 	svceq	0x000c0000
     be0:	000b0b00 	andeq	r0, fp, r0, lsl #22
     be4:	000f0d00 	andeq	r0, pc, r0, lsl #26
     be8:	13490b0b 	movtne	r0, #39691	; 0x9b0b
     bec:	260e0000 	strcs	r0, [lr], -r0
     bf0:	00134900 	andseq	r4, r3, r0, lsl #18
     bf4:	01130f00 	tsteq	r3, r0, lsl #30
     bf8:	0b0b0e03 	bleq	2c440c <__bss_end__+0x2ba9a4>
     bfc:	0b3b0b3a 	bleq	ec38ec <__bss_end__+0xeb9e84>
     c00:	00001301 	andeq	r1, r0, r1, lsl #6
     c04:	03000d10 	movweq	r0, #3344	; 0xd10
     c08:	3b0b3a08 	blcc	2cf430 <__bss_end__+0x2c59c8>
     c0c:	3813490b 	ldmdacc	r3, {r0, r1, r3, r8, fp, lr}
     c10:	1100000b 	tstne	r0, fp
     c14:	0e030113 	mcreq	1, 0, r0, cr3, cr3, {0}
     c18:	0b3a050b 	bleq	e8204c <__bss_end__+0xe785e4>
     c1c:	13010b3b 	movwne	r0, #6971	; 0x1b3b
     c20:	0d120000 	ldceq	0, cr0, [r2, #-0]
     c24:	3a0e0300 	bcc	38182c <__bss_end__+0x377dc4>
     c28:	490b3b0b 	stmdbmi	fp, {r0, r1, r3, r8, r9, fp, ip, sp}
     c2c:	00053813 	andeq	r3, r5, r3, lsl r8
     c30:	00151300 	andseq	r1, r5, r0, lsl #6
     c34:	00001927 	andeq	r1, r0, r7, lsr #18
     c38:	27011514 	smladcs	r1, r4, r5, r1
     c3c:	01134919 	tsteq	r3, r9, lsl r9
     c40:	15000013 	strne	r0, [r0, #-19]	; 0xffffffed
     c44:	13490005 	movtne	r0, #36869	; 0x9005
     c48:	13160000 	tstne	r6, #0
     c4c:	0b0e0301 	bleq	381858 <__bss_end__+0x377df0>
     c50:	3b0b3a05 	blcc	2cf46c <__bss_end__+0x2c5a04>
     c54:	00130105 	andseq	r0, r3, r5, lsl #2
     c58:	000d1700 	andeq	r1, sp, r0, lsl #14
     c5c:	0b3a0e03 	bleq	e84470 <__bss_end__+0xe7aa08>
     c60:	1349053b 	movtne	r0, #38203	; 0x953b
     c64:	00000b38 	andeq	r0, r0, r8, lsr fp
     c68:	03000d18 	movweq	r0, #3352	; 0xd18
     c6c:	3b0b3a0e 	blcc	2cf4ac <__bss_end__+0x2c5a44>
     c70:	38134905 	ldmdacc	r3, {r0, r2, r8, fp, lr}
     c74:	19000005 	stmdbne	r0, {r0, r2}
     c78:	0e030113 	mcreq	1, 0, r0, cr3, cr3, {0}
     c7c:	0b3a0b0b 	bleq	e838b0 <__bss_end__+0xe79e48>
     c80:	1301053b 	movwne	r0, #5435	; 0x153b
     c84:	131a0000 	tstne	sl, #0
     c88:	3a0b0b01 	bcc	2c3894 <__bss_end__+0x2b9e2c>
     c8c:	01053b0b 	tsteq	r5, fp, lsl #22
     c90:	1b000013 	blne	ce4 <_start-0x731c>
     c94:	0b0b0117 	bleq	2c10f8 <__bss_end__+0x2b7690>
     c98:	053b0b3a 	ldreq	r0, [fp, #-2874]!	; 0xfffff4c6
     c9c:	00001301 	andeq	r1, r0, r1, lsl #6
     ca0:	03000d1c 	movweq	r0, #3356	; 0xd1c
     ca4:	3b0b3a0e 	blcc	2cf4e4 <__bss_end__+0x2c5a7c>
     ca8:	00134905 	andseq	r4, r3, r5, lsl #18
     cac:	01151d00 	tsteq	r5, r0, lsl #26
     cb0:	13011927 	movwne	r1, #6439	; 0x1927
     cb4:	341e0000 	ldrcc	r0, [lr], #-0
     cb8:	3a0e0300 	bcc	3818c0 <__bss_end__+0x377e58>
     cbc:	49053b0b 	stmdbmi	r5, {r0, r1, r3, r8, r9, fp, ip, sp}
     cc0:	3c193f13 	ldccc	15, cr3, [r9], {19}
     cc4:	1f000019 	svcne	0x00000019
     cc8:	0e030034 	mcreq	0, 0, r0, cr3, cr4, {1}
     ccc:	0b3b0b3a 	bleq	ec39bc <__bss_end__+0xeb9f54>
     cd0:	193f1349 	ldmdbne	pc!, {r0, r3, r6, r8, r9, ip}	; <UNPREDICTABLE>
     cd4:	0000193c 	andeq	r1, r0, ip, lsr r9
     cd8:	3f012e20 	svccc	0x00012e20
     cdc:	3a0e0319 	bcc	381948 <__bss_end__+0x377ee0>
     ce0:	270b3b0b 	strcs	r3, [fp, -fp, lsl #22]
     ce4:	11134919 	tstne	r3, r9, lsl r9
     ce8:	40061201 	andmi	r1, r6, r1, lsl #4
     cec:	19429718 	stmdbne	r2, {r3, r4, r8, r9, sl, ip, pc}^
     cf0:	00001301 	andeq	r1, r0, r1, lsl #6
     cf4:	03000521 	movweq	r0, #1313	; 0x521
     cf8:	3b0b3a0e 	blcc	2cf538 <__bss_end__+0x2c5ad0>
     cfc:	0213490b 	andseq	r4, r3, #180224	; 0x2c000
     d00:	22000017 	andcs	r0, r0, #23
     d04:	08030005 	stmdaeq	r3, {r0, r2}
     d08:	0b3b0b3a 	bleq	ec39f8 <__bss_end__+0xeb9f90>
     d0c:	17021349 	strne	r1, [r2, -r9, asr #6]
     d10:	34230000 	strtcc	r0, [r3], #-0
     d14:	3a0e0300 	bcc	38191c <__bss_end__+0x377eb4>
     d18:	490b3b0b 	stmdbmi	fp, {r0, r1, r3, r8, r9, fp, ip, sp}
     d1c:	00170213 	andseq	r0, r7, r3, lsl r2
     d20:	00342400 	eorseq	r2, r4, r0, lsl #8
     d24:	0b3a0803 	bleq	e82d38 <__bss_end__+0xe792d0>
     d28:	13490b3b 	movtne	r0, #39739	; 0x9b3b
     d2c:	00001702 	andeq	r1, r0, r2, lsl #14
     d30:	00002625 	andeq	r2, r0, r5, lsr #12
     d34:	11010000 	mrsne	r0, (UNDEF: 1)
     d38:	130e2501 	movwne	r2, #58625	; 0xe501
     d3c:	1b0e030b 	blne	381970 <__bss_end__+0x377f08>
     d40:	1201110e 	andne	r1, r1, #-2147483645	; 0x80000003
     d44:	00171006 	andseq	r1, r7, r6
     d48:	00240200 	eoreq	r0, r4, r0, lsl #4
     d4c:	0b3e0b0b 	bleq	f83980 <__bss_end__+0xf79f18>
     d50:	00000803 	andeq	r0, r0, r3, lsl #16
     d54:	0b002403 	bleq	9d68 <__bss_end__+0x300>
     d58:	030b3e0b 	movweq	r3, #48651	; 0xbe0b
     d5c:	0400000e 	streq	r0, [r0], #-14
     d60:	0e030016 	mcreq	0, 0, r0, cr3, cr6, {0}
     d64:	0b3b0b3a 	bleq	ec3a54 <__bss_end__+0xeb9fec>
     d68:	00001349 	andeq	r1, r0, r9, asr #6
     d6c:	03001605 	movweq	r1, #1541	; 0x605
     d70:	3b0b3a0e 	blcc	2cf5b0 <__bss_end__+0x2c5b48>
     d74:	00134905 	andseq	r4, r3, r5, lsl #18
     d78:	01170600 	tsteq	r7, r0, lsl #12
     d7c:	0b3a0b0b 	bleq	e839b0 <__bss_end__+0xe79f48>
     d80:	13010b3b 	movwne	r0, #6971	; 0x1b3b
     d84:	0d070000 	stceq	0, cr0, [r7, #-0]
     d88:	3a0e0300 	bcc	381990 <__bss_end__+0x377f28>
     d8c:	490b3b0b 	stmdbmi	fp, {r0, r1, r3, r8, r9, fp, ip, sp}
     d90:	08000013 	stmdaeq	r0, {r0, r1, r4}
     d94:	13490101 	movtne	r0, #37121	; 0x9101
     d98:	00001301 	andeq	r1, r0, r1, lsl #6
     d9c:	49002109 	stmdbmi	r0, {r0, r3, r8, sp}
     da0:	000b2f13 	andeq	r2, fp, r3, lsl pc
     da4:	01130a00 	tsteq	r3, r0, lsl #20
     da8:	0b3a0b0b 	bleq	e839dc <__bss_end__+0xe79f74>
     dac:	13010b3b 	movwne	r0, #6971	; 0x1b3b
     db0:	0d0b0000 	stceq	0, cr0, [fp, #-0]
     db4:	3a0e0300 	bcc	3819bc <__bss_end__+0x377f54>
     db8:	490b3b0b 	stmdbmi	fp, {r0, r1, r3, r8, r9, fp, ip, sp}
     dbc:	000b3813 	andeq	r3, fp, r3, lsl r8
     dc0:	000f0c00 	andeq	r0, pc, r0, lsl #24
     dc4:	00000b0b 	andeq	r0, r0, fp, lsl #22
     dc8:	0b000f0d 	bleq	4a04 <_start-0x35fc>
     dcc:	0013490b 	andseq	r4, r3, fp, lsl #18
     dd0:	00260e00 	eoreq	r0, r6, r0, lsl #28
     dd4:	00001349 	andeq	r1, r0, r9, asr #6
     dd8:	0301130f 	movweq	r1, #4879	; 0x130f
     ddc:	3a0b0b0e 	bcc	2c3a1c <__bss_end__+0x2b9fb4>
     de0:	010b3b0b 	tsteq	fp, fp, lsl #22
     de4:	10000013 	andne	r0, r0, r3, lsl r0
     de8:	0803000d 	stmdaeq	r3, {r0, r2, r3}
     dec:	0b3b0b3a 	bleq	ec3adc <__bss_end__+0xeba074>
     df0:	0b381349 	bleq	e05b1c <__bss_end__+0xdfc0b4>
     df4:	13110000 	tstne	r1, #0
     df8:	0b0e0301 	bleq	381a04 <__bss_end__+0x377f9c>
     dfc:	3b0b3a05 	blcc	2cf618 <__bss_end__+0x2c5bb0>
     e00:	0013010b 	andseq	r0, r3, fp, lsl #2
     e04:	000d1200 	andeq	r1, sp, r0, lsl #4
     e08:	0b3a0e03 	bleq	e8461c <__bss_end__+0xe7abb4>
     e0c:	13490b3b 	movtne	r0, #39739	; 0x9b3b
     e10:	00000538 	andeq	r0, r0, r8, lsr r5
     e14:	27001513 	smladcs	r0, r3, r5, r1
     e18:	14000019 	strne	r0, [r0], #-25	; 0xffffffe7
     e1c:	19270115 	stmdbne	r7!, {r0, r2, r4, r8}
     e20:	13011349 	movwne	r1, #4937	; 0x1349
     e24:	05150000 	ldreq	r0, [r5, #-0]
     e28:	00134900 	andseq	r4, r3, r0, lsl #18
     e2c:	01131600 	tsteq	r3, r0, lsl #12
     e30:	050b0e03 	streq	r0, [fp, #-3587]	; 0xfffff1fd
     e34:	053b0b3a 	ldreq	r0, [fp, #-2874]!	; 0xfffff4c6
     e38:	00001301 	andeq	r1, r0, r1, lsl #6
     e3c:	03000d17 	movweq	r0, #3351	; 0xd17
     e40:	3b0b3a0e 	blcc	2cf680 <__bss_end__+0x2c5c18>
     e44:	38134905 	ldmdacc	r3, {r0, r2, r8, fp, lr}
     e48:	1800000b 	stmdane	r0, {r0, r1, r3}
     e4c:	0e03000d 	cdpeq	0, 0, cr0, cr3, cr13, {0}
     e50:	053b0b3a 	ldreq	r0, [fp, #-2874]!	; 0xfffff4c6
     e54:	05381349 	ldreq	r1, [r8, #-841]!	; 0xfffffcb7
     e58:	13190000 	tstne	r9, #0
     e5c:	0b0e0301 	bleq	381a68 <__bss_end__+0x378000>
     e60:	3b0b3a0b 	blcc	2cf694 <__bss_end__+0x2c5c2c>
     e64:	00130105 	andseq	r0, r3, r5, lsl #2
     e68:	01131a00 	tsteq	r3, r0, lsl #20
     e6c:	0b3a0b0b 	bleq	e83aa0 <__bss_end__+0xe7a038>
     e70:	1301053b 	movwne	r0, #5435	; 0x153b
     e74:	171b0000 	ldrne	r0, [fp, -r0]
     e78:	3a0b0b01 	bcc	2c3a84 <__bss_end__+0x2ba01c>
     e7c:	01053b0b 	tsteq	r5, fp, lsl #22
     e80:	1c000013 	stcne	0, cr0, [r0], {19}
     e84:	0e03000d 	cdpeq	0, 0, cr0, cr3, cr13, {0}
     e88:	053b0b3a 	ldreq	r0, [fp, #-2874]!	; 0xfffff4c6
     e8c:	00001349 	andeq	r1, r0, r9, asr #6
     e90:	2701151d 	smladcs	r1, sp, r5, r1
     e94:	00130119 	andseq	r0, r3, r9, lsl r1
     e98:	00341e00 	eorseq	r1, r4, r0, lsl #28
     e9c:	0b3a0e03 	bleq	e846b0 <__bss_end__+0xe7ac48>
     ea0:	1349053b 	movtne	r0, #38203	; 0x953b
     ea4:	193c193f 	ldmdbne	ip!, {r0, r1, r2, r3, r4, r5, r8, fp, ip}
     ea8:	341f0000 	ldrcc	r0, [pc], #-0	; eb0 <_start-0x7150>
     eac:	3a0e0300 	bcc	381ab4 <__bss_end__+0x37804c>
     eb0:	490b3b0b 	stmdbmi	fp, {r0, r1, r3, r8, r9, fp, ip, sp}
     eb4:	3c193f13 	ldccc	15, cr3, [r9], {19}
     eb8:	20000019 	andcs	r0, r0, r9, lsl r0
     ebc:	13470034 	movtne	r0, #28724	; 0x7034
     ec0:	0b3b0b3a 	bleq	ec3bb0 <__bss_end__+0xeba148>
     ec4:	00001802 	andeq	r1, r0, r2, lsl #16
     ec8:	3f012e21 	svccc	0x00012e21
     ecc:	3a0e0319 	bcc	381b38 <__bss_end__+0x3780d0>
     ed0:	270b3b0b 	strcs	r3, [fp, -fp, lsl #22]
     ed4:	11134919 	tstne	r3, r9, lsl r9
     ed8:	40061201 	andmi	r1, r6, r1, lsl #4
     edc:	19429618 	stmdbne	r2, {r3, r4, r9, sl, ip, pc}^
     ee0:	05220000 	streq	r0, [r2, #-0]!
     ee4:	3a080300 	bcc	201aec <__bss_end__+0x1f8084>
     ee8:	490b3b0b 	stmdbmi	fp, {r0, r1, r3, r8, r9, fp, ip, sp}
     eec:	00170213 	andseq	r0, r7, r3, lsl r2
     ef0:	11010000 	mrsne	r0, (UNDEF: 1)
     ef4:	130e2501 	movwne	r2, #58625	; 0xe501
     ef8:	1b0e030b 	blne	381b2c <__bss_end__+0x3780c4>
     efc:	1201110e 	andne	r1, r1, #-2147483645	; 0x80000003
     f00:	00171006 	andseq	r1, r7, r6
     f04:	00240200 	eoreq	r0, r4, r0, lsl #4
     f08:	0b3e0b0b 	bleq	f83b3c <__bss_end__+0xf7a0d4>
     f0c:	00000803 	andeq	r0, r0, r3, lsl #16
     f10:	0b002403 	bleq	9f24 <__bss_end__+0x4bc>
     f14:	030b3e0b 	movweq	r3, #48651	; 0xbe0b
     f18:	0400000e 	streq	r0, [r0], #-14
     f1c:	0e030016 	mcreq	0, 0, r0, cr3, cr6, {0}
     f20:	0b3b0b3a 	bleq	ec3c10 <__bss_end__+0xeba1a8>
     f24:	00001349 	andeq	r1, r0, r9, asr #6
     f28:	03001605 	movweq	r1, #1541	; 0x605
     f2c:	3b0b3a0e 	blcc	2cf76c <__bss_end__+0x2c5d04>
     f30:	00134905 	andseq	r4, r3, r5, lsl #18
     f34:	01170600 	tsteq	r7, r0, lsl #12
     f38:	0b3a0b0b 	bleq	e83b6c <__bss_end__+0xe7a104>
     f3c:	13010b3b 	movwne	r0, #6971	; 0x1b3b
     f40:	0d070000 	stceq	0, cr0, [r7, #-0]
     f44:	3a0e0300 	bcc	381b4c <__bss_end__+0x3780e4>
     f48:	490b3b0b 	stmdbmi	fp, {r0, r1, r3, r8, r9, fp, ip, sp}
     f4c:	08000013 	stmdaeq	r0, {r0, r1, r4}
     f50:	13490101 	movtne	r0, #37121	; 0x9101
     f54:	00001301 	andeq	r1, r0, r1, lsl #6
     f58:	49002109 	stmdbmi	r0, {r0, r3, r8, sp}
     f5c:	000b2f13 	andeq	r2, fp, r3, lsl pc
     f60:	01130a00 	tsteq	r3, r0, lsl #20
     f64:	0b3a0b0b 	bleq	e83b98 <__bss_end__+0xe7a130>
     f68:	13010b3b 	movwne	r0, #6971	; 0x1b3b
     f6c:	0d0b0000 	stceq	0, cr0, [fp, #-0]
     f70:	3a0e0300 	bcc	381b78 <__bss_end__+0x378110>
     f74:	490b3b0b 	stmdbmi	fp, {r0, r1, r3, r8, r9, fp, ip, sp}
     f78:	000b3813 	andeq	r3, fp, r3, lsl r8
     f7c:	000f0c00 	andeq	r0, pc, r0, lsl #24
     f80:	00000b0b 	andeq	r0, r0, fp, lsl #22
     f84:	0b000f0d 	bleq	4bc0 <_start-0x3440>
     f88:	0013490b 	andseq	r4, r3, fp, lsl #18
     f8c:	00260e00 	eoreq	r0, r6, r0, lsl #28
     f90:	00001349 	andeq	r1, r0, r9, asr #6
     f94:	0301130f 	movweq	r1, #4879	; 0x130f
     f98:	3a0b0b0e 	bcc	2c3bd8 <__bss_end__+0x2ba170>
     f9c:	010b3b0b 	tsteq	fp, fp, lsl #22
     fa0:	10000013 	andne	r0, r0, r3, lsl r0
     fa4:	0803000d 	stmdaeq	r3, {r0, r2, r3}
     fa8:	0b3b0b3a 	bleq	ec3c98 <__bss_end__+0xeba230>
     fac:	0b381349 	bleq	e05cd8 <__bss_end__+0xdfc270>
     fb0:	13110000 	tstne	r1, #0
     fb4:	0b0e0301 	bleq	381bc0 <__bss_end__+0x378158>
     fb8:	3b0b3a05 	blcc	2cf7d4 <__bss_end__+0x2c5d6c>
     fbc:	0013010b 	andseq	r0, r3, fp, lsl #2
     fc0:	000d1200 	andeq	r1, sp, r0, lsl #4
     fc4:	0b3a0e03 	bleq	e847d8 <__bss_end__+0xe7ad70>
     fc8:	13490b3b 	movtne	r0, #39739	; 0x9b3b
     fcc:	00000538 	andeq	r0, r0, r8, lsr r5
     fd0:	27001513 	smladcs	r0, r3, r5, r1
     fd4:	14000019 	strne	r0, [r0], #-25	; 0xffffffe7
     fd8:	19270115 	stmdbne	r7!, {r0, r2, r4, r8}
     fdc:	13011349 	movwne	r1, #4937	; 0x1349
     fe0:	05150000 	ldreq	r0, [r5, #-0]
     fe4:	00134900 	andseq	r4, r3, r0, lsl #18
     fe8:	01131600 	tsteq	r3, r0, lsl #12
     fec:	050b0e03 	streq	r0, [fp, #-3587]	; 0xfffff1fd
     ff0:	053b0b3a 	ldreq	r0, [fp, #-2874]!	; 0xfffff4c6
     ff4:	00001301 	andeq	r1, r0, r1, lsl #6
     ff8:	03000d17 	movweq	r0, #3351	; 0xd17
     ffc:	3b0b3a0e 	blcc	2cf83c <__bss_end__+0x2c5dd4>
    1000:	38134905 	ldmdacc	r3, {r0, r2, r8, fp, lr}
    1004:	1800000b 	stmdane	r0, {r0, r1, r3}
    1008:	0e03000d 	cdpeq	0, 0, cr0, cr3, cr13, {0}
    100c:	053b0b3a 	ldreq	r0, [fp, #-2874]!	; 0xfffff4c6
    1010:	05381349 	ldreq	r1, [r8, #-841]!	; 0xfffffcb7
    1014:	13190000 	tstne	r9, #0
    1018:	0b0e0301 	bleq	381c24 <__bss_end__+0x3781bc>
    101c:	3b0b3a0b 	blcc	2cf850 <__bss_end__+0x2c5de8>
    1020:	00130105 	andseq	r0, r3, r5, lsl #2
    1024:	01131a00 	tsteq	r3, r0, lsl #20
    1028:	0b3a0b0b 	bleq	e83c5c <__bss_end__+0xe7a1f4>
    102c:	1301053b 	movwne	r0, #5435	; 0x153b
    1030:	171b0000 	ldrne	r0, [fp, -r0]
    1034:	3a0b0b01 	bcc	2c3c40 <__bss_end__+0x2ba1d8>
    1038:	01053b0b 	tsteq	r5, fp, lsl #22
    103c:	1c000013 	stcne	0, cr0, [r0], {19}
    1040:	0e03000d 	cdpeq	0, 0, cr0, cr3, cr13, {0}
    1044:	053b0b3a 	ldreq	r0, [fp, #-2874]!	; 0xfffff4c6
    1048:	00001349 	andeq	r1, r0, r9, asr #6
    104c:	2701151d 	smladcs	r1, sp, r5, r1
    1050:	00130119 	andseq	r0, r3, r9, lsl r1
    1054:	00341e00 	eorseq	r1, r4, r0, lsl #28
    1058:	0b3a0e03 	bleq	e8486c <__bss_end__+0xe7ae04>
    105c:	1349053b 	movtne	r0, #38203	; 0x953b
    1060:	193c193f 	ldmdbne	ip!, {r0, r1, r2, r3, r4, r5, r8, fp, ip}
    1064:	341f0000 	ldrcc	r0, [pc], #-0	; 106c <_start-0x6f94>
    1068:	3a0e0300 	bcc	381c70 <__bss_end__+0x378208>
    106c:	490b3b0b 	stmdbmi	fp, {r0, r1, r3, r8, r9, fp, ip, sp}
    1070:	3c193f13 	ldccc	15, cr3, [r9], {19}
    1074:	20000019 	andcs	r0, r0, r9, lsl r0
    1078:	13470034 	movtne	r0, #28724	; 0x7034
    107c:	0b3b0b3a 	bleq	ec3d6c <__bss_end__+0xeba304>
    1080:	00001802 	andeq	r1, r0, r2, lsl #16
    1084:	3f012e21 	svccc	0x00012e21
    1088:	3a0e0319 	bcc	381cf4 <__bss_end__+0x37828c>
    108c:	270b3b0b 	strcs	r3, [fp, -fp, lsl #22]
    1090:	12011119 	andne	r1, r1, #1073741830	; 0x40000006
    1094:	97184006 	ldrls	r4, [r8, -r6]
    1098:	13011942 	movwne	r1, #6466	; 0x1942
    109c:	05220000 	streq	r0, [r2, #-0]!
    10a0:	3a080300 	bcc	201ca8 <__bss_end__+0x1f8240>
    10a4:	490b3b0b 	stmdbmi	fp, {r0, r1, r3, r8, r9, fp, ip, sp}
    10a8:	00180213 	andseq	r0, r8, r3, lsl r2
    10ac:	002e2300 	eoreq	r2, lr, r0, lsl #6
    10b0:	0e03193f 			; <UNDEFINED> instruction: 0x0e03193f
    10b4:	0b3b0b3a 	bleq	ec3da4 <__bss_end__+0xeba33c>
    10b8:	01111927 	tsteq	r1, r7, lsr #18
    10bc:	18400612 	stmdane	r0, {r1, r4, r9, sl}^
    10c0:	00194297 	mulseq	r9, r7, r2
    10c4:	012e2400 			; <UNDEFINED> instruction: 0x012e2400
    10c8:	0b3a0e03 	bleq	e848dc <__bss_end__+0xe7ae74>
    10cc:	19270b3b 	stmdbne	r7!, {r0, r1, r3, r4, r5, r8, r9, fp}
    10d0:	01111349 	tsteq	r1, r9, asr #6
    10d4:	18400612 	stmdane	r0, {r1, r4, r9, sl}^
    10d8:	01194297 			; <UNDEFINED> instruction: 0x01194297
    10dc:	25000013 	strcs	r0, [r0, #-19]	; 0xffffffed
    10e0:	08030005 	stmdaeq	r3, {r0, r2}
    10e4:	0b3b0b3a 	bleq	ec3dd4 <__bss_end__+0xeba36c>
    10e8:	17021349 	strne	r1, [r2, -r9, asr #6]
    10ec:	89260000 	stmdbhi	r6!, {}	; <UNPREDICTABLE>
    10f0:	11010182 	smlabbne	r1, r2, r1, r0
    10f4:	00133101 	andseq	r3, r3, r1, lsl #2
    10f8:	828a2700 	addhi	r2, sl, #0, 14
    10fc:	18020001 	stmdane	r2, {r0}
    1100:	00184291 	mulseq	r8, r1, r2
    1104:	002e2800 	eoreq	r2, lr, r0, lsl #16
    1108:	193c193f 	ldmdbne	ip!, {r0, r1, r2, r3, r4, r5, r8, fp, ip}
    110c:	0e030e6e 	cdpeq	14, 0, cr0, cr3, cr14, {3}
    1110:	0b3b0b3a 	bleq	ec3e00 <__bss_end__+0xeba398>
    1114:	01000000 	mrseq	r0, (UNDEF: 0)
    1118:	0e250111 	mcreq	1, 1, r0, cr5, cr1, {0}
    111c:	0e030b13 	vmoveq.32	d3[0], r0
    1120:	01110e1b 	tsteq	r1, fp, lsl lr
    1124:	17100612 			; <UNDEFINED> instruction: 0x17100612
    1128:	24020000 	strcs	r0, [r2], #-0
    112c:	3e0b0b00 	vmlacc.f64	d0, d11, d0
    1130:	0008030b 	andeq	r0, r8, fp, lsl #6
    1134:	00160300 	andseq	r0, r6, r0, lsl #6
    1138:	0b3a0e03 	bleq	e8494c <__bss_end__+0xe7aee4>
    113c:	13490b3b 	movtne	r0, #39739	; 0x9b3b
    1140:	24040000 	strcs	r0, [r4], #-0
    1144:	3e0b0b00 	vmlacc.f64	d0, d11, d0
    1148:	000e030b 	andeq	r0, lr, fp, lsl #6
    114c:	00160500 	andseq	r0, r6, r0, lsl #10
    1150:	0b3a0e03 	bleq	e84964 <__bss_end__+0xe7aefc>
    1154:	1349053b 	movtne	r0, #38203	; 0x953b
    1158:	17060000 	strne	r0, [r6, -r0]
    115c:	3a0b0b01 	bcc	2c3d68 <__bss_end__+0x2ba300>
    1160:	010b3b0b 	tsteq	fp, fp, lsl #22
    1164:	07000013 	smladeq	r0, r3, r0, r0
    1168:	0e03000d 	cdpeq	0, 0, cr0, cr3, cr13, {0}
    116c:	0b3b0b3a 	bleq	ec3e5c <__bss_end__+0xeba3f4>
    1170:	00001349 	andeq	r1, r0, r9, asr #6
    1174:	49010108 	stmdbmi	r1, {r3, r8}
    1178:	00130113 	andseq	r0, r3, r3, lsl r1
    117c:	00210900 	eoreq	r0, r1, r0, lsl #18
    1180:	0b2f1349 	bleq	bc5eac <__bss_end__+0xbbc444>
    1184:	130a0000 	movwne	r0, #40960	; 0xa000
    1188:	3a0b0b01 	bcc	2c3d94 <__bss_end__+0x2ba32c>
    118c:	010b3b0b 	tsteq	fp, fp, lsl #22
    1190:	0b000013 	bleq	11e4 <_start-0x6e1c>
    1194:	0e03000d 	cdpeq	0, 0, cr0, cr3, cr13, {0}
    1198:	0b3b0b3a 	bleq	ec3e88 <__bss_end__+0xeba420>
    119c:	0b381349 	bleq	e05ec8 <__bss_end__+0xdfc460>
    11a0:	0f0c0000 	svceq	0x000c0000
    11a4:	000b0b00 	andeq	r0, fp, r0, lsl #22
    11a8:	000f0d00 	andeq	r0, pc, r0, lsl #26
    11ac:	13490b0b 	movtne	r0, #39691	; 0x9b0b
    11b0:	260e0000 	strcs	r0, [lr], -r0
    11b4:	00134900 	andseq	r4, r3, r0, lsl #18
    11b8:	01130f00 	tsteq	r3, r0, lsl #30
    11bc:	0b0b0e03 	bleq	2c49d0 <__bss_end__+0x2baf68>
    11c0:	0b3b0b3a 	bleq	ec3eb0 <__bss_end__+0xeba448>
    11c4:	00001301 	andeq	r1, r0, r1, lsl #6
    11c8:	03000d10 	movweq	r0, #3344	; 0xd10
    11cc:	3b0b3a08 	blcc	2cf9f4 <__bss_end__+0x2c5f8c>
    11d0:	3813490b 	ldmdacc	r3, {r0, r1, r3, r8, fp, lr}
    11d4:	1100000b 	tstne	r0, fp
    11d8:	0e030113 	mcreq	1, 0, r0, cr3, cr3, {0}
    11dc:	0b3a050b 	bleq	e82610 <__bss_end__+0xe78ba8>
    11e0:	13010b3b 	movwne	r0, #6971	; 0x1b3b
    11e4:	0d120000 	ldceq	0, cr0, [r2, #-0]
    11e8:	3a0e0300 	bcc	381df0 <__bss_end__+0x378388>
    11ec:	490b3b0b 	stmdbmi	fp, {r0, r1, r3, r8, r9, fp, ip, sp}
    11f0:	00053813 	andeq	r3, r5, r3, lsl r8
    11f4:	00151300 	andseq	r1, r5, r0, lsl #6
    11f8:	00001927 	andeq	r1, r0, r7, lsr #18
    11fc:	27011514 	smladcs	r1, r4, r5, r1
    1200:	01134919 	tsteq	r3, r9, lsl r9
    1204:	15000013 	strne	r0, [r0, #-19]	; 0xffffffed
    1208:	13490005 	movtne	r0, #36869	; 0x9005
    120c:	13160000 	tstne	r6, #0
    1210:	0b0e0301 	bleq	381e1c <__bss_end__+0x3783b4>
    1214:	3b0b3a05 	blcc	2cfa30 <__bss_end__+0x2c5fc8>
    1218:	00130105 	andseq	r0, r3, r5, lsl #2
    121c:	000d1700 	andeq	r1, sp, r0, lsl #14
    1220:	0b3a0e03 	bleq	e84a34 <__bss_end__+0xe7afcc>
    1224:	1349053b 	movtne	r0, #38203	; 0x953b
    1228:	00000b38 	andeq	r0, r0, r8, lsr fp
    122c:	03000d18 	movweq	r0, #3352	; 0xd18
    1230:	3b0b3a0e 	blcc	2cfa70 <__bss_end__+0x2c6008>
    1234:	38134905 	ldmdacc	r3, {r0, r2, r8, fp, lr}
    1238:	19000005 	stmdbne	r0, {r0, r2}
    123c:	0e030113 	mcreq	1, 0, r0, cr3, cr3, {0}
    1240:	0b3a0b0b 	bleq	e83e74 <__bss_end__+0xe7a40c>
    1244:	1301053b 	movwne	r0, #5435	; 0x153b
    1248:	131a0000 	tstne	sl, #0
    124c:	3a0b0b01 	bcc	2c3e58 <__bss_end__+0x2ba3f0>
    1250:	01053b0b 	tsteq	r5, fp, lsl #22
    1254:	1b000013 	blne	12a8 <_start-0x6d58>
    1258:	0b0b0117 	bleq	2c16bc <__bss_end__+0x2b7c54>
    125c:	053b0b3a 	ldreq	r0, [fp, #-2874]!	; 0xfffff4c6
    1260:	00001301 	andeq	r1, r0, r1, lsl #6
    1264:	03000d1c 	movweq	r0, #3356	; 0xd1c
    1268:	3b0b3a0e 	blcc	2cfaa8 <__bss_end__+0x2c6040>
    126c:	00134905 	andseq	r4, r3, r5, lsl #18
    1270:	01151d00 	tsteq	r5, r0, lsl #26
    1274:	13011927 	movwne	r1, #6439	; 0x1927
    1278:	341e0000 	ldrcc	r0, [lr], #-0
    127c:	3a0e0300 	bcc	381e84 <__bss_end__+0x37841c>
    1280:	49053b0b 	stmdbmi	r5, {r0, r1, r3, r8, r9, fp, ip, sp}
    1284:	3c193f13 	ldccc	15, cr3, [r9], {19}
    1288:	1f000019 	svcne	0x00000019
    128c:	193f012e 	ldmdbne	pc!, {r1, r2, r3, r5, r8}	; <UNPREDICTABLE>
    1290:	0b3a0e03 	bleq	e84aa4 <__bss_end__+0xe7b03c>
    1294:	19270b3b 	stmdbne	r7!, {r0, r1, r3, r4, r5, r8, r9, fp}
    1298:	01111349 	tsteq	r1, r9, asr #6
    129c:	18400612 	stmdane	r0, {r1, r4, r9, sl}^
    12a0:	00194297 	mulseq	r9, r7, r2
    12a4:	00052000 	andeq	r2, r5, r0
    12a8:	0b3a0803 	bleq	e832bc <__bss_end__+0xe79854>
    12ac:	13490b3b 	movtne	r0, #39739	; 0x9b3b
    12b0:	00001802 	andeq	r1, r0, r2, lsl #16
    12b4:	03000521 	movweq	r0, #1313	; 0x521
    12b8:	3b0b3a08 	blcc	2cfae0 <__bss_end__+0x2c6078>
    12bc:	0213490b 	andseq	r4, r3, #180224	; 0x2c000
    12c0:	22000017 	andcs	r0, r0, #23
    12c4:	08030034 	stmdaeq	r3, {r2, r4, r5}
    12c8:	0b3b0b3a 	bleq	ec3fb8 <__bss_end__+0xeba550>
    12cc:	17021349 	strne	r1, [r2, -r9, asr #6]
    12d0:	34230000 	strtcc	r0, [r3], #-0
    12d4:	3a080300 	bcc	201edc <__bss_end__+0x1f8474>
    12d8:	490b3b0b 	stmdbmi	fp, {r0, r1, r3, r8, r9, fp, ip, sp}
    12dc:	00180213 	andseq	r0, r8, r3, lsl r2
    12e0:	11010000 	mrsne	r0, (UNDEF: 1)
    12e4:	130e2501 	movwne	r2, #58625	; 0xe501
    12e8:	1b0e030b 	blne	381f1c <__bss_end__+0x3784b4>
    12ec:	1201110e 	andne	r1, r1, #-2147483645	; 0x80000003
    12f0:	00171006 	andseq	r1, r7, r6
    12f4:	00240200 	eoreq	r0, r4, r0, lsl #4
    12f8:	0b3e0b0b 	bleq	f83f2c <__bss_end__+0xf7a4c4>
    12fc:	00000803 	andeq	r0, r0, r3, lsl #16
    1300:	0b002403 	bleq	a314 <__bss_end__+0x8ac>
    1304:	030b3e0b 	movweq	r3, #48651	; 0xbe0b
    1308:	0400000e 	streq	r0, [r0], #-14
    130c:	0e030016 	mcreq	0, 0, r0, cr3, cr6, {0}
    1310:	0b3b0b3a 	bleq	ec4000 <__bss_end__+0xeba598>
    1314:	00001349 	andeq	r1, r0, r9, asr #6
    1318:	03001605 	movweq	r1, #1541	; 0x605
    131c:	3b0b3a0e 	blcc	2cfb5c <__bss_end__+0x2c60f4>
    1320:	00134905 	andseq	r4, r3, r5, lsl #18
    1324:	01170600 	tsteq	r7, r0, lsl #12
    1328:	0b3a0b0b 	bleq	e83f5c <__bss_end__+0xe7a4f4>
    132c:	13010b3b 	movwne	r0, #6971	; 0x1b3b
    1330:	0d070000 	stceq	0, cr0, [r7, #-0]
    1334:	3a0e0300 	bcc	381f3c <__bss_end__+0x3784d4>
    1338:	490b3b0b 	stmdbmi	fp, {r0, r1, r3, r8, r9, fp, ip, sp}
    133c:	08000013 	stmdaeq	r0, {r0, r1, r4}
    1340:	13490101 	movtne	r0, #37121	; 0x9101
    1344:	00001301 	andeq	r1, r0, r1, lsl #6
    1348:	49002109 	stmdbmi	r0, {r0, r3, r8, sp}
    134c:	000b2f13 	andeq	r2, fp, r3, lsl pc
    1350:	01130a00 	tsteq	r3, r0, lsl #20
    1354:	0b3a0b0b 	bleq	e83f88 <__bss_end__+0xe7a520>
    1358:	13010b3b 	movwne	r0, #6971	; 0x1b3b
    135c:	0d0b0000 	stceq	0, cr0, [fp, #-0]
    1360:	3a0e0300 	bcc	381f68 <__bss_end__+0x378500>
    1364:	490b3b0b 	stmdbmi	fp, {r0, r1, r3, r8, r9, fp, ip, sp}
    1368:	000b3813 	andeq	r3, fp, r3, lsl r8
    136c:	000f0c00 	andeq	r0, pc, r0, lsl #24
    1370:	00000b0b 	andeq	r0, r0, fp, lsl #22
    1374:	0b000f0d 	bleq	4fb0 <_start-0x3050>
    1378:	0013490b 	andseq	r4, r3, fp, lsl #18
    137c:	00260e00 	eoreq	r0, r6, r0, lsl #28
    1380:	00001349 	andeq	r1, r0, r9, asr #6
    1384:	0301130f 	movweq	r1, #4879	; 0x130f
    1388:	3a0b0b0e 	bcc	2c3fc8 <__bss_end__+0x2ba560>
    138c:	010b3b0b 	tsteq	fp, fp, lsl #22
    1390:	10000013 	andne	r0, r0, r3, lsl r0
    1394:	0803000d 	stmdaeq	r3, {r0, r2, r3}
    1398:	0b3b0b3a 	bleq	ec4088 <__bss_end__+0xeba620>
    139c:	0b381349 	bleq	e060c8 <__bss_end__+0xdfc660>
    13a0:	13110000 	tstne	r1, #0
    13a4:	0b0e0301 	bleq	381fb0 <__bss_end__+0x378548>
    13a8:	3b0b3a05 	blcc	2cfbc4 <__bss_end__+0x2c615c>
    13ac:	0013010b 	andseq	r0, r3, fp, lsl #2
    13b0:	000d1200 	andeq	r1, sp, r0, lsl #4
    13b4:	0b3a0e03 	bleq	e84bc8 <__bss_end__+0xe7b160>
    13b8:	13490b3b 	movtne	r0, #39739	; 0x9b3b
    13bc:	00000538 	andeq	r0, r0, r8, lsr r5
    13c0:	27001513 	smladcs	r0, r3, r5, r1
    13c4:	14000019 	strne	r0, [r0], #-25	; 0xffffffe7
    13c8:	19270115 	stmdbne	r7!, {r0, r2, r4, r8}
    13cc:	13011349 	movwne	r1, #4937	; 0x1349
    13d0:	05150000 	ldreq	r0, [r5, #-0]
    13d4:	00134900 	andseq	r4, r3, r0, lsl #18
    13d8:	01131600 	tsteq	r3, r0, lsl #12
    13dc:	050b0e03 	streq	r0, [fp, #-3587]	; 0xfffff1fd
    13e0:	053b0b3a 	ldreq	r0, [fp, #-2874]!	; 0xfffff4c6
    13e4:	00001301 	andeq	r1, r0, r1, lsl #6
    13e8:	03000d17 	movweq	r0, #3351	; 0xd17
    13ec:	3b0b3a0e 	blcc	2cfc2c <__bss_end__+0x2c61c4>
    13f0:	38134905 	ldmdacc	r3, {r0, r2, r8, fp, lr}
    13f4:	1800000b 	stmdane	r0, {r0, r1, r3}
    13f8:	0e03000d 	cdpeq	0, 0, cr0, cr3, cr13, {0}
    13fc:	053b0b3a 	ldreq	r0, [fp, #-2874]!	; 0xfffff4c6
    1400:	05381349 	ldreq	r1, [r8, #-841]!	; 0xfffffcb7
    1404:	13190000 	tstne	r9, #0
    1408:	0b0e0301 	bleq	382014 <__bss_end__+0x3785ac>
    140c:	3b0b3a0b 	blcc	2cfc40 <__bss_end__+0x2c61d8>
    1410:	00130105 	andseq	r0, r3, r5, lsl #2
    1414:	01131a00 	tsteq	r3, r0, lsl #20
    1418:	0b3a0b0b 	bleq	e8404c <__bss_end__+0xe7a5e4>
    141c:	1301053b 	movwne	r0, #5435	; 0x153b
    1420:	171b0000 	ldrne	r0, [fp, -r0]
    1424:	3a0b0b01 	bcc	2c4030 <__bss_end__+0x2ba5c8>
    1428:	01053b0b 	tsteq	r5, fp, lsl #22
    142c:	1c000013 	stcne	0, cr0, [r0], {19}
    1430:	0e03000d 	cdpeq	0, 0, cr0, cr3, cr13, {0}
    1434:	053b0b3a 	ldreq	r0, [fp, #-2874]!	; 0xfffff4c6
    1438:	00001349 	andeq	r1, r0, r9, asr #6
    143c:	2701151d 	smladcs	r1, sp, r5, r1
    1440:	00130119 	andseq	r0, r3, r9, lsl r1
    1444:	00341e00 	eorseq	r1, r4, r0, lsl #28
    1448:	0b3a0e03 	bleq	e84c5c <__bss_end__+0xe7b1f4>
    144c:	1349053b 	movtne	r0, #38203	; 0x953b
    1450:	193c193f 	ldmdbne	ip!, {r0, r1, r2, r3, r4, r5, r8, fp, ip}
    1454:	341f0000 	ldrcc	r0, [pc], #-0	; 145c <_start-0x6ba4>
    1458:	3a0e0300 	bcc	382060 <__bss_end__+0x3785f8>
    145c:	490b3b0b 	stmdbmi	fp, {r0, r1, r3, r8, r9, fp, ip, sp}
    1460:	3c193f13 	ldccc	15, cr3, [r9], {19}
    1464:	20000019 	andcs	r0, r0, r9, lsl r0
    1468:	193f012e 	ldmdbne	pc!, {r1, r2, r3, r5, r8}	; <UNPREDICTABLE>
    146c:	0b3a0e03 	bleq	e84c80 <__bss_end__+0xe7b218>
    1470:	01110b3b 	tsteq	r1, fp, lsr fp
    1474:	18400612 	stmdane	r0, {r1, r4, r9, sl}^
    1478:	01194297 			; <UNDEFINED> instruction: 0x01194297
    147c:	21000013 	tstcs	r0, r3, lsl r0
    1480:	193f002e 	ldmdbne	pc!, {r1, r2, r3, r5}	; <UNPREDICTABLE>
    1484:	0b3a0e03 	bleq	e84c98 <__bss_end__+0xe7b230>
    1488:	19270b3b 	stmdbne	r7!, {r0, r1, r3, r4, r5, r8, r9, fp}
    148c:	0000193c 	andeq	r1, r0, ip, lsr r9
    1490:	03003422 	movweq	r3, #1058	; 0x422
    1494:	3b0b3a08 	blcc	2cfcbc <__bss_end__+0x2c6254>
    1498:	0213490b 	andseq	r4, r3, #180224	; 0x2c000
    149c:	23000017 	movwcs	r0, #23
    14a0:	0e030034 	mcreq	0, 0, r0, cr3, cr4, {1}
    14a4:	0b3b0b3a 	bleq	ec4194 <__bss_end__+0xeba72c>
    14a8:	00001349 	andeq	r1, r0, r9, asr #6
    14ac:	01828924 	orreq	r8, r2, r4, lsr #18
    14b0:	31011100 	mrscc	r1, (UNDEF: 17)
    14b4:	25000013 	strcs	r0, [r0, #-19]	; 0xffffffed
    14b8:	193f002e 	ldmdbne	pc!, {r1, r2, r3, r5}	; <UNPREDICTABLE>
    14bc:	0e6e193c 			; <UNDEFINED> instruction: 0x0e6e193c
    14c0:	0b3a0e03 	bleq	e84cd4 <__bss_end__+0xe7b26c>
    14c4:	00000b3b 	andeq	r0, r0, fp, lsr fp
    14c8:	01110100 	tsteq	r1, r0, lsl #2
    14cc:	0b130e25 	bleq	4c4d68 <__bss_end__+0x4bb300>
    14d0:	0e1b0e03 	cdpeq	14, 1, cr0, cr11, cr3, {0}
    14d4:	01111755 	tsteq	r1, r5, asr r7
    14d8:	00001710 	andeq	r1, r0, r0, lsl r7
    14dc:	0b002402 	bleq	a4ec <__bss_end__+0xa84>
    14e0:	030b3e0b 	movweq	r3, #48651	; 0xbe0b
    14e4:	03000008 	movweq	r0, #8
    14e8:	13490026 	movtne	r0, #36902	; 0x9026
    14ec:	24040000 	strcs	r0, [r4], #-0
    14f0:	3e0b0b00 	vmlacc.f64	d0, d11, d0
    14f4:	000e030b 	andeq	r0, lr, fp, lsl #6
    14f8:	00160500 	andseq	r0, r6, r0, lsl #10
    14fc:	0b3a0e03 	bleq	e84d10 <__bss_end__+0xe7b2a8>
    1500:	13490b3b 	movtne	r0, #39739	; 0x9b3b
    1504:	16060000 	strne	r0, [r6], -r0
    1508:	3a0e0300 	bcc	382110 <__bss_end__+0x3786a8>
    150c:	49053b0b 	stmdbmi	r5, {r0, r1, r3, r8, r9, fp, ip, sp}
    1510:	07000013 	smladeq	r0, r3, r0, r0
    1514:	0b0b0117 	bleq	2c1978 <__bss_end__+0x2b7f10>
    1518:	0b3b0b3a 	bleq	ec4208 <__bss_end__+0xeba7a0>
    151c:	00001301 	andeq	r1, r0, r1, lsl #6
    1520:	03000d08 	movweq	r0, #3336	; 0xd08
    1524:	3b0b3a0e 	blcc	2cfd64 <__bss_end__+0x2c62fc>
    1528:	0013490b 	andseq	r4, r3, fp, lsl #18
    152c:	01010900 	tsteq	r1, r0, lsl #18
    1530:	13011349 	movwne	r1, #4937	; 0x1349
    1534:	210a0000 	mrscs	r0, (UNDEF: 10)
    1538:	2f134900 	svccs	0x00134900
    153c:	0b00000b 	bleq	1570 <_start-0x6a90>
    1540:	0b0b0113 	bleq	2c1994 <__bss_end__+0x2b7f2c>
    1544:	0b3b0b3a 	bleq	ec4234 <__bss_end__+0xeba7cc>
    1548:	00001301 	andeq	r1, r0, r1, lsl #6
    154c:	03000d0c 	movweq	r0, #3340	; 0xd0c
    1550:	3b0b3a0e 	blcc	2cfd90 <__bss_end__+0x2c6328>
    1554:	3813490b 	ldmdacc	r3, {r0, r1, r3, r8, fp, lr}
    1558:	0d00000b 	stceq	0, cr0, [r0, #-44]	; 0xffffffd4
    155c:	0b0b000f 	bleq	2c15a0 <__bss_end__+0x2b7b38>
    1560:	0f0e0000 	svceq	0x000e0000
    1564:	490b0b00 	stmdbmi	fp, {r8, r9, fp}
    1568:	0f000013 	svceq	0x00000013
    156c:	0e030113 	mcreq	1, 0, r0, cr3, cr3, {0}
    1570:	0b3a0b0b 	bleq	e841a4 <__bss_end__+0xe7a73c>
    1574:	13010b3b 	movwne	r0, #6971	; 0x1b3b
    1578:	0d100000 	ldceq	0, cr0, [r0, #-0]
    157c:	3a080300 	bcc	202184 <__bss_end__+0x1f871c>
    1580:	490b3b0b 	stmdbmi	fp, {r0, r1, r3, r8, r9, fp, ip, sp}
    1584:	000b3813 	andeq	r3, fp, r3, lsl r8
    1588:	01131100 	tsteq	r3, r0, lsl #2
    158c:	050b0e03 	streq	r0, [fp, #-3587]	; 0xfffff1fd
    1590:	0b3b0b3a 	bleq	ec4280 <__bss_end__+0xeba818>
    1594:	00001301 	andeq	r1, r0, r1, lsl #6
    1598:	03000d12 	movweq	r0, #3346	; 0xd12
    159c:	3b0b3a0e 	blcc	2cfddc <__bss_end__+0x2c6374>
    15a0:	3813490b 	ldmdacc	r3, {r0, r1, r3, r8, fp, lr}
    15a4:	13000005 	movwne	r0, #5
    15a8:	19270015 	stmdbne	r7!, {r0, r2, r4}
    15ac:	15140000 	ldrne	r0, [r4, #-0]
    15b0:	49192701 	ldmdbmi	r9, {r0, r8, r9, sl, sp}
    15b4:	00130113 	andseq	r0, r3, r3, lsl r1
    15b8:	00051500 	andeq	r1, r5, r0, lsl #10
    15bc:	00001349 	andeq	r1, r0, r9, asr #6
    15c0:	03011316 	movweq	r1, #4886	; 0x1316
    15c4:	3a050b0e 	bcc	144204 <__bss_end__+0x13a79c>
    15c8:	01053b0b 	tsteq	r5, fp, lsl #22
    15cc:	17000013 	smladne	r0, r3, r0, r0
    15d0:	0e03000d 	cdpeq	0, 0, cr0, cr3, cr13, {0}
    15d4:	053b0b3a 	ldreq	r0, [fp, #-2874]!	; 0xfffff4c6
    15d8:	0b381349 	bleq	e06304 <__bss_end__+0xdfc89c>
    15dc:	0d180000 	ldceq	0, cr0, [r8, #-0]
    15e0:	3a0e0300 	bcc	3821e8 <__bss_end__+0x378780>
    15e4:	49053b0b 	stmdbmi	r5, {r0, r1, r3, r8, r9, fp, ip, sp}
    15e8:	00053813 	andeq	r3, r5, r3, lsl r8
    15ec:	01131900 	tsteq	r3, r0, lsl #18
    15f0:	0b0b0e03 	bleq	2c4e04 <__bss_end__+0x2bb39c>
    15f4:	053b0b3a 	ldreq	r0, [fp, #-2874]!	; 0xfffff4c6
    15f8:	00001301 	andeq	r1, r0, r1, lsl #6
    15fc:	0b01131a 	bleq	4626c <__bss_end__+0x3c804>
    1600:	3b0b3a0b 	blcc	2cfe34 <__bss_end__+0x2c63cc>
    1604:	00130105 	andseq	r0, r3, r5, lsl #2
    1608:	01171b00 	tsteq	r7, r0, lsl #22
    160c:	0b3a0b0b 	bleq	e84240 <__bss_end__+0xe7a7d8>
    1610:	1301053b 	movwne	r0, #5435	; 0x153b
    1614:	0d1c0000 	ldceq	0, cr0, [ip, #-0]
    1618:	3a0e0300 	bcc	382220 <__bss_end__+0x3787b8>
    161c:	49053b0b 	stmdbmi	r5, {r0, r1, r3, r8, r9, fp, ip, sp}
    1620:	1d000013 	stcne	0, cr0, [r0, #-76]	; 0xffffffb4
    1624:	19270115 	stmdbne	r7!, {r0, r2, r4, r8}
    1628:	00001301 	andeq	r1, r0, r1, lsl #6
    162c:	0300341e 	movweq	r3, #1054	; 0x41e
    1630:	3b0b3a0e 	blcc	2cfe70 <__bss_end__+0x2c6408>
    1634:	3f134905 	svccc	0x00134905
    1638:	00193c19 	andseq	r3, r9, r9, lsl ip
    163c:	00341f00 	eorseq	r1, r4, r0, lsl #30
    1640:	0b3a0e03 	bleq	e84e54 <__bss_end__+0xe7b3ec>
    1644:	13490b3b 	movtne	r0, #39739	; 0x9b3b
    1648:	193c193f 	ldmdbne	ip!, {r0, r1, r2, r3, r4, r5, r8, fp, ip}
    164c:	34200000 	strtcc	r0, [r0], #-0
    1650:	3a0e0300 	bcc	382258 <__bss_end__+0x3787f0>
    1654:	490b3b0b 	stmdbmi	fp, {r0, r1, r3, r8, r9, fp, ip, sp}
    1658:	21000013 	tstcs	r0, r3, lsl r0
    165c:	193f012e 	ldmdbne	pc!, {r1, r2, r3, r5, r8}	; <UNPREDICTABLE>
    1660:	0b3a0e03 	bleq	e84e74 <__bss_end__+0xe7b40c>
    1664:	19270b3b 	stmdbne	r7!, {r0, r1, r3, r4, r5, r8, r9, fp}
    1668:	11190187 	tstne	r9, r7, lsl #3
    166c:	40061201 	andmi	r1, r6, r1, lsl #4
    1670:	19429718 	stmdbne	r2, {r3, r4, r8, r9, sl, ip, pc}^
    1674:	00001301 	andeq	r1, r0, r1, lsl #6
    1678:	03003422 	movweq	r3, #1058	; 0x422
    167c:	3b0b3a0e 	blcc	2cfebc <__bss_end__+0x2c6454>
    1680:	0213490b 	andseq	r4, r3, #180224	; 0x2c000
    1684:	23000017 	movwcs	r0, #23
    1688:	00018289 	andeq	r8, r1, r9, lsl #5
    168c:	13310111 	teqne	r1, #1073741828	; 0x40000004
    1690:	89240000 	stmdbhi	r4!, {}	; <UNPREDICTABLE>
    1694:	11010182 	smlabbne	r1, r2, r1, r0
    1698:	01133101 	tsteq	r3, r1, lsl #2
    169c:	25000013 	strcs	r0, [r0, #-19]	; 0xffffffed
    16a0:	0001828a 	andeq	r8, r1, sl, lsl #5
    16a4:	42911802 	addsmi	r1, r1, #131072	; 0x20000
    16a8:	26000018 			; <UNDEFINED> instruction: 0x26000018
    16ac:	193f012e 	ldmdbne	pc!, {r1, r2, r3, r5, r8}	; <UNPREDICTABLE>
    16b0:	0b3a0e03 	bleq	e84ec4 <__bss_end__+0xe7b45c>
    16b4:	19270b3b 	stmdbne	r7!, {r0, r1, r3, r4, r5, r8, r9, fp}
    16b8:	06120111 			; <UNDEFINED> instruction: 0x06120111
    16bc:	42971840 	addsmi	r1, r7, #64, 16	; 0x400000
    16c0:	00130119 	andseq	r0, r3, r9, lsl r1
    16c4:	012e2700 			; <UNDEFINED> instruction: 0x012e2700
    16c8:	0e03193f 			; <UNDEFINED> instruction: 0x0e03193f
    16cc:	0b3b0b3a 	bleq	ec43bc <__bss_end__+0xeba954>
    16d0:	13491927 	movtne	r1, #39207	; 0x9927
    16d4:	06120111 			; <UNDEFINED> instruction: 0x06120111
    16d8:	42971840 	addsmi	r1, r7, #64, 16	; 0x400000
    16dc:	00130119 	andseq	r0, r3, r9, lsl r1
    16e0:	002e2800 	eoreq	r2, lr, r0, lsl #16
    16e4:	193c193f 	ldmdbne	ip!, {r0, r1, r2, r3, r4, r5, r8, fp, ip}
    16e8:	0e030e6e 	cdpeq	14, 0, cr0, cr3, cr14, {3}
    16ec:	0b3b0b3a 	bleq	ec43dc <__bss_end__+0xeba974>
    16f0:	01000000 	mrseq	r0, (UNDEF: 0)
    16f4:	0e250111 	mcreq	1, 1, r0, cr5, cr1, {0}
    16f8:	0e030b13 	vmoveq.32	d3[0], r0
    16fc:	01110e1b 	tsteq	r1, fp, lsl lr
    1700:	17100612 			; <UNDEFINED> instruction: 0x17100612
    1704:	24020000 	strcs	r0, [r2], #-0
    1708:	3e0b0b00 	vmlacc.f64	d0, d11, d0
    170c:	0008030b 	andeq	r0, r8, fp, lsl #6
    1710:	00240300 	eoreq	r0, r4, r0, lsl #6
    1714:	0b3e0b0b 	bleq	f84348 <__bss_end__+0xf7a8e0>
    1718:	00000e03 	andeq	r0, r0, r3, lsl #28
    171c:	03001604 	movweq	r1, #1540	; 0x604
    1720:	3b0b3a0e 	blcc	2cff60 <__bss_end__+0x2c64f8>
    1724:	0013490b 	andseq	r4, r3, fp, lsl #18
    1728:	00160500 	andseq	r0, r6, r0, lsl #10
    172c:	0b3a0e03 	bleq	e84f40 <__bss_end__+0xe7b4d8>
    1730:	1349053b 	movtne	r0, #38203	; 0x953b
    1734:	17060000 	strne	r0, [r6, -r0]
    1738:	3a0b0b01 	bcc	2c4344 <__bss_end__+0x2ba8dc>
    173c:	010b3b0b 	tsteq	fp, fp, lsl #22
    1740:	07000013 	smladeq	r0, r3, r0, r0
    1744:	0e03000d 	cdpeq	0, 0, cr0, cr3, cr13, {0}
    1748:	0b3b0b3a 	bleq	ec4438 <__bss_end__+0xeba9d0>
    174c:	00001349 	andeq	r1, r0, r9, asr #6
    1750:	49010108 	stmdbmi	r1, {r3, r8}
    1754:	00130113 	andseq	r0, r3, r3, lsl r1
    1758:	00210900 	eoreq	r0, r1, r0, lsl #18
    175c:	0b2f1349 	bleq	bc6488 <__bss_end__+0xbbca20>
    1760:	130a0000 	movwne	r0, #40960	; 0xa000
    1764:	3a0b0b01 	bcc	2c4370 <__bss_end__+0x2ba908>
    1768:	010b3b0b 	tsteq	fp, fp, lsl #22
    176c:	0b000013 	bleq	17c0 <_start-0x6840>
    1770:	0e03000d 	cdpeq	0, 0, cr0, cr3, cr13, {0}
    1774:	0b3b0b3a 	bleq	ec4464 <__bss_end__+0xeba9fc>
    1778:	0b381349 	bleq	e064a4 <__bss_end__+0xdfca3c>
    177c:	0f0c0000 	svceq	0x000c0000
    1780:	000b0b00 	andeq	r0, fp, r0, lsl #22
    1784:	000f0d00 	andeq	r0, pc, r0, lsl #26
    1788:	13490b0b 	movtne	r0, #39691	; 0x9b0b
    178c:	260e0000 	strcs	r0, [lr], -r0
    1790:	00134900 	andseq	r4, r3, r0, lsl #18
    1794:	01130f00 	tsteq	r3, r0, lsl #30
    1798:	0b0b0e03 	bleq	2c4fac <__bss_end__+0x2bb544>
    179c:	0b3b0b3a 	bleq	ec448c <__bss_end__+0xebaa24>
    17a0:	00001301 	andeq	r1, r0, r1, lsl #6
    17a4:	03000d10 	movweq	r0, #3344	; 0xd10
    17a8:	3b0b3a08 	blcc	2cffd0 <__bss_end__+0x2c6568>
    17ac:	3813490b 	ldmdacc	r3, {r0, r1, r3, r8, fp, lr}
    17b0:	1100000b 	tstne	r0, fp
    17b4:	0e030113 	mcreq	1, 0, r0, cr3, cr3, {0}
    17b8:	0b3a050b 	bleq	e82bec <__bss_end__+0xe79184>
    17bc:	13010b3b 	movwne	r0, #6971	; 0x1b3b
    17c0:	0d120000 	ldceq	0, cr0, [r2, #-0]
    17c4:	3a0e0300 	bcc	3823cc <__bss_end__+0x378964>
    17c8:	490b3b0b 	stmdbmi	fp, {r0, r1, r3, r8, r9, fp, ip, sp}
    17cc:	00053813 	andeq	r3, r5, r3, lsl r8
    17d0:	00151300 	andseq	r1, r5, r0, lsl #6
    17d4:	00001927 	andeq	r1, r0, r7, lsr #18
    17d8:	27011514 	smladcs	r1, r4, r5, r1
    17dc:	01134919 	tsteq	r3, r9, lsl r9
    17e0:	15000013 	strne	r0, [r0, #-19]	; 0xffffffed
    17e4:	13490005 	movtne	r0, #36869	; 0x9005
    17e8:	13160000 	tstne	r6, #0
    17ec:	0b0e0301 	bleq	3823f8 <__bss_end__+0x378990>
    17f0:	3b0b3a05 	blcc	2d000c <__bss_end__+0x2c65a4>
    17f4:	00130105 	andseq	r0, r3, r5, lsl #2
    17f8:	000d1700 	andeq	r1, sp, r0, lsl #14
    17fc:	0b3a0e03 	bleq	e85010 <__bss_end__+0xe7b5a8>
    1800:	1349053b 	movtne	r0, #38203	; 0x953b
    1804:	00000b38 	andeq	r0, r0, r8, lsr fp
    1808:	03000d18 	movweq	r0, #3352	; 0xd18
    180c:	3b0b3a0e 	blcc	2d004c <__bss_end__+0x2c65e4>
    1810:	38134905 	ldmdacc	r3, {r0, r2, r8, fp, lr}
    1814:	19000005 	stmdbne	r0, {r0, r2}
    1818:	0e030113 	mcreq	1, 0, r0, cr3, cr3, {0}
    181c:	0b3a0b0b 	bleq	e84450 <__bss_end__+0xe7a9e8>
    1820:	1301053b 	movwne	r0, #5435	; 0x153b
    1824:	131a0000 	tstne	sl, #0
    1828:	3a0b0b01 	bcc	2c4434 <__bss_end__+0x2ba9cc>
    182c:	01053b0b 	tsteq	r5, fp, lsl #22
    1830:	1b000013 	blne	1884 <_start-0x677c>
    1834:	0b0b0117 	bleq	2c1c98 <__bss_end__+0x2b8230>
    1838:	053b0b3a 	ldreq	r0, [fp, #-2874]!	; 0xfffff4c6
    183c:	00001301 	andeq	r1, r0, r1, lsl #6
    1840:	03000d1c 	movweq	r0, #3356	; 0xd1c
    1844:	3b0b3a0e 	blcc	2d0084 <__bss_end__+0x2c661c>
    1848:	00134905 	andseq	r4, r3, r5, lsl #18
    184c:	01151d00 	tsteq	r5, r0, lsl #26
    1850:	13011927 	movwne	r1, #6439	; 0x1927
    1854:	341e0000 	ldrcc	r0, [lr], #-0
    1858:	3a0e0300 	bcc	382460 <__bss_end__+0x3789f8>
    185c:	49053b0b 	stmdbmi	r5, {r0, r1, r3, r8, r9, fp, ip, sp}
    1860:	3c193f13 	ldccc	15, cr3, [r9], {19}
    1864:	1f000019 	svcne	0x00000019
    1868:	0e030034 	mcreq	0, 0, r0, cr3, cr4, {1}
    186c:	0b3b0b3a 	bleq	ec455c <__bss_end__+0xebaaf4>
    1870:	193f1349 	ldmdbne	pc!, {r0, r3, r6, r8, r9, ip}	; <UNPREDICTABLE>
    1874:	0000193c 	andeq	r1, r0, ip, lsr r9
    1878:	3f012e20 	svccc	0x00012e20
    187c:	3a0e0319 	bcc	3824e8 <__bss_end__+0x378a80>
    1880:	270b3b0b 	strcs	r3, [fp, -fp, lsl #22]
    1884:	19018719 	stmdbne	r1, {r0, r3, r4, r8, r9, sl, pc}
    1888:	06120111 			; <UNDEFINED> instruction: 0x06120111
    188c:	42971840 	addsmi	r1, r7, #64, 16	; 0x400000
    1890:	00130119 	andseq	r0, r3, r9, lsl r1
    1894:	82892100 	addhi	r2, r9, #0, 2
    1898:	01110101 	tsteq	r1, r1, lsl #2
    189c:	00001301 	andeq	r1, r0, r1, lsl #6
    18a0:	01828a22 	orreq	r8, r2, r2, lsr #20
    18a4:	91180200 	tstls	r8, r0, lsl #4
    18a8:	00001842 	andeq	r1, r0, r2, asr #16
    18ac:	01828923 	orreq	r8, r2, r3, lsr #18
    18b0:	31011101 	tstcc	r1, r1, lsl #2
    18b4:	00130113 	andseq	r0, r3, r3, lsl r1
    18b8:	82892400 	addhi	r2, r9, #0, 8
    18bc:	01110001 	tsteq	r1, r1
    18c0:	00001331 	andeq	r1, r0, r1, lsr r3
    18c4:	3f002e25 	svccc	0x00002e25
    18c8:	6e193c19 	mrcvs	12, 0, r3, cr9, cr9, {0}
    18cc:	3a0e030e 	bcc	38250c <__bss_end__+0x378aa4>
    18d0:	000b3b0b 	andeq	r3, fp, fp, lsl #22
    18d4:	11010000 	mrsne	r0, (UNDEF: 1)
    18d8:	130e2501 	movwne	r2, #58625	; 0xe501
    18dc:	1b0e030b 	blne	382510 <__bss_end__+0x378aa8>
    18e0:	1201110e 	andne	r1, r1, #-2147483645	; 0x80000003
    18e4:	00171006 	andseq	r1, r7, r6
    18e8:	00240200 	eoreq	r0, r4, r0, lsl #4
    18ec:	0b3e0b0b 	bleq	f84520 <__bss_end__+0xf7aab8>
    18f0:	00000803 	andeq	r0, r0, r3, lsl #16
    18f4:	0b002403 	bleq	a908 <__bss_end__+0xea0>
    18f8:	030b3e0b 	movweq	r3, #48651	; 0xbe0b
    18fc:	0400000e 	streq	r0, [r0], #-14
    1900:	0e030016 	mcreq	0, 0, r0, cr3, cr6, {0}
    1904:	0b3b0b3a 	bleq	ec45f4 <__bss_end__+0xebab8c>
    1908:	00001349 	andeq	r1, r0, r9, asr #6
    190c:	03001605 	movweq	r1, #1541	; 0x605
    1910:	3b0b3a0e 	blcc	2d0150 <__bss_end__+0x2c66e8>
    1914:	00134905 	andseq	r4, r3, r5, lsl #18
    1918:	01170600 	tsteq	r7, r0, lsl #12
    191c:	0b3a0b0b 	bleq	e84550 <__bss_end__+0xe7aae8>
    1920:	13010b3b 	movwne	r0, #6971	; 0x1b3b
    1924:	0d070000 	stceq	0, cr0, [r7, #-0]
    1928:	3a0e0300 	bcc	382530 <__bss_end__+0x378ac8>
    192c:	490b3b0b 	stmdbmi	fp, {r0, r1, r3, r8, r9, fp, ip, sp}
    1930:	08000013 	stmdaeq	r0, {r0, r1, r4}
    1934:	13490101 	movtne	r0, #37121	; 0x9101
    1938:	00001301 	andeq	r1, r0, r1, lsl #6
    193c:	49002109 	stmdbmi	r0, {r0, r3, r8, sp}
    1940:	000b2f13 	andeq	r2, fp, r3, lsl pc
    1944:	01130a00 	tsteq	r3, r0, lsl #20
    1948:	0b3a0b0b 	bleq	e8457c <__bss_end__+0xe7ab14>
    194c:	13010b3b 	movwne	r0, #6971	; 0x1b3b
    1950:	0d0b0000 	stceq	0, cr0, [fp, #-0]
    1954:	3a0e0300 	bcc	38255c <__bss_end__+0x378af4>
    1958:	490b3b0b 	stmdbmi	fp, {r0, r1, r3, r8, r9, fp, ip, sp}
    195c:	000b3813 	andeq	r3, fp, r3, lsl r8
    1960:	000f0c00 	andeq	r0, pc, r0, lsl #24
    1964:	00000b0b 	andeq	r0, r0, fp, lsl #22
    1968:	0b000f0d 	bleq	55a4 <_start-0x2a5c>
    196c:	0013490b 	andseq	r4, r3, fp, lsl #18
    1970:	00260e00 	eoreq	r0, r6, r0, lsl #28
    1974:	00001349 	andeq	r1, r0, r9, asr #6
    1978:	0301130f 	movweq	r1, #4879	; 0x130f
    197c:	3a0b0b0e 	bcc	2c45bc <__bss_end__+0x2bab54>
    1980:	010b3b0b 	tsteq	fp, fp, lsl #22
    1984:	10000013 	andne	r0, r0, r3, lsl r0
    1988:	0803000d 	stmdaeq	r3, {r0, r2, r3}
    198c:	0b3b0b3a 	bleq	ec467c <__bss_end__+0xebac14>
    1990:	0b381349 	bleq	e066bc <__bss_end__+0xdfcc54>
    1994:	13110000 	tstne	r1, #0
    1998:	0b0e0301 	bleq	3825a4 <__bss_end__+0x378b3c>
    199c:	3b0b3a05 	blcc	2d01b8 <__bss_end__+0x2c6750>
    19a0:	0013010b 	andseq	r0, r3, fp, lsl #2
    19a4:	000d1200 	andeq	r1, sp, r0, lsl #4
    19a8:	0b3a0e03 	bleq	e851bc <__bss_end__+0xe7b754>
    19ac:	13490b3b 	movtne	r0, #39739	; 0x9b3b
    19b0:	00000538 	andeq	r0, r0, r8, lsr r5
    19b4:	27001513 	smladcs	r0, r3, r5, r1
    19b8:	14000019 	strne	r0, [r0], #-25	; 0xffffffe7
    19bc:	19270115 	stmdbne	r7!, {r0, r2, r4, r8}
    19c0:	13011349 	movwne	r1, #4937	; 0x1349
    19c4:	05150000 	ldreq	r0, [r5, #-0]
    19c8:	00134900 	andseq	r4, r3, r0, lsl #18
    19cc:	01131600 	tsteq	r3, r0, lsl #12
    19d0:	050b0e03 	streq	r0, [fp, #-3587]	; 0xfffff1fd
    19d4:	053b0b3a 	ldreq	r0, [fp, #-2874]!	; 0xfffff4c6
    19d8:	00001301 	andeq	r1, r0, r1, lsl #6
    19dc:	03000d17 	movweq	r0, #3351	; 0xd17
    19e0:	3b0b3a0e 	blcc	2d0220 <__bss_end__+0x2c67b8>
    19e4:	38134905 	ldmdacc	r3, {r0, r2, r8, fp, lr}
    19e8:	1800000b 	stmdane	r0, {r0, r1, r3}
    19ec:	0e03000d 	cdpeq	0, 0, cr0, cr3, cr13, {0}
    19f0:	053b0b3a 	ldreq	r0, [fp, #-2874]!	; 0xfffff4c6
    19f4:	05381349 	ldreq	r1, [r8, #-841]!	; 0xfffffcb7
    19f8:	13190000 	tstne	r9, #0
    19fc:	0b0e0301 	bleq	382608 <__bss_end__+0x378ba0>
    1a00:	3b0b3a0b 	blcc	2d0234 <__bss_end__+0x2c67cc>
    1a04:	00130105 	andseq	r0, r3, r5, lsl #2
    1a08:	01131a00 	tsteq	r3, r0, lsl #20
    1a0c:	0b3a0b0b 	bleq	e84640 <__bss_end__+0xe7abd8>
    1a10:	1301053b 	movwne	r0, #5435	; 0x153b
    1a14:	171b0000 	ldrne	r0, [fp, -r0]
    1a18:	3a0b0b01 	bcc	2c4624 <__bss_end__+0x2babbc>
    1a1c:	01053b0b 	tsteq	r5, fp, lsl #22
    1a20:	1c000013 	stcne	0, cr0, [r0], {19}
    1a24:	0e03000d 	cdpeq	0, 0, cr0, cr3, cr13, {0}
    1a28:	053b0b3a 	ldreq	r0, [fp, #-2874]!	; 0xfffff4c6
    1a2c:	00001349 	andeq	r1, r0, r9, asr #6
    1a30:	2701151d 	smladcs	r1, sp, r5, r1
    1a34:	00130119 	andseq	r0, r3, r9, lsl r1
    1a38:	00341e00 	eorseq	r1, r4, r0, lsl #28
    1a3c:	0b3a0e03 	bleq	e85250 <__bss_end__+0xe7b7e8>
    1a40:	1349053b 	movtne	r0, #38203	; 0x953b
    1a44:	193c193f 	ldmdbne	ip!, {r0, r1, r2, r3, r4, r5, r8, fp, ip}
    1a48:	341f0000 	ldrcc	r0, [pc], #-0	; 1a50 <_start-0x65b0>
    1a4c:	3a0e0300 	bcc	382654 <__bss_end__+0x378bec>
    1a50:	490b3b0b 	stmdbmi	fp, {r0, r1, r3, r8, r9, fp, ip, sp}
    1a54:	3c193f13 	ldccc	15, cr3, [r9], {19}
    1a58:	20000019 	andcs	r0, r0, r9, lsl r0
    1a5c:	193f012e 	ldmdbne	pc!, {r1, r2, r3, r5, r8}	; <UNPREDICTABLE>
    1a60:	0b3a0e03 	bleq	e85274 <__bss_end__+0xe7b80c>
    1a64:	19270b3b 	stmdbne	r7!, {r0, r1, r3, r4, r5, r8, r9, fp}
    1a68:	06120111 			; <UNDEFINED> instruction: 0x06120111
    1a6c:	42971840 	addsmi	r1, r7, #64, 16	; 0x400000
    1a70:	00130119 	andseq	r0, r3, r9, lsl r1
    1a74:	00052100 	andeq	r2, r5, r0, lsl #2
    1a78:	0b3a0803 	bleq	e83a8c <__bss_end__+0xe7a024>
    1a7c:	13490b3b 	movtne	r0, #39739	; 0x9b3b
    1a80:	00001702 	andeq	r1, r0, r2, lsl #14
    1a84:	01828922 	orreq	r8, r2, r2, lsr #18
    1a88:	31011101 	tstcc	r1, r1, lsl #2
    1a8c:	23000013 	movwcs	r0, #19
    1a90:	0001828a 	andeq	r8, r1, sl, lsl #5
    1a94:	42911802 	addsmi	r1, r1, #131072	; 0x20000
    1a98:	24000018 	strcs	r0, [r0], #-24	; 0xffffffe8
    1a9c:	08030034 	stmdaeq	r3, {r2, r4, r5}
    1aa0:	0b3b0b3a 	bleq	ec4790 <__bss_end__+0xebad28>
    1aa4:	18021349 	stmdane	r2, {r0, r3, r6, r8, r9, ip}
    1aa8:	0b250000 	bleq	941ab0 <__bss_end__+0x938048>
    1aac:	12011101 	andne	r1, r1, #1073741824	; 0x40000000
    1ab0:	00130106 	andseq	r0, r3, r6, lsl #2
    1ab4:	00342600 	eorseq	r2, r4, r0, lsl #12
    1ab8:	0b3a0803 	bleq	e83acc <__bss_end__+0xe7a064>
    1abc:	13490b3b 	movtne	r0, #39739	; 0x9b3b
    1ac0:	00001702 	andeq	r1, r0, r2, lsl #14
    1ac4:	01828927 	orreq	r8, r2, r7, lsr #18
    1ac8:	31011100 	mrscc	r1, (UNDEF: 17)
    1acc:	28000013 	stmdacs	r0, {r0, r1, r4}
    1ad0:	193f012e 	ldmdbne	pc!, {r1, r2, r3, r5, r8}	; <UNPREDICTABLE>
    1ad4:	0b3a0e03 	bleq	e852e8 <__bss_end__+0xe7b880>
    1ad8:	19270b3b 	stmdbne	r7!, {r0, r1, r3, r4, r5, r8, r9, fp}
    1adc:	01111349 	tsteq	r1, r9, asr #6
    1ae0:	18400612 	stmdane	r0, {r1, r4, r9, sl}^
    1ae4:	01194297 			; <UNDEFINED> instruction: 0x01194297
    1ae8:	29000013 	stmdbcs	r0, {r0, r1, r4}
    1aec:	0e030005 	cdpeq	0, 0, cr0, cr3, cr5, {0}
    1af0:	0b3b0b3a 	bleq	ec47e0 <__bss_end__+0xebad78>
    1af4:	17021349 	strne	r1, [r2, -r9, asr #6]
    1af8:	2e2a0000 	cdpcs	0, 2, cr0, cr10, cr0, {0}
    1afc:	3c193f00 	ldccc	15, cr3, [r9], {-0}
    1b00:	030e6e19 	movweq	r6, #60953	; 0xee19
    1b04:	3b0b3a0e 	blcc	2d0344 <__bss_end__+0x2c68dc>
    1b08:	0000000b 	andeq	r0, r0, fp
    1b0c:	25011101 	strcs	r1, [r1, #-257]	; 0xfffffeff
    1b10:	030b130e 	movweq	r1, #45838	; 0xb30e
    1b14:	110e1b0e 	tstne	lr, lr, lsl #22
    1b18:	10061201 	andne	r1, r6, r1, lsl #4
    1b1c:	02000017 	andeq	r0, r0, #23
    1b20:	0b0b0024 	bleq	2c1bb8 <__bss_end__+0x2b8150>
    1b24:	08030b3e 	stmdaeq	r3, {r1, r2, r3, r4, r5, r8, r9, fp}
    1b28:	24030000 	strcs	r0, [r3], #-0
    1b2c:	3e0b0b00 	vmlacc.f64	d0, d11, d0
    1b30:	000e030b 	andeq	r0, lr, fp, lsl #6
    1b34:	00350400 	eorseq	r0, r5, r0, lsl #8
    1b38:	00001349 	andeq	r1, r0, r9, asr #6
    1b3c:	03001605 	movweq	r1, #1541	; 0x605
    1b40:	3b0b3a0e 	blcc	2d0380 <__bss_end__+0x2c6918>
    1b44:	0013490b 	andseq	r4, r3, fp, lsl #18
    1b48:	00160600 	andseq	r0, r6, r0, lsl #12
    1b4c:	0b3a0e03 	bleq	e85360 <__bss_end__+0xe7b8f8>
    1b50:	1349053b 	movtne	r0, #38203	; 0x953b
    1b54:	17070000 	strne	r0, [r7, -r0]
    1b58:	3a0b0b01 	bcc	2c4764 <__bss_end__+0x2bacfc>
    1b5c:	010b3b0b 	tsteq	fp, fp, lsl #22
    1b60:	08000013 	stmdaeq	r0, {r0, r1, r4}
    1b64:	0e03000d 	cdpeq	0, 0, cr0, cr3, cr13, {0}
    1b68:	0b3b0b3a 	bleq	ec4858 <__bss_end__+0xebadf0>
    1b6c:	00001349 	andeq	r1, r0, r9, asr #6
    1b70:	49010109 	stmdbmi	r1, {r0, r3, r8}
    1b74:	00130113 	andseq	r0, r3, r3, lsl r1
    1b78:	00210a00 	eoreq	r0, r1, r0, lsl #20
    1b7c:	0b2f1349 	bleq	bc68a8 <__bss_end__+0xbbce40>
    1b80:	130b0000 	movwne	r0, #45056	; 0xb000
    1b84:	3a0b0b01 	bcc	2c4790 <__bss_end__+0x2bad28>
    1b88:	010b3b0b 	tsteq	fp, fp, lsl #22
    1b8c:	0c000013 	stceq	0, cr0, [r0], {19}
    1b90:	0e03000d 	cdpeq	0, 0, cr0, cr3, cr13, {0}
    1b94:	0b3b0b3a 	bleq	ec4884 <__bss_end__+0xebae1c>
    1b98:	0b381349 	bleq	e068c4 <__bss_end__+0xdfce5c>
    1b9c:	0f0d0000 	svceq	0x000d0000
    1ba0:	000b0b00 	andeq	r0, fp, r0, lsl #22
    1ba4:	000f0e00 	andeq	r0, pc, r0, lsl #28
    1ba8:	13490b0b 	movtne	r0, #39691	; 0x9b0b
    1bac:	260f0000 	strcs	r0, [pc], -r0
    1bb0:	00134900 	andseq	r4, r3, r0, lsl #18
    1bb4:	01131000 	tsteq	r3, r0
    1bb8:	0b0b0e03 	bleq	2c53cc <__bss_end__+0x2bb964>
    1bbc:	0b3b0b3a 	bleq	ec48ac <__bss_end__+0xebae44>
    1bc0:	00001301 	andeq	r1, r0, r1, lsl #6
    1bc4:	03000d11 	movweq	r0, #3345	; 0xd11
    1bc8:	3b0b3a08 	blcc	2d03f0 <__bss_end__+0x2c6988>
    1bcc:	3813490b 	ldmdacc	r3, {r0, r1, r3, r8, fp, lr}
    1bd0:	1200000b 	andne	r0, r0, #11
    1bd4:	0e030113 	mcreq	1, 0, r0, cr3, cr3, {0}
    1bd8:	0b3a050b 	bleq	e8300c <__bss_end__+0xe795a4>
    1bdc:	13010b3b 	movwne	r0, #6971	; 0x1b3b
    1be0:	0d130000 	ldceq	0, cr0, [r3, #-0]
    1be4:	3a0e0300 	bcc	3827ec <__bss_end__+0x378d84>
    1be8:	490b3b0b 	stmdbmi	fp, {r0, r1, r3, r8, r9, fp, ip, sp}
    1bec:	00053813 	andeq	r3, r5, r3, lsl r8
    1bf0:	00151400 	andseq	r1, r5, r0, lsl #8
    1bf4:	00001927 	andeq	r1, r0, r7, lsr #18
    1bf8:	27011515 	smladcs	r1, r5, r5, r1
    1bfc:	01134919 	tsteq	r3, r9, lsl r9
    1c00:	16000013 			; <UNDEFINED> instruction: 0x16000013
    1c04:	13490005 	movtne	r0, #36869	; 0x9005
    1c08:	13170000 	tstne	r7, #0
    1c0c:	0b0e0301 	bleq	382818 <__bss_end__+0x378db0>
    1c10:	3b0b3a05 	blcc	2d042c <__bss_end__+0x2c69c4>
    1c14:	00130105 	andseq	r0, r3, r5, lsl #2
    1c18:	000d1800 	andeq	r1, sp, r0, lsl #16
    1c1c:	0b3a0e03 	bleq	e85430 <__bss_end__+0xe7b9c8>
    1c20:	1349053b 	movtne	r0, #38203	; 0x953b
    1c24:	00000b38 	andeq	r0, r0, r8, lsr fp
    1c28:	03000d19 	movweq	r0, #3353	; 0xd19
    1c2c:	3b0b3a0e 	blcc	2d046c <__bss_end__+0x2c6a04>
    1c30:	38134905 	ldmdacc	r3, {r0, r2, r8, fp, lr}
    1c34:	1a000005 	bne	1c50 <_start-0x63b0>
    1c38:	0e030113 	mcreq	1, 0, r0, cr3, cr3, {0}
    1c3c:	0b3a0b0b 	bleq	e84870 <__bss_end__+0xe7ae08>
    1c40:	1301053b 	movwne	r0, #5435	; 0x153b
    1c44:	131b0000 	tstne	fp, #0
    1c48:	3a0b0b01 	bcc	2c4854 <__bss_end__+0x2badec>
    1c4c:	01053b0b 	tsteq	r5, fp, lsl #22
    1c50:	1c000013 	stcne	0, cr0, [r0], {19}
    1c54:	0b0b0117 	bleq	2c20b8 <__bss_end__+0x2b8650>
    1c58:	053b0b3a 	ldreq	r0, [fp, #-2874]!	; 0xfffff4c6
    1c5c:	00001301 	andeq	r1, r0, r1, lsl #6
    1c60:	03000d1d 	movweq	r0, #3357	; 0xd1d
    1c64:	3b0b3a0e 	blcc	2d04a4 <__bss_end__+0x2c6a3c>
    1c68:	00134905 	andseq	r4, r3, r5, lsl #18
    1c6c:	01151e00 	tsteq	r5, r0, lsl #28
    1c70:	13011927 	movwne	r1, #6439	; 0x1927
    1c74:	341f0000 	ldrcc	r0, [pc], #-0	; 1c7c <_start-0x6384>
    1c78:	3a0e0300 	bcc	382880 <__bss_end__+0x378e18>
    1c7c:	49053b0b 	stmdbmi	r5, {r0, r1, r3, r8, r9, fp, ip, sp}
    1c80:	3c193f13 	ldccc	15, cr3, [r9], {19}
    1c84:	20000019 	andcs	r0, r0, r9, lsl r0
    1c88:	0e030034 	mcreq	0, 0, r0, cr3, cr4, {1}
    1c8c:	0b3b0b3a 	bleq	ec497c <__bss_end__+0xebaf14>
    1c90:	193f1349 	ldmdbne	pc!, {r0, r3, r6, r8, r9, ip}	; <UNPREDICTABLE>
    1c94:	0000193c 	andeq	r1, r0, ip, lsr r9
    1c98:	0b010421 	bleq	42d24 <__bss_end__+0x392bc>
    1c9c:	3a13490b 	bcc	4d40d0 <__bss_end__+0x4ca668>
    1ca0:	010b3b0b 	tsteq	fp, fp, lsl #22
    1ca4:	22000013 	andcs	r0, r0, #19
    1ca8:	0e030028 	cdpeq	0, 0, cr0, cr3, cr8, {1}
    1cac:	00000b1c 	andeq	r0, r0, ip, lsl fp
    1cb0:	03003423 	movweq	r3, #1059	; 0x423
    1cb4:	3b0b3a0e 	blcc	2d04f4 <__bss_end__+0x2c6a8c>
    1cb8:	1c13490b 			; <UNDEFINED> instruction: 0x1c13490b
    1cbc:	24000006 	strcs	r0, [r0], #-6
    1cc0:	193f012e 	ldmdbne	pc!, {r1, r2, r3, r5, r8}	; <UNPREDICTABLE>
    1cc4:	0b3a0e03 	bleq	e854d8 <__bss_end__+0xe7ba70>
    1cc8:	19270b3b 	stmdbne	r7!, {r0, r1, r3, r4, r5, r8, r9, fp}
    1ccc:	01111349 	tsteq	r1, r9, asr #6
    1cd0:	18400612 	stmdane	r0, {r1, r4, r9, sl}^
    1cd4:	01194297 			; <UNDEFINED> instruction: 0x01194297
    1cd8:	25000013 	strcs	r0, [r0, #-19]	; 0xffffffed
    1cdc:	00018289 	andeq	r8, r1, r9, lsl #5
    1ce0:	13310111 	teqne	r1, #1073741828	; 0x40000004
    1ce4:	2e260000 	cdpcs	0, 2, cr0, cr6, cr0, {0}
    1ce8:	03193f01 	tsteq	r9, #1, 30
    1cec:	3b0b3a0e 	blcc	2d052c <__bss_end__+0x2c6ac4>
    1cf0:	1119270b 	tstne	r9, fp, lsl #14
    1cf4:	40061201 	andmi	r1, r6, r1, lsl #4
    1cf8:	19429718 	stmdbne	r2, {r3, r4, r8, r9, sl, ip, pc}^
    1cfc:	00001301 	andeq	r1, r0, r1, lsl #6
    1d00:	03000527 	movweq	r0, #1319	; 0x527
    1d04:	3b0b3a08 	blcc	2d052c <__bss_end__+0x2c6ac4>
    1d08:	0213490b 	andseq	r4, r3, #180224	; 0x2c000
    1d0c:	28000017 	stmdacs	r0, {r0, r1, r2, r4}
    1d10:	01018289 	smlabbeq	r1, r9, r2, r8
    1d14:	13310111 	teqne	r1, #1073741828	; 0x40000004
    1d18:	00001301 	andeq	r1, r0, r1, lsl #6
    1d1c:	01828a29 	orreq	r8, r2, r9, lsr #20
    1d20:	91180200 	tstls	r8, r0, lsl #4
    1d24:	00001842 	andeq	r1, r0, r2, asr #16
    1d28:	0300342a 	movweq	r3, #1066	; 0x42a
    1d2c:	3b0b3a08 	blcc	2d0554 <__bss_end__+0x2c6aec>
    1d30:	0213490b 	andseq	r4, r3, #180224	; 0x2c000
    1d34:	2b000018 	blcs	1d9c <_start-0x6264>
    1d38:	01018289 	smlabbeq	r1, r9, r2, r8
    1d3c:	13310111 	teqne	r1, #1073741828	; 0x40000004
    1d40:	2e2c0000 	cdpcs	0, 2, cr0, cr12, cr0, {0}
    1d44:	3a0e0301 	bcc	382950 <__bss_end__+0x378ee8>
    1d48:	270b3b0b 	strcs	r3, [fp, -fp, lsl #22]
    1d4c:	12011119 	andne	r1, r1, #1073741830	; 0x40000006
    1d50:	97184006 	ldrls	r4, [r8, -r6]
    1d54:	13011942 	movwne	r1, #6466	; 0x1942
    1d58:	052d0000 	streq	r0, [sp, #-0]!
    1d5c:	3a0e0300 	bcc	382964 <__bss_end__+0x378efc>
    1d60:	490b3b0b 	stmdbmi	fp, {r0, r1, r3, r8, r9, fp, ip, sp}
    1d64:	00170213 	andseq	r0, r7, r3, lsl r2
    1d68:	00352e00 	eorseq	r2, r5, r0, lsl #28
    1d6c:	2e2f0000 	cdpcs	0, 2, cr0, cr15, cr0, {0}
    1d70:	3c193f00 	ldccc	15, cr3, [r9], {-0}
    1d74:	030e6e19 	movweq	r6, #60953	; 0xee19
    1d78:	3b0b3a0e 	blcc	2d05b8 <__bss_end__+0x2c6b50>
    1d7c:	0000000b 	andeq	r0, r0, fp
    1d80:	25011101 	strcs	r1, [r1, #-257]	; 0xfffffeff
    1d84:	030b130e 	movweq	r1, #45838	; 0xb30e
    1d88:	110e1b0e 	tstne	lr, lr, lsl #22
    1d8c:	10061201 	andne	r1, r6, r1, lsl #4
    1d90:	02000017 	andeq	r0, r0, #23
    1d94:	0b0b0024 	bleq	2c1e2c <__bss_end__+0x2b83c4>
    1d98:	08030b3e 	stmdaeq	r3, {r1, r2, r3, r4, r5, r8, r9, fp}
    1d9c:	24030000 	strcs	r0, [r3], #-0
    1da0:	3e0b0b00 	vmlacc.f64	d0, d11, d0
    1da4:	000e030b 	andeq	r0, lr, fp, lsl #6
    1da8:	00260400 	eoreq	r0, r6, r0, lsl #8
    1dac:	00001349 	andeq	r1, r0, r9, asr #6
    1db0:	03001605 	movweq	r1, #1541	; 0x605
    1db4:	3b0b3a0e 	blcc	2d05f4 <__bss_end__+0x2c6b8c>
    1db8:	0013490b 	andseq	r4, r3, fp, lsl #18
    1dbc:	00160600 	andseq	r0, r6, r0, lsl #12
    1dc0:	0b3a0e03 	bleq	e855d4 <__bss_end__+0xe7bb6c>
    1dc4:	1349053b 	movtne	r0, #38203	; 0x953b
    1dc8:	17070000 	strne	r0, [r7, -r0]
    1dcc:	3a0b0b01 	bcc	2c49d8 <__bss_end__+0x2baf70>
    1dd0:	010b3b0b 	tsteq	fp, fp, lsl #22
    1dd4:	08000013 	stmdaeq	r0, {r0, r1, r4}
    1dd8:	0e03000d 	cdpeq	0, 0, cr0, cr3, cr13, {0}
    1ddc:	0b3b0b3a 	bleq	ec4acc <__bss_end__+0xebb064>
    1de0:	00001349 	andeq	r1, r0, r9, asr #6
    1de4:	49010109 	stmdbmi	r1, {r0, r3, r8}
    1de8:	00130113 	andseq	r0, r3, r3, lsl r1
    1dec:	00210a00 	eoreq	r0, r1, r0, lsl #20
    1df0:	0b2f1349 	bleq	bc6b1c <__bss_end__+0xbbd0b4>
    1df4:	130b0000 	movwne	r0, #45056	; 0xb000
    1df8:	3a0b0b01 	bcc	2c4a04 <__bss_end__+0x2baf9c>
    1dfc:	010b3b0b 	tsteq	fp, fp, lsl #22
    1e00:	0c000013 	stceq	0, cr0, [r0], {19}
    1e04:	0e03000d 	cdpeq	0, 0, cr0, cr3, cr13, {0}
    1e08:	0b3b0b3a 	bleq	ec4af8 <__bss_end__+0xebb090>
    1e0c:	0b381349 	bleq	e06b38 <__bss_end__+0xdfd0d0>
    1e10:	0f0d0000 	svceq	0x000d0000
    1e14:	000b0b00 	andeq	r0, fp, r0, lsl #22
    1e18:	000f0e00 	andeq	r0, pc, r0, lsl #28
    1e1c:	13490b0b 	movtne	r0, #39691	; 0x9b0b
    1e20:	130f0000 	movwne	r0, #61440	; 0xf000
    1e24:	0b0e0301 	bleq	382a30 <__bss_end__+0x378fc8>
    1e28:	3b0b3a0b 	blcc	2d065c <__bss_end__+0x2c6bf4>
    1e2c:	0013010b 	andseq	r0, r3, fp, lsl #2
    1e30:	000d1000 	andeq	r1, sp, r0
    1e34:	0b3a0803 	bleq	e83e48 <__bss_end__+0xe7a3e0>
    1e38:	13490b3b 	movtne	r0, #39739	; 0x9b3b
    1e3c:	00000b38 	andeq	r0, r0, r8, lsr fp
    1e40:	03011311 	movweq	r1, #4881	; 0x1311
    1e44:	3a050b0e 	bcc	144a84 <__bss_end__+0x13b01c>
    1e48:	010b3b0b 	tsteq	fp, fp, lsl #22
    1e4c:	12000013 	andne	r0, r0, #19
    1e50:	0e03000d 	cdpeq	0, 0, cr0, cr3, cr13, {0}
    1e54:	0b3b0b3a 	bleq	ec4b44 <__bss_end__+0xebb0dc>
    1e58:	05381349 	ldreq	r1, [r8, #-841]!	; 0xfffffcb7
    1e5c:	15130000 	ldrne	r0, [r3, #-0]
    1e60:	00192700 	andseq	r2, r9, r0, lsl #14
    1e64:	01151400 	tsteq	r5, r0, lsl #8
    1e68:	13491927 	movtne	r1, #39207	; 0x9927
    1e6c:	00001301 	andeq	r1, r0, r1, lsl #6
    1e70:	49000515 	stmdbmi	r0, {r0, r2, r4, r8, sl}
    1e74:	16000013 			; <UNDEFINED> instruction: 0x16000013
    1e78:	0e030113 	mcreq	1, 0, r0, cr3, cr3, {0}
    1e7c:	0b3a050b 	bleq	e832b0 <__bss_end__+0xe79848>
    1e80:	1301053b 	movwne	r0, #5435	; 0x153b
    1e84:	0d170000 	ldceq	0, cr0, [r7, #-0]
    1e88:	3a0e0300 	bcc	382a90 <__bss_end__+0x379028>
    1e8c:	49053b0b 	stmdbmi	r5, {r0, r1, r3, r8, r9, fp, ip, sp}
    1e90:	000b3813 	andeq	r3, fp, r3, lsl r8
    1e94:	000d1800 	andeq	r1, sp, r0, lsl #16
    1e98:	0b3a0e03 	bleq	e856ac <__bss_end__+0xe7bc44>
    1e9c:	1349053b 	movtne	r0, #38203	; 0x953b
    1ea0:	00000538 	andeq	r0, r0, r8, lsr r5
    1ea4:	03011319 	movweq	r1, #4889	; 0x1319
    1ea8:	3a0b0b0e 	bcc	2c4ae8 <__bss_end__+0x2bb080>
    1eac:	01053b0b 	tsteq	r5, fp, lsl #22
    1eb0:	1a000013 	bne	1f04 <_start-0x60fc>
    1eb4:	0b0b0113 	bleq	2c2308 <__bss_end__+0x2b88a0>
    1eb8:	053b0b3a 	ldreq	r0, [fp, #-2874]!	; 0xfffff4c6
    1ebc:	00001301 	andeq	r1, r0, r1, lsl #6
    1ec0:	0b01171b 	bleq	47b34 <__bss_end__+0x3e0cc>
    1ec4:	3b0b3a0b 	blcc	2d06f8 <__bss_end__+0x2c6c90>
    1ec8:	00130105 	andseq	r0, r3, r5, lsl #2
    1ecc:	000d1c00 	andeq	r1, sp, r0, lsl #24
    1ed0:	0b3a0e03 	bleq	e856e4 <__bss_end__+0xe7bc7c>
    1ed4:	1349053b 	movtne	r0, #38203	; 0x953b
    1ed8:	151d0000 	ldrne	r0, [sp, #-0]
    1edc:	01192701 	tsteq	r9, r1, lsl #14
    1ee0:	1e000013 	mcrne	0, 0, r0, cr0, cr3, {0}
    1ee4:	0e030034 	mcreq	0, 0, r0, cr3, cr4, {1}
    1ee8:	053b0b3a 	ldreq	r0, [fp, #-2874]!	; 0xfffff4c6
    1eec:	193f1349 	ldmdbne	pc!, {r0, r3, r6, r8, r9, ip}	; <UNPREDICTABLE>
    1ef0:	0000193c 	andeq	r1, r0, ip, lsr r9
    1ef4:	0300341f 	movweq	r3, #1055	; 0x41f
    1ef8:	3b0b3a0e 	blcc	2d0738 <__bss_end__+0x2c6cd0>
    1efc:	3f13490b 	svccc	0x0013490b
    1f00:	00193c19 	andseq	r3, r9, r9, lsl ip
    1f04:	01042000 	mrseq	r2, (UNDEF: 4)
    1f08:	13490b0b 	movtne	r0, #39691	; 0x9b0b
    1f0c:	0b3b0b3a 	bleq	ec4bfc <__bss_end__+0xebb194>
    1f10:	00001301 	andeq	r1, r0, r1, lsl #6
    1f14:	03002821 	movweq	r2, #2081	; 0x821
    1f18:	000b1c0e 	andeq	r1, fp, lr, lsl #24
    1f1c:	00342200 	eorseq	r2, r4, r0, lsl #4
    1f20:	0b3a0e03 	bleq	e85734 <__bss_end__+0xe7bccc>
    1f24:	13490b3b 	movtne	r0, #39739	; 0x9b3b
    1f28:	0000061c 	andeq	r0, r0, ip, lsl r6
    1f2c:	3f012e23 	svccc	0x00012e23
    1f30:	3a0e0319 	bcc	382b9c <__bss_end__+0x379134>
    1f34:	270b3b0b 	strcs	r3, [fp, -fp, lsl #22]
    1f38:	11134919 	tstne	r3, r9, lsl r9
    1f3c:	40061201 	andmi	r1, r6, r1, lsl #4
    1f40:	19429718 	stmdbne	r2, {r3, r4, r8, r9, sl, ip, pc}^
    1f44:	00001301 	andeq	r1, r0, r1, lsl #6
    1f48:	03000524 	movweq	r0, #1316	; 0x524
    1f4c:	3b0b3a08 	blcc	2d0774 <__bss_end__+0x2c6d0c>
    1f50:	0213490b 	andseq	r4, r3, #180224	; 0x2c000
    1f54:	25000017 	strcs	r0, [r0, #-23]	; 0xffffffe9
    1f58:	0e030034 	mcreq	0, 0, r0, cr3, cr4, {1}
    1f5c:	0b3b0b3a 	bleq	ec4c4c <__bss_end__+0xebb1e4>
    1f60:	17021349 	strne	r1, [r2, -r9, asr #6]
    1f64:	34260000 	strtcc	r0, [r6], #-0
    1f68:	3a080300 	bcc	202b70 <__bss_end__+0x1f9108>
    1f6c:	490b3b0b 	stmdbmi	fp, {r0, r1, r3, r8, r9, fp, ip, sp}
    1f70:	00170213 	andseq	r0, r7, r3, lsl r2
    1f74:	82892700 	addhi	r2, r9, #0, 14
    1f78:	01110101 	tsteq	r1, r1, lsl #2
    1f7c:	00001331 	andeq	r1, r0, r1, lsr r3
    1f80:	01828a28 	orreq	r8, r2, r8, lsr #20
    1f84:	91180200 	tstls	r8, r0, lsl #4
    1f88:	00001842 	andeq	r1, r0, r2, asr #16
    1f8c:	3f012e29 	svccc	0x00012e29
    1f90:	3a0e0319 	bcc	382bfc <__bss_end__+0x379194>
    1f94:	270b3b0b 	strcs	r3, [fp, -fp, lsl #22]
    1f98:	12011119 	andne	r1, r1, #1073741830	; 0x40000006
    1f9c:	97184006 	ldrls	r4, [r8, -r6]
    1fa0:	13011942 	movwne	r1, #6466	; 0x1942
    1fa4:	892a0000 	stmdbhi	sl!, {}	; <UNPREDICTABLE>
    1fa8:	11010182 	smlabbne	r1, r2, r1, r0
    1fac:	01133101 	tsteq	r3, r1, lsl #2
    1fb0:	2b000013 	blcs	2004 <_start-0x5ffc>
    1fb4:	00018289 	andeq	r8, r1, r9, lsl #5
    1fb8:	13310111 	teqne	r1, #1073741828	; 0x40000004
    1fbc:	052c0000 	streq	r0, [ip, #-0]!
    1fc0:	3a0e0300 	bcc	382bc8 <__bss_end__+0x379160>
    1fc4:	490b3b0b 	stmdbmi	fp, {r0, r1, r3, r8, r9, fp, ip, sp}
    1fc8:	00170213 	andseq	r0, r7, r3, lsl r2
    1fcc:	00342d00 	eorseq	r2, r4, r0, lsl #26
    1fd0:	0b3a0803 	bleq	e83fe4 <__bss_end__+0xe7a57c>
    1fd4:	13490b3b 	movtne	r0, #39739	; 0x9b3b
    1fd8:	00001802 	andeq	r1, r0, r2, lsl #16
    1fdc:	3f002e2e 	svccc	0x00002e2e
    1fe0:	6e193c19 	mrcvs	12, 0, r3, cr9, cr9, {0}
    1fe4:	3a0e030e 	bcc	382c24 <__bss_end__+0x3791bc>
    1fe8:	000b3b0b 	andeq	r3, fp, fp, lsl #22
	...

Disassembly of section .debug_loc:

00000000 <.debug_loc>:
       0:	00000038 	andeq	r0, r0, r8, lsr r0
       4:	0000003c 	andeq	r0, r0, ip, lsr r0
       8:	3c500001 	mrrccc	0, 0, r0, r0, cr1	; <UNPREDICTABLE>
       c:	c8000000 	stmdagt	r0, {}	; <UNPREDICTABLE>
      10:	01000000 	mrseq	r0, (UNDEF: 0)
      14:	00005400 	andeq	r5, r0, r0, lsl #8
      18:	00000000 	andeq	r0, r0, r0
      1c:	04e00000 	strbteq	r0, [r0], #0
      20:	05080000 	streq	r0, [r8, #-0]
      24:	00010000 	andeq	r0, r1, r0
      28:	00000055 	andeq	r0, r0, r5, asr r0
      2c:	00000000 	andeq	r0, r0, r0
      30:	0004e800 	andeq	lr, r4, r0, lsl #16
      34:	00050c00 	andeq	r0, r5, r0, lsl #24
      38:	56000100 	strpl	r0, [r0], -r0, lsl #2
	...
      44:	00000500 	andeq	r0, r0, r0, lsl #10
      48:	00000510 	andeq	r0, r0, r0, lsl r5
      4c:	9f300002 	svcls	0x00300002
      50:	00000510 	andeq	r0, r0, r0, lsl r5
      54:	000005a0 	andeq	r0, r0, r0, lsr #11
      58:	00560001 	subseq	r0, r6, r1
	...
      64:	10000005 	andne	r0, r0, r5
      68:	02000005 	andeq	r0, r0, #5
      6c:	109f3000 	addsne	r3, pc, r0
      70:	a0000005 	andge	r0, r0, r5
      74:	01000005 	tsteq	r0, r5
      78:	00005500 	andeq	r5, r0, r0, lsl #10
      7c:	00000000 	andeq	r0, r0, r0
      80:	02b00000 	adcseq	r0, r0, #0
      84:	02dc0000 	sbcseq	r0, ip, #0
      88:	00010000 	andeq	r0, r1, r0
      8c:	0002dc50 	andeq	sp, r2, r0, asr ip
      90:	0003d800 	andeq	sp, r3, r0, lsl #16
      94:	55000100 	strpl	r0, [r0, #-256]	; 0xffffff00
      98:	000003d8 	ldrdeq	r0, [r0], -r8
      9c:	000003db 	ldrdeq	r0, [r0], -fp
      a0:	db500001 	blle	14000ac <__bss_end__+0x13f6644>
      a4:	f4000003 	vst4.8	{d0-d3}, [r0], r3
      a8:	04000003 	streq	r0, [r0], #-3
      ac:	5001f300 	andpl	pc, r1, r0, lsl #6
      b0:	0003f49f 	muleq	r3, pc, r4	; <UNPREDICTABLE>
      b4:	0004cc00 	andeq	ip, r4, r0, lsl #24
      b8:	55000100 	strpl	r0, [r0, #-256]	; 0xffffff00
	...
      c4:	000002b0 			; <UNDEFINED> instruction: 0x000002b0
      c8:	000002df 	ldrdeq	r0, [r0], -pc	; <UNPREDICTABLE>
      cc:	df510001 	svcle	0x00510001
      d0:	d8000002 	stmdale	r0, {r1}
      d4:	01000003 	tsteq	r0, r3
      d8:	03d85900 	bicseq	r5, r8, #0, 18
      dc:	03db0000 	bicseq	r0, fp, #0
      e0:	00010000 	andeq	r0, r1, r0
      e4:	0003db51 	andeq	sp, r3, r1, asr fp
      e8:	0003f400 	andeq	pc, r3, r0, lsl #8
      ec:	f3000400 	vshl.u8	d0, d0, d0
      f0:	f49f5101 			; <UNDEFINED> instruction: 0xf49f5101
      f4:	cc000003 	stcgt	0, cr0, [r0], {3}
      f8:	01000004 	tsteq	r0, r4
      fc:	00005900 	andeq	r5, r0, r0, lsl #18
     100:	00000000 	andeq	r0, r0, r0
     104:	02b00000 	adcseq	r0, r0, #0
     108:	02df0000 	sbcseq	r0, pc, #0
     10c:	00010000 	andeq	r0, r1, r0
     110:	0002df52 	andeq	sp, r2, r2, asr pc
     114:	0003d800 	andeq	sp, r3, r0, lsl #16
     118:	58000100 	stmdapl	r0, {r8}
     11c:	000003d8 	ldrdeq	r0, [r0], -r8
     120:	000003db 	ldrdeq	r0, [r0], -fp
     124:	db520001 	blle	1480130 <__bss_end__+0x14766c8>
     128:	f4000003 	vst4.8	{d0-d3}, [r0], r3
     12c:	04000003 	streq	r0, [r0], #-3
     130:	5201f300 	andpl	pc, r1, #0, 6
     134:	0003f49f 	muleq	r3, pc, r4	; <UNPREDICTABLE>
     138:	0004cc00 	andeq	ip, r4, r0, lsl #24
     13c:	58000100 	stmdapl	r0, {r8}
	...
     148:	000002b0 			; <UNDEFINED> instruction: 0x000002b0
     14c:	000002c0 	andeq	r0, r0, r0, asr #5
     150:	c0530001 	subsgt	r0, r3, r1
     154:	60000002 	andvs	r0, r0, r2
     158:	01000003 	tsteq	r0, r3
     15c:	03605700 	cmneq	r0, #0, 14
     160:	03d80000 	bicseq	r0, r8, #0
     164:	00040000 	andeq	r0, r4, r0
     168:	9f5301f3 	svcls	0x005301f3
     16c:	000003d8 	ldrdeq	r0, [r0], -r8
     170:	0000047c 	andeq	r0, r0, ip, ror r4
     174:	7c570001 	mrrcvc	0, 0, r0, r7, cr1
     178:	cc000004 	stcgt	0, cr0, [r0], {4}
     17c:	04000004 	streq	r0, [r0], #-4
     180:	5301f300 	movwpl	pc, #4864	; 0x1300	; <UNPREDICTABLE>
     184:	0000009f 	muleq	r0, pc, r0	; <UNPREDICTABLE>
     188:	00000000 	andeq	r0, r0, r0
     18c:	0002bc00 	andeq	fp, r2, r0, lsl #24
     190:	00031400 	andeq	r1, r3, r0, lsl #8
     194:	30000200 	andcc	r0, r0, r0, lsl #4
     198:	0003149f 	muleq	r3, pc, r4	; <UNPREDICTABLE>
     19c:	0003b000 	andeq	fp, r3, r0
     1a0:	54000100 	strpl	r0, [r0], #-256	; 0xffffff00
     1a4:	000003d8 	ldrdeq	r0, [r0], -r8
     1a8:	0000047c 	andeq	r0, r0, ip, ror r4
     1ac:	9f300002 	svcls	0x00300002
     1b0:	0000047c 	andeq	r0, r0, ip, ror r4
     1b4:	000004cc 	andeq	r0, r0, ip, asr #9
     1b8:	00540001 	subseq	r0, r4, r1
     1bc:	00000000 	andeq	r0, r0, r0
     1c0:	bc000000 	stclt	0, cr0, [r0], {-0}
     1c4:	b0000002 	andlt	r0, r0, r2
     1c8:	02000003 	andeq	r0, r0, #3
     1cc:	b09f3000 	addslt	r3, pc, r0
     1d0:	b4000003 	strlt	r0, [r0], #-3
     1d4:	01000003 	tsteq	r0, r3
     1d8:	03b45000 			; <UNDEFINED> instruction: 0x03b45000
     1dc:	03d80000 	bicseq	r0, r8, #0
     1e0:	00010000 	andeq	r0, r1, r0
     1e4:	0003d854 	andeq	sp, r3, r4, asr r8
     1e8:	0004cc00 	andeq	ip, r4, r0, lsl #24
     1ec:	30000200 	andcc	r0, r0, r0, lsl #4
     1f0:	0000009f 	muleq	r0, pc, r0	; <UNPREDICTABLE>
     1f4:	00000000 	andeq	r0, r0, r0
     1f8:	0002f000 	andeq	pc, r2, r0
     1fc:	00032000 	andeq	r2, r3, r0
     200:	53000100 	movwpl	r0, #256	; 0x100
     204:	00000320 	andeq	r0, r0, r0, lsr #6
     208:	00000347 	andeq	r0, r0, r7, asr #6
     20c:	04740002 	ldrbteq	r0, [r4], #-2
     210:	00000347 	andeq	r0, r0, r7, asr #6
     214:	000003d8 	ldrdeq	r0, [r0], -r8
     218:	c8760004 	ldmdagt	r6!, {r2}^
     21c:	03f49f7d 	mvnseq	r9, #500	; 0x1f4
     220:	03fb0000 	mvnseq	r0, #0
     224:	00010000 	andeq	r0, r1, r0
     228:	0003fb53 	andeq	pc, r3, r3, asr fp	; <UNPREDICTABLE>
     22c:	00042800 	andeq	r2, r4, r0, lsl #16
     230:	76000400 	strvc	r0, [r0], -r0, lsl #8
     234:	289f7dc8 	ldmcs	pc, {r3, r6, r7, r8, sl, fp, ip, sp, lr}	; <UNPREDICTABLE>
     238:	2f000004 	svccs	0x00000004
     23c:	01000004 	tsteq	r0, r4
     240:	042f5300 	strteq	r5, [pc], #-768	; 248 <_start-0x7db8>
     244:	04cc0000 	strbeq	r0, [ip], #0
     248:	00040000 	andeq	r0, r4, r0
     24c:	9f7dc876 	svcls	0x007dc876
	...
     258:	000002f4 	strdeq	r0, [r0], -r4
     25c:	000003d8 	ldrdeq	r0, [r0], -r8
     260:	f4560001 			; <UNDEFINED> instruction: 0xf4560001
     264:	cc000003 	stcgt	0, cr0, [r0], {3}
     268:	01000004 	tsteq	r0, r4
     26c:	00005600 	andeq	r5, r0, r0, lsl #12
     270:	00000000 	andeq	r0, r0, r0
     274:	01e80000 	mvneq	r0, r0
     278:	01ff0000 	mvnseq	r0, r0
     27c:	00010000 	andeq	r0, r1, r0
     280:	0001ff50 	andeq	pc, r1, r0, asr pc	; <UNPREDICTABLE>
     284:	0002b000 	andeq	fp, r2, r0
     288:	58000100 	stmdapl	r0, {r8}
	...
     294:	000001e8 	andeq	r0, r0, r8, ror #3
     298:	000001ff 	strdeq	r0, [r0], -pc	; <UNPREDICTABLE>
     29c:	ff510001 			; <UNDEFINED> instruction: 0xff510001
     2a0:	b0000001 	andlt	r0, r0, r1
     2a4:	01000002 	tsteq	r0, r2
     2a8:	00005700 	andeq	r5, r0, r0, lsl #14
     2ac:	00000000 	andeq	r0, r0, r0
     2b0:	01e80000 	mvneq	r0, r0
     2b4:	01ff0000 	mvnseq	r0, r0
     2b8:	00010000 	andeq	r0, r1, r0
     2bc:	0001ff52 	andeq	pc, r1, r2, asr pc	; <UNPREDICTABLE>
     2c0:	0002b000 	andeq	fp, r2, r0
     2c4:	56000100 	strpl	r0, [r0], -r0, lsl #2
	...
     2d0:	000001e8 	andeq	r0, r0, r8, ror #3
     2d4:	000001ff 	strdeq	r0, [r0], -pc	; <UNPREDICTABLE>
     2d8:	ff530001 			; <UNDEFINED> instruction: 0xff530001
     2dc:	b0000001 	andlt	r0, r0, r1
     2e0:	01000002 	tsteq	r0, r2
     2e4:	00005500 	andeq	r5, r0, r0, lsl #10
     2e8:	00000000 	andeq	r0, r0, r0
     2ec:	02000000 	andeq	r0, r0, #0
     2f0:	02180000 	andseq	r0, r8, #0
     2f4:	00010000 	andeq	r0, r1, r0
     2f8:	00021850 	andeq	r1, r2, r0, asr r8
     2fc:	00025c00 	andeq	r5, r2, r0, lsl #24
     300:	54000100 	strpl	r0, [r0], #-256	; 0xffffff00
     304:	0000025c 	andeq	r0, r0, ip, asr r2
     308:	0000025f 	andeq	r0, r0, pc, asr r2
     30c:	78500001 	ldmdavc	r0, {r0}^
     310:	b0000002 	andlt	r0, r0, r2
     314:	01000002 	tsteq	r0, r2
     318:	00005400 	andeq	r5, r0, r0, lsl #8
     31c:	00000000 	andeq	r0, r0, r0
     320:	01180000 	tsteq	r8, r0
     324:	01230000 			; <UNDEFINED> instruction: 0x01230000
     328:	00010000 	andeq	r0, r1, r0
     32c:	00012350 	andeq	r2, r1, r0, asr r3
     330:	00017400 	andeq	r7, r1, r0, lsl #8
     334:	54000100 	strpl	r0, [r0], #-256	; 0xffffff00
	...
     340:	00000044 	andeq	r0, r0, r4, asr #32
     344:	00000070 	andeq	r0, r0, r0, ror r0
     348:	70500001 	subsvc	r0, r0, r1
     34c:	8c000000 	stchi	0, cr0, [r0], {-0}
     350:	01000000 	mrseq	r0, (UNDEF: 0)
     354:	008c5500 	addeq	r5, ip, r0, lsl #10
     358:	00900000 	addseq	r0, r0, r0
     35c:	00010000 	andeq	r0, r1, r0
     360:	00009050 	andeq	r9, r0, r0, asr r0
     364:	00009c00 	andeq	r9, r0, r0, lsl #24
     368:	f3000400 	vshl.u8	d0, d0, d0
     36c:	009f5001 	addseq	r5, pc, r1
     370:	00000000 	andeq	r0, r0, r0
     374:	44000000 	strmi	r0, [r0], #-0
     378:	73000000 	movwvc	r0, #0
     37c:	01000000 	mrseq	r0, (UNDEF: 0)
     380:	00735100 	rsbseq	r5, r3, r0, lsl #2
     384:	008c0000 	addeq	r0, ip, r0
     388:	00010000 	andeq	r0, r1, r0
     38c:	00008c54 	andeq	r8, r0, r4, asr ip
     390:	00009c00 	andeq	r9, r0, r0, lsl #24
     394:	51000100 	mrspl	r0, (UNDEF: 16)
	...
     3a0:	00000044 	andeq	r0, r0, r4, asr #32
     3a4:	00000048 	andeq	r0, r0, r8, asr #32
     3a8:	9f300002 	svcls	0x00300002
     3ac:	00000048 	andeq	r0, r0, r8, asr #32
     3b0:	00000073 	andeq	r0, r0, r3, ror r0
     3b4:	8c530001 	mrrchi	0, 0, r0, r3, cr1
     3b8:	9c000000 	stcls	0, cr0, [r0], {-0}
     3bc:	01000000 	mrseq	r0, (UNDEF: 0)
     3c0:	00005300 	andeq	r5, r0, r0, lsl #6
     3c4:	00000000 	andeq	r0, r0, r0
     3c8:	00c00000 	sbceq	r0, r0, r0
     3cc:	00d80000 	sbcseq	r0, r8, r0
     3d0:	00010000 	andeq	r0, r1, r0
     3d4:	0000d850 	andeq	sp, r0, r0, asr r8
     3d8:	0000f800 	andeq	pc, r0, r0, lsl #16
     3dc:	54000100 	strpl	r0, [r0], #-256	; 0xffffff00
     3e0:	000000f8 	strdeq	r0, [r0], -r8
     3e4:	000000ff 	strdeq	r0, [r0], -pc	; <UNPREDICTABLE>
     3e8:	ff500001 			; <UNDEFINED> instruction: 0xff500001
     3ec:	18000000 	stmdane	r0, {}	; <UNPREDICTABLE>
     3f0:	01000001 	tsteq	r0, r1
     3f4:	00005400 	andeq	r5, r0, r0, lsl #8
     3f8:	00000000 	andeq	r0, r0, r0
     3fc:	009c0000 	addseq	r0, ip, r0
     400:	00b70000 	adcseq	r0, r7, r0
     404:	00010000 	andeq	r0, r1, r0
     408:	0000b750 	andeq	fp, r0, r0, asr r7
     40c:	0000c000 	andeq	ip, r0, r0
     410:	54000100 	strpl	r0, [r0], #-256	; 0xffffff00
	...
     41c:	0000003c 	andeq	r0, r0, ip, lsr r0
     420:	00000040 	andeq	r0, r0, r0, asr #32
     424:	40500001 	subsmi	r0, r0, r1
     428:	44000000 	strmi	r0, [r0], #-0
     42c:	04000000 	streq	r0, [r0], #-0
     430:	01b87000 			; <UNDEFINED> instruction: 0x01b87000
     434:	0000009f 	muleq	r0, pc, r0	; <UNPREDICTABLE>
     438:	00000000 	andeq	r0, r0, r0
     43c:	00003000 	andeq	r3, r0, r0
     440:	00003400 	andeq	r3, r0, r0, lsl #8
     444:	50000100 	andpl	r0, r0, r0, lsl #2
     448:	00000034 	andeq	r0, r0, r4, lsr r0
     44c:	0000003c 	andeq	r0, r0, ip, lsr r0
     450:	01f30004 	mvnseq	r0, r4
     454:	00009f50 	andeq	r9, r0, r0, asr pc
     458:	00000000 	andeq	r0, r0, r0
     45c:	00180000 	andseq	r0, r8, r0
     460:	00230000 	eoreq	r0, r3, r0
     464:	00010000 	andeq	r0, r1, r0
     468:	00002350 	andeq	r2, r0, r0, asr r3
     46c:	00003000 	andeq	r3, r0, r0
     470:	54000100 	strpl	r0, [r0], #-256	; 0xffffff00
	...
     47c:	00000008 	andeq	r0, r0, r8
     480:	0000000f 	andeq	r0, r0, pc
     484:	0f500001 	svceq	0x00500001
     488:	18000000 	stmdane	r0, {}	; <UNPREDICTABLE>
     48c:	04000000 	streq	r0, [r0], #-0
     490:	5001f300 	andpl	pc, r1, r0, lsl #6
     494:	0000009f 	muleq	r0, pc, r0	; <UNPREDICTABLE>
	...
     4a0:	00000400 	andeq	r0, r0, r0, lsl #8
     4a4:	50000100 	andpl	r0, r0, r0, lsl #2
     4a8:	00000004 	andeq	r0, r0, r4
     4ac:	00000008 	andeq	r0, r0, r8
     4b0:	48700003 	ldmdami	r0!, {r0, r1}^
     4b4:	0000009f 	muleq	r0, pc, r0	; <UNPREDICTABLE>
     4b8:	00000000 	andeq	r0, r0, r0
     4bc:	00017400 	andeq	r7, r1, r0, lsl #8
     4c0:	00019c00 	andeq	r9, r1, r0, lsl #24
     4c4:	50000100 	andpl	r0, r0, r0, lsl #2
     4c8:	0000019c 	muleq	r0, ip, r1
     4cc:	000001b0 			; <UNDEFINED> instruction: 0x000001b0
     4d0:	b0540001 	subslt	r0, r4, r1
     4d4:	b8000001 	stmdalt	r0, {r0}
     4d8:	05000001 	streq	r0, [r0, #-1]
     4dc:	965c0300 	ldrbls	r0, [ip], -r0, lsl #6
     4e0:	01b80000 			; <UNDEFINED> instruction: 0x01b80000
     4e4:	01bb0000 			; <UNDEFINED> instruction: 0x01bb0000
     4e8:	00010000 	andeq	r0, r1, r0
     4ec:	0001bb50 	andeq	fp, r1, r0, asr fp
     4f0:	0001e800 	andeq	lr, r1, r0, lsl #16
     4f4:	f3000400 	vshl.u8	d0, d0, d0
     4f8:	009f5001 	addseq	r5, pc, r1
     4fc:	00000000 	andeq	r0, r0, r0
     500:	74000000 	strvc	r0, [r0], #-0
     504:	98000001 	stmdals	r0, {r0}
     508:	01000001 	tsteq	r0, r1
     50c:	01985100 	orrseq	r5, r8, r0, lsl #2
     510:	01b80000 			; <UNDEFINED> instruction: 0x01b80000
     514:	00010000 	andeq	r0, r1, r0
     518:	0001b855 	andeq	fp, r1, r5, asr r8
     51c:	0001bb00 	andeq	fp, r1, r0, lsl #22
     520:	51000100 	mrspl	r0, (UNDEF: 16)
     524:	000001bb 			; <UNDEFINED> instruction: 0x000001bb
     528:	000001e8 	andeq	r0, r0, r8, ror #3
     52c:	01f30004 	mvnseq	r0, r4
     530:	00009f51 	andeq	r9, r0, r1, asr pc
     534:	00000000 	andeq	r0, r0, r0
     538:	002c0000 	eoreq	r0, ip, r0
     53c:	00380000 	eorseq	r0, r8, r0
     540:	00010000 	andeq	r0, r1, r0
     544:	00003850 	andeq	r3, r0, r0, asr r8
     548:	00004800 	andeq	r4, r0, r0, lsl #16
     54c:	55000100 	strpl	r0, [r0, #-256]	; 0xffffff00
     550:	00000048 	andeq	r0, r0, r8, asr #32
     554:	00000058 	andeq	r0, r0, r8, asr r0
     558:	00500001 	subseq	r0, r0, r1
     55c:	00000000 	andeq	r0, r0, r0
     560:	70000000 	andvc	r0, r0, r0
     564:	94000002 	strls	r0, [r0], #-2
     568:	01000002 	tsteq	r0, r2
     56c:	02945000 	addseq	r5, r4, #0
     570:	051c0000 	ldreq	r0, [ip, #-0]
     574:	00010000 	andeq	r0, r1, r0
     578:	00051c59 	andeq	r1, r5, r9, asr ip
     57c:	00053000 	andeq	r3, r5, r0
     580:	f3000400 	vshl.u8	d0, d0, d0
     584:	009f5001 	addseq	r5, pc, r1
     588:	00000000 	andeq	r0, r0, r0
     58c:	70000000 	andvc	r0, r0, r0
     590:	84000002 	strhi	r0, [r0], #-2
     594:	01000002 	tsteq	r0, r2
     598:	02845100 	addeq	r5, r4, #0, 2
     59c:	02940000 	addseq	r0, r4, #0
     5a0:	00030000 	andeq	r0, r3, r0
     5a4:	949f0171 	ldrls	r0, [pc], #369	; 5ac <_start-0x7a54>
     5a8:	30000002 	andcc	r0, r0, r2
     5ac:	04000005 	streq	r0, [r0], #-5
     5b0:	5101f300 	mrspl	pc, SP_irq	; <UNPREDICTABLE>
     5b4:	0000009f 	muleq	r0, pc, r0	; <UNPREDICTABLE>
     5b8:	00000000 	andeq	r0, r0, r0
     5bc:	00027000 	andeq	r7, r2, r0
     5c0:	0002b000 	andeq	fp, r2, r0
     5c4:	52000100 	andpl	r0, r0, #0, 2
     5c8:	000002b0 			; <UNDEFINED> instruction: 0x000002b0
     5cc:	000002c8 	andeq	r0, r0, r8, asr #5
     5d0:	c8520001 	ldmdagt	r2, {r0}^
     5d4:	d0000002 	andle	r0, r0, r2
     5d8:	01000002 	tsteq	r0, r2
     5dc:	02d05500 	sbcseq	r5, r0, #0, 10
     5e0:	02e00000 	rsceq	r0, r0, #0
     5e4:	00010000 	andeq	r0, r1, r0
     5e8:	0002e052 	andeq	lr, r2, r2, asr r0
     5ec:	0003e400 	andeq	lr, r3, r0, lsl #8
     5f0:	55000100 	strpl	r0, [r0, #-256]	; 0xffffff00
     5f4:	000003e4 	andeq	r0, r0, r4, ror #7
     5f8:	000003e8 	andeq	r0, r0, r8, ror #7
     5fc:	e8520001 	ldmda	r2, {r0}^
     600:	e0000003 	and	r0, r0, r3
     604:	01000004 	tsteq	r0, r4
     608:	04e05500 	strbteq	r5, [r0], #1280	; 0x500
     60c:	05300000 	ldreq	r0, [r0, #-0]!
     610:	00010000 	andeq	r0, r1, r0
     614:	00000052 	andeq	r0, r0, r2, asr r0
     618:	00000000 	andeq	r0, r0, r0
     61c:	00028000 	andeq	r8, r2, r0
     620:	00029400 	andeq	r9, r2, r0, lsl #8
     624:	50000100 	andpl	r0, r0, r0, lsl #2
     628:	00000294 	muleq	r0, r4, r2
     62c:	000002ac 	andeq	r0, r0, ip, lsr #5
     630:	ac560001 	mrrcge	0, 0, r0, r6, cr1
     634:	b8000002 	stmdalt	r0, {r1}
     638:	03000002 	movweq	r0, #2
     63c:	9f017600 	svcls	0x00017600
     640:	000002b8 			; <UNDEFINED> instruction: 0x000002b8
     644:	000002d0 	ldrdeq	r0, [r0], -r0	; <UNPREDICTABLE>
     648:	d0560001 	subsle	r0, r6, r1
     64c:	dc000002 	stcle	0, cr0, [r0], {2}
     650:	03000002 	movweq	r0, #2
     654:	9f017600 	svcls	0x00017600
     658:	000002dc 	ldrdeq	r0, [r0], -ip
     65c:	000004e0 	andeq	r0, r0, r0, ror #9
     660:	e0560001 	subs	r0, r6, r1
     664:	ec000004 	stc	0, cr0, [r0], {4}
     668:	03000004 	movweq	r0, #4
     66c:	9f017600 	svcls	0x00017600
     670:	000004ec 	andeq	r0, r0, ip, ror #9
     674:	00000508 	andeq	r0, r0, r8, lsl #10
     678:	08560001 	ldmdaeq	r6, {r0}^
     67c:	14000005 	strne	r0, [r0], #-5
     680:	01000005 	tsteq	r0, r5
     684:	05145000 	ldreq	r5, [r4, #-0]
     688:	051c0000 	ldreq	r0, [ip, #-0]
     68c:	00030000 	andeq	r0, r3, r0
     690:	009f0176 	addseq	r0, pc, r6, ror r1	; <UNPREDICTABLE>
     694:	00000000 	andeq	r0, r0, r0
     698:	88000000 	stmdahi	r0, {}	; <UNPREDICTABLE>
     69c:	1c000002 	stcne	0, cr0, [r0], {2}
     6a0:	01000005 	tsteq	r0, r5
     6a4:	051c5800 	ldreq	r5, [ip, #-2048]	; 0xfffff800
     6a8:	05300000 	ldreq	r0, [r0, #-0]!
     6ac:	000a0000 	andeq	r0, sl, r0
     6b0:	f35101f3 	vbsl	q8, <illegal reg q8.5>, <illegal reg q9.5>
     6b4:	31225001 			; <UNDEFINED> instruction: 0x31225001
     6b8:	00009f1c 	andeq	r9, r0, ip, lsl pc
     6bc:	00000000 	andeq	r0, r0, r0
     6c0:	03e00000 	mvneq	r0, #0
     6c4:	03e80000 	mvneq	r0, #0
     6c8:	00010000 	andeq	r0, r1, r0
     6cc:	00041450 	andeq	r1, r4, r0, asr r4
     6d0:	00041800 	andeq	r1, r4, r0, lsl #16
     6d4:	50000100 	andpl	r0, r0, r0, lsl #2
     6d8:	00000444 	andeq	r0, r0, r4, asr #8
     6dc:	00000448 	andeq	r0, r0, r8, asr #8
     6e0:	74500001 	ldrbvc	r0, [r0], #-1
     6e4:	78000004 	stmdavc	r0, {r2}
     6e8:	01000004 	tsteq	r0, r4
     6ec:	04b85000 	ldrteq	r5, [r8], #0
     6f0:	04bc0000 	ldrteq	r0, [ip], #0
     6f4:	00010000 	andeq	r0, r1, r0
     6f8:	0004e050 	andeq	lr, r4, r0, asr r0
     6fc:	00050400 	andeq	r0, r5, r0, lsl #8
     700:	50000100 	andpl	r0, r0, r0, lsl #2
	...
     70c:	000002c8 	andeq	r0, r0, r8, asr #5
     710:	000002d0 	ldrdeq	r0, [r0], -r0	; <UNPREDICTABLE>
     714:	9f300002 	svcls	0x00300002
     718:	000002e0 	andeq	r0, r0, r0, ror #5
     71c:	000002e4 	andeq	r0, r0, r4, ror #5
     720:	f0540001 			; <UNDEFINED> instruction: 0xf0540001
     724:	04000002 	streq	r0, [r0], #-2
     728:	01000005 	tsteq	r0, r5
     72c:	00005400 	andeq	r5, r0, r0, lsl #8
     730:	00000000 	andeq	r0, r0, r0
     734:	00800000 	addeq	r0, r0, r0
     738:	00a40000 	adceq	r0, r4, r0
     73c:	00010000 	andeq	r0, r1, r0
     740:	0000a450 	andeq	sl, r0, r0, asr r4
     744:	0000f000 	andeq	pc, r0, r0
     748:	70000300 	andvc	r0, r0, r0, lsl #6
     74c:	00f09f02 	rscseq	r9, r0, r2, lsl #30
     750:	021c0000 	andseq	r0, ip, #0
     754:	00040000 	andeq	r0, r4, r0
     758:	9f5001f3 	svcls	0x005001f3
	...
     764:	00000080 	andeq	r0, r0, r0, lsl #1
     768:	000000a0 	andeq	r0, r0, r0, lsr #1
     76c:	a0510001 	subsge	r0, r1, r1
     770:	1c000000 	stcne	0, cr0, [r0], {-0}
     774:	01000002 	tsteq	r0, r2
     778:	00005500 	andeq	r5, r0, r0, lsl #10
     77c:	00000000 	andeq	r0, r0, r0
     780:	00800000 	addeq	r0, r0, r0
     784:	00940000 	addseq	r0, r4, r0
     788:	00010000 	andeq	r0, r1, r0
     78c:	00009452 	andeq	r9, r0, r2, asr r4
     790:	00021c00 	andeq	r1, r2, r0, lsl #24
     794:	54000100 	strpl	r0, [r0], #-256	; 0xffffff00
	...
     7a0:	00000080 	andeq	r0, r0, r0, lsl #1
     7a4:	000000ec 	andeq	r0, r0, ip, ror #1
     7a8:	ec530001 	mrrc	0, 0, r0, r3, cr1
     7ac:	04000000 	streq	r0, [r0], #-0
     7b0:	01000001 	tsteq	r0, r1
     7b4:	01105100 	tsteq	r0, r0, lsl #2
     7b8:	01180000 	tsteq	r8, r0
     7bc:	00010000 	andeq	r0, r1, r0
     7c0:	00016851 	andeq	r6, r1, r1, asr r8
     7c4:	00016c00 	andeq	r6, r1, r0, lsl #24
     7c8:	51000100 	mrspl	r0, (UNDEF: 16)
     7cc:	0000016c 	andeq	r0, r0, ip, ror #2
     7d0:	0000018c 	andeq	r0, r0, ip, lsl #3
     7d4:	01f30004 	mvnseq	r0, r4
     7d8:	01b09f53 	asrseq	r9, r3, pc
     7dc:	01c00000 	biceq	r0, r0, r0
     7e0:	00010000 	andeq	r0, r1, r0
     7e4:	0001c051 	andeq	ip, r1, r1, asr r0
     7e8:	0001e400 	andeq	lr, r1, r0, lsl #8
     7ec:	f3000400 	vshl.u8	d0, d0, d0
     7f0:	e49f5301 	ldr	r5, [pc], #769	; 7f8 <_start-0x7808>
     7f4:	e7000001 	str	r0, [r0, -r1]
     7f8:	01000001 	tsteq	r0, r1
     7fc:	01e75100 	mvneq	r5, r0, lsl #2
     800:	021c0000 	andseq	r0, ip, #0
     804:	00040000 	andeq	r0, r4, r0
     808:	9f5301f3 	svcls	0x005301f3
	...
     814:	00000080 	andeq	r0, r0, r0, lsl #1
     818:	0000009c 	muleq	r0, ip, r0
     81c:	00910002 	addseq	r0, r1, r2
     820:	0000009c 	muleq	r0, ip, r0
     824:	00000193 	muleq	r0, r3, r1
     828:	b0520001 	subslt	r0, r2, r1
     82c:	e7000001 	str	r0, [r0, -r1]
     830:	01000001 	tsteq	r0, r1
     834:	00005200 	andeq	r5, r0, r0, lsl #4
     838:	00000000 	andeq	r0, r0, r0
     83c:	009c0000 	addseq	r0, ip, r0
     840:	01180000 	tsteq	r8, r0
     844:	00010000 	andeq	r0, r1, r0
     848:	0001185d 	andeq	r1, r1, sp, asr r8
     84c:	00011c00 	andeq	r1, r1, r0, lsl #24
     850:	50000100 	andpl	r0, r0, r0, lsl #2
     854:	0000011c 	andeq	r0, r0, ip, lsl r1
     858:	00000120 	andeq	r0, r0, r0, lsr #2
     85c:	205c0001 	subscs	r0, ip, r1
     860:	58000001 	stmdapl	r0, {r0}
     864:	01000001 	tsteq	r0, r1
     868:	01585000 	cmpeq	r8, r0
     86c:	01640000 	cmneq	r4, r0
     870:	00030000 	andeq	r0, r3, r0
     874:	649f027c 	ldrvs	r0, [pc], #636	; 87c <_start-0x7784>
     878:	68000001 	stmdavs	r0, {r0}
     87c:	01000001 	tsteq	r0, r1
     880:	01685000 	cmneq	r8, r0
     884:	016c0000 	cmneq	ip, r0
     888:	00010000 	andeq	r0, r1, r0
     88c:	00016c5d 	andeq	r6, r1, sp, asr ip
     890:	00017000 	andeq	r7, r1, r0
     894:	53000100 	movwpl	r0, #256	; 0x100
     898:	00000170 	andeq	r0, r0, r0, ror r1
     89c:	00000193 	muleq	r0, r3, r1
     8a0:	b0500001 	subslt	r0, r0, r1
     8a4:	b8000001 	stmdalt	r0, {r0}
     8a8:	04000001 	streq	r0, [r0], #-1
     8ac:	7fa19100 	svcvc	0x00a19100
     8b0:	0001b89f 	muleq	r1, pc, r8	; <UNPREDICTABLE>
     8b4:	0001bc00 	andeq	fp, r1, r0, lsl #24
     8b8:	50000100 	andpl	r0, r0, r0, lsl #2
     8bc:	000001bc 			; <UNDEFINED> instruction: 0x000001bc
     8c0:	000001c0 	andeq	r0, r0, r0, asr #3
     8c4:	c05d0001 	subsgt	r0, sp, r1
     8c8:	c4000001 	strgt	r0, [r0], #-1
     8cc:	01000001 	tsteq	r0, r1
     8d0:	01c45300 	biceq	r5, r4, r0, lsl #6
     8d4:	01e40000 	mvneq	r0, r0
     8d8:	00010000 	andeq	r0, r1, r0
     8dc:	0001e450 	andeq	lr, r1, r0, asr r4
     8e0:	00021c00 	andeq	r1, r2, r0, lsl #24
     8e4:	5d000100 	stfpls	f0, [r0, #-0]
	...
     8f0:	000000a0 	andeq	r0, r0, r0, lsr #1
     8f4:	00000140 	andeq	r0, r0, r0, asr #2
     8f8:	4c510001 	mrrcmi	0, 0, r0, r1, cr1
     8fc:	80000001 	andhi	r0, r0, r1
     900:	01000001 	tsteq	r0, r1
     904:	01805100 	orreq	r5, r0, r0, lsl #2
     908:	01880000 	orreq	r0, r8, r0
     90c:	00050000 	andeq	r0, r5, r0
     910:	25340071 	ldrcs	r0, [r4, #-113]!	; 0xffffff8f
     914:	0001889f 	muleq	r1, pc, r8	; <UNPREDICTABLE>
     918:	00019000 	andeq	r9, r1, r0
     91c:	51000100 	mrspl	r0, (UNDEF: 16)
     920:	000001b0 			; <UNDEFINED> instruction: 0x000001b0
     924:	000001d4 	ldrdeq	r0, [r0], -r4
     928:	d4510001 	ldrble	r0, [r1], #-1
     92c:	dc000001 	stcle	0, cr0, [r0], {1}
     930:	05000001 	streq	r0, [r0, #-1]
     934:	31007100 	mrscc	r7, (UNDEF: 16)
     938:	01dc9f25 	bicseq	r9, ip, r5, lsr #30
     93c:	01e70000 	mvneq	r0, r0
     940:	00010000 	andeq	r0, r1, r0
     944:	0001e751 	andeq	lr, r1, r1, asr r7
     948:	00021c00 	andeq	r1, r2, r0, lsl #24
     94c:	f3000400 	vshl.u8	d0, d0, d0
     950:	009f5301 	addseq	r5, pc, r1, lsl #6
     954:	00000000 	andeq	r0, r0, r0
     958:	ec000000 	stc	0, cr0, [r0], {-0}
     95c:	00000000 	andeq	r0, r0, r0
     960:	02000001 	andeq	r0, r0, #1
     964:	009f3000 	addseq	r3, pc, r0
     968:	08000001 	stmdaeq	r0, {r0}
     96c:	02000001 	andeq	r0, r0, #1
     970:	109f3100 	addsne	r3, pc, r0, lsl #2
     974:	18000001 	stmdane	r0, {r0}
     978:	02000001 	andeq	r0, r0, #1
     97c:	189f3000 	ldmne	pc, {ip, sp}	; <UNPREDICTABLE>
     980:	68000001 	stmdavs	r0, {r0}
     984:	01000001 	tsteq	r0, r1
     988:	00005700 	andeq	r5, r0, r0, lsl #14
     98c:	00000000 	andeq	r0, r0, r0
     990:	00400000 	subeq	r0, r0, r0
     994:	00600000 	rsbeq	r0, r0, r0
     998:	00010000 	andeq	r0, r1, r0
     99c:	00006050 	andeq	r6, r0, r0, asr r0
     9a0:	00006c00 	andeq	r6, r0, r0, lsl #24
     9a4:	71000300 	mrsvc	r0, LR_irq
     9a8:	006c9f01 	rsbeq	r9, ip, r1, lsl #30
     9ac:	00740000 	rsbseq	r0, r4, r0
     9b0:	00010000 	andeq	r0, r1, r0
     9b4:	00007451 	andeq	r7, r0, r1, asr r4
     9b8:	00008000 	andeq	r8, r0, r0
     9bc:	71000300 	mrsvc	r0, LR_irq
     9c0:	00009f01 	andeq	r9, r0, r1, lsl #30
     9c4:	00000000 	andeq	r0, r0, r0
     9c8:	00400000 	subeq	r0, r0, r0
     9cc:	005c0000 	subseq	r0, ip, r0
     9d0:	00010000 	andeq	r0, r1, r0
     9d4:	00005c51 	andeq	r5, r0, r1, asr ip
     9d8:	00008000 	andeq	r8, r0, r0
     9dc:	f3000400 	vshl.u8	d0, d0, d0
     9e0:	009f5101 	addseq	r5, pc, r1, lsl #2
     9e4:	00000000 	andeq	r0, r0, r0
     9e8:	40000000 	andmi	r0, r0, r0
     9ec:	58000000 	stmdapl	r0, {}	; <UNPREDICTABLE>
     9f0:	01000000 	mrseq	r0, (UNDEF: 0)
     9f4:	00585200 	subseq	r5, r8, r0, lsl #4
     9f8:	00640000 	rsbeq	r0, r4, r0
     9fc:	00010000 	andeq	r0, r1, r0
     a00:	00006452 	andeq	r6, r0, r2, asr r4
     a04:	00006800 	andeq	r6, r0, r0, lsl #16
     a08:	72000300 	andvc	r0, r0, #0, 6
     a0c:	00689f01 	rsbeq	r9, r8, r1, lsl #30
     a10:	00800000 	addeq	r0, r0, r0
     a14:	00010000 	andeq	r0, r1, r0
     a18:	00000052 	andeq	r0, r0, r2, asr r0
     a1c:	00000000 	andeq	r0, r0, r0
     a20:	00004000 	andeq	r4, r0, r0
     a24:	00005400 	andeq	r5, r0, r0, lsl #8
     a28:	53000100 	movwpl	r0, #256	; 0x100
     a2c:	00000054 	andeq	r0, r0, r4, asr r0
     a30:	00000078 	andeq	r0, r0, r8, ror r0
     a34:	00530001 	subseq	r0, r3, r1
     a38:	00000000 	andeq	r0, r0, r0
     a3c:	48000000 	stmdami	r0, {}	; <UNPREDICTABLE>
     a40:	50000000 	andpl	r0, r0, r0
     a44:	01000000 	mrseq	r0, (UNDEF: 0)
     a48:	00505c00 	subseq	r5, r0, r0, lsl #24
     a4c:	00540000 	subseq	r0, r4, r0
     a50:	00080000 	andeq	r0, r8, r0
     a54:	00730072 	rsbseq	r0, r3, r2, ror r0
     a58:	9f01231c 	svcls	0x0001231c
     a5c:	00000054 	andeq	r0, r0, r4, asr r0
     a60:	00000058 	andeq	r0, r0, r8, asr r0
     a64:	00720009 	rsbseq	r0, r2, r9
     a68:	1c5301f3 	ldfnee	f0, [r3], {243}	; 0xf3
     a6c:	589f0123 	ldmpl	pc, {r0, r1, r5, r8}	; <UNPREDICTABLE>
     a70:	60000000 	andvs	r0, r0, r0
     a74:	09000000 	stmdbeq	r0, {}	; <UNPREDICTABLE>
     a78:	f3007200 	vhsub.u8	d7, d0, d0
     a7c:	231c5301 	tstcs	ip, #67108864	; 0x4000000
     a80:	00609f02 	rsbeq	r9, r0, r2, lsl #30
     a84:	00800000 	addeq	r0, r0, r0
     a88:	000a0000 	andeq	r0, sl, r0
     a8c:	f35201f3 	vbsl	q8, q9, <illegal reg q9.5>
     a90:	231c5301 	tstcs	ip, #67108864	; 0x4000000
     a94:	00009f01 	andeq	r9, r0, r1, lsl #30
     a98:	00000000 	andeq	r0, r0, r0
     a9c:	00140000 	andseq	r0, r4, r0
     aa0:	001c0000 	andseq	r0, ip, r0
     aa4:	00010000 	andeq	r0, r1, r0
     aa8:	00001c50 	andeq	r1, r0, r0, asr ip
     aac:	00002c00 	andeq	r2, r0, r0, lsl #24
     ab0:	70000300 	andvc	r0, r0, r0, lsl #6
     ab4:	002c9f01 	eoreq	r9, ip, r1, lsl #30
     ab8:	00400000 	subeq	r0, r0, r0
     abc:	00010000 	andeq	r0, r1, r0
     ac0:	00000050 	andeq	r0, r0, r0, asr r0
     ac4:	00000000 	andeq	r0, r0, r0
     ac8:	00001400 	andeq	r1, r0, r0, lsl #8
     acc:	00001800 	andeq	r1, r0, r0, lsl #16
     ad0:	51000100 	mrspl	r0, (UNDEF: 16)
     ad4:	00000018 	andeq	r0, r0, r8, lsl r0
     ad8:	00000040 	andeq	r0, r0, r0, asr #32
     adc:	01f30004 	mvnseq	r0, r4
     ae0:	00009f51 	andeq	r9, r0, r1, asr pc
	...
     aec:	00040000 	andeq	r0, r4, r0
     af0:	00010000 	andeq	r0, r1, r0
     af4:	00000450 	andeq	r0, r0, r0, asr r4
     af8:	00000c00 	andeq	r0, r0, r0, lsl #24
     afc:	70000300 	andvc	r0, r0, r0, lsl #6
     b00:	000c9f30 	andeq	r9, ip, r0, lsr pc
     b04:	00140000 	andseq	r0, r4, r0
     b08:	00040000 	andeq	r0, r4, r0
     b0c:	9f5001f3 	svcls	0x005001f3
	...
     b18:	0000021c 	andeq	r0, r0, ip, lsl r2
     b1c:	00000243 	andeq	r0, r0, r3, asr #4
     b20:	43500001 	cmpmi	r0, #1
     b24:	70000002 	andvc	r0, r0, r2
     b28:	04000002 	streq	r0, [r0], #-2
     b2c:	5001f300 	andpl	pc, r1, r0, lsl #6
     b30:	0000009f 	muleq	r0, pc, r0	; <UNPREDICTABLE>
     b34:	00000000 	andeq	r0, r0, r0
     b38:	00021c00 	andeq	r1, r2, r0, lsl #24
     b3c:	00024300 	andeq	r4, r2, r0, lsl #6
     b40:	51000100 	mrspl	r0, (UNDEF: 16)
     b44:	00000243 	andeq	r0, r0, r3, asr #4
     b48:	00000270 	andeq	r0, r0, r0, ror r2
     b4c:	01f30004 	mvnseq	r0, r4
     b50:	00009f51 	andeq	r9, r0, r1, asr pc
	...
     b5c:	001c0000 	andseq	r0, ip, r0
     b60:	00010000 	andeq	r0, r1, r0
     b64:	00001c52 	andeq	r1, r0, r2, asr ip
     b68:	00003800 	andeq	r3, r0, r0, lsl #16
     b6c:	f3000400 	vshl.u8	d0, d0, d0
     b70:	389f5201 	ldmcc	pc, {r0, r9, ip, lr}	; <UNPREDICTABLE>
     b74:	60000000 	andvs	r0, r0, r0
     b78:	01000000 	mrseq	r0, (UNDEF: 0)
     b7c:	00005200 	andeq	r5, r0, r0, lsl #4
     b80:	00000000 	andeq	r0, r0, r0
     b84:	001c0000 	andseq	r0, ip, r0
     b88:	00380000 	eorseq	r0, r8, r0
     b8c:	00010000 	andeq	r0, r1, r0
     b90:	00000052 	andeq	r0, r0, r2, asr r0
     b94:	00000000 	andeq	r0, r0, r0
     b98:	00001c00 	andeq	r1, r0, r0, lsl #24
     b9c:	00003800 	andeq	r3, r0, r0, lsl #16
     ba0:	50000100 	andpl	r0, r0, r0, lsl #2
	...
     bac:	0000001c 	andeq	r0, r0, ip, lsl r0
     bb0:	00000038 	andeq	r0, r0, r8, lsr r0
     bb4:	00510001 	subseq	r0, r1, r1
     bb8:	00000000 	andeq	r0, r0, r0
     bbc:	1c000000 	stcne	0, cr0, [r0], {-0}
     bc0:	20000000 	andcs	r0, r0, r0
     bc4:	02000000 	andeq	r0, r0, #0
     bc8:	209f3000 	addscs	r3, pc, r0
     bcc:	38000000 	stmdacc	r0, {}	; <UNPREDICTABLE>
     bd0:	01000000 	mrseq	r0, (UNDEF: 0)
     bd4:	00005300 	andeq	r5, r0, r0, lsl #6
     bd8:	00000000 	andeq	r0, r0, r0
     bdc:	00380000 	eorseq	r0, r8, r0
     be0:	00500000 	subseq	r0, r0, r0
     be4:	00010000 	andeq	r0, r1, r0
     be8:	00000053 	andeq	r0, r0, r3, asr r0
	...
     bf4:	00002000 	andeq	r2, r0, r0
     bf8:	50000100 	andpl	r0, r0, r0, lsl #2
     bfc:	00000020 	andeq	r0, r0, r0, lsr #32
     c00:	000000e0 	andeq	r0, r0, r0, ror #1
     c04:	01f30004 	mvnseq	r0, r4
     c08:	00e09f50 	rsceq	r9, r0, r0, asr pc
     c0c:	00e40000 	rsceq	r0, r4, r0
     c10:	00010000 	andeq	r0, r1, r0
     c14:	0000e450 	andeq	lr, r0, r0, asr r4
     c18:	0000e800 	andeq	lr, r0, r0, lsl #16
     c1c:	f3000400 	vshl.u8	d0, d0, d0
     c20:	009f5001 	addseq	r5, pc, r1
	...
     c2c:	1c000000 	stcne	0, cr0, [r0], {-0}
     c30:	01000000 	mrseq	r0, (UNDEF: 0)
     c34:	001c5100 	andseq	r5, ip, r0, lsl #2
     c38:	00700000 	rsbseq	r0, r0, r0
     c3c:	00010000 	andeq	r0, r1, r0
     c40:	00008c51 	andeq	r8, r0, r1, asr ip
     c44:	00009000 	andeq	r9, r0, r0
     c48:	51000100 	mrspl	r0, (UNDEF: 16)
     c4c:	000000b0 	strheq	r0, [r0], -r0	; <UNPREDICTABLE>
     c50:	000000b4 	strheq	r0, [r0], -r4
     c54:	cc510001 	mrrcgt	0, 0, r0, r1, cr1
     c58:	e8000000 	stmda	r0, {}	; <UNPREDICTABLE>
     c5c:	01000000 	mrseq	r0, (UNDEF: 0)
     c60:	00005100 	andeq	r5, r0, r0, lsl #2
	...
     c6c:	00740000 	rsbseq	r0, r4, r0
     c70:	00010000 	andeq	r0, r1, r0
     c74:	00008c50 	andeq	r8, r0, r0, asr ip
     c78:	0000e400 	andeq	lr, r0, r0, lsl #8
     c7c:	50000100 	andpl	r0, r0, r0, lsl #2
     c80:	000000e4 	andeq	r0, r0, r4, ror #1
     c84:	000000e8 	andeq	r0, r0, r8, ror #1
     c88:	01f30004 	mvnseq	r0, r4
     c8c:	00009f50 	andeq	r9, r0, r0, asr pc
	...
     c98:	001c0000 	andseq	r0, ip, r0
     c9c:	00010000 	andeq	r0, r1, r0
     ca0:	00001c51 	andeq	r1, r0, r1, asr ip
     ca4:	00003000 	andeq	r3, r0, r0
     ca8:	53000100 	movwpl	r0, #256	; 0x100
     cac:	00000030 	andeq	r0, r0, r0, lsr r0
     cb0:	00000044 	andeq	r0, r0, r4, asr #32
     cb4:	44520001 	ldrbmi	r0, [r2], #-1
     cb8:	74000000 	strvc	r0, [r0], #-0
     cbc:	01000000 	mrseq	r0, (UNDEF: 0)
     cc0:	00745300 	rsbseq	r5, r4, r0, lsl #6
     cc4:	008c0000 	addeq	r0, ip, r0
     cc8:	00010000 	andeq	r0, r1, r0
     ccc:	00008c50 	andeq	r8, r0, r0, asr ip
     cd0:	0000e000 	andeq	lr, r0, r0
     cd4:	53000100 	movwpl	r0, #256	; 0x100
     cd8:	000000e0 	andeq	r0, r0, r0, ror #1
     cdc:	000000e8 	andeq	r0, r0, r8, ror #1
     ce0:	00510001 	subseq	r0, r1, r1
     ce4:	00000000 	andeq	r0, r0, r0
     ce8:	40000000 	andmi	r0, r0, r0
     cec:	44000000 	strmi	r0, [r0], #-0
     cf0:	01000000 	mrseq	r0, (UNDEF: 0)
     cf4:	00445300 	subeq	r5, r4, r0, lsl #6
     cf8:	00480000 	subeq	r0, r8, r0
     cfc:	00120000 	andseq	r0, r2, r0
     d00:	2438007c 	ldrtcs	r0, [r8], #-124	; 0xffffff84
     d04:	01940270 	orrseq	r0, r4, r0, ror r2
     d08:	221aff08 	andscs	pc, sl, #8, 30
     d0c:	0072243b 	rsbseq	r2, r2, fp, lsr r4
     d10:	00489f27 	subeq	r9, r8, r7, lsr #30
     d14:	00500000 	subseq	r0, r0, r0
     d18:	00120000 	andseq	r0, r2, r0
     d1c:	2438007c 	ldrtcs	r0, [r8], #-124	; 0xffffff84
     d20:	01947e70 	orrseq	r7, r4, r0, ror lr
     d24:	221aff08 	andscs	pc, sl, #8, 30
     d28:	0072243b 	rsbseq	r2, r2, fp, lsr r4
     d2c:	00009f27 	andeq	r9, r0, r7, lsr #30
     d30:	00000000 	andeq	r0, r0, r0
     d34:	00180000 	andseq	r0, r8, r0
     d38:	00e00000 	rsceq	r0, r0, r0
     d3c:	00010000 	andeq	r0, r1, r0
     d40:	0000005e 	andeq	r0, r0, lr, asr r0
	...
     d4c:	00000c00 	andeq	r0, r0, r0, lsl #24
     d50:	50000100 	andpl	r0, r0, r0, lsl #2
     d54:	0000000c 	andeq	r0, r0, ip
     d58:	00000034 	andeq	r0, r0, r4, lsr r0
     d5c:	00540001 	subseq	r0, r4, r1
	...
     d68:	0b000000 	bleq	d70 <_start-0x7290>
     d6c:	01000000 	mrseq	r0, (UNDEF: 0)
     d70:	000b5000 	andeq	r5, fp, r0
     d74:	00140000 	andseq	r0, r4, r0
     d78:	00010000 	andeq	r0, r1, r0
     d7c:	00000054 	andeq	r0, r0, r4, asr r0
	...
     d88:	00000400 	andeq	r0, r0, r0, lsl #8
     d8c:	52000100 	andpl	r0, r0, #0, 2
     d90:	00000004 	andeq	r0, r0, r4
     d94:	00000020 	andeq	r0, r0, r0, lsr #32
     d98:	01f30004 	mvnseq	r0, r4
     d9c:	00009f52 	andeq	r9, r0, r2, asr pc
	...
     da8:	000c0000 	andeq	r0, ip, r0
     dac:	00010000 	andeq	r0, r1, r0
     db0:	00000c50 	andeq	r0, r0, r0, asr ip
     db4:	00001400 	andeq	r1, r0, r0, lsl #8
     db8:	73000300 	movwvc	r0, #768	; 0x300
     dbc:	00149f01 	andseq	r9, r4, r1, lsl #30
     dc0:	00200000 	eoreq	r0, r0, r0
     dc4:	00010000 	andeq	r0, r1, r0
     dc8:	00000053 	andeq	r0, r0, r3, asr r0
     dcc:	00000000 	andeq	r0, r0, r0
     dd0:	00000c00 	andeq	r0, r0, r0, lsl #24
     dd4:	00001800 	andeq	r1, r0, r0, lsl #16
     dd8:	73000300 	movwvc	r0, #768	; 0x300
     ddc:	00189f04 	andseq	r9, r8, r4, lsl #30
     de0:	00270000 	eoreq	r0, r7, r0
     de4:	00010000 	andeq	r0, r1, r0
     de8:	00000053 	andeq	r0, r0, r3, asr r0
     dec:	00000000 	andeq	r0, r0, r0
     df0:	008e5000 	addeq	r5, lr, r0
     df4:	008e6c00 	addeq	r6, lr, r0, lsl #24
     df8:	0c000600 	stceq	6, cr0, [r0], {-0}
     dfc:	2010001c 	andscs	r0, r0, ip, lsl r0
     e00:	0000009f 	muleq	r0, pc, r0	; <UNPREDICTABLE>
     e04:	00000000 	andeq	r0, r0, r0
     e08:	008e5000 	addeq	r5, lr, r0
     e0c:	008e6c00 	addeq	r6, lr, r0, lsl #24
     e10:	0c000600 	stceq	6, cr0, [r0], {-0}
     e14:	20100024 	andscs	r0, r0, r4, lsr #32
     e18:	0000009f 	muleq	r0, pc, r0	; <UNPREDICTABLE>
     e1c:	00000000 	andeq	r0, r0, r0
     e20:	008e5000 	addeq	r5, lr, r0
     e24:	008e6c00 	addeq	r6, lr, r0, lsl #24
     e28:	08000500 	stmdaeq	r0, {r8, sl}
     e2c:	9f2447b4 	svcls	0x002447b4
	...
     e38:	00008e50 	andeq	r8, r0, r0, asr lr
     e3c:	00008e6c 	andeq	r8, r0, ip, ror #28
     e40:	20080003 	andcs	r0, r8, r3
     e44:	0000009f 	muleq	r0, pc, r0	; <UNPREDICTABLE>
     e48:	00000000 	andeq	r0, r0, r0
     e4c:	008e2400 	addeq	r2, lr, r0, lsl #8
     e50:	008e2800 	addeq	r2, lr, r0, lsl #16
     e54:	30000200 	andcc	r0, r0, r0, lsl #4
     e58:	008e289f 	umulleq	r2, lr, pc, r8	; <UNPREDICTABLE>
     e5c:	008e2c00 	addeq	r2, lr, r0, lsl #24
     e60:	53000100 	movwpl	r0, #256	; 0x100
     e64:	00008e30 	andeq	r8, r0, r0, lsr lr
     e68:	00008e38 	andeq	r8, r0, r8, lsr lr
     e6c:	00530001 	subseq	r0, r3, r1
     e70:	00000000 	andeq	r0, r0, r0
     e74:	0c000000 	stceq	0, cr0, [r0], {-0}
     e78:	1000008e 	andne	r0, r0, lr, lsl #1
     e7c:	0200008e 	andeq	r0, r0, #142	; 0x8e
     e80:	109f3000 	addsne	r3, pc, r0
     e84:	1400008e 	strne	r0, [r0], #-142	; 0xffffff72
     e88:	0100008e 	smlabbeq	r0, lr, r0, r0
     e8c:	00005000 	andeq	r5, r0, r0
     e90:	00000000 	andeq	r0, r0, r0
     e94:	00740000 	rsbseq	r0, r4, r0
     e98:	00800000 	addeq	r0, r0, r0
     e9c:	00010000 	andeq	r0, r1, r0
     ea0:	00008050 	andeq	r8, r0, r0, asr r0
     ea4:	00008800 	andeq	r8, r0, r0, lsl #16
     ea8:	f3000400 	vshl.u8	d0, d0, d0
     eac:	009f5001 	addseq	r5, pc, r1
     eb0:	00000000 	andeq	r0, r0, r0
     eb4:	60000000 	andvs	r0, r0, r0
     eb8:	6c000000 	stcvs	0, cr0, [r0], {-0}
     ebc:	01000000 	mrseq	r0, (UNDEF: 0)
     ec0:	006c5000 	rsbeq	r5, ip, r0
     ec4:	00740000 	rsbseq	r0, r4, r0
     ec8:	00040000 	andeq	r0, r4, r0
     ecc:	9f5001f3 	svcls	0x005001f3
	...
     ed8:	0000003c 	andeq	r0, r0, ip, lsr r0
     edc:	00000047 	andeq	r0, r0, r7, asr #32
     ee0:	47500001 	ldrbmi	r0, [r0, -r1]
     ee4:	60000000 	andvs	r0, r0, r0
     ee8:	01000000 	mrseq	r0, (UNDEF: 0)
     eec:	00005500 	andeq	r5, r0, r0, lsl #10
     ef0:	00000000 	andeq	r0, r0, r0
     ef4:	00500000 	subseq	r0, r0, r0
     ef8:	00540000 	subseq	r0, r4, r0
     efc:	00010000 	andeq	r0, r1, r0
     f00:	00000050 	andeq	r0, r0, r0, asr r0
	...
     f0c:	00000400 	andeq	r0, r0, r0, lsl #8
     f10:	50000100 	andpl	r0, r0, r0, lsl #2
     f14:	00000004 	andeq	r0, r0, r4
     f18:	0000000c 	andeq	r0, r0, ip
     f1c:	0c530001 	mrrceq	0, 0, r0, r3, cr1
     f20:	10000000 	andne	r0, r0, r0
     f24:	01000000 	mrseq	r0, (UNDEF: 0)
     f28:	00105000 	andseq	r5, r0, r0
     f2c:	001c0000 	andseq	r0, ip, r0
     f30:	00010000 	andeq	r0, r1, r0
     f34:	00000053 	andeq	r0, r0, r3, asr r0
     f38:	00000000 	andeq	r0, r0, r0
     f3c:	00013800 	andeq	r3, r1, r0, lsl #16
     f40:	00014300 	andeq	r4, r1, r0, lsl #6
     f44:	50000100 	andpl	r0, r0, r0, lsl #2
     f48:	00000143 	andeq	r0, r0, r3, asr #2
     f4c:	00000168 	andeq	r0, r0, r8, ror #2
     f50:	00540001 	subseq	r0, r4, r1
	...
     f5c:	0f000000 	svceq	0x00000000
     f60:	01000000 	mrseq	r0, (UNDEF: 0)
     f64:	000f5000 	andeq	r5, pc, r0
     f68:	00200000 	eoreq	r0, r0, r0
     f6c:	00010000 	andeq	r0, r1, r0
     f70:	00000054 	andeq	r0, r0, r4, asr r0
	...
     f7c:	00000f00 	andeq	r0, r0, r0, lsl #30
     f80:	51000100 	mrspl	r0, (UNDEF: 16)
     f84:	0000000f 	andeq	r0, r0, pc
     f88:	00000020 	andeq	r0, r0, r0, lsr #32
     f8c:	00550001 	subseq	r0, r5, r1
     f90:	00000000 	andeq	r0, r0, r0
     f94:	ec000000 	stc	0, cr0, [r0], {-0}
     f98:	04000000 	streq	r0, [r0], #-0
     f9c:	01000001 	tsteq	r0, r1
     fa0:	01045000 	mrseq	r5, (UNDEF: 4)
     fa4:	01140000 	tsteq	r4, r0
     fa8:	00040000 	andeq	r0, r4, r0
     fac:	9f5001f3 	svcls	0x005001f3
     fb0:	00000114 	andeq	r0, r0, r4, lsl r1
     fb4:	00000118 	andeq	r0, r0, r8, lsl r1
     fb8:	18500001 	ldmdane	r0, {r0}^
     fbc:	20000001 	andcs	r0, r0, r1
     fc0:	04000001 	streq	r0, [r0], #-1
     fc4:	5001f300 	andpl	pc, r1, r0, lsl #6
     fc8:	0000009f 	muleq	r0, pc, r0	; <UNPREDICTABLE>
     fcc:	00000000 	andeq	r0, r0, r0
     fd0:	0000f800 	andeq	pc, r0, r0, lsl #16
     fd4:	00010400 	andeq	r0, r1, r0, lsl #8
     fd8:	70000b00 	andvc	r0, r0, r0, lsl #22
     fdc:	23253500 			; <UNDEFINED> instruction: 0x23253500
     fe0:	818080b4 	strhhi	r8, [r0, r4]
     fe4:	01049f02 	tsteq	r4, r2, lsl #30
     fe8:	01070000 	mrseq	r0, (UNDEF: 7)
     fec:	00010000 	andeq	r0, r1, r0
     ff0:	00010750 	andeq	r0, r1, r0, asr r7
     ff4:	00011400 	andeq	r1, r1, r0, lsl #8
     ff8:	f3000c00 			; <UNDEFINED> instruction: 0xf3000c00
     ffc:	25355001 	ldrcs	r5, [r5, #-1]!
    1000:	8080b423 	addhi	fp, r0, r3, lsr #8
    1004:	009f0281 	addseq	r0, pc, r1, lsl #5
    1008:	00000000 	andeq	r0, r0, r0
    100c:	fc000000 	stc2	0, cr0, [r0], {-0}
    1010:	14000000 	strne	r0, [r0], #-0
    1014:	01000001 	tsteq	r0, r1
    1018:	00005400 	andeq	r5, r0, r0, lsl #8
    101c:	00000000 	andeq	r0, r0, r0
    1020:	00d00000 	sbcseq	r0, r0, r0
    1024:	00df0000 	sbcseq	r0, pc, r0
    1028:	00010000 	andeq	r0, r1, r0
    102c:	0000df50 	andeq	sp, r0, r0, asr pc
    1030:	0000e400 	andeq	lr, r0, r0, lsl #8
    1034:	f3000400 	vshl.u8	d0, d0, d0
    1038:	e49f5001 	ldr	r5, [pc], #1	; 1040 <_start-0x6fc0>
    103c:	e7000000 	str	r0, [r0, -r0]
    1040:	01000000 	mrseq	r0, (UNDEF: 0)
    1044:	00e75000 	rsceq	r5, r7, r0
    1048:	00ec0000 	rsceq	r0, ip, r0
    104c:	00040000 	andeq	r0, r4, r0
    1050:	9f5001f3 	svcls	0x005001f3
	...
    105c:	000000d0 	ldrdeq	r0, [r0], -r0	; <UNPREDICTABLE>
    1060:	000000df 	ldrdeq	r0, [r0], -pc	; <UNPREDICTABLE>
    1064:	df510001 	svcle	0x00510001
    1068:	e4000000 	str	r0, [r0], #-0
    106c:	04000000 	streq	r0, [r0], #-0
    1070:	5101f300 	mrspl	pc, SP_irq	; <UNPREDICTABLE>
    1074:	0000e49f 	muleq	r0, pc, r4	; <UNPREDICTABLE>
    1078:	0000e700 	andeq	lr, r0, r0, lsl #14
    107c:	51000100 	mrspl	r0, (UNDEF: 16)
    1080:	000000e7 	andeq	r0, r0, r7, ror #1
    1084:	000000ec 	andeq	r0, r0, ip, ror #1
    1088:	01f30004 	mvnseq	r0, r4
    108c:	00009f51 	andeq	r9, r0, r1, asr pc
    1090:	00000000 	andeq	r0, r0, r0
    1094:	00c00000 	sbceq	r0, r0, r0
    1098:	00cb0000 	sbceq	r0, fp, r0
    109c:	00010000 	andeq	r0, r1, r0
    10a0:	0000cb50 	andeq	ip, r0, r0, asr fp
    10a4:	0000d000 	andeq	sp, r0, r0
    10a8:	f3000400 	vshl.u8	d0, d0, d0
    10ac:	009f5001 	addseq	r5, pc, r1
    10b0:	00000000 	andeq	r0, r0, r0
    10b4:	9c000000 	stcls	0, cr0, [r0], {-0}
    10b8:	b4000000 	strlt	r0, [r0], #-0
    10bc:	01000000 	mrseq	r0, (UNDEF: 0)
    10c0:	00b45000 	adcseq	r5, r4, r0
    10c4:	00c00000 	sbceq	r0, r0, r0
    10c8:	00040000 	andeq	r0, r4, r0
    10cc:	9f5001f3 	svcls	0x005001f3
	...
    10d8:	00000078 	andeq	r0, r0, r8, ror r0
    10dc:	00000090 	muleq	r0, r0, r0
    10e0:	90500001 	subsls	r0, r0, r1
    10e4:	9c000000 	stcls	0, cr0, [r0], {-0}
    10e8:	04000000 	streq	r0, [r0], #-0
    10ec:	5001f300 	andpl	pc, r1, r0, lsl #6
    10f0:	0000009f 	muleq	r0, pc, r0	; <UNPREDICTABLE>
    10f4:	00000000 	andeq	r0, r0, r0
    10f8:	00006800 	andeq	r6, r0, r0, lsl #16
    10fc:	00007300 	andeq	r7, r0, r0, lsl #6
    1100:	50000100 	andpl	r0, r0, r0, lsl #2
    1104:	00000073 	andeq	r0, r0, r3, ror r0
    1108:	00000078 	andeq	r0, r0, r8, ror r0
    110c:	01f30004 	mvnseq	r0, r4
    1110:	00009f50 	andeq	r9, r0, r0, asr pc
	...
    111c:	00480000 	subeq	r0, r8, r0
    1120:	00010000 	andeq	r0, r1, r0
    1124:	00004850 	andeq	r4, r0, r0, asr r8
    1128:	00006800 	andeq	r6, r0, r0, lsl #16
    112c:	f3000400 	vshl.u8	d0, d0, d0
    1130:	009f5001 	addseq	r5, pc, r1
	...
    113c:	4b000000 	blmi	1144 <_start-0x6ebc>
    1140:	01000000 	mrseq	r0, (UNDEF: 0)
    1144:	004b5100 	subeq	r5, fp, r0, lsl #2
    1148:	00680000 	rsbeq	r0, r8, r0
    114c:	00040000 	andeq	r0, r4, r0
    1150:	9f5101f3 	svcls	0x005101f3
	...
    115c:	0000004c 	andeq	r0, r0, ip, asr #32
    1160:	00000054 	andeq	r0, r0, r4, asr r0
    1164:	54500001 	ldrbpl	r0, [r0], #-1
    1168:	58000000 	stmdapl	r0, {}	; <UNPREDICTABLE>
    116c:	09000000 	stmdbeq	r0, {}	; <UNPREDICTABLE>
    1170:	74007500 	strvc	r7, [r0], #-1280	; 0xfffffb00
    1174:	00712400 	rsbseq	r2, r1, r0, lsl #8
    1178:	00589f21 	subseq	r9, r8, r1, lsr #30
    117c:	005f0000 	subseq	r0, pc, r0
    1180:	00010000 	andeq	r0, r1, r0
    1184:	00000051 	andeq	r0, r0, r1, asr r0
    1188:	00000000 	andeq	r0, r0, r0
	...

Disassembly of section .debug_aranges:

00000000 <.debug_aranges>:
   0:	0000001c 	andeq	r0, r0, ip, lsl r0
   4:	00000002 	andeq	r0, r0, r2
   8:	00040000 	andeq	r0, r4, r0
   c:	00000000 	andeq	r0, r0, r0
  10:	00008010 	andeq	r8, r0, r0, lsl r0
  14:	000000c8 	andeq	r0, r0, r8, asr #1
	...
  20:	0000001c 	andeq	r0, r0, ip, lsl r0
  24:	0a9d0002 	beq	fe740034 <__bss_end__+0xfe7365cc>
  28:	00040000 	andeq	r0, r4, r0
  2c:	00000000 	andeq	r0, r0, r0
  30:	000080d8 	ldrdeq	r8, [r0], -r8	; <UNPREDICTABLE>
  34:	000005a0 	andeq	r0, r0, r0, lsr #11
	...
  40:	0000001c 	andeq	r0, r0, ip, lsl r0
  44:	1e360002 	cdpne	0, 3, cr0, cr6, cr2, {0}
  48:	00040000 	andeq	r0, r4, r0
  4c:	00000000 	andeq	r0, r0, r0
  50:	00008678 	andeq	r8, r0, r8, ror r6
  54:	00000058 	andeq	r0, r0, r8, asr r0
	...
  60:	0000001c 	andeq	r0, r0, ip, lsl r0
  64:	27c80002 	strbcs	r0, [r8, r2]
  68:	00040000 	andeq	r0, r4, r0
  6c:	00000000 	andeq	r0, r0, r0
  70:	000086d0 	ldrdeq	r8, [r0], -r0
  74:	00000530 	andeq	r0, r0, r0, lsr r5
	...
  80:	0000001c 	andeq	r0, r0, ip, lsl r0
  84:	363c0002 	ldrtcc	r0, [ip], -r2
  88:	00040000 	andeq	r0, r4, r0
  8c:	00000000 	andeq	r0, r0, r0
  90:	00008c00 	andeq	r8, r0, r0, lsl #24
  94:	00000060 	andeq	r0, r0, r0, rrx
	...
  a0:	0000001c 	andeq	r0, r0, ip, lsl r0
  a4:	3fab0002 	svccc	0x00ab0002
  a8:	00040000 	andeq	r0, r4, r0
  ac:	00000000 	andeq	r0, r0, r0
  b0:	00008c60 	andeq	r8, r0, r0, ror #24
  b4:	000000e8 	andeq	r0, r0, r8, ror #1
	...
  c0:	0000001c 	andeq	r0, r0, ip, lsl r0
  c4:	48fb0002 	ldmmi	fp!, {r1}^
  c8:	00040000 	andeq	r0, r4, r0
  cc:	00000000 	andeq	r0, r0, r0
  d0:	00008d48 	andeq	r8, r0, r8, asr #26
  d4:	00000034 	andeq	r0, r0, r4, lsr r0
	...
  e0:	0000001c 	andeq	r0, r0, ip, lsl r0
  e4:	51ea0002 	mvnpl	r0, r2
  e8:	00040000 	andeq	r0, r4, r0
  ec:	00000000 	andeq	r0, r0, r0
  f0:	00008d7c 	andeq	r8, r0, ip, ror sp
  f4:	0000003c 	andeq	r0, r0, ip, lsr r0
	...
 100:	0000001c 	andeq	r0, r0, ip, lsl r0
 104:	5b2b0002 	blpl	ac0114 <__bss_end__+0xab66ac>
 108:	00040000 	andeq	r0, r4, r0
 10c:	00000000 	andeq	r0, r0, r0
 110:	00008db8 			; <UNDEFINED> instruction: 0x00008db8
 114:	00000020 	andeq	r0, r0, r0, lsr #32
	...
 120:	0000001c 	andeq	r0, r0, ip, lsl r0
 124:	64070002 	strvs	r0, [r7], #-2
 128:	00040000 	andeq	r0, r4, r0
 12c:	00000000 	andeq	r0, r0, r0
 130:	00008dd8 	ldrdeq	r8, [r0], -r8	; <UNPREDICTABLE>
 134:	00000034 	andeq	r0, r0, r4, lsr r0
	...
 140:	0000001c 	andeq	r0, r0, ip, lsl r0
 144:	6d410002 	stclvs	0, cr0, [r1, #-8]
 148:	00040000 	andeq	r0, r4, r0
 14c:	00000000 	andeq	r0, r0, r0
 150:	00008e0c 	andeq	r8, r0, ip, lsl #28
 154:	00000078 	andeq	r0, r0, r8, ror r0
	...
 160:	0000001c 	andeq	r0, r0, ip, lsl r0
 164:	772b0002 	strvc	r0, [fp, -r2]!
 168:	00040000 	andeq	r0, r4, r0
 16c:	00000000 	andeq	r0, r0, r0
 170:	00008e84 	andeq	r8, r0, r4, lsl #29
 174:	00000028 	andeq	r0, r0, r8, lsr #32
	...
 180:	0000001c 	andeq	r0, r0, ip, lsl r0
 184:	80460002 	subhi	r0, r6, r2
 188:	00040000 	andeq	r0, r4, r0
 18c:	00000000 	andeq	r0, r0, r0
 190:	00008eac 	andeq	r8, r0, ip, lsr #29
 194:	00000088 	andeq	r0, r0, r8, lsl #1
	...
 1a0:	0000001c 	andeq	r0, r0, ip, lsl r0
 1a4:	8a610002 	bhi	18401b4 <__bss_end__+0x183674c>
 1a8:	00040000 	andeq	r0, r4, r0
 1ac:	00000000 	andeq	r0, r0, r0
 1b0:	00008f80 	andeq	r8, r0, r0, lsl #31
 1b4:	00000178 	andeq	r0, r0, r8, ror r1
	...
 1c0:	0000001c 	andeq	r0, r0, ip, lsl r0
 1c4:	972a0002 	strls	r0, [sl, -r2]!
 1c8:	00040000 	andeq	r0, r4, r0
 1cc:	00000000 	andeq	r0, r0, r0
 1d0:	000090f8 	strdeq	r9, [r0], -r8
 1d4:	00000120 	andeq	r0, r0, r0, lsr #2
	...

Disassembly of section .debug_line:

00000000 <.debug_line>:
       0:	0000010b 	andeq	r0, r0, fp, lsl #2
       4:	00ed0002 	rsceq	r0, sp, r2
       8:	01020000 	mrseq	r0, (UNDEF: 2)
       c:	000d0efb 	strdeq	r0, [sp], -fp
      10:	01010101 	tsteq	r1, r1, lsl #2
      14:	01000000 	mrseq	r0, (UNDEF: 0)
      18:	2f010000 	svccs	0x00010000
      1c:	2f727375 	svccs	0x00727375
      20:	6c636e69 	stclvs	14, cr6, [r3], #-420	; 0xfffffe5c
      24:	2f656475 	svccs	0x00656475
      28:	6c77656e 	cfldr64vs	mvdx6, [r7], #-440	; 0xfffffe48
      2c:	732f6269 			; <UNDEFINED> instruction: 0x732f6269
      30:	2f007379 	svccs	0x00007379
      34:	2f727375 	svccs	0x00727375
      38:	2f62696c 	svccs	0x0062696c
      3c:	2f636367 	svccs	0x00636367
      40:	2d6d7261 	sfmcs	f7, 2, [sp, #-388]!	; 0xfffffe7c
      44:	656e6f6e 	strbvs	r6, [lr, #-3950]!	; 0xfffff092
      48:	6261652d 	rsbvs	r6, r1, #188743680	; 0xb400000
      4c:	2e362f69 	cdpcs	15, 3, cr2, cr6, cr9, {3}
      50:	2f312e33 	svccs	0x00312e33
      54:	6c636e69 	stclvs	14, cr6, [r3], #-420	; 0xfffffe5c
      58:	00656475 	rsbeq	r6, r5, r5, ror r4
      5c:	6d6f682f 	stclvs	8, cr6, [pc, #-188]!	; ffffffa8 <__bss_end__+0xffff6540>
      60:	73752f65 	cmnvc	r5, #404	; 0x194
      64:	442f7265 	strtmi	r7, [pc], #-613	; 6c <_start-0x7f94>
      68:	432f7665 			; <UNDEFINED> instruction: 0x432f7665
      6c:	30343253 	eorscc	r3, r4, r3, asr r2
      70:	6c2f2f58 	stcvs	15, cr2, [pc], #-352	; ffffff18 <__bss_end__+0xffff64b0>
      74:	69706269 	ldmdbvs	r0!, {r0, r3, r5, r6, r9, sp, lr}^
      78:	636e692f 	cmnvs	lr, #770048	; 0xbc000
      7c:	6564756c 	strbvs	r7, [r4, #-1388]!	; 0xfffffa94
      80:	73752f00 	cmnvc	r5, #0, 30
      84:	6e692f72 	mcrvs	15, 3, r2, cr9, cr2, {3}
      88:	64756c63 	ldrbtvs	r6, [r5], #-3171	; 0xfffff39d
      8c:	656e2f65 	strbvs	r2, [lr, #-3941]!	; 0xfffff09b
      90:	62696c77 	rsbvs	r6, r9, #30464	; 0x7700
      94:	61700000 	cmnvs	r0, r0
      98:	2d317472 	cfldrscs	mvf7, [r1, #-456]!	; 0xfffffe38
      9c:	74736574 	ldrbtvc	r6, [r3], #-1396	; 0xfffffa8c
      a0:	00632e31 	rsbeq	r2, r3, r1, lsr lr
      a4:	6c000000 	stcvs	0, cr0, [r0], {-0}
      a8:	2e6b636f 	cdpcs	3, 6, cr6, cr11, cr15, {3}
      ac:	00010068 	andeq	r0, r1, r8, rrx
      b0:	79745f00 	ldmdbvc	r4!, {r8, r9, sl, fp, ip, lr}^
      b4:	2e736570 	mrccs	5, 3, r6, cr3, cr0, {3}
      b8:	00010068 	andeq	r0, r1, r8, rrx
      bc:	64747300 	ldrbtvs	r7, [r4], #-768	; 0xfffffd00
      c0:	2e666564 	cdpcs	5, 6, cr6, cr6, cr4, {3}
      c4:	00020068 	andeq	r0, r2, r8, rrx
      c8:	65657200 	strbvs	r7, [r5, #-512]!	; 0xfffffe00
      cc:	682e746e 	stmdavs	lr!, {r1, r2, r3, r5, r6, sl, ip, sp, lr}
      d0:	00000100 	andeq	r0, r0, r0, lsl #2
      d4:	2e697072 	mcrcs	0, 3, r7, cr9, cr2, {3}
      d8:	00030068 	andeq	r0, r3, r8, rrx
      dc:	616b6300 	cmnvs	fp, r0, lsl #6
      e0:	636f6c6c 	cmnvs	pc, #108, 24	; 0x6c00
      e4:	0000682e 	andeq	r6, r0, lr, lsr #16
      e8:	74730000 	ldrbtvc	r0, [r3], #-0
      ec:	676e6972 			; <UNDEFINED> instruction: 0x676e6972
      f0:	0400682e 	streq	r6, [r0], #-2094	; 0xfffff7d2
      f4:	00000000 	andeq	r0, r0, r0
      f8:	80100205 	andshi	r0, r0, r5, lsl #4
      fc:	0c030000 	stceq	0, cr0, [r3], {-0}
     100:	684d2f01 	stmdavs	sp, {r0, r8, r9, sl, fp, sp}^
     104:	a0839ff3 	strdge	r9, [r3], r3
     108:	1c029c69 	stcne	12, cr9, [r2], {105}	; 0x69
     10c:	eb010100 	bl	40514 <__bss_end__+0x36aac>
     110:	02000001 	andeq	r0, r0, #1
     114:	00012b00 	andeq	r2, r1, r0, lsl #22
     118:	fb010200 	blx	40922 <__bss_end__+0x36eba>
     11c:	01000d0e 	tsteq	r0, lr, lsl #26
     120:	00010101 	andeq	r0, r1, r1, lsl #2
     124:	00010000 	andeq	r0, r1, r0
     128:	752f0100 	strvc	r0, [pc, #-256]!	; 30 <_start-0x7fd0>
     12c:	6c2f7273 	sfmvs	f7, 4, [pc], #-460	; ffffff68 <__bss_end__+0xffff6500>
     130:	672f6269 	strvs	r6, [pc, -r9, ror #4]!
     134:	612f6363 			; <UNDEFINED> instruction: 0x612f6363
     138:	6e2d6d72 	mcrvs	13, 1, r6, cr13, cr2, {3}
     13c:	2d656e6f 	stclcs	14, cr6, [r5, #-444]!	; 0xfffffe44
     140:	69626165 	stmdbvs	r2!, {r0, r2, r5, r6, r8, sp, lr}^
     144:	332e362f 			; <UNDEFINED> instruction: 0x332e362f
     148:	692f312e 	stmdbvs	pc!, {r1, r2, r3, r5, r8, ip, sp}	; <UNPREDICTABLE>
     14c:	756c636e 	strbvc	r6, [ip, #-878]!	; 0xfffffc92
     150:	2f006564 	svccs	0x00006564
     154:	2f727375 	svccs	0x00727375
     158:	6c636e69 	stclvs	14, cr6, [r3], #-420	; 0xfffffe5c
     15c:	2f656475 	svccs	0x00656475
     160:	6c77656e 	cfldr64vs	mvdx6, [r7], #-440	; 0xfffffe48
     164:	732f6269 			; <UNDEFINED> instruction: 0x732f6269
     168:	2f007379 	svccs	0x00007379
     16c:	656d6f68 	strbvs	r6, [sp, #-3944]!	; 0xfffff098
     170:	6573752f 	ldrbvs	r7, [r3, #-1327]!	; 0xfffffad1
     174:	65442f72 	strbvs	r2, [r4, #-3954]	; 0xfffff08e
     178:	53432f76 	movtpl	r2, #16246	; 0x3f76
     17c:	58303432 	ldmdapl	r0!, {r1, r4, r5, sl, ip, sp}
     180:	696c2f2f 	stmdbvs	ip!, {r0, r1, r2, r3, r5, r8, r9, sl, fp, sp}^
     184:	2f697062 	svccs	0x00697062
     188:	6c636e69 	stclvs	14, cr6, [r3], #-420	; 0xfffffe5c
     18c:	00656475 	rsbeq	r6, r5, r5, ror r4
     190:	7273752f 	rsbsvc	r7, r3, #197132288	; 0xbc00000
     194:	636e692f 	cmnvs	lr, #770048	; 0xbc000
     198:	6564756c 	strbvs	r7, [r4, #-1388]!	; 0xfffffa94
     19c:	77656e2f 	strbvc	r6, [r5, -pc, lsr #28]!
     1a0:	0062696c 	rsbeq	r6, r2, ip, ror #18
     1a4:	6d6f682f 	stclvs	8, cr6, [pc, #-188]!	; f0 <_start-0x7f10>
     1a8:	73752f65 	cmnvc	r5, #404	; 0x194
     1ac:	442f7265 	strtmi	r7, [pc], #-613	; 1b4 <_start-0x7e4c>
     1b0:	432f7665 			; <UNDEFINED> instruction: 0x432f7665
     1b4:	30343253 	eorscc	r3, r4, r3, asr r2
     1b8:	6c2f2f58 	stcvs	15, cr2, [pc], #-352	; 60 <_start-0x7fa0>
     1bc:	69706269 	ldmdbvs	r0!, {r0, r3, r5, r6, r9, sp, lr}^
     1c0:	62696c2f 	rsbvs	r6, r9, #12032	; 0x2f00
     1c4:	63000063 	movwvs	r0, #99	; 0x63
     1c8:	6c6c616b 	stfvse	f6, [ip], #-428	; 0xfffffe54
     1cc:	632e636f 			; <UNDEFINED> instruction: 0x632e636f
     1d0:	00000000 	andeq	r0, r0, r0
     1d4:	69647473 	stmdbvs	r4!, {r0, r1, r4, r5, r6, sl, ip, sp, lr}^
     1d8:	672d746e 	strvs	r7, [sp, -lr, ror #8]!
     1dc:	682e6363 	stmdavs	lr!, {r0, r1, r5, r6, r8, r9, sp, lr}
     1e0:	00000100 	andeq	r0, r0, r0, lsl #2
     1e4:	6b636f6c 	blvs	18dbf9c <__bss_end__+0x18d2534>
     1e8:	0200682e 	andeq	r6, r0, #3014656	; 0x2e0000
     1ec:	745f0000 	ldrbvc	r0, [pc], #-0	; 1f4 <_start-0x7e0c>
     1f0:	73657079 	cmnvc	r5, #121	; 0x79
     1f4:	0200682e 	andeq	r6, r0, #3014656	; 0x2e0000
     1f8:	74730000 	ldrbtvc	r0, [r3], #-0
     1fc:	66656464 	strbtvs	r6, [r5], -r4, ror #8
     200:	0100682e 	tsteq	r0, lr, lsr #16
     204:	65720000 	ldrbvs	r0, [r2, #-0]!
     208:	2e746e65 	cdpcs	14, 7, cr6, cr4, cr5, {3}
     20c:	00020068 	andeq	r0, r2, r8, rrx
     210:	69707200 	ldmdbvs	r0!, {r9, ip, sp, lr}^
     214:	0300682e 	movweq	r6, #2094	; 0x82e
     218:	6b630000 	blvs	18c0220 <__bss_end__+0x18b67b8>
     21c:	6f6c6c61 	svcvs	0x006c6c61
     220:	00682e63 	rsbeq	r2, r8, r3, ror #28
     224:	73000000 	movwvc	r0, #0
     228:	6e697274 	mcrvs	2, 3, r7, cr9, cr4, {3}
     22c:	00682e67 	rsbeq	r2, r8, r7, ror #28
     230:	6c000004 	stcvs	0, cr0, [r0], {4}
     234:	2d636269 	sfmcs	f6, 2, [r3, #-420]!	; 0xfffffe5c
     238:	72747865 	rsbsvc	r7, r4, #6619136	; 0x650000
     23c:	00682e61 	rsbeq	r2, r8, r1, ror #28
     240:	00000005 	andeq	r0, r0, r5
     244:	d8020500 	stmdale	r2, {r8, sl}
     248:	03000080 	movweq	r0, #128	; 0x80
     24c:	4c010112 	stfmis	f0, [r1], {18}
     250:	844a682e 	strbhi	r6, [sl], #-2094	; 0xfffff7d2
     254:	03146901 	tsteq	r4, #16384	; 0x4000
     258:	00144a16 	andseq	r4, r4, r6, lsl sl
     25c:	06010402 	streq	r0, [r1], -r2, lsl #8
     260:	004b062e 	subeq	r0, fp, lr, lsr #12
     264:	49020402 	stmdbmi	r2, {r1, sl}
     268:	4ebb6a48 	vcvtmi.f32.u16	s12, s12, #0
     26c:	4b826403 	blmi	fe099280 <__bss_end__+0xfe08f818>
     270:	304b4b2f 	subcc	r4, fp, pc, lsr #22
     274:	bb844b31 	bllt	fe112f40 <__bss_end__+0xfe1094d8>
     278:	01040200 	mrseq	r0, R12_usr
     27c:	032f8847 			; <UNDEFINED> instruction: 0x032f8847
     280:	304c6618 	subcc	r6, ip, r8, lsl r6
     284:	04020049 	streq	r0, [r2], #-73	; 0xffffffb7
     288:	0806bb03 	stmdaeq	r6, {r0, r1, r8, r9, fp, ip, sp, pc}
     28c:	032f063c 			; <UNDEFINED> instruction: 0x032f063c
     290:	2f2e7fba 	svccs	0x002e7fba
     294:	006783bb 	strhteq	r8, [r7], #-59	; 0xffffffc5
     298:	63010402 	movwvs	r0, #5122	; 0x1402
     29c:	0800d903 	stmdaeq	r0, {r0, r1, r8, fp, ip, lr, pc}
     2a0:	9f309f74 	svcls	0x00309f74
     2a4:	4e6b839f 	mcrmi	3, 3, r8, cr11, cr15, {4}
     2a8:	01040200 	mrseq	r0, R12_usr
     2ac:	00827403 	addeq	r7, r2, r3, lsl #8
     2b0:	d8010402 	stmdale	r1, {r1, sl}
     2b4:	ac080e03 	stcge	14, cr0, [r8], {3}
     2b8:	4b84d76a 	blmi	fe136068 <__bss_end__+0xfe12c600>
     2bc:	2fbf4d31 	svccs	0x00bf4d31
     2c0:	4b674b2f 	blmi	19d2f84 <__bss_end__+0x19c951c>
     2c4:	21089f4b 	tstcs	r8, fp, asr #30
     2c8:	67838368 	strvs	r8, [r3, r8, ror #6]
     2cc:	040200d8 	streq	r0, [r2], #-216	; 0xffffff28
     2d0:	66620301 	strbtvs	r0, [r2], -r1, lsl #6
     2d4:	009308de 			; <UNDEFINED> instruction: 0x009308de
     2d8:	03010402 	movweq	r0, #5122	; 0x1402
     2dc:	012a020f 			; <UNDEFINED> instruction: 0x012a020f
     2e0:	28020903 	stmdacs	r2, {r0, r1, r8, fp}
     2e4:	4c832f01 	stcmi	15, cr2, [r3], {1}
     2e8:	322d2bc0 	eorcc	r2, sp, #192, 22	; 0x30000
     2ec:	02002a33 	andeq	r2, r0, #208896	; 0x33000
     2f0:	859d0104 	ldrhi	r0, [sp, #260]	; 0x104
     2f4:	a04d4f67 	subge	r4, sp, r7, ror #30
     2f8:	00180246 	andseq	r0, r8, r6, asr #4
     2fc:	01000101 	tsteq	r0, r1, lsl #2
     300:	00020000 	andeq	r0, r2, r0
     304:	000000e9 	andeq	r0, r0, r9, ror #1
     308:	0efb0102 	cdpeq	1, 15, cr0, cr11, cr2, {0}
     30c:	0101000d 	tsteq	r1, sp
     310:	00000101 	andeq	r0, r0, r1, lsl #2
     314:	00000100 	andeq	r0, r0, r0, lsl #2
     318:	62696c01 	rsbvs	r6, r9, #256	; 0x100
     31c:	752f0063 	strvc	r0, [pc, #-99]!	; 2c1 <_start-0x7d3f>
     320:	6c2f7273 	sfmvs	f7, 4, [pc], #-460	; 15c <_start-0x7ea4>
     324:	672f6269 	strvs	r6, [pc, -r9, ror #4]!
     328:	612f6363 			; <UNDEFINED> instruction: 0x612f6363
     32c:	6e2d6d72 	mcrvs	13, 1, r6, cr13, cr2, {3}
     330:	2d656e6f 	stclcs	14, cr6, [r5, #-444]!	; 0xfffffe44
     334:	69626165 	stmdbvs	r2!, {r0, r2, r5, r6, r8, sp, lr}^
     338:	332e362f 			; <UNDEFINED> instruction: 0x332e362f
     33c:	692f312e 	stmdbvs	pc!, {r1, r2, r3, r5, r8, ip, sp}	; <UNPREDICTABLE>
     340:	756c636e 	strbvc	r6, [ip, #-878]!	; 0xfffffc92
     344:	2f006564 	svccs	0x00006564
     348:	2f727375 	svccs	0x00727375
     34c:	6c636e69 	stclvs	14, cr6, [r3], #-420	; 0xfffffe5c
     350:	2f656475 	svccs	0x00656475
     354:	6c77656e 	cfldr64vs	mvdx6, [r7], #-440	; 0xfffffe48
     358:	732f6269 			; <UNDEFINED> instruction: 0x732f6269
     35c:	2f007379 	svccs	0x00007379
     360:	656d6f68 	strbvs	r6, [sp, #-3944]!	; 0xfffff098
     364:	6573752f 	ldrbvs	r7, [r3, #-1327]!	; 0xfffffad1
     368:	65442f72 	strbvs	r2, [r4, #-3954]	; 0xfffff08e
     36c:	53432f76 	movtpl	r2, #16246	; 0x3f76
     370:	58303432 	ldmdapl	r0!, {r1, r4, r5, sl, ip, sp}
     374:	696c2f2f 	stmdbvs	ip!, {r0, r1, r2, r3, r5, r8, r9, sl, fp, sp}^
     378:	2f697062 	svccs	0x00697062
     37c:	6c636e69 	stclvs	14, cr6, [r3], #-420	; 0xfffffe5c
     380:	00656475 	rsbeq	r6, r5, r5, ror r4
     384:	69727000 	ldmdbvs	r2!, {ip, sp, lr}^
     388:	2e6b746e 	cdpcs	4, 6, cr7, cr11, cr14, {3}
     38c:	00010063 	andeq	r0, r1, r3, rrx
     390:	64747300 	ldrbtvs	r7, [r4], #-768	; 0xfffffd00
     394:	2e677261 	cdpcs	2, 6, cr7, cr7, cr1, {3}
     398:	00020068 	andeq	r0, r2, r8, rrx
     39c:	636f6c00 	cmnvs	pc, #0, 24
     3a0:	00682e6b 	rsbeq	r2, r8, fp, ror #28
     3a4:	5f000003 	svcpl	0x00000003
     3a8:	65707974 	ldrbvs	r7, [r0, #-2420]!	; 0xfffff68c
     3ac:	00682e73 	rsbeq	r2, r8, r3, ror lr
     3b0:	73000003 	movwvc	r0, #3
     3b4:	65646474 	strbvs	r6, [r4, #-1140]!	; 0xfffffb8c
     3b8:	00682e66 	rsbeq	r2, r8, r6, ror #28
     3bc:	72000002 	andvc	r0, r0, #2
     3c0:	746e6565 	strbtvc	r6, [lr], #-1381	; 0xfffffa9b
     3c4:	0300682e 	movweq	r6, #2094	; 0x82e
     3c8:	623c0000 	eorsvs	r0, ip, #0
     3cc:	746c6975 	strbtvc	r6, [ip], #-2421	; 0xfffff68b
     3d0:	3e6e692d 	vmulcc.f16	s13, s28, s27	; <UNPREDICTABLE>
     3d4:	00000000 	andeq	r0, r0, r0
     3d8:	2e697072 	mcrcs	0, 3, r7, cr9, cr2, {3}
     3dc:	00040068 	andeq	r0, r4, r8, rrx
     3e0:	2d617600 	stclcs	6, cr7, [r1, #-0]
     3e4:	6e697270 	mcrvs	2, 3, r7, cr9, cr0, {3}
     3e8:	682e6b74 	stmdavs	lr!, {r2, r4, r5, r6, r8, r9, fp, sp, lr}
     3ec:	00000100 	andeq	r0, r0, r0, lsl #2
     3f0:	02050000 	andeq	r0, r5, #0
     3f4:	00008678 	andeq	r8, r0, r8, ror r6
     3f8:	bf4b6b17 	svclt	0x004b6b17
     3fc:	000e0289 	andeq	r0, lr, r9, lsl #5
     400:	01cc0101 	biceq	r0, ip, r1, lsl #2
     404:	00020000 	andeq	r0, r2, r0
     408:	000000dd 	ldrdeq	r0, [r0], -sp
     40c:	0efb0102 	cdpeq	1, 15, cr0, cr11, cr2, {0}
     410:	0101000d 	tsteq	r1, sp
     414:	00000101 	andeq	r0, r0, r1, lsl #2
     418:	00000100 	andeq	r0, r0, r0, lsl #2
     41c:	62696c01 	rsbvs	r6, r9, #256	; 0x100
     420:	752f0063 	strvc	r0, [pc, #-99]!	; 3c5 <_start-0x7c3b>
     424:	692f7273 	stmdbvs	pc!, {r0, r1, r4, r5, r6, r9, ip, sp, lr}	; <UNPREDICTABLE>
     428:	756c636e 	strbvc	r6, [ip, #-878]!	; 0xfffffc92
     42c:	6e2f6564 	cfsh64vs	mvdx6, mvdx15, #52
     430:	696c7765 	stmdbvs	ip!, {r0, r2, r5, r6, r8, r9, sl, ip, sp, lr}^
     434:	79732f62 	ldmdbvc	r3!, {r1, r5, r6, r8, r9, sl, fp, sp}^
     438:	752f0073 	strvc	r0, [pc, #-115]!	; 3cd <_start-0x7c33>
     43c:	6c2f7273 	sfmvs	f7, 4, [pc], #-460	; 278 <_start-0x7d88>
     440:	672f6269 	strvs	r6, [pc, -r9, ror #4]!
     444:	612f6363 			; <UNDEFINED> instruction: 0x612f6363
     448:	6e2d6d72 	mcrvs	13, 1, r6, cr13, cr2, {3}
     44c:	2d656e6f 	stclcs	14, cr6, [r5, #-444]!	; 0xfffffe44
     450:	69626165 	stmdbvs	r2!, {r0, r2, r5, r6, r8, sp, lr}^
     454:	332e362f 			; <UNDEFINED> instruction: 0x332e362f
     458:	692f312e 	stmdbvs	pc!, {r1, r2, r3, r5, r8, ip, sp}	; <UNPREDICTABLE>
     45c:	756c636e 	strbvc	r6, [ip, #-878]!	; 0xfffffc92
     460:	2f006564 	svccs	0x00006564
     464:	656d6f68 	strbvs	r6, [sp, #-3944]!	; 0xfffff098
     468:	6573752f 	ldrbvs	r7, [r3, #-1327]!	; 0xfffffad1
     46c:	65442f72 	strbvs	r2, [r4, #-3954]	; 0xfffff08e
     470:	53432f76 	movtpl	r2, #16246	; 0x3f76
     474:	58303432 	ldmdapl	r0!, {r1, r4, r5, sl, ip, sp}
     478:	696c2f2f 	stmdbvs	ip!, {r0, r1, r2, r3, r5, r8, r9, sl, fp, sp}^
     47c:	2f697062 	svccs	0x00697062
     480:	6c636e69 	stclvs	14, cr6, [r3], #-420	; 0xfffffe5c
     484:	00656475 	rsbeq	r6, r5, r5, ror r4
     488:	2d617600 	stclcs	6, cr7, [r1, #-0]
     48c:	6e697270 	mcrvs	2, 3, r7, cr9, cr0, {3}
     490:	632e6b74 			; <UNDEFINED> instruction: 0x632e6b74
     494:	00000100 	andeq	r0, r0, r0, lsl #2
     498:	6b636f6c 	blvs	18dc250 <__bss_end__+0x18d27e8>
     49c:	0200682e 	andeq	r6, r0, #3014656	; 0x2e0000
     4a0:	745f0000 	ldrbvc	r0, [pc], #-0	; 4a8 <_start-0x7b58>
     4a4:	73657079 	cmnvc	r5, #121	; 0x79
     4a8:	0200682e 	andeq	r6, r0, #3014656	; 0x2e0000
     4ac:	74730000 	ldrbtvc	r0, [r3], #-0
     4b0:	66656464 	strbtvs	r6, [r5], -r4, ror #8
     4b4:	0300682e 	movweq	r6, #2094	; 0x82e
     4b8:	65720000 	ldrbvs	r0, [r2, #-0]!
     4bc:	2e746e65 	cdpcs	14, 7, cr6, cr4, cr5, {3}
     4c0:	00020068 	andeq	r0, r2, r8, rrx
     4c4:	69707200 	ldmdbvs	r0!, {r9, ip, sp, lr}^
     4c8:	0400682e 	streq	r6, [r0], #-2094	; 0xfffff7d2
     4cc:	74730000 	ldrbtvc	r0, [r3], #-0
     4d0:	67726164 	ldrbvs	r6, [r2, -r4, ror #2]!
     4d4:	0300682e 	movweq	r6, #2094	; 0x82e
     4d8:	623c0000 	eorsvs	r0, ip, #0
     4dc:	746c6975 	strbtvc	r6, [ip], #-2421	; 0xfffff68b
     4e0:	3e6e692d 	vmulcc.f16	s13, s28, s27	; <UNPREDICTABLE>
     4e4:	00000000 	andeq	r0, r0, r0
     4e8:	02050000 	andeq	r0, r5, #0
     4ec:	000086d0 	ldrdeq	r8, [r0], -r0
     4f0:	01012603 	tsteq	r1, r3, lsl #12
     4f4:	003013a5 	eorseq	r1, r0, r5, lsr #7
     4f8:	2f020402 	svccs	0x00020402
     4fc:	02040200 	andeq	r0, r4, #0, 4
     500:	04020049 	streq	r0, [r2], #-73	; 0xffffffb7
     504:	02002f02 	andeq	r2, r0, #2, 30
     508:	4c2d0104 	stfmis	f0, [sp], #-16
     50c:	4b14304c 	blmi	50c644 <__bss_end__+0x502bdc>
     510:	02004f2f 	andeq	r4, r0, #47, 30	; 0xbc
     514:	00670304 	rsbeq	r0, r7, r4, lsl #6
     518:	65010402 	strvs	r0, [r1, #-1026]	; 0xfffffbfe
     51c:	a0304d4c 	eorsge	r4, r0, ip, asr #26
     520:	0230312f 	eorseq	r3, r0, #-1073741813	; 0xc000000b
     524:	2da01626 	stccs	6, cr1, [r0, #152]!	; 0x98
     528:	01040200 	mrseq	r0, R12_usr
     52c:	48062e06 	stmdami	r6, {r1, r2, r9, sl, fp, sp}
     530:	04020051 	streq	r0, [r2], #-81	; 0xffffffaf
     534:	002e0601 	eoreq	r0, lr, r1, lsl #12
     538:	06010402 	streq	r0, [r1], -r2, lsl #8
     53c:	2f675908 	svccs	0x00675908
     540:	00827303 	addeq	r7, r2, r3, lsl #6
     544:	03010402 	movweq	r0, #5122	; 0x1402
     548:	02002e13 	andeq	r2, r0, #304	; 0x130
     54c:	03bb0104 			; <UNDEFINED> instruction: 0x03bb0104
     550:	03d74a15 	bicseq	r4, r7, #86016	; 0x15000
     554:	034b4a6e 	movteq	r4, #47726	; 0xba6e
     558:	02002e67 	andeq	r2, r0, #1648	; 0x670
     55c:	21030104 	tstcs	r3, r4, lsl #2
     560:	0402002e 	streq	r0, [r2], #-46	; 0xffffffd2
     564:	0200bb01 	andeq	fp, r0, #1024	; 0x400
     568:	036a0104 	cmneq	sl, #4, 2
     56c:	ac087faa 	stcge	15, cr7, [r8], {170}	; 0xaa
     570:	2f4b4b13 	svccs	0x004b4b13
     574:	01040200 	mrseq	r0, R12_usr
     578:	04020062 	streq	r0, [r2], #-98	; 0xffffff9e
     57c:	dd032f01 	stcle	15, cr2, [r3, #-4]
     580:	83740800 	cmnhi	r4, #0, 16
     584:	0031484c 	eorseq	r4, r1, ip, asr #16
     588:	06010402 	streq	r0, [r1], -r2, lsl #8
     58c:	2f4b0666 	svccs	0x004b0666
     590:	30314e84 	eorscc	r4, r1, r4, lsl #29
     594:	2f2e7803 	svccs	0x002e7803
     598:	4a09032d 	bmi	241254 <__bss_end__+0x2377ec>
     59c:	4ca22c83 	stcmi	12, cr2, [r2], #524	; 0x20c
     5a0:	01040200 	mrseq	r0, R12_usr
     5a4:	dc103602 	ldcle	6, cr3, [r0], {2}
     5a8:	03d60e03 	bicseq	r0, r6, #3, 28	; 0x30
     5ac:	31580816 	cmpcc	r8, r6, lsl r8
     5b0:	082e6a03 	stmdaeq	lr!, {r0, r1, r9, fp, sp, lr}
     5b4:	59083159 	stmdbpl	r8, {r0, r3, r4, r6, r8, ip, sp}
     5b8:	30590830 	subscc	r0, r9, r0, lsr r8
     5bc:	59083083 	stmdbpl	r8, {r0, r1, r7, ip, sp}
     5c0:	65270830 	strvs	r0, [r7, #-2096]!	; 0xfffff7d0
     5c4:	01040200 	mrseq	r0, R12_usr
     5c8:	86064a06 	strhi	r4, [r6], -r6, lsl #20
     5cc:	00100268 	andseq	r0, r0, r8, ror #4
     5d0:	00f70101 	rscseq	r0, r7, r1, lsl #2
     5d4:	00020000 	andeq	r0, r2, r0
     5d8:	000000b2 	strheq	r0, [r0], -r2
     5dc:	0efb0102 	cdpeq	1, 15, cr0, cr11, cr2, {0}
     5e0:	0101000d 	tsteq	r1, sp
     5e4:	00000101 	andeq	r0, r0, r1, lsl #2
     5e8:	00000100 	andeq	r0, r0, r0, lsl #2
     5ec:	62696c01 	rsbvs	r6, r9, #256	; 0x100
     5f0:	752f0063 	strvc	r0, [pc, #-99]!	; 595 <_start-0x7a6b>
     5f4:	6c2f7273 	sfmvs	f7, 4, [pc], #-460	; 430 <_start-0x7bd0>
     5f8:	672f6269 	strvs	r6, [pc, -r9, ror #4]!
     5fc:	612f6363 			; <UNDEFINED> instruction: 0x612f6363
     600:	6e2d6d72 	mcrvs	13, 1, r6, cr13, cr2, {3}
     604:	2d656e6f 	stclcs	14, cr6, [r5, #-444]!	; 0xfffffe44
     608:	69626165 	stmdbvs	r2!, {r0, r2, r5, r6, r8, sp, lr}^
     60c:	332e362f 			; <UNDEFINED> instruction: 0x332e362f
     610:	692f312e 	stmdbvs	pc!, {r1, r2, r3, r5, r8, ip, sp}	; <UNPREDICTABLE>
     614:	756c636e 	strbvc	r6, [ip, #-878]!	; 0xfffffc92
     618:	2f006564 	svccs	0x00006564
     61c:	2f727375 	svccs	0x00727375
     620:	6c636e69 	stclvs	14, cr6, [r3], #-420	; 0xfffffe5c
     624:	2f656475 	svccs	0x00656475
     628:	6c77656e 	cfldr64vs	mvdx6, [r7], #-440	; 0xfffffe48
     62c:	732f6269 			; <UNDEFINED> instruction: 0x732f6269
     630:	2f007379 	svccs	0x00007379
     634:	2f727375 	svccs	0x00727375
     638:	6c636e69 	stclvs	14, cr6, [r3], #-420	; 0xfffffe5c
     63c:	2f656475 	svccs	0x00656475
     640:	6c77656e 	cfldr64vs	mvdx6, [r7], #-440	; 0xfffffe48
     644:	00006269 	andeq	r6, r0, r9, ror #4
     648:	636d656d 	cmnvs	sp, #457179136	; 0x1b400000
     64c:	632e7970 			; <UNDEFINED> instruction: 0x632e7970
     650:	00000100 	andeq	r0, r0, r0, lsl #2
     654:	64647473 	strbtvs	r7, [r4], #-1139	; 0xfffffb8d
     658:	682e6665 	stmdavs	lr!, {r0, r2, r5, r6, r9, sl, sp, lr}
     65c:	00000200 	andeq	r0, r0, r0, lsl #4
     660:	6b636f6c 	blvs	18dc418 <__bss_end__+0x18d29b0>
     664:	0300682e 	movweq	r6, #2094	; 0x82e
     668:	745f0000 	ldrbvc	r0, [pc], #-0	; 670 <_start-0x7990>
     66c:	73657079 	cmnvc	r5, #121	; 0x79
     670:	0300682e 	movweq	r6, #2094	; 0x82e
     674:	65720000 	ldrbvs	r0, [r2, #-0]!
     678:	2e746e65 	cdpcs	14, 7, cr6, cr4, cr5, {3}
     67c:	00030068 	andeq	r0, r3, r8, rrx
     680:	72747300 	rsbsvc	r7, r4, #0, 6
     684:	2e676e69 	cdpcs	14, 6, cr6, cr7, cr9, {3}
     688:	00040068 	andeq	r0, r4, r8, rrx
     68c:	05000000 	streq	r0, [r0, #-0]
     690:	008c0002 	addeq	r0, ip, r2
     694:	00171700 	andseq	r1, r7, r0, lsl #14
     698:	06010402 	streq	r0, [r1], -r2, lsl #8
     69c:	0402004a 	streq	r0, [r2], #-74	; 0xffffffb6
     6a0:	4b064a02 	blmi	192eb0 <__bss_end__+0x189448>
     6a4:	04020032 	streq	r0, [r2], #-50	; 0xffffffce
     6a8:	02002f03 	andeq	r2, r0, #3, 30
     6ac:	00490304 	subeq	r0, r9, r4, lsl #6
     6b0:	06010402 	streq	r0, [r1], -r2, lsl #8
     6b4:	0402002e 	streq	r0, [r2], #-46	; 0xffffffd2
     6b8:	006c0603 	rsbeq	r0, ip, r3, lsl #12
     6bc:	49030402 	stmdbmi	r3, {r1, sl}
     6c0:	01040200 	mrseq	r0, R12_usr
     6c4:	4e062e06 	cdpmi	14, 0, cr2, cr6, cr6, {0}
     6c8:	01000a02 	tsteq	r0, r2, lsl #20
     6cc:	00012a01 	andeq	r2, r1, r1, lsl #20
     6d0:	ce000200 	cdpgt	2, 0, cr0, cr0, cr0, {0}
     6d4:	02000000 	andeq	r0, r0, #0
     6d8:	0d0efb01 	vstreq	d15, [lr, #-4]
     6dc:	01010100 	mrseq	r0, (UNDEF: 17)
     6e0:	00000001 	andeq	r0, r0, r1
     6e4:	01000001 	tsteq	r0, r1
     6e8:	6362696c 	cmnvs	r2, #108, 18	; 0x1b0000
     6ec:	73752f00 	cmnvc	r5, #0, 30
     6f0:	696c2f72 	stmdbvs	ip!, {r1, r4, r5, r6, r8, r9, sl, fp, sp}^
     6f4:	63672f62 	cmnvs	r7, #392	; 0x188
     6f8:	72612f63 	rsbvc	r2, r1, #396	; 0x18c
     6fc:	6f6e2d6d 	svcvs	0x006e2d6d
     700:	652d656e 	strvs	r6, [sp, #-1390]!	; 0xfffffa92
     704:	2f696261 	svccs	0x00696261
     708:	2e332e36 	mrccs	14, 1, r2, cr3, cr6, {1}
     70c:	6e692f31 	mcrvs	15, 3, r2, cr9, cr1, {1}
     710:	64756c63 	ldrbtvs	r6, [r5], #-3171	; 0xfffff39d
     714:	752f0065 	strvc	r0, [pc, #-101]!	; 6b7 <_start-0x7949>
     718:	692f7273 	stmdbvs	pc!, {r0, r1, r4, r5, r6, r9, ip, sp, lr}	; <UNPREDICTABLE>
     71c:	756c636e 	strbvc	r6, [ip, #-878]!	; 0xfffffc92
     720:	6e2f6564 	cfsh64vs	mvdx6, mvdx15, #52
     724:	696c7765 	stmdbvs	ip!, {r0, r2, r5, r6, r8, r9, sl, ip, sp, lr}^
     728:	79732f62 	ldmdbvc	r3!, {r1, r5, r6, r8, r9, sl, fp, sp}^
     72c:	682f0073 	stmdavs	pc!, {r0, r1, r4, r5, r6}	; <UNPREDICTABLE>
     730:	2f656d6f 	svccs	0x00656d6f
     734:	72657375 	rsbvc	r7, r5, #-738197503	; 0xd4000001
     738:	7665442f 	strbtvc	r4, [r5], -pc, lsr #8
     73c:	3253432f 	subscc	r4, r3, #-1140850688	; 0xbc000000
     740:	2f583034 	svccs	0x00583034
     744:	62696c2f 	rsbvs	r6, r9, #12032	; 0x2f00
     748:	692f6970 	stmdbvs	pc!, {r4, r5, r6, r8, fp, sp, lr}	; <UNPREDICTABLE>
     74c:	756c636e 	strbvc	r6, [ip, #-878]!	; 0xfffffc92
     750:	00006564 	andeq	r6, r0, r4, ror #10
     754:	68736168 	ldmdavs	r3!, {r3, r5, r6, r8, sp, lr}^
     758:	0100632e 	tsteq	r0, lr, lsr #6
     75c:	74730000 	ldrbtvc	r0, [r3], #-0
     760:	746e6964 	strbtvc	r6, [lr], #-2404	; 0xfffff69c
     764:	6363672d 	cmnvs	r3, #11796480	; 0xb40000
     768:	0200682e 	andeq	r6, r0, #3014656	; 0x2e0000
     76c:	6f6c0000 	svcvs	0x006c0000
     770:	682e6b63 	stmdavs	lr!, {r0, r1, r5, r6, r8, r9, fp, sp, lr}
     774:	00000300 	andeq	r0, r0, r0, lsl #6
     778:	7079745f 	rsbsvc	r7, r9, pc, asr r4
     77c:	682e7365 	stmdavs	lr!, {r0, r2, r5, r6, r8, r9, ip, sp, lr}
     780:	00000300 	andeq	r0, r0, r0, lsl #6
     784:	64647473 	strbtvs	r7, [r4], #-1139	; 0xfffffb8d
     788:	682e6665 	stmdavs	lr!, {r0, r2, r5, r6, r9, sl, sp, lr}
     78c:	00000200 	andeq	r0, r0, r0, lsl #4
     790:	6e656572 	mcrvs	5, 3, r6, cr5, cr2, {3}
     794:	00682e74 	rsbeq	r2, r8, r4, ror lr
     798:	72000003 	andvc	r0, r0, #3
     79c:	682e6970 	stmdavs	lr!, {r4, r5, r6, r8, fp, sp, lr}
     7a0:	00000400 	andeq	r0, r0, r0, lsl #8
     7a4:	02050000 	andeq	r0, r5, #0
     7a8:	00008c60 	andeq	r8, r0, r0, ror #24
     7ac:	17010e03 	strne	r0, [r1, -r3, lsl #28]
     7b0:	312f5161 			; <UNDEFINED> instruction: 0x312f5161
     7b4:	02040200 	andeq	r0, r4, #0, 4
     7b8:	0402002f 	streq	r0, [r2], #-47	; 0xffffffd1
     7bc:	02008302 	andeq	r8, r0, #134217728	; 0x8000000
     7c0:	00830204 	addeq	r0, r3, r4, lsl #4
     7c4:	2f020402 	svccs	0x00020402
     7c8:	02040200 	andeq	r0, r4, #0, 4
     7cc:	0402002f 	streq	r0, [r2], #-47	; 0xffffffd1
     7d0:	02002902 	andeq	r2, r0, #32768	; 0x8000
     7d4:	2e060104 	adfcss	f0, f6, f4
     7d8:	4a090306 	bmi	2413f8 <__bss_end__+0x237990>
     7dc:	2fba1003 	svccs	0x00ba1003
     7e0:	2f2f2f2f 	svccs	0x002f2f2f
     7e4:	2e6a0330 	mcrcs	3, 3, r0, cr10, cr0, {1}
     7e8:	2f4b2f83 	svccs	0x004b2f83
     7ec:	2f2f832f 	svccs	0x002f832f
     7f0:	032f4b2f 			; <UNDEFINED> instruction: 0x032f4b2f
     7f4:	04024a65 	streq	r4, [r2], #-2661	; 0xfffff59b
     7f8:	e4010100 	str	r0, [r1], #-256	; 0xffffff00
     7fc:	02000000 	andeq	r0, r0, #0
     800:	0000be00 	andeq	fp, r0, r0, lsl #28
     804:	fb010200 	blx	4100e <__bss_end__+0x375a6>
     808:	01000d0e 	tsteq	r0, lr, lsl #26
     80c:	00010101 	andeq	r0, r1, r1, lsl #2
     810:	00010000 	andeq	r0, r1, r0
     814:	696c0100 	stmdbvs	ip!, {r8}^
     818:	2f006362 	svccs	0x00006362
     81c:	2f727375 	svccs	0x00727375
     820:	6c636e69 	stclvs	14, cr6, [r3], #-420	; 0xfffffe5c
     824:	2f656475 	svccs	0x00656475
     828:	6c77656e 	cfldr64vs	mvdx6, [r7], #-440	; 0xfffffe48
     82c:	732f6269 			; <UNDEFINED> instruction: 0x732f6269
     830:	2f007379 	svccs	0x00007379
     834:	2f727375 	svccs	0x00727375
     838:	2f62696c 	svccs	0x0062696c
     83c:	2f636367 	svccs	0x00636367
     840:	2d6d7261 	sfmcs	f7, 2, [sp, #-388]!	; 0xfffffe7c
     844:	656e6f6e 	strbvs	r6, [lr, #-3950]!	; 0xfffff092
     848:	6261652d 	rsbvs	r6, r1, #188743680	; 0xb400000
     84c:	2e362f69 	cdpcs	15, 3, cr2, cr6, cr9, {3}
     850:	2f312e33 	svccs	0x00312e33
     854:	6c636e69 	stclvs	14, cr6, [r3], #-420	; 0xfffffe5c
     858:	00656475 	rsbeq	r6, r5, r5, ror r4
     85c:	6d6f682f 	stclvs	8, cr6, [pc, #-188]!	; 7a8 <_start-0x7858>
     860:	73752f65 	cmnvc	r5, #404	; 0x194
     864:	442f7265 	strtmi	r7, [pc], #-613	; 86c <_start-0x7794>
     868:	432f7665 			; <UNDEFINED> instruction: 0x432f7665
     86c:	30343253 	eorscc	r3, r4, r3, asr r2
     870:	6c2f2f58 	stcvs	15, cr2, [pc], #-352	; 718 <_start-0x78e8>
     874:	69706269 	ldmdbvs	r0!, {r0, r3, r5, r6, r9, sp, lr}^
     878:	636e692f 	cmnvs	lr, #770048	; 0xbc000
     87c:	6564756c 	strbvs	r7, [r4, #-1388]!	; 0xfffffa94
     880:	75700000 	ldrbvc	r0, [r0, #-0]!
     884:	632e6b74 			; <UNDEFINED> instruction: 0x632e6b74
     888:	00000100 	andeq	r0, r0, r0, lsl #2
     88c:	6b636f6c 	blvs	18dc644 <__bss_end__+0x18d2bdc>
     890:	0200682e 	andeq	r6, r0, #3014656	; 0x2e0000
     894:	745f0000 	ldrbvc	r0, [pc], #-0	; 89c <_start-0x7764>
     898:	73657079 	cmnvc	r5, #121	; 0x79
     89c:	0200682e 	andeq	r6, r0, #3014656	; 0x2e0000
     8a0:	74730000 	ldrbtvc	r0, [r3], #-0
     8a4:	66656464 	strbtvs	r6, [r5], -r4, ror #8
     8a8:	0300682e 	movweq	r6, #2094	; 0x82e
     8ac:	65720000 	ldrbvs	r0, [r2, #-0]!
     8b0:	2e746e65 	cdpcs	14, 7, cr6, cr4, cr5, {3}
     8b4:	00020068 	andeq	r0, r2, r8, rrx
     8b8:	69707200 	ldmdbvs	r0!, {r9, ip, sp, lr}^
     8bc:	0400682e 	streq	r6, [r0], #-2094	; 0xfffff7d2
     8c0:	00000000 	andeq	r0, r0, r0
     8c4:	8d480205 	sfmhi	f0, 2, [r8, #-20]	; 0xffffffec
     8c8:	4b150000 	blmi	5408d0 <__bss_end__+0x536e68>
     8cc:	02040200 	andeq	r0, r4, #0, 4
     8d0:	0402002f 	streq	r0, [r2], #-47	; 0xffffffd1
     8d4:	02006502 	andeq	r6, r0, #8388608	; 0x800000
     8d8:	2e060104 	adfcss	f0, f6, f4
     8dc:	06026b06 	streq	r6, [r2], -r6, lsl #22
     8e0:	d9010100 	stmdble	r1, {r8}
     8e4:	02000000 	andeq	r0, r0, #0
     8e8:	0000c100 	andeq	ip, r0, r0, lsl #2
     8ec:	fb010200 	blx	410f6 <__bss_end__+0x3768e>
     8f0:	01000d0e 	tsteq	r0, lr, lsl #26
     8f4:	00010101 	andeq	r0, r1, r1, lsl #2
     8f8:	00010000 	andeq	r0, r1, r0
     8fc:	696c0100 	stmdbvs	ip!, {r8}^
     900:	2f006362 	svccs	0x00006362
     904:	2f727375 	svccs	0x00727375
     908:	6c636e69 	stclvs	14, cr6, [r3], #-420	; 0xfffffe5c
     90c:	2f656475 	svccs	0x00656475
     910:	6c77656e 	cfldr64vs	mvdx6, [r7], #-440	; 0xfffffe48
     914:	732f6269 			; <UNDEFINED> instruction: 0x732f6269
     918:	2f007379 	svccs	0x00007379
     91c:	2f727375 	svccs	0x00727375
     920:	2f62696c 	svccs	0x0062696c
     924:	2f636367 	svccs	0x00636367
     928:	2d6d7261 	sfmcs	f7, 2, [sp, #-388]!	; 0xfffffe7c
     92c:	656e6f6e 	strbvs	r6, [lr, #-3950]!	; 0xfffff092
     930:	6261652d 	rsbvs	r6, r1, #188743680	; 0xb400000
     934:	2e362f69 	cdpcs	15, 3, cr2, cr6, cr9, {3}
     938:	2f312e33 	svccs	0x00312e33
     93c:	6c636e69 	stclvs	14, cr6, [r3], #-420	; 0xfffffe5c
     940:	00656475 	rsbeq	r6, r5, r5, ror r4
     944:	6d6f682f 	stclvs	8, cr6, [pc, #-188]!	; 890 <_start-0x7770>
     948:	73752f65 	cmnvc	r5, #404	; 0x194
     94c:	442f7265 	strtmi	r7, [pc], #-613	; 954 <_start-0x76ac>
     950:	432f7665 			; <UNDEFINED> instruction: 0x432f7665
     954:	30343253 	eorscc	r3, r4, r3, asr r2
     958:	6c2f2f58 	stcvs	15, cr2, [pc], #-352	; 800 <_start-0x7800>
     95c:	69706269 	ldmdbvs	r0!, {r0, r3, r5, r6, r9, sp, lr}^
     960:	636e692f 	cmnvs	lr, #770048	; 0xbc000
     964:	6564756c 	strbvs	r7, [r4, #-1388]!	; 0xfffffa94
     968:	75700000 	ldrbvc	r0, [r0, #-0]!
     96c:	61686374 	smcvs	34356	; 0x8634
     970:	00632e72 	rsbeq	r2, r3, r2, ror lr
     974:	6c000001 	stcvs	0, cr0, [r0], {1}
     978:	2e6b636f 	cdpcs	3, 6, cr6, cr11, cr15, {3}
     97c:	00020068 	andeq	r0, r2, r8, rrx
     980:	79745f00 	ldmdbvc	r4!, {r8, r9, sl, fp, ip, lr}^
     984:	2e736570 	mrccs	5, 3, r6, cr3, cr0, {3}
     988:	00020068 	andeq	r0, r2, r8, rrx
     98c:	64747300 	ldrbtvs	r7, [r4], #-768	; 0xfffffd00
     990:	2e666564 	cdpcs	5, 6, cr6, cr6, cr4, {3}
     994:	00030068 	andeq	r0, r3, r8, rrx
     998:	65657200 	strbvs	r7, [r5, #-512]!	; 0xfffffe00
     99c:	682e746e 	stmdavs	lr!, {r1, r2, r3, r5, r6, sl, ip, sp, lr}
     9a0:	00000200 	andeq	r0, r0, r0, lsl #4
     9a4:	2e697072 	mcrcs	0, 3, r7, cr9, cr2, {3}
     9a8:	00040068 	andeq	r0, r4, r8, rrx
     9ac:	05000000 	streq	r0, [r0, #-0]
     9b0:	008d7c02 	addeq	r7, sp, r2, lsl #24
     9b4:	6b4a1400 	blvs	12859bc <__bss_end__+0x127bf54>
     9b8:	0213bc13 	andseq	fp, r3, #4864	; 0x1300
     9bc:	01010008 	tsteq	r1, r8
     9c0:	000000ca 	andeq	r0, r0, sl, asr #1
     9c4:	00b20002 	adcseq	r0, r2, r2
     9c8:	01020000 	mrseq	r0, (UNDEF: 2)
     9cc:	000d0efb 	strdeq	r0, [sp], -fp
     9d0:	01010101 	tsteq	r1, r1, lsl #2
     9d4:	01000000 	mrseq	r0, (UNDEF: 0)
     9d8:	6c010000 	stcvs	0, cr0, [r1], {-0}
     9dc:	00636269 	rsbeq	r6, r3, r9, ror #4
     9e0:	7273752f 	rsbsvc	r7, r3, #197132288	; 0xbc00000
     9e4:	62696c2f 	rsbvs	r6, r9, #12032	; 0x2f00
     9e8:	6363672f 	cmnvs	r3, #12320768	; 0xbc0000
     9ec:	6d72612f 	ldfvse	f6, [r2, #-188]!	; 0xffffff44
     9f0:	6e6f6e2d 	cdpvs	14, 6, cr6, cr15, cr13, {1}
     9f4:	61652d65 	cmnvs	r5, r5, ror #26
     9f8:	362f6962 	strtcc	r6, [pc], -r2, ror #18
     9fc:	312e332e 			; <UNDEFINED> instruction: 0x312e332e
     a00:	636e692f 	cmnvs	lr, #770048	; 0xbc000
     a04:	6564756c 	strbvs	r7, [r4, #-1388]!	; 0xfffffa94
     a08:	73752f00 	cmnvc	r5, #0, 30
     a0c:	6e692f72 	mcrvs	15, 3, r2, cr9, cr2, {3}
     a10:	64756c63 	ldrbtvs	r6, [r5], #-3171	; 0xfffff39d
     a14:	656e2f65 	strbvs	r2, [lr, #-3941]!	; 0xfffff09b
     a18:	62696c77 	rsbvs	r6, r9, #30464	; 0x7700
     a1c:	7379732f 	cmnvc	r9, #-1140850688	; 0xbc000000
     a20:	73752f00 	cmnvc	r5, #0, 30
     a24:	6e692f72 	mcrvs	15, 3, r2, cr9, cr2, {3}
     a28:	64756c63 	ldrbtvs	r6, [r5], #-3171	; 0xfffff39d
     a2c:	656e2f65 	strbvs	r2, [lr, #-3941]!	; 0xfffff09b
     a30:	62696c77 	rsbvs	r6, r9, #30464	; 0x7700
     a34:	656d0000 	strbvs	r0, [sp, #-0]!
     a38:	7465736d 	strbtvc	r7, [r5], #-877	; 0xfffffc93
     a3c:	0100632e 	tsteq	r0, lr, lsr #6
     a40:	74730000 	ldrbtvc	r0, [r3], #-0
     a44:	66656464 	strbtvs	r6, [r5], -r4, ror #8
     a48:	0200682e 	andeq	r6, r0, #3014656	; 0x2e0000
     a4c:	6f6c0000 	svcvs	0x006c0000
     a50:	682e6b63 	stmdavs	lr!, {r0, r1, r5, r6, r8, r9, fp, sp, lr}
     a54:	00000300 	andeq	r0, r0, r0, lsl #6
     a58:	7079745f 	rsbsvc	r7, r9, pc, asr r4
     a5c:	682e7365 	stmdavs	lr!, {r0, r2, r5, r6, r8, r9, ip, sp, lr}
     a60:	00000300 	andeq	r0, r0, r0, lsl #6
     a64:	6e656572 	mcrvs	5, 3, r6, cr5, cr2, {3}
     a68:	00682e74 	rsbeq	r2, r8, r4, ror lr
     a6c:	73000003 	movwvc	r0, #3
     a70:	6e697274 	mcrvs	2, 3, r7, cr9, cr4, {3}
     a74:	00682e67 	rsbeq	r2, r8, r7, ror #28
     a78:	00000004 	andeq	r0, r0, r4
     a7c:	b8020500 	stmdalt	r2, {r8, sl}
     a80:	1400008d 	strne	r0, [r0], #-141	; 0xffffff73
     a84:	492f4c13 	stmdbmi	pc!, {r0, r1, r4, sl, fp, lr}	; <UNPREDICTABLE>
     a88:	0002024d 	andeq	r0, r2, sp, asr #4
     a8c:	00e20101 	rsceq	r0, r2, r1, lsl #2
     a90:	00020000 	andeq	r0, r2, r0
     a94:	000000c5 	andeq	r0, r0, r5, asr #1
     a98:	0efb0102 	cdpeq	1, 15, cr0, cr11, cr2, {0}
     a9c:	0101000d 	tsteq	r1, sp
     aa0:	00000101 	andeq	r0, r0, r1, lsl #2
     aa4:	00000100 	andeq	r0, r0, r0, lsl #2
     aa8:	61747301 	cmnvs	r4, r1, lsl #6
     aac:	732d6666 			; <UNDEFINED> instruction: 0x732d6666
     ab0:	2f006372 	svccs	0x00006372
     ab4:	2f727375 	svccs	0x00727375
     ab8:	6c636e69 	stclvs	14, cr6, [r3], #-420	; 0xfffffe5c
     abc:	2f656475 	svccs	0x00656475
     ac0:	6c77656e 	cfldr64vs	mvdx6, [r7], #-440	; 0xfffffe48
     ac4:	732f6269 			; <UNDEFINED> instruction: 0x732f6269
     ac8:	2f007379 	svccs	0x00007379
     acc:	2f727375 	svccs	0x00727375
     ad0:	2f62696c 	svccs	0x0062696c
     ad4:	2f636367 	svccs	0x00636367
     ad8:	2d6d7261 	sfmcs	f7, 2, [sp, #-388]!	; 0xfffffe7c
     adc:	656e6f6e 	strbvs	r6, [lr, #-3950]!	; 0xfffff092
     ae0:	6261652d 	rsbvs	r6, r1, #188743680	; 0xb400000
     ae4:	2e362f69 	cdpcs	15, 3, cr2, cr6, cr9, {3}
     ae8:	2f312e33 	svccs	0x00312e33
     aec:	6c636e69 	stclvs	14, cr6, [r3], #-420	; 0xfffffe5c
     af0:	00656475 	rsbeq	r6, r5, r5, ror r4
     af4:	6d6f682f 	stclvs	8, cr6, [pc, #-188]!	; a40 <_start-0x75c0>
     af8:	73752f65 	cmnvc	r5, #404	; 0x194
     afc:	442f7265 	strtmi	r7, [pc], #-613	; b04 <_start-0x74fc>
     b00:	432f7665 			; <UNDEFINED> instruction: 0x432f7665
     b04:	30343253 	eorscc	r3, r4, r3, asr r2
     b08:	6c2f2f58 	stcvs	15, cr2, [pc], #-352	; 9b0 <_start-0x7650>
     b0c:	69706269 	ldmdbvs	r0!, {r0, r3, r5, r6, r9, sp, lr}^
     b10:	636e692f 	cmnvs	lr, #770048	; 0xbc000
     b14:	6564756c 	strbvs	r7, [r4, #-1388]!	; 0xfffffa94
     b18:	73630000 	cmnvc	r3, #0
     b1c:	74726174 	ldrbtvc	r6, [r2], #-372	; 0xfffffe8c
     b20:	0100632e 	tsteq	r0, lr, lsr #6
     b24:	6f6c0000 	svcvs	0x006c0000
     b28:	682e6b63 	stmdavs	lr!, {r0, r1, r5, r6, r8, r9, fp, sp, lr}
     b2c:	00000200 	andeq	r0, r0, r0, lsl #4
     b30:	7079745f 	rsbsvc	r7, r9, pc, asr r4
     b34:	682e7365 	stmdavs	lr!, {r0, r2, r5, r6, r8, r9, ip, sp, lr}
     b38:	00000200 	andeq	r0, r0, r0, lsl #4
     b3c:	64647473 	strbtvs	r7, [r4], #-1139	; 0xfffffb8d
     b40:	682e6665 	stmdavs	lr!, {r0, r2, r5, r6, r9, sl, sp, lr}
     b44:	00000300 	andeq	r0, r0, r0, lsl #6
     b48:	6e656572 	mcrvs	5, 3, r6, cr5, cr2, {3}
     b4c:	00682e74 	rsbeq	r2, r8, r4, ror lr
     b50:	72000002 	andvc	r0, r0, #2
     b54:	682e6970 	stmdavs	lr!, {r4, r5, r6, r8, fp, sp, lr}
     b58:	00000400 	andeq	r0, r0, r0, lsl #8
     b5c:	02050000 	andeq	r0, r5, #0
     b60:	00008dd8 	ldrdeq	r8, [r0], -r8	; <UNPREDICTABLE>
     b64:	32010c03 	andcc	r0, r1, #768	; 0x300
     b68:	03652f31 	cmneq	r5, #49, 30	; 0xc4
     b6c:	022f6615 	eoreq	r6, pc, #22020096	; 0x1500000
     b70:	01010006 	tsteq	r1, r6
     b74:	000000e9 	andeq	r0, r0, r9, ror #1
     b78:	00c50002 	sbceq	r0, r5, r2
     b7c:	01020000 	mrseq	r0, (UNDEF: 2)
     b80:	000d0efb 	strdeq	r0, [sp], -fp
     b84:	01010101 	tsteq	r1, r1, lsl #2
     b88:	01000000 	mrseq	r0, (UNDEF: 0)
     b8c:	73010000 	movwvc	r0, #4096	; 0x1000
     b90:	66666174 			; <UNDEFINED> instruction: 0x66666174
     b94:	6372732d 	cmnvs	r2, #-1275068416	; 0xb4000000
     b98:	73752f00 	cmnvc	r5, #0, 30
     b9c:	6e692f72 	mcrvs	15, 3, r2, cr9, cr2, {3}
     ba0:	64756c63 	ldrbtvs	r6, [r5], #-3171	; 0xfffff39d
     ba4:	656e2f65 	strbvs	r2, [lr, #-3941]!	; 0xfffff09b
     ba8:	62696c77 	rsbvs	r6, r9, #30464	; 0x7700
     bac:	7379732f 	cmnvc	r9, #-1140850688	; 0xbc000000
     bb0:	73752f00 	cmnvc	r5, #0, 30
     bb4:	696c2f72 	stmdbvs	ip!, {r1, r4, r5, r6, r8, r9, sl, fp, sp}^
     bb8:	63672f62 	cmnvs	r7, #392	; 0x188
     bbc:	72612f63 	rsbvc	r2, r1, #396	; 0x18c
     bc0:	6f6e2d6d 	svcvs	0x006e2d6d
     bc4:	652d656e 	strvs	r6, [sp, #-1390]!	; 0xfffffa92
     bc8:	2f696261 	svccs	0x00696261
     bcc:	2e332e36 	mrccs	14, 1, r2, cr3, cr6, {1}
     bd0:	6e692f31 	mcrvs	15, 3, r2, cr9, cr1, {1}
     bd4:	64756c63 	ldrbtvs	r6, [r5], #-3171	; 0xfffff39d
     bd8:	682f0065 	stmdavs	pc!, {r0, r2, r5, r6}	; <UNPREDICTABLE>
     bdc:	2f656d6f 	svccs	0x00656d6f
     be0:	72657375 	rsbvc	r7, r5, #-738197503	; 0xd4000001
     be4:	7665442f 	strbtvc	r4, [r5], -pc, lsr #8
     be8:	3253432f 	subscc	r4, r3, #-1140850688	; 0xbc000000
     bec:	2f583034 	svccs	0x00583034
     bf0:	62696c2f 	rsbvs	r6, r9, #12032	; 0x2f00
     bf4:	692f6970 	stmdbvs	pc!, {r4, r5, r6, r8, fp, sp, lr}	; <UNPREDICTABLE>
     bf8:	756c636e 	strbvc	r6, [ip, #-878]!	; 0xfffffc92
     bfc:	00006564 	andeq	r6, r0, r4, ror #10
     c00:	6f626572 	svcvs	0x00626572
     c04:	632e746f 			; <UNDEFINED> instruction: 0x632e746f
     c08:	00000100 	andeq	r0, r0, r0, lsl #2
     c0c:	6b636f6c 	blvs	18dc9c4 <__bss_end__+0x18d2f5c>
     c10:	0200682e 	andeq	r6, r0, #3014656	; 0x2e0000
     c14:	745f0000 	ldrbvc	r0, [pc], #-0	; c1c <_start-0x73e4>
     c18:	73657079 	cmnvc	r5, #121	; 0x79
     c1c:	0200682e 	andeq	r6, r0, #3014656	; 0x2e0000
     c20:	74730000 	ldrbtvc	r0, [r3], #-0
     c24:	66656464 	strbtvs	r6, [r5], -r4, ror #8
     c28:	0300682e 	movweq	r6, #2094	; 0x82e
     c2c:	65720000 	ldrbvs	r0, [r2, #-0]!
     c30:	2e746e65 	cdpcs	14, 7, cr6, cr4, cr5, {3}
     c34:	00020068 	andeq	r0, r2, r8, rrx
     c38:	69707200 	ldmdbvs	r0!, {r9, ip, sp, lr}^
     c3c:	0400682e 	streq	r6, [r0], #-2094	; 0xfffff7d2
     c40:	00000000 	andeq	r0, r0, r0
     c44:	8e0c0205 	cdphi	2, 0, cr0, cr12, cr5, {0}
     c48:	0d030000 	stceq	0, cr0, [r3, #-0]
     c4c:	2f311401 	svccs	0x00311401
     c50:	4b2f1585 	blmi	bc626c <__bss_end__+0xbbc804>
     c54:	526e2f4d 	rsbpl	r2, lr, #308	; 0x134
     c58:	82700367 	rsbshi	r0, r0, #-1677721599	; 0x9c000001
     c5c:	01000c02 	tsteq	r0, r2, lsl #24
     c60:	0000e101 	andeq	lr, r0, r1, lsl #2
     c64:	cb000200 	blgt	146c <_start-0x6b94>
     c68:	02000000 	andeq	r0, r0, #0
     c6c:	0d0efb01 	vstreq	d15, [lr, #-4]
     c70:	01010100 	mrseq	r0, (UNDEF: 17)
     c74:	00000001 	andeq	r0, r0, r1
     c78:	01000001 	tsteq	r0, r1
     c7c:	66617473 			; <UNDEFINED> instruction: 0x66617473
     c80:	72732d66 	rsbsvc	r2, r3, #6528	; 0x1980
     c84:	752f0063 	strvc	r0, [pc, #-99]!	; c29 <_start-0x73d7>
     c88:	692f7273 	stmdbvs	pc!, {r0, r1, r4, r5, r6, r9, ip, sp, lr}	; <UNPREDICTABLE>
     c8c:	756c636e 	strbvc	r6, [ip, #-878]!	; 0xfffffc92
     c90:	6e2f6564 	cfsh64vs	mvdx6, mvdx15, #52
     c94:	696c7765 	stmdbvs	ip!, {r0, r2, r5, r6, r8, r9, sl, ip, sp, lr}^
     c98:	79732f62 	ldmdbvc	r3!, {r1, r5, r6, r8, r9, sl, fp, sp}^
     c9c:	752f0073 	strvc	r0, [pc, #-115]!	; c31 <_start-0x73cf>
     ca0:	6c2f7273 	sfmvs	f7, 4, [pc], #-460	; adc <_start-0x7524>
     ca4:	672f6269 	strvs	r6, [pc, -r9, ror #4]!
     ca8:	612f6363 			; <UNDEFINED> instruction: 0x612f6363
     cac:	6e2d6d72 	mcrvs	13, 1, r6, cr13, cr2, {3}
     cb0:	2d656e6f 	stclcs	14, cr6, [r5, #-444]!	; 0xfffffe44
     cb4:	69626165 	stmdbvs	r2!, {r0, r2, r5, r6, r8, sp, lr}^
     cb8:	332e362f 			; <UNDEFINED> instruction: 0x332e362f
     cbc:	692f312e 	stmdbvs	pc!, {r1, r2, r3, r5, r8, ip, sp}	; <UNPREDICTABLE>
     cc0:	756c636e 	strbvc	r6, [ip, #-878]!	; 0xfffffc92
     cc4:	2f006564 	svccs	0x00006564
     cc8:	656d6f68 	strbvs	r6, [sp, #-3944]!	; 0xfffff098
     ccc:	6573752f 	ldrbvs	r7, [r3, #-1327]!	; 0xfffffad1
     cd0:	65442f72 	strbvs	r2, [r4, #-3954]	; 0xfffff08e
     cd4:	53432f76 	movtpl	r2, #16246	; 0x3f76
     cd8:	58303432 	ldmdapl	r0!, {r1, r4, r5, sl, ip, sp}
     cdc:	696c2f2f 	stmdbvs	ip!, {r0, r1, r2, r3, r5, r8, r9, sl, fp, sp}^
     ce0:	2f697062 	svccs	0x00697062
     ce4:	6c636e69 	stclvs	14, cr6, [r3], #-420	; 0xfffffe5c
     ce8:	00656475 	rsbeq	r6, r5, r5, ror r4
     cec:	656c6300 	strbvs	r6, [ip, #-768]!	; 0xfffffd00
     cf0:	722d6e61 	eorvc	r6, sp, #1552	; 0x610
     cf4:	6f6f6265 	svcvs	0x006f6265
     cf8:	00632e74 	rsbeq	r2, r3, r4, ror lr
     cfc:	6c000001 	stcvs	0, cr0, [r0], {1}
     d00:	2e6b636f 	cdpcs	3, 6, cr6, cr11, cr15, {3}
     d04:	00020068 	andeq	r0, r2, r8, rrx
     d08:	79745f00 	ldmdbvc	r4!, {r8, r9, sl, fp, ip, lr}^
     d0c:	2e736570 	mrccs	5, 3, r6, cr3, cr0, {3}
     d10:	00020068 	andeq	r0, r2, r8, rrx
     d14:	64747300 	ldrbtvs	r7, [r4], #-768	; 0xfffffd00
     d18:	2e666564 	cdpcs	5, 6, cr6, cr6, cr4, {3}
     d1c:	00030068 	andeq	r0, r3, r8, rrx
     d20:	65657200 	strbvs	r7, [r5, #-512]!	; 0xfffffe00
     d24:	682e746e 	stmdavs	lr!, {r1, r2, r3, r5, r6, sl, ip, sp, lr}
     d28:	00000200 	andeq	r0, r0, r0, lsl #4
     d2c:	2e697072 	mcrcs	0, 3, r7, cr9, cr2, {3}
     d30:	00040068 	andeq	r0, r4, r8, rrx
     d34:	05000000 	streq	r0, [r0, #-0]
     d38:	008e8402 	addeq	r8, lr, r2, lsl #8
     d3c:	832f1500 			; <UNDEFINED> instruction: 0x832f1500
     d40:	0006024b 	andeq	r0, r6, fp, asr #4
     d44:	00ea0101 	rsceq	r0, sl, r1, lsl #2
     d48:	00020000 	andeq	r0, r2, r0
     d4c:	000000c4 	andeq	r0, r0, r4, asr #1
     d50:	0efb0102 	cdpeq	1, 15, cr0, cr11, cr2, {0}
     d54:	0101000d 	tsteq	r1, sp
     d58:	00000101 	andeq	r0, r0, r1, lsl #2
     d5c:	00000100 	andeq	r0, r0, r0, lsl #2
     d60:	61747301 	cmnvs	r4, r1, lsl #6
     d64:	732d6666 			; <UNDEFINED> instruction: 0x732d6666
     d68:	2f006372 	svccs	0x00006372
     d6c:	2f727375 	svccs	0x00727375
     d70:	6c636e69 	stclvs	14, cr6, [r3], #-420	; 0xfffffe5c
     d74:	2f656475 	svccs	0x00656475
     d78:	6c77656e 	cfldr64vs	mvdx6, [r7], #-440	; 0xfffffe48
     d7c:	732f6269 			; <UNDEFINED> instruction: 0x732f6269
     d80:	2f007379 	svccs	0x00007379
     d84:	2f727375 	svccs	0x00727375
     d88:	2f62696c 	svccs	0x0062696c
     d8c:	2f636367 	svccs	0x00636367
     d90:	2d6d7261 	sfmcs	f7, 2, [sp, #-388]!	; 0xfffffe7c
     d94:	656e6f6e 	strbvs	r6, [lr, #-3950]!	; 0xfffff092
     d98:	6261652d 	rsbvs	r6, r1, #188743680	; 0xb400000
     d9c:	2e362f69 	cdpcs	15, 3, cr2, cr6, cr9, {3}
     da0:	2f312e33 	svccs	0x00312e33
     da4:	6c636e69 	stclvs	14, cr6, [r3], #-420	; 0xfffffe5c
     da8:	00656475 	rsbeq	r6, r5, r5, ror r4
     dac:	6d6f682f 	stclvs	8, cr6, [pc, #-188]!	; cf8 <_start-0x7308>
     db0:	73752f65 	cmnvc	r5, #404	; 0x194
     db4:	442f7265 	strtmi	r7, [pc], #-613	; dbc <_start-0x7244>
     db8:	432f7665 			; <UNDEFINED> instruction: 0x432f7665
     dbc:	30343253 	eorscc	r3, r4, r3, asr r2
     dc0:	6c2f2f58 	stcvs	15, cr2, [pc], #-352	; c68 <_start-0x7398>
     dc4:	69706269 	ldmdbvs	r0!, {r0, r3, r5, r6, r9, sp, lr}^
     dc8:	636e692f 	cmnvs	lr, #770048	; 0xbc000
     dcc:	6564756c 	strbvs	r7, [r4, #-1388]!	; 0xfffffa94
     dd0:	69740000 	ldmdbvs	r4!, {}^	; <UNPREDICTABLE>
     dd4:	2e72656d 	cdpcs	5, 7, cr6, cr2, cr13, {3}
     dd8:	00010063 	andeq	r0, r1, r3, rrx
     ddc:	636f6c00 	cmnvs	pc, #0, 24
     de0:	00682e6b 	rsbeq	r2, r8, fp, ror #28
     de4:	5f000002 	svcpl	0x00000002
     de8:	65707974 	ldrbvs	r7, [r0, #-2420]!	; 0xfffff68c
     dec:	00682e73 	rsbeq	r2, r8, r3, ror lr
     df0:	73000002 	movwvc	r0, #2
     df4:	65646474 	strbvs	r6, [r4, #-1140]!	; 0xfffffb8c
     df8:	00682e66 	rsbeq	r2, r8, r6, ror #28
     dfc:	72000003 	andvc	r0, r0, #3
     e00:	746e6565 	strbtvc	r6, [lr], #-1381	; 0xfffffa9b
     e04:	0200682e 	andeq	r6, r0, #3014656	; 0x2e0000
     e08:	70720000 	rsbsvc	r0, r2, r0
     e0c:	00682e69 	rsbeq	r2, r8, r9, ror #28
     e10:	00000004 	andeq	r0, r0, r4
     e14:	ac020500 	cfstr32ge	mvfx0, [r2], {-0}
     e18:	1600008e 	strne	r0, [r0], -lr, lsl #1
     e1c:	892d2f14 	pushhi	{r2, r4, r8, r9, sl, fp, sp}
     e20:	4d4b2f31 	stclmi	15, cr2, [fp, #-196]	; 0xffffff3c
     e24:	4b303132 	blmi	c0d2f4 <__bss_end__+0xc0388c>
     e28:	2f6a2f4c 	svccs	0x006a2f4c
     e2c:	022f842f 	eoreq	r8, pc, #788529152	; 0x2f000000
     e30:	01010008 	tsteq	r1, r8
     e34:	00000148 	andeq	r0, r0, r8, asr #2
     e38:	01020002 	tsteq	r2, r2
     e3c:	01020000 	mrseq	r0, (UNDEF: 2)
     e40:	000d0efb 	strdeq	r0, [sp], -fp
     e44:	01010101 	tsteq	r1, r1, lsl #2
     e48:	01000000 	mrseq	r0, (UNDEF: 0)
     e4c:	2f010000 	svccs	0x00010000
     e50:	2f727375 	svccs	0x00727375
     e54:	6c636e69 	stclvs	14, cr6, [r3], #-420	; 0xfffffe5c
     e58:	2f656475 	svccs	0x00656475
     e5c:	6c77656e 	cfldr64vs	mvdx6, [r7], #-440	; 0xfffffe48
     e60:	732f6269 			; <UNDEFINED> instruction: 0x732f6269
     e64:	2f007379 	svccs	0x00007379
     e68:	2f727375 	svccs	0x00727375
     e6c:	2f62696c 	svccs	0x0062696c
     e70:	2f636367 	svccs	0x00636367
     e74:	2d6d7261 	sfmcs	f7, 2, [sp, #-388]!	; 0xfffffe7c
     e78:	656e6f6e 	strbvs	r6, [lr, #-3950]!	; 0xfffff092
     e7c:	6261652d 	rsbvs	r6, r1, #188743680	; 0xb400000
     e80:	2e362f69 	cdpcs	15, 3, cr2, cr6, cr9, {3}
     e84:	2f312e33 	svccs	0x00312e33
     e88:	6c636e69 	stclvs	14, cr6, [r3], #-420	; 0xfffffe5c
     e8c:	00656475 	rsbeq	r6, r5, r5, ror r4
     e90:	6d6f682f 	stclvs	8, cr6, [pc, #-188]!	; ddc <_start-0x7224>
     e94:	6e652f65 	cdpvs	15, 6, cr2, cr5, cr5, {3}
     e98:	72656c67 	rsbvc	r6, r5, #26368	; 0x6700
     e9c:	616c632f 	cmnvs	ip, pc, lsr #6
     ea0:	632f7373 			; <UNDEFINED> instruction: 0x632f7373
     ea4:	30343273 	eorscc	r3, r4, r3, ror r2
     ea8:	322d786c 	eorcc	r7, sp, #108, 16	; 0x6c0000
     eac:	72707330 	rsbsvc	r7, r0, #48, 6	; 0xc0000000
     eb0:	696c2f2f 	stmdbvs	ip!, {r0, r1, r2, r3, r5, r8, r9, sl, fp, sp}^
     eb4:	00697062 	rsbeq	r7, r9, r2, rrx
     eb8:	6d6f682f 	stclvs	8, cr6, [pc, #-188]!	; e04 <_start-0x71fc>
     ebc:	6e652f65 	cdpvs	15, 6, cr2, cr5, cr5, {3}
     ec0:	72656c67 	rsbvc	r6, r5, #26368	; 0x6700
     ec4:	616c632f 	cmnvs	ip, pc, lsr #6
     ec8:	632f7373 			; <UNDEFINED> instruction: 0x632f7373
     ecc:	30343273 	eorscc	r3, r4, r3, ror r2
     ed0:	322d786c 	eorcc	r7, sp, #108, 16	; 0x6c0000
     ed4:	72707330 	rsbsvc	r7, r0, #48, 6	; 0xc0000000
     ed8:	696c2f2f 	stmdbvs	ip!, {r0, r1, r2, r3, r5, r8, r9, sl, fp, sp}^
     edc:	2f697062 	svccs	0x00697062
     ee0:	66617473 			; <UNDEFINED> instruction: 0x66617473
     ee4:	72732d66 	rsbsvc	r2, r3, #6528	; 0x1980
     ee8:	75000063 	strvc	r0, [r0, #-99]	; 0xffffff9d
     eec:	2e747261 	cdpcs	2, 7, cr7, cr4, cr1, {3}
     ef0:	00000063 	andeq	r0, r0, r3, rrx
     ef4:	636f6c00 	cmnvs	pc, #0, 24
     ef8:	00682e6b 	rsbeq	r2, r8, fp, ror #28
     efc:	5f000001 	svcpl	0x00000001
     f00:	65707974 	ldrbvs	r7, [r0, #-2420]!	; 0xfffff68c
     f04:	00682e73 	rsbeq	r2, r8, r3, ror lr
     f08:	73000001 	movwvc	r0, #1
     f0c:	65646474 	strbvs	r6, [r4, #-1140]!	; 0xfffffb8c
     f10:	00682e66 	rsbeq	r2, r8, r6, ror #28
     f14:	72000002 	andvc	r0, r0, #2
     f18:	746e6565 	strbtvc	r6, [lr], #-1381	; 0xfffffa9b
     f1c:	0100682e 	tsteq	r0, lr, lsr #16
     f20:	70720000 	rsbsvc	r0, r2, r0
     f24:	00682e69 	rsbeq	r2, r8, r9, ror #28
     f28:	75000003 	strvc	r0, [r0, #-3]
     f2c:	2e747261 	cdpcs	2, 7, cr7, cr4, cr1, {3}
     f30:	00040068 	andeq	r0, r4, r8, rrx
     f34:	69706700 	ldmdbvs	r0!, {r8, r9, sl, sp, lr}^
     f38:	00682e6f 	rsbeq	r2, r8, pc, ror #28
     f3c:	00000004 	andeq	r0, r0, r4
     f40:	80020500 	andhi	r0, r2, r0, lsl #10
     f44:	0300008f 	movweq	r0, #143	; 0x8f
     f48:	0367012c 	cmneq	r7, #44, 2
     f4c:	67359e0c 	ldrvs	r9, [r5, -ip, lsl #28]!
     f50:	03683568 	cmneq	r8, #104, 10	; 0x1a000000
     f54:	6b852e0c 	blvs	fe14c78c <__bss_end__+0xfe142d24>
     f58:	0c036969 			; <UNDEFINED> instruction: 0x0c036969
     f5c:	08676b66 	stmdaeq	r7!, {r1, r2, r5, r6, r8, r9, fp, sp, lr}^
     f60:	4b683442 	blmi	1a0e070 <__bss_end__+0x1a04608>
     f64:	2f876836 	svccs	0x00876836
     f68:	01040200 	mrseq	r0, R12_usr
     f6c:	3067682f 	rsbcc	r6, r7, pc, lsr #16
     f70:	02004b67 	andeq	r4, r0, #105472	; 0x19c00
     f74:	682f0104 	stmdavs	pc!, {r2, r8}	; <UNPREDICTABLE>
     f78:	022e6967 	eoreq	r6, lr, #1687552	; 0x19c000
     f7c:	01010006 	tsteq	r1, r6
     f80:	0000012b 	andeq	r0, r0, fp, lsr #2
     f84:	00f80002 	rscseq	r0, r8, r2
     f88:	01020000 	mrseq	r0, (UNDEF: 2)
     f8c:	000d0efb 	strdeq	r0, [sp], -fp
     f90:	01010101 	tsteq	r1, r1, lsl #2
     f94:	01000000 	mrseq	r0, (UNDEF: 0)
     f98:	2f010000 	svccs	0x00010000
     f9c:	2f727375 	svccs	0x00727375
     fa0:	6c636e69 	stclvs	14, cr6, [r3], #-420	; 0xfffffe5c
     fa4:	2f656475 	svccs	0x00656475
     fa8:	6c77656e 	cfldr64vs	mvdx6, [r7], #-440	; 0xfffffe48
     fac:	732f6269 			; <UNDEFINED> instruction: 0x732f6269
     fb0:	2f007379 	svccs	0x00007379
     fb4:	2f727375 	svccs	0x00727375
     fb8:	2f62696c 	svccs	0x0062696c
     fbc:	2f636367 	svccs	0x00636367
     fc0:	2d6d7261 	sfmcs	f7, 2, [sp, #-388]!	; 0xfffffe7c
     fc4:	656e6f6e 	strbvs	r6, [lr, #-3950]!	; 0xfffff092
     fc8:	6261652d 	rsbvs	r6, r1, #188743680	; 0xb400000
     fcc:	2e362f69 	cdpcs	15, 3, cr2, cr6, cr9, {3}
     fd0:	2f312e33 	svccs	0x00312e33
     fd4:	6c636e69 	stclvs	14, cr6, [r3], #-420	; 0xfffffe5c
     fd8:	00656475 	rsbeq	r6, r5, r5, ror r4
     fdc:	6d6f682f 	stclvs	8, cr6, [pc, #-188]!	; f28 <_start-0x70d8>
     fe0:	6e652f65 	cdpvs	15, 6, cr2, cr5, cr5, {3}
     fe4:	72656c67 	rsbvc	r6, r5, #26368	; 0x6700
     fe8:	616c632f 	cmnvs	ip, pc, lsr #6
     fec:	632f7373 			; <UNDEFINED> instruction: 0x632f7373
     ff0:	30343273 	eorscc	r3, r4, r3, ror r2
     ff4:	322d786c 	eorcc	r7, sp, #108, 16	; 0x6c0000
     ff8:	72707330 	rsbsvc	r7, r0, #48, 6	; 0xc0000000
     ffc:	696c2f2f 	stmdbvs	ip!, {r0, r1, r2, r3, r5, r8, r9, sl, fp, sp}^
    1000:	00697062 	rsbeq	r7, r9, r2, rrx
    1004:	6d6f682f 	stclvs	8, cr6, [pc, #-188]!	; f50 <_start-0x70b0>
    1008:	6e652f65 	cdpvs	15, 6, cr2, cr5, cr5, {3}
    100c:	72656c67 	rsbvc	r6, r5, #26368	; 0x6700
    1010:	616c632f 	cmnvs	ip, pc, lsr #6
    1014:	632f7373 			; <UNDEFINED> instruction: 0x632f7373
    1018:	30343273 	eorscc	r3, r4, r3, ror r2
    101c:	322d786c 	eorcc	r7, sp, #108, 16	; 0x6c0000
    1020:	72707330 	rsbsvc	r7, r0, #48, 6	; 0xc0000000
    1024:	696c2f2f 	stmdbvs	ip!, {r0, r1, r2, r3, r5, r8, r9, sl, fp, sp}^
    1028:	2f697062 	svccs	0x00697062
    102c:	66617473 			; <UNDEFINED> instruction: 0x66617473
    1030:	72732d66 	rsbsvc	r2, r3, #6528	; 0x1980
    1034:	67000063 	strvs	r0, [r0, -r3, rrx]
    1038:	2e6f6970 			; <UNDEFINED> instruction: 0x2e6f6970
    103c:	00000063 	andeq	r0, r0, r3, rrx
    1040:	636f6c00 	cmnvs	pc, #0, 24
    1044:	00682e6b 	rsbeq	r2, r8, fp, ror #28
    1048:	5f000001 	svcpl	0x00000001
    104c:	65707974 	ldrbvs	r7, [r0, #-2420]!	; 0xfffff68c
    1050:	00682e73 	rsbeq	r2, r8, r3, ror lr
    1054:	73000001 	movwvc	r0, #1
    1058:	65646474 	strbvs	r6, [r4, #-1140]!	; 0xfffffb8c
    105c:	00682e66 	rsbeq	r2, r8, r6, ror #28
    1060:	72000002 	andvc	r0, r0, #2
    1064:	746e6565 	strbtvc	r6, [lr], #-1381	; 0xfffffa9b
    1068:	0100682e 	tsteq	r0, lr, lsr #16
    106c:	70720000 	rsbsvc	r0, r2, r0
    1070:	00682e69 	rsbeq	r2, r8, r9, ror #28
    1074:	67000003 	strvs	r0, [r0, -r3]
    1078:	2e6f6970 			; <UNDEFINED> instruction: 0x2e6f6970
    107c:	00040068 	andeq	r0, r4, r8, rrx
    1080:	05000000 	streq	r0, [r0, #-0]
    1084:	0090f802 	addseq	pc, r0, r2, lsl #16
    1088:	01270300 			; <UNDEFINED> instruction: 0x01270300
    108c:	4f474c13 	svcmi	0x00474c13
    1090:	4c4b68f4 	mcrrmi	8, 15, r6, fp, cr4
    1094:	136a2fa1 	cmnne	sl, #644	; 0x284
    1098:	13be3149 			; <UNDEFINED> instruction: 0x13be3149
    109c:	2fbe3149 	svccs	0x00be3149
    10a0:	484d2f6a 	stmdami	sp, {r1, r3, r5, r6, r8, r9, sl, fp, sp}^
    10a4:	3249134f 	subcc	r1, r9, #1006632961	; 0x3c000001
    10a8:	0602b72f 	streq	fp, [r2], -pc, lsr #14
    10ac:	Address 0x00000000000010ac is out of bounds.


Disassembly of section .debug_str:

00000000 <.debug_str>:
   0:	6f73645f 	svcvs	0x0073645f
   4:	6e61685f 	mcrvs	8, 3, r6, cr1, cr15, {2}
   8:	00656c64 	rsbeq	r6, r5, r4, ror #24
   c:	685f6b63 	ldmdavs	pc, {r0, r1, r5, r6, r8, r9, fp, sp, lr}^	; <UNPREDICTABLE>
  10:	5f706165 	svcpl	0x00706165
  14:	6f727265 	svcvs	0x00727265
  18:	5f007372 	svcpl	0x00007372
  1c:	657a6973 	ldrbvs	r6, [sl, #-2419]!	; 0xfffff68d
  20:	61725f00 	cmnvs	r2, r0, lsl #30
  24:	3834646e 	ldmdacc	r4!, {r1, r2, r3, r5, r6, sl, sp, lr}
  28:	6d655f00 	stclvs	15, cr5, [r5, #-0]
  2c:	65677265 	strbvs	r7, [r7, #-613]!	; 0xfffffd9b
  30:	0079636e 	rsbseq	r6, r9, lr, ror #6
  34:	6d746f6e 	ldclvs	15, cr6, [r4, #-440]!	; 0xfffffe48
  38:	006e6961 	rsbeq	r6, lr, r1, ror #18
  3c:	7263775f 	rsbvc	r7, r3, #24903680	; 0x17c0000
  40:	626d6f74 	rsbvs	r6, sp, #116, 30	; 0x1d0
  44:	6174735f 	cmnvs	r4, pc, asr r3
  48:	5f006574 	svcpl	0x00006574
  4c:	72736377 	rsbsvc	r6, r3, #-603979775	; 0xdc000001
  50:	626d6f74 	rsbvs	r6, sp, #116, 30	; 0x1d0
  54:	74735f73 	ldrbtvc	r5, [r3], #-3955	; 0xfffff08d
  58:	00657461 	rsbeq	r7, r5, r1, ror #8
  5c:	676e6f6c 	strbvs	r6, [lr, -ip, ror #30]!
  60:	6e6f6c20 	cdpvs	12, 6, cr6, cr15, cr0, {1}
  64:	6e752067 	cdpvs	0, 7, cr2, cr5, cr7, {3}
  68:	6e676973 			; <UNDEFINED> instruction: 0x6e676973
  6c:	69206465 	stmdbvs	r0!, {r0, r2, r5, r6, sl, sp, lr}
  70:	6300746e 	movwvs	r7, #1134	; 0x46e
  74:	6c6c616b 	stfvse	f6, [ip], #-428	; 0xfffffe54
  78:	5f00636f 	svcpl	0x0000636f
  7c:	7366626c 	cmnvc	r6, #108, 4	; 0xc0000006
  80:	00657a69 	rsbeq	r7, r5, r9, ror #20
  84:	72626d5f 	rsbvc	r6, r2, #6080	; 0x17c0
  88:	63776f74 	cmnvs	r7, #116, 30	; 0x1d0
  8c:	6174735f 	cmnvs	r4, pc, asr r3
  90:	5f006574 	svcpl	0x00006574
  94:	6f746377 	svcvs	0x00746377
  98:	735f626d 	cmpvc	pc, #-805306362	; 0xd0000006
  9c:	65746174 	ldrbvs	r6, [r4, #-372]!	; 0xfffffe8c
  a0:	745f5f00 	ldrbvc	r5, [pc], #-3840	; a8 <_start-0x7f58>
  a4:	65735f6d 	ldrbvs	r5, [r3, #-3949]!	; 0xfffff093
  a8:	6f6c0063 	svcvs	0x006c0063
  ac:	6c20676e 	stcvs	7, cr6, [r0], #-440	; 0xfffffe48
  b0:	20676e6f 	rsbcs	r6, r7, pc, ror #28
  b4:	00746e69 	rsbseq	r6, r4, r9, ror #28
  b8:	7562755f 	strbvc	r7, [r2, #-1375]!	; 0xfffffaa1
  bc:	625f0066 	subsvs	r0, pc, #102	; 0x66
  c0:	00657361 	rsbeq	r7, r5, r1, ror #6
  c4:	6d745f5f 	ldclvs	15, cr5, [r4, #-380]!	; 0xfffffe84
  c8:	756f685f 	strbvc	r6, [pc, #-2143]!	; fffff871 <__bss_end__+0xffff5e09>
  cc:	682f0072 	stmdavs	pc!, {r1, r4, r5, r6}	; <UNPREDICTABLE>
  d0:	2f656d6f 	svccs	0x00656d6f
  d4:	72657375 	rsbvc	r7, r5, #-738197503	; 0xd4000001
  d8:	7665442f 	strbtvc	r4, [r5], -pc, lsr #8
  dc:	3253432f 	subscc	r4, r3, #-1140850688	; 0xbc000000
  e0:	2f583034 	svccs	0x00583034
  e4:	7362616c 	cmnvc	r2, #108, 2
  e8:	2d30312f 	ldfcss	f3, [r0, #-188]!	; 0xffffff44
  ec:	636d656d 	cmnvs	sp, #457179136	; 0x1b400000
  f0:	6b636568 	blvs	18d9698 <__bss_end__+0x18cfc30>
  f4:	6174732d 	cmnvs	r4, sp, lsr #6
  f8:	6f632f74 	svcvs	0x00632f74
  fc:	5f006564 	svcpl	0x00006564
 100:	0066735f 	rsbeq	r7, r6, pc, asr r3
 104:	5f6e6f5f 	svcpl	0x006e6f5f
 108:	74697865 	strbtvc	r7, [r9], #-2149	; 0xfffff79b
 10c:	6772615f 			; <UNDEFINED> instruction: 0x6772615f
 110:	635f0073 	cmpvs	pc, #115	; 0x73
 114:	696b6f6f 	stmdbvs	fp!, {r0, r1, r2, r3, r5, r6, r8, r9, sl, fp, sp, lr}^
 118:	5f5f0065 	svcpl	0x005f0065
 11c:	756c6773 	strbvc	r6, [ip, #-1907]!	; 0xfffff88d
 120:	665f0065 	ldrbvs	r0, [pc], -r5, rrx
 124:	7367616c 	cmnvc	r7, #108, 2
 128:	73695f00 	cmnvc	r9, #0, 30
 12c:	6178635f 	cmnvs	r8, pc, asr r3
 130:	74735f00 	ldrbtvc	r5, [r3], #-3840	; 0xfffff100
 134:	006e6964 	rsbeq	r6, lr, r4, ror #18
 138:	695f6b63 	ldmdbvs	pc, {r0, r1, r5, r6, r8, r9, fp, sp, lr}^	; <UNPREDICTABLE>
 13c:	0074696e 	rsbseq	r6, r4, lr, ror #18
 140:	6b6c625f 	blvs	1b18ac4 <__bss_end__+0x1b0f05c>
 144:	657a6973 	ldrbvs	r6, [sl, #-2419]!	; 0xfffff68d
 148:	76635f00 	strbtvc	r5, [r3], -r0, lsl #30
 14c:	66756274 			; <UNDEFINED> instruction: 0x66756274
 150:	666f5f00 	strbtvs	r5, [pc], -r0, lsl #30
 154:	74657366 	strbtvc	r7, [r5], #-870	; 0xfffffc9a
 158:	626d5f00 	rsbvs	r5, sp, #0, 30
 15c:	6f747273 	svcvs	0x00747273
 160:	5f736377 	svcpl	0x00736377
 164:	74617473 	strbtvc	r7, [r1], #-1139	; 0xfffffb8d
 168:	6d5f0065 	ldclvs	0, cr0, [pc, #-404]	; ffffffdc <__bss_end__+0xffff6574>
 16c:	656c7262 	strbvs	r7, [ip, #-610]!	; 0xfffffd9e
 170:	74735f6e 	ldrbtvc	r5, [r3], #-3950	; 0xfffff092
 174:	00657461 	rsbeq	r7, r5, r1, ror #8
 178:	616e665f 	cmnvs	lr, pc, asr r6
 17c:	00736772 	rsbseq	r6, r3, r2, ror r7
 180:	736e665f 	cmnvc	lr, #99614720	; 0x5f00000
 184:	69735f00 	ldmdbvs	r3!, {r8, r9, sl, fp, ip, lr}^
 188:	5f006e67 	svcpl	0x00006e67
 18c:	636f6c66 	cmnvs	pc, #26112	; 0x6600
 190:	00745f6b 	rsbseq	r5, r4, fp, ror #30
 194:	6474735f 	ldrbtvs	r7, [r4], #-863	; 0xfffffca1
 198:	00727265 	rsbseq	r7, r2, r5, ror #4
 19c:	6769425f 			; <UNDEFINED> instruction: 0x6769425f
 1a0:	00746e69 	rsbseq	r6, r4, r9, ror #28
 1a4:	6d61675f 	stclvs	7, cr6, [r1, #-380]!	; 0xfffffe84
 1a8:	735f616d 	cmpvc	pc, #1073741851	; 0x4000001b
 1ac:	676e6769 	strbvs	r6, [lr, -r9, ror #14]!
 1b0:	5f006d61 	svcpl	0x00006d61
 1b4:	75736572 	ldrbvc	r6, [r3, #-1394]!	; 0xfffffa8e
 1b8:	6b5f746c 	blvs	17dd370 <__bss_end__+0x17d3908>
 1bc:	69707200 	ldmdbvs	r0!, {r9, ip, sp, lr}^
 1c0:	7475705f 	ldrbtvc	r7, [r5], #-95	; 0xffffffa1
 1c4:	72616863 	rsbvc	r6, r1, #6488064	; 0x630000
 1c8:	745f5f00 	ldrbvc	r5, [pc], #-3840	; 1d0 <_start-0x7e30>
 1cc:	5f5f006d 	svcpl	0x005f006d
 1d0:	62686377 	rsbvs	r6, r8, #-603979775	; 0xdc000001
 1d4:	69707200 	ldmdbvs	r0!, {r9, ip, sp, lr}^
 1d8:	7365725f 	cmnvc	r5, #-268435451	; 0xf0000005
 1dc:	705f7465 	subsvc	r7, pc, r5, ror #8
 1e0:	00637475 	rsbeq	r7, r3, r5, ror r4
 1e4:	6474735f 	ldrbtvs	r7, [r4], #-863	; 0xfffffca1
 1e8:	0074756f 	rsbseq	r7, r4, pc, ror #10
 1ec:	7476635f 	ldrbtvc	r6, [r6], #-863	; 0xfffffca1
 1f0:	006e656c 	rsbeq	r6, lr, ip, ror #10
 1f4:	6c69665f 	stclvs	6, cr6, [r9], #-380	; 0xfffffe84
 1f8:	5f5f0065 	svcpl	0x005f0065
 1fc:	434e5546 	movtmi	r5, #58694	; 0xe546
 200:	4e4f4954 			; <UNDEFINED> instruction: 0x4e4f4954
 204:	5f005f5f 	svcpl	0x00005f5f
 208:	626f696e 	rsbvs	r6, pc, #1802240	; 0x1b8000
 20c:	68730073 	ldmdavs	r3!, {r0, r1, r4, r5, r6}^
 210:	2074726f 	rsbscs	r7, r4, pc, ror #4
 214:	69736e75 	ldmdbvs	r3!, {r0, r2, r4, r5, r6, r9, sl, fp, sp, lr}^
 218:	64656e67 	strbtvs	r6, [r5], #-3687	; 0xfffff199
 21c:	746e6920 	strbtvc	r6, [lr], #-2336	; 0xfffff6e0
 220:	72617000 	rsbvc	r7, r1, #0
 224:	742d3174 	strtvc	r3, [sp], #-372	; 0xfffffe8c
 228:	31747365 	cmncc	r4, r5, ror #6
 22c:	5f00632e 	svcpl	0x0000632e
 230:	78657461 	stmdavc	r5!, {r0, r5, r6, sl, ip, sp, lr}^
 234:	00307469 	eorseq	r7, r0, r9, ror #8
 238:	6769735f 			; <UNDEFINED> instruction: 0x6769735f
 23c:	5f6c616e 	svcpl	0x006c616e
 240:	00667562 	rsbeq	r7, r6, r2, ror #10
 244:	6373615f 	cmnvs	r3, #-1073741801	; 0xc0000017
 248:	656d6974 	strbvs	r6, [sp, #-2420]!	; 0xfffff68c
 24c:	6675625f 			; <UNDEFINED> instruction: 0x6675625f
 250:	65725f00 	ldrbvs	r5, [r2, #-3840]!	; 0xfffff100
 254:	746c7573 	strbtvc	r7, [ip], #-1395	; 0xfffffa8d
 258:	775f5f00 	ldrbvc	r5, [pc, -r0, lsl #30]
 25c:	77006863 	strvc	r6, [r0, -r3, ror #16]
 260:	5f746e69 	svcpl	0x00746e69
 264:	6b630074 	blvs	18c043c <__bss_end__+0x18b69d4>
 268:	65657266 	strbvs	r7, [r5, #-614]!	; 0xfffffd9a
 26c:	6f6c5f00 	svcvs	0x006c5f00
 270:	5f006b63 	svcpl	0x00006b63
 274:	67616c66 	strbvs	r6, [r1, -r6, ror #24]!
 278:	5f003273 	svcpl	0x00003273
 27c:	5f6d745f 	svcpl	0x006d745f
 280:	72616579 	rsbvc	r6, r1, #507510784	; 0x1e400000
 284:	656c6300 	strbvs	r6, [ip, #-768]!	; 0xfffffd00
 288:	725f6e61 	subsvc	r6, pc, #1552	; 0x610
 28c:	6f6f6265 	svcvs	0x006f6265
 290:	69730074 	ldmdbvs	r3!, {r2, r4, r5, r6}^
 294:	7974657a 	ldmdbvc	r4!, {r1, r3, r4, r5, r6, r8, sl, sp, lr}^
 298:	5f006570 	svcpl	0x00006570
 29c:	7478656e 	ldrbtvc	r6, [r8], #-1390	; 0xfffffa92
 2a0:	5f5f0066 	svcpl	0x005f0066
 2a4:	6d5f6d74 	ldclvs	13, cr6, [pc, #-464]	; dc <_start-0x7f24>
 2a8:	5f006e6f 	svcpl	0x00006e6f
 2ac:	78657461 	stmdavc	r5!, {r0, r5, r6, sl, ip, sp, lr}^
 2b0:	5f007469 	svcpl	0x00007469
 2b4:	6964735f 	stmdbvs	r4!, {r0, r1, r2, r3, r4, r6, r8, r9, ip, sp, lr}^
 2b8:	696e6964 	stmdbvs	lr!, {r2, r5, r6, r8, fp, sp, lr}^
 2bc:	6f5f0074 	svcvs	0x005f0074
 2c0:	745f6666 	ldrbvc	r6, [pc], #-1638	; 2c8 <_start-0x7d38>
 2c4:	72665f00 	rsbvc	r5, r6, #0, 30
 2c8:	696c6565 	stmdbvs	ip!, {r0, r2, r5, r6, r8, sl, sp, lr}^
 2cc:	5f007473 	svcpl	0x00007473
 2d0:	4b434f4c 	blmi	10d4008 <__bss_end__+0x10ca5a0>
 2d4:	4345525f 	movtmi	r5, #21087	; 0x525f
 2d8:	49535255 	ldmdbmi	r3, {r0, r2, r4, r6, r9, ip, lr}^
 2dc:	545f4556 	ldrbpl	r4, [pc], #-1366	; 2e4 <_start-0x7d1c>
 2e0:	736e7500 	cmnvc	lr, #0, 10
 2e4:	656e6769 	strbvs	r6, [lr, #-1897]!	; 0xfffff897
 2e8:	68632064 	stmdavs	r3!, {r2, r5, r6, sp}^
 2ec:	5f007261 	svcpl	0x00007261
 2f0:	0077656e 	rsbseq	r6, r7, lr, ror #10
 2f4:	655f685f 	ldrbvs	r6, [pc, #-2143]	; fffffa9d <__bss_end__+0xffff6035>
 2f8:	6f6e7272 	svcvs	0x006e7272
 2fc:	6f687300 	svcvs	0x00687300
 300:	69207472 	stmdbvs	r0!, {r1, r4, r5, r6, sl, ip, sp, lr}
 304:	5f00746e 	svcpl	0x0000746e
 308:	5f6d745f 	svcpl	0x006d745f
 30c:	79616479 	stmdbvc	r1!, {r0, r3, r4, r5, r6, sl, sp, lr}^
 310:	735f5f00 	cmpvc	pc, #0, 30
 314:	00667562 	rsbeq	r7, r6, r2, ror #10
 318:	626f695f 	rsbvs	r6, pc, #1556480	; 0x17c000
 31c:	5f5f0073 	svcpl	0x005f0073
 320:	454c4946 	strbmi	r4, [ip, #-2374]	; 0xfffff6ba
 324:	626d5f00 	rsbvs	r5, sp, #0, 30
 328:	74617473 	strbtvc	r7, [r1], #-1139	; 0xfffffb8d
 32c:	00745f65 	rsbseq	r5, r4, r5, ror #30
 330:	46735f5f 	uhsaxmi	r5, r3, pc	; <UNPREDICTABLE>
 334:	00454c49 	subeq	r4, r5, r9, asr #24
 338:	73626d5f 	cmnvc	r2, #6080	; 0x17c0
 33c:	65746174 	ldrbvs	r6, [r4, #-372]!	; 0xfffffe8c
 340:	61725f00 	cmnvs	r2, r0, lsl #30
 344:	6e5f646e 	cdpvs	4, 5, cr6, cr15, cr14, {3}
 348:	00747865 	rsbseq	r7, r4, r5, ror #16
 34c:	6c626d5f 	stclvs	13, cr6, [r2], #-380	; 0xfffffe84
 350:	735f6e65 	cmpvc	pc, #1616	; 0x650
 354:	65746174 	ldrbvs	r6, [r4, #-372]!	; 0xfffffe8c
 358:	6e695f00 	cdpvs	15, 6, cr5, cr9, cr0, {0}
 35c:	695f0063 	ldmdbvs	pc, {r0, r1, r5, r6}^	; <UNPREDICTABLE>
 360:	5f00646e 	svcpl	0x0000646e
 364:	72727563 	rsbsvc	r7, r2, #415236096	; 0x18c00000
 368:	5f746e65 	svcpl	0x00746e65
 36c:	61636f6c 	cmnvs	r3, ip, ror #30
 370:	5f00656c 	svcpl	0x0000656c
 374:	656c635f 	strbvs	r6, [ip, #-863]!	; 0xfffffca1
 378:	70756e61 	rsbsvc	r6, r5, r1, ror #28
 37c:	616d5f00 	cmnvs	sp, r0, lsl #30
 380:	73647778 	cmnvc	r4, #120, 14	; 0x1e00000
 384:	65725f00 	ldrbvs	r5, [r2, #-3840]!	; 0xfffff100
 388:	00746e65 	rsbseq	r6, r4, r5, ror #28
 38c:	6565735f 	strbvs	r7, [r5, #-863]!	; 0xfffffca1
 390:	5f5f0064 	svcpl	0x005f0064
 394:	6e756f63 	cdpvs	15, 7, cr6, cr5, cr3, {3}
 398:	5f5f0074 	svcpl	0x005f0074
 39c:	756c6176 	strbvc	r6, [ip, #-374]!	; 0xfffffe8a
 3a0:	735f0065 	cmpvc	pc, #101	; 0x65
 3a4:	006b6565 	rsbeq	r6, fp, r5, ror #10
 3a8:	6f70665f 	svcvs	0x0070665f
 3ac:	00745f73 	rsbseq	r5, r4, r3, ror pc
 3b0:	6d745f5f 	ldclvs	15, cr5, [r4, #-380]!	; 0xfffffe84
 3b4:	6e696d5f 	mcrvs	13, 3, r6, cr9, cr15, {2}
 3b8:	756d5f00 	strbvc	r5, [sp, #-3840]!	; 0xfffff100
 3bc:	4700746c 	strmi	r7, [r0, -ip, ror #8]
 3c0:	4320554e 			; <UNDEFINED> instruction: 0x4320554e
 3c4:	36203939 			; <UNDEFINED> instruction: 0x36203939
 3c8:	312e332e 			; <UNDEFINED> instruction: 0x312e332e
 3cc:	31303220 	teqcc	r0, r0, lsr #4
 3d0:	32363037 	eorscc	r3, r6, #55	; 0x37
 3d4:	6d2d2030 	stcvs	0, cr2, [sp, #-192]!	; 0xffffff40
 3d8:	3d757063 	ldclcc	0, cr7, [r5, #-396]!	; 0xfffffe74
 3dc:	316d7261 	cmncc	sp, r1, ror #4
 3e0:	6a363731 	bvs	d8e0ac <__bss_end__+0xd84644>
 3e4:	732d667a 			; <UNDEFINED> instruction: 0x732d667a
 3e8:	746d2d20 	strbtvc	r2, [sp], #-3360	; 0xfffff2e0
 3ec:	3d656e75 	stclcc	14, cr6, [r5, #-468]!	; 0xfffffe2c
 3f0:	316d7261 	cmncc	sp, r1, ror #4
 3f4:	6a363731 	bvs	d8e0c0 <__bss_end__+0xd84658>
 3f8:	732d667a 			; <UNDEFINED> instruction: 0x732d667a
 3fc:	67672d20 	strbvs	r2, [r7, -r0, lsr #26]!
 400:	2d206264 	sfmcs	f6, 4, [r0, #-400]!	; 0xfffffe70
 404:	2d20674f 	stccs	7, cr6, [r0, #-316]!	; 0xfffffec4
 408:	3d647473 	cfstrdcc	mvd7, [r4, #-460]!	; 0xfffffe34
 40c:	39756e67 	ldmdbcc	r5!, {r0, r1, r2, r5, r6, r9, sl, fp, sp, lr}^
 410:	662d2039 			; <UNDEFINED> instruction: 0x662d2039
 414:	65657266 	strbvs	r7, [r5, #-614]!	; 0xfffffd9a
 418:	6e617473 	mcrvs	4, 3, r7, cr1, cr3, {3}
 41c:	676e6964 	strbvs	r6, [lr, -r4, ror #18]!
 420:	74735f00 	ldrbtvc	r5, [r3], #-3840	; 0xfffff100
 424:	6b6f7472 	blvs	1bdd5f4 <__bss_end__+0x1bd3b8c>
 428:	73616c5f 	cmnvc	r1, #24320	; 0x5f00
 42c:	665f0074 			; <UNDEFINED> instruction: 0x665f0074
 430:	7079746e 	rsbsvc	r7, r9, lr, ror #8
 434:	5f007365 	svcpl	0x00007365
 438:	00646461 	rsbeq	r6, r4, r1, ror #8
 43c:	4c555f5f 	mrrcmi	15, 5, r5, r5, cr15	; <UNPREDICTABLE>
 440:	00676e6f 	rsbeq	r6, r7, pc, ror #28
 444:	7465675f 	strbtvc	r6, [r5], #-1887	; 0xfffff8a1
 448:	65746164 	ldrbvs	r6, [r4, #-356]!	; 0xfffffe9c
 44c:	7272655f 	rsbsvc	r6, r2, #398458880	; 0x17c00000
 450:	6c675f00 	stclvs	15, cr5, [r7], #-0
 454:	6c61626f 	sfmvs	f6, 2, [r1], #-444	; 0xfffffe44
 458:	706d695f 	rsbvc	r6, sp, pc, asr r9
 45c:	5f657275 	svcpl	0x00657275
 460:	00727470 	rsbseq	r7, r2, r0, ror r4
 464:	7275635f 	rsbsvc	r6, r5, #2080374785	; 0x7c000001
 468:	746e6572 	strbtvc	r6, [lr], #-1394	; 0xfffffa8e
 46c:	7461635f 	strbtvc	r6, [r1], #-863	; 0xfffffca1
 470:	726f6765 	rsbvc	r6, pc, #26476544	; 0x1940000
 474:	656d0079 	strbvs	r0, [sp, #-121]!	; 0xffffff87
 478:	7465736d 	strbtvc	r7, [r5], #-877	; 0xfffffc93
 47c:	6e755f00 	cdpvs	15, 7, cr5, cr5, cr0, {0}
 480:	64657375 	strbtvs	r7, [r5], #-885	; 0xfffffc8b
 484:	6e61725f 	mcrvs	2, 3, r7, cr1, cr15, {2}
 488:	775f0064 	ldrbvc	r0, [pc, -r4, rrx]
 48c:	5f007364 	svcpl	0x00007364
 490:	5f6d745f 	svcpl	0x006d745f
 494:	79616477 	stmdbvc	r1!, {r0, r1, r2, r4, r5, r6, sl, sp, lr}^
 498:	6c675f00 	stclvs	15, cr5, [r7], #-0
 49c:	5f006575 	svcpl	0x00006575
 4a0:	6c616d6e 	stclvs	13, cr6, [r1], #-440	; 0xfffffe48
 4a4:	00636f6c 	rsbeq	r6, r3, ip, ror #30
 4a8:	34366c5f 	ldrtcc	r6, [r6], #-3167	; 0xfffff3a1
 4ac:	75625f61 	strbvc	r5, [r2, #-3937]!	; 0xfffff09f
 4b0:	735f0066 	cmpvc	pc, #102	; 0x66
 4b4:	665f6769 	ldrbvs	r6, [pc], -r9, ror #14
 4b8:	00636e75 	rsbeq	r6, r3, r5, ror lr
 4bc:	75626e5f 	strbvc	r6, [r2, #-3679]!	; 0xfffff1a1
 4c0:	755f0066 	ldrbvc	r0, [pc, #-102]	; 462 <_start-0x7b9e>
 4c4:	6573756e 	ldrbvs	r7, [r3, #-1390]!	; 0xfffffa92
 4c8:	5f5f0064 	svcpl	0x005f0064
 4cc:	695f6d74 	ldmdbvs	pc, {r2, r4, r5, r6, r8, sl, fp, sp, lr}^	; <UNPREDICTABLE>
 4d0:	74736473 	ldrbtvc	r6, [r3], #-1139	; 0xfffffb8d
 4d4:	6f6c5f00 	svcvs	0x006c5f00
 4d8:	746c6163 	strbtvc	r6, [ip], #-355	; 0xfffffe9d
 4dc:	5f656d69 	svcpl	0x00656d69
 4e0:	00667562 	rsbeq	r7, r6, r2, ror #10
 4e4:	6f6c635f 	svcvs	0x006c635f
 4e8:	5f006573 	svcpl	0x00006573
 4ec:	00383472 	eorseq	r3, r8, r2, ror r4
 4f0:	74626d5f 	strbtvc	r6, [r2], #-3423	; 0xfffff2a1
 4f4:	5f63776f 	svcpl	0x0063776f
 4f8:	74617473 	strbtvc	r7, [r1], #-1139	; 0xfffffb8d
 4fc:	705f0065 	subsvc	r0, pc, r5, rrx
 500:	5f007335 	svcpl	0x00007335
 504:	5f6d745f 	svcpl	0x006d745f
 508:	7961646d 	stmdbvc	r1!, {r0, r2, r3, r5, r6, sl, sp, lr}^
 50c:	64617000 	strbtvs	r7, [r1], #-0
 510:	676e6964 	strbvs	r6, [lr, -r4, ror #18]!
 514:	6e696c00 	cdpvs	12, 6, cr6, cr9, cr0, {0}
 518:	006f6e65 	rsbeq	r6, pc, r5, ror #28
 51c:	76657270 			; <UNDEFINED> instruction: 0x76657270
 520:	64646100 	strbtvs	r6, [r4], #-256	; 0xffffff00
 524:	61660072 	smcvs	24578	; 0x6002
 528:	685f7473 	ldmdavs	pc, {r0, r1, r4, r5, r6, sl, ip, sp, lr}^	; <UNPREDICTABLE>
 52c:	00687361 	rsbeq	r7, r8, r1, ror #6
 530:	65657266 	strbvs	r7, [r5, #-614]!	; 0xfffffd9a
 534:	636f6c5f 	cmnvs	pc, #24320	; 0x5f00
 538:	725f6200 	subsvc	r6, pc, #0, 4
 53c:	705f317a 	subsvc	r3, pc, sl, ror r1	; <UNPREDICTABLE>
 540:	46007274 			; <UNDEFINED> instruction: 0x46007274
 544:	44454552 	strbmi	r4, [r5], #-1362	; 0xfffffaae
 548:	4c4c4100 	stfmie	f4, [ip], {-0}
 54c:	4445434f 	strbmi	r4, [r5], #-847	; 0xfffffcb1
 550:	66657200 	strbtvs	r7, [r5], -r0, lsl #4
 554:	696d5f73 	stmdbvs	sp!, {r0, r1, r4, r5, r6, r8, r9, sl, fp, ip, lr}^
 558:	656c6464 	strbvs	r6, [ip, #-1124]!	; 0xfffffb9c
 55c:	66657200 	strbtvs	r7, [r5], -r0, lsl #4
 560:	74735f73 	ldrbtvc	r5, [r3], #-3955	; 0xfffff08d
 564:	00747261 	rsbseq	r7, r4, r1, ror #4
 568:	6f6c6c61 	svcvs	0x006c6c61
 56c:	00646563 	rsbeq	r6, r4, r3, ror #10
 570:	5245564f 	subpl	r5, r5, #82837504	; 0x4f00000
 574:	44414548 	strbmi	r4, [r1], #-1352	; 0xfffffab8
 578:	59424e5f 	stmdbpl	r2, {r0, r1, r2, r3, r4, r6, r9, sl, fp, lr}^
 57c:	00534554 	subseq	r4, r3, r4, asr r5
 580:	5a444552 	bpl	1111ad0 <__bss_end__+0x1108068>
 584:	00454e4f 	subeq	r4, r5, pc, asr #28
 588:	4f4c4c41 	svcmi	0x004c4c41
 58c:	464f5f43 	strbmi	r5, [pc], -r3, asr #30
 590:	54455346 	strbpl	r5, [r5], #-838	; 0xfffffcba
 594:	615f6200 	cmpvs	pc, r0, lsl #4
 598:	5f726464 	svcpl	0x00726464
 59c:	685f6f74 	ldmdavs	pc, {r2, r4, r5, r6, r8, r9, sl, fp, sp, lr}^	; <UNPREDICTABLE>
 5a0:	6d007264 	sfmvs	f7, 4, [r0, #-400]	; 0xfffffe70
 5a4:	70636d65 	rsbvc	r6, r3, r5, ror #26
 5a8:	6b630079 	blvs	18c0794 <__bss_end__+0x18b6d2c>
 5ac:	6f6c6c61 	svcvs	0x006c6c61
 5b0:	00632e63 	rsbeq	r2, r3, r3, ror #28
 5b4:	6f6c6c61 	svcvs	0x006c6c61
 5b8:	6f6c5f63 	svcvs	0x006c5f63
 5bc:	64680063 	strbtvs	r0, [r8], #-99	; 0xffffff9d
 5c0:	6b635f72 	blvs	18d8390 <__bss_end__+0x18ce928>
 5c4:	006d7573 	rsbeq	r7, sp, r3, ror r5
 5c8:	70616568 	rsbvc	r6, r1, r8, ror #10
 5cc:	646e655f 	strbtvs	r6, [lr], #-1375	; 0xfffffaa1
 5d0:	79626e00 	stmdbvc	r2!, {r9, sl, fp, sp, lr}^
 5d4:	5f736574 	svcpl	0x00736574
 5d8:	6f6c6c61 	svcvs	0x006c6c61
 5dc:	5f620063 	svcpl	0x00620063
 5e0:	6f6c6c61 	svcvs	0x006c6c61
 5e4:	74705f63 	ldrbtvc	r5, [r0], #-3939	; 0xfffff09d
 5e8:	68630072 	stmdavs	r3!, {r1, r4, r5, r6}^
 5ec:	5f6b6365 	svcpl	0x006b6365
 5f0:	00726468 	rsbseq	r6, r2, r8, ror #8
 5f4:	7a725f62 	bvc	1c98384 <__bss_end__+0x1c8e91c>
 5f8:	74705f32 	ldrbtvc	r5, [r0], #-3890	; 0xfffff0ce
 5fc:	626e0072 	rsbvs	r0, lr, #114	; 0x72
 600:	00736b6c 	rsbseq	r6, r3, ip, ror #22
 604:	5f637273 	svcpl	0x00637273
 608:	5f636f6c 	svcpl	0x00636f6c
 60c:	69750074 	ldmdbvs	r5!, {r2, r4, r5, r6}^
 610:	3233746e 	eorscc	r7, r3, #1845493760	; 0x6e000000
 614:	6800745f 	stmdavs	r0, {r0, r1, r2, r3, r4, r6, sl, ip, sp, lr}
 618:	5f706165 	svcpl	0x00706165
 61c:	72617473 	rsbvc	r7, r1, #1929379840	; 0x73000000
 620:	656e0074 	strbvs	r0, [lr, #-116]!	; 0xffffff8c
 624:	726f7272 	rsbvc	r7, pc, #536870919	; 0x20000007
 628:	65680073 	strbvs	r0, [r8, #-115]!	; 0xffffff8d
 62c:	53007061 	movwpl	r7, #97	; 0x61
 630:	49544e45 	ldmdbmi	r4, {r0, r2, r6, r9, sl, fp, lr}^
 634:	004c414e 	subeq	r4, ip, lr, asr #2
 638:	63656863 	cmnvs	r5, #6488064	; 0x630000
 63c:	6c625f6b 	stclvs	15, cr5, [r2], #-428	; 0xfffffe54
 640:	006b636f 	rsbeq	r6, fp, pc, ror #6
 644:	7a725f62 	bvc	1c983d4 <__bss_end__+0x1c8e96c>
 648:	626e5f32 	rsbvs	r5, lr, #50, 30	; 0xc8
 64c:	73657479 	cmnvc	r5, #2030043136	; 0x79000000
 650:	6e697500 	cdpvs	5, 6, cr7, cr9, cr0, {0}
 654:	745f3874 	ldrbvc	r3, [pc], #-2164	; 65c <_start-0x79a4>
 658:	72646800 	rsbvc	r6, r4, #0, 16
 65c:	6e00745f 	cfmvsrvs	mvf0, r7
 660:	65747962 	ldrbvs	r7, [r4, #-2402]!	; 0xfffff69e
 664:	65725f73 	ldrbvs	r5, [r2, #-3955]!	; 0xfffff08d
 668:	656c006d 	strbvs	r0, [ip, #-109]!	; 0xffffff93
 66c:	63007466 	movwvs	r7, #1126	; 0x466
 670:	6b636568 	blvs	18d9c18 <__bss_end__+0x18d01b0>
 674:	6d656d5f 	stclvs	13, cr6, [r5, #-380]!	; 0xfffffe84
 678:	61656800 	cmnvs	r5, r0, lsl #16
 67c:	00726564 	rsbseq	r6, r2, r4, ror #10
 680:	61765f5f 	cmnvs	r6, pc, asr pc
 684:	73696c5f 	cmnvc	r9, #24320	; 0x5f00
 688:	61760074 	cmnvs	r6, r4, ror r0
 68c:	6972705f 	ldmdbvs	r2!, {r0, r1, r2, r3, r4, r6, ip, sp, lr}^
 690:	006b746e 	rsbeq	r7, fp, lr, ror #8
 694:	6e675f5f 	mcrvs	15, 3, r5, cr7, cr15, {2}
 698:	765f6375 			; <UNDEFINED> instruction: 0x765f6375
 69c:	696c5f61 	stmdbvs	ip!, {r0, r5, r6, r8, r9, sl, fp, ip, lr}^
 6a0:	5f007473 	svcpl	0x00007473
 6a4:	0070615f 	rsbseq	r6, r0, pc, asr r1
 6a8:	6362696c 	cmnvs	r2, #108, 18	; 0x1b0000
 6ac:	6972702f 	ldmdbvs	r2!, {r0, r1, r2, r3, r5, ip, sp, lr}^
 6b0:	2e6b746e 	cdpcs	4, 6, cr7, cr11, cr14, {3}
 6b4:	682f0063 	stmdavs	pc!, {r0, r1, r5, r6}	; <UNPREDICTABLE>
 6b8:	2f656d6f 	svccs	0x00656d6f
 6bc:	72657375 	rsbvc	r7, r5, #-738197503	; 0xd4000001
 6c0:	7665442f 	strbtvc	r4, [r5], -pc, lsr #8
 6c4:	3253432f 	subscc	r4, r3, #-1140850688	; 0xbc000000
 6c8:	2f583034 	svccs	0x00583034
 6cc:	7062696c 	rsbvc	r6, r2, ip, ror #18
 6d0:	696c0069 	stmdbvs	ip!, {r0, r3, r5, r6}^
 6d4:	762f6362 	strtvc	r6, [pc], -r2, ror #6
 6d8:	72702d61 	rsbsvc	r2, r0, #6208	; 0x1840
 6dc:	6b746e69 	blvs	1d1c088 <__bss_end__+0x1d12620>
 6e0:	7200632e 	andvc	r6, r0, #-1207959552	; 0xb8000000
 6e4:	735f6970 	cmpvc	pc, #112, 18	; 0x1c0000
 6e8:	6f5f7465 	svcvs	0x005f7465
 6ec:	75707475 	ldrbvc	r7, [r0, #-1141]!	; 0xfffffb8b
 6f0:	69730074 	ldmdbvs	r3!, {r2, r4, r5, r6}^
 6f4:	64656e67 	strbtvs	r6, [r5], #-3687	; 0xfffff199
 6f8:	7200705f 	andvc	r7, r0, #95	; 0x5f
 6fc:	72657665 	rsbvc	r7, r5, #105906176	; 0x6500000
 700:	77006573 	smlsdxvc	r0, r3, r5, r6
 704:	68746469 	ldmdavs	r4!, {r0, r3, r5, r6, sl, sp, lr}^
 708:	74757000 	ldrbtvc	r7, [r5], #-0
 70c:	70665f73 	rsbvc	r5, r6, r3, ror pc
 710:	67656e00 	strbvs	r6, [r5, -r0, lsl #28]!
 714:	7000705f 	andvc	r7, r0, pc, asr r0
 718:	5f637475 	svcpl	0x00637475
 71c:	69007066 	stmdbvs	r0, {r1, r2, r5, r6, ip, sp, lr}
 720:	67696473 			; <UNDEFINED> instruction: 0x67696473
 724:	65007469 	strvs	r7, [r0, #-1129]	; 0xfffffb97
 728:	0074696d 	rsbseq	r6, r4, sp, ror #18
 72c:	657a6973 	ldrbvs	r6, [sl, #-2419]!	; 0xfffff68d
 730:	6c00745f 	cfstrsvs	mvf7, [r0], {95}	; 0x5f
 734:	2f636269 	svccs	0x00636269
 738:	636d656d 	cmnvs	sp, #457179136	; 0x1b400000
 73c:	632e7970 			; <UNDEFINED> instruction: 0x632e7970
 740:	62696c00 	rsbvs	r6, r9, #0, 24
 744:	61682f63 	cmnvs	r8, r3, ror #30
 748:	632e6873 			; <UNDEFINED> instruction: 0x632e6873
 74c:	746e6900 	strbtvc	r6, [lr], #-2304	; 0xfffff700
 750:	616e7265 	cmnvs	lr, r5, ror #4
 754:	75705f6c 	ldrbvc	r5, [r0, #-3948]!	; 0xfffff094
 758:	6c006b74 			; <UNDEFINED> instruction: 0x6c006b74
 75c:	2f636269 	svccs	0x00636269
 760:	6b747570 	blvs	1d1dd28 <__bss_end__+0x1d142c0>
 764:	7200632e 	andvc	r6, r0, #-1207959552	; 0xb8000000
 768:	735f6970 	cmpvc	pc, #112, 18	; 0x1c0000
 76c:	705f7465 	subsvc	r7, pc, r5, ror #8
 770:	00637475 	rsbeq	r7, r3, r5, ror r4
 774:	74726175 	ldrbtvc	r6, [r2], #-373	; 0xfffffe8b
 778:	7475705f 	ldrbtvc	r7, [r5], #-95	; 0xffffffa1
 77c:	6e690063 	cdpvs	0, 6, cr0, cr9, cr3, {3}
 780:	6e726574 	mrcvs	5, 3, r6, cr2, cr4, {3}
 784:	705f6c61 	subsvc	r6, pc, r1, ror #24
 788:	68637475 	stmdavs	r3!, {r0, r2, r4, r5, r6, sl, ip, sp, lr}^
 78c:	6c007261 	sfmvs	f7, 4, [r0], {97}	; 0x61
 790:	2f636269 	svccs	0x00636269
 794:	63747570 	cmnvs	r4, #112, 10	; 0x1c000000
 798:	2e726168 	rpwcssz	f6, f2, #0.0
 79c:	696c0063 	stmdbvs	ip!, {r0, r1, r5, r6}^
 7a0:	6d2f6362 	stcvs	3, cr6, [pc, #-392]!	; 620 <_start-0x79e0>
 7a4:	65736d65 	ldrbvs	r6, [r3, #-3429]!	; 0xfffff29b
 7a8:	00632e74 	rsbeq	r2, r3, r4, ror lr
 7ac:	66617473 			; <UNDEFINED> instruction: 0x66617473
 7b0:	72732d66 	rsbsvc	r2, r3, #6528	; 0x1980
 7b4:	73632f63 	cmnvc	r3, #396	; 0x18c
 7b8:	74726174 	ldrbtvc	r6, [r2], #-372	; 0xfffffe8c
 7bc:	5f00632e 	svcpl	0x0000632e
 7c0:	61747363 	cmnvs	r4, r3, ror #6
 7c4:	62007472 	andvs	r7, r0, #1912602624	; 0x72000000
 7c8:	655f7373 	ldrbvs	r7, [pc, #-883]	; 45d <_start-0x7ba3>
 7cc:	5f00646e 	svcpl	0x0000646e
 7d0:	7373625f 	cmnvc	r3, #-268435451	; 0xf0000005
 7d4:	6174735f 	cmnvs	r4, pc, asr r3
 7d8:	5f5f7472 	svcpl	0x005f7472
 7dc:	625f5f00 	subsvs	r5, pc, #0, 30
 7e0:	655f7373 	ldrbvs	r7, [pc, #-883]	; 475 <_start-0x7b8b>
 7e4:	5f5f646e 	svcpl	0x005f646e
 7e8:	5f4d5000 	svcpl	0x004d5000
 7ec:	43545352 	cmpmi	r4, #1207959553	; 0x48000001
 7f0:	54555000 	ldrbpl	r5, [r5], #-0
 7f4:	50003233 	andpl	r3, r0, r3, lsr r2
 7f8:	53525f4d 	cmppl	r2, #308	; 0x134
 7fc:	575f4354 			; <UNDEFINED> instruction: 0x575f4354
 800:	47464352 	smlsldmi	r4, r6, r2, r3
 804:	4c55465f 	mrrcmi	6, 5, r4, r5, cr15
 808:	45525f4c 	ldrbmi	r5, [r2, #-3916]	; 0xfffff0b4
 80c:	00544553 	subseq	r4, r4, r3, asr r5
 810:	575f4d50 			; <UNDEFINED> instruction: 0x575f4d50
 814:	00474f44 	subeq	r4, r7, r4, asr #30
 818:	72737063 	rsbsvc	r7, r3, #99	; 0x63
 81c:	5f4d5000 	svcpl	0x004d5000
 820:	53534150 	cmppl	r3, #80, 2
 824:	44524f57 	ldrbmi	r4, [r2], #-3927	; 0xfffff0a9
 828:	6c656400 	cfstrdvs	mvd6, [r5], #-0
 82c:	6d5f7961 	vldrvs.16	s15, [pc, #-194]	; 772 <_start-0x788e>	; <UNPREDICTABLE>
 830:	70720073 	rsbsvc	r0, r2, r3, ror r0
 834:	65725f69 	ldrbvs	r5, [r2, #-3945]!	; 0xfffff097
 838:	746f6f62 	strbtvc	r6, [pc], #-3938	; 840 <_start-0x77c0>
 83c:	61747300 	cmnvs	r4, r0, lsl #6
 840:	732d6666 			; <UNDEFINED> instruction: 0x732d6666
 844:	722f6372 	eorvc	r6, pc, #-939524095	; 0xc8000001
 848:	6f6f6265 	svcvs	0x006f6265
 84c:	00632e74 	rsbeq	r2, r3, r4, ror lr
 850:	5f746573 	svcpl	0x00746573
 854:	72657375 	rsbvc	r7, r5, #-738197503	; 0xd4000001
 858:	76656c5f 			; <UNDEFINED> instruction: 0x76656c5f
 85c:	61006c65 	tstvs	r0, r5, ror #24
 860:	73755f74 	cmnvc	r5, #116, 30	; 0x1d0
 864:	6c5f7265 	lfmvs	f7, 2, [pc], {101}	; 0x65
 868:	6c657665 	stclvs	6, cr7, [r5], #-404	; 0xfffffe6c
 86c:	61747300 	cmnvs	r4, r0, lsl #6
 870:	732d6666 			; <UNDEFINED> instruction: 0x732d6666
 874:	632f6372 			; <UNDEFINED> instruction: 0x632f6372
 878:	6e61656c 	cdpvs	5, 6, cr6, cr1, cr12, {3}
 87c:	6265722d 	rsbvs	r7, r5, #-805306366	; 0xd0000002
 880:	2e746f6f 	cdpcs	15, 7, cr6, cr4, cr15, {3}
 884:	69740063 	ldmdbvs	r4!, {r0, r1, r5, r6}^
 888:	5f72656d 	svcpl	0x0072656d
 88c:	5f746567 	svcpl	0x00746567
 890:	63657375 	cmnvs	r5, #-738197503	; 0xd4000001
 894:	6c656400 	cfstrdvs	mvd6, [r5], #-0
 898:	735f7961 	cmpvc	pc, #1589248	; 0x184000
 89c:	64006365 	strvs	r6, [r0], #-869	; 0xfffffc9b
 8a0:	79616c65 	stmdbvc	r1!, {r0, r2, r5, r6, sl, fp, sp, lr}^
 8a4:	6379635f 	cmnvs	r9, #2080374785	; 0x7c000001
 8a8:	0073656c 	rsbseq	r6, r3, ip, ror #10
 8ac:	66617473 			; <UNDEFINED> instruction: 0x66617473
 8b0:	72732d66 	rsbsvc	r2, r3, #6528	; 0x1980
 8b4:	69742f63 	ldmdbvs	r4!, {r0, r1, r5, r6, r8, r9, sl, fp, sp}^
 8b8:	2e72656d 	cdpcs	5, 7, cr6, cr2, cr13, {3}
 8bc:	69740063 	ldmdbvs	r4!, {r0, r1, r5, r6}^
 8c0:	00736b63 	rsbseq	r6, r3, r3, ror #22
 8c4:	33544547 	cmpcc	r4, #297795584	; 0x11c00000
 8c8:	69740032 	ldmdbvs	r4!, {r1, r4, r5}^
 8cc:	5f72656d 	svcpl	0x0072656d
 8d0:	5f746567 	svcpl	0x00746567
 8d4:	63657375 	cmnvs	r5, #-738197503	; 0xd4000001
 8d8:	7761725f 			; <UNDEFINED> instruction: 0x7761725f
 8dc:	6c656400 	cfstrdvs	mvd6, [r5], #-0
 8e0:	755f7961 	ldrbvc	r7, [pc, #-2401]	; ffffff87 <__bss_end__+0xffff651f>
 8e4:	61750073 	cmnvs	r5, r3, ror r0
 8e8:	695f7472 	ldmdbvs	pc, {r1, r4, r5, r6, sl, ip, sp, lr}^	; <UNPREDICTABLE>
 8ec:	0074696e 	rsbseq	r6, r4, lr, ror #18
 8f0:	4f495047 	svcmi	0x00495047
 8f4:	4e55465f 	mrcmi	6, 2, r4, cr5, cr15, {2}
 8f8:	4e495f43 	cdpmi	15, 4, cr5, cr9, cr3, {2}
 8fc:	00545550 	subseq	r5, r4, r0, asr r5
 900:	74617473 	strbtvc	r7, [r1], #-1139	; 0xfffffb8d
 904:	49504700 	ldmdbmi	r0, {r8, r9, sl, lr}^
 908:	55465f4f 	strbpl	r5, [r6, #-3919]	; 0xfffff0b1
 90c:	415f434e 	cmpmi	pc, lr, asr #6
 910:	0031544c 	eorseq	r5, r1, ip, asr #8
 914:	6c746e63 	ldclvs	14, cr6, [r4], #-396	; 0xfffffe74
 918:	72617500 	rsbvc	r7, r1, #0, 10
 91c:	00632e74 	rsbeq	r2, r3, r4, ror lr
 920:	5f787561 	svcpl	0x00787561
 924:	69726570 	ldmdbvs	r2!, {r4, r5, r6, r8, sl, sp, lr}^
 928:	00736870 	rsbseq	r6, r3, r0, ror r8
 92c:	6d6f682f 	stclvs	8, cr6, [pc, #-188]!	; 878 <_start-0x7788>
 930:	6e652f65 	cdpvs	15, 6, cr2, cr5, cr5, {3}
 934:	72656c67 	rsbvc	r6, r5, #26368	; 0x6700
 938:	616c632f 	cmnvs	ip, pc, lsr #6
 93c:	632f7373 			; <UNDEFINED> instruction: 0x632f7373
 940:	30343273 	eorscc	r3, r4, r3, ror r2
 944:	322d786c 	eorcc	r7, sp, #108, 16	; 0x6c0000
 948:	72707330 	rsbsvc	r7, r0, #48, 6	; 0xc0000000
 94c:	62696c2f 	rsbvs	r6, r9, #12032	; 0x2f00
 950:	732f6970 			; <UNDEFINED> instruction: 0x732f6970
 954:	66666174 			; <UNDEFINED> instruction: 0x66666174
 958:	6972702d 	ldmdbvs	r2!, {r0, r2, r3, r5, ip, sp, lr}^
 95c:	65746176 	ldrbvs	r6, [r4, #-374]!	; 0xfffffe8a
 960:	78756100 	ldmdavc	r5!, {r8, sp, lr}^
 964:	616e655f 	cmnvs	lr, pc, asr r5
 968:	73656c62 	cmnvc	r5, #25088	; 0x6200
 96c:	72617500 	rsbvc	r7, r1, #0, 10
 970:	61635f74 	smcvs	13812	; 0x35f4
 974:	75705f6e 	ldrbvc	r5, [r0, #-3950]!	; 0xfffff092
 978:	75006374 	strvc	r6, [r0, #-884]	; 0xfffffc8c
 97c:	5f747261 	svcpl	0x00747261
 980:	63746567 	cmnvs	r4, #432013312	; 0x19c00000
 984:	76656400 	strbtvc	r6, [r5], -r0, lsl #8
 988:	7261625f 	rsbvc	r6, r1, #-268435451	; 0xf0000005
 98c:	72656972 	rsbvc	r6, r5, #1867776	; 0x1c8000
 990:	49504700 	ldmdbmi	r0, {r8, r9, sl, lr}^
 994:	55465f4f 	strbpl	r5, [r6, #-3919]	; 0xfffff0b1
 998:	415f434e 	cmpmi	pc, lr, asr #6
 99c:	0032544c 	eorseq	r5, r2, ip, asr #8
 9a0:	6f697067 	svcvs	0x00697067
 9a4:	7465735f 	strbtvc	r7, [r5], #-863	; 0xfffffca1
 9a8:	6e75665f 	mrcvs	6, 3, r6, cr5, cr15, {2}
 9ac:	6f697463 	svcvs	0x00697463
 9b0:	6175006e 	cmnvs	r5, lr, rrx
 9b4:	62007472 	andvs	r7, r0, #1912602624	; 0x72000000
 9b8:	00647561 	rsbeq	r7, r4, r1, ror #10
 9bc:	61726373 	cmnvs	r2, r3, ror r3
 9c0:	00686374 	rsbeq	r6, r8, r4, ror r3
 9c4:	33747570 	cmncc	r4, #112, 10	; 0x1c000000
 9c8:	50470032 	subpl	r0, r7, r2, lsr r0
 9cc:	465f4f49 	ldrbmi	r4, [pc], -r9, asr #30
 9d0:	5f434e55 	svcpl	0x00434e55
 9d4:	5054554f 	subspl	r5, r4, pc, asr #10
 9d8:	67005455 	smlsdvs	r0, r5, r4, r5
 9dc:	32337465 	eorscc	r7, r3, #1694498816	; 0x65000000
 9e0:	72617500 	rsbvc	r7, r1, #0, 10
 9e4:	61635f74 	smcvs	13812	; 0x35f4
 9e8:	65675f6e 	strbvs	r5, [r7, #-3950]!	; 0xfffff092
 9ec:	6f006374 	svcvs	0x00006374
 9f0:	6e695f72 	mcrvs	15, 3, r5, cr9, cr2, {3}
 9f4:	75003233 	strvc	r3, [r0, #-563]	; 0xfffffdcd
 9f8:	5f747261 	svcpl	0x00747261
 9fc:	5f736168 	svcpl	0x00736168
 a00:	61746164 	cmnvs	r4, r4, ror #2
 a04:	49504700 	ldmdbmi	r0, {r8, r9, sl, lr}^
 a08:	55465f4f 	strbpl	r5, [r6, #-3919]	; 0xfffff0b1
 a0c:	415f434e 	cmpmi	pc, lr, asr #6
 a10:	0030544c 	eorseq	r5, r0, ip, asr #8
 a14:	4f495047 	svcmi	0x00495047
 a18:	4e55465f 	mrcmi	6, 2, r4, cr5, cr15, {2}
 a1c:	4c415f43 	mcrrmi	15, 4, r5, r1, cr3
 a20:	47003354 	smlsdmi	r0, r4, r3, r3
 a24:	5f4f4950 	svcpl	0x004f4950
 a28:	434e5546 	movtmi	r5, #58694	; 0xe546
 a2c:	544c415f 	strbpl	r4, [ip], #-351	; 0xfffffea1
 a30:	50470034 	subpl	r0, r7, r4, lsr r0
 a34:	465f4f49 	ldrbmi	r4, [pc], -r9, asr #30
 a38:	5f434e55 	svcpl	0x00434e55
 a3c:	35544c41 	ldrbcc	r4, [r4, #-3137]	; 0xfffff3bf
 a40:	69706700 	ldmdbvs	r0!, {r8, r9, sl, sp, lr}^
 a44:	65735f6f 	ldrbvs	r5, [r3, #-3951]!	; 0xfffff091
 a48:	666f5f74 	uqsub16vs	r5, pc, r4	; <UNPREDICTABLE>
 a4c:	61620066 	cmnvs	r2, r6, rrx
 a50:	67006b6e 	strvs	r6, [r0, -lr, ror #22]
 a54:	2e6f6970 			; <UNDEFINED> instruction: 0x2e6f6970
 a58:	70670063 	rsbvc	r0, r7, r3, rrx
 a5c:	725f6f69 	subsvc	r6, pc, #420	; 0x1a4
 a60:	00646165 	rsbeq	r6, r4, r5, ror #2
 a64:	6f697067 	svcvs	0x00697067
 a68:	7465735f 	strbtvc	r7, [r5], #-863	; 0xfffffca1
 a6c:	74756f5f 	ldrbtvc	r6, [r5], #-3935	; 0xfffff0a1
 a70:	00747570 	rsbseq	r7, r4, r0, ror r5
 a74:	6f697067 	svcvs	0x00697067
 a78:	6972775f 	ldmdbvs	r2!, {r0, r1, r2, r3, r4, r6, r8, r9, sl, ip, sp, lr}^
 a7c:	67006574 	smlsdxvs	r0, r4, r5, r6
 a80:	5f6f6970 	svcpl	0x006f6970
 a84:	30746573 	rsbscc	r6, r4, r3, ror r5
 a88:	69706700 	ldmdbvs	r0!, {r8, r9, sl, sp, lr}^
 a8c:	656c5f6f 	strbvs	r5, [ip, #-3951]!	; 0xfffff091
 a90:	67003076 	smlsdxvs	r0, r6, r0, r3
 a94:	5f6f6970 	svcpl	0x006f6970
 a98:	5f746573 	svcpl	0x00746573
 a9c:	75706e69 	ldrbvc	r6, [r0, #-3689]!	; 0xfffff197
 aa0:	70670074 	rsbvc	r0, r7, r4, ror r0
 aa4:	735f6f69 	cmpvc	pc, #420	; 0x1a4
 aa8:	6f5f7465 	svcvs	0x005f7465
 aac:	7067006e 	rsbvc	r0, r7, lr, rrx
 ab0:	665f6f69 	ldrbvs	r6, [pc], -r9, ror #30
 ab4:	5f636e75 	svcpl	0x00636e75
 ab8:	70670074 	rsbvc	r0, r7, r4, ror r0
 abc:	635f6f69 	cmpvs	pc, #420	; 0x1a4
 ac0:	0030726c 	eorseq	r7, r0, ip, ror #4

Disassembly of section .debug_frame:

00000000 <.debug_frame>:
   0:	0000000c 	andeq	r0, r0, ip
   4:	ffffffff 			; <UNDEFINED> instruction: 0xffffffff
   8:	7c020001 	stcvc	0, cr0, [r2], {1}
   c:	000d0c0e 	andeq	r0, sp, lr, lsl #24
  10:	00000018 	andeq	r0, r0, r8, lsl r0
  14:	00000000 	andeq	r0, r0, r0
  18:	00008010 	andeq	r8, r0, r0, lsl r0
  1c:	000000c8 	andeq	r0, r0, r8, asr #1
  20:	84100e42 	ldrhi	r0, [r0], #-3650	; 0xfffff1be
  24:	86038504 	strhi	r8, [r3], -r4, lsl #10
  28:	00018e02 	andeq	r8, r1, r2, lsl #28
  2c:	0000000c 	andeq	r0, r0, ip
  30:	ffffffff 			; <UNDEFINED> instruction: 0xffffffff
  34:	7c020001 	stcvc	0, cr0, [r2], {1}
  38:	000d0c0e 	andeq	r0, sp, lr, lsl #24
  3c:	0000000c 	andeq	r0, r0, ip
  40:	0000002c 	andeq	r0, r0, ip, lsr #32
  44:	000080d8 	ldrdeq	r8, [r0], -r8	; <UNPREDICTABLE>
  48:	00000008 	andeq	r0, r0, r8
  4c:	00000014 	andeq	r0, r0, r4, lsl r0
  50:	0000002c 	andeq	r0, r0, ip, lsr #32
  54:	000080e0 	andeq	r8, r0, r0, ror #1
  58:	00000010 	andeq	r0, r0, r0, lsl r0
  5c:	84080e42 	strhi	r0, [r8], #-3650	; 0xfffff1be
  60:	00018e02 	andeq	r8, r1, r2, lsl #28
  64:	00000014 	andeq	r0, r0, r4, lsl r0
  68:	0000002c 	andeq	r0, r0, ip, lsr #32
  6c:	000080f0 	strdeq	r8, [r0], -r0
  70:	00000018 	andeq	r0, r0, r8, lsl r0
  74:	84080e42 	strhi	r0, [r8], #-3650	; 0xfffff1be
  78:	00018e02 	andeq	r8, r1, r2, lsl #28
  7c:	0000000c 	andeq	r0, r0, ip
  80:	0000002c 	andeq	r0, r0, ip, lsr #32
  84:	00008108 	andeq	r8, r0, r8, lsl #2
  88:	0000000c 	andeq	r0, r0, ip
  8c:	0000000c 	andeq	r0, r0, ip
  90:	0000002c 	andeq	r0, r0, ip, lsr #32
  94:	00008114 	andeq	r8, r0, r4, lsl r1
  98:	00000008 	andeq	r0, r0, r8
  9c:	00000020 	andeq	r0, r0, r0, lsr #32
  a0:	0000002c 	andeq	r0, r0, ip, lsr #32
  a4:	0000811c 	andeq	r8, r0, ip, lsl r1
  a8:	00000058 	andeq	r0, r0, r8, asr r0
  ac:	84100e50 	ldrhi	r0, [r0], #-3664	; 0xfffff1b0
  b0:	86038504 	strhi	r8, [r3], -r4, lsl #10
  b4:	54018e02 	strpl	r8, [r1], #-3586	; 0xfffff1fe
  b8:	c5c4000e 	strbgt	r0, [r4, #14]
  bc:	0000cec6 	andeq	ip, r0, r6, asr #29
  c0:	00000018 	andeq	r0, r0, r8, lsl r0
  c4:	0000002c 	andeq	r0, r0, ip, lsr #32
  c8:	00008174 	andeq	r8, r0, r4, ror r1
  cc:	00000024 	andeq	r0, r0, r4, lsr #32
  d0:	84100e42 	ldrhi	r0, [r0], #-3650	; 0xfffff1be
  d4:	86038504 	strhi	r8, [r3], -r4, lsl #10
  d8:	00018e02 	andeq	r8, r1, r2, lsl #28
  dc:	00000018 	andeq	r0, r0, r8, lsl r0
  e0:	0000002c 	andeq	r0, r0, ip, lsr #32
  e4:	00008198 	muleq	r0, r8, r1
  e8:	00000058 	andeq	r0, r0, r8, asr r0
  ec:	84100e42 	ldrhi	r0, [r0], #-3650	; 0xfffff1be
  f0:	86038504 	strhi	r8, [r3], -r4, lsl #10
  f4:	00018e02 	andeq	r8, r1, r2, lsl #28
  f8:	00000018 	andeq	r0, r0, r8, lsl r0
  fc:	0000002c 	andeq	r0, r0, ip, lsr #32
 100:	000081f0 	strdeq	r8, [r0], -r0
 104:	0000005c 	andeq	r0, r0, ip, asr r0
 108:	84100e42 	ldrhi	r0, [r0], #-3650	; 0xfffff1be
 10c:	86038504 	strhi	r8, [r3], -r4, lsl #10
 110:	00018e02 	andeq	r8, r1, r2, lsl #28
 114:	00000018 	andeq	r0, r0, r8, lsl r0
 118:	0000002c 	andeq	r0, r0, ip, lsr #32
 11c:	0000824c 	andeq	r8, r0, ip, asr #4
 120:	00000074 	andeq	r0, r0, r4, ror r0
 124:	84100e42 	ldrhi	r0, [r0], #-3650	; 0xfffff1be
 128:	86038504 	strhi	r8, [r3], -r4, lsl #10
 12c:	00018e02 	andeq	r8, r1, r2, lsl #28
 130:	0000001c 	andeq	r0, r0, ip, lsl r0
 134:	0000002c 	andeq	r0, r0, ip, lsr #32
 138:	000082c0 	andeq	r8, r0, r0, asr #5
 13c:	000000c8 	andeq	r0, r0, r8, asr #1
 140:	84180e42 	ldrhi	r0, [r8], #-3650	; 0xfffff1be
 144:	86058506 	strhi	r8, [r5], -r6, lsl #10
 148:	88038704 	stmdahi	r3, {r2, r8, r9, sl, pc}
 14c:	00018e02 	andeq	r8, r1, r2, lsl #28
 150:	00000028 	andeq	r0, r0, r8, lsr #32
 154:	0000002c 	andeq	r0, r0, ip, lsr #32
 158:	00008388 	andeq	r8, r0, r8, lsl #7
 15c:	0000021c 	andeq	r0, r0, ip, lsl r2
 160:	841c0e42 	ldrhi	r0, [ip], #-3650	; 0xfffff1be
 164:	86068507 	strhi	r8, [r6], -r7, lsl #10
 168:	88048705 	stmdahi	r4, {r0, r2, r8, r9, sl, pc}
 16c:	8e028903 	vmlahi.f16	s16, s4, s6	; <UNPREDICTABLE>
 170:	280e4201 	stmdacs	lr, {r0, r9, lr}
 174:	0e0a8e02 	cdpeq	14, 0, cr8, cr10, cr2, {0}
 178:	000b421c 	andeq	r4, fp, ip, lsl r2
 17c:	00000018 	andeq	r0, r0, r8, lsl r0
 180:	0000002c 	andeq	r0, r0, ip, lsr #32
 184:	000085a4 	andeq	r8, r0, r4, lsr #11
 188:	000000d4 	ldrdeq	r0, [r0], -r4
 18c:	84100e42 	ldrhi	r0, [r0], #-3650	; 0xfffff1be
 190:	86038504 	strhi	r8, [r3], -r4, lsl #10
 194:	00018e02 	andeq	r8, r1, r2, lsl #28
 198:	0000000c 	andeq	r0, r0, ip
 19c:	ffffffff 			; <UNDEFINED> instruction: 0xffffffff
 1a0:	7c020001 	stcvc	0, cr0, [r2], {1}
 1a4:	000d0c0e 	andeq	r0, sp, lr, lsl #24
 1a8:	00000034 	andeq	r0, r0, r4, lsr r0
 1ac:	00000198 	muleq	r0, r8, r1
 1b0:	00008678 	andeq	r8, r0, r8, ror r6
 1b4:	00000058 	andeq	r0, r0, r8, asr r0
 1b8:	80100e42 	andshi	r0, r0, r2, asr #28
 1bc:	82038104 	andhi	r8, r3, #4, 2
 1c0:	42018302 	andmi	r8, r1, #134217728	; 0x8000000
 1c4:	07841c0e 	streq	r1, [r4, lr, lsl #24]
 1c8:	058e0685 	streq	r0, [lr, #1669]	; 0x685
 1cc:	5c280e42 	stcpl	14, cr0, [r8], #-264	; 0xfffffef8
 1d0:	ce421c0e 	cdpgt	12, 4, cr1, cr2, cr14, {0}
 1d4:	100ec4c5 	andne	ip, lr, r5, asr #9
 1d8:	c1c2c342 	bicgt	ip, r2, r2, asr #6
 1dc:	00000ec0 	andeq	r0, r0, r0, asr #29
 1e0:	0000000c 	andeq	r0, r0, ip
 1e4:	ffffffff 			; <UNDEFINED> instruction: 0xffffffff
 1e8:	7c020001 	stcvc	0, cr0, [r2], {1}
 1ec:	000d0c0e 	andeq	r0, sp, lr, lsl #24
 1f0:	0000000c 	andeq	r0, r0, ip
 1f4:	000001e0 	andeq	r0, r0, r0, ror #3
 1f8:	000086d0 	ldrdeq	r8, [r0], -r0
 1fc:	00000014 	andeq	r0, r0, r4, lsl r0
 200:	0000000c 	andeq	r0, r0, ip
 204:	000001e0 	andeq	r0, r0, r0, ror #3
 208:	000086e4 	andeq	r8, r0, r4, ror #13
 20c:	0000002c 	andeq	r0, r0, ip, lsr #32
 210:	0000000c 	andeq	r0, r0, ip
 214:	000001e0 	andeq	r0, r0, r0, ror #3
 218:	00008710 	andeq	r8, r0, r0, lsl r7
 21c:	00000040 	andeq	r0, r0, r0, asr #32
 220:	00000024 	andeq	r0, r0, r4, lsr #32
 224:	000001e0 	andeq	r0, r0, r0, ror #3
 228:	00008750 	andeq	r8, r0, r0, asr r7
 22c:	0000019c 	muleq	r0, ip, r1
 230:	84140e42 	ldrhi	r0, [r4], #-3650	; 0xfffff1be
 234:	86048505 	strhi	r8, [r4], -r5, lsl #10
 238:	8e028703 	cdphi	7, 0, cr8, cr2, cr3, {0}
 23c:	580e4201 	stmdapl	lr, {r0, r9, lr}
 240:	0e0a9202 	cdpeq	2, 0, cr9, cr10, cr2, {0}
 244:	000b4214 	andeq	r4, fp, r4, lsl r2
 248:	00000014 	andeq	r0, r0, r4, lsl r0
 24c:	000001e0 	andeq	r0, r0, r0, ror #3
 250:	000088ec 	andeq	r8, r0, ip, ror #17
 254:	00000054 	andeq	r0, r0, r4, asr r0
 258:	84080e52 	strhi	r0, [r8], #-3666	; 0xfffff1ae
 25c:	00018e02 	andeq	r8, r1, r2, lsl #28
 260:	00000028 	andeq	r0, r0, r8, lsr #32
 264:	000001e0 	andeq	r0, r0, r0, ror #3
 268:	00008940 	andeq	r8, r0, r0, asr #18
 26c:	000002c0 	andeq	r0, r0, r0, asr #5
 270:	841c0e42 	ldrhi	r0, [ip], #-3650	; 0xfffff1be
 274:	86068507 	strhi	r8, [r6], -r7, lsl #10
 278:	88048705 	stmdahi	r4, {r0, r2, r8, r9, sl, pc}
 27c:	8e028903 	vmlahi.f16	s16, s4, s6	; <UNPREDICTABLE>
 280:	b00e4201 	andlt	r4, lr, r1, lsl #4
 284:	01500301 	cmpeq	r0, r1, lsl #6
 288:	00001c0e 	andeq	r1, r0, lr, lsl #24
 28c:	0000000c 	andeq	r0, r0, ip
 290:	ffffffff 			; <UNDEFINED> instruction: 0xffffffff
 294:	7c020001 	stcvc	0, cr0, [r2], {1}
 298:	000d0c0e 	andeq	r0, sp, lr, lsl #24
 29c:	0000000c 	andeq	r0, r0, ip
 2a0:	0000028c 	andeq	r0, r0, ip, lsl #5
 2a4:	00008c00 	andeq	r8, r0, r0, lsl #24
 2a8:	00000060 	andeq	r0, r0, r0, rrx
 2ac:	0000000c 	andeq	r0, r0, ip
 2b0:	ffffffff 			; <UNDEFINED> instruction: 0xffffffff
 2b4:	7c020001 	stcvc	0, cr0, [r2], {1}
 2b8:	000d0c0e 	andeq	r0, sp, lr, lsl #24
 2bc:	00000018 	andeq	r0, r0, r8, lsl r0
 2c0:	000002ac 	andeq	r0, r0, ip, lsr #5
 2c4:	00008c60 	andeq	r8, r0, r0, ror #24
 2c8:	000000e8 	andeq	r0, r0, r8, ror #1
 2cc:	8e040e48 	cdphi	14, 0, cr0, cr4, cr8, {2}
 2d0:	0e680201 	cdpeq	2, 6, cr0, cr8, cr1, {0}
 2d4:	0000ce00 	andeq	ip, r0, r0, lsl #28
 2d8:	0000000c 	andeq	r0, r0, ip
 2dc:	ffffffff 			; <UNDEFINED> instruction: 0xffffffff
 2e0:	7c020001 	stcvc	0, cr0, [r2], {1}
 2e4:	000d0c0e 	andeq	r0, sp, lr, lsl #24
 2e8:	00000014 	andeq	r0, r0, r4, lsl r0
 2ec:	000002d8 	ldrdeq	r0, [r0], -r8
 2f0:	00008d48 	andeq	r8, r0, r8, asr #26
 2f4:	00000034 	andeq	r0, r0, r4, lsr r0
 2f8:	84080e42 	strhi	r0, [r8], #-3650	; 0xfffff1be
 2fc:	00018e02 	andeq	r8, r1, r2, lsl #28
 300:	0000000c 	andeq	r0, r0, ip
 304:	ffffffff 			; <UNDEFINED> instruction: 0xffffffff
 308:	7c020001 	stcvc	0, cr0, [r2], {1}
 30c:	000d0c0e 	andeq	r0, sp, lr, lsl #24
 310:	00000014 	andeq	r0, r0, r4, lsl r0
 314:	00000300 	andeq	r0, r0, r0, lsl #6
 318:	00008d7c 	andeq	r8, r0, ip, ror sp
 31c:	00000014 	andeq	r0, r0, r4, lsl r0
 320:	84080e42 	strhi	r0, [r8], #-3650	; 0xfffff1be
 324:	00018e02 	andeq	r8, r1, r2, lsl #28
 328:	0000000c 	andeq	r0, r0, ip
 32c:	00000300 	andeq	r0, r0, r0, lsl #6
 330:	00008d90 	muleq	r0, r0, sp
 334:	00000018 	andeq	r0, r0, r8, lsl r0
 338:	0000000c 	andeq	r0, r0, ip
 33c:	00000300 	andeq	r0, r0, r0, lsl #6
 340:	00008da8 	andeq	r8, r0, r8, lsr #27
 344:	00000010 	andeq	r0, r0, r0, lsl r0
 348:	0000000c 	andeq	r0, r0, ip
 34c:	ffffffff 			; <UNDEFINED> instruction: 0xffffffff
 350:	7c020001 	stcvc	0, cr0, [r2], {1}
 354:	000d0c0e 	andeq	r0, sp, lr, lsl #24
 358:	0000000c 	andeq	r0, r0, ip
 35c:	00000348 	andeq	r0, r0, r8, asr #6
 360:	00008db8 			; <UNDEFINED> instruction: 0x00008db8
 364:	00000020 	andeq	r0, r0, r0, lsr #32
 368:	0000000c 	andeq	r0, r0, ip
 36c:	ffffffff 			; <UNDEFINED> instruction: 0xffffffff
 370:	7c020001 	stcvc	0, cr0, [r2], {1}
 374:	000d0c0e 	andeq	r0, sp, lr, lsl #24
 378:	00000014 	andeq	r0, r0, r4, lsl r0
 37c:	00000368 	andeq	r0, r0, r8, ror #6
 380:	00008dd8 	ldrdeq	r8, [r0], -r8	; <UNPREDICTABLE>
 384:	00000034 	andeq	r0, r0, r4, lsr r0
 388:	84080e42 	strhi	r0, [r8], #-3650	; 0xfffff1be
 38c:	00018e02 	andeq	r8, r1, r2, lsl #28
 390:	0000000c 	andeq	r0, r0, ip
 394:	ffffffff 			; <UNDEFINED> instruction: 0xffffffff
 398:	7c020001 	stcvc	0, cr0, [r2], {1}
 39c:	000d0c0e 	andeq	r0, sp, lr, lsl #24
 3a0:	0000000c 	andeq	r0, r0, ip
 3a4:	00000390 	muleq	r0, r0, r3
 3a8:	00008e0c 	andeq	r8, r0, ip, lsl #28
 3ac:	00000018 	andeq	r0, r0, r8, lsl r0
 3b0:	0000000c 	andeq	r0, r0, ip
 3b4:	00000390 	muleq	r0, r0, r3
 3b8:	00008e24 	andeq	r8, r0, r4, lsr #28
 3bc:	00000014 	andeq	r0, r0, r4, lsl r0
 3c0:	00000014 	andeq	r0, r0, r4, lsl r0
 3c4:	00000390 	muleq	r0, r0, r3
 3c8:	00008e38 	andeq	r8, r0, r8, lsr lr
 3cc:	0000004c 	andeq	r0, r0, ip, asr #32
 3d0:	84080e42 	strhi	r0, [r8], #-3650	; 0xfffff1be
 3d4:	00018e02 	andeq	r8, r1, r2, lsl #28
 3d8:	0000000c 	andeq	r0, r0, ip
 3dc:	ffffffff 			; <UNDEFINED> instruction: 0xffffffff
 3e0:	7c020001 	stcvc	0, cr0, [r2], {1}
 3e4:	000d0c0e 	andeq	r0, sp, lr, lsl #24
 3e8:	00000014 	andeq	r0, r0, r4, lsl r0
 3ec:	000003d8 	ldrdeq	r0, [r0], -r8
 3f0:	00008e84 	andeq	r8, r0, r4, lsl #29
 3f4:	00000028 	andeq	r0, r0, r8, lsr #32
 3f8:	84080e42 	strhi	r0, [r8], #-3650	; 0xfffff1be
 3fc:	00018e02 	andeq	r8, r1, r2, lsl #28
 400:	0000000c 	andeq	r0, r0, ip
 404:	ffffffff 			; <UNDEFINED> instruction: 0xffffffff
 408:	7c020001 	stcvc	0, cr0, [r2], {1}
 40c:	000d0c0e 	andeq	r0, sp, lr, lsl #24
 410:	0000000c 	andeq	r0, r0, ip
 414:	00000400 	andeq	r0, r0, r0, lsl #8
 418:	00008eac 	andeq	r8, r0, ip, lsr #29
 41c:	0000001c 	andeq	r0, r0, ip, lsl r0
 420:	00000014 	andeq	r0, r0, r4, lsl r0
 424:	00000400 	andeq	r0, r0, r0, lsl #8
 428:	00008ec8 	andeq	r8, r0, r8, asr #29
 42c:	00000014 	andeq	r0, r0, r4, lsl r0
 430:	84080e42 	strhi	r0, [r8], #-3650	; 0xfffff1be
 434:	00018e02 	andeq	r8, r1, r2, lsl #28
 438:	00000014 	andeq	r0, r0, r4, lsl r0
 43c:	00000400 	andeq	r0, r0, r0, lsl #8
 440:	00008edc 	ldrdeq	r8, [r0], -ip
 444:	0000000c 	andeq	r0, r0, ip
 448:	84080e42 	strhi	r0, [r8], #-3650	; 0xfffff1be
 44c:	00018e02 	andeq	r8, r1, r2, lsl #28
 450:	00000018 	andeq	r0, r0, r8, lsl r0
 454:	00000400 	andeq	r0, r0, r0, lsl #8
 458:	00008ee8 	andeq	r8, r0, r8, ror #29
 45c:	00000024 	andeq	r0, r0, r4, lsr #32
 460:	84100e42 	ldrhi	r0, [r0], #-3650	; 0xfffff1be
 464:	86038504 	strhi	r8, [r3], -r4, lsl #10
 468:	00018e02 	andeq	r8, r1, r2, lsl #28
 46c:	00000014 	andeq	r0, r0, r4, lsl r0
 470:	00000400 	andeq	r0, r0, r0, lsl #8
 474:	00008f0c 	andeq	r8, r0, ip, lsl #30
 478:	00000014 	andeq	r0, r0, r4, lsl r0
 47c:	84080e42 	strhi	r0, [r8], #-3650	; 0xfffff1be
 480:	00018e02 	andeq	r8, r1, r2, lsl #28
 484:	00000014 	andeq	r0, r0, r4, lsl r0
 488:	00000400 	andeq	r0, r0, r0, lsl #8
 48c:	00008f20 	andeq	r8, r0, r0, lsr #30
 490:	00000014 	andeq	r0, r0, r4, lsl r0
 494:	84080e42 	strhi	r0, [r8], #-3650	; 0xfffff1be
 498:	00018e02 	andeq	r8, r1, r2, lsl #28
 49c:	0000000c 	andeq	r0, r0, ip
 4a0:	ffffffff 			; <UNDEFINED> instruction: 0xffffffff
 4a4:	7c020001 	stcvc	0, cr0, [r2], {1}
 4a8:	000d0c0e 	andeq	r0, sp, lr, lsl #24
 4ac:	00000018 	andeq	r0, r0, r8, lsl r0
 4b0:	0000049c 	muleq	r0, ip, r4
 4b4:	00008f80 	andeq	r8, r0, r0, lsl #31
 4b8:	00000020 	andeq	r0, r0, r0, lsr #32
 4bc:	84100e42 	ldrhi	r0, [r0], #-3650	; 0xfffff1be
 4c0:	86038504 	strhi	r8, [r3], -r4, lsl #10
 4c4:	00018e02 	andeq	r8, r1, r2, lsl #28
 4c8:	00000014 	andeq	r0, r0, r4, lsl r0
 4cc:	0000049c 	muleq	r0, ip, r4
 4d0:	00008fa0 	andeq	r8, r0, r0, lsr #31
 4d4:	000000b0 	strheq	r0, [r0], -r0	; <UNPREDICTABLE>
 4d8:	84080e42 	strhi	r0, [r8], #-3650	; 0xfffff1be
 4dc:	00018e02 	andeq	r8, r1, r2, lsl #28
 4e0:	00000014 	andeq	r0, r0, r4, lsl r0
 4e4:	0000049c 	muleq	r0, ip, r4
 4e8:	00009050 	andeq	r9, r0, r0, asr r0
 4ec:	00000018 	andeq	r0, r0, r8, lsl r0
 4f0:	84080e42 	strhi	r0, [r8], #-3650	; 0xfffff1be
 4f4:	00018e02 	andeq	r8, r1, r2, lsl #28
 4f8:	00000014 	andeq	r0, r0, r4, lsl r0
 4fc:	0000049c 	muleq	r0, ip, r4
 500:	00009068 	andeq	r9, r0, r8, rrx
 504:	00000020 	andeq	r0, r0, r0, lsr #32
 508:	84080e42 	strhi	r0, [r8], #-3650	; 0xfffff1be
 50c:	00018e02 	andeq	r8, r1, r2, lsl #28
 510:	00000014 	andeq	r0, r0, r4, lsl r0
 514:	0000049c 	muleq	r0, ip, r4
 518:	00009088 	andeq	r9, r0, r8, lsl #1
 51c:	00000030 	andeq	r0, r0, r0, lsr r0
 520:	84080e42 	strhi	r0, [r8], #-3650	; 0xfffff1be
 524:	00018e02 	andeq	r8, r1, r2, lsl #28
 528:	00000014 	andeq	r0, r0, r4, lsl r0
 52c:	0000049c 	muleq	r0, ip, r4
 530:	000090b8 	strheq	r9, [r0], -r8
 534:	00000030 	andeq	r0, r0, r0, lsr r0
 538:	84080e42 	strhi	r0, [r8], #-3650	; 0xfffff1be
 53c:	00018e02 	andeq	r8, r1, r2, lsl #28
 540:	00000014 	andeq	r0, r0, r4, lsl r0
 544:	0000049c 	muleq	r0, ip, r4
 548:	000090e8 	andeq	r9, r0, r8, ror #1
 54c:	00000010 	andeq	r0, r0, r0, lsl r0
 550:	84080e42 	strhi	r0, [r8], #-3650	; 0xfffff1be
 554:	00018e02 	andeq	r8, r1, r2, lsl #28
 558:	0000000c 	andeq	r0, r0, ip
 55c:	ffffffff 			; <UNDEFINED> instruction: 0xffffffff
 560:	7c020001 	stcvc	0, cr0, [r2], {1}
 564:	000d0c0e 	andeq	r0, sp, lr, lsl #24
 568:	00000018 	andeq	r0, r0, r8, lsl r0
 56c:	00000558 	andeq	r0, r0, r8, asr r5
 570:	000090f8 	strdeq	r9, [r0], -r8
 574:	00000068 	andeq	r0, r0, r8, rrx
 578:	84100e4a 	ldrhi	r0, [r0], #-3658	; 0xfffff1b6
 57c:	86038504 	strhi	r8, [r3], -r4, lsl #10
 580:	00018e02 	andeq	r8, r1, r2, lsl #28
 584:	00000014 	andeq	r0, r0, r4, lsl r0
 588:	00000558 	andeq	r0, r0, r8, asr r5
 58c:	00009160 	andeq	r9, r0, r0, ror #2
 590:	00000010 	andeq	r0, r0, r0, lsl r0
 594:	84080e42 	strhi	r0, [r8], #-3650	; 0xfffff1be
 598:	00018e02 	andeq	r8, r1, r2, lsl #28
 59c:	00000014 	andeq	r0, r0, r4, lsl r0
 5a0:	00000558 	andeq	r0, r0, r8, asr r5
 5a4:	00009170 	andeq	r9, r0, r0, ror r1
 5a8:	00000024 	andeq	r0, r0, r4, lsr #32
 5ac:	84080e46 	strhi	r0, [r8], #-3654	; 0xfffff1ba
 5b0:	00018e02 	andeq	r8, r1, r2, lsl #28
 5b4:	00000014 	andeq	r0, r0, r4, lsl r0
 5b8:	00000558 	andeq	r0, r0, r8, asr r5
 5bc:	00009194 	muleq	r0, r4, r1
 5c0:	00000024 	andeq	r0, r0, r4, lsr #32
 5c4:	84080e46 	strhi	r0, [r8], #-3654	; 0xfffff1ba
 5c8:	00018e02 	andeq	r8, r1, r2, lsl #28
 5cc:	00000014 	andeq	r0, r0, r4, lsl r0
 5d0:	00000558 	andeq	r0, r0, r8, asr r5
 5d4:	000091b8 			; <UNDEFINED> instruction: 0x000091b8
 5d8:	00000010 	andeq	r0, r0, r0, lsl r0
 5dc:	84080e42 	strhi	r0, [r8], #-3650	; 0xfffff1be
 5e0:	00018e02 	andeq	r8, r1, r2, lsl #28
 5e4:	00000014 	andeq	r0, r0, r4, lsl r0
 5e8:	00000558 	andeq	r0, r0, r8, asr r5
 5ec:	000091c8 	andeq	r9, r0, r8, asr #3
 5f0:	0000001c 	andeq	r0, r0, ip, lsl r0
 5f4:	84080e42 	strhi	r0, [r8], #-3650	; 0xfffff1be
 5f8:	00018e02 	andeq	r8, r1, r2, lsl #28
 5fc:	00000018 	andeq	r0, r0, r8, lsl r0
 600:	00000558 	andeq	r0, r0, r8, asr r5
 604:	000091e4 	andeq	r9, r0, r4, ror #3
 608:	00000034 	andeq	r0, r0, r4, lsr r0
 60c:	84080e46 	strhi	r0, [r8], #-3654	; 0xfffff1ba
 610:	4e018e02 	cdpmi	14, 0, cr8, cr1, cr2, {0}
 614:	cec4000e 	cdpgt	0, 12, cr0, cr4, cr14, {0}

Disassembly of section .debug_ranges:

00000000 <.debug_ranges>:
   0:	00000500 	andeq	r0, r0, r0, lsl #10
   4:	00000504 	andeq	r0, r0, r4, lsl #10
   8:	0000050c 	andeq	r0, r0, ip, lsl #10
   c:	0000054c 	andeq	r0, r0, ip, asr #10
	...
  18:	000002c4 	andeq	r0, r0, r4, asr #5
  1c:	000002d0 	ldrdeq	r0, [r0], -r0	; <UNPREDICTABLE>
  20:	000002e0 	andeq	r0, r0, r0, ror #5
  24:	00000504 	andeq	r0, r0, r4, lsl #10
	...
  30:	00008e0c 	andeq	r8, r0, ip, lsl #28
  34:	00008e84 	andeq	r8, r0, r4, lsl #29
	...
