
part1-test6.elf:     file format elf32-littlearm


Disassembly of section .text:

00008000 <_start>:
    8000:	e3a0d302 	mov	sp, #134217728	; 0x8000000
    8004:	e3a0b000 	mov	fp, #0
    8008:	eb00045c 	bl	9180 <_cstart>
    800c:	eb000471 	bl	91d8 <rpi_reboot>

00008010 <notmain>:
    8010:	e92d40f0 	push	{r4, r5, r6, r7, lr}
    8014:	e24dd034 	sub	sp, sp, #52	; 0x34
    8018:	e59f0160 	ldr	r0, [pc, #352]	; 8180 <notmain+0x170>
    801c:	eb0002bc 	bl	8b14 <printk>
    8020:	e3a00601 	mov	r0, #1048576	; 0x100000
    8024:	eb000561 	bl	95b0 <kmalloc_init_set_start>
    8028:	e3a00601 	mov	r0, #1048576	; 0x100000
    802c:	eb000573 	bl	9600 <kmalloc>
    8030:	e3a01601 	mov	r1, #1048576	; 0x100000
    8034:	eb00014f 	bl	8578 <ck_init>
    8038:	e3a04000 	mov	r4, #0
    803c:	e3540005 	cmp	r4, #5
    8040:	ca00000c 	bgt	8078 <notmain+0x68>
    8044:	eb0002ef 	bl	8c08 <rpi_rand32>
    8048:	e1a00b00 	lsl	r0, r0, #22
    804c:	e1a00b20 	lsr	r0, r0, #22
    8050:	e28d3030 	add	r3, sp, #48	; 0x30
    8054:	e0835104 	add	r5, r3, r4, lsl #2
    8058:	e5050030 	str	r0, [r5, #-48]	; 0xffffffd0
    805c:	e3a03014 	mov	r3, #20
    8060:	e59f211c 	ldr	r2, [pc, #284]	; 8184 <notmain+0x174>
    8064:	e59f111c 	ldr	r1, [pc, #284]	; 8188 <notmain+0x178>
    8068:	eb00018d 	bl	86a4 <ckalloc>
    806c:	e5050018 	str	r0, [r5, #-24]	; 0xffffffe8
    8070:	e2844001 	add	r4, r4, #1
    8074:	eafffff0 	b	803c <notmain+0x2c>
    8078:	e3a04000 	mov	r4, #0
    807c:	e3540005 	cmp	r4, #5
    8080:	ca000008 	bgt	80a8 <notmain+0x98>
    8084:	e28d3030 	add	r3, sp, #48	; 0x30
    8088:	e0830104 	add	r0, r3, r4, lsl #2
    808c:	e3a03018 	mov	r3, #24
    8090:	e59f20ec 	ldr	r2, [pc, #236]	; 8184 <notmain+0x174>
    8094:	e59f10ec 	ldr	r1, [pc, #236]	; 8188 <notmain+0x178>
    8098:	e5100018 	ldr	r0, [r0, #-24]	; 0xffffffe8
    809c:	eb000152 	bl	85ec <ckfree>
    80a0:	e2844001 	add	r4, r4, #1
    80a4:	eafffff4 	b	807c <notmain+0x6c>
    80a8:	eb000204 	bl	88c0 <ck_heap_errors>
    80ac:	e3500000 	cmp	r0, #0
    80b0:	1a000024 	bne	8148 <notmain+0x138>
    80b4:	e59f50d0 	ldr	r5, [pc, #208]	; 818c <notmain+0x17c>
    80b8:	e1a00005 	mov	r0, r5
    80bc:	eb000294 	bl	8b14 <printk>
    80c0:	e59f00c8 	ldr	r0, [pc, #200]	; 8190 <notmain+0x180>
    80c4:	eb000292 	bl	8b14 <printk>
    80c8:	eb0002ce 	bl	8c08 <rpi_rand32>
    80cc:	e59f30c0 	ldr	r3, [pc, #192]	; 8194 <notmain+0x184>
    80d0:	e0832093 	umull	r2, r3, r3, r0
    80d4:	e1a03123 	lsr	r3, r3, #2
    80d8:	e0833083 	add	r3, r3, r3, lsl #1
    80dc:	e0403083 	sub	r3, r0, r3, lsl #1
    80e0:	e28d2030 	add	r2, sp, #48	; 0x30
    80e4:	e0823103 	add	r3, r2, r3, lsl #2
    80e8:	e5136018 	ldr	r6, [r3, #-24]	; 0xffffffe8
    80ec:	e5134030 	ldr	r4, [r3, #-48]	; 0xffffffd0
    80f0:	eb0002c4 	bl	8c08 <rpi_rand32>
    80f4:	e200001f 	and	r0, r0, #31
    80f8:	e0844000 	add	r4, r4, r0
    80fc:	e0867004 	add	r7, r6, r4
    8100:	e3a03001 	mov	r3, #1
    8104:	e7c63004 	strb	r3, [r6, r4]
    8108:	e1a00005 	mov	r0, r5
    810c:	eb000280 	bl	8b14 <printk>
    8110:	e1a03007 	mov	r3, r7
    8114:	e1a02004 	mov	r2, r4
    8118:	e1a01006 	mov	r1, r6
    811c:	e59f0074 	ldr	r0, [pc, #116]	; 8198 <notmain+0x188>
    8120:	eb00027b 	bl	8b14 <printk>
    8124:	eb0001e5 	bl	88c0 <ck_heap_errors>
    8128:	e3500000 	cmp	r0, #0
    812c:	0a00000c 	beq	8164 <notmain+0x154>
    8130:	e59f0054 	ldr	r0, [pc, #84]	; 818c <notmain+0x17c>
    8134:	eb000276 	bl	8b14 <printk>
    8138:	e59f005c 	ldr	r0, [pc, #92]	; 819c <notmain+0x18c>
    813c:	eb000274 	bl	8b14 <printk>
    8140:	e28dd034 	add	sp, sp, #52	; 0x34
    8144:	e8bd80f0 	pop	{r4, r5, r6, r7, pc}
    8148:	eb00028c 	bl	8b80 <rpi_reset_putc>
    814c:	e3a0301b 	mov	r3, #27
    8150:	e59f202c 	ldr	r2, [pc, #44]	; 8184 <notmain+0x174>
    8154:	e59f102c 	ldr	r1, [pc, #44]	; 8188 <notmain+0x178>
    8158:	e59f0040 	ldr	r0, [pc, #64]	; 81a0 <notmain+0x190>
    815c:	eb00026c 	bl	8b14 <printk>
    8160:	eb0003fc 	bl	9158 <clean_reboot>
    8164:	eb000285 	bl	8b80 <rpi_reset_putc>
    8168:	e3a03026 	mov	r3, #38	; 0x26
    816c:	e59f2010 	ldr	r2, [pc, #16]	; 8184 <notmain+0x174>
    8170:	e59f1010 	ldr	r1, [pc, #16]	; 8188 <notmain+0x178>
    8174:	e59f0028 	ldr	r0, [pc, #40]	; 81a4 <notmain+0x194>
    8178:	eb000265 	bl	8b14 <printk>
    817c:	eb0003f5 	bl	9158 <clean_reboot>
    8180:	00009754 	andeq	r9, r0, r4, asr r7
    8184:	00009820 	andeq	r9, r0, r0, lsr #16
    8188:	0000976c 	andeq	r9, r0, ip, ror #14
    818c:	000097a0 	andeq	r9, r0, r0, lsr #15
    8190:	000097a8 	andeq	r9, r0, r8, lsr #15
    8194:	aaaaaaab 	bge	feab2c48 <__bss_end__+0xfeaa8ae0>
    8198:	000097c4 	andeq	r9, r0, r4, asr #15
    819c:	00009808 	andeq	r9, r0, r8, lsl #16
    81a0:	0000977c 	andeq	r9, r0, ip, ror r7
    81a4:	000097e8 	andeq	r9, r0, r8, ror #15

000081a8 <b_rz1_ptr>:
    81a8:	e2800038 	add	r0, r0, #56	; 0x38
    81ac:	e12fff1e 	bx	lr

000081b0 <b_alloc_ptr>:
    81b0:	e92d4010 	push	{r4, lr}
    81b4:	ebfffffb 	bl	81a8 <b_rz1_ptr>
    81b8:	e2800080 	add	r0, r0, #128	; 0x80
    81bc:	e8bd8010 	pop	{r4, pc}

000081c0 <b_rz2_ptr>:
    81c0:	e92d4010 	push	{r4, lr}
    81c4:	e1a04000 	mov	r4, r0
    81c8:	ebfffff8 	bl	81b0 <b_alloc_ptr>
    81cc:	e5943000 	ldr	r3, [r4]
    81d0:	e0800003 	add	r0, r0, r3
    81d4:	e8bd8010 	pop	{r4, pc}

000081d8 <b_rz2_nbytes>:
    81d8:	e5900004 	ldr	r0, [r0, #4]
    81dc:	e2800080 	add	r0, r0, #128	; 0x80
    81e0:	e12fff1e 	bx	lr

000081e4 <b_addr_to_hdr>:
    81e4:	e24000b8 	sub	r0, r0, #184	; 0xb8
    81e8:	e12fff1e 	bx	lr

000081ec <check_free_write>:
    81ec:	e92d41f0 	push	{r4, r5, r6, r7, r8, lr}
    81f0:	e1a05000 	mov	r5, r0
    81f4:	e1a06002 	mov	r6, r2
    81f8:	e3a04000 	mov	r4, #0
    81fc:	e1540001 	cmp	r4, r1
    8200:	2a000033 	bcs	82d4 <check_free_write+0xe8>
    8204:	e7d53004 	ldrb	r3, [r5, r4]
    8208:	e35300fe 	cmp	r3, #254	; 0xfe
    820c:	02844001 	addeq	r4, r4, #1
    8210:	0afffff9 	beq	81fc <check_free_write+0x10>
    8214:	e1a00006 	mov	r0, r6
    8218:	ebffffe4 	bl	81b0 <b_alloc_ptr>
    821c:	e0450000 	sub	r0, r5, r0
    8220:	e0804004 	add	r4, r0, r4
    8224:	e59f70b0 	ldr	r7, [pc, #176]	; 82dc <check_free_write+0xf0>
    8228:	e1a00007 	mov	r0, r7
    822c:	eb000238 	bl	8b14 <printk>
    8230:	e59f00a8 	ldr	r0, [pc, #168]	; 82e0 <check_free_write+0xf4>
    8234:	eb000236 	bl	8b14 <printk>
    8238:	e1a02004 	mov	r2, r4
    823c:	e1a01005 	mov	r1, r5
    8240:	e59f009c 	ldr	r0, [pc, #156]	; 82e4 <check_free_write+0xf8>
    8244:	eb000232 	bl	8b14 <printk>
    8248:	e1a00007 	mov	r0, r7
    824c:	eb000230 	bl	8b14 <printk>
    8250:	e5961000 	ldr	r1, [r6]
    8254:	e59f008c 	ldr	r0, [pc, #140]	; 82e8 <check_free_write+0xfc>
    8258:	eb00022d 	bl	8b14 <printk>
    825c:	e5963010 	ldr	r3, [r6, #16]
    8260:	e3530000 	cmp	r3, #0
    8264:	0a000006 	beq	8284 <check_free_write+0x98>
    8268:	e1a00007 	mov	r0, r7
    826c:	eb000228 	bl	8b14 <printk>
    8270:	e5963018 	ldr	r3, [r6, #24]
    8274:	e5962014 	ldr	r2, [r6, #20]
    8278:	e5961010 	ldr	r1, [r6, #16]
    827c:	e59f0068 	ldr	r0, [pc, #104]	; 82ec <check_free_write+0x100>
    8280:	eb000223 	bl	8b14 <printk>
    8284:	e5963008 	ldr	r3, [r6, #8]
    8288:	e353000c 	cmp	r3, #12
    828c:	0a000005 	beq	82a8 <check_free_write+0xbc>
    8290:	e59f0044 	ldr	r0, [pc, #68]	; 82dc <check_free_write+0xf0>
    8294:	eb00021e 	bl	8b14 <printk>
    8298:	e59f0050 	ldr	r0, [pc, #80]	; 82f0 <check_free_write+0x104>
    829c:	eb00021c 	bl	8b14 <printk>
    82a0:	e3a00000 	mov	r0, #0
    82a4:	e8bd81f0 	pop	{r4, r5, r6, r7, r8, pc}
    82a8:	e596301c 	ldr	r3, [r6, #28]
    82ac:	e3530000 	cmp	r3, #0
    82b0:	0afffff6 	beq	8290 <check_free_write+0xa4>
    82b4:	e59f0020 	ldr	r0, [pc, #32]	; 82dc <check_free_write+0xf0>
    82b8:	eb000215 	bl	8b14 <printk>
    82bc:	e5963024 	ldr	r3, [r6, #36]	; 0x24
    82c0:	e5962020 	ldr	r2, [r6, #32]
    82c4:	e596101c 	ldr	r1, [r6, #28]
    82c8:	e59f0024 	ldr	r0, [pc, #36]	; 82f4 <check_free_write+0x108>
    82cc:	eb000210 	bl	8b14 <printk>
    82d0:	eaffffee 	b	8290 <check_free_write+0xa4>
    82d4:	e3a00001 	mov	r0, #1
    82d8:	e8bd81f0 	pop	{r4, r5, r6, r7, r8, pc}
    82dc:	000097a0 	andeq	r9, r0, r0, lsr #15
    82e0:	00009828 	andeq	r9, r0, r8, lsr #16
    82e4:	00009830 	andeq	r9, r0, r0, lsr r8
    82e8:	00009854 	andeq	r9, r0, r4, asr r8
    82ec:	00009860 	andeq	r9, r0, r0, ror #16
    82f0:	0000989c 	muleq	r0, ip, r8
    82f4:	00009880 	andeq	r9, r0, r0, lsl #17

000082f8 <mark_mem>:
    82f8:	e92d4010 	push	{r4, lr}
    82fc:	e1a02001 	mov	r2, r1
    8300:	e3a010fe 	mov	r1, #254	; 0xfe
    8304:	eb0001fc 	bl	8afc <memset>
    8308:	e8bd8010 	pop	{r4, pc}

0000830c <hdr_cksum>:
    830c:	e92d4070 	push	{r4, r5, r6, lr}
    8310:	e1a04000 	mov	r4, r0
    8314:	e590500c 	ldr	r5, [r0, #12]
    8318:	e3a03000 	mov	r3, #0
    831c:	e580300c 	str	r3, [r0, #12]
    8320:	e3a01038 	mov	r1, #56	; 0x38
    8324:	eb0001b9 	bl	8a10 <fast_hash>
    8328:	e584500c 	str	r5, [r4, #12]
    832c:	e8bd8070 	pop	{r4, r5, r6, pc}

00008330 <check_hdr>:
    8330:	e92d4070 	push	{r4, r5, r6, lr}
    8334:	e1a04000 	mov	r4, r0
    8338:	e5903008 	ldr	r3, [r0, #8]
    833c:	e243300b 	sub	r3, r3, #11
    8340:	e3530001 	cmp	r3, #1
    8344:	8a000003 	bhi	8358 <check_hdr+0x28>
    8348:	e590500c 	ldr	r5, [r0, #12]
    834c:	ebffffee 	bl	830c <hdr_cksum>
    8350:	e1550000 	cmp	r5, r0
    8354:	0a000027 	beq	83f8 <check_hdr+0xc8>
    8358:	e59f50a0 	ldr	r5, [pc, #160]	; 8400 <check_hdr+0xd0>
    835c:	e1a00005 	mov	r0, r5
    8360:	eb0001eb 	bl	8b14 <printk>
    8364:	e59f0098 	ldr	r0, [pc, #152]	; 8404 <check_hdr+0xd4>
    8368:	eb0001e9 	bl	8b14 <printk>
    836c:	e3a02000 	mov	r2, #0
    8370:	e1a01004 	mov	r1, r4
    8374:	e59f008c 	ldr	r0, [pc, #140]	; 8408 <check_hdr+0xd8>
    8378:	eb0001e5 	bl	8b14 <printk>
    837c:	e1a00005 	mov	r0, r5
    8380:	eb0001e3 	bl	8b14 <printk>
    8384:	e5941000 	ldr	r1, [r4]
    8388:	e59f007c 	ldr	r0, [pc, #124]	; 840c <check_hdr+0xdc>
    838c:	eb0001e0 	bl	8b14 <printk>
    8390:	e5943010 	ldr	r3, [r4, #16]
    8394:	e3530000 	cmp	r3, #0
    8398:	0a000006 	beq	83b8 <check_hdr+0x88>
    839c:	e1a00005 	mov	r0, r5
    83a0:	eb0001db 	bl	8b14 <printk>
    83a4:	e5943018 	ldr	r3, [r4, #24]
    83a8:	e5942014 	ldr	r2, [r4, #20]
    83ac:	e5941010 	ldr	r1, [r4, #16]
    83b0:	e59f0058 	ldr	r0, [pc, #88]	; 8410 <check_hdr+0xe0>
    83b4:	eb0001d6 	bl	8b14 <printk>
    83b8:	e5943008 	ldr	r3, [r4, #8]
    83bc:	e353000c 	cmp	r3, #12
    83c0:	0a000001 	beq	83cc <check_hdr+0x9c>
    83c4:	e3a00000 	mov	r0, #0
    83c8:	e8bd8070 	pop	{r4, r5, r6, pc}
    83cc:	e594301c 	ldr	r3, [r4, #28]
    83d0:	e3530000 	cmp	r3, #0
    83d4:	0afffffa 	beq	83c4 <check_hdr+0x94>
    83d8:	e59f0020 	ldr	r0, [pc, #32]	; 8400 <check_hdr+0xd0>
    83dc:	eb0001cc 	bl	8b14 <printk>
    83e0:	e5943024 	ldr	r3, [r4, #36]	; 0x24
    83e4:	e5942020 	ldr	r2, [r4, #32]
    83e8:	e594101c 	ldr	r1, [r4, #28]
    83ec:	e59f0020 	ldr	r0, [pc, #32]	; 8414 <check_hdr+0xe4>
    83f0:	eb0001c7 	bl	8b14 <printk>
    83f4:	eafffff2 	b	83c4 <check_hdr+0x94>
    83f8:	e3a00001 	mov	r0, #1
    83fc:	e8bd8070 	pop	{r4, r5, r6, pc}
    8400:	000097a0 	andeq	r9, r0, r0, lsr #15
    8404:	00009828 	andeq	r9, r0, r8, lsr #16
    8408:	00009830 	andeq	r9, r0, r0, lsr r8
    840c:	00009854 	andeq	r9, r0, r4, asr r8
    8410:	00009860 	andeq	r9, r0, r0, ror #16
    8414:	00009880 	andeq	r9, r0, r0, lsl #17

00008418 <check_mem>:
    8418:	e92d41f0 	push	{r4, r5, r6, r7, r8, lr}
    841c:	e1a05000 	mov	r5, r0
    8420:	e1a06002 	mov	r6, r2
    8424:	e3a04000 	mov	r4, #0
    8428:	e1540001 	cmp	r4, r1
    842c:	2a000030 	bcs	84f4 <check_mem+0xdc>
    8430:	e7d53004 	ldrb	r3, [r5, r4]
    8434:	e35300fe 	cmp	r3, #254	; 0xfe
    8438:	02844001 	addeq	r4, r4, #1
    843c:	0afffff9 	beq	8428 <check_mem+0x10>
    8440:	e1a00006 	mov	r0, r6
    8444:	ebffff59 	bl	81b0 <b_alloc_ptr>
    8448:	e0450000 	sub	r0, r5, r0
    844c:	e0804004 	add	r4, r0, r4
    8450:	e59f70a4 	ldr	r7, [pc, #164]	; 84fc <check_mem+0xe4>
    8454:	e1a00007 	mov	r0, r7
    8458:	eb0001ad 	bl	8b14 <printk>
    845c:	e59f009c 	ldr	r0, [pc, #156]	; 8500 <check_mem+0xe8>
    8460:	eb0001ab 	bl	8b14 <printk>
    8464:	e5961000 	ldr	r1, [r6]
    8468:	e1a02004 	mov	r2, r4
    846c:	e0451001 	sub	r1, r5, r1
    8470:	e59f008c 	ldr	r0, [pc, #140]	; 8504 <check_mem+0xec>
    8474:	eb0001a6 	bl	8b14 <printk>
    8478:	e1a00007 	mov	r0, r7
    847c:	eb0001a4 	bl	8b14 <printk>
    8480:	e5961000 	ldr	r1, [r6]
    8484:	e59f007c 	ldr	r0, [pc, #124]	; 8508 <check_mem+0xf0>
    8488:	eb0001a1 	bl	8b14 <printk>
    848c:	e5963010 	ldr	r3, [r6, #16]
    8490:	e3530000 	cmp	r3, #0
    8494:	0a000006 	beq	84b4 <check_mem+0x9c>
    8498:	e1a00007 	mov	r0, r7
    849c:	eb00019c 	bl	8b14 <printk>
    84a0:	e5963018 	ldr	r3, [r6, #24]
    84a4:	e5962014 	ldr	r2, [r6, #20]
    84a8:	e5961010 	ldr	r1, [r6, #16]
    84ac:	e59f0058 	ldr	r0, [pc, #88]	; 850c <check_mem+0xf4>
    84b0:	eb000197 	bl	8b14 <printk>
    84b4:	e5963008 	ldr	r3, [r6, #8]
    84b8:	e353000c 	cmp	r3, #12
    84bc:	0a000001 	beq	84c8 <check_mem+0xb0>
    84c0:	e3a00000 	mov	r0, #0
    84c4:	e8bd81f0 	pop	{r4, r5, r6, r7, r8, pc}
    84c8:	e596301c 	ldr	r3, [r6, #28]
    84cc:	e3530000 	cmp	r3, #0
    84d0:	0afffffa 	beq	84c0 <check_mem+0xa8>
    84d4:	e59f0020 	ldr	r0, [pc, #32]	; 84fc <check_mem+0xe4>
    84d8:	eb00018d 	bl	8b14 <printk>
    84dc:	e5963024 	ldr	r3, [r6, #36]	; 0x24
    84e0:	e5962020 	ldr	r2, [r6, #32]
    84e4:	e596101c 	ldr	r1, [r6, #28]
    84e8:	e59f0020 	ldr	r0, [pc, #32]	; 8510 <check_mem+0xf8>
    84ec:	eb000188 	bl	8b14 <printk>
    84f0:	eafffff2 	b	84c0 <check_mem+0xa8>
    84f4:	e3a00001 	mov	r0, #1
    84f8:	e8bd81f0 	pop	{r4, r5, r6, r7, r8, pc}
    84fc:	000097a0 	andeq	r9, r0, r0, lsr #15
    8500:	00009828 	andeq	r9, r0, r8, lsr #16
    8504:	00009830 	andeq	r9, r0, r0, lsr r8
    8508:	00009854 	andeq	r9, r0, r4, asr r8
    850c:	00009860 	andeq	r9, r0, r0, ror #16
    8510:	00009880 	andeq	r9, r0, r0, lsl #17

00008514 <check_block>:
    8514:	e92d4070 	push	{r4, r5, r6, lr}
    8518:	e1a04000 	mov	r4, r0
    851c:	ebffff83 	bl	8330 <check_hdr>
    8520:	e3500000 	cmp	r0, #0
    8524:	08bd8070 	popeq	{r4, r5, r6, pc}
    8528:	e1a00004 	mov	r0, r4
    852c:	ebffff1d 	bl	81a8 <b_rz1_ptr>
    8530:	e1a02004 	mov	r2, r4
    8534:	e3a01080 	mov	r1, #128	; 0x80
    8538:	ebffffb6 	bl	8418 <check_mem>
    853c:	e3500000 	cmp	r0, #0
    8540:	08bd8070 	popeq	{r4, r5, r6, pc}
    8544:	e1a00004 	mov	r0, r4
    8548:	ebffff1c 	bl	81c0 <b_rz2_ptr>
    854c:	e1a05000 	mov	r5, r0
    8550:	e1a00004 	mov	r0, r4
    8554:	ebffff1f 	bl	81d8 <b_rz2_nbytes>
    8558:	e1a01000 	mov	r1, r0
    855c:	e1a02004 	mov	r2, r4
    8560:	e1a00005 	mov	r0, r5
    8564:	ebffffab 	bl	8418 <check_mem>
    8568:	e3500000 	cmp	r0, #0
    856c:	08bd8070 	popeq	{r4, r5, r6, pc}
    8570:	e3a00001 	mov	r0, #1
    8574:	e8bd8070 	pop	{r4, r5, r6, pc}

00008578 <ck_init>:
    8578:	e92d4070 	push	{r4, r5, r6, lr}
    857c:	e59f3054 	ldr	r3, [pc, #84]	; 85d8 <ck_init+0x60>
    8580:	e5933000 	ldr	r3, [r3]
    8584:	e3130007 	tst	r3, #7
    8588:	1a00000b 	bne	85bc <ck_init+0x44>
    858c:	e1a04000 	mov	r4, r0
    8590:	e1a05001 	mov	r5, r1
    8594:	e3a02080 	mov	r2, #128	; 0x80
    8598:	e3a01038 	mov	r1, #56	; 0x38
    859c:	e59f0038 	ldr	r0, [pc, #56]	; 85dc <ck_init+0x64>
    85a0:	eb00015b 	bl	8b14 <printk>
    85a4:	e59f302c 	ldr	r3, [pc, #44]	; 85d8 <ck_init+0x60>
    85a8:	e5834000 	str	r4, [r3]
    85ac:	e5834004 	str	r4, [r3, #4]
    85b0:	e0844005 	add	r4, r4, r5
    85b4:	e5834008 	str	r4, [r3, #8]
    85b8:	e8bd8070 	pop	{r4, r5, r6, pc}
    85bc:	eb00016f 	bl	8b80 <rpi_reset_putc>
    85c0:	e3a0300a 	mov	r3, #10
    85c4:	e59f2014 	ldr	r2, [pc, #20]	; 85e0 <ck_init+0x68>
    85c8:	e59f1014 	ldr	r1, [pc, #20]	; 85e4 <ck_init+0x6c>
    85cc:	e59f0014 	ldr	r0, [pc, #20]	; 85e8 <ck_init+0x70>
    85d0:	eb00014f 	bl	8b14 <printk>
    85d4:	eb0002df 	bl	9158 <clean_reboot>
    85d8:	00009d5c 	andeq	r9, r0, ip, asr sp
    85dc:	000098ec 	andeq	r9, r0, ip, ror #17
    85e0:	00009b14 	andeq	r9, r0, r4, lsl fp
    85e4:	000098b8 			; <UNDEFINED> instruction: 0x000098b8
    85e8:	000098c4 	andeq	r9, r0, r4, asr #17

000085ec <ckfree>:
    85ec:	e92d41f0 	push	{r4, r5, r6, r7, r8, lr}
    85f0:	e1a05000 	mov	r5, r0
    85f4:	e1a07001 	mov	r7, r1
    85f8:	e1a06002 	mov	r6, r2
    85fc:	e1a08003 	mov	r8, r3
    8600:	ebfffef7 	bl	81e4 <b_addr_to_hdr>
    8604:	e59fc080 	ldr	ip, [pc, #128]	; 868c <ckfree+0xa0>
    8608:	e59cc004 	ldr	ip, [ip, #4]
    860c:	e35c0000 	cmp	ip, #0
    8610:	0a000016 	beq	8670 <ckfree+0x84>
    8614:	e1a04000 	mov	r4, r0
    8618:	e59f0070 	ldr	r0, [pc, #112]	; 8690 <ckfree+0xa4>
    861c:	eb00013c 	bl	8b14 <printk>
    8620:	e1a01005 	mov	r1, r5
    8624:	e59f0068 	ldr	r0, [pc, #104]	; 8694 <ckfree+0xa8>
    8628:	eb000139 	bl	8b14 <printk>
    862c:	e1a00004 	mov	r0, r4
    8630:	ebffffb7 	bl	8514 <check_block>
    8634:	e3500000 	cmp	r0, #0
    8638:	08bd81f0 	popeq	{r4, r5, r6, r7, r8, pc}
    863c:	e584701c 	str	r7, [r4, #28]
    8640:	e5846020 	str	r6, [r4, #32]
    8644:	e5848024 	str	r8, [r4, #36]	; 0x24
    8648:	e3a0300c 	mov	r3, #12
    864c:	e5843008 	str	r3, [r4, #8]
    8650:	e1a00004 	mov	r0, r4
    8654:	ebfffed5 	bl	81b0 <b_alloc_ptr>
    8658:	e5941000 	ldr	r1, [r4]
    865c:	ebffff25 	bl	82f8 <mark_mem>
    8660:	e1a00004 	mov	r0, r4
    8664:	ebffff28 	bl	830c <hdr_cksum>
    8668:	e584000c 	str	r0, [r4, #12]
    866c:	e8bd81f0 	pop	{r4, r5, r6, r7, r8, pc}
    8670:	eb000142 	bl	8b80 <rpi_reset_putc>
    8674:	e3a03074 	mov	r3, #116	; 0x74
    8678:	e59f2018 	ldr	r2, [pc, #24]	; 8698 <ckfree+0xac>
    867c:	e59f1018 	ldr	r1, [pc, #24]	; 869c <ckfree+0xb0>
    8680:	e59f0018 	ldr	r0, [pc, #24]	; 86a0 <ckfree+0xb4>
    8684:	eb000122 	bl	8b14 <printk>
    8688:	eb0002b2 	bl	9158 <clean_reboot>
    868c:	00009d5c 	andeq	r9, r0, ip, asr sp
    8690:	000097a0 	andeq	r9, r0, r0, lsr #15
    8694:	0000993c 	andeq	r9, r0, ip, lsr r9
    8698:	00009b1c 	andeq	r9, r0, ip, lsl fp
    869c:	000098b8 			; <UNDEFINED> instruction: 0x000098b8
    86a0:	00009908 	andeq	r9, r0, r8, lsl #18

000086a4 <ckalloc>:
    86a4:	e92d43f0 	push	{r4, r5, r6, r7, r8, r9, lr}
    86a8:	e24dd00c 	sub	sp, sp, #12
    86ac:	e1a06003 	mov	r6, r3
    86b0:	e59f31d4 	ldr	r3, [pc, #468]	; 888c <ckalloc+0x1e8>
    86b4:	e5933004 	ldr	r3, [r3, #4]
    86b8:	e3530000 	cmp	r3, #0
    86bc:	0a000042 	beq	87cc <ckalloc+0x128>
    86c0:	e1a05000 	mov	r5, r0
    86c4:	e1a08001 	mov	r8, r1
    86c8:	e1a07002 	mov	r7, r2
    86cc:	e59f01bc 	ldr	r0, [pc, #444]	; 8890 <ckalloc+0x1ec>
    86d0:	eb00010f 	bl	8b14 <printk>
    86d4:	e1a01005 	mov	r1, r5
    86d8:	e59f01b4 	ldr	r0, [pc, #436]	; 8894 <ckalloc+0x1f0>
    86dc:	eb00010c 	bl	8b14 <printk>
    86e0:	e2850007 	add	r0, r5, #7
    86e4:	e3c00007 	bic	r0, r0, #7
    86e8:	e2809f4e 	add	r9, r0, #312	; 0x138
    86ec:	e1550009 	cmp	r5, r9
    86f0:	8a00003c 	bhi	87e8 <ckalloc+0x144>
    86f4:	e59f3190 	ldr	r3, [pc, #400]	; 888c <ckalloc+0x1e8>
    86f8:	e5934004 	ldr	r4, [r3, #4]
    86fc:	e0842009 	add	r2, r4, r9
    8700:	e5933008 	ldr	r3, [r3, #8]
    8704:	e1520003 	cmp	r2, r3
    8708:	2a000043 	bcs	881c <ckalloc+0x178>
    870c:	e5845000 	str	r5, [r4]
    8710:	e0400005 	sub	r0, r0, r5
    8714:	e5840004 	str	r0, [r4, #4]
    8718:	e3a0300b 	mov	r3, #11
    871c:	e5843008 	str	r3, [r4, #8]
    8720:	e5848010 	str	r8, [r4, #16]
    8724:	e5847014 	str	r7, [r4, #20]
    8728:	e5846018 	str	r6, [r4, #24]
    872c:	e3a03001 	mov	r3, #1
    8730:	e5843028 	str	r3, [r4, #40]	; 0x28
    8734:	e3a03000 	mov	r3, #0
    8738:	e584302c 	str	r3, [r4, #44]	; 0x2c
    873c:	e1a00004 	mov	r0, r4
    8740:	ebfffe98 	bl	81a8 <b_rz1_ptr>
    8744:	e3a01080 	mov	r1, #128	; 0x80
    8748:	ebfffeea 	bl	82f8 <mark_mem>
    874c:	e1a00004 	mov	r0, r4
    8750:	ebfffe9a 	bl	81c0 <b_rz2_ptr>
    8754:	e1a06000 	mov	r6, r0
    8758:	e1a00004 	mov	r0, r4
    875c:	ebfffe9d 	bl	81d8 <b_rz2_nbytes>
    8760:	e1a01000 	mov	r1, r0
    8764:	e1a00006 	mov	r0, r6
    8768:	ebfffee2 	bl	82f8 <mark_mem>
    876c:	e1a00004 	mov	r0, r4
    8770:	ebfffee5 	bl	830c <hdr_cksum>
    8774:	e584000c 	str	r0, [r4, #12]
    8778:	e59f210c 	ldr	r2, [pc, #268]	; 888c <ckalloc+0x1e8>
    877c:	e5923004 	ldr	r3, [r2, #4]
    8780:	e0833009 	add	r3, r3, r9
    8784:	e5823004 	str	r3, [r2, #4]
    8788:	e1a00004 	mov	r0, r4
    878c:	ebffff60 	bl	8514 <check_block>
    8790:	e3500000 	cmp	r0, #0
    8794:	0a000035 	beq	8870 <ckalloc+0x1cc>
    8798:	e1a00004 	mov	r0, r4
    879c:	ebfffe83 	bl	81b0 <b_alloc_ptr>
    87a0:	e1a04000 	mov	r4, r0
    87a4:	e59f00e4 	ldr	r0, [pc, #228]	; 8890 <ckalloc+0x1ec>
    87a8:	eb0000d9 	bl	8b14 <printk>
    87ac:	e1a03004 	mov	r3, r4
    87b0:	e1a02009 	mov	r2, r9
    87b4:	e1a01005 	mov	r1, r5
    87b8:	e59f00d8 	ldr	r0, [pc, #216]	; 8898 <ckalloc+0x1f4>
    87bc:	eb0000d4 	bl	8b14 <printk>
    87c0:	e1a00004 	mov	r0, r4
    87c4:	e28dd00c 	add	sp, sp, #12
    87c8:	e8bd83f0 	pop	{r4, r5, r6, r7, r8, r9, pc}
    87cc:	eb0000eb 	bl	8b80 <rpi_reset_putc>
    87d0:	e3a03087 	mov	r3, #135	; 0x87
    87d4:	e59f20c0 	ldr	r2, [pc, #192]	; 889c <ckalloc+0x1f8>
    87d8:	e59f10c0 	ldr	r1, [pc, #192]	; 88a0 <ckalloc+0x1fc>
    87dc:	e59f00c0 	ldr	r0, [pc, #192]	; 88a4 <ckalloc+0x200>
    87e0:	eb0000cb 	bl	8b14 <printk>
    87e4:	eb00025b 	bl	9158 <clean_reboot>
    87e8:	e59f00b8 	ldr	r0, [pc, #184]	; 88a8 <ckalloc+0x204>
    87ec:	eb0000c8 	bl	8b14 <printk>
    87f0:	e1a01005 	mov	r1, r5
    87f4:	e59f00b0 	ldr	r0, [pc, #176]	; 88ac <ckalloc+0x208>
    87f8:	eb0000c5 	bl	8b14 <printk>
    87fc:	eb0000df 	bl	8b80 <rpi_reset_putc>
    8800:	e58d5000 	str	r5, [sp]
    8804:	e3a0308f 	mov	r3, #143	; 0x8f
    8808:	e59f208c 	ldr	r2, [pc, #140]	; 889c <ckalloc+0x1f8>
    880c:	e59f108c 	ldr	r1, [pc, #140]	; 88a0 <ckalloc+0x1fc>
    8810:	e59f0098 	ldr	r0, [pc, #152]	; 88b0 <ckalloc+0x20c>
    8814:	eb0000be 	bl	8b14 <printk>
    8818:	eb00024e 	bl	9158 <clean_reboot>
    881c:	e59f0084 	ldr	r0, [pc, #132]	; 88a8 <ckalloc+0x204>
    8820:	eb0000bb 	bl	8b14 <printk>
    8824:	e59f4060 	ldr	r4, [pc, #96]	; 888c <ckalloc+0x1e8>
    8828:	e5941008 	ldr	r1, [r4, #8]
    882c:	e5943004 	ldr	r3, [r4, #4]
    8830:	e1a02009 	mov	r2, r9
    8834:	e0411003 	sub	r1, r1, r3
    8838:	e59f0074 	ldr	r0, [pc, #116]	; 88b4 <ckalloc+0x210>
    883c:	eb0000b4 	bl	8b14 <printk>
    8840:	eb0000ce 	bl	8b80 <rpi_reset_putc>
    8844:	e58d9004 	str	r9, [sp, #4]
    8848:	e5943008 	ldr	r3, [r4, #8]
    884c:	e5942004 	ldr	r2, [r4, #4]
    8850:	e0433002 	sub	r3, r3, r2
    8854:	e58d3000 	str	r3, [sp]
    8858:	e3a03092 	mov	r3, #146	; 0x92
    885c:	e59f2038 	ldr	r2, [pc, #56]	; 889c <ckalloc+0x1f8>
    8860:	e59f1038 	ldr	r1, [pc, #56]	; 88a0 <ckalloc+0x1fc>
    8864:	e59f004c 	ldr	r0, [pc, #76]	; 88b8 <ckalloc+0x214>
    8868:	eb0000a9 	bl	8b14 <printk>
    886c:	eb000239 	bl	9158 <clean_reboot>
    8870:	eb0000c2 	bl	8b80 <rpi_reset_putc>
    8874:	e3a030a1 	mov	r3, #161	; 0xa1
    8878:	e59f201c 	ldr	r2, [pc, #28]	; 889c <ckalloc+0x1f8>
    887c:	e59f101c 	ldr	r1, [pc, #28]	; 88a0 <ckalloc+0x1fc>
    8880:	e59f0034 	ldr	r0, [pc, #52]	; 88bc <ckalloc+0x218>
    8884:	eb0000a2 	bl	8b14 <printk>
    8888:	eb000232 	bl	9158 <clean_reboot>
    888c:	00009d5c 	andeq	r9, r0, ip, asr sp
    8890:	000097a0 	andeq	r9, r0, r0, lsr #15
    8894:	00009948 	andeq	r9, r0, r8, asr #18
    8898:	00009a54 	andeq	r9, r0, r4, asr sl
    889c:	00009b24 	andeq	r9, r0, r4, lsr #22
    88a0:	000098b8 			; <UNDEFINED> instruction: 0x000098b8
    88a4:	00009908 	andeq	r9, r0, r8, lsl #18
    88a8:	00009960 	andeq	r9, r0, r0, ror #18
    88ac:	0000996c 	andeq	r9, r0, ip, ror #18
    88b0:	00009994 	muleq	r0, r4, r9
    88b4:	000099cc 	andeq	r9, r0, ip, asr #19
    88b8:	000099f8 	strdeq	r9, [r0], -r8
    88bc:	00009a34 	andeq	r9, r0, r4, lsr sl

000088c0 <ck_heap_errors>:
    88c0:	e92d41f0 	push	{r4, r5, r6, r7, r8, lr}
    88c4:	e59f4130 	ldr	r4, [pc, #304]	; 89fc <ck_heap_errors+0x13c>
    88c8:	e5943004 	ldr	r3, [r4, #4]
    88cc:	e5945000 	ldr	r5, [r4]
    88d0:	e0435005 	sub	r5, r3, r5
    88d4:	e5946008 	ldr	r6, [r4, #8]
    88d8:	e0466003 	sub	r6, r6, r3
    88dc:	e59f011c 	ldr	r0, [pc, #284]	; 8a00 <ck_heap_errors+0x140>
    88e0:	eb00008b 	bl	8b14 <printk>
    88e4:	e1a02006 	mov	r2, r6
    88e8:	e1a01005 	mov	r1, r5
    88ec:	e59f0110 	ldr	r0, [pc, #272]	; 8a04 <ck_heap_errors+0x144>
    88f0:	eb000087 	bl	8b14 <printk>
    88f4:	e5944000 	ldr	r4, [r4]
    88f8:	e3a05000 	mov	r5, #0
    88fc:	e1a06005 	mov	r6, r5
    8900:	ea000012 	b	8950 <ck_heap_errors+0x90>
    8904:	e2866001 	add	r6, r6, #1
    8908:	e2855001 	add	r5, r5, #1
    890c:	e3560000 	cmp	r6, #0
    8910:	0a000033 	beq	89e4 <ck_heap_errors+0x124>
    8914:	e59f00e4 	ldr	r0, [pc, #228]	; 8a00 <ck_heap_errors+0x140>
    8918:	eb00007d 	bl	8b14 <printk>
    891c:	e1a02006 	mov	r2, r6
    8920:	e1a01005 	mov	r1, r5
    8924:	e59f00dc 	ldr	r0, [pc, #220]	; 8a08 <ck_heap_errors+0x148>
    8928:	eb000079 	bl	8b14 <printk>
    892c:	e1a00006 	mov	r0, r6
    8930:	e8bd81f0 	pop	{r4, r5, r6, r7, r8, pc}
    8934:	e2866001 	add	r6, r6, #1
    8938:	e2855001 	add	r5, r5, #1
    893c:	e5943000 	ldr	r3, [r4]
    8940:	e5942004 	ldr	r2, [r4, #4]
    8944:	e0833002 	add	r3, r3, r2
    8948:	e2833f4e 	add	r3, r3, #312	; 0x138
    894c:	e0844003 	add	r4, r4, r3
    8950:	e59f30a4 	ldr	r3, [pc, #164]	; 89fc <ck_heap_errors+0x13c>
    8954:	e5933004 	ldr	r3, [r3, #4]
    8958:	e1530004 	cmp	r3, r4
    895c:	9affffea 	bls	890c <ck_heap_errors+0x4c>
    8960:	e1a00004 	mov	r0, r4
    8964:	ebfffe71 	bl	8330 <check_hdr>
    8968:	e3500000 	cmp	r0, #0
    896c:	0affffe4 	beq	8904 <ck_heap_errors+0x44>
    8970:	e1a00004 	mov	r0, r4
    8974:	ebfffe0b 	bl	81a8 <b_rz1_ptr>
    8978:	e1a02004 	mov	r2, r4
    897c:	e3a01080 	mov	r1, #128	; 0x80
    8980:	ebfffea4 	bl	8418 <check_mem>
    8984:	e3500000 	cmp	r0, #0
    8988:	0affffe9 	beq	8934 <ck_heap_errors+0x74>
    898c:	e1a00004 	mov	r0, r4
    8990:	ebfffe0a 	bl	81c0 <b_rz2_ptr>
    8994:	e1a07000 	mov	r7, r0
    8998:	e1a00004 	mov	r0, r4
    899c:	ebfffe0d 	bl	81d8 <b_rz2_nbytes>
    89a0:	e1a01000 	mov	r1, r0
    89a4:	e1a02004 	mov	r2, r4
    89a8:	e1a00007 	mov	r0, r7
    89ac:	ebfffe99 	bl	8418 <check_mem>
    89b0:	e3500000 	cmp	r0, #0
    89b4:	0affffde 	beq	8934 <ck_heap_errors+0x74>
    89b8:	e5943008 	ldr	r3, [r4, #8]
    89bc:	e353000c 	cmp	r3, #12
    89c0:	1affffdc 	bne	8938 <ck_heap_errors+0x78>
    89c4:	e1a00004 	mov	r0, r4
    89c8:	ebfffdf8 	bl	81b0 <b_alloc_ptr>
    89cc:	e1a02004 	mov	r2, r4
    89d0:	e5941000 	ldr	r1, [r4]
    89d4:	ebfffe04 	bl	81ec <check_free_write>
    89d8:	e3500000 	cmp	r0, #0
    89dc:	02866001 	addeq	r6, r6, #1
    89e0:	eaffffd4 	b	8938 <ck_heap_errors+0x78>
    89e4:	e59f0014 	ldr	r0, [pc, #20]	; 8a00 <ck_heap_errors+0x140>
    89e8:	eb000049 	bl	8b14 <printk>
    89ec:	e1a01005 	mov	r1, r5
    89f0:	e59f0014 	ldr	r0, [pc, #20]	; 8a0c <ck_heap_errors+0x14c>
    89f4:	eb000046 	bl	8b14 <printk>
    89f8:	eaffffcb 	b	892c <ck_heap_errors+0x6c>
    89fc:	00009d5c 	andeq	r9, r0, ip, asr sp
    8a00:	000097a0 	andeq	r9, r0, r0, lsr #15
    8a04:	00009a84 	andeq	r9, r0, r4, lsl #21
    8a08:	00009abc 			; <UNDEFINED> instruction: 0x00009abc
    8a0c:	00009ae4 	andeq	r9, r0, r4, ror #21

00008a10 <fast_hash>:
    8a10:	e3500000 	cmp	r0, #0
    8a14:	13510000 	cmpne	r1, #0
    8a18:	da000035 	ble	8af4 <fast_hash+0xe4>
    8a1c:	e52de004 	push	{lr}		; (str lr, [sp, #-4]!)
    8a20:	e1a03001 	mov	r3, r1
    8a24:	e1a0c000 	mov	ip, r0
    8a28:	e201e003 	and	lr, r1, #3
    8a2c:	e1a01141 	asr	r1, r1, #2
    8a30:	e3510000 	cmp	r1, #0
    8a34:	da00000c 	ble	8a6c <fast_hash+0x5c>
    8a38:	e5dc0001 	ldrb	r0, [ip, #1]
    8a3c:	e5dc2000 	ldrb	r2, [ip]
    8a40:	e0822400 	add	r2, r2, r0, lsl #8
    8a44:	e0822003 	add	r2, r2, r3
    8a48:	e5dc0003 	ldrb	r0, [ip, #3]
    8a4c:	e5dc3002 	ldrb	r3, [ip, #2]
    8a50:	e0833400 	add	r3, r3, r0, lsl #8
    8a54:	e0223583 	eor	r3, r2, r3, lsl #11
    8a58:	e0233802 	eor	r3, r3, r2, lsl #16
    8a5c:	e28cc004 	add	ip, ip, #4
    8a60:	e08335a3 	add	r3, r3, r3, lsr #11
    8a64:	e2411001 	sub	r1, r1, #1
    8a68:	eafffff0 	b	8a30 <fast_hash+0x20>
    8a6c:	e35e0002 	cmp	lr, #2
    8a70:	0a000013 	beq	8ac4 <fast_hash+0xb4>
    8a74:	e35e0003 	cmp	lr, #3
    8a78:	0a000008 	beq	8aa0 <fast_hash+0x90>
    8a7c:	e35e0001 	cmp	lr, #1
    8a80:	0a000016 	beq	8ae0 <fast_hash+0xd0>
    8a84:	e0230183 	eor	r0, r3, r3, lsl #3
    8a88:	e08002a0 	add	r0, r0, r0, lsr #5
    8a8c:	e0200200 	eor	r0, r0, r0, lsl #4
    8a90:	e08008a0 	add	r0, r0, r0, lsr #17
    8a94:	e0200c80 	eor	r0, r0, r0, lsl #25
    8a98:	e0800320 	add	r0, r0, r0, lsr #6
    8a9c:	e49df004 	pop	{pc}		; (ldr pc, [sp], #4)
    8aa0:	e5dc1001 	ldrb	r1, [ip, #1]
    8aa4:	e5dc2000 	ldrb	r2, [ip]
    8aa8:	e0822401 	add	r2, r2, r1, lsl #8
    8aac:	e0823003 	add	r3, r2, r3
    8ab0:	e0233803 	eor	r3, r3, r3, lsl #16
    8ab4:	e1dc20d2 	ldrsb	r2, [ip, #2]
    8ab8:	e0233902 	eor	r3, r3, r2, lsl #18
    8abc:	e08335a3 	add	r3, r3, r3, lsr #11
    8ac0:	eaffffef 	b	8a84 <fast_hash+0x74>
    8ac4:	e5dc1001 	ldrb	r1, [ip, #1]
    8ac8:	e5dc2000 	ldrb	r2, [ip]
    8acc:	e0822401 	add	r2, r2, r1, lsl #8
    8ad0:	e0823003 	add	r3, r2, r3
    8ad4:	e0233583 	eor	r3, r3, r3, lsl #11
    8ad8:	e08338a3 	add	r3, r3, r3, lsr #17
    8adc:	eaffffe8 	b	8a84 <fast_hash+0x74>
    8ae0:	e1dc20d0 	ldrsb	r2, [ip]
    8ae4:	e0823003 	add	r3, r2, r3
    8ae8:	e0233503 	eor	r3, r3, r3, lsl #10
    8aec:	e08330a3 	add	r3, r3, r3, lsr #1
    8af0:	eaffffe3 	b	8a84 <fast_hash+0x74>
    8af4:	e3a00000 	mov	r0, #0
    8af8:	e12fff1e 	bx	lr

00008afc <memset>:
    8afc:	e0802002 	add	r2, r0, r2
    8b00:	e1a03000 	mov	r3, r0
    8b04:	e1530002 	cmp	r3, r2
    8b08:	212fff1e 	bxcs	lr
    8b0c:	e4c31001 	strb	r1, [r3], #1
    8b10:	eafffffb 	b	8b04 <memset+0x8>

00008b14 <printk>:
    8b14:	e92d000f 	push	{r0, r1, r2, r3}
    8b18:	e92d4030 	push	{r4, r5, lr}
    8b1c:	e24dd00c 	sub	sp, sp, #12
    8b20:	e28d301c 	add	r3, sp, #28
    8b24:	e58d3004 	str	r3, [sp, #4]
    8b28:	e59f5034 	ldr	r5, [pc, #52]	; 8b64 <printk+0x50>
    8b2c:	e59d2018 	ldr	r2, [sp, #24]
    8b30:	e3a01b01 	mov	r1, #1024	; 0x400
    8b34:	e1a00005 	mov	r0, r5
    8b38:	eb0000da 	bl	8ea8 <va_printk>
    8b3c:	e1a04000 	mov	r4, r0
    8b40:	e59f3020 	ldr	r3, [pc, #32]	; 8b68 <printk+0x54>
    8b44:	e5933000 	ldr	r3, [r3]
    8b48:	e1a00005 	mov	r0, r5
    8b4c:	e12fff33 	blx	r3
    8b50:	e1a00004 	mov	r0, r4
    8b54:	e28dd00c 	add	sp, sp, #12
    8b58:	e8bd4030 	pop	{r4, r5, lr}
    8b5c:	e28dd010 	add	sp, sp, #16
    8b60:	e12fff1e 	bx	lr
    8b64:	00009d68 	andeq	r9, r0, r8, ror #26
    8b68:	00009744 	andeq	r9, r0, r4, asr #14

00008b6c <internal_putchar>:
    8b6c:	e92d4010 	push	{r4, lr}
    8b70:	e1a04000 	mov	r4, r0
    8b74:	eb00022e 	bl	9434 <uart_putc>
    8b78:	e1a00004 	mov	r0, r4
    8b7c:	e8bd8010 	pop	{r4, pc}

00008b80 <rpi_reset_putc>:
    8b80:	e59f3008 	ldr	r3, [pc, #8]	; 8b90 <rpi_reset_putc+0x10>
    8b84:	e59f2008 	ldr	r2, [pc, #8]	; 8b94 <rpi_reset_putc+0x14>
    8b88:	e5832000 	str	r2, [r3]
    8b8c:	e12fff1e 	bx	lr
    8b90:	00009740 	andeq	r9, r0, r0, asr #14
    8b94:	00008b6c 	andeq	r8, r0, ip, ror #22

00008b98 <rpi_set_putc>:
    8b98:	e59f3004 	ldr	r3, [pc, #4]	; 8ba4 <rpi_set_putc+0xc>
    8b9c:	e5830000 	str	r0, [r3]
    8ba0:	e12fff1e 	bx	lr
    8ba4:	00009740 	andeq	r9, r0, r0, asr #14

00008ba8 <internal_putk>:
    8ba8:	e92d4010 	push	{r4, lr}
    8bac:	e1a04000 	mov	r4, r0
    8bb0:	e5d40000 	ldrb	r0, [r4]
    8bb4:	e3500000 	cmp	r0, #0
    8bb8:	0a000004 	beq	8bd0 <internal_putk+0x28>
    8bbc:	e59f3014 	ldr	r3, [pc, #20]	; 8bd8 <internal_putk+0x30>
    8bc0:	e5933000 	ldr	r3, [r3]
    8bc4:	e12fff33 	blx	r3
    8bc8:	e2844001 	add	r4, r4, #1
    8bcc:	eafffff7 	b	8bb0 <internal_putk+0x8>
    8bd0:	e3a00001 	mov	r0, #1
    8bd4:	e8bd8010 	pop	{r4, pc}
    8bd8:	00009740 	andeq	r9, r0, r0, asr #14

00008bdc <rpi_rand16>:
    8bdc:	e59f2020 	ldr	r2, [pc, #32]	; 8c04 <rpi_rand16+0x28>
    8be0:	e1d230b0 	ldrh	r3, [r2]
    8be4:	e0230123 	eor	r0, r3, r3, lsr #2
    8be8:	e02001a3 	eor	r0, r0, r3, lsr #3
    8bec:	e02002a3 	eor	r0, r0, r3, lsr #5
    8bf0:	e2000001 	and	r0, r0, #1
    8bf4:	e1a030a3 	lsr	r3, r3, #1
    8bf8:	e1830780 	orr	r0, r3, r0, lsl #15
    8bfc:	e1c200b0 	strh	r0, [r2]
    8c00:	e12fff1e 	bx	lr
    8c04:	00009748 	andeq	r9, r0, r8, asr #14

00008c08 <rpi_rand32>:
    8c08:	e92d4010 	push	{r4, lr}
    8c0c:	ebfffff2 	bl	8bdc <rpi_rand16>
    8c10:	e1a04800 	lsl	r4, r0, #16
    8c14:	ebfffff0 	bl	8bdc <rpi_rand16>
    8c18:	e1840000 	orr	r0, r4, r0
    8c1c:	e8bd8010 	pop	{r4, pc}

00008c20 <rpi_reset>:
    8c20:	e59f3008 	ldr	r3, [pc, #8]	; 8c30 <rpi_reset+0x10>
    8c24:	e59f2008 	ldr	r2, [pc, #8]	; 8c34 <rpi_reset+0x14>
    8c28:	e1c320b0 	strh	r2, [r3]
    8c2c:	e12fff1e 	bx	lr
    8c30:	00009748 	andeq	r9, r0, r8, asr #14
    8c34:	fffface1 			; <UNDEFINED> instruction: 0xfffface1

00008c38 <isdigit>:
    8c38:	e2400030 	sub	r0, r0, #48	; 0x30
    8c3c:	e3500009 	cmp	r0, #9
    8c40:	83a00000 	movhi	r0, #0
    8c44:	93a00001 	movls	r0, #1
    8c48:	e12fff1e 	bx	lr

00008c4c <pad>:
    8c4c:	e0401001 	sub	r1, r0, r1
    8c50:	e1510002 	cmp	r1, r2
    8c54:	b3a03020 	movlt	r3, #32
    8c58:	b4c03001 	strblt	r3, [r0], #1
    8c5c:	b2811001 	addlt	r1, r1, #1
    8c60:	bafffffa 	blt	8c50 <pad+0x4>
    8c64:	e3a03000 	mov	r3, #0
    8c68:	e5c03000 	strb	r3, [r0]
    8c6c:	e12fff1e 	bx	lr

00008c70 <reverse>:
    8c70:	e042c003 	sub	ip, r2, r3
    8c74:	e28cc001 	add	ip, ip, #1
    8c78:	e15c0001 	cmp	ip, r1
    8c7c:	c04cc001 	subgt	ip, ip, r1
    8c80:	c083300c 	addgt	r3, r3, ip
    8c84:	e2421001 	sub	r1, r2, #1
    8c88:	e1a02000 	mov	r2, r0
    8c8c:	e1510003 	cmp	r1, r3
    8c90:	2451c001 	ldrbcs	ip, [r1], #-1
    8c94:	24c2c001 	strbcs	ip, [r2], #1
    8c98:	2afffffb 	bcs	8c8c <reverse+0x1c>
    8c9c:	e3a03000 	mov	r3, #0
    8ca0:	e5c23000 	strb	r3, [r2]
    8ca4:	e12fff1e 	bx	lr

00008ca8 <emit>:
    8ca8:	e92d40f0 	push	{r4, r5, r6, r7, lr}
    8cac:	e24dd044 	sub	sp, sp, #68	; 0x44
    8cb0:	e1a05001 	mov	r5, r1
    8cb4:	e1a04002 	mov	r4, r2
    8cb8:	e59d2058 	ldr	r2, [sp, #88]	; 0x58
    8cbc:	e1520004 	cmp	r2, r4
    8cc0:	c2442001 	subgt	r2, r4, #1
    8cc4:	e1a0c003 	mov	ip, r3
    8cc8:	e2400002 	sub	r0, r0, #2
    8ccc:	e350000e 	cmp	r0, #14
    8cd0:	979ff100 	ldrls	pc, [pc, r0, lsl #2]
    8cd4:	ea000050 	b	8e1c <emit+0x174>
    8cd8:	00008df4 	strdeq	r8, [r0], -r4
    8cdc:	00008e1c 	andeq	r8, r0, ip, lsl lr
    8ce0:	00008e1c 	andeq	r8, r0, ip, lsl lr
    8ce4:	00008e1c 	andeq	r8, r0, ip, lsl lr
    8ce8:	00008e1c 	andeq	r8, r0, ip, lsl lr
    8cec:	00008e1c 	andeq	r8, r0, ip, lsl lr
    8cf0:	00008de8 	andeq	r8, r0, r8, ror #27
    8cf4:	00008e1c 	andeq	r8, r0, ip, lsl lr
    8cf8:	00008d14 	andeq	r8, r0, r4, lsl sp
    8cfc:	00008e1c 	andeq	r8, r0, ip, lsl lr
    8d00:	00008e1c 	andeq	r8, r0, ip, lsl lr
    8d04:	00008e1c 	andeq	r8, r0, ip, lsl lr
    8d08:	00008e1c 	andeq	r8, r0, ip, lsl lr
    8d0c:	00008e1c 	andeq	r8, r0, ip, lsl lr
    8d10:	00008d8c 	andeq	r8, r0, ip, lsl #27
    8d14:	e59d105c 	ldr	r1, [sp, #92]	; 0x5c
    8d18:	e2511000 	subs	r1, r1, #0
    8d1c:	13a01001 	movne	r1, #1
    8d20:	e0111fa3 	ands	r1, r1, r3, lsr #31
    8d24:	0a000016 	beq	8d84 <emit+0xdc>
    8d28:	e263c000 	rsb	ip, r3, #0
    8d2c:	e3a06001 	mov	r6, #1
    8d30:	e1a0000d 	mov	r0, sp
    8d34:	e59f30fc 	ldr	r3, [pc, #252]	; 8e38 <emit+0x190>
    8d38:	e0831c93 	umull	r1, r3, r3, ip
    8d3c:	e1a031a3 	lsr	r3, r3, #3
    8d40:	e1a0e003 	mov	lr, r3
    8d44:	e0833103 	add	r3, r3, r3, lsl #2
    8d48:	e04c3083 	sub	r3, ip, r3, lsl #1
    8d4c:	e1a01000 	mov	r1, r0
    8d50:	e2800001 	add	r0, r0, #1
    8d54:	e59f70e0 	ldr	r7, [pc, #224]	; 8e3c <emit+0x194>
    8d58:	e7d73003 	ldrb	r3, [r7, r3]
    8d5c:	e5c13000 	strb	r3, [r1]
    8d60:	e1a0300c 	mov	r3, ip
    8d64:	e1a0c00e 	mov	ip, lr
    8d68:	e3530009 	cmp	r3, #9
    8d6c:	8afffff0 	bhi	8d34 <emit+0x8c>
    8d70:	e3560000 	cmp	r6, #0
    8d74:	13a0302d 	movne	r3, #45	; 0x2d
    8d78:	15c03000 	strbne	r3, [r0]
    8d7c:	12810002 	addne	r0, r1, #2
    8d80:	ea00000f 	b	8dc4 <emit+0x11c>
    8d84:	e3a06000 	mov	r6, #0
    8d88:	eaffffe8 	b	8d30 <emit+0x88>
    8d8c:	e1a0100d 	mov	r1, sp
    8d90:	e20c000f 	and	r0, ip, #15
    8d94:	e59fe0a4 	ldr	lr, [pc, #164]	; 8e40 <emit+0x198>
    8d98:	e7de0000 	ldrb	r0, [lr, r0]
    8d9c:	e5c10000 	strb	r0, [r1]
    8da0:	e2811001 	add	r1, r1, #1
    8da4:	e35c000f 	cmp	ip, #15
    8da8:	e1a0c22c 	lsr	ip, ip, #4
    8dac:	8afffff7 	bhi	8d90 <emit+0xe8>
    8db0:	e1a00001 	mov	r0, r1
    8db4:	e3a03078 	mov	r3, #120	; 0x78
    8db8:	e4c03002 	strb	r3, [r0], #2
    8dbc:	e3a03030 	mov	r3, #48	; 0x30
    8dc0:	e5c13001 	strb	r3, [r1, #1]
    8dc4:	e1a0100d 	mov	r1, sp
    8dc8:	ebffff9f 	bl	8c4c <pad>
    8dcc:	e1a02000 	mov	r2, r0
    8dd0:	e1a0300d 	mov	r3, sp
    8dd4:	e1a01004 	mov	r1, r4
    8dd8:	e1a00005 	mov	r0, r5
    8ddc:	ebffffa3 	bl	8c70 <reverse>
    8de0:	e28dd044 	add	sp, sp, #68	; 0x44
    8de4:	e8bd80f0 	pop	{r4, r5, r6, r7, pc}
    8de8:	e5cd3000 	strb	r3, [sp]
    8dec:	e28d0001 	add	r0, sp, #1
    8df0:	eafffff3 	b	8dc4 <emit+0x11c>
    8df4:	e1a0000d 	mov	r0, sp
    8df8:	e20c1001 	and	r1, ip, #1
    8dfc:	e59fe040 	ldr	lr, [pc, #64]	; 8e44 <emit+0x19c>
    8e00:	e7de1001 	ldrb	r1, [lr, r1]
    8e04:	e5c01000 	strb	r1, [r0]
    8e08:	e2800001 	add	r0, r0, #1
    8e0c:	e35c0001 	cmp	ip, #1
    8e10:	e1a0c0ac 	lsr	ip, ip, #1
    8e14:	8afffff7 	bhi	8df8 <emit+0x150>
    8e18:	eaffffe9 	b	8dc4 <emit+0x11c>
    8e1c:	ebffff57 	bl	8b80 <rpi_reset_putc>
    8e20:	e3a03077 	mov	r3, #119	; 0x77
    8e24:	e59f201c 	ldr	r2, [pc, #28]	; 8e48 <emit+0x1a0>
    8e28:	e59f101c 	ldr	r1, [pc, #28]	; 8e4c <emit+0x1a4>
    8e2c:	e59f001c 	ldr	r0, [pc, #28]	; 8e50 <emit+0x1a8>
    8e30:	ebffff37 	bl	8b14 <printk>
    8e34:	eb0000c7 	bl	9158 <clean_reboot>
    8e38:	cccccccd 	stclgt	12, cr12, [ip], {205}	; 0xcd
    8e3c:	00009b54 	andeq	r9, r0, r4, asr fp
    8e40:	00009b60 	andeq	r9, r0, r0, ror #22
    8e44:	00009b74 	andeq	r9, r0, r4, ror fp
    8e48:	00009c0c 	andeq	r9, r0, ip, lsl #24
    8e4c:	00009b2c 	andeq	r9, r0, ip, lsr #22
    8e50:	00009b40 	andeq	r9, r0, r0, asr #22

00008e54 <rpi_set_output>:
    8e54:	e3500000 	cmp	r0, #0
    8e58:	0a000005 	beq	8e74 <rpi_set_output+0x20>
    8e5c:	e59f3030 	ldr	r3, [pc, #48]	; 8e94 <rpi_set_output+0x40>
    8e60:	e5830000 	str	r0, [r3]
    8e64:	e3510000 	cmp	r1, #0
    8e68:	159f3028 	ldrne	r3, [pc, #40]	; 8e98 <rpi_set_output+0x44>
    8e6c:	15831000 	strne	r1, [r3]
    8e70:	e12fff1e 	bx	lr
    8e74:	e92d4010 	push	{r4, lr}
    8e78:	ebffff40 	bl	8b80 <rpi_reset_putc>
    8e7c:	e3a03020 	mov	r3, #32
    8e80:	e59f2014 	ldr	r2, [pc, #20]	; 8e9c <rpi_set_output+0x48>
    8e84:	e59f1014 	ldr	r1, [pc, #20]	; 8ea0 <rpi_set_output+0x4c>
    8e88:	e59f0014 	ldr	r0, [pc, #20]	; 8ea4 <rpi_set_output+0x50>
    8e8c:	ebffff20 	bl	8b14 <printk>
    8e90:	eb0000b0 	bl	9158 <clean_reboot>
    8e94:	00009740 	andeq	r9, r0, r0, asr #14
    8e98:	00009744 	andeq	r9, r0, r4, asr #14
    8e9c:	00009c14 	andeq	r9, r0, r4, lsl ip
    8ea0:	00009b2c 	andeq	r9, r0, ip, lsr #22
    8ea4:	00009b78 	andeq	r9, r0, r8, ror fp

00008ea8 <va_printk>:
    8ea8:	e92d43f0 	push	{r4, r5, r6, r7, r8, r9, lr}
    8eac:	e24dd094 	sub	sp, sp, #148	; 0x94
    8eb0:	e1a07000 	mov	r7, r0
    8eb4:	e1a09002 	mov	r9, r2
    8eb8:	e58d300c 	str	r3, [sp, #12]
    8ebc:	e2411001 	sub	r1, r1, #1
    8ec0:	e0808001 	add	r8, r0, r1
    8ec4:	e3a03000 	mov	r3, #0
    8ec8:	e5c03000 	strb	r3, [r0]
    8ecc:	e1a04000 	mov	r4, r0
    8ed0:	ea000001 	b	8edc <va_printk+0x34>
    8ed4:	e2899001 	add	r9, r9, #1
    8ed8:	e4c43001 	strb	r3, [r4], #1
    8edc:	e5d93000 	ldrb	r3, [r9]
    8ee0:	e3530000 	cmp	r3, #0
    8ee4:	0a000091 	beq	9130 <va_printk+0x288>
    8ee8:	e1540008 	cmp	r4, r8
    8eec:	2a00008f 	bcs	9130 <va_printk+0x288>
    8ef0:	e3530025 	cmp	r3, #37	; 0x25
    8ef4:	1afffff6 	bne	8ed4 <va_printk+0x2c>
    8ef8:	e5d92001 	ldrb	r2, [r9, #1]
    8efc:	e3520025 	cmp	r2, #37	; 0x25
    8f00:	04c43001 	strbeq	r3, [r4], #1
    8f04:	02899002 	addeq	r9, r9, #2
    8f08:	0afffff3 	beq	8edc <va_printk+0x34>
    8f0c:	e2899001 	add	r9, r9, #1
    8f10:	e3a06000 	mov	r6, #0
    8f14:	ea000003 	b	8f28 <va_printk+0x80>
    8f18:	e0866106 	add	r6, r6, r6, lsl #2
    8f1c:	e0855086 	add	r5, r5, r6, lsl #1
    8f20:	e2456030 	sub	r6, r5, #48	; 0x30
    8f24:	e2899001 	add	r9, r9, #1
    8f28:	e5d95000 	ldrb	r5, [r9]
    8f2c:	e1a00005 	mov	r0, r5
    8f30:	ebffff40 	bl	8c38 <isdigit>
    8f34:	e3500000 	cmp	r0, #0
    8f38:	1afffff6 	bne	8f18 <va_printk+0x70>
    8f3c:	e356001f 	cmp	r6, #31
    8f40:	8a00001a 	bhi	8fb0 <va_printk+0x108>
    8f44:	e2455062 	sub	r5, r5, #98	; 0x62
    8f48:	e3550016 	cmp	r5, #22
    8f4c:	979ff105 	ldrls	pc, [pc, r5, lsl #2]
    8f50:	ea00006d 	b	910c <va_printk+0x264>
    8f54:	00009098 	muleq	r0, r8, r0
    8f58:	000090dc 	ldrdeq	r9, [r0], -ip
    8f5c:	00008fe8 	andeq	r8, r0, r8, ror #31
    8f60:	0000910c 	andeq	r9, r0, ip, lsl #2
    8f64:	00008fcc 	andeq	r8, r0, ip, asr #31
    8f68:	0000910c 	andeq	r9, r0, ip, lsl #2
    8f6c:	0000910c 	andeq	r9, r0, ip, lsl #2
    8f70:	0000910c 	andeq	r9, r0, ip, lsl #2
    8f74:	0000910c 	andeq	r9, r0, ip, lsl #2
    8f78:	0000910c 	andeq	r9, r0, ip, lsl #2
    8f7c:	0000910c 	andeq	r9, r0, ip, lsl #2
    8f80:	0000910c 	andeq	r9, r0, ip, lsl #2
    8f84:	0000910c 	andeq	r9, r0, ip, lsl #2
    8f88:	0000910c 	andeq	r9, r0, ip, lsl #2
    8f8c:	00009068 	andeq	r9, r0, r8, rrx
    8f90:	0000910c 	andeq	r9, r0, ip, lsl #2
    8f94:	0000910c 	andeq	r9, r0, ip, lsl #2
    8f98:	000090c8 	andeq	r9, r0, r8, asr #1
    8f9c:	0000910c 	andeq	r9, r0, ip, lsl #2
    8fa0:	00009038 	andeq	r9, r0, r8, lsr r0
    8fa4:	0000910c 	andeq	r9, r0, ip, lsl #2
    8fa8:	0000910c 	andeq	r9, r0, ip, lsl #2
    8fac:	00009068 	andeq	r9, r0, r8, rrx
    8fb0:	ebfffef2 	bl	8b80 <rpi_reset_putc>
    8fb4:	e3a03094 	mov	r3, #148	; 0x94
    8fb8:	e59f2184 	ldr	r2, [pc, #388]	; 9144 <va_printk+0x29c>
    8fbc:	e59f1184 	ldr	r1, [pc, #388]	; 9148 <va_printk+0x2a0>
    8fc0:	e59f0184 	ldr	r0, [pc, #388]	; 914c <va_printk+0x2a4>
    8fc4:	ebfffed2 	bl	8b14 <printk>
    8fc8:	eb000062 	bl	9158 <clean_reboot>
    8fcc:	ebfffeeb 	bl	8b80 <rpi_reset_putc>
    8fd0:	e3a0309a 	mov	r3, #154	; 0x9a
    8fd4:	e59f2168 	ldr	r2, [pc, #360]	; 9144 <va_printk+0x29c>
    8fd8:	e59f1168 	ldr	r1, [pc, #360]	; 9148 <va_printk+0x2a0>
    8fdc:	e59f016c 	ldr	r0, [pc, #364]	; 9150 <va_printk+0x2a8>
    8fe0:	ebfffecb 	bl	8b14 <printk>
    8fe4:	eb00005b 	bl	9158 <clean_reboot>
    8fe8:	e59d300c 	ldr	r3, [sp, #12]
    8fec:	e2832004 	add	r2, r3, #4
    8ff0:	e58d200c 	str	r2, [sp, #12]
    8ff4:	e5933000 	ldr	r3, [r3]
    8ff8:	e3a02001 	mov	r2, #1
    8ffc:	e58d2004 	str	r2, [sp, #4]
    9000:	e58d6000 	str	r6, [sp]
    9004:	e3a02080 	mov	r2, #128	; 0x80
    9008:	e28d1010 	add	r1, sp, #16
    900c:	e3a0000a 	mov	r0, #10
    9010:	ebffff24 	bl	8ca8 <emit>
    9014:	e2899001 	add	r9, r9, #1
    9018:	e1540008 	cmp	r4, r8
    901c:	2affffae 	bcs	8edc <va_printk+0x34>
    9020:	e5d03000 	ldrb	r3, [r0]
    9024:	e3530000 	cmp	r3, #0
    9028:	0affffab 	beq	8edc <va_printk+0x34>
    902c:	e2800001 	add	r0, r0, #1
    9030:	e4c43001 	strb	r3, [r4], #1
    9034:	eafffff7 	b	9018 <va_printk+0x170>
    9038:	e59d300c 	ldr	r3, [sp, #12]
    903c:	e2832004 	add	r2, r3, #4
    9040:	e58d200c 	str	r2, [sp, #12]
    9044:	e5933000 	ldr	r3, [r3]
    9048:	e3a02000 	mov	r2, #0
    904c:	e58d2004 	str	r2, [sp, #4]
    9050:	e58d6000 	str	r6, [sp]
    9054:	e3a02080 	mov	r2, #128	; 0x80
    9058:	e28d1010 	add	r1, sp, #16
    905c:	e3a0000a 	mov	r0, #10
    9060:	ebffff10 	bl	8ca8 <emit>
    9064:	eaffffea 	b	9014 <va_printk+0x16c>
    9068:	e59d300c 	ldr	r3, [sp, #12]
    906c:	e2832004 	add	r2, r3, #4
    9070:	e58d200c 	str	r2, [sp, #12]
    9074:	e5933000 	ldr	r3, [r3]
    9078:	e3a02000 	mov	r2, #0
    907c:	e58d2004 	str	r2, [sp, #4]
    9080:	e58d6000 	str	r6, [sp]
    9084:	e3a02080 	mov	r2, #128	; 0x80
    9088:	e28d1010 	add	r1, sp, #16
    908c:	e3a00010 	mov	r0, #16
    9090:	ebffff04 	bl	8ca8 <emit>
    9094:	eaffffde 	b	9014 <va_printk+0x16c>
    9098:	e59d300c 	ldr	r3, [sp, #12]
    909c:	e2832004 	add	r2, r3, #4
    90a0:	e58d200c 	str	r2, [sp, #12]
    90a4:	e5933000 	ldr	r3, [r3]
    90a8:	e3a02000 	mov	r2, #0
    90ac:	e58d2004 	str	r2, [sp, #4]
    90b0:	e58d6000 	str	r6, [sp]
    90b4:	e3a02080 	mov	r2, #128	; 0x80
    90b8:	e28d1010 	add	r1, sp, #16
    90bc:	e3a00002 	mov	r0, #2
    90c0:	ebfffef8 	bl	8ca8 <emit>
    90c4:	eaffffd2 	b	9014 <va_printk+0x16c>
    90c8:	e59d300c 	ldr	r3, [sp, #12]
    90cc:	e2832004 	add	r2, r3, #4
    90d0:	e58d200c 	str	r2, [sp, #12]
    90d4:	e5930000 	ldr	r0, [r3]
    90d8:	eaffffcd 	b	9014 <va_printk+0x16c>
    90dc:	e59d300c 	ldr	r3, [sp, #12]
    90e0:	e2832004 	add	r2, r3, #4
    90e4:	e58d200c 	str	r2, [sp, #12]
    90e8:	e5933000 	ldr	r3, [r3]
    90ec:	e3a02000 	mov	r2, #0
    90f0:	e58d2004 	str	r2, [sp, #4]
    90f4:	e58d6000 	str	r6, [sp]
    90f8:	e3a02080 	mov	r2, #128	; 0x80
    90fc:	e28d1010 	add	r1, sp, #16
    9100:	e3a00008 	mov	r0, #8
    9104:	ebfffee7 	bl	8ca8 <emit>
    9108:	eaffffc1 	b	9014 <va_printk+0x16c>
    910c:	ebfffe9b 	bl	8b80 <rpi_reset_putc>
    9110:	e5d93000 	ldrb	r3, [r9]
    9114:	e58d3000 	str	r3, [sp]
    9118:	e3a030bb 	mov	r3, #187	; 0xbb
    911c:	e59f2020 	ldr	r2, [pc, #32]	; 9144 <va_printk+0x29c>
    9120:	e59f1020 	ldr	r1, [pc, #32]	; 9148 <va_printk+0x2a0>
    9124:	e59f0028 	ldr	r0, [pc, #40]	; 9154 <va_printk+0x2ac>
    9128:	ebfffe79 	bl	8b14 <printk>
    912c:	eb000009 	bl	9158 <clean_reboot>
    9130:	e3a03000 	mov	r3, #0
    9134:	e4c43001 	strb	r3, [r4], #1
    9138:	e0440007 	sub	r0, r4, r7
    913c:	e28dd094 	add	sp, sp, #148	; 0x94
    9140:	e8bd83f0 	pop	{r4, r5, r6, r7, r8, r9, pc}
    9144:	00009c24 	andeq	r9, r0, r4, lsr #24
    9148:	00009b2c 	andeq	r9, r0, ip, lsr #22
    914c:	00009b90 	muleq	r0, r0, fp
    9150:	00009bac 	andeq	r9, r0, ip, lsr #23
    9154:	00009bd4 	ldrdeq	r9, [r0], -r4

00009158 <clean_reboot>:
    9158:	e92d4010 	push	{r4, lr}
    915c:	e59f3014 	ldr	r3, [pc, #20]	; 9178 <clean_reboot+0x20>
    9160:	e5933000 	ldr	r3, [r3]
    9164:	e59f0010 	ldr	r0, [pc, #16]	; 917c <clean_reboot+0x24>
    9168:	e12fff33 	blx	r3
    916c:	e3a00064 	mov	r0, #100	; 0x64
    9170:	eb000042 	bl	9280 <delay_ms>
    9174:	eb000017 	bl	91d8 <rpi_reboot>
    9178:	00009744 	andeq	r9, r0, r4, asr #14
    917c:	00009c30 	andeq	r9, r0, r0, lsr ip

00009180 <_cstart>:
    9180:	e92d4010 	push	{r4, lr}
    9184:	e59f3018 	ldr	r3, [pc, #24]	; 91a4 <_cstart+0x24>
    9188:	e59f2018 	ldr	r2, [pc, #24]	; 91a8 <_cstart+0x28>
    918c:	e1530002 	cmp	r3, r2
    9190:	33a02000 	movcc	r2, #0
    9194:	34832004 	strcc	r2, [r3], #4
    9198:	3afffffa 	bcc	9188 <_cstart+0x8>
    919c:	ebfffb9b 	bl	8010 <notmain>
    91a0:	ebffffec 	bl	9158 <clean_reboot>
    91a4:	00009d5c 	andeq	r9, r0, ip, asr sp
    91a8:	0000a168 	andeq	sl, r0, r8, ror #2

000091ac <at_user_level>:
    91ac:	e10f0000 	mrs	r0, CPSR
    91b0:	e200001f 	and	r0, r0, #31
    91b4:	e3500010 	cmp	r0, #16
    91b8:	13a00000 	movne	r0, #0
    91bc:	03a00001 	moveq	r0, #1
    91c0:	e12fff1e 	bx	lr

000091c4 <set_user_level>:
    91c4:	e10f3000 	mrs	r3, CPSR
    91c8:	e3c3301f 	bic	r3, r3, #31
    91cc:	e3833010 	orr	r3, r3, #16
    91d0:	e129f003 	msr	CPSR_fc, r3
    91d4:	e12fff1e 	bx	lr

000091d8 <rpi_reboot>:
    91d8:	e92d4010 	push	{r4, lr}
    91dc:	ebfffff2 	bl	91ac <at_user_level>
    91e0:	e3500000 	cmp	r0, #0
    91e4:	1a000008 	bne	920c <rpi_reboot+0x34>
    91e8:	e3a0001e 	mov	r0, #30
    91ec:	eb000023 	bl	9280 <delay_ms>
    91f0:	e59f101c 	ldr	r1, [pc, #28]	; 9214 <rpi_reboot+0x3c>
    91f4:	e59f001c 	ldr	r0, [pc, #28]	; 9218 <rpi_reboot+0x40>
    91f8:	eb00002e 	bl	92b8 <PUT32>
    91fc:	e59f1018 	ldr	r1, [pc, #24]	; 921c <rpi_reboot+0x44>
    9200:	e59f0018 	ldr	r0, [pc, #24]	; 9220 <rpi_reboot+0x48>
    9204:	eb00002b 	bl	92b8 <PUT32>
    9208:	eafffffe 	b	9208 <rpi_reboot+0x30>
    920c:	ebffffec 	bl	91c4 <set_user_level>
    9210:	eafffff4 	b	91e8 <rpi_reboot+0x10>
    9214:	5a000001 	bpl	9220 <rpi_reboot+0x48>
    9218:	20100024 	andscs	r0, r0, r4, lsr #32
    921c:	5a000020 	bpl	92a4 <delay_sec+0xc>
    9220:	2010001c 	andscs	r0, r0, ip, lsl r0

00009224 <delay_cycles>:
    9224:	e2403001 	sub	r3, r0, #1
    9228:	e3500000 	cmp	r0, #0
    922c:	012fff1e 	bxeq	lr
    9230:	e2811000 	add	r1, r1, #0
    9234:	e1a00003 	mov	r0, r3
    9238:	eafffff9 	b	9224 <delay_cycles>

0000923c <timer_get_usec_raw>:
    923c:	e92d4010 	push	{r4, lr}
    9240:	e59f0004 	ldr	r0, [pc, #4]	; 924c <timer_get_usec_raw+0x10>
    9244:	eb000027 	bl	92e8 <GET32>
    9248:	e8bd8010 	pop	{r4, pc}
    924c:	20003004 	andcs	r3, r0, r4

00009250 <timer_get_usec>:
    9250:	e92d4010 	push	{r4, lr}
    9254:	ebfffff8 	bl	923c <timer_get_usec_raw>
    9258:	e8bd8010 	pop	{r4, pc}

0000925c <delay_us>:
    925c:	e92d4070 	push	{r4, r5, r6, lr}
    9260:	e1a05000 	mov	r5, r0
    9264:	ebfffff9 	bl	9250 <timer_get_usec>
    9268:	e1a04000 	mov	r4, r0
    926c:	ebfffff7 	bl	9250 <timer_get_usec>
    9270:	e0400004 	sub	r0, r0, r4
    9274:	e1500005 	cmp	r0, r5
    9278:	3afffffb 	bcc	926c <delay_us+0x10>
    927c:	e8bd8070 	pop	{r4, r5, r6, pc}

00009280 <delay_ms>:
    9280:	e92d4010 	push	{r4, lr}
    9284:	e0603280 	rsb	r3, r0, r0, lsl #5
    9288:	e0800103 	add	r0, r0, r3, lsl #2
    928c:	e1a00180 	lsl	r0, r0, #3
    9290:	ebfffff1 	bl	925c <delay_us>
    9294:	e8bd8010 	pop	{r4, pc}

00009298 <delay_sec>:
    9298:	e92d4010 	push	{r4, lr}
    929c:	e0603280 	rsb	r3, r0, r0, lsl #5
    92a0:	e0800103 	add	r0, r0, r3, lsl #2
    92a4:	e1a00180 	lsl	r0, r0, #3
    92a8:	ebfffff4 	bl	9280 <delay_ms>
    92ac:	e8bd8010 	pop	{r4, pc}

000092b0 <put32>:
    92b0:	e5801000 	str	r1, [r0]
    92b4:	e12fff1e 	bx	lr

000092b8 <PUT32>:
    92b8:	e5801000 	str	r1, [r0]
    92bc:	e12fff1e 	bx	lr

000092c0 <put16>:
    92c0:	e1c010b0 	strh	r1, [r0]
    92c4:	e12fff1e 	bx	lr

000092c8 <PUT16>:
    92c8:	e1c010b0 	strh	r1, [r0]
    92cc:	e12fff1e 	bx	lr

000092d0 <put8>:
    92d0:	e5c01000 	strb	r1, [r0]
    92d4:	e12fff1e 	bx	lr

000092d8 <PUT8>:
    92d8:	e5c01000 	strb	r1, [r0]
    92dc:	e12fff1e 	bx	lr

000092e0 <get32>:
    92e0:	e5900000 	ldr	r0, [r0]
    92e4:	e12fff1e 	bx	lr

000092e8 <GET32>:
    92e8:	e5900000 	ldr	r0, [r0]
    92ec:	e12fff1e 	bx	lr

000092f0 <GETPC>:
    92f0:	e1a0000e 	mov	r0, lr
    92f4:	e12fff1e 	bx	lr

000092f8 <dummy>:
    92f8:	e12fff1e 	bx	lr

000092fc <or_in32>:
    92fc:	e92d4070 	push	{r4, r5, r6, lr}
    9300:	e1a04000 	mov	r4, r0
    9304:	e1a05001 	mov	r5, r1
    9308:	ebfffff4 	bl	92e0 <get32>
    930c:	e1801005 	orr	r1, r0, r5
    9310:	e1a00004 	mov	r0, r4
    9314:	ebffffe5 	bl	92b0 <put32>
    9318:	e8bd8070 	pop	{r4, r5, r6, pc}

0000931c <uart_init>:
    931c:	e92d4010 	push	{r4, lr}
    9320:	e3a01002 	mov	r1, #2
    9324:	e3a0000e 	mov	r0, #14
    9328:	eb000051 	bl	9474 <gpio_set_function>
    932c:	e3a01002 	mov	r1, #2
    9330:	e3a0000f 	mov	r0, #15
    9334:	eb00004e 	bl	9474 <gpio_set_function>
    9338:	eb0000fa 	bl	9728 <dev_barrier>
    933c:	e3a01001 	mov	r1, #1
    9340:	e59f0064 	ldr	r0, [pc, #100]	; 93ac <uart_init+0x90>
    9344:	ebffffec 	bl	92fc <or_in32>
    9348:	eb0000f6 	bl	9728 <dev_barrier>
    934c:	e59f405c 	ldr	r4, [pc, #92]	; 93b0 <uart_init+0x94>
    9350:	e3a01000 	mov	r1, #0
    9354:	e1a00004 	mov	r0, r4
    9358:	ebffffd4 	bl	92b0 <put32>
    935c:	e3a01000 	mov	r1, #0
    9360:	e59f004c 	ldr	r0, [pc, #76]	; 93b4 <uart_init+0x98>
    9364:	ebffffd1 	bl	92b0 <put32>
    9368:	e3a01003 	mov	r1, #3
    936c:	e59f0044 	ldr	r0, [pc, #68]	; 93b8 <uart_init+0x9c>
    9370:	ebffffce 	bl	92b0 <put32>
    9374:	e3a01000 	mov	r1, #0
    9378:	e59f003c 	ldr	r0, [pc, #60]	; 93bc <uart_init+0xa0>
    937c:	ebffffcb 	bl	92b0 <put32>
    9380:	e3a010c7 	mov	r1, #199	; 0xc7
    9384:	e59f0034 	ldr	r0, [pc, #52]	; 93c0 <uart_init+0xa4>
    9388:	ebffffc8 	bl	92b0 <put32>
    938c:	e59f1030 	ldr	r1, [pc, #48]	; 93c4 <uart_init+0xa8>
    9390:	e59f0030 	ldr	r0, [pc, #48]	; 93c8 <uart_init+0xac>
    9394:	ebffffc5 	bl	92b0 <put32>
    9398:	e3a01003 	mov	r1, #3
    939c:	e1a00004 	mov	r0, r4
    93a0:	ebffffc2 	bl	92b0 <put32>
    93a4:	eb0000df 	bl	9728 <dev_barrier>
    93a8:	e8bd8010 	pop	{r4, pc}
    93ac:	20215004 	eorcs	r5, r1, r4
    93b0:	20215060 	eorcs	r5, r1, r0, rrx
    93b4:	20215044 	eorcs	r5, r1, r4, asr #32
    93b8:	2021504c 	eorcs	r5, r1, ip, asr #32
    93bc:	20215050 	eorcs	r5, r1, r0, asr r0
    93c0:	20215048 	eorcs	r5, r1, r8, asr #32
    93c4:	0000010e 	andeq	r0, r0, lr, lsl #2
    93c8:	20215068 	eorcs	r5, r1, r8, rrx

000093cc <uart_can_getc>:
    93cc:	e92d4010 	push	{r4, lr}
    93d0:	e59f0008 	ldr	r0, [pc, #8]	; 93e0 <uart_can_getc+0x14>
    93d4:	ebffffc1 	bl	92e0 <get32>
    93d8:	e2000001 	and	r0, r0, #1
    93dc:	e8bd8010 	pop	{r4, pc}
    93e0:	20215064 	eorcs	r5, r1, r4, rrx

000093e4 <uart_can_putc>:
    93e4:	e92d4010 	push	{r4, lr}
    93e8:	e59f0010 	ldr	r0, [pc, #16]	; 9400 <uart_can_putc+0x1c>
    93ec:	ebffffbb 	bl	92e0 <get32>
    93f0:	e3100002 	tst	r0, #2
    93f4:	13a00001 	movne	r0, #1
    93f8:	03a00000 	moveq	r0, #0
    93fc:	e8bd8010 	pop	{r4, pc}
    9400:	20215064 	eorcs	r5, r1, r4, rrx

00009404 <uart_getc>:
    9404:	e92d4010 	push	{r4, lr}
    9408:	eb0000c6 	bl	9728 <dev_barrier>
    940c:	ebffffee 	bl	93cc <uart_can_getc>
    9410:	e3500000 	cmp	r0, #0
    9414:	0afffffc 	beq	940c <uart_getc+0x8>
    9418:	e59f0010 	ldr	r0, [pc, #16]	; 9430 <uart_getc+0x2c>
    941c:	ebffffaf 	bl	92e0 <get32>
    9420:	e6ef4070 	uxtb	r4, r0
    9424:	eb0000bf 	bl	9728 <dev_barrier>
    9428:	e1a00004 	mov	r0, r4
    942c:	e8bd8010 	pop	{r4, pc}
    9430:	20215040 	eorcs	r5, r1, r0, asr #32

00009434 <uart_putc>:
    9434:	e92d4010 	push	{r4, lr}
    9438:	e1a04000 	mov	r4, r0
    943c:	eb0000b9 	bl	9728 <dev_barrier>
    9440:	ebffffe7 	bl	93e4 <uart_can_putc>
    9444:	e3500000 	cmp	r0, #0
    9448:	0afffffc 	beq	9440 <uart_putc+0xc>
    944c:	e6ef1074 	uxtb	r1, r4
    9450:	e59f0008 	ldr	r0, [pc, #8]	; 9460 <uart_putc+0x2c>
    9454:	ebffff95 	bl	92b0 <put32>
    9458:	eb0000b2 	bl	9728 <dev_barrier>
    945c:	e8bd8010 	pop	{r4, pc}
    9460:	20215040 	eorcs	r5, r1, r0, asr #32

00009464 <uart_has_data>:
    9464:	e92d4010 	push	{r4, lr}
    9468:	eb0000ae 	bl	9728 <dev_barrier>
    946c:	ebffffd6 	bl	93cc <uart_can_getc>
    9470:	e8bd8010 	pop	{r4, pc}

00009474 <gpio_set_function>:
    9474:	e350001f 	cmp	r0, #31
    9478:	812fff1e 	bxhi	lr
    947c:	e3d13007 	bics	r3, r1, #7
    9480:	112fff1e 	bxne	lr
    9484:	e92d4070 	push	{r4, r5, r6, lr}
    9488:	e1a05001 	mov	r5, r1
    948c:	e59f3044 	ldr	r3, [pc, #68]	; 94d8 <gpio_set_function+0x64>
    9490:	e0832093 	umull	r2, r3, r3, r0
    9494:	e1a031a3 	lsr	r3, r3, #3
    9498:	e1a06003 	mov	r6, r3
    949c:	e0833103 	add	r3, r3, r3, lsl #2
    94a0:	e1a02083 	lsl	r2, r3, #1
    94a4:	e0403002 	sub	r3, r0, r2
    94a8:	e0834083 	add	r4, r3, r3, lsl #1
    94ac:	e2866302 	add	r6, r6, #134217728	; 0x8000000
    94b0:	e2866702 	add	r6, r6, #524288	; 0x80000
    94b4:	e1a06106 	lsl	r6, r6, #2
    94b8:	e1a00006 	mov	r0, r6
    94bc:	ebffff89 	bl	92e8 <GET32>
    94c0:	e3a01007 	mov	r1, #7
    94c4:	e1c01411 	bic	r1, r0, r1, lsl r4
    94c8:	e1811415 	orr	r1, r1, r5, lsl r4
    94cc:	e1a00006 	mov	r0, r6
    94d0:	ebffff78 	bl	92b8 <PUT32>
    94d4:	e8bd8070 	pop	{r4, r5, r6, pc}
    94d8:	cccccccd 	stclgt	12, cr12, [ip], {205}	; 0xcd

000094dc <gpio_set_output>:
    94dc:	e92d4010 	push	{r4, lr}
    94e0:	e3a01001 	mov	r1, #1
    94e4:	ebffffe2 	bl	9474 <gpio_set_function>
    94e8:	e8bd8010 	pop	{r4, pc}

000094ec <gpio_set_on>:
    94ec:	e350001f 	cmp	r0, #31
    94f0:	812fff1e 	bxhi	lr
    94f4:	e92d4010 	push	{r4, lr}
    94f8:	e3a01001 	mov	r1, #1
    94fc:	e1a01011 	lsl	r1, r1, r0
    9500:	e59f0004 	ldr	r0, [pc, #4]	; 950c <gpio_set_on+0x20>
    9504:	ebffff6b 	bl	92b8 <PUT32>
    9508:	e8bd8010 	pop	{r4, pc}
    950c:	2020001c 	eorcs	r0, r0, ip, lsl r0

00009510 <gpio_set_off>:
    9510:	e350001f 	cmp	r0, #31
    9514:	812fff1e 	bxhi	lr
    9518:	e92d4010 	push	{r4, lr}
    951c:	e3a01001 	mov	r1, #1
    9520:	e1a01011 	lsl	r1, r1, r0
    9524:	e59f0004 	ldr	r0, [pc, #4]	; 9530 <gpio_set_off+0x20>
    9528:	ebffff62 	bl	92b8 <PUT32>
    952c:	e8bd8010 	pop	{r4, pc}
    9530:	20200028 	eorcs	r0, r0, r8, lsr #32

00009534 <gpio_set_input>:
    9534:	e92d4010 	push	{r4, lr}
    9538:	e3a01000 	mov	r1, #0
    953c:	ebffffcc 	bl	9474 <gpio_set_function>
    9540:	e8bd8010 	pop	{r4, pc}

00009544 <gpio_write>:
    9544:	e92d4010 	push	{r4, lr}
    9548:	e3510000 	cmp	r1, #0
    954c:	1a000001 	bne	9558 <gpio_write+0x14>
    9550:	ebffffee 	bl	9510 <gpio_set_off>
    9554:	e8bd8010 	pop	{r4, pc}
    9558:	ebffffe3 	bl	94ec <gpio_set_on>
    955c:	e8bd8010 	pop	{r4, pc}

00009560 <gpio_read>:
    9560:	e350001f 	cmp	r0, #31
    9564:	8a000007 	bhi	9588 <gpio_read+0x28>
    9568:	e92d4010 	push	{r4, lr}
    956c:	e200401f 	and	r4, r0, #31
    9570:	e59f3018 	ldr	r3, [pc, #24]	; 9590 <gpio_read+0x30>
    9574:	e08302a0 	add	r0, r3, r0, lsr #5
    9578:	ebffff5a 	bl	92e8 <GET32>
    957c:	e1a00430 	lsr	r0, r0, r4
    9580:	e2000001 	and	r0, r0, #1
    9584:	e8bd8010 	pop	{r4, pc}
    9588:	e3e00000 	mvn	r0, #0
    958c:	e12fff1e 	bx	lr
    9590:	20200034 	eorcs	r0, r0, r4, lsr r0

00009594 <kmalloc_heap_end>:
    9594:	e59f3004 	ldr	r3, [pc, #4]	; 95a0 <kmalloc_heap_end+0xc>
    9598:	e5930000 	ldr	r0, [r3]
    959c:	e12fff1e 	bx	lr
    95a0:	0000974c 	andeq	r9, r0, ip, asr #14

000095a4 <kmalloc_heap_start>:
    95a4:	e59f0000 	ldr	r0, [pc]	; 95ac <kmalloc_heap_start+0x8>
    95a8:	e12fff1e 	bx	lr
    95ac:	0000a168 	andeq	sl, r0, r8, ror #2

000095b0 <kmalloc_init_set_start>:
    95b0:	e59f3038 	ldr	r3, [pc, #56]	; 95f0 <kmalloc_init_set_start+0x40>
    95b4:	e5933000 	ldr	r3, [r3]
    95b8:	e1500003 	cmp	r0, r3
    95bc:	9a000003 	bls	95d0 <kmalloc_init_set_start+0x20>
    95c0:	e59f3028 	ldr	r3, [pc, #40]	; 95f0 <kmalloc_init_set_start+0x40>
    95c4:	e5830000 	str	r0, [r3]
    95c8:	e5830004 	str	r0, [r3, #4]
    95cc:	e12fff1e 	bx	lr
    95d0:	e92d4010 	push	{r4, lr}
    95d4:	ebfffd69 	bl	8b80 <rpi_reset_putc>
    95d8:	e3a03016 	mov	r3, #22
    95dc:	e59f2010 	ldr	r2, [pc, #16]	; 95f4 <kmalloc_init_set_start+0x44>
    95e0:	e59f1010 	ldr	r1, [pc, #16]	; 95f8 <kmalloc_init_set_start+0x48>
    95e4:	e59f0010 	ldr	r0, [pc, #16]	; 95fc <kmalloc_init_set_start+0x4c>
    95e8:	ebfffd49 	bl	8b14 <printk>
    95ec:	ebfffed9 	bl	9158 <clean_reboot>
    95f0:	0000974c 	andeq	r9, r0, ip, asr #14
    95f4:	00009c3c 	andeq	r9, r0, ip, lsr ip
    95f8:	00009c6c 	andeq	r9, r0, ip, ror #24
    95fc:	00009c78 	andeq	r9, r0, r8, ror ip

00009600 <kmalloc>:
    9600:	e92d4010 	push	{r4, lr}
    9604:	e3500000 	cmp	r0, #0
    9608:	0a00000a 	beq	9638 <kmalloc+0x38>
    960c:	e2802007 	add	r2, r0, #7
    9610:	e3c22007 	bic	r2, r2, #7
    9614:	e59f3038 	ldr	r3, [pc, #56]	; 9654 <kmalloc+0x54>
    9618:	e5934000 	ldr	r4, [r3]
    961c:	e0841002 	add	r1, r4, r2
    9620:	e5831000 	str	r1, [r3]
    9624:	e3a01000 	mov	r1, #0
    9628:	e1a00004 	mov	r0, r4
    962c:	ebfffd32 	bl	8afc <memset>
    9630:	e1a00004 	mov	r0, r4
    9634:	e8bd8010 	pop	{r4, pc}
    9638:	ebfffd50 	bl	8b80 <rpi_reset_putc>
    963c:	e3a0301b 	mov	r3, #27
    9640:	e59f2010 	ldr	r2, [pc, #16]	; 9658 <kmalloc+0x58>
    9644:	e59f1010 	ldr	r1, [pc, #16]	; 965c <kmalloc+0x5c>
    9648:	e59f0010 	ldr	r0, [pc, #16]	; 9660 <kmalloc+0x60>
    964c:	ebfffd30 	bl	8b14 <printk>
    9650:	ebfffec0 	bl	9158 <clean_reboot>
    9654:	0000974c 	andeq	r9, r0, ip, asr #14
    9658:	00009c54 	andeq	r9, r0, r4, asr ip
    965c:	00009c6c 	andeq	r9, r0, ip, ror #24
    9660:	00009c94 	muleq	r0, r4, ip

00009664 <kmalloc_init>:
    9664:	e12fff1e 	bx	lr

00009668 <kmalloc_heap_ptr>:
    9668:	e92d4010 	push	{r4, lr}
    966c:	ebffffcc 	bl	95a4 <kmalloc_heap_start>
    9670:	e8bd8010 	pop	{r4, pc}

00009674 <kmalloc_aligned>:
    9674:	e92d4010 	push	{r4, lr}
    9678:	e2613000 	rsb	r3, r1, #0
    967c:	e1d12003 	bics	r2, r1, r3
    9680:	1a00000b 	bne	96b4 <kmalloc_aligned+0x40>
    9684:	e59f2060 	ldr	r2, [pc, #96]	; 96ec <kmalloc_aligned+0x78>
    9688:	e5922000 	ldr	r2, [r2]
    968c:	e0812002 	add	r2, r1, r2
    9690:	e2422001 	sub	r2, r2, #1
    9694:	e0033002 	and	r3, r3, r2
    9698:	e2411001 	sub	r1, r1, #1
    969c:	e1130001 	tst	r3, r1
    96a0:	1a00000a 	bne	96d0 <kmalloc_aligned+0x5c>
    96a4:	e59f2040 	ldr	r2, [pc, #64]	; 96ec <kmalloc_aligned+0x78>
    96a8:	e5823000 	str	r3, [r2]
    96ac:	ebffffd3 	bl	9600 <kmalloc>
    96b0:	e8bd8010 	pop	{r4, pc}
    96b4:	ebfffd31 	bl	8b80 <rpi_reset_putc>
    96b8:	e3a0302a 	mov	r3, #42	; 0x2a
    96bc:	e59f202c 	ldr	r2, [pc, #44]	; 96f0 <kmalloc_aligned+0x7c>
    96c0:	e59f102c 	ldr	r1, [pc, #44]	; 96f4 <kmalloc_aligned+0x80>
    96c4:	e59f002c 	ldr	r0, [pc, #44]	; 96f8 <kmalloc_aligned+0x84>
    96c8:	ebfffd11 	bl	8b14 <printk>
    96cc:	ebfffea1 	bl	9158 <clean_reboot>
    96d0:	ebfffd2a 	bl	8b80 <rpi_reset_putc>
    96d4:	e3a03030 	mov	r3, #48	; 0x30
    96d8:	e59f2010 	ldr	r2, [pc, #16]	; 96f0 <kmalloc_aligned+0x7c>
    96dc:	e59f1010 	ldr	r1, [pc, #16]	; 96f4 <kmalloc_aligned+0x80>
    96e0:	e59f0014 	ldr	r0, [pc, #20]	; 96fc <kmalloc_aligned+0x88>
    96e4:	ebfffd0a 	bl	8b14 <printk>
    96e8:	ebfffe9a 	bl	9158 <clean_reboot>
    96ec:	0000974c 	andeq	r9, r0, ip, asr #14
    96f0:	00009c5c 	andeq	r9, r0, ip, asr ip
    96f4:	00009c6c 	andeq	r9, r0, ip, ror #24
    96f8:	00009ca8 	andeq	r9, r0, r8, lsr #25
    96fc:	00009d08 	andeq	r9, r0, r8, lsl #26

00009700 <kfree>:
    9700:	e12fff1e 	bx	lr

00009704 <kfree_all>:
    9704:	e59f3008 	ldr	r3, [pc, #8]	; 9714 <kfree_all+0x10>
    9708:	e5932004 	ldr	r2, [r3, #4]
    970c:	e5832000 	str	r2, [r3]
    9710:	e12fff1e 	bx	lr
    9714:	0000974c 	andeq	r9, r0, ip, asr #14

00009718 <kfree_after>:
    9718:	e59f3004 	ldr	r3, [pc, #4]	; 9724 <kfree_after+0xc>
    971c:	e5830000 	str	r0, [r3]
    9720:	e12fff1e 	bx	lr
    9724:	0000974c 	andeq	r9, r0, ip, asr #14

00009728 <dev_barrier>:
    9728:	ea000002 	b	9738 <dsb>

0000972c <dmb>:
    972c:	e3a00000 	mov	r0, #0
    9730:	ee070fba 	mcr	15, 0, r0, cr7, cr10, {5}
    9734:	e12fff1e 	bx	lr

00009738 <dsb>:
    9738:	ee070f9a 	mcr	15, 0, r0, cr7, cr10, {4}
    973c:	e12fff1e 	bx	lr

Disassembly of section .data:

00009740 <rpi_putchar>:
    9740:	00008b6c 	andeq	r8, r0, ip, ror #22

00009744 <putk>:
    9744:	00008ba8 	andeq	r8, r0, r8, lsr #23

00009748 <lfsr>:
    9748:	0000ace1 	andeq	sl, r0, r1, ror #25

0000974c <heap>:
    974c:	0000a168 	andeq	sl, r0, r8, ror #2

00009750 <heap_start>:
    9750:	0000a168 	andeq	sl, r0, r8, ror #2

Disassembly of section .rodata:

00009754 <__FUNCTION__.4341-0xcc>:
    9754:	74736574 	ldrbtvc	r6, [r3], #-1396	; 0xfffffa8c
    9758:	75203a34 	strvc	r3, [r0, #-2612]!	; 0xfffff5cc
    975c:	61206573 			; <UNDEFINED> instruction: 0x61206573
    9760:	72657466 	rsbvc	r7, r5, #1711276032	; 0x66000000
    9764:	65726620 	ldrbvs	r6, [r2, #-1568]!	; 0xfffff9e0
    9768:	00000a65 	andeq	r0, r0, r5, ror #20
    976c:	74726170 	ldrbtvc	r6, [r2], #-368	; 0xfffffe90
    9770:	65742d31 	ldrbvs	r2, [r4, #-3377]!	; 0xfffff2cf
    9774:	2e367473 	mrccs	4, 1, r7, cr6, cr3, {3}
    9778:	00000063 	andeq	r0, r0, r3, rrx
    977c:	494e4150 	stmdbmi	lr, {r4, r6, r8, lr}^
    9780:	73253a43 			; <UNDEFINED> instruction: 0x73253a43
    9784:	3a73253a 	bcc	1cd2c74 <__bss_end__+0x1cc8b0c>
    9788:	693a6425 	ldmdbvs	sl!, {r0, r2, r5, sl, sp, lr}
    978c:	6c61766e 	stclvs	6, cr7, [r1], #-440	; 0xfffffe48
    9790:	65206469 	strvs	r6, [r0, #-1129]!	; 0xfffffb97
    9794:	726f7272 	rsbvc	r7, pc, #536870919	; 0x20000007
    9798:	0a0a2121 	beq	291c24 <__bss_end__+0x287abc>
    979c:	00000000 	andeq	r0, r0, r0
    97a0:	43415254 	movtmi	r5, #4692	; 0x1254
    97a4:	00003a45 	andeq	r3, r0, r5, asr #20
    97a8:	43435553 	movtmi	r5, #13651	; 0x3553
    97ac:	20535345 	subscs	r5, r3, r5, asr #6
    97b0:	70616568 	rsbvc	r6, r1, r8, ror #10
    97b4:	65686320 	strbvs	r6, [r8, #-800]!	; 0xfffffce0
    97b8:	64656b63 	strbtvs	r6, [r5], #-2915	; 0xfffff49d
    97bc:	74756f20 	ldrbtvc	r6, [r5], #-3872	; 0xfffff0e0
    97c0:	0000000a 	andeq	r0, r0, sl
    97c4:	72726f63 	rsbsvc	r6, r2, #396	; 0x18c
    97c8:	69747075 	ldmdbvs	r4!, {r0, r2, r4, r5, r6, ip, sp, lr}^
    97cc:	2520676e 	strcs	r6, [r0, #-1902]!	; 0xfffff892
    97d0:	74612070 	strbtvc	r2, [r1], #-112	; 0xffffff90
    97d4:	66666f20 	strbtvs	r6, [r6], -r0, lsr #30
    97d8:	20746573 	rsbscs	r6, r4, r3, ror r5
    97dc:	28206425 	stmdacs	r0!, {r0, r2, r5, sl, sp, lr}
    97e0:	0a297025 	beq	a6587c <__bss_end__+0xa5b714>
    97e4:	00000000 	andeq	r0, r0, r0
    97e8:	494e4150 	stmdbmi	lr, {r4, r6, r8, lr}^
    97ec:	73253a43 			; <UNDEFINED> instruction: 0x73253a43
    97f0:	3a73253a 	bcc	1cd2ce0 <__bss_end__+0x1cc8b78>
    97f4:	6d3a6425 	cfldrsvs	mvf6, [sl, #-148]!	; 0xffffff6c
    97f8:	65737369 	ldrbvs	r7, [r3, #-873]!	; 0xfffffc97
    97fc:	72652064 	rsbvc	r2, r5, #100	; 0x64
    9800:	21726f72 	cmncs	r2, r2, ror pc
    9804:	00000a0a 	andeq	r0, r0, sl, lsl #20
    9808:	43435553 	movtmi	r5, #13651	; 0x3553
    980c:	20535345 	subscs	r5, r3, r5, asr #6
    9810:	6e756f66 	cdpvs	15, 7, cr6, cr5, cr6, {3}
    9814:	72652064 	rsbvc	r2, r5, #100	; 0x64
    9818:	0a726f72 	beq	1ca55e8 <__bss_end__+0x1c9b480>
    981c:	00000000 	andeq	r0, r0, r0

00009820 <__FUNCTION__.4341>:
    9820:	6d746f6e 	ldclvs	15, cr6, [r4, #-440]!	; 0xfffffe48
    9824:	006e6961 	rsbeq	r6, lr, r1, ror #18
    9828:	4f525245 	svcmi	0x00525245
    982c:	00003a52 	andeq	r3, r0, r2, asr sl
    9830:	636f6c62 	cmnvs	pc, #25088	; 0x6200
    9834:	7025206b 	eorvc	r2, r5, fp, rrx
    9838:	726f6320 	rsbvc	r6, pc, #32, 6	; 0x80000000
    983c:	74707572 	ldrbtvc	r7, [r0], #-1394	; 0xfffffa8e
    9840:	61206465 			; <UNDEFINED> instruction: 0x61206465
    9844:	666f2074 			; <UNDEFINED> instruction: 0x666f2074
    9848:	74657366 	strbtvc	r7, [r5], #-870	; 0xfffffc9a
    984c:	0a642520 	beq	1912cd4 <__bss_end__+0x1908b6c>
    9850:	00000000 	andeq	r0, r0, r0
    9854:	79626e09 	stmdbvc	r2!, {r0, r3, r9, sl, fp, sp, lr}^
    9858:	3d736574 	cfldr64cc	mvdx6, [r3, #-464]!	; 0xfffffe30
    985c:	000a6425 	andeq	r6, sl, r5, lsr #8
    9860:	6f6c4209 	svcvs	0x006c4209
    9864:	61206b63 			; <UNDEFINED> instruction: 0x61206b63
    9868:	636f6c6c 	cmnvs	pc, #108, 24	; 0x6c00
    986c:	64657461 	strbtvs	r7, [r5], #-1121	; 0xfffffb9f
    9870:	3a746120 	bcc	1d21cf8 <__bss_end__+0x1d17b90>
    9874:	3a732520 	bcc	1cd2cfc <__bss_end__+0x1cc8b94>
    9878:	253a7325 	ldrcs	r7, [sl, #-805]!	; 0xfffffcdb
    987c:	00000a64 	andeq	r0, r0, r4, ror #20
    9880:	6f6c4209 	svcvs	0x006c4209
    9884:	66206b63 	strtvs	r6, [r0], -r3, ror #22
    9888:	64656572 	strbtvs	r6, [r5], #-1394	; 0xfffffa8e
    988c:	3a746120 	bcc	1d21d14 <__bss_end__+0x1d17bac>
    9890:	3a732520 	bcc	1cd2d18 <__bss_end__+0x1cc8bb0>
    9894:	253a7325 	ldrcs	r7, [sl, #-805]!	; 0xfffffcdb
    9898:	00000a64 	andeq	r0, r0, r4, ror #20
    989c:	6f725709 	svcvs	0x00725709
    98a0:	62206574 	eorvs	r6, r0, #116, 10	; 0x1d000000
    98a4:	6b636f6c 	blvs	18e565c <__bss_end__+0x18db4f4>
    98a8:	74666120 	strbtvc	r6, [r6], #-288	; 0xfffffee0
    98ac:	66207265 	strtvs	r7, [r0], -r5, ror #4
    98b0:	21656572 	smccs	22098	; 0x5652
    98b4:	0000000a 	andeq	r0, r0, sl
    98b8:	6c616b63 			; <UNDEFINED> instruction: 0x6c616b63
    98bc:	2e636f6c 	cdpcs	15, 6, cr6, cr3, cr12, {3}
    98c0:	00000063 	andeq	r0, r0, r3, rrx
    98c4:	494e4150 	stmdbmi	lr, {r4, r6, r8, lr}^
    98c8:	73253a43 			; <UNDEFINED> instruction: 0x73253a43
    98cc:	3a73253a 	bcc	1cd2dbc <__bss_end__+0x1cc8c54>
    98d0:	613a6425 	teqvs	sl, r5, lsr #8
    98d4:	6e67696c 	vnmulvs.f16	s13, s14, s25	; <UNPREDICTABLE>
    98d8:	68286465 	stmdavs	r8!, {r0, r2, r5, r6, sl, sp, lr}
    98dc:	5f706165 	svcpl	0x00706165
    98e0:	72617473 	rsbvc	r7, r1, #1929379840	; 0x73000000
    98e4:	38202c74 	stmdacc	r0!, {r2, r4, r5, r6, sl, fp, sp}
    98e8:	00000a29 	andeq	r0, r0, r9, lsr #20
    98ec:	657a6973 	ldrbvs	r6, [sl, #-2419]!	; 0xfffff68d
    98f0:	6820666f 	stmdavs	r0!, {r0, r1, r2, r3, r5, r6, r9, sl, sp, lr}
    98f4:	253d7264 	ldrcs	r7, [sp, #-612]!	; 0xfffffd9c
    98f8:	72202c64 	eorvc	r2, r0, #100, 24	; 0x6400
    98fc:	6f7a6465 	svcvs	0x007a6465
    9900:	253d656e 	ldrcs	r6, [sp, #-1390]!	; 0xfffffa92
    9904:	00000a64 	andeq	r0, r0, r4, ror #20
    9908:	4f525245 	svcmi	0x00525245
    990c:	73253a52 			; <UNDEFINED> instruction: 0x73253a52
    9910:	3a73253a 	bcc	1cd2e00 <__bss_end__+0x1cc8c98>
    9914:	203a6425 	eorscs	r6, sl, r5, lsr #8
    9918:	534c4146 	movtpl	r4, #49478	; 0xc146
    991c:	683c2845 	ldmdavs	ip!, {r0, r2, r6, fp, sp}
    9920:	3e706165 	rpwccsz	f6, f0, f5
    9924:	6e203a29 	vmulvs.f32	s6, s0, s19
    9928:	6920746f 	stmdbvs	r0!, {r0, r1, r2, r3, r5, r6, sl, ip, sp, lr}
    992c:	6974696e 	ldmdbvs	r4!, {r1, r2, r3, r5, r6, r8, fp, sp, lr}^
    9930:	7a696c61 	bvc	1a64abc <__bss_end__+0x1a5a954>
    9934:	0a3f6465 	beq	fe2ad0 <__bss_end__+0xfd8968>
    9938:	00000000 	andeq	r0, r0, r0
    993c:	65657266 	strbvs	r7, [r5, #-614]!	; 0xfffffd9a
    9940:	20676e69 	rsbcs	r6, r7, r9, ror #28
    9944:	000a7025 	andeq	r7, sl, r5, lsr #32
    9948:	6f6c6c61 	svcvs	0x006c6c61
    994c:	69746163 	ldmdbvs	r4!, {r0, r1, r5, r6, r8, sp, lr}^
    9950:	2520676e 	strcs	r6, [r0, #-1902]!	; 0xfffff892
    9954:	79622064 	stmdbvc	r2!, {r2, r5, r6, sp}^
    9958:	0a736574 	beq	1ce2f30 <__bss_end__+0x1cd8dc8>
    995c:	00000000 	andeq	r0, r0, r0
    9960:	43415254 	movtmi	r5, #4692	; 0x1254
    9964:	52453a45 	subpl	r3, r5, #282624	; 0x45000
    9968:	00524f52 	subseq	r4, r2, r2, asr pc
    996c:	657a6973 	ldrbvs	r6, [sl, #-2419]!	; 0xfffff68d
    9970:	65766f20 	ldrbvs	r6, [r6, #-3872]!	; 0xfffff0e0
    9974:	6f6c6672 	svcvs	0x006c6672
    9978:	3a646577 	bcc	1922f5c <__bss_end__+0x1918df4>
    997c:	20642520 	rsbcs	r2, r4, r0, lsr #10
    9980:	65747962 	ldrbvs	r7, [r4, #-2402]!	; 0xfffff69e
    9984:	73692073 	cmnvc	r9, #115	; 0x73
    9988:	6f6f7420 	svcvs	0x006f7420
    998c:	72616c20 	rsbvc	r6, r1, #32, 24	; 0x2000
    9990:	000a6567 	andeq	r6, sl, r7, ror #10
    9994:	494e4150 	stmdbmi	lr, {r4, r6, r8, lr}^
    9998:	73253a43 			; <UNDEFINED> instruction: 0x73253a43
    999c:	3a73253a 	bcc	1cd2e8c <__bss_end__+0x1cc8d24>
    99a0:	733a6425 	teqvc	sl, #620756992	; 0x25000000
    99a4:	20657a69 	rsbcs	r7, r5, r9, ror #20
    99a8:	7265766f 	rsbvc	r7, r5, #116391936	; 0x6f00000
    99ac:	776f6c66 	strbvc	r6, [pc, -r6, ror #24]!
    99b0:	203a6465 	eorscs	r6, sl, r5, ror #8
    99b4:	62206425 	eorvs	r6, r0, #620756992	; 0x25000000
    99b8:	73657479 	cmnvc	r5, #2030043136	; 0x79000000
    99bc:	20736920 	rsbscs	r6, r3, r0, lsr #18
    99c0:	206f6f74 	rsbcs	r6, pc, r4, ror pc	; <UNPREDICTABLE>
    99c4:	6772616c 	ldrbvs	r6, [r2, -ip, ror #2]!
    99c8:	000a0a65 	andeq	r0, sl, r5, ror #20
    99cc:	2074756f 	rsbscs	r7, r4, pc, ror #10
    99d0:	6d20666f 	stcvs	6, cr6, [r0, #-444]!	; 0xfffffe44
    99d4:	726f6d65 	rsbvc	r6, pc, #6464	; 0x1940
    99d8:	20202179 	eorcs	r2, r0, r9, ror r1
    99dc:	65766168 	ldrbvs	r6, [r6, #-360]!	; 0xfffffe98
    99e0:	6c6e6f20 	stclvs	15, cr6, [lr], #-128	; 0xffffff80
    99e4:	64252079 	strtvs	r2, [r5], #-121	; 0xffffff87
    99e8:	66656c20 	strbtvs	r6, [r5], -r0, lsr #24
    99ec:	6e202c74 	mcrvs	12, 1, r2, cr0, cr4, {3}
    99f0:	20646565 	rsbcs	r6, r4, r5, ror #10
    99f4:	000a6425 	andeq	r6, sl, r5, lsr #8
    99f8:	494e4150 	stmdbmi	lr, {r4, r6, r8, lr}^
    99fc:	73253a43 			; <UNDEFINED> instruction: 0x73253a43
    9a00:	3a73253a 	bcc	1cd2ef0 <__bss_end__+0x1cc8d88>
    9a04:	6f3a6425 	svcvs	0x003a6425
    9a08:	6f207475 	svcvs	0x00207475
    9a0c:	656d2066 	strbvs	r2, [sp, #-102]!	; 0xffffff9a
    9a10:	79726f6d 	ldmdbvc	r2!, {r0, r2, r3, r5, r6, r8, r9, sl, fp, sp, lr}^
    9a14:	68202021 	stmdavs	r0!, {r0, r5, sp}
    9a18:	20657661 	rsbcs	r7, r5, r1, ror #12
    9a1c:	796c6e6f 	stmdbvc	ip!, {r0, r1, r2, r3, r5, r6, r9, sl, fp, sp, lr}^
    9a20:	20642520 	rsbcs	r2, r4, r0, lsr #10
    9a24:	7466656c 	strbtvc	r6, [r6], #-1388	; 0xfffffa94
    9a28:	656e202c 	strbvs	r2, [lr, #-44]!	; 0xffffffd4
    9a2c:	25206465 	strcs	r6, [r0, #-1125]!	; 0xfffffb9b
    9a30:	000a0a64 	andeq	r0, sl, r4, ror #20
    9a34:	494e4150 	stmdbmi	lr, {r4, r6, r8, lr}^
    9a38:	73253a43 			; <UNDEFINED> instruction: 0x73253a43
    9a3c:	3a73253a 	bcc	1cd2f2c <__bss_end__+0x1cc8dc4>
    9a40:	633a6425 	teqvs	sl, #620756992	; 0x25000000
    9a44:	6b636568 	blvs	18e2fec <__bss_end__+0x18d8e84>
    9a48:	6f6c625f 	svcvs	0x006c625f
    9a4c:	68286b63 	stmdavs	r8!, {r0, r1, r5, r6, r8, r9, fp, sp, lr}
    9a50:	00000a29 	andeq	r0, r0, r9, lsr #20
    9a54:	6c616b63 			; <UNDEFINED> instruction: 0x6c616b63
    9a58:	3a636f6c 	bcc	18e5810 <__bss_end__+0x18db6a8>
    9a5c:	6f6c6c61 	svcvs	0x006c6c61
    9a60:	65746163 	ldrbvs	r6, [r4, #-355]!	; 0xfffffe9d
    9a64:	64252064 	strtvs	r2, [r5], #-100	; 0xffffff9c
    9a68:	74796220 	ldrbtvc	r6, [r9], #-544	; 0xfffffde0
    9a6c:	202c7365 	eorcs	r7, ip, r5, ror #6
    9a70:	746f7428 	strbtvc	r7, [pc], #-1064	; 9a78 <__FUNCTION__.4341+0x258>
    9a74:	253d6c61 	ldrcs	r6, [sp, #-3169]!	; 0xfffff39f
    9a78:	202c2964 	eorcs	r2, ip, r4, ror #18
    9a7c:	3d727470 	cfldrdcc	mvd7, [r2, #-448]!	; 0xfffffe40
    9a80:	000a7025 	andeq	r7, sl, r5, lsr #32
    9a84:	6e696f67 	cdpvs	15, 6, cr6, cr9, cr7, {3}
    9a88:	6f742067 	svcvs	0x00742067
    9a8c:	65686320 	strbvs	r6, [r8, #-800]!	; 0xfffffce0
    9a90:	68206b63 	stmdavs	r0!, {r0, r1, r5, r6, r8, r9, fp, sp, lr}
    9a94:	3a706165 	bcc	1c22030 <__bss_end__+0x1c17ec8>
    9a98:	20642520 	rsbcs	r2, r4, r0, lsr #10
    9a9c:	65747962 	ldrbvs	r7, [r4, #-2402]!	; 0xfffff69e
    9aa0:	6c612073 	stclvs	0, cr2, [r1], #-460	; 0xfffffe34
    9aa4:	61636f6c 	cmnvs	r3, ip, ror #30
    9aa8:	2c646574 	cfstr64cs	mvdx6, [r4], #-464	; 0xfffffe30
    9aac:	20642520 	rsbcs	r2, r4, r0, lsr #10
    9ab0:	65747962 	ldrbvs	r7, [r4, #-2402]!	; 0xfffff69e
    9ab4:	656c2073 	strbvs	r2, [ip, #-115]!	; 0xffffff8d
    9ab8:	000a7466 	andeq	r7, sl, r6, ror #8
    9abc:	63656863 	cmnvs	r5, #6488064	; 0x630000
    9ac0:	2064656b 	rsbcs	r6, r4, fp, ror #10
    9ac4:	62206425 	eorvs	r6, r0, #620756992	; 0x25000000
    9ac8:	6b636f6c 	blvs	18e5880 <__bss_end__+0x18db718>
    9acc:	64202c73 	strtvs	r2, [r0], #-3187	; 0xfffff38d
    9ad0:	63657465 	cmnvs	r5, #1694498816	; 0x65000000
    9ad4:	20646574 	rsbcs	r6, r4, r4, ror r5
    9ad8:	65206425 	strvs	r6, [r0, #-1061]!	; 0xfffffbdb
    9adc:	726f7272 	rsbvc	r7, pc, #536870919	; 0x20000007
    9ae0:	00000a73 	andeq	r0, r0, r3, ror sl
    9ae4:	43435553 	movtmi	r5, #13651	; 0x3553
    9ae8:	3a535345 	bcc	14de804 <__bss_end__+0x14d469c>
    9aec:	65686320 	strbvs	r6, [r8, #-800]!	; 0xfffffce0
    9af0:	64656b63 	strbtvs	r6, [r5], #-2915	; 0xfffff49d
    9af4:	20642520 	rsbcs	r2, r4, r0, lsr #10
    9af8:	636f6c62 	cmnvs	pc, #25088	; 0x6200
    9afc:	202c736b 	eorcs	r7, ip, fp, ror #6
    9b00:	65746564 	ldrbvs	r6, [r4, #-1380]!	; 0xfffffa9c
    9b04:	64657463 	strbtvs	r7, [r5], #-1123	; 0xfffffb9d
    9b08:	206f6e20 	rsbcs	r6, pc, r0, lsr #28
    9b0c:	6f727265 	svcvs	0x00727265
    9b10:	000a7372 	andeq	r7, sl, r2, ror r3

00009b14 <__FUNCTION__.4339>:
    9b14:	695f6b63 	ldmdbvs	pc, {r0, r1, r5, r6, r8, r9, fp, sp, lr}^	; <UNPREDICTABLE>
    9b18:	0074696e 	rsbseq	r6, r4, lr, ror #18

00009b1c <__FUNCTION__.4397>:
    9b1c:	72666b63 	rsbvc	r6, r6, #101376	; 0x18c00
    9b20:	00006565 	andeq	r6, r0, r5, ror #10

00009b24 <__FUNCTION__.4407>:
    9b24:	6c616b63 			; <UNDEFINED> instruction: 0x6c616b63
    9b28:	00636f6c 	rsbeq	r6, r3, ip, ror #30
    9b2c:	6362696c 	cmnvs	r2, #108, 18	; 0x1b0000
    9b30:	2d61762f 	stclcs	6, cr7, [r1, #-188]!	; 0xffffff44
    9b34:	6e697270 	mcrvs	2, 3, r7, cr9, cr0, {3}
    9b38:	632e6b74 			; <UNDEFINED> instruction: 0x632e6b74
    9b3c:	00000000 	andeq	r0, r0, r0
    9b40:	494e4150 	stmdbmi	lr, {r4, r6, r8, lr}^
    9b44:	73253a43 			; <UNDEFINED> instruction: 0x73253a43
    9b48:	3a73253a 	bcc	1cd3038 <__bss_end__+0x1cc8ed0>
    9b4c:	303a6425 	eorscc	r6, sl, r5, lsr #8
    9b50:	0000000a 	andeq	r0, r0, sl
    9b54:	33323130 	teqcc	r2, #48, 2
    9b58:	37363534 			; <UNDEFINED> instruction: 0x37363534
    9b5c:	00003938 	andeq	r3, r0, r8, lsr r9
    9b60:	33323130 	teqcc	r2, #48, 2
    9b64:	37363534 			; <UNDEFINED> instruction: 0x37363534
    9b68:	62613938 	rsbvs	r3, r1, #56, 18	; 0xe0000
    9b6c:	66656463 	strbtvs	r6, [r5], -r3, ror #8
    9b70:	00000000 	andeq	r0, r0, r0
    9b74:	00003130 	andeq	r3, r0, r0, lsr r1
    9b78:	494e4150 	stmdbmi	lr, {r4, r6, r8, lr}^
    9b7c:	73253a43 			; <UNDEFINED> instruction: 0x73253a43
    9b80:	3a73253a 	bcc	1cd3070 <__bss_end__+0x1cc8f08>
    9b84:	703a6425 	eorsvc	r6, sl, r5, lsr #8
    9b88:	5f637475 	svcpl	0x00637475
    9b8c:	000a7066 	andeq	r7, sl, r6, rrx
    9b90:	494e4150 	stmdbmi	lr, {r4, r6, r8, lr}^
    9b94:	73253a43 			; <UNDEFINED> instruction: 0x73253a43
    9b98:	3a73253a 	bcc	1cd3088 <__bss_end__+0x1cc8f20>
    9b9c:	773a6425 	ldrvc	r6, [sl, -r5, lsr #8]!
    9ba0:	68746469 	ldmdavs	r4!, {r0, r3, r5, r6, sl, sp, lr}^
    9ba4:	33203c20 			; <UNDEFINED> instruction: 0x33203c20
    9ba8:	00000a32 	andeq	r0, r0, r2, lsr sl
    9bac:	494e4150 	stmdbmi	lr, {r4, r6, r8, lr}^
    9bb0:	73253a43 			; <UNDEFINED> instruction: 0x73253a43
    9bb4:	3a73253a 	bcc	1cd30a4 <__bss_end__+0x1cc8f3c>
    9bb8:	663a6425 	ldrtvs	r6, [sl], -r5, lsr #8
    9bbc:	74616f6c 	strbtvc	r6, [r1], #-3948	; 0xfffff094
    9bc0:	746f6e20 	strbtvc	r6, [pc], #-3616	; 9bc8 <__FUNCTION__.4407+0xa4>
    9bc4:	616e6520 	cmnvs	lr, r0, lsr #10
    9bc8:	64656c62 	strbtvs	r6, [r5], #-3170	; 0xfffff39e
    9bcc:	0a212121 	beq	852058 <__bss_end__+0x847ef0>
    9bd0:	00000000 	andeq	r0, r0, r0
    9bd4:	494e4150 	stmdbmi	lr, {r4, r6, r8, lr}^
    9bd8:	73253a43 			; <UNDEFINED> instruction: 0x73253a43
    9bdc:	3a73253a 	bcc	1cd30cc <__bss_end__+0x1cc8f64>
    9be0:	703a6425 	eorsvc	r6, sl, r5, lsr #8
    9be4:	746e6972 	strbtvc	r6, [lr], #-2418	; 0xfffff68e
    9be8:	6e203a6b 	vnmulvs.f32	s6, s0, s23
    9bec:	6820746f 	stmdavs	r0!, {r0, r1, r2, r3, r5, r6, sl, ip, sp, lr}
    9bf0:	6c646e61 	stclvs	14, cr6, [r4], #-388	; 0xfffffe7c
    9bf4:	20676e69 	rsbcs	r6, r7, r9, ror #28
    9bf8:	63657073 	cmnvs	r5, #115	; 0x73
    9bfc:	65696669 	strbvs	r6, [r9, #-1641]!	; 0xfffff997
    9c00:	25272072 	strcs	r2, [r7, #-114]!	; 0xffffff8e
    9c04:	0a0a2763 	beq	293998 <__bss_end__+0x289830>
    9c08:	00000000 	andeq	r0, r0, r0

00009c0c <__FUNCTION__.4349>:
    9c0c:	74696d65 	strbtvc	r6, [r9], #-3429	; 0xfffff29b
    9c10:	00000000 	andeq	r0, r0, r0

00009c14 <__FUNCTION__.4297>:
    9c14:	5f697072 	svcpl	0x00697072
    9c18:	5f746573 	svcpl	0x00746573
    9c1c:	7074756f 	rsbsvc	r7, r4, pc, ror #10
    9c20:	00007475 	andeq	r7, r0, r5, ror r4

00009c24 <__FUNCTION__.4371>:
    9c24:	705f6176 	subsvc	r6, pc, r6, ror r1	; <UNPREDICTABLE>
    9c28:	746e6972 	strbtvc	r6, [lr], #-2418	; 0xfffff68e
    9c2c:	0000006b 	andeq	r0, r0, fp, rrx
    9c30:	454e4f44 	strbmi	r4, [lr, #-3908]	; 0xfffff0bc
    9c34:	0a212121 	beq	8520c0 <__bss_end__+0x847f58>
    9c38:	00000000 	andeq	r0, r0, r0

00009c3c <__FUNCTION__.4237>:
    9c3c:	6c616d6b 	stclvs	13, cr6, [r1], #-428	; 0xfffffe54
    9c40:	5f636f6c 	svcpl	0x00636f6c
    9c44:	74696e69 	strbtvc	r6, [r9], #-3689	; 0xfffff197
    9c48:	7465735f 	strbtvc	r7, [r5], #-863	; 0xfffffca1
    9c4c:	6174735f 	cmnvs	r4, pc, asr r3
    9c50:	00007472 	andeq	r7, r0, r2, ror r4

00009c54 <__FUNCTION__.4241>:
    9c54:	6c616d6b 	stclvs	13, cr6, [r1], #-428	; 0xfffffe54
    9c58:	00636f6c 	rsbeq	r6, r3, ip, ror #30

00009c5c <__FUNCTION__.4253>:
    9c5c:	6c616d6b 	stclvs	13, cr6, [r1], #-428	; 0xfffffe54
    9c60:	5f636f6c 	svcpl	0x00636f6c
    9c64:	67696c61 	strbvs	r6, [r9, -r1, ror #24]!
    9c68:	0064656e 	rsbeq	r6, r4, lr, ror #10
    9c6c:	6c616d6b 	stclvs	13, cr6, [r1], #-428	; 0xfffffe54
    9c70:	2e636f6c 	cdpcs	15, 6, cr6, cr3, cr12, {3}
    9c74:	00000063 	andeq	r0, r0, r3, rrx
    9c78:	494e4150 	stmdbmi	lr, {r4, r6, r8, lr}^
    9c7c:	73253a43 			; <UNDEFINED> instruction: 0x73253a43
    9c80:	3a73253a 	bcc	1cd3170 <__bss_end__+0x1cc9008>
    9c84:	613a6425 	teqvs	sl, r5, lsr #8
    9c88:	20726464 	rsbscs	r6, r2, r4, ror #8
    9c8c:	6568203e 	strbvs	r2, [r8, #-62]!	; 0xffffffc2
    9c90:	000a7061 	andeq	r7, sl, r1, rrx
    9c94:	494e4150 	stmdbmi	lr, {r4, r6, r8, lr}^
    9c98:	73253a43 			; <UNDEFINED> instruction: 0x73253a43
    9c9c:	3a73253a 	bcc	1cd318c <__bss_end__+0x1cc9024>
    9ca0:	733a6425 	teqvc	sl, #620756992	; 0x25000000
    9ca4:	00000a7a 	andeq	r0, r0, sl, ror sl
    9ca8:	4f525245 	svcmi	0x00525245
    9cac:	73253a52 			; <UNDEFINED> instruction: 0x73253a52
    9cb0:	3a73253a 	bcc	1cd31a0 <__bss_end__+0x1cc9038>
    9cb4:	203a6425 	eorscs	r6, sl, r5, lsr #8
    9cb8:	534c4146 	movtpl	r4, #49478	; 0xc146
    9cbc:	283c2845 	ldmdacs	ip!, {r0, r2, r6, fp, sp}
    9cc0:	6c612828 	stclvs	8, cr2, [r1], #-160	; 0xffffff60
    9cc4:	6d6e6769 	stclvs	7, cr6, [lr, #-420]!	; 0xfffffe5c
    9cc8:	29746e65 	ldmdbcs	r4!, {r0, r2, r5, r6, r9, sl, fp, sp, lr}^
    9ccc:	61282d26 			; <UNDEFINED> instruction: 0x61282d26
    9cd0:	6e67696c 	vnmulvs.f16	s13, s14, s25	; <UNPREDICTABLE>
    9cd4:	746e656d 	strbtvc	r6, [lr], #-1389	; 0xfffffa93
    9cd8:	3d202929 			; <UNDEFINED> instruction: 0x3d202929
    9cdc:	6128203d 			; <UNDEFINED> instruction: 0x6128203d
    9ce0:	6e67696c 	vnmulvs.f16	s13, s14, s25	; <UNPREDICTABLE>
    9ce4:	746e656d 	strbtvc	r6, [lr], #-1389	; 0xfffffa93
    9ce8:	293e2929 	ldmdbcs	lr!, {r0, r3, r5, r8, fp, sp}
    9cec:	7361203a 	cmnvc	r1, #58	; 0x3a
    9cf0:	696d7573 	stmdbvs	sp!, {r0, r1, r4, r5, r6, r8, sl, ip, sp, lr}^
    9cf4:	7020676e 	eorvc	r6, r0, lr, ror #14
    9cf8:	7265776f 	rsbvc	r7, r5, #29097984	; 0x1bc0000
    9cfc:	20666f20 	rsbcs	r6, r6, r0, lsr #30
    9d00:	0a6f7774 	beq	1be7ad8 <__bss_end__+0x1bdd970>
    9d04:	00000000 	andeq	r0, r0, r0
    9d08:	4f525245 	svcmi	0x00525245
    9d0c:	73253a52 			; <UNDEFINED> instruction: 0x73253a52
    9d10:	3a73253a 	bcc	1cd3200 <__bss_end__+0x1cc9098>
    9d14:	203a6425 	eorscs	r6, sl, r5, lsr #8
    9d18:	534c4146 	movtpl	r4, #49478	; 0xc146
    9d1c:	283c2845 	ldmdacs	ip!, {r0, r2, r6, fp, sp}
    9d20:	29682828 	stmdbcs	r8!, {r3, r5, fp, sp}^
    9d24:	28202620 	stmdacs	r0!, {r5, r9, sl, sp}
    9d28:	70797428 	rsbsvc	r7, r9, r8, lsr #8
    9d2c:	28666f65 	stmdacs	r6!, {r0, r2, r5, r6, r8, r9, sl, fp, sp, lr}^
    9d30:	28292968 	stmdacs	r9!, {r3, r5, r6, r8, fp, sp}
    9d34:	67696c61 	strbvs	r6, [r9, -r1, ror #24]!
    9d38:	6e656d6e 	cdpvs	13, 6, cr6, cr5, cr14, {3}
    9d3c:	2d202974 			; <UNDEFINED> instruction: 0x2d202974
    9d40:	29293120 	stmdbcs	r9!, {r5, r8, ip, sp}
    9d44:	203d3d20 	eorscs	r3, sp, r0, lsr #26
    9d48:	293e2930 	ldmdbcs	lr!, {r4, r5, r8, fp, sp}
    9d4c:	6d69203a 	stclvs	0, cr2, [r9, #-232]!	; 0xffffff18
    9d50:	73736f70 	cmnvc	r3, #112, 30	; 0x1c0
    9d54:	656c6269 	strbvs	r6, [ip, #-617]!	; 0xfffffd97
    9d58:	Address 0x0000000000009d58 is out of bounds.


Disassembly of section .bss:

00009d5c <__bss_start__>:
    9d5c:	00000000 	andeq	r0, r0, r0

00009d60 <heap>:
    9d60:	00000000 	andeq	r0, r0, r0

00009d64 <heap_end>:
    9d64:	00000000 	andeq	r0, r0, r0

00009d68 <buf.4297>:
	...

Disassembly of section .ARM.attributes:

00000000 <.ARM.attributes>:
   0:	00002c41 	andeq	r2, r0, r1, asr #24
   4:	61656100 	cmnvs	r5, r0, lsl #2
   8:	01006962 	tsteq	r0, r2, ror #18
   c:	00000022 	andeq	r0, r0, r2, lsr #32
  10:	4b5a3605 	blmi	168d82c <__bss_end__+0x16836c4>
  14:	08070600 	stmdaeq	r7, {r9, sl}
  18:	0a010901 	beq	42424 <__bss_end__+0x382bc>
  1c:	14041202 	strne	r1, [r4], #-514	; 0xfffffdfe
  20:	17011501 	strne	r1, [r1, -r1, lsl #10]
  24:	1a011803 	bne	46038 <__bss_end__+0x3bed0>
  28:	44012201 	strmi	r2, [r1], #-513	; 0xfffffdff
  2c:	Address 0x000000000000002c is out of bounds.


Disassembly of section .comment:

00000000 <.comment>:
   0:	3a434347 	bcc	10d0d24 <__bss_end__+0x10c6bbc>
   4:	72412820 	subvc	r2, r1, #32, 16	; 0x200000
   8:	52206863 	eorpl	r6, r0, #6488064	; 0x630000
   c:	736f7065 	cmnvc	pc, #101	; 0x65
  10:	726f7469 	rsbvc	r7, pc, #1761607680	; 0x69000000
  14:	39202979 	stmdbcc	r0!, {r0, r3, r4, r5, r6, r8, fp, sp}
  18:	302e322e 	eorcc	r3, lr, lr, lsr #4
  1c:	43434700 	movtmi	r4, #14080	; 0x3700
  20:	3128203a 			; <UNDEFINED> instruction: 0x3128203a
  24:	2e363a35 			; <UNDEFINED> instruction: 0x2e363a35
  28:	2b312e33 	blcs	c4b8fc <__bss_end__+0xc41794>
  2c:	326e7673 	rsbcc	r7, lr, #120586240	; 0x7300000
  30:	33303335 	teqcc	r0, #-738197504	; 0xd4000000
  34:	62312d39 	eorsvs	r2, r1, #3648	; 0xe40
  38:	646c6975 	strbtvs	r6, [ip], #-2421	; 0xfffff68b
  3c:	36202931 			; <UNDEFINED> instruction: 0x36202931
  40:	312e332e 			; <UNDEFINED> instruction: 0x312e332e
  44:	31303220 	teqcc	r0, r0, lsr #4
  48:	32363037 	eorscc	r3, r6, #55	; 0x37
  4c:	Address 0x000000000000004c is out of bounds.


Disassembly of section .debug_info:

00000000 <.debug_info>:
       0:	00000cc3 	andeq	r0, r0, r3, asr #25
       4:	00000004 	andeq	r0, r0, r4
       8:	01040000 	mrseq	r0, (UNDEF: 4)
       c:	000002fd 	strdeq	r0, [r0], -sp
      10:	00029a0c 	andeq	r9, r2, ip, lsl #20
      14:	0000cb00 	andeq	ip, r0, r0, lsl #22
      18:	00801000 	addeq	r1, r0, r0
      1c:	00019800 	andeq	r9, r1, r0, lsl #16
      20:	00000000 	andeq	r0, r0, r0
      24:	07080200 	streq	r0, [r8, -r0, lsl #4]
      28:	0000005c 	andeq	r0, r0, ip, asr r0
      2c:	66070402 	strvs	r0, [r7], -r2, lsl #8
      30:	03000000 	movweq	r0, #0
      34:	6e690504 	cdpvs	5, 6, cr0, cr9, cr4, {0}
      38:	01020074 	tsteq	r2, r4, ror r0
      3c:	0002ec06 	andeq	lr, r2, r6, lsl #24
      40:	05020200 	streq	r0, [r2, #-512]	; 0xfffffe00
      44:	00000385 	andeq	r0, r0, r5, lsl #7
      48:	ac050402 	cfstrsge	mvf0, [r5], {2}
      4c:	02000000 	andeq	r0, r0, #0
      50:	00a70508 	adceq	r0, r7, r8, lsl #10
      54:	01020000 	mrseq	r0, (UNDEF: 2)
      58:	0002ea08 	andeq	lr, r2, r8, lsl #20
      5c:	07020200 	streq	r0, [r2, -r0, lsl #4]
      60:	00000222 	andeq	r0, r0, r2, lsr #4
      64:	61070402 	tstvs	r7, r2, lsl #8
      68:	04000000 	streq	r0, [r0], #-0
      6c:	00000265 	andeq	r0, r0, r5, ror #4
      70:	77192202 	ldrvc	r2, [r9, -r2, lsl #4]
      74:	05000000 	streq	r0, [r0, #-0]
      78:	00007d04 	andeq	r7, r0, r4, lsl #26
      7c:	042b0600 	strteq	r0, [fp], #-1536	; 0xfffffa00
      80:	cb040000 	blgt	100088 <__bss_end__+0xf5f20>
      84:	03000002 	movweq	r0, #2
      88:	00480e2c 	subeq	r0, r8, ip, lsr #28
      8c:	40040000 	andmi	r0, r4, r0
      90:	03000004 	movweq	r0, #4
      94:	00480e72 	subeq	r0, r8, r2, ror lr
      98:	6d070000 	stcvs	0, cr0, [r7, #-0]
      9c:	04000002 	streq	r0, [r0], #-2
      a0:	2c17015e 	ldfcss	f0, [r7], {94}	; 0x5e
      a4:	08000000 	stmdaeq	r0, {}	; <UNPREDICTABLE>
      a8:	03a60304 			; <UNDEFINED> instruction: 0x03a60304
      ac:	000000c9 	andeq	r0, r0, r9, asr #1
      b0:	00025f09 	andeq	r5, r2, r9, lsl #30
      b4:	0ca80300 	stceq	3, cr0, [r8]
      b8:	0000009a 	muleq	r0, sl, r0
      bc:	0001e209 	andeq	lr, r1, r9, lsl #4
      c0:	13a90300 			; <UNDEFINED> instruction: 0x13a90300
      c4:	000000c9 	andeq	r0, r0, r9, asr #1
      c8:	00560a00 	subseq	r0, r6, r0, lsl #20
      cc:	00d90000 	sbcseq	r0, r9, r0
      d0:	2c0b0000 	stccs	0, cr0, [fp], {-0}
      d4:	03000000 	movweq	r0, #0
      d8:	03080c00 	movweq	r0, #35840	; 0x8c00
      dc:	00fd09a3 	rscseq	r0, sp, r3, lsr #19
      e0:	230d0000 	movwcs	r0, #53248	; 0xd000
      e4:	03000004 	movweq	r0, #4
      e8:	003307a5 	eorseq	r0, r3, r5, lsr #15
      ec:	0d000000 	stceq	0, cr0, [r0, #-0]
      f0:	00000432 	andeq	r0, r0, r2, lsr r4
      f4:	a705aa03 	strge	sl, [r5, -r3, lsl #20]
      f8:	04000000 	streq	r0, [r0], #-0
      fc:	03ad0400 			; <UNDEFINED> instruction: 0x03ad0400
     100:	ab030000 	blge	c0108 <__bss_end__+0xb5fa0>
     104:	0000d903 	andeq	sp, r0, r3, lsl #18
     108:	019f0400 	orrseq	r0, pc, r0, lsl #8
     10c:	af030000 	svcge	0x00030000
     110:	00006b1b 	andeq	r6, r0, fp, lsl fp
     114:	05040e00 	streq	r0, [r4, #-3584]	; 0xfffff200
     118:	00011d04 	andeq	r1, r1, r4, lsl #26
     11c:	08010200 	stmdaeq	r1, {r9}
     120:	000002f3 	strdeq	r0, [r0], -r3
     124:	00011d0f 	andeq	r1, r1, pc, lsl #26
     128:	04720400 	ldrbteq	r0, [r2], #-1024	; 0xfffffc00
     12c:	16050000 	strne	r0, [r5], -r0
     130:	00006419 	andeq	r6, r0, r9, lsl r4
     134:	01b01000 	movseq	r1, r0
     138:	05180000 	ldreq	r0, [r8, #-0]
     13c:	018f082f 	orreq	r0, pc, pc, lsr #16
     140:	ce0d0000 	cdpgt	0, 0, cr0, cr13, cr0, {0}
     144:	05000003 	streq	r0, [r0, #-3]
     148:	018f1331 	orreq	r1, pc, r1, lsr r3	; <UNPREDICTABLE>
     14c:	11000000 	mrsne	r0, (UNDEF: 0)
     150:	05006b5f 	streq	r6, [r0, #-2911]	; 0xfffff4a1
     154:	00330732 	eorseq	r0, r3, r2, lsr r7
     158:	0d040000 	stceq	0, cr0, [r4, #-0]
     15c:	0000040e 	andeq	r0, r0, lr, lsl #8
     160:	330b3205 	movwcc	r3, #45573	; 0xb205
     164:	08000000 	stmdaeq	r0, {}	; <UNPREDICTABLE>
     168:	0001990d 	andeq	r9, r1, sp, lsl #18
     16c:	14320500 	ldrtne	r0, [r2], #-1280	; 0xfffffb00
     170:	00000033 	andeq	r0, r0, r3, lsr r0
     174:	04b20d0c 	ldrteq	r0, [r2], #3340	; 0xd0c
     178:	32050000 	andcc	r0, r5, #0
     17c:	0000331b 	andeq	r3, r0, fp, lsl r3
     180:	5f111000 	svcpl	0x00111000
     184:	33050078 	movwcc	r0, #20600	; 0x5078
     188:	0001950b 	andeq	r9, r1, fp, lsl #10
     18c:	05001400 	streq	r1, [r0, #-1024]	; 0xfffffc00
     190:	00013504 	andeq	r3, r1, r4, lsl #10
     194:	01290a00 			; <UNDEFINED> instruction: 0x01290a00
     198:	01a50000 			; <UNDEFINED> instruction: 0x01a50000
     19c:	2c0b0000 	stccs	0, cr0, [fp], {-0}
     1a0:	00000000 	andeq	r0, r0, r0
     1a4:	01dd1000 	bicseq	r1, sp, r0
     1a8:	05240000 	streq	r0, [r4, #-0]!
     1ac:	02280837 	eoreq	r0, r8, #3604480	; 0x370000
     1b0:	9e0d0000 	cdpls	0, 0, cr0, cr13, cr0, {0}
     1b4:	05000000 	streq	r0, [r0, #-0]
     1b8:	00330939 	eorseq	r0, r3, r9, lsr r9
     1bc:	0d000000 	stceq	0, cr0, [r0, #-0]
     1c0:	00000448 	andeq	r0, r0, r8, asr #8
     1c4:	33093a05 	movwcc	r3, #39429	; 0x9a05
     1c8:	04000000 	streq	r0, [r0], #-0
     1cc:	0000c10d 	andeq	ip, r0, sp, lsl #2
     1d0:	093b0500 	ldmdbeq	fp!, {r8, sl}
     1d4:	00000033 	andeq	r0, r0, r3, lsr r0
     1d8:	05330d08 	ldreq	r0, [r3, #-3336]!	; 0xfffff2f8
     1dc:	3c050000 	stccc	0, cr0, [r5], {-0}
     1e0:	00003309 	andeq	r3, r0, r9, lsl #6
     1e4:	af0d0c00 	svcge	0x000d0c00
     1e8:	05000002 	streq	r0, [r0, #-2]
     1ec:	0033093d 	eorseq	r0, r3, sp, lsr r9
     1f0:	0d100000 	ldceq	0, cr0, [r0, #-0]
     1f4:	00000283 	andeq	r0, r0, r3, lsl #5
     1f8:	33093e05 	movwcc	r3, #40453	; 0x9e05
     1fc:	14000000 	strne	r0, [r0], #-0
     200:	0004b70d 	andeq	fp, r4, sp, lsl #14
     204:	093f0500 	ldmdbeq	pc!, {r8, sl}	; <UNPREDICTABLE>
     208:	00000033 	andeq	r0, r0, r3, lsr r0
     20c:	038f0d18 	orreq	r0, pc, #24, 26	; 0x600
     210:	40050000 	andmi	r0, r5, r0
     214:	00003309 	andeq	r3, r0, r9, lsl #6
     218:	fa0d1c00 	blx	347220 <__bss_end__+0x33d0b8>
     21c:	05000004 	streq	r0, [r0, #-4]
     220:	00330941 	eorseq	r0, r3, r1, asr #18
     224:	00200000 	eoreq	r0, r0, r0
     228:	00010112 	andeq	r0, r1, r2, lsl r1
     22c:	05010800 	streq	r0, [r1, #-2048]	; 0xfffff800
     230:	026d084a 	rsbeq	r0, sp, #4849664	; 0x4a0000
     234:	8c0d0000 	stchi	0, cr0, [sp], {-0}
     238:	05000001 	streq	r0, [r0, #-1]
     23c:	026d0a4b 	rsbeq	r0, sp, #307200	; 0x4b000
     240:	0d000000 	stceq	0, cr0, [r0, #-0]
     244:	00000000 	andeq	r0, r0, r0
     248:	6d094c05 	stcvs	12, cr4, [r9, #-20]	; 0xffffffec
     24c:	80000002 	andhi	r0, r0, r2
     250:	00046413 	andeq	r6, r4, r3, lsl r4
     254:	0a4e0500 	beq	138165c <__bss_end__+0x13774f4>
     258:	00000129 	andeq	r0, r0, r9, lsr #2
     25c:	26130100 	ldrcs	r0, [r3], -r0, lsl #2
     260:	05000001 	streq	r0, [r0, #-1]
     264:	01290a51 			; <UNDEFINED> instruction: 0x01290a51
     268:	01040000 	mrseq	r0, (UNDEF: 4)
     26c:	01150a00 	tsteq	r5, r0, lsl #20
     270:	027d0000 	rsbseq	r0, sp, #0
     274:	2c0b0000 	stccs	0, cr0, [fp], {-0}
     278:	1f000000 	svcne	0x00000000
     27c:	02b81200 	adcseq	r1, r8, #0, 4
     280:	01900000 	orrseq	r0, r0, r0
     284:	c0085d05 	andgt	r5, r8, r5, lsl #26
     288:	0d000002 	stceq	0, cr0, [r0, #-8]
     28c:	000003ce 	andeq	r0, r0, lr, asr #7
     290:	c0125e05 	andsgt	r5, r2, r5, lsl #28
     294:	00000002 	andeq	r0, r0, r2
     298:	0003e60d 	andeq	lr, r3, sp, lsl #12
     29c:	065f0500 	ldrbeq	r0, [pc], -r0, lsl #10
     2a0:	00000033 	andeq	r0, r0, r3, lsr r0
     2a4:	01940d04 	orrseq	r0, r4, r4, lsl #26
     2a8:	61050000 	mrsvs	r0, (UNDEF: 5)
     2ac:	0002c609 	andeq	ip, r2, r9, lsl #12
     2b0:	010d0800 	tsteq	sp, r0, lsl #16
     2b4:	05000001 	streq	r0, [r0, #-1]
     2b8:	02281e62 	eoreq	r1, r8, #1568	; 0x620
     2bc:	00880000 	addeq	r0, r8, r0
     2c0:	027d0405 	rsbseq	r0, sp, #83886080	; 0x5000000
     2c4:	d60a0000 	strle	r0, [sl], -r0
     2c8:	d6000002 	strle	r0, [r0], -r2
     2cc:	0b000002 	bleq	2dc <_start-0x7d24>
     2d0:	0000002c 	andeq	r0, r0, ip, lsr #32
     2d4:	0405001f 	streq	r0, [r5], #-31	; 0xffffffe1
     2d8:	000002dc 	ldrdeq	r0, [r0], -ip
     2dc:	03991014 	orrseq	r1, r9, #20
     2e0:	05080000 	streq	r0, [r8, #-0]
     2e4:	03050875 	movweq	r0, #22645	; 0x5875
     2e8:	bb0d0000 	bllt	3402f0 <__bss_end__+0x336188>
     2ec:	05000000 	streq	r0, [r0, #-0]
     2f0:	03051176 	movweq	r1, #20854	; 0x5176
     2f4:	0d000000 	stceq	0, cr0, [r0, #-0]
     2f8:	0000001b 	andeq	r0, r0, fp, lsl r0
     2fc:	33067705 	movwcc	r7, #26373	; 0x6705
     300:	04000000 	streq	r0, [r0], #-0
     304:	56040500 	strpl	r0, [r4], -r0, lsl #10
     308:	10000000 	andne	r0, r0, r0
     30c:	000003b8 			; <UNDEFINED> instruction: 0x000003b8
     310:	08b50568 	ldmeq	r5!, {r3, r5, r6, r8, sl}
     314:	0000044e 	andeq	r0, r0, lr, asr #8
     318:	00705f11 	rsbseq	r5, r0, r1, lsl pc
     31c:	0512b605 	ldreq	fp, [r2, #-1541]	; 0xfffff9fb
     320:	00000003 	andeq	r0, r0, r3
     324:	00725f11 	rsbseq	r5, r2, r1, lsl pc
     328:	3307b705 	movwcc	fp, #30469	; 0x7705
     32c:	04000000 	streq	r0, [r0], #-0
     330:	00775f11 	rsbseq	r5, r7, r1, lsl pc
     334:	3307b805 	movwcc	fp, #30725	; 0x7805
     338:	08000000 	stmdaeq	r0, {}	; <UNPREDICTABLE>
     33c:	00011f0d 	andeq	r1, r1, sp, lsl #30
     340:	09b90500 	ldmibeq	r9!, {r8, sl}
     344:	00000041 	andeq	r0, r0, r1, asr #32
     348:	02080d0c 	andeq	r0, r8, #12, 26	; 0x300
     34c:	ba050000 	blt	140354 <__bss_end__+0x1361ec>
     350:	00004109 	andeq	r4, r0, r9, lsl #2
     354:	5f110e00 	svcpl	0x00110e00
     358:	05006662 	streq	r6, [r0, #-1634]	; 0xfffff99e
     35c:	02dd11bb 	sbcseq	r1, sp, #-1073741778	; 0xc000002e
     360:	0d100000 	ldceq	0, cr0, [r0, #-0]
     364:	0000007b 	andeq	r0, r0, fp, ror r0
     368:	3307bc05 	movwcc	fp, #31749	; 0x7c05
     36c:	18000000 	stmdane	r0, {}	; <UNPREDICTABLE>
     370:	00010f0d 	andeq	r0, r1, sp, lsl #30
     374:	0ac30500 	beq	ff0c177c <__bss_end__+0xff0b7614>
     378:	00000115 	andeq	r0, r0, r5, lsl r1
     37c:	0b590d1c 	bleq	16437f4 <__bss_end__+0x163968c>
     380:	c5050000 	strgt	r0, [r5, #-0]
     384:	0005c01d 	andeq	ip, r5, sp, lsl r0
     388:	1d0d2000 	stcne	0, cr2, [sp, #-0]
     38c:	05000006 	streq	r0, [r0, #-6]
     390:	05ea1dc7 	strbeq	r1, [sl, #3527]!	; 0xdc7
     394:	0d240000 	stceq	0, cr0, [r4, #-0]
     398:	0000043a 	andeq	r0, r0, sl, lsr r4
     39c:	0e0dca05 	vmlaeq.f32	s24, s26, s10
     3a0:	28000006 	stmdacs	r0, {r1, r2}
     3a4:	0005140d 	andeq	r1, r5, sp, lsl #8
     3a8:	09cb0500 	stmibeq	fp, {r8, sl}^
     3ac:	00000628 	andeq	r0, r0, r8, lsr #12
     3b0:	755f112c 	ldrbvc	r1, [pc, #-300]	; 28c <_start-0x7d74>
     3b4:	ce050062 	cdpgt	0, 0, cr0, cr5, cr2, {3}
     3b8:	0002dd11 	andeq	sp, r2, r1, lsl sp
     3bc:	5f113000 	svcpl	0x00113000
     3c0:	05007075 	streq	r7, [r0, #-117]	; 0xffffff8b
     3c4:	030512cf 	movweq	r1, #21199	; 0x52cf
     3c8:	11380000 	teqne	r8, r0
     3cc:	0072755f 	rsbseq	r7, r2, pc, asr r5
     3d0:	3307d005 	movwcc	sp, #28677	; 0x7005
     3d4:	3c000000 	stccc	0, cr0, [r0], {-0}
     3d8:	0000b50d 	andeq	fp, r0, sp, lsl #10
     3dc:	11d30500 	bicsne	r0, r3, r0, lsl #10
     3e0:	0000062e 	andeq	r0, r0, lr, lsr #12
     3e4:	04ec0d40 	strbteq	r0, [ip], #3392	; 0xd40
     3e8:	d4050000 	strle	r0, [r5], #-0
     3ec:	00063e11 	andeq	r3, r6, r1, lsl lr
     3f0:	5f114300 	svcpl	0x00114300
     3f4:	0500626c 	streq	r6, [r0, #-620]	; 0xfffffd94
     3f8:	02dd11d7 	sbcseq	r1, sp, #-1073741771	; 0xc0000035
     3fc:	0d440000 	stcleq	0, cr0, [r4, #-0]
     400:	0000013d 	andeq	r0, r0, sp, lsr r1
     404:	3307da05 	movwcc	sp, #31237	; 0x7a05
     408:	4c000000 	stcmi	0, cr0, [r0], {-0}
     40c:	00014e0d 	andeq	r4, r1, sp, lsl #28
     410:	0adb0500 	beq	ff6c1818 <__bss_end__+0xff6b76b0>
     414:	00000082 	andeq	r0, r0, r2, lsl #1
     418:	0afa0d50 	beq	ffe83960 <__bss_end__+0xffe797f8>
     41c:	de050000 	cdple	0, 0, cr0, cr5, cr0, {0}
     420:	00046c12 	andeq	r6, r4, r2, lsl ip
     424:	2c0d5400 	cfstrscs	mvf5, [sp], {-0}
     428:	05000004 	streq	r0, [r0, #-4]
     42c:	01090ce2 	smlatteq	r9, r2, ip, r0
     430:	0d580000 	ldcleq	0, cr0, [r8, #-0]
     434:	000003c0 	andeq	r0, r0, r0, asr #7
     438:	fd0ee405 	stc2	4, cr14, [lr, #-20]	; 0xffffffec
     43c:	5c000000 	stcpl	0, cr0, [r0], {-0}
     440:	00027b0d 	andeq	r7, r2, sp, lsl #22
     444:	09e50500 	stmibeq	r5!, {r8, sl}^
     448:	00000033 	andeq	r0, r0, r3, lsr r0
     44c:	33150064 	tstcc	r5, #100	; 0x64
     450:	6c000000 	stcvs	0, cr0, [r0], {-0}
     454:	16000004 	strne	r0, [r0], -r4
     458:	0000046c 	andeq	r0, r0, ip, ror #8
     45c:	00011516 	andeq	r1, r1, r6, lsl r5
     460:	01171600 	tsteq	r7, r0, lsl #12
     464:	33160000 	tstcc	r6, #0
     468:	00000000 	andeq	r0, r0, r0
     46c:	04770405 	ldrbteq	r0, [r7], #-1029	; 0xfffffbfb
     470:	6c0f0000 	stcvs	0, cr0, [pc], {-0}
     474:	17000004 	strne	r0, [r0, -r4]
     478:	00000416 	andeq	r0, r0, r6, lsl r4
     47c:	60050428 	andvs	r0, r5, r8, lsr #8
     480:	05c00802 	strbeq	r0, [r0, #2050]	; 0x802
     484:	7e180000 	cdpvc	0, 1, cr0, cr8, cr0, {0}
     488:	05000003 	streq	r0, [r0, #-3]
     48c:	33070262 	movwcc	r0, #29282	; 0x7262
     490:	00000000 	andeq	r0, r0, r0
     494:	00012e18 	andeq	r2, r1, r8, lsl lr
     498:	02670500 	rsbeq	r0, r7, #0, 10
     49c:	00069a0b 	andeq	r9, r6, fp, lsl #20
     4a0:	f8180400 			; <UNDEFINED> instruction: 0xf8180400
     4a4:	05000001 	streq	r0, [r0, #-1]
     4a8:	9a140267 	bls	500e4c <__bss_end__+0x4f6ce4>
     4ac:	08000006 	stmdaeq	r0, {r1, r2}
     4b0:	0001a818 	andeq	sl, r1, r8, lsl r8
     4b4:	02670500 	rsbeq	r0, r7, #0, 10
     4b8:	00069a1e 	andeq	r9, r6, lr, lsl sl
     4bc:	e1180c00 	tst	r8, r0, lsl #24
     4c0:	05000003 	streq	r0, [r0, #-3]
     4c4:	33080269 	movwcc	r0, #33385	; 0x8269
     4c8:	10000000 	andne	r0, r0, r0
     4cc:	00002918 	andeq	r2, r0, r8, lsl r9
     4d0:	026a0500 	rsbeq	r0, sl, #0, 10
     4d4:	00089a08 	andeq	r9, r8, r8, lsl #20
     4d8:	f5181400 			; <UNDEFINED> instruction: 0xf5181400
     4dc:	05000003 	streq	r0, [r0, #-3]
     4e0:	3307026d 	movwcc	r0, #29293	; 0x726d
     4e4:	30000000 	andcc	r0, r0, r0
     4e8:	000a3618 	andeq	r3, sl, r8, lsl r6
     4ec:	026e0500 	rsbeq	r0, lr, #0, 10
     4f0:	0008af16 	andeq	sl, r8, r6, lsl pc
     4f4:	c0183400 	andsgt	r3, r8, r0, lsl #8
     4f8:	05000002 	streq	r0, [r0, #-2]
     4fc:	33070270 	movwcc	r0, #29296	; 0x7270
     500:	38000000 	stmdacc	r0, {}	; <UNPREDICTABLE>
     504:	0003eb18 	andeq	lr, r3, r8, lsl fp
     508:	02720500 	rsbseq	r0, r2, #0, 10
     50c:	0008c00a 	andeq	ip, r8, sl
     510:	57183c00 	ldrpl	r3, [r8, -r0, lsl #24]
     514:	05000002 	streq	r0, [r0, #-2]
     518:	8f130275 	svchi	0x00130275
     51c:	40000001 	andmi	r0, r0, r1
     520:	0001c718 	andeq	ip, r1, r8, lsl r7
     524:	02760500 	rsbseq	r0, r6, #0, 10
     528:	00003307 	andeq	r3, r0, r7, lsl #6
     52c:	2e184400 	cfmulscs	mvf4, mvf8, mvf0
     530:	05000005 	streq	r0, [r0, #-5]
     534:	8f130277 	svchi	0x00130277
     538:	48000001 	stmdami	r0, {r0}
     53c:	0002d218 	andeq	sp, r2, r8, lsl r2
     540:	02780500 	rsbseq	r0, r8, #0, 10
     544:	0008c614 	andeq	ip, r8, r4, lsl r6
     548:	00184c00 	andseq	r4, r8, r0, lsl #24
     54c:	05000002 	streq	r0, [r0, #-2]
     550:	3307027b 	movwcc	r0, #29307	; 0x727b
     554:	50000000 	andpl	r0, r0, r0
     558:	00014618 	andeq	r4, r1, r8, lsl r6
     55c:	027c0500 	rsbseq	r0, ip, #0, 10
     560:	00011709 	andeq	r1, r1, r9, lsl #14
     564:	f8185400 			; <UNDEFINED> instruction: 0xf8185400
     568:	05000002 	streq	r0, [r0, #-2]
     56c:	7507029f 	strvc	r0, [r7, #-671]	; 0xfffffd61
     570:	58000008 	stmdapl	r0, {r3}
     574:	0002b819 	andeq	fp, r2, r9, lsl r8
     578:	02a30500 	adceq	r0, r3, #0, 10
     57c:	0002c013 	andeq	ip, r2, r3, lsl r0
     580:	19014800 	stmdbne	r1, {fp, lr}
     584:	00000235 	andeq	r0, r0, r5, lsr r2
     588:	1202a405 	andne	sl, r2, #83886080	; 0x5000000
     58c:	0000027d 	andeq	r0, r0, sp, ror r2
     590:	da19014c 	ble	640ac8 <__bss_end__+0x636960>
     594:	05000004 	streq	r0, [r0, #-4]
     598:	d70c02a8 	strle	r0, [ip, -r8, lsr #5]
     59c:	dc000008 	stcle	0, cr0, [r0], {8}
     5a0:	01171902 	tsteq	r7, r2, lsl #18
     5a4:	ad050000 	stcge	0, cr0, [r5, #-0]
     5a8:	065b1002 	ldrbeq	r1, [fp], -r2
     5ac:	02e00000 	rsceq	r0, r0, #0
     5b0:	0000fc19 	andeq	pc, r0, r9, lsl ip	; <UNPREDICTABLE>
     5b4:	02af0500 	adceq	r0, pc, #0, 10
     5b8:	0008e30a 	andeq	lr, r8, sl, lsl #6
     5bc:	0002ec00 	andeq	lr, r2, r0, lsl #24
     5c0:	044e0405 	strbeq	r0, [lr], #-1029	; 0xfffffbfb
     5c4:	33150000 	tstcc	r5, #0
     5c8:	e4000000 	str	r0, [r0], #-0
     5cc:	16000005 	strne	r0, [r0], -r5
     5d0:	0000046c 	andeq	r0, r0, ip, ror #8
     5d4:	00011516 	andeq	r1, r1, r6, lsl r5
     5d8:	05e41600 	strbeq	r1, [r4, #1536]!	; 0x600
     5dc:	33160000 	tstcc	r6, #0
     5e0:	00000000 	andeq	r0, r0, r0
     5e4:	01240405 			; <UNDEFINED> instruction: 0x01240405
     5e8:	04050000 	streq	r0, [r5], #-0
     5ec:	000005c6 	andeq	r0, r0, r6, asr #11
     5f0:	00008e15 	andeq	r8, r0, r5, lsl lr
     5f4:	00060e00 	andeq	r0, r6, r0, lsl #28
     5f8:	046c1600 	strbteq	r1, [ip], #-1536	; 0xfffffa00
     5fc:	15160000 	ldrne	r0, [r6, #-0]
     600:	16000001 	strne	r0, [r0], -r1
     604:	0000008e 	andeq	r0, r0, lr, lsl #1
     608:	00003316 	andeq	r3, r0, r6, lsl r3
     60c:	04050000 	streq	r0, [r5], #-0
     610:	000005f0 	strdeq	r0, [r0], -r0	; <UNPREDICTABLE>
     614:	00003315 	andeq	r3, r0, r5, lsl r3
     618:	00062800 	andeq	r2, r6, r0, lsl #16
     61c:	046c1600 	strbteq	r1, [ip], #-1536	; 0xfffffa00
     620:	15160000 	ldrne	r0, [r6, #-0]
     624:	00000001 	andeq	r0, r0, r1
     628:	06140405 	ldreq	r0, [r4], -r5, lsl #8
     62c:	560a0000 	strpl	r0, [sl], -r0
     630:	3e000000 	cdpcc	0, 0, cr0, cr0, cr0, {0}
     634:	0b000006 	bleq	654 <_start-0x79ac>
     638:	0000002c 	andeq	r0, r0, ip, lsr #32
     63c:	560a0002 	strpl	r0, [sl], -r2
     640:	4e000000 	cdpmi	0, 0, cr0, cr0, cr0, {0}
     644:	0b000006 	bleq	664 <_start-0x799c>
     648:	0000002c 	andeq	r0, r0, ip, lsr #32
     64c:	a6070000 	strge	r0, [r7], -r0
     650:	05000003 	streq	r0, [r0, #-3]
     654:	0b1a011f 	bleq	680ad8 <__bss_end__+0x676970>
     658:	1a000003 	bne	66c <_start-0x7994>
     65c:	000004c1 	andeq	r0, r0, r1, asr #9
     660:	0123050c 			; <UNDEFINED> instruction: 0x0123050c
     664:	00069408 	andeq	r9, r6, r8, lsl #8
     668:	03ce1800 	biceq	r1, lr, #0, 16
     66c:	25050000 	strcs	r0, [r5, #-0]
     670:	06941101 	ldreq	r1, [r4], r1, lsl #2
     674:	18000000 	stmdane	r0, {}	; <UNPREDICTABLE>
     678:	0000021b 	andeq	r0, r0, fp, lsl r2
     67c:	07012605 	streq	r2, [r1, -r5, lsl #12]
     680:	00000033 	andeq	r0, r0, r3, lsr r0
     684:	03a01804 	moveq	r1, #4, 16	; 0x40000
     688:	27050000 	strcs	r0, [r5, -r0]
     68c:	069a0b01 	ldreq	r0, [sl], r1, lsl #22
     690:	00080000 	andeq	r0, r8, r0
     694:	065b0405 	ldrbeq	r0, [fp], -r5, lsl #8
     698:	04050000 	streq	r0, [r5], #-0
     69c:	0000064e 	andeq	r0, r0, lr, asr #12
     6a0:	0000211a 	andeq	r2, r0, sl, lsl r1
     6a4:	3f050e00 	svccc	0x00050e00
     6a8:	06d90801 	ldrbeq	r0, [r9], r1, lsl #16
     6ac:	1d180000 	ldcne	0, cr0, [r8, #-0]
     6b0:	05000004 	streq	r0, [r0, #-4]
     6b4:	d9120140 	ldmdble	r2, {r6, r8}
     6b8:	00000006 	andeq	r0, r0, r6
     6bc:	00045118 	andeq	r5, r4, r8, lsl r1
     6c0:	01410500 	cmpeq	r1, r0, lsl #10
     6c4:	0006d912 	andeq	sp, r6, r2, lsl r9
     6c8:	6d180600 	ldcvs	6, cr0, [r8, #-0]
     6cc:	05000004 	streq	r0, [r0, #-4]
     6d0:	5d120142 	ldfpls	f0, [r2, #-264]	; 0xfffffef8
     6d4:	0c000000 	stceq	0, cr0, [r0], {-0}
     6d8:	005d0a00 	subseq	r0, sp, r0, lsl #20
     6dc:	06e90000 	strbteq	r0, [r9], r0
     6e0:	2c0b0000 	stccs	0, cr0, [fp], {-0}
     6e4:	02000000 	andeq	r0, r0, #0
     6e8:	05d01b00 	ldrbeq	r1, [r0, #2816]	; 0xb00
     6ec:	fe070280 	cdp2	2, 0, cr0, cr7, cr0, {4}
     6f0:	18000007 	stmdane	r0, {r0, r1, r2}
     6f4:	000004a5 	andeq	r0, r0, r5, lsr #9
     6f8:	18028205 	stmdane	r2, {r0, r2, r9, pc}
     6fc:	0000002c 	andeq	r0, r0, ip, lsr #32
     700:	04571800 	ldrbeq	r1, [r7], #-2048	; 0xfffff800
     704:	83050000 	movwhi	r0, #20480	; 0x5000
     708:	01171202 	tsteq	r7, r2, lsl #4
     70c:	18040000 	stmdane	r4, {}	; <UNPREDICTABLE>
     710:	0000024a 	andeq	r0, r0, sl, asr #4
     714:	10028405 	andne	r8, r2, r5, lsl #8
     718:	000007fe 	strdeq	r0, [r0], -lr
     71c:	05051808 	streq	r1, [r5, #-2056]	; 0xfffff7f8
     720:	85050000 	strhi	r0, [r5, #-0]
     724:	01a51702 			; <UNDEFINED> instruction: 0x01a51702
     728:	18240000 	stmdane	r4!, {}	; <UNPREDICTABLE>
     72c:	000001b8 			; <UNDEFINED> instruction: 0x000001b8
     730:	0f028605 	svceq	0x00028605
     734:	00000033 	andeq	r0, r0, r3, lsr r0
     738:	03c91848 	biceq	r1, r9, #72, 16	; 0x480000
     73c:	87050000 	strhi	r0, [r5, -r0]
     740:	00252c02 	eoreq	r2, r5, r2, lsl #24
     744:	18500000 	ldmdane	r0, {}^	; <UNPREDICTABLE>
     748:	0000051b 	andeq	r0, r0, fp, lsl r5
     74c:	1a028805 	bne	a2768 <__bss_end__+0x98600>
     750:	000006a0 	andeq	r0, r0, r0, lsr #13
     754:	03d41858 	bicseq	r1, r4, #88, 16	; 0x580000
     758:	89050000 	stmdbhi	r5, {}	; <UNPREDICTABLE>
     75c:	00fd1602 	rscseq	r1, sp, r2, lsl #12
     760:	18680000 	stmdane	r8!, {}^	; <UNPREDICTABLE>
     764:	00000520 	andeq	r0, r0, r0, lsr #10
     768:	16028a05 	strne	r8, [r2], -r5, lsl #20
     76c:	000000fd 	strdeq	r0, [r0], -sp
     770:	02dc1870 	sbcseq	r1, ip, #112, 16	; 0x700000
     774:	8b050000 	blhi	14077c <__bss_end__+0x136614>
     778:	00fd1602 	rscseq	r1, sp, r2, lsl #12
     77c:	18780000 	ldmdane	r8!, {}^	; <UNPREDICTABLE>
     780:	000004d0 	ldrdeq	r0, [r0], -r0	; <UNPREDICTABLE>
     784:	10028c05 	andne	r8, r2, r5, lsl #24
     788:	0000080e 	andeq	r0, r0, lr, lsl #16
     78c:	023e1880 	eorseq	r1, lr, #128, 16	; 0x800000
     790:	8d050000 	stchi	0, cr0, [r5, #-0]
     794:	081e1002 	ldmdaeq	lr, {r1, ip}
     798:	18880000 	stmne	r8, {}	; <UNPREDICTABLE>
     79c:	0000047a 	andeq	r0, r0, sl, ror r4
     7a0:	0f028e05 	svceq	0x00028e05
     7a4:	00000033 	andeq	r0, r0, r3, lsr r0
     7a8:	017e18a0 	cmneq	lr, r0, lsr #17
     7ac:	8f050000 	svchi	0x00050000
     7b0:	00fd1602 	rscseq	r1, sp, r2, lsl #12
     7b4:	18a40000 	stmiane	r4!, {}	; <UNPREDICTABLE>
     7b8:	0000008f 	andeq	r0, r0, pc, lsl #1
     7bc:	16029005 	strne	r9, [r2], -r5
     7c0:	000000fd 	strdeq	r0, [r0], -sp
     7c4:	016d18ac 	cmneq	sp, ip, lsr #17
     7c8:	91050000 	mrsls	r0, (UNDEF: 5)
     7cc:	00fd1602 	rscseq	r1, sp, r2, lsl #12
     7d0:	18b40000 	ldmne	r4!, {}	; <UNPREDICTABLE>
     7d4:	0000003c 	andeq	r0, r0, ip, lsr r0
     7d8:	16029205 	strne	r9, [r2], -r5, lsl #4
     7dc:	000000fd 	strdeq	r0, [r0], -sp
     7e0:	004b18bc 	strheq	r1, [fp], #-140	; 0xffffff74
     7e4:	93050000 	movwls	r0, #20480	; 0x5000
     7e8:	00fd1602 	rscseq	r1, sp, r2, lsl #12
     7ec:	18c40000 	stmiane	r4, {}^	; <UNPREDICTABLE>
     7f0:	0000037c 	andeq	r0, r0, ip, ror r3
     7f4:	08029405 	stmdaeq	r2, {r0, r2, sl, ip, pc}
     7f8:	00000033 	andeq	r0, r0, r3, lsr r0
     7fc:	1d0a00cc 	stcne	0, cr0, [sl, #-816]	; 0xfffffcd0
     800:	0e000001 	cdpeq	0, 0, cr0, cr0, cr1, {0}
     804:	0b000008 	bleq	82c <_start-0x77d4>
     808:	0000002c 	andeq	r0, r0, ip, lsr #32
     80c:	1d0a0019 	stcne	0, cr0, [sl, #-100]	; 0xffffff9c
     810:	1e000001 	cdpne	0, 0, cr0, cr0, cr1, {0}
     814:	0b000008 	bleq	83c <_start-0x77c4>
     818:	0000002c 	andeq	r0, r0, ip, lsr #32
     81c:	1d0a0007 	stcne	0, cr0, [sl, #-28]	; 0xffffffe4
     820:	2e000001 	cdpcs	0, 0, cr0, cr0, cr1, {0}
     824:	0b000008 	bleq	84c <_start-0x77b4>
     828:	0000002c 	andeq	r0, r0, ip, lsr #32
     82c:	f01b0017 			; <UNDEFINED> instruction: 0xf01b0017
     830:	07029905 	streq	r9, [r2, -r5, lsl #18]
     834:	00000855 	andeq	r0, r0, r5, asr r8
     838:	0002a818 	andeq	sl, r2, r8, lsl r8
     83c:	029c0500 	addseq	r0, ip, #0, 10
     840:	0008551b 	andeq	r5, r8, fp, lsl r5
     844:	c7180000 	ldrgt	r0, [r8, -r0]
     848:	05000004 	streq	r0, [r0, #-4]
     84c:	6518029d 	ldrvs	r0, [r8, #-669]	; 0xfffffd63
     850:	78000008 	stmdavc	r0, {r3}
     854:	03050a00 	movweq	r0, #23040	; 0x5a00
     858:	08650000 	stmdaeq	r5!, {}^	; <UNPREDICTABLE>
     85c:	2c0b0000 	stccs	0, cr0, [fp], {-0}
     860:	1d000000 	stcne	0, cr0, [r0, #-0]
     864:	002c0a00 	eoreq	r0, ip, r0, lsl #20
     868:	08750000 	ldmdaeq	r5!, {}^	; <UNPREDICTABLE>
     86c:	2c0b0000 	stccs	0, cr0, [fp], {-0}
     870:	1d000000 	stcne	0, cr0, [r0, #-0]
     874:	05f01c00 	ldrbeq	r1, [r0, #3072]!	; 0xc00
     878:	9a03027e 	bls	c1278 <__bss_end__+0xb7110>
     87c:	1d000008 	stcne	0, cr0, [r0, #-32]	; 0xffffffe0
     880:	00000416 	andeq	r0, r0, r6, lsl r4
     884:	0b029505 	bleq	a5ca0 <__bss_end__+0x9bb38>
     888:	000006e9 	andeq	r0, r0, r9, ror #13
     88c:	0004f21d 	andeq	pc, r4, sp, lsl r2	; <UNPREDICTABLE>
     890:	029e0500 	addseq	r0, lr, #0, 10
     894:	00082e0b 	andeq	r2, r8, fp, lsl #28
     898:	1d0a0000 	stcne	0, cr0, [sl, #-0]
     89c:	aa000001 	bge	8a8 <_start-0x7758>
     8a0:	0b000008 	bleq	8c8 <_start-0x7738>
     8a4:	0000002c 	andeq	r0, r0, ip, lsr #32
     8a8:	84060018 	strhi	r0, [r6], #-24	; 0xffffffe8
     8ac:	05000000 	streq	r0, [r0, #-0]
     8b0:	0008aa04 	andeq	sl, r8, r4, lsl #20
     8b4:	08c01e00 	stmiaeq	r0, {r9, sl, fp, ip}^
     8b8:	6c160000 	ldcvs	0, cr0, [r6], {-0}
     8bc:	00000004 	andeq	r0, r0, r4
     8c0:	08b50405 	ldmeq	r5!, {r0, r2, sl}
     8c4:	04050000 	streq	r0, [r5], #-0
     8c8:	0000018f 	andeq	r0, r0, pc, lsl #3
     8cc:	0008d71e 	andeq	sp, r8, lr, lsl r7
     8d0:	00331600 	eorseq	r1, r3, r0, lsl #12
     8d4:	05000000 	streq	r0, [r0, #-0]
     8d8:	0008dd04 	andeq	sp, r8, r4, lsl #26
     8dc:	cc040500 	cfstr32gt	mvfx0, [r4], {-0}
     8e0:	0a000008 	beq	908 <_start-0x76f8>
     8e4:	0000064e 	andeq	r0, r0, lr, asr #12
     8e8:	000008f3 	strdeq	r0, [r0], -r3
     8ec:	00002c0b 	andeq	r2, r0, fp, lsl #24
     8f0:	1f000200 	svcne	0x00000200
     8f4:	0000048e 	andeq	r0, r0, lr, lsl #9
     8f8:	17032e05 	strne	r2, [r3, -r5, lsl #28]
     8fc:	0000046c 	andeq	r0, r0, ip, ror #8
     900:	0004871f 	andeq	r8, r4, pc, lsl r7
     904:	032f0500 			; <UNDEFINED> instruction: 0x032f0500
     908:	0004721d 	andeq	r7, r4, sp, lsl r2
     90c:	00331500 	eorseq	r1, r3, r0, lsl #10
     910:	091c0000 	ldmdbeq	ip, {}	; <UNPREDICTABLE>
     914:	33160000 	tstcc	r6, #0
     918:	00000000 	andeq	r0, r0, r0
     91c:	0001d120 	andeq	sp, r1, r0, lsr #2
     920:	0e1d0600 	cfmsub32eq	mvax0, mvfx0, mvfx13, mvfx0
     924:	00000928 	andeq	r0, r0, r8, lsr #18
     928:	090d0405 	stmdbeq	sp, {r0, r2, sl}
     92c:	33150000 	tstcc	r5, #0
     930:	3d000000 	stccc	0, cr0, [r0, #-0]
     934:	16000009 	strne	r0, [r0], -r9
     938:	000005e4 	andeq	r0, r0, r4, ror #11
     93c:	07732000 	ldrbeq	r2, [r3, -r0]!
     940:	22060000 	andcs	r0, r6, #0
     944:	0009490e 	andeq	r4, r9, lr, lsl #18
     948:	2e040500 	cfsh32cs	mvfx0, mvfx4, #0
     94c:	21000009 	tstcs	r0, r9
     950:	00000034 	andeq	r0, r0, r4, lsr r0
     954:	10060501 	andne	r0, r6, r1, lsl #10
     958:	98000080 	stmdals	r0, {r7}
     95c:	01000001 	tsteq	r0, r1
     960:	000c199c 	muleq	ip, ip, r9
     964:	006e2200 	rsbeq	r2, lr, r0, lsl #4
     968:	2c0e0a01 			; <UNDEFINED> instruction: 0x2c0e0a01
     96c:	00000000 	andeq	r0, r0, r0
     970:	23001000 	movwcs	r1, #0
     974:	00560107 	subseq	r0, r6, r7, lsl #2
     978:	0e010000 	cdpeq	0, 0, cr0, cr1, cr0, {0}
     97c:	0009860a 	andeq	r8, r9, sl, lsl #12
     980:	004e2400 	subeq	r2, lr, r0, lsl #8
     984:	70250006 	eorvc	r0, r5, r6
     988:	0b0f0100 	bleq	3c0d90 <__bss_end__+0x3b6c28>
     98c:	00000c19 	andeq	r0, r0, r9, lsl ip
     990:	25509102 	ldrbcs	r9, [r0, #-258]	; 0xfffffefe
     994:	01007a73 	tsteq	r0, r3, ror sl
     998:	0c290e10 	stceq	14, cr0, [r9], #-64	; 0xffffffc0
     99c:	91030000 	mrsls	r0, (UNDEF: 3)
     9a0:	0e267fb8 	mcreq	15, 1, r7, cr6, cr8, {5}
     9a4:	49000002 	stmdbmi	r0, {r1}
     9a8:	0500000c 	streq	r0, [r0, #-12]
     9ac:	00982003 	addseq	r2, r8, r3
     9b0:	00692700 	rsbeq	r2, r9, r0, lsl #14
     9b4:	33091f01 	movwcc	r1, #40705	; 0x9f01
     9b8:	04000000 	streq	r0, [r0], #-0
     9bc:	00000000 	andeq	r0, r0, r0
     9c0:	27000000 	strcs	r0, [r0, -r0]
     9c4:	20010078 	andcs	r0, r1, r8, ror r0
     9c8:	0001170b 	andeq	r1, r1, fp, lsl #14
     9cc:	00004a00 	andeq	r4, r0, r0, lsl #20
     9d0:	00004600 	andeq	r4, r0, r0, lsl #12
     9d4:	666f2700 	strbtvs	r2, [pc], -r0, lsl #14
     9d8:	21010066 	tstcs	r1, r6, rrx
     9dc:	00002c0e 	andeq	r2, r0, lr, lsl #24
     9e0:	00006c00 	andeq	r6, r0, r0, lsl #24
     9e4:	00006800 	andeq	r6, r0, r0, lsl #16
     9e8:	80382800 	eorshi	r2, r8, r0, lsl #16
     9ec:	00400000 	subeq	r0, r0, r0
     9f0:	0a3a0000 	beq	e809f8 <__bss_end__+0xe76890>
     9f4:	69270000 	stmdbvs	r7!, {}	; <UNPREDICTABLE>
     9f8:	0d120100 	ldfeqs	f0, [r2, #-0]
     9fc:	00000033 	andeq	r0, r0, r3, lsr r0
     a00:	0000008e 	andeq	r0, r0, lr, lsl #1
     a04:	0000008a 	andeq	r0, r0, sl, lsl #1
     a08:	00804829 	addeq	r4, r0, r9, lsr #16
     a0c:	000c4e00 	andeq	r4, ip, r0, lsl #28
     a10:	806c2a00 	rsbhi	r2, ip, r0, lsl #20
     a14:	0c5a0000 	mraeq	r0, sl, acc0
     a18:	012b0000 			; <UNDEFINED> instruction: 0x012b0000
     a1c:	50750350 	rsbspl	r0, r5, r0, asr r3
     a20:	51012b06 	tstpl	r1, r6, lsl #22
     a24:	976c0305 	strbls	r0, [ip, -r5, lsl #6]!
     a28:	012b0000 			; <UNDEFINED> instruction: 0x012b0000
     a2c:	20030552 	andcs	r0, r3, r2, asr r5
     a30:	2b000098 	blcs	c98 <_start-0x7368>
     a34:	44015301 	strmi	r5, [r1], #-769	; 0xfffffcff
     a38:	78280000 	stmdavc	r8!, {}	; <UNPREDICTABLE>
     a3c:	30000080 	andcc	r0, r0, r0, lsl #1
     a40:	8a000000 	bhi	a48 <_start-0x75b8>
     a44:	2700000a 	strcs	r0, [r0, -sl]
     a48:	17010069 	strne	r0, [r1, -r9, rrx]
     a4c:	0000330d 	andeq	r3, r0, sp, lsl #6
     a50:	0000b100 	andeq	fp, r0, r0, lsl #2
     a54:	0000ad00 	andeq	sl, r0, r0, lsl #26
     a58:	80a02a00 	adchi	r2, r0, r0, lsl #20
     a5c:	0c660000 	stcleq	0, cr0, [r6], #-0
     a60:	012b0000 			; <UNDEFINED> instruction: 0x012b0000
     a64:	00740b50 	rsbseq	r0, r4, r0, asr fp
     a68:	7c912432 	cfldrsvc	mvf2, [r1], {50}	; 0x32
     a6c:	1c340822 	ldcne	8, cr0, [r4], #-136	; 0xffffff78
     a70:	51012b06 	tstpl	r1, r6, lsl #22
     a74:	976c0305 	strbls	r0, [ip, -r5, lsl #6]!
     a78:	012b0000 			; <UNDEFINED> instruction: 0x012b0000
     a7c:	20030552 	andcs	r0, r3, r2, asr r5
     a80:	2b000098 	blcs	ce8 <_start-0x7318>
     a84:	48015301 	stmdami	r1, {r0, r8, r9, ip, lr}
     a88:	202c0000 	eorcs	r0, ip, r0
     a8c:	72000080 	andvc	r0, r0, #128	; 0x80
     a90:	a100000c 	tstge	r0, ip
     a94:	2b00000a 	blcs	ac4 <_start-0x753c>
     a98:	03055001 	movweq	r5, #20481	; 0x5001
     a9c:	00009754 	andeq	r9, r0, r4, asr r7
     aa0:	80282c00 	eorhi	r2, r8, r0, lsl #24
     aa4:	0c7e0000 	ldcleq	0, cr0, [lr], #-0
     aa8:	0ab60000 	beq	fed80ab0 <__bss_end__+0xfed76948>
     aac:	012b0000 			; <UNDEFINED> instruction: 0x012b0000
     ab0:	40400350 	submi	r0, r0, r0, asr r3
     ab4:	302c0024 	eorcc	r0, ip, r4, lsr #32
     ab8:	8a000080 	bhi	cc0 <_start-0x7340>
     abc:	cb00000c 	blgt	af4 <_start-0x750c>
     ac0:	2b00000a 	blcs	af0 <_start-0x7510>
     ac4:	40035001 	andmi	r5, r3, r1
     ac8:	2c002440 	cfstrscs	mvf2, [r0], {64}	; 0x40
     acc:	00008038 	andeq	r8, r0, r8, lsr r0
     ad0:	00000c96 	muleq	r0, r6, ip
     ad4:	00000ae0 	andeq	r0, r0, r0, ror #21
     ad8:	0351012b 	cmpeq	r1, #-1073741814	; 0xc000000a
     adc:	00244040 	eoreq	r4, r4, r0, asr #32
     ae0:	0080ac29 	addeq	sl, r0, r9, lsr #24
     ae4:	000ca200 	andeq	sl, ip, r0, lsl #4
     ae8:	80c02c00 	sbchi	r2, r0, r0, lsl #24
     aec:	0c720000 	ldcleq	0, cr0, [r2], #-0
     af0:	0afd0000 	beq	fff40af8 <__bss_end__+0xfff36990>
     af4:	012b0000 			; <UNDEFINED> instruction: 0x012b0000
     af8:	00750250 	rsbseq	r0, r5, r0, asr r2
     afc:	80c82c00 	sbchi	r2, r8, r0, lsl #24
     b00:	0c720000 	ldcleq	0, cr0, [r2], #-0
     b04:	0b140000 	bleq	500b0c <__bss_end__+0x4f69a4>
     b08:	012b0000 			; <UNDEFINED> instruction: 0x012b0000
     b0c:	a8030550 	stmdage	r3, {r4, r6, r8, sl}
     b10:	00000097 	muleq	r0, r7, r0
     b14:	0080cc29 	addeq	ip, r0, r9, lsr #24
     b18:	000c4e00 	andeq	r4, ip, r0, lsl #28
     b1c:	80f42900 	rscshi	r2, r4, r0, lsl #18
     b20:	0c4e0000 	mareq	acc0, r0, lr
     b24:	102c0000 	eorne	r0, ip, r0
     b28:	72000081 	andvc	r0, r0, #129	; 0x81
     b2c:	3a00000c 	bcc	b64 <_start-0x749c>
     b30:	2b00000b 	blcs	b64 <_start-0x749c>
     b34:	75025001 	strvc	r5, [r2, #-1]
     b38:	242c0000 	strtcs	r0, [ip], #-0
     b3c:	72000081 	andvc	r0, r0, #129	; 0x81
     b40:	6300000c 	movwvs	r0, #12
     b44:	2b00000b 	blcs	b78 <_start-0x7488>
     b48:	03055001 	movweq	r5, #20481	; 0x5001
     b4c:	000097c4 	andeq	r9, r0, r4, asr #15
     b50:	0251012b 	subseq	r0, r1, #-1073741814	; 0xc000000a
     b54:	012b0076 			; <UNDEFINED> instruction: 0x012b0076
     b58:	00740252 	rsbseq	r0, r4, r2, asr r2
     b5c:	0253012b 	subseq	r0, r3, #-1073741814	; 0xc000000a
     b60:	29000077 	stmdbcs	r0, {r0, r1, r2, r4, r5, r6}
     b64:	00008128 	andeq	r8, r0, r8, lsr #2
     b68:	00000ca2 	andeq	r0, r0, r2, lsr #25
     b6c:	0081382c 	addeq	r3, r1, ip, lsr #16
     b70:	000c7200 	andeq	r7, ip, r0, lsl #4
     b74:	000b8000 	andeq	r8, fp, r0
     b78:	50012b00 	andpl	r2, r1, r0, lsl #22
     b7c:	00007502 	andeq	r7, r0, r2, lsl #10
     b80:	0081402c 	addeq	r4, r1, ip, lsr #32
     b84:	000c7200 	andeq	r7, ip, r0, lsl #4
     b88:	000b9700 	andeq	r9, fp, r0, lsl #14
     b8c:	50012b00 	andpl	r2, r1, r0, lsl #22
     b90:	98080305 	stmdals	r8, {r0, r2, r8, r9}
     b94:	29000000 	stmdbcs	r0, {}	; <UNPREDICTABLE>
     b98:	0000814c 	andeq	r8, r0, ip, asr #2
     b9c:	00000cae 	andeq	r0, r0, lr, lsr #25
     ba0:	0081602c 	addeq	r6, r1, ip, lsr #32
     ba4:	000c7200 	andeq	r7, ip, r0, lsl #4
     ba8:	000bce00 	andeq	ip, fp, r0, lsl #28
     bac:	50012b00 	andpl	r2, r1, r0, lsl #22
     bb0:	977c0305 	ldrbls	r0, [ip, -r5, lsl #6]!
     bb4:	012b0000 			; <UNDEFINED> instruction: 0x012b0000
     bb8:	6c030551 	cfstr32vs	mvfx0, [r3], {81}	; 0x51
     bbc:	2b000097 	blcs	e20 <_start-0x71e0>
     bc0:	03055201 	movweq	r5, #20993	; 0x5201
     bc4:	00009820 	andeq	r9, r0, r0, lsr #16
     bc8:	0153012b 	cmpeq	r3, fp, lsr #2
     bcc:	6429004b 	strtvs	r0, [r9], #-75	; 0xffffffb5
     bd0:	ba000081 	blt	ddc <_start-0x7224>
     bd4:	2900000c 	stmdbcs	r0, {r2, r3}
     bd8:	00008168 	andeq	r8, r0, r8, ror #2
     bdc:	00000cae 	andeq	r0, r0, lr, lsr #25
     be0:	00817c2c 	addeq	r7, r1, ip, lsr #24
     be4:	000c7200 	andeq	r7, ip, r0, lsl #4
     be8:	000c0f00 	andeq	r0, ip, r0, lsl #30
     bec:	50012b00 	andpl	r2, r1, r0, lsl #22
     bf0:	97e80305 	strbls	r0, [r8, r5, lsl #6]!
     bf4:	012b0000 			; <UNDEFINED> instruction: 0x012b0000
     bf8:	6c030551 	cfstr32vs	mvfx0, [r3], {81}	; 0x51
     bfc:	2b000097 	blcs	e60 <_start-0x71a0>
     c00:	03055201 	movweq	r5, #20993	; 0x5201
     c04:	00009820 	andeq	r9, r0, r0, lsr #16
     c08:	0253012b 	subseq	r0, r3, #-1073741814	; 0xc000000a
     c0c:	29002608 	stmdbcs	r0, {r3, r9, sl, sp}
     c10:	00008180 	andeq	r8, r0, r0, lsl #3
     c14:	00000cba 			; <UNDEFINED> instruction: 0x00000cba
     c18:	01150a00 	tsteq	r5, r0, lsl #20
     c1c:	0c290000 	stceq	0, cr0, [r9], #-0
     c20:	2c0b0000 	stccs	0, cr0, [fp], {-0}
     c24:	05000000 	streq	r0, [r0, #-0]
     c28:	002c0a00 	eoreq	r0, ip, r0, lsl #20
     c2c:	0c390000 	ldceq	0, cr0, [r9], #-0
     c30:	2c0b0000 	stccs	0, cr0, [fp], {-0}
     c34:	05000000 	streq	r0, [r0, #-0]
     c38:	01240a00 			; <UNDEFINED> instruction: 0x01240a00
     c3c:	0c490000 	mareq	acc0, r0, r9
     c40:	2c0b0000 	stccs	0, cr0, [fp], {-0}
     c44:	07000000 	streq	r0, [r0, -r0]
     c48:	0c390f00 	ldceq	15, cr0, [r9], #-0
     c4c:	9a2d0000 	bls	b40c54 <__bss_end__+0xb36aec>
     c50:	9a000004 	bls	c68 <_start-0x7398>
     c54:	06000004 	streq	r0, [r0], -r4
     c58:	732d0f32 			; <UNDEFINED> instruction: 0x732d0f32
     c5c:	73000000 	movwvc	r0, #0
     c60:	07000000 	streq	r0, [r0, -r0]
     c64:	742d0874 	strtvc	r0, [sp], #-2164	; 0xfffff78c
     c68:	74000002 	strvc	r0, [r0], #-2
     c6c:	07000002 	streq	r0, [r0, -r2]
     c70:	0a2d0775 	beq	b42a4c <__bss_end__+0xb388e4>
     c74:	0a000007 	beq	c98 <_start-0x7368>
     c78:	06000007 	streq	r0, [r0], -r7
     c7c:	562d0529 	strtpl	r0, [sp], -r9, lsr #10
     c80:	56000001 	strpl	r0, [r0], -r1
     c84:	06000001 	streq	r0, [r0], -r1
     c88:	e42d0672 	strt	r0, [sp], #-1650	; 0xfffff98e
     c8c:	e4000004 	str	r0, [r0], #-4
     c90:	06000004 	streq	r0, [r0], -r4
     c94:	352d076c 	strcc	r0, [sp, #-1900]!	; 0xfffff894
     c98:	35000001 	strcc	r0, [r0, #-1]
     c9c:	07000001 	streq	r0, [r0, -r1]
     ca0:	0c2d0677 	stceq	6, cr0, [sp], #-476	; 0xfffffe24
     ca4:	0c000000 	stceq	0, cr0, [r0], {-0}
     ca8:	07000000 	streq	r0, [r0, -r0]
     cac:	e92d057d 	push	{r0, r2, r3, r4, r5, r6, r8, sl}
     cb0:	e9000001 	stmdb	r0, {r0}
     cb4:	06000001 	streq	r0, [r0], -r1
     cb8:	8d2d061e 	stchi	6, cr0, [sp, #-120]!	; 0xffffff88
     cbc:	8d000002 	stchi	0, cr0, [r0, #-8]
     cc0:	06000002 	streq	r0, [r0], -r2
     cc4:	85000665 	strhi	r0, [r0, #-1637]	; 0xfffff99b
     cc8:	04000019 	streq	r0, [r0], #-25	; 0xffffffe7
     ccc:	00027d00 	andeq	r7, r2, r0, lsl #26
     cd0:	fd010400 	stc2	4, cr0, [r1, #-0]
     cd4:	0c000002 	stceq	0, cr0, [r0], {2}
     cd8:	000005d7 	ldrdeq	r0, [r0], -r7
     cdc:	000000cb 	andeq	r0, r0, fp, asr #1
     ce0:	000081a8 	andeq	r8, r0, r8, lsr #3
     ce4:	00000868 	andeq	r0, r0, r8, ror #16
     ce8:	000001fc 	strdeq	r0, [r0], -ip
     cec:	69050402 	stmdbvs	r5, {r1, sl}
     cf0:	0300746e 	movweq	r7, #1134	; 0x46e
     cf4:	00660704 	rsbeq	r0, r6, r4, lsl #14
     cf8:	01030000 	mrseq	r0, (UNDEF: 3)
     cfc:	0002ec06 	andeq	lr, r2, r6, lsl #24
     d00:	05020300 	streq	r0, [r2, #-768]	; 0xfffffd00
     d04:	00000385 	andeq	r0, r0, r5, lsl #7
     d08:	ac050403 	cfstrsge	mvf0, [r5], {3}
     d0c:	03000000 	movweq	r0, #0
     d10:	00a70508 	adceq	r0, r7, r8, lsl #10
     d14:	91040000 	mrsls	r0, (UNDEF: 4)
     d18:	03000006 	movweq	r0, #6
     d1c:	005b182e 	subseq	r1, fp, lr, lsr #16
     d20:	01030000 	mrseq	r0, (UNDEF: 3)
     d24:	0002ea08 	andeq	lr, r2, r8, lsl #20
     d28:	07020300 	streq	r0, [r2, -r0, lsl #6]
     d2c:	00000222 	andeq	r0, r0, r2, lsr #4
     d30:	00064804 	andeq	r4, r6, r4, lsl #16
     d34:	19340300 	ldmdbne	r4!, {r8, r9}
     d38:	00000075 	andeq	r0, r0, r5, ror r0
     d3c:	61070403 	tstvs	r7, r3, lsl #8
     d40:	03000000 	movweq	r0, #0
     d44:	005c0708 	subseq	r0, ip, r8, lsl #14
     d48:	65040000 	strvs	r0, [r4, #-0]
     d4c:	04000002 	streq	r0, [r0], #-2
     d50:	008f1922 	addeq	r1, pc, r2, lsr #18
     d54:	04050000 	streq	r0, [r5], #-0
     d58:	00000095 	muleq	r0, r5, r0
     d5c:	00042b06 	andeq	r2, r4, r6, lsl #22
     d60:	02cb0400 	sbceq	r0, fp, #0, 8
     d64:	2c050000 	stccs	0, cr0, [r5], {-0}
     d68:	0000410e 	andeq	r4, r0, lr, lsl #2
     d6c:	04400400 	strbeq	r0, [r0], #-1024	; 0xfffffc00
     d70:	72050000 	andvc	r0, r5, #0
     d74:	0000410e 	andeq	r4, r0, lr, lsl #2
     d78:	026d0700 	rsbeq	r0, sp, #0, 14
     d7c:	5e060000 	cdppl	0, 0, cr0, cr6, cr0, {0}
     d80:	002c1701 	eoreq	r1, ip, r1, lsl #14
     d84:	04080000 	streq	r0, [r8], #-0
     d88:	e103a605 	tst	r3, r5, lsl #12
     d8c:	09000000 	stmdbeq	r0, {}	; <UNPREDICTABLE>
     d90:	0000025f 	andeq	r0, r0, pc, asr r2
     d94:	b20ca805 	andlt	sl, ip, #327680	; 0x50000
     d98:	09000000 	stmdbeq	r0, {}	; <UNPREDICTABLE>
     d9c:	000001e2 	andeq	r0, r0, r2, ror #3
     da0:	e113a905 	tst	r3, r5, lsl #18
     da4:	00000000 	andeq	r0, r0, r0
     da8:	00005b0a 	andeq	r5, r0, sl, lsl #22
     dac:	0000f100 	andeq	pc, r0, r0, lsl #2
     db0:	002c0b00 	eoreq	r0, ip, r0, lsl #22
     db4:	00030000 	andeq	r0, r3, r0
     db8:	a305080c 	movwge	r0, #22540	; 0x580c
     dbc:	00011509 	andeq	r1, r1, r9, lsl #10
     dc0:	04230d00 	strteq	r0, [r3], #-3328	; 0xfffff300
     dc4:	a5050000 	strge	r0, [r5, #-0]
     dc8:	00002507 	andeq	r2, r0, r7, lsl #10
     dcc:	320d0000 	andcc	r0, sp, #0
     dd0:	05000004 	streq	r0, [r0, #-4]
     dd4:	00bf05aa 	adcseq	r0, pc, sl, lsr #11
     dd8:	00040000 	andeq	r0, r4, r0
     ddc:	0003ad04 	andeq	sl, r3, r4, lsl #26
     de0:	03ab0500 			; <UNDEFINED> instruction: 0x03ab0500
     de4:	000000f1 	strdeq	r0, [r0], -r1
     de8:	00019f04 	andeq	r9, r1, r4, lsl #30
     dec:	1baf0500 	blne	febc21f4 <__bss_end__+0xfebb808c>
     df0:	00000083 	andeq	r0, r0, r3, lsl #1
     df4:	0405040e 	streq	r0, [r5], #-1038	; 0xfffffbf2
     df8:	00000135 	andeq	r0, r0, r5, lsr r1
     dfc:	f3080103 	vrhadd.u8	d0, d8, d3
     e00:	0f000002 	svceq	0x00000002
     e04:	00000135 	andeq	r0, r0, r5, lsr r1
     e08:	00047204 	andeq	r7, r4, r4, lsl #4
     e0c:	19160700 	ldmdbne	r6, {r8, r9, sl}
     e10:	00000075 	andeq	r0, r0, r5, ror r0
     e14:	0001b010 	andeq	fp, r1, r0, lsl r0
     e18:	2f071800 	svccs	0x00071800
     e1c:	0001a708 	andeq	sl, r1, r8, lsl #14
     e20:	03ce0d00 	biceq	r0, lr, #0, 26
     e24:	31070000 	mrscc	r0, (UNDEF: 7)
     e28:	0001a713 	andeq	sl, r1, r3, lsl r7
     e2c:	5f110000 	svcpl	0x00110000
     e30:	3207006b 	andcc	r0, r7, #107	; 0x6b
     e34:	00002507 	andeq	r2, r0, r7, lsl #10
     e38:	0e0d0400 	cfcpyseq	mvf0, mvf13
     e3c:	07000004 	streq	r0, [r0, -r4]
     e40:	00250b32 	eoreq	r0, r5, r2, lsr fp
     e44:	0d080000 	stceq	0, cr0, [r8, #-0]
     e48:	00000199 	muleq	r0, r9, r1
     e4c:	25143207 	ldrcs	r3, [r4, #-519]	; 0xfffffdf9
     e50:	0c000000 	stceq	0, cr0, [r0], {-0}
     e54:	0004b20d 	andeq	fp, r4, sp, lsl #4
     e58:	1b320700 	blne	c82a60 <__bss_end__+0xc788f8>
     e5c:	00000025 	andeq	r0, r0, r5, lsr #32
     e60:	785f1110 	ldmdavc	pc, {r4, r8, ip}^	; <UNPREDICTABLE>
     e64:	0b330700 	bleq	cc2a6c <__bss_end__+0xcb8904>
     e68:	000001ad 	andeq	r0, r0, sp, lsr #3
     e6c:	04050014 	streq	r0, [r5], #-20	; 0xffffffec
     e70:	0000014d 	andeq	r0, r0, sp, asr #2
     e74:	0001410a 	andeq	r4, r1, sl, lsl #2
     e78:	0001bd00 	andeq	fp, r1, r0, lsl #26
     e7c:	002c0b00 	eoreq	r0, ip, r0, lsl #22
     e80:	00000000 	andeq	r0, r0, r0
     e84:	0001dd10 	andeq	sp, r1, r0, lsl sp
     e88:	37072400 	strcc	r2, [r7, -r0, lsl #8]
     e8c:	00024008 	andeq	r4, r2, r8
     e90:	009e0d00 	addseq	r0, lr, r0, lsl #26
     e94:	39070000 	stmdbcc	r7, {}	; <UNPREDICTABLE>
     e98:	00002509 	andeq	r2, r0, r9, lsl #10
     e9c:	480d0000 	stmdami	sp, {}	; <UNPREDICTABLE>
     ea0:	07000004 	streq	r0, [r0, -r4]
     ea4:	0025093a 	eoreq	r0, r5, sl, lsr r9
     ea8:	0d040000 	stceq	0, cr0, [r4, #-0]
     eac:	000000c1 	andeq	r0, r0, r1, asr #1
     eb0:	25093b07 	strcs	r3, [r9, #-2823]	; 0xfffff4f9
     eb4:	08000000 	stmdaeq	r0, {}	; <UNPREDICTABLE>
     eb8:	0005330d 	andeq	r3, r5, sp, lsl #6
     ebc:	093c0700 	ldmdbeq	ip!, {r8, r9, sl}
     ec0:	00000025 	andeq	r0, r0, r5, lsr #32
     ec4:	02af0d0c 	adceq	r0, pc, #12, 26	; 0x300
     ec8:	3d070000 	stccc	0, cr0, [r7, #-0]
     ecc:	00002509 	andeq	r2, r0, r9, lsl #10
     ed0:	830d1000 	movwhi	r1, #53248	; 0xd000
     ed4:	07000002 	streq	r0, [r0, -r2]
     ed8:	0025093e 	eoreq	r0, r5, lr, lsr r9
     edc:	0d140000 	ldceq	0, cr0, [r4, #-0]
     ee0:	000004b7 			; <UNDEFINED> instruction: 0x000004b7
     ee4:	25093f07 	strcs	r3, [r9, #-3847]	; 0xfffff0f9
     ee8:	18000000 	stmdane	r0, {}	; <UNPREDICTABLE>
     eec:	00038f0d 	andeq	r8, r3, sp, lsl #30
     ef0:	09400700 	stmdbeq	r0, {r8, r9, sl}^
     ef4:	00000025 	andeq	r0, r0, r5, lsr #32
     ef8:	04fa0d1c 	ldrbteq	r0, [sl], #3356	; 0xd1c
     efc:	41070000 	mrsmi	r0, (UNDEF: 7)
     f00:	00002509 	andeq	r2, r0, r9, lsl #10
     f04:	12002000 	andne	r2, r0, #0
     f08:	00000101 	andeq	r0, r0, r1, lsl #2
     f0c:	4a070108 	bmi	1c1334 <__bss_end__+0x1b71cc>
     f10:	00028508 	andeq	r8, r2, r8, lsl #10
     f14:	018c0d00 	orreq	r0, ip, r0, lsl #26
     f18:	4b070000 	blmi	1c0f20 <__bss_end__+0x1b6db8>
     f1c:	0002850a 	andeq	r8, r2, sl, lsl #10
     f20:	000d0000 	andeq	r0, sp, r0
     f24:	07000000 	streq	r0, [r0, -r0]
     f28:	0285094c 	addeq	r0, r5, #76, 18	; 0x130000
     f2c:	13800000 	orrne	r0, r0, #0
     f30:	00000464 	andeq	r0, r0, r4, ror #8
     f34:	410a4e07 	tstmi	sl, r7, lsl #28
     f38:	00000001 	andeq	r0, r0, r1
     f3c:	01261301 			; <UNDEFINED> instruction: 0x01261301
     f40:	51070000 	mrspl	r0, (UNDEF: 7)
     f44:	0001410a 	andeq	r4, r1, sl, lsl #2
     f48:	00010400 	andeq	r0, r1, r0, lsl #8
     f4c:	00012d0a 	andeq	r2, r1, sl, lsl #26
     f50:	00029500 	andeq	r9, r2, r0, lsl #10
     f54:	002c0b00 	eoreq	r0, ip, r0, lsl #22
     f58:	001f0000 	andseq	r0, pc, r0
     f5c:	0002b812 	andeq	fp, r2, r2, lsl r8
     f60:	07019000 	streq	r9, [r1, -r0]
     f64:	02d8085d 	sbcseq	r0, r8, #6094848	; 0x5d0000
     f68:	ce0d0000 	cdpgt	0, 0, cr0, cr13, cr0, {0}
     f6c:	07000003 	streq	r0, [r0, -r3]
     f70:	02d8125e 	sbcseq	r1, r8, #-536870907	; 0xe0000005
     f74:	0d000000 	stceq	0, cr0, [r0, #-0]
     f78:	000003e6 	andeq	r0, r0, r6, ror #7
     f7c:	25065f07 	strcs	r5, [r6, #-3847]	; 0xfffff0f9
     f80:	04000000 	streq	r0, [r0], #-0
     f84:	0001940d 	andeq	r9, r1, sp, lsl #8
     f88:	09610700 	stmdbeq	r1!, {r8, r9, sl}^
     f8c:	000002de 	ldrdeq	r0, [r0], -lr
     f90:	01010d08 	tsteq	r1, r8, lsl #26
     f94:	62070000 	andvs	r0, r7, #0
     f98:	0002401e 	andeq	r4, r2, lr, lsl r0
     f9c:	05008800 	streq	r8, [r0, #-2048]	; 0xfffff800
     fa0:	00029504 	andeq	r9, r2, r4, lsl #10
     fa4:	02ee0a00 	rsceq	r0, lr, #0, 20
     fa8:	02ee0000 	rsceq	r0, lr, #0
     fac:	2c0b0000 	stccs	0, cr0, [fp], {-0}
     fb0:	1f000000 	svcne	0x00000000
     fb4:	f4040500 	vst3.8	{d0,d2,d4}, [r4], r0
     fb8:	14000002 	strne	r0, [r0], #-2
     fbc:	00039910 	andeq	r9, r3, r0, lsl r9
     fc0:	75070800 	strvc	r0, [r7, #-2048]	; 0xfffff800
     fc4:	00031d08 	andeq	r1, r3, r8, lsl #26
     fc8:	00bb0d00 	adcseq	r0, fp, r0, lsl #26
     fcc:	76070000 	strvc	r0, [r7], -r0
     fd0:	00031d11 	andeq	r1, r3, r1, lsl sp
     fd4:	1b0d0000 	blne	340fdc <__bss_end__+0x336e74>
     fd8:	07000000 	streq	r0, [r0, -r0]
     fdc:	00250677 	eoreq	r0, r5, r7, ror r6
     fe0:	00040000 	andeq	r0, r4, r0
     fe4:	005b0405 	subseq	r0, fp, r5, lsl #8
     fe8:	b8100000 	ldmdalt	r0, {}	; <UNPREDICTABLE>
     fec:	68000003 	stmdavs	r0, {r0, r1}
     ff0:	6608b507 	strvs	fp, [r8], -r7, lsl #10
     ff4:	11000004 	tstne	r0, r4
     ff8:	0700705f 	smlsdeq	r0, pc, r0, r7	; <UNPREDICTABLE>
     ffc:	031d12b6 	tsteq	sp, #1610612747	; 0x6000000b
    1000:	11000000 	mrsne	r0, (UNDEF: 0)
    1004:	0700725f 	smlsdeq	r0, pc, r2, r7	; <UNPREDICTABLE>
    1008:	002507b7 	strhteq	r0, [r5], -r7
    100c:	11040000 	mrsne	r0, (UNDEF: 4)
    1010:	0700775f 	smlsdeq	r0, pc, r7, r7	; <UNPREDICTABLE>
    1014:	002507b8 	strhteq	r0, [r5], -r8
    1018:	0d080000 	stceq	0, cr0, [r8, #-0]
    101c:	0000011f 	andeq	r0, r0, pc, lsl r1
    1020:	3a09b907 	bcc	26f444 <__bss_end__+0x2652dc>
    1024:	0c000000 	stceq	0, cr0, [r0], {-0}
    1028:	0002080d 	andeq	r0, r2, sp, lsl #16
    102c:	09ba0700 	ldmibeq	sl!, {r8, r9, sl}
    1030:	0000003a 	andeq	r0, r0, sl, lsr r0
    1034:	625f110e 	subsvs	r1, pc, #-2147483645	; 0x80000003
    1038:	bb070066 	bllt	1c11d8 <__bss_end__+0x1b7070>
    103c:	0002f511 	andeq	pc, r2, r1, lsl r5	; <UNPREDICTABLE>
    1040:	7b0d1000 	blvc	345048 <__bss_end__+0x33aee0>
    1044:	07000000 	streq	r0, [r0, -r0]
    1048:	002507bc 	strhteq	r0, [r5], -ip
    104c:	0d180000 	ldceq	0, cr0, [r8, #-0]
    1050:	0000010f 	andeq	r0, r0, pc, lsl #2
    1054:	2d0ac307 	stccs	3, cr12, [sl, #-28]	; 0xffffffe4
    1058:	1c000001 	stcne	0, cr0, [r0], {1}
    105c:	000b590d 	andeq	r5, fp, sp, lsl #18
    1060:	1dc50700 	stclne	7, cr0, [r5]
    1064:	000005d8 	ldrdeq	r0, [r0], -r8
    1068:	061d0d20 	ldreq	r0, [sp], -r0, lsr #26
    106c:	c7070000 	strgt	r0, [r7, -r0]
    1070:	0006021d 	andeq	r0, r6, sp, lsl r2
    1074:	3a0d2400 	bcc	34a07c <__bss_end__+0x33ff14>
    1078:	07000004 	streq	r0, [r0, -r4]
    107c:	06260dca 	strteq	r0, [r6], -sl, asr #27
    1080:	0d280000 	stceq	0, cr0, [r8, #-0]
    1084:	00000514 	andeq	r0, r0, r4, lsl r5
    1088:	4009cb07 	andmi	ip, r9, r7, lsl #22
    108c:	2c000006 	stccs	0, cr0, [r0], {6}
    1090:	62755f11 	rsbsvs	r5, r5, #17, 30	; 0x44
    1094:	11ce0700 	bicne	r0, lr, r0, lsl #14
    1098:	000002f5 	strdeq	r0, [r0], -r5
    109c:	755f1130 	ldrbvc	r1, [pc, #-304]	; f74 <_start-0x708c>
    10a0:	cf070070 	svcgt	0x00070070
    10a4:	00031d12 	andeq	r1, r3, r2, lsl sp
    10a8:	5f113800 	svcpl	0x00113800
    10ac:	07007275 	smlsdxeq	r0, r5, r2, r7
    10b0:	002507d0 	ldrdeq	r0, [r5], -r0	; <UNPREDICTABLE>
    10b4:	0d3c0000 	ldceq	0, cr0, [ip, #-0]
    10b8:	000000b5 	strheq	r0, [r0], -r5
    10bc:	4611d307 	ldrmi	sp, [r1], -r7, lsl #6
    10c0:	40000006 	andmi	r0, r0, r6
    10c4:	0004ec0d 	andeq	lr, r4, sp, lsl #24
    10c8:	11d40700 	bicsne	r0, r4, r0, lsl #14
    10cc:	00000656 	andeq	r0, r0, r6, asr r6
    10d0:	6c5f1143 	ldfvse	f1, [pc], {67}	; 0x43
    10d4:	d7070062 	strle	r0, [r7, -r2, rrx]
    10d8:	0002f511 	andeq	pc, r2, r1, lsl r5	; <UNPREDICTABLE>
    10dc:	3d0d4400 	cfstrscc	mvf4, [sp, #-0]
    10e0:	07000001 	streq	r0, [r0, -r1]
    10e4:	002507da 	ldrdeq	r0, [r5], -sl	; <UNPREDICTABLE>
    10e8:	0d4c0000 	stcleq	0, cr0, [ip, #-0]
    10ec:	0000014e 	andeq	r0, r0, lr, asr #2
    10f0:	9a0adb07 	bls	2b7d14 <__bss_end__+0x2adbac>
    10f4:	50000000 	andpl	r0, r0, r0
    10f8:	000afa0d 	andeq	pc, sl, sp, lsl #20
    10fc:	12de0700 	sbcsne	r0, lr, #0, 14
    1100:	00000484 	andeq	r0, r0, r4, lsl #9
    1104:	042c0d54 	strteq	r0, [ip], #-3412	; 0xfffff2ac
    1108:	e2070000 	and	r0, r7, #0
    110c:	0001210c 	andeq	r2, r1, ip, lsl #2
    1110:	c00d5800 	andgt	r5, sp, r0, lsl #16
    1114:	07000003 	streq	r0, [r0, -r3]
    1118:	01150ee4 	tsteq	r5, r4, ror #29
    111c:	0d5c0000 	ldcleq	0, cr0, [ip, #-0]
    1120:	0000027b 	andeq	r0, r0, fp, ror r2
    1124:	2509e507 	strcs	lr, [r9, #-1287]	; 0xfffffaf9
    1128:	64000000 	strvs	r0, [r0], #-0
    112c:	00251500 	eoreq	r1, r5, r0, lsl #10
    1130:	04840000 	streq	r0, [r4], #0
    1134:	84160000 	ldrhi	r0, [r6], #-0
    1138:	16000004 	strne	r0, [r0], -r4
    113c:	0000012d 	andeq	r0, r0, sp, lsr #2
    1140:	00012f16 	andeq	r2, r1, r6, lsl pc
    1144:	00251600 	eoreq	r1, r5, r0, lsl #12
    1148:	05000000 	streq	r0, [r0, #-0]
    114c:	00048f04 	andeq	r8, r4, r4, lsl #30
    1150:	04840f00 	streq	r0, [r4], #3840	; 0xf00
    1154:	16170000 	ldrne	r0, [r7], -r0
    1158:	28000004 	stmdacs	r0, {r2}
    115c:	02600704 	rsbeq	r0, r0, #4, 14	; 0x100000
    1160:	0005d808 	andeq	sp, r5, r8, lsl #16
    1164:	037e1800 	cmneq	lr, #0, 16
    1168:	62070000 	andvs	r0, r7, #0
    116c:	00250702 	eoreq	r0, r5, r2, lsl #14
    1170:	18000000 	stmdane	r0, {}	; <UNPREDICTABLE>
    1174:	0000012e 	andeq	r0, r0, lr, lsr #2
    1178:	0b026707 	bleq	9ad9c <__bss_end__+0x90c34>
    117c:	000006b2 			; <UNDEFINED> instruction: 0x000006b2
    1180:	01f81804 	mvnseq	r1, r4, lsl #16
    1184:	67070000 	strvs	r0, [r7, -r0]
    1188:	06b21402 	ldrteq	r1, [r2], r2, lsl #8
    118c:	18080000 	stmdane	r8, {}	; <UNPREDICTABLE>
    1190:	000001a8 	andeq	r0, r0, r8, lsr #3
    1194:	1e026707 	cdpne	7, 0, cr6, cr2, cr7, {0}
    1198:	000006b2 			; <UNDEFINED> instruction: 0x000006b2
    119c:	03e1180c 	mvneq	r1, #12, 16	; 0xc0000
    11a0:	69070000 	stmdbvs	r7, {}	; <UNPREDICTABLE>
    11a4:	00250802 	eoreq	r0, r5, r2, lsl #16
    11a8:	18100000 	ldmdane	r0, {}	; <UNPREDICTABLE>
    11ac:	00000029 	andeq	r0, r0, r9, lsr #32
    11b0:	08026a07 	stmdaeq	r2, {r0, r1, r2, r9, fp, sp, lr}
    11b4:	000008b2 			; <UNDEFINED> instruction: 0x000008b2
    11b8:	03f51814 	mvnseq	r1, #20, 16	; 0x140000
    11bc:	6d070000 	stcvs	0, cr0, [r7, #-0]
    11c0:	00250702 	eoreq	r0, r5, r2, lsl #14
    11c4:	18300000 	ldmdane	r0!, {}	; <UNPREDICTABLE>
    11c8:	00000a36 	andeq	r0, r0, r6, lsr sl
    11cc:	16026e07 	strne	r6, [r2], -r7, lsl #28
    11d0:	000008c7 	andeq	r0, r0, r7, asr #17
    11d4:	02c01834 	sbceq	r1, r0, #52, 16	; 0x340000
    11d8:	70070000 	andvc	r0, r7, r0
    11dc:	00250702 	eoreq	r0, r5, r2, lsl #14
    11e0:	18380000 	ldmdane	r8!, {}	; <UNPREDICTABLE>
    11e4:	000003eb 	andeq	r0, r0, fp, ror #7
    11e8:	0a027207 	beq	9da0c <__bss_end__+0x938a4>
    11ec:	000008d8 	ldrdeq	r0, [r0], -r8
    11f0:	0257183c 	subseq	r1, r7, #60, 16	; 0x3c0000
    11f4:	75070000 	strvc	r0, [r7, #-0]
    11f8:	01a71302 			; <UNDEFINED> instruction: 0x01a71302
    11fc:	18400000 	stmdane	r0, {}^	; <UNPREDICTABLE>
    1200:	000001c7 	andeq	r0, r0, r7, asr #3
    1204:	07027607 	streq	r7, [r2, -r7, lsl #12]
    1208:	00000025 	andeq	r0, r0, r5, lsr #32
    120c:	052e1844 	streq	r1, [lr, #-2116]!	; 0xfffff7bc
    1210:	77070000 	strvc	r0, [r7, -r0]
    1214:	01a71302 			; <UNDEFINED> instruction: 0x01a71302
    1218:	18480000 	stmdane	r8, {}^	; <UNPREDICTABLE>
    121c:	000002d2 	ldrdeq	r0, [r0], -r2
    1220:	14027807 	strne	r7, [r2], #-2055	; 0xfffff7f9
    1224:	000008de 	ldrdeq	r0, [r0], -lr
    1228:	0200184c 	andeq	r1, r0, #76, 16	; 0x4c0000
    122c:	7b070000 	blvc	1c1234 <__bss_end__+0x1b70cc>
    1230:	00250702 	eoreq	r0, r5, r2, lsl #14
    1234:	18500000 	ldmdane	r0, {}^	; <UNPREDICTABLE>
    1238:	00000146 	andeq	r0, r0, r6, asr #2
    123c:	09027c07 	stmdbeq	r2, {r0, r1, r2, sl, fp, ip, sp, lr}
    1240:	0000012f 	andeq	r0, r0, pc, lsr #2
    1244:	02f81854 	rscseq	r1, r8, #84, 16	; 0x540000
    1248:	9f070000 	svcls	0x00070000
    124c:	088d0702 	stmeq	sp, {r1, r8, r9, sl}
    1250:	19580000 	ldmdbne	r8, {}^	; <UNPREDICTABLE>
    1254:	000002b8 			; <UNDEFINED> instruction: 0x000002b8
    1258:	1302a307 	movwne	sl, #8967	; 0x2307
    125c:	000002d8 	ldrdeq	r0, [r0], -r8
    1260:	35190148 	ldrcc	r0, [r9, #-328]	; 0xfffffeb8
    1264:	07000002 	streq	r0, [r0, -r2]
    1268:	951202a4 	ldrls	r0, [r2, #-676]	; 0xfffffd5c
    126c:	4c000002 	stcmi	0, cr0, [r0], {2}
    1270:	04da1901 	ldrbeq	r1, [sl], #2305	; 0x901
    1274:	a8070000 	stmdage	r7, {}	; <UNPREDICTABLE>
    1278:	08ef0c02 	stmiaeq	pc!, {r1, sl, fp}^	; <UNPREDICTABLE>
    127c:	02dc0000 	sbcseq	r0, ip, #0
    1280:	00011719 	andeq	r1, r1, r9, lsl r7
    1284:	02ad0700 	adceq	r0, sp, #0, 14
    1288:	00067310 	andeq	r7, r6, r0, lsl r3
    128c:	1902e000 	stmdbne	r2, {sp, lr, pc}
    1290:	000000fc 	strdeq	r0, [r0], -ip
    1294:	0a02af07 	beq	aceb8 <__bss_end__+0xa2d50>
    1298:	000008fb 	strdeq	r0, [r0], -fp
    129c:	050002ec 	streq	r0, [r0, #-748]	; 0xfffffd14
    12a0:	00046604 	andeq	r6, r4, r4, lsl #12
    12a4:	00251500 	eoreq	r1, r5, r0, lsl #10
    12a8:	05fc0000 	ldrbeq	r0, [ip, #0]!
    12ac:	84160000 	ldrhi	r0, [r6], #-0
    12b0:	16000004 	strne	r0, [r0], -r4
    12b4:	0000012d 	andeq	r0, r0, sp, lsr #2
    12b8:	0005fc16 	andeq	pc, r5, r6, lsl ip	; <UNPREDICTABLE>
    12bc:	00251600 	eoreq	r1, r5, r0, lsl #12
    12c0:	05000000 	streq	r0, [r0, #-0]
    12c4:	00013c04 	andeq	r3, r1, r4, lsl #24
    12c8:	de040500 	cfsh32le	mvfx0, mvfx4, #0
    12cc:	15000005 	strne	r0, [r0, #-5]
    12d0:	000000a6 	andeq	r0, r0, r6, lsr #1
    12d4:	00000626 	andeq	r0, r0, r6, lsr #12
    12d8:	00048416 	andeq	r8, r4, r6, lsl r4
    12dc:	012d1600 			; <UNDEFINED> instruction: 0x012d1600
    12e0:	a6160000 	ldrge	r0, [r6], -r0
    12e4:	16000000 	strne	r0, [r0], -r0
    12e8:	00000025 	andeq	r0, r0, r5, lsr #32
    12ec:	08040500 	stmdaeq	r4, {r8, sl}
    12f0:	15000006 	strne	r0, [r0, #-6]
    12f4:	00000025 	andeq	r0, r0, r5, lsr #32
    12f8:	00000640 	andeq	r0, r0, r0, asr #12
    12fc:	00048416 	andeq	r8, r4, r6, lsl r4
    1300:	012d1600 			; <UNDEFINED> instruction: 0x012d1600
    1304:	05000000 	streq	r0, [r0, #-0]
    1308:	00062c04 	andeq	r2, r6, r4, lsl #24
    130c:	005b0a00 	subseq	r0, fp, r0, lsl #20
    1310:	06560000 	ldrbeq	r0, [r6], -r0
    1314:	2c0b0000 	stccs	0, cr0, [fp], {-0}
    1318:	02000000 	andeq	r0, r0, #0
    131c:	005b0a00 	subseq	r0, fp, r0, lsl #20
    1320:	06660000 	strbteq	r0, [r6], -r0
    1324:	2c0b0000 	stccs	0, cr0, [fp], {-0}
    1328:	00000000 	andeq	r0, r0, r0
    132c:	03a60700 			; <UNDEFINED> instruction: 0x03a60700
    1330:	1f070000 	svcne	0x00070000
    1334:	03231a01 			; <UNDEFINED> instruction: 0x03231a01
    1338:	c11a0000 	tstgt	sl, r0
    133c:	0c000004 	stceq	0, cr0, [r0], {4}
    1340:	08012307 	stmdaeq	r1, {r0, r1, r2, r8, r9, sp}
    1344:	000006ac 	andeq	r0, r0, ip, lsr #13
    1348:	0003ce18 	andeq	ip, r3, r8, lsl lr
    134c:	01250700 			; <UNDEFINED> instruction: 0x01250700
    1350:	0006ac11 	andeq	sl, r6, r1, lsl ip
    1354:	1b180000 	blne	60135c <__bss_end__+0x5f71f4>
    1358:	07000002 	streq	r0, [r0, -r2]
    135c:	25070126 	strcs	r0, [r7, #-294]	; 0xfffffeda
    1360:	04000000 	streq	r0, [r0], #-0
    1364:	0003a018 	andeq	sl, r3, r8, lsl r0
    1368:	01270700 			; <UNDEFINED> instruction: 0x01270700
    136c:	0006b20b 	andeq	fp, r6, fp, lsl #4
    1370:	05000800 	streq	r0, [r0, #-2048]	; 0xfffff800
    1374:	00067304 	andeq	r7, r6, r4, lsl #6
    1378:	66040500 	strvs	r0, [r4], -r0, lsl #10
    137c:	1a000006 	bne	139c <_start-0x6c64>
    1380:	00000021 	andeq	r0, r0, r1, lsr #32
    1384:	013f070e 	teqeq	pc, lr, lsl #14
    1388:	0006f108 	andeq	pc, r6, r8, lsl #2
    138c:	041d1800 	ldreq	r1, [sp], #-2048	; 0xfffff800
    1390:	40070000 	andmi	r0, r7, r0
    1394:	06f11201 	ldrbteq	r1, [r1], r1, lsl #4
    1398:	18000000 	stmdane	r0, {}	; <UNPREDICTABLE>
    139c:	00000451 	andeq	r0, r0, r1, asr r4
    13a0:	12014107 	andne	r4, r1, #-1073741823	; 0xc0000001
    13a4:	000006f1 	strdeq	r0, [r0], -r1
    13a8:	046d1806 	strbteq	r1, [sp], #-2054	; 0xfffff7fa
    13ac:	42070000 	andmi	r0, r7, #0
    13b0:	00621201 	rsbeq	r1, r2, r1, lsl #4
    13b4:	000c0000 	andeq	r0, ip, r0
    13b8:	0000620a 	andeq	r6, r0, sl, lsl #4
    13bc:	00070100 	andeq	r0, r7, r0, lsl #2
    13c0:	002c0b00 	eoreq	r0, ip, r0, lsl #22
    13c4:	00020000 	andeq	r0, r2, r0
    13c8:	8007d01b 	andhi	sp, r7, fp, lsl r0
    13cc:	08160702 	ldmdaeq	r6, {r1, r8, r9, sl}
    13d0:	a5180000 	ldrge	r0, [r8, #-0]
    13d4:	07000004 	streq	r0, [r0, -r4]
    13d8:	2c180282 	lfmcs	f0, 4, [r8], {130}	; 0x82
    13dc:	00000000 	andeq	r0, r0, r0
    13e0:	00045718 	andeq	r5, r4, r8, lsl r7
    13e4:	02830700 	addeq	r0, r3, #0, 14
    13e8:	00012f12 	andeq	r2, r1, r2, lsl pc
    13ec:	4a180400 	bmi	6023f4 <__bss_end__+0x5f828c>
    13f0:	07000002 	streq	r0, [r0, -r2]
    13f4:	16100284 	ldrne	r0, [r0], -r4, lsl #5
    13f8:	08000008 	stmdaeq	r0, {r3}
    13fc:	00050518 	andeq	r0, r5, r8, lsl r5
    1400:	02850700 	addeq	r0, r5, #0, 14
    1404:	0001bd17 	andeq	fp, r1, r7, lsl sp
    1408:	b8182400 	ldmdalt	r8, {sl, sp}
    140c:	07000001 	streq	r0, [r0, -r1]
    1410:	250f0286 	strcs	r0, [pc, #-646]	; 1192 <_start-0x6e6e>
    1414:	48000000 	stmdami	r0, {}	; <UNPREDICTABLE>
    1418:	0003c918 	andeq	ip, r3, r8, lsl r9
    141c:	02870700 	addeq	r0, r7, #0, 14
    1420:	00007c2c 	andeq	r7, r0, ip, lsr #24
    1424:	1b185000 	blne	61542c <__bss_end__+0x60b2c4>
    1428:	07000005 	streq	r0, [r0, -r5]
    142c:	b81a0288 	ldmdalt	sl, {r3, r7, r9}
    1430:	58000006 	stmdapl	r0, {r1, r2}
    1434:	0003d418 	andeq	sp, r3, r8, lsl r4
    1438:	02890700 	addeq	r0, r9, #0, 14
    143c:	00011516 	andeq	r1, r1, r6, lsl r5
    1440:	20186800 	andscs	r6, r8, r0, lsl #16
    1444:	07000005 	streq	r0, [r0, -r5]
    1448:	1516028a 	ldrne	r0, [r6, #-650]	; 0xfffffd76
    144c:	70000001 	andvc	r0, r0, r1
    1450:	0002dc18 	andeq	sp, r2, r8, lsl ip
    1454:	028b0700 	addeq	r0, fp, #0, 14
    1458:	00011516 	andeq	r1, r1, r6, lsl r5
    145c:	d0187800 	andsle	r7, r8, r0, lsl #16
    1460:	07000004 	streq	r0, [r0, -r4]
    1464:	2610028c 	ldrcs	r0, [r0], -ip, lsl #5
    1468:	80000008 	andhi	r0, r0, r8
    146c:	00023e18 	andeq	r3, r2, r8, lsl lr
    1470:	028d0700 	addeq	r0, sp, #0, 14
    1474:	00083610 	andeq	r3, r8, r0, lsl r6
    1478:	7a188800 	bvc	623480 <__bss_end__+0x619318>
    147c:	07000004 	streq	r0, [r0, -r4]
    1480:	250f028e 	strcs	r0, [pc, #-654]	; 11fa <_start-0x6e06>
    1484:	a0000000 	andge	r0, r0, r0
    1488:	00017e18 	andeq	r7, r1, r8, lsl lr
    148c:	028f0700 	addeq	r0, pc, #0, 14
    1490:	00011516 	andeq	r1, r1, r6, lsl r5
    1494:	8f18a400 	svchi	0x0018a400
    1498:	07000000 	streq	r0, [r0, -r0]
    149c:	15160290 	ldrne	r0, [r6, #-656]	; 0xfffffd70
    14a0:	ac000001 	stcge	0, cr0, [r0], {1}
    14a4:	00016d18 	andeq	r6, r1, r8, lsl sp
    14a8:	02910700 	addseq	r0, r1, #0, 14
    14ac:	00011516 	andeq	r1, r1, r6, lsl r5
    14b0:	3c18b400 	cfldrscc	mvf11, [r8], {-0}
    14b4:	07000000 	streq	r0, [r0, -r0]
    14b8:	15160292 	ldrne	r0, [r6, #-658]	; 0xfffffd6e
    14bc:	bc000001 	stclt	0, cr0, [r0], {1}
    14c0:	00004b18 	andeq	r4, r0, r8, lsl fp
    14c4:	02930700 	addseq	r0, r3, #0, 14
    14c8:	00011516 	andeq	r1, r1, r6, lsl r5
    14cc:	7c18c400 	cfldrsvc	mvf12, [r8], {-0}
    14d0:	07000003 	streq	r0, [r0, -r3]
    14d4:	25080294 	strcs	r0, [r8, #-660]	; 0xfffffd6c
    14d8:	cc000000 	stcgt	0, cr0, [r0], {-0}
    14dc:	01350a00 	teqeq	r5, r0, lsl #20
    14e0:	08260000 	stmdaeq	r6!, {}	; <UNPREDICTABLE>
    14e4:	2c0b0000 	stccs	0, cr0, [fp], {-0}
    14e8:	19000000 	stmdbne	r0, {}	; <UNPREDICTABLE>
    14ec:	01350a00 	teqeq	r5, r0, lsl #20
    14f0:	08360000 	ldmdaeq	r6!, {}	; <UNPREDICTABLE>
    14f4:	2c0b0000 	stccs	0, cr0, [fp], {-0}
    14f8:	07000000 	streq	r0, [r0, -r0]
    14fc:	01350a00 	teqeq	r5, r0, lsl #20
    1500:	08460000 	stmdaeq	r6, {}^	; <UNPREDICTABLE>
    1504:	2c0b0000 	stccs	0, cr0, [fp], {-0}
    1508:	17000000 	strne	r0, [r0, -r0]
    150c:	07f01b00 	ldrbeq	r1, [r0, r0, lsl #22]!
    1510:	6d070299 	sfmvs	f0, 4, [r7, #-612]	; 0xfffffd9c
    1514:	18000008 	stmdane	r0, {r3}
    1518:	000002a8 	andeq	r0, r0, r8, lsr #5
    151c:	1b029c07 	blne	a8540 <__bss_end__+0x9e3d8>
    1520:	0000086d 	andeq	r0, r0, sp, ror #16
    1524:	04c71800 	strbeq	r1, [r7], #2048	; 0x800
    1528:	9d070000 	stcls	0, cr0, [r7, #-0]
    152c:	087d1802 	ldmdaeq	sp!, {r1, fp, ip}^
    1530:	00780000 	rsbseq	r0, r8, r0
    1534:	00031d0a 	andeq	r1, r3, sl, lsl #26
    1538:	00087d00 	andeq	r7, r8, r0, lsl #26
    153c:	002c0b00 	eoreq	r0, ip, r0, lsl #22
    1540:	001d0000 	andseq	r0, sp, r0
    1544:	00002c0a 	andeq	r2, r0, sl, lsl #24
    1548:	00088d00 	andeq	r8, r8, r0, lsl #26
    154c:	002c0b00 	eoreq	r0, ip, r0, lsl #22
    1550:	001d0000 	andseq	r0, sp, r0
    1554:	7e07f01c 	mcrvc	0, 0, pc, cr7, cr12, {0}	; <UNPREDICTABLE>
    1558:	08b20302 	ldmeq	r2!, {r1, r8, r9}
    155c:	161d0000 	ldrne	r0, [sp], -r0
    1560:	07000004 	streq	r0, [r0, -r4]
    1564:	010b0295 			; <UNDEFINED> instruction: 0x010b0295
    1568:	1d000007 	stcne	0, cr0, [r0, #-28]	; 0xffffffe4
    156c:	000004f2 	strdeq	r0, [r0], -r2
    1570:	0b029e07 	bleq	a8d94 <__bss_end__+0x9ec2c>
    1574:	00000846 	andeq	r0, r0, r6, asr #16
    1578:	01350a00 	teqeq	r5, r0, lsl #20
    157c:	08c20000 	stmiaeq	r2, {}^	; <UNPREDICTABLE>
    1580:	2c0b0000 	stccs	0, cr0, [fp], {-0}
    1584:	18000000 	stmdane	r0, {}	; <UNPREDICTABLE>
    1588:	00840600 	addeq	r0, r4, r0, lsl #12
    158c:	04050000 	streq	r0, [r5], #-0
    1590:	000008c2 	andeq	r0, r0, r2, asr #17
    1594:	0008d81e 	andeq	sp, r8, lr, lsl r8
    1598:	04841600 	streq	r1, [r4], #1536	; 0x600
    159c:	05000000 	streq	r0, [r0, #-0]
    15a0:	0008cd04 	andeq	ip, r8, r4, lsl #26
    15a4:	a7040500 	strge	r0, [r4, -r0, lsl #10]
    15a8:	1e000001 	cdpne	0, 0, cr0, cr0, cr1, {0}
    15ac:	000008ef 	andeq	r0, r0, pc, ror #17
    15b0:	00002516 	andeq	r2, r0, r6, lsl r5
    15b4:	04050000 	streq	r0, [r5], #-0
    15b8:	000008f5 	strdeq	r0, [r0], -r5
    15bc:	08e40405 	stmiaeq	r4!, {r0, r2, sl}^
    15c0:	660a0000 	strvs	r0, [sl], -r0
    15c4:	0b000006 	bleq	15e4 <_start-0x6a1c>
    15c8:	0b000009 	bleq	15f4 <_start-0x6a0c>
    15cc:	0000002c 	andeq	r0, r0, ip, lsr #32
    15d0:	8e1f0002 	cdphi	0, 1, cr0, cr15, cr2, {0}
    15d4:	07000004 	streq	r0, [r0, -r4]
    15d8:	8417032e 	ldrhi	r0, [r7], #-814	; 0xfffffcd2
    15dc:	1f000004 	svcne	0x00000004
    15e0:	00000487 	andeq	r0, r0, r7, lsl #9
    15e4:	1d032f07 	stcne	15, cr2, [r3, #-28]	; 0xffffffe4
    15e8:	0000048a 	andeq	r0, r0, sl, lsl #9
    15ec:	00002515 	andeq	r2, r0, r5, lsl r5
    15f0:	00093400 	andeq	r3, r9, r0, lsl #8
    15f4:	00251600 	eoreq	r1, r5, r0, lsl #12
    15f8:	20000000 	andcs	r0, r0, r0
    15fc:	000001d1 	ldrdeq	r0, [r0], -r1
    1600:	400e1d08 	andmi	r1, lr, r8, lsl #26
    1604:	05000009 	streq	r0, [r0, #-9]
    1608:	00092504 	andeq	r2, r9, r4, lsl #10
    160c:	00251500 	eoreq	r1, r5, r0, lsl #10
    1610:	09550000 	ldmdbeq	r5, {}^	; <UNPREDICTABLE>
    1614:	fc160000 	ldc2	0, cr0, [r6], {-0}
    1618:	00000005 	andeq	r0, r0, r5
    161c:	00077320 	andeq	r7, r7, r0, lsr #6
    1620:	0e220800 	cdpeq	8, 2, cr0, cr2, cr0, {0}
    1624:	00000961 	andeq	r0, r0, r1, ror #18
    1628:	09460405 	stmdbeq	r6, {r0, r2, sl}^
    162c:	07210000 	streq	r0, [r1, -r0]!
    1630:	00005b01 	andeq	r5, r0, r1, lsl #22
    1634:	0e240200 	cdpeq	2, 2, cr0, cr4, cr0, {0}
    1638:	00000982 	andeq	r0, r0, r2, lsl #19
    163c:	00057422 	andeq	r7, r5, r2, lsr #8
    1640:	6e220b00 	vmulvs.f64	d0, d2, d0
    1644:	0c000005 	stceq	0, cr0, [r0], {5}
    1648:	020c0c00 	andeq	r0, ip, #0, 24
    164c:	09b30926 	ldmibeq	r3!, {r1, r2, r5, r8, fp}
    1650:	090d0000 	stmdbeq	sp, {}	; <UNPREDICTABLE>
    1654:	02000002 	andeq	r0, r0, #2
    1658:	05fc1127 	ldrbeq	r1, [ip, #295]!	; 0x127
    165c:	0d000000 	stceq	0, cr0, [r0, #-0]
    1660:	000004df 	ldrdeq	r0, [r0], -pc	; <UNPREDICTABLE>
    1664:	fc112802 	ldc2	8, cr2, [r1], {2}
    1668:	04000005 	streq	r0, [r0], #-5
    166c:	0005450d 	andeq	r4, r5, sp, lsl #10
    1670:	0e290200 	cdpeq	2, 2, cr0, cr9, cr0, {0}
    1674:	0000002c 	andeq	r0, r0, ip, lsr #32
    1678:	3e040008 	cdpcc	0, 0, cr0, cr4, cr8, {0}
    167c:	02000006 	andeq	r0, r0, #6
    1680:	0982032a 	stmibeq	r2, {r1, r3, r5, r8, r9}
    1684:	b9100000 	ldmdblt	r0, {}	; <UNPREDICTABLE>
    1688:	38000006 	stmdacc	r0, {r1, r2}
    168c:	4f102d02 	svcmi	0x00102d02
    1690:	0d00000a 	stceq	0, cr0, [r0, #-40]	; 0xffffffd8
    1694:	000005fa 	strdeq	r0, [r0], -sl
    1698:	690e2e02 	stmdbvs	lr, {r1, r9, sl, fp, sp}
    169c:	00000000 	andeq	r0, r0, r0
    16a0:	00069f0d 	andeq	r9, r6, sp, lsl #30
    16a4:	0e2f0200 	cdpeq	2, 2, cr0, cr15, cr0, {0}
    16a8:	00000069 	andeq	r0, r0, r9, rrx
    16ac:	02e40d04 	rsceq	r0, r4, #4, 26	; 0x100
    16b0:	30020000 	andcc	r0, r2, r0
    16b4:	0000690e 	andeq	r6, r0, lr, lsl #18
    16b8:	f40d0800 	vst2.8	{d0-d1}, [sp], r0
    16bc:	02000005 	andeq	r0, r0, #5
    16c0:	00690e34 	rsbeq	r0, r9, r4, lsr lr
    16c4:	0d0c0000 	stceq	0, cr0, [ip, #-0]
    16c8:	000005e6 	andeq	r0, r0, r6, ror #11
    16cc:	b30f3602 	movwlt	r3, #62978	; 0xf602
    16d0:	10000009 	andne	r0, r0, r9
    16d4:	00055b0d 	andeq	r5, r5, sp, lsl #22
    16d8:	0f370200 	svceq	0x00370200
    16dc:	000009b3 			; <UNDEFINED> instruction: 0x000009b3
    16e0:	05880d1c 	streq	r0, [r8, #3356]	; 0xd1c
    16e4:	3b020000 	blcc	816ec <__bss_end__+0x77584>
    16e8:	0000690e 	andeq	r6, r0, lr, lsl #18
    16ec:	7c0d2800 	stcvc	8, cr2, [sp], {-0}
    16f0:	02000005 	andeq	r0, r0, #5
    16f4:	00690e3c 	rsbeq	r0, r9, ip, lsr lr
    16f8:	0d2c0000 	stceq	0, cr0, [ip, #-0]
    16fc:	0000054c 	andeq	r0, r0, ip, asr #10
    1700:	4f153f02 	svcmi	0x00153f02
    1704:	3000000a 	andcc	r0, r0, sl
    1708:	00053d0d 	andeq	r3, r5, sp, lsl #26
    170c:	0e410200 	cdpeq	2, 4, cr0, cr1, cr0, {0}
    1710:	00000069 	andeq	r0, r0, r9, rrx
    1714:	04050034 	streq	r0, [r5], #-52	; 0xffffffcc
    1718:	000009bf 			; <UNDEFINED> instruction: 0x000009bf
    171c:	00069904 	andeq	r9, r6, r4, lsl #18
    1720:	03420200 	movteq	r0, #8704	; 0x2200
    1724:	000009bf 			; <UNDEFINED> instruction: 0x000009bf
    1728:	62020721 	andvs	r0, r2, #8650752	; 0x840000
    172c:	02000000 	andeq	r0, r0, #0
    1730:	0a890662 	beq	fe2430c0 <__bss_end__+0xfe238f58>
    1734:	68220000 	stmdavs	r2!, {}	; <UNPREDICTABLE>
    1738:	fe000006 	cdp2	0, 0, cr0, cr0, cr6, {0}
    173c:	0005ab22 	andeq	sl, r5, r2, lsr #22
    1740:	b3228000 			; <UNDEFINED> instruction: 0xb3228000
    1744:	b8000005 	stmdalt	r0, {r0, r2}
    1748:	00059b23 	andeq	r9, r5, r3, lsr #22
    174c:	00013800 	andeq	r3, r1, r0, lsl #16
    1750:	00066324 	andeq	r6, r6, r4, lsr #6
    1754:	11070100 	mrsne	r0, (UNDEF: 23)
    1758:	00000a9b 	muleq	r0, fp, sl
    175c:	9d600305 	stclls	3, cr0, [r0, #-20]!	; 0xffffffec
    1760:	04050000 	streq	r0, [r5], #-0
    1764:	0000004f 	andeq	r0, r0, pc, asr #32
    1768:	000c4e24 	andeq	r4, ip, r4, lsr #28
    176c:	1c070100 	stfnes	f0, [r7], {-0}
    1770:	00000a9b 	muleq	r0, fp, sl
    1774:	9d640305 	stclls	3, cr0, [r4, #-20]!	; 0xffffffec
    1778:	35240000 	strcc	r0, [r4, #-0]!
    177c:	0100000c 	tsteq	r0, ip
    1780:	0a9b2707 	beq	fe6cb3a4 <__bss_end__+0xfe6c123c>
    1784:	03050000 	movweq	r0, #20480	; 0x5000
    1788:	00009d5c 	andeq	r9, r0, ip, asr sp
    178c:	00000c25 	andeq	r0, r0, r5, lsr #24
    1790:	05aa0100 	streq	r0, [sl, #256]!	; 0x100
    1794:	00000025 	andeq	r0, r0, r5, lsr #32
    1798:	000088c0 	andeq	r8, r0, r0, asr #17
    179c:	00000150 	andeq	r0, r0, r0, asr r1
    17a0:	0c9a9c01 	ldceq	12, cr9, [sl], {1}
    17a4:	93260000 			; <UNDEFINED> instruction: 0x93260000
    17a8:	01000005 	tsteq	r0, r5
    17ac:	002c0eab 	eoreq	r0, ip, fp, lsr #29
    17b0:	00d10000 	sbcseq	r0, r1, r0
    17b4:	00cf0000 	sbceq	r0, pc, r0
    17b8:	aa260000 	bge	9817c0 <__bss_end__+0x977658>
    17bc:	01000006 	tsteq	r0, r6
    17c0:	002c0eac 	eoreq	r0, ip, ip, lsr #29
    17c4:	00e60000 	rsceq	r0, r6, r0
    17c8:	00e40000 	rsceq	r0, r4, r0
    17cc:	51260000 			; <UNDEFINED> instruction: 0x51260000
    17d0:	01000006 	tsteq	r0, r6
    17d4:	002c0eb0 	strhteq	r0, [ip], -r0
    17d8:	00fd0000 	rscseq	r0, sp, r0
    17dc:	00f90000 	rscseq	r0, r9, r0
    17e0:	38260000 	stmdacc	r6!, {}	; <UNPREDICTABLE>
    17e4:	01000006 	tsteq	r0, r6
    17e8:	002c0eb1 	strhteq	r0, [ip], -r1
    17ec:	01200000 			; <UNDEFINED> instruction: 0x01200000
    17f0:	011c0000 	tsteq	ip, r0
    17f4:	48270000 	stmdami	r7!, {}	; <UNPREDICTABLE>
    17f8:	f5000000 			; <UNDEFINED> instruction: 0xf5000000
    17fc:	2600000b 	strcs	r0, [r0], -fp
    1800:	00000677 	andeq	r0, r0, r7, ror r6
    1804:	9a11b401 	bls	46e810 <__bss_end__+0x4646a8>
    1808:	4100000c 	tstmi	r0, ip
    180c:	3f000001 	svccc	0x00000001
    1810:	28000001 	stmdacs	r0, {r0}
    1814:	00008968 	andeq	r8, r0, r8, ror #18
    1818:	000015c9 	andeq	r1, r0, r9, asr #11
    181c:	00000b60 	andeq	r0, r0, r0, ror #22
    1820:	02500129 	subseq	r0, r0, #1073741834	; 0x4000000a
    1824:	28000074 	stmdacs	r0, {r2, r4, r5, r6}
    1828:	00008978 	andeq	r8, r0, r8, ror r9
    182c:	00001848 	andeq	r1, r0, r8, asr #16
    1830:	00000b74 	andeq	r0, r0, r4, ror fp
    1834:	02500129 	subseq	r0, r0, #1073741834	; 0x4000000a
    1838:	28000074 	stmdacs	r0, {r2, r4, r5, r6}
    183c:	00008984 	andeq	r8, r0, r4, lsl #19
    1840:	0000143b 	andeq	r1, r0, fp, lsr r4
    1844:	00000b8e 	andeq	r0, r0, lr, lsl #23
    1848:	02510129 	subseq	r0, r1, #1073741834	; 0x4000000a
    184c:	01298008 			; <UNDEFINED> instruction: 0x01298008
    1850:	00740252 	rsbseq	r0, r4, r2, asr r2
    1854:	89942800 	ldmibhi	r4, {fp, sp}
    1858:	17cd0000 	strbne	r0, [sp, r0]
    185c:	0ba20000 	bleq	fe881864 <__bss_end__+0xfe8776fc>
    1860:	01290000 			; <UNDEFINED> instruction: 0x01290000
    1864:	00740250 	rsbseq	r0, r4, r0, asr r2
    1868:	89a02800 	stmibhi	r0!, {fp, sp}
    186c:	17a00000 	strne	r0, [r0, r0]!
    1870:	0bb60000 	bleq	fed81878 <__bss_end__+0xfed77710>
    1874:	01290000 			; <UNDEFINED> instruction: 0x01290000
    1878:	00740250 	rsbseq	r0, r4, r0, asr r2
    187c:	89b02800 	ldmibhi	r0!, {fp, sp}
    1880:	143b0000 	ldrtne	r0, [fp], #-0
    1884:	0bd00000 	bleq	ff40188c <__bss_end__+0xff3f7724>
    1888:	01290000 			; <UNDEFINED> instruction: 0x01290000
    188c:	00770250 	rsbseq	r0, r7, r0, asr r2
    1890:	02520129 	subseq	r0, r2, #1073741834	; 0x4000000a
    1894:	28000074 	stmdacs	r0, {r2, r4, r5, r6}
    1898:	000089cc 	andeq	r8, r0, ip, asr #19
    189c:	0000180a 	andeq	r1, r0, sl, lsl #16
    18a0:	00000be4 	andeq	r0, r0, r4, ror #23
    18a4:	02500129 	subseq	r0, r0, #1073741834	; 0x4000000a
    18a8:	2a000074 	bcs	1a80 <_start-0x6580>
    18ac:	000089d8 	ldrdeq	r8, [r0], -r8	; <UNPREDICTABLE>
    18b0:	0000127c 	andeq	r1, r0, ip, ror r2
    18b4:	02520129 	subseq	r0, r2, #1073741834	; 0x4000000a
    18b8:	00000074 	andeq	r0, r0, r4, ror r0
    18bc:	0088e428 	addeq	lr, r8, r8, lsr #8
    18c0:	00194c00 	andseq	r4, r9, r0, lsl #24
    18c4:	000c0c00 	andeq	r0, ip, r0, lsl #24
    18c8:	50012900 	andpl	r2, r1, r0, lsl #18
    18cc:	97a00305 	strls	r0, [r0, r5, lsl #6]!
    18d0:	28000000 	stmdacs	r0, {}	; <UNPREDICTABLE>
    18d4:	000088f4 	strdeq	r8, [r0], -r4
    18d8:	0000194c 	andeq	r1, r0, ip, asr #18
    18dc:	00000c2f 	andeq	r0, r0, pc, lsr #24
    18e0:	05500129 	ldrbeq	r0, [r0, #-297]	; 0xfffffed7
    18e4:	009a8403 	addseq	r8, sl, r3, lsl #8
    18e8:	51012900 	tstpl	r1, r0, lsl #18
    18ec:	29007502 	stmdbcs	r0, {r1, r8, sl, ip, sp, lr}
    18f0:	76025201 	strvc	r5, [r2], -r1, lsl #4
    18f4:	1c280000 	stcne	0, cr0, [r8], #-0
    18f8:	4c000089 	stcmi	0, cr0, [r0], {137}	; 0x89
    18fc:	46000019 			; <UNDEFINED> instruction: 0x46000019
    1900:	2900000c 	stmdbcs	r0, {r2, r3}
    1904:	03055001 	movweq	r5, #20481	; 0x5001
    1908:	000097a0 	andeq	r9, r0, r0, lsr #15
    190c:	892c2800 	stmdbhi	ip!, {fp, sp}
    1910:	194c0000 	stmdbne	ip, {}^	; <UNPREDICTABLE>
    1914:	0c690000 	stcleq	0, cr0, [r9], #-0
    1918:	01290000 			; <UNDEFINED> instruction: 0x01290000
    191c:	bc030550 	cfstr32lt	mvfx0, [r3], {80}	; 0x50
    1920:	2900009a 	stmdbcs	r0, {r1, r3, r4, r7}
    1924:	75025101 	strvc	r5, [r2, #-257]	; 0xfffffeff
    1928:	52012900 	andpl	r2, r1, #0, 18
    192c:	00007602 	andeq	r7, r0, r2, lsl #12
    1930:	0089ec28 	addeq	lr, r9, r8, lsr #24
    1934:	00194c00 	andseq	r4, r9, r0, lsl #24
    1938:	000c8000 	andeq	r8, ip, r0
    193c:	50012900 	andpl	r2, r1, r0, lsl #18
    1940:	97a00305 	strls	r0, [r0, r5, lsl #6]!
    1944:	2a000000 	bcs	194c <_start-0x66b4>
    1948:	000089f8 	strdeq	r8, [r0], -r8	; <UNPREDICTABLE>
    194c:	0000194c 	andeq	r1, r0, ip, asr #18
    1950:	05500129 	ldrbeq	r0, [r0, #-297]	; 0xfffffed7
    1954:	009ae403 	addseq	lr, sl, r3, lsl #8
    1958:	51012900 	tstpl	r1, r0, lsl #18
    195c:	00007502 	andeq	r7, r0, r2, lsl #10
    1960:	55040500 	strpl	r0, [r4, #-1280]	; 0xfffffb00
    1964:	2500000a 	strcs	r0, [r0, #-10]
    1968:	00000073 	andeq	r0, r0, r3, ror r0
    196c:	2d088301 	stccs	3, cr8, [r8, #-4]
    1970:	a4000001 	strge	r0, [r0], #-1
    1974:	1c000086 	stcne	0, cr0, [r0], {134}	; 0x86
    1978:	01000002 	tsteq	r0, r2
    197c:	000ff49c 	muleq	pc, ip, r4	; <UNPREDICTABLE>
    1980:	068a2b00 	streq	r2, [sl], r0, lsl #22
    1984:	83010000 	movwhi	r0, #4096	; 0x1000
    1988:	0000691a 	andeq	r6, r0, sl, lsl r9
    198c:	00015e00 	andeq	r5, r1, r0, lsl #28
    1990:	00015400 	andeq	r5, r1, r0, lsl #8
    1994:	02092b00 	andeq	r2, r9, #0, 22
    1998:	83010000 	movwhi	r0, #4096	; 0x1000
    199c:	0005fc2e 	andeq	pc, r5, lr, lsr #24
    19a0:	0001aa00 	andeq	sl, r1, r0, lsl #20
    19a4:	0001a000 	andeq	sl, r1, r0
    19a8:	04df2b00 	ldrbeq	r2, [pc], #2816	; 19b0 <_start-0x6650>
    19ac:	83010000 	movwhi	r0, #4096	; 0x1000
    19b0:	0005fc40 	andeq	pc, r5, r0, asr #24
    19b4:	0001f600 	andeq	pc, r1, r0, lsl #12
    19b8:	0001ec00 	andeq	lr, r1, r0, lsl #24
    19bc:	05452b00 	strbeq	r2, [r5, #-2816]	; 0xfffff500
    19c0:	83010000 	movwhi	r0, #4096	; 0x1000
    19c4:	00002c4f 	andeq	r2, r0, pc, asr #24
    19c8:	00024200 	andeq	r4, r2, r0, lsl #4
    19cc:	00023800 	andeq	r3, r2, r0, lsl #16
    19d0:	00682c00 	rsbeq	r2, r8, r0, lsl #24
    19d4:	9a0c8401 	bls	3229e0 <__bss_end__+0x318878>
    19d8:	8f00000c 	svchi	0x0000000c
    19dc:	87000002 	strhi	r0, [r0, -r2]
    19e0:	2c000002 	stccs	0, cr0, [r0], {2}
    19e4:	00727470 	rsbseq	r7, r2, r0, ror r4
    19e8:	2d0b8501 	cfstr32cs	mvfx8, [fp, #-4]
    19ec:	cd000001 	stcgt	0, cr0, [r0, #-4]
    19f0:	c5000002 	strgt	r0, [r0, #-2]
    19f4:	2d000002 	stccs	0, cr0, [r0, #-8]
    19f8:	0000020e 	andeq	r0, r0, lr, lsl #4
    19fc:	00001004 	andeq	r1, r0, r4
    1a00:	9b240305 	blls	90261c <__bss_end__+0x8f84b4>
    1a04:	742c0000 	strtvc	r0, [ip], #-0
    1a08:	0100746f 	tsteq	r0, pc, ror #8
    1a0c:	002c0e8a 	eoreq	r0, ip, sl, lsl #29
    1a10:	030f0000 	movweq	r0, #61440	; 0xf000
    1a14:	03030000 	movweq	r0, #12288	; 0x3000
    1a18:	6e2c0000 	cdpvs	0, 2, cr0, cr12, cr0, {0}
    1a1c:	0e8b0100 	rmfeqe	f0, f3, f0
    1a20:	0000002c 	andeq	r0, r0, ip, lsr #32
    1a24:	00000366 	andeq	r0, r0, r6, ror #6
    1a28:	00000362 	andeq	r0, r0, r2, ror #6
    1a2c:	0086d428 	addeq	sp, r6, r8, lsr #8
    1a30:	00194c00 	andseq	r4, r9, r0, lsl #24
    1a34:	000d7c00 	andeq	r7, sp, r0, lsl #24
    1a38:	50012900 	andpl	r2, r1, r0, lsl #18
    1a3c:	97a00305 	strls	r0, [r0, r5, lsl #6]!
    1a40:	28000000 	stmdacs	r0, {}	; <UNPREDICTABLE>
    1a44:	000086e0 	andeq	r8, r0, r0, ror #13
    1a48:	0000194c 	andeq	r1, r0, ip, asr #18
    1a4c:	00000d99 	muleq	r0, r9, sp
    1a50:	05500129 	ldrbeq	r0, [r0, #-297]	; 0xfffffed7
    1a54:	00994803 	addseq	r4, r9, r3, lsl #16
    1a58:	51012900 	tstpl	r1, r0, lsl #18
    1a5c:	00007502 	andeq	r7, r0, r2, lsl #10
    1a60:	00874428 	addeq	r4, r7, r8, lsr #8
    1a64:	00184800 	andseq	r4, r8, r0, lsl #16
    1a68:	000dad00 	andeq	sl, sp, r0, lsl #26
    1a6c:	50012900 	andpl	r2, r1, r0, lsl #18
    1a70:	00007402 	andeq	r7, r0, r2, lsl #8
    1a74:	00874c28 	addeq	r4, r7, r8, lsr #24
    1a78:	00122100 	andseq	r2, r2, r0, lsl #2
    1a7c:	000dc100 	andeq	ip, sp, r0, lsl #2
    1a80:	51012900 	tstpl	r1, r0, lsl #18
    1a84:	00800802 	addeq	r0, r0, r2, lsl #16
    1a88:	00875428 	addeq	r5, r7, r8, lsr #8
    1a8c:	0017cd00 	andseq	ip, r7, r0, lsl #26
    1a90:	000dd500 	andeq	sp, sp, r0, lsl #10
    1a94:	50012900 	andpl	r2, r1, r0, lsl #18
    1a98:	00007402 	andeq	r7, r0, r2, lsl #8
    1a9c:	00876028 	addeq	r6, r7, r8, lsr #32
    1aa0:	0017a000 	andseq	sl, r7, r0
    1aa4:	000de900 	andeq	lr, sp, r0, lsl #18
    1aa8:	50012900 	andpl	r2, r1, r0, lsl #18
    1aac:	00007402 	andeq	r7, r0, r2, lsl #8
    1ab0:	00876c28 	addeq	r6, r7, r8, lsr #24
    1ab4:	00122100 	andseq	r2, r2, r0, lsl #2
    1ab8:	000dfd00 	andeq	pc, sp, r0, lsl #26
    1abc:	50012900 	andpl	r2, r1, r0, lsl #18
    1ac0:	00007602 	andeq	r7, r0, r2, lsl #12
    1ac4:	00877428 	addeq	r7, r7, r8, lsr #8
    1ac8:	00170600 	andseq	r0, r7, r0, lsl #12
    1acc:	000e1100 	andeq	r1, lr, r0, lsl #2
    1ad0:	50012900 	andpl	r2, r1, r0, lsl #18
    1ad4:	00007402 	andeq	r7, r0, r2, lsl #8
    1ad8:	00879028 	addeq	r9, r7, r8, lsr #32
    1adc:	00117400 	andseq	r7, r1, r0, lsl #8
    1ae0:	000e2500 	andeq	r2, lr, r0, lsl #10
    1ae4:	50012900 	andpl	r2, r1, r0, lsl #18
    1ae8:	00007402 	andeq	r7, r0, r2, lsl #8
    1aec:	0087a028 	addeq	sl, r7, r8, lsr #32
    1af0:	00180a00 	andseq	r0, r8, r0, lsl #20
    1af4:	000e3900 	andeq	r3, lr, r0, lsl #18
    1af8:	50012900 	andpl	r2, r1, r0, lsl #18
    1afc:	00007402 	andeq	r7, r0, r2, lsl #8
    1b00:	0087ac28 	addeq	sl, r7, r8, lsr #24
    1b04:	00194c00 	andseq	r4, r9, r0, lsl #24
    1b08:	000e5000 	andeq	r5, lr, r0
    1b0c:	50012900 	andpl	r2, r1, r0, lsl #18
    1b10:	97a00305 	strls	r0, [r0, r5, lsl #6]!
    1b14:	28000000 	stmdacs	r0, {}	; <UNPREDICTABLE>
    1b18:	000087c0 	andeq	r8, r0, r0, asr #15
    1b1c:	0000194c 	andeq	r1, r0, ip, asr #18
    1b20:	00000e79 	andeq	r0, r0, r9, ror lr
    1b24:	05500129 	ldrbeq	r0, [r0, #-297]	; 0xfffffed7
    1b28:	009a5403 	addseq	r5, sl, r3, lsl #8
    1b2c:	51012900 	tstpl	r1, r0, lsl #18
    1b30:	29007502 	stmdbcs	r0, {r1, r8, sl, ip, sp, lr}
    1b34:	79025201 	stmdbvc	r2, {r0, r9, ip, lr}
    1b38:	53012900 	movwpl	r2, #6400	; 0x1900
    1b3c:	00007402 	andeq	r7, r0, r2, lsl #8
    1b40:	0087d02e 	addeq	sp, r7, lr, lsr #32
    1b44:	00195800 	andseq	r5, r9, r0, lsl #16
    1b48:	87e42800 	strbhi	r2, [r4, r0, lsl #16]!
    1b4c:	194c0000 	stmdbne	ip, {}^	; <UNPREDICTABLE>
    1b50:	0eb10000 	cdpeq	0, 11, cr0, cr1, cr0, {0}
    1b54:	01290000 			; <UNDEFINED> instruction: 0x01290000
    1b58:	08030550 	stmdaeq	r3, {r4, r6, r8, sl}
    1b5c:	29000099 	stmdbcs	r0, {r0, r3, r4, r7}
    1b60:	03055101 	movweq	r5, #20737	; 0x5101
    1b64:	000098b8 			; <UNDEFINED> instruction: 0x000098b8
    1b68:	05520129 	ldrbeq	r0, [r2, #-297]	; 0xfffffed7
    1b6c:	009b2403 	addseq	r2, fp, r3, lsl #8
    1b70:	53012900 	movwpl	r2, #6400	; 0x1900
    1b74:	00870802 	addeq	r0, r7, r2, lsl #16
    1b78:	0087e82e 	addeq	lr, r7, lr, lsr #16
    1b7c:	00196400 	andseq	r6, r9, r0, lsl #8
    1b80:	87f02800 	ldrbhi	r2, [r0, r0, lsl #16]!
    1b84:	194c0000 	stmdbne	ip, {}^	; <UNPREDICTABLE>
    1b88:	0ed10000 	cdpeq	0, 13, cr0, cr1, cr0, {0}
    1b8c:	01290000 			; <UNDEFINED> instruction: 0x01290000
    1b90:	60030550 	andvs	r0, r3, r0, asr r5
    1b94:	00000099 	muleq	r0, r9, r0
    1b98:	0087fc28 	addeq	pc, r7, r8, lsr #24
    1b9c:	00194c00 	andseq	r4, r9, r0, lsl #24
    1ba0:	000eee00 	andeq	lr, lr, r0, lsl #28
    1ba4:	50012900 	andpl	r2, r1, r0, lsl #18
    1ba8:	996c0305 	stmdbls	ip!, {r0, r2, r8, r9}^
    1bac:	01290000 			; <UNDEFINED> instruction: 0x01290000
    1bb0:	00750251 	rsbseq	r0, r5, r1, asr r2
    1bb4:	88002e00 	stmdahi	r0, {r9, sl, fp, sp}
    1bb8:	19580000 	ldmdbne	r8, {}^	; <UNPREDICTABLE>
    1bbc:	18280000 	stmdane	r8!, {}	; <UNPREDICTABLE>
    1bc0:	4c000088 	stcmi	0, cr0, [r0], {136}	; 0x88
    1bc4:	2d000019 	stccs	0, cr0, [r0, #-100]	; 0xffffff9c
    1bc8:	2900000f 	stmdbcs	r0, {r0, r1, r2, r3}
    1bcc:	03055001 	movweq	r5, #20481	; 0x5001
    1bd0:	00009994 	muleq	r0, r4, r9
    1bd4:	05510129 	ldrbeq	r0, [r1, #-297]	; 0xfffffed7
    1bd8:	0098b803 	addseq	fp, r8, r3, lsl #16
    1bdc:	52012900 	andpl	r2, r1, #0, 18
    1be0:	9b240305 	blls	9027fc <__bss_end__+0x8f8694>
    1be4:	01290000 			; <UNDEFINED> instruction: 0x01290000
    1be8:	8f080253 	svchi	0x00080253
    1bec:	007d0229 	rsbseq	r0, sp, r9, lsr #4
    1bf0:	00007502 	andeq	r7, r0, r2, lsl #10
    1bf4:	00881c2e 	addeq	r1, r8, lr, lsr #24
    1bf8:	00196400 	andseq	r6, r9, r0, lsl #8
    1bfc:	88242800 	stmdahi	r4!, {fp, sp}
    1c00:	194c0000 	stmdbne	ip, {}^	; <UNPREDICTABLE>
    1c04:	0f4d0000 	svceq	0x004d0000
    1c08:	01290000 			; <UNDEFINED> instruction: 0x01290000
    1c0c:	60030550 	andvs	r0, r3, r0, asr r5
    1c10:	00000099 	muleq	r0, r9, r0
    1c14:	00884028 	addeq	r4, r8, r8, lsr #32
    1c18:	00194c00 	andseq	r4, r9, r0, lsl #24
    1c1c:	000f6a00 	andeq	r6, pc, r0, lsl #20
    1c20:	50012900 	andpl	r2, r1, r0, lsl #18
    1c24:	99cc0305 	stmibls	ip, {r0, r2, r8, r9}^
    1c28:	01290000 			; <UNDEFINED> instruction: 0x01290000
    1c2c:	00790252 	rsbseq	r0, r9, r2, asr r2
    1c30:	88442e00 	stmdahi	r4, {r9, sl, fp, sp}^
    1c34:	19580000 	ldmdbne	r8, {}^	; <UNPREDICTABLE>
    1c38:	6c280000 	stcvs	0, cr0, [r8], #-0
    1c3c:	4c000088 	stcmi	0, cr0, [r0], {136}	; 0x88
    1c40:	a9000019 	stmdbge	r0, {r0, r3, r4}
    1c44:	2900000f 	stmdbcs	r0, {r0, r1, r2, r3}
    1c48:	03055001 	movweq	r5, #20481	; 0x5001
    1c4c:	000099f8 	strdeq	r9, [r0], -r8
    1c50:	05510129 	ldrbeq	r0, [r1, #-297]	; 0xfffffed7
    1c54:	0098b803 	addseq	fp, r8, r3, lsl #16
    1c58:	52012900 	andpl	r2, r1, #0, 18
    1c5c:	9b240305 	blls	902878 <__bss_end__+0x8f8710>
    1c60:	01290000 			; <UNDEFINED> instruction: 0x01290000
    1c64:	92080253 	andls	r0, r8, #805306373	; 0x30000005
    1c68:	047d0229 	ldrbteq	r0, [sp], #-553	; 0xfffffdd7
    1c6c:	00007902 	andeq	r7, r0, r2, lsl #18
    1c70:	0088702e 	addeq	r7, r8, lr, lsr #32
    1c74:	00196400 	andseq	r6, r9, r0, lsl #8
    1c78:	88742e00 	ldmdahi	r4!, {r9, sl, fp, sp}^
    1c7c:	19580000 	ldmdbne	r8, {}^	; <UNPREDICTABLE>
    1c80:	88280000 	stmdahi	r8!, {}	; <UNPREDICTABLE>
    1c84:	4c000088 	stcmi	0, cr0, [r0], {136}	; 0x88
    1c88:	ea000019 	b	1cf4 <_start-0x630c>
    1c8c:	2900000f 	stmdbcs	r0, {r0, r1, r2, r3}
    1c90:	03055001 	movweq	r5, #20481	; 0x5001
    1c94:	00009a34 	andeq	r9, r0, r4, lsr sl
    1c98:	05510129 	ldrbeq	r0, [r1, #-297]	; 0xfffffed7
    1c9c:	0098b803 	addseq	fp, r8, r3, lsl #16
    1ca0:	52012900 	andpl	r2, r1, #0, 18
    1ca4:	9b240305 	blls	9028c0 <__bss_end__+0x8f8758>
    1ca8:	01290000 			; <UNDEFINED> instruction: 0x01290000
    1cac:	a1080253 	tstge	r8, r3, asr r2
    1cb0:	888c2e00 	stmhi	ip, {r9, sl, fp, sp}
    1cb4:	19640000 	stmdbne	r4!, {}^	; <UNPREDICTABLE>
    1cb8:	0a000000 	beq	1cc0 <_start-0x6340>
    1cbc:	0000013c 	andeq	r0, r0, ip, lsr r1
    1cc0:	00001004 	andeq	r1, r0, r4
    1cc4:	00002c0b 	andeq	r2, r0, fp, lsl #24
    1cc8:	0f000700 	svceq	0x00000700
    1ccc:	00000ff4 	strdeq	r0, [r0], -r4
    1cd0:	0002742f 	andeq	r7, r2, pc, lsr #8
    1cd4:	07710100 	ldrbeq	r0, [r1, -r0, lsl #2]!
    1cd8:	000085ec 	andeq	r8, r0, ip, ror #11
    1cdc:	000000b8 	strheq	r0, [r0], -r8
    1ce0:	115f9c01 	cmpne	pc, r1, lsl #24
    1ce4:	412b0000 			; <UNDEFINED> instruction: 0x412b0000
    1ce8:	0100000c 	tsteq	r0, ip
    1cec:	012d1571 			; <UNDEFINED> instruction: 0x012d1571
    1cf0:	03880000 	orreq	r0, r8, #0
    1cf4:	03840000 	orreq	r0, r4, #0
    1cf8:	092b0000 	stmdbeq	fp!, {}	; <UNPREDICTABLE>
    1cfc:	01000002 	tsteq	r0, r2
    1d00:	05fc2771 	ldrbeq	r2, [ip, #1905]!	; 0x771
    1d04:	03aa0000 			; <UNDEFINED> instruction: 0x03aa0000
    1d08:	03a60000 			; <UNDEFINED> instruction: 0x03a60000
    1d0c:	df2b0000 	svcle	0x002b0000
    1d10:	01000004 	tsteq	r0, r4
    1d14:	05fc3971 	ldrbeq	r3, [ip, #2417]!	; 0x971
    1d18:	03cc0000 	biceq	r0, ip, #0
    1d1c:	03c80000 	biceq	r0, r8, #0
    1d20:	452b0000 	strmi	r0, [fp, #-0]!
    1d24:	01000005 	tsteq	r0, r5
    1d28:	002c4871 	eoreq	r4, ip, r1, ror r8
    1d2c:	03ee0000 	mvneq	r0, #0
    1d30:	03ea0000 	mvneq	r0, #0
    1d34:	682c0000 	stmdavs	ip!, {}	; <UNPREDICTABLE>
    1d38:	0c720100 	ldfeqe	f0, [r2], #-0
    1d3c:	00000c9a 	muleq	r0, sl, ip
    1d40:	00000412 	andeq	r0, r0, r2, lsl r4
    1d44:	0000040c 	andeq	r0, r0, ip, lsl #8
    1d48:	00020e2d 	andeq	r0, r2, sp, lsr #28
    1d4c:	00116f00 	andseq	r6, r1, r0, lsl #30
    1d50:	1c030500 	cfstr32ne	mvfx0, [r3], {-0}
    1d54:	2800009b 	stmdacs	r0, {r0, r1, r3, r4, r7}
    1d58:	00008604 	andeq	r8, r0, r4, lsl #12
    1d5c:	00001771 	andeq	r1, r0, r1, ror r7
    1d60:	000010a4 	andeq	r1, r0, r4, lsr #1
    1d64:	02500129 	subseq	r0, r0, #1073741834	; 0x4000000a
    1d68:	28000075 	stmdacs	r0, {r0, r2, r4, r5, r6}
    1d6c:	00008620 	andeq	r8, r0, r0, lsr #12
    1d70:	0000194c 	andeq	r1, r0, ip, asr #18
    1d74:	000010bb 	strheq	r1, [r0], -fp
    1d78:	05500129 	ldrbeq	r0, [r0, #-297]	; 0xfffffed7
    1d7c:	0097a003 	addseq	sl, r7, r3
    1d80:	2c280000 	stccs	0, cr0, [r8], #-0
    1d84:	4c000086 	stcmi	0, cr0, [r0], {134}	; 0x86
    1d88:	d8000019 	stmdale	r0, {r0, r3, r4}
    1d8c:	29000010 	stmdbcs	r0, {r4}
    1d90:	03055001 	movweq	r5, #20481	; 0x5001
    1d94:	0000993c 	andeq	r9, r0, ip, lsr r9
    1d98:	02510129 	subseq	r0, r1, #1073741834	; 0x4000000a
    1d9c:	28000075 	stmdacs	r0, {r0, r2, r4, r5, r6}
    1da0:	00008634 	andeq	r8, r0, r4, lsr r6
    1da4:	00001174 	andeq	r1, r0, r4, ror r1
    1da8:	000010ec 	andeq	r1, r0, ip, ror #1
    1dac:	02500129 	subseq	r0, r0, #1073741834	; 0x4000000a
    1db0:	28000074 	stmdacs	r0, {r2, r4, r5, r6}
    1db4:	00008658 	andeq	r8, r0, r8, asr r6
    1db8:	0000180a 	andeq	r1, r0, sl, lsl #16
    1dbc:	00001100 	andeq	r1, r0, r0, lsl #2
    1dc0:	02500129 	subseq	r0, r0, #1073741834	; 0x4000000a
    1dc4:	2e000074 	mcrcs	0, 0, r0, cr0, cr4, {3}
    1dc8:	00008660 	andeq	r8, r0, r0, ror #12
    1dcc:	00001221 	andeq	r1, r0, r1, lsr #4
    1dd0:	00866828 	addeq	r6, r6, r8, lsr #16
    1dd4:	00170600 	andseq	r0, r7, r0, lsl #12
    1dd8:	00111d00 	andseq	r1, r1, r0, lsl #26
    1ddc:	50012900 	andpl	r2, r1, r0, lsl #18
    1de0:	00007402 	andeq	r7, r0, r2, lsl #8
    1de4:	0086742e 	addeq	r7, r6, lr, lsr #8
    1de8:	00195800 	andseq	r5, r9, r0, lsl #16
    1dec:	86882800 	strhi	r2, [r8], r0, lsl #16
    1df0:	194c0000 	stmdbne	ip, {}^	; <UNPREDICTABLE>
    1df4:	11550000 	cmpne	r5, r0
    1df8:	01290000 			; <UNDEFINED> instruction: 0x01290000
    1dfc:	08030550 	stmdaeq	r3, {r4, r6, r8, sl}
    1e00:	29000099 	stmdbcs	r0, {r0, r3, r4, r7}
    1e04:	03055101 	movweq	r5, #20737	; 0x5101
    1e08:	000098b8 			; <UNDEFINED> instruction: 0x000098b8
    1e0c:	05520129 	ldrbeq	r0, [r2, #-297]	; 0xfffffed7
    1e10:	009b1c03 	addseq	r1, fp, r3, lsl #24
    1e14:	53012900 	movwpl	r2, #6400	; 0x1900
    1e18:	00740802 	rsbseq	r0, r4, r2, lsl #16
    1e1c:	00868c2e 	addeq	r8, r6, lr, lsr #24
    1e20:	00196400 	andseq	r6, r9, r0, lsl #8
    1e24:	3c0a0000 	stccc	0, cr0, [sl], {-0}
    1e28:	6f000001 	svcvs	0x00000001
    1e2c:	0b000011 	bleq	1e78 <_start-0x6188>
    1e30:	0000002c 	andeq	r0, r0, ip, lsr #32
    1e34:	5f0f0006 	svcpl	0x000f0006
    1e38:	30000011 	andcc	r0, r0, r1, lsl r0
    1e3c:	00000671 	andeq	r0, r0, r1, ror r6
    1e40:	250c5901 	strcs	r5, [ip, #-2305]	; 0xfffff6ff
    1e44:	14000000 	strne	r0, [r0], #-0
    1e48:	64000085 	strvs	r0, [r0], #-133	; 0xffffff7b
    1e4c:	01000000 	mrseq	r0, (UNDEF: 0)
    1e50:	0012219c 	mulseq	r2, ip, r1
    1e54:	00683100 	rsbeq	r3, r8, r0, lsl #2
    1e58:	9a1f5901 	bls	7d8264 <__bss_end__+0x7ce0fc>
    1e5c:	3f00000c 	svccc	0x0000000c
    1e60:	3b000004 	blcc	1e78 <_start-0x6188>
    1e64:	28000004 	stmdacs	r0, {r2}
    1e68:	00008520 	andeq	r8, r0, r0, lsr #10
    1e6c:	000015c9 	andeq	r1, r0, r9, asr #11
    1e70:	000011b4 			; <UNDEFINED> instruction: 0x000011b4
    1e74:	02500129 	subseq	r0, r0, #1073741834	; 0x4000000a
    1e78:	28000074 	stmdacs	r0, {r2, r4, r5, r6}
    1e7c:	00008530 	andeq	r8, r0, r0, lsr r5
    1e80:	00001848 	andeq	r1, r0, r8, asr #16
    1e84:	000011c8 	andeq	r1, r0, r8, asr #3
    1e88:	02500129 	subseq	r0, r0, #1073741834	; 0x4000000a
    1e8c:	28000074 	stmdacs	r0, {r2, r4, r5, r6}
    1e90:	0000853c 	andeq	r8, r0, ip, lsr r5
    1e94:	0000143b 	andeq	r1, r0, fp, lsr r4
    1e98:	000011e2 	andeq	r1, r0, r2, ror #3
    1e9c:	02510129 	subseq	r0, r1, #1073741834	; 0x4000000a
    1ea0:	01298008 			; <UNDEFINED> instruction: 0x01298008
    1ea4:	00740252 	rsbseq	r0, r4, r2, asr r2
    1ea8:	854c2800 	strbhi	r2, [ip, #-2048]	; 0xfffff800
    1eac:	17cd0000 	strbne	r0, [sp, r0]
    1eb0:	11f60000 	mvnsne	r0, r0
    1eb4:	01290000 			; <UNDEFINED> instruction: 0x01290000
    1eb8:	00740250 	rsbseq	r0, r4, r0, asr r2
    1ebc:	85582800 	ldrbhi	r2, [r8, #-2048]	; 0xfffff800
    1ec0:	17a00000 	strne	r0, [r0, r0]!
    1ec4:	120a0000 	andne	r0, sl, #0
    1ec8:	01290000 			; <UNDEFINED> instruction: 0x01290000
    1ecc:	00740250 	rsbseq	r0, r4, r0, asr r2
    1ed0:	85682a00 	strbhi	r2, [r8, #-2560]!	; 0xfffff600
    1ed4:	143b0000 	ldrtne	r0, [fp], #-0
    1ed8:	01290000 			; <UNDEFINED> instruction: 0x01290000
    1edc:	00750250 	rsbseq	r0, r5, r0, asr r2
    1ee0:	02520129 	subseq	r0, r2, #1073741834	; 0x4000000a
    1ee4:	00000074 	andeq	r0, r0, r4, ror r0
    1ee8:	0005c032 	andeq	ip, r5, r2, lsr r0
    1eec:	0d4f0100 	stfeqe	f0, [pc, #-0]	; 1ef4 <_start-0x610c>
    1ef0:	000082f8 	strdeq	r8, [r0], -r8	; <UNPREDICTABLE>
    1ef4:	00000014 	andeq	r0, r0, r4, lsl r0
    1ef8:	127c9c01 	rsbsne	r9, ip, #256	; 0x100
    1efc:	70310000 	eorsvc	r0, r1, r0
    1f00:	1c4f0100 	stfnee	f0, [pc], {-0}
    1f04:	0000012d 	andeq	r0, r0, sp, lsr #2
    1f08:	00000461 	andeq	r0, r0, r1, ror #8
    1f0c:	0000045d 	andeq	r0, r0, sp, asr r4
    1f10:	00068a2b 	andeq	r8, r6, fp, lsr #20
    1f14:	284f0100 	stmdacs	pc, {r8}^	; <UNPREDICTABLE>
    1f18:	0000002c 	andeq	r0, r0, ip, lsr #32
    1f1c:	00000488 	andeq	r0, r0, r8, lsl #9
    1f20:	00000482 	andeq	r0, r0, r2, lsl #9
    1f24:	0083082a 	addeq	r0, r3, sl, lsr #16
    1f28:	00197000 	andseq	r7, r9, r0
    1f2c:	50012900 	andpl	r2, r1, r0, lsl #18
    1f30:	5001f303 	andpl	pc, r1, r3, lsl #6
    1f34:	02510129 	subseq	r0, r1, #1073741834	; 0x4000000a
    1f38:	0129fe08 	msreq	R9_fiq, r8
    1f3c:	01f30352 	mvnseq	r0, r2, asr r3
    1f40:	30000051 	andcc	r0, r0, r1, asr r0
    1f44:	00000613 	andeq	r0, r0, r3, lsl r6
    1f48:	250c4101 	strcs	r4, [ip, #-257]	; 0xfffffeff
    1f4c:	ec000000 	stc	0, cr0, [r0], {-0}
    1f50:	0c000081 	stceq	0, cr0, [r0], {129}	; 0x81
    1f54:	01000001 	tsteq	r0, r1
    1f58:	00143b9c 	mulseq	r4, ip, fp
    1f5c:	00703100 	rsbseq	r3, r0, r0, lsl #2
    1f60:	2f244101 	svccs	0x00244101
    1f64:	bc000001 	stclt	0, cr0, [r0], {1}
    1f68:	b4000004 	strlt	r0, [r0], #-4
    1f6c:	2b000004 	blcs	1f84 <_start-0x607c>
    1f70:	0000068a 	andeq	r0, r0, sl, lsl #13
    1f74:	2c304101 	ldfcss	f4, [r0], #-4
    1f78:	f6000000 			; <UNDEFINED> instruction: 0xf6000000
    1f7c:	f0000004 			; <UNDEFINED> instruction: 0xf0000004
    1f80:	31000004 	tstcc	r0, r4
    1f84:	41010068 	tstmi	r1, r8, rrx
    1f88:	000c9a3f 	andeq	r9, ip, pc, lsr sl
    1f8c:	00052800 	andeq	r2, r5, r0, lsl #16
    1f90:	00052200 	andeq	r2, r5, r0, lsl #4
    1f94:	00692c00 	rsbeq	r2, r9, r0, lsl #24
    1f98:	25094201 	strcs	r4, [r9, #-513]	; 0xfffffdff
    1f9c:	57000000 	strpl	r0, [r0, -r0]
    1fa0:	51000005 	tstpl	r0, r5
    1fa4:	33000005 	movwcc	r0, #5
    1fa8:	00008214 	andeq	r8, r0, r4, lsl r2
    1fac:	000000c0 	andeq	r0, r0, r0, asr #1
    1fb0:	0005e126 	andeq	lr, r5, r6, lsr #2
    1fb4:	11450100 	mrsne	r0, (UNDEF: 85)
    1fb8:	00000025 	andeq	r0, r0, r5, lsr #32
    1fbc:	00000583 	andeq	r0, r0, r3, lsl #11
    1fc0:	00000581 	andeq	r0, r0, r1, lsl #11
    1fc4:	00192434 	andseq	r2, r9, r4, lsr r4
    1fc8:	00824800 	addeq	r4, r2, r0, lsl #16
    1fcc:	00000100 	andeq	r0, r0, r0, lsl #2
    1fd0:	46010000 	strmi	r0, [r1], -r0
    1fd4:	0013b00d 	andseq	fp, r3, sp
    1fd8:	19313500 	ldmdbne	r1!, {r8, sl, ip, sp}
    1fdc:	059a0000 	ldreq	r0, [sl]
    1fe0:	05960000 	ldreq	r0, [r6]
    1fe4:	00360000 	eorseq	r0, r6, r0
    1fe8:	37000000 	strcc	r0, [r0, -r0]
    1fec:	0000193b 	andeq	r1, r0, fp, lsr r9
    1ff0:	000005bc 			; <UNDEFINED> instruction: 0x000005bc
    1ff4:	000005b8 			; <UNDEFINED> instruction: 0x000005b8
    1ff8:	00825028 	addeq	r5, r2, r8, lsr #32
    1ffc:	00194c00 	andseq	r4, r9, r0, lsl #24
    2000:	00134500 	andseq	r4, r3, r0, lsl #10
    2004:	50012900 	andpl	r2, r1, r0, lsl #18
    2008:	00007702 	andeq	r7, r0, r2, lsl #14
    200c:	00825c28 	addeq	r5, r2, r8, lsr #24
    2010:	00194c00 	andseq	r4, r9, r0, lsl #24
    2014:	00135c00 	andseq	r5, r3, r0, lsl #24
    2018:	50012900 	andpl	r2, r1, r0, lsl #18
    201c:	98540305 	ldmdals	r4, {r0, r2, r8, r9}^
    2020:	28000000 	stmdacs	r0, {}	; <UNPREDICTABLE>
    2024:	00008270 	andeq	r8, r0, r0, ror r2
    2028:	0000194c 	andeq	r1, r0, ip, asr #18
    202c:	00001370 	andeq	r1, r0, r0, ror r3
    2030:	02500129 	subseq	r0, r0, #1073741834	; 0x4000000a
    2034:	28000077 	stmdacs	r0, {r0, r1, r2, r4, r5, r6}
    2038:	00008284 	andeq	r8, r0, r4, lsl #5
    203c:	0000194c 	andeq	r1, r0, ip, asr #18
    2040:	00001387 	andeq	r1, r0, r7, lsl #7
    2044:	05500129 	ldrbeq	r0, [r0, #-297]	; 0xfffffed7
    2048:	00986003 	addseq	r6, r8, r3
    204c:	bc280000 	stclt	0, cr0, [r8], #-0
    2050:	4c000082 	stcmi	0, cr0, [r0], {130}	; 0x82
    2054:	9b000019 	blls	20c0 <_start-0x5f40>
    2058:	29000013 	stmdbcs	r0, {r0, r1, r4}
    205c:	77025001 	strvc	r5, [r2, -r1]
    2060:	d02a0000 	eorle	r0, sl, r0
    2064:	4c000082 	stcmi	0, cr0, [r0], {130}	; 0x82
    2068:	29000019 	stmdbcs	r0, {r0, r3, r4}
    206c:	03055001 	movweq	r5, #20481	; 0x5001
    2070:	00009880 	andeq	r9, r0, r0, lsl #17
    2074:	28000000 	stmdacs	r0, {}	; <UNPREDICTABLE>
    2078:	0000821c 	andeq	r8, r0, ip, lsl r2
    207c:	0000180a 	andeq	r1, r0, sl, lsl #16
    2080:	000013c4 	andeq	r1, r0, r4, asr #7
    2084:	02500129 	subseq	r0, r0, #1073741834	; 0x4000000a
    2088:	28000076 	stmdacs	r0, {r1, r2, r4, r5, r6}
    208c:	00008230 	andeq	r8, r0, r0, lsr r2
    2090:	0000194c 	andeq	r1, r0, ip, asr #18
    2094:	000013d8 	ldrdeq	r1, [r0], -r8
    2098:	02500129 	subseq	r0, r0, #1073741834	; 0x4000000a
    209c:	28000077 	stmdacs	r0, {r0, r1, r2, r4, r5, r6}
    20a0:	00008238 	andeq	r8, r0, r8, lsr r2
    20a4:	0000194c 	andeq	r1, r0, ip, asr #18
    20a8:	000013ef 	andeq	r1, r0, pc, ror #7
    20ac:	05500129 	ldrbeq	r0, [r0, #-297]	; 0xfffffed7
    20b0:	00982803 	addseq	r2, r8, r3, lsl #16
    20b4:	48280000 	stmdami	r8!, {}	; <UNPREDICTABLE>
    20b8:	4c000082 	stcmi	0, cr0, [r0], {130}	; 0x82
    20bc:	12000019 	andne	r0, r0, #25
    20c0:	29000014 	stmdbcs	r0, {r2, r4}
    20c4:	03055001 	movweq	r5, #20481	; 0x5001
    20c8:	00009830 	andeq	r9, r0, r0, lsr r8
    20cc:	02510129 	subseq	r0, r1, #1073741834	; 0x4000000a
    20d0:	01290075 			; <UNDEFINED> instruction: 0x01290075
    20d4:	00740252 	rsbseq	r0, r4, r2, asr r2
    20d8:	82982800 	addshi	r2, r8, #0, 16
    20dc:	194c0000 	stmdbne	ip, {}^	; <UNPREDICTABLE>
    20e0:	14260000 	strtne	r0, [r6], #-0
    20e4:	01290000 			; <UNDEFINED> instruction: 0x01290000
    20e8:	00770250 	rsbseq	r0, r7, r0, asr r2
    20ec:	82a02a00 	adchi	r2, r0, #0, 20
    20f0:	194c0000 	stmdbne	ip, {}^	; <UNPREDICTABLE>
    20f4:	01290000 			; <UNDEFINED> instruction: 0x01290000
    20f8:	9c030550 	cfstr32ls	mvfx0, [r3], {80}	; 0x50
    20fc:	00000098 	muleq	r0, r8, r0
    2100:	af300000 	svcge	0x00300000
    2104:	01000006 	tsteq	r0, r6
    2108:	00250c34 	eoreq	r0, r5, r4, lsr ip
    210c:	84180000 	ldrhi	r0, [r8], #-0
    2110:	00fc0000 	rscseq	r0, ip, r0
    2114:	9c010000 	stcls	0, cr0, [r1], {-0}
    2118:	000015c9 	andeq	r1, r0, r9, asr #11
    211c:	01007031 	tsteq	r0, r1, lsr r0
    2120:	012f1c34 			; <UNDEFINED> instruction: 0x012f1c34
    2124:	05e60000 	strbeq	r0, [r6, #0]!
    2128:	05de0000 	ldrbeq	r0, [lr]
    212c:	8a2b0000 	bhi	ac2134 <__bss_end__+0xab7fcc>
    2130:	01000006 	tsteq	r0, r6
    2134:	002c2834 	eoreq	r2, ip, r4, lsr r8
    2138:	06200000 	strteq	r0, [r0], -r0
    213c:	061a0000 	ldreq	r0, [sl], -r0
    2140:	68310000 	ldmdavs	r1!, {}	; <UNPREDICTABLE>
    2144:	37340100 	ldrcc	r0, [r4, -r0, lsl #2]!
    2148:	00000c9a 	muleq	r0, sl, ip
    214c:	00000652 	andeq	r0, r0, r2, asr r6
    2150:	0000064c 	andeq	r0, r0, ip, asr #12
    2154:	0100692c 	tsteq	r0, ip, lsr #18
    2158:	00250935 	eoreq	r0, r5, r5, lsr r9
    215c:	06810000 	streq	r0, [r1], r0
    2160:	067b0000 	ldrbteq	r0, [fp], -r0
    2164:	40330000 	eorsmi	r0, r3, r0
    2168:	b4000084 	strlt	r0, [r0], #-132	; 0xffffff7c
    216c:	26000000 	strcs	r0, [r0], -r0
    2170:	000005e1 	andeq	r0, r0, r1, ror #11
    2174:	25113801 	ldrcs	r3, [r1, #-2049]	; 0xfffff7ff
    2178:	ad000000 	stcge	0, cr0, [r0, #-0]
    217c:	ab000006 	blge	219c <_start-0x5e64>
    2180:	34000006 	strcc	r0, [r0], #-6
    2184:	00001924 	andeq	r1, r0, r4, lsr #18
    2188:	00008478 	andeq	r8, r0, r8, ror r4
    218c:	00003001 	andeq	r3, r0, r1
    2190:	0d390100 	ldfeqs	f0, [r9, #-0]
    2194:	0000156f 	andeq	r1, r0, pc, ror #10
    2198:	00193135 	andseq	r3, r9, r5, lsr r1
    219c:	0006c200 	andeq	ip, r6, r0, lsl #4
    21a0:	0006c000 	andeq	ip, r6, r0
    21a4:	00303600 	eorseq	r3, r0, r0, lsl #12
    21a8:	3b370000 	blcc	dc21b0 <__bss_end__+0xdb8048>
    21ac:	d9000019 	stmdble	r0, {r0, r3, r4}
    21b0:	d5000006 	strle	r0, [r0, #-6]
    21b4:	28000006 	stmdacs	r0, {r1, r2}
    21b8:	00008480 	andeq	r8, r0, r0, lsl #9
    21bc:	0000194c 	andeq	r1, r0, ip, asr #18
    21c0:	00001504 	andeq	r1, r0, r4, lsl #10
    21c4:	02500129 	subseq	r0, r0, #1073741834	; 0x4000000a
    21c8:	28000077 	stmdacs	r0, {r0, r1, r2, r4, r5, r6}
    21cc:	0000848c 	andeq	r8, r0, ip, lsl #9
    21d0:	0000194c 	andeq	r1, r0, ip, asr #18
    21d4:	0000151b 	andeq	r1, r0, fp, lsl r5
    21d8:	05500129 	ldrbeq	r0, [r0, #-297]	; 0xfffffed7
    21dc:	00985403 	addseq	r5, r8, r3, lsl #8
    21e0:	a0280000 	eorge	r0, r8, r0
    21e4:	4c000084 	stcmi	0, cr0, [r0], {132}	; 0x84
    21e8:	2f000019 	svccs	0x00000019
    21ec:	29000015 	stmdbcs	r0, {r0, r2, r4}
    21f0:	77025001 	strvc	r5, [r2, -r1]
    21f4:	b4280000 	strtlt	r0, [r8], #-0
    21f8:	4c000084 	stcmi	0, cr0, [r0], {132}	; 0x84
    21fc:	46000019 			; <UNDEFINED> instruction: 0x46000019
    2200:	29000015 	stmdbcs	r0, {r0, r2, r4}
    2204:	03055001 	movweq	r5, #20481	; 0x5001
    2208:	00009860 	andeq	r9, r0, r0, ror #16
    220c:	84dc2800 	ldrbhi	r2, [ip], #2048	; 0x800
    2210:	194c0000 	stmdbne	ip, {}^	; <UNPREDICTABLE>
    2214:	155a0000 	ldrbne	r0, [sl, #-0]
    2218:	01290000 			; <UNDEFINED> instruction: 0x01290000
    221c:	00770250 	rsbseq	r0, r7, r0, asr r2
    2220:	84f02a00 	ldrbthi	r2, [r0], #2560	; 0xa00
    2224:	194c0000 	stmdbne	ip, {}^	; <UNPREDICTABLE>
    2228:	01290000 			; <UNDEFINED> instruction: 0x01290000
    222c:	80030550 	andhi	r0, r3, r0, asr r5
    2230:	00000098 	muleq	r0, r8, r0
    2234:	48280000 	stmdami	r8!, {}	; <UNPREDICTABLE>
    2238:	0a000084 	beq	2450 <_start-0x5bb0>
    223c:	83000018 	movwhi	r0, #24
    2240:	29000015 	stmdbcs	r0, {r0, r2, r4}
    2244:	76025001 	strvc	r5, [r2], -r1
    2248:	5c280000 	stcpl	0, cr0, [r8], #-0
    224c:	4c000084 	stcmi	0, cr0, [r0], {132}	; 0x84
    2250:	97000019 	smladls	r0, r9, r0, r0
    2254:	29000015 	stmdbcs	r0, {r0, r2, r4}
    2258:	77025001 	strvc	r5, [r2, -r1]
    225c:	64280000 	strtvs	r0, [r8], #-0
    2260:	4c000084 	stcmi	0, cr0, [r0], {132}	; 0x84
    2264:	ae000019 	mcrge	0, 0, r0, cr0, cr9, {0}
    2268:	29000015 	stmdbcs	r0, {r0, r2, r4}
    226c:	03055001 	movweq	r5, #20481	; 0x5001
    2270:	00009828 	andeq	r9, r0, r8, lsr #16
    2274:	84782a00 	ldrbthi	r2, [r8], #-2560	; 0xfffff600
    2278:	194c0000 	stmdbne	ip, {}^	; <UNPREDICTABLE>
    227c:	01290000 			; <UNDEFINED> instruction: 0x01290000
    2280:	30030550 	andcc	r0, r3, r0, asr r5
    2284:	29000098 	stmdbcs	r0, {r3, r4, r7}
    2288:	74025201 	strvc	r5, [r2], #-513	; 0xfffffdff
    228c:	00000000 	andeq	r0, r0, r0
    2290:	00062430 	andeq	r2, r6, r0, lsr r4
    2294:	0c2a0100 	stfeqs	f0, [sl], #-0
    2298:	00000025 	andeq	r0, r0, r5, lsr #32
    229c:	00008330 	andeq	r8, r0, r0, lsr r3
    22a0:	000000e8 	andeq	r0, r0, r8, ror #1
    22a4:	17069c01 	strne	r9, [r6, -r1, lsl #24]
    22a8:	68310000 	ldmdavs	r1!, {}	; <UNPREDICTABLE>
    22ac:	1d2a0100 	stfnes	f0, [sl, #-0]
    22b0:	00000c9a 	muleq	r0, sl, ip
    22b4:	000006ff 	strdeq	r0, [r0], -pc	; <UNPREDICTABLE>
    22b8:	000006fb 	strdeq	r0, [r0], -fp
    22bc:	00192434 	andseq	r2, r9, r4, lsr r4
    22c0:	00837c00 	addeq	r7, r3, r0, lsl #24
    22c4:	00180100 	andseq	r0, r8, r0, lsl #2
    22c8:	2d010000 	stccs	0, cr0, [r1, #-0]
    22cc:	0016a809 	andseq	sl, r6, r9, lsl #16
    22d0:	19313500 	ldmdbne	r1!, {r8, sl, ip, sp}
    22d4:	071f0000 	ldreq	r0, [pc, -r0]
    22d8:	071d0000 	ldreq	r0, [sp, -r0]
    22dc:	18360000 	ldmdane	r6!, {}	; <UNPREDICTABLE>
    22e0:	37000000 	strcc	r0, [r0, -r0]
    22e4:	0000193b 	andeq	r1, r0, fp, lsr r9
    22e8:	00000736 	andeq	r0, r0, r6, lsr r7
    22ec:	00000732 	andeq	r0, r0, r2, lsr r7
    22f0:	00838428 	addeq	r8, r3, r8, lsr #8
    22f4:	00194c00 	andseq	r4, r9, r0, lsl #24
    22f8:	00163d00 	andseq	r3, r6, r0, lsl #26
    22fc:	50012900 	andpl	r2, r1, r0, lsl #18
    2300:	00007502 	andeq	r7, r0, r2, lsl #10
    2304:	00839028 	addeq	r9, r3, r8, lsr #32
    2308:	00194c00 	andseq	r4, r9, r0, lsl #24
    230c:	00165400 	andseq	r5, r6, r0, lsl #8
    2310:	50012900 	andpl	r2, r1, r0, lsl #18
    2314:	98540305 	ldmdals	r4, {r0, r2, r8, r9}^
    2318:	28000000 	stmdacs	r0, {}	; <UNPREDICTABLE>
    231c:	000083a4 	andeq	r8, r0, r4, lsr #7
    2320:	0000194c 	andeq	r1, r0, ip, asr #18
    2324:	00001668 	andeq	r1, r0, r8, ror #12
    2328:	02500129 	subseq	r0, r0, #1073741834	; 0x4000000a
    232c:	28000075 	stmdacs	r0, {r0, r2, r4, r5, r6}
    2330:	000083b8 			; <UNDEFINED> instruction: 0x000083b8
    2334:	0000194c 	andeq	r1, r0, ip, asr #18
    2338:	0000167f 	andeq	r1, r0, pc, ror r6
    233c:	05500129 	ldrbeq	r0, [r0, #-297]	; 0xfffffed7
    2340:	00986003 	addseq	r6, r8, r3
    2344:	e0280000 	eor	r0, r8, r0
    2348:	4c000083 	stcmi	0, cr0, [r0], {131}	; 0x83
    234c:	93000019 	movwls	r0, #25
    2350:	29000016 	stmdbcs	r0, {r1, r2, r4}
    2354:	75025001 	strvc	r5, [r2, #-1]
    2358:	f42a0000 	vld4.8	{d0-d3}, [sl], r0
    235c:	4c000083 	stcmi	0, cr0, [r0], {131}	; 0x83
    2360:	29000019 	stmdbcs	r0, {r0, r3, r4}
    2364:	03055001 	movweq	r5, #20481	; 0x5001
    2368:	00009880 	andeq	r9, r0, r0, lsl #17
    236c:	28000000 	stmdacs	r0, {}	; <UNPREDICTABLE>
    2370:	00008350 	andeq	r8, r0, r0, asr r3
    2374:	00001706 	andeq	r1, r0, r6, lsl #14
    2378:	000016bc 			; <UNDEFINED> instruction: 0x000016bc
    237c:	02500129 	subseq	r0, r0, #1073741834	; 0x4000000a
    2380:	28000074 	stmdacs	r0, {r2, r4, r5, r6}
    2384:	00008364 	andeq	r8, r0, r4, ror #6
    2388:	0000194c 	andeq	r1, r0, ip, asr #18
    238c:	000016d0 	ldrdeq	r1, [r0], -r0
    2390:	02500129 	subseq	r0, r0, #1073741834	; 0x4000000a
    2394:	28000075 	stmdacs	r0, {r0, r2, r4, r5, r6}
    2398:	0000836c 	andeq	r8, r0, ip, ror #6
    239c:	0000194c 	andeq	r1, r0, ip, asr #18
    23a0:	000016e7 	andeq	r1, r0, r7, ror #13
    23a4:	05500129 	ldrbeq	r0, [r0, #-297]	; 0xfffffed7
    23a8:	00982803 	addseq	r2, r8, r3, lsl #16
    23ac:	7c2a0000 	stcvc	0, cr0, [sl], #-0
    23b0:	4c000083 	stcmi	0, cr0, [r0], {131}	; 0x83
    23b4:	29000019 	stmdbcs	r0, {r0, r3, r4}
    23b8:	03055001 	movweq	r5, #20481	; 0x5001
    23bc:	00009830 	andeq	r9, r0, r0, lsr r8
    23c0:	02510129 	subseq	r0, r1, #1073741834	; 0x4000000a
    23c4:	01290074 			; <UNDEFINED> instruction: 0x01290074
    23c8:	00300152 	eorseq	r0, r0, r2, asr r1
    23cc:	05f03000 	ldrbeq	r3, [r0, #0]!
    23d0:	21010000 	mrscs	r0, (UNDEF: 1)
    23d4:	00006911 	andeq	r6, r0, r1, lsl r9
    23d8:	00830c00 	addeq	r0, r3, r0, lsl #24
    23dc:	00002400 	andeq	r2, r0, r0, lsl #8
    23e0:	719c0100 	orrsvc	r0, ip, r0, lsl #2
    23e4:	31000017 	tstcc	r0, r7, lsl r0
    23e8:	21010068 	tstcs	r1, r8, rrx
    23ec:	000c9a22 	andeq	r9, ip, r2, lsr #20
    23f0:	00075c00 	andeq	r5, r7, r0, lsl #24
    23f4:	00075800 	andeq	r5, r7, r0, lsl #16
    23f8:	6c6f2c00 	stclvs	12, cr2, [pc], #-0	; 2400 <_start-0x5c00>
    23fc:	22010064 	andcs	r0, r1, #100	; 0x64
    2400:	00002c0e 	andeq	r2, r0, lr, lsl #24
    2404:	00077c00 	andeq	r7, r7, r0, lsl #24
    2408:	00077a00 	andeq	r7, r7, r0, lsl #20
    240c:	05f42600 	ldrbeq	r2, [r4, #1536]!	; 0x600
    2410:	24010000 	strcs	r0, [r1], #-0
    2414:	0000690e 	andeq	r6, r0, lr, lsl #18
    2418:	00079100 	andeq	r9, r7, r0, lsl #2
    241c:	00078f00 	andeq	r8, r7, r0, lsl #30
    2420:	83282a00 			; <UNDEFINED> instruction: 0x83282a00
    2424:	197c0000 	ldmdbne	ip!, {}^	; <UNPREDICTABLE>
    2428:	01290000 			; <UNDEFINED> instruction: 0x01290000
    242c:	00740250 	rsbseq	r0, r4, r0, asr r2
    2430:	02510129 	subseq	r0, r1, #1073741834	; 0x4000000a
    2434:	00003808 	andeq	r3, r0, r8, lsl #16
    2438:	0005c930 	andeq	ip, r5, r0, lsr r9
    243c:	0f1c0100 	svceq	0x001c0100
    2440:	00000c9a 	muleq	r0, sl, ip
    2444:	000081e4 	andeq	r8, r0, r4, ror #3
    2448:	00000008 	andeq	r0, r0, r8
    244c:	17a09c01 	strne	r9, [r0, r1, lsl #24]!
    2450:	412b0000 			; <UNDEFINED> instruction: 0x412b0000
    2454:	0100000c 	tsteq	r0, ip
    2458:	012d231c 			; <UNDEFINED> instruction: 0x012d231c
    245c:	07a80000 	streq	r0, [r8, r0]!
    2460:	07a40000 	streq	r0, [r4, r0]!
    2464:	30000000 	andcc	r0, r0, r0
    2468:	00000684 	andeq	r0, r0, r4, lsl #13
    246c:	2c111901 			; <UNDEFINED> instruction: 0x2c111901
    2470:	d8000000 	stmdale	r0, {}	; <UNPREDICTABLE>
    2474:	0c000081 	stceq	0, cr0, [r0], {129}	; 0x81
    2478:	01000000 	mrseq	r0, (UNDEF: 0)
    247c:	0017cd9c 	mulseq	r7, ip, sp
    2480:	00683100 	rsbeq	r3, r8, r0, lsl #2
    2484:	9a251901 	bls	948890 <__bss_end__+0x93e728>
    2488:	cd00000c 	stcgt	0, cr0, [r0, #-48]	; 0xffffffd0
    248c:	c9000007 	stmdbgt	r0, {r0, r1, r2}
    2490:	00000007 	andeq	r0, r0, r7
    2494:	00062e30 	andeq	r2, r6, r0, lsr lr
    2498:	0e170100 	mufeqs	f0, f7, f0
    249c:	0000012d 	andeq	r0, r0, sp, lsr #2
    24a0:	000081c0 	andeq	r8, r0, r0, asr #3
    24a4:	00000018 	andeq	r0, r0, r8, lsl r0
    24a8:	180a9c01 	stmdane	sl, {r0, sl, fp, ip, pc}
    24ac:	68310000 	ldmdavs	r1!, {}	; <UNPREDICTABLE>
    24b0:	1f170100 	svcne	0x00170100
    24b4:	00000c9a 	muleq	r0, sl, ip
    24b8:	000007f2 	strdeq	r0, [r0], -r2
    24bc:	000007ee 	andeq	r0, r0, lr, ror #15
    24c0:	0081cc2a 	addeq	ip, r1, sl, lsr #24
    24c4:	00180a00 	andseq	r0, r8, r0, lsl #20
    24c8:	50012900 	andpl	r2, r1, r0, lsl #18
    24cc:	00007402 	andeq	r7, r0, r2, lsl #8
    24d0:	06073000 	streq	r3, [r7], -r0
    24d4:	15010000 	strne	r0, [r1, #-0]
    24d8:	00012d0e 	andeq	r2, r1, lr, lsl #26
    24dc:	0081b000 	addeq	fp, r1, r0
    24e0:	00001000 	andeq	r1, r0, r0
    24e4:	489c0100 	ldmmi	ip, {r8}
    24e8:	31000018 	tstcc	r0, r8, lsl r0
    24ec:	15010068 	strne	r0, [r1, #-104]	; 0xffffff98
    24f0:	000c9a21 	andeq	r9, ip, r1, lsr #20
    24f4:	00081400 	andeq	r1, r8, r0, lsl #8
    24f8:	00081000 	andeq	r1, r8, r0
    24fc:	81b82a00 			; <UNDEFINED> instruction: 0x81b82a00
    2500:	18480000 	stmdane	r8, {}^	; <UNPREDICTABLE>
    2504:	01290000 			; <UNDEFINED> instruction: 0x01290000
    2508:	01f30350 	mvnseq	r0, r0, asr r3
    250c:	30000050 	andcc	r0, r0, r0, asr r0
    2510:	00000564 	andeq	r0, r0, r4, ror #10
    2514:	2d0e1301 	stccs	3, cr1, [lr, #-4]
    2518:	a8000001 	stmdage	r0, {r0}
    251c:	08000081 	stmdaeq	r0, {r0, r7}
    2520:	01000000 	mrseq	r0, (UNDEF: 0)
    2524:	0018759c 	mulseq	r8, ip, r5
    2528:	00683100 	rsbeq	r3, r8, r0, lsl #2
    252c:	9a1f1301 	bls	7c7138 <__bss_end__+0x7bcfd0>
    2530:	3900000c 	stmdbcc	r0, {r2, r3}
    2534:	35000008 	strcc	r0, [r0, #-8]
    2538:	00000008 	andeq	r0, r0, r8
    253c:	0001352f 	andeq	r3, r1, pc, lsr #10
    2540:	06090100 	streq	r0, [r9], -r0, lsl #2
    2544:	00008578 	andeq	r8, r0, r8, ror r5
    2548:	00000074 	andeq	r0, r0, r4, ror r0
    254c:	19249c01 	stmdbne	r4!, {r0, sl, fp, ip, pc}
    2550:	3a2b0000 	bcc	ac2558 <__bss_end__+0xab83f0>
    2554:	0100000c 	tsteq	r0, ip
    2558:	012d1409 			; <UNDEFINED> instruction: 0x012d1409
    255c:	08630000 	stmdaeq	r3!, {}^	; <UNPREDICTABLE>
    2560:	08590000 	ldmdaeq	r9, {}^	; <UNPREDICTABLE>
    2564:	6e310000 	cdpvs	0, 3, cr0, cr1, cr0, {0}
    2568:	24090100 	strcs	r0, [r9], #-256	; 0xffffff00
    256c:	0000002c 	andeq	r0, r0, ip, lsr #32
    2570:	000008b1 			; <UNDEFINED> instruction: 0x000008b1
    2574:	000008a9 	andeq	r0, r0, r9, lsr #17
    2578:	00020e2d 	andeq	r0, r2, sp, lsr #28
    257c:	00100400 	andseq	r0, r0, r0, lsl #8
    2580:	14030500 	strne	r0, [r3], #-1280	; 0xfffffb00
    2584:	2800009b 	stmdacs	r0, {r0, r1, r3, r4, r7}
    2588:	000085a4 	andeq	r8, r0, r4, lsr #11
    258c:	0000194c 	andeq	r1, r0, ip, asr #18
    2590:	000018e3 	andeq	r1, r0, r3, ror #17
    2594:	05500129 	ldrbeq	r0, [r0, #-297]	; 0xfffffed7
    2598:	0098ec03 	addseq	lr, r8, r3, lsl #24
    259c:	51012900 	tstpl	r1, r0, lsl #18
    25a0:	29380802 	ldmdbcs	r8!, {r1, fp}
    25a4:	08025201 	stmdaeq	r2, {r0, r9, ip, lr}
    25a8:	c02e0080 	eorgt	r0, lr, r0, lsl #1
    25ac:	58000085 	stmdapl	r0, {r0, r2, r7}
    25b0:	28000019 	stmdacs	r0, {r0, r3, r4}
    25b4:	000085d4 	ldrdeq	r8, [r0], -r4
    25b8:	0000194c 	andeq	r1, r0, ip, asr #18
    25bc:	0000191a 	andeq	r1, r0, sl, lsl r9
    25c0:	05500129 	ldrbeq	r0, [r0, #-297]	; 0xfffffed7
    25c4:	0098c403 	addseq	ip, r8, r3, lsl #8
    25c8:	51012900 	tstpl	r1, r0, lsl #18
    25cc:	98b80305 	ldmls	r8!, {r0, r2, r8, r9}
    25d0:	01290000 			; <UNDEFINED> instruction: 0x01290000
    25d4:	14030552 	strne	r0, [r3], #-1362	; 0xfffffaae
    25d8:	2900009b 	stmdbcs	r0, {r0, r1, r3, r4, r7}
    25dc:	3a015301 	bcc	571e8 <__bss_end__+0x4d080>
    25e0:	85d82e00 	ldrbhi	r2, [r8, #3584]	; 0xe00
    25e4:	19640000 	stmdbne	r4!, {}^	; <UNPREDICTABLE>
    25e8:	38000000 	stmdacc	r0, {}	; <UNPREDICTABLE>
    25ec:	00000659 	andeq	r0, r0, r9, asr r6
    25f0:	03145502 	tsteq	r4, #8388608	; 0x800000
    25f4:	00001946 	andeq	r1, r0, r6, asr #18
    25f8:	02006839 	andeq	r6, r0, #3735552	; 0x390000
    25fc:	0c9a2555 	cfldr32eq	mvfx2, [sl], {85}	; 0x55
    2600:	6c3a0000 	ldcvs	0, cr0, [sl], #-0
    2604:	10570200 	subsne	r0, r7, r0, lsl #4
    2608:	00001946 	andeq	r1, r0, r6, asr #18
    260c:	b3040500 	movwlt	r0, #17664	; 0x4500
    2610:	3b000009 	blcc	263c <_start-0x59c4>
    2614:	0000070a 	andeq	r0, r0, sl, lsl #14
    2618:	0000070a 	andeq	r0, r0, sl, lsl #14
    261c:	3b052908 	blcc	14ca44 <__bss_end__+0x1428dc>
    2620:	000001e9 	andeq	r0, r0, r9, ror #3
    2624:	000001e9 	andeq	r0, r0, r9, ror #3
    2628:	3b061e08 	blcc	189e50 <__bss_end__+0x17fce8>
    262c:	0000028d 	andeq	r0, r0, sp, lsl #5
    2630:	0000028d 	andeq	r0, r0, sp, lsl #5
    2634:	3b066508 	blcc	19ba5c <__bss_end__+0x1918f4>
    2638:	0000067d 	andeq	r0, r0, sp, ror r6
    263c:	0000067d 	andeq	r0, r0, sp, ror r6
    2640:	3b092109 	blcc	24aa6c <__bss_end__+0x240904>
    2644:	00000551 	andeq	r0, r0, r1, asr r5
    2648:	00000551 	andeq	r0, r0, r1, asr r5
    264c:	000a050a 	andeq	r0, sl, sl, lsl #10
    2650:	000009fe 	strdeq	r0, [r0], -lr
    2654:	05ef0004 	strbeq	r0, [pc, #4]!	; 2660 <_start-0x59a0>
    2658:	01040000 	mrseq	r0, (UNDEF: 4)
    265c:	000002fd 	strdeq	r0, [r0], -sp
    2660:	0006c00c 	andeq	ip, r6, ip
    2664:	0006cc00 	andeq	ip, r6, r0, lsl #24
    2668:	008a1000 	addeq	r1, sl, r0
    266c:	0000ec00 	andeq	lr, r0, r0, lsl #24
    2670:	00092f00 	andeq	r2, r9, r0, lsl #30
    2674:	05040200 	streq	r0, [r4, #-512]	; 0xfffffe00
    2678:	00746e69 	rsbseq	r6, r4, r9, ror #28
    267c:	66070403 	strvs	r0, [r7], -r3, lsl #8
    2680:	03000000 	movweq	r0, #0
    2684:	02ec0601 	rsceq	r0, ip, #1048576	; 0x100000
    2688:	02030000 	andeq	r0, r3, #0
    268c:	00038505 	andeq	r8, r3, r5, lsl #10
    2690:	05040300 	streq	r0, [r4, #-768]	; 0xfffffd00
    2694:	000000ac 	andeq	r0, r0, ip, lsr #1
    2698:	a7050803 	strge	r0, [r5, -r3, lsl #16]
    269c:	04000000 	streq	r0, [r0], #-0
    26a0:	00000691 	muleq	r0, r1, r6
    26a4:	5b182e02 	blpl	60deb4 <__bss_end__+0x603d4c>
    26a8:	03000000 	movweq	r0, #0
    26ac:	02ea0801 	rsceq	r0, sl, #65536	; 0x10000
    26b0:	02030000 	andeq	r0, r3, #0
    26b4:	00022207 	andeq	r2, r2, r7, lsl #4
    26b8:	06480400 	strbeq	r0, [r8], -r0, lsl #8
    26bc:	34020000 	strcc	r0, [r2], #-0
    26c0:	00007519 	andeq	r7, r0, r9, lsl r5
    26c4:	07040300 	streq	r0, [r4, -r0, lsl #6]
    26c8:	00000061 	andeq	r0, r0, r1, rrx
    26cc:	5c070803 	stcpl	8, cr0, [r7], {3}
    26d0:	04000000 	streq	r0, [r0], #-0
    26d4:	00000265 	andeq	r0, r0, r5, ror #4
    26d8:	8f192203 	svchi	0x00192203
    26dc:	05000000 	streq	r0, [r0, #-0]
    26e0:	00009504 	andeq	r9, r0, r4, lsl #10
    26e4:	042b0600 	strteq	r0, [fp], #-1536	; 0xfffffa00
    26e8:	cb040000 	blgt	1026f0 <__bss_end__+0xf8588>
    26ec:	04000002 	streq	r0, [r0], #-2
    26f0:	00410e2c 	subeq	r0, r1, ip, lsr #28
    26f4:	40040000 	andmi	r0, r4, r0
    26f8:	04000004 	streq	r0, [r0], #-4
    26fc:	00410e72 	subeq	r0, r1, r2, ror lr
    2700:	6d070000 	stcvs	0, cr0, [r7, #-0]
    2704:	05000002 	streq	r0, [r0, #-2]
    2708:	2c17015e 	ldfcss	f0, [r7], {94}	; 0x5e
    270c:	08000000 	stmdaeq	r0, {}	; <UNPREDICTABLE>
    2710:	03a60404 			; <UNDEFINED> instruction: 0x03a60404
    2714:	000000e1 	andeq	r0, r0, r1, ror #1
    2718:	00025f09 	andeq	r5, r2, r9, lsl #30
    271c:	0ca80400 	cfstrseq	mvf0, [r8]
    2720:	000000b2 	strheq	r0, [r0], -r2
    2724:	0001e209 	andeq	lr, r1, r9, lsl #4
    2728:	13a90400 			; <UNDEFINED> instruction: 0x13a90400
    272c:	000000e1 	andeq	r0, r0, r1, ror #1
    2730:	005b0a00 	subseq	r0, fp, r0, lsl #20
    2734:	00f10000 	rscseq	r0, r1, r0
    2738:	2c0b0000 	stccs	0, cr0, [fp], {-0}
    273c:	03000000 	movweq	r0, #0
    2740:	04080c00 	streq	r0, [r8], #-3072	; 0xfffff400
    2744:	011509a3 	tsteq	r5, r3, lsr #19
    2748:	230d0000 	movwcs	r0, #53248	; 0xd000
    274c:	04000004 	streq	r0, [r0], #-4
    2750:	002507a5 	eoreq	r0, r5, r5, lsr #15
    2754:	0d000000 	stceq	0, cr0, [r0, #-0]
    2758:	00000432 	andeq	r0, r0, r2, lsr r4
    275c:	bf05aa04 	svclt	0x0005aa04
    2760:	04000000 	streq	r0, [r0], #-0
    2764:	03ad0400 			; <UNDEFINED> instruction: 0x03ad0400
    2768:	ab040000 	blge	102770 <__bss_end__+0xf8608>
    276c:	0000f103 	andeq	pc, r0, r3, lsl #2
    2770:	019f0400 	orrseq	r0, pc, r0, lsl #8
    2774:	af040000 	svcge	0x00040000
    2778:	0000831b 	andeq	r8, r0, fp, lsl r3
    277c:	05040e00 	streq	r0, [r4, #-3584]	; 0xfffff200
    2780:	00013504 	andeq	r3, r1, r4, lsl #10
    2784:	08010300 	stmdaeq	r1, {r8, r9}
    2788:	000002f3 	strdeq	r0, [r0], -r3
    278c:	0001350f 	andeq	r3, r1, pc, lsl #10
    2790:	04720400 	ldrbteq	r0, [r2], #-1024	; 0xfffffc00
    2794:	16060000 	strne	r0, [r6], -r0
    2798:	00007519 	andeq	r7, r0, r9, lsl r5
    279c:	01b01000 	movseq	r1, r0
    27a0:	06180000 	ldreq	r0, [r8], -r0
    27a4:	01a7082f 			; <UNDEFINED> instruction: 0x01a7082f
    27a8:	ce0d0000 	cdpgt	0, 0, cr0, cr13, cr0, {0}
    27ac:	06000003 	streq	r0, [r0], -r3
    27b0:	01a71331 			; <UNDEFINED> instruction: 0x01a71331
    27b4:	11000000 	mrsne	r0, (UNDEF: 0)
    27b8:	06006b5f 			; <UNDEFINED> instruction: 0x06006b5f
    27bc:	00250732 	eoreq	r0, r5, r2, lsr r7
    27c0:	0d040000 	stceq	0, cr0, [r4, #-0]
    27c4:	0000040e 	andeq	r0, r0, lr, lsl #8
    27c8:	250b3206 	strcs	r3, [fp, #-518]	; 0xfffffdfa
    27cc:	08000000 	stmdaeq	r0, {}	; <UNPREDICTABLE>
    27d0:	0001990d 	andeq	r9, r1, sp, lsl #18
    27d4:	14320600 	ldrtne	r0, [r2], #-1536	; 0xfffffa00
    27d8:	00000025 	andeq	r0, r0, r5, lsr #32
    27dc:	04b20d0c 	ldrteq	r0, [r2], #3340	; 0xd0c
    27e0:	32060000 	andcc	r0, r6, #0
    27e4:	0000251b 	andeq	r2, r0, fp, lsl r5
    27e8:	5f111000 	svcpl	0x00111000
    27ec:	33060078 	movwcc	r0, #24696	; 0x6078
    27f0:	0001ad0b 	andeq	sl, r1, fp, lsl #26
    27f4:	05001400 	streq	r1, [r0, #-1024]	; 0xfffffc00
    27f8:	00014d04 	andeq	r4, r1, r4, lsl #26
    27fc:	01410a00 	cmpeq	r1, r0, lsl #20
    2800:	01bd0000 			; <UNDEFINED> instruction: 0x01bd0000
    2804:	2c0b0000 	stccs	0, cr0, [fp], {-0}
    2808:	00000000 	andeq	r0, r0, r0
    280c:	01dd1000 	bicseq	r1, sp, r0
    2810:	06240000 	strteq	r0, [r4], -r0
    2814:	02400837 	subeq	r0, r0, #3604480	; 0x370000
    2818:	9e0d0000 	cdpls	0, 0, cr0, cr13, cr0, {0}
    281c:	06000000 	streq	r0, [r0], -r0
    2820:	00250939 	eoreq	r0, r5, r9, lsr r9
    2824:	0d000000 	stceq	0, cr0, [r0, #-0]
    2828:	00000448 	andeq	r0, r0, r8, asr #8
    282c:	25093a06 	strcs	r3, [r9, #-2566]	; 0xfffff5fa
    2830:	04000000 	streq	r0, [r0], #-0
    2834:	0000c10d 	andeq	ip, r0, sp, lsl #2
    2838:	093b0600 	ldmdbeq	fp!, {r9, sl}
    283c:	00000025 	andeq	r0, r0, r5, lsr #32
    2840:	05330d08 	ldreq	r0, [r3, #-3336]!	; 0xfffff2f8
    2844:	3c060000 	stccc	0, cr0, [r6], {-0}
    2848:	00002509 	andeq	r2, r0, r9, lsl #10
    284c:	af0d0c00 	svcge	0x000d0c00
    2850:	06000002 	streq	r0, [r0], -r2
    2854:	0025093d 	eoreq	r0, r5, sp, lsr r9
    2858:	0d100000 	ldceq	0, cr0, [r0, #-0]
    285c:	00000283 	andeq	r0, r0, r3, lsl #5
    2860:	25093e06 	strcs	r3, [r9, #-3590]	; 0xfffff1fa
    2864:	14000000 	strne	r0, [r0], #-0
    2868:	0004b70d 	andeq	fp, r4, sp, lsl #14
    286c:	093f0600 	ldmdbeq	pc!, {r9, sl}	; <UNPREDICTABLE>
    2870:	00000025 	andeq	r0, r0, r5, lsr #32
    2874:	038f0d18 	orreq	r0, pc, #24, 26	; 0x600
    2878:	40060000 	andmi	r0, r6, r0
    287c:	00002509 	andeq	r2, r0, r9, lsl #10
    2880:	fa0d1c00 	blx	349888 <__bss_end__+0x33f720>
    2884:	06000004 	streq	r0, [r0], -r4
    2888:	00250941 	eoreq	r0, r5, r1, asr #18
    288c:	00200000 	eoreq	r0, r0, r0
    2890:	00010112 	andeq	r0, r1, r2, lsl r1
    2894:	06010800 	streq	r0, [r1], -r0, lsl #16
    2898:	0285084a 	addeq	r0, r5, #4849664	; 0x4a0000
    289c:	8c0d0000 	stchi	0, cr0, [sp], {-0}
    28a0:	06000001 	streq	r0, [r0], -r1
    28a4:	02850a4b 	addeq	r0, r5, #307200	; 0x4b000
    28a8:	0d000000 	stceq	0, cr0, [r0, #-0]
    28ac:	00000000 	andeq	r0, r0, r0
    28b0:	85094c06 	strhi	r4, [r9, #-3078]	; 0xfffff3fa
    28b4:	80000002 	andhi	r0, r0, r2
    28b8:	00046413 	andeq	r6, r4, r3, lsl r4
    28bc:	0a4e0600 	beq	13840c4 <__bss_end__+0x1379f5c>
    28c0:	00000141 	andeq	r0, r0, r1, asr #2
    28c4:	26130100 	ldrcs	r0, [r3], -r0, lsl #2
    28c8:	06000001 	streq	r0, [r0], -r1
    28cc:	01410a51 	cmpeq	r1, r1, asr sl
    28d0:	01040000 	mrseq	r0, (UNDEF: 4)
    28d4:	012d0a00 			; <UNDEFINED> instruction: 0x012d0a00
    28d8:	02950000 	addseq	r0, r5, #0
    28dc:	2c0b0000 	stccs	0, cr0, [fp], {-0}
    28e0:	1f000000 	svcne	0x00000000
    28e4:	02b81200 	adcseq	r1, r8, #0, 4
    28e8:	01900000 	orrseq	r0, r0, r0
    28ec:	d8085d06 	stmdale	r8, {r1, r2, r8, sl, fp, ip, lr}
    28f0:	0d000002 	stceq	0, cr0, [r0, #-8]
    28f4:	000003ce 	andeq	r0, r0, lr, asr #7
    28f8:	d8125e06 	ldmdale	r2, {r1, r2, r9, sl, fp, ip, lr}
    28fc:	00000002 	andeq	r0, r0, r2
    2900:	0003e60d 	andeq	lr, r3, sp, lsl #12
    2904:	065f0600 	ldrbeq	r0, [pc], -r0, lsl #12
    2908:	00000025 	andeq	r0, r0, r5, lsr #32
    290c:	01940d04 	orrseq	r0, r4, r4, lsl #26
    2910:	61060000 	mrsvs	r0, (UNDEF: 6)
    2914:	0002de09 	andeq	sp, r2, r9, lsl #28
    2918:	010d0800 	tsteq	sp, r0, lsl #16
    291c:	06000001 	streq	r0, [r0], -r1
    2920:	02401e62 	subeq	r1, r0, #1568	; 0x620
    2924:	00880000 	addeq	r0, r8, r0
    2928:	02950405 	addseq	r0, r5, #83886080	; 0x5000000
    292c:	ee0a0000 	cdp	0, 0, cr0, cr10, cr0, {0}
    2930:	ee000002 	cdp	0, 0, cr0, cr0, cr2, {0}
    2934:	0b000002 	bleq	2944 <_start-0x56bc>
    2938:	0000002c 	andeq	r0, r0, ip, lsr #32
    293c:	0405001f 	streq	r0, [r5], #-31	; 0xffffffe1
    2940:	000002f4 	strdeq	r0, [r0], -r4
    2944:	03991014 	orrseq	r1, r9, #20
    2948:	06080000 	streq	r0, [r8], -r0
    294c:	031d0875 	tsteq	sp, #7667712	; 0x750000
    2950:	bb0d0000 	bllt	342958 <__bss_end__+0x3387f0>
    2954:	06000000 	streq	r0, [r0], -r0
    2958:	031d1176 	tsteq	sp, #-2147483619	; 0x8000001d
    295c:	0d000000 	stceq	0, cr0, [r0, #-0]
    2960:	0000001b 	andeq	r0, r0, fp, lsl r0
    2964:	25067706 	strcs	r7, [r6, #-1798]	; 0xfffff8fa
    2968:	04000000 	streq	r0, [r0], #-0
    296c:	5b040500 	blpl	103d74 <__bss_end__+0xf9c0c>
    2970:	10000000 	andne	r0, r0, r0
    2974:	000003b8 			; <UNDEFINED> instruction: 0x000003b8
    2978:	08b50668 	ldmeq	r5!, {r3, r5, r6, r9, sl}
    297c:	00000466 	andeq	r0, r0, r6, ror #8
    2980:	00705f11 	rsbseq	r5, r0, r1, lsl pc
    2984:	1d12b606 	ldcne	6, cr11, [r2, #-24]	; 0xffffffe8
    2988:	00000003 	andeq	r0, r0, r3
    298c:	00725f11 	rsbseq	r5, r2, r1, lsl pc
    2990:	2507b706 	strcs	fp, [r7, #-1798]	; 0xfffff8fa
    2994:	04000000 	streq	r0, [r0], #-0
    2998:	00775f11 	rsbseq	r5, r7, r1, lsl pc
    299c:	2507b806 	strcs	fp, [r7, #-2054]	; 0xfffff7fa
    29a0:	08000000 	stmdaeq	r0, {}	; <UNPREDICTABLE>
    29a4:	00011f0d 	andeq	r1, r1, sp, lsl #30
    29a8:	09b90600 	ldmibeq	r9!, {r9, sl}
    29ac:	0000003a 	andeq	r0, r0, sl, lsr r0
    29b0:	02080d0c 	andeq	r0, r8, #12, 26	; 0x300
    29b4:	ba060000 	blt	1829bc <__bss_end__+0x178854>
    29b8:	00003a09 	andeq	r3, r0, r9, lsl #20
    29bc:	5f110e00 	svcpl	0x00110e00
    29c0:	06006662 	streq	r6, [r0], -r2, ror #12
    29c4:	02f511bb 	rscseq	r1, r5, #-1073741778	; 0xc000002e
    29c8:	0d100000 	ldceq	0, cr0, [r0, #-0]
    29cc:	0000007b 	andeq	r0, r0, fp, ror r0
    29d0:	2507bc06 	strcs	fp, [r7, #-3078]	; 0xfffff3fa
    29d4:	18000000 	stmdane	r0, {}	; <UNPREDICTABLE>
    29d8:	00010f0d 	andeq	r0, r1, sp, lsl #30
    29dc:	0ac30600 	beq	ff0c41e4 <__bss_end__+0xff0ba07c>
    29e0:	0000012d 	andeq	r0, r0, sp, lsr #2
    29e4:	0b590d1c 	bleq	1645e5c <__bss_end__+0x163bcf4>
    29e8:	c5060000 	strgt	r0, [r6, #-0]
    29ec:	0005d81d 	andeq	sp, r5, sp, lsl r8
    29f0:	1d0d2000 	stcne	0, cr2, [sp, #-0]
    29f4:	06000006 	streq	r0, [r0], -r6
    29f8:	06021dc7 	streq	r1, [r2], -r7, asr #27
    29fc:	0d240000 	stceq	0, cr0, [r4, #-0]
    2a00:	0000043a 	andeq	r0, r0, sl, lsr r4
    2a04:	260dca06 	strcs	ip, [sp], -r6, lsl #20
    2a08:	28000006 	stmdacs	r0, {r1, r2}
    2a0c:	0005140d 	andeq	r1, r5, sp, lsl #8
    2a10:	09cb0600 	stmibeq	fp, {r9, sl}^
    2a14:	00000640 	andeq	r0, r0, r0, asr #12
    2a18:	755f112c 	ldrbvc	r1, [pc, #-300]	; 28f4 <_start-0x570c>
    2a1c:	ce060062 	cdpgt	0, 0, cr0, cr6, cr2, {3}
    2a20:	0002f511 	andeq	pc, r2, r1, lsl r5	; <UNPREDICTABLE>
    2a24:	5f113000 	svcpl	0x00113000
    2a28:	06007075 			; <UNDEFINED> instruction: 0x06007075
    2a2c:	031d12cf 	tsteq	sp, #-268435444	; 0xf000000c
    2a30:	11380000 	teqne	r8, r0
    2a34:	0072755f 	rsbseq	r7, r2, pc, asr r5
    2a38:	2507d006 	strcs	sp, [r7, #-6]
    2a3c:	3c000000 	stccc	0, cr0, [r0], {-0}
    2a40:	0000b50d 	andeq	fp, r0, sp, lsl #10
    2a44:	11d30600 	bicsne	r0, r3, r0, lsl #12
    2a48:	00000646 	andeq	r0, r0, r6, asr #12
    2a4c:	04ec0d40 	strbteq	r0, [ip], #3392	; 0xd40
    2a50:	d4060000 	strle	r0, [r6], #-0
    2a54:	00065611 	andeq	r5, r6, r1, lsl r6
    2a58:	5f114300 	svcpl	0x00114300
    2a5c:	0600626c 	streq	r6, [r0], -ip, ror #4
    2a60:	02f511d7 	rscseq	r1, r5, #-1073741771	; 0xc0000035
    2a64:	0d440000 	stcleq	0, cr0, [r4, #-0]
    2a68:	0000013d 	andeq	r0, r0, sp, lsr r1
    2a6c:	2507da06 	strcs	sp, [r7, #-2566]	; 0xfffff5fa
    2a70:	4c000000 	stcmi	0, cr0, [r0], {-0}
    2a74:	00014e0d 	andeq	r4, r1, sp, lsl #28
    2a78:	0adb0600 	beq	ff6c4280 <__bss_end__+0xff6ba118>
    2a7c:	0000009a 	muleq	r0, sl, r0
    2a80:	0afa0d50 	beq	ffe85fc8 <__bss_end__+0xffe7be60>
    2a84:	de060000 	cdple	0, 0, cr0, cr6, cr0, {0}
    2a88:	00048412 	andeq	r8, r4, r2, lsl r4
    2a8c:	2c0d5400 	cfstrscs	mvf5, [sp], {-0}
    2a90:	06000004 	streq	r0, [r0], -r4
    2a94:	01210ce2 	smulwteq	r1, r2, ip
    2a98:	0d580000 	ldcleq	0, cr0, [r8, #-0]
    2a9c:	000003c0 	andeq	r0, r0, r0, asr #7
    2aa0:	150ee406 	strne	lr, [lr, #-1030]	; 0xfffffbfa
    2aa4:	5c000001 	stcpl	0, cr0, [r0], {1}
    2aa8:	00027b0d 	andeq	r7, r2, sp, lsl #22
    2aac:	09e50600 	stmibeq	r5!, {r9, sl}^
    2ab0:	00000025 	andeq	r0, r0, r5, lsr #32
    2ab4:	25150064 	ldrcs	r0, [r5, #-100]	; 0xffffff9c
    2ab8:	84000000 	strhi	r0, [r0], #-0
    2abc:	16000004 	strne	r0, [r0], -r4
    2ac0:	00000484 	andeq	r0, r0, r4, lsl #9
    2ac4:	00012d16 	andeq	r2, r1, r6, lsl sp
    2ac8:	012f1600 			; <UNDEFINED> instruction: 0x012f1600
    2acc:	25160000 	ldrcs	r0, [r6, #-0]
    2ad0:	00000000 	andeq	r0, r0, r0
    2ad4:	048f0405 	streq	r0, [pc], #1029	; 2adc <_start-0x5524>
    2ad8:	840f0000 	strhi	r0, [pc], #-0	; 2ae0 <_start-0x5520>
    2adc:	17000004 	strne	r0, [r0, -r4]
    2ae0:	00000416 	andeq	r0, r0, r6, lsl r4
    2ae4:	60060428 	andvs	r0, r6, r8, lsr #8
    2ae8:	05d80802 	ldrbeq	r0, [r8, #2050]	; 0x802
    2aec:	7e180000 	cdpvc	0, 1, cr0, cr8, cr0, {0}
    2af0:	06000003 	streq	r0, [r0], -r3
    2af4:	25070262 	strcs	r0, [r7, #-610]	; 0xfffffd9e
    2af8:	00000000 	andeq	r0, r0, r0
    2afc:	00012e18 	andeq	r2, r1, r8, lsl lr
    2b00:	02670600 	rsbeq	r0, r7, #0, 12
    2b04:	0006b20b 	andeq	fp, r6, fp, lsl #4
    2b08:	f8180400 			; <UNDEFINED> instruction: 0xf8180400
    2b0c:	06000001 	streq	r0, [r0], -r1
    2b10:	b2140267 	andslt	r0, r4, #1879048198	; 0x70000006
    2b14:	08000006 	stmdaeq	r0, {r1, r2}
    2b18:	0001a818 	andeq	sl, r1, r8, lsl r8
    2b1c:	02670600 	rsbeq	r0, r7, #0, 12
    2b20:	0006b21e 	andeq	fp, r6, lr, lsl r2
    2b24:	e1180c00 	tst	r8, r0, lsl #24
    2b28:	06000003 	streq	r0, [r0], -r3
    2b2c:	25080269 	strcs	r0, [r8, #-617]	; 0xfffffd97
    2b30:	10000000 	andne	r0, r0, r0
    2b34:	00002918 	andeq	r2, r0, r8, lsl r9
    2b38:	026a0600 	rsbeq	r0, sl, #0, 12
    2b3c:	0008b208 	andeq	fp, r8, r8, lsl #4
    2b40:	f5181400 			; <UNDEFINED> instruction: 0xf5181400
    2b44:	06000003 	streq	r0, [r0], -r3
    2b48:	2507026d 	strcs	r0, [r7, #-621]	; 0xfffffd93
    2b4c:	30000000 	andcc	r0, r0, r0
    2b50:	000a3618 	andeq	r3, sl, r8, lsl r6
    2b54:	026e0600 	rsbeq	r0, lr, #0, 12
    2b58:	0008c716 	andeq	ip, r8, r6, lsl r7
    2b5c:	c0183400 	andsgt	r3, r8, r0, lsl #8
    2b60:	06000002 	streq	r0, [r0], -r2
    2b64:	25070270 	strcs	r0, [r7, #-624]	; 0xfffffd90
    2b68:	38000000 	stmdacc	r0, {}	; <UNPREDICTABLE>
    2b6c:	0003eb18 	andeq	lr, r3, r8, lsl fp
    2b70:	02720600 	rsbseq	r0, r2, #0, 12
    2b74:	0008d80a 	andeq	sp, r8, sl, lsl #16
    2b78:	57183c00 	ldrpl	r3, [r8, -r0, lsl #24]
    2b7c:	06000002 	streq	r0, [r0], -r2
    2b80:	a7130275 			; <UNDEFINED> instruction: 0xa7130275
    2b84:	40000001 	andmi	r0, r0, r1
    2b88:	0001c718 	andeq	ip, r1, r8, lsl r7
    2b8c:	02760600 	rsbseq	r0, r6, #0, 12
    2b90:	00002507 	andeq	r2, r0, r7, lsl #10
    2b94:	2e184400 	cfmulscs	mvf4, mvf8, mvf0
    2b98:	06000005 	streq	r0, [r0], -r5
    2b9c:	a7130277 			; <UNDEFINED> instruction: 0xa7130277
    2ba0:	48000001 	stmdami	r0, {r0}
    2ba4:	0002d218 	andeq	sp, r2, r8, lsl r2
    2ba8:	02780600 	rsbseq	r0, r8, #0, 12
    2bac:	0008de14 	andeq	sp, r8, r4, lsl lr
    2bb0:	00184c00 	andseq	r4, r8, r0, lsl #24
    2bb4:	06000002 	streq	r0, [r0], -r2
    2bb8:	2507027b 	strcs	r0, [r7, #-635]	; 0xfffffd85
    2bbc:	50000000 	andpl	r0, r0, r0
    2bc0:	00014618 	andeq	r4, r1, r8, lsl r6
    2bc4:	027c0600 	rsbseq	r0, ip, #0, 12
    2bc8:	00012f09 	andeq	r2, r1, r9, lsl #30
    2bcc:	f8185400 			; <UNDEFINED> instruction: 0xf8185400
    2bd0:	06000002 	streq	r0, [r0], -r2
    2bd4:	8d07029f 	sfmhi	f0, 4, [r7, #-636]	; 0xfffffd84
    2bd8:	58000008 	stmdapl	r0, {r3}
    2bdc:	0002b819 	andeq	fp, r2, r9, lsl r8
    2be0:	02a30600 	adceq	r0, r3, #0, 12
    2be4:	0002d813 	andeq	sp, r2, r3, lsl r8
    2be8:	19014800 	stmdbne	r1, {fp, lr}
    2bec:	00000235 	andeq	r0, r0, r5, lsr r2
    2bf0:	1202a406 	andne	sl, r2, #100663296	; 0x6000000
    2bf4:	00000295 	muleq	r0, r5, r2
    2bf8:	da19014c 	ble	643130 <__bss_end__+0x638fc8>
    2bfc:	06000004 	streq	r0, [r0], -r4
    2c00:	ef0c02a8 	svc	0x000c02a8
    2c04:	dc000008 	stcle	0, cr0, [r0], {8}
    2c08:	01171902 	tsteq	r7, r2, lsl #18
    2c0c:	ad060000 	stcge	0, cr0, [r6, #-0]
    2c10:	06731002 	ldrbteq	r1, [r3], -r2
    2c14:	02e00000 	rsceq	r0, r0, #0
    2c18:	0000fc19 	andeq	pc, r0, r9, lsl ip	; <UNPREDICTABLE>
    2c1c:	02af0600 	adceq	r0, pc, #0, 12
    2c20:	0008fb0a 	andeq	pc, r8, sl, lsl #22
    2c24:	0002ec00 	andeq	lr, r2, r0, lsl #24
    2c28:	04660405 	strbteq	r0, [r6], #-1029	; 0xfffffbfb
    2c2c:	25150000 	ldrcs	r0, [r5, #-0]
    2c30:	fc000000 	stc2	0, cr0, [r0], {-0}
    2c34:	16000005 	strne	r0, [r0], -r5
    2c38:	00000484 	andeq	r0, r0, r4, lsl #9
    2c3c:	00012d16 	andeq	r2, r1, r6, lsl sp
    2c40:	05fc1600 	ldrbeq	r1, [ip, #1536]!	; 0x600
    2c44:	25160000 	ldrcs	r0, [r6, #-0]
    2c48:	00000000 	andeq	r0, r0, r0
    2c4c:	013c0405 	teqeq	ip, r5, lsl #8
    2c50:	04050000 	streq	r0, [r5], #-0
    2c54:	000005de 	ldrdeq	r0, [r0], -lr
    2c58:	0000a615 	andeq	sl, r0, r5, lsl r6
    2c5c:	00062600 	andeq	r2, r6, r0, lsl #12
    2c60:	04841600 	streq	r1, [r4], #1536	; 0x600
    2c64:	2d160000 	ldccs	0, cr0, [r6, #-0]
    2c68:	16000001 	strne	r0, [r0], -r1
    2c6c:	000000a6 	andeq	r0, r0, r6, lsr #1
    2c70:	00002516 	andeq	r2, r0, r6, lsl r5
    2c74:	04050000 	streq	r0, [r5], #-0
    2c78:	00000608 	andeq	r0, r0, r8, lsl #12
    2c7c:	00002515 	andeq	r2, r0, r5, lsl r5
    2c80:	00064000 	andeq	r4, r6, r0
    2c84:	04841600 	streq	r1, [r4], #1536	; 0x600
    2c88:	2d160000 	ldccs	0, cr0, [r6, #-0]
    2c8c:	00000001 	andeq	r0, r0, r1
    2c90:	062c0405 	strteq	r0, [ip], -r5, lsl #8
    2c94:	5b0a0000 	blpl	282c9c <__bss_end__+0x278b34>
    2c98:	56000000 	strpl	r0, [r0], -r0
    2c9c:	0b000006 	bleq	2cbc <_start-0x5344>
    2ca0:	0000002c 	andeq	r0, r0, ip, lsr #32
    2ca4:	5b0a0002 	blpl	282cb4 <__bss_end__+0x278b4c>
    2ca8:	66000000 	strvs	r0, [r0], -r0
    2cac:	0b000006 	bleq	2ccc <_start-0x5334>
    2cb0:	0000002c 	andeq	r0, r0, ip, lsr #32
    2cb4:	a6070000 	strge	r0, [r7], -r0
    2cb8:	06000003 	streq	r0, [r0], -r3
    2cbc:	231a011f 	tstcs	sl, #-1073741817	; 0xc0000007
    2cc0:	1a000003 	bne	2cd4 <_start-0x532c>
    2cc4:	000004c1 	andeq	r0, r0, r1, asr #9
    2cc8:	0123060c 			; <UNDEFINED> instruction: 0x0123060c
    2ccc:	0006ac08 	andeq	sl, r6, r8, lsl #24
    2cd0:	03ce1800 	biceq	r1, lr, #0, 16
    2cd4:	25060000 	strcs	r0, [r6, #-0]
    2cd8:	06ac1101 	strteq	r1, [ip], r1, lsl #2
    2cdc:	18000000 	stmdane	r0, {}	; <UNPREDICTABLE>
    2ce0:	0000021b 	andeq	r0, r0, fp, lsl r2
    2ce4:	07012606 	streq	r2, [r1, -r6, lsl #12]
    2ce8:	00000025 	andeq	r0, r0, r5, lsr #32
    2cec:	03a01804 	moveq	r1, #4, 16	; 0x40000
    2cf0:	27060000 	strcs	r0, [r6, -r0]
    2cf4:	06b20b01 	ldrteq	r0, [r2], r1, lsl #22
    2cf8:	00080000 	andeq	r0, r8, r0
    2cfc:	06730405 	ldrbteq	r0, [r3], -r5, lsl #8
    2d00:	04050000 	streq	r0, [r5], #-0
    2d04:	00000666 	andeq	r0, r0, r6, ror #12
    2d08:	0000211a 	andeq	r2, r0, sl, lsl r1
    2d0c:	3f060e00 	svccc	0x00060e00
    2d10:	06f10801 	ldrbteq	r0, [r1], r1, lsl #16
    2d14:	1d180000 	ldcne	0, cr0, [r8, #-0]
    2d18:	06000004 	streq	r0, [r0], -r4
    2d1c:	f1120140 			; <UNDEFINED> instruction: 0xf1120140
    2d20:	00000006 	andeq	r0, r0, r6
    2d24:	00045118 	andeq	r5, r4, r8, lsl r1
    2d28:	01410600 	cmpeq	r1, r0, lsl #12
    2d2c:	0006f112 	andeq	pc, r6, r2, lsl r1	; <UNPREDICTABLE>
    2d30:	6d180600 	ldcvs	6, cr0, [r8, #-0]
    2d34:	06000004 	streq	r0, [r0], -r4
    2d38:	62120142 	andsvs	r0, r2, #-2147483632	; 0x80000010
    2d3c:	0c000000 	stceq	0, cr0, [r0], {-0}
    2d40:	00620a00 	rsbeq	r0, r2, r0, lsl #20
    2d44:	07010000 	streq	r0, [r1, -r0]
    2d48:	2c0b0000 	stccs	0, cr0, [fp], {-0}
    2d4c:	02000000 	andeq	r0, r0, #0
    2d50:	06d01b00 	ldrbeq	r1, [r0], r0, lsl #22
    2d54:	16070280 	strne	r0, [r7], -r0, lsl #5
    2d58:	18000008 	stmdane	r0, {r3}
    2d5c:	000004a5 	andeq	r0, r0, r5, lsr #9
    2d60:	18028206 	stmdane	r2, {r1, r2, r9, pc}
    2d64:	0000002c 	andeq	r0, r0, ip, lsr #32
    2d68:	04571800 	ldrbeq	r1, [r7], #-2048	; 0xfffff800
    2d6c:	83060000 	movwhi	r0, #24576	; 0x6000
    2d70:	012f1202 			; <UNDEFINED> instruction: 0x012f1202
    2d74:	18040000 	stmdane	r4, {}	; <UNPREDICTABLE>
    2d78:	0000024a 	andeq	r0, r0, sl, asr #4
    2d7c:	10028406 	andne	r8, r2, r6, lsl #8
    2d80:	00000816 	andeq	r0, r0, r6, lsl r8
    2d84:	05051808 	streq	r1, [r5, #-2056]	; 0xfffff7f8
    2d88:	85060000 	strhi	r0, [r6, #-0]
    2d8c:	01bd1702 			; <UNDEFINED> instruction: 0x01bd1702
    2d90:	18240000 	stmdane	r4!, {}	; <UNPREDICTABLE>
    2d94:	000001b8 			; <UNDEFINED> instruction: 0x000001b8
    2d98:	0f028606 	svceq	0x00028606
    2d9c:	00000025 	andeq	r0, r0, r5, lsr #32
    2da0:	03c91848 	biceq	r1, r9, #72, 16	; 0x480000
    2da4:	87060000 	strhi	r0, [r6, -r0]
    2da8:	007c2c02 	rsbseq	r2, ip, r2, lsl #24
    2dac:	18500000 	ldmdane	r0, {}^	; <UNPREDICTABLE>
    2db0:	0000051b 	andeq	r0, r0, fp, lsl r5
    2db4:	1a028806 	bne	a4dd4 <__bss_end__+0x9ac6c>
    2db8:	000006b8 			; <UNDEFINED> instruction: 0x000006b8
    2dbc:	03d41858 	bicseq	r1, r4, #88, 16	; 0x580000
    2dc0:	89060000 	stmdbhi	r6, {}	; <UNPREDICTABLE>
    2dc4:	01151602 	tsteq	r5, r2, lsl #12
    2dc8:	18680000 	stmdane	r8!, {}^	; <UNPREDICTABLE>
    2dcc:	00000520 	andeq	r0, r0, r0, lsr #10
    2dd0:	16028a06 	strne	r8, [r2], -r6, lsl #20
    2dd4:	00000115 	andeq	r0, r0, r5, lsl r1
    2dd8:	02dc1870 	sbcseq	r1, ip, #112, 16	; 0x700000
    2ddc:	8b060000 	blhi	182de4 <__bss_end__+0x178c7c>
    2de0:	01151602 	tsteq	r5, r2, lsl #12
    2de4:	18780000 	ldmdane	r8!, {}^	; <UNPREDICTABLE>
    2de8:	000004d0 	ldrdeq	r0, [r0], -r0	; <UNPREDICTABLE>
    2dec:	10028c06 	andne	r8, r2, r6, lsl #24
    2df0:	00000826 	andeq	r0, r0, r6, lsr #16
    2df4:	023e1880 	eorseq	r1, lr, #128, 16	; 0x800000
    2df8:	8d060000 	stchi	0, cr0, [r6, #-0]
    2dfc:	08361002 	ldmdaeq	r6!, {r1, ip}
    2e00:	18880000 	stmne	r8, {}	; <UNPREDICTABLE>
    2e04:	0000047a 	andeq	r0, r0, sl, ror r4
    2e08:	0f028e06 	svceq	0x00028e06
    2e0c:	00000025 	andeq	r0, r0, r5, lsr #32
    2e10:	017e18a0 	cmneq	lr, r0, lsr #17
    2e14:	8f060000 	svchi	0x00060000
    2e18:	01151602 	tsteq	r5, r2, lsl #12
    2e1c:	18a40000 	stmiane	r4!, {}	; <UNPREDICTABLE>
    2e20:	0000008f 	andeq	r0, r0, pc, lsl #1
    2e24:	16029006 	strne	r9, [r2], -r6
    2e28:	00000115 	andeq	r0, r0, r5, lsl r1
    2e2c:	016d18ac 	cmneq	sp, ip, lsr #17
    2e30:	91060000 	mrsls	r0, (UNDEF: 6)
    2e34:	01151602 	tsteq	r5, r2, lsl #12
    2e38:	18b40000 	ldmne	r4!, {}	; <UNPREDICTABLE>
    2e3c:	0000003c 	andeq	r0, r0, ip, lsr r0
    2e40:	16029206 	strne	r9, [r2], -r6, lsl #4
    2e44:	00000115 	andeq	r0, r0, r5, lsl r1
    2e48:	004b18bc 	strheq	r1, [fp], #-140	; 0xffffff74
    2e4c:	93060000 	movwls	r0, #24576	; 0x6000
    2e50:	01151602 	tsteq	r5, r2, lsl #12
    2e54:	18c40000 	stmiane	r4, {}^	; <UNPREDICTABLE>
    2e58:	0000037c 	andeq	r0, r0, ip, ror r3
    2e5c:	08029406 	stmdaeq	r2, {r1, r2, sl, ip, pc}
    2e60:	00000025 	andeq	r0, r0, r5, lsr #32
    2e64:	350a00cc 	strcc	r0, [sl, #-204]	; 0xffffff34
    2e68:	26000001 	strcs	r0, [r0], -r1
    2e6c:	0b000008 	bleq	2e94 <_start-0x516c>
    2e70:	0000002c 	andeq	r0, r0, ip, lsr #32
    2e74:	350a0019 	strcc	r0, [sl, #-25]	; 0xffffffe7
    2e78:	36000001 	strcc	r0, [r0], -r1
    2e7c:	0b000008 	bleq	2ea4 <_start-0x515c>
    2e80:	0000002c 	andeq	r0, r0, ip, lsr #32
    2e84:	350a0007 	strcc	r0, [sl, #-7]
    2e88:	46000001 	strmi	r0, [r0], -r1
    2e8c:	0b000008 	bleq	2eb4 <_start-0x514c>
    2e90:	0000002c 	andeq	r0, r0, ip, lsr #32
    2e94:	f01b0017 			; <UNDEFINED> instruction: 0xf01b0017
    2e98:	07029906 	streq	r9, [r2, -r6, lsl #18]
    2e9c:	0000086d 	andeq	r0, r0, sp, ror #16
    2ea0:	0002a818 	andeq	sl, r2, r8, lsl r8
    2ea4:	029c0600 	addseq	r0, ip, #0, 12
    2ea8:	00086d1b 	andeq	r6, r8, fp, lsl sp
    2eac:	c7180000 	ldrgt	r0, [r8, -r0]
    2eb0:	06000004 	streq	r0, [r0], -r4
    2eb4:	7d18029d 	lfmvc	f0, 4, [r8, #-628]	; 0xfffffd8c
    2eb8:	78000008 	stmdavc	r0, {r3}
    2ebc:	031d0a00 	tsteq	sp, #0, 20
    2ec0:	087d0000 	ldmdaeq	sp!, {}^	; <UNPREDICTABLE>
    2ec4:	2c0b0000 	stccs	0, cr0, [fp], {-0}
    2ec8:	1d000000 	stcne	0, cr0, [r0, #-0]
    2ecc:	002c0a00 	eoreq	r0, ip, r0, lsl #20
    2ed0:	088d0000 	stmeq	sp, {}	; <UNPREDICTABLE>
    2ed4:	2c0b0000 	stccs	0, cr0, [fp], {-0}
    2ed8:	1d000000 	stcne	0, cr0, [r0, #-0]
    2edc:	06f01c00 	ldrbteq	r1, [r0], r0, lsl #24
    2ee0:	b203027e 	andlt	r0, r3, #-536870905	; 0xe0000007
    2ee4:	1d000008 	stcne	0, cr0, [r0, #-32]	; 0xffffffe0
    2ee8:	00000416 	andeq	r0, r0, r6, lsl r4
    2eec:	0b029506 	bleq	a830c <__bss_end__+0x9e1a4>
    2ef0:	00000701 	andeq	r0, r0, r1, lsl #14
    2ef4:	0004f21d 	andeq	pc, r4, sp, lsl r2	; <UNPREDICTABLE>
    2ef8:	029e0600 	addseq	r0, lr, #0, 12
    2efc:	0008460b 	andeq	r4, r8, fp, lsl #12
    2f00:	350a0000 	strcc	r0, [sl, #-0]
    2f04:	c2000001 	andgt	r0, r0, #1
    2f08:	0b000008 	bleq	2f30 <_start-0x50d0>
    2f0c:	0000002c 	andeq	r0, r0, ip, lsr #32
    2f10:	84060018 	strhi	r0, [r6], #-24	; 0xffffffe8
    2f14:	05000000 	streq	r0, [r0, #-0]
    2f18:	0008c204 	andeq	ip, r8, r4, lsl #4
    2f1c:	08d81e00 	ldmeq	r8, {r9, sl, fp, ip}^
    2f20:	84160000 	ldrhi	r0, [r6], #-0
    2f24:	00000004 	andeq	r0, r0, r4
    2f28:	08cd0405 	stmiaeq	sp, {r0, r2, sl}^
    2f2c:	04050000 	streq	r0, [r5], #-0
    2f30:	000001a7 	andeq	r0, r0, r7, lsr #3
    2f34:	0008ef1e 	andeq	lr, r8, lr, lsl pc
    2f38:	00251600 	eoreq	r1, r5, r0, lsl #12
    2f3c:	05000000 	streq	r0, [r0, #-0]
    2f40:	0008f504 	andeq	pc, r8, r4, lsl #10
    2f44:	e4040500 	str	r0, [r4], #-1280	; 0xfffffb00
    2f48:	0a000008 	beq	2f70 <_start-0x5090>
    2f4c:	00000666 	andeq	r0, r0, r6, ror #12
    2f50:	0000090b 	andeq	r0, r0, fp, lsl #18
    2f54:	00002c0b 	andeq	r2, r0, fp, lsl #24
    2f58:	1f000200 	svcne	0x00000200
    2f5c:	0000048e 	andeq	r0, r0, lr, lsl #9
    2f60:	17032e06 	strne	r2, [r3, -r6, lsl #28]
    2f64:	00000484 	andeq	r0, r0, r4, lsl #9
    2f68:	0004871f 	andeq	r8, r4, pc, lsl r7
    2f6c:	032f0600 			; <UNDEFINED> instruction: 0x032f0600
    2f70:	00048a1d 	andeq	r8, r4, sp, lsl sl
    2f74:	00251500 	eoreq	r1, r5, r0, lsl #10
    2f78:	09340000 	ldmdbeq	r4!, {}	; <UNPREDICTABLE>
    2f7c:	25160000 	ldrcs	r0, [r6, #-0]
    2f80:	00000000 	andeq	r0, r0, r0
    2f84:	0001d120 	andeq	sp, r1, r0, lsr #2
    2f88:	0e1d0700 	cdpeq	7, 1, cr0, cr13, cr0, {0}
    2f8c:	00000940 	andeq	r0, r0, r0, asr #18
    2f90:	09250405 	stmdbeq	r5!, {r0, r2, sl}
    2f94:	25150000 	ldrcs	r0, [r5, #-0]
    2f98:	55000000 	strpl	r0, [r0, #-0]
    2f9c:	16000009 	strne	r0, [r0], -r9
    2fa0:	000005fc 	strdeq	r0, [r0], -ip
    2fa4:	07732000 	ldrbeq	r2, [r3, -r0]!
    2fa8:	22070000 	andcs	r0, r7, #0
    2fac:	0009610e 	andeq	r6, r9, lr, lsl #2
    2fb0:	46040500 	strmi	r0, [r4], -r0, lsl #10
    2fb4:	21000009 	tstcs	r0, r9
    2fb8:	00000551 	andeq	r0, r0, r1, asr r5
    2fbc:	690a0f01 	stmdbvs	sl, {r0, r8, r9, sl, fp}
    2fc0:	10000000 	andne	r0, r0, r0
    2fc4:	ec00008a 	stc	0, cr0, [r0], {138}	; 0x8a
    2fc8:	01000000 	mrseq	r0, (UNDEF: 0)
    2fcc:	0009fa9c 	muleq	r9, ip, sl
    2fd0:	0afa2200 	beq	ffe8b7d8 <__bss_end__+0xffe81670>
    2fd4:	0f010000 	svceq	0x00010000
    2fd8:	0009fa21 	andeq	pc, r9, r1, lsr #20
    2fdc:	0008f000 	andeq	pc, r8, r0
    2fe0:	0008e800 	andeq	lr, r8, r0, lsl #16
    2fe4:	656c2300 	strbvs	r2, [ip, #-768]!	; 0xfffffd00
    2fe8:	0f01006e 	svceq	0x0001006e
    2fec:	0000252c 	andeq	r2, r0, ip, lsr #10
    2ff0:	00093400 	andeq	r3, r9, r0, lsl #8
    2ff4:	00092a00 	andeq	r2, r9, r0, lsl #20
    2ff8:	0afb2400 	beq	ffecc000 <__bss_end__+0xffec1e98>
    2ffc:	10010000 	andne	r0, r1, r0
    3000:	0005fc12 	andeq	pc, r5, r2, lsl ip	; <UNPREDICTABLE>
    3004:	00097b00 	andeq	r7, r9, r0, lsl #22
    3008:	00097300 	andeq	r7, r9, r0, lsl #6
    300c:	05562400 	ldrbeq	r2, [r6, #-1024]	; 0xfffffc00
    3010:	11010000 	mrsne	r0, (UNDEF: 1)
    3014:	0000690a 	andeq	r6, r0, sl, lsl #18
    3018:	0009c000 	andeq	ip, r9, r0
    301c:	0009b200 	andeq	fp, r9, r0, lsl #4
    3020:	6d742500 	cfldr64vs	mvdx2, [r4, #-0]
    3024:	11010070 	tstne	r1, r0, ror r0
    3028:	00006916 	andeq	r6, r0, r6, lsl r9
    302c:	000a1b00 	andeq	r1, sl, r0, lsl #22
    3030:	000a1500 	andeq	r1, sl, r0, lsl #10
    3034:	65722500 	ldrbvs	r2, [r2, #-1280]!	; 0xfffffb00
    3038:	1201006d 	andne	r0, r1, #109	; 0x6d
    303c:	00002505 	andeq	r2, r0, r5, lsl #10
    3040:	000a6800 	andeq	r6, sl, r0, lsl #16
    3044:	000a6600 	andeq	r6, sl, r0, lsl #12
    3048:	04050000 	streq	r0, [r5], #-0
    304c:	00000a00 	andeq	r0, r0, r0, lsl #20
    3050:	097c0026 	ldmdbeq	ip!, {r1, r2, r5}^
    3054:	00040000 	andeq	r0, r4, r0
    3058:	00000817 	andeq	r0, r0, r7, lsl r8
    305c:	02fd0104 	rscseq	r0, sp, #4, 2
    3060:	ef0c0000 	svc	0x000c0000
    3064:	cc000006 	stcgt	0, cr0, [r0], {6}
    3068:	fc000006 	stc2	0, cr0, [r0], {6}
    306c:	1800008a 	stmdane	r0, {r1, r3, r7}
    3070:	6f000000 	svcvs	0x00000000
    3074:	0200000b 	andeq	r0, r0, #11
    3078:	6e690504 	cdpvs	5, 6, cr0, cr9, cr4, {0}
    307c:	e8030074 	stmda	r3, {r2, r4, r5, r6}
    3080:	02000006 	andeq	r0, r0, #6
    3084:	003817d1 	ldrsbteq	r1, [r8], -r1
    3088:	04040000 	streq	r0, [r4], #-0
    308c:	00006607 	andeq	r6, r0, r7, lsl #12
    3090:	06010400 	streq	r0, [r1], -r0, lsl #8
    3094:	000002ec 	andeq	r0, r0, ip, ror #5
    3098:	ea080104 	b	2034b0 <__bss_end__+0x1f9348>
    309c:	04000002 	streq	r0, [r0], #-2
    30a0:	03850502 	orreq	r0, r5, #8388608	; 0x800000
    30a4:	02040000 	andeq	r0, r4, #0
    30a8:	00022207 	andeq	r2, r2, r7, lsl #4
    30ac:	05040400 	streq	r0, [r4, #-1024]	; 0xfffffc00
    30b0:	000000ac 	andeq	r0, r0, ip, lsr #1
    30b4:	61070404 	tstvs	r7, r4, lsl #8
    30b8:	04000000 	streq	r0, [r0], #-0
    30bc:	00a70508 	adceq	r0, r7, r8, lsl #10
    30c0:	08040000 	stmdaeq	r4, {}	; <UNPREDICTABLE>
    30c4:	00005c07 	andeq	r5, r0, r7, lsl #24
    30c8:	02650300 	rsbeq	r0, r5, #0, 6
    30cc:	22030000 	andcs	r0, r3, #0
    30d0:	00008319 	andeq	r8, r0, r9, lsl r3
    30d4:	89040500 	stmdbhi	r4, {r8, sl}
    30d8:	06000000 	streq	r0, [r0], -r0
    30dc:	0000042b 	andeq	r0, r0, fp, lsr #8
    30e0:	0002cb03 	andeq	ip, r2, r3, lsl #22
    30e4:	0e2c0400 	cdpeq	4, 2, cr0, cr12, cr0, {0}
    30e8:	0000005b 	andeq	r0, r0, fp, asr r0
    30ec:	00044003 	andeq	r4, r4, r3
    30f0:	0e720400 	cdpeq	4, 7, cr0, cr2, cr0, {0}
    30f4:	0000005b 	andeq	r0, r0, fp, asr r0
    30f8:	00026d07 	andeq	r6, r2, r7, lsl #26
    30fc:	015e0200 	cmpeq	lr, r0, lsl #4
    3100:	00003817 	andeq	r3, r0, r7, lsl r8
    3104:	04040800 	streq	r0, [r4], #-2048	; 0xfffff800
    3108:	00d503a6 	sbcseq	r0, r5, r6, lsr #7
    310c:	5f090000 	svcpl	0x00090000
    3110:	04000002 	streq	r0, [r0], #-2
    3114:	00a60ca8 	adceq	r0, r6, r8, lsr #25
    3118:	e2090000 	and	r0, r9, #0
    311c:	04000001 	streq	r0, [r0], #-1
    3120:	00d513a9 	sbcseq	r1, r5, r9, lsr #7
    3124:	0a000000 	beq	312c <_start-0x4ed4>
    3128:	00000046 	andeq	r0, r0, r6, asr #32
    312c:	000000e5 	andeq	r0, r0, r5, ror #1
    3130:	0000380b 	andeq	r3, r0, fp, lsl #16
    3134:	0c000300 	stceq	3, cr0, [r0], {-0}
    3138:	09a30408 	stmibeq	r3!, {r3, sl}
    313c:	00000109 	andeq	r0, r0, r9, lsl #2
    3140:	0004230d 	andeq	r2, r4, sp, lsl #6
    3144:	07a50400 	streq	r0, [r5, r0, lsl #8]!
    3148:	00000025 	andeq	r0, r0, r5, lsr #32
    314c:	04320d00 	ldrteq	r0, [r2], #-3328	; 0xfffff300
    3150:	aa040000 	bge	103158 <__bss_end__+0xf8ff0>
    3154:	0000b305 	andeq	fp, r0, r5, lsl #6
    3158:	03000400 	movweq	r0, #1024	; 0x400
    315c:	000003ad 	andeq	r0, r0, sp, lsr #7
    3160:	e503ab04 	str	sl, [r3, #-2820]	; 0xfffff4fc
    3164:	03000000 	movweq	r0, #0
    3168:	0000019f 	muleq	r0, pc, r1	; <UNPREDICTABLE>
    316c:	771baf04 	ldrvc	sl, [fp, -r4, lsl #30]
    3170:	0e000000 	cdpeq	0, 0, cr0, cr0, cr0, {0}
    3174:	29040504 	stmdbcs	r4, {r2, r8, sl}
    3178:	04000001 	streq	r0, [r0], #-1
    317c:	02f30801 	rscseq	r0, r3, #65536	; 0x10000
    3180:	290f0000 	stmdbcs	pc, {}	; <UNPREDICTABLE>
    3184:	03000001 	movweq	r0, #1
    3188:	00000472 	andeq	r0, r0, r2, ror r4
    318c:	62191605 	andsvs	r1, r9, #5242880	; 0x500000
    3190:	10000000 	andne	r0, r0, r0
    3194:	000001b0 			; <UNDEFINED> instruction: 0x000001b0
    3198:	082f0518 	stmdaeq	pc!, {r3, r4, r8, sl}	; <UNPREDICTABLE>
    319c:	0000019b 	muleq	r0, fp, r1
    31a0:	0003ce0d 	andeq	ip, r3, sp, lsl #28
    31a4:	13310500 	teqne	r1, #0, 10
    31a8:	0000019b 	muleq	r0, fp, r1
    31ac:	6b5f1100 	blvs	17c75b4 <__bss_end__+0x17bd44c>
    31b0:	07320500 	ldreq	r0, [r2, -r0, lsl #10]!
    31b4:	00000025 	andeq	r0, r0, r5, lsr #32
    31b8:	040e0d04 	streq	r0, [lr], #-3332	; 0xfffff2fc
    31bc:	32050000 	andcc	r0, r5, #0
    31c0:	0000250b 	andeq	r2, r0, fp, lsl #10
    31c4:	990d0800 	stmdbls	sp, {fp}
    31c8:	05000001 	streq	r0, [r0, #-1]
    31cc:	00251432 	eoreq	r1, r5, r2, lsr r4
    31d0:	0d0c0000 	stceq	0, cr0, [ip, #-0]
    31d4:	000004b2 			; <UNDEFINED> instruction: 0x000004b2
    31d8:	251b3205 	ldrcs	r3, [fp, #-517]	; 0xfffffdfb
    31dc:	10000000 	andne	r0, r0, r0
    31e0:	00785f11 	rsbseq	r5, r8, r1, lsl pc
    31e4:	a10b3305 	tstge	fp, r5, lsl #6
    31e8:	14000001 	strne	r0, [r0], #-1
    31ec:	41040500 	tstmi	r4, r0, lsl #10
    31f0:	0a000001 	beq	31fc <_start-0x4e04>
    31f4:	00000135 	andeq	r0, r0, r5, lsr r1
    31f8:	000001b1 			; <UNDEFINED> instruction: 0x000001b1
    31fc:	0000380b 	andeq	r3, r0, fp, lsl #16
    3200:	10000000 	andne	r0, r0, r0
    3204:	000001dd 	ldrdeq	r0, [r0], -sp
    3208:	08370524 	ldmdaeq	r7!, {r2, r5, r8, sl}
    320c:	00000234 	andeq	r0, r0, r4, lsr r2
    3210:	00009e0d 	andeq	r9, r0, sp, lsl #28
    3214:	09390500 	ldmdbeq	r9!, {r8, sl}
    3218:	00000025 	andeq	r0, r0, r5, lsr #32
    321c:	04480d00 	strbeq	r0, [r8], #-3328	; 0xfffff300
    3220:	3a050000 	bcc	143228 <__bss_end__+0x1390c0>
    3224:	00002509 	andeq	r2, r0, r9, lsl #10
    3228:	c10d0400 	tstgt	sp, r0, lsl #8
    322c:	05000000 	streq	r0, [r0, #-0]
    3230:	0025093b 	eoreq	r0, r5, fp, lsr r9
    3234:	0d080000 	stceq	0, cr0, [r8, #-0]
    3238:	00000533 	andeq	r0, r0, r3, lsr r5
    323c:	25093c05 	strcs	r3, [r9, #-3077]	; 0xfffff3fb
    3240:	0c000000 	stceq	0, cr0, [r0], {-0}
    3244:	0002af0d 	andeq	sl, r2, sp, lsl #30
    3248:	093d0500 	ldmdbeq	sp!, {r8, sl}
    324c:	00000025 	andeq	r0, r0, r5, lsr #32
    3250:	02830d10 	addeq	r0, r3, #16, 26	; 0x400
    3254:	3e050000 	cdpcc	0, 0, cr0, cr5, cr0, {0}
    3258:	00002509 	andeq	r2, r0, r9, lsl #10
    325c:	b70d1400 	strlt	r1, [sp, -r0, lsl #8]
    3260:	05000004 	streq	r0, [r0, #-4]
    3264:	0025093f 	eoreq	r0, r5, pc, lsr r9
    3268:	0d180000 	ldceq	0, cr0, [r8, #-0]
    326c:	0000038f 	andeq	r0, r0, pc, lsl #7
    3270:	25094005 	strcs	r4, [r9, #-5]
    3274:	1c000000 	stcne	0, cr0, [r0], {-0}
    3278:	0004fa0d 	andeq	pc, r4, sp, lsl #20
    327c:	09410500 	stmdbeq	r1, {r8, sl}^
    3280:	00000025 	andeq	r0, r0, r5, lsr #32
    3284:	01120020 	tsteq	r2, r0, lsr #32
    3288:	08000001 	stmdaeq	r0, {r0}
    328c:	084a0501 	stmdaeq	sl, {r0, r8, sl}^
    3290:	00000279 	andeq	r0, r0, r9, ror r2
    3294:	00018c0d 	andeq	r8, r1, sp, lsl #24
    3298:	0a4b0500 	beq	12c46a0 <__bss_end__+0x12ba538>
    329c:	00000279 	andeq	r0, r0, r9, ror r2
    32a0:	00000d00 	andeq	r0, r0, r0, lsl #26
    32a4:	4c050000 	stcmi	0, cr0, [r5], {-0}
    32a8:	00027909 	andeq	r7, r2, r9, lsl #18
    32ac:	64138000 	ldrvs	r8, [r3], #-0
    32b0:	05000004 	streq	r0, [r0, #-4]
    32b4:	01350a4e 	teqeq	r5, lr, asr #20
    32b8:	01000000 	mrseq	r0, (UNDEF: 0)
    32bc:	00012613 	andeq	r2, r1, r3, lsl r6
    32c0:	0a510500 	beq	14446c8 <__bss_end__+0x143a560>
    32c4:	00000135 	andeq	r0, r0, r5, lsr r1
    32c8:	0a000104 	beq	36e0 <_start-0x4920>
    32cc:	00000121 	andeq	r0, r0, r1, lsr #2
    32d0:	00000289 	andeq	r0, r0, r9, lsl #5
    32d4:	0000380b 	andeq	r3, r0, fp, lsl #16
    32d8:	12001f00 	andne	r1, r0, #0, 30
    32dc:	000002b8 			; <UNDEFINED> instruction: 0x000002b8
    32e0:	5d050190 	stfpls	f0, [r5, #-576]	; 0xfffffdc0
    32e4:	0002cc08 	andeq	ip, r2, r8, lsl #24
    32e8:	03ce0d00 	biceq	r0, lr, #0, 26
    32ec:	5e050000 	cdppl	0, 0, cr0, cr5, cr0, {0}
    32f0:	0002cc12 	andeq	ip, r2, r2, lsl ip
    32f4:	e60d0000 	str	r0, [sp], -r0
    32f8:	05000003 	streq	r0, [r0, #-3]
    32fc:	0025065f 	eoreq	r0, r5, pc, asr r6
    3300:	0d040000 	stceq	0, cr0, [r4, #-0]
    3304:	00000194 	muleq	r0, r4, r1
    3308:	d2096105 	andle	r6, r9, #1073741825	; 0x40000001
    330c:	08000002 	stmdaeq	r0, {r1}
    3310:	0001010d 	andeq	r0, r1, sp, lsl #2
    3314:	1e620500 	cdpne	5, 6, cr0, cr2, cr0, {0}
    3318:	00000234 	andeq	r0, r0, r4, lsr r2
    331c:	04050088 	streq	r0, [r5], #-136	; 0xffffff78
    3320:	00000289 	andeq	r0, r0, r9, lsl #5
    3324:	0002e20a 	andeq	lr, r2, sl, lsl #4
    3328:	0002e200 	andeq	lr, r2, r0, lsl #4
    332c:	00380b00 	eorseq	r0, r8, r0, lsl #22
    3330:	001f0000 	andseq	r0, pc, r0
    3334:	02e80405 	rsceq	r0, r8, #83886080	; 0x5000000
    3338:	10140000 	andsne	r0, r4, r0
    333c:	00000399 	muleq	r0, r9, r3
    3340:	08750508 	ldmdaeq	r5!, {r3, r8, sl}^
    3344:	00000311 	andeq	r0, r0, r1, lsl r3
    3348:	0000bb0d 	andeq	fp, r0, sp, lsl #22
    334c:	11760500 	cmnne	r6, r0, lsl #10
    3350:	00000311 	andeq	r0, r0, r1, lsl r3
    3354:	001b0d00 	andseq	r0, fp, r0, lsl #26
    3358:	77050000 	strvc	r0, [r5, -r0]
    335c:	00002506 	andeq	r2, r0, r6, lsl #10
    3360:	05000400 	streq	r0, [r0, #-1024]	; 0xfffffc00
    3364:	00004604 	andeq	r4, r0, r4, lsl #12
    3368:	03b81000 			; <UNDEFINED> instruction: 0x03b81000
    336c:	05680000 	strbeq	r0, [r8, #-0]!
    3370:	045a08b5 	ldrbeq	r0, [sl], #-2229	; 0xfffff74b
    3374:	5f110000 	svcpl	0x00110000
    3378:	b6050070 			; <UNDEFINED> instruction: 0xb6050070
    337c:	00031112 	andeq	r1, r3, r2, lsl r1
    3380:	5f110000 	svcpl	0x00110000
    3384:	b7050072 	smlsdxlt	r5, r2, r0, r0
    3388:	00002507 	andeq	r2, r0, r7, lsl #10
    338c:	5f110400 	svcpl	0x00110400
    3390:	b8050077 	stmdalt	r5, {r0, r1, r2, r4, r5, r6}
    3394:	00002507 	andeq	r2, r0, r7, lsl #10
    3398:	1f0d0800 	svcne	0x000d0800
    339c:	05000001 	streq	r0, [r0, #-1]
    33a0:	004d09b9 	strheq	r0, [sp], #-153	; 0xffffff67
    33a4:	0d0c0000 	stceq	0, cr0, [ip, #-0]
    33a8:	00000208 	andeq	r0, r0, r8, lsl #4
    33ac:	4d09ba05 	vstrmi	s22, [r9, #-20]	; 0xffffffec
    33b0:	0e000000 	cdpeq	0, 0, cr0, cr0, cr0, {0}
    33b4:	66625f11 	uqadd16vs	r5, r2, r1
    33b8:	11bb0500 			; <UNDEFINED> instruction: 0x11bb0500
    33bc:	000002e9 	andeq	r0, r0, r9, ror #5
    33c0:	007b0d10 	rsbseq	r0, fp, r0, lsl sp
    33c4:	bc050000 	stclt	0, cr0, [r5], {-0}
    33c8:	00002507 	andeq	r2, r0, r7, lsl #10
    33cc:	0f0d1800 	svceq	0x000d1800
    33d0:	05000001 	streq	r0, [r0, #-1]
    33d4:	01210ac3 	smlawteq	r1, r3, sl, r0
    33d8:	0d1c0000 	ldceq	0, cr0, [ip, #-0]
    33dc:	00000b59 	andeq	r0, r0, r9, asr fp
    33e0:	cc1dc505 	cfldr32gt	mvfx12, [sp], {5}
    33e4:	20000005 	andcs	r0, r0, r5
    33e8:	00061d0d 	andeq	r1, r6, sp, lsl #26
    33ec:	1dc70500 	cfstr64ne	mvdx0, [r7]
    33f0:	000005f6 	strdeq	r0, [r0], -r6
    33f4:	043a0d24 	ldrteq	r0, [sl], #-3364	; 0xfffff2dc
    33f8:	ca050000 	bgt	143400 <__bss_end__+0x139298>
    33fc:	00061a0d 	andeq	r1, r6, sp, lsl #20
    3400:	140d2800 	strne	r2, [sp], #-2048	; 0xfffff800
    3404:	05000005 	streq	r0, [r0, #-5]
    3408:	063409cb 	ldrteq	r0, [r4], -fp, asr #19
    340c:	112c0000 			; <UNDEFINED> instruction: 0x112c0000
    3410:	0062755f 	rsbeq	r7, r2, pc, asr r5
    3414:	e911ce05 	ldmdb	r1, {r0, r2, r9, sl, fp, lr, pc}
    3418:	30000002 	andcc	r0, r0, r2
    341c:	70755f11 	rsbsvc	r5, r5, r1, lsl pc
    3420:	12cf0500 	sbcne	r0, pc, #0, 10
    3424:	00000311 	andeq	r0, r0, r1, lsl r3
    3428:	755f1138 	ldrbvc	r1, [pc, #-312]	; 32f8 <_start-0x4d08>
    342c:	d0050072 	andle	r0, r5, r2, ror r0
    3430:	00002507 	andeq	r2, r0, r7, lsl #10
    3434:	b50d3c00 	strlt	r3, [sp, #-3072]	; 0xfffff400
    3438:	05000000 	streq	r0, [r0, #-0]
    343c:	063a11d3 			; <UNDEFINED> instruction: 0x063a11d3
    3440:	0d400000 	stcleq	0, cr0, [r0, #-0]
    3444:	000004ec 	andeq	r0, r0, ip, ror #9
    3448:	4a11d405 	bmi	478464 <__bss_end__+0x46e2fc>
    344c:	43000006 	movwmi	r0, #6
    3450:	626c5f11 	rsbvs	r5, ip, #17, 30	; 0x44
    3454:	11d70500 	bicsne	r0, r7, r0, lsl #10
    3458:	000002e9 	andeq	r0, r0, r9, ror #5
    345c:	013d0d44 	teqeq	sp, r4, asr #26
    3460:	da050000 	ble	143468 <__bss_end__+0x139300>
    3464:	00002507 	andeq	r2, r0, r7, lsl #10
    3468:	4e0d4c00 	cdpmi	12, 0, cr4, cr13, cr0, {0}
    346c:	05000001 	streq	r0, [r0, #-1]
    3470:	008e0adb 	ldrdeq	r0, [lr], fp
    3474:	0d500000 	ldcleq	0, cr0, [r0, #-0]
    3478:	00000afa 	strdeq	r0, [r0], -sl
    347c:	7812de05 	ldmdavc	r2, {r0, r2, r9, sl, fp, ip, lr, pc}
    3480:	54000004 	strpl	r0, [r0], #-4
    3484:	00042c0d 	andeq	r2, r4, sp, lsl #24
    3488:	0ce20500 	cfstr64eq	mvdx0, [r2]
    348c:	00000115 	andeq	r0, r0, r5, lsl r1
    3490:	03c00d58 	biceq	r0, r0, #88, 26	; 0x1600
    3494:	e4050000 	str	r0, [r5], #-0
    3498:	0001090e 	andeq	r0, r1, lr, lsl #18
    349c:	7b0d5c00 	blvc	35a4a4 <__bss_end__+0x35033c>
    34a0:	05000002 	streq	r0, [r0, #-2]
    34a4:	002509e5 	eoreq	r0, r5, r5, ror #19
    34a8:	00640000 	rsbeq	r0, r4, r0
    34ac:	00002515 	andeq	r2, r0, r5, lsl r5
    34b0:	00047800 	andeq	r7, r4, r0, lsl #16
    34b4:	04781600 	ldrbteq	r1, [r8], #-1536	; 0xfffffa00
    34b8:	21160000 	tstcs	r6, r0
    34bc:	16000001 	strne	r0, [r0], -r1
    34c0:	00000123 	andeq	r0, r0, r3, lsr #2
    34c4:	00002516 	andeq	r2, r0, r6, lsl r5
    34c8:	04050000 	streq	r0, [r5], #-0
    34cc:	00000483 	andeq	r0, r0, r3, lsl #9
    34d0:	0004780f 	andeq	r7, r4, pc, lsl #16
    34d4:	04161700 	ldreq	r1, [r6], #-1792	; 0xfffff900
    34d8:	04280000 	strteq	r0, [r8], #-0
    34dc:	08026005 	stmdaeq	r2, {r0, r2, sp, lr}
    34e0:	000005cc 	andeq	r0, r0, ip, asr #11
    34e4:	00037e18 	andeq	r7, r3, r8, lsl lr
    34e8:	02620500 	rsbeq	r0, r2, #0, 10
    34ec:	00002507 	andeq	r2, r0, r7, lsl #10
    34f0:	2e180000 	cdpcs	0, 1, cr0, cr8, cr0, {0}
    34f4:	05000001 	streq	r0, [r0, #-1]
    34f8:	a60b0267 	strge	r0, [fp], -r7, ror #4
    34fc:	04000006 	streq	r0, [r0], #-6
    3500:	0001f818 	andeq	pc, r1, r8, lsl r8	; <UNPREDICTABLE>
    3504:	02670500 	rsbeq	r0, r7, #0, 10
    3508:	0006a614 	andeq	sl, r6, r4, lsl r6
    350c:	a8180800 	ldmdage	r8, {fp}
    3510:	05000001 	streq	r0, [r0, #-1]
    3514:	a61e0267 	ldrge	r0, [lr], -r7, ror #4
    3518:	0c000006 	stceq	0, cr0, [r0], {6}
    351c:	0003e118 	andeq	lr, r3, r8, lsl r1
    3520:	02690500 	rsbeq	r0, r9, #0, 10
    3524:	00002508 	andeq	r2, r0, r8, lsl #10
    3528:	29181000 	ldmdbcs	r8, {ip}
    352c:	05000000 	streq	r0, [r0, #-0]
    3530:	a608026a 	strge	r0, [r8], -sl, ror #4
    3534:	14000008 	strne	r0, [r0], #-8
    3538:	0003f518 	andeq	pc, r3, r8, lsl r5	; <UNPREDICTABLE>
    353c:	026d0500 	rsbeq	r0, sp, #0, 10
    3540:	00002507 	andeq	r2, r0, r7, lsl #10
    3544:	36183000 	ldrcc	r3, [r8], -r0
    3548:	0500000a 	streq	r0, [r0, #-10]
    354c:	bb16026e 	bllt	583f0c <__bss_end__+0x579da4>
    3550:	34000008 	strcc	r0, [r0], #-8
    3554:	0002c018 	andeq	ip, r2, r8, lsl r0
    3558:	02700500 	rsbseq	r0, r0, #0, 10
    355c:	00002507 	andeq	r2, r0, r7, lsl #10
    3560:	eb183800 	bl	611568 <__bss_end__+0x607400>
    3564:	05000003 	streq	r0, [r0, #-3]
    3568:	cc0a0272 	sfmgt	f0, 4, [sl], {114}	; 0x72
    356c:	3c000008 	stccc	0, cr0, [r0], {8}
    3570:	00025718 	andeq	r5, r2, r8, lsl r7
    3574:	02750500 	rsbseq	r0, r5, #0, 10
    3578:	00019b13 	andeq	r9, r1, r3, lsl fp
    357c:	c7184000 	ldrgt	r4, [r8, -r0]
    3580:	05000001 	streq	r0, [r0, #-1]
    3584:	25070276 	strcs	r0, [r7, #-630]	; 0xfffffd8a
    3588:	44000000 	strmi	r0, [r0], #-0
    358c:	00052e18 	andeq	r2, r5, r8, lsl lr
    3590:	02770500 	rsbseq	r0, r7, #0, 10
    3594:	00019b13 	andeq	r9, r1, r3, lsl fp
    3598:	d2184800 	andsle	r4, r8, #0, 16
    359c:	05000002 	streq	r0, [r0, #-2]
    35a0:	d2140278 	andsle	r0, r4, #120, 4	; 0x80000007
    35a4:	4c000008 	stcmi	0, cr0, [r0], {8}
    35a8:	00020018 	andeq	r0, r2, r8, lsl r0
    35ac:	027b0500 	rsbseq	r0, fp, #0, 10
    35b0:	00002507 	andeq	r2, r0, r7, lsl #10
    35b4:	46185000 	ldrmi	r5, [r8], -r0
    35b8:	05000001 	streq	r0, [r0, #-1]
    35bc:	2309027c 	movwcs	r0, #37500	; 0x927c
    35c0:	54000001 	strpl	r0, [r0], #-1
    35c4:	0002f818 	andeq	pc, r2, r8, lsl r8	; <UNPREDICTABLE>
    35c8:	029f0500 	addseq	r0, pc, #0, 10
    35cc:	00088107 	andeq	r8, r8, r7, lsl #2
    35d0:	b8195800 	ldmdalt	r9, {fp, ip, lr}
    35d4:	05000002 	streq	r0, [r0, #-2]
    35d8:	cc1302a3 	lfmgt	f0, 4, [r3], {163}	; 0xa3
    35dc:	48000002 	stmdami	r0, {r1}
    35e0:	02351901 	eorseq	r1, r5, #16384	; 0x4000
    35e4:	a4050000 	strge	r0, [r5], #-0
    35e8:	02891202 	addeq	r1, r9, #536870912	; 0x20000000
    35ec:	014c0000 	mrseq	r0, (UNDEF: 76)
    35f0:	0004da19 	andeq	sp, r4, r9, lsl sl
    35f4:	02a80500 	adceq	r0, r8, #0, 10
    35f8:	0008e30c 	andeq	lr, r8, ip, lsl #6
    35fc:	1902dc00 	stmdbne	r2, {sl, fp, ip, lr, pc}
    3600:	00000117 	andeq	r0, r0, r7, lsl r1
    3604:	1002ad05 	andne	sl, r2, r5, lsl #26
    3608:	00000667 	andeq	r0, r0, r7, ror #12
    360c:	fc1902e0 	ldc2	2, cr0, [r9], {224}	; 0xe0
    3610:	05000000 	streq	r0, [r0, #-0]
    3614:	ef0a02af 	svc	0x000a02af
    3618:	ec000008 	stc	0, cr0, [r0], {8}
    361c:	04050002 	streq	r0, [r5], #-2
    3620:	0000045a 	andeq	r0, r0, sl, asr r4
    3624:	00002515 	andeq	r2, r0, r5, lsl r5
    3628:	0005f000 	andeq	pc, r5, r0
    362c:	04781600 	ldrbteq	r1, [r8], #-1536	; 0xfffffa00
    3630:	21160000 	tstcs	r6, r0
    3634:	16000001 	strne	r0, [r0], -r1
    3638:	000005f0 	strdeq	r0, [r0], -r0	; <UNPREDICTABLE>
    363c:	00002516 	andeq	r2, r0, r6, lsl r5
    3640:	04050000 	streq	r0, [r5], #-0
    3644:	00000130 	andeq	r0, r0, r0, lsr r1
    3648:	05d20405 	ldrbeq	r0, [r2, #1029]	; 0x405
    364c:	9a150000 	bls	543654 <__bss_end__+0x5394ec>
    3650:	1a000000 	bne	3658 <_start-0x49a8>
    3654:	16000006 	strne	r0, [r0], -r6
    3658:	00000478 	andeq	r0, r0, r8, ror r4
    365c:	00012116 	andeq	r2, r1, r6, lsl r1
    3660:	009a1600 	addseq	r1, sl, r0, lsl #12
    3664:	25160000 	ldrcs	r0, [r6, #-0]
    3668:	00000000 	andeq	r0, r0, r0
    366c:	05fc0405 	ldrbeq	r0, [ip, #1029]!	; 0x405
    3670:	25150000 	ldrcs	r0, [r5, #-0]
    3674:	34000000 	strcc	r0, [r0], #-0
    3678:	16000006 	strne	r0, [r0], -r6
    367c:	00000478 	andeq	r0, r0, r8, ror r4
    3680:	00012116 	andeq	r2, r1, r6, lsl r1
    3684:	04050000 	streq	r0, [r5], #-0
    3688:	00000620 	andeq	r0, r0, r0, lsr #12
    368c:	0000460a 	andeq	r4, r0, sl, lsl #12
    3690:	00064a00 	andeq	r4, r6, r0, lsl #20
    3694:	00380b00 	eorseq	r0, r8, r0, lsl #22
    3698:	00020000 	andeq	r0, r2, r0
    369c:	0000460a 	andeq	r4, r0, sl, lsl #12
    36a0:	00065a00 	andeq	r5, r6, r0, lsl #20
    36a4:	00380b00 	eorseq	r0, r8, r0, lsl #22
    36a8:	00000000 	andeq	r0, r0, r0
    36ac:	0003a607 	andeq	sl, r3, r7, lsl #12
    36b0:	011f0500 	tsteq	pc, r0, lsl #10
    36b4:	0003171a 	andeq	r1, r3, sl, lsl r7
    36b8:	04c11a00 	strbeq	r1, [r1], #2560	; 0xa00
    36bc:	050c0000 	streq	r0, [ip, #-0]
    36c0:	a0080123 	andge	r0, r8, r3, lsr #2
    36c4:	18000006 	stmdane	r0, {r1, r2}
    36c8:	000003ce 	andeq	r0, r0, lr, asr #7
    36cc:	11012505 	tstne	r1, r5, lsl #10
    36d0:	000006a0 	andeq	r0, r0, r0, lsr #13
    36d4:	021b1800 	andseq	r1, fp, #0, 16
    36d8:	26050000 	strcs	r0, [r5], -r0
    36dc:	00250701 	eoreq	r0, r5, r1, lsl #14
    36e0:	18040000 	stmdane	r4, {}	; <UNPREDICTABLE>
    36e4:	000003a0 	andeq	r0, r0, r0, lsr #7
    36e8:	0b012705 	bleq	4d304 <__bss_end__+0x4319c>
    36ec:	000006a6 	andeq	r0, r0, r6, lsr #13
    36f0:	04050008 	streq	r0, [r5], #-8
    36f4:	00000667 	andeq	r0, r0, r7, ror #12
    36f8:	065a0405 	ldrbeq	r0, [sl], -r5, lsl #8
    36fc:	211a0000 	tstcs	sl, r0
    3700:	0e000000 	cdpeq	0, 0, cr0, cr0, cr0, {0}
    3704:	08013f05 	stmdaeq	r1, {r0, r2, r8, r9, sl, fp, ip, sp}
    3708:	000006e5 	andeq	r0, r0, r5, ror #13
    370c:	00041d18 	andeq	r1, r4, r8, lsl sp
    3710:	01400500 	cmpeq	r0, r0, lsl #10
    3714:	0006e512 	andeq	lr, r6, r2, lsl r5
    3718:	51180000 	tstpl	r8, r0
    371c:	05000004 	streq	r0, [r0, #-4]
    3720:	e5120141 	ldr	r0, [r2, #-321]	; 0xfffffebf
    3724:	06000006 	streq	r0, [r0], -r6
    3728:	00046d18 	andeq	r6, r4, r8, lsl sp
    372c:	01420500 	cmpeq	r2, r0, lsl #10
    3730:	00005412 	andeq	r5, r0, r2, lsl r4
    3734:	0a000c00 	beq	673c <_start-0x18c4>
    3738:	00000054 	andeq	r0, r0, r4, asr r0
    373c:	000006f5 	strdeq	r0, [r0], -r5
    3740:	0000380b 	andeq	r3, r0, fp, lsl #16
    3744:	1b000200 	blne	3f4c <_start-0x40b4>
    3748:	028005d0 	addeq	r0, r0, #208, 10	; 0x34000000
    374c:	00080a07 	andeq	r0, r8, r7, lsl #20
    3750:	04a51800 	strteq	r1, [r5], #2048	; 0x800
    3754:	82050000 	andhi	r0, r5, #0
    3758:	00381802 	eorseq	r1, r8, r2, lsl #16
    375c:	18000000 	stmdane	r0, {}	; <UNPREDICTABLE>
    3760:	00000457 	andeq	r0, r0, r7, asr r4
    3764:	12028305 	andne	r8, r2, #335544320	; 0x14000000
    3768:	00000123 	andeq	r0, r0, r3, lsr #2
    376c:	024a1804 	subeq	r1, sl, #4, 16	; 0x40000
    3770:	84050000 	strhi	r0, [r5], #-0
    3774:	080a1002 	stmdaeq	sl, {r1, ip}
    3778:	18080000 	stmdane	r8, {}	; <UNPREDICTABLE>
    377c:	00000505 	andeq	r0, r0, r5, lsl #10
    3780:	17028505 	strne	r8, [r2, -r5, lsl #10]
    3784:	000001b1 			; <UNDEFINED> instruction: 0x000001b1
    3788:	01b81824 			; <UNDEFINED> instruction: 0x01b81824
    378c:	86050000 	strhi	r0, [r5], -r0
    3790:	00250f02 	eoreq	r0, r5, r2, lsl #30
    3794:	18480000 	stmdane	r8, {}^	; <UNPREDICTABLE>
    3798:	000003c9 	andeq	r0, r0, r9, asr #7
    379c:	2c028705 	stccs	7, cr8, [r2], {5}
    37a0:	00000070 	andeq	r0, r0, r0, ror r0
    37a4:	051b1850 	ldreq	r1, [fp, #-2128]	; 0xfffff7b0
    37a8:	88050000 	stmdahi	r5, {}	; <UNPREDICTABLE>
    37ac:	06ac1a02 	strteq	r1, [ip], r2, lsl #20
    37b0:	18580000 	ldmdane	r8, {}^	; <UNPREDICTABLE>
    37b4:	000003d4 	ldrdeq	r0, [r0], -r4
    37b8:	16028905 	strne	r8, [r2], -r5, lsl #18
    37bc:	00000109 	andeq	r0, r0, r9, lsl #2
    37c0:	05201868 	streq	r1, [r0, #-2152]!	; 0xfffff798
    37c4:	8a050000 	bhi	1437cc <__bss_end__+0x139664>
    37c8:	01091602 	tsteq	r9, r2, lsl #12
    37cc:	18700000 	ldmdane	r0!, {}^	; <UNPREDICTABLE>
    37d0:	000002dc 	ldrdeq	r0, [r0], -ip
    37d4:	16028b05 	strne	r8, [r2], -r5, lsl #22
    37d8:	00000109 	andeq	r0, r0, r9, lsl #2
    37dc:	04d01878 	ldrbeq	r1, [r0], #2168	; 0x878
    37e0:	8c050000 	stchi	0, cr0, [r5], {-0}
    37e4:	081a1002 	ldmdaeq	sl, {r1, ip}
    37e8:	18800000 	stmne	r0, {}	; <UNPREDICTABLE>
    37ec:	0000023e 	andeq	r0, r0, lr, lsr r2
    37f0:	10028d05 	andne	r8, r2, r5, lsl #26
    37f4:	0000082a 	andeq	r0, r0, sl, lsr #16
    37f8:	047a1888 	ldrbteq	r1, [sl], #-2184	; 0xfffff778
    37fc:	8e050000 	cdphi	0, 0, cr0, cr5, cr0, {0}
    3800:	00250f02 	eoreq	r0, r5, r2, lsl #30
    3804:	18a00000 	stmiane	r0!, {}	; <UNPREDICTABLE>
    3808:	0000017e 	andeq	r0, r0, lr, ror r1
    380c:	16028f05 	strne	r8, [r2], -r5, lsl #30
    3810:	00000109 	andeq	r0, r0, r9, lsl #2
    3814:	008f18a4 	addeq	r1, pc, r4, lsr #17
    3818:	90050000 	andls	r0, r5, r0
    381c:	01091602 	tsteq	r9, r2, lsl #12
    3820:	18ac0000 	stmiane	ip!, {}	; <UNPREDICTABLE>
    3824:	0000016d 	andeq	r0, r0, sp, ror #2
    3828:	16029105 	strne	r9, [r2], -r5, lsl #2
    382c:	00000109 	andeq	r0, r0, r9, lsl #2
    3830:	003c18b4 	ldrhteq	r1, [ip], -r4
    3834:	92050000 	andls	r0, r5, #0
    3838:	01091602 	tsteq	r9, r2, lsl #12
    383c:	18bc0000 	ldmne	ip!, {}	; <UNPREDICTABLE>
    3840:	0000004b 	andeq	r0, r0, fp, asr #32
    3844:	16029305 	strne	r9, [r2], -r5, lsl #6
    3848:	00000109 	andeq	r0, r0, r9, lsl #2
    384c:	037c18c4 	cmneq	ip, #196, 16	; 0xc40000
    3850:	94050000 	strls	r0, [r5], #-0
    3854:	00250802 	eoreq	r0, r5, r2, lsl #16
    3858:	00cc0000 	sbceq	r0, ip, r0
    385c:	0001290a 	andeq	r2, r1, sl, lsl #18
    3860:	00081a00 	andeq	r1, r8, r0, lsl #20
    3864:	00380b00 	eorseq	r0, r8, r0, lsl #22
    3868:	00190000 	andseq	r0, r9, r0
    386c:	0001290a 	andeq	r2, r1, sl, lsl #18
    3870:	00082a00 	andeq	r2, r8, r0, lsl #20
    3874:	00380b00 	eorseq	r0, r8, r0, lsl #22
    3878:	00070000 	andeq	r0, r7, r0
    387c:	0001290a 	andeq	r2, r1, sl, lsl #18
    3880:	00083a00 	andeq	r3, r8, r0, lsl #20
    3884:	00380b00 	eorseq	r0, r8, r0, lsl #22
    3888:	00170000 	andseq	r0, r7, r0
    388c:	9905f01b 	stmdbls	r5, {r0, r1, r3, r4, ip, sp, lr, pc}
    3890:	08610702 	stmdaeq	r1!, {r1, r8, r9, sl}^
    3894:	a8180000 	ldmdage	r8, {}	; <UNPREDICTABLE>
    3898:	05000002 	streq	r0, [r0, #-2]
    389c:	611b029c 			; <UNDEFINED> instruction: 0x611b029c
    38a0:	00000008 	andeq	r0, r0, r8
    38a4:	0004c718 	andeq	ip, r4, r8, lsl r7
    38a8:	029d0500 	addseq	r0, sp, #0, 10
    38ac:	00087118 	andeq	r7, r8, r8, lsl r1
    38b0:	0a007800 	beq	218b8 <__bss_end__+0x17750>
    38b4:	00000311 	andeq	r0, r0, r1, lsl r3
    38b8:	00000871 	andeq	r0, r0, r1, ror r8
    38bc:	0000380b 	andeq	r3, r0, fp, lsl #16
    38c0:	0a001d00 	beq	acc8 <__bss_end__+0xb60>
    38c4:	00000038 	andeq	r0, r0, r8, lsr r0
    38c8:	00000881 	andeq	r0, r0, r1, lsl #17
    38cc:	0000380b 	andeq	r3, r0, fp, lsl #16
    38d0:	1c001d00 	stcne	13, cr1, [r0], {-0}
    38d4:	027e05f0 	rsbseq	r0, lr, #240, 10	; 0x3c000000
    38d8:	0008a603 	andeq	sl, r8, r3, lsl #12
    38dc:	04161d00 	ldreq	r1, [r6], #-3328	; 0xfffff300
    38e0:	95050000 	strls	r0, [r5, #-0]
    38e4:	06f50b02 	ldrbteq	r0, [r5], r2, lsl #22
    38e8:	f21d0000 	vhadd.s16	d0, d13, d0
    38ec:	05000004 	streq	r0, [r0, #-4]
    38f0:	3a0b029e 	bcc	2c4370 <__bss_end__+0x2ba208>
    38f4:	00000008 	andeq	r0, r0, r8
    38f8:	0001290a 	andeq	r2, r1, sl, lsl #18
    38fc:	0008b600 	andeq	fp, r8, r0, lsl #12
    3900:	00380b00 	eorseq	r0, r8, r0, lsl #22
    3904:	00180000 	andseq	r0, r8, r0
    3908:	00008406 	andeq	r8, r0, r6, lsl #8
    390c:	b6040500 	strlt	r0, [r4], -r0, lsl #10
    3910:	1e000008 	cdpne	0, 0, cr0, cr0, cr8, {0}
    3914:	000008cc 	andeq	r0, r0, ip, asr #17
    3918:	00047816 	andeq	r7, r4, r6, lsl r8
    391c:	04050000 	streq	r0, [r5], #-0
    3920:	000008c1 	andeq	r0, r0, r1, asr #17
    3924:	019b0405 	orrseq	r0, fp, r5, lsl #8
    3928:	e31e0000 	tst	lr, #0
    392c:	16000008 	strne	r0, [r0], -r8
    3930:	00000025 	andeq	r0, r0, r5, lsr #32
    3934:	e9040500 	stmdb	r4, {r8, sl}
    3938:	05000008 	streq	r0, [r0, #-8]
    393c:	0008d804 	andeq	sp, r8, r4, lsl #16
    3940:	065a0a00 	ldrbeq	r0, [sl], -r0, lsl #20
    3944:	08ff0000 	ldmeq	pc!, {}^	; <UNPREDICTABLE>
    3948:	380b0000 	stmdacc	fp, {}	; <UNPREDICTABLE>
    394c:	02000000 	andeq	r0, r0, #0
    3950:	048e1f00 	streq	r1, [lr], #3840	; 0xf00
    3954:	2e050000 	cdpcs	0, 0, cr0, cr5, cr0, {0}
    3958:	04781703 	ldrbteq	r1, [r8], #-1795	; 0xfffff8fd
    395c:	871f0000 	ldrhi	r0, [pc, -r0]
    3960:	05000004 	streq	r0, [r0, #-4]
    3964:	7e1d032f 	cdpvc	3, 1, cr0, cr13, cr15, {1}
    3968:	20000004 	andcs	r0, r0, r4
    396c:	0000067d 	andeq	r0, r0, sp, ror r6
    3970:	21092106 	tstcs	r9, r6, lsl #2
    3974:	fc000001 	stc2	0, cr0, [r0], {1}
    3978:	1800008a 	stmdane	r0, {r1, r3, r7}
    397c:	01000000 	mrseq	r0, (UNDEF: 0)
    3980:	705f219c 			; <UNDEFINED> instruction: 0x705f219c
    3984:	14030100 	strne	r0, [r3], #-256	; 0xffffff00
    3988:	00000121 	andeq	r0, r0, r1, lsr #2
    398c:	63215001 			; <UNDEFINED> instruction: 0x63215001
    3990:	1c030100 	stfnes	f0, [r3], {-0}
    3994:	00000025 	andeq	r0, r0, r5, lsr #32
    3998:	6e225101 	sufvss	f5, f2, f1
    399c:	26030100 	strcs	r0, [r3], -r0, lsl #2
    39a0:	0000002c 	andeq	r0, r0, ip, lsr #32
    39a4:	00000a7f 	andeq	r0, r0, pc, ror sl
    39a8:	00000a7b 	andeq	r0, r0, fp, ror sl
    39ac:	01007023 	tsteq	r0, r3, lsr #32
    39b0:	01230b04 			; <UNDEFINED> instruction: 0x01230b04
    39b4:	0aa80000 	beq	fea039bc <__bss_end__+0xfe9f9854>
    39b8:	0aa00000 	beq	fe8039c0 <__bss_end__+0xfe7f9858>
    39bc:	65230000 	strvs	r0, [r3, #-0]!
    39c0:	14040100 	strne	r0, [r4], #-256	; 0xffffff00
    39c4:	00000123 	andeq	r0, r0, r3, lsr #2
    39c8:	00000ae0 	andeq	r0, r0, r0, ror #21
    39cc:	00000ade 	ldrdeq	r0, [r0], -lr
    39d0:	0a2b0000 	beq	ac39d8 <__bss_end__+0xab9870>
    39d4:	00040000 	andeq	r0, r4, r0
    39d8:	00000a0e 	andeq	r0, r0, lr, lsl #20
    39dc:	02fd0104 	rscseq	r0, sp, #4, 2
    39e0:	250c0000 	strcs	r0, [ip, #-0]
    39e4:	cc000007 	stcgt	0, cr0, [r0], {7}
    39e8:	14000006 	strne	r0, [r0], #-6
    39ec:	5800008b 	stmdapl	r0, {r0, r1, r3, r7}
    39f0:	63000000 	movwvs	r0, #0
    39f4:	0200000c 	andeq	r0, r0, #12
    39f8:	00000711 	andeq	r0, r0, r1, lsl r7
    39fc:	311b2802 	tstcc	fp, r2, lsl #16
    3a00:	03000000 	movweq	r0, #0
    3a04:	000006fd 	strdeq	r0, [r0], -sp
    3a08:	48000804 	stmdami	r0, {r2, fp}
    3a0c:	04000000 	streq	r0, [r0], #-0
    3a10:	00000720 	andeq	r0, r0, r0, lsr #14
    3a14:	00000048 	andeq	r0, r0, r8, asr #32
    3a18:	04050000 	streq	r0, [r5], #-0
    3a1c:	0006ff02 	andeq	pc, r6, r2, lsl #30
    3a20:	18630200 	stmdane	r3!, {r9}^
    3a24:	00000025 	andeq	r0, r0, r5, lsr #32
    3a28:	69050406 	stmdbvs	r5, {r1, r2, sl}
    3a2c:	0700746e 	streq	r7, [r0, -lr, ror #8]
    3a30:	00660704 	rsbeq	r0, r6, r4, lsl #14
    3a34:	01070000 	mrseq	r0, (UNDEF: 7)
    3a38:	0002ec06 	andeq	lr, r2, r6, lsl #24
    3a3c:	05020700 	streq	r0, [r2, #-1792]	; 0xfffff900
    3a40:	00000385 	andeq	r0, r0, r5, lsl #7
    3a44:	ac050407 	cfstrsge	mvf0, [r5], {7}
    3a48:	07000000 	streq	r0, [r0, -r0]
    3a4c:	00a70508 	adceq	r0, r7, r8, lsl #10
    3a50:	01070000 	mrseq	r0, (UNDEF: 7)
    3a54:	0002ea08 	andeq	lr, r2, r8, lsl #20
    3a58:	07020700 	streq	r0, [r2, -r0, lsl #14]
    3a5c:	00000222 	andeq	r0, r0, r2, lsr #4
    3a60:	61070407 	tstvs	r7, r7, lsl #8
    3a64:	07000000 	streq	r0, [r0, -r0]
    3a68:	005c0708 	subseq	r0, ip, r8, lsl #14
    3a6c:	65020000 	strvs	r0, [r2, #-0]
    3a70:	03000002 	movweq	r0, #2
    3a74:	00a81922 	adceq	r1, r8, r2, lsr #18
    3a78:	04080000 	streq	r0, [r8], #-0
    3a7c:	000000ae 	andeq	r0, r0, lr, lsr #1
    3a80:	00042b09 	andeq	r2, r4, r9, lsl #22
    3a84:	02cb0200 	sbceq	r0, fp, #0, 4
    3a88:	2c040000 	stccs	0, cr0, [r4], {-0}
    3a8c:	0000720e 	andeq	r7, r0, lr, lsl #4
    3a90:	04400200 	strbeq	r0, [r0], #-512	; 0xfffffe00
    3a94:	72040000 	andvc	r0, r4, #0
    3a98:	0000720e 	andeq	r7, r0, lr, lsl #4
    3a9c:	026d0a00 	rsbeq	r0, sp, #0, 20
    3aa0:	5e050000 	cdppl	0, 0, cr0, cr5, cr0, {0}
    3aa4:	005d1701 	subseq	r1, sp, r1, lsl #14
    3aa8:	040b0000 	streq	r0, [fp], #-0
    3aac:	fa03a604 	blx	ed2c4 <__bss_end__+0xe315c>
    3ab0:	0c000000 	stceq	0, cr0, [r0], {-0}
    3ab4:	0000025f 	andeq	r0, r0, pc, asr r2
    3ab8:	cb0ca804 	blgt	32dad0 <__bss_end__+0x323968>
    3abc:	0c000000 	stceq	0, cr0, [r0], {-0}
    3ac0:	000001e2 	andeq	r0, r0, r2, ror #3
    3ac4:	fa13a904 	blx	4ededc <__bss_end__+0x4e3d74>
    3ac8:	00000000 	andeq	r0, r0, r0
    3acc:	0000800d 	andeq	r8, r0, sp
    3ad0:	00010a00 	andeq	r0, r1, r0, lsl #20
    3ad4:	005d0e00 	subseq	r0, sp, r0, lsl #28
    3ad8:	00030000 	andeq	r0, r3, r0
    3adc:	a304080f 	movwge	r0, #18447	; 0x480f
    3ae0:	00012e09 	andeq	r2, r1, r9, lsl #28
    3ae4:	04231000 	strteq	r1, [r3], #-0
    3ae8:	a5040000 	strge	r0, [r4, #-0]
    3aec:	00005607 	andeq	r5, r0, r7, lsl #12
    3af0:	32100000 	andscc	r0, r0, #0
    3af4:	04000004 	streq	r0, [r0], #-4
    3af8:	00d805aa 	sbcseq	r0, r8, sl, lsr #11
    3afc:	00040000 	andeq	r0, r4, r0
    3b00:	0003ad02 	andeq	sl, r3, r2, lsl #26
    3b04:	03ab0400 			; <UNDEFINED> instruction: 0x03ab0400
    3b08:	0000010a 	andeq	r0, r0, sl, lsl #2
    3b0c:	00019f02 	andeq	r9, r1, r2, lsl #30
    3b10:	1baf0400 	blne	febc4b18 <__bss_end__+0xfebba9b0>
    3b14:	0000009c 	muleq	r0, ip, r0
    3b18:	014c0408 	cmpeq	ip, r8, lsl #8
    3b1c:	01070000 	mrseq	r0, (UNDEF: 7)
    3b20:	0002f308 	andeq	pc, r2, r8, lsl #6
    3b24:	014c1100 	mrseq	r1, (UNDEF: 92)
    3b28:	72020000 	andvc	r0, r2, #0
    3b2c:	06000004 	streq	r0, [r0], -r4
    3b30:	008e1916 	addeq	r1, lr, r6, lsl r9
    3b34:	b0120000 	andslt	r0, r2, r0
    3b38:	18000001 	stmdane	r0, {r0}
    3b3c:	be082f06 	cdplt	15, 0, cr2, cr8, cr6, {0}
    3b40:	10000001 	andne	r0, r0, r1
    3b44:	000003ce 	andeq	r0, r0, lr, asr #7
    3b48:	be133106 	muflts	f3, f3, f6
    3b4c:	00000001 	andeq	r0, r0, r1
    3b50:	006b5f13 	rsbeq	r5, fp, r3, lsl pc
    3b54:	56073206 	strpl	r3, [r7], -r6, lsl #4
    3b58:	04000000 	streq	r0, [r0], #-0
    3b5c:	00040e10 	andeq	r0, r4, r0, lsl lr
    3b60:	0b320600 	bleq	c85368 <__bss_end__+0xc7b200>
    3b64:	00000056 	andeq	r0, r0, r6, asr r0
    3b68:	01991008 	orrseq	r1, r9, r8
    3b6c:	32060000 	andcc	r0, r6, #0
    3b70:	00005614 	andeq	r5, r0, r4, lsl r6
    3b74:	b2100c00 	andslt	r0, r0, #0, 24
    3b78:	06000004 	streq	r0, [r0], -r4
    3b7c:	00561b32 	subseq	r1, r6, r2, lsr fp
    3b80:	13100000 	tstne	r0, #0
    3b84:	0600785f 			; <UNDEFINED> instruction: 0x0600785f
    3b88:	01c40b33 	biceq	r0, r4, r3, lsr fp
    3b8c:	00140000 	andseq	r0, r4, r0
    3b90:	01640408 	cmneq	r4, r8, lsl #8
    3b94:	580d0000 	stmdapl	sp, {}	; <UNPREDICTABLE>
    3b98:	d4000001 	strle	r0, [r0], #-1
    3b9c:	0e000001 	cdpeq	0, 0, cr0, cr0, cr1, {0}
    3ba0:	0000005d 	andeq	r0, r0, sp, asr r0
    3ba4:	dd120000 	ldcle	0, cr0, [r2, #-0]
    3ba8:	24000001 	strcs	r0, [r0], #-1
    3bac:	57083706 	strpl	r3, [r8, -r6, lsl #14]
    3bb0:	10000002 	andne	r0, r0, r2
    3bb4:	0000009e 	muleq	r0, lr, r0
    3bb8:	56093906 	strpl	r3, [r9], -r6, lsl #18
    3bbc:	00000000 	andeq	r0, r0, r0
    3bc0:	00044810 	andeq	r4, r4, r0, lsl r8
    3bc4:	093a0600 	ldmdbeq	sl!, {r9, sl}
    3bc8:	00000056 	andeq	r0, r0, r6, asr r0
    3bcc:	00c11004 	sbceq	r1, r1, r4
    3bd0:	3b060000 	blcc	183bd8 <__bss_end__+0x179a70>
    3bd4:	00005609 	andeq	r5, r0, r9, lsl #12
    3bd8:	33100800 	tstcc	r0, #0, 16
    3bdc:	06000005 	streq	r0, [r0], -r5
    3be0:	0056093c 	subseq	r0, r6, ip, lsr r9
    3be4:	100c0000 	andne	r0, ip, r0
    3be8:	000002af 	andeq	r0, r0, pc, lsr #5
    3bec:	56093d06 	strpl	r3, [r9], -r6, lsl #26
    3bf0:	10000000 	andne	r0, r0, r0
    3bf4:	00028310 	andeq	r8, r2, r0, lsl r3
    3bf8:	093e0600 	ldmdbeq	lr!, {r9, sl}
    3bfc:	00000056 	andeq	r0, r0, r6, asr r0
    3c00:	04b71014 	ldrteq	r1, [r7], #20
    3c04:	3f060000 	svccc	0x00060000
    3c08:	00005609 	andeq	r5, r0, r9, lsl #12
    3c0c:	8f101800 	svchi	0x00101800
    3c10:	06000003 	streq	r0, [r0], -r3
    3c14:	00560940 	subseq	r0, r6, r0, asr #18
    3c18:	101c0000 	andsne	r0, ip, r0
    3c1c:	000004fa 	strdeq	r0, [r0], -sl
    3c20:	56094106 	strpl	r4, [r9], -r6, lsl #2
    3c24:	20000000 	andcs	r0, r0, r0
    3c28:	01011400 	tsteq	r1, r0, lsl #8
    3c2c:	01080000 	mrseq	r0, (UNDEF: 8)
    3c30:	9c084a06 			; <UNDEFINED> instruction: 0x9c084a06
    3c34:	10000002 	andne	r0, r0, r2
    3c38:	0000018c 	andeq	r0, r0, ip, lsl #3
    3c3c:	9c0a4b06 			; <UNDEFINED> instruction: 0x9c0a4b06
    3c40:	00000002 	andeq	r0, r0, r2
    3c44:	00000010 	andeq	r0, r0, r0, lsl r0
    3c48:	094c0600 	stmdbeq	ip, {r9, sl}^
    3c4c:	0000029c 	muleq	r0, ip, r2
    3c50:	04641580 	strbteq	r1, [r4], #-1408	; 0xfffffa80
    3c54:	4e060000 	cdpmi	0, 0, cr0, cr6, cr0, {0}
    3c58:	0001580a 	andeq	r5, r1, sl, lsl #16
    3c5c:	15010000 	strne	r0, [r1, #-0]
    3c60:	00000126 	andeq	r0, r0, r6, lsr #2
    3c64:	580a5106 	stmdapl	sl, {r1, r2, r8, ip, lr}
    3c68:	04000001 	streq	r0, [r0], #-1
    3c6c:	480d0001 	stmdami	sp, {r0}
    3c70:	ac000000 	stcge	0, cr0, [r0], {-0}
    3c74:	0e000002 	cdpeq	0, 0, cr0, cr0, cr2, {0}
    3c78:	0000005d 	andeq	r0, r0, sp, asr r0
    3c7c:	b814001f 	ldmdalt	r4, {r0, r1, r2, r3, r4}
    3c80:	90000002 	andls	r0, r0, r2
    3c84:	085d0601 	ldmdaeq	sp, {r0, r9, sl}^
    3c88:	000002ef 	andeq	r0, r0, pc, ror #5
    3c8c:	0003ce10 	andeq	ip, r3, r0, lsl lr
    3c90:	125e0600 	subsne	r0, lr, #0, 12
    3c94:	000002ef 	andeq	r0, r0, pc, ror #5
    3c98:	03e61000 	mvneq	r1, #0
    3c9c:	5f060000 	svcpl	0x00060000
    3ca0:	00005606 	andeq	r5, r0, r6, lsl #12
    3ca4:	94100400 	ldrls	r0, [r0], #-1024	; 0xfffffc00
    3ca8:	06000001 	streq	r0, [r0], -r1
    3cac:	02f50961 	rscseq	r0, r5, #1589248	; 0x184000
    3cb0:	10080000 	andne	r0, r8, r0
    3cb4:	00000101 	andeq	r0, r0, r1, lsl #2
    3cb8:	571e6206 	ldrpl	r6, [lr, -r6, lsl #4]
    3cbc:	88000002 	stmdahi	r0, {r1}
    3cc0:	ac040800 	stcge	8, cr0, [r4], {-0}
    3cc4:	0d000002 	stceq	0, cr0, [r0, #-8]
    3cc8:	00000305 	andeq	r0, r0, r5, lsl #6
    3ccc:	00000305 	andeq	r0, r0, r5, lsl #6
    3cd0:	00005d0e 	andeq	r5, r0, lr, lsl #26
    3cd4:	08001f00 	stmdaeq	r0, {r8, r9, sl, fp, ip}
    3cd8:	00030b04 	andeq	r0, r3, r4, lsl #22
    3cdc:	99121600 	ldmdbls	r2, {r9, sl, ip}
    3ce0:	08000003 	stmdaeq	r0, {r0, r1}
    3ce4:	34087506 	strcc	r7, [r8], #-1286	; 0xfffffafa
    3ce8:	10000003 	andne	r0, r0, r3
    3cec:	000000bb 	strheq	r0, [r0], -fp
    3cf0:	34117606 	ldrcc	r7, [r1], #-1542	; 0xfffff9fa
    3cf4:	00000003 	andeq	r0, r0, r3
    3cf8:	00001b10 	andeq	r1, r0, r0, lsl fp
    3cfc:	06770600 	ldrbteq	r0, [r7], -r0, lsl #12
    3d00:	00000056 	andeq	r0, r0, r6, asr r0
    3d04:	04080004 	streq	r0, [r8], #-4
    3d08:	00000080 	andeq	r0, r0, r0, lsl #1
    3d0c:	0003b812 	andeq	fp, r3, r2, lsl r8
    3d10:	b5066800 	strlt	r6, [r6, #-2048]	; 0xfffff800
    3d14:	00047d08 	andeq	r7, r4, r8, lsl #26
    3d18:	705f1300 	subsvc	r1, pc, r0, lsl #6
    3d1c:	12b60600 	adcsne	r0, r6, #0, 12
    3d20:	00000334 	andeq	r0, r0, r4, lsr r3
    3d24:	725f1300 	subsvc	r1, pc, #0, 6
    3d28:	07b70600 	ldreq	r0, [r7, r0, lsl #12]!
    3d2c:	00000056 	andeq	r0, r0, r6, asr r0
    3d30:	775f1304 	ldrbvc	r1, [pc, -r4, lsl #6]
    3d34:	07b80600 	ldreq	r0, [r8, r0, lsl #12]!
    3d38:	00000056 	andeq	r0, r0, r6, asr r0
    3d3c:	011f1008 	tsteq	pc, r8
    3d40:	b9060000 	stmdblt	r6, {}	; <UNPREDICTABLE>
    3d44:	00006b09 	andeq	r6, r0, r9, lsl #22
    3d48:	08100c00 	ldmdaeq	r0, {sl, fp}
    3d4c:	06000002 	streq	r0, [r0], -r2
    3d50:	006b09ba 	strhteq	r0, [fp], #-154	; 0xffffff66
    3d54:	130e0000 	movwne	r0, #57344	; 0xe000
    3d58:	0066625f 	rsbeq	r6, r6, pc, asr r2
    3d5c:	0c11bb06 			; <UNDEFINED> instruction: 0x0c11bb06
    3d60:	10000003 	andne	r0, r0, r3
    3d64:	00007b10 	andeq	r7, r0, r0, lsl fp
    3d68:	07bc0600 	ldreq	r0, [ip, r0, lsl #12]!
    3d6c:	00000056 	andeq	r0, r0, r6, asr r0
    3d70:	010f1018 	tsteq	pc, r8, lsl r0	; <UNPREDICTABLE>
    3d74:	c3060000 	movwgt	r0, #24576	; 0x6000
    3d78:	0000480a 	andeq	r4, r0, sl, lsl #16
    3d7c:	59101c00 	ldmdbpl	r0, {sl, fp, ip}
    3d80:	0600000b 	streq	r0, [r0], -fp
    3d84:	05ef1dc5 	strbeq	r1, [pc, #3525]!	; 4b51 <_start-0x34af>
    3d88:	10200000 	eorne	r0, r0, r0
    3d8c:	0000061d 	andeq	r0, r0, sp, lsl r6
    3d90:	191dc706 	ldmdbne	sp, {r1, r2, r8, r9, sl, lr, pc}
    3d94:	24000006 	strcs	r0, [r0], #-6
    3d98:	00043a10 	andeq	r3, r4, r0, lsl sl
    3d9c:	0dca0600 	stcleq	6, cr0, [sl]
    3da0:	0000063d 	andeq	r0, r0, sp, lsr r6
    3da4:	05141028 	ldreq	r1, [r4, #-40]	; 0xffffffd8
    3da8:	cb060000 	blgt	183db0 <__bss_end__+0x179c48>
    3dac:	00065709 	andeq	r5, r6, r9, lsl #14
    3db0:	5f132c00 	svcpl	0x00132c00
    3db4:	06006275 			; <UNDEFINED> instruction: 0x06006275
    3db8:	030c11ce 	movweq	r1, #49614	; 0xc1ce
    3dbc:	13300000 	teqne	r0, #0
    3dc0:	0070755f 	rsbseq	r7, r0, pc, asr r5
    3dc4:	3412cf06 	ldrcc	ip, [r2], #-3846	; 0xfffff0fa
    3dc8:	38000003 	stmdacc	r0, {r0, r1}
    3dcc:	72755f13 	rsbsvc	r5, r5, #19, 30	; 0x4c
    3dd0:	07d00600 	ldrbeq	r0, [r0, r0, lsl #12]
    3dd4:	00000056 	andeq	r0, r0, r6, asr r0
    3dd8:	00b5103c 	adcseq	r1, r5, ip, lsr r0
    3ddc:	d3060000 	movwle	r0, #24576	; 0x6000
    3de0:	00065d11 	andeq	r5, r6, r1, lsl sp
    3de4:	ec104000 	ldc	0, cr4, [r0], {-0}
    3de8:	06000004 	streq	r0, [r0], -r4
    3dec:	066d11d4 			; <UNDEFINED> instruction: 0x066d11d4
    3df0:	13430000 	movtne	r0, #12288	; 0x3000
    3df4:	00626c5f 	rsbeq	r6, r2, pc, asr ip
    3df8:	0c11d706 	ldceq	7, cr13, [r1], {6}
    3dfc:	44000003 	strmi	r0, [r0], #-3
    3e00:	00013d10 	andeq	r3, r1, r0, lsl sp
    3e04:	07da0600 	ldrbeq	r0, [sl, r0, lsl #12]
    3e08:	00000056 	andeq	r0, r0, r6, asr r0
    3e0c:	014e104c 	cmpeq	lr, ip, asr #32
    3e10:	db060000 	blle	183e18 <__bss_end__+0x179cb0>
    3e14:	0000b30a 	andeq	fp, r0, sl, lsl #6
    3e18:	fa105000 	blx	417e20 <__bss_end__+0x40dcb8>
    3e1c:	0600000a 	streq	r0, [r0], -sl
    3e20:	049b12de 	ldreq	r1, [fp], #734	; 0x2de
    3e24:	10540000 	subsne	r0, r4, r0
    3e28:	0000042c 	andeq	r0, r0, ip, lsr #8
    3e2c:	3a0ce206 	bcc	33c64c <__bss_end__+0x3324e4>
    3e30:	58000001 	stmdapl	r0, {r0}
    3e34:	0003c010 	andeq	ip, r3, r0, lsl r0
    3e38:	0ee40600 	cdpeq	6, 14, cr0, cr4, cr0, {0}
    3e3c:	0000012e 	andeq	r0, r0, lr, lsr #2
    3e40:	027b105c 	rsbseq	r1, fp, #92	; 0x5c
    3e44:	e5060000 	str	r0, [r6, #-0]
    3e48:	00005609 	andeq	r5, r0, r9, lsl #12
    3e4c:	17006400 	strne	r6, [r0, -r0, lsl #8]
    3e50:	00000056 	andeq	r0, r0, r6, asr r0
    3e54:	0000049b 	muleq	r0, fp, r4
    3e58:	00049b18 	andeq	r9, r4, r8, lsl fp
    3e5c:	00481800 	subeq	r1, r8, r0, lsl #16
    3e60:	46180000 	ldrmi	r0, [r8], -r0
    3e64:	18000001 	stmdane	r0, {r0}
    3e68:	00000056 	andeq	r0, r0, r6, asr r0
    3e6c:	a6040800 	strge	r0, [r4], -r0, lsl #16
    3e70:	11000004 	tstne	r0, r4
    3e74:	0000049b 	muleq	r0, fp, r4
    3e78:	00041619 	andeq	r1, r4, r9, lsl r6
    3e7c:	06042800 	streq	r2, [r4], -r0, lsl #16
    3e80:	ef080260 	svc	0x00080260
    3e84:	1a000005 	bne	3ea0 <_start-0x4160>
    3e88:	0000037e 	andeq	r0, r0, lr, ror r3
    3e8c:	07026206 	streq	r6, [r2, -r6, lsl #4]
    3e90:	00000056 	andeq	r0, r0, r6, asr r0
    3e94:	012e1a00 			; <UNDEFINED> instruction: 0x012e1a00
    3e98:	67060000 	strvs	r0, [r6, -r0]
    3e9c:	06c90b02 	strbeq	r0, [r9], r2, lsl #22
    3ea0:	1a040000 	bne	103ea8 <__bss_end__+0xf9d40>
    3ea4:	000001f8 	strdeq	r0, [r0], -r8
    3ea8:	14026706 	strne	r6, [r2], #-1798	; 0xfffff8fa
    3eac:	000006c9 	andeq	r0, r0, r9, asr #13
    3eb0:	01a81a08 			; <UNDEFINED> instruction: 0x01a81a08
    3eb4:	67060000 	strvs	r0, [r6, -r0]
    3eb8:	06c91e02 	strbeq	r1, [r9], r2, lsl #28
    3ebc:	1a0c0000 	bne	303ec4 <__bss_end__+0x2f9d5c>
    3ec0:	000003e1 	andeq	r0, r0, r1, ror #7
    3ec4:	08026906 	stmdaeq	r2, {r1, r2, r8, fp, sp, lr}
    3ec8:	00000056 	andeq	r0, r0, r6, asr r0
    3ecc:	00291a10 	eoreq	r1, r9, r0, lsl sl
    3ed0:	6a060000 	bvs	183ed8 <__bss_end__+0x179d70>
    3ed4:	08c90802 	stmiaeq	r9, {r1, fp}^
    3ed8:	1a140000 	bne	503ee0 <__bss_end__+0x4f9d78>
    3edc:	000003f5 	strdeq	r0, [r0], -r5
    3ee0:	07026d06 	streq	r6, [r2, -r6, lsl #26]
    3ee4:	00000056 	andeq	r0, r0, r6, asr r0
    3ee8:	0a361a30 	beq	d8a7b0 <__bss_end__+0xd80648>
    3eec:	6e060000 	cdpvs	0, 0, cr0, cr6, cr0, {0}
    3ef0:	08de1602 	ldmeq	lr, {r1, r9, sl, ip}^
    3ef4:	1a340000 	bne	d03efc <__bss_end__+0xcf9d94>
    3ef8:	000002c0 	andeq	r0, r0, r0, asr #5
    3efc:	07027006 	streq	r7, [r2, -r6]
    3f00:	00000056 	andeq	r0, r0, r6, asr r0
    3f04:	03eb1a38 	mvneq	r1, #56, 20	; 0x38000
    3f08:	72060000 	andvc	r0, r6, #0
    3f0c:	08ef0a02 	stmiaeq	pc!, {r1, r9, fp}^	; <UNPREDICTABLE>
    3f10:	1a3c0000 	bne	f03f18 <__bss_end__+0xef9db0>
    3f14:	00000257 	andeq	r0, r0, r7, asr r2
    3f18:	13027506 	movwne	r7, #9478	; 0x2506
    3f1c:	000001be 			; <UNDEFINED> instruction: 0x000001be
    3f20:	01c71a40 	biceq	r1, r7, r0, asr #20
    3f24:	76060000 	strvc	r0, [r6], -r0
    3f28:	00560702 	subseq	r0, r6, r2, lsl #14
    3f2c:	1a440000 	bne	1103f34 <__bss_end__+0x10f9dcc>
    3f30:	0000052e 	andeq	r0, r0, lr, lsr #10
    3f34:	13027706 	movwne	r7, #9990	; 0x2706
    3f38:	000001be 			; <UNDEFINED> instruction: 0x000001be
    3f3c:	02d21a48 	sbcseq	r1, r2, #72, 20	; 0x48000
    3f40:	78060000 	stmdavc	r6, {}	; <UNPREDICTABLE>
    3f44:	08f51402 	ldmeq	r5!, {r1, sl, ip}^
    3f48:	1a4c0000 	bne	1303f50 <__bss_end__+0x12f9de8>
    3f4c:	00000200 	andeq	r0, r0, r0, lsl #4
    3f50:	07027b06 	streq	r7, [r2, -r6, lsl #22]
    3f54:	00000056 	andeq	r0, r0, r6, asr r0
    3f58:	01461a50 	cmpeq	r6, r0, asr sl
    3f5c:	7c060000 	stcvc	0, cr0, [r6], {-0}
    3f60:	01460902 	cmpeq	r6, r2, lsl #18
    3f64:	1a540000 	bne	1503f6c <__bss_end__+0x14f9e04>
    3f68:	000002f8 	strdeq	r0, [r0], -r8
    3f6c:	07029f06 	streq	r9, [r2, -r6, lsl #30]
    3f70:	000008a4 	andeq	r0, r0, r4, lsr #17
    3f74:	02b81b58 	adcseq	r1, r8, #88, 22	; 0x16000
    3f78:	a3060000 	movwge	r0, #24576	; 0x6000
    3f7c:	02ef1302 	rsceq	r1, pc, #134217728	; 0x8000000
    3f80:	01480000 	mrseq	r0, (UNDEF: 72)
    3f84:	0002351b 	andeq	r3, r2, fp, lsl r5
    3f88:	02a40600 	adceq	r0, r4, #0, 12
    3f8c:	0002ac12 	andeq	sl, r2, r2, lsl ip
    3f90:	1b014c00 	blne	56f98 <__bss_end__+0x4ce30>
    3f94:	000004da 	ldrdeq	r0, [r0], -sl
    3f98:	0c02a806 	stceq	8, cr10, [r2], {6}
    3f9c:	00000906 	andeq	r0, r0, r6, lsl #18
    3fa0:	171b02dc 			; <UNDEFINED> instruction: 0x171b02dc
    3fa4:	06000001 	streq	r0, [r0], -r1
    3fa8:	8a1002ad 	bhi	404a64 <__bss_end__+0x3fa8fc>
    3fac:	e0000006 	and	r0, r0, r6
    3fb0:	00fc1b02 	rscseq	r1, ip, r2, lsl #22
    3fb4:	af060000 	svcge	0x00060000
    3fb8:	09120a02 	ldmdbeq	r2, {r1, r9, fp}
    3fbc:	02ec0000 	rsceq	r0, ip, #0
    3fc0:	7d040800 	stcvc	8, cr0, [r4, #-0]
    3fc4:	17000004 	strne	r0, [r0, -r4]
    3fc8:	00000056 	andeq	r0, r0, r6, asr r0
    3fcc:	00000613 	andeq	r0, r0, r3, lsl r6
    3fd0:	00049b18 	andeq	r9, r4, r8, lsl fp
    3fd4:	00481800 	subeq	r1, r8, r0, lsl #16
    3fd8:	13180000 	tstne	r8, #0
    3fdc:	18000006 	stmdane	r0, {r1, r2}
    3fe0:	00000056 	andeq	r0, r0, r6, asr r0
    3fe4:	53040800 	movwpl	r0, #18432	; 0x4800
    3fe8:	08000001 	stmdaeq	r0, {r0}
    3fec:	0005f504 	andeq	pc, r5, r4, lsl #10
    3ff0:	00bf1700 	adcseq	r1, pc, r0, lsl #14
    3ff4:	063d0000 	ldrteq	r0, [sp], -r0
    3ff8:	9b180000 	blls	604000 <__bss_end__+0x5f9e98>
    3ffc:	18000004 	stmdane	r0, {r2}
    4000:	00000048 	andeq	r0, r0, r8, asr #32
    4004:	0000bf18 	andeq	fp, r0, r8, lsl pc
    4008:	00561800 	subseq	r1, r6, r0, lsl #16
    400c:	08000000 	stmdaeq	r0, {}	; <UNPREDICTABLE>
    4010:	00061f04 	andeq	r1, r6, r4, lsl #30
    4014:	00561700 	subseq	r1, r6, r0, lsl #14
    4018:	06570000 	ldrbeq	r0, [r7], -r0
    401c:	9b180000 	blls	604024 <__bss_end__+0x5f9ebc>
    4020:	18000004 	stmdane	r0, {r2}
    4024:	00000048 	andeq	r0, r0, r8, asr #32
    4028:	43040800 	movwmi	r0, #18432	; 0x4800
    402c:	0d000006 	stceq	0, cr0, [r0, #-24]	; 0xffffffe8
    4030:	00000080 	andeq	r0, r0, r0, lsl #1
    4034:	0000066d 	andeq	r0, r0, sp, ror #12
    4038:	00005d0e 	andeq	r5, r0, lr, lsl #26
    403c:	0d000200 	sfmeq	f0, 4, [r0, #-0]
    4040:	00000080 	andeq	r0, r0, r0, lsl #1
    4044:	0000067d 	andeq	r0, r0, sp, ror r6
    4048:	00005d0e 	andeq	r5, r0, lr, lsl #26
    404c:	0a000000 	beq	4054 <_start-0x3fac>
    4050:	000003a6 	andeq	r0, r0, r6, lsr #7
    4054:	1a011f06 	bne	4bc74 <__bss_end__+0x41b0c>
    4058:	0000033a 	andeq	r0, r0, sl, lsr r3
    405c:	0004c11c 	andeq	ip, r4, ip, lsl r1
    4060:	23060c00 	movwcs	r0, #27648	; 0x6c00
    4064:	06c30801 	strbeq	r0, [r3], r1, lsl #16
    4068:	ce1a0000 	cdpgt	0, 1, cr0, cr10, cr0, {0}
    406c:	06000003 	streq	r0, [r0], -r3
    4070:	c3110125 	tstgt	r1, #1073741833	; 0x40000009
    4074:	00000006 	andeq	r0, r0, r6
    4078:	00021b1a 	andeq	r1, r2, sl, lsl fp
    407c:	01260600 			; <UNDEFINED> instruction: 0x01260600
    4080:	00005607 	andeq	r5, r0, r7, lsl #12
    4084:	a01a0400 	andsge	r0, sl, r0, lsl #8
    4088:	06000003 	streq	r0, [r0], -r3
    408c:	c90b0127 	stmdbgt	fp, {r0, r1, r2, r5, r8}
    4090:	08000006 	stmdaeq	r0, {r1, r2}
    4094:	8a040800 	bhi	10609c <__bss_end__+0xfbf34>
    4098:	08000006 	stmdaeq	r0, {r1, r2}
    409c:	00067d04 	andeq	r7, r6, r4, lsl #26
    40a0:	00211c00 	eoreq	r1, r1, r0, lsl #24
    40a4:	060e0000 	streq	r0, [lr], -r0
    40a8:	0808013f 	stmdaeq	r8, {r0, r1, r2, r3, r4, r5, r8}
    40ac:	1a000007 	bne	40d0 <_start-0x3f30>
    40b0:	0000041d 	andeq	r0, r0, sp, lsl r4
    40b4:	12014006 	andne	r4, r1, #6
    40b8:	00000708 	andeq	r0, r0, r8, lsl #14
    40bc:	04511a00 	ldrbeq	r1, [r1], #-2560	; 0xfffff600
    40c0:	41060000 	mrsmi	r0, (UNDEF: 6)
    40c4:	07081201 	streq	r1, [r8, -r1, lsl #4]
    40c8:	1a060000 	bne	1840d0 <__bss_end__+0x179f68>
    40cc:	0000046d 	andeq	r0, r0, sp, ror #8
    40d0:	12014206 	andne	r4, r1, #1610612736	; 0x60000000
    40d4:	00000087 	andeq	r0, r0, r7, lsl #1
    40d8:	870d000c 	strhi	r0, [sp, -ip]
    40dc:	18000000 	stmdane	r0, {}	; <UNPREDICTABLE>
    40e0:	0e000007 	cdpeq	0, 0, cr0, cr0, cr7, {0}
    40e4:	0000005d 	andeq	r0, r0, sp, asr r0
    40e8:	d01d0002 	andsle	r0, sp, r2
    40ec:	07028006 	streq	r8, [r2, -r6]
    40f0:	0000082d 	andeq	r0, r0, sp, lsr #16
    40f4:	0004a51a 	andeq	sl, r4, sl, lsl r5
    40f8:	02820600 	addeq	r0, r2, #0, 12
    40fc:	00005d18 	andeq	r5, r0, r8, lsl sp
    4100:	571a0000 	ldrpl	r0, [sl, -r0]
    4104:	06000004 	streq	r0, [r0], -r4
    4108:	46120283 	ldrmi	r0, [r2], -r3, lsl #5
    410c:	04000001 	streq	r0, [r0], #-1
    4110:	00024a1a 	andeq	r4, r2, sl, lsl sl
    4114:	02840600 	addeq	r0, r4, #0, 12
    4118:	00082d10 	andeq	r2, r8, r0, lsl sp
    411c:	051a0800 	ldreq	r0, [sl, #-2048]	; 0xfffff800
    4120:	06000005 	streq	r0, [r0], -r5
    4124:	d4170285 	ldrle	r0, [r7], #-645	; 0xfffffd7b
    4128:	24000001 	strcs	r0, [r0], #-1
    412c:	0001b81a 	andeq	fp, r1, sl, lsl r8
    4130:	02860600 	addeq	r0, r6, #0, 12
    4134:	0000560f 	andeq	r5, r0, pc, lsl #12
    4138:	c91a4800 	ldmdbgt	sl, {fp, lr}
    413c:	06000003 	streq	r0, [r0], -r3
    4140:	952c0287 	strls	r0, [ip, #-647]!	; 0xfffffd79
    4144:	50000000 	andpl	r0, r0, r0
    4148:	00051b1a 	andeq	r1, r5, sl, lsl fp
    414c:	02880600 	addeq	r0, r8, #0, 12
    4150:	0006cf1a 	andeq	ip, r6, sl, lsl pc
    4154:	d41a5800 	ldrle	r5, [sl], #-2048	; 0xfffff800
    4158:	06000003 	streq	r0, [r0], -r3
    415c:	2e160289 	cdpcs	2, 1, cr0, cr6, cr9, {4}
    4160:	68000001 	stmdavs	r0, {r0}
    4164:	0005201a 	andeq	r2, r5, sl, lsl r0
    4168:	028a0600 	addeq	r0, sl, #0, 12
    416c:	00012e16 	andeq	r2, r1, r6, lsl lr
    4170:	dc1a7000 	ldcle	0, cr7, [sl], {-0}
    4174:	06000002 	streq	r0, [r0], -r2
    4178:	2e16028b 	cdpcs	2, 1, cr0, cr6, cr11, {4}
    417c:	78000001 	stmdavc	r0, {r0}
    4180:	0004d01a 	andeq	sp, r4, sl, lsl r0
    4184:	028c0600 	addeq	r0, ip, #0, 12
    4188:	00083d10 	andeq	r3, r8, r0, lsl sp
    418c:	3e1a8000 	cdpcc	0, 1, cr8, cr10, cr0, {0}
    4190:	06000002 	streq	r0, [r0], -r2
    4194:	4d10028d 	lfmmi	f0, 4, [r0, #-564]	; 0xfffffdcc
    4198:	88000008 	stmdahi	r0, {r3}
    419c:	00047a1a 	andeq	r7, r4, sl, lsl sl
    41a0:	028e0600 	addeq	r0, lr, #0, 12
    41a4:	0000560f 	andeq	r5, r0, pc, lsl #12
    41a8:	7e1aa000 	cdpvc	0, 1, cr10, cr10, cr0, {0}
    41ac:	06000001 	streq	r0, [r0], -r1
    41b0:	2e16028f 	cdpcs	2, 1, cr0, cr6, cr15, {4}
    41b4:	a4000001 	strge	r0, [r0], #-1
    41b8:	00008f1a 	andeq	r8, r0, sl, lsl pc
    41bc:	02900600 	addseq	r0, r0, #0, 12
    41c0:	00012e16 	andeq	r2, r1, r6, lsl lr
    41c4:	6d1aac00 	ldcvs	12, cr10, [sl, #-0]
    41c8:	06000001 	streq	r0, [r0], -r1
    41cc:	2e160291 	mrccs	2, 0, r0, cr6, cr1, {4}
    41d0:	b4000001 	strlt	r0, [r0], #-1
    41d4:	00003c1a 	andeq	r3, r0, sl, lsl ip
    41d8:	02920600 	addseq	r0, r2, #0, 12
    41dc:	00012e16 	andeq	r2, r1, r6, lsl lr
    41e0:	4b1abc00 	blmi	6b31e8 <__bss_end__+0x6a9080>
    41e4:	06000000 	streq	r0, [r0], -r0
    41e8:	2e160293 	mrccs	2, 0, r0, cr6, cr3, {4}
    41ec:	c4000001 	strgt	r0, [r0], #-1
    41f0:	00037c1a 	andeq	r7, r3, sl, lsl ip
    41f4:	02940600 	addseq	r0, r4, #0, 12
    41f8:	00005608 	andeq	r5, r0, r8, lsl #12
    41fc:	0d00cc00 	stceq	12, cr12, [r0, #-0]
    4200:	0000014c 	andeq	r0, r0, ip, asr #2
    4204:	0000083d 	andeq	r0, r0, sp, lsr r8
    4208:	00005d0e 	andeq	r5, r0, lr, lsl #26
    420c:	0d001900 	vstreq.16	s2, [r0, #-0]	; <UNPREDICTABLE>
    4210:	0000014c 	andeq	r0, r0, ip, asr #2
    4214:	0000084d 	andeq	r0, r0, sp, asr #16
    4218:	00005d0e 	andeq	r5, r0, lr, lsl #26
    421c:	0d000700 	stceq	7, cr0, [r0, #-0]
    4220:	0000014c 	andeq	r0, r0, ip, asr #2
    4224:	0000085d 	andeq	r0, r0, sp, asr r8
    4228:	00005d0e 	andeq	r5, r0, lr, lsl #26
    422c:	1d001700 	stcne	7, cr1, [r0, #-0]
    4230:	029906f0 	addseq	r0, r9, #240, 12	; 0xf000000
    4234:	00088407 	andeq	r8, r8, r7, lsl #8
    4238:	02a81a00 	adceq	r1, r8, #0, 20
    423c:	9c060000 	stcls	0, cr0, [r6], {-0}
    4240:	08841b02 	stmeq	r4, {r1, r8, r9, fp, ip}
    4244:	1a000000 	bne	424c <_start-0x3db4>
    4248:	000004c7 	andeq	r0, r0, r7, asr #9
    424c:	18029d06 	stmdane	r2, {r1, r2, r8, sl, fp, ip, pc}
    4250:	00000894 	muleq	r0, r4, r8
    4254:	340d0078 	strcc	r0, [sp], #-120	; 0xffffff88
    4258:	94000003 	strls	r0, [r0], #-3
    425c:	0e000008 	cdpeq	0, 0, cr0, cr0, cr8, {0}
    4260:	0000005d 	andeq	r0, r0, sp, asr r0
    4264:	5d0d001d 	stcpl	0, cr0, [sp, #-116]	; 0xffffff8c
    4268:	a4000000 	strge	r0, [r0], #-0
    426c:	0e000008 	cdpeq	0, 0, cr0, cr0, cr8, {0}
    4270:	0000005d 	andeq	r0, r0, sp, asr r0
    4274:	f01e001d 			; <UNDEFINED> instruction: 0xf01e001d
    4278:	03027e06 	movweq	r7, #11782	; 0x2e06
    427c:	000008c9 	andeq	r0, r0, r9, asr #17
    4280:	0004161f 	andeq	r1, r4, pc, lsl r6
    4284:	02950600 	addseq	r0, r5, #0, 12
    4288:	0007180b 	andeq	r1, r7, fp, lsl #16
    428c:	04f21f00 	ldrbteq	r1, [r2], #3840	; 0xf00
    4290:	9e060000 	cdpls	0, 0, cr0, cr6, cr0, {0}
    4294:	085d0b02 	ldmdaeq	sp, {r1, r8, r9, fp}^
    4298:	0d000000 	stceq	0, cr0, [r0, #-0]
    429c:	0000014c 	andeq	r0, r0, ip, asr #2
    42a0:	000008d9 	ldrdeq	r0, [r0], -r9
    42a4:	00005d0e 	andeq	r5, r0, lr, lsl #26
    42a8:	09001800 	stmdbeq	r0, {fp, ip}
    42ac:	00000084 	andeq	r0, r0, r4, lsl #1
    42b0:	08d90408 	ldmeq	r9, {r3, sl}^
    42b4:	ef200000 	svc	0x00200000
    42b8:	18000008 	stmdane	r0, {r3}
    42bc:	0000049b 	muleq	r0, fp, r4
    42c0:	e4040800 	str	r0, [r4], #-2048	; 0xfffff800
    42c4:	08000008 	stmdaeq	r0, {r3}
    42c8:	0001be04 	andeq	fp, r1, r4, lsl #28
    42cc:	09062000 	stmdbeq	r6, {sp}
    42d0:	56180000 	ldrpl	r0, [r8], -r0
    42d4:	00000000 	andeq	r0, r0, r0
    42d8:	090c0408 	stmdbeq	ip, {r3, sl}
    42dc:	04080000 	streq	r0, [r8], #-0
    42e0:	000008fb 	strdeq	r0, [r0], -fp
    42e4:	00067d0d 	andeq	r7, r6, sp, lsl #26
    42e8:	00092200 	andeq	r2, r9, r0, lsl #4
    42ec:	005d0e00 	subseq	r0, sp, r0, lsl #28
    42f0:	00020000 	andeq	r0, r2, r0
    42f4:	00048e21 	andeq	r8, r4, r1, lsr #28
    42f8:	032e0600 			; <UNDEFINED> instruction: 0x032e0600
    42fc:	00049b17 	andeq	r9, r4, r7, lsl fp
    4300:	04872100 	streq	r2, [r7], #256	; 0x100
    4304:	2f060000 	svccs	0x00060000
    4308:	04a11d03 	strteq	r1, [r1], #3331	; 0xd03
    430c:	56170000 	ldrpl	r0, [r7], -r0
    4310:	4b000000 	blmi	4318 <_start-0x3ce8>
    4314:	18000009 	stmdane	r0, {r0, r3}
    4318:	00000056 	andeq	r0, r0, r6, asr r0
    431c:	01d12200 	bicseq	r2, r1, r0, lsl #4
    4320:	1d070000 	stcne	0, cr0, [r7, #-0]
    4324:	0009570e 	andeq	r5, r9, lr, lsl #14
    4328:	3c040800 	stccc	8, cr0, [r4], {-0}
    432c:	17000009 	strne	r0, [r0, -r9]
    4330:	00000056 	andeq	r0, r0, r6, asr r0
    4334:	0000096c 	andeq	r0, r0, ip, ror #18
    4338:	00061318 	andeq	r1, r6, r8, lsl r3
    433c:	73220000 			; <UNDEFINED> instruction: 0x73220000
    4340:	07000007 	streq	r0, [r0, -r7]
    4344:	09780e22 	ldmdbeq	r8!, {r1, r5, r9, sl, fp}^
    4348:	04080000 	streq	r0, [r8], #-0
    434c:	0000095d 	andeq	r0, r0, sp, asr r9
    4350:	00070a23 	andeq	r0, r7, r3, lsr #20
    4354:	05060100 	streq	r0, [r6, #-256]	; 0xffffff00
    4358:	00000056 	andeq	r0, r0, r6, asr r0
    435c:	00008b14 	andeq	r8, r0, r4, lsl fp
    4360:	00000058 	andeq	r0, r0, r8, asr r0
    4364:	0a119c01 	beq	46b370 <__bss_end__+0x461208>
    4368:	66240000 	strtvs	r0, [r4], -r0
    436c:	0100746d 	tsteq	r0, sp, ror #8
    4370:	06131806 	ldreq	r1, [r3], -r6, lsl #16
    4374:	91020000 	mrsls	r0, (UNDEF: 2)
    4378:	62262570 	eorvs	r2, r6, #112, 10	; 0x1c000000
    437c:	01006675 	tsteq	r0, r5, ror r6
    4380:	0a111108 	beq	4487a8 <__bss_end__+0x43e640>
    4384:	03050000 	movweq	r0, #20480	; 0x5000
    4388:	00009d68 	andeq	r9, r0, r8, ror #26
    438c:	00010a27 	andeq	r0, r1, r7, lsr #20
    4390:	0d090100 	stfeqs	f0, [r9, #-0]
    4394:	0000004a 	andeq	r0, r0, sl, asr #32
    4398:	285c9102 	ldmdacs	ip, {r1, r8, ip, pc}^
    439c:	01007a73 	tsteq	r0, r3, ror sl
    43a0:	00560d0c 	subseq	r0, r6, ip, lsl #26
    43a4:	0af90000 	beq	ffe443ac <__bss_end__+0xffe3a244>
    43a8:	0af30000 	beq	ffcc43b0 <__bss_end__+0xffcba248>
    43ac:	3c290000 	stccc	0, cr0, [r9], #-0
    43b0:	2200008b 	andcs	r0, r0, #139	; 0x8b
    43b4:	0400000a 	streq	r0, [r0], #-10
    43b8:	2a00000a 	bcs	43e8 <_start-0x3c18>
    43bc:	75025001 	strvc	r5, [r2, #-1]
    43c0:	51012a00 	tstpl	r1, r0, lsl #20
    43c4:	04000a03 	streq	r0, [r0], #-2563	; 0xfffff5fd
    43c8:	0352012a 	cmpeq	r2, #-2147483638	; 0x8000000a
    43cc:	2a064891 	bcs	196618 <__bss_end__+0x18c4b0>
    43d0:	91025301 	tstls	r2, r1, lsl #6
    43d4:	502b004c 	eorpl	r0, fp, ip, asr #32
    43d8:	2a00008b 	bcs	460c <_start-0x39f4>
    43dc:	75025001 	strvc	r5, [r2, #-1]
    43e0:	0d000000 	stceq	0, cr0, [r0, #-0]
    43e4:	0000014c 	andeq	r0, r0, ip, asr #2
    43e8:	00000a22 	andeq	r0, r0, r2, lsr #20
    43ec:	00005d2c 	andeq	r5, r0, ip, lsr #26
    43f0:	0003ff00 	andeq	pc, r3, r0, lsl #30
    43f4:	0007072d 	andeq	r0, r7, sp, lsr #14
    43f8:	00070700 	andeq	r0, r7, r0, lsl #14
    43fc:	05020900 	streq	r0, [r2, #-2304]	; 0xfffff700
    4400:	0009d900 	andeq	sp, r9, r0, lsl #18
    4404:	87000400 	strhi	r0, [r0, -r0, lsl #8]
    4408:	0400000c 	streq	r0, [r0], #-12
    440c:	0002fd01 	andeq	pc, r2, r1, lsl #26
    4410:	075b0c00 	ldrbeq	r0, [fp, -r0, lsl #24]
    4414:	06cc0000 	strbeq	r0, [ip], r0
    4418:	8b6c0000 	blhi	1b04420 <__bss_end__+0x1afa2b8>
    441c:	003c0000 	eorseq	r0, ip, r0
    4420:	0d880000 	stceq	0, cr0, [r8]
    4424:	04020000 	streq	r0, [r2], #-0
    4428:	746e6905 	strbtvc	r6, [lr], #-2309	; 0xfffff6fb
    442c:	07040300 	streq	r0, [r4, -r0, lsl #6]
    4430:	00000066 	andeq	r0, r0, r6, rrx
    4434:	ec060103 	stfs	f0, [r6], {3}
    4438:	03000002 	movweq	r0, #2
    443c:	03850502 	orreq	r0, r5, #8388608	; 0x800000
    4440:	04030000 	streq	r0, [r3], #-0
    4444:	0000ac05 	andeq	sl, r0, r5, lsl #24
    4448:	05080300 	streq	r0, [r8, #-768]	; 0xfffffd00
    444c:	000000a7 	andeq	r0, r0, r7, lsr #1
    4450:	ea080103 	b	204864 <__bss_end__+0x1fa6fc>
    4454:	03000002 	movweq	r0, #2
    4458:	02220702 	eoreq	r0, r2, #524288	; 0x80000
    445c:	04030000 	streq	r0, [r3], #-0
    4460:	00006107 	andeq	r6, r0, r7, lsl #2
    4464:	07080300 	streq	r0, [r8, -r0, lsl #6]
    4468:	0000005c 	andeq	r0, r0, ip, asr r0
    446c:	00026504 	andeq	r6, r2, r4, lsl #10
    4470:	19220200 	stmdbne	r2!, {r9}
    4474:	00000077 	andeq	r0, r0, r7, ror r0
    4478:	007d0405 	rsbseq	r0, sp, r5, lsl #8
    447c:	2b060000 	blcs	184484 <__bss_end__+0x17a31c>
    4480:	04000004 	streq	r0, [r0], #-4
    4484:	000002cb 	andeq	r0, r0, fp, asr #5
    4488:	410e2c03 	tstmi	lr, r3, lsl #24
    448c:	04000000 	streq	r0, [r0], #-0
    4490:	00000440 	andeq	r0, r0, r0, asr #8
    4494:	410e7203 	tstmi	lr, r3, lsl #4
    4498:	07000000 	streq	r0, [r0, -r0]
    449c:	0000026d 	andeq	r0, r0, sp, ror #4
    44a0:	17015e04 	strne	r5, [r1, -r4, lsl #28]
    44a4:	0000002c 	andeq	r0, r0, ip, lsr #32
    44a8:	a6030408 	strge	r0, [r3], -r8, lsl #8
    44ac:	0000c903 	andeq	ip, r0, r3, lsl #18
    44b0:	025f0900 	subseq	r0, pc, #0, 18
    44b4:	a8030000 	stmdage	r3, {}	; <UNPREDICTABLE>
    44b8:	00009a0c 	andeq	r9, r0, ip, lsl #20
    44bc:	01e20900 	mvneq	r0, r0, lsl #18
    44c0:	a9030000 	stmdbge	r3, {}	; <UNPREDICTABLE>
    44c4:	0000c913 	andeq	ip, r0, r3, lsl r9
    44c8:	4f0a0000 	svcmi	0x000a0000
    44cc:	d9000000 	stmdble	r0, {}	; <UNPREDICTABLE>
    44d0:	0b000000 	bleq	44d8 <_start-0x3b28>
    44d4:	0000002c 	andeq	r0, r0, ip, lsr #32
    44d8:	080c0003 	stmdaeq	ip, {r0, r1}
    44dc:	fd09a303 	stc2	3, cr10, [r9, #-12]
    44e0:	0d000000 	stceq	0, cr0, [r0, #-0]
    44e4:	00000423 	andeq	r0, r0, r3, lsr #8
    44e8:	2507a503 	strcs	sl, [r7, #-1283]	; 0xfffffafd
    44ec:	00000000 	andeq	r0, r0, r0
    44f0:	0004320d 	andeq	r3, r4, sp, lsl #4
    44f4:	05aa0300 	streq	r0, [sl, #768]!	; 0x300
    44f8:	000000a7 	andeq	r0, r0, r7, lsr #1
    44fc:	ad040004 	stcge	0, cr0, [r4, #-16]
    4500:	03000003 	movweq	r0, #3
    4504:	00d903ab 	sbcseq	r0, r9, fp, lsr #7
    4508:	9f040000 	svcls	0x00040000
    450c:	03000001 	movweq	r0, #1
    4510:	006b1baf 	rsbeq	r1, fp, pc, lsr #23
    4514:	040e0000 	streq	r0, [lr], #-0
    4518:	011d0405 	tsteq	sp, r5, lsl #8
    451c:	01030000 	mrseq	r0, (UNDEF: 3)
    4520:	0002f308 	andeq	pc, r2, r8, lsl #6
    4524:	011d0f00 	tsteq	sp, r0, lsl #30
    4528:	72040000 	andvc	r0, r4, #0
    452c:	05000004 	streq	r0, [r0, #-4]
    4530:	005d1916 	subseq	r1, sp, r6, lsl r9
    4534:	b0100000 	andslt	r0, r0, r0
    4538:	18000001 	stmdane	r0, {r0}
    453c:	8f082f05 	svchi	0x00082f05
    4540:	0d000001 	stceq	0, cr0, [r0, #-4]
    4544:	000003ce 	andeq	r0, r0, lr, asr #7
    4548:	8f133105 	svchi	0x00133105
    454c:	00000001 	andeq	r0, r0, r1
    4550:	006b5f11 	rsbeq	r5, fp, r1, lsl pc
    4554:	25073205 	strcs	r3, [r7, #-517]	; 0xfffffdfb
    4558:	04000000 	streq	r0, [r0], #-0
    455c:	00040e0d 	andeq	r0, r4, sp, lsl #28
    4560:	0b320500 	bleq	c85968 <__bss_end__+0xc7b800>
    4564:	00000025 	andeq	r0, r0, r5, lsr #32
    4568:	01990d08 	orrseq	r0, r9, r8, lsl #26
    456c:	32050000 	andcc	r0, r5, #0
    4570:	00002514 	andeq	r2, r0, r4, lsl r5
    4574:	b20d0c00 	andlt	r0, sp, #0, 24
    4578:	05000004 	streq	r0, [r0, #-4]
    457c:	00251b32 	eoreq	r1, r5, r2, lsr fp
    4580:	11100000 	tstne	r0, r0
    4584:	0500785f 	streq	r7, [r0, #-2143]	; 0xfffff7a1
    4588:	01950b33 	orrseq	r0, r5, r3, lsr fp
    458c:	00140000 	andseq	r0, r4, r0
    4590:	01350405 	teqeq	r5, r5, lsl #8
    4594:	290a0000 	stmdbcs	sl, {}	; <UNPREDICTABLE>
    4598:	a5000001 	strge	r0, [r0, #-1]
    459c:	0b000001 	bleq	45a8 <_start-0x3a58>
    45a0:	0000002c 	andeq	r0, r0, ip, lsr #32
    45a4:	dd100000 	ldcle	0, cr0, [r0, #-0]
    45a8:	24000001 	strcs	r0, [r0], #-1
    45ac:	28083705 	stmdacs	r8, {r0, r2, r8, r9, sl, ip, sp}
    45b0:	0d000002 	stceq	0, cr0, [r0, #-8]
    45b4:	0000009e 	muleq	r0, lr, r0
    45b8:	25093905 	strcs	r3, [r9, #-2309]	; 0xfffff6fb
    45bc:	00000000 	andeq	r0, r0, r0
    45c0:	0004480d 	andeq	r4, r4, sp, lsl #16
    45c4:	093a0500 	ldmdbeq	sl!, {r8, sl}
    45c8:	00000025 	andeq	r0, r0, r5, lsr #32
    45cc:	00c10d04 	sbceq	r0, r1, r4, lsl #26
    45d0:	3b050000 	blcc	1445d8 <__bss_end__+0x13a470>
    45d4:	00002509 	andeq	r2, r0, r9, lsl #10
    45d8:	330d0800 	movwcc	r0, #55296	; 0xd800
    45dc:	05000005 	streq	r0, [r0, #-5]
    45e0:	0025093c 	eoreq	r0, r5, ip, lsr r9
    45e4:	0d0c0000 	stceq	0, cr0, [ip, #-0]
    45e8:	000002af 	andeq	r0, r0, pc, lsr #5
    45ec:	25093d05 	strcs	r3, [r9, #-3333]	; 0xfffff2fb
    45f0:	10000000 	andne	r0, r0, r0
    45f4:	0002830d 	andeq	r8, r2, sp, lsl #6
    45f8:	093e0500 	ldmdbeq	lr!, {r8, sl}
    45fc:	00000025 	andeq	r0, r0, r5, lsr #32
    4600:	04b70d14 	ldrteq	r0, [r7], #3348	; 0xd14
    4604:	3f050000 	svccc	0x00050000
    4608:	00002509 	andeq	r2, r0, r9, lsl #10
    460c:	8f0d1800 	svchi	0x000d1800
    4610:	05000003 	streq	r0, [r0, #-3]
    4614:	00250940 	eoreq	r0, r5, r0, asr #18
    4618:	0d1c0000 	ldceq	0, cr0, [ip, #-0]
    461c:	000004fa 	strdeq	r0, [r0], -sl
    4620:	25094105 	strcs	r4, [r9, #-261]	; 0xfffffefb
    4624:	20000000 	andcs	r0, r0, r0
    4628:	01011200 	mrseq	r1, R9_usr
    462c:	01080000 	mrseq	r0, (UNDEF: 8)
    4630:	6d084a05 	vstrvs	s8, [r8, #-20]	; 0xffffffec
    4634:	0d000002 	stceq	0, cr0, [r0, #-8]
    4638:	0000018c 	andeq	r0, r0, ip, lsl #3
    463c:	6d0a4b05 	vstrvs	d4, [sl, #-20]	; 0xffffffec
    4640:	00000002 	andeq	r0, r0, r2
    4644:	0000000d 	andeq	r0, r0, sp
    4648:	094c0500 	stmdbeq	ip, {r8, sl}^
    464c:	0000026d 	andeq	r0, r0, sp, ror #4
    4650:	04641380 	strbteq	r1, [r4], #-896	; 0xfffffc80
    4654:	4e050000 	cdpmi	0, 0, cr0, cr5, cr0, {0}
    4658:	0001290a 	andeq	r2, r1, sl, lsl #18
    465c:	13010000 	movwne	r0, #4096	; 0x1000
    4660:	00000126 	andeq	r0, r0, r6, lsr #2
    4664:	290a5105 	stmdbcs	sl, {r0, r2, r8, ip, lr}
    4668:	04000001 	streq	r0, [r0], #-1
    466c:	150a0001 	strne	r0, [sl, #-1]
    4670:	7d000001 	stcvc	0, cr0, [r0, #-4]
    4674:	0b000002 	bleq	4684 <_start-0x397c>
    4678:	0000002c 	andeq	r0, r0, ip, lsr #32
    467c:	b812001f 	ldmdalt	r2, {r0, r1, r2, r3, r4}
    4680:	90000002 	andls	r0, r0, r2
    4684:	085d0501 	ldmdaeq	sp, {r0, r8, sl}^
    4688:	000002c0 	andeq	r0, r0, r0, asr #5
    468c:	0003ce0d 	andeq	ip, r3, sp, lsl #28
    4690:	125e0500 	subsne	r0, lr, #0, 10
    4694:	000002c0 	andeq	r0, r0, r0, asr #5
    4698:	03e60d00 	mvneq	r0, #0, 26
    469c:	5f050000 	svcpl	0x00050000
    46a0:	00002506 	andeq	r2, r0, r6, lsl #10
    46a4:	940d0400 	strls	r0, [sp], #-1024	; 0xfffffc00
    46a8:	05000001 	streq	r0, [r0, #-1]
    46ac:	02c60961 	sbceq	r0, r6, #1589248	; 0x184000
    46b0:	0d080000 	stceq	0, cr0, [r8, #-0]
    46b4:	00000101 	andeq	r0, r0, r1, lsl #2
    46b8:	281e6205 	ldmdacs	lr, {r0, r2, r9, sp, lr}
    46bc:	88000002 	stmdahi	r0, {r1}
    46c0:	7d040500 	cfstr32vc	mvfx0, [r4, #-0]
    46c4:	0a000002 	beq	46d4 <_start-0x392c>
    46c8:	000002d6 	ldrdeq	r0, [r0], -r6
    46cc:	000002d6 	ldrdeq	r0, [r0], -r6
    46d0:	00002c0b 	andeq	r2, r0, fp, lsl #24
    46d4:	05001f00 	streq	r1, [r0, #-3840]	; 0xfffff100
    46d8:	0002dc04 	andeq	sp, r2, r4, lsl #24
    46dc:	99101400 	ldmdbls	r0, {sl, ip}
    46e0:	08000003 	stmdaeq	r0, {r0, r1}
    46e4:	05087505 	streq	r7, [r8, #-1285]	; 0xfffffafb
    46e8:	0d000003 	stceq	0, cr0, [r0, #-12]
    46ec:	000000bb 	strheq	r0, [r0], -fp
    46f0:	05117605 	ldreq	r7, [r1, #-1541]	; 0xfffff9fb
    46f4:	00000003 	andeq	r0, r0, r3
    46f8:	00001b0d 	andeq	r1, r0, sp, lsl #22
    46fc:	06770500 	ldrbteq	r0, [r7], -r0, lsl #10
    4700:	00000025 	andeq	r0, r0, r5, lsr #32
    4704:	04050004 	streq	r0, [r5], #-4
    4708:	0000004f 	andeq	r0, r0, pc, asr #32
    470c:	0003b810 	andeq	fp, r3, r0, lsl r8
    4710:	b5056800 	strlt	r6, [r5, #-2048]	; 0xfffff800
    4714:	00044e08 	andeq	r4, r4, r8, lsl #28
    4718:	705f1100 	subsvc	r1, pc, r0, lsl #2
    471c:	12b60500 	adcsne	r0, r6, #0, 10
    4720:	00000305 	andeq	r0, r0, r5, lsl #6
    4724:	725f1100 	subsvc	r1, pc, #0, 2
    4728:	07b70500 	ldreq	r0, [r7, r0, lsl #10]!
    472c:	00000025 	andeq	r0, r0, r5, lsr #32
    4730:	775f1104 	ldrbvc	r1, [pc, -r4, lsl #2]
    4734:	07b80500 	ldreq	r0, [r8, r0, lsl #10]!
    4738:	00000025 	andeq	r0, r0, r5, lsr #32
    473c:	011f0d08 	tsteq	pc, r8, lsl #26
    4740:	b9050000 	stmdblt	r5, {}	; <UNPREDICTABLE>
    4744:	00003a09 	andeq	r3, r0, r9, lsl #20
    4748:	080d0c00 	stmdaeq	sp, {sl, fp}
    474c:	05000002 	streq	r0, [r0, #-2]
    4750:	003a09ba 	ldrhteq	r0, [sl], -sl
    4754:	110e0000 	mrsne	r0, (UNDEF: 14)
    4758:	0066625f 	rsbeq	r6, r6, pc, asr r2
    475c:	dd11bb05 	vldrle	d11, [r1, #-20]	; 0xffffffec
    4760:	10000002 	andne	r0, r0, r2
    4764:	00007b0d 	andeq	r7, r0, sp, lsl #22
    4768:	07bc0500 	ldreq	r0, [ip, r0, lsl #10]!
    476c:	00000025 	andeq	r0, r0, r5, lsr #32
    4770:	010f0d18 	tsteq	pc, r8, lsl sp	; <UNPREDICTABLE>
    4774:	c3050000 	movwgt	r0, #20480	; 0x5000
    4778:	0001150a 	andeq	r1, r1, sl, lsl #10
    477c:	590d1c00 	stmdbpl	sp, {sl, fp, ip}
    4780:	0500000b 	streq	r0, [r0, #-11]
    4784:	05c01dc5 	strbeq	r1, [r0, #3525]	; 0xdc5
    4788:	0d200000 	stceq	0, cr0, [r0, #-0]
    478c:	0000061d 	andeq	r0, r0, sp, lsl r6
    4790:	ea1dc705 	b	7763ac <__bss_end__+0x76c244>
    4794:	24000005 	strcs	r0, [r0], #-5
    4798:	00043a0d 	andeq	r3, r4, sp, lsl #20
    479c:	0dca0500 	cfstr64eq	mvdx0, [sl]
    47a0:	0000060e 	andeq	r0, r0, lr, lsl #12
    47a4:	05140d28 	ldreq	r0, [r4, #-3368]	; 0xfffff2d8
    47a8:	cb050000 	blgt	1447b0 <__bss_end__+0x13a648>
    47ac:	00062809 	andeq	r2, r6, r9, lsl #16
    47b0:	5f112c00 	svcpl	0x00112c00
    47b4:	05006275 	streq	r6, [r0, #-629]	; 0xfffffd8b
    47b8:	02dd11ce 	sbcseq	r1, sp, #-2147483597	; 0x80000033
    47bc:	11300000 	teqne	r0, r0
    47c0:	0070755f 	rsbseq	r7, r0, pc, asr r5
    47c4:	0512cf05 	ldreq	ip, [r2, #-3845]	; 0xfffff0fb
    47c8:	38000003 	stmdacc	r0, {r0, r1}
    47cc:	72755f11 	rsbsvc	r5, r5, #17, 30	; 0x44
    47d0:	07d00500 	ldrbeq	r0, [r0, r0, lsl #10]
    47d4:	00000025 	andeq	r0, r0, r5, lsr #32
    47d8:	00b50d3c 	adcseq	r0, r5, ip, lsr sp
    47dc:	d3050000 	movwle	r0, #20480	; 0x5000
    47e0:	00062e11 	andeq	r2, r6, r1, lsl lr
    47e4:	ec0d4000 	stc	0, cr4, [sp], {-0}
    47e8:	05000004 	streq	r0, [r0, #-4]
    47ec:	063e11d4 			; <UNDEFINED> instruction: 0x063e11d4
    47f0:	11430000 	mrsne	r0, (UNDEF: 67)
    47f4:	00626c5f 	rsbeq	r6, r2, pc, asr ip
    47f8:	dd11d705 	ldcle	7, cr13, [r1, #-20]	; 0xffffffec
    47fc:	44000002 	strmi	r0, [r0], #-2
    4800:	00013d0d 	andeq	r3, r1, sp, lsl #26
    4804:	07da0500 	ldrbeq	r0, [sl, r0, lsl #10]
    4808:	00000025 	andeq	r0, r0, r5, lsr #32
    480c:	014e0d4c 	cmpeq	lr, ip, asr #26
    4810:	db050000 	blle	144818 <__bss_end__+0x13a6b0>
    4814:	0000820a 	andeq	r8, r0, sl, lsl #4
    4818:	fa0d5000 	blx	358820 <__bss_end__+0x34e6b8>
    481c:	0500000a 	streq	r0, [r0, #-10]
    4820:	046c12de 	strbteq	r1, [ip], #-734	; 0xfffffd22
    4824:	0d540000 	ldcleq	0, cr0, [r4, #-0]
    4828:	0000042c 	andeq	r0, r0, ip, lsr #8
    482c:	090ce205 	stmdbeq	ip, {r0, r2, r9, sp, lr, pc}
    4830:	58000001 	stmdapl	r0, {r0}
    4834:	0003c00d 	andeq	ip, r3, sp
    4838:	0ee40500 	cdpeq	5, 14, cr0, cr4, cr0, {0}
    483c:	000000fd 	strdeq	r0, [r0], -sp
    4840:	027b0d5c 	rsbseq	r0, fp, #92, 26	; 0x1700
    4844:	e5050000 	str	r0, [r5, #-0]
    4848:	00002509 	andeq	r2, r0, r9, lsl #10
    484c:	15006400 	strne	r6, [r0, #-1024]	; 0xfffffc00
    4850:	00000025 	andeq	r0, r0, r5, lsr #32
    4854:	0000046c 	andeq	r0, r0, ip, ror #8
    4858:	00046c16 	andeq	r6, r4, r6, lsl ip
    485c:	01151600 	tsteq	r5, r0, lsl #12
    4860:	17160000 	ldrne	r0, [r6, -r0]
    4864:	16000001 	strne	r0, [r0], -r1
    4868:	00000025 	andeq	r0, r0, r5, lsr #32
    486c:	77040500 	strvc	r0, [r4, -r0, lsl #10]
    4870:	0f000004 	svceq	0x00000004
    4874:	0000046c 	andeq	r0, r0, ip, ror #8
    4878:	00041617 	andeq	r1, r4, r7, lsl r6
    487c:	05042800 	streq	r2, [r4, #-2048]	; 0xfffff800
    4880:	c0080260 	andgt	r0, r8, r0, ror #4
    4884:	18000005 	stmdane	r0, {r0, r2}
    4888:	0000037e 	andeq	r0, r0, lr, ror r3
    488c:	07026205 	streq	r6, [r2, -r5, lsl #4]
    4890:	00000025 	andeq	r0, r0, r5, lsr #32
    4894:	012e1800 			; <UNDEFINED> instruction: 0x012e1800
    4898:	67050000 	strvs	r0, [r5, -r0]
    489c:	069a0b02 	ldreq	r0, [sl], r2, lsl #22
    48a0:	18040000 	stmdane	r4, {}	; <UNPREDICTABLE>
    48a4:	000001f8 	strdeq	r0, [r0], -r8
    48a8:	14026705 	strne	r6, [r2], #-1797	; 0xfffff8fb
    48ac:	0000069a 	muleq	r0, sl, r6
    48b0:	01a81808 			; <UNDEFINED> instruction: 0x01a81808
    48b4:	67050000 	strvs	r0, [r5, -r0]
    48b8:	069a1e02 	ldreq	r1, [sl], r2, lsl #28
    48bc:	180c0000 	stmdane	ip, {}	; <UNPREDICTABLE>
    48c0:	000003e1 	andeq	r0, r0, r1, ror #7
    48c4:	08026905 	stmdaeq	r2, {r0, r2, r8, fp, sp, lr}
    48c8:	00000025 	andeq	r0, r0, r5, lsr #32
    48cc:	00291810 	eoreq	r1, r9, r0, lsl r8
    48d0:	6a050000 	bvs	1448d8 <__bss_end__+0x13a770>
    48d4:	089a0802 	ldmeq	sl, {r1, fp}
    48d8:	18140000 	ldmdane	r4, {}	; <UNPREDICTABLE>
    48dc:	000003f5 	strdeq	r0, [r0], -r5
    48e0:	07026d05 	streq	r6, [r2, -r5, lsl #26]
    48e4:	00000025 	andeq	r0, r0, r5, lsr #32
    48e8:	0a361830 	beq	d8a9b0 <__bss_end__+0xd80848>
    48ec:	6e050000 	cdpvs	0, 0, cr0, cr5, cr0, {0}
    48f0:	08af1602 	stmiaeq	pc!, {r1, r9, sl, ip}	; <UNPREDICTABLE>
    48f4:	18340000 	ldmdane	r4!, {}	; <UNPREDICTABLE>
    48f8:	000002c0 	andeq	r0, r0, r0, asr #5
    48fc:	07027005 	streq	r7, [r2, -r5]
    4900:	00000025 	andeq	r0, r0, r5, lsr #32
    4904:	03eb1838 	mvneq	r1, #56, 16	; 0x380000
    4908:	72050000 	andvc	r0, r5, #0
    490c:	08c00a02 	stmiaeq	r0, {r1, r9, fp}^
    4910:	183c0000 	ldmdane	ip!, {}	; <UNPREDICTABLE>
    4914:	00000257 	andeq	r0, r0, r7, asr r2
    4918:	13027505 	movwne	r7, #9477	; 0x2505
    491c:	0000018f 	andeq	r0, r0, pc, lsl #3
    4920:	01c71840 	biceq	r1, r7, r0, asr #16
    4924:	76050000 	strvc	r0, [r5], -r0
    4928:	00250702 	eoreq	r0, r5, r2, lsl #14
    492c:	18440000 	stmdane	r4, {}^	; <UNPREDICTABLE>
    4930:	0000052e 	andeq	r0, r0, lr, lsr #10
    4934:	13027705 	movwne	r7, #9989	; 0x2705
    4938:	0000018f 	andeq	r0, r0, pc, lsl #3
    493c:	02d21848 	sbcseq	r1, r2, #72, 16	; 0x480000
    4940:	78050000 	stmdavc	r5, {}	; <UNPREDICTABLE>
    4944:	08c61402 	stmiaeq	r6, {r1, sl, ip}^
    4948:	184c0000 	stmdane	ip, {}^	; <UNPREDICTABLE>
    494c:	00000200 	andeq	r0, r0, r0, lsl #4
    4950:	07027b05 	streq	r7, [r2, -r5, lsl #22]
    4954:	00000025 	andeq	r0, r0, r5, lsr #32
    4958:	01461850 	cmpeq	r6, r0, asr r8
    495c:	7c050000 	stcvc	0, cr0, [r5], {-0}
    4960:	01170902 	tsteq	r7, r2, lsl #18
    4964:	18540000 	ldmdane	r4, {}^	; <UNPREDICTABLE>
    4968:	000002f8 	strdeq	r0, [r0], -r8
    496c:	07029f05 	streq	r9, [r2, -r5, lsl #30]
    4970:	00000875 	andeq	r0, r0, r5, ror r8
    4974:	02b81958 	adcseq	r1, r8, #88, 18	; 0x160000
    4978:	a3050000 	movwge	r0, #20480	; 0x5000
    497c:	02c01302 	sbceq	r1, r0, #134217728	; 0x8000000
    4980:	01480000 	mrseq	r0, (UNDEF: 72)
    4984:	00023519 	andeq	r3, r2, r9, lsl r5
    4988:	02a40500 	adceq	r0, r4, #0, 10
    498c:	00027d12 	andeq	r7, r2, r2, lsl sp
    4990:	19014c00 	stmdbne	r1, {sl, fp, lr}
    4994:	000004da 	ldrdeq	r0, [r0], -sl
    4998:	0c02a805 	stceq	8, cr10, [r2], {5}
    499c:	000008d7 	ldrdeq	r0, [r0], -r7
    49a0:	171902dc 			; <UNDEFINED> instruction: 0x171902dc
    49a4:	05000001 	streq	r0, [r0, #-1]
    49a8:	5b1002ad 	blpl	405464 <__bss_end__+0x3fb2fc>
    49ac:	e0000006 	and	r0, r0, r6
    49b0:	00fc1902 	rscseq	r1, ip, r2, lsl #18
    49b4:	af050000 	svcge	0x00050000
    49b8:	08e30a02 	stmiaeq	r3!, {r1, r9, fp}^
    49bc:	02ec0000 	rsceq	r0, ip, #0
    49c0:	4e040500 	cfsh32mi	mvfx0, mvfx4, #0
    49c4:	15000004 	strne	r0, [r0, #-4]
    49c8:	00000025 	andeq	r0, r0, r5, lsr #32
    49cc:	000005e4 	andeq	r0, r0, r4, ror #11
    49d0:	00046c16 	andeq	r6, r4, r6, lsl ip
    49d4:	01151600 	tsteq	r5, r0, lsl #12
    49d8:	e4160000 	ldr	r0, [r6], #-0
    49dc:	16000005 	strne	r0, [r0], -r5
    49e0:	00000025 	andeq	r0, r0, r5, lsr #32
    49e4:	24040500 	strcs	r0, [r4], #-1280	; 0xfffffb00
    49e8:	05000001 	streq	r0, [r0, #-1]
    49ec:	0005c604 	andeq	ip, r5, r4, lsl #12
    49f0:	008e1500 	addeq	r1, lr, r0, lsl #10
    49f4:	060e0000 	streq	r0, [lr], -r0
    49f8:	6c160000 	ldcvs	0, cr0, [r6], {-0}
    49fc:	16000004 	strne	r0, [r0], -r4
    4a00:	00000115 	andeq	r0, r0, r5, lsl r1
    4a04:	00008e16 	andeq	r8, r0, r6, lsl lr
    4a08:	00251600 	eoreq	r1, r5, r0, lsl #12
    4a0c:	05000000 	streq	r0, [r0, #-0]
    4a10:	0005f004 	andeq	pc, r5, r4
    4a14:	00251500 	eoreq	r1, r5, r0, lsl #10
    4a18:	06280000 	strteq	r0, [r8], -r0
    4a1c:	6c160000 	ldcvs	0, cr0, [r6], {-0}
    4a20:	16000004 	strne	r0, [r0], -r4
    4a24:	00000115 	andeq	r0, r0, r5, lsl r1
    4a28:	14040500 	strne	r0, [r4], #-1280	; 0xfffffb00
    4a2c:	0a000006 	beq	4a4c <_start-0x35b4>
    4a30:	0000004f 	andeq	r0, r0, pc, asr #32
    4a34:	0000063e 	andeq	r0, r0, lr, lsr r6
    4a38:	00002c0b 	andeq	r2, r0, fp, lsl #24
    4a3c:	0a000200 	beq	5244 <_start-0x2dbc>
    4a40:	0000004f 	andeq	r0, r0, pc, asr #32
    4a44:	0000064e 	andeq	r0, r0, lr, asr #12
    4a48:	00002c0b 	andeq	r2, r0, fp, lsl #24
    4a4c:	07000000 	streq	r0, [r0, -r0]
    4a50:	000003a6 	andeq	r0, r0, r6, lsr #7
    4a54:	1a011f05 	bne	4c670 <__bss_end__+0x42508>
    4a58:	0000030b 	andeq	r0, r0, fp, lsl #6
    4a5c:	0004c11a 	andeq	ip, r4, sl, lsl r1
    4a60:	23050c00 	movwcs	r0, #23552	; 0x5c00
    4a64:	06940801 	ldreq	r0, [r4], r1, lsl #16
    4a68:	ce180000 	cdpgt	0, 1, cr0, cr8, cr0, {0}
    4a6c:	05000003 	streq	r0, [r0, #-3]
    4a70:	94110125 	ldrls	r0, [r1], #-293	; 0xfffffedb
    4a74:	00000006 	andeq	r0, r0, r6
    4a78:	00021b18 	andeq	r1, r2, r8, lsl fp
    4a7c:	01260500 			; <UNDEFINED> instruction: 0x01260500
    4a80:	00002507 	andeq	r2, r0, r7, lsl #10
    4a84:	a0180400 	andsge	r0, r8, r0, lsl #8
    4a88:	05000003 	streq	r0, [r0, #-3]
    4a8c:	9a0b0127 	bls	2c4f30 <__bss_end__+0x2badc8>
    4a90:	08000006 	stmdaeq	r0, {r1, r2}
    4a94:	5b040500 	blpl	105e9c <__bss_end__+0xfbd34>
    4a98:	05000006 	streq	r0, [r0, #-6]
    4a9c:	00064e04 	andeq	r4, r6, r4, lsl #28
    4aa0:	00211a00 	eoreq	r1, r1, r0, lsl #20
    4aa4:	050e0000 	streq	r0, [lr, #-0]
    4aa8:	d908013f 	stmdble	r8, {r0, r1, r2, r3, r4, r5, r8}
    4aac:	18000006 	stmdane	r0, {r1, r2}
    4ab0:	0000041d 	andeq	r0, r0, sp, lsl r4
    4ab4:	12014005 	andne	r4, r1, #5
    4ab8:	000006d9 	ldrdeq	r0, [r0], -r9
    4abc:	04511800 	ldrbeq	r1, [r1], #-2048	; 0xfffff800
    4ac0:	41050000 	mrsmi	r0, (UNDEF: 5)
    4ac4:	06d91201 	ldrbeq	r1, [r9], r1, lsl #4
    4ac8:	18060000 	stmdane	r6, {}	; <UNPREDICTABLE>
    4acc:	0000046d 	andeq	r0, r0, sp, ror #8
    4ad0:	12014205 	andne	r4, r1, #1342177280	; 0x50000000
    4ad4:	00000056 	andeq	r0, r0, r6, asr r0
    4ad8:	560a000c 	strpl	r0, [sl], -ip
    4adc:	e9000000 	stmdb	r0, {}	; <UNPREDICTABLE>
    4ae0:	0b000006 	bleq	4b00 <_start-0x3500>
    4ae4:	0000002c 	andeq	r0, r0, ip, lsr #32
    4ae8:	d01b0002 	andsle	r0, fp, r2
    4aec:	07028005 	streq	r8, [r2, -r5]
    4af0:	000007fe 	strdeq	r0, [r0], -lr
    4af4:	0004a518 	andeq	sl, r4, r8, lsl r5
    4af8:	02820500 	addeq	r0, r2, #0, 10
    4afc:	00002c18 	andeq	r2, r0, r8, lsl ip
    4b00:	57180000 	ldrpl	r0, [r8, -r0]
    4b04:	05000004 	streq	r0, [r0, #-4]
    4b08:	17120283 	ldrne	r0, [r2, -r3, lsl #5]
    4b0c:	04000001 	streq	r0, [r0], #-1
    4b10:	00024a18 	andeq	r4, r2, r8, lsl sl
    4b14:	02840500 	addeq	r0, r4, #0, 10
    4b18:	0007fe10 	andeq	pc, r7, r0, lsl lr	; <UNPREDICTABLE>
    4b1c:	05180800 	ldreq	r0, [r8, #-2048]	; 0xfffff800
    4b20:	05000005 	streq	r0, [r0, #-5]
    4b24:	a5170285 	ldrge	r0, [r7, #-645]	; 0xfffffd7b
    4b28:	24000001 	strcs	r0, [r0], #-1
    4b2c:	0001b818 	andeq	fp, r1, r8, lsl r8
    4b30:	02860500 	addeq	r0, r6, #0, 10
    4b34:	0000250f 	andeq	r2, r0, pc, lsl #10
    4b38:	c9184800 	ldmdbgt	r8, {fp, lr}
    4b3c:	05000003 	streq	r0, [r0, #-3]
    4b40:	642c0287 	strtvs	r0, [ip], #-647	; 0xfffffd79
    4b44:	50000000 	andpl	r0, r0, r0
    4b48:	00051b18 	andeq	r1, r5, r8, lsl fp
    4b4c:	02880500 	addeq	r0, r8, #0, 10
    4b50:	0006a01a 	andeq	sl, r6, sl, lsl r0
    4b54:	d4185800 	ldrle	r5, [r8], #-2048	; 0xfffff800
    4b58:	05000003 	streq	r0, [r0, #-3]
    4b5c:	fd160289 	ldc2	2, cr0, [r6, #-548]	; 0xfffffddc
    4b60:	68000000 	stmdavs	r0, {}	; <UNPREDICTABLE>
    4b64:	00052018 	andeq	r2, r5, r8, lsl r0
    4b68:	028a0500 	addeq	r0, sl, #0, 10
    4b6c:	0000fd16 	andeq	pc, r0, r6, lsl sp	; <UNPREDICTABLE>
    4b70:	dc187000 	ldcle	0, cr7, [r8], {-0}
    4b74:	05000002 	streq	r0, [r0, #-2]
    4b78:	fd16028b 	ldc2	2, cr0, [r6, #-556]	; 0xfffffdd4
    4b7c:	78000000 	stmdavc	r0, {}	; <UNPREDICTABLE>
    4b80:	0004d018 	andeq	sp, r4, r8, lsl r0
    4b84:	028c0500 	addeq	r0, ip, #0, 10
    4b88:	00080e10 	andeq	r0, r8, r0, lsl lr
    4b8c:	3e188000 	cdpcc	0, 1, cr8, cr8, cr0, {0}
    4b90:	05000002 	streq	r0, [r0, #-2]
    4b94:	1e10028d 	cdpne	2, 1, cr0, cr0, cr13, {4}
    4b98:	88000008 	stmdahi	r0, {r3}
    4b9c:	00047a18 	andeq	r7, r4, r8, lsl sl
    4ba0:	028e0500 	addeq	r0, lr, #0, 10
    4ba4:	0000250f 	andeq	r2, r0, pc, lsl #10
    4ba8:	7e18a000 	cdpvc	0, 1, cr10, cr8, cr0, {0}
    4bac:	05000001 	streq	r0, [r0, #-1]
    4bb0:	fd16028f 	ldc2	2, cr0, [r6, #-572]	; 0xfffffdc4
    4bb4:	a4000000 	strge	r0, [r0], #-0
    4bb8:	00008f18 	andeq	r8, r0, r8, lsl pc
    4bbc:	02900500 	addseq	r0, r0, #0, 10
    4bc0:	0000fd16 	andeq	pc, r0, r6, lsl sp	; <UNPREDICTABLE>
    4bc4:	6d18ac00 	ldcvs	12, cr10, [r8, #-0]
    4bc8:	05000001 	streq	r0, [r0, #-1]
    4bcc:	fd160291 	ldc2	2, cr0, [r6, #-580]	; 0xfffffdbc
    4bd0:	b4000000 	strlt	r0, [r0], #-0
    4bd4:	00003c18 	andeq	r3, r0, r8, lsl ip
    4bd8:	02920500 	addseq	r0, r2, #0, 10
    4bdc:	0000fd16 	andeq	pc, r0, r6, lsl sp	; <UNPREDICTABLE>
    4be0:	4b18bc00 	blmi	633be8 <__bss_end__+0x629a80>
    4be4:	05000000 	streq	r0, [r0, #-0]
    4be8:	fd160293 	ldc2	2, cr0, [r6, #-588]	; 0xfffffdb4
    4bec:	c4000000 	strgt	r0, [r0], #-0
    4bf0:	00037c18 	andeq	r7, r3, r8, lsl ip
    4bf4:	02940500 	addseq	r0, r4, #0, 10
    4bf8:	00002508 	andeq	r2, r0, r8, lsl #10
    4bfc:	0a00cc00 	beq	37c04 <__bss_end__+0x2da9c>
    4c00:	0000011d 	andeq	r0, r0, sp, lsl r1
    4c04:	0000080e 	andeq	r0, r0, lr, lsl #16
    4c08:	00002c0b 	andeq	r2, r0, fp, lsl #24
    4c0c:	0a001900 	beq	b014 <__bss_end__+0xeac>
    4c10:	0000011d 	andeq	r0, r0, sp, lsl r1
    4c14:	0000081e 	andeq	r0, r0, lr, lsl r8
    4c18:	00002c0b 	andeq	r2, r0, fp, lsl #24
    4c1c:	0a000700 	beq	6824 <_start-0x17dc>
    4c20:	0000011d 	andeq	r0, r0, sp, lsl r1
    4c24:	0000082e 	andeq	r0, r0, lr, lsr #16
    4c28:	00002c0b 	andeq	r2, r0, fp, lsl #24
    4c2c:	1b001700 	blne	a834 <__bss_end__+0x6cc>
    4c30:	029905f0 	addseq	r0, r9, #240, 10	; 0x3c000000
    4c34:	00085507 	andeq	r5, r8, r7, lsl #10
    4c38:	02a81800 	adceq	r1, r8, #0, 16
    4c3c:	9c050000 	stcls	0, cr0, [r5], {-0}
    4c40:	08551b02 	ldmdaeq	r5, {r1, r8, r9, fp, ip}^
    4c44:	18000000 	stmdane	r0, {}	; <UNPREDICTABLE>
    4c48:	000004c7 	andeq	r0, r0, r7, asr #9
    4c4c:	18029d05 	stmdane	r2, {r0, r2, r8, sl, fp, ip, pc}
    4c50:	00000865 	andeq	r0, r0, r5, ror #16
    4c54:	050a0078 	streq	r0, [sl, #-120]	; 0xffffff88
    4c58:	65000003 	strvs	r0, [r0, #-3]
    4c5c:	0b000008 	bleq	4c84 <_start-0x337c>
    4c60:	0000002c 	andeq	r0, r0, ip, lsr #32
    4c64:	2c0a001d 	stccs	0, cr0, [sl], {29}
    4c68:	75000000 	strvc	r0, [r0, #-0]
    4c6c:	0b000008 	bleq	4c94 <_start-0x336c>
    4c70:	0000002c 	andeq	r0, r0, ip, lsr #32
    4c74:	f01c001d 			; <UNDEFINED> instruction: 0xf01c001d
    4c78:	03027e05 	movweq	r7, #11781	; 0x2e05
    4c7c:	0000089a 	muleq	r0, sl, r8
    4c80:	0004161d 	andeq	r1, r4, sp, lsl r6
    4c84:	02950500 	addseq	r0, r5, #0, 10
    4c88:	0006e90b 	andeq	lr, r6, fp, lsl #18
    4c8c:	04f21d00 	ldrbteq	r1, [r2], #3328	; 0xd00
    4c90:	9e050000 	cdpls	0, 0, cr0, cr5, cr0, {0}
    4c94:	082e0b02 	stmdaeq	lr!, {r1, r8, r9, fp}
    4c98:	0a000000 	beq	4ca0 <_start-0x3360>
    4c9c:	0000011d 	andeq	r0, r0, sp, lsl r1
    4ca0:	000008aa 	andeq	r0, r0, sl, lsr #17
    4ca4:	00002c0b 	andeq	r2, r0, fp, lsl #24
    4ca8:	06001800 	streq	r1, [r0], -r0, lsl #16
    4cac:	00000084 	andeq	r0, r0, r4, lsl #1
    4cb0:	08aa0405 	stmiaeq	sl!, {r0, r2, sl}
    4cb4:	c01e0000 	andsgt	r0, lr, r0
    4cb8:	16000008 	strne	r0, [r0], -r8
    4cbc:	0000046c 	andeq	r0, r0, ip, ror #8
    4cc0:	b5040500 	strlt	r0, [r4, #-1280]	; 0xfffffb00
    4cc4:	05000008 	streq	r0, [r0, #-8]
    4cc8:	00018f04 	andeq	r8, r1, r4, lsl #30
    4ccc:	08d71e00 	ldmeq	r7, {r9, sl, fp, ip}^
    4cd0:	25160000 	ldrcs	r0, [r6, #-0]
    4cd4:	00000000 	andeq	r0, r0, r0
    4cd8:	08dd0405 	ldmeq	sp, {r0, r2, sl}^
    4cdc:	04050000 	streq	r0, [r5], #-0
    4ce0:	000008cc 	andeq	r0, r0, ip, asr #17
    4ce4:	00064e0a 	andeq	r4, r6, sl, lsl #28
    4ce8:	0008f300 	andeq	pc, r8, r0, lsl #6
    4cec:	002c0b00 	eoreq	r0, ip, r0, lsl #22
    4cf0:	00020000 	andeq	r0, r2, r0
    4cf4:	00048e1f 	andeq	r8, r4, pc, lsl lr
    4cf8:	032e0500 			; <UNDEFINED> instruction: 0x032e0500
    4cfc:	00046c17 	andeq	r6, r4, r7, lsl ip
    4d00:	04871f00 	streq	r1, [r7], #3840	; 0xf00
    4d04:	2f050000 	svccs	0x00050000
    4d08:	04721d03 	ldrbteq	r1, [r2], #-3331	; 0xfffff2fd
    4d0c:	25150000 	ldrcs	r0, [r5, #-0]
    4d10:	1c000000 	stcne	0, cr0, [r0], {-0}
    4d14:	16000009 	strne	r0, [r0], -r9
    4d18:	00000025 	andeq	r0, r0, r5, lsr #32
    4d1c:	01d12000 	bicseq	r2, r1, r0
    4d20:	1d060000 	stcne	0, cr0, [r6, #-0]
    4d24:	0009280e 	andeq	r2, r9, lr, lsl #16
    4d28:	0d040500 	cfstr32eq	mvfx0, [r4, #-0]
    4d2c:	15000009 	strne	r0, [r0, #-9]
    4d30:	00000025 	andeq	r0, r0, r5, lsr #32
    4d34:	0000093d 	andeq	r0, r0, sp, lsr r9
    4d38:	0005e416 	andeq	lr, r5, r6, lsl r4
    4d3c:	73200000 	nopvc	{0}	; <UNPREDICTABLE>
    4d40:	06000007 	streq	r0, [r0], -r7
    4d44:	09490e22 	stmdbeq	r9, {r1, r5, r9, sl, fp}^
    4d48:	04050000 	streq	r0, [r5], #-0
    4d4c:	0000092e 	andeq	r0, r0, lr, lsr #18
    4d50:	00091c21 	andeq	r1, r9, r1, lsr #24
    4d54:	07060100 	streq	r0, [r6, -r0, lsl #2]
    4d58:	97400305 	strbls	r0, [r0, -r5, lsl #6]
    4d5c:	33220000 			; <UNDEFINED> instruction: 0x33220000
    4d60:	01000007 	tsteq	r0, r7
    4d64:	8b98060b 	blhi	fe606598 <__bss_end__+0xfe5fc430>
    4d68:	00100000 	andseq	r0, r0, r0
    4d6c:	9c010000 	stcls	0, cr0, [r1], {-0}
    4d70:	00000981 	andeq	r0, r0, r1, lsl #19
    4d74:	00706623 	rsbseq	r6, r0, r3, lsr #12
    4d78:	28190b01 	ldmdacs	r9, {r0, r8, r9, fp}
    4d7c:	01000009 	tsteq	r0, r9
    4d80:	e9240050 	stmdb	r4!, {r4, r6}
    4d84:	01000001 	tsteq	r0, r1
    4d88:	8b800608 	blhi	fe0065b0 <__bss_end__+0xfdffc448>
    4d8c:	00180000 	andseq	r0, r8, r0
    4d90:	9c010000 	stcls	0, cr0, [r1], {-0}
    4d94:	00074a25 	andeq	r4, r7, r5, lsr #20
    4d98:	0c030100 	stfeqs	f0, [r3], {-0}
    4d9c:	00000025 	andeq	r0, r0, r5, lsr #32
    4da0:	00008b6c 	andeq	r8, r0, ip, ror #22
    4da4:	00000014 	andeq	r0, r0, r4, lsl r0
    4da8:	09d09c01 	ldmibeq	r0, {r0, sl, fp, ip, pc}^
    4dac:	63260000 			; <UNDEFINED> instruction: 0x63260000
    4db0:	21030100 	mrscs	r0, (UNDEF: 19)
    4db4:	00000025 	andeq	r0, r0, r5, lsr #32
    4db8:	00000b26 	andeq	r0, r0, r6, lsr #22
    4dbc:	00000b22 	andeq	r0, r0, r2, lsr #22
    4dc0:	008b7827 	addeq	r7, fp, r7, lsr #16
    4dc4:	0009d000 	andeq	sp, r9, r0
    4dc8:	50012800 	andpl	r2, r1, r0, lsl #16
    4dcc:	00007402 	andeq	r7, r0, r2, lsl #8
    4dd0:	07402900 	strbeq	r2, [r0, -r0, lsl #18]
    4dd4:	07400000 	strbeq	r0, [r0, -r0]
    4dd8:	3c060000 	stccc	0, cr0, [r6], {-0}
    4ddc:	09830006 	stmibeq	r3, {r1, r2}
    4de0:	00040000 	andeq	r0, r4, r0
    4de4:	00000eec 	andeq	r0, r0, ip, ror #29
    4de8:	02fd0104 	rscseq	r0, sp, #4, 2
    4dec:	780c0000 	stmdavc	ip, {}	; <UNPREDICTABLE>
    4df0:	cc000007 	stcgt	0, cr0, [r0], {7}
    4df4:	a8000006 	stmdage	r0, {r1, r2}
    4df8:	3400008b 	strcc	r0, [r0], #-139	; 0xffffff75
    4dfc:	91000000 	mrsls	r0, (UNDEF: 0)
    4e00:	0200000e 	andeq	r0, r0, #14
    4e04:	6e690504 	cdpvs	5, 6, cr0, cr9, cr4, {0}
    4e08:	04030074 	streq	r0, [r3], #-116	; 0xffffff8c
    4e0c:	00006607 	andeq	r6, r0, r7, lsl #12
    4e10:	06010300 	streq	r0, [r1], -r0, lsl #6
    4e14:	000002ec 	andeq	r0, r0, ip, ror #5
    4e18:	85050203 	strhi	r0, [r5, #-515]	; 0xfffffdfd
    4e1c:	03000003 	movweq	r0, #3
    4e20:	00ac0504 	adceq	r0, ip, r4, lsl #10
    4e24:	08030000 	stmdaeq	r3, {}	; <UNPREDICTABLE>
    4e28:	0000a705 	andeq	sl, r0, r5, lsl #14
    4e2c:	08010300 	stmdaeq	r1, {r8, r9}
    4e30:	000002ea 	andeq	r0, r0, sl, ror #5
    4e34:	22070203 	andcs	r0, r7, #805306368	; 0x30000000
    4e38:	03000002 	movweq	r0, #2
    4e3c:	00610704 	rsbeq	r0, r1, r4, lsl #14
    4e40:	08030000 	stmdaeq	r3, {}	; <UNPREDICTABLE>
    4e44:	00005c07 	andeq	r5, r0, r7, lsl #24
    4e48:	02650400 	rsbeq	r0, r5, #0, 8
    4e4c:	22020000 	andcs	r0, r2, #0
    4e50:	00007719 	andeq	r7, r0, r9, lsl r7
    4e54:	7d040500 	cfstr32vc	mvfx0, [r4, #-0]
    4e58:	06000000 	streq	r0, [r0], -r0
    4e5c:	0000042b 	andeq	r0, r0, fp, lsr #8
    4e60:	0002cb04 	andeq	ip, r2, r4, lsl #22
    4e64:	0e2c0300 	cdpeq	3, 2, cr0, cr12, cr0, {0}
    4e68:	00000041 	andeq	r0, r0, r1, asr #32
    4e6c:	00044004 	andeq	r4, r4, r4
    4e70:	0e720300 	cdpeq	3, 7, cr0, cr2, cr0, {0}
    4e74:	00000041 	andeq	r0, r0, r1, asr #32
    4e78:	00026d07 	andeq	r6, r2, r7, lsl #26
    4e7c:	015e0400 	cmpeq	lr, r0, lsl #8
    4e80:	00002c17 	andeq	r2, r0, r7, lsl ip
    4e84:	03040800 	movweq	r0, #18432	; 0x4800
    4e88:	00c903a6 	sbceq	r0, r9, r6, lsr #7
    4e8c:	5f090000 	svcpl	0x00090000
    4e90:	03000002 	movweq	r0, #2
    4e94:	009a0ca8 	addseq	r0, sl, r8, lsr #25
    4e98:	e2090000 	and	r0, r9, #0
    4e9c:	03000001 	movweq	r0, #1
    4ea0:	00c913a9 	sbceq	r1, r9, r9, lsr #7
    4ea4:	0a000000 	beq	4eac <_start-0x3154>
    4ea8:	0000004f 	andeq	r0, r0, pc, asr #32
    4eac:	000000d9 	ldrdeq	r0, [r0], -r9
    4eb0:	00002c0b 	andeq	r2, r0, fp, lsl #24
    4eb4:	0c000300 	stceq	3, cr0, [r0], {-0}
    4eb8:	09a30308 	stmibeq	r3!, {r3, r8, r9}
    4ebc:	000000fd 	strdeq	r0, [r0], -sp
    4ec0:	0004230d 	andeq	r2, r4, sp, lsl #6
    4ec4:	07a50300 	streq	r0, [r5, r0, lsl #6]!
    4ec8:	00000025 	andeq	r0, r0, r5, lsr #32
    4ecc:	04320d00 	ldrteq	r0, [r2], #-3328	; 0xfffff300
    4ed0:	aa030000 	bge	c4ed8 <__bss_end__+0xbad70>
    4ed4:	0000a705 	andeq	sl, r0, r5, lsl #14
    4ed8:	04000400 	streq	r0, [r0], #-1024	; 0xfffffc00
    4edc:	000003ad 	andeq	r0, r0, sp, lsr #7
    4ee0:	d903ab03 	stmdble	r3, {r0, r1, r8, r9, fp, sp, pc}
    4ee4:	04000000 	streq	r0, [r0], #-0
    4ee8:	0000019f 	muleq	r0, pc, r1	; <UNPREDICTABLE>
    4eec:	6b1baf03 	blvs	6f0b00 <__bss_end__+0x6e6998>
    4ef0:	0e000000 	cdpeq	0, 0, cr0, cr0, cr0, {0}
    4ef4:	1d040504 	cfstr32ne	mvfx0, [r4, #-16]
    4ef8:	03000001 	movweq	r0, #1
    4efc:	02f30801 	rscseq	r0, r3, #65536	; 0x10000
    4f00:	1d0f0000 	stcne	0, cr0, [pc, #-0]	; 4f08 <_start-0x30f8>
    4f04:	04000001 	streq	r0, [r0], #-1
    4f08:	00000472 	andeq	r0, r0, r2, ror r4
    4f0c:	5d191605 	ldcpl	6, cr1, [r9, #-20]	; 0xffffffec
    4f10:	10000000 	andne	r0, r0, r0
    4f14:	000001b0 			; <UNDEFINED> instruction: 0x000001b0
    4f18:	082f0518 	stmdaeq	pc!, {r3, r4, r8, sl}	; <UNPREDICTABLE>
    4f1c:	0000018f 	andeq	r0, r0, pc, lsl #3
    4f20:	0003ce0d 	andeq	ip, r3, sp, lsl #28
    4f24:	13310500 	teqne	r1, #0, 10
    4f28:	0000018f 	andeq	r0, r0, pc, lsl #3
    4f2c:	6b5f1100 	blvs	17c9334 <__bss_end__+0x17bf1cc>
    4f30:	07320500 	ldreq	r0, [r2, -r0, lsl #10]!
    4f34:	00000025 	andeq	r0, r0, r5, lsr #32
    4f38:	040e0d04 	streq	r0, [lr], #-3332	; 0xfffff2fc
    4f3c:	32050000 	andcc	r0, r5, #0
    4f40:	0000250b 	andeq	r2, r0, fp, lsl #10
    4f44:	990d0800 	stmdbls	sp, {fp}
    4f48:	05000001 	streq	r0, [r0, #-1]
    4f4c:	00251432 	eoreq	r1, r5, r2, lsr r4
    4f50:	0d0c0000 	stceq	0, cr0, [ip, #-0]
    4f54:	000004b2 			; <UNDEFINED> instruction: 0x000004b2
    4f58:	251b3205 	ldrcs	r3, [fp, #-517]	; 0xfffffdfb
    4f5c:	10000000 	andne	r0, r0, r0
    4f60:	00785f11 	rsbseq	r5, r8, r1, lsl pc
    4f64:	950b3305 	strls	r3, [fp, #-773]	; 0xfffffcfb
    4f68:	14000001 	strne	r0, [r0], #-1
    4f6c:	35040500 	strcc	r0, [r4, #-1280]	; 0xfffffb00
    4f70:	0a000001 	beq	4f7c <_start-0x3084>
    4f74:	00000129 	andeq	r0, r0, r9, lsr #2
    4f78:	000001a5 	andeq	r0, r0, r5, lsr #3
    4f7c:	00002c0b 	andeq	r2, r0, fp, lsl #24
    4f80:	10000000 	andne	r0, r0, r0
    4f84:	000001dd 	ldrdeq	r0, [r0], -sp
    4f88:	08370524 	ldmdaeq	r7!, {r2, r5, r8, sl}
    4f8c:	00000228 	andeq	r0, r0, r8, lsr #4
    4f90:	00009e0d 	andeq	r9, r0, sp, lsl #28
    4f94:	09390500 	ldmdbeq	r9!, {r8, sl}
    4f98:	00000025 	andeq	r0, r0, r5, lsr #32
    4f9c:	04480d00 	strbeq	r0, [r8], #-3328	; 0xfffff300
    4fa0:	3a050000 	bcc	144fa8 <__bss_end__+0x13ae40>
    4fa4:	00002509 	andeq	r2, r0, r9, lsl #10
    4fa8:	c10d0400 	tstgt	sp, r0, lsl #8
    4fac:	05000000 	streq	r0, [r0, #-0]
    4fb0:	0025093b 	eoreq	r0, r5, fp, lsr r9
    4fb4:	0d080000 	stceq	0, cr0, [r8, #-0]
    4fb8:	00000533 	andeq	r0, r0, r3, lsr r5
    4fbc:	25093c05 	strcs	r3, [r9, #-3077]	; 0xfffff3fb
    4fc0:	0c000000 	stceq	0, cr0, [r0], {-0}
    4fc4:	0002af0d 	andeq	sl, r2, sp, lsl #30
    4fc8:	093d0500 	ldmdbeq	sp!, {r8, sl}
    4fcc:	00000025 	andeq	r0, r0, r5, lsr #32
    4fd0:	02830d10 	addeq	r0, r3, #16, 26	; 0x400
    4fd4:	3e050000 	cdpcc	0, 0, cr0, cr5, cr0, {0}
    4fd8:	00002509 	andeq	r2, r0, r9, lsl #10
    4fdc:	b70d1400 	strlt	r1, [sp, -r0, lsl #8]
    4fe0:	05000004 	streq	r0, [r0, #-4]
    4fe4:	0025093f 	eoreq	r0, r5, pc, lsr r9
    4fe8:	0d180000 	ldceq	0, cr0, [r8, #-0]
    4fec:	0000038f 	andeq	r0, r0, pc, lsl #7
    4ff0:	25094005 	strcs	r4, [r9, #-5]
    4ff4:	1c000000 	stcne	0, cr0, [r0], {-0}
    4ff8:	0004fa0d 	andeq	pc, r4, sp, lsl #20
    4ffc:	09410500 	stmdbeq	r1, {r8, sl}^
    5000:	00000025 	andeq	r0, r0, r5, lsr #32
    5004:	01120020 	tsteq	r2, r0, lsr #32
    5008:	08000001 	stmdaeq	r0, {r0}
    500c:	084a0501 	stmdaeq	sl, {r0, r8, sl}^
    5010:	0000026d 	andeq	r0, r0, sp, ror #4
    5014:	00018c0d 	andeq	r8, r1, sp, lsl #24
    5018:	0a4b0500 	beq	12c6420 <__bss_end__+0x12bc2b8>
    501c:	0000026d 	andeq	r0, r0, sp, ror #4
    5020:	00000d00 	andeq	r0, r0, r0, lsl #26
    5024:	4c050000 	stcmi	0, cr0, [r5], {-0}
    5028:	00026d09 	andeq	r6, r2, r9, lsl #26
    502c:	64138000 	ldrvs	r8, [r3], #-0
    5030:	05000004 	streq	r0, [r0, #-4]
    5034:	01290a4e 			; <UNDEFINED> instruction: 0x01290a4e
    5038:	01000000 	mrseq	r0, (UNDEF: 0)
    503c:	00012613 	andeq	r2, r1, r3, lsl r6
    5040:	0a510500 	beq	1446448 <__bss_end__+0x143c2e0>
    5044:	00000129 	andeq	r0, r0, r9, lsr #2
    5048:	0a000104 	beq	5460 <_start-0x2ba0>
    504c:	00000115 	andeq	r0, r0, r5, lsl r1
    5050:	0000027d 	andeq	r0, r0, sp, ror r2
    5054:	00002c0b 	andeq	r2, r0, fp, lsl #24
    5058:	12001f00 	andne	r1, r0, #0, 30
    505c:	000002b8 			; <UNDEFINED> instruction: 0x000002b8
    5060:	5d050190 	stfpls	f0, [r5, #-576]	; 0xfffffdc0
    5064:	0002c008 	andeq	ip, r2, r8
    5068:	03ce0d00 	biceq	r0, lr, #0, 26
    506c:	5e050000 	cdppl	0, 0, cr0, cr5, cr0, {0}
    5070:	0002c012 	andeq	ip, r2, r2, lsl r0
    5074:	e60d0000 	str	r0, [sp], -r0
    5078:	05000003 	streq	r0, [r0, #-3]
    507c:	0025065f 	eoreq	r0, r5, pc, asr r6
    5080:	0d040000 	stceq	0, cr0, [r4, #-0]
    5084:	00000194 	muleq	r0, r4, r1
    5088:	c6096105 	strgt	r6, [r9], -r5, lsl #2
    508c:	08000002 	stmdaeq	r0, {r1}
    5090:	0001010d 	andeq	r0, r1, sp, lsl #2
    5094:	1e620500 	cdpne	5, 6, cr0, cr2, cr0, {0}
    5098:	00000228 	andeq	r0, r0, r8, lsr #4
    509c:	04050088 	streq	r0, [r5], #-136	; 0xffffff78
    50a0:	0000027d 	andeq	r0, r0, sp, ror r2
    50a4:	0002d60a 	andeq	sp, r2, sl, lsl #12
    50a8:	0002d600 	andeq	sp, r2, r0, lsl #12
    50ac:	002c0b00 	eoreq	r0, ip, r0, lsl #22
    50b0:	001f0000 	andseq	r0, pc, r0
    50b4:	02dc0405 	sbcseq	r0, ip, #83886080	; 0x5000000
    50b8:	10140000 	andsne	r0, r4, r0
    50bc:	00000399 	muleq	r0, r9, r3
    50c0:	08750508 	ldmdaeq	r5!, {r3, r8, sl}^
    50c4:	00000305 	andeq	r0, r0, r5, lsl #6
    50c8:	0000bb0d 	andeq	fp, r0, sp, lsl #22
    50cc:	11760500 	cmnne	r6, r0, lsl #10
    50d0:	00000305 	andeq	r0, r0, r5, lsl #6
    50d4:	001b0d00 	andseq	r0, fp, r0, lsl #26
    50d8:	77050000 	strvc	r0, [r5, -r0]
    50dc:	00002506 	andeq	r2, r0, r6, lsl #10
    50e0:	05000400 	streq	r0, [r0, #-1024]	; 0xfffffc00
    50e4:	00004f04 	andeq	r4, r0, r4, lsl #30
    50e8:	03b81000 			; <UNDEFINED> instruction: 0x03b81000
    50ec:	05680000 	strbeq	r0, [r8, #-0]!
    50f0:	044e08b5 	strbeq	r0, [lr], #-2229	; 0xfffff74b
    50f4:	5f110000 	svcpl	0x00110000
    50f8:	b6050070 			; <UNDEFINED> instruction: 0xb6050070
    50fc:	00030512 	andeq	r0, r3, r2, lsl r5
    5100:	5f110000 	svcpl	0x00110000
    5104:	b7050072 	smlsdxlt	r5, r2, r0, r0
    5108:	00002507 	andeq	r2, r0, r7, lsl #10
    510c:	5f110400 	svcpl	0x00110400
    5110:	b8050077 	stmdalt	r5, {r0, r1, r2, r4, r5, r6}
    5114:	00002507 	andeq	r2, r0, r7, lsl #10
    5118:	1f0d0800 	svcne	0x000d0800
    511c:	05000001 	streq	r0, [r0, #-1]
    5120:	003a09b9 	ldrhteq	r0, [sl], -r9
    5124:	0d0c0000 	stceq	0, cr0, [ip, #-0]
    5128:	00000208 	andeq	r0, r0, r8, lsl #4
    512c:	3a09ba05 	bcc	273948 <__bss_end__+0x2697e0>
    5130:	0e000000 	cdpeq	0, 0, cr0, cr0, cr0, {0}
    5134:	66625f11 	uqadd16vs	r5, r2, r1
    5138:	11bb0500 			; <UNDEFINED> instruction: 0x11bb0500
    513c:	000002dd 	ldrdeq	r0, [r0], -sp
    5140:	007b0d10 	rsbseq	r0, fp, r0, lsl sp
    5144:	bc050000 	stclt	0, cr0, [r5], {-0}
    5148:	00002507 	andeq	r2, r0, r7, lsl #10
    514c:	0f0d1800 	svceq	0x000d1800
    5150:	05000001 	streq	r0, [r0, #-1]
    5154:	01150ac3 	tsteq	r5, r3, asr #21
    5158:	0d1c0000 	ldceq	0, cr0, [ip, #-0]
    515c:	00000b59 	andeq	r0, r0, r9, asr fp
    5160:	c01dc505 	andsgt	ip, sp, r5, lsl #10
    5164:	20000005 	andcs	r0, r0, r5
    5168:	00061d0d 	andeq	r1, r6, sp, lsl #26
    516c:	1dc70500 	cfstr64ne	mvdx0, [r7]
    5170:	000005ea 	andeq	r0, r0, sl, ror #11
    5174:	043a0d24 	ldrteq	r0, [sl], #-3364	; 0xfffff2dc
    5178:	ca050000 	bgt	145180 <__bss_end__+0x13b018>
    517c:	00060e0d 	andeq	r0, r6, sp, lsl #28
    5180:	140d2800 	strne	r2, [sp], #-2048	; 0xfffff800
    5184:	05000005 	streq	r0, [r0, #-5]
    5188:	062809cb 	strteq	r0, [r8], -fp, asr #19
    518c:	112c0000 			; <UNDEFINED> instruction: 0x112c0000
    5190:	0062755f 	rsbeq	r7, r2, pc, asr r5
    5194:	dd11ce05 	ldcle	14, cr12, [r1, #-20]	; 0xffffffec
    5198:	30000002 	andcc	r0, r0, r2
    519c:	70755f11 	rsbsvc	r5, r5, r1, lsl pc
    51a0:	12cf0500 	sbcne	r0, pc, #0, 10
    51a4:	00000305 	andeq	r0, r0, r5, lsl #6
    51a8:	755f1138 	ldrbvc	r1, [pc, #-312]	; 5078 <_start-0x2f88>
    51ac:	d0050072 	andle	r0, r5, r2, ror r0
    51b0:	00002507 	andeq	r2, r0, r7, lsl #10
    51b4:	b50d3c00 	strlt	r3, [sp, #-3072]	; 0xfffff400
    51b8:	05000000 	streq	r0, [r0, #-0]
    51bc:	062e11d3 			; <UNDEFINED> instruction: 0x062e11d3
    51c0:	0d400000 	stcleq	0, cr0, [r0, #-0]
    51c4:	000004ec 	andeq	r0, r0, ip, ror #9
    51c8:	3e11d405 	cfmulscc	mvf13, mvf1, mvf5
    51cc:	43000006 	movwmi	r0, #6
    51d0:	626c5f11 	rsbvs	r5, ip, #17, 30	; 0x44
    51d4:	11d70500 	bicsne	r0, r7, r0, lsl #10
    51d8:	000002dd 	ldrdeq	r0, [r0], -sp
    51dc:	013d0d44 	teqeq	sp, r4, asr #26
    51e0:	da050000 	ble	1451e8 <__bss_end__+0x13b080>
    51e4:	00002507 	andeq	r2, r0, r7, lsl #10
    51e8:	4e0d4c00 	cdpmi	12, 0, cr4, cr13, cr0, {0}
    51ec:	05000001 	streq	r0, [r0, #-1]
    51f0:	00820adb 	ldrdeq	r0, [r2], fp
    51f4:	0d500000 	ldcleq	0, cr0, [r0, #-0]
    51f8:	00000afa 	strdeq	r0, [r0], -sl
    51fc:	6c12de05 	ldcvs	14, cr13, [r2], {5}
    5200:	54000004 	strpl	r0, [r0], #-4
    5204:	00042c0d 	andeq	r2, r4, sp, lsl #24
    5208:	0ce20500 	cfstr64eq	mvdx0, [r2]
    520c:	00000109 	andeq	r0, r0, r9, lsl #2
    5210:	03c00d58 	biceq	r0, r0, #88, 26	; 0x1600
    5214:	e4050000 	str	r0, [r5], #-0
    5218:	0000fd0e 	andeq	pc, r0, lr, lsl #26
    521c:	7b0d5c00 	blvc	35c224 <__bss_end__+0x3520bc>
    5220:	05000002 	streq	r0, [r0, #-2]
    5224:	002509e5 	eoreq	r0, r5, r5, ror #19
    5228:	00640000 	rsbeq	r0, r4, r0
    522c:	00002515 	andeq	r2, r0, r5, lsl r5
    5230:	00046c00 	andeq	r6, r4, r0, lsl #24
    5234:	046c1600 	strbteq	r1, [ip], #-1536	; 0xfffffa00
    5238:	15160000 	ldrne	r0, [r6, #-0]
    523c:	16000001 	strne	r0, [r0], -r1
    5240:	00000117 	andeq	r0, r0, r7, lsl r1
    5244:	00002516 	andeq	r2, r0, r6, lsl r5
    5248:	04050000 	streq	r0, [r5], #-0
    524c:	00000477 	andeq	r0, r0, r7, ror r4
    5250:	00046c0f 	andeq	r6, r4, pc, lsl #24
    5254:	04161700 	ldreq	r1, [r6], #-1792	; 0xfffff900
    5258:	04280000 	strteq	r0, [r8], #-0
    525c:	08026005 	stmdaeq	r2, {r0, r2, sp, lr}
    5260:	000005c0 	andeq	r0, r0, r0, asr #11
    5264:	00037e18 	andeq	r7, r3, r8, lsl lr
    5268:	02620500 	rsbeq	r0, r2, #0, 10
    526c:	00002507 	andeq	r2, r0, r7, lsl #10
    5270:	2e180000 	cdpcs	0, 1, cr0, cr8, cr0, {0}
    5274:	05000001 	streq	r0, [r0, #-1]
    5278:	9a0b0267 	bls	2c5c1c <__bss_end__+0x2bbab4>
    527c:	04000006 	streq	r0, [r0], #-6
    5280:	0001f818 	andeq	pc, r1, r8, lsl r8	; <UNPREDICTABLE>
    5284:	02670500 	rsbeq	r0, r7, #0, 10
    5288:	00069a14 	andeq	r9, r6, r4, lsl sl
    528c:	a8180800 	ldmdage	r8, {fp}
    5290:	05000001 	streq	r0, [r0, #-1]
    5294:	9a1e0267 	bls	785c38 <__bss_end__+0x77bad0>
    5298:	0c000006 	stceq	0, cr0, [r0], {6}
    529c:	0003e118 	andeq	lr, r3, r8, lsl r1
    52a0:	02690500 	rsbeq	r0, r9, #0, 10
    52a4:	00002508 	andeq	r2, r0, r8, lsl #10
    52a8:	29181000 	ldmdbcs	r8, {ip}
    52ac:	05000000 	streq	r0, [r0, #-0]
    52b0:	9a08026a 	bls	205c60 <__bss_end__+0x1fbaf8>
    52b4:	14000008 	strne	r0, [r0], #-8
    52b8:	0003f518 	andeq	pc, r3, r8, lsl r5	; <UNPREDICTABLE>
    52bc:	026d0500 	rsbeq	r0, sp, #0, 10
    52c0:	00002507 	andeq	r2, r0, r7, lsl #10
    52c4:	36183000 	ldrcc	r3, [r8], -r0
    52c8:	0500000a 	streq	r0, [r0, #-10]
    52cc:	af16026e 	svcge	0x0016026e
    52d0:	34000008 	strcc	r0, [r0], #-8
    52d4:	0002c018 	andeq	ip, r2, r8, lsl r0
    52d8:	02700500 	rsbseq	r0, r0, #0, 10
    52dc:	00002507 	andeq	r2, r0, r7, lsl #10
    52e0:	eb183800 	bl	6132e8 <__bss_end__+0x609180>
    52e4:	05000003 	streq	r0, [r0, #-3]
    52e8:	c00a0272 	andgt	r0, sl, r2, ror r2
    52ec:	3c000008 	stccc	0, cr0, [r0], {8}
    52f0:	00025718 	andeq	r5, r2, r8, lsl r7
    52f4:	02750500 	rsbseq	r0, r5, #0, 10
    52f8:	00018f13 	andeq	r8, r1, r3, lsl pc
    52fc:	c7184000 	ldrgt	r4, [r8, -r0]
    5300:	05000001 	streq	r0, [r0, #-1]
    5304:	25070276 	strcs	r0, [r7, #-630]	; 0xfffffd8a
    5308:	44000000 	strmi	r0, [r0], #-0
    530c:	00052e18 	andeq	r2, r5, r8, lsl lr
    5310:	02770500 	rsbseq	r0, r7, #0, 10
    5314:	00018f13 	andeq	r8, r1, r3, lsl pc
    5318:	d2184800 	andsle	r4, r8, #0, 16
    531c:	05000002 	streq	r0, [r0, #-2]
    5320:	c6140278 			; <UNDEFINED> instruction: 0xc6140278
    5324:	4c000008 	stcmi	0, cr0, [r0], {8}
    5328:	00020018 	andeq	r0, r2, r8, lsl r0
    532c:	027b0500 	rsbseq	r0, fp, #0, 10
    5330:	00002507 	andeq	r2, r0, r7, lsl #10
    5334:	46185000 	ldrmi	r5, [r8], -r0
    5338:	05000001 	streq	r0, [r0, #-1]
    533c:	1709027c 	smlsdxne	r9, ip, r2, r0
    5340:	54000001 	strpl	r0, [r0], #-1
    5344:	0002f818 	andeq	pc, r2, r8, lsl r8	; <UNPREDICTABLE>
    5348:	029f0500 	addseq	r0, pc, #0, 10
    534c:	00087507 	andeq	r7, r8, r7, lsl #10
    5350:	b8195800 	ldmdalt	r9, {fp, ip, lr}
    5354:	05000002 	streq	r0, [r0, #-2]
    5358:	c01302a3 	andsgt	r0, r3, r3, lsr #5
    535c:	48000002 	stmdami	r0, {r1}
    5360:	02351901 	eorseq	r1, r5, #16384	; 0x4000
    5364:	a4050000 	strge	r0, [r5], #-0
    5368:	027d1202 	rsbseq	r1, sp, #536870912	; 0x20000000
    536c:	014c0000 	mrseq	r0, (UNDEF: 76)
    5370:	0004da19 	andeq	sp, r4, r9, lsl sl
    5374:	02a80500 	adceq	r0, r8, #0, 10
    5378:	0008d70c 	andeq	sp, r8, ip, lsl #14
    537c:	1902dc00 	stmdbne	r2, {sl, fp, ip, lr, pc}
    5380:	00000117 	andeq	r0, r0, r7, lsl r1
    5384:	1002ad05 	andne	sl, r2, r5, lsl #26
    5388:	0000065b 	andeq	r0, r0, fp, asr r6
    538c:	fc1902e0 	ldc2	2, cr0, [r9], {224}	; 0xe0
    5390:	05000000 	streq	r0, [r0, #-0]
    5394:	e30a02af 	movw	r0, #41647	; 0xa2af
    5398:	ec000008 	stc	0, cr0, [r0], {8}
    539c:	04050002 	streq	r0, [r5], #-2
    53a0:	0000044e 	andeq	r0, r0, lr, asr #8
    53a4:	00002515 	andeq	r2, r0, r5, lsl r5
    53a8:	0005e400 	andeq	lr, r5, r0, lsl #8
    53ac:	046c1600 	strbteq	r1, [ip], #-1536	; 0xfffffa00
    53b0:	15160000 	ldrne	r0, [r6, #-0]
    53b4:	16000001 	strne	r0, [r0], -r1
    53b8:	000005e4 	andeq	r0, r0, r4, ror #11
    53bc:	00002516 	andeq	r2, r0, r6, lsl r5
    53c0:	04050000 	streq	r0, [r5], #-0
    53c4:	00000124 	andeq	r0, r0, r4, lsr #2
    53c8:	05c60405 	strbeq	r0, [r6, #1029]	; 0x405
    53cc:	8e150000 	cdphi	0, 1, cr0, cr5, cr0, {0}
    53d0:	0e000000 	cdpeq	0, 0, cr0, cr0, cr0, {0}
    53d4:	16000006 	strne	r0, [r0], -r6
    53d8:	0000046c 	andeq	r0, r0, ip, ror #8
    53dc:	00011516 	andeq	r1, r1, r6, lsl r5
    53e0:	008e1600 	addeq	r1, lr, r0, lsl #12
    53e4:	25160000 	ldrcs	r0, [r6, #-0]
    53e8:	00000000 	andeq	r0, r0, r0
    53ec:	05f00405 	ldrbeq	r0, [r0, #1029]!	; 0x405
    53f0:	25150000 	ldrcs	r0, [r5, #-0]
    53f4:	28000000 	stmdacs	r0, {}	; <UNPREDICTABLE>
    53f8:	16000006 	strne	r0, [r0], -r6
    53fc:	0000046c 	andeq	r0, r0, ip, ror #8
    5400:	00011516 	andeq	r1, r1, r6, lsl r5
    5404:	04050000 	streq	r0, [r5], #-0
    5408:	00000614 	andeq	r0, r0, r4, lsl r6
    540c:	00004f0a 	andeq	r4, r0, sl, lsl #30
    5410:	00063e00 	andeq	r3, r6, r0, lsl #28
    5414:	002c0b00 	eoreq	r0, ip, r0, lsl #22
    5418:	00020000 	andeq	r0, r2, r0
    541c:	00004f0a 	andeq	r4, r0, sl, lsl #30
    5420:	00064e00 	andeq	r4, r6, r0, lsl #28
    5424:	002c0b00 	eoreq	r0, ip, r0, lsl #22
    5428:	00000000 	andeq	r0, r0, r0
    542c:	0003a607 	andeq	sl, r3, r7, lsl #12
    5430:	011f0500 	tsteq	pc, r0, lsl #10
    5434:	00030b1a 	andeq	r0, r3, sl, lsl fp
    5438:	04c11a00 	strbeq	r1, [r1], #2560	; 0xa00
    543c:	050c0000 	streq	r0, [ip, #-0]
    5440:	94080123 	strls	r0, [r8], #-291	; 0xfffffedd
    5444:	18000006 	stmdane	r0, {r1, r2}
    5448:	000003ce 	andeq	r0, r0, lr, asr #7
    544c:	11012505 	tstne	r1, r5, lsl #10
    5450:	00000694 	muleq	r0, r4, r6
    5454:	021b1800 	andseq	r1, fp, #0, 16
    5458:	26050000 	strcs	r0, [r5], -r0
    545c:	00250701 	eoreq	r0, r5, r1, lsl #14
    5460:	18040000 	stmdane	r4, {}	; <UNPREDICTABLE>
    5464:	000003a0 	andeq	r0, r0, r0, lsr #7
    5468:	0b012705 	bleq	4f084 <__bss_end__+0x44f1c>
    546c:	0000069a 	muleq	r0, sl, r6
    5470:	04050008 	streq	r0, [r5], #-8
    5474:	0000065b 	andeq	r0, r0, fp, asr r6
    5478:	064e0405 	strbeq	r0, [lr], -r5, lsl #8
    547c:	211a0000 	tstcs	sl, r0
    5480:	0e000000 	cdpeq	0, 0, cr0, cr0, cr0, {0}
    5484:	08013f05 	stmdaeq	r1, {r0, r2, r8, r9, sl, fp, ip, sp}
    5488:	000006d9 	ldrdeq	r0, [r0], -r9
    548c:	00041d18 	andeq	r1, r4, r8, lsl sp
    5490:	01400500 	cmpeq	r0, r0, lsl #10
    5494:	0006d912 	andeq	sp, r6, r2, lsl r9
    5498:	51180000 	tstpl	r8, r0
    549c:	05000004 	streq	r0, [r0, #-4]
    54a0:	d9120141 	ldmdble	r2, {r0, r6, r8}
    54a4:	06000006 	streq	r0, [r0], -r6
    54a8:	00046d18 	andeq	r6, r4, r8, lsl sp
    54ac:	01420500 	cmpeq	r2, r0, lsl #10
    54b0:	00005612 	andeq	r5, r0, r2, lsl r6
    54b4:	0a000c00 	beq	84bc <check_mem+0xa4>
    54b8:	00000056 	andeq	r0, r0, r6, asr r0
    54bc:	000006e9 	andeq	r0, r0, r9, ror #13
    54c0:	00002c0b 	andeq	r2, r0, fp, lsl #24
    54c4:	1b000200 	blne	5ccc <_start-0x2334>
    54c8:	028005d0 	addeq	r0, r0, #208, 10	; 0x34000000
    54cc:	0007fe07 	andeq	pc, r7, r7, lsl #28
    54d0:	04a51800 	strteq	r1, [r5], #2048	; 0x800
    54d4:	82050000 	andhi	r0, r5, #0
    54d8:	002c1802 	eoreq	r1, ip, r2, lsl #16
    54dc:	18000000 	stmdane	r0, {}	; <UNPREDICTABLE>
    54e0:	00000457 	andeq	r0, r0, r7, asr r4
    54e4:	12028305 	andne	r8, r2, #335544320	; 0x14000000
    54e8:	00000117 	andeq	r0, r0, r7, lsl r1
    54ec:	024a1804 	subeq	r1, sl, #4, 16	; 0x40000
    54f0:	84050000 	strhi	r0, [r5], #-0
    54f4:	07fe1002 	ldrbeq	r1, [lr, r2]!
    54f8:	18080000 	stmdane	r8, {}	; <UNPREDICTABLE>
    54fc:	00000505 	andeq	r0, r0, r5, lsl #10
    5500:	17028505 	strne	r8, [r2, -r5, lsl #10]
    5504:	000001a5 	andeq	r0, r0, r5, lsr #3
    5508:	01b81824 			; <UNDEFINED> instruction: 0x01b81824
    550c:	86050000 	strhi	r0, [r5], -r0
    5510:	00250f02 	eoreq	r0, r5, r2, lsl #30
    5514:	18480000 	stmdane	r8, {}^	; <UNPREDICTABLE>
    5518:	000003c9 	andeq	r0, r0, r9, asr #7
    551c:	2c028705 	stccs	7, cr8, [r2], {5}
    5520:	00000064 	andeq	r0, r0, r4, rrx
    5524:	051b1850 	ldreq	r1, [fp, #-2128]	; 0xfffff7b0
    5528:	88050000 	stmdahi	r5, {}	; <UNPREDICTABLE>
    552c:	06a01a02 	strteq	r1, [r0], r2, lsl #20
    5530:	18580000 	ldmdane	r8, {}^	; <UNPREDICTABLE>
    5534:	000003d4 	ldrdeq	r0, [r0], -r4
    5538:	16028905 	strne	r8, [r2], -r5, lsl #18
    553c:	000000fd 	strdeq	r0, [r0], -sp
    5540:	05201868 	streq	r1, [r0, #-2152]!	; 0xfffff798
    5544:	8a050000 	bhi	14554c <__bss_end__+0x13b3e4>
    5548:	00fd1602 	rscseq	r1, sp, r2, lsl #12
    554c:	18700000 	ldmdane	r0!, {}^	; <UNPREDICTABLE>
    5550:	000002dc 	ldrdeq	r0, [r0], -ip
    5554:	16028b05 	strne	r8, [r2], -r5, lsl #22
    5558:	000000fd 	strdeq	r0, [r0], -sp
    555c:	04d01878 	ldrbeq	r1, [r0], #2168	; 0x878
    5560:	8c050000 	stchi	0, cr0, [r5], {-0}
    5564:	080e1002 	stmdaeq	lr, {r1, ip}
    5568:	18800000 	stmne	r0, {}	; <UNPREDICTABLE>
    556c:	0000023e 	andeq	r0, r0, lr, lsr r2
    5570:	10028d05 	andne	r8, r2, r5, lsl #26
    5574:	0000081e 	andeq	r0, r0, lr, lsl r8
    5578:	047a1888 	ldrbteq	r1, [sl], #-2184	; 0xfffff778
    557c:	8e050000 	cdphi	0, 0, cr0, cr5, cr0, {0}
    5580:	00250f02 	eoreq	r0, r5, r2, lsl #30
    5584:	18a00000 	stmiane	r0!, {}	; <UNPREDICTABLE>
    5588:	0000017e 	andeq	r0, r0, lr, ror r1
    558c:	16028f05 	strne	r8, [r2], -r5, lsl #30
    5590:	000000fd 	strdeq	r0, [r0], -sp
    5594:	008f18a4 	addeq	r1, pc, r4, lsr #17
    5598:	90050000 	andls	r0, r5, r0
    559c:	00fd1602 	rscseq	r1, sp, r2, lsl #12
    55a0:	18ac0000 	stmiane	ip!, {}	; <UNPREDICTABLE>
    55a4:	0000016d 	andeq	r0, r0, sp, ror #2
    55a8:	16029105 	strne	r9, [r2], -r5, lsl #2
    55ac:	000000fd 	strdeq	r0, [r0], -sp
    55b0:	003c18b4 	ldrhteq	r1, [ip], -r4
    55b4:	92050000 	andls	r0, r5, #0
    55b8:	00fd1602 	rscseq	r1, sp, r2, lsl #12
    55bc:	18bc0000 	ldmne	ip!, {}	; <UNPREDICTABLE>
    55c0:	0000004b 	andeq	r0, r0, fp, asr #32
    55c4:	16029305 	strne	r9, [r2], -r5, lsl #6
    55c8:	000000fd 	strdeq	r0, [r0], -sp
    55cc:	037c18c4 	cmneq	ip, #196, 16	; 0xc40000
    55d0:	94050000 	strls	r0, [r5], #-0
    55d4:	00250802 	eoreq	r0, r5, r2, lsl #16
    55d8:	00cc0000 	sbceq	r0, ip, r0
    55dc:	00011d0a 	andeq	r1, r1, sl, lsl #26
    55e0:	00080e00 	andeq	r0, r8, r0, lsl #28
    55e4:	002c0b00 	eoreq	r0, ip, r0, lsl #22
    55e8:	00190000 	andseq	r0, r9, r0
    55ec:	00011d0a 	andeq	r1, r1, sl, lsl #26
    55f0:	00081e00 	andeq	r1, r8, r0, lsl #28
    55f4:	002c0b00 	eoreq	r0, ip, r0, lsl #22
    55f8:	00070000 	andeq	r0, r7, r0
    55fc:	00011d0a 	andeq	r1, r1, sl, lsl #26
    5600:	00082e00 	andeq	r2, r8, r0, lsl #28
    5604:	002c0b00 	eoreq	r0, ip, r0, lsl #22
    5608:	00170000 	andseq	r0, r7, r0
    560c:	9905f01b 	stmdbls	r5, {r0, r1, r3, r4, ip, sp, lr, pc}
    5610:	08550702 	ldmdaeq	r5, {r1, r8, r9, sl}^
    5614:	a8180000 	ldmdage	r8, {}	; <UNPREDICTABLE>
    5618:	05000002 	streq	r0, [r0, #-2]
    561c:	551b029c 	ldrpl	r0, [fp, #-668]	; 0xfffffd64
    5620:	00000008 	andeq	r0, r0, r8
    5624:	0004c718 	andeq	ip, r4, r8, lsl r7
    5628:	029d0500 	addseq	r0, sp, #0, 10
    562c:	00086518 	andeq	r6, r8, r8, lsl r5
    5630:	0a007800 	beq	23638 <__bss_end__+0x194d0>
    5634:	00000305 	andeq	r0, r0, r5, lsl #6
    5638:	00000865 	andeq	r0, r0, r5, ror #16
    563c:	00002c0b 	andeq	r2, r0, fp, lsl #24
    5640:	0a001d00 	beq	ca48 <__bss_end__+0x28e0>
    5644:	0000002c 	andeq	r0, r0, ip, lsr #32
    5648:	00000875 	andeq	r0, r0, r5, ror r8
    564c:	00002c0b 	andeq	r2, r0, fp, lsl #24
    5650:	1c001d00 	stcne	13, cr1, [r0], {-0}
    5654:	027e05f0 	rsbseq	r0, lr, #240, 10	; 0x3c000000
    5658:	00089a03 	andeq	r9, r8, r3, lsl #20
    565c:	04161d00 	ldreq	r1, [r6], #-3328	; 0xfffff300
    5660:	95050000 	strls	r0, [r5, #-0]
    5664:	06e90b02 	strbteq	r0, [r9], r2, lsl #22
    5668:	f21d0000 	vhadd.s16	d0, d13, d0
    566c:	05000004 	streq	r0, [r0, #-4]
    5670:	2e0b029e 	mcrcs	2, 0, r0, cr11, cr14, {4}
    5674:	00000008 	andeq	r0, r0, r8
    5678:	00011d0a 	andeq	r1, r1, sl, lsl #26
    567c:	0008aa00 	andeq	sl, r8, r0, lsl #20
    5680:	002c0b00 	eoreq	r0, ip, r0, lsl #22
    5684:	00180000 	andseq	r0, r8, r0
    5688:	00008406 	andeq	r8, r0, r6, lsl #8
    568c:	aa040500 	bge	106a94 <__bss_end__+0xfc92c>
    5690:	1e000008 	cdpne	0, 0, cr0, cr0, cr8, {0}
    5694:	000008c0 	andeq	r0, r0, r0, asr #17
    5698:	00046c16 	andeq	r6, r4, r6, lsl ip
    569c:	04050000 	streq	r0, [r5], #-0
    56a0:	000008b5 			; <UNDEFINED> instruction: 0x000008b5
    56a4:	018f0405 	orreq	r0, pc, r5, lsl #8
    56a8:	d71e0000 	ldrle	r0, [lr, -r0]
    56ac:	16000008 	strne	r0, [r0], -r8
    56b0:	00000025 	andeq	r0, r0, r5, lsr #32
    56b4:	dd040500 	cfstr32le	mvfx0, [r4, #-0]
    56b8:	05000008 	streq	r0, [r0, #-8]
    56bc:	0008cc04 	andeq	ip, r8, r4, lsl #24
    56c0:	064e0a00 	strbeq	r0, [lr], -r0, lsl #20
    56c4:	08f30000 	ldmeq	r3!, {}^	; <UNPREDICTABLE>
    56c8:	2c0b0000 	stccs	0, cr0, [fp], {-0}
    56cc:	02000000 	andeq	r0, r0, #0
    56d0:	048e1f00 	streq	r1, [lr], #3840	; 0xf00
    56d4:	2e050000 	cdpcs	0, 0, cr0, cr5, cr0, {0}
    56d8:	046c1703 	strbteq	r1, [ip], #-1795	; 0xfffff8fd
    56dc:	871f0000 	ldrhi	r0, [pc, -r0]
    56e0:	05000004 	streq	r0, [r0, #-4]
    56e4:	721d032f 	andsvc	r0, sp, #-1140850688	; 0xbc000000
    56e8:	15000004 	strne	r0, [r0, #-4]
    56ec:	00000025 	andeq	r0, r0, r5, lsr #32
    56f0:	0000091c 	andeq	r0, r0, ip, lsl r9
    56f4:	00002516 	andeq	r2, r0, r6, lsl r5
    56f8:	d1200000 			; <UNDEFINED> instruction: 0xd1200000
    56fc:	06000001 	streq	r0, [r0], -r1
    5700:	09280e1d 	stmdbeq	r8!, {r0, r2, r3, r4, r9, sl, fp}
    5704:	04050000 	streq	r0, [r5], #-0
    5708:	0000090d 	andeq	r0, r0, sp, lsl #18
    570c:	00002515 	andeq	r2, r0, r5, lsl r5
    5710:	00093d00 	andeq	r3, r9, r0, lsl #26
    5714:	05e41600 	strbeq	r1, [r4, #1536]!	; 0x600
    5718:	20000000 	andcs	r0, r0, r0
    571c:	00000773 	andeq	r0, r0, r3, ror r7
    5720:	490e2206 	stmdbmi	lr, {r1, r2, r9, sp}
    5724:	05000009 	streq	r0, [r0, #-9]
    5728:	00092e04 	andeq	r2, r9, r4, lsl #28
    572c:	093d2100 	ldmdbeq	sp!, {r8, sp}
    5730:	0c010000 	stceq	0, cr0, [r1], {-0}
    5734:	44030507 	strmi	r0, [r3], #-1287	; 0xfffffaf9
    5738:	22000097 	andcs	r0, r0, #151	; 0x97
    573c:	0000076a 	andeq	r0, r0, sl, ror #14
    5740:	25050401 	strcs	r0, [r5, #-1025]	; 0xfffffbff
    5744:	a8000000 	stmdage	r0, {}	; <UNPREDICTABLE>
    5748:	3400008b 	strcc	r0, [r0], #-139	; 0xffffff75
    574c:	01000000 	mrseq	r0, (UNDEF: 0)
    5750:	0070239c 			; <UNDEFINED> instruction: 0x0070239c
    5754:	e41f0401 	ldr	r0, [pc], #-1025	; 575c <_start-0x28a4>
    5758:	48000005 	stmdami	r0, {r0, r2}
    575c:	4400000b 	strmi	r0, [r0], #-11
    5760:	0000000b 	andeq	r0, r0, fp
    5764:	0009d200 	andeq	sp, r9, r0, lsl #4
    5768:	e0000400 	and	r0, r0, r0, lsl #8
    576c:	04000010 	streq	r0, [r0], #-16
    5770:	0002fd01 	andeq	pc, r2, r1, lsl #26
    5774:	079e0c00 	ldreq	r0, [lr, r0, lsl #24]
    5778:	06cc0000 	strbeq	r0, [ip], r0
    577c:	8bdc0000 	blhi	ff705784 <__bss_end__+0xff6fb61c>
    5780:	005c0000 	subseq	r0, ip, r0
    5784:	0fa70000 	svceq	0x00a70000
    5788:	04020000 	streq	r0, [r2], #-0
    578c:	746e6905 	strbtvc	r6, [lr], #-2309	; 0xfffff6fb
    5790:	07040300 	streq	r0, [r4, -r0, lsl #6]
    5794:	00000066 	andeq	r0, r0, r6, rrx
    5798:	ec060103 	stfs	f0, [r6], {3}
    579c:	03000002 	movweq	r0, #2
    57a0:	03850502 	orreq	r0, r5, #8388608	; 0x800000
    57a4:	04030000 	streq	r0, [r3], #-0
    57a8:	0000ac05 	andeq	sl, r0, r5, lsl #24
    57ac:	05080300 	streq	r0, [r8, #-768]	; 0xfffffd00
    57b0:	000000a7 	andeq	r0, r0, r7, lsr #1
    57b4:	ea080103 	b	205bc8 <__bss_end__+0x1fba60>
    57b8:	03000002 	movweq	r0, #2
    57bc:	02220702 	eoreq	r0, r2, #524288	; 0x80000
    57c0:	04030000 	streq	r0, [r3], #-0
    57c4:	00006107 	andeq	r6, r0, r7, lsl #2
    57c8:	07080300 	streq	r0, [r8, -r0, lsl #6]
    57cc:	0000005c 	andeq	r0, r0, ip, asr r0
    57d0:	00026504 	andeq	r6, r2, r4, lsl #10
    57d4:	19220200 	stmdbne	r2!, {r9}
    57d8:	00000077 	andeq	r0, r0, r7, ror r0
    57dc:	007d0405 	rsbseq	r0, sp, r5, lsl #8
    57e0:	2b060000 	blcs	1857e8 <__bss_end__+0x17b680>
    57e4:	04000004 	streq	r0, [r0], #-4
    57e8:	000002cb 	andeq	r0, r0, fp, asr #5
    57ec:	410e2c03 	tstmi	lr, r3, lsl #24
    57f0:	04000000 	streq	r0, [r0], #-0
    57f4:	00000440 	andeq	r0, r0, r0, asr #8
    57f8:	410e7203 	tstmi	lr, r3, lsl #4
    57fc:	07000000 	streq	r0, [r0, -r0]
    5800:	0000026d 	andeq	r0, r0, sp, ror #4
    5804:	17015e04 	strne	r5, [r1, -r4, lsl #28]
    5808:	0000002c 	andeq	r0, r0, ip, lsr #32
    580c:	a6030408 	strge	r0, [r3], -r8, lsl #8
    5810:	0000c903 	andeq	ip, r0, r3, lsl #18
    5814:	025f0900 	subseq	r0, pc, #0, 18
    5818:	a8030000 	stmdage	r3, {}	; <UNPREDICTABLE>
    581c:	00009a0c 	andeq	r9, r0, ip, lsl #20
    5820:	01e20900 	mvneq	r0, r0, lsl #18
    5824:	a9030000 	stmdbge	r3, {}	; <UNPREDICTABLE>
    5828:	0000c913 	andeq	ip, r0, r3, lsl r9
    582c:	4f0a0000 	svcmi	0x000a0000
    5830:	d9000000 	stmdble	r0, {}	; <UNPREDICTABLE>
    5834:	0b000000 	bleq	583c <_start-0x27c4>
    5838:	0000002c 	andeq	r0, r0, ip, lsr #32
    583c:	080c0003 	stmdaeq	ip, {r0, r1}
    5840:	fd09a303 	stc2	3, cr10, [r9, #-12]
    5844:	0d000000 	stceq	0, cr0, [r0, #-0]
    5848:	00000423 	andeq	r0, r0, r3, lsr #8
    584c:	2507a503 	strcs	sl, [r7, #-1283]	; 0xfffffafd
    5850:	00000000 	andeq	r0, r0, r0
    5854:	0004320d 	andeq	r3, r4, sp, lsl #4
    5858:	05aa0300 	streq	r0, [sl, #768]!	; 0x300
    585c:	000000a7 	andeq	r0, r0, r7, lsr #1
    5860:	ad040004 	stcge	0, cr0, [r4, #-16]
    5864:	03000003 	movweq	r0, #3
    5868:	00d903ab 	sbcseq	r0, r9, fp, lsr #7
    586c:	9f040000 	svcls	0x00040000
    5870:	03000001 	movweq	r0, #1
    5874:	006b1baf 	rsbeq	r1, fp, pc, lsr #23
    5878:	040e0000 	streq	r0, [lr], #-0
    587c:	011d0405 	tsteq	sp, r5, lsl #8
    5880:	01030000 	mrseq	r0, (UNDEF: 3)
    5884:	0002f308 	andeq	pc, r2, r8, lsl #6
    5888:	011d0f00 	tsteq	sp, r0, lsl #30
    588c:	72040000 	andvc	r0, r4, #0
    5890:	05000004 	streq	r0, [r0, #-4]
    5894:	005d1916 	subseq	r1, sp, r6, lsl r9
    5898:	b0100000 	andslt	r0, r0, r0
    589c:	18000001 	stmdane	r0, {r0}
    58a0:	8f082f05 	svchi	0x00082f05
    58a4:	0d000001 	stceq	0, cr0, [r0, #-4]
    58a8:	000003ce 	andeq	r0, r0, lr, asr #7
    58ac:	8f133105 	svchi	0x00133105
    58b0:	00000001 	andeq	r0, r0, r1
    58b4:	006b5f11 	rsbeq	r5, fp, r1, lsl pc
    58b8:	25073205 	strcs	r3, [r7, #-517]	; 0xfffffdfb
    58bc:	04000000 	streq	r0, [r0], #-0
    58c0:	00040e0d 	andeq	r0, r4, sp, lsl #28
    58c4:	0b320500 	bleq	c86ccc <__bss_end__+0xc7cb64>
    58c8:	00000025 	andeq	r0, r0, r5, lsr #32
    58cc:	01990d08 	orrseq	r0, r9, r8, lsl #26
    58d0:	32050000 	andcc	r0, r5, #0
    58d4:	00002514 	andeq	r2, r0, r4, lsl r5
    58d8:	b20d0c00 	andlt	r0, sp, #0, 24
    58dc:	05000004 	streq	r0, [r0, #-4]
    58e0:	00251b32 	eoreq	r1, r5, r2, lsr fp
    58e4:	11100000 	tstne	r0, r0
    58e8:	0500785f 	streq	r7, [r0, #-2143]	; 0xfffff7a1
    58ec:	01950b33 	orrseq	r0, r5, r3, lsr fp
    58f0:	00140000 	andseq	r0, r4, r0
    58f4:	01350405 	teqeq	r5, r5, lsl #8
    58f8:	290a0000 	stmdbcs	sl, {}	; <UNPREDICTABLE>
    58fc:	a5000001 	strge	r0, [r0, #-1]
    5900:	0b000001 	bleq	590c <_start-0x26f4>
    5904:	0000002c 	andeq	r0, r0, ip, lsr #32
    5908:	dd100000 	ldcle	0, cr0, [r0, #-0]
    590c:	24000001 	strcs	r0, [r0], #-1
    5910:	28083705 	stmdacs	r8, {r0, r2, r8, r9, sl, ip, sp}
    5914:	0d000002 	stceq	0, cr0, [r0, #-8]
    5918:	0000009e 	muleq	r0, lr, r0
    591c:	25093905 	strcs	r3, [r9, #-2309]	; 0xfffff6fb
    5920:	00000000 	andeq	r0, r0, r0
    5924:	0004480d 	andeq	r4, r4, sp, lsl #16
    5928:	093a0500 	ldmdbeq	sl!, {r8, sl}
    592c:	00000025 	andeq	r0, r0, r5, lsr #32
    5930:	00c10d04 	sbceq	r0, r1, r4, lsl #26
    5934:	3b050000 	blcc	14593c <__bss_end__+0x13b7d4>
    5938:	00002509 	andeq	r2, r0, r9, lsl #10
    593c:	330d0800 	movwcc	r0, #55296	; 0xd800
    5940:	05000005 	streq	r0, [r0, #-5]
    5944:	0025093c 	eoreq	r0, r5, ip, lsr r9
    5948:	0d0c0000 	stceq	0, cr0, [ip, #-0]
    594c:	000002af 	andeq	r0, r0, pc, lsr #5
    5950:	25093d05 	strcs	r3, [r9, #-3333]	; 0xfffff2fb
    5954:	10000000 	andne	r0, r0, r0
    5958:	0002830d 	andeq	r8, r2, sp, lsl #6
    595c:	093e0500 	ldmdbeq	lr!, {r8, sl}
    5960:	00000025 	andeq	r0, r0, r5, lsr #32
    5964:	04b70d14 	ldrteq	r0, [r7], #3348	; 0xd14
    5968:	3f050000 	svccc	0x00050000
    596c:	00002509 	andeq	r2, r0, r9, lsl #10
    5970:	8f0d1800 	svchi	0x000d1800
    5974:	05000003 	streq	r0, [r0, #-3]
    5978:	00250940 	eoreq	r0, r5, r0, asr #18
    597c:	0d1c0000 	ldceq	0, cr0, [ip, #-0]
    5980:	000004fa 	strdeq	r0, [r0], -sl
    5984:	25094105 	strcs	r4, [r9, #-261]	; 0xfffffefb
    5988:	20000000 	andcs	r0, r0, r0
    598c:	01011200 	mrseq	r1, R9_usr
    5990:	01080000 	mrseq	r0, (UNDEF: 8)
    5994:	6d084a05 	vstrvs	s8, [r8, #-20]	; 0xffffffec
    5998:	0d000002 	stceq	0, cr0, [r0, #-8]
    599c:	0000018c 	andeq	r0, r0, ip, lsl #3
    59a0:	6d0a4b05 	vstrvs	d4, [sl, #-20]	; 0xffffffec
    59a4:	00000002 	andeq	r0, r0, r2
    59a8:	0000000d 	andeq	r0, r0, sp
    59ac:	094c0500 	stmdbeq	ip, {r8, sl}^
    59b0:	0000026d 	andeq	r0, r0, sp, ror #4
    59b4:	04641380 	strbteq	r1, [r4], #-896	; 0xfffffc80
    59b8:	4e050000 	cdpmi	0, 0, cr0, cr5, cr0, {0}
    59bc:	0001290a 	andeq	r2, r1, sl, lsl #18
    59c0:	13010000 	movwne	r0, #4096	; 0x1000
    59c4:	00000126 	andeq	r0, r0, r6, lsr #2
    59c8:	290a5105 	stmdbcs	sl, {r0, r2, r8, ip, lr}
    59cc:	04000001 	streq	r0, [r0], #-1
    59d0:	150a0001 	strne	r0, [sl, #-1]
    59d4:	7d000001 	stcvc	0, cr0, [r0, #-4]
    59d8:	0b000002 	bleq	59e8 <_start-0x2618>
    59dc:	0000002c 	andeq	r0, r0, ip, lsr #32
    59e0:	b812001f 	ldmdalt	r2, {r0, r1, r2, r3, r4}
    59e4:	90000002 	andls	r0, r0, r2
    59e8:	085d0501 	ldmdaeq	sp, {r0, r8, sl}^
    59ec:	000002c0 	andeq	r0, r0, r0, asr #5
    59f0:	0003ce0d 	andeq	ip, r3, sp, lsl #28
    59f4:	125e0500 	subsne	r0, lr, #0, 10
    59f8:	000002c0 	andeq	r0, r0, r0, asr #5
    59fc:	03e60d00 	mvneq	r0, #0, 26
    5a00:	5f050000 	svcpl	0x00050000
    5a04:	00002506 	andeq	r2, r0, r6, lsl #10
    5a08:	940d0400 	strls	r0, [sp], #-1024	; 0xfffffc00
    5a0c:	05000001 	streq	r0, [r0, #-1]
    5a10:	02c60961 	sbceq	r0, r6, #1589248	; 0x184000
    5a14:	0d080000 	stceq	0, cr0, [r8, #-0]
    5a18:	00000101 	andeq	r0, r0, r1, lsl #2
    5a1c:	281e6205 	ldmdacs	lr, {r0, r2, r9, sp, lr}
    5a20:	88000002 	stmdahi	r0, {r1}
    5a24:	7d040500 	cfstr32vc	mvfx0, [r4, #-0]
    5a28:	0a000002 	beq	5a38 <_start-0x25c8>
    5a2c:	000002d6 	ldrdeq	r0, [r0], -r6
    5a30:	000002d6 	ldrdeq	r0, [r0], -r6
    5a34:	00002c0b 	andeq	r2, r0, fp, lsl #24
    5a38:	05001f00 	streq	r1, [r0, #-3840]	; 0xfffff100
    5a3c:	0002dc04 	andeq	sp, r2, r4, lsl #24
    5a40:	99101400 	ldmdbls	r0, {sl, ip}
    5a44:	08000003 	stmdaeq	r0, {r0, r1}
    5a48:	05087505 	streq	r7, [r8, #-1285]	; 0xfffffafb
    5a4c:	0d000003 	stceq	0, cr0, [r0, #-12]
    5a50:	000000bb 	strheq	r0, [r0], -fp
    5a54:	05117605 	ldreq	r7, [r1, #-1541]	; 0xfffff9fb
    5a58:	00000003 	andeq	r0, r0, r3
    5a5c:	00001b0d 	andeq	r1, r0, sp, lsl #22
    5a60:	06770500 	ldrbteq	r0, [r7], -r0, lsl #10
    5a64:	00000025 	andeq	r0, r0, r5, lsr #32
    5a68:	04050004 	streq	r0, [r5], #-4
    5a6c:	0000004f 	andeq	r0, r0, pc, asr #32
    5a70:	0003b810 	andeq	fp, r3, r0, lsl r8
    5a74:	b5056800 	strlt	r6, [r5, #-2048]	; 0xfffff800
    5a78:	00044e08 	andeq	r4, r4, r8, lsl #28
    5a7c:	705f1100 	subsvc	r1, pc, r0, lsl #2
    5a80:	12b60500 	adcsne	r0, r6, #0, 10
    5a84:	00000305 	andeq	r0, r0, r5, lsl #6
    5a88:	725f1100 	subsvc	r1, pc, #0, 2
    5a8c:	07b70500 	ldreq	r0, [r7, r0, lsl #10]!
    5a90:	00000025 	andeq	r0, r0, r5, lsr #32
    5a94:	775f1104 	ldrbvc	r1, [pc, -r4, lsl #2]
    5a98:	07b80500 	ldreq	r0, [r8, r0, lsl #10]!
    5a9c:	00000025 	andeq	r0, r0, r5, lsr #32
    5aa0:	011f0d08 	tsteq	pc, r8, lsl #26
    5aa4:	b9050000 	stmdblt	r5, {}	; <UNPREDICTABLE>
    5aa8:	00003a09 	andeq	r3, r0, r9, lsl #20
    5aac:	080d0c00 	stmdaeq	sp, {sl, fp}
    5ab0:	05000002 	streq	r0, [r0, #-2]
    5ab4:	003a09ba 	ldrhteq	r0, [sl], -sl
    5ab8:	110e0000 	mrsne	r0, (UNDEF: 14)
    5abc:	0066625f 	rsbeq	r6, r6, pc, asr r2
    5ac0:	dd11bb05 	vldrle	d11, [r1, #-20]	; 0xffffffec
    5ac4:	10000002 	andne	r0, r0, r2
    5ac8:	00007b0d 	andeq	r7, r0, sp, lsl #22
    5acc:	07bc0500 	ldreq	r0, [ip, r0, lsl #10]!
    5ad0:	00000025 	andeq	r0, r0, r5, lsr #32
    5ad4:	010f0d18 	tsteq	pc, r8, lsl sp	; <UNPREDICTABLE>
    5ad8:	c3050000 	movwgt	r0, #20480	; 0x5000
    5adc:	0001150a 	andeq	r1, r1, sl, lsl #10
    5ae0:	590d1c00 	stmdbpl	sp, {sl, fp, ip}
    5ae4:	0500000b 	streq	r0, [r0, #-11]
    5ae8:	05c01dc5 	strbeq	r1, [r0, #3525]	; 0xdc5
    5aec:	0d200000 	stceq	0, cr0, [r0, #-0]
    5af0:	0000061d 	andeq	r0, r0, sp, lsl r6
    5af4:	ea1dc705 	b	777710 <__bss_end__+0x76d5a8>
    5af8:	24000005 	strcs	r0, [r0], #-5
    5afc:	00043a0d 	andeq	r3, r4, sp, lsl #20
    5b00:	0dca0500 	cfstr64eq	mvdx0, [sl]
    5b04:	0000060e 	andeq	r0, r0, lr, lsl #12
    5b08:	05140d28 	ldreq	r0, [r4, #-3368]	; 0xfffff2d8
    5b0c:	cb050000 	blgt	145b14 <__bss_end__+0x13b9ac>
    5b10:	00062809 	andeq	r2, r6, r9, lsl #16
    5b14:	5f112c00 	svcpl	0x00112c00
    5b18:	05006275 	streq	r6, [r0, #-629]	; 0xfffffd8b
    5b1c:	02dd11ce 	sbcseq	r1, sp, #-2147483597	; 0x80000033
    5b20:	11300000 	teqne	r0, r0
    5b24:	0070755f 	rsbseq	r7, r0, pc, asr r5
    5b28:	0512cf05 	ldreq	ip, [r2, #-3845]	; 0xfffff0fb
    5b2c:	38000003 	stmdacc	r0, {r0, r1}
    5b30:	72755f11 	rsbsvc	r5, r5, #17, 30	; 0x44
    5b34:	07d00500 	ldrbeq	r0, [r0, r0, lsl #10]
    5b38:	00000025 	andeq	r0, r0, r5, lsr #32
    5b3c:	00b50d3c 	adcseq	r0, r5, ip, lsr sp
    5b40:	d3050000 	movwle	r0, #20480	; 0x5000
    5b44:	00062e11 	andeq	r2, r6, r1, lsl lr
    5b48:	ec0d4000 	stc	0, cr4, [sp], {-0}
    5b4c:	05000004 	streq	r0, [r0, #-4]
    5b50:	063e11d4 			; <UNDEFINED> instruction: 0x063e11d4
    5b54:	11430000 	mrsne	r0, (UNDEF: 67)
    5b58:	00626c5f 	rsbeq	r6, r2, pc, asr ip
    5b5c:	dd11d705 	ldcle	7, cr13, [r1, #-20]	; 0xffffffec
    5b60:	44000002 	strmi	r0, [r0], #-2
    5b64:	00013d0d 	andeq	r3, r1, sp, lsl #26
    5b68:	07da0500 	ldrbeq	r0, [sl, r0, lsl #10]
    5b6c:	00000025 	andeq	r0, r0, r5, lsr #32
    5b70:	014e0d4c 	cmpeq	lr, ip, asr #26
    5b74:	db050000 	blle	145b7c <__bss_end__+0x13ba14>
    5b78:	0000820a 	andeq	r8, r0, sl, lsl #4
    5b7c:	fa0d5000 	blx	359b84 <__bss_end__+0x34fa1c>
    5b80:	0500000a 	streq	r0, [r0, #-10]
    5b84:	046c12de 	strbteq	r1, [ip], #-734	; 0xfffffd22
    5b88:	0d540000 	ldcleq	0, cr0, [r4, #-0]
    5b8c:	0000042c 	andeq	r0, r0, ip, lsr #8
    5b90:	090ce205 	stmdbeq	ip, {r0, r2, r9, sp, lr, pc}
    5b94:	58000001 	stmdapl	r0, {r0}
    5b98:	0003c00d 	andeq	ip, r3, sp
    5b9c:	0ee40500 	cdpeq	5, 14, cr0, cr4, cr0, {0}
    5ba0:	000000fd 	strdeq	r0, [r0], -sp
    5ba4:	027b0d5c 	rsbseq	r0, fp, #92, 26	; 0x1700
    5ba8:	e5050000 	str	r0, [r5, #-0]
    5bac:	00002509 	andeq	r2, r0, r9, lsl #10
    5bb0:	15006400 	strne	r6, [r0, #-1024]	; 0xfffffc00
    5bb4:	00000025 	andeq	r0, r0, r5, lsr #32
    5bb8:	0000046c 	andeq	r0, r0, ip, ror #8
    5bbc:	00046c16 	andeq	r6, r4, r6, lsl ip
    5bc0:	01151600 	tsteq	r5, r0, lsl #12
    5bc4:	17160000 	ldrne	r0, [r6, -r0]
    5bc8:	16000001 	strne	r0, [r0], -r1
    5bcc:	00000025 	andeq	r0, r0, r5, lsr #32
    5bd0:	77040500 	strvc	r0, [r4, -r0, lsl #10]
    5bd4:	0f000004 	svceq	0x00000004
    5bd8:	0000046c 	andeq	r0, r0, ip, ror #8
    5bdc:	00041617 	andeq	r1, r4, r7, lsl r6
    5be0:	05042800 	streq	r2, [r4, #-2048]	; 0xfffff800
    5be4:	c0080260 	andgt	r0, r8, r0, ror #4
    5be8:	18000005 	stmdane	r0, {r0, r2}
    5bec:	0000037e 	andeq	r0, r0, lr, ror r3
    5bf0:	07026205 	streq	r6, [r2, -r5, lsl #4]
    5bf4:	00000025 	andeq	r0, r0, r5, lsr #32
    5bf8:	012e1800 			; <UNDEFINED> instruction: 0x012e1800
    5bfc:	67050000 	strvs	r0, [r5, -r0]
    5c00:	069a0b02 	ldreq	r0, [sl], r2, lsl #22
    5c04:	18040000 	stmdane	r4, {}	; <UNPREDICTABLE>
    5c08:	000001f8 	strdeq	r0, [r0], -r8
    5c0c:	14026705 	strne	r6, [r2], #-1797	; 0xfffff8fb
    5c10:	0000069a 	muleq	r0, sl, r6
    5c14:	01a81808 			; <UNDEFINED> instruction: 0x01a81808
    5c18:	67050000 	strvs	r0, [r5, -r0]
    5c1c:	069a1e02 	ldreq	r1, [sl], r2, lsl #28
    5c20:	180c0000 	stmdane	ip, {}	; <UNPREDICTABLE>
    5c24:	000003e1 	andeq	r0, r0, r1, ror #7
    5c28:	08026905 	stmdaeq	r2, {r0, r2, r8, fp, sp, lr}
    5c2c:	00000025 	andeq	r0, r0, r5, lsr #32
    5c30:	00291810 	eoreq	r1, r9, r0, lsl r8
    5c34:	6a050000 	bvs	145c3c <__bss_end__+0x13bad4>
    5c38:	089a0802 	ldmeq	sl, {r1, fp}
    5c3c:	18140000 	ldmdane	r4, {}	; <UNPREDICTABLE>
    5c40:	000003f5 	strdeq	r0, [r0], -r5
    5c44:	07026d05 	streq	r6, [r2, -r5, lsl #26]
    5c48:	00000025 	andeq	r0, r0, r5, lsr #32
    5c4c:	0a361830 	beq	d8bd14 <__bss_end__+0xd81bac>
    5c50:	6e050000 	cdpvs	0, 0, cr0, cr5, cr0, {0}
    5c54:	08af1602 	stmiaeq	pc!, {r1, r9, sl, ip}	; <UNPREDICTABLE>
    5c58:	18340000 	ldmdane	r4!, {}	; <UNPREDICTABLE>
    5c5c:	000002c0 	andeq	r0, r0, r0, asr #5
    5c60:	07027005 	streq	r7, [r2, -r5]
    5c64:	00000025 	andeq	r0, r0, r5, lsr #32
    5c68:	03eb1838 	mvneq	r1, #56, 16	; 0x380000
    5c6c:	72050000 	andvc	r0, r5, #0
    5c70:	08c00a02 	stmiaeq	r0, {r1, r9, fp}^
    5c74:	183c0000 	ldmdane	ip!, {}	; <UNPREDICTABLE>
    5c78:	00000257 	andeq	r0, r0, r7, asr r2
    5c7c:	13027505 	movwne	r7, #9477	; 0x2505
    5c80:	0000018f 	andeq	r0, r0, pc, lsl #3
    5c84:	01c71840 	biceq	r1, r7, r0, asr #16
    5c88:	76050000 	strvc	r0, [r5], -r0
    5c8c:	00250702 	eoreq	r0, r5, r2, lsl #14
    5c90:	18440000 	stmdane	r4, {}^	; <UNPREDICTABLE>
    5c94:	0000052e 	andeq	r0, r0, lr, lsr #10
    5c98:	13027705 	movwne	r7, #9989	; 0x2705
    5c9c:	0000018f 	andeq	r0, r0, pc, lsl #3
    5ca0:	02d21848 	sbcseq	r1, r2, #72, 16	; 0x480000
    5ca4:	78050000 	stmdavc	r5, {}	; <UNPREDICTABLE>
    5ca8:	08c61402 	stmiaeq	r6, {r1, sl, ip}^
    5cac:	184c0000 	stmdane	ip, {}^	; <UNPREDICTABLE>
    5cb0:	00000200 	andeq	r0, r0, r0, lsl #4
    5cb4:	07027b05 	streq	r7, [r2, -r5, lsl #22]
    5cb8:	00000025 	andeq	r0, r0, r5, lsr #32
    5cbc:	01461850 	cmpeq	r6, r0, asr r8
    5cc0:	7c050000 	stcvc	0, cr0, [r5], {-0}
    5cc4:	01170902 	tsteq	r7, r2, lsl #18
    5cc8:	18540000 	ldmdane	r4, {}^	; <UNPREDICTABLE>
    5ccc:	000002f8 	strdeq	r0, [r0], -r8
    5cd0:	07029f05 	streq	r9, [r2, -r5, lsl #30]
    5cd4:	00000875 	andeq	r0, r0, r5, ror r8
    5cd8:	02b81958 	adcseq	r1, r8, #88, 18	; 0x160000
    5cdc:	a3050000 	movwge	r0, #20480	; 0x5000
    5ce0:	02c01302 	sbceq	r1, r0, #134217728	; 0x8000000
    5ce4:	01480000 	mrseq	r0, (UNDEF: 72)
    5ce8:	00023519 	andeq	r3, r2, r9, lsl r5
    5cec:	02a40500 	adceq	r0, r4, #0, 10
    5cf0:	00027d12 	andeq	r7, r2, r2, lsl sp
    5cf4:	19014c00 	stmdbne	r1, {sl, fp, lr}
    5cf8:	000004da 	ldrdeq	r0, [r0], -sl
    5cfc:	0c02a805 	stceq	8, cr10, [r2], {5}
    5d00:	000008d7 	ldrdeq	r0, [r0], -r7
    5d04:	171902dc 			; <UNDEFINED> instruction: 0x171902dc
    5d08:	05000001 	streq	r0, [r0, #-1]
    5d0c:	5b1002ad 	blpl	4067c8 <__bss_end__+0x3fc660>
    5d10:	e0000006 	and	r0, r0, r6
    5d14:	00fc1902 	rscseq	r1, ip, r2, lsl #18
    5d18:	af050000 	svcge	0x00050000
    5d1c:	08e30a02 	stmiaeq	r3!, {r1, r9, fp}^
    5d20:	02ec0000 	rsceq	r0, ip, #0
    5d24:	4e040500 	cfsh32mi	mvfx0, mvfx4, #0
    5d28:	15000004 	strne	r0, [r0, #-4]
    5d2c:	00000025 	andeq	r0, r0, r5, lsr #32
    5d30:	000005e4 	andeq	r0, r0, r4, ror #11
    5d34:	00046c16 	andeq	r6, r4, r6, lsl ip
    5d38:	01151600 	tsteq	r5, r0, lsl #12
    5d3c:	e4160000 	ldr	r0, [r6], #-0
    5d40:	16000005 	strne	r0, [r0], -r5
    5d44:	00000025 	andeq	r0, r0, r5, lsr #32
    5d48:	24040500 	strcs	r0, [r4], #-1280	; 0xfffffb00
    5d4c:	05000001 	streq	r0, [r0, #-1]
    5d50:	0005c604 	andeq	ip, r5, r4, lsl #12
    5d54:	008e1500 	addeq	r1, lr, r0, lsl #10
    5d58:	060e0000 	streq	r0, [lr], -r0
    5d5c:	6c160000 	ldcvs	0, cr0, [r6], {-0}
    5d60:	16000004 	strne	r0, [r0], -r4
    5d64:	00000115 	andeq	r0, r0, r5, lsl r1
    5d68:	00008e16 	andeq	r8, r0, r6, lsl lr
    5d6c:	00251600 	eoreq	r1, r5, r0, lsl #12
    5d70:	05000000 	streq	r0, [r0, #-0]
    5d74:	0005f004 	andeq	pc, r5, r4
    5d78:	00251500 	eoreq	r1, r5, r0, lsl #10
    5d7c:	06280000 	strteq	r0, [r8], -r0
    5d80:	6c160000 	ldcvs	0, cr0, [r6], {-0}
    5d84:	16000004 	strne	r0, [r0], -r4
    5d88:	00000115 	andeq	r0, r0, r5, lsl r1
    5d8c:	14040500 	strne	r0, [r4], #-1280	; 0xfffffb00
    5d90:	0a000006 	beq	5db0 <_start-0x2250>
    5d94:	0000004f 	andeq	r0, r0, pc, asr #32
    5d98:	0000063e 	andeq	r0, r0, lr, lsr r6
    5d9c:	00002c0b 	andeq	r2, r0, fp, lsl #24
    5da0:	0a000200 	beq	65a8 <_start-0x1a58>
    5da4:	0000004f 	andeq	r0, r0, pc, asr #32
    5da8:	0000064e 	andeq	r0, r0, lr, asr #12
    5dac:	00002c0b 	andeq	r2, r0, fp, lsl #24
    5db0:	07000000 	streq	r0, [r0, -r0]
    5db4:	000003a6 	andeq	r0, r0, r6, lsr #7
    5db8:	1a011f05 	bne	4d9d4 <__bss_end__+0x4386c>
    5dbc:	0000030b 	andeq	r0, r0, fp, lsl #6
    5dc0:	0004c11a 	andeq	ip, r4, sl, lsl r1
    5dc4:	23050c00 	movwcs	r0, #23552	; 0x5c00
    5dc8:	06940801 	ldreq	r0, [r4], r1, lsl #16
    5dcc:	ce180000 	cdpgt	0, 1, cr0, cr8, cr0, {0}
    5dd0:	05000003 	streq	r0, [r0, #-3]
    5dd4:	94110125 	ldrls	r0, [r1], #-293	; 0xfffffedb
    5dd8:	00000006 	andeq	r0, r0, r6
    5ddc:	00021b18 	andeq	r1, r2, r8, lsl fp
    5de0:	01260500 			; <UNDEFINED> instruction: 0x01260500
    5de4:	00002507 	andeq	r2, r0, r7, lsl #10
    5de8:	a0180400 	andsge	r0, r8, r0, lsl #8
    5dec:	05000003 	streq	r0, [r0, #-3]
    5df0:	9a0b0127 	bls	2c6294 <__bss_end__+0x2bc12c>
    5df4:	08000006 	stmdaeq	r0, {r1, r2}
    5df8:	5b040500 	blpl	107200 <__bss_end__+0xfd098>
    5dfc:	05000006 	streq	r0, [r0, #-6]
    5e00:	00064e04 	andeq	r4, r6, r4, lsl #28
    5e04:	00211a00 	eoreq	r1, r1, r0, lsl #20
    5e08:	050e0000 	streq	r0, [lr, #-0]
    5e0c:	d908013f 	stmdble	r8, {r0, r1, r2, r3, r4, r5, r8}
    5e10:	18000006 	stmdane	r0, {r1, r2}
    5e14:	0000041d 	andeq	r0, r0, sp, lsl r4
    5e18:	12014005 	andne	r4, r1, #5
    5e1c:	000006d9 	ldrdeq	r0, [r0], -r9
    5e20:	04511800 	ldrbeq	r1, [r1], #-2048	; 0xfffff800
    5e24:	41050000 	mrsmi	r0, (UNDEF: 5)
    5e28:	06d91201 	ldrbeq	r1, [r9], r1, lsl #4
    5e2c:	18060000 	stmdane	r6, {}	; <UNPREDICTABLE>
    5e30:	0000046d 	andeq	r0, r0, sp, ror #8
    5e34:	12014205 	andne	r4, r1, #1342177280	; 0x50000000
    5e38:	00000056 	andeq	r0, r0, r6, asr r0
    5e3c:	560a000c 	strpl	r0, [sl], -ip
    5e40:	e9000000 	stmdb	r0, {}	; <UNPREDICTABLE>
    5e44:	0b000006 	bleq	5e64 <_start-0x219c>
    5e48:	0000002c 	andeq	r0, r0, ip, lsr #32
    5e4c:	d01b0002 	andsle	r0, fp, r2
    5e50:	07028005 	streq	r8, [r2, -r5]
    5e54:	000007fe 	strdeq	r0, [r0], -lr
    5e58:	0004a518 	andeq	sl, r4, r8, lsl r5
    5e5c:	02820500 	addeq	r0, r2, #0, 10
    5e60:	00002c18 	andeq	r2, r0, r8, lsl ip
    5e64:	57180000 	ldrpl	r0, [r8, -r0]
    5e68:	05000004 	streq	r0, [r0, #-4]
    5e6c:	17120283 	ldrne	r0, [r2, -r3, lsl #5]
    5e70:	04000001 	streq	r0, [r0], #-1
    5e74:	00024a18 	andeq	r4, r2, r8, lsl sl
    5e78:	02840500 	addeq	r0, r4, #0, 10
    5e7c:	0007fe10 	andeq	pc, r7, r0, lsl lr	; <UNPREDICTABLE>
    5e80:	05180800 	ldreq	r0, [r8, #-2048]	; 0xfffff800
    5e84:	05000005 	streq	r0, [r0, #-5]
    5e88:	a5170285 	ldrge	r0, [r7, #-645]	; 0xfffffd7b
    5e8c:	24000001 	strcs	r0, [r0], #-1
    5e90:	0001b818 	andeq	fp, r1, r8, lsl r8
    5e94:	02860500 	addeq	r0, r6, #0, 10
    5e98:	0000250f 	andeq	r2, r0, pc, lsl #10
    5e9c:	c9184800 	ldmdbgt	r8, {fp, lr}
    5ea0:	05000003 	streq	r0, [r0, #-3]
    5ea4:	642c0287 	strtvs	r0, [ip], #-647	; 0xfffffd79
    5ea8:	50000000 	andpl	r0, r0, r0
    5eac:	00051b18 	andeq	r1, r5, r8, lsl fp
    5eb0:	02880500 	addeq	r0, r8, #0, 10
    5eb4:	0006a01a 	andeq	sl, r6, sl, lsl r0
    5eb8:	d4185800 	ldrle	r5, [r8], #-2048	; 0xfffff800
    5ebc:	05000003 	streq	r0, [r0, #-3]
    5ec0:	fd160289 	ldc2	2, cr0, [r6, #-548]	; 0xfffffddc
    5ec4:	68000000 	stmdavs	r0, {}	; <UNPREDICTABLE>
    5ec8:	00052018 	andeq	r2, r5, r8, lsl r0
    5ecc:	028a0500 	addeq	r0, sl, #0, 10
    5ed0:	0000fd16 	andeq	pc, r0, r6, lsl sp	; <UNPREDICTABLE>
    5ed4:	dc187000 	ldcle	0, cr7, [r8], {-0}
    5ed8:	05000002 	streq	r0, [r0, #-2]
    5edc:	fd16028b 	ldc2	2, cr0, [r6, #-556]	; 0xfffffdd4
    5ee0:	78000000 	stmdavc	r0, {}	; <UNPREDICTABLE>
    5ee4:	0004d018 	andeq	sp, r4, r8, lsl r0
    5ee8:	028c0500 	addeq	r0, ip, #0, 10
    5eec:	00080e10 	andeq	r0, r8, r0, lsl lr
    5ef0:	3e188000 	cdpcc	0, 1, cr8, cr8, cr0, {0}
    5ef4:	05000002 	streq	r0, [r0, #-2]
    5ef8:	1e10028d 	cdpne	2, 1, cr0, cr0, cr13, {4}
    5efc:	88000008 	stmdahi	r0, {r3}
    5f00:	00047a18 	andeq	r7, r4, r8, lsl sl
    5f04:	028e0500 	addeq	r0, lr, #0, 10
    5f08:	0000250f 	andeq	r2, r0, pc, lsl #10
    5f0c:	7e18a000 	cdpvc	0, 1, cr10, cr8, cr0, {0}
    5f10:	05000001 	streq	r0, [r0, #-1]
    5f14:	fd16028f 	ldc2	2, cr0, [r6, #-572]	; 0xfffffdc4
    5f18:	a4000000 	strge	r0, [r0], #-0
    5f1c:	00008f18 	andeq	r8, r0, r8, lsl pc
    5f20:	02900500 	addseq	r0, r0, #0, 10
    5f24:	0000fd16 	andeq	pc, r0, r6, lsl sp	; <UNPREDICTABLE>
    5f28:	6d18ac00 	ldcvs	12, cr10, [r8, #-0]
    5f2c:	05000001 	streq	r0, [r0, #-1]
    5f30:	fd160291 	ldc2	2, cr0, [r6, #-580]	; 0xfffffdbc
    5f34:	b4000000 	strlt	r0, [r0], #-0
    5f38:	00003c18 	andeq	r3, r0, r8, lsl ip
    5f3c:	02920500 	addseq	r0, r2, #0, 10
    5f40:	0000fd16 	andeq	pc, r0, r6, lsl sp	; <UNPREDICTABLE>
    5f44:	4b18bc00 	blmi	634f4c <__bss_end__+0x62ade4>
    5f48:	05000000 	streq	r0, [r0, #-0]
    5f4c:	fd160293 	ldc2	2, cr0, [r6, #-588]	; 0xfffffdb4
    5f50:	c4000000 	strgt	r0, [r0], #-0
    5f54:	00037c18 	andeq	r7, r3, r8, lsl ip
    5f58:	02940500 	addseq	r0, r4, #0, 10
    5f5c:	00002508 	andeq	r2, r0, r8, lsl #10
    5f60:	0a00cc00 	beq	38f68 <__bss_end__+0x2ee00>
    5f64:	0000011d 	andeq	r0, r0, sp, lsl r1
    5f68:	0000080e 	andeq	r0, r0, lr, lsl #16
    5f6c:	00002c0b 	andeq	r2, r0, fp, lsl #24
    5f70:	0a001900 	beq	c378 <__bss_end__+0x2210>
    5f74:	0000011d 	andeq	r0, r0, sp, lsl r1
    5f78:	0000081e 	andeq	r0, r0, lr, lsl r8
    5f7c:	00002c0b 	andeq	r2, r0, fp, lsl #24
    5f80:	0a000700 	beq	7b88 <_start-0x478>
    5f84:	0000011d 	andeq	r0, r0, sp, lsl r1
    5f88:	0000082e 	andeq	r0, r0, lr, lsr #16
    5f8c:	00002c0b 	andeq	r2, r0, fp, lsl #24
    5f90:	1b001700 	blne	bb98 <__bss_end__+0x1a30>
    5f94:	029905f0 	addseq	r0, r9, #240, 10	; 0x3c000000
    5f98:	00085507 	andeq	r5, r8, r7, lsl #10
    5f9c:	02a81800 	adceq	r1, r8, #0, 16
    5fa0:	9c050000 	stcls	0, cr0, [r5], {-0}
    5fa4:	08551b02 	ldmdaeq	r5, {r1, r8, r9, fp, ip}^
    5fa8:	18000000 	stmdane	r0, {}	; <UNPREDICTABLE>
    5fac:	000004c7 	andeq	r0, r0, r7, asr #9
    5fb0:	18029d05 	stmdane	r2, {r0, r2, r8, sl, fp, ip, pc}
    5fb4:	00000865 	andeq	r0, r0, r5, ror #16
    5fb8:	050a0078 	streq	r0, [sl, #-120]	; 0xffffff88
    5fbc:	65000003 	strvs	r0, [r0, #-3]
    5fc0:	0b000008 	bleq	5fe8 <_start-0x2018>
    5fc4:	0000002c 	andeq	r0, r0, ip, lsr #32
    5fc8:	2c0a001d 	stccs	0, cr0, [sl], {29}
    5fcc:	75000000 	strvc	r0, [r0, #-0]
    5fd0:	0b000008 	bleq	5ff8 <_start-0x2008>
    5fd4:	0000002c 	andeq	r0, r0, ip, lsr #32
    5fd8:	f01c001d 			; <UNDEFINED> instruction: 0xf01c001d
    5fdc:	03027e05 	movweq	r7, #11781	; 0x2e05
    5fe0:	0000089a 	muleq	r0, sl, r8
    5fe4:	0004161d 	andeq	r1, r4, sp, lsl r6
    5fe8:	02950500 	addseq	r0, r5, #0, 10
    5fec:	0006e90b 	andeq	lr, r6, fp, lsl #18
    5ff0:	04f21d00 	ldrbteq	r1, [r2], #3328	; 0xd00
    5ff4:	9e050000 	cdpls	0, 0, cr0, cr5, cr0, {0}
    5ff8:	082e0b02 	stmdaeq	lr!, {r1, r8, r9, fp}
    5ffc:	0a000000 	beq	6004 <_start-0x1ffc>
    6000:	0000011d 	andeq	r0, r0, sp, lsl r1
    6004:	000008aa 	andeq	r0, r0, sl, lsr #17
    6008:	00002c0b 	andeq	r2, r0, fp, lsl #24
    600c:	06001800 	streq	r1, [r0], -r0, lsl #16
    6010:	00000084 	andeq	r0, r0, r4, lsl #1
    6014:	08aa0405 	stmiaeq	sl!, {r0, r2, sl}
    6018:	c01e0000 	andsgt	r0, lr, r0
    601c:	16000008 	strne	r0, [r0], -r8
    6020:	0000046c 	andeq	r0, r0, ip, ror #8
    6024:	b5040500 	strlt	r0, [r4, #-1280]	; 0xfffffb00
    6028:	05000008 	streq	r0, [r0, #-8]
    602c:	00018f04 	andeq	r8, r1, r4, lsl #30
    6030:	08d71e00 	ldmeq	r7, {r9, sl, fp, ip}^
    6034:	25160000 	ldrcs	r0, [r6, #-0]
    6038:	00000000 	andeq	r0, r0, r0
    603c:	08dd0405 	ldmeq	sp, {r0, r2, sl}^
    6040:	04050000 	streq	r0, [r5], #-0
    6044:	000008cc 	andeq	r0, r0, ip, asr #17
    6048:	00064e0a 	andeq	r4, r6, sl, lsl #28
    604c:	0008f300 	andeq	pc, r8, r0, lsl #6
    6050:	002c0b00 	eoreq	r0, ip, r0, lsl #22
    6054:	00020000 	andeq	r0, r2, r0
    6058:	00048e1f 	andeq	r8, r4, pc, lsl lr
    605c:	032e0500 			; <UNDEFINED> instruction: 0x032e0500
    6060:	00046c17 	andeq	r6, r4, r7, lsl ip
    6064:	04871f00 	streq	r1, [r7], #3840	; 0xf00
    6068:	2f050000 	svccs	0x00050000
    606c:	04721d03 	ldrbteq	r1, [r2], #-3331	; 0xfffff2fd
    6070:	25150000 	ldrcs	r0, [r5, #-0]
    6074:	1c000000 	stcne	0, cr0, [r0], {-0}
    6078:	16000009 	strne	r0, [r0], -r9
    607c:	00000025 	andeq	r0, r0, r5, lsr #32
    6080:	01d12000 	bicseq	r2, r1, r0
    6084:	1d060000 	stcne	0, cr0, [r6, #-0]
    6088:	0009280e 	andeq	r2, r9, lr, lsl #16
    608c:	0d040500 	cfstr32eq	mvfx0, [r4, #-0]
    6090:	15000009 	strne	r0, [r0, #-9]
    6094:	00000025 	andeq	r0, r0, r5, lsr #32
    6098:	0000093d 	andeq	r0, r0, sp, lsr r9
    609c:	0005e416 	andeq	lr, r5, r6, lsl r4
    60a0:	73200000 	nopvc	{0}	; <UNPREDICTABLE>
    60a4:	06000007 	streq	r0, [r0], -r7
    60a8:	09490e22 	stmdbeq	r9, {r1, r5, r9, sl, fp}^
    60ac:	04050000 	streq	r0, [r5], #-0
    60b0:	0000092e 	andeq	r0, r0, lr, lsr #18
    60b4:	00078e21 	andeq	r8, r7, r1, lsr #28
    60b8:	17080100 	strne	r0, [r8, -r0, lsl #2]
    60bc:	00000056 	andeq	r0, r0, r6, asr r0
    60c0:	97480305 	strbls	r0, [r8, -r5, lsl #6]
    60c4:	62220000 	eorvs	r0, r2, #0
    60c8:	01007469 	tsteq	r0, r9, ror #8
    60cc:	002c1109 	eoreq	r1, ip, r9, lsl #2
    60d0:	84230000 	strthi	r0, [r3], #-0
    60d4:	01000007 	tsteq	r0, r7
    60d8:	8c200616 	stchi	6, cr0, [r0], #-88	; 0xffffffa8
    60dc:	00180000 	andseq	r0, r8, r0
    60e0:	9c010000 	stcls	0, cr0, [r1], {-0}
    60e4:	00000992 	muleq	r0, r2, r9
    60e8:	00041e24 	andeq	r1, r4, r4, lsr #28
    60ec:	19160100 	ldmdbne	r6, {r8}
    60f0:	0000002c 	andeq	r0, r0, ip, lsr #32
    60f4:	25005001 	strcs	r5, [r0, #-1]
    60f8:	0000049a 	muleq	r0, sl, r4
    60fc:	5d0f1101 	stfpls	f1, [pc, #-4]	; 6100 <_start-0x1f00>
    6100:	08000000 	stmdaeq	r0, {}	; <UNPREDICTABLE>
    6104:	1800008c 	stmdane	r0, {r2, r3, r7}
    6108:	01000000 	mrseq	r0, (UNDEF: 0)
    610c:	0009bf9c 	muleq	r9, ip, pc	; <UNPREDICTABLE>
    6110:	8c102600 	ldchi	6, cr2, [r0], {-0}
    6114:	09bf0000 	ldmibeq	pc!, {}	; <UNPREDICTABLE>
    6118:	18260000 	stmdane	r6!, {}	; <UNPREDICTABLE>
    611c:	bf00008c 	svclt	0x0000008c
    6120:	00000009 	andeq	r0, r0, r9
    6124:	00079327 	andeq	r9, r7, r7, lsr #6
    6128:	100b0100 	andne	r0, fp, r0, lsl #2
    612c:	00000056 	andeq	r0, r0, r6, asr r0
    6130:	00008bdc 	ldrdeq	r8, [r0], -ip
    6134:	0000002c 	andeq	r0, r0, ip, lsr #32
    6138:	a0009c01 	andge	r9, r0, r1, lsl #24
    613c:	0400000f 	streq	r0, [r0], #-15
    6140:	00132700 	andseq	r2, r3, r0, lsl #14
    6144:	fd010400 	stc2	4, cr0, [r1, #-0]
    6148:	0c000002 	stceq	0, cr0, [r0], {2}
    614c:	000007ae 	andeq	r0, r0, lr, lsr #15
    6150:	000006cc 	andeq	r0, r0, ip, asr #13
    6154:	00008c38 	andeq	r8, r0, r8, lsr ip
    6158:	00000520 	andeq	r0, r0, r0, lsr #10
    615c:	000010cf 	andeq	r1, r0, pc, asr #1
    6160:	69050402 	stmdbvs	r5, {r1, sl}
    6164:	0300746e 	movweq	r7, #1134	; 0x46e
    6168:	00660704 	rsbeq	r0, r6, r4, lsl #14
    616c:	01030000 	mrseq	r0, (UNDEF: 3)
    6170:	0002ec06 	andeq	lr, r2, r6, lsl #24
    6174:	05020300 	streq	r0, [r2, #-768]	; 0xfffffd00
    6178:	00000385 	andeq	r0, r0, r5, lsl #7
    617c:	ac050403 	cfstrsge	mvf0, [r5], {3}
    6180:	03000000 	movweq	r0, #0
    6184:	00a70508 	adceq	r0, r7, r8, lsl #10
    6188:	01030000 	mrseq	r0, (UNDEF: 3)
    618c:	0002ea08 	andeq	lr, r2, r8, lsl #20
    6190:	07020300 	streq	r0, [r2, -r0, lsl #6]
    6194:	00000222 	andeq	r0, r0, r2, lsr #4
    6198:	61070403 	tstvs	r7, r3, lsl #8
    619c:	03000000 	movweq	r0, #0
    61a0:	005c0708 	subseq	r0, ip, r8, lsl #14
    61a4:	65040000 	strvs	r0, [r4, #-0]
    61a8:	02000002 	andeq	r0, r0, #2
    61ac:	00771922 	rsbseq	r1, r7, r2, lsr #18
    61b0:	04050000 	streq	r0, [r5], #-0
    61b4:	0000007d 	andeq	r0, r0, sp, ror r0
    61b8:	00042b06 	andeq	r2, r4, r6, lsl #22
    61bc:	02cb0400 	sbceq	r0, fp, #0, 8
    61c0:	2c030000 	stccs	0, cr0, [r3], {-0}
    61c4:	0000410e 	andeq	r4, r0, lr, lsl #2
    61c8:	04400400 	strbeq	r0, [r0], #-1024	; 0xfffffc00
    61cc:	72030000 	andvc	r0, r3, #0
    61d0:	0000410e 	andeq	r4, r0, lr, lsl #2
    61d4:	026d0700 	rsbeq	r0, sp, #0, 14
    61d8:	5e040000 	cdppl	0, 0, cr0, cr4, cr0, {0}
    61dc:	002c1701 	eoreq	r1, ip, r1, lsl #14
    61e0:	04080000 	streq	r0, [r8], #-0
    61e4:	c903a603 	stmdbgt	r3, {r0, r1, r9, sl, sp, pc}
    61e8:	09000000 	stmdbeq	r0, {}	; <UNPREDICTABLE>
    61ec:	0000025f 	andeq	r0, r0, pc, asr r2
    61f0:	9a0ca803 	bls	330204 <__bss_end__+0x32609c>
    61f4:	09000000 	stmdbeq	r0, {}	; <UNPREDICTABLE>
    61f8:	000001e2 	andeq	r0, r0, r2, ror #3
    61fc:	c913a903 	ldmdbgt	r3, {r0, r1, r8, fp, sp, pc}
    6200:	00000000 	andeq	r0, r0, r0
    6204:	00004f0a 	andeq	r4, r0, sl, lsl #30
    6208:	0000d900 	andeq	sp, r0, r0, lsl #18
    620c:	002c0b00 	eoreq	r0, ip, r0, lsl #22
    6210:	00030000 	andeq	r0, r3, r0
    6214:	a303080c 	movwge	r0, #14348	; 0x380c
    6218:	0000fd09 	andeq	pc, r0, r9, lsl #26
    621c:	04230d00 	strteq	r0, [r3], #-3328	; 0xfffff300
    6220:	a5030000 	strge	r0, [r3, #-0]
    6224:	00002507 	andeq	r2, r0, r7, lsl #10
    6228:	320d0000 	andcc	r0, sp, #0
    622c:	03000004 	movweq	r0, #4
    6230:	00a705aa 	adceq	r0, r7, sl, lsr #11
    6234:	00040000 	andeq	r0, r4, r0
    6238:	0003ad04 	andeq	sl, r3, r4, lsl #26
    623c:	03ab0300 			; <UNDEFINED> instruction: 0x03ab0300
    6240:	000000d9 	ldrdeq	r0, [r0], -r9
    6244:	00019f04 	andeq	r9, r1, r4, lsl #30
    6248:	1baf0300 	blne	febc6e50 <__bss_end__+0xfebbcce8>
    624c:	0000006b 	andeq	r0, r0, fp, rrx
    6250:	0405040e 	streq	r0, [r5], #-1038	; 0xfffffbf2
    6254:	0000011d 	andeq	r0, r0, sp, lsl r1
    6258:	f3080103 	vrhadd.u8	d0, d8, d3
    625c:	0f000002 	svceq	0x00000002
    6260:	0000011d 	andeq	r0, r0, sp, lsl r1
    6264:	00047204 	andeq	r7, r4, r4, lsl #4
    6268:	19160500 	ldmdbne	r6, {r8, sl}
    626c:	0000005d 	andeq	r0, r0, sp, asr r0
    6270:	0001b010 	andeq	fp, r1, r0, lsl r0
    6274:	2f051800 	svccs	0x00051800
    6278:	00018f08 	andeq	r8, r1, r8, lsl #30
    627c:	03ce0d00 	biceq	r0, lr, #0, 26
    6280:	31050000 	mrscc	r0, (UNDEF: 5)
    6284:	00018f13 	andeq	r8, r1, r3, lsl pc
    6288:	5f110000 	svcpl	0x00110000
    628c:	3205006b 	andcc	r0, r5, #107	; 0x6b
    6290:	00002507 	andeq	r2, r0, r7, lsl #10
    6294:	0e0d0400 	cfcpyseq	mvf0, mvf13
    6298:	05000004 	streq	r0, [r0, #-4]
    629c:	00250b32 	eoreq	r0, r5, r2, lsr fp
    62a0:	0d080000 	stceq	0, cr0, [r8, #-0]
    62a4:	00000199 	muleq	r0, r9, r1
    62a8:	25143205 	ldrcs	r3, [r4, #-517]	; 0xfffffdfb
    62ac:	0c000000 	stceq	0, cr0, [r0], {-0}
    62b0:	0004b20d 	andeq	fp, r4, sp, lsl #4
    62b4:	1b320500 	blne	c876bc <__bss_end__+0xc7d554>
    62b8:	00000025 	andeq	r0, r0, r5, lsr #32
    62bc:	785f1110 	ldmdavc	pc, {r4, r8, ip}^	; <UNPREDICTABLE>
    62c0:	0b330500 	bleq	cc76c8 <__bss_end__+0xcbd560>
    62c4:	00000195 	muleq	r0, r5, r1
    62c8:	04050014 	streq	r0, [r5], #-20	; 0xffffffec
    62cc:	00000135 	andeq	r0, r0, r5, lsr r1
    62d0:	0001290a 	andeq	r2, r1, sl, lsl #18
    62d4:	0001a500 	andeq	sl, r1, r0, lsl #10
    62d8:	002c0b00 	eoreq	r0, ip, r0, lsl #22
    62dc:	00000000 	andeq	r0, r0, r0
    62e0:	0001dd10 	andeq	sp, r1, r0, lsl sp
    62e4:	37052400 	strcc	r2, [r5, -r0, lsl #8]
    62e8:	00022808 	andeq	r2, r2, r8, lsl #16
    62ec:	009e0d00 	addseq	r0, lr, r0, lsl #26
    62f0:	39050000 	stmdbcc	r5, {}	; <UNPREDICTABLE>
    62f4:	00002509 	andeq	r2, r0, r9, lsl #10
    62f8:	480d0000 	stmdami	sp, {}	; <UNPREDICTABLE>
    62fc:	05000004 	streq	r0, [r0, #-4]
    6300:	0025093a 	eoreq	r0, r5, sl, lsr r9
    6304:	0d040000 	stceq	0, cr0, [r4, #-0]
    6308:	000000c1 	andeq	r0, r0, r1, asr #1
    630c:	25093b05 	strcs	r3, [r9, #-2821]	; 0xfffff4fb
    6310:	08000000 	stmdaeq	r0, {}	; <UNPREDICTABLE>
    6314:	0005330d 	andeq	r3, r5, sp, lsl #6
    6318:	093c0500 	ldmdbeq	ip!, {r8, sl}
    631c:	00000025 	andeq	r0, r0, r5, lsr #32
    6320:	02af0d0c 	adceq	r0, pc, #12, 26	; 0x300
    6324:	3d050000 	stccc	0, cr0, [r5, #-0]
    6328:	00002509 	andeq	r2, r0, r9, lsl #10
    632c:	830d1000 	movwhi	r1, #53248	; 0xd000
    6330:	05000002 	streq	r0, [r0, #-2]
    6334:	0025093e 	eoreq	r0, r5, lr, lsr r9
    6338:	0d140000 	ldceq	0, cr0, [r4, #-0]
    633c:	000004b7 			; <UNDEFINED> instruction: 0x000004b7
    6340:	25093f05 	strcs	r3, [r9, #-3845]	; 0xfffff0fb
    6344:	18000000 	stmdane	r0, {}	; <UNPREDICTABLE>
    6348:	00038f0d 	andeq	r8, r3, sp, lsl #30
    634c:	09400500 	stmdbeq	r0, {r8, sl}^
    6350:	00000025 	andeq	r0, r0, r5, lsr #32
    6354:	04fa0d1c 	ldrbteq	r0, [sl], #3356	; 0xd1c
    6358:	41050000 	mrsmi	r0, (UNDEF: 5)
    635c:	00002509 	andeq	r2, r0, r9, lsl #10
    6360:	12002000 	andne	r2, r0, #0
    6364:	00000101 	andeq	r0, r0, r1, lsl #2
    6368:	4a050108 	bmi	146790 <__bss_end__+0x13c628>
    636c:	00026d08 	andeq	r6, r2, r8, lsl #26
    6370:	018c0d00 	orreq	r0, ip, r0, lsl #26
    6374:	4b050000 	blmi	14637c <__bss_end__+0x13c214>
    6378:	00026d0a 	andeq	r6, r2, sl, lsl #26
    637c:	000d0000 	andeq	r0, sp, r0
    6380:	05000000 	streq	r0, [r0, #-0]
    6384:	026d094c 	rsbeq	r0, sp, #76, 18	; 0x130000
    6388:	13800000 	orrne	r0, r0, #0
    638c:	00000464 	andeq	r0, r0, r4, ror #8
    6390:	290a4e05 	stmdbcs	sl, {r0, r2, r9, sl, fp, lr}
    6394:	00000001 	andeq	r0, r0, r1
    6398:	01261301 			; <UNDEFINED> instruction: 0x01261301
    639c:	51050000 	mrspl	r0, (UNDEF: 5)
    63a0:	0001290a 	andeq	r2, r1, sl, lsl #18
    63a4:	00010400 	andeq	r0, r1, r0, lsl #8
    63a8:	0001150a 	andeq	r1, r1, sl, lsl #10
    63ac:	00027d00 	andeq	r7, r2, r0, lsl #26
    63b0:	002c0b00 	eoreq	r0, ip, r0, lsl #22
    63b4:	001f0000 	andseq	r0, pc, r0
    63b8:	0002b812 	andeq	fp, r2, r2, lsl r8
    63bc:	05019000 	streq	r9, [r1, #-0]
    63c0:	02c0085d 	sbceq	r0, r0, #6094848	; 0x5d0000
    63c4:	ce0d0000 	cdpgt	0, 0, cr0, cr13, cr0, {0}
    63c8:	05000003 	streq	r0, [r0, #-3]
    63cc:	02c0125e 	sbceq	r1, r0, #-536870907	; 0xe0000005
    63d0:	0d000000 	stceq	0, cr0, [r0, #-0]
    63d4:	000003e6 	andeq	r0, r0, r6, ror #7
    63d8:	25065f05 	strcs	r5, [r6, #-3845]	; 0xfffff0fb
    63dc:	04000000 	streq	r0, [r0], #-0
    63e0:	0001940d 	andeq	r9, r1, sp, lsl #8
    63e4:	09610500 	stmdbeq	r1!, {r8, sl}^
    63e8:	000002c6 	andeq	r0, r0, r6, asr #5
    63ec:	01010d08 	tsteq	r1, r8, lsl #26
    63f0:	62050000 	andvs	r0, r5, #0
    63f4:	0002281e 	andeq	r2, r2, lr, lsl r8
    63f8:	05008800 	streq	r8, [r0, #-2048]	; 0xfffff800
    63fc:	00027d04 	andeq	r7, r2, r4, lsl #26
    6400:	02d60a00 	sbcseq	r0, r6, #0, 20
    6404:	02d60000 	sbcseq	r0, r6, #0
    6408:	2c0b0000 	stccs	0, cr0, [fp], {-0}
    640c:	1f000000 	svcne	0x00000000
    6410:	dc040500 	cfstr32le	mvfx0, [r4], {-0}
    6414:	14000002 	strne	r0, [r0], #-2
    6418:	00039910 	andeq	r9, r3, r0, lsl r9
    641c:	75050800 	strvc	r0, [r5, #-2048]	; 0xfffff800
    6420:	00030508 	andeq	r0, r3, r8, lsl #10
    6424:	00bb0d00 	adcseq	r0, fp, r0, lsl #26
    6428:	76050000 	strvc	r0, [r5], -r0
    642c:	00030511 	andeq	r0, r3, r1, lsl r5
    6430:	1b0d0000 	blne	346438 <__bss_end__+0x33c2d0>
    6434:	05000000 	streq	r0, [r0, #-0]
    6438:	00250677 	eoreq	r0, r5, r7, ror r6
    643c:	00040000 	andeq	r0, r4, r0
    6440:	004f0405 	subeq	r0, pc, r5, lsl #8
    6444:	b8100000 	ldmdalt	r0, {}	; <UNPREDICTABLE>
    6448:	68000003 	stmdavs	r0, {r0, r1}
    644c:	4e08b505 	cfsh32mi	mvfx11, mvfx8, #5
    6450:	11000004 	tstne	r0, r4
    6454:	0500705f 	streq	r7, [r0, #-95]	; 0xffffffa1
    6458:	030512b6 	movweq	r1, #21174	; 0x52b6
    645c:	11000000 	mrsne	r0, (UNDEF: 0)
    6460:	0500725f 	streq	r7, [r0, #-607]	; 0xfffffda1
    6464:	002507b7 	strhteq	r0, [r5], -r7
    6468:	11040000 	mrsne	r0, (UNDEF: 4)
    646c:	0500775f 	streq	r7, [r0, #-1887]	; 0xfffff8a1
    6470:	002507b8 	strhteq	r0, [r5], -r8
    6474:	0d080000 	stceq	0, cr0, [r8, #-0]
    6478:	0000011f 	andeq	r0, r0, pc, lsl r1
    647c:	3a09b905 	bcc	274898 <__bss_end__+0x26a730>
    6480:	0c000000 	stceq	0, cr0, [r0], {-0}
    6484:	0002080d 	andeq	r0, r2, sp, lsl #16
    6488:	09ba0500 	ldmibeq	sl!, {r8, sl}
    648c:	0000003a 	andeq	r0, r0, sl, lsr r0
    6490:	625f110e 	subsvs	r1, pc, #-2147483645	; 0x80000003
    6494:	bb050066 	bllt	146634 <__bss_end__+0x13c4cc>
    6498:	0002dd11 	andeq	sp, r2, r1, lsl sp
    649c:	7b0d1000 	blvc	34a4a4 <__bss_end__+0x34033c>
    64a0:	05000000 	streq	r0, [r0, #-0]
    64a4:	002507bc 	strhteq	r0, [r5], -ip
    64a8:	0d180000 	ldceq	0, cr0, [r8, #-0]
    64ac:	0000010f 	andeq	r0, r0, pc, lsl #2
    64b0:	150ac305 	strne	ip, [sl, #-773]	; 0xfffffcfb
    64b4:	1c000001 	stcne	0, cr0, [r0], {1}
    64b8:	000b590d 	andeq	r5, fp, sp, lsl #18
    64bc:	1dc50500 	cfstr64ne	mvdx0, [r5]
    64c0:	000005c0 	andeq	r0, r0, r0, asr #11
    64c4:	061d0d20 	ldreq	r0, [sp], -r0, lsr #26
    64c8:	c7050000 	strgt	r0, [r5, -r0]
    64cc:	0005ea1d 	andeq	lr, r5, sp, lsl sl
    64d0:	3a0d2400 	bcc	34f4d8 <__bss_end__+0x345370>
    64d4:	05000004 	streq	r0, [r0, #-4]
    64d8:	060e0dca 	streq	r0, [lr], -sl, asr #27
    64dc:	0d280000 	stceq	0, cr0, [r8, #-0]
    64e0:	00000514 	andeq	r0, r0, r4, lsl r5
    64e4:	2809cb05 	stmdacs	r9, {r0, r2, r8, r9, fp, lr, pc}
    64e8:	2c000006 	stccs	0, cr0, [r0], {6}
    64ec:	62755f11 	rsbsvs	r5, r5, #17, 30	; 0x44
    64f0:	11ce0500 	bicne	r0, lr, r0, lsl #10
    64f4:	000002dd 	ldrdeq	r0, [r0], -sp
    64f8:	755f1130 	ldrbvc	r1, [pc, #-304]	; 63d0 <_start-0x1c30>
    64fc:	cf050070 	svcgt	0x00050070
    6500:	00030512 	andeq	r0, r3, r2, lsl r5
    6504:	5f113800 	svcpl	0x00113800
    6508:	05007275 	streq	r7, [r0, #-629]	; 0xfffffd8b
    650c:	002507d0 	ldrdeq	r0, [r5], -r0	; <UNPREDICTABLE>
    6510:	0d3c0000 	ldceq	0, cr0, [ip, #-0]
    6514:	000000b5 	strheq	r0, [r0], -r5
    6518:	2e11d305 	cdpcs	3, 1, cr13, cr1, cr5, {0}
    651c:	40000006 	andmi	r0, r0, r6
    6520:	0004ec0d 	andeq	lr, r4, sp, lsl #24
    6524:	11d40500 	bicsne	r0, r4, r0, lsl #10
    6528:	0000063e 	andeq	r0, r0, lr, lsr r6
    652c:	6c5f1143 	ldfvse	f1, [pc], {67}	; 0x43
    6530:	d7050062 	strle	r0, [r5, -r2, rrx]
    6534:	0002dd11 	andeq	sp, r2, r1, lsl sp
    6538:	3d0d4400 	cfstrscc	mvf4, [sp, #-0]
    653c:	05000001 	streq	r0, [r0, #-1]
    6540:	002507da 	ldrdeq	r0, [r5], -sl	; <UNPREDICTABLE>
    6544:	0d4c0000 	stcleq	0, cr0, [ip, #-0]
    6548:	0000014e 	andeq	r0, r0, lr, asr #2
    654c:	820adb05 	andhi	sp, sl, #5120	; 0x1400
    6550:	50000000 	andpl	r0, r0, r0
    6554:	000afa0d 	andeq	pc, sl, sp, lsl #20
    6558:	12de0500 	sbcsne	r0, lr, #0, 10
    655c:	0000046c 	andeq	r0, r0, ip, ror #8
    6560:	042c0d54 	strteq	r0, [ip], #-3412	; 0xfffff2ac
    6564:	e2050000 	and	r0, r5, #0
    6568:	0001090c 	andeq	r0, r1, ip, lsl #18
    656c:	c00d5800 	andgt	r5, sp, r0, lsl #16
    6570:	05000003 	streq	r0, [r0, #-3]
    6574:	00fd0ee4 	rscseq	r0, sp, r4, ror #29
    6578:	0d5c0000 	ldcleq	0, cr0, [ip, #-0]
    657c:	0000027b 	andeq	r0, r0, fp, ror r2
    6580:	2509e505 	strcs	lr, [r9, #-1285]	; 0xfffffafb
    6584:	64000000 	strvs	r0, [r0], #-0
    6588:	00251500 	eoreq	r1, r5, r0, lsl #10
    658c:	046c0000 	strbteq	r0, [ip], #-0
    6590:	6c160000 	ldcvs	0, cr0, [r6], {-0}
    6594:	16000004 	strne	r0, [r0], -r4
    6598:	00000115 	andeq	r0, r0, r5, lsl r1
    659c:	00011716 	andeq	r1, r1, r6, lsl r7
    65a0:	00251600 	eoreq	r1, r5, r0, lsl #12
    65a4:	05000000 	streq	r0, [r0, #-0]
    65a8:	00047704 	andeq	r7, r4, r4, lsl #14
    65ac:	046c0f00 	strbteq	r0, [ip], #-3840	; 0xfffff100
    65b0:	16170000 	ldrne	r0, [r7], -r0
    65b4:	28000004 	stmdacs	r0, {r2}
    65b8:	02600504 	rsbeq	r0, r0, #4, 10	; 0x1000000
    65bc:	0005c008 	andeq	ip, r5, r8
    65c0:	037e1800 	cmneq	lr, #0, 16
    65c4:	62050000 	andvs	r0, r5, #0
    65c8:	00250702 	eoreq	r0, r5, r2, lsl #14
    65cc:	18000000 	stmdane	r0, {}	; <UNPREDICTABLE>
    65d0:	0000012e 	andeq	r0, r0, lr, lsr #2
    65d4:	0b026705 	bleq	a01f0 <__bss_end__+0x96088>
    65d8:	0000069a 	muleq	r0, sl, r6
    65dc:	01f81804 	mvnseq	r1, r4, lsl #16
    65e0:	67050000 	strvs	r0, [r5, -r0]
    65e4:	069a1402 	ldreq	r1, [sl], r2, lsl #8
    65e8:	18080000 	stmdane	r8, {}	; <UNPREDICTABLE>
    65ec:	000001a8 	andeq	r0, r0, r8, lsr #3
    65f0:	1e026705 	cdpne	7, 0, cr6, cr2, cr5, {0}
    65f4:	0000069a 	muleq	r0, sl, r6
    65f8:	03e1180c 	mvneq	r1, #12, 16	; 0xc0000
    65fc:	69050000 	stmdbvs	r5, {}	; <UNPREDICTABLE>
    6600:	00250802 	eoreq	r0, r5, r2, lsl #16
    6604:	18100000 	ldmdane	r0, {}	; <UNPREDICTABLE>
    6608:	00000029 	andeq	r0, r0, r9, lsr #32
    660c:	08026a05 	stmdaeq	r2, {r0, r2, r9, fp, sp, lr}
    6610:	0000089a 	muleq	r0, sl, r8
    6614:	03f51814 	mvnseq	r1, #20, 16	; 0x140000
    6618:	6d050000 	stcvs	0, cr0, [r5, #-0]
    661c:	00250702 	eoreq	r0, r5, r2, lsl #14
    6620:	18300000 	ldmdane	r0!, {}	; <UNPREDICTABLE>
    6624:	00000a36 	andeq	r0, r0, r6, lsr sl
    6628:	16026e05 	strne	r6, [r2], -r5, lsl #28
    662c:	000008af 	andeq	r0, r0, pc, lsr #17
    6630:	02c01834 	sbceq	r1, r0, #52, 16	; 0x340000
    6634:	70050000 	andvc	r0, r5, r0
    6638:	00250702 	eoreq	r0, r5, r2, lsl #14
    663c:	18380000 	ldmdane	r8!, {}	; <UNPREDICTABLE>
    6640:	000003eb 	andeq	r0, r0, fp, ror #7
    6644:	0a027205 	beq	a2e60 <__bss_end__+0x98cf8>
    6648:	000008c0 	andeq	r0, r0, r0, asr #17
    664c:	0257183c 	subseq	r1, r7, #60, 16	; 0x3c0000
    6650:	75050000 	strvc	r0, [r5, #-0]
    6654:	018f1302 	orreq	r1, pc, r2, lsl #6
    6658:	18400000 	stmdane	r0, {}^	; <UNPREDICTABLE>
    665c:	000001c7 	andeq	r0, r0, r7, asr #3
    6660:	07027605 	streq	r7, [r2, -r5, lsl #12]
    6664:	00000025 	andeq	r0, r0, r5, lsr #32
    6668:	052e1844 	streq	r1, [lr, #-2116]!	; 0xfffff7bc
    666c:	77050000 	strvc	r0, [r5, -r0]
    6670:	018f1302 	orreq	r1, pc, r2, lsl #6
    6674:	18480000 	stmdane	r8, {}^	; <UNPREDICTABLE>
    6678:	000002d2 	ldrdeq	r0, [r0], -r2
    667c:	14027805 	strne	r7, [r2], #-2053	; 0xfffff7fb
    6680:	000008c6 	andeq	r0, r0, r6, asr #17
    6684:	0200184c 	andeq	r1, r0, #76, 16	; 0x4c0000
    6688:	7b050000 	blvc	146690 <__bss_end__+0x13c528>
    668c:	00250702 	eoreq	r0, r5, r2, lsl #14
    6690:	18500000 	ldmdane	r0, {}^	; <UNPREDICTABLE>
    6694:	00000146 	andeq	r0, r0, r6, asr #2
    6698:	09027c05 	stmdbeq	r2, {r0, r2, sl, fp, ip, sp, lr}
    669c:	00000117 	andeq	r0, r0, r7, lsl r1
    66a0:	02f81854 	rscseq	r1, r8, #84, 16	; 0x540000
    66a4:	9f050000 	svcls	0x00050000
    66a8:	08750702 	ldmdaeq	r5!, {r1, r8, r9, sl}^
    66ac:	19580000 	ldmdbne	r8, {}^	; <UNPREDICTABLE>
    66b0:	000002b8 			; <UNDEFINED> instruction: 0x000002b8
    66b4:	1302a305 	movwne	sl, #8965	; 0x2305
    66b8:	000002c0 	andeq	r0, r0, r0, asr #5
    66bc:	35190148 	ldrcc	r0, [r9, #-328]	; 0xfffffeb8
    66c0:	05000002 	streq	r0, [r0, #-2]
    66c4:	7d1202a4 	lfmvc	f0, 4, [r2, #-656]	; 0xfffffd70
    66c8:	4c000002 	stcmi	0, cr0, [r0], {2}
    66cc:	04da1901 	ldrbeq	r1, [sl], #2305	; 0x901
    66d0:	a8050000 	stmdage	r5, {}	; <UNPREDICTABLE>
    66d4:	08d70c02 	ldmeq	r7, {r1, sl, fp}^
    66d8:	02dc0000 	sbcseq	r0, ip, #0
    66dc:	00011719 	andeq	r1, r1, r9, lsl r7
    66e0:	02ad0500 	adceq	r0, sp, #0, 10
    66e4:	00065b10 	andeq	r5, r6, r0, lsl fp
    66e8:	1902e000 	stmdbne	r2, {sp, lr, pc}
    66ec:	000000fc 	strdeq	r0, [r0], -ip
    66f0:	0a02af05 	beq	b230c <__bss_end__+0xa81a4>
    66f4:	000008e3 	andeq	r0, r0, r3, ror #17
    66f8:	050002ec 	streq	r0, [r0, #-748]	; 0xfffffd14
    66fc:	00044e04 	andeq	r4, r4, r4, lsl #28
    6700:	00251500 	eoreq	r1, r5, r0, lsl #10
    6704:	05e40000 	strbeq	r0, [r4, #0]!
    6708:	6c160000 	ldcvs	0, cr0, [r6], {-0}
    670c:	16000004 	strne	r0, [r0], -r4
    6710:	00000115 	andeq	r0, r0, r5, lsl r1
    6714:	0005e416 	andeq	lr, r5, r6, lsl r4
    6718:	00251600 	eoreq	r1, r5, r0, lsl #12
    671c:	05000000 	streq	r0, [r0, #-0]
    6720:	00012404 	andeq	r2, r1, r4, lsl #8
    6724:	c6040500 	strgt	r0, [r4], -r0, lsl #10
    6728:	15000005 	strne	r0, [r0, #-5]
    672c:	0000008e 	andeq	r0, r0, lr, lsl #1
    6730:	0000060e 	andeq	r0, r0, lr, lsl #12
    6734:	00046c16 	andeq	r6, r4, r6, lsl ip
    6738:	01151600 	tsteq	r5, r0, lsl #12
    673c:	8e160000 	cdphi	0, 1, cr0, cr6, cr0, {0}
    6740:	16000000 	strne	r0, [r0], -r0
    6744:	00000025 	andeq	r0, r0, r5, lsr #32
    6748:	f0040500 			; <UNDEFINED> instruction: 0xf0040500
    674c:	15000005 	strne	r0, [r0, #-5]
    6750:	00000025 	andeq	r0, r0, r5, lsr #32
    6754:	00000628 	andeq	r0, r0, r8, lsr #12
    6758:	00046c16 	andeq	r6, r4, r6, lsl ip
    675c:	01151600 	tsteq	r5, r0, lsl #12
    6760:	05000000 	streq	r0, [r0, #-0]
    6764:	00061404 	andeq	r1, r6, r4, lsl #8
    6768:	004f0a00 	subeq	r0, pc, r0, lsl #20
    676c:	063e0000 	ldrteq	r0, [lr], -r0
    6770:	2c0b0000 	stccs	0, cr0, [fp], {-0}
    6774:	02000000 	andeq	r0, r0, #0
    6778:	004f0a00 	subeq	r0, pc, r0, lsl #20
    677c:	064e0000 	strbeq	r0, [lr], -r0
    6780:	2c0b0000 	stccs	0, cr0, [fp], {-0}
    6784:	00000000 	andeq	r0, r0, r0
    6788:	03a60700 			; <UNDEFINED> instruction: 0x03a60700
    678c:	1f050000 	svcne	0x00050000
    6790:	030b1a01 	movweq	r1, #47617	; 0xba01
    6794:	c11a0000 	tstgt	sl, r0
    6798:	0c000004 	stceq	0, cr0, [r0], {4}
    679c:	08012305 	stmdaeq	r1, {r0, r2, r8, r9, sp}
    67a0:	00000694 	muleq	r0, r4, r6
    67a4:	0003ce18 	andeq	ip, r3, r8, lsl lr
    67a8:	01250500 			; <UNDEFINED> instruction: 0x01250500
    67ac:	00069411 	andeq	r9, r6, r1, lsl r4
    67b0:	1b180000 	blne	6067b8 <__bss_end__+0x5fc650>
    67b4:	05000002 	streq	r0, [r0, #-2]
    67b8:	25070126 	strcs	r0, [r7, #-294]	; 0xfffffeda
    67bc:	04000000 	streq	r0, [r0], #-0
    67c0:	0003a018 	andeq	sl, r3, r8, lsl r0
    67c4:	01270500 			; <UNDEFINED> instruction: 0x01270500
    67c8:	00069a0b 	andeq	r9, r6, fp, lsl #20
    67cc:	05000800 	streq	r0, [r0, #-2048]	; 0xfffff800
    67d0:	00065b04 	andeq	r5, r6, r4, lsl #22
    67d4:	4e040500 	cfsh32mi	mvfx0, mvfx4, #0
    67d8:	1a000006 	bne	67f8 <_start-0x1808>
    67dc:	00000021 	andeq	r0, r0, r1, lsr #32
    67e0:	013f050e 	teqeq	pc, lr, lsl #10
    67e4:	0006d908 	andeq	sp, r6, r8, lsl #18
    67e8:	041d1800 	ldreq	r1, [sp], #-2048	; 0xfffff800
    67ec:	40050000 	andmi	r0, r5, r0
    67f0:	06d91201 	ldrbeq	r1, [r9], r1, lsl #4
    67f4:	18000000 	stmdane	r0, {}	; <UNPREDICTABLE>
    67f8:	00000451 	andeq	r0, r0, r1, asr r4
    67fc:	12014105 	andne	r4, r1, #1073741825	; 0x40000001
    6800:	000006d9 	ldrdeq	r0, [r0], -r9
    6804:	046d1806 	strbteq	r1, [sp], #-2054	; 0xfffff7fa
    6808:	42050000 	andmi	r0, r5, #0
    680c:	00561201 	subseq	r1, r6, r1, lsl #4
    6810:	000c0000 	andeq	r0, ip, r0
    6814:	0000560a 	andeq	r5, r0, sl, lsl #12
    6818:	0006e900 	andeq	lr, r6, r0, lsl #18
    681c:	002c0b00 	eoreq	r0, ip, r0, lsl #22
    6820:	00020000 	andeq	r0, r2, r0
    6824:	8005d01b 	andhi	sp, r5, fp, lsl r0
    6828:	07fe0702 	ldrbeq	r0, [lr, r2, lsl #14]!
    682c:	a5180000 	ldrge	r0, [r8, #-0]
    6830:	05000004 	streq	r0, [r0, #-4]
    6834:	2c180282 	lfmcs	f0, 4, [r8], {130}	; 0x82
    6838:	00000000 	andeq	r0, r0, r0
    683c:	00045718 	andeq	r5, r4, r8, lsl r7
    6840:	02830500 	addeq	r0, r3, #0, 10
    6844:	00011712 	andeq	r1, r1, r2, lsl r7
    6848:	4a180400 	bmi	607850 <__bss_end__+0x5fd6e8>
    684c:	05000002 	streq	r0, [r0, #-2]
    6850:	fe100284 	cdp2	2, 1, cr0, cr0, cr4, {4}
    6854:	08000007 	stmdaeq	r0, {r0, r1, r2}
    6858:	00050518 	andeq	r0, r5, r8, lsl r5
    685c:	02850500 	addeq	r0, r5, #0, 10
    6860:	0001a517 	andeq	sl, r1, r7, lsl r5
    6864:	b8182400 	ldmdalt	r8, {sl, sp}
    6868:	05000001 	streq	r0, [r0, #-1]
    686c:	250f0286 	strcs	r0, [pc, #-646]	; 65ee <_start-0x1a12>
    6870:	48000000 	stmdami	r0, {}	; <UNPREDICTABLE>
    6874:	0003c918 	andeq	ip, r3, r8, lsl r9
    6878:	02870500 	addeq	r0, r7, #0, 10
    687c:	0000642c 	andeq	r6, r0, ip, lsr #8
    6880:	1b185000 	blne	61a888 <__bss_end__+0x610720>
    6884:	05000005 	streq	r0, [r0, #-5]
    6888:	a01a0288 	andsge	r0, sl, r8, lsl #5
    688c:	58000006 	stmdapl	r0, {r1, r2}
    6890:	0003d418 	andeq	sp, r3, r8, lsl r4
    6894:	02890500 	addeq	r0, r9, #0, 10
    6898:	0000fd16 	andeq	pc, r0, r6, lsl sp	; <UNPREDICTABLE>
    689c:	20186800 	andscs	r6, r8, r0, lsl #16
    68a0:	05000005 	streq	r0, [r0, #-5]
    68a4:	fd16028a 	ldc2	2, cr0, [r6, #-552]	; 0xfffffdd8
    68a8:	70000000 	andvc	r0, r0, r0
    68ac:	0002dc18 	andeq	sp, r2, r8, lsl ip
    68b0:	028b0500 	addeq	r0, fp, #0, 10
    68b4:	0000fd16 	andeq	pc, r0, r6, lsl sp	; <UNPREDICTABLE>
    68b8:	d0187800 	andsle	r7, r8, r0, lsl #16
    68bc:	05000004 	streq	r0, [r0, #-4]
    68c0:	0e10028c 	cdpeq	2, 1, cr0, cr0, cr12, {4}
    68c4:	80000008 	andhi	r0, r0, r8
    68c8:	00023e18 	andeq	r3, r2, r8, lsl lr
    68cc:	028d0500 	addeq	r0, sp, #0, 10
    68d0:	00081e10 	andeq	r1, r8, r0, lsl lr
    68d4:	7a188800 	bvc	6288dc <__bss_end__+0x61e774>
    68d8:	05000004 	streq	r0, [r0, #-4]
    68dc:	250f028e 	strcs	r0, [pc, #-654]	; 6656 <_start-0x19aa>
    68e0:	a0000000 	andge	r0, r0, r0
    68e4:	00017e18 	andeq	r7, r1, r8, lsl lr
    68e8:	028f0500 	addeq	r0, pc, #0, 10
    68ec:	0000fd16 	andeq	pc, r0, r6, lsl sp	; <UNPREDICTABLE>
    68f0:	8f18a400 	svchi	0x0018a400
    68f4:	05000000 	streq	r0, [r0, #-0]
    68f8:	fd160290 	ldc2	2, cr0, [r6, #-576]	; 0xfffffdc0
    68fc:	ac000000 	stcge	0, cr0, [r0], {-0}
    6900:	00016d18 	andeq	r6, r1, r8, lsl sp
    6904:	02910500 	addseq	r0, r1, #0, 10
    6908:	0000fd16 	andeq	pc, r0, r6, lsl sp	; <UNPREDICTABLE>
    690c:	3c18b400 	cfldrscc	mvf11, [r8], {-0}
    6910:	05000000 	streq	r0, [r0, #-0]
    6914:	fd160292 	ldc2	2, cr0, [r6, #-584]	; 0xfffffdb8
    6918:	bc000000 	stclt	0, cr0, [r0], {-0}
    691c:	00004b18 	andeq	r4, r0, r8, lsl fp
    6920:	02930500 	addseq	r0, r3, #0, 10
    6924:	0000fd16 	andeq	pc, r0, r6, lsl sp	; <UNPREDICTABLE>
    6928:	7c18c400 	cfldrsvc	mvf12, [r8], {-0}
    692c:	05000003 	streq	r0, [r0, #-3]
    6930:	25080294 	strcs	r0, [r8, #-660]	; 0xfffffd6c
    6934:	cc000000 	stcgt	0, cr0, [r0], {-0}
    6938:	011d0a00 	tsteq	sp, r0, lsl #20
    693c:	080e0000 	stmdaeq	lr, {}	; <UNPREDICTABLE>
    6940:	2c0b0000 	stccs	0, cr0, [fp], {-0}
    6944:	19000000 	stmdbne	r0, {}	; <UNPREDICTABLE>
    6948:	011d0a00 	tsteq	sp, r0, lsl #20
    694c:	081e0000 	ldmdaeq	lr, {}	; <UNPREDICTABLE>
    6950:	2c0b0000 	stccs	0, cr0, [fp], {-0}
    6954:	07000000 	streq	r0, [r0, -r0]
    6958:	011d0a00 	tsteq	sp, r0, lsl #20
    695c:	082e0000 	stmdaeq	lr!, {}	; <UNPREDICTABLE>
    6960:	2c0b0000 	stccs	0, cr0, [fp], {-0}
    6964:	17000000 	strne	r0, [r0, -r0]
    6968:	05f01b00 	ldrbeq	r1, [r0, #2816]!	; 0xb00
    696c:	55070299 	strpl	r0, [r7, #-665]	; 0xfffffd67
    6970:	18000008 	stmdane	r0, {r3}
    6974:	000002a8 	andeq	r0, r0, r8, lsr #5
    6978:	1b029c05 	blne	ad994 <__bss_end__+0xa382c>
    697c:	00000855 	andeq	r0, r0, r5, asr r8
    6980:	04c71800 	strbeq	r1, [r7], #2048	; 0x800
    6984:	9d050000 	stcls	0, cr0, [r5, #-0]
    6988:	08651802 	stmdaeq	r5!, {r1, fp, ip}^
    698c:	00780000 	rsbseq	r0, r8, r0
    6990:	0003050a 	andeq	r0, r3, sl, lsl #10
    6994:	00086500 	andeq	r6, r8, r0, lsl #10
    6998:	002c0b00 	eoreq	r0, ip, r0, lsl #22
    699c:	001d0000 	andseq	r0, sp, r0
    69a0:	00002c0a 	andeq	r2, r0, sl, lsl #24
    69a4:	00087500 	andeq	r7, r8, r0, lsl #10
    69a8:	002c0b00 	eoreq	r0, ip, r0, lsl #22
    69ac:	001d0000 	andseq	r0, sp, r0
    69b0:	7e05f01c 	mcrvc	0, 0, pc, cr5, cr12, {0}	; <UNPREDICTABLE>
    69b4:	089a0302 	ldmeq	sl, {r1, r8, r9}
    69b8:	161d0000 	ldrne	r0, [sp], -r0
    69bc:	05000004 	streq	r0, [r0, #-4]
    69c0:	e90b0295 	stmdb	fp, {r0, r2, r4, r7, r9}
    69c4:	1d000006 	stcne	0, cr0, [r0, #-24]	; 0xffffffe8
    69c8:	000004f2 	strdeq	r0, [r0], -r2
    69cc:	0b029e05 	bleq	ae1e8 <__bss_end__+0xa4080>
    69d0:	0000082e 	andeq	r0, r0, lr, lsr #16
    69d4:	011d0a00 	tsteq	sp, r0, lsl #20
    69d8:	08aa0000 	stmiaeq	sl!, {}	; <UNPREDICTABLE>
    69dc:	2c0b0000 	stccs	0, cr0, [fp], {-0}
    69e0:	18000000 	stmdane	r0, {}	; <UNPREDICTABLE>
    69e4:	00840600 	addeq	r0, r4, r0, lsl #12
    69e8:	04050000 	streq	r0, [r5], #-0
    69ec:	000008aa 	andeq	r0, r0, sl, lsr #17
    69f0:	0008c01e 	andeq	ip, r8, lr, lsl r0
    69f4:	046c1600 	strbteq	r1, [ip], #-1536	; 0xfffffa00
    69f8:	05000000 	streq	r0, [r0, #-0]
    69fc:	0008b504 	andeq	fp, r8, r4, lsl #10
    6a00:	8f040500 	svchi	0x00040500
    6a04:	1e000001 	cdpne	0, 0, cr0, cr0, cr1, {0}
    6a08:	000008d7 	ldrdeq	r0, [r0], -r7
    6a0c:	00002516 	andeq	r2, r0, r6, lsl r5
    6a10:	04050000 	streq	r0, [r5], #-0
    6a14:	000008dd 	ldrdeq	r0, [r0], -sp
    6a18:	08cc0405 	stmiaeq	ip, {r0, r2, sl}^
    6a1c:	4e0a0000 	cdpmi	0, 0, cr0, cr10, cr0, {0}
    6a20:	f3000006 	vhadd.u8	d0, d0, d6
    6a24:	0b000008 	bleq	6a4c <_start-0x15b4>
    6a28:	0000002c 	andeq	r0, r0, ip, lsr #32
    6a2c:	8e1f0002 	cdphi	0, 1, cr0, cr15, cr2, {0}
    6a30:	05000004 	streq	r0, [r0, #-4]
    6a34:	6c17032e 	ldcvs	3, cr0, [r7], {46}	; 0x2e
    6a38:	1f000004 	svcne	0x00000004
    6a3c:	00000487 	andeq	r0, r0, r7, lsl #9
    6a40:	1d032f05 	stcne	15, cr2, [r3, #-20]	; 0xffffffec
    6a44:	00000472 	andeq	r0, r0, r2, ror r4
    6a48:	00002515 	andeq	r2, r0, r5, lsl r5
    6a4c:	00091c00 	andeq	r1, r9, r0, lsl #24
    6a50:	00251600 	eoreq	r1, r5, r0, lsl #12
    6a54:	20000000 	andcs	r0, r0, r0
    6a58:	000001d1 	ldrdeq	r0, [r0], -r1
    6a5c:	280e1d06 	stmdacs	lr, {r1, r2, r8, sl, fp, ip}
    6a60:	05000009 	streq	r0, [r0, #-9]
    6a64:	00090d04 	andeq	r0, r9, r4, lsl #26
    6a68:	00251500 	eoreq	r1, r5, r0, lsl #10
    6a6c:	093d0000 	ldmdbeq	sp!, {}	; <UNPREDICTABLE>
    6a70:	e4160000 	ldr	r0, [r6], #-0
    6a74:	00000005 	andeq	r0, r0, r5
    6a78:	00077320 	andeq	r7, r7, r0, lsr #6
    6a7c:	0e220600 	cfmadda32eq	mvax0, mvax0, mvfx2, mvfx0
    6a80:	00000949 	andeq	r0, r0, r9, asr #18
    6a84:	092e0405 	stmdbeq	lr!, {r0, r2, sl}
    6a88:	11040000 	mrsne	r0, (UNDEF: 4)
    6a8c:	07000007 	streq	r0, [r0, -r7]
    6a90:	095b1b28 	ldmdbeq	fp, {r3, r5, r8, r9, fp, ip}^
    6a94:	fd210000 	stc2	0, cr0, [r1, #-0]
    6a98:	04000006 	streq	r0, [r0], #-6
    6a9c:	09720008 	ldmdbeq	r2!, {r3}^
    6aa0:	20220000 	eorcs	r0, r2, r0
    6aa4:	15000007 	strne	r0, [r0, #-7]
    6aa8:	00000001 	andeq	r0, r0, r1
    6aac:	06ff0400 	ldrbteq	r0, [pc], r0, lsl #8
    6ab0:	63070000 	movwvs	r0, #28672	; 0x7000
    6ab4:	00094f18 	andeq	r4, r9, r8, lsl pc
    6ab8:	07072300 	streq	r2, [r7, -r0, lsl #6]
    6abc:	7f010000 	svcvc	0x00010000
    6ac0:	00002505 	andeq	r2, r0, r5, lsl #10
    6ac4:	008ea800 	addeq	sl, lr, r0, lsl #16
    6ac8:	0002b000 	andeq	fp, r2, r0
    6acc:	0e9c0100 	fmleqe	f0, f4, f0
    6ad0:	2400000c 	strcs	r0, [r0], #-12
    6ad4:	00667562 	rsbeq	r7, r6, r2, ror #10
    6ad8:	17157f01 	ldrne	r7, [r5, -r1, lsl #30]
    6adc:	6c000001 	stcvs	0, cr0, [r0], {1}
    6ae0:	6600000b 	strvs	r0, [r0], -fp
    6ae4:	2400000b 	strcs	r0, [r0], #-11
    6ae8:	7f01006e 	svcvc	0x0001006e
    6aec:	0000251e 	andeq	r2, r0, lr, lsl r5
    6af0:	000b9e00 	andeq	r9, fp, r0, lsl #28
    6af4:	000b9800 	andeq	r9, fp, r0, lsl #16
    6af8:	6d662400 	cfstrdvs	mvd2, [r6, #-0]
    6afc:	7f010074 	svcvc	0x00010074
    6b00:	0005e42d 	andeq	lr, r5, sp, lsr #8
    6b04:	000bd000 	andeq	sp, fp, r0
    6b08:	000bcc00 	andeq	ip, fp, r0, lsl #24
    6b0c:	010a2500 	tsteq	sl, r0, lsl #10
    6b10:	7f010000 	svcvc	0x00010000
    6b14:	0009723a 	andeq	r7, r9, sl, lsr r2
    6b18:	dc910300 	ldcle	3, cr0, [r1], {0}
    6b1c:	0070267e 	rsbseq	r2, r0, lr, ror r6
    6b20:	17088001 	strne	r8, [r8, -r1]
    6b24:	02000001 	andeq	r0, r0, #1
    6b28:	ee00000c 	cdp	0, 0, cr0, cr0, cr12, {0}
    6b2c:	2600000b 	strcs	r0, [r0], -fp
    6b30:	80010065 	andhi	r0, r1, r5, rrx
    6b34:	00011712 	andeq	r1, r1, r2, lsl r7
    6b38:	000c8400 	andeq	r8, ip, r0, lsl #8
    6b3c:	000c8000 	andeq	r8, ip, r0
    6b40:	020e2700 	andeq	r2, lr, #0, 14
    6b44:	0c1e0000 	ldceq	0, cr0, [lr], {-0}
    6b48:	03050000 	movweq	r0, #20480	; 0x5000
    6b4c:	00009c24 	andeq	r9, r0, r4, lsr #24
    6b50:	008f0c28 	addeq	r0, pc, r8, lsr #24
    6b54:	00022400 	andeq	r2, r2, r0, lsl #8
    6b58:	00732600 	rsbseq	r2, r3, r0, lsl #12
    6b5c:	170a8d01 	strne	r8, [sl, -r1, lsl #26]
    6b60:	b5000001 	strlt	r0, [r0, #-1]
    6b64:	ab00000c 	blge	6b9c <_start-0x1464>
    6b68:	2900000c 	stmdbcs	r0, {r2, r3}
    6b6c:	006d756e 	rsbeq	r7, sp, lr, ror #10
    6b70:	230d8d01 	movwcs	r8, #56577	; 0xdd01
    6b74:	0300000c 	movweq	r0, #12
    6b78:	2a7ee091 	bcs	1fbedc4 <__bss_end__+0x1fb4c5c>
    6b7c:	000007df 	ldrdeq	r0, [r0], -pc	; <UNPREDICTABLE>
    6b80:	2c0d8e01 	stccs	14, cr8, [sp], {1}
    6b84:	fa000000 	blx	6b8c <_start-0x1474>
    6b88:	f400000c 	vst4.8	{d0-d3}, [r0], ip
    6b8c:	2b00000c 	blcs	6bc4 <_start-0x143c>
    6b90:	00008f34 	andeq	r8, r0, r4, lsr pc
    6b94:	00000eae 	andeq	r0, r0, lr, lsr #29
    6b98:	00000a68 	andeq	r0, r0, r8, ror #20
    6b9c:	0250012c 	subseq	r0, r0, #44, 2
    6ba0:	2d000075 	stccs	0, cr0, [r0, #-468]	; 0xfffffe2c
    6ba4:	00008fb4 			; <UNDEFINED> instruction: 0x00008fb4
    6ba8:	00000f7f 	andeq	r0, r0, pc, ror pc
    6bac:	008fc82b 	addeq	ip, pc, fp, lsr #16
    6bb0:	000f8b00 	andeq	r8, pc, r0, lsl #22
    6bb4:	000aa000 	andeq	sl, sl, r0
    6bb8:	50012c00 	andpl	r2, r1, r0, lsl #24
    6bbc:	9b900305 	blls	fe4077d8 <__bss_end__+0xfe3fd670>
    6bc0:	012c0000 			; <UNDEFINED> instruction: 0x012c0000
    6bc4:	2c030551 	cfstr32cs	mvfx0, [r3], {81}	; 0x51
    6bc8:	2c00009b 	stccs	0, cr0, [r0], {155}	; 0x9b
    6bcc:	03055201 	movweq	r5, #20993	; 0x5201
    6bd0:	00009c24 	andeq	r9, r0, r4, lsr #24
    6bd4:	0253012c 	subseq	r0, r3, #44, 2
    6bd8:	2d009408 	cfstrscs	mvf9, [r0, #-32]	; 0xffffffe0
    6bdc:	00008fcc 	andeq	r8, r0, ip, asr #31
    6be0:	00000f97 	muleq	r0, r7, pc	; <UNPREDICTABLE>
    6be4:	008fd02d 	addeq	sp, pc, sp, lsr #32
    6be8:	000f7f00 	andeq	r7, pc, r0, lsl #30
    6bec:	8fe42b00 	svchi	0x00e42b00
    6bf0:	0f8b0000 	svceq	0x008b0000
    6bf4:	0ae10000 	beq	ff846bfc <__bss_end__+0xff83ca94>
    6bf8:	012c0000 			; <UNDEFINED> instruction: 0x012c0000
    6bfc:	ac030550 	cfstr32ge	mvfx0, [r3], {80}	; 0x50
    6c00:	2c00009b 	stccs	0, cr0, [r0], {155}	; 0x9b
    6c04:	03055101 	movweq	r5, #20737	; 0x5101
    6c08:	00009b2c 	andeq	r9, r0, ip, lsr #22
    6c0c:	0552012c 	ldrbeq	r0, [r2, #-300]	; 0xfffffed4
    6c10:	009c2403 	addseq	r2, ip, r3, lsl #8
    6c14:	53012c00 	movwpl	r2, #7168	; 0x1c00
    6c18:	009a0802 	addseq	r0, sl, r2, lsl #16
    6c1c:	008fe82d 	addeq	lr, pc, sp, lsr #16
    6c20:	000f9700 	andeq	r9, pc, r0, lsl #14
    6c24:	90142b00 	andsls	r2, r4, r0, lsl #22
    6c28:	0c330000 	ldceq	0, cr0, [r3], #-0
    6c2c:	0b170000 	bleq	5c6c34 <__bss_end__+0x5bcacc>
    6c30:	012c0000 			; <UNDEFINED> instruction: 0x012c0000
    6c34:	2c3a0150 	ldfcss	f0, [sl], #-320	; 0xfffffec0
    6c38:	91035101 	tstls	r3, r1, lsl #2
    6c3c:	012c7ed8 	ldrdeq	r7, [ip, -r8]!
    6c40:	80080252 	andhi	r0, r8, r2, asr r2
    6c44:	007d022c 	rsbseq	r0, sp, ip, lsr #4
    6c48:	2c007602 	stccs	6, cr7, [r0], {2}
    6c4c:	01047d02 	tsteq	r4, r2, lsl #26
    6c50:	642b0031 	strtvs	r0, [fp], #-49	; 0xffffffcf
    6c54:	33000090 	movwcc	r0, #144	; 0x90
    6c58:	4400000c 	strmi	r0, [r0], #-12
    6c5c:	2c00000b 	stccs	0, cr0, [r0], {11}
    6c60:	3a015001 	bcc	5ac6c <__bss_end__+0x50b04>
    6c64:	0351012c 	cmpeq	r1, #44, 2
    6c68:	2c7ed891 	ldclcs	8, cr13, [lr], #-580	; 0xfffffdbc
    6c6c:	08025201 	stmdaeq	r2, {r0, r9, ip, lr}
    6c70:	7d022c80 	stcvc	12, cr2, [r2, #-512]	; 0xfffffe00
    6c74:	00760200 	rsbseq	r0, r6, r0, lsl #4
    6c78:	047d022c 	ldrbteq	r0, [sp], #-556	; 0xfffffdd4
    6c7c:	2b003001 	blcs	12c88 <__bss_end__+0x8b20>
    6c80:	00009094 	muleq	r0, r4, r0
    6c84:	00000c33 	andeq	r0, r0, r3, lsr ip
    6c88:	00000b71 	andeq	r0, r0, r1, ror fp
    6c8c:	0150012c 	cmpeq	r0, ip, lsr #2
    6c90:	51012c40 	tstpl	r1, r0, asr #24
    6c94:	7ed89103 	atnvce	f1, f3
    6c98:	0252012c 	subseq	r0, r2, #44, 2
    6c9c:	022c8008 	eoreq	r8, ip, #8
    6ca0:	7602007d 			; <UNDEFINED> instruction: 0x7602007d
    6ca4:	7d022c00 	stcvc	12, cr2, [r2, #-0]
    6ca8:	00300104 	eorseq	r0, r0, r4, lsl #2
    6cac:	0090c42b 	addseq	ip, r0, fp, lsr #8
    6cb0:	000c3300 	andeq	r3, ip, r0, lsl #6
    6cb4:	000b9e00 	andeq	r9, fp, r0, lsl #28
    6cb8:	50012c00 	andpl	r2, r1, r0, lsl #24
    6cbc:	012c3201 			; <UNDEFINED> instruction: 0x012c3201
    6cc0:	d8910351 	ldmle	r1, {r0, r4, r6, r8, r9}
    6cc4:	52012c7e 	andpl	r2, r1, #32256	; 0x7e00
    6cc8:	2c800802 	stccs	8, cr0, [r0], {2}
    6ccc:	02007d02 	andeq	r7, r0, #2, 26	; 0x80
    6cd0:	022c0076 	eoreq	r0, ip, #118	; 0x76
    6cd4:	3001047d 	andcc	r0, r1, sp, ror r4
    6cd8:	91082b00 	tstls	r8, r0, lsl #22
    6cdc:	0c330000 	ldceq	0, cr0, [r3], #-0
    6ce0:	0bcb0000 	bleq	ff2c6ce8 <__bss_end__+0xff2bcb80>
    6ce4:	012c0000 			; <UNDEFINED> instruction: 0x012c0000
    6ce8:	2c380150 	ldfcss	f0, [r8], #-320	; 0xfffffec0
    6cec:	91035101 	tstls	r3, r1, lsl #2
    6cf0:	012c7ed8 	ldrdeq	r7, [ip, -r8]!
    6cf4:	80080252 	andhi	r0, r8, r2, asr r2
    6cf8:	007d022c 	rsbseq	r0, sp, ip, lsr #4
    6cfc:	2c007602 	stccs	6, cr7, [r0], {2}
    6d00:	01047d02 	tsteq	r4, r2, lsl #26
    6d04:	102d0030 	eorne	r0, sp, r0, lsr r0
    6d08:	7f000091 	svcvc	0x00000091
    6d0c:	2b00000f 	blcs	6d50 <_start-0x12b0>
    6d10:	0000912c 	andeq	r9, r0, ip, lsr #2
    6d14:	00000f8b 	andeq	r0, r0, fp, lsl #31
    6d18:	00000c03 	andeq	r0, r0, r3, lsl #24
    6d1c:	0550012c 	ldrbeq	r0, [r0, #-300]	; 0xfffffed4
    6d20:	009bd403 	addseq	sp, fp, r3, lsl #8
    6d24:	51012c00 	tstpl	r1, r0, lsl #24
    6d28:	9b2c0305 	blls	b07944 <__bss_end__+0xafd7dc>
    6d2c:	012c0000 			; <UNDEFINED> instruction: 0x012c0000
    6d30:	24030552 	strcs	r0, [r3], #-1362	; 0xfffffaae
    6d34:	2c00009c 	stccs	0, cr0, [r0], {156}	; 0x9c
    6d38:	08025301 	stmdaeq	r2, {r0, r8, r9, ip, lr}
    6d3c:	302d00bb 	strhtcc	r0, [sp], -fp
    6d40:	97000091 			; <UNDEFINED> instruction: 0x97000091
    6d44:	0000000f 	andeq	r0, r0, pc
    6d48:	01240a00 			; <UNDEFINED> instruction: 0x01240a00
    6d4c:	0c1e0000 	ldceq	0, cr0, [lr], {-0}
    6d50:	2c0b0000 	stccs	0, cr0, [fp], {-0}
    6d54:	09000000 	stmdbeq	r0, {}	; <UNPREDICTABLE>
    6d58:	0c0e0f00 	stceq	15, cr0, [lr], {-0}
    6d5c:	1d0a0000 	stcne	0, cr0, [sl, #-0]
    6d60:	33000001 	movwcc	r0, #1
    6d64:	0b00000c 	bleq	6d9c <_start-0x1264>
    6d68:	0000002c 	andeq	r0, r0, ip, lsr #32
    6d6c:	032e007f 			; <UNDEFINED> instruction: 0x032e007f
    6d70:	01000008 	tsteq	r0, r8
    6d74:	01170e47 	tsteq	r7, r7, asr #28
    6d78:	8ca80000 	stchi	0, cr0, [r8]
    6d7c:	01ac0000 			; <UNDEFINED> instruction: 0x01ac0000
    6d80:	9c010000 	stcls	0, cr0, [r1], {-0}
    6d84:	00000d99 	muleq	r0, r9, sp
    6d88:	0000bc2f 	andeq	fp, r0, pc, lsr #24
    6d8c:	1c470100 	stfnee	f0, [r7], {-0}
    6d90:	0000002c 	andeq	r0, r0, ip, lsr #32
    6d94:	00000d2a 	andeq	r0, r0, sl, lsr #26
    6d98:	00000d24 	andeq	r0, r0, r4, lsr #26
    6d9c:	74736424 	ldrbtvc	r6, [r3], #-1060	; 0xfffffbdc
    6da0:	28470100 	stmdacs	r7, {r8}^
    6da4:	00000117 	andeq	r0, r0, r7, lsl r1
    6da8:	00000d68 	andeq	r0, r0, r8, ror #26
    6dac:	00000d58 	andeq	r0, r0, r8, asr sp
    6db0:	01006e24 	tsteq	r0, r4, lsr #28
    6db4:	00253147 	eoreq	r3, r5, r7, asr #2
    6db8:	0dcc0000 	stcleq	0, cr0, [ip]
    6dbc:	0dc80000 	stcleq	0, cr0, [r8]
    6dc0:	76240000 	strtvc	r0, [r4], -r0
    6dc4:	01006c61 	tsteq	r0, r1, ror #24
    6dc8:	00253847 	eoreq	r3, r5, r7, asr #16
    6dcc:	0df40000 	ldcleq	0, cr0, [r4]
    6dd0:	0dea0000 	stcleq	0, cr0, [sl]
    6dd4:	df2f0000 	svcle	0x002f0000
    6dd8:	01000007 	tsteq	r0, r7
    6ddc:	00254147 	eoreq	r4, r5, r7, asr #2
    6de0:	0e3f0000 	cdpeq	0, 3, cr0, cr15, cr0, {0}
    6de4:	0e390000 	cdpeq	0, 3, cr0, cr9, cr0, {0}
    6de8:	ce250000 	cdpgt	0, 2, cr0, cr5, cr0, {0}
    6dec:	01000007 	tsteq	r0, r7
    6df0:	00254c47 	eoreq	r4, r5, r7, asr #24
    6df4:	91020000 	mrsls	r0, (UNDEF: 2)
    6df8:	75622904 	strbvc	r2, [r2, #-2308]!	; 0xfffff6fc
    6dfc:	4c010066 	stcmi	0, cr0, [r1], {102}	; 0x66
    6e00:	000d9907 	andeq	r9, sp, r7, lsl #18
    6e04:	a8910300 	ldmge	r1, {r8, r9}
    6e08:	0070267f 	rsbseq	r2, r0, pc, ror r6
    6e0c:	17114c01 	ldrne	r4, [r1, -r1, lsl #24]
    6e10:	89000001 	stmdbhi	r0, {r0}
    6e14:	6900000e 	stmdbvs	r0, {r1, r2, r3}
    6e18:	2600000e 	strcs	r0, [r0], -lr
    6e1c:	4d010075 	stcmi	0, cr0, [r1, #-468]	; 0xfffffe2c
    6e20:	00002c0b 	andeq	r2, r0, fp, lsl #24
    6e24:	000f5e00 	andeq	r5, pc, r0, lsl #28
    6e28:	000f4c00 	andeq	r4, pc, r0, lsl #24
    6e2c:	020e2700 	andeq	r2, lr, #0, 14
    6e30:	0db90000 	ldceq	0, cr0, [r9]
    6e34:	03050000 	movweq	r0, #20480	; 0x5000
    6e38:	00009c0c 	andeq	r9, r0, ip, lsl #24
    6e3c:	008d1430 	addeq	r1, sp, r0, lsr r4
    6e40:	00007800 	andeq	r7, r0, r0, lsl #16
    6e44:	000d2300 	andeq	r2, sp, r0, lsl #6
    6e48:	07ed2a00 	strbeq	r2, [sp, r0, lsl #20]!
    6e4c:	52010000 	andpl	r0, r1, #0
    6e50:	00002c0d 	andeq	r2, r0, sp, lsl #24
    6e54:	000fd400 	andeq	sp, pc, r0, lsl #8
    6e58:	000fcc00 	andeq	ip, pc, r0, lsl #24
    6e5c:	cc2b0000 	stcgt	0, cr0, [fp], #-0
    6e60:	4b00008d 	blmi	709c <_start-0xf64>
    6e64:	3700000e 	strcc	r0, [r0, -lr]
    6e68:	2c00000d 	stccs	0, cr0, [r0], {13}
    6e6c:	7d025101 	stfvcs	f5, [r2, #-4]
    6e70:	e02b0000 	eor	r0, fp, r0
    6e74:	be00008d 	cdplt	0, 0, cr0, cr0, cr13, {4}
    6e78:	5700000d 	strpl	r0, [r0, -sp]
    6e7c:	2c00000d 	stccs	0, cr0, [r0], {13}
    6e80:	75025001 	strvc	r5, [r2, #-1]
    6e84:	51012c00 	tstpl	r1, r0, lsl #24
    6e88:	2c007402 	cfstrscs	mvf7, [r0], {2}
    6e8c:	7d025301 	stcvc	3, cr5, [r2, #-4]
    6e90:	202d0000 	eorcs	r0, sp, r0
    6e94:	7f00008e 	svcvc	0x0000008e
    6e98:	2b00000f 	blcs	6edc <_start-0x1124>
    6e9c:	00008e34 	andeq	r8, r0, r4, lsr lr
    6ea0:	00000f8b 	andeq	r0, r0, fp, lsl #31
    6ea4:	00000d8f 	andeq	r0, r0, pc, lsl #27
    6ea8:	0550012c 	ldrbeq	r0, [r0, #-300]	; 0xfffffed4
    6eac:	009b4003 	addseq	r4, fp, r3
    6eb0:	51012c00 	tstpl	r1, r0, lsl #24
    6eb4:	9b2c0305 	blls	b07ad0 <__bss_end__+0xafd968>
    6eb8:	012c0000 			; <UNDEFINED> instruction: 0x012c0000
    6ebc:	0c030552 	cfstr32eq	mvfx0, [r3], {82}	; 0x52
    6ec0:	2c00009c 	stccs	0, cr0, [r0], {156}	; 0x9c
    6ec4:	08025301 	stmdaeq	r2, {r0, r8, r9, ip, lr}
    6ec8:	382d0077 	stmdacc	sp!, {r0, r1, r2, r4, r5, r6}
    6ecc:	9700008e 	strls	r0, [r0, -lr, lsl #1]
    6ed0:	0000000f 	andeq	r0, r0, pc
    6ed4:	00011d0a 	andeq	r1, r1, sl, lsl #26
    6ed8:	000da900 	andeq	sl, sp, r0, lsl #18
    6edc:	002c0b00 	eoreq	r0, ip, r0, lsl #22
    6ee0:	003f0000 	eorseq	r0, pc, r0
    6ee4:	0001240a 	andeq	r2, r1, sl, lsl #8
    6ee8:	000db900 	andeq	fp, sp, r0, lsl #18
    6eec:	002c0b00 	eoreq	r0, ip, r0, lsl #22
    6ef0:	00040000 	andeq	r0, r4, r0
    6ef4:	000da90f 	andeq	sl, sp, pc, lsl #18
    6ef8:	07d72e00 	ldrbeq	r2, [r7, r0, lsl #28]
    6efc:	37010000 	strcc	r0, [r1, -r0]
    6f00:	0001170e 	andeq	r1, r1, lr, lsl #14
    6f04:	008c7000 	addeq	r7, ip, r0
    6f08:	00003800 	andeq	r3, r0, r0, lsl #16
    6f0c:	4b9c0100 	blmi	fe707314 <__bss_end__+0xfe6fd1ac>
    6f10:	2400000e 	strcs	r0, [r0], #-14
    6f14:	00747364 	rsbseq	r7, r4, r4, ror #6
    6f18:	171c3701 	ldrne	r3, [ip, -r1, lsl #14]
    6f1c:	15000001 	strne	r0, [r0, #-1]
    6f20:	0b000010 	bleq	6f68 <_start-0x1098>
    6f24:	24000010 	strcs	r0, [r0], #-16
    6f28:	3701006e 	strcc	r0, [r1, -lr, rrx]
    6f2c:	00002525 	andeq	r2, r0, r5, lsr #10
    6f30:	00105c00 	andseq	r5, r0, r0, lsl #24
    6f34:	00105800 	andseq	r5, r0, r0, lsl #16
    6f38:	00702400 	rsbseq	r2, r0, r0, lsl #8
    6f3c:	172e3701 	strne	r3, [lr, -r1, lsl #14]!
    6f40:	85000001 	strhi	r0, [r0, #-1]
    6f44:	7d000010 	stcvc	0, cr0, [r0, #-64]	; 0xffffffc0
    6f48:	2f000010 	svccs	0x00000010
    6f4c:	00000c3a 	andeq	r0, r0, sl, lsr ip
    6f50:	17373701 	ldrne	r3, [r7, -r1, lsl #14]!
    6f54:	bf000001 	svclt	0x00000001
    6f58:	bb000010 	bllt	6fa0 <_start-0x1060>
    6f5c:	26000010 			; <UNDEFINED> instruction: 0x26000010
    6f60:	006e656c 	rsbeq	r6, lr, ip, ror #10
    6f64:	25063901 	strcs	r3, [r6, #-2305]	; 0xfffff6ff
    6f68:	e5000000 	str	r0, [r0, #-0]
    6f6c:	dd000010 	stcle	0, cr0, [r0, #-64]	; 0xffffffc0
    6f70:	26000010 			; <UNDEFINED> instruction: 0x26000010
    6f74:	3d010073 	stccc	0, cr0, [r1, #-460]	; 0xfffffe34
    6f78:	00011708 	andeq	r1, r1, r8, lsl #14
    6f7c:	00113300 	andseq	r3, r1, r0, lsl #6
    6f80:	00113100 	andseq	r3, r1, r0, lsl #2
    6f84:	70310000 	eorsvc	r0, r1, r0
    6f88:	01006461 	tsteq	r0, r1, ror #8
    6f8c:	01170e2e 	tsteq	r7, lr, lsr #28
    6f90:	8c4c0000 	marhi	acc0, r0, ip
    6f94:	00240000 	eoreq	r0, r4, r0
    6f98:	9c010000 	stcls	0, cr0, [r1], {-0}
    6f9c:	00000eae 	andeq	r0, r0, lr, lsr #29
    6fa0:	01007024 	tsteq	r0, r4, lsr #32
    6fa4:	0117182e 	tsteq	r7, lr, lsr #16
    6fa8:	114c0000 	mrsne	r0, (UNDEF: 76)
    6fac:	11460000 	mrsne	r0, (UNDEF: 70)
    6fb0:	bc2f0000 	stclt	0, cr0, [pc], #-0	; 6fb8 <_start-0x1048>
    6fb4:	01000000 	mrseq	r0, (UNDEF: 0)
    6fb8:	0117222e 	tsteq	r7, lr, lsr #4
    6fbc:	117b0000 	cmnne	fp, r0
    6fc0:	11770000 	cmnne	r7, r0
    6fc4:	df250000 	svcle	0x00250000
    6fc8:	01000007 	tsteq	r0, r7
    6fcc:	00252c2e 	eoreq	r2, r5, lr, lsr #24
    6fd0:	52010000 	andpl	r0, r1, #0
    6fd4:	6e656c26 	cdpvs	12, 6, cr6, cr5, cr6, {1}
    6fd8:	062f0100 	strteq	r0, [pc], -r0, lsl #2
    6fdc:	00000025 	andeq	r0, r0, r5, lsr #32
    6fe0:	0000119e 	muleq	r0, lr, r1
    6fe4:	0000119c 	muleq	r0, ip, r1
    6fe8:	07fb2e00 	ldrbeq	r2, [fp, r0, lsl #28]!
    6fec:	27010000 	strcs	r0, [r1, -r0]
    6ff0:	0000250c 	andeq	r2, r0, ip, lsl #10
    6ff4:	008c3800 	addeq	r3, ip, r0, lsl #16
    6ff8:	00001400 	andeq	r1, r0, r0, lsl #8
    6ffc:	db9c0100 	blle	fe707404 <__bss_end__+0xfe6fd29c>
    7000:	2400000e 	strcs	r0, [r0], #-14
    7004:	27010063 	strcs	r0, [r1, -r3, rrx]
    7008:	00002518 	andeq	r2, r0, r8, lsl r5
    700c:	0011b700 	andseq	fp, r1, r0, lsl #14
    7010:	0011b100 	andseq	fp, r1, r0, lsl #2
    7014:	bf320000 	svclt	0x00320000
    7018:	01000007 	tsteq	r0, r7
    701c:	8e54061f 	mrchi	6, 2, r0, cr4, cr15, {0}
    7020:	00540000 	subseq	r0, r4, r0
    7024:	9c010000 	stcls	0, cr0, [r1], {-0}
    7028:	00000f6a 	andeq	r0, r0, sl, ror #30
    702c:	0007f32f 	andeq	pc, r7, pc, lsr #6
    7030:	1b1f0100 	blne	7c7438 <__bss_end__+0x7bd2d0>
    7034:	00000928 	andeq	r0, r0, r8, lsr #18
    7038:	000011e9 	andeq	r1, r0, r9, ror #3
    703c:	000011e5 	andeq	r1, r0, r5, ror #3
    7040:	0007e52f 	andeq	lr, r7, pc, lsr #10
    7044:	301f0100 	andscc	r0, pc, r0, lsl #2
    7048:	00000949 	andeq	r0, r0, r9, asr #18
    704c:	0000120e 	andeq	r1, r0, lr, lsl #4
    7050:	0000120a 	andeq	r1, r0, sl, lsl #4
    7054:	00020e27 	andeq	r0, r2, r7, lsr #28
    7058:	000f7a00 	andeq	r7, pc, r0, lsl #20
    705c:	14030500 	strne	r0, [r3], #-1280	; 0xfffffb00
    7060:	2d00009c 	stccs	0, cr0, [r0, #-624]	; 0xfffffd90
    7064:	00008e7c 	andeq	r8, r0, ip, ror lr
    7068:	00000f7f 	andeq	r0, r0, pc, ror pc
    706c:	008e902b 	addeq	r9, lr, fp, lsr #32
    7070:	000f8b00 	andeq	r8, pc, r0, lsl #22
    7074:	000f6000 	andeq	r6, pc, r0
    7078:	50012c00 	andpl	r2, r1, r0, lsl #24
    707c:	9b780305 	blls	1e07c98 <__bss_end__+0x1dfdb30>
    7080:	012c0000 			; <UNDEFINED> instruction: 0x012c0000
    7084:	2c030551 	cfstr32cs	mvfx0, [r3], {81}	; 0x51
    7088:	2c00009b 	stccs	0, cr0, [r0], {155}	; 0x9b
    708c:	03055201 	movweq	r5, #20993	; 0x5201
    7090:	00009c14 	andeq	r9, r0, r4, lsl ip
    7094:	0253012c 	subseq	r0, r3, #44, 2
    7098:	2d002008 	stccs	0, cr2, [r0, #-32]	; 0xffffffe0
    709c:	00008e94 	muleq	r0, r4, lr
    70a0:	00000f97 	muleq	r0, r7, pc	; <UNPREDICTABLE>
    70a4:	01240a00 			; <UNDEFINED> instruction: 0x01240a00
    70a8:	0f7a0000 	svceq	0x007a0000
    70ac:	2c0b0000 	stccs	0, cr0, [fp], {-0}
    70b0:	0e000000 	cdpeq	0, 0, cr0, cr0, cr0, {0}
    70b4:	0f6a0f00 	svceq	0x006a0f00
    70b8:	e9330000 	ldmdb	r3!, {}	; <UNPREDICTABLE>
    70bc:	e9000001 	stmdb	r0, {r0}
    70c0:	06000001 	streq	r0, [r0], -r1
    70c4:	0a33061e 	beq	cc8944 <__bss_end__+0xcbe7dc>
    70c8:	0a000007 	beq	70ec <_start-0xf14>
    70cc:	06000007 	streq	r0, [r0], -r7
    70d0:	8d330529 	cfldr32hi	mvfx0, [r3, #-164]!	; 0xffffff5c
    70d4:	8d000002 	stchi	0, cr0, [r0, #-8]
    70d8:	06000002 	streq	r0, [r0], -r2
    70dc:	ab000665 	blge	8a78 <fast_hash+0x68>
    70e0:	04000009 	streq	r0, [r0], #-9
    70e4:	00163400 	andseq	r3, r6, r0, lsl #8
    70e8:	fd010400 	stc2	4, cr0, [r1, #-0]
    70ec:	0c000002 	stceq	0, cr0, [r0], {2}
    70f0:	00000808 	andeq	r0, r0, r8, lsl #16
    70f4:	000006cc 	andeq	r0, r0, ip, asr #13
    70f8:	00009158 	andeq	r9, r0, r8, asr r1
    70fc:	00000028 	andeq	r0, r0, r8, lsr #32
    7100:	000015e0 	andeq	r1, r0, r0, ror #11
    7104:	69050402 	stmdbvs	r5, {r1, sl}
    7108:	0300746e 	movweq	r7, #1134	; 0x46e
    710c:	00660704 	rsbeq	r0, r6, r4, lsl #14
    7110:	01030000 	mrseq	r0, (UNDEF: 3)
    7114:	0002ec06 	andeq	lr, r2, r6, lsl #24
    7118:	05020300 	streq	r0, [r2, #-768]	; 0xfffffd00
    711c:	00000385 	andeq	r0, r0, r5, lsl #7
    7120:	ac050403 	cfstrsge	mvf0, [r5], {3}
    7124:	03000000 	movweq	r0, #0
    7128:	00a70508 	adceq	r0, r7, r8, lsl #10
    712c:	01030000 	mrseq	r0, (UNDEF: 3)
    7130:	0002ea08 	andeq	lr, r2, r8, lsl #20
    7134:	07020300 	streq	r0, [r2, -r0, lsl #6]
    7138:	00000222 	andeq	r0, r0, r2, lsr #4
    713c:	61070403 	tstvs	r7, r3, lsl #8
    7140:	03000000 	movweq	r0, #0
    7144:	005c0708 	subseq	r0, ip, r8, lsl #14
    7148:	65040000 	strvs	r0, [r4, #-0]
    714c:	02000002 	andeq	r0, r0, #2
    7150:	00771922 	rsbseq	r1, r7, r2, lsr #18
    7154:	04050000 	streq	r0, [r5], #-0
    7158:	0000007d 	andeq	r0, r0, sp, ror r0
    715c:	00042b06 	andeq	r2, r4, r6, lsl #22
    7160:	02cb0400 	sbceq	r0, fp, #0, 8
    7164:	2c030000 	stccs	0, cr0, [r3], {-0}
    7168:	0000410e 	andeq	r4, r0, lr, lsl #2
    716c:	04400400 	strbeq	r0, [r0], #-1024	; 0xfffffc00
    7170:	72030000 	andvc	r0, r3, #0
    7174:	0000410e 	andeq	r4, r0, lr, lsl #2
    7178:	026d0700 	rsbeq	r0, sp, #0, 14
    717c:	5e040000 	cdppl	0, 0, cr0, cr4, cr0, {0}
    7180:	002c1701 	eoreq	r1, ip, r1, lsl #14
    7184:	04080000 	streq	r0, [r8], #-0
    7188:	c903a603 	stmdbgt	r3, {r0, r1, r9, sl, sp, pc}
    718c:	09000000 	stmdbeq	r0, {}	; <UNPREDICTABLE>
    7190:	0000025f 	andeq	r0, r0, pc, asr r2
    7194:	9a0ca803 	bls	3311a8 <__bss_end__+0x327040>
    7198:	09000000 	stmdbeq	r0, {}	; <UNPREDICTABLE>
    719c:	000001e2 	andeq	r0, r0, r2, ror #3
    71a0:	c913a903 	ldmdbgt	r3, {r0, r1, r8, fp, sp, pc}
    71a4:	00000000 	andeq	r0, r0, r0
    71a8:	00004f0a 	andeq	r4, r0, sl, lsl #30
    71ac:	0000d900 	andeq	sp, r0, r0, lsl #18
    71b0:	002c0b00 	eoreq	r0, ip, r0, lsl #22
    71b4:	00030000 	andeq	r0, r3, r0
    71b8:	a303080c 	movwge	r0, #14348	; 0x380c
    71bc:	0000fd09 	andeq	pc, r0, r9, lsl #26
    71c0:	04230d00 	strteq	r0, [r3], #-3328	; 0xfffff300
    71c4:	a5030000 	strge	r0, [r3, #-0]
    71c8:	00002507 	andeq	r2, r0, r7, lsl #10
    71cc:	320d0000 	andcc	r0, sp, #0
    71d0:	03000004 	movweq	r0, #4
    71d4:	00a705aa 	adceq	r0, r7, sl, lsr #11
    71d8:	00040000 	andeq	r0, r4, r0
    71dc:	0003ad04 	andeq	sl, r3, r4, lsl #26
    71e0:	03ab0300 			; <UNDEFINED> instruction: 0x03ab0300
    71e4:	000000d9 	ldrdeq	r0, [r0], -r9
    71e8:	00019f04 	andeq	r9, r1, r4, lsl #30
    71ec:	1baf0300 	blne	febc7df4 <__bss_end__+0xfebbdc8c>
    71f0:	0000006b 	andeq	r0, r0, fp, rrx
    71f4:	0405040e 	streq	r0, [r5], #-1038	; 0xfffffbf2
    71f8:	0000011d 	andeq	r0, r0, sp, lsl r1
    71fc:	f3080103 	vrhadd.u8	d0, d8, d3
    7200:	0f000002 	svceq	0x00000002
    7204:	0000011d 	andeq	r0, r0, sp, lsl r1
    7208:	00047204 	andeq	r7, r4, r4, lsl #4
    720c:	19160500 	ldmdbne	r6, {r8, sl}
    7210:	0000005d 	andeq	r0, r0, sp, asr r0
    7214:	0001b010 	andeq	fp, r1, r0, lsl r0
    7218:	2f051800 	svccs	0x00051800
    721c:	00018f08 	andeq	r8, r1, r8, lsl #30
    7220:	03ce0d00 	biceq	r0, lr, #0, 26
    7224:	31050000 	mrscc	r0, (UNDEF: 5)
    7228:	00018f13 	andeq	r8, r1, r3, lsl pc
    722c:	5f110000 	svcpl	0x00110000
    7230:	3205006b 	andcc	r0, r5, #107	; 0x6b
    7234:	00002507 	andeq	r2, r0, r7, lsl #10
    7238:	0e0d0400 	cfcpyseq	mvf0, mvf13
    723c:	05000004 	streq	r0, [r0, #-4]
    7240:	00250b32 	eoreq	r0, r5, r2, lsr fp
    7244:	0d080000 	stceq	0, cr0, [r8, #-0]
    7248:	00000199 	muleq	r0, r9, r1
    724c:	25143205 	ldrcs	r3, [r4, #-517]	; 0xfffffdfb
    7250:	0c000000 	stceq	0, cr0, [r0], {-0}
    7254:	0004b20d 	andeq	fp, r4, sp, lsl #4
    7258:	1b320500 	blne	c88660 <__bss_end__+0xc7e4f8>
    725c:	00000025 	andeq	r0, r0, r5, lsr #32
    7260:	785f1110 	ldmdavc	pc, {r4, r8, ip}^	; <UNPREDICTABLE>
    7264:	0b330500 	bleq	cc866c <__bss_end__+0xcbe504>
    7268:	00000195 	muleq	r0, r5, r1
    726c:	04050014 	streq	r0, [r5], #-20	; 0xffffffec
    7270:	00000135 	andeq	r0, r0, r5, lsr r1
    7274:	0001290a 	andeq	r2, r1, sl, lsl #18
    7278:	0001a500 	andeq	sl, r1, r0, lsl #10
    727c:	002c0b00 	eoreq	r0, ip, r0, lsl #22
    7280:	00000000 	andeq	r0, r0, r0
    7284:	0001dd10 	andeq	sp, r1, r0, lsl sp
    7288:	37052400 	strcc	r2, [r5, -r0, lsl #8]
    728c:	00022808 	andeq	r2, r2, r8, lsl #16
    7290:	009e0d00 	addseq	r0, lr, r0, lsl #26
    7294:	39050000 	stmdbcc	r5, {}	; <UNPREDICTABLE>
    7298:	00002509 	andeq	r2, r0, r9, lsl #10
    729c:	480d0000 	stmdami	sp, {}	; <UNPREDICTABLE>
    72a0:	05000004 	streq	r0, [r0, #-4]
    72a4:	0025093a 	eoreq	r0, r5, sl, lsr r9
    72a8:	0d040000 	stceq	0, cr0, [r4, #-0]
    72ac:	000000c1 	andeq	r0, r0, r1, asr #1
    72b0:	25093b05 	strcs	r3, [r9, #-2821]	; 0xfffff4fb
    72b4:	08000000 	stmdaeq	r0, {}	; <UNPREDICTABLE>
    72b8:	0005330d 	andeq	r3, r5, sp, lsl #6
    72bc:	093c0500 	ldmdbeq	ip!, {r8, sl}
    72c0:	00000025 	andeq	r0, r0, r5, lsr #32
    72c4:	02af0d0c 	adceq	r0, pc, #12, 26	; 0x300
    72c8:	3d050000 	stccc	0, cr0, [r5, #-0]
    72cc:	00002509 	andeq	r2, r0, r9, lsl #10
    72d0:	830d1000 	movwhi	r1, #53248	; 0xd000
    72d4:	05000002 	streq	r0, [r0, #-2]
    72d8:	0025093e 	eoreq	r0, r5, lr, lsr r9
    72dc:	0d140000 	ldceq	0, cr0, [r4, #-0]
    72e0:	000004b7 			; <UNDEFINED> instruction: 0x000004b7
    72e4:	25093f05 	strcs	r3, [r9, #-3845]	; 0xfffff0fb
    72e8:	18000000 	stmdane	r0, {}	; <UNPREDICTABLE>
    72ec:	00038f0d 	andeq	r8, r3, sp, lsl #30
    72f0:	09400500 	stmdbeq	r0, {r8, sl}^
    72f4:	00000025 	andeq	r0, r0, r5, lsr #32
    72f8:	04fa0d1c 	ldrbteq	r0, [sl], #3356	; 0xd1c
    72fc:	41050000 	mrsmi	r0, (UNDEF: 5)
    7300:	00002509 	andeq	r2, r0, r9, lsl #10
    7304:	12002000 	andne	r2, r0, #0
    7308:	00000101 	andeq	r0, r0, r1, lsl #2
    730c:	4a050108 	bmi	147734 <__bss_end__+0x13d5cc>
    7310:	00026d08 	andeq	r6, r2, r8, lsl #26
    7314:	018c0d00 	orreq	r0, ip, r0, lsl #26
    7318:	4b050000 	blmi	147320 <__bss_end__+0x13d1b8>
    731c:	00026d0a 	andeq	r6, r2, sl, lsl #26
    7320:	000d0000 	andeq	r0, sp, r0
    7324:	05000000 	streq	r0, [r0, #-0]
    7328:	026d094c 	rsbeq	r0, sp, #76, 18	; 0x130000
    732c:	13800000 	orrne	r0, r0, #0
    7330:	00000464 	andeq	r0, r0, r4, ror #8
    7334:	290a4e05 	stmdbcs	sl, {r0, r2, r9, sl, fp, lr}
    7338:	00000001 	andeq	r0, r0, r1
    733c:	01261301 			; <UNDEFINED> instruction: 0x01261301
    7340:	51050000 	mrspl	r0, (UNDEF: 5)
    7344:	0001290a 	andeq	r2, r1, sl, lsl #18
    7348:	00010400 	andeq	r0, r1, r0, lsl #8
    734c:	0001150a 	andeq	r1, r1, sl, lsl #10
    7350:	00027d00 	andeq	r7, r2, r0, lsl #26
    7354:	002c0b00 	eoreq	r0, ip, r0, lsl #22
    7358:	001f0000 	andseq	r0, pc, r0
    735c:	0002b812 	andeq	fp, r2, r2, lsl r8
    7360:	05019000 	streq	r9, [r1, #-0]
    7364:	02c0085d 	sbceq	r0, r0, #6094848	; 0x5d0000
    7368:	ce0d0000 	cdpgt	0, 0, cr0, cr13, cr0, {0}
    736c:	05000003 	streq	r0, [r0, #-3]
    7370:	02c0125e 	sbceq	r1, r0, #-536870907	; 0xe0000005
    7374:	0d000000 	stceq	0, cr0, [r0, #-0]
    7378:	000003e6 	andeq	r0, r0, r6, ror #7
    737c:	25065f05 	strcs	r5, [r6, #-3845]	; 0xfffff0fb
    7380:	04000000 	streq	r0, [r0], #-0
    7384:	0001940d 	andeq	r9, r1, sp, lsl #8
    7388:	09610500 	stmdbeq	r1!, {r8, sl}^
    738c:	000002c6 	andeq	r0, r0, r6, asr #5
    7390:	01010d08 	tsteq	r1, r8, lsl #26
    7394:	62050000 	andvs	r0, r5, #0
    7398:	0002281e 	andeq	r2, r2, lr, lsl r8
    739c:	05008800 	streq	r8, [r0, #-2048]	; 0xfffff800
    73a0:	00027d04 	andeq	r7, r2, r4, lsl #26
    73a4:	02d60a00 	sbcseq	r0, r6, #0, 20
    73a8:	02d60000 	sbcseq	r0, r6, #0
    73ac:	2c0b0000 	stccs	0, cr0, [fp], {-0}
    73b0:	1f000000 	svcne	0x00000000
    73b4:	dc040500 	cfstr32le	mvfx0, [r4], {-0}
    73b8:	14000002 	strne	r0, [r0], #-2
    73bc:	00039910 	andeq	r9, r3, r0, lsl r9
    73c0:	75050800 	strvc	r0, [r5, #-2048]	; 0xfffff800
    73c4:	00030508 	andeq	r0, r3, r8, lsl #10
    73c8:	00bb0d00 	adcseq	r0, fp, r0, lsl #26
    73cc:	76050000 	strvc	r0, [r5], -r0
    73d0:	00030511 	andeq	r0, r3, r1, lsl r5
    73d4:	1b0d0000 	blne	3473dc <__bss_end__+0x33d274>
    73d8:	05000000 	streq	r0, [r0, #-0]
    73dc:	00250677 	eoreq	r0, r5, r7, ror r6
    73e0:	00040000 	andeq	r0, r4, r0
    73e4:	004f0405 	subeq	r0, pc, r5, lsl #8
    73e8:	b8100000 	ldmdalt	r0, {}	; <UNPREDICTABLE>
    73ec:	68000003 	stmdavs	r0, {r0, r1}
    73f0:	4e08b505 	cfsh32mi	mvfx11, mvfx8, #5
    73f4:	11000004 	tstne	r0, r4
    73f8:	0500705f 	streq	r7, [r0, #-95]	; 0xffffffa1
    73fc:	030512b6 	movweq	r1, #21174	; 0x52b6
    7400:	11000000 	mrsne	r0, (UNDEF: 0)
    7404:	0500725f 	streq	r7, [r0, #-607]	; 0xfffffda1
    7408:	002507b7 	strhteq	r0, [r5], -r7
    740c:	11040000 	mrsne	r0, (UNDEF: 4)
    7410:	0500775f 	streq	r7, [r0, #-1887]	; 0xfffff8a1
    7414:	002507b8 	strhteq	r0, [r5], -r8
    7418:	0d080000 	stceq	0, cr0, [r8, #-0]
    741c:	0000011f 	andeq	r0, r0, pc, lsl r1
    7420:	3a09b905 	bcc	27583c <__bss_end__+0x26b6d4>
    7424:	0c000000 	stceq	0, cr0, [r0], {-0}
    7428:	0002080d 	andeq	r0, r2, sp, lsl #16
    742c:	09ba0500 	ldmibeq	sl!, {r8, sl}
    7430:	0000003a 	andeq	r0, r0, sl, lsr r0
    7434:	625f110e 	subsvs	r1, pc, #-2147483645	; 0x80000003
    7438:	bb050066 	bllt	1475d8 <__bss_end__+0x13d470>
    743c:	0002dd11 	andeq	sp, r2, r1, lsl sp
    7440:	7b0d1000 	blvc	34b448 <__bss_end__+0x3412e0>
    7444:	05000000 	streq	r0, [r0, #-0]
    7448:	002507bc 	strhteq	r0, [r5], -ip
    744c:	0d180000 	ldceq	0, cr0, [r8, #-0]
    7450:	0000010f 	andeq	r0, r0, pc, lsl #2
    7454:	150ac305 	strne	ip, [sl, #-773]	; 0xfffffcfb
    7458:	1c000001 	stcne	0, cr0, [r0], {1}
    745c:	000b590d 	andeq	r5, fp, sp, lsl #18
    7460:	1dc50500 	cfstr64ne	mvdx0, [r5]
    7464:	000005c0 	andeq	r0, r0, r0, asr #11
    7468:	061d0d20 	ldreq	r0, [sp], -r0, lsr #26
    746c:	c7050000 	strgt	r0, [r5, -r0]
    7470:	0005ea1d 	andeq	lr, r5, sp, lsl sl
    7474:	3a0d2400 	bcc	35047c <__bss_end__+0x346314>
    7478:	05000004 	streq	r0, [r0, #-4]
    747c:	060e0dca 	streq	r0, [lr], -sl, asr #27
    7480:	0d280000 	stceq	0, cr0, [r8, #-0]
    7484:	00000514 	andeq	r0, r0, r4, lsl r5
    7488:	2809cb05 	stmdacs	r9, {r0, r2, r8, r9, fp, lr, pc}
    748c:	2c000006 	stccs	0, cr0, [r0], {6}
    7490:	62755f11 	rsbsvs	r5, r5, #17, 30	; 0x44
    7494:	11ce0500 	bicne	r0, lr, r0, lsl #10
    7498:	000002dd 	ldrdeq	r0, [r0], -sp
    749c:	755f1130 	ldrbvc	r1, [pc, #-304]	; 7374 <_start-0xc8c>
    74a0:	cf050070 	svcgt	0x00050070
    74a4:	00030512 	andeq	r0, r3, r2, lsl r5
    74a8:	5f113800 	svcpl	0x00113800
    74ac:	05007275 	streq	r7, [r0, #-629]	; 0xfffffd8b
    74b0:	002507d0 	ldrdeq	r0, [r5], -r0	; <UNPREDICTABLE>
    74b4:	0d3c0000 	ldceq	0, cr0, [ip, #-0]
    74b8:	000000b5 	strheq	r0, [r0], -r5
    74bc:	2e11d305 	cdpcs	3, 1, cr13, cr1, cr5, {0}
    74c0:	40000006 	andmi	r0, r0, r6
    74c4:	0004ec0d 	andeq	lr, r4, sp, lsl #24
    74c8:	11d40500 	bicsne	r0, r4, r0, lsl #10
    74cc:	0000063e 	andeq	r0, r0, lr, lsr r6
    74d0:	6c5f1143 	ldfvse	f1, [pc], {67}	; 0x43
    74d4:	d7050062 	strle	r0, [r5, -r2, rrx]
    74d8:	0002dd11 	andeq	sp, r2, r1, lsl sp
    74dc:	3d0d4400 	cfstrscc	mvf4, [sp, #-0]
    74e0:	05000001 	streq	r0, [r0, #-1]
    74e4:	002507da 	ldrdeq	r0, [r5], -sl	; <UNPREDICTABLE>
    74e8:	0d4c0000 	stcleq	0, cr0, [ip, #-0]
    74ec:	0000014e 	andeq	r0, r0, lr, asr #2
    74f0:	820adb05 	andhi	sp, sl, #5120	; 0x1400
    74f4:	50000000 	andpl	r0, r0, r0
    74f8:	000afa0d 	andeq	pc, sl, sp, lsl #20
    74fc:	12de0500 	sbcsne	r0, lr, #0, 10
    7500:	0000046c 	andeq	r0, r0, ip, ror #8
    7504:	042c0d54 	strteq	r0, [ip], #-3412	; 0xfffff2ac
    7508:	e2050000 	and	r0, r5, #0
    750c:	0001090c 	andeq	r0, r1, ip, lsl #18
    7510:	c00d5800 	andgt	r5, sp, r0, lsl #16
    7514:	05000003 	streq	r0, [r0, #-3]
    7518:	00fd0ee4 	rscseq	r0, sp, r4, ror #29
    751c:	0d5c0000 	ldcleq	0, cr0, [ip, #-0]
    7520:	0000027b 	andeq	r0, r0, fp, ror r2
    7524:	2509e505 	strcs	lr, [r9, #-1285]	; 0xfffffafb
    7528:	64000000 	strvs	r0, [r0], #-0
    752c:	00251500 	eoreq	r1, r5, r0, lsl #10
    7530:	046c0000 	strbteq	r0, [ip], #-0
    7534:	6c160000 	ldcvs	0, cr0, [r6], {-0}
    7538:	16000004 	strne	r0, [r0], -r4
    753c:	00000115 	andeq	r0, r0, r5, lsl r1
    7540:	00011716 	andeq	r1, r1, r6, lsl r7
    7544:	00251600 	eoreq	r1, r5, r0, lsl #12
    7548:	05000000 	streq	r0, [r0, #-0]
    754c:	00047704 	andeq	r7, r4, r4, lsl #14
    7550:	046c0f00 	strbteq	r0, [ip], #-3840	; 0xfffff100
    7554:	16170000 	ldrne	r0, [r7], -r0
    7558:	28000004 	stmdacs	r0, {r2}
    755c:	02600504 	rsbeq	r0, r0, #4, 10	; 0x1000000
    7560:	0005c008 	andeq	ip, r5, r8
    7564:	037e1800 	cmneq	lr, #0, 16
    7568:	62050000 	andvs	r0, r5, #0
    756c:	00250702 	eoreq	r0, r5, r2, lsl #14
    7570:	18000000 	stmdane	r0, {}	; <UNPREDICTABLE>
    7574:	0000012e 	andeq	r0, r0, lr, lsr #2
    7578:	0b026705 	bleq	a1194 <__bss_end__+0x9702c>
    757c:	0000069a 	muleq	r0, sl, r6
    7580:	01f81804 	mvnseq	r1, r4, lsl #16
    7584:	67050000 	strvs	r0, [r5, -r0]
    7588:	069a1402 	ldreq	r1, [sl], r2, lsl #8
    758c:	18080000 	stmdane	r8, {}	; <UNPREDICTABLE>
    7590:	000001a8 	andeq	r0, r0, r8, lsr #3
    7594:	1e026705 	cdpne	7, 0, cr6, cr2, cr5, {0}
    7598:	0000069a 	muleq	r0, sl, r6
    759c:	03e1180c 	mvneq	r1, #12, 16	; 0xc0000
    75a0:	69050000 	stmdbvs	r5, {}	; <UNPREDICTABLE>
    75a4:	00250802 	eoreq	r0, r5, r2, lsl #16
    75a8:	18100000 	ldmdane	r0, {}	; <UNPREDICTABLE>
    75ac:	00000029 	andeq	r0, r0, r9, lsr #32
    75b0:	08026a05 	stmdaeq	r2, {r0, r2, r9, fp, sp, lr}
    75b4:	0000089a 	muleq	r0, sl, r8
    75b8:	03f51814 	mvnseq	r1, #20, 16	; 0x140000
    75bc:	6d050000 	stcvs	0, cr0, [r5, #-0]
    75c0:	00250702 	eoreq	r0, r5, r2, lsl #14
    75c4:	18300000 	ldmdane	r0!, {}	; <UNPREDICTABLE>
    75c8:	00000a36 	andeq	r0, r0, r6, lsr sl
    75cc:	16026e05 	strne	r6, [r2], -r5, lsl #28
    75d0:	000008af 	andeq	r0, r0, pc, lsr #17
    75d4:	02c01834 	sbceq	r1, r0, #52, 16	; 0x340000
    75d8:	70050000 	andvc	r0, r5, r0
    75dc:	00250702 	eoreq	r0, r5, r2, lsl #14
    75e0:	18380000 	ldmdane	r8!, {}	; <UNPREDICTABLE>
    75e4:	000003eb 	andeq	r0, r0, fp, ror #7
    75e8:	0a027205 	beq	a3e04 <__bss_end__+0x99c9c>
    75ec:	000008c0 	andeq	r0, r0, r0, asr #17
    75f0:	0257183c 	subseq	r1, r7, #60, 16	; 0x3c0000
    75f4:	75050000 	strvc	r0, [r5, #-0]
    75f8:	018f1302 	orreq	r1, pc, r2, lsl #6
    75fc:	18400000 	stmdane	r0, {}^	; <UNPREDICTABLE>
    7600:	000001c7 	andeq	r0, r0, r7, asr #3
    7604:	07027605 	streq	r7, [r2, -r5, lsl #12]
    7608:	00000025 	andeq	r0, r0, r5, lsr #32
    760c:	052e1844 	streq	r1, [lr, #-2116]!	; 0xfffff7bc
    7610:	77050000 	strvc	r0, [r5, -r0]
    7614:	018f1302 	orreq	r1, pc, r2, lsl #6
    7618:	18480000 	stmdane	r8, {}^	; <UNPREDICTABLE>
    761c:	000002d2 	ldrdeq	r0, [r0], -r2
    7620:	14027805 	strne	r7, [r2], #-2053	; 0xfffff7fb
    7624:	000008c6 	andeq	r0, r0, r6, asr #17
    7628:	0200184c 	andeq	r1, r0, #76, 16	; 0x4c0000
    762c:	7b050000 	blvc	147634 <__bss_end__+0x13d4cc>
    7630:	00250702 	eoreq	r0, r5, r2, lsl #14
    7634:	18500000 	ldmdane	r0, {}^	; <UNPREDICTABLE>
    7638:	00000146 	andeq	r0, r0, r6, asr #2
    763c:	09027c05 	stmdbeq	r2, {r0, r2, sl, fp, ip, sp, lr}
    7640:	00000117 	andeq	r0, r0, r7, lsl r1
    7644:	02f81854 	rscseq	r1, r8, #84, 16	; 0x540000
    7648:	9f050000 	svcls	0x00050000
    764c:	08750702 	ldmdaeq	r5!, {r1, r8, r9, sl}^
    7650:	19580000 	ldmdbne	r8, {}^	; <UNPREDICTABLE>
    7654:	000002b8 			; <UNDEFINED> instruction: 0x000002b8
    7658:	1302a305 	movwne	sl, #8965	; 0x2305
    765c:	000002c0 	andeq	r0, r0, r0, asr #5
    7660:	35190148 	ldrcc	r0, [r9, #-328]	; 0xfffffeb8
    7664:	05000002 	streq	r0, [r0, #-2]
    7668:	7d1202a4 	lfmvc	f0, 4, [r2, #-656]	; 0xfffffd70
    766c:	4c000002 	stcmi	0, cr0, [r0], {2}
    7670:	04da1901 	ldrbeq	r1, [sl], #2305	; 0x901
    7674:	a8050000 	stmdage	r5, {}	; <UNPREDICTABLE>
    7678:	08d70c02 	ldmeq	r7, {r1, sl, fp}^
    767c:	02dc0000 	sbcseq	r0, ip, #0
    7680:	00011719 	andeq	r1, r1, r9, lsl r7
    7684:	02ad0500 	adceq	r0, sp, #0, 10
    7688:	00065b10 	andeq	r5, r6, r0, lsl fp
    768c:	1902e000 	stmdbne	r2, {sp, lr, pc}
    7690:	000000fc 	strdeq	r0, [r0], -ip
    7694:	0a02af05 	beq	b32b0 <__bss_end__+0xa9148>
    7698:	000008e3 	andeq	r0, r0, r3, ror #17
    769c:	050002ec 	streq	r0, [r0, #-748]	; 0xfffffd14
    76a0:	00044e04 	andeq	r4, r4, r4, lsl #28
    76a4:	00251500 	eoreq	r1, r5, r0, lsl #10
    76a8:	05e40000 	strbeq	r0, [r4, #0]!
    76ac:	6c160000 	ldcvs	0, cr0, [r6], {-0}
    76b0:	16000004 	strne	r0, [r0], -r4
    76b4:	00000115 	andeq	r0, r0, r5, lsl r1
    76b8:	0005e416 	andeq	lr, r5, r6, lsl r4
    76bc:	00251600 	eoreq	r1, r5, r0, lsl #12
    76c0:	05000000 	streq	r0, [r0, #-0]
    76c4:	00012404 	andeq	r2, r1, r4, lsl #8
    76c8:	c6040500 	strgt	r0, [r4], -r0, lsl #10
    76cc:	15000005 	strne	r0, [r0, #-5]
    76d0:	0000008e 	andeq	r0, r0, lr, lsl #1
    76d4:	0000060e 	andeq	r0, r0, lr, lsl #12
    76d8:	00046c16 	andeq	r6, r4, r6, lsl ip
    76dc:	01151600 	tsteq	r5, r0, lsl #12
    76e0:	8e160000 	cdphi	0, 1, cr0, cr6, cr0, {0}
    76e4:	16000000 	strne	r0, [r0], -r0
    76e8:	00000025 	andeq	r0, r0, r5, lsr #32
    76ec:	f0040500 			; <UNDEFINED> instruction: 0xf0040500
    76f0:	15000005 	strne	r0, [r0, #-5]
    76f4:	00000025 	andeq	r0, r0, r5, lsr #32
    76f8:	00000628 	andeq	r0, r0, r8, lsr #12
    76fc:	00046c16 	andeq	r6, r4, r6, lsl ip
    7700:	01151600 	tsteq	r5, r0, lsl #12
    7704:	05000000 	streq	r0, [r0, #-0]
    7708:	00061404 	andeq	r1, r6, r4, lsl #8
    770c:	004f0a00 	subeq	r0, pc, r0, lsl #20
    7710:	063e0000 	ldrteq	r0, [lr], -r0
    7714:	2c0b0000 	stccs	0, cr0, [fp], {-0}
    7718:	02000000 	andeq	r0, r0, #0
    771c:	004f0a00 	subeq	r0, pc, r0, lsl #20
    7720:	064e0000 	strbeq	r0, [lr], -r0
    7724:	2c0b0000 	stccs	0, cr0, [fp], {-0}
    7728:	00000000 	andeq	r0, r0, r0
    772c:	03a60700 			; <UNDEFINED> instruction: 0x03a60700
    7730:	1f050000 	svcne	0x00050000
    7734:	030b1a01 	movweq	r1, #47617	; 0xba01
    7738:	c11a0000 	tstgt	sl, r0
    773c:	0c000004 	stceq	0, cr0, [r0], {4}
    7740:	08012305 	stmdaeq	r1, {r0, r2, r8, r9, sp}
    7744:	00000694 	muleq	r0, r4, r6
    7748:	0003ce18 	andeq	ip, r3, r8, lsl lr
    774c:	01250500 			; <UNDEFINED> instruction: 0x01250500
    7750:	00069411 	andeq	r9, r6, r1, lsl r4
    7754:	1b180000 	blne	60775c <__bss_end__+0x5fd5f4>
    7758:	05000002 	streq	r0, [r0, #-2]
    775c:	25070126 	strcs	r0, [r7, #-294]	; 0xfffffeda
    7760:	04000000 	streq	r0, [r0], #-0
    7764:	0003a018 	andeq	sl, r3, r8, lsl r0
    7768:	01270500 			; <UNDEFINED> instruction: 0x01270500
    776c:	00069a0b 	andeq	r9, r6, fp, lsl #20
    7770:	05000800 	streq	r0, [r0, #-2048]	; 0xfffff800
    7774:	00065b04 	andeq	r5, r6, r4, lsl #22
    7778:	4e040500 	cfsh32mi	mvfx0, mvfx4, #0
    777c:	1a000006 	bne	779c <_start-0x864>
    7780:	00000021 	andeq	r0, r0, r1, lsr #32
    7784:	013f050e 	teqeq	pc, lr, lsl #10
    7788:	0006d908 	andeq	sp, r6, r8, lsl #18
    778c:	041d1800 	ldreq	r1, [sp], #-2048	; 0xfffff800
    7790:	40050000 	andmi	r0, r5, r0
    7794:	06d91201 	ldrbeq	r1, [r9], r1, lsl #4
    7798:	18000000 	stmdane	r0, {}	; <UNPREDICTABLE>
    779c:	00000451 	andeq	r0, r0, r1, asr r4
    77a0:	12014105 	andne	r4, r1, #1073741825	; 0x40000001
    77a4:	000006d9 	ldrdeq	r0, [r0], -r9
    77a8:	046d1806 	strbteq	r1, [sp], #-2054	; 0xfffff7fa
    77ac:	42050000 	andmi	r0, r5, #0
    77b0:	00561201 	subseq	r1, r6, r1, lsl #4
    77b4:	000c0000 	andeq	r0, ip, r0
    77b8:	0000560a 	andeq	r5, r0, sl, lsl #12
    77bc:	0006e900 	andeq	lr, r6, r0, lsl #18
    77c0:	002c0b00 	eoreq	r0, ip, r0, lsl #22
    77c4:	00020000 	andeq	r0, r2, r0
    77c8:	8005d01b 	andhi	sp, r5, fp, lsl r0
    77cc:	07fe0702 	ldrbeq	r0, [lr, r2, lsl #14]!
    77d0:	a5180000 	ldrge	r0, [r8, #-0]
    77d4:	05000004 	streq	r0, [r0, #-4]
    77d8:	2c180282 	lfmcs	f0, 4, [r8], {130}	; 0x82
    77dc:	00000000 	andeq	r0, r0, r0
    77e0:	00045718 	andeq	r5, r4, r8, lsl r7
    77e4:	02830500 	addeq	r0, r3, #0, 10
    77e8:	00011712 	andeq	r1, r1, r2, lsl r7
    77ec:	4a180400 	bmi	6087f4 <__bss_end__+0x5fe68c>
    77f0:	05000002 	streq	r0, [r0, #-2]
    77f4:	fe100284 	cdp2	2, 1, cr0, cr0, cr4, {4}
    77f8:	08000007 	stmdaeq	r0, {r0, r1, r2}
    77fc:	00050518 	andeq	r0, r5, r8, lsl r5
    7800:	02850500 	addeq	r0, r5, #0, 10
    7804:	0001a517 	andeq	sl, r1, r7, lsl r5
    7808:	b8182400 	ldmdalt	r8, {sl, sp}
    780c:	05000001 	streq	r0, [r0, #-1]
    7810:	250f0286 	strcs	r0, [pc, #-646]	; 7592 <_start-0xa6e>
    7814:	48000000 	stmdami	r0, {}	; <UNPREDICTABLE>
    7818:	0003c918 	andeq	ip, r3, r8, lsl r9
    781c:	02870500 	addeq	r0, r7, #0, 10
    7820:	0000642c 	andeq	r6, r0, ip, lsr #8
    7824:	1b185000 	blne	61b82c <__bss_end__+0x6116c4>
    7828:	05000005 	streq	r0, [r0, #-5]
    782c:	a01a0288 	andsge	r0, sl, r8, lsl #5
    7830:	58000006 	stmdapl	r0, {r1, r2}
    7834:	0003d418 	andeq	sp, r3, r8, lsl r4
    7838:	02890500 	addeq	r0, r9, #0, 10
    783c:	0000fd16 	andeq	pc, r0, r6, lsl sp	; <UNPREDICTABLE>
    7840:	20186800 	andscs	r6, r8, r0, lsl #16
    7844:	05000005 	streq	r0, [r0, #-5]
    7848:	fd16028a 	ldc2	2, cr0, [r6, #-552]	; 0xfffffdd8
    784c:	70000000 	andvc	r0, r0, r0
    7850:	0002dc18 	andeq	sp, r2, r8, lsl ip
    7854:	028b0500 	addeq	r0, fp, #0, 10
    7858:	0000fd16 	andeq	pc, r0, r6, lsl sp	; <UNPREDICTABLE>
    785c:	d0187800 	andsle	r7, r8, r0, lsl #16
    7860:	05000004 	streq	r0, [r0, #-4]
    7864:	0e10028c 	cdpeq	2, 1, cr0, cr0, cr12, {4}
    7868:	80000008 	andhi	r0, r0, r8
    786c:	00023e18 	andeq	r3, r2, r8, lsl lr
    7870:	028d0500 	addeq	r0, sp, #0, 10
    7874:	00081e10 	andeq	r1, r8, r0, lsl lr
    7878:	7a188800 	bvc	629880 <__bss_end__+0x61f718>
    787c:	05000004 	streq	r0, [r0, #-4]
    7880:	250f028e 	strcs	r0, [pc, #-654]	; 75fa <_start-0xa06>
    7884:	a0000000 	andge	r0, r0, r0
    7888:	00017e18 	andeq	r7, r1, r8, lsl lr
    788c:	028f0500 	addeq	r0, pc, #0, 10
    7890:	0000fd16 	andeq	pc, r0, r6, lsl sp	; <UNPREDICTABLE>
    7894:	8f18a400 	svchi	0x0018a400
    7898:	05000000 	streq	r0, [r0, #-0]
    789c:	fd160290 	ldc2	2, cr0, [r6, #-576]	; 0xfffffdc0
    78a0:	ac000000 	stcge	0, cr0, [r0], {-0}
    78a4:	00016d18 	andeq	r6, r1, r8, lsl sp
    78a8:	02910500 	addseq	r0, r1, #0, 10
    78ac:	0000fd16 	andeq	pc, r0, r6, lsl sp	; <UNPREDICTABLE>
    78b0:	3c18b400 	cfldrscc	mvf11, [r8], {-0}
    78b4:	05000000 	streq	r0, [r0, #-0]
    78b8:	fd160292 	ldc2	2, cr0, [r6, #-584]	; 0xfffffdb8
    78bc:	bc000000 	stclt	0, cr0, [r0], {-0}
    78c0:	00004b18 	andeq	r4, r0, r8, lsl fp
    78c4:	02930500 	addseq	r0, r3, #0, 10
    78c8:	0000fd16 	andeq	pc, r0, r6, lsl sp	; <UNPREDICTABLE>
    78cc:	7c18c400 	cfldrsvc	mvf12, [r8], {-0}
    78d0:	05000003 	streq	r0, [r0, #-3]
    78d4:	25080294 	strcs	r0, [r8, #-660]	; 0xfffffd6c
    78d8:	cc000000 	stcgt	0, cr0, [r0], {-0}
    78dc:	011d0a00 	tsteq	sp, r0, lsl #20
    78e0:	080e0000 	stmdaeq	lr, {}	; <UNPREDICTABLE>
    78e4:	2c0b0000 	stccs	0, cr0, [fp], {-0}
    78e8:	19000000 	stmdbne	r0, {}	; <UNPREDICTABLE>
    78ec:	011d0a00 	tsteq	sp, r0, lsl #20
    78f0:	081e0000 	ldmdaeq	lr, {}	; <UNPREDICTABLE>
    78f4:	2c0b0000 	stccs	0, cr0, [fp], {-0}
    78f8:	07000000 	streq	r0, [r0, -r0]
    78fc:	011d0a00 	tsteq	sp, r0, lsl #20
    7900:	082e0000 	stmdaeq	lr!, {}	; <UNPREDICTABLE>
    7904:	2c0b0000 	stccs	0, cr0, [fp], {-0}
    7908:	17000000 	strne	r0, [r0, -r0]
    790c:	05f01b00 	ldrbeq	r1, [r0, #2816]!	; 0xb00
    7910:	55070299 	strpl	r0, [r7, #-665]	; 0xfffffd67
    7914:	18000008 	stmdane	r0, {r3}
    7918:	000002a8 	andeq	r0, r0, r8, lsr #5
    791c:	1b029c05 	blne	ae938 <__bss_end__+0xa47d0>
    7920:	00000855 	andeq	r0, r0, r5, asr r8
    7924:	04c71800 	strbeq	r1, [r7], #2048	; 0x800
    7928:	9d050000 	stcls	0, cr0, [r5, #-0]
    792c:	08651802 	stmdaeq	r5!, {r1, fp, ip}^
    7930:	00780000 	rsbseq	r0, r8, r0
    7934:	0003050a 	andeq	r0, r3, sl, lsl #10
    7938:	00086500 	andeq	r6, r8, r0, lsl #10
    793c:	002c0b00 	eoreq	r0, ip, r0, lsl #22
    7940:	001d0000 	andseq	r0, sp, r0
    7944:	00002c0a 	andeq	r2, r0, sl, lsl #24
    7948:	00087500 	andeq	r7, r8, r0, lsl #10
    794c:	002c0b00 	eoreq	r0, ip, r0, lsl #22
    7950:	001d0000 	andseq	r0, sp, r0
    7954:	7e05f01c 	mcrvc	0, 0, pc, cr5, cr12, {0}	; <UNPREDICTABLE>
    7958:	089a0302 	ldmeq	sl, {r1, r8, r9}
    795c:	161d0000 	ldrne	r0, [sp], -r0
    7960:	05000004 	streq	r0, [r0, #-4]
    7964:	e90b0295 	stmdb	fp, {r0, r2, r4, r7, r9}
    7968:	1d000006 	stcne	0, cr0, [r0, #-24]	; 0xffffffe8
    796c:	000004f2 	strdeq	r0, [r0], -r2
    7970:	0b029e05 	bleq	af18c <__bss_end__+0xa5024>
    7974:	0000082e 	andeq	r0, r0, lr, lsr #16
    7978:	011d0a00 	tsteq	sp, r0, lsl #20
    797c:	08aa0000 	stmiaeq	sl!, {}	; <UNPREDICTABLE>
    7980:	2c0b0000 	stccs	0, cr0, [fp], {-0}
    7984:	18000000 	stmdane	r0, {}	; <UNPREDICTABLE>
    7988:	00840600 	addeq	r0, r4, r0, lsl #12
    798c:	04050000 	streq	r0, [r5], #-0
    7990:	000008aa 	andeq	r0, r0, sl, lsr #17
    7994:	0008c01e 	andeq	ip, r8, lr, lsl r0
    7998:	046c1600 	strbteq	r1, [ip], #-1536	; 0xfffffa00
    799c:	05000000 	streq	r0, [r0, #-0]
    79a0:	0008b504 	andeq	fp, r8, r4, lsl #10
    79a4:	8f040500 	svchi	0x00040500
    79a8:	1e000001 	cdpne	0, 0, cr0, cr0, cr1, {0}
    79ac:	000008d7 	ldrdeq	r0, [r0], -r7
    79b0:	00002516 	andeq	r2, r0, r6, lsl r5
    79b4:	04050000 	streq	r0, [r5], #-0
    79b8:	000008dd 	ldrdeq	r0, [r0], -sp
    79bc:	08cc0405 	stmiaeq	ip, {r0, r2, sl}^
    79c0:	4e0a0000 	cdpmi	0, 0, cr0, cr10, cr0, {0}
    79c4:	f3000006 	vhadd.u8	d0, d0, d6
    79c8:	0b000008 	bleq	79f0 <_start-0x610>
    79cc:	0000002c 	andeq	r0, r0, ip, lsr #32
    79d0:	8e1f0002 	cdphi	0, 1, cr0, cr15, cr2, {0}
    79d4:	05000004 	streq	r0, [r0, #-4]
    79d8:	6c17032e 	ldcvs	3, cr0, [r7], {46}	; 0x2e
    79dc:	1f000004 	svcne	0x00000004
    79e0:	00000487 	andeq	r0, r0, r7, lsl #9
    79e4:	1d032f05 	stcne	15, cr2, [r3, #-20]	; 0xffffffec
    79e8:	00000472 	andeq	r0, r0, r2, ror r4
    79ec:	00002515 	andeq	r2, r0, r5, lsl r5
    79f0:	00091c00 	andeq	r1, r9, r0, lsl #24
    79f4:	00251600 	eoreq	r1, r5, r0, lsl #12
    79f8:	20000000 	andcs	r0, r0, r0
    79fc:	000001d1 	ldrdeq	r0, [r0], -r1
    7a00:	280e1d06 	stmdacs	lr, {r1, r2, r8, sl, fp, ip}
    7a04:	05000009 	streq	r0, [r0, #-9]
    7a08:	00090d04 	andeq	r0, r9, r4, lsl #26
    7a0c:	00251500 	eoreq	r1, r5, r0, lsl #10
    7a10:	093d0000 	ldmdbeq	sp!, {}	; <UNPREDICTABLE>
    7a14:	e4160000 	ldr	r0, [r6], #-0
    7a18:	00000005 	andeq	r0, r0, r5
    7a1c:	00077320 	andeq	r7, r7, r0, lsr #6
    7a20:	0e220600 	cfmadda32eq	mvax0, mvax0, mvfx2, mvfx0
    7a24:	00000949 	andeq	r0, r0, r9, asr #18
    7a28:	092e0405 	stmdbeq	lr!, {r0, r2, sl}
    7a2c:	8d210000 	stchi	0, cr0, [r1, #-0]
    7a30:	01000002 	tsteq	r0, r2
    7a34:	91580604 	cmpls	r8, r4, lsl #12
    7a38:	00280000 	eoreq	r0, r8, r0
    7a3c:	9c010000 	stcls	0, cr0, [r1], {-0}
    7a40:	00000996 	muleq	r0, r6, r9
    7a44:	00916c22 	addseq	r6, r1, r2, lsr #24
    7a48:	00097800 	andeq	r7, r9, r0, lsl #16
    7a4c:	50012300 	andpl	r2, r1, r0, lsl #6
    7a50:	9c300305 	ldcls	3, cr0, [r0], #-20	; 0xffffffec
    7a54:	24000000 	strcs	r0, [r0], #-0
    7a58:	00009174 	andeq	r9, r0, r4, ror r1
    7a5c:	00000996 	muleq	r0, r6, r9
    7a60:	0000098c 	andeq	r0, r0, ip, lsl #19
    7a64:	02500123 	subseq	r0, r0, #-1073741816	; 0xc0000008
    7a68:	25006408 	strcs	r6, [r0, #-1032]	; 0xfffffbf8
    7a6c:	00009178 	andeq	r9, r0, r8, ror r1
    7a70:	000009a2 	andeq	r0, r0, r2, lsr #19
    7a74:	08212600 	stmdaeq	r1!, {r9, sl, sp}
    7a78:	08210000 	stmdaeq	r1!, {}	; <UNPREDICTABLE>
    7a7c:	4f060000 	svcmi	0x00060000
    7a80:	082a2606 	stmdaeq	sl!, {r1, r2, r9, sl, sp}
    7a84:	082a0000 	stmdaeq	sl!, {}	; <UNPREDICTABLE>
    7a88:	62060000 	andvs	r0, r6, #0
    7a8c:	09d30006 	ldmibeq	r3, {r1, r2}^
    7a90:	00040000 	andeq	r0, r4, r0
    7a94:	0000184a 	andeq	r1, r0, sl, asr #16
    7a98:	02fd0104 	rscseq	r0, sp, #4, 2
    7a9c:	350c0000 	strcc	r0, [ip, #-0]
    7aa0:	cc000008 	stcgt	0, cr0, [r0], {8}
    7aa4:	80000006 	andhi	r0, r0, r6
    7aa8:	2c000091 	stccs	0, cr0, [r0], {145}	; 0x91
    7aac:	cf000000 	svcgt	0x00000000
    7ab0:	02000016 	andeq	r0, r0, #22
    7ab4:	6e690504 	cdpvs	5, 6, cr0, cr9, cr4, {0}
    7ab8:	04030074 	streq	r0, [r3], #-116	; 0xffffff8c
    7abc:	00006607 	andeq	r6, r0, r7, lsl #12
    7ac0:	06010300 	streq	r0, [r1], -r0, lsl #6
    7ac4:	000002ec 	andeq	r0, r0, ip, ror #5
    7ac8:	85050203 	strhi	r0, [r5, #-515]	; 0xfffffdfd
    7acc:	03000003 	movweq	r0, #3
    7ad0:	00ac0504 	adceq	r0, ip, r4, lsl #10
    7ad4:	08030000 	stmdaeq	r3, {}	; <UNPREDICTABLE>
    7ad8:	0000a705 	andeq	sl, r0, r5, lsl #14
    7adc:	08010300 	stmdaeq	r1, {r8, r9}
    7ae0:	000002ea 	andeq	r0, r0, sl, ror #5
    7ae4:	22070203 	andcs	r0, r7, #805306368	; 0x30000000
    7ae8:	03000002 	movweq	r0, #2
    7aec:	00610704 	rsbeq	r0, r1, r4, lsl #14
    7af0:	08030000 	stmdaeq	r3, {}	; <UNPREDICTABLE>
    7af4:	00005c07 	andeq	r5, r0, r7, lsl #24
    7af8:	02650400 	rsbeq	r0, r5, #0, 8
    7afc:	22020000 	andcs	r0, r2, #0
    7b00:	00007719 	andeq	r7, r0, r9, lsl r7
    7b04:	7d040500 	cfstr32vc	mvfx0, [r4, #-0]
    7b08:	06000000 	streq	r0, [r0], -r0
    7b0c:	0000042b 	andeq	r0, r0, fp, lsr #8
    7b10:	0002cb04 	andeq	ip, r2, r4, lsl #22
    7b14:	0e2c0300 	cdpeq	3, 2, cr0, cr12, cr0, {0}
    7b18:	00000041 	andeq	r0, r0, r1, asr #32
    7b1c:	00044004 	andeq	r4, r4, r4
    7b20:	0e720300 	cdpeq	3, 7, cr0, cr2, cr0, {0}
    7b24:	00000041 	andeq	r0, r0, r1, asr #32
    7b28:	00026d07 	andeq	r6, r2, r7, lsl #26
    7b2c:	015e0400 	cmpeq	lr, r0, lsl #8
    7b30:	00002c17 	andeq	r2, r0, r7, lsl ip
    7b34:	03040800 	movweq	r0, #18432	; 0x4800
    7b38:	00c903a6 	sbceq	r0, r9, r6, lsr #7
    7b3c:	5f090000 	svcpl	0x00090000
    7b40:	03000002 	movweq	r0, #2
    7b44:	009a0ca8 	addseq	r0, sl, r8, lsr #25
    7b48:	e2090000 	and	r0, r9, #0
    7b4c:	03000001 	movweq	r0, #1
    7b50:	00c913a9 	sbceq	r1, r9, r9, lsr #7
    7b54:	0a000000 	beq	7b5c <_start-0x4a4>
    7b58:	0000004f 	andeq	r0, r0, pc, asr #32
    7b5c:	000000d9 	ldrdeq	r0, [r0], -r9
    7b60:	00002c0b 	andeq	r2, r0, fp, lsl #24
    7b64:	0c000300 	stceq	3, cr0, [r0], {-0}
    7b68:	09a30308 	stmibeq	r3!, {r3, r8, r9}
    7b6c:	000000fd 	strdeq	r0, [r0], -sp
    7b70:	0004230d 	andeq	r2, r4, sp, lsl #6
    7b74:	07a50300 	streq	r0, [r5, r0, lsl #6]!
    7b78:	00000025 	andeq	r0, r0, r5, lsr #32
    7b7c:	04320d00 	ldrteq	r0, [r2], #-3328	; 0xfffff300
    7b80:	aa030000 	bge	c7b88 <__bss_end__+0xbda20>
    7b84:	0000a705 	andeq	sl, r0, r5, lsl #14
    7b88:	04000400 	streq	r0, [r0], #-1024	; 0xfffffc00
    7b8c:	000003ad 	andeq	r0, r0, sp, lsr #7
    7b90:	d903ab03 	stmdble	r3, {r0, r1, r8, r9, fp, sp, pc}
    7b94:	04000000 	streq	r0, [r0], #-0
    7b98:	0000019f 	muleq	r0, pc, r1	; <UNPREDICTABLE>
    7b9c:	6b1baf03 	blvs	6f37b0 <__bss_end__+0x6e9648>
    7ba0:	0e000000 	cdpeq	0, 0, cr0, cr0, cr0, {0}
    7ba4:	1d040504 	cfstr32ne	mvfx0, [r4, #-16]
    7ba8:	03000001 	movweq	r0, #1
    7bac:	02f30801 	rscseq	r0, r3, #65536	; 0x10000
    7bb0:	1d0f0000 	stcne	0, cr0, [pc, #-0]	; 7bb8 <_start-0x448>
    7bb4:	04000001 	streq	r0, [r0], #-1
    7bb8:	00000472 	andeq	r0, r0, r2, ror r4
    7bbc:	5d191605 	ldcpl	6, cr1, [r9, #-20]	; 0xffffffec
    7bc0:	10000000 	andne	r0, r0, r0
    7bc4:	000001b0 			; <UNDEFINED> instruction: 0x000001b0
    7bc8:	082f0518 	stmdaeq	pc!, {r3, r4, r8, sl}	; <UNPREDICTABLE>
    7bcc:	0000018f 	andeq	r0, r0, pc, lsl #3
    7bd0:	0003ce0d 	andeq	ip, r3, sp, lsl #28
    7bd4:	13310500 	teqne	r1, #0, 10
    7bd8:	0000018f 	andeq	r0, r0, pc, lsl #3
    7bdc:	6b5f1100 	blvs	17cbfe4 <__bss_end__+0x17c1e7c>
    7be0:	07320500 	ldreq	r0, [r2, -r0, lsl #10]!
    7be4:	00000025 	andeq	r0, r0, r5, lsr #32
    7be8:	040e0d04 	streq	r0, [lr], #-3332	; 0xfffff2fc
    7bec:	32050000 	andcc	r0, r5, #0
    7bf0:	0000250b 	andeq	r2, r0, fp, lsl #10
    7bf4:	990d0800 	stmdbls	sp, {fp}
    7bf8:	05000001 	streq	r0, [r0, #-1]
    7bfc:	00251432 	eoreq	r1, r5, r2, lsr r4
    7c00:	0d0c0000 	stceq	0, cr0, [ip, #-0]
    7c04:	000004b2 			; <UNDEFINED> instruction: 0x000004b2
    7c08:	251b3205 	ldrcs	r3, [fp, #-517]	; 0xfffffdfb
    7c0c:	10000000 	andne	r0, r0, r0
    7c10:	00785f11 	rsbseq	r5, r8, r1, lsl pc
    7c14:	950b3305 	strls	r3, [fp, #-773]	; 0xfffffcfb
    7c18:	14000001 	strne	r0, [r0], #-1
    7c1c:	35040500 	strcc	r0, [r4, #-1280]	; 0xfffffb00
    7c20:	0a000001 	beq	7c2c <_start-0x3d4>
    7c24:	00000129 	andeq	r0, r0, r9, lsr #2
    7c28:	000001a5 	andeq	r0, r0, r5, lsr #3
    7c2c:	00002c0b 	andeq	r2, r0, fp, lsl #24
    7c30:	10000000 	andne	r0, r0, r0
    7c34:	000001dd 	ldrdeq	r0, [r0], -sp
    7c38:	08370524 	ldmdaeq	r7!, {r2, r5, r8, sl}
    7c3c:	00000228 	andeq	r0, r0, r8, lsr #4
    7c40:	00009e0d 	andeq	r9, r0, sp, lsl #28
    7c44:	09390500 	ldmdbeq	r9!, {r8, sl}
    7c48:	00000025 	andeq	r0, r0, r5, lsr #32
    7c4c:	04480d00 	strbeq	r0, [r8], #-3328	; 0xfffff300
    7c50:	3a050000 	bcc	147c58 <__bss_end__+0x13daf0>
    7c54:	00002509 	andeq	r2, r0, r9, lsl #10
    7c58:	c10d0400 	tstgt	sp, r0, lsl #8
    7c5c:	05000000 	streq	r0, [r0, #-0]
    7c60:	0025093b 	eoreq	r0, r5, fp, lsr r9
    7c64:	0d080000 	stceq	0, cr0, [r8, #-0]
    7c68:	00000533 	andeq	r0, r0, r3, lsr r5
    7c6c:	25093c05 	strcs	r3, [r9, #-3077]	; 0xfffff3fb
    7c70:	0c000000 	stceq	0, cr0, [r0], {-0}
    7c74:	0002af0d 	andeq	sl, r2, sp, lsl #30
    7c78:	093d0500 	ldmdbeq	sp!, {r8, sl}
    7c7c:	00000025 	andeq	r0, r0, r5, lsr #32
    7c80:	02830d10 	addeq	r0, r3, #16, 26	; 0x400
    7c84:	3e050000 	cdpcc	0, 0, cr0, cr5, cr0, {0}
    7c88:	00002509 	andeq	r2, r0, r9, lsl #10
    7c8c:	b70d1400 	strlt	r1, [sp, -r0, lsl #8]
    7c90:	05000004 	streq	r0, [r0, #-4]
    7c94:	0025093f 	eoreq	r0, r5, pc, lsr r9
    7c98:	0d180000 	ldceq	0, cr0, [r8, #-0]
    7c9c:	0000038f 	andeq	r0, r0, pc, lsl #7
    7ca0:	25094005 	strcs	r4, [r9, #-5]
    7ca4:	1c000000 	stcne	0, cr0, [r0], {-0}
    7ca8:	0004fa0d 	andeq	pc, r4, sp, lsl #20
    7cac:	09410500 	stmdbeq	r1, {r8, sl}^
    7cb0:	00000025 	andeq	r0, r0, r5, lsr #32
    7cb4:	01120020 	tsteq	r2, r0, lsr #32
    7cb8:	08000001 	stmdaeq	r0, {r0}
    7cbc:	084a0501 	stmdaeq	sl, {r0, r8, sl}^
    7cc0:	0000026d 	andeq	r0, r0, sp, ror #4
    7cc4:	00018c0d 	andeq	r8, r1, sp, lsl #24
    7cc8:	0a4b0500 	beq	12c90d0 <__bss_end__+0x12bef68>
    7ccc:	0000026d 	andeq	r0, r0, sp, ror #4
    7cd0:	00000d00 	andeq	r0, r0, r0, lsl #26
    7cd4:	4c050000 	stcmi	0, cr0, [r5], {-0}
    7cd8:	00026d09 	andeq	r6, r2, r9, lsl #26
    7cdc:	64138000 	ldrvs	r8, [r3], #-0
    7ce0:	05000004 	streq	r0, [r0, #-4]
    7ce4:	01290a4e 			; <UNDEFINED> instruction: 0x01290a4e
    7ce8:	01000000 	mrseq	r0, (UNDEF: 0)
    7cec:	00012613 	andeq	r2, r1, r3, lsl r6
    7cf0:	0a510500 	beq	14490f8 <__bss_end__+0x143ef90>
    7cf4:	00000129 	andeq	r0, r0, r9, lsr #2
    7cf8:	0a000104 	beq	8110 <notmain+0x100>
    7cfc:	00000115 	andeq	r0, r0, r5, lsl r1
    7d00:	0000027d 	andeq	r0, r0, sp, ror r2
    7d04:	00002c0b 	andeq	r2, r0, fp, lsl #24
    7d08:	12001f00 	andne	r1, r0, #0, 30
    7d0c:	000002b8 			; <UNDEFINED> instruction: 0x000002b8
    7d10:	5d050190 	stfpls	f0, [r5, #-576]	; 0xfffffdc0
    7d14:	0002c008 	andeq	ip, r2, r8
    7d18:	03ce0d00 	biceq	r0, lr, #0, 26
    7d1c:	5e050000 	cdppl	0, 0, cr0, cr5, cr0, {0}
    7d20:	0002c012 	andeq	ip, r2, r2, lsl r0
    7d24:	e60d0000 	str	r0, [sp], -r0
    7d28:	05000003 	streq	r0, [r0, #-3]
    7d2c:	0025065f 	eoreq	r0, r5, pc, asr r6
    7d30:	0d040000 	stceq	0, cr0, [r4, #-0]
    7d34:	00000194 	muleq	r0, r4, r1
    7d38:	c6096105 	strgt	r6, [r9], -r5, lsl #2
    7d3c:	08000002 	stmdaeq	r0, {r1}
    7d40:	0001010d 	andeq	r0, r1, sp, lsl #2
    7d44:	1e620500 	cdpne	5, 6, cr0, cr2, cr0, {0}
    7d48:	00000228 	andeq	r0, r0, r8, lsr #4
    7d4c:	04050088 	streq	r0, [r5], #-136	; 0xffffff78
    7d50:	0000027d 	andeq	r0, r0, sp, ror r2
    7d54:	0002d60a 	andeq	sp, r2, sl, lsl #12
    7d58:	0002d600 	andeq	sp, r2, r0, lsl #12
    7d5c:	002c0b00 	eoreq	r0, ip, r0, lsl #22
    7d60:	001f0000 	andseq	r0, pc, r0
    7d64:	02dc0405 	sbcseq	r0, ip, #83886080	; 0x5000000
    7d68:	10140000 	andsne	r0, r4, r0
    7d6c:	00000399 	muleq	r0, r9, r3
    7d70:	08750508 	ldmdaeq	r5!, {r3, r8, sl}^
    7d74:	00000305 	andeq	r0, r0, r5, lsl #6
    7d78:	0000bb0d 	andeq	fp, r0, sp, lsl #22
    7d7c:	11760500 	cmnne	r6, r0, lsl #10
    7d80:	00000305 	andeq	r0, r0, r5, lsl #6
    7d84:	001b0d00 	andseq	r0, fp, r0, lsl #26
    7d88:	77050000 	strvc	r0, [r5, -r0]
    7d8c:	00002506 	andeq	r2, r0, r6, lsl #10
    7d90:	05000400 	streq	r0, [r0, #-1024]	; 0xfffffc00
    7d94:	00004f04 	andeq	r4, r0, r4, lsl #30
    7d98:	03b81000 			; <UNDEFINED> instruction: 0x03b81000
    7d9c:	05680000 	strbeq	r0, [r8, #-0]!
    7da0:	044e08b5 	strbeq	r0, [lr], #-2229	; 0xfffff74b
    7da4:	5f110000 	svcpl	0x00110000
    7da8:	b6050070 			; <UNDEFINED> instruction: 0xb6050070
    7dac:	00030512 	andeq	r0, r3, r2, lsl r5
    7db0:	5f110000 	svcpl	0x00110000
    7db4:	b7050072 	smlsdxlt	r5, r2, r0, r0
    7db8:	00002507 	andeq	r2, r0, r7, lsl #10
    7dbc:	5f110400 	svcpl	0x00110400
    7dc0:	b8050077 	stmdalt	r5, {r0, r1, r2, r4, r5, r6}
    7dc4:	00002507 	andeq	r2, r0, r7, lsl #10
    7dc8:	1f0d0800 	svcne	0x000d0800
    7dcc:	05000001 	streq	r0, [r0, #-1]
    7dd0:	003a09b9 	ldrhteq	r0, [sl], -r9
    7dd4:	0d0c0000 	stceq	0, cr0, [ip, #-0]
    7dd8:	00000208 	andeq	r0, r0, r8, lsl #4
    7ddc:	3a09ba05 	bcc	2765f8 <__bss_end__+0x26c490>
    7de0:	0e000000 	cdpeq	0, 0, cr0, cr0, cr0, {0}
    7de4:	66625f11 	uqadd16vs	r5, r2, r1
    7de8:	11bb0500 			; <UNDEFINED> instruction: 0x11bb0500
    7dec:	000002dd 	ldrdeq	r0, [r0], -sp
    7df0:	007b0d10 	rsbseq	r0, fp, r0, lsl sp
    7df4:	bc050000 	stclt	0, cr0, [r5], {-0}
    7df8:	00002507 	andeq	r2, r0, r7, lsl #10
    7dfc:	0f0d1800 	svceq	0x000d1800
    7e00:	05000001 	streq	r0, [r0, #-1]
    7e04:	01150ac3 	tsteq	r5, r3, asr #21
    7e08:	0d1c0000 	ldceq	0, cr0, [ip, #-0]
    7e0c:	00000b59 	andeq	r0, r0, r9, asr fp
    7e10:	c01dc505 	andsgt	ip, sp, r5, lsl #10
    7e14:	20000005 	andcs	r0, r0, r5
    7e18:	00061d0d 	andeq	r1, r6, sp, lsl #26
    7e1c:	1dc70500 	cfstr64ne	mvdx0, [r7]
    7e20:	000005ea 	andeq	r0, r0, sl, ror #11
    7e24:	043a0d24 	ldrteq	r0, [sl], #-3364	; 0xfffff2dc
    7e28:	ca050000 	bgt	147e30 <__bss_end__+0x13dcc8>
    7e2c:	00060e0d 	andeq	r0, r6, sp, lsl #28
    7e30:	140d2800 	strne	r2, [sp], #-2048	; 0xfffff800
    7e34:	05000005 	streq	r0, [r0, #-5]
    7e38:	062809cb 	strteq	r0, [r8], -fp, asr #19
    7e3c:	112c0000 			; <UNDEFINED> instruction: 0x112c0000
    7e40:	0062755f 	rsbeq	r7, r2, pc, asr r5
    7e44:	dd11ce05 	ldcle	14, cr12, [r1, #-20]	; 0xffffffec
    7e48:	30000002 	andcc	r0, r0, r2
    7e4c:	70755f11 	rsbsvc	r5, r5, r1, lsl pc
    7e50:	12cf0500 	sbcne	r0, pc, #0, 10
    7e54:	00000305 	andeq	r0, r0, r5, lsl #6
    7e58:	755f1138 	ldrbvc	r1, [pc, #-312]	; 7d28 <_start-0x2d8>
    7e5c:	d0050072 	andle	r0, r5, r2, ror r0
    7e60:	00002507 	andeq	r2, r0, r7, lsl #10
    7e64:	b50d3c00 	strlt	r3, [sp, #-3072]	; 0xfffff400
    7e68:	05000000 	streq	r0, [r0, #-0]
    7e6c:	062e11d3 			; <UNDEFINED> instruction: 0x062e11d3
    7e70:	0d400000 	stcleq	0, cr0, [r0, #-0]
    7e74:	000004ec 	andeq	r0, r0, ip, ror #9
    7e78:	3e11d405 	cfmulscc	mvf13, mvf1, mvf5
    7e7c:	43000006 	movwmi	r0, #6
    7e80:	626c5f11 	rsbvs	r5, ip, #17, 30	; 0x44
    7e84:	11d70500 	bicsne	r0, r7, r0, lsl #10
    7e88:	000002dd 	ldrdeq	r0, [r0], -sp
    7e8c:	013d0d44 	teqeq	sp, r4, asr #26
    7e90:	da050000 	ble	147e98 <__bss_end__+0x13dd30>
    7e94:	00002507 	andeq	r2, r0, r7, lsl #10
    7e98:	4e0d4c00 	cdpmi	12, 0, cr4, cr13, cr0, {0}
    7e9c:	05000001 	streq	r0, [r0, #-1]
    7ea0:	00820adb 	ldrdeq	r0, [r2], fp
    7ea4:	0d500000 	ldcleq	0, cr0, [r0, #-0]
    7ea8:	00000afa 	strdeq	r0, [r0], -sl
    7eac:	6c12de05 	ldcvs	14, cr13, [r2], {5}
    7eb0:	54000004 	strpl	r0, [r0], #-4
    7eb4:	00042c0d 	andeq	r2, r4, sp, lsl #24
    7eb8:	0ce20500 	cfstr64eq	mvdx0, [r2]
    7ebc:	00000109 	andeq	r0, r0, r9, lsl #2
    7ec0:	03c00d58 	biceq	r0, r0, #88, 26	; 0x1600
    7ec4:	e4050000 	str	r0, [r5], #-0
    7ec8:	0000fd0e 	andeq	pc, r0, lr, lsl #26
    7ecc:	7b0d5c00 	blvc	35eed4 <__bss_end__+0x354d6c>
    7ed0:	05000002 	streq	r0, [r0, #-2]
    7ed4:	002509e5 	eoreq	r0, r5, r5, ror #19
    7ed8:	00640000 	rsbeq	r0, r4, r0
    7edc:	00002515 	andeq	r2, r0, r5, lsl r5
    7ee0:	00046c00 	andeq	r6, r4, r0, lsl #24
    7ee4:	046c1600 	strbteq	r1, [ip], #-1536	; 0xfffffa00
    7ee8:	15160000 	ldrne	r0, [r6, #-0]
    7eec:	16000001 	strne	r0, [r0], -r1
    7ef0:	00000117 	andeq	r0, r0, r7, lsl r1
    7ef4:	00002516 	andeq	r2, r0, r6, lsl r5
    7ef8:	04050000 	streq	r0, [r5], #-0
    7efc:	00000477 	andeq	r0, r0, r7, ror r4
    7f00:	00046c0f 	andeq	r6, r4, pc, lsl #24
    7f04:	04161700 	ldreq	r1, [r6], #-1792	; 0xfffff900
    7f08:	04280000 	strteq	r0, [r8], #-0
    7f0c:	08026005 	stmdaeq	r2, {r0, r2, sp, lr}
    7f10:	000005c0 	andeq	r0, r0, r0, asr #11
    7f14:	00037e18 	andeq	r7, r3, r8, lsl lr
    7f18:	02620500 	rsbeq	r0, r2, #0, 10
    7f1c:	00002507 	andeq	r2, r0, r7, lsl #10
    7f20:	2e180000 	cdpcs	0, 1, cr0, cr8, cr0, {0}
    7f24:	05000001 	streq	r0, [r0, #-1]
    7f28:	9a0b0267 	bls	2c88cc <__bss_end__+0x2be764>
    7f2c:	04000006 	streq	r0, [r0], #-6
    7f30:	0001f818 	andeq	pc, r1, r8, lsl r8	; <UNPREDICTABLE>
    7f34:	02670500 	rsbeq	r0, r7, #0, 10
    7f38:	00069a14 	andeq	r9, r6, r4, lsl sl
    7f3c:	a8180800 	ldmdage	r8, {fp}
    7f40:	05000001 	streq	r0, [r0, #-1]
    7f44:	9a1e0267 	bls	7888e8 <__bss_end__+0x77e780>
    7f48:	0c000006 	stceq	0, cr0, [r0], {6}
    7f4c:	0003e118 	andeq	lr, r3, r8, lsl r1
    7f50:	02690500 	rsbeq	r0, r9, #0, 10
    7f54:	00002508 	andeq	r2, r0, r8, lsl #10
    7f58:	29181000 	ldmdbcs	r8, {ip}
    7f5c:	05000000 	streq	r0, [r0, #-0]
    7f60:	9a08026a 	bls	208910 <__bss_end__+0x1fe7a8>
    7f64:	14000008 	strne	r0, [r0], #-8
    7f68:	0003f518 	andeq	pc, r3, r8, lsl r5	; <UNPREDICTABLE>
    7f6c:	026d0500 	rsbeq	r0, sp, #0, 10
    7f70:	00002507 	andeq	r2, r0, r7, lsl #10
    7f74:	36183000 	ldrcc	r3, [r8], -r0
    7f78:	0500000a 	streq	r0, [r0, #-10]
    7f7c:	af16026e 	svcge	0x0016026e
    7f80:	34000008 	strcc	r0, [r0], #-8
    7f84:	0002c018 	andeq	ip, r2, r8, lsl r0
    7f88:	02700500 	rsbseq	r0, r0, #0, 10
    7f8c:	00002507 	andeq	r2, r0, r7, lsl #10
    7f90:	eb183800 	bl	615f98 <__bss_end__+0x60be30>
    7f94:	05000003 	streq	r0, [r0, #-3]
    7f98:	c00a0272 	andgt	r0, sl, r2, ror r2
    7f9c:	3c000008 	stccc	0, cr0, [r0], {8}
    7fa0:	00025718 	andeq	r5, r2, r8, lsl r7
    7fa4:	02750500 	rsbseq	r0, r5, #0, 10
    7fa8:	00018f13 	andeq	r8, r1, r3, lsl pc
    7fac:	c7184000 	ldrgt	r4, [r8, -r0]
    7fb0:	05000001 	streq	r0, [r0, #-1]
    7fb4:	25070276 	strcs	r0, [r7, #-630]	; 0xfffffd8a
    7fb8:	44000000 	strmi	r0, [r0], #-0
    7fbc:	00052e18 	andeq	r2, r5, r8, lsl lr
    7fc0:	02770500 	rsbseq	r0, r7, #0, 10
    7fc4:	00018f13 	andeq	r8, r1, r3, lsl pc
    7fc8:	d2184800 	andsle	r4, r8, #0, 16
    7fcc:	05000002 	streq	r0, [r0, #-2]
    7fd0:	c6140278 			; <UNDEFINED> instruction: 0xc6140278
    7fd4:	4c000008 	stcmi	0, cr0, [r0], {8}
    7fd8:	00020018 	andeq	r0, r2, r8, lsl r0
    7fdc:	027b0500 	rsbseq	r0, fp, #0, 10
    7fe0:	00002507 	andeq	r2, r0, r7, lsl #10
    7fe4:	46185000 	ldrmi	r5, [r8], -r0
    7fe8:	05000001 	streq	r0, [r0, #-1]
    7fec:	1709027c 	smlsdxne	r9, ip, r2, r0
    7ff0:	54000001 	strpl	r0, [r0], #-1
    7ff4:	0002f818 	andeq	pc, r2, r8, lsl r8	; <UNPREDICTABLE>
    7ff8:	029f0500 	addseq	r0, pc, #0, 10
    7ffc:	00087507 	andeq	r7, r8, r7, lsl #10
    8000:	b8195800 	ldmdalt	r9, {fp, ip, lr}
    8004:	05000002 	streq	r0, [r0, #-2]
    8008:	c01302a3 	andsgt	r0, r3, r3, lsr #5
    800c:	48000002 	stmdami	r0, {r1}
    8010:	02351901 	eorseq	r1, r5, #16384	; 0x4000
    8014:	a4050000 	strge	r0, [r5], #-0
    8018:	027d1202 	rsbseq	r1, sp, #536870912	; 0x20000000
    801c:	014c0000 	mrseq	r0, (UNDEF: 76)
    8020:	0004da19 	andeq	sp, r4, r9, lsl sl
    8024:	02a80500 	adceq	r0, r8, #0, 10
    8028:	0008d70c 	andeq	sp, r8, ip, lsl #14
    802c:	1902dc00 	stmdbne	r2, {sl, fp, ip, lr, pc}
    8030:	00000117 	andeq	r0, r0, r7, lsl r1
    8034:	1002ad05 	andne	sl, r2, r5, lsl #26
    8038:	0000065b 	andeq	r0, r0, fp, asr r6
    803c:	fc1902e0 	ldc2	2, cr0, [r9], {224}	; 0xe0
    8040:	05000000 	streq	r0, [r0, #-0]
    8044:	e30a02af 	movw	r0, #41647	; 0xa2af
    8048:	ec000008 	stc	0, cr0, [r0], {8}
    804c:	04050002 	streq	r0, [r5], #-2
    8050:	0000044e 	andeq	r0, r0, lr, asr #8
    8054:	00002515 	andeq	r2, r0, r5, lsl r5
    8058:	0005e400 	andeq	lr, r5, r0, lsl #8
    805c:	046c1600 	strbteq	r1, [ip], #-1536	; 0xfffffa00
    8060:	15160000 	ldrne	r0, [r6, #-0]
    8064:	16000001 	strne	r0, [r0], -r1
    8068:	000005e4 	andeq	r0, r0, r4, ror #11
    806c:	00002516 	andeq	r2, r0, r6, lsl r5
    8070:	04050000 	streq	r0, [r5], #-0
    8074:	00000124 	andeq	r0, r0, r4, lsr #2
    8078:	05c60405 	strbeq	r0, [r6, #1029]	; 0x405
    807c:	8e150000 	cdphi	0, 1, cr0, cr5, cr0, {0}
    8080:	0e000000 	cdpeq	0, 0, cr0, cr0, cr0, {0}
    8084:	16000006 	strne	r0, [r0], -r6
    8088:	0000046c 	andeq	r0, r0, ip, ror #8
    808c:	00011516 	andeq	r1, r1, r6, lsl r5
    8090:	008e1600 	addeq	r1, lr, r0, lsl #12
    8094:	25160000 	ldrcs	r0, [r6, #-0]
    8098:	00000000 	andeq	r0, r0, r0
    809c:	05f00405 	ldrbeq	r0, [r0, #1029]!	; 0x405
    80a0:	25150000 	ldrcs	r0, [r5, #-0]
    80a4:	28000000 	stmdacs	r0, {}	; <UNPREDICTABLE>
    80a8:	16000006 	strne	r0, [r0], -r6
    80ac:	0000046c 	andeq	r0, r0, ip, ror #8
    80b0:	00011516 	andeq	r1, r1, r6, lsl r5
    80b4:	04050000 	streq	r0, [r5], #-0
    80b8:	00000614 	andeq	r0, r0, r4, lsl r6
    80bc:	00004f0a 	andeq	r4, r0, sl, lsl #30
    80c0:	00063e00 	andeq	r3, r6, r0, lsl #28
    80c4:	002c0b00 	eoreq	r0, ip, r0, lsl #22
    80c8:	00020000 	andeq	r0, r2, r0
    80cc:	00004f0a 	andeq	r4, r0, sl, lsl #30
    80d0:	00064e00 	andeq	r4, r6, r0, lsl #28
    80d4:	002c0b00 	eoreq	r0, ip, r0, lsl #22
    80d8:	00000000 	andeq	r0, r0, r0
    80dc:	0003a607 	andeq	sl, r3, r7, lsl #12
    80e0:	011f0500 	tsteq	pc, r0, lsl #10
    80e4:	00030b1a 	andeq	r0, r3, sl, lsl fp
    80e8:	04c11a00 	strbeq	r1, [r1], #2560	; 0xa00
    80ec:	050c0000 	streq	r0, [ip, #-0]
    80f0:	94080123 	strls	r0, [r8], #-291	; 0xfffffedd
    80f4:	18000006 	stmdane	r0, {r1, r2}
    80f8:	000003ce 	andeq	r0, r0, lr, asr #7
    80fc:	11012505 	tstne	r1, r5, lsl #10
    8100:	00000694 	muleq	r0, r4, r6
    8104:	021b1800 	andseq	r1, fp, #0, 16
    8108:	26050000 	strcs	r0, [r5], -r0
    810c:	00250701 	eoreq	r0, r5, r1, lsl #14
    8110:	18040000 	stmdane	r4, {}	; <UNPREDICTABLE>
    8114:	000003a0 	andeq	r0, r0, r0, lsr #7
    8118:	0b012705 	bleq	51d34 <__bss_end__+0x47bcc>
    811c:	0000069a 	muleq	r0, sl, r6
    8120:	04050008 	streq	r0, [r5], #-8
    8124:	0000065b 	andeq	r0, r0, fp, asr r6
    8128:	064e0405 	strbeq	r0, [lr], -r5, lsl #8
    812c:	211a0000 	tstcs	sl, r0
    8130:	0e000000 	cdpeq	0, 0, cr0, cr0, cr0, {0}
    8134:	08013f05 	stmdaeq	r1, {r0, r2, r8, r9, sl, fp, ip, sp}
    8138:	000006d9 	ldrdeq	r0, [r0], -r9
    813c:	00041d18 	andeq	r1, r4, r8, lsl sp
    8140:	01400500 	cmpeq	r0, r0, lsl #10
    8144:	0006d912 	andeq	sp, r6, r2, lsl r9
    8148:	51180000 	tstpl	r8, r0
    814c:	05000004 	streq	r0, [r0, #-4]
    8150:	d9120141 	ldmdble	r2, {r0, r6, r8}
    8154:	06000006 	streq	r0, [r0], -r6
    8158:	00046d18 	andeq	r6, r4, r8, lsl sp
    815c:	01420500 	cmpeq	r2, r0, lsl #10
    8160:	00005612 	andeq	r5, r0, r2, lsl r6
    8164:	0a000c00 	beq	b16c <__bss_end__+0x1004>
    8168:	00000056 	andeq	r0, r0, r6, asr r0
    816c:	000006e9 	andeq	r0, r0, r9, ror #13
    8170:	00002c0b 	andeq	r2, r0, fp, lsl #24
    8174:	1b000200 	blne	897c <ck_heap_errors+0xbc>
    8178:	028005d0 	addeq	r0, r0, #208, 10	; 0x34000000
    817c:	0007fe07 	andeq	pc, r7, r7, lsl #28
    8180:	04a51800 	strteq	r1, [r5], #2048	; 0x800
    8184:	82050000 	andhi	r0, r5, #0
    8188:	002c1802 	eoreq	r1, ip, r2, lsl #16
    818c:	18000000 	stmdane	r0, {}	; <UNPREDICTABLE>
    8190:	00000457 	andeq	r0, r0, r7, asr r4
    8194:	12028305 	andne	r8, r2, #335544320	; 0x14000000
    8198:	00000117 	andeq	r0, r0, r7, lsl r1
    819c:	024a1804 	subeq	r1, sl, #4, 16	; 0x40000
    81a0:	84050000 	strhi	r0, [r5], #-0
    81a4:	07fe1002 	ldrbeq	r1, [lr, r2]!
    81a8:	18080000 	stmdane	r8, {}	; <UNPREDICTABLE>
    81ac:	00000505 	andeq	r0, r0, r5, lsl #10
    81b0:	17028505 	strne	r8, [r2, -r5, lsl #10]
    81b4:	000001a5 	andeq	r0, r0, r5, lsr #3
    81b8:	01b81824 			; <UNDEFINED> instruction: 0x01b81824
    81bc:	86050000 	strhi	r0, [r5], -r0
    81c0:	00250f02 	eoreq	r0, r5, r2, lsl #30
    81c4:	18480000 	stmdane	r8, {}^	; <UNPREDICTABLE>
    81c8:	000003c9 	andeq	r0, r0, r9, asr #7
    81cc:	2c028705 	stccs	7, cr8, [r2], {5}
    81d0:	00000064 	andeq	r0, r0, r4, rrx
    81d4:	051b1850 	ldreq	r1, [fp, #-2128]	; 0xfffff7b0
    81d8:	88050000 	stmdahi	r5, {}	; <UNPREDICTABLE>
    81dc:	06a01a02 	strteq	r1, [r0], r2, lsl #20
    81e0:	18580000 	ldmdane	r8, {}^	; <UNPREDICTABLE>
    81e4:	000003d4 	ldrdeq	r0, [r0], -r4
    81e8:	16028905 	strne	r8, [r2], -r5, lsl #18
    81ec:	000000fd 	strdeq	r0, [r0], -sp
    81f0:	05201868 	streq	r1, [r0, #-2152]!	; 0xfffff798
    81f4:	8a050000 	bhi	1481fc <__bss_end__+0x13e094>
    81f8:	00fd1602 	rscseq	r1, sp, r2, lsl #12
    81fc:	18700000 	ldmdane	r0!, {}^	; <UNPREDICTABLE>
    8200:	000002dc 	ldrdeq	r0, [r0], -ip
    8204:	16028b05 	strne	r8, [r2], -r5, lsl #22
    8208:	000000fd 	strdeq	r0, [r0], -sp
    820c:	04d01878 	ldrbeq	r1, [r0], #2168	; 0x878
    8210:	8c050000 	stchi	0, cr0, [r5], {-0}
    8214:	080e1002 	stmdaeq	lr, {r1, ip}
    8218:	18800000 	stmne	r0, {}	; <UNPREDICTABLE>
    821c:	0000023e 	andeq	r0, r0, lr, lsr r2
    8220:	10028d05 	andne	r8, r2, r5, lsl #26
    8224:	0000081e 	andeq	r0, r0, lr, lsl r8
    8228:	047a1888 	ldrbteq	r1, [sl], #-2184	; 0xfffff778
    822c:	8e050000 	cdphi	0, 0, cr0, cr5, cr0, {0}
    8230:	00250f02 	eoreq	r0, r5, r2, lsl #30
    8234:	18a00000 	stmiane	r0!, {}	; <UNPREDICTABLE>
    8238:	0000017e 	andeq	r0, r0, lr, ror r1
    823c:	16028f05 	strne	r8, [r2], -r5, lsl #30
    8240:	000000fd 	strdeq	r0, [r0], -sp
    8244:	008f18a4 	addeq	r1, pc, r4, lsr #17
    8248:	90050000 	andls	r0, r5, r0
    824c:	00fd1602 	rscseq	r1, sp, r2, lsl #12
    8250:	18ac0000 	stmiane	ip!, {}	; <UNPREDICTABLE>
    8254:	0000016d 	andeq	r0, r0, sp, ror #2
    8258:	16029105 	strne	r9, [r2], -r5, lsl #2
    825c:	000000fd 	strdeq	r0, [r0], -sp
    8260:	003c18b4 	ldrhteq	r1, [ip], -r4
    8264:	92050000 	andls	r0, r5, #0
    8268:	00fd1602 	rscseq	r1, sp, r2, lsl #12
    826c:	18bc0000 	ldmne	ip!, {}	; <UNPREDICTABLE>
    8270:	0000004b 	andeq	r0, r0, fp, asr #32
    8274:	16029305 	strne	r9, [r2], -r5, lsl #6
    8278:	000000fd 	strdeq	r0, [r0], -sp
    827c:	037c18c4 	cmneq	ip, #196, 16	; 0xc40000
    8280:	94050000 	strls	r0, [r5], #-0
    8284:	00250802 	eoreq	r0, r5, r2, lsl #16
    8288:	00cc0000 	sbceq	r0, ip, r0
    828c:	00011d0a 	andeq	r1, r1, sl, lsl #26
    8290:	00080e00 	andeq	r0, r8, r0, lsl #28
    8294:	002c0b00 	eoreq	r0, ip, r0, lsl #22
    8298:	00190000 	andseq	r0, r9, r0
    829c:	00011d0a 	andeq	r1, r1, sl, lsl #26
    82a0:	00081e00 	andeq	r1, r8, r0, lsl #28
    82a4:	002c0b00 	eoreq	r0, ip, r0, lsl #22
    82a8:	00070000 	andeq	r0, r7, r0
    82ac:	00011d0a 	andeq	r1, r1, sl, lsl #26
    82b0:	00082e00 	andeq	r2, r8, r0, lsl #28
    82b4:	002c0b00 	eoreq	r0, ip, r0, lsl #22
    82b8:	00170000 	andseq	r0, r7, r0
    82bc:	9905f01b 	stmdbls	r5, {r0, r1, r3, r4, ip, sp, lr, pc}
    82c0:	08550702 	ldmdaeq	r5, {r1, r8, r9, sl}^
    82c4:	a8180000 	ldmdage	r8, {}	; <UNPREDICTABLE>
    82c8:	05000002 	streq	r0, [r0, #-2]
    82cc:	551b029c 	ldrpl	r0, [fp, #-668]	; 0xfffffd64
    82d0:	00000008 	andeq	r0, r0, r8
    82d4:	0004c718 	andeq	ip, r4, r8, lsl r7
    82d8:	029d0500 	addseq	r0, sp, #0, 10
    82dc:	00086518 	andeq	r6, r8, r8, lsl r5
    82e0:	0a007800 	beq	262e8 <__bss_end__+0x1c180>
    82e4:	00000305 	andeq	r0, r0, r5, lsl #6
    82e8:	00000865 	andeq	r0, r0, r5, ror #16
    82ec:	00002c0b 	andeq	r2, r0, fp, lsl #24
    82f0:	0a001d00 	beq	f6f8 <__bss_end__+0x5590>
    82f4:	0000002c 	andeq	r0, r0, ip, lsr #32
    82f8:	00000875 	andeq	r0, r0, r5, ror r8
    82fc:	00002c0b 	andeq	r2, r0, fp, lsl #24
    8300:	1c001d00 	stcne	13, cr1, [r0], {-0}
    8304:	027e05f0 	rsbseq	r0, lr, #240, 10	; 0x3c000000
    8308:	00089a03 	andeq	r9, r8, r3, lsl #20
    830c:	04161d00 	ldreq	r1, [r6], #-3328	; 0xfffff300
    8310:	95050000 	strls	r0, [r5, #-0]
    8314:	06e90b02 	strbteq	r0, [r9], r2, lsl #22
    8318:	f21d0000 	vhadd.s16	d0, d13, d0
    831c:	05000004 	streq	r0, [r0, #-4]
    8320:	2e0b029e 	mcrcs	2, 0, r0, cr11, cr14, {4}
    8324:	00000008 	andeq	r0, r0, r8
    8328:	00011d0a 	andeq	r1, r1, sl, lsl #26
    832c:	0008aa00 	andeq	sl, r8, r0, lsl #20
    8330:	002c0b00 	eoreq	r0, ip, r0, lsl #22
    8334:	00180000 	andseq	r0, r8, r0
    8338:	00008406 	andeq	r8, r0, r6, lsl #8
    833c:	aa040500 	bge	109744 <__bss_end__+0xff5dc>
    8340:	1e000008 	cdpne	0, 0, cr0, cr0, cr8, {0}
    8344:	000008c0 	andeq	r0, r0, r0, asr #17
    8348:	00046c16 	andeq	r6, r4, r6, lsl ip
    834c:	04050000 	streq	r0, [r5], #-0
    8350:	000008b5 			; <UNDEFINED> instruction: 0x000008b5
    8354:	018f0405 	orreq	r0, pc, r5, lsl #8
    8358:	d71e0000 	ldrle	r0, [lr, -r0]
    835c:	16000008 	strne	r0, [r0], -r8
    8360:	00000025 	andeq	r0, r0, r5, lsr #32
    8364:	dd040500 	cfstr32le	mvfx0, [r4, #-0]
    8368:	05000008 	streq	r0, [r0, #-8]
    836c:	0008cc04 	andeq	ip, r8, r4, lsl #24
    8370:	064e0a00 	strbeq	r0, [lr], -r0, lsl #20
    8374:	08f30000 	ldmeq	r3!, {}^	; <UNPREDICTABLE>
    8378:	2c0b0000 	stccs	0, cr0, [fp], {-0}
    837c:	02000000 	andeq	r0, r0, #0
    8380:	048e1f00 	streq	r1, [lr], #3840	; 0xf00
    8384:	2e050000 	cdpcs	0, 0, cr0, cr5, cr0, {0}
    8388:	046c1703 	strbteq	r1, [ip], #-1795	; 0xfffff8fd
    838c:	871f0000 	ldrhi	r0, [pc, -r0]
    8390:	05000004 	streq	r0, [r0, #-4]
    8394:	721d032f 	andsvc	r0, sp, #-1140850688	; 0xbc000000
    8398:	15000004 	strne	r0, [r0, #-4]
    839c:	00000025 	andeq	r0, r0, r5, lsr #32
    83a0:	0000091c 	andeq	r0, r0, ip, lsl r9
    83a4:	00002516 	andeq	r2, r0, r6, lsl r5
    83a8:	d1200000 			; <UNDEFINED> instruction: 0xd1200000
    83ac:	06000001 	streq	r0, [r0], -r1
    83b0:	09280e1d 	stmdbeq	r8!, {r0, r2, r3, r4, r9, sl, fp}
    83b4:	04050000 	streq	r0, [r5], #-0
    83b8:	0000090d 	andeq	r0, r0, sp, lsl #18
    83bc:	00002515 	andeq	r2, r0, r5, lsl r5
    83c0:	00093d00 	andeq	r3, r9, r0, lsl #26
    83c4:	05e41600 	strbeq	r1, [r4, #1536]!	; 0x600
    83c8:	20000000 	andcs	r0, r0, r0
    83cc:	00000773 	andeq	r0, r0, r3, ror r7
    83d0:	490e2206 	stmdbmi	lr, {r1, r2, r9, sp}
    83d4:	05000009 	streq	r0, [r0, #-9]
    83d8:	00092e04 	andeq	r2, r9, r4, lsl #28
    83dc:	08482100 	stmdaeq	r8, {r8, sp}^
    83e0:	0d010000 	stceq	0, cr0, [r1, #-0]
    83e4:	00918006 	addseq	r8, r1, r6
    83e8:	00002c00 	andeq	r2, r0, r0, lsl #24
    83ec:	b89c0100 	ldmlt	ip, {r8}
    83f0:	20000009 	andcs	r0, r0, r9
    83f4:	00000858 	andeq	r0, r0, r8, asr r8
    83f8:	25100e01 	ldrcs	r0, [r0, #-3585]	; 0xfffff1ff
    83fc:	20000000 	andcs	r0, r0, r0
    8400:	00000866 	andeq	r0, r0, r6, ror #16
    8404:	251f0e01 	ldrcs	r0, [pc, #-3585]	; 760b <_start-0x9f5>
    8408:	22000000 	andcs	r0, r0, #0
    840c:	00000034 	andeq	r0, r0, r4, lsr r0
    8410:	23070f01 	movwcs	r0, #32513	; 0x7f01
    8414:	00737362 	rsbseq	r7, r3, r2, ror #6
    8418:	b80a1101 	stmdalt	sl, {r0, r8, ip}
    841c:	35000009 	strcc	r0, [r0, #-9]
    8420:	2f000012 	svccs	0x00000012
    8424:	24000012 	strcs	r0, [r0], #-18	; 0xffffffee
    8428:	00000850 	andeq	r0, r0, r0, asr r8
    842c:	b80a1201 	stmdalt	sl, {r0, r9, ip}
    8430:	25000009 	strcs	r0, [r0, #-9]
    8434:	000091a0 	andeq	r9, r0, r0, lsr #3
    8438:	000009be 			; <UNDEFINED> instruction: 0x000009be
    843c:	0091a425 	addseq	sl, r1, r5, lsr #8
    8440:	0009ca00 	andeq	ip, r9, r0, lsl #20
    8444:	04050000 	streq	r0, [r5], #-0
    8448:	00000025 	andeq	r0, r0, r5, lsr #32
    844c:	00003426 	andeq	r3, r0, r6, lsr #8
    8450:	00003400 	andeq	r3, r0, r0, lsl #8
    8454:	06d70600 	ldrbeq	r0, [r7], r0, lsl #12
    8458:	00028d26 	andeq	r8, r2, r6, lsr #26
    845c:	00028d00 	andeq	r8, r2, r0, lsl #26
    8460:	06650600 	strbteq	r0, [r5], -r0, lsl #12
    8464:	000a9b00 	andeq	r9, sl, r0, lsl #22
    8468:	6d000400 	cfstrsvs	mvf0, [r0, #-0]
    846c:	0400001a 	streq	r0, [r0], #-26	; 0xffffffe6
    8470:	0002fd01 	andeq	pc, r2, r1, lsl #26
    8474:	08b20c00 	ldmeq	r2!, {sl, fp}
    8478:	06cc0000 	strbeq	r0, [ip], r0
    847c:	00680000 	rsbeq	r0, r8, r0
    8480:	00000000 	andeq	r0, r0, r0
    8484:	17d70000 	ldrbne	r0, [r7, r0]
    8488:	04020000 	streq	r0, [r2], #-0
    848c:	746e6905 	strbtvc	r6, [lr], #-2309	; 0xfffff6fb
    8490:	00250300 	eoreq	r0, r5, r0, lsl #6
    8494:	04040000 	streq	r0, [r4], #-0
    8498:	00006607 	andeq	r6, r0, r7, lsl #12
    849c:	06010400 	streq	r0, [r1], -r0, lsl #8
    84a0:	000002ec 	andeq	r0, r0, ip, ror #5
    84a4:	85050204 	strhi	r0, [r5, #-516]	; 0xfffffdfc
    84a8:	04000003 	streq	r0, [r0], #-3
    84ac:	00ac0504 	adceq	r0, ip, r4, lsl #10
    84b0:	08040000 	stmdaeq	r4, {}	; <UNPREDICTABLE>
    84b4:	0000a705 	andeq	sl, r0, r5, lsl #14
    84b8:	08010400 	stmdaeq	r1, {sl}
    84bc:	000002ea 	andeq	r0, r0, sl, ror #5
    84c0:	22070204 	andcs	r0, r7, #4, 4	; 0x40000000
    84c4:	04000002 	streq	r0, [r0], #-2
    84c8:	00610704 	rsbeq	r0, r1, r4, lsl #14
    84cc:	08040000 	stmdaeq	r4, {}	; <UNPREDICTABLE>
    84d0:	00005c07 	andeq	r5, r0, r7, lsl #24
    84d4:	02650500 	rsbeq	r0, r5, #0, 10
    84d8:	22020000 	andcs	r0, r2, #0
    84dc:	00007c19 	andeq	r7, r0, r9, lsl ip
    84e0:	82040600 	andhi	r0, r4, #0, 12
    84e4:	07000000 	streq	r0, [r0, -r0]
    84e8:	0000042b 	andeq	r0, r0, fp, lsr #8
    84ec:	0002cb05 	andeq	ip, r2, r5, lsl #22
    84f0:	0e2c0300 	cdpeq	3, 2, cr0, cr12, cr0, {0}
    84f4:	00000046 	andeq	r0, r0, r6, asr #32
    84f8:	00044005 	andeq	r4, r4, r5
    84fc:	0e720300 	cdpeq	3, 7, cr0, cr2, cr0, {0}
    8500:	00000046 	andeq	r0, r0, r6, asr #32
    8504:	00026d08 	andeq	r6, r2, r8, lsl #26
    8508:	015e0400 	cmpeq	lr, r0, lsl #8
    850c:	00003117 	andeq	r3, r0, r7, lsl r1
    8510:	03040900 	movweq	r0, #18688	; 0x4900
    8514:	00ce03a6 	sbceq	r0, lr, r6, lsr #7
    8518:	5f0a0000 	svcpl	0x000a0000
    851c:	03000002 	movweq	r0, #2
    8520:	009f0ca8 	addseq	r0, pc, r8, lsr #25
    8524:	e20a0000 	and	r0, sl, #0
    8528:	03000001 	movweq	r0, #1
    852c:	00ce13a9 	sbceq	r1, lr, r9, lsr #7
    8530:	0b000000 	bleq	8538 <check_block+0x24>
    8534:	00000054 	andeq	r0, r0, r4, asr r0
    8538:	000000de 	ldrdeq	r0, [r0], -lr
    853c:	0000310c 	andeq	r3, r0, ip, lsl #2
    8540:	0d000300 	stceq	3, cr0, [r0, #-0]
    8544:	09a30308 	stmibeq	r3!, {r3, r8, r9}
    8548:	00000102 	andeq	r0, r0, r2, lsl #2
    854c:	0004230e 	andeq	r2, r4, lr, lsl #6
    8550:	07a50300 	streq	r0, [r5, r0, lsl #6]!
    8554:	00000025 	andeq	r0, r0, r5, lsr #32
    8558:	04320e00 	ldrteq	r0, [r2], #-3584	; 0xfffff200
    855c:	aa030000 	bge	c8564 <__bss_end__+0xbe3fc>
    8560:	0000ac05 	andeq	sl, r0, r5, lsl #24
    8564:	05000400 	streq	r0, [r0, #-1024]	; 0xfffffc00
    8568:	000003ad 	andeq	r0, r0, sp, lsr #7
    856c:	de03ab03 	vmlale.f64	d10, d3, d3
    8570:	05000000 	streq	r0, [r0, #-0]
    8574:	0000019f 	muleq	r0, pc, r1	; <UNPREDICTABLE>
    8578:	701baf03 	andsvc	sl, fp, r3, lsl #30
    857c:	0f000000 	svceq	0x00000000
    8580:	22040604 	andcs	r0, r4, #4, 12	; 0x400000
    8584:	04000001 	streq	r0, [r0], #-1
    8588:	02f30801 	rscseq	r0, r3, #65536	; 0x10000
    858c:	22030000 	andcs	r0, r3, #0
    8590:	05000001 	streq	r0, [r0, #-1]
    8594:	00000472 	andeq	r0, r0, r2, ror r4
    8598:	62191605 	andsvs	r1, r9, #5242880	; 0x500000
    859c:	10000000 	andne	r0, r0, r0
    85a0:	000001b0 			; <UNDEFINED> instruction: 0x000001b0
    85a4:	082f0518 	stmdaeq	pc!, {r3, r4, r8, sl}	; <UNPREDICTABLE>
    85a8:	00000194 	muleq	r0, r4, r1
    85ac:	0003ce0e 	andeq	ip, r3, lr, lsl #28
    85b0:	13310500 	teqne	r1, #0, 10
    85b4:	00000194 	muleq	r0, r4, r1
    85b8:	6b5f1100 	blvs	17cc9c0 <__bss_end__+0x17c2858>
    85bc:	07320500 	ldreq	r0, [r2, -r0, lsl #10]!
    85c0:	00000025 	andeq	r0, r0, r5, lsr #32
    85c4:	040e0e04 	streq	r0, [lr], #-3588	; 0xfffff1fc
    85c8:	32050000 	andcc	r0, r5, #0
    85cc:	0000250b 	andeq	r2, r0, fp, lsl #10
    85d0:	990e0800 	stmdbls	lr, {fp}
    85d4:	05000001 	streq	r0, [r0, #-1]
    85d8:	00251432 	eoreq	r1, r5, r2, lsr r4
    85dc:	0e0c0000 	cdpeq	0, 0, cr0, cr12, cr0, {0}
    85e0:	000004b2 			; <UNDEFINED> instruction: 0x000004b2
    85e4:	251b3205 	ldrcs	r3, [fp, #-517]	; 0xfffffdfb
    85e8:	10000000 	andne	r0, r0, r0
    85ec:	00785f11 	rsbseq	r5, r8, r1, lsl pc
    85f0:	9a0b3305 	bls	2d520c <__bss_end__+0x2cb0a4>
    85f4:	14000001 	strne	r0, [r0], #-1
    85f8:	3a040600 	bcc	109e00 <__bss_end__+0xffc98>
    85fc:	0b000001 	bleq	8608 <ckfree+0x1c>
    8600:	0000012e 	andeq	r0, r0, lr, lsr #2
    8604:	000001aa 	andeq	r0, r0, sl, lsr #3
    8608:	0000310c 	andeq	r3, r0, ip, lsl #2
    860c:	10000000 	andne	r0, r0, r0
    8610:	000001dd 	ldrdeq	r0, [r0], -sp
    8614:	08370524 	ldmdaeq	r7!, {r2, r5, r8, sl}
    8618:	0000022d 	andeq	r0, r0, sp, lsr #4
    861c:	00009e0e 	andeq	r9, r0, lr, lsl #28
    8620:	09390500 	ldmdbeq	r9!, {r8, sl}
    8624:	00000025 	andeq	r0, r0, r5, lsr #32
    8628:	04480e00 	strbeq	r0, [r8], #-3584	; 0xfffff200
    862c:	3a050000 	bcc	148634 <__bss_end__+0x13e4cc>
    8630:	00002509 	andeq	r2, r0, r9, lsl #10
    8634:	c10e0400 	tstgt	lr, r0, lsl #8
    8638:	05000000 	streq	r0, [r0, #-0]
    863c:	0025093b 	eoreq	r0, r5, fp, lsr r9
    8640:	0e080000 	cdpeq	0, 0, cr0, cr8, cr0, {0}
    8644:	00000533 	andeq	r0, r0, r3, lsr r5
    8648:	25093c05 	strcs	r3, [r9, #-3077]	; 0xfffff3fb
    864c:	0c000000 	stceq	0, cr0, [r0], {-0}
    8650:	0002af0e 	andeq	sl, r2, lr, lsl #30
    8654:	093d0500 	ldmdbeq	sp!, {r8, sl}
    8658:	00000025 	andeq	r0, r0, r5, lsr #32
    865c:	02830e10 	addeq	r0, r3, #16, 28	; 0x100
    8660:	3e050000 	cdpcc	0, 0, cr0, cr5, cr0, {0}
    8664:	00002509 	andeq	r2, r0, r9, lsl #10
    8668:	b70e1400 	strlt	r1, [lr, -r0, lsl #8]
    866c:	05000004 	streq	r0, [r0, #-4]
    8670:	0025093f 	eoreq	r0, r5, pc, lsr r9
    8674:	0e180000 	cdpeq	0, 1, cr0, cr8, cr0, {0}
    8678:	0000038f 	andeq	r0, r0, pc, lsl #7
    867c:	25094005 	strcs	r4, [r9, #-5]
    8680:	1c000000 	stcne	0, cr0, [r0], {-0}
    8684:	0004fa0e 	andeq	pc, r4, lr, lsl #20
    8688:	09410500 	stmdbeq	r1, {r8, sl}^
    868c:	00000025 	andeq	r0, r0, r5, lsr #32
    8690:	01120020 	tsteq	r2, r0, lsr #32
    8694:	08000001 	stmdaeq	r0, {r0}
    8698:	084a0501 	stmdaeq	sl, {r0, r8, sl}^
    869c:	00000272 	andeq	r0, r0, r2, ror r2
    86a0:	00018c0e 	andeq	r8, r1, lr, lsl #24
    86a4:	0a4b0500 	beq	12c9aac <__bss_end__+0x12bf944>
    86a8:	00000272 	andeq	r0, r0, r2, ror r2
    86ac:	00000e00 	andeq	r0, r0, r0, lsl #28
    86b0:	4c050000 	stcmi	0, cr0, [r5], {-0}
    86b4:	00027209 	andeq	r7, r2, r9, lsl #4
    86b8:	64138000 	ldrvs	r8, [r3], #-0
    86bc:	05000004 	streq	r0, [r0, #-4]
    86c0:	012e0a4e 			; <UNDEFINED> instruction: 0x012e0a4e
    86c4:	01000000 	mrseq	r0, (UNDEF: 0)
    86c8:	00012613 	andeq	r2, r1, r3, lsl r6
    86cc:	0a510500 	beq	1449ad4 <__bss_end__+0x143f96c>
    86d0:	0000012e 	andeq	r0, r0, lr, lsr #2
    86d4:	0b000104 	bleq	8aec <fast_hash+0xdc>
    86d8:	0000011a 	andeq	r0, r0, sl, lsl r1
    86dc:	00000282 	andeq	r0, r0, r2, lsl #5
    86e0:	0000310c 	andeq	r3, r0, ip, lsl #2
    86e4:	12001f00 	andne	r1, r0, #0, 30
    86e8:	000002b8 			; <UNDEFINED> instruction: 0x000002b8
    86ec:	5d050190 	stfpls	f0, [r5, #-576]	; 0xfffffdc0
    86f0:	0002c508 	andeq	ip, r2, r8, lsl #10
    86f4:	03ce0e00 	biceq	r0, lr, #0, 28
    86f8:	5e050000 	cdppl	0, 0, cr0, cr5, cr0, {0}
    86fc:	0002c512 	andeq	ip, r2, r2, lsl r5
    8700:	e60e0000 	str	r0, [lr], -r0
    8704:	05000003 	streq	r0, [r0, #-3]
    8708:	0025065f 	eoreq	r0, r5, pc, asr r6
    870c:	0e040000 	cdpeq	0, 0, cr0, cr4, cr0, {0}
    8710:	00000194 	muleq	r0, r4, r1
    8714:	cb096105 	blgt	260b30 <__bss_end__+0x2569c8>
    8718:	08000002 	stmdaeq	r0, {r1}
    871c:	0001010e 	andeq	r0, r1, lr, lsl #2
    8720:	1e620500 	cdpne	5, 6, cr0, cr2, cr0, {0}
    8724:	0000022d 	andeq	r0, r0, sp, lsr #4
    8728:	04060088 	streq	r0, [r6], #-136	; 0xffffff78
    872c:	00000282 	andeq	r0, r0, r2, lsl #5
    8730:	0002db0b 	andeq	sp, r2, fp, lsl #22
    8734:	0002db00 	andeq	sp, r2, r0, lsl #22
    8738:	00310c00 	eorseq	r0, r1, r0, lsl #24
    873c:	001f0000 	andseq	r0, pc, r0
    8740:	02e10406 	rsceq	r0, r1, #100663296	; 0x6000000
    8744:	10140000 	andsne	r0, r4, r0
    8748:	00000399 	muleq	r0, r9, r3
    874c:	08750508 	ldmdaeq	r5!, {r3, r8, sl}^
    8750:	0000030a 	andeq	r0, r0, sl, lsl #6
    8754:	0000bb0e 	andeq	fp, r0, lr, lsl #22
    8758:	11760500 	cmnne	r6, r0, lsl #10
    875c:	0000030a 	andeq	r0, r0, sl, lsl #6
    8760:	001b0e00 	andseq	r0, fp, r0, lsl #28
    8764:	77050000 	strvc	r0, [r5, -r0]
    8768:	00002506 	andeq	r2, r0, r6, lsl #10
    876c:	06000400 	streq	r0, [r0], -r0, lsl #8
    8770:	00005404 	andeq	r5, r0, r4, lsl #8
    8774:	03b81000 			; <UNDEFINED> instruction: 0x03b81000
    8778:	05680000 	strbeq	r0, [r8, #-0]!
    877c:	045308b5 	ldrbeq	r0, [r3], #-2229	; 0xfffff74b
    8780:	5f110000 	svcpl	0x00110000
    8784:	b6050070 			; <UNDEFINED> instruction: 0xb6050070
    8788:	00030a12 	andeq	r0, r3, r2, lsl sl
    878c:	5f110000 	svcpl	0x00110000
    8790:	b7050072 	smlsdxlt	r5, r2, r0, r0
    8794:	00002507 	andeq	r2, r0, r7, lsl #10
    8798:	5f110400 	svcpl	0x00110400
    879c:	b8050077 	stmdalt	r5, {r0, r1, r2, r4, r5, r6}
    87a0:	00002507 	andeq	r2, r0, r7, lsl #10
    87a4:	1f0e0800 	svcne	0x000e0800
    87a8:	05000001 	streq	r0, [r0, #-1]
    87ac:	003f09b9 	ldrhteq	r0, [pc], -r9
    87b0:	0e0c0000 	cdpeq	0, 0, cr0, cr12, cr0, {0}
    87b4:	00000208 	andeq	r0, r0, r8, lsl #4
    87b8:	3f09ba05 	svccc	0x0009ba05
    87bc:	0e000000 	cdpeq	0, 0, cr0, cr0, cr0, {0}
    87c0:	66625f11 	uqadd16vs	r5, r2, r1
    87c4:	11bb0500 			; <UNDEFINED> instruction: 0x11bb0500
    87c8:	000002e2 	andeq	r0, r0, r2, ror #5
    87cc:	007b0e10 	rsbseq	r0, fp, r0, lsl lr
    87d0:	bc050000 	stclt	0, cr0, [r5], {-0}
    87d4:	00002507 	andeq	r2, r0, r7, lsl #10
    87d8:	0f0e1800 	svceq	0x000e1800
    87dc:	05000001 	streq	r0, [r0, #-1]
    87e0:	011a0ac3 	tsteq	sl, r3, asr #21
    87e4:	0e1c0000 	cdpeq	0, 1, cr0, cr12, cr0, {0}
    87e8:	00000b59 	andeq	r0, r0, r9, asr fp
    87ec:	c51dc505 	ldrgt	ip, [sp, #-1285]	; 0xfffffafb
    87f0:	20000005 	andcs	r0, r0, r5
    87f4:	00061d0e 	andeq	r1, r6, lr, lsl #26
    87f8:	1dc70500 	cfstr64ne	mvdx0, [r7]
    87fc:	000005ef 	andeq	r0, r0, pc, ror #11
    8800:	043a0e24 	ldrteq	r0, [sl], #-3620	; 0xfffff1dc
    8804:	ca050000 	bgt	14880c <__bss_end__+0x13e6a4>
    8808:	0006130d 	andeq	r1, r6, sp, lsl #6
    880c:	140e2800 	strne	r2, [lr], #-2048	; 0xfffff800
    8810:	05000005 	streq	r0, [r0, #-5]
    8814:	062d09cb 	strteq	r0, [sp], -fp, asr #19
    8818:	112c0000 			; <UNDEFINED> instruction: 0x112c0000
    881c:	0062755f 	rsbeq	r7, r2, pc, asr r5
    8820:	e211ce05 	ands	ip, r1, #5, 28	; 0x50
    8824:	30000002 	andcc	r0, r0, r2
    8828:	70755f11 	rsbsvc	r5, r5, r1, lsl pc
    882c:	12cf0500 	sbcne	r0, pc, #0, 10
    8830:	0000030a 	andeq	r0, r0, sl, lsl #6
    8834:	755f1138 	ldrbvc	r1, [pc, #-312]	; 8704 <ckalloc+0x60>
    8838:	d0050072 	andle	r0, r5, r2, ror r0
    883c:	00002507 	andeq	r2, r0, r7, lsl #10
    8840:	b50e3c00 	strlt	r3, [lr, #-3072]	; 0xfffff400
    8844:	05000000 	streq	r0, [r0, #-0]
    8848:	063311d3 			; <UNDEFINED> instruction: 0x063311d3
    884c:	0e400000 	cdpeq	0, 4, cr0, cr0, cr0, {0}
    8850:	000004ec 	andeq	r0, r0, ip, ror #9
    8854:	4311d405 	tstmi	r1, #83886080	; 0x5000000
    8858:	43000006 	movwmi	r0, #6
    885c:	626c5f11 	rsbvs	r5, ip, #17, 30	; 0x44
    8860:	11d70500 	bicsne	r0, r7, r0, lsl #10
    8864:	000002e2 	andeq	r0, r0, r2, ror #5
    8868:	013d0e44 	teqeq	sp, r4, asr #28
    886c:	da050000 	ble	148874 <__bss_end__+0x13e70c>
    8870:	00002507 	andeq	r2, r0, r7, lsl #10
    8874:	4e0e4c00 	cdpmi	12, 0, cr4, cr14, cr0, {0}
    8878:	05000001 	streq	r0, [r0, #-1]
    887c:	00870adb 	ldrdeq	r0, [r7], fp
    8880:	0e500000 	cdpeq	0, 5, cr0, cr0, cr0, {0}
    8884:	00000afa 	strdeq	r0, [r0], -sl
    8888:	7112de05 	tstvc	r2, r5, lsl #28
    888c:	54000004 	strpl	r0, [r0], #-4
    8890:	00042c0e 	andeq	r2, r4, lr, lsl #24
    8894:	0ce20500 	cfstr64eq	mvdx0, [r2]
    8898:	0000010e 	andeq	r0, r0, lr, lsl #2
    889c:	03c00e58 	biceq	r0, r0, #88, 28	; 0x580
    88a0:	e4050000 	str	r0, [r5], #-0
    88a4:	0001020e 	andeq	r0, r1, lr, lsl #4
    88a8:	7b0e5c00 	blvc	39f8b0 <__bss_end__+0x395748>
    88ac:	05000002 	streq	r0, [r0, #-2]
    88b0:	002509e5 	eoreq	r0, r5, r5, ror #19
    88b4:	00640000 	rsbeq	r0, r4, r0
    88b8:	00002515 	andeq	r2, r0, r5, lsl r5
    88bc:	00047100 	andeq	r7, r4, r0, lsl #2
    88c0:	04711600 	ldrbteq	r1, [r1], #-1536	; 0xfffffa00
    88c4:	1a160000 	bne	5888cc <__bss_end__+0x57e764>
    88c8:	16000001 	strne	r0, [r0], -r1
    88cc:	0000011c 	andeq	r0, r0, ip, lsl r1
    88d0:	00002516 	andeq	r2, r0, r6, lsl r5
    88d4:	04060000 	streq	r0, [r6], #-0
    88d8:	0000047c 	andeq	r0, r0, ip, ror r4
    88dc:	00047103 	andeq	r7, r4, r3, lsl #2
    88e0:	04161700 	ldreq	r1, [r6], #-1792	; 0xfffff900
    88e4:	04280000 	strteq	r0, [r8], #-0
    88e8:	08026005 	stmdaeq	r2, {r0, r2, sp, lr}
    88ec:	000005c5 	andeq	r0, r0, r5, asr #11
    88f0:	00037e18 	andeq	r7, r3, r8, lsl lr
    88f4:	02620500 	rsbeq	r0, r2, #0, 10
    88f8:	00002507 	andeq	r2, r0, r7, lsl #10
    88fc:	2e180000 	cdpcs	0, 1, cr0, cr8, cr0, {0}
    8900:	05000001 	streq	r0, [r0, #-1]
    8904:	9f0b0267 	svcls	0x000b0267
    8908:	04000006 	streq	r0, [r0], #-6
    890c:	0001f818 	andeq	pc, r1, r8, lsl r8	; <UNPREDICTABLE>
    8910:	02670500 	rsbeq	r0, r7, #0, 10
    8914:	00069f14 	andeq	r9, r6, r4, lsl pc
    8918:	a8180800 	ldmdage	r8, {fp}
    891c:	05000001 	streq	r0, [r0, #-1]
    8920:	9f1e0267 	svcls	0x001e0267
    8924:	0c000006 	stceq	0, cr0, [r0], {6}
    8928:	0003e118 	andeq	lr, r3, r8, lsl r1
    892c:	02690500 	rsbeq	r0, r9, #0, 10
    8930:	00002508 	andeq	r2, r0, r8, lsl #10
    8934:	29181000 	ldmdbcs	r8, {ip}
    8938:	05000000 	streq	r0, [r0, #-0]
    893c:	9f08026a 	svcls	0x0008026a
    8940:	14000008 	strne	r0, [r0], #-8
    8944:	0003f518 	andeq	pc, r3, r8, lsl r5	; <UNPREDICTABLE>
    8948:	026d0500 	rsbeq	r0, sp, #0, 10
    894c:	00002507 	andeq	r2, r0, r7, lsl #10
    8950:	36183000 	ldrcc	r3, [r8], -r0
    8954:	0500000a 	streq	r0, [r0, #-10]
    8958:	b416026e 	ldrlt	r0, [r6], #-622	; 0xfffffd92
    895c:	34000008 	strcc	r0, [r0], #-8
    8960:	0002c018 	andeq	ip, r2, r8, lsl r0
    8964:	02700500 	rsbseq	r0, r0, #0, 10
    8968:	00002507 	andeq	r2, r0, r7, lsl #10
    896c:	eb183800 	bl	616974 <__bss_end__+0x60c80c>
    8970:	05000003 	streq	r0, [r0, #-3]
    8974:	c50a0272 	strgt	r0, [sl, #-626]	; 0xfffffd8e
    8978:	3c000008 	stccc	0, cr0, [r0], {8}
    897c:	00025718 	andeq	r5, r2, r8, lsl r7
    8980:	02750500 	rsbseq	r0, r5, #0, 10
    8984:	00019413 	andeq	r9, r1, r3, lsl r4
    8988:	c7184000 	ldrgt	r4, [r8, -r0]
    898c:	05000001 	streq	r0, [r0, #-1]
    8990:	25070276 	strcs	r0, [r7, #-630]	; 0xfffffd8a
    8994:	44000000 	strmi	r0, [r0], #-0
    8998:	00052e18 	andeq	r2, r5, r8, lsl lr
    899c:	02770500 	rsbseq	r0, r7, #0, 10
    89a0:	00019413 	andeq	r9, r1, r3, lsl r4
    89a4:	d2184800 	andsle	r4, r8, #0, 16
    89a8:	05000002 	streq	r0, [r0, #-2]
    89ac:	cb140278 	blgt	509394 <__bss_end__+0x4ff22c>
    89b0:	4c000008 	stcmi	0, cr0, [r0], {8}
    89b4:	00020018 	andeq	r0, r2, r8, lsl r0
    89b8:	027b0500 	rsbseq	r0, fp, #0, 10
    89bc:	00002507 	andeq	r2, r0, r7, lsl #10
    89c0:	46185000 	ldrmi	r5, [r8], -r0
    89c4:	05000001 	streq	r0, [r0, #-1]
    89c8:	1c09027c 	sfmne	f0, 4, [r9], {124}	; 0x7c
    89cc:	54000001 	strpl	r0, [r0], #-1
    89d0:	0002f818 	andeq	pc, r2, r8, lsl r8	; <UNPREDICTABLE>
    89d4:	029f0500 	addseq	r0, pc, #0, 10
    89d8:	00087a07 	andeq	r7, r8, r7, lsl #20
    89dc:	b8195800 	ldmdalt	r9, {fp, ip, lr}
    89e0:	05000002 	streq	r0, [r0, #-2]
    89e4:	c51302a3 	ldrgt	r0, [r3, #-675]	; 0xfffffd5d
    89e8:	48000002 	stmdami	r0, {r1}
    89ec:	02351901 	eorseq	r1, r5, #16384	; 0x4000
    89f0:	a4050000 	strge	r0, [r5], #-0
    89f4:	02821202 	addeq	r1, r2, #536870912	; 0x20000000
    89f8:	014c0000 	mrseq	r0, (UNDEF: 76)
    89fc:	0004da19 	andeq	sp, r4, r9, lsl sl
    8a00:	02a80500 	adceq	r0, r8, #0, 10
    8a04:	0008dc0c 	andeq	sp, r8, ip, lsl #24
    8a08:	1902dc00 	stmdbne	r2, {sl, fp, ip, lr, pc}
    8a0c:	00000117 	andeq	r0, r0, r7, lsl r1
    8a10:	1002ad05 	andne	sl, r2, r5, lsl #26
    8a14:	00000660 	andeq	r0, r0, r0, ror #12
    8a18:	fc1902e0 	ldc2	2, cr0, [r9], {224}	; 0xe0
    8a1c:	05000000 	streq	r0, [r0, #-0]
    8a20:	e80a02af 	stmda	sl, {r0, r1, r2, r3, r5, r7, r9}
    8a24:	ec000008 	stc	0, cr0, [r0], {8}
    8a28:	04060002 	streq	r0, [r6], #-2
    8a2c:	00000453 	andeq	r0, r0, r3, asr r4
    8a30:	00002515 	andeq	r2, r0, r5, lsl r5
    8a34:	0005e900 	andeq	lr, r5, r0, lsl #18
    8a38:	04711600 	ldrbteq	r1, [r1], #-1536	; 0xfffffa00
    8a3c:	1a160000 	bne	588a44 <__bss_end__+0x57e8dc>
    8a40:	16000001 	strne	r0, [r0], -r1
    8a44:	000005e9 	andeq	r0, r0, r9, ror #11
    8a48:	00002516 	andeq	r2, r0, r6, lsl r5
    8a4c:	04060000 	streq	r0, [r6], #-0
    8a50:	00000129 	andeq	r0, r0, r9, lsr #2
    8a54:	05cb0406 	strbeq	r0, [fp, #1030]	; 0x406
    8a58:	93150000 	tstls	r5, #0
    8a5c:	13000000 	movwne	r0, #0
    8a60:	16000006 	strne	r0, [r0], -r6
    8a64:	00000471 	andeq	r0, r0, r1, ror r4
    8a68:	00011a16 	andeq	r1, r1, r6, lsl sl
    8a6c:	00931600 	addseq	r1, r3, r0, lsl #12
    8a70:	25160000 	ldrcs	r0, [r6, #-0]
    8a74:	00000000 	andeq	r0, r0, r0
    8a78:	05f50406 	ldrbeq	r0, [r5, #1030]!	; 0x406
    8a7c:	25150000 	ldrcs	r0, [r5, #-0]
    8a80:	2d000000 	stccs	0, cr0, [r0, #-0]
    8a84:	16000006 	strne	r0, [r0], -r6
    8a88:	00000471 	andeq	r0, r0, r1, ror r4
    8a8c:	00011a16 	andeq	r1, r1, r6, lsl sl
    8a90:	04060000 	streq	r0, [r6], #-0
    8a94:	00000619 	andeq	r0, r0, r9, lsl r6
    8a98:	0000540b 	andeq	r5, r0, fp, lsl #8
    8a9c:	00064300 	andeq	r4, r6, r0, lsl #6
    8aa0:	00310c00 	eorseq	r0, r1, r0, lsl #24
    8aa4:	00020000 	andeq	r0, r2, r0
    8aa8:	0000540b 	andeq	r5, r0, fp, lsl #8
    8aac:	00065300 	andeq	r5, r6, r0, lsl #6
    8ab0:	00310c00 	eorseq	r0, r1, r0, lsl #24
    8ab4:	00000000 	andeq	r0, r0, r0
    8ab8:	0003a608 	andeq	sl, r3, r8, lsl #12
    8abc:	011f0500 	tsteq	pc, r0, lsl #10
    8ac0:	0003101a 	andeq	r1, r3, sl, lsl r0
    8ac4:	04c11a00 	strbeq	r1, [r1], #2560	; 0xa00
    8ac8:	050c0000 	streq	r0, [ip, #-0]
    8acc:	99080123 	stmdbls	r8, {r0, r1, r5, r8}
    8ad0:	18000006 	stmdane	r0, {r1, r2}
    8ad4:	000003ce 	andeq	r0, r0, lr, asr #7
    8ad8:	11012505 	tstne	r1, r5, lsl #10
    8adc:	00000699 	muleq	r0, r9, r6
    8ae0:	021b1800 	andseq	r1, fp, #0, 16
    8ae4:	26050000 	strcs	r0, [r5], -r0
    8ae8:	00250701 	eoreq	r0, r5, r1, lsl #14
    8aec:	18040000 	stmdane	r4, {}	; <UNPREDICTABLE>
    8af0:	000003a0 	andeq	r0, r0, r0, lsr #7
    8af4:	0b012705 	bleq	52710 <__bss_end__+0x485a8>
    8af8:	0000069f 	muleq	r0, pc, r6	; <UNPREDICTABLE>
    8afc:	04060008 	streq	r0, [r6], #-8
    8b00:	00000660 	andeq	r0, r0, r0, ror #12
    8b04:	06530406 	ldrbeq	r0, [r3], -r6, lsl #8
    8b08:	211a0000 	tstcs	sl, r0
    8b0c:	0e000000 	cdpeq	0, 0, cr0, cr0, cr0, {0}
    8b10:	08013f05 	stmdaeq	r1, {r0, r2, r8, r9, sl, fp, ip, sp}
    8b14:	000006de 	ldrdeq	r0, [r0], -lr
    8b18:	00041d18 	andeq	r1, r4, r8, lsl sp
    8b1c:	01400500 	cmpeq	r0, r0, lsl #10
    8b20:	0006de12 	andeq	sp, r6, r2, lsl lr
    8b24:	51180000 	tstpl	r8, r0
    8b28:	05000004 	streq	r0, [r0, #-4]
    8b2c:	de120141 	muflesm	f0, f2, f1
    8b30:	06000006 	streq	r0, [r0], -r6
    8b34:	00046d18 	andeq	r6, r4, r8, lsl sp
    8b38:	01420500 	cmpeq	r2, r0, lsl #10
    8b3c:	00005b12 	andeq	r5, r0, r2, lsl fp
    8b40:	0b000c00 	bleq	bb48 <__bss_end__+0x19e0>
    8b44:	0000005b 	andeq	r0, r0, fp, asr r0
    8b48:	000006ee 	andeq	r0, r0, lr, ror #13
    8b4c:	0000310c 	andeq	r3, r0, ip, lsl #2
    8b50:	1b000200 	blne	9358 <uart_init+0x3c>
    8b54:	028005d0 	addeq	r0, r0, #208, 10	; 0x34000000
    8b58:	00080307 	andeq	r0, r8, r7, lsl #6
    8b5c:	04a51800 	strteq	r1, [r5], #2048	; 0x800
    8b60:	82050000 	andhi	r0, r5, #0
    8b64:	00311802 	eorseq	r1, r1, r2, lsl #16
    8b68:	18000000 	stmdane	r0, {}	; <UNPREDICTABLE>
    8b6c:	00000457 	andeq	r0, r0, r7, asr r4
    8b70:	12028305 	andne	r8, r2, #335544320	; 0x14000000
    8b74:	0000011c 	andeq	r0, r0, ip, lsl r1
    8b78:	024a1804 	subeq	r1, sl, #4, 16	; 0x40000
    8b7c:	84050000 	strhi	r0, [r5], #-0
    8b80:	08031002 	stmdaeq	r3, {r1, ip}
    8b84:	18080000 	stmdane	r8, {}	; <UNPREDICTABLE>
    8b88:	00000505 	andeq	r0, r0, r5, lsl #10
    8b8c:	17028505 	strne	r8, [r2, -r5, lsl #10]
    8b90:	000001aa 	andeq	r0, r0, sl, lsr #3
    8b94:	01b81824 			; <UNDEFINED> instruction: 0x01b81824
    8b98:	86050000 	strhi	r0, [r5], -r0
    8b9c:	00250f02 	eoreq	r0, r5, r2, lsl #30
    8ba0:	18480000 	stmdane	r8, {}^	; <UNPREDICTABLE>
    8ba4:	000003c9 	andeq	r0, r0, r9, asr #7
    8ba8:	2c028705 	stccs	7, cr8, [r2], {5}
    8bac:	00000069 	andeq	r0, r0, r9, rrx
    8bb0:	051b1850 	ldreq	r1, [fp, #-2128]	; 0xfffff7b0
    8bb4:	88050000 	stmdahi	r5, {}	; <UNPREDICTABLE>
    8bb8:	06a51a02 	strteq	r1, [r5], r2, lsl #20
    8bbc:	18580000 	ldmdane	r8, {}^	; <UNPREDICTABLE>
    8bc0:	000003d4 	ldrdeq	r0, [r0], -r4
    8bc4:	16028905 	strne	r8, [r2], -r5, lsl #18
    8bc8:	00000102 	andeq	r0, r0, r2, lsl #2
    8bcc:	05201868 	streq	r1, [r0, #-2152]!	; 0xfffff798
    8bd0:	8a050000 	bhi	148bd8 <__bss_end__+0x13ea70>
    8bd4:	01021602 	tsteq	r2, r2, lsl #12
    8bd8:	18700000 	ldmdane	r0!, {}^	; <UNPREDICTABLE>
    8bdc:	000002dc 	ldrdeq	r0, [r0], -ip
    8be0:	16028b05 	strne	r8, [r2], -r5, lsl #22
    8be4:	00000102 	andeq	r0, r0, r2, lsl #2
    8be8:	04d01878 	ldrbeq	r1, [r0], #2168	; 0x878
    8bec:	8c050000 	stchi	0, cr0, [r5], {-0}
    8bf0:	08131002 	ldmdaeq	r3, {r1, ip}
    8bf4:	18800000 	stmne	r0, {}	; <UNPREDICTABLE>
    8bf8:	0000023e 	andeq	r0, r0, lr, lsr r2
    8bfc:	10028d05 	andne	r8, r2, r5, lsl #26
    8c00:	00000823 	andeq	r0, r0, r3, lsr #16
    8c04:	047a1888 	ldrbteq	r1, [sl], #-2184	; 0xfffff778
    8c08:	8e050000 	cdphi	0, 0, cr0, cr5, cr0, {0}
    8c0c:	00250f02 	eoreq	r0, r5, r2, lsl #30
    8c10:	18a00000 	stmiane	r0!, {}	; <UNPREDICTABLE>
    8c14:	0000017e 	andeq	r0, r0, lr, ror r1
    8c18:	16028f05 	strne	r8, [r2], -r5, lsl #30
    8c1c:	00000102 	andeq	r0, r0, r2, lsl #2
    8c20:	008f18a4 	addeq	r1, pc, r4, lsr #17
    8c24:	90050000 	andls	r0, r5, r0
    8c28:	01021602 	tsteq	r2, r2, lsl #12
    8c2c:	18ac0000 	stmiane	ip!, {}	; <UNPREDICTABLE>
    8c30:	0000016d 	andeq	r0, r0, sp, ror #2
    8c34:	16029105 	strne	r9, [r2], -r5, lsl #2
    8c38:	00000102 	andeq	r0, r0, r2, lsl #2
    8c3c:	003c18b4 	ldrhteq	r1, [ip], -r4
    8c40:	92050000 	andls	r0, r5, #0
    8c44:	01021602 	tsteq	r2, r2, lsl #12
    8c48:	18bc0000 	ldmne	ip!, {}	; <UNPREDICTABLE>
    8c4c:	0000004b 	andeq	r0, r0, fp, asr #32
    8c50:	16029305 	strne	r9, [r2], -r5, lsl #6
    8c54:	00000102 	andeq	r0, r0, r2, lsl #2
    8c58:	037c18c4 	cmneq	ip, #196, 16	; 0xc40000
    8c5c:	94050000 	strls	r0, [r5], #-0
    8c60:	00250802 	eoreq	r0, r5, r2, lsl #16
    8c64:	00cc0000 	sbceq	r0, ip, r0
    8c68:	0001220b 	andeq	r2, r1, fp, lsl #4
    8c6c:	00081300 	andeq	r1, r8, r0, lsl #6
    8c70:	00310c00 	eorseq	r0, r1, r0, lsl #24
    8c74:	00190000 	andseq	r0, r9, r0
    8c78:	0001220b 	andeq	r2, r1, fp, lsl #4
    8c7c:	00082300 	andeq	r2, r8, r0, lsl #6
    8c80:	00310c00 	eorseq	r0, r1, r0, lsl #24
    8c84:	00070000 	andeq	r0, r7, r0
    8c88:	0001220b 	andeq	r2, r1, fp, lsl #4
    8c8c:	00083300 	andeq	r3, r8, r0, lsl #6
    8c90:	00310c00 	eorseq	r0, r1, r0, lsl #24
    8c94:	00170000 	andseq	r0, r7, r0
    8c98:	9905f01b 	stmdbls	r5, {r0, r1, r3, r4, ip, sp, lr, pc}
    8c9c:	085a0702 	ldmdaeq	sl, {r1, r8, r9, sl}^
    8ca0:	a8180000 	ldmdage	r8, {}	; <UNPREDICTABLE>
    8ca4:	05000002 	streq	r0, [r0, #-2]
    8ca8:	5a1b029c 	bpl	6c9720 <__bss_end__+0x6bf5b8>
    8cac:	00000008 	andeq	r0, r0, r8
    8cb0:	0004c718 	andeq	ip, r4, r8, lsl r7
    8cb4:	029d0500 	addseq	r0, sp, #0, 10
    8cb8:	00086a18 	andeq	r6, r8, r8, lsl sl
    8cbc:	0b007800 	bleq	26cc4 <__bss_end__+0x1cb5c>
    8cc0:	0000030a 	andeq	r0, r0, sl, lsl #6
    8cc4:	0000086a 	andeq	r0, r0, sl, ror #16
    8cc8:	0000310c 	andeq	r3, r0, ip, lsl #2
    8ccc:	0b001d00 	bleq	100d4 <__bss_end__+0x5f6c>
    8cd0:	00000031 	andeq	r0, r0, r1, lsr r0
    8cd4:	0000087a 	andeq	r0, r0, sl, ror r8
    8cd8:	0000310c 	andeq	r3, r0, ip, lsl #2
    8cdc:	1c001d00 	stcne	13, cr1, [r0], {-0}
    8ce0:	027e05f0 	rsbseq	r0, lr, #240, 10	; 0x3c000000
    8ce4:	00089f03 	andeq	r9, r8, r3, lsl #30
    8ce8:	04161d00 	ldreq	r1, [r6], #-3328	; 0xfffff300
    8cec:	95050000 	strls	r0, [r5, #-0]
    8cf0:	06ee0b02 	strbteq	r0, [lr], r2, lsl #22
    8cf4:	f21d0000 	vhadd.s16	d0, d13, d0
    8cf8:	05000004 	streq	r0, [r0, #-4]
    8cfc:	330b029e 	movwcc	r0, #45726	; 0xb29e
    8d00:	00000008 	andeq	r0, r0, r8
    8d04:	0001220b 	andeq	r2, r1, fp, lsl #4
    8d08:	0008af00 	andeq	sl, r8, r0, lsl #30
    8d0c:	00310c00 	eorseq	r0, r1, r0, lsl #24
    8d10:	00180000 	andseq	r0, r8, r0
    8d14:	00008407 	andeq	r8, r0, r7, lsl #8
    8d18:	af040600 	svcge	0x00040600
    8d1c:	1e000008 	cdpne	0, 0, cr0, cr0, cr8, {0}
    8d20:	000008c5 	andeq	r0, r0, r5, asr #17
    8d24:	00047116 	andeq	r7, r4, r6, lsl r1
    8d28:	04060000 	streq	r0, [r6], #-0
    8d2c:	000008ba 			; <UNDEFINED> instruction: 0x000008ba
    8d30:	01940406 	orrseq	r0, r4, r6, lsl #8
    8d34:	dc1e0000 	ldcle	0, cr0, [lr], {-0}
    8d38:	16000008 	strne	r0, [r0], -r8
    8d3c:	00000025 	andeq	r0, r0, r5, lsr #32
    8d40:	e2040600 	and	r0, r4, #0, 12
    8d44:	06000008 	streq	r0, [r0], -r8
    8d48:	0008d104 	andeq	sp, r8, r4, lsl #2
    8d4c:	06530b00 	ldrbeq	r0, [r3], -r0, lsl #22
    8d50:	08f80000 	ldmeq	r8!, {}^	; <UNPREDICTABLE>
    8d54:	310c0000 	mrscc	r0, (UNDEF: 12)
    8d58:	02000000 	andeq	r0, r0, #0
    8d5c:	048e1f00 	streq	r1, [lr], #3840	; 0xf00
    8d60:	2e050000 	cdpcs	0, 0, cr0, cr5, cr0, {0}
    8d64:	04711703 	ldrbteq	r1, [r1], #-1795	; 0xfffff8fd
    8d68:	871f0000 	ldrhi	r0, [pc, -r0]
    8d6c:	05000004 	streq	r0, [r0, #-4]
    8d70:	771d032f 	ldrvc	r0, [sp, -pc, lsr #6]
    8d74:	15000004 	strne	r0, [r0, #-4]
    8d78:	00000025 	andeq	r0, r0, r5, lsr #32
    8d7c:	00000921 	andeq	r0, r0, r1, lsr #18
    8d80:	00002516 	andeq	r2, r0, r6, lsl r5
    8d84:	d1200000 			; <UNDEFINED> instruction: 0xd1200000
    8d88:	06000001 	streq	r0, [r0], -r1
    8d8c:	092d0e1d 	pusheq	{r0, r2, r3, r4, r9, sl, fp}
    8d90:	04060000 	streq	r0, [r6], #-0
    8d94:	00000912 	andeq	r0, r0, r2, lsl r9
    8d98:	00002515 	andeq	r2, r0, r5, lsl r5
    8d9c:	00094200 	andeq	r4, r9, r0, lsl #4
    8da0:	05e91600 	strbeq	r1, [r9, #1536]!	; 0x600
    8da4:	20000000 	andcs	r0, r0, r0
    8da8:	00000773 	andeq	r0, r0, r3, ror r7
    8dac:	4e0e2206 	cdpmi	2, 0, cr2, cr14, cr6, {0}
    8db0:	06000009 	streq	r0, [r0], -r9
    8db4:	00093304 	andeq	r3, r9, r4, lsl #6
    8db8:	08d72100 	ldmeq	r7, {r8, sp}^
    8dbc:	0d010000 	stceq	0, cr0, [r1, #-0]
    8dc0:	00003111 	andeq	r3, r0, r1, lsl r1
    8dc4:	082a2200 	stmdaeq	sl!, {r9, sp}
    8dc8:	1f010000 	svcne	0x00010000
    8dcc:	0091d806 	addseq	sp, r1, r6, lsl #16
    8dd0:	00004c00 	andeq	r4, r0, r0, lsl #24
    8dd4:	2c9c0100 	ldfcss	f0, [ip], {0}
    8dd8:	2300000a 	movwcs	r0, #10
    8ddc:	00000872 	andeq	r0, r0, r2, ror r8
    8de0:	2c0f2a01 			; <UNDEFINED> instruction: 0x2c0f2a01
    8de4:	62000000 	andvs	r0, r0, #0
    8de8:	60000012 	andvs	r0, r0, r2, lsl r0
    8dec:	23000012 	movwcs	r0, #18
    8df0:	00000899 	muleq	r0, r9, r8
    8df4:	2c0f2b01 			; <UNDEFINED> instruction: 0x2c0f2b01
    8df8:	7c000000 	stcvc	0, cr0, [r0], {-0}
    8dfc:	7a000012 	bvc	8e4c <emit+0x1a4>
    8e00:	23000012 	movwcs	r0, #18
    8e04:	000008a6 	andeq	r0, r0, r6, lsr #17
    8e08:	2c0f2c01 	stccs	12, cr2, [pc], {1}
    8e0c:	96000000 	strls	r0, [r0], -r0
    8e10:	94000012 	strls	r0, [r0], #-18	; 0xffffffee
    8e14:	23000012 	movwcs	r0, #18
    8e18:	00000880 	andeq	r0, r0, r0, lsl #17
    8e1c:	2c0f2d01 	stccs	13, cr2, [pc], {1}
    8e20:	af000000 	svcge	0x00000000
    8e24:	ad000012 	stcge	0, cr0, [r0, #-72]	; 0xffffffb8
    8e28:	24000012 	strcs	r0, [r0], #-18	; 0xffffffee
    8e2c:	000091e0 	andeq	r9, r0, r0, ror #3
    8e30:	00000a57 	andeq	r0, r0, r7, asr sl
    8e34:	0091f025 	addseq	pc, r1, r5, lsr #32
    8e38:	000a8600 	andeq	r8, sl, r0, lsl #12
    8e3c:	0009e200 	andeq	lr, r9, r0, lsl #4
    8e40:	50012600 	andpl	r2, r1, r0, lsl #12
    8e44:	25004e01 	strcs	r4, [r0, #-3585]	; 0xfffff1ff
    8e48:	000091fc 	strdeq	r9, [r0], -ip
    8e4c:	00000a92 	muleq	r0, r2, sl
    8e50:	00000a02 	andeq	r0, r0, r2, lsl #20
    8e54:	05500126 	ldrbeq	r0, [r0, #-294]	; 0xfffffeda
    8e58:	1000240c 	andne	r2, r0, ip, lsl #8
    8e5c:	51012620 	tstpl	r1, r0, lsr #12
    8e60:	00010c05 	andeq	r0, r1, r5, lsl #24
    8e64:	25005a00 	strcs	r5, [r0, #-2560]	; 0xfffff600
    8e68:	00009208 	andeq	r9, r0, r8, lsl #4
    8e6c:	00000a92 	muleq	r0, r2, sl
    8e70:	00000a22 	andeq	r0, r0, r2, lsr #20
    8e74:	05500126 	ldrbeq	r0, [r0, #-294]	; 0xfffffeda
    8e78:	10001c0c 	andne	r1, r0, ip, lsl #24
    8e7c:	51012620 	tstpl	r1, r0, lsr #12
    8e80:	00200c05 	eoreq	r0, r0, r5, lsl #24
    8e84:	24005a00 	strcs	r5, [r0], #-2560	; 0xfffff600
    8e88:	00009210 	andeq	r9, r0, r0, lsl r2
    8e8c:	00000a2c 	andeq	r0, r0, ip, lsr #20
    8e90:	08c52700 	stmiaeq	r5, {r8, r9, sl, sp}^
    8e94:	17010000 	strne	r0, [r1, -r0]
    8e98:	0091c406 	addseq	ip, r1, r6, lsl #8
    8e9c:	00001400 	andeq	r1, r0, r0, lsl #8
    8ea0:	579c0100 	ldrpl	r0, [ip, r0, lsl #2]
    8ea4:	2300000a 	movwcs	r0, #10
    8ea8:	000008a1 	andeq	r0, r0, r1, lsr #17
    8eac:	310e1801 	tstcc	lr, r1, lsl #16
    8eb0:	ca000000 	bgt	8eb8 <va_printk+0x10>
    8eb4:	c4000012 	strgt	r0, [r0], #-18	; 0xffffffee
    8eb8:	00000012 	andeq	r0, r0, r2, lsl r0
    8ebc:	0008d428 	andeq	sp, r8, r8, lsr #8
    8ec0:	050e0100 	streq	r0, [lr, #-256]	; 0xffffff00
    8ec4:	00000025 	andeq	r0, r0, r5, lsr #32
    8ec8:	000091ac 	andeq	r9, r0, ip, lsr #3
    8ecc:	00000018 	andeq	r0, r0, r8, lsl r0
    8ed0:	0a869c01 	beq	fe1afedc <__bss_end__+0xfe1a5d74>
    8ed4:	a1230000 			; <UNDEFINED> instruction: 0xa1230000
    8ed8:	01000008 	tsteq	r0, r8
    8edc:	00310e0f 	eorseq	r0, r1, pc, lsl #28
    8ee0:	12f80000 	rscsne	r0, r8, #0
    8ee4:	12f40000 	rscsne	r0, r4, #0
    8ee8:	29000000 	stmdbcs	r0, {}	; <UNPREDICTABLE>
    8eec:	00000821 	andeq	r0, r0, r1, lsr #16
    8ef0:	00000821 	andeq	r0, r0, r1, lsr #16
    8ef4:	29064f06 	stmdbcs	r6, {r1, r2, r8, r9, sl, fp, lr}
    8ef8:	0000087a 	andeq	r0, r0, sl, ror r8
    8efc:	0000087a 	andeq	r0, r0, sl, ror r8
    8f00:	00069b06 	andeq	r9, r6, r6, lsl #22
    8f04:	00000aea 	andeq	r0, r0, sl, ror #21
    8f08:	1cd50004 	ldclne	0, cr0, [r5], {4}
    8f0c:	01040000 	mrseq	r0, (UNDEF: 4)
    8f10:	000002fd 	strdeq	r0, [r0], -sp
    8f14:	0009080c 	andeq	r0, r9, ip, lsl #16
    8f18:	0006cc00 	andeq	ip, r6, r0, lsl #24
    8f1c:	00922400 	addseq	r2, r2, r0, lsl #8
    8f20:	00008c00 	andeq	r8, r0, r0, lsl #24
    8f24:	00191300 	andseq	r1, r9, r0, lsl #6
    8f28:	05040200 	streq	r0, [r4, #-512]	; 0xfffffe00
    8f2c:	00746e69 	rsbseq	r6, r4, r9, ror #28
    8f30:	66070403 	strvs	r0, [r7], -r3, lsl #8
    8f34:	03000000 	movweq	r0, #0
    8f38:	02ec0601 	rsceq	r0, ip, #1048576	; 0x100000
    8f3c:	02030000 	andeq	r0, r3, #0
    8f40:	00038505 	andeq	r8, r3, r5, lsl #10
    8f44:	05040300 	streq	r0, [r4, #-768]	; 0xfffffd00
    8f48:	000000ac 	andeq	r0, r0, ip, lsr #1
    8f4c:	a7050803 	strge	r0, [r5, -r3, lsl #16]
    8f50:	03000000 	movweq	r0, #0
    8f54:	02ea0801 	rsceq	r0, sl, #65536	; 0x10000
    8f58:	02030000 	andeq	r0, r3, #0
    8f5c:	00022207 	andeq	r2, r2, r7, lsl #4
    8f60:	07040300 	streq	r0, [r4, -r0, lsl #6]
    8f64:	00000061 	andeq	r0, r0, r1, rrx
    8f68:	5c070803 	stcpl	8, cr0, [r7], {3}
    8f6c:	04000000 	streq	r0, [r0], #-0
    8f70:	00000265 	andeq	r0, r0, r5, ror #4
    8f74:	77192202 	ldrvc	r2, [r9, -r2, lsl #4]
    8f78:	05000000 	streq	r0, [r0, #-0]
    8f7c:	00007d04 	andeq	r7, r0, r4, lsl #26
    8f80:	042b0600 	strteq	r0, [fp], #-1536	; 0xfffffa00
    8f84:	cb040000 	blgt	108f8c <__bss_end__+0xfee24>
    8f88:	03000002 	movweq	r0, #2
    8f8c:	00410e2c 	subeq	r0, r1, ip, lsr #28
    8f90:	40040000 	andmi	r0, r4, r0
    8f94:	03000004 	movweq	r0, #4
    8f98:	00410e72 	subeq	r0, r1, r2, ror lr
    8f9c:	6d070000 	stcvs	0, cr0, [r7, #-0]
    8fa0:	04000002 	streq	r0, [r0], #-2
    8fa4:	2c17015e 	ldfcss	f0, [r7], {94}	; 0x5e
    8fa8:	08000000 	stmdaeq	r0, {}	; <UNPREDICTABLE>
    8fac:	03a60304 			; <UNDEFINED> instruction: 0x03a60304
    8fb0:	000000c9 	andeq	r0, r0, r9, asr #1
    8fb4:	00025f09 	andeq	r5, r2, r9, lsl #30
    8fb8:	0ca80300 	stceq	3, cr0, [r8]
    8fbc:	0000009a 	muleq	r0, sl, r0
    8fc0:	0001e209 	andeq	lr, r1, r9, lsl #4
    8fc4:	13a90300 			; <UNDEFINED> instruction: 0x13a90300
    8fc8:	000000c9 	andeq	r0, r0, r9, asr #1
    8fcc:	004f0a00 	subeq	r0, pc, r0, lsl #20
    8fd0:	00d90000 	sbcseq	r0, r9, r0
    8fd4:	2c0b0000 	stccs	0, cr0, [fp], {-0}
    8fd8:	03000000 	movweq	r0, #0
    8fdc:	03080c00 	movweq	r0, #35840	; 0x8c00
    8fe0:	00fd09a3 	rscseq	r0, sp, r3, lsr #19
    8fe4:	230d0000 	movwcs	r0, #53248	; 0xd000
    8fe8:	03000004 	movweq	r0, #4
    8fec:	002507a5 	eoreq	r0, r5, r5, lsr #15
    8ff0:	0d000000 	stceq	0, cr0, [r0, #-0]
    8ff4:	00000432 	andeq	r0, r0, r2, lsr r4
    8ff8:	a705aa03 	strge	sl, [r5, -r3, lsl #20]
    8ffc:	04000000 	streq	r0, [r0], #-0
    9000:	03ad0400 			; <UNDEFINED> instruction: 0x03ad0400
    9004:	ab030000 	blge	c900c <__bss_end__+0xbeea4>
    9008:	0000d903 	andeq	sp, r0, r3, lsl #18
    900c:	019f0400 	orrseq	r0, pc, r0, lsl #8
    9010:	af030000 	svcge	0x00030000
    9014:	00006b1b 	andeq	r6, r0, fp, lsl fp
    9018:	05040e00 	streq	r0, [r4, #-3584]	; 0xfffff200
    901c:	00011d04 	andeq	r1, r1, r4, lsl #26
    9020:	08010300 	stmdaeq	r1, {r8, r9}
    9024:	000002f3 	strdeq	r0, [r0], -r3
    9028:	00011d0f 	andeq	r1, r1, pc, lsl #26
    902c:	04720400 	ldrbteq	r0, [r2], #-1024	; 0xfffffc00
    9030:	16050000 	strne	r0, [r5], -r0
    9034:	00005d19 	andeq	r5, r0, r9, lsl sp
    9038:	01b01000 	movseq	r1, r0
    903c:	05180000 	ldreq	r0, [r8, #-0]
    9040:	018f082f 	orreq	r0, pc, pc, lsr #16
    9044:	ce0d0000 	cdpgt	0, 0, cr0, cr13, cr0, {0}
    9048:	05000003 	streq	r0, [r0, #-3]
    904c:	018f1331 	orreq	r1, pc, r1, lsr r3	; <UNPREDICTABLE>
    9050:	11000000 	mrsne	r0, (UNDEF: 0)
    9054:	05006b5f 	streq	r6, [r0, #-2911]	; 0xfffff4a1
    9058:	00250732 	eoreq	r0, r5, r2, lsr r7
    905c:	0d040000 	stceq	0, cr0, [r4, #-0]
    9060:	0000040e 	andeq	r0, r0, lr, lsl #8
    9064:	250b3205 	strcs	r3, [fp, #-517]	; 0xfffffdfb
    9068:	08000000 	stmdaeq	r0, {}	; <UNPREDICTABLE>
    906c:	0001990d 	andeq	r9, r1, sp, lsl #18
    9070:	14320500 	ldrtne	r0, [r2], #-1280	; 0xfffffb00
    9074:	00000025 	andeq	r0, r0, r5, lsr #32
    9078:	04b20d0c 	ldrteq	r0, [r2], #3340	; 0xd0c
    907c:	32050000 	andcc	r0, r5, #0
    9080:	0000251b 	andeq	r2, r0, fp, lsl r5
    9084:	5f111000 	svcpl	0x00111000
    9088:	33050078 	movwcc	r0, #20600	; 0x5078
    908c:	0001950b 	andeq	r9, r1, fp, lsl #10
    9090:	05001400 	streq	r1, [r0, #-1024]	; 0xfffffc00
    9094:	00013504 	andeq	r3, r1, r4, lsl #10
    9098:	01290a00 			; <UNDEFINED> instruction: 0x01290a00
    909c:	01a50000 			; <UNDEFINED> instruction: 0x01a50000
    90a0:	2c0b0000 	stccs	0, cr0, [fp], {-0}
    90a4:	00000000 	andeq	r0, r0, r0
    90a8:	01dd1000 	bicseq	r1, sp, r0
    90ac:	05240000 	streq	r0, [r4, #-0]!
    90b0:	02280837 	eoreq	r0, r8, #3604480	; 0x370000
    90b4:	9e0d0000 	cdpls	0, 0, cr0, cr13, cr0, {0}
    90b8:	05000000 	streq	r0, [r0, #-0]
    90bc:	00250939 	eoreq	r0, r5, r9, lsr r9
    90c0:	0d000000 	stceq	0, cr0, [r0, #-0]
    90c4:	00000448 	andeq	r0, r0, r8, asr #8
    90c8:	25093a05 	strcs	r3, [r9, #-2565]	; 0xfffff5fb
    90cc:	04000000 	streq	r0, [r0], #-0
    90d0:	0000c10d 	andeq	ip, r0, sp, lsl #2
    90d4:	093b0500 	ldmdbeq	fp!, {r8, sl}
    90d8:	00000025 	andeq	r0, r0, r5, lsr #32
    90dc:	05330d08 	ldreq	r0, [r3, #-3336]!	; 0xfffff2f8
    90e0:	3c050000 	stccc	0, cr0, [r5], {-0}
    90e4:	00002509 	andeq	r2, r0, r9, lsl #10
    90e8:	af0d0c00 	svcge	0x000d0c00
    90ec:	05000002 	streq	r0, [r0, #-2]
    90f0:	0025093d 	eoreq	r0, r5, sp, lsr r9
    90f4:	0d100000 	ldceq	0, cr0, [r0, #-0]
    90f8:	00000283 	andeq	r0, r0, r3, lsl #5
    90fc:	25093e05 	strcs	r3, [r9, #-3589]	; 0xfffff1fb
    9100:	14000000 	strne	r0, [r0], #-0
    9104:	0004b70d 	andeq	fp, r4, sp, lsl #14
    9108:	093f0500 	ldmdbeq	pc!, {r8, sl}	; <UNPREDICTABLE>
    910c:	00000025 	andeq	r0, r0, r5, lsr #32
    9110:	038f0d18 	orreq	r0, pc, #24, 26	; 0x600
    9114:	40050000 	andmi	r0, r5, r0
    9118:	00002509 	andeq	r2, r0, r9, lsl #10
    911c:	fa0d1c00 	blx	350124 <__bss_end__+0x345fbc>
    9120:	05000004 	streq	r0, [r0, #-4]
    9124:	00250941 	eoreq	r0, r5, r1, asr #18
    9128:	00200000 	eoreq	r0, r0, r0
    912c:	00010112 	andeq	r0, r1, r2, lsl r1
    9130:	05010800 	streq	r0, [r1, #-2048]	; 0xfffff800
    9134:	026d084a 	rsbeq	r0, sp, #4849664	; 0x4a0000
    9138:	8c0d0000 	stchi	0, cr0, [sp], {-0}
    913c:	05000001 	streq	r0, [r0, #-1]
    9140:	026d0a4b 	rsbeq	r0, sp, #307200	; 0x4b000
    9144:	0d000000 	stceq	0, cr0, [r0, #-0]
    9148:	00000000 	andeq	r0, r0, r0
    914c:	6d094c05 	stcvs	12, cr4, [r9, #-20]	; 0xffffffec
    9150:	80000002 	andhi	r0, r0, r2
    9154:	00046413 	andeq	r6, r4, r3, lsl r4
    9158:	0a4e0500 	beq	138a560 <__bss_end__+0x13803f8>
    915c:	00000129 	andeq	r0, r0, r9, lsr #2
    9160:	26130100 	ldrcs	r0, [r3], -r0, lsl #2
    9164:	05000001 	streq	r0, [r0, #-1]
    9168:	01290a51 			; <UNDEFINED> instruction: 0x01290a51
    916c:	01040000 	mrseq	r0, (UNDEF: 4)
    9170:	01150a00 	tsteq	r5, r0, lsl #20
    9174:	027d0000 	rsbseq	r0, sp, #0
    9178:	2c0b0000 	stccs	0, cr0, [fp], {-0}
    917c:	1f000000 	svcne	0x00000000
    9180:	02b81200 	adcseq	r1, r8, #0, 4
    9184:	01900000 	orrseq	r0, r0, r0
    9188:	c0085d05 	andgt	r5, r8, r5, lsl #26
    918c:	0d000002 	stceq	0, cr0, [r0, #-8]
    9190:	000003ce 	andeq	r0, r0, lr, asr #7
    9194:	c0125e05 	andsgt	r5, r2, r5, lsl #28
    9198:	00000002 	andeq	r0, r0, r2
    919c:	0003e60d 	andeq	lr, r3, sp, lsl #12
    91a0:	065f0500 	ldrbeq	r0, [pc], -r0, lsl #10
    91a4:	00000025 	andeq	r0, r0, r5, lsr #32
    91a8:	01940d04 	orrseq	r0, r4, r4, lsl #26
    91ac:	61050000 	mrsvs	r0, (UNDEF: 5)
    91b0:	0002c609 	andeq	ip, r2, r9, lsl #12
    91b4:	010d0800 	tsteq	sp, r0, lsl #16
    91b8:	05000001 	streq	r0, [r0, #-1]
    91bc:	02281e62 	eoreq	r1, r8, #1568	; 0x620
    91c0:	00880000 	addeq	r0, r8, r0
    91c4:	027d0405 	rsbseq	r0, sp, #83886080	; 0x5000000
    91c8:	d60a0000 	strle	r0, [sl], -r0
    91cc:	d6000002 	strle	r0, [r0], -r2
    91d0:	0b000002 	bleq	91e0 <rpi_reboot+0x8>
    91d4:	0000002c 	andeq	r0, r0, ip, lsr #32
    91d8:	0405001f 	streq	r0, [r5], #-31	; 0xffffffe1
    91dc:	000002dc 	ldrdeq	r0, [r0], -ip
    91e0:	03991014 	orrseq	r1, r9, #20
    91e4:	05080000 	streq	r0, [r8, #-0]
    91e8:	03050875 	movweq	r0, #22645	; 0x5875
    91ec:	bb0d0000 	bllt	3491f4 <__bss_end__+0x33f08c>
    91f0:	05000000 	streq	r0, [r0, #-0]
    91f4:	03051176 	movweq	r1, #20854	; 0x5176
    91f8:	0d000000 	stceq	0, cr0, [r0, #-0]
    91fc:	0000001b 	andeq	r0, r0, fp, lsl r0
    9200:	25067705 	strcs	r7, [r6, #-1797]	; 0xfffff8fb
    9204:	04000000 	streq	r0, [r0], #-0
    9208:	4f040500 	svcmi	0x00040500
    920c:	10000000 	andne	r0, r0, r0
    9210:	000003b8 			; <UNDEFINED> instruction: 0x000003b8
    9214:	08b50568 	ldmeq	r5!, {r3, r5, r6, r8, sl}
    9218:	0000044e 	andeq	r0, r0, lr, asr #8
    921c:	00705f11 	rsbseq	r5, r0, r1, lsl pc
    9220:	0512b605 	ldreq	fp, [r2, #-1541]	; 0xfffff9fb
    9224:	00000003 	andeq	r0, r0, r3
    9228:	00725f11 	rsbseq	r5, r2, r1, lsl pc
    922c:	2507b705 	strcs	fp, [r7, #-1797]	; 0xfffff8fb
    9230:	04000000 	streq	r0, [r0], #-0
    9234:	00775f11 	rsbseq	r5, r7, r1, lsl pc
    9238:	2507b805 	strcs	fp, [r7, #-2053]	; 0xfffff7fb
    923c:	08000000 	stmdaeq	r0, {}	; <UNPREDICTABLE>
    9240:	00011f0d 	andeq	r1, r1, sp, lsl #30
    9244:	09b90500 	ldmibeq	r9!, {r8, sl}
    9248:	0000003a 	andeq	r0, r0, sl, lsr r0
    924c:	02080d0c 	andeq	r0, r8, #12, 26	; 0x300
    9250:	ba050000 	blt	149258 <__bss_end__+0x13f0f0>
    9254:	00003a09 	andeq	r3, r0, r9, lsl #20
    9258:	5f110e00 	svcpl	0x00110e00
    925c:	05006662 	streq	r6, [r0, #-1634]	; 0xfffff99e
    9260:	02dd11bb 	sbcseq	r1, sp, #-1073741778	; 0xc000002e
    9264:	0d100000 	ldceq	0, cr0, [r0, #-0]
    9268:	0000007b 	andeq	r0, r0, fp, ror r0
    926c:	2507bc05 	strcs	fp, [r7, #-3077]	; 0xfffff3fb
    9270:	18000000 	stmdane	r0, {}	; <UNPREDICTABLE>
    9274:	00010f0d 	andeq	r0, r1, sp, lsl #30
    9278:	0ac30500 	beq	ff0ca680 <__bss_end__+0xff0c0518>
    927c:	00000115 	andeq	r0, r0, r5, lsl r1
    9280:	0b590d1c 	bleq	164c6f8 <__bss_end__+0x1642590>
    9284:	c5050000 	strgt	r0, [r5, #-0]
    9288:	0005c01d 	andeq	ip, r5, sp, lsl r0
    928c:	1d0d2000 	stcne	0, cr2, [sp, #-0]
    9290:	05000006 	streq	r0, [r0, #-6]
    9294:	05ea1dc7 	strbeq	r1, [sl, #3527]!	; 0xdc7
    9298:	0d240000 	stceq	0, cr0, [r4, #-0]
    929c:	0000043a 	andeq	r0, r0, sl, lsr r4
    92a0:	0e0dca05 	vmlaeq.f32	s24, s26, s10
    92a4:	28000006 	stmdacs	r0, {r1, r2}
    92a8:	0005140d 	andeq	r1, r5, sp, lsl #8
    92ac:	09cb0500 	stmibeq	fp, {r8, sl}^
    92b0:	00000628 	andeq	r0, r0, r8, lsr #12
    92b4:	755f112c 	ldrbvc	r1, [pc, #-300]	; 9190 <_cstart+0x10>
    92b8:	ce050062 	cdpgt	0, 0, cr0, cr5, cr2, {3}
    92bc:	0002dd11 	andeq	sp, r2, r1, lsl sp
    92c0:	5f113000 	svcpl	0x00113000
    92c4:	05007075 	streq	r7, [r0, #-117]	; 0xffffff8b
    92c8:	030512cf 	movweq	r1, #21199	; 0x52cf
    92cc:	11380000 	teqne	r8, r0
    92d0:	0072755f 	rsbseq	r7, r2, pc, asr r5
    92d4:	2507d005 	strcs	sp, [r7, #-5]
    92d8:	3c000000 	stccc	0, cr0, [r0], {-0}
    92dc:	0000b50d 	andeq	fp, r0, sp, lsl #10
    92e0:	11d30500 	bicsne	r0, r3, r0, lsl #10
    92e4:	0000062e 	andeq	r0, r0, lr, lsr #12
    92e8:	04ec0d40 	strbteq	r0, [ip], #3392	; 0xd40
    92ec:	d4050000 	strle	r0, [r5], #-0
    92f0:	00063e11 	andeq	r3, r6, r1, lsl lr
    92f4:	5f114300 	svcpl	0x00114300
    92f8:	0500626c 	streq	r6, [r0, #-620]	; 0xfffffd94
    92fc:	02dd11d7 	sbcseq	r1, sp, #-1073741771	; 0xc0000035
    9300:	0d440000 	stcleq	0, cr0, [r4, #-0]
    9304:	0000013d 	andeq	r0, r0, sp, lsr r1
    9308:	2507da05 	strcs	sp, [r7, #-2565]	; 0xfffff5fb
    930c:	4c000000 	stcmi	0, cr0, [r0], {-0}
    9310:	00014e0d 	andeq	r4, r1, sp, lsl #28
    9314:	0adb0500 	beq	ff6ca71c <__bss_end__+0xff6c05b4>
    9318:	00000082 	andeq	r0, r0, r2, lsl #1
    931c:	0afa0d50 	beq	ffe8c864 <__bss_end__+0xffe826fc>
    9320:	de050000 	cdple	0, 0, cr0, cr5, cr0, {0}
    9324:	00046c12 	andeq	r6, r4, r2, lsl ip
    9328:	2c0d5400 	cfstrscs	mvf5, [sp], {-0}
    932c:	05000004 	streq	r0, [r0, #-4]
    9330:	01090ce2 	smlatteq	r9, r2, ip, r0
    9334:	0d580000 	ldcleq	0, cr0, [r8, #-0]
    9338:	000003c0 	andeq	r0, r0, r0, asr #7
    933c:	fd0ee405 	stc2	4, cr14, [lr, #-20]	; 0xffffffec
    9340:	5c000000 	stcpl	0, cr0, [r0], {-0}
    9344:	00027b0d 	andeq	r7, r2, sp, lsl #22
    9348:	09e50500 	stmibeq	r5!, {r8, sl}^
    934c:	00000025 	andeq	r0, r0, r5, lsr #32
    9350:	25150064 	ldrcs	r0, [r5, #-100]	; 0xffffff9c
    9354:	6c000000 	stcvs	0, cr0, [r0], {-0}
    9358:	16000004 	strne	r0, [r0], -r4
    935c:	0000046c 	andeq	r0, r0, ip, ror #8
    9360:	00011516 	andeq	r1, r1, r6, lsl r5
    9364:	01171600 	tsteq	r7, r0, lsl #12
    9368:	25160000 	ldrcs	r0, [r6, #-0]
    936c:	00000000 	andeq	r0, r0, r0
    9370:	04770405 	ldrbteq	r0, [r7], #-1029	; 0xfffffbfb
    9374:	6c0f0000 	stcvs	0, cr0, [pc], {-0}
    9378:	17000004 	strne	r0, [r0, -r4]
    937c:	00000416 	andeq	r0, r0, r6, lsl r4
    9380:	60050428 	andvs	r0, r5, r8, lsr #8
    9384:	05c00802 	strbeq	r0, [r0, #2050]	; 0x802
    9388:	7e180000 	cdpvc	0, 1, cr0, cr8, cr0, {0}
    938c:	05000003 	streq	r0, [r0, #-3]
    9390:	25070262 	strcs	r0, [r7, #-610]	; 0xfffffd9e
    9394:	00000000 	andeq	r0, r0, r0
    9398:	00012e18 	andeq	r2, r1, r8, lsl lr
    939c:	02670500 	rsbeq	r0, r7, #0, 10
    93a0:	00069a0b 	andeq	r9, r6, fp, lsl #20
    93a4:	f8180400 			; <UNDEFINED> instruction: 0xf8180400
    93a8:	05000001 	streq	r0, [r0, #-1]
    93ac:	9a140267 	bls	509d50 <__bss_end__+0x4ffbe8>
    93b0:	08000006 	stmdaeq	r0, {r1, r2}
    93b4:	0001a818 	andeq	sl, r1, r8, lsl r8
    93b8:	02670500 	rsbeq	r0, r7, #0, 10
    93bc:	00069a1e 	andeq	r9, r6, lr, lsl sl
    93c0:	e1180c00 	tst	r8, r0, lsl #24
    93c4:	05000003 	streq	r0, [r0, #-3]
    93c8:	25080269 	strcs	r0, [r8, #-617]	; 0xfffffd97
    93cc:	10000000 	andne	r0, r0, r0
    93d0:	00002918 	andeq	r2, r0, r8, lsl r9
    93d4:	026a0500 	rsbeq	r0, sl, #0, 10
    93d8:	00089a08 	andeq	r9, r8, r8, lsl #20
    93dc:	f5181400 			; <UNDEFINED> instruction: 0xf5181400
    93e0:	05000003 	streq	r0, [r0, #-3]
    93e4:	2507026d 	strcs	r0, [r7, #-621]	; 0xfffffd93
    93e8:	30000000 	andcc	r0, r0, r0
    93ec:	000a3618 	andeq	r3, sl, r8, lsl r6
    93f0:	026e0500 	rsbeq	r0, lr, #0, 10
    93f4:	0008af16 	andeq	sl, r8, r6, lsl pc
    93f8:	c0183400 	andsgt	r3, r8, r0, lsl #8
    93fc:	05000002 	streq	r0, [r0, #-2]
    9400:	25070270 	strcs	r0, [r7, #-624]	; 0xfffffd90
    9404:	38000000 	stmdacc	r0, {}	; <UNPREDICTABLE>
    9408:	0003eb18 	andeq	lr, r3, r8, lsl fp
    940c:	02720500 	rsbseq	r0, r2, #0, 10
    9410:	0008c00a 	andeq	ip, r8, sl
    9414:	57183c00 	ldrpl	r3, [r8, -r0, lsl #24]
    9418:	05000002 	streq	r0, [r0, #-2]
    941c:	8f130275 	svchi	0x00130275
    9420:	40000001 	andmi	r0, r0, r1
    9424:	0001c718 	andeq	ip, r1, r8, lsl r7
    9428:	02760500 	rsbseq	r0, r6, #0, 10
    942c:	00002507 	andeq	r2, r0, r7, lsl #10
    9430:	2e184400 	cfmulscs	mvf4, mvf8, mvf0
    9434:	05000005 	streq	r0, [r0, #-5]
    9438:	8f130277 	svchi	0x00130277
    943c:	48000001 	stmdami	r0, {r0}
    9440:	0002d218 	andeq	sp, r2, r8, lsl r2
    9444:	02780500 	rsbseq	r0, r8, #0, 10
    9448:	0008c614 	andeq	ip, r8, r4, lsl r6
    944c:	00184c00 	andseq	r4, r8, r0, lsl #24
    9450:	05000002 	streq	r0, [r0, #-2]
    9454:	2507027b 	strcs	r0, [r7, #-635]	; 0xfffffd85
    9458:	50000000 	andpl	r0, r0, r0
    945c:	00014618 	andeq	r4, r1, r8, lsl r6
    9460:	027c0500 	rsbseq	r0, ip, #0, 10
    9464:	00011709 	andeq	r1, r1, r9, lsl #14
    9468:	f8185400 			; <UNDEFINED> instruction: 0xf8185400
    946c:	05000002 	streq	r0, [r0, #-2]
    9470:	7507029f 	strvc	r0, [r7, #-671]	; 0xfffffd61
    9474:	58000008 	stmdapl	r0, {r3}
    9478:	0002b819 	andeq	fp, r2, r9, lsl r8
    947c:	02a30500 	adceq	r0, r3, #0, 10
    9480:	0002c013 	andeq	ip, r2, r3, lsl r0
    9484:	19014800 	stmdbne	r1, {fp, lr}
    9488:	00000235 	andeq	r0, r0, r5, lsr r2
    948c:	1202a405 	andne	sl, r2, #83886080	; 0x5000000
    9490:	0000027d 	andeq	r0, r0, sp, ror r2
    9494:	da19014c 	ble	6499cc <__bss_end__+0x63f864>
    9498:	05000004 	streq	r0, [r0, #-4]
    949c:	d70c02a8 	strle	r0, [ip, -r8, lsr #5]
    94a0:	dc000008 	stcle	0, cr0, [r0], {8}
    94a4:	01171902 	tsteq	r7, r2, lsl #18
    94a8:	ad050000 	stcge	0, cr0, [r5, #-0]
    94ac:	065b1002 	ldrbeq	r1, [fp], -r2
    94b0:	02e00000 	rsceq	r0, r0, #0
    94b4:	0000fc19 	andeq	pc, r0, r9, lsl ip	; <UNPREDICTABLE>
    94b8:	02af0500 	adceq	r0, pc, #0, 10
    94bc:	0008e30a 	andeq	lr, r8, sl, lsl #6
    94c0:	0002ec00 	andeq	lr, r2, r0, lsl #24
    94c4:	044e0405 	strbeq	r0, [lr], #-1029	; 0xfffffbfb
    94c8:	25150000 	ldrcs	r0, [r5, #-0]
    94cc:	e4000000 	str	r0, [r0], #-0
    94d0:	16000005 	strne	r0, [r0], -r5
    94d4:	0000046c 	andeq	r0, r0, ip, ror #8
    94d8:	00011516 	andeq	r1, r1, r6, lsl r5
    94dc:	05e41600 	strbeq	r1, [r4, #1536]!	; 0x600
    94e0:	25160000 	ldrcs	r0, [r6, #-0]
    94e4:	00000000 	andeq	r0, r0, r0
    94e8:	01240405 			; <UNDEFINED> instruction: 0x01240405
    94ec:	04050000 	streq	r0, [r5], #-0
    94f0:	000005c6 	andeq	r0, r0, r6, asr #11
    94f4:	00008e15 	andeq	r8, r0, r5, lsl lr
    94f8:	00060e00 	andeq	r0, r6, r0, lsl #28
    94fc:	046c1600 	strbteq	r1, [ip], #-1536	; 0xfffffa00
    9500:	15160000 	ldrne	r0, [r6, #-0]
    9504:	16000001 	strne	r0, [r0], -r1
    9508:	0000008e 	andeq	r0, r0, lr, lsl #1
    950c:	00002516 	andeq	r2, r0, r6, lsl r5
    9510:	04050000 	streq	r0, [r5], #-0
    9514:	000005f0 	strdeq	r0, [r0], -r0	; <UNPREDICTABLE>
    9518:	00002515 	andeq	r2, r0, r5, lsl r5
    951c:	00062800 	andeq	r2, r6, r0, lsl #16
    9520:	046c1600 	strbteq	r1, [ip], #-1536	; 0xfffffa00
    9524:	15160000 	ldrne	r0, [r6, #-0]
    9528:	00000001 	andeq	r0, r0, r1
    952c:	06140405 	ldreq	r0, [r4], -r5, lsl #8
    9530:	4f0a0000 	svcmi	0x000a0000
    9534:	3e000000 	cdpcc	0, 0, cr0, cr0, cr0, {0}
    9538:	0b000006 	bleq	9558 <gpio_write+0x14>
    953c:	0000002c 	andeq	r0, r0, ip, lsr #32
    9540:	4f0a0002 	svcmi	0x000a0002
    9544:	4e000000 	cdpmi	0, 0, cr0, cr0, cr0, {0}
    9548:	0b000006 	bleq	9568 <gpio_read+0x8>
    954c:	0000002c 	andeq	r0, r0, ip, lsr #32
    9550:	a6070000 	strge	r0, [r7], -r0
    9554:	05000003 	streq	r0, [r0, #-3]
    9558:	0b1a011f 	bleq	6899dc <__bss_end__+0x67f874>
    955c:	1a000003 	bne	9570 <gpio_read+0x10>
    9560:	000004c1 	andeq	r0, r0, r1, asr #9
    9564:	0123050c 			; <UNDEFINED> instruction: 0x0123050c
    9568:	00069408 	andeq	r9, r6, r8, lsl #8
    956c:	03ce1800 	biceq	r1, lr, #0, 16
    9570:	25050000 	strcs	r0, [r5, #-0]
    9574:	06941101 	ldreq	r1, [r4], r1, lsl #2
    9578:	18000000 	stmdane	r0, {}	; <UNPREDICTABLE>
    957c:	0000021b 	andeq	r0, r0, fp, lsl r2
    9580:	07012605 	streq	r2, [r1, -r5, lsl #12]
    9584:	00000025 	andeq	r0, r0, r5, lsr #32
    9588:	03a01804 	moveq	r1, #4, 16	; 0x40000
    958c:	27050000 	strcs	r0, [r5, -r0]
    9590:	069a0b01 	ldreq	r0, [sl], r1, lsl #22
    9594:	00080000 	andeq	r0, r8, r0
    9598:	065b0405 	ldrbeq	r0, [fp], -r5, lsl #8
    959c:	04050000 	streq	r0, [r5], #-0
    95a0:	0000064e 	andeq	r0, r0, lr, asr #12
    95a4:	0000211a 	andeq	r2, r0, sl, lsl r1
    95a8:	3f050e00 	svccc	0x00050e00
    95ac:	06d90801 	ldrbeq	r0, [r9], r1, lsl #16
    95b0:	1d180000 	ldcne	0, cr0, [r8, #-0]
    95b4:	05000004 	streq	r0, [r0, #-4]
    95b8:	d9120140 	ldmdble	r2, {r6, r8}
    95bc:	00000006 	andeq	r0, r0, r6
    95c0:	00045118 	andeq	r5, r4, r8, lsl r1
    95c4:	01410500 	cmpeq	r1, r0, lsl #10
    95c8:	0006d912 	andeq	sp, r6, r2, lsl r9
    95cc:	6d180600 	ldcvs	6, cr0, [r8, #-0]
    95d0:	05000004 	streq	r0, [r0, #-4]
    95d4:	56120142 	ldrpl	r0, [r2], -r2, asr #2
    95d8:	0c000000 	stceq	0, cr0, [r0], {-0}
    95dc:	00560a00 	subseq	r0, r6, r0, lsl #20
    95e0:	06e90000 	strbteq	r0, [r9], r0
    95e4:	2c0b0000 	stccs	0, cr0, [fp], {-0}
    95e8:	02000000 	andeq	r0, r0, #0
    95ec:	05d01b00 	ldrbeq	r1, [r0, #2816]	; 0xb00
    95f0:	fe070280 	cdp2	2, 0, cr0, cr7, cr0, {4}
    95f4:	18000007 	stmdane	r0, {r0, r1, r2}
    95f8:	000004a5 	andeq	r0, r0, r5, lsr #9
    95fc:	18028205 	stmdane	r2, {r0, r2, r9, pc}
    9600:	0000002c 	andeq	r0, r0, ip, lsr #32
    9604:	04571800 	ldrbeq	r1, [r7], #-2048	; 0xfffff800
    9608:	83050000 	movwhi	r0, #20480	; 0x5000
    960c:	01171202 	tsteq	r7, r2, lsl #4
    9610:	18040000 	stmdane	r4, {}	; <UNPREDICTABLE>
    9614:	0000024a 	andeq	r0, r0, sl, asr #4
    9618:	10028405 	andne	r8, r2, r5, lsl #8
    961c:	000007fe 	strdeq	r0, [r0], -lr
    9620:	05051808 	streq	r1, [r5, #-2056]	; 0xfffff7f8
    9624:	85050000 	strhi	r0, [r5, #-0]
    9628:	01a51702 			; <UNDEFINED> instruction: 0x01a51702
    962c:	18240000 	stmdane	r4!, {}	; <UNPREDICTABLE>
    9630:	000001b8 			; <UNDEFINED> instruction: 0x000001b8
    9634:	0f028605 	svceq	0x00028605
    9638:	00000025 	andeq	r0, r0, r5, lsr #32
    963c:	03c91848 	biceq	r1, r9, #72, 16	; 0x480000
    9640:	87050000 	strhi	r0, [r5, -r0]
    9644:	00642c02 	rsbeq	r2, r4, r2, lsl #24
    9648:	18500000 	ldmdane	r0, {}^	; <UNPREDICTABLE>
    964c:	0000051b 	andeq	r0, r0, fp, lsl r5
    9650:	1a028805 	bne	ab66c <__bss_end__+0xa1504>
    9654:	000006a0 	andeq	r0, r0, r0, lsr #13
    9658:	03d41858 	bicseq	r1, r4, #88, 16	; 0x580000
    965c:	89050000 	stmdbhi	r5, {}	; <UNPREDICTABLE>
    9660:	00fd1602 	rscseq	r1, sp, r2, lsl #12
    9664:	18680000 	stmdane	r8!, {}^	; <UNPREDICTABLE>
    9668:	00000520 	andeq	r0, r0, r0, lsr #10
    966c:	16028a05 	strne	r8, [r2], -r5, lsl #20
    9670:	000000fd 	strdeq	r0, [r0], -sp
    9674:	02dc1870 	sbcseq	r1, ip, #112, 16	; 0x700000
    9678:	8b050000 	blhi	149680 <__bss_end__+0x13f518>
    967c:	00fd1602 	rscseq	r1, sp, r2, lsl #12
    9680:	18780000 	ldmdane	r8!, {}^	; <UNPREDICTABLE>
    9684:	000004d0 	ldrdeq	r0, [r0], -r0	; <UNPREDICTABLE>
    9688:	10028c05 	andne	r8, r2, r5, lsl #24
    968c:	0000080e 	andeq	r0, r0, lr, lsl #16
    9690:	023e1880 	eorseq	r1, lr, #128, 16	; 0x800000
    9694:	8d050000 	stchi	0, cr0, [r5, #-0]
    9698:	081e1002 	ldmdaeq	lr, {r1, ip}
    969c:	18880000 	stmne	r8, {}	; <UNPREDICTABLE>
    96a0:	0000047a 	andeq	r0, r0, sl, ror r4
    96a4:	0f028e05 	svceq	0x00028e05
    96a8:	00000025 	andeq	r0, r0, r5, lsr #32
    96ac:	017e18a0 	cmneq	lr, r0, lsr #17
    96b0:	8f050000 	svchi	0x00050000
    96b4:	00fd1602 	rscseq	r1, sp, r2, lsl #12
    96b8:	18a40000 	stmiane	r4!, {}	; <UNPREDICTABLE>
    96bc:	0000008f 	andeq	r0, r0, pc, lsl #1
    96c0:	16029005 	strne	r9, [r2], -r5
    96c4:	000000fd 	strdeq	r0, [r0], -sp
    96c8:	016d18ac 	cmneq	sp, ip, lsr #17
    96cc:	91050000 	mrsls	r0, (UNDEF: 5)
    96d0:	00fd1602 	rscseq	r1, sp, r2, lsl #12
    96d4:	18b40000 	ldmne	r4!, {}	; <UNPREDICTABLE>
    96d8:	0000003c 	andeq	r0, r0, ip, lsr r0
    96dc:	16029205 	strne	r9, [r2], -r5, lsl #4
    96e0:	000000fd 	strdeq	r0, [r0], -sp
    96e4:	004b18bc 	strheq	r1, [fp], #-140	; 0xffffff74
    96e8:	93050000 	movwls	r0, #20480	; 0x5000
    96ec:	00fd1602 	rscseq	r1, sp, r2, lsl #12
    96f0:	18c40000 	stmiane	r4, {}^	; <UNPREDICTABLE>
    96f4:	0000037c 	andeq	r0, r0, ip, ror r3
    96f8:	08029405 	stmdaeq	r2, {r0, r2, sl, ip, pc}
    96fc:	00000025 	andeq	r0, r0, r5, lsr #32
    9700:	1d0a00cc 	stcne	0, cr0, [sl, #-816]	; 0xfffffcd0
    9704:	0e000001 	cdpeq	0, 0, cr0, cr0, cr1, {0}
    9708:	0b000008 	bleq	9730 <dmb+0x4>
    970c:	0000002c 	andeq	r0, r0, ip, lsr #32
    9710:	1d0a0019 	stcne	0, cr0, [sl, #-100]	; 0xffffff9c
    9714:	1e000001 	cdpne	0, 0, cr0, cr0, cr1, {0}
    9718:	0b000008 	bleq	9740 <rpi_putchar>
    971c:	0000002c 	andeq	r0, r0, ip, lsr #32
    9720:	1d0a0007 	stcne	0, cr0, [sl, #-28]	; 0xffffffe4
    9724:	2e000001 	cdpcs	0, 0, cr0, cr0, cr1, {0}
    9728:	0b000008 	bleq	9750 <heap_start>
    972c:	0000002c 	andeq	r0, r0, ip, lsr #32
    9730:	f01b0017 			; <UNDEFINED> instruction: 0xf01b0017
    9734:	07029905 	streq	r9, [r2, -r5, lsl #18]
    9738:	00000855 	andeq	r0, r0, r5, asr r8
    973c:	0002a818 	andeq	sl, r2, r8, lsl r8
    9740:	029c0500 	addseq	r0, ip, #0, 10
    9744:	0008551b 	andeq	r5, r8, fp, lsl r5
    9748:	c7180000 	ldrgt	r0, [r8, -r0]
    974c:	05000004 	streq	r0, [r0, #-4]
    9750:	6518029d 	ldrvs	r0, [r8, #-669]	; 0xfffffd63
    9754:	78000008 	stmdavc	r0, {r3}
    9758:	03050a00 	movweq	r0, #23040	; 0x5a00
    975c:	08650000 	stmdaeq	r5!, {}^	; <UNPREDICTABLE>
    9760:	2c0b0000 	stccs	0, cr0, [fp], {-0}
    9764:	1d000000 	stcne	0, cr0, [r0, #-0]
    9768:	002c0a00 	eoreq	r0, ip, r0, lsl #20
    976c:	08750000 	ldmdaeq	r5!, {}^	; <UNPREDICTABLE>
    9770:	2c0b0000 	stccs	0, cr0, [fp], {-0}
    9774:	1d000000 	stcne	0, cr0, [r0, #-0]
    9778:	05f01c00 	ldrbeq	r1, [r0, #3072]!	; 0xc00
    977c:	9a03027e 	bls	ca17c <__bss_end__+0xc0014>
    9780:	1d000008 	stcne	0, cr0, [r0, #-32]	; 0xffffffe0
    9784:	00000416 	andeq	r0, r0, r6, lsl r4
    9788:	0b029505 	bleq	aeba4 <__bss_end__+0xa4a3c>
    978c:	000006e9 	andeq	r0, r0, r9, ror #13
    9790:	0004f21d 	andeq	pc, r4, sp, lsl r2	; <UNPREDICTABLE>
    9794:	029e0500 	addseq	r0, lr, #0, 10
    9798:	00082e0b 	andeq	r2, r8, fp, lsl #28
    979c:	1d0a0000 	stcne	0, cr0, [sl, #-0]
    97a0:	aa000001 	bge	97ac <__data_end__+0x58>
    97a4:	0b000008 	bleq	97cc <__data_end__+0x78>
    97a8:	0000002c 	andeq	r0, r0, ip, lsr #32
    97ac:	84060018 	strhi	r0, [r6], #-24	; 0xffffffe8
    97b0:	05000000 	streq	r0, [r0, #-0]
    97b4:	0008aa04 	andeq	sl, r8, r4, lsl #20
    97b8:	08c01e00 	stmiaeq	r0, {r9, sl, fp, ip}^
    97bc:	6c160000 	ldcvs	0, cr0, [r6], {-0}
    97c0:	00000004 	andeq	r0, r0, r4
    97c4:	08b50405 	ldmeq	r5!, {r0, r2, sl}
    97c8:	04050000 	streq	r0, [r5], #-0
    97cc:	0000018f 	andeq	r0, r0, pc, lsl #3
    97d0:	0008d71e 	andeq	sp, r8, lr, lsl r7
    97d4:	00251600 	eoreq	r1, r5, r0, lsl #12
    97d8:	05000000 	streq	r0, [r0, #-0]
    97dc:	0008dd04 	andeq	sp, r8, r4, lsl #26
    97e0:	cc040500 	cfstr32gt	mvfx0, [r4], {-0}
    97e4:	0a000008 	beq	980c <__data_end__+0xb8>
    97e8:	0000064e 	andeq	r0, r0, lr, asr #12
    97ec:	000008f3 	strdeq	r0, [r0], -r3
    97f0:	00002c0b 	andeq	r2, r0, fp, lsl #24
    97f4:	1f000200 	svcne	0x00000200
    97f8:	0000048e 	andeq	r0, r0, lr, lsl #9
    97fc:	17032e05 	strne	r2, [r3, -r5, lsl #28]
    9800:	0000046c 	andeq	r0, r0, ip, ror #8
    9804:	0004871f 	andeq	r8, r4, pc, lsl r7
    9808:	032f0500 			; <UNDEFINED> instruction: 0x032f0500
    980c:	0004721d 	andeq	r7, r4, sp, lsl r2
    9810:	00251500 	eoreq	r1, r5, r0, lsl #10
    9814:	091c0000 	ldmdbeq	ip, {}	; <UNPREDICTABLE>
    9818:	25160000 	ldrcs	r0, [r6, #-0]
    981c:	00000000 	andeq	r0, r0, r0
    9820:	0001d120 	andeq	sp, r1, r0, lsr #2
    9824:	0e1d0600 	cfmsub32eq	mvax0, mvfx0, mvfx13, mvfx0
    9828:	00000928 	andeq	r0, r0, r8, lsr #18
    982c:	090d0405 	stmdbeq	sp, {r0, r2, sl}
    9830:	25150000 	ldrcs	r0, [r5, #-0]
    9834:	3d000000 	stccc	0, cr0, [r0, #-0]
    9838:	16000009 	strne	r0, [r0], -r9
    983c:	000005e4 	andeq	r0, r0, r4, ror #11
    9840:	07732000 	ldrbeq	r2, [r3, -r0]!
    9844:	22060000 	andcs	r0, r6, #0
    9848:	0009490e 	andeq	r4, r9, lr, lsl #18
    984c:	2e040500 	cfsh32cs	mvfx0, mvfx4, #0
    9850:	21000009 	tstcs	r0, r9
    9854:	000008f1 	strdeq	r0, [r0], -r1
    9858:	98062b01 	stmdals	r6, {r0, r8, r9, fp, sp}
    985c:	18000092 	stmdane	r0, {r1, r4, r7}
    9860:	01000000 	mrseq	r0, (UNDEF: 0)
    9864:	0009999c 	muleq	r9, ip, r9
    9868:	65732200 	ldrbvs	r2, [r3, #-512]!	; 0xfffffe00
    986c:	2b010063 	blcs	49a00 <__bss_end__+0x3f898>
    9870:	00002c19 	andeq	r2, r0, r9, lsl ip
    9874:	00131b00 	andseq	r1, r3, r0, lsl #22
    9878:	00131700 	andseq	r1, r3, r0, lsl #14
    987c:	92ac2300 	adcls	r2, ip, #0, 6
    9880:	09990000 	ldmibeq	r9, {}	; <UNPREDICTABLE>
    9884:	01240000 			; <UNDEFINED> instruction: 0x01240000
    9888:	01f31150 	mvnseq	r1, r0, asr r1
    988c:	f3243550 	vqrshl.u32	<illegal reg q1.5>, q0, q2
    9890:	321c5001 	andscc	r5, ip, #1
    9894:	5001f324 	andpl	pc, r1, r4, lsr #6
    9898:	00243322 	eoreq	r3, r4, r2, lsr #6
    989c:	08212100 	stmdaeq	r1!, {r8, sp}
    98a0:	28010000 	stmdacs	r1, {}	; <UNPREDICTABLE>
    98a4:	00928006 	addseq	r8, r2, r6
    98a8:	00001800 	andeq	r1, r0, r0, lsl #16
    98ac:	e29c0100 	adds	r0, ip, #0, 2
    98b0:	22000009 	andcs	r0, r0, #9
    98b4:	0100736d 	tsteq	r0, sp, ror #6
    98b8:	002c1828 	eoreq	r1, ip, r8, lsr #16
    98bc:	13400000 	movtne	r0, #0
    98c0:	133c0000 	teqne	ip, #0
    98c4:	94230000 	strtls	r0, [r3], #-0
    98c8:	e2000092 	and	r0, r0, #146	; 0x92
    98cc:	24000009 	strcs	r0, [r0], #-9
    98d0:	f3115001 	vhadd.u16	d5, d1, d1
    98d4:	24355001 	ldrtcs	r5, [r5], #-1
    98d8:	1c5001f3 	ldfnee	f0, [r0], {243}	; 0xf3
    98dc:	01f32432 	mvnseq	r2, r2, lsr r4
    98e0:	24332250 	ldrtcs	r2, [r3], #-592	; 0xfffffdb0
    98e4:	39210000 	stmdbcc	r1!, {}	; <UNPREDICTABLE>
    98e8:	01000009 	tsteq	r0, r9
    98ec:	925c061f 	subsls	r0, ip, #32505856	; 0x1f00000
    98f0:	00240000 	eoreq	r0, r4, r0
    98f4:	9c010000 	stcls	0, cr0, [r1], {-0}
    98f8:	00000a52 	andeq	r0, r0, r2, asr sl
    98fc:	00737522 	rsbseq	r7, r3, r2, lsr #10
    9900:	2c181f01 	ldccs	15, cr1, [r8], {1}
    9904:	65000000 	strvs	r0, [r0, #-0]
    9908:	61000013 	tstvs	r0, r3, lsl r0
    990c:	25000013 	strcs	r0, [r0, #-19]	; 0xffffffed
    9910:	01006272 	tsteq	r0, r2, ror r2
    9914:	002c0e20 	eoreq	r0, ip, r0, lsr #28
    9918:	13850000 	orrne	r0, r5, #0
    991c:	13830000 	orrne	r0, r3, #0
    9920:	6c260000 	stcvs	0, cr0, [r6], #-0
    9924:	14000092 	strne	r0, [r0], #-146	; 0xffffff6e
    9928:	48000000 	stmdami	r0, {}	; <UNPREDICTABLE>
    992c:	2500000a 	strcs	r0, [r0, #-10]
    9930:	01006172 	tsteq	r0, r2, ror r1
    9934:	002c1222 	eoreq	r1, ip, r2, lsr #4
    9938:	139a0000 	orrsne	r0, sl, #0
    993c:	13980000 	orrsne	r0, r8, #0
    9940:	70270000 	eorvc	r0, r7, r0
    9944:	52000092 	andpl	r0, r0, #146	; 0x92
    9948:	0000000a 	andeq	r0, r0, sl
    994c:	00926827 	addseq	r6, r2, r7, lsr #16
    9950:	000a5200 	andeq	r5, sl, r0, lsl #4
    9954:	e2280000 	eor	r0, r8, #0
    9958:	01000008 	tsteq	r0, r8
    995c:	002c0a16 	eoreq	r0, ip, r6, lsl sl
    9960:	92500000 	subsls	r0, r0, #0
    9964:	000c0000 	andeq	r0, ip, r0
    9968:	9c010000 	stcls	0, cr0, [r1], {-0}
    996c:	00000a88 	andeq	r0, r0, r8, lsl #21
    9970:	01007525 	tsteq	r0, r5, lsr #10
    9974:	002c0e1a 	eoreq	r0, ip, sl, lsl lr
    9978:	13af0000 			; <UNDEFINED> instruction: 0x13af0000
    997c:	13ad0000 			; <UNDEFINED> instruction: 0x13ad0000
    9980:	58270000 	stmdapl	r7!, {}	; <UNPREDICTABLE>
    9984:	88000092 	stmdahi	r0, {r1, r4, r7}
    9988:	0000000a 	andeq	r0, r0, sl
    998c:	00092628 	andeq	r2, r9, r8, lsr #12
    9990:	0a110100 	beq	449d98 <__bss_end__+0x43fc30>
    9994:	0000002c 	andeq	r0, r0, ip, lsr #32
    9998:	0000923c 	andeq	r9, r0, ip, lsr r2
    999c:	00000014 	andeq	r0, r0, r4, lsl r0
    99a0:	0ab69c01 	beq	fedb09ac <__bss_end__+0xfeda6844>
    99a4:	48230000 	stmdami	r3!, {}	; <UNPREDICTABLE>
    99a8:	e1000092 	swp	r0, r2, [r0]	; <UNPREDICTABLE>
    99ac:	2400000a 	strcs	r0, [r0], #-10
    99b0:	0c055001 	stceq	0, cr5, [r5], {1}
    99b4:	20003004 	andcs	r3, r0, r4
    99b8:	fb210000 	blx	8499c2 <__bss_end__+0x83f85a>
    99bc:	01000008 	tsteq	r0, r8
    99c0:	92240605 	eorls	r0, r4, #5242880	; 0x500000
    99c4:	00180000 	andseq	r0, r8, r0
    99c8:	9c010000 	stcls	0, cr0, [r1], {-0}
    99cc:	00000ae1 	andeq	r0, r0, r1, ror #21
    99d0:	00091a29 	andeq	r1, r9, r9, lsr #20
    99d4:	1c050100 	stfnes	f0, [r5], {-0}
    99d8:	0000002c 	andeq	r0, r0, ip, lsr #32
    99dc:	000013c6 	andeq	r1, r0, r6, asr #7
    99e0:	000013c2 	andeq	r1, r0, r2, asr #7
    99e4:	09202a00 	stmdbeq	r0!, {r9, fp, sp}
    99e8:	09200000 	stmdbeq	r0!, {}	; <UNPREDICTABLE>
    99ec:	a7060000 	strge	r0, [r6, -r0]
    99f0:	0cc5000a 	stcleq	0, cr0, [r5], {10}
    99f4:	00040000 	andeq	r0, r4, r0
    99f8:	00001f40 	andeq	r1, r0, r0, asr #30
    99fc:	0a510104 	beq	1449e14 <__bss_end__+0x143fcac>
    9a00:	750c0000 	strvc	r0, [ip, #-0]
    9a04:	88000009 	stmdahi	r0, {r0, r3}
    9a08:	fc000009 	stc2	0, cr0, [r0], {9}
    9a0c:	78000092 	stmdavc	r0, {r1, r4, r7}
    9a10:	71000001 	tstvc	r0, r1
    9a14:	0200001a 	andeq	r0, r0, #26
    9a18:	6e690504 	cdpvs	5, 6, cr0, cr9, cr4, {0}
    9a1c:	04030074 	streq	r0, [r3], #-116	; 0xffffff8c
    9a20:	00006607 	andeq	r6, r0, r7, lsl #12
    9a24:	002c0400 	eoreq	r0, ip, r0, lsl #8
    9a28:	01030000 	mrseq	r0, (UNDEF: 3)
    9a2c:	0002ec06 	andeq	lr, r2, r6, lsl #24
    9a30:	05020300 	streq	r0, [r2, #-768]	; 0xfffffd00
    9a34:	00000385 	andeq	r0, r0, r5, lsl #7
    9a38:	ac050403 	cfstrsge	mvf0, [r5], {3}
    9a3c:	03000000 	movweq	r0, #0
    9a40:	00a70508 	adceq	r0, r7, r8, lsl #10
    9a44:	01030000 	mrseq	r0, (UNDEF: 3)
    9a48:	0002ea08 	andeq	lr, r2, r8, lsl #20
    9a4c:	07020300 	streq	r0, [r2, -r0, lsl #6]
    9a50:	00000222 	andeq	r0, r0, r2, lsr #4
    9a54:	61070403 	tstvs	r7, r3, lsl #8
    9a58:	03000000 	movweq	r0, #0
    9a5c:	005c0708 	subseq	r0, ip, r8, lsl #14
    9a60:	1c050000 	stcne	0, cr0, [r5], {-0}
    9a64:	0200000a 	andeq	r0, r0, #10
    9a68:	00002507 	andeq	r2, r0, r7, lsl #10
    9a6c:	02cb0500 	sbceq	r0, fp, #0, 10
    9a70:	2c030000 	stccs	0, cr0, [r3], {-0}
    9a74:	00000046 	andeq	r0, r0, r6, asr #32
    9a78:	00044005 	andeq	r4, r4, r5
    9a7c:	46720300 	ldrbtmi	r0, [r2], -r0, lsl #6
    9a80:	06000000 	streq	r0, [r0], -r0
    9a84:	0000026d 	andeq	r0, r0, sp, ror #4
    9a88:	2c016504 	cfstr32cs	mvfx6, [r1], {4}
    9a8c:	07000000 	streq	r0, [r0, -r0]
    9a90:	bca60304 	stclt	3, cr0, [r6], #16
    9a94:	08000000 	stmdaeq	r0, {}	; <UNPREDICTABLE>
    9a98:	0000025f 	andeq	r0, r0, pc, asr r2
    9a9c:	0091a803 	addseq	sl, r1, r3, lsl #16
    9aa0:	e2080000 	and	r0, r8, #0
    9aa4:	03000001 	movweq	r0, #1
    9aa8:	0000bca9 	andeq	fp, r0, r9, lsr #25
    9aac:	54090000 	strpl	r0, [r9], #-0
    9ab0:	cc000000 	stcgt	0, cr0, [r0], {-0}
    9ab4:	0a000000 	beq	9abc <__FUNCTION__.4341+0x29c>
    9ab8:	000000cc 	andeq	r0, r0, ip, asr #1
    9abc:	04030003 	streq	r0, [r3], #-3
    9ac0:	0009fc07 	andeq	pc, r9, r7, lsl #24
    9ac4:	03080b00 	movweq	r0, #35584	; 0x8b00
    9ac8:	0000f4a3 	andeq	pc, r0, r3, lsr #9
    9acc:	04230c00 	strteq	r0, [r3], #-3072	; 0xfffff400
    9ad0:	a5030000 	strge	r0, [r3, #-0]
    9ad4:	00000025 	andeq	r0, r0, r5, lsr #32
    9ad8:	04320c00 	ldrteq	r0, [r2], #-3072	; 0xfffff400
    9adc:	aa030000 	bge	c9ae4 <__bss_end__+0xbf97c>
    9ae0:	0000009d 	muleq	r0, sp, r0
    9ae4:	ad050004 	stcge	0, cr0, [r5, #-16]
    9ae8:	03000003 	movweq	r0, #3
    9aec:	0000d3ab 	andeq	sp, r0, fp, lsr #7
    9af0:	019f0500 	orrseq	r0, pc, r0, lsl #10
    9af4:	af030000 	svcge	0x00030000
    9af8:	00000070 	andeq	r0, r0, r0, ror r0
    9afc:	040e040d 	streq	r0, [lr], #-1037	; 0xfffffbf3
    9b00:	00000112 	andeq	r0, r0, r2, lsl r1
    9b04:	f3080103 	vrhadd.u8	d0, d8, d3
    9b08:	0f000002 	svceq	0x00000002
    9b0c:	00000112 	andeq	r0, r0, r2, lsl r1
    9b10:	00047205 	andeq	r7, r4, r5, lsl #4
    9b14:	62160500 	andsvs	r0, r6, #0, 10
    9b18:	10000000 	andne	r0, r0, r0
    9b1c:	000001b0 			; <UNDEFINED> instruction: 0x000001b0
    9b20:	7c2d0518 	cfstr32vc	mvfx0, [sp], #-96	; 0xffffffa0
    9b24:	0c000001 	stceq	0, cr0, [r0], {1}
    9b28:	000003ce 	andeq	r0, r0, lr, asr #7
    9b2c:	017c2f05 	cmneq	ip, r5, lsl #30
    9b30:	11000000 	mrsne	r0, (UNDEF: 0)
    9b34:	05006b5f 	streq	r6, [r0, #-2911]	; 0xfffff4a1
    9b38:	00002530 	andeq	r2, r0, r0, lsr r5
    9b3c:	0e0c0400 	cfcpyseq	mvf0, mvf12
    9b40:	05000004 	streq	r0, [r0, #-4]
    9b44:	00002530 	andeq	r2, r0, r0, lsr r5
    9b48:	990c0800 	stmdbls	ip, {fp}
    9b4c:	05000001 	streq	r0, [r0, #-1]
    9b50:	00002530 	andeq	r2, r0, r0, lsr r5
    9b54:	b20c0c00 	andlt	r0, ip, #0, 24
    9b58:	05000004 	streq	r0, [r0, #-4]
    9b5c:	00002530 	andeq	r2, r0, r0, lsr r5
    9b60:	5f111000 	svcpl	0x00111000
    9b64:	31050078 	tstcc	r5, r8, ror r0
    9b68:	00000182 	andeq	r0, r0, r2, lsl #3
    9b6c:	040e0014 	streq	r0, [lr], #-20	; 0xffffffec
    9b70:	00000129 	andeq	r0, r0, r9, lsr #2
    9b74:	00011e09 	andeq	r1, r1, r9, lsl #28
    9b78:	00019200 	andeq	r9, r1, r0, lsl #4
    9b7c:	00cc0a00 	sbceq	r0, ip, r0, lsl #20
    9b80:	00000000 	andeq	r0, r0, r0
    9b84:	0001dd10 	andeq	sp, r1, r0, lsl sp
    9b88:	35052400 	strcc	r2, [r5, #-1024]	; 0xfffffc00
    9b8c:	0000020b 	andeq	r0, r0, fp, lsl #4
    9b90:	00009e0c 	andeq	r9, r0, ip, lsl #28
    9b94:	25370500 	ldrcs	r0, [r7, #-1280]!	; 0xfffffb00
    9b98:	00000000 	andeq	r0, r0, r0
    9b9c:	0004480c 	andeq	r4, r4, ip, lsl #16
    9ba0:	25380500 	ldrcs	r0, [r8, #-1280]!	; 0xfffffb00
    9ba4:	04000000 	streq	r0, [r0], #-0
    9ba8:	0000c10c 	andeq	ip, r0, ip, lsl #2
    9bac:	25390500 	ldrcs	r0, [r9, #-1280]!	; 0xfffffb00
    9bb0:	08000000 	stmdaeq	r0, {}	; <UNPREDICTABLE>
    9bb4:	0005330c 	andeq	r3, r5, ip, lsl #6
    9bb8:	253a0500 	ldrcs	r0, [sl, #-1280]!	; 0xfffffb00
    9bbc:	0c000000 	stceq	0, cr0, [r0], {-0}
    9bc0:	0002af0c 	andeq	sl, r2, ip, lsl #30
    9bc4:	253b0500 	ldrcs	r0, [fp, #-1280]!	; 0xfffffb00
    9bc8:	10000000 	andne	r0, r0, r0
    9bcc:	0002830c 	andeq	r8, r2, ip, lsl #6
    9bd0:	253c0500 	ldrcs	r0, [ip, #-1280]!	; 0xfffffb00
    9bd4:	14000000 	strne	r0, [r0], #-0
    9bd8:	0004b70c 	andeq	fp, r4, ip, lsl #14
    9bdc:	253d0500 	ldrcs	r0, [sp, #-1280]!	; 0xfffffb00
    9be0:	18000000 	stmdane	r0, {}	; <UNPREDICTABLE>
    9be4:	00038f0c 	andeq	r8, r3, ip, lsl #30
    9be8:	253e0500 	ldrcs	r0, [lr, #-1280]!	; 0xfffffb00
    9bec:	1c000000 	stcne	0, cr0, [r0], {-0}
    9bf0:	0004fa0c 	andeq	pc, r4, ip, lsl #20
    9bf4:	253f0500 	ldrcs	r0, [pc, #-1280]!	; 96fc <kmalloc_aligned+0x88>
    9bf8:	20000000 	andcs	r0, r0, r0
    9bfc:	01011200 	mrseq	r1, R9_usr
    9c00:	01080000 	mrseq	r0, (UNDEF: 8)
    9c04:	024b4805 	subeq	r4, fp, #327680	; 0x50000
    9c08:	8c0c0000 	stchi	0, cr0, [ip], {-0}
    9c0c:	05000001 	streq	r0, [r0, #-1]
    9c10:	00024b49 	andeq	r4, r2, r9, asr #22
    9c14:	000c0000 	andeq	r0, ip, r0
    9c18:	05000000 	streq	r0, [r0, #-0]
    9c1c:	00024b4a 	andeq	r4, r2, sl, asr #22
    9c20:	64138000 	ldrvs	r8, [r3], #-0
    9c24:	05000004 	streq	r0, [r0, #-4]
    9c28:	00011e4c 	andeq	r1, r1, ip, asr #28
    9c2c:	13010000 	movwne	r0, #4096	; 0x1000
    9c30:	00000126 	andeq	r0, r0, r6, lsr #2
    9c34:	011e4f05 	tsteq	lr, r5, lsl #30
    9c38:	01040000 	mrseq	r0, (UNDEF: 4)
    9c3c:	010a0900 	tsteq	sl, r0, lsl #18
    9c40:	025b0000 	subseq	r0, fp, #0
    9c44:	cc0a0000 	stcgt	0, cr0, [sl], {-0}
    9c48:	1f000000 	svcne	0x00000000
    9c4c:	02b81200 	adcseq	r1, r8, #0, 4
    9c50:	01900000 	orrseq	r0, r0, r0
    9c54:	02995b05 	addseq	r5, r9, #5120	; 0x1400
    9c58:	ce0c0000 	cdpgt	0, 0, cr0, cr12, cr0, {0}
    9c5c:	05000003 	streq	r0, [r0, #-3]
    9c60:	0002995c 	andeq	r9, r2, ip, asr r9
    9c64:	e60c0000 	str	r0, [ip], -r0
    9c68:	05000003 	streq	r0, [r0, #-3]
    9c6c:	0000255d 	andeq	r2, r0, sp, asr r5
    9c70:	940c0400 	strls	r0, [ip], #-1024	; 0xfffffc00
    9c74:	05000001 	streq	r0, [r0, #-1]
    9c78:	00029f5f 	andeq	r9, r2, pc, asr pc
    9c7c:	010c0800 	tsteq	ip, r0, lsl #16
    9c80:	05000001 	streq	r0, [r0, #-1]
    9c84:	00020b60 	andeq	r0, r2, r0, ror #22
    9c88:	0e008800 	cdpeq	8, 0, cr8, cr0, cr0, {0}
    9c8c:	00025b04 	andeq	r5, r2, r4, lsl #22
    9c90:	02af0900 	adceq	r0, pc, #0, 18
    9c94:	02af0000 	adceq	r0, pc, #0
    9c98:	cc0a0000 	stcgt	0, cr0, [sl], {-0}
    9c9c:	1f000000 	svcne	0x00000000
    9ca0:	b5040e00 	strlt	r0, [r4, #-3584]	; 0xfffff200
    9ca4:	14000002 	strne	r0, [r0], #-2
    9ca8:	00039910 	andeq	r9, r3, r0, lsl r9
    9cac:	73050800 	movwvc	r0, #22528	; 0x5800
    9cb0:	000002db 	ldrdeq	r0, [r0], -fp
    9cb4:	0000bb0c 	andeq	fp, r0, ip, lsl #22
    9cb8:	db740500 	blle	1d0b0c0 <__bss_end__+0x1d00f58>
    9cbc:	00000002 	andeq	r0, r0, r2
    9cc0:	00001b0c 	andeq	r1, r0, ip, lsl #22
    9cc4:	25750500 	ldrbcs	r0, [r5, #-1280]!	; 0xfffffb00
    9cc8:	04000000 	streq	r0, [r0], #-0
    9ccc:	54040e00 	strpl	r0, [r4], #-3584	; 0xfffff200
    9cd0:	10000000 	andne	r0, r0, r0
    9cd4:	000003b8 			; <UNDEFINED> instruction: 0x000003b8
    9cd8:	0bb30568 	bleq	feccb280 <__bss_end__+0xfecc1118>
    9cdc:	11000004 	tstne	r0, r4
    9ce0:	0500705f 	streq	r7, [r0, #-95]	; 0xffffffa1
    9ce4:	0002dbb4 			; <UNDEFINED> instruction: 0x0002dbb4
    9ce8:	5f110000 	svcpl	0x00110000
    9cec:	b5050072 	strlt	r0, [r5, #-114]	; 0xffffff8e
    9cf0:	00000025 	andeq	r0, r0, r5, lsr #32
    9cf4:	775f1104 	ldrbvc	r1, [pc, -r4, lsl #2]
    9cf8:	25b60500 	ldrcs	r0, [r6, #1280]!	; 0x500
    9cfc:	08000000 	stmdaeq	r0, {}	; <UNPREDICTABLE>
    9d00:	00011f0c 	andeq	r1, r1, ip, lsl #30
    9d04:	3fb70500 	svccc	0x00b70500
    9d08:	0c000000 	stceq	0, cr0, [r0], {-0}
    9d0c:	0002080c 	andeq	r0, r2, ip, lsl #16
    9d10:	3fb80500 	svccc	0x00b80500
    9d14:	0e000000 	cdpeq	0, 0, cr0, cr0, cr0, {0}
    9d18:	66625f11 	uqadd16vs	r5, r2, r1
    9d1c:	b6b90500 	ldrtlt	r0, [r9], r0, lsl #10
    9d20:	10000002 	andne	r0, r0, r2
    9d24:	00007b0c 	andeq	r7, r0, ip, lsl #22
    9d28:	25ba0500 	ldrcs	r0, [sl, #1280]!	; 0x500
    9d2c:	18000000 	stmdane	r0, {}	; <UNPREDICTABLE>
    9d30:	00010f0c 	andeq	r0, r1, ip, lsl #30
    9d34:	0ac10500 	beq	ff04b13c <__bss_end__+0xff040fd4>
    9d38:	1c000001 	stcne	0, cr0, [r0], {1}
    9d3c:	000b590c 	andeq	r5, fp, ip, lsl #18
    9d40:	66c30500 	strbvs	r0, [r3], r0, lsl #10
    9d44:	20000005 	andcs	r0, r0, r5
    9d48:	00061d0c 	andeq	r1, r6, ip, lsl #26
    9d4c:	90c50500 	sbcls	r0, r5, r0, lsl #10
    9d50:	24000005 	strcs	r0, [r0], #-5
    9d54:	00043a0c 	andeq	r3, r4, ip, lsl #20
    9d58:	b4c80500 	strblt	r0, [r8], #1280	; 0x500
    9d5c:	28000005 	stmdacs	r0, {r0, r2}
    9d60:	0005140c 	andeq	r1, r5, ip, lsl #8
    9d64:	cec90500 	cdpgt	5, 12, cr0, cr9, cr0, {0}
    9d68:	2c000005 	stccs	0, cr0, [r0], {5}
    9d6c:	62755f11 	rsbsvs	r5, r5, #17, 30	; 0x44
    9d70:	b6cc0500 	strblt	r0, [ip], r0, lsl #10
    9d74:	30000002 	andcc	r0, r0, r2
    9d78:	70755f11 	rsbsvc	r5, r5, r1, lsl pc
    9d7c:	dbcd0500 	blle	ff34b184 <__bss_end__+0xff34101c>
    9d80:	38000002 	stmdacc	r0, {r1}
    9d84:	72755f11 	rsbsvc	r5, r5, #17, 30	; 0x44
    9d88:	25ce0500 	strbcs	r0, [lr, #1280]	; 0x500
    9d8c:	3c000000 	stccc	0, cr0, [r0], {-0}
    9d90:	0000b50c 	andeq	fp, r0, ip, lsl #10
    9d94:	d4d10500 	ldrble	r0, [r1], #1280	; 0x500
    9d98:	40000005 	andmi	r0, r0, r5
    9d9c:	0004ec0c 	andeq	lr, r4, ip, lsl #24
    9da0:	e4d20500 	ldrb	r0, [r2], #1280	; 0x500
    9da4:	43000005 	movwmi	r0, #5
    9da8:	626c5f11 	rsbvs	r5, ip, #17, 30	; 0x44
    9dac:	b6d50500 	ldrblt	r0, [r5], r0, lsl #10
    9db0:	44000002 	strmi	r0, [r0], #-2
    9db4:	00013d0c 	andeq	r3, r1, ip, lsl #26
    9db8:	25d80500 	ldrbcs	r0, [r8, #1280]	; 0x500
    9dbc:	4c000000 	stcmi	0, cr0, [r0], {-0}
    9dc0:	00014e0c 	andeq	r4, r1, ip, lsl #28
    9dc4:	7bd90500 	blvc	ff64b1cc <__bss_end__+0xff641064>
    9dc8:	50000000 	andpl	r0, r0, r0
    9dcc:	000afa0c 	andeq	pc, sl, ip, lsl #20
    9dd0:	29dc0500 	ldmibcs	ip, {r8, sl}^
    9dd4:	54000004 	strpl	r0, [r0], #-4
    9dd8:	00042c0c 	andeq	r2, r4, ip, lsl #24
    9ddc:	ffe00500 			; <UNDEFINED> instruction: 0xffe00500
    9de0:	58000000 	stmdapl	r0, {}	; <UNPREDICTABLE>
    9de4:	0003c00c 	andeq	ip, r3, ip
    9de8:	f4e20500 	vld2.16	{d16[0],d17[0]}, [r2], r0
    9dec:	5c000000 	stcpl	0, cr0, [r0], {-0}
    9df0:	00027b0c 	andeq	r7, r2, ip, lsl #22
    9df4:	25e30500 	strbcs	r0, [r3, #1280]!	; 0x500
    9df8:	64000000 	strvs	r0, [r0], #-0
    9dfc:	00251500 	eoreq	r1, r5, r0, lsl #10
    9e00:	04290000 	strteq	r0, [r9], #-0
    9e04:	29160000 	ldmdbcs	r6, {}	; <UNPREDICTABLE>
    9e08:	16000004 	strne	r0, [r0], -r4
    9e0c:	0000010a 	andeq	r0, r0, sl, lsl #2
    9e10:	00010c16 	andeq	r0, r1, r6, lsl ip
    9e14:	00251600 	eoreq	r1, r5, r0, lsl #12
    9e18:	0e000000 	cdpeq	0, 0, cr0, cr0, cr0, {0}
    9e1c:	00043404 	andeq	r3, r4, r4, lsl #8
    9e20:	04290f00 	strteq	r0, [r9], #-3840	; 0xfffff100
    9e24:	16170000 	ldrne	r0, [r7], -r0
    9e28:	28000004 	stmdacs	r0, {r2}
    9e2c:	02380504 	eorseq	r0, r8, #4, 10	; 0x1000000
    9e30:	00000566 	andeq	r0, r0, r6, ror #10
    9e34:	00037e18 	andeq	r7, r3, r8, lsl lr
    9e38:	023a0500 	eorseq	r0, sl, #0, 10
    9e3c:	00000025 	andeq	r0, r0, r5, lsr #32
    9e40:	012e1800 			; <UNDEFINED> instruction: 0x012e1800
    9e44:	3f050000 	svccc	0x00050000
    9e48:	00063b02 	andeq	r3, r6, r2, lsl #22
    9e4c:	f8180400 			; <UNDEFINED> instruction: 0xf8180400
    9e50:	05000001 	streq	r0, [r0, #-1]
    9e54:	063b023f 			; <UNDEFINED> instruction: 0x063b023f
    9e58:	18080000 	stmdane	r8, {}	; <UNPREDICTABLE>
    9e5c:	000001a8 	andeq	r0, r0, r8, lsr #3
    9e60:	3b023f05 	blcc	99a7c <__bss_end__+0x8f914>
    9e64:	0c000006 	stceq	0, cr0, [r0], {6}
    9e68:	0003e118 	andeq	lr, r3, r8, lsl r1
    9e6c:	02410500 	subeq	r0, r1, #0, 10
    9e70:	00000025 	andeq	r0, r0, r5, lsr #32
    9e74:	00291810 	eoreq	r1, r9, r0, lsl r8
    9e78:	42050000 	andmi	r0, r5, #0
    9e7c:	00081d02 	andeq	r1, r8, r2, lsl #26
    9e80:	b3181400 	tstlt	r8, #0, 8
    9e84:	0500000a 	streq	r0, [r0, #-10]
    9e88:	00250244 	eoreq	r0, r5, r4, asr #4
    9e8c:	18300000 	ldmdane	r0!, {}	; <UNPREDICTABLE>
    9e90:	00000a2e 	andeq	r0, r0, lr, lsr #20
    9e94:	8a024505 	bhi	9b2b0 <__bss_end__+0x91148>
    9e98:	34000005 	strcc	r0, [r0], #-5
    9e9c:	0002c018 	andeq	ip, r2, r8, lsl r0
    9ea0:	02470500 	subeq	r0, r7, #0, 10
    9ea4:	00000025 	andeq	r0, r0, r5, lsr #32
    9ea8:	03eb1838 	mvneq	r1, #56, 16	; 0x380000
    9eac:	49050000 	stmdbmi	r5, {}	; <UNPREDICTABLE>
    9eb0:	00083802 	andeq	r3, r8, r2, lsl #16
    9eb4:	57183c00 	ldrpl	r3, [r8, -r0, lsl #24]
    9eb8:	05000002 	streq	r0, [r0, #-2]
    9ebc:	017c024c 	cmneq	ip, ip, asr #4
    9ec0:	18400000 	stmdane	r0, {}^	; <UNPREDICTABLE>
    9ec4:	000001c7 	andeq	r0, r0, r7, asr #3
    9ec8:	25024d05 	strcs	r4, [r2, #-3333]	; 0xfffff2fb
    9ecc:	44000000 	strmi	r0, [r0], #-0
    9ed0:	00052e18 	andeq	r2, r5, r8, lsl lr
    9ed4:	024e0500 	subeq	r0, lr, #0, 10
    9ed8:	0000017c 	andeq	r0, r0, ip, ror r1
    9edc:	02d21848 	sbcseq	r1, r2, #72, 16	; 0x480000
    9ee0:	4f050000 	svcmi	0x00050000
    9ee4:	00083e02 	andeq	r3, r8, r2, lsl #28
    9ee8:	00184c00 	andseq	r4, r8, r0, lsl #24
    9eec:	05000002 	streq	r0, [r0, #-2]
    9ef0:	00250252 	eoreq	r0, r5, r2, asr r2
    9ef4:	18500000 	ldmdane	r0, {}^	; <UNPREDICTABLE>
    9ef8:	00000146 	andeq	r0, r0, r6, asr #2
    9efc:	0c025305 	stceq	3, cr5, [r2], {5}
    9f00:	54000001 	strpl	r0, [r0], #-1
    9f04:	0002f818 	andeq	pc, r2, r8, lsl r8	; <UNPREDICTABLE>
    9f08:	02760500 	rsbseq	r0, r6, #0, 10
    9f0c:	000007fb 	strdeq	r0, [r0], -fp
    9f10:	02b81958 	adcseq	r1, r8, #88, 18	; 0x160000
    9f14:	7a050000 	bvc	149f1c <__bss_end__+0x13fdb4>
    9f18:	00029902 	andeq	r9, r2, r2, lsl #18
    9f1c:	19014800 	stmdbne	r1, {fp, lr}
    9f20:	00000235 	andeq	r0, r0, r5, lsr r2
    9f24:	5b027b05 	blpl	a8b40 <__bss_end__+0x9e9d8>
    9f28:	4c000002 	stcmi	0, cr0, [r0], {2}
    9f2c:	04da1901 	ldrbeq	r1, [sl], #2305	; 0x901
    9f30:	7f050000 	svcvc	0x00050000
    9f34:	00084f02 	andeq	r4, r8, r2, lsl #30
    9f38:	1902dc00 	stmdbne	r2, {sl, fp, ip, lr, pc}
    9f3c:	00000117 	andeq	r0, r0, r7, lsl r1
    9f40:	00028405 	andeq	r8, r2, r5, lsl #8
    9f44:	e0000006 	and	r0, r0, r6
    9f48:	00fc1902 	rscseq	r1, ip, r2, lsl #18
    9f4c:	85050000 	strhi	r0, [r5, #-0]
    9f50:	00085b02 	andeq	r5, r8, r2, lsl #22
    9f54:	0002ec00 	andeq	lr, r2, r0, lsl #24
    9f58:	040b040e 	streq	r0, [fp], #-1038	; 0xfffffbf2
    9f5c:	25150000 	ldrcs	r0, [r5, #-0]
    9f60:	8a000000 	bhi	9f68 <buf.4297+0x200>
    9f64:	16000005 	strne	r0, [r0], -r5
    9f68:	00000429 	andeq	r0, r0, r9, lsr #8
    9f6c:	00010a16 	andeq	r0, r1, r6, lsl sl
    9f70:	058a1600 	streq	r1, [sl, #1536]	; 0x600
    9f74:	25160000 	ldrcs	r0, [r6, #-0]
    9f78:	00000000 	andeq	r0, r0, r0
    9f7c:	0119040e 	tsteq	r9, lr, lsl #8
    9f80:	040e0000 	streq	r0, [lr], #-0
    9f84:	0000056c 	andeq	r0, r0, ip, ror #10
    9f88:	00008615 	andeq	r8, r0, r5, lsl r6
    9f8c:	0005b400 	andeq	fp, r5, r0, lsl #8
    9f90:	04291600 	strteq	r1, [r9], #-1536	; 0xfffffa00
    9f94:	0a160000 	beq	589f9c <__bss_end__+0x57fe34>
    9f98:	16000001 	strne	r0, [r0], -r1
    9f9c:	00000086 	andeq	r0, r0, r6, lsl #1
    9fa0:	00002516 	andeq	r2, r0, r6, lsl r5
    9fa4:	040e0000 	streq	r0, [lr], #-0
    9fa8:	00000596 	muleq	r0, r6, r5
    9fac:	00002515 	andeq	r2, r0, r5, lsl r5
    9fb0:	0005ce00 	andeq	ip, r5, r0, lsl #28
    9fb4:	04291600 	strteq	r1, [r9], #-1536	; 0xfffffa00
    9fb8:	0a160000 	beq	589fc0 <__bss_end__+0x57fe58>
    9fbc:	00000001 	andeq	r0, r0, r1
    9fc0:	05ba040e 	ldreq	r0, [sl, #1038]!	; 0x40e
    9fc4:	54090000 	strpl	r0, [r9], #-0
    9fc8:	e4000000 	str	r0, [r0], #-0
    9fcc:	0a000005 	beq	9fe8 <buf.4297+0x280>
    9fd0:	000000cc 	andeq	r0, r0, ip, asr #1
    9fd4:	54090002 	strpl	r0, [r9], #-2
    9fd8:	f4000000 	vst4.8	{d0-d3}, [r0], r0
    9fdc:	0a000005 	beq	9ff8 <buf.4297+0x290>
    9fe0:	000000cc 	andeq	r0, r0, ip, asr #1
    9fe4:	a6060000 	strge	r0, [r6], -r0
    9fe8:	05000003 	streq	r0, [r0, #-3]
    9fec:	02e1011d 	rsceq	r0, r1, #1073741831	; 0x40000007
    9ff0:	c11a0000 	tstgt	sl, r0
    9ff4:	0c000004 	stceq	0, cr0, [r0], {4}
    9ff8:	35012105 	strcc	r2, [r1, #-261]	; 0xfffffefb
    9ffc:	18000006 	stmdane	r0, {r1, r2}
    a000:	000003ce 	andeq	r0, r0, lr, asr #7
    a004:	35012305 	strcc	r2, [r1, #-773]	; 0xfffffcfb
    a008:	00000006 	andeq	r0, r0, r6
    a00c:	00021b18 	andeq	r1, r2, r8, lsl fp
    a010:	01240500 			; <UNDEFINED> instruction: 0x01240500
    a014:	00000025 	andeq	r0, r0, r5, lsr #32
    a018:	03a01804 	moveq	r1, #4, 16	; 0x40000
    a01c:	25050000 	strcs	r0, [r5, #-0]
    a020:	00063b01 	andeq	r3, r6, r1, lsl #22
    a024:	0e000800 	cdpeq	8, 0, cr0, cr0, cr0, {0}
    a028:	00060004 	andeq	r0, r6, r4
    a02c:	f4040e00 			; <UNDEFINED> instruction: 0xf4040e00
    a030:	1a000005 	bne	a04c <buf.4297+0x2e4>
    a034:	00000021 	andeq	r0, r0, r1, lsr #32
    a038:	013d050e 	teqeq	sp, lr, lsl #10
    a03c:	00000676 	andeq	r0, r0, r6, ror r6
    a040:	00041d18 	andeq	r1, r4, r8, lsl sp
    a044:	013e0500 	teqeq	lr, r0, lsl #10
    a048:	00000676 	andeq	r0, r0, r6, ror r6
    a04c:	04511800 	ldrbeq	r1, [r1], #-2048	; 0xfffff800
    a050:	3f050000 	svccc	0x00050000
    a054:	00067601 	andeq	r7, r6, r1, lsl #12
    a058:	6d180600 	ldcvs	6, cr0, [r8, #-0]
    a05c:	05000004 	streq	r0, [r0, #-4]
    a060:	005b0140 	subseq	r0, fp, r0, asr #2
    a064:	000c0000 	andeq	r0, ip, r0
    a068:	00005b09 	andeq	r5, r0, r9, lsl #22
    a06c:	00068600 	andeq	r8, r6, r0, lsl #12
    a070:	00cc0a00 	sbceq	r0, ip, r0, lsl #20
    a074:	00020000 	andeq	r0, r2, r0
    a078:	5705d01b 	smladpl	r5, fp, r0, sp
    a07c:	00078702 	andeq	r8, r7, r2, lsl #14
    a080:	04a51800 	strteq	r1, [r5], #2048	; 0x800
    a084:	59050000 	stmdbpl	r5, {}	; <UNPREDICTABLE>
    a088:	00002c02 	andeq	r2, r0, r2, lsl #24
    a08c:	57180000 	ldrpl	r0, [r8, -r0]
    a090:	05000004 	streq	r0, [r0, #-4]
    a094:	010c025a 	tsteq	ip, sl, asr r2
    a098:	18040000 	stmdane	r4, {}	; <UNPREDICTABLE>
    a09c:	0000024a 	andeq	r0, r0, sl, asr #4
    a0a0:	87025b05 	strhi	r5, [r2, -r5, lsl #22]
    a0a4:	08000007 	stmdaeq	r0, {r0, r1, r2}
    a0a8:	00050518 	andeq	r0, r5, r8, lsl r5
    a0ac:	025c0500 	subseq	r0, ip, #0, 10
    a0b0:	00000192 	muleq	r0, r2, r1
    a0b4:	01b81824 			; <UNDEFINED> instruction: 0x01b81824
    a0b8:	5d050000 	stcpl	0, cr0, [r5, #-0]
    a0bc:	00002502 	andeq	r2, r0, r2, lsl #10
    a0c0:	c9184800 	ldmdbgt	r8, {fp, lr}
    a0c4:	05000003 	streq	r0, [r0, #-3]
    a0c8:	0069025e 	rsbeq	r0, r9, lr, asr r2
    a0cc:	18500000 	ldmdane	r0, {}^	; <UNPREDICTABLE>
    a0d0:	0000051b 	andeq	r0, r0, fp, lsl r5
    a0d4:	41025f05 	tstmi	r2, r5, lsl #30
    a0d8:	58000006 	stmdapl	r0, {r1, r2}
    a0dc:	0003d418 	andeq	sp, r3, r8, lsl r4
    a0e0:	02600500 	rsbeq	r0, r0, #0, 10
    a0e4:	000000f4 	strdeq	r0, [r0], -r4
    a0e8:	05201868 	streq	r1, [r0, #-2152]!	; 0xfffff798
    a0ec:	61050000 	mrsvs	r0, (UNDEF: 5)
    a0f0:	0000f402 	andeq	pc, r0, r2, lsl #8
    a0f4:	dc187000 	ldcle	0, cr7, [r8], {-0}
    a0f8:	05000002 	streq	r0, [r0, #-2]
    a0fc:	00f40262 	rscseq	r0, r4, r2, ror #4
    a100:	18780000 	ldmdane	r8!, {}^	; <UNPREDICTABLE>
    a104:	000004d0 	ldrdeq	r0, [r0], -r0	; <UNPREDICTABLE>
    a108:	97026305 	strls	r6, [r2, -r5, lsl #6]
    a10c:	80000007 	andhi	r0, r0, r7
    a110:	00023e18 	andeq	r3, r2, r8, lsl lr
    a114:	02640500 	rsbeq	r0, r4, #0, 10
    a118:	000007a7 	andeq	r0, r0, r7, lsr #15
    a11c:	047a1888 	ldrbteq	r1, [sl], #-2184	; 0xfffff778
    a120:	65050000 	strvs	r0, [r5, #-0]
    a124:	00002502 	andeq	r2, r0, r2, lsl #10
    a128:	7e18a000 	cdpvc	0, 1, cr10, cr8, cr0, {0}
    a12c:	05000001 	streq	r0, [r0, #-1]
    a130:	00f40266 	rscseq	r0, r4, r6, ror #4
    a134:	18a40000 	stmiane	r4!, {}	; <UNPREDICTABLE>
    a138:	0000008f 	andeq	r0, r0, pc, lsl #1
    a13c:	f4026705 	vst1.8	{d6}, [r2], r5
    a140:	ac000000 	stcge	0, cr0, [r0], {-0}
    a144:	00016d18 	andeq	r6, r1, r8, lsl sp
    a148:	02680500 	rsbeq	r0, r8, #0, 10
    a14c:	000000f4 	strdeq	r0, [r0], -r4
    a150:	003c18b4 	ldrhteq	r1, [ip], -r4
    a154:	69050000 	stmdbvs	r5, {}	; <UNPREDICTABLE>
    a158:	0000f402 	andeq	pc, r0, r2, lsl #8
    a15c:	4b18bc00 	blmi	639164 <__bss_end__+0x62effc>
    a160:	05000000 	streq	r0, [r0, #-0]
    a164:	00f4026a 	rscseq	r0, r4, sl, ror #4
    a168:	18c40000 	stmiane	r4, {}^	; <UNPREDICTABLE>
    a16c:	0000037c 	andeq	r0, r0, ip, ror r3
    a170:	25026b05 	strcs	r6, [r2, #-2821]	; 0xfffff4fb
    a174:	cc000000 	stcgt	0, cr0, [r0], {-0}
    a178:	01120900 	tsteq	r2, r0, lsl #18
    a17c:	07970000 	ldreq	r0, [r7, r0]
    a180:	cc0a0000 	stcgt	0, cr0, [sl], {-0}
    a184:	19000000 	stmdbne	r0, {}	; <UNPREDICTABLE>
    a188:	01120900 	tsteq	r2, r0, lsl #18
    a18c:	07a70000 	streq	r0, [r7, r0]!
    a190:	cc0a0000 	stcgt	0, cr0, [sl], {-0}
    a194:	07000000 	streq	r0, [r0, -r0]
    a198:	01120900 	tsteq	r2, r0, lsl #18
    a19c:	07b70000 	ldreq	r0, [r7, r0]!
    a1a0:	cc0a0000 	stcgt	0, cr0, [sl], {-0}
    a1a4:	17000000 	strne	r0, [r0, -r0]
    a1a8:	05f01b00 	ldrbeq	r1, [r0, #2816]!	; 0xb00
    a1ac:	07db0270 			; <UNDEFINED> instruction: 0x07db0270
    a1b0:	a8180000 	ldmdage	r8, {}	; <UNPREDICTABLE>
    a1b4:	05000002 	streq	r0, [r0, #-2]
    a1b8:	07db0273 			; <UNDEFINED> instruction: 0x07db0273
    a1bc:	18000000 	stmdane	r0, {}	; <UNPREDICTABLE>
    a1c0:	000004c7 	andeq	r0, r0, r7, asr #9
    a1c4:	eb027405 	bl	a71e0 <__bss_end__+0x9d078>
    a1c8:	78000007 	stmdavc	r0, {r0, r1, r2}
    a1cc:	02db0900 	sbcseq	r0, fp, #0, 18
    a1d0:	07eb0000 	strbeq	r0, [fp, r0]!
    a1d4:	cc0a0000 	stcgt	0, cr0, [sl], {-0}
    a1d8:	1d000000 	stcne	0, cr0, [r0, #-0]
    a1dc:	002c0900 	eoreq	r0, ip, r0, lsl #18
    a1e0:	07fb0000 	ldrbeq	r0, [fp, r0]!
    a1e4:	cc0a0000 	stcgt	0, cr0, [sl], {-0}
    a1e8:	1d000000 	stcne	0, cr0, [r0, #-0]
    a1ec:	05f01c00 	ldrbeq	r1, [r0, #3072]!	; 0xc00
    a1f0:	081d0255 	ldmdaeq	sp, {r0, r2, r4, r6, r9}
    a1f4:	161d0000 	ldrne	r0, [sp], -r0
    a1f8:	05000004 	streq	r0, [r0, #-4]
    a1fc:	0686026c 	streq	r0, [r6], ip, ror #4
    a200:	f21d0000 	vhadd.s16	d0, d13, d0
    a204:	05000004 	streq	r0, [r0, #-4]
    a208:	07b70275 			; <UNDEFINED> instruction: 0x07b70275
    a20c:	09000000 	stmdbeq	r0, {}	; <UNPREDICTABLE>
    a210:	00000112 	andeq	r0, r0, r2, lsl r1
    a214:	0000082d 	andeq	r0, r0, sp, lsr #16
    a218:	0000cc0a 	andeq	ip, r0, sl, lsl #24
    a21c:	1e001800 	cdpne	8, 0, cr1, cr0, cr0, {0}
    a220:	00000838 	andeq	r0, r0, r8, lsr r8
    a224:	00042916 	andeq	r2, r4, r6, lsl r9
    a228:	040e0000 	streq	r0, [lr], #-0
    a22c:	0000082d 	andeq	r0, r0, sp, lsr #16
    a230:	017c040e 	cmneq	ip, lr, lsl #8
    a234:	4f1e0000 	svcmi	0x001e0000
    a238:	16000008 	strne	r0, [r0], -r8
    a23c:	00000025 	andeq	r0, r0, r5, lsr #32
    a240:	55040e00 	strpl	r0, [r4, #-3584]	; 0xfffff200
    a244:	0e000008 	cdpeq	0, 0, cr0, cr0, cr8, {0}
    a248:	00084404 	andeq	r4, r8, r4, lsl #8
    a24c:	05f40900 	ldrbeq	r0, [r4, #2304]!	; 0x900
    a250:	086b0000 	stmdaeq	fp!, {}^	; <UNPREDICTABLE>
    a254:	cc0a0000 	stcgt	0, cr0, [sl], {-0}
    a258:	02000000 	andeq	r0, r0, #0
    a25c:	048e1f00 	streq	r1, [lr], #3840	; 0xf00
    a260:	fd050000 	stc2	0, cr0, [r5, #-0]
    a264:	00042902 	andeq	r2, r4, r2, lsl #18
    a268:	04871f00 	streq	r1, [r7], #3840	; 0xf00
    a26c:	fe050000 	cdp2	0, 0, cr0, cr5, cr0, {0}
    a270:	00042f02 	andeq	r2, r4, r2, lsl #30
    a274:	00251500 	eoreq	r1, r5, r0, lsl #10
    a278:	08920000 	ldmeq	r2, {}	; <UNPREDICTABLE>
    a27c:	25160000 	ldrcs	r0, [r6, #-0]
    a280:	00000000 	andeq	r0, r0, r0
    a284:	0001d120 	andeq	sp, r1, r0, lsr #2
    a288:	9d1d0600 	ldcls	6, cr0, [sp, #-0]
    a28c:	0e000008 	cdpeq	0, 0, cr0, cr0, cr8, {0}
    a290:	00088304 	andeq	r8, r8, r4, lsl #6
    a294:	00251500 	eoreq	r1, r5, r0, lsl #10
    a298:	08b20000 	ldmeq	r2!, {}	; <UNPREDICTABLE>
    a29c:	8a160000 	bhi	58a2a4 <__bss_end__+0x58013c>
    a2a0:	00000005 	andeq	r0, r0, r5
    a2a4:	00077320 	andeq	r7, r7, r0, lsr #6
    a2a8:	bd220600 	stclt	6, cr0, [r2, #-0]
    a2ac:	0e000008 	cdpeq	0, 0, cr0, cr0, cr8, {0}
    a2b0:	0008a304 	andeq	sl, r8, r4, lsl #6
    a2b4:	54012100 	strpl	r2, [r1], #-256	; 0xffffff00
    a2b8:	08000000 	stmdaeq	r0, {}	; <UNPREDICTABLE>
    a2bc:	0009000c 	andeq	r0, r9, ip
    a2c0:	094c2200 	stmdbeq	ip, {r9, sp}^
    a2c4:	22000000 	andcs	r0, r0, #0
    a2c8:	00000ac5 	andeq	r0, r0, r5, asr #21
    a2cc:	0b002201 	bleq	12ad8 <__bss_end__+0x8970>
    a2d0:	22040000 	andcs	r0, r4, #0
    a2d4:	00000961 	andeq	r0, r0, r1, ror #18
    a2d8:	09ed2205 	stmibeq	sp!, {r0, r2, r9, sp}^
    a2dc:	22060000 	andcs	r0, r6, #0
    a2e0:	00000b0f 	andeq	r0, r0, pc, lsl #22
    a2e4:	0b1e2207 	bleq	792b08 <__bss_end__+0x7889a0>
    a2e8:	22030000 	andcs	r0, r3, #0
    a2ec:	00000b2d 	andeq	r0, r0, sp, lsr #22
    a2f0:	7c100002 	ldcvc	0, cr0, [r0], {2}
    a2f4:	2c000009 	stccs	0, cr0, [r0], {9}
    a2f8:	09900607 	ldmibeq	r0, {r0, r1, r2, r9, sl}
    a2fc:	69110000 	ldmdbvs	r1, {}	; <UNPREDICTABLE>
    a300:	0907006f 	stmdbeq	r7, {r0, r1, r2, r3, r5, r6}
    a304:	00000033 	andeq	r0, r0, r3, lsr r0
    a308:	65691100 	strbvs	r1, [r9, #-256]!	; 0xffffff00
    a30c:	0a070072 	beq	1ca4dc <__bss_end__+0x1c0374>
    a310:	00000033 	andeq	r0, r0, r3, lsr r0
    a314:	69691104 	stmdbvs	r9!, {r2, r8, ip}^
    a318:	11070072 	tstne	r7, r2, ror r0
    a31c:	00000033 	andeq	r0, r0, r3, lsr r0
    a320:	636c1108 	cmnvs	ip, #8, 2
    a324:	13070072 	movwne	r0, #28786	; 0x7072
    a328:	00000033 	andeq	r0, r0, r3, lsr r0
    a32c:	636d110c 	cmnvs	sp, #12, 2
    a330:	14070072 	strne	r0, [r7], #-114	; 0xffffff8e
    a334:	00000033 	andeq	r0, r0, r3, lsr r0
    a338:	736c1110 	cmnvc	ip, #16, 2
    a33c:	15070072 	strne	r0, [r7, #-114]	; 0xffffff8e
    a340:	00000033 	andeq	r0, r0, r3, lsr r0
    a344:	736d1114 	cmnvc	sp, #20, 2
    a348:	16070072 			; <UNDEFINED> instruction: 0x16070072
    a34c:	00000033 	andeq	r0, r0, r3, lsr r0
    a350:	0a430c18 	beq	10cd3b8 <__bss_end__+0x10c3250>
    a354:	17070000 	strne	r0, [r7, -r0]
    a358:	00000033 	andeq	r0, r0, r3, lsr r0
    a35c:	09700c1c 	ldmdbeq	r0!, {r2, r3, r4, sl, fp}^
    a360:	1b070000 	blne	1ca368 <__bss_end__+0x1c0200>
    a364:	00000033 	andeq	r0, r0, r3, lsr r0
    a368:	095c0c20 	ldmdbeq	ip, {r5, sl, fp}^
    a36c:	1d070000 	stcne	0, cr0, [r7, #-0]
    a370:	00000033 	andeq	r0, r0, r3, lsr r0
    a374:	0a3e0c24 	beq	f8d40c <__bss_end__+0xf832a4>
    a378:	1e070000 	cdpne	0, 0, cr0, cr7, cr0, {0}
    a37c:	00000033 	andeq	r0, r0, r3, lsr r0
    a380:	bd230028 	stclt	0, cr0, [r3, #-160]!	; 0xffffff60
    a384:	01000009 	tsteq	r0, r9
    a388:	0009a507 	andeq	sl, r9, r7, lsl #10
    a38c:	21500400 	cmpcs	r0, r0, lsl #8
    a390:	33040e20 	movwcc	r0, #20000	; 0x4e20
    a394:	0f000000 	svceq	0x00000000
    a398:	0000099f 	muleq	r0, pc, r9	; <UNPREDICTABLE>
    a39c:	000a1723 	andeq	r1, sl, r3, lsr #14
    a3a0:	bf280100 	svclt	0x00280100
    a3a4:	40000009 	andmi	r0, r0, r9
    a3a8:	0e202150 	mcreq	1, 1, r2, cr0, cr0, {2}
    a3ac:	00090004 	andeq	r0, r9, r4
    a3b0:	09b90f00 	ldmibeq	r9!, {r8, r9, sl, fp}
    a3b4:	f2240000 	vhadd.s32	d0, d4, d0
    a3b8:	0100000a 	tsteq	r0, sl
    a3bc:	000025a7 	andeq	r2, r0, r7, lsr #11
    a3c0:	00946400 	addseq	r6, r4, r0, lsl #8
    a3c4:	00001000 	andeq	r1, r0, r0
    a3c8:	f09c0100 			; <UNDEFINED> instruction: 0xf09c0100
    a3cc:	25000009 	strcs	r0, [r0, #-9]
    a3d0:	0000946c 	andeq	r9, r0, ip, ror #8
    a3d4:	00000c9c 	muleq	r0, ip, ip
    a3d8:	00947025 	addseq	r7, r4, r5, lsr #32
    a3dc:	000ad200 	andeq	sp, sl, r0, lsl #4
    a3e0:	40260000 	eormi	r0, r6, r0
    a3e4:	01000007 	tsteq	r0, r7
    a3e8:	0094349f 	umullseq	r3, r4, pc, r4	; <UNPREDICTABLE>
    a3ec:	00003000 	andeq	r3, r0, r0
    a3f0:	4e9c0100 	fmlmie	f0, f4, f0
    a3f4:	2700000a 	strcs	r0, [r0, -sl]
    a3f8:	9f010063 	svcls	0x00010063
    a3fc:	0000002c 	andeq	r0, r0, ip, lsr #32
    a400:	000013e4 	andeq	r1, r0, r4, ror #7
    a404:	00944025 	addseq	r4, r4, r5, lsr #32
    a408:	000c9c00 	andeq	r9, ip, r0, lsl #24
    a40c:	94442500 	strbls	r2, [r4], #-1280	; 0xfffffb00
    a410:	0aa50000 	beq	fe94a418 <__bss_end__+0xfe9402b0>
    a414:	58280000 	stmdapl	r8!, {}	; <UNPREDICTABLE>
    a418:	a7000094 			; <UNDEFINED> instruction: 0xa7000094
    a41c:	4400000c 	strmi	r0, [r0], #-12
    a420:	2900000a 	stmdbcs	r0, {r1, r3}
    a424:	0c055001 	stceq	0, cr5, [r5], {1}
    a428:	20215040 	eorcs	r5, r1, r0, asr #32
    a42c:	05510129 	ldrbeq	r0, [r1, #-297]	; 0xfffffed7
    a430:	ff080074 			; <UNDEFINED> instruction: 0xff080074
    a434:	5c25001a 	stcpl	0, cr0, [r5], #-104	; 0xffffff98
    a438:	9c000094 	stcls	0, cr0, [r0], {148}	; 0x94
    a43c:	0000000c 	andeq	r0, r0, ip
    a440:	0009d724 	andeq	sp, r9, r4, lsr #14
    a444:	25970100 	ldrcs	r0, [r7, #256]	; 0x100
    a448:	04000000 	streq	r0, [r0], #-0
    a44c:	30000094 	mulcc	r0, r4, r0
    a450:	01000000 	mrseq	r0, (UNDEF: 0)
    a454:	000aa59c 	muleq	sl, ip, r5
    a458:	00632a00 	rsbeq	r2, r3, r0, lsl #20
    a45c:	00259b01 	eoreq	r9, r5, r1, lsl #22
    a460:	54010000 	strpl	r0, [r1], #-0
    a464:	00940c25 	addseq	r0, r4, r5, lsr #24
    a468:	000c9c00 	andeq	r9, ip, r0, lsl #24
    a46c:	94102500 	ldrls	r2, [r0], #-1280	; 0xfffffb00
    a470:	0ad20000 	beq	ff48a478 <__bss_end__+0xff480310>
    a474:	20280000 	eorcs	r0, r8, r0
    a478:	b2000094 	andlt	r0, r0, #148	; 0x94
    a47c:	9b00000c 	blls	a4b4 <__bss_end__+0x34c>
    a480:	2900000a 	stmdbcs	r0, {r1, r3}
    a484:	0c055001 	stceq	0, cr5, [r5], {1}
    a488:	20215040 	eorcs	r5, r1, r0, asr #32
    a48c:	94282500 	strtls	r2, [r8], #-1280	; 0xfffffb00
    a490:	0c9c0000 	ldceq	0, cr0, [ip], {0}
    a494:	24000000 	strcs	r0, [r0], #-0
    a498:	000009c9 	andeq	r0, r0, r9, asr #19
    a49c:	00258801 	eoreq	r8, r5, r1, lsl #16
    a4a0:	93e40000 	mvnls	r0, #0
    a4a4:	00200000 	eoreq	r0, r0, r0
    a4a8:	9c010000 	stcls	0, cr0, [r1], {-0}
    a4ac:	00000ad2 	ldrdeq	r0, [r0], -r2
    a4b0:	0093f02b 	addseq	pc, r3, fp, lsr #32
    a4b4:	000cb200 	andeq	fp, ip, r0, lsl #4
    a4b8:	50012900 	andpl	r2, r1, r0, lsl #18
    a4bc:	50640c05 	rsbpl	r0, r4, r5, lsl #24
    a4c0:	00002021 	andeq	r2, r0, r1, lsr #32
    a4c4:	000adc24 	andeq	sp, sl, r4, lsr #24
    a4c8:	257f0100 	ldrbcs	r0, [pc, #-256]!	; a3d0 <__bss_end__+0x268>
    a4cc:	cc000000 	stcgt	0, cr0, [r0], {-0}
    a4d0:	18000093 	stmdane	r0, {r0, r1, r4, r7}
    a4d4:	01000000 	mrseq	r0, (UNDEF: 0)
    a4d8:	000aff9c 	muleq	sl, ip, pc	; <UNPREDICTABLE>
    a4dc:	93d82b00 	bicsls	r2, r8, #0, 22
    a4e0:	0cb20000 	ldceq	0, cr0, [r2]
    a4e4:	01290000 			; <UNDEFINED> instruction: 0x01290000
    a4e8:	640c0550 	strvs	r0, [ip], #-1360	; 0xfffffab0
    a4ec:	00202150 	eoreq	r2, r0, r0, asr r1
    a4f0:	09422600 	stmdbeq	r2, {r9, sl, sp}^
    a4f4:	3a010000 	bcc	4a4fc <__bss_end__+0x40394>
    a4f8:	0000931c 	andeq	r9, r0, ip, lsl r3
    a4fc:	000000b0 	strheq	r0, [r0], -r0	; <UNPREDICTABLE>
    a500:	0c3d9c01 	ldceq	12, cr9, [sp], #-4
    a504:	2c280000 	stccs	0, cr0, [r8], #-0
    a508:	bd000093 	stclt	0, cr0, [r0, #-588]	; 0xfffffdb4
    a50c:	2c00000c 	stccs	0, cr0, [r0], {12}
    a510:	2900000b 	stmdbcs	r0, {r0, r1, r3}
    a514:	3e015001 	cdpcc	0, 0, cr5, cr1, cr1, {0}
    a518:	01510129 	cmpeq	r1, r9, lsr #2
    a51c:	38280032 	stmdacc	r8!, {r1, r4, r5}
    a520:	bd000093 	stclt	0, cr0, [r0, #-588]	; 0xfffffdb4
    a524:	4400000c 	strmi	r0, [r0], #-12
    a528:	2900000b 	stmdbcs	r0, {r0, r1, r3}
    a52c:	3f015001 	svccc	0x00015001
    a530:	01510129 	cmpeq	r1, r9, lsr #2
    a534:	3c250032 	stccc	0, cr0, [r5], #-200	; 0xffffff38
    a538:	9c000093 	stcls	0, cr0, [r0], {147}	; 0x93
    a53c:	2800000c 	stmdacs	r0, {r2, r3}
    a540:	00009348 	andeq	r9, r0, r8, asr #6
    a544:	00000c3d 	andeq	r0, r0, sp, lsr ip
    a548:	00000b69 	andeq	r0, r0, r9, ror #22
    a54c:	05500129 	ldrbeq	r0, [r0, #-297]	; 0xfffffed7
    a550:	2150040c 	cmpcs	r0, ip, lsl #8
    a554:	51012920 	tstpl	r1, r0, lsr #18
    a558:	25003101 	strcs	r3, [r0, #-257]	; 0xfffffeff
    a55c:	0000934c 	andeq	r9, r0, ip, asr #6
    a560:	00000c9c 	muleq	r0, ip, ip
    a564:	00935c28 	addseq	r5, r3, r8, lsr #24
    a568:	000ca700 	andeq	sl, ip, r0, lsl #14
    a56c:	000b8b00 	andeq	r8, fp, r0, lsl #22
    a570:	50012900 	andpl	r2, r1, r0, lsl #18
    a574:	29007402 	stmdbcs	r0, {r1, sl, ip, sp, lr}
    a578:	30015101 	andcc	r5, r1, r1, lsl #2
    a57c:	93682800 	cmnls	r8, #0, 16
    a580:	0ca70000 	stceq	0, cr0, [r7]
    a584:	0ba70000 	bleq	fe9ca58c <__bss_end__+0xfe9c0424>
    a588:	01290000 			; <UNDEFINED> instruction: 0x01290000
    a58c:	440c0550 	strmi	r0, [ip], #-1360	; 0xfffffab0
    a590:	29202150 	stmdbcs	r0!, {r4, r6, r8, sp}
    a594:	30015101 	andcc	r5, r1, r1, lsl #2
    a598:	93742800 	cmnls	r4, #0, 16
    a59c:	0ca70000 	stceq	0, cr0, [r7]
    a5a0:	0bc30000 	bleq	ff0ca5a8 <__bss_end__+0xff0c0440>
    a5a4:	01290000 			; <UNDEFINED> instruction: 0x01290000
    a5a8:	4c0c0550 	cfstr32mi	mvfx0, [ip], {80}	; 0x50
    a5ac:	29202150 	stmdbcs	r0!, {r4, r6, r8, sp}
    a5b0:	33015101 	movwcc	r5, #4353	; 0x1101
    a5b4:	93802800 	orrls	r2, r0, #0, 16
    a5b8:	0ca70000 	stceq	0, cr0, [r7]
    a5bc:	0bdf0000 	bleq	ff7ca5c4 <__bss_end__+0xff7c045c>
    a5c0:	01290000 			; <UNDEFINED> instruction: 0x01290000
    a5c4:	500c0550 	andpl	r0, ip, r0, asr r5
    a5c8:	29202150 	stmdbcs	r0!, {r4, r6, r8, sp}
    a5cc:	30015101 	andcc	r5, r1, r1, lsl #2
    a5d0:	938c2800 	orrls	r2, ip, #0, 16
    a5d4:	0ca70000 	stceq	0, cr0, [r7]
    a5d8:	0bfc0000 	bleq	fff0a5e0 <__bss_end__+0xfff00478>
    a5dc:	01290000 			; <UNDEFINED> instruction: 0x01290000
    a5e0:	480c0550 	stmdami	ip, {r4, r6, r8, sl}
    a5e4:	29202150 	stmdbcs	r0!, {r4, r6, r8, sp}
    a5e8:	08025101 	stmdaeq	r2, {r0, r8, ip, lr}
    a5ec:	982800c7 	stmdals	r8!, {r0, r1, r2, r6, r7}
    a5f0:	a7000093 			; <UNDEFINED> instruction: 0xa7000093
    a5f4:	1a00000c 	bne	a62c <__bss_end__+0x4c4>
    a5f8:	2900000c 	stmdbcs	r0, {r2, r3}
    a5fc:	0c055001 	stceq	0, cr5, [r5], {1}
    a600:	20215068 	eorcs	r5, r1, r8, rrx
    a604:	03510129 	cmpeq	r1, #1073741834	; 0x4000000a
    a608:	00010e0a 	andeq	r0, r1, sl, lsl #28
    a60c:	0093a428 	addseq	sl, r3, r8, lsr #8
    a610:	000ca700 	andeq	sl, ip, r0, lsl #14
    a614:	000c3300 	andeq	r3, ip, r0, lsl #6
    a618:	50012900 	andpl	r2, r1, r0, lsl #18
    a61c:	29007402 	stmdbcs	r0, {r1, sl, ip, sp, lr}
    a620:	33015101 	movwcc	r5, #4353	; 0x1101
    a624:	93a82500 			; <UNDEFINED> instruction: 0x93a82500
    a628:	0c9c0000 	ldceq	0, cr0, [ip], {0}
    a62c:	2c000000 	stccs	0, cr0, [r0], {-0}
    a630:	00000aea 	andeq	r0, r0, sl, ror #21
    a634:	92fc2d01 	rscsls	r2, ip, #1, 26	; 0x40
    a638:	00200000 	eoreq	r0, r0, r0
    a63c:	9c010000 	stcls	0, cr0, [r1], {-0}
    a640:	00000c95 	muleq	r0, r5, ip
    a644:	000c412d 	andeq	r4, ip, sp, lsr #2
    a648:	952d0100 	strls	r0, [sp, #-256]!	; 0xffffff00
    a64c:	0200000c 	andeq	r0, r0, #12
    a650:	27000014 	smladcs	r0, r4, r0, r0
    a654:	006c6176 	rsbeq	r6, ip, r6, ror r1
    a658:	002c2d01 	eoreq	r2, ip, r1, lsl #26
    a65c:	14200000 	strtne	r0, [r0], #-0
    a660:	0c280000 	stceq	0, cr0, [r8], #-0
    a664:	b2000093 	andlt	r0, r0, #147	; 0x93
    a668:	8400000c 	strhi	r0, [r0], #-12
    a66c:	2900000c 	stmdbcs	r0, {r2, r3}
    a670:	74025001 	strvc	r5, [r2], #-1
    a674:	182b0000 	stmdane	fp!, {}	; <UNPREDICTABLE>
    a678:	a7000093 			; <UNDEFINED> instruction: 0xa7000093
    a67c:	2900000c 	stmdbcs	r0, {r2, r3}
    a680:	74025001 	strvc	r5, [r2], #-1
    a684:	0e000000 	cdpeq	0, 0, cr0, cr0, cr0, {0}
    a688:	000c9b04 	andeq	r9, ip, r4, lsl #22
    a68c:	e12f2e00 			; <UNDEFINED> instruction: 0xe12f2e00
    a690:	e1000009 	tst	r0, r9
    a694:	06000009 	streq	r0, [r0], -r9
    a698:	0a4b2f89 	beq	12d64c4 <__bss_end__+0x12cc35c>
    a69c:	0a4b0000 	beq	12ca6a4 <__bss_end__+0x12c053c>
    a6a0:	9c060000 	stcls	0, cr0, [r6], {-0}
    a6a4:	000ad62f 	andeq	sp, sl, pc, lsr #12
    a6a8:	000ad600 	andeq	sp, sl, r0, lsl #12
    a6ac:	2fa80600 	svccs	0x00a80600
    a6b0:	00000a05 	andeq	r0, r0, r5, lsl #20
    a6b4:	00000a05 	andeq	r0, r0, r5, lsl #20
    a6b8:	70001908 	andvc	r1, r0, r8, lsl #18
    a6bc:	0400000b 	streq	r0, [r0], #-11
    a6c0:	0021b400 	eoreq	fp, r1, r0, lsl #8
    a6c4:	51010400 	tstpl	r1, r0, lsl #8
    a6c8:	0c00000a 	stceq	0, cr0, [r0], {10}
    a6cc:	00000b4e 	andeq	r0, r0, lr, asr #22
    a6d0:	00000988 	andeq	r0, r0, r8, lsl #19
    a6d4:	00009474 	andeq	r9, r0, r4, ror r4
    a6d8:	00000120 	andeq	r0, r0, r0, lsr #2
    a6dc:	00001bbd 			; <UNDEFINED> instruction: 0x00001bbd
    a6e0:	69050402 	stmdbvs	r5, {r1, sl}
    a6e4:	0300746e 	movweq	r7, #1134	; 0x46e
    a6e8:	00660704 	rsbeq	r0, r6, r4, lsl #14
    a6ec:	2c040000 	stccs	0, cr0, [r4], {-0}
    a6f0:	03000000 	movweq	r0, #0
    a6f4:	02ec0601 	rsceq	r0, ip, #1048576	; 0x100000
    a6f8:	02030000 	andeq	r0, r3, #0
    a6fc:	00038505 	andeq	r8, r3, r5, lsl #10
    a700:	05040300 	streq	r0, [r4, #-768]	; 0xfffffd00
    a704:	000000ac 	andeq	r0, r0, ip, lsr #1
    a708:	a7050803 	strge	r0, [r5, -r3, lsl #16]
    a70c:	03000000 	movweq	r0, #0
    a710:	02ea0801 	rsceq	r0, sl, #65536	; 0x10000
    a714:	02030000 	andeq	r0, r3, #0
    a718:	00022207 	andeq	r2, r2, r7, lsl #4
    a71c:	07040300 	streq	r0, [r4, -r0, lsl #6]
    a720:	00000061 	andeq	r0, r0, r1, rrx
    a724:	5c070803 	stcpl	8, cr0, [r7], {3}
    a728:	05000000 	streq	r0, [r0, #-0]
    a72c:	00000a1c 	andeq	r0, r0, ip, lsl sl
    a730:	00250702 	eoreq	r0, r5, r2, lsl #14
    a734:	cb050000 	blgt	14a73c <__bss_end__+0x1405d4>
    a738:	03000002 	movweq	r0, #2
    a73c:	0000462c 	andeq	r4, r0, ip, lsr #12
    a740:	04400500 	strbeq	r0, [r0], #-1280	; 0xfffffb00
    a744:	72030000 	andvc	r0, r3, #0
    a748:	00000046 	andeq	r0, r0, r6, asr #32
    a74c:	00026d06 	andeq	r6, r2, r6, lsl #26
    a750:	01650400 	cmneq	r5, r0, lsl #8
    a754:	0000002c 	andeq	r0, r0, ip, lsr #32
    a758:	a6030407 	strge	r0, [r3], -r7, lsl #8
    a75c:	000000bc 	strheq	r0, [r0], -ip
    a760:	00025f08 	andeq	r5, r2, r8, lsl #30
    a764:	91a80300 			; <UNDEFINED> instruction: 0x91a80300
    a768:	08000000 	stmdaeq	r0, {}	; <UNPREDICTABLE>
    a76c:	000001e2 	andeq	r0, r0, r2, ror #3
    a770:	00bca903 	adcseq	sl, ip, r3, lsl #18
    a774:	09000000 	stmdbeq	r0, {}	; <UNPREDICTABLE>
    a778:	00000054 	andeq	r0, r0, r4, asr r0
    a77c:	000000cc 	andeq	r0, r0, ip, asr #1
    a780:	0000cc0a 	andeq	ip, r0, sl, lsl #24
    a784:	03000300 	movweq	r0, #768	; 0x300
    a788:	09fc0704 	ldmibeq	ip!, {r2, r8, r9, sl}^
    a78c:	080b0000 	stmdaeq	fp, {}	; <UNPREDICTABLE>
    a790:	00f4a303 	rscseq	sl, r4, r3, lsl #6
    a794:	230c0000 	movwcs	r0, #49152	; 0xc000
    a798:	03000004 	movweq	r0, #4
    a79c:	000025a5 	andeq	r2, r0, r5, lsr #11
    a7a0:	320c0000 	andcc	r0, ip, #0
    a7a4:	03000004 	movweq	r0, #4
    a7a8:	00009daa 	andeq	r9, r0, sl, lsr #27
    a7ac:	05000400 	streq	r0, [r0, #-1024]	; 0xfffffc00
    a7b0:	000003ad 	andeq	r0, r0, sp, lsr #7
    a7b4:	00d3ab03 	sbcseq	sl, r3, r3, lsl #22
    a7b8:	9f050000 	svcls	0x00050000
    a7bc:	03000001 	movweq	r0, #1
    a7c0:	000070af 	andeq	r7, r0, pc, lsr #1
    a7c4:	0e040d00 	cdpeq	13, 0, cr0, cr4, cr0, {0}
    a7c8:	00011204 	andeq	r1, r1, r4, lsl #4
    a7cc:	08010300 	stmdaeq	r1, {r8, r9}
    a7d0:	000002f3 	strdeq	r0, [r0], -r3
    a7d4:	00011204 	andeq	r1, r1, r4, lsl #4
    a7d8:	04720500 	ldrbteq	r0, [r2], #-1280	; 0xfffffb00
    a7dc:	16050000 	strne	r0, [r5], -r0
    a7e0:	00000062 	andeq	r0, r0, r2, rrx
    a7e4:	0001b00f 	andeq	fp, r1, pc
    a7e8:	2d051800 	stccs	8, cr1, [r5, #-0]
    a7ec:	0000017c 	andeq	r0, r0, ip, ror r1
    a7f0:	0003ce0c 	andeq	ip, r3, ip, lsl #28
    a7f4:	7c2f0500 	cfstr32vc	mvfx0, [pc], #-0	; a7fc <__bss_end__+0x694>
    a7f8:	00000001 	andeq	r0, r0, r1
    a7fc:	006b5f10 	rsbeq	r5, fp, r0, lsl pc
    a800:	00253005 	eoreq	r3, r5, r5
    a804:	0c040000 	stceq	0, cr0, [r4], {-0}
    a808:	0000040e 	andeq	r0, r0, lr, lsl #8
    a80c:	00253005 	eoreq	r3, r5, r5
    a810:	0c080000 	stceq	0, cr0, [r8], {-0}
    a814:	00000199 	muleq	r0, r9, r1
    a818:	00253005 	eoreq	r3, r5, r5
    a81c:	0c0c0000 	stceq	0, cr0, [ip], {-0}
    a820:	000004b2 			; <UNDEFINED> instruction: 0x000004b2
    a824:	00253005 	eoreq	r3, r5, r5
    a828:	10100000 	andsne	r0, r0, r0
    a82c:	0500785f 	streq	r7, [r0, #-2143]	; 0xfffff7a1
    a830:	00018231 	andeq	r8, r1, r1, lsr r2
    a834:	0e001400 	cfcpyseq	mvf1, mvf0
    a838:	00012904 	andeq	r2, r1, r4, lsl #18
    a83c:	011e0900 	tsteq	lr, r0, lsl #18
    a840:	01920000 	orrseq	r0, r2, r0
    a844:	cc0a0000 	stcgt	0, cr0, [sl], {-0}
    a848:	00000000 	andeq	r0, r0, r0
    a84c:	01dd0f00 	bicseq	r0, sp, r0, lsl #30
    a850:	05240000 	streq	r0, [r4, #-0]!
    a854:	00020b35 	andeq	r0, r2, r5, lsr fp
    a858:	009e0c00 	addseq	r0, lr, r0, lsl #24
    a85c:	37050000 	strcc	r0, [r5, -r0]
    a860:	00000025 	andeq	r0, r0, r5, lsr #32
    a864:	04480c00 	strbeq	r0, [r8], #-3072	; 0xfffff400
    a868:	38050000 	stmdacc	r5, {}	; <UNPREDICTABLE>
    a86c:	00000025 	andeq	r0, r0, r5, lsr #32
    a870:	00c10c04 	sbceq	r0, r1, r4, lsl #24
    a874:	39050000 	stmdbcc	r5, {}	; <UNPREDICTABLE>
    a878:	00000025 	andeq	r0, r0, r5, lsr #32
    a87c:	05330c08 	ldreq	r0, [r3, #-3080]!	; 0xfffff3f8
    a880:	3a050000 	bcc	14a888 <__bss_end__+0x140720>
    a884:	00000025 	andeq	r0, r0, r5, lsr #32
    a888:	02af0c0c 	adceq	r0, pc, #12, 24	; 0xc00
    a88c:	3b050000 	blcc	14a894 <__bss_end__+0x14072c>
    a890:	00000025 	andeq	r0, r0, r5, lsr #32
    a894:	02830c10 	addeq	r0, r3, #16, 24	; 0x1000
    a898:	3c050000 	stccc	0, cr0, [r5], {-0}
    a89c:	00000025 	andeq	r0, r0, r5, lsr #32
    a8a0:	04b70c14 	ldrteq	r0, [r7], #3092	; 0xc14
    a8a4:	3d050000 	stccc	0, cr0, [r5, #-0]
    a8a8:	00000025 	andeq	r0, r0, r5, lsr #32
    a8ac:	038f0c18 	orreq	r0, pc, #24, 24	; 0x1800
    a8b0:	3e050000 	cdpcc	0, 0, cr0, cr5, cr0, {0}
    a8b4:	00000025 	andeq	r0, r0, r5, lsr #32
    a8b8:	04fa0c1c 	ldrbteq	r0, [sl], #3100	; 0xc1c
    a8bc:	3f050000 	svccc	0x00050000
    a8c0:	00000025 	andeq	r0, r0, r5, lsr #32
    a8c4:	01110020 	tsteq	r1, r0, lsr #32
    a8c8:	08000001 	stmdaeq	r0, {r0}
    a8cc:	4b480501 	blmi	120bcd8 <__bss_end__+0x1201b70>
    a8d0:	0c000002 	stceq	0, cr0, [r0], {2}
    a8d4:	0000018c 	andeq	r0, r0, ip, lsl #3
    a8d8:	024b4905 	subeq	r4, fp, #81920	; 0x14000
    a8dc:	0c000000 	stceq	0, cr0, [r0], {-0}
    a8e0:	00000000 	andeq	r0, r0, r0
    a8e4:	024b4a05 	subeq	r4, fp, #20480	; 0x5000
    a8e8:	12800000 	addne	r0, r0, #0
    a8ec:	00000464 	andeq	r0, r0, r4, ror #8
    a8f0:	011e4c05 	tsteq	lr, r5, lsl #24
    a8f4:	01000000 	mrseq	r0, (UNDEF: 0)
    a8f8:	00012612 	andeq	r2, r1, r2, lsl r6
    a8fc:	1e4f0500 	cdpne	5, 4, cr0, cr15, cr0, {0}
    a900:	04000001 	streq	r0, [r0], #-1
    a904:	0a090001 	beq	24a910 <__bss_end__+0x2407a8>
    a908:	5b000001 	blpl	a914 <__bss_end__+0x7ac>
    a90c:	0a000002 	beq	a91c <__bss_end__+0x7b4>
    a910:	000000cc 	andeq	r0, r0, ip, asr #1
    a914:	b811001f 	ldmdalt	r1, {r0, r1, r2, r3, r4}
    a918:	90000002 	andls	r0, r0, r2
    a91c:	995b0501 	ldmdbls	fp, {r0, r8, sl}^
    a920:	0c000002 	stceq	0, cr0, [r0], {2}
    a924:	000003ce 	andeq	r0, r0, lr, asr #7
    a928:	02995c05 	addseq	r5, r9, #1280	; 0x500
    a92c:	0c000000 	stceq	0, cr0, [r0], {-0}
    a930:	000003e6 	andeq	r0, r0, r6, ror #7
    a934:	00255d05 	eoreq	r5, r5, r5, lsl #26
    a938:	0c040000 	stceq	0, cr0, [r4], {-0}
    a93c:	00000194 	muleq	r0, r4, r1
    a940:	029f5f05 	addseq	r5, pc, #5, 30
    a944:	0c080000 	stceq	0, cr0, [r8], {-0}
    a948:	00000101 	andeq	r0, r0, r1, lsl #2
    a94c:	020b6005 	andeq	r6, fp, #5
    a950:	00880000 	addeq	r0, r8, r0
    a954:	025b040e 	subseq	r0, fp, #234881024	; 0xe000000
    a958:	af090000 	svcge	0x00090000
    a95c:	af000002 	svcge	0x00000002
    a960:	0a000002 	beq	a970 <__bss_end__+0x808>
    a964:	000000cc 	andeq	r0, r0, ip, asr #1
    a968:	040e001f 	streq	r0, [lr], #-31	; 0xffffffe1
    a96c:	000002b5 			; <UNDEFINED> instruction: 0x000002b5
    a970:	03990f13 	orrseq	r0, r9, #19, 30	; 0x4c
    a974:	05080000 	streq	r0, [r8, #-0]
    a978:	0002db73 	andeq	sp, r2, r3, ror fp
    a97c:	00bb0c00 	adcseq	r0, fp, r0, lsl #24
    a980:	74050000 	strvc	r0, [r5], #-0
    a984:	000002db 	ldrdeq	r0, [r0], -fp
    a988:	001b0c00 	andseq	r0, fp, r0, lsl #24
    a98c:	75050000 	strvc	r0, [r5, #-0]
    a990:	00000025 	andeq	r0, r0, r5, lsr #32
    a994:	040e0004 	streq	r0, [lr], #-4
    a998:	00000054 	andeq	r0, r0, r4, asr r0
    a99c:	0003b80f 	andeq	fp, r3, pc, lsl #16
    a9a0:	b3056800 	movwlt	r6, #22528	; 0x5800
    a9a4:	0000040b 	andeq	r0, r0, fp, lsl #8
    a9a8:	00705f10 	rsbseq	r5, r0, r0, lsl pc
    a9ac:	02dbb405 	sbcseq	fp, fp, #83886080	; 0x5000000
    a9b0:	10000000 	andne	r0, r0, r0
    a9b4:	0500725f 	streq	r7, [r0, #-607]	; 0xfffffda1
    a9b8:	000025b5 			; <UNDEFINED> instruction: 0x000025b5
    a9bc:	5f100400 	svcpl	0x00100400
    a9c0:	b6050077 			; <UNDEFINED> instruction: 0xb6050077
    a9c4:	00000025 	andeq	r0, r0, r5, lsr #32
    a9c8:	011f0c08 	tsteq	pc, r8, lsl #24
    a9cc:	b7050000 	strlt	r0, [r5, -r0]
    a9d0:	0000003f 	andeq	r0, r0, pc, lsr r0
    a9d4:	02080c0c 	andeq	r0, r8, #12, 24	; 0xc00
    a9d8:	b8050000 	stmdalt	r5, {}	; <UNPREDICTABLE>
    a9dc:	0000003f 	andeq	r0, r0, pc, lsr r0
    a9e0:	625f100e 	subsvs	r1, pc, #14
    a9e4:	b9050066 	stmdblt	r5, {r1, r2, r5, r6}
    a9e8:	000002b6 			; <UNDEFINED> instruction: 0x000002b6
    a9ec:	007b0c10 	rsbseq	r0, fp, r0, lsl ip
    a9f0:	ba050000 	blt	14a9f8 <__bss_end__+0x140890>
    a9f4:	00000025 	andeq	r0, r0, r5, lsr #32
    a9f8:	010f0c18 	tsteq	pc, r8, lsl ip	; <UNPREDICTABLE>
    a9fc:	c1050000 	mrsgt	r0, (UNDEF: 5)
    aa00:	0000010a 	andeq	r0, r0, sl, lsl #2
    aa04:	0b590c1c 	bleq	164da7c <__bss_end__+0x1643914>
    aa08:	c3050000 	movwgt	r0, #20480	; 0x5000
    aa0c:	00000566 	andeq	r0, r0, r6, ror #10
    aa10:	061d0c20 	ldreq	r0, [sp], -r0, lsr #24
    aa14:	c5050000 	strgt	r0, [r5, #-0]
    aa18:	00000590 	muleq	r0, r0, r5
    aa1c:	043a0c24 	ldrteq	r0, [sl], #-3108	; 0xfffff3dc
    aa20:	c8050000 	stmdagt	r5, {}	; <UNPREDICTABLE>
    aa24:	000005b4 			; <UNDEFINED> instruction: 0x000005b4
    aa28:	05140c28 	ldreq	r0, [r4, #-3112]	; 0xfffff3d8
    aa2c:	c9050000 	stmdbgt	r5, {}	; <UNPREDICTABLE>
    aa30:	000005ce 	andeq	r0, r0, lr, asr #11
    aa34:	755f102c 	ldrbvc	r1, [pc, #-44]	; aa10 <__bss_end__+0x8a8>
    aa38:	cc050062 	stcgt	0, cr0, [r5], {98}	; 0x62
    aa3c:	000002b6 			; <UNDEFINED> instruction: 0x000002b6
    aa40:	755f1030 	ldrbvc	r1, [pc, #-48]	; aa18 <__bss_end__+0x8b0>
    aa44:	cd050070 	stcgt	0, cr0, [r5, #-448]	; 0xfffffe40
    aa48:	000002db 	ldrdeq	r0, [r0], -fp
    aa4c:	755f1038 	ldrbvc	r1, [pc, #-56]	; aa1c <__bss_end__+0x8b4>
    aa50:	ce050072 	mcrgt	0, 0, r0, cr5, cr2, {3}
    aa54:	00000025 	andeq	r0, r0, r5, lsr #32
    aa58:	00b50c3c 	adcseq	r0, r5, ip, lsr ip
    aa5c:	d1050000 	mrsle	r0, (UNDEF: 5)
    aa60:	000005d4 	ldrdeq	r0, [r0], -r4
    aa64:	04ec0c40 	strbteq	r0, [ip], #3136	; 0xc40
    aa68:	d2050000 	andle	r0, r5, #0
    aa6c:	000005e4 	andeq	r0, r0, r4, ror #11
    aa70:	6c5f1043 	mrrcvs	0, 4, r1, pc, cr3	; <UNPREDICTABLE>
    aa74:	d5050062 	strle	r0, [r5, #-98]	; 0xffffff9e
    aa78:	000002b6 			; <UNDEFINED> instruction: 0x000002b6
    aa7c:	013d0c44 	teqeq	sp, r4, asr #24
    aa80:	d8050000 	stmdale	r5, {}	; <UNPREDICTABLE>
    aa84:	00000025 	andeq	r0, r0, r5, lsr #32
    aa88:	014e0c4c 	cmpeq	lr, ip, asr #24
    aa8c:	d9050000 	stmdble	r5, {}	; <UNPREDICTABLE>
    aa90:	0000007b 	andeq	r0, r0, fp, ror r0
    aa94:	0afa0c50 	beq	ffe8dbdc <__bss_end__+0xffe83a74>
    aa98:	dc050000 	stcle	0, cr0, [r5], {-0}
    aa9c:	00000429 	andeq	r0, r0, r9, lsr #8
    aaa0:	042c0c54 	strteq	r0, [ip], #-3156	; 0xfffff3ac
    aaa4:	e0050000 	and	r0, r5, r0
    aaa8:	000000ff 	strdeq	r0, [r0], -pc	; <UNPREDICTABLE>
    aaac:	03c00c58 	biceq	r0, r0, #88, 24	; 0x5800
    aab0:	e2050000 	and	r0, r5, #0
    aab4:	000000f4 	strdeq	r0, [r0], -r4
    aab8:	027b0c5c 	rsbseq	r0, fp, #92, 24	; 0x5c00
    aabc:	e3050000 	movw	r0, #20480	; 0x5000
    aac0:	00000025 	andeq	r0, r0, r5, lsr #32
    aac4:	25140064 	ldrcs	r0, [r4, #-100]	; 0xffffff9c
    aac8:	29000000 	stmdbcs	r0, {}	; <UNPREDICTABLE>
    aacc:	15000004 	strne	r0, [r0, #-4]
    aad0:	00000429 	andeq	r0, r0, r9, lsr #8
    aad4:	00010a15 	andeq	r0, r1, r5, lsl sl
    aad8:	010c1500 	tsteq	ip, r0, lsl #10
    aadc:	25150000 	ldrcs	r0, [r5, #-0]
    aae0:	00000000 	andeq	r0, r0, r0
    aae4:	0434040e 	ldrteq	r0, [r4], #-1038	; 0xfffffbf2
    aae8:	29040000 	stmdbcs	r4, {}	; <UNPREDICTABLE>
    aaec:	16000004 	strne	r0, [r0], -r4
    aaf0:	00000416 	andeq	r0, r0, r6, lsl r4
    aaf4:	38050428 	stmdacc	r5, {r3, r5, sl}
    aaf8:	00056602 	andeq	r6, r5, r2, lsl #12
    aafc:	037e1700 	cmneq	lr, #0, 14
    ab00:	3a050000 	bcc	14ab08 <__bss_end__+0x1409a0>
    ab04:	00002502 	andeq	r2, r0, r2, lsl #10
    ab08:	2e170000 	cdpcs	0, 1, cr0, cr7, cr0, {0}
    ab0c:	05000001 	streq	r0, [r0, #-1]
    ab10:	063b023f 			; <UNDEFINED> instruction: 0x063b023f
    ab14:	17040000 	strne	r0, [r4, -r0]
    ab18:	000001f8 	strdeq	r0, [r0], -r8
    ab1c:	3b023f05 	blcc	9a738 <__bss_end__+0x905d0>
    ab20:	08000006 	stmdaeq	r0, {r1, r2}
    ab24:	0001a817 	andeq	sl, r1, r7, lsl r8
    ab28:	023f0500 	eorseq	r0, pc, #0, 10
    ab2c:	0000063b 	andeq	r0, r0, fp, lsr r6
    ab30:	03e1170c 	mvneq	r1, #12, 14	; 0x300000
    ab34:	41050000 	mrsmi	r0, (UNDEF: 5)
    ab38:	00002502 	andeq	r2, r0, r2, lsl #10
    ab3c:	29171000 	ldmdbcs	r7, {ip}
    ab40:	05000000 	streq	r0, [r0, #-0]
    ab44:	081d0242 	ldmdaeq	sp, {r1, r6, r9}
    ab48:	17140000 	ldrne	r0, [r4, -r0]
    ab4c:	00000ab3 			; <UNDEFINED> instruction: 0x00000ab3
    ab50:	25024405 	strcs	r4, [r2, #-1029]	; 0xfffffbfb
    ab54:	30000000 	andcc	r0, r0, r0
    ab58:	000a2e17 	andeq	r2, sl, r7, lsl lr
    ab5c:	02450500 	subeq	r0, r5, #0, 10
    ab60:	0000058a 	andeq	r0, r0, sl, lsl #11
    ab64:	02c01734 	sbceq	r1, r0, #52, 14	; 0xd00000
    ab68:	47050000 	strmi	r0, [r5, -r0]
    ab6c:	00002502 	andeq	r2, r0, r2, lsl #10
    ab70:	eb173800 	bl	5d8b78 <__bss_end__+0x5cea10>
    ab74:	05000003 	streq	r0, [r0, #-3]
    ab78:	08380249 	ldmdaeq	r8!, {r0, r3, r6, r9}
    ab7c:	173c0000 	ldrne	r0, [ip, -r0]!
    ab80:	00000257 	andeq	r0, r0, r7, asr r2
    ab84:	7c024c05 	stcvc	12, cr4, [r2], {5}
    ab88:	40000001 	andmi	r0, r0, r1
    ab8c:	0001c717 	andeq	ip, r1, r7, lsl r7
    ab90:	024d0500 	subeq	r0, sp, #0, 10
    ab94:	00000025 	andeq	r0, r0, r5, lsr #32
    ab98:	052e1744 	streq	r1, [lr, #-1860]!	; 0xfffff8bc
    ab9c:	4e050000 	cdpmi	0, 0, cr0, cr5, cr0, {0}
    aba0:	00017c02 	andeq	r7, r1, r2, lsl #24
    aba4:	d2174800 	andsle	r4, r7, #0, 16
    aba8:	05000002 	streq	r0, [r0, #-2]
    abac:	083e024f 	ldmdaeq	lr!, {r0, r1, r2, r3, r6, r9}
    abb0:	174c0000 	strbne	r0, [ip, -r0]
    abb4:	00000200 	andeq	r0, r0, r0, lsl #4
    abb8:	25025205 	strcs	r5, [r2, #-517]	; 0xfffffdfb
    abbc:	50000000 	andpl	r0, r0, r0
    abc0:	00014617 	andeq	r4, r1, r7, lsl r6
    abc4:	02530500 	subseq	r0, r3, #0, 10
    abc8:	0000010c 	andeq	r0, r0, ip, lsl #2
    abcc:	02f81754 	rscseq	r1, r8, #84, 14	; 0x1500000
    abd0:	76050000 	strvc	r0, [r5], -r0
    abd4:	0007fb02 	andeq	pc, r7, r2, lsl #22
    abd8:	b8185800 	ldmdalt	r8, {fp, ip, lr}
    abdc:	05000002 	streq	r0, [r0, #-2]
    abe0:	0299027a 	addseq	r0, r9, #-1610612729	; 0xa0000007
    abe4:	01480000 	mrseq	r0, (UNDEF: 72)
    abe8:	00023518 	andeq	r3, r2, r8, lsl r5
    abec:	027b0500 	rsbseq	r0, fp, #0, 10
    abf0:	0000025b 	andeq	r0, r0, fp, asr r2
    abf4:	da18014c 	ble	60b12c <__bss_end__+0x600fc4>
    abf8:	05000004 	streq	r0, [r0, #-4]
    abfc:	084f027f 	stmdaeq	pc, {r0, r1, r2, r3, r4, r5, r6, r9}^	; <UNPREDICTABLE>
    ac00:	02dc0000 	sbcseq	r0, ip, #0
    ac04:	00011718 	andeq	r1, r1, r8, lsl r7
    ac08:	02840500 	addeq	r0, r4, #0, 10
    ac0c:	00000600 	andeq	r0, r0, r0, lsl #12
    ac10:	fc1802e0 	ldc2	2, cr0, [r8], {224}	; 0xe0
    ac14:	05000000 	streq	r0, [r0, #-0]
    ac18:	085b0285 	ldmdaeq	fp, {r0, r2, r7, r9}^
    ac1c:	02ec0000 	rsceq	r0, ip, #0
    ac20:	0b040e00 	bleq	10e428 <__bss_end__+0x1042c0>
    ac24:	14000004 	strne	r0, [r0], #-4
    ac28:	00000025 	andeq	r0, r0, r5, lsr #32
    ac2c:	0000058a 	andeq	r0, r0, sl, lsl #11
    ac30:	00042915 	andeq	r2, r4, r5, lsl r9
    ac34:	010a1500 	tsteq	sl, r0, lsl #10
    ac38:	8a150000 	bhi	54ac40 <__bss_end__+0x540ad8>
    ac3c:	15000005 	strne	r0, [r0, #-5]
    ac40:	00000025 	andeq	r0, r0, r5, lsr #32
    ac44:	19040e00 	stmdbne	r4, {r9, sl, fp}
    ac48:	0e000001 	cdpeq	0, 0, cr0, cr0, cr1, {0}
    ac4c:	00056c04 	andeq	r6, r5, r4, lsl #24
    ac50:	00861400 	addeq	r1, r6, r0, lsl #8
    ac54:	05b40000 	ldreq	r0, [r4, #0]!
    ac58:	29150000 	ldmdbcs	r5, {}	; <UNPREDICTABLE>
    ac5c:	15000004 	strne	r0, [r0, #-4]
    ac60:	0000010a 	andeq	r0, r0, sl, lsl #2
    ac64:	00008615 	andeq	r8, r0, r5, lsl r6
    ac68:	00251500 	eoreq	r1, r5, r0, lsl #10
    ac6c:	0e000000 	cdpeq	0, 0, cr0, cr0, cr0, {0}
    ac70:	00059604 	andeq	r9, r5, r4, lsl #12
    ac74:	00251400 	eoreq	r1, r5, r0, lsl #8
    ac78:	05ce0000 	strbeq	r0, [lr]
    ac7c:	29150000 	ldmdbcs	r5, {}	; <UNPREDICTABLE>
    ac80:	15000004 	strne	r0, [r0, #-4]
    ac84:	0000010a 	andeq	r0, r0, sl, lsl #2
    ac88:	ba040e00 	blt	10e490 <__bss_end__+0x104328>
    ac8c:	09000005 	stmdbeq	r0, {r0, r2}
    ac90:	00000054 	andeq	r0, r0, r4, asr r0
    ac94:	000005e4 	andeq	r0, r0, r4, ror #11
    ac98:	0000cc0a 	andeq	ip, r0, sl, lsl #24
    ac9c:	09000200 	stmdbeq	r0, {r9}
    aca0:	00000054 	andeq	r0, r0, r4, asr r0
    aca4:	000005f4 	strdeq	r0, [r0], -r4
    aca8:	0000cc0a 	andeq	ip, r0, sl, lsl #24
    acac:	06000000 	streq	r0, [r0], -r0
    acb0:	000003a6 	andeq	r0, r0, r6, lsr #7
    acb4:	e1011d05 	tst	r1, r5, lsl #26
    acb8:	19000002 	stmdbne	r0, {r1}
    acbc:	000004c1 	andeq	r0, r0, r1, asr #9
    acc0:	0121050c 			; <UNDEFINED> instruction: 0x0121050c
    acc4:	00000635 	andeq	r0, r0, r5, lsr r6
    acc8:	0003ce17 	andeq	ip, r3, r7, lsl lr
    accc:	01230500 			; <UNDEFINED> instruction: 0x01230500
    acd0:	00000635 	andeq	r0, r0, r5, lsr r6
    acd4:	021b1700 	andseq	r1, fp, #0, 14
    acd8:	24050000 	strcs	r0, [r5], #-0
    acdc:	00002501 	andeq	r2, r0, r1, lsl #10
    ace0:	a0170400 	andsge	r0, r7, r0, lsl #8
    ace4:	05000003 	streq	r0, [r0, #-3]
    ace8:	063b0125 	ldrteq	r0, [fp], -r5, lsr #2
    acec:	00080000 	andeq	r0, r8, r0
    acf0:	0600040e 	streq	r0, [r0], -lr, lsl #8
    acf4:	040e0000 	streq	r0, [lr], #-0
    acf8:	000005f4 	strdeq	r0, [r0], -r4
    acfc:	00002119 	andeq	r2, r0, r9, lsl r1
    ad00:	3d050e00 	stccc	14, cr0, [r5, #-0]
    ad04:	00067601 	andeq	r7, r6, r1, lsl #12
    ad08:	041d1700 	ldreq	r1, [sp], #-1792	; 0xfffff900
    ad0c:	3e050000 	cdpcc	0, 0, cr0, cr5, cr0, {0}
    ad10:	00067601 	andeq	r7, r6, r1, lsl #12
    ad14:	51170000 	tstpl	r7, r0
    ad18:	05000004 	streq	r0, [r0, #-4]
    ad1c:	0676013f 			; <UNDEFINED> instruction: 0x0676013f
    ad20:	17060000 	strne	r0, [r6, -r0]
    ad24:	0000046d 	andeq	r0, r0, sp, ror #8
    ad28:	5b014005 	blpl	5ad44 <__bss_end__+0x50bdc>
    ad2c:	0c000000 	stceq	0, cr0, [r0], {-0}
    ad30:	005b0900 	subseq	r0, fp, r0, lsl #18
    ad34:	06860000 	streq	r0, [r6], r0
    ad38:	cc0a0000 	stcgt	0, cr0, [sl], {-0}
    ad3c:	02000000 	andeq	r0, r0, #0
    ad40:	05d01a00 	ldrbeq	r1, [r0, #2560]	; 0xa00
    ad44:	07870257 			; <UNDEFINED> instruction: 0x07870257
    ad48:	a5170000 	ldrge	r0, [r7, #-0]
    ad4c:	05000004 	streq	r0, [r0, #-4]
    ad50:	002c0259 	eoreq	r0, ip, r9, asr r2
    ad54:	17000000 	strne	r0, [r0, -r0]
    ad58:	00000457 	andeq	r0, r0, r7, asr r4
    ad5c:	0c025a05 			; <UNDEFINED> instruction: 0x0c025a05
    ad60:	04000001 	streq	r0, [r0], #-1
    ad64:	00024a17 	andeq	r4, r2, r7, lsl sl
    ad68:	025b0500 	subseq	r0, fp, #0, 10
    ad6c:	00000787 	andeq	r0, r0, r7, lsl #15
    ad70:	05051708 	streq	r1, [r5, #-1800]	; 0xfffff8f8
    ad74:	5c050000 	stcpl	0, cr0, [r5], {-0}
    ad78:	00019202 	andeq	r9, r1, r2, lsl #4
    ad7c:	b8172400 	ldmdalt	r7, {sl, sp}
    ad80:	05000001 	streq	r0, [r0, #-1]
    ad84:	0025025d 	eoreq	r0, r5, sp, asr r2
    ad88:	17480000 	strbne	r0, [r8, -r0]
    ad8c:	000003c9 	andeq	r0, r0, r9, asr #7
    ad90:	69025e05 	stmdbvs	r2, {r0, r2, r9, sl, fp, ip, lr}
    ad94:	50000000 	andpl	r0, r0, r0
    ad98:	00051b17 	andeq	r1, r5, r7, lsl fp
    ad9c:	025f0500 	subseq	r0, pc, #0, 10
    ada0:	00000641 	andeq	r0, r0, r1, asr #12
    ada4:	03d41758 	bicseq	r1, r4, #88, 14	; 0x1600000
    ada8:	60050000 	andvs	r0, r5, r0
    adac:	0000f402 	andeq	pc, r0, r2, lsl #8
    adb0:	20176800 	andscs	r6, r7, r0, lsl #16
    adb4:	05000005 	streq	r0, [r0, #-5]
    adb8:	00f40261 	rscseq	r0, r4, r1, ror #4
    adbc:	17700000 	ldrbne	r0, [r0, -r0]!
    adc0:	000002dc 	ldrdeq	r0, [r0], -ip
    adc4:	f4026205 	vst1.8	{d6-d9}, [r2], r5
    adc8:	78000000 	stmdavc	r0, {}	; <UNPREDICTABLE>
    adcc:	0004d017 	andeq	sp, r4, r7, lsl r0
    add0:	02630500 	rsbeq	r0, r3, #0, 10
    add4:	00000797 	muleq	r0, r7, r7
    add8:	023e1780 	eorseq	r1, lr, #128, 14	; 0x2000000
    addc:	64050000 	strvs	r0, [r5], #-0
    ade0:	0007a702 	andeq	sl, r7, r2, lsl #14
    ade4:	7a178800 	bvc	5ecdec <__bss_end__+0x5e2c84>
    ade8:	05000004 	streq	r0, [r0, #-4]
    adec:	00250265 	eoreq	r0, r5, r5, ror #4
    adf0:	17a00000 	strne	r0, [r0, r0]!
    adf4:	0000017e 	andeq	r0, r0, lr, ror r1
    adf8:	f4026605 	vst1.8	{d6-d8}, [r2], r5
    adfc:	a4000000 	strge	r0, [r0], #-0
    ae00:	00008f17 	andeq	r8, r0, r7, lsl pc
    ae04:	02670500 	rsbeq	r0, r7, #0, 10
    ae08:	000000f4 	strdeq	r0, [r0], -r4
    ae0c:	016d17ac 	cmneq	sp, ip, lsr #15
    ae10:	68050000 	stmdavs	r5, {}	; <UNPREDICTABLE>
    ae14:	0000f402 	andeq	pc, r0, r2, lsl #8
    ae18:	3c17b400 	cfldrscc	mvf11, [r7], {-0}
    ae1c:	05000000 	streq	r0, [r0, #-0]
    ae20:	00f40269 	rscseq	r0, r4, r9, ror #4
    ae24:	17bc0000 	ldrne	r0, [ip, r0]!
    ae28:	0000004b 	andeq	r0, r0, fp, asr #32
    ae2c:	f4026a05 	vst1.8	{d6-d7}, [r2], r5
    ae30:	c4000000 	strgt	r0, [r0], #-0
    ae34:	00037c17 	andeq	r7, r3, r7, lsl ip
    ae38:	026b0500 	rsbeq	r0, fp, #0, 10
    ae3c:	00000025 	andeq	r0, r0, r5, lsr #32
    ae40:	120900cc 	andne	r0, r9, #204	; 0xcc
    ae44:	97000001 	strls	r0, [r0, -r1]
    ae48:	0a000007 	beq	ae6c <__bss_end__+0xd04>
    ae4c:	000000cc 	andeq	r0, r0, ip, asr #1
    ae50:	12090019 	andne	r0, r9, #25
    ae54:	a7000001 	strge	r0, [r0, -r1]
    ae58:	0a000007 	beq	ae7c <__bss_end__+0xd14>
    ae5c:	000000cc 	andeq	r0, r0, ip, asr #1
    ae60:	12090007 	andne	r0, r9, #7
    ae64:	b7000001 	strlt	r0, [r0, -r1]
    ae68:	0a000007 	beq	ae8c <__bss_end__+0xd24>
    ae6c:	000000cc 	andeq	r0, r0, ip, asr #1
    ae70:	f01a0017 			; <UNDEFINED> instruction: 0xf01a0017
    ae74:	db027005 	blle	a6e90 <__bss_end__+0x9cd28>
    ae78:	17000007 	strne	r0, [r0, -r7]
    ae7c:	000002a8 	andeq	r0, r0, r8, lsr #5
    ae80:	db027305 	blle	a7a9c <__bss_end__+0x9d934>
    ae84:	00000007 	andeq	r0, r0, r7
    ae88:	0004c717 	andeq	ip, r4, r7, lsl r7
    ae8c:	02740500 	rsbseq	r0, r4, #0, 10
    ae90:	000007eb 	andeq	r0, r0, fp, ror #15
    ae94:	db090078 	blle	24b07c <__bss_end__+0x240f14>
    ae98:	eb000002 	bl	aea8 <__bss_end__+0xd40>
    ae9c:	0a000007 	beq	aec0 <__bss_end__+0xd58>
    aea0:	000000cc 	andeq	r0, r0, ip, asr #1
    aea4:	2c09001d 	stccs	0, cr0, [r9], {29}
    aea8:	fb000000 	blx	aeb2 <__bss_end__+0xd4a>
    aeac:	0a000007 	beq	aed0 <__bss_end__+0xd68>
    aeb0:	000000cc 	andeq	r0, r0, ip, asr #1
    aeb4:	f01b001d 			; <UNDEFINED> instruction: 0xf01b001d
    aeb8:	1d025505 	cfstr32ne	mvfx5, [r2, #-20]	; 0xffffffec
    aebc:	1c000008 	stcne	0, cr0, [r0], {8}
    aec0:	00000416 	andeq	r0, r0, r6, lsl r4
    aec4:	86026c05 	strhi	r6, [r2], -r5, lsl #24
    aec8:	1c000006 	stcne	0, cr0, [r0], {6}
    aecc:	000004f2 	strdeq	r0, [r0], -r2
    aed0:	b7027505 	strlt	r7, [r2, -r5, lsl #10]
    aed4:	00000007 	andeq	r0, r0, r7
    aed8:	00011209 	andeq	r1, r1, r9, lsl #4
    aedc:	00082d00 	andeq	r2, r8, r0, lsl #26
    aee0:	00cc0a00 	sbceq	r0, ip, r0, lsl #20
    aee4:	00180000 	andseq	r0, r8, r0
    aee8:	0008381d 	andeq	r3, r8, sp, lsl r8
    aeec:	04291500 	strteq	r1, [r9], #-1280	; 0xfffffb00
    aef0:	0e000000 	cdpeq	0, 0, cr0, cr0, cr0, {0}
    aef4:	00082d04 	andeq	r2, r8, r4, lsl #26
    aef8:	7c040e00 	stcvc	14, cr0, [r4], {-0}
    aefc:	1d000001 	stcne	0, cr0, [r0, #-4]
    af00:	0000084f 	andeq	r0, r0, pc, asr #16
    af04:	00002515 	andeq	r2, r0, r5, lsl r5
    af08:	040e0000 	streq	r0, [lr], #-0
    af0c:	00000855 	andeq	r0, r0, r5, asr r8
    af10:	0844040e 	stmdaeq	r4, {r1, r2, r3, sl}^
    af14:	f4090000 	vst4.8	{d0-d3}, [r9], r0
    af18:	6b000005 	blvs	af34 <__bss_end__+0xdcc>
    af1c:	0a000008 	beq	af44 <__bss_end__+0xddc>
    af20:	000000cc 	andeq	r0, r0, ip, asr #1
    af24:	8e1e0002 	cdphi	0, 1, cr0, cr14, cr2, {0}
    af28:	05000004 	streq	r0, [r0, #-4]
    af2c:	042902fd 	strteq	r0, [r9], #-765	; 0xfffffd03
    af30:	871e0000 	ldrhi	r0, [lr, -r0]
    af34:	05000004 	streq	r0, [r0, #-4]
    af38:	042f02fe 	strteq	r0, [pc], #-766	; af40 <__bss_end__+0xdd8>
    af3c:	25140000 	ldrcs	r0, [r4, #-0]
    af40:	92000000 	andls	r0, r0, #0
    af44:	15000008 	strne	r0, [r0, #-8]
    af48:	00000025 	andeq	r0, r0, r5, lsr #32
    af4c:	01d11f00 	bicseq	r1, r1, r0, lsl #30
    af50:	1d060000 	stcne	0, cr0, [r6, #-0]
    af54:	0000089d 	muleq	r0, sp, r8
    af58:	0883040e 	stmeq	r3, {r1, r2, r3, sl}
    af5c:	25140000 	ldrcs	r0, [r4, #-0]
    af60:	b2000000 	andlt	r0, r0, #0
    af64:	15000008 	strne	r0, [r0, #-8]
    af68:	0000058a 	andeq	r0, r0, sl, lsl #11
    af6c:	07731f00 	ldrbeq	r1, [r3, -r0, lsl #30]!
    af70:	22060000 	andcs	r0, r6, #0
    af74:	000008bd 			; <UNDEFINED> instruction: 0x000008bd
    af78:	08a3040e 	stmiaeq	r3!, {r1, r2, r3, sl}
    af7c:	01200000 			; <UNDEFINED> instruction: 0x01200000
    af80:	00000054 	andeq	r0, r0, r4, asr r0
    af84:	09000c07 	stmdbeq	r0, {r0, r1, r2, sl, fp}
    af88:	4c210000 	stcmi	0, cr0, [r1], #-0
    af8c:	00000009 	andeq	r0, r0, r9
    af90:	000ac521 	andeq	ip, sl, r1, lsr #10
    af94:	00210100 	eoreq	r0, r1, r0, lsl #2
    af98:	0400000b 	streq	r0, [r0], #-11
    af9c:	00096121 	andeq	r6, r9, r1, lsr #2
    afa0:	ed210500 	cfstr32	mvfx0, [r1, #-0]
    afa4:	06000009 	streq	r0, [r0], -r9
    afa8:	000b0f21 	andeq	r0, fp, r1, lsr #30
    afac:	1e210700 	cdpne	7, 2, cr0, cr1, cr0, {0}
    afb0:	0300000b 	movweq	r0, #11
    afb4:	000b2d21 	andeq	r2, fp, r1, lsr #26
    afb8:	05000200 	streq	r0, [r0, #-512]	; 0xfffffe00
    afbc:	00000ba9 	andeq	r0, r0, r9, lsr #23
    afc0:	08c31507 	stmiaeq	r3, {r0, r1, r2, r8, sl, ip}^
    afc4:	7a220000 	bvc	88afcc <__bss_end__+0x880e64>
    afc8:	0100000b 	tsteq	r0, fp
    afcc:	0000331d 	andeq	r3, r0, sp, lsl r3
    afd0:	20001c00 	andcs	r1, r0, r0, lsl #24
    afd4:	0bb52220 	bleq	fed5385c <__bss_end__+0xfed496f4>
    afd8:	1e010000 	cdpne	0, 0, cr0, cr1, cr0, {0}
    afdc:	00000033 	andeq	r0, r0, r3, lsr r0
    afe0:	20200028 	eorcs	r0, r0, r8, lsr #32
    afe4:	000b8422 	andeq	r8, fp, r2, lsr #8
    afe8:	331f0100 	tstcc	pc, #0, 2
    afec:	34000000 	strcc	r0, [r0], #-0
    aff0:	23202000 	nopcs	{0}	; <UNPREDICTABLE>
    aff4:	00000b55 	andeq	r0, r0, r5, asr fp
    aff8:	00255601 	eoreq	r5, r5, r1, lsl #12
    affc:	95600000 	strbls	r0, [r0, #-0]!
    b000:	00340000 	eorseq	r0, r4, r0
    b004:	9c010000 	stcls	0, cr0, [r1], {-0}
    b008:	00000998 	muleq	r0, r8, r9
    b00c:	6e697024 	cdpvs	0, 6, cr7, cr9, cr4, {1}
    b010:	2c560100 	ldfcse	f0, [r6], {-0}
    b014:	3e000000 	cdpcc	0, 0, cr0, cr0, cr0, {0}
    b018:	25000014 	strcs	r0, [r0, #-20]	; 0xffffffec
    b01c:	00000b49 	andeq	r0, r0, r9, asr #22
    b020:	002c5901 	eoreq	r5, ip, r1, lsl #18
    b024:	14780000 	ldrbtne	r0, [r8], #-0
    b028:	6f260000 	svcvs	0x00260000
    b02c:	01006666 	tsteq	r0, r6, ror #12
    b030:	00002c5a 	andeq	r2, r0, sl, asr ip
    b034:	0014b600 	andseq	fp, r4, r0, lsl #12
    b038:	957c2700 	ldrbls	r2, [ip, #-1792]!	; 0xfffff900
    b03c:	0b5d0000 	bleq	174b044 <__bss_end__+0x1740edc>
    b040:	01280000 			; <UNDEFINED> instruction: 0x01280000
    b044:	01f30b50 	mvnseq	r0, r0, asr fp
    b048:	23253550 			; <UNDEFINED> instruction: 0x23253550
    b04c:	818080b4 	strhhi	r8, [r0, r4]
    b050:	29000002 	stmdbcs	r0, {r1}
    b054:	00000b6f 	andeq	r0, r0, pc, ror #22
    b058:	95444f01 	strbls	r4, [r4, #-3841]	; 0xfffff0ff
    b05c:	001c0000 	andseq	r0, ip, r0
    b060:	9c010000 	stcls	0, cr0, [r1], {-0}
    b064:	000009e8 	andeq	r0, r0, r8, ror #19
    b068:	6e697024 	cdpvs	0, 6, cr7, cr9, cr4, {1}
    b06c:	2c4f0100 	stfcse	f0, [pc], {-0}
    b070:	c9000000 	stmdbgt	r0, {}	; <UNPREDICTABLE>
    b074:	24000014 	strcs	r0, [r0], #-20	; 0xffffffec
    b078:	4f010076 	svcmi	0x00010076
    b07c:	0000002c 	andeq	r0, r0, ip, lsr #32
    b080:	00001503 	andeq	r1, r0, r3, lsl #10
    b084:	0095542a 	addseq	r5, r5, sl, lsr #8
    b088:	000a2300 	andeq	r2, sl, r0, lsl #6
    b08c:	0009de00 	andeq	sp, r9, r0, lsl #28
    b090:	50012800 	andpl	r2, r1, r0, lsl #16
    b094:	5001f303 	andpl	pc, r1, r3, lsl #6
    b098:	955c2b00 	ldrbls	r2, [ip, #-2816]	; 0xfffff500
    b09c:	0a640000 	beq	190b0a4 <__bss_end__+0x1900f3c>
    b0a0:	29000000 	stmdbcs	r0, {}	; <UNPREDICTABLE>
    b0a4:	00000b8e 	andeq	r0, r0, lr, lsl #23
    b0a8:	95344a01 	ldrls	r4, [r4, #-2561]!	; 0xfffff5ff
    b0ac:	00100000 	andseq	r0, r0, r0
    b0b0:	9c010000 	stcls	0, cr0, [r1], {-0}
    b0b4:	00000a23 	andeq	r0, r0, r3, lsr #20
    b0b8:	6e697024 	cdpvs	0, 6, cr7, cr9, cr4, {1}
    b0bc:	2c4a0100 	stfcse	f0, [sl], {-0}
    b0c0:	3d000000 	stccc	0, cr0, [r0, #-0]
    b0c4:	27000015 	smladcs	r0, r5, r0, r0
    b0c8:	00009540 	andeq	r9, r0, r0, asr #10
    b0cc:	00000ae0 	andeq	r0, r0, r0, ror #21
    b0d0:	03500128 	cmpeq	r0, #40, 2
    b0d4:	285001f3 	ldmdacs	r0, {r0, r1, r4, r5, r6, r7, r8}^
    b0d8:	30015101 	andcc	r5, r1, r1, lsl #2
    b0dc:	3c290000 	stccc	0, cr0, [r9], #-0
    b0e0:	0100000b 	tsteq	r0, fp
    b0e4:	00951043 	addseq	r1, r5, r3, asr #32
    b0e8:	00002400 	andeq	r2, r0, r0, lsl #8
    b0ec:	649c0100 	ldrvs	r0, [ip], #256	; 0x100
    b0f0:	2400000a 	strcs	r0, [r0], #-10
    b0f4:	006e6970 	rsbeq	r6, lr, r0, ror r9
    b0f8:	002c4301 	eoreq	r4, ip, r1, lsl #6
    b0fc:	155e0000 	ldrbne	r0, [lr, #-0]
    b100:	2c270000 	stccs	0, cr0, [r7], #-0
    b104:	68000095 	stmdavs	r0, {r0, r2, r4, r7}
    b108:	2800000b 	stmdacs	r0, {r0, r1, r3}
    b10c:	0c055001 	stceq	0, cr5, [r5], {1}
    b110:	20200028 	eorcs	r0, r0, r8, lsr #32
    b114:	05510128 	ldrbeq	r0, [r1, #-296]	; 0xfffffed8
    b118:	5001f331 	andpl	pc, r1, r1, lsr r3	; <UNPREDICTABLE>
    b11c:	29000024 	stmdbcs	r0, {r2, r5}
    b120:	00000b9d 	muleq	r0, sp, fp
    b124:	94ec3c01 	strbtls	r3, [ip], #3073	; 0xc01
    b128:	00240000 	eoreq	r0, r4, r0
    b12c:	9c010000 	stcls	0, cr0, [r1], {-0}
    b130:	00000aa5 	andeq	r0, r0, r5, lsr #21
    b134:	6e697024 	cdpvs	0, 6, cr7, cr9, cr4, {1}
    b138:	2c3c0100 	ldfcss	f0, [ip], #-0
    b13c:	7f000000 	svcvc	0x00000000
    b140:	27000015 	smladcs	r0, r5, r0, r0
    b144:	00009508 	andeq	r9, r0, r8, lsl #10
    b148:	00000b68 	andeq	r0, r0, r8, ror #22
    b14c:	05500128 	ldrbeq	r0, [r0, #-296]	; 0xfffffed8
    b150:	20001c0c 	andcs	r1, r0, ip, lsl #24
    b154:	51012820 	tstpl	r1, r0, lsr #16
    b158:	01f33105 	mvnseq	r3, r5, lsl #2
    b15c:	00002450 	andeq	r2, r0, r0, asr r4
    b160:	000b5f29 	andeq	r5, fp, r9, lsr #30
    b164:	dc370100 	ldfles	f0, [r7], #-0
    b168:	10000094 	mulne	r0, r4, r0
    b16c:	01000000 	mrseq	r0, (UNDEF: 0)
    b170:	000ae09c 	muleq	sl, ip, r0
    b174:	69702400 	ldmdbvs	r0!, {sl, sp}^
    b178:	3701006e 	strcc	r0, [r1, -lr, rrx]
    b17c:	0000002c 	andeq	r0, r0, ip, lsr #32
    b180:	000015a0 	andeq	r1, r0, r0, lsr #11
    b184:	0094e827 	addseq	lr, r4, r7, lsr #16
    b188:	000ae000 	andeq	lr, sl, r0
    b18c:	50012800 	andpl	r2, r1, r0, lsl #16
    b190:	5001f303 	andpl	pc, r1, r3, lsl #6
    b194:	01510128 	cmpeq	r1, r8, lsr #2
    b198:	29000031 	stmdbcs	r0, {r0, r4, r5}
    b19c:	00000a05 	andeq	r0, r0, r5, lsl #20
    b1a0:	94742801 	ldrbtls	r2, [r4], #-2049	; 0xfffff7ff
    b1a4:	00680000 	rsbeq	r0, r8, r0
    b1a8:	9c010000 	stcls	0, cr0, [r1], {-0}
    b1ac:	00000b5d 	andeq	r0, r0, sp, asr fp
    b1b0:	6e697024 	cdpvs	0, 6, cr7, cr9, cr4, {1}
    b1b4:	2c280100 	stfcss	f0, [r8], #-0
    b1b8:	c1000000 	mrsgt	r0, (UNDEF: 0)
    b1bc:	2c000015 	stccs	0, cr0, [r0], {21}
    b1c0:	000004df 	ldrdeq	r0, [r0], -pc	; <UNPREDICTABLE>
    b1c4:	09002801 	stmdbeq	r0, {r0, fp, sp}
    b1c8:	15e20000 	strbne	r0, [r2, #0]!
    b1cc:	6f2d0000 	svcvs	0x002d0000
    b1d0:	01006666 	tsteq	r0, r6, ror #12
    b1d4:	00002c2d 	andeq	r2, r0, sp, lsr #24
    b1d8:	2d540100 	ldfcse	f0, [r4, #-0]
    b1dc:	2f010067 	svccs	0x00010067
    b1e0:	0000002c 	andeq	r0, r0, ip, lsr #32
    b1e4:	76265601 	strtvc	r5, [r6], -r1, lsl #12
    b1e8:	2c310100 	ldfcss	f0, [r1], #-0
    b1ec:	03000000 	movweq	r0, #0
    b1f0:	2a000016 	bcs	b250 <__bss_end__+0x10e8>
    b1f4:	000094c0 	andeq	r9, r0, r0, asr #9
    b1f8:	00000b5d 	andeq	r0, r0, sp, asr fp
    b1fc:	00000b4c 	andeq	r0, r0, ip, asr #22
    b200:	02500128 	subseq	r0, r0, #40, 2
    b204:	27000076 	smlsdxcs	r0, r6, r0, r0
    b208:	000094d4 	ldrdeq	r9, [r0], -r4
    b20c:	00000b68 	andeq	r0, r0, r8, ror #22
    b210:	02500128 	subseq	r0, r0, #40, 2
    b214:	00000076 	andeq	r0, r0, r6, ror r0
    b218:	0009202e 	andeq	r2, r9, lr, lsr #32
    b21c:	00092000 	andeq	r2, r9, r0
    b220:	2ea70600 	cdpcs	6, 10, cr0, cr7, cr0, {0}
    b224:	0000087a 	andeq	r0, r0, sl, ror r8
    b228:	0000087a 	andeq	r0, r0, sl, ror r8
    b22c:	24009b06 	strcs	r9, [r0], #-2822	; 0xfffff4fa
    b230:	0400000c 	streq	r0, [r0], #-12
    b234:	00242200 	eoreq	r2, r4, r0, lsl #4
    b238:	51010400 	tstpl	r1, r0, lsl #8
    b23c:	0c00000a 	stceq	0, cr0, [r0], {10}
    b240:	00000bbf 			; <UNDEFINED> instruction: 0x00000bbf
    b244:	00000988 	andeq	r0, r0, r8, lsl #19
    b248:	00009594 	muleq	r0, r4, r5
    b24c:	00000194 	muleq	r0, r4, r1
    b250:	00001cec 	andeq	r1, r0, ip, ror #25
    b254:	69050402 	stmdbvs	r5, {r1, sl}
    b258:	0300746e 	movweq	r7, #1134	; 0x46e
    b25c:	00660704 	rsbeq	r0, r6, r4, lsl #14
    b260:	01030000 	mrseq	r0, (UNDEF: 3)
    b264:	0002ec06 	andeq	lr, r2, r6, lsl #24
    b268:	05020300 	streq	r0, [r2, #-768]	; 0xfffffd00
    b26c:	00000385 	andeq	r0, r0, r5, lsl #7
    b270:	ac050403 	cfstrsge	mvf0, [r5], {3}
    b274:	03000000 	movweq	r0, #0
    b278:	00a70508 	adceq	r0, r7, r8, lsl #10
    b27c:	01030000 	mrseq	r0, (UNDEF: 3)
    b280:	0002ea08 	andeq	lr, r2, r8, lsl #20
    b284:	07020300 	streq	r0, [r2, -r0, lsl #6]
    b288:	00000222 	andeq	r0, r0, r2, lsr #4
    b28c:	61070403 	tstvs	r7, r3, lsl #8
    b290:	03000000 	movweq	r0, #0
    b294:	005c0708 	subseq	r0, ip, r8, lsl #14
    b298:	1c040000 	stcne	0, cr0, [r4], {-0}
    b29c:	0200000a 	andeq	r0, r0, #10
    b2a0:	00002507 	andeq	r2, r0, r7, lsl #10
    b2a4:	02cb0400 	sbceq	r0, fp, #0, 8
    b2a8:	2c030000 	stccs	0, cr0, [r3], {-0}
    b2ac:	00000041 	andeq	r0, r0, r1, asr #32
    b2b0:	00044004 	andeq	r4, r4, r4
    b2b4:	41720300 	cmnmi	r2, r0, lsl #6
    b2b8:	05000000 	streq	r0, [r0, #-0]
    b2bc:	0000026d 	andeq	r0, r0, sp, ror #4
    b2c0:	2c016504 	cfstr32cs	mvfx6, [r1], {4}
    b2c4:	06000000 	streq	r0, [r0], -r0
    b2c8:	b7a60304 	strlt	r0, [r6, r4, lsl #6]!
    b2cc:	07000000 	streq	r0, [r0, -r0]
    b2d0:	0000025f 	andeq	r0, r0, pc, asr r2
    b2d4:	008ca803 	addeq	sl, ip, r3, lsl #16
    b2d8:	e2070000 	and	r0, r7, #0
    b2dc:	03000001 	movweq	r0, #1
    b2e0:	0000b7a9 	andeq	fp, r0, r9, lsr #15
    b2e4:	4f080000 	svcmi	0x00080000
    b2e8:	c7000000 	strgt	r0, [r0, -r0]
    b2ec:	09000000 	stmdbeq	r0, {}	; <UNPREDICTABLE>
    b2f0:	000000c7 	andeq	r0, r0, r7, asr #1
    b2f4:	04030003 	streq	r0, [r3], #-3
    b2f8:	0009fc07 	andeq	pc, r9, r7, lsl #24
    b2fc:	03080a00 	movweq	r0, #35328	; 0x8a00
    b300:	0000efa3 	andeq	lr, r0, r3, lsr #31
    b304:	04230b00 	strteq	r0, [r3], #-2816	; 0xfffff500
    b308:	a5030000 	strge	r0, [r3, #-0]
    b30c:	00000025 	andeq	r0, r0, r5, lsr #32
    b310:	04320b00 	ldrteq	r0, [r2], #-2816	; 0xfffff500
    b314:	aa030000 	bge	cb31c <__bss_end__+0xc11b4>
    b318:	00000098 	muleq	r0, r8, r0
    b31c:	ad040004 	stcge	0, cr0, [r4, #-16]
    b320:	03000003 	movweq	r0, #3
    b324:	0000ceab 	andeq	ip, r0, fp, lsr #29
    b328:	019f0400 	orrseq	r0, pc, r0, lsl #8
    b32c:	af030000 	svcge	0x00030000
    b330:	0000006b 	andeq	r0, r0, fp, rrx
    b334:	040d040c 	streq	r0, [sp], #-1036	; 0xfffffbf4
    b338:	0000010d 	andeq	r0, r0, sp, lsl #2
    b33c:	f3080103 	vrhadd.u8	d0, d8, d3
    b340:	0e000002 	cdpeq	0, 0, cr0, cr0, cr2, {0}
    b344:	0000010d 	andeq	r0, r0, sp, lsl #2
    b348:	00047204 	andeq	r7, r4, r4, lsl #4
    b34c:	5d160500 	cfldr32pl	mvfx0, [r6, #-0]
    b350:	0f000000 	svceq	0x00000000
    b354:	000001b0 			; <UNDEFINED> instruction: 0x000001b0
    b358:	772d0518 			; <UNDEFINED> instruction: 0x772d0518
    b35c:	0b000001 	bleq	b368 <__bss_end__+0x1200>
    b360:	000003ce 	andeq	r0, r0, lr, asr #7
    b364:	01772f05 	cmneq	r7, r5, lsl #30
    b368:	10000000 	andne	r0, r0, r0
    b36c:	05006b5f 	streq	r6, [r0, #-2911]	; 0xfffff4a1
    b370:	00002530 	andeq	r2, r0, r0, lsr r5
    b374:	0e0b0400 	cfcpyseq	mvf0, mvf11
    b378:	05000004 	streq	r0, [r0, #-4]
    b37c:	00002530 	andeq	r2, r0, r0, lsr r5
    b380:	990b0800 	stmdbls	fp, {fp}
    b384:	05000001 	streq	r0, [r0, #-1]
    b388:	00002530 	andeq	r2, r0, r0, lsr r5
    b38c:	b20b0c00 	andlt	r0, fp, #0, 24
    b390:	05000004 	streq	r0, [r0, #-4]
    b394:	00002530 	andeq	r2, r0, r0, lsr r5
    b398:	5f101000 	svcpl	0x00101000
    b39c:	31050078 	tstcc	r5, r8, ror r0
    b3a0:	0000017d 	andeq	r0, r0, sp, ror r1
    b3a4:	040d0014 	streq	r0, [sp], #-20	; 0xffffffec
    b3a8:	00000124 	andeq	r0, r0, r4, lsr #2
    b3ac:	00011908 	andeq	r1, r1, r8, lsl #18
    b3b0:	00018d00 	andeq	r8, r1, r0, lsl #26
    b3b4:	00c70900 	sbceq	r0, r7, r0, lsl #18
    b3b8:	00000000 	andeq	r0, r0, r0
    b3bc:	0001dd0f 	andeq	sp, r1, pc, lsl #26
    b3c0:	35052400 	strcc	r2, [r5, #-1024]	; 0xfffffc00
    b3c4:	00000206 	andeq	r0, r0, r6, lsl #4
    b3c8:	00009e0b 	andeq	r9, r0, fp, lsl #28
    b3cc:	25370500 	ldrcs	r0, [r7, #-1280]!	; 0xfffffb00
    b3d0:	00000000 	andeq	r0, r0, r0
    b3d4:	0004480b 	andeq	r4, r4, fp, lsl #16
    b3d8:	25380500 	ldrcs	r0, [r8, #-1280]!	; 0xfffffb00
    b3dc:	04000000 	streq	r0, [r0], #-0
    b3e0:	0000c10b 	andeq	ip, r0, fp, lsl #2
    b3e4:	25390500 	ldrcs	r0, [r9, #-1280]!	; 0xfffffb00
    b3e8:	08000000 	stmdaeq	r0, {}	; <UNPREDICTABLE>
    b3ec:	0005330b 	andeq	r3, r5, fp, lsl #6
    b3f0:	253a0500 	ldrcs	r0, [sl, #-1280]!	; 0xfffffb00
    b3f4:	0c000000 	stceq	0, cr0, [r0], {-0}
    b3f8:	0002af0b 	andeq	sl, r2, fp, lsl #30
    b3fc:	253b0500 	ldrcs	r0, [fp, #-1280]!	; 0xfffffb00
    b400:	10000000 	andne	r0, r0, r0
    b404:	0002830b 	andeq	r8, r2, fp, lsl #6
    b408:	253c0500 	ldrcs	r0, [ip, #-1280]!	; 0xfffffb00
    b40c:	14000000 	strne	r0, [r0], #-0
    b410:	0004b70b 	andeq	fp, r4, fp, lsl #14
    b414:	253d0500 	ldrcs	r0, [sp, #-1280]!	; 0xfffffb00
    b418:	18000000 	stmdane	r0, {}	; <UNPREDICTABLE>
    b41c:	00038f0b 	andeq	r8, r3, fp, lsl #30
    b420:	253e0500 	ldrcs	r0, [lr, #-1280]!	; 0xfffffb00
    b424:	1c000000 	stcne	0, cr0, [r0], {-0}
    b428:	0004fa0b 	andeq	pc, r4, fp, lsl #20
    b42c:	253f0500 	ldrcs	r0, [pc, #-1280]!	; af34 <__bss_end__+0xdcc>
    b430:	20000000 	andcs	r0, r0, r0
    b434:	01011100 	mrseq	r1, (UNDEF: 17)
    b438:	01080000 	mrseq	r0, (UNDEF: 8)
    b43c:	02464805 	subeq	r4, r6, #327680	; 0x50000
    b440:	8c0b0000 	stchi	0, cr0, [fp], {-0}
    b444:	05000001 	streq	r0, [r0, #-1]
    b448:	00024649 	andeq	r4, r2, r9, asr #12
    b44c:	000b0000 	andeq	r0, fp, r0
    b450:	05000000 	streq	r0, [r0, #-0]
    b454:	0002464a 	andeq	r4, r2, sl, asr #12
    b458:	64128000 	ldrvs	r8, [r2], #-0
    b45c:	05000004 	streq	r0, [r0, #-4]
    b460:	0001194c 	andeq	r1, r1, ip, asr #18
    b464:	12010000 	andne	r0, r1, #0
    b468:	00000126 	andeq	r0, r0, r6, lsr #2
    b46c:	01194f05 	tsteq	r9, r5, lsl #30
    b470:	01040000 	mrseq	r0, (UNDEF: 4)
    b474:	01050800 	tsteq	r5, r0, lsl #16
    b478:	02560000 	subseq	r0, r6, #0
    b47c:	c7090000 	strgt	r0, [r9, -r0]
    b480:	1f000000 	svcne	0x00000000
    b484:	02b81100 	adcseq	r1, r8, #0, 2
    b488:	01900000 	orrseq	r0, r0, r0
    b48c:	02945b05 	addseq	r5, r4, #5120	; 0x1400
    b490:	ce0b0000 	cdpgt	0, 0, cr0, cr11, cr0, {0}
    b494:	05000003 	streq	r0, [r0, #-3]
    b498:	0002945c 	andeq	r9, r2, ip, asr r4
    b49c:	e60b0000 	str	r0, [fp], -r0
    b4a0:	05000003 	streq	r0, [r0, #-3]
    b4a4:	0000255d 	andeq	r2, r0, sp, asr r5
    b4a8:	940b0400 	strls	r0, [fp], #-1024	; 0xfffffc00
    b4ac:	05000001 	streq	r0, [r0, #-1]
    b4b0:	00029a5f 	andeq	r9, r2, pc, asr sl
    b4b4:	010b0800 	tsteq	fp, r0, lsl #16
    b4b8:	05000001 	streq	r0, [r0, #-1]
    b4bc:	00020660 	andeq	r0, r2, r0, ror #12
    b4c0:	0d008800 	stceq	8, cr8, [r0, #-0]
    b4c4:	00025604 	andeq	r5, r2, r4, lsl #12
    b4c8:	02aa0800 	adceq	r0, sl, #0, 16
    b4cc:	02aa0000 	adceq	r0, sl, #0
    b4d0:	c7090000 	strgt	r0, [r9, -r0]
    b4d4:	1f000000 	svcne	0x00000000
    b4d8:	b0040d00 	andlt	r0, r4, r0, lsl #26
    b4dc:	13000002 	movwne	r0, #2
    b4e0:	0003990f 	andeq	r9, r3, pc, lsl #18
    b4e4:	73050800 	movwvc	r0, #22528	; 0x5800
    b4e8:	000002d6 	ldrdeq	r0, [r0], -r6
    b4ec:	0000bb0b 	andeq	fp, r0, fp, lsl #22
    b4f0:	d6740500 	ldrbtle	r0, [r4], -r0, lsl #10
    b4f4:	00000002 	andeq	r0, r0, r2
    b4f8:	00001b0b 	andeq	r1, r0, fp, lsl #22
    b4fc:	25750500 	ldrbcs	r0, [r5, #-1280]!	; 0xfffffb00
    b500:	04000000 	streq	r0, [r0], #-0
    b504:	4f040d00 	svcmi	0x00040d00
    b508:	0f000000 	svceq	0x00000000
    b50c:	000003b8 			; <UNDEFINED> instruction: 0x000003b8
    b510:	06b30568 	ldrteq	r0, [r3], r8, ror #10
    b514:	10000004 	andne	r0, r0, r4
    b518:	0500705f 	streq	r7, [r0, #-95]	; 0xffffffa1
    b51c:	0002d6b4 			; <UNDEFINED> instruction: 0x0002d6b4
    b520:	5f100000 	svcpl	0x00100000
    b524:	b5050072 	strlt	r0, [r5, #-114]	; 0xffffff8e
    b528:	00000025 	andeq	r0, r0, r5, lsr #32
    b52c:	775f1004 	ldrbvc	r1, [pc, -r4]
    b530:	25b60500 	ldrcs	r0, [r6, #1280]!	; 0x500
    b534:	08000000 	stmdaeq	r0, {}	; <UNPREDICTABLE>
    b538:	00011f0b 	andeq	r1, r1, fp, lsl #30
    b53c:	3ab70500 	bcc	fedcc944 <__bss_end__+0xfedc27dc>
    b540:	0c000000 	stceq	0, cr0, [r0], {-0}
    b544:	0002080b 	andeq	r0, r2, fp, lsl #16
    b548:	3ab80500 	bcc	fee0c950 <__bss_end__+0xfee027e8>
    b54c:	0e000000 	cdpeq	0, 0, cr0, cr0, cr0, {0}
    b550:	66625f10 	uqadd16vs	r5, r2, r0
    b554:	b1b90500 			; <UNDEFINED> instruction: 0xb1b90500
    b558:	10000002 	andne	r0, r0, r2
    b55c:	00007b0b 	andeq	r7, r0, fp, lsl #22
    b560:	25ba0500 	ldrcs	r0, [sl, #1280]!	; 0x500
    b564:	18000000 	stmdane	r0, {}	; <UNPREDICTABLE>
    b568:	00010f0b 	andeq	r0, r1, fp, lsl #30
    b56c:	05c10500 	strbeq	r0, [r1, #1280]	; 0x500
    b570:	1c000001 	stcne	0, cr0, [r0], {1}
    b574:	000b590b 	andeq	r5, fp, fp, lsl #18
    b578:	61c30500 	bicvs	r0, r3, r0, lsl #10
    b57c:	20000005 	andcs	r0, r0, r5
    b580:	00061d0b 	andeq	r1, r6, fp, lsl #26
    b584:	8bc50500 	blhi	ff14c98c <__bss_end__+0xff142824>
    b588:	24000005 	strcs	r0, [r0], #-5
    b58c:	00043a0b 	andeq	r3, r4, fp, lsl #20
    b590:	afc80500 	svcge	0x00c80500
    b594:	28000005 	stmdacs	r0, {r0, r2}
    b598:	0005140b 	andeq	r1, r5, fp, lsl #8
    b59c:	c9c90500 	stmibgt	r9, {r8, sl}^
    b5a0:	2c000005 	stccs	0, cr0, [r0], {5}
    b5a4:	62755f10 	rsbsvs	r5, r5, #16, 30	; 0x40
    b5a8:	b1cc0500 	biclt	r0, ip, r0, lsl #10
    b5ac:	30000002 	andcc	r0, r0, r2
    b5b0:	70755f10 	rsbsvc	r5, r5, r0, lsl pc
    b5b4:	d6cd0500 	strble	r0, [sp], r0, lsl #10
    b5b8:	38000002 	stmdacc	r0, {r1}
    b5bc:	72755f10 	rsbsvc	r5, r5, #16, 30	; 0x40
    b5c0:	25ce0500 	strbcs	r0, [lr, #1280]	; 0x500
    b5c4:	3c000000 	stccc	0, cr0, [r0], {-0}
    b5c8:	0000b50b 	andeq	fp, r0, fp, lsl #10
    b5cc:	cfd10500 	svcgt	0x00d10500
    b5d0:	40000005 	andmi	r0, r0, r5
    b5d4:	0004ec0b 	andeq	lr, r4, fp, lsl #24
    b5d8:	dfd20500 	svcle	0x00d20500
    b5dc:	43000005 	movwmi	r0, #5
    b5e0:	626c5f10 	rsbvs	r5, ip, #16, 30	; 0x40
    b5e4:	b1d50500 	bicslt	r0, r5, r0, lsl #10
    b5e8:	44000002 	strmi	r0, [r0], #-2
    b5ec:	00013d0b 	andeq	r3, r1, fp, lsl #26
    b5f0:	25d80500 	ldrbcs	r0, [r8, #1280]	; 0x500
    b5f4:	4c000000 	stcmi	0, cr0, [r0], {-0}
    b5f8:	00014e0b 	andeq	r4, r1, fp, lsl #28
    b5fc:	76d90500 	ldrbvc	r0, [r9], r0, lsl #10
    b600:	50000000 	andpl	r0, r0, r0
    b604:	000afa0b 	andeq	pc, sl, fp, lsl #20
    b608:	24dc0500 	ldrbcs	r0, [ip], #1280	; 0x500
    b60c:	54000004 	strpl	r0, [r0], #-4
    b610:	00042c0b 	andeq	r2, r4, fp, lsl #24
    b614:	fae00500 	blx	ff80ca1c <__bss_end__+0xff8028b4>
    b618:	58000000 	stmdapl	r0, {}	; <UNPREDICTABLE>
    b61c:	0003c00b 	andeq	ip, r3, fp
    b620:	efe20500 	svc	0x00e20500
    b624:	5c000000 	stcpl	0, cr0, [r0], {-0}
    b628:	00027b0b 	andeq	r7, r2, fp, lsl #22
    b62c:	25e30500 	strbcs	r0, [r3, #1280]!	; 0x500
    b630:	64000000 	strvs	r0, [r0], #-0
    b634:	00251400 	eoreq	r1, r5, r0, lsl #8
    b638:	04240000 	strteq	r0, [r4], #-0
    b63c:	24150000 	ldrcs	r0, [r5], #-0
    b640:	15000004 	strne	r0, [r0, #-4]
    b644:	00000105 	andeq	r0, r0, r5, lsl #2
    b648:	00010715 	andeq	r0, r1, r5, lsl r7
    b64c:	00251500 	eoreq	r1, r5, r0, lsl #10
    b650:	0d000000 	stceq	0, cr0, [r0, #-0]
    b654:	00042f04 	andeq	r2, r4, r4, lsl #30
    b658:	04240e00 	strteq	r0, [r4], #-3584	; 0xfffff200
    b65c:	16160000 	ldrne	r0, [r6], -r0
    b660:	28000004 	stmdacs	r0, {r2}
    b664:	02380504 	eorseq	r0, r8, #4, 10	; 0x1000000
    b668:	00000561 	andeq	r0, r0, r1, ror #10
    b66c:	00037e17 	andeq	r7, r3, r7, lsl lr
    b670:	023a0500 	eorseq	r0, sl, #0, 10
    b674:	00000025 	andeq	r0, r0, r5, lsr #32
    b678:	012e1700 			; <UNDEFINED> instruction: 0x012e1700
    b67c:	3f050000 	svccc	0x00050000
    b680:	00063602 	andeq	r3, r6, r2, lsl #12
    b684:	f8170400 			; <UNDEFINED> instruction: 0xf8170400
    b688:	05000001 	streq	r0, [r0, #-1]
    b68c:	0636023f 			; <UNDEFINED> instruction: 0x0636023f
    b690:	17080000 	strne	r0, [r8, -r0]
    b694:	000001a8 	andeq	r0, r0, r8, lsr #3
    b698:	36023f05 	strcc	r3, [r2], -r5, lsl #30
    b69c:	0c000006 	stceq	0, cr0, [r0], {6}
    b6a0:	0003e117 	andeq	lr, r3, r7, lsl r1
    b6a4:	02410500 	subeq	r0, r1, #0, 10
    b6a8:	00000025 	andeq	r0, r0, r5, lsr #32
    b6ac:	00291710 	eoreq	r1, r9, r0, lsl r7
    b6b0:	42050000 	andmi	r0, r5, #0
    b6b4:	00081802 	andeq	r1, r8, r2, lsl #16
    b6b8:	b3171400 	tstlt	r7, #0, 8
    b6bc:	0500000a 	streq	r0, [r0, #-10]
    b6c0:	00250244 	eoreq	r0, r5, r4, asr #4
    b6c4:	17300000 	ldrne	r0, [r0, -r0]!
    b6c8:	00000a2e 	andeq	r0, r0, lr, lsr #20
    b6cc:	85024505 	strhi	r4, [r2, #-1285]	; 0xfffffafb
    b6d0:	34000005 	strcc	r0, [r0], #-5
    b6d4:	0002c017 	andeq	ip, r2, r7, lsl r0
    b6d8:	02470500 	subeq	r0, r7, #0, 10
    b6dc:	00000025 	andeq	r0, r0, r5, lsr #32
    b6e0:	03eb1738 	mvneq	r1, #56, 14	; 0xe00000
    b6e4:	49050000 	stmdbmi	r5, {}	; <UNPREDICTABLE>
    b6e8:	00083302 	andeq	r3, r8, r2, lsl #6
    b6ec:	57173c00 	ldrpl	r3, [r7, -r0, lsl #24]
    b6f0:	05000002 	streq	r0, [r0, #-2]
    b6f4:	0177024c 	cmneq	r7, ip, asr #4
    b6f8:	17400000 	strbne	r0, [r0, -r0]
    b6fc:	000001c7 	andeq	r0, r0, r7, asr #3
    b700:	25024d05 	strcs	r4, [r2, #-3333]	; 0xfffff2fb
    b704:	44000000 	strmi	r0, [r0], #-0
    b708:	00052e17 	andeq	r2, r5, r7, lsl lr
    b70c:	024e0500 	subeq	r0, lr, #0, 10
    b710:	00000177 	andeq	r0, r0, r7, ror r1
    b714:	02d21748 	sbcseq	r1, r2, #72, 14	; 0x1200000
    b718:	4f050000 	svcmi	0x00050000
    b71c:	00083902 	andeq	r3, r8, r2, lsl #18
    b720:	00174c00 	andseq	r4, r7, r0, lsl #24
    b724:	05000002 	streq	r0, [r0, #-2]
    b728:	00250252 	eoreq	r0, r5, r2, asr r2
    b72c:	17500000 	ldrbne	r0, [r0, -r0]
    b730:	00000146 	andeq	r0, r0, r6, asr #2
    b734:	07025305 	streq	r5, [r2, -r5, lsl #6]
    b738:	54000001 	strpl	r0, [r0], #-1
    b73c:	0002f817 	andeq	pc, r2, r7, lsl r8	; <UNPREDICTABLE>
    b740:	02760500 	rsbseq	r0, r6, #0, 10
    b744:	000007f6 	strdeq	r0, [r0], -r6
    b748:	02b81858 	adcseq	r1, r8, #88, 16	; 0x580000
    b74c:	7a050000 	bvc	14b754 <__bss_end__+0x1415ec>
    b750:	00029402 	andeq	r9, r2, r2, lsl #8
    b754:	18014800 	stmdane	r1, {fp, lr}
    b758:	00000235 	andeq	r0, r0, r5, lsr r2
    b75c:	56027b05 	strpl	r7, [r2], -r5, lsl #22
    b760:	4c000002 	stcmi	0, cr0, [r0], {2}
    b764:	04da1801 	ldrbeq	r1, [sl], #2049	; 0x801
    b768:	7f050000 	svcvc	0x00050000
    b76c:	00084a02 	andeq	r4, r8, r2, lsl #20
    b770:	1802dc00 	stmdane	r2, {sl, fp, ip, lr, pc}
    b774:	00000117 	andeq	r0, r0, r7, lsl r1
    b778:	fb028405 	blx	ac796 <__bss_end__+0xa262e>
    b77c:	e0000005 	and	r0, r0, r5
    b780:	00fc1802 	rscseq	r1, ip, r2, lsl #16
    b784:	85050000 	strhi	r0, [r5, #-0]
    b788:	00085602 	andeq	r5, r8, r2, lsl #12
    b78c:	0002ec00 	andeq	lr, r2, r0, lsl #24
    b790:	0406040d 	streq	r0, [r6], #-1037	; 0xfffffbf3
    b794:	25140000 	ldrcs	r0, [r4, #-0]
    b798:	85000000 	strhi	r0, [r0, #-0]
    b79c:	15000005 	strne	r0, [r0, #-5]
    b7a0:	00000424 	andeq	r0, r0, r4, lsr #8
    b7a4:	00010515 	andeq	r0, r1, r5, lsl r5
    b7a8:	05851500 	streq	r1, [r5, #1280]	; 0x500
    b7ac:	25150000 	ldrcs	r0, [r5, #-0]
    b7b0:	00000000 	andeq	r0, r0, r0
    b7b4:	0114040d 	tsteq	r4, sp, lsl #8
    b7b8:	040d0000 	streq	r0, [sp], #-0
    b7bc:	00000567 	andeq	r0, r0, r7, ror #10
    b7c0:	00008114 	andeq	r8, r0, r4, lsl r1
    b7c4:	0005af00 	andeq	sl, r5, r0, lsl #30
    b7c8:	04241500 	strteq	r1, [r4], #-1280	; 0xfffffb00
    b7cc:	05150000 	ldreq	r0, [r5, #-0]
    b7d0:	15000001 	strne	r0, [r0, #-1]
    b7d4:	00000081 	andeq	r0, r0, r1, lsl #1
    b7d8:	00002515 	andeq	r2, r0, r5, lsl r5
    b7dc:	040d0000 	streq	r0, [sp], #-0
    b7e0:	00000591 	muleq	r0, r1, r5
    b7e4:	00002514 	andeq	r2, r0, r4, lsl r5
    b7e8:	0005c900 	andeq	ip, r5, r0, lsl #18
    b7ec:	04241500 	strteq	r1, [r4], #-1280	; 0xfffffb00
    b7f0:	05150000 	ldreq	r0, [r5, #-0]
    b7f4:	00000001 	andeq	r0, r0, r1
    b7f8:	05b5040d 	ldreq	r0, [r5, #1037]!	; 0x40d
    b7fc:	4f080000 	svcmi	0x00080000
    b800:	df000000 	svcle	0x00000000
    b804:	09000005 	stmdbeq	r0, {r0, r2}
    b808:	000000c7 	andeq	r0, r0, r7, asr #1
    b80c:	4f080002 	svcmi	0x00080002
    b810:	ef000000 	svc	0x00000000
    b814:	09000005 	stmdbeq	r0, {r0, r2}
    b818:	000000c7 	andeq	r0, r0, r7, asr #1
    b81c:	a6050000 	strge	r0, [r5], -r0
    b820:	05000003 	streq	r0, [r0, #-3]
    b824:	02dc011d 	sbcseq	r0, ip, #1073741831	; 0x40000007
    b828:	c1190000 	tstgt	r9, r0
    b82c:	0c000004 	stceq	0, cr0, [r0], {4}
    b830:	30012105 	andcc	r2, r1, r5, lsl #2
    b834:	17000006 	strne	r0, [r0, -r6]
    b838:	000003ce 	andeq	r0, r0, lr, asr #7
    b83c:	30012305 	andcc	r2, r1, r5, lsl #6
    b840:	00000006 	andeq	r0, r0, r6
    b844:	00021b17 	andeq	r1, r2, r7, lsl fp
    b848:	01240500 			; <UNDEFINED> instruction: 0x01240500
    b84c:	00000025 	andeq	r0, r0, r5, lsr #32
    b850:	03a01704 	moveq	r1, #4, 14	; 0x100000
    b854:	25050000 	strcs	r0, [r5, #-0]
    b858:	00063601 	andeq	r3, r6, r1, lsl #12
    b85c:	0d000800 	stceq	8, cr0, [r0, #-0]
    b860:	0005fb04 	andeq	pc, r5, r4, lsl #22
    b864:	ef040d00 	svc	0x00040d00
    b868:	19000005 	stmdbne	r0, {r0, r2}
    b86c:	00000021 	andeq	r0, r0, r1, lsr #32
    b870:	013d050e 	teqeq	sp, lr, lsl #10
    b874:	00000671 	andeq	r0, r0, r1, ror r6
    b878:	00041d17 	andeq	r1, r4, r7, lsl sp
    b87c:	013e0500 	teqeq	lr, r0, lsl #10
    b880:	00000671 	andeq	r0, r0, r1, ror r6
    b884:	04511700 	ldrbeq	r1, [r1], #-1792	; 0xfffff900
    b888:	3f050000 	svccc	0x00050000
    b88c:	00067101 	andeq	r7, r6, r1, lsl #2
    b890:	6d170600 	ldcvs	6, cr0, [r7, #-0]
    b894:	05000004 	streq	r0, [r0, #-4]
    b898:	00560140 	subseq	r0, r6, r0, asr #2
    b89c:	000c0000 	andeq	r0, ip, r0
    b8a0:	00005608 	andeq	r5, r0, r8, lsl #12
    b8a4:	00068100 	andeq	r8, r6, r0, lsl #2
    b8a8:	00c70900 	sbceq	r0, r7, r0, lsl #18
    b8ac:	00020000 	andeq	r0, r2, r0
    b8b0:	5705d01a 	smladpl	r5, sl, r0, sp
    b8b4:	00078202 	andeq	r8, r7, r2, lsl #4
    b8b8:	04a51700 	strteq	r1, [r5], #1792	; 0x700
    b8bc:	59050000 	stmdbpl	r5, {}	; <UNPREDICTABLE>
    b8c0:	00002c02 	andeq	r2, r0, r2, lsl #24
    b8c4:	57170000 	ldrpl	r0, [r7, -r0]
    b8c8:	05000004 	streq	r0, [r0, #-4]
    b8cc:	0107025a 	tsteq	r7, sl, asr r2
    b8d0:	17040000 	strne	r0, [r4, -r0]
    b8d4:	0000024a 	andeq	r0, r0, sl, asr #4
    b8d8:	82025b05 	andhi	r5, r2, #5120	; 0x1400
    b8dc:	08000007 	stmdaeq	r0, {r0, r1, r2}
    b8e0:	00050517 	andeq	r0, r5, r7, lsl r5
    b8e4:	025c0500 	subseq	r0, ip, #0, 10
    b8e8:	0000018d 	andeq	r0, r0, sp, lsl #3
    b8ec:	01b81724 			; <UNDEFINED> instruction: 0x01b81724
    b8f0:	5d050000 	stcpl	0, cr0, [r5, #-0]
    b8f4:	00002502 	andeq	r2, r0, r2, lsl #10
    b8f8:	c9174800 	ldmdbgt	r7, {fp, lr}
    b8fc:	05000003 	streq	r0, [r0, #-3]
    b900:	0064025e 	rsbeq	r0, r4, lr, asr r2
    b904:	17500000 	ldrbne	r0, [r0, -r0]
    b908:	0000051b 	andeq	r0, r0, fp, lsl r5
    b90c:	3c025f05 	stccc	15, cr5, [r2], {5}
    b910:	58000006 	stmdapl	r0, {r1, r2}
    b914:	0003d417 	andeq	sp, r3, r7, lsl r4
    b918:	02600500 	rsbeq	r0, r0, #0, 10
    b91c:	000000ef 	andeq	r0, r0, pc, ror #1
    b920:	05201768 	streq	r1, [r0, #-1896]!	; 0xfffff898
    b924:	61050000 	mrsvs	r0, (UNDEF: 5)
    b928:	0000ef02 	andeq	lr, r0, r2, lsl #30
    b92c:	dc177000 	ldcle	0, cr7, [r7], {-0}
    b930:	05000002 	streq	r0, [r0, #-2]
    b934:	00ef0262 	rsceq	r0, pc, r2, ror #4
    b938:	17780000 	ldrbne	r0, [r8, -r0]!
    b93c:	000004d0 	ldrdeq	r0, [r0], -r0	; <UNPREDICTABLE>
    b940:	92026305 	andls	r6, r2, #335544320	; 0x14000000
    b944:	80000007 	andhi	r0, r0, r7
    b948:	00023e17 	andeq	r3, r2, r7, lsl lr
    b94c:	02640500 	rsbeq	r0, r4, #0, 10
    b950:	000007a2 	andeq	r0, r0, r2, lsr #15
    b954:	047a1788 	ldrbteq	r1, [sl], #-1928	; 0xfffff878
    b958:	65050000 	strvs	r0, [r5, #-0]
    b95c:	00002502 	andeq	r2, r0, r2, lsl #10
    b960:	7e17a000 	cdpvc	0, 1, cr10, cr7, cr0, {0}
    b964:	05000001 	streq	r0, [r0, #-1]
    b968:	00ef0266 	rsceq	r0, pc, r6, ror #4
    b96c:	17a40000 	strne	r0, [r4, r0]!
    b970:	0000008f 	andeq	r0, r0, pc, lsl #1
    b974:	ef026705 	svc	0x00026705
    b978:	ac000000 	stcge	0, cr0, [r0], {-0}
    b97c:	00016d17 	andeq	r6, r1, r7, lsl sp
    b980:	02680500 	rsbeq	r0, r8, #0, 10
    b984:	000000ef 	andeq	r0, r0, pc, ror #1
    b988:	003c17b4 	ldrhteq	r1, [ip], -r4
    b98c:	69050000 	stmdbvs	r5, {}	; <UNPREDICTABLE>
    b990:	0000ef02 	andeq	lr, r0, r2, lsl #30
    b994:	4b17bc00 	blmi	5fa99c <__bss_end__+0x5f0834>
    b998:	05000000 	streq	r0, [r0, #-0]
    b99c:	00ef026a 	rsceq	r0, pc, sl, ror #4
    b9a0:	17c40000 	strbne	r0, [r4, r0]
    b9a4:	0000037c 	andeq	r0, r0, ip, ror r3
    b9a8:	25026b05 	strcs	r6, [r2, #-2821]	; 0xfffff4fb
    b9ac:	cc000000 	stcgt	0, cr0, [r0], {-0}
    b9b0:	010d0800 	tsteq	sp, r0, lsl #16
    b9b4:	07920000 	ldreq	r0, [r2, r0]
    b9b8:	c7090000 	strgt	r0, [r9, -r0]
    b9bc:	19000000 	stmdbne	r0, {}	; <UNPREDICTABLE>
    b9c0:	010d0800 	tsteq	sp, r0, lsl #16
    b9c4:	07a20000 	streq	r0, [r2, r0]!
    b9c8:	c7090000 	strgt	r0, [r9, -r0]
    b9cc:	07000000 	streq	r0, [r0, -r0]
    b9d0:	010d0800 	tsteq	sp, r0, lsl #16
    b9d4:	07b20000 	ldreq	r0, [r2, r0]!
    b9d8:	c7090000 	strgt	r0, [r9, -r0]
    b9dc:	17000000 	strne	r0, [r0, -r0]
    b9e0:	05f01a00 	ldrbeq	r1, [r0, #2560]!	; 0xa00
    b9e4:	07d60270 			; <UNDEFINED> instruction: 0x07d60270
    b9e8:	a8170000 	ldmdage	r7, {}	; <UNPREDICTABLE>
    b9ec:	05000002 	streq	r0, [r0, #-2]
    b9f0:	07d60273 			; <UNDEFINED> instruction: 0x07d60273
    b9f4:	17000000 	strne	r0, [r0, -r0]
    b9f8:	000004c7 	andeq	r0, r0, r7, asr #9
    b9fc:	e6027405 	str	r7, [r2], -r5, lsl #8
    ba00:	78000007 	stmdavc	r0, {r0, r1, r2}
    ba04:	02d60800 	sbcseq	r0, r6, #0, 16
    ba08:	07e60000 	strbeq	r0, [r6, r0]!
    ba0c:	c7090000 	strgt	r0, [r9, -r0]
    ba10:	1d000000 	stcne	0, cr0, [r0, #-0]
    ba14:	002c0800 	eoreq	r0, ip, r0, lsl #16
    ba18:	07f60000 	ldrbeq	r0, [r6, r0]!
    ba1c:	c7090000 	strgt	r0, [r9, -r0]
    ba20:	1d000000 	stcne	0, cr0, [r0, #-0]
    ba24:	05f01b00 	ldrbeq	r1, [r0, #2816]!	; 0xb00
    ba28:	08180255 	ldmdaeq	r8, {r0, r2, r4, r6, r9}
    ba2c:	161c0000 	ldrne	r0, [ip], -r0
    ba30:	05000004 	streq	r0, [r0, #-4]
    ba34:	0681026c 	streq	r0, [r1], ip, ror #4
    ba38:	f21c0000 	vhadd.s16	d0, d12, d0
    ba3c:	05000004 	streq	r0, [r0, #-4]
    ba40:	07b20275 			; <UNDEFINED> instruction: 0x07b20275
    ba44:	08000000 	stmdaeq	r0, {}	; <UNPREDICTABLE>
    ba48:	0000010d 	andeq	r0, r0, sp, lsl #2
    ba4c:	00000828 	andeq	r0, r0, r8, lsr #16
    ba50:	0000c709 	andeq	ip, r0, r9, lsl #14
    ba54:	1d001800 	stcne	8, cr1, [r0, #-0]
    ba58:	00000833 	andeq	r0, r0, r3, lsr r8
    ba5c:	00042415 	andeq	r2, r4, r5, lsl r4
    ba60:	040d0000 	streq	r0, [sp], #-0
    ba64:	00000828 	andeq	r0, r0, r8, lsr #16
    ba68:	0177040d 	cmneq	r7, sp, lsl #8
    ba6c:	4a1d0000 	bmi	74ba74 <__bss_end__+0x74190c>
    ba70:	15000008 	strne	r0, [r0, #-8]
    ba74:	00000025 	andeq	r0, r0, r5, lsr #32
    ba78:	50040d00 	andpl	r0, r4, r0, lsl #26
    ba7c:	0d000008 	stceq	0, cr0, [r0, #-32]	; 0xffffffe0
    ba80:	00083f04 	andeq	r3, r8, r4, lsl #30
    ba84:	05ef0800 	strbeq	r0, [pc, #2048]!	; c28c <__bss_end__+0x2124>
    ba88:	08660000 	stmdaeq	r6!, {}^	; <UNPREDICTABLE>
    ba8c:	c7090000 	strgt	r0, [r9, -r0]
    ba90:	02000000 	andeq	r0, r0, #0
    ba94:	048e1e00 	streq	r1, [lr], #3584	; 0xe00
    ba98:	fd050000 	stc2	0, cr0, [r5, #-0]
    ba9c:	00042402 	andeq	r2, r4, r2, lsl #8
    baa0:	04871e00 	streq	r1, [r7], #3584	; 0xe00
    baa4:	fe050000 	cdp2	0, 0, cr0, cr5, cr0, {0}
    baa8:	00042a02 	andeq	r2, r4, r2, lsl #20
    baac:	00251400 	eoreq	r1, r5, r0, lsl #8
    bab0:	088d0000 	stmeq	sp, {}	; <UNPREDICTABLE>
    bab4:	25150000 	ldrcs	r0, [r5, #-0]
    bab8:	00000000 	andeq	r0, r0, r0
    babc:	0001d11f 	andeq	sp, r1, pc, lsl r1
    bac0:	981d0600 	ldmdals	sp, {r9, sl}
    bac4:	0d000008 	stceq	0, cr0, [r0, #-32]	; 0xffffffe0
    bac8:	00087e04 	andeq	r7, r8, r4, lsl #28
    bacc:	00251400 	eoreq	r1, r5, r0, lsl #8
    bad0:	08ad0000 	stmiaeq	sp!, {}	; <UNPREDICTABLE>
    bad4:	85150000 	ldrhi	r0, [r5, #-0]
    bad8:	00000005 	andeq	r0, r0, r5
    badc:	0007731f 	andeq	r7, r7, pc, lsl r3
    bae0:	b8220600 	stmdalt	r2!, {r9, sl}
    bae4:	0d000008 	stceq	0, cr0, [r0, #-32]	; 0xffffffe0
    bae8:	00089e04 	andeq	r9, r8, r4, lsl #28
    baec:	04080300 	streq	r0, [r8], #-768	; 0xfffffd00
    baf0:	00000be6 	andeq	r0, r0, r6, ror #23
    baf4:	000c1e1f 	andeq	r1, ip, pc, lsl lr
    baf8:	0d0d0100 	stfeqs	f0, [sp, #-0]
    bafc:	20000001 	andcs	r0, r0, r1
    bb00:	00000663 	andeq	r0, r0, r3, ror #12
    bb04:	01070e01 	tsteq	r7, r1, lsl #28
    bb08:	03050000 	movweq	r0, #20480	; 0x5000
    bb0c:	0000974c 	andeq	r9, r0, ip, asr #14
    bb10:	000c3520 	andeq	r3, ip, r0, lsr #10
    bb14:	070f0100 	streq	r0, [pc, -r0, lsl #2]
    bb18:	05000001 	streq	r0, [r0, #-1]
    bb1c:	00975003 	addseq	r5, r7, r3
    bb20:	0bf72100 	bleq	ffdd3f28 <__bss_end__+0xffdc9dc0>
    bb24:	38010000 	stmdacc	r1, {}	; <UNPREDICTABLE>
    bb28:	00009718 	andeq	r9, r0, r8, lsl r7
    bb2c:	00000010 	andeq	r0, r0, r0, lsl r0
    bb30:	09139c01 	ldmdbeq	r3, {r0, sl, fp, ip, pc}
    bb34:	70220000 	eorvc	r0, r2, r0
    bb38:	05380100 	ldreq	r0, [r8, #-256]!	; 0xffffff00
    bb3c:	01000001 	tsteq	r0, r1
    bb40:	ed230050 	stc	0, cr0, [r3, #-320]!	; 0xfffffec0
    bb44:	0100000b 	tsteq	r0, fp
    bb48:	00970437 	addseq	r0, r7, r7, lsr r4
    bb4c:	00001400 	andeq	r1, r0, r0, lsl #8
    bb50:	219c0100 	orrscs	r0, ip, r0, lsl #2
    bb54:	00000275 	andeq	r0, r0, r5, ror r2
    bb58:	97003601 	strls	r3, [r0, -r1, lsl #12]
    bb5c:	00040000 	andeq	r0, r4, r0
    bb60:	9c010000 	stcls	0, cr0, [r1], {-0}
    bb64:	00000945 	andeq	r0, r0, r5, asr #18
    bb68:	01007022 	tsteq	r0, r2, lsr #32
    bb6c:	00010536 	andeq	r0, r1, r6, lsr r5
    bb70:	00500100 	subseq	r0, r0, r0, lsl #2
    bb74:	000bd624 	andeq	sp, fp, r4, lsr #12
    bb78:	05290100 	streq	r0, [r9, #-256]!	; 0xffffff00
    bb7c:	74000001 	strvc	r0, [r0], #-1
    bb80:	8c000096 	stchi	0, cr0, [r0], {150}	; 0x96
    bb84:	01000000 	mrseq	r0, (UNDEF: 0)
    bb88:	000a309c 	muleq	sl, ip, r0
    bb8c:	068a2500 	streq	r2, [sl], r0, lsl #10
    bb90:	29010000 	stmdbcs	r1, {}	; <UNPREDICTABLE>
    bb94:	0000002c 	andeq	r0, r0, ip, lsr #32
    bb98:	00001634 	andeq	r1, r0, r4, lsr r6
    bb9c:	000c1425 	andeq	r1, ip, r5, lsr #8
    bba0:	2c290100 	stfcss	f0, [r9], #-0
    bba4:	87000000 	strhi	r0, [r0, -r0]
    bba8:	26000016 			; <UNDEFINED> instruction: 0x26000016
    bbac:	0000020e 	andeq	r0, r0, lr, lsl #4
    bbb0:	00000a40 	andeq	r0, r0, r0, asr #20
    bbb4:	9c5c0305 	mrrcls	3, 0, r0, ip, cr5
    bbb8:	68270000 	stmdavs	r7!, {}	; <UNPREDICTABLE>
    bbbc:	2c2e0100 	stfcss	f0, [lr], #-0
    bbc0:	ce000000 	cdpgt	0, 0, cr0, cr0, cr0, {0}
    bbc4:	28000016 	stmdacs	r0, {r1, r2, r4}
    bbc8:	000096b0 			; <UNDEFINED> instruction: 0x000096b0
    bbcc:	00000a79 	andeq	r0, r0, r9, ror sl
    bbd0:	000009ad 	andeq	r0, r0, sp, lsr #19
    bbd4:	03500129 	cmpeq	r0, #1073741834	; 0x4000000a
    bbd8:	005001f3 	ldrsheq	r0, [r0], #-19	; 0xffffffed
    bbdc:	0096b82a 	addseq	fp, r6, sl, lsr #16
    bbe0:	000bfb00 	andeq	pc, fp, r0, lsl #22
    bbe4:	96cc2800 	strbls	r2, [ip], r0, lsl #16
    bbe8:	0c060000 	stceq	0, cr0, [r6], {-0}
    bbec:	09e50000 	stmibeq	r5!, {}^	; <UNPREDICTABLE>
    bbf0:	01290000 			; <UNDEFINED> instruction: 0x01290000
    bbf4:	a8030550 	stmdage	r3, {r4, r6, r8, sl}
    bbf8:	2900009c 	stmdbcs	r0, {r2, r3, r4, r7}
    bbfc:	03055101 	movweq	r5, #20737	; 0x5101
    bc00:	00009c6c 	andeq	r9, r0, ip, ror #24
    bc04:	05520129 	ldrbeq	r0, [r2, #-297]	; 0xfffffed7
    bc08:	009c5c03 	addseq	r5, ip, r3, lsl #24
    bc0c:	53012900 	movwpl	r2, #6400	; 0x1900
    bc10:	002a0802 	eoreq	r0, sl, r2, lsl #16
    bc14:	0096d02a 	addseq	sp, r6, sl, lsr #32
    bc18:	000c1100 	andeq	r1, ip, r0, lsl #2
    bc1c:	96d42a00 	ldrbls	r2, [r4], r0, lsl #20
    bc20:	0bfb0000 	bleq	ffecbc28 <__bss_end__+0xffec1ac0>
    bc24:	e8280000 	stmda	r8!, {}	; <UNPREDICTABLE>
    bc28:	06000096 			; <UNDEFINED> instruction: 0x06000096
    bc2c:	2600000c 	strcs	r0, [r0], -ip
    bc30:	2900000a 	stmdbcs	r0, {r1, r3}
    bc34:	03055001 	movweq	r5, #20481	; 0x5001
    bc38:	00009d08 	andeq	r9, r0, r8, lsl #26
    bc3c:	05510129 	ldrbeq	r0, [r1, #-297]	; 0xfffffed7
    bc40:	009c6c03 	addseq	r6, ip, r3, lsl #24
    bc44:	52012900 	andpl	r2, r1, #0, 18
    bc48:	9c5c0305 	mrrcls	3, 0, r0, ip, cr5
    bc4c:	01290000 			; <UNDEFINED> instruction: 0x01290000
    bc50:	30080253 	andcc	r0, r8, r3, asr r2
    bc54:	96ec2a00 	strbtls	r2, [ip], r0, lsl #20
    bc58:	0c110000 	ldceq	0, cr0, [r1], {-0}
    bc5c:	08000000 	stmdaeq	r0, {}	; <UNPREDICTABLE>
    bc60:	00000114 	andeq	r0, r0, r4, lsl r1
    bc64:	00000a40 	andeq	r0, r0, r0, asr #20
    bc68:	0000c709 	andeq	ip, r0, r9, lsl #14
    bc6c:	0e000f00 	cdpeq	15, 0, cr0, cr0, cr0, {0}
    bc70:	00000a30 	andeq	r0, r0, r0, lsr sl
    bc74:	000c0324 	andeq	r0, ip, r4, lsr #6
    bc78:	05250100 	streq	r0, [r5, #-256]!	; 0xffffff00
    bc7c:	68000001 	stmdavs	r0, {r0}
    bc80:	0c000096 	stceq	0, cr0, [r0], {150}	; 0x96
    bc84:	01000000 	mrseq	r0, (UNDEF: 0)
    bc88:	000a689c 	muleq	sl, ip, r8
    bc8c:	96702a00 	ldrbtls	r2, [r0], -r0, lsl #20
    bc90:	0bd10000 	bleq	ff44bc98 <__bss_end__+0xff441b30>
    bc94:	23000000 	movwcs	r0, #0
    bc98:	00000bc9 	andeq	r0, r0, r9, asr #23
    bc9c:	96642401 	strbtls	r2, [r4], -r1, lsl #8
    bca0:	00040000 	andeq	r0, r4, r0
    bca4:	9c010000 	stcls	0, cr0, [r1], {-0}
    bca8:	0004e424 	andeq	lr, r4, r4, lsr #8
    bcac:	051a0100 	ldreq	r0, [sl, #-256]	; 0xffffff00
    bcb0:	00000001 	andeq	r0, r0, r1
    bcb4:	64000096 	strvs	r0, [r0], #-150	; 0xffffff6a
    bcb8:	01000000 	mrseq	r0, (UNDEF: 0)
    bcbc:	000b249c 	muleq	fp, ip, r4
    bcc0:	7a732b00 	bvc	1cd68c8 <__bss_end__+0x1ccc760>
    bcc4:	2c1a0100 	ldfcss	f0, [sl], {-0}
    bcc8:	06000000 	streq	r0, [r0], -r0
    bccc:	26000017 			; <UNDEFINED> instruction: 0x26000017
    bcd0:	0000020e 	andeq	r0, r0, lr, lsl #4
    bcd4:	00000b34 	andeq	r0, r0, r4, lsr fp
    bcd8:	9c540305 	mrrcls	3, 0, r0, r4, cr5
    bcdc:	412c0000 			; <UNDEFINED> instruction: 0x412c0000
    bce0:	0100000c 	tsteq	r0, ip
    bce4:	0001051e 	andeq	r0, r1, lr, lsl r5
    bce8:	00175000 	andseq	r5, r7, r0
    bcec:	96302800 	ldrtls	r2, [r0], -r0, lsl #16
    bcf0:	0c1c0000 	ldceq	0, cr0, [ip], {-0}
    bcf4:	0ae30000 	beq	ff8cbcfc <__bss_end__+0xff8c1b94>
    bcf8:	01290000 			; <UNDEFINED> instruction: 0x01290000
    bcfc:	00740250 	rsbseq	r0, r4, r0, asr r2
    bd00:	01510129 	cmpeq	r1, r9, lsr #2
    bd04:	52012930 	andpl	r2, r1, #48, 18	; 0xc0000
    bd08:	5001f308 	andpl	pc, r1, r8, lsl #6
    bd0c:	f8090723 			; <UNDEFINED> instruction: 0xf8090723
    bd10:	3c2a001a 	stccc	0, cr0, [sl], #-104	; 0xffffff98
    bd14:	fb000096 	blx	bf76 <__bss_end__+0x1e0e>
    bd18:	2800000b 	stmdacs	r0, {r0, r1, r3}
    bd1c:	00009650 	andeq	r9, r0, r0, asr r6
    bd20:	00000c06 	andeq	r0, r0, r6, lsl #24
    bd24:	00000b1a 	andeq	r0, r0, sl, lsl fp
    bd28:	05500129 	ldrbeq	r0, [r0, #-297]	; 0xfffffed7
    bd2c:	009c9403 	addseq	r9, ip, r3, lsl #8
    bd30:	51012900 	tstpl	r1, r0, lsl #18
    bd34:	9c6c0305 	stclls	3, cr0, [ip], #-20	; 0xffffffec
    bd38:	01290000 			; <UNDEFINED> instruction: 0x01290000
    bd3c:	54030552 	strpl	r0, [r3], #-1362	; 0xfffffaae
    bd40:	2900009c 	stmdbcs	r0, {r2, r3, r4, r7}
    bd44:	4b015301 	blmi	60950 <__bss_end__+0x567e8>
    bd48:	96542a00 	ldrbls	r2, [r4], -r0, lsl #20
    bd4c:	0c110000 	ldceq	0, cr0, [r1], {-0}
    bd50:	08000000 	stmdaeq	r0, {}	; <UNPREDICTABLE>
    bd54:	00000114 	andeq	r0, r0, r4, lsl r1
    bd58:	00000b34 	andeq	r0, r0, r4, lsr fp
    bd5c:	0000c709 	andeq	ip, r0, r9, lsl #14
    bd60:	0e000700 	cdpeq	7, 0, cr0, cr0, cr0, {0}
    bd64:	00000b24 	andeq	r0, r0, r4, lsr #22
    bd68:	00015621 	andeq	r5, r1, r1, lsr #12
    bd6c:	b0140100 	andslt	r0, r4, r0, lsl #2
    bd70:	50000095 	mulpl	r0, r5, r0
    bd74:	01000000 	mrseq	r0, (UNDEF: 0)
    bd78:	000bbc9c 	muleq	fp, ip, ip
    bd7c:	0c402500 	cfstr64eq	mvdx2, [r0], {-0}
    bd80:	14010000 	strne	r0, [r1], #-0
    bd84:	0000002c 	andeq	r0, r0, ip, lsr #32
    bd88:	00001763 	andeq	r1, r0, r3, ror #14
    bd8c:	000c412c 	andeq	r4, ip, ip, lsr #2
    bd90:	07150100 	ldreq	r0, [r5, -r0, lsl #2]
    bd94:	84000001 	strhi	r0, [r0], #-1
    bd98:	26000017 			; <UNDEFINED> instruction: 0x26000017
    bd9c:	0000020e 	andeq	r0, r0, lr, lsl #4
    bda0:	00000bcc 	andeq	r0, r0, ip, asr #23
    bda4:	9c3c0305 	ldcls	3, cr0, [ip], #-20	; 0xffffffec
    bda8:	d82a0000 	stmdale	sl!, {}	; <UNPREDICTABLE>
    bdac:	fb000095 	blx	c00a <__bss_end__+0x1ea2>
    bdb0:	2800000b 	stmdacs	r0, {r0, r1, r3}
    bdb4:	000095ec 	andeq	r9, r0, ip, ror #11
    bdb8:	00000c06 	andeq	r0, r0, r6, lsl #24
    bdbc:	00000bb2 			; <UNDEFINED> instruction: 0x00000bb2
    bdc0:	05500129 	ldrbeq	r0, [r0, #-297]	; 0xfffffed7
    bdc4:	009c7803 	addseq	r7, ip, r3, lsl #16
    bdc8:	51012900 	tstpl	r1, r0, lsl #18
    bdcc:	9c6c0305 	stclls	3, cr0, [ip], #-20	; 0xffffffec
    bdd0:	01290000 			; <UNDEFINED> instruction: 0x01290000
    bdd4:	3c030552 	cfstr32cc	mvfx0, [r3], {82}	; 0x52
    bdd8:	2900009c 	stmdbcs	r0, {r2, r3, r4, r7}
    bddc:	46015301 	strmi	r5, [r1], -r1, lsl #6
    bde0:	95f02a00 	ldrbls	r2, [r0, #2560]!	; 0xa00
    bde4:	0c110000 	ldceq	0, cr0, [r1], {-0}
    bde8:	08000000 	stmdaeq	r0, {}	; <UNPREDICTABLE>
    bdec:	00000114 	andeq	r0, r0, r4, lsl r1
    bdf0:	00000bcc 	andeq	r0, r0, ip, asr #23
    bdf4:	0000c709 	andeq	ip, r0, r9, lsl #14
    bdf8:	0e001600 	cfmadd32eq	mvax0, mvfx1, mvfx0, mvfx0
    bdfc:	00000bbc 			; <UNDEFINED> instruction: 0x00000bbc
    be00:	000c2d2d 	andeq	r2, ip, sp, lsr #26
    be04:	05120100 	ldreq	r0, [r2, #-256]	; 0xffffff00
    be08:	a4000001 	strge	r0, [r0], #-1
    be0c:	0c000095 	stceq	0, cr0, [r0], {149}	; 0x95
    be10:	01000000 	mrseq	r0, (UNDEF: 0)
    be14:	0c462d9c 	mcrreq	13, 9, r2, r6, cr12
    be18:	11010000 	mrsne	r0, (UNDEF: 1)
    be1c:	00000105 	andeq	r0, r0, r5, lsl #2
    be20:	00009594 	muleq	r0, r4, r5
    be24:	00000010 	andeq	r0, r0, r0, lsl r0
    be28:	e92e9c01 	stmdb	lr!, {r0, sl, fp, ip, pc}
    be2c:	e9000001 	stmdb	r0, {r0}
    be30:	06000001 	streq	r0, [r0], -r1
    be34:	070a2e1e 	smladeq	sl, lr, lr, r2
    be38:	070a0000 	streq	r0, [sl, -r0]
    be3c:	29060000 	stmdbcs	r6, {}	; <UNPREDICTABLE>
    be40:	00028d2e 	andeq	r8, r2, lr, lsr #26
    be44:	00028d00 	andeq	r8, r2, r0, lsl #26
    be48:	2e650600 	cdpcs	6, 6, cr0, cr5, cr0, {0}
    be4c:	0000067d 	andeq	r0, r0, sp, ror r6
    be50:	0000067d 	andeq	r0, r0, sp, ror r6
    be54:	Address 0x000000000000be54 is out of bounds.


Disassembly of section .debug_abbrev:

00000000 <.debug_abbrev>:
       0:	25011101 	strcs	r1, [r1, #-257]	; 0xfffffeff
       4:	030b130e 	movweq	r1, #45838	; 0xb30e
       8:	110e1b0e 	tstne	lr, lr, lsl #22
       c:	10061201 	andne	r1, r6, r1, lsl #4
      10:	02000017 	andeq	r0, r0, #23
      14:	0b0b0024 	bleq	2c00ac <__bss_end__+0x2b5f44>
      18:	0e030b3e 	vmoveq.16	d3[0], r0
      1c:	24030000 	strcs	r0, [r3], #-0
      20:	3e0b0b00 	vmlacc.f64	d0, d11, d0
      24:	0008030b 	andeq	r0, r8, fp, lsl #6
      28:	00160400 	andseq	r0, r6, r0, lsl #8
      2c:	0b3a0e03 	bleq	e83840 <__bss_end__+0xe796d8>
      30:	0b390b3b 	bleq	e42d24 <__bss_end__+0xe38bbc>
      34:	00001349 	andeq	r1, r0, r9, asr #6
      38:	0b000f05 	bleq	3c54 <_start-0x43ac>
      3c:	0013490b 	andseq	r4, r3, fp, lsl #18
      40:	00130600 	andseq	r0, r3, r0, lsl #12
      44:	193c0e03 	ldmdbne	ip!, {r0, r1, r9, sl, fp}
      48:	16070000 	strne	r0, [r7], -r0
      4c:	3a0e0300 	bcc	380c54 <__bss_end__+0x376aec>
      50:	39053b0b 	stmdbcc	r5, {r0, r1, r3, r8, r9, fp, ip, sp}
      54:	0013490b 	andseq	r4, r3, fp, lsl #18
      58:	01170800 	tsteq	r7, r0, lsl #16
      5c:	0b3a0b0b 	bleq	e82c90 <__bss_end__+0xe78b28>
      60:	0b390b3b 	bleq	e42d54 <__bss_end__+0xe38bec>
      64:	00001301 	andeq	r1, r0, r1, lsl #6
      68:	03000d09 	movweq	r0, #3337	; 0xd09
      6c:	3b0b3a0e 	blcc	2ce8ac <__bss_end__+0x2c4744>
      70:	490b390b 	stmdbmi	fp, {r0, r1, r3, r8, fp, ip, sp}
      74:	0a000013 	beq	c8 <_start-0x7f38>
      78:	13490101 	movtne	r0, #37121	; 0x9101
      7c:	00001301 	andeq	r1, r0, r1, lsl #6
      80:	4900210b 	stmdbmi	r0, {r0, r1, r3, r8, sp}
      84:	000b2f13 	andeq	r2, fp, r3, lsl pc
      88:	01130c00 	tsteq	r3, r0, lsl #24
      8c:	0b3a0b0b 	bleq	e82cc0 <__bss_end__+0xe78b58>
      90:	0b390b3b 	bleq	e42d84 <__bss_end__+0xe38c1c>
      94:	00001301 	andeq	r1, r0, r1, lsl #6
      98:	03000d0d 	movweq	r0, #3341	; 0xd0d
      9c:	3b0b3a0e 	blcc	2ce8dc <__bss_end__+0x2c4774>
      a0:	490b390b 	stmdbmi	fp, {r0, r1, r3, r8, fp, ip, sp}
      a4:	000b3813 	andeq	r3, fp, r3, lsl r8
      a8:	000f0e00 	andeq	r0, pc, r0, lsl #28
      ac:	00000b0b 	andeq	r0, r0, fp, lsl #22
      b0:	4900260f 	stmdbmi	r0, {r0, r1, r2, r3, r9, sl, sp}
      b4:	10000013 	andne	r0, r0, r3, lsl r0
      b8:	0e030113 	mcreq	1, 0, r0, cr3, cr3, {0}
      bc:	0b3a0b0b 	bleq	e82cf0 <__bss_end__+0xe78b88>
      c0:	0b390b3b 	bleq	e42db4 <__bss_end__+0xe38c4c>
      c4:	00001301 	andeq	r1, r0, r1, lsl #6
      c8:	03000d11 	movweq	r0, #3345	; 0xd11
      cc:	3b0b3a08 	blcc	2ce8f4 <__bss_end__+0x2c478c>
      d0:	490b390b 	stmdbmi	fp, {r0, r1, r3, r8, fp, ip, sp}
      d4:	000b3813 	andeq	r3, fp, r3, lsl r8
      d8:	01131200 	tsteq	r3, r0, lsl #4
      dc:	050b0e03 	streq	r0, [fp, #-3587]	; 0xfffff1fd
      e0:	0b3b0b3a 	bleq	ec2dd0 <__bss_end__+0xeb8c68>
      e4:	13010b39 	movwne	r0, #6969	; 0x1b39
      e8:	0d130000 	ldceq	0, cr0, [r3, #-0]
      ec:	3a0e0300 	bcc	380cf4 <__bss_end__+0x376b8c>
      f0:	390b3b0b 	stmdbcc	fp, {r0, r1, r3, r8, r9, fp, ip, sp}
      f4:	3813490b 	ldmdacc	r3, {r0, r1, r3, r8, fp, lr}
      f8:	14000005 	strne	r0, [r0], #-5
      fc:	19270015 	stmdbne	r7!, {r0, r2, r4}
     100:	15150000 	ldrne	r0, [r5, #-0]
     104:	49192701 	ldmdbmi	r9, {r0, r8, r9, sl, sp}
     108:	00130113 	andseq	r0, r3, r3, lsl r1
     10c:	00051600 	andeq	r1, r5, r0, lsl #12
     110:	00001349 	andeq	r1, r0, r9, asr #6
     114:	03011317 	movweq	r1, #4887	; 0x1317
     118:	3a050b0e 	bcc	142d58 <__bss_end__+0x138bf0>
     11c:	39053b0b 	stmdbcc	r5, {r0, r1, r3, r8, r9, fp, ip, sp}
     120:	0013010b 	andseq	r0, r3, fp, lsl #2
     124:	000d1800 	andeq	r1, sp, r0, lsl #16
     128:	0b3a0e03 	bleq	e8393c <__bss_end__+0xe797d4>
     12c:	0b39053b 	bleq	e41620 <__bss_end__+0xe374b8>
     130:	0b381349 	bleq	e04e5c <__bss_end__+0xdfacf4>
     134:	0d190000 	ldceq	0, cr0, [r9, #-0]
     138:	3a0e0300 	bcc	380d40 <__bss_end__+0x376bd8>
     13c:	39053b0b 	stmdbcc	r5, {r0, r1, r3, r8, r9, fp, ip, sp}
     140:	3813490b 	ldmdacc	r3, {r0, r1, r3, r8, fp, lr}
     144:	1a000005 	bne	160 <_start-0x7ea0>
     148:	0e030113 	mcreq	1, 0, r0, cr3, cr3, {0}
     14c:	0b3a0b0b 	bleq	e82d80 <__bss_end__+0xe78c18>
     150:	0b39053b 	bleq	e41644 <__bss_end__+0xe374dc>
     154:	00001301 	andeq	r1, r0, r1, lsl #6
     158:	0b01131b 	bleq	44dcc <__bss_end__+0x3ac64>
     15c:	3b0b3a0b 	blcc	2ce990 <__bss_end__+0x2c4828>
     160:	010b3905 	tsteq	fp, r5, lsl #18
     164:	1c000013 	stcne	0, cr0, [r0], {19}
     168:	0b0b0117 	bleq	2c05cc <__bss_end__+0x2b6464>
     16c:	053b0b3a 	ldreq	r0, [fp, #-2874]!	; 0xfffff4c6
     170:	13010b39 	movwne	r0, #6969	; 0x1b39
     174:	0d1d0000 	ldceq	0, cr0, [sp, #-0]
     178:	3a0e0300 	bcc	380d80 <__bss_end__+0x376c18>
     17c:	39053b0b 	stmdbcc	r5, {r0, r1, r3, r8, r9, fp, ip, sp}
     180:	0013490b 	andseq	r4, r3, fp, lsl #18
     184:	01151e00 	tsteq	r5, r0, lsl #28
     188:	13011927 	movwne	r1, #6439	; 0x1927
     18c:	341f0000 	ldrcc	r0, [pc], #-0	; 194 <_start-0x7e6c>
     190:	3a0e0300 	bcc	380d98 <__bss_end__+0x376c30>
     194:	39053b0b 	stmdbcc	r5, {r0, r1, r3, r8, r9, fp, ip, sp}
     198:	3f13490b 	svccc	0x0013490b
     19c:	00193c19 	andseq	r3, r9, r9, lsl ip
     1a0:	00342000 	eorseq	r2, r4, r0
     1a4:	0b3a0e03 	bleq	e839b8 <__bss_end__+0xe79850>
     1a8:	0b390b3b 	bleq	e42e9c <__bss_end__+0xe38d34>
     1ac:	193f1349 	ldmdbne	pc!, {r0, r3, r6, r8, r9, ip}	; <UNPREDICTABLE>
     1b0:	0000193c 	andeq	r1, r0, ip, lsr r9
     1b4:	3f012e21 	svccc	0x00012e21
     1b8:	3a0e0319 	bcc	380e24 <__bss_end__+0x376cbc>
     1bc:	390b3b0b 	stmdbcc	fp, {r0, r1, r3, r8, r9, fp, ip, sp}
     1c0:	1119270b 	tstne	r9, fp, lsl #14
     1c4:	40061201 	andmi	r1, r6, r1, lsl #4
     1c8:	19429718 	stmdbne	r2, {r3, r4, r8, r9, sl, ip, pc}^
     1cc:	00001301 	andeq	r1, r0, r1, lsl #6
     1d0:	03003422 	movweq	r3, #1058	; 0x422
     1d4:	3b0b3a08 	blcc	2ce9fc <__bss_end__+0x2c4894>
     1d8:	490b390b 	stmdbmi	fp, {r0, r1, r3, r8, fp, ip, sp}
     1dc:	00061c13 	andeq	r1, r6, r3, lsl ip
     1e0:	01042300 	mrseq	r2, LR_abt
     1e4:	0b0b0b3e 	bleq	2c2ee4 <__bss_end__+0x2b8d7c>
     1e8:	0b3a1349 	bleq	e84f14 <__bss_end__+0xe7adac>
     1ec:	0b390b3b 	bleq	e42ee0 <__bss_end__+0xe38d78>
     1f0:	00001301 	andeq	r1, r0, r1, lsl #6
     1f4:	03002824 	movweq	r2, #2084	; 0x824
     1f8:	000b1c08 	andeq	r1, fp, r8, lsl #24
     1fc:	00342500 	eorseq	r2, r4, r0, lsl #10
     200:	0b3a0803 	bleq	e82214 <__bss_end__+0xe780ac>
     204:	0b390b3b 	bleq	e42ef8 <__bss_end__+0xe38d90>
     208:	18021349 	stmdane	r2, {r0, r3, r6, r8, r9, ip}
     20c:	34260000 	strtcc	r0, [r6], #-0
     210:	490e0300 	stmdbmi	lr, {r8, r9}
     214:	02193413 	andseq	r3, r9, #318767104	; 0x13000000
     218:	27000018 	smladcs	r0, r8, r0, r0
     21c:	08030034 	stmdaeq	r3, {r2, r4, r5}
     220:	0b3b0b3a 	bleq	ec2f10 <__bss_end__+0xeb8da8>
     224:	13490b39 	movtne	r0, #39737	; 0x9b39
     228:	42b71702 	adcsmi	r1, r7, #524288	; 0x80000
     22c:	28000017 	stmdacs	r0, {r0, r1, r2, r4}
     230:	0111010b 	tsteq	r1, fp, lsl #2
     234:	13010612 	movwne	r0, #5650	; 0x1612
     238:	89290000 	stmdbhi	r9!, {}	; <UNPREDICTABLE>
     23c:	11000182 	smlabbne	r0, r2, r1, r0
     240:	00133101 	andseq	r3, r3, r1, lsl #2
     244:	82892a00 	addhi	r2, r9, #0, 20
     248:	01110101 	tsteq	r1, r1, lsl #2
     24c:	00001331 	andeq	r1, r0, r1, lsr r3
     250:	01828a2b 	orreq	r8, r2, fp, lsr #20
     254:	91180200 	tstls	r8, r0, lsl #4
     258:	00001842 	andeq	r1, r0, r2, asr #16
     25c:	0182892c 	orreq	r8, r2, ip, lsr #18
     260:	31011101 	tstcc	r1, r1, lsl #2
     264:	00130113 	andseq	r0, r3, r3, lsl r1
     268:	002e2d00 	eoreq	r2, lr, r0, lsl #26
     26c:	193c193f 	ldmdbne	ip!, {r0, r1, r2, r3, r4, r5, r8, fp, ip}
     270:	0e030e6e 	cdpeq	14, 0, cr0, cr3, cr14, {3}
     274:	0b3b0b3a 	bleq	ec2f64 <__bss_end__+0xeb8dfc>
     278:	00000b39 	andeq	r0, r0, r9, lsr fp
     27c:	01110100 	tsteq	r1, r0, lsl #2
     280:	0b130e25 	bleq	4c3b1c <__bss_end__+0x4b99b4>
     284:	0e1b0e03 	cdpeq	14, 1, cr0, cr11, cr3, {0}
     288:	06120111 			; <UNDEFINED> instruction: 0x06120111
     28c:	00001710 	andeq	r1, r0, r0, lsl r7
     290:	0b002402 	bleq	92a0 <delay_sec+0x8>
     294:	030b3e0b 	movweq	r3, #48651	; 0xbe0b
     298:	03000008 	movweq	r0, #8
     29c:	0b0b0024 	bleq	2c0334 <__bss_end__+0x2b61cc>
     2a0:	0e030b3e 	vmoveq.16	d3[0], r0
     2a4:	16040000 	strne	r0, [r4], -r0
     2a8:	3a0e0300 	bcc	380eb0 <__bss_end__+0x376d48>
     2ac:	390b3b0b 	stmdbcc	fp, {r0, r1, r3, r8, r9, fp, ip, sp}
     2b0:	0013490b 	andseq	r4, r3, fp, lsl #18
     2b4:	000f0500 	andeq	r0, pc, r0, lsl #10
     2b8:	13490b0b 	movtne	r0, #39691	; 0x9b0b
     2bc:	13060000 	movwne	r0, #24576	; 0x6000
     2c0:	3c0e0300 	stccc	3, cr0, [lr], {-0}
     2c4:	07000019 	smladeq	r0, r9, r0, r0
     2c8:	0e030016 	mcreq	0, 0, r0, cr3, cr6, {0}
     2cc:	053b0b3a 	ldreq	r0, [fp, #-2874]!	; 0xfffff4c6
     2d0:	13490b39 	movtne	r0, #39737	; 0x9b39
     2d4:	17080000 	strne	r0, [r8, -r0]
     2d8:	3a0b0b01 	bcc	2c2ee4 <__bss_end__+0x2b8d7c>
     2dc:	390b3b0b 	stmdbcc	fp, {r0, r1, r3, r8, r9, fp, ip, sp}
     2e0:	0013010b 	andseq	r0, r3, fp, lsl #2
     2e4:	000d0900 	andeq	r0, sp, r0, lsl #18
     2e8:	0b3a0e03 	bleq	e83afc <__bss_end__+0xe79994>
     2ec:	0b390b3b 	bleq	e42fe0 <__bss_end__+0xe38e78>
     2f0:	00001349 	andeq	r1, r0, r9, asr #6
     2f4:	4901010a 	stmdbmi	r1, {r1, r3, r8}
     2f8:	00130113 	andseq	r0, r3, r3, lsl r1
     2fc:	00210b00 	eoreq	r0, r1, r0, lsl #22
     300:	0b2f1349 	bleq	bc502c <__bss_end__+0xbbaec4>
     304:	130c0000 	movwne	r0, #49152	; 0xc000
     308:	3a0b0b01 	bcc	2c2f14 <__bss_end__+0x2b8dac>
     30c:	390b3b0b 	stmdbcc	fp, {r0, r1, r3, r8, r9, fp, ip, sp}
     310:	0013010b 	andseq	r0, r3, fp, lsl #2
     314:	000d0d00 	andeq	r0, sp, r0, lsl #26
     318:	0b3a0e03 	bleq	e83b2c <__bss_end__+0xe799c4>
     31c:	0b390b3b 	bleq	e43010 <__bss_end__+0xe38ea8>
     320:	0b381349 	bleq	e0504c <__bss_end__+0xdfaee4>
     324:	0f0e0000 	svceq	0x000e0000
     328:	000b0b00 	andeq	r0, fp, r0, lsl #22
     32c:	00260f00 	eoreq	r0, r6, r0, lsl #30
     330:	00001349 	andeq	r1, r0, r9, asr #6
     334:	03011310 	movweq	r1, #4880	; 0x1310
     338:	3a0b0b0e 	bcc	2c2f78 <__bss_end__+0x2b8e10>
     33c:	390b3b0b 	stmdbcc	fp, {r0, r1, r3, r8, r9, fp, ip, sp}
     340:	0013010b 	andseq	r0, r3, fp, lsl #2
     344:	000d1100 	andeq	r1, sp, r0, lsl #2
     348:	0b3a0803 	bleq	e8235c <__bss_end__+0xe781f4>
     34c:	0b390b3b 	bleq	e43040 <__bss_end__+0xe38ed8>
     350:	0b381349 	bleq	e0507c <__bss_end__+0xdfaf14>
     354:	13120000 	tstne	r2, #0
     358:	0b0e0301 	bleq	380f64 <__bss_end__+0x376dfc>
     35c:	3b0b3a05 	blcc	2ceb78 <__bss_end__+0x2c4a10>
     360:	010b390b 	tsteq	fp, fp, lsl #18
     364:	13000013 	movwne	r0, #19
     368:	0e03000d 	cdpeq	0, 0, cr0, cr3, cr13, {0}
     36c:	0b3b0b3a 	bleq	ec305c <__bss_end__+0xeb8ef4>
     370:	13490b39 	movtne	r0, #39737	; 0x9b39
     374:	00000538 	andeq	r0, r0, r8, lsr r5
     378:	27001514 	smladcs	r0, r4, r5, r1
     37c:	15000019 	strne	r0, [r0, #-25]	; 0xffffffe7
     380:	19270115 	stmdbne	r7!, {r0, r2, r4, r8}
     384:	13011349 	movwne	r1, #4937	; 0x1349
     388:	05160000 	ldreq	r0, [r6, #-0]
     38c:	00134900 	andseq	r4, r3, r0, lsl #18
     390:	01131700 	tsteq	r3, r0, lsl #14
     394:	050b0e03 	streq	r0, [fp, #-3587]	; 0xfffff1fd
     398:	053b0b3a 	ldreq	r0, [fp, #-2874]!	; 0xfffff4c6
     39c:	13010b39 	movwne	r0, #6969	; 0x1b39
     3a0:	0d180000 	ldceq	0, cr0, [r8, #-0]
     3a4:	3a0e0300 	bcc	380fac <__bss_end__+0x376e44>
     3a8:	39053b0b 	stmdbcc	r5, {r0, r1, r3, r8, r9, fp, ip, sp}
     3ac:	3813490b 	ldmdacc	r3, {r0, r1, r3, r8, fp, lr}
     3b0:	1900000b 	stmdbne	r0, {r0, r1, r3}
     3b4:	0e03000d 	cdpeq	0, 0, cr0, cr3, cr13, {0}
     3b8:	053b0b3a 	ldreq	r0, [fp, #-2874]!	; 0xfffff4c6
     3bc:	13490b39 	movtne	r0, #39737	; 0x9b39
     3c0:	00000538 	andeq	r0, r0, r8, lsr r5
     3c4:	0301131a 	movweq	r1, #4890	; 0x131a
     3c8:	3a0b0b0e 	bcc	2c3008 <__bss_end__+0x2b8ea0>
     3cc:	39053b0b 	stmdbcc	r5, {r0, r1, r3, r8, r9, fp, ip, sp}
     3d0:	0013010b 	andseq	r0, r3, fp, lsl #2
     3d4:	01131b00 	tsteq	r3, r0, lsl #22
     3d8:	0b3a0b0b 	bleq	e8300c <__bss_end__+0xe78ea4>
     3dc:	0b39053b 	bleq	e418d0 <__bss_end__+0xe37768>
     3e0:	00001301 	andeq	r1, r0, r1, lsl #6
     3e4:	0b01171c 	bleq	4605c <__bss_end__+0x3bef4>
     3e8:	3b0b3a0b 	blcc	2cec1c <__bss_end__+0x2c4ab4>
     3ec:	010b3905 	tsteq	fp, r5, lsl #18
     3f0:	1d000013 	stcne	0, cr0, [r0, #-76]	; 0xffffffb4
     3f4:	0e03000d 	cdpeq	0, 0, cr0, cr3, cr13, {0}
     3f8:	053b0b3a 	ldreq	r0, [fp, #-2874]!	; 0xfffff4c6
     3fc:	13490b39 	movtne	r0, #39737	; 0x9b39
     400:	151e0000 	ldrne	r0, [lr, #-0]
     404:	01192701 	tsteq	r9, r1, lsl #14
     408:	1f000013 	svcne	0x00000013
     40c:	0e030034 	mcreq	0, 0, r0, cr3, cr4, {1}
     410:	053b0b3a 	ldreq	r0, [fp, #-2874]!	; 0xfffff4c6
     414:	13490b39 	movtne	r0, #39737	; 0x9b39
     418:	193c193f 	ldmdbne	ip!, {r0, r1, r2, r3, r4, r5, r8, fp, ip}
     41c:	34200000 	strtcc	r0, [r0], #-0
     420:	3a0e0300 	bcc	381028 <__bss_end__+0x376ec0>
     424:	390b3b0b 	stmdbcc	fp, {r0, r1, r3, r8, r9, fp, ip, sp}
     428:	3f13490b 	svccc	0x0013490b
     42c:	00193c19 	andseq	r3, r9, r9, lsl ip
     430:	01042100 	mrseq	r2, (UNDEF: 20)
     434:	0b0b0b3e 	bleq	2c3134 <__bss_end__+0x2b8fcc>
     438:	0b3a1349 	bleq	e85164 <__bss_end__+0xe7affc>
     43c:	0b390b3b 	bleq	e43130 <__bss_end__+0xe38fc8>
     440:	00001301 	andeq	r1, r0, r1, lsl #6
     444:	03002822 	movweq	r2, #2082	; 0x822
     448:	000b1c0e 	andeq	r1, fp, lr, lsl #24
     44c:	00282300 	eoreq	r2, r8, r0, lsl #6
     450:	051c0e03 	ldreq	r0, [ip, #-3587]	; 0xfffff1fd
     454:	34240000 	strtcc	r0, [r4], #-0
     458:	3a0e0300 	bcc	381060 <__bss_end__+0x376ef8>
     45c:	390b3b0b 	stmdbcc	fp, {r0, r1, r3, r8, r9, fp, ip, sp}
     460:	0213490b 	andseq	r4, r3, #180224	; 0x2c000
     464:	25000018 	strcs	r0, [r0, #-24]	; 0xffffffe8
     468:	193f012e 	ldmdbne	pc!, {r1, r2, r3, r5, r8}	; <UNPREDICTABLE>
     46c:	0b3a0e03 	bleq	e83c80 <__bss_end__+0xe79b18>
     470:	0b390b3b 	bleq	e43164 <__bss_end__+0xe38ffc>
     474:	13491927 	movtne	r1, #39207	; 0x9927
     478:	06120111 			; <UNDEFINED> instruction: 0x06120111
     47c:	42971840 	addsmi	r1, r7, #64, 16	; 0x400000
     480:	00130119 	andseq	r0, r3, r9, lsl r1
     484:	00342600 	eorseq	r2, r4, r0, lsl #12
     488:	0b3a0e03 	bleq	e83c9c <__bss_end__+0xe79b34>
     48c:	0b390b3b 	bleq	e43180 <__bss_end__+0xe39018>
     490:	17021349 	strne	r1, [r2, -r9, asr #6]
     494:	001742b7 			; <UNDEFINED> instruction: 0x001742b7
     498:	010b2700 	tsteq	fp, r0, lsl #14
     49c:	13011755 	movwne	r1, #5973	; 0x1755
     4a0:	89280000 	stmdbhi	r8!, {}	; <UNPREDICTABLE>
     4a4:	11010182 	smlabbne	r1, r2, r1, r0
     4a8:	01133101 	tsteq	r3, r1, lsl #2
     4ac:	29000013 	stmdbcs	r0, {r0, r1, r4}
     4b0:	0001828a 	andeq	r8, r1, sl, lsl #5
     4b4:	42911802 	addsmi	r1, r1, #131072	; 0x20000
     4b8:	2a000018 	bcs	520 <_start-0x7ae0>
     4bc:	01018289 	smlabbeq	r1, r9, r2, r8
     4c0:	13310111 	teqne	r1, #1073741828	; 0x40000004
     4c4:	052b0000 	streq	r0, [fp, #-0]!
     4c8:	3a0e0300 	bcc	3810d0 <__bss_end__+0x376f68>
     4cc:	390b3b0b 	stmdbcc	fp, {r0, r1, r3, r8, r9, fp, ip, sp}
     4d0:	0213490b 	andseq	r4, r3, #180224	; 0x2c000
     4d4:	1742b717 	smlaldne	fp, r2, r7, r7
     4d8:	342c0000 	strtcc	r0, [ip], #-0
     4dc:	3a080300 	bcc	2010e4 <__bss_end__+0x1f6f7c>
     4e0:	390b3b0b 	stmdbcc	fp, {r0, r1, r3, r8, r9, fp, ip, sp}
     4e4:	0213490b 	andseq	r4, r3, #180224	; 0x2c000
     4e8:	1742b717 	smlaldne	fp, r2, r7, r7
     4ec:	342d0000 	strtcc	r0, [sp], #-0
     4f0:	490e0300 	stmdbmi	lr, {r8, r9}
     4f4:	02193413 	andseq	r3, r9, #318767104	; 0x13000000
     4f8:	2e000018 	mcrcs	0, 0, r0, cr0, cr8, {0}
     4fc:	00018289 	andeq	r8, r1, r9, lsl #5
     500:	13310111 	teqne	r1, #1073741828	; 0x40000004
     504:	2e2f0000 	cdpcs	0, 2, cr0, cr15, cr0, {0}
     508:	03193f01 	tsteq	r9, #1, 30
     50c:	3b0b3a0e 	blcc	2ced4c <__bss_end__+0x2c4be4>
     510:	270b390b 	strcs	r3, [fp, -fp, lsl #18]
     514:	12011119 	andne	r1, r1, #1073741830	; 0x40000006
     518:	97184006 	ldrls	r4, [r8, -r6]
     51c:	13011942 	movwne	r1, #6466	; 0x1942
     520:	2e300000 	cdpcs	0, 3, cr0, cr0, cr0, {0}
     524:	3a0e0301 	bcc	381130 <__bss_end__+0x376fc8>
     528:	390b3b0b 	stmdbcc	fp, {r0, r1, r3, r8, r9, fp, ip, sp}
     52c:	4919270b 	ldmdbmi	r9, {r0, r1, r3, r8, r9, sl, sp}
     530:	12011113 	andne	r1, r1, #-1073741820	; 0xc0000004
     534:	97184006 	ldrls	r4, [r8, -r6]
     538:	13011942 	movwne	r1, #6466	; 0x1942
     53c:	05310000 	ldreq	r0, [r1, #-0]!
     540:	3a080300 	bcc	201148 <__bss_end__+0x1f6fe0>
     544:	390b3b0b 	stmdbcc	fp, {r0, r1, r3, r8, r9, fp, ip, sp}
     548:	0213490b 	andseq	r4, r3, #180224	; 0x2c000
     54c:	1742b717 	smlaldne	fp, r2, r7, r7
     550:	2e320000 	cdpcs	0, 3, cr0, cr2, cr0, {0}
     554:	3a0e0301 	bcc	381160 <__bss_end__+0x376ff8>
     558:	390b3b0b 	stmdbcc	fp, {r0, r1, r3, r8, r9, fp, ip, sp}
     55c:	1119270b 	tstne	r9, fp, lsl #14
     560:	40061201 	andmi	r1, r6, r1, lsl #4
     564:	19429718 	stmdbne	r2, {r3, r4, r8, r9, sl, ip, pc}^
     568:	00001301 	andeq	r1, r0, r1, lsl #6
     56c:	11010b33 	tstne	r1, r3, lsr fp
     570:	00061201 	andeq	r1, r6, r1, lsl #4
     574:	011d3400 	tsteq	sp, r0, lsl #8
     578:	01521331 	cmpeq	r2, r1, lsr r3
     57c:	550b42b8 	strpl	r4, [fp, #-696]	; 0xfffffd48
     580:	590b5817 	stmdbpl	fp, {r0, r1, r2, r4, fp, ip, lr}
     584:	010b570b 	tsteq	fp, fp, lsl #14
     588:	35000013 	strcc	r0, [r0, #-19]	; 0xffffffed
     58c:	13310005 	teqne	r1, #5
     590:	42b71702 	adcsmi	r1, r7, #524288	; 0x80000
     594:	36000017 			; <UNDEFINED> instruction: 0x36000017
     598:	1755010b 	ldrbne	r0, [r5, -fp, lsl #2]
     59c:	34370000 	ldrtcc	r0, [r7], #-0
     5a0:	02133100 	andseq	r3, r3, #0, 2
     5a4:	1742b717 	smlaldne	fp, r2, r7, r7
     5a8:	2e380000 	cdpcs	0, 3, cr0, cr8, cr0, {0}
     5ac:	3a0e0301 	bcc	3811b8 <__bss_end__+0x377050>
     5b0:	390b3b0b 	stmdbcc	fp, {r0, r1, r3, r8, r9, fp, ip, sp}
     5b4:	2019270b 	andscs	r2, r9, fp, lsl #14
     5b8:	0013010b 	andseq	r0, r3, fp, lsl #2
     5bc:	00053900 	andeq	r3, r5, r0, lsl #18
     5c0:	0b3a0803 	bleq	e825d4 <__bss_end__+0xe7846c>
     5c4:	0b390b3b 	bleq	e432b8 <__bss_end__+0xe39150>
     5c8:	00001349 	andeq	r1, r0, r9, asr #6
     5cc:	0300343a 	movweq	r3, #1082	; 0x43a
     5d0:	3b0b3a08 	blcc	2cedf8 <__bss_end__+0x2c4c90>
     5d4:	490b390b 	stmdbmi	fp, {r0, r1, r3, r8, fp, ip, sp}
     5d8:	3b000013 	blcc	62c <_start-0x79d4>
     5dc:	193f002e 	ldmdbne	pc!, {r1, r2, r3, r5}	; <UNPREDICTABLE>
     5e0:	0e6e193c 			; <UNDEFINED> instruction: 0x0e6e193c
     5e4:	0b3a0e03 	bleq	e83df8 <__bss_end__+0xe79c90>
     5e8:	0b390b3b 	bleq	e432dc <__bss_end__+0xe39174>
     5ec:	01000000 	mrseq	r0, (UNDEF: 0)
     5f0:	0e250111 	mcreq	1, 1, r0, cr5, cr1, {0}
     5f4:	0e030b13 	vmoveq.32	d3[0], r0
     5f8:	01110e1b 	tsteq	r1, fp, lsl lr
     5fc:	17100612 			; <UNDEFINED> instruction: 0x17100612
     600:	24020000 	strcs	r0, [r2], #-0
     604:	3e0b0b00 	vmlacc.f64	d0, d11, d0
     608:	0008030b 	andeq	r0, r8, fp, lsl #6
     60c:	00240300 	eoreq	r0, r4, r0, lsl #6
     610:	0b3e0b0b 	bleq	f83244 <__bss_end__+0xf790dc>
     614:	00000e03 	andeq	r0, r0, r3, lsl #28
     618:	03001604 	movweq	r1, #1540	; 0x604
     61c:	3b0b3a0e 	blcc	2cee5c <__bss_end__+0x2c4cf4>
     620:	490b390b 	stmdbmi	fp, {r0, r1, r3, r8, fp, ip, sp}
     624:	05000013 	streq	r0, [r0, #-19]	; 0xffffffed
     628:	0b0b000f 	bleq	2c066c <__bss_end__+0x2b6504>
     62c:	00001349 	andeq	r1, r0, r9, asr #6
     630:	03001306 	movweq	r1, #774	; 0x306
     634:	00193c0e 	andseq	r3, r9, lr, lsl #24
     638:	00160700 	andseq	r0, r6, r0, lsl #14
     63c:	0b3a0e03 	bleq	e83e50 <__bss_end__+0xe79ce8>
     640:	0b39053b 	bleq	e41b34 <__bss_end__+0xe379cc>
     644:	00001349 	andeq	r1, r0, r9, asr #6
     648:	0b011708 	bleq	46270 <__bss_end__+0x3c108>
     64c:	3b0b3a0b 	blcc	2cee80 <__bss_end__+0x2c4d18>
     650:	010b390b 	tsteq	fp, fp, lsl #18
     654:	09000013 	stmdbeq	r0, {r0, r1, r4}
     658:	0e03000d 	cdpeq	0, 0, cr0, cr3, cr13, {0}
     65c:	0b3b0b3a 	bleq	ec334c <__bss_end__+0xeb91e4>
     660:	13490b39 	movtne	r0, #39737	; 0x9b39
     664:	010a0000 	mrseq	r0, (UNDEF: 10)
     668:	01134901 	tsteq	r3, r1, lsl #18
     66c:	0b000013 	bleq	6c0 <_start-0x7940>
     670:	13490021 	movtne	r0, #36897	; 0x9021
     674:	00000b2f 	andeq	r0, r0, pc, lsr #22
     678:	0b01130c 	bleq	452b0 <__bss_end__+0x3b148>
     67c:	3b0b3a0b 	blcc	2ceeb0 <__bss_end__+0x2c4d48>
     680:	010b390b 	tsteq	fp, fp, lsl #18
     684:	0d000013 	stceq	0, cr0, [r0, #-76]	; 0xffffffb4
     688:	0e03000d 	cdpeq	0, 0, cr0, cr3, cr13, {0}
     68c:	0b3b0b3a 	bleq	ec337c <__bss_end__+0xeb9214>
     690:	13490b39 	movtne	r0, #39737	; 0x9b39
     694:	00000b38 	andeq	r0, r0, r8, lsr fp
     698:	0b000f0e 	bleq	42d8 <_start-0x3d28>
     69c:	0f00000b 	svceq	0x0000000b
     6a0:	13490026 	movtne	r0, #36902	; 0x9026
     6a4:	13100000 	tstne	r0, #0
     6a8:	0b0e0301 	bleq	3812b4 <__bss_end__+0x37714c>
     6ac:	3b0b3a0b 	blcc	2ceee0 <__bss_end__+0x2c4d78>
     6b0:	010b390b 	tsteq	fp, fp, lsl #18
     6b4:	11000013 	tstne	r0, r3, lsl r0
     6b8:	0803000d 	stmdaeq	r3, {r0, r2, r3}
     6bc:	0b3b0b3a 	bleq	ec33ac <__bss_end__+0xeb9244>
     6c0:	13490b39 	movtne	r0, #39737	; 0x9b39
     6c4:	00000b38 	andeq	r0, r0, r8, lsr fp
     6c8:	03011312 	movweq	r1, #4882	; 0x1312
     6cc:	3a050b0e 	bcc	14330c <__bss_end__+0x1391a4>
     6d0:	390b3b0b 	stmdbcc	fp, {r0, r1, r3, r8, r9, fp, ip, sp}
     6d4:	0013010b 	andseq	r0, r3, fp, lsl #2
     6d8:	000d1300 	andeq	r1, sp, r0, lsl #6
     6dc:	0b3a0e03 	bleq	e83ef0 <__bss_end__+0xe79d88>
     6e0:	0b390b3b 	bleq	e433d4 <__bss_end__+0xe3926c>
     6e4:	05381349 	ldreq	r1, [r8, #-841]!	; 0xfffffcb7
     6e8:	15140000 	ldrne	r0, [r4, #-0]
     6ec:	00192700 	andseq	r2, r9, r0, lsl #14
     6f0:	01151500 	tsteq	r5, r0, lsl #10
     6f4:	13491927 	movtne	r1, #39207	; 0x9927
     6f8:	00001301 	andeq	r1, r0, r1, lsl #6
     6fc:	49000516 	stmdbmi	r0, {r1, r2, r4, r8, sl}
     700:	17000013 	smladne	r0, r3, r0, r0
     704:	0e030113 	mcreq	1, 0, r0, cr3, cr3, {0}
     708:	0b3a050b 	bleq	e81b3c <__bss_end__+0xe779d4>
     70c:	0b39053b 	bleq	e41c00 <__bss_end__+0xe37a98>
     710:	00001301 	andeq	r1, r0, r1, lsl #6
     714:	03000d18 	movweq	r0, #3352	; 0xd18
     718:	3b0b3a0e 	blcc	2cef58 <__bss_end__+0x2c4df0>
     71c:	490b3905 	stmdbmi	fp, {r0, r2, r8, fp, ip, sp}
     720:	000b3813 	andeq	r3, fp, r3, lsl r8
     724:	000d1900 	andeq	r1, sp, r0, lsl #18
     728:	0b3a0e03 	bleq	e83f3c <__bss_end__+0xe79dd4>
     72c:	0b39053b 	bleq	e41c20 <__bss_end__+0xe37ab8>
     730:	05381349 	ldreq	r1, [r8, #-841]!	; 0xfffffcb7
     734:	131a0000 	tstne	sl, #0
     738:	0b0e0301 	bleq	381344 <__bss_end__+0x3771dc>
     73c:	3b0b3a0b 	blcc	2cef70 <__bss_end__+0x2c4e08>
     740:	010b3905 	tsteq	fp, r5, lsl #18
     744:	1b000013 	blne	798 <_start-0x7868>
     748:	0b0b0113 	bleq	2c0b9c <__bss_end__+0x2b6a34>
     74c:	053b0b3a 	ldreq	r0, [fp, #-2874]!	; 0xfffff4c6
     750:	13010b39 	movwne	r0, #6969	; 0x1b39
     754:	171c0000 	ldrne	r0, [ip, -r0]
     758:	3a0b0b01 	bcc	2c3364 <__bss_end__+0x2b91fc>
     75c:	39053b0b 	stmdbcc	r5, {r0, r1, r3, r8, r9, fp, ip, sp}
     760:	0013010b 	andseq	r0, r3, fp, lsl #2
     764:	000d1d00 	andeq	r1, sp, r0, lsl #26
     768:	0b3a0e03 	bleq	e83f7c <__bss_end__+0xe79e14>
     76c:	0b39053b 	bleq	e41c60 <__bss_end__+0xe37af8>
     770:	00001349 	andeq	r1, r0, r9, asr #6
     774:	2701151e 	smladcs	r1, lr, r5, r1
     778:	00130119 	andseq	r0, r3, r9, lsl r1
     77c:	00341f00 	eorseq	r1, r4, r0, lsl #30
     780:	0b3a0e03 	bleq	e83f94 <__bss_end__+0xe79e2c>
     784:	0b39053b 	bleq	e41c78 <__bss_end__+0xe37b10>
     788:	193f1349 	ldmdbne	pc!, {r0, r3, r6, r8, r9, ip}	; <UNPREDICTABLE>
     78c:	0000193c 	andeq	r1, r0, ip, lsr r9
     790:	03003420 	movweq	r3, #1056	; 0x420
     794:	3b0b3a0e 	blcc	2cefd4 <__bss_end__+0x2c4e6c>
     798:	490b390b 	stmdbmi	fp, {r0, r1, r3, r8, fp, ip, sp}
     79c:	3c193f13 	ldccc	15, cr3, [r9], {19}
     7a0:	21000019 	tstcs	r0, r9, lsl r0
     7a4:	193f012e 	ldmdbne	pc!, {r1, r2, r3, r5, r8}	; <UNPREDICTABLE>
     7a8:	0b3a0e03 	bleq	e83fbc <__bss_end__+0xe79e54>
     7ac:	0b390b3b 	bleq	e434a0 <__bss_end__+0xe39338>
     7b0:	13491927 	movtne	r1, #39207	; 0x9927
     7b4:	06120111 			; <UNDEFINED> instruction: 0x06120111
     7b8:	42971840 	addsmi	r1, r7, #64, 16	; 0x400000
     7bc:	00130119 	andseq	r0, r3, r9, lsl r1
     7c0:	00052200 	andeq	r2, r5, r0, lsl #4
     7c4:	0b3a0e03 	bleq	e83fd8 <__bss_end__+0xe79e70>
     7c8:	0b390b3b 	bleq	e434bc <__bss_end__+0xe39354>
     7cc:	17021349 	strne	r1, [r2, -r9, asr #6]
     7d0:	001742b7 			; <UNDEFINED> instruction: 0x001742b7
     7d4:	00052300 	andeq	r2, r5, r0, lsl #6
     7d8:	0b3a0803 	bleq	e827ec <__bss_end__+0xe78684>
     7dc:	0b390b3b 	bleq	e434d0 <__bss_end__+0xe39368>
     7e0:	17021349 	strne	r1, [r2, -r9, asr #6]
     7e4:	001742b7 			; <UNDEFINED> instruction: 0x001742b7
     7e8:	00342400 	eorseq	r2, r4, r0, lsl #8
     7ec:	0b3a0e03 	bleq	e84000 <__bss_end__+0xe79e98>
     7f0:	0b390b3b 	bleq	e434e4 <__bss_end__+0xe3937c>
     7f4:	17021349 	strne	r1, [r2, -r9, asr #6]
     7f8:	001742b7 			; <UNDEFINED> instruction: 0x001742b7
     7fc:	00342500 	eorseq	r2, r4, r0, lsl #10
     800:	0b3a0803 	bleq	e82814 <__bss_end__+0xe786ac>
     804:	0b390b3b 	bleq	e434f8 <__bss_end__+0xe39390>
     808:	17021349 	strne	r1, [r2, -r9, asr #6]
     80c:	001742b7 			; <UNDEFINED> instruction: 0x001742b7
     810:	00262600 	eoreq	r2, r6, r0, lsl #12
     814:	01000000 	mrseq	r0, (UNDEF: 0)
     818:	0e250111 	mcreq	1, 1, r0, cr5, cr1, {0}
     81c:	0e030b13 	vmoveq.32	d3[0], r0
     820:	01110e1b 	tsteq	r1, fp, lsl lr
     824:	17100612 			; <UNDEFINED> instruction: 0x17100612
     828:	24020000 	strcs	r0, [r2], #-0
     82c:	3e0b0b00 	vmlacc.f64	d0, d11, d0
     830:	0008030b 	andeq	r0, r8, fp, lsl #6
     834:	00160300 	andseq	r0, r6, r0, lsl #6
     838:	0b3a0e03 	bleq	e8404c <__bss_end__+0xe79ee4>
     83c:	0b390b3b 	bleq	e43530 <__bss_end__+0xe393c8>
     840:	00001349 	andeq	r1, r0, r9, asr #6
     844:	0b002404 	bleq	985c <__FUNCTION__.4341+0x3c>
     848:	030b3e0b 	movweq	r3, #48651	; 0xbe0b
     84c:	0500000e 	streq	r0, [r0, #-14]
     850:	0b0b000f 	bleq	2c0894 <__bss_end__+0x2b672c>
     854:	00001349 	andeq	r1, r0, r9, asr #6
     858:	03001306 	movweq	r1, #774	; 0x306
     85c:	00193c0e 	andseq	r3, r9, lr, lsl #24
     860:	00160700 	andseq	r0, r6, r0, lsl #14
     864:	0b3a0e03 	bleq	e84078 <__bss_end__+0xe79f10>
     868:	0b39053b 	bleq	e41d5c <__bss_end__+0xe37bf4>
     86c:	00001349 	andeq	r1, r0, r9, asr #6
     870:	0b011708 	bleq	46498 <__bss_end__+0x3c330>
     874:	3b0b3a0b 	blcc	2cf0a8 <__bss_end__+0x2c4f40>
     878:	010b390b 	tsteq	fp, fp, lsl #18
     87c:	09000013 	stmdbeq	r0, {r0, r1, r4}
     880:	0e03000d 	cdpeq	0, 0, cr0, cr3, cr13, {0}
     884:	0b3b0b3a 	bleq	ec3574 <__bss_end__+0xeb940c>
     888:	13490b39 	movtne	r0, #39737	; 0x9b39
     88c:	010a0000 	mrseq	r0, (UNDEF: 10)
     890:	01134901 	tsteq	r3, r1, lsl #18
     894:	0b000013 	bleq	8e8 <_start-0x7718>
     898:	13490021 	movtne	r0, #36897	; 0x9021
     89c:	00000b2f 	andeq	r0, r0, pc, lsr #22
     8a0:	0b01130c 	bleq	454d8 <__bss_end__+0x3b370>
     8a4:	3b0b3a0b 	blcc	2cf0d8 <__bss_end__+0x2c4f70>
     8a8:	010b390b 	tsteq	fp, fp, lsl #18
     8ac:	0d000013 	stceq	0, cr0, [r0, #-76]	; 0xffffffb4
     8b0:	0e03000d 	cdpeq	0, 0, cr0, cr3, cr13, {0}
     8b4:	0b3b0b3a 	bleq	ec35a4 <__bss_end__+0xeb943c>
     8b8:	13490b39 	movtne	r0, #39737	; 0x9b39
     8bc:	00000b38 	andeq	r0, r0, r8, lsr fp
     8c0:	0b000f0e 	bleq	4500 <_start-0x3b00>
     8c4:	0f00000b 	svceq	0x0000000b
     8c8:	13490026 	movtne	r0, #36902	; 0x9026
     8cc:	13100000 	tstne	r0, #0
     8d0:	0b0e0301 	bleq	3814dc <__bss_end__+0x377374>
     8d4:	3b0b3a0b 	blcc	2cf108 <__bss_end__+0x2c4fa0>
     8d8:	010b390b 	tsteq	fp, fp, lsl #18
     8dc:	11000013 	tstne	r0, r3, lsl r0
     8e0:	0803000d 	stmdaeq	r3, {r0, r2, r3}
     8e4:	0b3b0b3a 	bleq	ec35d4 <__bss_end__+0xeb946c>
     8e8:	13490b39 	movtne	r0, #39737	; 0x9b39
     8ec:	00000b38 	andeq	r0, r0, r8, lsr fp
     8f0:	03011312 	movweq	r1, #4882	; 0x1312
     8f4:	3a050b0e 	bcc	143534 <__bss_end__+0x1393cc>
     8f8:	390b3b0b 	stmdbcc	fp, {r0, r1, r3, r8, r9, fp, ip, sp}
     8fc:	0013010b 	andseq	r0, r3, fp, lsl #2
     900:	000d1300 	andeq	r1, sp, r0, lsl #6
     904:	0b3a0e03 	bleq	e84118 <__bss_end__+0xe79fb0>
     908:	0b390b3b 	bleq	e435fc <__bss_end__+0xe39494>
     90c:	05381349 	ldreq	r1, [r8, #-841]!	; 0xfffffcb7
     910:	15140000 	ldrne	r0, [r4, #-0]
     914:	00192700 	andseq	r2, r9, r0, lsl #14
     918:	01151500 	tsteq	r5, r0, lsl #10
     91c:	13491927 	movtne	r1, #39207	; 0x9927
     920:	00001301 	andeq	r1, r0, r1, lsl #6
     924:	49000516 	stmdbmi	r0, {r1, r2, r4, r8, sl}
     928:	17000013 	smladne	r0, r3, r0, r0
     92c:	0e030113 	mcreq	1, 0, r0, cr3, cr3, {0}
     930:	0b3a050b 	bleq	e81d64 <__bss_end__+0xe77bfc>
     934:	0b39053b 	bleq	e41e28 <__bss_end__+0xe37cc0>
     938:	00001301 	andeq	r1, r0, r1, lsl #6
     93c:	03000d18 	movweq	r0, #3352	; 0xd18
     940:	3b0b3a0e 	blcc	2cf180 <__bss_end__+0x2c5018>
     944:	490b3905 	stmdbmi	fp, {r0, r2, r8, fp, ip, sp}
     948:	000b3813 	andeq	r3, fp, r3, lsl r8
     94c:	000d1900 	andeq	r1, sp, r0, lsl #18
     950:	0b3a0e03 	bleq	e84164 <__bss_end__+0xe79ffc>
     954:	0b39053b 	bleq	e41e48 <__bss_end__+0xe37ce0>
     958:	05381349 	ldreq	r1, [r8, #-841]!	; 0xfffffcb7
     95c:	131a0000 	tstne	sl, #0
     960:	0b0e0301 	bleq	38156c <__bss_end__+0x377404>
     964:	3b0b3a0b 	blcc	2cf198 <__bss_end__+0x2c5030>
     968:	010b3905 	tsteq	fp, r5, lsl #18
     96c:	1b000013 	blne	9c0 <_start-0x7640>
     970:	0b0b0113 	bleq	2c0dc4 <__bss_end__+0x2b6c5c>
     974:	053b0b3a 	ldreq	r0, [fp, #-2874]!	; 0xfffff4c6
     978:	13010b39 	movwne	r0, #6969	; 0x1b39
     97c:	171c0000 	ldrne	r0, [ip, -r0]
     980:	3a0b0b01 	bcc	2c358c <__bss_end__+0x2b9424>
     984:	39053b0b 	stmdbcc	r5, {r0, r1, r3, r8, r9, fp, ip, sp}
     988:	0013010b 	andseq	r0, r3, fp, lsl #2
     98c:	000d1d00 	andeq	r1, sp, r0, lsl #26
     990:	0b3a0e03 	bleq	e841a4 <__bss_end__+0xe7a03c>
     994:	0b39053b 	bleq	e41e88 <__bss_end__+0xe37d20>
     998:	00001349 	andeq	r1, r0, r9, asr #6
     99c:	2701151e 	smladcs	r1, lr, r5, r1
     9a0:	00130119 	andseq	r0, r3, r9, lsl r1
     9a4:	00341f00 	eorseq	r1, r4, r0, lsl #30
     9a8:	0b3a0e03 	bleq	e841bc <__bss_end__+0xe7a054>
     9ac:	0b39053b 	bleq	e41ea0 <__bss_end__+0xe37d38>
     9b0:	193f1349 	ldmdbne	pc!, {r0, r3, r6, r8, r9, ip}	; <UNPREDICTABLE>
     9b4:	0000193c 	andeq	r1, r0, ip, lsr r9
     9b8:	3f012e20 	svccc	0x00012e20
     9bc:	3a0e0319 	bcc	381628 <__bss_end__+0x3774c0>
     9c0:	390b3b0b 	stmdbcc	fp, {r0, r1, r3, r8, r9, fp, ip, sp}
     9c4:	4919270b 	ldmdbmi	r9, {r0, r1, r3, r8, r9, sl, sp}
     9c8:	12011113 	andne	r1, r1, #-1073741820	; 0xc0000004
     9cc:	97184006 	ldrls	r4, [r8, -r6]
     9d0:	00001942 	andeq	r1, r0, r2, asr #18
     9d4:	03000521 	movweq	r0, #1313	; 0x521
     9d8:	3b0b3a08 	blcc	2cf200 <__bss_end__+0x2c5098>
     9dc:	490b390b 	stmdbmi	fp, {r0, r1, r3, r8, fp, ip, sp}
     9e0:	00180213 	andseq	r0, r8, r3, lsl r2
     9e4:	00052200 	andeq	r2, r5, r0, lsl #4
     9e8:	0b3a0803 	bleq	e829fc <__bss_end__+0xe78894>
     9ec:	0b390b3b 	bleq	e436e0 <__bss_end__+0xe39578>
     9f0:	17021349 	strne	r1, [r2, -r9, asr #6]
     9f4:	001742b7 			; <UNDEFINED> instruction: 0x001742b7
     9f8:	00342300 	eorseq	r2, r4, r0, lsl #6
     9fc:	0b3a0803 	bleq	e82a10 <__bss_end__+0xe788a8>
     a00:	0b390b3b 	bleq	e436f4 <__bss_end__+0xe3958c>
     a04:	17021349 	strne	r1, [r2, -r9, asr #6]
     a08:	001742b7 			; <UNDEFINED> instruction: 0x001742b7
     a0c:	11010000 	mrsne	r0, (UNDEF: 1)
     a10:	130e2501 	movwne	r2, #58625	; 0xe501
     a14:	1b0e030b 	blne	381648 <__bss_end__+0x3774e0>
     a18:	1201110e 	andne	r1, r1, #-2147483645	; 0x80000003
     a1c:	00171006 	andseq	r1, r7, r6
     a20:	00160200 	andseq	r0, r6, r0, lsl #4
     a24:	0b3a0e03 	bleq	e84238 <__bss_end__+0xe7a0d0>
     a28:	0b390b3b 	bleq	e4371c <__bss_end__+0xe395b4>
     a2c:	00001349 	andeq	r1, r0, r9, asr #6
     a30:	03011303 	movweq	r1, #4867	; 0x1303
     a34:	3a0b0b0e 	bcc	2c3674 <__bss_end__+0x2b950c>
     a38:	010b3b0b 	tsteq	fp, fp, lsl #22
     a3c:	04000013 	streq	r0, [r0], #-19	; 0xffffffed
     a40:	0e03000d 	cdpeq	0, 0, cr0, cr3, cr13, {0}
     a44:	0b381349 	bleq	e05770 <__bss_end__+0xdfb608>
     a48:	00001934 	andeq	r1, r0, r4, lsr r9
     a4c:	0b000f05 	bleq	4668 <_start-0x3998>
     a50:	0600000b 	streq	r0, [r0], -fp
     a54:	0b0b0024 	bleq	2c0aec <__bss_end__+0x2b6984>
     a58:	08030b3e 	stmdaeq	r3, {r1, r2, r3, r4, r5, r8, r9, fp}
     a5c:	24070000 	strcs	r0, [r7], #-0
     a60:	3e0b0b00 	vmlacc.f64	d0, d11, d0
     a64:	000e030b 	andeq	r0, lr, fp, lsl #6
     a68:	000f0800 	andeq	r0, pc, r0, lsl #16
     a6c:	13490b0b 	movtne	r0, #39691	; 0x9b0b
     a70:	13090000 	movwne	r0, #36864	; 0x9000
     a74:	3c0e0300 	stccc	3, cr0, [lr], {-0}
     a78:	0a000019 	beq	ae4 <_start-0x751c>
     a7c:	0e030016 	mcreq	0, 0, r0, cr3, cr6, {0}
     a80:	053b0b3a 	ldreq	r0, [fp, #-2874]!	; 0xfffff4c6
     a84:	13490b39 	movtne	r0, #39737	; 0x9b39
     a88:	170b0000 	strne	r0, [fp, -r0]
     a8c:	3a0b0b01 	bcc	2c3698 <__bss_end__+0x2b9530>
     a90:	390b3b0b 	stmdbcc	fp, {r0, r1, r3, r8, r9, fp, ip, sp}
     a94:	0013010b 	andseq	r0, r3, fp, lsl #2
     a98:	000d0c00 	andeq	r0, sp, r0, lsl #24
     a9c:	0b3a0e03 	bleq	e842b0 <__bss_end__+0xe7a148>
     aa0:	0b390b3b 	bleq	e43794 <__bss_end__+0xe3962c>
     aa4:	00001349 	andeq	r1, r0, r9, asr #6
     aa8:	4901010d 	stmdbmi	r1, {r0, r2, r3, r8}
     aac:	00130113 	andseq	r0, r3, r3, lsl r1
     ab0:	00210e00 	eoreq	r0, r1, r0, lsl #28
     ab4:	0b2f1349 	bleq	bc57e0 <__bss_end__+0xbbb678>
     ab8:	130f0000 	movwne	r0, #61440	; 0xf000
     abc:	3a0b0b01 	bcc	2c36c8 <__bss_end__+0x2b9560>
     ac0:	390b3b0b 	stmdbcc	fp, {r0, r1, r3, r8, r9, fp, ip, sp}
     ac4:	0013010b 	andseq	r0, r3, fp, lsl #2
     ac8:	000d1000 	andeq	r1, sp, r0
     acc:	0b3a0e03 	bleq	e842e0 <__bss_end__+0xe7a178>
     ad0:	0b390b3b 	bleq	e437c4 <__bss_end__+0xe3965c>
     ad4:	0b381349 	bleq	e05800 <__bss_end__+0xdfb698>
     ad8:	26110000 	ldrcs	r0, [r1], -r0
     adc:	00134900 	andseq	r4, r3, r0, lsl #18
     ae0:	01131200 	tsteq	r3, r0, lsl #4
     ae4:	0b0b0e03 	bleq	2c42f8 <__bss_end__+0x2ba190>
     ae8:	0b3b0b3a 	bleq	ec37d8 <__bss_end__+0xeb9670>
     aec:	13010b39 	movwne	r0, #6969	; 0x1b39
     af0:	0d130000 	ldceq	0, cr0, [r3, #-0]
     af4:	3a080300 	bcc	2016fc <__bss_end__+0x1f7594>
     af8:	390b3b0b 	stmdbcc	fp, {r0, r1, r3, r8, r9, fp, ip, sp}
     afc:	3813490b 	ldmdacc	r3, {r0, r1, r3, r8, fp, lr}
     b00:	1400000b 	strne	r0, [r0], #-11
     b04:	0e030113 	mcreq	1, 0, r0, cr3, cr3, {0}
     b08:	0b3a050b 	bleq	e81f3c <__bss_end__+0xe77dd4>
     b0c:	0b390b3b 	bleq	e43800 <__bss_end__+0xe39698>
     b10:	00001301 	andeq	r1, r0, r1, lsl #6
     b14:	03000d15 	movweq	r0, #3349	; 0xd15
     b18:	3b0b3a0e 	blcc	2cf358 <__bss_end__+0x2c51f0>
     b1c:	490b390b 	stmdbmi	fp, {r0, r1, r3, r8, fp, ip, sp}
     b20:	00053813 	andeq	r3, r5, r3, lsl r8
     b24:	00151600 	andseq	r1, r5, r0, lsl #12
     b28:	00001927 	andeq	r1, r0, r7, lsr #18
     b2c:	27011517 	smladcs	r1, r7, r5, r1
     b30:	01134919 	tsteq	r3, r9, lsl r9
     b34:	18000013 	stmdane	r0, {r0, r1, r4}
     b38:	13490005 	movtne	r0, #36869	; 0x9005
     b3c:	13190000 	tstne	r9, #0
     b40:	0b0e0301 	bleq	38174c <__bss_end__+0x3775e4>
     b44:	3b0b3a05 	blcc	2cf360 <__bss_end__+0x2c51f8>
     b48:	010b3905 	tsteq	fp, r5, lsl #18
     b4c:	1a000013 	bne	ba0 <_start-0x7460>
     b50:	0e03000d 	cdpeq	0, 0, cr0, cr3, cr13, {0}
     b54:	053b0b3a 	ldreq	r0, [fp, #-2874]!	; 0xfffff4c6
     b58:	13490b39 	movtne	r0, #39737	; 0x9b39
     b5c:	00000b38 	andeq	r0, r0, r8, lsr fp
     b60:	03000d1b 	movweq	r0, #3355	; 0xd1b
     b64:	3b0b3a0e 	blcc	2cf3a4 <__bss_end__+0x2c523c>
     b68:	490b3905 	stmdbmi	fp, {r0, r2, r8, fp, ip, sp}
     b6c:	00053813 	andeq	r3, r5, r3, lsl r8
     b70:	01131c00 	tsteq	r3, r0, lsl #24
     b74:	0b0b0e03 	bleq	2c4388 <__bss_end__+0x2ba220>
     b78:	053b0b3a 	ldreq	r0, [fp, #-2874]!	; 0xfffff4c6
     b7c:	13010b39 	movwne	r0, #6969	; 0x1b39
     b80:	131d0000 	tstne	sp, #0
     b84:	3a0b0b01 	bcc	2c3790 <__bss_end__+0x2b9628>
     b88:	39053b0b 	stmdbcc	r5, {r0, r1, r3, r8, r9, fp, ip, sp}
     b8c:	0013010b 	andseq	r0, r3, fp, lsl #2
     b90:	01171e00 	tsteq	r7, r0, lsl #28
     b94:	0b3a0b0b 	bleq	e837c8 <__bss_end__+0xe79660>
     b98:	0b39053b 	bleq	e4208c <__bss_end__+0xe37f24>
     b9c:	00001301 	andeq	r1, r0, r1, lsl #6
     ba0:	03000d1f 	movweq	r0, #3359	; 0xd1f
     ba4:	3b0b3a0e 	blcc	2cf3e4 <__bss_end__+0x2c527c>
     ba8:	490b3905 	stmdbmi	fp, {r0, r2, r8, fp, ip, sp}
     bac:	20000013 	andcs	r0, r0, r3, lsl r0
     bb0:	19270115 	stmdbne	r7!, {r0, r2, r4, r8}
     bb4:	00001301 	andeq	r1, r0, r1, lsl #6
     bb8:	03003421 	movweq	r3, #1057	; 0x421
     bbc:	3b0b3a0e 	blcc	2cf3fc <__bss_end__+0x2c5294>
     bc0:	490b3905 	stmdbmi	fp, {r0, r2, r8, fp, ip, sp}
     bc4:	3c193f13 	ldccc	15, cr3, [r9], {19}
     bc8:	22000019 	andcs	r0, r0, #25
     bcc:	0e030034 	mcreq	0, 0, r0, cr3, cr4, {1}
     bd0:	0b3b0b3a 	bleq	ec38c0 <__bss_end__+0xeb9758>
     bd4:	13490b39 	movtne	r0, #39737	; 0x9b39
     bd8:	193c193f 	ldmdbne	ip!, {r0, r1, r2, r3, r4, r5, r8, fp, ip}
     bdc:	2e230000 	cdpcs	0, 2, cr0, cr3, cr0, {0}
     be0:	03193f01 	tsteq	r9, #1, 30
     be4:	3b0b3a0e 	blcc	2cf424 <__bss_end__+0x2c52bc>
     be8:	270b390b 	strcs	r3, [fp, -fp, lsl #18]
     bec:	11134919 	tstne	r3, r9, lsl r9
     bf0:	40061201 	andmi	r1, r6, r1, lsl #4
     bf4:	19429718 	stmdbne	r2, {r3, r4, r8, r9, sl, ip, pc}^
     bf8:	00001301 	andeq	r1, r0, r1, lsl #6
     bfc:	03000524 	movweq	r0, #1316	; 0x524
     c00:	3b0b3a08 	blcc	2cf428 <__bss_end__+0x2c52c0>
     c04:	490b390b 	stmdbmi	fp, {r0, r1, r3, r8, fp, ip, sp}
     c08:	00180213 	andseq	r0, r8, r3, lsl r2
     c0c:	00182500 	andseq	r2, r8, r0, lsl #10
     c10:	34260000 	strtcc	r0, [r6], #-0
     c14:	3a080300 	bcc	20181c <__bss_end__+0x1f76b4>
     c18:	390b3b0b 	stmdbcc	fp, {r0, r1, r3, r8, r9, fp, ip, sp}
     c1c:	0213490b 	andseq	r4, r3, #180224	; 0x2c000
     c20:	27000018 	smladcs	r0, r8, r0, r0
     c24:	0e030034 	mcreq	0, 0, r0, cr3, cr4, {1}
     c28:	0b3b0b3a 	bleq	ec3918 <__bss_end__+0xeb97b0>
     c2c:	13490b39 	movtne	r0, #39737	; 0x9b39
     c30:	00001802 	andeq	r1, r0, r2, lsl #16
     c34:	03003428 	movweq	r3, #1064	; 0x428
     c38:	3b0b3a08 	blcc	2cf460 <__bss_end__+0x2c52f8>
     c3c:	490b390b 	stmdbmi	fp, {r0, r1, r3, r8, fp, ip, sp}
     c40:	b7170213 			; <UNDEFINED> instruction: 0xb7170213
     c44:	00001742 	andeq	r1, r0, r2, asr #14
     c48:	01828929 	orreq	r8, r2, r9, lsr #18
     c4c:	31011101 	tstcc	r1, r1, lsl #2
     c50:	00130113 	andseq	r0, r3, r3, lsl r1
     c54:	828a2a00 	addhi	r2, sl, #0, 20
     c58:	18020001 	stmdane	r2, {r0}
     c5c:	00184291 	mulseq	r8, r1, r2
     c60:	82892b00 	addhi	r2, r9, #0, 22
     c64:	01110101 	tsteq	r1, r1, lsl #2
     c68:	212c0000 			; <UNDEFINED> instruction: 0x212c0000
     c6c:	2f134900 	svccs	0x00134900
     c70:	2d000005 	stccs	0, cr0, [r0, #-20]	; 0xffffffec
     c74:	193f002e 	ldmdbne	pc!, {r1, r2, r3, r5}	; <UNPREDICTABLE>
     c78:	0e6e193c 			; <UNDEFINED> instruction: 0x0e6e193c
     c7c:	0b3a0e03 	bleq	e84490 <__bss_end__+0xe7a328>
     c80:	0b390b3b 	bleq	e43974 <__bss_end__+0xe3980c>
     c84:	01000000 	mrseq	r0, (UNDEF: 0)
     c88:	0e250111 	mcreq	1, 1, r0, cr5, cr1, {0}
     c8c:	0e030b13 	vmoveq.32	d3[0], r0
     c90:	01110e1b 	tsteq	r1, fp, lsl lr
     c94:	17100612 			; <UNDEFINED> instruction: 0x17100612
     c98:	24020000 	strcs	r0, [r2], #-0
     c9c:	3e0b0b00 	vmlacc.f64	d0, d11, d0
     ca0:	0008030b 	andeq	r0, r8, fp, lsl #6
     ca4:	00240300 	eoreq	r0, r4, r0, lsl #6
     ca8:	0b3e0b0b 	bleq	f838dc <__bss_end__+0xf79774>
     cac:	00000e03 	andeq	r0, r0, r3, lsl #28
     cb0:	03001604 	movweq	r1, #1540	; 0x604
     cb4:	3b0b3a0e 	blcc	2cf4f4 <__bss_end__+0x2c538c>
     cb8:	490b390b 	stmdbmi	fp, {r0, r1, r3, r8, fp, ip, sp}
     cbc:	05000013 	streq	r0, [r0, #-19]	; 0xffffffed
     cc0:	0b0b000f 	bleq	2c0d04 <__bss_end__+0x2b6b9c>
     cc4:	00001349 	andeq	r1, r0, r9, asr #6
     cc8:	03001306 	movweq	r1, #774	; 0x306
     ccc:	00193c0e 	andseq	r3, r9, lr, lsl #24
     cd0:	00160700 	andseq	r0, r6, r0, lsl #14
     cd4:	0b3a0e03 	bleq	e844e8 <__bss_end__+0xe7a380>
     cd8:	0b39053b 	bleq	e421cc <__bss_end__+0xe38064>
     cdc:	00001349 	andeq	r1, r0, r9, asr #6
     ce0:	0b011708 	bleq	46908 <__bss_end__+0x3c7a0>
     ce4:	3b0b3a0b 	blcc	2cf518 <__bss_end__+0x2c53b0>
     ce8:	010b390b 	tsteq	fp, fp, lsl #18
     cec:	09000013 	stmdbeq	r0, {r0, r1, r4}
     cf0:	0e03000d 	cdpeq	0, 0, cr0, cr3, cr13, {0}
     cf4:	0b3b0b3a 	bleq	ec39e4 <__bss_end__+0xeb987c>
     cf8:	13490b39 	movtne	r0, #39737	; 0x9b39
     cfc:	010a0000 	mrseq	r0, (UNDEF: 10)
     d00:	01134901 	tsteq	r3, r1, lsl #18
     d04:	0b000013 	bleq	d58 <_start-0x72a8>
     d08:	13490021 	movtne	r0, #36897	; 0x9021
     d0c:	00000b2f 	andeq	r0, r0, pc, lsr #22
     d10:	0b01130c 	bleq	45948 <__bss_end__+0x3b7e0>
     d14:	3b0b3a0b 	blcc	2cf548 <__bss_end__+0x2c53e0>
     d18:	010b390b 	tsteq	fp, fp, lsl #18
     d1c:	0d000013 	stceq	0, cr0, [r0, #-76]	; 0xffffffb4
     d20:	0e03000d 	cdpeq	0, 0, cr0, cr3, cr13, {0}
     d24:	0b3b0b3a 	bleq	ec3a14 <__bss_end__+0xeb98ac>
     d28:	13490b39 	movtne	r0, #39737	; 0x9b39
     d2c:	00000b38 	andeq	r0, r0, r8, lsr fp
     d30:	0b000f0e 	bleq	4970 <_start-0x3690>
     d34:	0f00000b 	svceq	0x0000000b
     d38:	13490026 	movtne	r0, #36902	; 0x9026
     d3c:	13100000 	tstne	r0, #0
     d40:	0b0e0301 	bleq	38194c <__bss_end__+0x3777e4>
     d44:	3b0b3a0b 	blcc	2cf578 <__bss_end__+0x2c5410>
     d48:	010b390b 	tsteq	fp, fp, lsl #18
     d4c:	11000013 	tstne	r0, r3, lsl r0
     d50:	0803000d 	stmdaeq	r3, {r0, r2, r3}
     d54:	0b3b0b3a 	bleq	ec3a44 <__bss_end__+0xeb98dc>
     d58:	13490b39 	movtne	r0, #39737	; 0x9b39
     d5c:	00000b38 	andeq	r0, r0, r8, lsr fp
     d60:	03011312 	movweq	r1, #4882	; 0x1312
     d64:	3a050b0e 	bcc	1439a4 <__bss_end__+0x13983c>
     d68:	390b3b0b 	stmdbcc	fp, {r0, r1, r3, r8, r9, fp, ip, sp}
     d6c:	0013010b 	andseq	r0, r3, fp, lsl #2
     d70:	000d1300 	andeq	r1, sp, r0, lsl #6
     d74:	0b3a0e03 	bleq	e84588 <__bss_end__+0xe7a420>
     d78:	0b390b3b 	bleq	e43a6c <__bss_end__+0xe39904>
     d7c:	05381349 	ldreq	r1, [r8, #-841]!	; 0xfffffcb7
     d80:	15140000 	ldrne	r0, [r4, #-0]
     d84:	00192700 	andseq	r2, r9, r0, lsl #14
     d88:	01151500 	tsteq	r5, r0, lsl #10
     d8c:	13491927 	movtne	r1, #39207	; 0x9927
     d90:	00001301 	andeq	r1, r0, r1, lsl #6
     d94:	49000516 	stmdbmi	r0, {r1, r2, r4, r8, sl}
     d98:	17000013 	smladne	r0, r3, r0, r0
     d9c:	0e030113 	mcreq	1, 0, r0, cr3, cr3, {0}
     da0:	0b3a050b 	bleq	e821d4 <__bss_end__+0xe7806c>
     da4:	0b39053b 	bleq	e42298 <__bss_end__+0xe38130>
     da8:	00001301 	andeq	r1, r0, r1, lsl #6
     dac:	03000d18 	movweq	r0, #3352	; 0xd18
     db0:	3b0b3a0e 	blcc	2cf5f0 <__bss_end__+0x2c5488>
     db4:	490b3905 	stmdbmi	fp, {r0, r2, r8, fp, ip, sp}
     db8:	000b3813 	andeq	r3, fp, r3, lsl r8
     dbc:	000d1900 	andeq	r1, sp, r0, lsl #18
     dc0:	0b3a0e03 	bleq	e845d4 <__bss_end__+0xe7a46c>
     dc4:	0b39053b 	bleq	e422b8 <__bss_end__+0xe38150>
     dc8:	05381349 	ldreq	r1, [r8, #-841]!	; 0xfffffcb7
     dcc:	131a0000 	tstne	sl, #0
     dd0:	0b0e0301 	bleq	3819dc <__bss_end__+0x377874>
     dd4:	3b0b3a0b 	blcc	2cf608 <__bss_end__+0x2c54a0>
     dd8:	010b3905 	tsteq	fp, r5, lsl #18
     ddc:	1b000013 	blne	e30 <_start-0x71d0>
     de0:	0b0b0113 	bleq	2c1234 <__bss_end__+0x2b70cc>
     de4:	053b0b3a 	ldreq	r0, [fp, #-2874]!	; 0xfffff4c6
     de8:	13010b39 	movwne	r0, #6969	; 0x1b39
     dec:	171c0000 	ldrne	r0, [ip, -r0]
     df0:	3a0b0b01 	bcc	2c39fc <__bss_end__+0x2b9894>
     df4:	39053b0b 	stmdbcc	r5, {r0, r1, r3, r8, r9, fp, ip, sp}
     df8:	0013010b 	andseq	r0, r3, fp, lsl #2
     dfc:	000d1d00 	andeq	r1, sp, r0, lsl #26
     e00:	0b3a0e03 	bleq	e84614 <__bss_end__+0xe7a4ac>
     e04:	0b39053b 	bleq	e422f8 <__bss_end__+0xe38190>
     e08:	00001349 	andeq	r1, r0, r9, asr #6
     e0c:	2701151e 	smladcs	r1, lr, r5, r1
     e10:	00130119 	andseq	r0, r3, r9, lsl r1
     e14:	00341f00 	eorseq	r1, r4, r0, lsl #30
     e18:	0b3a0e03 	bleq	e8462c <__bss_end__+0xe7a4c4>
     e1c:	0b39053b 	bleq	e42310 <__bss_end__+0xe381a8>
     e20:	193f1349 	ldmdbne	pc!, {r0, r3, r6, r8, r9, ip}	; <UNPREDICTABLE>
     e24:	0000193c 	andeq	r1, r0, ip, lsr r9
     e28:	03003420 	movweq	r3, #1056	; 0x420
     e2c:	3b0b3a0e 	blcc	2cf66c <__bss_end__+0x2c5504>
     e30:	490b390b 	stmdbmi	fp, {r0, r1, r3, r8, fp, ip, sp}
     e34:	3c193f13 	ldccc	15, cr3, [r9], {19}
     e38:	21000019 	tstcs	r0, r9, lsl r0
     e3c:	13470034 	movtne	r0, #28724	; 0x7034
     e40:	0b3b0b3a 	bleq	ec3b30 <__bss_end__+0xeb99c8>
     e44:	18020b39 	stmdane	r2, {r0, r3, r4, r5, r8, r9, fp}
     e48:	2e220000 	cdpcs	0, 2, cr0, cr2, cr0, {0}
     e4c:	03193f01 	tsteq	r9, #1, 30
     e50:	3b0b3a0e 	blcc	2cf690 <__bss_end__+0x2c5528>
     e54:	270b390b 	strcs	r3, [fp, -fp, lsl #18]
     e58:	12011119 	andne	r1, r1, #1073741830	; 0x40000006
     e5c:	97184006 	ldrls	r4, [r8, -r6]
     e60:	13011942 	movwne	r1, #6466	; 0x1942
     e64:	05230000 	streq	r0, [r3, #-0]!
     e68:	3a080300 	bcc	201a70 <__bss_end__+0x1f7908>
     e6c:	390b3b0b 	stmdbcc	fp, {r0, r1, r3, r8, r9, fp, ip, sp}
     e70:	0213490b 	andseq	r4, r3, #180224	; 0x2c000
     e74:	24000018 	strcs	r0, [r0], #-24	; 0xffffffe8
     e78:	193f002e 	ldmdbne	pc!, {r1, r2, r3, r5}	; <UNPREDICTABLE>
     e7c:	0b3a0e03 	bleq	e84690 <__bss_end__+0xe7a528>
     e80:	0b390b3b 	bleq	e43b74 <__bss_end__+0xe39a0c>
     e84:	01111927 	tsteq	r1, r7, lsr #18
     e88:	18400612 	stmdane	r0, {r1, r4, r9, sl}^
     e8c:	00194297 	mulseq	r9, r7, r2
     e90:	012e2500 			; <UNDEFINED> instruction: 0x012e2500
     e94:	0b3a0e03 	bleq	e846a8 <__bss_end__+0xe7a540>
     e98:	0b390b3b 	bleq	e43b8c <__bss_end__+0xe39a24>
     e9c:	13491927 	movtne	r1, #39207	; 0x9927
     ea0:	06120111 			; <UNDEFINED> instruction: 0x06120111
     ea4:	42971840 	addsmi	r1, r7, #64, 16	; 0x400000
     ea8:	00130119 	andseq	r0, r3, r9, lsl r1
     eac:	00052600 	andeq	r2, r5, r0, lsl #12
     eb0:	0b3a0803 	bleq	e82ec4 <__bss_end__+0xe78d5c>
     eb4:	0b390b3b 	bleq	e43ba8 <__bss_end__+0xe39a40>
     eb8:	17021349 	strne	r1, [r2, -r9, asr #6]
     ebc:	001742b7 			; <UNDEFINED> instruction: 0x001742b7
     ec0:	82892700 	addhi	r2, r9, #0, 14
     ec4:	01110101 	tsteq	r1, r1, lsl #2
     ec8:	00001331 	andeq	r1, r0, r1, lsr r3
     ecc:	01828a28 	orreq	r8, r2, r8, lsr #20
     ed0:	91180200 	tstls	r8, r0, lsl #4
     ed4:	00001842 	andeq	r1, r0, r2, asr #16
     ed8:	3f002e29 	svccc	0x00002e29
     edc:	6e193c19 	mrcvs	12, 0, r3, cr9, cr9, {0}
     ee0:	3a0e030e 	bcc	381b20 <__bss_end__+0x3779b8>
     ee4:	390b3b0b 	stmdbcc	fp, {r0, r1, r3, r8, r9, fp, ip, sp}
     ee8:	0000000b 	andeq	r0, r0, fp
     eec:	25011101 	strcs	r1, [r1, #-257]	; 0xfffffeff
     ef0:	030b130e 	movweq	r1, #45838	; 0xb30e
     ef4:	110e1b0e 	tstne	lr, lr, lsl #22
     ef8:	10061201 	andne	r1, r6, r1, lsl #4
     efc:	02000017 	andeq	r0, r0, #23
     f00:	0b0b0024 	bleq	2c0f98 <__bss_end__+0x2b6e30>
     f04:	08030b3e 	stmdaeq	r3, {r1, r2, r3, r4, r5, r8, r9, fp}
     f08:	24030000 	strcs	r0, [r3], #-0
     f0c:	3e0b0b00 	vmlacc.f64	d0, d11, d0
     f10:	000e030b 	andeq	r0, lr, fp, lsl #6
     f14:	00160400 	andseq	r0, r6, r0, lsl #8
     f18:	0b3a0e03 	bleq	e8472c <__bss_end__+0xe7a5c4>
     f1c:	0b390b3b 	bleq	e43c10 <__bss_end__+0xe39aa8>
     f20:	00001349 	andeq	r1, r0, r9, asr #6
     f24:	0b000f05 	bleq	4b40 <_start-0x34c0>
     f28:	0013490b 	andseq	r4, r3, fp, lsl #18
     f2c:	00130600 	andseq	r0, r3, r0, lsl #12
     f30:	193c0e03 	ldmdbne	ip!, {r0, r1, r9, sl, fp}
     f34:	16070000 	strne	r0, [r7], -r0
     f38:	3a0e0300 	bcc	381b40 <__bss_end__+0x3779d8>
     f3c:	39053b0b 	stmdbcc	r5, {r0, r1, r3, r8, r9, fp, ip, sp}
     f40:	0013490b 	andseq	r4, r3, fp, lsl #18
     f44:	01170800 	tsteq	r7, r0, lsl #16
     f48:	0b3a0b0b 	bleq	e83b7c <__bss_end__+0xe79a14>
     f4c:	0b390b3b 	bleq	e43c40 <__bss_end__+0xe39ad8>
     f50:	00001301 	andeq	r1, r0, r1, lsl #6
     f54:	03000d09 	movweq	r0, #3337	; 0xd09
     f58:	3b0b3a0e 	blcc	2cf798 <__bss_end__+0x2c5630>
     f5c:	490b390b 	stmdbmi	fp, {r0, r1, r3, r8, fp, ip, sp}
     f60:	0a000013 	beq	fb4 <_start-0x704c>
     f64:	13490101 	movtne	r0, #37121	; 0x9101
     f68:	00001301 	andeq	r1, r0, r1, lsl #6
     f6c:	4900210b 	stmdbmi	r0, {r0, r1, r3, r8, sp}
     f70:	000b2f13 	andeq	r2, fp, r3, lsl pc
     f74:	01130c00 	tsteq	r3, r0, lsl #24
     f78:	0b3a0b0b 	bleq	e83bac <__bss_end__+0xe79a44>
     f7c:	0b390b3b 	bleq	e43c70 <__bss_end__+0xe39b08>
     f80:	00001301 	andeq	r1, r0, r1, lsl #6
     f84:	03000d0d 	movweq	r0, #3341	; 0xd0d
     f88:	3b0b3a0e 	blcc	2cf7c8 <__bss_end__+0x2c5660>
     f8c:	490b390b 	stmdbmi	fp, {r0, r1, r3, r8, fp, ip, sp}
     f90:	000b3813 	andeq	r3, fp, r3, lsl r8
     f94:	000f0e00 	andeq	r0, pc, r0, lsl #28
     f98:	00000b0b 	andeq	r0, r0, fp, lsl #22
     f9c:	4900260f 	stmdbmi	r0, {r0, r1, r2, r3, r9, sl, sp}
     fa0:	10000013 	andne	r0, r0, r3, lsl r0
     fa4:	0e030113 	mcreq	1, 0, r0, cr3, cr3, {0}
     fa8:	0b3a0b0b 	bleq	e83bdc <__bss_end__+0xe79a74>
     fac:	0b390b3b 	bleq	e43ca0 <__bss_end__+0xe39b38>
     fb0:	00001301 	andeq	r1, r0, r1, lsl #6
     fb4:	03000d11 	movweq	r0, #3345	; 0xd11
     fb8:	3b0b3a08 	blcc	2cf7e0 <__bss_end__+0x2c5678>
     fbc:	490b390b 	stmdbmi	fp, {r0, r1, r3, r8, fp, ip, sp}
     fc0:	000b3813 	andeq	r3, fp, r3, lsl r8
     fc4:	01131200 	tsteq	r3, r0, lsl #4
     fc8:	050b0e03 	streq	r0, [fp, #-3587]	; 0xfffff1fd
     fcc:	0b3b0b3a 	bleq	ec3cbc <__bss_end__+0xeb9b54>
     fd0:	13010b39 	movwne	r0, #6969	; 0x1b39
     fd4:	0d130000 	ldceq	0, cr0, [r3, #-0]
     fd8:	3a0e0300 	bcc	381be0 <__bss_end__+0x377a78>
     fdc:	390b3b0b 	stmdbcc	fp, {r0, r1, r3, r8, r9, fp, ip, sp}
     fe0:	3813490b 	ldmdacc	r3, {r0, r1, r3, r8, fp, lr}
     fe4:	14000005 	strne	r0, [r0], #-5
     fe8:	19270015 	stmdbne	r7!, {r0, r2, r4}
     fec:	15150000 	ldrne	r0, [r5, #-0]
     ff0:	49192701 	ldmdbmi	r9, {r0, r8, r9, sl, sp}
     ff4:	00130113 	andseq	r0, r3, r3, lsl r1
     ff8:	00051600 	andeq	r1, r5, r0, lsl #12
     ffc:	00001349 	andeq	r1, r0, r9, asr #6
    1000:	03011317 	movweq	r1, #4887	; 0x1317
    1004:	3a050b0e 	bcc	143c44 <__bss_end__+0x139adc>
    1008:	39053b0b 	stmdbcc	r5, {r0, r1, r3, r8, r9, fp, ip, sp}
    100c:	0013010b 	andseq	r0, r3, fp, lsl #2
    1010:	000d1800 	andeq	r1, sp, r0, lsl #16
    1014:	0b3a0e03 	bleq	e84828 <__bss_end__+0xe7a6c0>
    1018:	0b39053b 	bleq	e4250c <__bss_end__+0xe383a4>
    101c:	0b381349 	bleq	e05d48 <__bss_end__+0xdfbbe0>
    1020:	0d190000 	ldceq	0, cr0, [r9, #-0]
    1024:	3a0e0300 	bcc	381c2c <__bss_end__+0x377ac4>
    1028:	39053b0b 	stmdbcc	r5, {r0, r1, r3, r8, r9, fp, ip, sp}
    102c:	3813490b 	ldmdacc	r3, {r0, r1, r3, r8, fp, lr}
    1030:	1a000005 	bne	104c <_start-0x6fb4>
    1034:	0e030113 	mcreq	1, 0, r0, cr3, cr3, {0}
    1038:	0b3a0b0b 	bleq	e83c6c <__bss_end__+0xe79b04>
    103c:	0b39053b 	bleq	e42530 <__bss_end__+0xe383c8>
    1040:	00001301 	andeq	r1, r0, r1, lsl #6
    1044:	0b01131b 	bleq	45cb8 <__bss_end__+0x3bb50>
    1048:	3b0b3a0b 	blcc	2cf87c <__bss_end__+0x2c5714>
    104c:	010b3905 	tsteq	fp, r5, lsl #18
    1050:	1c000013 	stcne	0, cr0, [r0], {19}
    1054:	0b0b0117 	bleq	2c14b8 <__bss_end__+0x2b7350>
    1058:	053b0b3a 	ldreq	r0, [fp, #-2874]!	; 0xfffff4c6
    105c:	13010b39 	movwne	r0, #6969	; 0x1b39
    1060:	0d1d0000 	ldceq	0, cr0, [sp, #-0]
    1064:	3a0e0300 	bcc	381c6c <__bss_end__+0x377b04>
    1068:	39053b0b 	stmdbcc	r5, {r0, r1, r3, r8, r9, fp, ip, sp}
    106c:	0013490b 	andseq	r4, r3, fp, lsl #18
    1070:	01151e00 	tsteq	r5, r0, lsl #28
    1074:	13011927 	movwne	r1, #6439	; 0x1927
    1078:	341f0000 	ldrcc	r0, [pc], #-0	; 1080 <_start-0x6f80>
    107c:	3a0e0300 	bcc	381c84 <__bss_end__+0x377b1c>
    1080:	39053b0b 	stmdbcc	r5, {r0, r1, r3, r8, r9, fp, ip, sp}
    1084:	3f13490b 	svccc	0x0013490b
    1088:	00193c19 	andseq	r3, r9, r9, lsl ip
    108c:	00342000 	eorseq	r2, r4, r0
    1090:	0b3a0e03 	bleq	e848a4 <__bss_end__+0xe7a73c>
    1094:	0b390b3b 	bleq	e43d88 <__bss_end__+0xe39c20>
    1098:	193f1349 	ldmdbne	pc!, {r0, r3, r6, r8, r9, ip}	; <UNPREDICTABLE>
    109c:	0000193c 	andeq	r1, r0, ip, lsr r9
    10a0:	47003421 	strmi	r3, [r0, -r1, lsr #8]
    10a4:	3b0b3a13 	blcc	2cf8f8 <__bss_end__+0x2c5790>
    10a8:	020b390b 	andeq	r3, fp, #180224	; 0x2c000
    10ac:	22000018 	andcs	r0, r0, #24
    10b0:	193f012e 	ldmdbne	pc!, {r1, r2, r3, r5, r8}	; <UNPREDICTABLE>
    10b4:	0b3a0e03 	bleq	e848c8 <__bss_end__+0xe7a760>
    10b8:	0b390b3b 	bleq	e43dac <__bss_end__+0xe39c44>
    10bc:	13491927 	movtne	r1, #39207	; 0x9927
    10c0:	06120111 			; <UNDEFINED> instruction: 0x06120111
    10c4:	42961840 	addsmi	r1, r6, #64, 16	; 0x400000
    10c8:	23000019 	movwcs	r0, #25
    10cc:	08030005 	stmdaeq	r3, {r0, r2}
    10d0:	0b3b0b3a 	bleq	ec3dc0 <__bss_end__+0xeb9c58>
    10d4:	13490b39 	movtne	r0, #39737	; 0x9b39
    10d8:	42b71702 	adcsmi	r1, r7, #524288	; 0x80000
    10dc:	00000017 	andeq	r0, r0, r7, lsl r0
    10e0:	25011101 	strcs	r1, [r1, #-257]	; 0xfffffeff
    10e4:	030b130e 	movweq	r1, #45838	; 0xb30e
    10e8:	110e1b0e 	tstne	lr, lr, lsl #22
    10ec:	10061201 	andne	r1, r6, r1, lsl #4
    10f0:	02000017 	andeq	r0, r0, #23
    10f4:	0b0b0024 	bleq	2c118c <__bss_end__+0x2b7024>
    10f8:	08030b3e 	stmdaeq	r3, {r1, r2, r3, r4, r5, r8, r9, fp}
    10fc:	24030000 	strcs	r0, [r3], #-0
    1100:	3e0b0b00 	vmlacc.f64	d0, d11, d0
    1104:	000e030b 	andeq	r0, lr, fp, lsl #6
    1108:	00160400 	andseq	r0, r6, r0, lsl #8
    110c:	0b3a0e03 	bleq	e84920 <__bss_end__+0xe7a7b8>
    1110:	0b390b3b 	bleq	e43e04 <__bss_end__+0xe39c9c>
    1114:	00001349 	andeq	r1, r0, r9, asr #6
    1118:	0b000f05 	bleq	4d34 <_start-0x32cc>
    111c:	0013490b 	andseq	r4, r3, fp, lsl #18
    1120:	00130600 	andseq	r0, r3, r0, lsl #12
    1124:	193c0e03 	ldmdbne	ip!, {r0, r1, r9, sl, fp}
    1128:	16070000 	strne	r0, [r7], -r0
    112c:	3a0e0300 	bcc	381d34 <__bss_end__+0x377bcc>
    1130:	39053b0b 	stmdbcc	r5, {r0, r1, r3, r8, r9, fp, ip, sp}
    1134:	0013490b 	andseq	r4, r3, fp, lsl #18
    1138:	01170800 	tsteq	r7, r0, lsl #16
    113c:	0b3a0b0b 	bleq	e83d70 <__bss_end__+0xe79c08>
    1140:	0b390b3b 	bleq	e43e34 <__bss_end__+0xe39ccc>
    1144:	00001301 	andeq	r1, r0, r1, lsl #6
    1148:	03000d09 	movweq	r0, #3337	; 0xd09
    114c:	3b0b3a0e 	blcc	2cf98c <__bss_end__+0x2c5824>
    1150:	490b390b 	stmdbmi	fp, {r0, r1, r3, r8, fp, ip, sp}
    1154:	0a000013 	beq	11a8 <_start-0x6e58>
    1158:	13490101 	movtne	r0, #37121	; 0x9101
    115c:	00001301 	andeq	r1, r0, r1, lsl #6
    1160:	4900210b 	stmdbmi	r0, {r0, r1, r3, r8, sp}
    1164:	000b2f13 	andeq	r2, fp, r3, lsl pc
    1168:	01130c00 	tsteq	r3, r0, lsl #24
    116c:	0b3a0b0b 	bleq	e83da0 <__bss_end__+0xe79c38>
    1170:	0b390b3b 	bleq	e43e64 <__bss_end__+0xe39cfc>
    1174:	00001301 	andeq	r1, r0, r1, lsl #6
    1178:	03000d0d 	movweq	r0, #3341	; 0xd0d
    117c:	3b0b3a0e 	blcc	2cf9bc <__bss_end__+0x2c5854>
    1180:	490b390b 	stmdbmi	fp, {r0, r1, r3, r8, fp, ip, sp}
    1184:	000b3813 	andeq	r3, fp, r3, lsl r8
    1188:	000f0e00 	andeq	r0, pc, r0, lsl #28
    118c:	00000b0b 	andeq	r0, r0, fp, lsl #22
    1190:	4900260f 	stmdbmi	r0, {r0, r1, r2, r3, r9, sl, sp}
    1194:	10000013 	andne	r0, r0, r3, lsl r0
    1198:	0e030113 	mcreq	1, 0, r0, cr3, cr3, {0}
    119c:	0b3a0b0b 	bleq	e83dd0 <__bss_end__+0xe79c68>
    11a0:	0b390b3b 	bleq	e43e94 <__bss_end__+0xe39d2c>
    11a4:	00001301 	andeq	r1, r0, r1, lsl #6
    11a8:	03000d11 	movweq	r0, #3345	; 0xd11
    11ac:	3b0b3a08 	blcc	2cf9d4 <__bss_end__+0x2c586c>
    11b0:	490b390b 	stmdbmi	fp, {r0, r1, r3, r8, fp, ip, sp}
    11b4:	000b3813 	andeq	r3, fp, r3, lsl r8
    11b8:	01131200 	tsteq	r3, r0, lsl #4
    11bc:	050b0e03 	streq	r0, [fp, #-3587]	; 0xfffff1fd
    11c0:	0b3b0b3a 	bleq	ec3eb0 <__bss_end__+0xeb9d48>
    11c4:	13010b39 	movwne	r0, #6969	; 0x1b39
    11c8:	0d130000 	ldceq	0, cr0, [r3, #-0]
    11cc:	3a0e0300 	bcc	381dd4 <__bss_end__+0x377c6c>
    11d0:	390b3b0b 	stmdbcc	fp, {r0, r1, r3, r8, r9, fp, ip, sp}
    11d4:	3813490b 	ldmdacc	r3, {r0, r1, r3, r8, fp, lr}
    11d8:	14000005 	strne	r0, [r0], #-5
    11dc:	19270015 	stmdbne	r7!, {r0, r2, r4}
    11e0:	15150000 	ldrne	r0, [r5, #-0]
    11e4:	49192701 	ldmdbmi	r9, {r0, r8, r9, sl, sp}
    11e8:	00130113 	andseq	r0, r3, r3, lsl r1
    11ec:	00051600 	andeq	r1, r5, r0, lsl #12
    11f0:	00001349 	andeq	r1, r0, r9, asr #6
    11f4:	03011317 	movweq	r1, #4887	; 0x1317
    11f8:	3a050b0e 	bcc	143e38 <__bss_end__+0x139cd0>
    11fc:	39053b0b 	stmdbcc	r5, {r0, r1, r3, r8, r9, fp, ip, sp}
    1200:	0013010b 	andseq	r0, r3, fp, lsl #2
    1204:	000d1800 	andeq	r1, sp, r0, lsl #16
    1208:	0b3a0e03 	bleq	e84a1c <__bss_end__+0xe7a8b4>
    120c:	0b39053b 	bleq	e42700 <__bss_end__+0xe38598>
    1210:	0b381349 	bleq	e05f3c <__bss_end__+0xdfbdd4>
    1214:	0d190000 	ldceq	0, cr0, [r9, #-0]
    1218:	3a0e0300 	bcc	381e20 <__bss_end__+0x377cb8>
    121c:	39053b0b 	stmdbcc	r5, {r0, r1, r3, r8, r9, fp, ip, sp}
    1220:	3813490b 	ldmdacc	r3, {r0, r1, r3, r8, fp, lr}
    1224:	1a000005 	bne	1240 <_start-0x6dc0>
    1228:	0e030113 	mcreq	1, 0, r0, cr3, cr3, {0}
    122c:	0b3a0b0b 	bleq	e83e60 <__bss_end__+0xe79cf8>
    1230:	0b39053b 	bleq	e42724 <__bss_end__+0xe385bc>
    1234:	00001301 	andeq	r1, r0, r1, lsl #6
    1238:	0b01131b 	bleq	45eac <__bss_end__+0x3bd44>
    123c:	3b0b3a0b 	blcc	2cfa70 <__bss_end__+0x2c5908>
    1240:	010b3905 	tsteq	fp, r5, lsl #18
    1244:	1c000013 	stcne	0, cr0, [r0], {19}
    1248:	0b0b0117 	bleq	2c16ac <__bss_end__+0x2b7544>
    124c:	053b0b3a 	ldreq	r0, [fp, #-2874]!	; 0xfffff4c6
    1250:	13010b39 	movwne	r0, #6969	; 0x1b39
    1254:	0d1d0000 	ldceq	0, cr0, [sp, #-0]
    1258:	3a0e0300 	bcc	381e60 <__bss_end__+0x377cf8>
    125c:	39053b0b 	stmdbcc	r5, {r0, r1, r3, r8, r9, fp, ip, sp}
    1260:	0013490b 	andseq	r4, r3, fp, lsl #18
    1264:	01151e00 	tsteq	r5, r0, lsl #28
    1268:	13011927 	movwne	r1, #6439	; 0x1927
    126c:	341f0000 	ldrcc	r0, [pc], #-0	; 1274 <_start-0x6d8c>
    1270:	3a0e0300 	bcc	381e78 <__bss_end__+0x377d10>
    1274:	39053b0b 	stmdbcc	r5, {r0, r1, r3, r8, r9, fp, ip, sp}
    1278:	3f13490b 	svccc	0x0013490b
    127c:	00193c19 	andseq	r3, r9, r9, lsl ip
    1280:	00342000 	eorseq	r2, r4, r0
    1284:	0b3a0e03 	bleq	e84a98 <__bss_end__+0xe7a930>
    1288:	0b390b3b 	bleq	e43f7c <__bss_end__+0xe39e14>
    128c:	193f1349 	ldmdbne	pc!, {r0, r3, r6, r8, r9, ip}	; <UNPREDICTABLE>
    1290:	0000193c 	andeq	r1, r0, ip, lsr r9
    1294:	03003421 	movweq	r3, #1057	; 0x421
    1298:	3b0b3a0e 	blcc	2cfad8 <__bss_end__+0x2c5970>
    129c:	490b390b 	stmdbmi	fp, {r0, r1, r3, r8, fp, ip, sp}
    12a0:	00180213 	andseq	r0, r8, r3, lsl r2
    12a4:	00342200 	eorseq	r2, r4, r0, lsl #4
    12a8:	0b3a0803 	bleq	e832bc <__bss_end__+0xe79154>
    12ac:	0b390b3b 	bleq	e43fa0 <__bss_end__+0xe39e38>
    12b0:	00001349 	andeq	r1, r0, r9, asr #6
    12b4:	3f012e23 	svccc	0x00012e23
    12b8:	3a0e0319 	bcc	381f24 <__bss_end__+0x377dbc>
    12bc:	390b3b0b 	stmdbcc	fp, {r0, r1, r3, r8, r9, fp, ip, sp}
    12c0:	1119270b 	tstne	r9, fp, lsl #14
    12c4:	40061201 	andmi	r1, r6, r1, lsl #4
    12c8:	19429718 	stmdbne	r2, {r3, r4, r8, r9, sl, ip, pc}^
    12cc:	00001301 	andeq	r1, r0, r1, lsl #6
    12d0:	03000524 	movweq	r0, #1316	; 0x524
    12d4:	3b0b3a0e 	blcc	2cfb14 <__bss_end__+0x2c59ac>
    12d8:	490b390b 	stmdbmi	fp, {r0, r1, r3, r8, fp, ip, sp}
    12dc:	00180213 	andseq	r0, r8, r3, lsl r2
    12e0:	012e2500 			; <UNDEFINED> instruction: 0x012e2500
    12e4:	0e03193f 			; <UNDEFINED> instruction: 0x0e03193f
    12e8:	0b3b0b3a 	bleq	ec3fd8 <__bss_end__+0xeb9e70>
    12ec:	19270b39 	stmdbne	r7!, {r0, r3, r4, r5, r8, r9, fp}
    12f0:	01111349 	tsteq	r1, r9, asr #6
    12f4:	18400612 	stmdane	r0, {r1, r4, r9, sl}^
    12f8:	01194297 			; <UNDEFINED> instruction: 0x01194297
    12fc:	26000013 			; <UNDEFINED> instruction: 0x26000013
    1300:	00018289 	andeq	r8, r1, r9, lsl #5
    1304:	13310111 	teqne	r1, #1073741828	; 0x40000004
    1308:	2e270000 	cdpcs	0, 2, cr0, cr7, cr0, {0}
    130c:	03193f00 	tsteq	r9, #0, 30
    1310:	3b0b3a0e 	blcc	2cfb50 <__bss_end__+0x2c59e8>
    1314:	270b390b 	strcs	r3, [fp, -fp, lsl #18]
    1318:	11134919 	tstne	r3, r9, lsl r9
    131c:	40061201 	andmi	r1, r6, r1, lsl #4
    1320:	19429718 	stmdbne	r2, {r3, r4, r8, r9, sl, ip, pc}^
    1324:	01000000 	mrseq	r0, (UNDEF: 0)
    1328:	0e250111 	mcreq	1, 1, r0, cr5, cr1, {0}
    132c:	0e030b13 	vmoveq.32	d3[0], r0
    1330:	01110e1b 	tsteq	r1, fp, lsl lr
    1334:	17100612 			; <UNDEFINED> instruction: 0x17100612
    1338:	24020000 	strcs	r0, [r2], #-0
    133c:	3e0b0b00 	vmlacc.f64	d0, d11, d0
    1340:	0008030b 	andeq	r0, r8, fp, lsl #6
    1344:	00240300 	eoreq	r0, r4, r0, lsl #6
    1348:	0b3e0b0b 	bleq	f83f7c <__bss_end__+0xf79e14>
    134c:	00000e03 	andeq	r0, r0, r3, lsl #28
    1350:	03001604 	movweq	r1, #1540	; 0x604
    1354:	3b0b3a0e 	blcc	2cfb94 <__bss_end__+0x2c5a2c>
    1358:	490b390b 	stmdbmi	fp, {r0, r1, r3, r8, fp, ip, sp}
    135c:	05000013 	streq	r0, [r0, #-19]	; 0xffffffed
    1360:	0b0b000f 	bleq	2c13a4 <__bss_end__+0x2b723c>
    1364:	00001349 	andeq	r1, r0, r9, asr #6
    1368:	03001306 	movweq	r1, #774	; 0x306
    136c:	00193c0e 	andseq	r3, r9, lr, lsl #24
    1370:	00160700 	andseq	r0, r6, r0, lsl #14
    1374:	0b3a0e03 	bleq	e84b88 <__bss_end__+0xe7aa20>
    1378:	0b39053b 	bleq	e4286c <__bss_end__+0xe38704>
    137c:	00001349 	andeq	r1, r0, r9, asr #6
    1380:	0b011708 	bleq	46fa8 <__bss_end__+0x3ce40>
    1384:	3b0b3a0b 	blcc	2cfbb8 <__bss_end__+0x2c5a50>
    1388:	010b390b 	tsteq	fp, fp, lsl #18
    138c:	09000013 	stmdbeq	r0, {r0, r1, r4}
    1390:	0e03000d 	cdpeq	0, 0, cr0, cr3, cr13, {0}
    1394:	0b3b0b3a 	bleq	ec4084 <__bss_end__+0xeb9f1c>
    1398:	13490b39 	movtne	r0, #39737	; 0x9b39
    139c:	010a0000 	mrseq	r0, (UNDEF: 10)
    13a0:	01134901 	tsteq	r3, r1, lsl #18
    13a4:	0b000013 	bleq	13f8 <_start-0x6c08>
    13a8:	13490021 	movtne	r0, #36897	; 0x9021
    13ac:	00000b2f 	andeq	r0, r0, pc, lsr #22
    13b0:	0b01130c 	bleq	45fe8 <__bss_end__+0x3be80>
    13b4:	3b0b3a0b 	blcc	2cfbe8 <__bss_end__+0x2c5a80>
    13b8:	010b390b 	tsteq	fp, fp, lsl #18
    13bc:	0d000013 	stceq	0, cr0, [r0, #-76]	; 0xffffffb4
    13c0:	0e03000d 	cdpeq	0, 0, cr0, cr3, cr13, {0}
    13c4:	0b3b0b3a 	bleq	ec40b4 <__bss_end__+0xeb9f4c>
    13c8:	13490b39 	movtne	r0, #39737	; 0x9b39
    13cc:	00000b38 	andeq	r0, r0, r8, lsr fp
    13d0:	0b000f0e 	bleq	5010 <_start-0x2ff0>
    13d4:	0f00000b 	svceq	0x0000000b
    13d8:	13490026 	movtne	r0, #36902	; 0x9026
    13dc:	13100000 	tstne	r0, #0
    13e0:	0b0e0301 	bleq	381fec <__bss_end__+0x377e84>
    13e4:	3b0b3a0b 	blcc	2cfc18 <__bss_end__+0x2c5ab0>
    13e8:	010b390b 	tsteq	fp, fp, lsl #18
    13ec:	11000013 	tstne	r0, r3, lsl r0
    13f0:	0803000d 	stmdaeq	r3, {r0, r2, r3}
    13f4:	0b3b0b3a 	bleq	ec40e4 <__bss_end__+0xeb9f7c>
    13f8:	13490b39 	movtne	r0, #39737	; 0x9b39
    13fc:	00000b38 	andeq	r0, r0, r8, lsr fp
    1400:	03011312 	movweq	r1, #4882	; 0x1312
    1404:	3a050b0e 	bcc	144044 <__bss_end__+0x139edc>
    1408:	390b3b0b 	stmdbcc	fp, {r0, r1, r3, r8, r9, fp, ip, sp}
    140c:	0013010b 	andseq	r0, r3, fp, lsl #2
    1410:	000d1300 	andeq	r1, sp, r0, lsl #6
    1414:	0b3a0e03 	bleq	e84c28 <__bss_end__+0xe7aac0>
    1418:	0b390b3b 	bleq	e4410c <__bss_end__+0xe39fa4>
    141c:	05381349 	ldreq	r1, [r8, #-841]!	; 0xfffffcb7
    1420:	15140000 	ldrne	r0, [r4, #-0]
    1424:	00192700 	andseq	r2, r9, r0, lsl #14
    1428:	01151500 	tsteq	r5, r0, lsl #10
    142c:	13491927 	movtne	r1, #39207	; 0x9927
    1430:	00001301 	andeq	r1, r0, r1, lsl #6
    1434:	49000516 	stmdbmi	r0, {r1, r2, r4, r8, sl}
    1438:	17000013 	smladne	r0, r3, r0, r0
    143c:	0e030113 	mcreq	1, 0, r0, cr3, cr3, {0}
    1440:	0b3a050b 	bleq	e82874 <__bss_end__+0xe7870c>
    1444:	0b39053b 	bleq	e42938 <__bss_end__+0xe387d0>
    1448:	00001301 	andeq	r1, r0, r1, lsl #6
    144c:	03000d18 	movweq	r0, #3352	; 0xd18
    1450:	3b0b3a0e 	blcc	2cfc90 <__bss_end__+0x2c5b28>
    1454:	490b3905 	stmdbmi	fp, {r0, r2, r8, fp, ip, sp}
    1458:	000b3813 	andeq	r3, fp, r3, lsl r8
    145c:	000d1900 	andeq	r1, sp, r0, lsl #18
    1460:	0b3a0e03 	bleq	e84c74 <__bss_end__+0xe7ab0c>
    1464:	0b39053b 	bleq	e42958 <__bss_end__+0xe387f0>
    1468:	05381349 	ldreq	r1, [r8, #-841]!	; 0xfffffcb7
    146c:	131a0000 	tstne	sl, #0
    1470:	0b0e0301 	bleq	38207c <__bss_end__+0x377f14>
    1474:	3b0b3a0b 	blcc	2cfca8 <__bss_end__+0x2c5b40>
    1478:	010b3905 	tsteq	fp, r5, lsl #18
    147c:	1b000013 	blne	14d0 <_start-0x6b30>
    1480:	0b0b0113 	bleq	2c18d4 <__bss_end__+0x2b776c>
    1484:	053b0b3a 	ldreq	r0, [fp, #-2874]!	; 0xfffff4c6
    1488:	13010b39 	movwne	r0, #6969	; 0x1b39
    148c:	171c0000 	ldrne	r0, [ip, -r0]
    1490:	3a0b0b01 	bcc	2c409c <__bss_end__+0x2b9f34>
    1494:	39053b0b 	stmdbcc	r5, {r0, r1, r3, r8, r9, fp, ip, sp}
    1498:	0013010b 	andseq	r0, r3, fp, lsl #2
    149c:	000d1d00 	andeq	r1, sp, r0, lsl #26
    14a0:	0b3a0e03 	bleq	e84cb4 <__bss_end__+0xe7ab4c>
    14a4:	0b39053b 	bleq	e42998 <__bss_end__+0xe38830>
    14a8:	00001349 	andeq	r1, r0, r9, asr #6
    14ac:	2701151e 	smladcs	r1, lr, r5, r1
    14b0:	00130119 	andseq	r0, r3, r9, lsl r1
    14b4:	00341f00 	eorseq	r1, r4, r0, lsl #30
    14b8:	0b3a0e03 	bleq	e84ccc <__bss_end__+0xe7ab64>
    14bc:	0b39053b 	bleq	e429b0 <__bss_end__+0xe38848>
    14c0:	193f1349 	ldmdbne	pc!, {r0, r3, r6, r8, r9, ip}	; <UNPREDICTABLE>
    14c4:	0000193c 	andeq	r1, r0, ip, lsr r9
    14c8:	03003420 	movweq	r3, #1056	; 0x420
    14cc:	3b0b3a0e 	blcc	2cfd0c <__bss_end__+0x2c5ba4>
    14d0:	490b390b 	stmdbmi	fp, {r0, r1, r3, r8, fp, ip, sp}
    14d4:	3c193f13 	ldccc	15, cr3, [r9], {19}
    14d8:	21000019 	tstcs	r0, r9, lsl r0
    14dc:	0e030113 	mcreq	1, 0, r0, cr3, cr3, {0}
    14e0:	0b3a0b0b 	bleq	e84114 <__bss_end__+0xe79fac>
    14e4:	13010b3b 	movwne	r0, #6971	; 0x1b3b
    14e8:	0d220000 	stceq	0, cr0, [r2, #-0]
    14ec:	490e0300 	stmdbmi	lr, {r8, r9}
    14f0:	340b3813 	strcc	r3, [fp], #-2067	; 0xfffff7ed
    14f4:	23000019 	movwcs	r0, #25
    14f8:	193f012e 	ldmdbne	pc!, {r1, r2, r3, r5, r8}	; <UNPREDICTABLE>
    14fc:	0b3a0e03 	bleq	e84d10 <__bss_end__+0xe7aba8>
    1500:	0b390b3b 	bleq	e441f4 <__bss_end__+0xe3a08c>
    1504:	13491927 	movtne	r1, #39207	; 0x9927
    1508:	06120111 			; <UNDEFINED> instruction: 0x06120111
    150c:	42971840 	addsmi	r1, r7, #64, 16	; 0x400000
    1510:	00130119 	andseq	r0, r3, r9, lsl r1
    1514:	00052400 	andeq	r2, r5, r0, lsl #8
    1518:	0b3a0803 	bleq	e8352c <__bss_end__+0xe793c4>
    151c:	0b390b3b 	bleq	e44210 <__bss_end__+0xe3a0a8>
    1520:	17021349 	strne	r1, [r2, -r9, asr #6]
    1524:	001742b7 			; <UNDEFINED> instruction: 0x001742b7
    1528:	00052500 	andeq	r2, r5, r0, lsl #10
    152c:	0b3a0e03 	bleq	e84d40 <__bss_end__+0xe7abd8>
    1530:	0b390b3b 	bleq	e44224 <__bss_end__+0xe3a0bc>
    1534:	18021349 	stmdane	r2, {r0, r3, r6, r8, r9, ip}
    1538:	34260000 	strtcc	r0, [r6], #-0
    153c:	3a080300 	bcc	202144 <__bss_end__+0x1f7fdc>
    1540:	390b3b0b 	stmdbcc	fp, {r0, r1, r3, r8, r9, fp, ip, sp}
    1544:	0213490b 	andseq	r4, r3, #180224	; 0x2c000
    1548:	1742b717 	smlaldne	fp, r2, r7, r7
    154c:	34270000 	strtcc	r0, [r7], #-0
    1550:	490e0300 	stmdbmi	lr, {r8, r9}
    1554:	02193413 	andseq	r3, r9, #318767104	; 0x13000000
    1558:	28000018 	stmdacs	r0, {r3, r4}
    155c:	0111010b 	tsteq	r1, fp, lsl #2
    1560:	00000612 	andeq	r0, r0, r2, lsl r6
    1564:	03003429 	movweq	r3, #1065	; 0x429
    1568:	3b0b3a08 	blcc	2cfd90 <__bss_end__+0x2c5c28>
    156c:	490b390b 	stmdbmi	fp, {r0, r1, r3, r8, fp, ip, sp}
    1570:	00180213 	andseq	r0, r8, r3, lsl r2
    1574:	00342a00 	eorseq	r2, r4, r0, lsl #20
    1578:	0b3a0e03 	bleq	e84d8c <__bss_end__+0xe7ac24>
    157c:	0b390b3b 	bleq	e44270 <__bss_end__+0xe3a108>
    1580:	17021349 	strne	r1, [r2, -r9, asr #6]
    1584:	001742b7 			; <UNDEFINED> instruction: 0x001742b7
    1588:	82892b00 	addhi	r2, r9, #0, 22
    158c:	01110101 	tsteq	r1, r1, lsl #2
    1590:	13011331 	movwne	r1, #4913	; 0x1331
    1594:	8a2c0000 	bhi	b0159c <__bss_end__+0xaf7434>
    1598:	02000182 	andeq	r0, r0, #-2147483616	; 0x80000020
    159c:	18429118 	stmdane	r2, {r3, r4, r8, ip, pc}^
    15a0:	892d0000 	pushhi	{}	; <UNPREDICTABLE>
    15a4:	11000182 	smlabbne	r0, r2, r1, r0
    15a8:	00133101 	andseq	r3, r3, r1, lsl #2
    15ac:	012e2e00 			; <UNDEFINED> instruction: 0x012e2e00
    15b0:	0b3a0e03 	bleq	e84dc4 <__bss_end__+0xe7ac5c>
    15b4:	0b390b3b 	bleq	e442a8 <__bss_end__+0xe3a140>
    15b8:	13491927 	movtne	r1, #39207	; 0x9927
    15bc:	06120111 			; <UNDEFINED> instruction: 0x06120111
    15c0:	42971840 	addsmi	r1, r7, #64, 16	; 0x400000
    15c4:	00130119 	andseq	r0, r3, r9, lsl r1
    15c8:	00052f00 	andeq	r2, r5, r0, lsl #30
    15cc:	0b3a0e03 	bleq	e84de0 <__bss_end__+0xe7ac78>
    15d0:	0b390b3b 	bleq	e442c4 <__bss_end__+0xe3a15c>
    15d4:	17021349 	strne	r1, [r2, -r9, asr #6]
    15d8:	001742b7 			; <UNDEFINED> instruction: 0x001742b7
    15dc:	010b3000 	mrseq	r3, (UNDEF: 11)
    15e0:	06120111 			; <UNDEFINED> instruction: 0x06120111
    15e4:	00001301 	andeq	r1, r0, r1, lsl #6
    15e8:	03012e31 	movweq	r2, #7729	; 0x1e31
    15ec:	3b0b3a08 	blcc	2cfe14 <__bss_end__+0x2c5cac>
    15f0:	270b390b 	strcs	r3, [fp, -fp, lsl #18]
    15f4:	11134919 	tstne	r3, r9, lsl r9
    15f8:	40061201 	andmi	r1, r6, r1, lsl #4
    15fc:	19429718 	stmdbne	r2, {r3, r4, r8, r9, sl, ip, pc}^
    1600:	00001301 	andeq	r1, r0, r1, lsl #6
    1604:	3f012e32 	svccc	0x00012e32
    1608:	3a0e0319 	bcc	382274 <__bss_end__+0x37810c>
    160c:	390b3b0b 	stmdbcc	fp, {r0, r1, r3, r8, r9, fp, ip, sp}
    1610:	1119270b 	tstne	r9, fp, lsl #14
    1614:	40061201 	andmi	r1, r6, r1, lsl #4
    1618:	19429718 	stmdbne	r2, {r3, r4, r8, r9, sl, ip, pc}^
    161c:	00001301 	andeq	r1, r0, r1, lsl #6
    1620:	3f002e33 	svccc	0x00002e33
    1624:	6e193c19 	mrcvs	12, 0, r3, cr9, cr9, {0}
    1628:	3a0e030e 	bcc	382268 <__bss_end__+0x378100>
    162c:	390b3b0b 	stmdbcc	fp, {r0, r1, r3, r8, r9, fp, ip, sp}
    1630:	0000000b 	andeq	r0, r0, fp
    1634:	25011101 	strcs	r1, [r1, #-257]	; 0xfffffeff
    1638:	030b130e 	movweq	r1, #45838	; 0xb30e
    163c:	110e1b0e 	tstne	lr, lr, lsl #22
    1640:	10061201 	andne	r1, r6, r1, lsl #4
    1644:	02000017 	andeq	r0, r0, #23
    1648:	0b0b0024 	bleq	2c16e0 <__bss_end__+0x2b7578>
    164c:	08030b3e 	stmdaeq	r3, {r1, r2, r3, r4, r5, r8, r9, fp}
    1650:	24030000 	strcs	r0, [r3], #-0
    1654:	3e0b0b00 	vmlacc.f64	d0, d11, d0
    1658:	000e030b 	andeq	r0, lr, fp, lsl #6
    165c:	00160400 	andseq	r0, r6, r0, lsl #8
    1660:	0b3a0e03 	bleq	e84e74 <__bss_end__+0xe7ad0c>
    1664:	0b390b3b 	bleq	e44358 <__bss_end__+0xe3a1f0>
    1668:	00001349 	andeq	r1, r0, r9, asr #6
    166c:	0b000f05 	bleq	5288 <_start-0x2d78>
    1670:	0013490b 	andseq	r4, r3, fp, lsl #18
    1674:	00130600 	andseq	r0, r3, r0, lsl #12
    1678:	193c0e03 	ldmdbne	ip!, {r0, r1, r9, sl, fp}
    167c:	16070000 	strne	r0, [r7], -r0
    1680:	3a0e0300 	bcc	382288 <__bss_end__+0x378120>
    1684:	39053b0b 	stmdbcc	r5, {r0, r1, r3, r8, r9, fp, ip, sp}
    1688:	0013490b 	andseq	r4, r3, fp, lsl #18
    168c:	01170800 	tsteq	r7, r0, lsl #16
    1690:	0b3a0b0b 	bleq	e842c4 <__bss_end__+0xe7a15c>
    1694:	0b390b3b 	bleq	e44388 <__bss_end__+0xe3a220>
    1698:	00001301 	andeq	r1, r0, r1, lsl #6
    169c:	03000d09 	movweq	r0, #3337	; 0xd09
    16a0:	3b0b3a0e 	blcc	2cfee0 <__bss_end__+0x2c5d78>
    16a4:	490b390b 	stmdbmi	fp, {r0, r1, r3, r8, fp, ip, sp}
    16a8:	0a000013 	beq	16fc <_start-0x6904>
    16ac:	13490101 	movtne	r0, #37121	; 0x9101
    16b0:	00001301 	andeq	r1, r0, r1, lsl #6
    16b4:	4900210b 	stmdbmi	r0, {r0, r1, r3, r8, sp}
    16b8:	000b2f13 	andeq	r2, fp, r3, lsl pc
    16bc:	01130c00 	tsteq	r3, r0, lsl #24
    16c0:	0b3a0b0b 	bleq	e842f4 <__bss_end__+0xe7a18c>
    16c4:	0b390b3b 	bleq	e443b8 <__bss_end__+0xe3a250>
    16c8:	00001301 	andeq	r1, r0, r1, lsl #6
    16cc:	03000d0d 	movweq	r0, #3341	; 0xd0d
    16d0:	3b0b3a0e 	blcc	2cff10 <__bss_end__+0x2c5da8>
    16d4:	490b390b 	stmdbmi	fp, {r0, r1, r3, r8, fp, ip, sp}
    16d8:	000b3813 	andeq	r3, fp, r3, lsl r8
    16dc:	000f0e00 	andeq	r0, pc, r0, lsl #28
    16e0:	00000b0b 	andeq	r0, r0, fp, lsl #22
    16e4:	4900260f 	stmdbmi	r0, {r0, r1, r2, r3, r9, sl, sp}
    16e8:	10000013 	andne	r0, r0, r3, lsl r0
    16ec:	0e030113 	mcreq	1, 0, r0, cr3, cr3, {0}
    16f0:	0b3a0b0b 	bleq	e84324 <__bss_end__+0xe7a1bc>
    16f4:	0b390b3b 	bleq	e443e8 <__bss_end__+0xe3a280>
    16f8:	00001301 	andeq	r1, r0, r1, lsl #6
    16fc:	03000d11 	movweq	r0, #3345	; 0xd11
    1700:	3b0b3a08 	blcc	2cff28 <__bss_end__+0x2c5dc0>
    1704:	490b390b 	stmdbmi	fp, {r0, r1, r3, r8, fp, ip, sp}
    1708:	000b3813 	andeq	r3, fp, r3, lsl r8
    170c:	01131200 	tsteq	r3, r0, lsl #4
    1710:	050b0e03 	streq	r0, [fp, #-3587]	; 0xfffff1fd
    1714:	0b3b0b3a 	bleq	ec4404 <__bss_end__+0xeba29c>
    1718:	13010b39 	movwne	r0, #6969	; 0x1b39
    171c:	0d130000 	ldceq	0, cr0, [r3, #-0]
    1720:	3a0e0300 	bcc	382328 <__bss_end__+0x3781c0>
    1724:	390b3b0b 	stmdbcc	fp, {r0, r1, r3, r8, r9, fp, ip, sp}
    1728:	3813490b 	ldmdacc	r3, {r0, r1, r3, r8, fp, lr}
    172c:	14000005 	strne	r0, [r0], #-5
    1730:	19270015 	stmdbne	r7!, {r0, r2, r4}
    1734:	15150000 	ldrne	r0, [r5, #-0]
    1738:	49192701 	ldmdbmi	r9, {r0, r8, r9, sl, sp}
    173c:	00130113 	andseq	r0, r3, r3, lsl r1
    1740:	00051600 	andeq	r1, r5, r0, lsl #12
    1744:	00001349 	andeq	r1, r0, r9, asr #6
    1748:	03011317 	movweq	r1, #4887	; 0x1317
    174c:	3a050b0e 	bcc	14438c <__bss_end__+0x13a224>
    1750:	39053b0b 	stmdbcc	r5, {r0, r1, r3, r8, r9, fp, ip, sp}
    1754:	0013010b 	andseq	r0, r3, fp, lsl #2
    1758:	000d1800 	andeq	r1, sp, r0, lsl #16
    175c:	0b3a0e03 	bleq	e84f70 <__bss_end__+0xe7ae08>
    1760:	0b39053b 	bleq	e42c54 <__bss_end__+0xe38aec>
    1764:	0b381349 	bleq	e06490 <__bss_end__+0xdfc328>
    1768:	0d190000 	ldceq	0, cr0, [r9, #-0]
    176c:	3a0e0300 	bcc	382374 <__bss_end__+0x37820c>
    1770:	39053b0b 	stmdbcc	r5, {r0, r1, r3, r8, r9, fp, ip, sp}
    1774:	3813490b 	ldmdacc	r3, {r0, r1, r3, r8, fp, lr}
    1778:	1a000005 	bne	1794 <_start-0x686c>
    177c:	0e030113 	mcreq	1, 0, r0, cr3, cr3, {0}
    1780:	0b3a0b0b 	bleq	e843b4 <__bss_end__+0xe7a24c>
    1784:	0b39053b 	bleq	e42c78 <__bss_end__+0xe38b10>
    1788:	00001301 	andeq	r1, r0, r1, lsl #6
    178c:	0b01131b 	bleq	46400 <__bss_end__+0x3c298>
    1790:	3b0b3a0b 	blcc	2cffc4 <__bss_end__+0x2c5e5c>
    1794:	010b3905 	tsteq	fp, r5, lsl #18
    1798:	1c000013 	stcne	0, cr0, [r0], {19}
    179c:	0b0b0117 	bleq	2c1c00 <__bss_end__+0x2b7a98>
    17a0:	053b0b3a 	ldreq	r0, [fp, #-2874]!	; 0xfffff4c6
    17a4:	13010b39 	movwne	r0, #6969	; 0x1b39
    17a8:	0d1d0000 	ldceq	0, cr0, [sp, #-0]
    17ac:	3a0e0300 	bcc	3823b4 <__bss_end__+0x37824c>
    17b0:	39053b0b 	stmdbcc	r5, {r0, r1, r3, r8, r9, fp, ip, sp}
    17b4:	0013490b 	andseq	r4, r3, fp, lsl #18
    17b8:	01151e00 	tsteq	r5, r0, lsl #28
    17bc:	13011927 	movwne	r1, #6439	; 0x1927
    17c0:	341f0000 	ldrcc	r0, [pc], #-0	; 17c8 <_start-0x6838>
    17c4:	3a0e0300 	bcc	3823cc <__bss_end__+0x378264>
    17c8:	39053b0b 	stmdbcc	r5, {r0, r1, r3, r8, r9, fp, ip, sp}
    17cc:	3f13490b 	svccc	0x0013490b
    17d0:	00193c19 	andseq	r3, r9, r9, lsl ip
    17d4:	00342000 	eorseq	r2, r4, r0
    17d8:	0b3a0e03 	bleq	e84fec <__bss_end__+0xe7ae84>
    17dc:	0b390b3b 	bleq	e444d0 <__bss_end__+0xe3a368>
    17e0:	193f1349 	ldmdbne	pc!, {r0, r3, r6, r8, r9, ip}	; <UNPREDICTABLE>
    17e4:	0000193c 	andeq	r1, r0, ip, lsr r9
    17e8:	3f012e21 	svccc	0x00012e21
    17ec:	3a0e0319 	bcc	382458 <__bss_end__+0x3782f0>
    17f0:	390b3b0b 	stmdbcc	fp, {r0, r1, r3, r8, r9, fp, ip, sp}
    17f4:	8719270b 	ldrhi	r2, [r9, -fp, lsl #14]
    17f8:	01111901 	tsteq	r1, r1, lsl #18
    17fc:	18400612 	stmdane	r0, {r1, r4, r9, sl}^
    1800:	01194297 			; <UNDEFINED> instruction: 0x01194297
    1804:	22000013 	andcs	r0, r0, #19
    1808:	01018289 	smlabbeq	r1, r9, r2, r8
    180c:	13010111 	movwne	r0, #4369	; 0x1111
    1810:	8a230000 	bhi	8c1818 <__bss_end__+0x8b76b0>
    1814:	02000182 	andeq	r0, r0, #-2147483616	; 0x80000020
    1818:	18429118 	stmdane	r2, {r3, r4, r8, ip, pc}^
    181c:	89240000 	stmdbhi	r4!, {}	; <UNPREDICTABLE>
    1820:	11010182 	smlabbne	r1, r2, r1, r0
    1824:	01133101 	tsteq	r3, r1, lsl #2
    1828:	25000013 	strcs	r0, [r0, #-19]	; 0xffffffed
    182c:	00018289 	andeq	r8, r1, r9, lsl #5
    1830:	13310111 	teqne	r1, #1073741828	; 0x40000004
    1834:	2e260000 	cdpcs	0, 2, cr0, cr6, cr0, {0}
    1838:	3c193f00 	ldccc	15, cr3, [r9], {-0}
    183c:	030e6e19 	movweq	r6, #60953	; 0xee19
    1840:	3b0b3a0e 	blcc	2d0080 <__bss_end__+0x2c5f18>
    1844:	000b390b 	andeq	r3, fp, fp, lsl #18
    1848:	11010000 	mrsne	r0, (UNDEF: 1)
    184c:	130e2501 	movwne	r2, #58625	; 0xe501
    1850:	1b0e030b 	blne	382484 <__bss_end__+0x37831c>
    1854:	1201110e 	andne	r1, r1, #-2147483645	; 0x80000003
    1858:	00171006 	andseq	r1, r7, r6
    185c:	00240200 	eoreq	r0, r4, r0, lsl #4
    1860:	0b3e0b0b 	bleq	f84494 <__bss_end__+0xf7a32c>
    1864:	00000803 	andeq	r0, r0, r3, lsl #16
    1868:	0b002403 	bleq	a87c <__bss_end__+0x714>
    186c:	030b3e0b 	movweq	r3, #48651	; 0xbe0b
    1870:	0400000e 	streq	r0, [r0], #-14
    1874:	0e030016 	mcreq	0, 0, r0, cr3, cr6, {0}
    1878:	0b3b0b3a 	bleq	ec4568 <__bss_end__+0xeba400>
    187c:	13490b39 	movtne	r0, #39737	; 0x9b39
    1880:	0f050000 	svceq	0x00050000
    1884:	490b0b00 	stmdbmi	fp, {r8, r9, fp}
    1888:	06000013 			; <UNDEFINED> instruction: 0x06000013
    188c:	0e030013 	mcreq	0, 0, r0, cr3, cr3, {0}
    1890:	0000193c 	andeq	r1, r0, ip, lsr r9
    1894:	03001607 	movweq	r1, #1543	; 0x607
    1898:	3b0b3a0e 	blcc	2d00d8 <__bss_end__+0x2c5f70>
    189c:	490b3905 	stmdbmi	fp, {r0, r2, r8, fp, ip, sp}
    18a0:	08000013 	stmdaeq	r0, {r0, r1, r4}
    18a4:	0b0b0117 	bleq	2c1d08 <__bss_end__+0x2b7ba0>
    18a8:	0b3b0b3a 	bleq	ec4598 <__bss_end__+0xeba430>
    18ac:	13010b39 	movwne	r0, #6969	; 0x1b39
    18b0:	0d090000 	stceq	0, cr0, [r9, #-0]
    18b4:	3a0e0300 	bcc	3824bc <__bss_end__+0x378354>
    18b8:	390b3b0b 	stmdbcc	fp, {r0, r1, r3, r8, r9, fp, ip, sp}
    18bc:	0013490b 	andseq	r4, r3, fp, lsl #18
    18c0:	01010a00 	tsteq	r1, r0, lsl #20
    18c4:	13011349 	movwne	r1, #4937	; 0x1349
    18c8:	210b0000 	mrscs	r0, (UNDEF: 11)
    18cc:	2f134900 	svccs	0x00134900
    18d0:	0c00000b 	stceq	0, cr0, [r0], {11}
    18d4:	0b0b0113 	bleq	2c1d28 <__bss_end__+0x2b7bc0>
    18d8:	0b3b0b3a 	bleq	ec45c8 <__bss_end__+0xeba460>
    18dc:	13010b39 	movwne	r0, #6969	; 0x1b39
    18e0:	0d0d0000 	stceq	0, cr0, [sp, #-0]
    18e4:	3a0e0300 	bcc	3824ec <__bss_end__+0x378384>
    18e8:	390b3b0b 	stmdbcc	fp, {r0, r1, r3, r8, r9, fp, ip, sp}
    18ec:	3813490b 	ldmdacc	r3, {r0, r1, r3, r8, fp, lr}
    18f0:	0e00000b 	cdpeq	0, 0, cr0, cr0, cr11, {0}
    18f4:	0b0b000f 	bleq	2c1938 <__bss_end__+0x2b77d0>
    18f8:	260f0000 	strcs	r0, [pc], -r0
    18fc:	00134900 	andseq	r4, r3, r0, lsl #18
    1900:	01131000 	tsteq	r3, r0
    1904:	0b0b0e03 	bleq	2c5118 <__bss_end__+0x2bafb0>
    1908:	0b3b0b3a 	bleq	ec45f8 <__bss_end__+0xeba490>
    190c:	13010b39 	movwne	r0, #6969	; 0x1b39
    1910:	0d110000 	ldceq	0, cr0, [r1, #-0]
    1914:	3a080300 	bcc	20251c <__bss_end__+0x1f83b4>
    1918:	390b3b0b 	stmdbcc	fp, {r0, r1, r3, r8, r9, fp, ip, sp}
    191c:	3813490b 	ldmdacc	r3, {r0, r1, r3, r8, fp, lr}
    1920:	1200000b 	andne	r0, r0, #11
    1924:	0e030113 	mcreq	1, 0, r0, cr3, cr3, {0}
    1928:	0b3a050b 	bleq	e82d5c <__bss_end__+0xe78bf4>
    192c:	0b390b3b 	bleq	e44620 <__bss_end__+0xe3a4b8>
    1930:	00001301 	andeq	r1, r0, r1, lsl #6
    1934:	03000d13 	movweq	r0, #3347	; 0xd13
    1938:	3b0b3a0e 	blcc	2d0178 <__bss_end__+0x2c6010>
    193c:	490b390b 	stmdbmi	fp, {r0, r1, r3, r8, fp, ip, sp}
    1940:	00053813 	andeq	r3, r5, r3, lsl r8
    1944:	00151400 	andseq	r1, r5, r0, lsl #8
    1948:	00001927 	andeq	r1, r0, r7, lsr #18
    194c:	27011515 	smladcs	r1, r5, r5, r1
    1950:	01134919 	tsteq	r3, r9, lsl r9
    1954:	16000013 			; <UNDEFINED> instruction: 0x16000013
    1958:	13490005 	movtne	r0, #36869	; 0x9005
    195c:	13170000 	tstne	r7, #0
    1960:	0b0e0301 	bleq	38256c <__bss_end__+0x378404>
    1964:	3b0b3a05 	blcc	2d0180 <__bss_end__+0x2c6018>
    1968:	010b3905 	tsteq	fp, r5, lsl #18
    196c:	18000013 	stmdane	r0, {r0, r1, r4}
    1970:	0e03000d 	cdpeq	0, 0, cr0, cr3, cr13, {0}
    1974:	053b0b3a 	ldreq	r0, [fp, #-2874]!	; 0xfffff4c6
    1978:	13490b39 	movtne	r0, #39737	; 0x9b39
    197c:	00000b38 	andeq	r0, r0, r8, lsr fp
    1980:	03000d19 	movweq	r0, #3353	; 0xd19
    1984:	3b0b3a0e 	blcc	2d01c4 <__bss_end__+0x2c605c>
    1988:	490b3905 	stmdbmi	fp, {r0, r2, r8, fp, ip, sp}
    198c:	00053813 	andeq	r3, r5, r3, lsl r8
    1990:	01131a00 	tsteq	r3, r0, lsl #20
    1994:	0b0b0e03 	bleq	2c51a8 <__bss_end__+0x2bb040>
    1998:	053b0b3a 	ldreq	r0, [fp, #-2874]!	; 0xfffff4c6
    199c:	13010b39 	movwne	r0, #6969	; 0x1b39
    19a0:	131b0000 	tstne	fp, #0
    19a4:	3a0b0b01 	bcc	2c45b0 <__bss_end__+0x2ba448>
    19a8:	39053b0b 	stmdbcc	r5, {r0, r1, r3, r8, r9, fp, ip, sp}
    19ac:	0013010b 	andseq	r0, r3, fp, lsl #2
    19b0:	01171c00 	tsteq	r7, r0, lsl #24
    19b4:	0b3a0b0b 	bleq	e845e8 <__bss_end__+0xe7a480>
    19b8:	0b39053b 	bleq	e42eac <__bss_end__+0xe38d44>
    19bc:	00001301 	andeq	r1, r0, r1, lsl #6
    19c0:	03000d1d 	movweq	r0, #3357	; 0xd1d
    19c4:	3b0b3a0e 	blcc	2d0204 <__bss_end__+0x2c609c>
    19c8:	490b3905 	stmdbmi	fp, {r0, r2, r8, fp, ip, sp}
    19cc:	1e000013 	mcrne	0, 0, r0, cr0, cr3, {0}
    19d0:	19270115 	stmdbne	r7!, {r0, r2, r4, r8}
    19d4:	00001301 	andeq	r1, r0, r1, lsl #6
    19d8:	0300341f 	movweq	r3, #1055	; 0x41f
    19dc:	3b0b3a0e 	blcc	2d021c <__bss_end__+0x2c60b4>
    19e0:	490b3905 	stmdbmi	fp, {r0, r2, r8, fp, ip, sp}
    19e4:	3c193f13 	ldccc	15, cr3, [r9], {19}
    19e8:	20000019 	andcs	r0, r0, r9, lsl r0
    19ec:	0e030034 	mcreq	0, 0, r0, cr3, cr4, {1}
    19f0:	0b3b0b3a 	bleq	ec46e0 <__bss_end__+0xeba578>
    19f4:	13490b39 	movtne	r0, #39737	; 0x9b39
    19f8:	193c193f 	ldmdbne	ip!, {r0, r1, r2, r3, r4, r5, r8, fp, ip}
    19fc:	2e210000 	cdpcs	0, 2, cr0, cr1, cr0, {0}
    1a00:	03193f01 	tsteq	r9, #1, 30
    1a04:	3b0b3a0e 	blcc	2d0244 <__bss_end__+0x2c60dc>
    1a08:	110b390b 	tstne	fp, fp, lsl #18
    1a0c:	40061201 	andmi	r1, r6, r1, lsl #4
    1a10:	19429718 	stmdbne	r2, {r3, r4, r8, r9, sl, ip, pc}^
    1a14:	00001301 	andeq	r1, r0, r1, lsl #6
    1a18:	3f002e22 	svccc	0x00002e22
    1a1c:	3a0e0319 	bcc	382688 <__bss_end__+0x378520>
    1a20:	390b3b0b 	stmdbcc	fp, {r0, r1, r3, r8, r9, fp, ip, sp}
    1a24:	3c19270b 	ldccc	7, cr2, [r9], {11}
    1a28:	23000019 	movwcs	r0, #25
    1a2c:	08030034 	stmdaeq	r3, {r2, r4, r5}
    1a30:	0b3b0b3a 	bleq	ec4720 <__bss_end__+0xeba5b8>
    1a34:	13490b39 	movtne	r0, #39737	; 0x9b39
    1a38:	42b71702 	adcsmi	r1, r7, #524288	; 0x80000
    1a3c:	24000017 	strcs	r0, [r0], #-23	; 0xffffffe9
    1a40:	0e030034 	mcreq	0, 0, r0, cr3, cr4, {1}
    1a44:	0b3b0b3a 	bleq	ec4734 <__bss_end__+0xeba5cc>
    1a48:	13490b39 	movtne	r0, #39737	; 0x9b39
    1a4c:	89250000 	stmdbhi	r5!, {}	; <UNPREDICTABLE>
    1a50:	11000182 	smlabbne	r0, r2, r1, r0
    1a54:	00133101 	andseq	r3, r3, r1, lsl #2
    1a58:	002e2600 	eoreq	r2, lr, r0, lsl #12
    1a5c:	193c193f 	ldmdbne	ip!, {r0, r1, r2, r3, r4, r5, r8, fp, ip}
    1a60:	0e030e6e 	cdpeq	14, 0, cr0, cr3, cr14, {3}
    1a64:	0b3b0b3a 	bleq	ec4754 <__bss_end__+0xeba5ec>
    1a68:	00000b39 	andeq	r0, r0, r9, lsr fp
    1a6c:	01110100 	tsteq	r1, r0, lsl #2
    1a70:	0b130e25 	bleq	4c530c <__bss_end__+0x4bb1a4>
    1a74:	0e1b0e03 	cdpeq	14, 1, cr0, cr11, cr3, {0}
    1a78:	01111755 	tsteq	r1, r5, asr r7
    1a7c:	00001710 	andeq	r1, r0, r0, lsl r7
    1a80:	0b002402 	bleq	aa90 <__bss_end__+0x928>
    1a84:	030b3e0b 	movweq	r3, #48651	; 0xbe0b
    1a88:	03000008 	movweq	r0, #8
    1a8c:	13490026 	movtne	r0, #36902	; 0x9026
    1a90:	24040000 	strcs	r0, [r4], #-0
    1a94:	3e0b0b00 	vmlacc.f64	d0, d11, d0
    1a98:	000e030b 	andeq	r0, lr, fp, lsl #6
    1a9c:	00160500 	andseq	r0, r6, r0, lsl #10
    1aa0:	0b3a0e03 	bleq	e852b4 <__bss_end__+0xe7b14c>
    1aa4:	0b390b3b 	bleq	e44798 <__bss_end__+0xe3a630>
    1aa8:	00001349 	andeq	r1, r0, r9, asr #6
    1aac:	0b000f06 	bleq	56cc <_start-0x2934>
    1ab0:	0013490b 	andseq	r4, r3, fp, lsl #18
    1ab4:	00130700 	andseq	r0, r3, r0, lsl #14
    1ab8:	193c0e03 	ldmdbne	ip!, {r0, r1, r9, sl, fp}
    1abc:	16080000 	strne	r0, [r8], -r0
    1ac0:	3a0e0300 	bcc	3826c8 <__bss_end__+0x378560>
    1ac4:	39053b0b 	stmdbcc	r5, {r0, r1, r3, r8, r9, fp, ip, sp}
    1ac8:	0013490b 	andseq	r4, r3, fp, lsl #18
    1acc:	01170900 	tsteq	r7, r0, lsl #18
    1ad0:	0b3a0b0b 	bleq	e84704 <__bss_end__+0xe7a59c>
    1ad4:	0b390b3b 	bleq	e447c8 <__bss_end__+0xe3a660>
    1ad8:	00001301 	andeq	r1, r0, r1, lsl #6
    1adc:	03000d0a 	movweq	r0, #3338	; 0xd0a
    1ae0:	3b0b3a0e 	blcc	2d0320 <__bss_end__+0x2c61b8>
    1ae4:	490b390b 	stmdbmi	fp, {r0, r1, r3, r8, fp, ip, sp}
    1ae8:	0b000013 	bleq	1b3c <_start-0x64c4>
    1aec:	13490101 	movtne	r0, #37121	; 0x9101
    1af0:	00001301 	andeq	r1, r0, r1, lsl #6
    1af4:	4900210c 	stmdbmi	r0, {r2, r3, r8, sp}
    1af8:	000b2f13 	andeq	r2, fp, r3, lsl pc
    1afc:	01130d00 	tsteq	r3, r0, lsl #26
    1b00:	0b3a0b0b 	bleq	e84734 <__bss_end__+0xe7a5cc>
    1b04:	0b390b3b 	bleq	e447f8 <__bss_end__+0xe3a690>
    1b08:	00001301 	andeq	r1, r0, r1, lsl #6
    1b0c:	03000d0e 	movweq	r0, #3342	; 0xd0e
    1b10:	3b0b3a0e 	blcc	2d0350 <__bss_end__+0x2c61e8>
    1b14:	490b390b 	stmdbmi	fp, {r0, r1, r3, r8, fp, ip, sp}
    1b18:	000b3813 	andeq	r3, fp, r3, lsl r8
    1b1c:	000f0f00 	andeq	r0, pc, r0, lsl #30
    1b20:	00000b0b 	andeq	r0, r0, fp, lsl #22
    1b24:	03011310 	movweq	r1, #4880	; 0x1310
    1b28:	3a0b0b0e 	bcc	2c4768 <__bss_end__+0x2ba600>
    1b2c:	390b3b0b 	stmdbcc	fp, {r0, r1, r3, r8, r9, fp, ip, sp}
    1b30:	0013010b 	andseq	r0, r3, fp, lsl #2
    1b34:	000d1100 	andeq	r1, sp, r0, lsl #2
    1b38:	0b3a0803 	bleq	e83b4c <__bss_end__+0xe799e4>
    1b3c:	0b390b3b 	bleq	e44830 <__bss_end__+0xe3a6c8>
    1b40:	0b381349 	bleq	e0686c <__bss_end__+0xdfc704>
    1b44:	13120000 	tstne	r2, #0
    1b48:	0b0e0301 	bleq	382754 <__bss_end__+0x3785ec>
    1b4c:	3b0b3a05 	blcc	2d0368 <__bss_end__+0x2c6200>
    1b50:	010b390b 	tsteq	fp, fp, lsl #18
    1b54:	13000013 	movwne	r0, #19
    1b58:	0e03000d 	cdpeq	0, 0, cr0, cr3, cr13, {0}
    1b5c:	0b3b0b3a 	bleq	ec484c <__bss_end__+0xeba6e4>
    1b60:	13490b39 	movtne	r0, #39737	; 0x9b39
    1b64:	00000538 	andeq	r0, r0, r8, lsr r5
    1b68:	27001514 	smladcs	r0, r4, r5, r1
    1b6c:	15000019 	strne	r0, [r0, #-25]	; 0xffffffe7
    1b70:	19270115 	stmdbne	r7!, {r0, r2, r4, r8}
    1b74:	13011349 	movwne	r1, #4937	; 0x1349
    1b78:	05160000 	ldreq	r0, [r6, #-0]
    1b7c:	00134900 	andseq	r4, r3, r0, lsl #18
    1b80:	01131700 	tsteq	r3, r0, lsl #14
    1b84:	050b0e03 	streq	r0, [fp, #-3587]	; 0xfffff1fd
    1b88:	053b0b3a 	ldreq	r0, [fp, #-2874]!	; 0xfffff4c6
    1b8c:	13010b39 	movwne	r0, #6969	; 0x1b39
    1b90:	0d180000 	ldceq	0, cr0, [r8, #-0]
    1b94:	3a0e0300 	bcc	38279c <__bss_end__+0x378634>
    1b98:	39053b0b 	stmdbcc	r5, {r0, r1, r3, r8, r9, fp, ip, sp}
    1b9c:	3813490b 	ldmdacc	r3, {r0, r1, r3, r8, fp, lr}
    1ba0:	1900000b 	stmdbne	r0, {r0, r1, r3}
    1ba4:	0e03000d 	cdpeq	0, 0, cr0, cr3, cr13, {0}
    1ba8:	053b0b3a 	ldreq	r0, [fp, #-2874]!	; 0xfffff4c6
    1bac:	13490b39 	movtne	r0, #39737	; 0x9b39
    1bb0:	00000538 	andeq	r0, r0, r8, lsr r5
    1bb4:	0301131a 	movweq	r1, #4890	; 0x131a
    1bb8:	3a0b0b0e 	bcc	2c47f8 <__bss_end__+0x2ba690>
    1bbc:	39053b0b 	stmdbcc	r5, {r0, r1, r3, r8, r9, fp, ip, sp}
    1bc0:	0013010b 	andseq	r0, r3, fp, lsl #2
    1bc4:	01131b00 	tsteq	r3, r0, lsl #22
    1bc8:	0b3a0b0b 	bleq	e847fc <__bss_end__+0xe7a694>
    1bcc:	0b39053b 	bleq	e430c0 <__bss_end__+0xe38f58>
    1bd0:	00001301 	andeq	r1, r0, r1, lsl #6
    1bd4:	0b01171c 	bleq	4784c <__bss_end__+0x3d6e4>
    1bd8:	3b0b3a0b 	blcc	2d040c <__bss_end__+0x2c62a4>
    1bdc:	010b3905 	tsteq	fp, r5, lsl #18
    1be0:	1d000013 	stcne	0, cr0, [r0, #-76]	; 0xffffffb4
    1be4:	0e03000d 	cdpeq	0, 0, cr0, cr3, cr13, {0}
    1be8:	053b0b3a 	ldreq	r0, [fp, #-2874]!	; 0xfffff4c6
    1bec:	13490b39 	movtne	r0, #39737	; 0x9b39
    1bf0:	151e0000 	ldrne	r0, [lr, #-0]
    1bf4:	01192701 	tsteq	r9, r1, lsl #14
    1bf8:	1f000013 	svcne	0x00000013
    1bfc:	0e030034 	mcreq	0, 0, r0, cr3, cr4, {1}
    1c00:	053b0b3a 	ldreq	r0, [fp, #-2874]!	; 0xfffff4c6
    1c04:	13490b39 	movtne	r0, #39737	; 0x9b39
    1c08:	193c193f 	ldmdbne	ip!, {r0, r1, r2, r3, r4, r5, r8, fp, ip}
    1c0c:	34200000 	strtcc	r0, [r0], #-0
    1c10:	3a0e0300 	bcc	382818 <__bss_end__+0x3786b0>
    1c14:	390b3b0b 	stmdbcc	fp, {r0, r1, r3, r8, r9, fp, ip, sp}
    1c18:	3f13490b 	svccc	0x0013490b
    1c1c:	00193c19 	andseq	r3, r9, r9, lsl ip
    1c20:	00342100 	eorseq	r2, r4, r0, lsl #2
    1c24:	0b3a0e03 	bleq	e85438 <__bss_end__+0xe7b2d0>
    1c28:	0b390b3b 	bleq	e4491c <__bss_end__+0xe3a7b4>
    1c2c:	00001349 	andeq	r1, r0, r9, asr #6
    1c30:	3f012e22 	svccc	0x00012e22
    1c34:	3a0e0319 	bcc	3828a0 <__bss_end__+0x378738>
    1c38:	390b3b0b 	stmdbcc	fp, {r0, r1, r3, r8, r9, fp, ip, sp}
    1c3c:	8719270b 	ldrhi	r2, [r9, -fp, lsl #14]
    1c40:	01111901 	tsteq	r1, r1, lsl #18
    1c44:	18400612 	stmdane	r0, {r1, r4, r9, sl}^
    1c48:	01194297 			; <UNDEFINED> instruction: 0x01194297
    1c4c:	23000013 	movwcs	r0, #19
    1c50:	0e030034 	mcreq	0, 0, r0, cr3, cr4, {1}
    1c54:	0b3b0b3a 	bleq	ec4944 <__bss_end__+0xeba7dc>
    1c58:	13490b39 	movtne	r0, #39737	; 0x9b39
    1c5c:	42b71702 	adcsmi	r1, r7, #524288	; 0x80000
    1c60:	24000017 	strcs	r0, [r0], #-23	; 0xffffffe9
    1c64:	00018289 	andeq	r8, r1, r9, lsl #5
    1c68:	13310111 	teqne	r1, #1073741828	; 0x40000004
    1c6c:	89250000 	stmdbhi	r5!, {}	; <UNPREDICTABLE>
    1c70:	11010182 	smlabbne	r1, r2, r1, r0
    1c74:	01133101 	tsteq	r3, r1, lsl #2
    1c78:	26000013 			; <UNDEFINED> instruction: 0x26000013
    1c7c:	0001828a 	andeq	r8, r1, sl, lsl #5
    1c80:	42911802 	addsmi	r1, r1, #131072	; 0x20000
    1c84:	27000018 	smladcs	r0, r8, r0, r0
    1c88:	193f012e 	ldmdbne	pc!, {r1, r2, r3, r5, r8}	; <UNPREDICTABLE>
    1c8c:	0b3a0e03 	bleq	e854a0 <__bss_end__+0xe7b338>
    1c90:	0b390b3b 	bleq	e44984 <__bss_end__+0xe3a81c>
    1c94:	01111927 	tsteq	r1, r7, lsr #18
    1c98:	18400612 	stmdane	r0, {r1, r4, r9, sl}^
    1c9c:	01194297 			; <UNDEFINED> instruction: 0x01194297
    1ca0:	28000013 	stmdacs	r0, {r0, r1, r4}
    1ca4:	193f012e 	ldmdbne	pc!, {r1, r2, r3, r5, r8}	; <UNPREDICTABLE>
    1ca8:	0b3a0e03 	bleq	e854bc <__bss_end__+0xe7b354>
    1cac:	0b390b3b 	bleq	e449a0 <__bss_end__+0xe3a838>
    1cb0:	13491927 	movtne	r1, #39207	; 0x9927
    1cb4:	06120111 			; <UNDEFINED> instruction: 0x06120111
    1cb8:	42971840 	addsmi	r1, r7, #64, 16	; 0x400000
    1cbc:	00130119 	andseq	r0, r3, r9, lsl r1
    1cc0:	002e2900 	eoreq	r2, lr, r0, lsl #18
    1cc4:	193c193f 	ldmdbne	ip!, {r0, r1, r2, r3, r4, r5, r8, fp, ip}
    1cc8:	0e030e6e 	cdpeq	14, 0, cr0, cr3, cr14, {3}
    1ccc:	0b3b0b3a 	bleq	ec49bc <__bss_end__+0xeba854>
    1cd0:	00000b39 	andeq	r0, r0, r9, lsr fp
    1cd4:	01110100 	tsteq	r1, r0, lsl #2
    1cd8:	0b130e25 	bleq	4c5574 <__bss_end__+0x4bb40c>
    1cdc:	0e1b0e03 	cdpeq	14, 1, cr0, cr11, cr3, {0}
    1ce0:	06120111 			; <UNDEFINED> instruction: 0x06120111
    1ce4:	00001710 	andeq	r1, r0, r0, lsl r7
    1ce8:	0b002402 	bleq	acf8 <__bss_end__+0xb90>
    1cec:	030b3e0b 	movweq	r3, #48651	; 0xbe0b
    1cf0:	03000008 	movweq	r0, #8
    1cf4:	0b0b0024 	bleq	2c1d8c <__bss_end__+0x2b7c24>
    1cf8:	0e030b3e 	vmoveq.16	d3[0], r0
    1cfc:	16040000 	strne	r0, [r4], -r0
    1d00:	3a0e0300 	bcc	382908 <__bss_end__+0x3787a0>
    1d04:	390b3b0b 	stmdbcc	fp, {r0, r1, r3, r8, r9, fp, ip, sp}
    1d08:	0013490b 	andseq	r4, r3, fp, lsl #18
    1d0c:	000f0500 	andeq	r0, pc, r0, lsl #10
    1d10:	13490b0b 	movtne	r0, #39691	; 0x9b0b
    1d14:	13060000 	movwne	r0, #24576	; 0x6000
    1d18:	3c0e0300 	stccc	3, cr0, [lr], {-0}
    1d1c:	07000019 	smladeq	r0, r9, r0, r0
    1d20:	0e030016 	mcreq	0, 0, r0, cr3, cr6, {0}
    1d24:	053b0b3a 	ldreq	r0, [fp, #-2874]!	; 0xfffff4c6
    1d28:	13490b39 	movtne	r0, #39737	; 0x9b39
    1d2c:	17080000 	strne	r0, [r8, -r0]
    1d30:	3a0b0b01 	bcc	2c493c <__bss_end__+0x2ba7d4>
    1d34:	390b3b0b 	stmdbcc	fp, {r0, r1, r3, r8, r9, fp, ip, sp}
    1d38:	0013010b 	andseq	r0, r3, fp, lsl #2
    1d3c:	000d0900 	andeq	r0, sp, r0, lsl #18
    1d40:	0b3a0e03 	bleq	e85554 <__bss_end__+0xe7b3ec>
    1d44:	0b390b3b 	bleq	e44a38 <__bss_end__+0xe3a8d0>
    1d48:	00001349 	andeq	r1, r0, r9, asr #6
    1d4c:	4901010a 	stmdbmi	r1, {r1, r3, r8}
    1d50:	00130113 	andseq	r0, r3, r3, lsl r1
    1d54:	00210b00 	eoreq	r0, r1, r0, lsl #22
    1d58:	0b2f1349 	bleq	bc6a84 <__bss_end__+0xbbc91c>
    1d5c:	130c0000 	movwne	r0, #49152	; 0xc000
    1d60:	3a0b0b01 	bcc	2c496c <__bss_end__+0x2ba804>
    1d64:	390b3b0b 	stmdbcc	fp, {r0, r1, r3, r8, r9, fp, ip, sp}
    1d68:	0013010b 	andseq	r0, r3, fp, lsl #2
    1d6c:	000d0d00 	andeq	r0, sp, r0, lsl #26
    1d70:	0b3a0e03 	bleq	e85584 <__bss_end__+0xe7b41c>
    1d74:	0b390b3b 	bleq	e44a68 <__bss_end__+0xe3a900>
    1d78:	0b381349 	bleq	e06aa4 <__bss_end__+0xdfc93c>
    1d7c:	0f0e0000 	svceq	0x000e0000
    1d80:	000b0b00 	andeq	r0, fp, r0, lsl #22
    1d84:	00260f00 	eoreq	r0, r6, r0, lsl #30
    1d88:	00001349 	andeq	r1, r0, r9, asr #6
    1d8c:	03011310 	movweq	r1, #4880	; 0x1310
    1d90:	3a0b0b0e 	bcc	2c49d0 <__bss_end__+0x2ba868>
    1d94:	390b3b0b 	stmdbcc	fp, {r0, r1, r3, r8, r9, fp, ip, sp}
    1d98:	0013010b 	andseq	r0, r3, fp, lsl #2
    1d9c:	000d1100 	andeq	r1, sp, r0, lsl #2
    1da0:	0b3a0803 	bleq	e83db4 <__bss_end__+0xe79c4c>
    1da4:	0b390b3b 	bleq	e44a98 <__bss_end__+0xe3a930>
    1da8:	0b381349 	bleq	e06ad4 <__bss_end__+0xdfc96c>
    1dac:	13120000 	tstne	r2, #0
    1db0:	0b0e0301 	bleq	3829bc <__bss_end__+0x378854>
    1db4:	3b0b3a05 	blcc	2d05d0 <__bss_end__+0x2c6468>
    1db8:	010b390b 	tsteq	fp, fp, lsl #18
    1dbc:	13000013 	movwne	r0, #19
    1dc0:	0e03000d 	cdpeq	0, 0, cr0, cr3, cr13, {0}
    1dc4:	0b3b0b3a 	bleq	ec4ab4 <__bss_end__+0xeba94c>
    1dc8:	13490b39 	movtne	r0, #39737	; 0x9b39
    1dcc:	00000538 	andeq	r0, r0, r8, lsr r5
    1dd0:	27001514 	smladcs	r0, r4, r5, r1
    1dd4:	15000019 	strne	r0, [r0, #-25]	; 0xffffffe7
    1dd8:	19270115 	stmdbne	r7!, {r0, r2, r4, r8}
    1ddc:	13011349 	movwne	r1, #4937	; 0x1349
    1de0:	05160000 	ldreq	r0, [r6, #-0]
    1de4:	00134900 	andseq	r4, r3, r0, lsl #18
    1de8:	01131700 	tsteq	r3, r0, lsl #14
    1dec:	050b0e03 	streq	r0, [fp, #-3587]	; 0xfffff1fd
    1df0:	053b0b3a 	ldreq	r0, [fp, #-2874]!	; 0xfffff4c6
    1df4:	13010b39 	movwne	r0, #6969	; 0x1b39
    1df8:	0d180000 	ldceq	0, cr0, [r8, #-0]
    1dfc:	3a0e0300 	bcc	382a04 <__bss_end__+0x37889c>
    1e00:	39053b0b 	stmdbcc	r5, {r0, r1, r3, r8, r9, fp, ip, sp}
    1e04:	3813490b 	ldmdacc	r3, {r0, r1, r3, r8, fp, lr}
    1e08:	1900000b 	stmdbne	r0, {r0, r1, r3}
    1e0c:	0e03000d 	cdpeq	0, 0, cr0, cr3, cr13, {0}
    1e10:	053b0b3a 	ldreq	r0, [fp, #-2874]!	; 0xfffff4c6
    1e14:	13490b39 	movtne	r0, #39737	; 0x9b39
    1e18:	00000538 	andeq	r0, r0, r8, lsr r5
    1e1c:	0301131a 	movweq	r1, #4890	; 0x131a
    1e20:	3a0b0b0e 	bcc	2c4a60 <__bss_end__+0x2ba8f8>
    1e24:	39053b0b 	stmdbcc	r5, {r0, r1, r3, r8, r9, fp, ip, sp}
    1e28:	0013010b 	andseq	r0, r3, fp, lsl #2
    1e2c:	01131b00 	tsteq	r3, r0, lsl #22
    1e30:	0b3a0b0b 	bleq	e84a64 <__bss_end__+0xe7a8fc>
    1e34:	0b39053b 	bleq	e43328 <__bss_end__+0xe391c0>
    1e38:	00001301 	andeq	r1, r0, r1, lsl #6
    1e3c:	0b01171c 	bleq	47ab4 <__bss_end__+0x3d94c>
    1e40:	3b0b3a0b 	blcc	2d0674 <__bss_end__+0x2c650c>
    1e44:	010b3905 	tsteq	fp, r5, lsl #18
    1e48:	1d000013 	stcne	0, cr0, [r0, #-76]	; 0xffffffb4
    1e4c:	0e03000d 	cdpeq	0, 0, cr0, cr3, cr13, {0}
    1e50:	053b0b3a 	ldreq	r0, [fp, #-2874]!	; 0xfffff4c6
    1e54:	13490b39 	movtne	r0, #39737	; 0x9b39
    1e58:	151e0000 	ldrne	r0, [lr, #-0]
    1e5c:	01192701 	tsteq	r9, r1, lsl #14
    1e60:	1f000013 	svcne	0x00000013
    1e64:	0e030034 	mcreq	0, 0, r0, cr3, cr4, {1}
    1e68:	053b0b3a 	ldreq	r0, [fp, #-2874]!	; 0xfffff4c6
    1e6c:	13490b39 	movtne	r0, #39737	; 0x9b39
    1e70:	193c193f 	ldmdbne	ip!, {r0, r1, r2, r3, r4, r5, r8, fp, ip}
    1e74:	34200000 	strtcc	r0, [r0], #-0
    1e78:	3a0e0300 	bcc	382a80 <__bss_end__+0x378918>
    1e7c:	390b3b0b 	stmdbcc	fp, {r0, r1, r3, r8, r9, fp, ip, sp}
    1e80:	3f13490b 	svccc	0x0013490b
    1e84:	00193c19 	andseq	r3, r9, r9, lsl ip
    1e88:	012e2100 			; <UNDEFINED> instruction: 0x012e2100
    1e8c:	0e03193f 			; <UNDEFINED> instruction: 0x0e03193f
    1e90:	0b3b0b3a 	bleq	ec4b80 <__bss_end__+0xebaa18>
    1e94:	19270b39 	stmdbne	r7!, {r0, r3, r4, r5, r8, r9, fp}
    1e98:	06120111 			; <UNDEFINED> instruction: 0x06120111
    1e9c:	42971840 	addsmi	r1, r7, #64, 16	; 0x400000
    1ea0:	00130119 	andseq	r0, r3, r9, lsl r1
    1ea4:	00052200 	andeq	r2, r5, r0, lsl #4
    1ea8:	0b3a0803 	bleq	e83ebc <__bss_end__+0xe79d54>
    1eac:	0b390b3b 	bleq	e44ba0 <__bss_end__+0xe3aa38>
    1eb0:	17021349 	strne	r1, [r2, -r9, asr #6]
    1eb4:	001742b7 			; <UNDEFINED> instruction: 0x001742b7
    1eb8:	82892300 	addhi	r2, r9, #0, 6
    1ebc:	01110101 	tsteq	r1, r1, lsl #2
    1ec0:	00001331 	andeq	r1, r0, r1, lsr r3
    1ec4:	01828a24 	orreq	r8, r2, r4, lsr #20
    1ec8:	91180200 	tstls	r8, r0, lsl #4
    1ecc:	00001842 	andeq	r1, r0, r2, asr #16
    1ed0:	03003425 	movweq	r3, #1061	; 0x425
    1ed4:	3b0b3a08 	blcc	2d06fc <__bss_end__+0x2c6594>
    1ed8:	490b390b 	stmdbmi	fp, {r0, r1, r3, r8, fp, ip, sp}
    1edc:	b7170213 			; <UNDEFINED> instruction: 0xb7170213
    1ee0:	00001742 	andeq	r1, r0, r2, asr #14
    1ee4:	11010b26 	tstne	r1, r6, lsr #22
    1ee8:	01061201 	tsteq	r6, r1, lsl #4
    1eec:	27000013 	smladcs	r0, r3, r0, r0
    1ef0:	00018289 	andeq	r8, r1, r9, lsl #5
    1ef4:	13310111 	teqne	r1, #1073741828	; 0x40000004
    1ef8:	2e280000 	cdpcs	0, 2, cr0, cr8, cr0, {0}
    1efc:	03193f01 	tsteq	r9, #1, 30
    1f00:	3b0b3a0e 	blcc	2d0740 <__bss_end__+0x2c65d8>
    1f04:	270b390b 	strcs	r3, [fp, -fp, lsl #18]
    1f08:	11134919 	tstne	r3, r9, lsl r9
    1f0c:	40061201 	andmi	r1, r6, r1, lsl #4
    1f10:	19429718 	stmdbne	r2, {r3, r4, r8, r9, sl, ip, pc}^
    1f14:	00001301 	andeq	r1, r0, r1, lsl #6
    1f18:	03000529 	movweq	r0, #1321	; 0x529
    1f1c:	3b0b3a0e 	blcc	2d075c <__bss_end__+0x2c65f4>
    1f20:	490b390b 	stmdbmi	fp, {r0, r1, r3, r8, fp, ip, sp}
    1f24:	b7170213 			; <UNDEFINED> instruction: 0xb7170213
    1f28:	00001742 	andeq	r1, r0, r2, asr #14
    1f2c:	3f002e2a 	svccc	0x00002e2a
    1f30:	6e193c19 	mrcvs	12, 0, r3, cr9, cr9, {0}
    1f34:	3a0e030e 	bcc	382b74 <__bss_end__+0x378a0c>
    1f38:	390b3b0b 	stmdbcc	fp, {r0, r1, r3, r8, r9, fp, ip, sp}
    1f3c:	0000000b 	andeq	r0, r0, fp
    1f40:	25011101 	strcs	r1, [r1, #-257]	; 0xfffffeff
    1f44:	030b130e 	movweq	r1, #45838	; 0xb30e
    1f48:	110e1b0e 	tstne	lr, lr, lsl #22
    1f4c:	10061201 	andne	r1, r6, r1, lsl #4
    1f50:	02000017 	andeq	r0, r0, #23
    1f54:	0b0b0024 	bleq	2c1fec <__bss_end__+0x2b7e84>
    1f58:	08030b3e 	stmdaeq	r3, {r1, r2, r3, r4, r5, r8, r9, fp}
    1f5c:	24030000 	strcs	r0, [r3], #-0
    1f60:	3e0b0b00 	vmlacc.f64	d0, d11, d0
    1f64:	000e030b 	andeq	r0, lr, fp, lsl #6
    1f68:	00350400 	eorseq	r0, r5, r0, lsl #8
    1f6c:	00001349 	andeq	r1, r0, r9, asr #6
    1f70:	03001605 	movweq	r1, #1541	; 0x605
    1f74:	3b0b3a0e 	blcc	2d07b4 <__bss_end__+0x2c664c>
    1f78:	0013490b 	andseq	r4, r3, fp, lsl #18
    1f7c:	00160600 	andseq	r0, r6, r0, lsl #12
    1f80:	0b3a0e03 	bleq	e85794 <__bss_end__+0xe7b62c>
    1f84:	1349053b 	movtne	r0, #38203	; 0x953b
    1f88:	17070000 	strne	r0, [r7, -r0]
    1f8c:	3a0b0b01 	bcc	2c4b98 <__bss_end__+0x2baa30>
    1f90:	010b3b0b 	tsteq	fp, fp, lsl #22
    1f94:	08000013 	stmdaeq	r0, {r0, r1, r4}
    1f98:	0e03000d 	cdpeq	0, 0, cr0, cr3, cr13, {0}
    1f9c:	0b3b0b3a 	bleq	ec4c8c <__bss_end__+0xebab24>
    1fa0:	00001349 	andeq	r1, r0, r9, asr #6
    1fa4:	49010109 	stmdbmi	r1, {r0, r3, r8}
    1fa8:	00130113 	andseq	r0, r3, r3, lsl r1
    1fac:	00210a00 	eoreq	r0, r1, r0, lsl #20
    1fb0:	0b2f1349 	bleq	bc6cdc <__bss_end__+0xbbcb74>
    1fb4:	130b0000 	movwne	r0, #45056	; 0xb000
    1fb8:	3a0b0b01 	bcc	2c4bc4 <__bss_end__+0x2baa5c>
    1fbc:	010b3b0b 	tsteq	fp, fp, lsl #22
    1fc0:	0c000013 	stceq	0, cr0, [r0], {19}
    1fc4:	0e03000d 	cdpeq	0, 0, cr0, cr3, cr13, {0}
    1fc8:	0b3b0b3a 	bleq	ec4cb8 <__bss_end__+0xebab50>
    1fcc:	0b381349 	bleq	e06cf8 <__bss_end__+0xdfcb90>
    1fd0:	0f0d0000 	svceq	0x000d0000
    1fd4:	000b0b00 	andeq	r0, fp, r0, lsl #22
    1fd8:	000f0e00 	andeq	r0, pc, r0, lsl #28
    1fdc:	13490b0b 	movtne	r0, #39691	; 0x9b0b
    1fe0:	260f0000 	strcs	r0, [pc], -r0
    1fe4:	00134900 	andseq	r4, r3, r0, lsl #18
    1fe8:	01131000 	tsteq	r3, r0
    1fec:	0b0b0e03 	bleq	2c5800 <__bss_end__+0x2bb698>
    1ff0:	0b3b0b3a 	bleq	ec4ce0 <__bss_end__+0xebab78>
    1ff4:	00001301 	andeq	r1, r0, r1, lsl #6
    1ff8:	03000d11 	movweq	r0, #3345	; 0xd11
    1ffc:	3b0b3a08 	blcc	2d0824 <__bss_end__+0x2c66bc>
    2000:	3813490b 	ldmdacc	r3, {r0, r1, r3, r8, fp, lr}
    2004:	1200000b 	andne	r0, r0, #11
    2008:	0e030113 	mcreq	1, 0, r0, cr3, cr3, {0}
    200c:	0b3a050b 	bleq	e83440 <__bss_end__+0xe792d8>
    2010:	13010b3b 	movwne	r0, #6971	; 0x1b3b
    2014:	0d130000 	ldceq	0, cr0, [r3, #-0]
    2018:	3a0e0300 	bcc	382c20 <__bss_end__+0x378ab8>
    201c:	490b3b0b 	stmdbmi	fp, {r0, r1, r3, r8, r9, fp, ip, sp}
    2020:	00053813 	andeq	r3, r5, r3, lsl r8
    2024:	00151400 	andseq	r1, r5, r0, lsl #8
    2028:	00001927 	andeq	r1, r0, r7, lsr #18
    202c:	27011515 	smladcs	r1, r5, r5, r1
    2030:	01134919 	tsteq	r3, r9, lsl r9
    2034:	16000013 			; <UNDEFINED> instruction: 0x16000013
    2038:	13490005 	movtne	r0, #36869	; 0x9005
    203c:	13170000 	tstne	r7, #0
    2040:	0b0e0301 	bleq	382c4c <__bss_end__+0x378ae4>
    2044:	3b0b3a05 	blcc	2d0860 <__bss_end__+0x2c66f8>
    2048:	00130105 	andseq	r0, r3, r5, lsl #2
    204c:	000d1800 	andeq	r1, sp, r0, lsl #16
    2050:	0b3a0e03 	bleq	e85864 <__bss_end__+0xe7b6fc>
    2054:	1349053b 	movtne	r0, #38203	; 0x953b
    2058:	00000b38 	andeq	r0, r0, r8, lsr fp
    205c:	03000d19 	movweq	r0, #3353	; 0xd19
    2060:	3b0b3a0e 	blcc	2d08a0 <__bss_end__+0x2c6738>
    2064:	38134905 	ldmdacc	r3, {r0, r2, r8, fp, lr}
    2068:	1a000005 	bne	2084 <_start-0x5f7c>
    206c:	0e030113 	mcreq	1, 0, r0, cr3, cr3, {0}
    2070:	0b3a0b0b 	bleq	e84ca4 <__bss_end__+0xe7ab3c>
    2074:	1301053b 	movwne	r0, #5435	; 0x153b
    2078:	131b0000 	tstne	fp, #0
    207c:	3a0b0b01 	bcc	2c4c88 <__bss_end__+0x2bab20>
    2080:	01053b0b 	tsteq	r5, fp, lsl #22
    2084:	1c000013 	stcne	0, cr0, [r0], {19}
    2088:	0b0b0117 	bleq	2c24ec <__bss_end__+0x2b8384>
    208c:	053b0b3a 	ldreq	r0, [fp, #-2874]!	; 0xfffff4c6
    2090:	00001301 	andeq	r1, r0, r1, lsl #6
    2094:	03000d1d 	movweq	r0, #3357	; 0xd1d
    2098:	3b0b3a0e 	blcc	2d08d8 <__bss_end__+0x2c6770>
    209c:	00134905 	andseq	r4, r3, r5, lsl #18
    20a0:	01151e00 	tsteq	r5, r0, lsl #28
    20a4:	13011927 	movwne	r1, #6439	; 0x1927
    20a8:	341f0000 	ldrcc	r0, [pc], #-0	; 20b0 <_start-0x5f50>
    20ac:	3a0e0300 	bcc	382cb4 <__bss_end__+0x378b4c>
    20b0:	49053b0b 	stmdbmi	r5, {r0, r1, r3, r8, r9, fp, ip, sp}
    20b4:	3c193f13 	ldccc	15, cr3, [r9], {19}
    20b8:	20000019 	andcs	r0, r0, r9, lsl r0
    20bc:	0e030034 	mcreq	0, 0, r0, cr3, cr4, {1}
    20c0:	0b3b0b3a 	bleq	ec4db0 <__bss_end__+0xebac48>
    20c4:	193f1349 	ldmdbne	pc!, {r0, r3, r6, r8, r9, ip}	; <UNPREDICTABLE>
    20c8:	0000193c 	andeq	r1, r0, ip, lsr r9
    20cc:	0b010421 	bleq	43158 <__bss_end__+0x38ff0>
    20d0:	3a13490b 	bcc	4d4504 <__bss_end__+0x4ca39c>
    20d4:	010b3b0b 	tsteq	fp, fp, lsl #22
    20d8:	22000013 	andcs	r0, r0, #19
    20dc:	0e030028 	cdpeq	0, 0, cr0, cr3, cr8, {1}
    20e0:	00000b1c 	andeq	r0, r0, ip, lsl fp
    20e4:	03003423 	movweq	r3, #1059	; 0x423
    20e8:	3b0b3a0e 	blcc	2d0928 <__bss_end__+0x2c67c0>
    20ec:	1c13490b 			; <UNDEFINED> instruction: 0x1c13490b
    20f0:	24000006 	strcs	r0, [r0], #-6
    20f4:	193f012e 	ldmdbne	pc!, {r1, r2, r3, r5, r8}	; <UNPREDICTABLE>
    20f8:	0b3a0e03 	bleq	e8590c <__bss_end__+0xe7b7a4>
    20fc:	19270b3b 	stmdbne	r7!, {r0, r1, r3, r4, r5, r8, r9, fp}
    2100:	01111349 	tsteq	r1, r9, asr #6
    2104:	18400612 	stmdane	r0, {r1, r4, r9, sl}^
    2108:	01194297 			; <UNDEFINED> instruction: 0x01194297
    210c:	25000013 	strcs	r0, [r0, #-19]	; 0xffffffed
    2110:	00018289 	andeq	r8, r1, r9, lsl #5
    2114:	13310111 	teqne	r1, #1073741828	; 0x40000004
    2118:	2e260000 	cdpcs	0, 2, cr0, cr6, cr0, {0}
    211c:	03193f01 	tsteq	r9, #1, 30
    2120:	3b0b3a0e 	blcc	2d0960 <__bss_end__+0x2c67f8>
    2124:	1119270b 	tstne	r9, fp, lsl #14
    2128:	40061201 	andmi	r1, r6, r1, lsl #4
    212c:	19429718 	stmdbne	r2, {r3, r4, r8, r9, sl, ip, pc}^
    2130:	00001301 	andeq	r1, r0, r1, lsl #6
    2134:	03000527 	movweq	r0, #1319	; 0x527
    2138:	3b0b3a08 	blcc	2d0960 <__bss_end__+0x2c67f8>
    213c:	0213490b 	andseq	r4, r3, #180224	; 0x2c000
    2140:	28000017 	stmdacs	r0, {r0, r1, r2, r4}
    2144:	01018289 	smlabbeq	r1, r9, r2, r8
    2148:	13310111 	teqne	r1, #1073741828	; 0x40000004
    214c:	00001301 	andeq	r1, r0, r1, lsl #6
    2150:	01828a29 	orreq	r8, r2, r9, lsr #20
    2154:	91180200 	tstls	r8, r0, lsl #4
    2158:	00001842 	andeq	r1, r0, r2, asr #16
    215c:	0300342a 	movweq	r3, #1066	; 0x42a
    2160:	3b0b3a08 	blcc	2d0988 <__bss_end__+0x2c6820>
    2164:	0213490b 	andseq	r4, r3, #180224	; 0x2c000
    2168:	2b000018 	blcs	21d0 <_start-0x5e30>
    216c:	01018289 	smlabbeq	r1, r9, r2, r8
    2170:	13310111 	teqne	r1, #1073741828	; 0x40000004
    2174:	2e2c0000 	cdpcs	0, 2, cr0, cr12, cr0, {0}
    2178:	3a0e0301 	bcc	382d84 <__bss_end__+0x378c1c>
    217c:	270b3b0b 	strcs	r3, [fp, -fp, lsl #22]
    2180:	12011119 	andne	r1, r1, #1073741830	; 0x40000006
    2184:	97184006 	ldrls	r4, [r8, -r6]
    2188:	13011942 	movwne	r1, #6466	; 0x1942
    218c:	052d0000 	streq	r0, [sp, #-0]!
    2190:	3a0e0300 	bcc	382d98 <__bss_end__+0x378c30>
    2194:	490b3b0b 	stmdbmi	fp, {r0, r1, r3, r8, r9, fp, ip, sp}
    2198:	00170213 	andseq	r0, r7, r3, lsl r2
    219c:	00352e00 	eorseq	r2, r5, r0, lsl #28
    21a0:	2e2f0000 	cdpcs	0, 2, cr0, cr15, cr0, {0}
    21a4:	3c193f00 	ldccc	15, cr3, [r9], {-0}
    21a8:	030e6e19 	movweq	r6, #60953	; 0xee19
    21ac:	3b0b3a0e 	blcc	2d09ec <__bss_end__+0x2c6884>
    21b0:	0000000b 	andeq	r0, r0, fp
    21b4:	25011101 	strcs	r1, [r1, #-257]	; 0xfffffeff
    21b8:	030b130e 	movweq	r1, #45838	; 0xb30e
    21bc:	110e1b0e 	tstne	lr, lr, lsl #22
    21c0:	10061201 	andne	r1, r6, r1, lsl #4
    21c4:	02000017 	andeq	r0, r0, #23
    21c8:	0b0b0024 	bleq	2c2260 <__bss_end__+0x2b80f8>
    21cc:	08030b3e 	stmdaeq	r3, {r1, r2, r3, r4, r5, r8, r9, fp}
    21d0:	24030000 	strcs	r0, [r3], #-0
    21d4:	3e0b0b00 	vmlacc.f64	d0, d11, d0
    21d8:	000e030b 	andeq	r0, lr, fp, lsl #6
    21dc:	00260400 	eoreq	r0, r6, r0, lsl #8
    21e0:	00001349 	andeq	r1, r0, r9, asr #6
    21e4:	03001605 	movweq	r1, #1541	; 0x605
    21e8:	3b0b3a0e 	blcc	2d0a28 <__bss_end__+0x2c68c0>
    21ec:	0013490b 	andseq	r4, r3, fp, lsl #18
    21f0:	00160600 	andseq	r0, r6, r0, lsl #12
    21f4:	0b3a0e03 	bleq	e85a08 <__bss_end__+0xe7b8a0>
    21f8:	1349053b 	movtne	r0, #38203	; 0x953b
    21fc:	17070000 	strne	r0, [r7, -r0]
    2200:	3a0b0b01 	bcc	2c4e0c <__bss_end__+0x2baca4>
    2204:	010b3b0b 	tsteq	fp, fp, lsl #22
    2208:	08000013 	stmdaeq	r0, {r0, r1, r4}
    220c:	0e03000d 	cdpeq	0, 0, cr0, cr3, cr13, {0}
    2210:	0b3b0b3a 	bleq	ec4f00 <__bss_end__+0xebad98>
    2214:	00001349 	andeq	r1, r0, r9, asr #6
    2218:	49010109 	stmdbmi	r1, {r0, r3, r8}
    221c:	00130113 	andseq	r0, r3, r3, lsl r1
    2220:	00210a00 	eoreq	r0, r1, r0, lsl #20
    2224:	0b2f1349 	bleq	bc6f50 <__bss_end__+0xbbcde8>
    2228:	130b0000 	movwne	r0, #45056	; 0xb000
    222c:	3a0b0b01 	bcc	2c4e38 <__bss_end__+0x2bacd0>
    2230:	010b3b0b 	tsteq	fp, fp, lsl #22
    2234:	0c000013 	stceq	0, cr0, [r0], {19}
    2238:	0e03000d 	cdpeq	0, 0, cr0, cr3, cr13, {0}
    223c:	0b3b0b3a 	bleq	ec4f2c <__bss_end__+0xebadc4>
    2240:	0b381349 	bleq	e06f6c <__bss_end__+0xdfce04>
    2244:	0f0d0000 	svceq	0x000d0000
    2248:	000b0b00 	andeq	r0, fp, r0, lsl #22
    224c:	000f0e00 	andeq	r0, pc, r0, lsl #28
    2250:	13490b0b 	movtne	r0, #39691	; 0x9b0b
    2254:	130f0000 	movwne	r0, #61440	; 0xf000
    2258:	0b0e0301 	bleq	382e64 <__bss_end__+0x378cfc>
    225c:	3b0b3a0b 	blcc	2d0a90 <__bss_end__+0x2c6928>
    2260:	0013010b 	andseq	r0, r3, fp, lsl #2
    2264:	000d1000 	andeq	r1, sp, r0
    2268:	0b3a0803 	bleq	e8427c <__bss_end__+0xe7a114>
    226c:	13490b3b 	movtne	r0, #39739	; 0x9b3b
    2270:	00000b38 	andeq	r0, r0, r8, lsr fp
    2274:	03011311 	movweq	r1, #4881	; 0x1311
    2278:	3a050b0e 	bcc	144eb8 <__bss_end__+0x13ad50>
    227c:	010b3b0b 	tsteq	fp, fp, lsl #22
    2280:	12000013 	andne	r0, r0, #19
    2284:	0e03000d 	cdpeq	0, 0, cr0, cr3, cr13, {0}
    2288:	0b3b0b3a 	bleq	ec4f78 <__bss_end__+0xebae10>
    228c:	05381349 	ldreq	r1, [r8, #-841]!	; 0xfffffcb7
    2290:	15130000 	ldrne	r0, [r3, #-0]
    2294:	00192700 	andseq	r2, r9, r0, lsl #14
    2298:	01151400 	tsteq	r5, r0, lsl #8
    229c:	13491927 	movtne	r1, #39207	; 0x9927
    22a0:	00001301 	andeq	r1, r0, r1, lsl #6
    22a4:	49000515 	stmdbmi	r0, {r0, r2, r4, r8, sl}
    22a8:	16000013 			; <UNDEFINED> instruction: 0x16000013
    22ac:	0e030113 	mcreq	1, 0, r0, cr3, cr3, {0}
    22b0:	0b3a050b 	bleq	e836e4 <__bss_end__+0xe7957c>
    22b4:	1301053b 	movwne	r0, #5435	; 0x153b
    22b8:	0d170000 	ldceq	0, cr0, [r7, #-0]
    22bc:	3a0e0300 	bcc	382ec4 <__bss_end__+0x378d5c>
    22c0:	49053b0b 	stmdbmi	r5, {r0, r1, r3, r8, r9, fp, ip, sp}
    22c4:	000b3813 	andeq	r3, fp, r3, lsl r8
    22c8:	000d1800 	andeq	r1, sp, r0, lsl #16
    22cc:	0b3a0e03 	bleq	e85ae0 <__bss_end__+0xe7b978>
    22d0:	1349053b 	movtne	r0, #38203	; 0x953b
    22d4:	00000538 	andeq	r0, r0, r8, lsr r5
    22d8:	03011319 	movweq	r1, #4889	; 0x1319
    22dc:	3a0b0b0e 	bcc	2c4f1c <__bss_end__+0x2badb4>
    22e0:	01053b0b 	tsteq	r5, fp, lsl #22
    22e4:	1a000013 	bne	2338 <_start-0x5cc8>
    22e8:	0b0b0113 	bleq	2c273c <__bss_end__+0x2b85d4>
    22ec:	053b0b3a 	ldreq	r0, [fp, #-2874]!	; 0xfffff4c6
    22f0:	00001301 	andeq	r1, r0, r1, lsl #6
    22f4:	0b01171b 	bleq	47f68 <__bss_end__+0x3de00>
    22f8:	3b0b3a0b 	blcc	2d0b2c <__bss_end__+0x2c69c4>
    22fc:	00130105 	andseq	r0, r3, r5, lsl #2
    2300:	000d1c00 	andeq	r1, sp, r0, lsl #24
    2304:	0b3a0e03 	bleq	e85b18 <__bss_end__+0xe7b9b0>
    2308:	1349053b 	movtne	r0, #38203	; 0x953b
    230c:	151d0000 	ldrne	r0, [sp, #-0]
    2310:	01192701 	tsteq	r9, r1, lsl #14
    2314:	1e000013 	mcrne	0, 0, r0, cr0, cr3, {0}
    2318:	0e030034 	mcreq	0, 0, r0, cr3, cr4, {1}
    231c:	053b0b3a 	ldreq	r0, [fp, #-2874]!	; 0xfffff4c6
    2320:	193f1349 	ldmdbne	pc!, {r0, r3, r6, r8, r9, ip}	; <UNPREDICTABLE>
    2324:	0000193c 	andeq	r1, r0, ip, lsr r9
    2328:	0300341f 	movweq	r3, #1055	; 0x41f
    232c:	3b0b3a0e 	blcc	2d0b6c <__bss_end__+0x2c6a04>
    2330:	3f13490b 	svccc	0x0013490b
    2334:	00193c19 	andseq	r3, r9, r9, lsl ip
    2338:	01042000 	mrseq	r2, (UNDEF: 4)
    233c:	13490b0b 	movtne	r0, #39691	; 0x9b0b
    2340:	0b3b0b3a 	bleq	ec5030 <__bss_end__+0xebaec8>
    2344:	00001301 	andeq	r1, r0, r1, lsl #6
    2348:	03002821 	movweq	r2, #2081	; 0x821
    234c:	000b1c0e 	andeq	r1, fp, lr, lsl #24
    2350:	00342200 	eorseq	r2, r4, r0, lsl #4
    2354:	0b3a0e03 	bleq	e85b68 <__bss_end__+0xe7ba00>
    2358:	13490b3b 	movtne	r0, #39739	; 0x9b3b
    235c:	0000061c 	andeq	r0, r0, ip, lsl r6
    2360:	3f012e23 	svccc	0x00012e23
    2364:	3a0e0319 	bcc	382fd0 <__bss_end__+0x378e68>
    2368:	270b3b0b 	strcs	r3, [fp, -fp, lsl #22]
    236c:	11134919 	tstne	r3, r9, lsl r9
    2370:	40061201 	andmi	r1, r6, r1, lsl #4
    2374:	19429718 	stmdbne	r2, {r3, r4, r8, r9, sl, ip, pc}^
    2378:	00001301 	andeq	r1, r0, r1, lsl #6
    237c:	03000524 	movweq	r0, #1316	; 0x524
    2380:	3b0b3a08 	blcc	2d0ba8 <__bss_end__+0x2c6a40>
    2384:	0213490b 	andseq	r4, r3, #180224	; 0x2c000
    2388:	25000017 	strcs	r0, [r0, #-23]	; 0xffffffe9
    238c:	0e030034 	mcreq	0, 0, r0, cr3, cr4, {1}
    2390:	0b3b0b3a 	bleq	ec5080 <__bss_end__+0xebaf18>
    2394:	17021349 	strne	r1, [r2, -r9, asr #6]
    2398:	34260000 	strtcc	r0, [r6], #-0
    239c:	3a080300 	bcc	202fa4 <__bss_end__+0x1f8e3c>
    23a0:	490b3b0b 	stmdbmi	fp, {r0, r1, r3, r8, r9, fp, ip, sp}
    23a4:	00170213 	andseq	r0, r7, r3, lsl r2
    23a8:	82892700 	addhi	r2, r9, #0, 14
    23ac:	01110101 	tsteq	r1, r1, lsl #2
    23b0:	00001331 	andeq	r1, r0, r1, lsr r3
    23b4:	01828a28 	orreq	r8, r2, r8, lsr #20
    23b8:	91180200 	tstls	r8, r0, lsl #4
    23bc:	00001842 	andeq	r1, r0, r2, asr #16
    23c0:	3f012e29 	svccc	0x00012e29
    23c4:	3a0e0319 	bcc	383030 <__bss_end__+0x378ec8>
    23c8:	270b3b0b 	strcs	r3, [fp, -fp, lsl #22]
    23cc:	12011119 	andne	r1, r1, #1073741830	; 0x40000006
    23d0:	97184006 	ldrls	r4, [r8, -r6]
    23d4:	13011942 	movwne	r1, #6466	; 0x1942
    23d8:	892a0000 	stmdbhi	sl!, {}	; <UNPREDICTABLE>
    23dc:	11010182 	smlabbne	r1, r2, r1, r0
    23e0:	01133101 	tsteq	r3, r1, lsl #2
    23e4:	2b000013 	blcs	2438 <_start-0x5bc8>
    23e8:	00018289 	andeq	r8, r1, r9, lsl #5
    23ec:	13310111 	teqne	r1, #1073741828	; 0x40000004
    23f0:	052c0000 	streq	r0, [ip, #-0]!
    23f4:	3a0e0300 	bcc	382ffc <__bss_end__+0x378e94>
    23f8:	490b3b0b 	stmdbmi	fp, {r0, r1, r3, r8, r9, fp, ip, sp}
    23fc:	00170213 	andseq	r0, r7, r3, lsl r2
    2400:	00342d00 	eorseq	r2, r4, r0, lsl #26
    2404:	0b3a0803 	bleq	e84418 <__bss_end__+0xe7a2b0>
    2408:	13490b3b 	movtne	r0, #39739	; 0x9b3b
    240c:	00001802 	andeq	r1, r0, r2, lsl #16
    2410:	3f002e2e 	svccc	0x00002e2e
    2414:	6e193c19 	mrcvs	12, 0, r3, cr9, cr9, {0}
    2418:	3a0e030e 	bcc	383058 <__bss_end__+0x378ef0>
    241c:	000b3b0b 	andeq	r3, fp, fp, lsl #22
    2420:	11010000 	mrsne	r0, (UNDEF: 1)
    2424:	130e2501 	movwne	r2, #58625	; 0xe501
    2428:	1b0e030b 	blne	38305c <__bss_end__+0x378ef4>
    242c:	1201110e 	andne	r1, r1, #-2147483645	; 0x80000003
    2430:	00171006 	andseq	r1, r7, r6
    2434:	00240200 	eoreq	r0, r4, r0, lsl #4
    2438:	0b3e0b0b 	bleq	f8506c <__bss_end__+0xf7af04>
    243c:	00000803 	andeq	r0, r0, r3, lsl #16
    2440:	0b002403 	bleq	b454 <__bss_end__+0x12ec>
    2444:	030b3e0b 	movweq	r3, #48651	; 0xbe0b
    2448:	0400000e 	streq	r0, [r0], #-14
    244c:	0e030016 	mcreq	0, 0, r0, cr3, cr6, {0}
    2450:	0b3b0b3a 	bleq	ec5140 <__bss_end__+0xebafd8>
    2454:	00001349 	andeq	r1, r0, r9, asr #6
    2458:	03001605 	movweq	r1, #1541	; 0x605
    245c:	3b0b3a0e 	blcc	2d0c9c <__bss_end__+0x2c6b34>
    2460:	00134905 	andseq	r4, r3, r5, lsl #18
    2464:	01170600 	tsteq	r7, r0, lsl #12
    2468:	0b3a0b0b 	bleq	e8509c <__bss_end__+0xe7af34>
    246c:	13010b3b 	movwne	r0, #6971	; 0x1b3b
    2470:	0d070000 	stceq	0, cr0, [r7, #-0]
    2474:	3a0e0300 	bcc	38307c <__bss_end__+0x378f14>
    2478:	490b3b0b 	stmdbmi	fp, {r0, r1, r3, r8, r9, fp, ip, sp}
    247c:	08000013 	stmdaeq	r0, {r0, r1, r4}
    2480:	13490101 	movtne	r0, #37121	; 0x9101
    2484:	00001301 	andeq	r1, r0, r1, lsl #6
    2488:	49002109 	stmdbmi	r0, {r0, r3, r8, sp}
    248c:	000b2f13 	andeq	r2, fp, r3, lsl pc
    2490:	01130a00 	tsteq	r3, r0, lsl #20
    2494:	0b3a0b0b 	bleq	e850c8 <__bss_end__+0xe7af60>
    2498:	13010b3b 	movwne	r0, #6971	; 0x1b3b
    249c:	0d0b0000 	stceq	0, cr0, [fp, #-0]
    24a0:	3a0e0300 	bcc	3830a8 <__bss_end__+0x378f40>
    24a4:	490b3b0b 	stmdbmi	fp, {r0, r1, r3, r8, r9, fp, ip, sp}
    24a8:	000b3813 	andeq	r3, fp, r3, lsl r8
    24ac:	000f0c00 	andeq	r0, pc, r0, lsl #24
    24b0:	00000b0b 	andeq	r0, r0, fp, lsl #22
    24b4:	0b000f0d 	bleq	60f0 <_start-0x1f10>
    24b8:	0013490b 	andseq	r4, r3, fp, lsl #18
    24bc:	00260e00 	eoreq	r0, r6, r0, lsl #28
    24c0:	00001349 	andeq	r1, r0, r9, asr #6
    24c4:	0301130f 	movweq	r1, #4879	; 0x130f
    24c8:	3a0b0b0e 	bcc	2c5108 <__bss_end__+0x2bafa0>
    24cc:	010b3b0b 	tsteq	fp, fp, lsl #22
    24d0:	10000013 	andne	r0, r0, r3, lsl r0
    24d4:	0803000d 	stmdaeq	r3, {r0, r2, r3}
    24d8:	0b3b0b3a 	bleq	ec51c8 <__bss_end__+0xebb060>
    24dc:	0b381349 	bleq	e07208 <__bss_end__+0xdfd0a0>
    24e0:	13110000 	tstne	r1, #0
    24e4:	0b0e0301 	bleq	3830f0 <__bss_end__+0x378f88>
    24e8:	3b0b3a05 	blcc	2d0d04 <__bss_end__+0x2c6b9c>
    24ec:	0013010b 	andseq	r0, r3, fp, lsl #2
    24f0:	000d1200 	andeq	r1, sp, r0, lsl #4
    24f4:	0b3a0e03 	bleq	e85d08 <__bss_end__+0xe7bba0>
    24f8:	13490b3b 	movtne	r0, #39739	; 0x9b3b
    24fc:	00000538 	andeq	r0, r0, r8, lsr r5
    2500:	27001513 	smladcs	r0, r3, r5, r1
    2504:	14000019 	strne	r0, [r0], #-25	; 0xffffffe7
    2508:	19270115 	stmdbne	r7!, {r0, r2, r4, r8}
    250c:	13011349 	movwne	r1, #4937	; 0x1349
    2510:	05150000 	ldreq	r0, [r5, #-0]
    2514:	00134900 	andseq	r4, r3, r0, lsl #18
    2518:	01131600 	tsteq	r3, r0, lsl #12
    251c:	050b0e03 	streq	r0, [fp, #-3587]	; 0xfffff1fd
    2520:	053b0b3a 	ldreq	r0, [fp, #-2874]!	; 0xfffff4c6
    2524:	00001301 	andeq	r1, r0, r1, lsl #6
    2528:	03000d17 	movweq	r0, #3351	; 0xd17
    252c:	3b0b3a0e 	blcc	2d0d6c <__bss_end__+0x2c6c04>
    2530:	38134905 	ldmdacc	r3, {r0, r2, r8, fp, lr}
    2534:	1800000b 	stmdane	r0, {r0, r1, r3}
    2538:	0e03000d 	cdpeq	0, 0, cr0, cr3, cr13, {0}
    253c:	053b0b3a 	ldreq	r0, [fp, #-2874]!	; 0xfffff4c6
    2540:	05381349 	ldreq	r1, [r8, #-841]!	; 0xfffffcb7
    2544:	13190000 	tstne	r9, #0
    2548:	0b0e0301 	bleq	383154 <__bss_end__+0x378fec>
    254c:	3b0b3a0b 	blcc	2d0d80 <__bss_end__+0x2c6c18>
    2550:	00130105 	andseq	r0, r3, r5, lsl #2
    2554:	01131a00 	tsteq	r3, r0, lsl #20
    2558:	0b3a0b0b 	bleq	e8518c <__bss_end__+0xe7b024>
    255c:	1301053b 	movwne	r0, #5435	; 0x153b
    2560:	171b0000 	ldrne	r0, [fp, -r0]
    2564:	3a0b0b01 	bcc	2c5170 <__bss_end__+0x2bb008>
    2568:	01053b0b 	tsteq	r5, fp, lsl #22
    256c:	1c000013 	stcne	0, cr0, [r0], {19}
    2570:	0e03000d 	cdpeq	0, 0, cr0, cr3, cr13, {0}
    2574:	053b0b3a 	ldreq	r0, [fp, #-2874]!	; 0xfffff4c6
    2578:	00001349 	andeq	r1, r0, r9, asr #6
    257c:	2701151d 	smladcs	r1, sp, r5, r1
    2580:	00130119 	andseq	r0, r3, r9, lsl r1
    2584:	00341e00 	eorseq	r1, r4, r0, lsl #28
    2588:	0b3a0e03 	bleq	e85d9c <__bss_end__+0xe7bc34>
    258c:	1349053b 	movtne	r0, #38203	; 0x953b
    2590:	193c193f 	ldmdbne	ip!, {r0, r1, r2, r3, r4, r5, r8, fp, ip}
    2594:	341f0000 	ldrcc	r0, [pc], #-0	; 259c <_start-0x5a64>
    2598:	3a0e0300 	bcc	3831a0 <__bss_end__+0x379038>
    259c:	490b3b0b 	stmdbmi	fp, {r0, r1, r3, r8, r9, fp, ip, sp}
    25a0:	3c193f13 	ldccc	15, cr3, [r9], {19}
    25a4:	20000019 	andcs	r0, r0, r9, lsl r0
    25a8:	0e030034 	mcreq	0, 0, r0, cr3, cr4, {1}
    25ac:	0b3b0b3a 	bleq	ec529c <__bss_end__+0xebb134>
    25b0:	18021349 	stmdane	r2, {r0, r3, r6, r8, r9, ip}
    25b4:	2e210000 	cdpcs	0, 2, cr0, cr1, cr0, {0}
    25b8:	03193f01 	tsteq	r9, #1, 30
    25bc:	3b0b3a0e 	blcc	2d0dfc <__bss_end__+0x2c6c94>
    25c0:	1119270b 	tstne	r9, fp, lsl #14
    25c4:	40061201 	andmi	r1, r6, r1, lsl #4
    25c8:	19429718 	stmdbne	r2, {r3, r4, r8, r9, sl, ip, pc}^
    25cc:	00001301 	andeq	r1, r0, r1, lsl #6
    25d0:	03000522 	movweq	r0, #1314	; 0x522
    25d4:	3b0b3a08 	blcc	2d0dfc <__bss_end__+0x2c6c94>
    25d8:	0213490b 	andseq	r4, r3, #180224	; 0x2c000
    25dc:	23000018 	movwcs	r0, #24
    25e0:	193f002e 	ldmdbne	pc!, {r1, r2, r3, r5}	; <UNPREDICTABLE>
    25e4:	0b3a0e03 	bleq	e85df8 <__bss_end__+0xe7bc90>
    25e8:	19270b3b 	stmdbne	r7!, {r0, r1, r3, r4, r5, r8, r9, fp}
    25ec:	06120111 			; <UNDEFINED> instruction: 0x06120111
    25f0:	42971840 	addsmi	r1, r7, #64, 16	; 0x400000
    25f4:	24000019 	strcs	r0, [r0], #-25	; 0xffffffe7
    25f8:	193f012e 	ldmdbne	pc!, {r1, r2, r3, r5, r8}	; <UNPREDICTABLE>
    25fc:	0b3a0e03 	bleq	e85e10 <__bss_end__+0xe7bca8>
    2600:	19270b3b 	stmdbne	r7!, {r0, r1, r3, r4, r5, r8, r9, fp}
    2604:	01111349 	tsteq	r1, r9, asr #6
    2608:	18400612 	stmdane	r0, {r1, r4, r9, sl}^
    260c:	01194297 			; <UNDEFINED> instruction: 0x01194297
    2610:	25000013 	strcs	r0, [r0, #-19]	; 0xffffffed
    2614:	0e030005 	cdpeq	0, 0, cr0, cr3, cr5, {0}
    2618:	0b3b0b3a 	bleq	ec5308 <__bss_end__+0xebb1a0>
    261c:	17021349 	strne	r1, [r2, -r9, asr #6]
    2620:	34260000 	strtcc	r0, [r6], #-0
    2624:	490e0300 	stmdbmi	lr, {r8, r9}
    2628:	02193413 	andseq	r3, r9, #318767104	; 0x13000000
    262c:	27000018 	smladcs	r0, r8, r0, r0
    2630:	08030034 	stmdaeq	r3, {r2, r4, r5}
    2634:	0b3b0b3a 	bleq	ec5324 <__bss_end__+0xebb1bc>
    2638:	17021349 	strne	r1, [r2, -r9, asr #6]
    263c:	89280000 	stmdbhi	r8!, {}	; <UNPREDICTABLE>
    2640:	11010182 	smlabbne	r1, r2, r1, r0
    2644:	01133101 	tsteq	r3, r1, lsl #2
    2648:	29000013 	stmdbcs	r0, {r0, r1, r4}
    264c:	0001828a 	andeq	r8, r1, sl, lsl #5
    2650:	42911802 	addsmi	r1, r1, #131072	; 0x20000
    2654:	2a000018 	bcs	26bc <_start-0x5944>
    2658:	00018289 	andeq	r8, r1, r9, lsl #5
    265c:	13310111 	teqne	r1, #1073741828	; 0x40000004
    2660:	052b0000 	streq	r0, [fp, #-0]!
    2664:	3a080300 	bcc	20326c <__bss_end__+0x1f9104>
    2668:	490b3b0b 	stmdbmi	fp, {r0, r1, r3, r8, r9, fp, ip, sp}
    266c:	00170213 	andseq	r0, r7, r3, lsl r2
    2670:	00342c00 	eorseq	r2, r4, r0, lsl #24
    2674:	0b3a0e03 	bleq	e85e88 <__bss_end__+0xe7bd20>
    2678:	13490b3b 	movtne	r0, #39739	; 0x9b3b
    267c:	00001702 	andeq	r1, r0, r2, lsl #14
    2680:	3f002e2d 	svccc	0x00002e2d
    2684:	3a0e0319 	bcc	3832f0 <__bss_end__+0x379188>
    2688:	270b3b0b 	strcs	r3, [fp, -fp, lsl #22]
    268c:	11134919 	tstne	r3, r9, lsl r9
    2690:	40061201 	andmi	r1, r6, r1, lsl #4
    2694:	19429718 	stmdbne	r2, {r3, r4, r8, r9, sl, ip, pc}^
    2698:	2e2e0000 	cdpcs	0, 2, cr0, cr14, cr0, {0}
    269c:	3c193f00 	ldccc	15, cr3, [r9], {-0}
    26a0:	030e6e19 	movweq	r6, #60953	; 0xee19
    26a4:	3b0b3a0e 	blcc	2d0ee4 <__bss_end__+0x2c6d7c>
    26a8:	0000000b 	andeq	r0, r0, fp

Disassembly of section .debug_loc:

00000000 <.debug_loc>:
       0:	00000000 	andeq	r0, r0, r0
       4:	000000d0 	ldrdeq	r0, [r0], -r0	; <UNPREDICTABLE>
       8:	000000d8 	ldrdeq	r0, [r0], -r8
       c:	d8530001 	ldmdale	r3, {r0}^
      10:	e3000000 	movw	r0, #0
      14:	25000000 	strcs	r0, [r0, #-0]
      18:	70007000 	andvc	r7, r0, r0
      1c:	f72cf700 			; <UNDEFINED> instruction: 0xf72cf700
      20:	0825f425 	stmdaeq	r5!, {r0, r2, r5, sl, ip, sp, lr, pc}
      24:	aaaaaaab 	bge	feaaaad8 <__bss_end__+0xfeaa0970>
      28:	00000000 	andeq	r0, r0, r0
      2c:	f720081e 			; <UNDEFINED> instruction: 0xf720081e
      30:	2cf72525 	cfldr64cs	mvdx2, [r7], #148	; 0x94
      34:	253200f7 	ldrcs	r0, [r2, #-247]!	; 0xffffff09
      38:	24311e33 	ldrtcs	r1, [r1], #-3635	; 0xfffff1cd
      3c:	00009f1c 	andeq	r9, r0, ip, lsl pc
	...
      48:	00dc0000 	sbcseq	r0, ip, r0
      4c:	01380000 	teqeq	r8, r0
      50:	00010000 	andeq	r0, r1, r0
      54:	00015456 	andeq	r5, r1, r6, asr r4
      58:	00019800 	andeq	r9, r1, r0, lsl #16
      5c:	56000100 	strpl	r0, [r0], -r0, lsl #2
	...
      6c:	000000ec 	andeq	r0, r0, ip, ror #1
      70:	00000138 	andeq	r0, r0, r8, lsr r1
      74:	54540001 	ldrbpl	r0, [r4], #-1
      78:	98000001 	stmdals	r0, {r0}
      7c:	01000001 	tsteq	r0, r1
      80:	00005400 	andeq	r5, r0, r0, lsl #8
      84:	00000000 	andeq	r0, r0, r0
      88:	00050000 	andeq	r0, r5, r0
      8c:	00280000 	eoreq	r0, r8, r0
      90:	002c0000 	eoreq	r0, ip, r0
      94:	00020000 	andeq	r0, r2, r0
      98:	002c9f30 	eoreq	r9, ip, r0, lsr pc
      9c:	006c0000 	rsbeq	r0, ip, r0
      a0:	00010000 	andeq	r0, r1, r0
      a4:	00000054 	andeq	r0, r0, r4, asr r0
	...
      b0:	00006c00 	andeq	r6, r0, r0, lsl #24
      b4:	0000e000 	andeq	lr, r0, r0
      b8:	54000100 	strpl	r0, [r0], #-256	; 0xffffff00
      bc:	00000138 	andeq	r0, r0, r8, lsr r1
      c0:	00000154 	andeq	r0, r0, r4, asr r1
      c4:	00540001 	subseq	r0, r4, r1
	...
      d0:	00072c00 	andeq	r2, r7, r0, lsl #24
      d4:	00075400 	andeq	r5, r7, r0, lsl #8
      d8:	55000100 	strpl	r0, [r0, #-256]	; 0xffffff00
	...
      e4:	07340000 	ldreq	r0, [r4, -r0]!
      e8:	07580000 	ldrbeq	r0, [r8, -r0]
      ec:	00010000 	andeq	r0, r1, r0
      f0:	00000056 	andeq	r0, r0, r6, asr r0
      f4:	00000000 	andeq	r0, r0, r0
      f8:	00000200 	andeq	r0, r0, r0, lsl #4
      fc:	00074c00 	andeq	r4, r7, r0, lsl #24
     100:	00075c00 	andeq	r5, r7, r0, lsl #24
     104:	30000200 	andcc	r0, r0, r0, lsl #4
     108:	00075c9f 	muleq	r7, pc, ip	; <UNPREDICTABLE>
     10c:	00086800 	andeq	r6, r8, r0, lsl #16
     110:	56000100 	strpl	r0, [r0], -r0, lsl #2
	...
     11c:	00000003 	andeq	r0, r0, r3
     120:	0000074c 	andeq	r0, r0, ip, asr #14
     124:	0000075c 	andeq	r0, r0, ip, asr r7
     128:	9f300002 	svcls	0x00300002
     12c:	0000075c 	andeq	r0, r0, ip, asr r7
     130:	00000868 	andeq	r0, r0, r8, ror #16
     134:	00550001 	subseq	r0, r5, r1
	...
     140:	00075000 	andeq	r5, r7, r0
     144:	00086800 	andeq	r6, r8, r0, lsl #16
     148:	54000100 	strpl	r0, [r0], #-256	; 0xffffff00
	...
     15c:	04fc0000 	ldrbteq	r0, [ip], #0
     160:	05280000 	streq	r0, [r8, #-0]!
     164:	00010000 	andeq	r0, r1, r0
     168:	00052850 	andeq	r2, r5, r0, asr r8
     16c:	00062400 	andeq	r2, r6, r0, lsl #8
     170:	55000100 	strpl	r0, [r0, #-256]	; 0xffffff00
     174:	00000624 	andeq	r0, r0, r4, lsr #12
     178:	00000627 	andeq	r0, r0, r7, lsr #12
     17c:	27500001 	ldrbcs	r0, [r0, -r1]
     180:	40000006 	andmi	r0, r0, r6
     184:	04000006 	streq	r0, [r0], #-6
     188:	5001f300 	andpl	pc, r1, r0, lsl #6
     18c:	0006409f 	muleq	r6, pc, r0	; <UNPREDICTABLE>
     190:	00071800 	andeq	r1, r7, r0, lsl #16
     194:	55000100 	strpl	r0, [r0, #-256]	; 0xffffff00
	...
     1a8:	04fc0000 	ldrbteq	r0, [ip], #0
     1ac:	052b0000 	streq	r0, [fp, #-0]!
     1b0:	00010000 	andeq	r0, r1, r0
     1b4:	00052b51 	andeq	r2, r5, r1, asr fp
     1b8:	00062400 	andeq	r2, r6, r0, lsl #8
     1bc:	58000100 	stmdapl	r0, {r8}
     1c0:	00000624 	andeq	r0, r0, r4, lsr #12
     1c4:	00000627 	andeq	r0, r0, r7, lsr #12
     1c8:	27510001 	ldrbcs	r0, [r1, -r1]
     1cc:	40000006 	andmi	r0, r0, r6
     1d0:	04000006 	streq	r0, [r0], #-6
     1d4:	5101f300 	mrspl	pc, SP_irq	; <UNPREDICTABLE>
     1d8:	0006409f 	muleq	r6, pc, r0	; <UNPREDICTABLE>
     1dc:	00071800 	andeq	r1, r7, r0, lsl #16
     1e0:	58000100 	stmdapl	r0, {r8}
	...
     1f4:	04fc0000 	ldrbteq	r0, [ip], #0
     1f8:	052b0000 	streq	r0, [fp, #-0]!
     1fc:	00010000 	andeq	r0, r1, r0
     200:	00052b52 	andeq	r2, r5, r2, asr fp
     204:	00062400 	andeq	r2, r6, r0, lsl #8
     208:	57000100 	strpl	r0, [r0, -r0, lsl #2]
     20c:	00000624 	andeq	r0, r0, r4, lsr #12
     210:	00000627 	andeq	r0, r0, r7, lsr #12
     214:	27520001 	ldrbcs	r0, [r2, -r1]
     218:	40000006 	andmi	r0, r0, r6
     21c:	04000006 	streq	r0, [r0], #-6
     220:	5201f300 	andpl	pc, r1, #0, 6
     224:	0006409f 	muleq	r6, pc, r0	; <UNPREDICTABLE>
     228:	00071800 	andeq	r1, r7, r0, lsl #16
     22c:	57000100 	strpl	r0, [r0, -r0, lsl #2]
	...
     240:	04fc0000 	ldrbteq	r0, [ip], #0
     244:	050c0000 	streq	r0, [ip, #-0]
     248:	00010000 	andeq	r0, r1, r0
     24c:	00050c53 	andeq	r0, r5, r3, asr ip
     250:	0005b000 	andeq	fp, r5, r0
     254:	56000100 	strpl	r0, [r0], -r0, lsl #2
     258:	000005b0 			; <UNDEFINED> instruction: 0x000005b0
     25c:	00000624 	andeq	r0, r0, r4, lsr #12
     260:	01f30004 	mvnseq	r0, r4
     264:	06249f53 	qsaxeq	r9, r4, r3
     268:	06c80000 	strbeq	r0, [r8], r0
     26c:	00010000 	andeq	r0, r1, r0
     270:	0006c856 	andeq	ip, r6, r6, asr r8
     274:	00071800 	andeq	r1, r7, r0, lsl #16
     278:	f3000400 	vshl.u8	d0, d0, d0
     27c:	009f5301 	addseq	r5, pc, r1, lsl #6
     280:	00000000 	andeq	r0, r0, r0
     284:	01000000 	mrseq	r0, (UNDEF: 0)
     288:	00000303 	andeq	r0, r0, r3, lsl #6
     28c:	08000000 	stmdaeq	r0, {}	; <UNPREDICTABLE>
     290:	64000005 	strvs	r0, [r0], #-5
     294:	02000005 	andeq	r0, r0, #5
     298:	649f3000 	ldrvs	r3, [pc], #0	; 2a0 <_start-0x7d60>
     29c:	fc000005 	stc2	0, cr0, [r0], {5}
     2a0:	01000005 	tsteq	r0, r5
     2a4:	06245400 	strteq	r5, [r4], -r0, lsl #8
     2a8:	06c80000 	strbeq	r0, [r8], r0
     2ac:	00020000 	andeq	r0, r2, r0
     2b0:	06c89f30 			; <UNDEFINED> instruction: 0x06c89f30
     2b4:	07180000 	ldreq	r0, [r8, -r0]
     2b8:	00010000 	andeq	r0, r1, r0
     2bc:	00000054 	andeq	r0, r0, r4, asr r0
     2c0:	00000000 	andeq	r0, r0, r0
     2c4:	00000200 	andeq	r0, r0, r0, lsl #4
     2c8:	00000000 	andeq	r0, r0, r0
     2cc:	00050800 	andeq	r0, r5, r0, lsl #16
     2d0:	0005fc00 	andeq	pc, r5, r0, lsl #24
     2d4:	30000200 	andcc	r0, r0, r0, lsl #4
     2d8:	0005fc9f 	muleq	r5, pc, ip	; <UNPREDICTABLE>
     2dc:	00060000 	andeq	r0, r6, r0
     2e0:	50000100 	andpl	r0, r0, r0, lsl #2
     2e4:	00000600 	andeq	r0, r0, r0, lsl #12
     2e8:	00000624 	andeq	r0, r0, r4, lsr #12
     2ec:	24540001 	ldrbcs	r0, [r4], #-1
     2f0:	18000006 	stmdane	r0, {r1, r2}
     2f4:	02000007 	andeq	r0, r0, #7
     2f8:	009f3000 	addseq	r3, pc, r0
	...
     30c:	40000000 	andmi	r0, r0, r0
     310:	6c000005 	stcvs	0, cr0, [r0], {5}
     314:	01000005 	tsteq	r0, r5
     318:	056c5000 	strbeq	r5, [ip, #-0]!
     31c:	06240000 	strteq	r0, [r4], -r0
     320:	00040000 	andeq	r0, r4, r0
     324:	9f7dc879 	svcls	0x007dc879
     328:	00000640 	andeq	r0, r0, r0, asr #12
     32c:	00000644 	andeq	r0, r0, r4, asr #12
     330:	44500001 	ldrbmi	r0, [r0], #-1
     334:	74000006 	strvc	r0, [r0], #-6
     338:	04000006 	streq	r0, [r0], #-6
     33c:	7dc87900 	vstrvc.16	s15, [r8]	; <UNPREDICTABLE>
     340:	0006749f 	muleq	r6, pc, r4	; <UNPREDICTABLE>
     344:	00067800 	andeq	r7, r6, r0, lsl #16
     348:	50000100 	andpl	r0, r0, r0, lsl #2
     34c:	00000678 	andeq	r0, r0, r8, ror r6
     350:	00000718 	andeq	r0, r0, r8, lsl r7
     354:	c8790004 	ldmdagt	r9!, {r2}^
     358:	00009f7d 	andeq	r9, r0, sp, ror pc
	...
     364:	05440000 	strbeq	r0, [r4, #-0]
     368:	06240000 	strteq	r0, [r4], -r0
     36c:	00010000 	andeq	r0, r1, r0
     370:	00064059 	andeq	r4, r6, r9, asr r0
     374:	00071800 	andeq	r1, r7, r0, lsl #16
     378:	59000100 	stmdbpl	r0, {r8}
	...
     388:	00000444 	andeq	r0, r0, r4, asr #8
     38c:	0000045b 	andeq	r0, r0, fp, asr r4
     390:	5b500001 	blpl	140039c <__bss_end__+0x13f6234>
     394:	fc000004 	stc2	0, cr0, [r0], {4}
     398:	01000004 	tsteq	r0, r4
     39c:	00005500 	andeq	r5, r0, r0, lsl #10
	...
     3a8:	04440000 	strbeq	r0, [r4], #-0
     3ac:	045b0000 	ldrbeq	r0, [fp], #-0
     3b0:	00010000 	andeq	r0, r1, r0
     3b4:	00045b51 	andeq	r5, r4, r1, asr fp
     3b8:	0004fc00 	andeq	pc, r4, r0, lsl #24
     3bc:	57000100 	strpl	r0, [r0, -r0, lsl #2]
	...
     3cc:	00000444 	andeq	r0, r0, r4, asr #8
     3d0:	0000045b 	andeq	r0, r0, fp, asr r4
     3d4:	5b520001 	blpl	14803e0 <__bss_end__+0x1476278>
     3d8:	fc000004 	stc2	0, cr0, [r0], {4}
     3dc:	01000004 	tsteq	r0, r4
     3e0:	00005600 	andeq	r5, r0, r0, lsl #12
	...
     3ec:	04440000 	strbeq	r0, [r4], #-0
     3f0:	045b0000 	ldrbeq	r0, [fp], #-0
     3f4:	00010000 	andeq	r0, r1, r0
     3f8:	00045b53 	andeq	r5, r4, r3, asr fp
     3fc:	0004fc00 	andeq	pc, r4, r0, lsl #24
     400:	58000100 	stmdapl	r0, {r8}
	...
     410:	045c0000 	ldrbeq	r0, [ip], #-0
     414:	04740000 	ldrbteq	r0, [r4], #-0
     418:	00010000 	andeq	r0, r1, r0
     41c:	00047450 	andeq	r7, r4, r0, asr r4
     420:	0004c800 	andeq	ip, r4, r0, lsl #16
     424:	54000100 	strpl	r0, [r0], #-256	; 0xffffff00
     428:	000004c8 	andeq	r0, r0, r8, asr #9
     42c:	000004cb 	andeq	r0, r0, fp, asr #9
     430:	00500001 	subseq	r0, r0, r1
	...
     43c:	6c000000 	stcvs	0, cr0, [r0], {-0}
     440:	77000003 	strvc	r0, [r0, -r3]
     444:	01000003 	tsteq	r0, r3
     448:	03775000 	cmneq	r7, #0
     44c:	03d00000 	bicseq	r0, r0, #0
     450:	00010000 	andeq	r0, r1, r0
     454:	00000054 	andeq	r0, r0, r4, asr r0
	...
     460:	00015000 	andeq	r5, r1, r0
     464:	00015f00 	andeq	r5, r1, r0, lsl #30
     468:	50000100 	andpl	r0, r0, r0, lsl #2
     46c:	0000015f 	andeq	r0, r0, pc, asr r1
     470:	00000164 	andeq	r0, r0, r4, ror #2
     474:	01f30004 	mvnseq	r0, r4
     478:	00009f50 	andeq	r9, r0, r0, asr pc
	...
     488:	00000150 	andeq	r0, r0, r0, asr r1
     48c:	0000015c 	andeq	r0, r0, ip, asr r1
     490:	5c510001 	mrrcpl	0, 0, r0, r1, cr1
     494:	5f000001 	svcpl	0x00000001
     498:	01000001 	tsteq	r0, r1
     49c:	015f5200 	cmpeq	pc, r0, lsl #4
     4a0:	01640000 	cmneq	r4, r0
     4a4:	00040000 	andeq	r0, r4, r0
     4a8:	9f5101f3 	svcls	0x005101f3
	...
     4bc:	00000044 	andeq	r0, r0, r4, asr #32
     4c0:	00000070 	andeq	r0, r0, r0, ror r0
     4c4:	70500001 	subsvc	r0, r0, r1
     4c8:	2c000000 	stccs	0, cr0, [r0], {-0}
     4cc:	01000001 	tsteq	r0, r1
     4d0:	012c5500 			; <UNDEFINED> instruction: 0x012c5500
     4d4:	01300000 	teqeq	r0, r0
     4d8:	00010000 	andeq	r0, r1, r0
     4dc:	00013050 	andeq	r3, r1, r0, asr r0
     4e0:	00015000 	andeq	r5, r1, r0
     4e4:	55000100 	strpl	r0, [r0, #-256]	; 0xffffff00
	...
     4f4:	00440000 	subeq	r0, r4, r0
     4f8:	00730000 	rsbseq	r0, r3, r0
     4fc:	00010000 	andeq	r0, r1, r0
     500:	00007351 	andeq	r7, r0, r1, asr r3
     504:	00012c00 	andeq	r2, r1, r0, lsl #24
     508:	f3000400 	vshl.u8	d0, d0, d0
     50c:	2c9f5101 	ldfcss	f5, [pc], {1}
     510:	50000001 	andpl	r0, r0, r1
     514:	01000001 	tsteq	r0, r1
     518:	00005100 	andeq	r5, r0, r0, lsl #2
	...
     528:	00000044 	andeq	r0, r0, r4, asr #32
     52c:	00000073 	andeq	r0, r0, r3, ror r0
     530:	73520001 	cmpvc	r2, #1
     534:	2c000000 	stccs	0, cr0, [r0], {-0}
     538:	01000001 	tsteq	r0, r1
     53c:	012c5600 			; <UNDEFINED> instruction: 0x012c5600
     540:	01500000 	cmpeq	r0, r0
     544:	00010000 	andeq	r0, r1, r0
     548:	00000052 	andeq	r0, r0, r2, asr r0
     54c:	00000000 	andeq	r0, r0, r0
     550:	00000200 	andeq	r0, r0, r0, lsl #4
     554:	50000000 	andpl	r0, r0, r0
     558:	54000000 	strpl	r0, [r0], #-0
     55c:	02000000 	andeq	r0, r0, #0
     560:	549f3000 	ldrpl	r3, [pc], #0	; 568 <_start-0x7a98>
     564:	7c000000 	stcvc	0, cr0, [r0], {-0}
     568:	01000000 	mrseq	r0, (UNDEF: 0)
     56c:	012c5400 			; <UNDEFINED> instruction: 0x012c5400
     570:	01500000 	cmpeq	r0, r0
     574:	00010000 	andeq	r0, r1, r0
     578:	00000054 	andeq	r0, r0, r4, asr r0
     57c:	00000000 	andeq	r0, r0, r0
     580:	7c000000 	stcvc	0, cr0, [r0], {-0}
     584:	2c000000 	stccs	0, cr0, [r0], {-0}
     588:	01000001 	tsteq	r0, r1
     58c:	00005400 	andeq	r5, r0, r0, lsl #8
     590:	00000000 	andeq	r0, r0, r0
     594:	01010000 	mrseq	r0, (UNDEF: 1)
     598:	00a00000 	adceq	r0, r0, r0
     59c:	00e80000 	rsceq	r0, r8, r0
     5a0:	00010000 	andeq	r0, r1, r0
     5a4:	00010056 	andeq	r0, r1, r6, asr r0
     5a8:	00012c00 	andeq	r2, r1, r0, lsl #24
     5ac:	56000100 	strpl	r0, [r0], -r0, lsl #2
	...
     5b8:	00020202 	andeq	r0, r2, r2, lsl #4
     5bc:	000000b4 	strheq	r0, [r0], -r4
     5c0:	000000dc 	ldrdeq	r0, [r0], -ip
     5c4:	10760003 	rsbsne	r0, r6, r3
     5c8:	0000dc9f 	muleq	r0, pc, ip	; <UNPREDICTABLE>
     5cc:	00012c00 	andeq	r2, r1, r0, lsl #24
     5d0:	76000300 	strvc	r0, [r0], -r0, lsl #6
     5d4:	00009f1c 	andeq	r9, r0, ip, lsl pc
	...
     5e4:	02700000 	rsbseq	r0, r0, #0
     5e8:	029c0000 	addseq	r0, ip, #0
     5ec:	00010000 	andeq	r0, r1, r0
     5f0:	00029c50 	andeq	r9, r2, r0, asr ip
     5f4:	00034c00 	andeq	r4, r3, r0, lsl #24
     5f8:	55000100 	strpl	r0, [r0, #-256]	; 0xffffff00
     5fc:	0000034c 	andeq	r0, r0, ip, asr #6
     600:	00000350 	andeq	r0, r0, r0, asr r3
     604:	50500001 	subspl	r0, r0, r1
     608:	6c000003 	stcvs	0, cr0, [r0], {3}
     60c:	01000003 	tsteq	r0, r3
     610:	00005500 	andeq	r5, r0, r0, lsl #10
	...
     620:	00000270 	andeq	r0, r0, r0, ror r2
     624:	0000029f 	muleq	r0, pc, r2	; <UNPREDICTABLE>
     628:	9f510001 	svcls	0x00510001
     62c:	4c000002 	stcmi	0, cr0, [r0], {2}
     630:	04000003 	streq	r0, [r0], #-3
     634:	5101f300 	mrspl	pc, SP_irq	; <UNPREDICTABLE>
     638:	00034c9f 	muleq	r3, pc, ip	; <UNPREDICTABLE>
     63c:	00036c00 	andeq	r6, r3, r0, lsl #24
     640:	51000100 	mrspl	r0, (UNDEF: 16)
	...
     650:	02700000 	rsbseq	r0, r0, #0
     654:	029f0000 	addseq	r0, pc, #0
     658:	00010000 	andeq	r0, r1, r0
     65c:	00029f52 	andeq	r9, r2, r2, asr pc
     660:	00034c00 	andeq	r4, r3, r0, lsl #24
     664:	56000100 	strpl	r0, [r0], -r0, lsl #2
     668:	0000034c 	andeq	r0, r0, ip, asr #6
     66c:	0000036c 	andeq	r0, r0, ip, ror #6
     670:	00520001 	subseq	r0, r2, r1
     674:	00000000 	andeq	r0, r0, r0
     678:	02000000 	andeq	r0, r0, #0
     67c:	00000000 	andeq	r0, r0, r0
     680:	00027c00 	andeq	r7, r2, r0, lsl #24
     684:	00028000 	andeq	r8, r2, r0
     688:	30000200 	andcc	r0, r0, r0, lsl #4
     68c:	0002809f 	muleq	r2, pc, r0	; <UNPREDICTABLE>
     690:	0002a800 	andeq	sl, r2, r0, lsl #16
     694:	54000100 	strpl	r0, [r0], #-256	; 0xffffff00
     698:	0000034c 	andeq	r0, r0, ip, asr #6
     69c:	0000036c 	andeq	r0, r0, ip, ror #6
     6a0:	00540001 	subseq	r0, r4, r1
	...
     6ac:	0002a800 	andeq	sl, r2, r0, lsl #16
     6b0:	00034c00 	andeq	r4, r3, r0, lsl #24
     6b4:	54000100 	strpl	r0, [r0], #-256	; 0xffffff00
	...
     6c0:	02d00001 	sbcseq	r0, r0, #1
     6c4:	034c0000 	movteq	r0, #49152	; 0xc000
     6c8:	00010000 	andeq	r0, r1, r0
     6cc:	00000056 	andeq	r0, r0, r6, asr r0
     6d0:	00000000 	andeq	r0, r0, r0
     6d4:	02020200 	andeq	r0, r2, #0, 4
     6d8:	0002e400 	andeq	lr, r2, r0, lsl #8
     6dc:	00030c00 	andeq	r0, r3, r0, lsl #24
     6e0:	76000300 	strvc	r0, [r0], -r0, lsl #6
     6e4:	030c9f10 	movweq	r9, #53008	; 0xcf10
     6e8:	034c0000 	movteq	r0, #49152	; 0xc000
     6ec:	00030000 	andeq	r0, r3, r0
     6f0:	009f1c76 	addseq	r1, pc, r6, ror ip	; <UNPREDICTABLE>
	...
     6fc:	88000000 	stmdahi	r0, {}	; <UNPREDICTABLE>
     700:	a7000001 	strge	r0, [r0, -r1]
     704:	01000001 	tsteq	r0, r1
     708:	01a75000 			; <UNDEFINED> instruction: 0x01a75000
     70c:	02700000 	rsbseq	r0, r0, #0
     710:	00010000 	andeq	r0, r1, r0
     714:	00000054 	andeq	r0, r0, r4, asr r0
     718:	00000000 	andeq	r0, r0, r0
     71c:	d4000100 	strle	r0, [r0], #-256	; 0xffffff00
     720:	50000001 	andpl	r0, r0, r1
     724:	01000002 	tsteq	r0, r2
     728:	00005400 	andeq	r5, r0, r0, lsl #8
     72c:	00000000 	andeq	r0, r0, r0
     730:	02020000 	andeq	r0, r2, #0
     734:	01e80002 	mvneq	r0, r2
     738:	02100000 	andseq	r0, r0, #0
     73c:	00030000 	andeq	r0, r3, r0
     740:	109f1074 	addsne	r1, pc, r4, ror r0	; <UNPREDICTABLE>
     744:	50000002 	andpl	r0, r0, r2
     748:	03000002 	movweq	r0, #2
     74c:	9f1c7400 	svcls	0x001c7400
	...
     75c:	00000164 	andeq	r0, r0, r4, ror #2
     760:	0000017f 	andeq	r0, r0, pc, ror r1
     764:	7f500001 	svcvc	0x00500001
     768:	88000001 	stmdahi	r0, {r0}
     76c:	01000001 	tsteq	r0, r1
     770:	00005400 	andeq	r5, r0, r0, lsl #8
	...
     77c:	00000170 	andeq	r0, r0, r0, ror r1
     780:	00000188 	andeq	r0, r0, r8, lsl #3
     784:	00550001 	subseq	r0, r5, r1
	...
     790:	00018000 	andeq	r8, r1, r0
     794:	00018800 	andeq	r8, r1, r0, lsl #16
     798:	50000100 	andpl	r0, r0, r0, lsl #2
	...
     7a8:	0000003c 	andeq	r0, r0, ip, lsr r0
     7ac:	00000040 	andeq	r0, r0, r0, asr #32
     7b0:	40500001 	subsmi	r0, r0, r1
     7b4:	44000000 	strmi	r0, [r0], #-0
     7b8:	04000000 	streq	r0, [r0], #-0
     7bc:	01b87000 			; <UNDEFINED> instruction: 0x01b87000
     7c0:	0000009f 	muleq	r0, pc, r0	; <UNPREDICTABLE>
	...
     7cc:	00003000 	andeq	r3, r0, r0
     7d0:	00003400 	andeq	r3, r0, r0, lsl #8
     7d4:	50000100 	andpl	r0, r0, r0, lsl #2
     7d8:	00000034 	andeq	r0, r0, r4, lsr r0
     7dc:	0000003c 	andeq	r0, r0, ip, lsr r0
     7e0:	01f30004 	mvnseq	r0, r4
     7e4:	00009f50 	andeq	r9, r0, r0, asr pc
	...
     7f0:	00180000 	andseq	r0, r8, r0
     7f4:	00230000 	eoreq	r0, r3, r0
     7f8:	00010000 	andeq	r0, r1, r0
     7fc:	00002350 	andeq	r2, r0, r0, asr r3
     800:	00003000 	andeq	r3, r0, r0
     804:	54000100 	strpl	r0, [r0], #-256	; 0xffffff00
	...
     814:	00000008 	andeq	r0, r0, r8
     818:	0000000f 	andeq	r0, r0, pc
     81c:	0f500001 	svceq	0x00500001
     820:	18000000 	stmdane	r0, {}	; <UNPREDICTABLE>
     824:	04000000 	streq	r0, [r0], #-0
     828:	5001f300 	andpl	pc, r1, r0, lsl #6
     82c:	0000009f 	muleq	r0, pc, r0	; <UNPREDICTABLE>
	...
     83c:	00000400 	andeq	r0, r0, r0, lsl #8
     840:	50000100 	andpl	r0, r0, r0, lsl #2
     844:	00000004 	andeq	r0, r0, r4
     848:	00000008 	andeq	r0, r0, r8
     84c:	48700003 	ldmdami	r0!, {r0, r1}^
     850:	0000009f 	muleq	r0, pc, r0	; <UNPREDICTABLE>
	...
     860:	d0000000 	andle	r0, r0, r0
     864:	f8000003 			; <UNDEFINED> instruction: 0xf8000003
     868:	01000003 	tsteq	r0, r3
     86c:	03f85000 	mvnseq	r5, #0
     870:	040c0000 	streq	r0, [ip], #-0
     874:	00010000 	andeq	r0, r1, r0
     878:	00040c54 	andeq	r0, r4, r4, asr ip
     87c:	00041400 	andeq	r1, r4, r0, lsl #8
     880:	03000500 	movweq	r0, #1280	; 0x500
     884:	00009d5c 	andeq	r9, r0, ip, asr sp
     888:	00000414 	andeq	r0, r0, r4, lsl r4
     88c:	00000417 	andeq	r0, r0, r7, lsl r4
     890:	17500001 	ldrbne	r0, [r0, -r1]
     894:	44000004 	strmi	r0, [r0], #-4
     898:	04000004 	streq	r0, [r0], #-4
     89c:	5001f300 	andpl	pc, r1, r0, lsl #6
     8a0:	0000009f 	muleq	r0, pc, r0	; <UNPREDICTABLE>
	...
     8b0:	0003d000 	andeq	sp, r3, r0
     8b4:	0003f400 	andeq	pc, r3, r0, lsl #8
     8b8:	51000100 	mrspl	r0, (UNDEF: 16)
     8bc:	000003f4 	strdeq	r0, [r0], -r4
     8c0:	00000414 	andeq	r0, r0, r4, lsl r4
     8c4:	14550001 	ldrbne	r0, [r5], #-1
     8c8:	17000004 	strne	r0, [r0, -r4]
     8cc:	01000004 	tsteq	r0, r4
     8d0:	04175100 	ldreq	r5, [r7], #-256	; 0xffffff00
     8d4:	04440000 	strbeq	r0, [r4], #-0
     8d8:	00040000 	andeq	r0, r4, r0
     8dc:	9f5101f3 	svcls	0x005101f3
	...
     8e8:	00010100 	andeq	r0, r1, r0, lsl #2
	...
     8f4:	00000020 	andeq	r0, r0, r0, lsr #32
     8f8:	20500001 	subscs	r0, r0, r1
     8fc:	e4000000 	str	r0, [r0], #-0
     900:	04000000 	streq	r0, [r0], #-0
     904:	5001f300 	andpl	pc, r1, r0, lsl #6
     908:	0000e49f 	muleq	r0, pc, r4	; <UNPREDICTABLE>
     90c:	0000e800 	andeq	lr, r0, r0, lsl #16
     910:	50000100 	andpl	r0, r0, r0, lsl #2
     914:	000000e8 	andeq	r0, r0, r8, ror #1
     918:	000000ec 	andeq	r0, r0, ip, ror #1
     91c:	01f30004 	mvnseq	r0, r4
     920:	00009f50 	andeq	r9, r0, r0, asr pc
	...
     938:	00000020 	andeq	r0, r0, r0, lsr #32
     93c:	20510001 	subscs	r0, r1, r1
     940:	74000000 	strvc	r0, [r0], #-0
     944:	01000000 	mrseq	r0, (UNDEF: 0)
     948:	00905100 	addseq	r5, r0, r0, lsl #2
     94c:	00940000 	addseq	r0, r4, r0
     950:	00010000 	andeq	r0, r1, r0
     954:	0000b451 	andeq	fp, r0, r1, asr r4
     958:	0000b800 	andeq	fp, r0, r0, lsl #16
     95c:	51000100 	mrspl	r0, (UNDEF: 16)
     960:	000000d0 	ldrdeq	r0, [r0], -r0	; <UNPREDICTABLE>
     964:	000000ec 	andeq	r0, r0, ip, ror #1
     968:	00510001 	subseq	r0, r1, r1
     96c:	00000000 	andeq	r0, r0, r0
     970:	02000000 	andeq	r0, r0, #0
     974:	00000101 	andeq	r0, r0, r1, lsl #2
     978:	00000000 	andeq	r0, r0, r0
     97c:	20000000 	andcs	r0, r0, r0
     980:	01000000 	mrseq	r0, (UNDEF: 0)
     984:	00205000 	eoreq	r5, r0, r0
     988:	00e40000 	rsceq	r0, r4, r0
     98c:	00010000 	andeq	r0, r1, r0
     990:	0000e45c 	andeq	lr, r0, ip, asr r4
     994:	0000e800 	andeq	lr, r0, r0, lsl #16
     998:	50000100 	andpl	r0, r0, r0, lsl #2
     99c:	000000e8 	andeq	r0, r0, r8, ror #1
     9a0:	000000ec 	andeq	r0, r0, ip, ror #1
     9a4:	01f30004 	mvnseq	r0, r4
     9a8:	00009f50 	andeq	r9, r0, r0, asr pc
     9ac:	00000000 	andeq	r0, r0, r0
     9b0:	00030000 	andeq	r0, r3, r0
	...
     9c4:	00000020 	andeq	r0, r0, r0, lsr #32
     9c8:	20510001 	subscs	r0, r1, r1
     9cc:	38000000 	stmdacc	r0, {}	; <UNPREDICTABLE>
     9d0:	01000000 	mrseq	r0, (UNDEF: 0)
     9d4:	00385300 	eorseq	r5, r8, r0, lsl #6
     9d8:	004c0000 	subeq	r0, ip, r0
     9dc:	00010000 	andeq	r0, r1, r0
     9e0:	00004c52 	andeq	r4, r0, r2, asr ip
     9e4:	00007800 	andeq	r7, r0, r0, lsl #16
     9e8:	53000100 	movwpl	r0, #256	; 0x100
     9ec:	00000078 	andeq	r0, r0, r8, ror r0
     9f0:	00000090 	muleq	r0, r0, r0
     9f4:	90500001 	subsls	r0, r0, r1
     9f8:	e4000000 	str	r0, [r0], #-0
     9fc:	01000000 	mrseq	r0, (UNDEF: 0)
     a00:	00e45300 	rsceq	r5, r4, r0, lsl #6
     a04:	00ec0000 	rsceq	r0, ip, r0
     a08:	00010000 	andeq	r0, r1, r0
     a0c:	00000051 	andeq	r0, r0, r1, asr r0
	...
     a18:	48000000 	stmdami	r0, {}	; <UNPREDICTABLE>
     a1c:	4c000000 	stcmi	0, cr0, [r0], {-0}
     a20:	01000000 	mrseq	r0, (UNDEF: 0)
     a24:	004c5300 	subeq	r5, ip, r0, lsl #6
     a28:	00500000 	subseq	r0, r0, r0
     a2c:	00120000 	andseq	r0, r2, r0
     a30:	24380070 	ldrtcs	r0, [r8], #-112	; 0xffffff90
     a34:	0194027c 	orrseq	r0, r4, ip, ror r2
     a38:	221aff08 	andscs	pc, sl, #8, 30
     a3c:	0072243b 	rsbseq	r2, r2, fp, lsr r4
     a40:	00509f27 	subseq	r9, r0, r7, lsr #30
     a44:	005c0000 	subseq	r0, ip, r0
     a48:	00120000 	andseq	r0, r2, r0
     a4c:	24380070 	ldrtcs	r0, [r8], #-112	; 0xffffff90
     a50:	01947e7c 	orrseq	r7, r4, ip, ror lr
     a54:	221aff08 	andscs	pc, sl, #8, 30
     a58:	0072243b 	rsbseq	r2, r2, fp, lsr r4
     a5c:	00009f27 	andeq	r9, r0, r7, lsr #30
	...
     a68:	0000001c 	andeq	r0, r0, ip, lsl r0
     a6c:	000000e4 	andeq	r0, r0, r4, ror #1
     a70:	005e0001 	subseq	r0, lr, r1
	...
     a80:	04000000 	streq	r0, [r0], #-0
     a84:	01000000 	mrseq	r0, (UNDEF: 0)
     a88:	00045200 	andeq	r5, r4, r0, lsl #4
     a8c:	00180000 	andseq	r0, r8, r0
     a90:	00040000 	andeq	r0, r4, r0
     a94:	9f5201f3 	svcls	0x005201f3
	...
     aa0:	01000002 	tsteq	r0, r2
     aa4:	00000001 	andeq	r0, r0, r1
     aa8:	00000000 	andeq	r0, r0, r0
     aac:	00000008 	andeq	r0, r0, r8
     ab0:	08500001 	ldmdaeq	r0, {r0}^
     ab4:	10000000 	andne	r0, r0, r0
     ab8:	01000000 	mrseq	r0, (UNDEF: 0)
     abc:	00105300 	andseq	r5, r0, r0, lsl #6
     ac0:	00140000 	andseq	r0, r4, r0
     ac4:	00030000 	andeq	r0, r3, r0
     ac8:	149f0173 	ldrne	r0, [pc], #371	; ad0 <_start-0x7530>
     acc:	18000000 	stmdane	r0, {}	; <UNPREDICTABLE>
     ad0:	01000000 	mrseq	r0, (UNDEF: 0)
     ad4:	00005300 	andeq	r5, r0, r0, lsl #6
	...
     ae0:	00000004 	andeq	r0, r0, r4
     ae4:	00000018 	andeq	r0, r0, r8, lsl r0
     ae8:	00520001 	subseq	r0, r2, r1
	...
     af8:	00002c00 	andeq	r2, r0, r0, lsl #24
     afc:	00003800 	andeq	r3, r0, r0, lsl #16
     b00:	50000100 	andpl	r0, r0, r0, lsl #2
     b04:	00000038 	andeq	r0, r0, r8, lsr r0
     b08:	00000048 	andeq	r0, r0, r8, asr #32
     b0c:	48540001 	ldmdami	r4, {r0}^
     b10:	58000000 	stmdapl	r0, {}	; <UNPREDICTABLE>
     b14:	01000000 	mrseq	r0, (UNDEF: 0)
     b18:	00005000 	andeq	r5, r0, r0
	...
     b28:	000b0000 	andeq	r0, fp, r0
     b2c:	00010000 	andeq	r0, r1, r0
     b30:	00000b50 	andeq	r0, r0, r0, asr fp
     b34:	00001400 	andeq	r1, r0, r0, lsl #8
     b38:	54000100 	strpl	r0, [r0], #-256	; 0xffffff00
	...
     b44:	00010100 	andeq	r0, r1, r0, lsl #2
     b48:	00000000 	andeq	r0, r0, r0
     b4c:	00000008 	andeq	r0, r0, r8
     b50:	08500001 	ldmdaeq	r0, {r0}^
     b54:	34000000 	strcc	r0, [r0], #-0
     b58:	01000000 	mrseq	r0, (UNDEF: 0)
     b5c:	00005400 	andeq	r5, r0, r0, lsl #8
	...
     b6c:	00000270 	andeq	r0, r0, r0, ror r2
     b70:	0000029c 	muleq	r0, ip, r2
     b74:	9c500001 	mrrcls	0, 0, r0, r0, cr1	; <UNPREDICTABLE>
     b78:	0c000002 	stceq	0, cr0, [r0], {2}
     b7c:	01000005 	tsteq	r0, r5
     b80:	050c5700 	streq	r5, [ip, #-1792]	; 0xfffff900
     b84:	05200000 	streq	r0, [r0, #-0]!
     b88:	00040000 	andeq	r0, r4, r0
     b8c:	9f5001f3 	svcls	0x005001f3
	...
     b9c:	02700000 	rsbseq	r0, r0, #0
     ba0:	02880000 	addeq	r0, r8, #0
     ba4:	00010000 	andeq	r0, r1, r0
     ba8:	00028851 	andeq	r8, r2, r1, asr r8
     bac:	00029c00 	andeq	r9, r2, r0, lsl #24
     bb0:	71000300 	mrsvc	r0, LR_irq
     bb4:	029c9f01 	addseq	r9, ip, #1, 30
     bb8:	05200000 	streq	r0, [r0, #-0]!
     bbc:	00040000 	andeq	r0, r4, r0
     bc0:	9f5101f3 	svcls	0x005101f3
	...
     bd0:	00000270 	andeq	r0, r0, r0, ror r2
     bd4:	0000029c 	muleq	r0, ip, r2
     bd8:	9c520001 	mrrcls	0, 0, r0, r2, cr1
     bdc:	0c000002 	stceq	0, cr0, [r0], {2}
     be0:	01000005 	tsteq	r0, r5
     be4:	00005900 	andeq	r5, r0, r0, lsl #18
     be8:	00000000 	andeq	r0, r0, r0
     bec:	00010000 	andeq	r0, r1, r0
     bf0:	00000000 	andeq	r0, r0, r0
     bf4:	00010100 	andeq	r0, r1, r0, lsl #2
     bf8:	00000000 	andeq	r0, r0, r0
     bfc:	00020200 	andeq	r0, r2, r0, lsl #4
     c00:	02840000 	addeq	r0, r4, #0
     c04:	029c0000 	addseq	r0, ip, #0
     c08:	00010000 	andeq	r0, r1, r0
     c0c:	00029c50 	andeq	r9, r2, r0, asr ip
     c10:	0002a000 	andeq	sl, r2, r0
     c14:	54000100 	strpl	r0, [r0], #-256	; 0xffffff00
     c18:	000002a0 	andeq	r0, r0, r0, lsr #5
     c1c:	000002a4 	andeq	r0, r0, r4, lsr #5
     c20:	01740003 	cmneq	r4, r3
     c24:	0002a49f 	muleq	r2, pc, r4	; <UNPREDICTABLE>
     c28:	0002c800 	andeq	ip, r2, r0, lsl #16
     c2c:	54000100 	strpl	r0, [r0], #-256	; 0xffffff00
     c30:	000002c8 	andeq	r0, r0, r8, asr #5
     c34:	000002cc 	andeq	r0, r0, ip, asr #5
     c38:	01740003 	cmneq	r4, r3
     c3c:	0002cc9f 	muleq	r2, pc, ip	; <UNPREDICTABLE>
     c40:	0003f800 	andeq	pc, r3, r0, lsl #16
     c44:	54000100 	strpl	r0, [r0], #-256	; 0xffffff00
     c48:	000003f8 	strdeq	r0, [r0], -r8
     c4c:	000003fc 	strdeq	r0, [r0], -ip
     c50:	01740003 	cmneq	r4, r3
     c54:	0003fc9f 	muleq	r3, pc, ip	; <UNPREDICTABLE>
     c58:	0004f800 	andeq	pc, r4, r0, lsl #16
     c5c:	54000100 	strpl	r0, [r0], #-256	; 0xffffff00
     c60:	000004f8 	strdeq	r0, [r0], -r8
     c64:	00000500 	andeq	r0, r0, r0, lsl #10
     c68:	01740003 	cmneq	r4, r3
     c6c:	0005009f 	muleq	r5, pc, r0	; <UNPREDICTABLE>
     c70:	00050c00 	andeq	r0, r5, r0, lsl #24
     c74:	54000100 	strpl	r0, [r0], #-256	; 0xffffff00
	...
     c84:	0000028c 	andeq	r0, r0, ip, lsl #5
     c88:	0000050c 	andeq	r0, r0, ip, lsl #10
     c8c:	0c580001 	mrrceq	0, 0, r0, r8, cr1
     c90:	20000005 	andcs	r0, r0, r5
     c94:	0a000005 	beq	cb0 <_start-0x7350>
     c98:	5101f300 	mrspl	pc, SP_irq	; <UNPREDICTABLE>
     c9c:	225001f3 	subscs	r0, r0, #-1073741764	; 0xc000003c
     ca0:	009f1c31 	addseq	r1, pc, r1, lsr ip	; <UNPREDICTABLE>
	...
     cb4:	0003dc00 	andeq	sp, r3, r0, lsl #24
     cb8:	00040000 	andeq	r0, r4, r0
     cbc:	50000100 	andpl	r0, r0, r0, lsl #2
     cc0:	0000042c 	andeq	r0, r0, ip, lsr #8
     cc4:	00000430 	andeq	r0, r0, r0, lsr r4
     cc8:	5c500001 	mrrcpl	0, 0, r0, r0, cr1	; <UNPREDICTABLE>
     ccc:	60000004 	andvs	r0, r0, r4
     cd0:	01000004 	tsteq	r0, r4
     cd4:	048c5000 	streq	r5, [ip], #0
     cd8:	04900000 	ldreq	r0, [r0], #0
     cdc:	00010000 	andeq	r0, r1, r0
     ce0:	0004d050 	andeq	sp, r4, r0, asr r0
     ce4:	0004d400 	andeq	sp, r4, r0, lsl #8
     ce8:	50000100 	andpl	r0, r0, r0, lsl #2
	...
     cf4:	00000002 	andeq	r0, r0, r2
     cf8:	02d80000 	sbcseq	r0, r8, #0
     cfc:	02e00000 	rsceq	r0, r0, #0
     d00:	00020000 	andeq	r0, r2, r0
     d04:	02e09f30 	rsceq	r9, r0, #48, 30	; 0xc0
     d08:	02e40000 	rsceq	r0, r4, #0
     d0c:	00010000 	andeq	r0, r1, r0
     d10:	0002ec56 	andeq	lr, r2, r6, asr ip
     d14:	0004f800 	andeq	pc, r4, r0, lsl #16
     d18:	56000100 	strpl	r0, [r0], -r0, lsl #2
	...
     d28:	00700000 	rsbseq	r0, r0, r0
     d2c:	00940000 	addseq	r0, r4, r0
     d30:	00010000 	andeq	r0, r1, r0
     d34:	00009450 	andeq	r9, r0, r0, asr r4
     d38:	0000fc00 	andeq	pc, r0, r0, lsl #24
     d3c:	70000300 	andvc	r0, r0, r0, lsl #6
     d40:	00fc9f02 	rscseq	r9, ip, r2, lsl #30
     d44:	021c0000 	andseq	r0, ip, #0
     d48:	00040000 	andeq	r0, r4, r0
     d4c:	9f5001f3 	svcls	0x005001f3
	...
     d68:	00000070 	andeq	r0, r0, r0, ror r0
     d6c:	000000e0 	andeq	r0, r0, r0, ror #1
     d70:	e0510001 	subs	r0, r1, r1
     d74:	54000000 	strpl	r0, [r0], #-0
     d78:	01000001 	tsteq	r0, r1
     d7c:	01545500 	cmpeq	r4, r0, lsl #10
     d80:	01580000 	cmpeq	r8, r0
     d84:	00010000 	andeq	r0, r1, r0
     d88:	00015851 	andeq	r5, r1, r1, asr r8
     d8c:	0001b000 	andeq	fp, r1, r0
     d90:	55000100 	strpl	r0, [r0, #-256]	; 0xffffff00
     d94:	000001b0 			; <UNDEFINED> instruction: 0x000001b0
     d98:	000001c0 	andeq	r0, r0, r0, asr #3
     d9c:	c0510001 	subsgt	r0, r1, r1
     da0:	e4000001 	str	r0, [r0], #-1
     da4:	01000001 	tsteq	r0, r1
     da8:	01e45500 	mvneq	r5, r0, lsl #10
     dac:	01e70000 	mvneq	r0, r0
     db0:	00010000 	andeq	r0, r1, r0
     db4:	0001e751 	andeq	lr, r1, r1, asr r7
     db8:	00021c00 	andeq	r1, r2, r0, lsl #24
     dbc:	55000100 	strpl	r0, [r0, #-256]	; 0xffffff00
	...
     dcc:	00000070 	andeq	r0, r0, r0, ror r0
     dd0:	00000084 	andeq	r0, r0, r4, lsl #1
     dd4:	84520001 	ldrbhi	r0, [r2], #-1
     dd8:	1c000000 	stcne	0, cr0, [r0], {-0}
     ddc:	01000002 	tsteq	r0, r2
     de0:	00005400 	andeq	r5, r0, r0, lsl #8
	...
     dec:	01000000 	mrseq	r0, (UNDEF: 0)
     df0:	00000000 	andeq	r0, r0, r0
     df4:	00000070 	andeq	r0, r0, r0, ror r0
     df8:	000000f4 	strdeq	r0, [r0], -r4
     dfc:	4c530001 	mrrcmi	0, 0, r0, r3, cr1
     e00:	80000001 	andhi	r0, r0, r1
     e04:	01000001 	tsteq	r0, r1
     e08:	01805300 	orreq	r5, r0, r0, lsl #6
     e0c:	018c0000 	orreq	r0, ip, r0
     e10:	00040000 	andeq	r0, r4, r0
     e14:	9f5301f3 	svcls	0x005301f3
     e18:	000001b0 			; <UNDEFINED> instruction: 0x000001b0
     e1c:	000001e7 	andeq	r0, r0, r7, ror #3
     e20:	e7530001 	ldrb	r0, [r3, -r1]
     e24:	1c000001 	stcne	0, cr0, [r0], {1}
     e28:	04000002 	streq	r0, [r0], #-2
     e2c:	5301f300 	movwpl	pc, #4864	; 0x1300	; <UNPREDICTABLE>
     e30:	0000009f 	muleq	r0, pc, r0	; <UNPREDICTABLE>
	...
     e3c:	70000000 	andvc	r0, r0, r0
     e40:	8c000000 	stchi	0, cr0, [r0], {-0}
     e44:	02000000 	andeq	r0, r0, #0
     e48:	8c009100 	stfhid	f1, [r0], {-0}
     e4c:	93000000 	movwls	r0, #0
     e50:	01000001 	tsteq	r0, r1
     e54:	01b05200 	lslseq	r5, r0, #4
     e58:	01e70000 	mvneq	r0, r0
     e5c:	00010000 	andeq	r0, r1, r0
     e60:	00000052 	andeq	r0, r0, r2, asr r0
     e64:	00000000 	andeq	r0, r0, r0
     e68:	00000100 	andeq	r0, r0, r0, lsl #2
     e6c:	00000101 	andeq	r0, r0, r1, lsl #2
     e70:	00000000 	andeq	r0, r0, r0
     e74:	01010000 	mrseq	r0, (UNDEF: 1)
     e78:	00000101 	andeq	r0, r0, r1, lsl #2
     e7c:	00000101 	andeq	r0, r0, r1, lsl #2
	...
     e88:	00008c00 	andeq	r8, r0, r0, lsl #24
     e8c:	0000fc00 	andeq	pc, r0, r0, lsl #24
     e90:	5d000100 	stfpls	f0, [r0, #-0]
     e94:	000000fc 	strdeq	r0, [r0], -ip
     e98:	0000013c 	andeq	r0, r0, ip, lsr r1
     e9c:	3c500001 	mrrccc	0, 0, r0, r0, cr1	; <UNPREDICTABLE>
     ea0:	48000001 	stmdami	r0, {r0}
     ea4:	03000001 	movweq	r0, #1
     ea8:	9f027100 	svcls	0x00027100
     eac:	00000148 	andeq	r0, r0, r8, asr #2
     eb0:	0000014c 	andeq	r0, r0, ip, asr #2
     eb4:	4c500001 	mrrcmi	0, 0, r0, r0, cr1	; <UNPREDICTABLE>
     eb8:	58000001 	stmdapl	r0, {r0}
     ebc:	01000001 	tsteq	r0, r1
     ec0:	01585d00 	cmpeq	r8, r0, lsl #26
     ec4:	016c0000 	cmneq	ip, r0
     ec8:	00010000 	andeq	r0, r1, r0
     ecc:	00016c51 	andeq	r6, r1, r1, asr ip
     ed0:	00017800 	andeq	r7, r1, r0, lsl #16
     ed4:	71000300 	mrsvc	r0, LR_irq
     ed8:	01789f7f 	cmneq	r8, pc, ror pc
     edc:	01840000 	orreq	r0, r4, r0
     ee0:	00030000 	andeq	r0, r3, r0
     ee4:	849f0171 	ldrhi	r0, [pc], #369	; eec <_start-0x7114>
     ee8:	93000001 	movwls	r0, #1
     eec:	01000001 	tsteq	r0, r1
     ef0:	01b05000 	movseq	r5, r0
     ef4:	01b00000 	movseq	r0, r0
     ef8:	00010000 	andeq	r0, r1, r0
     efc:	0001b05d 	andeq	fp, r1, sp, asr r0
     f00:	0001b800 	andeq	fp, r1, r0, lsl #16
     f04:	91000400 	tstls	r0, r0, lsl #8
     f08:	b89f7fa1 	ldmlt	pc, {r0, r5, r7, r8, r9, sl, fp, ip, sp, lr}	; <UNPREDICTABLE>
     f0c:	bc000001 	stclt	0, cr0, [r0], {1}
     f10:	01000001 	tsteq	r0, r1
     f14:	01bc5000 			; <UNDEFINED> instruction: 0x01bc5000
     f18:	01c00000 	biceq	r0, r0, r0
     f1c:	00010000 	andeq	r0, r1, r0
     f20:	0001c05d 	andeq	ip, r1, sp, asr r0
     f24:	0001d400 	andeq	sp, r1, r0, lsl #8
     f28:	50000100 	andpl	r0, r0, r0, lsl #2
     f2c:	000001d4 	ldrdeq	r0, [r0], -r4
     f30:	000001e4 	andeq	r0, r0, r4, ror #3
     f34:	7f700003 	svcvc	0x00700003
     f38:	0001e49f 	muleq	r1, pc, r4	; <UNPREDICTABLE>
     f3c:	00021c00 	andeq	r1, r2, r0, lsl #24
     f40:	5d000100 	stfpls	f0, [r0, #-0]
	...
     f4c:	01000000 	mrseq	r0, (UNDEF: 0)
     f50:	00000001 	andeq	r0, r0, r1
	...
     f5c:	00900000 	addseq	r0, r0, r0
     f60:	00dc0000 	sbcseq	r0, ip, r0
     f64:	00010000 	andeq	r0, r1, r0
     f68:	0000dc5c 	andeq	sp, r0, ip, asr ip
     f6c:	0000f400 	andeq	pc, r0, r0, lsl #8
     f70:	53000100 	movwpl	r0, #256	; 0x100
     f74:	000000f4 	strdeq	r0, [r0], -r4
     f78:	0000014c 	andeq	r0, r0, ip, asr #2
     f7c:	4c5c0001 	mrrcmi	0, 0, r0, ip, cr1
     f80:	58000001 	stmdapl	r0, {r0}
     f84:	01000001 	tsteq	r0, r1
     f88:	01585300 	cmpeq	r8, r0, lsl #6
     f8c:	01740000 	cmneq	r4, r0
     f90:	00010000 	andeq	r0, r1, r0
     f94:	0001b05c 	andeq	fp, r1, ip, asr r0
     f98:	0001c000 	andeq	ip, r1, r0
     f9c:	53000100 	movwpl	r0, #256	; 0x100
     fa0:	000001c0 	andeq	r0, r0, r0, asr #3
     fa4:	000001dc 	ldrdeq	r0, [r0], -ip
     fa8:	e45c0001 	ldrb	r0, [ip], #-1
     fac:	e7000001 	str	r0, [r0, -r1]
     fb0:	01000001 	tsteq	r0, r1
     fb4:	01e75300 	mvneq	r5, r0, lsl #6
     fb8:	021c0000 	andseq	r0, ip, #0
     fbc:	00040000 	andeq	r0, r4, r0
     fc0:	9f5301f3 	svcls	0x005301f3
	...
     fcc:	00010101 	andeq	r0, r1, r1, lsl #2
     fd0:	00000000 	andeq	r0, r0, r0
     fd4:	000000dc 	ldrdeq	r0, [r0], -ip
     fd8:	000000f0 	strdeq	r0, [r0], -r0	; <UNPREDICTABLE>
     fdc:	9f300002 	svcls	0x00300002
     fe0:	000000f0 	strdeq	r0, [r0], -r0	; <UNPREDICTABLE>
     fe4:	000000f8 	strdeq	r0, [r0], -r8
     fe8:	9f310002 	svcls	0x00310002
     fec:	000000fc 	strdeq	r0, [r0], -ip
     ff0:	0000014c 	andeq	r0, r0, ip, asr #2
     ff4:	4c560001 	mrrcmi	0, 0, r0, r6, cr1
     ff8:	54000001 	strpl	r0, [r0], #-1
     ffc:	02000001 	andeq	r0, r0, #1
    1000:	009f3000 	addseq	r3, pc, r0
	...
    100c:	01010000 	mrseq	r0, (UNDEF: 1)
    1010:	01010000 	mrseq	r0, (UNDEF: 1)
    1014:	00003800 	andeq	r3, r0, r0, lsl #16
    1018:	00005400 	andeq	r5, r0, r0, lsl #8
    101c:	50000100 	andpl	r0, r0, r0, lsl #2
    1020:	00000054 	andeq	r0, r0, r4, asr r0
    1024:	00000058 	andeq	r0, r0, r8, asr r0
    1028:	58520001 	ldmdapl	r2, {r0}^
    102c:	60000000 	andvs	r0, r0, r0
    1030:	03000000 	movweq	r0, #0
    1034:	9f017200 	svcls	0x00017200
    1038:	00000060 	andeq	r0, r0, r0, rrx
    103c:	00000064 	andeq	r0, r0, r4, rrx
    1040:	64520001 	ldrbvs	r0, [r2], #-1
    1044:	70000000 	andvc	r0, r0, r0
    1048:	03000000 	movweq	r0, #0
    104c:	9f017200 	svcls	0x00017200
	...
    105c:	00000038 	andeq	r0, r0, r8, lsr r0
    1060:	00000050 	andeq	r0, r0, r0, asr r0
    1064:	50510001 	subspl	r0, r1, r1
    1068:	70000000 	andvc	r0, r0, r0
    106c:	04000000 	streq	r0, [r0], #-0
    1070:	5101f300 	mrspl	pc, SP_irq	; <UNPREDICTABLE>
    1074:	0000009f 	muleq	r0, pc, r0	; <UNPREDICTABLE>
	...
    1080:	01010000 	mrseq	r0, (UNDEF: 1)
    1084:	00003800 	andeq	r3, r0, r0, lsl #16
    1088:	00005000 	andeq	r5, r0, r0
    108c:	52000100 	andpl	r0, r0, #0, 2
    1090:	00000050 	andeq	r0, r0, r0, asr r0
    1094:	0000005c 	andeq	r0, r0, ip, asr r0
    1098:	5c510001 	mrrcpl	0, 0, r0, r1, cr1
    109c:	60000000 	andvs	r0, r0, r0
    10a0:	03000000 	movweq	r0, #0
    10a4:	9f017100 	svcls	0x00017100
    10a8:	00000060 	andeq	r0, r0, r0, rrx
    10ac:	00000070 	andeq	r0, r0, r0, ror r0
    10b0:	00510001 	subseq	r0, r1, r1
	...
    10bc:	38000000 	stmdacc	r0, {}	; <UNPREDICTABLE>
    10c0:	4c000000 	stcmi	0, cr0, [r0], {-0}
    10c4:	01000000 	mrseq	r0, (UNDEF: 0)
    10c8:	004c5300 	subeq	r5, ip, r0, lsl #6
    10cc:	00680000 	rsbeq	r0, r8, r0
    10d0:	00010000 	andeq	r0, r1, r0
    10d4:	00000053 	andeq	r0, r0, r3, asr r0
	...
    10e4:	00004000 	andeq	r4, r0, r0
    10e8:	00004800 	andeq	r4, r0, r0, lsl #16
    10ec:	5c000100 	stfpls	f0, [r0], {-0}
    10f0:	00000048 	andeq	r0, r0, r8, asr #32
    10f4:	0000004c 	andeq	r0, r0, ip, asr #32
    10f8:	00720008 	rsbseq	r0, r2, r8
    10fc:	231c0073 	tstcs	ip, #115	; 0x73
    1100:	004c9f01 	subeq	r9, ip, r1, lsl #30
    1104:	00540000 	subseq	r0, r4, r0
    1108:	00090000 	andeq	r0, r9, r0
    110c:	01f30072 	mvnseq	r0, r2, ror r0
    1110:	01231c53 			; <UNDEFINED> instruction: 0x01231c53
    1114:	0000549f 	muleq	r0, pc, r4	; <UNPREDICTABLE>
    1118:	00007000 	andeq	r7, r0, r0
    111c:	f3000a00 	vpmax.u8	d0, d0, d0
    1120:	01f35201 	mvnseq	r5, r1, lsl #4
    1124:	01231c53 			; <UNDEFINED> instruction: 0x01231c53
    1128:	0000009f 	muleq	r0, pc, r0	; <UNPREDICTABLE>
    112c:	00000000 	andeq	r0, r0, r0
    1130:	4c000100 	stfmis	f0, [r0], {-0}
    1134:	70000000 	andvc	r0, r0, r0
    1138:	01000000 	mrseq	r0, (UNDEF: 0)
    113c:	00005000 	andeq	r5, r0, r0
    1140:	00000000 	andeq	r0, r0, r0
    1144:	01000000 	mrseq	r0, (UNDEF: 0)
    1148:	00000001 	andeq	r0, r0, r1
    114c:	00000014 	andeq	r0, r0, r4, lsl r0
    1150:	0000001c 	andeq	r0, r0, ip, lsl r0
    1154:	1c500001 	mrrcne	0, 0, r0, r0, cr1	; <UNPREDICTABLE>
    1158:	24000000 	strcs	r0, [r0], #-0
    115c:	03000000 	movweq	r0, #0
    1160:	9f017000 	svcls	0x00017000
    1164:	00000024 	andeq	r0, r0, r4, lsr #32
    1168:	00000038 	andeq	r0, r0, r8, lsr r0
    116c:	00500001 	subseq	r0, r0, r1
	...
    1178:	14000000 	strne	r0, [r0], #-0
    117c:	18000000 	stmdane	r0, {}	; <UNPREDICTABLE>
    1180:	01000000 	mrseq	r0, (UNDEF: 0)
    1184:	00185100 	andseq	r5, r8, r0, lsl #2
    1188:	00380000 	eorseq	r0, r8, r0
    118c:	00040000 	andeq	r0, r4, r0
    1190:	9f5101f3 	svcls	0x005101f3
	...
    119c:	00180000 	andseq	r0, r8, r0
    11a0:	00380000 	eorseq	r0, r8, r0
    11a4:	00010000 	andeq	r0, r1, r0
    11a8:	00000051 	andeq	r0, r0, r1, asr r0
	...
    11b8:	04000000 	streq	r0, [r0], #-0
    11bc:	01000000 	mrseq	r0, (UNDEF: 0)
    11c0:	00045000 	andeq	r5, r4, r0
    11c4:	000c0000 	andeq	r0, ip, r0
    11c8:	00030000 	andeq	r0, r3, r0
    11cc:	0c9f3070 	ldceq	0, cr3, [pc], {112}	; 0x70
    11d0:	14000000 	strne	r0, [r0], #-0
    11d4:	04000000 	streq	r0, [r0], #-0
    11d8:	5001f300 	andpl	pc, r1, r0, lsl #6
    11dc:	0000009f 	muleq	r0, pc, r0	; <UNPREDICTABLE>
	...
    11e8:	00021c00 	andeq	r1, r2, r0, lsl #24
    11ec:	00024300 	andeq	r4, r2, r0, lsl #6
    11f0:	50000100 	andpl	r0, r0, r0, lsl #2
    11f4:	00000243 	andeq	r0, r0, r3, asr #4
    11f8:	00000270 	andeq	r0, r0, r0, ror r2
    11fc:	01f30004 	mvnseq	r0, r4
    1200:	00009f50 	andeq	r9, r0, r0, asr pc
	...
    120c:	021c0000 	andseq	r0, ip, #0
    1210:	02430000 	subeq	r0, r3, #0
    1214:	00010000 	andeq	r0, r1, r0
    1218:	00024351 	andeq	r4, r2, r1, asr r3
    121c:	00027000 	andeq	r7, r2, r0
    1220:	f3000400 	vshl.u8	d0, d0, d0
    1224:	009f5101 	addseq	r5, pc, r1, lsl #2
	...
    1230:	00000101 	andeq	r0, r0, r1, lsl #2
    1234:	00000800 	andeq	r0, r0, r0, lsl #16
    1238:	00001000 	andeq	r1, r0, r0
    123c:	53000100 	movwpl	r0, #256	; 0x100
    1240:	00000010 	andeq	r0, r0, r0, lsl r0
    1244:	00000018 	andeq	r0, r0, r8, lsl r0
    1248:	04730003 	ldrbteq	r0, [r3], #-3
    124c:	0000189f 	muleq	r0, pc, r8	; <UNPREDICTABLE>
    1250:	00001f00 	andeq	r1, r0, r0, lsl #30
    1254:	53000100 	movwpl	r0, #256	; 0x100
	...
    1260:	91f00001 	mvnsls	r0, r1
    1264:	920c0000 	andls	r0, ip, #0
    1268:	00060000 	andeq	r0, r6, r0
    126c:	10001c0c 	andne	r1, r0, ip, lsl #24
    1270:	00009f20 	andeq	r9, r0, r0, lsr #30
    1274:	00000000 	andeq	r0, r0, r0
    1278:	00020000 	andeq	r0, r2, r0
    127c:	000091f0 	strdeq	r9, [r0], -r0
    1280:	0000920c 	andeq	r9, r0, ip, lsl #4
    1284:	240c0006 	strcs	r0, [ip], #-6
    1288:	9f201000 	svcls	0x00201000
	...
    1294:	91f00003 	mvnsls	r0, r3
    1298:	920c0000 	andls	r0, ip, #0
    129c:	00050000 	andeq	r0, r5, r0
    12a0:	2447b408 	strbcs	fp, [r7], #-1032	; 0xfffffbf8
    12a4:	0000009f 	muleq	r0, pc, r0	; <UNPREDICTABLE>
    12a8:	00000000 	andeq	r0, r0, r0
    12ac:	f0000400 			; <UNDEFINED> instruction: 0xf0000400
    12b0:	0c000091 	stceq	0, cr0, [r0], {145}	; 0x91
    12b4:	03000092 	movweq	r0, #146	; 0x92
    12b8:	9f200800 	svcls	0x00200800
	...
    12c4:	00000002 	andeq	r0, r0, r2
    12c8:	91c40000 	bicls	r0, r4, r0
    12cc:	91c80000 	bicls	r0, r8, r0
    12d0:	00020000 	andeq	r0, r2, r0
    12d4:	91c89f30 	bicls	r9, r8, r0, lsr pc
    12d8:	91cc0000 	bicls	r0, ip, r0
    12dc:	00010000 	andeq	r0, r1, r0
    12e0:	0091d053 	addseq	sp, r1, r3, asr r0
    12e4:	0091d800 	addseq	sp, r1, r0, lsl #16
    12e8:	53000100 	movwpl	r0, #256	; 0x100
	...
    12f4:	00000002 	andeq	r0, r0, r2
    12f8:	000091ac 	andeq	r9, r0, ip, lsr #3
    12fc:	000091b0 			; <UNDEFINED> instruction: 0x000091b0
    1300:	9f300002 	svcls	0x00300002
    1304:	000091b0 			; <UNDEFINED> instruction: 0x000091b0
    1308:	000091b4 			; <UNDEFINED> instruction: 0x000091b4
    130c:	00500001 	subseq	r0, r0, r1
	...
    1318:	74000000 	strvc	r0, [r0], #-0
    131c:	80000000 	andhi	r0, r0, r0
    1320:	01000000 	mrseq	r0, (UNDEF: 0)
    1324:	00805000 	addeq	r5, r0, r0
    1328:	008c0000 	addeq	r0, ip, r0
    132c:	00040000 	andeq	r0, r4, r0
    1330:	9f5001f3 	svcls	0x005001f3
	...
    1340:	0000005c 	andeq	r0, r0, ip, asr r0
    1344:	00000068 	andeq	r0, r0, r8, rrx
    1348:	68500001 	ldmdavs	r0, {r0}^
    134c:	74000000 	strvc	r0, [r0], #-0
    1350:	04000000 	streq	r0, [r0], #-0
    1354:	5001f300 	andpl	pc, r1, r0, lsl #6
    1358:	0000009f 	muleq	r0, pc, r0	; <UNPREDICTABLE>
	...
    1364:	00003800 	andeq	r3, r0, r0, lsl #16
    1368:	00004300 	andeq	r4, r0, r0, lsl #6
    136c:	50000100 	andpl	r0, r0, r0, lsl #2
    1370:	00000043 	andeq	r0, r0, r3, asr #32
    1374:	0000005c 	andeq	r0, r0, ip, asr r0
    1378:	00550001 	subseq	r0, r5, r1
	...
    1384:	00004800 	andeq	r4, r0, r0, lsl #16
    1388:	00005c00 	andeq	r5, r0, r0, lsl #24
    138c:	54000100 	strpl	r0, [r0], #-256	; 0xffffff00
	...
    1398:	004c0000 	subeq	r0, ip, r0
    139c:	00500000 	subseq	r0, r0, r0
    13a0:	00010000 	andeq	r0, r1, r0
    13a4:	00000050 	andeq	r0, r0, r0, asr r0
    13a8:	00000000 	andeq	r0, r0, r0
    13ac:	34000000 	strcc	r0, [r0], #-0
    13b0:	38000000 	stmdacc	r0, {}	; <UNPREDICTABLE>
    13b4:	01000000 	mrseq	r0, (UNDEF: 0)
    13b8:	00005000 	andeq	r5, r0, r0
	...
    13c8:	00040000 	andeq	r0, r4, r0
    13cc:	00010000 	andeq	r0, r1, r0
    13d0:	00000450 	andeq	r0, r0, r0, asr r4
    13d4:	00001800 	andeq	r1, r0, r0, lsl #16
    13d8:	53000100 	movwpl	r0, #256	; 0x100
	...
    13e4:	00000138 	andeq	r0, r0, r8, lsr r1
    13e8:	00000143 	andeq	r0, r0, r3, asr #2
    13ec:	43500001 	cmpmi	r0, #1
    13f0:	68000001 	stmdavs	r0, {r0}
    13f4:	01000001 	tsteq	r0, r1
    13f8:	00005400 	andeq	r5, r0, r0, lsl #8
	...
    1404:	000f0000 	andeq	r0, pc, r0
    1408:	00010000 	andeq	r0, r1, r0
    140c:	00000f50 	andeq	r0, r0, r0, asr pc
    1410:	00002000 	andeq	r2, r0, r0
    1414:	54000100 	strpl	r0, [r0], #-256	; 0xffffff00
	...
    1424:	0000000f 	andeq	r0, r0, pc
    1428:	0f510001 	svceq	0x00510001
    142c:	20000000 	andcs	r0, r0, r0
    1430:	01000000 	mrseq	r0, (UNDEF: 0)
    1434:	00005500 	andeq	r5, r0, r0, lsl #10
    1438:	00000000 	andeq	r0, r0, r0
    143c:	00ec0000 	rsceq	r0, ip, r0
    1440:	01040000 	mrseq	r0, (UNDEF: 4)
    1444:	00010000 	andeq	r0, r1, r0
    1448:	00010450 	andeq	r0, r1, r0, asr r4
    144c:	00011400 	andeq	r1, r1, r0, lsl #8
    1450:	f3000400 	vshl.u8	d0, d0, d0
    1454:	149f5001 	ldrne	r5, [pc], #1	; 145c <_start-0x6ba4>
    1458:	18000001 	stmdane	r0, {r0}
    145c:	01000001 	tsteq	r0, r1
    1460:	01185000 	tsteq	r8, r0
    1464:	01200000 			; <UNDEFINED> instruction: 0x01200000
    1468:	00040000 	andeq	r0, r4, r0
    146c:	9f5001f3 	svcls	0x005001f3
	...
    1478:	000000f8 	strdeq	r0, [r0], -r8
    147c:	00000104 	andeq	r0, r0, r4, lsl #2
    1480:	0070000b 	rsbseq	r0, r0, fp
    1484:	b4232535 	strtlt	r2, [r3], #-1333	; 0xfffffacb
    1488:	02818080 	addeq	r8, r1, #128	; 0x80
    148c:	0001049f 	muleq	r1, pc, r4	; <UNPREDICTABLE>
    1490:	00010700 	andeq	r0, r1, r0, lsl #14
    1494:	50000100 	andpl	r0, r0, r0, lsl #2
    1498:	00000107 	andeq	r0, r0, r7, lsl #2
    149c:	00000114 	andeq	r0, r0, r4, lsl r1
    14a0:	01f3000c 	mvnseq	r0, ip
    14a4:	23253550 			; <UNDEFINED> instruction: 0x23253550
    14a8:	818080b4 	strhhi	r8, [r0, r4]
    14ac:	00009f02 	andeq	r9, r0, r2, lsl #30
    14b0:	00000000 	andeq	r0, r0, r0
    14b4:	00fc0000 	rscseq	r0, ip, r0
    14b8:	01140000 	tsteq	r4, r0
    14bc:	00010000 	andeq	r0, r1, r0
    14c0:	00000054 	andeq	r0, r0, r4, asr r0
    14c4:	00000000 	andeq	r0, r0, r0
    14c8:	0000d000 	andeq	sp, r0, r0
    14cc:	0000df00 	andeq	sp, r0, r0, lsl #30
    14d0:	50000100 	andpl	r0, r0, r0, lsl #2
    14d4:	000000df 	ldrdeq	r0, [r0], -pc	; <UNPREDICTABLE>
    14d8:	000000e4 	andeq	r0, r0, r4, ror #1
    14dc:	01f30004 	mvnseq	r0, r4
    14e0:	00e49f50 	rsceq	r9, r4, r0, asr pc
    14e4:	00e70000 	rsceq	r0, r7, r0
    14e8:	00010000 	andeq	r0, r1, r0
    14ec:	0000e750 	andeq	lr, r0, r0, asr r7
    14f0:	0000ec00 	andeq	lr, r0, r0, lsl #24
    14f4:	f3000400 	vshl.u8	d0, d0, d0
    14f8:	009f5001 	addseq	r5, pc, r1
    14fc:	00000000 	andeq	r0, r0, r0
    1500:	d0000000 	andle	r0, r0, r0
    1504:	df000000 	svcle	0x00000000
    1508:	01000000 	mrseq	r0, (UNDEF: 0)
    150c:	00df5100 	sbcseq	r5, pc, r0, lsl #2
    1510:	00e40000 	rsceq	r0, r4, r0
    1514:	00040000 	andeq	r0, r4, r0
    1518:	9f5101f3 	svcls	0x005101f3
    151c:	000000e4 	andeq	r0, r0, r4, ror #1
    1520:	000000e7 	andeq	r0, r0, r7, ror #1
    1524:	e7510001 	ldrb	r0, [r1, -r1]
    1528:	ec000000 	stc	0, cr0, [r0], {-0}
    152c:	04000000 	streq	r0, [r0], #-0
    1530:	5101f300 	mrspl	pc, SP_irq	; <UNPREDICTABLE>
    1534:	0000009f 	muleq	r0, pc, r0	; <UNPREDICTABLE>
    1538:	00000000 	andeq	r0, r0, r0
    153c:	0000c000 	andeq	ip, r0, r0
    1540:	0000cb00 	andeq	ip, r0, r0, lsl #22
    1544:	50000100 	andpl	r0, r0, r0, lsl #2
    1548:	000000cb 	andeq	r0, r0, fp, asr #1
    154c:	000000d0 	ldrdeq	r0, [r0], -r0	; <UNPREDICTABLE>
    1550:	01f30004 	mvnseq	r0, r4
    1554:	00009f50 	andeq	r9, r0, r0, asr pc
    1558:	00000000 	andeq	r0, r0, r0
    155c:	009c0000 	addseq	r0, ip, r0
    1560:	00b40000 	adcseq	r0, r4, r0
    1564:	00010000 	andeq	r0, r1, r0
    1568:	0000b450 	andeq	fp, r0, r0, asr r4
    156c:	0000c000 	andeq	ip, r0, r0
    1570:	f3000400 	vshl.u8	d0, d0, d0
    1574:	009f5001 	addseq	r5, pc, r1
    1578:	00000000 	andeq	r0, r0, r0
    157c:	78000000 	stmdavc	r0, {}	; <UNPREDICTABLE>
    1580:	90000000 	andls	r0, r0, r0
    1584:	01000000 	mrseq	r0, (UNDEF: 0)
    1588:	00905000 	addseq	r5, r0, r0
    158c:	009c0000 	addseq	r0, ip, r0
    1590:	00040000 	andeq	r0, r4, r0
    1594:	9f5001f3 	svcls	0x005001f3
	...
    15a0:	00000068 	andeq	r0, r0, r8, rrx
    15a4:	00000073 	andeq	r0, r0, r3, ror r0
    15a8:	73500001 	cmpvc	r0, #1
    15ac:	78000000 	stmdavc	r0, {}	; <UNPREDICTABLE>
    15b0:	04000000 	streq	r0, [r0], #-0
    15b4:	5001f300 	andpl	pc, r1, r0, lsl #6
    15b8:	0000009f 	muleq	r0, pc, r0	; <UNPREDICTABLE>
	...
    15c4:	00004800 	andeq	r4, r0, r0, lsl #16
    15c8:	50000100 	andpl	r0, r0, r0, lsl #2
    15cc:	00000048 	andeq	r0, r0, r8, asr #32
    15d0:	00000068 	andeq	r0, r0, r8, rrx
    15d4:	01f30004 	mvnseq	r0, r4
    15d8:	00009f50 	andeq	r9, r0, r0, asr pc
	...
    15e4:	004b0000 	subeq	r0, fp, r0
    15e8:	00010000 	andeq	r0, r1, r0
    15ec:	00004b51 	andeq	r4, r0, r1, asr fp
    15f0:	00006800 	andeq	r6, r0, r0, lsl #16
    15f4:	f3000400 	vshl.u8	d0, d0, d0
    15f8:	009f5101 	addseq	r5, pc, r1, lsl #2
    15fc:	00000000 	andeq	r0, r0, r0
    1600:	4c000000 	stcmi	0, cr0, [r0], {-0}
    1604:	54000000 	strpl	r0, [r0], #-0
    1608:	01000000 	mrseq	r0, (UNDEF: 0)
    160c:	00545000 	subseq	r5, r4, r0
    1610:	00580000 	subseq	r0, r8, r0
    1614:	00090000 	andeq	r0, r9, r0
    1618:	00740075 	rsbseq	r0, r4, r5, ror r0
    161c:	21007124 	tstcs	r0, r4, lsr #2
    1620:	0000589f 	muleq	r0, pc, r8	; <UNPREDICTABLE>
    1624:	00005f00 	andeq	r5, r0, r0, lsl #30
    1628:	51000100 	mrspl	r0, (UNDEF: 16)
	...
    1634:	000000e0 	andeq	r0, r0, r0, ror #1
    1638:	0000011b 	andeq	r0, r0, fp, lsl r1
    163c:	1b500001 	blne	1401648 <__bss_end__+0x13f74e0>
    1640:	20000001 	andcs	r0, r0, r1
    1644:	04000001 	streq	r0, [r0], #-1
    1648:	5001f300 	andpl	pc, r1, r0, lsl #6
    164c:	0001209f 	muleq	r1, pc, r0	; <UNPREDICTABLE>
    1650:	00012300 	andeq	r2, r1, r0, lsl #6
    1654:	50000100 	andpl	r0, r0, r0, lsl #2
    1658:	00000123 	andeq	r0, r0, r3, lsr #2
    165c:	0000013c 	andeq	r0, r0, ip, lsr r1
    1660:	01f30004 	mvnseq	r0, r4
    1664:	013c9f50 	teqeq	ip, r0, asr pc
    1668:	013f0000 	teqeq	pc, r0
    166c:	00010000 	andeq	r0, r1, r0
    1670:	00013f50 	andeq	r3, r1, r0, asr pc
    1674:	00016c00 	andeq	r6, r1, r0, lsl #24
    1678:	f3000400 	vshl.u8	d0, d0, d0
    167c:	009f5001 	addseq	r5, pc, r1
    1680:	00000000 	andeq	r0, r0, r0
    1684:	e0000000 	and	r0, r0, r0
    1688:	08000000 	stmdaeq	r0, {}	; <UNPREDICTABLE>
    168c:	01000001 	tsteq	r0, r1
    1690:	01085100 	mrseq	r5, (UNDEF: 24)
    1694:	011b0000 	tsteq	fp, r0
    1698:	00030000 	andeq	r0, r3, r0
    169c:	1b9f0171 	blne	fe7c1c68 <__bss_end__+0xfe7b7b00>
    16a0:	20000001 	andcs	r0, r0, r1
    16a4:	04000001 	streq	r0, [r0], #-1
    16a8:	5101f300 	mrspl	pc, SP_irq	; <UNPREDICTABLE>
    16ac:	0001209f 	muleq	r1, pc, r0	; <UNPREDICTABLE>
    16b0:	00012300 	andeq	r2, r1, r0, lsl #6
    16b4:	51000100 	mrspl	r0, (UNDEF: 16)
    16b8:	00000123 	andeq	r0, r0, r3, lsr #2
    16bc:	0000016c 	andeq	r0, r0, ip, ror #2
    16c0:	01f30004 	mvnseq	r0, r4
    16c4:	00009f51 	andeq	r9, r0, r1, asr pc
    16c8:	00000000 	andeq	r0, r0, r0
    16cc:	00f80000 	rscseq	r0, r8, r0
    16d0:	00fc0000 	rscseq	r0, ip, r0
    16d4:	00010000 	andeq	r0, r1, r0
    16d8:	0000fc52 	andeq	pc, r0, r2, asr ip	; <UNPREDICTABLE>
    16dc:	00010400 	andeq	r0, r1, r0, lsl #8
    16e0:	03000500 	movweq	r0, #1280	; 0x500
    16e4:	0000974c 	andeq	r9, r0, ip, asr #14
    16e8:	00000104 	andeq	r0, r0, r4, lsl #2
    16ec:	0000011b 	andeq	r0, r0, fp, lsl r1
    16f0:	3c530001 	mrrccc	0, 0, r0, r3, cr1
    16f4:	3f000001 	svccc	0x00000001
    16f8:	01000001 	tsteq	r0, r1
    16fc:	00005300 	andeq	r5, r0, r0, lsl #6
    1700:	00000000 	andeq	r0, r0, r0
    1704:	006c0000 	rsbeq	r0, ip, r0
    1708:	00800000 	addeq	r0, r0, r0
    170c:	00010000 	andeq	r0, r1, r0
    1710:	00008050 	andeq	r8, r0, r0, asr r0
    1714:	00009b00 	andeq	r9, r0, r0, lsl #22
    1718:	52000100 	andpl	r0, r0, #0, 2
    171c:	0000009b 	muleq	r0, fp, r0
    1720:	000000a4 	andeq	r0, r0, r4, lsr #1
    1724:	01f30009 	mvnseq	r0, r9
    1728:	09072350 	stmdbeq	r7, {r4, r6, r8, r9, sp}
    172c:	a49f1af8 	ldrge	r1, [pc], #2808	; 1734 <_start-0x68cc>
    1730:	a7000000 	strge	r0, [r0, -r0]
    1734:	01000000 	mrseq	r0, (UNDEF: 0)
    1738:	00a75000 	adceq	r5, r7, r0
    173c:	00d00000 	sbcseq	r0, r0, r0
    1740:	00040000 	andeq	r0, r4, r0
    1744:	9f5001f3 	svcls	0x005001f3
	...
    1750:	00000088 	andeq	r0, r0, r8, lsl #1
    1754:	000000a4 	andeq	r0, r0, r4, lsr #1
    1758:	00540001 	subseq	r0, r4, r1
    175c:	00000000 	andeq	r0, r0, r0
    1760:	1c000000 	stcne	0, cr0, [r0], {-0}
    1764:	43000000 	movwmi	r0, #0
    1768:	01000000 	mrseq	r0, (UNDEF: 0)
    176c:	00435000 	subeq	r5, r3, r0
    1770:	006c0000 	rsbeq	r0, ip, r0
    1774:	00040000 	andeq	r0, r4, r0
    1778:	9f5001f3 	svcls	0x005001f3
	...
    1784:	0000001c 	andeq	r0, r0, ip, lsl r0
    1788:	00000043 	andeq	r0, r0, r3, asr #32
    178c:	43500001 	cmpmi	r0, #1
    1790:	6c000000 	stcvs	0, cr0, [r0], {-0}
    1794:	04000000 	streq	r0, [r0], #-0
    1798:	5001f300 	andpl	pc, r1, r0, lsl #6
    179c:	0000009f 	muleq	r0, pc, r0	; <UNPREDICTABLE>
    17a0:	00000000 	andeq	r0, r0, r0
	...

Disassembly of section .debug_aranges:

00000000 <.debug_aranges>:
   0:	0000001c 	andeq	r0, r0, ip, lsl r0
   4:	00000002 	andeq	r0, r0, r2
   8:	00040000 	andeq	r0, r4, r0
   c:	00000000 	andeq	r0, r0, r0
  10:	00008010 	andeq	r8, r0, r0, lsl r0
  14:	00000198 	muleq	r0, r8, r1
	...
  20:	0000001c 	andeq	r0, r0, ip, lsl r0
  24:	0cc70002 	stcleq	0, cr0, [r7], {2}
  28:	00040000 	andeq	r0, r4, r0
  2c:	00000000 	andeq	r0, r0, r0
  30:	000081a8 	andeq	r8, r0, r8, lsr #3
  34:	00000868 	andeq	r0, r0, r8, ror #16
	...
  40:	0000001c 	andeq	r0, r0, ip, lsl r0
  44:	26500002 	ldrbcs	r0, [r0], -r2
  48:	00040000 	andeq	r0, r4, r0
  4c:	00000000 	andeq	r0, r0, r0
  50:	00008a10 	andeq	r8, r0, r0, lsl sl
  54:	000000ec 	andeq	r0, r0, ip, ror #1
	...
  60:	0000001c 	andeq	r0, r0, ip, lsl r0
  64:	30520002 	subscc	r0, r2, r2
  68:	00040000 	andeq	r0, r4, r0
  6c:	00000000 	andeq	r0, r0, r0
  70:	00008afc 	strdeq	r8, [r0], -ip
  74:	00000018 	andeq	r0, r0, r8, lsl r0
	...
  80:	0000001c 	andeq	r0, r0, ip, lsl r0
  84:	39d20002 	ldmibcc	r2, {r1}^
  88:	00040000 	andeq	r0, r4, r0
  8c:	00000000 	andeq	r0, r0, r0
  90:	00008b14 	andeq	r8, r0, r4, lsl fp
  94:	00000058 	andeq	r0, r0, r8, asr r0
	...
  a0:	0000001c 	andeq	r0, r0, ip, lsl r0
  a4:	44010002 	strmi	r0, [r1], #-2
  a8:	00040000 	andeq	r0, r4, r0
  ac:	00000000 	andeq	r0, r0, r0
  b0:	00008b6c 	andeq	r8, r0, ip, ror #22
  b4:	0000003c 	andeq	r0, r0, ip, lsr r0
	...
  c0:	0000001c 	andeq	r0, r0, ip, lsl r0
  c4:	4dde0002 	ldclmi	0, cr0, [lr, #8]
  c8:	00040000 	andeq	r0, r4, r0
  cc:	00000000 	andeq	r0, r0, r0
  d0:	00008ba8 	andeq	r8, r0, r8, lsr #23
  d4:	00000034 	andeq	r0, r0, r4, lsr r0
	...
  e0:	0000001c 	andeq	r0, r0, ip, lsl r0
  e4:	57650002 	strbpl	r0, [r5, -r2]!
  e8:	00040000 	andeq	r0, r4, r0
  ec:	00000000 	andeq	r0, r0, r0
  f0:	00008bdc 	ldrdeq	r8, [r0], -ip
  f4:	0000005c 	andeq	r0, r0, ip, asr r0
	...
 100:	0000001c 	andeq	r0, r0, ip, lsl r0
 104:	613b0002 	teqvs	fp, r2
 108:	00040000 	andeq	r0, r4, r0
 10c:	00000000 	andeq	r0, r0, r0
 110:	00008c38 	andeq	r8, r0, r8, lsr ip
 114:	00000520 	andeq	r0, r0, r0, lsr #10
	...
 120:	0000001c 	andeq	r0, r0, ip, lsl r0
 124:	70df0002 	sbcsvc	r0, pc, r2
 128:	00040000 	andeq	r0, r4, r0
 12c:	00000000 	andeq	r0, r0, r0
 130:	00009158 	andeq	r9, r0, r8, asr r1
 134:	00000028 	andeq	r0, r0, r8, lsr #32
	...
 140:	0000001c 	andeq	r0, r0, ip, lsl r0
 144:	7a8e0002 	bvc	fe380154 <__bss_end__+0xfe375fec>
 148:	00040000 	andeq	r0, r4, r0
 14c:	00000000 	andeq	r0, r0, r0
 150:	00009180 	andeq	r9, r0, r0, lsl #3
 154:	0000002c 	andeq	r0, r0, ip, lsr #32
	...
 160:	0000001c 	andeq	r0, r0, ip, lsl r0
 164:	84650002 	strbthi	r0, [r5], #-2
 168:	00040000 	andeq	r0, r4, r0
 16c:	00000000 	andeq	r0, r0, r0
 170:	000091ac 	andeq	r9, r0, ip, lsr #3
 174:	00000078 	andeq	r0, r0, r8, ror r0
	...
 180:	0000001c 	andeq	r0, r0, ip, lsl r0
 184:	8f040002 	svchi	0x00040002
 188:	00040000 	andeq	r0, r4, r0
 18c:	00000000 	andeq	r0, r0, r0
 190:	00009224 	andeq	r9, r0, r4, lsr #4
 194:	0000008c 	andeq	r0, r0, ip, lsl #1
	...
 1a0:	0000001c 	andeq	r0, r0, ip, lsl r0
 1a4:	99f20002 	ldmibls	r2!, {r1}^
 1a8:	00040000 	andeq	r0, r4, r0
 1ac:	00000000 	andeq	r0, r0, r0
 1b0:	000092fc 	strdeq	r9, [r0], -ip
 1b4:	00000178 	andeq	r0, r0, r8, ror r1
	...
 1c0:	0000001c 	andeq	r0, r0, ip, lsl r0
 1c4:	a6bb0002 	ldrtge	r0, [fp], r2
 1c8:	00040000 	andeq	r0, r4, r0
 1cc:	00000000 	andeq	r0, r0, r0
 1d0:	00009474 	andeq	r9, r0, r4, ror r4
 1d4:	00000120 	andeq	r0, r0, r0, lsr #2
	...
 1e0:	0000001c 	andeq	r0, r0, ip, lsl r0
 1e4:	b22f0002 	eorlt	r0, pc, #2
 1e8:	00040000 	andeq	r0, r4, r0
 1ec:	00000000 	andeq	r0, r0, r0
 1f0:	00009594 	muleq	r0, r4, r5
 1f4:	00000194 	muleq	r0, r4, r1
	...

Disassembly of section .debug_line:

00000000 <.debug_line>:
       0:	000001f8 	strdeq	r0, [r0], -r8
       4:	00d30003 	sbcseq	r0, r3, r3
       8:	01020000 	mrseq	r0, (UNDEF: 2)
       c:	000d0efb 	strdeq	r0, [sp], -fp
      10:	01010101 	tsteq	r1, r1, lsl #2
      14:	01000000 	mrseq	r0, (UNDEF: 0)
      18:	2f010000 	svccs	0x00010000
      1c:	2f727375 	svccs	0x00727375
      20:	2d6d7261 	sfmcs	f7, 2, [sp, #-388]!	; 0xfffffe7c
      24:	656e6f6e 	strbvs	r6, [lr, #-3950]!	; 0xfffff092
      28:	6261652d 	rsbvs	r6, r1, #188743680	; 0xb400000
      2c:	6e692f69 	cdpvs	15, 6, cr2, cr9, cr9, {3}
      30:	64756c63 	ldrbtvs	r6, [r5], #-3171	; 0xfffff39d
      34:	79732f65 	ldmdbvc	r3!, {r0, r2, r5, r6, r8, r9, sl, fp, sp}^
      38:	752f0073 	strvc	r0, [pc, #-115]!	; ffffffcd <__bss_end__+0xffff5e65>
      3c:	6c2f7273 	sfmvs	f7, 4, [pc], #-460	; fffffe78 <__bss_end__+0xffff5d10>
      40:	672f6269 	strvs	r6, [pc, -r9, ror #4]!
      44:	612f6363 			; <UNDEFINED> instruction: 0x612f6363
      48:	6e2d6d72 	mcrvs	13, 1, r6, cr13, cr2, {3}
      4c:	2d656e6f 	stclcs	14, cr6, [r5, #-444]!	; 0xfffffe44
      50:	69626165 	stmdbvs	r2!, {r0, r2, r5, r6, r8, sp, lr}^
      54:	322e392f 	eorcc	r3, lr, #770048	; 0xbc000
      58:	692f302e 	stmdbvs	pc!, {r1, r2, r3, r5, ip, sp}	; <UNPREDICTABLE>
      5c:	756c636e 	strbvc	r6, [ip, #-878]!	; 0xfffffc92
      60:	2f006564 	svccs	0x00006564
      64:	656d6f68 	strbvs	r6, [sp, #-3944]!	; 0xfffff098
      68:	6573752f 	ldrbvs	r7, [r3, #-1327]!	; 0xfffffad1
      6c:	65442f72 	strbvs	r2, [r4, #-3954]	; 0xfffff08e
      70:	53432f76 	movtpl	r2, #16246	; 0x3f76
      74:	58303432 	ldmdapl	r0!, {r1, r4, r5, sl, ip, sp}
      78:	62696c2f 	rsbvs	r6, r9, #12032	; 0x2f00
      7c:	692f6970 	stmdbvs	pc!, {r4, r5, r6, r8, fp, sp, lr}	; <UNPREDICTABLE>
      80:	756c636e 	strbvc	r6, [ip, #-878]!	; 0xfffffc92
      84:	00006564 	andeq	r6, r0, r4, ror #10
      88:	74726170 	ldrbtvc	r6, [r2], #-368	; 0xfffffe90
      8c:	65742d31 	ldrbvs	r2, [r4, #-3377]!	; 0xfffff2cf
      90:	2e367473 	mrccs	4, 1, r7, cr6, cr3, {3}
      94:	00000063 	andeq	r0, r0, r3, rrx
      98:	636f6c00 	cmnvs	pc, #0, 24
      9c:	00682e6b 	rsbeq	r2, r8, fp, ror #28
      a0:	5f000001 	svcpl	0x00000001
      a4:	65707974 	ldrbvs	r7, [r0, #-2420]!	; 0xfffff68c
      a8:	00682e73 	rsbeq	r2, r8, r3, ror lr
      ac:	73000001 	movwvc	r0, #1
      b0:	65646474 	strbvs	r6, [r4, #-1140]!	; 0xfffffb8c
      b4:	00682e66 	rsbeq	r2, r8, r6, ror #28
      b8:	72000002 	andvc	r0, r0, #2
      bc:	746e6565 	strbtvc	r6, [lr], #-1381	; 0xfffffa9b
      c0:	0100682e 	tsteq	r0, lr, lsr #16
      c4:	70720000 	rsbsvc	r0, r2, r0
      c8:	00682e69 	rsbeq	r2, r8, r9, ror #28
      cc:	63000003 	movwvs	r0, #3
      d0:	6c6c616b 	stfvse	f6, [ip], #-428	; 0xfffffe54
      d4:	682e636f 	stmdavs	lr!, {r0, r1, r2, r3, r5, r6, r8, r9, sp, lr}
      d8:	00000000 	andeq	r0, r0, r0
      dc:	00140500 	andseq	r0, r4, r0, lsl #10
      e0:	80100205 	andshi	r0, r0, r5, lsl #4
      e4:	05160000 	ldreq	r0, [r6, #-0]
      e8:	4b4d4b05 	blmi	1352d04 <__bss_end__+0x1348b9c>
      ec:	13138513 	tstne	r3, #79691776	; 0x4c00000
      f0:	01090514 	tsteq	r9, r4, lsl r5
      f4:	01060d05 	tsteq	r6, r5, lsl #26
      f8:	02001405 	andeq	r1, r0, #83886080	; 0x5000000
      fc:	2e060104 	adfcss	f0, f6, f4
     100:	02000505 	andeq	r0, r0, #20971520	; 0x1400000
     104:	01060104 	tsteq	r6, r4, lsl #2
     108:	02000905 	andeq	r0, r0, #81920	; 0x14000
     10c:	4b060304 	blmi	180d24 <__bss_end__+0x176bbc>
     110:	02001105 	andeq	r1, r0, #1073741825	; 0x40000001
     114:	01060304 	tsteq	r6, r4, lsl #6
     118:	02001e05 	andeq	r1, r0, #5, 28	; 0x50
     11c:	052e0304 	streq	r0, [lr, #-772]!	; 0xfffffcfc
     120:	0402000f 	streq	r0, [r2], #-15
     124:	09054a03 	stmdbeq	r5, {r0, r1, r9, fp, lr}
     128:	03040200 	movweq	r0, #16896	; 0x4200
     12c:	10056706 	andne	r6, r5, r6, lsl #14
     130:	03040200 	movweq	r0, #16896	; 0x4200
     134:	0e050106 	adfeqs	f0, f5, f6
     138:	03040200 	movweq	r0, #16896	; 0x4200
     13c:	001b0582 	andseq	r0, fp, r2, lsl #11
     140:	06030402 	streq	r0, [r3], -r2, lsl #8
     144:	001c052c 	andseq	r0, ip, ip, lsr #10
     148:	06030402 	streq	r0, [r3], -r2, lsl #8
     14c:	04020001 	streq	r0, [r2], #-1
     150:	02002e03 	andeq	r2, r0, #3, 28	; 0x30
     154:	052e0304 	streq	r0, [lr, #-772]!	; 0xfffffcfc
     158:	1405170d 	strne	r1, [r5], #-1805	; 0xfffff8f3
     15c:	01040200 	mrseq	r0, R12_usr
     160:	05052e06 	streq	r2, [r5, #-3590]	; 0xfffff1fa
     164:	01040200 	mrseq	r0, R12_usr
     168:	09050106 	stmdbeq	r5, {r1, r2, r8}
     16c:	03040200 	movweq	r0, #16896	; 0x4200
     170:	1b054b06 	blne	152d90 <__bss_end__+0x148c28>
     174:	03040200 	movweq	r0, #16896	; 0x4200
     178:	001c05d5 			; <UNDEFINED> instruction: 0x001c05d5
     17c:	06030402 	streq	r0, [r3], -r2, lsl #8
     180:	04020001 	streq	r0, [r2], #-1
     184:	02002e03 	andeq	r2, r0, #3, 28	; 0x30
     188:	052e0304 	streq	r0, [lr, #-772]!	; 0xfffffcfc
     18c:	05150605 	ldreq	r0, [r5, #-1541]	; 0xfffff9fb
     190:	05010608 	streq	r0, [r1, #-1544]	; 0xfffff9f8
     194:	09052e07 	stmdbeq	r5, {r0, r1, r2, r9, sl, fp, sp}
     198:	01144b06 	tsteq	r4, r6, lsl #22
     19c:	05054a66 	streq	r4, [r5, #-2662]	; 0xfffff59a
     1a0:	060d0514 			; <UNDEFINED> instruction: 0x060d0514
     1a4:	2e1a0501 	cfmul32cs	mvfx0, mvfx10, mvfx1
     1a8:	9f060505 	svcls	0x00060505
     1ac:	01060b05 	tsteq	r6, r5, lsl #22
     1b0:	0605054a 	streq	r0, [r5], -sl, asr #10
     1b4:	0616052f 	ldreq	r0, [r6], -pc, lsr #10
     1b8:	2e1c0501 	cfmul32cs	mvfx0, mvfx12, mvfx1
     1bc:	052e2905 	streq	r2, [lr, #-2309]!	; 0xfffff6fb
     1c0:	05052e0e 	streq	r2, [r5, #-3598]	; 0xfffff1f2
     1c4:	06052f06 	streq	r2, [r5], -r6, lsl #30
     1c8:	0c050106 	stfeqs	f0, [r5], {6}
     1cc:	0605052e 	streq	r0, [r5], -lr, lsr #10
     1d0:	9e4a014b 	dvflsem	f0, f2, #3.0
     1d4:	06090514 			; <UNDEFINED> instruction: 0x06090514
     1d8:	2e070501 	cfsh32cs	mvfx0, mvfx7, #1
     1dc:	4b060905 	blmi	1825f8 <__bss_end__+0x178490>
     1e0:	4a4a0114 	bmi	1280638 <__bss_end__+0x12764d0>
     1e4:	13060105 	movwne	r0, #24837	; 0x6105
     1e8:	03060905 	movweq	r0, #26885	; 0x6905
     1ec:	2e014a72 			; <UNDEFINED> instruction: 0x2e014a72
     1f0:	2e0b039e 	mcrcs	3, 0, r0, cr11, cr14, {4}
     1f4:	029e2e01 	addseq	r2, lr, #1, 28
     1f8:	01010016 	tsteq	r1, r6, lsl r0
     1fc:	0000072f 	andeq	r0, r0, pc, lsr #14
     200:	01370003 	teqeq	r7, r3
     204:	01020000 	mrseq	r0, (UNDEF: 2)
     208:	000d0efb 	strdeq	r0, [sp], -fp
     20c:	01010101 	tsteq	r1, r1, lsl #2
     210:	01000000 	mrseq	r0, (UNDEF: 0)
     214:	2f010000 	svccs	0x00010000
     218:	2f727375 	svccs	0x00727375
     21c:	2f62696c 	svccs	0x0062696c
     220:	2f636367 	svccs	0x00636367
     224:	2d6d7261 	sfmcs	f7, 2, [sp, #-388]!	; 0xfffffe7c
     228:	656e6f6e 	strbvs	r6, [lr, #-3950]!	; 0xfffff092
     22c:	6261652d 	rsbvs	r6, r1, #188743680	; 0xb400000
     230:	2e392f69 	cdpcs	15, 3, cr2, cr9, cr9, {3}
     234:	2f302e32 	svccs	0x00302e32
     238:	6c636e69 	stclvs	14, cr6, [r3], #-420	; 0xfffffe5c
     23c:	00656475 	rsbeq	r6, r5, r5, ror r4
     240:	7273752f 	rsbsvc	r7, r3, #197132288	; 0xbc00000
     244:	6d72612f 	ldfvse	f6, [r2, #-188]!	; 0xffffff44
     248:	6e6f6e2d 	cdpvs	14, 6, cr6, cr15, cr13, {1}
     24c:	61652d65 	cmnvs	r5, r5, ror #26
     250:	692f6962 	stmdbvs	pc!, {r1, r5, r6, r8, fp, sp, lr}	; <UNPREDICTABLE>
     254:	756c636e 	strbvc	r6, [ip, #-878]!	; 0xfffffc92
     258:	732f6564 			; <UNDEFINED> instruction: 0x732f6564
     25c:	2f007379 	svccs	0x00007379
     260:	656d6f68 	strbvs	r6, [sp, #-3944]!	; 0xfffff098
     264:	6573752f 	ldrbvs	r7, [r3, #-1327]!	; 0xfffffad1
     268:	65442f72 	strbvs	r2, [r4, #-3954]	; 0xfffff08e
     26c:	53432f76 	movtpl	r2, #16246	; 0x3f76
     270:	58303432 	ldmdapl	r0!, {r1, r4, r5, sl, ip, sp}
     274:	62696c2f 	rsbvs	r6, r9, #12032	; 0x2f00
     278:	692f6970 	stmdbvs	pc!, {r4, r5, r6, r8, fp, sp, lr}	; <UNPREDICTABLE>
     27c:	756c636e 	strbvc	r6, [ip, #-878]!	; 0xfffffc92
     280:	2f006564 	svccs	0x00006564
     284:	2f727375 	svccs	0x00727375
     288:	2d6d7261 	sfmcs	f7, 2, [sp, #-388]!	; 0xfffffe7c
     28c:	656e6f6e 	strbvs	r6, [lr, #-3950]!	; 0xfffff092
     290:	6261652d 	rsbvs	r6, r1, #188743680	; 0xb400000
     294:	6e692f69 	cdpvs	15, 6, cr2, cr9, cr9, {3}
     298:	64756c63 	ldrbtvs	r6, [r5], #-3171	; 0xfffff39d
     29c:	682f0065 	stmdavs	pc!, {r0, r2, r5, r6}	; <UNPREDICTABLE>
     2a0:	2f656d6f 	svccs	0x00656d6f
     2a4:	72657375 	rsbvc	r7, r5, #-738197503	; 0xd4000001
     2a8:	7665442f 	strbtvc	r4, [r5], -pc, lsr #8
     2ac:	3253432f 	subscc	r4, r3, #-1140850688	; 0xbc000000
     2b0:	2f583034 	svccs	0x00583034
     2b4:	7062696c 	rsbvc	r6, r2, ip, ror #18
     2b8:	696c2f69 	stmdbvs	ip!, {r0, r3, r5, r6, r8, r9, sl, fp, sp}^
     2bc:	00006362 	andeq	r6, r0, r2, ror #6
     2c0:	6c616b63 			; <UNDEFINED> instruction: 0x6c616b63
     2c4:	2e636f6c 	cdpcs	15, 6, cr6, cr3, cr12, {3}
     2c8:	00000063 	andeq	r0, r0, r3, rrx
     2cc:	616b6300 	cmnvs	fp, r0, lsl #6
     2d0:	636f6c6c 	cmnvs	pc, #108, 24	; 0x6c00
     2d4:	0000682e 	andeq	r6, r0, lr, lsr #16
     2d8:	74730000 	ldrbtvc	r0, [r3], #-0
     2dc:	746e6964 	strbtvc	r6, [lr], #-2404	; 0xfffff69c
     2e0:	6363672d 	cmnvs	r3, #11796480	; 0xb40000
     2e4:	0100682e 	tsteq	r0, lr, lsr #16
     2e8:	6f6c0000 	svcvs	0x006c0000
     2ec:	682e6b63 	stmdavs	lr!, {r0, r1, r5, r6, r8, r9, fp, sp, lr}
     2f0:	00000200 	andeq	r0, r0, r0, lsl #4
     2f4:	7079745f 	rsbsvc	r7, r9, pc, asr r4
     2f8:	682e7365 	stmdavs	lr!, {r0, r2, r5, r6, r8, r9, ip, sp, lr}
     2fc:	00000200 	andeq	r0, r0, r0, lsl #4
     300:	64647473 	strbtvs	r7, [r4], #-1139	; 0xfffffb8d
     304:	682e6665 	stmdavs	lr!, {r0, r2, r5, r6, r9, sl, sp, lr}
     308:	00000100 	andeq	r0, r0, r0, lsl #2
     30c:	6e656572 	mcrvs	5, 3, r6, cr5, cr2, {3}
     310:	00682e74 	rsbeq	r2, r8, r4, ror lr
     314:	72000002 	andvc	r0, r0, #2
     318:	682e6970 	stmdavs	lr!, {r4, r5, r6, r8, fp, sp, lr}
     31c:	00000300 	andeq	r0, r0, r0, lsl #6
     320:	69727473 	ldmdbvs	r2!, {r0, r1, r4, r5, r6, sl, ip, sp, lr}^
     324:	682e676e 	stmdavs	lr!, {r1, r2, r3, r5, r6, r8, r9, sl, sp, lr}
     328:	00000400 	andeq	r0, r0, r0, lsl #8
     32c:	6362696c 	cmnvs	r2, #108, 18	; 0x1b0000
     330:	7478652d 	ldrbtvc	r6, [r8], #-1325	; 0xfffffad3
     334:	682e6172 	stmdavs	lr!, {r1, r4, r5, r6, r8, sp, lr}
     338:	00000500 	andeq	r0, r0, r0, lsl #10
     33c:	00220500 	eoreq	r0, r2, r0, lsl #10
     340:	81a80205 			; <UNDEFINED> instruction: 0x81a80205
     344:	12030000 	andne	r0, r3, #0
     348:	01240501 			; <UNDEFINED> instruction: 0x01240501
     34c:	01060105 	tsteq	r6, r5, lsl #2
     350:	0624052e 	strteq	r0, [r4], -lr, lsr #10
     354:	05010630 	streq	r0, [r1, #-1584]	; 0xfffff9d0
     358:	052e0626 	streq	r0, [lr, #-1574]!	; 0xfffff9da
     35c:	0501062d 	streq	r0, [r1, #-1581]	; 0xfffff9d3
     360:	22052e01 	andcs	r2, r5, #1, 28
     364:	01064c06 	tsteq	r6, r6, lsl #24
     368:	4a062405 	bmi	189384 <__bss_end__+0x17f21c>
     36c:	01062b05 	tsteq	r6, r5, lsl #22
     370:	052e3d05 	streq	r3, [lr, #-3333]!	; 0xfffff2fb
     374:	28052e01 	stmdacs	r5, {r0, r9, sl, fp, sp}
     378:	2a054c06 	bcs	153398 <__bss_end__+0x149230>
     37c:	063c0501 	ldrteq	r0, [ip], -r1, lsl #10
     380:	2e010501 	cfsh32cs	mvfx0, mvfx1, #1
     384:	4d062905 	vstrmi.16	s4, [r6, #-10]	; <UNPREDICTABLE>
     388:	05130505 	ldreq	r0, [r3, #-1285]	; 0xfffffafb
     38c:	2e130601 	cfmsub32cs	mvax0, mvfx0, mvfx3, mvfx1
     390:	03064205 	movweq	r4, #25093	; 0x6205
     394:	01062e23 	tsteq	r6, r3, lsr #28
     398:	67060505 	strvs	r0, [r6, -r5, lsl #10]
     39c:	060b0513 			; <UNDEFINED> instruction: 0x060b0513
     3a0:	00100501 	andseq	r0, r0, r1, lsl #10
     3a4:	06010402 	streq	r0, [r1], -r2, lsl #8
     3a8:	0005052e 	andeq	r0, r5, lr, lsr #10
     3ac:	06010402 	streq	r0, [r1], -r2, lsl #8
     3b0:	06090501 	streq	r0, [r9], -r1, lsl #10
     3b4:	060d054b 	streq	r0, [sp], -fp, asr #10
     3b8:	2e0b0501 	cfsh32cs	mvfx0, mvfx11, #1
     3bc:	02001c05 	andeq	r1, r0, #1280	; 0x500
     3c0:	2d060204 	sfmcs	f0, 4, [r6, #-16]
     3c4:	02001d05 	andeq	r1, r0, #320	; 0x140
     3c8:	01060204 	tsteq	r6, r4, lsl #4
     3cc:	02040200 	andeq	r0, r4, #0, 4
     3d0:	060d052e 	streq	r0, [sp], -lr, lsr #10
     3d4:	06240530 			; <UNDEFINED> instruction: 0x06240530
     3d8:	1a052e01 	bne	14bbe4 <__bss_end__+0x141a7c>
     3dc:	2e11052e 	cfmul64cs	mvdx0, mvdx1, mvdx14
     3e0:	2f060d05 	svccs	0x00060d05
     3e4:	4a660101 	bmi	19807f0 <__bss_end__+0x1976688>
     3e8:	02048201 	andeq	r8, r4, #268435456	; 0x10000000
     3ec:	0f031405 	svceq	0x00031405
     3f0:	13050501 	movwne	r0, #21761	; 0x5501
     3f4:	13664a01 	cmnne	r6, #4096	; 0x1000
     3f8:	06090513 			; <UNDEFINED> instruction: 0x06090513
     3fc:	2e070501 	cfsh32cs	mvfx0, mvfx7, #1
     400:	4b060905 	blmi	18281c <__bss_end__+0x1786b4>
     404:	059e4a01 	ldreq	r4, [lr, #2561]	; 0xa01
     408:	05131405 	ldreq	r1, [r3, #-1029]	; 0xfffffbfb
     40c:	05010609 	streq	r0, [r1, #-1545]	; 0xfffff9f7
     410:	09052e07 	stmdbeq	r5, {r0, r1, r2, r9, sl, fp, sp}
     414:	01064b06 	tsteq	r6, r6, lsl #22
     418:	0d050104 	stfeqs	f0, [r5, #-16]
     41c:	01690306 	cmneq	r9, r6, lsl #6
     420:	4a4a0113 	bmi	1280874 <__bss_end__+0x127670c>
     424:	06140513 			; <UNDEFINED> instruction: 0x06140513
     428:	05020401 	streq	r0, [r2, #-1025]	; 0xfffffbff
     42c:	4a14031e 	bmi	5010ac <__bss_end__+0x4f6f44>
     430:	052e1a05 	streq	r1, [lr, #-2565]!	; 0xfffff5fb
     434:	014b0609 	cmpeq	fp, r9, lsl #12
     438:	04ba064a 	ldrteq	r0, [sl], #1610	; 0x64a
     43c:	030c0501 	movweq	r0, #50433	; 0xc501
     440:	0105016f 	tsteq	r5, pc, ror #2
     444:	0630052f 	ldrteq	r0, [r0], -pc, lsr #10
     448:	050106f4 	streq	r0, [r1, #-1780]	; 0xfffff90c
     44c:	064b0605 	strbeq	r0, [fp], -r5, lsl #12
     450:	2f01052e 	svccs	0x0001052e
     454:	03062505 	movweq	r2, #25861	; 0x6505
     458:	01062e50 	tsteq	r6, r0, asr lr
     45c:	4b060505 	blmi	181878 <__bss_end__+0x177710>
     460:	01060e05 	tsteq	r6, r5, lsl #28
     464:	2f060505 	svccs	0x00060505
     468:	01060e05 	tsteq	r6, r5, lsl #28
     46c:	4b060505 	blmi	181888 <__bss_end__+0x177720>
     470:	01061605 	tsteq	r6, r5, lsl #12
     474:	4b060505 	blmi	181890 <__bss_end__+0x177728>
     478:	01060e05 	tsteq	r6, r5, lsl #28
     47c:	2f060505 	svccs	0x00060505
     480:	13060105 	movwne	r0, #24837	; 0x6105
     484:	31062005 	tstcc	r6, r5
     488:	05050106 	streq	r0, [r5, #-262]	; 0xfffffefa
     48c:	0c054b06 			; <UNDEFINED> instruction: 0x0c054b06
     490:	1f050106 	svcne	0x00050106
     494:	2e09052e 	cfsh32cs	mvfx0, mvfx9, #30
     498:	02003905 	andeq	r3, r0, #81920	; 0x14000
     49c:	054a0104 	strbeq	r0, [sl, #-260]	; 0xfffffefc
     4a0:	04020044 	streq	r0, [r2], #-68	; 0xffffffbc
     4a4:	35052e01 	strcc	r2, [r5, #-3585]	; 0xfffff1ff
     4a8:	01040200 	mrseq	r0, R12_usr
     4ac:	0609052e 	streq	r0, [r9], -lr, lsr #10
     4b0:	6601014c 	strvs	r0, [r1], -ip, asr #2
     4b4:	0482014a 	streq	r0, [r2], #330	; 0x14a
     4b8:	03140502 	tsteq	r4, #8388608	; 0x800000
     4bc:	05050128 	streq	r0, [r5, #-296]	; 0xfffffed8
     4c0:	664a0113 			; <UNDEFINED> instruction: 0x664a0113
     4c4:	09051313 	stmdbeq	r5, {r0, r1, r4, r8, r9, ip}
     4c8:	07050106 	streq	r0, [r5, -r6, lsl #2]
     4cc:	0609052e 	streq	r0, [r9], -lr, lsr #10
     4d0:	9e4a014b 	dvflsem	f0, f2, #3.0
     4d4:	13140505 	tstne	r4, #20971520	; 0x1400000
     4d8:	01060905 	tsteq	r6, r5, lsl #18
     4dc:	052e0705 	streq	r0, [lr, #-1797]!	; 0xfffff8fb
     4e0:	044b0609 	strbeq	r0, [fp], #-1545	; 0xfffff9f7
     4e4:	06100501 	ldreq	r0, [r0], -r1, lsl #10
     4e8:	04015103 	streq	r5, [r1], #-259	; 0xfffffefd
     4ec:	03010502 	movweq	r0, #5378	; 0x1502
     4f0:	1e052e30 	mcrne	14, 0, r2, cr5, cr0, {1}
     4f4:	2e1a052c 	cfmul64cs	mvdx0, mvdx10, mvdx12
     4f8:	4b060905 	blmi	182914 <__bss_end__+0x1787ac>
     4fc:	ba064a01 	blt	192d08 <__bss_end__+0x188ba0>
     500:	0c050104 	stfeqs	f0, [r5], {4}
     504:	05015403 	streq	r5, [r1, #-1027]	; 0xfffffbfd
     508:	3a052f01 	bcc	14c114 <__bss_end__+0x141fac>
     50c:	0106d806 	tsteq	r6, r6, lsl #16
     510:	67060505 	strvs	r0, [r6, -r5, lsl #10]
     514:	060b0513 			; <UNDEFINED> instruction: 0x060b0513
     518:	00100501 	andseq	r0, r0, r1, lsl #10
     51c:	06010402 	streq	r0, [r1], -r2, lsl #8
     520:	0005052e 	andeq	r0, r5, lr, lsr #10
     524:	06010402 	streq	r0, [r1], -r2, lsl #8
     528:	06090501 	streq	r0, [r9], -r1, lsl #10
     52c:	060d054b 	streq	r0, [sp], -fp, asr #10
     530:	2e0b0501 	cfsh32cs	mvfx0, mvfx11, #1
     534:	02001c05 	andeq	r1, r0, #1280	; 0x500
     538:	2d060204 	sfmcs	f0, 4, [r6, #-16]
     53c:	02001d05 	andeq	r1, r0, #320	; 0x140
     540:	01060204 	tsteq	r6, r4, lsl #4
     544:	02040200 	andeq	r0, r4, #0, 4
     548:	060d052e 	streq	r0, [sp], -lr, lsr #10
     54c:	06240530 			; <UNDEFINED> instruction: 0x06240530
     550:	1a052e01 	bne	14bd5c <__bss_end__+0x141bf4>
     554:	2e11052e 	cfmul64cs	mvdx0, mvdx1, mvdx14
     558:	2f060d05 	svccs	0x00060d05
     55c:	4a660101 	bmi	1980968 <__bss_end__+0x1976800>
     560:	02049e01 	andeq	r9, r4, #1, 28
     564:	1c031405 	cfstrsne	mvf1, [r3], {5}
     568:	13050501 	movwne	r0, #21761	; 0x5501
     56c:	13664a01 	cmnne	r6, #4096	; 0x1000
     570:	06090513 			; <UNDEFINED> instruction: 0x06090513
     574:	2e070501 	cfsh32cs	mvfx0, mvfx7, #1
     578:	4b060905 	blmi	182994 <__bss_end__+0x17882c>
     57c:	059e4a01 	ldreq	r4, [lr, #2561]	; 0xa01
     580:	05131405 	ldreq	r1, [r3, #-1029]	; 0xfffffbfb
     584:	05010609 	streq	r0, [r1, #-1545]	; 0xfffff9f7
     588:	09052e07 	stmdbeq	r5, {r0, r1, r2, r9, sl, fp, sp}
     58c:	01044b06 	tsteq	r4, r6, lsl #22
     590:	03061405 	movweq	r1, #25605	; 0x6405
     594:	0204015d 	andeq	r0, r4, #1073741847	; 0x40000017
     598:	24030105 	strcs	r0, [r3], #-261	; 0xfffffefb
     59c:	2c1e052e 	cfldr32cs	mvfx0, [lr], {46}	; 0x2e
     5a0:	052e1a05 	streq	r1, [lr, #-2565]!	; 0xfffff5fb
     5a4:	014b0609 	cmpeq	fp, r9, lsl #12
     5a8:	04ba064a 	ldrteq	r0, [sl], #1610	; 0x64a
     5ac:	030c0501 	movweq	r0, #50433	; 0xc501
     5b0:	01050161 	tsteq	r5, r1, ror #2
     5b4:	0622052f 	strteq	r0, [r2], -pc, lsr #10
     5b8:	06d61a03 	ldrbeq	r1, [r6], r3, lsl #20
     5bc:	06050501 	streq	r0, [r5], -r1, lsl #10
     5c0:	060c054c 	streq	r0, [ip], -ip, asr #10
     5c4:	30090501 	andcc	r0, r9, r1, lsl #10
     5c8:	05491605 	strbeq	r1, [r9, #-1541]	; 0xfffff9fb
     5cc:	09054a0c 	stmdbeq	r5, {r2, r3, r9, fp, lr}
     5d0:	00160566 	andseq	r0, r6, r6, ror #10
     5d4:	4b030402 	blmi	c15e4 <__bss_end__+0xb747c>
     5d8:	02000c05 	andeq	r0, r0, #1280	; 0x500
     5dc:	05660304 	strbeq	r0, [r6, #-772]!	; 0xfffffcfc
     5e0:	04020009 	streq	r0, [r2], #-9
     5e4:	054aba03 	strbeq	fp, [sl, #-2563]	; 0xfffff5fd
     5e8:	27052f01 	strcs	r2, [r5, -r1, lsl #30]
     5ec:	7fab0306 	svcvc	0x00ab0306
     5f0:	0501062e 	streq	r0, [r1, #-1582]	; 0xfffff9d2
     5f4:	012f0605 			; <UNDEFINED> instruction: 0x012f0605
     5f8:	02040200 	andeq	r0, r4, #0, 4
     5fc:	040200ba 	streq	r0, [r2], #-186	; 0xffffff46
     600:	02000102 	andeq	r0, r0, #-2147483648	; 0x80000000
     604:	00130204 	andseq	r0, r3, r4, lsl #4
     608:	06020402 	streq	r0, [r2], -r2, lsl #8
     60c:	0402004a 	streq	r0, [r2], #-74	; 0xffffffb6
     610:	02002e02 	andeq	r2, r0, #2, 28
     614:	2f060204 	svccs	0x00060204
     618:	02001705 	andeq	r1, r0, #1310720	; 0x140000
     61c:	01060204 	tsteq	r6, r4, lsl #4
     620:	02000a05 	andeq	r0, r0, #20480	; 0x5000
     624:	054a0204 	strbeq	r0, [sl, #-516]	; 0xfffffdfc
     628:	04020005 	streq	r0, [r2], #-5
     62c:	052f0602 	streq	r0, [pc, #-1538]!	; 32 <_start-0x7fce>
     630:	04020015 	streq	r0, [r2], #-21	; 0xffffffeb
     634:	05010602 	streq	r0, [r1, #-1538]	; 0xfffff9fe
     638:	0402000e 	streq	r0, [r2], #-14
     63c:	01052e02 	tsteq	r5, r2, lsl #28
     640:	02040200 	andeq	r0, r4, #0, 4
     644:	0005052f 	andeq	r0, r5, pc, lsr #10
     648:	06010402 	streq	r0, [r1], -r2, lsl #8
     64c:	0402002a 	streq	r0, [r2], #-42	; 0xffffffd6
     650:	02000101 	andeq	r0, r0, #1073741824	; 0x40000000
     654:	002e0104 	eoreq	r0, lr, r4, lsl #2
     658:	9e010402 	cdpls	4, 0, cr0, cr1, cr2, {0}
     65c:	e7035005 	str	r5, [r3, -r5]
     660:	0106ba00 	tsteq	r6, r0, lsl #20
     664:	9f060505 	svcls	0x00060505
     668:	01061005 	tsteq	r6, r5
     66c:	30060505 	andcc	r0, r6, r5, lsl #10
     670:	04020001 	streq	r0, [r2], #-1
     674:	02009e02 	andeq	r9, r0, #2, 28
     678:	00130204 	andseq	r0, r3, r4, lsl #4
     67c:	01020402 	tsteq	r2, r2, lsl #8
     680:	02040200 	andeq	r0, r4, #0, 4
     684:	02002e06 	andeq	r2, r0, #6, 28	; 0x60
     688:	2e060204 	cdpcs	2, 0, cr0, cr6, cr4, {0}
     68c:	02040200 	andeq	r0, r4, #0, 4
     690:	04020066 	streq	r0, [r2], #-102	; 0xffffff9a
     694:	0a051302 	beq	1452a4 <__bss_end__+0x13b13c>
     698:	02040200 	andeq	r0, r4, #0, 4
     69c:	08050106 	stmdaeq	r5, {r1, r2, r8}
     6a0:	02040200 	andeq	r0, r4, #0, 4
     6a4:	0605054a 	streq	r0, [r5], -sl, asr #10
     6a8:	0611054c 	ldreq	r0, [r1], -ip, asr #10
     6ac:	06050501 	streq	r0, [r5], -r1, lsl #10
     6b0:	060e056b 	streq	r0, [lr], -fp, ror #10
     6b4:	06050501 	streq	r0, [r5], -r1, lsl #10
     6b8:	1005834b 	andne	r8, r5, fp, asr #6
     6bc:	0e050106 	adfeqs	f0, f5, f6
     6c0:	2f01054a 	svccs	0x0001054a
     6c4:	02000505 	andeq	r0, r0, #20971520	; 0x1400000
     6c8:	03060104 	movweq	r0, #24836	; 0x6104
     6cc:	02002e74 	andeq	r2, r0, #116, 28	; 0x740
     6d0:	002e0104 	eoreq	r0, lr, r4, lsl #2
     6d4:	9e010402 	cdpls	4, 0, cr0, cr1, cr2, {0}
     6d8:	0f035705 	svceq	0x00035705
     6dc:	050106d6 	streq	r0, [r1, #-1750]	; 0xfffff92a
     6e0:	13670605 	cmnne	r7, #5242880	; 0x500000
     6e4:	2e060114 	mcrcs	1, 0, r0, cr6, cr4, {0}
     6e8:	02040200 	andeq	r0, r4, #0, 4
     6ec:	0200ba06 	andeq	fp, r0, #24576	; 0x6000
     6f0:	00130204 	andseq	r0, r3, r4, lsl #4
     6f4:	01020402 	tsteq	r2, r2, lsl #8
     6f8:	02040200 	andeq	r0, r4, #0, 4
     6fc:	02002e06 	andeq	r2, r0, #6, 28	; 0x60
     700:	2e060204 	cdpcs	2, 0, cr0, cr6, cr4, {0}
     704:	02040200 	andeq	r0, r4, #0, 4
     708:	04020066 	streq	r0, [r2], #-102	; 0xffffff9a
     70c:	14051402 	strne	r1, [r5], #-1026	; 0xfffffbfe
     710:	02040200 	andeq	r0, r4, #0, 4
     714:	0e050106 	adfeqs	f0, f5, f6
     718:	02040200 	andeq	r0, r4, #0, 4
     71c:	0005052e 	andeq	r0, r5, lr, lsr #10
     720:	06020402 	streq	r0, [r2], -r2, lsl #8
     724:	000e052f 	andeq	r0, lr, pc, lsr #10
     728:	06020402 	streq	r0, [r2], -r2, lsl #8
     72c:	00050501 	andeq	r0, r5, r1, lsl #10
     730:	06020402 	streq	r0, [r2], -r2, lsl #8
     734:	00070531 	andeq	r0, r7, r1, lsr r5
     738:	06020402 	streq	r0, [r2], -r2, lsl #8
     73c:	06090501 	streq	r0, [r9], -r1, lsl #10
     740:	0505014b 	streq	r0, [r5, #-331]	; 0xfffffeb5
     744:	060e0514 			; <UNDEFINED> instruction: 0x060e0514
     748:	66130501 	ldrvs	r0, [r3], -r1, lsl #10
     74c:	052e0705 	streq	r0, [lr, #-1797]!	; 0xfffff8fb
     750:	014b0609 	cmpeq	fp, r9, lsl #12
     754:	13150505 	tstne	r5, #20971520	; 0x1400000
     758:	01061505 	tsteq	r6, r5, lsl #10
     75c:	2f060505 	svccs	0x00060505
     760:	01061905 	tsteq	r6, r5, lsl #18
     764:	052e1305 	streq	r1, [lr, #-773]!	; 0xfffffcfb
     768:	052f0605 	streq	r0, [pc, #-1541]!	; 16b <_start-0x7e95>
     76c:	0501060e 	streq	r0, [r1, #-1550]	; 0xfffff9f2
     770:	054b0605 	strbeq	r0, [fp, #-1541]	; 0xfffff9fb
     774:	05010612 	streq	r0, [r1, #-1554]	; 0xfffff9ee
     778:	05670605 	strbeq	r0, [r7, #-1541]!	; 0xfffff9fb
     77c:	05010613 	streq	r0, [r1, #-1555]	; 0xfffff9ed
     780:	054b0605 	strbeq	r0, [fp, #-1541]	; 0xfffff9fb
     784:	05010614 	streq	r0, [r1, #-1556]	; 0xfffff9ec
     788:	834b0605 	movthi	r0, #46597	; 0xb605
     78c:	9f066606 	svcls	0x00066606
     790:	01061005 	tsteq	r6, r5
     794:	054a0e05 	strbeq	r0, [sl, #-3589]	; 0xfffff1fb
     798:	05300605 	ldreq	r0, [r0, #-1541]!	; 0xfffff9fb
     79c:	0501060a 	streq	r0, [r1, #-1546]	; 0xfffff9f6
     7a0:	01830605 	orreq	r0, r3, r5, lsl #12
     7a4:	02040200 	andeq	r0, r4, #0, 4
     7a8:	04020082 	streq	r0, [r2], #-130	; 0xffffff7e
     7ac:	02000102 	andeq	r0, r0, #-2147483648	; 0x80000000
     7b0:	05130204 	ldreq	r0, [r3, #-516]	; 0xfffffdfc
     7b4:	0402000b 	streq	r0, [r2], #-11
     7b8:	05010602 	streq	r0, [r1, #-1538]	; 0xfffff9fe
     7bc:	04020005 	streq	r0, [r2], #-5
     7c0:	00670602 	rsbeq	r0, r7, r2, lsl #12
     7c4:	01020402 	tsteq	r2, r2, lsl #8
     7c8:	02040200 	andeq	r0, r4, #0, 4
     7cc:	02002e06 	andeq	r2, r0, #6, 28	; 0x60
     7d0:	2e060204 	cdpcs	2, 0, cr0, cr6, cr4, {0}
     7d4:	02040200 	andeq	r0, r4, #0, 4
     7d8:	0402009e 	streq	r0, [r2], #-158	; 0xffffff62
     7dc:	01051302 	tsteq	r5, r2, lsl #6
     7e0:	02040200 	andeq	r0, r4, #0, 4
     7e4:	05051306 	streq	r1, [r5, #-774]	; 0xfffffcfa
     7e8:	01040200 	mrseq	r0, R12_usr
     7ec:	66620306 	strbtvs	r0, [r2], -r6, lsl #6
     7f0:	01040200 	mrseq	r0, R12_usr
     7f4:	0402002e 	streq	r0, [r2], #-46	; 0xffffffd2
     7f8:	09059e01 	stmdbeq	r5, {r0, r9, sl, fp, ip, pc}
     7fc:	2e060136 	mcrcs	1, 0, r0, cr6, cr6, {1}
     800:	01662e06 	cmneq	r6, r6, lsl #28
     804:	0131ba2e 	teqeq	r1, lr, lsr #20
     808:	2e062e06 	cdpcs	14, 0, cr2, cr6, cr6, {0}
     80c:	082e01d6 	stmdaeq	lr!, {r1, r2, r4, r6, r7, r8}
     810:	0005053c 	andeq	r0, r5, ip, lsr r5
     814:	03010402 	movweq	r0, #5122	; 0x1402
     818:	02002e0f 	andeq	r2, r0, #15, 28	; 0xf0
     81c:	00010104 	andeq	r0, r1, r4, lsl #2
     820:	2e010402 	cdpcs	4, 0, cr0, cr1, cr2, {0}
     824:	01040200 	mrseq	r0, R12_usr
     828:	031a059e 	tsteq	sl, #662700032	; 0x27800000
     82c:	05ac0809 	streq	r0, [ip, #2057]!	; 0x809
     830:	1d052f05 	stcne	15, cr2, [r5, #-20]	; 0xffffffec
     834:	05050106 	streq	r0, [r5, #-262]	; 0xfffffefa
     838:	1e058306 	cdpne	3, 0, cr8, cr5, cr6, {0}
     83c:	05050106 	streq	r0, [r5, #-262]	; 0xfffffefa
     840:	4a014c06 	bmi	53860 <__bss_end__+0x496f8>
     844:	15131482 	ldrne	r1, [r3, #-1154]	; 0xfffffb7e
     848:	05010a05 	streq	r0, [r1, #-2565]	; 0xfffff5fb
     84c:	2e010611 	mcrcs	6, 0, r0, cr1, cr1, {0}
     850:	2d0f0e05 	stccs	14, cr0, [pc, #-20]	; 844 <_start-0x77bc>
     854:	05320505 	ldreq	r0, [r2, #-1285]!	; 0xfffffafb
     858:	0533060d 	ldreq	r0, [r3, #-1549]!	; 0xfffff9f3
     85c:	05010614 	streq	r0, [r1, #-1556]	; 0xfffff9ec
     860:	052f060d 	streq	r0, [pc, #-1549]!	; 25b <_start-0x7da5>
     864:	05010612 	streq	r0, [r1, #-1554]	; 0xfffff9ee
     868:	062f060d 	strteq	r0, [pc], -sp, lsl #12
     86c:	06050501 	streq	r0, [r5], -r1, lsl #10
     870:	05010f03 	streq	r0, [r1, #-3843]	; 0xfffff0fd
     874:	05010607 	streq	r0, [r1, #-1543]	; 0xfffff9f9
     878:	014b0609 	cmpeq	fp, r9, lsl #12
     87c:	0200824a 	andeq	r8, r0, #-1610612732	; 0xa0000004
     880:	05140104 	ldreq	r0, [r4, #-260]	; 0xfffffefc
     884:	04020005 	streq	r0, [r2], #-5
     888:	01051301 	tsteq	r5, r1, lsl #6
     88c:	01040200 	mrseq	r0, R12_usr
     890:	0d051306 	stceq	3, cr1, [r5, #-24]	; 0xffffffe8
     894:	4a700306 	bmi	1c014b4 <__bss_end__+0x1bf734c>
     898:	01061405 	tsteq	r6, r5, lsl #8
     89c:	35060905 	strcc	r0, [r6, #-2309]	; 0xfffff6fb
     8a0:	01060e05 	tsteq	r6, r5, lsl #28
     8a4:	03060a05 	movweq	r0, #27141	; 0x6a05
     8a8:	33052e6f 	movwcc	r2, #24175	; 0x5e6f
     8ac:	49050106 	stmdbmi	r5, {r1, r2, r8}
     8b0:	2e42052e 	cdpcs	5, 4, cr0, cr2, cr14, {1}
     8b4:	052e5605 	streq	r5, [lr, #-1541]!	; 0xfffff9fb
     8b8:	2f052e10 	svccs	0x00052e10
     8bc:	01040200 	mrseq	r0, R12_usr
     8c0:	37052d06 	strcc	r2, [r5, -r6, lsl #26]
     8c4:	01040200 	mrseq	r0, R12_usr
     8c8:	05050106 	streq	r0, [r5, #-262]	; 0xfffffefa
     8cc:	01040200 	mrseq	r0, R12_usr
     8d0:	0609054a 	streq	r0, [r9], -sl, asr #10
     8d4:	060e054d 	streq	r0, [lr], -sp, asr #10
     8d8:	4a0c0501 	bmi	301ce4 <__bss_end__+0x2f7b7c>
     8dc:	51060905 	tstpl	r6, r5, lsl #18
     8e0:	01061805 	tsteq	r6, r5, lsl #16
     8e4:	054a0e05 	strbeq	r0, [sl, #-3589]	; 0xfffff1fb
     8e8:	4805660c 	stmdami	r5, {r2, r3, r9, sl, sp, lr}
     8ec:	01040200 	mrseq	r0, R12_usr
     8f0:	003e054a 	eorseq	r0, lr, sl, asr #10
     8f4:	66010402 	strvs	r0, [r1], -r2, lsl #8
     8f8:	02003a05 	andeq	r3, r0, #20480	; 0x5000
     8fc:	05ba0104 	ldreq	r0, [sl, #260]!	; 0x104
     900:	054c060e 	strbeq	r0, [ip, #-1550]	; 0xfffff9f2
     904:	05010617 	streq	r0, [r1, #-1559]	; 0xfffff9e9
     908:	0d052e11 	stceq	14, cr2, [r5, #-68]	; 0xffffffbc
     90c:	24054c06 	strcs	r4, [r5], #-3078	; 0xfffff3fa
     910:	12050106 	andne	r0, r5, #-2147483647	; 0x80000001
     914:	6610054a 	ldrvs	r0, [r0], -sl, asr #10
     918:	2f061105 	svccs	0x00061105
     91c:	01061805 	tsteq	r6, r5, lsl #16
     920:	09052e2e 	stmdbeq	r5, {r1, r2, r3, r5, r9, sl, fp, sp}
     924:	010a0306 	tsteq	sl, r6, lsl #6
     928:	12024a01 	andne	r4, r2, #4096	; 0x1000
     92c:	3c010100 	stfccs	f0, [r1], {-0}
     930:	03000002 	movweq	r0, #2
     934:	0000d400 	andeq	sp, r0, r0, lsl #8
     938:	fb010200 	blx	41142 <__bss_end__+0x36fda>
     93c:	01000d0e 	tsteq	r0, lr, lsl #26
     940:	00010101 	andeq	r0, r1, r1, lsl #2
     944:	00010000 	andeq	r0, r1, r0
     948:	696c0100 	stmdbvs	ip!, {r8}^
     94c:	2f006362 	svccs	0x00006362
     950:	2f727375 	svccs	0x00727375
     954:	2f62696c 	svccs	0x0062696c
     958:	2f636367 	svccs	0x00636367
     95c:	2d6d7261 	sfmcs	f7, 2, [sp, #-388]!	; 0xfffffe7c
     960:	656e6f6e 	strbvs	r6, [lr, #-3950]!	; 0xfffff092
     964:	6261652d 	rsbvs	r6, r1, #188743680	; 0xb400000
     968:	2e392f69 	cdpcs	15, 3, cr2, cr9, cr9, {3}
     96c:	2f302e32 	svccs	0x00302e32
     970:	6c636e69 	stclvs	14, cr6, [r3], #-420	; 0xfffffe5c
     974:	00656475 	rsbeq	r6, r5, r5, ror r4
     978:	7273752f 	rsbsvc	r7, r3, #197132288	; 0xbc00000
     97c:	6d72612f 	ldfvse	f6, [r2, #-188]!	; 0xffffff44
     980:	6e6f6e2d 	cdpvs	14, 6, cr6, cr15, cr13, {1}
     984:	61652d65 	cmnvs	r5, r5, ror #26
     988:	692f6962 	stmdbvs	pc!, {r1, r5, r6, r8, fp, sp, lr}	; <UNPREDICTABLE>
     98c:	756c636e 	strbvc	r6, [ip, #-878]!	; 0xfffffc92
     990:	732f6564 			; <UNDEFINED> instruction: 0x732f6564
     994:	2f007379 	svccs	0x00007379
     998:	656d6f68 	strbvs	r6, [sp, #-3944]!	; 0xfffff098
     99c:	6573752f 	ldrbvs	r7, [r3, #-1327]!	; 0xfffffad1
     9a0:	65442f72 	strbvs	r2, [r4, #-3954]	; 0xfffff08e
     9a4:	53432f76 	movtpl	r2, #16246	; 0x3f76
     9a8:	58303432 	ldmdapl	r0!, {r1, r4, r5, sl, ip, sp}
     9ac:	62696c2f 	rsbvs	r6, r9, #12032	; 0x2f00
     9b0:	692f6970 	stmdbvs	pc!, {r4, r5, r6, r8, fp, sp, lr}	; <UNPREDICTABLE>
     9b4:	756c636e 	strbvc	r6, [ip, #-878]!	; 0xfffffc92
     9b8:	00006564 	andeq	r6, r0, r4, ror #10
     9bc:	68736168 	ldmdavs	r3!, {r3, r5, r6, r8, sp, lr}^
     9c0:	0100632e 	tsteq	r0, lr, lsr #6
     9c4:	74730000 	ldrbtvc	r0, [r3], #-0
     9c8:	746e6964 	strbtvc	r6, [lr], #-2404	; 0xfffff69c
     9cc:	6363672d 	cmnvs	r3, #11796480	; 0xb40000
     9d0:	0200682e 	andeq	r6, r0, #3014656	; 0x2e0000
     9d4:	6f6c0000 	svcvs	0x006c0000
     9d8:	682e6b63 	stmdavs	lr!, {r0, r1, r5, r6, r8, r9, fp, sp, lr}
     9dc:	00000300 	andeq	r0, r0, r0, lsl #6
     9e0:	7079745f 	rsbsvc	r7, r9, pc, asr r4
     9e4:	682e7365 	stmdavs	lr!, {r0, r2, r5, r6, r8, r9, ip, sp, lr}
     9e8:	00000300 	andeq	r0, r0, r0, lsl #6
     9ec:	64647473 	strbtvs	r7, [r4], #-1139	; 0xfffffb8d
     9f0:	682e6665 	stmdavs	lr!, {r0, r2, r5, r6, r9, sl, sp, lr}
     9f4:	00000200 	andeq	r0, r0, r0, lsl #4
     9f8:	6e656572 	mcrvs	5, 3, r6, cr5, cr2, {3}
     9fc:	00682e74 	rsbeq	r2, r8, r4, ror lr
     a00:	72000003 	andvc	r0, r0, #3
     a04:	682e6970 	stmdavs	lr!, {r4, r5, r6, r8, fp, sp, lr}
     a08:	00000400 	andeq	r0, r0, r0, lsl #8
     a0c:	00310500 	eorseq	r0, r1, r0, lsl #10
     a10:	8a100205 	bhi	40122c <__bss_end__+0x3f70c4>
     a14:	0e030000 	cdpeq	0, 0, cr0, cr3, cr0, {0}
     a18:	13050501 	movwne	r0, #21761	; 0x5501
     a1c:	13130105 	tstne	r3, #1073741825	; 0x40000001
     a20:	05140505 	ldreq	r0, [r4, #-1285]	; 0xfffffafb
     a24:	05010608 	streq	r0, [r1, #-1544]	; 0xfffff9f8
     a28:	05056131 	streq	r6, [r5, #-305]	; 0xfffffecf
     a2c:	09056d06 	stmdbeq	r5, {r1, r2, r8, sl, fp, sp, lr}
     a30:	05050106 	streq	r0, [r5, #-262]	; 0xfffffefa
     a34:	09052f06 	stmdbeq	r5, {r1, r2, r8, r9, sl, fp, sp}
     a38:	05050106 	streq	r0, [r5, #-262]	; 0xfffffefa
     a3c:	0b053106 	bleq	14ce5c <__bss_end__+0x142cf4>
     a40:	01040200 	mrseq	r0, R12_usr
     a44:	00050501 	andeq	r0, r5, r1, lsl #10
     a48:	06010402 	streq	r0, [r1], -r2, lsl #8
     a4c:	00090501 	andeq	r0, r9, r1, lsl #10
     a50:	06020402 	streq	r0, [r2], -r2, lsl #8
     a54:	0012054b 	andseq	r0, r2, fp, asr #10
     a58:	06020402 	streq	r0, [r2], -r2, lsl #8
     a5c:	000f0501 	andeq	r0, pc, r1, lsl #10
     a60:	66020402 	strvs	r0, [r2], -r2, lsl #8
     a64:	02000905 	andeq	r0, r0, #81920	; 0x14000
     a68:	2f060204 	svccs	0x00060204
     a6c:	02001305 	andeq	r1, r0, #335544320	; 0x14000000
     a70:	01060204 	tsteq	r6, r4, lsl #4
     a74:	02001005 	andeq	r1, r0, #5
     a78:	05660204 	strbeq	r0, [r6, #-516]!	; 0xfffffdfc
     a7c:	04020009 	streq	r0, [r2], #-9
     a80:	052f0602 	streq	r0, [pc, #-1538]!	; 486 <_start-0x7b7a>
     a84:	04020010 	streq	r0, [r2], #-16
     a88:	05010602 	streq	r0, [r1, #-1538]	; 0xfffff9fe
     a8c:	04020009 	streq	r0, [r2], #-9
     a90:	052f0602 	streq	r0, [pc, #-1538]!	; 496 <_start-0x7b6a>
     a94:	0402000f 	streq	r0, [r2], #-15
     a98:	05010602 	streq	r0, [r1, #-1538]	; 0xfffff9fe
     a9c:	04020009 	streq	r0, [r2], #-9
     aa0:	052f0602 	streq	r0, [pc, #-1538]!	; 4a6 <_start-0x7b5a>
     aa4:	0402000f 	streq	r0, [r2], #-15
     aa8:	05010602 	streq	r0, [r1, #-1538]	; 0xfffff9fe
     aac:	04020014 	streq	r0, [r2], #-20	; 0xffffffec
     ab0:	05290602 	streq	r0, [r9, #-1538]!	; 0xfffff9fe
     ab4:	04020017 	streq	r0, [r2], #-23	; 0xffffffe9
     ab8:	00010602 	andeq	r0, r1, r2, lsl #12
     abc:	2e020402 	cdpcs	4, 0, cr0, cr2, cr2, {0}
     ac0:	03060505 	movweq	r0, #25861	; 0x6505
     ac4:	10032e09 	andne	r2, r3, r9, lsl #28
     ac8:	060a05ba 			; <UNDEFINED> instruction: 0x060a05ba
     acc:	06050501 	streq	r0, [r5], -r1, lsl #10
     ad0:	060a052f 	streq	r0, [sl], -pc, lsr #10
     ad4:	06050501 	streq	r0, [r5], -r1, lsl #10
     ad8:	060a052f 	streq	r0, [sl], -pc, lsr #10
     adc:	06050501 	streq	r0, [r5], -r1, lsl #10
     ae0:	060a052f 	streq	r0, [sl], -pc, lsr #10
     ae4:	06050501 	streq	r0, [r5], -r1, lsl #10
     ae8:	060a052f 	streq	r0, [sl], -pc, lsr #10
     aec:	06050501 	streq	r0, [r5], -r1, lsl #10
     af0:	060a052f 	streq	r0, [sl], -pc, lsr #10
     af4:	06050501 	streq	r0, [r5], -r1, lsl #10
     af8:	06010530 			; <UNDEFINED> instruction: 0x06010530
     afc:	06110513 			; <UNDEFINED> instruction: 0x06110513
     b00:	052e6903 	streq	r6, [lr, #-2307]!	; 0xfffff6fd
     b04:	2e010619 	mcrcs	6, 0, r0, cr1, cr9, {0}
     b08:	054a1605 	strbeq	r1, [sl, #-1541]	; 0xfffff9fb
     b0c:	052f0611 	streq	r0, [pc, #-1553]!	; 503 <_start-0x7afd>
     b10:	05010616 	streq	r0, [r1, #-1558]	; 0xfffff9ea
     b14:	052f0611 	streq	r0, [pc, #-1553]!	; 50b <_start-0x7af5>
     b18:	0501061a 	streq	r0, [r1, #-1562]	; 0xfffff9e6
     b1c:	11052e16 	tstne	r5, r6, lsl lr
     b20:	16052f06 	strne	r2, [r5], -r6, lsl #30
     b24:	11050106 	tstne	r5, r6, lsl #2
     b28:	052f2f06 	streq	r2, [pc, #-3846]!	; fffffc2a <__bss_end__+0xffff5ac2>
     b2c:	2e010619 	mcrcs	6, 0, r0, cr1, cr9, {0}
     b30:	054a1605 	strbeq	r1, [sl, #-1541]	; 0xfffff9fb
     b34:	052f0611 	streq	r0, [pc, #-1553]!	; 52b <_start-0x7ad5>
     b38:	05010616 	streq	r0, [r1, #-1558]	; 0xfffff9ea
     b3c:	052f0611 	streq	r0, [pc, #-1553]!	; 533 <_start-0x7acd>
     b40:	05010616 	streq	r0, [r1, #-1558]	; 0xfffff9ea
     b44:	2f2f0611 	svccs	0x002f0611
     b48:	01061905 	tsteq	r6, r5, lsl #18
     b4c:	052e1605 	streq	r1, [lr, #-1541]!	; 0xfffff9fb
     b50:	052f0611 	streq	r0, [pc, #-1553]!	; 547 <_start-0x7ab9>
     b54:	05010616 	streq	r0, [r1, #-1558]	; 0xfffff9ea
     b58:	052f0611 	streq	r0, [pc, #-1553]!	; 54f <_start-0x7ab1>
     b5c:	2e010616 	mcrcs	6, 0, r0, cr1, cr6, {0}
     b60:	65032a05 	strvs	r2, [r3, #-2565]	; 0xfffff5fb
     b64:	0301052e 	movweq	r0, #5422	; 0x152e
     b68:	02022e27 	andeq	r2, r2, #624	; 0x270
     b6c:	f0010100 			; <UNDEFINED> instruction: 0xf0010100
     b70:	03000000 	movweq	r0, #0
     b74:	0000c000 	andeq	ip, r0, r0
     b78:	fb010200 	blx	41382 <__bss_end__+0x3721a>
     b7c:	01000d0e 	tsteq	r0, lr, lsl #26
     b80:	00010101 	andeq	r0, r1, r1, lsl #2
     b84:	00010000 	andeq	r0, r1, r0
     b88:	696c0100 	stmdbvs	ip!, {r8}^
     b8c:	2f006362 	svccs	0x00006362
     b90:	2f727375 	svccs	0x00727375
     b94:	2f62696c 	svccs	0x0062696c
     b98:	2f636367 	svccs	0x00636367
     b9c:	2d6d7261 	sfmcs	f7, 2, [sp, #-388]!	; 0xfffffe7c
     ba0:	656e6f6e 	strbvs	r6, [lr, #-3950]!	; 0xfffff092
     ba4:	6261652d 	rsbvs	r6, r1, #188743680	; 0xb400000
     ba8:	2e392f69 	cdpcs	15, 3, cr2, cr9, cr9, {3}
     bac:	2f302e32 	svccs	0x00302e32
     bb0:	6c636e69 	stclvs	14, cr6, [r3], #-420	; 0xfffffe5c
     bb4:	00656475 	rsbeq	r6, r5, r5, ror r4
     bb8:	7273752f 	rsbsvc	r7, r3, #197132288	; 0xbc00000
     bbc:	6d72612f 	ldfvse	f6, [r2, #-188]!	; 0xffffff44
     bc0:	6e6f6e2d 	cdpvs	14, 6, cr6, cr15, cr13, {1}
     bc4:	61652d65 	cmnvs	r5, r5, ror #26
     bc8:	692f6962 	stmdbvs	pc!, {r1, r5, r6, r8, fp, sp, lr}	; <UNPREDICTABLE>
     bcc:	756c636e 	strbvc	r6, [ip, #-878]!	; 0xfffffc92
     bd0:	732f6564 			; <UNDEFINED> instruction: 0x732f6564
     bd4:	2f007379 	svccs	0x00007379
     bd8:	2f727375 	svccs	0x00727375
     bdc:	2d6d7261 	sfmcs	f7, 2, [sp, #-388]!	; 0xfffffe7c
     be0:	656e6f6e 	strbvs	r6, [lr, #-3950]!	; 0xfffff092
     be4:	6261652d 	rsbvs	r6, r1, #188743680	; 0xb400000
     be8:	6e692f69 	cdpvs	15, 6, cr2, cr9, cr9, {3}
     bec:	64756c63 	ldrbtvs	r6, [r5], #-3171	; 0xfffff39d
     bf0:	6d000065 	stcvs	0, cr0, [r0, #-404]	; 0xfffffe6c
     bf4:	65736d65 	ldrbvs	r6, [r3, #-3429]!	; 0xfffff29b
     bf8:	00632e74 	rsbeq	r2, r3, r4, ror lr
     bfc:	73000001 	movwvc	r0, #1
     c00:	65646474 	strbvs	r6, [r4, #-1140]!	; 0xfffffb8c
     c04:	00682e66 	rsbeq	r2, r8, r6, ror #28
     c08:	6c000002 	stcvs	0, cr0, [r0], {2}
     c0c:	2e6b636f 	cdpcs	3, 6, cr6, cr11, cr15, {3}
     c10:	00030068 	andeq	r0, r3, r8, rrx
     c14:	79745f00 	ldmdbvc	r4!, {r8, r9, sl, fp, ip, lr}^
     c18:	2e736570 	mrccs	5, 3, r6, cr3, cr0, {3}
     c1c:	00030068 	andeq	r0, r3, r8, rrx
     c20:	65657200 	strbvs	r7, [r5, #-512]!	; 0xfffffe00
     c24:	682e746e 	stmdavs	lr!, {r1, r2, r3, r5, r6, sl, ip, sp, lr}
     c28:	00000300 	andeq	r0, r0, r0, lsl #6
     c2c:	69727473 	ldmdbvs	r2!, {r0, r1, r4, r5, r6, sl, ip, sp, lr}^
     c30:	682e676e 	stmdavs	lr!, {r1, r2, r3, r5, r6, r8, r9, sl, sp, lr}
     c34:	00000400 	andeq	r0, r0, r0, lsl #8
     c38:	00290500 	eoreq	r0, r9, r0, lsl #10
     c3c:	8afc0205 	bhi	fff01458 <__bss_end__+0xffef72f0>
     c40:	05140000 	ldreq	r0, [r4, #-0]
     c44:	14051305 	strne	r1, [r5], #-773	; 0xfffffcfb
     c48:	05050106 	streq	r0, [r5, #-262]	; 0xfffffefa
     c4c:	0b053006 	bleq	14cc6c <__bss_end__+0x142b04>
     c50:	0a051006 	beq	144c70 <__bss_end__+0x13ab08>
     c54:	09053006 	stmdbeq	r5, {r1, r2, ip, sp}
     c58:	060e054b 	streq	r0, [lr], -fp, asr #10
     c5c:	02022e01 	andeq	r2, r2, #1, 28
     c60:	21010100 	mrscs	r0, (UNDEF: 17)
     c64:	03000001 	movweq	r0, #1
     c68:	0000ef00 	andeq	lr, r0, r0, lsl #30
     c6c:	fb010200 	blx	41476 <__bss_end__+0x3730e>
     c70:	01000d0e 	tsteq	r0, lr, lsl #26
     c74:	00010101 	andeq	r0, r1, r1, lsl #2
     c78:	00010000 	andeq	r0, r1, r0
     c7c:	696c0100 	stmdbvs	ip!, {r8}^
     c80:	2f006362 	svccs	0x00006362
     c84:	2f727375 	svccs	0x00727375
     c88:	2f62696c 	svccs	0x0062696c
     c8c:	2f636367 	svccs	0x00636367
     c90:	2d6d7261 	sfmcs	f7, 2, [sp, #-388]!	; 0xfffffe7c
     c94:	656e6f6e 	strbvs	r6, [lr, #-3950]!	; 0xfffff092
     c98:	6261652d 	rsbvs	r6, r1, #188743680	; 0xb400000
     c9c:	2e392f69 	cdpcs	15, 3, cr2, cr9, cr9, {3}
     ca0:	2f302e32 	svccs	0x00302e32
     ca4:	6c636e69 	stclvs	14, cr6, [r3], #-420	; 0xfffffe5c
     ca8:	00656475 	rsbeq	r6, r5, r5, ror r4
     cac:	7273752f 	rsbsvc	r7, r3, #197132288	; 0xbc00000
     cb0:	6d72612f 	ldfvse	f6, [r2, #-188]!	; 0xffffff44
     cb4:	6e6f6e2d 	cdpvs	14, 6, cr6, cr15, cr13, {1}
     cb8:	61652d65 	cmnvs	r5, r5, ror #26
     cbc:	692f6962 	stmdbvs	pc!, {r1, r5, r6, r8, fp, sp, lr}	; <UNPREDICTABLE>
     cc0:	756c636e 	strbvc	r6, [ip, #-878]!	; 0xfffffc92
     cc4:	732f6564 			; <UNDEFINED> instruction: 0x732f6564
     cc8:	2f007379 	svccs	0x00007379
     ccc:	656d6f68 	strbvs	r6, [sp, #-3944]!	; 0xfffff098
     cd0:	6573752f 	ldrbvs	r7, [r3, #-1327]!	; 0xfffffad1
     cd4:	65442f72 	strbvs	r2, [r4, #-3954]	; 0xfffff08e
     cd8:	53432f76 	movtpl	r2, #16246	; 0x3f76
     cdc:	58303432 	ldmdapl	r0!, {r1, r4, r5, sl, ip, sp}
     ce0:	62696c2f 	rsbvs	r6, r9, #12032	; 0x2f00
     ce4:	692f6970 	stmdbvs	pc!, {r4, r5, r6, r8, fp, sp, lr}	; <UNPREDICTABLE>
     ce8:	756c636e 	strbvc	r6, [ip, #-878]!	; 0xfffffc92
     cec:	00006564 	andeq	r6, r0, r4, ror #10
     cf0:	6e697270 	mcrvs	2, 3, r7, cr9, cr0, {3}
     cf4:	632e6b74 			; <UNDEFINED> instruction: 0x632e6b74
     cf8:	00000100 	andeq	r0, r0, r0, lsl #2
     cfc:	61647473 	smcvs	18243	; 0x4743
     d00:	682e6772 	stmdavs	lr!, {r1, r4, r5, r6, r8, r9, sl, sp, lr}
     d04:	00000200 	andeq	r0, r0, r0, lsl #4
     d08:	6b636f6c 	blvs	18dcac0 <__bss_end__+0x18d2958>
     d0c:	0300682e 	movweq	r6, #2094	; 0x82e
     d10:	745f0000 	ldrbvc	r0, [pc], #-0	; d18 <_start-0x72e8>
     d14:	73657079 	cmnvc	r5, #121	; 0x79
     d18:	0300682e 	movweq	r6, #2094	; 0x82e
     d1c:	74730000 	ldrbtvc	r0, [r3], #-0
     d20:	66656464 	strbtvs	r6, [r5], -r4, ror #8
     d24:	0200682e 	andeq	r6, r0, #3014656	; 0x2e0000
     d28:	65720000 	ldrbvs	r0, [r2, #-0]!
     d2c:	2e746e65 	cdpcs	14, 7, cr6, cr4, cr5, {3}
     d30:	00030068 	andeq	r0, r3, r8, rrx
     d34:	69707200 	ldmdbvs	r0!, {r9, ip, sp, lr}^
     d38:	0400682e 	streq	r6, [r0], #-2094	; 0xfffff7d2
     d3c:	623c0000 	eorsvs	r0, ip, #0
     d40:	746c6975 	strbtvc	r6, [ip], #-2421	; 0xfffff68b
     d44:	3e6e692d 	vmulcc.f16	s13, s28, s27	; <UNPREDICTABLE>
     d48:	00000000 	andeq	r0, r0, r0
     d4c:	702d6176 	eorvc	r6, sp, r6, ror r1
     d50:	746e6972 	strbtvc	r6, [lr], #-2418	; 0xfffff68e
     d54:	00682e6b 	rsbeq	r2, r8, fp, ror #28
     d58:	00000001 	andeq	r0, r0, r1
     d5c:	05002205 	streq	r2, [r0, #-517]	; 0xfffffdfb
     d60:	008b1402 	addeq	r1, fp, r2, lsl #8
     d64:	01061700 	tsteq	r6, r0, lsl #14
     d68:	68060505 	stmdavs	r6, {r0, r2, r8, sl}
     d6c:	09051413 	stmdbeq	r5, {r0, r1, r4, sl, ip}
     d70:	0612054b 	ldreq	r0, [r2], -fp, asr #10
     d74:	06050501 	streq	r0, [r5], -r1, lsl #10
     d78:	660616bb 			; <UNDEFINED> instruction: 0x660616bb
     d7c:	01053406 	tsteq	r5, r6, lsl #8
     d80:	02661306 	rsbeq	r1, r6, #402653184	; 0x18000000
     d84:	01010008 	tsteq	r1, r8
     d88:	00000105 	andeq	r0, r0, r5, lsl #2
     d8c:	00c70003 	sbceq	r0, r7, r3
     d90:	01020000 	mrseq	r0, (UNDEF: 2)
     d94:	000d0efb 	strdeq	r0, [sp], -fp
     d98:	01010101 	tsteq	r1, r1, lsl #2
     d9c:	01000000 	mrseq	r0, (UNDEF: 0)
     da0:	6c010000 	stcvs	0, cr0, [r1], {-0}
     da4:	00636269 	rsbeq	r6, r3, r9, ror #4
     da8:	7273752f 	rsbsvc	r7, r3, #197132288	; 0xbc00000
     dac:	6d72612f 	ldfvse	f6, [r2, #-188]!	; 0xffffff44
     db0:	6e6f6e2d 	cdpvs	14, 6, cr6, cr15, cr13, {1}
     db4:	61652d65 	cmnvs	r5, r5, ror #26
     db8:	692f6962 	stmdbvs	pc!, {r1, r5, r6, r8, fp, sp, lr}	; <UNPREDICTABLE>
     dbc:	756c636e 	strbvc	r6, [ip, #-878]!	; 0xfffffc92
     dc0:	732f6564 			; <UNDEFINED> instruction: 0x732f6564
     dc4:	2f007379 	svccs	0x00007379
     dc8:	2f727375 	svccs	0x00727375
     dcc:	2f62696c 	svccs	0x0062696c
     dd0:	2f636367 	svccs	0x00636367
     dd4:	2d6d7261 	sfmcs	f7, 2, [sp, #-388]!	; 0xfffffe7c
     dd8:	656e6f6e 	strbvs	r6, [lr, #-3950]!	; 0xfffff092
     ddc:	6261652d 	rsbvs	r6, r1, #188743680	; 0xb400000
     de0:	2e392f69 	cdpcs	15, 3, cr2, cr9, cr9, {3}
     de4:	2f302e32 	svccs	0x00302e32
     de8:	6c636e69 	stclvs	14, cr6, [r3], #-420	; 0xfffffe5c
     dec:	00656475 	rsbeq	r6, r5, r5, ror r4
     df0:	6d6f682f 	stclvs	8, cr6, [pc, #-188]!	; d3c <_start-0x72c4>
     df4:	73752f65 	cmnvc	r5, #404	; 0x194
     df8:	442f7265 	strtmi	r7, [pc], #-613	; e00 <_start-0x7200>
     dfc:	432f7665 			; <UNDEFINED> instruction: 0x432f7665
     e00:	30343253 	eorscc	r3, r4, r3, asr r2
     e04:	696c2f58 	stmdbvs	ip!, {r3, r4, r6, r8, r9, sl, fp, sp}^
     e08:	2f697062 	svccs	0x00697062
     e0c:	6c636e69 	stclvs	14, cr6, [r3], #-420	; 0xfffffe5c
     e10:	00656475 	rsbeq	r6, r5, r5, ror r4
     e14:	74757000 	ldrbtvc	r7, [r5], #-0
     e18:	72616863 	rsbvc	r6, r1, #6488064	; 0x630000
     e1c:	0100632e 	tsteq	r0, lr, lsr #6
     e20:	6f6c0000 	svcvs	0x006c0000
     e24:	682e6b63 	stmdavs	lr!, {r0, r1, r5, r6, r8, r9, fp, sp, lr}
     e28:	00000200 	andeq	r0, r0, r0, lsl #4
     e2c:	7079745f 	rsbsvc	r7, r9, pc, asr r4
     e30:	682e7365 	stmdavs	lr!, {r0, r2, r5, r6, r8, r9, ip, sp, lr}
     e34:	00000200 	andeq	r0, r0, r0, lsl #4
     e38:	64647473 	strbtvs	r7, [r4], #-1139	; 0xfffffb8d
     e3c:	682e6665 	stmdavs	lr!, {r0, r2, r5, r6, r9, sl, sp, lr}
     e40:	00000300 	andeq	r0, r0, r0, lsl #6
     e44:	6e656572 	mcrvs	5, 3, r6, cr5, cr2, {3}
     e48:	00682e74 	rsbeq	r2, r8, r4, ror lr
     e4c:	72000002 	andvc	r0, r0, #2
     e50:	682e6970 	stmdavs	lr!, {r4, r5, r6, r8, fp, sp, lr}
     e54:	00000400 	andeq	r0, r0, r0, lsl #8
     e58:	00240500 	eoreq	r0, r4, r0, lsl #10
     e5c:	8b6c0205 	blhi	1b01678 <__bss_end__+0x1af7510>
     e60:	06140000 	ldreq	r0, [r4], -r0
     e64:	06260501 	strteq	r0, [r6], -r1, lsl #10
     e68:	2e34054a 	cdpcs	5, 3, cr0, cr4, cr10, {2}
     e6c:	01060105 	tsteq	r6, r5, lsl #2
     e70:	4f061b05 	svcmi	0x00061b05
     e74:	05130505 	ldreq	r0, [r3, #-1285]	; 0xfffffafb
     e78:	05010611 	streq	r0, [r1, #-1553]	; 0xfffff9ef
     e7c:	23056701 	movwcs	r6, #22273	; 0x5701
     e80:	05056706 	streq	r6, [r5, #-1798]	; 0xfffff8fa
     e84:	06110513 			; <UNDEFINED> instruction: 0x06110513
     e88:	4b010501 	blmi	42294 <__bss_end__+0x3812c>
     e8c:	01000402 	tsteq	r0, r2, lsl #8
     e90:	00011201 	andeq	r1, r1, r1, lsl #4
     e94:	c4000300 	strgt	r0, [r0], #-768	; 0xfffffd00
     e98:	02000000 	andeq	r0, r0, #0
     e9c:	0d0efb01 	vstreq	d15, [lr, #-4]
     ea0:	01010100 	mrseq	r0, (UNDEF: 17)
     ea4:	00000001 	andeq	r0, r0, r1
     ea8:	01000001 	tsteq	r0, r1
     eac:	6362696c 	cmnvs	r2, #108, 18	; 0x1b0000
     eb0:	73752f00 	cmnvc	r5, #0, 30
     eb4:	72612f72 	rsbvc	r2, r1, #456	; 0x1c8
     eb8:	6f6e2d6d 	svcvs	0x006e2d6d
     ebc:	652d656e 	strvs	r6, [sp, #-1390]!	; 0xfffffa92
     ec0:	2f696261 	svccs	0x00696261
     ec4:	6c636e69 	stclvs	14, cr6, [r3], #-420	; 0xfffffe5c
     ec8:	2f656475 	svccs	0x00656475
     ecc:	00737973 	rsbseq	r7, r3, r3, ror r9
     ed0:	7273752f 	rsbsvc	r7, r3, #197132288	; 0xbc00000
     ed4:	62696c2f 	rsbvs	r6, r9, #12032	; 0x2f00
     ed8:	6363672f 	cmnvs	r3, #12320768	; 0xbc0000
     edc:	6d72612f 	ldfvse	f6, [r2, #-188]!	; 0xffffff44
     ee0:	6e6f6e2d 	cdpvs	14, 6, cr6, cr15, cr13, {1}
     ee4:	61652d65 	cmnvs	r5, r5, ror #26
     ee8:	392f6962 	stmdbcc	pc!, {r1, r5, r6, r8, fp, sp, lr}	; <UNPREDICTABLE>
     eec:	302e322e 	eorcc	r3, lr, lr, lsr #4
     ef0:	636e692f 	cmnvs	lr, #770048	; 0xbc000
     ef4:	6564756c 	strbvs	r7, [r4, #-1388]!	; 0xfffffa94
     ef8:	6f682f00 	svcvs	0x00682f00
     efc:	752f656d 	strvc	r6, [pc, #-1389]!	; 997 <_start-0x7669>
     f00:	2f726573 	svccs	0x00726573
     f04:	2f766544 	svccs	0x00766544
     f08:	34325343 	ldrtcc	r5, [r2], #-835	; 0xfffffcbd
     f0c:	6c2f5830 	stcvs	8, cr5, [pc], #-192	; e54 <_start-0x71ac>
     f10:	69706269 	ldmdbvs	r0!, {r0, r3, r5, r6, r9, sp, lr}^
     f14:	636e692f 	cmnvs	lr, #770048	; 0xbc000
     f18:	6564756c 	strbvs	r7, [r4, #-1388]!	; 0xfffffa94
     f1c:	75700000 	ldrbvc	r0, [r0, #-0]!
     f20:	632e6b74 			; <UNDEFINED> instruction: 0x632e6b74
     f24:	00000100 	andeq	r0, r0, r0, lsl #2
     f28:	6b636f6c 	blvs	18dcce0 <__bss_end__+0x18d2b78>
     f2c:	0200682e 	andeq	r6, r0, #3014656	; 0x2e0000
     f30:	745f0000 	ldrbvc	r0, [pc], #-0	; f38 <_start-0x70c8>
     f34:	73657079 	cmnvc	r5, #121	; 0x79
     f38:	0200682e 	andeq	r6, r0, #3014656	; 0x2e0000
     f3c:	74730000 	ldrbtvc	r0, [r3], #-0
     f40:	66656464 	strbtvs	r6, [r5], -r4, ror #8
     f44:	0300682e 	movweq	r6, #2094	; 0x82e
     f48:	65720000 	ldrbvs	r0, [r2, #-0]!
     f4c:	2e746e65 	cdpcs	14, 7, cr6, cr4, cr5, {3}
     f50:	00020068 	andeq	r0, r2, r8, rrx
     f54:	69707200 	ldmdbvs	r0!, {r9, ip, sp, lr}^
     f58:	0400682e 	streq	r6, [r0], #-2094	; 0xfffff7d2
     f5c:	05000000 	streq	r0, [r0, #-0]
     f60:	02050022 	andeq	r0, r5, #34	; 0x22
     f64:	00008ba8 	andeq	r8, r0, r8, lsr #23
     f68:	05010615 	streq	r0, [r1, #-1557]	; 0xfffff9eb
     f6c:	054b0605 	strbeq	r0, [fp, #-1541]	; 0xfffff9fb
     f70:	0402000b 	streq	r0, [r2], #-11
     f74:	05050101 	streq	r0, [r5, #-257]	; 0xfffffeff
     f78:	01040200 	mrseq	r0, R12_usr
     f7c:	09052e06 	stmdbeq	r5, {r1, r2, r9, sl, fp, sp}
     f80:	02040200 	andeq	r0, r4, #0, 4
     f84:	0f054b06 	svceq	0x00054b06
     f88:	02040200 	andeq	r0, r4, #0, 4
     f8c:	00100565 	andseq	r0, r0, r5, ror #10
     f90:	06020402 	streq	r0, [r2], -r2, lsl #8
     f94:	04020001 	streq	r0, [r2], #-1
     f98:	05052e02 	streq	r2, [r5, #-3586]	; 0xfffff1fe
     f9c:	01053206 	tsteq	r5, r6, lsl #4
     fa0:	06021306 	streq	r1, [r2], -r6, lsl #6
     fa4:	24010100 	strcs	r0, [r1], #-256	; 0xffffff00
     fa8:	03000001 	movweq	r0, #1
     fac:	0000c800 	andeq	ip, r0, r0, lsl #16
     fb0:	fb010200 	blx	417ba <__bss_end__+0x37652>
     fb4:	01000d0e 	tsteq	r0, lr, lsl #26
     fb8:	00010101 	andeq	r0, r1, r1, lsl #2
     fbc:	00010000 	andeq	r0, r1, r0
     fc0:	696c0100 	stmdbvs	ip!, {r8}^
     fc4:	2f006362 	svccs	0x00006362
     fc8:	2f727375 	svccs	0x00727375
     fcc:	2d6d7261 	sfmcs	f7, 2, [sp, #-388]!	; 0xfffffe7c
     fd0:	656e6f6e 	strbvs	r6, [lr, #-3950]!	; 0xfffff092
     fd4:	6261652d 	rsbvs	r6, r1, #188743680	; 0xb400000
     fd8:	6e692f69 	cdpvs	15, 6, cr2, cr9, cr9, {3}
     fdc:	64756c63 	ldrbtvs	r6, [r5], #-3171	; 0xfffff39d
     fe0:	79732f65 	ldmdbvc	r3!, {r0, r2, r5, r6, r8, r9, sl, fp, sp}^
     fe4:	752f0073 	strvc	r0, [pc, #-115]!	; f79 <_start-0x7087>
     fe8:	6c2f7273 	sfmvs	f7, 4, [pc], #-460	; e24 <_start-0x71dc>
     fec:	672f6269 	strvs	r6, [pc, -r9, ror #4]!
     ff0:	612f6363 			; <UNDEFINED> instruction: 0x612f6363
     ff4:	6e2d6d72 	mcrvs	13, 1, r6, cr13, cr2, {3}
     ff8:	2d656e6f 	stclcs	14, cr6, [r5, #-444]!	; 0xfffffe44
     ffc:	69626165 	stmdbvs	r2!, {r0, r2, r5, r6, r8, sp, lr}^
    1000:	322e392f 	eorcc	r3, lr, #770048	; 0xbc000
    1004:	692f302e 	stmdbvs	pc!, {r1, r2, r3, r5, ip, sp}	; <UNPREDICTABLE>
    1008:	756c636e 	strbvc	r6, [ip, #-878]!	; 0xfffffc92
    100c:	2f006564 	svccs	0x00006564
    1010:	656d6f68 	strbvs	r6, [sp, #-3944]!	; 0xfffff098
    1014:	6573752f 	ldrbvs	r7, [r3, #-1327]!	; 0xfffffad1
    1018:	65442f72 	strbvs	r2, [r4, #-3954]	; 0xfffff08e
    101c:	53432f76 	movtpl	r2, #16246	; 0x3f76
    1020:	58303432 	ldmdapl	r0!, {r1, r4, r5, sl, ip, sp}
    1024:	62696c2f 	rsbvs	r6, r9, #12032	; 0x2f00
    1028:	692f6970 	stmdbvs	pc!, {r4, r5, r6, r8, fp, sp, lr}	; <UNPREDICTABLE>
    102c:	756c636e 	strbvc	r6, [ip, #-878]!	; 0xfffffc92
    1030:	00006564 	andeq	r6, r0, r4, ror #10
    1034:	2d697072 	stclcs	0, cr7, [r9, #-456]!	; 0xfffffe38
    1038:	646e6172 	strbtvs	r6, [lr], #-370	; 0xfffffe8e
    103c:	0100632e 	tsteq	r0, lr, lsr #6
    1040:	6f6c0000 	svcvs	0x006c0000
    1044:	682e6b63 	stmdavs	lr!, {r0, r1, r5, r6, r8, r9, fp, sp, lr}
    1048:	00000200 	andeq	r0, r0, r0, lsl #4
    104c:	7079745f 	rsbsvc	r7, r9, pc, asr r4
    1050:	682e7365 	stmdavs	lr!, {r0, r2, r5, r6, r8, r9, ip, sp, lr}
    1054:	00000200 	andeq	r0, r0, r0, lsl #4
    1058:	64647473 	strbtvs	r7, [r4], #-1139	; 0xfffffb8d
    105c:	682e6665 	stmdavs	lr!, {r0, r2, r5, r6, r9, sl, sp, lr}
    1060:	00000300 	andeq	r0, r0, r0, lsl #6
    1064:	6e656572 	mcrvs	5, 3, r6, cr5, cr2, {3}
    1068:	00682e74 	rsbeq	r2, r8, r4, ror lr
    106c:	72000002 	andvc	r0, r0, #2
    1070:	682e6970 	stmdavs	lr!, {r4, r5, r6, r8, fp, sp, lr}
    1074:	00000400 	andeq	r0, r0, r0, lsl #8
    1078:	00210500 	eoreq	r0, r1, r0, lsl #10
    107c:	8bdc0205 	blhi	ff701898 <__bss_end__+0xff6f7730>
    1080:	0a030000 	beq	c1088 <__bss_end__+0xb6f20>
    1084:	13050501 	movwne	r0, #21761	; 0x5501
    1088:	01061905 	tsteq	r6, r5, lsl #18
    108c:	05662705 	strbeq	r2, [r6, #-1797]!	; 0xfffff8fb
    1090:	05052e35 	streq	r2, [r5, #-3637]	; 0xfffff1cb
    1094:	20052f06 	andcs	r2, r5, r6, lsl #30
    1098:	19050106 	stmdbne	r5, {r1, r2, r8}
    109c:	4a0a052e 	bmi	28255c <__bss_end__+0x2783f4>
    10a0:	2f060505 	svccs	0x00060505
    10a4:	13060105 	movwne	r0, #24837	; 0x6105
    10a8:	4c062005 	stcmi	0, cr2, [r6], {5}
    10ac:	052f0505 	streq	r0, [pc, #-1285]!	; baf <_start-0x7451>
    10b0:	0501060d 	streq	r0, [r1, #-1549]	; 0xfffff9f3
    10b4:	23052e1a 	movwcs	r2, #24090	; 0x5e1a
    10b8:	2f01052e 	svccs	0x0001052e
    10bc:	4d061f05 	stcmi	15, cr1, [r6, #-20]	; 0xffffffec
    10c0:	05130505 	ldreq	r0, [r3, #-1285]	; 0xfffffafb
    10c4:	0501060a 	streq	r0, [r1, #-1546]	; 0xfffff9f6
    10c8:	06026701 	streq	r6, [r2], -r1, lsl #14
    10cc:	0d010100 	stfeqs	f0, [r1, #-0]
    10d0:	03000005 	movweq	r0, #5
    10d4:	0000e300 	andeq	lr, r0, r0, lsl #6
    10d8:	fb010200 	blx	418e2 <__bss_end__+0x3777a>
    10dc:	01000d0e 	tsteq	r0, lr, lsl #26
    10e0:	00010101 	andeq	r0, r1, r1, lsl #2
    10e4:	00010000 	andeq	r0, r1, r0
    10e8:	696c0100 	stmdbvs	ip!, {r8}^
    10ec:	2f006362 	svccs	0x00006362
    10f0:	2f727375 	svccs	0x00727375
    10f4:	2d6d7261 	sfmcs	f7, 2, [sp, #-388]!	; 0xfffffe7c
    10f8:	656e6f6e 	strbvs	r6, [lr, #-3950]!	; 0xfffff092
    10fc:	6261652d 	rsbvs	r6, r1, #188743680	; 0xb400000
    1100:	6e692f69 	cdpvs	15, 6, cr2, cr9, cr9, {3}
    1104:	64756c63 	ldrbtvs	r6, [r5], #-3171	; 0xfffff39d
    1108:	79732f65 	ldmdbvc	r3!, {r0, r2, r5, r6, r8, r9, sl, fp, sp}^
    110c:	752f0073 	strvc	r0, [pc, #-115]!	; 10a1 <_start-0x6f5f>
    1110:	6c2f7273 	sfmvs	f7, 4, [pc], #-460	; f4c <_start-0x70b4>
    1114:	672f6269 	strvs	r6, [pc, -r9, ror #4]!
    1118:	612f6363 			; <UNDEFINED> instruction: 0x612f6363
    111c:	6e2d6d72 	mcrvs	13, 1, r6, cr13, cr2, {3}
    1120:	2d656e6f 	stclcs	14, cr6, [r5, #-444]!	; 0xfffffe44
    1124:	69626165 	stmdbvs	r2!, {r0, r2, r5, r6, r8, sp, lr}^
    1128:	322e392f 	eorcc	r3, lr, #770048	; 0xbc000
    112c:	692f302e 	stmdbvs	pc!, {r1, r2, r3, r5, ip, sp}	; <UNPREDICTABLE>
    1130:	756c636e 	strbvc	r6, [ip, #-878]!	; 0xfffffc92
    1134:	2f006564 	svccs	0x00006564
    1138:	656d6f68 	strbvs	r6, [sp, #-3944]!	; 0xfffff098
    113c:	6573752f 	ldrbvs	r7, [r3, #-1327]!	; 0xfffffad1
    1140:	65442f72 	strbvs	r2, [r4, #-3954]	; 0xfffff08e
    1144:	53432f76 	movtpl	r2, #16246	; 0x3f76
    1148:	58303432 	ldmdapl	r0!, {r1, r4, r5, sl, ip, sp}
    114c:	62696c2f 	rsbvs	r6, r9, #12032	; 0x2f00
    1150:	692f6970 	stmdbvs	pc!, {r4, r5, r6, r8, fp, sp, lr}	; <UNPREDICTABLE>
    1154:	756c636e 	strbvc	r6, [ip, #-878]!	; 0xfffffc92
    1158:	00006564 	andeq	r6, r0, r4, ror #10
    115c:	702d6176 	eorvc	r6, sp, r6, ror r1
    1160:	746e6972 	strbtvc	r6, [lr], #-2418	; 0xfffff68e
    1164:	00632e6b 	rsbeq	r2, r3, fp, ror #28
    1168:	6c000001 	stcvs	0, cr0, [r0], {1}
    116c:	2e6b636f 	cdpcs	3, 6, cr6, cr11, cr15, {3}
    1170:	00020068 	andeq	r0, r2, r8, rrx
    1174:	79745f00 	ldmdbvc	r4!, {r8, r9, sl, fp, ip, lr}^
    1178:	2e736570 	mrccs	5, 3, r6, cr3, cr0, {3}
    117c:	00020068 	andeq	r0, r2, r8, rrx
    1180:	64747300 	ldrbtvs	r7, [r4], #-768	; 0xfffffd00
    1184:	2e666564 	cdpcs	5, 6, cr6, cr6, cr4, {3}
    1188:	00030068 	andeq	r0, r3, r8, rrx
    118c:	65657200 	strbvs	r7, [r5, #-512]!	; 0xfffffe00
    1190:	682e746e 	stmdavs	lr!, {r1, r2, r3, r5, r6, sl, ip, sp, lr}
    1194:	00000200 	andeq	r0, r0, r0, lsl #4
    1198:	2e697072 	mcrcs	0, 3, r7, cr9, cr2, {3}
    119c:	00040068 	andeq	r0, r4, r8, rrx
    11a0:	64747300 	ldrbtvs	r7, [r4], #-768	; 0xfffffd00
    11a4:	2e677261 	cdpcs	2, 6, cr7, cr7, cr1, {3}
    11a8:	00030068 	andeq	r0, r3, r8, rrx
    11ac:	75623c00 	strbvc	r3, [r2, #-3072]!	; 0xfffff400
    11b0:	2d746c69 	ldclcs	12, cr6, [r4, #-420]!	; 0xfffffe5c
    11b4:	003e6e69 	eorseq	r6, lr, r9, ror #28
    11b8:	00000000 	andeq	r0, r0, r0
    11bc:	05001b05 	streq	r1, [r0, #-2821]	; 0xfffff4fb
    11c0:	008c3802 	addeq	r3, ip, r2, lsl #16
    11c4:	01260300 			; <UNDEFINED> instruction: 0x01260300
    11c8:	05011d05 	streq	r1, [r1, #-3333]	; 0xfffff2fb
    11cc:	0501062d 	streq	r0, [r1, #-1581]	; 0xfffff9d3
    11d0:	054a2e01 	strbeq	r2, [sl, #-3585]	; 0xfffff1ff
    11d4:	05510633 	ldrbeq	r0, [r1, #-1587]	; 0xfffff9cd
    11d8:	06051302 	streq	r1, [r5], -r2, lsl #6
    11dc:	02050106 	andeq	r0, r5, #-2147483647	; 0x80000001
    11e0:	08053006 	stmdaeq	r5, {r1, r2, ip, sp}
    11e4:	01040200 	mrseq	r0, R12_usr
    11e8:	00020501 	andeq	r0, r2, r1, lsl #10
    11ec:	06010402 	streq	r0, [r1], -r2, lsl #8
    11f0:	00030501 	andeq	r0, r3, r1, lsl #10
    11f4:	06020402 	streq	r0, [r2], -r2, lsl #8
    11f8:	0008052f 	andeq	r0, r8, pc, lsr #10
    11fc:	06020402 	streq	r0, [r2], -r2, lsl #8
    1200:	00150501 	andseq	r0, r5, r1, lsl #10
    1204:	06020402 	streq	r0, [r2], -r2, lsl #8
    1208:	00180549 	andseq	r0, r8, r9, asr #10
    120c:	06020402 	streq	r0, [r2], -r2, lsl #8
    1210:	04020001 	streq	r0, [r2], #-1
    1214:	02052e02 	andeq	r2, r5, #2, 28
    1218:	05053006 	streq	r3, [r5, #-6]
    121c:	02050106 	andeq	r0, r5, #-2147483647	; 0x80000001
    1220:	01054b06 	tsteq	r5, r6, lsl #22
    1224:	3e051306 	cdpcc	3, 0, cr1, cr5, cr6, {0}
    1228:	02053006 	andeq	r3, r5, #6
    122c:	060e0514 			; <UNDEFINED> instruction: 0x060e0514
    1230:	2e060501 	cfsh32cs	mvfx0, mvfx6, #1
    1234:	2f060205 	svccs	0x00060205
    1238:	01060405 	tsteq	r6, r5, lsl #8
    123c:	2f060305 	svccs	0x00060305
    1240:	01061105 	tsteq	r6, r5, lsl #2
    1244:	052e0905 	streq	r0, [lr, #-2309]!	; 0xfffff6fb
    1248:	15300602 	ldrne	r0, [r0, #-1538]!	; 0xfffff9fe
    124c:	01060705 	tsteq	r6, r5, lsl #14
    1250:	052e0205 	streq	r0, [lr, #-517]!	; 0xfffffdfb
    1254:	0402000b 	streq	r0, [r2], #-11
    1258:	052e0601 	streq	r0, [lr, #-1537]!	; 0xfffff9ff
    125c:	04020002 	streq	r0, [r2], #-2
    1260:	05010601 	streq	r0, [r1, #-1537]	; 0xfffff9ff
    1264:	04020003 	streq	r0, [r2], #-3
    1268:	052f0603 	streq	r0, [pc, #-1539]!	; c6d <_start-0x7393>
    126c:	0402000c 	streq	r0, [r2], #-12
    1270:	05010603 	streq	r0, [r1, #-1539]	; 0xfffff9fd
    1274:	0402000a 	streq	r0, [r2], #-10
    1278:	17052e03 	strne	r2, [r5, -r3, lsl #28]
    127c:	03040200 	movweq	r0, #16896	; 0x4200
    1280:	02002d06 	andeq	r2, r0, #384	; 0x180
    1284:	01060304 	tsteq	r6, r4, lsl #6
    1288:	30060205 	andcc	r0, r6, r5, lsl #4
    128c:	01060905 	tsteq	r6, r5, lsl #18
    1290:	0602052e 	streq	r0, [r2], -lr, lsr #10
    1294:	06010530 			; <UNDEFINED> instruction: 0x06010530
    1298:	06560513 			; <UNDEFINED> instruction: 0x06560513
    129c:	05010630 	streq	r0, [r1, #-1584]	; 0xfffff9d0
    12a0:	05a00602 	streq	r0, [r0, #1538]!	; 0x602
    12a4:	05010604 	streq	r0, [r1, #-1540]	; 0xfffff9fc
    12a8:	052f0603 	streq	r0, [pc, #-1539]!	; cad <_start-0x7353>
    12ac:	05010609 	streq	r0, [r1, #-1545]	; 0xfffff9f7
    12b0:	13300602 	teqne	r0, #2097152	; 0x200000
    12b4:	01060b05 	tsteq	r6, r5, lsl #22
    12b8:	30060205 	andcc	r0, r6, r5, lsl #4
    12bc:	04052e06 	streq	r2, [r5], #-3590	; 0xfffff1fa
    12c0:	15240206 	strne	r0, [r4, #-518]!	; 0xfffffdfa
    12c4:	060f0513 			; <UNDEFINED> instruction: 0x060f0513
    12c8:	06052e01 	streq	r2, [r5], -r1, lsl #28
    12cc:	0605054a 	streq	r0, [r5], -sl, asr #10
    12d0:	0905134b 	stmdbeq	r5, {r0, r1, r3, r6, r8, r9, ip}
    12d4:	05050106 	streq	r0, [r5, #-262]	; 0xfffffefa
    12d8:	0b052f06 	bleq	14cef8 <__bss_end__+0x142d90>
    12dc:	0d051006 	stceq	0, cr1, [r5, #-24]	; 0xffffffe8
    12e0:	01040200 	mrseq	r0, R12_usr
    12e4:	0004052c 	andeq	r0, r4, ip, lsr #10
    12e8:	06010402 	streq	r0, [r1], -r2, lsl #8
    12ec:	00050534 	andeq	r0, r5, r4, lsr r5
    12f0:	13010402 	movwne	r0, #5122	; 0x1402
    12f4:	02001b05 	andeq	r1, r0, #5120	; 0x1400
    12f8:	01060104 	tsteq	r6, r4, lsl #2
    12fc:	02000705 	andeq	r0, r0, #1310720	; 0x140000
    1300:	05d60104 	ldrbeq	r0, [r6, #260]	; 0x104
    1304:	04020018 	streq	r0, [r2], #-24	; 0xffffffe8
    1308:	0a052e01 	beq	14cb14 <__bss_end__+0x1429ac>
    130c:	01040200 	mrseq	r0, R12_usr
    1310:	000b054a 	andeq	r0, fp, sl, asr #10
    1314:	06010402 	streq	r0, [r1], -r2, lsl #8
    1318:	000e052f 	andeq	r0, lr, pc, lsr #10
    131c:	06010402 	streq	r0, [r1], -r2, lsl #8
    1320:	0004052e 	andeq	r0, r4, lr, lsr #10
    1324:	2e010402 	cdpcs	4, 0, cr0, cr1, cr2, {0}
    1328:	06054b06 	streq	r4, [r5], -r6, lsl #22
    132c:	05050106 	streq	r0, [r5, #-262]	; 0xfffffefa
    1330:	0a052f06 	beq	14cf50 <__bss_end__+0x142de8>
    1334:	07050106 	streq	r0, [r5, -r6, lsl #2]
    1338:	0d052e4a 	stceq	14, cr2, [r5, #-296]	; 0xfffffed8
    133c:	4a2e7603 	bmi	b9eb50 <__bss_end__+0xb949e8>
    1340:	050d0b05 	streq	r0, [sp, #-2821]	; 0xfffff4fb
    1344:	0402000d 	streq	r0, [r2], #-13
    1348:	14030601 	strne	r0, [r3], #-1537	; 0xfffff9ff
    134c:	0011052e 	andseq	r0, r1, lr, lsr #10
    1350:	13010402 	movwne	r0, #5122	; 0x1402
    1354:	02002d05 	andeq	r2, r0, #320	; 0x140
    1358:	01060104 	tsteq	r6, r4, lsl #2
    135c:	02002a05 	andeq	r2, r0, #20480	; 0x5000
    1360:	052e0104 	streq	r0, [lr, #-260]!	; 0xfffffefc
    1364:	04020016 	streq	r0, [r2], #-22	; 0xffffffea
    1368:	14054a01 	strne	r4, [r5], #-2561	; 0xfffff5ff
    136c:	01040200 	mrseq	r0, R12_usr
    1370:	0d054b06 	vstreq	d4, [r5, #-24]	; 0xffffffe8
    1374:	01040200 	mrseq	r0, R12_usr
    1378:	02000106 	andeq	r0, r0, #-2147483647	; 0x80000001
    137c:	064a0104 	strbeq	r0, [sl], -r4, lsl #2
    1380:	0612052f 	ldreq	r0, [r2], -pc, lsr #10
    1384:	0d054a01 	vstreq	s8, [r5, #-4]
    1388:	12052f06 	andne	r2, r5, #6, 30
    138c:	19050106 	stmdbne	r5, {r1, r2, r8}
    1390:	04054b06 	streq	r4, [r5], #-2822	; 0xfffff4fa
    1394:	02040200 	andeq	r0, r4, #0, 4
    1398:	00011103 	andeq	r1, r1, r3, lsl #2
    139c:	01020402 	tsteq	r2, r2, lsl #8
    13a0:	02000205 	andeq	r0, r0, #1342177280	; 0x50000000
    13a4:	05150204 	ldreq	r0, [r5, #-516]	; 0xfffffdfc
    13a8:	04020009 	streq	r0, [r2], #-9
    13ac:	00010602 	andeq	r0, r1, r2, lsl #12
    13b0:	4a020402 	bmi	823c0 <__bss_end__+0x78258>
    13b4:	02000105 	andeq	r0, r0, #1073741825	; 0x40000001
    13b8:	059f0204 	ldreq	r0, [pc, #516]	; 15c4 <_start-0x6a3c>
    13bc:	6e030604 	cfmadd32vs	mvax0, mvfx0, mvfx3, mvfx4
    13c0:	0609054a 	streq	r0, [r9], -sl, asr #10
    13c4:	06040501 	streq	r0, [r4], -r1, lsl #10
    13c8:	0606052f 	streq	r0, [r6], -pc, lsr #10
    13cc:	2f040511 	svccs	0x00040511
    13d0:	63030b05 	movwvs	r0, #15109	; 0x3b05
    13d4:	0019052e 	andseq	r0, r9, lr, lsr #10
    13d8:	06010402 	streq	r0, [r1], -r2, lsl #8
    13dc:	052e2403 	streq	r2, [lr, #-1027]!	; 0xfffffbfd
    13e0:	0402001a 	streq	r0, [r2], #-26	; 0xffffffe6
    13e4:	28051301 	stmdacs	r5, {r0, r8, r9, ip}
    13e8:	01040200 	mrseq	r0, R12_usr
    13ec:	25050106 	strcs	r0, [r5, #-262]	; 0xfffffefa
    13f0:	01040200 	mrseq	r0, R12_usr
    13f4:	001f052e 	andseq	r0, pc, lr, lsr #10
    13f8:	4a010402 	bmi	42408 <__bss_end__+0x382a0>
    13fc:	02000b05 	andeq	r0, r0, #5120	; 0x1400
    1400:	4b060104 	blmi	181818 <__bss_end__+0x1776b0>
    1404:	02000405 	andeq	r0, r0, #83886080	; 0x5000000
    1408:	01060104 	tsteq	r6, r4, lsl #2
    140c:	01040200 	mrseq	r0, R12_usr
    1410:	0402004a 	streq	r0, [r2], #-74	; 0xffffffb6
    1414:	004e0601 	subeq	r0, lr, r1, lsl #12
    1418:	01010402 	tsteq	r1, r2, lsl #8
    141c:	01040200 	mrseq	r0, R12_usr
    1420:	04020001 	streq	r0, [r2], #-1
    1424:	02000101 	andeq	r0, r0, #1073741824	; 0x40000000
    1428:	002e0104 	eoreq	r0, lr, r4, lsl #2
    142c:	9e010402 	cdpls	4, 0, cr0, cr1, cr2, {0}
    1430:	a8034805 	stmdage	r3, {r0, r2, fp, lr}
    1434:	0505f27f 	streq	pc, [r5, #-639]	; 0xfffffd81
    1438:	2e060113 	mcrcs	1, 0, r0, cr6, cr3, {0}
    143c:	02040200 	andeq	r0, r4, #0, 4
    1440:	02002e06 	andeq	r2, r0, #6, 28	; 0x60
    1444:	00010204 	andeq	r0, r1, r4, lsl #4
    1448:	13020402 	movwne	r0, #9218	; 0x2402
    144c:	02001105 	andeq	r1, r0, #1073741825	; 0x40000001
    1450:	01060204 	tsteq	r6, r4, lsl #4
    1454:	02000505 	andeq	r0, r0, #20971520	; 0x1400000
    1458:	4b060204 	blmi	181c70 <__bss_end__+0x177b08>
    145c:	02000705 	andeq	r0, r0, #1310720	; 0x140000
    1460:	01060204 	tsteq	r6, r4, lsl #4
    1464:	2f060905 	svccs	0x00060905
    1468:	01060e05 	tsteq	r6, r5, lsl #28
    146c:	02004805 	andeq	r4, r0, #327680	; 0x50000
    1470:	05620104 	strbeq	r0, [r2, #-260]!	; 0xfffffefc
    1474:	04020005 	streq	r0, [r2], #-5
    1478:	002f0601 	eoreq	r0, pc, r1, lsl #12
    147c:	01010402 	tsteq	r1, r2, lsl #8
    1480:	01040200 	mrseq	r0, R12_usr
    1484:	0402002e 	streq	r0, [r2], #-46	; 0xffffffd2
    1488:	40059e01 	andmi	r9, r5, r1, lsl #28
    148c:	ba00df03 	blt	390a0 <__bss_end__+0x2ef38>
    1490:	02050106 	andeq	r0, r5, #-2147483647	; 0x80000001
    1494:	1e059f06 	cdpne	15, 0, cr9, cr5, cr6, {0}
    1498:	12050106 	andne	r0, r5, #-2147483647	; 0x80000001
    149c:	0602052e 	streq	r0, [r2], -lr, lsr #10
    14a0:	06090530 			; <UNDEFINED> instruction: 0x06090530
    14a4:	06020501 	streq	r0, [r2], -r1, lsl #10
    14a8:	0608054b 	streq	r0, [r8], -fp, asr #10
    14ac:	3102050f 	tstcc	r2, pc, lsl #10
    14b0:	30060405 	andcc	r0, r6, r5, lsl #8
    14b4:	01060f05 	tsteq	r6, r5, lsl #30
    14b8:	052e0905 	streq	r0, [lr, #-2309]!	; 0xfffff6fb
    14bc:	052c0608 	streq	r0, [ip, #-1544]!	; 0xfffff9f8
    14c0:	052e0602 	streq	r0, [lr, #-1538]!	; 0xfffff9fe
    14c4:	0402000d 	streq	r0, [r2], #-13
    14c8:	03054a01 	movweq	r4, #23041	; 0x5a01
    14cc:	05054b06 	streq	r4, [r5, #-2822]	; 0xfffff4fa
    14d0:	08050106 	stmdaeq	r5, {r1, r2, r8}
    14d4:	0e054d06 	cdpeq	13, 0, cr4, cr5, cr6, {0}
    14d8:	0a050106 	beq	1418f8 <__bss_end__+0x137790>
    14dc:	0604052e 	streq	r0, [r4], -lr, lsr #10
    14e0:	0609052f 	streq	r0, [r9], -pc, lsr #10
    14e4:	06040501 	streq	r0, [r4], -r1, lsl #10
    14e8:	0607052f 	streq	r0, [r7], -pc, lsr #10
    14ec:	04052e01 	streq	r2, [r5], #-3585	; 0xfffff1ff
    14f0:	07053006 	streq	r3, [r5, -r6]
    14f4:	04050106 	streq	r0, [r5], #-262	; 0xfffffefa
    14f8:	14133006 	ldrne	r3, [r3], #-6
    14fc:	10060d05 	andne	r0, r6, r5, lsl #26
    1500:	05300905 	ldreq	r0, [r0, #-2309]!	; 0xfffff6fb
    1504:	052f0605 	streq	r0, [pc, #-1541]!	; f07 <_start-0x70f9>
    1508:	05010612 	streq	r0, [r1, #-1554]	; 0xfffff9ee
    150c:	0b052e16 	bleq	14cd6c <__bss_end__+0x142c04>
    1510:	0605052e 	streq	r0, [r5], -lr, lsr #10
    1514:	0608052f 	streq	r0, [r8], -pc, lsr #10
    1518:	06090501 	streq	r0, [r9], -r1, lsl #10
    151c:	0612052c 	ldreq	r0, [r2], -ip, lsr #10
    1520:	2e0a0501 	cfsh32cs	mvfx0, mvfx10, #1
    1524:	054a0905 	strbeq	r0, [sl, #-2309]	; 0xfffff6fb
    1528:	014e0604 	cmpeq	lr, r4, lsl #12
    152c:	0014014a 	andseq	r0, r4, sl, asr #2
    1530:	02010402 	andeq	r0, r1, #33554432	; 0x2000000
    1534:	02001036 	andeq	r1, r0, #54	; 0x36
    1538:	00010104 	andeq	r0, r1, r4, lsl #2
    153c:	2e010402 	cdpcs	4, 0, cr0, cr1, cr2, {0}
    1540:	01040200 	mrseq	r0, R12_usr
    1544:	3405059e 	strcc	r0, [r5], #-1438	; 0xfffffa62
    1548:	2e9e2e01 	cdpcs	14, 9, cr2, cr14, cr1, {0}
    154c:	05010e03 	streq	r0, [r1, #-3587]	; 0xfffff1fd
    1550:	05010609 	streq	r0, [r1, #-1545]	; 0xfffff9f7
    1554:	59080605 	stmdbpl	r8, {r0, r2, r9, sl}
    1558:	15030405 	strne	r0, [r3, #-1029]	; 0xfffffbfb
    155c:	06070501 	streq	r0, [r7], -r1, lsl #10
    1560:	06040501 	streq	r0, [r4], -r1, lsl #10
    1564:	010a0531 	tsteq	sl, r1, lsr r5
    1568:	01060405 	tsteq	r6, r5, lsl #8
    156c:	02001305 	andeq	r1, r0, #335544320	; 0x14000000
    1570:	054a0104 	strbeq	r0, [sl, #-260]	; 0xfffffefc
    1574:	04020010 	streq	r0, [r2], #-16
    1578:	05052e01 	streq	r2, [r5, #-3585]	; 0xfffff1ff
    157c:	0e054b06 	vmlaeq.f64	d4, d5, d6
    1580:	0a050106 	beq	1419a0 <__bss_end__+0x137838>
    1584:	05052e2e 	streq	r2, [r5, #-3630]	; 0xfffff1d2
    1588:	2e690306 	cdpcs	3, 6, cr0, cr9, cr6, {0}
    158c:	01061c05 	tsteq	r6, r5, lsl #24
    1590:	05820905 	streq	r0, [r2, #2309]	; 0x905
    1594:	31d70605 	bicscc	r0, r7, r5, lsl #12
    1598:	01061c05 	tsteq	r6, r5, lsl #24
    159c:	05820905 	streq	r0, [r2, #2309]	; 0x905
    15a0:	30d70605 	sbcscc	r0, r7, r5, lsl #12
    15a4:	01061b05 	tsteq	r6, r5, lsl #22
    15a8:	05820905 	streq	r0, [r2, #2309]	; 0x905
    15ac:	30d70605 	sbcscc	r0, r7, r5, lsl #12
    15b0:	01060705 	tsteq	r6, r5, lsl #14
    15b4:	83060505 	movwhi	r0, #25861	; 0x6505
    15b8:	06090530 			; <UNDEFINED> instruction: 0x06090530
    15bc:	06050501 	streq	r0, [r5], -r1, lsl #10
    15c0:	01305908 	teqeq	r0, r8, lsl #18
    15c4:	2e06d62e 	cfmadd32cs	mvax1, mvfx13, mvfx6, mvfx14
    15c8:	03060205 	movweq	r0, #25093	; 0x6205
    15cc:	0705010a 	streq	r0, [r5, -sl, lsl #2]
    15d0:	02050106 	andeq	r0, r5, #-2147483647	; 0x80000001
    15d4:	01054b06 	tsteq	r5, r6, lsl #22
    15d8:	02661306 	rsbeq	r1, r6, #402653184	; 0x18000000
    15dc:	0101000a 	tsteq	r1, sl
    15e0:	000000eb 	andeq	r0, r0, fp, ror #1
    15e4:	00d10003 	sbcseq	r0, r1, r3
    15e8:	01020000 	mrseq	r0, (UNDEF: 2)
    15ec:	000d0efb 	strdeq	r0, [sp], -fp
    15f0:	01010101 	tsteq	r1, r1, lsl #2
    15f4:	01000000 	mrseq	r0, (UNDEF: 0)
    15f8:	73010000 	movwvc	r0, #4096	; 0x1000
    15fc:	66666174 			; <UNDEFINED> instruction: 0x66666174
    1600:	6372732d 	cmnvs	r2, #-1275068416	; 0xb4000000
    1604:	73752f00 	cmnvc	r5, #0, 30
    1608:	72612f72 	rsbvc	r2, r1, #456	; 0x1c8
    160c:	6f6e2d6d 	svcvs	0x006e2d6d
    1610:	652d656e 	strvs	r6, [sp, #-1390]!	; 0xfffffa92
    1614:	2f696261 	svccs	0x00696261
    1618:	6c636e69 	stclvs	14, cr6, [r3], #-420	; 0xfffffe5c
    161c:	2f656475 	svccs	0x00656475
    1620:	00737973 	rsbseq	r7, r3, r3, ror r9
    1624:	7273752f 	rsbsvc	r7, r3, #197132288	; 0xbc00000
    1628:	62696c2f 	rsbvs	r6, r9, #12032	; 0x2f00
    162c:	6363672f 	cmnvs	r3, #12320768	; 0xbc0000
    1630:	6d72612f 	ldfvse	f6, [r2, #-188]!	; 0xffffff44
    1634:	6e6f6e2d 	cdpvs	14, 6, cr6, cr15, cr13, {1}
    1638:	61652d65 	cmnvs	r5, r5, ror #26
    163c:	392f6962 	stmdbcc	pc!, {r1, r5, r6, r8, fp, sp, lr}	; <UNPREDICTABLE>
    1640:	302e322e 	eorcc	r3, lr, lr, lsr #4
    1644:	636e692f 	cmnvs	lr, #770048	; 0xbc000
    1648:	6564756c 	strbvs	r7, [r4, #-1388]!	; 0xfffffa94
    164c:	6f682f00 	svcvs	0x00682f00
    1650:	752f656d 	strvc	r6, [pc, #-1389]!	; 10eb <_start-0x6f15>
    1654:	2f726573 	svccs	0x00726573
    1658:	2f766544 	svccs	0x00766544
    165c:	34325343 	ldrtcc	r5, [r2], #-835	; 0xfffffcbd
    1660:	6c2f5830 	stcvs	8, cr5, [pc], #-192	; 15a8 <_start-0x6a58>
    1664:	69706269 	ldmdbvs	r0!, {r0, r3, r5, r6, r9, sp, lr}^
    1668:	636e692f 	cmnvs	lr, #770048	; 0xbc000
    166c:	6564756c 	strbvs	r7, [r4, #-1388]!	; 0xfffffa94
    1670:	6c630000 	stclvs	0, cr0, [r3], #-0
    1674:	2d6e6165 	stfcse	f6, [lr, #-404]!	; 0xfffffe6c
    1678:	6f626572 	svcvs	0x00626572
    167c:	632e746f 			; <UNDEFINED> instruction: 0x632e746f
    1680:	00000100 	andeq	r0, r0, r0, lsl #2
    1684:	6b636f6c 	blvs	18dd43c <__bss_end__+0x18d32d4>
    1688:	0200682e 	andeq	r6, r0, #3014656	; 0x2e0000
    168c:	745f0000 	ldrbvc	r0, [pc], #-0	; 1694 <_start-0x696c>
    1690:	73657079 	cmnvc	r5, #121	; 0x79
    1694:	0200682e 	andeq	r6, r0, #3014656	; 0x2e0000
    1698:	74730000 	ldrbtvc	r0, [r3], #-0
    169c:	66656464 	strbtvs	r6, [r5], -r4, ror #8
    16a0:	0300682e 	movweq	r6, #2094	; 0x82e
    16a4:	65720000 	ldrbvs	r0, [r2, #-0]!
    16a8:	2e746e65 	cdpcs	14, 7, cr6, cr4, cr5, {3}
    16ac:	00020068 	andeq	r0, r2, r8, rrx
    16b0:	69707200 	ldmdbvs	r0!, {r9, ip, sp, lr}^
    16b4:	0400682e 	streq	r6, [r0], #-2094	; 0xfffff7d2
    16b8:	05000000 	streq	r0, [r0, #-0]
    16bc:	02050019 	andeq	r0, r5, #25
    16c0:	00009158 	andeq	r9, r0, r8, asr r1
    16c4:	2f050515 	svccs	0x00050515
    16c8:	06024b83 	streq	r4, [r2], -r3, lsl #23
    16cc:	04010100 	streq	r0, [r1], #-256	; 0xffffff00
    16d0:	03000001 	movweq	r0, #1
    16d4:	0000cb00 	andeq	ip, r0, r0, lsl #22
    16d8:	fb010200 	blx	41ee2 <__bss_end__+0x37d7a>
    16dc:	01000d0e 	tsteq	r0, lr, lsl #26
    16e0:	00010101 	andeq	r0, r1, r1, lsl #2
    16e4:	00010000 	andeq	r0, r1, r0
    16e8:	74730100 	ldrbtvc	r0, [r3], #-256	; 0xffffff00
    16ec:	2d666661 	stclcs	6, cr6, [r6, #-388]!	; 0xfffffe7c
    16f0:	00637273 	rsbeq	r7, r3, r3, ror r2
    16f4:	7273752f 	rsbsvc	r7, r3, #197132288	; 0xbc00000
    16f8:	6d72612f 	ldfvse	f6, [r2, #-188]!	; 0xffffff44
    16fc:	6e6f6e2d 	cdpvs	14, 6, cr6, cr15, cr13, {1}
    1700:	61652d65 	cmnvs	r5, r5, ror #26
    1704:	692f6962 	stmdbvs	pc!, {r1, r5, r6, r8, fp, sp, lr}	; <UNPREDICTABLE>
    1708:	756c636e 	strbvc	r6, [ip, #-878]!	; 0xfffffc92
    170c:	732f6564 			; <UNDEFINED> instruction: 0x732f6564
    1710:	2f007379 	svccs	0x00007379
    1714:	2f727375 	svccs	0x00727375
    1718:	2f62696c 	svccs	0x0062696c
    171c:	2f636367 	svccs	0x00636367
    1720:	2d6d7261 	sfmcs	f7, 2, [sp, #-388]!	; 0xfffffe7c
    1724:	656e6f6e 	strbvs	r6, [lr, #-3950]!	; 0xfffff092
    1728:	6261652d 	rsbvs	r6, r1, #188743680	; 0xb400000
    172c:	2e392f69 	cdpcs	15, 3, cr2, cr9, cr9, {3}
    1730:	2f302e32 	svccs	0x00302e32
    1734:	6c636e69 	stclvs	14, cr6, [r3], #-420	; 0xfffffe5c
    1738:	00656475 	rsbeq	r6, r5, r5, ror r4
    173c:	6d6f682f 	stclvs	8, cr6, [pc, #-188]!	; 1688 <_start-0x6978>
    1740:	73752f65 	cmnvc	r5, #404	; 0x194
    1744:	442f7265 	strtmi	r7, [pc], #-613	; 174c <_start-0x68b4>
    1748:	432f7665 			; <UNDEFINED> instruction: 0x432f7665
    174c:	30343253 	eorscc	r3, r4, r3, asr r2
    1750:	696c2f58 	stmdbvs	ip!, {r3, r4, r6, r8, r9, sl, fp, sp}^
    1754:	2f697062 	svccs	0x00697062
    1758:	6c636e69 	stclvs	14, cr6, [r3], #-420	; 0xfffffe5c
    175c:	00656475 	rsbeq	r6, r5, r5, ror r4
    1760:	74736300 	ldrbtvc	r6, [r3], #-768	; 0xfffffd00
    1764:	2e747261 	cdpcs	2, 7, cr7, cr4, cr1, {3}
    1768:	00010063 	andeq	r0, r1, r3, rrx
    176c:	636f6c00 	cmnvs	pc, #0, 24
    1770:	00682e6b 	rsbeq	r2, r8, fp, ror #28
    1774:	5f000002 	svcpl	0x00000002
    1778:	65707974 	ldrbvs	r7, [r0, #-2420]!	; 0xfffff68c
    177c:	00682e73 	rsbeq	r2, r8, r3, ror lr
    1780:	73000002 	movwvc	r0, #2
    1784:	65646474 	strbvs	r6, [r4, #-1140]!	; 0xfffffb8c
    1788:	00682e66 	rsbeq	r2, r8, r6, ror #28
    178c:	72000003 	andvc	r0, r0, #3
    1790:	746e6565 	strbtvc	r6, [lr], #-1381	; 0xfffffa9b
    1794:	0200682e 	andeq	r6, r0, #3014656	; 0x2e0000
    1798:	70720000 	rsbsvc	r0, r2, r0
    179c:	00682e69 	rsbeq	r2, r8, r9, ror #28
    17a0:	00000004 	andeq	r0, r0, r4
    17a4:	05001005 	streq	r1, [r0, #-5]
    17a8:	00918002 	addseq	r8, r1, r2
    17ac:	010c0300 	mrseq	r0, LR_mon
    17b0:	052f0505 	streq	r0, [pc, #-1285]!	; 12b3 <_start-0x6d4d>
    17b4:	05051302 	streq	r1, [r5, #-770]	; 0xfffffcfe
    17b8:	05141314 	ldreq	r1, [r4, #-788]	; 0xfffffcec
    17bc:	060f060a 	streq	r0, [pc], -sl, lsl #12
    17c0:	4b090531 	blmi	242c8c <__bss_end__+0x238b24>
    17c4:	01061005 	tsteq	r6, r5
    17c8:	0605054a 	streq	r0, [r5], -sl, asr #10
    17cc:	052e1403 	streq	r1, [lr, #-1027]!	; 0xfffffbfd
    17d0:	06022f02 	streq	r2, [r2], -r2, lsl #30
    17d4:	38010100 	stmdacc	r1, {r8}
    17d8:	03000001 	movweq	r0, #1
    17dc:	0000cb00 	andeq	ip, r0, r0, lsl #22
    17e0:	fb010200 	blx	41fea <__bss_end__+0x37e82>
    17e4:	01000d0e 	tsteq	r0, lr, lsl #26
    17e8:	00010101 	andeq	r0, r1, r1, lsl #2
    17ec:	00010000 	andeq	r0, r1, r0
    17f0:	74730100 	ldrbtvc	r0, [r3], #-256	; 0xffffff00
    17f4:	2d666661 	stclcs	6, cr6, [r6, #-388]!	; 0xfffffe7c
    17f8:	00637273 	rsbeq	r7, r3, r3, ror r2
    17fc:	7273752f 	rsbsvc	r7, r3, #197132288	; 0xbc00000
    1800:	6d72612f 	ldfvse	f6, [r2, #-188]!	; 0xffffff44
    1804:	6e6f6e2d 	cdpvs	14, 6, cr6, cr15, cr13, {1}
    1808:	61652d65 	cmnvs	r5, r5, ror #26
    180c:	692f6962 	stmdbvs	pc!, {r1, r5, r6, r8, fp, sp, lr}	; <UNPREDICTABLE>
    1810:	756c636e 	strbvc	r6, [ip, #-878]!	; 0xfffffc92
    1814:	732f6564 			; <UNDEFINED> instruction: 0x732f6564
    1818:	2f007379 	svccs	0x00007379
    181c:	2f727375 	svccs	0x00727375
    1820:	2f62696c 	svccs	0x0062696c
    1824:	2f636367 	svccs	0x00636367
    1828:	2d6d7261 	sfmcs	f7, 2, [sp, #-388]!	; 0xfffffe7c
    182c:	656e6f6e 	strbvs	r6, [lr, #-3950]!	; 0xfffff092
    1830:	6261652d 	rsbvs	r6, r1, #188743680	; 0xb400000
    1834:	2e392f69 	cdpcs	15, 3, cr2, cr9, cr9, {3}
    1838:	2f302e32 	svccs	0x00302e32
    183c:	6c636e69 	stclvs	14, cr6, [r3], #-420	; 0xfffffe5c
    1840:	00656475 	rsbeq	r6, r5, r5, ror r4
    1844:	6d6f682f 	stclvs	8, cr6, [pc, #-188]!	; 1790 <_start-0x6870>
    1848:	73752f65 	cmnvc	r5, #404	; 0x194
    184c:	442f7265 	strtmi	r7, [pc], #-613	; 1854 <_start-0x67ac>
    1850:	432f7665 			; <UNDEFINED> instruction: 0x432f7665
    1854:	30343253 	eorscc	r3, r4, r3, asr r2
    1858:	696c2f58 	stmdbvs	ip!, {r3, r4, r6, r8, r9, sl, fp, sp}^
    185c:	2f697062 	svccs	0x00697062
    1860:	6c636e69 	stclvs	14, cr6, [r3], #-420	; 0xfffffe5c
    1864:	00656475 	rsbeq	r6, r5, r5, ror r4
    1868:	62657200 	rsbvs	r7, r5, #0, 4
    186c:	2e746f6f 	cdpcs	15, 7, cr6, cr4, cr15, {3}
    1870:	00010063 	andeq	r0, r1, r3, rrx
    1874:	636f6c00 	cmnvs	pc, #0, 24
    1878:	00682e6b 	rsbeq	r2, r8, fp, ror #28
    187c:	5f000002 	svcpl	0x00000002
    1880:	65707974 	ldrbvs	r7, [r0, #-2420]!	; 0xfffff68c
    1884:	00682e73 	rsbeq	r2, r8, r3, ror lr
    1888:	73000002 	movwvc	r0, #2
    188c:	65646474 	strbvs	r6, [r4, #-1140]!	; 0xfffffb8c
    1890:	00682e66 	rsbeq	r2, r8, r6, ror #28
    1894:	72000003 	andvc	r0, r0, #3
    1898:	746e6565 	strbtvc	r6, [lr], #-1381	; 0xfffffa9b
    189c:	0200682e 	andeq	r6, r0, #3014656	; 0x2e0000
    18a0:	70720000 	rsbsvc	r0, r2, r0
    18a4:	00682e69 	rsbeq	r2, r8, r9, ror #28
    18a8:	00000004 	andeq	r0, r0, r4
    18ac:	05001905 	streq	r1, [r0, #-2309]	; 0xfffff6fb
    18b0:	0091ac02 	addseq	sl, r1, r2, lsl #24
    18b4:	010d0300 	mrseq	r0, SP_mon
    18b8:	13130505 	tstne	r3, #20971520	; 0x1400000
    18bc:	06130531 			; <UNDEFINED> instruction: 0x06130531
    18c0:	2f010501 	svccs	0x00010501
    18c4:	85061b05 	strhi	r1, [r6, #-2821]	; 0xfffff4fb
    18c8:	14130505 	ldrne	r0, [r3], #-1285	; 0xfffffafb
    18cc:	052f0905 	streq	r0, [pc, #-2309]!	; fcf <_start-0x7031>
    18d0:	05010616 	streq	r0, [r1, #-1558]	; 0xfffff9ea
    18d4:	05052e0e 	streq	r2, [r5, #-3598]	; 0xfffff1f2
    18d8:	01052f06 	tsteq	r5, r6, lsl #30
    18dc:	17052f06 	strne	r2, [r5, -r6, lsl #30]
    18e0:	05053006 	streq	r3, [r5, #-6]
    18e4:	0608052f 	streq	r0, [r8], -pc, lsr #10
    18e8:	2e070501 	cfsh32cs	mvfx0, mvfx7, #1
    18ec:	52060505 	andpl	r0, r6, #20971520	; 0x1400000
    18f0:	1313134c 	tstne	r3, #76, 6	; 0x30000001
    18f4:	02006715 	andeq	r6, r0, #5505024	; 0x540000
    18f8:	05670104 	strbeq	r0, [r7, #-260]!	; 0xfffffefc
    18fc:	0402000d 	streq	r0, [r2], #-13
    1900:	0a050101 	beq	141d0c <__bss_end__+0x137ba4>
    1904:	01040200 	mrseq	r0, R12_usr
    1908:	03090501 	movweq	r0, #38145	; 0x9501
    190c:	0c022e6f 	stceq	14, cr2, [r2], {111}	; 0x6f
    1910:	5a010100 	bpl	41d18 <__bss_end__+0x37bb0>
    1914:	03000001 	movweq	r0, #1
    1918:	0000ca00 	andeq	ip, r0, r0, lsl #20
    191c:	fb010200 	blx	42126 <__bss_end__+0x37fbe>
    1920:	01000d0e 	tsteq	r0, lr, lsl #26
    1924:	00010101 	andeq	r0, r1, r1, lsl #2
    1928:	00010000 	andeq	r0, r1, r0
    192c:	74730100 	ldrbtvc	r0, [r3], #-256	; 0xffffff00
    1930:	2d666661 	stclcs	6, cr6, [r6, #-388]!	; 0xfffffe7c
    1934:	00637273 	rsbeq	r7, r3, r3, ror r2
    1938:	7273752f 	rsbsvc	r7, r3, #197132288	; 0xbc00000
    193c:	6d72612f 	ldfvse	f6, [r2, #-188]!	; 0xffffff44
    1940:	6e6f6e2d 	cdpvs	14, 6, cr6, cr15, cr13, {1}
    1944:	61652d65 	cmnvs	r5, r5, ror #26
    1948:	692f6962 	stmdbvs	pc!, {r1, r5, r6, r8, fp, sp, lr}	; <UNPREDICTABLE>
    194c:	756c636e 	strbvc	r6, [ip, #-878]!	; 0xfffffc92
    1950:	732f6564 			; <UNDEFINED> instruction: 0x732f6564
    1954:	2f007379 	svccs	0x00007379
    1958:	2f727375 	svccs	0x00727375
    195c:	2f62696c 	svccs	0x0062696c
    1960:	2f636367 	svccs	0x00636367
    1964:	2d6d7261 	sfmcs	f7, 2, [sp, #-388]!	; 0xfffffe7c
    1968:	656e6f6e 	strbvs	r6, [lr, #-3950]!	; 0xfffff092
    196c:	6261652d 	rsbvs	r6, r1, #188743680	; 0xb400000
    1970:	2e392f69 	cdpcs	15, 3, cr2, cr9, cr9, {3}
    1974:	2f302e32 	svccs	0x00302e32
    1978:	6c636e69 	stclvs	14, cr6, [r3], #-420	; 0xfffffe5c
    197c:	00656475 	rsbeq	r6, r5, r5, ror r4
    1980:	6d6f682f 	stclvs	8, cr6, [pc, #-188]!	; 18cc <_start-0x6734>
    1984:	73752f65 	cmnvc	r5, #404	; 0x194
    1988:	442f7265 	strtmi	r7, [pc], #-613	; 1990 <_start-0x6670>
    198c:	432f7665 			; <UNDEFINED> instruction: 0x432f7665
    1990:	30343253 	eorscc	r3, r4, r3, asr r2
    1994:	696c2f58 	stmdbvs	ip!, {r3, r4, r6, r8, r9, sl, fp, sp}^
    1998:	2f697062 	svccs	0x00697062
    199c:	6c636e69 	stclvs	14, cr6, [r3], #-420	; 0xfffffe5c
    19a0:	00656475 	rsbeq	r6, r5, r5, ror r4
    19a4:	6d697400 	cfstrdvs	mvd7, [r9, #-0]
    19a8:	632e7265 			; <UNDEFINED> instruction: 0x632e7265
    19ac:	00000100 	andeq	r0, r0, r0, lsl #2
    19b0:	6b636f6c 	blvs	18dd768 <__bss_end__+0x18d3600>
    19b4:	0200682e 	andeq	r6, r0, #3014656	; 0x2e0000
    19b8:	745f0000 	ldrbvc	r0, [pc], #-0	; 19c0 <_start-0x6640>
    19bc:	73657079 	cmnvc	r5, #121	; 0x79
    19c0:	0200682e 	andeq	r6, r0, #3014656	; 0x2e0000
    19c4:	74730000 	ldrbtvc	r0, [r3], #-0
    19c8:	66656464 	strbtvs	r6, [r5], -r4, ror #8
    19cc:	0300682e 	movweq	r6, #2094	; 0x82e
    19d0:	65720000 	ldrbvs	r0, [r2, #-0]!
    19d4:	2e746e65 	cdpcs	14, 7, cr6, cr4, cr5, {3}
    19d8:	00020068 	andeq	r0, r2, r8, rrx
    19dc:	69707200 	ldmdbvs	r0!, {r9, ip, sp, lr}^
    19e0:	0400682e 	streq	r6, [r0], #-2094	; 0xfffff7d2
    19e4:	05000000 	streq	r0, [r0, #-0]
    19e8:	02050023 	andeq	r0, r5, #35	; 0x23
    19ec:	00009224 	andeq	r9, r0, r4, lsr #4
    19f0:	14050516 	strne	r0, [r5], #-1302	; 0xfffffaea
    19f4:	05010a05 	streq	r0, [r1, #-2565]	; 0xfffff5fb
    19f8:	05010610 	streq	r0, [r1, #-1552]	; 0xfffff9f0
    19fc:	09052e0a 	stmdbeq	r5, {r1, r3, r9, sl, fp, sp}
    1a00:	10054b06 	andne	r4, r5, r6, lsl #22
    1a04:	23052d06 	movwcs	r2, #23814	; 0x5d06
    1a08:	4a0a0306 	bmi	282628 <__bss_end__+0x2784c0>
    1a0c:	052f0505 	streq	r0, [pc, #-1285]!	; 150f <_start-0x6af1>
    1a10:	0501060c 	streq	r0, [r1, #-1548]	; 0xfffff9f4
    1a14:	1f054b01 	svcne	0x00054b01
    1a18:	05054d06 	streq	r4, [r5, #-3334]	; 0xfffff2fa
    1a1c:	06120532 			; <UNDEFINED> instruction: 0x06120532
    1a20:	06050501 	streq	r0, [r5], -r1, lsl #10
    1a24:	06010530 			; <UNDEFINED> instruction: 0x06010530
    1a28:	061c0513 			; <UNDEFINED> instruction: 0x061c0513
    1a2c:	05010630 	streq	r0, [r1, #-1584]	; 0xfffff9d0
    1a30:	054b0605 	strbeq	r0, [fp, #-1541]	; 0xfffff9fb
    1a34:	2e010613 	mcrcs	6, 0, r0, cr1, cr3, {0}
    1a38:	2f060505 	svccs	0x00060505
    1a3c:	05130905 	ldreq	r0, [r3, #-2309]	; 0xfffff6fb
    1a40:	05010617 	streq	r0, [r1, #-1559]	; 0xfffff9e9
    1a44:	052f0609 	streq	r0, [pc, #-1545]!	; 1443 <_start-0x6bbd>
    1a48:	05010611 	streq	r0, [r1, #-1553]	; 0xfffff9ef
    1a4c:	1c052e0c 	stcne	14, cr2, [r5], {12}
    1a50:	01066b06 	tsteq	r6, r6, lsl #22
    1a54:	2f060505 	svccs	0x00060505
    1a58:	01054a06 	tsteq	r5, r6, lsl #20
    1a5c:	061e054b 	ldreq	r0, [lr], -fp, asr #10
    1a60:	0501062f 	streq	r0, [r1, #-1583]	; 0xfffff9d1
    1a64:	062f0605 	strteq	r0, [pc], -r5, lsl #12
    1a68:	4b01054a 	blmi	42f98 <__bss_end__+0x38e30>
    1a6c:	01000202 	tsteq	r0, r2, lsl #4
    1a70:	00014801 	andeq	r4, r1, r1, lsl #16
    1a74:	02000200 	andeq	r0, r0, #0, 4
    1a78:	02000001 	andeq	r0, r0, #1
    1a7c:	0d0efb01 	vstreq	d15, [lr, #-4]
    1a80:	01010100 	mrseq	r0, (UNDEF: 17)
    1a84:	00000001 	andeq	r0, r0, r1
    1a88:	01000001 	tsteq	r0, r1
    1a8c:	7273752f 	rsbsvc	r7, r3, #197132288	; 0xbc00000
    1a90:	636e692f 	cmnvs	lr, #770048	; 0xbc000
    1a94:	6564756c 	strbvs	r7, [r4, #-1388]!	; 0xfffffa94
    1a98:	77656e2f 	strbvc	r6, [r5, -pc, lsr #28]!
    1a9c:	2f62696c 	svccs	0x0062696c
    1aa0:	00737973 	rsbseq	r7, r3, r3, ror r9
    1aa4:	7273752f 	rsbsvc	r7, r3, #197132288	; 0xbc00000
    1aa8:	62696c2f 	rsbvs	r6, r9, #12032	; 0x2f00
    1aac:	6363672f 	cmnvs	r3, #12320768	; 0xbc0000
    1ab0:	6d72612f 	ldfvse	f6, [r2, #-188]!	; 0xffffff44
    1ab4:	6e6f6e2d 	cdpvs	14, 6, cr6, cr15, cr13, {1}
    1ab8:	61652d65 	cmnvs	r5, r5, ror #26
    1abc:	362f6962 	strtcc	r6, [pc], -r2, ror #18
    1ac0:	312e332e 			; <UNDEFINED> instruction: 0x312e332e
    1ac4:	636e692f 	cmnvs	lr, #770048	; 0xbc000
    1ac8:	6564756c 	strbvs	r7, [r4, #-1388]!	; 0xfffffa94
    1acc:	6f682f00 	svcvs	0x00682f00
    1ad0:	652f656d 	strvs	r6, [pc, #-1389]!	; 156b <_start-0x6a95>
    1ad4:	656c676e 	strbvs	r6, [ip, #-1902]!	; 0xfffff892
    1ad8:	6c632f72 	stclvs	15, cr2, [r3], #-456	; 0xfffffe38
    1adc:	2f737361 	svccs	0x00737361
    1ae0:	34327363 	ldrtcc	r7, [r2], #-867	; 0xfffffc9d
    1ae4:	2d786c30 	ldclcs	12, cr6, [r8, #-192]!	; 0xffffff40
    1ae8:	70733032 	rsbsvc	r3, r3, r2, lsr r0
    1aec:	6c2f2f72 	stcvs	15, cr2, [pc], #-456	; 192c <_start-0x66d4>
    1af0:	69706269 	ldmdbvs	r0!, {r0, r3, r5, r6, r9, sp, lr}^
    1af4:	6f682f00 	svcvs	0x00682f00
    1af8:	652f656d 	strvs	r6, [pc, #-1389]!	; 1593 <_start-0x6a6d>
    1afc:	656c676e 	strbvs	r6, [ip, #-1902]!	; 0xfffff892
    1b00:	6c632f72 	stclvs	15, cr2, [r3], #-456	; 0xfffffe38
    1b04:	2f737361 	svccs	0x00737361
    1b08:	34327363 	ldrtcc	r7, [r2], #-867	; 0xfffffc9d
    1b0c:	2d786c30 	ldclcs	12, cr6, [r8, #-192]!	; 0xffffff40
    1b10:	70733032 	rsbsvc	r3, r3, r2, lsr r0
    1b14:	6c2f2f72 	stcvs	15, cr2, [pc], #-456	; 1954 <_start-0x66ac>
    1b18:	69706269 	ldmdbvs	r0!, {r0, r3, r5, r6, r9, sp, lr}^
    1b1c:	6174732f 	cmnvs	r4, pc, lsr #6
    1b20:	732d6666 			; <UNDEFINED> instruction: 0x732d6666
    1b24:	00006372 	andeq	r6, r0, r2, ror r3
    1b28:	74726175 	ldrbtvc	r6, [r2], #-373	; 0xfffffe8b
    1b2c:	0000632e 	andeq	r6, r0, lr, lsr #6
    1b30:	6f6c0000 	svcvs	0x006c0000
    1b34:	682e6b63 	stmdavs	lr!, {r0, r1, r5, r6, r8, r9, fp, sp, lr}
    1b38:	00000100 	andeq	r0, r0, r0, lsl #2
    1b3c:	7079745f 	rsbsvc	r7, r9, pc, asr r4
    1b40:	682e7365 	stmdavs	lr!, {r0, r2, r5, r6, r8, r9, ip, sp, lr}
    1b44:	00000100 	andeq	r0, r0, r0, lsl #2
    1b48:	64647473 	strbtvs	r7, [r4], #-1139	; 0xfffffb8d
    1b4c:	682e6665 	stmdavs	lr!, {r0, r2, r5, r6, r9, sl, sp, lr}
    1b50:	00000200 	andeq	r0, r0, r0, lsl #4
    1b54:	6e656572 	mcrvs	5, 3, r6, cr5, cr2, {3}
    1b58:	00682e74 	rsbeq	r2, r8, r4, ror lr
    1b5c:	72000001 	andvc	r0, r0, #1
    1b60:	682e6970 	stmdavs	lr!, {r4, r5, r6, r8, fp, sp, lr}
    1b64:	00000300 	andeq	r0, r0, r0, lsl #6
    1b68:	74726175 	ldrbtvc	r6, [r2], #-373	; 0xfffffe8b
    1b6c:	0400682e 	streq	r6, [r0], #-2094	; 0xfffff7d2
    1b70:	70670000 	rsbvc	r0, r7, r0
    1b74:	682e6f69 	stmdavs	lr!, {r0, r3, r5, r6, r8, r9, sl, fp, sp, lr}
    1b78:	00000400 	andeq	r0, r0, r0, lsl #8
    1b7c:	02050000 	andeq	r0, r5, #0
    1b80:	000092fc 	strdeq	r9, [r0], -ip
    1b84:	67012c03 	strvs	r2, [r1, -r3, lsl #24]
    1b88:	359e0c03 	ldrcc	r0, [lr, #3075]	; 0xc03
    1b8c:	68356867 	ldmdavs	r5!, {r0, r1, r2, r5, r6, fp, sp, lr}
    1b90:	852e0c03 	strhi	r0, [lr, #-3075]!	; 0xfffff3fd
    1b94:	0369696b 	cmneq	r9, #1753088	; 0x1ac000
    1b98:	676b660c 	strbvs	r6, [fp, -ip, lsl #12]!
    1b9c:	68344208 	ldmdavs	r4!, {r3, r9, lr}
    1ba0:	8768364b 	strbhi	r3, [r8, -fp, asr #12]!
    1ba4:	0402002f 	streq	r0, [r2], #-47	; 0xffffffd1
    1ba8:	67682f01 	strbvs	r2, [r8, -r1, lsl #30]!
    1bac:	004b6730 	subeq	r6, fp, r0, lsr r7
    1bb0:	2f010402 	svccs	0x00010402
    1bb4:	2e696768 	cdpcs	7, 6, cr6, cr9, cr8, {3}
    1bb8:	01000602 	tsteq	r0, r2, lsl #12
    1bbc:	00012b01 	andeq	r2, r1, r1, lsl #22
    1bc0:	f8000200 			; <UNDEFINED> instruction: 0xf8000200
    1bc4:	02000000 	andeq	r0, r0, #0
    1bc8:	0d0efb01 	vstreq	d15, [lr, #-4]
    1bcc:	01010100 	mrseq	r0, (UNDEF: 17)
    1bd0:	00000001 	andeq	r0, r0, r1
    1bd4:	01000001 	tsteq	r0, r1
    1bd8:	7273752f 	rsbsvc	r7, r3, #197132288	; 0xbc00000
    1bdc:	636e692f 	cmnvs	lr, #770048	; 0xbc000
    1be0:	6564756c 	strbvs	r7, [r4, #-1388]!	; 0xfffffa94
    1be4:	77656e2f 	strbvc	r6, [r5, -pc, lsr #28]!
    1be8:	2f62696c 	svccs	0x0062696c
    1bec:	00737973 	rsbseq	r7, r3, r3, ror r9
    1bf0:	7273752f 	rsbsvc	r7, r3, #197132288	; 0xbc00000
    1bf4:	62696c2f 	rsbvs	r6, r9, #12032	; 0x2f00
    1bf8:	6363672f 	cmnvs	r3, #12320768	; 0xbc0000
    1bfc:	6d72612f 	ldfvse	f6, [r2, #-188]!	; 0xffffff44
    1c00:	6e6f6e2d 	cdpvs	14, 6, cr6, cr15, cr13, {1}
    1c04:	61652d65 	cmnvs	r5, r5, ror #26
    1c08:	362f6962 	strtcc	r6, [pc], -r2, ror #18
    1c0c:	312e332e 			; <UNDEFINED> instruction: 0x312e332e
    1c10:	636e692f 	cmnvs	lr, #770048	; 0xbc000
    1c14:	6564756c 	strbvs	r7, [r4, #-1388]!	; 0xfffffa94
    1c18:	6f682f00 	svcvs	0x00682f00
    1c1c:	652f656d 	strvs	r6, [pc, #-1389]!	; 16b7 <_start-0x6949>
    1c20:	656c676e 	strbvs	r6, [ip, #-1902]!	; 0xfffff892
    1c24:	6c632f72 	stclvs	15, cr2, [r3], #-456	; 0xfffffe38
    1c28:	2f737361 	svccs	0x00737361
    1c2c:	34327363 	ldrtcc	r7, [r2], #-867	; 0xfffffc9d
    1c30:	2d786c30 	ldclcs	12, cr6, [r8, #-192]!	; 0xffffff40
    1c34:	70733032 	rsbsvc	r3, r3, r2, lsr r0
    1c38:	6c2f2f72 	stcvs	15, cr2, [pc], #-456	; 1a78 <_start-0x6588>
    1c3c:	69706269 	ldmdbvs	r0!, {r0, r3, r5, r6, r9, sp, lr}^
    1c40:	6f682f00 	svcvs	0x00682f00
    1c44:	652f656d 	strvs	r6, [pc, #-1389]!	; 16df <_start-0x6921>
    1c48:	656c676e 	strbvs	r6, [ip, #-1902]!	; 0xfffff892
    1c4c:	6c632f72 	stclvs	15, cr2, [r3], #-456	; 0xfffffe38
    1c50:	2f737361 	svccs	0x00737361
    1c54:	34327363 	ldrtcc	r7, [r2], #-867	; 0xfffffc9d
    1c58:	2d786c30 	ldclcs	12, cr6, [r8, #-192]!	; 0xffffff40
    1c5c:	70733032 	rsbsvc	r3, r3, r2, lsr r0
    1c60:	6c2f2f72 	stcvs	15, cr2, [pc], #-456	; 1aa0 <_start-0x6560>
    1c64:	69706269 	ldmdbvs	r0!, {r0, r3, r5, r6, r9, sp, lr}^
    1c68:	6174732f 	cmnvs	r4, pc, lsr #6
    1c6c:	732d6666 			; <UNDEFINED> instruction: 0x732d6666
    1c70:	00006372 	andeq	r6, r0, r2, ror r3
    1c74:	6f697067 	svcvs	0x00697067
    1c78:	0000632e 	andeq	r6, r0, lr, lsr #6
    1c7c:	6f6c0000 	svcvs	0x006c0000
    1c80:	682e6b63 	stmdavs	lr!, {r0, r1, r5, r6, r8, r9, fp, sp, lr}
    1c84:	00000100 	andeq	r0, r0, r0, lsl #2
    1c88:	7079745f 	rsbsvc	r7, r9, pc, asr r4
    1c8c:	682e7365 	stmdavs	lr!, {r0, r2, r5, r6, r8, r9, ip, sp, lr}
    1c90:	00000100 	andeq	r0, r0, r0, lsl #2
    1c94:	64647473 	strbtvs	r7, [r4], #-1139	; 0xfffffb8d
    1c98:	682e6665 	stmdavs	lr!, {r0, r2, r5, r6, r9, sl, sp, lr}
    1c9c:	00000200 	andeq	r0, r0, r0, lsl #4
    1ca0:	6e656572 	mcrvs	5, 3, r6, cr5, cr2, {3}
    1ca4:	00682e74 	rsbeq	r2, r8, r4, ror lr
    1ca8:	72000001 	andvc	r0, r0, #1
    1cac:	682e6970 	stmdavs	lr!, {r4, r5, r6, r8, fp, sp, lr}
    1cb0:	00000300 	andeq	r0, r0, r0, lsl #6
    1cb4:	6f697067 	svcvs	0x00697067
    1cb8:	0400682e 	streq	r6, [r0], #-2094	; 0xfffff7d2
    1cbc:	00000000 	andeq	r0, r0, r0
    1cc0:	94740205 	ldrbtls	r0, [r4], #-517	; 0xfffffdfb
    1cc4:	27030000 	strcs	r0, [r3, -r0]
    1cc8:	474c1301 	strbmi	r1, [ip, -r1, lsl #6]
    1ccc:	4b68f44f 	blmi	1a3ee10 <__bss_end__+0x1a34ca8>
    1cd0:	6a2fa14c 	bvs	bea208 <__bss_end__+0xbe00a0>
    1cd4:	be314913 			; <UNDEFINED> instruction: 0xbe314913
    1cd8:	be314913 			; <UNDEFINED> instruction: 0xbe314913
    1cdc:	4d2f6a2f 	vstmdbmi	pc!, {s12-s58}
    1ce0:	49134f48 	ldmdbmi	r3, {r3, r6, r8, r9, sl, fp, lr}
    1ce4:	02b72f32 	adcseq	r2, r7, #50, 30	; 0xc8
    1ce8:	01010006 	tsteq	r1, r6
    1cec:	00000134 	andeq	r0, r0, r4, lsr r1
    1cf0:	00df0002 	sbcseq	r0, pc, r2
    1cf4:	01020000 	mrseq	r0, (UNDEF: 2)
    1cf8:	000d0efb 	strdeq	r0, [sp], -fp
    1cfc:	01010101 	tsteq	r1, r1, lsl #2
    1d00:	01000000 	mrseq	r0, (UNDEF: 0)
    1d04:	2f010000 	svccs	0x00010000
    1d08:	2f727375 	svccs	0x00727375
    1d0c:	6c636e69 	stclvs	14, cr6, [r3], #-420	; 0xfffffe5c
    1d10:	2f656475 	svccs	0x00656475
    1d14:	6c77656e 	cfldr64vs	mvdx6, [r7], #-440	; 0xfffffe48
    1d18:	732f6269 			; <UNDEFINED> instruction: 0x732f6269
    1d1c:	2f007379 	svccs	0x00007379
    1d20:	2f727375 	svccs	0x00727375
    1d24:	2f62696c 	svccs	0x0062696c
    1d28:	2f636367 	svccs	0x00636367
    1d2c:	2d6d7261 	sfmcs	f7, 2, [sp, #-388]!	; 0xfffffe7c
    1d30:	656e6f6e 	strbvs	r6, [lr, #-3950]!	; 0xfffff092
    1d34:	6261652d 	rsbvs	r6, r1, #188743680	; 0xb400000
    1d38:	2e362f69 	cdpcs	15, 3, cr2, cr6, cr9, {3}
    1d3c:	2f312e33 	svccs	0x00312e33
    1d40:	6c636e69 	stclvs	14, cr6, [r3], #-420	; 0xfffffe5c
    1d44:	00656475 	rsbeq	r6, r5, r5, ror r4
    1d48:	6d6f682f 	stclvs	8, cr6, [pc, #-188]!	; 1c94 <_start-0x636c>
    1d4c:	6e652f65 	cdpvs	15, 6, cr2, cr5, cr5, {3}
    1d50:	72656c67 	rsbvc	r6, r5, #26368	; 0x6700
    1d54:	616c632f 	cmnvs	ip, pc, lsr #6
    1d58:	632f7373 			; <UNDEFINED> instruction: 0x632f7373
    1d5c:	30343273 	eorscc	r3, r4, r3, ror r2
    1d60:	322d786c 	eorcc	r7, sp, #108, 16	; 0x6c0000
    1d64:	72707330 	rsbsvc	r7, r0, #48, 6	; 0xc0000000
    1d68:	696c2f2f 	stmdbvs	ip!, {r0, r1, r2, r3, r5, r8, r9, sl, fp, sp}^
    1d6c:	00697062 	rsbeq	r7, r9, r2, rrx
    1d70:	7273752f 	rsbsvc	r7, r3, #197132288	; 0xbc00000
    1d74:	636e692f 	cmnvs	lr, #770048	; 0xbc000
    1d78:	6564756c 	strbvs	r7, [r4, #-1388]!	; 0xfffffa94
    1d7c:	77656e2f 	strbvc	r6, [r5, -pc, lsr #28]!
    1d80:	0062696c 	rsbeq	r6, r2, ip, ror #18
    1d84:	616d6b00 	cmnvs	sp, r0, lsl #22
    1d88:	636f6c6c 	cmnvs	pc, #108, 24	; 0x6c00
    1d8c:	0000632e 	andeq	r6, r0, lr, lsr #6
    1d90:	6f6c0000 	svcvs	0x006c0000
    1d94:	682e6b63 	stmdavs	lr!, {r0, r1, r5, r6, r8, r9, fp, sp, lr}
    1d98:	00000100 	andeq	r0, r0, r0, lsl #2
    1d9c:	7079745f 	rsbsvc	r7, r9, pc, asr r4
    1da0:	682e7365 	stmdavs	lr!, {r0, r2, r5, r6, r8, r9, ip, sp, lr}
    1da4:	00000100 	andeq	r0, r0, r0, lsl #2
    1da8:	64647473 	strbtvs	r7, [r4], #-1139	; 0xfffffb8d
    1dac:	682e6665 	stmdavs	lr!, {r0, r2, r5, r6, r9, sl, sp, lr}
    1db0:	00000200 	andeq	r0, r0, r0, lsl #4
    1db4:	6e656572 	mcrvs	5, 3, r6, cr5, cr2, {3}
    1db8:	00682e74 	rsbeq	r2, r8, r4, ror lr
    1dbc:	72000001 	andvc	r0, r0, #1
    1dc0:	682e6970 	stmdavs	lr!, {r4, r5, r6, r8, fp, sp, lr}
    1dc4:	00000300 	andeq	r0, r0, r0, lsl #6
    1dc8:	69727473 	ldmdbvs	r2!, {r0, r1, r4, r5, r6, sl, ip, sp, lr}^
    1dcc:	682e676e 	stmdavs	lr!, {r1, r2, r3, r5, r6, r8, r9, sl, sp, lr}
    1dd0:	00000400 	andeq	r0, r0, r0, lsl #8
    1dd4:	02050000 	andeq	r0, r5, #0
    1dd8:	00009594 	muleq	r0, r4, r5
    1ddc:	01011003 	tsteq	r1, r3
    1de0:	14680183 	strbtne	r0, [r8], #-387	; 0xfffffe7d
    1de4:	04020083 	streq	r0, [r2], #-131	; 0xffffff7d
    1de8:	02007f01 	andeq	r7, r0, #1, 30
    1dec:	08300104 	ldmdaeq	r0!, {r2, r8}
    1df0:	4c4b2f5c 	mcrrmi	15, 5, r2, fp, cr12
    1df4:	00684b4b 	rsbeq	r4, r8, fp, asr #22
    1df8:	03010402 	movweq	r0, #5122	; 0x1402
    1dfc:	09034a79 	stmdbeq	r3, {r0, r3, r4, r5, r6, r9, fp, lr}
    1e00:	012f5808 			; <UNDEFINED> instruction: 0x012f5808
    1e04:	6a2f4e2e 	bvs	bd56c4 <__bss_end__+0xbcb55c>
    1e08:	4c67674b 	stclmi	7, cr6, [r7], #-300	; 0xfffffed4
    1e0c:	0402002f 	streq	r0, [r2], #-47	; 0xffffffd1
    1e10:	2e760301 	cdpcs	3, 7, cr0, cr6, cr1, {0}
    1e14:	01040200 	mrseq	r0, R12_usr
    1e18:	2f7a08dc 	svccs	0x007a08dc
    1e1c:	02019f01 	andeq	r9, r1, #1, 30
    1e20:	01010008 	tsteq	r1, r8

Disassembly of section .debug_str:

00000000 <.debug_str>:
   0:	6f73645f 	svcvs	0x0073645f
   4:	6e61685f 	mcrvs	8, 3, r6, cr1, cr15, {2}
   8:	00656c64 	rsbeq	r6, r5, r4, ror #24
   c:	685f6b63 	ldmdavs	pc, {r0, r1, r5, r6, r8, r9, fp, sp, lr}^	; <UNPREDICTABLE>
  10:	5f706165 	svcpl	0x00706165
  14:	6f727265 	svcvs	0x00727265
  18:	5f007372 	svcpl	0x00007372
  1c:	657a6973 	ldrbvs	r6, [sl, #-2419]!	; 0xfffff68d
  20:	61725f00 	cmnvs	r2, r0, lsl #30
  24:	3834646e 	ldmdacc	r4!, {r1, r2, r3, r5, r6, sl, sp, lr}
  28:	6d655f00 	stclvs	15, cr5, [r5, #-0]
  2c:	65677265 	strbvs	r7, [r7, #-613]!	; 0xfffffd9b
  30:	0079636e 	rsbseq	r6, r9, lr, ror #6
  34:	6d746f6e 	ldclvs	15, cr6, [r4, #-440]!	; 0xfffffe48
  38:	006e6961 	rsbeq	r6, lr, r1, ror #18
  3c:	7263775f 	rsbvc	r7, r3, #24903680	; 0x17c0000
  40:	626d6f74 	rsbvs	r6, sp, #116, 30	; 0x1d0
  44:	6174735f 	cmnvs	r4, pc, asr r3
  48:	5f006574 	svcpl	0x00006574
  4c:	72736377 	rsbsvc	r6, r3, #-603979775	; 0xdc000001
  50:	626d6f74 	rsbvs	r6, sp, #116, 30	; 0x1d0
  54:	74735f73 	ldrbtvc	r5, [r3], #-3955	; 0xfffff08d
  58:	00657461 	rsbeq	r7, r5, r1, ror #8
  5c:	676e6f6c 	strbvs	r6, [lr, -ip, ror #30]!
  60:	6e6f6c20 	cdpvs	12, 6, cr6, cr15, cr0, {1}
  64:	6e752067 	cdpvs	0, 7, cr2, cr5, cr7, {3}
  68:	6e676973 			; <UNDEFINED> instruction: 0x6e676973
  6c:	69206465 	stmdbvs	r0!, {r0, r2, r5, r6, sl, sp, lr}
  70:	6300746e 	movwvs	r7, #1134	; 0x46e
  74:	6c6c616b 	stfvse	f6, [ip], #-428	; 0xfffffe54
  78:	5f00636f 	svcpl	0x0000636f
  7c:	7366626c 	cmnvc	r6, #108, 4	; 0xc0000006
  80:	00657a69 	rsbeq	r7, r5, r9, ror #20
  84:	6f6c5f5f 	svcvs	0x006c5f5f
  88:	656c6163 	strbvs	r6, [ip, #-355]!	; 0xfffffe9d
  8c:	5f00745f 	svcpl	0x0000745f
  90:	7472626d 	ldrbtvc	r6, [r2], #-621	; 0xfffffd93
  94:	5f63776f 	svcpl	0x0063776f
  98:	74617473 	strbtvc	r7, [r1], #-1139	; 0xfffffb8d
  9c:	5f5f0065 	svcpl	0x005f0065
  a0:	735f6d74 	cmpvc	pc, #116, 26	; 0x1d00
  a4:	6c006365 	stcvs	3, cr6, [r0], {101}	; 0x65
  a8:	20676e6f 	rsbcs	r6, r7, pc, ror #28
  ac:	676e6f6c 	strbvs	r6, [lr, -ip, ror #30]!
  b0:	746e6920 	strbtvc	r6, [lr], #-2336	; 0xfffff6e0
  b4:	62755f00 	rsbsvs	r5, r5, #0, 30
  b8:	5f006675 	svcpl	0x00006675
  bc:	65736162 	ldrbvs	r6, [r3, #-354]!	; 0xfffffe9e
  c0:	745f5f00 	ldrbvc	r5, [pc], #-3840	; c8 <_start-0x7f38>
  c4:	6f685f6d 	svcvs	0x00685f6d
  c8:	2f007275 	svccs	0x00007275
  cc:	656d6f68 	strbvs	r6, [sp, #-3944]!	; 0xfffff098
  d0:	6573752f 	ldrbvs	r7, [r3, #-1327]!	; 0xfffffad1
  d4:	65442f72 	strbvs	r2, [r4, #-3954]	; 0xfffff08e
  d8:	53432f76 	movtpl	r2, #16246	; 0x3f76
  dc:	58303432 	ldmdapl	r0!, {r1, r4, r5, sl, ip, sp}
  e0:	62616c2f 	rsbvs	r6, r1, #12032	; 0x2f00
  e4:	30312f73 	eorscc	r2, r1, r3, ror pc
  e8:	6d656d2d 	stclvs	13, cr6, [r5, #-180]!	; 0xffffff4c
  ec:	63656863 	cmnvs	r5, #6488064	; 0x630000
  f0:	74732d6b 	ldrbtvc	r2, [r3], #-3435	; 0xfffff295
  f4:	632f7461 			; <UNDEFINED> instruction: 0x632f7461
  f8:	0065646f 	rsbeq	r6, r5, pc, ror #8
  fc:	66735f5f 	uhsaxvs	r5, r3, pc	; <UNPREDICTABLE>
 100:	6e6f5f00 	cdpvs	15, 6, cr5, cr15, cr0, {0}
 104:	6978655f 	ldmdbvs	r8!, {r0, r1, r2, r3, r4, r6, r8, sl, sp, lr}^
 108:	72615f74 	rsbvc	r5, r1, #116, 30	; 0x1d0
 10c:	5f007367 	svcpl	0x00007367
 110:	6b6f6f63 	blvs	1bdbea4 <__bss_end__+0x1bd1d3c>
 114:	5f006569 	svcpl	0x00006569
 118:	6c67735f 	stclvs	3, cr7, [r7], #-380	; 0xfffffe84
 11c:	5f006575 	svcpl	0x00006575
 120:	67616c66 	strbvs	r6, [r1, -r6, ror #24]!
 124:	695f0073 	ldmdbvs	pc, {r0, r1, r4, r5, r6}^	; <UNPREDICTABLE>
 128:	78635f73 	stmdavc	r3!, {r0, r1, r4, r5, r6, r8, r9, sl, fp, ip, lr}^
 12c:	735f0061 	cmpvc	pc, #97	; 0x61
 130:	6e696474 	mcrvs	4, 3, r6, cr9, cr4, {3}
 134:	5f6b6300 	svcpl	0x006b6300
 138:	74696e69 	strbtvc	r6, [r9], #-3689	; 0xfffff197
 13c:	6c625f00 	stclvs	15, cr5, [r2], #-0
 140:	7a69736b 	bvc	1a5cef4 <__bss_end__+0x1a52d8c>
 144:	635f0065 	cmpvs	pc, #101	; 0x65
 148:	75627476 	strbvc	r7, [r2, #-1142]!	; 0xfffffb8a
 14c:	6f5f0066 	svcvs	0x005f0066
 150:	65736666 	ldrbvs	r6, [r3, #-1638]!	; 0xfffff99a
 154:	6d6b0074 	stclvs	0, cr0, [fp, #-464]!	; 0xfffffe30
 158:	6f6c6c61 	svcvs	0x006c6c61
 15c:	6e695f63 	cdpvs	15, 6, cr5, cr9, cr3, {3}
 160:	735f7469 	cmpvc	pc, #1761607680	; 0x69000000
 164:	735f7465 	cmpvc	pc, #1694498816	; 0x65000000
 168:	74726174 	ldrbtvc	r6, [r2], #-372	; 0xfffffe8c
 16c:	626d5f00 	rsbvs	r5, sp, #0, 30
 170:	6f747273 	svcvs	0x00747273
 174:	5f736377 	svcpl	0x00736377
 178:	74617473 	strbtvc	r7, [r1], #-1139	; 0xfffffb8d
 17c:	6d5f0065 	ldclvs	0, cr0, [pc, #-404]	; fffffff0 <__bss_end__+0xffff5e88>
 180:	656c7262 	strbvs	r7, [ip, #-610]!	; 0xfffffd9e
 184:	74735f6e 	ldrbtvc	r5, [r3], #-3950	; 0xfffff092
 188:	00657461 	rsbeq	r7, r5, r1, ror #8
 18c:	616e665f 	cmnvs	lr, pc, asr r6
 190:	00736772 	rsbseq	r6, r3, r2, ror r7
 194:	736e665f 	cmnvc	lr, #99614720	; 0x5f00000
 198:	69735f00 	ldmdbvs	r3!, {r8, r9, sl, fp, ip, lr}^
 19c:	5f006e67 	svcpl	0x00006e67
 1a0:	636f6c66 	cmnvs	pc, #26112	; 0x6600
 1a4:	00745f6b 	rsbseq	r5, r4, fp, ror #30
 1a8:	6474735f 	ldrbtvs	r7, [r4], #-863	; 0xfffffca1
 1ac:	00727265 	rsbseq	r7, r2, r5, ror #4
 1b0:	6769425f 			; <UNDEFINED> instruction: 0x6769425f
 1b4:	00746e69 	rsbseq	r6, r4, r9, ror #28
 1b8:	6d61675f 	stclvs	7, cr6, [r1, #-380]!	; 0xfffffe84
 1bc:	735f616d 	cmpvc	pc, #1073741851	; 0x4000001b
 1c0:	676e6769 	strbvs	r6, [lr, -r9, ror #14]!
 1c4:	5f006d61 	svcpl	0x00006d61
 1c8:	75736572 	ldrbvc	r6, [r3, #-1394]!	; 0xfffffa8e
 1cc:	6b5f746c 	blvs	17dd384 <__bss_end__+0x17d321c>
 1d0:	69707200 	ldmdbvs	r0!, {r9, ip, sp, lr}^
 1d4:	7475705f 	ldrbtvc	r7, [r5], #-95	; 0xffffffa1
 1d8:	72616863 	rsbvc	r6, r1, #6488064	; 0x630000
 1dc:	745f5f00 	ldrbvc	r5, [pc], #-3840	; 1e4 <_start-0x7e1c>
 1e0:	5f5f006d 	svcpl	0x005f006d
 1e4:	62686377 	rsbvs	r6, r8, #-603979775	; 0xdc000001
 1e8:	69707200 	ldmdbvs	r0!, {r9, ip, sp, lr}^
 1ec:	7365725f 	cmnvc	r5, #-268435451	; 0xf0000005
 1f0:	705f7465 	subsvc	r7, pc, r5, ror #8
 1f4:	00637475 	rsbeq	r7, r3, r5, ror r4
 1f8:	6474735f 	ldrbtvs	r7, [r4], #-863	; 0xfffffca1
 1fc:	0074756f 	rsbseq	r7, r4, pc, ror #10
 200:	7476635f 	ldrbtvc	r6, [r6], #-863	; 0xfffffca1
 204:	006e656c 	rsbeq	r6, lr, ip, ror #10
 208:	6c69665f 	stclvs	6, cr6, [r9], #-380	; 0xfffffe84
 20c:	5f5f0065 	svcpl	0x005f0065
 210:	434e5546 	movtmi	r5, #58694	; 0xe546
 214:	4e4f4954 			; <UNDEFINED> instruction: 0x4e4f4954
 218:	5f005f5f 	svcpl	0x00005f5f
 21c:	626f696e 	rsbvs	r6, pc, #1802240	; 0x1b8000
 220:	68730073 	ldmdavs	r3!, {r0, r1, r4, r5, r6}^
 224:	2074726f 	rsbscs	r7, r4, pc, ror #4
 228:	69736e75 	ldmdbvs	r3!, {r0, r2, r4, r5, r6, r9, sl, fp, sp, lr}^
 22c:	64656e67 	strbtvs	r6, [r5], #-3687	; 0xfffff199
 230:	746e6920 	strbtvc	r6, [lr], #-2336	; 0xfffff6e0
 234:	74615f00 	strbtvc	r5, [r1], #-3840	; 0xfffff100
 238:	74697865 	strbtvc	r7, [r9], #-2149	; 0xfffff79b
 23c:	735f0030 	cmpvc	pc, #48	; 0x30
 240:	616e6769 	cmnvs	lr, r9, ror #14
 244:	75625f6c 	strbvc	r5, [r2, #-3948]!	; 0xfffff094
 248:	615f0066 	cmpvs	pc, r6, rrx
 24c:	69746373 	ldmdbvs	r4!, {r0, r1, r4, r5, r6, r8, r9, sp, lr}^
 250:	625f656d 	subsvs	r6, pc, #457179136	; 0x1b400000
 254:	5f006675 	svcpl	0x00006675
 258:	75736572 	ldrbvc	r6, [r3, #-1394]!	; 0xfffffa8e
 25c:	5f00746c 	svcpl	0x0000746c
 260:	6863775f 	stmdavs	r3!, {r0, r1, r2, r3, r4, r6, r8, r9, sl, ip, sp, lr}^
 264:	4f4c5f00 	svcmi	0x004c5f00
 268:	545f4b43 	ldrbpl	r4, [pc], #-2883	; 270 <_start-0x7d90>
 26c:	6e697700 	cdpvs	7, 6, cr7, cr9, cr0, {0}
 270:	00745f74 	rsbseq	r5, r4, r4, ror pc
 274:	72666b63 	rsbvc	r6, r6, #101376	; 0x18c00
 278:	5f006565 	svcpl	0x00006565
 27c:	67616c66 	strbvs	r6, [r1, -r6, ror #24]!
 280:	5f003273 	svcpl	0x00003273
 284:	5f6d745f 	svcpl	0x006d745f
 288:	72616579 	rsbvc	r6, r1, #507510784	; 0x1e400000
 28c:	656c6300 	strbvs	r6, [ip, #-768]!	; 0xfffffd00
 290:	725f6e61 	subsvc	r6, pc, #1552	; 0x610
 294:	6f6f6265 	svcvs	0x006f6265
 298:	61700074 	cmnvs	r0, r4, ror r0
 29c:	2d317472 	cfldrscs	mvf7, [r1, #-456]!	; 0xfffffe38
 2a0:	74736574 	ldrbtvc	r6, [r3], #-1396	; 0xfffffa8c
 2a4:	00632e36 	rsbeq	r2, r3, r6, lsr lr
 2a8:	78656e5f 	stmdavc	r5!, {r0, r1, r2, r3, r4, r6, r9, sl, fp, sp, lr}^
 2ac:	5f006674 	svcpl	0x00006674
 2b0:	5f6d745f 	svcpl	0x006d745f
 2b4:	006e6f6d 	rsbeq	r6, lr, sp, ror #30
 2b8:	6574615f 	ldrbvs	r6, [r4, #-351]!	; 0xfffffea1
 2bc:	00746978 	rsbseq	r6, r4, r8, ror r9
 2c0:	64735f5f 	ldrbtvs	r5, [r3], #-3935	; 0xfffff0a1
 2c4:	6e696469 	cdpvs	4, 6, cr6, cr9, cr9, {3}
 2c8:	5f007469 	svcpl	0x00007469
 2cc:	5f66666f 	svcpl	0x0066666f
 2d0:	665f0074 			; <UNDEFINED> instruction: 0x665f0074
 2d4:	6c656572 	cfstr64vs	mvdx6, [r5], #-456	; 0xfffffe38
 2d8:	00747369 	rsbseq	r7, r4, r9, ror #6
 2dc:	7463775f 	strbtvc	r7, [r3], #-1887	; 0xfffff8a1
 2e0:	5f626d6f 	svcpl	0x00626d6f
 2e4:	74617473 	strbtvc	r7, [r1], #-1139	; 0xfffffb8d
 2e8:	6e750065 	cdpvs	0, 7, cr0, cr5, cr5, {3}
 2ec:	6e676973 			; <UNDEFINED> instruction: 0x6e676973
 2f0:	63206465 			; <UNDEFINED> instruction: 0x63206465
 2f4:	00726168 	rsbseq	r6, r2, r8, ror #2
 2f8:	77656e5f 			; <UNDEFINED> instruction: 0x77656e5f
 2fc:	554e4700 	strbpl	r4, [lr, #-1792]	; 0xfffff900
 300:	39394320 	ldmdbcc	r9!, {r5, r8, r9, lr}
 304:	322e3920 	eorcc	r3, lr, #32, 18	; 0x80000
 308:	2d20302e 	stccs	0, cr3, [r0, #-184]!	; 0xffffff48
 30c:	7570636d 	ldrbvc	r6, [r0, #-877]!	; 0xfffffc93
 310:	6d72613d 	ldfvse	f6, [r2, #-244]!	; 0xffffff0c
 314:	36373131 			; <UNDEFINED> instruction: 0x36373131
 318:	2d667a6a 	vstmdbcs	r6!, {s15-s120}
 31c:	6d2d2073 	stcvs	0, cr2, [sp, #-460]!	; 0xfffffe34
 320:	656e7574 	strbvs	r7, [lr, #-1396]!	; 0xfffffa8c
 324:	6d72613d 	ldfvse	f6, [r2, #-244]!	; 0xffffff0c
 328:	36373131 			; <UNDEFINED> instruction: 0x36373131
 32c:	2d667a6a 	vstmdbcs	r6!, {s15-s120}
 330:	6d2d2073 	stcvs	0, cr2, [sp, #-460]!	; 0xfffffe34
 334:	616f6c66 	cmnvs	pc, r6, ror #24
 338:	62612d74 	rsbvs	r2, r1, #116, 26	; 0x1d00
 33c:	6f733d69 	svcvs	0x00733d69
 340:	2d207466 	cfstrscs	mvf7, [r0, #-408]!	; 0xfffffe68
 344:	6d72616d 	ldfvse	f6, [r2, #-436]!	; 0xfffffe4c
 348:	616d2d20 	cmnvs	sp, r0, lsr #26
 34c:	3d686372 	stclcc	3, cr6, [r8, #-456]!	; 0xfffffe38
 350:	766d7261 	strbtvc	r7, [sp], -r1, ror #4
 354:	207a6b36 	rsbscs	r6, sl, r6, lsr fp
 358:	6467672d 	strbtvs	r6, [r7], #-1837	; 0xfffff8d3
 35c:	4f2d2062 	svcmi	0x002d2062
 360:	732d2067 			; <UNDEFINED> instruction: 0x732d2067
 364:	673d6474 			; <UNDEFINED> instruction: 0x673d6474
 368:	3939756e 	ldmdbcc	r9!, {r1, r2, r3, r5, r6, r8, sl, ip, sp, lr}
 36c:	66662d20 	strbtvs	r2, [r6], -r0, lsr #26
 370:	73656572 	cmnvc	r5, #478150656	; 0x1c800000
 374:	646e6174 	strbtvs	r6, [lr], #-372	; 0xfffffe8c
 378:	00676e69 	rsbeq	r6, r7, r9, ror #28
 37c:	655f685f 	ldrbvs	r6, [pc, #-2143]	; fffffb25 <__bss_end__+0xffff59bd>
 380:	6f6e7272 	svcvs	0x006e7272
 384:	6f687300 	svcvs	0x00687300
 388:	69207472 	stmdbvs	r0!, {r1, r4, r5, r6, sl, ip, sp, lr}
 38c:	5f00746e 	svcpl	0x0000746e
 390:	5f6d745f 	svcpl	0x006d745f
 394:	79616479 	stmdbvc	r1!, {r0, r3, r4, r5, r6, sl, sp, lr}^
 398:	735f5f00 	cmpvc	pc, #0, 30
 39c:	00667562 	rsbeq	r7, r6, r2, ror #10
 3a0:	626f695f 	rsbvs	r6, pc, #1556480	; 0x17c000
 3a4:	5f5f0073 	svcpl	0x005f0073
 3a8:	454c4946 	strbmi	r4, [ip, #-2374]	; 0xfffff6ba
 3ac:	626d5f00 	rsbvs	r5, sp, #0, 30
 3b0:	74617473 	strbtvc	r7, [r1], #-1139	; 0xfffffb8d
 3b4:	00745f65 	rsbseq	r5, r4, r5, ror #30
 3b8:	46735f5f 	uhsaxmi	r5, r3, pc	; <UNPREDICTABLE>
 3bc:	00454c49 	subeq	r4, r5, r9, asr #24
 3c0:	73626d5f 	cmnvc	r2, #6080	; 0x17c0
 3c4:	65746174 	ldrbvs	r6, [r4, #-372]!	; 0xfffffe8c
 3c8:	61725f00 	cmnvs	r2, r0, lsl #30
 3cc:	6e5f646e 	cdpvs	4, 5, cr6, cr15, cr14, {3}
 3d0:	00747865 	rsbseq	r7, r4, r5, ror #16
 3d4:	6c626d5f 	stclvs	13, cr6, [r2], #-380	; 0xfffffe84
 3d8:	735f6e65 	cmpvc	pc, #1616	; 0x650
 3dc:	65746174 	ldrbvs	r6, [r4, #-372]!	; 0xfffffe8c
 3e0:	6e695f00 	cdpvs	15, 6, cr5, cr9, cr0, {0}
 3e4:	695f0063 	ldmdbvs	pc, {r0, r1, r5, r6}^	; <UNPREDICTABLE>
 3e8:	5f00646e 	svcpl	0x0000646e
 3ec:	656c635f 	strbvs	r6, [ip, #-863]!	; 0xfffffca1
 3f0:	70756e61 	rsbsvc	r6, r5, r1, ror #28
 3f4:	6e755f00 	cdpvs	15, 7, cr5, cr5, cr0, {0}
 3f8:	63657073 	cmnvs	r5, #115	; 0x73
 3fc:	65696669 	strbvs	r6, [r9, #-1641]!	; 0xfffff997
 400:	6f6c5f64 	svcvs	0x006c5f64
 404:	656c6163 	strbvs	r6, [ip, #-355]!	; 0xfffffe9d
 408:	666e695f 			; <UNDEFINED> instruction: 0x666e695f
 40c:	6d5f006f 	ldclvs	0, cr0, [pc, #-444]	; 258 <_start-0x7da8>
 410:	64777861 	ldrbtvs	r7, [r7], #-2145	; 0xfffff79f
 414:	725f0073 	subsvc	r0, pc, #115	; 0x73
 418:	746e6565 	strbtvc	r6, [lr], #-1381	; 0xfffffa9b
 41c:	65735f00 	ldrbvs	r5, [r3, #-3840]!	; 0xfffff100
 420:	5f006465 	svcpl	0x00006465
 424:	756f635f 	strbvc	r6, [pc, #-863]!	; cd <_start-0x7f33>
 428:	5f00746e 	svcpl	0x0000746e
 42c:	636f6c5f 	cmnvs	pc, #24320	; 0x5f00
 430:	5f5f006b 	svcpl	0x005f006b
 434:	756c6176 	strbvc	r6, [ip, #-374]!	; 0xfffffe8a
 438:	735f0065 	cmpvc	pc, #101	; 0x65
 43c:	006b6565 	rsbeq	r6, fp, r5, ror #10
 440:	6f70665f 	svcvs	0x0070665f
 444:	00745f73 	rsbseq	r5, r4, r3, ror pc
 448:	6d745f5f 	ldclvs	15, cr5, [r4, #-380]!	; 0xfffffe84
 44c:	6e696d5f 	mcrvs	13, 3, r6, cr9, cr15, {2}
 450:	756d5f00 	strbvc	r5, [sp, #-3840]!	; 0xfffff100
 454:	5f00746c 	svcpl	0x0000746c
 458:	74727473 	ldrbtvc	r7, [r2], #-1139	; 0xfffffb8d
 45c:	6c5f6b6f 	mrrcvs	11, 6, r6, pc, cr15	; <UNPREDICTABLE>
 460:	00747361 	rsbseq	r7, r4, r1, ror #6
 464:	746e665f 	strbtvc	r6, [lr], #-1631	; 0xfffff9a1
 468:	73657079 	cmnvc	r5, #121	; 0x79
 46c:	64615f00 	strbtvs	r5, [r1], #-3840	; 0xfffff100
 470:	5f5f0064 	svcpl	0x005f0064
 474:	6e6f4c55 	mcrvs	12, 3, r4, cr15, cr5, {2}
 478:	675f0067 	ldrbvs	r0, [pc, -r7, rrx]
 47c:	61647465 	cmnvs	r4, r5, ror #8
 480:	655f6574 	ldrbvs	r6, [pc, #-1396]	; ffffff14 <__bss_end__+0xffff5dac>
 484:	5f007272 	svcpl	0x00007272
 488:	626f6c67 	rsbvs	r6, pc, #26368	; 0x6700
 48c:	695f6c61 	ldmdbvs	pc, {r0, r5, r6, sl, fp, sp, lr}^	; <UNPREDICTABLE>
 490:	7275706d 	rsbsvc	r7, r5, #109	; 0x6d
 494:	74705f65 	ldrbtvc	r5, [r0], #-3941	; 0xfffff09b
 498:	70720072 	rsbsvc	r0, r2, r2, ror r0
 49c:	61725f69 	cmnvs	r2, r9, ror #30
 4a0:	3233646e 	eorscc	r6, r3, #1845493760	; 0x6e000000
 4a4:	6e755f00 	cdpvs	15, 7, cr5, cr5, cr0, {0}
 4a8:	64657375 	strbtvs	r7, [r5], #-885	; 0xfffffc8b
 4ac:	6e61725f 	mcrvs	2, 3, r7, cr1, cr15, {2}
 4b0:	775f0064 	ldrbvc	r0, [pc, -r4, rrx]
 4b4:	5f007364 	svcpl	0x00007364
 4b8:	5f6d745f 	svcpl	0x006d745f
 4bc:	79616477 	stmdbvc	r1!, {r0, r1, r2, r4, r5, r6, sl, sp, lr}^
 4c0:	6c675f00 	stclvs	15, cr5, [r7], #-0
 4c4:	5f006575 	svcpl	0x00006575
 4c8:	6c616d6e 	stclvs	13, cr6, [r1], #-440	; 0xfffffe48
 4cc:	00636f6c 	rsbeq	r6, r3, ip, ror #30
 4d0:	34366c5f 	ldrtcc	r6, [r6], #-3167	; 0xfffff3a1
 4d4:	75625f61 	strbvc	r5, [r2, #-3937]!	; 0xfffff09f
 4d8:	735f0066 	cmpvc	pc, #102	; 0x66
 4dc:	665f6769 	ldrbvs	r6, [pc], -r9, ror #14
 4e0:	00636e75 	rsbeq	r6, r3, r5, ror lr
 4e4:	6c616d6b 	stclvs	13, cr6, [r1], #-428	; 0xfffffe54
 4e8:	00636f6c 	rsbeq	r6, r3, ip, ror #30
 4ec:	75626e5f 	strbvc	r6, [r2, #-3679]!	; 0xfffff1a1
 4f0:	755f0066 	ldrbvc	r0, [pc, #-102]	; 492 <_start-0x7b6e>
 4f4:	6573756e 	ldrbvs	r7, [r3, #-1390]!	; 0xfffffa92
 4f8:	5f5f0064 	svcpl	0x005f0064
 4fc:	695f6d74 	ldmdbvs	pc, {r2, r4, r5, r6, r8, sl, fp, sp, lr}^	; <UNPREDICTABLE>
 500:	74736473 	ldrbtvc	r6, [r3], #-1139	; 0xfffffb8d
 504:	6f6c5f00 	svcvs	0x006c5f00
 508:	746c6163 	strbtvc	r6, [ip], #-355	; 0xfffffe9d
 50c:	5f656d69 	svcpl	0x00656d69
 510:	00667562 	rsbeq	r7, r6, r2, ror #10
 514:	6f6c635f 	svcvs	0x006c635f
 518:	5f006573 	svcpl	0x00006573
 51c:	00383472 	eorseq	r3, r8, r2, ror r4
 520:	74626d5f 	strbtvc	r6, [r2], #-3423	; 0xfffff2a1
 524:	5f63776f 	svcpl	0x0063776f
 528:	74617473 	strbtvc	r7, [r1], #-1139	; 0xfffffb8d
 52c:	705f0065 	subsvc	r0, pc, r5, rrx
 530:	5f007335 	svcpl	0x00007335
 534:	5f6d745f 	svcpl	0x006d745f
 538:	7961646d 	stmdbvc	r1!, {r0, r2, r3, r5, r6, sl, sp, lr}^
 53c:	64617000 	strbtvs	r7, [r1], #-0
 540:	676e6964 	strbvs	r6, [lr, -r4, ror #18]!
 544:	6e696c00 	cdpvs	12, 6, cr6, cr9, cr0, {0}
 548:	006f6e65 	rsbeq	r6, pc, r5, ror #28
 54c:	76657270 			; <UNDEFINED> instruction: 0x76657270
 550:	73616600 	cmnvc	r1, #0, 12
 554:	61685f74 	smcvs	34292	; 0x85f4
 558:	66006873 			; <UNDEFINED> instruction: 0x66006873
 55c:	5f656572 	svcpl	0x00656572
 560:	00636f6c 	rsbeq	r6, r3, ip, ror #30
 564:	7a725f62 	bvc	1c982f4 <__bss_end__+0x1c8e18c>
 568:	74705f31 	ldrbtvc	r5, [r0], #-3889	; 0xfffff0cf
 56c:	52460072 	subpl	r0, r6, #114	; 0x72
 570:	00444545 	subeq	r4, r4, r5, asr #10
 574:	4f4c4c41 	svcmi	0x004c4c41
 578:	00444543 	subeq	r4, r4, r3, asr #10
 57c:	73666572 	cmnvc	r6, #478150656	; 0x1c800000
 580:	64696d5f 	strbtvs	r6, [r9], #-3423	; 0xfffff2a1
 584:	00656c64 	rsbeq	r6, r5, r4, ror #24
 588:	73666572 	cmnvc	r6, #478150656	; 0x1c800000
 58c:	6174735f 	cmnvs	r4, pc, asr r3
 590:	61007472 	tstvs	r0, r2, ror r4
 594:	636f6c6c 	cmnvs	pc, #108, 24	; 0x6c00
 598:	4f006465 	svcmi	0x00006465
 59c:	48524556 	ldmdami	r2, {r1, r2, r4, r6, r8, sl, lr}^
 5a0:	5f444145 	svcpl	0x00444145
 5a4:	5459424e 	ldrbpl	r4, [r9], #-590	; 0xfffffdb2
 5a8:	52005345 	andpl	r5, r0, #335544321	; 0x14000001
 5ac:	4f5a4445 	svcmi	0x005a4445
 5b0:	4100454e 	tstmi	r0, lr, asr #10
 5b4:	434f4c4c 	movtmi	r4, #64588	; 0xfc4c
 5b8:	46464f5f 			; <UNDEFINED> instruction: 0x46464f5f
 5bc:	00544553 	subseq	r4, r4, r3, asr r5
 5c0:	6b72616d 	blvs	1c98b7c <__bss_end__+0x1c8ea14>
 5c4:	6d656d5f 	stclvs	13, cr6, [r5, #-380]!	; 0xfffffe84
 5c8:	615f6200 	cmpvs	pc, r0, lsl #4
 5cc:	5f726464 	svcpl	0x00726464
 5d0:	685f6f74 	ldmdavs	pc, {r2, r4, r5, r6, r8, r9, sl, fp, sp, lr}^	; <UNPREDICTABLE>
 5d4:	63007264 	movwvs	r7, #612	; 0x264
 5d8:	6c6c616b 	stfvse	f6, [ip], #-428	; 0xfffffe54
 5dc:	632e636f 			; <UNDEFINED> instruction: 0x632e636f
 5e0:	66666f00 	strbtvs	r6, [r6], -r0, lsl #30
 5e4:	6c610073 	stclvs	0, cr0, [r1], #-460	; 0xfffffe34
 5e8:	5f636f6c 	svcpl	0x00636f6c
 5ec:	00636f6c 	rsbeq	r6, r3, ip, ror #30
 5f0:	5f726468 	svcpl	0x00726468
 5f4:	75736b63 	ldrbvc	r6, [r3, #-2915]!	; 0xfffff49d
 5f8:	626e006d 	rsbvs	r0, lr, #109	; 0x6d
 5fc:	73657479 	cmnvc	r5, #2030043136	; 0x79000000
 600:	6c6c615f 	stfvse	f6, [ip], #-380	; 0xfffffe84
 604:	6200636f 	andvs	r6, r0, #-1140850687	; 0xbc000001
 608:	6c6c615f 	stfvse	f6, [ip], #-380	; 0xfffffe84
 60c:	705f636f 	subsvc	r6, pc, pc, ror #6
 610:	63007274 	movwvs	r7, #628	; 0x274
 614:	6b636568 	blvs	18d9bbc <__bss_end__+0x18cfa54>
 618:	6572665f 	ldrbvs	r6, [r2, #-1631]!	; 0xfffff9a1
 61c:	72775f65 	rsbsvc	r5, r7, #404	; 0x194
 620:	00657469 	rsbeq	r7, r5, r9, ror #8
 624:	63656863 	cmnvs	r5, #6488064	; 0x630000
 628:	64685f6b 	strbtvs	r5, [r8], #-3947	; 0xfffff095
 62c:	5f620072 	svcpl	0x00620072
 630:	5f327a72 	svcpl	0x00327a72
 634:	00727470 	rsbseq	r7, r2, r0, ror r4
 638:	6b6c626e 	blvs	1b18ff8 <__bss_end__+0x1b0ee90>
 63c:	72730073 	rsbsvc	r0, r3, #115	; 0x73
 640:	6f6c5f63 	svcvs	0x006c5f63
 644:	00745f63 	rsbseq	r5, r4, r3, ror #30
 648:	746e6975 	strbtvc	r6, [lr], #-2421	; 0xfffff68b
 64c:	745f3233 	ldrbvc	r3, [pc], #-563	; 654 <_start-0x79ac>
 650:	72656e00 	rsbvc	r6, r5, #0, 28
 654:	73726f72 	cmnvc	r2, #456	; 0x1c8
 658:	72646800 	rsbvc	r6, r4, #0, 16
 65c:	6972705f 	ldmdbvs	r2!, {r0, r1, r2, r3, r4, r6, ip, sp, lr}^
 660:	6800746e 	stmdavs	r0, {r1, r2, r3, r5, r6, sl, ip, sp, lr}
 664:	00706165 	rsbseq	r6, r0, r5, ror #2
 668:	544e4553 	strbpl	r4, [lr], #-1363	; 0xfffffaad
 66c:	4c414e49 	mcrrmi	14, 4, r4, r1, cr9
 670:	65686300 	strbvs	r6, [r8, #-768]!	; 0xfffffd00
 674:	625f6b63 	subsvs	r6, pc, #101376	; 0x18c00
 678:	6b636f6c 	blvs	18dc430 <__bss_end__+0x18d22c8>
 67c:	6d656d00 	stclvs	13, cr6, [r5, #-0]
 680:	00746573 	rsbseq	r6, r4, r3, ror r5
 684:	7a725f62 	bvc	1c98414 <__bss_end__+0x1c8e2ac>
 688:	626e5f32 	rsbvs	r5, lr, #50, 30	; 0xc8
 68c:	73657479 	cmnvc	r5, #2030043136	; 0x79000000
 690:	6e697500 	cdpvs	5, 6, cr7, cr9, cr0, {0}
 694:	745f3874 	ldrbvc	r3, [pc], #-2164	; 69c <_start-0x7964>
 698:	72646800 	rsbvc	r6, r4, #0, 16
 69c:	6e00745f 	cfmvsrvs	mvf0, r7
 6a0:	65747962 	ldrbvs	r7, [r4, #-2402]!	; 0xfffff69e
 6a4:	65725f73 	ldrbvs	r5, [r2, #-3955]!	; 0xfffff08d
 6a8:	656c006d 	strbvs	r0, [ip, #-109]!	; 0xffffff93
 6ac:	63007466 	movwvs	r7, #1126	; 0x466
 6b0:	6b636568 	blvs	18d9c58 <__bss_end__+0x18cfaf0>
 6b4:	6d656d5f 	stclvs	13, cr6, [r5, #-380]!	; 0xfffffe84
 6b8:	61656800 	cmnvs	r5, r0, lsl #16
 6bc:	00726564 	rsbseq	r6, r2, r4, ror #10
 6c0:	6362696c 	cmnvs	r2, #108, 18	; 0x1b0000
 6c4:	7361682f 	cmnvc	r1, #3080192	; 0x2f0000
 6c8:	00632e68 	rsbeq	r2, r3, r8, ror #28
 6cc:	6d6f682f 	stclvs	8, cr6, [pc, #-188]!	; 618 <_start-0x79e8>
 6d0:	73752f65 	cmnvc	r5, #404	; 0x194
 6d4:	442f7265 	strtmi	r7, [pc], #-613	; 6dc <_start-0x7924>
 6d8:	432f7665 			; <UNDEFINED> instruction: 0x432f7665
 6dc:	30343253 	eorscc	r3, r4, r3, asr r2
 6e0:	696c2f58 	stmdbvs	ip!, {r3, r4, r6, r8, r9, sl, fp, sp}^
 6e4:	00697062 	rsbeq	r7, r9, r2, rrx
 6e8:	657a6973 	ldrbvs	r6, [sl, #-2419]!	; 0xfffff68d
 6ec:	6c00745f 	cfstrsvs	mvf7, [r0], {95}	; 0x5f
 6f0:	2f636269 	svccs	0x00636269
 6f4:	736d656d 	cmnvc	sp, #457179136	; 0x1b400000
 6f8:	632e7465 			; <UNDEFINED> instruction: 0x632e7465
 6fc:	765f5f00 	ldrbvc	r5, [pc], -r0, lsl #30
 700:	696c5f61 	stmdbvs	ip!, {r0, r5, r6, r8, r9, sl, fp, ip, lr}^
 704:	76007473 			; <UNDEFINED> instruction: 0x76007473
 708:	72705f61 	rsbsvc	r5, r0, #388	; 0x184
 70c:	6b746e69 	blvs	1d1c0b8 <__bss_end__+0x1d11f50>
 710:	675f5f00 	ldrbvs	r5, [pc, -r0, lsl #30]
 714:	5f63756e 	svcpl	0x0063756e
 718:	6c5f6176 	ldfvse	f6, [pc], {118}	; 0x76
 71c:	00747369 	rsbseq	r7, r4, r9, ror #6
 720:	70615f5f 	rsbvc	r5, r1, pc, asr pc
 724:	62696c00 	rsbvs	r6, r9, #0, 24
 728:	72702f63 	rsbsvc	r2, r0, #396	; 0x18c
 72c:	6b746e69 	blvs	1d1c0d8 <__bss_end__+0x1d11f70>
 730:	7200632e 	andvc	r6, r0, #-1207959552	; 0xb8000000
 734:	735f6970 	cmpvc	pc, #112, 18	; 0x1c0000
 738:	705f7465 	subsvc	r7, pc, r5, ror #8
 73c:	00637475 	rsbeq	r7, r3, r5, ror r4
 740:	74726175 	ldrbtvc	r6, [r2], #-373	; 0xfffffe8b
 744:	7475705f 	ldrbtvc	r7, [r5], #-95	; 0xffffffa1
 748:	6e690063 	cdpvs	0, 6, cr0, cr9, cr3, {3}
 74c:	6e726574 	mrcvs	5, 3, r6, cr2, cr4, {3}
 750:	705f6c61 	subsvc	r6, pc, r1, ror #24
 754:	68637475 	stmdavs	r3!, {r0, r2, r4, r5, r6, sl, ip, sp, lr}^
 758:	6c007261 	sfmvs	f7, 4, [r0], {97}	; 0x61
 75c:	2f636269 	svccs	0x00636269
 760:	63747570 	cmnvs	r4, #112, 10	; 0x1c000000
 764:	2e726168 	rpwcssz	f6, f2, #0.0
 768:	6e690063 	cdpvs	0, 6, cr0, cr9, cr3, {3}
 76c:	6e726574 	mrcvs	5, 3, r6, cr2, cr4, {3}
 770:	705f6c61 	subsvc	r6, pc, r1, ror #24
 774:	006b7475 	rsbeq	r7, fp, r5, ror r4
 778:	6362696c 	cmnvs	r2, #108, 18	; 0x1b0000
 77c:	7475702f 	ldrbtvc	r7, [r5], #-47	; 0xffffffd1
 780:	00632e6b 	rsbeq	r2, r3, fp, ror #28
 784:	5f697072 	svcpl	0x00697072
 788:	65736572 	ldrbvs	r6, [r3, #-1394]!	; 0xfffffa8e
 78c:	666c0074 			; <UNDEFINED> instruction: 0x666c0074
 790:	72007273 	andvc	r7, r0, #805306375	; 0x30000007
 794:	725f6970 	subsvc	r6, pc, #112, 18	; 0x1c0000
 798:	31646e61 	cmncc	r4, r1, ror #28
 79c:	696c0036 	stmdbvs	ip!, {r1, r2, r4, r5}^
 7a0:	722f6362 	eorvc	r6, pc, #-2013265919	; 0x88000001
 7a4:	722d6970 	eorvc	r6, sp, #112, 18	; 0x1c0000
 7a8:	2e646e61 	cdpcs	14, 6, cr6, cr4, cr1, {3}
 7ac:	696c0063 	stmdbvs	ip!, {r0, r1, r5, r6}^
 7b0:	762f6362 	strtvc	r6, [pc], -r2, ror #6
 7b4:	72702d61 	rsbsvc	r2, r0, #6208	; 0x1840
 7b8:	6b746e69 	blvs	1d1c164 <__bss_end__+0x1d11ffc>
 7bc:	7200632e 	andvc	r6, r0, #-1207959552	; 0xb8000000
 7c0:	735f6970 	cmpvc	pc, #112, 18	; 0x1c0000
 7c4:	6f5f7465 	svcvs	0x005f7465
 7c8:	75707475 	ldrbvc	r7, [r0, #-1141]!	; 0xfffffb8b
 7cc:	69730074 	ldmdbvs	r3!, {r2, r4, r5, r6}^
 7d0:	64656e67 	strbtvs	r6, [r5], #-3687	; 0xfffff199
 7d4:	7200705f 	andvc	r7, r0, #95	; 0x5f
 7d8:	72657665 	rsbvc	r7, r5, #105906176	; 0x6500000
 7dc:	77006573 	smlsdxvc	r0, r3, r5, r6
 7e0:	68746469 	ldmdavs	r4!, {r0, r3, r5, r6, sl, sp, lr}^
 7e4:	74757000 	ldrbtvc	r7, [r5], #-0
 7e8:	70665f73 	rsbvc	r5, r6, r3, ror pc
 7ec:	67656e00 	strbvs	r6, [r5, -r0, lsl #28]!
 7f0:	7000705f 	andvc	r7, r0, pc, asr r0
 7f4:	5f637475 	svcpl	0x00637475
 7f8:	69007066 	stmdbvs	r0, {r1, r2, r5, r6, ip, sp, lr}
 7fc:	67696473 			; <UNDEFINED> instruction: 0x67696473
 800:	65007469 	strvs	r7, [r0, #-1129]	; 0xfffffb97
 804:	0074696d 	rsbseq	r6, r4, sp, ror #18
 808:	66617473 			; <UNDEFINED> instruction: 0x66617473
 80c:	72732d66 	rsbsvc	r2, r3, #6528	; 0x1980
 810:	6c632f63 	stclvs	15, cr2, [r3], #-396	; 0xfffffe74
 814:	2d6e6165 	stfcse	f6, [lr, #-404]!	; 0xfffffe6c
 818:	6f626572 	svcvs	0x00626572
 81c:	632e746f 			; <UNDEFINED> instruction: 0x632e746f
 820:	6c656400 	cfstrdvs	mvd6, [r5], #-0
 824:	6d5f7961 	vldrvs.16	s15, [pc, #-194]	; 76a <_start-0x7896>	; <UNPREDICTABLE>
 828:	70720073 	rsbsvc	r0, r2, r3, ror r0
 82c:	65725f69 	ldrbvs	r5, [r2, #-3945]!	; 0xfffff097
 830:	746f6f62 	strbtvc	r6, [pc], #-3938	; 838 <_start-0x77c8>
 834:	61747300 	cmnvs	r4, r0, lsl #6
 838:	732d6666 			; <UNDEFINED> instruction: 0x732d6666
 83c:	632f6372 			; <UNDEFINED> instruction: 0x632f6372
 840:	72617473 	rsbvc	r7, r1, #1929379840	; 0x73000000
 844:	00632e74 	rsbeq	r2, r3, r4, ror lr
 848:	7473635f 	ldrbtvc	r6, [r3], #-863	; 0xfffffca1
 84c:	00747261 	rsbseq	r7, r4, r1, ror #4
 850:	5f737362 	svcpl	0x00737362
 854:	00646e65 	rsbeq	r6, r4, r5, ror #28
 858:	73625f5f 	cmnvc	r2, #380	; 0x17c
 85c:	74735f73 	ldrbtvc	r5, [r3], #-3955	; 0xfffff08d
 860:	5f747261 	svcpl	0x00747261
 864:	5f5f005f 	svcpl	0x005f005f
 868:	5f737362 	svcpl	0x00737362
 86c:	5f646e65 	svcpl	0x00646e65
 870:	4d50005f 	ldclmi	0, cr0, [r0, #-380]	; 0xfffffe84
 874:	5453525f 	ldrbpl	r5, [r3], #-607	; 0xfffffda1
 878:	55500043 	ldrbpl	r0, [r0, #-67]	; 0xffffffbd
 87c:	00323354 	eorseq	r3, r2, r4, asr r3
 880:	525f4d50 	subspl	r4, pc, #80, 26	; 0x1400
 884:	5f435453 	svcpl	0x00435453
 888:	46435257 			; <UNDEFINED> instruction: 0x46435257
 88c:	55465f47 	strbpl	r5, [r6, #-3911]	; 0xfffff0b9
 890:	525f4c4c 	subspl	r4, pc, #76, 24	; 0x4c00
 894:	54455345 	strbpl	r5, [r5], #-837	; 0xfffffcbb
 898:	5f4d5000 	svcpl	0x004d5000
 89c:	474f4457 	smlsldmi	r4, pc, r7, r4	; <UNPREDICTABLE>
 8a0:	73706300 	cmnvc	r0, #0, 6
 8a4:	4d500072 	ldclmi	0, cr0, [r0, #-456]	; 0xfffffe38
 8a8:	5341505f 	movtpl	r5, #4191	; 0x105f
 8ac:	524f5753 	subpl	r5, pc, #21757952	; 0x14c0000
 8b0:	74730044 	ldrbtvc	r0, [r3], #-68	; 0xffffffbc
 8b4:	2d666661 	stclcs	6, cr6, [r6, #-388]!	; 0xfffffe7c
 8b8:	2f637273 	svccs	0x00637273
 8bc:	6f626572 	svcvs	0x00626572
 8c0:	632e746f 			; <UNDEFINED> instruction: 0x632e746f
 8c4:	74657300 	strbtvc	r7, [r5], #-768	; 0xfffffd00
 8c8:	6573755f 	ldrbvs	r7, [r3, #-1375]!	; 0xfffffaa1
 8cc:	656c5f72 	strbvs	r5, [ip, #-3954]!	; 0xfffff08e
 8d0:	006c6576 	rsbeq	r6, ip, r6, ror r5
 8d4:	755f7461 	ldrbvc	r7, [pc, #-1121]	; 47b <_start-0x7b85>
 8d8:	5f726573 	svcpl	0x00726573
 8dc:	6576656c 	ldrbvs	r6, [r6, #-1388]!	; 0xfffffa94
 8e0:	6974006c 	ldmdbvs	r4!, {r2, r3, r5, r6}^
 8e4:	5f72656d 	svcpl	0x0072656d
 8e8:	5f746567 	svcpl	0x00746567
 8ec:	63657375 	cmnvs	r5, #-738197503	; 0xd4000001
 8f0:	6c656400 	cfstrdvs	mvd6, [r5], #-0
 8f4:	735f7961 	cmpvc	pc, #1589248	; 0x184000
 8f8:	64006365 	strvs	r6, [r0], #-869	; 0xfffffc9b
 8fc:	79616c65 	stmdbvc	r1!, {r0, r2, r5, r6, sl, fp, sp, lr}^
 900:	6379635f 	cmnvs	r9, #2080374785	; 0x7c000001
 904:	0073656c 	rsbseq	r6, r3, ip, ror #10
 908:	66617473 			; <UNDEFINED> instruction: 0x66617473
 90c:	72732d66 	rsbsvc	r2, r3, #6528	; 0x1980
 910:	69742f63 	ldmdbvs	r4!, {r0, r1, r5, r6, r8, r9, sl, fp, sp}^
 914:	2e72656d 	cdpcs	5, 7, cr6, cr2, cr13, {3}
 918:	69740063 	ldmdbvs	r4!, {r0, r1, r5, r6}^
 91c:	00736b63 	rsbseq	r6, r3, r3, ror #22
 920:	33544547 	cmpcc	r4, #297795584	; 0x11c00000
 924:	69740032 	ldmdbvs	r4!, {r1, r4, r5}^
 928:	5f72656d 	svcpl	0x0072656d
 92c:	5f746567 	svcpl	0x00746567
 930:	63657375 	cmnvs	r5, #-738197503	; 0xd4000001
 934:	7761725f 			; <UNDEFINED> instruction: 0x7761725f
 938:	6c656400 	cfstrdvs	mvd6, [r5], #-0
 93c:	755f7961 	ldrbvc	r7, [pc, #-2401]	; ffffffe3 <__bss_end__+0xffff5e7b>
 940:	61750073 	cmnvs	r5, r3, ror r0
 944:	695f7472 	ldmdbvs	pc, {r1, r4, r5, r6, sl, ip, sp, lr}^	; <UNPREDICTABLE>
 948:	0074696e 	rsbseq	r6, r4, lr, ror #18
 94c:	4f495047 	svcmi	0x00495047
 950:	4e55465f 	mrcmi	6, 2, r4, cr5, cr15, {2}
 954:	4e495f43 	cdpmi	15, 4, cr5, cr9, cr3, {2}
 958:	00545550 	subseq	r5, r4, r0, asr r5
 95c:	74617473 	strbtvc	r7, [r1], #-1139	; 0xfffffb8d
 960:	49504700 	ldmdbmi	r0, {r8, r9, sl, lr}^
 964:	55465f4f 	strbpl	r5, [r6, #-3919]	; 0xfffff0b1
 968:	415f434e 	cmpmi	pc, lr, asr #6
 96c:	0031544c 	eorseq	r5, r1, ip, asr #8
 970:	6c746e63 	ldclvs	14, cr6, [r4], #-396	; 0xfffffe74
 974:	72617500 	rsbvc	r7, r1, #0, 10
 978:	00632e74 	rsbeq	r2, r3, r4, ror lr
 97c:	5f787561 	svcpl	0x00787561
 980:	69726570 	ldmdbvs	r2!, {r4, r5, r6, r8, sl, sp, lr}^
 984:	00736870 	rsbseq	r6, r3, r0, ror r8
 988:	6d6f682f 	stclvs	8, cr6, [pc, #-188]!	; 8d4 <_start-0x772c>
 98c:	6e652f65 	cdpvs	15, 6, cr2, cr5, cr5, {3}
 990:	72656c67 	rsbvc	r6, r5, #26368	; 0x6700
 994:	616c632f 	cmnvs	ip, pc, lsr #6
 998:	632f7373 			; <UNDEFINED> instruction: 0x632f7373
 99c:	30343273 	eorscc	r3, r4, r3, ror r2
 9a0:	322d786c 	eorcc	r7, sp, #108, 16	; 0x6c0000
 9a4:	72707330 	rsbsvc	r7, r0, #48, 6	; 0xc0000000
 9a8:	62696c2f 	rsbvs	r6, r9, #12032	; 0x2f00
 9ac:	732f6970 			; <UNDEFINED> instruction: 0x732f6970
 9b0:	66666174 			; <UNDEFINED> instruction: 0x66666174
 9b4:	6972702d 	ldmdbvs	r2!, {r0, r2, r3, r5, ip, sp, lr}^
 9b8:	65746176 	ldrbvs	r6, [r4, #-374]!	; 0xfffffe8a
 9bc:	78756100 	ldmdavc	r5!, {r8, sp, lr}^
 9c0:	616e655f 	cmnvs	lr, pc, asr r5
 9c4:	73656c62 	cmnvc	r5, #25088	; 0x6200
 9c8:	72617500 	rsbvc	r7, r1, #0, 10
 9cc:	61635f74 	smcvs	13812	; 0x35f4
 9d0:	75705f6e 	ldrbvc	r5, [r0, #-3950]!	; 0xfffff092
 9d4:	75006374 	strvc	r6, [r0, #-884]	; 0xfffffc8c
 9d8:	5f747261 	svcpl	0x00747261
 9dc:	63746567 	cmnvs	r4, #432013312	; 0x19c00000
 9e0:	76656400 	strbtvc	r6, [r5], -r0, lsl #8
 9e4:	7261625f 	rsbvc	r6, r1, #-268435451	; 0xf0000005
 9e8:	72656972 	rsbvc	r6, r5, #1867776	; 0x1c8000
 9ec:	49504700 	ldmdbmi	r0, {r8, r9, sl, lr}^
 9f0:	55465f4f 	strbpl	r5, [r6, #-3919]	; 0xfffff0b1
 9f4:	415f434e 	cmpmi	pc, lr, asr #6
 9f8:	0032544c 	eorseq	r5, r2, ip, asr #8
 9fc:	657a6973 	ldrbvs	r6, [sl, #-2419]!	; 0xfffff68d
 a00:	65707974 	ldrbvs	r7, [r0, #-2420]!	; 0xfffff68c
 a04:	69706700 	ldmdbvs	r0!, {r8, r9, sl, sp, lr}^
 a08:	65735f6f 	ldrbvs	r5, [r3, #-3951]!	; 0xfffff091
 a0c:	75665f74 	strbvc	r5, [r6, #-3956]!	; 0xfffff08c
 a10:	6974636e 	ldmdbvs	r4!, {r1, r2, r3, r5, r6, r8, r9, sp, lr}^
 a14:	75006e6f 	strvc	r6, [r0, #-3695]	; 0xfffff191
 a18:	00747261 	rsbseq	r7, r4, r1, ror #4
 a1c:	434f4c5f 	movtmi	r4, #64607	; 0xfc5f
 a20:	45525f4b 	ldrbmi	r5, [r2, #-3915]	; 0xfffff0b5
 a24:	53525543 	cmppl	r2, #281018368	; 0x10c00000
 a28:	5f455649 	svcpl	0x00455649
 a2c:	635f0054 	cmpvs	pc, #84	; 0x54
 a30:	65727275 	ldrbvs	r7, [r2, #-629]!	; 0xfffffd8b
 a34:	6c5f746e 	cfldrdvs	mvd7, [pc], {110}	; 0x6e
 a38:	6c61636f 	stclvs	3, cr6, [r1], #-444	; 0xfffffe44
 a3c:	61620065 	cmnvs	r2, r5, rrx
 a40:	73006475 	movwvc	r6, #1141	; 0x475
 a44:	74617263 	strbtvc	r7, [r1], #-611	; 0xfffffd9d
 a48:	70006863 	andvc	r6, r0, r3, ror #16
 a4c:	32337475 	eorscc	r7, r3, #1962934272	; 0x75000000
 a50:	554e4700 	strbpl	r4, [lr, #-1792]	; 0xfffff900
 a54:	39394320 	ldmdbcc	r9!, {r5, r8, r9, lr}
 a58:	332e3620 			; <UNDEFINED> instruction: 0x332e3620
 a5c:	3220312e 	eorcc	r3, r0, #-2147483637	; 0x8000000b
 a60:	30373130 	eorscc	r3, r7, r0, lsr r1
 a64:	20303236 	eorscs	r3, r0, r6, lsr r2
 a68:	70636d2d 	rsbvc	r6, r3, sp, lsr #26
 a6c:	72613d75 	rsbvc	r3, r1, #7488	; 0x1d40
 a70:	3731316d 	ldrcc	r3, [r1, -sp, ror #2]!
 a74:	667a6a36 			; <UNDEFINED> instruction: 0x667a6a36
 a78:	2d20732d 	stccs	3, cr7, [r0, #-180]!	; 0xffffff4c
 a7c:	6e75746d 	cdpvs	4, 7, cr7, cr5, cr13, {3}
 a80:	72613d65 	rsbvc	r3, r1, #6464	; 0x1940
 a84:	3731316d 	ldrcc	r3, [r1, -sp, ror #2]!
 a88:	667a6a36 			; <UNDEFINED> instruction: 0x667a6a36
 a8c:	2d20732d 	stccs	3, cr7, [r0, #-180]!	; 0xffffff4c
 a90:	62646767 	rsbvs	r6, r4, #27000832	; 0x19c0000
 a94:	674f2d20 	strbvs	r2, [pc, -r0, lsr #26]
 a98:	74732d20 	ldrbtvc	r2, [r3], #-3360	; 0xfffff2e0
 a9c:	6e673d64 	cdpvs	13, 6, cr3, cr7, cr4, {3}
 aa0:	20393975 	eorscs	r3, r9, r5, ror r9
 aa4:	7266662d 	rsbvc	r6, r6, #47185920	; 0x2d00000
 aa8:	74736565 	ldrbtvc	r6, [r3], #-1381	; 0xfffffa9b
 aac:	69646e61 	stmdbvs	r4!, {r0, r5, r6, r9, sl, fp, sp, lr}^
 ab0:	5f00676e 	svcpl	0x0000676e
 ab4:	72727563 	rsbsvc	r7, r2, #415236096	; 0x18c00000
 ab8:	5f746e65 	svcpl	0x00746e65
 abc:	65746163 	ldrbvs	r6, [r4, #-355]!	; 0xfffffe9d
 ac0:	79726f67 	ldmdbvc	r2!, {r0, r1, r2, r5, r6, r8, r9, sl, fp, sp, lr}^
 ac4:	49504700 	ldmdbmi	r0, {r8, r9, sl, lr}^
 ac8:	55465f4f 	strbpl	r5, [r6, #-3919]	; 0xfffff0b1
 acc:	4f5f434e 	svcmi	0x005f434e
 ad0:	55505455 	ldrbpl	r5, [r0, #-1109]	; 0xfffffbab
 ad4:	65670054 	strbvs	r0, [r7, #-84]!	; 0xffffffac
 ad8:	00323374 	eorseq	r3, r2, r4, ror r3
 adc:	74726175 	ldrbtvc	r6, [r2], #-373	; 0xfffffe8b
 ae0:	6e61635f 	mcrvs	3, 3, r6, cr1, cr15, {2}
 ae4:	7465675f 	strbtvc	r6, [r5], #-1887	; 0xfffff8a1
 ae8:	726f0063 	rsbvc	r0, pc, #99	; 0x63
 aec:	336e695f 	cmncc	lr, #1556480	; 0x17c000
 af0:	61750032 	cmnvs	r5, r2, lsr r0
 af4:	685f7472 	ldmdavs	pc, {r1, r4, r5, r6, sl, ip, sp, lr}^	; <UNPREDICTABLE>
 af8:	645f7361 	ldrbvs	r7, [pc], #-865	; b00 <_start-0x7500>
 afc:	00617461 	rsbeq	r7, r1, r1, ror #8
 b00:	4f495047 	svcmi	0x00495047
 b04:	4e55465f 	mrcmi	6, 2, r4, cr5, cr15, {2}
 b08:	4c415f43 	mcrrmi	15, 4, r5, r1, cr3
 b0c:	47003054 	smlsdmi	r0, r4, r0, r3
 b10:	5f4f4950 	svcpl	0x004f4950
 b14:	434e5546 	movtmi	r5, #58694	; 0xe546
 b18:	544c415f 	strbpl	r4, [ip], #-351	; 0xfffffea1
 b1c:	50470033 	subpl	r0, r7, r3, lsr r0
 b20:	465f4f49 	ldrbmi	r4, [pc], -r9, asr #30
 b24:	5f434e55 	svcpl	0x00434e55
 b28:	34544c41 	ldrbcc	r4, [r4], #-3137	; 0xfffff3bf
 b2c:	49504700 	ldmdbmi	r0, {r8, r9, sl, lr}^
 b30:	55465f4f 	strbpl	r5, [r6, #-3919]	; 0xfffff0b1
 b34:	415f434e 	cmpmi	pc, lr, asr #6
 b38:	0035544c 	eorseq	r5, r5, ip, asr #8
 b3c:	6f697067 	svcvs	0x00697067
 b40:	7465735f 	strbtvc	r7, [r5], #-863	; 0xfffffca1
 b44:	66666f5f 	uqsaxvs	r6, r6, pc	; <UNPREDICTABLE>
 b48:	6e616200 	cdpvs	2, 6, cr6, cr1, cr0, {0}
 b4c:	7067006b 	rsbvc	r0, r7, fp, rrx
 b50:	632e6f69 			; <UNDEFINED> instruction: 0x632e6f69
 b54:	69706700 	ldmdbvs	r0!, {r8, r9, sl, sp, lr}^
 b58:	65725f6f 	ldrbvs	r5, [r2, #-3951]!	; 0xfffff091
 b5c:	67006461 	strvs	r6, [r0, -r1, ror #8]
 b60:	5f6f6970 	svcpl	0x006f6970
 b64:	5f746573 	svcpl	0x00746573
 b68:	7074756f 	rsbsvc	r7, r4, pc, ror #10
 b6c:	67007475 	smlsdxvs	r0, r5, r4, r7
 b70:	5f6f6970 	svcpl	0x006f6970
 b74:	74697277 	strbtvc	r7, [r9], #-631	; 0xfffffd89
 b78:	70670065 	rsbvc	r0, r7, r5, rrx
 b7c:	735f6f69 	cmpvc	pc, #420	; 0x1a4
 b80:	00307465 	eorseq	r7, r0, r5, ror #8
 b84:	6f697067 	svcvs	0x00697067
 b88:	76656c5f 			; <UNDEFINED> instruction: 0x76656c5f
 b8c:	70670030 	rsbvc	r0, r7, r0, lsr r0
 b90:	735f6f69 	cmpvc	pc, #420	; 0x1a4
 b94:	695f7465 	ldmdbvs	pc, {r0, r2, r5, r6, sl, ip, sp, lr}^	; <UNPREDICTABLE>
 b98:	7475706e 	ldrbtvc	r7, [r5], #-110	; 0xffffff92
 b9c:	69706700 	ldmdbvs	r0!, {r8, r9, sl, sp, lr}^
 ba0:	65735f6f 	ldrbvs	r5, [r3, #-3951]!	; 0xfffff091
 ba4:	6e6f5f74 	mcrvs	15, 3, r5, cr15, cr4, {3}
 ba8:	69706700 	ldmdbvs	r0!, {r8, r9, sl, sp, lr}^
 bac:	75665f6f 	strbvc	r5, [r6, #-3951]!	; 0xfffff091
 bb0:	745f636e 	ldrbvc	r6, [pc], #-878	; bb8 <_start-0x7448>
 bb4:	69706700 	ldmdbvs	r0!, {r8, r9, sl, sp, lr}^
 bb8:	6c635f6f 	stclvs	15, cr5, [r3], #-444	; 0xfffffe44
 bbc:	6b003072 	blvs	cd8c <__bss_end__+0x2c24>
 bc0:	6c6c616d 	stfvse	f6, [ip], #-436	; 0xfffffe4c
 bc4:	632e636f 			; <UNDEFINED> instruction: 0x632e636f
 bc8:	616d6b00 	cmnvs	sp, r0, lsl #22
 bcc:	636f6c6c 	cmnvs	pc, #108, 24	; 0x6c00
 bd0:	696e695f 	stmdbvs	lr!, {r0, r1, r2, r3, r4, r6, r8, fp, sp, lr}^
 bd4:	6d6b0074 	stclvs	0, cr0, [fp, #-464]!	; 0xfffffe30
 bd8:	6f6c6c61 	svcvs	0x006c6c61
 bdc:	6c615f63 	stclvs	15, cr5, [r1], #-396	; 0xfffffe74
 be0:	656e6769 	strbvs	r6, [lr, #-1897]!	; 0xfffff897
 be4:	6f640064 	svcvs	0x00640064
 be8:	656c6275 	strbvs	r6, [ip, #-629]!	; 0xfffffd8b
 bec:	72666b00 	rsbvc	r6, r6, #0, 22
 bf0:	615f6565 	cmpvs	pc, r5, ror #10
 bf4:	6b006c6c 	blvs	1bdac <__bss_end__+0x11c44>
 bf8:	65657266 	strbvs	r7, [r5, #-614]!	; 0xfffffd9a
 bfc:	7466615f 	strbtvc	r6, [r6], #-351	; 0xfffffea1
 c00:	6b007265 	blvs	1d59c <__bss_end__+0x13434>
 c04:	6c6c616d 	stfvse	f6, [ip], #-436	; 0xfffffe4c
 c08:	685f636f 	ldmdavs	pc, {r0, r1, r2, r3, r5, r6, r8, r9, sp, lr}^	; <UNPREDICTABLE>
 c0c:	5f706165 	svcpl	0x00706165
 c10:	00727470 	rsbseq	r7, r2, r0, ror r4
 c14:	67696c61 	strbvs	r6, [r9, -r1, ror #24]!
 c18:	6e656d6e 	cdpvs	13, 6, cr6, cr5, cr14, {3}
 c1c:	5f5f0074 	svcpl	0x005f0074
 c20:	70616568 	rsbvc	r6, r1, r8, ror #10
 c24:	6174735f 	cmnvs	r4, pc, asr r3
 c28:	5f5f7472 	svcpl	0x005f7472
 c2c:	616d6b00 	cmnvs	sp, r0, lsl #22
 c30:	636f6c6c 	cmnvs	pc, #108, 24	; 0x6c00
 c34:	6165685f 	cmnvs	r5, pc, asr r8
 c38:	74735f70 	ldrbtvc	r5, [r3], #-3952	; 0xfffff090
 c3c:	00747261 	rsbseq	r7, r4, r1, ror #4
 c40:	6464615f 	strbtvs	r6, [r4], #-351	; 0xfffffea1
 c44:	6d6b0072 	stclvs	0, cr0, [fp, #-456]!	; 0xfffffe38
 c48:	6f6c6c61 	svcvs	0x006c6c61
 c4c:	65685f63 	strbvs	r5, [r8, #-3939]!	; 0xfffff09d
 c50:	655f7061 	ldrbvs	r7, [pc, #-97]	; bf7 <_start-0x7409>
 c54:	Address 0x0000000000000c54 is out of bounds.


Disassembly of section .debug_frame:

00000000 <.debug_frame>:
   0:	0000000c 	andeq	r0, r0, ip
   4:	ffffffff 			; <UNDEFINED> instruction: 0xffffffff
   8:	7c020001 	stcvc	0, cr0, [r2], {1}
   c:	000d0c0e 	andeq	r0, sp, lr, lsl #24
  10:	00000024 	andeq	r0, r0, r4, lsr #32
  14:	00000000 	andeq	r0, r0, r0
  18:	00008010 	andeq	r8, r0, r0, lsl r0
  1c:	00000198 	muleq	r0, r8, r1
  20:	84140e42 	ldrhi	r0, [r4], #-3650	; 0xfffff1be
  24:	86048505 	strhi	r8, [r4], -r5, lsl #10
  28:	8e028703 	cdphi	7, 0, cr8, cr2, cr3, {0}
  2c:	480e4201 	stmdami	lr, {r0, r9, lr}
  30:	0e0a9602 	cfmadd32eq	mvax0, mvfx9, mvfx10, mvfx2
  34:	000b4214 	andeq	r4, fp, r4, lsl r2
  38:	0000000c 	andeq	r0, r0, ip
  3c:	ffffffff 			; <UNDEFINED> instruction: 0xffffffff
  40:	7c020001 	stcvc	0, cr0, [r2], {1}
  44:	000d0c0e 	andeq	r0, sp, lr, lsl #24
  48:	0000000c 	andeq	r0, r0, ip
  4c:	00000038 	andeq	r0, r0, r8, lsr r0
  50:	000081a8 	andeq	r8, r0, r8, lsr #3
  54:	00000008 	andeq	r0, r0, r8
  58:	00000014 	andeq	r0, r0, r4, lsl r0
  5c:	00000038 	andeq	r0, r0, r8, lsr r0
  60:	000081b0 			; <UNDEFINED> instruction: 0x000081b0
  64:	00000010 	andeq	r0, r0, r0, lsl r0
  68:	84080e42 	strhi	r0, [r8], #-3650	; 0xfffff1be
  6c:	00018e02 	andeq	r8, r1, r2, lsl #28
  70:	00000014 	andeq	r0, r0, r4, lsl r0
  74:	00000038 	andeq	r0, r0, r8, lsr r0
  78:	000081c0 	andeq	r8, r0, r0, asr #3
  7c:	00000018 	andeq	r0, r0, r8, lsl r0
  80:	84080e42 	strhi	r0, [r8], #-3650	; 0xfffff1be
  84:	00018e02 	andeq	r8, r1, r2, lsl #28
  88:	0000000c 	andeq	r0, r0, ip
  8c:	00000038 	andeq	r0, r0, r8, lsr r0
  90:	000081d8 	ldrdeq	r8, [r0], -r8	; <UNPREDICTABLE>
  94:	0000000c 	andeq	r0, r0, ip
  98:	0000000c 	andeq	r0, r0, ip
  9c:	00000038 	andeq	r0, r0, r8, lsr r0
  a0:	000081e4 	andeq	r8, r0, r4, ror #3
  a4:	00000008 	andeq	r0, r0, r8
  a8:	0000001c 	andeq	r0, r0, ip, lsl r0
  ac:	00000038 	andeq	r0, r0, r8, lsr r0
  b0:	000081ec 	andeq	r8, r0, ip, ror #3
  b4:	0000010c 	andeq	r0, r0, ip, lsl #2
  b8:	84180e42 	ldrhi	r0, [r8], #-3650	; 0xfffff1be
  bc:	86058506 	strhi	r8, [r5], -r6, lsl #10
  c0:	88038704 	stmdahi	r3, {r2, r8, r9, sl, pc}
  c4:	00018e02 	andeq	r8, r1, r2, lsl #28
  c8:	00000014 	andeq	r0, r0, r4, lsl r0
  cc:	00000038 	andeq	r0, r0, r8, lsr r0
  d0:	000082f8 	strdeq	r8, [r0], -r8	; <UNPREDICTABLE>
  d4:	00000014 	andeq	r0, r0, r4, lsl r0
  d8:	84080e42 	strhi	r0, [r8], #-3650	; 0xfffff1be
  dc:	00018e02 	andeq	r8, r1, r2, lsl #28
  e0:	00000018 	andeq	r0, r0, r8, lsl r0
  e4:	00000038 	andeq	r0, r0, r8, lsr r0
  e8:	0000830c 	andeq	r8, r0, ip, lsl #6
  ec:	00000024 	andeq	r0, r0, r4, lsr #32
  f0:	84100e42 	ldrhi	r0, [r0], #-3650	; 0xfffff1be
  f4:	86038504 	strhi	r8, [r3], -r4, lsl #10
  f8:	00018e02 	andeq	r8, r1, r2, lsl #28
  fc:	00000018 	andeq	r0, r0, r8, lsl r0
 100:	00000038 	andeq	r0, r0, r8, lsr r0
 104:	00008330 	andeq	r8, r0, r0, lsr r3
 108:	000000e8 	andeq	r0, r0, r8, ror #1
 10c:	84100e42 	ldrhi	r0, [r0], #-3650	; 0xfffff1be
 110:	86038504 	strhi	r8, [r3], -r4, lsl #10
 114:	00018e02 	andeq	r8, r1, r2, lsl #28
 118:	0000001c 	andeq	r0, r0, ip, lsl r0
 11c:	00000038 	andeq	r0, r0, r8, lsr r0
 120:	00008418 	andeq	r8, r0, r8, lsl r4
 124:	000000fc 	strdeq	r0, [r0], -ip
 128:	84180e42 	ldrhi	r0, [r8], #-3650	; 0xfffff1be
 12c:	86058506 	strhi	r8, [r5], -r6, lsl #10
 130:	88038704 	stmdahi	r3, {r2, r8, r9, sl, pc}
 134:	00018e02 	andeq	r8, r1, r2, lsl #28
 138:	00000018 	andeq	r0, r0, r8, lsl r0
 13c:	00000038 	andeq	r0, r0, r8, lsr r0
 140:	00008514 	andeq	r8, r0, r4, lsl r5
 144:	00000064 	andeq	r0, r0, r4, rrx
 148:	84100e42 	ldrhi	r0, [r0], #-3650	; 0xfffff1be
 14c:	86038504 	strhi	r8, [r3], -r4, lsl #10
 150:	00018e02 	andeq	r8, r1, r2, lsl #28
 154:	00000018 	andeq	r0, r0, r8, lsl r0
 158:	00000038 	andeq	r0, r0, r8, lsr r0
 15c:	00008578 	andeq	r8, r0, r8, ror r5
 160:	00000074 	andeq	r0, r0, r4, ror r0
 164:	84100e42 	ldrhi	r0, [r0], #-3650	; 0xfffff1be
 168:	86038504 	strhi	r8, [r3], -r4, lsl #10
 16c:	00018e02 	andeq	r8, r1, r2, lsl #28
 170:	0000001c 	andeq	r0, r0, ip, lsl r0
 174:	00000038 	andeq	r0, r0, r8, lsr r0
 178:	000085ec 	andeq	r8, r0, ip, ror #11
 17c:	000000b8 	strheq	r0, [r0], -r8
 180:	84180e42 	ldrhi	r0, [r8], #-3650	; 0xfffff1be
 184:	86058506 	strhi	r8, [r5], -r6, lsl #10
 188:	88038704 	stmdahi	r3, {r2, r8, r9, sl, pc}
 18c:	00018e02 	andeq	r8, r1, r2, lsl #28
 190:	00000028 	andeq	r0, r0, r8, lsr #32
 194:	00000038 	andeq	r0, r0, r8, lsr r0
 198:	000086a4 	andeq	r8, r0, r4, lsr #13
 19c:	0000021c 	andeq	r0, r0, ip, lsl r2
 1a0:	841c0e42 	ldrhi	r0, [ip], #-3650	; 0xfffff1be
 1a4:	86068507 	strhi	r8, [r6], -r7, lsl #10
 1a8:	88048705 	stmdahi	r4, {r0, r2, r8, r9, sl, pc}
 1ac:	8e028903 	vmlahi.f16	s16, s4, s6	; <UNPREDICTABLE>
 1b0:	280e4201 	stmdacs	lr, {r0, r9, lr}
 1b4:	0e0a8e02 	cdpeq	14, 0, cr8, cr10, cr2, {0}
 1b8:	000b421c 	andeq	r4, fp, ip, lsl r2
 1bc:	0000001c 	andeq	r0, r0, ip, lsl r0
 1c0:	00000038 	andeq	r0, r0, r8, lsr r0
 1c4:	000088c0 	andeq	r8, r0, r0, asr #17
 1c8:	00000150 	andeq	r0, r0, r0, asr r1
 1cc:	84180e42 	ldrhi	r0, [r8], #-3650	; 0xfffff1be
 1d0:	86058506 	strhi	r8, [r5], -r6, lsl #10
 1d4:	88038704 	stmdahi	r3, {r2, r8, r9, sl, pc}
 1d8:	00018e02 	andeq	r8, r1, r2, lsl #28
 1dc:	0000000c 	andeq	r0, r0, ip
 1e0:	ffffffff 			; <UNDEFINED> instruction: 0xffffffff
 1e4:	7c020001 	stcvc	0, cr0, [r2], {1}
 1e8:	000d0c0e 	andeq	r0, sp, lr, lsl #24
 1ec:	00000018 	andeq	r0, r0, r8, lsl r0
 1f0:	000001dc 	ldrdeq	r0, [r0], -ip
 1f4:	00008a10 	andeq	r8, r0, r0, lsl sl
 1f8:	000000ec 	andeq	r0, r0, ip, ror #1
 1fc:	8e040e48 	cdphi	14, 0, cr0, cr4, cr8, {2}
 200:	0e6a0201 	cdpeq	2, 6, cr0, cr10, cr1, {0}
 204:	0000ce00 	andeq	ip, r0, r0, lsl #28
 208:	0000000c 	andeq	r0, r0, ip
 20c:	ffffffff 			; <UNDEFINED> instruction: 0xffffffff
 210:	7c020001 	stcvc	0, cr0, [r2], {1}
 214:	000d0c0e 	andeq	r0, sp, lr, lsl #24
 218:	0000000c 	andeq	r0, r0, ip
 21c:	00000208 	andeq	r0, r0, r8, lsl #4
 220:	00008afc 	strdeq	r8, [r0], -ip
 224:	00000018 	andeq	r0, r0, r8, lsl r0
 228:	0000000c 	andeq	r0, r0, ip
 22c:	ffffffff 			; <UNDEFINED> instruction: 0xffffffff
 230:	7c020001 	stcvc	0, cr0, [r2], {1}
 234:	000d0c0e 	andeq	r0, sp, lr, lsl #24
 238:	00000034 	andeq	r0, r0, r4, lsr r0
 23c:	00000228 	andeq	r0, r0, r8, lsr #4
 240:	00008b14 	andeq	r8, r0, r4, lsl fp
 244:	00000058 	andeq	r0, r0, r8, asr r0
 248:	80100e42 	andshi	r0, r0, r2, asr #28
 24c:	82038104 	andhi	r8, r3, #4, 2
 250:	42018302 	andmi	r8, r1, #134217728	; 0x8000000
 254:	07841c0e 	streq	r1, [r4, lr, lsl #24]
 258:	058e0685 	streq	r0, [lr, #1669]	; 0x685
 25c:	5c280e42 	stcpl	14, cr0, [r8], #-264	; 0xfffffef8
 260:	ce421c0e 	cdpgt	12, 4, cr1, cr2, cr14, {0}
 264:	100ec4c5 	andne	ip, lr, r5, asr #9
 268:	c1c2c342 	bicgt	ip, r2, r2, asr #6
 26c:	00000ec0 	andeq	r0, r0, r0, asr #29
 270:	0000000c 	andeq	r0, r0, ip
 274:	ffffffff 			; <UNDEFINED> instruction: 0xffffffff
 278:	7c020001 	stcvc	0, cr0, [r2], {1}
 27c:	000d0c0e 	andeq	r0, sp, lr, lsl #24
 280:	00000014 	andeq	r0, r0, r4, lsl r0
 284:	00000270 	andeq	r0, r0, r0, ror r2
 288:	00008b6c 	andeq	r8, r0, ip, ror #22
 28c:	00000014 	andeq	r0, r0, r4, lsl r0
 290:	84080e42 	strhi	r0, [r8], #-3650	; 0xfffff1be
 294:	00018e02 	andeq	r8, r1, r2, lsl #28
 298:	0000000c 	andeq	r0, r0, ip
 29c:	00000270 	andeq	r0, r0, r0, ror r2
 2a0:	00008b80 	andeq	r8, r0, r0, lsl #23
 2a4:	00000018 	andeq	r0, r0, r8, lsl r0
 2a8:	0000000c 	andeq	r0, r0, ip
 2ac:	00000270 	andeq	r0, r0, r0, ror r2
 2b0:	00008b98 	muleq	r0, r8, fp
 2b4:	00000010 	andeq	r0, r0, r0, lsl r0
 2b8:	0000000c 	andeq	r0, r0, ip
 2bc:	ffffffff 			; <UNDEFINED> instruction: 0xffffffff
 2c0:	7c020001 	stcvc	0, cr0, [r2], {1}
 2c4:	000d0c0e 	andeq	r0, sp, lr, lsl #24
 2c8:	00000014 	andeq	r0, r0, r4, lsl r0
 2cc:	000002b8 			; <UNDEFINED> instruction: 0x000002b8
 2d0:	00008ba8 	andeq	r8, r0, r8, lsr #23
 2d4:	00000034 	andeq	r0, r0, r4, lsr r0
 2d8:	84080e42 	strhi	r0, [r8], #-3650	; 0xfffff1be
 2dc:	00018e02 	andeq	r8, r1, r2, lsl #28
 2e0:	0000000c 	andeq	r0, r0, ip
 2e4:	ffffffff 			; <UNDEFINED> instruction: 0xffffffff
 2e8:	7c020001 	stcvc	0, cr0, [r2], {1}
 2ec:	000d0c0e 	andeq	r0, sp, lr, lsl #24
 2f0:	0000000c 	andeq	r0, r0, ip
 2f4:	000002e0 	andeq	r0, r0, r0, ror #5
 2f8:	00008bdc 	ldrdeq	r8, [r0], -ip
 2fc:	0000002c 	andeq	r0, r0, ip, lsr #32
 300:	00000014 	andeq	r0, r0, r4, lsl r0
 304:	000002e0 	andeq	r0, r0, r0, ror #5
 308:	00008c08 	andeq	r8, r0, r8, lsl #24
 30c:	00000018 	andeq	r0, r0, r8, lsl r0
 310:	84080e42 	strhi	r0, [r8], #-3650	; 0xfffff1be
 314:	00018e02 	andeq	r8, r1, r2, lsl #28
 318:	0000000c 	andeq	r0, r0, ip
 31c:	000002e0 	andeq	r0, r0, r0, ror #5
 320:	00008c20 	andeq	r8, r0, r0, lsr #24
 324:	00000018 	andeq	r0, r0, r8, lsl r0
 328:	0000000c 	andeq	r0, r0, ip
 32c:	ffffffff 			; <UNDEFINED> instruction: 0xffffffff
 330:	7c020001 	stcvc	0, cr0, [r2], {1}
 334:	000d0c0e 	andeq	r0, sp, lr, lsl #24
 338:	0000000c 	andeq	r0, r0, ip
 33c:	00000328 	andeq	r0, r0, r8, lsr #6
 340:	00008c38 	andeq	r8, r0, r8, lsr ip
 344:	00000014 	andeq	r0, r0, r4, lsl r0
 348:	0000000c 	andeq	r0, r0, ip
 34c:	00000328 	andeq	r0, r0, r8, lsr #6
 350:	00008c4c 	andeq	r8, r0, ip, asr #24
 354:	00000024 	andeq	r0, r0, r4, lsr #32
 358:	0000000c 	andeq	r0, r0, ip
 35c:	00000328 	andeq	r0, r0, r8, lsr #6
 360:	00008c70 	andeq	r8, r0, r0, ror ip
 364:	00000038 	andeq	r0, r0, r8, lsr r0
 368:	00000024 	andeq	r0, r0, r4, lsr #32
 36c:	00000328 	andeq	r0, r0, r8, lsr #6
 370:	00008ca8 	andeq	r8, r0, r8, lsr #25
 374:	000001ac 	andeq	r0, r0, ip, lsr #3
 378:	84140e42 	ldrhi	r0, [r4], #-3650	; 0xfffff1be
 37c:	86048505 	strhi	r8, [r4], -r5, lsl #10
 380:	8e028703 	cdphi	7, 0, cr8, cr2, cr3, {0}
 384:	580e4201 	stmdapl	lr, {r0, r9, lr}
 388:	0e0a9a02 	vmlaeq.f32	s18, s20, s4
 38c:	000b4214 	andeq	r4, fp, r4, lsl r2
 390:	00000014 	andeq	r0, r0, r4, lsl r0
 394:	00000328 	andeq	r0, r0, r8, lsr #6
 398:	00008e54 	andeq	r8, r0, r4, asr lr
 39c:	00000054 	andeq	r0, r0, r4, asr r0
 3a0:	84080e52 	strhi	r0, [r8], #-3666	; 0xfffff1ae
 3a4:	00018e02 	andeq	r8, r1, r2, lsl #28
 3a8:	00000028 	andeq	r0, r0, r8, lsr #32
 3ac:	00000328 	andeq	r0, r0, r8, lsr #6
 3b0:	00008ea8 	andeq	r8, r0, r8, lsr #29
 3b4:	000002b0 			; <UNDEFINED> instruction: 0x000002b0
 3b8:	841c0e42 	ldrhi	r0, [ip], #-3650	; 0xfffff1be
 3bc:	86068507 	strhi	r8, [r6], -r7, lsl #10
 3c0:	88048705 	stmdahi	r4, {r0, r2, r8, r9, sl, pc}
 3c4:	8e028903 	vmlahi.f16	s16, s4, s6	; <UNPREDICTABLE>
 3c8:	b00e4201 	andlt	r4, lr, r1, lsl #4
 3cc:	01480301 	cmpeq	r8, r1, lsl #6
 3d0:	00001c0e 	andeq	r1, r0, lr, lsl #24
 3d4:	0000000c 	andeq	r0, r0, ip
 3d8:	ffffffff 			; <UNDEFINED> instruction: 0xffffffff
 3dc:	7c020001 	stcvc	0, cr0, [r2], {1}
 3e0:	000d0c0e 	andeq	r0, sp, lr, lsl #24
 3e4:	00000014 	andeq	r0, r0, r4, lsl r0
 3e8:	000003d4 	ldrdeq	r0, [r0], -r4
 3ec:	00009158 	andeq	r9, r0, r8, asr r1
 3f0:	00000028 	andeq	r0, r0, r8, lsr #32
 3f4:	84080e42 	strhi	r0, [r8], #-3650	; 0xfffff1be
 3f8:	00018e02 	andeq	r8, r1, r2, lsl #28
 3fc:	0000000c 	andeq	r0, r0, ip
 400:	ffffffff 			; <UNDEFINED> instruction: 0xffffffff
 404:	7c020001 	stcvc	0, cr0, [r2], {1}
 408:	000d0c0e 	andeq	r0, sp, lr, lsl #24
 40c:	00000014 	andeq	r0, r0, r4, lsl r0
 410:	000003fc 	strdeq	r0, [r0], -ip
 414:	00009180 	andeq	r9, r0, r0, lsl #3
 418:	0000002c 	andeq	r0, r0, ip, lsr #32
 41c:	84080e42 	strhi	r0, [r8], #-3650	; 0xfffff1be
 420:	00018e02 	andeq	r8, r1, r2, lsl #28
 424:	0000000c 	andeq	r0, r0, ip
 428:	ffffffff 			; <UNDEFINED> instruction: 0xffffffff
 42c:	7c020001 	stcvc	0, cr0, [r2], {1}
 430:	000d0c0e 	andeq	r0, sp, lr, lsl #24
 434:	0000000c 	andeq	r0, r0, ip
 438:	00000424 	andeq	r0, r0, r4, lsr #8
 43c:	000091ac 	andeq	r9, r0, ip, lsr #3
 440:	00000018 	andeq	r0, r0, r8, lsl r0
 444:	0000000c 	andeq	r0, r0, ip
 448:	00000424 	andeq	r0, r0, r4, lsr #8
 44c:	000091c4 	andeq	r9, r0, r4, asr #3
 450:	00000014 	andeq	r0, r0, r4, lsl r0
 454:	00000014 	andeq	r0, r0, r4, lsl r0
 458:	00000424 	andeq	r0, r0, r4, lsr #8
 45c:	000091d8 	ldrdeq	r9, [r0], -r8
 460:	0000004c 	andeq	r0, r0, ip, asr #32
 464:	84080e42 	strhi	r0, [r8], #-3650	; 0xfffff1be
 468:	00018e02 	andeq	r8, r1, r2, lsl #28
 46c:	0000000c 	andeq	r0, r0, ip
 470:	ffffffff 			; <UNDEFINED> instruction: 0xffffffff
 474:	7c020001 	stcvc	0, cr0, [r2], {1}
 478:	000d0c0e 	andeq	r0, sp, lr, lsl #24
 47c:	0000000c 	andeq	r0, r0, ip
 480:	0000046c 	andeq	r0, r0, ip, ror #8
 484:	00009224 	andeq	r9, r0, r4, lsr #4
 488:	00000018 	andeq	r0, r0, r8, lsl r0
 48c:	00000014 	andeq	r0, r0, r4, lsl r0
 490:	0000046c 	andeq	r0, r0, ip, ror #8
 494:	0000923c 	andeq	r9, r0, ip, lsr r2
 498:	00000014 	andeq	r0, r0, r4, lsl r0
 49c:	84080e42 	strhi	r0, [r8], #-3650	; 0xfffff1be
 4a0:	00018e02 	andeq	r8, r1, r2, lsl #28
 4a4:	00000014 	andeq	r0, r0, r4, lsl r0
 4a8:	0000046c 	andeq	r0, r0, ip, ror #8
 4ac:	00009250 	andeq	r9, r0, r0, asr r2
 4b0:	0000000c 	andeq	r0, r0, ip
 4b4:	84080e42 	strhi	r0, [r8], #-3650	; 0xfffff1be
 4b8:	00018e02 	andeq	r8, r1, r2, lsl #28
 4bc:	00000018 	andeq	r0, r0, r8, lsl r0
 4c0:	0000046c 	andeq	r0, r0, ip, ror #8
 4c4:	0000925c 	andeq	r9, r0, ip, asr r2
 4c8:	00000024 	andeq	r0, r0, r4, lsr #32
 4cc:	84100e42 	ldrhi	r0, [r0], #-3650	; 0xfffff1be
 4d0:	86038504 	strhi	r8, [r3], -r4, lsl #10
 4d4:	00018e02 	andeq	r8, r1, r2, lsl #28
 4d8:	00000014 	andeq	r0, r0, r4, lsl r0
 4dc:	0000046c 	andeq	r0, r0, ip, ror #8
 4e0:	00009280 	andeq	r9, r0, r0, lsl #5
 4e4:	00000018 	andeq	r0, r0, r8, lsl r0
 4e8:	84080e42 	strhi	r0, [r8], #-3650	; 0xfffff1be
 4ec:	00018e02 	andeq	r8, r1, r2, lsl #28
 4f0:	00000014 	andeq	r0, r0, r4, lsl r0
 4f4:	0000046c 	andeq	r0, r0, ip, ror #8
 4f8:	00009298 	muleq	r0, r8, r2
 4fc:	00000018 	andeq	r0, r0, r8, lsl r0
 500:	84080e42 	strhi	r0, [r8], #-3650	; 0xfffff1be
 504:	00018e02 	andeq	r8, r1, r2, lsl #28
 508:	0000000c 	andeq	r0, r0, ip
 50c:	ffffffff 			; <UNDEFINED> instruction: 0xffffffff
 510:	7c020001 	stcvc	0, cr0, [r2], {1}
 514:	000d0c0e 	andeq	r0, sp, lr, lsl #24
 518:	00000018 	andeq	r0, r0, r8, lsl r0
 51c:	00000508 	andeq	r0, r0, r8, lsl #10
 520:	000092fc 	strdeq	r9, [r0], -ip
 524:	00000020 	andeq	r0, r0, r0, lsr #32
 528:	84100e42 	ldrhi	r0, [r0], #-3650	; 0xfffff1be
 52c:	86038504 	strhi	r8, [r3], -r4, lsl #10
 530:	00018e02 	andeq	r8, r1, r2, lsl #28
 534:	00000014 	andeq	r0, r0, r4, lsl r0
 538:	00000508 	andeq	r0, r0, r8, lsl #10
 53c:	0000931c 	andeq	r9, r0, ip, lsl r3
 540:	000000b0 	strheq	r0, [r0], -r0	; <UNPREDICTABLE>
 544:	84080e42 	strhi	r0, [r8], #-3650	; 0xfffff1be
 548:	00018e02 	andeq	r8, r1, r2, lsl #28
 54c:	00000014 	andeq	r0, r0, r4, lsl r0
 550:	00000508 	andeq	r0, r0, r8, lsl #10
 554:	000093cc 	andeq	r9, r0, ip, asr #7
 558:	00000018 	andeq	r0, r0, r8, lsl r0
 55c:	84080e42 	strhi	r0, [r8], #-3650	; 0xfffff1be
 560:	00018e02 	andeq	r8, r1, r2, lsl #28
 564:	00000014 	andeq	r0, r0, r4, lsl r0
 568:	00000508 	andeq	r0, r0, r8, lsl #10
 56c:	000093e4 	andeq	r9, r0, r4, ror #7
 570:	00000020 	andeq	r0, r0, r0, lsr #32
 574:	84080e42 	strhi	r0, [r8], #-3650	; 0xfffff1be
 578:	00018e02 	andeq	r8, r1, r2, lsl #28
 57c:	00000014 	andeq	r0, r0, r4, lsl r0
 580:	00000508 	andeq	r0, r0, r8, lsl #10
 584:	00009404 	andeq	r9, r0, r4, lsl #8
 588:	00000030 	andeq	r0, r0, r0, lsr r0
 58c:	84080e42 	strhi	r0, [r8], #-3650	; 0xfffff1be
 590:	00018e02 	andeq	r8, r1, r2, lsl #28
 594:	00000014 	andeq	r0, r0, r4, lsl r0
 598:	00000508 	andeq	r0, r0, r8, lsl #10
 59c:	00009434 	andeq	r9, r0, r4, lsr r4
 5a0:	00000030 	andeq	r0, r0, r0, lsr r0
 5a4:	84080e42 	strhi	r0, [r8], #-3650	; 0xfffff1be
 5a8:	00018e02 	andeq	r8, r1, r2, lsl #28
 5ac:	00000014 	andeq	r0, r0, r4, lsl r0
 5b0:	00000508 	andeq	r0, r0, r8, lsl #10
 5b4:	00009464 	andeq	r9, r0, r4, ror #8
 5b8:	00000010 	andeq	r0, r0, r0, lsl r0
 5bc:	84080e42 	strhi	r0, [r8], #-3650	; 0xfffff1be
 5c0:	00018e02 	andeq	r8, r1, r2, lsl #28
 5c4:	0000000c 	andeq	r0, r0, ip
 5c8:	ffffffff 			; <UNDEFINED> instruction: 0xffffffff
 5cc:	7c020001 	stcvc	0, cr0, [r2], {1}
 5d0:	000d0c0e 	andeq	r0, sp, lr, lsl #24
 5d4:	00000018 	andeq	r0, r0, r8, lsl r0
 5d8:	000005c4 	andeq	r0, r0, r4, asr #11
 5dc:	00009474 	andeq	r9, r0, r4, ror r4
 5e0:	00000068 	andeq	r0, r0, r8, rrx
 5e4:	84100e4a 	ldrhi	r0, [r0], #-3658	; 0xfffff1b6
 5e8:	86038504 	strhi	r8, [r3], -r4, lsl #10
 5ec:	00018e02 	andeq	r8, r1, r2, lsl #28
 5f0:	00000014 	andeq	r0, r0, r4, lsl r0
 5f4:	000005c4 	andeq	r0, r0, r4, asr #11
 5f8:	000094dc 	ldrdeq	r9, [r0], -ip
 5fc:	00000010 	andeq	r0, r0, r0, lsl r0
 600:	84080e42 	strhi	r0, [r8], #-3650	; 0xfffff1be
 604:	00018e02 	andeq	r8, r1, r2, lsl #28
 608:	00000014 	andeq	r0, r0, r4, lsl r0
 60c:	000005c4 	andeq	r0, r0, r4, asr #11
 610:	000094ec 	andeq	r9, r0, ip, ror #9
 614:	00000024 	andeq	r0, r0, r4, lsr #32
 618:	84080e46 	strhi	r0, [r8], #-3654	; 0xfffff1ba
 61c:	00018e02 	andeq	r8, r1, r2, lsl #28
 620:	00000014 	andeq	r0, r0, r4, lsl r0
 624:	000005c4 	andeq	r0, r0, r4, asr #11
 628:	00009510 	andeq	r9, r0, r0, lsl r5
 62c:	00000024 	andeq	r0, r0, r4, lsr #32
 630:	84080e46 	strhi	r0, [r8], #-3654	; 0xfffff1ba
 634:	00018e02 	andeq	r8, r1, r2, lsl #28
 638:	00000014 	andeq	r0, r0, r4, lsl r0
 63c:	000005c4 	andeq	r0, r0, r4, asr #11
 640:	00009534 	andeq	r9, r0, r4, lsr r5
 644:	00000010 	andeq	r0, r0, r0, lsl r0
 648:	84080e42 	strhi	r0, [r8], #-3650	; 0xfffff1be
 64c:	00018e02 	andeq	r8, r1, r2, lsl #28
 650:	00000014 	andeq	r0, r0, r4, lsl r0
 654:	000005c4 	andeq	r0, r0, r4, asr #11
 658:	00009544 	andeq	r9, r0, r4, asr #10
 65c:	0000001c 	andeq	r0, r0, ip, lsl r0
 660:	84080e42 	strhi	r0, [r8], #-3650	; 0xfffff1be
 664:	00018e02 	andeq	r8, r1, r2, lsl #28
 668:	00000018 	andeq	r0, r0, r8, lsl r0
 66c:	000005c4 	andeq	r0, r0, r4, asr #11
 670:	00009560 	andeq	r9, r0, r0, ror #10
 674:	00000034 	andeq	r0, r0, r4, lsr r0
 678:	84080e46 	strhi	r0, [r8], #-3654	; 0xfffff1ba
 67c:	4e018e02 	cdpmi	14, 0, cr8, cr1, cr2, {0}
 680:	cec4000e 	cdpgt	0, 12, cr0, cr4, cr14, {0}
 684:	0000000c 	andeq	r0, r0, ip
 688:	ffffffff 			; <UNDEFINED> instruction: 0xffffffff
 68c:	7c020001 	stcvc	0, cr0, [r2], {1}
 690:	000d0c0e 	andeq	r0, sp, lr, lsl #24
 694:	0000000c 	andeq	r0, r0, ip
 698:	00000684 	andeq	r0, r0, r4, lsl #13
 69c:	00009594 	muleq	r0, r4, r5
 6a0:	00000010 	andeq	r0, r0, r0, lsl r0
 6a4:	0000000c 	andeq	r0, r0, ip
 6a8:	00000684 	andeq	r0, r0, r4, lsl #13
 6ac:	000095a4 	andeq	r9, r0, r4, lsr #11
 6b0:	0000000c 	andeq	r0, r0, ip
 6b4:	00000014 	andeq	r0, r0, r4, lsl r0
 6b8:	00000684 	andeq	r0, r0, r4, lsl #13
 6bc:	000095b0 			; <UNDEFINED> instruction: 0x000095b0
 6c0:	00000050 	andeq	r0, r0, r0, asr r0
 6c4:	84080e52 	strhi	r0, [r8], #-3666	; 0xfffff1ae
 6c8:	00018e02 	andeq	r8, r1, r2, lsl #28
 6cc:	00000014 	andeq	r0, r0, r4, lsl r0
 6d0:	00000684 	andeq	r0, r0, r4, lsl #13
 6d4:	00009600 	andeq	r9, r0, r0, lsl #12
 6d8:	00000064 	andeq	r0, r0, r4, rrx
 6dc:	84080e42 	strhi	r0, [r8], #-3650	; 0xfffff1be
 6e0:	00018e02 	andeq	r8, r1, r2, lsl #28
 6e4:	0000000c 	andeq	r0, r0, ip
 6e8:	00000684 	andeq	r0, r0, r4, lsl #13
 6ec:	00009664 	andeq	r9, r0, r4, ror #12
 6f0:	00000004 	andeq	r0, r0, r4
 6f4:	00000014 	andeq	r0, r0, r4, lsl r0
 6f8:	00000684 	andeq	r0, r0, r4, lsl #13
 6fc:	00009668 	andeq	r9, r0, r8, ror #12
 700:	0000000c 	andeq	r0, r0, ip
 704:	84080e42 	strhi	r0, [r8], #-3650	; 0xfffff1be
 708:	00018e02 	andeq	r8, r1, r2, lsl #28
 70c:	00000014 	andeq	r0, r0, r4, lsl r0
 710:	00000684 	andeq	r0, r0, r4, lsl #13
 714:	00009674 	andeq	r9, r0, r4, ror r6
 718:	0000008c 	andeq	r0, r0, ip, lsl #1
 71c:	84080e42 	strhi	r0, [r8], #-3650	; 0xfffff1be
 720:	00018e02 	andeq	r8, r1, r2, lsl #28
 724:	0000000c 	andeq	r0, r0, ip
 728:	00000684 	andeq	r0, r0, r4, lsl #13
 72c:	00009700 	andeq	r9, r0, r0, lsl #14
 730:	00000004 	andeq	r0, r0, r4
 734:	0000000c 	andeq	r0, r0, ip
 738:	00000684 	andeq	r0, r0, r4, lsl #13
 73c:	00009704 	andeq	r9, r0, r4, lsl #14
 740:	00000014 	andeq	r0, r0, r4, lsl r0
 744:	0000000c 	andeq	r0, r0, ip
 748:	00000684 	andeq	r0, r0, r4, lsl #13
 74c:	00009718 	andeq	r9, r0, r8, lsl r7
 750:	00000010 	andeq	r0, r0, r0, lsl r0

Disassembly of section .debug_ranges:

00000000 <.debug_ranges>:
   0:	000000a0 	andeq	r0, r0, r0, lsr #1
   4:	000000e8 	andeq	r0, r0, r8, ror #1
   8:	00000100 	andeq	r0, r0, r0, lsl #2
   c:	0000012c 	andeq	r0, r0, ip, lsr #2
	...
  18:	000001d4 	ldrdeq	r0, [r0], -r4
  1c:	0000021c 	andeq	r0, r0, ip, lsl r2
  20:	00000220 	andeq	r0, r0, r0, lsr #4
  24:	00000250 	andeq	r0, r0, r0, asr r2
	...
  30:	000002d0 	ldrdeq	r0, [r0], -r0	; <UNPREDICTABLE>
  34:	00000318 	andeq	r0, r0, r8, lsl r3
  38:	0000031c 	andeq	r0, r0, ip, lsl r3
  3c:	0000034c 	andeq	r0, r0, ip, asr #6
	...
  48:	0000074c 	andeq	r0, r0, ip, asr #14
  4c:	00000750 	andeq	r0, r0, r0, asr r7
  50:	00000758 	andeq	r0, r0, r8, asr r7
  54:	00000764 	andeq	r0, r0, r4, ror #14
  58:	0000078c 	andeq	r0, r0, ip, lsl #15
  5c:	0000083c 	andeq	r0, r0, ip, lsr r8
	...
  68:	000091ac 	andeq	r9, r0, ip, lsr #3
  6c:	00009224 	andeq	r9, r0, r4, lsr #4
	...
