
part1-test3.elf:     file format elf32-littlearm


Disassembly of section .text:

00008000 <_start>:
    8000:	e3a0d302 	mov	sp, #134217728	; 0x8000000
    8004:	e3a0b000 	mov	fp, #0
    8008:	eb000413 	bl	905c <_cstart>
    800c:	eb000428 	bl	90b4 <rpi_reboot>

00008010 <notmain>:
    8010:	e92d4070 	push	{r4, r5, r6, lr}
    8014:	e24dd008 	sub	sp, sp, #8
    8018:	e59f00a8 	ldr	r0, [pc, #168]	; 80c8 <notmain+0xb8>
    801c:	eb00028a 	bl	8a4c <printk>
    8020:	e3a00601 	mov	r0, #1048576	; 0x100000
    8024:	eb000518 	bl	948c <kmalloc_init_set_start>
    8028:	e3a00601 	mov	r0, #1048576	; 0x100000
    802c:	eb00052a 	bl	94dc <kmalloc>
    8030:	e3a01601 	mov	r1, #1048576	; 0x100000
    8034:	eb00011d 	bl	84b0 <ck_init>
    8038:	e59f608c 	ldr	r6, [pc, #140]	; 80cc <notmain+0xbc>
    803c:	e59f508c 	ldr	r5, [pc, #140]	; 80d0 <notmain+0xc0>
    8040:	e3a0300d 	mov	r3, #13
    8044:	e1a02006 	mov	r2, r6
    8048:	e1a01005 	mov	r1, r5
    804c:	e3a00004 	mov	r0, #4
    8050:	eb000161 	bl	85dc <ckalloc>
    8054:	e1a04000 	mov	r4, r0
    8058:	e3a02004 	mov	r2, #4
    805c:	e3a01000 	mov	r1, #0
    8060:	eb000273 	bl	8a34 <memset>
    8064:	e3a0300f 	mov	r3, #15
    8068:	e1a02006 	mov	r2, r6
    806c:	e1a01005 	mov	r1, r5
    8070:	e1a00004 	mov	r0, r4
    8074:	eb00012a 	bl	8524 <ckfree>
    8078:	e3a03001 	mov	r3, #1
    807c:	e5c43000 	strb	r3, [r4]
    8080:	eb0001dc 	bl	87f8 <ck_heap_errors>
    8084:	e3500001 	cmp	r0, #1
    8088:	1a000005 	bne	80a4 <notmain+0x94>
    808c:	e59f0040 	ldr	r0, [pc, #64]	; 80d4 <notmain+0xc4>
    8090:	eb00026d 	bl	8a4c <printk>
    8094:	e59f003c 	ldr	r0, [pc, #60]	; 80d8 <notmain+0xc8>
    8098:	eb00026b 	bl	8a4c <printk>
    809c:	e28dd008 	add	sp, sp, #8
    80a0:	e8bd8070 	pop	{r4, r5, r6, pc}
    80a4:	e1a04000 	mov	r4, r0
    80a8:	eb000282 	bl	8ab8 <rpi_reset_putc>
    80ac:	e58d4000 	str	r4, [sp]
    80b0:	e3a03014 	mov	r3, #20
    80b4:	e1a02006 	mov	r2, r6
    80b8:	e1a01005 	mov	r1, r5
    80bc:	e59f0018 	ldr	r0, [pc, #24]	; 80dc <notmain+0xcc>
    80c0:	eb000261 	bl	8a4c <printk>
    80c4:	eb0003da 	bl	9034 <clean_reboot>
    80c8:	0000962c 	andeq	r9, r0, ip, lsr #12
    80cc:	000096b8 			; <UNDEFINED> instruction: 0x000096b8
    80d0:	00009644 	andeq	r9, r0, r4, asr #12
    80d4:	00009690 	muleq	r0, r0, r6
    80d8:	00009698 	muleq	r0, r8, r6
    80dc:	00009654 	andeq	r9, r0, r4, asr r6

000080e0 <b_rz1_ptr>:
    80e0:	e2800038 	add	r0, r0, #56	; 0x38
    80e4:	e12fff1e 	bx	lr

000080e8 <b_alloc_ptr>:
    80e8:	e92d4010 	push	{r4, lr}
    80ec:	ebfffffb 	bl	80e0 <b_rz1_ptr>
    80f0:	e2800080 	add	r0, r0, #128	; 0x80
    80f4:	e8bd8010 	pop	{r4, pc}

000080f8 <b_rz2_ptr>:
    80f8:	e92d4010 	push	{r4, lr}
    80fc:	e1a04000 	mov	r4, r0
    8100:	ebfffff8 	bl	80e8 <b_alloc_ptr>
    8104:	e5943000 	ldr	r3, [r4]
    8108:	e0800003 	add	r0, r0, r3
    810c:	e8bd8010 	pop	{r4, pc}

00008110 <b_rz2_nbytes>:
    8110:	e5900004 	ldr	r0, [r0, #4]
    8114:	e2800080 	add	r0, r0, #128	; 0x80
    8118:	e12fff1e 	bx	lr

0000811c <b_addr_to_hdr>:
    811c:	e24000b8 	sub	r0, r0, #184	; 0xb8
    8120:	e12fff1e 	bx	lr

00008124 <check_free_write>:
    8124:	e92d41f0 	push	{r4, r5, r6, r7, r8, lr}
    8128:	e1a05000 	mov	r5, r0
    812c:	e1a06002 	mov	r6, r2
    8130:	e3a04000 	mov	r4, #0
    8134:	e1540001 	cmp	r4, r1
    8138:	2a000033 	bcs	820c <check_free_write+0xe8>
    813c:	e7d53004 	ldrb	r3, [r5, r4]
    8140:	e35300fe 	cmp	r3, #254	; 0xfe
    8144:	02844001 	addeq	r4, r4, #1
    8148:	0afffff9 	beq	8134 <check_free_write+0x10>
    814c:	e1a00006 	mov	r0, r6
    8150:	ebffffe4 	bl	80e8 <b_alloc_ptr>
    8154:	e0450000 	sub	r0, r5, r0
    8158:	e0804004 	add	r4, r0, r4
    815c:	e59f70b0 	ldr	r7, [pc, #176]	; 8214 <check_free_write+0xf0>
    8160:	e1a00007 	mov	r0, r7
    8164:	eb000238 	bl	8a4c <printk>
    8168:	e59f00a8 	ldr	r0, [pc, #168]	; 8218 <check_free_write+0xf4>
    816c:	eb000236 	bl	8a4c <printk>
    8170:	e1a02004 	mov	r2, r4
    8174:	e1a01005 	mov	r1, r5
    8178:	e59f009c 	ldr	r0, [pc, #156]	; 821c <check_free_write+0xf8>
    817c:	eb000232 	bl	8a4c <printk>
    8180:	e1a00007 	mov	r0, r7
    8184:	eb000230 	bl	8a4c <printk>
    8188:	e5961000 	ldr	r1, [r6]
    818c:	e59f008c 	ldr	r0, [pc, #140]	; 8220 <check_free_write+0xfc>
    8190:	eb00022d 	bl	8a4c <printk>
    8194:	e5963010 	ldr	r3, [r6, #16]
    8198:	e3530000 	cmp	r3, #0
    819c:	0a000006 	beq	81bc <check_free_write+0x98>
    81a0:	e1a00007 	mov	r0, r7
    81a4:	eb000228 	bl	8a4c <printk>
    81a8:	e5963018 	ldr	r3, [r6, #24]
    81ac:	e5962014 	ldr	r2, [r6, #20]
    81b0:	e5961010 	ldr	r1, [r6, #16]
    81b4:	e59f0068 	ldr	r0, [pc, #104]	; 8224 <check_free_write+0x100>
    81b8:	eb000223 	bl	8a4c <printk>
    81bc:	e5963008 	ldr	r3, [r6, #8]
    81c0:	e353000c 	cmp	r3, #12
    81c4:	0a000005 	beq	81e0 <check_free_write+0xbc>
    81c8:	e59f0044 	ldr	r0, [pc, #68]	; 8214 <check_free_write+0xf0>
    81cc:	eb00021e 	bl	8a4c <printk>
    81d0:	e59f0050 	ldr	r0, [pc, #80]	; 8228 <check_free_write+0x104>
    81d4:	eb00021c 	bl	8a4c <printk>
    81d8:	e3a00000 	mov	r0, #0
    81dc:	e8bd81f0 	pop	{r4, r5, r6, r7, r8, pc}
    81e0:	e596301c 	ldr	r3, [r6, #28]
    81e4:	e3530000 	cmp	r3, #0
    81e8:	0afffff6 	beq	81c8 <check_free_write+0xa4>
    81ec:	e59f0020 	ldr	r0, [pc, #32]	; 8214 <check_free_write+0xf0>
    81f0:	eb000215 	bl	8a4c <printk>
    81f4:	e5963024 	ldr	r3, [r6, #36]	; 0x24
    81f8:	e5962020 	ldr	r2, [r6, #32]
    81fc:	e596101c 	ldr	r1, [r6, #28]
    8200:	e59f0024 	ldr	r0, [pc, #36]	; 822c <check_free_write+0x108>
    8204:	eb000210 	bl	8a4c <printk>
    8208:	eaffffee 	b	81c8 <check_free_write+0xa4>
    820c:	e3a00001 	mov	r0, #1
    8210:	e8bd81f0 	pop	{r4, r5, r6, r7, r8, pc}
    8214:	00009690 	muleq	r0, r0, r6
    8218:	000096c0 	andeq	r9, r0, r0, asr #13
    821c:	000096c8 	andeq	r9, r0, r8, asr #13
    8220:	000096ec 	andeq	r9, r0, ip, ror #13
    8224:	000096f8 	strdeq	r9, [r0], -r8
    8228:	00009734 	andeq	r9, r0, r4, lsr r7
    822c:	00009718 	andeq	r9, r0, r8, lsl r7

00008230 <mark_mem>:
    8230:	e92d4010 	push	{r4, lr}
    8234:	e1a02001 	mov	r2, r1
    8238:	e3a010fe 	mov	r1, #254	; 0xfe
    823c:	eb0001fc 	bl	8a34 <memset>
    8240:	e8bd8010 	pop	{r4, pc}

00008244 <hdr_cksum>:
    8244:	e92d4070 	push	{r4, r5, r6, lr}
    8248:	e1a04000 	mov	r4, r0
    824c:	e590500c 	ldr	r5, [r0, #12]
    8250:	e3a03000 	mov	r3, #0
    8254:	e580300c 	str	r3, [r0, #12]
    8258:	e3a01038 	mov	r1, #56	; 0x38
    825c:	eb0001b9 	bl	8948 <fast_hash>
    8260:	e584500c 	str	r5, [r4, #12]
    8264:	e8bd8070 	pop	{r4, r5, r6, pc}

00008268 <check_hdr>:
    8268:	e92d4070 	push	{r4, r5, r6, lr}
    826c:	e1a04000 	mov	r4, r0
    8270:	e5903008 	ldr	r3, [r0, #8]
    8274:	e243300b 	sub	r3, r3, #11
    8278:	e3530001 	cmp	r3, #1
    827c:	8a000003 	bhi	8290 <check_hdr+0x28>
    8280:	e590500c 	ldr	r5, [r0, #12]
    8284:	ebffffee 	bl	8244 <hdr_cksum>
    8288:	e1550000 	cmp	r5, r0
    828c:	0a000027 	beq	8330 <check_hdr+0xc8>
    8290:	e59f50a0 	ldr	r5, [pc, #160]	; 8338 <check_hdr+0xd0>
    8294:	e1a00005 	mov	r0, r5
    8298:	eb0001eb 	bl	8a4c <printk>
    829c:	e59f0098 	ldr	r0, [pc, #152]	; 833c <check_hdr+0xd4>
    82a0:	eb0001e9 	bl	8a4c <printk>
    82a4:	e3a02000 	mov	r2, #0
    82a8:	e1a01004 	mov	r1, r4
    82ac:	e59f008c 	ldr	r0, [pc, #140]	; 8340 <check_hdr+0xd8>
    82b0:	eb0001e5 	bl	8a4c <printk>
    82b4:	e1a00005 	mov	r0, r5
    82b8:	eb0001e3 	bl	8a4c <printk>
    82bc:	e5941000 	ldr	r1, [r4]
    82c0:	e59f007c 	ldr	r0, [pc, #124]	; 8344 <check_hdr+0xdc>
    82c4:	eb0001e0 	bl	8a4c <printk>
    82c8:	e5943010 	ldr	r3, [r4, #16]
    82cc:	e3530000 	cmp	r3, #0
    82d0:	0a000006 	beq	82f0 <check_hdr+0x88>
    82d4:	e1a00005 	mov	r0, r5
    82d8:	eb0001db 	bl	8a4c <printk>
    82dc:	e5943018 	ldr	r3, [r4, #24]
    82e0:	e5942014 	ldr	r2, [r4, #20]
    82e4:	e5941010 	ldr	r1, [r4, #16]
    82e8:	e59f0058 	ldr	r0, [pc, #88]	; 8348 <check_hdr+0xe0>
    82ec:	eb0001d6 	bl	8a4c <printk>
    82f0:	e5943008 	ldr	r3, [r4, #8]
    82f4:	e353000c 	cmp	r3, #12
    82f8:	0a000001 	beq	8304 <check_hdr+0x9c>
    82fc:	e3a00000 	mov	r0, #0
    8300:	e8bd8070 	pop	{r4, r5, r6, pc}
    8304:	e594301c 	ldr	r3, [r4, #28]
    8308:	e3530000 	cmp	r3, #0
    830c:	0afffffa 	beq	82fc <check_hdr+0x94>
    8310:	e59f0020 	ldr	r0, [pc, #32]	; 8338 <check_hdr+0xd0>
    8314:	eb0001cc 	bl	8a4c <printk>
    8318:	e5943024 	ldr	r3, [r4, #36]	; 0x24
    831c:	e5942020 	ldr	r2, [r4, #32]
    8320:	e594101c 	ldr	r1, [r4, #28]
    8324:	e59f0020 	ldr	r0, [pc, #32]	; 834c <check_hdr+0xe4>
    8328:	eb0001c7 	bl	8a4c <printk>
    832c:	eafffff2 	b	82fc <check_hdr+0x94>
    8330:	e3a00001 	mov	r0, #1
    8334:	e8bd8070 	pop	{r4, r5, r6, pc}
    8338:	00009690 	muleq	r0, r0, r6
    833c:	000096c0 	andeq	r9, r0, r0, asr #13
    8340:	000096c8 	andeq	r9, r0, r8, asr #13
    8344:	000096ec 	andeq	r9, r0, ip, ror #13
    8348:	000096f8 	strdeq	r9, [r0], -r8
    834c:	00009718 	andeq	r9, r0, r8, lsl r7

00008350 <check_mem>:
    8350:	e92d41f0 	push	{r4, r5, r6, r7, r8, lr}
    8354:	e1a05000 	mov	r5, r0
    8358:	e1a06002 	mov	r6, r2
    835c:	e3a04000 	mov	r4, #0
    8360:	e1540001 	cmp	r4, r1
    8364:	2a000030 	bcs	842c <check_mem+0xdc>
    8368:	e7d53004 	ldrb	r3, [r5, r4]
    836c:	e35300fe 	cmp	r3, #254	; 0xfe
    8370:	02844001 	addeq	r4, r4, #1
    8374:	0afffff9 	beq	8360 <check_mem+0x10>
    8378:	e1a00006 	mov	r0, r6
    837c:	ebffff59 	bl	80e8 <b_alloc_ptr>
    8380:	e0450000 	sub	r0, r5, r0
    8384:	e0804004 	add	r4, r0, r4
    8388:	e59f70a4 	ldr	r7, [pc, #164]	; 8434 <check_mem+0xe4>
    838c:	e1a00007 	mov	r0, r7
    8390:	eb0001ad 	bl	8a4c <printk>
    8394:	e59f009c 	ldr	r0, [pc, #156]	; 8438 <check_mem+0xe8>
    8398:	eb0001ab 	bl	8a4c <printk>
    839c:	e5961000 	ldr	r1, [r6]
    83a0:	e1a02004 	mov	r2, r4
    83a4:	e0451001 	sub	r1, r5, r1
    83a8:	e59f008c 	ldr	r0, [pc, #140]	; 843c <check_mem+0xec>
    83ac:	eb0001a6 	bl	8a4c <printk>
    83b0:	e1a00007 	mov	r0, r7
    83b4:	eb0001a4 	bl	8a4c <printk>
    83b8:	e5961000 	ldr	r1, [r6]
    83bc:	e59f007c 	ldr	r0, [pc, #124]	; 8440 <check_mem+0xf0>
    83c0:	eb0001a1 	bl	8a4c <printk>
    83c4:	e5963010 	ldr	r3, [r6, #16]
    83c8:	e3530000 	cmp	r3, #0
    83cc:	0a000006 	beq	83ec <check_mem+0x9c>
    83d0:	e1a00007 	mov	r0, r7
    83d4:	eb00019c 	bl	8a4c <printk>
    83d8:	e5963018 	ldr	r3, [r6, #24]
    83dc:	e5962014 	ldr	r2, [r6, #20]
    83e0:	e5961010 	ldr	r1, [r6, #16]
    83e4:	e59f0058 	ldr	r0, [pc, #88]	; 8444 <check_mem+0xf4>
    83e8:	eb000197 	bl	8a4c <printk>
    83ec:	e5963008 	ldr	r3, [r6, #8]
    83f0:	e353000c 	cmp	r3, #12
    83f4:	0a000001 	beq	8400 <check_mem+0xb0>
    83f8:	e3a00000 	mov	r0, #0
    83fc:	e8bd81f0 	pop	{r4, r5, r6, r7, r8, pc}
    8400:	e596301c 	ldr	r3, [r6, #28]
    8404:	e3530000 	cmp	r3, #0
    8408:	0afffffa 	beq	83f8 <check_mem+0xa8>
    840c:	e59f0020 	ldr	r0, [pc, #32]	; 8434 <check_mem+0xe4>
    8410:	eb00018d 	bl	8a4c <printk>
    8414:	e5963024 	ldr	r3, [r6, #36]	; 0x24
    8418:	e5962020 	ldr	r2, [r6, #32]
    841c:	e596101c 	ldr	r1, [r6, #28]
    8420:	e59f0020 	ldr	r0, [pc, #32]	; 8448 <check_mem+0xf8>
    8424:	eb000188 	bl	8a4c <printk>
    8428:	eafffff2 	b	83f8 <check_mem+0xa8>
    842c:	e3a00001 	mov	r0, #1
    8430:	e8bd81f0 	pop	{r4, r5, r6, r7, r8, pc}
    8434:	00009690 	muleq	r0, r0, r6
    8438:	000096c0 	andeq	r9, r0, r0, asr #13
    843c:	000096c8 	andeq	r9, r0, r8, asr #13
    8440:	000096ec 	andeq	r9, r0, ip, ror #13
    8444:	000096f8 	strdeq	r9, [r0], -r8
    8448:	00009718 	andeq	r9, r0, r8, lsl r7

0000844c <check_block>:
    844c:	e92d4070 	push	{r4, r5, r6, lr}
    8450:	e1a04000 	mov	r4, r0
    8454:	ebffff83 	bl	8268 <check_hdr>
    8458:	e3500000 	cmp	r0, #0
    845c:	08bd8070 	popeq	{r4, r5, r6, pc}
    8460:	e1a00004 	mov	r0, r4
    8464:	ebffff1d 	bl	80e0 <b_rz1_ptr>
    8468:	e1a02004 	mov	r2, r4
    846c:	e3a01080 	mov	r1, #128	; 0x80
    8470:	ebffffb6 	bl	8350 <check_mem>
    8474:	e3500000 	cmp	r0, #0
    8478:	08bd8070 	popeq	{r4, r5, r6, pc}
    847c:	e1a00004 	mov	r0, r4
    8480:	ebffff1c 	bl	80f8 <b_rz2_ptr>
    8484:	e1a05000 	mov	r5, r0
    8488:	e1a00004 	mov	r0, r4
    848c:	ebffff1f 	bl	8110 <b_rz2_nbytes>
    8490:	e1a01000 	mov	r1, r0
    8494:	e1a02004 	mov	r2, r4
    8498:	e1a00005 	mov	r0, r5
    849c:	ebffffab 	bl	8350 <check_mem>
    84a0:	e3500000 	cmp	r0, #0
    84a4:	08bd8070 	popeq	{r4, r5, r6, pc}
    84a8:	e3a00001 	mov	r0, #1
    84ac:	e8bd8070 	pop	{r4, r5, r6, pc}

000084b0 <ck_init>:
    84b0:	e92d4070 	push	{r4, r5, r6, lr}
    84b4:	e59f3054 	ldr	r3, [pc, #84]	; 8510 <ck_init+0x60>
    84b8:	e5933000 	ldr	r3, [r3]
    84bc:	e3130007 	tst	r3, #7
    84c0:	1a00000b 	bne	84f4 <ck_init+0x44>
    84c4:	e1a04000 	mov	r4, r0
    84c8:	e1a05001 	mov	r5, r1
    84cc:	e3a02080 	mov	r2, #128	; 0x80
    84d0:	e3a01038 	mov	r1, #56	; 0x38
    84d4:	e59f0038 	ldr	r0, [pc, #56]	; 8514 <ck_init+0x64>
    84d8:	eb00015b 	bl	8a4c <printk>
    84dc:	e59f302c 	ldr	r3, [pc, #44]	; 8510 <ck_init+0x60>
    84e0:	e5834000 	str	r4, [r3]
    84e4:	e5834004 	str	r4, [r3, #4]
    84e8:	e0844005 	add	r4, r4, r5
    84ec:	e5834008 	str	r4, [r3, #8]
    84f0:	e8bd8070 	pop	{r4, r5, r6, pc}
    84f4:	eb00016f 	bl	8ab8 <rpi_reset_putc>
    84f8:	e3a0300a 	mov	r3, #10
    84fc:	e59f2014 	ldr	r2, [pc, #20]	; 8518 <ck_init+0x68>
    8500:	e59f1014 	ldr	r1, [pc, #20]	; 851c <ck_init+0x6c>
    8504:	e59f0014 	ldr	r0, [pc, #20]	; 8520 <ck_init+0x70>
    8508:	eb00014f 	bl	8a4c <printk>
    850c:	eb0002c8 	bl	9034 <clean_reboot>
    8510:	00009bf4 	strdeq	r9, [r0], -r4
    8514:	00009784 	andeq	r9, r0, r4, lsl #15
    8518:	000099ac 	andeq	r9, r0, ip, lsr #19
    851c:	00009750 	andeq	r9, r0, r0, asr r7
    8520:	0000975c 	andeq	r9, r0, ip, asr r7

00008524 <ckfree>:
    8524:	e92d41f0 	push	{r4, r5, r6, r7, r8, lr}
    8528:	e1a05000 	mov	r5, r0
    852c:	e1a07001 	mov	r7, r1
    8530:	e1a06002 	mov	r6, r2
    8534:	e1a08003 	mov	r8, r3
    8538:	ebfffef7 	bl	811c <b_addr_to_hdr>
    853c:	e59fc080 	ldr	ip, [pc, #128]	; 85c4 <ckfree+0xa0>
    8540:	e59cc004 	ldr	ip, [ip, #4]
    8544:	e35c0000 	cmp	ip, #0
    8548:	0a000016 	beq	85a8 <ckfree+0x84>
    854c:	e1a04000 	mov	r4, r0
    8550:	e59f0070 	ldr	r0, [pc, #112]	; 85c8 <ckfree+0xa4>
    8554:	eb00013c 	bl	8a4c <printk>
    8558:	e1a01005 	mov	r1, r5
    855c:	e59f0068 	ldr	r0, [pc, #104]	; 85cc <ckfree+0xa8>
    8560:	eb000139 	bl	8a4c <printk>
    8564:	e1a00004 	mov	r0, r4
    8568:	ebffffb7 	bl	844c <check_block>
    856c:	e3500000 	cmp	r0, #0
    8570:	08bd81f0 	popeq	{r4, r5, r6, r7, r8, pc}
    8574:	e584701c 	str	r7, [r4, #28]
    8578:	e5846020 	str	r6, [r4, #32]
    857c:	e5848024 	str	r8, [r4, #36]	; 0x24
    8580:	e3a0300c 	mov	r3, #12
    8584:	e5843008 	str	r3, [r4, #8]
    8588:	e1a00004 	mov	r0, r4
    858c:	ebfffed5 	bl	80e8 <b_alloc_ptr>
    8590:	e5941000 	ldr	r1, [r4]
    8594:	ebffff25 	bl	8230 <mark_mem>
    8598:	e1a00004 	mov	r0, r4
    859c:	ebffff28 	bl	8244 <hdr_cksum>
    85a0:	e584000c 	str	r0, [r4, #12]
    85a4:	e8bd81f0 	pop	{r4, r5, r6, r7, r8, pc}
    85a8:	eb000142 	bl	8ab8 <rpi_reset_putc>
    85ac:	e3a03074 	mov	r3, #116	; 0x74
    85b0:	e59f2018 	ldr	r2, [pc, #24]	; 85d0 <ckfree+0xac>
    85b4:	e59f1018 	ldr	r1, [pc, #24]	; 85d4 <ckfree+0xb0>
    85b8:	e59f0018 	ldr	r0, [pc, #24]	; 85d8 <ckfree+0xb4>
    85bc:	eb000122 	bl	8a4c <printk>
    85c0:	eb00029b 	bl	9034 <clean_reboot>
    85c4:	00009bf4 	strdeq	r9, [r0], -r4
    85c8:	00009690 	muleq	r0, r0, r6
    85cc:	000097d4 	ldrdeq	r9, [r0], -r4
    85d0:	000099b4 			; <UNDEFINED> instruction: 0x000099b4
    85d4:	00009750 	andeq	r9, r0, r0, asr r7
    85d8:	000097a0 	andeq	r9, r0, r0, lsr #15

000085dc <ckalloc>:
    85dc:	e92d43f0 	push	{r4, r5, r6, r7, r8, r9, lr}
    85e0:	e24dd00c 	sub	sp, sp, #12
    85e4:	e1a06003 	mov	r6, r3
    85e8:	e59f31d4 	ldr	r3, [pc, #468]	; 87c4 <ckalloc+0x1e8>
    85ec:	e5933004 	ldr	r3, [r3, #4]
    85f0:	e3530000 	cmp	r3, #0
    85f4:	0a000042 	beq	8704 <ckalloc+0x128>
    85f8:	e1a05000 	mov	r5, r0
    85fc:	e1a08001 	mov	r8, r1
    8600:	e1a07002 	mov	r7, r2
    8604:	e59f01bc 	ldr	r0, [pc, #444]	; 87c8 <ckalloc+0x1ec>
    8608:	eb00010f 	bl	8a4c <printk>
    860c:	e1a01005 	mov	r1, r5
    8610:	e59f01b4 	ldr	r0, [pc, #436]	; 87cc <ckalloc+0x1f0>
    8614:	eb00010c 	bl	8a4c <printk>
    8618:	e2850007 	add	r0, r5, #7
    861c:	e3c00007 	bic	r0, r0, #7
    8620:	e2809f4e 	add	r9, r0, #312	; 0x138
    8624:	e1550009 	cmp	r5, r9
    8628:	8a00003c 	bhi	8720 <ckalloc+0x144>
    862c:	e59f3190 	ldr	r3, [pc, #400]	; 87c4 <ckalloc+0x1e8>
    8630:	e5934004 	ldr	r4, [r3, #4]
    8634:	e0842009 	add	r2, r4, r9
    8638:	e5933008 	ldr	r3, [r3, #8]
    863c:	e1520003 	cmp	r2, r3
    8640:	2a000043 	bcs	8754 <ckalloc+0x178>
    8644:	e5845000 	str	r5, [r4]
    8648:	e0400005 	sub	r0, r0, r5
    864c:	e5840004 	str	r0, [r4, #4]
    8650:	e3a0300b 	mov	r3, #11
    8654:	e5843008 	str	r3, [r4, #8]
    8658:	e5848010 	str	r8, [r4, #16]
    865c:	e5847014 	str	r7, [r4, #20]
    8660:	e5846018 	str	r6, [r4, #24]
    8664:	e3a03001 	mov	r3, #1
    8668:	e5843028 	str	r3, [r4, #40]	; 0x28
    866c:	e3a03000 	mov	r3, #0
    8670:	e584302c 	str	r3, [r4, #44]	; 0x2c
    8674:	e1a00004 	mov	r0, r4
    8678:	ebfffe98 	bl	80e0 <b_rz1_ptr>
    867c:	e3a01080 	mov	r1, #128	; 0x80
    8680:	ebfffeea 	bl	8230 <mark_mem>
    8684:	e1a00004 	mov	r0, r4
    8688:	ebfffe9a 	bl	80f8 <b_rz2_ptr>
    868c:	e1a06000 	mov	r6, r0
    8690:	e1a00004 	mov	r0, r4
    8694:	ebfffe9d 	bl	8110 <b_rz2_nbytes>
    8698:	e1a01000 	mov	r1, r0
    869c:	e1a00006 	mov	r0, r6
    86a0:	ebfffee2 	bl	8230 <mark_mem>
    86a4:	e1a00004 	mov	r0, r4
    86a8:	ebfffee5 	bl	8244 <hdr_cksum>
    86ac:	e584000c 	str	r0, [r4, #12]
    86b0:	e59f210c 	ldr	r2, [pc, #268]	; 87c4 <ckalloc+0x1e8>
    86b4:	e5923004 	ldr	r3, [r2, #4]
    86b8:	e0833009 	add	r3, r3, r9
    86bc:	e5823004 	str	r3, [r2, #4]
    86c0:	e1a00004 	mov	r0, r4
    86c4:	ebffff60 	bl	844c <check_block>
    86c8:	e3500000 	cmp	r0, #0
    86cc:	0a000035 	beq	87a8 <ckalloc+0x1cc>
    86d0:	e1a00004 	mov	r0, r4
    86d4:	ebfffe83 	bl	80e8 <b_alloc_ptr>
    86d8:	e1a04000 	mov	r4, r0
    86dc:	e59f00e4 	ldr	r0, [pc, #228]	; 87c8 <ckalloc+0x1ec>
    86e0:	eb0000d9 	bl	8a4c <printk>
    86e4:	e1a03004 	mov	r3, r4
    86e8:	e1a02009 	mov	r2, r9
    86ec:	e1a01005 	mov	r1, r5
    86f0:	e59f00d8 	ldr	r0, [pc, #216]	; 87d0 <ckalloc+0x1f4>
    86f4:	eb0000d4 	bl	8a4c <printk>
    86f8:	e1a00004 	mov	r0, r4
    86fc:	e28dd00c 	add	sp, sp, #12
    8700:	e8bd83f0 	pop	{r4, r5, r6, r7, r8, r9, pc}
    8704:	eb0000eb 	bl	8ab8 <rpi_reset_putc>
    8708:	e3a03087 	mov	r3, #135	; 0x87
    870c:	e59f20c0 	ldr	r2, [pc, #192]	; 87d4 <ckalloc+0x1f8>
    8710:	e59f10c0 	ldr	r1, [pc, #192]	; 87d8 <ckalloc+0x1fc>
    8714:	e59f00c0 	ldr	r0, [pc, #192]	; 87dc <ckalloc+0x200>
    8718:	eb0000cb 	bl	8a4c <printk>
    871c:	eb000244 	bl	9034 <clean_reboot>
    8720:	e59f00b8 	ldr	r0, [pc, #184]	; 87e0 <ckalloc+0x204>
    8724:	eb0000c8 	bl	8a4c <printk>
    8728:	e1a01005 	mov	r1, r5
    872c:	e59f00b0 	ldr	r0, [pc, #176]	; 87e4 <ckalloc+0x208>
    8730:	eb0000c5 	bl	8a4c <printk>
    8734:	eb0000df 	bl	8ab8 <rpi_reset_putc>
    8738:	e58d5000 	str	r5, [sp]
    873c:	e3a0308f 	mov	r3, #143	; 0x8f
    8740:	e59f208c 	ldr	r2, [pc, #140]	; 87d4 <ckalloc+0x1f8>
    8744:	e59f108c 	ldr	r1, [pc, #140]	; 87d8 <ckalloc+0x1fc>
    8748:	e59f0098 	ldr	r0, [pc, #152]	; 87e8 <ckalloc+0x20c>
    874c:	eb0000be 	bl	8a4c <printk>
    8750:	eb000237 	bl	9034 <clean_reboot>
    8754:	e59f0084 	ldr	r0, [pc, #132]	; 87e0 <ckalloc+0x204>
    8758:	eb0000bb 	bl	8a4c <printk>
    875c:	e59f4060 	ldr	r4, [pc, #96]	; 87c4 <ckalloc+0x1e8>
    8760:	e5941008 	ldr	r1, [r4, #8]
    8764:	e5943004 	ldr	r3, [r4, #4]
    8768:	e1a02009 	mov	r2, r9
    876c:	e0411003 	sub	r1, r1, r3
    8770:	e59f0074 	ldr	r0, [pc, #116]	; 87ec <ckalloc+0x210>
    8774:	eb0000b4 	bl	8a4c <printk>
    8778:	eb0000ce 	bl	8ab8 <rpi_reset_putc>
    877c:	e58d9004 	str	r9, [sp, #4]
    8780:	e5943008 	ldr	r3, [r4, #8]
    8784:	e5942004 	ldr	r2, [r4, #4]
    8788:	e0433002 	sub	r3, r3, r2
    878c:	e58d3000 	str	r3, [sp]
    8790:	e3a03092 	mov	r3, #146	; 0x92
    8794:	e59f2038 	ldr	r2, [pc, #56]	; 87d4 <ckalloc+0x1f8>
    8798:	e59f1038 	ldr	r1, [pc, #56]	; 87d8 <ckalloc+0x1fc>
    879c:	e59f004c 	ldr	r0, [pc, #76]	; 87f0 <ckalloc+0x214>
    87a0:	eb0000a9 	bl	8a4c <printk>
    87a4:	eb000222 	bl	9034 <clean_reboot>
    87a8:	eb0000c2 	bl	8ab8 <rpi_reset_putc>
    87ac:	e3a030a1 	mov	r3, #161	; 0xa1
    87b0:	e59f201c 	ldr	r2, [pc, #28]	; 87d4 <ckalloc+0x1f8>
    87b4:	e59f101c 	ldr	r1, [pc, #28]	; 87d8 <ckalloc+0x1fc>
    87b8:	e59f0034 	ldr	r0, [pc, #52]	; 87f4 <ckalloc+0x218>
    87bc:	eb0000a2 	bl	8a4c <printk>
    87c0:	eb00021b 	bl	9034 <clean_reboot>
    87c4:	00009bf4 	strdeq	r9, [r0], -r4
    87c8:	00009690 	muleq	r0, r0, r6
    87cc:	000097e0 	andeq	r9, r0, r0, ror #15
    87d0:	000098ec 	andeq	r9, r0, ip, ror #17
    87d4:	000099bc 			; <UNDEFINED> instruction: 0x000099bc
    87d8:	00009750 	andeq	r9, r0, r0, asr r7
    87dc:	000097a0 	andeq	r9, r0, r0, lsr #15
    87e0:	000097f8 	strdeq	r9, [r0], -r8
    87e4:	00009804 	andeq	r9, r0, r4, lsl #16
    87e8:	0000982c 	andeq	r9, r0, ip, lsr #16
    87ec:	00009864 	andeq	r9, r0, r4, ror #16
    87f0:	00009890 	muleq	r0, r0, r8
    87f4:	000098cc 	andeq	r9, r0, ip, asr #17

000087f8 <ck_heap_errors>:
    87f8:	e92d41f0 	push	{r4, r5, r6, r7, r8, lr}
    87fc:	e59f4130 	ldr	r4, [pc, #304]	; 8934 <ck_heap_errors+0x13c>
    8800:	e5943004 	ldr	r3, [r4, #4]
    8804:	e5945000 	ldr	r5, [r4]
    8808:	e0435005 	sub	r5, r3, r5
    880c:	e5946008 	ldr	r6, [r4, #8]
    8810:	e0466003 	sub	r6, r6, r3
    8814:	e59f011c 	ldr	r0, [pc, #284]	; 8938 <ck_heap_errors+0x140>
    8818:	eb00008b 	bl	8a4c <printk>
    881c:	e1a02006 	mov	r2, r6
    8820:	e1a01005 	mov	r1, r5
    8824:	e59f0110 	ldr	r0, [pc, #272]	; 893c <ck_heap_errors+0x144>
    8828:	eb000087 	bl	8a4c <printk>
    882c:	e5944000 	ldr	r4, [r4]
    8830:	e3a05000 	mov	r5, #0
    8834:	e1a06005 	mov	r6, r5
    8838:	ea000012 	b	8888 <ck_heap_errors+0x90>
    883c:	e2866001 	add	r6, r6, #1
    8840:	e2855001 	add	r5, r5, #1
    8844:	e3560000 	cmp	r6, #0
    8848:	0a000033 	beq	891c <ck_heap_errors+0x124>
    884c:	e59f00e4 	ldr	r0, [pc, #228]	; 8938 <ck_heap_errors+0x140>
    8850:	eb00007d 	bl	8a4c <printk>
    8854:	e1a02006 	mov	r2, r6
    8858:	e1a01005 	mov	r1, r5
    885c:	e59f00dc 	ldr	r0, [pc, #220]	; 8940 <ck_heap_errors+0x148>
    8860:	eb000079 	bl	8a4c <printk>
    8864:	e1a00006 	mov	r0, r6
    8868:	e8bd81f0 	pop	{r4, r5, r6, r7, r8, pc}
    886c:	e2866001 	add	r6, r6, #1
    8870:	e2855001 	add	r5, r5, #1
    8874:	e5943000 	ldr	r3, [r4]
    8878:	e5942004 	ldr	r2, [r4, #4]
    887c:	e0833002 	add	r3, r3, r2
    8880:	e2833f4e 	add	r3, r3, #312	; 0x138
    8884:	e0844003 	add	r4, r4, r3
    8888:	e59f30a4 	ldr	r3, [pc, #164]	; 8934 <ck_heap_errors+0x13c>
    888c:	e5933004 	ldr	r3, [r3, #4]
    8890:	e1530004 	cmp	r3, r4
    8894:	9affffea 	bls	8844 <ck_heap_errors+0x4c>
    8898:	e1a00004 	mov	r0, r4
    889c:	ebfffe71 	bl	8268 <check_hdr>
    88a0:	e3500000 	cmp	r0, #0
    88a4:	0affffe4 	beq	883c <ck_heap_errors+0x44>
    88a8:	e1a00004 	mov	r0, r4
    88ac:	ebfffe0b 	bl	80e0 <b_rz1_ptr>
    88b0:	e1a02004 	mov	r2, r4
    88b4:	e3a01080 	mov	r1, #128	; 0x80
    88b8:	ebfffea4 	bl	8350 <check_mem>
    88bc:	e3500000 	cmp	r0, #0
    88c0:	0affffe9 	beq	886c <ck_heap_errors+0x74>
    88c4:	e1a00004 	mov	r0, r4
    88c8:	ebfffe0a 	bl	80f8 <b_rz2_ptr>
    88cc:	e1a07000 	mov	r7, r0
    88d0:	e1a00004 	mov	r0, r4
    88d4:	ebfffe0d 	bl	8110 <b_rz2_nbytes>
    88d8:	e1a01000 	mov	r1, r0
    88dc:	e1a02004 	mov	r2, r4
    88e0:	e1a00007 	mov	r0, r7
    88e4:	ebfffe99 	bl	8350 <check_mem>
    88e8:	e3500000 	cmp	r0, #0
    88ec:	0affffde 	beq	886c <ck_heap_errors+0x74>
    88f0:	e5943008 	ldr	r3, [r4, #8]
    88f4:	e353000c 	cmp	r3, #12
    88f8:	1affffdc 	bne	8870 <ck_heap_errors+0x78>
    88fc:	e1a00004 	mov	r0, r4
    8900:	ebfffdf8 	bl	80e8 <b_alloc_ptr>
    8904:	e1a02004 	mov	r2, r4
    8908:	e5941000 	ldr	r1, [r4]
    890c:	ebfffe04 	bl	8124 <check_free_write>
    8910:	e3500000 	cmp	r0, #0
    8914:	02866001 	addeq	r6, r6, #1
    8918:	eaffffd4 	b	8870 <ck_heap_errors+0x78>
    891c:	e59f0014 	ldr	r0, [pc, #20]	; 8938 <ck_heap_errors+0x140>
    8920:	eb000049 	bl	8a4c <printk>
    8924:	e1a01005 	mov	r1, r5
    8928:	e59f0014 	ldr	r0, [pc, #20]	; 8944 <ck_heap_errors+0x14c>
    892c:	eb000046 	bl	8a4c <printk>
    8930:	eaffffcb 	b	8864 <ck_heap_errors+0x6c>
    8934:	00009bf4 	strdeq	r9, [r0], -r4
    8938:	00009690 	muleq	r0, r0, r6
    893c:	0000991c 	andeq	r9, r0, ip, lsl r9
    8940:	00009954 	andeq	r9, r0, r4, asr r9
    8944:	0000997c 	andeq	r9, r0, ip, ror r9

00008948 <fast_hash>:
    8948:	e3500000 	cmp	r0, #0
    894c:	13510000 	cmpne	r1, #0
    8950:	da000035 	ble	8a2c <fast_hash+0xe4>
    8954:	e52de004 	push	{lr}		; (str lr, [sp, #-4]!)
    8958:	e1a03001 	mov	r3, r1
    895c:	e1a0c000 	mov	ip, r0
    8960:	e201e003 	and	lr, r1, #3
    8964:	e1a01141 	asr	r1, r1, #2
    8968:	e3510000 	cmp	r1, #0
    896c:	da00000c 	ble	89a4 <fast_hash+0x5c>
    8970:	e5dc0001 	ldrb	r0, [ip, #1]
    8974:	e5dc2000 	ldrb	r2, [ip]
    8978:	e0822400 	add	r2, r2, r0, lsl #8
    897c:	e0822003 	add	r2, r2, r3
    8980:	e5dc0003 	ldrb	r0, [ip, #3]
    8984:	e5dc3002 	ldrb	r3, [ip, #2]
    8988:	e0833400 	add	r3, r3, r0, lsl #8
    898c:	e0223583 	eor	r3, r2, r3, lsl #11
    8990:	e0233802 	eor	r3, r3, r2, lsl #16
    8994:	e28cc004 	add	ip, ip, #4
    8998:	e08335a3 	add	r3, r3, r3, lsr #11
    899c:	e2411001 	sub	r1, r1, #1
    89a0:	eafffff0 	b	8968 <fast_hash+0x20>
    89a4:	e35e0002 	cmp	lr, #2
    89a8:	0a000013 	beq	89fc <fast_hash+0xb4>
    89ac:	e35e0003 	cmp	lr, #3
    89b0:	0a000008 	beq	89d8 <fast_hash+0x90>
    89b4:	e35e0001 	cmp	lr, #1
    89b8:	0a000016 	beq	8a18 <fast_hash+0xd0>
    89bc:	e0230183 	eor	r0, r3, r3, lsl #3
    89c0:	e08002a0 	add	r0, r0, r0, lsr #5
    89c4:	e0200200 	eor	r0, r0, r0, lsl #4
    89c8:	e08008a0 	add	r0, r0, r0, lsr #17
    89cc:	e0200c80 	eor	r0, r0, r0, lsl #25
    89d0:	e0800320 	add	r0, r0, r0, lsr #6
    89d4:	e49df004 	pop	{pc}		; (ldr pc, [sp], #4)
    89d8:	e5dc1001 	ldrb	r1, [ip, #1]
    89dc:	e5dc2000 	ldrb	r2, [ip]
    89e0:	e0822401 	add	r2, r2, r1, lsl #8
    89e4:	e0823003 	add	r3, r2, r3
    89e8:	e0233803 	eor	r3, r3, r3, lsl #16
    89ec:	e1dc20d2 	ldrsb	r2, [ip, #2]
    89f0:	e0233902 	eor	r3, r3, r2, lsl #18
    89f4:	e08335a3 	add	r3, r3, r3, lsr #11
    89f8:	eaffffef 	b	89bc <fast_hash+0x74>
    89fc:	e5dc1001 	ldrb	r1, [ip, #1]
    8a00:	e5dc2000 	ldrb	r2, [ip]
    8a04:	e0822401 	add	r2, r2, r1, lsl #8
    8a08:	e0823003 	add	r3, r2, r3
    8a0c:	e0233583 	eor	r3, r3, r3, lsl #11
    8a10:	e08338a3 	add	r3, r3, r3, lsr #17
    8a14:	eaffffe8 	b	89bc <fast_hash+0x74>
    8a18:	e1dc20d0 	ldrsb	r2, [ip]
    8a1c:	e0823003 	add	r3, r2, r3
    8a20:	e0233503 	eor	r3, r3, r3, lsl #10
    8a24:	e08330a3 	add	r3, r3, r3, lsr #1
    8a28:	eaffffe3 	b	89bc <fast_hash+0x74>
    8a2c:	e3a00000 	mov	r0, #0
    8a30:	e12fff1e 	bx	lr

00008a34 <memset>:
    8a34:	e0802002 	add	r2, r0, r2
    8a38:	e1a03000 	mov	r3, r0
    8a3c:	e1530002 	cmp	r3, r2
    8a40:	212fff1e 	bxcs	lr
    8a44:	e4c31001 	strb	r1, [r3], #1
    8a48:	eafffffb 	b	8a3c <memset+0x8>

00008a4c <printk>:
    8a4c:	e92d000f 	push	{r0, r1, r2, r3}
    8a50:	e92d4030 	push	{r4, r5, lr}
    8a54:	e24dd00c 	sub	sp, sp, #12
    8a58:	e28d301c 	add	r3, sp, #28
    8a5c:	e58d3004 	str	r3, [sp, #4]
    8a60:	e59f5034 	ldr	r5, [pc, #52]	; 8a9c <printk+0x50>
    8a64:	e59d2018 	ldr	r2, [sp, #24]
    8a68:	e3a01b01 	mov	r1, #1024	; 0x400
    8a6c:	e1a00005 	mov	r0, r5
    8a70:	eb0000c3 	bl	8d84 <va_printk>
    8a74:	e1a04000 	mov	r4, r0
    8a78:	e59f3020 	ldr	r3, [pc, #32]	; 8aa0 <printk+0x54>
    8a7c:	e5933000 	ldr	r3, [r3]
    8a80:	e1a00005 	mov	r0, r5
    8a84:	e12fff33 	blx	r3
    8a88:	e1a00004 	mov	r0, r4
    8a8c:	e28dd00c 	add	sp, sp, #12
    8a90:	e8bd4030 	pop	{r4, r5, lr}
    8a94:	e28dd010 	add	sp, sp, #16
    8a98:	e12fff1e 	bx	lr
    8a9c:	00009c00 	andeq	r9, r0, r0, lsl #24
    8aa0:	00009620 	andeq	r9, r0, r0, lsr #12

00008aa4 <internal_putchar>:
    8aa4:	e92d4010 	push	{r4, lr}
    8aa8:	e1a04000 	mov	r4, r0
    8aac:	eb000217 	bl	9310 <uart_putc>
    8ab0:	e1a00004 	mov	r0, r4
    8ab4:	e8bd8010 	pop	{r4, pc}

00008ab8 <rpi_reset_putc>:
    8ab8:	e59f3008 	ldr	r3, [pc, #8]	; 8ac8 <rpi_reset_putc+0x10>
    8abc:	e59f2008 	ldr	r2, [pc, #8]	; 8acc <rpi_reset_putc+0x14>
    8ac0:	e5832000 	str	r2, [r3]
    8ac4:	e12fff1e 	bx	lr
    8ac8:	0000961c 	andeq	r9, r0, ip, lsl r6
    8acc:	00008aa4 	andeq	r8, r0, r4, lsr #21

00008ad0 <rpi_set_putc>:
    8ad0:	e59f3004 	ldr	r3, [pc, #4]	; 8adc <rpi_set_putc+0xc>
    8ad4:	e5830000 	str	r0, [r3]
    8ad8:	e12fff1e 	bx	lr
    8adc:	0000961c 	andeq	r9, r0, ip, lsl r6

00008ae0 <internal_putk>:
    8ae0:	e92d4010 	push	{r4, lr}
    8ae4:	e1a04000 	mov	r4, r0
    8ae8:	e5d40000 	ldrb	r0, [r4]
    8aec:	e3500000 	cmp	r0, #0
    8af0:	0a000004 	beq	8b08 <internal_putk+0x28>
    8af4:	e59f3014 	ldr	r3, [pc, #20]	; 8b10 <internal_putk+0x30>
    8af8:	e5933000 	ldr	r3, [r3]
    8afc:	e12fff33 	blx	r3
    8b00:	e2844001 	add	r4, r4, #1
    8b04:	eafffff7 	b	8ae8 <internal_putk+0x8>
    8b08:	e3a00001 	mov	r0, #1
    8b0c:	e8bd8010 	pop	{r4, pc}
    8b10:	0000961c 	andeq	r9, r0, ip, lsl r6

00008b14 <isdigit>:
    8b14:	e2400030 	sub	r0, r0, #48	; 0x30
    8b18:	e3500009 	cmp	r0, #9
    8b1c:	83a00000 	movhi	r0, #0
    8b20:	93a00001 	movls	r0, #1
    8b24:	e12fff1e 	bx	lr

00008b28 <pad>:
    8b28:	e0401001 	sub	r1, r0, r1
    8b2c:	e1510002 	cmp	r1, r2
    8b30:	b3a03020 	movlt	r3, #32
    8b34:	b4c03001 	strblt	r3, [r0], #1
    8b38:	b2811001 	addlt	r1, r1, #1
    8b3c:	bafffffa 	blt	8b2c <pad+0x4>
    8b40:	e3a03000 	mov	r3, #0
    8b44:	e5c03000 	strb	r3, [r0]
    8b48:	e12fff1e 	bx	lr

00008b4c <reverse>:
    8b4c:	e042c003 	sub	ip, r2, r3
    8b50:	e28cc001 	add	ip, ip, #1
    8b54:	e15c0001 	cmp	ip, r1
    8b58:	c04cc001 	subgt	ip, ip, r1
    8b5c:	c083300c 	addgt	r3, r3, ip
    8b60:	e2421001 	sub	r1, r2, #1
    8b64:	e1a02000 	mov	r2, r0
    8b68:	e1510003 	cmp	r1, r3
    8b6c:	2451c001 	ldrbcs	ip, [r1], #-1
    8b70:	24c2c001 	strbcs	ip, [r2], #1
    8b74:	2afffffb 	bcs	8b68 <reverse+0x1c>
    8b78:	e3a03000 	mov	r3, #0
    8b7c:	e5c23000 	strb	r3, [r2]
    8b80:	e12fff1e 	bx	lr

00008b84 <emit>:
    8b84:	e92d40f0 	push	{r4, r5, r6, r7, lr}
    8b88:	e24dd044 	sub	sp, sp, #68	; 0x44
    8b8c:	e1a05001 	mov	r5, r1
    8b90:	e1a04002 	mov	r4, r2
    8b94:	e59d2058 	ldr	r2, [sp, #88]	; 0x58
    8b98:	e1520004 	cmp	r2, r4
    8b9c:	c2442001 	subgt	r2, r4, #1
    8ba0:	e1a0c003 	mov	ip, r3
    8ba4:	e2400002 	sub	r0, r0, #2
    8ba8:	e350000e 	cmp	r0, #14
    8bac:	979ff100 	ldrls	pc, [pc, r0, lsl #2]
    8bb0:	ea000050 	b	8cf8 <emit+0x174>
    8bb4:	00008cd0 	ldrdeq	r8, [r0], -r0
    8bb8:	00008cf8 	strdeq	r8, [r0], -r8	; <UNPREDICTABLE>
    8bbc:	00008cf8 	strdeq	r8, [r0], -r8	; <UNPREDICTABLE>
    8bc0:	00008cf8 	strdeq	r8, [r0], -r8	; <UNPREDICTABLE>
    8bc4:	00008cf8 	strdeq	r8, [r0], -r8	; <UNPREDICTABLE>
    8bc8:	00008cf8 	strdeq	r8, [r0], -r8	; <UNPREDICTABLE>
    8bcc:	00008cc4 	andeq	r8, r0, r4, asr #25
    8bd0:	00008cf8 	strdeq	r8, [r0], -r8	; <UNPREDICTABLE>
    8bd4:	00008bf0 	strdeq	r8, [r0], -r0
    8bd8:	00008cf8 	strdeq	r8, [r0], -r8	; <UNPREDICTABLE>
    8bdc:	00008cf8 	strdeq	r8, [r0], -r8	; <UNPREDICTABLE>
    8be0:	00008cf8 	strdeq	r8, [r0], -r8	; <UNPREDICTABLE>
    8be4:	00008cf8 	strdeq	r8, [r0], -r8	; <UNPREDICTABLE>
    8be8:	00008cf8 	strdeq	r8, [r0], -r8	; <UNPREDICTABLE>
    8bec:	00008c68 	andeq	r8, r0, r8, ror #24
    8bf0:	e59d105c 	ldr	r1, [sp, #92]	; 0x5c
    8bf4:	e2511000 	subs	r1, r1, #0
    8bf8:	13a01001 	movne	r1, #1
    8bfc:	e0111fa3 	ands	r1, r1, r3, lsr #31
    8c00:	0a000016 	beq	8c60 <emit+0xdc>
    8c04:	e263c000 	rsb	ip, r3, #0
    8c08:	e3a06001 	mov	r6, #1
    8c0c:	e1a0000d 	mov	r0, sp
    8c10:	e59f30fc 	ldr	r3, [pc, #252]	; 8d14 <emit+0x190>
    8c14:	e0831c93 	umull	r1, r3, r3, ip
    8c18:	e1a031a3 	lsr	r3, r3, #3
    8c1c:	e1a0e003 	mov	lr, r3
    8c20:	e0833103 	add	r3, r3, r3, lsl #2
    8c24:	e04c3083 	sub	r3, ip, r3, lsl #1
    8c28:	e1a01000 	mov	r1, r0
    8c2c:	e2800001 	add	r0, r0, #1
    8c30:	e59f70e0 	ldr	r7, [pc, #224]	; 8d18 <emit+0x194>
    8c34:	e7d73003 	ldrb	r3, [r7, r3]
    8c38:	e5c13000 	strb	r3, [r1]
    8c3c:	e1a0300c 	mov	r3, ip
    8c40:	e1a0c00e 	mov	ip, lr
    8c44:	e3530009 	cmp	r3, #9
    8c48:	8afffff0 	bhi	8c10 <emit+0x8c>
    8c4c:	e3560000 	cmp	r6, #0
    8c50:	13a0302d 	movne	r3, #45	; 0x2d
    8c54:	15c03000 	strbne	r3, [r0]
    8c58:	12810002 	addne	r0, r1, #2
    8c5c:	ea00000f 	b	8ca0 <emit+0x11c>
    8c60:	e3a06000 	mov	r6, #0
    8c64:	eaffffe8 	b	8c0c <emit+0x88>
    8c68:	e1a0100d 	mov	r1, sp
    8c6c:	e20c000f 	and	r0, ip, #15
    8c70:	e59fe0a4 	ldr	lr, [pc, #164]	; 8d1c <emit+0x198>
    8c74:	e7de0000 	ldrb	r0, [lr, r0]
    8c78:	e5c10000 	strb	r0, [r1]
    8c7c:	e2811001 	add	r1, r1, #1
    8c80:	e35c000f 	cmp	ip, #15
    8c84:	e1a0c22c 	lsr	ip, ip, #4
    8c88:	8afffff7 	bhi	8c6c <emit+0xe8>
    8c8c:	e1a00001 	mov	r0, r1
    8c90:	e3a03078 	mov	r3, #120	; 0x78
    8c94:	e4c03002 	strb	r3, [r0], #2
    8c98:	e3a03030 	mov	r3, #48	; 0x30
    8c9c:	e5c13001 	strb	r3, [r1, #1]
    8ca0:	e1a0100d 	mov	r1, sp
    8ca4:	ebffff9f 	bl	8b28 <pad>
    8ca8:	e1a02000 	mov	r2, r0
    8cac:	e1a0300d 	mov	r3, sp
    8cb0:	e1a01004 	mov	r1, r4
    8cb4:	e1a00005 	mov	r0, r5
    8cb8:	ebffffa3 	bl	8b4c <reverse>
    8cbc:	e28dd044 	add	sp, sp, #68	; 0x44
    8cc0:	e8bd80f0 	pop	{r4, r5, r6, r7, pc}
    8cc4:	e5cd3000 	strb	r3, [sp]
    8cc8:	e28d0001 	add	r0, sp, #1
    8ccc:	eafffff3 	b	8ca0 <emit+0x11c>
    8cd0:	e1a0000d 	mov	r0, sp
    8cd4:	e20c1001 	and	r1, ip, #1
    8cd8:	e59fe040 	ldr	lr, [pc, #64]	; 8d20 <emit+0x19c>
    8cdc:	e7de1001 	ldrb	r1, [lr, r1]
    8ce0:	e5c01000 	strb	r1, [r0]
    8ce4:	e2800001 	add	r0, r0, #1
    8ce8:	e35c0001 	cmp	ip, #1
    8cec:	e1a0c0ac 	lsr	ip, ip, #1
    8cf0:	8afffff7 	bhi	8cd4 <emit+0x150>
    8cf4:	eaffffe9 	b	8ca0 <emit+0x11c>
    8cf8:	ebffff6e 	bl	8ab8 <rpi_reset_putc>
    8cfc:	e3a03077 	mov	r3, #119	; 0x77
    8d00:	e59f201c 	ldr	r2, [pc, #28]	; 8d24 <emit+0x1a0>
    8d04:	e59f101c 	ldr	r1, [pc, #28]	; 8d28 <emit+0x1a4>
    8d08:	e59f001c 	ldr	r0, [pc, #28]	; 8d2c <emit+0x1a8>
    8d0c:	ebffff4e 	bl	8a4c <printk>
    8d10:	eb0000c7 	bl	9034 <clean_reboot>
    8d14:	cccccccd 	stclgt	12, cr12, [ip], {205}	; 0xcd
    8d18:	000099ec 	andeq	r9, r0, ip, ror #19
    8d1c:	000099f8 	strdeq	r9, [r0], -r8
    8d20:	00009a0c 	andeq	r9, r0, ip, lsl #20
    8d24:	00009aa4 	andeq	r9, r0, r4, lsr #21
    8d28:	000099c4 	andeq	r9, r0, r4, asr #19
    8d2c:	000099d8 	ldrdeq	r9, [r0], -r8

00008d30 <rpi_set_output>:
    8d30:	e3500000 	cmp	r0, #0
    8d34:	0a000005 	beq	8d50 <rpi_set_output+0x20>
    8d38:	e59f3030 	ldr	r3, [pc, #48]	; 8d70 <rpi_set_output+0x40>
    8d3c:	e5830000 	str	r0, [r3]
    8d40:	e3510000 	cmp	r1, #0
    8d44:	159f3028 	ldrne	r3, [pc, #40]	; 8d74 <rpi_set_output+0x44>
    8d48:	15831000 	strne	r1, [r3]
    8d4c:	e12fff1e 	bx	lr
    8d50:	e92d4010 	push	{r4, lr}
    8d54:	ebffff57 	bl	8ab8 <rpi_reset_putc>
    8d58:	e3a03020 	mov	r3, #32
    8d5c:	e59f2014 	ldr	r2, [pc, #20]	; 8d78 <rpi_set_output+0x48>
    8d60:	e59f1014 	ldr	r1, [pc, #20]	; 8d7c <rpi_set_output+0x4c>
    8d64:	e59f0014 	ldr	r0, [pc, #20]	; 8d80 <rpi_set_output+0x50>
    8d68:	ebffff37 	bl	8a4c <printk>
    8d6c:	eb0000b0 	bl	9034 <clean_reboot>
    8d70:	0000961c 	andeq	r9, r0, ip, lsl r6
    8d74:	00009620 	andeq	r9, r0, r0, lsr #12
    8d78:	00009aac 	andeq	r9, r0, ip, lsr #21
    8d7c:	000099c4 	andeq	r9, r0, r4, asr #19
    8d80:	00009a10 	andeq	r9, r0, r0, lsl sl

00008d84 <va_printk>:
    8d84:	e92d43f0 	push	{r4, r5, r6, r7, r8, r9, lr}
    8d88:	e24dd094 	sub	sp, sp, #148	; 0x94
    8d8c:	e1a07000 	mov	r7, r0
    8d90:	e1a09002 	mov	r9, r2
    8d94:	e58d300c 	str	r3, [sp, #12]
    8d98:	e2411001 	sub	r1, r1, #1
    8d9c:	e0808001 	add	r8, r0, r1
    8da0:	e3a03000 	mov	r3, #0
    8da4:	e5c03000 	strb	r3, [r0]
    8da8:	e1a04000 	mov	r4, r0
    8dac:	ea000001 	b	8db8 <va_printk+0x34>
    8db0:	e2899001 	add	r9, r9, #1
    8db4:	e4c43001 	strb	r3, [r4], #1
    8db8:	e5d93000 	ldrb	r3, [r9]
    8dbc:	e3530000 	cmp	r3, #0
    8dc0:	0a000091 	beq	900c <va_printk+0x288>
    8dc4:	e1540008 	cmp	r4, r8
    8dc8:	2a00008f 	bcs	900c <va_printk+0x288>
    8dcc:	e3530025 	cmp	r3, #37	; 0x25
    8dd0:	1afffff6 	bne	8db0 <va_printk+0x2c>
    8dd4:	e5d92001 	ldrb	r2, [r9, #1]
    8dd8:	e3520025 	cmp	r2, #37	; 0x25
    8ddc:	04c43001 	strbeq	r3, [r4], #1
    8de0:	02899002 	addeq	r9, r9, #2
    8de4:	0afffff3 	beq	8db8 <va_printk+0x34>
    8de8:	e2899001 	add	r9, r9, #1
    8dec:	e3a06000 	mov	r6, #0
    8df0:	ea000003 	b	8e04 <va_printk+0x80>
    8df4:	e0866106 	add	r6, r6, r6, lsl #2
    8df8:	e0855086 	add	r5, r5, r6, lsl #1
    8dfc:	e2456030 	sub	r6, r5, #48	; 0x30
    8e00:	e2899001 	add	r9, r9, #1
    8e04:	e5d95000 	ldrb	r5, [r9]
    8e08:	e1a00005 	mov	r0, r5
    8e0c:	ebffff40 	bl	8b14 <isdigit>
    8e10:	e3500000 	cmp	r0, #0
    8e14:	1afffff6 	bne	8df4 <va_printk+0x70>
    8e18:	e356001f 	cmp	r6, #31
    8e1c:	8a00001a 	bhi	8e8c <va_printk+0x108>
    8e20:	e2455062 	sub	r5, r5, #98	; 0x62
    8e24:	e3550016 	cmp	r5, #22
    8e28:	979ff105 	ldrls	pc, [pc, r5, lsl #2]
    8e2c:	ea00006d 	b	8fe8 <va_printk+0x264>
    8e30:	00008f74 	andeq	r8, r0, r4, ror pc
    8e34:	00008fb8 			; <UNDEFINED> instruction: 0x00008fb8
    8e38:	00008ec4 	andeq	r8, r0, r4, asr #29
    8e3c:	00008fe8 	andeq	r8, r0, r8, ror #31
    8e40:	00008ea8 	andeq	r8, r0, r8, lsr #29
    8e44:	00008fe8 	andeq	r8, r0, r8, ror #31
    8e48:	00008fe8 	andeq	r8, r0, r8, ror #31
    8e4c:	00008fe8 	andeq	r8, r0, r8, ror #31
    8e50:	00008fe8 	andeq	r8, r0, r8, ror #31
    8e54:	00008fe8 	andeq	r8, r0, r8, ror #31
    8e58:	00008fe8 	andeq	r8, r0, r8, ror #31
    8e5c:	00008fe8 	andeq	r8, r0, r8, ror #31
    8e60:	00008fe8 	andeq	r8, r0, r8, ror #31
    8e64:	00008fe8 	andeq	r8, r0, r8, ror #31
    8e68:	00008f44 	andeq	r8, r0, r4, asr #30
    8e6c:	00008fe8 	andeq	r8, r0, r8, ror #31
    8e70:	00008fe8 	andeq	r8, r0, r8, ror #31
    8e74:	00008fa4 	andeq	r8, r0, r4, lsr #31
    8e78:	00008fe8 	andeq	r8, r0, r8, ror #31
    8e7c:	00008f14 	andeq	r8, r0, r4, lsl pc
    8e80:	00008fe8 	andeq	r8, r0, r8, ror #31
    8e84:	00008fe8 	andeq	r8, r0, r8, ror #31
    8e88:	00008f44 	andeq	r8, r0, r4, asr #30
    8e8c:	ebffff09 	bl	8ab8 <rpi_reset_putc>
    8e90:	e3a03094 	mov	r3, #148	; 0x94
    8e94:	e59f2184 	ldr	r2, [pc, #388]	; 9020 <va_printk+0x29c>
    8e98:	e59f1184 	ldr	r1, [pc, #388]	; 9024 <va_printk+0x2a0>
    8e9c:	e59f0184 	ldr	r0, [pc, #388]	; 9028 <va_printk+0x2a4>
    8ea0:	ebfffee9 	bl	8a4c <printk>
    8ea4:	eb000062 	bl	9034 <clean_reboot>
    8ea8:	ebffff02 	bl	8ab8 <rpi_reset_putc>
    8eac:	e3a0309a 	mov	r3, #154	; 0x9a
    8eb0:	e59f2168 	ldr	r2, [pc, #360]	; 9020 <va_printk+0x29c>
    8eb4:	e59f1168 	ldr	r1, [pc, #360]	; 9024 <va_printk+0x2a0>
    8eb8:	e59f016c 	ldr	r0, [pc, #364]	; 902c <va_printk+0x2a8>
    8ebc:	ebfffee2 	bl	8a4c <printk>
    8ec0:	eb00005b 	bl	9034 <clean_reboot>
    8ec4:	e59d300c 	ldr	r3, [sp, #12]
    8ec8:	e2832004 	add	r2, r3, #4
    8ecc:	e58d200c 	str	r2, [sp, #12]
    8ed0:	e5933000 	ldr	r3, [r3]
    8ed4:	e3a02001 	mov	r2, #1
    8ed8:	e58d2004 	str	r2, [sp, #4]
    8edc:	e58d6000 	str	r6, [sp]
    8ee0:	e3a02080 	mov	r2, #128	; 0x80
    8ee4:	e28d1010 	add	r1, sp, #16
    8ee8:	e3a0000a 	mov	r0, #10
    8eec:	ebffff24 	bl	8b84 <emit>
    8ef0:	e2899001 	add	r9, r9, #1
    8ef4:	e1540008 	cmp	r4, r8
    8ef8:	2affffae 	bcs	8db8 <va_printk+0x34>
    8efc:	e5d03000 	ldrb	r3, [r0]
    8f00:	e3530000 	cmp	r3, #0
    8f04:	0affffab 	beq	8db8 <va_printk+0x34>
    8f08:	e2800001 	add	r0, r0, #1
    8f0c:	e4c43001 	strb	r3, [r4], #1
    8f10:	eafffff7 	b	8ef4 <va_printk+0x170>
    8f14:	e59d300c 	ldr	r3, [sp, #12]
    8f18:	e2832004 	add	r2, r3, #4
    8f1c:	e58d200c 	str	r2, [sp, #12]
    8f20:	e5933000 	ldr	r3, [r3]
    8f24:	e3a02000 	mov	r2, #0
    8f28:	e58d2004 	str	r2, [sp, #4]
    8f2c:	e58d6000 	str	r6, [sp]
    8f30:	e3a02080 	mov	r2, #128	; 0x80
    8f34:	e28d1010 	add	r1, sp, #16
    8f38:	e3a0000a 	mov	r0, #10
    8f3c:	ebffff10 	bl	8b84 <emit>
    8f40:	eaffffea 	b	8ef0 <va_printk+0x16c>
    8f44:	e59d300c 	ldr	r3, [sp, #12]
    8f48:	e2832004 	add	r2, r3, #4
    8f4c:	e58d200c 	str	r2, [sp, #12]
    8f50:	e5933000 	ldr	r3, [r3]
    8f54:	e3a02000 	mov	r2, #0
    8f58:	e58d2004 	str	r2, [sp, #4]
    8f5c:	e58d6000 	str	r6, [sp]
    8f60:	e3a02080 	mov	r2, #128	; 0x80
    8f64:	e28d1010 	add	r1, sp, #16
    8f68:	e3a00010 	mov	r0, #16
    8f6c:	ebffff04 	bl	8b84 <emit>
    8f70:	eaffffde 	b	8ef0 <va_printk+0x16c>
    8f74:	e59d300c 	ldr	r3, [sp, #12]
    8f78:	e2832004 	add	r2, r3, #4
    8f7c:	e58d200c 	str	r2, [sp, #12]
    8f80:	e5933000 	ldr	r3, [r3]
    8f84:	e3a02000 	mov	r2, #0
    8f88:	e58d2004 	str	r2, [sp, #4]
    8f8c:	e58d6000 	str	r6, [sp]
    8f90:	e3a02080 	mov	r2, #128	; 0x80
    8f94:	e28d1010 	add	r1, sp, #16
    8f98:	e3a00002 	mov	r0, #2
    8f9c:	ebfffef8 	bl	8b84 <emit>
    8fa0:	eaffffd2 	b	8ef0 <va_printk+0x16c>
    8fa4:	e59d300c 	ldr	r3, [sp, #12]
    8fa8:	e2832004 	add	r2, r3, #4
    8fac:	e58d200c 	str	r2, [sp, #12]
    8fb0:	e5930000 	ldr	r0, [r3]
    8fb4:	eaffffcd 	b	8ef0 <va_printk+0x16c>
    8fb8:	e59d300c 	ldr	r3, [sp, #12]
    8fbc:	e2832004 	add	r2, r3, #4
    8fc0:	e58d200c 	str	r2, [sp, #12]
    8fc4:	e5933000 	ldr	r3, [r3]
    8fc8:	e3a02000 	mov	r2, #0
    8fcc:	e58d2004 	str	r2, [sp, #4]
    8fd0:	e58d6000 	str	r6, [sp]
    8fd4:	e3a02080 	mov	r2, #128	; 0x80
    8fd8:	e28d1010 	add	r1, sp, #16
    8fdc:	e3a00008 	mov	r0, #8
    8fe0:	ebfffee7 	bl	8b84 <emit>
    8fe4:	eaffffc1 	b	8ef0 <va_printk+0x16c>
    8fe8:	ebfffeb2 	bl	8ab8 <rpi_reset_putc>
    8fec:	e5d93000 	ldrb	r3, [r9]
    8ff0:	e58d3000 	str	r3, [sp]
    8ff4:	e3a030bb 	mov	r3, #187	; 0xbb
    8ff8:	e59f2020 	ldr	r2, [pc, #32]	; 9020 <va_printk+0x29c>
    8ffc:	e59f1020 	ldr	r1, [pc, #32]	; 9024 <va_printk+0x2a0>
    9000:	e59f0028 	ldr	r0, [pc, #40]	; 9030 <va_printk+0x2ac>
    9004:	ebfffe90 	bl	8a4c <printk>
    9008:	eb000009 	bl	9034 <clean_reboot>
    900c:	e3a03000 	mov	r3, #0
    9010:	e4c43001 	strb	r3, [r4], #1
    9014:	e0440007 	sub	r0, r4, r7
    9018:	e28dd094 	add	sp, sp, #148	; 0x94
    901c:	e8bd83f0 	pop	{r4, r5, r6, r7, r8, r9, pc}
    9020:	00009abc 			; <UNDEFINED> instruction: 0x00009abc
    9024:	000099c4 	andeq	r9, r0, r4, asr #19
    9028:	00009a28 	andeq	r9, r0, r8, lsr #20
    902c:	00009a44 	andeq	r9, r0, r4, asr #20
    9030:	00009a6c 	andeq	r9, r0, ip, ror #20

00009034 <clean_reboot>:
    9034:	e92d4010 	push	{r4, lr}
    9038:	e59f3014 	ldr	r3, [pc, #20]	; 9054 <clean_reboot+0x20>
    903c:	e5933000 	ldr	r3, [r3]
    9040:	e59f0010 	ldr	r0, [pc, #16]	; 9058 <clean_reboot+0x24>
    9044:	e12fff33 	blx	r3
    9048:	e3a00064 	mov	r0, #100	; 0x64
    904c:	eb000042 	bl	915c <delay_ms>
    9050:	eb000017 	bl	90b4 <rpi_reboot>
    9054:	00009620 	andeq	r9, r0, r0, lsr #12
    9058:	00009ac8 	andeq	r9, r0, r8, asr #21

0000905c <_cstart>:
    905c:	e92d4010 	push	{r4, lr}
    9060:	e59f3018 	ldr	r3, [pc, #24]	; 9080 <_cstart+0x24>
    9064:	e59f2018 	ldr	r2, [pc, #24]	; 9084 <_cstart+0x28>
    9068:	e1530002 	cmp	r3, r2
    906c:	33a02000 	movcc	r2, #0
    9070:	34832004 	strcc	r2, [r3], #4
    9074:	3afffffa 	bcc	9064 <_cstart+0x8>
    9078:	ebfffbe4 	bl	8010 <notmain>
    907c:	ebffffec 	bl	9034 <clean_reboot>
    9080:	00009bf4 	strdeq	r9, [r0], -r4
    9084:	0000a000 	andeq	sl, r0, r0

00009088 <at_user_level>:
    9088:	e10f0000 	mrs	r0, CPSR
    908c:	e200001f 	and	r0, r0, #31
    9090:	e3500010 	cmp	r0, #16
    9094:	13a00000 	movne	r0, #0
    9098:	03a00001 	moveq	r0, #1
    909c:	e12fff1e 	bx	lr

000090a0 <set_user_level>:
    90a0:	e10f3000 	mrs	r3, CPSR
    90a4:	e3c3301f 	bic	r3, r3, #31
    90a8:	e3833010 	orr	r3, r3, #16
    90ac:	e129f003 	msr	CPSR_fc, r3
    90b0:	e12fff1e 	bx	lr

000090b4 <rpi_reboot>:
    90b4:	e92d4010 	push	{r4, lr}
    90b8:	ebfffff2 	bl	9088 <at_user_level>
    90bc:	e3500000 	cmp	r0, #0
    90c0:	1a000008 	bne	90e8 <rpi_reboot+0x34>
    90c4:	e3a0001e 	mov	r0, #30
    90c8:	eb000023 	bl	915c <delay_ms>
    90cc:	e59f101c 	ldr	r1, [pc, #28]	; 90f0 <rpi_reboot+0x3c>
    90d0:	e59f001c 	ldr	r0, [pc, #28]	; 90f4 <rpi_reboot+0x40>
    90d4:	eb00002e 	bl	9194 <PUT32>
    90d8:	e59f1018 	ldr	r1, [pc, #24]	; 90f8 <rpi_reboot+0x44>
    90dc:	e59f0018 	ldr	r0, [pc, #24]	; 90fc <rpi_reboot+0x48>
    90e0:	eb00002b 	bl	9194 <PUT32>
    90e4:	eafffffe 	b	90e4 <rpi_reboot+0x30>
    90e8:	ebffffec 	bl	90a0 <set_user_level>
    90ec:	eafffff4 	b	90c4 <rpi_reboot+0x10>
    90f0:	5a000001 	bpl	90fc <rpi_reboot+0x48>
    90f4:	20100024 	andscs	r0, r0, r4, lsr #32
    90f8:	5a000020 	bpl	9180 <delay_sec+0xc>
    90fc:	2010001c 	andscs	r0, r0, ip, lsl r0

00009100 <delay_cycles>:
    9100:	e2403001 	sub	r3, r0, #1
    9104:	e3500000 	cmp	r0, #0
    9108:	012fff1e 	bxeq	lr
    910c:	e2811000 	add	r1, r1, #0
    9110:	e1a00003 	mov	r0, r3
    9114:	eafffff9 	b	9100 <delay_cycles>

00009118 <timer_get_usec_raw>:
    9118:	e92d4010 	push	{r4, lr}
    911c:	e59f0004 	ldr	r0, [pc, #4]	; 9128 <timer_get_usec_raw+0x10>
    9120:	eb000027 	bl	91c4 <GET32>
    9124:	e8bd8010 	pop	{r4, pc}
    9128:	20003004 	andcs	r3, r0, r4

0000912c <timer_get_usec>:
    912c:	e92d4010 	push	{r4, lr}
    9130:	ebfffff8 	bl	9118 <timer_get_usec_raw>
    9134:	e8bd8010 	pop	{r4, pc}

00009138 <delay_us>:
    9138:	e92d4070 	push	{r4, r5, r6, lr}
    913c:	e1a05000 	mov	r5, r0
    9140:	ebfffff9 	bl	912c <timer_get_usec>
    9144:	e1a04000 	mov	r4, r0
    9148:	ebfffff7 	bl	912c <timer_get_usec>
    914c:	e0400004 	sub	r0, r0, r4
    9150:	e1500005 	cmp	r0, r5
    9154:	3afffffb 	bcc	9148 <delay_us+0x10>
    9158:	e8bd8070 	pop	{r4, r5, r6, pc}

0000915c <delay_ms>:
    915c:	e92d4010 	push	{r4, lr}
    9160:	e0603280 	rsb	r3, r0, r0, lsl #5
    9164:	e0800103 	add	r0, r0, r3, lsl #2
    9168:	e1a00180 	lsl	r0, r0, #3
    916c:	ebfffff1 	bl	9138 <delay_us>
    9170:	e8bd8010 	pop	{r4, pc}

00009174 <delay_sec>:
    9174:	e92d4010 	push	{r4, lr}
    9178:	e0603280 	rsb	r3, r0, r0, lsl #5
    917c:	e0800103 	add	r0, r0, r3, lsl #2
    9180:	e1a00180 	lsl	r0, r0, #3
    9184:	ebfffff4 	bl	915c <delay_ms>
    9188:	e8bd8010 	pop	{r4, pc}

0000918c <put32>:
    918c:	e5801000 	str	r1, [r0]
    9190:	e12fff1e 	bx	lr

00009194 <PUT32>:
    9194:	e5801000 	str	r1, [r0]
    9198:	e12fff1e 	bx	lr

0000919c <put16>:
    919c:	e1c010b0 	strh	r1, [r0]
    91a0:	e12fff1e 	bx	lr

000091a4 <PUT16>:
    91a4:	e1c010b0 	strh	r1, [r0]
    91a8:	e12fff1e 	bx	lr

000091ac <put8>:
    91ac:	e5c01000 	strb	r1, [r0]
    91b0:	e12fff1e 	bx	lr

000091b4 <PUT8>:
    91b4:	e5c01000 	strb	r1, [r0]
    91b8:	e12fff1e 	bx	lr

000091bc <get32>:
    91bc:	e5900000 	ldr	r0, [r0]
    91c0:	e12fff1e 	bx	lr

000091c4 <GET32>:
    91c4:	e5900000 	ldr	r0, [r0]
    91c8:	e12fff1e 	bx	lr

000091cc <GETPC>:
    91cc:	e1a0000e 	mov	r0, lr
    91d0:	e12fff1e 	bx	lr

000091d4 <dummy>:
    91d4:	e12fff1e 	bx	lr

000091d8 <or_in32>:
    91d8:	e92d4070 	push	{r4, r5, r6, lr}
    91dc:	e1a04000 	mov	r4, r0
    91e0:	e1a05001 	mov	r5, r1
    91e4:	ebfffff4 	bl	91bc <get32>
    91e8:	e1801005 	orr	r1, r0, r5
    91ec:	e1a00004 	mov	r0, r4
    91f0:	ebffffe5 	bl	918c <put32>
    91f4:	e8bd8070 	pop	{r4, r5, r6, pc}

000091f8 <uart_init>:
    91f8:	e92d4010 	push	{r4, lr}
    91fc:	e3a01002 	mov	r1, #2
    9200:	e3a0000e 	mov	r0, #14
    9204:	eb000051 	bl	9350 <gpio_set_function>
    9208:	e3a01002 	mov	r1, #2
    920c:	e3a0000f 	mov	r0, #15
    9210:	eb00004e 	bl	9350 <gpio_set_function>
    9214:	eb0000fa 	bl	9604 <dev_barrier>
    9218:	e3a01001 	mov	r1, #1
    921c:	e59f0064 	ldr	r0, [pc, #100]	; 9288 <uart_init+0x90>
    9220:	ebffffec 	bl	91d8 <or_in32>
    9224:	eb0000f6 	bl	9604 <dev_barrier>
    9228:	e59f405c 	ldr	r4, [pc, #92]	; 928c <uart_init+0x94>
    922c:	e3a01000 	mov	r1, #0
    9230:	e1a00004 	mov	r0, r4
    9234:	ebffffd4 	bl	918c <put32>
    9238:	e3a01000 	mov	r1, #0
    923c:	e59f004c 	ldr	r0, [pc, #76]	; 9290 <uart_init+0x98>
    9240:	ebffffd1 	bl	918c <put32>
    9244:	e3a01003 	mov	r1, #3
    9248:	e59f0044 	ldr	r0, [pc, #68]	; 9294 <uart_init+0x9c>
    924c:	ebffffce 	bl	918c <put32>
    9250:	e3a01000 	mov	r1, #0
    9254:	e59f003c 	ldr	r0, [pc, #60]	; 9298 <uart_init+0xa0>
    9258:	ebffffcb 	bl	918c <put32>
    925c:	e3a010c7 	mov	r1, #199	; 0xc7
    9260:	e59f0034 	ldr	r0, [pc, #52]	; 929c <uart_init+0xa4>
    9264:	ebffffc8 	bl	918c <put32>
    9268:	e59f1030 	ldr	r1, [pc, #48]	; 92a0 <uart_init+0xa8>
    926c:	e59f0030 	ldr	r0, [pc, #48]	; 92a4 <uart_init+0xac>
    9270:	ebffffc5 	bl	918c <put32>
    9274:	e3a01003 	mov	r1, #3
    9278:	e1a00004 	mov	r0, r4
    927c:	ebffffc2 	bl	918c <put32>
    9280:	eb0000df 	bl	9604 <dev_barrier>
    9284:	e8bd8010 	pop	{r4, pc}
    9288:	20215004 	eorcs	r5, r1, r4
    928c:	20215060 	eorcs	r5, r1, r0, rrx
    9290:	20215044 	eorcs	r5, r1, r4, asr #32
    9294:	2021504c 	eorcs	r5, r1, ip, asr #32
    9298:	20215050 	eorcs	r5, r1, r0, asr r0
    929c:	20215048 	eorcs	r5, r1, r8, asr #32
    92a0:	0000010e 	andeq	r0, r0, lr, lsl #2
    92a4:	20215068 	eorcs	r5, r1, r8, rrx

000092a8 <uart_can_getc>:
    92a8:	e92d4010 	push	{r4, lr}
    92ac:	e59f0008 	ldr	r0, [pc, #8]	; 92bc <uart_can_getc+0x14>
    92b0:	ebffffc1 	bl	91bc <get32>
    92b4:	e2000001 	and	r0, r0, #1
    92b8:	e8bd8010 	pop	{r4, pc}
    92bc:	20215064 	eorcs	r5, r1, r4, rrx

000092c0 <uart_can_putc>:
    92c0:	e92d4010 	push	{r4, lr}
    92c4:	e59f0010 	ldr	r0, [pc, #16]	; 92dc <uart_can_putc+0x1c>
    92c8:	ebffffbb 	bl	91bc <get32>
    92cc:	e3100002 	tst	r0, #2
    92d0:	13a00001 	movne	r0, #1
    92d4:	03a00000 	moveq	r0, #0
    92d8:	e8bd8010 	pop	{r4, pc}
    92dc:	20215064 	eorcs	r5, r1, r4, rrx

000092e0 <uart_getc>:
    92e0:	e92d4010 	push	{r4, lr}
    92e4:	eb0000c6 	bl	9604 <dev_barrier>
    92e8:	ebffffee 	bl	92a8 <uart_can_getc>
    92ec:	e3500000 	cmp	r0, #0
    92f0:	0afffffc 	beq	92e8 <uart_getc+0x8>
    92f4:	e59f0010 	ldr	r0, [pc, #16]	; 930c <uart_getc+0x2c>
    92f8:	ebffffaf 	bl	91bc <get32>
    92fc:	e6ef4070 	uxtb	r4, r0
    9300:	eb0000bf 	bl	9604 <dev_barrier>
    9304:	e1a00004 	mov	r0, r4
    9308:	e8bd8010 	pop	{r4, pc}
    930c:	20215040 	eorcs	r5, r1, r0, asr #32

00009310 <uart_putc>:
    9310:	e92d4010 	push	{r4, lr}
    9314:	e1a04000 	mov	r4, r0
    9318:	eb0000b9 	bl	9604 <dev_barrier>
    931c:	ebffffe7 	bl	92c0 <uart_can_putc>
    9320:	e3500000 	cmp	r0, #0
    9324:	0afffffc 	beq	931c <uart_putc+0xc>
    9328:	e6ef1074 	uxtb	r1, r4
    932c:	e59f0008 	ldr	r0, [pc, #8]	; 933c <uart_putc+0x2c>
    9330:	ebffff95 	bl	918c <put32>
    9334:	eb0000b2 	bl	9604 <dev_barrier>
    9338:	e8bd8010 	pop	{r4, pc}
    933c:	20215040 	eorcs	r5, r1, r0, asr #32

00009340 <uart_has_data>:
    9340:	e92d4010 	push	{r4, lr}
    9344:	eb0000ae 	bl	9604 <dev_barrier>
    9348:	ebffffd6 	bl	92a8 <uart_can_getc>
    934c:	e8bd8010 	pop	{r4, pc}

00009350 <gpio_set_function>:
    9350:	e350001f 	cmp	r0, #31
    9354:	812fff1e 	bxhi	lr
    9358:	e3d13007 	bics	r3, r1, #7
    935c:	112fff1e 	bxne	lr
    9360:	e92d4070 	push	{r4, r5, r6, lr}
    9364:	e1a05001 	mov	r5, r1
    9368:	e59f3044 	ldr	r3, [pc, #68]	; 93b4 <gpio_set_function+0x64>
    936c:	e0832093 	umull	r2, r3, r3, r0
    9370:	e1a031a3 	lsr	r3, r3, #3
    9374:	e1a06003 	mov	r6, r3
    9378:	e0833103 	add	r3, r3, r3, lsl #2
    937c:	e1a02083 	lsl	r2, r3, #1
    9380:	e0403002 	sub	r3, r0, r2
    9384:	e0834083 	add	r4, r3, r3, lsl #1
    9388:	e2866302 	add	r6, r6, #134217728	; 0x8000000
    938c:	e2866702 	add	r6, r6, #524288	; 0x80000
    9390:	e1a06106 	lsl	r6, r6, #2
    9394:	e1a00006 	mov	r0, r6
    9398:	ebffff89 	bl	91c4 <GET32>
    939c:	e3a01007 	mov	r1, #7
    93a0:	e1c01411 	bic	r1, r0, r1, lsl r4
    93a4:	e1811415 	orr	r1, r1, r5, lsl r4
    93a8:	e1a00006 	mov	r0, r6
    93ac:	ebffff78 	bl	9194 <PUT32>
    93b0:	e8bd8070 	pop	{r4, r5, r6, pc}
    93b4:	cccccccd 	stclgt	12, cr12, [ip], {205}	; 0xcd

000093b8 <gpio_set_output>:
    93b8:	e92d4010 	push	{r4, lr}
    93bc:	e3a01001 	mov	r1, #1
    93c0:	ebffffe2 	bl	9350 <gpio_set_function>
    93c4:	e8bd8010 	pop	{r4, pc}

000093c8 <gpio_set_on>:
    93c8:	e350001f 	cmp	r0, #31
    93cc:	812fff1e 	bxhi	lr
    93d0:	e92d4010 	push	{r4, lr}
    93d4:	e3a01001 	mov	r1, #1
    93d8:	e1a01011 	lsl	r1, r1, r0
    93dc:	e59f0004 	ldr	r0, [pc, #4]	; 93e8 <gpio_set_on+0x20>
    93e0:	ebffff6b 	bl	9194 <PUT32>
    93e4:	e8bd8010 	pop	{r4, pc}
    93e8:	2020001c 	eorcs	r0, r0, ip, lsl r0

000093ec <gpio_set_off>:
    93ec:	e350001f 	cmp	r0, #31
    93f0:	812fff1e 	bxhi	lr
    93f4:	e92d4010 	push	{r4, lr}
    93f8:	e3a01001 	mov	r1, #1
    93fc:	e1a01011 	lsl	r1, r1, r0
    9400:	e59f0004 	ldr	r0, [pc, #4]	; 940c <gpio_set_off+0x20>
    9404:	ebffff62 	bl	9194 <PUT32>
    9408:	e8bd8010 	pop	{r4, pc}
    940c:	20200028 	eorcs	r0, r0, r8, lsr #32

00009410 <gpio_set_input>:
    9410:	e92d4010 	push	{r4, lr}
    9414:	e3a01000 	mov	r1, #0
    9418:	ebffffcc 	bl	9350 <gpio_set_function>
    941c:	e8bd8010 	pop	{r4, pc}

00009420 <gpio_write>:
    9420:	e92d4010 	push	{r4, lr}
    9424:	e3510000 	cmp	r1, #0
    9428:	1a000001 	bne	9434 <gpio_write+0x14>
    942c:	ebffffee 	bl	93ec <gpio_set_off>
    9430:	e8bd8010 	pop	{r4, pc}
    9434:	ebffffe3 	bl	93c8 <gpio_set_on>
    9438:	e8bd8010 	pop	{r4, pc}

0000943c <gpio_read>:
    943c:	e350001f 	cmp	r0, #31
    9440:	8a000007 	bhi	9464 <gpio_read+0x28>
    9444:	e92d4010 	push	{r4, lr}
    9448:	e200401f 	and	r4, r0, #31
    944c:	e59f3018 	ldr	r3, [pc, #24]	; 946c <gpio_read+0x30>
    9450:	e08302a0 	add	r0, r3, r0, lsr #5
    9454:	ebffff5a 	bl	91c4 <GET32>
    9458:	e1a00430 	lsr	r0, r0, r4
    945c:	e2000001 	and	r0, r0, #1
    9460:	e8bd8010 	pop	{r4, pc}
    9464:	e3e00000 	mvn	r0, #0
    9468:	e12fff1e 	bx	lr
    946c:	20200034 	eorcs	r0, r0, r4, lsr r0

00009470 <kmalloc_heap_end>:
    9470:	e59f3004 	ldr	r3, [pc, #4]	; 947c <kmalloc_heap_end+0xc>
    9474:	e5930000 	ldr	r0, [r3]
    9478:	e12fff1e 	bx	lr
    947c:	00009624 	andeq	r9, r0, r4, lsr #12

00009480 <kmalloc_heap_start>:
    9480:	e59f0000 	ldr	r0, [pc]	; 9488 <kmalloc_heap_start+0x8>
    9484:	e12fff1e 	bx	lr
    9488:	0000a000 	andeq	sl, r0, r0

0000948c <kmalloc_init_set_start>:
    948c:	e59f3038 	ldr	r3, [pc, #56]	; 94cc <kmalloc_init_set_start+0x40>
    9490:	e5933000 	ldr	r3, [r3]
    9494:	e1500003 	cmp	r0, r3
    9498:	9a000003 	bls	94ac <kmalloc_init_set_start+0x20>
    949c:	e59f3028 	ldr	r3, [pc, #40]	; 94cc <kmalloc_init_set_start+0x40>
    94a0:	e5830000 	str	r0, [r3]
    94a4:	e5830004 	str	r0, [r3, #4]
    94a8:	e12fff1e 	bx	lr
    94ac:	e92d4010 	push	{r4, lr}
    94b0:	ebfffd80 	bl	8ab8 <rpi_reset_putc>
    94b4:	e3a03016 	mov	r3, #22
    94b8:	e59f2010 	ldr	r2, [pc, #16]	; 94d0 <kmalloc_init_set_start+0x44>
    94bc:	e59f1010 	ldr	r1, [pc, #16]	; 94d4 <kmalloc_init_set_start+0x48>
    94c0:	e59f0010 	ldr	r0, [pc, #16]	; 94d8 <kmalloc_init_set_start+0x4c>
    94c4:	ebfffd60 	bl	8a4c <printk>
    94c8:	ebfffed9 	bl	9034 <clean_reboot>
    94cc:	00009624 	andeq	r9, r0, r4, lsr #12
    94d0:	00009ad4 	ldrdeq	r9, [r0], -r4
    94d4:	00009b04 	andeq	r9, r0, r4, lsl #22
    94d8:	00009b10 	andeq	r9, r0, r0, lsl fp

000094dc <kmalloc>:
    94dc:	e92d4010 	push	{r4, lr}
    94e0:	e3500000 	cmp	r0, #0
    94e4:	0a00000a 	beq	9514 <kmalloc+0x38>
    94e8:	e2802007 	add	r2, r0, #7
    94ec:	e3c22007 	bic	r2, r2, #7
    94f0:	e59f3038 	ldr	r3, [pc, #56]	; 9530 <kmalloc+0x54>
    94f4:	e5934000 	ldr	r4, [r3]
    94f8:	e0841002 	add	r1, r4, r2
    94fc:	e5831000 	str	r1, [r3]
    9500:	e3a01000 	mov	r1, #0
    9504:	e1a00004 	mov	r0, r4
    9508:	ebfffd49 	bl	8a34 <memset>
    950c:	e1a00004 	mov	r0, r4
    9510:	e8bd8010 	pop	{r4, pc}
    9514:	ebfffd67 	bl	8ab8 <rpi_reset_putc>
    9518:	e3a0301b 	mov	r3, #27
    951c:	e59f2010 	ldr	r2, [pc, #16]	; 9534 <kmalloc+0x58>
    9520:	e59f1010 	ldr	r1, [pc, #16]	; 9538 <kmalloc+0x5c>
    9524:	e59f0010 	ldr	r0, [pc, #16]	; 953c <kmalloc+0x60>
    9528:	ebfffd47 	bl	8a4c <printk>
    952c:	ebfffec0 	bl	9034 <clean_reboot>
    9530:	00009624 	andeq	r9, r0, r4, lsr #12
    9534:	00009aec 	andeq	r9, r0, ip, ror #21
    9538:	00009b04 	andeq	r9, r0, r4, lsl #22
    953c:	00009b2c 	andeq	r9, r0, ip, lsr #22

00009540 <kmalloc_init>:
    9540:	e12fff1e 	bx	lr

00009544 <kmalloc_heap_ptr>:
    9544:	e92d4010 	push	{r4, lr}
    9548:	ebffffcc 	bl	9480 <kmalloc_heap_start>
    954c:	e8bd8010 	pop	{r4, pc}

00009550 <kmalloc_aligned>:
    9550:	e92d4010 	push	{r4, lr}
    9554:	e2613000 	rsb	r3, r1, #0
    9558:	e1d12003 	bics	r2, r1, r3
    955c:	1a00000b 	bne	9590 <kmalloc_aligned+0x40>
    9560:	e59f2060 	ldr	r2, [pc, #96]	; 95c8 <kmalloc_aligned+0x78>
    9564:	e5922000 	ldr	r2, [r2]
    9568:	e0812002 	add	r2, r1, r2
    956c:	e2422001 	sub	r2, r2, #1
    9570:	e0033002 	and	r3, r3, r2
    9574:	e2411001 	sub	r1, r1, #1
    9578:	e1130001 	tst	r3, r1
    957c:	1a00000a 	bne	95ac <kmalloc_aligned+0x5c>
    9580:	e59f2040 	ldr	r2, [pc, #64]	; 95c8 <kmalloc_aligned+0x78>
    9584:	e5823000 	str	r3, [r2]
    9588:	ebffffd3 	bl	94dc <kmalloc>
    958c:	e8bd8010 	pop	{r4, pc}
    9590:	ebfffd48 	bl	8ab8 <rpi_reset_putc>
    9594:	e3a0302a 	mov	r3, #42	; 0x2a
    9598:	e59f202c 	ldr	r2, [pc, #44]	; 95cc <kmalloc_aligned+0x7c>
    959c:	e59f102c 	ldr	r1, [pc, #44]	; 95d0 <kmalloc_aligned+0x80>
    95a0:	e59f002c 	ldr	r0, [pc, #44]	; 95d4 <kmalloc_aligned+0x84>
    95a4:	ebfffd28 	bl	8a4c <printk>
    95a8:	ebfffea1 	bl	9034 <clean_reboot>
    95ac:	ebfffd41 	bl	8ab8 <rpi_reset_putc>
    95b0:	e3a03030 	mov	r3, #48	; 0x30
    95b4:	e59f2010 	ldr	r2, [pc, #16]	; 95cc <kmalloc_aligned+0x7c>
    95b8:	e59f1010 	ldr	r1, [pc, #16]	; 95d0 <kmalloc_aligned+0x80>
    95bc:	e59f0014 	ldr	r0, [pc, #20]	; 95d8 <kmalloc_aligned+0x88>
    95c0:	ebfffd21 	bl	8a4c <printk>
    95c4:	ebfffe9a 	bl	9034 <clean_reboot>
    95c8:	00009624 	andeq	r9, r0, r4, lsr #12
    95cc:	00009af4 	strdeq	r9, [r0], -r4
    95d0:	00009b04 	andeq	r9, r0, r4, lsl #22
    95d4:	00009b40 	andeq	r9, r0, r0, asr #22
    95d8:	00009ba0 	andeq	r9, r0, r0, lsr #23

000095dc <kfree>:
    95dc:	e12fff1e 	bx	lr

000095e0 <kfree_all>:
    95e0:	e59f3008 	ldr	r3, [pc, #8]	; 95f0 <kfree_all+0x10>
    95e4:	e5932004 	ldr	r2, [r3, #4]
    95e8:	e5832000 	str	r2, [r3]
    95ec:	e12fff1e 	bx	lr
    95f0:	00009624 	andeq	r9, r0, r4, lsr #12

000095f4 <kfree_after>:
    95f4:	e59f3004 	ldr	r3, [pc, #4]	; 9600 <kfree_after+0xc>
    95f8:	e5830000 	str	r0, [r3]
    95fc:	e12fff1e 	bx	lr
    9600:	00009624 	andeq	r9, r0, r4, lsr #12

00009604 <dev_barrier>:
    9604:	ea000002 	b	9614 <dsb>

00009608 <dmb>:
    9608:	e3a00000 	mov	r0, #0
    960c:	ee070fba 	mcr	15, 0, r0, cr7, cr10, {5}
    9610:	e12fff1e 	bx	lr

00009614 <dsb>:
    9614:	ee070f9a 	mcr	15, 0, r0, cr7, cr10, {4}
    9618:	e12fff1e 	bx	lr

Disassembly of section .data:

0000961c <rpi_putchar>:
    961c:	00008aa4 	andeq	r8, r0, r4, lsr #21

00009620 <putk>:
    9620:	00008ae0 	andeq	r8, r0, r0, ror #21

00009624 <heap>:
    9624:	0000a000 	andeq	sl, r0, r0

00009628 <heap_start>:
    9628:	0000a000 	andeq	sl, r0, r0

Disassembly of section .rodata:

0000962c <__FUNCTION__.4337-0x8c>:
    962c:	74736574 	ldrbtvc	r6, [r3], #-1396	; 0xfffffa8c
    9630:	75203a33 	strvc	r3, [r0, #-2611]!	; 0xfffff5cd
    9634:	61206573 			; <UNDEFINED> instruction: 0x61206573
    9638:	72657466 	rsbvc	r7, r5, #1711276032	; 0x66000000
    963c:	65726620 	ldrbvs	r6, [r2, #-1568]!	; 0xfffff9e0
    9640:	00000a65 	andeq	r0, r0, r5, ror #20
    9644:	74726170 	ldrbtvc	r6, [r2], #-368	; 0xfffffe90
    9648:	65742d31 	ldrbvs	r2, [r4, #-3377]!	; 0xfffff2cf
    964c:	2e337473 	mrccs	4, 1, r7, cr3, cr3, {3}
    9650:	00000063 	andeq	r0, r0, r3, rrx
    9654:	494e4150 	stmdbmi	lr, {r4, r6, r8, lr}^
    9658:	73253a43 			; <UNDEFINED> instruction: 0x73253a43
    965c:	3a73253a 	bcc	1cd2b4c <__bss_end__+0x1cc8b4c>
    9660:	693a6425 	ldmdbvs	sl!, {r0, r2, r5, sl, sp, lr}
    9664:	6c61766e 	stclvs	6, cr7, [r1], #-440	; 0xfffffe48
    9668:	65206469 	strvs	r6, [r0, #-1129]!	; 0xfffffb97
    966c:	726f7272 	rsbvc	r7, pc, #536870919	; 0x20000007
    9670:	6168203a 	cmnvs	r8, sl, lsr r0
    9674:	25206576 	strcs	r6, [r0, #-1398]!	; 0xfffffa8a
    9678:	72652064 	rsbvc	r2, r5, #100	; 0x64
    967c:	73726f72 	cmnvc	r2, #456	; 0x1c8
    9680:	70786520 	rsbsvc	r6, r8, r0, lsr #10
    9684:	65746365 	ldrbvs	r6, [r4, #-869]!	; 0xfffffc9b
    9688:	21312064 	teqcs	r1, r4, rrx
    968c:	000a0a21 	andeq	r0, sl, r1, lsr #20
    9690:	43415254 	movtmi	r5, #4692	; 0x1254
    9694:	00003a45 	andeq	r3, r0, r5, asr #20
    9698:	43435553 	movtmi	r5, #13651	; 0x3553
    969c:	3a535345 	bcc	14de3b8 <__bss_end__+0x14d43b8>
    96a0:	74656420 	strbtvc	r6, [r5], #-1056	; 0xfffffbe0
    96a4:	65746365 	ldrbvs	r6, [r4, #-869]!	; 0xfffffc9b
    96a8:	6f632064 	svcvs	0x00632064
    96ac:	70757272 	rsbsvc	r7, r5, r2, ror r2
    96b0:	6e6f6974 			; <UNDEFINED> instruction: 0x6e6f6974
    96b4:	0000000a 	andeq	r0, r0, sl

000096b8 <__FUNCTION__.4337>:
    96b8:	6d746f6e 	ldclvs	15, cr6, [r4, #-440]!	; 0xfffffe48
    96bc:	006e6961 	rsbeq	r6, lr, r1, ror #18
    96c0:	4f525245 	svcmi	0x00525245
    96c4:	00003a52 	andeq	r3, r0, r2, asr sl
    96c8:	636f6c62 	cmnvs	pc, #25088	; 0x6200
    96cc:	7025206b 	eorvc	r2, r5, fp, rrx
    96d0:	726f6320 	rsbvc	r6, pc, #32, 6	; 0x80000000
    96d4:	74707572 	ldrbtvc	r7, [r0], #-1394	; 0xfffffa8e
    96d8:	61206465 			; <UNDEFINED> instruction: 0x61206465
    96dc:	666f2074 			; <UNDEFINED> instruction: 0x666f2074
    96e0:	74657366 	strbtvc	r7, [r5], #-870	; 0xfffffc9a
    96e4:	0a642520 	beq	1912b6c <__bss_end__+0x1908b6c>
    96e8:	00000000 	andeq	r0, r0, r0
    96ec:	79626e09 	stmdbvc	r2!, {r0, r3, r9, sl, fp, sp, lr}^
    96f0:	3d736574 	cfldr64cc	mvdx6, [r3, #-464]!	; 0xfffffe30
    96f4:	000a6425 	andeq	r6, sl, r5, lsr #8
    96f8:	6f6c4209 	svcvs	0x006c4209
    96fc:	61206b63 			; <UNDEFINED> instruction: 0x61206b63
    9700:	636f6c6c 	cmnvs	pc, #108, 24	; 0x6c00
    9704:	64657461 	strbtvs	r7, [r5], #-1121	; 0xfffffb9f
    9708:	3a746120 	bcc	1d21b90 <__bss_end__+0x1d17b90>
    970c:	3a732520 	bcc	1cd2b94 <__bss_end__+0x1cc8b94>
    9710:	253a7325 	ldrcs	r7, [sl, #-805]!	; 0xfffffcdb
    9714:	00000a64 	andeq	r0, r0, r4, ror #20
    9718:	6f6c4209 	svcvs	0x006c4209
    971c:	66206b63 	strtvs	r6, [r0], -r3, ror #22
    9720:	64656572 	strbtvs	r6, [r5], #-1394	; 0xfffffa8e
    9724:	3a746120 	bcc	1d21bac <__bss_end__+0x1d17bac>
    9728:	3a732520 	bcc	1cd2bb0 <__bss_end__+0x1cc8bb0>
    972c:	253a7325 	ldrcs	r7, [sl, #-805]!	; 0xfffffcdb
    9730:	00000a64 	andeq	r0, r0, r4, ror #20
    9734:	6f725709 	svcvs	0x00725709
    9738:	62206574 	eorvs	r6, r0, #116, 10	; 0x1d000000
    973c:	6b636f6c 	blvs	18e54f4 <__bss_end__+0x18db4f4>
    9740:	74666120 	strbtvc	r6, [r6], #-288	; 0xfffffee0
    9744:	66207265 	strtvs	r7, [r0], -r5, ror #4
    9748:	21656572 	smccs	22098	; 0x5652
    974c:	0000000a 	andeq	r0, r0, sl
    9750:	6c616b63 			; <UNDEFINED> instruction: 0x6c616b63
    9754:	2e636f6c 	cdpcs	15, 6, cr6, cr3, cr12, {3}
    9758:	00000063 	andeq	r0, r0, r3, rrx
    975c:	494e4150 	stmdbmi	lr, {r4, r6, r8, lr}^
    9760:	73253a43 			; <UNDEFINED> instruction: 0x73253a43
    9764:	3a73253a 	bcc	1cd2c54 <__bss_end__+0x1cc8c54>
    9768:	613a6425 	teqvs	sl, r5, lsr #8
    976c:	6e67696c 	vnmulvs.f16	s13, s14, s25	; <UNPREDICTABLE>
    9770:	68286465 	stmdavs	r8!, {r0, r2, r5, r6, sl, sp, lr}
    9774:	5f706165 	svcpl	0x00706165
    9778:	72617473 	rsbvc	r7, r1, #1929379840	; 0x73000000
    977c:	38202c74 	stmdacc	r0!, {r2, r4, r5, r6, sl, fp, sp}
    9780:	00000a29 	andeq	r0, r0, r9, lsr #20
    9784:	657a6973 	ldrbvs	r6, [sl, #-2419]!	; 0xfffff68d
    9788:	6820666f 	stmdavs	r0!, {r0, r1, r2, r3, r5, r6, r9, sl, sp, lr}
    978c:	253d7264 	ldrcs	r7, [sp, #-612]!	; 0xfffffd9c
    9790:	72202c64 	eorvc	r2, r0, #100, 24	; 0x6400
    9794:	6f7a6465 	svcvs	0x007a6465
    9798:	253d656e 	ldrcs	r6, [sp, #-1390]!	; 0xfffffa92
    979c:	00000a64 	andeq	r0, r0, r4, ror #20
    97a0:	4f525245 	svcmi	0x00525245
    97a4:	73253a52 			; <UNDEFINED> instruction: 0x73253a52
    97a8:	3a73253a 	bcc	1cd2c98 <__bss_end__+0x1cc8c98>
    97ac:	203a6425 	eorscs	r6, sl, r5, lsr #8
    97b0:	534c4146 	movtpl	r4, #49478	; 0xc146
    97b4:	683c2845 	ldmdavs	ip!, {r0, r2, r6, fp, sp}
    97b8:	3e706165 	rpwccsz	f6, f0, f5
    97bc:	6e203a29 	vmulvs.f32	s6, s0, s19
    97c0:	6920746f 	stmdbvs	r0!, {r0, r1, r2, r3, r5, r6, sl, ip, sp, lr}
    97c4:	6974696e 	ldmdbvs	r4!, {r1, r2, r3, r5, r6, r8, fp, sp, lr}^
    97c8:	7a696c61 	bvc	1a64954 <__bss_end__+0x1a5a954>
    97cc:	0a3f6465 	beq	fe2968 <__bss_end__+0xfd8968>
    97d0:	00000000 	andeq	r0, r0, r0
    97d4:	65657266 	strbvs	r7, [r5, #-614]!	; 0xfffffd9a
    97d8:	20676e69 	rsbcs	r6, r7, r9, ror #28
    97dc:	000a7025 	andeq	r7, sl, r5, lsr #32
    97e0:	6f6c6c61 	svcvs	0x006c6c61
    97e4:	69746163 	ldmdbvs	r4!, {r0, r1, r5, r6, r8, sp, lr}^
    97e8:	2520676e 	strcs	r6, [r0, #-1902]!	; 0xfffff892
    97ec:	79622064 	stmdbvc	r2!, {r2, r5, r6, sp}^
    97f0:	0a736574 	beq	1ce2dc8 <__bss_end__+0x1cd8dc8>
    97f4:	00000000 	andeq	r0, r0, r0
    97f8:	43415254 	movtmi	r5, #4692	; 0x1254
    97fc:	52453a45 	subpl	r3, r5, #282624	; 0x45000
    9800:	00524f52 	subseq	r4, r2, r2, asr pc
    9804:	657a6973 	ldrbvs	r6, [sl, #-2419]!	; 0xfffff68d
    9808:	65766f20 	ldrbvs	r6, [r6, #-3872]!	; 0xfffff0e0
    980c:	6f6c6672 	svcvs	0x006c6672
    9810:	3a646577 	bcc	1922df4 <__bss_end__+0x1918df4>
    9814:	20642520 	rsbcs	r2, r4, r0, lsr #10
    9818:	65747962 	ldrbvs	r7, [r4, #-2402]!	; 0xfffff69e
    981c:	73692073 	cmnvc	r9, #115	; 0x73
    9820:	6f6f7420 	svcvs	0x006f7420
    9824:	72616c20 	rsbvc	r6, r1, #32, 24	; 0x2000
    9828:	000a6567 	andeq	r6, sl, r7, ror #10
    982c:	494e4150 	stmdbmi	lr, {r4, r6, r8, lr}^
    9830:	73253a43 			; <UNDEFINED> instruction: 0x73253a43
    9834:	3a73253a 	bcc	1cd2d24 <__bss_end__+0x1cc8d24>
    9838:	733a6425 	teqvc	sl, #620756992	; 0x25000000
    983c:	20657a69 	rsbcs	r7, r5, r9, ror #20
    9840:	7265766f 	rsbvc	r7, r5, #116391936	; 0x6f00000
    9844:	776f6c66 	strbvc	r6, [pc, -r6, ror #24]!
    9848:	203a6465 	eorscs	r6, sl, r5, ror #8
    984c:	62206425 	eorvs	r6, r0, #620756992	; 0x25000000
    9850:	73657479 	cmnvc	r5, #2030043136	; 0x79000000
    9854:	20736920 	rsbscs	r6, r3, r0, lsr #18
    9858:	206f6f74 	rsbcs	r6, pc, r4, ror pc	; <UNPREDICTABLE>
    985c:	6772616c 	ldrbvs	r6, [r2, -ip, ror #2]!
    9860:	000a0a65 	andeq	r0, sl, r5, ror #20
    9864:	2074756f 	rsbscs	r7, r4, pc, ror #10
    9868:	6d20666f 	stcvs	6, cr6, [r0, #-444]!	; 0xfffffe44
    986c:	726f6d65 	rsbvc	r6, pc, #6464	; 0x1940
    9870:	20202179 	eorcs	r2, r0, r9, ror r1
    9874:	65766168 	ldrbvs	r6, [r6, #-360]!	; 0xfffffe98
    9878:	6c6e6f20 	stclvs	15, cr6, [lr], #-128	; 0xffffff80
    987c:	64252079 	strtvs	r2, [r5], #-121	; 0xffffff87
    9880:	66656c20 	strbtvs	r6, [r5], -r0, lsr #24
    9884:	6e202c74 	mcrvs	12, 1, r2, cr0, cr4, {3}
    9888:	20646565 	rsbcs	r6, r4, r5, ror #10
    988c:	000a6425 	andeq	r6, sl, r5, lsr #8
    9890:	494e4150 	stmdbmi	lr, {r4, r6, r8, lr}^
    9894:	73253a43 			; <UNDEFINED> instruction: 0x73253a43
    9898:	3a73253a 	bcc	1cd2d88 <__bss_end__+0x1cc8d88>
    989c:	6f3a6425 	svcvs	0x003a6425
    98a0:	6f207475 	svcvs	0x00207475
    98a4:	656d2066 	strbvs	r2, [sp, #-102]!	; 0xffffff9a
    98a8:	79726f6d 	ldmdbvc	r2!, {r0, r2, r3, r5, r6, r8, r9, sl, fp, sp, lr}^
    98ac:	68202021 	stmdavs	r0!, {r0, r5, sp}
    98b0:	20657661 	rsbcs	r7, r5, r1, ror #12
    98b4:	796c6e6f 	stmdbvc	ip!, {r0, r1, r2, r3, r5, r6, r9, sl, fp, sp, lr}^
    98b8:	20642520 	rsbcs	r2, r4, r0, lsr #10
    98bc:	7466656c 	strbtvc	r6, [r6], #-1388	; 0xfffffa94
    98c0:	656e202c 	strbvs	r2, [lr, #-44]!	; 0xffffffd4
    98c4:	25206465 	strcs	r6, [r0, #-1125]!	; 0xfffffb9b
    98c8:	000a0a64 	andeq	r0, sl, r4, ror #20
    98cc:	494e4150 	stmdbmi	lr, {r4, r6, r8, lr}^
    98d0:	73253a43 			; <UNDEFINED> instruction: 0x73253a43
    98d4:	3a73253a 	bcc	1cd2dc4 <__bss_end__+0x1cc8dc4>
    98d8:	633a6425 	teqvs	sl, #620756992	; 0x25000000
    98dc:	6b636568 	blvs	18e2e84 <__bss_end__+0x18d8e84>
    98e0:	6f6c625f 	svcvs	0x006c625f
    98e4:	68286b63 	stmdavs	r8!, {r0, r1, r5, r6, r8, r9, fp, sp, lr}
    98e8:	00000a29 	andeq	r0, r0, r9, lsr #20
    98ec:	6c616b63 			; <UNDEFINED> instruction: 0x6c616b63
    98f0:	3a636f6c 	bcc	18e56a8 <__bss_end__+0x18db6a8>
    98f4:	6f6c6c61 	svcvs	0x006c6c61
    98f8:	65746163 	ldrbvs	r6, [r4, #-355]!	; 0xfffffe9d
    98fc:	64252064 	strtvs	r2, [r5], #-100	; 0xffffff9c
    9900:	74796220 	ldrbtvc	r6, [r9], #-544	; 0xfffffde0
    9904:	202c7365 	eorcs	r7, ip, r5, ror #6
    9908:	746f7428 	strbtvc	r7, [pc], #-1064	; 9910 <__FUNCTION__.4337+0x258>
    990c:	253d6c61 	ldrcs	r6, [sp, #-3169]!	; 0xfffff39f
    9910:	202c2964 	eorcs	r2, ip, r4, ror #18
    9914:	3d727470 	cfldrdcc	mvd7, [r2, #-448]!	; 0xfffffe40
    9918:	000a7025 	andeq	r7, sl, r5, lsr #32
    991c:	6e696f67 	cdpvs	15, 6, cr6, cr9, cr7, {3}
    9920:	6f742067 	svcvs	0x00742067
    9924:	65686320 	strbvs	r6, [r8, #-800]!	; 0xfffffce0
    9928:	68206b63 	stmdavs	r0!, {r0, r1, r5, r6, r8, r9, fp, sp, lr}
    992c:	3a706165 	bcc	1c21ec8 <__bss_end__+0x1c17ec8>
    9930:	20642520 	rsbcs	r2, r4, r0, lsr #10
    9934:	65747962 	ldrbvs	r7, [r4, #-2402]!	; 0xfffff69e
    9938:	6c612073 	stclvs	0, cr2, [r1], #-460	; 0xfffffe34
    993c:	61636f6c 	cmnvs	r3, ip, ror #30
    9940:	2c646574 	cfstr64cs	mvdx6, [r4], #-464	; 0xfffffe30
    9944:	20642520 	rsbcs	r2, r4, r0, lsr #10
    9948:	65747962 	ldrbvs	r7, [r4, #-2402]!	; 0xfffff69e
    994c:	656c2073 	strbvs	r2, [ip, #-115]!	; 0xffffff8d
    9950:	000a7466 	andeq	r7, sl, r6, ror #8
    9954:	63656863 	cmnvs	r5, #6488064	; 0x630000
    9958:	2064656b 	rsbcs	r6, r4, fp, ror #10
    995c:	62206425 	eorvs	r6, r0, #620756992	; 0x25000000
    9960:	6b636f6c 	blvs	18e5718 <__bss_end__+0x18db718>
    9964:	64202c73 	strtvs	r2, [r0], #-3187	; 0xfffff38d
    9968:	63657465 	cmnvs	r5, #1694498816	; 0x65000000
    996c:	20646574 	rsbcs	r6, r4, r4, ror r5
    9970:	65206425 	strvs	r6, [r0, #-1061]!	; 0xfffffbdb
    9974:	726f7272 	rsbvc	r7, pc, #536870919	; 0x20000007
    9978:	00000a73 	andeq	r0, r0, r3, ror sl
    997c:	43435553 	movtmi	r5, #13651	; 0x3553
    9980:	3a535345 	bcc	14de69c <__bss_end__+0x14d469c>
    9984:	65686320 	strbvs	r6, [r8, #-800]!	; 0xfffffce0
    9988:	64656b63 	strbtvs	r6, [r5], #-2915	; 0xfffff49d
    998c:	20642520 	rsbcs	r2, r4, r0, lsr #10
    9990:	636f6c62 	cmnvs	pc, #25088	; 0x6200
    9994:	202c736b 	eorcs	r7, ip, fp, ror #6
    9998:	65746564 	ldrbvs	r6, [r4, #-1380]!	; 0xfffffa9c
    999c:	64657463 	strbtvs	r7, [r5], #-1123	; 0xfffffb9d
    99a0:	206f6e20 	rsbcs	r6, pc, r0, lsr #28
    99a4:	6f727265 	svcvs	0x00727265
    99a8:	000a7372 	andeq	r7, sl, r2, ror r3

000099ac <__FUNCTION__.4339>:
    99ac:	695f6b63 	ldmdbvs	pc, {r0, r1, r5, r6, r8, r9, fp, sp, lr}^	; <UNPREDICTABLE>
    99b0:	0074696e 	rsbseq	r6, r4, lr, ror #18

000099b4 <__FUNCTION__.4397>:
    99b4:	72666b63 	rsbvc	r6, r6, #101376	; 0x18c00
    99b8:	00006565 	andeq	r6, r0, r5, ror #10

000099bc <__FUNCTION__.4407>:
    99bc:	6c616b63 			; <UNDEFINED> instruction: 0x6c616b63
    99c0:	00636f6c 	rsbeq	r6, r3, ip, ror #30
    99c4:	6362696c 	cmnvs	r2, #108, 18	; 0x1b0000
    99c8:	2d61762f 	stclcs	6, cr7, [r1, #-188]!	; 0xffffff44
    99cc:	6e697270 	mcrvs	2, 3, r7, cr9, cr0, {3}
    99d0:	632e6b74 			; <UNDEFINED> instruction: 0x632e6b74
    99d4:	00000000 	andeq	r0, r0, r0
    99d8:	494e4150 	stmdbmi	lr, {r4, r6, r8, lr}^
    99dc:	73253a43 			; <UNDEFINED> instruction: 0x73253a43
    99e0:	3a73253a 	bcc	1cd2ed0 <__bss_end__+0x1cc8ed0>
    99e4:	303a6425 	eorscc	r6, sl, r5, lsr #8
    99e8:	0000000a 	andeq	r0, r0, sl
    99ec:	33323130 	teqcc	r2, #48, 2
    99f0:	37363534 			; <UNDEFINED> instruction: 0x37363534
    99f4:	00003938 	andeq	r3, r0, r8, lsr r9
    99f8:	33323130 	teqcc	r2, #48, 2
    99fc:	37363534 			; <UNDEFINED> instruction: 0x37363534
    9a00:	62613938 	rsbvs	r3, r1, #56, 18	; 0xe0000
    9a04:	66656463 	strbtvs	r6, [r5], -r3, ror #8
    9a08:	00000000 	andeq	r0, r0, r0
    9a0c:	00003130 	andeq	r3, r0, r0, lsr r1
    9a10:	494e4150 	stmdbmi	lr, {r4, r6, r8, lr}^
    9a14:	73253a43 			; <UNDEFINED> instruction: 0x73253a43
    9a18:	3a73253a 	bcc	1cd2f08 <__bss_end__+0x1cc8f08>
    9a1c:	703a6425 	eorsvc	r6, sl, r5, lsr #8
    9a20:	5f637475 	svcpl	0x00637475
    9a24:	000a7066 	andeq	r7, sl, r6, rrx
    9a28:	494e4150 	stmdbmi	lr, {r4, r6, r8, lr}^
    9a2c:	73253a43 			; <UNDEFINED> instruction: 0x73253a43
    9a30:	3a73253a 	bcc	1cd2f20 <__bss_end__+0x1cc8f20>
    9a34:	773a6425 	ldrvc	r6, [sl, -r5, lsr #8]!
    9a38:	68746469 	ldmdavs	r4!, {r0, r3, r5, r6, sl, sp, lr}^
    9a3c:	33203c20 			; <UNDEFINED> instruction: 0x33203c20
    9a40:	00000a32 	andeq	r0, r0, r2, lsr sl
    9a44:	494e4150 	stmdbmi	lr, {r4, r6, r8, lr}^
    9a48:	73253a43 			; <UNDEFINED> instruction: 0x73253a43
    9a4c:	3a73253a 	bcc	1cd2f3c <__bss_end__+0x1cc8f3c>
    9a50:	663a6425 	ldrtvs	r6, [sl], -r5, lsr #8
    9a54:	74616f6c 	strbtvc	r6, [r1], #-3948	; 0xfffff094
    9a58:	746f6e20 	strbtvc	r6, [pc], #-3616	; 9a60 <__FUNCTION__.4407+0xa4>
    9a5c:	616e6520 	cmnvs	lr, r0, lsr #10
    9a60:	64656c62 	strbtvs	r6, [r5], #-3170	; 0xfffff39e
    9a64:	0a212121 	beq	851ef0 <__bss_end__+0x847ef0>
    9a68:	00000000 	andeq	r0, r0, r0
    9a6c:	494e4150 	stmdbmi	lr, {r4, r6, r8, lr}^
    9a70:	73253a43 			; <UNDEFINED> instruction: 0x73253a43
    9a74:	3a73253a 	bcc	1cd2f64 <__bss_end__+0x1cc8f64>
    9a78:	703a6425 	eorsvc	r6, sl, r5, lsr #8
    9a7c:	746e6972 	strbtvc	r6, [lr], #-2418	; 0xfffff68e
    9a80:	6e203a6b 	vnmulvs.f32	s6, s0, s23
    9a84:	6820746f 	stmdavs	r0!, {r0, r1, r2, r3, r5, r6, sl, ip, sp, lr}
    9a88:	6c646e61 	stclvs	14, cr6, [r4], #-388	; 0xfffffe7c
    9a8c:	20676e69 	rsbcs	r6, r7, r9, ror #28
    9a90:	63657073 	cmnvs	r5, #115	; 0x73
    9a94:	65696669 	strbvs	r6, [r9, #-1641]!	; 0xfffff997
    9a98:	25272072 	strcs	r2, [r7, #-114]!	; 0xffffff8e
    9a9c:	0a0a2763 	beq	293830 <__bss_end__+0x289830>
    9aa0:	00000000 	andeq	r0, r0, r0

00009aa4 <__FUNCTION__.4349>:
    9aa4:	74696d65 	strbtvc	r6, [r9], #-3429	; 0xfffff29b
    9aa8:	00000000 	andeq	r0, r0, r0

00009aac <__FUNCTION__.4297>:
    9aac:	5f697072 	svcpl	0x00697072
    9ab0:	5f746573 	svcpl	0x00746573
    9ab4:	7074756f 	rsbsvc	r7, r4, pc, ror #10
    9ab8:	00007475 	andeq	r7, r0, r5, ror r4

00009abc <__FUNCTION__.4371>:
    9abc:	705f6176 	subsvc	r6, pc, r6, ror r1	; <UNPREDICTABLE>
    9ac0:	746e6972 	strbtvc	r6, [lr], #-2418	; 0xfffff68e
    9ac4:	0000006b 	andeq	r0, r0, fp, rrx
    9ac8:	454e4f44 	strbmi	r4, [lr, #-3908]	; 0xfffff0bc
    9acc:	0a212121 	beq	851f58 <__bss_end__+0x847f58>
    9ad0:	00000000 	andeq	r0, r0, r0

00009ad4 <__FUNCTION__.4237>:
    9ad4:	6c616d6b 	stclvs	13, cr6, [r1], #-428	; 0xfffffe54
    9ad8:	5f636f6c 	svcpl	0x00636f6c
    9adc:	74696e69 	strbtvc	r6, [r9], #-3689	; 0xfffff197
    9ae0:	7465735f 	strbtvc	r7, [r5], #-863	; 0xfffffca1
    9ae4:	6174735f 	cmnvs	r4, pc, asr r3
    9ae8:	00007472 	andeq	r7, r0, r2, ror r4

00009aec <__FUNCTION__.4241>:
    9aec:	6c616d6b 	stclvs	13, cr6, [r1], #-428	; 0xfffffe54
    9af0:	00636f6c 	rsbeq	r6, r3, ip, ror #30

00009af4 <__FUNCTION__.4253>:
    9af4:	6c616d6b 	stclvs	13, cr6, [r1], #-428	; 0xfffffe54
    9af8:	5f636f6c 	svcpl	0x00636f6c
    9afc:	67696c61 	strbvs	r6, [r9, -r1, ror #24]!
    9b00:	0064656e 	rsbeq	r6, r4, lr, ror #10
    9b04:	6c616d6b 	stclvs	13, cr6, [r1], #-428	; 0xfffffe54
    9b08:	2e636f6c 	cdpcs	15, 6, cr6, cr3, cr12, {3}
    9b0c:	00000063 	andeq	r0, r0, r3, rrx
    9b10:	494e4150 	stmdbmi	lr, {r4, r6, r8, lr}^
    9b14:	73253a43 			; <UNDEFINED> instruction: 0x73253a43
    9b18:	3a73253a 	bcc	1cd3008 <__bss_end__+0x1cc9008>
    9b1c:	613a6425 	teqvs	sl, r5, lsr #8
    9b20:	20726464 	rsbscs	r6, r2, r4, ror #8
    9b24:	6568203e 	strbvs	r2, [r8, #-62]!	; 0xffffffc2
    9b28:	000a7061 	andeq	r7, sl, r1, rrx
    9b2c:	494e4150 	stmdbmi	lr, {r4, r6, r8, lr}^
    9b30:	73253a43 			; <UNDEFINED> instruction: 0x73253a43
    9b34:	3a73253a 	bcc	1cd3024 <__bss_end__+0x1cc9024>
    9b38:	733a6425 	teqvc	sl, #620756992	; 0x25000000
    9b3c:	00000a7a 	andeq	r0, r0, sl, ror sl
    9b40:	4f525245 	svcmi	0x00525245
    9b44:	73253a52 			; <UNDEFINED> instruction: 0x73253a52
    9b48:	3a73253a 	bcc	1cd3038 <__bss_end__+0x1cc9038>
    9b4c:	203a6425 	eorscs	r6, sl, r5, lsr #8
    9b50:	534c4146 	movtpl	r4, #49478	; 0xc146
    9b54:	283c2845 	ldmdacs	ip!, {r0, r2, r6, fp, sp}
    9b58:	6c612828 	stclvs	8, cr2, [r1], #-160	; 0xffffff60
    9b5c:	6d6e6769 	stclvs	7, cr6, [lr, #-420]!	; 0xfffffe5c
    9b60:	29746e65 	ldmdbcs	r4!, {r0, r2, r5, r6, r9, sl, fp, sp, lr}^
    9b64:	61282d26 			; <UNDEFINED> instruction: 0x61282d26
    9b68:	6e67696c 	vnmulvs.f16	s13, s14, s25	; <UNPREDICTABLE>
    9b6c:	746e656d 	strbtvc	r6, [lr], #-1389	; 0xfffffa93
    9b70:	3d202929 			; <UNDEFINED> instruction: 0x3d202929
    9b74:	6128203d 			; <UNDEFINED> instruction: 0x6128203d
    9b78:	6e67696c 	vnmulvs.f16	s13, s14, s25	; <UNPREDICTABLE>
    9b7c:	746e656d 	strbtvc	r6, [lr], #-1389	; 0xfffffa93
    9b80:	293e2929 	ldmdbcs	lr!, {r0, r3, r5, r8, fp, sp}
    9b84:	7361203a 	cmnvc	r1, #58	; 0x3a
    9b88:	696d7573 	stmdbvs	sp!, {r0, r1, r4, r5, r6, r8, sl, ip, sp, lr}^
    9b8c:	7020676e 	eorvc	r6, r0, lr, ror #14
    9b90:	7265776f 	rsbvc	r7, r5, #29097984	; 0x1bc0000
    9b94:	20666f20 	rsbcs	r6, r6, r0, lsr #30
    9b98:	0a6f7774 	beq	1be7970 <__bss_end__+0x1bdd970>
    9b9c:	00000000 	andeq	r0, r0, r0
    9ba0:	4f525245 	svcmi	0x00525245
    9ba4:	73253a52 			; <UNDEFINED> instruction: 0x73253a52
    9ba8:	3a73253a 	bcc	1cd3098 <__bss_end__+0x1cc9098>
    9bac:	203a6425 	eorscs	r6, sl, r5, lsr #8
    9bb0:	534c4146 	movtpl	r4, #49478	; 0xc146
    9bb4:	283c2845 	ldmdacs	ip!, {r0, r2, r6, fp, sp}
    9bb8:	29682828 	stmdbcs	r8!, {r3, r5, fp, sp}^
    9bbc:	28202620 	stmdacs	r0!, {r5, r9, sl, sp}
    9bc0:	70797428 	rsbsvc	r7, r9, r8, lsr #8
    9bc4:	28666f65 	stmdacs	r6!, {r0, r2, r5, r6, r8, r9, sl, fp, sp, lr}^
    9bc8:	28292968 	stmdacs	r9!, {r3, r5, r6, r8, fp, sp}
    9bcc:	67696c61 	strbvs	r6, [r9, -r1, ror #24]!
    9bd0:	6e656d6e 	cdpvs	13, 6, cr6, cr5, cr14, {3}
    9bd4:	2d202974 			; <UNDEFINED> instruction: 0x2d202974
    9bd8:	29293120 	stmdbcs	r9!, {r5, r8, ip, sp}
    9bdc:	203d3d20 	eorscs	r3, sp, r0, lsr #26
    9be0:	293e2930 	ldmdbcs	lr!, {r4, r5, r8, fp, sp}
    9be4:	6d69203a 	stclvs	0, cr2, [r9, #-232]!	; 0xffffff18
    9be8:	73736f70 	cmnvc	r3, #112, 30	; 0x1c0
    9bec:	656c6269 	strbvs	r6, [ip, #-617]!	; 0xfffffd97
    9bf0:	Address 0x0000000000009bf0 is out of bounds.


Disassembly of section .bss:

00009bf4 <__bss_start__>:
    9bf4:	00000000 	andeq	r0, r0, r0

00009bf8 <heap>:
    9bf8:	00000000 	andeq	r0, r0, r0

00009bfc <heap_end>:
    9bfc:	00000000 	andeq	r0, r0, r0

00009c00 <buf.4297>:
	...

Disassembly of section .ARM.attributes:

00000000 <.ARM.attributes>:
   0:	00002c41 	andeq	r2, r0, r1, asr #24
   4:	61656100 	cmnvs	r5, r0, lsl #2
   8:	01006962 	tsteq	r0, r2, ror #18
   c:	00000022 	andeq	r0, r0, r2, lsr #32
  10:	4b5a3605 	blmi	168d82c <__bss_end__+0x168382c>
  14:	08070600 	stmdaeq	r7, {r9, sl}
  18:	0a010901 	beq	42424 <__bss_end__+0x38424>
  1c:	14041202 	strne	r1, [r4], #-514	; 0xfffffdfe
  20:	17011501 	strne	r1, [r1, -r1, lsl #10]
  24:	1a011803 	bne	46038 <__bss_end__+0x3c038>
  28:	44012201 	strmi	r2, [r1], #-513	; 0xfffffdff
  2c:	Address 0x000000000000002c is out of bounds.


Disassembly of section .comment:

00000000 <.comment>:
   0:	3a434347 	bcc	10d0d24 <__bss_end__+0x10c6d24>
   4:	72412820 	subvc	r2, r1, #32, 16	; 0x200000
   8:	52206863 	eorpl	r6, r0, #6488064	; 0x630000
   c:	736f7065 	cmnvc	pc, #101	; 0x65
  10:	726f7469 	rsbvc	r7, pc, #1761607680	; 0x69000000
  14:	39202979 	stmdbcc	r0!, {r0, r3, r4, r5, r6, r8, fp, sp}
  18:	302e322e 	eorcc	r3, lr, lr, lsr #4
  1c:	43434700 	movtmi	r4, #14080	; 0x3700
  20:	3128203a 			; <UNDEFINED> instruction: 0x3128203a
  24:	2e363a35 			; <UNDEFINED> instruction: 0x2e363a35
  28:	2b312e33 	blcs	c4b8fc <__bss_end__+0xc418fc>
  2c:	326e7673 	rsbcc	r7, lr, #120586240	; 0x7300000
  30:	33303335 	teqcc	r0, #-738197504	; 0xd4000000
  34:	62312d39 	eorsvs	r2, r1, #3648	; 0xe40
  38:	646c6975 	strbtvs	r6, [ip], #-2421	; 0xfffff68b
  3c:	36202931 			; <UNDEFINED> instruction: 0x36202931
  40:	312e332e 			; <UNDEFINED> instruction: 0x312e332e
  44:	31303220 	teqcc	r0, r0, lsr #4
  48:	32363037 	eorscc	r3, r6, #55	; 0x37
  4c:	Address 0x000000000000004c is out of bounds.


Disassembly of section .debug_info:

00000000 <.debug_info>:
       0:	00000b68 	andeq	r0, r0, r8, ror #22
       4:	00000004 	andeq	r0, r0, r4
       8:	01040000 	mrseq	r0, (UNDEF: 4)
       c:	00000302 	andeq	r0, r0, r2, lsl #6
      10:	0000210c 	andeq	r2, r0, ip, lsl #2
      14:	0000d900 	andeq	sp, r0, r0, lsl #18
      18:	00801000 	addeq	r1, r0, r0
      1c:	0000d000 	andeq	sp, r0, r0
      20:	00000000 	andeq	r0, r0, r0
      24:	05040200 	streq	r0, [r4, #-512]	; 0xfffffe00
      28:	00746e69 	rsbseq	r6, r4, r9, ror #28
      2c:	74070403 	strvc	r0, [r7], #-1027	; 0xfffffbfd
      30:	03000000 	movweq	r0, #0
      34:	02f10601 	rscseq	r0, r1, #1048576	; 0x100000
      38:	02030000 	andeq	r0, r3, #0
      3c:	00038a05 	andeq	r8, r3, r5, lsl #20
      40:	05040300 	streq	r0, [r4, #-768]	; 0xfffffd00
      44:	000000ba 	strheq	r0, [r0], -sl
      48:	b5050803 	strlt	r0, [r5, #-2051]	; 0xfffff7fd
      4c:	03000000 	movweq	r0, #0
      50:	02ef0801 	rsceq	r0, pc, #65536	; 0x10000
      54:	02030000 	andeq	r0, r3, #0
      58:	00023007 	andeq	r3, r2, r7
      5c:	07040300 	streq	r0, [r4, -r0, lsl #6]
      60:	0000006f 	andeq	r0, r0, pc, rrx
      64:	6a070803 	bvs	1c2078 <__bss_end__+0x1b8078>
      68:	04000000 	streq	r0, [r0], #-0
      6c:	00000273 	andeq	r0, r0, r3, ror r2
      70:	77192202 	ldrvc	r2, [r9, -r2, lsl #4]
      74:	05000000 	streq	r0, [r0, #-0]
      78:	00007d04 	andeq	r7, r0, r4, lsl #26
      7c:	04300600 	ldrteq	r0, [r0], #-1536	; 0xfffffa00
      80:	d0040000 	andle	r0, r4, r0
      84:	03000002 	movweq	r0, #2
      88:	00410e2c 	subeq	r0, r1, ip, lsr #28
      8c:	45040000 	strmi	r0, [r4, #-0]
      90:	03000004 	movweq	r0, #4
      94:	00410e72 	subeq	r0, r1, r2, ror lr
      98:	7b070000 	blvc	1c00a0 <__bss_end__+0x1b60a0>
      9c:	04000002 	streq	r0, [r0], #-2
      a0:	2c17015e 	ldfcss	f0, [r7], {94}	; 0x5e
      a4:	08000000 	stmdaeq	r0, {}	; <UNPREDICTABLE>
      a8:	03a60304 			; <UNDEFINED> instruction: 0x03a60304
      ac:	000000c9 	andeq	r0, r0, r9, asr #1
      b0:	00026d09 	andeq	r6, r2, r9, lsl #26
      b4:	0ca80300 	stceq	3, cr0, [r8]
      b8:	0000009a 	muleq	r0, sl, r0
      bc:	0001f009 	andeq	pc, r1, r9
      c0:	13a90300 			; <UNDEFINED> instruction: 0x13a90300
      c4:	000000c9 	andeq	r0, r0, r9, asr #1
      c8:	004f0a00 	subeq	r0, pc, r0, lsl #20
      cc:	00d90000 	sbcseq	r0, r9, r0
      d0:	2c0b0000 	stccs	0, cr0, [fp], {-0}
      d4:	03000000 	movweq	r0, #0
      d8:	03080c00 	movweq	r0, #35840	; 0x8c00
      dc:	00fd09a3 	rscseq	r0, sp, r3, lsr #19
      e0:	280d0000 	stmdacs	sp, {}	; <UNPREDICTABLE>
      e4:	03000004 	movweq	r0, #4
      e8:	002507a5 	eoreq	r0, r5, r5, lsr #15
      ec:	0d000000 	stceq	0, cr0, [r0, #-0]
      f0:	00000437 	andeq	r0, r0, r7, lsr r4
      f4:	a705aa03 	strge	sl, [r5, -r3, lsl #20]
      f8:	04000000 	streq	r0, [r0], #-0
      fc:	03b20400 			; <UNDEFINED> instruction: 0x03b20400
     100:	ab030000 	blge	c0108 <__bss_end__+0xb6108>
     104:	0000d903 	andeq	sp, r0, r3, lsl #18
     108:	01ad0400 			; <UNDEFINED> instruction: 0x01ad0400
     10c:	af030000 	svcge	0x00030000
     110:	00006b1b 	andeq	r6, r0, fp, lsl fp
     114:	05040e00 	streq	r0, [r4, #-3584]	; 0xfffff200
     118:	00011d04 	andeq	r1, r1, r4, lsl #26
     11c:	08010300 	stmdaeq	r1, {r8, r9}
     120:	000002f8 	strdeq	r0, [r0], -r8
     124:	00011d0f 	andeq	r1, r1, pc, lsl #26
     128:	04770400 	ldrbteq	r0, [r7], #-1024	; 0xfffffc00
     12c:	16050000 	strne	r0, [r5], -r0
     130:	00005d19 	andeq	r5, r0, r9, lsl sp
     134:	01be1000 			; <UNDEFINED> instruction: 0x01be1000
     138:	05180000 	ldreq	r0, [r8, #-0]
     13c:	018f082f 	orreq	r0, pc, pc, lsr #16
     140:	d30d0000 	movwle	r0, #53248	; 0xd000
     144:	05000003 	streq	r0, [r0, #-3]
     148:	018f1331 	orreq	r1, pc, r1, lsr r3	; <UNPREDICTABLE>
     14c:	11000000 	mrsne	r0, (UNDEF: 0)
     150:	05006b5f 	streq	r6, [r0, #-2911]	; 0xfffff4a1
     154:	00250732 	eoreq	r0, r5, r2, lsr r7
     158:	0d040000 	stceq	0, cr0, [r4, #-0]
     15c:	00000413 	andeq	r0, r0, r3, lsl r4
     160:	250b3205 	strcs	r3, [fp, #-517]	; 0xfffffdfb
     164:	08000000 	stmdaeq	r0, {}	; <UNPREDICTABLE>
     168:	0001a70d 	andeq	sl, r1, sp, lsl #14
     16c:	14320500 	ldrtne	r0, [r2], #-1280	; 0xfffffb00
     170:	00000025 	andeq	r0, r0, r5, lsr #32
     174:	04b30d0c 	ldrteq	r0, [r3], #3340	; 0xd0c
     178:	32050000 	andcc	r0, r5, #0
     17c:	0000251b 	andeq	r2, r0, fp, lsl r5
     180:	5f111000 	svcpl	0x00111000
     184:	33050078 	movwcc	r0, #20600	; 0x5078
     188:	0001950b 	andeq	r9, r1, fp, lsl #10
     18c:	05001400 	streq	r1, [r0, #-1024]	; 0xfffffc00
     190:	00013504 	andeq	r3, r1, r4, lsl #10
     194:	01290a00 			; <UNDEFINED> instruction: 0x01290a00
     198:	01a50000 			; <UNDEFINED> instruction: 0x01a50000
     19c:	2c0b0000 	stccs	0, cr0, [fp], {-0}
     1a0:	00000000 	andeq	r0, r0, r0
     1a4:	01eb1000 	mvneq	r1, r0
     1a8:	05240000 	streq	r0, [r4, #-0]!
     1ac:	02280837 	eoreq	r0, r8, #3604480	; 0x370000
     1b0:	ac0d0000 	stcge	0, cr0, [sp], {-0}
     1b4:	05000000 	streq	r0, [r0, #-0]
     1b8:	00250939 	eoreq	r0, r5, r9, lsr r9
     1bc:	0d000000 	stceq	0, cr0, [r0, #-0]
     1c0:	0000044d 	andeq	r0, r0, sp, asr #8
     1c4:	25093a05 	strcs	r3, [r9, #-2565]	; 0xfffff5fb
     1c8:	04000000 	streq	r0, [r0], #-0
     1cc:	0000cf0d 	andeq	ip, r0, sp, lsl #30
     1d0:	093b0500 	ldmdbeq	fp!, {r8, sl}
     1d4:	00000025 	andeq	r0, r0, r5, lsr #32
     1d8:	05340d08 	ldreq	r0, [r4, #-3336]!	; 0xfffff2f8
     1dc:	3c050000 	stccc	0, cr0, [r5], {-0}
     1e0:	00002509 	andeq	r2, r0, r9, lsl #10
     1e4:	b40d0c00 	strlt	r0, [sp], #-3072	; 0xfffff400
     1e8:	05000002 	streq	r0, [r0, #-2]
     1ec:	0025093d 	eoreq	r0, r5, sp, lsr r9
     1f0:	0d100000 	ldceq	0, cr0, [r0, #-0]
     1f4:	00000296 	muleq	r0, r6, r2
     1f8:	25093e05 	strcs	r3, [r9, #-3589]	; 0xfffff1fb
     1fc:	14000000 	strne	r0, [r0], #-0
     200:	0004b80d 	andeq	fp, r4, sp, lsl #16
     204:	093f0500 	ldmdbeq	pc!, {r8, sl}	; <UNPREDICTABLE>
     208:	00000025 	andeq	r0, r0, r5, lsr #32
     20c:	03940d18 	orrseq	r0, r4, #24, 26	; 0x600
     210:	40050000 	andmi	r0, r5, r0
     214:	00002509 	andeq	r2, r0, r9, lsl #10
     218:	fb0d1c00 	blx	347222 <__bss_end__+0x33d222>
     21c:	05000004 	streq	r0, [r0, #-4]
     220:	00250941 	eoreq	r0, r5, r1, asr #18
     224:	00200000 	eoreq	r0, r0, r0
     228:	00010f12 	andeq	r0, r1, r2, lsl pc
     22c:	05010800 	streq	r0, [r1, #-2048]	; 0xfffff800
     230:	026d084a 	rsbeq	r0, sp, #4849664	; 0x4a0000
     234:	9a0d0000 	bls	34023c <__bss_end__+0x33623c>
     238:	05000001 	streq	r0, [r0, #-1]
     23c:	026d0a4b 	rsbeq	r0, sp, #307200	; 0x4b000
     240:	0d000000 	stceq	0, cr0, [r0, #-0]
     244:	00000000 	andeq	r0, r0, r0
     248:	6d094c05 	stcvs	12, cr4, [r9, #-20]	; 0xffffffec
     24c:	80000002 	andhi	r0, r0, r2
     250:	00046913 	andeq	r6, r4, r3, lsl r9
     254:	0a4e0500 	beq	138165c <__bss_end__+0x137765c>
     258:	00000129 	andeq	r0, r0, r9, lsr #2
     25c:	34130100 	ldrcc	r0, [r3], #-256	; 0xffffff00
     260:	05000001 	streq	r0, [r0, #-1]
     264:	01290a51 			; <UNDEFINED> instruction: 0x01290a51
     268:	01040000 	mrseq	r0, (UNDEF: 4)
     26c:	01150a00 	tsteq	r5, r0, lsl #20
     270:	027d0000 	rsbseq	r0, sp, #0
     274:	2c0b0000 	stccs	0, cr0, [fp], {-0}
     278:	1f000000 	svcne	0x00000000
     27c:	02bd1200 	adcseq	r1, sp, #0, 4
     280:	01900000 	orrseq	r0, r0, r0
     284:	c0085d05 	andgt	r5, r8, r5, lsl #26
     288:	0d000002 	stceq	0, cr0, [r0, #-8]
     28c:	000003d3 	ldrdeq	r0, [r0], -r3
     290:	c0125e05 	andsgt	r5, r2, r5, lsl #28
     294:	00000002 	andeq	r0, r0, r2
     298:	0003eb0d 	andeq	lr, r3, sp, lsl #22
     29c:	065f0500 	ldrbeq	r0, [pc], -r0, lsl #10
     2a0:	00000025 	andeq	r0, r0, r5, lsr #32
     2a4:	01a20d04 			; <UNDEFINED> instruction: 0x01a20d04
     2a8:	61050000 	mrsvs	r0, (UNDEF: 5)
     2ac:	0002c609 	andeq	ip, r2, r9, lsl #12
     2b0:	0f0d0800 	svceq	0x000d0800
     2b4:	05000001 	streq	r0, [r0, #-1]
     2b8:	02281e62 	eoreq	r1, r8, #1568	; 0x620
     2bc:	00880000 	addeq	r0, r8, r0
     2c0:	027d0405 	rsbseq	r0, sp, #83886080	; 0x5000000
     2c4:	d60a0000 	strle	r0, [sl], -r0
     2c8:	d6000002 	strle	r0, [r0], -r2
     2cc:	0b000002 	bleq	2dc <_start-0x7d24>
     2d0:	0000002c 	andeq	r0, r0, ip, lsr #32
     2d4:	0405001f 	streq	r0, [r5], #-31	; 0xffffffe1
     2d8:	000002dc 	ldrdeq	r0, [r0], -ip
     2dc:	039e1014 	orrseq	r1, lr, #20
     2e0:	05080000 	streq	r0, [r8, #-0]
     2e4:	03050875 	movweq	r0, #22645	; 0x5875
     2e8:	c90d0000 	stmdbgt	sp, {}	; <UNPREDICTABLE>
     2ec:	05000000 	streq	r0, [r0, #-0]
     2f0:	03051176 	movweq	r1, #20854	; 0x5176
     2f4:	0d000000 	stceq	0, cr0, [r0, #-0]
     2f8:	0000001b 	andeq	r0, r0, fp, lsl r0
     2fc:	25067705 	strcs	r7, [r6, #-1797]	; 0xfffff8fb
     300:	04000000 	streq	r0, [r0], #-0
     304:	4f040500 	svcmi	0x00040500
     308:	10000000 	andne	r0, r0, r0
     30c:	000003bd 			; <UNDEFINED> instruction: 0x000003bd
     310:	08b50568 	ldmeq	r5!, {r3, r5, r6, r8, sl}
     314:	0000044e 	andeq	r0, r0, lr, asr #8
     318:	00705f11 	rsbseq	r5, r0, r1, lsl pc
     31c:	0512b605 	ldreq	fp, [r2, #-1541]	; 0xfffff9fb
     320:	00000003 	andeq	r0, r0, r3
     324:	00725f11 	rsbseq	r5, r2, r1, lsl pc
     328:	2507b705 	strcs	fp, [r7, #-1797]	; 0xfffff8fb
     32c:	04000000 	streq	r0, [r0], #-0
     330:	00775f11 	rsbseq	r5, r7, r1, lsl pc
     334:	2507b805 	strcs	fp, [r7, #-2053]	; 0xfffff7fb
     338:	08000000 	stmdaeq	r0, {}	; <UNPREDICTABLE>
     33c:	00012d0d 	andeq	r2, r1, sp, lsl #26
     340:	09b90500 	ldmibeq	r9!, {r8, sl}
     344:	0000003a 	andeq	r0, r0, sl, lsr r0
     348:	02160d0c 	andseq	r0, r6, #12, 26	; 0x300
     34c:	ba050000 	blt	140354 <__bss_end__+0x136354>
     350:	00003a09 	andeq	r3, r0, r9, lsl #20
     354:	5f110e00 	svcpl	0x00110e00
     358:	05006662 	streq	r6, [r0, #-1634]	; 0xfffff99e
     35c:	02dd11bb 	sbcseq	r1, sp, #-1073741778	; 0xc000002e
     360:	0d100000 	ldceq	0, cr0, [r0, #-0]
     364:	00000089 	andeq	r0, r0, r9, lsl #1
     368:	2507bc05 	strcs	fp, [r7, #-3077]	; 0xfffff3fb
     36c:	18000000 	stmdane	r0, {}	; <UNPREDICTABLE>
     370:	00011d0d 	andeq	r1, r1, sp, lsl #26
     374:	0ac30500 	beq	ff0c177c <__bss_end__+0xff0b777c>
     378:	00000115 	andeq	r0, r0, r5, lsl r1
     37c:	0b290d1c 	bleq	a437f4 <__bss_end__+0xa397f4>
     380:	c5050000 	strgt	r0, [r5, #-0]
     384:	0005c01d 	andeq	ip, r5, sp, lsl r0
     388:	1e0d2000 	cdpne	0, 0, cr2, cr13, cr0, {0}
     38c:	05000006 	streq	r0, [r0, #-6]
     390:	05ea1dc7 	strbeq	r1, [sl, #3527]!	; 0xdc7
     394:	0d240000 	stceq	0, cr0, [r4, #-0]
     398:	0000043f 	andeq	r0, r0, pc, lsr r4
     39c:	0e0dca05 	vmlaeq.f32	s24, s26, s10
     3a0:	28000006 	stmdacs	r0, {r1, r2}
     3a4:	0005150d 	andeq	r1, r5, sp, lsl #10
     3a8:	09cb0500 	stmibeq	fp, {r8, sl}^
     3ac:	00000628 	andeq	r0, r0, r8, lsr #12
     3b0:	755f112c 	ldrbvc	r1, [pc, #-300]	; 28c <_start-0x7d74>
     3b4:	ce050062 	cdpgt	0, 0, cr0, cr5, cr2, {3}
     3b8:	0002dd11 	andeq	sp, r2, r1, lsl sp
     3bc:	5f113000 	svcpl	0x00113000
     3c0:	05007075 	streq	r7, [r0, #-117]	; 0xffffff8b
     3c4:	030512cf 	movweq	r1, #21199	; 0x52cf
     3c8:	11380000 	teqne	r8, r0
     3cc:	0072755f 	rsbseq	r7, r2, pc, asr r5
     3d0:	2507d005 	strcs	sp, [r7, #-5]
     3d4:	3c000000 	stccc	0, cr0, [r0], {-0}
     3d8:	0000c30d 	andeq	ip, r0, sp, lsl #6
     3dc:	11d30500 	bicsne	r0, r3, r0, lsl #10
     3e0:	0000062e 	andeq	r0, r0, lr, lsr #12
     3e4:	04ed0d40 	strbteq	r0, [sp], #3392	; 0xd40
     3e8:	d4050000 	strle	r0, [r5], #-0
     3ec:	00063e11 	andeq	r3, r6, r1, lsl lr
     3f0:	5f114300 	svcpl	0x00114300
     3f4:	0500626c 	streq	r6, [r0, #-620]	; 0xfffffd94
     3f8:	02dd11d7 	sbcseq	r1, sp, #-1073741771	; 0xc0000035
     3fc:	0d440000 	stcleq	0, cr0, [r4, #-0]
     400:	0000014b 	andeq	r0, r0, fp, asr #2
     404:	2507da05 	strcs	sp, [r7, #-2565]	; 0xfffff5fb
     408:	4c000000 	stcmi	0, cr0, [r0], {-0}
     40c:	00015c0d 	andeq	r5, r1, sp, lsl #24
     410:	0adb0500 	beq	ff6c1818 <__bss_end__+0xff6b7818>
     414:	00000082 	andeq	r0, r0, r2, lsl #1
     418:	0aca0d50 	beq	ff283960 <__bss_end__+0xff279960>
     41c:	de050000 	cdple	0, 0, cr0, cr5, cr0, {0}
     420:	00046c12 	andeq	r6, r4, r2, lsl ip
     424:	310d5400 	tstcc	sp, r0, lsl #8
     428:	05000004 	streq	r0, [r0, #-4]
     42c:	01090ce2 	smlatteq	r9, r2, ip, r0
     430:	0d580000 	ldcleq	0, cr0, [r8, #-0]
     434:	000003c5 	andeq	r0, r0, r5, asr #7
     438:	fd0ee405 	stc2	4, cr14, [lr, #-20]	; 0xffffffec
     43c:	5c000000 	stcpl	0, cr0, [r0], {-0}
     440:	00028e0d 	andeq	r8, r2, sp, lsl #28
     444:	09e50500 	stmibeq	r5!, {r8, sl}^
     448:	00000025 	andeq	r0, r0, r5, lsr #32
     44c:	25150064 	ldrcs	r0, [r5, #-100]	; 0xffffff9c
     450:	6c000000 	stcvs	0, cr0, [r0], {-0}
     454:	16000004 	strne	r0, [r0], -r4
     458:	0000046c 	andeq	r0, r0, ip, ror #8
     45c:	00011516 	andeq	r1, r1, r6, lsl r5
     460:	01171600 	tsteq	r7, r0, lsl #12
     464:	25160000 	ldrcs	r0, [r6, #-0]
     468:	00000000 	andeq	r0, r0, r0
     46c:	04770405 	ldrbteq	r0, [r7], #-1029	; 0xfffffbfb
     470:	6c0f0000 	stcvs	0, cr0, [pc], {-0}
     474:	17000004 	strne	r0, [r0, -r4]
     478:	0000041b 	andeq	r0, r0, fp, lsl r4
     47c:	60050428 	andvs	r0, r5, r8, lsr #8
     480:	05c00802 	strbeq	r0, [r0, #2050]	; 0x802
     484:	83180000 	tsthi	r8, #0
     488:	05000003 	streq	r0, [r0, #-3]
     48c:	25070262 	strcs	r0, [r7, #-610]	; 0xfffffd9e
     490:	00000000 	andeq	r0, r0, r0
     494:	00013c18 	andeq	r3, r1, r8, lsl ip
     498:	02670500 	rsbeq	r0, r7, #0, 10
     49c:	00069a0b 	andeq	r9, r6, fp, lsl #20
     4a0:	06180400 	ldreq	r0, [r8], -r0, lsl #8
     4a4:	05000002 	streq	r0, [r0, #-2]
     4a8:	9a140267 	bls	500e4c <__bss_end__+0x4f6e4c>
     4ac:	08000006 	stmdaeq	r0, {r1, r2}
     4b0:	0001b618 	andeq	fp, r1, r8, lsl r6
     4b4:	02670500 	rsbeq	r0, r7, #0, 10
     4b8:	00069a1e 	andeq	r9, r6, lr, lsl sl
     4bc:	e6180c00 	ldr	r0, [r8], -r0, lsl #24
     4c0:	05000003 	streq	r0, [r0, #-3]
     4c4:	25080269 	strcs	r0, [r8, #-617]	; 0xfffffd97
     4c8:	10000000 	andne	r0, r0, r0
     4cc:	00003718 	andeq	r3, r0, r8, lsl r7
     4d0:	026a0500 	rsbeq	r0, sl, #0, 10
     4d4:	00089a08 	andeq	r9, r8, r8, lsl #20
     4d8:	fa181400 	blx	6054e0 <__bss_end__+0x5fb4e0>
     4dc:	05000003 	streq	r0, [r0, #-3]
     4e0:	2507026d 	strcs	r0, [r7, #-621]	; 0xfffffd93
     4e4:	30000000 	andcc	r0, r0, r0
     4e8:	000a0618 	andeq	r0, sl, r8, lsl r6
     4ec:	026e0500 	rsbeq	r0, lr, #0, 10
     4f0:	0008af16 	andeq	sl, r8, r6, lsl pc
     4f4:	c5183400 	ldrgt	r3, [r8, #-1024]	; 0xfffffc00
     4f8:	05000002 	streq	r0, [r0, #-2]
     4fc:	25070270 	strcs	r0, [r7, #-624]	; 0xfffffd90
     500:	38000000 	stmdacc	r0, {}	; <UNPREDICTABLE>
     504:	0003f018 	andeq	pc, r3, r8, lsl r0	; <UNPREDICTABLE>
     508:	02720500 	rsbseq	r0, r2, #0, 10
     50c:	0008c00a 	andeq	ip, r8, sl
     510:	65183c00 	ldrvs	r3, [r8, #-3072]	; 0xfffff400
     514:	05000002 	streq	r0, [r0, #-2]
     518:	8f130275 	svchi	0x00130275
     51c:	40000001 	andmi	r0, r0, r1
     520:	0001d518 	andeq	sp, r1, r8, lsl r5
     524:	02760500 	rsbseq	r0, r6, #0, 10
     528:	00002507 	andeq	r2, r0, r7, lsl #10
     52c:	2f184400 	svccs	0x00184400
     530:	05000005 	streq	r0, [r0, #-5]
     534:	8f130277 	svchi	0x00130277
     538:	48000001 	stmdami	r0, {r0}
     53c:	0002d718 	andeq	sp, r2, r8, lsl r7
     540:	02780500 	rsbseq	r0, r8, #0, 10
     544:	0008c614 	andeq	ip, r8, r4, lsl r6
     548:	0e184c00 	cdpeq	12, 1, cr4, cr8, cr0, {0}
     54c:	05000002 	streq	r0, [r0, #-2]
     550:	2507027b 	strcs	r0, [r7, #-635]	; 0xfffffd85
     554:	50000000 	andpl	r0, r0, r0
     558:	00015418 	andeq	r5, r1, r8, lsl r4
     55c:	027c0500 	rsbseq	r0, ip, #0, 10
     560:	00011709 	andeq	r1, r1, r9, lsl #14
     564:	fd185400 	ldc2	4, cr5, [r8, #-0]
     568:	05000002 	streq	r0, [r0, #-2]
     56c:	7507029f 	strvc	r0, [r7, #-671]	; 0xfffffd61
     570:	58000008 	stmdapl	r0, {r3}
     574:	0002bd19 	andeq	fp, r2, r9, lsl sp
     578:	02a30500 	adceq	r0, r3, #0, 10
     57c:	0002c013 	andeq	ip, r2, r3, lsl r0
     580:	19014800 	stmdbne	r1, {fp, lr}
     584:	00000243 	andeq	r0, r0, r3, asr #4
     588:	1202a405 	andne	sl, r2, #83886080	; 0x5000000
     58c:	0000027d 	andeq	r0, r0, sp, ror r2
     590:	db19014c 	blle	640ac8 <__bss_end__+0x636ac8>
     594:	05000004 	streq	r0, [r0, #-4]
     598:	d70c02a8 	strle	r0, [ip, -r8, lsr #5]
     59c:	dc000008 	stcle	0, cr0, [r0], {8}
     5a0:	01251902 			; <UNDEFINED> instruction: 0x01251902
     5a4:	ad050000 	stcge	0, cr0, [r5, #-0]
     5a8:	065b1002 	ldrbeq	r1, [fp], -r2
     5ac:	02e00000 	rsceq	r0, r0, #0
     5b0:	00010a19 	andeq	r0, r1, r9, lsl sl
     5b4:	02af0500 	adceq	r0, pc, #0, 10
     5b8:	0008e30a 	andeq	lr, r8, sl, lsl #6
     5bc:	0002ec00 	andeq	lr, r2, r0, lsl #24
     5c0:	044e0405 	strbeq	r0, [lr], #-1029	; 0xfffffbfb
     5c4:	25150000 	ldrcs	r0, [r5, #-0]
     5c8:	e4000000 	str	r0, [r0], #-0
     5cc:	16000005 	strne	r0, [r0], -r5
     5d0:	0000046c 	andeq	r0, r0, ip, ror #8
     5d4:	00011516 	andeq	r1, r1, r6, lsl r5
     5d8:	05e41600 	strbeq	r1, [r4, #1536]!	; 0x600
     5dc:	25160000 	ldrcs	r0, [r6, #-0]
     5e0:	00000000 	andeq	r0, r0, r0
     5e4:	01240405 			; <UNDEFINED> instruction: 0x01240405
     5e8:	04050000 	streq	r0, [r5], #-0
     5ec:	000005c6 	andeq	r0, r0, r6, asr #11
     5f0:	00008e15 	andeq	r8, r0, r5, lsl lr
     5f4:	00060e00 	andeq	r0, r6, r0, lsl #28
     5f8:	046c1600 	strbteq	r1, [ip], #-1536	; 0xfffffa00
     5fc:	15160000 	ldrne	r0, [r6, #-0]
     600:	16000001 	strne	r0, [r0], -r1
     604:	0000008e 	andeq	r0, r0, lr, lsl #1
     608:	00002516 	andeq	r2, r0, r6, lsl r5
     60c:	04050000 	streq	r0, [r5], #-0
     610:	000005f0 	strdeq	r0, [r0], -r0	; <UNPREDICTABLE>
     614:	00002515 	andeq	r2, r0, r5, lsl r5
     618:	00062800 	andeq	r2, r6, r0, lsl #16
     61c:	046c1600 	strbteq	r1, [ip], #-1536	; 0xfffffa00
     620:	15160000 	ldrne	r0, [r6, #-0]
     624:	00000001 	andeq	r0, r0, r1
     628:	06140405 	ldreq	r0, [r4], -r5, lsl #8
     62c:	4f0a0000 	svcmi	0x000a0000
     630:	3e000000 	cdpcc	0, 0, cr0, cr0, cr0, {0}
     634:	0b000006 	bleq	654 <_start-0x79ac>
     638:	0000002c 	andeq	r0, r0, ip, lsr #32
     63c:	4f0a0002 	svcmi	0x000a0002
     640:	4e000000 	cdpmi	0, 0, cr0, cr0, cr0, {0}
     644:	0b000006 	bleq	664 <_start-0x799c>
     648:	0000002c 	andeq	r0, r0, ip, lsr #32
     64c:	ab070000 	blge	1c0654 <__bss_end__+0x1b6654>
     650:	05000003 	streq	r0, [r0, #-3]
     654:	0b1a011f 	bleq	680ad8 <__bss_end__+0x676ad8>
     658:	1a000003 	bne	66c <_start-0x7994>
     65c:	000004c2 	andeq	r0, r0, r2, asr #9
     660:	0123050c 			; <UNDEFINED> instruction: 0x0123050c
     664:	00069408 	andeq	r9, r6, r8, lsl #8
     668:	03d31800 	bicseq	r1, r3, #0, 16
     66c:	25050000 	strcs	r0, [r5, #-0]
     670:	06941101 	ldreq	r1, [r4], r1, lsl #2
     674:	18000000 	stmdane	r0, {}	; <UNPREDICTABLE>
     678:	00000229 	andeq	r0, r0, r9, lsr #4
     67c:	07012605 	streq	r2, [r1, -r5, lsl #12]
     680:	00000025 	andeq	r0, r0, r5, lsr #32
     684:	03a51804 			; <UNDEFINED> instruction: 0x03a51804
     688:	27050000 	strcs	r0, [r5, -r0]
     68c:	069a0b01 	ldreq	r0, [sl], r1, lsl #22
     690:	00080000 	andeq	r0, r8, r0
     694:	065b0405 	ldrbeq	r0, [fp], -r5, lsl #8
     698:	04050000 	streq	r0, [r5], #-0
     69c:	0000064e 	andeq	r0, r0, lr, asr #12
     6a0:	00002f1a 	andeq	r2, r0, sl, lsl pc
     6a4:	3f050e00 	svccc	0x00050e00
     6a8:	06d90801 	ldrbeq	r0, [r9], r1, lsl #16
     6ac:	22180000 	andscs	r0, r8, #0
     6b0:	05000004 	streq	r0, [r0, #-4]
     6b4:	d9120140 	ldmdble	r2, {r6, r8}
     6b8:	00000006 	andeq	r0, r0, r6
     6bc:	00045618 	andeq	r5, r4, r8, lsl r6
     6c0:	01410500 	cmpeq	r1, r0, lsl #10
     6c4:	0006d912 	andeq	sp, r6, r2, lsl r9
     6c8:	72180600 	andsvc	r0, r8, #0, 12
     6cc:	05000004 	streq	r0, [r0, #-4]
     6d0:	56120142 	ldrpl	r0, [r2], -r2, asr #2
     6d4:	0c000000 	stceq	0, cr0, [r0], {-0}
     6d8:	00560a00 	subseq	r0, r6, r0, lsl #20
     6dc:	06e90000 	strbteq	r0, [r9], r0
     6e0:	2c0b0000 	stccs	0, cr0, [fp], {-0}
     6e4:	02000000 	andeq	r0, r0, #0
     6e8:	05d01b00 	ldrbeq	r1, [r0, #2816]	; 0xb00
     6ec:	fe070280 	cdp2	2, 0, cr0, cr7, cr0, {4}
     6f0:	18000007 	stmdane	r0, {r0, r1, r2}
     6f4:	000004a6 	andeq	r0, r0, r6, lsr #9
     6f8:	18028205 	stmdane	r2, {r0, r2, r9, pc}
     6fc:	0000002c 	andeq	r0, r0, ip, lsr #32
     700:	045c1800 	ldrbeq	r1, [ip], #-2048	; 0xfffff800
     704:	83050000 	movwhi	r0, #20480	; 0x5000
     708:	01171202 	tsteq	r7, r2, lsl #4
     70c:	18040000 	stmdane	r4, {}	; <UNPREDICTABLE>
     710:	00000258 	andeq	r0, r0, r8, asr r2
     714:	10028405 	andne	r8, r2, r5, lsl #8
     718:	000007fe 	strdeq	r0, [r0], -lr
     71c:	05061808 	streq	r1, [r6, #-2056]	; 0xfffff7f8
     720:	85050000 	strhi	r0, [r5, #-0]
     724:	01a51702 			; <UNDEFINED> instruction: 0x01a51702
     728:	18240000 	stmdane	r4!, {}	; <UNPREDICTABLE>
     72c:	000001c6 	andeq	r0, r0, r6, asr #3
     730:	0f028605 	svceq	0x00028605
     734:	00000025 	andeq	r0, r0, r5, lsr #32
     738:	03ce1848 	biceq	r1, lr, #72, 16	; 0x480000
     73c:	87050000 	strhi	r0, [r5, -r0]
     740:	00642c02 	rsbeq	r2, r4, r2, lsl #24
     744:	18500000 	ldmdane	r0, {}^	; <UNPREDICTABLE>
     748:	0000051c 	andeq	r0, r0, ip, lsl r5
     74c:	1a028805 	bne	a2768 <__bss_end__+0x98768>
     750:	000006a0 	andeq	r0, r0, r0, lsr #13
     754:	03d91858 	bicseq	r1, r9, #88, 16	; 0x580000
     758:	89050000 	stmdbhi	r5, {}	; <UNPREDICTABLE>
     75c:	00fd1602 	rscseq	r1, sp, r2, lsl #12
     760:	18680000 	stmdane	r8!, {}^	; <UNPREDICTABLE>
     764:	00000521 	andeq	r0, r0, r1, lsr #10
     768:	16028a05 	strne	r8, [r2], -r5, lsl #20
     76c:	000000fd 	strdeq	r0, [r0], -sp
     770:	02e11870 	rsceq	r1, r1, #112, 16	; 0x700000
     774:	8b050000 	blhi	14077c <__bss_end__+0x13677c>
     778:	00fd1602 	rscseq	r1, sp, r2, lsl #12
     77c:	18780000 	ldmdane	r8!, {}^	; <UNPREDICTABLE>
     780:	000004d1 	ldrdeq	r0, [r0], -r1
     784:	10028c05 	andne	r8, r2, r5, lsl #24
     788:	0000080e 	andeq	r0, r0, lr, lsl #16
     78c:	024c1880 	subeq	r1, ip, #128, 16	; 0x800000
     790:	8d050000 	stchi	0, cr0, [r5, #-0]
     794:	081e1002 	ldmdaeq	lr, {r1, ip}
     798:	18880000 	stmne	r8, {}	; <UNPREDICTABLE>
     79c:	0000047f 	andeq	r0, r0, pc, ror r4
     7a0:	0f028e05 	svceq	0x00028e05
     7a4:	00000025 	andeq	r0, r0, r5, lsr #32
     7a8:	018c18a0 	orreq	r1, ip, r0, lsr #17
     7ac:	8f050000 	svchi	0x00050000
     7b0:	00fd1602 	rscseq	r1, sp, r2, lsl #12
     7b4:	18a40000 	stmiane	r4!, {}	; <UNPREDICTABLE>
     7b8:	0000009d 	muleq	r0, sp, r0
     7bc:	16029005 	strne	r9, [r2], -r5
     7c0:	000000fd 	strdeq	r0, [r0], -sp
     7c4:	017b18ac 	cmneq	fp, ip, lsr #17
     7c8:	91050000 	mrsls	r0, (UNDEF: 5)
     7cc:	00fd1602 	rscseq	r1, sp, r2, lsl #12
     7d0:	18b40000 	ldmne	r4!, {}	; <UNPREDICTABLE>
     7d4:	0000004a 	andeq	r0, r0, sl, asr #32
     7d8:	16029205 	strne	r9, [r2], -r5, lsl #4
     7dc:	000000fd 	strdeq	r0, [r0], -sp
     7e0:	005918bc 	ldrheq	r1, [r9], #-140	; 0xffffff74
     7e4:	93050000 	movwls	r0, #20480	; 0x5000
     7e8:	00fd1602 	rscseq	r1, sp, r2, lsl #12
     7ec:	18c40000 	stmiane	r4, {}^	; <UNPREDICTABLE>
     7f0:	00000381 	andeq	r0, r0, r1, lsl #7
     7f4:	08029405 	stmdaeq	r2, {r0, r2, sl, ip, pc}
     7f8:	00000025 	andeq	r0, r0, r5, lsr #32
     7fc:	1d0a00cc 	stcne	0, cr0, [sl, #-816]	; 0xfffffcd0
     800:	0e000001 	cdpeq	0, 0, cr0, cr0, cr1, {0}
     804:	0b000008 	bleq	82c <_start-0x77d4>
     808:	0000002c 	andeq	r0, r0, ip, lsr #32
     80c:	1d0a0019 	stcne	0, cr0, [sl, #-100]	; 0xffffff9c
     810:	1e000001 	cdpne	0, 0, cr0, cr0, cr1, {0}
     814:	0b000008 	bleq	83c <_start-0x77c4>
     818:	0000002c 	andeq	r0, r0, ip, lsr #32
     81c:	1d0a0007 	stcne	0, cr0, [sl, #-28]	; 0xffffffe4
     820:	2e000001 	cdpcs	0, 0, cr0, cr0, cr1, {0}
     824:	0b000008 	bleq	84c <_start-0x77b4>
     828:	0000002c 	andeq	r0, r0, ip, lsr #32
     82c:	f01b0017 			; <UNDEFINED> instruction: 0xf01b0017
     830:	07029905 	streq	r9, [r2, -r5, lsl #18]
     834:	00000855 	andeq	r0, r0, r5, asr r8
     838:	0002ad18 	andeq	sl, r2, r8, lsl sp
     83c:	029c0500 	addseq	r0, ip, #0, 10
     840:	0008551b 	andeq	r5, r8, fp, lsl r5
     844:	c8180000 	ldmdagt	r8, {}	; <UNPREDICTABLE>
     848:	05000004 	streq	r0, [r0, #-4]
     84c:	6518029d 	ldrvs	r0, [r8, #-669]	; 0xfffffd63
     850:	78000008 	stmdavc	r0, {r3}
     854:	03050a00 	movweq	r0, #23040	; 0x5a00
     858:	08650000 	stmdaeq	r5!, {}^	; <UNPREDICTABLE>
     85c:	2c0b0000 	stccs	0, cr0, [fp], {-0}
     860:	1d000000 	stcne	0, cr0, [r0, #-0]
     864:	002c0a00 	eoreq	r0, ip, r0, lsl #20
     868:	08750000 	ldmdaeq	r5!, {}^	; <UNPREDICTABLE>
     86c:	2c0b0000 	stccs	0, cr0, [fp], {-0}
     870:	1d000000 	stcne	0, cr0, [r0, #-0]
     874:	05f01c00 	ldrbeq	r1, [r0, #3072]!	; 0xc00
     878:	9a03027e 	bls	c1278 <__bss_end__+0xb7278>
     87c:	1d000008 	stcne	0, cr0, [r0, #-32]	; 0xffffffe0
     880:	0000041b 	andeq	r0, r0, fp, lsl r4
     884:	0b029505 	bleq	a5ca0 <__bss_end__+0x9bca0>
     888:	000006e9 	andeq	r0, r0, r9, ror #13
     88c:	0004f31d 	andeq	pc, r4, sp, lsl r3	; <UNPREDICTABLE>
     890:	029e0500 	addseq	r0, lr, #0, 10
     894:	00082e0b 	andeq	r2, r8, fp, lsl #28
     898:	1d0a0000 	stcne	0, cr0, [sl, #-0]
     89c:	aa000001 	bge	8a8 <_start-0x7758>
     8a0:	0b000008 	bleq	8c8 <_start-0x7738>
     8a4:	0000002c 	andeq	r0, r0, ip, lsr #32
     8a8:	92060018 	andls	r0, r6, #24
     8ac:	05000000 	streq	r0, [r0, #-0]
     8b0:	0008aa04 	andeq	sl, r8, r4, lsl #20
     8b4:	08c01e00 	stmiaeq	r0, {r9, sl, fp, ip}^
     8b8:	6c160000 	ldcvs	0, cr0, [r6], {-0}
     8bc:	00000004 	andeq	r0, r0, r4
     8c0:	08b50405 	ldmeq	r5!, {r0, r2, sl}
     8c4:	04050000 	streq	r0, [r5], #-0
     8c8:	0000018f 	andeq	r0, r0, pc, lsl #3
     8cc:	0008d71e 	andeq	sp, r8, lr, lsl r7
     8d0:	00251600 	eoreq	r1, r5, r0, lsl #12
     8d4:	05000000 	streq	r0, [r0, #-0]
     8d8:	0008dd04 	andeq	sp, r8, r4, lsl #26
     8dc:	cc040500 	cfstr32gt	mvfx0, [r4], {-0}
     8e0:	0a000008 	beq	908 <_start-0x76f8>
     8e4:	0000064e 	andeq	r0, r0, lr, asr #12
     8e8:	000008f3 	strdeq	r0, [r0], -r3
     8ec:	00002c0b 	andeq	r2, r0, fp, lsl #24
     8f0:	1f000200 	svcne	0x00000200
     8f4:	00000493 	muleq	r0, r3, r4
     8f8:	17032e05 	strne	r2, [r3, -r5, lsl #28]
     8fc:	0000046c 	andeq	r0, r0, ip, ror #8
     900:	00048c1f 	andeq	r8, r4, pc, lsl ip
     904:	032f0500 			; <UNDEFINED> instruction: 0x032f0500
     908:	0004721d 	andeq	r7, r4, sp, lsl r2
     90c:	00251500 	eoreq	r1, r5, r0, lsl #10
     910:	091c0000 	ldmdbeq	ip, {}	; <UNPREDICTABLE>
     914:	25160000 	ldrcs	r0, [r6, #-0]
     918:	00000000 	andeq	r0, r0, r0
     91c:	0001df20 	andeq	sp, r1, r0, lsr #30
     920:	0e1d0600 	cfmsub32eq	mvax0, mvfx0, mvfx13, mvfx0
     924:	00000928 	andeq	r0, r0, r8, lsr #18
     928:	090d0405 	stmdbeq	sp, {r0, r2, sl}
     92c:	25150000 	ldrcs	r0, [r5, #-0]
     930:	3d000000 	stccc	0, cr0, [r0, #-0]
     934:	16000009 	strne	r0, [r0], -r9
     938:	000005e4 	andeq	r0, r0, r4, ror #11
     93c:	076d2000 	strbeq	r2, [sp, -r0]!
     940:	22060000 	andcs	r0, r6, #0
     944:	0009490e 	andeq	r4, r9, lr, lsl #18
     948:	2e040500 	cfsh32cs	mvfx0, mvfx4, #0
     94c:	21000009 	tstcs	r0, r9
     950:	00000042 	andeq	r0, r0, r2, asr #32
     954:	10060501 	andne	r0, r6, r1, lsl #10
     958:	d0000080 	andle	r0, r0, r0, lsl #1
     95c:	01000000 	mrseq	r0, (UNDEF: 0)
     960:	000ade9c 	muleq	sl, ip, lr
     964:	006e2200 	rsbeq	r2, lr, r0, lsl #4
     968:	2c0e0a01 			; <UNDEFINED> instruction: 0x2c0e0a01
     96c:	00000000 	andeq	r0, r0, r0
     970:	23001000 	movwcs	r1, #0
     974:	0d010070 	stceq	0, cr0, [r1, #-448]	; 0xfffffe40
     978:	0001170b 	andeq	r1, r1, fp, lsl #14
     97c:	00000400 	andeq	r0, r0, r0, lsl #8
     980:	00000000 	andeq	r0, r0, r0
     984:	021c2400 	andseq	r2, ip, #0, 8
     988:	0aee0000 	beq	ffb80990 <__bss_end__+0xffb76990>
     98c:	03050000 	movweq	r0, #20480	; 0x5000
     990:	000096b8 			; <UNDEFINED> instruction: 0x000096b8
     994:	00028925 	andeq	r8, r2, r5, lsr #18
     998:	0e120100 	mufeqs	f0, f2, f0
     99c:	0000002c 	andeq	r0, r0, ip, lsr #32
     9a0:	00000028 	andeq	r0, r0, r8, lsr #32
     9a4:	00000022 	andeq	r0, r0, r2, lsr #32
     9a8:	00802026 	addeq	r2, r0, r6, lsr #32
     9ac:	000af300 	andeq	pc, sl, r0, lsl #6
     9b0:	0009bf00 	andeq	fp, r9, r0, lsl #30
     9b4:	50012700 	andpl	r2, r1, r0, lsl #14
     9b8:	962c0305 	strtls	r0, [ip], -r5, lsl #6
     9bc:	26000000 	strcs	r0, [r0], -r0
     9c0:	00008028 	andeq	r8, r0, r8, lsr #32
     9c4:	00000aff 	strdeq	r0, [r0], -pc	; <UNPREDICTABLE>
     9c8:	000009d4 	ldrdeq	r0, [r0], -r4
     9cc:	03500127 	cmpeq	r0, #-1073741815	; 0xc0000009
     9d0:	00244040 	eoreq	r4, r4, r0, asr #32
     9d4:	00803026 	addeq	r3, r0, r6, lsr #32
     9d8:	000b0b00 	andeq	r0, fp, r0, lsl #22
     9dc:	0009e900 	andeq	lr, r9, r0, lsl #18
     9e0:	50012700 	andpl	r2, r1, r0, lsl #14
     9e4:	24404003 	strbcs	r4, [r0], #-3
     9e8:	80382600 	eorshi	r2, r8, r0, lsl #12
     9ec:	0b170000 	bleq	5c09f4 <__bss_end__+0x5b69f4>
     9f0:	09fe0000 	ldmibeq	lr!, {}^	; <UNPREDICTABLE>
     9f4:	01270000 			; <UNDEFINED> instruction: 0x01270000
     9f8:	40400351 	submi	r0, r0, r1, asr r3
     9fc:	54260024 	strtpl	r0, [r6], #-36	; 0xffffffdc
     a00:	23000080 	movwcs	r0, #128	; 0x80
     a04:	2200000b 	andcs	r0, r0, #11
     a08:	2700000a 	strcs	r0, [r0, -sl]
     a0c:	34015001 	strcc	r5, [r1], #-1
     a10:	02510127 	subseq	r0, r1, #-1073741815	; 0xc0000009
     a14:	01270075 			; <UNDEFINED> instruction: 0x01270075
     a18:	00760252 	rsbseq	r0, r6, r2, asr r2
     a1c:	01530127 	cmpeq	r3, r7, lsr #2
     a20:	6426003d 	strtvs	r0, [r6], #-61	; 0xffffffc3
     a24:	2f000080 	svccs	0x00000080
     a28:	4000000b 	andmi	r0, r0, fp
     a2c:	2700000a 	strcs	r0, [r0, -sl]
     a30:	74025001 	strvc	r5, [r2], #-1
     a34:	51012700 	tstpl	r1, r0, lsl #14
     a38:	01273001 			; <UNDEFINED> instruction: 0x01273001
     a3c:	00340152 	eorseq	r0, r4, r2, asr r1
     a40:	00807826 	addeq	r7, r0, r6, lsr #16
     a44:	000b3b00 	andeq	r3, fp, r0, lsl #22
     a48:	000a6500 	andeq	r6, sl, r0, lsl #10
     a4c:	50012700 	andpl	r2, r1, r0, lsl #14
     a50:	27007402 	strcs	r7, [r0, -r2, lsl #8]
     a54:	75025101 	strvc	r5, [r2, #-257]	; 0xfffffeff
     a58:	52012700 	andpl	r2, r1, #0, 14
     a5c:	27007602 	strcs	r7, [r0, -r2, lsl #12]
     a60:	3f015301 	svccc	0x00015301
     a64:	80842800 	addhi	r2, r4, r0, lsl #16
     a68:	0b470000 	bleq	11c0a70 <__bss_end__+0x11b6a70>
     a6c:	94260000 	strtls	r0, [r6], #-0
     a70:	f3000080 	vhadd.u8	d0, d16, d0
     a74:	8500000a 	strhi	r0, [r0, #-10]
     a78:	2700000a 	strcs	r0, [r0, -sl]
     a7c:	03055001 	movweq	r5, #20481	; 0x5001
     a80:	00009690 	muleq	r0, r0, r6
     a84:	809c2600 	addshi	r2, ip, r0, lsl #12
     a88:	0af30000 	beq	ffcc0a90 <__bss_end__+0xffcb6a90>
     a8c:	0a9c0000 	beq	fe700a94 <__bss_end__+0xfe6f6a94>
     a90:	01270000 			; <UNDEFINED> instruction: 0x01270000
     a94:	98030550 	stmdals	r3, {r4, r6, r8, sl}
     a98:	00000096 	muleq	r0, r6, r0
     a9c:	0080ac28 	addeq	sl, r0, r8, lsr #24
     aa0:	000b5300 	andeq	r5, fp, r0, lsl #6
     aa4:	80c42600 	sbchi	r2, r4, r0, lsl #12
     aa8:	0af30000 	beq	ffcc0ab0 <__bss_end__+0xffcb6ab0>
     aac:	0ad40000 	beq	ff500ab4 <__bss_end__+0xff4f6ab4>
     ab0:	01270000 			; <UNDEFINED> instruction: 0x01270000
     ab4:	54030550 	strpl	r0, [r3], #-1360	; 0xfffffab0
     ab8:	27000096 			; <UNDEFINED> instruction: 0x27000096
     abc:	75025101 	strvc	r5, [r2, #-257]	; 0xfffffeff
     ac0:	52012700 	andpl	r2, r1, #0, 14
     ac4:	27007602 	strcs	r7, [r0, -r2, lsl #12]
     ac8:	44015301 	strmi	r5, [r1], #-769	; 0xfffffcff
     acc:	007d0227 	rsbseq	r0, sp, r7, lsr #4
     ad0:	00007402 	andeq	r7, r0, r2, lsl #8
     ad4:	0080c828 	addeq	ip, r0, r8, lsr #16
     ad8:	000b5f00 	andeq	r5, fp, r0, lsl #30
     adc:	240a0000 	strcs	r0, [sl], #-0
     ae0:	ee000001 	cdp	0, 0, cr0, cr0, cr1, {0}
     ae4:	0b00000a 	bleq	b14 <_start-0x74ec>
     ae8:	0000002c 	andeq	r0, r0, ip, lsr #32
     aec:	de0f0007 	cdple	0, 0, cr0, cr15, cr7, {0}
     af0:	2900000a 	stmdbcs	r0, {r1, r3}
     af4:	00000704 	andeq	r0, r0, r4, lsl #14
     af8:	00000704 	andeq	r0, r0, r4, lsl #14
     afc:	29052906 	stmdbcs	r5, {r1, r2, r8, fp, sp}
     b00:	00000164 	andeq	r0, r0, r4, ror #2
     b04:	00000164 	andeq	r0, r0, r4, ror #2
     b08:	29067206 	stmdbcs	r6, {r1, r2, r9, ip, sp, lr}
     b0c:	000004e5 	andeq	r0, r0, r5, ror #9
     b10:	000004e5 	andeq	r0, r0, r5, ror #9
     b14:	29076c06 	stmdbcs	r7, {r1, r2, sl, fp, sp, lr}
     b18:	00000143 	andeq	r0, r0, r3, asr #2
     b1c:	00000143 	andeq	r0, r0, r3, asr #2
     b20:	29067707 	stmdbcs	r6, {r0, r1, r2, r8, r9, sl, ip, sp, lr}
     b24:	00000081 	andeq	r0, r0, r1, lsl #1
     b28:	00000081 	andeq	r0, r0, r1, lsl #1
     b2c:	29087407 	stmdbcs	r8, {r0, r1, r2, sl, ip, sp, lr}
     b30:	0000049f 	muleq	r0, pc, r4	; <UNPREDICTABLE>
     b34:	0000049f 	muleq	r0, pc, r4	; <UNPREDICTABLE>
     b38:	29092108 	stmdbcs	r9, {r3, r8, sp}
     b3c:	00000282 	andeq	r0, r0, r2, lsl #5
     b40:	00000282 	andeq	r0, r0, r2, lsl #5
     b44:	29077507 	stmdbcs	r7, {r0, r1, r2, r8, sl, ip, sp, lr}
     b48:	0000000c 	andeq	r0, r0, ip
     b4c:	0000000c 	andeq	r0, r0, ip
     b50:	29057d07 	stmdbcs	r5, {r0, r1, r2, r8, sl, fp, ip, sp, lr}
     b54:	000001f7 	strdeq	r0, [r0], -r7
     b58:	000001f7 	strdeq	r0, [r0], -r7
     b5c:	29061e06 	stmdbcs	r6, {r1, r2, r9, sl, fp, ip}
     b60:	000002a0 	andeq	r0, r0, r0, lsr #5
     b64:	000002a0 	andeq	r0, r0, r0, lsr #5
     b68:	00066506 	andeq	r6, r6, r6, lsl #10
     b6c:	00001985 	andeq	r1, r0, r5, lsl #19
     b70:	024e0004 	subeq	r0, lr, #4
     b74:	01040000 	mrseq	r0, (UNDEF: 4)
     b78:	00000302 	andeq	r0, r0, r2, lsl #6
     b7c:	0005d80c 	andeq	sp, r5, ip, lsl #16
     b80:	0000d900 	andeq	sp, r0, r0, lsl #18
     b84:	0080e000 	addeq	lr, r0, r0
     b88:	00086800 	andeq	r6, r8, r0, lsl #16
     b8c:	00014b00 	andeq	r4, r1, r0, lsl #22
     b90:	05040200 	streq	r0, [r4, #-512]	; 0xfffffe00
     b94:	00746e69 	rsbseq	r6, r4, r9, ror #28
     b98:	74070403 	strvc	r0, [r7], #-1027	; 0xfffffbfd
     b9c:	03000000 	movweq	r0, #0
     ba0:	02f10601 	rscseq	r0, r1, #1048576	; 0x100000
     ba4:	02030000 	andeq	r0, r3, #0
     ba8:	00038a05 	andeq	r8, r3, r5, lsl #20
     bac:	05040300 	streq	r0, [r4, #-768]	; 0xfffffd00
     bb0:	000000ba 	strheq	r0, [r0], -sl
     bb4:	b5050803 	strlt	r0, [r5, #-2051]	; 0xfffff7fd
     bb8:	04000000 	streq	r0, [r0], #-0
     bbc:	0000068b 	andeq	r0, r0, fp, lsl #13
     bc0:	5b182e03 	blpl	60c3d4 <__bss_end__+0x6023d4>
     bc4:	03000000 	movweq	r0, #0
     bc8:	02ef0801 	rsceq	r0, pc, #65536	; 0x10000
     bcc:	02030000 	andeq	r0, r3, #0
     bd0:	00023007 	andeq	r3, r2, r7
     bd4:	06490400 	strbeq	r0, [r9], -r0, lsl #8
     bd8:	34030000 	strcc	r0, [r3], #-0
     bdc:	00007519 	andeq	r7, r0, r9, lsl r5
     be0:	07040300 	streq	r0, [r4, -r0, lsl #6]
     be4:	0000006f 	andeq	r0, r0, pc, rrx
     be8:	6a070803 	bvs	1c2bfc <__bss_end__+0x1b8bfc>
     bec:	04000000 	streq	r0, [r0], #-0
     bf0:	00000273 	andeq	r0, r0, r3, ror r2
     bf4:	8f192204 	svchi	0x00192204
     bf8:	05000000 	streq	r0, [r0, #-0]
     bfc:	00009504 	andeq	r9, r0, r4, lsl #10
     c00:	04300600 	ldrteq	r0, [r0], #-1536	; 0xfffffa00
     c04:	d0040000 	andle	r0, r4, r0
     c08:	05000002 	streq	r0, [r0, #-2]
     c0c:	00410e2c 	subeq	r0, r1, ip, lsr #28
     c10:	45040000 	strmi	r0, [r4, #-0]
     c14:	05000004 	streq	r0, [r0, #-4]
     c18:	00410e72 	subeq	r0, r1, r2, ror lr
     c1c:	7b070000 	blvc	1c0c24 <__bss_end__+0x1b6c24>
     c20:	06000002 	streq	r0, [r0], -r2
     c24:	2c17015e 	ldfcss	f0, [r7], {94}	; 0x5e
     c28:	08000000 	stmdaeq	r0, {}	; <UNPREDICTABLE>
     c2c:	03a60504 			; <UNDEFINED> instruction: 0x03a60504
     c30:	000000e1 	andeq	r0, r0, r1, ror #1
     c34:	00026d09 	andeq	r6, r2, r9, lsl #26
     c38:	0ca80500 	cfstr32eq	mvfx0, [r8]
     c3c:	000000b2 	strheq	r0, [r0], -r2
     c40:	0001f009 	andeq	pc, r1, r9
     c44:	13a90500 			; <UNDEFINED> instruction: 0x13a90500
     c48:	000000e1 	andeq	r0, r0, r1, ror #1
     c4c:	005b0a00 	subseq	r0, fp, r0, lsl #20
     c50:	00f10000 	rscseq	r0, r1, r0
     c54:	2c0b0000 	stccs	0, cr0, [fp], {-0}
     c58:	03000000 	movweq	r0, #0
     c5c:	05080c00 	streq	r0, [r8, #-3072]	; 0xfffff400
     c60:	011509a3 	tsteq	r5, r3, lsr #19
     c64:	280d0000 	stmdacs	sp, {}	; <UNPREDICTABLE>
     c68:	05000004 	streq	r0, [r0, #-4]
     c6c:	002507a5 	eoreq	r0, r5, r5, lsr #15
     c70:	0d000000 	stceq	0, cr0, [r0, #-0]
     c74:	00000437 	andeq	r0, r0, r7, lsr r4
     c78:	bf05aa05 	svclt	0x0005aa05
     c7c:	04000000 	streq	r0, [r0], #-0
     c80:	03b20400 			; <UNDEFINED> instruction: 0x03b20400
     c84:	ab050000 	blge	140c8c <__bss_end__+0x136c8c>
     c88:	0000f103 	andeq	pc, r0, r3, lsl #2
     c8c:	01ad0400 			; <UNDEFINED> instruction: 0x01ad0400
     c90:	af050000 	svcge	0x00050000
     c94:	0000831b 	andeq	r8, r0, fp, lsl r3
     c98:	05040e00 	streq	r0, [r4, #-3584]	; 0xfffff200
     c9c:	00013504 	andeq	r3, r1, r4, lsl #10
     ca0:	08010300 	stmdaeq	r1, {r8, r9}
     ca4:	000002f8 	strdeq	r0, [r0], -r8
     ca8:	0001350f 	andeq	r3, r1, pc, lsl #10
     cac:	04770400 	ldrbteq	r0, [r7], #-1024	; 0xfffffc00
     cb0:	16070000 	strne	r0, [r7], -r0
     cb4:	00007519 	andeq	r7, r0, r9, lsl r5
     cb8:	01be1000 			; <UNDEFINED> instruction: 0x01be1000
     cbc:	07180000 	ldreq	r0, [r8, -r0]
     cc0:	01a7082f 			; <UNDEFINED> instruction: 0x01a7082f
     cc4:	d30d0000 	movwle	r0, #53248	; 0xd000
     cc8:	07000003 	streq	r0, [r0, -r3]
     ccc:	01a71331 			; <UNDEFINED> instruction: 0x01a71331
     cd0:	11000000 	mrsne	r0, (UNDEF: 0)
     cd4:	07006b5f 	smlsdeq	r0, pc, fp, r6	; <UNPREDICTABLE>
     cd8:	00250732 	eoreq	r0, r5, r2, lsr r7
     cdc:	0d040000 	stceq	0, cr0, [r4, #-0]
     ce0:	00000413 	andeq	r0, r0, r3, lsl r4
     ce4:	250b3207 	strcs	r3, [fp, #-519]	; 0xfffffdf9
     ce8:	08000000 	stmdaeq	r0, {}	; <UNPREDICTABLE>
     cec:	0001a70d 	andeq	sl, r1, sp, lsl #14
     cf0:	14320700 	ldrtne	r0, [r2], #-1792	; 0xfffff900
     cf4:	00000025 	andeq	r0, r0, r5, lsr #32
     cf8:	04b30d0c 	ldrteq	r0, [r3], #3340	; 0xd0c
     cfc:	32070000 	andcc	r0, r7, #0
     d00:	0000251b 	andeq	r2, r0, fp, lsl r5
     d04:	5f111000 	svcpl	0x00111000
     d08:	33070078 	movwcc	r0, #28792	; 0x7078
     d0c:	0001ad0b 	andeq	sl, r1, fp, lsl #26
     d10:	05001400 	streq	r1, [r0, #-1024]	; 0xfffffc00
     d14:	00014d04 	andeq	r4, r1, r4, lsl #26
     d18:	01410a00 	cmpeq	r1, r0, lsl #20
     d1c:	01bd0000 			; <UNDEFINED> instruction: 0x01bd0000
     d20:	2c0b0000 	stccs	0, cr0, [fp], {-0}
     d24:	00000000 	andeq	r0, r0, r0
     d28:	01eb1000 	mvneq	r1, r0
     d2c:	07240000 	streq	r0, [r4, -r0]!
     d30:	02400837 	subeq	r0, r0, #3604480	; 0x370000
     d34:	ac0d0000 	stcge	0, cr0, [sp], {-0}
     d38:	07000000 	streq	r0, [r0, -r0]
     d3c:	00250939 	eoreq	r0, r5, r9, lsr r9
     d40:	0d000000 	stceq	0, cr0, [r0, #-0]
     d44:	0000044d 	andeq	r0, r0, sp, asr #8
     d48:	25093a07 	strcs	r3, [r9, #-2567]	; 0xfffff5f9
     d4c:	04000000 	streq	r0, [r0], #-0
     d50:	0000cf0d 	andeq	ip, r0, sp, lsl #30
     d54:	093b0700 	ldmdbeq	fp!, {r8, r9, sl}
     d58:	00000025 	andeq	r0, r0, r5, lsr #32
     d5c:	05340d08 	ldreq	r0, [r4, #-3336]!	; 0xfffff2f8
     d60:	3c070000 	stccc	0, cr0, [r7], {-0}
     d64:	00002509 	andeq	r2, r0, r9, lsl #10
     d68:	b40d0c00 	strlt	r0, [sp], #-3072	; 0xfffff400
     d6c:	07000002 	streq	r0, [r0, -r2]
     d70:	0025093d 	eoreq	r0, r5, sp, lsr r9
     d74:	0d100000 	ldceq	0, cr0, [r0, #-0]
     d78:	00000296 	muleq	r0, r6, r2
     d7c:	25093e07 	strcs	r3, [r9, #-3591]	; 0xfffff1f9
     d80:	14000000 	strne	r0, [r0], #-0
     d84:	0004b80d 	andeq	fp, r4, sp, lsl #16
     d88:	093f0700 	ldmdbeq	pc!, {r8, r9, sl}	; <UNPREDICTABLE>
     d8c:	00000025 	andeq	r0, r0, r5, lsr #32
     d90:	03940d18 	orrseq	r0, r4, #24, 26	; 0x600
     d94:	40070000 	andmi	r0, r7, r0
     d98:	00002509 	andeq	r2, r0, r9, lsl #10
     d9c:	fb0d1c00 	blx	347da6 <__bss_end__+0x33dda6>
     da0:	07000004 	streq	r0, [r0, -r4]
     da4:	00250941 	eoreq	r0, r5, r1, asr #18
     da8:	00200000 	eoreq	r0, r0, r0
     dac:	00010f12 	andeq	r0, r1, r2, lsl pc
     db0:	07010800 	streq	r0, [r1, -r0, lsl #16]
     db4:	0285084a 	addeq	r0, r5, #4849664	; 0x4a0000
     db8:	9a0d0000 	bls	340dc0 <__bss_end__+0x336dc0>
     dbc:	07000001 	streq	r0, [r0, -r1]
     dc0:	02850a4b 	addeq	r0, r5, #307200	; 0x4b000
     dc4:	0d000000 	stceq	0, cr0, [r0, #-0]
     dc8:	00000000 	andeq	r0, r0, r0
     dcc:	85094c07 	strhi	r4, [r9, #-3079]	; 0xfffff3f9
     dd0:	80000002 	andhi	r0, r0, r2
     dd4:	00046913 	andeq	r6, r4, r3, lsl r9
     dd8:	0a4e0700 	beq	13829e0 <__bss_end__+0x13789e0>
     ddc:	00000141 	andeq	r0, r0, r1, asr #2
     de0:	34130100 	ldrcc	r0, [r3], #-256	; 0xffffff00
     de4:	07000001 	streq	r0, [r0, -r1]
     de8:	01410a51 	cmpeq	r1, r1, asr sl
     dec:	01040000 	mrseq	r0, (UNDEF: 4)
     df0:	012d0a00 			; <UNDEFINED> instruction: 0x012d0a00
     df4:	02950000 	addseq	r0, r5, #0
     df8:	2c0b0000 	stccs	0, cr0, [fp], {-0}
     dfc:	1f000000 	svcne	0x00000000
     e00:	02bd1200 	adcseq	r1, sp, #0, 4
     e04:	01900000 	orrseq	r0, r0, r0
     e08:	d8085d07 	stmdale	r8, {r0, r1, r2, r8, sl, fp, ip, lr}
     e0c:	0d000002 	stceq	0, cr0, [r0, #-8]
     e10:	000003d3 	ldrdeq	r0, [r0], -r3
     e14:	d8125e07 	ldmdale	r2, {r0, r1, r2, r9, sl, fp, ip, lr}
     e18:	00000002 	andeq	r0, r0, r2
     e1c:	0003eb0d 	andeq	lr, r3, sp, lsl #22
     e20:	065f0700 	ldrbeq	r0, [pc], -r0, lsl #14
     e24:	00000025 	andeq	r0, r0, r5, lsr #32
     e28:	01a20d04 			; <UNDEFINED> instruction: 0x01a20d04
     e2c:	61070000 	mrsvs	r0, (UNDEF: 7)
     e30:	0002de09 	andeq	sp, r2, r9, lsl #28
     e34:	0f0d0800 	svceq	0x000d0800
     e38:	07000001 	streq	r0, [r0, -r1]
     e3c:	02401e62 	subeq	r1, r0, #1568	; 0x620
     e40:	00880000 	addeq	r0, r8, r0
     e44:	02950405 	addseq	r0, r5, #83886080	; 0x5000000
     e48:	ee0a0000 	cdp	0, 0, cr0, cr10, cr0, {0}
     e4c:	ee000002 	cdp	0, 0, cr0, cr0, cr2, {0}
     e50:	0b000002 	bleq	e60 <_start-0x71a0>
     e54:	0000002c 	andeq	r0, r0, ip, lsr #32
     e58:	0405001f 	streq	r0, [r5], #-31	; 0xffffffe1
     e5c:	000002f4 	strdeq	r0, [r0], -r4
     e60:	039e1014 	orrseq	r1, lr, #20
     e64:	07080000 	streq	r0, [r8, -r0]
     e68:	031d0875 	tsteq	sp, #7667712	; 0x750000
     e6c:	c90d0000 	stmdbgt	sp, {}	; <UNPREDICTABLE>
     e70:	07000000 	streq	r0, [r0, -r0]
     e74:	031d1176 	tsteq	sp, #-2147483619	; 0x8000001d
     e78:	0d000000 	stceq	0, cr0, [r0, #-0]
     e7c:	0000001b 	andeq	r0, r0, fp, lsl r0
     e80:	25067707 	strcs	r7, [r6, #-1799]	; 0xfffff8f9
     e84:	04000000 	streq	r0, [r0], #-0
     e88:	5b040500 	blpl	102290 <__bss_end__+0xf8290>
     e8c:	10000000 	andne	r0, r0, r0
     e90:	000003bd 			; <UNDEFINED> instruction: 0x000003bd
     e94:	08b50768 	ldmeq	r5!, {r3, r5, r6, r8, r9, sl}
     e98:	00000466 	andeq	r0, r0, r6, ror #8
     e9c:	00705f11 	rsbseq	r5, r0, r1, lsl pc
     ea0:	1d12b607 	ldcne	6, cr11, [r2, #-28]	; 0xffffffe4
     ea4:	00000003 	andeq	r0, r0, r3
     ea8:	00725f11 	rsbseq	r5, r2, r1, lsl pc
     eac:	2507b707 	strcs	fp, [r7, #-1799]	; 0xfffff8f9
     eb0:	04000000 	streq	r0, [r0], #-0
     eb4:	00775f11 	rsbseq	r5, r7, r1, lsl pc
     eb8:	2507b807 	strcs	fp, [r7, #-2055]	; 0xfffff7f9
     ebc:	08000000 	stmdaeq	r0, {}	; <UNPREDICTABLE>
     ec0:	00012d0d 	andeq	r2, r1, sp, lsl #26
     ec4:	09b90700 	ldmibeq	r9!, {r8, r9, sl}
     ec8:	0000003a 	andeq	r0, r0, sl, lsr r0
     ecc:	02160d0c 	andseq	r0, r6, #12, 26	; 0x300
     ed0:	ba070000 	blt	1c0ed8 <__bss_end__+0x1b6ed8>
     ed4:	00003a09 	andeq	r3, r0, r9, lsl #20
     ed8:	5f110e00 	svcpl	0x00110e00
     edc:	07006662 	streq	r6, [r0, -r2, ror #12]
     ee0:	02f511bb 	rscseq	r1, r5, #-1073741778	; 0xc000002e
     ee4:	0d100000 	ldceq	0, cr0, [r0, #-0]
     ee8:	00000089 	andeq	r0, r0, r9, lsl #1
     eec:	2507bc07 	strcs	fp, [r7, #-3079]	; 0xfffff3f9
     ef0:	18000000 	stmdane	r0, {}	; <UNPREDICTABLE>
     ef4:	00011d0d 	andeq	r1, r1, sp, lsl #26
     ef8:	0ac30700 	beq	ff0c2b00 <__bss_end__+0xff0b8b00>
     efc:	0000012d 	andeq	r0, r0, sp, lsr #2
     f00:	0b290d1c 	bleq	a44378 <__bss_end__+0xa3a378>
     f04:	c5070000 	strgt	r0, [r7, #-0]
     f08:	0005d81d 	andeq	sp, r5, sp, lsl r8
     f0c:	1e0d2000 	cdpne	0, 0, cr2, cr13, cr0, {0}
     f10:	07000006 	streq	r0, [r0, -r6]
     f14:	06021dc7 	streq	r1, [r2], -r7, asr #27
     f18:	0d240000 	stceq	0, cr0, [r4, #-0]
     f1c:	0000043f 	andeq	r0, r0, pc, lsr r4
     f20:	260dca07 	strcs	ip, [sp], -r7, lsl #20
     f24:	28000006 	stmdacs	r0, {r1, r2}
     f28:	0005150d 	andeq	r1, r5, sp, lsl #10
     f2c:	09cb0700 	stmibeq	fp, {r8, r9, sl}^
     f30:	00000640 	andeq	r0, r0, r0, asr #12
     f34:	755f112c 	ldrbvc	r1, [pc, #-300]	; e10 <_start-0x71f0>
     f38:	ce070062 	cdpgt	0, 0, cr0, cr7, cr2, {3}
     f3c:	0002f511 	andeq	pc, r2, r1, lsl r5	; <UNPREDICTABLE>
     f40:	5f113000 	svcpl	0x00113000
     f44:	07007075 	smlsdxeq	r0, r5, r0, r7
     f48:	031d12cf 	tsteq	sp, #-268435444	; 0xf000000c
     f4c:	11380000 	teqne	r8, r0
     f50:	0072755f 	rsbseq	r7, r2, pc, asr r5
     f54:	2507d007 	strcs	sp, [r7, #-7]
     f58:	3c000000 	stccc	0, cr0, [r0], {-0}
     f5c:	0000c30d 	andeq	ip, r0, sp, lsl #6
     f60:	11d30700 	bicsne	r0, r3, r0, lsl #14
     f64:	00000646 	andeq	r0, r0, r6, asr #12
     f68:	04ed0d40 	strbteq	r0, [sp], #3392	; 0xd40
     f6c:	d4070000 	strle	r0, [r7], #-0
     f70:	00065611 	andeq	r5, r6, r1, lsl r6
     f74:	5f114300 	svcpl	0x00114300
     f78:	0700626c 	streq	r6, [r0, -ip, ror #4]
     f7c:	02f511d7 	rscseq	r1, r5, #-1073741771	; 0xc0000035
     f80:	0d440000 	stcleq	0, cr0, [r4, #-0]
     f84:	0000014b 	andeq	r0, r0, fp, asr #2
     f88:	2507da07 	strcs	sp, [r7, #-2567]	; 0xfffff5f9
     f8c:	4c000000 	stcmi	0, cr0, [r0], {-0}
     f90:	00015c0d 	andeq	r5, r1, sp, lsl #24
     f94:	0adb0700 	beq	ff6c2b9c <__bss_end__+0xff6b8b9c>
     f98:	0000009a 	muleq	r0, sl, r0
     f9c:	0aca0d50 	beq	ff2844e4 <__bss_end__+0xff27a4e4>
     fa0:	de070000 	cdple	0, 0, cr0, cr7, cr0, {0}
     fa4:	00048412 	andeq	r8, r4, r2, lsl r4
     fa8:	310d5400 	tstcc	sp, r0, lsl #8
     fac:	07000004 	streq	r0, [r0, -r4]
     fb0:	01210ce2 	smulwteq	r1, r2, ip
     fb4:	0d580000 	ldcleq	0, cr0, [r8, #-0]
     fb8:	000003c5 	andeq	r0, r0, r5, asr #7
     fbc:	150ee407 	strne	lr, [lr, #-1031]	; 0xfffffbf9
     fc0:	5c000001 	stcpl	0, cr0, [r0], {1}
     fc4:	00028e0d 	andeq	r8, r2, sp, lsl #28
     fc8:	09e50700 	stmibeq	r5!, {r8, r9, sl}^
     fcc:	00000025 	andeq	r0, r0, r5, lsr #32
     fd0:	25150064 	ldrcs	r0, [r5, #-100]	; 0xffffff9c
     fd4:	84000000 	strhi	r0, [r0], #-0
     fd8:	16000004 	strne	r0, [r0], -r4
     fdc:	00000484 	andeq	r0, r0, r4, lsl #9
     fe0:	00012d16 	andeq	r2, r1, r6, lsl sp
     fe4:	012f1600 			; <UNDEFINED> instruction: 0x012f1600
     fe8:	25160000 	ldrcs	r0, [r6, #-0]
     fec:	00000000 	andeq	r0, r0, r0
     ff0:	048f0405 	streq	r0, [pc], #1029	; ff8 <_start-0x7008>
     ff4:	840f0000 	strhi	r0, [pc], #-0	; ffc <_start-0x7004>
     ff8:	17000004 	strne	r0, [r0, -r4]
     ffc:	0000041b 	andeq	r0, r0, fp, lsl r4
    1000:	60070428 	andvs	r0, r7, r8, lsr #8
    1004:	05d80802 	ldrbeq	r0, [r8, #2050]	; 0x802
    1008:	83180000 	tsthi	r8, #0
    100c:	07000003 	streq	r0, [r0, -r3]
    1010:	25070262 	strcs	r0, [r7, #-610]	; 0xfffffd9e
    1014:	00000000 	andeq	r0, r0, r0
    1018:	00013c18 	andeq	r3, r1, r8, lsl ip
    101c:	02670700 	rsbeq	r0, r7, #0, 14
    1020:	0006b20b 	andeq	fp, r6, fp, lsl #4
    1024:	06180400 	ldreq	r0, [r8], -r0, lsl #8
    1028:	07000002 	streq	r0, [r0, -r2]
    102c:	b2140267 	andslt	r0, r4, #1879048198	; 0x70000006
    1030:	08000006 	stmdaeq	r0, {r1, r2}
    1034:	0001b618 	andeq	fp, r1, r8, lsl r6
    1038:	02670700 	rsbeq	r0, r7, #0, 14
    103c:	0006b21e 	andeq	fp, r6, lr, lsl r2
    1040:	e6180c00 	ldr	r0, [r8], -r0, lsl #24
    1044:	07000003 	streq	r0, [r0, -r3]
    1048:	25080269 	strcs	r0, [r8, #-617]	; 0xfffffd97
    104c:	10000000 	andne	r0, r0, r0
    1050:	00003718 	andeq	r3, r0, r8, lsl r7
    1054:	026a0700 	rsbeq	r0, sl, #0, 14
    1058:	0008b208 	andeq	fp, r8, r8, lsl #4
    105c:	fa181400 	blx	606064 <__bss_end__+0x5fc064>
    1060:	07000003 	streq	r0, [r0, -r3]
    1064:	2507026d 	strcs	r0, [r7, #-621]	; 0xfffffd93
    1068:	30000000 	andcc	r0, r0, r0
    106c:	000a0618 	andeq	r0, sl, r8, lsl r6
    1070:	026e0700 	rsbeq	r0, lr, #0, 14
    1074:	0008c716 	andeq	ip, r8, r6, lsl r7
    1078:	c5183400 	ldrgt	r3, [r8, #-1024]	; 0xfffffc00
    107c:	07000002 	streq	r0, [r0, -r2]
    1080:	25070270 	strcs	r0, [r7, #-624]	; 0xfffffd90
    1084:	38000000 	stmdacc	r0, {}	; <UNPREDICTABLE>
    1088:	0003f018 	andeq	pc, r3, r8, lsl r0	; <UNPREDICTABLE>
    108c:	02720700 	rsbseq	r0, r2, #0, 14
    1090:	0008d80a 	andeq	sp, r8, sl, lsl #16
    1094:	65183c00 	ldrvs	r3, [r8, #-3072]	; 0xfffff400
    1098:	07000002 	streq	r0, [r0, -r2]
    109c:	a7130275 			; <UNDEFINED> instruction: 0xa7130275
    10a0:	40000001 	andmi	r0, r0, r1
    10a4:	0001d518 	andeq	sp, r1, r8, lsl r5
    10a8:	02760700 	rsbseq	r0, r6, #0, 14
    10ac:	00002507 	andeq	r2, r0, r7, lsl #10
    10b0:	2f184400 	svccs	0x00184400
    10b4:	07000005 	streq	r0, [r0, -r5]
    10b8:	a7130277 			; <UNDEFINED> instruction: 0xa7130277
    10bc:	48000001 	stmdami	r0, {r0}
    10c0:	0002d718 	andeq	sp, r2, r8, lsl r7
    10c4:	02780700 	rsbseq	r0, r8, #0, 14
    10c8:	0008de14 	andeq	sp, r8, r4, lsl lr
    10cc:	0e184c00 	cdpeq	12, 1, cr4, cr8, cr0, {0}
    10d0:	07000002 	streq	r0, [r0, -r2]
    10d4:	2507027b 	strcs	r0, [r7, #-635]	; 0xfffffd85
    10d8:	50000000 	andpl	r0, r0, r0
    10dc:	00015418 	andeq	r5, r1, r8, lsl r4
    10e0:	027c0700 	rsbseq	r0, ip, #0, 14
    10e4:	00012f09 	andeq	r2, r1, r9, lsl #30
    10e8:	fd185400 	ldc2	4, cr5, [r8, #-0]
    10ec:	07000002 	streq	r0, [r0, -r2]
    10f0:	8d07029f 	sfmhi	f0, 4, [r7, #-636]	; 0xfffffd84
    10f4:	58000008 	stmdapl	r0, {r3}
    10f8:	0002bd19 	andeq	fp, r2, r9, lsl sp
    10fc:	02a30700 	adceq	r0, r3, #0, 14
    1100:	0002d813 	andeq	sp, r2, r3, lsl r8
    1104:	19014800 	stmdbne	r1, {fp, lr}
    1108:	00000243 	andeq	r0, r0, r3, asr #4
    110c:	1202a407 	andne	sl, r2, #117440512	; 0x7000000
    1110:	00000295 	muleq	r0, r5, r2
    1114:	db19014c 	blle	64164c <__bss_end__+0x63764c>
    1118:	07000004 	streq	r0, [r0, -r4]
    111c:	ef0c02a8 	svc	0x000c02a8
    1120:	dc000008 	stcle	0, cr0, [r0], {8}
    1124:	01251902 			; <UNDEFINED> instruction: 0x01251902
    1128:	ad070000 	stcge	0, cr0, [r7, #-0]
    112c:	06731002 	ldrbteq	r1, [r3], -r2
    1130:	02e00000 	rsceq	r0, r0, #0
    1134:	00010a19 	andeq	r0, r1, r9, lsl sl
    1138:	02af0700 	adceq	r0, pc, #0, 14
    113c:	0008fb0a 	andeq	pc, r8, sl, lsl #22
    1140:	0002ec00 	andeq	lr, r2, r0, lsl #24
    1144:	04660405 	strbteq	r0, [r6], #-1029	; 0xfffffbfb
    1148:	25150000 	ldrcs	r0, [r5, #-0]
    114c:	fc000000 	stc2	0, cr0, [r0], {-0}
    1150:	16000005 	strne	r0, [r0], -r5
    1154:	00000484 	andeq	r0, r0, r4, lsl #9
    1158:	00012d16 	andeq	r2, r1, r6, lsl sp
    115c:	05fc1600 	ldrbeq	r1, [ip, #1536]!	; 0x600
    1160:	25160000 	ldrcs	r0, [r6, #-0]
    1164:	00000000 	andeq	r0, r0, r0
    1168:	013c0405 	teqeq	ip, r5, lsl #8
    116c:	04050000 	streq	r0, [r5], #-0
    1170:	000005de 	ldrdeq	r0, [r0], -lr
    1174:	0000a615 	andeq	sl, r0, r5, lsl r6
    1178:	00062600 	andeq	r2, r6, r0, lsl #12
    117c:	04841600 	streq	r1, [r4], #1536	; 0x600
    1180:	2d160000 	ldccs	0, cr0, [r6, #-0]
    1184:	16000001 	strne	r0, [r0], -r1
    1188:	000000a6 	andeq	r0, r0, r6, lsr #1
    118c:	00002516 	andeq	r2, r0, r6, lsl r5
    1190:	04050000 	streq	r0, [r5], #-0
    1194:	00000608 	andeq	r0, r0, r8, lsl #12
    1198:	00002515 	andeq	r2, r0, r5, lsl r5
    119c:	00064000 	andeq	r4, r6, r0
    11a0:	04841600 	streq	r1, [r4], #1536	; 0x600
    11a4:	2d160000 	ldccs	0, cr0, [r6, #-0]
    11a8:	00000001 	andeq	r0, r0, r1
    11ac:	062c0405 	strteq	r0, [ip], -r5, lsl #8
    11b0:	5b0a0000 	blpl	2811b8 <__bss_end__+0x2771b8>
    11b4:	56000000 	strpl	r0, [r0], -r0
    11b8:	0b000006 	bleq	11d8 <_start-0x6e28>
    11bc:	0000002c 	andeq	r0, r0, ip, lsr #32
    11c0:	5b0a0002 	blpl	2811d0 <__bss_end__+0x2771d0>
    11c4:	66000000 	strvs	r0, [r0], -r0
    11c8:	0b000006 	bleq	11e8 <_start-0x6e18>
    11cc:	0000002c 	andeq	r0, r0, ip, lsr #32
    11d0:	ab070000 	blge	1c11d8 <__bss_end__+0x1b71d8>
    11d4:	07000003 	streq	r0, [r0, -r3]
    11d8:	231a011f 	tstcs	sl, #-1073741817	; 0xc0000007
    11dc:	1a000003 	bne	11f0 <_start-0x6e10>
    11e0:	000004c2 	andeq	r0, r0, r2, asr #9
    11e4:	0123070c 			; <UNDEFINED> instruction: 0x0123070c
    11e8:	0006ac08 	andeq	sl, r6, r8, lsl #24
    11ec:	03d31800 	bicseq	r1, r3, #0, 16
    11f0:	25070000 	strcs	r0, [r7, #-0]
    11f4:	06ac1101 	strteq	r1, [ip], r1, lsl #2
    11f8:	18000000 	stmdane	r0, {}	; <UNPREDICTABLE>
    11fc:	00000229 	andeq	r0, r0, r9, lsr #4
    1200:	07012607 	streq	r2, [r1, -r7, lsl #12]
    1204:	00000025 	andeq	r0, r0, r5, lsr #32
    1208:	03a51804 			; <UNDEFINED> instruction: 0x03a51804
    120c:	27070000 	strcs	r0, [r7, -r0]
    1210:	06b20b01 	ldrteq	r0, [r2], r1, lsl #22
    1214:	00080000 	andeq	r0, r8, r0
    1218:	06730405 	ldrbteq	r0, [r3], -r5, lsl #8
    121c:	04050000 	streq	r0, [r5], #-0
    1220:	00000666 	andeq	r0, r0, r6, ror #12
    1224:	00002f1a 	andeq	r2, r0, sl, lsl pc
    1228:	3f070e00 	svccc	0x00070e00
    122c:	06f10801 	ldrbteq	r0, [r1], r1, lsl #16
    1230:	22180000 	andscs	r0, r8, #0
    1234:	07000004 	streq	r0, [r0, -r4]
    1238:	f1120140 			; <UNDEFINED> instruction: 0xf1120140
    123c:	00000006 	andeq	r0, r0, r6
    1240:	00045618 	andeq	r5, r4, r8, lsl r6
    1244:	01410700 	cmpeq	r1, r0, lsl #14
    1248:	0006f112 	andeq	pc, r6, r2, lsl r1	; <UNPREDICTABLE>
    124c:	72180600 	andsvc	r0, r8, #0, 12
    1250:	07000004 	streq	r0, [r0, -r4]
    1254:	62120142 	andsvs	r0, r2, #-2147483632	; 0x80000010
    1258:	0c000000 	stceq	0, cr0, [r0], {-0}
    125c:	00620a00 	rsbeq	r0, r2, r0, lsl #20
    1260:	07010000 	streq	r0, [r1, -r0]
    1264:	2c0b0000 	stccs	0, cr0, [fp], {-0}
    1268:	02000000 	andeq	r0, r0, #0
    126c:	07d01b00 	ldrbeq	r1, [r0, r0, lsl #22]
    1270:	16070280 	strne	r0, [r7], -r0, lsl #5
    1274:	18000008 	stmdane	r0, {r3}
    1278:	000004a6 	andeq	r0, r0, r6, lsr #9
    127c:	18028207 	stmdane	r2, {r0, r1, r2, r9, pc}
    1280:	0000002c 	andeq	r0, r0, ip, lsr #32
    1284:	045c1800 	ldrbeq	r1, [ip], #-2048	; 0xfffff800
    1288:	83070000 	movwhi	r0, #28672	; 0x7000
    128c:	012f1202 			; <UNDEFINED> instruction: 0x012f1202
    1290:	18040000 	stmdane	r4, {}	; <UNPREDICTABLE>
    1294:	00000258 	andeq	r0, r0, r8, asr r2
    1298:	10028407 	andne	r8, r2, r7, lsl #8
    129c:	00000816 	andeq	r0, r0, r6, lsl r8
    12a0:	05061808 	streq	r1, [r6, #-2056]	; 0xfffff7f8
    12a4:	85070000 	strhi	r0, [r7, #-0]
    12a8:	01bd1702 			; <UNDEFINED> instruction: 0x01bd1702
    12ac:	18240000 	stmdane	r4!, {}	; <UNPREDICTABLE>
    12b0:	000001c6 	andeq	r0, r0, r6, asr #3
    12b4:	0f028607 	svceq	0x00028607
    12b8:	00000025 	andeq	r0, r0, r5, lsr #32
    12bc:	03ce1848 	biceq	r1, lr, #72, 16	; 0x480000
    12c0:	87070000 	strhi	r0, [r7, -r0]
    12c4:	007c2c02 	rsbseq	r2, ip, r2, lsl #24
    12c8:	18500000 	ldmdane	r0, {}^	; <UNPREDICTABLE>
    12cc:	0000051c 	andeq	r0, r0, ip, lsl r5
    12d0:	1a028807 	bne	a32f4 <__bss_end__+0x992f4>
    12d4:	000006b8 			; <UNDEFINED> instruction: 0x000006b8
    12d8:	03d91858 	bicseq	r1, r9, #88, 16	; 0x580000
    12dc:	89070000 	stmdbhi	r7, {}	; <UNPREDICTABLE>
    12e0:	01151602 	tsteq	r5, r2, lsl #12
    12e4:	18680000 	stmdane	r8!, {}^	; <UNPREDICTABLE>
    12e8:	00000521 	andeq	r0, r0, r1, lsr #10
    12ec:	16028a07 	strne	r8, [r2], -r7, lsl #20
    12f0:	00000115 	andeq	r0, r0, r5, lsl r1
    12f4:	02e11870 	rsceq	r1, r1, #112, 16	; 0x700000
    12f8:	8b070000 	blhi	1c1300 <__bss_end__+0x1b7300>
    12fc:	01151602 	tsteq	r5, r2, lsl #12
    1300:	18780000 	ldmdane	r8!, {}^	; <UNPREDICTABLE>
    1304:	000004d1 	ldrdeq	r0, [r0], -r1
    1308:	10028c07 	andne	r8, r2, r7, lsl #24
    130c:	00000826 	andeq	r0, r0, r6, lsr #16
    1310:	024c1880 	subeq	r1, ip, #128, 16	; 0x800000
    1314:	8d070000 	stchi	0, cr0, [r7, #-0]
    1318:	08361002 	ldmdaeq	r6!, {r1, ip}
    131c:	18880000 	stmne	r8, {}	; <UNPREDICTABLE>
    1320:	0000047f 	andeq	r0, r0, pc, ror r4
    1324:	0f028e07 	svceq	0x00028e07
    1328:	00000025 	andeq	r0, r0, r5, lsr #32
    132c:	018c18a0 	orreq	r1, ip, r0, lsr #17
    1330:	8f070000 	svchi	0x00070000
    1334:	01151602 	tsteq	r5, r2, lsl #12
    1338:	18a40000 	stmiane	r4!, {}	; <UNPREDICTABLE>
    133c:	0000009d 	muleq	r0, sp, r0
    1340:	16029007 	strne	r9, [r2], -r7
    1344:	00000115 	andeq	r0, r0, r5, lsl r1
    1348:	017b18ac 	cmneq	fp, ip, lsr #17
    134c:	91070000 	mrsls	r0, (UNDEF: 7)
    1350:	01151602 	tsteq	r5, r2, lsl #12
    1354:	18b40000 	ldmne	r4!, {}	; <UNPREDICTABLE>
    1358:	0000004a 	andeq	r0, r0, sl, asr #32
    135c:	16029207 	strne	r9, [r2], -r7, lsl #4
    1360:	00000115 	andeq	r0, r0, r5, lsl r1
    1364:	005918bc 	ldrheq	r1, [r9], #-140	; 0xffffff74
    1368:	93070000 	movwls	r0, #28672	; 0x7000
    136c:	01151602 	tsteq	r5, r2, lsl #12
    1370:	18c40000 	stmiane	r4, {}^	; <UNPREDICTABLE>
    1374:	00000381 	andeq	r0, r0, r1, lsl #7
    1378:	08029407 	stmdaeq	r2, {r0, r1, r2, sl, ip, pc}
    137c:	00000025 	andeq	r0, r0, r5, lsr #32
    1380:	350a00cc 	strcc	r0, [sl, #-204]	; 0xffffff34
    1384:	26000001 	strcs	r0, [r0], -r1
    1388:	0b000008 	bleq	13b0 <_start-0x6c50>
    138c:	0000002c 	andeq	r0, r0, ip, lsr #32
    1390:	350a0019 	strcc	r0, [sl, #-25]	; 0xffffffe7
    1394:	36000001 	strcc	r0, [r0], -r1
    1398:	0b000008 	bleq	13c0 <_start-0x6c40>
    139c:	0000002c 	andeq	r0, r0, ip, lsr #32
    13a0:	350a0007 	strcc	r0, [sl, #-7]
    13a4:	46000001 	strmi	r0, [r0], -r1
    13a8:	0b000008 	bleq	13d0 <_start-0x6c30>
    13ac:	0000002c 	andeq	r0, r0, ip, lsr #32
    13b0:	f01b0017 			; <UNDEFINED> instruction: 0xf01b0017
    13b4:	07029907 	streq	r9, [r2, -r7, lsl #18]
    13b8:	0000086d 	andeq	r0, r0, sp, ror #16
    13bc:	0002ad18 	andeq	sl, r2, r8, lsl sp
    13c0:	029c0700 	addseq	r0, ip, #0, 14
    13c4:	00086d1b 	andeq	r6, r8, fp, lsl sp
    13c8:	c8180000 	ldmdagt	r8, {}	; <UNPREDICTABLE>
    13cc:	07000004 	streq	r0, [r0, -r4]
    13d0:	7d18029d 	lfmvc	f0, 4, [r8, #-628]	; 0xfffffd8c
    13d4:	78000008 	stmdavc	r0, {r3}
    13d8:	031d0a00 	tsteq	sp, #0, 20
    13dc:	087d0000 	ldmdaeq	sp!, {}^	; <UNPREDICTABLE>
    13e0:	2c0b0000 	stccs	0, cr0, [fp], {-0}
    13e4:	1d000000 	stcne	0, cr0, [r0, #-0]
    13e8:	002c0a00 	eoreq	r0, ip, r0, lsl #20
    13ec:	088d0000 	stmeq	sp, {}	; <UNPREDICTABLE>
    13f0:	2c0b0000 	stccs	0, cr0, [fp], {-0}
    13f4:	1d000000 	stcne	0, cr0, [r0, #-0]
    13f8:	07f01c00 	ldrbeq	r1, [r0, r0, lsl #24]!
    13fc:	b203027e 	andlt	r0, r3, #-536870905	; 0xe0000007
    1400:	1d000008 	stcne	0, cr0, [r0, #-32]	; 0xffffffe0
    1404:	0000041b 	andeq	r0, r0, fp, lsl r4
    1408:	0b029507 	bleq	a682c <__bss_end__+0x9c82c>
    140c:	00000701 	andeq	r0, r0, r1, lsl #14
    1410:	0004f31d 	andeq	pc, r4, sp, lsl r3	; <UNPREDICTABLE>
    1414:	029e0700 	addseq	r0, lr, #0, 14
    1418:	0008460b 	andeq	r4, r8, fp, lsl #12
    141c:	350a0000 	strcc	r0, [sl, #-0]
    1420:	c2000001 	andgt	r0, r0, #1
    1424:	0b000008 	bleq	144c <_start-0x6bb4>
    1428:	0000002c 	andeq	r0, r0, ip, lsr #32
    142c:	92060018 	andls	r0, r6, #24
    1430:	05000000 	streq	r0, [r0, #-0]
    1434:	0008c204 	andeq	ip, r8, r4, lsl #4
    1438:	08d81e00 	ldmeq	r8, {r9, sl, fp, ip}^
    143c:	84160000 	ldrhi	r0, [r6], #-0
    1440:	00000004 	andeq	r0, r0, r4
    1444:	08cd0405 	stmiaeq	sp, {r0, r2, sl}^
    1448:	04050000 	streq	r0, [r5], #-0
    144c:	000001a7 	andeq	r0, r0, r7, lsr #3
    1450:	0008ef1e 	andeq	lr, r8, lr, lsl pc
    1454:	00251600 	eoreq	r1, r5, r0, lsl #12
    1458:	05000000 	streq	r0, [r0, #-0]
    145c:	0008f504 	andeq	pc, r8, r4, lsl #10
    1460:	e4040500 	str	r0, [r4], #-1280	; 0xfffffb00
    1464:	0a000008 	beq	148c <_start-0x6b74>
    1468:	00000666 	andeq	r0, r0, r6, ror #12
    146c:	0000090b 	andeq	r0, r0, fp, lsl #18
    1470:	00002c0b 	andeq	r2, r0, fp, lsl #24
    1474:	1f000200 	svcne	0x00000200
    1478:	00000493 	muleq	r0, r3, r4
    147c:	17032e07 	strne	r2, [r3, -r7, lsl #28]
    1480:	00000484 	andeq	r0, r0, r4, lsl #9
    1484:	00048c1f 	andeq	r8, r4, pc, lsl ip
    1488:	032f0700 			; <UNDEFINED> instruction: 0x032f0700
    148c:	00048a1d 	andeq	r8, r4, sp, lsl sl
    1490:	00251500 	eoreq	r1, r5, r0, lsl #10
    1494:	09340000 	ldmdbeq	r4!, {}	; <UNPREDICTABLE>
    1498:	25160000 	ldrcs	r0, [r6, #-0]
    149c:	00000000 	andeq	r0, r0, r0
    14a0:	0001df20 	andeq	sp, r1, r0, lsr #30
    14a4:	0e1d0800 	cdpeq	8, 1, cr0, cr13, cr0, {0}
    14a8:	00000940 	andeq	r0, r0, r0, asr #18
    14ac:	09250405 	stmdbeq	r5!, {r0, r2, sl}
    14b0:	25150000 	ldrcs	r0, [r5, #-0]
    14b4:	55000000 	strpl	r0, [r0, #-0]
    14b8:	16000009 	strne	r0, [r0], -r9
    14bc:	000005fc 	strdeq	r0, [r0], -ip
    14c0:	076d2000 	strbeq	r2, [sp, -r0]!
    14c4:	22080000 	andcs	r0, r8, #0
    14c8:	0009610e 	andeq	r6, r9, lr, lsl #2
    14cc:	46040500 	strmi	r0, [r4], -r0, lsl #10
    14d0:	21000009 	tstcs	r0, r9
    14d4:	005b0107 	subseq	r0, fp, r7, lsl #2
    14d8:	24020000 	strcs	r0, [r2], #-0
    14dc:	0009820e 	andeq	r8, r9, lr, lsl #4
    14e0:	05752200 	ldrbeq	r2, [r5, #-512]!	; 0xfffffe00
    14e4:	220b0000 	andcs	r0, fp, #0
    14e8:	0000056f 	andeq	r0, r0, pc, ror #10
    14ec:	0c0c000c 	stceq	0, cr0, [ip], {12}
    14f0:	b3092602 	movwlt	r2, #38402	; 0x9602
    14f4:	0d000009 	stceq	0, cr0, [r0, #-36]	; 0xffffffdc
    14f8:	00000217 	andeq	r0, r0, r7, lsl r2
    14fc:	fc112702 	ldc2	7, cr2, [r1], {2}
    1500:	00000005 	andeq	r0, r0, r5
    1504:	0004e00d 	andeq	lr, r4, sp
    1508:	11280200 			; <UNDEFINED> instruction: 0x11280200
    150c:	000005fc 	strdeq	r0, [r0], -ip
    1510:	05460d04 	strbeq	r0, [r6, #-3332]	; 0xfffff2fc
    1514:	29020000 	stmdbcs	r2, {}	; <UNPREDICTABLE>
    1518:	00002c0e 	andeq	r2, r0, lr, lsl #24
    151c:	04000800 	streq	r0, [r0], #-2048	; 0xfffff800
    1520:	0000063f 	andeq	r0, r0, pc, lsr r6
    1524:	82032a02 	andhi	r2, r3, #8192	; 0x2000
    1528:	10000009 	andne	r0, r0, r9
    152c:	000006b3 			; <UNDEFINED> instruction: 0x000006b3
    1530:	102d0238 	eorne	r0, sp, r8, lsr r2
    1534:	00000a4f 	andeq	r0, r0, pc, asr #20
    1538:	0005fb0d 	andeq	pc, r5, sp, lsl #22
    153c:	0e2e0200 	cdpeq	2, 2, cr0, cr14, cr0, {0}
    1540:	00000069 	andeq	r0, r0, r9, rrx
    1544:	06990d00 	ldreq	r0, [r9], r0, lsl #26
    1548:	2f020000 	svccs	0x00020000
    154c:	0000690e 	andeq	r6, r0, lr, lsl #18
    1550:	e90d0400 	stmdb	sp, {sl}
    1554:	02000002 	andeq	r0, r0, #2
    1558:	00690e30 	rsbeq	r0, r9, r0, lsr lr
    155c:	0d080000 	stceq	0, cr0, [r8, #-0]
    1560:	000005f5 	strdeq	r0, [r0], -r5
    1564:	690e3402 	stmdbvs	lr, {r1, sl, ip, sp}
    1568:	0c000000 	stceq	0, cr0, [r0], {-0}
    156c:	0005e70d 	andeq	lr, r5, sp, lsl #14
    1570:	0f360200 	svceq	0x00360200
    1574:	000009b3 			; <UNDEFINED> instruction: 0x000009b3
    1578:	055c0d10 	ldrbeq	r0, [ip, #-3344]	; 0xfffff2f0
    157c:	37020000 	strcc	r0, [r2, -r0]
    1580:	0009b30f 	andeq	fp, r9, pc, lsl #6
    1584:	890d1c00 	stmdbhi	sp, {sl, fp, ip}
    1588:	02000005 	andeq	r0, r0, #5
    158c:	00690e3b 	rsbeq	r0, r9, fp, lsr lr
    1590:	0d280000 	stceq	0, cr0, [r8, #-0]
    1594:	0000057d 	andeq	r0, r0, sp, ror r5
    1598:	690e3c02 	stmdbvs	lr, {r1, sl, fp, ip, sp}
    159c:	2c000000 	stccs	0, cr0, [r0], {-0}
    15a0:	00054d0d 	andeq	r4, r5, sp, lsl #26
    15a4:	153f0200 	ldrne	r0, [pc, #-512]!	; 13ac <_start-0x6c54>
    15a8:	00000a4f 	andeq	r0, r0, pc, asr #20
    15ac:	053e0d30 	ldreq	r0, [lr, #-3376]!	; 0xfffff2d0
    15b0:	41020000 	mrsmi	r0, (UNDEF: 2)
    15b4:	0000690e 	andeq	r6, r0, lr, lsl #18
    15b8:	05003400 	streq	r3, [r0, #-1024]	; 0xfffffc00
    15bc:	0009bf04 	andeq	fp, r9, r4, lsl #30
    15c0:	06930400 	ldreq	r0, [r3], r0, lsl #8
    15c4:	42020000 	andmi	r0, r2, #0
    15c8:	0009bf03 	andeq	fp, r9, r3, lsl #30
    15cc:	02072100 	andeq	r2, r7, #0, 2
    15d0:	00000062 	andeq	r0, r0, r2, rrx
    15d4:	89066202 	stmdbhi	r6, {r1, r9, sp, lr}
    15d8:	2200000a 	andcs	r0, r0, #10
    15dc:	00000669 	andeq	r0, r0, r9, ror #12
    15e0:	05ac22fe 	streq	r2, [ip, #766]!	; 0x2fe
    15e4:	22800000 	addcs	r0, r0, #0
    15e8:	000005b4 			; <UNDEFINED> instruction: 0x000005b4
    15ec:	059c23b8 	ldreq	r2, [ip, #952]	; 0x3b8
    15f0:	01380000 	teqeq	r8, r0
    15f4:	06642400 	strbteq	r2, [r4], -r0, lsl #8
    15f8:	07010000 	streq	r0, [r1, -r0]
    15fc:	000a9b11 	andeq	r9, sl, r1, lsl fp
    1600:	f8030500 			; <UNDEFINED> instruction: 0xf8030500
    1604:	0500009b 	streq	r0, [r0, #-155]	; 0xffffff65
    1608:	00004f04 	andeq	r4, r0, r4, lsl #30
    160c:	0c1e2400 	cfldrseq	mvf2, [lr], {-0}
    1610:	07010000 	streq	r0, [r1, -r0]
    1614:	000a9b1c 	andeq	r9, sl, ip, lsl fp
    1618:	fc030500 	stc2	5, cr0, [r3], {-0}
    161c:	2400009b 	strcs	r0, [r0], #-155	; 0xffffff65
    1620:	00000c05 	andeq	r0, r0, r5, lsl #24
    1624:	9b270701 	blls	9c3230 <__bss_end__+0x9b9230>
    1628:	0500000a 	streq	r0, [r0, #-10]
    162c:	009bf403 	addseq	pc, fp, r3, lsl #8
    1630:	000c2500 	andeq	r2, ip, r0, lsl #10
    1634:	aa010000 	bge	4163c <__bss_end__+0x3763c>
    1638:	00002505 	andeq	r2, r0, r5, lsl #10
    163c:	0087f800 	addeq	pc, r7, r0, lsl #16
    1640:	00015000 	andeq	r5, r1, r0
    1644:	9a9c0100 	bls	fe701a4c <__bss_end__+0xfe6f7a4c>
    1648:	2600000c 	strcs	r0, [r0], -ip
    164c:	00000594 	muleq	r0, r4, r5
    1650:	2c0eab01 			; <UNDEFINED> instruction: 0x2c0eab01
    1654:	53000000 	movwpl	r0, #0
    1658:	51000000 	mrspl	r0, (UNDEF: 0)
    165c:	26000000 	strcs	r0, [r0], -r0
    1660:	000006a4 	andeq	r0, r0, r4, lsr #13
    1664:	2c0eac01 	stccs	12, cr10, [lr], {1}
    1668:	68000000 	stmdavs	r0, {}	; <UNPREDICTABLE>
    166c:	66000000 	strvs	r0, [r0], -r0
    1670:	26000000 	strcs	r0, [r0], -r0
    1674:	00000652 	andeq	r0, r0, r2, asr r6
    1678:	2c0eb001 	stccs	0, cr11, [lr], {1}
    167c:	7f000000 	svcvc	0x00000000
    1680:	7b000000 	blvc	1688 <_start-0x6978>
    1684:	26000000 	strcs	r0, [r0], -r0
    1688:	00000639 	andeq	r0, r0, r9, lsr r6
    168c:	2c0eb101 	stfcsd	f3, [lr], {1}
    1690:	a2000000 	andge	r0, r0, #0
    1694:	9e000000 	cdpls	0, 0, cr0, cr0, cr0, {0}
    1698:	27000000 	strcs	r0, [r0, -r0]
    169c:	00000048 	andeq	r0, r0, r8, asr #32
    16a0:	00000bf5 	strdeq	r0, [r0], -r5
    16a4:	00067826 	andeq	r7, r6, r6, lsr #16
    16a8:	11b40100 			; <UNDEFINED> instruction: 0x11b40100
    16ac:	00000c9a 	muleq	r0, sl, ip
    16b0:	000000c3 	andeq	r0, r0, r3, asr #1
    16b4:	000000c1 	andeq	r0, r0, r1, asr #1
    16b8:	0088a028 	addeq	sl, r8, r8, lsr #32
    16bc:	0015c900 	andseq	ip, r5, r0, lsl #18
    16c0:	000b6000 	andeq	r6, fp, r0
    16c4:	50012900 	andpl	r2, r1, r0, lsl #18
    16c8:	00007402 	andeq	r7, r0, r2, lsl #8
    16cc:	0088b028 	addeq	fp, r8, r8, lsr #32
    16d0:	00184800 	andseq	r4, r8, r0, lsl #16
    16d4:	000b7400 	andeq	r7, fp, r0, lsl #8
    16d8:	50012900 	andpl	r2, r1, r0, lsl #18
    16dc:	00007402 	andeq	r7, r0, r2, lsl #8
    16e0:	0088bc28 	addeq	fp, r8, r8, lsr #24
    16e4:	00143b00 	andseq	r3, r4, r0, lsl #22
    16e8:	000b8e00 	andeq	r8, fp, r0, lsl #28
    16ec:	51012900 	tstpl	r1, r0, lsl #18
    16f0:	29800802 	stmibcs	r0, {r1, fp}
    16f4:	74025201 	strvc	r5, [r2], #-513	; 0xfffffdff
    16f8:	cc280000 	stcgt	0, cr0, [r8], #-0
    16fc:	cd000088 	stcgt	0, cr0, [r0, #-544]	; 0xfffffde0
    1700:	a2000017 	andge	r0, r0, #23
    1704:	2900000b 	stmdbcs	r0, {r0, r1, r3}
    1708:	74025001 	strvc	r5, [r2], #-1
    170c:	d8280000 	stmdale	r8!, {}	; <UNPREDICTABLE>
    1710:	a0000088 	andge	r0, r0, r8, lsl #1
    1714:	b6000017 			; <UNDEFINED> instruction: 0xb6000017
    1718:	2900000b 	stmdbcs	r0, {r0, r1, r3}
    171c:	74025001 	strvc	r5, [r2], #-1
    1720:	e8280000 	stmda	r8!, {}	; <UNPREDICTABLE>
    1724:	3b000088 	blcc	194c <_start-0x66b4>
    1728:	d0000014 	andle	r0, r0, r4, lsl r0
    172c:	2900000b 	stmdbcs	r0, {r0, r1, r3}
    1730:	77025001 	strvc	r5, [r2, -r1]
    1734:	52012900 	andpl	r2, r1, #0, 18
    1738:	00007402 	andeq	r7, r0, r2, lsl #8
    173c:	00890428 	addeq	r0, r9, r8, lsr #8
    1740:	00180a00 	andseq	r0, r8, r0, lsl #20
    1744:	000be400 	andeq	lr, fp, r0, lsl #8
    1748:	50012900 	andpl	r2, r1, r0, lsl #18
    174c:	00007402 	andeq	r7, r0, r2, lsl #8
    1750:	0089102a 	addeq	r1, r9, sl, lsr #32
    1754:	00127c00 	andseq	r7, r2, r0, lsl #24
    1758:	52012900 	andpl	r2, r1, #0, 18
    175c:	00007402 	andeq	r7, r0, r2, lsl #8
    1760:	881c2800 	ldmdahi	ip, {fp, sp}
    1764:	194c0000 	stmdbne	ip, {}^	; <UNPREDICTABLE>
    1768:	0c0c0000 	stceq	0, cr0, [ip], {-0}
    176c:	01290000 			; <UNDEFINED> instruction: 0x01290000
    1770:	90030550 	andls	r0, r3, r0, asr r5
    1774:	00000096 	muleq	r0, r6, r0
    1778:	00882c28 	addeq	r2, r8, r8, lsr #24
    177c:	00194c00 	andseq	r4, r9, r0, lsl #24
    1780:	000c2f00 	andeq	r2, ip, r0, lsl #30
    1784:	50012900 	andpl	r2, r1, r0, lsl #18
    1788:	991c0305 	ldmdbls	ip, {r0, r2, r8, r9}
    178c:	01290000 			; <UNDEFINED> instruction: 0x01290000
    1790:	00750251 	rsbseq	r0, r5, r1, asr r2
    1794:	02520129 	subseq	r0, r2, #1073741834	; 0x4000000a
    1798:	28000076 	stmdacs	r0, {r1, r2, r4, r5, r6}
    179c:	00008854 	andeq	r8, r0, r4, asr r8
    17a0:	0000194c 	andeq	r1, r0, ip, asr #18
    17a4:	00000c46 	andeq	r0, r0, r6, asr #24
    17a8:	05500129 	ldrbeq	r0, [r0, #-297]	; 0xfffffed7
    17ac:	00969003 	addseq	r9, r6, r3
    17b0:	64280000 	strtvs	r0, [r8], #-0
    17b4:	4c000088 	stcmi	0, cr0, [r0], {136}	; 0x88
    17b8:	69000019 	stmdbvs	r0, {r0, r3, r4}
    17bc:	2900000c 	stmdbcs	r0, {r2, r3}
    17c0:	03055001 	movweq	r5, #20481	; 0x5001
    17c4:	00009954 	andeq	r9, r0, r4, asr r9
    17c8:	02510129 	subseq	r0, r1, #1073741834	; 0x4000000a
    17cc:	01290075 			; <UNDEFINED> instruction: 0x01290075
    17d0:	00760252 	rsbseq	r0, r6, r2, asr r2
    17d4:	89242800 	stmdbhi	r4!, {fp, sp}
    17d8:	194c0000 	stmdbne	ip, {}^	; <UNPREDICTABLE>
    17dc:	0c800000 	stceq	0, cr0, [r0], {0}
    17e0:	01290000 			; <UNDEFINED> instruction: 0x01290000
    17e4:	90030550 	andls	r0, r3, r0, asr r5
    17e8:	00000096 	muleq	r0, r6, r0
    17ec:	0089302a 	addeq	r3, r9, sl, lsr #32
    17f0:	00194c00 	andseq	r4, r9, r0, lsl #24
    17f4:	50012900 	andpl	r2, r1, r0, lsl #18
    17f8:	997c0305 	ldmdbls	ip!, {r0, r2, r8, r9}^
    17fc:	01290000 			; <UNDEFINED> instruction: 0x01290000
    1800:	00750251 	rsbseq	r0, r5, r1, asr r2
    1804:	04050000 	streq	r0, [r5], #-0
    1808:	00000a55 	andeq	r0, r0, r5, asr sl
    180c:	00008125 	andeq	r8, r0, r5, lsr #2
    1810:	08830100 	stmeq	r3, {r8}
    1814:	0000012d 	andeq	r0, r0, sp, lsr #2
    1818:	000085dc 	ldrdeq	r8, [r0], -ip
    181c:	0000021c 	andeq	r0, r0, ip, lsl r2
    1820:	0ff49c01 	svceq	0x00f49c01
    1824:	842b0000 	strthi	r0, [fp], #-0
    1828:	01000006 	tsteq	r0, r6
    182c:	00691a83 	rsbeq	r1, r9, r3, lsl #21
    1830:	00e00000 	rsceq	r0, r0, r0
    1834:	00d60000 	sbcseq	r0, r6, r0
    1838:	172b0000 	strne	r0, [fp, -r0]!
    183c:	01000002 	tsteq	r0, r2
    1840:	05fc2e83 	ldrbeq	r2, [ip, #3715]!	; 0xe83
    1844:	012c0000 			; <UNDEFINED> instruction: 0x012c0000
    1848:	01220000 			; <UNDEFINED> instruction: 0x01220000
    184c:	e02b0000 	eor	r0, fp, r0
    1850:	01000004 	tsteq	r0, r4
    1854:	05fc4083 	ldrbeq	r4, [ip, #131]!	; 0x83
    1858:	01780000 	cmneq	r8, r0
    185c:	016e0000 	cmneq	lr, r0
    1860:	462b0000 	strtmi	r0, [fp], -r0
    1864:	01000005 	tsteq	r0, r5
    1868:	002c4f83 	eoreq	r4, ip, r3, lsl #31
    186c:	01c40000 	biceq	r0, r4, r0
    1870:	01ba0000 			; <UNDEFINED> instruction: 0x01ba0000
    1874:	682c0000 	stmdavs	ip!, {}	; <UNPREDICTABLE>
    1878:	0c840100 	stfeqs	f0, [r4], {0}
    187c:	00000c9a 	muleq	r0, sl, ip
    1880:	00000211 	andeq	r0, r0, r1, lsl r2
    1884:	00000209 	andeq	r0, r0, r9, lsl #4
    1888:	7274702c 	rsbsvc	r7, r4, #44	; 0x2c
    188c:	0b850100 	bleq	fe141c94 <__bss_end__+0xfe137c94>
    1890:	0000012d 	andeq	r0, r0, sp, lsr #2
    1894:	0000024f 	andeq	r0, r0, pc, asr #4
    1898:	00000247 	andeq	r0, r0, r7, asr #4
    189c:	00021c2d 	andeq	r1, r2, sp, lsr #24
    18a0:	00100400 	andseq	r0, r0, r0, lsl #8
    18a4:	bc030500 	cfstr32lt	mvfx0, [r3], {-0}
    18a8:	2c000099 	stccs	0, cr0, [r0], {153}	; 0x99
    18ac:	00746f74 	rsbseq	r6, r4, r4, ror pc
    18b0:	2c0e8a01 			; <UNDEFINED> instruction: 0x2c0e8a01
    18b4:	91000000 	mrsls	r0, (UNDEF: 0)
    18b8:	85000002 	strhi	r0, [r0, #-2]
    18bc:	2c000002 	stccs	0, cr0, [r0], {2}
    18c0:	8b01006e 	blhi	41a80 <__bss_end__+0x37a80>
    18c4:	00002c0e 	andeq	r2, r0, lr, lsl #24
    18c8:	0002e800 	andeq	lr, r2, r0, lsl #16
    18cc:	0002e400 	andeq	lr, r2, r0, lsl #8
    18d0:	860c2800 	strhi	r2, [ip], -r0, lsl #16
    18d4:	194c0000 	stmdbne	ip, {}^	; <UNPREDICTABLE>
    18d8:	0d7c0000 	ldcleq	0, cr0, [ip, #-0]
    18dc:	01290000 			; <UNDEFINED> instruction: 0x01290000
    18e0:	90030550 	andls	r0, r3, r0, asr r5
    18e4:	00000096 	muleq	r0, r6, r0
    18e8:	00861828 	addeq	r1, r6, r8, lsr #16
    18ec:	00194c00 	andseq	r4, r9, r0, lsl #24
    18f0:	000d9900 	andeq	r9, sp, r0, lsl #18
    18f4:	50012900 	andpl	r2, r1, r0, lsl #18
    18f8:	97e00305 	strbls	r0, [r0, r5, lsl #6]!
    18fc:	01290000 			; <UNDEFINED> instruction: 0x01290000
    1900:	00750251 	rsbseq	r0, r5, r1, asr r2
    1904:	867c2800 	ldrbthi	r2, [ip], -r0, lsl #16
    1908:	18480000 	stmdane	r8, {}^	; <UNPREDICTABLE>
    190c:	0dad0000 	stceq	0, cr0, [sp]
    1910:	01290000 			; <UNDEFINED> instruction: 0x01290000
    1914:	00740250 	rsbseq	r0, r4, r0, asr r2
    1918:	86842800 	strhi	r2, [r4], r0, lsl #16
    191c:	12210000 	eorne	r0, r1, #0
    1920:	0dc10000 	stcleq	0, cr0, [r1]
    1924:	01290000 			; <UNDEFINED> instruction: 0x01290000
    1928:	80080251 	andhi	r0, r8, r1, asr r2
    192c:	868c2800 	strhi	r2, [ip], r0, lsl #16
    1930:	17cd0000 	strbne	r0, [sp, r0]
    1934:	0dd50000 	ldcleq	0, cr0, [r5]
    1938:	01290000 			; <UNDEFINED> instruction: 0x01290000
    193c:	00740250 	rsbseq	r0, r4, r0, asr r2
    1940:	86982800 	ldrhi	r2, [r8], r0, lsl #16
    1944:	17a00000 	strne	r0, [r0, r0]!
    1948:	0de90000 	stcleq	0, cr0, [r9]
    194c:	01290000 			; <UNDEFINED> instruction: 0x01290000
    1950:	00740250 	rsbseq	r0, r4, r0, asr r2
    1954:	86a42800 	strthi	r2, [r4], r0, lsl #16
    1958:	12210000 	eorne	r0, r1, #0
    195c:	0dfd0000 	ldcleq	0, cr0, [sp]
    1960:	01290000 			; <UNDEFINED> instruction: 0x01290000
    1964:	00760250 	rsbseq	r0, r6, r0, asr r2
    1968:	86ac2800 	strthi	r2, [ip], r0, lsl #16
    196c:	17060000 	strne	r0, [r6, -r0]
    1970:	0e110000 	cdpeq	0, 1, cr0, cr1, cr0, {0}
    1974:	01290000 			; <UNDEFINED> instruction: 0x01290000
    1978:	00740250 	rsbseq	r0, r4, r0, asr r2
    197c:	86c82800 	strbhi	r2, [r8], r0, lsl #16
    1980:	11740000 	cmnne	r4, r0
    1984:	0e250000 	cdpeq	0, 2, cr0, cr5, cr0, {0}
    1988:	01290000 			; <UNDEFINED> instruction: 0x01290000
    198c:	00740250 	rsbseq	r0, r4, r0, asr r2
    1990:	86d82800 	ldrbhi	r2, [r8], r0, lsl #16
    1994:	180a0000 	stmdane	sl, {}	; <UNPREDICTABLE>
    1998:	0e390000 	cdpeq	0, 3, cr0, cr9, cr0, {0}
    199c:	01290000 			; <UNDEFINED> instruction: 0x01290000
    19a0:	00740250 	rsbseq	r0, r4, r0, asr r2
    19a4:	86e42800 	strbthi	r2, [r4], r0, lsl #16
    19a8:	194c0000 	stmdbne	ip, {}^	; <UNPREDICTABLE>
    19ac:	0e500000 	cdpeq	0, 5, cr0, cr0, cr0, {0}
    19b0:	01290000 			; <UNDEFINED> instruction: 0x01290000
    19b4:	90030550 	andls	r0, r3, r0, asr r5
    19b8:	00000096 	muleq	r0, r6, r0
    19bc:	0086f828 	addeq	pc, r6, r8, lsr #16
    19c0:	00194c00 	andseq	r4, r9, r0, lsl #24
    19c4:	000e7900 	andeq	r7, lr, r0, lsl #18
    19c8:	50012900 	andpl	r2, r1, r0, lsl #18
    19cc:	98ec0305 	stmials	ip!, {r0, r2, r8, r9}^
    19d0:	01290000 			; <UNDEFINED> instruction: 0x01290000
    19d4:	00750251 	rsbseq	r0, r5, r1, asr r2
    19d8:	02520129 	subseq	r0, r2, #1073741834	; 0x4000000a
    19dc:	01290079 			; <UNDEFINED> instruction: 0x01290079
    19e0:	00740253 	rsbseq	r0, r4, r3, asr r2
    19e4:	87082e00 	strhi	r2, [r8, -r0, lsl #28]
    19e8:	19580000 	ldmdbne	r8, {}^	; <UNPREDICTABLE>
    19ec:	1c280000 	stcne	0, cr0, [r8], #-0
    19f0:	4c000087 	stcmi	0, cr0, [r0], {135}	; 0x87
    19f4:	b1000019 	tstlt	r0, r9, lsl r0
    19f8:	2900000e 	stmdbcs	r0, {r1, r2, r3}
    19fc:	03055001 	movweq	r5, #20481	; 0x5001
    1a00:	000097a0 	andeq	r9, r0, r0, lsr #15
    1a04:	05510129 	ldrbeq	r0, [r1, #-297]	; 0xfffffed7
    1a08:	00975003 	addseq	r5, r7, r3
    1a0c:	52012900 	andpl	r2, r1, #0, 18
    1a10:	99bc0305 	ldmibls	ip!, {r0, r2, r8, r9}
    1a14:	01290000 			; <UNDEFINED> instruction: 0x01290000
    1a18:	87080253 	smlsdhi	r8, r3, r2, r0
    1a1c:	87202e00 	strhi	r2, [r0, -r0, lsl #28]!
    1a20:	19640000 	stmdbne	r4!, {}^	; <UNPREDICTABLE>
    1a24:	28280000 	stmdacs	r8!, {}	; <UNPREDICTABLE>
    1a28:	4c000087 	stcmi	0, cr0, [r0], {135}	; 0x87
    1a2c:	d1000019 	tstle	r0, r9, lsl r0
    1a30:	2900000e 	stmdbcs	r0, {r1, r2, r3}
    1a34:	03055001 	movweq	r5, #20481	; 0x5001
    1a38:	000097f8 	strdeq	r9, [r0], -r8
    1a3c:	87342800 	ldrhi	r2, [r4, -r0, lsl #16]!
    1a40:	194c0000 	stmdbne	ip, {}^	; <UNPREDICTABLE>
    1a44:	0eee0000 	cdpeq	0, 14, cr0, cr14, cr0, {0}
    1a48:	01290000 			; <UNDEFINED> instruction: 0x01290000
    1a4c:	04030550 	streq	r0, [r3], #-1360	; 0xfffffab0
    1a50:	29000098 	stmdbcs	r0, {r3, r4, r7}
    1a54:	75025101 	strvc	r5, [r2, #-257]	; 0xfffffeff
    1a58:	382e0000 	stmdacc	lr!, {}	; <UNPREDICTABLE>
    1a5c:	58000087 	stmdapl	r0, {r0, r1, r2, r7}
    1a60:	28000019 	stmdacs	r0, {r0, r3, r4}
    1a64:	00008750 	andeq	r8, r0, r0, asr r7
    1a68:	0000194c 	andeq	r1, r0, ip, asr #18
    1a6c:	00000f2d 	andeq	r0, r0, sp, lsr #30
    1a70:	05500129 	ldrbeq	r0, [r0, #-297]	; 0xfffffed7
    1a74:	00982c03 	addseq	r2, r8, r3, lsl #24
    1a78:	51012900 	tstpl	r1, r0, lsl #18
    1a7c:	97500305 	ldrbls	r0, [r0, -r5, lsl #6]
    1a80:	01290000 			; <UNDEFINED> instruction: 0x01290000
    1a84:	bc030552 	cfstr32lt	mvfx0, [r3], {82}	; 0x52
    1a88:	29000099 	stmdbcs	r0, {r0, r3, r4, r7}
    1a8c:	08025301 	stmdaeq	r2, {r0, r8, r9, ip, lr}
    1a90:	7d02298f 	vstrvc.16	s4, [r2, #-286]	; 0xfffffee2	; <UNPREDICTABLE>
    1a94:	00750200 	rsbseq	r0, r5, r0, lsl #4
    1a98:	87542e00 	ldrbhi	r2, [r4, -r0, lsl #28]
    1a9c:	19640000 	stmdbne	r4!, {}^	; <UNPREDICTABLE>
    1aa0:	5c280000 	stcpl	0, cr0, [r8], #-0
    1aa4:	4c000087 	stcmi	0, cr0, [r0], {135}	; 0x87
    1aa8:	4d000019 	stcmi	0, cr0, [r0, #-100]	; 0xffffff9c
    1aac:	2900000f 	stmdbcs	r0, {r0, r1, r2, r3}
    1ab0:	03055001 	movweq	r5, #20481	; 0x5001
    1ab4:	000097f8 	strdeq	r9, [r0], -r8
    1ab8:	87782800 	ldrbhi	r2, [r8, -r0, lsl #16]!
    1abc:	194c0000 	stmdbne	ip, {}^	; <UNPREDICTABLE>
    1ac0:	0f6a0000 	svceq	0x006a0000
    1ac4:	01290000 			; <UNDEFINED> instruction: 0x01290000
    1ac8:	64030550 	strvs	r0, [r3], #-1360	; 0xfffffab0
    1acc:	29000098 	stmdbcs	r0, {r3, r4, r7}
    1ad0:	79025201 	stmdbvc	r2, {r0, r9, ip, lr}
    1ad4:	7c2e0000 	stcvc	0, cr0, [lr], #-0
    1ad8:	58000087 	stmdapl	r0, {r0, r1, r2, r7}
    1adc:	28000019 	stmdacs	r0, {r0, r3, r4}
    1ae0:	000087a4 	andeq	r8, r0, r4, lsr #15
    1ae4:	0000194c 	andeq	r1, r0, ip, asr #18
    1ae8:	00000fa9 	andeq	r0, r0, r9, lsr #31
    1aec:	05500129 	ldrbeq	r0, [r0, #-297]	; 0xfffffed7
    1af0:	00989003 	addseq	r9, r8, r3
    1af4:	51012900 	tstpl	r1, r0, lsl #18
    1af8:	97500305 	ldrbls	r0, [r0, -r5, lsl #6]
    1afc:	01290000 			; <UNDEFINED> instruction: 0x01290000
    1b00:	bc030552 	cfstr32lt	mvfx0, [r3], {82}	; 0x52
    1b04:	29000099 	stmdbcs	r0, {r0, r3, r4, r7}
    1b08:	08025301 	stmdaeq	r2, {r0, r8, r9, ip, lr}
    1b0c:	7d022992 	vstrvc.16	s4, [r2, #-292]	; 0xfffffedc	; <UNPREDICTABLE>
    1b10:	00790204 	rsbseq	r0, r9, r4, lsl #4
    1b14:	87a82e00 	strhi	r2, [r8, r0, lsl #28]!
    1b18:	19640000 	stmdbne	r4!, {}^	; <UNPREDICTABLE>
    1b1c:	ac2e0000 	stcge	0, cr0, [lr], #-0
    1b20:	58000087 	stmdapl	r0, {r0, r1, r2, r7}
    1b24:	28000019 	stmdacs	r0, {r0, r3, r4}
    1b28:	000087c0 	andeq	r8, r0, r0, asr #15
    1b2c:	0000194c 	andeq	r1, r0, ip, asr #18
    1b30:	00000fea 	andeq	r0, r0, sl, ror #31
    1b34:	05500129 	ldrbeq	r0, [r0, #-297]	; 0xfffffed7
    1b38:	0098cc03 	addseq	ip, r8, r3, lsl #24
    1b3c:	51012900 	tstpl	r1, r0, lsl #18
    1b40:	97500305 	ldrbls	r0, [r0, -r5, lsl #6]
    1b44:	01290000 			; <UNDEFINED> instruction: 0x01290000
    1b48:	bc030552 	cfstr32lt	mvfx0, [r3], {82}	; 0x52
    1b4c:	29000099 	stmdbcs	r0, {r0, r3, r4, r7}
    1b50:	08025301 	stmdaeq	r2, {r0, r8, r9, ip, lr}
    1b54:	c42e00a1 	strtgt	r0, [lr], #-161	; 0xffffff5f
    1b58:	64000087 	strvs	r0, [r0], #-135	; 0xffffff79
    1b5c:	00000019 	andeq	r0, r0, r9, lsl r0
    1b60:	00013c0a 	andeq	r3, r1, sl, lsl #24
    1b64:	00100400 	andseq	r0, r0, r0, lsl #8
    1b68:	002c0b00 	eoreq	r0, ip, r0, lsl #22
    1b6c:	00070000 	andeq	r0, r7, r0
    1b70:	000ff40f 	andeq	pc, pc, pc, lsl #8
    1b74:	02822f00 	addeq	r2, r2, #0, 30
    1b78:	71010000 	mrsvc	r0, (UNDEF: 1)
    1b7c:	00852407 	addeq	r2, r5, r7, lsl #8
    1b80:	0000b800 	andeq	fp, r0, r0, lsl #16
    1b84:	5f9c0100 	svcpl	0x009c0100
    1b88:	2b000011 	blcs	1bd4 <_start-0x642c>
    1b8c:	00000c11 	andeq	r0, r0, r1, lsl ip
    1b90:	2d157101 	ldfcss	f7, [r5, #-4]
    1b94:	0a000001 	beq	1ba0 <_start-0x6460>
    1b98:	06000003 	streq	r0, [r0], -r3
    1b9c:	2b000003 	blcs	1bb0 <_start-0x6450>
    1ba0:	00000217 	andeq	r0, r0, r7, lsl r2
    1ba4:	fc277101 	stc2	1, cr7, [r7], #-4
    1ba8:	2c000005 	stccs	0, cr0, [r0], {5}
    1bac:	28000003 	stmdacs	r0, {r0, r1}
    1bb0:	2b000003 	blcs	1bc4 <_start-0x643c>
    1bb4:	000004e0 	andeq	r0, r0, r0, ror #9
    1bb8:	fc397101 	ldc2	1, cr7, [r9], #-4
    1bbc:	4e000005 	cdpmi	0, 0, cr0, cr0, cr5, {0}
    1bc0:	4a000003 	bmi	1bd4 <_start-0x642c>
    1bc4:	2b000003 	blcs	1bd8 <_start-0x6428>
    1bc8:	00000546 	andeq	r0, r0, r6, asr #10
    1bcc:	2c487101 	stfcse	f7, [r8], {1}
    1bd0:	70000000 	andvc	r0, r0, r0
    1bd4:	6c000003 	stcvs	0, cr0, [r0], {3}
    1bd8:	2c000003 	stccs	0, cr0, [r0], {3}
    1bdc:	72010068 	andvc	r0, r1, #104	; 0x68
    1be0:	000c9a0c 	andeq	r9, ip, ip, lsl #20
    1be4:	00039400 	andeq	r9, r3, r0, lsl #8
    1be8:	00038e00 	andeq	r8, r3, r0, lsl #28
    1bec:	021c2d00 	andseq	r2, ip, #0, 26
    1bf0:	116f0000 	cmnne	pc, r0
    1bf4:	03050000 	movweq	r0, #20480	; 0x5000
    1bf8:	000099b4 			; <UNDEFINED> instruction: 0x000099b4
    1bfc:	00853c28 	addeq	r3, r5, r8, lsr #24
    1c00:	00177100 	andseq	r7, r7, r0, lsl #2
    1c04:	0010a400 	andseq	sl, r0, r0, lsl #8
    1c08:	50012900 	andpl	r2, r1, r0, lsl #18
    1c0c:	00007502 	andeq	r7, r0, r2, lsl #10
    1c10:	00855828 	addeq	r5, r5, r8, lsr #16
    1c14:	00194c00 	andseq	r4, r9, r0, lsl #24
    1c18:	0010bb00 	andseq	fp, r0, r0, lsl #22
    1c1c:	50012900 	andpl	r2, r1, r0, lsl #18
    1c20:	96900305 	ldrls	r0, [r0], r5, lsl #6
    1c24:	28000000 	stmdacs	r0, {}	; <UNPREDICTABLE>
    1c28:	00008564 	andeq	r8, r0, r4, ror #10
    1c2c:	0000194c 	andeq	r1, r0, ip, asr #18
    1c30:	000010d8 	ldrdeq	r1, [r0], -r8
    1c34:	05500129 	ldrbeq	r0, [r0, #-297]	; 0xfffffed7
    1c38:	0097d403 	addseq	sp, r7, r3, lsl #8
    1c3c:	51012900 	tstpl	r1, r0, lsl #18
    1c40:	00007502 	andeq	r7, r0, r2, lsl #10
    1c44:	00856c28 	addeq	r6, r5, r8, lsr #24
    1c48:	00117400 	andseq	r7, r1, r0, lsl #8
    1c4c:	0010ec00 	andseq	lr, r0, r0, lsl #24
    1c50:	50012900 	andpl	r2, r1, r0, lsl #18
    1c54:	00007402 	andeq	r7, r0, r2, lsl #8
    1c58:	00859028 	addeq	r9, r5, r8, lsr #32
    1c5c:	00180a00 	andseq	r0, r8, r0, lsl #20
    1c60:	00110000 	andseq	r0, r1, r0
    1c64:	50012900 	andpl	r2, r1, r0, lsl #18
    1c68:	00007402 	andeq	r7, r0, r2, lsl #8
    1c6c:	0085982e 	addeq	r9, r5, lr, lsr #16
    1c70:	00122100 	andseq	r2, r2, r0, lsl #2
    1c74:	85a02800 	strhi	r2, [r0, #2048]!	; 0x800
    1c78:	17060000 	strne	r0, [r6, -r0]
    1c7c:	111d0000 	tstne	sp, r0
    1c80:	01290000 			; <UNDEFINED> instruction: 0x01290000
    1c84:	00740250 	rsbseq	r0, r4, r0, asr r2
    1c88:	85ac2e00 	strhi	r2, [ip, #3584]!	; 0xe00
    1c8c:	19580000 	ldmdbne	r8, {}^	; <UNPREDICTABLE>
    1c90:	c0280000 	eorgt	r0, r8, r0
    1c94:	4c000085 	stcmi	0, cr0, [r0], {133}	; 0x85
    1c98:	55000019 	strpl	r0, [r0, #-25]	; 0xffffffe7
    1c9c:	29000011 	stmdbcs	r0, {r0, r4}
    1ca0:	03055001 	movweq	r5, #20481	; 0x5001
    1ca4:	000097a0 	andeq	r9, r0, r0, lsr #15
    1ca8:	05510129 	ldrbeq	r0, [r1, #-297]	; 0xfffffed7
    1cac:	00975003 	addseq	r5, r7, r3
    1cb0:	52012900 	andpl	r2, r1, #0, 18
    1cb4:	99b40305 	ldmibls	r4!, {r0, r2, r8, r9}
    1cb8:	01290000 			; <UNDEFINED> instruction: 0x01290000
    1cbc:	74080253 	strvc	r0, [r8], #-595	; 0xfffffdad
    1cc0:	85c42e00 	strbhi	r2, [r4, #3584]	; 0xe00
    1cc4:	19640000 	stmdbne	r4!, {}^	; <UNPREDICTABLE>
    1cc8:	0a000000 	beq	1cd0 <_start-0x6330>
    1ccc:	0000013c 	andeq	r0, r0, ip, lsr r1
    1cd0:	0000116f 	andeq	r1, r0, pc, ror #2
    1cd4:	00002c0b 	andeq	r2, r0, fp, lsl #24
    1cd8:	0f000600 	svceq	0x00000600
    1cdc:	0000115f 	andeq	r1, r0, pc, asr r1
    1ce0:	00067230 	andeq	r7, r6, r0, lsr r2
    1ce4:	0c590100 	ldfeqe	f0, [r9], {-0}
    1ce8:	00000025 	andeq	r0, r0, r5, lsr #32
    1cec:	0000844c 	andeq	r8, r0, ip, asr #8
    1cf0:	00000064 	andeq	r0, r0, r4, rrx
    1cf4:	12219c01 	eorne	r9, r1, #256	; 0x100
    1cf8:	68310000 	ldmdavs	r1!, {}	; <UNPREDICTABLE>
    1cfc:	1f590100 	svcne	0x00590100
    1d00:	00000c9a 	muleq	r0, sl, ip
    1d04:	000003c1 	andeq	r0, r0, r1, asr #7
    1d08:	000003bd 			; <UNDEFINED> instruction: 0x000003bd
    1d0c:	00845828 	addeq	r5, r4, r8, lsr #16
    1d10:	0015c900 	andseq	ip, r5, r0, lsl #18
    1d14:	0011b400 	andseq	fp, r1, r0, lsl #8
    1d18:	50012900 	andpl	r2, r1, r0, lsl #18
    1d1c:	00007402 	andeq	r7, r0, r2, lsl #8
    1d20:	00846828 	addeq	r6, r4, r8, lsr #16
    1d24:	00184800 	andseq	r4, r8, r0, lsl #16
    1d28:	0011c800 	andseq	ip, r1, r0, lsl #16
    1d2c:	50012900 	andpl	r2, r1, r0, lsl #18
    1d30:	00007402 	andeq	r7, r0, r2, lsl #8
    1d34:	00847428 	addeq	r7, r4, r8, lsr #8
    1d38:	00143b00 	andseq	r3, r4, r0, lsl #22
    1d3c:	0011e200 	andseq	lr, r1, r0, lsl #4
    1d40:	51012900 	tstpl	r1, r0, lsl #18
    1d44:	29800802 	stmibcs	r0, {r1, fp}
    1d48:	74025201 	strvc	r5, [r2], #-513	; 0xfffffdff
    1d4c:	84280000 	strthi	r0, [r8], #-0
    1d50:	cd000084 	stcgt	0, cr0, [r0, #-528]	; 0xfffffdf0
    1d54:	f6000017 			; <UNDEFINED> instruction: 0xf6000017
    1d58:	29000011 	stmdbcs	r0, {r0, r4}
    1d5c:	74025001 	strvc	r5, [r2], #-1
    1d60:	90280000 	eorls	r0, r8, r0
    1d64:	a0000084 	andge	r0, r0, r4, lsl #1
    1d68:	0a000017 	beq	1dcc <_start-0x6234>
    1d6c:	29000012 	stmdbcs	r0, {r1, r4}
    1d70:	74025001 	strvc	r5, [r2], #-1
    1d74:	a02a0000 	eorge	r0, sl, r0
    1d78:	3b000084 	blcc	1f90 <_start-0x6070>
    1d7c:	29000014 	stmdbcs	r0, {r2, r4}
    1d80:	75025001 	strvc	r5, [r2, #-1]
    1d84:	52012900 	andpl	r2, r1, #0, 18
    1d88:	00007402 	andeq	r7, r0, r2, lsl #8
    1d8c:	05c13200 	strbeq	r3, [r1, #512]	; 0x200
    1d90:	4f010000 	svcmi	0x00010000
    1d94:	0082300d 	addeq	r3, r2, sp
    1d98:	00001400 	andeq	r1, r0, r0, lsl #8
    1d9c:	7c9c0100 	ldfvcs	f0, [ip], {0}
    1da0:	31000012 	tstcc	r0, r2, lsl r0
    1da4:	4f010070 	svcmi	0x00010070
    1da8:	00012d1c 	andeq	r2, r1, ip, lsl sp
    1dac:	0003e300 	andeq	lr, r3, r0, lsl #6
    1db0:	0003df00 	andeq	sp, r3, r0, lsl #30
    1db4:	06842b00 	streq	r2, [r4], r0, lsl #22
    1db8:	4f010000 	svcmi	0x00010000
    1dbc:	00002c28 	andeq	r2, r0, r8, lsr #24
    1dc0:	00040a00 	andeq	r0, r4, r0, lsl #20
    1dc4:	00040400 	andeq	r0, r4, r0, lsl #8
    1dc8:	82402a00 	subhi	r2, r0, #0, 20
    1dcc:	19700000 	ldmdbne	r0!, {}^	; <UNPREDICTABLE>
    1dd0:	01290000 			; <UNDEFINED> instruction: 0x01290000
    1dd4:	01f30350 	mvnseq	r0, r0, asr r3
    1dd8:	51012950 	tstpl	r1, r0, asr r9
    1ddc:	29fe0802 	ldmibcs	lr!, {r1, fp}^
    1de0:	f3035201 	vhsub.u8	d5, d3, d1
    1de4:	00005101 	andeq	r5, r0, r1, lsl #2
    1de8:	00061430 	andeq	r1, r6, r0, lsr r4
    1dec:	0c410100 	stfeqe	f0, [r1], {-0}
    1df0:	00000025 	andeq	r0, r0, r5, lsr #32
    1df4:	00008124 	andeq	r8, r0, r4, lsr #2
    1df8:	0000010c 	andeq	r0, r0, ip, lsl #2
    1dfc:	143b9c01 	ldrtne	r9, [fp], #-3073	; 0xfffff3ff
    1e00:	70310000 	eorsvc	r0, r1, r0
    1e04:	24410100 	strbcs	r0, [r1], #-256	; 0xffffff00
    1e08:	0000012f 	andeq	r0, r0, pc, lsr #2
    1e0c:	0000043e 	andeq	r0, r0, lr, lsr r4
    1e10:	00000436 	andeq	r0, r0, r6, lsr r4
    1e14:	0006842b 	andeq	r8, r6, fp, lsr #8
    1e18:	30410100 	subcc	r0, r1, r0, lsl #2
    1e1c:	0000002c 	andeq	r0, r0, ip, lsr #32
    1e20:	00000478 	andeq	r0, r0, r8, ror r4
    1e24:	00000472 	andeq	r0, r0, r2, ror r4
    1e28:	01006831 	tsteq	r0, r1, lsr r8
    1e2c:	0c9a3f41 	ldceq	15, cr3, [sl], {65}	; 0x41
    1e30:	04aa0000 	strteq	r0, [sl], #0
    1e34:	04a40000 	strteq	r0, [r4], #0
    1e38:	692c0000 	stmdbvs	ip!, {}	; <UNPREDICTABLE>
    1e3c:	09420100 	stmdbeq	r2, {r8}^
    1e40:	00000025 	andeq	r0, r0, r5, lsr #32
    1e44:	000004d9 	ldrdeq	r0, [r0], -r9
    1e48:	000004d3 	ldrdeq	r0, [r0], -r3
    1e4c:	00814c33 	addeq	r4, r1, r3, lsr ip
    1e50:	0000c000 	andeq	ip, r0, r0
    1e54:	05e22600 	strbeq	r2, [r2, #1536]!	; 0x600
    1e58:	45010000 	strmi	r0, [r1, #-0]
    1e5c:	00002511 	andeq	r2, r0, r1, lsl r5
    1e60:	00050500 	andeq	r0, r5, r0, lsl #10
    1e64:	00050300 	andeq	r0, r5, r0, lsl #6
    1e68:	19243400 	stmdbne	r4!, {sl, ip, sp}
    1e6c:	81800000 	orrhi	r0, r0, r0
    1e70:	00010000 	andeq	r0, r1, r0
    1e74:	01000000 	mrseq	r0, (UNDEF: 0)
    1e78:	13b00d46 	movsne	r0, #4480	; 0x1180
    1e7c:	31350000 	teqcc	r5, r0
    1e80:	1c000019 	stcne	0, cr0, [r0], {25}
    1e84:	18000005 	stmdane	r0, {r0, r2}
    1e88:	36000005 	strcc	r0, [r0], -r5
    1e8c:	00000000 	andeq	r0, r0, r0
    1e90:	00193b37 	andseq	r3, r9, r7, lsr fp
    1e94:	00053e00 	andeq	r3, r5, r0, lsl #28
    1e98:	00053a00 	andeq	r3, r5, r0, lsl #20
    1e9c:	81882800 	orrhi	r2, r8, r0, lsl #16
    1ea0:	194c0000 	stmdbne	ip, {}^	; <UNPREDICTABLE>
    1ea4:	13450000 	movtne	r0, #20480	; 0x5000
    1ea8:	01290000 			; <UNDEFINED> instruction: 0x01290000
    1eac:	00770250 	rsbseq	r0, r7, r0, asr r2
    1eb0:	81942800 	orrshi	r2, r4, r0, lsl #16
    1eb4:	194c0000 	stmdbne	ip, {}^	; <UNPREDICTABLE>
    1eb8:	135c0000 	cmpne	ip, #0
    1ebc:	01290000 			; <UNDEFINED> instruction: 0x01290000
    1ec0:	ec030550 	cfstr32	mvfx0, [r3], {80}	; 0x50
    1ec4:	00000096 	muleq	r0, r6, r0
    1ec8:	0081a828 	addeq	sl, r1, r8, lsr #16
    1ecc:	00194c00 	andseq	r4, r9, r0, lsl #24
    1ed0:	00137000 	andseq	r7, r3, r0
    1ed4:	50012900 	andpl	r2, r1, r0, lsl #18
    1ed8:	00007702 	andeq	r7, r0, r2, lsl #14
    1edc:	0081bc28 	addeq	fp, r1, r8, lsr #24
    1ee0:	00194c00 	andseq	r4, r9, r0, lsl #24
    1ee4:	00138700 	andseq	r8, r3, r0, lsl #14
    1ee8:	50012900 	andpl	r2, r1, r0, lsl #18
    1eec:	96f80305 	ldrbtls	r0, [r8], r5, lsl #6
    1ef0:	28000000 	stmdacs	r0, {}	; <UNPREDICTABLE>
    1ef4:	000081f4 	strdeq	r8, [r0], -r4
    1ef8:	0000194c 	andeq	r1, r0, ip, asr #18
    1efc:	0000139b 	muleq	r0, fp, r3
    1f00:	02500129 	subseq	r0, r0, #1073741834	; 0x4000000a
    1f04:	2a000077 	bcs	20e8 <_start-0x5f18>
    1f08:	00008208 	andeq	r8, r0, r8, lsl #4
    1f0c:	0000194c 	andeq	r1, r0, ip, asr #18
    1f10:	05500129 	ldrbeq	r0, [r0, #-297]	; 0xfffffed7
    1f14:	00971803 	addseq	r1, r7, r3, lsl #16
    1f18:	00000000 	andeq	r0, r0, r0
    1f1c:	00815428 	addeq	r5, r1, r8, lsr #8
    1f20:	00180a00 	andseq	r0, r8, r0, lsl #20
    1f24:	0013c400 	andseq	ip, r3, r0, lsl #8
    1f28:	50012900 	andpl	r2, r1, r0, lsl #18
    1f2c:	00007602 	andeq	r7, r0, r2, lsl #12
    1f30:	00816828 	addeq	r6, r1, r8, lsr #16
    1f34:	00194c00 	andseq	r4, r9, r0, lsl #24
    1f38:	0013d800 	andseq	sp, r3, r0, lsl #16
    1f3c:	50012900 	andpl	r2, r1, r0, lsl #18
    1f40:	00007702 	andeq	r7, r0, r2, lsl #14
    1f44:	00817028 	addeq	r7, r1, r8, lsr #32
    1f48:	00194c00 	andseq	r4, r9, r0, lsl #24
    1f4c:	0013ef00 	andseq	lr, r3, r0, lsl #30
    1f50:	50012900 	andpl	r2, r1, r0, lsl #18
    1f54:	96c00305 	strbls	r0, [r0], r5, lsl #6
    1f58:	28000000 	stmdacs	r0, {}	; <UNPREDICTABLE>
    1f5c:	00008180 	andeq	r8, r0, r0, lsl #3
    1f60:	0000194c 	andeq	r1, r0, ip, asr #18
    1f64:	00001412 	andeq	r1, r0, r2, lsl r4
    1f68:	05500129 	ldrbeq	r0, [r0, #-297]	; 0xfffffed7
    1f6c:	0096c803 	addseq	ip, r6, r3, lsl #16
    1f70:	51012900 	tstpl	r1, r0, lsl #18
    1f74:	29007502 	stmdbcs	r0, {r1, r8, sl, ip, sp, lr}
    1f78:	74025201 	strvc	r5, [r2], #-513	; 0xfffffdff
    1f7c:	d0280000 	eorle	r0, r8, r0
    1f80:	4c000081 	stcmi	0, cr0, [r0], {129}	; 0x81
    1f84:	26000019 			; <UNDEFINED> instruction: 0x26000019
    1f88:	29000014 	stmdbcs	r0, {r2, r4}
    1f8c:	77025001 	strvc	r5, [r2, -r1]
    1f90:	d82a0000 	stmdale	sl!, {}	; <UNPREDICTABLE>
    1f94:	4c000081 	stcmi	0, cr0, [r0], {129}	; 0x81
    1f98:	29000019 	stmdbcs	r0, {r0, r3, r4}
    1f9c:	03055001 	movweq	r5, #20481	; 0x5001
    1fa0:	00009734 	andeq	r9, r0, r4, lsr r7
    1fa4:	30000000 	andcc	r0, r0, r0
    1fa8:	000006a9 	andeq	r0, r0, r9, lsr #13
    1fac:	250c3401 	strcs	r3, [ip, #-1025]	; 0xfffffbff
    1fb0:	50000000 	andpl	r0, r0, r0
    1fb4:	fc000083 	stc2	0, cr0, [r0], {131}	; 0x83
    1fb8:	01000000 	mrseq	r0, (UNDEF: 0)
    1fbc:	0015c99c 	mulseq	r5, ip, r9
    1fc0:	00703100 	rsbseq	r3, r0, r0, lsl #2
    1fc4:	2f1c3401 	svccs	0x001c3401
    1fc8:	68000001 	stmdavs	r0, {r0}
    1fcc:	60000005 	andvs	r0, r0, r5
    1fd0:	2b000005 	blcs	1fec <_start-0x6014>
    1fd4:	00000684 	andeq	r0, r0, r4, lsl #13
    1fd8:	2c283401 	cfstrscs	mvf3, [r8], #-4
    1fdc:	a2000000 	andge	r0, r0, #0
    1fe0:	9c000005 	stcls	0, cr0, [r0], {5}
    1fe4:	31000005 	tstcc	r0, r5
    1fe8:	34010068 	strcc	r0, [r1], #-104	; 0xffffff98
    1fec:	000c9a37 	andeq	r9, ip, r7, lsr sl
    1ff0:	0005d400 	andeq	sp, r5, r0, lsl #8
    1ff4:	0005ce00 	andeq	ip, r5, r0, lsl #28
    1ff8:	00692c00 	rsbeq	r2, r9, r0, lsl #24
    1ffc:	25093501 	strcs	r3, [r9, #-1281]	; 0xfffffaff
    2000:	03000000 	movweq	r0, #0
    2004:	fd000006 	stc2	0, cr0, [r0, #-24]	; 0xffffffe8
    2008:	33000005 	movwcc	r0, #5
    200c:	00008378 	andeq	r8, r0, r8, ror r3
    2010:	000000b4 	strheq	r0, [r0], -r4
    2014:	0005e226 	andeq	lr, r5, r6, lsr #4
    2018:	11380100 	teqne	r8, r0, lsl #2
    201c:	00000025 	andeq	r0, r0, r5, lsr #32
    2020:	0000062f 	andeq	r0, r0, pc, lsr #12
    2024:	0000062d 	andeq	r0, r0, sp, lsr #12
    2028:	00192434 	andseq	r2, r9, r4, lsr r4
    202c:	0083b000 	addeq	fp, r3, r0
    2030:	00300100 	eorseq	r0, r0, r0, lsl #2
    2034:	39010000 	stmdbcc	r1, {}	; <UNPREDICTABLE>
    2038:	00156f0d 	andseq	r6, r5, sp, lsl #30
    203c:	19313500 	ldmdbne	r1!, {r8, sl, ip, sp}
    2040:	06440000 	strbeq	r0, [r4], -r0
    2044:	06420000 	strbeq	r0, [r2], -r0
    2048:	30360000 	eorscc	r0, r6, r0
    204c:	37000000 	strcc	r0, [r0, -r0]
    2050:	0000193b 	andeq	r1, r0, fp, lsr r9
    2054:	0000065b 	andeq	r0, r0, fp, asr r6
    2058:	00000657 	andeq	r0, r0, r7, asr r6
    205c:	0083b828 	addeq	fp, r3, r8, lsr #16
    2060:	00194c00 	andseq	r4, r9, r0, lsl #24
    2064:	00150400 	andseq	r0, r5, r0, lsl #8
    2068:	50012900 	andpl	r2, r1, r0, lsl #18
    206c:	00007702 	andeq	r7, r0, r2, lsl #14
    2070:	0083c428 	addeq	ip, r3, r8, lsr #8
    2074:	00194c00 	andseq	r4, r9, r0, lsl #24
    2078:	00151b00 	andseq	r1, r5, r0, lsl #22
    207c:	50012900 	andpl	r2, r1, r0, lsl #18
    2080:	96ec0305 	strbtls	r0, [ip], r5, lsl #6
    2084:	28000000 	stmdacs	r0, {}	; <UNPREDICTABLE>
    2088:	000083d8 	ldrdeq	r8, [r0], -r8	; <UNPREDICTABLE>
    208c:	0000194c 	andeq	r1, r0, ip, asr #18
    2090:	0000152f 	andeq	r1, r0, pc, lsr #10
    2094:	02500129 	subseq	r0, r0, #1073741834	; 0x4000000a
    2098:	28000077 	stmdacs	r0, {r0, r1, r2, r4, r5, r6}
    209c:	000083ec 	andeq	r8, r0, ip, ror #7
    20a0:	0000194c 	andeq	r1, r0, ip, asr #18
    20a4:	00001546 	andeq	r1, r0, r6, asr #10
    20a8:	05500129 	ldrbeq	r0, [r0, #-297]	; 0xfffffed7
    20ac:	0096f803 	addseq	pc, r6, r3, lsl #16
    20b0:	14280000 	strtne	r0, [r8], #-0
    20b4:	4c000084 	stcmi	0, cr0, [r0], {132}	; 0x84
    20b8:	5a000019 	bpl	2124 <_start-0x5edc>
    20bc:	29000015 	stmdbcs	r0, {r0, r2, r4}
    20c0:	77025001 	strvc	r5, [r2, -r1]
    20c4:	282a0000 	stmdacs	sl!, {}	; <UNPREDICTABLE>
    20c8:	4c000084 	stcmi	0, cr0, [r0], {132}	; 0x84
    20cc:	29000019 	stmdbcs	r0, {r0, r3, r4}
    20d0:	03055001 	movweq	r5, #20481	; 0x5001
    20d4:	00009718 	andeq	r9, r0, r8, lsl r7
    20d8:	28000000 	stmdacs	r0, {}	; <UNPREDICTABLE>
    20dc:	00008380 	andeq	r8, r0, r0, lsl #7
    20e0:	0000180a 	andeq	r1, r0, sl, lsl #16
    20e4:	00001583 	andeq	r1, r0, r3, lsl #11
    20e8:	02500129 	subseq	r0, r0, #1073741834	; 0x4000000a
    20ec:	28000076 	stmdacs	r0, {r1, r2, r4, r5, r6}
    20f0:	00008394 	muleq	r0, r4, r3
    20f4:	0000194c 	andeq	r1, r0, ip, asr #18
    20f8:	00001597 	muleq	r0, r7, r5
    20fc:	02500129 	subseq	r0, r0, #1073741834	; 0x4000000a
    2100:	28000077 	stmdacs	r0, {r0, r1, r2, r4, r5, r6}
    2104:	0000839c 	muleq	r0, ip, r3
    2108:	0000194c 	andeq	r1, r0, ip, asr #18
    210c:	000015ae 	andeq	r1, r0, lr, lsr #11
    2110:	05500129 	ldrbeq	r0, [r0, #-297]	; 0xfffffed7
    2114:	0096c003 	addseq	ip, r6, r3
    2118:	b02a0000 	eorlt	r0, sl, r0
    211c:	4c000083 	stcmi	0, cr0, [r0], {131}	; 0x83
    2120:	29000019 	stmdbcs	r0, {r0, r3, r4}
    2124:	03055001 	movweq	r5, #20481	; 0x5001
    2128:	000096c8 	andeq	r9, r0, r8, asr #13
    212c:	02520129 	subseq	r0, r2, #1073741834	; 0x4000000a
    2130:	00000074 	andeq	r0, r0, r4, ror r0
    2134:	06253000 	strteq	r3, [r5], -r0
    2138:	2a010000 	bcs	42140 <__bss_end__+0x38140>
    213c:	0000250c 	andeq	r2, r0, ip, lsl #10
    2140:	00826800 	addeq	r6, r2, r0, lsl #16
    2144:	0000e800 	andeq	lr, r0, r0, lsl #16
    2148:	069c0100 	ldreq	r0, [ip], r0, lsl #2
    214c:	31000017 	tstcc	r0, r7, lsl r0
    2150:	2a010068 	bcs	422f8 <__bss_end__+0x382f8>
    2154:	000c9a1d 	andeq	r9, ip, sp, lsl sl
    2158:	00068100 	andeq	r8, r6, r0, lsl #2
    215c:	00067d00 	andeq	r7, r6, r0, lsl #26
    2160:	19243400 	stmdbne	r4!, {sl, ip, sp}
    2164:	82b40000 	adcshi	r0, r4, #0
    2168:	18010000 	stmdane	r1, {}	; <UNPREDICTABLE>
    216c:	01000000 	mrseq	r0, (UNDEF: 0)
    2170:	16a8092d 	strtne	r0, [r8], sp, lsr #18
    2174:	31350000 	teqcc	r5, r0
    2178:	a1000019 	tstge	r0, r9, lsl r0
    217c:	9f000006 	svcls	0x00000006
    2180:	36000006 	strcc	r0, [r0], -r6
    2184:	00000018 	andeq	r0, r0, r8, lsl r0
    2188:	00193b37 	andseq	r3, r9, r7, lsr fp
    218c:	0006b800 	andeq	fp, r6, r0, lsl #16
    2190:	0006b400 	andeq	fp, r6, r0, lsl #8
    2194:	82bc2800 	adcshi	r2, ip, #0, 16
    2198:	194c0000 	stmdbne	ip, {}^	; <UNPREDICTABLE>
    219c:	163d0000 	ldrtne	r0, [sp], -r0
    21a0:	01290000 			; <UNDEFINED> instruction: 0x01290000
    21a4:	00750250 	rsbseq	r0, r5, r0, asr r2
    21a8:	82c82800 	sbchi	r2, r8, #0, 16
    21ac:	194c0000 	stmdbne	ip, {}^	; <UNPREDICTABLE>
    21b0:	16540000 	ldrbne	r0, [r4], -r0
    21b4:	01290000 			; <UNDEFINED> instruction: 0x01290000
    21b8:	ec030550 	cfstr32	mvfx0, [r3], {80}	; 0x50
    21bc:	00000096 	muleq	r0, r6, r0
    21c0:	0082dc28 	addeq	sp, r2, r8, lsr #24
    21c4:	00194c00 	andseq	r4, r9, r0, lsl #24
    21c8:	00166800 	andseq	r6, r6, r0, lsl #16
    21cc:	50012900 	andpl	r2, r1, r0, lsl #18
    21d0:	00007502 	andeq	r7, r0, r2, lsl #10
    21d4:	0082f028 	addeq	pc, r2, r8, lsr #32
    21d8:	00194c00 	andseq	r4, r9, r0, lsl #24
    21dc:	00167f00 	andseq	r7, r6, r0, lsl #30
    21e0:	50012900 	andpl	r2, r1, r0, lsl #18
    21e4:	96f80305 	ldrbtls	r0, [r8], r5, lsl #6
    21e8:	28000000 	stmdacs	r0, {}	; <UNPREDICTABLE>
    21ec:	00008318 	andeq	r8, r0, r8, lsl r3
    21f0:	0000194c 	andeq	r1, r0, ip, asr #18
    21f4:	00001693 	muleq	r0, r3, r6
    21f8:	02500129 	subseq	r0, r0, #1073741834	; 0x4000000a
    21fc:	2a000075 	bcs	23d8 <_start-0x5c28>
    2200:	0000832c 	andeq	r8, r0, ip, lsr #6
    2204:	0000194c 	andeq	r1, r0, ip, asr #18
    2208:	05500129 	ldrbeq	r0, [r0, #-297]	; 0xfffffed7
    220c:	00971803 	addseq	r1, r7, r3, lsl #16
    2210:	00000000 	andeq	r0, r0, r0
    2214:	00828828 	addeq	r8, r2, r8, lsr #16
    2218:	00170600 	andseq	r0, r7, r0, lsl #12
    221c:	0016bc00 	andseq	fp, r6, r0, lsl #24
    2220:	50012900 	andpl	r2, r1, r0, lsl #18
    2224:	00007402 	andeq	r7, r0, r2, lsl #8
    2228:	00829c28 	addeq	r9, r2, r8, lsr #24
    222c:	00194c00 	andseq	r4, r9, r0, lsl #24
    2230:	0016d000 	andseq	sp, r6, r0
    2234:	50012900 	andpl	r2, r1, r0, lsl #18
    2238:	00007502 	andeq	r7, r0, r2, lsl #10
    223c:	0082a428 	addeq	sl, r2, r8, lsr #8
    2240:	00194c00 	andseq	r4, r9, r0, lsl #24
    2244:	0016e700 	andseq	lr, r6, r0, lsl #14
    2248:	50012900 	andpl	r2, r1, r0, lsl #18
    224c:	96c00305 	strbls	r0, [r0], r5, lsl #6
    2250:	2a000000 	bcs	2258 <_start-0x5da8>
    2254:	000082b4 			; <UNDEFINED> instruction: 0x000082b4
    2258:	0000194c 	andeq	r1, r0, ip, asr #18
    225c:	05500129 	ldrbeq	r0, [r0, #-297]	; 0xfffffed7
    2260:	0096c803 	addseq	ip, r6, r3, lsl #16
    2264:	51012900 	tstpl	r1, r0, lsl #18
    2268:	29007402 	stmdbcs	r0, {r1, sl, ip, sp, lr}
    226c:	30015201 	andcc	r5, r1, r1, lsl #4
    2270:	f1300000 			; <UNDEFINED> instruction: 0xf1300000
    2274:	01000005 	tsteq	r0, r5
    2278:	00691121 	rsbeq	r1, r9, r1, lsr #2
    227c:	82440000 	subhi	r0, r4, #0
    2280:	00240000 	eoreq	r0, r4, r0
    2284:	9c010000 	stcls	0, cr0, [r1], {-0}
    2288:	00001771 	andeq	r1, r0, r1, ror r7
    228c:	01006831 	tsteq	r0, r1, lsr r8
    2290:	0c9a2221 	lfmeq	f2, 4, [sl], {33}	; 0x21
    2294:	06de0000 	ldrbeq	r0, [lr], r0
    2298:	06da0000 	ldrbeq	r0, [sl], r0
    229c:	6f2c0000 	svcvs	0x002c0000
    22a0:	0100646c 	tsteq	r0, ip, ror #8
    22a4:	002c0e22 	eoreq	r0, ip, r2, lsr #28
    22a8:	06fe0000 	ldrbteq	r0, [lr], r0
    22ac:	06fc0000 	ldrbteq	r0, [ip], r0
    22b0:	f5260000 			; <UNDEFINED> instruction: 0xf5260000
    22b4:	01000005 	tsteq	r0, r5
    22b8:	00690e24 	rsbeq	r0, r9, r4, lsr #28
    22bc:	07130000 	ldreq	r0, [r3, -r0]
    22c0:	07110000 	ldreq	r0, [r1, -r0]
    22c4:	602a0000 	eorvs	r0, sl, r0
    22c8:	7c000082 	stcvc	0, cr0, [r0], {130}	; 0x82
    22cc:	29000019 	stmdbcs	r0, {r0, r3, r4}
    22d0:	74025001 	strvc	r5, [r2], #-1
    22d4:	51012900 	tstpl	r1, r0, lsl #18
    22d8:	00380802 	eorseq	r0, r8, r2, lsl #16
    22dc:	05ca3000 	strbeq	r3, [sl]
    22e0:	1c010000 	stcne	0, cr0, [r1], {-0}
    22e4:	000c9a0f 	andeq	r9, ip, pc, lsl #20
    22e8:	00811c00 	addeq	r1, r1, r0, lsl #24
    22ec:	00000800 	andeq	r0, r0, r0, lsl #16
    22f0:	a09c0100 	addsge	r0, ip, r0, lsl #2
    22f4:	2b000017 	blcs	2358 <_start-0x5ca8>
    22f8:	00000c11 	andeq	r0, r0, r1, lsl ip
    22fc:	2d231c01 	stccs	12, cr1, [r3, #-4]!
    2300:	2a000001 	bcs	230c <_start-0x5cf4>
    2304:	26000007 	strcs	r0, [r0], -r7
    2308:	00000007 	andeq	r0, r0, r7
    230c:	00067e30 	andeq	r7, r6, r0, lsr lr
    2310:	11190100 	tstne	r9, r0, lsl #2
    2314:	0000002c 	andeq	r0, r0, ip, lsr #32
    2318:	00008110 	andeq	r8, r0, r0, lsl r1
    231c:	0000000c 	andeq	r0, r0, ip
    2320:	17cd9c01 	strbne	r9, [sp, r1, lsl #24]
    2324:	68310000 	ldmdavs	r1!, {}	; <UNPREDICTABLE>
    2328:	25190100 	ldrcs	r0, [r9, #-256]	; 0xffffff00
    232c:	00000c9a 	muleq	r0, sl, ip
    2330:	0000074f 	andeq	r0, r0, pc, asr #14
    2334:	0000074b 	andeq	r0, r0, fp, asr #14
    2338:	062f3000 	strteq	r3, [pc], -r0
    233c:	17010000 	strne	r0, [r1, -r0]
    2340:	00012d0e 	andeq	r2, r1, lr, lsl #26
    2344:	0080f800 	addeq	pc, r0, r0, lsl #16
    2348:	00001800 	andeq	r1, r0, r0, lsl #16
    234c:	0a9c0100 	beq	fe702754 <__bss_end__+0xfe6f8754>
    2350:	31000018 	tstcc	r0, r8, lsl r0
    2354:	17010068 	strne	r0, [r1, -r8, rrx]
    2358:	000c9a1f 	andeq	r9, ip, pc, lsl sl
    235c:	00077400 	andeq	r7, r7, r0, lsl #8
    2360:	00077000 	andeq	r7, r7, r0
    2364:	81042a00 	tsthi	r4, r0, lsl #20
    2368:	180a0000 	stmdane	sl, {}	; <UNPREDICTABLE>
    236c:	01290000 			; <UNDEFINED> instruction: 0x01290000
    2370:	00740250 	rsbseq	r0, r4, r0, asr r2
    2374:	08300000 	ldmdaeq	r0!, {}	; <UNPREDICTABLE>
    2378:	01000006 	tsteq	r0, r6
    237c:	012d0e15 			; <UNDEFINED> instruction: 0x012d0e15
    2380:	80e80000 	rschi	r0, r8, r0
    2384:	00100000 	andseq	r0, r0, r0
    2388:	9c010000 	stcls	0, cr0, [r1], {-0}
    238c:	00001848 	andeq	r1, r0, r8, asr #16
    2390:	01006831 	tsteq	r0, r1, lsr r8
    2394:	0c9a2115 	ldfeqs	f2, [sl], {21}
    2398:	07960000 	ldreq	r0, [r6, r0]
    239c:	07920000 	ldreq	r0, [r2, r0]
    23a0:	f02a0000 			; <UNDEFINED> instruction: 0xf02a0000
    23a4:	48000080 	stmdami	r0, {r7}
    23a8:	29000018 	stmdbcs	r0, {r3, r4}
    23ac:	f3035001 	vhadd.u8	d5, d3, d1
    23b0:	00005001 	andeq	r5, r0, r1
    23b4:	00056530 	andeq	r6, r5, r0, lsr r5
    23b8:	0e130100 	mufeqs	f0, f3, f0
    23bc:	0000012d 	andeq	r0, r0, sp, lsr #2
    23c0:	000080e0 	andeq	r8, r0, r0, ror #1
    23c4:	00000008 	andeq	r0, r0, r8
    23c8:	18759c01 	ldmdane	r5!, {r0, sl, fp, ip, pc}^
    23cc:	68310000 	ldmdavs	r1!, {}	; <UNPREDICTABLE>
    23d0:	1f130100 	svcne	0x00130100
    23d4:	00000c9a 	muleq	r0, sl, ip
    23d8:	000007bb 			; <UNDEFINED> instruction: 0x000007bb
    23dc:	000007b7 			; <UNDEFINED> instruction: 0x000007b7
    23e0:	01432f00 	cmpeq	r3, r0, lsl #30
    23e4:	09010000 	stmdbeq	r1, {}	; <UNPREDICTABLE>
    23e8:	0084b006 	addeq	fp, r4, r6
    23ec:	00007400 	andeq	r7, r0, r0, lsl #8
    23f0:	249c0100 	ldrcs	r0, [ip], #256	; 0x100
    23f4:	2b000019 	blcs	2460 <_start-0x5ba0>
    23f8:	00000c0a 	andeq	r0, r0, sl, lsl #24
    23fc:	2d140901 	vldrcs.16	s0, [r4, #-2]	; <UNPREDICTABLE>
    2400:	e5000001 	str	r0, [r0, #-1]
    2404:	db000007 	blle	2428 <_start-0x5bd8>
    2408:	31000007 	tstcc	r0, r7
    240c:	0901006e 	stmdbeq	r1, {r1, r2, r3, r5, r6}
    2410:	00002c24 	andeq	r2, r0, r4, lsr #24
    2414:	00083300 	andeq	r3, r8, r0, lsl #6
    2418:	00082b00 	andeq	r2, r8, r0, lsl #22
    241c:	021c2d00 	andseq	r2, ip, #0, 26
    2420:	10040000 	andne	r0, r4, r0
    2424:	03050000 	movweq	r0, #20480	; 0x5000
    2428:	000099ac 	andeq	r9, r0, ip, lsr #19
    242c:	0084dc28 	addeq	sp, r4, r8, lsr #24
    2430:	00194c00 	andseq	r4, r9, r0, lsl #24
    2434:	0018e300 	andseq	lr, r8, r0, lsl #6
    2438:	50012900 	andpl	r2, r1, r0, lsl #18
    243c:	97840305 	strls	r0, [r4, r5, lsl #6]
    2440:	01290000 			; <UNDEFINED> instruction: 0x01290000
    2444:	38080251 	stmdacc	r8, {r0, r4, r6, r9}
    2448:	02520129 	subseq	r0, r2, #1073741834	; 0x4000000a
    244c:	2e008008 	cdpcs	0, 0, cr8, cr0, cr8, {0}
    2450:	000084f8 	strdeq	r8, [r0], -r8	; <UNPREDICTABLE>
    2454:	00001958 	andeq	r1, r0, r8, asr r9
    2458:	00850c28 	addeq	r0, r5, r8, lsr #24
    245c:	00194c00 	andseq	r4, r9, r0, lsl #24
    2460:	00191a00 	andseq	r1, r9, r0, lsl #20
    2464:	50012900 	andpl	r2, r1, r0, lsl #18
    2468:	975c0305 	ldrbls	r0, [ip, -r5, lsl #6]
    246c:	01290000 			; <UNDEFINED> instruction: 0x01290000
    2470:	50030551 	andpl	r0, r3, r1, asr r5
    2474:	29000097 	stmdbcs	r0, {r0, r1, r2, r4, r7}
    2478:	03055201 	movweq	r5, #20993	; 0x5201
    247c:	000099ac 	andeq	r9, r0, ip, lsr #19
    2480:	01530129 	cmpeq	r3, r9, lsr #2
    2484:	102e003a 	eorne	r0, lr, sl, lsr r0
    2488:	64000085 	strvs	r0, [r0], #-133	; 0xffffff7b
    248c:	00000019 	andeq	r0, r0, r9, lsl r0
    2490:	00065a38 	andeq	r5, r6, r8, lsr sl
    2494:	14550200 	ldrbne	r0, [r5], #-512	; 0xfffffe00
    2498:	00194603 	andseq	r4, r9, r3, lsl #12
    249c:	00683900 	rsbeq	r3, r8, r0, lsl #18
    24a0:	9a255502 	bls	9578b0 <__bss_end__+0x94d8b0>
    24a4:	3a00000c 	bcc	24dc <_start-0x5b24>
    24a8:	5702006c 	strpl	r0, [r2, -ip, rrx]
    24ac:	00194610 	andseq	r4, r9, r0, lsl r6
    24b0:	04050000 	streq	r0, [r5], #-0
    24b4:	000009b3 			; <UNDEFINED> instruction: 0x000009b3
    24b8:	0007043b 	andeq	r0, r7, fp, lsr r4
    24bc:	00070400 	andeq	r0, r7, r0, lsl #8
    24c0:	05290800 	streq	r0, [r9, #-2048]!	; 0xfffff800
    24c4:	0001f73b 	andeq	pc, r1, fp, lsr r7	; <UNPREDICTABLE>
    24c8:	0001f700 	andeq	pc, r1, r0, lsl #14
    24cc:	061e0800 	ldreq	r0, [lr], -r0, lsl #16
    24d0:	0002a03b 	andeq	sl, r2, fp, lsr r0
    24d4:	0002a000 	andeq	sl, r2, r0
    24d8:	06650800 	strbteq	r0, [r5], -r0, lsl #16
    24dc:	00049f3b 	andeq	r9, r4, fp, lsr pc
    24e0:	00049f00 	andeq	r9, r4, r0, lsl #30
    24e4:	09210900 	stmdbeq	r1!, {r8, fp}
    24e8:	0005523b 	andeq	r5, r5, fp, lsr r2
    24ec:	00055200 	andeq	r5, r5, r0, lsl #4
    24f0:	0a050a00 	beq	144cf8 <__bss_end__+0x13acf8>
    24f4:	0009fe00 	andeq	pc, r9, r0, lsl #28
    24f8:	c0000400 	andgt	r0, r0, r0, lsl #8
    24fc:	04000005 	streq	r0, [r0], #-5
    2500:	00030201 	andeq	r0, r3, r1, lsl #4
    2504:	06ba0c00 	ldrteq	r0, [sl], r0, lsl #24
    2508:	06c60000 	strbeq	r0, [r6], r0
    250c:	89480000 	stmdbhi	r8, {}^	; <UNPREDICTABLE>
    2510:	00ec0000 	rsceq	r0, ip, r0
    2514:	087e0000 	ldmdaeq	lr!, {}^	; <UNPREDICTABLE>
    2518:	04020000 	streq	r0, [r2], #-0
    251c:	746e6905 	strbtvc	r6, [lr], #-2309	; 0xfffff6fb
    2520:	07040300 	streq	r0, [r4, -r0, lsl #6]
    2524:	00000074 	andeq	r0, r0, r4, ror r0
    2528:	f1060103 	cps	#3
    252c:	03000002 	movweq	r0, #2
    2530:	038a0502 	orreq	r0, sl, #8388608	; 0x800000
    2534:	04030000 	streq	r0, [r3], #-0
    2538:	0000ba05 	andeq	fp, r0, r5, lsl #20
    253c:	05080300 	streq	r0, [r8, #-768]	; 0xfffffd00
    2540:	000000b5 	strheq	r0, [r0], -r5
    2544:	00068b04 	andeq	r8, r6, r4, lsl #22
    2548:	182e0200 	stmdane	lr!, {r9}
    254c:	0000005b 	andeq	r0, r0, fp, asr r0
    2550:	ef080103 	svc	0x00080103
    2554:	03000002 	movweq	r0, #2
    2558:	02300702 	eorseq	r0, r0, #524288	; 0x80000
    255c:	49040000 	stmdbmi	r4, {}	; <UNPREDICTABLE>
    2560:	02000006 	andeq	r0, r0, #6
    2564:	00751934 	rsbseq	r1, r5, r4, lsr r9
    2568:	04030000 	streq	r0, [r3], #-0
    256c:	00006f07 	andeq	r6, r0, r7, lsl #30
    2570:	07080300 	streq	r0, [r8, -r0, lsl #6]
    2574:	0000006a 	andeq	r0, r0, sl, rrx
    2578:	00027304 	andeq	r7, r2, r4, lsl #6
    257c:	19220300 	stmdbne	r2!, {r8, r9}
    2580:	0000008f 	andeq	r0, r0, pc, lsl #1
    2584:	00950405 	addseq	r0, r5, r5, lsl #8
    2588:	30060000 	andcc	r0, r6, r0
    258c:	04000004 	streq	r0, [r0], #-4
    2590:	000002d0 	ldrdeq	r0, [r0], -r0	; <UNPREDICTABLE>
    2594:	410e2c04 	tstmi	lr, r4, lsl #24
    2598:	04000000 	streq	r0, [r0], #-0
    259c:	00000445 	andeq	r0, r0, r5, asr #8
    25a0:	410e7204 	tstmi	lr, r4, lsl #4
    25a4:	07000000 	streq	r0, [r0, -r0]
    25a8:	0000027b 	andeq	r0, r0, fp, ror r2
    25ac:	17015e05 	strne	r5, [r1, -r5, lsl #28]
    25b0:	0000002c 	andeq	r0, r0, ip, lsr #32
    25b4:	a6040408 	strge	r0, [r4], -r8, lsl #8
    25b8:	0000e103 	andeq	lr, r0, r3, lsl #2
    25bc:	026d0900 	rsbeq	r0, sp, #0, 18
    25c0:	a8040000 	stmdage	r4, {}	; <UNPREDICTABLE>
    25c4:	0000b20c 	andeq	fp, r0, ip, lsl #4
    25c8:	01f00900 	mvnseq	r0, r0, lsl #18
    25cc:	a9040000 	stmdbge	r4, {}	; <UNPREDICTABLE>
    25d0:	0000e113 	andeq	lr, r0, r3, lsl r1
    25d4:	5b0a0000 	blpl	2825dc <__bss_end__+0x2785dc>
    25d8:	f1000000 	cps	#0
    25dc:	0b000000 	bleq	25e4 <_start-0x5a1c>
    25e0:	0000002c 	andeq	r0, r0, ip, lsr #32
    25e4:	080c0003 	stmdaeq	ip, {r0, r1}
    25e8:	1509a304 	strne	sl, [r9, #-772]	; 0xfffffcfc
    25ec:	0d000001 	stceq	0, cr0, [r0, #-4]
    25f0:	00000428 	andeq	r0, r0, r8, lsr #8
    25f4:	2507a504 	strcs	sl, [r7, #-1284]	; 0xfffffafc
    25f8:	00000000 	andeq	r0, r0, r0
    25fc:	0004370d 	andeq	r3, r4, sp, lsl #14
    2600:	05aa0400 	streq	r0, [sl, #1024]!	; 0x400
    2604:	000000bf 	strheq	r0, [r0], -pc	; <UNPREDICTABLE>
    2608:	b2040004 	andlt	r0, r4, #4
    260c:	04000003 	streq	r0, [r0], #-3
    2610:	00f103ab 	rscseq	r0, r1, fp, lsr #7
    2614:	ad040000 	stcge	0, cr0, [r4, #-0]
    2618:	04000001 	streq	r0, [r0], #-1
    261c:	00831baf 	addeq	r1, r3, pc, lsr #23
    2620:	040e0000 	streq	r0, [lr], #-0
    2624:	01350405 	teqeq	r5, r5, lsl #8
    2628:	01030000 	mrseq	r0, (UNDEF: 3)
    262c:	0002f808 	andeq	pc, r2, r8, lsl #16
    2630:	01350f00 	teqeq	r5, r0, lsl #30
    2634:	77040000 	strvc	r0, [r4, -r0]
    2638:	06000004 	streq	r0, [r0], -r4
    263c:	00751916 	rsbseq	r1, r5, r6, lsl r9
    2640:	be100000 	cdplt	0, 1, cr0, cr0, cr0, {0}
    2644:	18000001 	stmdane	r0, {r0}
    2648:	a7082f06 	strge	r2, [r8, -r6, lsl #30]
    264c:	0d000001 	stceq	0, cr0, [r0, #-4]
    2650:	000003d3 	ldrdeq	r0, [r0], -r3
    2654:	a7133106 	ldrge	r3, [r3, -r6, lsl #2]
    2658:	00000001 	andeq	r0, r0, r1
    265c:	006b5f11 	rsbeq	r5, fp, r1, lsl pc
    2660:	25073206 	strcs	r3, [r7, #-518]	; 0xfffffdfa
    2664:	04000000 	streq	r0, [r0], #-0
    2668:	0004130d 	andeq	r1, r4, sp, lsl #6
    266c:	0b320600 	bleq	c83e74 <__bss_end__+0xc79e74>
    2670:	00000025 	andeq	r0, r0, r5, lsr #32
    2674:	01a70d08 			; <UNDEFINED> instruction: 0x01a70d08
    2678:	32060000 	andcc	r0, r6, #0
    267c:	00002514 	andeq	r2, r0, r4, lsl r5
    2680:	b30d0c00 	movwlt	r0, #56320	; 0xdc00
    2684:	06000004 	streq	r0, [r0], -r4
    2688:	00251b32 	eoreq	r1, r5, r2, lsr fp
    268c:	11100000 	tstne	r0, r0
    2690:	0600785f 			; <UNDEFINED> instruction: 0x0600785f
    2694:	01ad0b33 			; <UNDEFINED> instruction: 0x01ad0b33
    2698:	00140000 	andseq	r0, r4, r0
    269c:	014d0405 	cmpeq	sp, r5, lsl #8
    26a0:	410a0000 	mrsmi	r0, (UNDEF: 10)
    26a4:	bd000001 	stclt	0, cr0, [r0, #-4]
    26a8:	0b000001 	bleq	26b4 <_start-0x594c>
    26ac:	0000002c 	andeq	r0, r0, ip, lsr #32
    26b0:	eb100000 	bl	4026b8 <__bss_end__+0x3f86b8>
    26b4:	24000001 	strcs	r0, [r0], #-1
    26b8:	40083706 	andmi	r3, r8, r6, lsl #14
    26bc:	0d000002 	stceq	0, cr0, [r0, #-8]
    26c0:	000000ac 	andeq	r0, r0, ip, lsr #1
    26c4:	25093906 	strcs	r3, [r9, #-2310]	; 0xfffff6fa
    26c8:	00000000 	andeq	r0, r0, r0
    26cc:	00044d0d 	andeq	r4, r4, sp, lsl #26
    26d0:	093a0600 	ldmdbeq	sl!, {r9, sl}
    26d4:	00000025 	andeq	r0, r0, r5, lsr #32
    26d8:	00cf0d04 	sbceq	r0, pc, r4, lsl #26
    26dc:	3b060000 	blcc	1826e4 <__bss_end__+0x1786e4>
    26e0:	00002509 	andeq	r2, r0, r9, lsl #10
    26e4:	340d0800 	strcc	r0, [sp], #-2048	; 0xfffff800
    26e8:	06000005 	streq	r0, [r0], -r5
    26ec:	0025093c 	eoreq	r0, r5, ip, lsr r9
    26f0:	0d0c0000 	stceq	0, cr0, [ip, #-0]
    26f4:	000002b4 			; <UNDEFINED> instruction: 0x000002b4
    26f8:	25093d06 	strcs	r3, [r9, #-3334]	; 0xfffff2fa
    26fc:	10000000 	andne	r0, r0, r0
    2700:	0002960d 	andeq	r9, r2, sp, lsl #12
    2704:	093e0600 	ldmdbeq	lr!, {r9, sl}
    2708:	00000025 	andeq	r0, r0, r5, lsr #32
    270c:	04b80d14 	ldrteq	r0, [r8], #3348	; 0xd14
    2710:	3f060000 	svccc	0x00060000
    2714:	00002509 	andeq	r2, r0, r9, lsl #10
    2718:	940d1800 	strls	r1, [sp], #-2048	; 0xfffff800
    271c:	06000003 	streq	r0, [r0], -r3
    2720:	00250940 	eoreq	r0, r5, r0, asr #18
    2724:	0d1c0000 	ldceq	0, cr0, [ip, #-0]
    2728:	000004fb 	strdeq	r0, [r0], -fp
    272c:	25094106 	strcs	r4, [r9, #-262]	; 0xfffffefa
    2730:	20000000 	andcs	r0, r0, r0
    2734:	010f1200 	mrseq	r1, (UNDEF: 47)
    2738:	01080000 	mrseq	r0, (UNDEF: 8)
    273c:	85084a06 	strhi	r4, [r8, #-2566]	; 0xfffff5fa
    2740:	0d000002 	stceq	0, cr0, [r0, #-8]
    2744:	0000019a 	muleq	r0, sl, r1
    2748:	850a4b06 	strhi	r4, [sl, #-2822]	; 0xfffff4fa
    274c:	00000002 	andeq	r0, r0, r2
    2750:	0000000d 	andeq	r0, r0, sp
    2754:	094c0600 	stmdbeq	ip, {r9, sl}^
    2758:	00000285 	andeq	r0, r0, r5, lsl #5
    275c:	04691380 	strbteq	r1, [r9], #-896	; 0xfffffc80
    2760:	4e060000 	cdpmi	0, 0, cr0, cr6, cr0, {0}
    2764:	0001410a 	andeq	r4, r1, sl, lsl #2
    2768:	13010000 	movwne	r0, #4096	; 0x1000
    276c:	00000134 	andeq	r0, r0, r4, lsr r1
    2770:	410a5106 	tstmi	sl, r6, lsl #2
    2774:	04000001 	streq	r0, [r0], #-1
    2778:	2d0a0001 	stccs	0, cr0, [sl, #-4]
    277c:	95000001 	strls	r0, [r0, #-1]
    2780:	0b000002 	bleq	2790 <_start-0x5870>
    2784:	0000002c 	andeq	r0, r0, ip, lsr #32
    2788:	bd12001f 	ldclt	0, cr0, [r2, #-124]	; 0xffffff84
    278c:	90000002 	andls	r0, r0, r2
    2790:	085d0601 	ldmdaeq	sp, {r0, r9, sl}^
    2794:	000002d8 	ldrdeq	r0, [r0], -r8
    2798:	0003d30d 	andeq	sp, r3, sp, lsl #6
    279c:	125e0600 	subsne	r0, lr, #0, 12
    27a0:	000002d8 	ldrdeq	r0, [r0], -r8
    27a4:	03eb0d00 	mvneq	r0, #0, 26
    27a8:	5f060000 	svcpl	0x00060000
    27ac:	00002506 	andeq	r2, r0, r6, lsl #10
    27b0:	a20d0400 	andge	r0, sp, #0, 8
    27b4:	06000001 	streq	r0, [r0], -r1
    27b8:	02de0961 	sbcseq	r0, lr, #1589248	; 0x184000
    27bc:	0d080000 	stceq	0, cr0, [r8, #-0]
    27c0:	0000010f 	andeq	r0, r0, pc, lsl #2
    27c4:	401e6206 	andsmi	r6, lr, r6, lsl #4
    27c8:	88000002 	stmdahi	r0, {r1}
    27cc:	95040500 	strls	r0, [r4, #-1280]	; 0xfffffb00
    27d0:	0a000002 	beq	27e0 <_start-0x5820>
    27d4:	000002ee 	andeq	r0, r0, lr, ror #5
    27d8:	000002ee 	andeq	r0, r0, lr, ror #5
    27dc:	00002c0b 	andeq	r2, r0, fp, lsl #24
    27e0:	05001f00 	streq	r1, [r0, #-3840]	; 0xfffff100
    27e4:	0002f404 	andeq	pc, r2, r4, lsl #8
    27e8:	9e101400 	cfmulsls	mvf1, mvf0, mvf0
    27ec:	08000003 	stmdaeq	r0, {r0, r1}
    27f0:	1d087506 	cfstr32ne	mvfx7, [r8, #-24]	; 0xffffffe8
    27f4:	0d000003 	stceq	0, cr0, [r0, #-12]
    27f8:	000000c9 	andeq	r0, r0, r9, asr #1
    27fc:	1d117606 	ldcne	6, cr7, [r1, #-24]	; 0xffffffe8
    2800:	00000003 	andeq	r0, r0, r3
    2804:	00001b0d 	andeq	r1, r0, sp, lsl #22
    2808:	06770600 	ldrbteq	r0, [r7], -r0, lsl #12
    280c:	00000025 	andeq	r0, r0, r5, lsr #32
    2810:	04050004 	streq	r0, [r5], #-4
    2814:	0000005b 	andeq	r0, r0, fp, asr r0
    2818:	0003bd10 	andeq	fp, r3, r0, lsl sp
    281c:	b5066800 	strlt	r6, [r6, #-2048]	; 0xfffff800
    2820:	00046608 	andeq	r6, r4, r8, lsl #12
    2824:	705f1100 	subsvc	r1, pc, r0, lsl #2
    2828:	12b60600 	adcsne	r0, r6, #0, 12
    282c:	0000031d 	andeq	r0, r0, sp, lsl r3
    2830:	725f1100 	subsvc	r1, pc, #0, 2
    2834:	07b70600 	ldreq	r0, [r7, r0, lsl #12]!
    2838:	00000025 	andeq	r0, r0, r5, lsr #32
    283c:	775f1104 	ldrbvc	r1, [pc, -r4, lsl #2]
    2840:	07b80600 	ldreq	r0, [r8, r0, lsl #12]!
    2844:	00000025 	andeq	r0, r0, r5, lsr #32
    2848:	012d0d08 			; <UNDEFINED> instruction: 0x012d0d08
    284c:	b9060000 	stmdblt	r6, {}	; <UNPREDICTABLE>
    2850:	00003a09 	andeq	r3, r0, r9, lsl #20
    2854:	160d0c00 	strne	r0, [sp], -r0, lsl #24
    2858:	06000002 	streq	r0, [r0], -r2
    285c:	003a09ba 	ldrhteq	r0, [sl], -sl
    2860:	110e0000 	mrsne	r0, (UNDEF: 14)
    2864:	0066625f 	rsbeq	r6, r6, pc, asr r2
    2868:	f511bb06 			; <UNDEFINED> instruction: 0xf511bb06
    286c:	10000002 	andne	r0, r0, r2
    2870:	0000890d 	andeq	r8, r0, sp, lsl #18
    2874:	07bc0600 	ldreq	r0, [ip, r0, lsl #12]!
    2878:	00000025 	andeq	r0, r0, r5, lsr #32
    287c:	011d0d18 	tsteq	sp, r8, lsl sp
    2880:	c3060000 	movwgt	r0, #24576	; 0x6000
    2884:	00012d0a 	andeq	r2, r1, sl, lsl #26
    2888:	290d1c00 	stmdbcs	sp, {sl, fp, ip}
    288c:	0600000b 	streq	r0, [r0], -fp
    2890:	05d81dc5 	ldrbeq	r1, [r8, #3525]	; 0xdc5
    2894:	0d200000 	stceq	0, cr0, [r0, #-0]
    2898:	0000061e 	andeq	r0, r0, lr, lsl r6
    289c:	021dc706 	andseq	ip, sp, #1572864	; 0x180000
    28a0:	24000006 	strcs	r0, [r0], #-6
    28a4:	00043f0d 	andeq	r3, r4, sp, lsl #30
    28a8:	0dca0600 	stcleq	6, cr0, [sl]
    28ac:	00000626 	andeq	r0, r0, r6, lsr #12
    28b0:	05150d28 	ldreq	r0, [r5, #-3368]	; 0xfffff2d8
    28b4:	cb060000 	blgt	1828bc <__bss_end__+0x1788bc>
    28b8:	00064009 	andeq	r4, r6, r9
    28bc:	5f112c00 	svcpl	0x00112c00
    28c0:	06006275 			; <UNDEFINED> instruction: 0x06006275
    28c4:	02f511ce 	rscseq	r1, r5, #-2147483597	; 0x80000033
    28c8:	11300000 	teqne	r0, r0
    28cc:	0070755f 	rsbseq	r7, r0, pc, asr r5
    28d0:	1d12cf06 	ldcne	15, cr12, [r2, #-24]	; 0xffffffe8
    28d4:	38000003 	stmdacc	r0, {r0, r1}
    28d8:	72755f11 	rsbsvc	r5, r5, #17, 30	; 0x44
    28dc:	07d00600 	ldrbeq	r0, [r0, r0, lsl #12]
    28e0:	00000025 	andeq	r0, r0, r5, lsr #32
    28e4:	00c30d3c 	sbceq	r0, r3, ip, lsr sp
    28e8:	d3060000 	movwle	r0, #24576	; 0x6000
    28ec:	00064611 	andeq	r4, r6, r1, lsl r6
    28f0:	ed0d4000 	stc	0, cr4, [sp, #-0]
    28f4:	06000004 	streq	r0, [r0], -r4
    28f8:	065611d4 			; <UNDEFINED> instruction: 0x065611d4
    28fc:	11430000 	mrsne	r0, (UNDEF: 67)
    2900:	00626c5f 	rsbeq	r6, r2, pc, asr ip
    2904:	f511d706 			; <UNDEFINED> instruction: 0xf511d706
    2908:	44000002 	strmi	r0, [r0], #-2
    290c:	00014b0d 	andeq	r4, r1, sp, lsl #22
    2910:	07da0600 	ldrbeq	r0, [sl, r0, lsl #12]
    2914:	00000025 	andeq	r0, r0, r5, lsr #32
    2918:	015c0d4c 	cmpeq	ip, ip, asr #26
    291c:	db060000 	blle	182924 <__bss_end__+0x178924>
    2920:	00009a0a 	andeq	r9, r0, sl, lsl #20
    2924:	ca0d5000 	bgt	35692c <__bss_end__+0x34c92c>
    2928:	0600000a 	streq	r0, [r0], -sl
    292c:	048412de 	streq	r1, [r4], #734	; 0x2de
    2930:	0d540000 	ldcleq	0, cr0, [r4, #-0]
    2934:	00000431 	andeq	r0, r0, r1, lsr r4
    2938:	210ce206 	tstcs	ip, r6, lsl #4
    293c:	58000001 	stmdapl	r0, {r0}
    2940:	0003c50d 	andeq	ip, r3, sp, lsl #10
    2944:	0ee40600 	cdpeq	6, 14, cr0, cr4, cr0, {0}
    2948:	00000115 	andeq	r0, r0, r5, lsl r1
    294c:	028e0d5c 	addeq	r0, lr, #92, 26	; 0x1700
    2950:	e5060000 	str	r0, [r6, #-0]
    2954:	00002509 	andeq	r2, r0, r9, lsl #10
    2958:	15006400 	strne	r6, [r0, #-1024]	; 0xfffffc00
    295c:	00000025 	andeq	r0, r0, r5, lsr #32
    2960:	00000484 	andeq	r0, r0, r4, lsl #9
    2964:	00048416 	andeq	r8, r4, r6, lsl r4
    2968:	012d1600 			; <UNDEFINED> instruction: 0x012d1600
    296c:	2f160000 	svccs	0x00160000
    2970:	16000001 	strne	r0, [r0], -r1
    2974:	00000025 	andeq	r0, r0, r5, lsr #32
    2978:	8f040500 	svchi	0x00040500
    297c:	0f000004 	svceq	0x00000004
    2980:	00000484 	andeq	r0, r0, r4, lsl #9
    2984:	00041b17 	andeq	r1, r4, r7, lsl fp
    2988:	06042800 	streq	r2, [r4], -r0, lsl #16
    298c:	d8080260 	stmdale	r8, {r5, r6, r9}
    2990:	18000005 	stmdane	r0, {r0, r2}
    2994:	00000383 	andeq	r0, r0, r3, lsl #7
    2998:	07026206 	streq	r6, [r2, -r6, lsl #4]
    299c:	00000025 	andeq	r0, r0, r5, lsr #32
    29a0:	013c1800 	teqeq	ip, r0, lsl #16
    29a4:	67060000 	strvs	r0, [r6, -r0]
    29a8:	06b20b02 	ldrteq	r0, [r2], r2, lsl #22
    29ac:	18040000 	stmdane	r4, {}	; <UNPREDICTABLE>
    29b0:	00000206 	andeq	r0, r0, r6, lsl #4
    29b4:	14026706 	strne	r6, [r2], #-1798	; 0xfffff8fa
    29b8:	000006b2 			; <UNDEFINED> instruction: 0x000006b2
    29bc:	01b61808 			; <UNDEFINED> instruction: 0x01b61808
    29c0:	67060000 	strvs	r0, [r6, -r0]
    29c4:	06b21e02 	ldrteq	r1, [r2], r2, lsl #28
    29c8:	180c0000 	stmdane	ip, {}	; <UNPREDICTABLE>
    29cc:	000003e6 	andeq	r0, r0, r6, ror #7
    29d0:	08026906 	stmdaeq	r2, {r1, r2, r8, fp, sp, lr}
    29d4:	00000025 	andeq	r0, r0, r5, lsr #32
    29d8:	00371810 	eorseq	r1, r7, r0, lsl r8
    29dc:	6a060000 	bvs	1829e4 <__bss_end__+0x1789e4>
    29e0:	08b20802 	ldmeq	r2!, {r1, fp}
    29e4:	18140000 	ldmdane	r4, {}	; <UNPREDICTABLE>
    29e8:	000003fa 	strdeq	r0, [r0], -sl
    29ec:	07026d06 	streq	r6, [r2, -r6, lsl #26]
    29f0:	00000025 	andeq	r0, r0, r5, lsr #32
    29f4:	0a061830 	beq	188abc <__bss_end__+0x17eabc>
    29f8:	6e060000 	cdpvs	0, 0, cr0, cr6, cr0, {0}
    29fc:	08c71602 	stmiaeq	r7, {r1, r9, sl, ip}^
    2a00:	18340000 	ldmdane	r4!, {}	; <UNPREDICTABLE>
    2a04:	000002c5 	andeq	r0, r0, r5, asr #5
    2a08:	07027006 	streq	r7, [r2, -r6]
    2a0c:	00000025 	andeq	r0, r0, r5, lsr #32
    2a10:	03f01838 	mvnseq	r1, #56, 16	; 0x380000
    2a14:	72060000 	andvc	r0, r6, #0
    2a18:	08d80a02 	ldmeq	r8, {r1, r9, fp}^
    2a1c:	183c0000 	ldmdane	ip!, {}	; <UNPREDICTABLE>
    2a20:	00000265 	andeq	r0, r0, r5, ror #4
    2a24:	13027506 	movwne	r7, #9478	; 0x2506
    2a28:	000001a7 	andeq	r0, r0, r7, lsr #3
    2a2c:	01d51840 	bicseq	r1, r5, r0, asr #16
    2a30:	76060000 	strvc	r0, [r6], -r0
    2a34:	00250702 	eoreq	r0, r5, r2, lsl #14
    2a38:	18440000 	stmdane	r4, {}^	; <UNPREDICTABLE>
    2a3c:	0000052f 	andeq	r0, r0, pc, lsr #10
    2a40:	13027706 	movwne	r7, #9990	; 0x2706
    2a44:	000001a7 	andeq	r0, r0, r7, lsr #3
    2a48:	02d71848 	sbcseq	r1, r7, #72, 16	; 0x480000
    2a4c:	78060000 	stmdavc	r6, {}	; <UNPREDICTABLE>
    2a50:	08de1402 	ldmeq	lr, {r1, sl, ip}^
    2a54:	184c0000 	stmdane	ip, {}^	; <UNPREDICTABLE>
    2a58:	0000020e 	andeq	r0, r0, lr, lsl #4
    2a5c:	07027b06 	streq	r7, [r2, -r6, lsl #22]
    2a60:	00000025 	andeq	r0, r0, r5, lsr #32
    2a64:	01541850 	cmpeq	r4, r0, asr r8
    2a68:	7c060000 	stcvc	0, cr0, [r6], {-0}
    2a6c:	012f0902 			; <UNDEFINED> instruction: 0x012f0902
    2a70:	18540000 	ldmdane	r4, {}^	; <UNPREDICTABLE>
    2a74:	000002fd 	strdeq	r0, [r0], -sp
    2a78:	07029f06 	streq	r9, [r2, -r6, lsl #30]
    2a7c:	0000088d 	andeq	r0, r0, sp, lsl #17
    2a80:	02bd1958 	adcseq	r1, sp, #88, 18	; 0x160000
    2a84:	a3060000 	movwge	r0, #24576	; 0x6000
    2a88:	02d81302 	sbcseq	r1, r8, #134217728	; 0x8000000
    2a8c:	01480000 	mrseq	r0, (UNDEF: 72)
    2a90:	00024319 	andeq	r4, r2, r9, lsl r3
    2a94:	02a40600 	adceq	r0, r4, #0, 12
    2a98:	00029512 	andeq	r9, r2, r2, lsl r5
    2a9c:	19014c00 	stmdbne	r1, {sl, fp, lr}
    2aa0:	000004db 	ldrdeq	r0, [r0], -fp
    2aa4:	0c02a806 	stceq	8, cr10, [r2], {6}
    2aa8:	000008ef 	andeq	r0, r0, pc, ror #17
    2aac:	251902dc 	ldrcs	r0, [r9, #-732]	; 0xfffffd24
    2ab0:	06000001 	streq	r0, [r0], -r1
    2ab4:	731002ad 	tstvc	r0, #-805306358	; 0xd000000a
    2ab8:	e0000006 	and	r0, r0, r6
    2abc:	010a1902 	tsteq	sl, r2, lsl #18
    2ac0:	af060000 	svcge	0x00060000
    2ac4:	08fb0a02 	ldmeq	fp!, {r1, r9, fp}^
    2ac8:	02ec0000 	rsceq	r0, ip, #0
    2acc:	66040500 	strvs	r0, [r4], -r0, lsl #10
    2ad0:	15000004 	strne	r0, [r0, #-4]
    2ad4:	00000025 	andeq	r0, r0, r5, lsr #32
    2ad8:	000005fc 	strdeq	r0, [r0], -ip
    2adc:	00048416 	andeq	r8, r4, r6, lsl r4
    2ae0:	012d1600 			; <UNDEFINED> instruction: 0x012d1600
    2ae4:	fc160000 	ldc2	0, cr0, [r6], {-0}
    2ae8:	16000005 	strne	r0, [r0], -r5
    2aec:	00000025 	andeq	r0, r0, r5, lsr #32
    2af0:	3c040500 	cfstr32cc	mvfx0, [r4], {-0}
    2af4:	05000001 	streq	r0, [r0, #-1]
    2af8:	0005de04 	andeq	sp, r5, r4, lsl #28
    2afc:	00a61500 	adceq	r1, r6, r0, lsl #10
    2b00:	06260000 	strteq	r0, [r6], -r0
    2b04:	84160000 	ldrhi	r0, [r6], #-0
    2b08:	16000004 	strne	r0, [r0], -r4
    2b0c:	0000012d 	andeq	r0, r0, sp, lsr #2
    2b10:	0000a616 	andeq	sl, r0, r6, lsl r6
    2b14:	00251600 	eoreq	r1, r5, r0, lsl #12
    2b18:	05000000 	streq	r0, [r0, #-0]
    2b1c:	00060804 	andeq	r0, r6, r4, lsl #16
    2b20:	00251500 	eoreq	r1, r5, r0, lsl #10
    2b24:	06400000 	strbeq	r0, [r0], -r0
    2b28:	84160000 	ldrhi	r0, [r6], #-0
    2b2c:	16000004 	strne	r0, [r0], -r4
    2b30:	0000012d 	andeq	r0, r0, sp, lsr #2
    2b34:	2c040500 	cfstr32cs	mvfx0, [r4], {-0}
    2b38:	0a000006 	beq	2b58 <_start-0x54a8>
    2b3c:	0000005b 	andeq	r0, r0, fp, asr r0
    2b40:	00000656 	andeq	r0, r0, r6, asr r6
    2b44:	00002c0b 	andeq	r2, r0, fp, lsl #24
    2b48:	0a000200 	beq	3350 <_start-0x4cb0>
    2b4c:	0000005b 	andeq	r0, r0, fp, asr r0
    2b50:	00000666 	andeq	r0, r0, r6, ror #12
    2b54:	00002c0b 	andeq	r2, r0, fp, lsl #24
    2b58:	07000000 	streq	r0, [r0, -r0]
    2b5c:	000003ab 	andeq	r0, r0, fp, lsr #7
    2b60:	1a011f06 	bne	4a780 <__bss_end__+0x40780>
    2b64:	00000323 	andeq	r0, r0, r3, lsr #6
    2b68:	0004c21a 	andeq	ip, r4, sl, lsl r2
    2b6c:	23060c00 	movwcs	r0, #27648	; 0x6c00
    2b70:	06ac0801 	strteq	r0, [ip], r1, lsl #16
    2b74:	d3180000 	tstle	r8, #0
    2b78:	06000003 	streq	r0, [r0], -r3
    2b7c:	ac110125 	ldfges	f0, [r1], {37}	; 0x25
    2b80:	00000006 	andeq	r0, r0, r6
    2b84:	00022918 	andeq	r2, r2, r8, lsl r9
    2b88:	01260600 			; <UNDEFINED> instruction: 0x01260600
    2b8c:	00002507 	andeq	r2, r0, r7, lsl #10
    2b90:	a5180400 	ldrge	r0, [r8, #-1024]	; 0xfffffc00
    2b94:	06000003 	streq	r0, [r0], -r3
    2b98:	b20b0127 	andlt	r0, fp, #-1073741815	; 0xc0000009
    2b9c:	08000006 	stmdaeq	r0, {r1, r2}
    2ba0:	73040500 	movwvc	r0, #17664	; 0x4500
    2ba4:	05000006 	streq	r0, [r0, #-6]
    2ba8:	00066604 	andeq	r6, r6, r4, lsl #12
    2bac:	002f1a00 	eoreq	r1, pc, r0, lsl #20
    2bb0:	060e0000 	streq	r0, [lr], -r0
    2bb4:	f108013f 			; <UNDEFINED> instruction: 0xf108013f
    2bb8:	18000006 	stmdane	r0, {r1, r2}
    2bbc:	00000422 	andeq	r0, r0, r2, lsr #8
    2bc0:	12014006 	andne	r4, r1, #6
    2bc4:	000006f1 	strdeq	r0, [r0], -r1
    2bc8:	04561800 	ldrbeq	r1, [r6], #-2048	; 0xfffff800
    2bcc:	41060000 	mrsmi	r0, (UNDEF: 6)
    2bd0:	06f11201 	ldrbteq	r1, [r1], r1, lsl #4
    2bd4:	18060000 	stmdane	r6, {}	; <UNPREDICTABLE>
    2bd8:	00000472 	andeq	r0, r0, r2, ror r4
    2bdc:	12014206 	andne	r4, r1, #1610612736	; 0x60000000
    2be0:	00000062 	andeq	r0, r0, r2, rrx
    2be4:	620a000c 	andvs	r0, sl, #12
    2be8:	01000000 	mrseq	r0, (UNDEF: 0)
    2bec:	0b000007 	bleq	2c10 <_start-0x53f0>
    2bf0:	0000002c 	andeq	r0, r0, ip, lsr #32
    2bf4:	d01b0002 	andsle	r0, fp, r2
    2bf8:	07028006 	streq	r8, [r2, -r6]
    2bfc:	00000816 	andeq	r0, r0, r6, lsl r8
    2c00:	0004a618 	andeq	sl, r4, r8, lsl r6
    2c04:	02820600 	addeq	r0, r2, #0, 12
    2c08:	00002c18 	andeq	r2, r0, r8, lsl ip
    2c0c:	5c180000 	ldcpl	0, cr0, [r8], {-0}
    2c10:	06000004 	streq	r0, [r0], -r4
    2c14:	2f120283 	svccs	0x00120283
    2c18:	04000001 	streq	r0, [r0], #-1
    2c1c:	00025818 	andeq	r5, r2, r8, lsl r8
    2c20:	02840600 	addeq	r0, r4, #0, 12
    2c24:	00081610 	andeq	r1, r8, r0, lsl r6
    2c28:	06180800 	ldreq	r0, [r8], -r0, lsl #16
    2c2c:	06000005 	streq	r0, [r0], -r5
    2c30:	bd170285 	lfmlt	f0, 4, [r7, #-532]	; 0xfffffdec
    2c34:	24000001 	strcs	r0, [r0], #-1
    2c38:	0001c618 	andeq	ip, r1, r8, lsl r6
    2c3c:	02860600 	addeq	r0, r6, #0, 12
    2c40:	0000250f 	andeq	r2, r0, pc, lsl #10
    2c44:	ce184800 	cdpgt	8, 1, cr4, cr8, cr0, {0}
    2c48:	06000003 	streq	r0, [r0], -r3
    2c4c:	7c2c0287 	sfmvc	f0, 4, [ip], #-540	; 0xfffffde4
    2c50:	50000000 	andpl	r0, r0, r0
    2c54:	00051c18 	andeq	r1, r5, r8, lsl ip
    2c58:	02880600 	addeq	r0, r8, #0, 12
    2c5c:	0006b81a 	andeq	fp, r6, sl, lsl r8
    2c60:	d9185800 	ldmdble	r8, {fp, ip, lr}
    2c64:	06000003 	streq	r0, [r0], -r3
    2c68:	15160289 	ldrne	r0, [r6, #-649]	; 0xfffffd77
    2c6c:	68000001 	stmdavs	r0, {r0}
    2c70:	00052118 	andeq	r2, r5, r8, lsl r1
    2c74:	028a0600 	addeq	r0, sl, #0, 12
    2c78:	00011516 	andeq	r1, r1, r6, lsl r5
    2c7c:	e1187000 	tst	r8, r0
    2c80:	06000002 	streq	r0, [r0], -r2
    2c84:	1516028b 	ldrne	r0, [r6, #-651]	; 0xfffffd75
    2c88:	78000001 	stmdavc	r0, {r0}
    2c8c:	0004d118 	andeq	sp, r4, r8, lsl r1
    2c90:	028c0600 	addeq	r0, ip, #0, 12
    2c94:	00082610 	andeq	r2, r8, r0, lsl r6
    2c98:	4c188000 	ldcmi	0, cr8, [r8], {-0}
    2c9c:	06000002 	streq	r0, [r0], -r2
    2ca0:	3610028d 	ldrcc	r0, [r0], -sp, lsl #5
    2ca4:	88000008 	stmdahi	r0, {r3}
    2ca8:	00047f18 	andeq	r7, r4, r8, lsl pc
    2cac:	028e0600 	addeq	r0, lr, #0, 12
    2cb0:	0000250f 	andeq	r2, r0, pc, lsl #10
    2cb4:	8c18a000 	ldchi	0, cr10, [r8], {-0}
    2cb8:	06000001 	streq	r0, [r0], -r1
    2cbc:	1516028f 	ldrne	r0, [r6, #-655]	; 0xfffffd71
    2cc0:	a4000001 	strge	r0, [r0], #-1
    2cc4:	00009d18 	andeq	r9, r0, r8, lsl sp
    2cc8:	02900600 	addseq	r0, r0, #0, 12
    2ccc:	00011516 	andeq	r1, r1, r6, lsl r5
    2cd0:	7b18ac00 	blvc	62dcd8 <__bss_end__+0x623cd8>
    2cd4:	06000001 	streq	r0, [r0], -r1
    2cd8:	15160291 	ldrne	r0, [r6, #-657]	; 0xfffffd6f
    2cdc:	b4000001 	strlt	r0, [r0], #-1
    2ce0:	00004a18 	andeq	r4, r0, r8, lsl sl
    2ce4:	02920600 	addseq	r0, r2, #0, 12
    2ce8:	00011516 	andeq	r1, r1, r6, lsl r5
    2cec:	5918bc00 	ldmdbpl	r8, {sl, fp, ip, sp, pc}
    2cf0:	06000000 	streq	r0, [r0], -r0
    2cf4:	15160293 	ldrne	r0, [r6, #-659]	; 0xfffffd6d
    2cf8:	c4000001 	strgt	r0, [r0], #-1
    2cfc:	00038118 	andeq	r8, r3, r8, lsl r1
    2d00:	02940600 	addseq	r0, r4, #0, 12
    2d04:	00002508 	andeq	r2, r0, r8, lsl #10
    2d08:	0a00cc00 	beq	35d10 <__bss_end__+0x2bd10>
    2d0c:	00000135 	andeq	r0, r0, r5, lsr r1
    2d10:	00000826 	andeq	r0, r0, r6, lsr #16
    2d14:	00002c0b 	andeq	r2, r0, fp, lsl #24
    2d18:	0a001900 	beq	9120 <timer_get_usec_raw+0x8>
    2d1c:	00000135 	andeq	r0, r0, r5, lsr r1
    2d20:	00000836 	andeq	r0, r0, r6, lsr r8
    2d24:	00002c0b 	andeq	r2, r0, fp, lsl #24
    2d28:	0a000700 	beq	4930 <_start-0x36d0>
    2d2c:	00000135 	andeq	r0, r0, r5, lsr r1
    2d30:	00000846 	andeq	r0, r0, r6, asr #16
    2d34:	00002c0b 	andeq	r2, r0, fp, lsl #24
    2d38:	1b001700 	blne	8940 <ck_heap_errors+0x148>
    2d3c:	029906f0 	addseq	r0, r9, #240, 12	; 0xf000000
    2d40:	00086d07 	andeq	r6, r8, r7, lsl #26
    2d44:	02ad1800 	adceq	r1, sp, #0, 16
    2d48:	9c060000 	stcls	0, cr0, [r6], {-0}
    2d4c:	086d1b02 	stmdaeq	sp!, {r1, r8, r9, fp, ip}^
    2d50:	18000000 	stmdane	r0, {}	; <UNPREDICTABLE>
    2d54:	000004c8 	andeq	r0, r0, r8, asr #9
    2d58:	18029d06 	stmdane	r2, {r1, r2, r8, sl, fp, ip, pc}
    2d5c:	0000087d 	andeq	r0, r0, sp, ror r8
    2d60:	1d0a0078 	stcne	0, cr0, [sl, #-480]	; 0xfffffe20
    2d64:	7d000003 	stcvc	0, cr0, [r0, #-12]
    2d68:	0b000008 	bleq	2d90 <_start-0x5270>
    2d6c:	0000002c 	andeq	r0, r0, ip, lsr #32
    2d70:	2c0a001d 	stccs	0, cr0, [sl], {29}
    2d74:	8d000000 	stchi	0, cr0, [r0, #-0]
    2d78:	0b000008 	bleq	2da0 <_start-0x5260>
    2d7c:	0000002c 	andeq	r0, r0, ip, lsr #32
    2d80:	f01c001d 			; <UNDEFINED> instruction: 0xf01c001d
    2d84:	03027e06 	movweq	r7, #11782	; 0x2e06
    2d88:	000008b2 			; <UNDEFINED> instruction: 0x000008b2
    2d8c:	00041b1d 	andeq	r1, r4, sp, lsl fp
    2d90:	02950600 	addseq	r0, r5, #0, 12
    2d94:	0007010b 	andeq	r0, r7, fp, lsl #2
    2d98:	04f31d00 	ldrbteq	r1, [r3], #3328	; 0xd00
    2d9c:	9e060000 	cdpls	0, 0, cr0, cr6, cr0, {0}
    2da0:	08460b02 	stmdaeq	r6, {r1, r8, r9, fp}^
    2da4:	0a000000 	beq	2dac <_start-0x5254>
    2da8:	00000135 	andeq	r0, r0, r5, lsr r1
    2dac:	000008c2 	andeq	r0, r0, r2, asr #17
    2db0:	00002c0b 	andeq	r2, r0, fp, lsl #24
    2db4:	06001800 	streq	r1, [r0], -r0, lsl #16
    2db8:	00000092 	muleq	r0, r2, r0
    2dbc:	08c20405 	stmiaeq	r2, {r0, r2, sl}^
    2dc0:	d81e0000 	ldmdale	lr, {}	; <UNPREDICTABLE>
    2dc4:	16000008 	strne	r0, [r0], -r8
    2dc8:	00000484 	andeq	r0, r0, r4, lsl #9
    2dcc:	cd040500 	cfstr32gt	mvfx0, [r4, #-0]
    2dd0:	05000008 	streq	r0, [r0, #-8]
    2dd4:	0001a704 	andeq	sl, r1, r4, lsl #14
    2dd8:	08ef1e00 	stmiaeq	pc!, {r9, sl, fp, ip}^	; <UNPREDICTABLE>
    2ddc:	25160000 	ldrcs	r0, [r6, #-0]
    2de0:	00000000 	andeq	r0, r0, r0
    2de4:	08f50405 	ldmeq	r5!, {r0, r2, sl}^
    2de8:	04050000 	streq	r0, [r5], #-0
    2dec:	000008e4 	andeq	r0, r0, r4, ror #17
    2df0:	0006660a 	andeq	r6, r6, sl, lsl #12
    2df4:	00090b00 	andeq	r0, r9, r0, lsl #22
    2df8:	002c0b00 	eoreq	r0, ip, r0, lsl #22
    2dfc:	00020000 	andeq	r0, r2, r0
    2e00:	0004931f 	andeq	r9, r4, pc, lsl r3
    2e04:	032e0600 			; <UNDEFINED> instruction: 0x032e0600
    2e08:	00048417 	andeq	r8, r4, r7, lsl r4
    2e0c:	048c1f00 	streq	r1, [ip], #3840	; 0xf00
    2e10:	2f060000 	svccs	0x00060000
    2e14:	048a1d03 	streq	r1, [sl], #3331	; 0xd03
    2e18:	25150000 	ldrcs	r0, [r5, #-0]
    2e1c:	34000000 	strcc	r0, [r0], #-0
    2e20:	16000009 	strne	r0, [r0], -r9
    2e24:	00000025 	andeq	r0, r0, r5, lsr #32
    2e28:	01df2000 	bicseq	r2, pc, r0
    2e2c:	1d070000 	stcne	0, cr0, [r7, #-0]
    2e30:	0009400e 	andeq	r4, r9, lr
    2e34:	25040500 	strcs	r0, [r4, #-1280]	; 0xfffffb00
    2e38:	15000009 	strne	r0, [r0, #-9]
    2e3c:	00000025 	andeq	r0, r0, r5, lsr #32
    2e40:	00000955 	andeq	r0, r0, r5, asr r9
    2e44:	0005fc16 	andeq	pc, r5, r6, lsl ip	; <UNPREDICTABLE>
    2e48:	6d200000 	stcvs	0, cr0, [r0, #-0]
    2e4c:	07000007 	streq	r0, [r0, -r7]
    2e50:	09610e22 	stmdbeq	r1!, {r1, r5, r9, sl, fp}^
    2e54:	04050000 	streq	r0, [r5], #-0
    2e58:	00000946 	andeq	r0, r0, r6, asr #18
    2e5c:	00055221 	andeq	r5, r5, r1, lsr #4
    2e60:	0a0f0100 	beq	3c3268 <__bss_end__+0x3b9268>
    2e64:	00000069 	andeq	r0, r0, r9, rrx
    2e68:	00008948 	andeq	r8, r0, r8, asr #18
    2e6c:	000000ec 	andeq	r0, r0, ip, ror #1
    2e70:	09fa9c01 	ldmibeq	sl!, {r0, sl, fp, ip, pc}^
    2e74:	ca220000 	bgt	882e7c <__bss_end__+0x878e7c>
    2e78:	0100000a 	tsteq	r0, sl
    2e7c:	09fa210f 	ldmibeq	sl!, {r0, r1, r2, r3, r8, sp}^
    2e80:	08720000 	ldmdaeq	r2!, {}^	; <UNPREDICTABLE>
    2e84:	086a0000 	stmdaeq	sl!, {}^	; <UNPREDICTABLE>
    2e88:	6c230000 	stcvs	0, cr0, [r3], #-0
    2e8c:	01006e65 	tsteq	r0, r5, ror #28
    2e90:	00252c0f 	eoreq	r2, r5, pc, lsl #24
    2e94:	08b60000 	ldmeq	r6!, {}	; <UNPREDICTABLE>
    2e98:	08ac0000 	stmiaeq	ip!, {}	; <UNPREDICTABLE>
    2e9c:	cb240000 	blgt	902ea4 <__bss_end__+0x8f8ea4>
    2ea0:	0100000a 	tsteq	r0, sl
    2ea4:	05fc1210 	ldrbeq	r1, [ip, #528]!	; 0x210
    2ea8:	08fd0000 	ldmeq	sp!, {}^	; <UNPREDICTABLE>
    2eac:	08f50000 	ldmeq	r5!, {}^	; <UNPREDICTABLE>
    2eb0:	57240000 	strpl	r0, [r4, -r0]!
    2eb4:	01000005 	tsteq	r0, r5
    2eb8:	00690a11 	rsbeq	r0, r9, r1, lsl sl
    2ebc:	09420000 	stmdbeq	r2, {}^	; <UNPREDICTABLE>
    2ec0:	09340000 	ldmdbeq	r4!, {}	; <UNPREDICTABLE>
    2ec4:	74250000 	strtvc	r0, [r5], #-0
    2ec8:	0100706d 	tsteq	r0, sp, rrx
    2ecc:	00691611 	rsbeq	r1, r9, r1, lsl r6
    2ed0:	099d0000 	ldmibeq	sp, {}	; <UNPREDICTABLE>
    2ed4:	09970000 	ldmibeq	r7, {}	; <UNPREDICTABLE>
    2ed8:	72250000 	eorvc	r0, r5, #0
    2edc:	01006d65 	tsteq	r0, r5, ror #26
    2ee0:	00250512 	eoreq	r0, r5, r2, lsl r5
    2ee4:	09ea0000 	stmibeq	sl!, {}^	; <UNPREDICTABLE>
    2ee8:	09e80000 	stmibeq	r8!, {}^	; <UNPREDICTABLE>
    2eec:	05000000 	streq	r0, [r0, #-0]
    2ef0:	000a0004 	andeq	r0, sl, r4
    2ef4:	7c002600 	stcvc	6, cr2, [r0], {-0}
    2ef8:	04000009 	streq	r0, [r0], #-9
    2efc:	0007e800 	andeq	lr, r7, r0, lsl #16
    2f00:	02010400 	andeq	r0, r1, #0, 8
    2f04:	0c000003 	stceq	0, cr0, [r0], {3}
    2f08:	000006e9 	andeq	r0, r0, r9, ror #13
    2f0c:	000006c6 	andeq	r0, r0, r6, asr #13
    2f10:	00008a34 	andeq	r8, r0, r4, lsr sl
    2f14:	00000018 	andeq	r0, r0, r8, lsl r0
    2f18:	00000abe 			; <UNDEFINED> instruction: 0x00000abe
    2f1c:	69050402 	stmdbvs	r5, {r1, sl}
    2f20:	0300746e 	movweq	r7, #1134	; 0x46e
    2f24:	000006e2 	andeq	r0, r0, r2, ror #13
    2f28:	3817d102 	ldmdacc	r7, {r1, r8, ip, lr, pc}
    2f2c:	04000000 	streq	r0, [r0], #-0
    2f30:	00740704 	rsbseq	r0, r4, r4, lsl #14
    2f34:	01040000 	mrseq	r0, (UNDEF: 4)
    2f38:	0002f106 	andeq	pc, r2, r6, lsl #2
    2f3c:	08010400 	stmdaeq	r1, {sl}
    2f40:	000002ef 	andeq	r0, r0, pc, ror #5
    2f44:	8a050204 	bhi	14375c <__bss_end__+0x13975c>
    2f48:	04000003 	streq	r0, [r0], #-3
    2f4c:	02300702 	eorseq	r0, r0, #524288	; 0x80000
    2f50:	04040000 	streq	r0, [r4], #-0
    2f54:	0000ba05 	andeq	fp, r0, r5, lsl #20
    2f58:	07040400 	streq	r0, [r4, -r0, lsl #8]
    2f5c:	0000006f 	andeq	r0, r0, pc, rrx
    2f60:	b5050804 	strlt	r0, [r5, #-2052]	; 0xfffff7fc
    2f64:	04000000 	streq	r0, [r0], #-0
    2f68:	006a0708 	rsbeq	r0, sl, r8, lsl #14
    2f6c:	73030000 	movwvc	r0, #12288	; 0x3000
    2f70:	03000002 	movweq	r0, #2
    2f74:	00831922 	addeq	r1, r3, r2, lsr #18
    2f78:	04050000 	streq	r0, [r5], #-0
    2f7c:	00000089 	andeq	r0, r0, r9, lsl #1
    2f80:	00043006 	andeq	r3, r4, r6
    2f84:	02d00300 	sbcseq	r0, r0, #0, 6
    2f88:	2c040000 	stccs	0, cr0, [r4], {-0}
    2f8c:	00005b0e 	andeq	r5, r0, lr, lsl #22
    2f90:	04450300 	strbeq	r0, [r5], #-768	; 0xfffffd00
    2f94:	72040000 	andvc	r0, r4, #0
    2f98:	00005b0e 	andeq	r5, r0, lr, lsl #22
    2f9c:	027b0700 	rsbseq	r0, fp, #0, 14
    2fa0:	5e020000 	cdppl	0, 0, cr0, cr2, cr0, {0}
    2fa4:	00381701 	eorseq	r1, r8, r1, lsl #14
    2fa8:	04080000 	streq	r0, [r8], #-0
    2fac:	d503a604 	strle	sl, [r3, #-1540]	; 0xfffff9fc
    2fb0:	09000000 	stmdbeq	r0, {}	; <UNPREDICTABLE>
    2fb4:	0000026d 	andeq	r0, r0, sp, ror #4
    2fb8:	a60ca804 	strge	sl, [ip], -r4, lsl #16
    2fbc:	09000000 	stmdbeq	r0, {}	; <UNPREDICTABLE>
    2fc0:	000001f0 	strdeq	r0, [r0], -r0	; <UNPREDICTABLE>
    2fc4:	d513a904 	ldrle	sl, [r3, #-2308]	; 0xfffff6fc
    2fc8:	00000000 	andeq	r0, r0, r0
    2fcc:	0000460a 	andeq	r4, r0, sl, lsl #12
    2fd0:	0000e500 	andeq	lr, r0, r0, lsl #10
    2fd4:	00380b00 	eorseq	r0, r8, r0, lsl #22
    2fd8:	00030000 	andeq	r0, r3, r0
    2fdc:	a304080c 	movwge	r0, #18444	; 0x480c
    2fe0:	00010909 	andeq	r0, r1, r9, lsl #18
    2fe4:	04280d00 	strteq	r0, [r8], #-3328	; 0xfffff300
    2fe8:	a5040000 	strge	r0, [r4, #-0]
    2fec:	00002507 	andeq	r2, r0, r7, lsl #10
    2ff0:	370d0000 	strcc	r0, [sp, -r0]
    2ff4:	04000004 	streq	r0, [r0], #-4
    2ff8:	00b305aa 	adcseq	r0, r3, sl, lsr #11
    2ffc:	00040000 	andeq	r0, r4, r0
    3000:	0003b203 	andeq	fp, r3, r3, lsl #4
    3004:	03ab0400 			; <UNDEFINED> instruction: 0x03ab0400
    3008:	000000e5 	andeq	r0, r0, r5, ror #1
    300c:	0001ad03 	andeq	sl, r1, r3, lsl #26
    3010:	1baf0400 	blne	febc4018 <__bss_end__+0xfebba018>
    3014:	00000077 	andeq	r0, r0, r7, ror r0
    3018:	0405040e 	streq	r0, [r5], #-1038	; 0xfffffbf2
    301c:	00000129 	andeq	r0, r0, r9, lsr #2
    3020:	f8080104 			; <UNDEFINED> instruction: 0xf8080104
    3024:	0f000002 	svceq	0x00000002
    3028:	00000129 	andeq	r0, r0, r9, lsr #2
    302c:	00047703 	andeq	r7, r4, r3, lsl #14
    3030:	19160500 	ldmdbne	r6, {r8, sl}
    3034:	00000062 	andeq	r0, r0, r2, rrx
    3038:	0001be10 	andeq	fp, r1, r0, lsl lr
    303c:	2f051800 	svccs	0x00051800
    3040:	00019b08 	andeq	r9, r1, r8, lsl #22
    3044:	03d30d00 	bicseq	r0, r3, #0, 26
    3048:	31050000 	mrscc	r0, (UNDEF: 5)
    304c:	00019b13 	andeq	r9, r1, r3, lsl fp
    3050:	5f110000 	svcpl	0x00110000
    3054:	3205006b 	andcc	r0, r5, #107	; 0x6b
    3058:	00002507 	andeq	r2, r0, r7, lsl #10
    305c:	130d0400 	movwne	r0, #54272	; 0xd400
    3060:	05000004 	streq	r0, [r0, #-4]
    3064:	00250b32 	eoreq	r0, r5, r2, lsr fp
    3068:	0d080000 	stceq	0, cr0, [r8, #-0]
    306c:	000001a7 	andeq	r0, r0, r7, lsr #3
    3070:	25143205 	ldrcs	r3, [r4, #-517]	; 0xfffffdfb
    3074:	0c000000 	stceq	0, cr0, [r0], {-0}
    3078:	0004b30d 	andeq	fp, r4, sp, lsl #6
    307c:	1b320500 	blne	c84484 <__bss_end__+0xc7a484>
    3080:	00000025 	andeq	r0, r0, r5, lsr #32
    3084:	785f1110 	ldmdavc	pc, {r4, r8, ip}^	; <UNPREDICTABLE>
    3088:	0b330500 	bleq	cc4490 <__bss_end__+0xcba490>
    308c:	000001a1 	andeq	r0, r0, r1, lsr #3
    3090:	04050014 	streq	r0, [r5], #-20	; 0xffffffec
    3094:	00000141 	andeq	r0, r0, r1, asr #2
    3098:	0001350a 	andeq	r3, r1, sl, lsl #10
    309c:	0001b100 	andeq	fp, r1, r0, lsl #2
    30a0:	00380b00 	eorseq	r0, r8, r0, lsl #22
    30a4:	00000000 	andeq	r0, r0, r0
    30a8:	0001eb10 	andeq	lr, r1, r0, lsl fp
    30ac:	37052400 	strcc	r2, [r5, -r0, lsl #8]
    30b0:	00023408 	andeq	r3, r2, r8, lsl #8
    30b4:	00ac0d00 	adceq	r0, ip, r0, lsl #26
    30b8:	39050000 	stmdbcc	r5, {}	; <UNPREDICTABLE>
    30bc:	00002509 	andeq	r2, r0, r9, lsl #10
    30c0:	4d0d0000 	stcmi	0, cr0, [sp, #-0]
    30c4:	05000004 	streq	r0, [r0, #-4]
    30c8:	0025093a 	eoreq	r0, r5, sl, lsr r9
    30cc:	0d040000 	stceq	0, cr0, [r4, #-0]
    30d0:	000000cf 	andeq	r0, r0, pc, asr #1
    30d4:	25093b05 	strcs	r3, [r9, #-2821]	; 0xfffff4fb
    30d8:	08000000 	stmdaeq	r0, {}	; <UNPREDICTABLE>
    30dc:	0005340d 	andeq	r3, r5, sp, lsl #8
    30e0:	093c0500 	ldmdbeq	ip!, {r8, sl}
    30e4:	00000025 	andeq	r0, r0, r5, lsr #32
    30e8:	02b40d0c 	adcseq	r0, r4, #12, 26	; 0x300
    30ec:	3d050000 	stccc	0, cr0, [r5, #-0]
    30f0:	00002509 	andeq	r2, r0, r9, lsl #10
    30f4:	960d1000 	strls	r1, [sp], -r0
    30f8:	05000002 	streq	r0, [r0, #-2]
    30fc:	0025093e 	eoreq	r0, r5, lr, lsr r9
    3100:	0d140000 	ldceq	0, cr0, [r4, #-0]
    3104:	000004b8 			; <UNDEFINED> instruction: 0x000004b8
    3108:	25093f05 	strcs	r3, [r9, #-3845]	; 0xfffff0fb
    310c:	18000000 	stmdane	r0, {}	; <UNPREDICTABLE>
    3110:	0003940d 	andeq	r9, r3, sp, lsl #8
    3114:	09400500 	stmdbeq	r0, {r8, sl}^
    3118:	00000025 	andeq	r0, r0, r5, lsr #32
    311c:	04fb0d1c 	ldrbteq	r0, [fp], #3356	; 0xd1c
    3120:	41050000 	mrsmi	r0, (UNDEF: 5)
    3124:	00002509 	andeq	r2, r0, r9, lsl #10
    3128:	12002000 	andne	r2, r0, #0
    312c:	0000010f 	andeq	r0, r0, pc, lsl #2
    3130:	4a050108 	bmi	143558 <__bss_end__+0x139558>
    3134:	00027908 	andeq	r7, r2, r8, lsl #18
    3138:	019a0d00 	orrseq	r0, sl, r0, lsl #26
    313c:	4b050000 	blmi	143144 <__bss_end__+0x139144>
    3140:	0002790a 	andeq	r7, r2, sl, lsl #18
    3144:	000d0000 	andeq	r0, sp, r0
    3148:	05000000 	streq	r0, [r0, #-0]
    314c:	0279094c 	rsbseq	r0, r9, #76, 18	; 0x130000
    3150:	13800000 	orrne	r0, r0, #0
    3154:	00000469 	andeq	r0, r0, r9, ror #8
    3158:	350a4e05 	strcc	r4, [sl, #-3589]	; 0xfffff1fb
    315c:	00000001 	andeq	r0, r0, r1
    3160:	01341301 	teqeq	r4, r1, lsl #6
    3164:	51050000 	mrspl	r0, (UNDEF: 5)
    3168:	0001350a 	andeq	r3, r1, sl, lsl #10
    316c:	00010400 	andeq	r0, r1, r0, lsl #8
    3170:	0001210a 	andeq	r2, r1, sl, lsl #2
    3174:	00028900 	andeq	r8, r2, r0, lsl #18
    3178:	00380b00 	eorseq	r0, r8, r0, lsl #22
    317c:	001f0000 	andseq	r0, pc, r0
    3180:	0002bd12 	andeq	fp, r2, r2, lsl sp
    3184:	05019000 	streq	r9, [r1, #-0]
    3188:	02cc085d 	sbceq	r0, ip, #6094848	; 0x5d0000
    318c:	d30d0000 	movwle	r0, #53248	; 0xd000
    3190:	05000003 	streq	r0, [r0, #-3]
    3194:	02cc125e 	sbceq	r1, ip, #-536870907	; 0xe0000005
    3198:	0d000000 	stceq	0, cr0, [r0, #-0]
    319c:	000003eb 	andeq	r0, r0, fp, ror #7
    31a0:	25065f05 	strcs	r5, [r6, #-3845]	; 0xfffff0fb
    31a4:	04000000 	streq	r0, [r0], #-0
    31a8:	0001a20d 	andeq	sl, r1, sp, lsl #4
    31ac:	09610500 	stmdbeq	r1!, {r8, sl}^
    31b0:	000002d2 	ldrdeq	r0, [r0], -r2
    31b4:	010f0d08 	tsteq	pc, r8, lsl #26
    31b8:	62050000 	andvs	r0, r5, #0
    31bc:	0002341e 	andeq	r3, r2, lr, lsl r4
    31c0:	05008800 	streq	r8, [r0, #-2048]	; 0xfffff800
    31c4:	00028904 	andeq	r8, r2, r4, lsl #18
    31c8:	02e20a00 	rsceq	r0, r2, #0, 20
    31cc:	02e20000 	rsceq	r0, r2, #0
    31d0:	380b0000 	stmdacc	fp, {}	; <UNPREDICTABLE>
    31d4:	1f000000 	svcne	0x00000000
    31d8:	e8040500 	stmda	r4, {r8, sl}
    31dc:	14000002 	strne	r0, [r0], #-2
    31e0:	00039e10 	andeq	r9, r3, r0, lsl lr
    31e4:	75050800 	strvc	r0, [r5, #-2048]	; 0xfffff800
    31e8:	00031108 	andeq	r1, r3, r8, lsl #2
    31ec:	00c90d00 	sbceq	r0, r9, r0, lsl #26
    31f0:	76050000 	strvc	r0, [r5], -r0
    31f4:	00031111 	andeq	r1, r3, r1, lsl r1
    31f8:	1b0d0000 	blne	343200 <__bss_end__+0x339200>
    31fc:	05000000 	streq	r0, [r0, #-0]
    3200:	00250677 	eoreq	r0, r5, r7, ror r6
    3204:	00040000 	andeq	r0, r4, r0
    3208:	00460405 	subeq	r0, r6, r5, lsl #8
    320c:	bd100000 	ldclt	0, cr0, [r0, #-0]
    3210:	68000003 	stmdavs	r0, {r0, r1}
    3214:	5a08b505 	bpl	230630 <__bss_end__+0x226630>
    3218:	11000004 	tstne	r0, r4
    321c:	0500705f 	streq	r7, [r0, #-95]	; 0xffffffa1
    3220:	031112b6 	tsteq	r1, #1610612747	; 0x6000000b
    3224:	11000000 	mrsne	r0, (UNDEF: 0)
    3228:	0500725f 	streq	r7, [r0, #-607]	; 0xfffffda1
    322c:	002507b7 	strhteq	r0, [r5], -r7
    3230:	11040000 	mrsne	r0, (UNDEF: 4)
    3234:	0500775f 	streq	r7, [r0, #-1887]	; 0xfffff8a1
    3238:	002507b8 	strhteq	r0, [r5], -r8
    323c:	0d080000 	stceq	0, cr0, [r8, #-0]
    3240:	0000012d 	andeq	r0, r0, sp, lsr #2
    3244:	4d09b905 	vstrmi.16	s22, [r9, #-10]	; <UNPREDICTABLE>
    3248:	0c000000 	stceq	0, cr0, [r0], {-0}
    324c:	0002160d 	andeq	r1, r2, sp, lsl #12
    3250:	09ba0500 	ldmibeq	sl!, {r8, sl}
    3254:	0000004d 	andeq	r0, r0, sp, asr #32
    3258:	625f110e 	subsvs	r1, pc, #-2147483645	; 0x80000003
    325c:	bb050066 	bllt	1433fc <__bss_end__+0x1393fc>
    3260:	0002e911 	andeq	lr, r2, r1, lsl r9
    3264:	890d1000 	stmdbhi	sp, {ip}
    3268:	05000000 	streq	r0, [r0, #-0]
    326c:	002507bc 	strhteq	r0, [r5], -ip
    3270:	0d180000 	ldceq	0, cr0, [r8, #-0]
    3274:	0000011d 	andeq	r0, r0, sp, lsl r1
    3278:	210ac305 	tstcs	sl, r5, lsl #6
    327c:	1c000001 	stcne	0, cr0, [r0], {1}
    3280:	000b290d 	andeq	r2, fp, sp, lsl #18
    3284:	1dc50500 	cfstr64ne	mvdx0, [r5]
    3288:	000005cc 	andeq	r0, r0, ip, asr #11
    328c:	061e0d20 	ldreq	r0, [lr], -r0, lsr #26
    3290:	c7050000 	strgt	r0, [r5, -r0]
    3294:	0005f61d 	andeq	pc, r5, sp, lsl r6	; <UNPREDICTABLE>
    3298:	3f0d2400 	svccc	0x000d2400
    329c:	05000004 	streq	r0, [r0, #-4]
    32a0:	061a0dca 	ldreq	r0, [sl], -sl, asr #27
    32a4:	0d280000 	stceq	0, cr0, [r8, #-0]
    32a8:	00000515 	andeq	r0, r0, r5, lsl r5
    32ac:	3409cb05 	strcc	ip, [r9], #-2821	; 0xfffff4fb
    32b0:	2c000006 	stccs	0, cr0, [r0], {6}
    32b4:	62755f11 	rsbsvs	r5, r5, #17, 30	; 0x44
    32b8:	11ce0500 	bicne	r0, lr, r0, lsl #10
    32bc:	000002e9 	andeq	r0, r0, r9, ror #5
    32c0:	755f1130 	ldrbvc	r1, [pc, #-304]	; 3198 <_start-0x4e68>
    32c4:	cf050070 	svcgt	0x00050070
    32c8:	00031112 	andeq	r1, r3, r2, lsl r1
    32cc:	5f113800 	svcpl	0x00113800
    32d0:	05007275 	streq	r7, [r0, #-629]	; 0xfffffd8b
    32d4:	002507d0 	ldrdeq	r0, [r5], -r0	; <UNPREDICTABLE>
    32d8:	0d3c0000 	ldceq	0, cr0, [ip, #-0]
    32dc:	000000c3 	andeq	r0, r0, r3, asr #1
    32e0:	3a11d305 	bcc	477efc <__bss_end__+0x46defc>
    32e4:	40000006 	andmi	r0, r0, r6
    32e8:	0004ed0d 	andeq	lr, r4, sp, lsl #26
    32ec:	11d40500 	bicsne	r0, r4, r0, lsl #10
    32f0:	0000064a 	andeq	r0, r0, sl, asr #12
    32f4:	6c5f1143 	ldfvse	f1, [pc], {67}	; 0x43
    32f8:	d7050062 	strle	r0, [r5, -r2, rrx]
    32fc:	0002e911 	andeq	lr, r2, r1, lsl r9
    3300:	4b0d4400 	blmi	354308 <__bss_end__+0x34a308>
    3304:	05000001 	streq	r0, [r0, #-1]
    3308:	002507da 	ldrdeq	r0, [r5], -sl	; <UNPREDICTABLE>
    330c:	0d4c0000 	stcleq	0, cr0, [ip, #-0]
    3310:	0000015c 	andeq	r0, r0, ip, asr r1
    3314:	8e0adb05 	vmlahi.f64	d13, d10, d5
    3318:	50000000 	andpl	r0, r0, r0
    331c:	000aca0d 	andeq	ip, sl, sp, lsl #20
    3320:	12de0500 	sbcsne	r0, lr, #0, 10
    3324:	00000478 	andeq	r0, r0, r8, ror r4
    3328:	04310d54 	ldrteq	r0, [r1], #-3412	; 0xfffff2ac
    332c:	e2050000 	and	r0, r5, #0
    3330:	0001150c 	andeq	r1, r1, ip, lsl #10
    3334:	c50d5800 	strgt	r5, [sp, #-2048]	; 0xfffff800
    3338:	05000003 	streq	r0, [r0, #-3]
    333c:	01090ee4 	smlatteq	r9, r4, lr, r0
    3340:	0d5c0000 	ldcleq	0, cr0, [ip, #-0]
    3344:	0000028e 	andeq	r0, r0, lr, lsl #5
    3348:	2509e505 	strcs	lr, [r9, #-1285]	; 0xfffffafb
    334c:	64000000 	strvs	r0, [r0], #-0
    3350:	00251500 	eoreq	r1, r5, r0, lsl #10
    3354:	04780000 	ldrbteq	r0, [r8], #-0
    3358:	78160000 	ldmdavc	r6, {}	; <UNPREDICTABLE>
    335c:	16000004 	strne	r0, [r0], -r4
    3360:	00000121 	andeq	r0, r0, r1, lsr #2
    3364:	00012316 	andeq	r2, r1, r6, lsl r3
    3368:	00251600 	eoreq	r1, r5, r0, lsl #12
    336c:	05000000 	streq	r0, [r0, #-0]
    3370:	00048304 	andeq	r8, r4, r4, lsl #6
    3374:	04780f00 	ldrbteq	r0, [r8], #-3840	; 0xfffff100
    3378:	1b170000 	blne	5c3380 <__bss_end__+0x5b9380>
    337c:	28000004 	stmdacs	r0, {r2}
    3380:	02600504 	rsbeq	r0, r0, #4, 10	; 0x1000000
    3384:	0005cc08 	andeq	ip, r5, r8, lsl #24
    3388:	03831800 	orreq	r1, r3, #0, 16
    338c:	62050000 	andvs	r0, r5, #0
    3390:	00250702 	eoreq	r0, r5, r2, lsl #14
    3394:	18000000 	stmdane	r0, {}	; <UNPREDICTABLE>
    3398:	0000013c 	andeq	r0, r0, ip, lsr r1
    339c:	0b026705 	bleq	9cfb8 <__bss_end__+0x92fb8>
    33a0:	000006a6 	andeq	r0, r0, r6, lsr #13
    33a4:	02061804 	andeq	r1, r6, #4, 16	; 0x40000
    33a8:	67050000 	strvs	r0, [r5, -r0]
    33ac:	06a61402 	strteq	r1, [r6], r2, lsl #8
    33b0:	18080000 	stmdane	r8, {}	; <UNPREDICTABLE>
    33b4:	000001b6 			; <UNDEFINED> instruction: 0x000001b6
    33b8:	1e026705 	cdpne	7, 0, cr6, cr2, cr5, {0}
    33bc:	000006a6 	andeq	r0, r0, r6, lsr #13
    33c0:	03e6180c 	mvneq	r1, #12, 16	; 0xc0000
    33c4:	69050000 	stmdbvs	r5, {}	; <UNPREDICTABLE>
    33c8:	00250802 	eoreq	r0, r5, r2, lsl #16
    33cc:	18100000 	ldmdane	r0, {}	; <UNPREDICTABLE>
    33d0:	00000037 	andeq	r0, r0, r7, lsr r0
    33d4:	08026a05 	stmdaeq	r2, {r0, r2, r9, fp, sp, lr}
    33d8:	000008a6 	andeq	r0, r0, r6, lsr #17
    33dc:	03fa1814 	mvnseq	r1, #20, 16	; 0x140000
    33e0:	6d050000 	stcvs	0, cr0, [r5, #-0]
    33e4:	00250702 	eoreq	r0, r5, r2, lsl #14
    33e8:	18300000 	ldmdane	r0!, {}	; <UNPREDICTABLE>
    33ec:	00000a06 	andeq	r0, r0, r6, lsl #20
    33f0:	16026e05 	strne	r6, [r2], -r5, lsl #28
    33f4:	000008bb 			; <UNDEFINED> instruction: 0x000008bb
    33f8:	02c51834 	sbceq	r1, r5, #52, 16	; 0x340000
    33fc:	70050000 	andvc	r0, r5, r0
    3400:	00250702 	eoreq	r0, r5, r2, lsl #14
    3404:	18380000 	ldmdane	r8!, {}	; <UNPREDICTABLE>
    3408:	000003f0 	strdeq	r0, [r0], -r0	; <UNPREDICTABLE>
    340c:	0a027205 	beq	9fc28 <__bss_end__+0x95c28>
    3410:	000008cc 	andeq	r0, r0, ip, asr #17
    3414:	0265183c 	rsbeq	r1, r5, #60, 16	; 0x3c0000
    3418:	75050000 	strvc	r0, [r5, #-0]
    341c:	019b1302 	orrseq	r1, fp, r2, lsl #6
    3420:	18400000 	stmdane	r0, {}^	; <UNPREDICTABLE>
    3424:	000001d5 	ldrdeq	r0, [r0], -r5
    3428:	07027605 	streq	r7, [r2, -r5, lsl #12]
    342c:	00000025 	andeq	r0, r0, r5, lsr #32
    3430:	052f1844 	streq	r1, [pc, #-2116]!	; 2bf4 <_start-0x540c>
    3434:	77050000 	strvc	r0, [r5, -r0]
    3438:	019b1302 	orrseq	r1, fp, r2, lsl #6
    343c:	18480000 	stmdane	r8, {}^	; <UNPREDICTABLE>
    3440:	000002d7 	ldrdeq	r0, [r0], -r7
    3444:	14027805 	strne	r7, [r2], #-2053	; 0xfffff7fb
    3448:	000008d2 	ldrdeq	r0, [r0], -r2
    344c:	020e184c 	andeq	r1, lr, #76, 16	; 0x4c0000
    3450:	7b050000 	blvc	143458 <__bss_end__+0x139458>
    3454:	00250702 	eoreq	r0, r5, r2, lsl #14
    3458:	18500000 	ldmdane	r0, {}^	; <UNPREDICTABLE>
    345c:	00000154 	andeq	r0, r0, r4, asr r1
    3460:	09027c05 	stmdbeq	r2, {r0, r2, sl, fp, ip, sp, lr}
    3464:	00000123 	andeq	r0, r0, r3, lsr #2
    3468:	02fd1854 	rscseq	r1, sp, #84, 16	; 0x540000
    346c:	9f050000 	svcls	0x00050000
    3470:	08810702 	stmeq	r1, {r1, r8, r9, sl}
    3474:	19580000 	ldmdbne	r8, {}^	; <UNPREDICTABLE>
    3478:	000002bd 			; <UNDEFINED> instruction: 0x000002bd
    347c:	1302a305 	movwne	sl, #8965	; 0x2305
    3480:	000002cc 	andeq	r0, r0, ip, asr #5
    3484:	43190148 	tstmi	r9, #72, 2
    3488:	05000002 	streq	r0, [r0, #-2]
    348c:	891202a4 	ldmdbhi	r2, {r2, r5, r7, r9}
    3490:	4c000002 	stcmi	0, cr0, [r0], {2}
    3494:	04db1901 	ldrbeq	r1, [fp], #2305	; 0x901
    3498:	a8050000 	stmdage	r5, {}	; <UNPREDICTABLE>
    349c:	08e30c02 	stmiaeq	r3!, {r1, sl, fp}^
    34a0:	02dc0000 	sbcseq	r0, ip, #0
    34a4:	00012519 	andeq	r2, r1, r9, lsl r5
    34a8:	02ad0500 	adceq	r0, sp, #0, 10
    34ac:	00066710 	andeq	r6, r6, r0, lsl r7
    34b0:	1902e000 	stmdbne	r2, {sp, lr, pc}
    34b4:	0000010a 	andeq	r0, r0, sl, lsl #2
    34b8:	0a02af05 	beq	af0d4 <__bss_end__+0xa50d4>
    34bc:	000008ef 	andeq	r0, r0, pc, ror #17
    34c0:	050002ec 	streq	r0, [r0, #-748]	; 0xfffffd14
    34c4:	00045a04 	andeq	r5, r4, r4, lsl #20
    34c8:	00251500 	eoreq	r1, r5, r0, lsl #10
    34cc:	05f00000 	ldrbeq	r0, [r0, #0]!
    34d0:	78160000 	ldmdavc	r6, {}	; <UNPREDICTABLE>
    34d4:	16000004 	strne	r0, [r0], -r4
    34d8:	00000121 	andeq	r0, r0, r1, lsr #2
    34dc:	0005f016 	andeq	pc, r5, r6, lsl r0	; <UNPREDICTABLE>
    34e0:	00251600 	eoreq	r1, r5, r0, lsl #12
    34e4:	05000000 	streq	r0, [r0, #-0]
    34e8:	00013004 	andeq	r3, r1, r4
    34ec:	d2040500 	andle	r0, r4, #0, 10
    34f0:	15000005 	strne	r0, [r0, #-5]
    34f4:	0000009a 	muleq	r0, sl, r0
    34f8:	0000061a 	andeq	r0, r0, sl, lsl r6
    34fc:	00047816 	andeq	r7, r4, r6, lsl r8
    3500:	01211600 			; <UNDEFINED> instruction: 0x01211600
    3504:	9a160000 	bls	58350c <__bss_end__+0x57950c>
    3508:	16000000 	strne	r0, [r0], -r0
    350c:	00000025 	andeq	r0, r0, r5, lsr #32
    3510:	fc040500 	stc2	5, cr0, [r4], {-0}
    3514:	15000005 	strne	r0, [r0, #-5]
    3518:	00000025 	andeq	r0, r0, r5, lsr #32
    351c:	00000634 	andeq	r0, r0, r4, lsr r6
    3520:	00047816 	andeq	r7, r4, r6, lsl r8
    3524:	01211600 			; <UNDEFINED> instruction: 0x01211600
    3528:	05000000 	streq	r0, [r0, #-0]
    352c:	00062004 	andeq	r2, r6, r4
    3530:	00460a00 	subeq	r0, r6, r0, lsl #20
    3534:	064a0000 	strbeq	r0, [sl], -r0
    3538:	380b0000 	stmdacc	fp, {}	; <UNPREDICTABLE>
    353c:	02000000 	andeq	r0, r0, #0
    3540:	00460a00 	subeq	r0, r6, r0, lsl #20
    3544:	065a0000 	ldrbeq	r0, [sl], -r0
    3548:	380b0000 	stmdacc	fp, {}	; <UNPREDICTABLE>
    354c:	00000000 	andeq	r0, r0, r0
    3550:	03ab0700 			; <UNDEFINED> instruction: 0x03ab0700
    3554:	1f050000 	svcne	0x00050000
    3558:	03171a01 	tsteq	r7, #4096	; 0x1000
    355c:	c21a0000 	andsgt	r0, sl, #0
    3560:	0c000004 	stceq	0, cr0, [r0], {4}
    3564:	08012305 	stmdaeq	r1, {r0, r2, r8, r9, sp}
    3568:	000006a0 	andeq	r0, r0, r0, lsr #13
    356c:	0003d318 	andeq	sp, r3, r8, lsl r3
    3570:	01250500 			; <UNDEFINED> instruction: 0x01250500
    3574:	0006a011 	andeq	sl, r6, r1, lsl r0
    3578:	29180000 	ldmdbcs	r8, {}	; <UNPREDICTABLE>
    357c:	05000002 	streq	r0, [r0, #-2]
    3580:	25070126 	strcs	r0, [r7, #-294]	; 0xfffffeda
    3584:	04000000 	streq	r0, [r0], #-0
    3588:	0003a518 	andeq	sl, r3, r8, lsl r5
    358c:	01270500 			; <UNDEFINED> instruction: 0x01270500
    3590:	0006a60b 	andeq	sl, r6, fp, lsl #12
    3594:	05000800 	streq	r0, [r0, #-2048]	; 0xfffff800
    3598:	00066704 	andeq	r6, r6, r4, lsl #14
    359c:	5a040500 	bpl	1049a4 <__bss_end__+0xfa9a4>
    35a0:	1a000006 	bne	35c0 <_start-0x4a40>
    35a4:	0000002f 	andeq	r0, r0, pc, lsr #32
    35a8:	013f050e 	teqeq	pc, lr, lsl #10
    35ac:	0006e508 	andeq	lr, r6, r8, lsl #10
    35b0:	04221800 	strteq	r1, [r2], #-2048	; 0xfffff800
    35b4:	40050000 	andmi	r0, r5, r0
    35b8:	06e51201 	strbteq	r1, [r5], r1, lsl #4
    35bc:	18000000 	stmdane	r0, {}	; <UNPREDICTABLE>
    35c0:	00000456 	andeq	r0, r0, r6, asr r4
    35c4:	12014105 	andne	r4, r1, #1073741825	; 0x40000001
    35c8:	000006e5 	andeq	r0, r0, r5, ror #13
    35cc:	04721806 	ldrbteq	r1, [r2], #-2054	; 0xfffff7fa
    35d0:	42050000 	andmi	r0, r5, #0
    35d4:	00541201 	subseq	r1, r4, r1, lsl #4
    35d8:	000c0000 	andeq	r0, ip, r0
    35dc:	0000540a 	andeq	r5, r0, sl, lsl #8
    35e0:	0006f500 	andeq	pc, r6, r0, lsl #10
    35e4:	00380b00 	eorseq	r0, r8, r0, lsl #22
    35e8:	00020000 	andeq	r0, r2, r0
    35ec:	8005d01b 	andhi	sp, r5, fp, lsl r0
    35f0:	080a0702 	stmdaeq	sl, {r1, r8, r9, sl}
    35f4:	a6180000 	ldrge	r0, [r8], -r0
    35f8:	05000004 	streq	r0, [r0, #-4]
    35fc:	38180282 	ldmdacc	r8, {r1, r7, r9}
    3600:	00000000 	andeq	r0, r0, r0
    3604:	00045c18 	andeq	r5, r4, r8, lsl ip
    3608:	02830500 	addeq	r0, r3, #0, 10
    360c:	00012312 	andeq	r2, r1, r2, lsl r3
    3610:	58180400 	ldmdapl	r8, {sl}
    3614:	05000002 	streq	r0, [r0, #-2]
    3618:	0a100284 	beq	404030 <__bss_end__+0x3fa030>
    361c:	08000008 	stmdaeq	r0, {r3}
    3620:	00050618 	andeq	r0, r5, r8, lsl r6
    3624:	02850500 	addeq	r0, r5, #0, 10
    3628:	0001b117 	andeq	fp, r1, r7, lsl r1
    362c:	c6182400 	ldrgt	r2, [r8], -r0, lsl #8
    3630:	05000001 	streq	r0, [r0, #-1]
    3634:	250f0286 	strcs	r0, [pc, #-646]	; 33b6 <_start-0x4c4a>
    3638:	48000000 	stmdami	r0, {}	; <UNPREDICTABLE>
    363c:	0003ce18 	andeq	ip, r3, r8, lsl lr
    3640:	02870500 	addeq	r0, r7, #0, 10
    3644:	0000702c 	andeq	r7, r0, ip, lsr #32
    3648:	1c185000 	ldcne	0, cr5, [r8], {-0}
    364c:	05000005 	streq	r0, [r0, #-5]
    3650:	ac1a0288 	lfmge	f0, 4, [sl], {136}	; 0x88
    3654:	58000006 	stmdapl	r0, {r1, r2}
    3658:	0003d918 	andeq	sp, r3, r8, lsl r9
    365c:	02890500 	addeq	r0, r9, #0, 10
    3660:	00010916 	andeq	r0, r1, r6, lsl r9
    3664:	21186800 	tstcs	r8, r0, lsl #16
    3668:	05000005 	streq	r0, [r0, #-5]
    366c:	0916028a 	ldmdbeq	r6, {r1, r3, r7, r9}
    3670:	70000001 	andvc	r0, r0, r1
    3674:	0002e118 	andeq	lr, r2, r8, lsl r1
    3678:	028b0500 	addeq	r0, fp, #0, 10
    367c:	00010916 	andeq	r0, r1, r6, lsl r9
    3680:	d1187800 	tstle	r8, r0, lsl #16
    3684:	05000004 	streq	r0, [r0, #-4]
    3688:	1a10028c 	bne	4040c0 <__bss_end__+0x3fa0c0>
    368c:	80000008 	andhi	r0, r0, r8
    3690:	00024c18 	andeq	r4, r2, r8, lsl ip
    3694:	028d0500 	addeq	r0, sp, #0, 10
    3698:	00082a10 	andeq	r2, r8, r0, lsl sl
    369c:	7f188800 	svcvc	0x00188800
    36a0:	05000004 	streq	r0, [r0, #-4]
    36a4:	250f028e 	strcs	r0, [pc, #-654]	; 341e <_start-0x4be2>
    36a8:	a0000000 	andge	r0, r0, r0
    36ac:	00018c18 	andeq	r8, r1, r8, lsl ip
    36b0:	028f0500 	addeq	r0, pc, #0, 10
    36b4:	00010916 	andeq	r0, r1, r6, lsl r9
    36b8:	9d18a400 	cfldrsls	mvf10, [r8, #-0]
    36bc:	05000000 	streq	r0, [r0, #-0]
    36c0:	09160290 	ldmdbeq	r6, {r4, r7, r9}
    36c4:	ac000001 	stcge	0, cr0, [r0], {1}
    36c8:	00017b18 	andeq	r7, r1, r8, lsl fp
    36cc:	02910500 	addseq	r0, r1, #0, 10
    36d0:	00010916 	andeq	r0, r1, r6, lsl r9
    36d4:	4a18b400 	bmi	6306dc <__bss_end__+0x6266dc>
    36d8:	05000000 	streq	r0, [r0, #-0]
    36dc:	09160292 	ldmdbeq	r6, {r1, r4, r7, r9}
    36e0:	bc000001 	stclt	0, cr0, [r0], {1}
    36e4:	00005918 	andeq	r5, r0, r8, lsl r9
    36e8:	02930500 	addseq	r0, r3, #0, 10
    36ec:	00010916 	andeq	r0, r1, r6, lsl r9
    36f0:	8118c400 	tsthi	r8, r0, lsl #8
    36f4:	05000003 	streq	r0, [r0, #-3]
    36f8:	25080294 	strcs	r0, [r8, #-660]	; 0xfffffd6c
    36fc:	cc000000 	stcgt	0, cr0, [r0], {-0}
    3700:	01290a00 			; <UNDEFINED> instruction: 0x01290a00
    3704:	081a0000 	ldmdaeq	sl, {}	; <UNPREDICTABLE>
    3708:	380b0000 	stmdacc	fp, {}	; <UNPREDICTABLE>
    370c:	19000000 	stmdbne	r0, {}	; <UNPREDICTABLE>
    3710:	01290a00 			; <UNDEFINED> instruction: 0x01290a00
    3714:	082a0000 	stmdaeq	sl!, {}	; <UNPREDICTABLE>
    3718:	380b0000 	stmdacc	fp, {}	; <UNPREDICTABLE>
    371c:	07000000 	streq	r0, [r0, -r0]
    3720:	01290a00 			; <UNDEFINED> instruction: 0x01290a00
    3724:	083a0000 	ldmdaeq	sl!, {}	; <UNPREDICTABLE>
    3728:	380b0000 	stmdacc	fp, {}	; <UNPREDICTABLE>
    372c:	17000000 	strne	r0, [r0, -r0]
    3730:	05f01b00 	ldrbeq	r1, [r0, #2816]!	; 0xb00
    3734:	61070299 			; <UNDEFINED> instruction: 0x61070299
    3738:	18000008 	stmdane	r0, {r3}
    373c:	000002ad 	andeq	r0, r0, sp, lsr #5
    3740:	1b029c05 	blne	aa75c <__bss_end__+0xa075c>
    3744:	00000861 	andeq	r0, r0, r1, ror #16
    3748:	04c81800 	strbeq	r1, [r8], #2048	; 0x800
    374c:	9d050000 	stcls	0, cr0, [r5, #-0]
    3750:	08711802 	ldmdaeq	r1!, {r1, fp, ip}^
    3754:	00780000 	rsbseq	r0, r8, r0
    3758:	0003110a 	andeq	r1, r3, sl, lsl #2
    375c:	00087100 	andeq	r7, r8, r0, lsl #2
    3760:	00380b00 	eorseq	r0, r8, r0, lsl #22
    3764:	001d0000 	andseq	r0, sp, r0
    3768:	0000380a 	andeq	r3, r0, sl, lsl #16
    376c:	00088100 	andeq	r8, r8, r0, lsl #2
    3770:	00380b00 	eorseq	r0, r8, r0, lsl #22
    3774:	001d0000 	andseq	r0, sp, r0
    3778:	7e05f01c 	mcrvc	0, 0, pc, cr5, cr12, {0}	; <UNPREDICTABLE>
    377c:	08a60302 	stmiaeq	r6!, {r1, r8, r9}
    3780:	1b1d0000 	blne	743788 <__bss_end__+0x739788>
    3784:	05000004 	streq	r0, [r0, #-4]
    3788:	f50b0295 			; <UNDEFINED> instruction: 0xf50b0295
    378c:	1d000006 	stcne	0, cr0, [r0, #-24]	; 0xffffffe8
    3790:	000004f3 	strdeq	r0, [r0], -r3
    3794:	0b029e05 	bleq	aafb0 <__bss_end__+0xa0fb0>
    3798:	0000083a 	andeq	r0, r0, sl, lsr r8
    379c:	01290a00 			; <UNDEFINED> instruction: 0x01290a00
    37a0:	08b60000 	ldmeq	r6!, {}	; <UNPREDICTABLE>
    37a4:	380b0000 	stmdacc	fp, {}	; <UNPREDICTABLE>
    37a8:	18000000 	stmdane	r0, {}	; <UNPREDICTABLE>
    37ac:	00920600 	addseq	r0, r2, r0, lsl #12
    37b0:	04050000 	streq	r0, [r5], #-0
    37b4:	000008b6 			; <UNDEFINED> instruction: 0x000008b6
    37b8:	0008cc1e 	andeq	ip, r8, lr, lsl ip
    37bc:	04781600 	ldrbteq	r1, [r8], #-1536	; 0xfffffa00
    37c0:	05000000 	streq	r0, [r0, #-0]
    37c4:	0008c104 	andeq	ip, r8, r4, lsl #2
    37c8:	9b040500 	blls	104bd0 <__bss_end__+0xfabd0>
    37cc:	1e000001 	cdpne	0, 0, cr0, cr0, cr1, {0}
    37d0:	000008e3 	andeq	r0, r0, r3, ror #17
    37d4:	00002516 	andeq	r2, r0, r6, lsl r5
    37d8:	04050000 	streq	r0, [r5], #-0
    37dc:	000008e9 	andeq	r0, r0, r9, ror #17
    37e0:	08d80405 	ldmeq	r8, {r0, r2, sl}^
    37e4:	5a0a0000 	bpl	2837ec <__bss_end__+0x2797ec>
    37e8:	ff000006 			; <UNDEFINED> instruction: 0xff000006
    37ec:	0b000008 	bleq	3814 <_start-0x47ec>
    37f0:	00000038 	andeq	r0, r0, r8, lsr r0
    37f4:	931f0002 	tstls	pc, #2
    37f8:	05000004 	streq	r0, [r0, #-4]
    37fc:	7817032e 	ldmdavc	r7, {r1, r2, r3, r5, r8, r9}
    3800:	1f000004 	svcne	0x00000004
    3804:	0000048c 	andeq	r0, r0, ip, lsl #9
    3808:	1d032f05 	stcne	15, cr2, [r3, #-20]	; 0xffffffec
    380c:	0000047e 	andeq	r0, r0, lr, ror r4
    3810:	00049f20 	andeq	r9, r4, r0, lsr #30
    3814:	09210600 	stmdbeq	r1!, {r9, sl}
    3818:	00000121 	andeq	r0, r0, r1, lsr #2
    381c:	00008a34 	andeq	r8, r0, r4, lsr sl
    3820:	00000018 	andeq	r0, r0, r8, lsl r0
    3824:	5f219c01 	svcpl	0x00219c01
    3828:	03010070 	movweq	r0, #4208	; 0x1070
    382c:	00012114 	andeq	r2, r1, r4, lsl r1
    3830:	21500100 	cmpcs	r0, r0, lsl #2
    3834:	03010063 	movweq	r0, #4195	; 0x1063
    3838:	0000251c 	andeq	r2, r0, ip, lsl r5
    383c:	22510100 	subscs	r0, r1, #0, 2
    3840:	0301006e 	movweq	r0, #4206	; 0x106e
    3844:	00002c26 	andeq	r2, r0, r6, lsr #24
    3848:	000a0100 	andeq	r0, sl, r0, lsl #2
    384c:	0009fd00 	andeq	pc, r9, r0, lsl #26
    3850:	00702300 	rsbseq	r2, r0, r0, lsl #6
    3854:	230b0401 	movwcs	r0, #46081	; 0xb401
    3858:	2a000001 	bcs	3864 <_start-0x479c>
    385c:	2200000a 	andcs	r0, r0, #10
    3860:	2300000a 	movwcs	r0, #10
    3864:	04010065 	streq	r0, [r1], #-101	; 0xffffff9b
    3868:	00012314 	andeq	r2, r1, r4, lsl r3
    386c:	000a6200 	andeq	r6, sl, r0, lsl #4
    3870:	000a6000 	andeq	r6, sl, r0
    3874:	2b000000 	blcs	387c <_start-0x4784>
    3878:	0400000a 	streq	r0, [r0], #-10
    387c:	0009df00 	andeq	sp, r9, r0, lsl #30
    3880:	02010400 	andeq	r0, r1, #0, 8
    3884:	0c000003 	stceq	0, cr0, [r0], {3}
    3888:	0000071f 	andeq	r0, r0, pc, lsl r7
    388c:	000006c6 	andeq	r0, r0, r6, asr #13
    3890:	00008a4c 	andeq	r8, r0, ip, asr #20
    3894:	00000058 	andeq	r0, r0, r8, asr r0
    3898:	00000bb2 			; <UNDEFINED> instruction: 0x00000bb2
    389c:	00070b02 	andeq	r0, r7, r2, lsl #22
    38a0:	1b280200 	blne	a040a8 <__bss_end__+0x9fa0a8>
    38a4:	00000031 	andeq	r0, r0, r1, lsr r0
    38a8:	0006f703 	andeq	pc, r6, r3, lsl #14
    38ac:	00080400 	andeq	r0, r8, r0, lsl #8
    38b0:	00000048 	andeq	r0, r0, r8, asr #32
    38b4:	00071a04 	andeq	r1, r7, r4, lsl #20
    38b8:	00004800 	andeq	r4, r0, r0, lsl #16
    38bc:	05000000 	streq	r0, [r0, #-0]
    38c0:	06f90204 	ldrbteq	r0, [r9], r4, lsl #4
    38c4:	63020000 	movwvs	r0, #8192	; 0x2000
    38c8:	00002518 	andeq	r2, r0, r8, lsl r5
    38cc:	05040600 	streq	r0, [r4, #-1536]	; 0xfffffa00
    38d0:	00746e69 	rsbseq	r6, r4, r9, ror #28
    38d4:	74070407 	strvc	r0, [r7], #-1031	; 0xfffffbf9
    38d8:	07000000 	streq	r0, [r0, -r0]
    38dc:	02f10601 	rscseq	r0, r1, #1048576	; 0x100000
    38e0:	02070000 	andeq	r0, r7, #0
    38e4:	00038a05 	andeq	r8, r3, r5, lsl #20
    38e8:	05040700 	streq	r0, [r4, #-1792]	; 0xfffff900
    38ec:	000000ba 	strheq	r0, [r0], -sl
    38f0:	b5050807 	strlt	r0, [r5, #-2055]	; 0xfffff7f9
    38f4:	07000000 	streq	r0, [r0, -r0]
    38f8:	02ef0801 	rsceq	r0, pc, #65536	; 0x10000
    38fc:	02070000 	andeq	r0, r7, #0
    3900:	00023007 	andeq	r3, r2, r7
    3904:	07040700 	streq	r0, [r4, -r0, lsl #14]
    3908:	0000006f 	andeq	r0, r0, pc, rrx
    390c:	6a070807 	bvs	1c5930 <__bss_end__+0x1bb930>
    3910:	02000000 	andeq	r0, r0, #0
    3914:	00000273 	andeq	r0, r0, r3, ror r2
    3918:	a8192203 	ldmdage	r9, {r0, r1, r9, sp}
    391c:	08000000 	stmdaeq	r0, {}	; <UNPREDICTABLE>
    3920:	0000ae04 	andeq	sl, r0, r4, lsl #28
    3924:	04300900 	ldrteq	r0, [r0], #-2304	; 0xfffff700
    3928:	d0020000 	andle	r0, r2, r0
    392c:	04000002 	streq	r0, [r0], #-2
    3930:	00720e2c 	rsbseq	r0, r2, ip, lsr #28
    3934:	45020000 	strmi	r0, [r2, #-0]
    3938:	04000004 	streq	r0, [r0], #-4
    393c:	00720e72 	rsbseq	r0, r2, r2, ror lr
    3940:	7b0a0000 	blvc	283948 <__bss_end__+0x279948>
    3944:	05000002 	streq	r0, [r0, #-2]
    3948:	5d17015e 	ldfpls	f0, [r7, #-376]	; 0xfffffe88
    394c:	0b000000 	bleq	3954 <_start-0x46ac>
    3950:	03a60404 			; <UNDEFINED> instruction: 0x03a60404
    3954:	000000fa 	strdeq	r0, [r0], -sl
    3958:	00026d0c 	andeq	r6, r2, ip, lsl #26
    395c:	0ca80400 	cfstrseq	mvf0, [r8]
    3960:	000000cb 	andeq	r0, r0, fp, asr #1
    3964:	0001f00c 	andeq	pc, r1, ip
    3968:	13a90400 			; <UNDEFINED> instruction: 0x13a90400
    396c:	000000fa 	strdeq	r0, [r0], -sl
    3970:	00800d00 	addeq	r0, r0, r0, lsl #26
    3974:	010a0000 	mrseq	r0, (UNDEF: 10)
    3978:	5d0e0000 	stcpl	0, cr0, [lr, #-0]
    397c:	03000000 	movweq	r0, #0
    3980:	04080f00 	streq	r0, [r8], #-3840	; 0xfffff100
    3984:	012e09a3 	smulwbeq	lr, r3, r9
    3988:	28100000 	ldmdacs	r0, {}	; <UNPREDICTABLE>
    398c:	04000004 	streq	r0, [r0], #-4
    3990:	005607a5 	subseq	r0, r6, r5, lsr #15
    3994:	10000000 	andne	r0, r0, r0
    3998:	00000437 	andeq	r0, r0, r7, lsr r4
    399c:	d805aa04 	stmdale	r5, {r2, r9, fp, sp, pc}
    39a0:	04000000 	streq	r0, [r0], #-0
    39a4:	03b20200 			; <UNDEFINED> instruction: 0x03b20200
    39a8:	ab040000 	blge	1039b0 <__bss_end__+0xf99b0>
    39ac:	00010a03 	andeq	r0, r1, r3, lsl #20
    39b0:	01ad0200 			; <UNDEFINED> instruction: 0x01ad0200
    39b4:	af040000 	svcge	0x00040000
    39b8:	00009c1b 	andeq	r9, r0, fp, lsl ip
    39bc:	4c040800 	stcmi	8, cr0, [r4], {-0}
    39c0:	07000001 	streq	r0, [r0, -r1]
    39c4:	02f80801 	rscseq	r0, r8, #65536	; 0x10000
    39c8:	4c110000 	ldcmi	0, cr0, [r1], {-0}
    39cc:	02000001 	andeq	r0, r0, #1
    39d0:	00000477 	andeq	r0, r0, r7, ror r4
    39d4:	8e191606 	cfmsub32hi	mvax0, mvfx1, mvfx9, mvfx6
    39d8:	12000000 	andne	r0, r0, #0
    39dc:	000001be 			; <UNDEFINED> instruction: 0x000001be
    39e0:	082f0618 	stmdaeq	pc!, {r3, r4, r9, sl}	; <UNPREDICTABLE>
    39e4:	000001be 			; <UNDEFINED> instruction: 0x000001be
    39e8:	0003d310 	andeq	sp, r3, r0, lsl r3
    39ec:	13310600 	teqne	r1, #0, 12
    39f0:	000001be 			; <UNDEFINED> instruction: 0x000001be
    39f4:	6b5f1300 	blvs	17c85fc <__bss_end__+0x17be5fc>
    39f8:	07320600 	ldreq	r0, [r2, -r0, lsl #12]!
    39fc:	00000056 	andeq	r0, r0, r6, asr r0
    3a00:	04131004 	ldreq	r1, [r3], #-4
    3a04:	32060000 	andcc	r0, r6, #0
    3a08:	0000560b 	andeq	r5, r0, fp, lsl #12
    3a0c:	a7100800 	ldrge	r0, [r0, -r0, lsl #16]
    3a10:	06000001 	streq	r0, [r0], -r1
    3a14:	00561432 	subseq	r1, r6, r2, lsr r4
    3a18:	100c0000 	andne	r0, ip, r0
    3a1c:	000004b3 			; <UNDEFINED> instruction: 0x000004b3
    3a20:	561b3206 	ldrpl	r3, [fp], -r6, lsl #4
    3a24:	10000000 	andne	r0, r0, r0
    3a28:	00785f13 	rsbseq	r5, r8, r3, lsl pc
    3a2c:	c40b3306 	strgt	r3, [fp], #-774	; 0xfffffcfa
    3a30:	14000001 	strne	r0, [r0], #-1
    3a34:	64040800 	strvs	r0, [r4], #-2048	; 0xfffff800
    3a38:	0d000001 	stceq	0, cr0, [r0, #-4]
    3a3c:	00000158 	andeq	r0, r0, r8, asr r1
    3a40:	000001d4 	ldrdeq	r0, [r0], -r4
    3a44:	00005d0e 	andeq	r5, r0, lr, lsl #26
    3a48:	12000000 	andne	r0, r0, #0
    3a4c:	000001eb 	andeq	r0, r0, fp, ror #3
    3a50:	08370624 	ldmdaeq	r7!, {r2, r5, r9, sl}
    3a54:	00000257 	andeq	r0, r0, r7, asr r2
    3a58:	0000ac10 	andeq	sl, r0, r0, lsl ip
    3a5c:	09390600 	ldmdbeq	r9!, {r9, sl}
    3a60:	00000056 	andeq	r0, r0, r6, asr r0
    3a64:	044d1000 	strbeq	r1, [sp], #-0
    3a68:	3a060000 	bcc	183a70 <__bss_end__+0x179a70>
    3a6c:	00005609 	andeq	r5, r0, r9, lsl #12
    3a70:	cf100400 	svcgt	0x00100400
    3a74:	06000000 	streq	r0, [r0], -r0
    3a78:	0056093b 	subseq	r0, r6, fp, lsr r9
    3a7c:	10080000 	andne	r0, r8, r0
    3a80:	00000534 	andeq	r0, r0, r4, lsr r5
    3a84:	56093c06 	strpl	r3, [r9], -r6, lsl #24
    3a88:	0c000000 	stceq	0, cr0, [r0], {-0}
    3a8c:	0002b410 	andeq	fp, r2, r0, lsl r4
    3a90:	093d0600 	ldmdbeq	sp!, {r9, sl}
    3a94:	00000056 	andeq	r0, r0, r6, asr r0
    3a98:	02961010 	addseq	r1, r6, #16
    3a9c:	3e060000 	cdpcc	0, 0, cr0, cr6, cr0, {0}
    3aa0:	00005609 	andeq	r5, r0, r9, lsl #12
    3aa4:	b8101400 	ldmdalt	r0, {sl, ip}
    3aa8:	06000004 	streq	r0, [r0], -r4
    3aac:	0056093f 	subseq	r0, r6, pc, lsr r9
    3ab0:	10180000 	andsne	r0, r8, r0
    3ab4:	00000394 	muleq	r0, r4, r3
    3ab8:	56094006 	strpl	r4, [r9], -r6
    3abc:	1c000000 	stcne	0, cr0, [r0], {-0}
    3ac0:	0004fb10 	andeq	pc, r4, r0, lsl fp	; <UNPREDICTABLE>
    3ac4:	09410600 	stmdbeq	r1, {r9, sl}^
    3ac8:	00000056 	andeq	r0, r0, r6, asr r0
    3acc:	0f140020 	svceq	0x00140020
    3ad0:	08000001 	stmdaeq	r0, {r0}
    3ad4:	084a0601 	stmdaeq	sl, {r0, r9, sl}^
    3ad8:	0000029c 	muleq	r0, ip, r2
    3adc:	00019a10 	andeq	r9, r1, r0, lsl sl
    3ae0:	0a4b0600 	beq	12c52e8 <__bss_end__+0x12bb2e8>
    3ae4:	0000029c 	muleq	r0, ip, r2
    3ae8:	00001000 	andeq	r1, r0, r0
    3aec:	4c060000 	stcmi	0, cr0, [r6], {-0}
    3af0:	00029c09 	andeq	r9, r2, r9, lsl #24
    3af4:	69158000 	ldmdbvs	r5, {pc}
    3af8:	06000004 	streq	r0, [r0], -r4
    3afc:	01580a4e 	cmpeq	r8, lr, asr #20
    3b00:	01000000 	mrseq	r0, (UNDEF: 0)
    3b04:	00013415 	andeq	r3, r1, r5, lsl r4
    3b08:	0a510600 	beq	1445310 <__bss_end__+0x143b310>
    3b0c:	00000158 	andeq	r0, r0, r8, asr r1
    3b10:	0d000104 	stfeqs	f0, [r0, #-16]
    3b14:	00000048 	andeq	r0, r0, r8, asr #32
    3b18:	000002ac 	andeq	r0, r0, ip, lsr #5
    3b1c:	00005d0e 	andeq	r5, r0, lr, lsl #26
    3b20:	14001f00 	strne	r1, [r0], #-3840	; 0xfffff100
    3b24:	000002bd 			; <UNDEFINED> instruction: 0x000002bd
    3b28:	5d060190 	stfpls	f0, [r6, #-576]	; 0xfffffdc0
    3b2c:	0002ef08 	andeq	lr, r2, r8, lsl #30
    3b30:	03d31000 	bicseq	r1, r3, #0
    3b34:	5e060000 	cdppl	0, 0, cr0, cr6, cr0, {0}
    3b38:	0002ef12 	andeq	lr, r2, r2, lsl pc
    3b3c:	eb100000 	bl	403b44 <__bss_end__+0x3f9b44>
    3b40:	06000003 	streq	r0, [r0], -r3
    3b44:	0056065f 	subseq	r0, r6, pc, asr r6
    3b48:	10040000 	andne	r0, r4, r0
    3b4c:	000001a2 	andeq	r0, r0, r2, lsr #3
    3b50:	f5096106 			; <UNDEFINED> instruction: 0xf5096106
    3b54:	08000002 	stmdaeq	r0, {r1}
    3b58:	00010f10 	andeq	r0, r1, r0, lsl pc
    3b5c:	1e620600 	cdpne	6, 6, cr0, cr2, cr0, {0}
    3b60:	00000257 	andeq	r0, r0, r7, asr r2
    3b64:	04080088 	streq	r0, [r8], #-136	; 0xffffff78
    3b68:	000002ac 	andeq	r0, r0, ip, lsr #5
    3b6c:	0003050d 	andeq	r0, r3, sp, lsl #10
    3b70:	00030500 	andeq	r0, r3, r0, lsl #10
    3b74:	005d0e00 	subseq	r0, sp, r0, lsl #28
    3b78:	001f0000 	andseq	r0, pc, r0
    3b7c:	030b0408 	movweq	r0, #46088	; 0xb408
    3b80:	12160000 	andsne	r0, r6, #0
    3b84:	0000039e 	muleq	r0, lr, r3
    3b88:	08750608 	ldmdaeq	r5!, {r3, r9, sl}^
    3b8c:	00000334 	andeq	r0, r0, r4, lsr r3
    3b90:	0000c910 	andeq	ip, r0, r0, lsl r9
    3b94:	11760600 	cmnne	r6, r0, lsl #12
    3b98:	00000334 	andeq	r0, r0, r4, lsr r3
    3b9c:	001b1000 	andseq	r1, fp, r0
    3ba0:	77060000 	strvc	r0, [r6, -r0]
    3ba4:	00005606 	andeq	r5, r0, r6, lsl #12
    3ba8:	08000400 	stmdaeq	r0, {sl}
    3bac:	00008004 	andeq	r8, r0, r4
    3bb0:	03bd1200 			; <UNDEFINED> instruction: 0x03bd1200
    3bb4:	06680000 	strbteq	r0, [r8], -r0
    3bb8:	047d08b5 	ldrbteq	r0, [sp], #-2229	; 0xfffff74b
    3bbc:	5f130000 	svcpl	0x00130000
    3bc0:	b6060070 			; <UNDEFINED> instruction: 0xb6060070
    3bc4:	00033412 	andeq	r3, r3, r2, lsl r4
    3bc8:	5f130000 	svcpl	0x00130000
    3bcc:	b7060072 	smlsdxlt	r6, r2, r0, r0
    3bd0:	00005607 	andeq	r5, r0, r7, lsl #12
    3bd4:	5f130400 	svcpl	0x00130400
    3bd8:	b8060077 	stmdalt	r6, {r0, r1, r2, r4, r5, r6}
    3bdc:	00005607 	andeq	r5, r0, r7, lsl #12
    3be0:	2d100800 	ldccs	8, cr0, [r0, #-0]
    3be4:	06000001 	streq	r0, [r0], -r1
    3be8:	006b09b9 	strhteq	r0, [fp], #-153	; 0xffffff67
    3bec:	100c0000 	andne	r0, ip, r0
    3bf0:	00000216 	andeq	r0, r0, r6, lsl r2
    3bf4:	6b09ba06 	blvs	272414 <__bss_end__+0x268414>
    3bf8:	0e000000 	cdpeq	0, 0, cr0, cr0, cr0, {0}
    3bfc:	66625f13 	uqadd16vs	r5, r2, r3
    3c00:	11bb0600 			; <UNDEFINED> instruction: 0x11bb0600
    3c04:	0000030c 	andeq	r0, r0, ip, lsl #6
    3c08:	00891010 	addeq	r1, r9, r0, lsl r0
    3c0c:	bc060000 	stclt	0, cr0, [r6], {-0}
    3c10:	00005607 	andeq	r5, r0, r7, lsl #12
    3c14:	1d101800 	ldcne	8, cr1, [r0, #-0]
    3c18:	06000001 	streq	r0, [r0], -r1
    3c1c:	00480ac3 	subeq	r0, r8, r3, asr #21
    3c20:	101c0000 	andsne	r0, ip, r0
    3c24:	00000b29 	andeq	r0, r0, r9, lsr #22
    3c28:	ef1dc506 	svc	0x001dc506
    3c2c:	20000005 	andcs	r0, r0, r5
    3c30:	00061e10 	andeq	r1, r6, r0, lsl lr
    3c34:	1dc70600 	stclne	6, cr0, [r7]
    3c38:	00000619 	andeq	r0, r0, r9, lsl r6
    3c3c:	043f1024 	ldrteq	r1, [pc], #-36	; 3c44 <_start-0x43bc>
    3c40:	ca060000 	bgt	183c48 <__bss_end__+0x179c48>
    3c44:	00063d0d 	andeq	r3, r6, sp, lsl #26
    3c48:	15102800 	ldrne	r2, [r0, #-2048]	; 0xfffff800
    3c4c:	06000005 	streq	r0, [r0], -r5
    3c50:	065709cb 	ldrbeq	r0, [r7], -fp, asr #19
    3c54:	132c0000 			; <UNDEFINED> instruction: 0x132c0000
    3c58:	0062755f 	rsbeq	r7, r2, pc, asr r5
    3c5c:	0c11ce06 	ldceq	14, cr12, [r1], {6}
    3c60:	30000003 	andcc	r0, r0, r3
    3c64:	70755f13 	rsbsvc	r5, r5, r3, lsl pc
    3c68:	12cf0600 	sbcne	r0, pc, #0, 12
    3c6c:	00000334 	andeq	r0, r0, r4, lsr r3
    3c70:	755f1338 	ldrbvc	r1, [pc, #-824]	; 3940 <_start-0x46c0>
    3c74:	d0060072 	andle	r0, r6, r2, ror r0
    3c78:	00005607 	andeq	r5, r0, r7, lsl #12
    3c7c:	c3103c00 	tstgt	r0, #0, 24
    3c80:	06000000 	streq	r0, [r0], -r0
    3c84:	065d11d3 			; <UNDEFINED> instruction: 0x065d11d3
    3c88:	10400000 	subne	r0, r0, r0
    3c8c:	000004ed 	andeq	r0, r0, sp, ror #9
    3c90:	6d11d406 	cfldrsvs	mvf13, [r1, #-24]	; 0xffffffe8
    3c94:	43000006 	movwmi	r0, #6
    3c98:	626c5f13 	rsbvs	r5, ip, #19, 30	; 0x4c
    3c9c:	11d70600 	bicsne	r0, r7, r0, lsl #12
    3ca0:	0000030c 	andeq	r0, r0, ip, lsl #6
    3ca4:	014b1044 	cmpeq	fp, r4, asr #32
    3ca8:	da060000 	ble	183cb0 <__bss_end__+0x179cb0>
    3cac:	00005607 	andeq	r5, r0, r7, lsl #12
    3cb0:	5c104c00 	ldcpl	12, cr4, [r0], {-0}
    3cb4:	06000001 	streq	r0, [r0], -r1
    3cb8:	00b30adb 	ldrsbteq	r0, [r3], fp
    3cbc:	10500000 	subsne	r0, r0, r0
    3cc0:	00000aca 	andeq	r0, r0, sl, asr #21
    3cc4:	9b12de06 	blls	4bb4e4 <__bss_end__+0x4b14e4>
    3cc8:	54000004 	strpl	r0, [r0], #-4
    3ccc:	00043110 	andeq	r3, r4, r0, lsl r1
    3cd0:	0ce20600 	stcleq	6, cr0, [r2]
    3cd4:	0000013a 	andeq	r0, r0, sl, lsr r1
    3cd8:	03c51058 	biceq	r1, r5, #88	; 0x58
    3cdc:	e4060000 	str	r0, [r6], #-0
    3ce0:	00012e0e 	andeq	r2, r1, lr, lsl #28
    3ce4:	8e105c00 	cdphi	12, 1, cr5, cr0, cr0, {0}
    3ce8:	06000002 	streq	r0, [r0], -r2
    3cec:	005609e5 	subseq	r0, r6, r5, ror #19
    3cf0:	00640000 	rsbeq	r0, r4, r0
    3cf4:	00005617 	andeq	r5, r0, r7, lsl r6
    3cf8:	00049b00 	andeq	r9, r4, r0, lsl #22
    3cfc:	049b1800 	ldreq	r1, [fp], #2048	; 0x800
    3d00:	48180000 	ldmdami	r8, {}	; <UNPREDICTABLE>
    3d04:	18000000 	stmdane	r0, {}	; <UNPREDICTABLE>
    3d08:	00000146 	andeq	r0, r0, r6, asr #2
    3d0c:	00005618 	andeq	r5, r0, r8, lsl r6
    3d10:	04080000 	streq	r0, [r8], #-0
    3d14:	000004a6 	andeq	r0, r0, r6, lsr #9
    3d18:	00049b11 	andeq	r9, r4, r1, lsl fp
    3d1c:	041b1900 	ldreq	r1, [fp], #-2304	; 0xfffff700
    3d20:	04280000 	strteq	r0, [r8], #-0
    3d24:	08026006 	stmdaeq	r2, {r1, r2, sp, lr}
    3d28:	000005ef 	andeq	r0, r0, pc, ror #11
    3d2c:	0003831a 	andeq	r8, r3, sl, lsl r3
    3d30:	02620600 	rsbeq	r0, r2, #0, 12
    3d34:	00005607 	andeq	r5, r0, r7, lsl #12
    3d38:	3c1a0000 	ldccc	0, cr0, [sl], {-0}
    3d3c:	06000001 	streq	r0, [r0], -r1
    3d40:	c90b0267 	stmdbgt	fp, {r0, r1, r2, r5, r6, r9}
    3d44:	04000006 	streq	r0, [r0], #-6
    3d48:	0002061a 	andeq	r0, r2, sl, lsl r6
    3d4c:	02670600 	rsbeq	r0, r7, #0, 12
    3d50:	0006c914 	andeq	ip, r6, r4, lsl r9
    3d54:	b61a0800 	ldrlt	r0, [sl], -r0, lsl #16
    3d58:	06000001 	streq	r0, [r0], -r1
    3d5c:	c91e0267 	ldmdbgt	lr, {r0, r1, r2, r5, r6, r9}
    3d60:	0c000006 	stceq	0, cr0, [r0], {6}
    3d64:	0003e61a 	andeq	lr, r3, sl, lsl r6
    3d68:	02690600 	rsbeq	r0, r9, #0, 12
    3d6c:	00005608 	andeq	r5, r0, r8, lsl #12
    3d70:	371a1000 	ldrcc	r1, [sl, -r0]
    3d74:	06000000 	streq	r0, [r0], -r0
    3d78:	c908026a 	stmdbgt	r8, {r1, r3, r5, r6, r9}
    3d7c:	14000008 	strne	r0, [r0], #-8
    3d80:	0003fa1a 	andeq	pc, r3, sl, lsl sl	; <UNPREDICTABLE>
    3d84:	026d0600 	rsbeq	r0, sp, #0, 12
    3d88:	00005607 	andeq	r5, r0, r7, lsl #12
    3d8c:	061a3000 	ldreq	r3, [sl], -r0
    3d90:	0600000a 	streq	r0, [r0], -sl
    3d94:	de16026e 	cdple	2, 1, cr0, cr6, cr14, {3}
    3d98:	34000008 	strcc	r0, [r0], #-8
    3d9c:	0002c51a 	andeq	ip, r2, sl, lsl r5
    3da0:	02700600 	rsbseq	r0, r0, #0, 12
    3da4:	00005607 	andeq	r5, r0, r7, lsl #12
    3da8:	f01a3800 			; <UNDEFINED> instruction: 0xf01a3800
    3dac:	06000003 	streq	r0, [r0], -r3
    3db0:	ef0a0272 	svc	0x000a0272
    3db4:	3c000008 	stccc	0, cr0, [r0], {8}
    3db8:	0002651a 	andeq	r6, r2, sl, lsl r5
    3dbc:	02750600 	rsbseq	r0, r5, #0, 12
    3dc0:	0001be13 	andeq	fp, r1, r3, lsl lr
    3dc4:	d51a4000 	ldrle	r4, [sl, #-0]
    3dc8:	06000001 	streq	r0, [r0], -r1
    3dcc:	56070276 			; <UNDEFINED> instruction: 0x56070276
    3dd0:	44000000 	strmi	r0, [r0], #-0
    3dd4:	00052f1a 	andeq	r2, r5, sl, lsl pc
    3dd8:	02770600 	rsbseq	r0, r7, #0, 12
    3ddc:	0001be13 	andeq	fp, r1, r3, lsl lr
    3de0:	d71a4800 	ldrle	r4, [sl, -r0, lsl #16]
    3de4:	06000002 	streq	r0, [r0], -r2
    3de8:	f5140278 			; <UNDEFINED> instruction: 0xf5140278
    3dec:	4c000008 	stcmi	0, cr0, [r0], {8}
    3df0:	00020e1a 	andeq	r0, r2, sl, lsl lr
    3df4:	027b0600 	rsbseq	r0, fp, #0, 12
    3df8:	00005607 	andeq	r5, r0, r7, lsl #12
    3dfc:	541a5000 	ldrpl	r5, [sl], #-0
    3e00:	06000001 	streq	r0, [r0], -r1
    3e04:	4609027c 			; <UNDEFINED> instruction: 0x4609027c
    3e08:	54000001 	strpl	r0, [r0], #-1
    3e0c:	0002fd1a 	andeq	pc, r2, sl, lsl sp	; <UNPREDICTABLE>
    3e10:	029f0600 	addseq	r0, pc, #0, 12
    3e14:	0008a407 	andeq	sl, r8, r7, lsl #8
    3e18:	bd1b5800 	ldclt	8, cr5, [fp, #-0]
    3e1c:	06000002 	streq	r0, [r0], -r2
    3e20:	ef1302a3 	svc	0x001302a3
    3e24:	48000002 	stmdami	r0, {r1}
    3e28:	02431b01 	subeq	r1, r3, #1024	; 0x400
    3e2c:	a4060000 	strge	r0, [r6], #-0
    3e30:	02ac1202 	adceq	r1, ip, #536870912	; 0x20000000
    3e34:	014c0000 	mrseq	r0, (UNDEF: 76)
    3e38:	0004db1b 	andeq	sp, r4, fp, lsl fp
    3e3c:	02a80600 	adceq	r0, r8, #0, 12
    3e40:	0009060c 	andeq	r0, r9, ip, lsl #12
    3e44:	1b02dc00 	blne	bae4c <__bss_end__+0xb0e4c>
    3e48:	00000125 	andeq	r0, r0, r5, lsr #2
    3e4c:	1002ad06 	andne	sl, r2, r6, lsl #26
    3e50:	0000068a 	andeq	r0, r0, sl, lsl #13
    3e54:	0a1b02e0 	beq	6c49dc <__bss_end__+0x6ba9dc>
    3e58:	06000001 	streq	r0, [r0], -r1
    3e5c:	120a02af 	andne	r0, sl, #-268435446	; 0xf000000a
    3e60:	ec000009 	stc	0, cr0, [r0], {9}
    3e64:	04080002 	streq	r0, [r8], #-2
    3e68:	0000047d 	andeq	r0, r0, sp, ror r4
    3e6c:	00005617 	andeq	r5, r0, r7, lsl r6
    3e70:	00061300 	andeq	r1, r6, r0, lsl #6
    3e74:	049b1800 	ldreq	r1, [fp], #2048	; 0x800
    3e78:	48180000 	ldmdami	r8, {}	; <UNPREDICTABLE>
    3e7c:	18000000 	stmdane	r0, {}	; <UNPREDICTABLE>
    3e80:	00000613 	andeq	r0, r0, r3, lsl r6
    3e84:	00005618 	andeq	r5, r0, r8, lsl r6
    3e88:	04080000 	streq	r0, [r8], #-0
    3e8c:	00000153 	andeq	r0, r0, r3, asr r1
    3e90:	05f50408 	ldrbeq	r0, [r5, #1032]!	; 0x408
    3e94:	bf170000 	svclt	0x00170000
    3e98:	3d000000 	stccc	0, cr0, [r0, #-0]
    3e9c:	18000006 	stmdane	r0, {r1, r2}
    3ea0:	0000049b 	muleq	r0, fp, r4
    3ea4:	00004818 	andeq	r4, r0, r8, lsl r8
    3ea8:	00bf1800 	adcseq	r1, pc, r0, lsl #16
    3eac:	56180000 	ldrpl	r0, [r8], -r0
    3eb0:	00000000 	andeq	r0, r0, r0
    3eb4:	061f0408 	ldreq	r0, [pc], -r8, lsl #8
    3eb8:	56170000 	ldrpl	r0, [r7], -r0
    3ebc:	57000000 	strpl	r0, [r0, -r0]
    3ec0:	18000006 	stmdane	r0, {r1, r2}
    3ec4:	0000049b 	muleq	r0, fp, r4
    3ec8:	00004818 	andeq	r4, r0, r8, lsl r8
    3ecc:	04080000 	streq	r0, [r8], #-0
    3ed0:	00000643 	andeq	r0, r0, r3, asr #12
    3ed4:	0000800d 	andeq	r8, r0, sp
    3ed8:	00066d00 	andeq	r6, r6, r0, lsl #26
    3edc:	005d0e00 	subseq	r0, sp, r0, lsl #28
    3ee0:	00020000 	andeq	r0, r2, r0
    3ee4:	0000800d 	andeq	r8, r0, sp
    3ee8:	00067d00 	andeq	r7, r6, r0, lsl #26
    3eec:	005d0e00 	subseq	r0, sp, r0, lsl #28
    3ef0:	00000000 	andeq	r0, r0, r0
    3ef4:	0003ab0a 	andeq	sl, r3, sl, lsl #22
    3ef8:	011f0600 	tsteq	pc, r0, lsl #12
    3efc:	00033a1a 	andeq	r3, r3, sl, lsl sl
    3f00:	04c21c00 	strbeq	r1, [r2], #3072	; 0xc00
    3f04:	060c0000 	streq	r0, [ip], -r0
    3f08:	c3080123 	movwgt	r0, #33059	; 0x8123
    3f0c:	1a000006 	bne	3f2c <_start-0x40d4>
    3f10:	000003d3 	ldrdeq	r0, [r0], -r3
    3f14:	11012506 	tstne	r1, r6, lsl #10
    3f18:	000006c3 	andeq	r0, r0, r3, asr #13
    3f1c:	02291a00 	eoreq	r1, r9, #0, 20
    3f20:	26060000 	strcs	r0, [r6], -r0
    3f24:	00560701 	subseq	r0, r6, r1, lsl #14
    3f28:	1a040000 	bne	103f30 <__bss_end__+0xf9f30>
    3f2c:	000003a5 	andeq	r0, r0, r5, lsr #7
    3f30:	0b012706 	bleq	4db50 <__bss_end__+0x43b50>
    3f34:	000006c9 	andeq	r0, r0, r9, asr #13
    3f38:	04080008 	streq	r0, [r8], #-8
    3f3c:	0000068a 	andeq	r0, r0, sl, lsl #13
    3f40:	067d0408 	ldrbteq	r0, [sp], -r8, lsl #8
    3f44:	2f1c0000 	svccs	0x001c0000
    3f48:	0e000000 	cdpeq	0, 0, cr0, cr0, cr0, {0}
    3f4c:	08013f06 	stmdaeq	r1, {r1, r2, r8, r9, sl, fp, ip, sp}
    3f50:	00000708 	andeq	r0, r0, r8, lsl #14
    3f54:	0004221a 	andeq	r2, r4, sl, lsl r2
    3f58:	01400600 	cmpeq	r0, r0, lsl #12
    3f5c:	00070812 	andeq	r0, r7, r2, lsl r8
    3f60:	561a0000 	ldrpl	r0, [sl], -r0
    3f64:	06000004 	streq	r0, [r0], -r4
    3f68:	08120141 	ldmdaeq	r2, {r0, r6, r8}
    3f6c:	06000007 	streq	r0, [r0], -r7
    3f70:	0004721a 	andeq	r7, r4, sl, lsl r2
    3f74:	01420600 	cmpeq	r2, r0, lsl #12
    3f78:	00008712 	andeq	r8, r0, r2, lsl r7
    3f7c:	0d000c00 	stceq	12, cr0, [r0, #-0]
    3f80:	00000087 	andeq	r0, r0, r7, lsl #1
    3f84:	00000718 	andeq	r0, r0, r8, lsl r7
    3f88:	00005d0e 	andeq	r5, r0, lr, lsl #26
    3f8c:	1d000200 	sfmne	f0, 4, [r0, #-0]
    3f90:	028006d0 	addeq	r0, r0, #208, 12	; 0xd000000
    3f94:	00082d07 	andeq	r2, r8, r7, lsl #26
    3f98:	04a61a00 	strteq	r1, [r6], #2560	; 0xa00
    3f9c:	82060000 	andhi	r0, r6, #0
    3fa0:	005d1802 	subseq	r1, sp, r2, lsl #16
    3fa4:	1a000000 	bne	3fac <_start-0x4054>
    3fa8:	0000045c 	andeq	r0, r0, ip, asr r4
    3fac:	12028306 	andne	r8, r2, #402653184	; 0x18000000
    3fb0:	00000146 	andeq	r0, r0, r6, asr #2
    3fb4:	02581a04 	subseq	r1, r8, #4, 20	; 0x4000
    3fb8:	84060000 	strhi	r0, [r6], #-0
    3fbc:	082d1002 	stmdaeq	sp!, {r1, ip}
    3fc0:	1a080000 	bne	203fc8 <__bss_end__+0x1f9fc8>
    3fc4:	00000506 	andeq	r0, r0, r6, lsl #10
    3fc8:	17028506 	strne	r8, [r2, -r6, lsl #10]
    3fcc:	000001d4 	ldrdeq	r0, [r0], -r4
    3fd0:	01c61a24 	biceq	r1, r6, r4, lsr #20
    3fd4:	86060000 	strhi	r0, [r6], -r0
    3fd8:	00560f02 	subseq	r0, r6, r2, lsl #30
    3fdc:	1a480000 	bne	1203fe4 <__bss_end__+0x11f9fe4>
    3fe0:	000003ce 	andeq	r0, r0, lr, asr #7
    3fe4:	2c028706 	stccs	7, cr8, [r2], {6}
    3fe8:	00000095 	muleq	r0, r5, r0
    3fec:	051c1a50 	ldreq	r1, [ip, #-2640]	; 0xfffff5b0
    3ff0:	88060000 	stmdahi	r6, {}	; <UNPREDICTABLE>
    3ff4:	06cf1a02 	strbeq	r1, [pc], r2, lsl #20
    3ff8:	1a580000 	bne	1604000 <__bss_end__+0x15fa000>
    3ffc:	000003d9 	ldrdeq	r0, [r0], -r9
    4000:	16028906 	strne	r8, [r2], -r6, lsl #18
    4004:	0000012e 	andeq	r0, r0, lr, lsr #2
    4008:	05211a68 	streq	r1, [r1, #-2664]!	; 0xfffff598
    400c:	8a060000 	bhi	184014 <__bss_end__+0x17a014>
    4010:	012e1602 			; <UNDEFINED> instruction: 0x012e1602
    4014:	1a700000 	bne	1c0401c <__bss_end__+0x1bfa01c>
    4018:	000002e1 	andeq	r0, r0, r1, ror #5
    401c:	16028b06 	strne	r8, [r2], -r6, lsl #22
    4020:	0000012e 	andeq	r0, r0, lr, lsr #2
    4024:	04d11a78 	ldrbeq	r1, [r1], #2680	; 0xa78
    4028:	8c060000 	stchi	0, cr0, [r6], {-0}
    402c:	083d1002 	ldmdaeq	sp!, {r1, ip}
    4030:	1a800000 	bne	fe004038 <__bss_end__+0xfdffa038>
    4034:	0000024c 	andeq	r0, r0, ip, asr #4
    4038:	10028d06 	andne	r8, r2, r6, lsl #26
    403c:	0000084d 	andeq	r0, r0, sp, asr #16
    4040:	047f1a88 	ldrbteq	r1, [pc], #-2696	; 4048 <_start-0x3fb8>
    4044:	8e060000 	cdphi	0, 0, cr0, cr6, cr0, {0}
    4048:	00560f02 	subseq	r0, r6, r2, lsl #30
    404c:	1aa00000 	bne	fe804054 <__bss_end__+0xfe7fa054>
    4050:	0000018c 	andeq	r0, r0, ip, lsl #3
    4054:	16028f06 	strne	r8, [r2], -r6, lsl #30
    4058:	0000012e 	andeq	r0, r0, lr, lsr #2
    405c:	009d1aa4 	addseq	r1, sp, r4, lsr #21
    4060:	90060000 	andls	r0, r6, r0
    4064:	012e1602 			; <UNDEFINED> instruction: 0x012e1602
    4068:	1aac0000 	bne	feb04070 <__bss_end__+0xfeafa070>
    406c:	0000017b 	andeq	r0, r0, fp, ror r1
    4070:	16029106 	strne	r9, [r2], -r6, lsl #2
    4074:	0000012e 	andeq	r0, r0, lr, lsr #2
    4078:	004a1ab4 	strheq	r1, [sl], #-164	; 0xffffff5c
    407c:	92060000 	andls	r0, r6, #0
    4080:	012e1602 			; <UNDEFINED> instruction: 0x012e1602
    4084:	1abc0000 	bne	fef0408c <__bss_end__+0xfeefa08c>
    4088:	00000059 	andeq	r0, r0, r9, asr r0
    408c:	16029306 	strne	r9, [r2], -r6, lsl #6
    4090:	0000012e 	andeq	r0, r0, lr, lsr #2
    4094:	03811ac4 	orreq	r1, r1, #196, 20	; 0xc4000
    4098:	94060000 	strls	r0, [r6], #-0
    409c:	00560802 	subseq	r0, r6, r2, lsl #16
    40a0:	00cc0000 	sbceq	r0, ip, r0
    40a4:	00014c0d 	andeq	r4, r1, sp, lsl #24
    40a8:	00083d00 	andeq	r3, r8, r0, lsl #26
    40ac:	005d0e00 	subseq	r0, sp, r0, lsl #28
    40b0:	00190000 	andseq	r0, r9, r0
    40b4:	00014c0d 	andeq	r4, r1, sp, lsl #24
    40b8:	00084d00 	andeq	r4, r8, r0, lsl #26
    40bc:	005d0e00 	subseq	r0, sp, r0, lsl #28
    40c0:	00070000 	andeq	r0, r7, r0
    40c4:	00014c0d 	andeq	r4, r1, sp, lsl #24
    40c8:	00085d00 	andeq	r5, r8, r0, lsl #26
    40cc:	005d0e00 	subseq	r0, sp, r0, lsl #28
    40d0:	00170000 	andseq	r0, r7, r0
    40d4:	9906f01d 	stmdbls	r6, {r0, r2, r3, r4, ip, sp, lr, pc}
    40d8:	08840702 	stmeq	r4, {r1, r8, r9, sl}
    40dc:	ad1a0000 	ldcge	0, cr0, [sl, #-0]
    40e0:	06000002 	streq	r0, [r0], -r2
    40e4:	841b029c 	ldrhi	r0, [fp], #-668	; 0xfffffd64
    40e8:	00000008 	andeq	r0, r0, r8
    40ec:	0004c81a 	andeq	ip, r4, sl, lsl r8
    40f0:	029d0600 	addseq	r0, sp, #0, 12
    40f4:	00089418 	andeq	r9, r8, r8, lsl r4
    40f8:	0d007800 	stceq	8, cr7, [r0, #-0]
    40fc:	00000334 	andeq	r0, r0, r4, lsr r3
    4100:	00000894 	muleq	r0, r4, r8
    4104:	00005d0e 	andeq	r5, r0, lr, lsl #26
    4108:	0d001d00 	stceq	13, cr1, [r0, #-0]
    410c:	0000005d 	andeq	r0, r0, sp, asr r0
    4110:	000008a4 	andeq	r0, r0, r4, lsr #17
    4114:	00005d0e 	andeq	r5, r0, lr, lsl #26
    4118:	1e001d00 	cdpne	13, 0, cr1, cr0, cr0, {0}
    411c:	027e06f0 	rsbseq	r0, lr, #240, 12	; 0xf000000
    4120:	0008c903 	andeq	ip, r8, r3, lsl #18
    4124:	041b1f00 	ldreq	r1, [fp], #-3840	; 0xfffff100
    4128:	95060000 	strls	r0, [r6, #-0]
    412c:	07180b02 	ldreq	r0, [r8, -r2, lsl #22]
    4130:	f31f0000 	vhadd.u16	d0, d15, d0
    4134:	06000004 	streq	r0, [r0], -r4
    4138:	5d0b029e 	sfmpl	f0, 4, [fp, #-632]	; 0xfffffd88
    413c:	00000008 	andeq	r0, r0, r8
    4140:	00014c0d 	andeq	r4, r1, sp, lsl #24
    4144:	0008d900 	andeq	sp, r8, r0, lsl #18
    4148:	005d0e00 	subseq	r0, sp, r0, lsl #28
    414c:	00180000 	andseq	r0, r8, r0
    4150:	00009209 	andeq	r9, r0, r9, lsl #4
    4154:	d9040800 	stmdble	r4, {fp}
    4158:	20000008 	andcs	r0, r0, r8
    415c:	000008ef 	andeq	r0, r0, pc, ror #17
    4160:	00049b18 	andeq	r9, r4, r8, lsl fp
    4164:	04080000 	streq	r0, [r8], #-0
    4168:	000008e4 	andeq	r0, r0, r4, ror #17
    416c:	01be0408 			; <UNDEFINED> instruction: 0x01be0408
    4170:	06200000 	strteq	r0, [r0], -r0
    4174:	18000009 	stmdane	r0, {r0, r3}
    4178:	00000056 	andeq	r0, r0, r6, asr r0
    417c:	0c040800 	stceq	8, cr0, [r4], {-0}
    4180:	08000009 	stmdaeq	r0, {r0, r3}
    4184:	0008fb04 	andeq	pc, r8, r4, lsl #22
    4188:	067d0d00 	ldrbteq	r0, [sp], -r0, lsl #26
    418c:	09220000 	stmdbeq	r2!, {}	; <UNPREDICTABLE>
    4190:	5d0e0000 	stcpl	0, cr0, [lr, #-0]
    4194:	02000000 	andeq	r0, r0, #0
    4198:	04932100 	ldreq	r2, [r3], #256	; 0x100
    419c:	2e060000 	cdpcs	0, 0, cr0, cr6, cr0, {0}
    41a0:	049b1703 	ldreq	r1, [fp], #1795	; 0x703
    41a4:	8c210000 	stchi	0, cr0, [r1], #-0
    41a8:	06000004 	streq	r0, [r0], -r4
    41ac:	a11d032f 	tstge	sp, pc, lsr #6
    41b0:	17000004 	strne	r0, [r0, -r4]
    41b4:	00000056 	andeq	r0, r0, r6, asr r0
    41b8:	0000094b 	andeq	r0, r0, fp, asr #18
    41bc:	00005618 	andeq	r5, r0, r8, lsl r6
    41c0:	df220000 	svcle	0x00220000
    41c4:	07000001 	streq	r0, [r0, -r1]
    41c8:	09570e1d 	ldmdbeq	r7, {r0, r2, r3, r4, r9, sl, fp}^
    41cc:	04080000 	streq	r0, [r8], #-0
    41d0:	0000093c 	andeq	r0, r0, ip, lsr r9
    41d4:	00005617 	andeq	r5, r0, r7, lsl r6
    41d8:	00096c00 	andeq	r6, r9, r0, lsl #24
    41dc:	06131800 	ldreq	r1, [r3], -r0, lsl #16
    41e0:	22000000 	andcs	r0, r0, #0
    41e4:	0000076d 	andeq	r0, r0, sp, ror #14
    41e8:	780e2207 	stmdavc	lr, {r0, r1, r2, r9, sp}
    41ec:	08000009 	stmdaeq	r0, {r0, r3}
    41f0:	00095d04 	andeq	r5, r9, r4, lsl #26
    41f4:	07042300 	streq	r2, [r4, -r0, lsl #6]
    41f8:	06010000 	streq	r0, [r1], -r0
    41fc:	00005605 	andeq	r5, r0, r5, lsl #12
    4200:	008a4c00 	addeq	r4, sl, r0, lsl #24
    4204:	00005800 	andeq	r5, r0, r0, lsl #16
    4208:	119c0100 	orrsne	r0, ip, r0, lsl #2
    420c:	2400000a 	strcs	r0, [r0], #-10
    4210:	00746d66 	rsbseq	r6, r4, r6, ror #26
    4214:	13180601 	tstne	r8, #1048576	; 0x100000
    4218:	02000006 	andeq	r0, r0, #6
    421c:	26257091 			; <UNDEFINED> instruction: 0x26257091
    4220:	00667562 	rsbeq	r7, r6, r2, ror #10
    4224:	11110801 	tstne	r1, r1, lsl #16
    4228:	0500000a 	streq	r0, [r0, #-10]
    422c:	009c0003 	addseq	r0, ip, r3
    4230:	01182700 	tsteq	r8, r0, lsl #14
    4234:	09010000 	stmdbeq	r1, {}	; <UNPREDICTABLE>
    4238:	00004a0d 	andeq	r4, r0, sp, lsl #20
    423c:	5c910200 	lfmpl	f0, 4, [r1], {0}
    4240:	007a7328 	rsbseq	r7, sl, r8, lsr #6
    4244:	560d0c01 	strpl	r0, [sp], -r1, lsl #24
    4248:	7b000000 	blvc	4250 <_start-0x3db0>
    424c:	7500000a 	strvc	r0, [r0, #-10]
    4250:	2900000a 	stmdbcs	r0, {r1, r3}
    4254:	00008a74 	andeq	r8, r0, r4, ror sl
    4258:	00000a22 	andeq	r0, r0, r2, lsr #20
    425c:	00000a04 	andeq	r0, r0, r4, lsl #20
    4260:	0250012a 	subseq	r0, r0, #-2147483638	; 0x8000000a
    4264:	012a0075 			; <UNDEFINED> instruction: 0x012a0075
    4268:	000a0351 	andeq	r0, sl, r1, asr r3
    426c:	52012a04 	andpl	r2, r1, #4, 20	; 0x4000
    4270:	06489103 	strbeq	r9, [r8], -r3, lsl #2
    4274:	0253012a 	subseq	r0, r3, #-2147483638	; 0x8000000a
    4278:	2b004c91 	blcs	174c4 <__bss_end__+0xd4c4>
    427c:	00008a88 	andeq	r8, r0, r8, lsl #21
    4280:	0250012a 	subseq	r0, r0, #-2147483638	; 0x8000000a
    4284:	00000075 	andeq	r0, r0, r5, ror r0
    4288:	00014c0d 	andeq	r4, r1, sp, lsl #24
    428c:	000a2200 	andeq	r2, sl, r0, lsl #4
    4290:	005d2c00 	subseq	r2, sp, r0, lsl #24
    4294:	03ff0000 	mvnseq	r0, #0
    4298:	07012d00 	streq	r2, [r1, -r0, lsl #26]
    429c:	07010000 	streq	r0, [r1, -r0]
    42a0:	02090000 	andeq	r0, r9, #0
    42a4:	09d90005 	ldmibeq	r9, {r0, r2}^
    42a8:	00040000 	andeq	r0, r4, r0
    42ac:	00000c58 	andeq	r0, r0, r8, asr ip
    42b0:	03020104 	movweq	r0, #8452	; 0x2104
    42b4:	550c0000 	strpl	r0, [ip, #-0]
    42b8:	c6000007 	strgt	r0, [r0], -r7
    42bc:	a4000006 	strge	r0, [r0], #-6
    42c0:	3c00008a 	stccc	0, cr0, [r0], {138}	; 0x8a
    42c4:	d7000000 	strle	r0, [r0, -r0]
    42c8:	0200000c 	andeq	r0, r0, #12
    42cc:	6e690504 	cdpvs	5, 6, cr0, cr9, cr4, {0}
    42d0:	04030074 	streq	r0, [r3], #-116	; 0xffffff8c
    42d4:	00007407 	andeq	r7, r0, r7, lsl #8
    42d8:	06010300 	streq	r0, [r1], -r0, lsl #6
    42dc:	000002f1 	strdeq	r0, [r0], -r1
    42e0:	8a050203 	bhi	144af4 <__bss_end__+0x13aaf4>
    42e4:	03000003 	movweq	r0, #3
    42e8:	00ba0504 	adcseq	r0, sl, r4, lsl #10
    42ec:	08030000 	stmdaeq	r3, {}	; <UNPREDICTABLE>
    42f0:	0000b505 	andeq	fp, r0, r5, lsl #10
    42f4:	08010300 	stmdaeq	r1, {r8, r9}
    42f8:	000002ef 	andeq	r0, r0, pc, ror #5
    42fc:	30070203 	andcc	r0, r7, r3, lsl #4
    4300:	03000002 	movweq	r0, #2
    4304:	006f0704 	rsbeq	r0, pc, r4, lsl #14
    4308:	08030000 	stmdaeq	r3, {}	; <UNPREDICTABLE>
    430c:	00006a07 	andeq	r6, r0, r7, lsl #20
    4310:	02730400 	rsbseq	r0, r3, #0, 8
    4314:	22020000 	andcs	r0, r2, #0
    4318:	00007719 	andeq	r7, r0, r9, lsl r7
    431c:	7d040500 	cfstr32vc	mvfx0, [r4, #-0]
    4320:	06000000 	streq	r0, [r0], -r0
    4324:	00000430 	andeq	r0, r0, r0, lsr r4
    4328:	0002d004 	andeq	sp, r2, r4
    432c:	0e2c0300 	cdpeq	3, 2, cr0, cr12, cr0, {0}
    4330:	00000041 	andeq	r0, r0, r1, asr #32
    4334:	00044504 	andeq	r4, r4, r4, lsl #10
    4338:	0e720300 	cdpeq	3, 7, cr0, cr2, cr0, {0}
    433c:	00000041 	andeq	r0, r0, r1, asr #32
    4340:	00027b07 	andeq	r7, r2, r7, lsl #22
    4344:	015e0400 	cmpeq	lr, r0, lsl #8
    4348:	00002c17 	andeq	r2, r0, r7, lsl ip
    434c:	03040800 	movweq	r0, #18432	; 0x4800
    4350:	00c903a6 	sbceq	r0, r9, r6, lsr #7
    4354:	6d090000 	stcvs	0, cr0, [r9, #-0]
    4358:	03000002 	movweq	r0, #2
    435c:	009a0ca8 	addseq	r0, sl, r8, lsr #25
    4360:	f0090000 			; <UNDEFINED> instruction: 0xf0090000
    4364:	03000001 	movweq	r0, #1
    4368:	00c913a9 	sbceq	r1, r9, r9, lsr #7
    436c:	0a000000 	beq	4374 <_start-0x3c8c>
    4370:	0000004f 	andeq	r0, r0, pc, asr #32
    4374:	000000d9 	ldrdeq	r0, [r0], -r9
    4378:	00002c0b 	andeq	r2, r0, fp, lsl #24
    437c:	0c000300 	stceq	3, cr0, [r0], {-0}
    4380:	09a30308 	stmibeq	r3!, {r3, r8, r9}
    4384:	000000fd 	strdeq	r0, [r0], -sp
    4388:	0004280d 	andeq	r2, r4, sp, lsl #16
    438c:	07a50300 	streq	r0, [r5, r0, lsl #6]!
    4390:	00000025 	andeq	r0, r0, r5, lsr #32
    4394:	04370d00 	ldrteq	r0, [r7], #-3328	; 0xfffff300
    4398:	aa030000 	bge	c43a0 <__bss_end__+0xba3a0>
    439c:	0000a705 	andeq	sl, r0, r5, lsl #14
    43a0:	04000400 	streq	r0, [r0], #-1024	; 0xfffffc00
    43a4:	000003b2 			; <UNDEFINED> instruction: 0x000003b2
    43a8:	d903ab03 	stmdble	r3, {r0, r1, r8, r9, fp, sp, pc}
    43ac:	04000000 	streq	r0, [r0], #-0
    43b0:	000001ad 	andeq	r0, r0, sp, lsr #3
    43b4:	6b1baf03 	blvs	6effc8 <__bss_end__+0x6e5fc8>
    43b8:	0e000000 	cdpeq	0, 0, cr0, cr0, cr0, {0}
    43bc:	1d040504 	cfstr32ne	mvfx0, [r4, #-16]
    43c0:	03000001 	movweq	r0, #1
    43c4:	02f80801 	rscseq	r0, r8, #65536	; 0x10000
    43c8:	1d0f0000 	stcne	0, cr0, [pc, #-0]	; 43d0 <_start-0x3c30>
    43cc:	04000001 	streq	r0, [r0], #-1
    43d0:	00000477 	andeq	r0, r0, r7, ror r4
    43d4:	5d191605 	ldcpl	6, cr1, [r9, #-20]	; 0xffffffec
    43d8:	10000000 	andne	r0, r0, r0
    43dc:	000001be 			; <UNDEFINED> instruction: 0x000001be
    43e0:	082f0518 	stmdaeq	pc!, {r3, r4, r8, sl}	; <UNPREDICTABLE>
    43e4:	0000018f 	andeq	r0, r0, pc, lsl #3
    43e8:	0003d30d 	andeq	sp, r3, sp, lsl #6
    43ec:	13310500 	teqne	r1, #0, 10
    43f0:	0000018f 	andeq	r0, r0, pc, lsl #3
    43f4:	6b5f1100 	blvs	17c87fc <__bss_end__+0x17be7fc>
    43f8:	07320500 	ldreq	r0, [r2, -r0, lsl #10]!
    43fc:	00000025 	andeq	r0, r0, r5, lsr #32
    4400:	04130d04 	ldreq	r0, [r3], #-3332	; 0xfffff2fc
    4404:	32050000 	andcc	r0, r5, #0
    4408:	0000250b 	andeq	r2, r0, fp, lsl #10
    440c:	a70d0800 	strge	r0, [sp, -r0, lsl #16]
    4410:	05000001 	streq	r0, [r0, #-1]
    4414:	00251432 	eoreq	r1, r5, r2, lsr r4
    4418:	0d0c0000 	stceq	0, cr0, [ip, #-0]
    441c:	000004b3 			; <UNDEFINED> instruction: 0x000004b3
    4420:	251b3205 	ldrcs	r3, [fp, #-517]	; 0xfffffdfb
    4424:	10000000 	andne	r0, r0, r0
    4428:	00785f11 	rsbseq	r5, r8, r1, lsl pc
    442c:	950b3305 	strls	r3, [fp, #-773]	; 0xfffffcfb
    4430:	14000001 	strne	r0, [r0], #-1
    4434:	35040500 	strcc	r0, [r4, #-1280]	; 0xfffffb00
    4438:	0a000001 	beq	4444 <_start-0x3bbc>
    443c:	00000129 	andeq	r0, r0, r9, lsr #2
    4440:	000001a5 	andeq	r0, r0, r5, lsr #3
    4444:	00002c0b 	andeq	r2, r0, fp, lsl #24
    4448:	10000000 	andne	r0, r0, r0
    444c:	000001eb 	andeq	r0, r0, fp, ror #3
    4450:	08370524 	ldmdaeq	r7!, {r2, r5, r8, sl}
    4454:	00000228 	andeq	r0, r0, r8, lsr #4
    4458:	0000ac0d 	andeq	sl, r0, sp, lsl #24
    445c:	09390500 	ldmdbeq	r9!, {r8, sl}
    4460:	00000025 	andeq	r0, r0, r5, lsr #32
    4464:	044d0d00 	strbeq	r0, [sp], #-3328	; 0xfffff300
    4468:	3a050000 	bcc	144470 <__bss_end__+0x13a470>
    446c:	00002509 	andeq	r2, r0, r9, lsl #10
    4470:	cf0d0400 	svcgt	0x000d0400
    4474:	05000000 	streq	r0, [r0, #-0]
    4478:	0025093b 	eoreq	r0, r5, fp, lsr r9
    447c:	0d080000 	stceq	0, cr0, [r8, #-0]
    4480:	00000534 	andeq	r0, r0, r4, lsr r5
    4484:	25093c05 	strcs	r3, [r9, #-3077]	; 0xfffff3fb
    4488:	0c000000 	stceq	0, cr0, [r0], {-0}
    448c:	0002b40d 	andeq	fp, r2, sp, lsl #8
    4490:	093d0500 	ldmdbeq	sp!, {r8, sl}
    4494:	00000025 	andeq	r0, r0, r5, lsr #32
    4498:	02960d10 	addseq	r0, r6, #16, 26	; 0x400
    449c:	3e050000 	cdpcc	0, 0, cr0, cr5, cr0, {0}
    44a0:	00002509 	andeq	r2, r0, r9, lsl #10
    44a4:	b80d1400 	stmdalt	sp, {sl, ip}
    44a8:	05000004 	streq	r0, [r0, #-4]
    44ac:	0025093f 	eoreq	r0, r5, pc, lsr r9
    44b0:	0d180000 	ldceq	0, cr0, [r8, #-0]
    44b4:	00000394 	muleq	r0, r4, r3
    44b8:	25094005 	strcs	r4, [r9, #-5]
    44bc:	1c000000 	stcne	0, cr0, [r0], {-0}
    44c0:	0004fb0d 	andeq	pc, r4, sp, lsl #22
    44c4:	09410500 	stmdbeq	r1, {r8, sl}^
    44c8:	00000025 	andeq	r0, r0, r5, lsr #32
    44cc:	0f120020 	svceq	0x00120020
    44d0:	08000001 	stmdaeq	r0, {r0}
    44d4:	084a0501 	stmdaeq	sl, {r0, r8, sl}^
    44d8:	0000026d 	andeq	r0, r0, sp, ror #4
    44dc:	00019a0d 	andeq	r9, r1, sp, lsl #20
    44e0:	0a4b0500 	beq	12c58e8 <__bss_end__+0x12bb8e8>
    44e4:	0000026d 	andeq	r0, r0, sp, ror #4
    44e8:	00000d00 	andeq	r0, r0, r0, lsl #26
    44ec:	4c050000 	stcmi	0, cr0, [r5], {-0}
    44f0:	00026d09 	andeq	r6, r2, r9, lsl #26
    44f4:	69138000 	ldmdbvs	r3, {pc}
    44f8:	05000004 	streq	r0, [r0, #-4]
    44fc:	01290a4e 			; <UNDEFINED> instruction: 0x01290a4e
    4500:	01000000 	mrseq	r0, (UNDEF: 0)
    4504:	00013413 	andeq	r3, r1, r3, lsl r4
    4508:	0a510500 	beq	1445910 <__bss_end__+0x143b910>
    450c:	00000129 	andeq	r0, r0, r9, lsr #2
    4510:	0a000104 	beq	4928 <_start-0x36d8>
    4514:	00000115 	andeq	r0, r0, r5, lsl r1
    4518:	0000027d 	andeq	r0, r0, sp, ror r2
    451c:	00002c0b 	andeq	r2, r0, fp, lsl #24
    4520:	12001f00 	andne	r1, r0, #0, 30
    4524:	000002bd 			; <UNDEFINED> instruction: 0x000002bd
    4528:	5d050190 	stfpls	f0, [r5, #-576]	; 0xfffffdc0
    452c:	0002c008 	andeq	ip, r2, r8
    4530:	03d30d00 	bicseq	r0, r3, #0, 26
    4534:	5e050000 	cdppl	0, 0, cr0, cr5, cr0, {0}
    4538:	0002c012 	andeq	ip, r2, r2, lsl r0
    453c:	eb0d0000 	bl	344544 <__bss_end__+0x33a544>
    4540:	05000003 	streq	r0, [r0, #-3]
    4544:	0025065f 	eoreq	r0, r5, pc, asr r6
    4548:	0d040000 	stceq	0, cr0, [r4, #-0]
    454c:	000001a2 	andeq	r0, r0, r2, lsr #3
    4550:	c6096105 	strgt	r6, [r9], -r5, lsl #2
    4554:	08000002 	stmdaeq	r0, {r1}
    4558:	00010f0d 	andeq	r0, r1, sp, lsl #30
    455c:	1e620500 	cdpne	5, 6, cr0, cr2, cr0, {0}
    4560:	00000228 	andeq	r0, r0, r8, lsr #4
    4564:	04050088 	streq	r0, [r5], #-136	; 0xffffff78
    4568:	0000027d 	andeq	r0, r0, sp, ror r2
    456c:	0002d60a 	andeq	sp, r2, sl, lsl #12
    4570:	0002d600 	andeq	sp, r2, r0, lsl #12
    4574:	002c0b00 	eoreq	r0, ip, r0, lsl #22
    4578:	001f0000 	andseq	r0, pc, r0
    457c:	02dc0405 	sbcseq	r0, ip, #83886080	; 0x5000000
    4580:	10140000 	andsne	r0, r4, r0
    4584:	0000039e 	muleq	r0, lr, r3
    4588:	08750508 	ldmdaeq	r5!, {r3, r8, sl}^
    458c:	00000305 	andeq	r0, r0, r5, lsl #6
    4590:	0000c90d 	andeq	ip, r0, sp, lsl #18
    4594:	11760500 	cmnne	r6, r0, lsl #10
    4598:	00000305 	andeq	r0, r0, r5, lsl #6
    459c:	001b0d00 	andseq	r0, fp, r0, lsl #26
    45a0:	77050000 	strvc	r0, [r5, -r0]
    45a4:	00002506 	andeq	r2, r0, r6, lsl #10
    45a8:	05000400 	streq	r0, [r0, #-1024]	; 0xfffffc00
    45ac:	00004f04 	andeq	r4, r0, r4, lsl #30
    45b0:	03bd1000 			; <UNDEFINED> instruction: 0x03bd1000
    45b4:	05680000 	strbeq	r0, [r8, #-0]!
    45b8:	044e08b5 	strbeq	r0, [lr], #-2229	; 0xfffff74b
    45bc:	5f110000 	svcpl	0x00110000
    45c0:	b6050070 			; <UNDEFINED> instruction: 0xb6050070
    45c4:	00030512 	andeq	r0, r3, r2, lsl r5
    45c8:	5f110000 	svcpl	0x00110000
    45cc:	b7050072 	smlsdxlt	r5, r2, r0, r0
    45d0:	00002507 	andeq	r2, r0, r7, lsl #10
    45d4:	5f110400 	svcpl	0x00110400
    45d8:	b8050077 	stmdalt	r5, {r0, r1, r2, r4, r5, r6}
    45dc:	00002507 	andeq	r2, r0, r7, lsl #10
    45e0:	2d0d0800 	stccs	8, cr0, [sp, #-0]
    45e4:	05000001 	streq	r0, [r0, #-1]
    45e8:	003a09b9 	ldrhteq	r0, [sl], -r9
    45ec:	0d0c0000 	stceq	0, cr0, [ip, #-0]
    45f0:	00000216 	andeq	r0, r0, r6, lsl r2
    45f4:	3a09ba05 	bcc	272e10 <__bss_end__+0x268e10>
    45f8:	0e000000 	cdpeq	0, 0, cr0, cr0, cr0, {0}
    45fc:	66625f11 	uqadd16vs	r5, r2, r1
    4600:	11bb0500 			; <UNDEFINED> instruction: 0x11bb0500
    4604:	000002dd 	ldrdeq	r0, [r0], -sp
    4608:	00890d10 	addeq	r0, r9, r0, lsl sp
    460c:	bc050000 	stclt	0, cr0, [r5], {-0}
    4610:	00002507 	andeq	r2, r0, r7, lsl #10
    4614:	1d0d1800 	stcne	8, cr1, [sp, #-0]
    4618:	05000001 	streq	r0, [r0, #-1]
    461c:	01150ac3 	tsteq	r5, r3, asr #21
    4620:	0d1c0000 	ldceq	0, cr0, [ip, #-0]
    4624:	00000b29 	andeq	r0, r0, r9, lsr #22
    4628:	c01dc505 	andsgt	ip, sp, r5, lsl #10
    462c:	20000005 	andcs	r0, r0, r5
    4630:	00061e0d 	andeq	r1, r6, sp, lsl #28
    4634:	1dc70500 	cfstr64ne	mvdx0, [r7]
    4638:	000005ea 	andeq	r0, r0, sl, ror #11
    463c:	043f0d24 	ldrteq	r0, [pc], #-3364	; 4644 <_start-0x39bc>
    4640:	ca050000 	bgt	144648 <__bss_end__+0x13a648>
    4644:	00060e0d 	andeq	r0, r6, sp, lsl #28
    4648:	150d2800 	strne	r2, [sp, #-2048]	; 0xfffff800
    464c:	05000005 	streq	r0, [r0, #-5]
    4650:	062809cb 	strteq	r0, [r8], -fp, asr #19
    4654:	112c0000 			; <UNDEFINED> instruction: 0x112c0000
    4658:	0062755f 	rsbeq	r7, r2, pc, asr r5
    465c:	dd11ce05 	ldcle	14, cr12, [r1, #-20]	; 0xffffffec
    4660:	30000002 	andcc	r0, r0, r2
    4664:	70755f11 	rsbsvc	r5, r5, r1, lsl pc
    4668:	12cf0500 	sbcne	r0, pc, #0, 10
    466c:	00000305 	andeq	r0, r0, r5, lsl #6
    4670:	755f1138 	ldrbvc	r1, [pc, #-312]	; 4540 <_start-0x3ac0>
    4674:	d0050072 	andle	r0, r5, r2, ror r0
    4678:	00002507 	andeq	r2, r0, r7, lsl #10
    467c:	c30d3c00 	movwgt	r3, #56320	; 0xdc00
    4680:	05000000 	streq	r0, [r0, #-0]
    4684:	062e11d3 			; <UNDEFINED> instruction: 0x062e11d3
    4688:	0d400000 	stcleq	0, cr0, [r0, #-0]
    468c:	000004ed 	andeq	r0, r0, sp, ror #9
    4690:	3e11d405 	cfmulscc	mvf13, mvf1, mvf5
    4694:	43000006 	movwmi	r0, #6
    4698:	626c5f11 	rsbvs	r5, ip, #17, 30	; 0x44
    469c:	11d70500 	bicsne	r0, r7, r0, lsl #10
    46a0:	000002dd 	ldrdeq	r0, [r0], -sp
    46a4:	014b0d44 	cmpeq	fp, r4, asr #26
    46a8:	da050000 	ble	1446b0 <__bss_end__+0x13a6b0>
    46ac:	00002507 	andeq	r2, r0, r7, lsl #10
    46b0:	5c0d4c00 	stcpl	12, cr4, [sp], {-0}
    46b4:	05000001 	streq	r0, [r0, #-1]
    46b8:	00820adb 	ldrdeq	r0, [r2], fp
    46bc:	0d500000 	ldcleq	0, cr0, [r0, #-0]
    46c0:	00000aca 	andeq	r0, r0, sl, asr #21
    46c4:	6c12de05 	ldcvs	14, cr13, [r2], {5}
    46c8:	54000004 	strpl	r0, [r0], #-4
    46cc:	0004310d 	andeq	r3, r4, sp, lsl #2
    46d0:	0ce20500 	cfstr64eq	mvdx0, [r2]
    46d4:	00000109 	andeq	r0, r0, r9, lsl #2
    46d8:	03c50d58 	biceq	r0, r5, #88, 26	; 0x1600
    46dc:	e4050000 	str	r0, [r5], #-0
    46e0:	0000fd0e 	andeq	pc, r0, lr, lsl #26
    46e4:	8e0d5c00 	cdphi	12, 0, cr5, cr13, cr0, {0}
    46e8:	05000002 	streq	r0, [r0, #-2]
    46ec:	002509e5 	eoreq	r0, r5, r5, ror #19
    46f0:	00640000 	rsbeq	r0, r4, r0
    46f4:	00002515 	andeq	r2, r0, r5, lsl r5
    46f8:	00046c00 	andeq	r6, r4, r0, lsl #24
    46fc:	046c1600 	strbteq	r1, [ip], #-1536	; 0xfffffa00
    4700:	15160000 	ldrne	r0, [r6, #-0]
    4704:	16000001 	strne	r0, [r0], -r1
    4708:	00000117 	andeq	r0, r0, r7, lsl r1
    470c:	00002516 	andeq	r2, r0, r6, lsl r5
    4710:	04050000 	streq	r0, [r5], #-0
    4714:	00000477 	andeq	r0, r0, r7, ror r4
    4718:	00046c0f 	andeq	r6, r4, pc, lsl #24
    471c:	041b1700 	ldreq	r1, [fp], #-1792	; 0xfffff900
    4720:	04280000 	strteq	r0, [r8], #-0
    4724:	08026005 	stmdaeq	r2, {r0, r2, sp, lr}
    4728:	000005c0 	andeq	r0, r0, r0, asr #11
    472c:	00038318 	andeq	r8, r3, r8, lsl r3
    4730:	02620500 	rsbeq	r0, r2, #0, 10
    4734:	00002507 	andeq	r2, r0, r7, lsl #10
    4738:	3c180000 	ldccc	0, cr0, [r8], {-0}
    473c:	05000001 	streq	r0, [r0, #-1]
    4740:	9a0b0267 	bls	2c50e4 <__bss_end__+0x2bb0e4>
    4744:	04000006 	streq	r0, [r0], #-6
    4748:	00020618 	andeq	r0, r2, r8, lsl r6
    474c:	02670500 	rsbeq	r0, r7, #0, 10
    4750:	00069a14 	andeq	r9, r6, r4, lsl sl
    4754:	b6180800 	ldrlt	r0, [r8], -r0, lsl #16
    4758:	05000001 	streq	r0, [r0, #-1]
    475c:	9a1e0267 	bls	785100 <__bss_end__+0x77b100>
    4760:	0c000006 	stceq	0, cr0, [r0], {6}
    4764:	0003e618 	andeq	lr, r3, r8, lsl r6
    4768:	02690500 	rsbeq	r0, r9, #0, 10
    476c:	00002508 	andeq	r2, r0, r8, lsl #10
    4770:	37181000 	ldrcc	r1, [r8, -r0]
    4774:	05000000 	streq	r0, [r0, #-0]
    4778:	9a08026a 	bls	205128 <__bss_end__+0x1fb128>
    477c:	14000008 	strne	r0, [r0], #-8
    4780:	0003fa18 	andeq	pc, r3, r8, lsl sl	; <UNPREDICTABLE>
    4784:	026d0500 	rsbeq	r0, sp, #0, 10
    4788:	00002507 	andeq	r2, r0, r7, lsl #10
    478c:	06183000 	ldreq	r3, [r8], -r0
    4790:	0500000a 	streq	r0, [r0, #-10]
    4794:	af16026e 	svcge	0x0016026e
    4798:	34000008 	strcc	r0, [r0], #-8
    479c:	0002c518 	andeq	ip, r2, r8, lsl r5
    47a0:	02700500 	rsbseq	r0, r0, #0, 10
    47a4:	00002507 	andeq	r2, r0, r7, lsl #10
    47a8:	f0183800 			; <UNDEFINED> instruction: 0xf0183800
    47ac:	05000003 	streq	r0, [r0, #-3]
    47b0:	c00a0272 	andgt	r0, sl, r2, ror r2
    47b4:	3c000008 	stccc	0, cr0, [r0], {8}
    47b8:	00026518 	andeq	r6, r2, r8, lsl r5
    47bc:	02750500 	rsbseq	r0, r5, #0, 10
    47c0:	00018f13 	andeq	r8, r1, r3, lsl pc
    47c4:	d5184000 	ldrle	r4, [r8, #-0]
    47c8:	05000001 	streq	r0, [r0, #-1]
    47cc:	25070276 	strcs	r0, [r7, #-630]	; 0xfffffd8a
    47d0:	44000000 	strmi	r0, [r0], #-0
    47d4:	00052f18 	andeq	r2, r5, r8, lsl pc
    47d8:	02770500 	rsbseq	r0, r7, #0, 10
    47dc:	00018f13 	andeq	r8, r1, r3, lsl pc
    47e0:	d7184800 	ldrle	r4, [r8, -r0, lsl #16]
    47e4:	05000002 	streq	r0, [r0, #-2]
    47e8:	c6140278 			; <UNDEFINED> instruction: 0xc6140278
    47ec:	4c000008 	stcmi	0, cr0, [r0], {8}
    47f0:	00020e18 	andeq	r0, r2, r8, lsl lr
    47f4:	027b0500 	rsbseq	r0, fp, #0, 10
    47f8:	00002507 	andeq	r2, r0, r7, lsl #10
    47fc:	54185000 	ldrpl	r5, [r8], #-0
    4800:	05000001 	streq	r0, [r0, #-1]
    4804:	1709027c 	smlsdxne	r9, ip, r2, r0
    4808:	54000001 	strpl	r0, [r0], #-1
    480c:	0002fd18 	andeq	pc, r2, r8, lsl sp	; <UNPREDICTABLE>
    4810:	029f0500 	addseq	r0, pc, #0, 10
    4814:	00087507 	andeq	r7, r8, r7, lsl #10
    4818:	bd195800 	ldclt	8, cr5, [r9, #-0]
    481c:	05000002 	streq	r0, [r0, #-2]
    4820:	c01302a3 	andsgt	r0, r3, r3, lsr #5
    4824:	48000002 	stmdami	r0, {r1}
    4828:	02431901 	subeq	r1, r3, #16384	; 0x4000
    482c:	a4050000 	strge	r0, [r5], #-0
    4830:	027d1202 	rsbseq	r1, sp, #536870912	; 0x20000000
    4834:	014c0000 	mrseq	r0, (UNDEF: 76)
    4838:	0004db19 	andeq	sp, r4, r9, lsl fp
    483c:	02a80500 	adceq	r0, r8, #0, 10
    4840:	0008d70c 	andeq	sp, r8, ip, lsl #14
    4844:	1902dc00 	stmdbne	r2, {sl, fp, ip, lr, pc}
    4848:	00000125 	andeq	r0, r0, r5, lsr #2
    484c:	1002ad05 	andne	sl, r2, r5, lsl #26
    4850:	0000065b 	andeq	r0, r0, fp, asr r6
    4854:	0a1902e0 	beq	6453dc <__bss_end__+0x63b3dc>
    4858:	05000001 	streq	r0, [r0, #-1]
    485c:	e30a02af 	movw	r0, #41647	; 0xa2af
    4860:	ec000008 	stc	0, cr0, [r0], {8}
    4864:	04050002 	streq	r0, [r5], #-2
    4868:	0000044e 	andeq	r0, r0, lr, asr #8
    486c:	00002515 	andeq	r2, r0, r5, lsl r5
    4870:	0005e400 	andeq	lr, r5, r0, lsl #8
    4874:	046c1600 	strbteq	r1, [ip], #-1536	; 0xfffffa00
    4878:	15160000 	ldrne	r0, [r6, #-0]
    487c:	16000001 	strne	r0, [r0], -r1
    4880:	000005e4 	andeq	r0, r0, r4, ror #11
    4884:	00002516 	andeq	r2, r0, r6, lsl r5
    4888:	04050000 	streq	r0, [r5], #-0
    488c:	00000124 	andeq	r0, r0, r4, lsr #2
    4890:	05c60405 	strbeq	r0, [r6, #1029]	; 0x405
    4894:	8e150000 	cdphi	0, 1, cr0, cr5, cr0, {0}
    4898:	0e000000 	cdpeq	0, 0, cr0, cr0, cr0, {0}
    489c:	16000006 	strne	r0, [r0], -r6
    48a0:	0000046c 	andeq	r0, r0, ip, ror #8
    48a4:	00011516 	andeq	r1, r1, r6, lsl r5
    48a8:	008e1600 	addeq	r1, lr, r0, lsl #12
    48ac:	25160000 	ldrcs	r0, [r6, #-0]
    48b0:	00000000 	andeq	r0, r0, r0
    48b4:	05f00405 	ldrbeq	r0, [r0, #1029]!	; 0x405
    48b8:	25150000 	ldrcs	r0, [r5, #-0]
    48bc:	28000000 	stmdacs	r0, {}	; <UNPREDICTABLE>
    48c0:	16000006 	strne	r0, [r0], -r6
    48c4:	0000046c 	andeq	r0, r0, ip, ror #8
    48c8:	00011516 	andeq	r1, r1, r6, lsl r5
    48cc:	04050000 	streq	r0, [r5], #-0
    48d0:	00000614 	andeq	r0, r0, r4, lsl r6
    48d4:	00004f0a 	andeq	r4, r0, sl, lsl #30
    48d8:	00063e00 	andeq	r3, r6, r0, lsl #28
    48dc:	002c0b00 	eoreq	r0, ip, r0, lsl #22
    48e0:	00020000 	andeq	r0, r2, r0
    48e4:	00004f0a 	andeq	r4, r0, sl, lsl #30
    48e8:	00064e00 	andeq	r4, r6, r0, lsl #28
    48ec:	002c0b00 	eoreq	r0, ip, r0, lsl #22
    48f0:	00000000 	andeq	r0, r0, r0
    48f4:	0003ab07 	andeq	sl, r3, r7, lsl #22
    48f8:	011f0500 	tsteq	pc, r0, lsl #10
    48fc:	00030b1a 	andeq	r0, r3, sl, lsl fp
    4900:	04c21a00 	strbeq	r1, [r2], #2560	; 0xa00
    4904:	050c0000 	streq	r0, [ip, #-0]
    4908:	94080123 	strls	r0, [r8], #-291	; 0xfffffedd
    490c:	18000006 	stmdane	r0, {r1, r2}
    4910:	000003d3 	ldrdeq	r0, [r0], -r3
    4914:	11012505 	tstne	r1, r5, lsl #10
    4918:	00000694 	muleq	r0, r4, r6
    491c:	02291800 	eoreq	r1, r9, #0, 16
    4920:	26050000 	strcs	r0, [r5], -r0
    4924:	00250701 	eoreq	r0, r5, r1, lsl #14
    4928:	18040000 	stmdane	r4, {}	; <UNPREDICTABLE>
    492c:	000003a5 	andeq	r0, r0, r5, lsr #7
    4930:	0b012705 	bleq	4e54c <__bss_end__+0x4454c>
    4934:	0000069a 	muleq	r0, sl, r6
    4938:	04050008 	streq	r0, [r5], #-8
    493c:	0000065b 	andeq	r0, r0, fp, asr r6
    4940:	064e0405 	strbeq	r0, [lr], -r5, lsl #8
    4944:	2f1a0000 	svccs	0x001a0000
    4948:	0e000000 	cdpeq	0, 0, cr0, cr0, cr0, {0}
    494c:	08013f05 	stmdaeq	r1, {r0, r2, r8, r9, sl, fp, ip, sp}
    4950:	000006d9 	ldrdeq	r0, [r0], -r9
    4954:	00042218 	andeq	r2, r4, r8, lsl r2
    4958:	01400500 	cmpeq	r0, r0, lsl #10
    495c:	0006d912 	andeq	sp, r6, r2, lsl r9
    4960:	56180000 	ldrpl	r0, [r8], -r0
    4964:	05000004 	streq	r0, [r0, #-4]
    4968:	d9120141 	ldmdble	r2, {r0, r6, r8}
    496c:	06000006 	streq	r0, [r0], -r6
    4970:	00047218 	andeq	r7, r4, r8, lsl r2
    4974:	01420500 	cmpeq	r2, r0, lsl #10
    4978:	00005612 	andeq	r5, r0, r2, lsl r6
    497c:	0a000c00 	beq	7984 <_start-0x67c>
    4980:	00000056 	andeq	r0, r0, r6, asr r0
    4984:	000006e9 	andeq	r0, r0, r9, ror #13
    4988:	00002c0b 	andeq	r2, r0, fp, lsl #24
    498c:	1b000200 	blne	5194 <_start-0x2e6c>
    4990:	028005d0 	addeq	r0, r0, #208, 10	; 0x34000000
    4994:	0007fe07 	andeq	pc, r7, r7, lsl #28
    4998:	04a61800 	strteq	r1, [r6], #2048	; 0x800
    499c:	82050000 	andhi	r0, r5, #0
    49a0:	002c1802 	eoreq	r1, ip, r2, lsl #16
    49a4:	18000000 	stmdane	r0, {}	; <UNPREDICTABLE>
    49a8:	0000045c 	andeq	r0, r0, ip, asr r4
    49ac:	12028305 	andne	r8, r2, #335544320	; 0x14000000
    49b0:	00000117 	andeq	r0, r0, r7, lsl r1
    49b4:	02581804 	subseq	r1, r8, #4, 16	; 0x40000
    49b8:	84050000 	strhi	r0, [r5], #-0
    49bc:	07fe1002 	ldrbeq	r1, [lr, r2]!
    49c0:	18080000 	stmdane	r8, {}	; <UNPREDICTABLE>
    49c4:	00000506 	andeq	r0, r0, r6, lsl #10
    49c8:	17028505 	strne	r8, [r2, -r5, lsl #10]
    49cc:	000001a5 	andeq	r0, r0, r5, lsr #3
    49d0:	01c61824 	biceq	r1, r6, r4, lsr #16
    49d4:	86050000 	strhi	r0, [r5], -r0
    49d8:	00250f02 	eoreq	r0, r5, r2, lsl #30
    49dc:	18480000 	stmdane	r8, {}^	; <UNPREDICTABLE>
    49e0:	000003ce 	andeq	r0, r0, lr, asr #7
    49e4:	2c028705 	stccs	7, cr8, [r2], {5}
    49e8:	00000064 	andeq	r0, r0, r4, rrx
    49ec:	051c1850 	ldreq	r1, [ip, #-2128]	; 0xfffff7b0
    49f0:	88050000 	stmdahi	r5, {}	; <UNPREDICTABLE>
    49f4:	06a01a02 	strteq	r1, [r0], r2, lsl #20
    49f8:	18580000 	ldmdane	r8, {}^	; <UNPREDICTABLE>
    49fc:	000003d9 	ldrdeq	r0, [r0], -r9
    4a00:	16028905 	strne	r8, [r2], -r5, lsl #18
    4a04:	000000fd 	strdeq	r0, [r0], -sp
    4a08:	05211868 	streq	r1, [r1, #-2152]!	; 0xfffff798
    4a0c:	8a050000 	bhi	144a14 <__bss_end__+0x13aa14>
    4a10:	00fd1602 	rscseq	r1, sp, r2, lsl #12
    4a14:	18700000 	ldmdane	r0!, {}^	; <UNPREDICTABLE>
    4a18:	000002e1 	andeq	r0, r0, r1, ror #5
    4a1c:	16028b05 	strne	r8, [r2], -r5, lsl #22
    4a20:	000000fd 	strdeq	r0, [r0], -sp
    4a24:	04d11878 	ldrbeq	r1, [r1], #2168	; 0x878
    4a28:	8c050000 	stchi	0, cr0, [r5], {-0}
    4a2c:	080e1002 	stmdaeq	lr, {r1, ip}
    4a30:	18800000 	stmne	r0, {}	; <UNPREDICTABLE>
    4a34:	0000024c 	andeq	r0, r0, ip, asr #4
    4a38:	10028d05 	andne	r8, r2, r5, lsl #26
    4a3c:	0000081e 	andeq	r0, r0, lr, lsl r8
    4a40:	047f1888 	ldrbteq	r1, [pc], #-2184	; 4a48 <_start-0x35b8>
    4a44:	8e050000 	cdphi	0, 0, cr0, cr5, cr0, {0}
    4a48:	00250f02 	eoreq	r0, r5, r2, lsl #30
    4a4c:	18a00000 	stmiane	r0!, {}	; <UNPREDICTABLE>
    4a50:	0000018c 	andeq	r0, r0, ip, lsl #3
    4a54:	16028f05 	strne	r8, [r2], -r5, lsl #30
    4a58:	000000fd 	strdeq	r0, [r0], -sp
    4a5c:	009d18a4 	addseq	r1, sp, r4, lsr #17
    4a60:	90050000 	andls	r0, r5, r0
    4a64:	00fd1602 	rscseq	r1, sp, r2, lsl #12
    4a68:	18ac0000 	stmiane	ip!, {}	; <UNPREDICTABLE>
    4a6c:	0000017b 	andeq	r0, r0, fp, ror r1
    4a70:	16029105 	strne	r9, [r2], -r5, lsl #2
    4a74:	000000fd 	strdeq	r0, [r0], -sp
    4a78:	004a18b4 	strheq	r1, [sl], #-132	; 0xffffff7c
    4a7c:	92050000 	andls	r0, r5, #0
    4a80:	00fd1602 	rscseq	r1, sp, r2, lsl #12
    4a84:	18bc0000 	ldmne	ip!, {}	; <UNPREDICTABLE>
    4a88:	00000059 	andeq	r0, r0, r9, asr r0
    4a8c:	16029305 	strne	r9, [r2], -r5, lsl #6
    4a90:	000000fd 	strdeq	r0, [r0], -sp
    4a94:	038118c4 	orreq	r1, r1, #196, 16	; 0xc40000
    4a98:	94050000 	strls	r0, [r5], #-0
    4a9c:	00250802 	eoreq	r0, r5, r2, lsl #16
    4aa0:	00cc0000 	sbceq	r0, ip, r0
    4aa4:	00011d0a 	andeq	r1, r1, sl, lsl #26
    4aa8:	00080e00 	andeq	r0, r8, r0, lsl #28
    4aac:	002c0b00 	eoreq	r0, ip, r0, lsl #22
    4ab0:	00190000 	andseq	r0, r9, r0
    4ab4:	00011d0a 	andeq	r1, r1, sl, lsl #26
    4ab8:	00081e00 	andeq	r1, r8, r0, lsl #28
    4abc:	002c0b00 	eoreq	r0, ip, r0, lsl #22
    4ac0:	00070000 	andeq	r0, r7, r0
    4ac4:	00011d0a 	andeq	r1, r1, sl, lsl #26
    4ac8:	00082e00 	andeq	r2, r8, r0, lsl #28
    4acc:	002c0b00 	eoreq	r0, ip, r0, lsl #22
    4ad0:	00170000 	andseq	r0, r7, r0
    4ad4:	9905f01b 	stmdbls	r5, {r0, r1, r3, r4, ip, sp, lr, pc}
    4ad8:	08550702 	ldmdaeq	r5, {r1, r8, r9, sl}^
    4adc:	ad180000 	ldcge	0, cr0, [r8, #-0]
    4ae0:	05000002 	streq	r0, [r0, #-2]
    4ae4:	551b029c 	ldrpl	r0, [fp, #-668]	; 0xfffffd64
    4ae8:	00000008 	andeq	r0, r0, r8
    4aec:	0004c818 	andeq	ip, r4, r8, lsl r8
    4af0:	029d0500 	addseq	r0, sp, #0, 10
    4af4:	00086518 	andeq	r6, r8, r8, lsl r5
    4af8:	0a007800 	beq	22b00 <__bss_end__+0x18b00>
    4afc:	00000305 	andeq	r0, r0, r5, lsl #6
    4b00:	00000865 	andeq	r0, r0, r5, ror #16
    4b04:	00002c0b 	andeq	r2, r0, fp, lsl #24
    4b08:	0a001d00 	beq	bf10 <__bss_end__+0x1f10>
    4b0c:	0000002c 	andeq	r0, r0, ip, lsr #32
    4b10:	00000875 	andeq	r0, r0, r5, ror r8
    4b14:	00002c0b 	andeq	r2, r0, fp, lsl #24
    4b18:	1c001d00 	stcne	13, cr1, [r0], {-0}
    4b1c:	027e05f0 	rsbseq	r0, lr, #240, 10	; 0x3c000000
    4b20:	00089a03 	andeq	r9, r8, r3, lsl #20
    4b24:	041b1d00 	ldreq	r1, [fp], #-3328	; 0xfffff300
    4b28:	95050000 	strls	r0, [r5, #-0]
    4b2c:	06e90b02 	strbteq	r0, [r9], r2, lsl #22
    4b30:	f31d0000 	vhadd.u16	d0, d13, d0
    4b34:	05000004 	streq	r0, [r0, #-4]
    4b38:	2e0b029e 	mcrcs	2, 0, r0, cr11, cr14, {4}
    4b3c:	00000008 	andeq	r0, r0, r8
    4b40:	00011d0a 	andeq	r1, r1, sl, lsl #26
    4b44:	0008aa00 	andeq	sl, r8, r0, lsl #20
    4b48:	002c0b00 	eoreq	r0, ip, r0, lsl #22
    4b4c:	00180000 	andseq	r0, r8, r0
    4b50:	00009206 	andeq	r9, r0, r6, lsl #4
    4b54:	aa040500 	bge	105f5c <__bss_end__+0xfbf5c>
    4b58:	1e000008 	cdpne	0, 0, cr0, cr0, cr8, {0}
    4b5c:	000008c0 	andeq	r0, r0, r0, asr #17
    4b60:	00046c16 	andeq	r6, r4, r6, lsl ip
    4b64:	04050000 	streq	r0, [r5], #-0
    4b68:	000008b5 			; <UNDEFINED> instruction: 0x000008b5
    4b6c:	018f0405 	orreq	r0, pc, r5, lsl #8
    4b70:	d71e0000 	ldrle	r0, [lr, -r0]
    4b74:	16000008 	strne	r0, [r0], -r8
    4b78:	00000025 	andeq	r0, r0, r5, lsr #32
    4b7c:	dd040500 	cfstr32le	mvfx0, [r4, #-0]
    4b80:	05000008 	streq	r0, [r0, #-8]
    4b84:	0008cc04 	andeq	ip, r8, r4, lsl #24
    4b88:	064e0a00 	strbeq	r0, [lr], -r0, lsl #20
    4b8c:	08f30000 	ldmeq	r3!, {}^	; <UNPREDICTABLE>
    4b90:	2c0b0000 	stccs	0, cr0, [fp], {-0}
    4b94:	02000000 	andeq	r0, r0, #0
    4b98:	04931f00 	ldreq	r1, [r3], #3840	; 0xf00
    4b9c:	2e050000 	cdpcs	0, 0, cr0, cr5, cr0, {0}
    4ba0:	046c1703 	strbteq	r1, [ip], #-1795	; 0xfffff8fd
    4ba4:	8c1f0000 	ldchi	0, cr0, [pc], {-0}
    4ba8:	05000004 	streq	r0, [r0, #-4]
    4bac:	721d032f 	andsvc	r0, sp, #-1140850688	; 0xbc000000
    4bb0:	15000004 	strne	r0, [r0, #-4]
    4bb4:	00000025 	andeq	r0, r0, r5, lsr #32
    4bb8:	0000091c 	andeq	r0, r0, ip, lsl r9
    4bbc:	00002516 	andeq	r2, r0, r6, lsl r5
    4bc0:	df200000 	svcle	0x00200000
    4bc4:	06000001 	streq	r0, [r0], -r1
    4bc8:	09280e1d 	stmdbeq	r8!, {r0, r2, r3, r4, r9, sl, fp}
    4bcc:	04050000 	streq	r0, [r5], #-0
    4bd0:	0000090d 	andeq	r0, r0, sp, lsl #18
    4bd4:	00002515 	andeq	r2, r0, r5, lsl r5
    4bd8:	00093d00 	andeq	r3, r9, r0, lsl #26
    4bdc:	05e41600 	strbeq	r1, [r4, #1536]!	; 0x600
    4be0:	20000000 	andcs	r0, r0, r0
    4be4:	0000076d 	andeq	r0, r0, sp, ror #14
    4be8:	490e2206 	stmdbmi	lr, {r1, r2, r9, sp}
    4bec:	05000009 	streq	r0, [r0, #-9]
    4bf0:	00092e04 	andeq	r2, r9, r4, lsl #28
    4bf4:	091c2100 	ldmdbeq	ip, {r8, sp}
    4bf8:	06010000 	streq	r0, [r1], -r0
    4bfc:	1c030507 	cfstr32ne	mvfx0, [r3], {7}
    4c00:	22000096 	andcs	r0, r0, #150	; 0x96
    4c04:	0000072d 	andeq	r0, r0, sp, lsr #14
    4c08:	d0060b01 	andle	r0, r6, r1, lsl #22
    4c0c:	1000008a 	andne	r0, r0, sl, lsl #1
    4c10:	01000000 	mrseq	r0, (UNDEF: 0)
    4c14:	0009819c 	muleq	r9, ip, r1
    4c18:	70662300 	rsbvc	r2, r6, r0, lsl #6
    4c1c:	190b0100 	stmdbne	fp, {r8}
    4c20:	00000928 	andeq	r0, r0, r8, lsr #18
    4c24:	24005001 	strcs	r5, [r0], #-1
    4c28:	000001f7 	strdeq	r0, [r0], -r7
    4c2c:	b8060801 	stmdalt	r6, {r0, fp}
    4c30:	1800008a 	stmdane	r0, {r1, r3, r7}
    4c34:	01000000 	mrseq	r0, (UNDEF: 0)
    4c38:	0744259c 			; <UNDEFINED> instruction: 0x0744259c
    4c3c:	03010000 	movweq	r0, #4096	; 0x1000
    4c40:	0000250c 	andeq	r2, r0, ip, lsl #10
    4c44:	008aa400 	addeq	sl, sl, r0, lsl #8
    4c48:	00001400 	andeq	r1, r0, r0, lsl #8
    4c4c:	d09c0100 	addsle	r0, ip, r0, lsl #2
    4c50:	26000009 	strcs	r0, [r0], -r9
    4c54:	03010063 	movweq	r0, #4195	; 0x1063
    4c58:	00002521 	andeq	r2, r0, r1, lsr #10
    4c5c:	000aa800 	andeq	sl, sl, r0, lsl #16
    4c60:	000aa400 	andeq	sl, sl, r0, lsl #8
    4c64:	8ab02700 	bhi	fec0e86c <__bss_end__+0xfec0486c>
    4c68:	09d00000 	ldmibeq	r0, {}^	; <UNPREDICTABLE>
    4c6c:	01280000 			; <UNDEFINED> instruction: 0x01280000
    4c70:	00740250 	rsbseq	r0, r4, r0, asr r2
    4c74:	3a290000 	bcc	a44c7c <__bss_end__+0xa3ac7c>
    4c78:	3a000007 	bcc	4c9c <_start-0x3364>
    4c7c:	06000007 	streq	r0, [r0], -r7
    4c80:	8300063c 	movwhi	r0, #1596	; 0x63c
    4c84:	04000009 	streq	r0, [r0], #-9
    4c88:	000ebd00 	andeq	fp, lr, r0, lsl #26
    4c8c:	02010400 	andeq	r0, r1, #0, 8
    4c90:	0c000003 	stceq	0, cr0, [r0], {3}
    4c94:	00000772 	andeq	r0, r0, r2, ror r7
    4c98:	000006c6 	andeq	r0, r0, r6, asr #13
    4c9c:	00008ae0 	andeq	r8, r0, r0, ror #21
    4ca0:	00000034 	andeq	r0, r0, r4, lsr r0
    4ca4:	00000de0 	andeq	r0, r0, r0, ror #27
    4ca8:	69050402 	stmdbvs	r5, {r1, sl}
    4cac:	0300746e 	movweq	r7, #1134	; 0x46e
    4cb0:	00740704 	rsbseq	r0, r4, r4, lsl #14
    4cb4:	01030000 	mrseq	r0, (UNDEF: 3)
    4cb8:	0002f106 	andeq	pc, r2, r6, lsl #2
    4cbc:	05020300 	streq	r0, [r2, #-768]	; 0xfffffd00
    4cc0:	0000038a 	andeq	r0, r0, sl, lsl #7
    4cc4:	ba050403 	blt	145cd8 <__bss_end__+0x13bcd8>
    4cc8:	03000000 	movweq	r0, #0
    4ccc:	00b50508 	adcseq	r0, r5, r8, lsl #10
    4cd0:	01030000 	mrseq	r0, (UNDEF: 3)
    4cd4:	0002ef08 	andeq	lr, r2, r8, lsl #30
    4cd8:	07020300 	streq	r0, [r2, -r0, lsl #6]
    4cdc:	00000230 	andeq	r0, r0, r0, lsr r2
    4ce0:	6f070403 	svcvs	0x00070403
    4ce4:	03000000 	movweq	r0, #0
    4ce8:	006a0708 	rsbeq	r0, sl, r8, lsl #14
    4cec:	73040000 	movwvc	r0, #16384	; 0x4000
    4cf0:	02000002 	andeq	r0, r0, #2
    4cf4:	00771922 	rsbseq	r1, r7, r2, lsr #18
    4cf8:	04050000 	streq	r0, [r5], #-0
    4cfc:	0000007d 	andeq	r0, r0, sp, ror r0
    4d00:	00043006 	andeq	r3, r4, r6
    4d04:	02d00400 	sbcseq	r0, r0, #0, 8
    4d08:	2c030000 	stccs	0, cr0, [r3], {-0}
    4d0c:	0000410e 	andeq	r4, r0, lr, lsl #2
    4d10:	04450400 	strbeq	r0, [r5], #-1024	; 0xfffffc00
    4d14:	72030000 	andvc	r0, r3, #0
    4d18:	0000410e 	andeq	r4, r0, lr, lsl #2
    4d1c:	027b0700 	rsbseq	r0, fp, #0, 14
    4d20:	5e040000 	cdppl	0, 0, cr0, cr4, cr0, {0}
    4d24:	002c1701 	eoreq	r1, ip, r1, lsl #14
    4d28:	04080000 	streq	r0, [r8], #-0
    4d2c:	c903a603 	stmdbgt	r3, {r0, r1, r9, sl, sp, pc}
    4d30:	09000000 	stmdbeq	r0, {}	; <UNPREDICTABLE>
    4d34:	0000026d 	andeq	r0, r0, sp, ror #4
    4d38:	9a0ca803 	bls	32ed4c <__bss_end__+0x324d4c>
    4d3c:	09000000 	stmdbeq	r0, {}	; <UNPREDICTABLE>
    4d40:	000001f0 	strdeq	r0, [r0], -r0	; <UNPREDICTABLE>
    4d44:	c913a903 	ldmdbgt	r3, {r0, r1, r8, fp, sp, pc}
    4d48:	00000000 	andeq	r0, r0, r0
    4d4c:	00004f0a 	andeq	r4, r0, sl, lsl #30
    4d50:	0000d900 	andeq	sp, r0, r0, lsl #18
    4d54:	002c0b00 	eoreq	r0, ip, r0, lsl #22
    4d58:	00030000 	andeq	r0, r3, r0
    4d5c:	a303080c 	movwge	r0, #14348	; 0x380c
    4d60:	0000fd09 	andeq	pc, r0, r9, lsl #26
    4d64:	04280d00 	strteq	r0, [r8], #-3328	; 0xfffff300
    4d68:	a5030000 	strge	r0, [r3, #-0]
    4d6c:	00002507 	andeq	r2, r0, r7, lsl #10
    4d70:	370d0000 	strcc	r0, [sp, -r0]
    4d74:	03000004 	movweq	r0, #4
    4d78:	00a705aa 	adceq	r0, r7, sl, lsr #11
    4d7c:	00040000 	andeq	r0, r4, r0
    4d80:	0003b204 	andeq	fp, r3, r4, lsl #4
    4d84:	03ab0300 			; <UNDEFINED> instruction: 0x03ab0300
    4d88:	000000d9 	ldrdeq	r0, [r0], -r9
    4d8c:	0001ad04 	andeq	sl, r1, r4, lsl #26
    4d90:	1baf0300 	blne	febc5998 <__bss_end__+0xfebbb998>
    4d94:	0000006b 	andeq	r0, r0, fp, rrx
    4d98:	0405040e 	streq	r0, [r5], #-1038	; 0xfffffbf2
    4d9c:	0000011d 	andeq	r0, r0, sp, lsl r1
    4da0:	f8080103 			; <UNDEFINED> instruction: 0xf8080103
    4da4:	0f000002 	svceq	0x00000002
    4da8:	0000011d 	andeq	r0, r0, sp, lsl r1
    4dac:	00047704 	andeq	r7, r4, r4, lsl #14
    4db0:	19160500 	ldmdbne	r6, {r8, sl}
    4db4:	0000005d 	andeq	r0, r0, sp, asr r0
    4db8:	0001be10 	andeq	fp, r1, r0, lsl lr
    4dbc:	2f051800 	svccs	0x00051800
    4dc0:	00018f08 	andeq	r8, r1, r8, lsl #30
    4dc4:	03d30d00 	bicseq	r0, r3, #0, 26
    4dc8:	31050000 	mrscc	r0, (UNDEF: 5)
    4dcc:	00018f13 	andeq	r8, r1, r3, lsl pc
    4dd0:	5f110000 	svcpl	0x00110000
    4dd4:	3205006b 	andcc	r0, r5, #107	; 0x6b
    4dd8:	00002507 	andeq	r2, r0, r7, lsl #10
    4ddc:	130d0400 	movwne	r0, #54272	; 0xd400
    4de0:	05000004 	streq	r0, [r0, #-4]
    4de4:	00250b32 	eoreq	r0, r5, r2, lsr fp
    4de8:	0d080000 	stceq	0, cr0, [r8, #-0]
    4dec:	000001a7 	andeq	r0, r0, r7, lsr #3
    4df0:	25143205 	ldrcs	r3, [r4, #-517]	; 0xfffffdfb
    4df4:	0c000000 	stceq	0, cr0, [r0], {-0}
    4df8:	0004b30d 	andeq	fp, r4, sp, lsl #6
    4dfc:	1b320500 	blne	c86204 <__bss_end__+0xc7c204>
    4e00:	00000025 	andeq	r0, r0, r5, lsr #32
    4e04:	785f1110 	ldmdavc	pc, {r4, r8, ip}^	; <UNPREDICTABLE>
    4e08:	0b330500 	bleq	cc6210 <__bss_end__+0xcbc210>
    4e0c:	00000195 	muleq	r0, r5, r1
    4e10:	04050014 	streq	r0, [r5], #-20	; 0xffffffec
    4e14:	00000135 	andeq	r0, r0, r5, lsr r1
    4e18:	0001290a 	andeq	r2, r1, sl, lsl #18
    4e1c:	0001a500 	andeq	sl, r1, r0, lsl #10
    4e20:	002c0b00 	eoreq	r0, ip, r0, lsl #22
    4e24:	00000000 	andeq	r0, r0, r0
    4e28:	0001eb10 	andeq	lr, r1, r0, lsl fp
    4e2c:	37052400 	strcc	r2, [r5, -r0, lsl #8]
    4e30:	00022808 	andeq	r2, r2, r8, lsl #16
    4e34:	00ac0d00 	adceq	r0, ip, r0, lsl #26
    4e38:	39050000 	stmdbcc	r5, {}	; <UNPREDICTABLE>
    4e3c:	00002509 	andeq	r2, r0, r9, lsl #10
    4e40:	4d0d0000 	stcmi	0, cr0, [sp, #-0]
    4e44:	05000004 	streq	r0, [r0, #-4]
    4e48:	0025093a 	eoreq	r0, r5, sl, lsr r9
    4e4c:	0d040000 	stceq	0, cr0, [r4, #-0]
    4e50:	000000cf 	andeq	r0, r0, pc, asr #1
    4e54:	25093b05 	strcs	r3, [r9, #-2821]	; 0xfffff4fb
    4e58:	08000000 	stmdaeq	r0, {}	; <UNPREDICTABLE>
    4e5c:	0005340d 	andeq	r3, r5, sp, lsl #8
    4e60:	093c0500 	ldmdbeq	ip!, {r8, sl}
    4e64:	00000025 	andeq	r0, r0, r5, lsr #32
    4e68:	02b40d0c 	adcseq	r0, r4, #12, 26	; 0x300
    4e6c:	3d050000 	stccc	0, cr0, [r5, #-0]
    4e70:	00002509 	andeq	r2, r0, r9, lsl #10
    4e74:	960d1000 	strls	r1, [sp], -r0
    4e78:	05000002 	streq	r0, [r0, #-2]
    4e7c:	0025093e 	eoreq	r0, r5, lr, lsr r9
    4e80:	0d140000 	ldceq	0, cr0, [r4, #-0]
    4e84:	000004b8 			; <UNDEFINED> instruction: 0x000004b8
    4e88:	25093f05 	strcs	r3, [r9, #-3845]	; 0xfffff0fb
    4e8c:	18000000 	stmdane	r0, {}	; <UNPREDICTABLE>
    4e90:	0003940d 	andeq	r9, r3, sp, lsl #8
    4e94:	09400500 	stmdbeq	r0, {r8, sl}^
    4e98:	00000025 	andeq	r0, r0, r5, lsr #32
    4e9c:	04fb0d1c 	ldrbteq	r0, [fp], #3356	; 0xd1c
    4ea0:	41050000 	mrsmi	r0, (UNDEF: 5)
    4ea4:	00002509 	andeq	r2, r0, r9, lsl #10
    4ea8:	12002000 	andne	r2, r0, #0
    4eac:	0000010f 	andeq	r0, r0, pc, lsl #2
    4eb0:	4a050108 	bmi	1452d8 <__bss_end__+0x13b2d8>
    4eb4:	00026d08 	andeq	r6, r2, r8, lsl #26
    4eb8:	019a0d00 	orrseq	r0, sl, r0, lsl #26
    4ebc:	4b050000 	blmi	144ec4 <__bss_end__+0x13aec4>
    4ec0:	00026d0a 	andeq	r6, r2, sl, lsl #26
    4ec4:	000d0000 	andeq	r0, sp, r0
    4ec8:	05000000 	streq	r0, [r0, #-0]
    4ecc:	026d094c 	rsbeq	r0, sp, #76, 18	; 0x130000
    4ed0:	13800000 	orrne	r0, r0, #0
    4ed4:	00000469 	andeq	r0, r0, r9, ror #8
    4ed8:	290a4e05 	stmdbcs	sl, {r0, r2, r9, sl, fp, lr}
    4edc:	00000001 	andeq	r0, r0, r1
    4ee0:	01341301 	teqeq	r4, r1, lsl #6
    4ee4:	51050000 	mrspl	r0, (UNDEF: 5)
    4ee8:	0001290a 	andeq	r2, r1, sl, lsl #18
    4eec:	00010400 	andeq	r0, r1, r0, lsl #8
    4ef0:	0001150a 	andeq	r1, r1, sl, lsl #10
    4ef4:	00027d00 	andeq	r7, r2, r0, lsl #26
    4ef8:	002c0b00 	eoreq	r0, ip, r0, lsl #22
    4efc:	001f0000 	andseq	r0, pc, r0
    4f00:	0002bd12 	andeq	fp, r2, r2, lsl sp
    4f04:	05019000 	streq	r9, [r1, #-0]
    4f08:	02c0085d 	sbceq	r0, r0, #6094848	; 0x5d0000
    4f0c:	d30d0000 	movwle	r0, #53248	; 0xd000
    4f10:	05000003 	streq	r0, [r0, #-3]
    4f14:	02c0125e 	sbceq	r1, r0, #-536870907	; 0xe0000005
    4f18:	0d000000 	stceq	0, cr0, [r0, #-0]
    4f1c:	000003eb 	andeq	r0, r0, fp, ror #7
    4f20:	25065f05 	strcs	r5, [r6, #-3845]	; 0xfffff0fb
    4f24:	04000000 	streq	r0, [r0], #-0
    4f28:	0001a20d 	andeq	sl, r1, sp, lsl #4
    4f2c:	09610500 	stmdbeq	r1!, {r8, sl}^
    4f30:	000002c6 	andeq	r0, r0, r6, asr #5
    4f34:	010f0d08 	tsteq	pc, r8, lsl #26
    4f38:	62050000 	andvs	r0, r5, #0
    4f3c:	0002281e 	andeq	r2, r2, lr, lsl r8
    4f40:	05008800 	streq	r8, [r0, #-2048]	; 0xfffff800
    4f44:	00027d04 	andeq	r7, r2, r4, lsl #26
    4f48:	02d60a00 	sbcseq	r0, r6, #0, 20
    4f4c:	02d60000 	sbcseq	r0, r6, #0
    4f50:	2c0b0000 	stccs	0, cr0, [fp], {-0}
    4f54:	1f000000 	svcne	0x00000000
    4f58:	dc040500 	cfstr32le	mvfx0, [r4], {-0}
    4f5c:	14000002 	strne	r0, [r0], #-2
    4f60:	00039e10 	andeq	r9, r3, r0, lsl lr
    4f64:	75050800 	strvc	r0, [r5, #-2048]	; 0xfffff800
    4f68:	00030508 	andeq	r0, r3, r8, lsl #10
    4f6c:	00c90d00 	sbceq	r0, r9, r0, lsl #26
    4f70:	76050000 	strvc	r0, [r5], -r0
    4f74:	00030511 	andeq	r0, r3, r1, lsl r5
    4f78:	1b0d0000 	blne	344f80 <__bss_end__+0x33af80>
    4f7c:	05000000 	streq	r0, [r0, #-0]
    4f80:	00250677 	eoreq	r0, r5, r7, ror r6
    4f84:	00040000 	andeq	r0, r4, r0
    4f88:	004f0405 	subeq	r0, pc, r5, lsl #8
    4f8c:	bd100000 	ldclt	0, cr0, [r0, #-0]
    4f90:	68000003 	stmdavs	r0, {r0, r1}
    4f94:	4e08b505 	cfsh32mi	mvfx11, mvfx8, #5
    4f98:	11000004 	tstne	r0, r4
    4f9c:	0500705f 	streq	r7, [r0, #-95]	; 0xffffffa1
    4fa0:	030512b6 	movweq	r1, #21174	; 0x52b6
    4fa4:	11000000 	mrsne	r0, (UNDEF: 0)
    4fa8:	0500725f 	streq	r7, [r0, #-607]	; 0xfffffda1
    4fac:	002507b7 	strhteq	r0, [r5], -r7
    4fb0:	11040000 	mrsne	r0, (UNDEF: 4)
    4fb4:	0500775f 	streq	r7, [r0, #-1887]	; 0xfffff8a1
    4fb8:	002507b8 	strhteq	r0, [r5], -r8
    4fbc:	0d080000 	stceq	0, cr0, [r8, #-0]
    4fc0:	0000012d 	andeq	r0, r0, sp, lsr #2
    4fc4:	3a09b905 	bcc	2733e0 <__bss_end__+0x2693e0>
    4fc8:	0c000000 	stceq	0, cr0, [r0], {-0}
    4fcc:	0002160d 	andeq	r1, r2, sp, lsl #12
    4fd0:	09ba0500 	ldmibeq	sl!, {r8, sl}
    4fd4:	0000003a 	andeq	r0, r0, sl, lsr r0
    4fd8:	625f110e 	subsvs	r1, pc, #-2147483645	; 0x80000003
    4fdc:	bb050066 	bllt	14517c <__bss_end__+0x13b17c>
    4fe0:	0002dd11 	andeq	sp, r2, r1, lsl sp
    4fe4:	890d1000 	stmdbhi	sp, {ip}
    4fe8:	05000000 	streq	r0, [r0, #-0]
    4fec:	002507bc 	strhteq	r0, [r5], -ip
    4ff0:	0d180000 	ldceq	0, cr0, [r8, #-0]
    4ff4:	0000011d 	andeq	r0, r0, sp, lsl r1
    4ff8:	150ac305 	strne	ip, [sl, #-773]	; 0xfffffcfb
    4ffc:	1c000001 	stcne	0, cr0, [r0], {1}
    5000:	000b290d 	andeq	r2, fp, sp, lsl #18
    5004:	1dc50500 	cfstr64ne	mvdx0, [r5]
    5008:	000005c0 	andeq	r0, r0, r0, asr #11
    500c:	061e0d20 	ldreq	r0, [lr], -r0, lsr #26
    5010:	c7050000 	strgt	r0, [r5, -r0]
    5014:	0005ea1d 	andeq	lr, r5, sp, lsl sl
    5018:	3f0d2400 	svccc	0x000d2400
    501c:	05000004 	streq	r0, [r0, #-4]
    5020:	060e0dca 	streq	r0, [lr], -sl, asr #27
    5024:	0d280000 	stceq	0, cr0, [r8, #-0]
    5028:	00000515 	andeq	r0, r0, r5, lsl r5
    502c:	2809cb05 	stmdacs	r9, {r0, r2, r8, r9, fp, lr, pc}
    5030:	2c000006 	stccs	0, cr0, [r0], {6}
    5034:	62755f11 	rsbsvs	r5, r5, #17, 30	; 0x44
    5038:	11ce0500 	bicne	r0, lr, r0, lsl #10
    503c:	000002dd 	ldrdeq	r0, [r0], -sp
    5040:	755f1130 	ldrbvc	r1, [pc, #-304]	; 4f18 <_start-0x30e8>
    5044:	cf050070 	svcgt	0x00050070
    5048:	00030512 	andeq	r0, r3, r2, lsl r5
    504c:	5f113800 	svcpl	0x00113800
    5050:	05007275 	streq	r7, [r0, #-629]	; 0xfffffd8b
    5054:	002507d0 	ldrdeq	r0, [r5], -r0	; <UNPREDICTABLE>
    5058:	0d3c0000 	ldceq	0, cr0, [ip, #-0]
    505c:	000000c3 	andeq	r0, r0, r3, asr #1
    5060:	2e11d305 	cdpcs	3, 1, cr13, cr1, cr5, {0}
    5064:	40000006 	andmi	r0, r0, r6
    5068:	0004ed0d 	andeq	lr, r4, sp, lsl #26
    506c:	11d40500 	bicsne	r0, r4, r0, lsl #10
    5070:	0000063e 	andeq	r0, r0, lr, lsr r6
    5074:	6c5f1143 	ldfvse	f1, [pc], {67}	; 0x43
    5078:	d7050062 	strle	r0, [r5, -r2, rrx]
    507c:	0002dd11 	andeq	sp, r2, r1, lsl sp
    5080:	4b0d4400 	blmi	356088 <__bss_end__+0x34c088>
    5084:	05000001 	streq	r0, [r0, #-1]
    5088:	002507da 	ldrdeq	r0, [r5], -sl	; <UNPREDICTABLE>
    508c:	0d4c0000 	stcleq	0, cr0, [ip, #-0]
    5090:	0000015c 	andeq	r0, r0, ip, asr r1
    5094:	820adb05 	andhi	sp, sl, #5120	; 0x1400
    5098:	50000000 	andpl	r0, r0, r0
    509c:	000aca0d 	andeq	ip, sl, sp, lsl #20
    50a0:	12de0500 	sbcsne	r0, lr, #0, 10
    50a4:	0000046c 	andeq	r0, r0, ip, ror #8
    50a8:	04310d54 	ldrteq	r0, [r1], #-3412	; 0xfffff2ac
    50ac:	e2050000 	and	r0, r5, #0
    50b0:	0001090c 	andeq	r0, r1, ip, lsl #18
    50b4:	c50d5800 	strgt	r5, [sp, #-2048]	; 0xfffff800
    50b8:	05000003 	streq	r0, [r0, #-3]
    50bc:	00fd0ee4 	rscseq	r0, sp, r4, ror #29
    50c0:	0d5c0000 	ldcleq	0, cr0, [ip, #-0]
    50c4:	0000028e 	andeq	r0, r0, lr, lsl #5
    50c8:	2509e505 	strcs	lr, [r9, #-1285]	; 0xfffffafb
    50cc:	64000000 	strvs	r0, [r0], #-0
    50d0:	00251500 	eoreq	r1, r5, r0, lsl #10
    50d4:	046c0000 	strbteq	r0, [ip], #-0
    50d8:	6c160000 	ldcvs	0, cr0, [r6], {-0}
    50dc:	16000004 	strne	r0, [r0], -r4
    50e0:	00000115 	andeq	r0, r0, r5, lsl r1
    50e4:	00011716 	andeq	r1, r1, r6, lsl r7
    50e8:	00251600 	eoreq	r1, r5, r0, lsl #12
    50ec:	05000000 	streq	r0, [r0, #-0]
    50f0:	00047704 	andeq	r7, r4, r4, lsl #14
    50f4:	046c0f00 	strbteq	r0, [ip], #-3840	; 0xfffff100
    50f8:	1b170000 	blne	5c5100 <__bss_end__+0x5bb100>
    50fc:	28000004 	stmdacs	r0, {r2}
    5100:	02600504 	rsbeq	r0, r0, #4, 10	; 0x1000000
    5104:	0005c008 	andeq	ip, r5, r8
    5108:	03831800 	orreq	r1, r3, #0, 16
    510c:	62050000 	andvs	r0, r5, #0
    5110:	00250702 	eoreq	r0, r5, r2, lsl #14
    5114:	18000000 	stmdane	r0, {}	; <UNPREDICTABLE>
    5118:	0000013c 	andeq	r0, r0, ip, lsr r1
    511c:	0b026705 	bleq	9ed38 <__bss_end__+0x94d38>
    5120:	0000069a 	muleq	r0, sl, r6
    5124:	02061804 	andeq	r1, r6, #4, 16	; 0x40000
    5128:	67050000 	strvs	r0, [r5, -r0]
    512c:	069a1402 	ldreq	r1, [sl], r2, lsl #8
    5130:	18080000 	stmdane	r8, {}	; <UNPREDICTABLE>
    5134:	000001b6 			; <UNDEFINED> instruction: 0x000001b6
    5138:	1e026705 	cdpne	7, 0, cr6, cr2, cr5, {0}
    513c:	0000069a 	muleq	r0, sl, r6
    5140:	03e6180c 	mvneq	r1, #12, 16	; 0xc0000
    5144:	69050000 	stmdbvs	r5, {}	; <UNPREDICTABLE>
    5148:	00250802 	eoreq	r0, r5, r2, lsl #16
    514c:	18100000 	ldmdane	r0, {}	; <UNPREDICTABLE>
    5150:	00000037 	andeq	r0, r0, r7, lsr r0
    5154:	08026a05 	stmdaeq	r2, {r0, r2, r9, fp, sp, lr}
    5158:	0000089a 	muleq	r0, sl, r8
    515c:	03fa1814 	mvnseq	r1, #20, 16	; 0x140000
    5160:	6d050000 	stcvs	0, cr0, [r5, #-0]
    5164:	00250702 	eoreq	r0, r5, r2, lsl #14
    5168:	18300000 	ldmdane	r0!, {}	; <UNPREDICTABLE>
    516c:	00000a06 	andeq	r0, r0, r6, lsl #20
    5170:	16026e05 	strne	r6, [r2], -r5, lsl #28
    5174:	000008af 	andeq	r0, r0, pc, lsr #17
    5178:	02c51834 	sbceq	r1, r5, #52, 16	; 0x340000
    517c:	70050000 	andvc	r0, r5, r0
    5180:	00250702 	eoreq	r0, r5, r2, lsl #14
    5184:	18380000 	ldmdane	r8!, {}	; <UNPREDICTABLE>
    5188:	000003f0 	strdeq	r0, [r0], -r0	; <UNPREDICTABLE>
    518c:	0a027205 	beq	a19a8 <__bss_end__+0x979a8>
    5190:	000008c0 	andeq	r0, r0, r0, asr #17
    5194:	0265183c 	rsbeq	r1, r5, #60, 16	; 0x3c0000
    5198:	75050000 	strvc	r0, [r5, #-0]
    519c:	018f1302 	orreq	r1, pc, r2, lsl #6
    51a0:	18400000 	stmdane	r0, {}^	; <UNPREDICTABLE>
    51a4:	000001d5 	ldrdeq	r0, [r0], -r5
    51a8:	07027605 	streq	r7, [r2, -r5, lsl #12]
    51ac:	00000025 	andeq	r0, r0, r5, lsr #32
    51b0:	052f1844 	streq	r1, [pc, #-2116]!	; 4974 <_start-0x368c>
    51b4:	77050000 	strvc	r0, [r5, -r0]
    51b8:	018f1302 	orreq	r1, pc, r2, lsl #6
    51bc:	18480000 	stmdane	r8, {}^	; <UNPREDICTABLE>
    51c0:	000002d7 	ldrdeq	r0, [r0], -r7
    51c4:	14027805 	strne	r7, [r2], #-2053	; 0xfffff7fb
    51c8:	000008c6 	andeq	r0, r0, r6, asr #17
    51cc:	020e184c 	andeq	r1, lr, #76, 16	; 0x4c0000
    51d0:	7b050000 	blvc	1451d8 <__bss_end__+0x13b1d8>
    51d4:	00250702 	eoreq	r0, r5, r2, lsl #14
    51d8:	18500000 	ldmdane	r0, {}^	; <UNPREDICTABLE>
    51dc:	00000154 	andeq	r0, r0, r4, asr r1
    51e0:	09027c05 	stmdbeq	r2, {r0, r2, sl, fp, ip, sp, lr}
    51e4:	00000117 	andeq	r0, r0, r7, lsl r1
    51e8:	02fd1854 	rscseq	r1, sp, #84, 16	; 0x540000
    51ec:	9f050000 	svcls	0x00050000
    51f0:	08750702 	ldmdaeq	r5!, {r1, r8, r9, sl}^
    51f4:	19580000 	ldmdbne	r8, {}^	; <UNPREDICTABLE>
    51f8:	000002bd 			; <UNDEFINED> instruction: 0x000002bd
    51fc:	1302a305 	movwne	sl, #8965	; 0x2305
    5200:	000002c0 	andeq	r0, r0, r0, asr #5
    5204:	43190148 	tstmi	r9, #72, 2
    5208:	05000002 	streq	r0, [r0, #-2]
    520c:	7d1202a4 	lfmvc	f0, 4, [r2, #-656]	; 0xfffffd70
    5210:	4c000002 	stcmi	0, cr0, [r0], {2}
    5214:	04db1901 	ldrbeq	r1, [fp], #2305	; 0x901
    5218:	a8050000 	stmdage	r5, {}	; <UNPREDICTABLE>
    521c:	08d70c02 	ldmeq	r7, {r1, sl, fp}^
    5220:	02dc0000 	sbcseq	r0, ip, #0
    5224:	00012519 	andeq	r2, r1, r9, lsl r5
    5228:	02ad0500 	adceq	r0, sp, #0, 10
    522c:	00065b10 	andeq	r5, r6, r0, lsl fp
    5230:	1902e000 	stmdbne	r2, {sp, lr, pc}
    5234:	0000010a 	andeq	r0, r0, sl, lsl #2
    5238:	0a02af05 	beq	b0e54 <__bss_end__+0xa6e54>
    523c:	000008e3 	andeq	r0, r0, r3, ror #17
    5240:	050002ec 	streq	r0, [r0, #-748]	; 0xfffffd14
    5244:	00044e04 	andeq	r4, r4, r4, lsl #28
    5248:	00251500 	eoreq	r1, r5, r0, lsl #10
    524c:	05e40000 	strbeq	r0, [r4, #0]!
    5250:	6c160000 	ldcvs	0, cr0, [r6], {-0}
    5254:	16000004 	strne	r0, [r0], -r4
    5258:	00000115 	andeq	r0, r0, r5, lsl r1
    525c:	0005e416 	andeq	lr, r5, r6, lsl r4
    5260:	00251600 	eoreq	r1, r5, r0, lsl #12
    5264:	05000000 	streq	r0, [r0, #-0]
    5268:	00012404 	andeq	r2, r1, r4, lsl #8
    526c:	c6040500 	strgt	r0, [r4], -r0, lsl #10
    5270:	15000005 	strne	r0, [r0, #-5]
    5274:	0000008e 	andeq	r0, r0, lr, lsl #1
    5278:	0000060e 	andeq	r0, r0, lr, lsl #12
    527c:	00046c16 	andeq	r6, r4, r6, lsl ip
    5280:	01151600 	tsteq	r5, r0, lsl #12
    5284:	8e160000 	cdphi	0, 1, cr0, cr6, cr0, {0}
    5288:	16000000 	strne	r0, [r0], -r0
    528c:	00000025 	andeq	r0, r0, r5, lsr #32
    5290:	f0040500 			; <UNDEFINED> instruction: 0xf0040500
    5294:	15000005 	strne	r0, [r0, #-5]
    5298:	00000025 	andeq	r0, r0, r5, lsr #32
    529c:	00000628 	andeq	r0, r0, r8, lsr #12
    52a0:	00046c16 	andeq	r6, r4, r6, lsl ip
    52a4:	01151600 	tsteq	r5, r0, lsl #12
    52a8:	05000000 	streq	r0, [r0, #-0]
    52ac:	00061404 	andeq	r1, r6, r4, lsl #8
    52b0:	004f0a00 	subeq	r0, pc, r0, lsl #20
    52b4:	063e0000 	ldrteq	r0, [lr], -r0
    52b8:	2c0b0000 	stccs	0, cr0, [fp], {-0}
    52bc:	02000000 	andeq	r0, r0, #0
    52c0:	004f0a00 	subeq	r0, pc, r0, lsl #20
    52c4:	064e0000 	strbeq	r0, [lr], -r0
    52c8:	2c0b0000 	stccs	0, cr0, [fp], {-0}
    52cc:	00000000 	andeq	r0, r0, r0
    52d0:	03ab0700 			; <UNDEFINED> instruction: 0x03ab0700
    52d4:	1f050000 	svcne	0x00050000
    52d8:	030b1a01 	movweq	r1, #47617	; 0xba01
    52dc:	c21a0000 	andsgt	r0, sl, #0
    52e0:	0c000004 	stceq	0, cr0, [r0], {4}
    52e4:	08012305 	stmdaeq	r1, {r0, r2, r8, r9, sp}
    52e8:	00000694 	muleq	r0, r4, r6
    52ec:	0003d318 	andeq	sp, r3, r8, lsl r3
    52f0:	01250500 			; <UNDEFINED> instruction: 0x01250500
    52f4:	00069411 	andeq	r9, r6, r1, lsl r4
    52f8:	29180000 	ldmdbcs	r8, {}	; <UNPREDICTABLE>
    52fc:	05000002 	streq	r0, [r0, #-2]
    5300:	25070126 	strcs	r0, [r7, #-294]	; 0xfffffeda
    5304:	04000000 	streq	r0, [r0], #-0
    5308:	0003a518 	andeq	sl, r3, r8, lsl r5
    530c:	01270500 			; <UNDEFINED> instruction: 0x01270500
    5310:	00069a0b 	andeq	r9, r6, fp, lsl #20
    5314:	05000800 	streq	r0, [r0, #-2048]	; 0xfffff800
    5318:	00065b04 	andeq	r5, r6, r4, lsl #22
    531c:	4e040500 	cfsh32mi	mvfx0, mvfx4, #0
    5320:	1a000006 	bne	5340 <_start-0x2cc0>
    5324:	0000002f 	andeq	r0, r0, pc, lsr #32
    5328:	013f050e 	teqeq	pc, lr, lsl #10
    532c:	0006d908 	andeq	sp, r6, r8, lsl #18
    5330:	04221800 	strteq	r1, [r2], #-2048	; 0xfffff800
    5334:	40050000 	andmi	r0, r5, r0
    5338:	06d91201 	ldrbeq	r1, [r9], r1, lsl #4
    533c:	18000000 	stmdane	r0, {}	; <UNPREDICTABLE>
    5340:	00000456 	andeq	r0, r0, r6, asr r4
    5344:	12014105 	andne	r4, r1, #1073741825	; 0x40000001
    5348:	000006d9 	ldrdeq	r0, [r0], -r9
    534c:	04721806 	ldrbteq	r1, [r2], #-2054	; 0xfffff7fa
    5350:	42050000 	andmi	r0, r5, #0
    5354:	00561201 	subseq	r1, r6, r1, lsl #4
    5358:	000c0000 	andeq	r0, ip, r0
    535c:	0000560a 	andeq	r5, r0, sl, lsl #12
    5360:	0006e900 	andeq	lr, r6, r0, lsl #18
    5364:	002c0b00 	eoreq	r0, ip, r0, lsl #22
    5368:	00020000 	andeq	r0, r2, r0
    536c:	8005d01b 	andhi	sp, r5, fp, lsl r0
    5370:	07fe0702 	ldrbeq	r0, [lr, r2, lsl #14]!
    5374:	a6180000 	ldrge	r0, [r8], -r0
    5378:	05000004 	streq	r0, [r0, #-4]
    537c:	2c180282 	lfmcs	f0, 4, [r8], {130}	; 0x82
    5380:	00000000 	andeq	r0, r0, r0
    5384:	00045c18 	andeq	r5, r4, r8, lsl ip
    5388:	02830500 	addeq	r0, r3, #0, 10
    538c:	00011712 	andeq	r1, r1, r2, lsl r7
    5390:	58180400 	ldmdapl	r8, {sl}
    5394:	05000002 	streq	r0, [r0, #-2]
    5398:	fe100284 	cdp2	2, 1, cr0, cr0, cr4, {4}
    539c:	08000007 	stmdaeq	r0, {r0, r1, r2}
    53a0:	00050618 	andeq	r0, r5, r8, lsl r6
    53a4:	02850500 	addeq	r0, r5, #0, 10
    53a8:	0001a517 	andeq	sl, r1, r7, lsl r5
    53ac:	c6182400 	ldrgt	r2, [r8], -r0, lsl #8
    53b0:	05000001 	streq	r0, [r0, #-1]
    53b4:	250f0286 	strcs	r0, [pc, #-646]	; 5136 <_start-0x2eca>
    53b8:	48000000 	stmdami	r0, {}	; <UNPREDICTABLE>
    53bc:	0003ce18 	andeq	ip, r3, r8, lsl lr
    53c0:	02870500 	addeq	r0, r7, #0, 10
    53c4:	0000642c 	andeq	r6, r0, ip, lsr #8
    53c8:	1c185000 	ldcne	0, cr5, [r8], {-0}
    53cc:	05000005 	streq	r0, [r0, #-5]
    53d0:	a01a0288 	andsge	r0, sl, r8, lsl #5
    53d4:	58000006 	stmdapl	r0, {r1, r2}
    53d8:	0003d918 	andeq	sp, r3, r8, lsl r9
    53dc:	02890500 	addeq	r0, r9, #0, 10
    53e0:	0000fd16 	andeq	pc, r0, r6, lsl sp	; <UNPREDICTABLE>
    53e4:	21186800 	tstcs	r8, r0, lsl #16
    53e8:	05000005 	streq	r0, [r0, #-5]
    53ec:	fd16028a 	ldc2	2, cr0, [r6, #-552]	; 0xfffffdd8
    53f0:	70000000 	andvc	r0, r0, r0
    53f4:	0002e118 	andeq	lr, r2, r8, lsl r1
    53f8:	028b0500 	addeq	r0, fp, #0, 10
    53fc:	0000fd16 	andeq	pc, r0, r6, lsl sp	; <UNPREDICTABLE>
    5400:	d1187800 	tstle	r8, r0, lsl #16
    5404:	05000004 	streq	r0, [r0, #-4]
    5408:	0e10028c 	cdpeq	2, 1, cr0, cr0, cr12, {4}
    540c:	80000008 	andhi	r0, r0, r8
    5410:	00024c18 	andeq	r4, r2, r8, lsl ip
    5414:	028d0500 	addeq	r0, sp, #0, 10
    5418:	00081e10 	andeq	r1, r8, r0, lsl lr
    541c:	7f188800 	svcvc	0x00188800
    5420:	05000004 	streq	r0, [r0, #-4]
    5424:	250f028e 	strcs	r0, [pc, #-654]	; 519e <_start-0x2e62>
    5428:	a0000000 	andge	r0, r0, r0
    542c:	00018c18 	andeq	r8, r1, r8, lsl ip
    5430:	028f0500 	addeq	r0, pc, #0, 10
    5434:	0000fd16 	andeq	pc, r0, r6, lsl sp	; <UNPREDICTABLE>
    5438:	9d18a400 	cfldrsls	mvf10, [r8, #-0]
    543c:	05000000 	streq	r0, [r0, #-0]
    5440:	fd160290 	ldc2	2, cr0, [r6, #-576]	; 0xfffffdc0
    5444:	ac000000 	stcge	0, cr0, [r0], {-0}
    5448:	00017b18 	andeq	r7, r1, r8, lsl fp
    544c:	02910500 	addseq	r0, r1, #0, 10
    5450:	0000fd16 	andeq	pc, r0, r6, lsl sp	; <UNPREDICTABLE>
    5454:	4a18b400 	bmi	63245c <__bss_end__+0x62845c>
    5458:	05000000 	streq	r0, [r0, #-0]
    545c:	fd160292 	ldc2	2, cr0, [r6, #-584]	; 0xfffffdb8
    5460:	bc000000 	stclt	0, cr0, [r0], {-0}
    5464:	00005918 	andeq	r5, r0, r8, lsl r9
    5468:	02930500 	addseq	r0, r3, #0, 10
    546c:	0000fd16 	andeq	pc, r0, r6, lsl sp	; <UNPREDICTABLE>
    5470:	8118c400 	tsthi	r8, r0, lsl #8
    5474:	05000003 	streq	r0, [r0, #-3]
    5478:	25080294 	strcs	r0, [r8, #-660]	; 0xfffffd6c
    547c:	cc000000 	stcgt	0, cr0, [r0], {-0}
    5480:	011d0a00 	tsteq	sp, r0, lsl #20
    5484:	080e0000 	stmdaeq	lr, {}	; <UNPREDICTABLE>
    5488:	2c0b0000 	stccs	0, cr0, [fp], {-0}
    548c:	19000000 	stmdbne	r0, {}	; <UNPREDICTABLE>
    5490:	011d0a00 	tsteq	sp, r0, lsl #20
    5494:	081e0000 	ldmdaeq	lr, {}	; <UNPREDICTABLE>
    5498:	2c0b0000 	stccs	0, cr0, [fp], {-0}
    549c:	07000000 	streq	r0, [r0, -r0]
    54a0:	011d0a00 	tsteq	sp, r0, lsl #20
    54a4:	082e0000 	stmdaeq	lr!, {}	; <UNPREDICTABLE>
    54a8:	2c0b0000 	stccs	0, cr0, [fp], {-0}
    54ac:	17000000 	strne	r0, [r0, -r0]
    54b0:	05f01b00 	ldrbeq	r1, [r0, #2816]!	; 0xb00
    54b4:	55070299 	strpl	r0, [r7, #-665]	; 0xfffffd67
    54b8:	18000008 	stmdane	r0, {r3}
    54bc:	000002ad 	andeq	r0, r0, sp, lsr #5
    54c0:	1b029c05 	blne	ac4dc <__bss_end__+0xa24dc>
    54c4:	00000855 	andeq	r0, r0, r5, asr r8
    54c8:	04c81800 	strbeq	r1, [r8], #2048	; 0x800
    54cc:	9d050000 	stcls	0, cr0, [r5, #-0]
    54d0:	08651802 	stmdaeq	r5!, {r1, fp, ip}^
    54d4:	00780000 	rsbseq	r0, r8, r0
    54d8:	0003050a 	andeq	r0, r3, sl, lsl #10
    54dc:	00086500 	andeq	r6, r8, r0, lsl #10
    54e0:	002c0b00 	eoreq	r0, ip, r0, lsl #22
    54e4:	001d0000 	andseq	r0, sp, r0
    54e8:	00002c0a 	andeq	r2, r0, sl, lsl #24
    54ec:	00087500 	andeq	r7, r8, r0, lsl #10
    54f0:	002c0b00 	eoreq	r0, ip, r0, lsl #22
    54f4:	001d0000 	andseq	r0, sp, r0
    54f8:	7e05f01c 	mcrvc	0, 0, pc, cr5, cr12, {0}	; <UNPREDICTABLE>
    54fc:	089a0302 	ldmeq	sl, {r1, r8, r9}
    5500:	1b1d0000 	blne	745508 <__bss_end__+0x73b508>
    5504:	05000004 	streq	r0, [r0, #-4]
    5508:	e90b0295 	stmdb	fp, {r0, r2, r4, r7, r9}
    550c:	1d000006 	stcne	0, cr0, [r0, #-24]	; 0xffffffe8
    5510:	000004f3 	strdeq	r0, [r0], -r3
    5514:	0b029e05 	bleq	acd30 <__bss_end__+0xa2d30>
    5518:	0000082e 	andeq	r0, r0, lr, lsr #16
    551c:	011d0a00 	tsteq	sp, r0, lsl #20
    5520:	08aa0000 	stmiaeq	sl!, {}	; <UNPREDICTABLE>
    5524:	2c0b0000 	stccs	0, cr0, [fp], {-0}
    5528:	18000000 	stmdane	r0, {}	; <UNPREDICTABLE>
    552c:	00920600 	addseq	r0, r2, r0, lsl #12
    5530:	04050000 	streq	r0, [r5], #-0
    5534:	000008aa 	andeq	r0, r0, sl, lsr #17
    5538:	0008c01e 	andeq	ip, r8, lr, lsl r0
    553c:	046c1600 	strbteq	r1, [ip], #-1536	; 0xfffffa00
    5540:	05000000 	streq	r0, [r0, #-0]
    5544:	0008b504 	andeq	fp, r8, r4, lsl #10
    5548:	8f040500 	svchi	0x00040500
    554c:	1e000001 	cdpne	0, 0, cr0, cr0, cr1, {0}
    5550:	000008d7 	ldrdeq	r0, [r0], -r7
    5554:	00002516 	andeq	r2, r0, r6, lsl r5
    5558:	04050000 	streq	r0, [r5], #-0
    555c:	000008dd 	ldrdeq	r0, [r0], -sp
    5560:	08cc0405 	stmiaeq	ip, {r0, r2, sl}^
    5564:	4e0a0000 	cdpmi	0, 0, cr0, cr10, cr0, {0}
    5568:	f3000006 	vhadd.u8	d0, d0, d6
    556c:	0b000008 	bleq	5594 <_start-0x2a6c>
    5570:	0000002c 	andeq	r0, r0, ip, lsr #32
    5574:	931f0002 	tstls	pc, #2
    5578:	05000004 	streq	r0, [r0, #-4]
    557c:	6c17032e 	ldcvs	3, cr0, [r7], {46}	; 0x2e
    5580:	1f000004 	svcne	0x00000004
    5584:	0000048c 	andeq	r0, r0, ip, lsl #9
    5588:	1d032f05 	stcne	15, cr2, [r3, #-20]	; 0xffffffec
    558c:	00000472 	andeq	r0, r0, r2, ror r4
    5590:	00002515 	andeq	r2, r0, r5, lsl r5
    5594:	00091c00 	andeq	r1, r9, r0, lsl #24
    5598:	00251600 	eoreq	r1, r5, r0, lsl #12
    559c:	20000000 	andcs	r0, r0, r0
    55a0:	000001df 	ldrdeq	r0, [r0], -pc	; <UNPREDICTABLE>
    55a4:	280e1d06 	stmdacs	lr, {r1, r2, r8, sl, fp, ip}
    55a8:	05000009 	streq	r0, [r0, #-9]
    55ac:	00090d04 	andeq	r0, r9, r4, lsl #26
    55b0:	00251500 	eoreq	r1, r5, r0, lsl #10
    55b4:	093d0000 	ldmdbeq	sp!, {}	; <UNPREDICTABLE>
    55b8:	e4160000 	ldr	r0, [r6], #-0
    55bc:	00000005 	andeq	r0, r0, r5
    55c0:	00076d20 	andeq	r6, r7, r0, lsr #26
    55c4:	0e220600 	cfmadda32eq	mvax0, mvax0, mvfx2, mvfx0
    55c8:	00000949 	andeq	r0, r0, r9, asr #18
    55cc:	092e0405 	stmdbeq	lr!, {r0, r2, sl}
    55d0:	3d210000 	stccc	0, cr0, [r1, #-0]
    55d4:	01000009 	tsteq	r0, r9
    55d8:	0305070c 	movweq	r0, #22284	; 0x570c
    55dc:	00009620 	andeq	r9, r0, r0, lsr #12
    55e0:	00076422 	andeq	r6, r7, r2, lsr #8
    55e4:	05040100 	streq	r0, [r4, #-256]	; 0xffffff00
    55e8:	00000025 	andeq	r0, r0, r5, lsr #32
    55ec:	00008ae0 	andeq	r8, r0, r0, ror #21
    55f0:	00000034 	andeq	r0, r0, r4, lsr r0
    55f4:	70239c01 	eorvc	r9, r3, r1, lsl #24
    55f8:	1f040100 	svcne	0x00040100
    55fc:	000005e4 	andeq	r0, r0, r4, ror #11
    5600:	00000aca 	andeq	r0, r0, sl, asr #21
    5604:	00000ac6 	andeq	r0, r0, r6, asr #21
    5608:	0fa00000 	svceq	0x00a00000
    560c:	00040000 	andeq	r0, r4, r0
    5610:	000010b1 	strheq	r1, [r0], -r1	; <UNPREDICTABLE>
    5614:	03020104 	movweq	r0, #8452	; 0x2104
    5618:	7e0c0000 	cdpvc	0, 0, cr0, cr12, cr0, {0}
    561c:	c6000007 	strgt	r0, [r0], -r7
    5620:	14000006 	strne	r0, [r0], #-6
    5624:	2000008b 	andcs	r0, r0, fp, lsl #1
    5628:	f6000005 			; <UNDEFINED> instruction: 0xf6000005
    562c:	0200000e 	andeq	r0, r0, #14
    5630:	6e690504 	cdpvs	5, 6, cr0, cr9, cr4, {0}
    5634:	04030074 	streq	r0, [r3], #-116	; 0xffffff8c
    5638:	00007407 	andeq	r7, r0, r7, lsl #8
    563c:	06010300 	streq	r0, [r1], -r0, lsl #6
    5640:	000002f1 	strdeq	r0, [r0], -r1
    5644:	8a050203 	bhi	145e58 <__bss_end__+0x13be58>
    5648:	03000003 	movweq	r0, #3
    564c:	00ba0504 	adcseq	r0, sl, r4, lsl #10
    5650:	08030000 	stmdaeq	r3, {}	; <UNPREDICTABLE>
    5654:	0000b505 	andeq	fp, r0, r5, lsl #10
    5658:	08010300 	stmdaeq	r1, {r8, r9}
    565c:	000002ef 	andeq	r0, r0, pc, ror #5
    5660:	30070203 	andcc	r0, r7, r3, lsl #4
    5664:	03000002 	movweq	r0, #2
    5668:	006f0704 	rsbeq	r0, pc, r4, lsl #14
    566c:	08030000 	stmdaeq	r3, {}	; <UNPREDICTABLE>
    5670:	00006a07 	andeq	r6, r0, r7, lsl #20
    5674:	02730400 	rsbseq	r0, r3, #0, 8
    5678:	22020000 	andcs	r0, r2, #0
    567c:	00007719 	andeq	r7, r0, r9, lsl r7
    5680:	7d040500 	cfstr32vc	mvfx0, [r4, #-0]
    5684:	06000000 	streq	r0, [r0], -r0
    5688:	00000430 	andeq	r0, r0, r0, lsr r4
    568c:	0002d004 	andeq	sp, r2, r4
    5690:	0e2c0300 	cdpeq	3, 2, cr0, cr12, cr0, {0}
    5694:	00000041 	andeq	r0, r0, r1, asr #32
    5698:	00044504 	andeq	r4, r4, r4, lsl #10
    569c:	0e720300 	cdpeq	3, 7, cr0, cr2, cr0, {0}
    56a0:	00000041 	andeq	r0, r0, r1, asr #32
    56a4:	00027b07 	andeq	r7, r2, r7, lsl #22
    56a8:	015e0400 	cmpeq	lr, r0, lsl #8
    56ac:	00002c17 	andeq	r2, r0, r7, lsl ip
    56b0:	03040800 	movweq	r0, #18432	; 0x4800
    56b4:	00c903a6 	sbceq	r0, r9, r6, lsr #7
    56b8:	6d090000 	stcvs	0, cr0, [r9, #-0]
    56bc:	03000002 	movweq	r0, #2
    56c0:	009a0ca8 	addseq	r0, sl, r8, lsr #25
    56c4:	f0090000 			; <UNDEFINED> instruction: 0xf0090000
    56c8:	03000001 	movweq	r0, #1
    56cc:	00c913a9 	sbceq	r1, r9, r9, lsr #7
    56d0:	0a000000 	beq	56d8 <_start-0x2928>
    56d4:	0000004f 	andeq	r0, r0, pc, asr #32
    56d8:	000000d9 	ldrdeq	r0, [r0], -r9
    56dc:	00002c0b 	andeq	r2, r0, fp, lsl #24
    56e0:	0c000300 	stceq	3, cr0, [r0], {-0}
    56e4:	09a30308 	stmibeq	r3!, {r3, r8, r9}
    56e8:	000000fd 	strdeq	r0, [r0], -sp
    56ec:	0004280d 	andeq	r2, r4, sp, lsl #16
    56f0:	07a50300 	streq	r0, [r5, r0, lsl #6]!
    56f4:	00000025 	andeq	r0, r0, r5, lsr #32
    56f8:	04370d00 	ldrteq	r0, [r7], #-3328	; 0xfffff300
    56fc:	aa030000 	bge	c5704 <__bss_end__+0xbb704>
    5700:	0000a705 	andeq	sl, r0, r5, lsl #14
    5704:	04000400 	streq	r0, [r0], #-1024	; 0xfffffc00
    5708:	000003b2 			; <UNDEFINED> instruction: 0x000003b2
    570c:	d903ab03 	stmdble	r3, {r0, r1, r8, r9, fp, sp, pc}
    5710:	04000000 	streq	r0, [r0], #-0
    5714:	000001ad 	andeq	r0, r0, sp, lsr #3
    5718:	6b1baf03 	blvs	6f132c <__bss_end__+0x6e732c>
    571c:	0e000000 	cdpeq	0, 0, cr0, cr0, cr0, {0}
    5720:	1d040504 	cfstr32ne	mvfx0, [r4, #-16]
    5724:	03000001 	movweq	r0, #1
    5728:	02f80801 	rscseq	r0, r8, #65536	; 0x10000
    572c:	1d0f0000 	stcne	0, cr0, [pc, #-0]	; 5734 <_start-0x28cc>
    5730:	04000001 	streq	r0, [r0], #-1
    5734:	00000477 	andeq	r0, r0, r7, ror r4
    5738:	5d191605 	ldcpl	6, cr1, [r9, #-20]	; 0xffffffec
    573c:	10000000 	andne	r0, r0, r0
    5740:	000001be 			; <UNDEFINED> instruction: 0x000001be
    5744:	082f0518 	stmdaeq	pc!, {r3, r4, r8, sl}	; <UNPREDICTABLE>
    5748:	0000018f 	andeq	r0, r0, pc, lsl #3
    574c:	0003d30d 	andeq	sp, r3, sp, lsl #6
    5750:	13310500 	teqne	r1, #0, 10
    5754:	0000018f 	andeq	r0, r0, pc, lsl #3
    5758:	6b5f1100 	blvs	17c9b60 <__bss_end__+0x17bfb60>
    575c:	07320500 	ldreq	r0, [r2, -r0, lsl #10]!
    5760:	00000025 	andeq	r0, r0, r5, lsr #32
    5764:	04130d04 	ldreq	r0, [r3], #-3332	; 0xfffff2fc
    5768:	32050000 	andcc	r0, r5, #0
    576c:	0000250b 	andeq	r2, r0, fp, lsl #10
    5770:	a70d0800 	strge	r0, [sp, -r0, lsl #16]
    5774:	05000001 	streq	r0, [r0, #-1]
    5778:	00251432 	eoreq	r1, r5, r2, lsr r4
    577c:	0d0c0000 	stceq	0, cr0, [ip, #-0]
    5780:	000004b3 			; <UNDEFINED> instruction: 0x000004b3
    5784:	251b3205 	ldrcs	r3, [fp, #-517]	; 0xfffffdfb
    5788:	10000000 	andne	r0, r0, r0
    578c:	00785f11 	rsbseq	r5, r8, r1, lsl pc
    5790:	950b3305 	strls	r3, [fp, #-773]	; 0xfffffcfb
    5794:	14000001 	strne	r0, [r0], #-1
    5798:	35040500 	strcc	r0, [r4, #-1280]	; 0xfffffb00
    579c:	0a000001 	beq	57a8 <_start-0x2858>
    57a0:	00000129 	andeq	r0, r0, r9, lsr #2
    57a4:	000001a5 	andeq	r0, r0, r5, lsr #3
    57a8:	00002c0b 	andeq	r2, r0, fp, lsl #24
    57ac:	10000000 	andne	r0, r0, r0
    57b0:	000001eb 	andeq	r0, r0, fp, ror #3
    57b4:	08370524 	ldmdaeq	r7!, {r2, r5, r8, sl}
    57b8:	00000228 	andeq	r0, r0, r8, lsr #4
    57bc:	0000ac0d 	andeq	sl, r0, sp, lsl #24
    57c0:	09390500 	ldmdbeq	r9!, {r8, sl}
    57c4:	00000025 	andeq	r0, r0, r5, lsr #32
    57c8:	044d0d00 	strbeq	r0, [sp], #-3328	; 0xfffff300
    57cc:	3a050000 	bcc	1457d4 <__bss_end__+0x13b7d4>
    57d0:	00002509 	andeq	r2, r0, r9, lsl #10
    57d4:	cf0d0400 	svcgt	0x000d0400
    57d8:	05000000 	streq	r0, [r0, #-0]
    57dc:	0025093b 	eoreq	r0, r5, fp, lsr r9
    57e0:	0d080000 	stceq	0, cr0, [r8, #-0]
    57e4:	00000534 	andeq	r0, r0, r4, lsr r5
    57e8:	25093c05 	strcs	r3, [r9, #-3077]	; 0xfffff3fb
    57ec:	0c000000 	stceq	0, cr0, [r0], {-0}
    57f0:	0002b40d 	andeq	fp, r2, sp, lsl #8
    57f4:	093d0500 	ldmdbeq	sp!, {r8, sl}
    57f8:	00000025 	andeq	r0, r0, r5, lsr #32
    57fc:	02960d10 	addseq	r0, r6, #16, 26	; 0x400
    5800:	3e050000 	cdpcc	0, 0, cr0, cr5, cr0, {0}
    5804:	00002509 	andeq	r2, r0, r9, lsl #10
    5808:	b80d1400 	stmdalt	sp, {sl, ip}
    580c:	05000004 	streq	r0, [r0, #-4]
    5810:	0025093f 	eoreq	r0, r5, pc, lsr r9
    5814:	0d180000 	ldceq	0, cr0, [r8, #-0]
    5818:	00000394 	muleq	r0, r4, r3
    581c:	25094005 	strcs	r4, [r9, #-5]
    5820:	1c000000 	stcne	0, cr0, [r0], {-0}
    5824:	0004fb0d 	andeq	pc, r4, sp, lsl #22
    5828:	09410500 	stmdbeq	r1, {r8, sl}^
    582c:	00000025 	andeq	r0, r0, r5, lsr #32
    5830:	0f120020 	svceq	0x00120020
    5834:	08000001 	stmdaeq	r0, {r0}
    5838:	084a0501 	stmdaeq	sl, {r0, r8, sl}^
    583c:	0000026d 	andeq	r0, r0, sp, ror #4
    5840:	00019a0d 	andeq	r9, r1, sp, lsl #20
    5844:	0a4b0500 	beq	12c6c4c <__bss_end__+0x12bcc4c>
    5848:	0000026d 	andeq	r0, r0, sp, ror #4
    584c:	00000d00 	andeq	r0, r0, r0, lsl #26
    5850:	4c050000 	stcmi	0, cr0, [r5], {-0}
    5854:	00026d09 	andeq	r6, r2, r9, lsl #26
    5858:	69138000 	ldmdbvs	r3, {pc}
    585c:	05000004 	streq	r0, [r0, #-4]
    5860:	01290a4e 			; <UNDEFINED> instruction: 0x01290a4e
    5864:	01000000 	mrseq	r0, (UNDEF: 0)
    5868:	00013413 	andeq	r3, r1, r3, lsl r4
    586c:	0a510500 	beq	1446c74 <__bss_end__+0x143cc74>
    5870:	00000129 	andeq	r0, r0, r9, lsr #2
    5874:	0a000104 	beq	5c8c <_start-0x2374>
    5878:	00000115 	andeq	r0, r0, r5, lsl r1
    587c:	0000027d 	andeq	r0, r0, sp, ror r2
    5880:	00002c0b 	andeq	r2, r0, fp, lsl #24
    5884:	12001f00 	andne	r1, r0, #0, 30
    5888:	000002bd 			; <UNDEFINED> instruction: 0x000002bd
    588c:	5d050190 	stfpls	f0, [r5, #-576]	; 0xfffffdc0
    5890:	0002c008 	andeq	ip, r2, r8
    5894:	03d30d00 	bicseq	r0, r3, #0, 26
    5898:	5e050000 	cdppl	0, 0, cr0, cr5, cr0, {0}
    589c:	0002c012 	andeq	ip, r2, r2, lsl r0
    58a0:	eb0d0000 	bl	3458a8 <__bss_end__+0x33b8a8>
    58a4:	05000003 	streq	r0, [r0, #-3]
    58a8:	0025065f 	eoreq	r0, r5, pc, asr r6
    58ac:	0d040000 	stceq	0, cr0, [r4, #-0]
    58b0:	000001a2 	andeq	r0, r0, r2, lsr #3
    58b4:	c6096105 	strgt	r6, [r9], -r5, lsl #2
    58b8:	08000002 	stmdaeq	r0, {r1}
    58bc:	00010f0d 	andeq	r0, r1, sp, lsl #30
    58c0:	1e620500 	cdpne	5, 6, cr0, cr2, cr0, {0}
    58c4:	00000228 	andeq	r0, r0, r8, lsr #4
    58c8:	04050088 	streq	r0, [r5], #-136	; 0xffffff78
    58cc:	0000027d 	andeq	r0, r0, sp, ror r2
    58d0:	0002d60a 	andeq	sp, r2, sl, lsl #12
    58d4:	0002d600 	andeq	sp, r2, r0, lsl #12
    58d8:	002c0b00 	eoreq	r0, ip, r0, lsl #22
    58dc:	001f0000 	andseq	r0, pc, r0
    58e0:	02dc0405 	sbcseq	r0, ip, #83886080	; 0x5000000
    58e4:	10140000 	andsne	r0, r4, r0
    58e8:	0000039e 	muleq	r0, lr, r3
    58ec:	08750508 	ldmdaeq	r5!, {r3, r8, sl}^
    58f0:	00000305 	andeq	r0, r0, r5, lsl #6
    58f4:	0000c90d 	andeq	ip, r0, sp, lsl #18
    58f8:	11760500 	cmnne	r6, r0, lsl #10
    58fc:	00000305 	andeq	r0, r0, r5, lsl #6
    5900:	001b0d00 	andseq	r0, fp, r0, lsl #26
    5904:	77050000 	strvc	r0, [r5, -r0]
    5908:	00002506 	andeq	r2, r0, r6, lsl #10
    590c:	05000400 	streq	r0, [r0, #-1024]	; 0xfffffc00
    5910:	00004f04 	andeq	r4, r0, r4, lsl #30
    5914:	03bd1000 			; <UNDEFINED> instruction: 0x03bd1000
    5918:	05680000 	strbeq	r0, [r8, #-0]!
    591c:	044e08b5 	strbeq	r0, [lr], #-2229	; 0xfffff74b
    5920:	5f110000 	svcpl	0x00110000
    5924:	b6050070 			; <UNDEFINED> instruction: 0xb6050070
    5928:	00030512 	andeq	r0, r3, r2, lsl r5
    592c:	5f110000 	svcpl	0x00110000
    5930:	b7050072 	smlsdxlt	r5, r2, r0, r0
    5934:	00002507 	andeq	r2, r0, r7, lsl #10
    5938:	5f110400 	svcpl	0x00110400
    593c:	b8050077 	stmdalt	r5, {r0, r1, r2, r4, r5, r6}
    5940:	00002507 	andeq	r2, r0, r7, lsl #10
    5944:	2d0d0800 	stccs	8, cr0, [sp, #-0]
    5948:	05000001 	streq	r0, [r0, #-1]
    594c:	003a09b9 	ldrhteq	r0, [sl], -r9
    5950:	0d0c0000 	stceq	0, cr0, [ip, #-0]
    5954:	00000216 	andeq	r0, r0, r6, lsl r2
    5958:	3a09ba05 	bcc	274174 <__bss_end__+0x26a174>
    595c:	0e000000 	cdpeq	0, 0, cr0, cr0, cr0, {0}
    5960:	66625f11 	uqadd16vs	r5, r2, r1
    5964:	11bb0500 			; <UNDEFINED> instruction: 0x11bb0500
    5968:	000002dd 	ldrdeq	r0, [r0], -sp
    596c:	00890d10 	addeq	r0, r9, r0, lsl sp
    5970:	bc050000 	stclt	0, cr0, [r5], {-0}
    5974:	00002507 	andeq	r2, r0, r7, lsl #10
    5978:	1d0d1800 	stcne	8, cr1, [sp, #-0]
    597c:	05000001 	streq	r0, [r0, #-1]
    5980:	01150ac3 	tsteq	r5, r3, asr #21
    5984:	0d1c0000 	ldceq	0, cr0, [ip, #-0]
    5988:	00000b29 	andeq	r0, r0, r9, lsr #22
    598c:	c01dc505 	andsgt	ip, sp, r5, lsl #10
    5990:	20000005 	andcs	r0, r0, r5
    5994:	00061e0d 	andeq	r1, r6, sp, lsl #28
    5998:	1dc70500 	cfstr64ne	mvdx0, [r7]
    599c:	000005ea 	andeq	r0, r0, sl, ror #11
    59a0:	043f0d24 	ldrteq	r0, [pc], #-3364	; 59a8 <_start-0x2658>
    59a4:	ca050000 	bgt	1459ac <__bss_end__+0x13b9ac>
    59a8:	00060e0d 	andeq	r0, r6, sp, lsl #28
    59ac:	150d2800 	strne	r2, [sp, #-2048]	; 0xfffff800
    59b0:	05000005 	streq	r0, [r0, #-5]
    59b4:	062809cb 	strteq	r0, [r8], -fp, asr #19
    59b8:	112c0000 			; <UNDEFINED> instruction: 0x112c0000
    59bc:	0062755f 	rsbeq	r7, r2, pc, asr r5
    59c0:	dd11ce05 	ldcle	14, cr12, [r1, #-20]	; 0xffffffec
    59c4:	30000002 	andcc	r0, r0, r2
    59c8:	70755f11 	rsbsvc	r5, r5, r1, lsl pc
    59cc:	12cf0500 	sbcne	r0, pc, #0, 10
    59d0:	00000305 	andeq	r0, r0, r5, lsl #6
    59d4:	755f1138 	ldrbvc	r1, [pc, #-312]	; 58a4 <_start-0x275c>
    59d8:	d0050072 	andle	r0, r5, r2, ror r0
    59dc:	00002507 	andeq	r2, r0, r7, lsl #10
    59e0:	c30d3c00 	movwgt	r3, #56320	; 0xdc00
    59e4:	05000000 	streq	r0, [r0, #-0]
    59e8:	062e11d3 			; <UNDEFINED> instruction: 0x062e11d3
    59ec:	0d400000 	stcleq	0, cr0, [r0, #-0]
    59f0:	000004ed 	andeq	r0, r0, sp, ror #9
    59f4:	3e11d405 	cfmulscc	mvf13, mvf1, mvf5
    59f8:	43000006 	movwmi	r0, #6
    59fc:	626c5f11 	rsbvs	r5, ip, #17, 30	; 0x44
    5a00:	11d70500 	bicsne	r0, r7, r0, lsl #10
    5a04:	000002dd 	ldrdeq	r0, [r0], -sp
    5a08:	014b0d44 	cmpeq	fp, r4, asr #26
    5a0c:	da050000 	ble	145a14 <__bss_end__+0x13ba14>
    5a10:	00002507 	andeq	r2, r0, r7, lsl #10
    5a14:	5c0d4c00 	stcpl	12, cr4, [sp], {-0}
    5a18:	05000001 	streq	r0, [r0, #-1]
    5a1c:	00820adb 	ldrdeq	r0, [r2], fp
    5a20:	0d500000 	ldcleq	0, cr0, [r0, #-0]
    5a24:	00000aca 	andeq	r0, r0, sl, asr #21
    5a28:	6c12de05 	ldcvs	14, cr13, [r2], {5}
    5a2c:	54000004 	strpl	r0, [r0], #-4
    5a30:	0004310d 	andeq	r3, r4, sp, lsl #2
    5a34:	0ce20500 	cfstr64eq	mvdx0, [r2]
    5a38:	00000109 	andeq	r0, r0, r9, lsl #2
    5a3c:	03c50d58 	biceq	r0, r5, #88, 26	; 0x1600
    5a40:	e4050000 	str	r0, [r5], #-0
    5a44:	0000fd0e 	andeq	pc, r0, lr, lsl #26
    5a48:	8e0d5c00 	cdphi	12, 0, cr5, cr13, cr0, {0}
    5a4c:	05000002 	streq	r0, [r0, #-2]
    5a50:	002509e5 	eoreq	r0, r5, r5, ror #19
    5a54:	00640000 	rsbeq	r0, r4, r0
    5a58:	00002515 	andeq	r2, r0, r5, lsl r5
    5a5c:	00046c00 	andeq	r6, r4, r0, lsl #24
    5a60:	046c1600 	strbteq	r1, [ip], #-1536	; 0xfffffa00
    5a64:	15160000 	ldrne	r0, [r6, #-0]
    5a68:	16000001 	strne	r0, [r0], -r1
    5a6c:	00000117 	andeq	r0, r0, r7, lsl r1
    5a70:	00002516 	andeq	r2, r0, r6, lsl r5
    5a74:	04050000 	streq	r0, [r5], #-0
    5a78:	00000477 	andeq	r0, r0, r7, ror r4
    5a7c:	00046c0f 	andeq	r6, r4, pc, lsl #24
    5a80:	041b1700 	ldreq	r1, [fp], #-1792	; 0xfffff900
    5a84:	04280000 	strteq	r0, [r8], #-0
    5a88:	08026005 	stmdaeq	r2, {r0, r2, sp, lr}
    5a8c:	000005c0 	andeq	r0, r0, r0, asr #11
    5a90:	00038318 	andeq	r8, r3, r8, lsl r3
    5a94:	02620500 	rsbeq	r0, r2, #0, 10
    5a98:	00002507 	andeq	r2, r0, r7, lsl #10
    5a9c:	3c180000 	ldccc	0, cr0, [r8], {-0}
    5aa0:	05000001 	streq	r0, [r0, #-1]
    5aa4:	9a0b0267 	bls	2c6448 <__bss_end__+0x2bc448>
    5aa8:	04000006 	streq	r0, [r0], #-6
    5aac:	00020618 	andeq	r0, r2, r8, lsl r6
    5ab0:	02670500 	rsbeq	r0, r7, #0, 10
    5ab4:	00069a14 	andeq	r9, r6, r4, lsl sl
    5ab8:	b6180800 	ldrlt	r0, [r8], -r0, lsl #16
    5abc:	05000001 	streq	r0, [r0, #-1]
    5ac0:	9a1e0267 	bls	786464 <__bss_end__+0x77c464>
    5ac4:	0c000006 	stceq	0, cr0, [r0], {6}
    5ac8:	0003e618 	andeq	lr, r3, r8, lsl r6
    5acc:	02690500 	rsbeq	r0, r9, #0, 10
    5ad0:	00002508 	andeq	r2, r0, r8, lsl #10
    5ad4:	37181000 	ldrcc	r1, [r8, -r0]
    5ad8:	05000000 	streq	r0, [r0, #-0]
    5adc:	9a08026a 	bls	20648c <__bss_end__+0x1fc48c>
    5ae0:	14000008 	strne	r0, [r0], #-8
    5ae4:	0003fa18 	andeq	pc, r3, r8, lsl sl	; <UNPREDICTABLE>
    5ae8:	026d0500 	rsbeq	r0, sp, #0, 10
    5aec:	00002507 	andeq	r2, r0, r7, lsl #10
    5af0:	06183000 	ldreq	r3, [r8], -r0
    5af4:	0500000a 	streq	r0, [r0, #-10]
    5af8:	af16026e 	svcge	0x0016026e
    5afc:	34000008 	strcc	r0, [r0], #-8
    5b00:	0002c518 	andeq	ip, r2, r8, lsl r5
    5b04:	02700500 	rsbseq	r0, r0, #0, 10
    5b08:	00002507 	andeq	r2, r0, r7, lsl #10
    5b0c:	f0183800 			; <UNDEFINED> instruction: 0xf0183800
    5b10:	05000003 	streq	r0, [r0, #-3]
    5b14:	c00a0272 	andgt	r0, sl, r2, ror r2
    5b18:	3c000008 	stccc	0, cr0, [r0], {8}
    5b1c:	00026518 	andeq	r6, r2, r8, lsl r5
    5b20:	02750500 	rsbseq	r0, r5, #0, 10
    5b24:	00018f13 	andeq	r8, r1, r3, lsl pc
    5b28:	d5184000 	ldrle	r4, [r8, #-0]
    5b2c:	05000001 	streq	r0, [r0, #-1]
    5b30:	25070276 	strcs	r0, [r7, #-630]	; 0xfffffd8a
    5b34:	44000000 	strmi	r0, [r0], #-0
    5b38:	00052f18 	andeq	r2, r5, r8, lsl pc
    5b3c:	02770500 	rsbseq	r0, r7, #0, 10
    5b40:	00018f13 	andeq	r8, r1, r3, lsl pc
    5b44:	d7184800 	ldrle	r4, [r8, -r0, lsl #16]
    5b48:	05000002 	streq	r0, [r0, #-2]
    5b4c:	c6140278 			; <UNDEFINED> instruction: 0xc6140278
    5b50:	4c000008 	stcmi	0, cr0, [r0], {8}
    5b54:	00020e18 	andeq	r0, r2, r8, lsl lr
    5b58:	027b0500 	rsbseq	r0, fp, #0, 10
    5b5c:	00002507 	andeq	r2, r0, r7, lsl #10
    5b60:	54185000 	ldrpl	r5, [r8], #-0
    5b64:	05000001 	streq	r0, [r0, #-1]
    5b68:	1709027c 	smlsdxne	r9, ip, r2, r0
    5b6c:	54000001 	strpl	r0, [r0], #-1
    5b70:	0002fd18 	andeq	pc, r2, r8, lsl sp	; <UNPREDICTABLE>
    5b74:	029f0500 	addseq	r0, pc, #0, 10
    5b78:	00087507 	andeq	r7, r8, r7, lsl #10
    5b7c:	bd195800 	ldclt	8, cr5, [r9, #-0]
    5b80:	05000002 	streq	r0, [r0, #-2]
    5b84:	c01302a3 	andsgt	r0, r3, r3, lsr #5
    5b88:	48000002 	stmdami	r0, {r1}
    5b8c:	02431901 	subeq	r1, r3, #16384	; 0x4000
    5b90:	a4050000 	strge	r0, [r5], #-0
    5b94:	027d1202 	rsbseq	r1, sp, #536870912	; 0x20000000
    5b98:	014c0000 	mrseq	r0, (UNDEF: 76)
    5b9c:	0004db19 	andeq	sp, r4, r9, lsl fp
    5ba0:	02a80500 	adceq	r0, r8, #0, 10
    5ba4:	0008d70c 	andeq	sp, r8, ip, lsl #14
    5ba8:	1902dc00 	stmdbne	r2, {sl, fp, ip, lr, pc}
    5bac:	00000125 	andeq	r0, r0, r5, lsr #2
    5bb0:	1002ad05 	andne	sl, r2, r5, lsl #26
    5bb4:	0000065b 	andeq	r0, r0, fp, asr r6
    5bb8:	0a1902e0 	beq	646740 <__bss_end__+0x63c740>
    5bbc:	05000001 	streq	r0, [r0, #-1]
    5bc0:	e30a02af 	movw	r0, #41647	; 0xa2af
    5bc4:	ec000008 	stc	0, cr0, [r0], {8}
    5bc8:	04050002 	streq	r0, [r5], #-2
    5bcc:	0000044e 	andeq	r0, r0, lr, asr #8
    5bd0:	00002515 	andeq	r2, r0, r5, lsl r5
    5bd4:	0005e400 	andeq	lr, r5, r0, lsl #8
    5bd8:	046c1600 	strbteq	r1, [ip], #-1536	; 0xfffffa00
    5bdc:	15160000 	ldrne	r0, [r6, #-0]
    5be0:	16000001 	strne	r0, [r0], -r1
    5be4:	000005e4 	andeq	r0, r0, r4, ror #11
    5be8:	00002516 	andeq	r2, r0, r6, lsl r5
    5bec:	04050000 	streq	r0, [r5], #-0
    5bf0:	00000124 	andeq	r0, r0, r4, lsr #2
    5bf4:	05c60405 	strbeq	r0, [r6, #1029]	; 0x405
    5bf8:	8e150000 	cdphi	0, 1, cr0, cr5, cr0, {0}
    5bfc:	0e000000 	cdpeq	0, 0, cr0, cr0, cr0, {0}
    5c00:	16000006 	strne	r0, [r0], -r6
    5c04:	0000046c 	andeq	r0, r0, ip, ror #8
    5c08:	00011516 	andeq	r1, r1, r6, lsl r5
    5c0c:	008e1600 	addeq	r1, lr, r0, lsl #12
    5c10:	25160000 	ldrcs	r0, [r6, #-0]
    5c14:	00000000 	andeq	r0, r0, r0
    5c18:	05f00405 	ldrbeq	r0, [r0, #1029]!	; 0x405
    5c1c:	25150000 	ldrcs	r0, [r5, #-0]
    5c20:	28000000 	stmdacs	r0, {}	; <UNPREDICTABLE>
    5c24:	16000006 	strne	r0, [r0], -r6
    5c28:	0000046c 	andeq	r0, r0, ip, ror #8
    5c2c:	00011516 	andeq	r1, r1, r6, lsl r5
    5c30:	04050000 	streq	r0, [r5], #-0
    5c34:	00000614 	andeq	r0, r0, r4, lsl r6
    5c38:	00004f0a 	andeq	r4, r0, sl, lsl #30
    5c3c:	00063e00 	andeq	r3, r6, r0, lsl #28
    5c40:	002c0b00 	eoreq	r0, ip, r0, lsl #22
    5c44:	00020000 	andeq	r0, r2, r0
    5c48:	00004f0a 	andeq	r4, r0, sl, lsl #30
    5c4c:	00064e00 	andeq	r4, r6, r0, lsl #28
    5c50:	002c0b00 	eoreq	r0, ip, r0, lsl #22
    5c54:	00000000 	andeq	r0, r0, r0
    5c58:	0003ab07 	andeq	sl, r3, r7, lsl #22
    5c5c:	011f0500 	tsteq	pc, r0, lsl #10
    5c60:	00030b1a 	andeq	r0, r3, sl, lsl fp
    5c64:	04c21a00 	strbeq	r1, [r2], #2560	; 0xa00
    5c68:	050c0000 	streq	r0, [ip, #-0]
    5c6c:	94080123 	strls	r0, [r8], #-291	; 0xfffffedd
    5c70:	18000006 	stmdane	r0, {r1, r2}
    5c74:	000003d3 	ldrdeq	r0, [r0], -r3
    5c78:	11012505 	tstne	r1, r5, lsl #10
    5c7c:	00000694 	muleq	r0, r4, r6
    5c80:	02291800 	eoreq	r1, r9, #0, 16
    5c84:	26050000 	strcs	r0, [r5], -r0
    5c88:	00250701 	eoreq	r0, r5, r1, lsl #14
    5c8c:	18040000 	stmdane	r4, {}	; <UNPREDICTABLE>
    5c90:	000003a5 	andeq	r0, r0, r5, lsr #7
    5c94:	0b012705 	bleq	4f8b0 <__bss_end__+0x458b0>
    5c98:	0000069a 	muleq	r0, sl, r6
    5c9c:	04050008 	streq	r0, [r5], #-8
    5ca0:	0000065b 	andeq	r0, r0, fp, asr r6
    5ca4:	064e0405 	strbeq	r0, [lr], -r5, lsl #8
    5ca8:	2f1a0000 	svccs	0x001a0000
    5cac:	0e000000 	cdpeq	0, 0, cr0, cr0, cr0, {0}
    5cb0:	08013f05 	stmdaeq	r1, {r0, r2, r8, r9, sl, fp, ip, sp}
    5cb4:	000006d9 	ldrdeq	r0, [r0], -r9
    5cb8:	00042218 	andeq	r2, r4, r8, lsl r2
    5cbc:	01400500 	cmpeq	r0, r0, lsl #10
    5cc0:	0006d912 	andeq	sp, r6, r2, lsl r9
    5cc4:	56180000 	ldrpl	r0, [r8], -r0
    5cc8:	05000004 	streq	r0, [r0, #-4]
    5ccc:	d9120141 	ldmdble	r2, {r0, r6, r8}
    5cd0:	06000006 	streq	r0, [r0], -r6
    5cd4:	00047218 	andeq	r7, r4, r8, lsl r2
    5cd8:	01420500 	cmpeq	r2, r0, lsl #10
    5cdc:	00005612 	andeq	r5, r0, r2, lsl r6
    5ce0:	0a000c00 	beq	8ce8 <emit+0x164>
    5ce4:	00000056 	andeq	r0, r0, r6, asr r0
    5ce8:	000006e9 	andeq	r0, r0, r9, ror #13
    5cec:	00002c0b 	andeq	r2, r0, fp, lsl #24
    5cf0:	1b000200 	blne	64f8 <_start-0x1b08>
    5cf4:	028005d0 	addeq	r0, r0, #208, 10	; 0x34000000
    5cf8:	0007fe07 	andeq	pc, r7, r7, lsl #28
    5cfc:	04a61800 	strteq	r1, [r6], #2048	; 0x800
    5d00:	82050000 	andhi	r0, r5, #0
    5d04:	002c1802 	eoreq	r1, ip, r2, lsl #16
    5d08:	18000000 	stmdane	r0, {}	; <UNPREDICTABLE>
    5d0c:	0000045c 	andeq	r0, r0, ip, asr r4
    5d10:	12028305 	andne	r8, r2, #335544320	; 0x14000000
    5d14:	00000117 	andeq	r0, r0, r7, lsl r1
    5d18:	02581804 	subseq	r1, r8, #4, 16	; 0x40000
    5d1c:	84050000 	strhi	r0, [r5], #-0
    5d20:	07fe1002 	ldrbeq	r1, [lr, r2]!
    5d24:	18080000 	stmdane	r8, {}	; <UNPREDICTABLE>
    5d28:	00000506 	andeq	r0, r0, r6, lsl #10
    5d2c:	17028505 	strne	r8, [r2, -r5, lsl #10]
    5d30:	000001a5 	andeq	r0, r0, r5, lsr #3
    5d34:	01c61824 	biceq	r1, r6, r4, lsr #16
    5d38:	86050000 	strhi	r0, [r5], -r0
    5d3c:	00250f02 	eoreq	r0, r5, r2, lsl #30
    5d40:	18480000 	stmdane	r8, {}^	; <UNPREDICTABLE>
    5d44:	000003ce 	andeq	r0, r0, lr, asr #7
    5d48:	2c028705 	stccs	7, cr8, [r2], {5}
    5d4c:	00000064 	andeq	r0, r0, r4, rrx
    5d50:	051c1850 	ldreq	r1, [ip, #-2128]	; 0xfffff7b0
    5d54:	88050000 	stmdahi	r5, {}	; <UNPREDICTABLE>
    5d58:	06a01a02 	strteq	r1, [r0], r2, lsl #20
    5d5c:	18580000 	ldmdane	r8, {}^	; <UNPREDICTABLE>
    5d60:	000003d9 	ldrdeq	r0, [r0], -r9
    5d64:	16028905 	strne	r8, [r2], -r5, lsl #18
    5d68:	000000fd 	strdeq	r0, [r0], -sp
    5d6c:	05211868 	streq	r1, [r1, #-2152]!	; 0xfffff798
    5d70:	8a050000 	bhi	145d78 <__bss_end__+0x13bd78>
    5d74:	00fd1602 	rscseq	r1, sp, r2, lsl #12
    5d78:	18700000 	ldmdane	r0!, {}^	; <UNPREDICTABLE>
    5d7c:	000002e1 	andeq	r0, r0, r1, ror #5
    5d80:	16028b05 	strne	r8, [r2], -r5, lsl #22
    5d84:	000000fd 	strdeq	r0, [r0], -sp
    5d88:	04d11878 	ldrbeq	r1, [r1], #2168	; 0x878
    5d8c:	8c050000 	stchi	0, cr0, [r5], {-0}
    5d90:	080e1002 	stmdaeq	lr, {r1, ip}
    5d94:	18800000 	stmne	r0, {}	; <UNPREDICTABLE>
    5d98:	0000024c 	andeq	r0, r0, ip, asr #4
    5d9c:	10028d05 	andne	r8, r2, r5, lsl #26
    5da0:	0000081e 	andeq	r0, r0, lr, lsl r8
    5da4:	047f1888 	ldrbteq	r1, [pc], #-2184	; 5dac <_start-0x2254>
    5da8:	8e050000 	cdphi	0, 0, cr0, cr5, cr0, {0}
    5dac:	00250f02 	eoreq	r0, r5, r2, lsl #30
    5db0:	18a00000 	stmiane	r0!, {}	; <UNPREDICTABLE>
    5db4:	0000018c 	andeq	r0, r0, ip, lsl #3
    5db8:	16028f05 	strne	r8, [r2], -r5, lsl #30
    5dbc:	000000fd 	strdeq	r0, [r0], -sp
    5dc0:	009d18a4 	addseq	r1, sp, r4, lsr #17
    5dc4:	90050000 	andls	r0, r5, r0
    5dc8:	00fd1602 	rscseq	r1, sp, r2, lsl #12
    5dcc:	18ac0000 	stmiane	ip!, {}	; <UNPREDICTABLE>
    5dd0:	0000017b 	andeq	r0, r0, fp, ror r1
    5dd4:	16029105 	strne	r9, [r2], -r5, lsl #2
    5dd8:	000000fd 	strdeq	r0, [r0], -sp
    5ddc:	004a18b4 	strheq	r1, [sl], #-132	; 0xffffff7c
    5de0:	92050000 	andls	r0, r5, #0
    5de4:	00fd1602 	rscseq	r1, sp, r2, lsl #12
    5de8:	18bc0000 	ldmne	ip!, {}	; <UNPREDICTABLE>
    5dec:	00000059 	andeq	r0, r0, r9, asr r0
    5df0:	16029305 	strne	r9, [r2], -r5, lsl #6
    5df4:	000000fd 	strdeq	r0, [r0], -sp
    5df8:	038118c4 	orreq	r1, r1, #196, 16	; 0xc40000
    5dfc:	94050000 	strls	r0, [r5], #-0
    5e00:	00250802 	eoreq	r0, r5, r2, lsl #16
    5e04:	00cc0000 	sbceq	r0, ip, r0
    5e08:	00011d0a 	andeq	r1, r1, sl, lsl #26
    5e0c:	00080e00 	andeq	r0, r8, r0, lsl #28
    5e10:	002c0b00 	eoreq	r0, ip, r0, lsl #22
    5e14:	00190000 	andseq	r0, r9, r0
    5e18:	00011d0a 	andeq	r1, r1, sl, lsl #26
    5e1c:	00081e00 	andeq	r1, r8, r0, lsl #28
    5e20:	002c0b00 	eoreq	r0, ip, r0, lsl #22
    5e24:	00070000 	andeq	r0, r7, r0
    5e28:	00011d0a 	andeq	r1, r1, sl, lsl #26
    5e2c:	00082e00 	andeq	r2, r8, r0, lsl #28
    5e30:	002c0b00 	eoreq	r0, ip, r0, lsl #22
    5e34:	00170000 	andseq	r0, r7, r0
    5e38:	9905f01b 	stmdbls	r5, {r0, r1, r3, r4, ip, sp, lr, pc}
    5e3c:	08550702 	ldmdaeq	r5, {r1, r8, r9, sl}^
    5e40:	ad180000 	ldcge	0, cr0, [r8, #-0]
    5e44:	05000002 	streq	r0, [r0, #-2]
    5e48:	551b029c 	ldrpl	r0, [fp, #-668]	; 0xfffffd64
    5e4c:	00000008 	andeq	r0, r0, r8
    5e50:	0004c818 	andeq	ip, r4, r8, lsl r8
    5e54:	029d0500 	addseq	r0, sp, #0, 10
    5e58:	00086518 	andeq	r6, r8, r8, lsl r5
    5e5c:	0a007800 	beq	23e64 <__bss_end__+0x19e64>
    5e60:	00000305 	andeq	r0, r0, r5, lsl #6
    5e64:	00000865 	andeq	r0, r0, r5, ror #16
    5e68:	00002c0b 	andeq	r2, r0, fp, lsl #24
    5e6c:	0a001d00 	beq	d274 <__bss_end__+0x3274>
    5e70:	0000002c 	andeq	r0, r0, ip, lsr #32
    5e74:	00000875 	andeq	r0, r0, r5, ror r8
    5e78:	00002c0b 	andeq	r2, r0, fp, lsl #24
    5e7c:	1c001d00 	stcne	13, cr1, [r0], {-0}
    5e80:	027e05f0 	rsbseq	r0, lr, #240, 10	; 0x3c000000
    5e84:	00089a03 	andeq	r9, r8, r3, lsl #20
    5e88:	041b1d00 	ldreq	r1, [fp], #-3328	; 0xfffff300
    5e8c:	95050000 	strls	r0, [r5, #-0]
    5e90:	06e90b02 	strbteq	r0, [r9], r2, lsl #22
    5e94:	f31d0000 	vhadd.u16	d0, d13, d0
    5e98:	05000004 	streq	r0, [r0, #-4]
    5e9c:	2e0b029e 	mcrcs	2, 0, r0, cr11, cr14, {4}
    5ea0:	00000008 	andeq	r0, r0, r8
    5ea4:	00011d0a 	andeq	r1, r1, sl, lsl #26
    5ea8:	0008aa00 	andeq	sl, r8, r0, lsl #20
    5eac:	002c0b00 	eoreq	r0, ip, r0, lsl #22
    5eb0:	00180000 	andseq	r0, r8, r0
    5eb4:	00009206 	andeq	r9, r0, r6, lsl #4
    5eb8:	aa040500 	bge	1072c0 <__bss_end__+0xfd2c0>
    5ebc:	1e000008 	cdpne	0, 0, cr0, cr0, cr8, {0}
    5ec0:	000008c0 	andeq	r0, r0, r0, asr #17
    5ec4:	00046c16 	andeq	r6, r4, r6, lsl ip
    5ec8:	04050000 	streq	r0, [r5], #-0
    5ecc:	000008b5 			; <UNDEFINED> instruction: 0x000008b5
    5ed0:	018f0405 	orreq	r0, pc, r5, lsl #8
    5ed4:	d71e0000 	ldrle	r0, [lr, -r0]
    5ed8:	16000008 	strne	r0, [r0], -r8
    5edc:	00000025 	andeq	r0, r0, r5, lsr #32
    5ee0:	dd040500 	cfstr32le	mvfx0, [r4, #-0]
    5ee4:	05000008 	streq	r0, [r0, #-8]
    5ee8:	0008cc04 	andeq	ip, r8, r4, lsl #24
    5eec:	064e0a00 	strbeq	r0, [lr], -r0, lsl #20
    5ef0:	08f30000 	ldmeq	r3!, {}^	; <UNPREDICTABLE>
    5ef4:	2c0b0000 	stccs	0, cr0, [fp], {-0}
    5ef8:	02000000 	andeq	r0, r0, #0
    5efc:	04931f00 	ldreq	r1, [r3], #3840	; 0xf00
    5f00:	2e050000 	cdpcs	0, 0, cr0, cr5, cr0, {0}
    5f04:	046c1703 	strbteq	r1, [ip], #-1795	; 0xfffff8fd
    5f08:	8c1f0000 	ldchi	0, cr0, [pc], {-0}
    5f0c:	05000004 	streq	r0, [r0, #-4]
    5f10:	721d032f 	andsvc	r0, sp, #-1140850688	; 0xbc000000
    5f14:	15000004 	strne	r0, [r0, #-4]
    5f18:	00000025 	andeq	r0, r0, r5, lsr #32
    5f1c:	0000091c 	andeq	r0, r0, ip, lsl r9
    5f20:	00002516 	andeq	r2, r0, r6, lsl r5
    5f24:	df200000 	svcle	0x00200000
    5f28:	06000001 	streq	r0, [r0], -r1
    5f2c:	09280e1d 	stmdbeq	r8!, {r0, r2, r3, r4, r9, sl, fp}
    5f30:	04050000 	streq	r0, [r5], #-0
    5f34:	0000090d 	andeq	r0, r0, sp, lsl #18
    5f38:	00002515 	andeq	r2, r0, r5, lsl r5
    5f3c:	00093d00 	andeq	r3, r9, r0, lsl #26
    5f40:	05e41600 	strbeq	r1, [r4, #1536]!	; 0x600
    5f44:	20000000 	andcs	r0, r0, r0
    5f48:	0000076d 	andeq	r0, r0, sp, ror #14
    5f4c:	490e2206 	stmdbmi	lr, {r1, r2, r9, sp}
    5f50:	05000009 	streq	r0, [r0, #-9]
    5f54:	00092e04 	andeq	r2, r9, r4, lsl #28
    5f58:	070b0400 	streq	r0, [fp, -r0, lsl #8]
    5f5c:	28070000 	stmdacs	r7, {}	; <UNPREDICTABLE>
    5f60:	00095b1b 	andeq	r5, r9, fp, lsl fp
    5f64:	06f72100 	ldrbteq	r2, [r7], r0, lsl #2
    5f68:	08040000 	stmdaeq	r4, {}	; <UNPREDICTABLE>
    5f6c:	00097200 	andeq	r7, r9, r0, lsl #4
    5f70:	071a2200 	ldreq	r2, [sl, -r0, lsl #4]
    5f74:	01150000 	tsteq	r5, r0
    5f78:	00000000 	andeq	r0, r0, r0
    5f7c:	0006f904 	andeq	pc, r6, r4, lsl #18
    5f80:	18630700 	stmdane	r3!, {r8, r9, sl}^
    5f84:	0000094f 	andeq	r0, r0, pc, asr #18
    5f88:	00070123 	andeq	r0, r7, r3, lsr #2
    5f8c:	057f0100 	ldrbeq	r0, [pc, #-256]!	; 5e94 <_start-0x216c>
    5f90:	00000025 	andeq	r0, r0, r5, lsr #32
    5f94:	00008d84 	andeq	r8, r0, r4, lsl #27
    5f98:	000002b0 			; <UNDEFINED> instruction: 0x000002b0
    5f9c:	0c0e9c01 	stceq	12, cr9, [lr], {1}
    5fa0:	62240000 	eorvs	r0, r4, #0
    5fa4:	01006675 	tsteq	r0, r5, ror r6
    5fa8:	0117157f 	tsteq	r7, pc, ror r5
    5fac:	0aee0000 	beq	ffb85fb4 <__bss_end__+0xffb7bfb4>
    5fb0:	0ae80000 	beq	ffa05fb8 <__bss_end__+0xff9fbfb8>
    5fb4:	6e240000 	cdpvs	0, 2, cr0, cr4, cr0, {0}
    5fb8:	1e7f0100 	rpwnee	f0, f7, f0
    5fbc:	00000025 	andeq	r0, r0, r5, lsr #32
    5fc0:	00000b20 	andeq	r0, r0, r0, lsr #22
    5fc4:	00000b1a 	andeq	r0, r0, sl, lsl fp
    5fc8:	746d6624 	strbtvc	r6, [sp], #-1572	; 0xfffff9dc
    5fcc:	2d7f0100 	ldfcse	f0, [pc, #-0]	; 5fd4 <_start-0x202c>
    5fd0:	000005e4 	andeq	r0, r0, r4, ror #11
    5fd4:	00000b52 	andeq	r0, r0, r2, asr fp
    5fd8:	00000b4e 	andeq	r0, r0, lr, asr #22
    5fdc:	00011825 	andeq	r1, r1, r5, lsr #16
    5fe0:	3a7f0100 	bcc	1fc63e8 <__bss_end__+0x1fbc3e8>
    5fe4:	00000972 	andeq	r0, r0, r2, ror r9
    5fe8:	7edc9103 	atnvce	f1, f3
    5fec:	01007026 	tsteq	r0, r6, lsr #32
    5ff0:	01170880 	tsteq	r7, r0, lsl #17
    5ff4:	0b840000 	bleq	fe105ffc <__bss_end__+0xfe0fbffc>
    5ff8:	0b700000 	bleq	1c06000 <__bss_end__+0x1bfc000>
    5ffc:	65260000 	strvs	r0, [r6, #-0]!
    6000:	12800100 	addne	r0, r0, #0, 2
    6004:	00000117 	andeq	r0, r0, r7, lsl r1
    6008:	00000c06 	andeq	r0, r0, r6, lsl #24
    600c:	00000c02 	andeq	r0, r0, r2, lsl #24
    6010:	00021c27 	andeq	r1, r2, r7, lsr #24
    6014:	000c1e00 	andeq	r1, ip, r0, lsl #28
    6018:	bc030500 	cfstr32lt	mvfx0, [r3], {-0}
    601c:	2800009a 	stmdacs	r0, {r1, r3, r4, r7}
    6020:	00008de8 	andeq	r8, r0, r8, ror #27
    6024:	00000224 	andeq	r0, r0, r4, lsr #4
    6028:	01007326 	tsteq	r0, r6, lsr #6
    602c:	01170a8d 	tsteq	r7, sp, lsl #21
    6030:	0c370000 	ldceq	0, cr0, [r7], #-0
    6034:	0c2d0000 	stceq	0, cr0, [sp], #-0
    6038:	6e290000 	cdpvs	0, 2, cr0, cr9, cr0, {0}
    603c:	01006d75 	tsteq	r0, r5, ror sp
    6040:	0c230d8d 	stceq	13, cr0, [r3], #-564	; 0xfffffdcc
    6044:	91030000 	mrsls	r0, (UNDEF: 3)
    6048:	af2a7ee0 	svcge	0x002a7ee0
    604c:	01000007 	tsteq	r0, r7
    6050:	002c0d8e 	eoreq	r0, ip, lr, lsl #27
    6054:	0c7c0000 	ldcleq	0, cr0, [ip], #-0
    6058:	0c760000 	ldcleq	0, cr0, [r6], #-0
    605c:	102b0000 	eorne	r0, fp, r0
    6060:	ae00008e 	cdpge	0, 0, cr0, cr0, cr14, {4}
    6064:	6800000e 	stmdavs	r0, {r1, r2, r3}
    6068:	2c00000a 	stccs	0, cr0, [r0], {10}
    606c:	75025001 	strvc	r5, [r2, #-1]
    6070:	902d0000 	eorls	r0, sp, r0
    6074:	7f00008e 	svcvc	0x0000008e
    6078:	2b00000f 	blcs	60bc <_start-0x1f44>
    607c:	00008ea4 	andeq	r8, r0, r4, lsr #29
    6080:	00000f8b 	andeq	r0, r0, fp, lsl #31
    6084:	00000aa0 	andeq	r0, r0, r0, lsr #21
    6088:	0550012c 	ldrbeq	r0, [r0, #-300]	; 0xfffffed4
    608c:	009a2803 	addseq	r2, sl, r3, lsl #16
    6090:	51012c00 	tstpl	r1, r0, lsl #24
    6094:	99c40305 	stmibls	r4, {r0, r2, r8, r9}^
    6098:	012c0000 			; <UNDEFINED> instruction: 0x012c0000
    609c:	bc030552 	cfstr32lt	mvfx0, [r3], {82}	; 0x52
    60a0:	2c00009a 	stccs	0, cr0, [r0], {154}	; 0x9a
    60a4:	08025301 	stmdaeq	r2, {r0, r8, r9, ip, lr}
    60a8:	a82d0094 	stmdage	sp!, {r2, r4, r7}
    60ac:	9700008e 	strls	r0, [r0, -lr, lsl #1]
    60b0:	2d00000f 	stccs	0, cr0, [r0, #-60]	; 0xffffffc4
    60b4:	00008eac 	andeq	r8, r0, ip, lsr #29
    60b8:	00000f7f 	andeq	r0, r0, pc, ror pc
    60bc:	008ec02b 	addeq	ip, lr, fp, lsr #32
    60c0:	000f8b00 	andeq	r8, pc, r0, lsl #22
    60c4:	000ae100 	andeq	lr, sl, r0, lsl #2
    60c8:	50012c00 	andpl	r2, r1, r0, lsl #24
    60cc:	9a440305 	bls	1106ce8 <__bss_end__+0x10fcce8>
    60d0:	012c0000 			; <UNDEFINED> instruction: 0x012c0000
    60d4:	c4030551 	strgt	r0, [r3], #-1361	; 0xfffffaaf
    60d8:	2c000099 	stccs	0, cr0, [r0], {153}	; 0x99
    60dc:	03055201 	movweq	r5, #20993	; 0x5201
    60e0:	00009abc 			; <UNDEFINED> instruction: 0x00009abc
    60e4:	0253012c 	subseq	r0, r3, #44, 2
    60e8:	2d009a08 	vstrcs	s18, [r0, #-32]	; 0xffffffe0
    60ec:	00008ec4 	andeq	r8, r0, r4, asr #29
    60f0:	00000f97 	muleq	r0, r7, pc	; <UNPREDICTABLE>
    60f4:	008ef02b 	addeq	pc, lr, fp, lsr #32
    60f8:	000c3300 	andeq	r3, ip, r0, lsl #6
    60fc:	000b1700 	andeq	r1, fp, r0, lsl #14
    6100:	50012c00 	andpl	r2, r1, r0, lsl #24
    6104:	012c3a01 			; <UNDEFINED> instruction: 0x012c3a01
    6108:	d8910351 	ldmle	r1, {r0, r4, r6, r8, r9}
    610c:	52012c7e 	andpl	r2, r1, #32256	; 0x7e00
    6110:	2c800802 	stccs	8, cr0, [r0], {2}
    6114:	02007d02 	andeq	r7, r0, #2, 26	; 0x80
    6118:	022c0076 	eoreq	r0, ip, #118	; 0x76
    611c:	3101047d 	tstcc	r1, sp, ror r4
    6120:	8f402b00 	svchi	0x00402b00
    6124:	0c330000 	ldceq	0, cr0, [r3], #-0
    6128:	0b440000 	bleq	1106130 <__bss_end__+0x10fc130>
    612c:	012c0000 			; <UNDEFINED> instruction: 0x012c0000
    6130:	2c3a0150 	ldfcss	f0, [sl], #-320	; 0xfffffec0
    6134:	91035101 	tstls	r3, r1, lsl #2
    6138:	012c7ed8 	ldrdeq	r7, [ip, -r8]!
    613c:	80080252 	andhi	r0, r8, r2, asr r2
    6140:	007d022c 	rsbseq	r0, sp, ip, lsr #4
    6144:	2c007602 	stccs	6, cr7, [r0], {2}
    6148:	01047d02 	tsteq	r4, r2, lsl #26
    614c:	702b0030 	eorvc	r0, fp, r0, lsr r0
    6150:	3300008f 	movwcc	r0, #143	; 0x8f
    6154:	7100000c 	tstvc	r0, ip
    6158:	2c00000b 	stccs	0, cr0, [r0], {11}
    615c:	40015001 	andmi	r5, r1, r1
    6160:	0351012c 	cmpeq	r1, #44, 2
    6164:	2c7ed891 	ldclcs	8, cr13, [lr], #-580	; 0xfffffdbc
    6168:	08025201 	stmdaeq	r2, {r0, r9, ip, lr}
    616c:	7d022c80 	stcvc	12, cr2, [r2, #-512]	; 0xfffffe00
    6170:	00760200 	rsbseq	r0, r6, r0, lsl #4
    6174:	047d022c 	ldrbteq	r0, [sp], #-556	; 0xfffffdd4
    6178:	2b003001 	blcs	12184 <__bss_end__+0x8184>
    617c:	00008fa0 	andeq	r8, r0, r0, lsr #31
    6180:	00000c33 	andeq	r0, r0, r3, lsr ip
    6184:	00000b9e 	muleq	r0, lr, fp
    6188:	0150012c 	cmpeq	r0, ip, lsr #2
    618c:	51012c32 	tstpl	r1, r2, lsr ip
    6190:	7ed89103 	atnvce	f1, f3
    6194:	0252012c 	subseq	r0, r2, #44, 2
    6198:	022c8008 	eoreq	r8, ip, #8
    619c:	7602007d 			; <UNDEFINED> instruction: 0x7602007d
    61a0:	7d022c00 	stcvc	12, cr2, [r2, #-0]
    61a4:	00300104 	eorseq	r0, r0, r4, lsl #2
    61a8:	008fe42b 	addeq	lr, pc, fp, lsr #8
    61ac:	000c3300 	andeq	r3, ip, r0, lsl #6
    61b0:	000bcb00 	andeq	ip, fp, r0, lsl #22
    61b4:	50012c00 	andpl	r2, r1, r0, lsl #24
    61b8:	012c3801 			; <UNDEFINED> instruction: 0x012c3801
    61bc:	d8910351 	ldmle	r1, {r0, r4, r6, r8, r9}
    61c0:	52012c7e 	andpl	r2, r1, #32256	; 0x7e00
    61c4:	2c800802 	stccs	8, cr0, [r0], {2}
    61c8:	02007d02 	andeq	r7, r0, #2, 26	; 0x80
    61cc:	022c0076 	eoreq	r0, ip, #118	; 0x76
    61d0:	3001047d 	andcc	r0, r1, sp, ror r4
    61d4:	8fec2d00 	svchi	0x00ec2d00
    61d8:	0f7f0000 	svceq	0x007f0000
    61dc:	082b0000 	stmdaeq	fp!, {}	; <UNPREDICTABLE>
    61e0:	8b000090 	blhi	6428 <_start-0x1bd8>
    61e4:	0300000f 	movweq	r0, #15
    61e8:	2c00000c 	stccs	0, cr0, [r0], {12}
    61ec:	03055001 	movweq	r5, #20481	; 0x5001
    61f0:	00009a6c 	andeq	r9, r0, ip, ror #20
    61f4:	0551012c 	ldrbeq	r0, [r1, #-300]	; 0xfffffed4
    61f8:	0099c403 	addseq	ip, r9, r3, lsl #8
    61fc:	52012c00 	andpl	r2, r1, #0, 24
    6200:	9abc0305 	bls	fef06e1c <__bss_end__+0xfeefce1c>
    6204:	012c0000 			; <UNDEFINED> instruction: 0x012c0000
    6208:	bb080253 	bllt	206b5c <__bss_end__+0x1fcb5c>
    620c:	900c2d00 	andls	r2, ip, r0, lsl #26
    6210:	0f970000 	svceq	0x00970000
    6214:	00000000 	andeq	r0, r0, r0
    6218:	0001240a 	andeq	r2, r1, sl, lsl #8
    621c:	000c1e00 	andeq	r1, ip, r0, lsl #28
    6220:	002c0b00 	eoreq	r0, ip, r0, lsl #22
    6224:	00090000 	andeq	r0, r9, r0
    6228:	000c0e0f 	andeq	r0, ip, pc, lsl #28
    622c:	011d0a00 	tsteq	sp, r0, lsl #20
    6230:	0c330000 	ldceq	0, cr0, [r3], #-0
    6234:	2c0b0000 	stccs	0, cr0, [fp], {-0}
    6238:	7f000000 	svcvc	0x00000000
    623c:	07d32e00 	ldrbeq	r2, [r3, r0, lsl #28]
    6240:	47010000 	strmi	r0, [r1, -r0]
    6244:	0001170e 	andeq	r1, r1, lr, lsl #14
    6248:	008b8400 	addeq	r8, fp, r0, lsl #8
    624c:	0001ac00 	andeq	sl, r1, r0, lsl #24
    6250:	999c0100 	ldmibls	ip, {r8}
    6254:	2f00000d 	svccs	0x0000000d
    6258:	000000ca 	andeq	r0, r0, sl, asr #1
    625c:	2c1c4701 	ldccs	7, cr4, [ip], {1}
    6260:	ac000000 	stcge	0, cr0, [r0], {-0}
    6264:	a600000c 	strge	r0, [r0], -ip
    6268:	2400000c 	strcs	r0, [r0], #-12
    626c:	00747364 	rsbseq	r7, r4, r4, ror #6
    6270:	17284701 	strne	r4, [r8, -r1, lsl #14]!
    6274:	ea000001 	b	6280 <_start-0x1d80>
    6278:	da00000c 	ble	62b0 <_start-0x1d50>
    627c:	2400000c 	strcs	r0, [r0], #-12
    6280:	4701006e 	strmi	r0, [r1, -lr, rrx]
    6284:	00002531 	andeq	r2, r0, r1, lsr r5
    6288:	000d4e00 	andeq	r4, sp, r0, lsl #28
    628c:	000d4a00 	andeq	r4, sp, r0, lsl #20
    6290:	61762400 	cmnvs	r6, r0, lsl #8
    6294:	4701006c 	strmi	r0, [r1, -ip, rrx]
    6298:	00002538 	andeq	r2, r0, r8, lsr r5
    629c:	000d7600 	andeq	r7, sp, r0, lsl #12
    62a0:	000d6c00 	andeq	r6, sp, r0, lsl #24
    62a4:	07af2f00 	streq	r2, [pc, r0, lsl #30]!
    62a8:	47010000 	strmi	r0, [r1, -r0]
    62ac:	00002541 	andeq	r2, r0, r1, asr #10
    62b0:	000dc100 	andeq	ip, sp, r0, lsl #2
    62b4:	000dbb00 	andeq	fp, sp, r0, lsl #22
    62b8:	079e2500 	ldreq	r2, [lr, r0, lsl #10]
    62bc:	47010000 	strmi	r0, [r1, -r0]
    62c0:	0000254c 	andeq	r2, r0, ip, asr #10
    62c4:	04910200 	ldreq	r0, [r1], #512	; 0x200
    62c8:	66756229 	ldrbtvs	r6, [r5], -r9, lsr #4
    62cc:	074c0100 	strbeq	r0, [ip, -r0, lsl #2]
    62d0:	00000d99 	muleq	r0, r9, sp
    62d4:	7fa89103 	svcvc	0x00a89103
    62d8:	01007026 	tsteq	r0, r6, lsr #32
    62dc:	0117114c 	tsteq	r7, ip, asr #2
    62e0:	0e0b0000 	cdpeq	0, 0, cr0, cr11, cr0, {0}
    62e4:	0deb0000 	stcleq	0, cr0, [fp]
    62e8:	75260000 	strvc	r0, [r6, #-0]!
    62ec:	0b4d0100 	bleq	13466f4 <__bss_end__+0x133c6f4>
    62f0:	0000002c 	andeq	r0, r0, ip, lsr #32
    62f4:	00000ee0 	andeq	r0, r0, r0, ror #29
    62f8:	00000ece 	andeq	r0, r0, lr, asr #29
    62fc:	00021c27 	andeq	r1, r2, r7, lsr #24
    6300:	000db900 	andeq	fp, sp, r0, lsl #18
    6304:	a4030500 	strge	r0, [r3], #-1280	; 0xfffffb00
    6308:	3000009a 	mulcc	r0, sl, r0
    630c:	00008bf0 	strdeq	r8, [r0], -r0
    6310:	00000078 	andeq	r0, r0, r8, ror r0
    6314:	00000d23 	andeq	r0, r0, r3, lsr #26
    6318:	0007bd2a 	andeq	fp, r7, sl, lsr #26
    631c:	0d520100 	ldfeqe	f0, [r2, #-0]
    6320:	0000002c 	andeq	r0, r0, ip, lsr #32
    6324:	00000f56 	andeq	r0, r0, r6, asr pc
    6328:	00000f4e 	andeq	r0, r0, lr, asr #30
    632c:	8ca82b00 	vstmiahi	r8!, {d2-d1}
    6330:	0e4b0000 	cdpeq	0, 4, cr0, cr11, cr0, {0}
    6334:	0d370000 	ldceq	0, cr0, [r7, #-0]
    6338:	012c0000 			; <UNDEFINED> instruction: 0x012c0000
    633c:	007d0251 	rsbseq	r0, sp, r1, asr r2
    6340:	8cbc2b00 	vldmiahi	ip!, {d2-d1}
    6344:	0dbe0000 	ldceq	0, cr0, [lr]
    6348:	0d570000 	ldcleq	0, cr0, [r7, #-0]
    634c:	012c0000 			; <UNDEFINED> instruction: 0x012c0000
    6350:	00750250 	rsbseq	r0, r5, r0, asr r2
    6354:	0251012c 	subseq	r0, r1, #44, 2
    6358:	012c0074 			; <UNDEFINED> instruction: 0x012c0074
    635c:	007d0253 	rsbseq	r0, sp, r3, asr r2
    6360:	8cfc2d00 	ldclhi	13, cr2, [ip]
    6364:	0f7f0000 	svceq	0x007f0000
    6368:	102b0000 	eorne	r0, fp, r0
    636c:	8b00008d 	blhi	65a8 <_start-0x1a58>
    6370:	8f00000f 	svchi	0x0000000f
    6374:	2c00000d 	stccs	0, cr0, [r0], {13}
    6378:	03055001 	movweq	r5, #20481	; 0x5001
    637c:	000099d8 	ldrdeq	r9, [r0], -r8
    6380:	0551012c 	ldrbeq	r0, [r1, #-300]	; 0xfffffed4
    6384:	0099c403 	addseq	ip, r9, r3, lsl #8
    6388:	52012c00 	andpl	r2, r1, #0, 24
    638c:	9aa40305 	bls	fe906fa8 <__bss_end__+0xfe8fcfa8>
    6390:	012c0000 			; <UNDEFINED> instruction: 0x012c0000
    6394:	77080253 	smlsdvc	r8, r3, r2, r0
    6398:	8d142d00 	ldchi	13, cr2, [r4, #-0]
    639c:	0f970000 	svceq	0x00970000
    63a0:	0a000000 	beq	63a8 <_start-0x1c58>
    63a4:	0000011d 	andeq	r0, r0, sp, lsl r1
    63a8:	00000da9 	andeq	r0, r0, r9, lsr #27
    63ac:	00002c0b 	andeq	r2, r0, fp, lsl #24
    63b0:	0a003f00 	beq	15fb8 <__bss_end__+0xbfb8>
    63b4:	00000124 	andeq	r0, r0, r4, lsr #2
    63b8:	00000db9 			; <UNDEFINED> instruction: 0x00000db9
    63bc:	00002c0b 	andeq	r2, r0, fp, lsl #24
    63c0:	0f000400 	svceq	0x00000400
    63c4:	00000da9 	andeq	r0, r0, r9, lsr #27
    63c8:	0007a72e 	andeq	sl, r7, lr, lsr #14
    63cc:	0e370100 	rsfeqs	f0, f7, f0
    63d0:	00000117 	andeq	r0, r0, r7, lsl r1
    63d4:	00008b4c 	andeq	r8, r0, ip, asr #22
    63d8:	00000038 	andeq	r0, r0, r8, lsr r0
    63dc:	0e4b9c01 	cdpeq	12, 4, cr9, cr11, cr1, {0}
    63e0:	64240000 	strtvs	r0, [r4], #-0
    63e4:	01007473 	tsteq	r0, r3, ror r4
    63e8:	01171c37 	tsteq	r7, r7, lsr ip
    63ec:	0f970000 	svceq	0x00970000
    63f0:	0f8d0000 	svceq	0x008d0000
    63f4:	6e240000 	cdpvs	0, 2, cr0, cr4, cr0, {0}
    63f8:	25370100 	ldrcs	r0, [r7, #-256]!	; 0xffffff00
    63fc:	00000025 	andeq	r0, r0, r5, lsr #32
    6400:	00000fde 	ldrdeq	r0, [r0], -lr
    6404:	00000fda 	ldrdeq	r0, [r0], -sl
    6408:	01007024 	tsteq	r0, r4, lsr #32
    640c:	01172e37 	tsteq	r7, r7, lsr lr
    6410:	10070000 	andne	r0, r7, r0
    6414:	0fff0000 	svceq	0x00ff0000
    6418:	0a2f0000 	beq	bc6420 <__bss_end__+0xbbc420>
    641c:	0100000c 	tsteq	r0, ip
    6420:	01173737 	tsteq	r7, r7, lsr r7
    6424:	10410000 	subne	r0, r1, r0
    6428:	103d0000 	eorsne	r0, sp, r0
    642c:	6c260000 	stcvs	0, cr0, [r6], #-0
    6430:	01006e65 	tsteq	r0, r5, ror #28
    6434:	00250639 	eoreq	r0, r5, r9, lsr r6
    6438:	10670000 	rsbne	r0, r7, r0
    643c:	105f0000 	subsne	r0, pc, r0
    6440:	73260000 			; <UNDEFINED> instruction: 0x73260000
    6444:	083d0100 	ldmdaeq	sp!, {r8}
    6448:	00000117 	andeq	r0, r0, r7, lsl r1
    644c:	000010b5 	strheq	r1, [r0], -r5
    6450:	000010b3 	strheq	r1, [r0], -r3
    6454:	61703100 	cmnvs	r0, r0, lsl #2
    6458:	2e010064 	cdpcs	0, 0, cr0, cr1, cr4, {3}
    645c:	0001170e 	andeq	r1, r1, lr, lsl #14
    6460:	008b2800 	addeq	r2, fp, r0, lsl #16
    6464:	00002400 	andeq	r2, r0, r0, lsl #8
    6468:	ae9c0100 	fmlgee	f0, f4, f0
    646c:	2400000e 	strcs	r0, [r0], #-14
    6470:	2e010070 	mcrcs	0, 0, r0, cr1, cr0, {3}
    6474:	00011718 	andeq	r1, r1, r8, lsl r7
    6478:	0010ce00 	andseq	ip, r0, r0, lsl #28
    647c:	0010c800 	andseq	ip, r0, r0, lsl #16
    6480:	00ca2f00 	sbceq	r2, sl, r0, lsl #30
    6484:	2e010000 	cdpcs	0, 0, cr0, cr1, cr0, {0}
    6488:	00011722 	andeq	r1, r1, r2, lsr #14
    648c:	0010fd00 	andseq	pc, r0, r0, lsl #26
    6490:	0010f900 	andseq	pc, r0, r0, lsl #18
    6494:	07af2500 	streq	r2, [pc, r0, lsl #10]!
    6498:	2e010000 	cdpcs	0, 0, cr0, cr1, cr0, {0}
    649c:	0000252c 	andeq	r2, r0, ip, lsr #10
    64a0:	26520100 	ldrbcs	r0, [r2], -r0, lsl #2
    64a4:	006e656c 	rsbeq	r6, lr, ip, ror #10
    64a8:	25062f01 	strcs	r2, [r6, #-3841]	; 0xfffff0ff
    64ac:	20000000 	andcs	r0, r0, r0
    64b0:	1e000011 	mcrne	0, 0, r0, cr0, cr1, {0}
    64b4:	00000011 	andeq	r0, r0, r1, lsl r0
    64b8:	0007cb2e 	andeq	ip, r7, lr, lsr #22
    64bc:	0c270100 	stfeqs	f0, [r7], #-0
    64c0:	00000025 	andeq	r0, r0, r5, lsr #32
    64c4:	00008b14 	andeq	r8, r0, r4, lsl fp
    64c8:	00000014 	andeq	r0, r0, r4, lsl r0
    64cc:	0edb9c01 	cdpeq	12, 13, cr9, cr11, cr1, {0}
    64d0:	63240000 			; <UNDEFINED> instruction: 0x63240000
    64d4:	18270100 	stmdane	r7!, {r8}
    64d8:	00000025 	andeq	r0, r0, r5, lsr #32
    64dc:	00001139 	andeq	r1, r0, r9, lsr r1
    64e0:	00001133 	andeq	r1, r0, r3, lsr r1
    64e4:	078f3200 	streq	r3, [pc, r0, lsl #4]
    64e8:	1f010000 	svcne	0x00010000
    64ec:	008d3006 	addeq	r3, sp, r6
    64f0:	00005400 	andeq	r5, r0, r0, lsl #8
    64f4:	6a9c0100 	bvs	fe7068fc <__bss_end__+0xfe6fc8fc>
    64f8:	2f00000f 	svccs	0x0000000f
    64fc:	000007c3 	andeq	r0, r0, r3, asr #15
    6500:	281b1f01 	ldmdacs	fp, {r0, r8, r9, sl, fp, ip}
    6504:	6b000009 	blvs	6530 <_start-0x1ad0>
    6508:	67000011 	smladvs	r0, r1, r0, r0
    650c:	2f000011 	svccs	0x00000011
    6510:	000007b5 			; <UNDEFINED> instruction: 0x000007b5
    6514:	49301f01 	ldmdbmi	r0!, {r0, r8, r9, sl, fp, ip}
    6518:	90000009 	andls	r0, r0, r9
    651c:	8c000011 	stchi	0, cr0, [r0], {17}
    6520:	27000011 	smladcs	r0, r1, r0, r0
    6524:	0000021c 	andeq	r0, r0, ip, lsl r2
    6528:	00000f7a 	andeq	r0, r0, sl, ror pc
    652c:	9aac0305 	bls	feb07148 <__bss_end__+0xfeafd148>
    6530:	582d0000 	stmdapl	sp!, {}	; <UNPREDICTABLE>
    6534:	7f00008d 	svcvc	0x0000008d
    6538:	2b00000f 	blcs	657c <_start-0x1a84>
    653c:	00008d6c 	andeq	r8, r0, ip, ror #26
    6540:	00000f8b 	andeq	r0, r0, fp, lsl #31
    6544:	00000f60 	andeq	r0, r0, r0, ror #30
    6548:	0550012c 	ldrbeq	r0, [r0, #-300]	; 0xfffffed4
    654c:	009a1003 	addseq	r1, sl, r3
    6550:	51012c00 	tstpl	r1, r0, lsl #24
    6554:	99c40305 	stmibls	r4, {r0, r2, r8, r9}^
    6558:	012c0000 			; <UNDEFINED> instruction: 0x012c0000
    655c:	ac030552 	cfstr32ge	mvfx0, [r3], {82}	; 0x52
    6560:	2c00009a 	stccs	0, cr0, [r0], {154}	; 0x9a
    6564:	08025301 	stmdaeq	r2, {r0, r8, r9, ip, lr}
    6568:	702d0020 	eorvc	r0, sp, r0, lsr #32
    656c:	9700008d 	strls	r0, [r0, -sp, lsl #1]
    6570:	0000000f 	andeq	r0, r0, pc
    6574:	0001240a 	andeq	r2, r1, sl, lsl #8
    6578:	000f7a00 	andeq	r7, pc, r0, lsl #20
    657c:	002c0b00 	eoreq	r0, ip, r0, lsl #22
    6580:	000e0000 	andeq	r0, lr, r0
    6584:	000f6a0f 	andeq	r6, pc, pc, lsl #20
    6588:	01f73300 	mvnseq	r3, r0, lsl #6
    658c:	01f70000 	mvnseq	r0, r0
    6590:	1e060000 	cdpne	0, 0, cr0, cr6, cr0, {0}
    6594:	07043306 	streq	r3, [r4, -r6, lsl #6]
    6598:	07040000 	streq	r0, [r4, -r0]
    659c:	29060000 	stmdbcs	r6, {}	; <UNPREDICTABLE>
    65a0:	02a03305 	adceq	r3, r0, #335544320	; 0x14000000
    65a4:	02a00000 	adceq	r0, r0, #0
    65a8:	65060000 	strvs	r0, [r6, #-0]
    65ac:	09ab0006 	stmibeq	fp!, {r1, r2}
    65b0:	00040000 	andeq	r0, r4, r0
    65b4:	000013be 			; <UNDEFINED> instruction: 0x000013be
    65b8:	03020104 	movweq	r0, #8452	; 0x2104
    65bc:	d80c0000 	stmdale	ip, {}	; <UNPREDICTABLE>
    65c0:	c6000007 	strgt	r0, [r0], -r7
    65c4:	34000006 	strcc	r0, [r0], #-6
    65c8:	28000090 	stmdacs	r0, {r4, r7}
    65cc:	07000000 	streq	r0, [r0, -r0]
    65d0:	02000014 	andeq	r0, r0, #20
    65d4:	6e690504 	cdpvs	5, 6, cr0, cr9, cr4, {0}
    65d8:	04030074 	streq	r0, [r3], #-116	; 0xffffff8c
    65dc:	00007407 	andeq	r7, r0, r7, lsl #8
    65e0:	06010300 	streq	r0, [r1], -r0, lsl #6
    65e4:	000002f1 	strdeq	r0, [r0], -r1
    65e8:	8a050203 	bhi	146dfc <__bss_end__+0x13cdfc>
    65ec:	03000003 	movweq	r0, #3
    65f0:	00ba0504 	adcseq	r0, sl, r4, lsl #10
    65f4:	08030000 	stmdaeq	r3, {}	; <UNPREDICTABLE>
    65f8:	0000b505 	andeq	fp, r0, r5, lsl #10
    65fc:	08010300 	stmdaeq	r1, {r8, r9}
    6600:	000002ef 	andeq	r0, r0, pc, ror #5
    6604:	30070203 	andcc	r0, r7, r3, lsl #4
    6608:	03000002 	movweq	r0, #2
    660c:	006f0704 	rsbeq	r0, pc, r4, lsl #14
    6610:	08030000 	stmdaeq	r3, {}	; <UNPREDICTABLE>
    6614:	00006a07 	andeq	r6, r0, r7, lsl #20
    6618:	02730400 	rsbseq	r0, r3, #0, 8
    661c:	22020000 	andcs	r0, r2, #0
    6620:	00007719 	andeq	r7, r0, r9, lsl r7
    6624:	7d040500 	cfstr32vc	mvfx0, [r4, #-0]
    6628:	06000000 	streq	r0, [r0], -r0
    662c:	00000430 	andeq	r0, r0, r0, lsr r4
    6630:	0002d004 	andeq	sp, r2, r4
    6634:	0e2c0300 	cdpeq	3, 2, cr0, cr12, cr0, {0}
    6638:	00000041 	andeq	r0, r0, r1, asr #32
    663c:	00044504 	andeq	r4, r4, r4, lsl #10
    6640:	0e720300 	cdpeq	3, 7, cr0, cr2, cr0, {0}
    6644:	00000041 	andeq	r0, r0, r1, asr #32
    6648:	00027b07 	andeq	r7, r2, r7, lsl #22
    664c:	015e0400 	cmpeq	lr, r0, lsl #8
    6650:	00002c17 	andeq	r2, r0, r7, lsl ip
    6654:	03040800 	movweq	r0, #18432	; 0x4800
    6658:	00c903a6 	sbceq	r0, r9, r6, lsr #7
    665c:	6d090000 	stcvs	0, cr0, [r9, #-0]
    6660:	03000002 	movweq	r0, #2
    6664:	009a0ca8 	addseq	r0, sl, r8, lsr #25
    6668:	f0090000 			; <UNDEFINED> instruction: 0xf0090000
    666c:	03000001 	movweq	r0, #1
    6670:	00c913a9 	sbceq	r1, r9, r9, lsr #7
    6674:	0a000000 	beq	667c <_start-0x1984>
    6678:	0000004f 	andeq	r0, r0, pc, asr #32
    667c:	000000d9 	ldrdeq	r0, [r0], -r9
    6680:	00002c0b 	andeq	r2, r0, fp, lsl #24
    6684:	0c000300 	stceq	3, cr0, [r0], {-0}
    6688:	09a30308 	stmibeq	r3!, {r3, r8, r9}
    668c:	000000fd 	strdeq	r0, [r0], -sp
    6690:	0004280d 	andeq	r2, r4, sp, lsl #16
    6694:	07a50300 	streq	r0, [r5, r0, lsl #6]!
    6698:	00000025 	andeq	r0, r0, r5, lsr #32
    669c:	04370d00 	ldrteq	r0, [r7], #-3328	; 0xfffff300
    66a0:	aa030000 	bge	c66a8 <__bss_end__+0xbc6a8>
    66a4:	0000a705 	andeq	sl, r0, r5, lsl #14
    66a8:	04000400 	streq	r0, [r0], #-1024	; 0xfffffc00
    66ac:	000003b2 			; <UNDEFINED> instruction: 0x000003b2
    66b0:	d903ab03 	stmdble	r3, {r0, r1, r8, r9, fp, sp, pc}
    66b4:	04000000 	streq	r0, [r0], #-0
    66b8:	000001ad 	andeq	r0, r0, sp, lsr #3
    66bc:	6b1baf03 	blvs	6f22d0 <__bss_end__+0x6e82d0>
    66c0:	0e000000 	cdpeq	0, 0, cr0, cr0, cr0, {0}
    66c4:	1d040504 	cfstr32ne	mvfx0, [r4, #-16]
    66c8:	03000001 	movweq	r0, #1
    66cc:	02f80801 	rscseq	r0, r8, #65536	; 0x10000
    66d0:	1d0f0000 	stcne	0, cr0, [pc, #-0]	; 66d8 <_start-0x1928>
    66d4:	04000001 	streq	r0, [r0], #-1
    66d8:	00000477 	andeq	r0, r0, r7, ror r4
    66dc:	5d191605 	ldcpl	6, cr1, [r9, #-20]	; 0xffffffec
    66e0:	10000000 	andne	r0, r0, r0
    66e4:	000001be 			; <UNDEFINED> instruction: 0x000001be
    66e8:	082f0518 	stmdaeq	pc!, {r3, r4, r8, sl}	; <UNPREDICTABLE>
    66ec:	0000018f 	andeq	r0, r0, pc, lsl #3
    66f0:	0003d30d 	andeq	sp, r3, sp, lsl #6
    66f4:	13310500 	teqne	r1, #0, 10
    66f8:	0000018f 	andeq	r0, r0, pc, lsl #3
    66fc:	6b5f1100 	blvs	17cab04 <__bss_end__+0x17c0b04>
    6700:	07320500 	ldreq	r0, [r2, -r0, lsl #10]!
    6704:	00000025 	andeq	r0, r0, r5, lsr #32
    6708:	04130d04 	ldreq	r0, [r3], #-3332	; 0xfffff2fc
    670c:	32050000 	andcc	r0, r5, #0
    6710:	0000250b 	andeq	r2, r0, fp, lsl #10
    6714:	a70d0800 	strge	r0, [sp, -r0, lsl #16]
    6718:	05000001 	streq	r0, [r0, #-1]
    671c:	00251432 	eoreq	r1, r5, r2, lsr r4
    6720:	0d0c0000 	stceq	0, cr0, [ip, #-0]
    6724:	000004b3 			; <UNDEFINED> instruction: 0x000004b3
    6728:	251b3205 	ldrcs	r3, [fp, #-517]	; 0xfffffdfb
    672c:	10000000 	andne	r0, r0, r0
    6730:	00785f11 	rsbseq	r5, r8, r1, lsl pc
    6734:	950b3305 	strls	r3, [fp, #-773]	; 0xfffffcfb
    6738:	14000001 	strne	r0, [r0], #-1
    673c:	35040500 	strcc	r0, [r4, #-1280]	; 0xfffffb00
    6740:	0a000001 	beq	674c <_start-0x18b4>
    6744:	00000129 	andeq	r0, r0, r9, lsr #2
    6748:	000001a5 	andeq	r0, r0, r5, lsr #3
    674c:	00002c0b 	andeq	r2, r0, fp, lsl #24
    6750:	10000000 	andne	r0, r0, r0
    6754:	000001eb 	andeq	r0, r0, fp, ror #3
    6758:	08370524 	ldmdaeq	r7!, {r2, r5, r8, sl}
    675c:	00000228 	andeq	r0, r0, r8, lsr #4
    6760:	0000ac0d 	andeq	sl, r0, sp, lsl #24
    6764:	09390500 	ldmdbeq	r9!, {r8, sl}
    6768:	00000025 	andeq	r0, r0, r5, lsr #32
    676c:	044d0d00 	strbeq	r0, [sp], #-3328	; 0xfffff300
    6770:	3a050000 	bcc	146778 <__bss_end__+0x13c778>
    6774:	00002509 	andeq	r2, r0, r9, lsl #10
    6778:	cf0d0400 	svcgt	0x000d0400
    677c:	05000000 	streq	r0, [r0, #-0]
    6780:	0025093b 	eoreq	r0, r5, fp, lsr r9
    6784:	0d080000 	stceq	0, cr0, [r8, #-0]
    6788:	00000534 	andeq	r0, r0, r4, lsr r5
    678c:	25093c05 	strcs	r3, [r9, #-3077]	; 0xfffff3fb
    6790:	0c000000 	stceq	0, cr0, [r0], {-0}
    6794:	0002b40d 	andeq	fp, r2, sp, lsl #8
    6798:	093d0500 	ldmdbeq	sp!, {r8, sl}
    679c:	00000025 	andeq	r0, r0, r5, lsr #32
    67a0:	02960d10 	addseq	r0, r6, #16, 26	; 0x400
    67a4:	3e050000 	cdpcc	0, 0, cr0, cr5, cr0, {0}
    67a8:	00002509 	andeq	r2, r0, r9, lsl #10
    67ac:	b80d1400 	stmdalt	sp, {sl, ip}
    67b0:	05000004 	streq	r0, [r0, #-4]
    67b4:	0025093f 	eoreq	r0, r5, pc, lsr r9
    67b8:	0d180000 	ldceq	0, cr0, [r8, #-0]
    67bc:	00000394 	muleq	r0, r4, r3
    67c0:	25094005 	strcs	r4, [r9, #-5]
    67c4:	1c000000 	stcne	0, cr0, [r0], {-0}
    67c8:	0004fb0d 	andeq	pc, r4, sp, lsl #22
    67cc:	09410500 	stmdbeq	r1, {r8, sl}^
    67d0:	00000025 	andeq	r0, r0, r5, lsr #32
    67d4:	0f120020 	svceq	0x00120020
    67d8:	08000001 	stmdaeq	r0, {r0}
    67dc:	084a0501 	stmdaeq	sl, {r0, r8, sl}^
    67e0:	0000026d 	andeq	r0, r0, sp, ror #4
    67e4:	00019a0d 	andeq	r9, r1, sp, lsl #20
    67e8:	0a4b0500 	beq	12c7bf0 <__bss_end__+0x12bdbf0>
    67ec:	0000026d 	andeq	r0, r0, sp, ror #4
    67f0:	00000d00 	andeq	r0, r0, r0, lsl #26
    67f4:	4c050000 	stcmi	0, cr0, [r5], {-0}
    67f8:	00026d09 	andeq	r6, r2, r9, lsl #26
    67fc:	69138000 	ldmdbvs	r3, {pc}
    6800:	05000004 	streq	r0, [r0, #-4]
    6804:	01290a4e 			; <UNDEFINED> instruction: 0x01290a4e
    6808:	01000000 	mrseq	r0, (UNDEF: 0)
    680c:	00013413 	andeq	r3, r1, r3, lsl r4
    6810:	0a510500 	beq	1447c18 <__bss_end__+0x143dc18>
    6814:	00000129 	andeq	r0, r0, r9, lsr #2
    6818:	0a000104 	beq	6c30 <_start-0x13d0>
    681c:	00000115 	andeq	r0, r0, r5, lsl r1
    6820:	0000027d 	andeq	r0, r0, sp, ror r2
    6824:	00002c0b 	andeq	r2, r0, fp, lsl #24
    6828:	12001f00 	andne	r1, r0, #0, 30
    682c:	000002bd 			; <UNDEFINED> instruction: 0x000002bd
    6830:	5d050190 	stfpls	f0, [r5, #-576]	; 0xfffffdc0
    6834:	0002c008 	andeq	ip, r2, r8
    6838:	03d30d00 	bicseq	r0, r3, #0, 26
    683c:	5e050000 	cdppl	0, 0, cr0, cr5, cr0, {0}
    6840:	0002c012 	andeq	ip, r2, r2, lsl r0
    6844:	eb0d0000 	bl	34684c <__bss_end__+0x33c84c>
    6848:	05000003 	streq	r0, [r0, #-3]
    684c:	0025065f 	eoreq	r0, r5, pc, asr r6
    6850:	0d040000 	stceq	0, cr0, [r4, #-0]
    6854:	000001a2 	andeq	r0, r0, r2, lsr #3
    6858:	c6096105 	strgt	r6, [r9], -r5, lsl #2
    685c:	08000002 	stmdaeq	r0, {r1}
    6860:	00010f0d 	andeq	r0, r1, sp, lsl #30
    6864:	1e620500 	cdpne	5, 6, cr0, cr2, cr0, {0}
    6868:	00000228 	andeq	r0, r0, r8, lsr #4
    686c:	04050088 	streq	r0, [r5], #-136	; 0xffffff78
    6870:	0000027d 	andeq	r0, r0, sp, ror r2
    6874:	0002d60a 	andeq	sp, r2, sl, lsl #12
    6878:	0002d600 	andeq	sp, r2, r0, lsl #12
    687c:	002c0b00 	eoreq	r0, ip, r0, lsl #22
    6880:	001f0000 	andseq	r0, pc, r0
    6884:	02dc0405 	sbcseq	r0, ip, #83886080	; 0x5000000
    6888:	10140000 	andsne	r0, r4, r0
    688c:	0000039e 	muleq	r0, lr, r3
    6890:	08750508 	ldmdaeq	r5!, {r3, r8, sl}^
    6894:	00000305 	andeq	r0, r0, r5, lsl #6
    6898:	0000c90d 	andeq	ip, r0, sp, lsl #18
    689c:	11760500 	cmnne	r6, r0, lsl #10
    68a0:	00000305 	andeq	r0, r0, r5, lsl #6
    68a4:	001b0d00 	andseq	r0, fp, r0, lsl #26
    68a8:	77050000 	strvc	r0, [r5, -r0]
    68ac:	00002506 	andeq	r2, r0, r6, lsl #10
    68b0:	05000400 	streq	r0, [r0, #-1024]	; 0xfffffc00
    68b4:	00004f04 	andeq	r4, r0, r4, lsl #30
    68b8:	03bd1000 			; <UNDEFINED> instruction: 0x03bd1000
    68bc:	05680000 	strbeq	r0, [r8, #-0]!
    68c0:	044e08b5 	strbeq	r0, [lr], #-2229	; 0xfffff74b
    68c4:	5f110000 	svcpl	0x00110000
    68c8:	b6050070 			; <UNDEFINED> instruction: 0xb6050070
    68cc:	00030512 	andeq	r0, r3, r2, lsl r5
    68d0:	5f110000 	svcpl	0x00110000
    68d4:	b7050072 	smlsdxlt	r5, r2, r0, r0
    68d8:	00002507 	andeq	r2, r0, r7, lsl #10
    68dc:	5f110400 	svcpl	0x00110400
    68e0:	b8050077 	stmdalt	r5, {r0, r1, r2, r4, r5, r6}
    68e4:	00002507 	andeq	r2, r0, r7, lsl #10
    68e8:	2d0d0800 	stccs	8, cr0, [sp, #-0]
    68ec:	05000001 	streq	r0, [r0, #-1]
    68f0:	003a09b9 	ldrhteq	r0, [sl], -r9
    68f4:	0d0c0000 	stceq	0, cr0, [ip, #-0]
    68f8:	00000216 	andeq	r0, r0, r6, lsl r2
    68fc:	3a09ba05 	bcc	275118 <__bss_end__+0x26b118>
    6900:	0e000000 	cdpeq	0, 0, cr0, cr0, cr0, {0}
    6904:	66625f11 	uqadd16vs	r5, r2, r1
    6908:	11bb0500 			; <UNDEFINED> instruction: 0x11bb0500
    690c:	000002dd 	ldrdeq	r0, [r0], -sp
    6910:	00890d10 	addeq	r0, r9, r0, lsl sp
    6914:	bc050000 	stclt	0, cr0, [r5], {-0}
    6918:	00002507 	andeq	r2, r0, r7, lsl #10
    691c:	1d0d1800 	stcne	8, cr1, [sp, #-0]
    6920:	05000001 	streq	r0, [r0, #-1]
    6924:	01150ac3 	tsteq	r5, r3, asr #21
    6928:	0d1c0000 	ldceq	0, cr0, [ip, #-0]
    692c:	00000b29 	andeq	r0, r0, r9, lsr #22
    6930:	c01dc505 	andsgt	ip, sp, r5, lsl #10
    6934:	20000005 	andcs	r0, r0, r5
    6938:	00061e0d 	andeq	r1, r6, sp, lsl #28
    693c:	1dc70500 	cfstr64ne	mvdx0, [r7]
    6940:	000005ea 	andeq	r0, r0, sl, ror #11
    6944:	043f0d24 	ldrteq	r0, [pc], #-3364	; 694c <_start-0x16b4>
    6948:	ca050000 	bgt	146950 <__bss_end__+0x13c950>
    694c:	00060e0d 	andeq	r0, r6, sp, lsl #28
    6950:	150d2800 	strne	r2, [sp, #-2048]	; 0xfffff800
    6954:	05000005 	streq	r0, [r0, #-5]
    6958:	062809cb 	strteq	r0, [r8], -fp, asr #19
    695c:	112c0000 			; <UNDEFINED> instruction: 0x112c0000
    6960:	0062755f 	rsbeq	r7, r2, pc, asr r5
    6964:	dd11ce05 	ldcle	14, cr12, [r1, #-20]	; 0xffffffec
    6968:	30000002 	andcc	r0, r0, r2
    696c:	70755f11 	rsbsvc	r5, r5, r1, lsl pc
    6970:	12cf0500 	sbcne	r0, pc, #0, 10
    6974:	00000305 	andeq	r0, r0, r5, lsl #6
    6978:	755f1138 	ldrbvc	r1, [pc, #-312]	; 6848 <_start-0x17b8>
    697c:	d0050072 	andle	r0, r5, r2, ror r0
    6980:	00002507 	andeq	r2, r0, r7, lsl #10
    6984:	c30d3c00 	movwgt	r3, #56320	; 0xdc00
    6988:	05000000 	streq	r0, [r0, #-0]
    698c:	062e11d3 			; <UNDEFINED> instruction: 0x062e11d3
    6990:	0d400000 	stcleq	0, cr0, [r0, #-0]
    6994:	000004ed 	andeq	r0, r0, sp, ror #9
    6998:	3e11d405 	cfmulscc	mvf13, mvf1, mvf5
    699c:	43000006 	movwmi	r0, #6
    69a0:	626c5f11 	rsbvs	r5, ip, #17, 30	; 0x44
    69a4:	11d70500 	bicsne	r0, r7, r0, lsl #10
    69a8:	000002dd 	ldrdeq	r0, [r0], -sp
    69ac:	014b0d44 	cmpeq	fp, r4, asr #26
    69b0:	da050000 	ble	1469b8 <__bss_end__+0x13c9b8>
    69b4:	00002507 	andeq	r2, r0, r7, lsl #10
    69b8:	5c0d4c00 	stcpl	12, cr4, [sp], {-0}
    69bc:	05000001 	streq	r0, [r0, #-1]
    69c0:	00820adb 	ldrdeq	r0, [r2], fp
    69c4:	0d500000 	ldcleq	0, cr0, [r0, #-0]
    69c8:	00000aca 	andeq	r0, r0, sl, asr #21
    69cc:	6c12de05 	ldcvs	14, cr13, [r2], {5}
    69d0:	54000004 	strpl	r0, [r0], #-4
    69d4:	0004310d 	andeq	r3, r4, sp, lsl #2
    69d8:	0ce20500 	cfstr64eq	mvdx0, [r2]
    69dc:	00000109 	andeq	r0, r0, r9, lsl #2
    69e0:	03c50d58 	biceq	r0, r5, #88, 26	; 0x1600
    69e4:	e4050000 	str	r0, [r5], #-0
    69e8:	0000fd0e 	andeq	pc, r0, lr, lsl #26
    69ec:	8e0d5c00 	cdphi	12, 0, cr5, cr13, cr0, {0}
    69f0:	05000002 	streq	r0, [r0, #-2]
    69f4:	002509e5 	eoreq	r0, r5, r5, ror #19
    69f8:	00640000 	rsbeq	r0, r4, r0
    69fc:	00002515 	andeq	r2, r0, r5, lsl r5
    6a00:	00046c00 	andeq	r6, r4, r0, lsl #24
    6a04:	046c1600 	strbteq	r1, [ip], #-1536	; 0xfffffa00
    6a08:	15160000 	ldrne	r0, [r6, #-0]
    6a0c:	16000001 	strne	r0, [r0], -r1
    6a10:	00000117 	andeq	r0, r0, r7, lsl r1
    6a14:	00002516 	andeq	r2, r0, r6, lsl r5
    6a18:	04050000 	streq	r0, [r5], #-0
    6a1c:	00000477 	andeq	r0, r0, r7, ror r4
    6a20:	00046c0f 	andeq	r6, r4, pc, lsl #24
    6a24:	041b1700 	ldreq	r1, [fp], #-1792	; 0xfffff900
    6a28:	04280000 	strteq	r0, [r8], #-0
    6a2c:	08026005 	stmdaeq	r2, {r0, r2, sp, lr}
    6a30:	000005c0 	andeq	r0, r0, r0, asr #11
    6a34:	00038318 	andeq	r8, r3, r8, lsl r3
    6a38:	02620500 	rsbeq	r0, r2, #0, 10
    6a3c:	00002507 	andeq	r2, r0, r7, lsl #10
    6a40:	3c180000 	ldccc	0, cr0, [r8], {-0}
    6a44:	05000001 	streq	r0, [r0, #-1]
    6a48:	9a0b0267 	bls	2c73ec <__bss_end__+0x2bd3ec>
    6a4c:	04000006 	streq	r0, [r0], #-6
    6a50:	00020618 	andeq	r0, r2, r8, lsl r6
    6a54:	02670500 	rsbeq	r0, r7, #0, 10
    6a58:	00069a14 	andeq	r9, r6, r4, lsl sl
    6a5c:	b6180800 	ldrlt	r0, [r8], -r0, lsl #16
    6a60:	05000001 	streq	r0, [r0, #-1]
    6a64:	9a1e0267 	bls	787408 <__bss_end__+0x77d408>
    6a68:	0c000006 	stceq	0, cr0, [r0], {6}
    6a6c:	0003e618 	andeq	lr, r3, r8, lsl r6
    6a70:	02690500 	rsbeq	r0, r9, #0, 10
    6a74:	00002508 	andeq	r2, r0, r8, lsl #10
    6a78:	37181000 	ldrcc	r1, [r8, -r0]
    6a7c:	05000000 	streq	r0, [r0, #-0]
    6a80:	9a08026a 	bls	207430 <__bss_end__+0x1fd430>
    6a84:	14000008 	strne	r0, [r0], #-8
    6a88:	0003fa18 	andeq	pc, r3, r8, lsl sl	; <UNPREDICTABLE>
    6a8c:	026d0500 	rsbeq	r0, sp, #0, 10
    6a90:	00002507 	andeq	r2, r0, r7, lsl #10
    6a94:	06183000 	ldreq	r3, [r8], -r0
    6a98:	0500000a 	streq	r0, [r0, #-10]
    6a9c:	af16026e 	svcge	0x0016026e
    6aa0:	34000008 	strcc	r0, [r0], #-8
    6aa4:	0002c518 	andeq	ip, r2, r8, lsl r5
    6aa8:	02700500 	rsbseq	r0, r0, #0, 10
    6aac:	00002507 	andeq	r2, r0, r7, lsl #10
    6ab0:	f0183800 			; <UNDEFINED> instruction: 0xf0183800
    6ab4:	05000003 	streq	r0, [r0, #-3]
    6ab8:	c00a0272 	andgt	r0, sl, r2, ror r2
    6abc:	3c000008 	stccc	0, cr0, [r0], {8}
    6ac0:	00026518 	andeq	r6, r2, r8, lsl r5
    6ac4:	02750500 	rsbseq	r0, r5, #0, 10
    6ac8:	00018f13 	andeq	r8, r1, r3, lsl pc
    6acc:	d5184000 	ldrle	r4, [r8, #-0]
    6ad0:	05000001 	streq	r0, [r0, #-1]
    6ad4:	25070276 	strcs	r0, [r7, #-630]	; 0xfffffd8a
    6ad8:	44000000 	strmi	r0, [r0], #-0
    6adc:	00052f18 	andeq	r2, r5, r8, lsl pc
    6ae0:	02770500 	rsbseq	r0, r7, #0, 10
    6ae4:	00018f13 	andeq	r8, r1, r3, lsl pc
    6ae8:	d7184800 	ldrle	r4, [r8, -r0, lsl #16]
    6aec:	05000002 	streq	r0, [r0, #-2]
    6af0:	c6140278 			; <UNDEFINED> instruction: 0xc6140278
    6af4:	4c000008 	stcmi	0, cr0, [r0], {8}
    6af8:	00020e18 	andeq	r0, r2, r8, lsl lr
    6afc:	027b0500 	rsbseq	r0, fp, #0, 10
    6b00:	00002507 	andeq	r2, r0, r7, lsl #10
    6b04:	54185000 	ldrpl	r5, [r8], #-0
    6b08:	05000001 	streq	r0, [r0, #-1]
    6b0c:	1709027c 	smlsdxne	r9, ip, r2, r0
    6b10:	54000001 	strpl	r0, [r0], #-1
    6b14:	0002fd18 	andeq	pc, r2, r8, lsl sp	; <UNPREDICTABLE>
    6b18:	029f0500 	addseq	r0, pc, #0, 10
    6b1c:	00087507 	andeq	r7, r8, r7, lsl #10
    6b20:	bd195800 	ldclt	8, cr5, [r9, #-0]
    6b24:	05000002 	streq	r0, [r0, #-2]
    6b28:	c01302a3 	andsgt	r0, r3, r3, lsr #5
    6b2c:	48000002 	stmdami	r0, {r1}
    6b30:	02431901 	subeq	r1, r3, #16384	; 0x4000
    6b34:	a4050000 	strge	r0, [r5], #-0
    6b38:	027d1202 	rsbseq	r1, sp, #536870912	; 0x20000000
    6b3c:	014c0000 	mrseq	r0, (UNDEF: 76)
    6b40:	0004db19 	andeq	sp, r4, r9, lsl fp
    6b44:	02a80500 	adceq	r0, r8, #0, 10
    6b48:	0008d70c 	andeq	sp, r8, ip, lsl #14
    6b4c:	1902dc00 	stmdbne	r2, {sl, fp, ip, lr, pc}
    6b50:	00000125 	andeq	r0, r0, r5, lsr #2
    6b54:	1002ad05 	andne	sl, r2, r5, lsl #26
    6b58:	0000065b 	andeq	r0, r0, fp, asr r6
    6b5c:	0a1902e0 	beq	6476e4 <__bss_end__+0x63d6e4>
    6b60:	05000001 	streq	r0, [r0, #-1]
    6b64:	e30a02af 	movw	r0, #41647	; 0xa2af
    6b68:	ec000008 	stc	0, cr0, [r0], {8}
    6b6c:	04050002 	streq	r0, [r5], #-2
    6b70:	0000044e 	andeq	r0, r0, lr, asr #8
    6b74:	00002515 	andeq	r2, r0, r5, lsl r5
    6b78:	0005e400 	andeq	lr, r5, r0, lsl #8
    6b7c:	046c1600 	strbteq	r1, [ip], #-1536	; 0xfffffa00
    6b80:	15160000 	ldrne	r0, [r6, #-0]
    6b84:	16000001 	strne	r0, [r0], -r1
    6b88:	000005e4 	andeq	r0, r0, r4, ror #11
    6b8c:	00002516 	andeq	r2, r0, r6, lsl r5
    6b90:	04050000 	streq	r0, [r5], #-0
    6b94:	00000124 	andeq	r0, r0, r4, lsr #2
    6b98:	05c60405 	strbeq	r0, [r6, #1029]	; 0x405
    6b9c:	8e150000 	cdphi	0, 1, cr0, cr5, cr0, {0}
    6ba0:	0e000000 	cdpeq	0, 0, cr0, cr0, cr0, {0}
    6ba4:	16000006 	strne	r0, [r0], -r6
    6ba8:	0000046c 	andeq	r0, r0, ip, ror #8
    6bac:	00011516 	andeq	r1, r1, r6, lsl r5
    6bb0:	008e1600 	addeq	r1, lr, r0, lsl #12
    6bb4:	25160000 	ldrcs	r0, [r6, #-0]
    6bb8:	00000000 	andeq	r0, r0, r0
    6bbc:	05f00405 	ldrbeq	r0, [r0, #1029]!	; 0x405
    6bc0:	25150000 	ldrcs	r0, [r5, #-0]
    6bc4:	28000000 	stmdacs	r0, {}	; <UNPREDICTABLE>
    6bc8:	16000006 	strne	r0, [r0], -r6
    6bcc:	0000046c 	andeq	r0, r0, ip, ror #8
    6bd0:	00011516 	andeq	r1, r1, r6, lsl r5
    6bd4:	04050000 	streq	r0, [r5], #-0
    6bd8:	00000614 	andeq	r0, r0, r4, lsl r6
    6bdc:	00004f0a 	andeq	r4, r0, sl, lsl #30
    6be0:	00063e00 	andeq	r3, r6, r0, lsl #28
    6be4:	002c0b00 	eoreq	r0, ip, r0, lsl #22
    6be8:	00020000 	andeq	r0, r2, r0
    6bec:	00004f0a 	andeq	r4, r0, sl, lsl #30
    6bf0:	00064e00 	andeq	r4, r6, r0, lsl #28
    6bf4:	002c0b00 	eoreq	r0, ip, r0, lsl #22
    6bf8:	00000000 	andeq	r0, r0, r0
    6bfc:	0003ab07 	andeq	sl, r3, r7, lsl #22
    6c00:	011f0500 	tsteq	pc, r0, lsl #10
    6c04:	00030b1a 	andeq	r0, r3, sl, lsl fp
    6c08:	04c21a00 	strbeq	r1, [r2], #2560	; 0xa00
    6c0c:	050c0000 	streq	r0, [ip, #-0]
    6c10:	94080123 	strls	r0, [r8], #-291	; 0xfffffedd
    6c14:	18000006 	stmdane	r0, {r1, r2}
    6c18:	000003d3 	ldrdeq	r0, [r0], -r3
    6c1c:	11012505 	tstne	r1, r5, lsl #10
    6c20:	00000694 	muleq	r0, r4, r6
    6c24:	02291800 	eoreq	r1, r9, #0, 16
    6c28:	26050000 	strcs	r0, [r5], -r0
    6c2c:	00250701 	eoreq	r0, r5, r1, lsl #14
    6c30:	18040000 	stmdane	r4, {}	; <UNPREDICTABLE>
    6c34:	000003a5 	andeq	r0, r0, r5, lsr #7
    6c38:	0b012705 	bleq	50854 <__bss_end__+0x46854>
    6c3c:	0000069a 	muleq	r0, sl, r6
    6c40:	04050008 	streq	r0, [r5], #-8
    6c44:	0000065b 	andeq	r0, r0, fp, asr r6
    6c48:	064e0405 	strbeq	r0, [lr], -r5, lsl #8
    6c4c:	2f1a0000 	svccs	0x001a0000
    6c50:	0e000000 	cdpeq	0, 0, cr0, cr0, cr0, {0}
    6c54:	08013f05 	stmdaeq	r1, {r0, r2, r8, r9, sl, fp, ip, sp}
    6c58:	000006d9 	ldrdeq	r0, [r0], -r9
    6c5c:	00042218 	andeq	r2, r4, r8, lsl r2
    6c60:	01400500 	cmpeq	r0, r0, lsl #10
    6c64:	0006d912 	andeq	sp, r6, r2, lsl r9
    6c68:	56180000 	ldrpl	r0, [r8], -r0
    6c6c:	05000004 	streq	r0, [r0, #-4]
    6c70:	d9120141 	ldmdble	r2, {r0, r6, r8}
    6c74:	06000006 	streq	r0, [r0], -r6
    6c78:	00047218 	andeq	r7, r4, r8, lsl r2
    6c7c:	01420500 	cmpeq	r2, r0, lsl #10
    6c80:	00005612 	andeq	r5, r0, r2, lsl r6
    6c84:	0a000c00 	beq	9c8c <buf.4297+0x8c>
    6c88:	00000056 	andeq	r0, r0, r6, asr r0
    6c8c:	000006e9 	andeq	r0, r0, r9, ror #13
    6c90:	00002c0b 	andeq	r2, r0, fp, lsl #24
    6c94:	1b000200 	blne	749c <_start-0xb64>
    6c98:	028005d0 	addeq	r0, r0, #208, 10	; 0x34000000
    6c9c:	0007fe07 	andeq	pc, r7, r7, lsl #28
    6ca0:	04a61800 	strteq	r1, [r6], #2048	; 0x800
    6ca4:	82050000 	andhi	r0, r5, #0
    6ca8:	002c1802 	eoreq	r1, ip, r2, lsl #16
    6cac:	18000000 	stmdane	r0, {}	; <UNPREDICTABLE>
    6cb0:	0000045c 	andeq	r0, r0, ip, asr r4
    6cb4:	12028305 	andne	r8, r2, #335544320	; 0x14000000
    6cb8:	00000117 	andeq	r0, r0, r7, lsl r1
    6cbc:	02581804 	subseq	r1, r8, #4, 16	; 0x40000
    6cc0:	84050000 	strhi	r0, [r5], #-0
    6cc4:	07fe1002 	ldrbeq	r1, [lr, r2]!
    6cc8:	18080000 	stmdane	r8, {}	; <UNPREDICTABLE>
    6ccc:	00000506 	andeq	r0, r0, r6, lsl #10
    6cd0:	17028505 	strne	r8, [r2, -r5, lsl #10]
    6cd4:	000001a5 	andeq	r0, r0, r5, lsr #3
    6cd8:	01c61824 	biceq	r1, r6, r4, lsr #16
    6cdc:	86050000 	strhi	r0, [r5], -r0
    6ce0:	00250f02 	eoreq	r0, r5, r2, lsl #30
    6ce4:	18480000 	stmdane	r8, {}^	; <UNPREDICTABLE>
    6ce8:	000003ce 	andeq	r0, r0, lr, asr #7
    6cec:	2c028705 	stccs	7, cr8, [r2], {5}
    6cf0:	00000064 	andeq	r0, r0, r4, rrx
    6cf4:	051c1850 	ldreq	r1, [ip, #-2128]	; 0xfffff7b0
    6cf8:	88050000 	stmdahi	r5, {}	; <UNPREDICTABLE>
    6cfc:	06a01a02 	strteq	r1, [r0], r2, lsl #20
    6d00:	18580000 	ldmdane	r8, {}^	; <UNPREDICTABLE>
    6d04:	000003d9 	ldrdeq	r0, [r0], -r9
    6d08:	16028905 	strne	r8, [r2], -r5, lsl #18
    6d0c:	000000fd 	strdeq	r0, [r0], -sp
    6d10:	05211868 	streq	r1, [r1, #-2152]!	; 0xfffff798
    6d14:	8a050000 	bhi	146d1c <__bss_end__+0x13cd1c>
    6d18:	00fd1602 	rscseq	r1, sp, r2, lsl #12
    6d1c:	18700000 	ldmdane	r0!, {}^	; <UNPREDICTABLE>
    6d20:	000002e1 	andeq	r0, r0, r1, ror #5
    6d24:	16028b05 	strne	r8, [r2], -r5, lsl #22
    6d28:	000000fd 	strdeq	r0, [r0], -sp
    6d2c:	04d11878 	ldrbeq	r1, [r1], #2168	; 0x878
    6d30:	8c050000 	stchi	0, cr0, [r5], {-0}
    6d34:	080e1002 	stmdaeq	lr, {r1, ip}
    6d38:	18800000 	stmne	r0, {}	; <UNPREDICTABLE>
    6d3c:	0000024c 	andeq	r0, r0, ip, asr #4
    6d40:	10028d05 	andne	r8, r2, r5, lsl #26
    6d44:	0000081e 	andeq	r0, r0, lr, lsl r8
    6d48:	047f1888 	ldrbteq	r1, [pc], #-2184	; 6d50 <_start-0x12b0>
    6d4c:	8e050000 	cdphi	0, 0, cr0, cr5, cr0, {0}
    6d50:	00250f02 	eoreq	r0, r5, r2, lsl #30
    6d54:	18a00000 	stmiane	r0!, {}	; <UNPREDICTABLE>
    6d58:	0000018c 	andeq	r0, r0, ip, lsl #3
    6d5c:	16028f05 	strne	r8, [r2], -r5, lsl #30
    6d60:	000000fd 	strdeq	r0, [r0], -sp
    6d64:	009d18a4 	addseq	r1, sp, r4, lsr #17
    6d68:	90050000 	andls	r0, r5, r0
    6d6c:	00fd1602 	rscseq	r1, sp, r2, lsl #12
    6d70:	18ac0000 	stmiane	ip!, {}	; <UNPREDICTABLE>
    6d74:	0000017b 	andeq	r0, r0, fp, ror r1
    6d78:	16029105 	strne	r9, [r2], -r5, lsl #2
    6d7c:	000000fd 	strdeq	r0, [r0], -sp
    6d80:	004a18b4 	strheq	r1, [sl], #-132	; 0xffffff7c
    6d84:	92050000 	andls	r0, r5, #0
    6d88:	00fd1602 	rscseq	r1, sp, r2, lsl #12
    6d8c:	18bc0000 	ldmne	ip!, {}	; <UNPREDICTABLE>
    6d90:	00000059 	andeq	r0, r0, r9, asr r0
    6d94:	16029305 	strne	r9, [r2], -r5, lsl #6
    6d98:	000000fd 	strdeq	r0, [r0], -sp
    6d9c:	038118c4 	orreq	r1, r1, #196, 16	; 0xc40000
    6da0:	94050000 	strls	r0, [r5], #-0
    6da4:	00250802 	eoreq	r0, r5, r2, lsl #16
    6da8:	00cc0000 	sbceq	r0, ip, r0
    6dac:	00011d0a 	andeq	r1, r1, sl, lsl #26
    6db0:	00080e00 	andeq	r0, r8, r0, lsl #28
    6db4:	002c0b00 	eoreq	r0, ip, r0, lsl #22
    6db8:	00190000 	andseq	r0, r9, r0
    6dbc:	00011d0a 	andeq	r1, r1, sl, lsl #26
    6dc0:	00081e00 	andeq	r1, r8, r0, lsl #28
    6dc4:	002c0b00 	eoreq	r0, ip, r0, lsl #22
    6dc8:	00070000 	andeq	r0, r7, r0
    6dcc:	00011d0a 	andeq	r1, r1, sl, lsl #26
    6dd0:	00082e00 	andeq	r2, r8, r0, lsl #28
    6dd4:	002c0b00 	eoreq	r0, ip, r0, lsl #22
    6dd8:	00170000 	andseq	r0, r7, r0
    6ddc:	9905f01b 	stmdbls	r5, {r0, r1, r3, r4, ip, sp, lr, pc}
    6de0:	08550702 	ldmdaeq	r5, {r1, r8, r9, sl}^
    6de4:	ad180000 	ldcge	0, cr0, [r8, #-0]
    6de8:	05000002 	streq	r0, [r0, #-2]
    6dec:	551b029c 	ldrpl	r0, [fp, #-668]	; 0xfffffd64
    6df0:	00000008 	andeq	r0, r0, r8
    6df4:	0004c818 	andeq	ip, r4, r8, lsl r8
    6df8:	029d0500 	addseq	r0, sp, #0, 10
    6dfc:	00086518 	andeq	r6, r8, r8, lsl r5
    6e00:	0a007800 	beq	24e08 <__bss_end__+0x1ae08>
    6e04:	00000305 	andeq	r0, r0, r5, lsl #6
    6e08:	00000865 	andeq	r0, r0, r5, ror #16
    6e0c:	00002c0b 	andeq	r2, r0, fp, lsl #24
    6e10:	0a001d00 	beq	e218 <__bss_end__+0x4218>
    6e14:	0000002c 	andeq	r0, r0, ip, lsr #32
    6e18:	00000875 	andeq	r0, r0, r5, ror r8
    6e1c:	00002c0b 	andeq	r2, r0, fp, lsl #24
    6e20:	1c001d00 	stcne	13, cr1, [r0], {-0}
    6e24:	027e05f0 	rsbseq	r0, lr, #240, 10	; 0x3c000000
    6e28:	00089a03 	andeq	r9, r8, r3, lsl #20
    6e2c:	041b1d00 	ldreq	r1, [fp], #-3328	; 0xfffff300
    6e30:	95050000 	strls	r0, [r5, #-0]
    6e34:	06e90b02 	strbteq	r0, [r9], r2, lsl #22
    6e38:	f31d0000 	vhadd.u16	d0, d13, d0
    6e3c:	05000004 	streq	r0, [r0, #-4]
    6e40:	2e0b029e 	mcrcs	2, 0, r0, cr11, cr14, {4}
    6e44:	00000008 	andeq	r0, r0, r8
    6e48:	00011d0a 	andeq	r1, r1, sl, lsl #26
    6e4c:	0008aa00 	andeq	sl, r8, r0, lsl #20
    6e50:	002c0b00 	eoreq	r0, ip, r0, lsl #22
    6e54:	00180000 	andseq	r0, r8, r0
    6e58:	00009206 	andeq	r9, r0, r6, lsl #4
    6e5c:	aa040500 	bge	108264 <__bss_end__+0xfe264>
    6e60:	1e000008 	cdpne	0, 0, cr0, cr0, cr8, {0}
    6e64:	000008c0 	andeq	r0, r0, r0, asr #17
    6e68:	00046c16 	andeq	r6, r4, r6, lsl ip
    6e6c:	04050000 	streq	r0, [r5], #-0
    6e70:	000008b5 			; <UNDEFINED> instruction: 0x000008b5
    6e74:	018f0405 	orreq	r0, pc, r5, lsl #8
    6e78:	d71e0000 	ldrle	r0, [lr, -r0]
    6e7c:	16000008 	strne	r0, [r0], -r8
    6e80:	00000025 	andeq	r0, r0, r5, lsr #32
    6e84:	dd040500 	cfstr32le	mvfx0, [r4, #-0]
    6e88:	05000008 	streq	r0, [r0, #-8]
    6e8c:	0008cc04 	andeq	ip, r8, r4, lsl #24
    6e90:	064e0a00 	strbeq	r0, [lr], -r0, lsl #20
    6e94:	08f30000 	ldmeq	r3!, {}^	; <UNPREDICTABLE>
    6e98:	2c0b0000 	stccs	0, cr0, [fp], {-0}
    6e9c:	02000000 	andeq	r0, r0, #0
    6ea0:	04931f00 	ldreq	r1, [r3], #3840	; 0xf00
    6ea4:	2e050000 	cdpcs	0, 0, cr0, cr5, cr0, {0}
    6ea8:	046c1703 	strbteq	r1, [ip], #-1795	; 0xfffff8fd
    6eac:	8c1f0000 	ldchi	0, cr0, [pc], {-0}
    6eb0:	05000004 	streq	r0, [r0, #-4]
    6eb4:	721d032f 	andsvc	r0, sp, #-1140850688	; 0xbc000000
    6eb8:	15000004 	strne	r0, [r0, #-4]
    6ebc:	00000025 	andeq	r0, r0, r5, lsr #32
    6ec0:	0000091c 	andeq	r0, r0, ip, lsl r9
    6ec4:	00002516 	andeq	r2, r0, r6, lsl r5
    6ec8:	df200000 	svcle	0x00200000
    6ecc:	06000001 	streq	r0, [r0], -r1
    6ed0:	09280e1d 	stmdbeq	r8!, {r0, r2, r3, r4, r9, sl, fp}
    6ed4:	04050000 	streq	r0, [r5], #-0
    6ed8:	0000090d 	andeq	r0, r0, sp, lsl #18
    6edc:	00002515 	andeq	r2, r0, r5, lsl r5
    6ee0:	00093d00 	andeq	r3, r9, r0, lsl #26
    6ee4:	05e41600 	strbeq	r1, [r4, #1536]!	; 0x600
    6ee8:	20000000 	andcs	r0, r0, r0
    6eec:	0000076d 	andeq	r0, r0, sp, ror #14
    6ef0:	490e2206 	stmdbmi	lr, {r1, r2, r9, sp}
    6ef4:	05000009 	streq	r0, [r0, #-9]
    6ef8:	00092e04 	andeq	r2, r9, r4, lsl #28
    6efc:	02a02100 	adceq	r2, r0, #0, 2
    6f00:	04010000 	streq	r0, [r1], #-0
    6f04:	00903406 	addseq	r3, r0, r6, lsl #8
    6f08:	00002800 	andeq	r2, r0, r0, lsl #16
    6f0c:	969c0100 	ldrls	r0, [ip], r0, lsl #2
    6f10:	22000009 	andcs	r0, r0, #9
    6f14:	00009048 	andeq	r9, r0, r8, asr #32
    6f18:	00000978 	andeq	r0, r0, r8, ror r9
    6f1c:	05500123 	ldrbeq	r0, [r0, #-291]	; 0xfffffedd
    6f20:	009ac803 	addseq	ip, sl, r3, lsl #16
    6f24:	50240000 	eorpl	r0, r4, r0
    6f28:	96000090 			; <UNDEFINED> instruction: 0x96000090
    6f2c:	8c000009 	stchi	0, cr0, [r0], {9}
    6f30:	23000009 	movwcs	r0, #9
    6f34:	08025001 	stmdaeq	r2, {r0, ip, lr}
    6f38:	54250064 	strtpl	r0, [r5], #-100	; 0xffffff9c
    6f3c:	a2000090 	andge	r0, r0, #144	; 0x90
    6f40:	00000009 	andeq	r0, r0, r9
    6f44:	0007f126 	andeq	pc, r7, r6, lsr #2
    6f48:	0007f100 	andeq	pc, r7, r0, lsl #2
    6f4c:	064f0600 	strbeq	r0, [pc], -r0, lsl #12
    6f50:	0007fa26 	andeq	pc, r7, r6, lsr #20
    6f54:	0007fa00 	andeq	pc, r7, r0, lsl #20
    6f58:	06620600 	strbteq	r0, [r2], -r0, lsl #12
    6f5c:	0009d300 	andeq	sp, r9, r0, lsl #6
    6f60:	d4000400 	strle	r0, [r0], #-1024	; 0xfffffc00
    6f64:	04000015 	streq	r0, [r0], #-21	; 0xffffffeb
    6f68:	00030201 	andeq	r0, r3, r1, lsl #4
    6f6c:	08050c00 	stmdaeq	r5, {sl, fp}
    6f70:	06c60000 	strbeq	r0, [r6], r0
    6f74:	905c0000 	subsls	r0, ip, r0
    6f78:	002c0000 	eoreq	r0, ip, r0
    6f7c:	14f60000 	ldrbtne	r0, [r6], #0
    6f80:	04020000 	streq	r0, [r2], #-0
    6f84:	746e6905 	strbtvc	r6, [lr], #-2309	; 0xfffff6fb
    6f88:	07040300 	streq	r0, [r4, -r0, lsl #6]
    6f8c:	00000074 	andeq	r0, r0, r4, ror r0
    6f90:	f1060103 	cps	#3
    6f94:	03000002 	movweq	r0, #2
    6f98:	038a0502 	orreq	r0, sl, #8388608	; 0x800000
    6f9c:	04030000 	streq	r0, [r3], #-0
    6fa0:	0000ba05 	andeq	fp, r0, r5, lsl #20
    6fa4:	05080300 	streq	r0, [r8, #-768]	; 0xfffffd00
    6fa8:	000000b5 	strheq	r0, [r0], -r5
    6fac:	ef080103 	svc	0x00080103
    6fb0:	03000002 	movweq	r0, #2
    6fb4:	02300702 	eorseq	r0, r0, #524288	; 0x80000
    6fb8:	04030000 	streq	r0, [r3], #-0
    6fbc:	00006f07 	andeq	r6, r0, r7, lsl #30
    6fc0:	07080300 	streq	r0, [r8, -r0, lsl #6]
    6fc4:	0000006a 	andeq	r0, r0, sl, rrx
    6fc8:	00027304 	andeq	r7, r2, r4, lsl #6
    6fcc:	19220200 	stmdbne	r2!, {r9}
    6fd0:	00000077 	andeq	r0, r0, r7, ror r0
    6fd4:	007d0405 	rsbseq	r0, sp, r5, lsl #8
    6fd8:	30060000 	andcc	r0, r6, r0
    6fdc:	04000004 	streq	r0, [r0], #-4
    6fe0:	000002d0 	ldrdeq	r0, [r0], -r0	; <UNPREDICTABLE>
    6fe4:	410e2c03 	tstmi	lr, r3, lsl #24
    6fe8:	04000000 	streq	r0, [r0], #-0
    6fec:	00000445 	andeq	r0, r0, r5, asr #8
    6ff0:	410e7203 	tstmi	lr, r3, lsl #4
    6ff4:	07000000 	streq	r0, [r0, -r0]
    6ff8:	0000027b 	andeq	r0, r0, fp, ror r2
    6ffc:	17015e04 	strne	r5, [r1, -r4, lsl #28]
    7000:	0000002c 	andeq	r0, r0, ip, lsr #32
    7004:	a6030408 	strge	r0, [r3], -r8, lsl #8
    7008:	0000c903 	andeq	ip, r0, r3, lsl #18
    700c:	026d0900 	rsbeq	r0, sp, #0, 18
    7010:	a8030000 	stmdage	r3, {}	; <UNPREDICTABLE>
    7014:	00009a0c 	andeq	r9, r0, ip, lsl #20
    7018:	01f00900 	mvnseq	r0, r0, lsl #18
    701c:	a9030000 	stmdbge	r3, {}	; <UNPREDICTABLE>
    7020:	0000c913 	andeq	ip, r0, r3, lsl r9
    7024:	4f0a0000 	svcmi	0x000a0000
    7028:	d9000000 	stmdble	r0, {}	; <UNPREDICTABLE>
    702c:	0b000000 	bleq	7034 <_start-0xfcc>
    7030:	0000002c 	andeq	r0, r0, ip, lsr #32
    7034:	080c0003 	stmdaeq	ip, {r0, r1}
    7038:	fd09a303 	stc2	3, cr10, [r9, #-12]
    703c:	0d000000 	stceq	0, cr0, [r0, #-0]
    7040:	00000428 	andeq	r0, r0, r8, lsr #8
    7044:	2507a503 	strcs	sl, [r7, #-1283]	; 0xfffffafd
    7048:	00000000 	andeq	r0, r0, r0
    704c:	0004370d 	andeq	r3, r4, sp, lsl #14
    7050:	05aa0300 	streq	r0, [sl, #768]!	; 0x300
    7054:	000000a7 	andeq	r0, r0, r7, lsr #1
    7058:	b2040004 	andlt	r0, r4, #4
    705c:	03000003 	movweq	r0, #3
    7060:	00d903ab 	sbcseq	r0, r9, fp, lsr #7
    7064:	ad040000 	stcge	0, cr0, [r4, #-0]
    7068:	03000001 	movweq	r0, #1
    706c:	006b1baf 	rsbeq	r1, fp, pc, lsr #23
    7070:	040e0000 	streq	r0, [lr], #-0
    7074:	011d0405 	tsteq	sp, r5, lsl #8
    7078:	01030000 	mrseq	r0, (UNDEF: 3)
    707c:	0002f808 	andeq	pc, r2, r8, lsl #16
    7080:	011d0f00 	tsteq	sp, r0, lsl #30
    7084:	77040000 	strvc	r0, [r4, -r0]
    7088:	05000004 	streq	r0, [r0, #-4]
    708c:	005d1916 	subseq	r1, sp, r6, lsl r9
    7090:	be100000 	cdplt	0, 1, cr0, cr0, cr0, {0}
    7094:	18000001 	stmdane	r0, {r0}
    7098:	8f082f05 	svchi	0x00082f05
    709c:	0d000001 	stceq	0, cr0, [r0, #-4]
    70a0:	000003d3 	ldrdeq	r0, [r0], -r3
    70a4:	8f133105 	svchi	0x00133105
    70a8:	00000001 	andeq	r0, r0, r1
    70ac:	006b5f11 	rsbeq	r5, fp, r1, lsl pc
    70b0:	25073205 	strcs	r3, [r7, #-517]	; 0xfffffdfb
    70b4:	04000000 	streq	r0, [r0], #-0
    70b8:	0004130d 	andeq	r1, r4, sp, lsl #6
    70bc:	0b320500 	bleq	c884c4 <__bss_end__+0xc7e4c4>
    70c0:	00000025 	andeq	r0, r0, r5, lsr #32
    70c4:	01a70d08 			; <UNDEFINED> instruction: 0x01a70d08
    70c8:	32050000 	andcc	r0, r5, #0
    70cc:	00002514 	andeq	r2, r0, r4, lsl r5
    70d0:	b30d0c00 	movwlt	r0, #56320	; 0xdc00
    70d4:	05000004 	streq	r0, [r0, #-4]
    70d8:	00251b32 	eoreq	r1, r5, r2, lsr fp
    70dc:	11100000 	tstne	r0, r0
    70e0:	0500785f 	streq	r7, [r0, #-2143]	; 0xfffff7a1
    70e4:	01950b33 	orrseq	r0, r5, r3, lsr fp
    70e8:	00140000 	andseq	r0, r4, r0
    70ec:	01350405 	teqeq	r5, r5, lsl #8
    70f0:	290a0000 	stmdbcs	sl, {}	; <UNPREDICTABLE>
    70f4:	a5000001 	strge	r0, [r0, #-1]
    70f8:	0b000001 	bleq	7104 <_start-0xefc>
    70fc:	0000002c 	andeq	r0, r0, ip, lsr #32
    7100:	eb100000 	bl	407108 <__bss_end__+0x3fd108>
    7104:	24000001 	strcs	r0, [r0], #-1
    7108:	28083705 	stmdacs	r8, {r0, r2, r8, r9, sl, ip, sp}
    710c:	0d000002 	stceq	0, cr0, [r0, #-8]
    7110:	000000ac 	andeq	r0, r0, ip, lsr #1
    7114:	25093905 	strcs	r3, [r9, #-2309]	; 0xfffff6fb
    7118:	00000000 	andeq	r0, r0, r0
    711c:	00044d0d 	andeq	r4, r4, sp, lsl #26
    7120:	093a0500 	ldmdbeq	sl!, {r8, sl}
    7124:	00000025 	andeq	r0, r0, r5, lsr #32
    7128:	00cf0d04 	sbceq	r0, pc, r4, lsl #26
    712c:	3b050000 	blcc	147134 <__bss_end__+0x13d134>
    7130:	00002509 	andeq	r2, r0, r9, lsl #10
    7134:	340d0800 	strcc	r0, [sp], #-2048	; 0xfffff800
    7138:	05000005 	streq	r0, [r0, #-5]
    713c:	0025093c 	eoreq	r0, r5, ip, lsr r9
    7140:	0d0c0000 	stceq	0, cr0, [ip, #-0]
    7144:	000002b4 			; <UNDEFINED> instruction: 0x000002b4
    7148:	25093d05 	strcs	r3, [r9, #-3333]	; 0xfffff2fb
    714c:	10000000 	andne	r0, r0, r0
    7150:	0002960d 	andeq	r9, r2, sp, lsl #12
    7154:	093e0500 	ldmdbeq	lr!, {r8, sl}
    7158:	00000025 	andeq	r0, r0, r5, lsr #32
    715c:	04b80d14 	ldrteq	r0, [r8], #3348	; 0xd14
    7160:	3f050000 	svccc	0x00050000
    7164:	00002509 	andeq	r2, r0, r9, lsl #10
    7168:	940d1800 	strls	r1, [sp], #-2048	; 0xfffff800
    716c:	05000003 	streq	r0, [r0, #-3]
    7170:	00250940 	eoreq	r0, r5, r0, asr #18
    7174:	0d1c0000 	ldceq	0, cr0, [ip, #-0]
    7178:	000004fb 	strdeq	r0, [r0], -fp
    717c:	25094105 	strcs	r4, [r9, #-261]	; 0xfffffefb
    7180:	20000000 	andcs	r0, r0, r0
    7184:	010f1200 	mrseq	r1, (UNDEF: 47)
    7188:	01080000 	mrseq	r0, (UNDEF: 8)
    718c:	6d084a05 	vstrvs	s8, [r8, #-20]	; 0xffffffec
    7190:	0d000002 	stceq	0, cr0, [r0, #-8]
    7194:	0000019a 	muleq	r0, sl, r1
    7198:	6d0a4b05 	vstrvs	d4, [sl, #-20]	; 0xffffffec
    719c:	00000002 	andeq	r0, r0, r2
    71a0:	0000000d 	andeq	r0, r0, sp
    71a4:	094c0500 	stmdbeq	ip, {r8, sl}^
    71a8:	0000026d 	andeq	r0, r0, sp, ror #4
    71ac:	04691380 	strbteq	r1, [r9], #-896	; 0xfffffc80
    71b0:	4e050000 	cdpmi	0, 0, cr0, cr5, cr0, {0}
    71b4:	0001290a 	andeq	r2, r1, sl, lsl #18
    71b8:	13010000 	movwne	r0, #4096	; 0x1000
    71bc:	00000134 	andeq	r0, r0, r4, lsr r1
    71c0:	290a5105 	stmdbcs	sl, {r0, r2, r8, ip, lr}
    71c4:	04000001 	streq	r0, [r0], #-1
    71c8:	150a0001 	strne	r0, [sl, #-1]
    71cc:	7d000001 	stcvc	0, cr0, [r0, #-4]
    71d0:	0b000002 	bleq	71e0 <_start-0xe20>
    71d4:	0000002c 	andeq	r0, r0, ip, lsr #32
    71d8:	bd12001f 	ldclt	0, cr0, [r2, #-124]	; 0xffffff84
    71dc:	90000002 	andls	r0, r0, r2
    71e0:	085d0501 	ldmdaeq	sp, {r0, r8, sl}^
    71e4:	000002c0 	andeq	r0, r0, r0, asr #5
    71e8:	0003d30d 	andeq	sp, r3, sp, lsl #6
    71ec:	125e0500 	subsne	r0, lr, #0, 10
    71f0:	000002c0 	andeq	r0, r0, r0, asr #5
    71f4:	03eb0d00 	mvneq	r0, #0, 26
    71f8:	5f050000 	svcpl	0x00050000
    71fc:	00002506 	andeq	r2, r0, r6, lsl #10
    7200:	a20d0400 	andge	r0, sp, #0, 8
    7204:	05000001 	streq	r0, [r0, #-1]
    7208:	02c60961 	sbceq	r0, r6, #1589248	; 0x184000
    720c:	0d080000 	stceq	0, cr0, [r8, #-0]
    7210:	0000010f 	andeq	r0, r0, pc, lsl #2
    7214:	281e6205 	ldmdacs	lr, {r0, r2, r9, sp, lr}
    7218:	88000002 	stmdahi	r0, {r1}
    721c:	7d040500 	cfstr32vc	mvfx0, [r4, #-0]
    7220:	0a000002 	beq	7230 <_start-0xdd0>
    7224:	000002d6 	ldrdeq	r0, [r0], -r6
    7228:	000002d6 	ldrdeq	r0, [r0], -r6
    722c:	00002c0b 	andeq	r2, r0, fp, lsl #24
    7230:	05001f00 	streq	r1, [r0, #-3840]	; 0xfffff100
    7234:	0002dc04 	andeq	sp, r2, r4, lsl #24
    7238:	9e101400 	cfmulsls	mvf1, mvf0, mvf0
    723c:	08000003 	stmdaeq	r0, {r0, r1}
    7240:	05087505 	streq	r7, [r8, #-1285]	; 0xfffffafb
    7244:	0d000003 	stceq	0, cr0, [r0, #-12]
    7248:	000000c9 	andeq	r0, r0, r9, asr #1
    724c:	05117605 	ldreq	r7, [r1, #-1541]	; 0xfffff9fb
    7250:	00000003 	andeq	r0, r0, r3
    7254:	00001b0d 	andeq	r1, r0, sp, lsl #22
    7258:	06770500 	ldrbteq	r0, [r7], -r0, lsl #10
    725c:	00000025 	andeq	r0, r0, r5, lsr #32
    7260:	04050004 	streq	r0, [r5], #-4
    7264:	0000004f 	andeq	r0, r0, pc, asr #32
    7268:	0003bd10 	andeq	fp, r3, r0, lsl sp
    726c:	b5056800 	strlt	r6, [r5, #-2048]	; 0xfffff800
    7270:	00044e08 	andeq	r4, r4, r8, lsl #28
    7274:	705f1100 	subsvc	r1, pc, r0, lsl #2
    7278:	12b60500 	adcsne	r0, r6, #0, 10
    727c:	00000305 	andeq	r0, r0, r5, lsl #6
    7280:	725f1100 	subsvc	r1, pc, #0, 2
    7284:	07b70500 	ldreq	r0, [r7, r0, lsl #10]!
    7288:	00000025 	andeq	r0, r0, r5, lsr #32
    728c:	775f1104 	ldrbvc	r1, [pc, -r4, lsl #2]
    7290:	07b80500 	ldreq	r0, [r8, r0, lsl #10]!
    7294:	00000025 	andeq	r0, r0, r5, lsr #32
    7298:	012d0d08 			; <UNDEFINED> instruction: 0x012d0d08
    729c:	b9050000 	stmdblt	r5, {}	; <UNPREDICTABLE>
    72a0:	00003a09 	andeq	r3, r0, r9, lsl #20
    72a4:	160d0c00 	strne	r0, [sp], -r0, lsl #24
    72a8:	05000002 	streq	r0, [r0, #-2]
    72ac:	003a09ba 	ldrhteq	r0, [sl], -sl
    72b0:	110e0000 	mrsne	r0, (UNDEF: 14)
    72b4:	0066625f 	rsbeq	r6, r6, pc, asr r2
    72b8:	dd11bb05 	vldrle	d11, [r1, #-20]	; 0xffffffec
    72bc:	10000002 	andne	r0, r0, r2
    72c0:	0000890d 	andeq	r8, r0, sp, lsl #18
    72c4:	07bc0500 	ldreq	r0, [ip, r0, lsl #10]!
    72c8:	00000025 	andeq	r0, r0, r5, lsr #32
    72cc:	011d0d18 	tsteq	sp, r8, lsl sp
    72d0:	c3050000 	movwgt	r0, #20480	; 0x5000
    72d4:	0001150a 	andeq	r1, r1, sl, lsl #10
    72d8:	290d1c00 	stmdbcs	sp, {sl, fp, ip}
    72dc:	0500000b 	streq	r0, [r0, #-11]
    72e0:	05c01dc5 	strbeq	r1, [r0, #3525]	; 0xdc5
    72e4:	0d200000 	stceq	0, cr0, [r0, #-0]
    72e8:	0000061e 	andeq	r0, r0, lr, lsl r6
    72ec:	ea1dc705 	b	778f08 <__bss_end__+0x76ef08>
    72f0:	24000005 	strcs	r0, [r0], #-5
    72f4:	00043f0d 	andeq	r3, r4, sp, lsl #30
    72f8:	0dca0500 	cfstr64eq	mvdx0, [sl]
    72fc:	0000060e 	andeq	r0, r0, lr, lsl #12
    7300:	05150d28 	ldreq	r0, [r5, #-3368]	; 0xfffff2d8
    7304:	cb050000 	blgt	14730c <__bss_end__+0x13d30c>
    7308:	00062809 	andeq	r2, r6, r9, lsl #16
    730c:	5f112c00 	svcpl	0x00112c00
    7310:	05006275 	streq	r6, [r0, #-629]	; 0xfffffd8b
    7314:	02dd11ce 	sbcseq	r1, sp, #-2147483597	; 0x80000033
    7318:	11300000 	teqne	r0, r0
    731c:	0070755f 	rsbseq	r7, r0, pc, asr r5
    7320:	0512cf05 	ldreq	ip, [r2, #-3845]	; 0xfffff0fb
    7324:	38000003 	stmdacc	r0, {r0, r1}
    7328:	72755f11 	rsbsvc	r5, r5, #17, 30	; 0x44
    732c:	07d00500 	ldrbeq	r0, [r0, r0, lsl #10]
    7330:	00000025 	andeq	r0, r0, r5, lsr #32
    7334:	00c30d3c 	sbceq	r0, r3, ip, lsr sp
    7338:	d3050000 	movwle	r0, #20480	; 0x5000
    733c:	00062e11 	andeq	r2, r6, r1, lsl lr
    7340:	ed0d4000 	stc	0, cr4, [sp, #-0]
    7344:	05000004 	streq	r0, [r0, #-4]
    7348:	063e11d4 			; <UNDEFINED> instruction: 0x063e11d4
    734c:	11430000 	mrsne	r0, (UNDEF: 67)
    7350:	00626c5f 	rsbeq	r6, r2, pc, asr ip
    7354:	dd11d705 	ldcle	7, cr13, [r1, #-20]	; 0xffffffec
    7358:	44000002 	strmi	r0, [r0], #-2
    735c:	00014b0d 	andeq	r4, r1, sp, lsl #22
    7360:	07da0500 	ldrbeq	r0, [sl, r0, lsl #10]
    7364:	00000025 	andeq	r0, r0, r5, lsr #32
    7368:	015c0d4c 	cmpeq	ip, ip, asr #26
    736c:	db050000 	blle	147374 <__bss_end__+0x13d374>
    7370:	0000820a 	andeq	r8, r0, sl, lsl #4
    7374:	ca0d5000 	bgt	35b37c <__bss_end__+0x35137c>
    7378:	0500000a 	streq	r0, [r0, #-10]
    737c:	046c12de 	strbteq	r1, [ip], #-734	; 0xfffffd22
    7380:	0d540000 	ldcleq	0, cr0, [r4, #-0]
    7384:	00000431 	andeq	r0, r0, r1, lsr r4
    7388:	090ce205 	stmdbeq	ip, {r0, r2, r9, sp, lr, pc}
    738c:	58000001 	stmdapl	r0, {r0}
    7390:	0003c50d 	andeq	ip, r3, sp, lsl #10
    7394:	0ee40500 	cdpeq	5, 14, cr0, cr4, cr0, {0}
    7398:	000000fd 	strdeq	r0, [r0], -sp
    739c:	028e0d5c 	addeq	r0, lr, #92, 26	; 0x1700
    73a0:	e5050000 	str	r0, [r5, #-0]
    73a4:	00002509 	andeq	r2, r0, r9, lsl #10
    73a8:	15006400 	strne	r6, [r0, #-1024]	; 0xfffffc00
    73ac:	00000025 	andeq	r0, r0, r5, lsr #32
    73b0:	0000046c 	andeq	r0, r0, ip, ror #8
    73b4:	00046c16 	andeq	r6, r4, r6, lsl ip
    73b8:	01151600 	tsteq	r5, r0, lsl #12
    73bc:	17160000 	ldrne	r0, [r6, -r0]
    73c0:	16000001 	strne	r0, [r0], -r1
    73c4:	00000025 	andeq	r0, r0, r5, lsr #32
    73c8:	77040500 	strvc	r0, [r4, -r0, lsl #10]
    73cc:	0f000004 	svceq	0x00000004
    73d0:	0000046c 	andeq	r0, r0, ip, ror #8
    73d4:	00041b17 	andeq	r1, r4, r7, lsl fp
    73d8:	05042800 	streq	r2, [r4, #-2048]	; 0xfffff800
    73dc:	c0080260 	andgt	r0, r8, r0, ror #4
    73e0:	18000005 	stmdane	r0, {r0, r2}
    73e4:	00000383 	andeq	r0, r0, r3, lsl #7
    73e8:	07026205 	streq	r6, [r2, -r5, lsl #4]
    73ec:	00000025 	andeq	r0, r0, r5, lsr #32
    73f0:	013c1800 	teqeq	ip, r0, lsl #16
    73f4:	67050000 	strvs	r0, [r5, -r0]
    73f8:	069a0b02 	ldreq	r0, [sl], r2, lsl #22
    73fc:	18040000 	stmdane	r4, {}	; <UNPREDICTABLE>
    7400:	00000206 	andeq	r0, r0, r6, lsl #4
    7404:	14026705 	strne	r6, [r2], #-1797	; 0xfffff8fb
    7408:	0000069a 	muleq	r0, sl, r6
    740c:	01b61808 			; <UNDEFINED> instruction: 0x01b61808
    7410:	67050000 	strvs	r0, [r5, -r0]
    7414:	069a1e02 	ldreq	r1, [sl], r2, lsl #28
    7418:	180c0000 	stmdane	ip, {}	; <UNPREDICTABLE>
    741c:	000003e6 	andeq	r0, r0, r6, ror #7
    7420:	08026905 	stmdaeq	r2, {r0, r2, r8, fp, sp, lr}
    7424:	00000025 	andeq	r0, r0, r5, lsr #32
    7428:	00371810 	eorseq	r1, r7, r0, lsl r8
    742c:	6a050000 	bvs	147434 <__bss_end__+0x13d434>
    7430:	089a0802 	ldmeq	sl, {r1, fp}
    7434:	18140000 	ldmdane	r4, {}	; <UNPREDICTABLE>
    7438:	000003fa 	strdeq	r0, [r0], -sl
    743c:	07026d05 	streq	r6, [r2, -r5, lsl #26]
    7440:	00000025 	andeq	r0, r0, r5, lsr #32
    7444:	0a061830 	beq	18d50c <__bss_end__+0x18350c>
    7448:	6e050000 	cdpvs	0, 0, cr0, cr5, cr0, {0}
    744c:	08af1602 	stmiaeq	pc!, {r1, r9, sl, ip}	; <UNPREDICTABLE>
    7450:	18340000 	ldmdane	r4!, {}	; <UNPREDICTABLE>
    7454:	000002c5 	andeq	r0, r0, r5, asr #5
    7458:	07027005 	streq	r7, [r2, -r5]
    745c:	00000025 	andeq	r0, r0, r5, lsr #32
    7460:	03f01838 	mvnseq	r1, #56, 16	; 0x380000
    7464:	72050000 	andvc	r0, r5, #0
    7468:	08c00a02 	stmiaeq	r0, {r1, r9, fp}^
    746c:	183c0000 	ldmdane	ip!, {}	; <UNPREDICTABLE>
    7470:	00000265 	andeq	r0, r0, r5, ror #4
    7474:	13027505 	movwne	r7, #9477	; 0x2505
    7478:	0000018f 	andeq	r0, r0, pc, lsl #3
    747c:	01d51840 	bicseq	r1, r5, r0, asr #16
    7480:	76050000 	strvc	r0, [r5], -r0
    7484:	00250702 	eoreq	r0, r5, r2, lsl #14
    7488:	18440000 	stmdane	r4, {}^	; <UNPREDICTABLE>
    748c:	0000052f 	andeq	r0, r0, pc, lsr #10
    7490:	13027705 	movwne	r7, #9989	; 0x2705
    7494:	0000018f 	andeq	r0, r0, pc, lsl #3
    7498:	02d71848 	sbcseq	r1, r7, #72, 16	; 0x480000
    749c:	78050000 	stmdavc	r5, {}	; <UNPREDICTABLE>
    74a0:	08c61402 	stmiaeq	r6, {r1, sl, ip}^
    74a4:	184c0000 	stmdane	ip, {}^	; <UNPREDICTABLE>
    74a8:	0000020e 	andeq	r0, r0, lr, lsl #4
    74ac:	07027b05 	streq	r7, [r2, -r5, lsl #22]
    74b0:	00000025 	andeq	r0, r0, r5, lsr #32
    74b4:	01541850 	cmpeq	r4, r0, asr r8
    74b8:	7c050000 	stcvc	0, cr0, [r5], {-0}
    74bc:	01170902 	tsteq	r7, r2, lsl #18
    74c0:	18540000 	ldmdane	r4, {}^	; <UNPREDICTABLE>
    74c4:	000002fd 	strdeq	r0, [r0], -sp
    74c8:	07029f05 	streq	r9, [r2, -r5, lsl #30]
    74cc:	00000875 	andeq	r0, r0, r5, ror r8
    74d0:	02bd1958 	adcseq	r1, sp, #88, 18	; 0x160000
    74d4:	a3050000 	movwge	r0, #20480	; 0x5000
    74d8:	02c01302 	sbceq	r1, r0, #134217728	; 0x8000000
    74dc:	01480000 	mrseq	r0, (UNDEF: 72)
    74e0:	00024319 	andeq	r4, r2, r9, lsl r3
    74e4:	02a40500 	adceq	r0, r4, #0, 10
    74e8:	00027d12 	andeq	r7, r2, r2, lsl sp
    74ec:	19014c00 	stmdbne	r1, {sl, fp, lr}
    74f0:	000004db 	ldrdeq	r0, [r0], -fp
    74f4:	0c02a805 	stceq	8, cr10, [r2], {5}
    74f8:	000008d7 	ldrdeq	r0, [r0], -r7
    74fc:	251902dc 	ldrcs	r0, [r9, #-732]	; 0xfffffd24
    7500:	05000001 	streq	r0, [r0, #-1]
    7504:	5b1002ad 	blpl	407fc0 <__bss_end__+0x3fdfc0>
    7508:	e0000006 	and	r0, r0, r6
    750c:	010a1902 	tsteq	sl, r2, lsl #18
    7510:	af050000 	svcge	0x00050000
    7514:	08e30a02 	stmiaeq	r3!, {r1, r9, fp}^
    7518:	02ec0000 	rsceq	r0, ip, #0
    751c:	4e040500 	cfsh32mi	mvfx0, mvfx4, #0
    7520:	15000004 	strne	r0, [r0, #-4]
    7524:	00000025 	andeq	r0, r0, r5, lsr #32
    7528:	000005e4 	andeq	r0, r0, r4, ror #11
    752c:	00046c16 	andeq	r6, r4, r6, lsl ip
    7530:	01151600 	tsteq	r5, r0, lsl #12
    7534:	e4160000 	ldr	r0, [r6], #-0
    7538:	16000005 	strne	r0, [r0], -r5
    753c:	00000025 	andeq	r0, r0, r5, lsr #32
    7540:	24040500 	strcs	r0, [r4], #-1280	; 0xfffffb00
    7544:	05000001 	streq	r0, [r0, #-1]
    7548:	0005c604 	andeq	ip, r5, r4, lsl #12
    754c:	008e1500 	addeq	r1, lr, r0, lsl #10
    7550:	060e0000 	streq	r0, [lr], -r0
    7554:	6c160000 	ldcvs	0, cr0, [r6], {-0}
    7558:	16000004 	strne	r0, [r0], -r4
    755c:	00000115 	andeq	r0, r0, r5, lsl r1
    7560:	00008e16 	andeq	r8, r0, r6, lsl lr
    7564:	00251600 	eoreq	r1, r5, r0, lsl #12
    7568:	05000000 	streq	r0, [r0, #-0]
    756c:	0005f004 	andeq	pc, r5, r4
    7570:	00251500 	eoreq	r1, r5, r0, lsl #10
    7574:	06280000 	strteq	r0, [r8], -r0
    7578:	6c160000 	ldcvs	0, cr0, [r6], {-0}
    757c:	16000004 	strne	r0, [r0], -r4
    7580:	00000115 	andeq	r0, r0, r5, lsl r1
    7584:	14040500 	strne	r0, [r4], #-1280	; 0xfffffb00
    7588:	0a000006 	beq	75a8 <_start-0xa58>
    758c:	0000004f 	andeq	r0, r0, pc, asr #32
    7590:	0000063e 	andeq	r0, r0, lr, lsr r6
    7594:	00002c0b 	andeq	r2, r0, fp, lsl #24
    7598:	0a000200 	beq	7da0 <_start-0x260>
    759c:	0000004f 	andeq	r0, r0, pc, asr #32
    75a0:	0000064e 	andeq	r0, r0, lr, asr #12
    75a4:	00002c0b 	andeq	r2, r0, fp, lsl #24
    75a8:	07000000 	streq	r0, [r0, -r0]
    75ac:	000003ab 	andeq	r0, r0, fp, lsr #7
    75b0:	1a011f05 	bne	4f1cc <__bss_end__+0x451cc>
    75b4:	0000030b 	andeq	r0, r0, fp, lsl #6
    75b8:	0004c21a 	andeq	ip, r4, sl, lsl r2
    75bc:	23050c00 	movwcs	r0, #23552	; 0x5c00
    75c0:	06940801 	ldreq	r0, [r4], r1, lsl #16
    75c4:	d3180000 	tstle	r8, #0
    75c8:	05000003 	streq	r0, [r0, #-3]
    75cc:	94110125 	ldrls	r0, [r1], #-293	; 0xfffffedb
    75d0:	00000006 	andeq	r0, r0, r6
    75d4:	00022918 	andeq	r2, r2, r8, lsl r9
    75d8:	01260500 			; <UNDEFINED> instruction: 0x01260500
    75dc:	00002507 	andeq	r2, r0, r7, lsl #10
    75e0:	a5180400 	ldrge	r0, [r8, #-1024]	; 0xfffffc00
    75e4:	05000003 	streq	r0, [r0, #-3]
    75e8:	9a0b0127 	bls	2c7a8c <__bss_end__+0x2bda8c>
    75ec:	08000006 	stmdaeq	r0, {r1, r2}
    75f0:	5b040500 	blpl	1089f8 <__bss_end__+0xfe9f8>
    75f4:	05000006 	streq	r0, [r0, #-6]
    75f8:	00064e04 	andeq	r4, r6, r4, lsl #28
    75fc:	002f1a00 	eoreq	r1, pc, r0, lsl #20
    7600:	050e0000 	streq	r0, [lr, #-0]
    7604:	d908013f 	stmdble	r8, {r0, r1, r2, r3, r4, r5, r8}
    7608:	18000006 	stmdane	r0, {r1, r2}
    760c:	00000422 	andeq	r0, r0, r2, lsr #8
    7610:	12014005 	andne	r4, r1, #5
    7614:	000006d9 	ldrdeq	r0, [r0], -r9
    7618:	04561800 	ldrbeq	r1, [r6], #-2048	; 0xfffff800
    761c:	41050000 	mrsmi	r0, (UNDEF: 5)
    7620:	06d91201 	ldrbeq	r1, [r9], r1, lsl #4
    7624:	18060000 	stmdane	r6, {}	; <UNPREDICTABLE>
    7628:	00000472 	andeq	r0, r0, r2, ror r4
    762c:	12014205 	andne	r4, r1, #1342177280	; 0x50000000
    7630:	00000056 	andeq	r0, r0, r6, asr r0
    7634:	560a000c 	strpl	r0, [sl], -ip
    7638:	e9000000 	stmdb	r0, {}	; <UNPREDICTABLE>
    763c:	0b000006 	bleq	765c <_start-0x9a4>
    7640:	0000002c 	andeq	r0, r0, ip, lsr #32
    7644:	d01b0002 	andsle	r0, fp, r2
    7648:	07028005 	streq	r8, [r2, -r5]
    764c:	000007fe 	strdeq	r0, [r0], -lr
    7650:	0004a618 	andeq	sl, r4, r8, lsl r6
    7654:	02820500 	addeq	r0, r2, #0, 10
    7658:	00002c18 	andeq	r2, r0, r8, lsl ip
    765c:	5c180000 	ldcpl	0, cr0, [r8], {-0}
    7660:	05000004 	streq	r0, [r0, #-4]
    7664:	17120283 	ldrne	r0, [r2, -r3, lsl #5]
    7668:	04000001 	streq	r0, [r0], #-1
    766c:	00025818 	andeq	r5, r2, r8, lsl r8
    7670:	02840500 	addeq	r0, r4, #0, 10
    7674:	0007fe10 	andeq	pc, r7, r0, lsl lr	; <UNPREDICTABLE>
    7678:	06180800 	ldreq	r0, [r8], -r0, lsl #16
    767c:	05000005 	streq	r0, [r0, #-5]
    7680:	a5170285 	ldrge	r0, [r7, #-645]	; 0xfffffd7b
    7684:	24000001 	strcs	r0, [r0], #-1
    7688:	0001c618 	andeq	ip, r1, r8, lsl r6
    768c:	02860500 	addeq	r0, r6, #0, 10
    7690:	0000250f 	andeq	r2, r0, pc, lsl #10
    7694:	ce184800 	cdpgt	8, 1, cr4, cr8, cr0, {0}
    7698:	05000003 	streq	r0, [r0, #-3]
    769c:	642c0287 	strtvs	r0, [ip], #-647	; 0xfffffd79
    76a0:	50000000 	andpl	r0, r0, r0
    76a4:	00051c18 	andeq	r1, r5, r8, lsl ip
    76a8:	02880500 	addeq	r0, r8, #0, 10
    76ac:	0006a01a 	andeq	sl, r6, sl, lsl r0
    76b0:	d9185800 	ldmdble	r8, {fp, ip, lr}
    76b4:	05000003 	streq	r0, [r0, #-3]
    76b8:	fd160289 	ldc2	2, cr0, [r6, #-548]	; 0xfffffddc
    76bc:	68000000 	stmdavs	r0, {}	; <UNPREDICTABLE>
    76c0:	00052118 	andeq	r2, r5, r8, lsl r1
    76c4:	028a0500 	addeq	r0, sl, #0, 10
    76c8:	0000fd16 	andeq	pc, r0, r6, lsl sp	; <UNPREDICTABLE>
    76cc:	e1187000 	tst	r8, r0
    76d0:	05000002 	streq	r0, [r0, #-2]
    76d4:	fd16028b 	ldc2	2, cr0, [r6, #-556]	; 0xfffffdd4
    76d8:	78000000 	stmdavc	r0, {}	; <UNPREDICTABLE>
    76dc:	0004d118 	andeq	sp, r4, r8, lsl r1
    76e0:	028c0500 	addeq	r0, ip, #0, 10
    76e4:	00080e10 	andeq	r0, r8, r0, lsl lr
    76e8:	4c188000 	ldcmi	0, cr8, [r8], {-0}
    76ec:	05000002 	streq	r0, [r0, #-2]
    76f0:	1e10028d 	cdpne	2, 1, cr0, cr0, cr13, {4}
    76f4:	88000008 	stmdahi	r0, {r3}
    76f8:	00047f18 	andeq	r7, r4, r8, lsl pc
    76fc:	028e0500 	addeq	r0, lr, #0, 10
    7700:	0000250f 	andeq	r2, r0, pc, lsl #10
    7704:	8c18a000 	ldchi	0, cr10, [r8], {-0}
    7708:	05000001 	streq	r0, [r0, #-1]
    770c:	fd16028f 	ldc2	2, cr0, [r6, #-572]	; 0xfffffdc4
    7710:	a4000000 	strge	r0, [r0], #-0
    7714:	00009d18 	andeq	r9, r0, r8, lsl sp
    7718:	02900500 	addseq	r0, r0, #0, 10
    771c:	0000fd16 	andeq	pc, r0, r6, lsl sp	; <UNPREDICTABLE>
    7720:	7b18ac00 	blvc	632728 <__bss_end__+0x628728>
    7724:	05000001 	streq	r0, [r0, #-1]
    7728:	fd160291 	ldc2	2, cr0, [r6, #-580]	; 0xfffffdbc
    772c:	b4000000 	strlt	r0, [r0], #-0
    7730:	00004a18 	andeq	r4, r0, r8, lsl sl
    7734:	02920500 	addseq	r0, r2, #0, 10
    7738:	0000fd16 	andeq	pc, r0, r6, lsl sp	; <UNPREDICTABLE>
    773c:	5918bc00 	ldmdbpl	r8, {sl, fp, ip, sp, pc}
    7740:	05000000 	streq	r0, [r0, #-0]
    7744:	fd160293 	ldc2	2, cr0, [r6, #-588]	; 0xfffffdb4
    7748:	c4000000 	strgt	r0, [r0], #-0
    774c:	00038118 	andeq	r8, r3, r8, lsl r1
    7750:	02940500 	addseq	r0, r4, #0, 10
    7754:	00002508 	andeq	r2, r0, r8, lsl #10
    7758:	0a00cc00 	beq	3a760 <__bss_end__+0x30760>
    775c:	0000011d 	andeq	r0, r0, sp, lsl r1
    7760:	0000080e 	andeq	r0, r0, lr, lsl #16
    7764:	00002c0b 	andeq	r2, r0, fp, lsl #24
    7768:	0a001900 	beq	db70 <__bss_end__+0x3b70>
    776c:	0000011d 	andeq	r0, r0, sp, lsl r1
    7770:	0000081e 	andeq	r0, r0, lr, lsl r8
    7774:	00002c0b 	andeq	r2, r0, fp, lsl #24
    7778:	0a000700 	beq	9380 <gpio_set_function+0x30>
    777c:	0000011d 	andeq	r0, r0, sp, lsl r1
    7780:	0000082e 	andeq	r0, r0, lr, lsr #16
    7784:	00002c0b 	andeq	r2, r0, fp, lsl #24
    7788:	1b001700 	blne	d390 <__bss_end__+0x3390>
    778c:	029905f0 	addseq	r0, r9, #240, 10	; 0x3c000000
    7790:	00085507 	andeq	r5, r8, r7, lsl #10
    7794:	02ad1800 	adceq	r1, sp, #0, 16
    7798:	9c050000 	stcls	0, cr0, [r5], {-0}
    779c:	08551b02 	ldmdaeq	r5, {r1, r8, r9, fp, ip}^
    77a0:	18000000 	stmdane	r0, {}	; <UNPREDICTABLE>
    77a4:	000004c8 	andeq	r0, r0, r8, asr #9
    77a8:	18029d05 	stmdane	r2, {r0, r2, r8, sl, fp, ip, pc}
    77ac:	00000865 	andeq	r0, r0, r5, ror #16
    77b0:	050a0078 	streq	r0, [sl, #-120]	; 0xffffff88
    77b4:	65000003 	strvs	r0, [r0, #-3]
    77b8:	0b000008 	bleq	77e0 <_start-0x820>
    77bc:	0000002c 	andeq	r0, r0, ip, lsr #32
    77c0:	2c0a001d 	stccs	0, cr0, [sl], {29}
    77c4:	75000000 	strvc	r0, [r0, #-0]
    77c8:	0b000008 	bleq	77f0 <_start-0x810>
    77cc:	0000002c 	andeq	r0, r0, ip, lsr #32
    77d0:	f01c001d 			; <UNDEFINED> instruction: 0xf01c001d
    77d4:	03027e05 	movweq	r7, #11781	; 0x2e05
    77d8:	0000089a 	muleq	r0, sl, r8
    77dc:	00041b1d 	andeq	r1, r4, sp, lsl fp
    77e0:	02950500 	addseq	r0, r5, #0, 10
    77e4:	0006e90b 	andeq	lr, r6, fp, lsl #18
    77e8:	04f31d00 	ldrbteq	r1, [r3], #3328	; 0xd00
    77ec:	9e050000 	cdpls	0, 0, cr0, cr5, cr0, {0}
    77f0:	082e0b02 	stmdaeq	lr!, {r1, r8, r9, fp}
    77f4:	0a000000 	beq	77fc <_start-0x804>
    77f8:	0000011d 	andeq	r0, r0, sp, lsl r1
    77fc:	000008aa 	andeq	r0, r0, sl, lsr #17
    7800:	00002c0b 	andeq	r2, r0, fp, lsl #24
    7804:	06001800 	streq	r1, [r0], -r0, lsl #16
    7808:	00000092 	muleq	r0, r2, r0
    780c:	08aa0405 	stmiaeq	sl!, {r0, r2, sl}
    7810:	c01e0000 	andsgt	r0, lr, r0
    7814:	16000008 	strne	r0, [r0], -r8
    7818:	0000046c 	andeq	r0, r0, ip, ror #8
    781c:	b5040500 	strlt	r0, [r4, #-1280]	; 0xfffffb00
    7820:	05000008 	streq	r0, [r0, #-8]
    7824:	00018f04 	andeq	r8, r1, r4, lsl #30
    7828:	08d71e00 	ldmeq	r7, {r9, sl, fp, ip}^
    782c:	25160000 	ldrcs	r0, [r6, #-0]
    7830:	00000000 	andeq	r0, r0, r0
    7834:	08dd0405 	ldmeq	sp, {r0, r2, sl}^
    7838:	04050000 	streq	r0, [r5], #-0
    783c:	000008cc 	andeq	r0, r0, ip, asr #17
    7840:	00064e0a 	andeq	r4, r6, sl, lsl #28
    7844:	0008f300 	andeq	pc, r8, r0, lsl #6
    7848:	002c0b00 	eoreq	r0, ip, r0, lsl #22
    784c:	00020000 	andeq	r0, r2, r0
    7850:	0004931f 	andeq	r9, r4, pc, lsl r3
    7854:	032e0500 			; <UNDEFINED> instruction: 0x032e0500
    7858:	00046c17 	andeq	r6, r4, r7, lsl ip
    785c:	048c1f00 	streq	r1, [ip], #3840	; 0xf00
    7860:	2f050000 	svccs	0x00050000
    7864:	04721d03 	ldrbteq	r1, [r2], #-3331	; 0xfffff2fd
    7868:	25150000 	ldrcs	r0, [r5, #-0]
    786c:	1c000000 	stcne	0, cr0, [r0], {-0}
    7870:	16000009 	strne	r0, [r0], -r9
    7874:	00000025 	andeq	r0, r0, r5, lsr #32
    7878:	01df2000 	bicseq	r2, pc, r0
    787c:	1d060000 	stcne	0, cr0, [r6, #-0]
    7880:	0009280e 	andeq	r2, r9, lr, lsl #16
    7884:	0d040500 	cfstr32eq	mvfx0, [r4, #-0]
    7888:	15000009 	strne	r0, [r0, #-9]
    788c:	00000025 	andeq	r0, r0, r5, lsr #32
    7890:	0000093d 	andeq	r0, r0, sp, lsr r9
    7894:	0005e416 	andeq	lr, r5, r6, lsl r4
    7898:	6d200000 	stcvs	0, cr0, [r0, #-0]
    789c:	06000007 	streq	r0, [r0], -r7
    78a0:	09490e22 	stmdbeq	r9, {r1, r5, r9, sl, fp}^
    78a4:	04050000 	streq	r0, [r5], #-0
    78a8:	0000092e 	andeq	r0, r0, lr, lsr #18
    78ac:	00081821 	andeq	r1, r8, r1, lsr #16
    78b0:	060d0100 	streq	r0, [sp], -r0, lsl #2
    78b4:	0000905c 	andeq	r9, r0, ip, asr r0
    78b8:	0000002c 	andeq	r0, r0, ip, lsr #32
    78bc:	09b89c01 	ldmibeq	r8!, {r0, sl, fp, ip, pc}
    78c0:	28200000 	stmdacs	r0!, {}	; <UNPREDICTABLE>
    78c4:	01000008 	tsteq	r0, r8
    78c8:	0025100e 	eoreq	r1, r5, lr
    78cc:	36200000 	strtcc	r0, [r0], -r0
    78d0:	01000008 	tsteq	r0, r8
    78d4:	00251f0e 	eoreq	r1, r5, lr, lsl #30
    78d8:	42220000 	eormi	r0, r2, #0
    78dc:	01000000 	mrseq	r0, (UNDEF: 0)
    78e0:	6223070f 	eorvs	r0, r3, #3932160	; 0x3c0000
    78e4:	01007373 	tsteq	r0, r3, ror r3
    78e8:	09b80a11 	ldmibeq	r8!, {r0, r4, r9, fp}
    78ec:	11b70000 			; <UNDEFINED> instruction: 0x11b70000
    78f0:	11b10000 			; <UNDEFINED> instruction: 0x11b10000
    78f4:	20240000 	eorcs	r0, r4, r0
    78f8:	01000008 	tsteq	r0, r8
    78fc:	09b80a12 	ldmibeq	r8!, {r1, r4, r9, fp}
    7900:	7c250000 	stcvc	0, cr0, [r5], #-0
    7904:	be000090 	mcrlt	0, 0, r0, cr0, cr0, {4}
    7908:	25000009 	strcs	r0, [r0, #-9]
    790c:	00009080 	andeq	r9, r0, r0, lsl #1
    7910:	000009ca 	andeq	r0, r0, sl, asr #19
    7914:	25040500 	strcs	r0, [r4, #-1280]	; 0xfffffb00
    7918:	26000000 	strcs	r0, [r0], -r0
    791c:	00000042 	andeq	r0, r0, r2, asr #32
    7920:	00000042 	andeq	r0, r0, r2, asr #32
    7924:	2606d706 	strcs	sp, [r6], -r6, lsl #14
    7928:	000002a0 	andeq	r0, r0, r0, lsr #5
    792c:	000002a0 	andeq	r0, r0, r0, lsr #5
    7930:	00066506 	andeq	r6, r6, r6, lsl #10
    7934:	00000a9b 	muleq	r0, fp, sl
    7938:	17f70004 	ldrbne	r0, [r7, r4]!
    793c:	01040000 	mrseq	r0, (UNDEF: 4)
    7940:	00000302 	andeq	r0, r0, r2, lsl #6
    7944:	0008820c 	andeq	r8, r8, ip, lsl #4
    7948:	0006c600 	andeq	ip, r6, r0, lsl #12
    794c:	00006800 	andeq	r6, r0, r0, lsl #16
    7950:	00000000 	andeq	r0, r0, r0
    7954:	0015fe00 	andseq	pc, r5, r0, lsl #28
    7958:	05040200 	streq	r0, [r4, #-512]	; 0xfffffe00
    795c:	00746e69 	rsbseq	r6, r4, r9, ror #28
    7960:	00002503 	andeq	r2, r0, r3, lsl #10
    7964:	07040400 	streq	r0, [r4, -r0, lsl #8]
    7968:	00000074 	andeq	r0, r0, r4, ror r0
    796c:	f1060104 	cps	#4
    7970:	04000002 	streq	r0, [r0], #-2
    7974:	038a0502 	orreq	r0, sl, #8388608	; 0x800000
    7978:	04040000 	streq	r0, [r4], #-0
    797c:	0000ba05 	andeq	fp, r0, r5, lsl #20
    7980:	05080400 	streq	r0, [r8, #-1024]	; 0xfffffc00
    7984:	000000b5 	strheq	r0, [r0], -r5
    7988:	ef080104 	svc	0x00080104
    798c:	04000002 	streq	r0, [r0], #-2
    7990:	02300702 	eorseq	r0, r0, #524288	; 0x80000
    7994:	04040000 	streq	r0, [r4], #-0
    7998:	00006f07 	andeq	r6, r0, r7, lsl #30
    799c:	07080400 	streq	r0, [r8, -r0, lsl #8]
    79a0:	0000006a 	andeq	r0, r0, sl, rrx
    79a4:	00027305 	andeq	r7, r2, r5, lsl #6
    79a8:	19220200 	stmdbne	r2!, {r9}
    79ac:	0000007c 	andeq	r0, r0, ip, ror r0
    79b0:	00820406 	addeq	r0, r2, r6, lsl #8
    79b4:	30070000 	andcc	r0, r7, r0
    79b8:	05000004 	streq	r0, [r0, #-4]
    79bc:	000002d0 	ldrdeq	r0, [r0], -r0	; <UNPREDICTABLE>
    79c0:	460e2c03 	strmi	r2, [lr], -r3, lsl #24
    79c4:	05000000 	streq	r0, [r0, #-0]
    79c8:	00000445 	andeq	r0, r0, r5, asr #8
    79cc:	460e7203 	strmi	r7, [lr], -r3, lsl #4
    79d0:	08000000 	stmdaeq	r0, {}	; <UNPREDICTABLE>
    79d4:	0000027b 	andeq	r0, r0, fp, ror r2
    79d8:	17015e04 	strne	r5, [r1, -r4, lsl #28]
    79dc:	00000031 	andeq	r0, r0, r1, lsr r0
    79e0:	a6030409 	strge	r0, [r3], -r9, lsl #8
    79e4:	0000ce03 	andeq	ip, r0, r3, lsl #28
    79e8:	026d0a00 	rsbeq	r0, sp, #0, 20
    79ec:	a8030000 	stmdage	r3, {}	; <UNPREDICTABLE>
    79f0:	00009f0c 	andeq	r9, r0, ip, lsl #30
    79f4:	01f00a00 	mvnseq	r0, r0, lsl #20
    79f8:	a9030000 	stmdbge	r3, {}	; <UNPREDICTABLE>
    79fc:	0000ce13 	andeq	ip, r0, r3, lsl lr
    7a00:	540b0000 	strpl	r0, [fp], #-0
    7a04:	de000000 	cdple	0, 0, cr0, cr0, cr0, {0}
    7a08:	0c000000 	stceq	0, cr0, [r0], {-0}
    7a0c:	00000031 	andeq	r0, r0, r1, lsr r0
    7a10:	080d0003 	stmdaeq	sp, {r0, r1}
    7a14:	0209a303 	andeq	sl, r9, #201326592	; 0xc000000
    7a18:	0e000001 	cdpeq	0, 0, cr0, cr0, cr1, {0}
    7a1c:	00000428 	andeq	r0, r0, r8, lsr #8
    7a20:	2507a503 	strcs	sl, [r7, #-1283]	; 0xfffffafd
    7a24:	00000000 	andeq	r0, r0, r0
    7a28:	0004370e 	andeq	r3, r4, lr, lsl #14
    7a2c:	05aa0300 	streq	r0, [sl, #768]!	; 0x300
    7a30:	000000ac 	andeq	r0, r0, ip, lsr #1
    7a34:	b2050004 	andlt	r0, r5, #4
    7a38:	03000003 	movweq	r0, #3
    7a3c:	00de03ab 	sbcseq	r0, lr, fp, lsr #7
    7a40:	ad050000 	stcge	0, cr0, [r5, #-0]
    7a44:	03000001 	movweq	r0, #1
    7a48:	00701baf 	rsbseq	r1, r0, pc, lsr #23
    7a4c:	040f0000 	streq	r0, [pc], #-0	; 7a54 <_start-0x5ac>
    7a50:	01220406 			; <UNDEFINED> instruction: 0x01220406
    7a54:	01040000 	mrseq	r0, (UNDEF: 4)
    7a58:	0002f808 	andeq	pc, r2, r8, lsl #16
    7a5c:	01220300 			; <UNDEFINED> instruction: 0x01220300
    7a60:	77050000 	strvc	r0, [r5, -r0]
    7a64:	05000004 	streq	r0, [r0, #-4]
    7a68:	00621916 	rsbeq	r1, r2, r6, lsl r9
    7a6c:	be100000 	cdplt	0, 1, cr0, cr0, cr0, {0}
    7a70:	18000001 	stmdane	r0, {r0}
    7a74:	94082f05 	strls	r2, [r8], #-3845	; 0xfffff0fb
    7a78:	0e000001 	cdpeq	0, 0, cr0, cr0, cr1, {0}
    7a7c:	000003d3 	ldrdeq	r0, [r0], -r3
    7a80:	94133105 	ldrls	r3, [r3], #-261	; 0xfffffefb
    7a84:	00000001 	andeq	r0, r0, r1
    7a88:	006b5f11 	rsbeq	r5, fp, r1, lsl pc
    7a8c:	25073205 	strcs	r3, [r7, #-517]	; 0xfffffdfb
    7a90:	04000000 	streq	r0, [r0], #-0
    7a94:	0004130e 	andeq	r1, r4, lr, lsl #6
    7a98:	0b320500 	bleq	c88ea0 <__bss_end__+0xc7eea0>
    7a9c:	00000025 	andeq	r0, r0, r5, lsr #32
    7aa0:	01a70e08 			; <UNDEFINED> instruction: 0x01a70e08
    7aa4:	32050000 	andcc	r0, r5, #0
    7aa8:	00002514 	andeq	r2, r0, r4, lsl r5
    7aac:	b30e0c00 	movwlt	r0, #60416	; 0xec00
    7ab0:	05000004 	streq	r0, [r0, #-4]
    7ab4:	00251b32 	eoreq	r1, r5, r2, lsr fp
    7ab8:	11100000 	tstne	r0, r0
    7abc:	0500785f 	streq	r7, [r0, #-2143]	; 0xfffff7a1
    7ac0:	019a0b33 	orrseq	r0, sl, r3, lsr fp
    7ac4:	00140000 	andseq	r0, r4, r0
    7ac8:	013a0406 	teqeq	sl, r6, lsl #8
    7acc:	2e0b0000 	cdpcs	0, 0, cr0, cr11, cr0, {0}
    7ad0:	aa000001 	bge	7adc <_start-0x524>
    7ad4:	0c000001 	stceq	0, cr0, [r0], {1}
    7ad8:	00000031 	andeq	r0, r0, r1, lsr r0
    7adc:	eb100000 	bl	407ae4 <__bss_end__+0x3fdae4>
    7ae0:	24000001 	strcs	r0, [r0], #-1
    7ae4:	2d083705 	stccs	7, cr3, [r8, #-20]	; 0xffffffec
    7ae8:	0e000002 	cdpeq	0, 0, cr0, cr0, cr2, {0}
    7aec:	000000ac 	andeq	r0, r0, ip, lsr #1
    7af0:	25093905 	strcs	r3, [r9, #-2309]	; 0xfffff6fb
    7af4:	00000000 	andeq	r0, r0, r0
    7af8:	00044d0e 	andeq	r4, r4, lr, lsl #26
    7afc:	093a0500 	ldmdbeq	sl!, {r8, sl}
    7b00:	00000025 	andeq	r0, r0, r5, lsr #32
    7b04:	00cf0e04 	sbceq	r0, pc, r4, lsl #28
    7b08:	3b050000 	blcc	147b10 <__bss_end__+0x13db10>
    7b0c:	00002509 	andeq	r2, r0, r9, lsl #10
    7b10:	340e0800 	strcc	r0, [lr], #-2048	; 0xfffff800
    7b14:	05000005 	streq	r0, [r0, #-5]
    7b18:	0025093c 	eoreq	r0, r5, ip, lsr r9
    7b1c:	0e0c0000 	cdpeq	0, 0, cr0, cr12, cr0, {0}
    7b20:	000002b4 			; <UNDEFINED> instruction: 0x000002b4
    7b24:	25093d05 	strcs	r3, [r9, #-3333]	; 0xfffff2fb
    7b28:	10000000 	andne	r0, r0, r0
    7b2c:	0002960e 	andeq	r9, r2, lr, lsl #12
    7b30:	093e0500 	ldmdbeq	lr!, {r8, sl}
    7b34:	00000025 	andeq	r0, r0, r5, lsr #32
    7b38:	04b80e14 	ldrteq	r0, [r8], #3604	; 0xe14
    7b3c:	3f050000 	svccc	0x00050000
    7b40:	00002509 	andeq	r2, r0, r9, lsl #10
    7b44:	940e1800 	strls	r1, [lr], #-2048	; 0xfffff800
    7b48:	05000003 	streq	r0, [r0, #-3]
    7b4c:	00250940 	eoreq	r0, r5, r0, asr #18
    7b50:	0e1c0000 	cdpeq	0, 1, cr0, cr12, cr0, {0}
    7b54:	000004fb 	strdeq	r0, [r0], -fp
    7b58:	25094105 	strcs	r4, [r9, #-261]	; 0xfffffefb
    7b5c:	20000000 	andcs	r0, r0, r0
    7b60:	010f1200 	mrseq	r1, (UNDEF: 47)
    7b64:	01080000 	mrseq	r0, (UNDEF: 8)
    7b68:	72084a05 	andvc	r4, r8, #20480	; 0x5000
    7b6c:	0e000002 	cdpeq	0, 0, cr0, cr0, cr2, {0}
    7b70:	0000019a 	muleq	r0, sl, r1
    7b74:	720a4b05 	andvc	r4, sl, #5120	; 0x1400
    7b78:	00000002 	andeq	r0, r0, r2
    7b7c:	0000000e 	andeq	r0, r0, lr
    7b80:	094c0500 	stmdbeq	ip, {r8, sl}^
    7b84:	00000272 	andeq	r0, r0, r2, ror r2
    7b88:	04691380 	strbteq	r1, [r9], #-896	; 0xfffffc80
    7b8c:	4e050000 	cdpmi	0, 0, cr0, cr5, cr0, {0}
    7b90:	00012e0a 	andeq	r2, r1, sl, lsl #28
    7b94:	13010000 	movwne	r0, #4096	; 0x1000
    7b98:	00000134 	andeq	r0, r0, r4, lsr r1
    7b9c:	2e0a5105 	adfcse	f5, f2, f5
    7ba0:	04000001 	streq	r0, [r0], #-1
    7ba4:	1a0b0001 	bne	2c7bb0 <__bss_end__+0x2bdbb0>
    7ba8:	82000001 	andhi	r0, r0, #1
    7bac:	0c000002 	stceq	0, cr0, [r0], {2}
    7bb0:	00000031 	andeq	r0, r0, r1, lsr r0
    7bb4:	bd12001f 	ldclt	0, cr0, [r2, #-124]	; 0xffffff84
    7bb8:	90000002 	andls	r0, r0, r2
    7bbc:	085d0501 	ldmdaeq	sp, {r0, r8, sl}^
    7bc0:	000002c5 	andeq	r0, r0, r5, asr #5
    7bc4:	0003d30e 	andeq	sp, r3, lr, lsl #6
    7bc8:	125e0500 	subsne	r0, lr, #0, 10
    7bcc:	000002c5 	andeq	r0, r0, r5, asr #5
    7bd0:	03eb0e00 	mvneq	r0, #0, 28
    7bd4:	5f050000 	svcpl	0x00050000
    7bd8:	00002506 	andeq	r2, r0, r6, lsl #10
    7bdc:	a20e0400 	andge	r0, lr, #0, 8
    7be0:	05000001 	streq	r0, [r0, #-1]
    7be4:	02cb0961 	sbceq	r0, fp, #1589248	; 0x184000
    7be8:	0e080000 	cdpeq	0, 0, cr0, cr8, cr0, {0}
    7bec:	0000010f 	andeq	r0, r0, pc, lsl #2
    7bf0:	2d1e6205 	lfmcs	f6, 4, [lr, #-20]	; 0xffffffec
    7bf4:	88000002 	stmdahi	r0, {r1}
    7bf8:	82040600 	andhi	r0, r4, #0, 12
    7bfc:	0b000002 	bleq	7c0c <_start-0x3f4>
    7c00:	000002db 	ldrdeq	r0, [r0], -fp
    7c04:	000002db 	ldrdeq	r0, [r0], -fp
    7c08:	0000310c 	andeq	r3, r0, ip, lsl #2
    7c0c:	06001f00 	streq	r1, [r0], -r0, lsl #30
    7c10:	0002e104 	andeq	lr, r2, r4, lsl #2
    7c14:	9e101400 	cfmulsls	mvf1, mvf0, mvf0
    7c18:	08000003 	stmdaeq	r0, {r0, r1}
    7c1c:	0a087505 	beq	225038 <__bss_end__+0x21b038>
    7c20:	0e000003 	cdpeq	0, 0, cr0, cr0, cr3, {0}
    7c24:	000000c9 	andeq	r0, r0, r9, asr #1
    7c28:	0a117605 	beq	465444 <__bss_end__+0x45b444>
    7c2c:	00000003 	andeq	r0, r0, r3
    7c30:	00001b0e 	andeq	r1, r0, lr, lsl #22
    7c34:	06770500 	ldrbteq	r0, [r7], -r0, lsl #10
    7c38:	00000025 	andeq	r0, r0, r5, lsr #32
    7c3c:	04060004 	streq	r0, [r6], #-4
    7c40:	00000054 	andeq	r0, r0, r4, asr r0
    7c44:	0003bd10 	andeq	fp, r3, r0, lsl sp
    7c48:	b5056800 	strlt	r6, [r5, #-2048]	; 0xfffff800
    7c4c:	00045308 	andeq	r5, r4, r8, lsl #6
    7c50:	705f1100 	subsvc	r1, pc, r0, lsl #2
    7c54:	12b60500 	adcsne	r0, r6, #0, 10
    7c58:	0000030a 	andeq	r0, r0, sl, lsl #6
    7c5c:	725f1100 	subsvc	r1, pc, #0, 2
    7c60:	07b70500 	ldreq	r0, [r7, r0, lsl #10]!
    7c64:	00000025 	andeq	r0, r0, r5, lsr #32
    7c68:	775f1104 	ldrbvc	r1, [pc, -r4, lsl #2]
    7c6c:	07b80500 	ldreq	r0, [r8, r0, lsl #10]!
    7c70:	00000025 	andeq	r0, r0, r5, lsr #32
    7c74:	012d0e08 			; <UNDEFINED> instruction: 0x012d0e08
    7c78:	b9050000 	stmdblt	r5, {}	; <UNPREDICTABLE>
    7c7c:	00003f09 	andeq	r3, r0, r9, lsl #30
    7c80:	160e0c00 	strne	r0, [lr], -r0, lsl #24
    7c84:	05000002 	streq	r0, [r0, #-2]
    7c88:	003f09ba 	ldrhteq	r0, [pc], -sl
    7c8c:	110e0000 	mrsne	r0, (UNDEF: 14)
    7c90:	0066625f 	rsbeq	r6, r6, pc, asr r2
    7c94:	e211bb05 	ands	fp, r1, #5120	; 0x1400
    7c98:	10000002 	andne	r0, r0, r2
    7c9c:	0000890e 	andeq	r8, r0, lr, lsl #18
    7ca0:	07bc0500 	ldreq	r0, [ip, r0, lsl #10]!
    7ca4:	00000025 	andeq	r0, r0, r5, lsr #32
    7ca8:	011d0e18 	tsteq	sp, r8, lsl lr
    7cac:	c3050000 	movwgt	r0, #20480	; 0x5000
    7cb0:	00011a0a 	andeq	r1, r1, sl, lsl #20
    7cb4:	290e1c00 	stmdbcs	lr, {sl, fp, ip}
    7cb8:	0500000b 	streq	r0, [r0, #-11]
    7cbc:	05c51dc5 	strbeq	r1, [r5, #3525]	; 0xdc5
    7cc0:	0e200000 	cdpeq	0, 2, cr0, cr0, cr0, {0}
    7cc4:	0000061e 	andeq	r0, r0, lr, lsl r6
    7cc8:	ef1dc705 	svc	0x001dc705
    7ccc:	24000005 	strcs	r0, [r0], #-5
    7cd0:	00043f0e 	andeq	r3, r4, lr, lsl #30
    7cd4:	0dca0500 	cfstr64eq	mvdx0, [sl]
    7cd8:	00000613 	andeq	r0, r0, r3, lsl r6
    7cdc:	05150e28 	ldreq	r0, [r5, #-3624]	; 0xfffff1d8
    7ce0:	cb050000 	blgt	147ce8 <__bss_end__+0x13dce8>
    7ce4:	00062d09 	andeq	r2, r6, r9, lsl #26
    7ce8:	5f112c00 	svcpl	0x00112c00
    7cec:	05006275 	streq	r6, [r0, #-629]	; 0xfffffd8b
    7cf0:	02e211ce 	rsceq	r1, r2, #-2147483597	; 0x80000033
    7cf4:	11300000 	teqne	r0, r0
    7cf8:	0070755f 	rsbseq	r7, r0, pc, asr r5
    7cfc:	0a12cf05 	beq	4bb918 <__bss_end__+0x4b1918>
    7d00:	38000003 	stmdacc	r0, {r0, r1}
    7d04:	72755f11 	rsbsvc	r5, r5, #17, 30	; 0x44
    7d08:	07d00500 	ldrbeq	r0, [r0, r0, lsl #10]
    7d0c:	00000025 	andeq	r0, r0, r5, lsr #32
    7d10:	00c30e3c 	sbceq	r0, r3, ip, lsr lr
    7d14:	d3050000 	movwle	r0, #20480	; 0x5000
    7d18:	00063311 	andeq	r3, r6, r1, lsl r3
    7d1c:	ed0e4000 	stc	0, cr4, [lr, #-0]
    7d20:	05000004 	streq	r0, [r0, #-4]
    7d24:	064311d4 			; <UNDEFINED> instruction: 0x064311d4
    7d28:	11430000 	mrsne	r0, (UNDEF: 67)
    7d2c:	00626c5f 	rsbeq	r6, r2, pc, asr ip
    7d30:	e211d705 	ands	sp, r1, #1310720	; 0x140000
    7d34:	44000002 	strmi	r0, [r0], #-2
    7d38:	00014b0e 	andeq	r4, r1, lr, lsl #22
    7d3c:	07da0500 	ldrbeq	r0, [sl, r0, lsl #10]
    7d40:	00000025 	andeq	r0, r0, r5, lsr #32
    7d44:	015c0e4c 	cmpeq	ip, ip, asr #28
    7d48:	db050000 	blle	147d50 <__bss_end__+0x13dd50>
    7d4c:	0000870a 	andeq	r8, r0, sl, lsl #14
    7d50:	ca0e5000 	bgt	39bd58 <__bss_end__+0x391d58>
    7d54:	0500000a 	streq	r0, [r0, #-10]
    7d58:	047112de 	ldrbteq	r1, [r1], #-734	; 0xfffffd22
    7d5c:	0e540000 	cdpeq	0, 5, cr0, cr4, cr0, {0}
    7d60:	00000431 	andeq	r0, r0, r1, lsr r4
    7d64:	0e0ce205 	cdpeq	2, 0, cr14, cr12, cr5, {0}
    7d68:	58000001 	stmdapl	r0, {r0}
    7d6c:	0003c50e 	andeq	ip, r3, lr, lsl #10
    7d70:	0ee40500 	cdpeq	5, 14, cr0, cr4, cr0, {0}
    7d74:	00000102 	andeq	r0, r0, r2, lsl #2
    7d78:	028e0e5c 	addeq	r0, lr, #92, 28	; 0x5c0
    7d7c:	e5050000 	str	r0, [r5, #-0]
    7d80:	00002509 	andeq	r2, r0, r9, lsl #10
    7d84:	15006400 	strne	r6, [r0, #-1024]	; 0xfffffc00
    7d88:	00000025 	andeq	r0, r0, r5, lsr #32
    7d8c:	00000471 	andeq	r0, r0, r1, ror r4
    7d90:	00047116 	andeq	r7, r4, r6, lsl r1
    7d94:	011a1600 	tsteq	sl, r0, lsl #12
    7d98:	1c160000 	ldcne	0, cr0, [r6], {-0}
    7d9c:	16000001 	strne	r0, [r0], -r1
    7da0:	00000025 	andeq	r0, r0, r5, lsr #32
    7da4:	7c040600 	stcvc	6, cr0, [r4], {-0}
    7da8:	03000004 	movweq	r0, #4
    7dac:	00000471 	andeq	r0, r0, r1, ror r4
    7db0:	00041b17 	andeq	r1, r4, r7, lsl fp
    7db4:	05042800 	streq	r2, [r4, #-2048]	; 0xfffff800
    7db8:	c5080260 	strgt	r0, [r8, #-608]	; 0xfffffda0
    7dbc:	18000005 	stmdane	r0, {r0, r2}
    7dc0:	00000383 	andeq	r0, r0, r3, lsl #7
    7dc4:	07026205 	streq	r6, [r2, -r5, lsl #4]
    7dc8:	00000025 	andeq	r0, r0, r5, lsr #32
    7dcc:	013c1800 	teqeq	ip, r0, lsl #16
    7dd0:	67050000 	strvs	r0, [r5, -r0]
    7dd4:	069f0b02 	ldreq	r0, [pc], r2, lsl #22
    7dd8:	18040000 	stmdane	r4, {}	; <UNPREDICTABLE>
    7ddc:	00000206 	andeq	r0, r0, r6, lsl #4
    7de0:	14026705 	strne	r6, [r2], #-1797	; 0xfffff8fb
    7de4:	0000069f 	muleq	r0, pc, r6	; <UNPREDICTABLE>
    7de8:	01b61808 			; <UNDEFINED> instruction: 0x01b61808
    7dec:	67050000 	strvs	r0, [r5, -r0]
    7df0:	069f1e02 	ldreq	r1, [pc], r2, lsl #28
    7df4:	180c0000 	stmdane	ip, {}	; <UNPREDICTABLE>
    7df8:	000003e6 	andeq	r0, r0, r6, ror #7
    7dfc:	08026905 	stmdaeq	r2, {r0, r2, r8, fp, sp, lr}
    7e00:	00000025 	andeq	r0, r0, r5, lsr #32
    7e04:	00371810 	eorseq	r1, r7, r0, lsl r8
    7e08:	6a050000 	bvs	147e10 <__bss_end__+0x13de10>
    7e0c:	089f0802 	ldmeq	pc, {r1, fp}	; <UNPREDICTABLE>
    7e10:	18140000 	ldmdane	r4, {}	; <UNPREDICTABLE>
    7e14:	000003fa 	strdeq	r0, [r0], -sl
    7e18:	07026d05 	streq	r6, [r2, -r5, lsl #26]
    7e1c:	00000025 	andeq	r0, r0, r5, lsr #32
    7e20:	0a061830 	beq	18dee8 <__bss_end__+0x183ee8>
    7e24:	6e050000 	cdpvs	0, 0, cr0, cr5, cr0, {0}
    7e28:	08b41602 	ldmeq	r4!, {r1, r9, sl, ip}
    7e2c:	18340000 	ldmdane	r4!, {}	; <UNPREDICTABLE>
    7e30:	000002c5 	andeq	r0, r0, r5, asr #5
    7e34:	07027005 	streq	r7, [r2, -r5]
    7e38:	00000025 	andeq	r0, r0, r5, lsr #32
    7e3c:	03f01838 	mvnseq	r1, #56, 16	; 0x380000
    7e40:	72050000 	andvc	r0, r5, #0
    7e44:	08c50a02 	stmiaeq	r5, {r1, r9, fp}^
    7e48:	183c0000 	ldmdane	ip!, {}	; <UNPREDICTABLE>
    7e4c:	00000265 	andeq	r0, r0, r5, ror #4
    7e50:	13027505 	movwne	r7, #9477	; 0x2505
    7e54:	00000194 	muleq	r0, r4, r1
    7e58:	01d51840 	bicseq	r1, r5, r0, asr #16
    7e5c:	76050000 	strvc	r0, [r5], -r0
    7e60:	00250702 	eoreq	r0, r5, r2, lsl #14
    7e64:	18440000 	stmdane	r4, {}^	; <UNPREDICTABLE>
    7e68:	0000052f 	andeq	r0, r0, pc, lsr #10
    7e6c:	13027705 	movwne	r7, #9989	; 0x2705
    7e70:	00000194 	muleq	r0, r4, r1
    7e74:	02d71848 	sbcseq	r1, r7, #72, 16	; 0x480000
    7e78:	78050000 	stmdavc	r5, {}	; <UNPREDICTABLE>
    7e7c:	08cb1402 	stmiaeq	fp, {r1, sl, ip}^
    7e80:	184c0000 	stmdane	ip, {}^	; <UNPREDICTABLE>
    7e84:	0000020e 	andeq	r0, r0, lr, lsl #4
    7e88:	07027b05 	streq	r7, [r2, -r5, lsl #22]
    7e8c:	00000025 	andeq	r0, r0, r5, lsr #32
    7e90:	01541850 	cmpeq	r4, r0, asr r8
    7e94:	7c050000 	stcvc	0, cr0, [r5], {-0}
    7e98:	011c0902 	tsteq	ip, r2, lsl #18
    7e9c:	18540000 	ldmdane	r4, {}^	; <UNPREDICTABLE>
    7ea0:	000002fd 	strdeq	r0, [r0], -sp
    7ea4:	07029f05 	streq	r9, [r2, -r5, lsl #30]
    7ea8:	0000087a 	andeq	r0, r0, sl, ror r8
    7eac:	02bd1958 	adcseq	r1, sp, #88, 18	; 0x160000
    7eb0:	a3050000 	movwge	r0, #20480	; 0x5000
    7eb4:	02c51302 	sbceq	r1, r5, #134217728	; 0x8000000
    7eb8:	01480000 	mrseq	r0, (UNDEF: 72)
    7ebc:	00024319 	andeq	r4, r2, r9, lsl r3
    7ec0:	02a40500 	adceq	r0, r4, #0, 10
    7ec4:	00028212 	andeq	r8, r2, r2, lsl r2
    7ec8:	19014c00 	stmdbne	r1, {sl, fp, lr}
    7ecc:	000004db 	ldrdeq	r0, [r0], -fp
    7ed0:	0c02a805 	stceq	8, cr10, [r2], {5}
    7ed4:	000008dc 	ldrdeq	r0, [r0], -ip
    7ed8:	251902dc 	ldrcs	r0, [r9, #-732]	; 0xfffffd24
    7edc:	05000001 	streq	r0, [r0, #-1]
    7ee0:	601002ad 	andsvs	r0, r0, sp, lsr #5
    7ee4:	e0000006 	and	r0, r0, r6
    7ee8:	010a1902 	tsteq	sl, r2, lsl #18
    7eec:	af050000 	svcge	0x00050000
    7ef0:	08e80a02 	stmiaeq	r8!, {r1, r9, fp}^
    7ef4:	02ec0000 	rsceq	r0, ip, #0
    7ef8:	53040600 	movwpl	r0, #17920	; 0x4600
    7efc:	15000004 	strne	r0, [r0, #-4]
    7f00:	00000025 	andeq	r0, r0, r5, lsr #32
    7f04:	000005e9 	andeq	r0, r0, r9, ror #11
    7f08:	00047116 	andeq	r7, r4, r6, lsl r1
    7f0c:	011a1600 	tsteq	sl, r0, lsl #12
    7f10:	e9160000 	ldmdb	r6, {}	; <UNPREDICTABLE>
    7f14:	16000005 	strne	r0, [r0], -r5
    7f18:	00000025 	andeq	r0, r0, r5, lsr #32
    7f1c:	29040600 	stmdbcs	r4, {r9, sl}
    7f20:	06000001 	streq	r0, [r0], -r1
    7f24:	0005cb04 	andeq	ip, r5, r4, lsl #22
    7f28:	00931500 	addseq	r1, r3, r0, lsl #10
    7f2c:	06130000 	ldreq	r0, [r3], -r0
    7f30:	71160000 	tstvc	r6, r0
    7f34:	16000004 	strne	r0, [r0], -r4
    7f38:	0000011a 	andeq	r0, r0, sl, lsl r1
    7f3c:	00009316 	andeq	r9, r0, r6, lsl r3
    7f40:	00251600 	eoreq	r1, r5, r0, lsl #12
    7f44:	06000000 	streq	r0, [r0], -r0
    7f48:	0005f504 	andeq	pc, r5, r4, lsl #10
    7f4c:	00251500 	eoreq	r1, r5, r0, lsl #10
    7f50:	062d0000 	strteq	r0, [sp], -r0
    7f54:	71160000 	tstvc	r6, r0
    7f58:	16000004 	strne	r0, [r0], -r4
    7f5c:	0000011a 	andeq	r0, r0, sl, lsl r1
    7f60:	19040600 	stmdbne	r4, {r9, sl}
    7f64:	0b000006 	bleq	7f84 <_start-0x7c>
    7f68:	00000054 	andeq	r0, r0, r4, asr r0
    7f6c:	00000643 	andeq	r0, r0, r3, asr #12
    7f70:	0000310c 	andeq	r3, r0, ip, lsl #2
    7f74:	0b000200 	bleq	877c <ckalloc+0x1a0>
    7f78:	00000054 	andeq	r0, r0, r4, asr r0
    7f7c:	00000653 	andeq	r0, r0, r3, asr r6
    7f80:	0000310c 	andeq	r3, r0, ip, lsl #2
    7f84:	08000000 	stmdaeq	r0, {}	; <UNPREDICTABLE>
    7f88:	000003ab 	andeq	r0, r0, fp, lsr #7
    7f8c:	1a011f05 	bne	4fba8 <__bss_end__+0x45ba8>
    7f90:	00000310 	andeq	r0, r0, r0, lsl r3
    7f94:	0004c21a 	andeq	ip, r4, sl, lsl r2
    7f98:	23050c00 	movwcs	r0, #23552	; 0x5c00
    7f9c:	06990801 	ldreq	r0, [r9], r1, lsl #16
    7fa0:	d3180000 	tstle	r8, #0
    7fa4:	05000003 	streq	r0, [r0, #-3]
    7fa8:	99110125 	ldmdbls	r1, {r0, r2, r5, r8}
    7fac:	00000006 	andeq	r0, r0, r6
    7fb0:	00022918 	andeq	r2, r2, r8, lsl r9
    7fb4:	01260500 			; <UNDEFINED> instruction: 0x01260500
    7fb8:	00002507 	andeq	r2, r0, r7, lsl #10
    7fbc:	a5180400 	ldrge	r0, [r8, #-1024]	; 0xfffffc00
    7fc0:	05000003 	streq	r0, [r0, #-3]
    7fc4:	9f0b0127 	svcls	0x000b0127
    7fc8:	08000006 	stmdaeq	r0, {r1, r2}
    7fcc:	60040600 	andvs	r0, r4, r0, lsl #12
    7fd0:	06000006 	streq	r0, [r0], -r6
    7fd4:	00065304 	andeq	r5, r6, r4, lsl #6
    7fd8:	002f1a00 	eoreq	r1, pc, r0, lsl #20
    7fdc:	050e0000 	streq	r0, [lr, #-0]
    7fe0:	de08013f 	mcrle	1, 0, r0, cr8, cr15, {1}
    7fe4:	18000006 	stmdane	r0, {r1, r2}
    7fe8:	00000422 	andeq	r0, r0, r2, lsr #8
    7fec:	12014005 	andne	r4, r1, #5
    7ff0:	000006de 	ldrdeq	r0, [r0], -lr
    7ff4:	04561800 	ldrbeq	r1, [r6], #-2048	; 0xfffff800
    7ff8:	41050000 	mrsmi	r0, (UNDEF: 5)
    7ffc:	06de1201 	ldrbeq	r1, [lr], r1, lsl #4
    8000:	18060000 	stmdane	r6, {}	; <UNPREDICTABLE>
    8004:	00000472 	andeq	r0, r0, r2, ror r4
    8008:	12014205 	andne	r4, r1, #1342177280	; 0x50000000
    800c:	0000005b 	andeq	r0, r0, fp, asr r0
    8010:	5b0b000c 	blpl	2c8048 <__bss_end__+0x2be048>
    8014:	ee000000 	cdp	0, 0, cr0, cr0, cr0, {0}
    8018:	0c000006 	stceq	0, cr0, [r0], {6}
    801c:	00000031 	andeq	r0, r0, r1, lsr r0
    8020:	d01b0002 	andsle	r0, fp, r2
    8024:	07028005 	streq	r8, [r2, -r5]
    8028:	00000803 	andeq	r0, r0, r3, lsl #16
    802c:	0004a618 	andeq	sl, r4, r8, lsl r6
    8030:	02820500 	addeq	r0, r2, #0, 10
    8034:	00003118 	andeq	r3, r0, r8, lsl r1
    8038:	5c180000 	ldcpl	0, cr0, [r8], {-0}
    803c:	05000004 	streq	r0, [r0, #-4]
    8040:	1c120283 	lfmne	f0, 4, [r2], {131}	; 0x83
    8044:	04000001 	streq	r0, [r0], #-1
    8048:	00025818 	andeq	r5, r2, r8, lsl r8
    804c:	02840500 	addeq	r0, r4, #0, 10
    8050:	00080310 	andeq	r0, r8, r0, lsl r3
    8054:	06180800 	ldreq	r0, [r8], -r0, lsl #16
    8058:	05000005 	streq	r0, [r0, #-5]
    805c:	aa170285 	bge	5c8a78 <__bss_end__+0x5bea78>
    8060:	24000001 	strcs	r0, [r0], #-1
    8064:	0001c618 	andeq	ip, r1, r8, lsl r6
    8068:	02860500 	addeq	r0, r6, #0, 10
    806c:	0000250f 	andeq	r2, r0, pc, lsl #10
    8070:	ce184800 	cdpgt	8, 1, cr4, cr8, cr0, {0}
    8074:	05000003 	streq	r0, [r0, #-3]
    8078:	692c0287 	stmdbvs	ip!, {r0, r1, r2, r7, r9}
    807c:	50000000 	andpl	r0, r0, r0
    8080:	00051c18 	andeq	r1, r5, r8, lsl ip
    8084:	02880500 	addeq	r0, r8, #0, 10
    8088:	0006a51a 	andeq	sl, r6, sl, lsl r5
    808c:	d9185800 	ldmdble	r8, {fp, ip, lr}
    8090:	05000003 	streq	r0, [r0, #-3]
    8094:	02160289 	andseq	r0, r6, #-1879048184	; 0x90000008
    8098:	68000001 	stmdavs	r0, {r0}
    809c:	00052118 	andeq	r2, r5, r8, lsl r1
    80a0:	028a0500 	addeq	r0, sl, #0, 10
    80a4:	00010216 	andeq	r0, r1, r6, lsl r2
    80a8:	e1187000 	tst	r8, r0
    80ac:	05000002 	streq	r0, [r0, #-2]
    80b0:	0216028b 	andseq	r0, r6, #-1342177272	; 0xb0000008
    80b4:	78000001 	stmdavc	r0, {r0}
    80b8:	0004d118 	andeq	sp, r4, r8, lsl r1
    80bc:	028c0500 	addeq	r0, ip, #0, 10
    80c0:	00081310 	andeq	r1, r8, r0, lsl r3
    80c4:	4c188000 	ldcmi	0, cr8, [r8], {-0}
    80c8:	05000002 	streq	r0, [r0, #-2]
    80cc:	2310028d 	tstcs	r0, #-805306360	; 0xd0000008
    80d0:	88000008 	stmdahi	r0, {r3}
    80d4:	00047f18 	andeq	r7, r4, r8, lsl pc
    80d8:	028e0500 	addeq	r0, lr, #0, 10
    80dc:	0000250f 	andeq	r2, r0, pc, lsl #10
    80e0:	8c18a000 	ldchi	0, cr10, [r8], {-0}
    80e4:	05000001 	streq	r0, [r0, #-1]
    80e8:	0216028f 	andseq	r0, r6, #-268435448	; 0xf0000008
    80ec:	a4000001 	strge	r0, [r0], #-1
    80f0:	00009d18 	andeq	r9, r0, r8, lsl sp
    80f4:	02900500 	addseq	r0, r0, #0, 10
    80f8:	00010216 	andeq	r0, r1, r6, lsl r2
    80fc:	7b18ac00 	blvc	633104 <__bss_end__+0x629104>
    8100:	05000001 	streq	r0, [r0, #-1]
    8104:	02160291 	andseq	r0, r6, #268435465	; 0x10000009
    8108:	b4000001 	strlt	r0, [r0], #-1
    810c:	00004a18 	andeq	r4, r0, r8, lsl sl
    8110:	02920500 	addseq	r0, r2, #0, 10
    8114:	00010216 	andeq	r0, r1, r6, lsl r2
    8118:	5918bc00 	ldmdbpl	r8, {sl, fp, ip, sp, pc}
    811c:	05000000 	streq	r0, [r0, #-0]
    8120:	02160293 	andseq	r0, r6, #805306377	; 0x30000009
    8124:	c4000001 	strgt	r0, [r0], #-1
    8128:	00038118 	andeq	r8, r3, r8, lsl r1
    812c:	02940500 	addseq	r0, r4, #0, 10
    8130:	00002508 	andeq	r2, r0, r8, lsl #10
    8134:	0b00cc00 	bleq	3b13c <__bss_end__+0x3113c>
    8138:	00000122 	andeq	r0, r0, r2, lsr #2
    813c:	00000813 	andeq	r0, r0, r3, lsl r8
    8140:	0000310c 	andeq	r3, r0, ip, lsl #2
    8144:	0b001900 	bleq	e54c <__bss_end__+0x454c>
    8148:	00000122 	andeq	r0, r0, r2, lsr #2
    814c:	00000823 	andeq	r0, r0, r3, lsr #16
    8150:	0000310c 	andeq	r3, r0, ip, lsl #2
    8154:	0b000700 	bleq	9d5c <buf.4297+0x15c>
    8158:	00000122 	andeq	r0, r0, r2, lsr #2
    815c:	00000833 	andeq	r0, r0, r3, lsr r8
    8160:	0000310c 	andeq	r3, r0, ip, lsl #2
    8164:	1b001700 	blne	dd6c <__bss_end__+0x3d6c>
    8168:	029905f0 	addseq	r0, r9, #240, 10	; 0x3c000000
    816c:	00085a07 	andeq	r5, r8, r7, lsl #20
    8170:	02ad1800 	adceq	r1, sp, #0, 16
    8174:	9c050000 	stcls	0, cr0, [r5], {-0}
    8178:	085a1b02 	ldmdaeq	sl, {r1, r8, r9, fp, ip}^
    817c:	18000000 	stmdane	r0, {}	; <UNPREDICTABLE>
    8180:	000004c8 	andeq	r0, r0, r8, asr #9
    8184:	18029d05 	stmdane	r2, {r0, r2, r8, sl, fp, ip, pc}
    8188:	0000086a 	andeq	r0, r0, sl, ror #16
    818c:	0a0b0078 	beq	2c8374 <__bss_end__+0x2be374>
    8190:	6a000003 	bvs	81a4 <check_free_write+0x80>
    8194:	0c000008 	stceq	0, cr0, [r0], {8}
    8198:	00000031 	andeq	r0, r0, r1, lsr r0
    819c:	310b001d 	tstcc	fp, sp, lsl r0
    81a0:	7a000000 	bvc	81a8 <check_free_write+0x84>
    81a4:	0c000008 	stceq	0, cr0, [r0], {8}
    81a8:	00000031 	andeq	r0, r0, r1, lsr r0
    81ac:	f01c001d 			; <UNDEFINED> instruction: 0xf01c001d
    81b0:	03027e05 	movweq	r7, #11781	; 0x2e05
    81b4:	0000089f 	muleq	r0, pc, r8	; <UNPREDICTABLE>
    81b8:	00041b1d 	andeq	r1, r4, sp, lsl fp
    81bc:	02950500 	addseq	r0, r5, #0, 10
    81c0:	0006ee0b 	andeq	lr, r6, fp, lsl #28
    81c4:	04f31d00 	ldrbteq	r1, [r3], #3328	; 0xd00
    81c8:	9e050000 	cdpls	0, 0, cr0, cr5, cr0, {0}
    81cc:	08330b02 	ldmdaeq	r3!, {r1, r8, r9, fp}
    81d0:	0b000000 	bleq	81d8 <check_free_write+0xb4>
    81d4:	00000122 	andeq	r0, r0, r2, lsr #2
    81d8:	000008af 	andeq	r0, r0, pc, lsr #17
    81dc:	0000310c 	andeq	r3, r0, ip, lsl #2
    81e0:	07001800 	streq	r1, [r0, -r0, lsl #16]
    81e4:	00000092 	muleq	r0, r2, r0
    81e8:	08af0406 	stmiaeq	pc!, {r1, r2, sl}	; <UNPREDICTABLE>
    81ec:	c51e0000 	ldrgt	r0, [lr, #-0]
    81f0:	16000008 	strne	r0, [r0], -r8
    81f4:	00000471 	andeq	r0, r0, r1, ror r4
    81f8:	ba040600 	blt	109a00 <__bss_end__+0xffa00>
    81fc:	06000008 	streq	r0, [r0], -r8
    8200:	00019404 	andeq	r9, r1, r4, lsl #8
    8204:	08dc1e00 	ldmeq	ip, {r9, sl, fp, ip}^
    8208:	25160000 	ldrcs	r0, [r6, #-0]
    820c:	00000000 	andeq	r0, r0, r0
    8210:	08e20406 	stmiaeq	r2!, {r1, r2, sl}^
    8214:	04060000 	streq	r0, [r6], #-0
    8218:	000008d1 	ldrdeq	r0, [r0], -r1
    821c:	0006530b 	andeq	r5, r6, fp, lsl #6
    8220:	0008f800 	andeq	pc, r8, r0, lsl #16
    8224:	00310c00 	eorseq	r0, r1, r0, lsl #24
    8228:	00020000 	andeq	r0, r2, r0
    822c:	0004931f 	andeq	r9, r4, pc, lsl r3
    8230:	032e0500 			; <UNDEFINED> instruction: 0x032e0500
    8234:	00047117 	andeq	r7, r4, r7, lsl r1
    8238:	048c1f00 	streq	r1, [ip], #3840	; 0xf00
    823c:	2f050000 	svccs	0x00050000
    8240:	04771d03 	ldrbteq	r1, [r7], #-3331	; 0xfffff2fd
    8244:	25150000 	ldrcs	r0, [r5, #-0]
    8248:	21000000 	mrscs	r0, (UNDEF: 0)
    824c:	16000009 	strne	r0, [r0], -r9
    8250:	00000025 	andeq	r0, r0, r5, lsr #32
    8254:	01df2000 	bicseq	r2, pc, r0
    8258:	1d060000 	stcne	0, cr0, [r6, #-0]
    825c:	00092d0e 	andeq	r2, r9, lr, lsl #26
    8260:	12040600 	andne	r0, r4, #0, 12
    8264:	15000009 	strne	r0, [r0, #-9]
    8268:	00000025 	andeq	r0, r0, r5, lsr #32
    826c:	00000942 	andeq	r0, r0, r2, asr #18
    8270:	0005e916 	andeq	lr, r5, r6, lsl r9
    8274:	6d200000 	stcvs	0, cr0, [r0, #-0]
    8278:	06000007 	streq	r0, [r0], -r7
    827c:	094e0e22 	stmdbeq	lr, {r1, r5, r9, sl, fp}^
    8280:	04060000 	streq	r0, [r6], #-0
    8284:	00000933 	andeq	r0, r0, r3, lsr r9
    8288:	0008a721 	andeq	sl, r8, r1, lsr #14
    828c:	110d0100 	mrsne	r0, (UNDEF: 29)
    8290:	00000031 	andeq	r0, r0, r1, lsr r0
    8294:	0007fa22 	andeq	pc, r7, r2, lsr #20
    8298:	061f0100 	ldreq	r0, [pc], -r0, lsl #2
    829c:	000090b4 	strheq	r9, [r0], -r4
    82a0:	0000004c 	andeq	r0, r0, ip, asr #32
    82a4:	0a2c9c01 	beq	b2f2b0 <__bss_end__+0xb252b0>
    82a8:	42230000 	eormi	r0, r3, #0
    82ac:	01000008 	tsteq	r0, r8
    82b0:	002c0f2a 	eoreq	r0, ip, sl, lsr #30
    82b4:	11e40000 	mvnne	r0, r0
    82b8:	11e20000 	mvnne	r0, r0
    82bc:	69230000 	stmdbvs	r3!, {}	; <UNPREDICTABLE>
    82c0:	01000008 	tsteq	r0, r8
    82c4:	002c0f2b 	eoreq	r0, ip, fp, lsr #30
    82c8:	11fe0000 	mvnsne	r0, r0
    82cc:	11fc0000 	mvnsne	r0, r0
    82d0:	76230000 	strtvc	r0, [r3], -r0
    82d4:	01000008 	tsteq	r0, r8
    82d8:	002c0f2c 	eoreq	r0, ip, ip, lsr #30
    82dc:	12180000 	andsne	r0, r8, #0
    82e0:	12160000 	andsne	r0, r6, #0
    82e4:	50230000 	eorpl	r0, r3, r0
    82e8:	01000008 	tsteq	r0, r8
    82ec:	002c0f2d 	eoreq	r0, ip, sp, lsr #30
    82f0:	12310000 	eorsne	r0, r1, #0
    82f4:	122f0000 	eorne	r0, pc, #0
    82f8:	bc240000 	stclt	0, cr0, [r4], #-0
    82fc:	57000090 			; <UNDEFINED> instruction: 0x57000090
    8300:	2500000a 	strcs	r0, [r0, #-10]
    8304:	000090cc 	andeq	r9, r0, ip, asr #1
    8308:	00000a86 	andeq	r0, r0, r6, lsl #21
    830c:	000009e2 	andeq	r0, r0, r2, ror #19
    8310:	01500126 	cmpeq	r0, r6, lsr #2
    8314:	d825004e 	stmdale	r5!, {r1, r2, r3, r6}
    8318:	92000090 	andls	r0, r0, #144	; 0x90
    831c:	0200000a 	andeq	r0, r0, #10
    8320:	2600000a 	strcs	r0, [r0], -sl
    8324:	0c055001 	stceq	0, cr5, [r5], {1}
    8328:	20100024 	andscs	r0, r0, r4, lsr #32
    832c:	05510126 	ldrbeq	r0, [r1, #-294]	; 0xfffffeda
    8330:	0000010c 	andeq	r0, r0, ip, lsl #2
    8334:	e425005a 	strt	r0, [r5], #-90	; 0xffffffa6
    8338:	92000090 	andls	r0, r0, #144	; 0x90
    833c:	2200000a 	andcs	r0, r0, #10
    8340:	2600000a 	strcs	r0, [r0], -sl
    8344:	0c055001 	stceq	0, cr5, [r5], {1}
    8348:	2010001c 	andscs	r0, r0, ip, lsl r0
    834c:	05510126 	ldrbeq	r0, [r1, #-294]	; 0xfffffeda
    8350:	0000200c 	andeq	r2, r0, ip
    8354:	ec24005a 	stc	0, cr0, [r4], #-360	; 0xfffffe98
    8358:	2c000090 	stccs	0, cr0, [r0], {144}	; 0x90
    835c:	0000000a 	andeq	r0, r0, sl
    8360:	00089527 	andeq	r9, r8, r7, lsr #10
    8364:	06170100 	ldreq	r0, [r7], -r0, lsl #2
    8368:	000090a0 	andeq	r9, r0, r0, lsr #1
    836c:	00000014 	andeq	r0, r0, r4, lsl r0
    8370:	0a579c01 	beq	15ef37c <__bss_end__+0x15e537c>
    8374:	71230000 			; <UNDEFINED> instruction: 0x71230000
    8378:	01000008 	tsteq	r0, r8
    837c:	00310e18 	eorseq	r0, r1, r8, lsl lr
    8380:	124c0000 	subne	r0, ip, #0
    8384:	12460000 	subne	r0, r6, #0
    8388:	28000000 	stmdacs	r0, {}	; <UNPREDICTABLE>
    838c:	000008a4 	andeq	r0, r0, r4, lsr #17
    8390:	25050e01 	strcs	r0, [r5, #-3585]	; 0xfffff1ff
    8394:	88000000 	stmdahi	r0, {}	; <UNPREDICTABLE>
    8398:	18000090 	stmdane	r0, {r4, r7}
    839c:	01000000 	mrseq	r0, (UNDEF: 0)
    83a0:	000a869c 	muleq	sl, ip, r6
    83a4:	08712300 	ldmdaeq	r1!, {r8, r9, sp}^
    83a8:	0f010000 	svceq	0x00010000
    83ac:	0000310e 	andeq	r3, r0, lr, lsl #2
    83b0:	00127a00 	andseq	r7, r2, r0, lsl #20
    83b4:	00127600 	andseq	r7, r2, r0, lsl #12
    83b8:	f1290000 			; <UNDEFINED> instruction: 0xf1290000
    83bc:	f1000007 	cps	#7
    83c0:	06000007 	streq	r0, [r0], -r7
    83c4:	4a29064f 	bmi	a49d08 <__bss_end__+0xa3fd08>
    83c8:	4a000008 	bmi	83f0 <check_mem+0xa0>
    83cc:	06000008 	streq	r0, [r0], -r8
    83d0:	ea00069b 	b	9e44 <buf.4297+0x244>
    83d4:	0400000a 	streq	r0, [r0], #-10
    83d8:	001a5f00 	andseq	r5, sl, r0, lsl #30
    83dc:	02010400 	andeq	r0, r1, #0, 8
    83e0:	0c000003 	stceq	0, cr0, [r0], {3}
    83e4:	000008d8 	ldrdeq	r0, [r0], -r8
    83e8:	000006c6 	andeq	r0, r0, r6, asr #13
    83ec:	00009100 	andeq	r9, r0, r0, lsl #2
    83f0:	0000008c 	andeq	r0, r0, ip, lsl #1
    83f4:	0000173a 	andeq	r1, r0, sl, lsr r7
    83f8:	69050402 	stmdbvs	r5, {r1, sl}
    83fc:	0300746e 	movweq	r7, #1134	; 0x46e
    8400:	00740704 	rsbseq	r0, r4, r4, lsl #14
    8404:	01030000 	mrseq	r0, (UNDEF: 3)
    8408:	0002f106 	andeq	pc, r2, r6, lsl #2
    840c:	05020300 	streq	r0, [r2, #-768]	; 0xfffffd00
    8410:	0000038a 	andeq	r0, r0, sl, lsl #7
    8414:	ba050403 	blt	149428 <__bss_end__+0x13f428>
    8418:	03000000 	movweq	r0, #0
    841c:	00b50508 	adcseq	r0, r5, r8, lsl #10
    8420:	01030000 	mrseq	r0, (UNDEF: 3)
    8424:	0002ef08 	andeq	lr, r2, r8, lsl #30
    8428:	07020300 	streq	r0, [r2, -r0, lsl #6]
    842c:	00000230 	andeq	r0, r0, r0, lsr r2
    8430:	6f070403 	svcvs	0x00070403
    8434:	03000000 	movweq	r0, #0
    8438:	006a0708 	rsbeq	r0, sl, r8, lsl #14
    843c:	73040000 	movwvc	r0, #16384	; 0x4000
    8440:	02000002 	andeq	r0, r0, #2
    8444:	00771922 	rsbseq	r1, r7, r2, lsr #18
    8448:	04050000 	streq	r0, [r5], #-0
    844c:	0000007d 	andeq	r0, r0, sp, ror r0
    8450:	00043006 	andeq	r3, r4, r6
    8454:	02d00400 	sbcseq	r0, r0, #0, 8
    8458:	2c030000 	stccs	0, cr0, [r3], {-0}
    845c:	0000410e 	andeq	r4, r0, lr, lsl #2
    8460:	04450400 	strbeq	r0, [r5], #-1024	; 0xfffffc00
    8464:	72030000 	andvc	r0, r3, #0
    8468:	0000410e 	andeq	r4, r0, lr, lsl #2
    846c:	027b0700 	rsbseq	r0, fp, #0, 14
    8470:	5e040000 	cdppl	0, 0, cr0, cr4, cr0, {0}
    8474:	002c1701 	eoreq	r1, ip, r1, lsl #14
    8478:	04080000 	streq	r0, [r8], #-0
    847c:	c903a603 	stmdbgt	r3, {r0, r1, r9, sl, sp, pc}
    8480:	09000000 	stmdbeq	r0, {}	; <UNPREDICTABLE>
    8484:	0000026d 	andeq	r0, r0, sp, ror #4
    8488:	9a0ca803 	bls	33249c <__bss_end__+0x32849c>
    848c:	09000000 	stmdbeq	r0, {}	; <UNPREDICTABLE>
    8490:	000001f0 	strdeq	r0, [r0], -r0	; <UNPREDICTABLE>
    8494:	c913a903 	ldmdbgt	r3, {r0, r1, r8, fp, sp, pc}
    8498:	00000000 	andeq	r0, r0, r0
    849c:	00004f0a 	andeq	r4, r0, sl, lsl #30
    84a0:	0000d900 	andeq	sp, r0, r0, lsl #18
    84a4:	002c0b00 	eoreq	r0, ip, r0, lsl #22
    84a8:	00030000 	andeq	r0, r3, r0
    84ac:	a303080c 	movwge	r0, #14348	; 0x380c
    84b0:	0000fd09 	andeq	pc, r0, r9, lsl #26
    84b4:	04280d00 	strteq	r0, [r8], #-3328	; 0xfffff300
    84b8:	a5030000 	strge	r0, [r3, #-0]
    84bc:	00002507 	andeq	r2, r0, r7, lsl #10
    84c0:	370d0000 	strcc	r0, [sp, -r0]
    84c4:	03000004 	movweq	r0, #4
    84c8:	00a705aa 	adceq	r0, r7, sl, lsr #11
    84cc:	00040000 	andeq	r0, r4, r0
    84d0:	0003b204 	andeq	fp, r3, r4, lsl #4
    84d4:	03ab0300 			; <UNDEFINED> instruction: 0x03ab0300
    84d8:	000000d9 	ldrdeq	r0, [r0], -r9
    84dc:	0001ad04 	andeq	sl, r1, r4, lsl #26
    84e0:	1baf0300 	blne	febc90e8 <__bss_end__+0xfebbf0e8>
    84e4:	0000006b 	andeq	r0, r0, fp, rrx
    84e8:	0405040e 	streq	r0, [r5], #-1038	; 0xfffffbf2
    84ec:	0000011d 	andeq	r0, r0, sp, lsl r1
    84f0:	f8080103 			; <UNDEFINED> instruction: 0xf8080103
    84f4:	0f000002 	svceq	0x00000002
    84f8:	0000011d 	andeq	r0, r0, sp, lsl r1
    84fc:	00047704 	andeq	r7, r4, r4, lsl #14
    8500:	19160500 	ldmdbne	r6, {r8, sl}
    8504:	0000005d 	andeq	r0, r0, sp, asr r0
    8508:	0001be10 	andeq	fp, r1, r0, lsl lr
    850c:	2f051800 	svccs	0x00051800
    8510:	00018f08 	andeq	r8, r1, r8, lsl #30
    8514:	03d30d00 	bicseq	r0, r3, #0, 26
    8518:	31050000 	mrscc	r0, (UNDEF: 5)
    851c:	00018f13 	andeq	r8, r1, r3, lsl pc
    8520:	5f110000 	svcpl	0x00110000
    8524:	3205006b 	andcc	r0, r5, #107	; 0x6b
    8528:	00002507 	andeq	r2, r0, r7, lsl #10
    852c:	130d0400 	movwne	r0, #54272	; 0xd400
    8530:	05000004 	streq	r0, [r0, #-4]
    8534:	00250b32 	eoreq	r0, r5, r2, lsr fp
    8538:	0d080000 	stceq	0, cr0, [r8, #-0]
    853c:	000001a7 	andeq	r0, r0, r7, lsr #3
    8540:	25143205 	ldrcs	r3, [r4, #-517]	; 0xfffffdfb
    8544:	0c000000 	stceq	0, cr0, [r0], {-0}
    8548:	0004b30d 	andeq	fp, r4, sp, lsl #6
    854c:	1b320500 	blne	c89954 <__bss_end__+0xc7f954>
    8550:	00000025 	andeq	r0, r0, r5, lsr #32
    8554:	785f1110 	ldmdavc	pc, {r4, r8, ip}^	; <UNPREDICTABLE>
    8558:	0b330500 	bleq	cc9960 <__bss_end__+0xcbf960>
    855c:	00000195 	muleq	r0, r5, r1
    8560:	04050014 	streq	r0, [r5], #-20	; 0xffffffec
    8564:	00000135 	andeq	r0, r0, r5, lsr r1
    8568:	0001290a 	andeq	r2, r1, sl, lsl #18
    856c:	0001a500 	andeq	sl, r1, r0, lsl #10
    8570:	002c0b00 	eoreq	r0, ip, r0, lsl #22
    8574:	00000000 	andeq	r0, r0, r0
    8578:	0001eb10 	andeq	lr, r1, r0, lsl fp
    857c:	37052400 	strcc	r2, [r5, -r0, lsl #8]
    8580:	00022808 	andeq	r2, r2, r8, lsl #16
    8584:	00ac0d00 	adceq	r0, ip, r0, lsl #26
    8588:	39050000 	stmdbcc	r5, {}	; <UNPREDICTABLE>
    858c:	00002509 	andeq	r2, r0, r9, lsl #10
    8590:	4d0d0000 	stcmi	0, cr0, [sp, #-0]
    8594:	05000004 	streq	r0, [r0, #-4]
    8598:	0025093a 	eoreq	r0, r5, sl, lsr r9
    859c:	0d040000 	stceq	0, cr0, [r4, #-0]
    85a0:	000000cf 	andeq	r0, r0, pc, asr #1
    85a4:	25093b05 	strcs	r3, [r9, #-2821]	; 0xfffff4fb
    85a8:	08000000 	stmdaeq	r0, {}	; <UNPREDICTABLE>
    85ac:	0005340d 	andeq	r3, r5, sp, lsl #8
    85b0:	093c0500 	ldmdbeq	ip!, {r8, sl}
    85b4:	00000025 	andeq	r0, r0, r5, lsr #32
    85b8:	02b40d0c 	adcseq	r0, r4, #12, 26	; 0x300
    85bc:	3d050000 	stccc	0, cr0, [r5, #-0]
    85c0:	00002509 	andeq	r2, r0, r9, lsl #10
    85c4:	960d1000 	strls	r1, [sp], -r0
    85c8:	05000002 	streq	r0, [r0, #-2]
    85cc:	0025093e 	eoreq	r0, r5, lr, lsr r9
    85d0:	0d140000 	ldceq	0, cr0, [r4, #-0]
    85d4:	000004b8 			; <UNDEFINED> instruction: 0x000004b8
    85d8:	25093f05 	strcs	r3, [r9, #-3845]	; 0xfffff0fb
    85dc:	18000000 	stmdane	r0, {}	; <UNPREDICTABLE>
    85e0:	0003940d 	andeq	r9, r3, sp, lsl #8
    85e4:	09400500 	stmdbeq	r0, {r8, sl}^
    85e8:	00000025 	andeq	r0, r0, r5, lsr #32
    85ec:	04fb0d1c 	ldrbteq	r0, [fp], #3356	; 0xd1c
    85f0:	41050000 	mrsmi	r0, (UNDEF: 5)
    85f4:	00002509 	andeq	r2, r0, r9, lsl #10
    85f8:	12002000 	andne	r2, r0, #0
    85fc:	0000010f 	andeq	r0, r0, pc, lsl #2
    8600:	4a050108 	bmi	148a28 <__bss_end__+0x13ea28>
    8604:	00026d08 	andeq	r6, r2, r8, lsl #26
    8608:	019a0d00 	orrseq	r0, sl, r0, lsl #26
    860c:	4b050000 	blmi	148614 <__bss_end__+0x13e614>
    8610:	00026d0a 	andeq	r6, r2, sl, lsl #26
    8614:	000d0000 	andeq	r0, sp, r0
    8618:	05000000 	streq	r0, [r0, #-0]
    861c:	026d094c 	rsbeq	r0, sp, #76, 18	; 0x130000
    8620:	13800000 	orrne	r0, r0, #0
    8624:	00000469 	andeq	r0, r0, r9, ror #8
    8628:	290a4e05 	stmdbcs	sl, {r0, r2, r9, sl, fp, lr}
    862c:	00000001 	andeq	r0, r0, r1
    8630:	01341301 	teqeq	r4, r1, lsl #6
    8634:	51050000 	mrspl	r0, (UNDEF: 5)
    8638:	0001290a 	andeq	r2, r1, sl, lsl #18
    863c:	00010400 	andeq	r0, r1, r0, lsl #8
    8640:	0001150a 	andeq	r1, r1, sl, lsl #10
    8644:	00027d00 	andeq	r7, r2, r0, lsl #26
    8648:	002c0b00 	eoreq	r0, ip, r0, lsl #22
    864c:	001f0000 	andseq	r0, pc, r0
    8650:	0002bd12 	andeq	fp, r2, r2, lsl sp
    8654:	05019000 	streq	r9, [r1, #-0]
    8658:	02c0085d 	sbceq	r0, r0, #6094848	; 0x5d0000
    865c:	d30d0000 	movwle	r0, #53248	; 0xd000
    8660:	05000003 	streq	r0, [r0, #-3]
    8664:	02c0125e 	sbceq	r1, r0, #-536870907	; 0xe0000005
    8668:	0d000000 	stceq	0, cr0, [r0, #-0]
    866c:	000003eb 	andeq	r0, r0, fp, ror #7
    8670:	25065f05 	strcs	r5, [r6, #-3845]	; 0xfffff0fb
    8674:	04000000 	streq	r0, [r0], #-0
    8678:	0001a20d 	andeq	sl, r1, sp, lsl #4
    867c:	09610500 	stmdbeq	r1!, {r8, sl}^
    8680:	000002c6 	andeq	r0, r0, r6, asr #5
    8684:	010f0d08 	tsteq	pc, r8, lsl #26
    8688:	62050000 	andvs	r0, r5, #0
    868c:	0002281e 	andeq	r2, r2, lr, lsl r8
    8690:	05008800 	streq	r8, [r0, #-2048]	; 0xfffff800
    8694:	00027d04 	andeq	r7, r2, r4, lsl #26
    8698:	02d60a00 	sbcseq	r0, r6, #0, 20
    869c:	02d60000 	sbcseq	r0, r6, #0
    86a0:	2c0b0000 	stccs	0, cr0, [fp], {-0}
    86a4:	1f000000 	svcne	0x00000000
    86a8:	dc040500 	cfstr32le	mvfx0, [r4], {-0}
    86ac:	14000002 	strne	r0, [r0], #-2
    86b0:	00039e10 	andeq	r9, r3, r0, lsl lr
    86b4:	75050800 	strvc	r0, [r5, #-2048]	; 0xfffff800
    86b8:	00030508 	andeq	r0, r3, r8, lsl #10
    86bc:	00c90d00 	sbceq	r0, r9, r0, lsl #26
    86c0:	76050000 	strvc	r0, [r5], -r0
    86c4:	00030511 	andeq	r0, r3, r1, lsl r5
    86c8:	1b0d0000 	blne	3486d0 <__bss_end__+0x33e6d0>
    86cc:	05000000 	streq	r0, [r0, #-0]
    86d0:	00250677 	eoreq	r0, r5, r7, ror r6
    86d4:	00040000 	andeq	r0, r4, r0
    86d8:	004f0405 	subeq	r0, pc, r5, lsl #8
    86dc:	bd100000 	ldclt	0, cr0, [r0, #-0]
    86e0:	68000003 	stmdavs	r0, {r0, r1}
    86e4:	4e08b505 	cfsh32mi	mvfx11, mvfx8, #5
    86e8:	11000004 	tstne	r0, r4
    86ec:	0500705f 	streq	r7, [r0, #-95]	; 0xffffffa1
    86f0:	030512b6 	movweq	r1, #21174	; 0x52b6
    86f4:	11000000 	mrsne	r0, (UNDEF: 0)
    86f8:	0500725f 	streq	r7, [r0, #-607]	; 0xfffffda1
    86fc:	002507b7 	strhteq	r0, [r5], -r7
    8700:	11040000 	mrsne	r0, (UNDEF: 4)
    8704:	0500775f 	streq	r7, [r0, #-1887]	; 0xfffff8a1
    8708:	002507b8 	strhteq	r0, [r5], -r8
    870c:	0d080000 	stceq	0, cr0, [r8, #-0]
    8710:	0000012d 	andeq	r0, r0, sp, lsr #2
    8714:	3a09b905 	bcc	276b30 <__bss_end__+0x26cb30>
    8718:	0c000000 	stceq	0, cr0, [r0], {-0}
    871c:	0002160d 	andeq	r1, r2, sp, lsl #12
    8720:	09ba0500 	ldmibeq	sl!, {r8, sl}
    8724:	0000003a 	andeq	r0, r0, sl, lsr r0
    8728:	625f110e 	subsvs	r1, pc, #-2147483645	; 0x80000003
    872c:	bb050066 	bllt	1488cc <__bss_end__+0x13e8cc>
    8730:	0002dd11 	andeq	sp, r2, r1, lsl sp
    8734:	890d1000 	stmdbhi	sp, {ip}
    8738:	05000000 	streq	r0, [r0, #-0]
    873c:	002507bc 	strhteq	r0, [r5], -ip
    8740:	0d180000 	ldceq	0, cr0, [r8, #-0]
    8744:	0000011d 	andeq	r0, r0, sp, lsl r1
    8748:	150ac305 	strne	ip, [sl, #-773]	; 0xfffffcfb
    874c:	1c000001 	stcne	0, cr0, [r0], {1}
    8750:	000b290d 	andeq	r2, fp, sp, lsl #18
    8754:	1dc50500 	cfstr64ne	mvdx0, [r5]
    8758:	000005c0 	andeq	r0, r0, r0, asr #11
    875c:	061e0d20 	ldreq	r0, [lr], -r0, lsr #26
    8760:	c7050000 	strgt	r0, [r5, -r0]
    8764:	0005ea1d 	andeq	lr, r5, sp, lsl sl
    8768:	3f0d2400 	svccc	0x000d2400
    876c:	05000004 	streq	r0, [r0, #-4]
    8770:	060e0dca 	streq	r0, [lr], -sl, asr #27
    8774:	0d280000 	stceq	0, cr0, [r8, #-0]
    8778:	00000515 	andeq	r0, r0, r5, lsl r5
    877c:	2809cb05 	stmdacs	r9, {r0, r2, r8, r9, fp, lr, pc}
    8780:	2c000006 	stccs	0, cr0, [r0], {6}
    8784:	62755f11 	rsbsvs	r5, r5, #17, 30	; 0x44
    8788:	11ce0500 	bicne	r0, lr, r0, lsl #10
    878c:	000002dd 	ldrdeq	r0, [r0], -sp
    8790:	755f1130 	ldrbvc	r1, [pc, #-304]	; 8668 <ckalloc+0x8c>
    8794:	cf050070 	svcgt	0x00050070
    8798:	00030512 	andeq	r0, r3, r2, lsl r5
    879c:	5f113800 	svcpl	0x00113800
    87a0:	05007275 	streq	r7, [r0, #-629]	; 0xfffffd8b
    87a4:	002507d0 	ldrdeq	r0, [r5], -r0	; <UNPREDICTABLE>
    87a8:	0d3c0000 	ldceq	0, cr0, [ip, #-0]
    87ac:	000000c3 	andeq	r0, r0, r3, asr #1
    87b0:	2e11d305 	cdpcs	3, 1, cr13, cr1, cr5, {0}
    87b4:	40000006 	andmi	r0, r0, r6
    87b8:	0004ed0d 	andeq	lr, r4, sp, lsl #26
    87bc:	11d40500 	bicsne	r0, r4, r0, lsl #10
    87c0:	0000063e 	andeq	r0, r0, lr, lsr r6
    87c4:	6c5f1143 	ldfvse	f1, [pc], {67}	; 0x43
    87c8:	d7050062 	strle	r0, [r5, -r2, rrx]
    87cc:	0002dd11 	andeq	sp, r2, r1, lsl sp
    87d0:	4b0d4400 	blmi	3597d8 <__bss_end__+0x34f7d8>
    87d4:	05000001 	streq	r0, [r0, #-1]
    87d8:	002507da 	ldrdeq	r0, [r5], -sl	; <UNPREDICTABLE>
    87dc:	0d4c0000 	stcleq	0, cr0, [ip, #-0]
    87e0:	0000015c 	andeq	r0, r0, ip, asr r1
    87e4:	820adb05 	andhi	sp, sl, #5120	; 0x1400
    87e8:	50000000 	andpl	r0, r0, r0
    87ec:	000aca0d 	andeq	ip, sl, sp, lsl #20
    87f0:	12de0500 	sbcsne	r0, lr, #0, 10
    87f4:	0000046c 	andeq	r0, r0, ip, ror #8
    87f8:	04310d54 	ldrteq	r0, [r1], #-3412	; 0xfffff2ac
    87fc:	e2050000 	and	r0, r5, #0
    8800:	0001090c 	andeq	r0, r1, ip, lsl #18
    8804:	c50d5800 	strgt	r5, [sp, #-2048]	; 0xfffff800
    8808:	05000003 	streq	r0, [r0, #-3]
    880c:	00fd0ee4 	rscseq	r0, sp, r4, ror #29
    8810:	0d5c0000 	ldcleq	0, cr0, [ip, #-0]
    8814:	0000028e 	andeq	r0, r0, lr, lsl #5
    8818:	2509e505 	strcs	lr, [r9, #-1285]	; 0xfffffafb
    881c:	64000000 	strvs	r0, [r0], #-0
    8820:	00251500 	eoreq	r1, r5, r0, lsl #10
    8824:	046c0000 	strbteq	r0, [ip], #-0
    8828:	6c160000 	ldcvs	0, cr0, [r6], {-0}
    882c:	16000004 	strne	r0, [r0], -r4
    8830:	00000115 	andeq	r0, r0, r5, lsl r1
    8834:	00011716 	andeq	r1, r1, r6, lsl r7
    8838:	00251600 	eoreq	r1, r5, r0, lsl #12
    883c:	05000000 	streq	r0, [r0, #-0]
    8840:	00047704 	andeq	r7, r4, r4, lsl #14
    8844:	046c0f00 	strbteq	r0, [ip], #-3840	; 0xfffff100
    8848:	1b170000 	blne	5c8850 <__bss_end__+0x5be850>
    884c:	28000004 	stmdacs	r0, {r2}
    8850:	02600504 	rsbeq	r0, r0, #4, 10	; 0x1000000
    8854:	0005c008 	andeq	ip, r5, r8
    8858:	03831800 	orreq	r1, r3, #0, 16
    885c:	62050000 	andvs	r0, r5, #0
    8860:	00250702 	eoreq	r0, r5, r2, lsl #14
    8864:	18000000 	stmdane	r0, {}	; <UNPREDICTABLE>
    8868:	0000013c 	andeq	r0, r0, ip, lsr r1
    886c:	0b026705 	bleq	a2488 <__bss_end__+0x98488>
    8870:	0000069a 	muleq	r0, sl, r6
    8874:	02061804 	andeq	r1, r6, #4, 16	; 0x40000
    8878:	67050000 	strvs	r0, [r5, -r0]
    887c:	069a1402 	ldreq	r1, [sl], r2, lsl #8
    8880:	18080000 	stmdane	r8, {}	; <UNPREDICTABLE>
    8884:	000001b6 			; <UNDEFINED> instruction: 0x000001b6
    8888:	1e026705 	cdpne	7, 0, cr6, cr2, cr5, {0}
    888c:	0000069a 	muleq	r0, sl, r6
    8890:	03e6180c 	mvneq	r1, #12, 16	; 0xc0000
    8894:	69050000 	stmdbvs	r5, {}	; <UNPREDICTABLE>
    8898:	00250802 	eoreq	r0, r5, r2, lsl #16
    889c:	18100000 	ldmdane	r0, {}	; <UNPREDICTABLE>
    88a0:	00000037 	andeq	r0, r0, r7, lsr r0
    88a4:	08026a05 	stmdaeq	r2, {r0, r2, r9, fp, sp, lr}
    88a8:	0000089a 	muleq	r0, sl, r8
    88ac:	03fa1814 	mvnseq	r1, #20, 16	; 0x140000
    88b0:	6d050000 	stcvs	0, cr0, [r5, #-0]
    88b4:	00250702 	eoreq	r0, r5, r2, lsl #14
    88b8:	18300000 	ldmdane	r0!, {}	; <UNPREDICTABLE>
    88bc:	00000a06 	andeq	r0, r0, r6, lsl #20
    88c0:	16026e05 	strne	r6, [r2], -r5, lsl #28
    88c4:	000008af 	andeq	r0, r0, pc, lsr #17
    88c8:	02c51834 	sbceq	r1, r5, #52, 16	; 0x340000
    88cc:	70050000 	andvc	r0, r5, r0
    88d0:	00250702 	eoreq	r0, r5, r2, lsl #14
    88d4:	18380000 	ldmdane	r8!, {}	; <UNPREDICTABLE>
    88d8:	000003f0 	strdeq	r0, [r0], -r0	; <UNPREDICTABLE>
    88dc:	0a027205 	beq	a50f8 <__bss_end__+0x9b0f8>
    88e0:	000008c0 	andeq	r0, r0, r0, asr #17
    88e4:	0265183c 	rsbeq	r1, r5, #60, 16	; 0x3c0000
    88e8:	75050000 	strvc	r0, [r5, #-0]
    88ec:	018f1302 	orreq	r1, pc, r2, lsl #6
    88f0:	18400000 	stmdane	r0, {}^	; <UNPREDICTABLE>
    88f4:	000001d5 	ldrdeq	r0, [r0], -r5
    88f8:	07027605 	streq	r7, [r2, -r5, lsl #12]
    88fc:	00000025 	andeq	r0, r0, r5, lsr #32
    8900:	052f1844 	streq	r1, [pc, #-2116]!	; 80c4 <notmain+0xb4>
    8904:	77050000 	strvc	r0, [r5, -r0]
    8908:	018f1302 	orreq	r1, pc, r2, lsl #6
    890c:	18480000 	stmdane	r8, {}^	; <UNPREDICTABLE>
    8910:	000002d7 	ldrdeq	r0, [r0], -r7
    8914:	14027805 	strne	r7, [r2], #-2053	; 0xfffff7fb
    8918:	000008c6 	andeq	r0, r0, r6, asr #17
    891c:	020e184c 	andeq	r1, lr, #76, 16	; 0x4c0000
    8920:	7b050000 	blvc	148928 <__bss_end__+0x13e928>
    8924:	00250702 	eoreq	r0, r5, r2, lsl #14
    8928:	18500000 	ldmdane	r0, {}^	; <UNPREDICTABLE>
    892c:	00000154 	andeq	r0, r0, r4, asr r1
    8930:	09027c05 	stmdbeq	r2, {r0, r2, sl, fp, ip, sp, lr}
    8934:	00000117 	andeq	r0, r0, r7, lsl r1
    8938:	02fd1854 	rscseq	r1, sp, #84, 16	; 0x540000
    893c:	9f050000 	svcls	0x00050000
    8940:	08750702 	ldmdaeq	r5!, {r1, r8, r9, sl}^
    8944:	19580000 	ldmdbne	r8, {}^	; <UNPREDICTABLE>
    8948:	000002bd 			; <UNDEFINED> instruction: 0x000002bd
    894c:	1302a305 	movwne	sl, #8965	; 0x2305
    8950:	000002c0 	andeq	r0, r0, r0, asr #5
    8954:	43190148 	tstmi	r9, #72, 2
    8958:	05000002 	streq	r0, [r0, #-2]
    895c:	7d1202a4 	lfmvc	f0, 4, [r2, #-656]	; 0xfffffd70
    8960:	4c000002 	stcmi	0, cr0, [r0], {2}
    8964:	04db1901 	ldrbeq	r1, [fp], #2305	; 0x901
    8968:	a8050000 	stmdage	r5, {}	; <UNPREDICTABLE>
    896c:	08d70c02 	ldmeq	r7, {r1, sl, fp}^
    8970:	02dc0000 	sbcseq	r0, ip, #0
    8974:	00012519 	andeq	r2, r1, r9, lsl r5
    8978:	02ad0500 	adceq	r0, sp, #0, 10
    897c:	00065b10 	andeq	r5, r6, r0, lsl fp
    8980:	1902e000 	stmdbne	r2, {sp, lr, pc}
    8984:	0000010a 	andeq	r0, r0, sl, lsl #2
    8988:	0a02af05 	beq	b45a4 <__bss_end__+0xaa5a4>
    898c:	000008e3 	andeq	r0, r0, r3, ror #17
    8990:	050002ec 	streq	r0, [r0, #-748]	; 0xfffffd14
    8994:	00044e04 	andeq	r4, r4, r4, lsl #28
    8998:	00251500 	eoreq	r1, r5, r0, lsl #10
    899c:	05e40000 	strbeq	r0, [r4, #0]!
    89a0:	6c160000 	ldcvs	0, cr0, [r6], {-0}
    89a4:	16000004 	strne	r0, [r0], -r4
    89a8:	00000115 	andeq	r0, r0, r5, lsl r1
    89ac:	0005e416 	andeq	lr, r5, r6, lsl r4
    89b0:	00251600 	eoreq	r1, r5, r0, lsl #12
    89b4:	05000000 	streq	r0, [r0, #-0]
    89b8:	00012404 	andeq	r2, r1, r4, lsl #8
    89bc:	c6040500 	strgt	r0, [r4], -r0, lsl #10
    89c0:	15000005 	strne	r0, [r0, #-5]
    89c4:	0000008e 	andeq	r0, r0, lr, lsl #1
    89c8:	0000060e 	andeq	r0, r0, lr, lsl #12
    89cc:	00046c16 	andeq	r6, r4, r6, lsl ip
    89d0:	01151600 	tsteq	r5, r0, lsl #12
    89d4:	8e160000 	cdphi	0, 1, cr0, cr6, cr0, {0}
    89d8:	16000000 	strne	r0, [r0], -r0
    89dc:	00000025 	andeq	r0, r0, r5, lsr #32
    89e0:	f0040500 			; <UNDEFINED> instruction: 0xf0040500
    89e4:	15000005 	strne	r0, [r0, #-5]
    89e8:	00000025 	andeq	r0, r0, r5, lsr #32
    89ec:	00000628 	andeq	r0, r0, r8, lsr #12
    89f0:	00046c16 	andeq	r6, r4, r6, lsl ip
    89f4:	01151600 	tsteq	r5, r0, lsl #12
    89f8:	05000000 	streq	r0, [r0, #-0]
    89fc:	00061404 	andeq	r1, r6, r4, lsl #8
    8a00:	004f0a00 	subeq	r0, pc, r0, lsl #20
    8a04:	063e0000 	ldrteq	r0, [lr], -r0
    8a08:	2c0b0000 	stccs	0, cr0, [fp], {-0}
    8a0c:	02000000 	andeq	r0, r0, #0
    8a10:	004f0a00 	subeq	r0, pc, r0, lsl #20
    8a14:	064e0000 	strbeq	r0, [lr], -r0
    8a18:	2c0b0000 	stccs	0, cr0, [fp], {-0}
    8a1c:	00000000 	andeq	r0, r0, r0
    8a20:	03ab0700 			; <UNDEFINED> instruction: 0x03ab0700
    8a24:	1f050000 	svcne	0x00050000
    8a28:	030b1a01 	movweq	r1, #47617	; 0xba01
    8a2c:	c21a0000 	andsgt	r0, sl, #0
    8a30:	0c000004 	stceq	0, cr0, [r0], {4}
    8a34:	08012305 	stmdaeq	r1, {r0, r2, r8, r9, sp}
    8a38:	00000694 	muleq	r0, r4, r6
    8a3c:	0003d318 	andeq	sp, r3, r8, lsl r3
    8a40:	01250500 			; <UNDEFINED> instruction: 0x01250500
    8a44:	00069411 	andeq	r9, r6, r1, lsl r4
    8a48:	29180000 	ldmdbcs	r8, {}	; <UNPREDICTABLE>
    8a4c:	05000002 	streq	r0, [r0, #-2]
    8a50:	25070126 	strcs	r0, [r7, #-294]	; 0xfffffeda
    8a54:	04000000 	streq	r0, [r0], #-0
    8a58:	0003a518 	andeq	sl, r3, r8, lsl r5
    8a5c:	01270500 			; <UNDEFINED> instruction: 0x01270500
    8a60:	00069a0b 	andeq	r9, r6, fp, lsl #20
    8a64:	05000800 	streq	r0, [r0, #-2048]	; 0xfffff800
    8a68:	00065b04 	andeq	r5, r6, r4, lsl #22
    8a6c:	4e040500 	cfsh32mi	mvfx0, mvfx4, #0
    8a70:	1a000006 	bne	8a90 <printk+0x44>
    8a74:	0000002f 	andeq	r0, r0, pc, lsr #32
    8a78:	013f050e 	teqeq	pc, lr, lsl #10
    8a7c:	0006d908 	andeq	sp, r6, r8, lsl #18
    8a80:	04221800 	strteq	r1, [r2], #-2048	; 0xfffff800
    8a84:	40050000 	andmi	r0, r5, r0
    8a88:	06d91201 	ldrbeq	r1, [r9], r1, lsl #4
    8a8c:	18000000 	stmdane	r0, {}	; <UNPREDICTABLE>
    8a90:	00000456 	andeq	r0, r0, r6, asr r4
    8a94:	12014105 	andne	r4, r1, #1073741825	; 0x40000001
    8a98:	000006d9 	ldrdeq	r0, [r0], -r9
    8a9c:	04721806 	ldrbteq	r1, [r2], #-2054	; 0xfffff7fa
    8aa0:	42050000 	andmi	r0, r5, #0
    8aa4:	00561201 	subseq	r1, r6, r1, lsl #4
    8aa8:	000c0000 	andeq	r0, ip, r0
    8aac:	0000560a 	andeq	r5, r0, sl, lsl #12
    8ab0:	0006e900 	andeq	lr, r6, r0, lsl #18
    8ab4:	002c0b00 	eoreq	r0, ip, r0, lsl #22
    8ab8:	00020000 	andeq	r0, r2, r0
    8abc:	8005d01b 	andhi	sp, r5, fp, lsl r0
    8ac0:	07fe0702 	ldrbeq	r0, [lr, r2, lsl #14]!
    8ac4:	a6180000 	ldrge	r0, [r8], -r0
    8ac8:	05000004 	streq	r0, [r0, #-4]
    8acc:	2c180282 	lfmcs	f0, 4, [r8], {130}	; 0x82
    8ad0:	00000000 	andeq	r0, r0, r0
    8ad4:	00045c18 	andeq	r5, r4, r8, lsl ip
    8ad8:	02830500 	addeq	r0, r3, #0, 10
    8adc:	00011712 	andeq	r1, r1, r2, lsl r7
    8ae0:	58180400 	ldmdapl	r8, {sl}
    8ae4:	05000002 	streq	r0, [r0, #-2]
    8ae8:	fe100284 	cdp2	2, 1, cr0, cr0, cr4, {4}
    8aec:	08000007 	stmdaeq	r0, {r0, r1, r2}
    8af0:	00050618 	andeq	r0, r5, r8, lsl r6
    8af4:	02850500 	addeq	r0, r5, #0, 10
    8af8:	0001a517 	andeq	sl, r1, r7, lsl r5
    8afc:	c6182400 	ldrgt	r2, [r8], -r0, lsl #8
    8b00:	05000001 	streq	r0, [r0, #-1]
    8b04:	250f0286 	strcs	r0, [pc, #-646]	; 8886 <ck_heap_errors+0x8e>
    8b08:	48000000 	stmdami	r0, {}	; <UNPREDICTABLE>
    8b0c:	0003ce18 	andeq	ip, r3, r8, lsl lr
    8b10:	02870500 	addeq	r0, r7, #0, 10
    8b14:	0000642c 	andeq	r6, r0, ip, lsr #8
    8b18:	1c185000 	ldcne	0, cr5, [r8], {-0}
    8b1c:	05000005 	streq	r0, [r0, #-5]
    8b20:	a01a0288 	andsge	r0, sl, r8, lsl #5
    8b24:	58000006 	stmdapl	r0, {r1, r2}
    8b28:	0003d918 	andeq	sp, r3, r8, lsl r9
    8b2c:	02890500 	addeq	r0, r9, #0, 10
    8b30:	0000fd16 	andeq	pc, r0, r6, lsl sp	; <UNPREDICTABLE>
    8b34:	21186800 	tstcs	r8, r0, lsl #16
    8b38:	05000005 	streq	r0, [r0, #-5]
    8b3c:	fd16028a 	ldc2	2, cr0, [r6, #-552]	; 0xfffffdd8
    8b40:	70000000 	andvc	r0, r0, r0
    8b44:	0002e118 	andeq	lr, r2, r8, lsl r1
    8b48:	028b0500 	addeq	r0, fp, #0, 10
    8b4c:	0000fd16 	andeq	pc, r0, r6, lsl sp	; <UNPREDICTABLE>
    8b50:	d1187800 	tstle	r8, r0, lsl #16
    8b54:	05000004 	streq	r0, [r0, #-4]
    8b58:	0e10028c 	cdpeq	2, 1, cr0, cr0, cr12, {4}
    8b5c:	80000008 	andhi	r0, r0, r8
    8b60:	00024c18 	andeq	r4, r2, r8, lsl ip
    8b64:	028d0500 	addeq	r0, sp, #0, 10
    8b68:	00081e10 	andeq	r1, r8, r0, lsl lr
    8b6c:	7f188800 	svcvc	0x00188800
    8b70:	05000004 	streq	r0, [r0, #-4]
    8b74:	250f028e 	strcs	r0, [pc, #-654]	; 88ee <ck_heap_errors+0xf6>
    8b78:	a0000000 	andge	r0, r0, r0
    8b7c:	00018c18 	andeq	r8, r1, r8, lsl ip
    8b80:	028f0500 	addeq	r0, pc, #0, 10
    8b84:	0000fd16 	andeq	pc, r0, r6, lsl sp	; <UNPREDICTABLE>
    8b88:	9d18a400 	cfldrsls	mvf10, [r8, #-0]
    8b8c:	05000000 	streq	r0, [r0, #-0]
    8b90:	fd160290 	ldc2	2, cr0, [r6, #-576]	; 0xfffffdc0
    8b94:	ac000000 	stcge	0, cr0, [r0], {-0}
    8b98:	00017b18 	andeq	r7, r1, r8, lsl fp
    8b9c:	02910500 	addseq	r0, r1, #0, 10
    8ba0:	0000fd16 	andeq	pc, r0, r6, lsl sp	; <UNPREDICTABLE>
    8ba4:	4a18b400 	bmi	635bac <__bss_end__+0x62bbac>
    8ba8:	05000000 	streq	r0, [r0, #-0]
    8bac:	fd160292 	ldc2	2, cr0, [r6, #-584]	; 0xfffffdb8
    8bb0:	bc000000 	stclt	0, cr0, [r0], {-0}
    8bb4:	00005918 	andeq	r5, r0, r8, lsl r9
    8bb8:	02930500 	addseq	r0, r3, #0, 10
    8bbc:	0000fd16 	andeq	pc, r0, r6, lsl sp	; <UNPREDICTABLE>
    8bc0:	8118c400 	tsthi	r8, r0, lsl #8
    8bc4:	05000003 	streq	r0, [r0, #-3]
    8bc8:	25080294 	strcs	r0, [r8, #-660]	; 0xfffffd6c
    8bcc:	cc000000 	stcgt	0, cr0, [r0], {-0}
    8bd0:	011d0a00 	tsteq	sp, r0, lsl #20
    8bd4:	080e0000 	stmdaeq	lr, {}	; <UNPREDICTABLE>
    8bd8:	2c0b0000 	stccs	0, cr0, [fp], {-0}
    8bdc:	19000000 	stmdbne	r0, {}	; <UNPREDICTABLE>
    8be0:	011d0a00 	tsteq	sp, r0, lsl #20
    8be4:	081e0000 	ldmdaeq	lr, {}	; <UNPREDICTABLE>
    8be8:	2c0b0000 	stccs	0, cr0, [fp], {-0}
    8bec:	07000000 	streq	r0, [r0, -r0]
    8bf0:	011d0a00 	tsteq	sp, r0, lsl #20
    8bf4:	082e0000 	stmdaeq	lr!, {}	; <UNPREDICTABLE>
    8bf8:	2c0b0000 	stccs	0, cr0, [fp], {-0}
    8bfc:	17000000 	strne	r0, [r0, -r0]
    8c00:	05f01b00 	ldrbeq	r1, [r0, #2816]!	; 0xb00
    8c04:	55070299 	strpl	r0, [r7, #-665]	; 0xfffffd67
    8c08:	18000008 	stmdane	r0, {r3}
    8c0c:	000002ad 	andeq	r0, r0, sp, lsr #5
    8c10:	1b029c05 	blne	afc2c <__bss_end__+0xa5c2c>
    8c14:	00000855 	andeq	r0, r0, r5, asr r8
    8c18:	04c81800 	strbeq	r1, [r8], #2048	; 0x800
    8c1c:	9d050000 	stcls	0, cr0, [r5, #-0]
    8c20:	08651802 	stmdaeq	r5!, {r1, fp, ip}^
    8c24:	00780000 	rsbseq	r0, r8, r0
    8c28:	0003050a 	andeq	r0, r3, sl, lsl #10
    8c2c:	00086500 	andeq	r6, r8, r0, lsl #10
    8c30:	002c0b00 	eoreq	r0, ip, r0, lsl #22
    8c34:	001d0000 	andseq	r0, sp, r0
    8c38:	00002c0a 	andeq	r2, r0, sl, lsl #24
    8c3c:	00087500 	andeq	r7, r8, r0, lsl #10
    8c40:	002c0b00 	eoreq	r0, ip, r0, lsl #22
    8c44:	001d0000 	andseq	r0, sp, r0
    8c48:	7e05f01c 	mcrvc	0, 0, pc, cr5, cr12, {0}	; <UNPREDICTABLE>
    8c4c:	089a0302 	ldmeq	sl, {r1, r8, r9}
    8c50:	1b1d0000 	blne	748c58 <__bss_end__+0x73ec58>
    8c54:	05000004 	streq	r0, [r0, #-4]
    8c58:	e90b0295 	stmdb	fp, {r0, r2, r4, r7, r9}
    8c5c:	1d000006 	stcne	0, cr0, [r0, #-24]	; 0xffffffe8
    8c60:	000004f3 	strdeq	r0, [r0], -r3
    8c64:	0b029e05 	bleq	b0480 <__bss_end__+0xa6480>
    8c68:	0000082e 	andeq	r0, r0, lr, lsr #16
    8c6c:	011d0a00 	tsteq	sp, r0, lsl #20
    8c70:	08aa0000 	stmiaeq	sl!, {}	; <UNPREDICTABLE>
    8c74:	2c0b0000 	stccs	0, cr0, [fp], {-0}
    8c78:	18000000 	stmdane	r0, {}	; <UNPREDICTABLE>
    8c7c:	00920600 	addseq	r0, r2, r0, lsl #12
    8c80:	04050000 	streq	r0, [r5], #-0
    8c84:	000008aa 	andeq	r0, r0, sl, lsr #17
    8c88:	0008c01e 	andeq	ip, r8, lr, lsl r0
    8c8c:	046c1600 	strbteq	r1, [ip], #-1536	; 0xfffffa00
    8c90:	05000000 	streq	r0, [r0, #-0]
    8c94:	0008b504 	andeq	fp, r8, r4, lsl #10
    8c98:	8f040500 	svchi	0x00040500
    8c9c:	1e000001 	cdpne	0, 0, cr0, cr0, cr1, {0}
    8ca0:	000008d7 	ldrdeq	r0, [r0], -r7
    8ca4:	00002516 	andeq	r2, r0, r6, lsl r5
    8ca8:	04050000 	streq	r0, [r5], #-0
    8cac:	000008dd 	ldrdeq	r0, [r0], -sp
    8cb0:	08cc0405 	stmiaeq	ip, {r0, r2, sl}^
    8cb4:	4e0a0000 	cdpmi	0, 0, cr0, cr10, cr0, {0}
    8cb8:	f3000006 	vhadd.u8	d0, d0, d6
    8cbc:	0b000008 	bleq	8ce4 <emit+0x160>
    8cc0:	0000002c 	andeq	r0, r0, ip, lsr #32
    8cc4:	931f0002 	tstls	pc, #2
    8cc8:	05000004 	streq	r0, [r0, #-4]
    8ccc:	6c17032e 	ldcvs	3, cr0, [r7], {46}	; 0x2e
    8cd0:	1f000004 	svcne	0x00000004
    8cd4:	0000048c 	andeq	r0, r0, ip, lsl #9
    8cd8:	1d032f05 	stcne	15, cr2, [r3, #-20]	; 0xffffffec
    8cdc:	00000472 	andeq	r0, r0, r2, ror r4
    8ce0:	00002515 	andeq	r2, r0, r5, lsl r5
    8ce4:	00091c00 	andeq	r1, r9, r0, lsl #24
    8ce8:	00251600 	eoreq	r1, r5, r0, lsl #12
    8cec:	20000000 	andcs	r0, r0, r0
    8cf0:	000001df 	ldrdeq	r0, [r0], -pc	; <UNPREDICTABLE>
    8cf4:	280e1d06 	stmdacs	lr, {r1, r2, r8, sl, fp, ip}
    8cf8:	05000009 	streq	r0, [r0, #-9]
    8cfc:	00090d04 	andeq	r0, r9, r4, lsl #26
    8d00:	00251500 	eoreq	r1, r5, r0, lsl #10
    8d04:	093d0000 	ldmdbeq	sp!, {}	; <UNPREDICTABLE>
    8d08:	e4160000 	ldr	r0, [r6], #-0
    8d0c:	00000005 	andeq	r0, r0, r5
    8d10:	00076d20 	andeq	r6, r7, r0, lsr #26
    8d14:	0e220600 	cfmadda32eq	mvax0, mvax0, mvfx2, mvfx0
    8d18:	00000949 	andeq	r0, r0, r9, asr #18
    8d1c:	092e0405 	stmdbeq	lr!, {r0, r2, sl}
    8d20:	c1210000 			; <UNDEFINED> instruction: 0xc1210000
    8d24:	01000008 	tsteq	r0, r8
    8d28:	9174062b 	cmnls	r4, fp, lsr #12
    8d2c:	00180000 	andseq	r0, r8, r0
    8d30:	9c010000 	stcls	0, cr0, [r1], {-0}
    8d34:	00000999 	muleq	r0, r9, r9
    8d38:	63657322 	cmnvs	r5, #-2013265920	; 0x88000000
    8d3c:	192b0100 	stmdbne	fp!, {r8}
    8d40:	0000002c 	andeq	r0, r0, ip, lsr #32
    8d44:	0000129d 	muleq	r0, sp, r2
    8d48:	00001299 	muleq	r0, r9, r2
    8d4c:	00918823 	addseq	r8, r1, r3, lsr #16
    8d50:	00099900 	andeq	r9, r9, r0, lsl #18
    8d54:	50012400 	andpl	r2, r1, r0, lsl #8
    8d58:	5001f311 	andpl	pc, r1, r1, lsl r3	; <UNPREDICTABLE>
    8d5c:	01f32435 	mvnseq	r2, r5, lsr r4
    8d60:	24321c50 	ldrtcs	r1, [r2], #-3152	; 0xfffff3b0
    8d64:	225001f3 	subscs	r0, r0, #-1073741764	; 0xc000003c
    8d68:	00002433 	andeq	r2, r0, r3, lsr r4
    8d6c:	0007f121 	andeq	pc, r7, r1, lsr #2
    8d70:	06280100 	strteq	r0, [r8], -r0, lsl #2
    8d74:	0000915c 	andeq	r9, r0, ip, asr r1
    8d78:	00000018 	andeq	r0, r0, r8, lsl r0
    8d7c:	09e29c01 	stmibeq	r2!, {r0, sl, fp, ip, pc}^
    8d80:	6d220000 	stcvs	0, cr0, [r2, #-0]
    8d84:	28010073 	stmdacs	r1, {r0, r1, r4, r5, r6}
    8d88:	00002c18 	andeq	r2, r0, r8, lsl ip
    8d8c:	0012c200 	andseq	ip, r2, r0, lsl #4
    8d90:	0012be00 	andseq	fp, r2, r0, lsl #28
    8d94:	91702300 	cmnls	r0, r0, lsl #6
    8d98:	09e20000 	stmibeq	r2!, {}^	; <UNPREDICTABLE>
    8d9c:	01240000 			; <UNDEFINED> instruction: 0x01240000
    8da0:	01f31150 	mvnseq	r1, r0, asr r1
    8da4:	f3243550 	vqrshl.u32	<illegal reg q1.5>, q0, q2
    8da8:	321c5001 	andscc	r5, ip, #1
    8dac:	5001f324 	andpl	pc, r1, r4, lsr #6
    8db0:	00243322 	eoreq	r3, r4, r2, lsr #6
    8db4:	09092100 	stmdbeq	r9, {r8, sp}
    8db8:	1f010000 	svcne	0x00010000
    8dbc:	00913806 	addseq	r3, r1, r6, lsl #16
    8dc0:	00002400 	andeq	r2, r0, r0, lsl #8
    8dc4:	529c0100 	addspl	r0, ip, #0, 2
    8dc8:	2200000a 	andcs	r0, r0, #10
    8dcc:	01007375 	tsteq	r0, r5, ror r3
    8dd0:	002c181f 	eoreq	r1, ip, pc, lsl r8
    8dd4:	12e70000 	rscne	r0, r7, #0
    8dd8:	12e30000 	rscne	r0, r3, #0
    8ddc:	72250000 	eorvc	r0, r5, #0
    8de0:	20010062 	andcs	r0, r1, r2, rrx
    8de4:	00002c0e 	andeq	r2, r0, lr, lsl #24
    8de8:	00130700 	andseq	r0, r3, r0, lsl #14
    8dec:	00130500 	andseq	r0, r3, r0, lsl #10
    8df0:	91482600 	cmpls	r8, r0, lsl #12
    8df4:	00140000 	andseq	r0, r4, r0
    8df8:	0a480000 	beq	1208e00 <__bss_end__+0x11fee00>
    8dfc:	72250000 	eorvc	r0, r5, #0
    8e00:	22010061 	andcs	r0, r1, #97	; 0x61
    8e04:	00002c12 	andeq	r2, r0, r2, lsl ip
    8e08:	00131c00 	andseq	r1, r3, r0, lsl #24
    8e0c:	00131a00 	andseq	r1, r3, r0, lsl #20
    8e10:	914c2700 	cmpls	ip, r0, lsl #14
    8e14:	0a520000 	beq	1488e1c <__bss_end__+0x147ee1c>
    8e18:	27000000 	strcs	r0, [r0, -r0]
    8e1c:	00009144 	andeq	r9, r0, r4, asr #2
    8e20:	00000a52 	andeq	r0, r0, r2, asr sl
    8e24:	08b22800 	ldmeq	r2!, {fp, sp}
    8e28:	16010000 	strne	r0, [r1], -r0
    8e2c:	00002c0a 	andeq	r2, r0, sl, lsl #24
    8e30:	00912c00 	addseq	r2, r1, r0, lsl #24
    8e34:	00000c00 	andeq	r0, r0, r0, lsl #24
    8e38:	889c0100 	ldmhi	ip, {r8}
    8e3c:	2500000a 	strcs	r0, [r0, #-10]
    8e40:	1a010075 	bne	4901c <__bss_end__+0x3f01c>
    8e44:	00002c0e 	andeq	r2, r0, lr, lsl #24
    8e48:	00133100 	andseq	r3, r3, r0, lsl #2
    8e4c:	00132f00 	andseq	r2, r3, r0, lsl #30
    8e50:	91342700 	teqls	r4, r0, lsl #14
    8e54:	0a880000 	beq	fe208e5c <__bss_end__+0xfe1fee5c>
    8e58:	28000000 	stmdacs	r0, {}	; <UNPREDICTABLE>
    8e5c:	000008f6 	strdeq	r0, [r0], -r6
    8e60:	2c0a1101 	stfcss	f1, [sl], {1}
    8e64:	18000000 	stmdane	r0, {}	; <UNPREDICTABLE>
    8e68:	14000091 	strne	r0, [r0], #-145	; 0xffffff6f
    8e6c:	01000000 	mrseq	r0, (UNDEF: 0)
    8e70:	000ab69c 	muleq	sl, ip, r6
    8e74:	91242300 			; <UNDEFINED> instruction: 0x91242300
    8e78:	0ae10000 	beq	ff848e80 <__bss_end__+0xff83ee80>
    8e7c:	01240000 			; <UNDEFINED> instruction: 0x01240000
    8e80:	040c0550 	streq	r0, [ip], #-1360	; 0xfffffab0
    8e84:	00200030 	eoreq	r0, r0, r0, lsr r0
    8e88:	08cb2100 	stmiaeq	fp, {r8, sp}^
    8e8c:	05010000 	streq	r0, [r1, #-0]
    8e90:	00910006 	addseq	r0, r1, r6
    8e94:	00001800 	andeq	r1, r0, r0, lsl #16
    8e98:	e19c0100 	orrs	r0, ip, r0, lsl #2
    8e9c:	2900000a 	stmdbcs	r0, {r1, r3}
    8ea0:	000008ea 	andeq	r0, r0, sl, ror #17
    8ea4:	2c1c0501 	cfldr32cs	mvfx0, [ip], {1}
    8ea8:	48000000 	stmdami	r0, {}	; <UNPREDICTABLE>
    8eac:	44000013 	strmi	r0, [r0], #-19	; 0xffffffed
    8eb0:	00000013 	andeq	r0, r0, r3, lsl r0
    8eb4:	0008f02a 	andeq	pc, r8, sl, lsr #32
    8eb8:	0008f000 	andeq	pc, r8, r0
    8ebc:	0aa70600 	beq	fe9ca6c4 <__bss_end__+0xfe9c06c4>
    8ec0:	000cc500 	andeq	ip, ip, r0, lsl #10
    8ec4:	ca000400 	bgt	9ecc <buf.4297+0x2cc>
    8ec8:	0400001c 	streq	r0, [r0], #-28	; 0xffffffe4
    8ecc:	000a2101 	andeq	r2, sl, r1, lsl #2
    8ed0:	09450c00 	stmdbeq	r5, {sl, fp}^
    8ed4:	09580000 	ldmdbeq	r8, {}^	; <UNPREDICTABLE>
    8ed8:	91d80000 	bicsls	r0, r8, r0
    8edc:	01780000 	cmneq	r8, r0
    8ee0:	18980000 	ldmne	r8, {}	; <UNPREDICTABLE>
    8ee4:	04020000 	streq	r0, [r2], #-0
    8ee8:	746e6905 	strbtvc	r6, [lr], #-2309	; 0xfffff6fb
    8eec:	07040300 	streq	r0, [r4, -r0, lsl #6]
    8ef0:	00000074 	andeq	r0, r0, r4, ror r0
    8ef4:	00002c04 	andeq	r2, r0, r4, lsl #24
    8ef8:	06010300 	streq	r0, [r1], -r0, lsl #6
    8efc:	000002f1 	strdeq	r0, [r0], -r1
    8f00:	8a050203 	bhi	149714 <__bss_end__+0x13f714>
    8f04:	03000003 	movweq	r0, #3
    8f08:	00ba0504 	adcseq	r0, sl, r4, lsl #10
    8f0c:	08030000 	stmdaeq	r3, {}	; <UNPREDICTABLE>
    8f10:	0000b505 	andeq	fp, r0, r5, lsl #10
    8f14:	08010300 	stmdaeq	r1, {r8, r9}
    8f18:	000002ef 	andeq	r0, r0, pc, ror #5
    8f1c:	30070203 	andcc	r0, r7, r3, lsl #4
    8f20:	03000002 	movweq	r0, #2
    8f24:	006f0704 	rsbeq	r0, pc, r4, lsl #14
    8f28:	08030000 	stmdaeq	r3, {}	; <UNPREDICTABLE>
    8f2c:	00006a07 	andeq	r6, r0, r7, lsl #20
    8f30:	09ec0500 	stmibeq	ip!, {r8, sl}^
    8f34:	07020000 	streq	r0, [r2, -r0]
    8f38:	00000025 	andeq	r0, r0, r5, lsr #32
    8f3c:	0002d005 	andeq	sp, r2, r5
    8f40:	462c0300 	strtmi	r0, [ip], -r0, lsl #6
    8f44:	05000000 	streq	r0, [r0, #-0]
    8f48:	00000445 	andeq	r0, r0, r5, asr #8
    8f4c:	00467203 	subeq	r7, r6, r3, lsl #4
    8f50:	7b060000 	blvc	188f58 <__bss_end__+0x17ef58>
    8f54:	04000002 	streq	r0, [r0], #-2
    8f58:	002c0165 	eoreq	r0, ip, r5, ror #2
    8f5c:	04070000 	streq	r0, [r7], #-0
    8f60:	00bca603 	adcseq	sl, ip, r3, lsl #12
    8f64:	6d080000 	stcvs	0, cr0, [r8, #-0]
    8f68:	03000002 	movweq	r0, #2
    8f6c:	000091a8 	andeq	r9, r0, r8, lsr #3
    8f70:	01f00800 	mvnseq	r0, r0, lsl #16
    8f74:	a9030000 	stmdbge	r3, {}	; <UNPREDICTABLE>
    8f78:	000000bc 	strheq	r0, [r0], -ip
    8f7c:	00540900 	subseq	r0, r4, r0, lsl #18
    8f80:	00cc0000 	sbceq	r0, ip, r0
    8f84:	cc0a0000 	stcgt	0, cr0, [sl], {-0}
    8f88:	03000000 	movweq	r0, #0
    8f8c:	07040300 	streq	r0, [r4, -r0, lsl #6]
    8f90:	000009cc 	andeq	r0, r0, ip, asr #19
    8f94:	a303080b 	movwge	r0, #14347	; 0x380b
    8f98:	000000f4 	strdeq	r0, [r0], -r4
    8f9c:	0004280c 	andeq	r2, r4, ip, lsl #16
    8fa0:	25a50300 	strcs	r0, [r5, #768]!	; 0x300
    8fa4:	00000000 	andeq	r0, r0, r0
    8fa8:	0004370c 	andeq	r3, r4, ip, lsl #14
    8fac:	9daa0300 	stcls	3, cr0, [sl]
    8fb0:	04000000 	streq	r0, [r0], #-0
    8fb4:	03b20500 			; <UNDEFINED> instruction: 0x03b20500
    8fb8:	ab030000 	blge	c8fc0 <__bss_end__+0xbefc0>
    8fbc:	000000d3 	ldrdeq	r0, [r0], -r3
    8fc0:	0001ad05 	andeq	sl, r1, r5, lsl #26
    8fc4:	70af0300 	adcvc	r0, pc, r0, lsl #6
    8fc8:	0d000000 	stceq	0, cr0, [r0, #-0]
    8fcc:	12040e04 	andne	r0, r4, #4, 28	; 0x40
    8fd0:	03000001 	movweq	r0, #1
    8fd4:	02f80801 	rscseq	r0, r8, #65536	; 0x10000
    8fd8:	120f0000 	andne	r0, pc, #0
    8fdc:	05000001 	streq	r0, [r0, #-1]
    8fe0:	00000477 	andeq	r0, r0, r7, ror r4
    8fe4:	00621605 	rsbeq	r1, r2, r5, lsl #12
    8fe8:	be100000 	cdplt	0, 1, cr0, cr0, cr0, {0}
    8fec:	18000001 	stmdane	r0, {r0}
    8ff0:	017c2d05 	cmneq	ip, r5, lsl #26
    8ff4:	d30c0000 	movwle	r0, #49152	; 0xc000
    8ff8:	05000003 	streq	r0, [r0, #-3]
    8ffc:	00017c2f 	andeq	r7, r1, pc, lsr #24
    9000:	5f110000 	svcpl	0x00110000
    9004:	3005006b 	andcc	r0, r5, fp, rrx
    9008:	00000025 	andeq	r0, r0, r5, lsr #32
    900c:	04130c04 	ldreq	r0, [r3], #-3076	; 0xfffff3fc
    9010:	30050000 	andcc	r0, r5, r0
    9014:	00000025 	andeq	r0, r0, r5, lsr #32
    9018:	01a70c08 			; <UNDEFINED> instruction: 0x01a70c08
    901c:	30050000 	andcc	r0, r5, r0
    9020:	00000025 	andeq	r0, r0, r5, lsr #32
    9024:	04b30c0c 	ldrteq	r0, [r3], #3084	; 0xc0c
    9028:	30050000 	andcc	r0, r5, r0
    902c:	00000025 	andeq	r0, r0, r5, lsr #32
    9030:	785f1110 	ldmdavc	pc, {r4, r8, ip}^	; <UNPREDICTABLE>
    9034:	82310500 	eorshi	r0, r1, #0, 10
    9038:	14000001 	strne	r0, [r0], #-1
    903c:	29040e00 	stmdbcs	r4, {r9, sl, fp}
    9040:	09000001 	stmdbeq	r0, {r0}
    9044:	0000011e 	andeq	r0, r0, lr, lsl r1
    9048:	00000192 	muleq	r0, r2, r1
    904c:	0000cc0a 	andeq	ip, r0, sl, lsl #24
    9050:	10000000 	andne	r0, r0, r0
    9054:	000001eb 	andeq	r0, r0, fp, ror #3
    9058:	0b350524 	bleq	d4a4f0 <__bss_end__+0xd404f0>
    905c:	0c000002 	stceq	0, cr0, [r0], {2}
    9060:	000000ac 	andeq	r0, r0, ip, lsr #1
    9064:	00253705 	eoreq	r3, r5, r5, lsl #14
    9068:	0c000000 	stceq	0, cr0, [r0], {-0}
    906c:	0000044d 	andeq	r0, r0, sp, asr #8
    9070:	00253805 	eoreq	r3, r5, r5, lsl #16
    9074:	0c040000 	stceq	0, cr0, [r4], {-0}
    9078:	000000cf 	andeq	r0, r0, pc, asr #1
    907c:	00253905 	eoreq	r3, r5, r5, lsl #18
    9080:	0c080000 	stceq	0, cr0, [r8], {-0}
    9084:	00000534 	andeq	r0, r0, r4, lsr r5
    9088:	00253a05 	eoreq	r3, r5, r5, lsl #20
    908c:	0c0c0000 	stceq	0, cr0, [ip], {-0}
    9090:	000002b4 			; <UNDEFINED> instruction: 0x000002b4
    9094:	00253b05 	eoreq	r3, r5, r5, lsl #22
    9098:	0c100000 	ldceq	0, cr0, [r0], {-0}
    909c:	00000296 	muleq	r0, r6, r2
    90a0:	00253c05 	eoreq	r3, r5, r5, lsl #24
    90a4:	0c140000 	ldceq	0, cr0, [r4], {-0}
    90a8:	000004b8 			; <UNDEFINED> instruction: 0x000004b8
    90ac:	00253d05 	eoreq	r3, r5, r5, lsl #26
    90b0:	0c180000 	ldceq	0, cr0, [r8], {-0}
    90b4:	00000394 	muleq	r0, r4, r3
    90b8:	00253e05 	eoreq	r3, r5, r5, lsl #28
    90bc:	0c1c0000 	ldceq	0, cr0, [ip], {-0}
    90c0:	000004fb 	strdeq	r0, [r0], -fp
    90c4:	00253f05 	eoreq	r3, r5, r5, lsl #30
    90c8:	00200000 	eoreq	r0, r0, r0
    90cc:	00010f12 	andeq	r0, r1, r2, lsl pc
    90d0:	05010800 	streq	r0, [r1, #-2048]	; 0xfffff800
    90d4:	00024b48 	andeq	r4, r2, r8, asr #22
    90d8:	019a0c00 	orrseq	r0, sl, r0, lsl #24
    90dc:	49050000 	stmdbmi	r5, {}	; <UNPREDICTABLE>
    90e0:	0000024b 	andeq	r0, r0, fp, asr #4
    90e4:	00000c00 	andeq	r0, r0, r0, lsl #24
    90e8:	4a050000 	bmi	1490f0 <__bss_end__+0x13f0f0>
    90ec:	0000024b 	andeq	r0, r0, fp, asr #4
    90f0:	04691380 	strbteq	r1, [r9], #-896	; 0xfffffc80
    90f4:	4c050000 	stcmi	0, cr0, [r5], {-0}
    90f8:	0000011e 	andeq	r0, r0, lr, lsl r1
    90fc:	34130100 	ldrcc	r0, [r3], #-256	; 0xffffff00
    9100:	05000001 	streq	r0, [r0, #-1]
    9104:	00011e4f 	andeq	r1, r1, pc, asr #28
    9108:	00010400 	andeq	r0, r1, r0, lsl #8
    910c:	00010a09 	andeq	r0, r1, r9, lsl #20
    9110:	00025b00 	andeq	r5, r2, r0, lsl #22
    9114:	00cc0a00 	sbceq	r0, ip, r0, lsl #20
    9118:	001f0000 	andseq	r0, pc, r0
    911c:	0002bd12 	andeq	fp, r2, r2, lsl sp
    9120:	05019000 	streq	r9, [r1, #-0]
    9124:	0002995b 	andeq	r9, r2, fp, asr r9
    9128:	03d30c00 	bicseq	r0, r3, #0, 24
    912c:	5c050000 	stcpl	0, cr0, [r5], {-0}
    9130:	00000299 	muleq	r0, r9, r2
    9134:	03eb0c00 	mvneq	r0, #0, 24
    9138:	5d050000 	stcpl	0, cr0, [r5, #-0]
    913c:	00000025 	andeq	r0, r0, r5, lsr #32
    9140:	01a20c04 			; <UNDEFINED> instruction: 0x01a20c04
    9144:	5f050000 	svcpl	0x00050000
    9148:	0000029f 	muleq	r0, pc, r2	; <UNPREDICTABLE>
    914c:	010f0c08 	tsteq	pc, r8, lsl #24
    9150:	60050000 	andvs	r0, r5, r0
    9154:	0000020b 	andeq	r0, r0, fp, lsl #4
    9158:	040e0088 	streq	r0, [lr], #-136	; 0xffffff78
    915c:	0000025b 	andeq	r0, r0, fp, asr r2
    9160:	0002af09 	andeq	sl, r2, r9, lsl #30
    9164:	0002af00 	andeq	sl, r2, r0, lsl #30
    9168:	00cc0a00 	sbceq	r0, ip, r0, lsl #20
    916c:	001f0000 	andseq	r0, pc, r0
    9170:	02b5040e 	adcseq	r0, r5, #234881024	; 0xe000000
    9174:	10140000 	andsne	r0, r4, r0
    9178:	0000039e 	muleq	r0, lr, r3
    917c:	db730508 	blle	1cca5a4 <__bss_end__+0x1cc05a4>
    9180:	0c000002 	stceq	0, cr0, [r0], {2}
    9184:	000000c9 	andeq	r0, r0, r9, asr #1
    9188:	02db7405 	sbcseq	r7, fp, #83886080	; 0x5000000
    918c:	0c000000 	stceq	0, cr0, [r0], {-0}
    9190:	0000001b 	andeq	r0, r0, fp, lsl r0
    9194:	00257505 	eoreq	r7, r5, r5, lsl #10
    9198:	00040000 	andeq	r0, r4, r0
    919c:	0054040e 	subseq	r0, r4, lr, lsl #8
    91a0:	bd100000 	ldclt	0, cr0, [r0, #-0]
    91a4:	68000003 	stmdavs	r0, {r0, r1}
    91a8:	040bb305 	streq	fp, [fp], #-773	; 0xfffffcfb
    91ac:	5f110000 	svcpl	0x00110000
    91b0:	b4050070 	strlt	r0, [r5], #-112	; 0xffffff90
    91b4:	000002db 	ldrdeq	r0, [r0], -fp
    91b8:	725f1100 	subsvc	r1, pc, #0, 2
    91bc:	25b50500 	ldrcs	r0, [r5, #1280]!	; 0x500
    91c0:	04000000 	streq	r0, [r0], #-0
    91c4:	00775f11 	rsbseq	r5, r7, r1, lsl pc
    91c8:	0025b605 	eoreq	fp, r5, r5, lsl #12
    91cc:	0c080000 	stceq	0, cr0, [r8], {-0}
    91d0:	0000012d 	andeq	r0, r0, sp, lsr #2
    91d4:	003fb705 	eorseq	fp, pc, r5, lsl #14
    91d8:	0c0c0000 	stceq	0, cr0, [ip], {-0}
    91dc:	00000216 	andeq	r0, r0, r6, lsl r2
    91e0:	003fb805 	eorseq	fp, pc, r5, lsl #16
    91e4:	110e0000 	mrsne	r0, (UNDEF: 14)
    91e8:	0066625f 	rsbeq	r6, r6, pc, asr r2
    91ec:	02b6b905 	adcseq	fp, r6, #81920	; 0x14000
    91f0:	0c100000 	ldceq	0, cr0, [r0], {-0}
    91f4:	00000089 	andeq	r0, r0, r9, lsl #1
    91f8:	0025ba05 	eoreq	fp, r5, r5, lsl #20
    91fc:	0c180000 	ldceq	0, cr0, [r8], {-0}
    9200:	0000011d 	andeq	r0, r0, sp, lsl r1
    9204:	010ac105 	tsteq	sl, r5, lsl #2
    9208:	0c1c0000 	ldceq	0, cr0, [ip], {-0}
    920c:	00000b29 	andeq	r0, r0, r9, lsr #22
    9210:	0566c305 	strbeq	ip, [r6, #-773]!	; 0xfffffcfb
    9214:	0c200000 	stceq	0, cr0, [r0], #-0
    9218:	0000061e 	andeq	r0, r0, lr, lsl r6
    921c:	0590c505 	ldreq	ip, [r0, #1285]	; 0x505
    9220:	0c240000 	stceq	0, cr0, [r4], #-0
    9224:	0000043f 	andeq	r0, r0, pc, lsr r4
    9228:	05b4c805 	ldreq	ip, [r4, #2053]!	; 0x805
    922c:	0c280000 	stceq	0, cr0, [r8], #-0
    9230:	00000515 	andeq	r0, r0, r5, lsl r5
    9234:	05cec905 	strbeq	ip, [lr, #2309]	; 0x905
    9238:	112c0000 			; <UNDEFINED> instruction: 0x112c0000
    923c:	0062755f 	rsbeq	r7, r2, pc, asr r5
    9240:	02b6cc05 	adcseq	ip, r6, #1280	; 0x500
    9244:	11300000 	teqne	r0, r0
    9248:	0070755f 	rsbseq	r7, r0, pc, asr r5
    924c:	02dbcd05 	sbcseq	ip, fp, #320	; 0x140
    9250:	11380000 	teqne	r8, r0
    9254:	0072755f 	rsbseq	r7, r2, pc, asr r5
    9258:	0025ce05 	eoreq	ip, r5, r5, lsl #28
    925c:	0c3c0000 	ldceq	0, cr0, [ip], #-0
    9260:	000000c3 	andeq	r0, r0, r3, asr #1
    9264:	05d4d105 	ldrbeq	sp, [r4, #261]	; 0x105
    9268:	0c400000 	mareq	acc0, r0, r0
    926c:	000004ed 	andeq	r0, r0, sp, ror #9
    9270:	05e4d205 	strbeq	sp, [r4, #517]!	; 0x205
    9274:	11430000 	mrsne	r0, (UNDEF: 67)
    9278:	00626c5f 	rsbeq	r6, r2, pc, asr ip
    927c:	02b6d505 	adcseq	sp, r6, #20971520	; 0x1400000
    9280:	0c440000 	mareq	acc0, r0, r4
    9284:	0000014b 	andeq	r0, r0, fp, asr #2
    9288:	0025d805 	eoreq	sp, r5, r5, lsl #16
    928c:	0c4c0000 	mareq	acc0, r0, ip
    9290:	0000015c 	andeq	r0, r0, ip, asr r1
    9294:	007bd905 	rsbseq	sp, fp, r5, lsl #18
    9298:	0c500000 	mraeq	r0, r0, acc0
    929c:	00000aca 	andeq	r0, r0, sl, asr #21
    92a0:	0429dc05 	strteq	sp, [r9], #-3077	; 0xfffff3fb
    92a4:	0c540000 	mraeq	r0, r4, acc0
    92a8:	00000431 	andeq	r0, r0, r1, lsr r4
    92ac:	00ffe005 	rscseq	lr, pc, r5
    92b0:	0c580000 	mraeq	r0, r8, acc0
    92b4:	000003c5 	andeq	r0, r0, r5, asr #7
    92b8:	00f4e205 	rscseq	lr, r4, r5, lsl #4
    92bc:	0c5c0000 	mraeq	r0, ip, acc0
    92c0:	0000028e 	andeq	r0, r0, lr, lsl #5
    92c4:	0025e305 	eoreq	lr, r5, r5, lsl #6
    92c8:	00640000 	rsbeq	r0, r4, r0
    92cc:	00002515 	andeq	r2, r0, r5, lsl r5
    92d0:	00042900 	andeq	r2, r4, r0, lsl #18
    92d4:	04291600 	strteq	r1, [r9], #-1536	; 0xfffffa00
    92d8:	0a160000 	beq	5892e0 <__bss_end__+0x57f2e0>
    92dc:	16000001 	strne	r0, [r0], -r1
    92e0:	0000010c 	andeq	r0, r0, ip, lsl #2
    92e4:	00002516 	andeq	r2, r0, r6, lsl r5
    92e8:	040e0000 	streq	r0, [lr], #-0
    92ec:	00000434 	andeq	r0, r0, r4, lsr r4
    92f0:	0004290f 	andeq	r2, r4, pc, lsl #18
    92f4:	041b1700 	ldreq	r1, [fp], #-1792	; 0xfffff900
    92f8:	04280000 	strteq	r0, [r8], #-0
    92fc:	66023805 	strvs	r3, [r2], -r5, lsl #16
    9300:	18000005 	stmdane	r0, {r0, r2}
    9304:	00000383 	andeq	r0, r0, r3, lsl #7
    9308:	25023a05 	strcs	r3, [r2, #-2565]	; 0xfffff5fb
    930c:	00000000 	andeq	r0, r0, r0
    9310:	00013c18 	andeq	r3, r1, r8, lsl ip
    9314:	023f0500 	eorseq	r0, pc, #0, 10
    9318:	0000063b 	andeq	r0, r0, fp, lsr r6
    931c:	02061804 	andeq	r1, r6, #4, 16	; 0x40000
    9320:	3f050000 	svccc	0x00050000
    9324:	00063b02 	andeq	r3, r6, r2, lsl #22
    9328:	b6180800 	ldrlt	r0, [r8], -r0, lsl #16
    932c:	05000001 	streq	r0, [r0, #-1]
    9330:	063b023f 			; <UNDEFINED> instruction: 0x063b023f
    9334:	180c0000 	stmdane	ip, {}	; <UNPREDICTABLE>
    9338:	000003e6 	andeq	r0, r0, r6, ror #7
    933c:	25024105 	strcs	r4, [r2, #-261]	; 0xfffffefb
    9340:	10000000 	andne	r0, r0, r0
    9344:	00003718 	andeq	r3, r0, r8, lsl r7
    9348:	02420500 	subeq	r0, r2, #0, 10
    934c:	0000081d 	andeq	r0, r0, sp, lsl r8
    9350:	0a831814 	beq	fe0cf3a8 <__bss_end__+0xfe0c53a8>
    9354:	44050000 	strmi	r0, [r5], #-0
    9358:	00002502 	andeq	r2, r0, r2, lsl #10
    935c:	fe183000 	cdp2	0, 1, cr3, cr8, cr0, {0}
    9360:	05000009 	streq	r0, [r0, #-9]
    9364:	058a0245 	streq	r0, [sl, #581]	; 0x245
    9368:	18340000 	ldmdane	r4!, {}	; <UNPREDICTABLE>
    936c:	000002c5 	andeq	r0, r0, r5, asr #5
    9370:	25024705 	strcs	r4, [r2, #-1797]	; 0xfffff8fb
    9374:	38000000 	stmdacc	r0, {}	; <UNPREDICTABLE>
    9378:	0003f018 	andeq	pc, r3, r8, lsl r0	; <UNPREDICTABLE>
    937c:	02490500 	subeq	r0, r9, #0, 10
    9380:	00000838 	andeq	r0, r0, r8, lsr r8
    9384:	0265183c 	rsbeq	r1, r5, #60, 16	; 0x3c0000
    9388:	4c050000 	stcmi	0, cr0, [r5], {-0}
    938c:	00017c02 	andeq	r7, r1, r2, lsl #24
    9390:	d5184000 	ldrle	r4, [r8, #-0]
    9394:	05000001 	streq	r0, [r0, #-1]
    9398:	0025024d 	eoreq	r0, r5, sp, asr #4
    939c:	18440000 	stmdane	r4, {}^	; <UNPREDICTABLE>
    93a0:	0000052f 	andeq	r0, r0, pc, lsr #10
    93a4:	7c024e05 	stcvc	14, cr4, [r2], {5}
    93a8:	48000001 	stmdami	r0, {r0}
    93ac:	0002d718 	andeq	sp, r2, r8, lsl r7
    93b0:	024f0500 	subeq	r0, pc, #0, 10
    93b4:	0000083e 	andeq	r0, r0, lr, lsr r8
    93b8:	020e184c 	andeq	r1, lr, #76, 16	; 0x4c0000
    93bc:	52050000 	andpl	r0, r5, #0
    93c0:	00002502 	andeq	r2, r0, r2, lsl #10
    93c4:	54185000 	ldrpl	r5, [r8], #-0
    93c8:	05000001 	streq	r0, [r0, #-1]
    93cc:	010c0253 	tsteq	ip, r3, asr r2
    93d0:	18540000 	ldmdane	r4, {}^	; <UNPREDICTABLE>
    93d4:	000002fd 	strdeq	r0, [r0], -sp
    93d8:	fb027605 	blx	a6bf6 <__bss_end__+0x9cbf6>
    93dc:	58000007 	stmdapl	r0, {r0, r1, r2}
    93e0:	0002bd19 	andeq	fp, r2, r9, lsl sp
    93e4:	027a0500 	rsbseq	r0, sl, #0, 10
    93e8:	00000299 	muleq	r0, r9, r2
    93ec:	43190148 	tstmi	r9, #72, 2
    93f0:	05000002 	streq	r0, [r0, #-2]
    93f4:	025b027b 	subseq	r0, fp, #-1342177273	; 0xb0000007
    93f8:	014c0000 	mrseq	r0, (UNDEF: 76)
    93fc:	0004db19 	andeq	sp, r4, r9, lsl fp
    9400:	027f0500 	rsbseq	r0, pc, #0, 10
    9404:	0000084f 	andeq	r0, r0, pc, asr #16
    9408:	251902dc 	ldrcs	r0, [r9, #-732]	; 0xfffffd24
    940c:	05000001 	streq	r0, [r0, #-1]
    9410:	06000284 	streq	r0, [r0], -r4, lsl #5
    9414:	02e00000 	rsceq	r0, r0, #0
    9418:	00010a19 	andeq	r0, r1, r9, lsl sl
    941c:	02850500 	addeq	r0, r5, #0, 10
    9420:	0000085b 	andeq	r0, r0, fp, asr r8
    9424:	0e0002ec 	cdpeq	2, 0, cr0, cr0, cr12, {7}
    9428:	00040b04 	andeq	r0, r4, r4, lsl #22
    942c:	00251500 	eoreq	r1, r5, r0, lsl #10
    9430:	058a0000 	streq	r0, [sl]
    9434:	29160000 	ldmdbcs	r6, {}	; <UNPREDICTABLE>
    9438:	16000004 	strne	r0, [r0], -r4
    943c:	0000010a 	andeq	r0, r0, sl, lsl #2
    9440:	00058a16 	andeq	r8, r5, r6, lsl sl
    9444:	00251600 	eoreq	r1, r5, r0, lsl #12
    9448:	0e000000 	cdpeq	0, 0, cr0, cr0, cr0, {0}
    944c:	00011904 	andeq	r1, r1, r4, lsl #18
    9450:	6c040e00 	stcvs	14, cr0, [r4], {-0}
    9454:	15000005 	strne	r0, [r0, #-5]
    9458:	00000086 	andeq	r0, r0, r6, lsl #1
    945c:	000005b4 			; <UNDEFINED> instruction: 0x000005b4
    9460:	00042916 	andeq	r2, r4, r6, lsl r9
    9464:	010a1600 	tsteq	sl, r0, lsl #12
    9468:	86160000 	ldrhi	r0, [r6], -r0
    946c:	16000000 	strne	r0, [r0], -r0
    9470:	00000025 	andeq	r0, r0, r5, lsr #32
    9474:	96040e00 	strls	r0, [r4], -r0, lsl #28
    9478:	15000005 	strne	r0, [r0, #-5]
    947c:	00000025 	andeq	r0, r0, r5, lsr #32
    9480:	000005ce 	andeq	r0, r0, lr, asr #11
    9484:	00042916 	andeq	r2, r4, r6, lsl r9
    9488:	010a1600 	tsteq	sl, r0, lsl #12
    948c:	0e000000 	cdpeq	0, 0, cr0, cr0, cr0, {0}
    9490:	0005ba04 	andeq	fp, r5, r4, lsl #20
    9494:	00540900 	subseq	r0, r4, r0, lsl #18
    9498:	05e40000 	strbeq	r0, [r4, #0]!
    949c:	cc0a0000 	stcgt	0, cr0, [sl], {-0}
    94a0:	02000000 	andeq	r0, r0, #0
    94a4:	00540900 	subseq	r0, r4, r0, lsl #18
    94a8:	05f40000 	ldrbeq	r0, [r4, #0]!
    94ac:	cc0a0000 	stcgt	0, cr0, [sl], {-0}
    94b0:	00000000 	andeq	r0, r0, r0
    94b4:	03ab0600 			; <UNDEFINED> instruction: 0x03ab0600
    94b8:	1d050000 	stcne	0, cr0, [r5, #-0]
    94bc:	0002e101 	andeq	lr, r2, r1, lsl #2
    94c0:	04c21a00 	strbeq	r1, [r2], #2560	; 0xa00
    94c4:	050c0000 	streq	r0, [ip, #-0]
    94c8:	06350121 	ldrteq	r0, [r5], -r1, lsr #2
    94cc:	d3180000 	tstle	r8, #0
    94d0:	05000003 	streq	r0, [r0, #-3]
    94d4:	06350123 	ldrteq	r0, [r5], -r3, lsr #2
    94d8:	18000000 	stmdane	r0, {}	; <UNPREDICTABLE>
    94dc:	00000229 	andeq	r0, r0, r9, lsr #4
    94e0:	25012405 	strcs	r2, [r1, #-1029]	; 0xfffffbfb
    94e4:	04000000 	streq	r0, [r0], #-0
    94e8:	0003a518 	andeq	sl, r3, r8, lsl r5
    94ec:	01250500 			; <UNDEFINED> instruction: 0x01250500
    94f0:	0000063b 	andeq	r0, r0, fp, lsr r6
    94f4:	040e0008 	streq	r0, [lr], #-8
    94f8:	00000600 	andeq	r0, r0, r0, lsl #12
    94fc:	05f4040e 	ldrbeq	r0, [r4, #1038]!	; 0x40e
    9500:	2f1a0000 	svccs	0x001a0000
    9504:	0e000000 	cdpeq	0, 0, cr0, cr0, cr0, {0}
    9508:	76013d05 	strvc	r3, [r1], -r5, lsl #26
    950c:	18000006 	stmdane	r0, {r1, r2}
    9510:	00000422 	andeq	r0, r0, r2, lsr #8
    9514:	76013e05 	strvc	r3, [r1], -r5, lsl #28
    9518:	00000006 	andeq	r0, r0, r6
    951c:	00045618 	andeq	r5, r4, r8, lsl r6
    9520:	013f0500 	teqeq	pc, r0, lsl #10
    9524:	00000676 	andeq	r0, r0, r6, ror r6
    9528:	04721806 	ldrbteq	r1, [r2], #-2054	; 0xfffff7fa
    952c:	40050000 	andmi	r0, r5, r0
    9530:	00005b01 	andeq	r5, r0, r1, lsl #22
    9534:	09000c00 	stmdbeq	r0, {sl, fp}
    9538:	0000005b 	andeq	r0, r0, fp, asr r0
    953c:	00000686 	andeq	r0, r0, r6, lsl #13
    9540:	0000cc0a 	andeq	ip, r0, sl, lsl #24
    9544:	1b000200 	blne	9d4c <buf.4297+0x14c>
    9548:	025705d0 	subseq	r0, r7, #208, 10	; 0x34000000
    954c:	00000787 	andeq	r0, r0, r7, lsl #15
    9550:	0004a618 	andeq	sl, r4, r8, lsl r6
    9554:	02590500 	subseq	r0, r9, #0, 10
    9558:	0000002c 	andeq	r0, r0, ip, lsr #32
    955c:	045c1800 	ldrbeq	r1, [ip], #-2048	; 0xfffff800
    9560:	5a050000 	bpl	149568 <__bss_end__+0x13f568>
    9564:	00010c02 	andeq	r0, r1, r2, lsl #24
    9568:	58180400 	ldmdapl	r8, {sl}
    956c:	05000002 	streq	r0, [r0, #-2]
    9570:	0787025b 			; <UNDEFINED> instruction: 0x0787025b
    9574:	18080000 	stmdane	r8, {}	; <UNPREDICTABLE>
    9578:	00000506 	andeq	r0, r0, r6, lsl #10
    957c:	92025c05 	andls	r5, r2, #1280	; 0x500
    9580:	24000001 	strcs	r0, [r0], #-1
    9584:	0001c618 	andeq	ip, r1, r8, lsl r6
    9588:	025d0500 	subseq	r0, sp, #0, 10
    958c:	00000025 	andeq	r0, r0, r5, lsr #32
    9590:	03ce1848 	biceq	r1, lr, #72, 16	; 0x480000
    9594:	5e050000 	cdppl	0, 0, cr0, cr5, cr0, {0}
    9598:	00006902 	andeq	r6, r0, r2, lsl #18
    959c:	1c185000 	ldcne	0, cr5, [r8], {-0}
    95a0:	05000005 	streq	r0, [r0, #-5]
    95a4:	0641025f 			; <UNDEFINED> instruction: 0x0641025f
    95a8:	18580000 	ldmdane	r8, {}^	; <UNPREDICTABLE>
    95ac:	000003d9 	ldrdeq	r0, [r0], -r9
    95b0:	f4026005 	vst4.8	{d6-d9}, [r2], r5
    95b4:	68000000 	stmdavs	r0, {}	; <UNPREDICTABLE>
    95b8:	00052118 	andeq	r2, r5, r8, lsl r1
    95bc:	02610500 	rsbeq	r0, r1, #0, 10
    95c0:	000000f4 	strdeq	r0, [r0], -r4
    95c4:	02e11870 	rsceq	r1, r1, #112, 16	; 0x700000
    95c8:	62050000 	andvs	r0, r5, #0
    95cc:	0000f402 	andeq	pc, r0, r2, lsl #8
    95d0:	d1187800 	tstle	r8, r0, lsl #16
    95d4:	05000004 	streq	r0, [r0, #-4]
    95d8:	07970263 	ldreq	r0, [r7, r3, ror #4]
    95dc:	18800000 	stmne	r0, {}	; <UNPREDICTABLE>
    95e0:	0000024c 	andeq	r0, r0, ip, asr #4
    95e4:	a7026405 	strge	r6, [r2, -r5, lsl #8]
    95e8:	88000007 	stmdahi	r0, {r0, r1, r2}
    95ec:	00047f18 	andeq	r7, r4, r8, lsl pc
    95f0:	02650500 	rsbeq	r0, r5, #0, 10
    95f4:	00000025 	andeq	r0, r0, r5, lsr #32
    95f8:	018c18a0 	orreq	r1, ip, r0, lsr #17
    95fc:	66050000 	strvs	r0, [r5], -r0
    9600:	0000f402 	andeq	pc, r0, r2, lsl #8
    9604:	9d18a400 	cfldrsls	mvf10, [r8, #-0]
    9608:	05000000 	streq	r0, [r0, #-0]
    960c:	00f40267 	rscseq	r0, r4, r7, ror #4
    9610:	18ac0000 	stmiane	ip!, {}	; <UNPREDICTABLE>
    9614:	0000017b 	andeq	r0, r0, fp, ror r1
    9618:	f4026805 	vst2.8	{d6-d7}, [r2], r5
    961c:	b4000000 	strlt	r0, [r0], #-0
    9620:	00004a18 	andeq	r4, r0, r8, lsl sl
    9624:	02690500 	rsbeq	r0, r9, #0, 10
    9628:	000000f4 	strdeq	r0, [r0], -r4
    962c:	005918bc 	ldrheq	r1, [r9], #-140	; 0xffffff74
    9630:	6a050000 	bvs	149638 <__bss_end__+0x13f638>
    9634:	0000f402 	andeq	pc, r0, r2, lsl #8
    9638:	8118c400 	tsthi	r8, r0, lsl #8
    963c:	05000003 	streq	r0, [r0, #-3]
    9640:	0025026b 	eoreq	r0, r5, fp, ror #4
    9644:	00cc0000 	sbceq	r0, ip, r0
    9648:	00011209 	andeq	r1, r1, r9, lsl #4
    964c:	00079700 	andeq	r9, r7, r0, lsl #14
    9650:	00cc0a00 	sbceq	r0, ip, r0, lsl #20
    9654:	00190000 	andseq	r0, r9, r0
    9658:	00011209 	andeq	r1, r1, r9, lsl #4
    965c:	0007a700 	andeq	sl, r7, r0, lsl #14
    9660:	00cc0a00 	sbceq	r0, ip, r0, lsl #20
    9664:	00070000 	andeq	r0, r7, r0
    9668:	00011209 	andeq	r1, r1, r9, lsl #4
    966c:	0007b700 	andeq	fp, r7, r0, lsl #14
    9670:	00cc0a00 	sbceq	r0, ip, r0, lsl #20
    9674:	00170000 	andseq	r0, r7, r0
    9678:	7005f01b 	andvc	pc, r5, fp, lsl r0	; <UNPREDICTABLE>
    967c:	0007db02 	andeq	sp, r7, r2, lsl #22
    9680:	02ad1800 	adceq	r1, sp, #0, 16
    9684:	73050000 	movwvc	r0, #20480	; 0x5000
    9688:	0007db02 	andeq	sp, r7, r2, lsl #22
    968c:	c8180000 	ldmdagt	r8, {}	; <UNPREDICTABLE>
    9690:	05000004 	streq	r0, [r0, #-4]
    9694:	07eb0274 			; <UNDEFINED> instruction: 0x07eb0274
    9698:	00780000 	rsbseq	r0, r8, r0
    969c:	0002db09 	andeq	sp, r2, r9, lsl #22
    96a0:	0007eb00 	andeq	lr, r7, r0, lsl #22
    96a4:	00cc0a00 	sbceq	r0, ip, r0, lsl #20
    96a8:	001d0000 	andseq	r0, sp, r0
    96ac:	00002c09 	andeq	r2, r0, r9, lsl #24
    96b0:	0007fb00 	andeq	pc, r7, r0, lsl #22
    96b4:	00cc0a00 	sbceq	r0, ip, r0, lsl #20
    96b8:	001d0000 	andseq	r0, sp, r0
    96bc:	5505f01c 	strpl	pc, [r5, #-28]	; 0xffffffe4
    96c0:	00081d02 	andeq	r1, r8, r2, lsl #26
    96c4:	041b1d00 	ldreq	r1, [fp], #-3328	; 0xfffff300
    96c8:	6c050000 	stcvs	0, cr0, [r5], {-0}
    96cc:	00068602 	andeq	r8, r6, r2, lsl #12
    96d0:	04f31d00 	ldrbteq	r1, [r3], #3328	; 0xd00
    96d4:	75050000 	strvc	r0, [r5, #-0]
    96d8:	0007b702 	andeq	fp, r7, r2, lsl #14
    96dc:	12090000 	andne	r0, r9, #0
    96e0:	2d000001 	stccs	0, cr0, [r0, #-4]
    96e4:	0a000008 	beq	970c <__FUNCTION__.4337+0x54>
    96e8:	000000cc 	andeq	r0, r0, ip, asr #1
    96ec:	381e0018 	ldmdacc	lr, {r3, r4}
    96f0:	16000008 	strne	r0, [r0], -r8
    96f4:	00000429 	andeq	r0, r0, r9, lsr #8
    96f8:	2d040e00 	stccs	14, cr0, [r4, #-0]
    96fc:	0e000008 	cdpeq	0, 0, cr0, cr0, cr8, {0}
    9700:	00017c04 	andeq	r7, r1, r4, lsl #24
    9704:	084f1e00 	stmdaeq	pc, {r9, sl, fp, ip}^	; <UNPREDICTABLE>
    9708:	25160000 	ldrcs	r0, [r6, #-0]
    970c:	00000000 	andeq	r0, r0, r0
    9710:	0855040e 	ldmdaeq	r5, {r1, r2, r3, sl}^
    9714:	040e0000 	streq	r0, [lr], #-0
    9718:	00000844 	andeq	r0, r0, r4, asr #16
    971c:	0005f409 	andeq	pc, r5, r9, lsl #8
    9720:	00086b00 	andeq	r6, r8, r0, lsl #22
    9724:	00cc0a00 	sbceq	r0, ip, r0, lsl #20
    9728:	00020000 	andeq	r0, r2, r0
    972c:	0004931f 	andeq	r9, r4, pc, lsl r3
    9730:	02fd0500 	rscseq	r0, sp, #0, 10
    9734:	00000429 	andeq	r0, r0, r9, lsr #8
    9738:	00048c1f 	andeq	r8, r4, pc, lsl ip
    973c:	02fe0500 	rscseq	r0, lr, #0, 10
    9740:	0000042f 	andeq	r0, r0, pc, lsr #8
    9744:	00002515 	andeq	r2, r0, r5, lsl r5
    9748:	00089200 	andeq	r9, r8, r0, lsl #4
    974c:	00251600 	eoreq	r1, r5, r0, lsl #12
    9750:	20000000 	andcs	r0, r0, r0
    9754:	000001df 	ldrdeq	r0, [r0], -pc	; <UNPREDICTABLE>
    9758:	089d1d06 	ldmeq	sp, {r1, r2, r8, sl, fp, ip}
    975c:	040e0000 	streq	r0, [lr], #-0
    9760:	00000883 	andeq	r0, r0, r3, lsl #17
    9764:	00002515 	andeq	r2, r0, r5, lsl r5
    9768:	0008b200 	andeq	fp, r8, r0, lsl #4
    976c:	058a1600 	streq	r1, [sl, #1536]	; 0x600
    9770:	20000000 	andcs	r0, r0, r0
    9774:	0000076d 	andeq	r0, r0, sp, ror #14
    9778:	08bd2206 	popeq	{r1, r2, r9, sp}
    977c:	040e0000 	streq	r0, [lr], #-0
    9780:	000008a3 	andeq	r0, r0, r3, lsr #17
    9784:	00540121 	subseq	r0, r4, r1, lsr #2
    9788:	0c080000 	stceq	0, cr0, [r8], {-0}
    978c:	00000900 	andeq	r0, r0, r0, lsl #18
    9790:	00091c22 	andeq	r1, r9, r2, lsr #24
    9794:	95220000 	strls	r0, [r2, #-0]!
    9798:	0100000a 	tsteq	r0, sl
    979c:	000ad022 	andeq	sp, sl, r2, lsr #32
    97a0:	31220400 			; <UNDEFINED> instruction: 0x31220400
    97a4:	05000009 	streq	r0, [r0, #-9]
    97a8:	0009bd22 	andeq	fp, r9, r2, lsr #26
    97ac:	df220600 	svcle	0x00220600
    97b0:	0700000a 	streq	r0, [r0, -sl]
    97b4:	000aee22 	andeq	lr, sl, r2, lsr #28
    97b8:	fd220300 	stc2	3, cr0, [r2, #-0]
    97bc:	0200000a 	andeq	r0, r0, #10
    97c0:	094c1000 	stmdbeq	ip, {ip}^
    97c4:	072c0000 	streq	r0, [ip, -r0]!
    97c8:	00099006 	andeq	r9, r9, r6
    97cc:	6f691100 	svcvs	0x00691100
    97d0:	33090700 	movwcc	r0, #38656	; 0x9700
    97d4:	00000000 	andeq	r0, r0, r0
    97d8:	72656911 	rsbvc	r6, r5, #278528	; 0x44000
    97dc:	330a0700 	movwcc	r0, #42752	; 0xa700
    97e0:	04000000 	streq	r0, [r0], #-0
    97e4:	72696911 	rsbvc	r6, r9, #278528	; 0x44000
    97e8:	33110700 	tstcc	r1, #0, 14
    97ec:	08000000 	stmdaeq	r0, {}	; <UNPREDICTABLE>
    97f0:	72636c11 	rsbvc	r6, r3, #4352	; 0x1100
    97f4:	33130700 	tstcc	r3, #0, 14
    97f8:	0c000000 	stceq	0, cr0, [r0], {-0}
    97fc:	72636d11 	rsbvc	r6, r3, #1088	; 0x440
    9800:	33140700 	tstcc	r4, #0, 14
    9804:	10000000 	andne	r0, r0, r0
    9808:	72736c11 	rsbsvc	r6, r3, #4352	; 0x1100
    980c:	33150700 	tstcc	r5, #0, 14
    9810:	14000000 	strne	r0, [r0], #-0
    9814:	72736d11 	rsbsvc	r6, r3, #1088	; 0x440
    9818:	33160700 	tstcc	r6, #0, 14
    981c:	18000000 	stmdane	r0, {}	; <UNPREDICTABLE>
    9820:	000a130c 	andeq	r1, sl, ip, lsl #6
    9824:	33170700 	tstcc	r7, #0, 14
    9828:	1c000000 	stcne	0, cr0, [r0], {-0}
    982c:	0009400c 	andeq	r4, r9, ip
    9830:	331b0700 	tstcc	fp, #0, 14
    9834:	20000000 	andcs	r0, r0, r0
    9838:	00092c0c 	andeq	r2, r9, ip, lsl #24
    983c:	331d0700 	tstcc	sp, #0, 14
    9840:	24000000 	strcs	r0, [r0], #-0
    9844:	000a0e0c 	andeq	r0, sl, ip, lsl #28
    9848:	331e0700 	tstcc	lr, #0, 14
    984c:	28000000 	stmdacs	r0, {}	; <UNPREDICTABLE>
    9850:	098d2300 	stmibeq	sp, {r8, r9, sp}
    9854:	07010000 	streq	r0, [r1, -r0]
    9858:	000009a5 	andeq	r0, r0, r5, lsr #19
    985c:	20215004 	eorcs	r5, r1, r4
    9860:	0033040e 	eorseq	r0, r3, lr, lsl #8
    9864:	9f0f0000 	svcls	0x000f0000
    9868:	23000009 	movwcs	r0, #9
    986c:	000009e7 	andeq	r0, r0, r7, ror #19
    9870:	09bf2801 	ldmibeq	pc!, {r0, fp, sp}	; <UNPREDICTABLE>
    9874:	50400000 	subpl	r0, r0, r0
    9878:	040e2021 	streq	r2, [lr], #-33	; 0xffffffdf
    987c:	00000900 	andeq	r0, r0, r0, lsl #18
    9880:	0009b90f 	andeq	fp, r9, pc, lsl #18
    9884:	0ac22400 	beq	ff09288c <__bss_end__+0xff08888c>
    9888:	a7010000 	strge	r0, [r1, -r0]
    988c:	00000025 	andeq	r0, r0, r5, lsr #32
    9890:	00009340 	andeq	r9, r0, r0, asr #6
    9894:	00000010 	andeq	r0, r0, r0, lsl r0
    9898:	09f09c01 	ldmibeq	r0!, {r0, sl, fp, ip, pc}^
    989c:	48250000 	stmdami	r5!, {}	; <UNPREDICTABLE>
    98a0:	9c000093 	stcls	0, cr0, [r0], {147}	; 0x93
    98a4:	2500000c 	strcs	r0, [r0, #-12]
    98a8:	0000934c 	andeq	r9, r0, ip, asr #6
    98ac:	00000ad2 	ldrdeq	r0, [r0], -r2
    98b0:	073a2600 	ldreq	r2, [sl, -r0, lsl #12]!
    98b4:	9f010000 	svcls	0x00010000
    98b8:	00009310 	andeq	r9, r0, r0, lsl r3
    98bc:	00000030 	andeq	r0, r0, r0, lsr r0
    98c0:	0a4e9c01 	beq	13b08cc <__bss_end__+0x13a68cc>
    98c4:	63270000 			; <UNDEFINED> instruction: 0x63270000
    98c8:	2c9f0100 	ldfcss	f0, [pc], {0}
    98cc:	66000000 	strvs	r0, [r0], -r0
    98d0:	25000013 	strcs	r0, [r0, #-19]	; 0xffffffed
    98d4:	0000931c 	andeq	r9, r0, ip, lsl r3
    98d8:	00000c9c 	muleq	r0, ip, ip
    98dc:	00932025 	addseq	r2, r3, r5, lsr #32
    98e0:	000aa500 	andeq	sl, sl, r0, lsl #10
    98e4:	93342800 	teqls	r4, #0, 16
    98e8:	0ca70000 	stceq	0, cr0, [r7]
    98ec:	0a440000 	beq	11098f4 <__bss_end__+0x10ff8f4>
    98f0:	01290000 			; <UNDEFINED> instruction: 0x01290000
    98f4:	400c0550 	andmi	r0, ip, r0, asr r5
    98f8:	29202150 	stmdbcs	r0!, {r4, r6, r8, sp}
    98fc:	74055101 	strvc	r5, [r5], #-257	; 0xfffffeff
    9900:	1aff0800 	bne	fffcb908 <__bss_end__+0xfffc1908>
    9904:	93382500 	teqls	r8, #0, 10
    9908:	0c9c0000 	ldceq	0, cr0, [ip], {0}
    990c:	24000000 	strcs	r0, [r0], #-0
    9910:	000009a7 	andeq	r0, r0, r7, lsr #19
    9914:	00259701 	eoreq	r9, r5, r1, lsl #14
    9918:	92e00000 	rscls	r0, r0, #0
    991c:	00300000 	eorseq	r0, r0, r0
    9920:	9c010000 	stcls	0, cr0, [r1], {-0}
    9924:	00000aa5 	andeq	r0, r0, r5, lsr #21
    9928:	0100632a 	tsteq	r0, sl, lsr #6
    992c:	0000259b 	muleq	r0, fp, r5
    9930:	25540100 	ldrbcs	r0, [r4, #-256]	; 0xffffff00
    9934:	000092e8 	andeq	r9, r0, r8, ror #5
    9938:	00000c9c 	muleq	r0, ip, ip
    993c:	0092ec25 	addseq	lr, r2, r5, lsr #24
    9940:	000ad200 	andeq	sp, sl, r0, lsl #4
    9944:	92fc2800 	rscsls	r2, ip, #0, 16
    9948:	0cb20000 	ldceq	0, cr0, [r2]
    994c:	0a9b0000 	beq	fe6c9954 <__bss_end__+0xfe6bf954>
    9950:	01290000 			; <UNDEFINED> instruction: 0x01290000
    9954:	400c0550 	andmi	r0, ip, r0, asr r5
    9958:	00202150 	eoreq	r2, r0, r0, asr r1
    995c:	00930425 	addseq	r0, r3, r5, lsr #8
    9960:	000c9c00 	andeq	r9, ip, r0, lsl #24
    9964:	99240000 	stmdbls	r4!, {}	; <UNPREDICTABLE>
    9968:	01000009 	tsteq	r0, r9
    996c:	00002588 	andeq	r2, r0, r8, lsl #11
    9970:	0092c000 	addseq	ip, r2, r0
    9974:	00002000 	andeq	r2, r0, r0
    9978:	d29c0100 	addsle	r0, ip, #0, 2
    997c:	2b00000a 	blcs	99ac <__FUNCTION__.4339>
    9980:	000092cc 	andeq	r9, r0, ip, asr #5
    9984:	00000cb2 			; <UNDEFINED> instruction: 0x00000cb2
    9988:	05500129 	ldrbeq	r0, [r0, #-297]	; 0xfffffed7
    998c:	2150640c 	cmpcs	r0, ip, lsl #8
    9990:	24000020 	strcs	r0, [r0], #-32	; 0xffffffe0
    9994:	00000aac 	andeq	r0, r0, ip, lsr #21
    9998:	00257f01 	eoreq	r7, r5, r1, lsl #30
    999c:	92a80000 	adcls	r0, r8, #0
    99a0:	00180000 	andseq	r0, r8, r0
    99a4:	9c010000 	stcls	0, cr0, [r1], {-0}
    99a8:	00000aff 	strdeq	r0, [r0], -pc	; <UNPREDICTABLE>
    99ac:	0092b42b 	addseq	fp, r2, fp, lsr #8
    99b0:	000cb200 	andeq	fp, ip, r0, lsl #4
    99b4:	50012900 	andpl	r2, r1, r0, lsl #18
    99b8:	50640c05 	rsbpl	r0, r4, r5, lsl #24
    99bc:	00002021 	andeq	r2, r0, r1, lsr #32
    99c0:	00091226 	andeq	r1, r9, r6, lsr #4
    99c4:	f83a0100 			; <UNDEFINED> instruction: 0xf83a0100
    99c8:	b0000091 	mullt	r0, r1, r0
    99cc:	01000000 	mrseq	r0, (UNDEF: 0)
    99d0:	000c3d9c 	muleq	ip, ip, sp
    99d4:	92082800 	andls	r2, r8, #0, 16
    99d8:	0cbd0000 	ldceq	0, cr0, [sp]
    99dc:	0b2c0000 	bleq	b099e4 <__bss_end__+0xaff9e4>
    99e0:	01290000 			; <UNDEFINED> instruction: 0x01290000
    99e4:	293e0150 	ldmdbcs	lr!, {r4, r6, r8}
    99e8:	32015101 	andcc	r5, r1, #1073741824	; 0x40000000
    99ec:	92142800 	andsls	r2, r4, #0, 16
    99f0:	0cbd0000 	ldceq	0, cr0, [sp]
    99f4:	0b440000 	bleq	11099fc <__bss_end__+0x10ff9fc>
    99f8:	01290000 			; <UNDEFINED> instruction: 0x01290000
    99fc:	293f0150 	ldmdbcs	pc!, {r4, r6, r8}	; <UNPREDICTABLE>
    9a00:	32015101 	andcc	r5, r1, #1073741824	; 0x40000000
    9a04:	92182500 	andsls	r2, r8, #0, 10
    9a08:	0c9c0000 	ldceq	0, cr0, [ip], {0}
    9a0c:	24280000 	strtcs	r0, [r8], #-0
    9a10:	3d000092 	stccc	0, cr0, [r0, #-584]	; 0xfffffdb8
    9a14:	6900000c 	stmdbvs	r0, {r2, r3}
    9a18:	2900000b 	stmdbcs	r0, {r0, r1, r3}
    9a1c:	0c055001 	stceq	0, cr5, [r5], {1}
    9a20:	20215004 	eorcs	r5, r1, r4
    9a24:	01510129 	cmpeq	r1, r9, lsr #2
    9a28:	28250031 	stmdacs	r5!, {r0, r4, r5}
    9a2c:	9c000092 	stcls	0, cr0, [r0], {146}	; 0x92
    9a30:	2800000c 	stmdacs	r0, {r2, r3}
    9a34:	00009238 	andeq	r9, r0, r8, lsr r2
    9a38:	00000ca7 	andeq	r0, r0, r7, lsr #25
    9a3c:	00000b8b 	andeq	r0, r0, fp, lsl #23
    9a40:	02500129 	subseq	r0, r0, #1073741834	; 0x4000000a
    9a44:	01290074 			; <UNDEFINED> instruction: 0x01290074
    9a48:	00300151 	eorseq	r0, r0, r1, asr r1
    9a4c:	00924428 	addseq	r4, r2, r8, lsr #8
    9a50:	000ca700 	andeq	sl, ip, r0, lsl #14
    9a54:	000ba700 	andeq	sl, fp, r0, lsl #14
    9a58:	50012900 	andpl	r2, r1, r0, lsl #18
    9a5c:	50440c05 	subpl	r0, r4, r5, lsl #24
    9a60:	01292021 			; <UNDEFINED> instruction: 0x01292021
    9a64:	00300151 	eorseq	r0, r0, r1, asr r1
    9a68:	00925028 	addseq	r5, r2, r8, lsr #32
    9a6c:	000ca700 	andeq	sl, ip, r0, lsl #14
    9a70:	000bc300 	andeq	ip, fp, r0, lsl #6
    9a74:	50012900 	andpl	r2, r1, r0, lsl #18
    9a78:	504c0c05 	subpl	r0, ip, r5, lsl #24
    9a7c:	01292021 			; <UNDEFINED> instruction: 0x01292021
    9a80:	00330151 	eorseq	r0, r3, r1, asr r1
    9a84:	00925c28 	addseq	r5, r2, r8, lsr #24
    9a88:	000ca700 	andeq	sl, ip, r0, lsl #14
    9a8c:	000bdf00 	andeq	sp, fp, r0, lsl #30
    9a90:	50012900 	andpl	r2, r1, r0, lsl #18
    9a94:	50500c05 	subspl	r0, r0, r5, lsl #24
    9a98:	01292021 			; <UNDEFINED> instruction: 0x01292021
    9a9c:	00300151 	eorseq	r0, r0, r1, asr r1
    9aa0:	00926828 	addseq	r6, r2, r8, lsr #16
    9aa4:	000ca700 	andeq	sl, ip, r0, lsl #14
    9aa8:	000bfc00 	andeq	pc, fp, r0, lsl #24
    9aac:	50012900 	andpl	r2, r1, r0, lsl #18
    9ab0:	50480c05 	subpl	r0, r8, r5, lsl #24
    9ab4:	01292021 			; <UNDEFINED> instruction: 0x01292021
    9ab8:	c7080251 	smlsdgt	r8, r1, r2, r0
    9abc:	92742800 	rsbsls	r2, r4, #0, 16
    9ac0:	0ca70000 	stceq	0, cr0, [r7]
    9ac4:	0c1a0000 	ldceq	0, cr0, [sl], {-0}
    9ac8:	01290000 			; <UNDEFINED> instruction: 0x01290000
    9acc:	680c0550 	stmdavs	ip, {r4, r6, r8, sl}
    9ad0:	29202150 	stmdbcs	r0!, {r4, r6, r8, sp}
    9ad4:	0a035101 	beq	ddee0 <__bss_end__+0xd3ee0>
    9ad8:	2800010e 	stmdacs	r0, {r1, r2, r3, r8}
    9adc:	00009280 	andeq	r9, r0, r0, lsl #5
    9ae0:	00000ca7 	andeq	r0, r0, r7, lsr #25
    9ae4:	00000c33 	andeq	r0, r0, r3, lsr ip
    9ae8:	02500129 	subseq	r0, r0, #1073741834	; 0x4000000a
    9aec:	01290074 			; <UNDEFINED> instruction: 0x01290074
    9af0:	00330151 	eorseq	r0, r3, r1, asr r1
    9af4:	00928425 	addseq	r8, r2, r5, lsr #8
    9af8:	000c9c00 	andeq	r9, ip, r0, lsl #24
    9afc:	ba2c0000 	blt	b09b04 <__bss_end__+0xaffb04>
    9b00:	0100000a 	tsteq	r0, sl
    9b04:	0091d82d 	addseq	sp, r1, sp, lsr #16
    9b08:	00002000 	andeq	r2, r0, r0
    9b0c:	959c0100 	ldrls	r0, [ip, #256]	; 0x100
    9b10:	2d00000c 	stccs	0, cr0, [r0, #-48]	; 0xffffffd0
    9b14:	00000c11 	andeq	r0, r0, r1, lsl ip
    9b18:	0c952d01 	ldceq	13, cr2, [r5], {1}
    9b1c:	13840000 	orrne	r0, r4, #0
    9b20:	76270000 	strtvc	r0, [r7], -r0
    9b24:	01006c61 	tsteq	r0, r1, ror #24
    9b28:	00002c2d 	andeq	r2, r0, sp, lsr #24
    9b2c:	0013a200 	andseq	sl, r3, r0, lsl #4
    9b30:	91e82800 	mvnls	r2, r0, lsl #16
    9b34:	0cb20000 	ldceq	0, cr0, [r2]
    9b38:	0c840000 	stceq	0, cr0, [r4], {0}
    9b3c:	01290000 			; <UNDEFINED> instruction: 0x01290000
    9b40:	00740250 	rsbseq	r0, r4, r0, asr r2
    9b44:	91f42b00 	mvnsls	r2, r0, lsl #22
    9b48:	0ca70000 	stceq	0, cr0, [r7]
    9b4c:	01290000 			; <UNDEFINED> instruction: 0x01290000
    9b50:	00740250 	rsbseq	r0, r4, r0, asr r2
    9b54:	040e0000 	streq	r0, [lr], #-0
    9b58:	00000c9b 	muleq	r0, fp, ip
    9b5c:	09b12f2e 	ldmibeq	r1!, {r1, r2, r3, r5, r8, r9, sl, fp, sp}
    9b60:	09b10000 	ldmibeq	r1!, {}	; <UNPREDICTABLE>
    9b64:	89060000 	stmdbhi	r6, {}	; <UNPREDICTABLE>
    9b68:	000a1b2f 	andeq	r1, sl, pc, lsr #22
    9b6c:	000a1b00 	andeq	r1, sl, r0, lsl #22
    9b70:	2f9c0600 	svccs	0x009c0600
    9b74:	00000aa6 	andeq	r0, r0, r6, lsr #21
    9b78:	00000aa6 	andeq	r0, r0, r6, lsr #21
    9b7c:	d52fa806 	strle	sl, [pc, #-2054]!	; 937e <gpio_set_function+0x2e>
    9b80:	d5000009 	strle	r0, [r0, #-9]
    9b84:	08000009 	stmdaeq	r0, {r0, r3}
    9b88:	0b700019 	bleq	1c09bf4 <__bss_end__+0x1bffbf4>
    9b8c:	00040000 	andeq	r0, r4, r0
    9b90:	00001f3e 	andeq	r1, r0, lr, lsr pc
    9b94:	0a210104 	beq	849fac <__bss_end__+0x83ffac>
    9b98:	1e0c0000 	cdpne	0, 0, cr0, cr12, cr0, {0}
    9b9c:	5800000b 	stmdapl	r0, {r0, r1, r3}
    9ba0:	50000009 	andpl	r0, r0, r9
    9ba4:	20000093 	mulcs	r0, r3, r0
    9ba8:	e4000001 	str	r0, [r0], #-1
    9bac:	02000019 	andeq	r0, r0, #25
    9bb0:	6e690504 	cdpvs	5, 6, cr0, cr9, cr4, {0}
    9bb4:	04030074 	streq	r0, [r3], #-116	; 0xffffff8c
    9bb8:	00007407 	andeq	r7, r0, r7, lsl #8
    9bbc:	002c0400 	eoreq	r0, ip, r0, lsl #8
    9bc0:	01030000 	mrseq	r0, (UNDEF: 3)
    9bc4:	0002f106 	andeq	pc, r2, r6, lsl #2
    9bc8:	05020300 	streq	r0, [r2, #-768]	; 0xfffffd00
    9bcc:	0000038a 	andeq	r0, r0, sl, lsl #7
    9bd0:	ba050403 	blt	14abe4 <__bss_end__+0x140be4>
    9bd4:	03000000 	movweq	r0, #0
    9bd8:	00b50508 	adcseq	r0, r5, r8, lsl #10
    9bdc:	01030000 	mrseq	r0, (UNDEF: 3)
    9be0:	0002ef08 	andeq	lr, r2, r8, lsl #30
    9be4:	07020300 	streq	r0, [r2, -r0, lsl #6]
    9be8:	00000230 	andeq	r0, r0, r0, lsr r2
    9bec:	6f070403 	svcvs	0x00070403
    9bf0:	03000000 	movweq	r0, #0
    9bf4:	006a0708 	rsbeq	r0, sl, r8, lsl #14
    9bf8:	ec050000 	stc	0, cr0, [r5], {-0}
    9bfc:	02000009 	andeq	r0, r0, #9
    9c00:	00002507 	andeq	r2, r0, r7, lsl #10
    9c04:	02d00500 	sbcseq	r0, r0, #0, 10
    9c08:	2c030000 	stccs	0, cr0, [r3], {-0}
    9c0c:	00000046 	andeq	r0, r0, r6, asr #32
    9c10:	00044505 	andeq	r4, r4, r5, lsl #10
    9c14:	46720300 	ldrbtmi	r0, [r2], -r0, lsl #6
    9c18:	06000000 	streq	r0, [r0], -r0
    9c1c:	0000027b 	andeq	r0, r0, fp, ror r2
    9c20:	2c016504 	cfstr32cs	mvfx6, [r1], {4}
    9c24:	07000000 	streq	r0, [r0, -r0]
    9c28:	bca60304 	stclt	3, cr0, [r6], #16
    9c2c:	08000000 	stmdaeq	r0, {}	; <UNPREDICTABLE>
    9c30:	0000026d 	andeq	r0, r0, sp, ror #4
    9c34:	0091a803 	addseq	sl, r1, r3, lsl #16
    9c38:	f0080000 			; <UNDEFINED> instruction: 0xf0080000
    9c3c:	03000001 	movweq	r0, #1
    9c40:	0000bca9 	andeq	fp, r0, r9, lsr #25
    9c44:	54090000 	strpl	r0, [r9], #-0
    9c48:	cc000000 	stcgt	0, cr0, [r0], {-0}
    9c4c:	0a000000 	beq	9c54 <buf.4297+0x54>
    9c50:	000000cc 	andeq	r0, r0, ip, asr #1
    9c54:	04030003 	streq	r0, [r3], #-3
    9c58:	0009cc07 	andeq	ip, r9, r7, lsl #24
    9c5c:	03080b00 	movweq	r0, #35584	; 0x8b00
    9c60:	0000f4a3 	andeq	pc, r0, r3, lsr #9
    9c64:	04280c00 	strteq	r0, [r8], #-3072	; 0xfffff400
    9c68:	a5030000 	strge	r0, [r3, #-0]
    9c6c:	00000025 	andeq	r0, r0, r5, lsr #32
    9c70:	04370c00 	ldrteq	r0, [r7], #-3072	; 0xfffff400
    9c74:	aa030000 	bge	c9c7c <__bss_end__+0xbfc7c>
    9c78:	0000009d 	muleq	r0, sp, r0
    9c7c:	b2050004 	andlt	r0, r5, #4
    9c80:	03000003 	movweq	r0, #3
    9c84:	0000d3ab 	andeq	sp, r0, fp, lsr #7
    9c88:	01ad0500 			; <UNDEFINED> instruction: 0x01ad0500
    9c8c:	af030000 	svcge	0x00030000
    9c90:	00000070 	andeq	r0, r0, r0, ror r0
    9c94:	040e040d 	streq	r0, [lr], #-1037	; 0xfffffbf3
    9c98:	00000112 	andeq	r0, r0, r2, lsl r1
    9c9c:	f8080103 			; <UNDEFINED> instruction: 0xf8080103
    9ca0:	04000002 	streq	r0, [r0], #-2
    9ca4:	00000112 	andeq	r0, r0, r2, lsl r1
    9ca8:	00047705 	andeq	r7, r4, r5, lsl #14
    9cac:	62160500 	andsvs	r0, r6, #0, 10
    9cb0:	0f000000 	svceq	0x00000000
    9cb4:	000001be 			; <UNDEFINED> instruction: 0x000001be
    9cb8:	7c2d0518 	cfstr32vc	mvfx0, [sp], #-96	; 0xffffffa0
    9cbc:	0c000001 	stceq	0, cr0, [r0], {1}
    9cc0:	000003d3 	ldrdeq	r0, [r0], -r3
    9cc4:	017c2f05 	cmneq	ip, r5, lsl #30
    9cc8:	10000000 	andne	r0, r0, r0
    9ccc:	05006b5f 	streq	r6, [r0, #-2911]	; 0xfffff4a1
    9cd0:	00002530 	andeq	r2, r0, r0, lsr r5
    9cd4:	130c0400 	movwne	r0, #50176	; 0xc400
    9cd8:	05000004 	streq	r0, [r0, #-4]
    9cdc:	00002530 	andeq	r2, r0, r0, lsr r5
    9ce0:	a70c0800 	strge	r0, [ip, -r0, lsl #16]
    9ce4:	05000001 	streq	r0, [r0, #-1]
    9ce8:	00002530 	andeq	r2, r0, r0, lsr r5
    9cec:	b30c0c00 	movwlt	r0, #52224	; 0xcc00
    9cf0:	05000004 	streq	r0, [r0, #-4]
    9cf4:	00002530 	andeq	r2, r0, r0, lsr r5
    9cf8:	5f101000 	svcpl	0x00101000
    9cfc:	31050078 	tstcc	r5, r8, ror r0
    9d00:	00000182 	andeq	r0, r0, r2, lsl #3
    9d04:	040e0014 	streq	r0, [lr], #-20	; 0xffffffec
    9d08:	00000129 	andeq	r0, r0, r9, lsr #2
    9d0c:	00011e09 	andeq	r1, r1, r9, lsl #28
    9d10:	00019200 	andeq	r9, r1, r0, lsl #4
    9d14:	00cc0a00 	sbceq	r0, ip, r0, lsl #20
    9d18:	00000000 	andeq	r0, r0, r0
    9d1c:	0001eb0f 	andeq	lr, r1, pc, lsl #22
    9d20:	35052400 	strcc	r2, [r5, #-1024]	; 0xfffffc00
    9d24:	0000020b 	andeq	r0, r0, fp, lsl #4
    9d28:	0000ac0c 	andeq	sl, r0, ip, lsl #24
    9d2c:	25370500 	ldrcs	r0, [r7, #-1280]!	; 0xfffffb00
    9d30:	00000000 	andeq	r0, r0, r0
    9d34:	00044d0c 	andeq	r4, r4, ip, lsl #26
    9d38:	25380500 	ldrcs	r0, [r8, #-1280]!	; 0xfffffb00
    9d3c:	04000000 	streq	r0, [r0], #-0
    9d40:	0000cf0c 	andeq	ip, r0, ip, lsl #30
    9d44:	25390500 	ldrcs	r0, [r9, #-1280]!	; 0xfffffb00
    9d48:	08000000 	stmdaeq	r0, {}	; <UNPREDICTABLE>
    9d4c:	0005340c 	andeq	r3, r5, ip, lsl #8
    9d50:	253a0500 	ldrcs	r0, [sl, #-1280]!	; 0xfffffb00
    9d54:	0c000000 	stceq	0, cr0, [r0], {-0}
    9d58:	0002b40c 	andeq	fp, r2, ip, lsl #8
    9d5c:	253b0500 	ldrcs	r0, [fp, #-1280]!	; 0xfffffb00
    9d60:	10000000 	andne	r0, r0, r0
    9d64:	0002960c 	andeq	r9, r2, ip, lsl #12
    9d68:	253c0500 	ldrcs	r0, [ip, #-1280]!	; 0xfffffb00
    9d6c:	14000000 	strne	r0, [r0], #-0
    9d70:	0004b80c 	andeq	fp, r4, ip, lsl #16
    9d74:	253d0500 	ldrcs	r0, [sp, #-1280]!	; 0xfffffb00
    9d78:	18000000 	stmdane	r0, {}	; <UNPREDICTABLE>
    9d7c:	0003940c 	andeq	r9, r3, ip, lsl #8
    9d80:	253e0500 	ldrcs	r0, [lr, #-1280]!	; 0xfffffb00
    9d84:	1c000000 	stcne	0, cr0, [r0], {-0}
    9d88:	0004fb0c 	andeq	pc, r4, ip, lsl #22
    9d8c:	253f0500 	ldrcs	r0, [pc, #-1280]!	; 9894 <__FUNCTION__.4337+0x1dc>
    9d90:	20000000 	andcs	r0, r0, r0
    9d94:	010f1100 	mrseq	r1, (UNDEF: 31)
    9d98:	01080000 	mrseq	r0, (UNDEF: 8)
    9d9c:	024b4805 	subeq	r4, fp, #327680	; 0x50000
    9da0:	9a0c0000 	bls	309da8 <__bss_end__+0x2ffda8>
    9da4:	05000001 	streq	r0, [r0, #-1]
    9da8:	00024b49 	andeq	r4, r2, r9, asr #22
    9dac:	000c0000 	andeq	r0, ip, r0
    9db0:	05000000 	streq	r0, [r0, #-0]
    9db4:	00024b4a 	andeq	r4, r2, sl, asr #22
    9db8:	69128000 	ldmdbvs	r2, {pc}
    9dbc:	05000004 	streq	r0, [r0, #-4]
    9dc0:	00011e4c 	andeq	r1, r1, ip, asr #28
    9dc4:	12010000 	andne	r0, r1, #0
    9dc8:	00000134 	andeq	r0, r0, r4, lsr r1
    9dcc:	011e4f05 	tsteq	lr, r5, lsl #30
    9dd0:	01040000 	mrseq	r0, (UNDEF: 4)
    9dd4:	010a0900 	tsteq	sl, r0, lsl #18
    9dd8:	025b0000 	subseq	r0, fp, #0
    9ddc:	cc0a0000 	stcgt	0, cr0, [sl], {-0}
    9de0:	1f000000 	svcne	0x00000000
    9de4:	02bd1100 	adcseq	r1, sp, #0, 2
    9de8:	01900000 	orrseq	r0, r0, r0
    9dec:	02995b05 	addseq	r5, r9, #5120	; 0x1400
    9df0:	d30c0000 	movwle	r0, #49152	; 0xc000
    9df4:	05000003 	streq	r0, [r0, #-3]
    9df8:	0002995c 	andeq	r9, r2, ip, asr r9
    9dfc:	eb0c0000 	bl	309e04 <__bss_end__+0x2ffe04>
    9e00:	05000003 	streq	r0, [r0, #-3]
    9e04:	0000255d 	andeq	r2, r0, sp, asr r5
    9e08:	a20c0400 	andge	r0, ip, #0, 8
    9e0c:	05000001 	streq	r0, [r0, #-1]
    9e10:	00029f5f 	andeq	r9, r2, pc, asr pc
    9e14:	0f0c0800 	svceq	0x000c0800
    9e18:	05000001 	streq	r0, [r0, #-1]
    9e1c:	00020b60 	andeq	r0, r2, r0, ror #22
    9e20:	0e008800 	cdpeq	8, 0, cr8, cr0, cr0, {0}
    9e24:	00025b04 	andeq	r5, r2, r4, lsl #22
    9e28:	02af0900 	adceq	r0, pc, #0, 18
    9e2c:	02af0000 	adceq	r0, pc, #0
    9e30:	cc0a0000 	stcgt	0, cr0, [sl], {-0}
    9e34:	1f000000 	svcne	0x00000000
    9e38:	b5040e00 	strlt	r0, [r4, #-3584]	; 0xfffff200
    9e3c:	13000002 	movwne	r0, #2
    9e40:	00039e0f 	andeq	r9, r3, pc, lsl #28
    9e44:	73050800 	movwvc	r0, #22528	; 0x5800
    9e48:	000002db 	ldrdeq	r0, [r0], -fp
    9e4c:	0000c90c 	andeq	ip, r0, ip, lsl #18
    9e50:	db740500 	blle	1d0b258 <__bss_end__+0x1d01258>
    9e54:	00000002 	andeq	r0, r0, r2
    9e58:	00001b0c 	andeq	r1, r0, ip, lsl #22
    9e5c:	25750500 	ldrbcs	r0, [r5, #-1280]!	; 0xfffffb00
    9e60:	04000000 	streq	r0, [r0], #-0
    9e64:	54040e00 	strpl	r0, [r4], #-3584	; 0xfffff200
    9e68:	0f000000 	svceq	0x00000000
    9e6c:	000003bd 			; <UNDEFINED> instruction: 0x000003bd
    9e70:	0bb30568 	bleq	feccb418 <__bss_end__+0xfecc1418>
    9e74:	10000004 	andne	r0, r0, r4
    9e78:	0500705f 	streq	r7, [r0, #-95]	; 0xffffffa1
    9e7c:	0002dbb4 			; <UNDEFINED> instruction: 0x0002dbb4
    9e80:	5f100000 	svcpl	0x00100000
    9e84:	b5050072 	strlt	r0, [r5, #-114]	; 0xffffff8e
    9e88:	00000025 	andeq	r0, r0, r5, lsr #32
    9e8c:	775f1004 	ldrbvc	r1, [pc, -r4]
    9e90:	25b60500 	ldrcs	r0, [r6, #1280]!	; 0x500
    9e94:	08000000 	stmdaeq	r0, {}	; <UNPREDICTABLE>
    9e98:	00012d0c 	andeq	r2, r1, ip, lsl #26
    9e9c:	3fb70500 	svccc	0x00b70500
    9ea0:	0c000000 	stceq	0, cr0, [r0], {-0}
    9ea4:	0002160c 	andeq	r1, r2, ip, lsl #12
    9ea8:	3fb80500 	svccc	0x00b80500
    9eac:	0e000000 	cdpeq	0, 0, cr0, cr0, cr0, {0}
    9eb0:	66625f10 	uqadd16vs	r5, r2, r0
    9eb4:	b6b90500 	ldrtlt	r0, [r9], r0, lsl #10
    9eb8:	10000002 	andne	r0, r0, r2
    9ebc:	0000890c 	andeq	r8, r0, ip, lsl #18
    9ec0:	25ba0500 	ldrcs	r0, [sl, #1280]!	; 0x500
    9ec4:	18000000 	stmdane	r0, {}	; <UNPREDICTABLE>
    9ec8:	00011d0c 	andeq	r1, r1, ip, lsl #26
    9ecc:	0ac10500 	beq	ff04b2d4 <__bss_end__+0xff0412d4>
    9ed0:	1c000001 	stcne	0, cr0, [r0], {1}
    9ed4:	000b290c 	andeq	r2, fp, ip, lsl #18
    9ed8:	66c30500 	strbvs	r0, [r3], r0, lsl #10
    9edc:	20000005 	andcs	r0, r0, r5
    9ee0:	00061e0c 	andeq	r1, r6, ip, lsl #28
    9ee4:	90c50500 	sbcls	r0, r5, r0, lsl #10
    9ee8:	24000005 	strcs	r0, [r0], #-5
    9eec:	00043f0c 	andeq	r3, r4, ip, lsl #30
    9ef0:	b4c80500 	strblt	r0, [r8], #1280	; 0x500
    9ef4:	28000005 	stmdacs	r0, {r0, r2}
    9ef8:	0005150c 	andeq	r1, r5, ip, lsl #10
    9efc:	cec90500 	cdpgt	5, 12, cr0, cr9, cr0, {0}
    9f00:	2c000005 	stccs	0, cr0, [r0], {5}
    9f04:	62755f10 	rsbsvs	r5, r5, #16, 30	; 0x40
    9f08:	b6cc0500 	strblt	r0, [ip], r0, lsl #10
    9f0c:	30000002 	andcc	r0, r0, r2
    9f10:	70755f10 	rsbsvc	r5, r5, r0, lsl pc
    9f14:	dbcd0500 	blle	ff34b31c <__bss_end__+0xff34131c>
    9f18:	38000002 	stmdacc	r0, {r1}
    9f1c:	72755f10 	rsbsvc	r5, r5, #16, 30	; 0x40
    9f20:	25ce0500 	strbcs	r0, [lr, #1280]	; 0x500
    9f24:	3c000000 	stccc	0, cr0, [r0], {-0}
    9f28:	0000c30c 	andeq	ip, r0, ip, lsl #6
    9f2c:	d4d10500 	ldrble	r0, [r1], #1280	; 0x500
    9f30:	40000005 	andmi	r0, r0, r5
    9f34:	0004ed0c 	andeq	lr, r4, ip, lsl #26
    9f38:	e4d20500 	ldrb	r0, [r2], #1280	; 0x500
    9f3c:	43000005 	movwmi	r0, #5
    9f40:	626c5f10 	rsbvs	r5, ip, #16, 30	; 0x40
    9f44:	b6d50500 	ldrblt	r0, [r5], r0, lsl #10
    9f48:	44000002 	strmi	r0, [r0], #-2
    9f4c:	00014b0c 	andeq	r4, r1, ip, lsl #22
    9f50:	25d80500 	ldrbcs	r0, [r8, #1280]	; 0x500
    9f54:	4c000000 	stcmi	0, cr0, [r0], {-0}
    9f58:	00015c0c 	andeq	r5, r1, ip, lsl #24
    9f5c:	7bd90500 	blvc	ff64b364 <__bss_end__+0xff641364>
    9f60:	50000000 	andpl	r0, r0, r0
    9f64:	000aca0c 	andeq	ip, sl, ip, lsl #20
    9f68:	29dc0500 	ldmibcs	ip, {r8, sl}^
    9f6c:	54000004 	strpl	r0, [r0], #-4
    9f70:	0004310c 	andeq	r3, r4, ip, lsl #2
    9f74:	ffe00500 			; <UNDEFINED> instruction: 0xffe00500
    9f78:	58000000 	stmdapl	r0, {}	; <UNPREDICTABLE>
    9f7c:	0003c50c 	andeq	ip, r3, ip, lsl #10
    9f80:	f4e20500 	vld2.16	{d16[0],d17[0]}, [r2], r0
    9f84:	5c000000 	stcpl	0, cr0, [r0], {-0}
    9f88:	00028e0c 	andeq	r8, r2, ip, lsl #28
    9f8c:	25e30500 	strbcs	r0, [r3, #1280]!	; 0x500
    9f90:	64000000 	strvs	r0, [r0], #-0
    9f94:	00251400 	eoreq	r1, r5, r0, lsl #8
    9f98:	04290000 	strteq	r0, [r9], #-0
    9f9c:	29150000 	ldmdbcs	r5, {}	; <UNPREDICTABLE>
    9fa0:	15000004 	strne	r0, [r0, #-4]
    9fa4:	0000010a 	andeq	r0, r0, sl, lsl #2
    9fa8:	00010c15 	andeq	r0, r1, r5, lsl ip
    9fac:	00251500 	eoreq	r1, r5, r0, lsl #10
    9fb0:	0e000000 	cdpeq	0, 0, cr0, cr0, cr0, {0}
    9fb4:	00043404 	andeq	r3, r4, r4, lsl #8
    9fb8:	04290400 	strteq	r0, [r9], #-1024	; 0xfffffc00
    9fbc:	1b160000 	blne	589fc4 <__bss_end__+0x57ffc4>
    9fc0:	28000004 	stmdacs	r0, {r2}
    9fc4:	02380504 	eorseq	r0, r8, #4, 10	; 0x1000000
    9fc8:	00000566 	andeq	r0, r0, r6, ror #10
    9fcc:	00038317 	andeq	r8, r3, r7, lsl r3
    9fd0:	023a0500 	eorseq	r0, sl, #0, 10
    9fd4:	00000025 	andeq	r0, r0, r5, lsr #32
    9fd8:	013c1700 	teqeq	ip, r0, lsl #14
    9fdc:	3f050000 	svccc	0x00050000
    9fe0:	00063b02 	andeq	r3, r6, r2, lsl #22
    9fe4:	06170400 	ldreq	r0, [r7], -r0, lsl #8
    9fe8:	05000002 	streq	r0, [r0, #-2]
    9fec:	063b023f 			; <UNDEFINED> instruction: 0x063b023f
    9ff0:	17080000 	strne	r0, [r8, -r0]
    9ff4:	000001b6 			; <UNDEFINED> instruction: 0x000001b6
    9ff8:	3b023f05 	blcc	99c14 <__bss_end__+0x8fc14>
    9ffc:	0c000006 	stceq	0, cr0, [r0], {6}
    a000:	0003e617 	andeq	lr, r3, r7, lsl r6
    a004:	02410500 	subeq	r0, r1, #0, 10
    a008:	00000025 	andeq	r0, r0, r5, lsr #32
    a00c:	00371710 	eorseq	r1, r7, r0, lsl r7
    a010:	42050000 	andmi	r0, r5, #0
    a014:	00081d02 	andeq	r1, r8, r2, lsl #26
    a018:	83171400 	tsthi	r7, #0, 8
    a01c:	0500000a 	streq	r0, [r0, #-10]
    a020:	00250244 	eoreq	r0, r5, r4, asr #4
    a024:	17300000 	ldrne	r0, [r0, -r0]!
    a028:	000009fe 	strdeq	r0, [r0], -lr
    a02c:	8a024505 	bhi	9b448 <__bss_end__+0x91448>
    a030:	34000005 	strcc	r0, [r0], #-5
    a034:	0002c517 	andeq	ip, r2, r7, lsl r5
    a038:	02470500 	subeq	r0, r7, #0, 10
    a03c:	00000025 	andeq	r0, r0, r5, lsr #32
    a040:	03f01738 	mvnseq	r1, #56, 14	; 0xe00000
    a044:	49050000 	stmdbmi	r5, {}	; <UNPREDICTABLE>
    a048:	00083802 	andeq	r3, r8, r2, lsl #16
    a04c:	65173c00 	ldrvs	r3, [r7, #-3072]	; 0xfffff400
    a050:	05000002 	streq	r0, [r0, #-2]
    a054:	017c024c 	cmneq	ip, ip, asr #4
    a058:	17400000 	strbne	r0, [r0, -r0]
    a05c:	000001d5 	ldrdeq	r0, [r0], -r5
    a060:	25024d05 	strcs	r4, [r2, #-3333]	; 0xfffff2fb
    a064:	44000000 	strmi	r0, [r0], #-0
    a068:	00052f17 	andeq	r2, r5, r7, lsl pc
    a06c:	024e0500 	subeq	r0, lr, #0, 10
    a070:	0000017c 	andeq	r0, r0, ip, ror r1
    a074:	02d71748 	sbcseq	r1, r7, #72, 14	; 0x1200000
    a078:	4f050000 	svcmi	0x00050000
    a07c:	00083e02 	andeq	r3, r8, r2, lsl #28
    a080:	0e174c00 	cdpeq	12, 1, cr4, cr7, cr0, {0}
    a084:	05000002 	streq	r0, [r0, #-2]
    a088:	00250252 	eoreq	r0, r5, r2, asr r2
    a08c:	17500000 	ldrbne	r0, [r0, -r0]
    a090:	00000154 	andeq	r0, r0, r4, asr r1
    a094:	0c025305 	stceq	3, cr5, [r2], {5}
    a098:	54000001 	strpl	r0, [r0], #-1
    a09c:	0002fd17 	andeq	pc, r2, r7, lsl sp	; <UNPREDICTABLE>
    a0a0:	02760500 	rsbseq	r0, r6, #0, 10
    a0a4:	000007fb 	strdeq	r0, [r0], -fp
    a0a8:	02bd1858 	adcseq	r1, sp, #88, 16	; 0x580000
    a0ac:	7a050000 	bvc	14a0b4 <__bss_end__+0x1400b4>
    a0b0:	00029902 	andeq	r9, r2, r2, lsl #18
    a0b4:	18014800 	stmdane	r1, {fp, lr}
    a0b8:	00000243 	andeq	r0, r0, r3, asr #4
    a0bc:	5b027b05 	blpl	a8cd8 <__bss_end__+0x9ecd8>
    a0c0:	4c000002 	stcmi	0, cr0, [r0], {2}
    a0c4:	04db1801 	ldrbeq	r1, [fp], #2049	; 0x801
    a0c8:	7f050000 	svcvc	0x00050000
    a0cc:	00084f02 	andeq	r4, r8, r2, lsl #30
    a0d0:	1802dc00 	stmdane	r2, {sl, fp, ip, lr, pc}
    a0d4:	00000125 	andeq	r0, r0, r5, lsr #2
    a0d8:	00028405 	andeq	r8, r2, r5, lsl #8
    a0dc:	e0000006 	and	r0, r0, r6
    a0e0:	010a1802 	tsteq	sl, r2, lsl #16
    a0e4:	85050000 	strhi	r0, [r5, #-0]
    a0e8:	00085b02 	andeq	r5, r8, r2, lsl #22
    a0ec:	0002ec00 	andeq	lr, r2, r0, lsl #24
    a0f0:	040b040e 	streq	r0, [fp], #-1038	; 0xfffffbf2
    a0f4:	25140000 	ldrcs	r0, [r4, #-0]
    a0f8:	8a000000 	bhi	a100 <__bss_end__+0x100>
    a0fc:	15000005 	strne	r0, [r0, #-5]
    a100:	00000429 	andeq	r0, r0, r9, lsr #8
    a104:	00010a15 	andeq	r0, r1, r5, lsl sl
    a108:	058a1500 	streq	r1, [sl, #1280]	; 0x500
    a10c:	25150000 	ldrcs	r0, [r5, #-0]
    a110:	00000000 	andeq	r0, r0, r0
    a114:	0119040e 	tsteq	r9, lr, lsl #8
    a118:	040e0000 	streq	r0, [lr], #-0
    a11c:	0000056c 	andeq	r0, r0, ip, ror #10
    a120:	00008614 	andeq	r8, r0, r4, lsl r6
    a124:	0005b400 	andeq	fp, r5, r0, lsl #8
    a128:	04291500 	strteq	r1, [r9], #-1280	; 0xfffffb00
    a12c:	0a150000 	beq	54a134 <__bss_end__+0x540134>
    a130:	15000001 	strne	r0, [r0, #-1]
    a134:	00000086 	andeq	r0, r0, r6, lsl #1
    a138:	00002515 	andeq	r2, r0, r5, lsl r5
    a13c:	040e0000 	streq	r0, [lr], #-0
    a140:	00000596 	muleq	r0, r6, r5
    a144:	00002514 	andeq	r2, r0, r4, lsl r5
    a148:	0005ce00 	andeq	ip, r5, r0, lsl #28
    a14c:	04291500 	strteq	r1, [r9], #-1280	; 0xfffffb00
    a150:	0a150000 	beq	54a158 <__bss_end__+0x540158>
    a154:	00000001 	andeq	r0, r0, r1
    a158:	05ba040e 	ldreq	r0, [sl, #1038]!	; 0x40e
    a15c:	54090000 	strpl	r0, [r9], #-0
    a160:	e4000000 	str	r0, [r0], #-0
    a164:	0a000005 	beq	a180 <__bss_end__+0x180>
    a168:	000000cc 	andeq	r0, r0, ip, asr #1
    a16c:	54090002 	strpl	r0, [r9], #-2
    a170:	f4000000 	vst4.8	{d0-d3}, [r0], r0
    a174:	0a000005 	beq	a190 <__bss_end__+0x190>
    a178:	000000cc 	andeq	r0, r0, ip, asr #1
    a17c:	ab060000 	blge	18a184 <__bss_end__+0x180184>
    a180:	05000003 	streq	r0, [r0, #-3]
    a184:	02e1011d 	rsceq	r0, r1, #1073741831	; 0x40000007
    a188:	c2190000 	andsgt	r0, r9, #0
    a18c:	0c000004 	stceq	0, cr0, [r0], {4}
    a190:	35012105 	strcc	r2, [r1, #-261]	; 0xfffffefb
    a194:	17000006 	strne	r0, [r0, -r6]
    a198:	000003d3 	ldrdeq	r0, [r0], -r3
    a19c:	35012305 	strcc	r2, [r1, #-773]	; 0xfffffcfb
    a1a0:	00000006 	andeq	r0, r0, r6
    a1a4:	00022917 	andeq	r2, r2, r7, lsl r9
    a1a8:	01240500 			; <UNDEFINED> instruction: 0x01240500
    a1ac:	00000025 	andeq	r0, r0, r5, lsr #32
    a1b0:	03a51704 			; <UNDEFINED> instruction: 0x03a51704
    a1b4:	25050000 	strcs	r0, [r5, #-0]
    a1b8:	00063b01 	andeq	r3, r6, r1, lsl #22
    a1bc:	0e000800 	cdpeq	8, 0, cr0, cr0, cr0, {0}
    a1c0:	00060004 	andeq	r0, r6, r4
    a1c4:	f4040e00 			; <UNDEFINED> instruction: 0xf4040e00
    a1c8:	19000005 	stmdbne	r0, {r0, r2}
    a1cc:	0000002f 	andeq	r0, r0, pc, lsr #32
    a1d0:	013d050e 	teqeq	sp, lr, lsl #10
    a1d4:	00000676 	andeq	r0, r0, r6, ror r6
    a1d8:	00042217 	andeq	r2, r4, r7, lsl r2
    a1dc:	013e0500 	teqeq	lr, r0, lsl #10
    a1e0:	00000676 	andeq	r0, r0, r6, ror r6
    a1e4:	04561700 	ldrbeq	r1, [r6], #-1792	; 0xfffff900
    a1e8:	3f050000 	svccc	0x00050000
    a1ec:	00067601 	andeq	r7, r6, r1, lsl #12
    a1f0:	72170600 	andsvc	r0, r7, #0, 12
    a1f4:	05000004 	streq	r0, [r0, #-4]
    a1f8:	005b0140 	subseq	r0, fp, r0, asr #2
    a1fc:	000c0000 	andeq	r0, ip, r0
    a200:	00005b09 	andeq	r5, r0, r9, lsl #22
    a204:	00068600 	andeq	r8, r6, r0, lsl #12
    a208:	00cc0a00 	sbceq	r0, ip, r0, lsl #20
    a20c:	00020000 	andeq	r0, r2, r0
    a210:	5705d01a 	smladpl	r5, sl, r0, sp
    a214:	00078702 	andeq	r8, r7, r2, lsl #14
    a218:	04a61700 	strteq	r1, [r6], #1792	; 0x700
    a21c:	59050000 	stmdbpl	r5, {}	; <UNPREDICTABLE>
    a220:	00002c02 	andeq	r2, r0, r2, lsl #24
    a224:	5c170000 	ldcpl	0, cr0, [r7], {-0}
    a228:	05000004 	streq	r0, [r0, #-4]
    a22c:	010c025a 	tsteq	ip, sl, asr r2
    a230:	17040000 	strne	r0, [r4, -r0]
    a234:	00000258 	andeq	r0, r0, r8, asr r2
    a238:	87025b05 	strhi	r5, [r2, -r5, lsl #22]
    a23c:	08000007 	stmdaeq	r0, {r0, r1, r2}
    a240:	00050617 	andeq	r0, r5, r7, lsl r6
    a244:	025c0500 	subseq	r0, ip, #0, 10
    a248:	00000192 	muleq	r0, r2, r1
    a24c:	01c61724 	biceq	r1, r6, r4, lsr #14
    a250:	5d050000 	stcpl	0, cr0, [r5, #-0]
    a254:	00002502 	andeq	r2, r0, r2, lsl #10
    a258:	ce174800 	cdpgt	8, 1, cr4, cr7, cr0, {0}
    a25c:	05000003 	streq	r0, [r0, #-3]
    a260:	0069025e 	rsbeq	r0, r9, lr, asr r2
    a264:	17500000 	ldrbne	r0, [r0, -r0]
    a268:	0000051c 	andeq	r0, r0, ip, lsl r5
    a26c:	41025f05 	tstmi	r2, r5, lsl #30
    a270:	58000006 	stmdapl	r0, {r1, r2}
    a274:	0003d917 	andeq	sp, r3, r7, lsl r9
    a278:	02600500 	rsbeq	r0, r0, #0, 10
    a27c:	000000f4 	strdeq	r0, [r0], -r4
    a280:	05211768 	streq	r1, [r1, #-1896]!	; 0xfffff898
    a284:	61050000 	mrsvs	r0, (UNDEF: 5)
    a288:	0000f402 	andeq	pc, r0, r2, lsl #8
    a28c:	e1177000 	tst	r7, r0
    a290:	05000002 	streq	r0, [r0, #-2]
    a294:	00f40262 	rscseq	r0, r4, r2, ror #4
    a298:	17780000 	ldrbne	r0, [r8, -r0]!
    a29c:	000004d1 	ldrdeq	r0, [r0], -r1
    a2a0:	97026305 	strls	r6, [r2, -r5, lsl #6]
    a2a4:	80000007 	andhi	r0, r0, r7
    a2a8:	00024c17 	andeq	r4, r2, r7, lsl ip
    a2ac:	02640500 	rsbeq	r0, r4, #0, 10
    a2b0:	000007a7 	andeq	r0, r0, r7, lsr #15
    a2b4:	047f1788 	ldrbteq	r1, [pc], #-1928	; a2bc <__bss_end__+0x2bc>
    a2b8:	65050000 	strvs	r0, [r5, #-0]
    a2bc:	00002502 	andeq	r2, r0, r2, lsl #10
    a2c0:	8c17a000 	ldchi	0, cr10, [r7], {-0}
    a2c4:	05000001 	streq	r0, [r0, #-1]
    a2c8:	00f40266 	rscseq	r0, r4, r6, ror #4
    a2cc:	17a40000 	strne	r0, [r4, r0]!
    a2d0:	0000009d 	muleq	r0, sp, r0
    a2d4:	f4026705 	vst1.8	{d6}, [r2], r5
    a2d8:	ac000000 	stcge	0, cr0, [r0], {-0}
    a2dc:	00017b17 	andeq	r7, r1, r7, lsl fp
    a2e0:	02680500 	rsbeq	r0, r8, #0, 10
    a2e4:	000000f4 	strdeq	r0, [r0], -r4
    a2e8:	004a17b4 	strheq	r1, [sl], #-116	; 0xffffff8c
    a2ec:	69050000 	stmdbvs	r5, {}	; <UNPREDICTABLE>
    a2f0:	0000f402 	andeq	pc, r0, r2, lsl #8
    a2f4:	5917bc00 	ldmdbpl	r7, {sl, fp, ip, sp, pc}
    a2f8:	05000000 	streq	r0, [r0, #-0]
    a2fc:	00f4026a 	rscseq	r0, r4, sl, ror #4
    a300:	17c40000 	strbne	r0, [r4, r0]
    a304:	00000381 	andeq	r0, r0, r1, lsl #7
    a308:	25026b05 	strcs	r6, [r2, #-2821]	; 0xfffff4fb
    a30c:	cc000000 	stcgt	0, cr0, [r0], {-0}
    a310:	01120900 	tsteq	r2, r0, lsl #18
    a314:	07970000 	ldreq	r0, [r7, r0]
    a318:	cc0a0000 	stcgt	0, cr0, [sl], {-0}
    a31c:	19000000 	stmdbne	r0, {}	; <UNPREDICTABLE>
    a320:	01120900 	tsteq	r2, r0, lsl #18
    a324:	07a70000 	streq	r0, [r7, r0]!
    a328:	cc0a0000 	stcgt	0, cr0, [sl], {-0}
    a32c:	07000000 	streq	r0, [r0, -r0]
    a330:	01120900 	tsteq	r2, r0, lsl #18
    a334:	07b70000 	ldreq	r0, [r7, r0]!
    a338:	cc0a0000 	stcgt	0, cr0, [sl], {-0}
    a33c:	17000000 	strne	r0, [r0, -r0]
    a340:	05f01a00 	ldrbeq	r1, [r0, #2560]!	; 0xa00
    a344:	07db0270 			; <UNDEFINED> instruction: 0x07db0270
    a348:	ad170000 	ldcge	0, cr0, [r7, #-0]
    a34c:	05000002 	streq	r0, [r0, #-2]
    a350:	07db0273 			; <UNDEFINED> instruction: 0x07db0273
    a354:	17000000 	strne	r0, [r0, -r0]
    a358:	000004c8 	andeq	r0, r0, r8, asr #9
    a35c:	eb027405 	bl	a7378 <__bss_end__+0x9d378>
    a360:	78000007 	stmdavc	r0, {r0, r1, r2}
    a364:	02db0900 	sbcseq	r0, fp, #0, 18
    a368:	07eb0000 	strbeq	r0, [fp, r0]!
    a36c:	cc0a0000 	stcgt	0, cr0, [sl], {-0}
    a370:	1d000000 	stcne	0, cr0, [r0, #-0]
    a374:	002c0900 	eoreq	r0, ip, r0, lsl #18
    a378:	07fb0000 	ldrbeq	r0, [fp, r0]!
    a37c:	cc0a0000 	stcgt	0, cr0, [sl], {-0}
    a380:	1d000000 	stcne	0, cr0, [r0, #-0]
    a384:	05f01b00 	ldrbeq	r1, [r0, #2816]!	; 0xb00
    a388:	081d0255 	ldmdaeq	sp, {r0, r2, r4, r6, r9}
    a38c:	1b1c0000 	blne	70a394 <__bss_end__+0x700394>
    a390:	05000004 	streq	r0, [r0, #-4]
    a394:	0686026c 	streq	r0, [r6], ip, ror #4
    a398:	f31c0000 	vhadd.u16	d0, d12, d0
    a39c:	05000004 	streq	r0, [r0, #-4]
    a3a0:	07b70275 			; <UNDEFINED> instruction: 0x07b70275
    a3a4:	09000000 	stmdbeq	r0, {}	; <UNPREDICTABLE>
    a3a8:	00000112 	andeq	r0, r0, r2, lsl r1
    a3ac:	0000082d 	andeq	r0, r0, sp, lsr #16
    a3b0:	0000cc0a 	andeq	ip, r0, sl, lsl #24
    a3b4:	1d001800 	stcne	8, cr1, [r0, #-0]
    a3b8:	00000838 	andeq	r0, r0, r8, lsr r8
    a3bc:	00042915 	andeq	r2, r4, r5, lsl r9
    a3c0:	040e0000 	streq	r0, [lr], #-0
    a3c4:	0000082d 	andeq	r0, r0, sp, lsr #16
    a3c8:	017c040e 	cmneq	ip, lr, lsl #8
    a3cc:	4f1d0000 	svcmi	0x001d0000
    a3d0:	15000008 	strne	r0, [r0, #-8]
    a3d4:	00000025 	andeq	r0, r0, r5, lsr #32
    a3d8:	55040e00 	strpl	r0, [r4, #-3584]	; 0xfffff200
    a3dc:	0e000008 	cdpeq	0, 0, cr0, cr0, cr8, {0}
    a3e0:	00084404 	andeq	r4, r8, r4, lsl #8
    a3e4:	05f40900 	ldrbeq	r0, [r4, #2304]!	; 0x900
    a3e8:	086b0000 	stmdaeq	fp!, {}^	; <UNPREDICTABLE>
    a3ec:	cc0a0000 	stcgt	0, cr0, [sl], {-0}
    a3f0:	02000000 	andeq	r0, r0, #0
    a3f4:	04931e00 	ldreq	r1, [r3], #3584	; 0xe00
    a3f8:	fd050000 	stc2	0, cr0, [r5, #-0]
    a3fc:	00042902 	andeq	r2, r4, r2, lsl #18
    a400:	048c1e00 	streq	r1, [ip], #3584	; 0xe00
    a404:	fe050000 	cdp2	0, 0, cr0, cr5, cr0, {0}
    a408:	00042f02 	andeq	r2, r4, r2, lsl #30
    a40c:	00251400 	eoreq	r1, r5, r0, lsl #8
    a410:	08920000 	ldmeq	r2, {}	; <UNPREDICTABLE>
    a414:	25150000 	ldrcs	r0, [r5, #-0]
    a418:	00000000 	andeq	r0, r0, r0
    a41c:	0001df1f 	andeq	sp, r1, pc, lsl pc
    a420:	9d1d0600 	ldcls	6, cr0, [sp, #-0]
    a424:	0e000008 	cdpeq	0, 0, cr0, cr0, cr8, {0}
    a428:	00088304 	andeq	r8, r8, r4, lsl #6
    a42c:	00251400 	eoreq	r1, r5, r0, lsl #8
    a430:	08b20000 	ldmeq	r2!, {}	; <UNPREDICTABLE>
    a434:	8a150000 	bhi	54a43c <__bss_end__+0x54043c>
    a438:	00000005 	andeq	r0, r0, r5
    a43c:	00076d1f 	andeq	r6, r7, pc, lsl sp
    a440:	bd220600 	stclt	6, cr0, [r2, #-0]
    a444:	0e000008 	cdpeq	0, 0, cr0, cr0, cr8, {0}
    a448:	0008a304 	andeq	sl, r8, r4, lsl #6
    a44c:	54012000 	strpl	r2, [r1], #-0
    a450:	07000000 	streq	r0, [r0, -r0]
    a454:	0009000c 	andeq	r0, r9, ip
    a458:	091c2100 	ldmdbeq	ip, {r8, sp}
    a45c:	21000000 	mrscs	r0, (UNDEF: 0)
    a460:	00000a95 	muleq	r0, r5, sl
    a464:	0ad02101 	beq	ff412870 <__bss_end__+0xff408870>
    a468:	21040000 	mrscs	r0, (UNDEF: 4)
    a46c:	00000931 	andeq	r0, r0, r1, lsr r9
    a470:	09bd2105 	ldmibeq	sp!, {r0, r2, r8, sp}
    a474:	21060000 	mrscs	r0, (UNDEF: 6)
    a478:	00000adf 	ldrdeq	r0, [r0], -pc	; <UNPREDICTABLE>
    a47c:	0aee2107 	beq	ffb928a0 <__bss_end__+0xffb888a0>
    a480:	21030000 	mrscs	r0, (UNDEF: 3)
    a484:	00000afd 	strdeq	r0, [r0], -sp
    a488:	79050002 	stmdbvc	r5, {r1}
    a48c:	0700000b 	streq	r0, [r0, -fp]
    a490:	0008c315 	andeq	ip, r8, r5, lsl r3
    a494:	0b4a2200 	bleq	1292c9c <__bss_end__+0x1288c9c>
    a498:	1d010000 	stcne	0, cr0, [r1, #-0]
    a49c:	00000033 	andeq	r0, r0, r3, lsr r0
    a4a0:	2020001c 	eorcs	r0, r0, ip, lsl r0
    a4a4:	000b8522 	andeq	r8, fp, r2, lsr #10
    a4a8:	331e0100 	tstcc	lr, #0, 2
    a4ac:	28000000 	stmdacs	r0, {}	; <UNPREDICTABLE>
    a4b0:	22202000 	eorcs	r2, r0, #0
    a4b4:	00000b54 	andeq	r0, r0, r4, asr fp
    a4b8:	00331f01 	eorseq	r1, r3, r1, lsl #30
    a4bc:	00340000 	eorseq	r0, r4, r0
    a4c0:	25232020 	strcs	r2, [r3, #-32]!	; 0xffffffe0
    a4c4:	0100000b 	tsteq	r0, fp
    a4c8:	00002556 	andeq	r2, r0, r6, asr r5
    a4cc:	00943c00 	addseq	r3, r4, r0, lsl #24
    a4d0:	00003400 	andeq	r3, r0, r0, lsl #8
    a4d4:	989c0100 	ldmls	ip, {r8}
    a4d8:	24000009 	strcs	r0, [r0], #-9
    a4dc:	006e6970 	rsbeq	r6, lr, r0, ror r9
    a4e0:	002c5601 	eoreq	r5, ip, r1, lsl #12
    a4e4:	13c00000 	bicne	r0, r0, #0
    a4e8:	19250000 	stmdbne	r5!, {}	; <UNPREDICTABLE>
    a4ec:	0100000b 	tsteq	r0, fp
    a4f0:	00002c59 	andeq	r2, r0, r9, asr ip
    a4f4:	0013fa00 	andseq	pc, r3, r0, lsl #20
    a4f8:	666f2600 	strbtvs	r2, [pc], -r0, lsl #12
    a4fc:	5a010066 	bpl	4a69c <__bss_end__+0x4069c>
    a500:	0000002c 	andeq	r0, r0, ip, lsr #32
    a504:	00001438 	andeq	r1, r0, r8, lsr r4
    a508:	00945827 	addseq	r5, r4, r7, lsr #16
    a50c:	000b5d00 	andeq	r5, fp, r0, lsl #26
    a510:	50012800 	andpl	r2, r1, r0, lsl #16
    a514:	5001f30b 	andpl	pc, r1, fp, lsl #6
    a518:	b4232535 	strtlt	r2, [r3], #-1333	; 0xfffffacb
    a51c:	02818080 	addeq	r8, r1, #128	; 0x80
    a520:	3f290000 	svccc	0x00290000
    a524:	0100000b 	tsteq	r0, fp
    a528:	0094204f 	addseq	r2, r4, pc, asr #32
    a52c:	00001c00 	andeq	r1, r0, r0, lsl #24
    a530:	e89c0100 	ldm	ip, {r8}
    a534:	24000009 	strcs	r0, [r0], #-9
    a538:	006e6970 	rsbeq	r6, lr, r0, ror r9
    a53c:	002c4f01 	eoreq	r4, ip, r1, lsl #30
    a540:	144b0000 	strbne	r0, [fp], #-0
    a544:	76240000 	strtvc	r0, [r4], -r0
    a548:	2c4f0100 	stfcse	f0, [pc], {-0}
    a54c:	85000000 	strhi	r0, [r0, #-0]
    a550:	2a000014 	bcs	a5a8 <__bss_end__+0x5a8>
    a554:	00009430 	andeq	r9, r0, r0, lsr r4
    a558:	00000a23 	andeq	r0, r0, r3, lsr #20
    a55c:	000009de 	ldrdeq	r0, [r0], -lr
    a560:	03500128 	cmpeq	r0, #40, 2
    a564:	005001f3 	ldrsheq	r0, [r0], #-19	; 0xffffffed
    a568:	0094382b 	addseq	r3, r4, fp, lsr #16
    a56c:	000a6400 	andeq	r6, sl, r0, lsl #8
    a570:	5e290000 	cdppl	0, 2, cr0, cr9, cr0, {0}
    a574:	0100000b 	tsteq	r0, fp
    a578:	0094104a 	addseq	r1, r4, sl, asr #32
    a57c:	00001000 	andeq	r1, r0, r0
    a580:	239c0100 	orrscs	r0, ip, #0, 2
    a584:	2400000a 	strcs	r0, [r0], #-10
    a588:	006e6970 	rsbeq	r6, lr, r0, ror r9
    a58c:	002c4a01 	eoreq	r4, ip, r1, lsl #20
    a590:	14bf0000 	ldrtne	r0, [pc], #0	; a598 <__bss_end__+0x598>
    a594:	1c270000 	stcne	0, cr0, [r7], #-0
    a598:	e0000094 	mul	r0, r4, r0
    a59c:	2800000a 	stmdacs	r0, {r1, r3}
    a5a0:	f3035001 	vhadd.u8	d5, d3, d1
    a5a4:	01285001 			; <UNDEFINED> instruction: 0x01285001
    a5a8:	00300151 	eorseq	r0, r0, r1, asr r1
    a5ac:	0b0c2900 	bleq	3149b4 <__bss_end__+0x30a9b4>
    a5b0:	43010000 	movwmi	r0, #4096	; 0x1000
    a5b4:	000093ec 	andeq	r9, r0, ip, ror #7
    a5b8:	00000024 	andeq	r0, r0, r4, lsr #32
    a5bc:	0a649c01 	beq	19315c8 <__bss_end__+0x19275c8>
    a5c0:	70240000 	eorvc	r0, r4, r0
    a5c4:	01006e69 	tsteq	r0, r9, ror #28
    a5c8:	00002c43 	andeq	r2, r0, r3, asr #24
    a5cc:	0014e000 	andseq	lr, r4, r0
    a5d0:	94082700 	strls	r2, [r8], #-1792	; 0xfffff900
    a5d4:	0b680000 	bleq	1a0a5dc <__bss_end__+0x1a005dc>
    a5d8:	01280000 			; <UNDEFINED> instruction: 0x01280000
    a5dc:	280c0550 	stmdacs	ip, {r4, r6, r8, sl}
    a5e0:	28202000 	stmdacs	r0!, {sp}
    a5e4:	31055101 	tstcc	r5, r1, lsl #2
    a5e8:	245001f3 	ldrbcs	r0, [r0], #-499	; 0xfffffe0d
    a5ec:	6d290000 	stcvs	0, cr0, [r9, #-0]
    a5f0:	0100000b 	tsteq	r0, fp
    a5f4:	0093c83c 	addseq	ip, r3, ip, lsr r8
    a5f8:	00002400 	andeq	r2, r0, r0, lsl #8
    a5fc:	a59c0100 	ldrge	r0, [ip, #256]	; 0x100
    a600:	2400000a 	strcs	r0, [r0], #-10
    a604:	006e6970 	rsbeq	r6, lr, r0, ror r9
    a608:	002c3c01 	eoreq	r3, ip, r1, lsl #24
    a60c:	15010000 	strne	r0, [r1, #-0]
    a610:	e4270000 	strt	r0, [r7], #-0
    a614:	68000093 	stmdavs	r0, {r0, r1, r4, r7}
    a618:	2800000b 	stmdacs	r0, {r0, r1, r3}
    a61c:	0c055001 	stceq	0, cr5, [r5], {1}
    a620:	2020001c 	eorcs	r0, r0, ip, lsl r0
    a624:	05510128 	ldrbeq	r0, [r1, #-296]	; 0xfffffed8
    a628:	5001f331 	andpl	pc, r1, r1, lsr r3	; <UNPREDICTABLE>
    a62c:	29000024 	stmdbcs	r0, {r2, r5}
    a630:	00000b2f 	andeq	r0, r0, pc, lsr #22
    a634:	93b83701 			; <UNDEFINED> instruction: 0x93b83701
    a638:	00100000 	andseq	r0, r0, r0
    a63c:	9c010000 	stcls	0, cr0, [r1], {-0}
    a640:	00000ae0 	andeq	r0, r0, r0, ror #21
    a644:	6e697024 	cdpvs	0, 6, cr7, cr9, cr4, {1}
    a648:	2c370100 	ldfcss	f0, [r7], #-0
    a64c:	22000000 	andcs	r0, r0, #0
    a650:	27000015 	smladcs	r0, r5, r0, r0
    a654:	000093c4 	andeq	r9, r0, r4, asr #7
    a658:	00000ae0 	andeq	r0, r0, r0, ror #21
    a65c:	03500128 	cmpeq	r0, #40, 2
    a660:	285001f3 	ldmdacs	r0, {r0, r1, r4, r5, r6, r7, r8}^
    a664:	31015101 	tstcc	r1, r1, lsl #2
    a668:	d5290000 	strle	r0, [r9, #-0]!
    a66c:	01000009 	tsteq	r0, r9
    a670:	00935028 	addseq	r5, r3, r8, lsr #32
    a674:	00006800 	andeq	r6, r0, r0, lsl #16
    a678:	5d9c0100 	ldfpls	f0, [ip]
    a67c:	2400000b 	strcs	r0, [r0], #-11
    a680:	006e6970 	rsbeq	r6, lr, r0, ror r9
    a684:	002c2801 	eoreq	r2, ip, r1, lsl #16
    a688:	15430000 	strbne	r0, [r3, #-0]
    a68c:	e02c0000 	eor	r0, ip, r0
    a690:	01000004 	tsteq	r0, r4
    a694:	00090028 	andeq	r0, r9, r8, lsr #32
    a698:	00156400 	andseq	r6, r5, r0, lsl #8
    a69c:	666f2d00 	strbtvs	r2, [pc], -r0, lsl #26
    a6a0:	2d010066 	stccs	0, cr0, [r1, #-408]	; 0xfffffe68
    a6a4:	0000002c 	andeq	r0, r0, ip, lsr #32
    a6a8:	672d5401 	strvs	r5, [sp, -r1, lsl #8]!
    a6ac:	2c2f0100 	stfcss	f0, [pc], #-0	; a6b4 <__bss_end__+0x6b4>
    a6b0:	01000000 	mrseq	r0, (UNDEF: 0)
    a6b4:	00762656 	rsbseq	r2, r6, r6, asr r6
    a6b8:	002c3101 	eoreq	r3, ip, r1, lsl #2
    a6bc:	15850000 	strne	r0, [r5]
    a6c0:	9c2a0000 	stcls	0, cr0, [sl], #-0
    a6c4:	5d000093 	stcpl	0, cr0, [r0, #-588]	; 0xfffffdb4
    a6c8:	4c00000b 	stcmi	0, cr0, [r0], {11}
    a6cc:	2800000b 	stmdacs	r0, {r0, r1, r3}
    a6d0:	76025001 	strvc	r5, [r2], -r1
    a6d4:	b0270000 	eorlt	r0, r7, r0
    a6d8:	68000093 	stmdavs	r0, {r0, r1, r4, r7}
    a6dc:	2800000b 	stmdacs	r0, {r0, r1, r3}
    a6e0:	76025001 	strvc	r5, [r2], -r1
    a6e4:	2e000000 	cdpcs	0, 0, cr0, cr0, cr0, {0}
    a6e8:	000008f0 	strdeq	r0, [r0], -r0	; <UNPREDICTABLE>
    a6ec:	000008f0 	strdeq	r0, [r0], -r0	; <UNPREDICTABLE>
    a6f0:	4a2ea706 	bmi	bb4310 <__bss_end__+0xbaa310>
    a6f4:	4a000008 	bmi	a71c <__bss_end__+0x71c>
    a6f8:	06000008 	streq	r0, [r0], -r8
    a6fc:	0c24009b 	stceq	0, cr0, [r4], #-620	; 0xfffffd94
    a700:	00040000 	andeq	r0, r4, r0
    a704:	000021ac 	andeq	r2, r0, ip, lsr #3
    a708:	0a210104 	beq	84ab20 <__bss_end__+0x840b20>
    a70c:	8f0c0000 	svchi	0x000c0000
    a710:	5800000b 	stmdapl	r0, {r0, r1, r3}
    a714:	70000009 	andvc	r0, r0, r9
    a718:	94000094 	strls	r0, [r0], #-148	; 0xffffff6c
    a71c:	13000001 	movwne	r0, #1
    a720:	0200001b 	andeq	r0, r0, #27
    a724:	6e690504 	cdpvs	5, 6, cr0, cr9, cr4, {0}
    a728:	04030074 	streq	r0, [r3], #-116	; 0xffffff8c
    a72c:	00007407 	andeq	r7, r0, r7, lsl #8
    a730:	06010300 	streq	r0, [r1], -r0, lsl #6
    a734:	000002f1 	strdeq	r0, [r0], -r1
    a738:	8a050203 	bhi	14af4c <__bss_end__+0x140f4c>
    a73c:	03000003 	movweq	r0, #3
    a740:	00ba0504 	adcseq	r0, sl, r4, lsl #10
    a744:	08030000 	stmdaeq	r3, {}	; <UNPREDICTABLE>
    a748:	0000b505 	andeq	fp, r0, r5, lsl #10
    a74c:	08010300 	stmdaeq	r1, {r8, r9}
    a750:	000002ef 	andeq	r0, r0, pc, ror #5
    a754:	30070203 	andcc	r0, r7, r3, lsl #4
    a758:	03000002 	movweq	r0, #2
    a75c:	006f0704 	rsbeq	r0, pc, r4, lsl #14
    a760:	08030000 	stmdaeq	r3, {}	; <UNPREDICTABLE>
    a764:	00006a07 	andeq	r6, r0, r7, lsl #20
    a768:	09ec0400 	stmibeq	ip!, {sl}^
    a76c:	07020000 	streq	r0, [r2, -r0]
    a770:	00000025 	andeq	r0, r0, r5, lsr #32
    a774:	0002d004 	andeq	sp, r2, r4
    a778:	412c0300 			; <UNDEFINED> instruction: 0x412c0300
    a77c:	04000000 	streq	r0, [r0], #-0
    a780:	00000445 	andeq	r0, r0, r5, asr #8
    a784:	00417203 	subeq	r7, r1, r3, lsl #4
    a788:	7b050000 	blvc	14a790 <__bss_end__+0x140790>
    a78c:	04000002 	streq	r0, [r0], #-2
    a790:	002c0165 	eoreq	r0, ip, r5, ror #2
    a794:	04060000 	streq	r0, [r6], #-0
    a798:	00b7a603 	adcseq	sl, r7, r3, lsl #12
    a79c:	6d070000 	stcvs	0, cr0, [r7, #-0]
    a7a0:	03000002 	movweq	r0, #2
    a7a4:	00008ca8 	andeq	r8, r0, r8, lsr #25
    a7a8:	01f00700 	mvnseq	r0, r0, lsl #14
    a7ac:	a9030000 	stmdbge	r3, {}	; <UNPREDICTABLE>
    a7b0:	000000b7 	strheq	r0, [r0], -r7
    a7b4:	004f0800 	subeq	r0, pc, r0, lsl #16
    a7b8:	00c70000 	sbceq	r0, r7, r0
    a7bc:	c7090000 	strgt	r0, [r9, -r0]
    a7c0:	03000000 	movweq	r0, #0
    a7c4:	07040300 	streq	r0, [r4, -r0, lsl #6]
    a7c8:	000009cc 	andeq	r0, r0, ip, asr #19
    a7cc:	a303080a 	movwge	r0, #14346	; 0x380a
    a7d0:	000000ef 	andeq	r0, r0, pc, ror #1
    a7d4:	0004280b 	andeq	r2, r4, fp, lsl #16
    a7d8:	25a50300 	strcs	r0, [r5, #768]!	; 0x300
    a7dc:	00000000 	andeq	r0, r0, r0
    a7e0:	0004370b 	andeq	r3, r4, fp, lsl #14
    a7e4:	98aa0300 	stmials	sl!, {r8, r9}
    a7e8:	04000000 	streq	r0, [r0], #-0
    a7ec:	03b20400 			; <UNDEFINED> instruction: 0x03b20400
    a7f0:	ab030000 	blge	ca7f8 <__bss_end__+0xc07f8>
    a7f4:	000000ce 	andeq	r0, r0, lr, asr #1
    a7f8:	0001ad04 	andeq	sl, r1, r4, lsl #26
    a7fc:	6baf0300 	blvs	febcb404 <__bss_end__+0xfebc1404>
    a800:	0c000000 	stceq	0, cr0, [r0], {-0}
    a804:	0d040d04 	stceq	13, cr0, [r4, #-16]
    a808:	03000001 	movweq	r0, #1
    a80c:	02f80801 	rscseq	r0, r8, #65536	; 0x10000
    a810:	0d0e0000 	stceq	0, cr0, [lr, #-0]
    a814:	04000001 	streq	r0, [r0], #-1
    a818:	00000477 	andeq	r0, r0, r7, ror r4
    a81c:	005d1605 	subseq	r1, sp, r5, lsl #12
    a820:	be0f0000 	cdplt	0, 0, cr0, cr15, cr0, {0}
    a824:	18000001 	stmdane	r0, {r0}
    a828:	01772d05 	cmneq	r7, r5, lsl #26
    a82c:	d30b0000 	movwle	r0, #45056	; 0xb000
    a830:	05000003 	streq	r0, [r0, #-3]
    a834:	0001772f 	andeq	r7, r1, pc, lsr #14
    a838:	5f100000 	svcpl	0x00100000
    a83c:	3005006b 	andcc	r0, r5, fp, rrx
    a840:	00000025 	andeq	r0, r0, r5, lsr #32
    a844:	04130b04 	ldreq	r0, [r3], #-2820	; 0xfffff4fc
    a848:	30050000 	andcc	r0, r5, r0
    a84c:	00000025 	andeq	r0, r0, r5, lsr #32
    a850:	01a70b08 			; <UNDEFINED> instruction: 0x01a70b08
    a854:	30050000 	andcc	r0, r5, r0
    a858:	00000025 	andeq	r0, r0, r5, lsr #32
    a85c:	04b30b0c 	ldrteq	r0, [r3], #2828	; 0xb0c
    a860:	30050000 	andcc	r0, r5, r0
    a864:	00000025 	andeq	r0, r0, r5, lsr #32
    a868:	785f1010 	ldmdavc	pc, {r4, ip}^	; <UNPREDICTABLE>
    a86c:	7d310500 	cfldr32vc	mvfx0, [r1, #-0]
    a870:	14000001 	strne	r0, [r0], #-1
    a874:	24040d00 	strcs	r0, [r4], #-3328	; 0xfffff300
    a878:	08000001 	stmdaeq	r0, {r0}
    a87c:	00000119 	andeq	r0, r0, r9, lsl r1
    a880:	0000018d 	andeq	r0, r0, sp, lsl #3
    a884:	0000c709 	andeq	ip, r0, r9, lsl #14
    a888:	0f000000 	svceq	0x00000000
    a88c:	000001eb 	andeq	r0, r0, fp, ror #3
    a890:	06350524 	ldrteq	r0, [r5], -r4, lsr #10
    a894:	0b000002 	bleq	a8a4 <__bss_end__+0x8a4>
    a898:	000000ac 	andeq	r0, r0, ip, lsr #1
    a89c:	00253705 	eoreq	r3, r5, r5, lsl #14
    a8a0:	0b000000 	bleq	a8a8 <__bss_end__+0x8a8>
    a8a4:	0000044d 	andeq	r0, r0, sp, asr #8
    a8a8:	00253805 	eoreq	r3, r5, r5, lsl #16
    a8ac:	0b040000 	bleq	10a8b4 <__bss_end__+0x1008b4>
    a8b0:	000000cf 	andeq	r0, r0, pc, asr #1
    a8b4:	00253905 	eoreq	r3, r5, r5, lsl #18
    a8b8:	0b080000 	bleq	20a8c0 <__bss_end__+0x2008c0>
    a8bc:	00000534 	andeq	r0, r0, r4, lsr r5
    a8c0:	00253a05 	eoreq	r3, r5, r5, lsl #20
    a8c4:	0b0c0000 	bleq	30a8cc <__bss_end__+0x3008cc>
    a8c8:	000002b4 			; <UNDEFINED> instruction: 0x000002b4
    a8cc:	00253b05 	eoreq	r3, r5, r5, lsl #22
    a8d0:	0b100000 	bleq	40a8d8 <__bss_end__+0x4008d8>
    a8d4:	00000296 	muleq	r0, r6, r2
    a8d8:	00253c05 	eoreq	r3, r5, r5, lsl #24
    a8dc:	0b140000 	bleq	50a8e4 <__bss_end__+0x5008e4>
    a8e0:	000004b8 			; <UNDEFINED> instruction: 0x000004b8
    a8e4:	00253d05 	eoreq	r3, r5, r5, lsl #26
    a8e8:	0b180000 	bleq	60a8f0 <__bss_end__+0x6008f0>
    a8ec:	00000394 	muleq	r0, r4, r3
    a8f0:	00253e05 	eoreq	r3, r5, r5, lsl #28
    a8f4:	0b1c0000 	bleq	70a8fc <__bss_end__+0x7008fc>
    a8f8:	000004fb 	strdeq	r0, [r0], -fp
    a8fc:	00253f05 	eoreq	r3, r5, r5, lsl #30
    a900:	00200000 	eoreq	r0, r0, r0
    a904:	00010f11 	andeq	r0, r1, r1, lsl pc
    a908:	05010800 	streq	r0, [r1, #-2048]	; 0xfffff800
    a90c:	00024648 	andeq	r4, r2, r8, asr #12
    a910:	019a0b00 	orrseq	r0, sl, r0, lsl #22
    a914:	49050000 	stmdbmi	r5, {}	; <UNPREDICTABLE>
    a918:	00000246 	andeq	r0, r0, r6, asr #4
    a91c:	00000b00 	andeq	r0, r0, r0, lsl #22
    a920:	4a050000 	bmi	14a928 <__bss_end__+0x140928>
    a924:	00000246 	andeq	r0, r0, r6, asr #4
    a928:	04691280 	strbteq	r1, [r9], #-640	; 0xfffffd80
    a92c:	4c050000 	stcmi	0, cr0, [r5], {-0}
    a930:	00000119 	andeq	r0, r0, r9, lsl r1
    a934:	34120100 	ldrcc	r0, [r2], #-256	; 0xffffff00
    a938:	05000001 	streq	r0, [r0, #-1]
    a93c:	0001194f 	andeq	r1, r1, pc, asr #18
    a940:	00010400 	andeq	r0, r1, r0, lsl #8
    a944:	00010508 	andeq	r0, r1, r8, lsl #10
    a948:	00025600 	andeq	r5, r2, r0, lsl #12
    a94c:	00c70900 	sbceq	r0, r7, r0, lsl #18
    a950:	001f0000 	andseq	r0, pc, r0
    a954:	0002bd11 	andeq	fp, r2, r1, lsl sp
    a958:	05019000 	streq	r9, [r1, #-0]
    a95c:	0002945b 	andeq	r9, r2, fp, asr r4
    a960:	03d30b00 	bicseq	r0, r3, #0, 22
    a964:	5c050000 	stcpl	0, cr0, [r5], {-0}
    a968:	00000294 	muleq	r0, r4, r2
    a96c:	03eb0b00 	mvneq	r0, #0, 22
    a970:	5d050000 	stcpl	0, cr0, [r5, #-0]
    a974:	00000025 	andeq	r0, r0, r5, lsr #32
    a978:	01a20b04 			; <UNDEFINED> instruction: 0x01a20b04
    a97c:	5f050000 	svcpl	0x00050000
    a980:	0000029a 	muleq	r0, sl, r2
    a984:	010f0b08 	tsteq	pc, r8, lsl #22
    a988:	60050000 	andvs	r0, r5, r0
    a98c:	00000206 	andeq	r0, r0, r6, lsl #4
    a990:	040d0088 	streq	r0, [sp], #-136	; 0xffffff78
    a994:	00000256 	andeq	r0, r0, r6, asr r2
    a998:	0002aa08 	andeq	sl, r2, r8, lsl #20
    a99c:	0002aa00 	andeq	sl, r2, r0, lsl #20
    a9a0:	00c70900 	sbceq	r0, r7, r0, lsl #18
    a9a4:	001f0000 	andseq	r0, pc, r0
    a9a8:	02b0040d 	adcseq	r0, r0, #218103808	; 0xd000000
    a9ac:	0f130000 	svceq	0x00130000
    a9b0:	0000039e 	muleq	r0, lr, r3
    a9b4:	d6730508 	ldrbtle	r0, [r3], -r8, lsl #10
    a9b8:	0b000002 	bleq	a9c8 <__bss_end__+0x9c8>
    a9bc:	000000c9 	andeq	r0, r0, r9, asr #1
    a9c0:	02d67405 	sbcseq	r7, r6, #83886080	; 0x5000000
    a9c4:	0b000000 	bleq	a9cc <__bss_end__+0x9cc>
    a9c8:	0000001b 	andeq	r0, r0, fp, lsl r0
    a9cc:	00257505 	eoreq	r7, r5, r5, lsl #10
    a9d0:	00040000 	andeq	r0, r4, r0
    a9d4:	004f040d 	subeq	r0, pc, sp, lsl #8
    a9d8:	bd0f0000 	stclt	0, cr0, [pc, #-0]	; a9e0 <__bss_end__+0x9e0>
    a9dc:	68000003 	stmdavs	r0, {r0, r1}
    a9e0:	0406b305 	streq	fp, [r6], #-773	; 0xfffffcfb
    a9e4:	5f100000 	svcpl	0x00100000
    a9e8:	b4050070 	strlt	r0, [r5], #-112	; 0xffffff90
    a9ec:	000002d6 	ldrdeq	r0, [r0], -r6
    a9f0:	725f1000 	subsvc	r1, pc, #0
    a9f4:	25b50500 	ldrcs	r0, [r5, #1280]!	; 0x500
    a9f8:	04000000 	streq	r0, [r0], #-0
    a9fc:	00775f10 	rsbseq	r5, r7, r0, lsl pc
    aa00:	0025b605 	eoreq	fp, r5, r5, lsl #12
    aa04:	0b080000 	bleq	20aa0c <__bss_end__+0x200a0c>
    aa08:	0000012d 	andeq	r0, r0, sp, lsr #2
    aa0c:	003ab705 	eorseq	fp, sl, r5, lsl #14
    aa10:	0b0c0000 	bleq	30aa18 <__bss_end__+0x300a18>
    aa14:	00000216 	andeq	r0, r0, r6, lsl r2
    aa18:	003ab805 	eorseq	fp, sl, r5, lsl #16
    aa1c:	100e0000 	andne	r0, lr, r0
    aa20:	0066625f 	rsbeq	r6, r6, pc, asr r2
    aa24:	02b1b905 	adcseq	fp, r1, #81920	; 0x14000
    aa28:	0b100000 	bleq	40aa30 <__bss_end__+0x400a30>
    aa2c:	00000089 	andeq	r0, r0, r9, lsl #1
    aa30:	0025ba05 	eoreq	fp, r5, r5, lsl #20
    aa34:	0b180000 	bleq	60aa3c <__bss_end__+0x600a3c>
    aa38:	0000011d 	andeq	r0, r0, sp, lsl r1
    aa3c:	0105c105 	tsteq	r5, r5, lsl #2
    aa40:	0b1c0000 	bleq	70aa48 <__bss_end__+0x700a48>
    aa44:	00000b29 	andeq	r0, r0, r9, lsr #22
    aa48:	0561c305 	strbeq	ip, [r1, #-773]!	; 0xfffffcfb
    aa4c:	0b200000 	bleq	80aa54 <__bss_end__+0x800a54>
    aa50:	0000061e 	andeq	r0, r0, lr, lsl r6
    aa54:	058bc505 	streq	ip, [fp, #1285]	; 0x505
    aa58:	0b240000 	bleq	90aa60 <__bss_end__+0x900a60>
    aa5c:	0000043f 	andeq	r0, r0, pc, lsr r4
    aa60:	05afc805 	streq	ip, [pc, #2053]!	; b26d <__bss_end__+0x126d>
    aa64:	0b280000 	bleq	a0aa6c <__bss_end__+0xa00a6c>
    aa68:	00000515 	andeq	r0, r0, r5, lsl r5
    aa6c:	05c9c905 	strbeq	ip, [r9, #2309]	; 0x905
    aa70:	102c0000 	eorne	r0, ip, r0
    aa74:	0062755f 	rsbeq	r7, r2, pc, asr r5
    aa78:	02b1cc05 	adcseq	ip, r1, #1280	; 0x500
    aa7c:	10300000 	eorsne	r0, r0, r0
    aa80:	0070755f 	rsbseq	r7, r0, pc, asr r5
    aa84:	02d6cd05 	sbcseq	ip, r6, #320	; 0x140
    aa88:	10380000 	eorsne	r0, r8, r0
    aa8c:	0072755f 	rsbseq	r7, r2, pc, asr r5
    aa90:	0025ce05 	eoreq	ip, r5, r5, lsl #28
    aa94:	0b3c0000 	bleq	f0aa9c <__bss_end__+0xf00a9c>
    aa98:	000000c3 	andeq	r0, r0, r3, asr #1
    aa9c:	05cfd105 	strbeq	sp, [pc, #261]	; aba9 <__bss_end__+0xba9>
    aaa0:	0b400000 	bleq	100aaa8 <__bss_end__+0x1000aa8>
    aaa4:	000004ed 	andeq	r0, r0, sp, ror #9
    aaa8:	05dfd205 	ldrbeq	sp, [pc, #517]	; acb5 <__bss_end__+0xcb5>
    aaac:	10430000 	subne	r0, r3, r0
    aab0:	00626c5f 	rsbeq	r6, r2, pc, asr ip
    aab4:	02b1d505 	adcseq	sp, r1, #20971520	; 0x1400000
    aab8:	0b440000 	bleq	110aac0 <__bss_end__+0x1100ac0>
    aabc:	0000014b 	andeq	r0, r0, fp, asr #2
    aac0:	0025d805 	eoreq	sp, r5, r5, lsl #16
    aac4:	0b4c0000 	bleq	130aacc <__bss_end__+0x1300acc>
    aac8:	0000015c 	andeq	r0, r0, ip, asr r1
    aacc:	0076d905 	rsbseq	sp, r6, r5, lsl #18
    aad0:	0b500000 	bleq	140aad8 <__bss_end__+0x1400ad8>
    aad4:	00000aca 	andeq	r0, r0, sl, asr #21
    aad8:	0424dc05 	strteq	sp, [r4], #-3077	; 0xfffff3fb
    aadc:	0b540000 	bleq	150aae4 <__bss_end__+0x1500ae4>
    aae0:	00000431 	andeq	r0, r0, r1, lsr r4
    aae4:	00fae005 	rscseq	lr, sl, r5
    aae8:	0b580000 	bleq	160aaf0 <__bss_end__+0x1600af0>
    aaec:	000003c5 	andeq	r0, r0, r5, asr #7
    aaf0:	00efe205 	rsceq	lr, pc, r5, lsl #4
    aaf4:	0b5c0000 	bleq	170aafc <__bss_end__+0x1700afc>
    aaf8:	0000028e 	andeq	r0, r0, lr, lsl #5
    aafc:	0025e305 	eoreq	lr, r5, r5, lsl #6
    ab00:	00640000 	rsbeq	r0, r4, r0
    ab04:	00002514 	andeq	r2, r0, r4, lsl r5
    ab08:	00042400 	andeq	r2, r4, r0, lsl #8
    ab0c:	04241500 	strteq	r1, [r4], #-1280	; 0xfffffb00
    ab10:	05150000 	ldreq	r0, [r5, #-0]
    ab14:	15000001 	strne	r0, [r0, #-1]
    ab18:	00000107 	andeq	r0, r0, r7, lsl #2
    ab1c:	00002515 	andeq	r2, r0, r5, lsl r5
    ab20:	040d0000 	streq	r0, [sp], #-0
    ab24:	0000042f 	andeq	r0, r0, pc, lsr #8
    ab28:	0004240e 	andeq	r2, r4, lr, lsl #8
    ab2c:	041b1600 	ldreq	r1, [fp], #-1536	; 0xfffffa00
    ab30:	04280000 	strteq	r0, [r8], #-0
    ab34:	61023805 	tstvs	r2, r5, lsl #16
    ab38:	17000005 	strne	r0, [r0, -r5]
    ab3c:	00000383 	andeq	r0, r0, r3, lsl #7
    ab40:	25023a05 	strcs	r3, [r2, #-2565]	; 0xfffff5fb
    ab44:	00000000 	andeq	r0, r0, r0
    ab48:	00013c17 	andeq	r3, r1, r7, lsl ip
    ab4c:	023f0500 	eorseq	r0, pc, #0, 10
    ab50:	00000636 	andeq	r0, r0, r6, lsr r6
    ab54:	02061704 	andeq	r1, r6, #4, 14	; 0x100000
    ab58:	3f050000 	svccc	0x00050000
    ab5c:	00063602 	andeq	r3, r6, r2, lsl #12
    ab60:	b6170800 	ldrlt	r0, [r7], -r0, lsl #16
    ab64:	05000001 	streq	r0, [r0, #-1]
    ab68:	0636023f 			; <UNDEFINED> instruction: 0x0636023f
    ab6c:	170c0000 	strne	r0, [ip, -r0]
    ab70:	000003e6 	andeq	r0, r0, r6, ror #7
    ab74:	25024105 	strcs	r4, [r2, #-261]	; 0xfffffefb
    ab78:	10000000 	andne	r0, r0, r0
    ab7c:	00003717 	andeq	r3, r0, r7, lsl r7
    ab80:	02420500 	subeq	r0, r2, #0, 10
    ab84:	00000818 	andeq	r0, r0, r8, lsl r8
    ab88:	0a831714 	beq	fe0d07e0 <__bss_end__+0xfe0c67e0>
    ab8c:	44050000 	strmi	r0, [r5], #-0
    ab90:	00002502 	andeq	r2, r0, r2, lsl #10
    ab94:	fe173000 	cdp2	0, 1, cr3, cr7, cr0, {0}
    ab98:	05000009 	streq	r0, [r0, #-9]
    ab9c:	05850245 	streq	r0, [r5, #581]	; 0x245
    aba0:	17340000 	ldrne	r0, [r4, -r0]!
    aba4:	000002c5 	andeq	r0, r0, r5, asr #5
    aba8:	25024705 	strcs	r4, [r2, #-1797]	; 0xfffff8fb
    abac:	38000000 	stmdacc	r0, {}	; <UNPREDICTABLE>
    abb0:	0003f017 	andeq	pc, r3, r7, lsl r0	; <UNPREDICTABLE>
    abb4:	02490500 	subeq	r0, r9, #0, 10
    abb8:	00000833 	andeq	r0, r0, r3, lsr r8
    abbc:	0265173c 	rsbeq	r1, r5, #60, 14	; 0xf00000
    abc0:	4c050000 	stcmi	0, cr0, [r5], {-0}
    abc4:	00017702 	andeq	r7, r1, r2, lsl #14
    abc8:	d5174000 	ldrle	r4, [r7, #-0]
    abcc:	05000001 	streq	r0, [r0, #-1]
    abd0:	0025024d 	eoreq	r0, r5, sp, asr #4
    abd4:	17440000 	strbne	r0, [r4, -r0]
    abd8:	0000052f 	andeq	r0, r0, pc, lsr #10
    abdc:	77024e05 	strvc	r4, [r2, -r5, lsl #28]
    abe0:	48000001 	stmdami	r0, {r0}
    abe4:	0002d717 	andeq	sp, r2, r7, lsl r7
    abe8:	024f0500 	subeq	r0, pc, #0, 10
    abec:	00000839 	andeq	r0, r0, r9, lsr r8
    abf0:	020e174c 	andeq	r1, lr, #76, 14	; 0x1300000
    abf4:	52050000 	andpl	r0, r5, #0
    abf8:	00002502 	andeq	r2, r0, r2, lsl #10
    abfc:	54175000 	ldrpl	r5, [r7], #-0
    ac00:	05000001 	streq	r0, [r0, #-1]
    ac04:	01070253 	tsteq	r7, r3, asr r2
    ac08:	17540000 	ldrbne	r0, [r4, -r0]
    ac0c:	000002fd 	strdeq	r0, [r0], -sp
    ac10:	f6027605 			; <UNDEFINED> instruction: 0xf6027605
    ac14:	58000007 	stmdapl	r0, {r0, r1, r2}
    ac18:	0002bd18 	andeq	fp, r2, r8, lsl sp
    ac1c:	027a0500 	rsbseq	r0, sl, #0, 10
    ac20:	00000294 	muleq	r0, r4, r2
    ac24:	43180148 	tstmi	r8, #72, 2
    ac28:	05000002 	streq	r0, [r0, #-2]
    ac2c:	0256027b 	subseq	r0, r6, #-1342177273	; 0xb0000007
    ac30:	014c0000 	mrseq	r0, (UNDEF: 76)
    ac34:	0004db18 	andeq	sp, r4, r8, lsl fp
    ac38:	027f0500 	rsbseq	r0, pc, #0, 10
    ac3c:	0000084a 	andeq	r0, r0, sl, asr #16
    ac40:	251802dc 	ldrcs	r0, [r8, #-732]	; 0xfffffd24
    ac44:	05000001 	streq	r0, [r0, #-1]
    ac48:	05fb0284 	ldrbeq	r0, [fp, #644]!	; 0x284
    ac4c:	02e00000 	rsceq	r0, r0, #0
    ac50:	00010a18 	andeq	r0, r1, r8, lsl sl
    ac54:	02850500 	addeq	r0, r5, #0, 10
    ac58:	00000856 	andeq	r0, r0, r6, asr r8
    ac5c:	0d0002ec 	sfmeq	f0, 4, [r0, #-944]	; 0xfffffc50
    ac60:	00040604 	andeq	r0, r4, r4, lsl #12
    ac64:	00251400 	eoreq	r1, r5, r0, lsl #8
    ac68:	05850000 	streq	r0, [r5]
    ac6c:	24150000 	ldrcs	r0, [r5], #-0
    ac70:	15000004 	strne	r0, [r0, #-4]
    ac74:	00000105 	andeq	r0, r0, r5, lsl #2
    ac78:	00058515 	andeq	r8, r5, r5, lsl r5
    ac7c:	00251500 	eoreq	r1, r5, r0, lsl #10
    ac80:	0d000000 	stceq	0, cr0, [r0, #-0]
    ac84:	00011404 	andeq	r1, r1, r4, lsl #8
    ac88:	67040d00 	strvs	r0, [r4, -r0, lsl #26]
    ac8c:	14000005 	strne	r0, [r0], #-5
    ac90:	00000081 	andeq	r0, r0, r1, lsl #1
    ac94:	000005af 	andeq	r0, r0, pc, lsr #11
    ac98:	00042415 	andeq	r2, r4, r5, lsl r4
    ac9c:	01051500 	tsteq	r5, r0, lsl #10
    aca0:	81150000 	tsthi	r5, r0
    aca4:	15000000 	strne	r0, [r0, #-0]
    aca8:	00000025 	andeq	r0, r0, r5, lsr #32
    acac:	91040d00 	tstls	r4, r0, lsl #26
    acb0:	14000005 	strne	r0, [r0], #-5
    acb4:	00000025 	andeq	r0, r0, r5, lsr #32
    acb8:	000005c9 	andeq	r0, r0, r9, asr #11
    acbc:	00042415 	andeq	r2, r4, r5, lsl r4
    acc0:	01051500 	tsteq	r5, r0, lsl #10
    acc4:	0d000000 	stceq	0, cr0, [r0, #-0]
    acc8:	0005b504 	andeq	fp, r5, r4, lsl #10
    accc:	004f0800 	subeq	r0, pc, r0, lsl #16
    acd0:	05df0000 	ldrbeq	r0, [pc]	; acd8 <__bss_end__+0xcd8>
    acd4:	c7090000 	strgt	r0, [r9, -r0]
    acd8:	02000000 	andeq	r0, r0, #0
    acdc:	004f0800 	subeq	r0, pc, r0, lsl #16
    ace0:	05ef0000 	strbeq	r0, [pc, #0]!	; ace8 <__bss_end__+0xce8>
    ace4:	c7090000 	strgt	r0, [r9, -r0]
    ace8:	00000000 	andeq	r0, r0, r0
    acec:	03ab0500 			; <UNDEFINED> instruction: 0x03ab0500
    acf0:	1d050000 	stcne	0, cr0, [r5, #-0]
    acf4:	0002dc01 	andeq	sp, r2, r1, lsl #24
    acf8:	04c21900 	strbeq	r1, [r2], #2304	; 0x900
    acfc:	050c0000 	streq	r0, [ip, #-0]
    ad00:	06300121 	ldrteq	r0, [r0], -r1, lsr #2
    ad04:	d3170000 	tstle	r7, #0
    ad08:	05000003 	streq	r0, [r0, #-3]
    ad0c:	06300123 	ldrteq	r0, [r0], -r3, lsr #2
    ad10:	17000000 	strne	r0, [r0, -r0]
    ad14:	00000229 	andeq	r0, r0, r9, lsr #4
    ad18:	25012405 	strcs	r2, [r1, #-1029]	; 0xfffffbfb
    ad1c:	04000000 	streq	r0, [r0], #-0
    ad20:	0003a517 	andeq	sl, r3, r7, lsl r5
    ad24:	01250500 			; <UNDEFINED> instruction: 0x01250500
    ad28:	00000636 	andeq	r0, r0, r6, lsr r6
    ad2c:	040d0008 	streq	r0, [sp], #-8
    ad30:	000005fb 	strdeq	r0, [r0], -fp
    ad34:	05ef040d 	strbeq	r0, [pc, #1037]!	; b149 <__bss_end__+0x1149>
    ad38:	2f190000 	svccs	0x00190000
    ad3c:	0e000000 	cdpeq	0, 0, cr0, cr0, cr0, {0}
    ad40:	71013d05 	tstvc	r1, r5, lsl #26
    ad44:	17000006 	strne	r0, [r0, -r6]
    ad48:	00000422 	andeq	r0, r0, r2, lsr #8
    ad4c:	71013e05 	tstvc	r1, r5, lsl #28
    ad50:	00000006 	andeq	r0, r0, r6
    ad54:	00045617 	andeq	r5, r4, r7, lsl r6
    ad58:	013f0500 	teqeq	pc, r0, lsl #10
    ad5c:	00000671 	andeq	r0, r0, r1, ror r6
    ad60:	04721706 	ldrbteq	r1, [r2], #-1798	; 0xfffff8fa
    ad64:	40050000 	andmi	r0, r5, r0
    ad68:	00005601 	andeq	r5, r0, r1, lsl #12
    ad6c:	08000c00 	stmdaeq	r0, {sl, fp}
    ad70:	00000056 	andeq	r0, r0, r6, asr r0
    ad74:	00000681 	andeq	r0, r0, r1, lsl #13
    ad78:	0000c709 	andeq	ip, r0, r9, lsl #14
    ad7c:	1a000200 	bne	b584 <__bss_end__+0x1584>
    ad80:	025705d0 	subseq	r0, r7, #208, 10	; 0x34000000
    ad84:	00000782 	andeq	r0, r0, r2, lsl #15
    ad88:	0004a617 	andeq	sl, r4, r7, lsl r6
    ad8c:	02590500 	subseq	r0, r9, #0, 10
    ad90:	0000002c 	andeq	r0, r0, ip, lsr #32
    ad94:	045c1700 	ldrbeq	r1, [ip], #-1792	; 0xfffff900
    ad98:	5a050000 	bpl	14ada0 <__bss_end__+0x140da0>
    ad9c:	00010702 	andeq	r0, r1, r2, lsl #14
    ada0:	58170400 	ldmdapl	r7, {sl}
    ada4:	05000002 	streq	r0, [r0, #-2]
    ada8:	0782025b 			; <UNDEFINED> instruction: 0x0782025b
    adac:	17080000 	strne	r0, [r8, -r0]
    adb0:	00000506 	andeq	r0, r0, r6, lsl #10
    adb4:	8d025c05 	stchi	12, cr5, [r2, #-20]	; 0xffffffec
    adb8:	24000001 	strcs	r0, [r0], #-1
    adbc:	0001c617 	andeq	ip, r1, r7, lsl r6
    adc0:	025d0500 	subseq	r0, sp, #0, 10
    adc4:	00000025 	andeq	r0, r0, r5, lsr #32
    adc8:	03ce1748 	biceq	r1, lr, #72, 14	; 0x1200000
    adcc:	5e050000 	cdppl	0, 0, cr0, cr5, cr0, {0}
    add0:	00006402 	andeq	r6, r0, r2, lsl #8
    add4:	1c175000 	ldcne	0, cr5, [r7], {-0}
    add8:	05000005 	streq	r0, [r0, #-5]
    addc:	063c025f 			; <UNDEFINED> instruction: 0x063c025f
    ade0:	17580000 	ldrbne	r0, [r8, -r0]
    ade4:	000003d9 	ldrdeq	r0, [r0], -r9
    ade8:	ef026005 	svc	0x00026005
    adec:	68000000 	stmdavs	r0, {}	; <UNPREDICTABLE>
    adf0:	00052117 	andeq	r2, r5, r7, lsl r1
    adf4:	02610500 	rsbeq	r0, r1, #0, 10
    adf8:	000000ef 	andeq	r0, r0, pc, ror #1
    adfc:	02e11770 	rsceq	r1, r1, #112, 14	; 0x1c00000
    ae00:	62050000 	andvs	r0, r5, #0
    ae04:	0000ef02 	andeq	lr, r0, r2, lsl #30
    ae08:	d1177800 	tstle	r7, r0, lsl #16
    ae0c:	05000004 	streq	r0, [r0, #-4]
    ae10:	07920263 	ldreq	r0, [r2, r3, ror #4]
    ae14:	17800000 	strne	r0, [r0, r0]
    ae18:	0000024c 	andeq	r0, r0, ip, asr #4
    ae1c:	a2026405 	andge	r6, r2, #83886080	; 0x5000000
    ae20:	88000007 	stmdahi	r0, {r0, r1, r2}
    ae24:	00047f17 	andeq	r7, r4, r7, lsl pc
    ae28:	02650500 	rsbeq	r0, r5, #0, 10
    ae2c:	00000025 	andeq	r0, r0, r5, lsr #32
    ae30:	018c17a0 	orreq	r1, ip, r0, lsr #15
    ae34:	66050000 	strvs	r0, [r5], -r0
    ae38:	0000ef02 	andeq	lr, r0, r2, lsl #30
    ae3c:	9d17a400 	cfldrsls	mvf10, [r7, #-0]
    ae40:	05000000 	streq	r0, [r0, #-0]
    ae44:	00ef0267 	rsceq	r0, pc, r7, ror #4
    ae48:	17ac0000 	strne	r0, [ip, r0]!
    ae4c:	0000017b 	andeq	r0, r0, fp, ror r1
    ae50:	ef026805 	svc	0x00026805
    ae54:	b4000000 	strlt	r0, [r0], #-0
    ae58:	00004a17 	andeq	r4, r0, r7, lsl sl
    ae5c:	02690500 	rsbeq	r0, r9, #0, 10
    ae60:	000000ef 	andeq	r0, r0, pc, ror #1
    ae64:	005917bc 	ldrheq	r1, [r9], #-124	; 0xffffff84
    ae68:	6a050000 	bvs	14ae70 <__bss_end__+0x140e70>
    ae6c:	0000ef02 	andeq	lr, r0, r2, lsl #30
    ae70:	8117c400 	tsthi	r7, r0, lsl #8
    ae74:	05000003 	streq	r0, [r0, #-3]
    ae78:	0025026b 	eoreq	r0, r5, fp, ror #4
    ae7c:	00cc0000 	sbceq	r0, ip, r0
    ae80:	00010d08 	andeq	r0, r1, r8, lsl #26
    ae84:	00079200 	andeq	r9, r7, r0, lsl #4
    ae88:	00c70900 	sbceq	r0, r7, r0, lsl #18
    ae8c:	00190000 	andseq	r0, r9, r0
    ae90:	00010d08 	andeq	r0, r1, r8, lsl #26
    ae94:	0007a200 	andeq	sl, r7, r0, lsl #4
    ae98:	00c70900 	sbceq	r0, r7, r0, lsl #18
    ae9c:	00070000 	andeq	r0, r7, r0
    aea0:	00010d08 	andeq	r0, r1, r8, lsl #26
    aea4:	0007b200 	andeq	fp, r7, r0, lsl #4
    aea8:	00c70900 	sbceq	r0, r7, r0, lsl #18
    aeac:	00170000 	andseq	r0, r7, r0
    aeb0:	7005f01a 	andvc	pc, r5, sl, lsl r0	; <UNPREDICTABLE>
    aeb4:	0007d602 	andeq	sp, r7, r2, lsl #12
    aeb8:	02ad1700 	adceq	r1, sp, #0, 14
    aebc:	73050000 	movwvc	r0, #20480	; 0x5000
    aec0:	0007d602 	andeq	sp, r7, r2, lsl #12
    aec4:	c8170000 	ldmdagt	r7, {}	; <UNPREDICTABLE>
    aec8:	05000004 	streq	r0, [r0, #-4]
    aecc:	07e60274 			; <UNDEFINED> instruction: 0x07e60274
    aed0:	00780000 	rsbseq	r0, r8, r0
    aed4:	0002d608 	andeq	sp, r2, r8, lsl #12
    aed8:	0007e600 	andeq	lr, r7, r0, lsl #12
    aedc:	00c70900 	sbceq	r0, r7, r0, lsl #18
    aee0:	001d0000 	andseq	r0, sp, r0
    aee4:	00002c08 	andeq	r2, r0, r8, lsl #24
    aee8:	0007f600 	andeq	pc, r7, r0, lsl #12
    aeec:	00c70900 	sbceq	r0, r7, r0, lsl #18
    aef0:	001d0000 	andseq	r0, sp, r0
    aef4:	5505f01b 	strpl	pc, [r5, #-27]	; 0xffffffe5
    aef8:	00081802 	andeq	r1, r8, r2, lsl #16
    aefc:	041b1c00 	ldreq	r1, [fp], #-3072	; 0xfffff400
    af00:	6c050000 	stcvs	0, cr0, [r5], {-0}
    af04:	00068102 	andeq	r8, r6, r2, lsl #2
    af08:	04f31c00 	ldrbteq	r1, [r3], #3072	; 0xc00
    af0c:	75050000 	strvc	r0, [r5, #-0]
    af10:	0007b202 	andeq	fp, r7, r2, lsl #4
    af14:	0d080000 	stceq	0, cr0, [r8, #-0]
    af18:	28000001 	stmdacs	r0, {r0}
    af1c:	09000008 	stmdbeq	r0, {r3}
    af20:	000000c7 	andeq	r0, r0, r7, asr #1
    af24:	331d0018 	tstcc	sp, #24
    af28:	15000008 	strne	r0, [r0, #-8]
    af2c:	00000424 	andeq	r0, r0, r4, lsr #8
    af30:	28040d00 	stmdacs	r4, {r8, sl, fp}
    af34:	0d000008 	stceq	0, cr0, [r0, #-32]	; 0xffffffe0
    af38:	00017704 	andeq	r7, r1, r4, lsl #14
    af3c:	084a1d00 	stmdaeq	sl, {r8, sl, fp, ip}^
    af40:	25150000 	ldrcs	r0, [r5, #-0]
    af44:	00000000 	andeq	r0, r0, r0
    af48:	0850040d 	ldmdaeq	r0, {r0, r2, r3, sl}^
    af4c:	040d0000 	streq	r0, [sp], #-0
    af50:	0000083f 	andeq	r0, r0, pc, lsr r8
    af54:	0005ef08 	andeq	lr, r5, r8, lsl #30
    af58:	00086600 	andeq	r6, r8, r0, lsl #12
    af5c:	00c70900 	sbceq	r0, r7, r0, lsl #18
    af60:	00020000 	andeq	r0, r2, r0
    af64:	0004931e 	andeq	r9, r4, lr, lsl r3
    af68:	02fd0500 	rscseq	r0, sp, #0, 10
    af6c:	00000424 	andeq	r0, r0, r4, lsr #8
    af70:	00048c1e 	andeq	r8, r4, lr, lsl ip
    af74:	02fe0500 	rscseq	r0, lr, #0, 10
    af78:	0000042a 	andeq	r0, r0, sl, lsr #8
    af7c:	00002514 	andeq	r2, r0, r4, lsl r5
    af80:	00088d00 	andeq	r8, r8, r0, lsl #26
    af84:	00251500 	eoreq	r1, r5, r0, lsl #10
    af88:	1f000000 	svcne	0x00000000
    af8c:	000001df 	ldrdeq	r0, [r0], -pc	; <UNPREDICTABLE>
    af90:	08981d06 	ldmeq	r8, {r1, r2, r8, sl, fp, ip}
    af94:	040d0000 	streq	r0, [sp], #-0
    af98:	0000087e 	andeq	r0, r0, lr, ror r8
    af9c:	00002514 	andeq	r2, r0, r4, lsl r5
    afa0:	0008ad00 	andeq	sl, r8, r0, lsl #26
    afa4:	05851500 	streq	r1, [r5, #1280]	; 0x500
    afa8:	1f000000 	svcne	0x00000000
    afac:	0000076d 	andeq	r0, r0, sp, ror #14
    afb0:	08b82206 	ldmeq	r8!, {r1, r2, r9, sp}
    afb4:	040d0000 	streq	r0, [sp], #-0
    afb8:	0000089e 	muleq	r0, lr, r8
    afbc:	b6040803 	strlt	r0, [r4], -r3, lsl #16
    afc0:	1f00000b 	svcne	0x0000000b
    afc4:	00000bee 	andeq	r0, r0, lr, ror #23
    afc8:	010d0d01 	tsteq	sp, r1, lsl #26
    afcc:	64200000 	strtvs	r0, [r0], #-0
    afd0:	01000006 	tsteq	r0, r6
    afd4:	0001070e 	andeq	r0, r1, lr, lsl #14
    afd8:	24030500 	strcs	r0, [r3], #-1280	; 0xfffffb00
    afdc:	20000096 	mulcs	r0, r6, r0
    afe0:	00000c05 	andeq	r0, r0, r5, lsl #24
    afe4:	01070f01 	tsteq	r7, r1, lsl #30
    afe8:	03050000 	movweq	r0, #20480	; 0x5000
    afec:	00009628 	andeq	r9, r0, r8, lsr #12
    aff0:	000bc721 	andeq	ip, fp, r1, lsr #14
    aff4:	f4380100 			; <UNDEFINED> instruction: 0xf4380100
    aff8:	10000095 	mulne	r0, r5, r0
    affc:	01000000 	mrseq	r0, (UNDEF: 0)
    b000:	0009139c 	muleq	r9, ip, r3
    b004:	00702200 	rsbseq	r2, r0, r0, lsl #4
    b008:	01053801 	tsteq	r5, r1, lsl #16
    b00c:	50010000 	andpl	r0, r1, r0
    b010:	0bbd2300 	bleq	fef53c18 <__bss_end__+0xfef49c18>
    b014:	37010000 	strcc	r0, [r1, -r0]
    b018:	000095e0 	andeq	r9, r0, r0, ror #11
    b01c:	00000014 	andeq	r0, r0, r4, lsl r0
    b020:	83219c01 			; <UNDEFINED> instruction: 0x83219c01
    b024:	01000002 	tsteq	r0, r2
    b028:	0095dc36 	addseq	sp, r5, r6, lsr ip
    b02c:	00000400 	andeq	r0, r0, r0, lsl #8
    b030:	459c0100 	ldrmi	r0, [ip, #256]	; 0x100
    b034:	22000009 	andcs	r0, r0, #9
    b038:	36010070 			; <UNDEFINED> instruction: 0x36010070
    b03c:	00000105 	andeq	r0, r0, r5, lsl #2
    b040:	24005001 	strcs	r5, [r0], #-1
    b044:	00000ba6 	andeq	r0, r0, r6, lsr #23
    b048:	01052901 	tsteq	r5, r1, lsl #18
    b04c:	95500000 	ldrbls	r0, [r0, #-0]
    b050:	008c0000 	addeq	r0, ip, r0
    b054:	9c010000 	stcls	0, cr0, [r1], {-0}
    b058:	00000a30 	andeq	r0, r0, r0, lsr sl
    b05c:	00068425 	andeq	r8, r6, r5, lsr #8
    b060:	2c290100 	stfcss	f0, [r9], #-0
    b064:	b6000000 	strlt	r0, [r0], -r0
    b068:	25000015 	strcs	r0, [r0, #-21]	; 0xffffffeb
    b06c:	00000be4 	andeq	r0, r0, r4, ror #23
    b070:	002c2901 	eoreq	r2, ip, r1, lsl #18
    b074:	16090000 	strne	r0, [r9], -r0
    b078:	1c260000 	stcne	0, cr0, [r6], #-0
    b07c:	40000002 	andmi	r0, r0, r2
    b080:	0500000a 	streq	r0, [r0, #-10]
    b084:	009af403 	addseq	pc, sl, r3, lsl #8
    b088:	00682700 	rsbeq	r2, r8, r0, lsl #14
    b08c:	002c2e01 	eoreq	r2, ip, r1, lsl #28
    b090:	16500000 	ldrbne	r0, [r0], -r0
    b094:	8c280000 	stchi	0, cr0, [r8], #-0
    b098:	79000095 	stmdbvc	r0, {r0, r2, r4, r7}
    b09c:	ad00000a 	stcge	0, cr0, [r0, #-40]	; 0xffffffd8
    b0a0:	29000009 	stmdbcs	r0, {r0, r3}
    b0a4:	f3035001 	vhadd.u8	d5, d3, d1
    b0a8:	2a005001 	bcs	1f0b4 <__bss_end__+0x150b4>
    b0ac:	00009594 	muleq	r0, r4, r5
    b0b0:	00000bfb 	strdeq	r0, [r0], -fp
    b0b4:	0095a828 	addseq	sl, r5, r8, lsr #16
    b0b8:	000c0600 	andeq	r0, ip, r0, lsl #12
    b0bc:	0009e500 	andeq	lr, r9, r0, lsl #10
    b0c0:	50012900 	andpl	r2, r1, r0, lsl #18
    b0c4:	9b400305 	blls	100bce0 <__bss_end__+0x1001ce0>
    b0c8:	01290000 			; <UNDEFINED> instruction: 0x01290000
    b0cc:	04030551 	streq	r0, [r3], #-1361	; 0xfffffaaf
    b0d0:	2900009b 	stmdbcs	r0, {r0, r1, r3, r4, r7}
    b0d4:	03055201 	movweq	r5, #20993	; 0x5201
    b0d8:	00009af4 	strdeq	r9, [r0], -r4
    b0dc:	02530129 	subseq	r0, r3, #1073741834	; 0x4000000a
    b0e0:	2a002a08 	bcs	15908 <__bss_end__+0xb908>
    b0e4:	000095ac 	andeq	r9, r0, ip, lsr #11
    b0e8:	00000c11 	andeq	r0, r0, r1, lsl ip
    b0ec:	0095b02a 	addseq	fp, r5, sl, lsr #32
    b0f0:	000bfb00 	andeq	pc, fp, r0, lsl #22
    b0f4:	95c42800 	strbls	r2, [r4, #2048]	; 0x800
    b0f8:	0c060000 	stceq	0, cr0, [r6], {-0}
    b0fc:	0a260000 	beq	98b104 <__bss_end__+0x981104>
    b100:	01290000 			; <UNDEFINED> instruction: 0x01290000
    b104:	a0030550 	andge	r0, r3, r0, asr r5
    b108:	2900009b 	stmdbcs	r0, {r0, r1, r3, r4, r7}
    b10c:	03055101 	movweq	r5, #20737	; 0x5101
    b110:	00009b04 	andeq	r9, r0, r4, lsl #22
    b114:	05520129 	ldrbeq	r0, [r2, #-297]	; 0xfffffed7
    b118:	009af403 	addseq	pc, sl, r3, lsl #8
    b11c:	53012900 	movwpl	r2, #6400	; 0x1900
    b120:	00300802 	eorseq	r0, r0, r2, lsl #16
    b124:	0095c82a 	addseq	ip, r5, sl, lsr #16
    b128:	000c1100 	andeq	r1, ip, r0, lsl #2
    b12c:	14080000 	strne	r0, [r8], #-0
    b130:	40000001 	andmi	r0, r0, r1
    b134:	0900000a 	stmdbeq	r0, {r1, r3}
    b138:	000000c7 	andeq	r0, r0, r7, asr #1
    b13c:	300e000f 	andcc	r0, lr, pc
    b140:	2400000a 	strcs	r0, [r0], #-10
    b144:	00000bd3 	ldrdeq	r0, [r0], -r3
    b148:	01052501 	tsteq	r5, r1, lsl #10
    b14c:	95440000 	strbls	r0, [r4, #-0]
    b150:	000c0000 	andeq	r0, ip, r0
    b154:	9c010000 	stcls	0, cr0, [r1], {-0}
    b158:	00000a68 	andeq	r0, r0, r8, ror #20
    b15c:	00954c2a 	addseq	r4, r5, sl, lsr #24
    b160:	000bd100 	andeq	sp, fp, r0, lsl #2
    b164:	99230000 	stmdbls	r3!, {}	; <UNPREDICTABLE>
    b168:	0100000b 	tsteq	r0, fp
    b16c:	00954024 	addseq	r4, r5, r4, lsr #32
    b170:	00000400 	andeq	r0, r0, r0, lsl #8
    b174:	249c0100 	ldrcs	r0, [ip], #256	; 0x100
    b178:	000004e5 	andeq	r0, r0, r5, ror #9
    b17c:	01051a01 	tsteq	r5, r1, lsl #20
    b180:	94dc0000 	ldrbls	r0, [ip], #0
    b184:	00640000 	rsbeq	r0, r4, r0
    b188:	9c010000 	stcls	0, cr0, [r1], {-0}
    b18c:	00000b24 	andeq	r0, r0, r4, lsr #22
    b190:	007a732b 	rsbseq	r7, sl, fp, lsr #6
    b194:	002c1a01 	eoreq	r1, ip, r1, lsl #20
    b198:	16880000 	strne	r0, [r8], r0
    b19c:	1c260000 	stcne	0, cr0, [r6], #-0
    b1a0:	34000002 	strcc	r0, [r0], #-2
    b1a4:	0500000b 	streq	r0, [r0, #-11]
    b1a8:	009aec03 	addseq	lr, sl, r3, lsl #24
    b1ac:	0c112c00 	ldceq	12, cr2, [r1], {-0}
    b1b0:	1e010000 	cdpne	0, 0, cr0, cr1, cr0, {0}
    b1b4:	00000105 	andeq	r0, r0, r5, lsl #2
    b1b8:	000016d2 	ldrdeq	r1, [r0], -r2
    b1bc:	00950c28 	addseq	r0, r5, r8, lsr #24
    b1c0:	000c1c00 	andeq	r1, ip, r0, lsl #24
    b1c4:	000ae300 	andeq	lr, sl, r0, lsl #6
    b1c8:	50012900 	andpl	r2, r1, r0, lsl #18
    b1cc:	29007402 	stmdbcs	r0, {r1, sl, ip, sp, lr}
    b1d0:	30015101 	andcc	r5, r1, r1, lsl #2
    b1d4:	08520129 	ldmdaeq	r2, {r0, r3, r5, r8}^
    b1d8:	235001f3 	cmpcs	r0, #-1073741764	; 0xc000003c
    b1dc:	1af80907 	bne	ffe0d600 <__bss_end__+0xffe03600>
    b1e0:	95182a00 	ldrls	r2, [r8, #-2560]	; 0xfffff600
    b1e4:	0bfb0000 	bleq	ffecb1ec <__bss_end__+0xffec11ec>
    b1e8:	2c280000 	stccs	0, cr0, [r8], #-0
    b1ec:	06000095 			; <UNDEFINED> instruction: 0x06000095
    b1f0:	1a00000c 	bne	b228 <__bss_end__+0x1228>
    b1f4:	2900000b 	stmdbcs	r0, {r0, r1, r3}
    b1f8:	03055001 	movweq	r5, #20481	; 0x5001
    b1fc:	00009b2c 	andeq	r9, r0, ip, lsr #22
    b200:	05510129 	ldrbeq	r0, [r1, #-297]	; 0xfffffed7
    b204:	009b0403 	addseq	r0, fp, r3, lsl #8
    b208:	52012900 	andpl	r2, r1, #0, 18
    b20c:	9aec0305 	bls	ffb0be28 <__bss_end__+0xffb01e28>
    b210:	01290000 			; <UNDEFINED> instruction: 0x01290000
    b214:	004b0153 	subeq	r0, fp, r3, asr r1
    b218:	0095302a 	addseq	r3, r5, sl, lsr #32
    b21c:	000c1100 	andeq	r1, ip, r0, lsl #2
    b220:	14080000 	strne	r0, [r8], #-0
    b224:	34000001 	strcc	r0, [r0], #-1
    b228:	0900000b 	stmdbeq	r0, {r0, r1, r3}
    b22c:	000000c7 	andeq	r0, r0, r7, asr #1
    b230:	240e0007 	strcs	r0, [lr], #-7
    b234:	2100000b 	tstcs	r0, fp
    b238:	00000164 	andeq	r0, r0, r4, ror #2
    b23c:	948c1401 	strls	r1, [ip], #1025	; 0x401
    b240:	00500000 	subseq	r0, r0, r0
    b244:	9c010000 	stcls	0, cr0, [r1], {-0}
    b248:	00000bbc 			; <UNDEFINED> instruction: 0x00000bbc
    b24c:	000c1025 	andeq	r1, ip, r5, lsr #32
    b250:	2c140100 	ldfcss	f0, [r4], {-0}
    b254:	e5000000 	str	r0, [r0, #-0]
    b258:	2c000016 	stccs	0, cr0, [r0], {22}
    b25c:	00000c11 	andeq	r0, r0, r1, lsl ip
    b260:	01071501 	tsteq	r7, r1, lsl #10
    b264:	17060000 	strne	r0, [r6, -r0]
    b268:	1c260000 	stcne	0, cr0, [r6], #-0
    b26c:	cc000002 	stcgt	0, cr0, [r0], {2}
    b270:	0500000b 	streq	r0, [r0, #-11]
    b274:	009ad403 	addseq	sp, sl, r3, lsl #8
    b278:	94b42a00 	ldrtls	r2, [r4], #2560	; 0xa00
    b27c:	0bfb0000 	bleq	ffecb284 <__bss_end__+0xffec1284>
    b280:	c8280000 	stmdagt	r8!, {}	; <UNPREDICTABLE>
    b284:	06000094 			; <UNDEFINED> instruction: 0x06000094
    b288:	b200000c 	andlt	r0, r0, #12
    b28c:	2900000b 	stmdbcs	r0, {r0, r1, r3}
    b290:	03055001 	movweq	r5, #20481	; 0x5001
    b294:	00009b10 	andeq	r9, r0, r0, lsl fp
    b298:	05510129 	ldrbeq	r0, [r1, #-297]	; 0xfffffed7
    b29c:	009b0403 	addseq	r0, fp, r3, lsl #8
    b2a0:	52012900 	andpl	r2, r1, #0, 18
    b2a4:	9ad40305 	bls	ff50bec0 <__bss_end__+0xff501ec0>
    b2a8:	01290000 			; <UNDEFINED> instruction: 0x01290000
    b2ac:	00460153 	subeq	r0, r6, r3, asr r1
    b2b0:	0094cc2a 	addseq	ip, r4, sl, lsr #24
    b2b4:	000c1100 	andeq	r1, ip, r0, lsl #2
    b2b8:	14080000 	strne	r0, [r8], #-0
    b2bc:	cc000001 	stcgt	0, cr0, [r0], {1}
    b2c0:	0900000b 	stmdbeq	r0, {r0, r1, r3}
    b2c4:	000000c7 	andeq	r0, r0, r7, asr #1
    b2c8:	bc0e0016 	stclt	0, cr0, [lr], {22}
    b2cc:	2d00000b 	stccs	0, cr0, [r0, #-44]	; 0xffffffd4
    b2d0:	00000bfd 	strdeq	r0, [r0], -sp
    b2d4:	01051201 	tsteq	r5, r1, lsl #4
    b2d8:	94800000 	strls	r0, [r0], #0
    b2dc:	000c0000 	andeq	r0, ip, r0
    b2e0:	9c010000 	stcls	0, cr0, [r1], {-0}
    b2e4:	000c162d 	andeq	r1, ip, sp, lsr #12
    b2e8:	05110100 	ldreq	r0, [r1, #-256]	; 0xffffff00
    b2ec:	70000001 	andvc	r0, r0, r1
    b2f0:	10000094 	mulne	r0, r4, r0
    b2f4:	01000000 	mrseq	r0, (UNDEF: 0)
    b2f8:	01f72e9c 			; <UNDEFINED> instruction: 0x01f72e9c
    b2fc:	01f70000 	mvnseq	r0, r0
    b300:	1e060000 	cdpne	0, 0, cr0, cr6, cr0, {0}
    b304:	0007042e 	andeq	r0, r7, lr, lsr #8
    b308:	00070400 	andeq	r0, r7, r0, lsl #8
    b30c:	2e290600 	cfmadda32cs	mvax0, mvax0, mvfx9, mvfx0
    b310:	000002a0 	andeq	r0, r0, r0, lsr #5
    b314:	000002a0 	andeq	r0, r0, r0, lsr #5
    b318:	9f2e6506 	svcls	0x002e6506
    b31c:	9f000004 	svcls	0x00000004
    b320:	07000004 	streq	r0, [r0, -r4]
    b324:	Address 0x000000000000b324 is out of bounds.


Disassembly of section .debug_abbrev:

00000000 <.debug_abbrev>:
       0:	25011101 	strcs	r1, [r1, #-257]	; 0xfffffeff
       4:	030b130e 	movweq	r1, #45838	; 0xb30e
       8:	110e1b0e 	tstne	lr, lr, lsl #22
       c:	10061201 	andne	r1, r6, r1, lsl #4
      10:	02000017 	andeq	r0, r0, #23
      14:	0b0b0024 	bleq	2c00ac <__bss_end__+0x2b60ac>
      18:	08030b3e 	stmdaeq	r3, {r1, r2, r3, r4, r5, r8, r9, fp}
      1c:	24030000 	strcs	r0, [r3], #-0
      20:	3e0b0b00 	vmlacc.f64	d0, d11, d0
      24:	000e030b 	andeq	r0, lr, fp, lsl #6
      28:	00160400 	andseq	r0, r6, r0, lsl #8
      2c:	0b3a0e03 	bleq	e83840 <__bss_end__+0xe79840>
      30:	0b390b3b 	bleq	e42d24 <__bss_end__+0xe38d24>
      34:	00001349 	andeq	r1, r0, r9, asr #6
      38:	0b000f05 	bleq	3c54 <_start-0x43ac>
      3c:	0013490b 	andseq	r4, r3, fp, lsl #18
      40:	00130600 	andseq	r0, r3, r0, lsl #12
      44:	193c0e03 	ldmdbne	ip!, {r0, r1, r9, sl, fp}
      48:	16070000 	strne	r0, [r7], -r0
      4c:	3a0e0300 	bcc	380c54 <__bss_end__+0x376c54>
      50:	39053b0b 	stmdbcc	r5, {r0, r1, r3, r8, r9, fp, ip, sp}
      54:	0013490b 	andseq	r4, r3, fp, lsl #18
      58:	01170800 	tsteq	r7, r0, lsl #16
      5c:	0b3a0b0b 	bleq	e82c90 <__bss_end__+0xe78c90>
      60:	0b390b3b 	bleq	e42d54 <__bss_end__+0xe38d54>
      64:	00001301 	andeq	r1, r0, r1, lsl #6
      68:	03000d09 	movweq	r0, #3337	; 0xd09
      6c:	3b0b3a0e 	blcc	2ce8ac <__bss_end__+0x2c48ac>
      70:	490b390b 	stmdbmi	fp, {r0, r1, r3, r8, fp, ip, sp}
      74:	0a000013 	beq	c8 <_start-0x7f38>
      78:	13490101 	movtne	r0, #37121	; 0x9101
      7c:	00001301 	andeq	r1, r0, r1, lsl #6
      80:	4900210b 	stmdbmi	r0, {r0, r1, r3, r8, sp}
      84:	000b2f13 	andeq	r2, fp, r3, lsl pc
      88:	01130c00 	tsteq	r3, r0, lsl #24
      8c:	0b3a0b0b 	bleq	e82cc0 <__bss_end__+0xe78cc0>
      90:	0b390b3b 	bleq	e42d84 <__bss_end__+0xe38d84>
      94:	00001301 	andeq	r1, r0, r1, lsl #6
      98:	03000d0d 	movweq	r0, #3341	; 0xd0d
      9c:	3b0b3a0e 	blcc	2ce8dc <__bss_end__+0x2c48dc>
      a0:	490b390b 	stmdbmi	fp, {r0, r1, r3, r8, fp, ip, sp}
      a4:	000b3813 	andeq	r3, fp, r3, lsl r8
      a8:	000f0e00 	andeq	r0, pc, r0, lsl #28
      ac:	00000b0b 	andeq	r0, r0, fp, lsl #22
      b0:	4900260f 	stmdbmi	r0, {r0, r1, r2, r3, r9, sl, sp}
      b4:	10000013 	andne	r0, r0, r3, lsl r0
      b8:	0e030113 	mcreq	1, 0, r0, cr3, cr3, {0}
      bc:	0b3a0b0b 	bleq	e82cf0 <__bss_end__+0xe78cf0>
      c0:	0b390b3b 	bleq	e42db4 <__bss_end__+0xe38db4>
      c4:	00001301 	andeq	r1, r0, r1, lsl #6
      c8:	03000d11 	movweq	r0, #3345	; 0xd11
      cc:	3b0b3a08 	blcc	2ce8f4 <__bss_end__+0x2c48f4>
      d0:	490b390b 	stmdbmi	fp, {r0, r1, r3, r8, fp, ip, sp}
      d4:	000b3813 	andeq	r3, fp, r3, lsl r8
      d8:	01131200 	tsteq	r3, r0, lsl #4
      dc:	050b0e03 	streq	r0, [fp, #-3587]	; 0xfffff1fd
      e0:	0b3b0b3a 	bleq	ec2dd0 <__bss_end__+0xeb8dd0>
      e4:	13010b39 	movwne	r0, #6969	; 0x1b39
      e8:	0d130000 	ldceq	0, cr0, [r3, #-0]
      ec:	3a0e0300 	bcc	380cf4 <__bss_end__+0x376cf4>
      f0:	390b3b0b 	stmdbcc	fp, {r0, r1, r3, r8, r9, fp, ip, sp}
      f4:	3813490b 	ldmdacc	r3, {r0, r1, r3, r8, fp, lr}
      f8:	14000005 	strne	r0, [r0], #-5
      fc:	19270015 	stmdbne	r7!, {r0, r2, r4}
     100:	15150000 	ldrne	r0, [r5, #-0]
     104:	49192701 	ldmdbmi	r9, {r0, r8, r9, sl, sp}
     108:	00130113 	andseq	r0, r3, r3, lsl r1
     10c:	00051600 	andeq	r1, r5, r0, lsl #12
     110:	00001349 	andeq	r1, r0, r9, asr #6
     114:	03011317 	movweq	r1, #4887	; 0x1317
     118:	3a050b0e 	bcc	142d58 <__bss_end__+0x138d58>
     11c:	39053b0b 	stmdbcc	r5, {r0, r1, r3, r8, r9, fp, ip, sp}
     120:	0013010b 	andseq	r0, r3, fp, lsl #2
     124:	000d1800 	andeq	r1, sp, r0, lsl #16
     128:	0b3a0e03 	bleq	e8393c <__bss_end__+0xe7993c>
     12c:	0b39053b 	bleq	e41620 <__bss_end__+0xe37620>
     130:	0b381349 	bleq	e04e5c <__bss_end__+0xdfae5c>
     134:	0d190000 	ldceq	0, cr0, [r9, #-0]
     138:	3a0e0300 	bcc	380d40 <__bss_end__+0x376d40>
     13c:	39053b0b 	stmdbcc	r5, {r0, r1, r3, r8, r9, fp, ip, sp}
     140:	3813490b 	ldmdacc	r3, {r0, r1, r3, r8, fp, lr}
     144:	1a000005 	bne	160 <_start-0x7ea0>
     148:	0e030113 	mcreq	1, 0, r0, cr3, cr3, {0}
     14c:	0b3a0b0b 	bleq	e82d80 <__bss_end__+0xe78d80>
     150:	0b39053b 	bleq	e41644 <__bss_end__+0xe37644>
     154:	00001301 	andeq	r1, r0, r1, lsl #6
     158:	0b01131b 	bleq	44dcc <__bss_end__+0x3adcc>
     15c:	3b0b3a0b 	blcc	2ce990 <__bss_end__+0x2c4990>
     160:	010b3905 	tsteq	fp, r5, lsl #18
     164:	1c000013 	stcne	0, cr0, [r0], {19}
     168:	0b0b0117 	bleq	2c05cc <__bss_end__+0x2b65cc>
     16c:	053b0b3a 	ldreq	r0, [fp, #-2874]!	; 0xfffff4c6
     170:	13010b39 	movwne	r0, #6969	; 0x1b39
     174:	0d1d0000 	ldceq	0, cr0, [sp, #-0]
     178:	3a0e0300 	bcc	380d80 <__bss_end__+0x376d80>
     17c:	39053b0b 	stmdbcc	r5, {r0, r1, r3, r8, r9, fp, ip, sp}
     180:	0013490b 	andseq	r4, r3, fp, lsl #18
     184:	01151e00 	tsteq	r5, r0, lsl #28
     188:	13011927 	movwne	r1, #6439	; 0x1927
     18c:	341f0000 	ldrcc	r0, [pc], #-0	; 194 <_start-0x7e6c>
     190:	3a0e0300 	bcc	380d98 <__bss_end__+0x376d98>
     194:	39053b0b 	stmdbcc	r5, {r0, r1, r3, r8, r9, fp, ip, sp}
     198:	3f13490b 	svccc	0x0013490b
     19c:	00193c19 	andseq	r3, r9, r9, lsl ip
     1a0:	00342000 	eorseq	r2, r4, r0
     1a4:	0b3a0e03 	bleq	e839b8 <__bss_end__+0xe799b8>
     1a8:	0b390b3b 	bleq	e42e9c <__bss_end__+0xe38e9c>
     1ac:	193f1349 	ldmdbne	pc!, {r0, r3, r6, r8, r9, ip}	; <UNPREDICTABLE>
     1b0:	0000193c 	andeq	r1, r0, ip, lsr r9
     1b4:	3f012e21 	svccc	0x00012e21
     1b8:	3a0e0319 	bcc	380e24 <__bss_end__+0x376e24>
     1bc:	390b3b0b 	stmdbcc	fp, {r0, r1, r3, r8, r9, fp, ip, sp}
     1c0:	1119270b 	tstne	r9, fp, lsl #14
     1c4:	40061201 	andmi	r1, r6, r1, lsl #4
     1c8:	19429718 	stmdbne	r2, {r3, r4, r8, r9, sl, ip, pc}^
     1cc:	00001301 	andeq	r1, r0, r1, lsl #6
     1d0:	03003422 	movweq	r3, #1058	; 0x422
     1d4:	3b0b3a08 	blcc	2ce9fc <__bss_end__+0x2c49fc>
     1d8:	490b390b 	stmdbmi	fp, {r0, r1, r3, r8, fp, ip, sp}
     1dc:	00061c13 	andeq	r1, r6, r3, lsl ip
     1e0:	00342300 	eorseq	r2, r4, r0, lsl #6
     1e4:	0b3a0803 	bleq	e821f8 <__bss_end__+0xe781f8>
     1e8:	0b390b3b 	bleq	e42edc <__bss_end__+0xe38edc>
     1ec:	17021349 	strne	r1, [r2, -r9, asr #6]
     1f0:	001742b7 			; <UNDEFINED> instruction: 0x001742b7
     1f4:	00342400 	eorseq	r2, r4, r0, lsl #8
     1f8:	13490e03 	movtne	r0, #40451	; 0x9e03
     1fc:	18021934 	stmdane	r2, {r2, r4, r5, r8, fp, ip}
     200:	34250000 	strtcc	r0, [r5], #-0
     204:	3a0e0300 	bcc	380e0c <__bss_end__+0x376e0c>
     208:	390b3b0b 	stmdbcc	fp, {r0, r1, r3, r8, r9, fp, ip, sp}
     20c:	0213490b 	andseq	r4, r3, #180224	; 0x2c000
     210:	1742b717 	smlaldne	fp, r2, r7, r7
     214:	89260000 	stmdbhi	r6!, {}	; <UNPREDICTABLE>
     218:	11010182 	smlabbne	r1, r2, r1, r0
     21c:	01133101 	tsteq	r3, r1, lsl #2
     220:	27000013 	smladcs	r0, r3, r0, r0
     224:	0001828a 	andeq	r8, r1, sl, lsl #5
     228:	42911802 	addsmi	r1, r1, #131072	; 0x20000
     22c:	28000018 	stmdacs	r0, {r3, r4}
     230:	00018289 	andeq	r8, r1, r9, lsl #5
     234:	13310111 	teqne	r1, #1073741828	; 0x40000004
     238:	2e290000 	cdpcs	0, 2, cr0, cr9, cr0, {0}
     23c:	3c193f00 	ldccc	15, cr3, [r9], {-0}
     240:	030e6e19 	movweq	r6, #60953	; 0xee19
     244:	3b0b3a0e 	blcc	2cea84 <__bss_end__+0x2c4a84>
     248:	000b390b 	andeq	r3, fp, fp, lsl #18
     24c:	11010000 	mrsne	r0, (UNDEF: 1)
     250:	130e2501 	movwne	r2, #58625	; 0xe501
     254:	1b0e030b 	blne	380e88 <__bss_end__+0x376e88>
     258:	1201110e 	andne	r1, r1, #-2147483645	; 0x80000003
     25c:	00171006 	andseq	r1, r7, r6
     260:	00240200 	eoreq	r0, r4, r0, lsl #4
     264:	0b3e0b0b 	bleq	f82e98 <__bss_end__+0xf78e98>
     268:	00000803 	andeq	r0, r0, r3, lsl #16
     26c:	0b002403 	bleq	9280 <uart_init+0x88>
     270:	030b3e0b 	movweq	r3, #48651	; 0xbe0b
     274:	0400000e 	streq	r0, [r0], #-14
     278:	0e030016 	mcreq	0, 0, r0, cr3, cr6, {0}
     27c:	0b3b0b3a 	bleq	ec2f6c <__bss_end__+0xeb8f6c>
     280:	13490b39 	movtne	r0, #39737	; 0x9b39
     284:	0f050000 	svceq	0x00050000
     288:	490b0b00 	stmdbmi	fp, {r8, r9, fp}
     28c:	06000013 			; <UNDEFINED> instruction: 0x06000013
     290:	0e030013 	mcreq	0, 0, r0, cr3, cr3, {0}
     294:	0000193c 	andeq	r1, r0, ip, lsr r9
     298:	03001607 	movweq	r1, #1543	; 0x607
     29c:	3b0b3a0e 	blcc	2ceadc <__bss_end__+0x2c4adc>
     2a0:	490b3905 	stmdbmi	fp, {r0, r2, r8, fp, ip, sp}
     2a4:	08000013 	stmdaeq	r0, {r0, r1, r4}
     2a8:	0b0b0117 	bleq	2c070c <__bss_end__+0x2b670c>
     2ac:	0b3b0b3a 	bleq	ec2f9c <__bss_end__+0xeb8f9c>
     2b0:	13010b39 	movwne	r0, #6969	; 0x1b39
     2b4:	0d090000 	stceq	0, cr0, [r9, #-0]
     2b8:	3a0e0300 	bcc	380ec0 <__bss_end__+0x376ec0>
     2bc:	390b3b0b 	stmdbcc	fp, {r0, r1, r3, r8, r9, fp, ip, sp}
     2c0:	0013490b 	andseq	r4, r3, fp, lsl #18
     2c4:	01010a00 	tsteq	r1, r0, lsl #20
     2c8:	13011349 	movwne	r1, #4937	; 0x1349
     2cc:	210b0000 	mrscs	r0, (UNDEF: 11)
     2d0:	2f134900 	svccs	0x00134900
     2d4:	0c00000b 	stceq	0, cr0, [r0], {11}
     2d8:	0b0b0113 	bleq	2c072c <__bss_end__+0x2b672c>
     2dc:	0b3b0b3a 	bleq	ec2fcc <__bss_end__+0xeb8fcc>
     2e0:	13010b39 	movwne	r0, #6969	; 0x1b39
     2e4:	0d0d0000 	stceq	0, cr0, [sp, #-0]
     2e8:	3a0e0300 	bcc	380ef0 <__bss_end__+0x376ef0>
     2ec:	390b3b0b 	stmdbcc	fp, {r0, r1, r3, r8, r9, fp, ip, sp}
     2f0:	3813490b 	ldmdacc	r3, {r0, r1, r3, r8, fp, lr}
     2f4:	0e00000b 	cdpeq	0, 0, cr0, cr0, cr11, {0}
     2f8:	0b0b000f 	bleq	2c033c <__bss_end__+0x2b633c>
     2fc:	260f0000 	strcs	r0, [pc], -r0
     300:	00134900 	andseq	r4, r3, r0, lsl #18
     304:	01131000 	tsteq	r3, r0
     308:	0b0b0e03 	bleq	2c3b1c <__bss_end__+0x2b9b1c>
     30c:	0b3b0b3a 	bleq	ec2ffc <__bss_end__+0xeb8ffc>
     310:	13010b39 	movwne	r0, #6969	; 0x1b39
     314:	0d110000 	ldceq	0, cr0, [r1, #-0]
     318:	3a080300 	bcc	200f20 <__bss_end__+0x1f6f20>
     31c:	390b3b0b 	stmdbcc	fp, {r0, r1, r3, r8, r9, fp, ip, sp}
     320:	3813490b 	ldmdacc	r3, {r0, r1, r3, r8, fp, lr}
     324:	1200000b 	andne	r0, r0, #11
     328:	0e030113 	mcreq	1, 0, r0, cr3, cr3, {0}
     32c:	0b3a050b 	bleq	e81760 <__bss_end__+0xe77760>
     330:	0b390b3b 	bleq	e43024 <__bss_end__+0xe39024>
     334:	00001301 	andeq	r1, r0, r1, lsl #6
     338:	03000d13 	movweq	r0, #3347	; 0xd13
     33c:	3b0b3a0e 	blcc	2ceb7c <__bss_end__+0x2c4b7c>
     340:	490b390b 	stmdbmi	fp, {r0, r1, r3, r8, fp, ip, sp}
     344:	00053813 	andeq	r3, r5, r3, lsl r8
     348:	00151400 	andseq	r1, r5, r0, lsl #8
     34c:	00001927 	andeq	r1, r0, r7, lsr #18
     350:	27011515 	smladcs	r1, r5, r5, r1
     354:	01134919 	tsteq	r3, r9, lsl r9
     358:	16000013 			; <UNDEFINED> instruction: 0x16000013
     35c:	13490005 	movtne	r0, #36869	; 0x9005
     360:	13170000 	tstne	r7, #0
     364:	0b0e0301 	bleq	380f70 <__bss_end__+0x376f70>
     368:	3b0b3a05 	blcc	2ceb84 <__bss_end__+0x2c4b84>
     36c:	010b3905 	tsteq	fp, r5, lsl #18
     370:	18000013 	stmdane	r0, {r0, r1, r4}
     374:	0e03000d 	cdpeq	0, 0, cr0, cr3, cr13, {0}
     378:	053b0b3a 	ldreq	r0, [fp, #-2874]!	; 0xfffff4c6
     37c:	13490b39 	movtne	r0, #39737	; 0x9b39
     380:	00000b38 	andeq	r0, r0, r8, lsr fp
     384:	03000d19 	movweq	r0, #3353	; 0xd19
     388:	3b0b3a0e 	blcc	2cebc8 <__bss_end__+0x2c4bc8>
     38c:	490b3905 	stmdbmi	fp, {r0, r2, r8, fp, ip, sp}
     390:	00053813 	andeq	r3, r5, r3, lsl r8
     394:	01131a00 	tsteq	r3, r0, lsl #20
     398:	0b0b0e03 	bleq	2c3bac <__bss_end__+0x2b9bac>
     39c:	053b0b3a 	ldreq	r0, [fp, #-2874]!	; 0xfffff4c6
     3a0:	13010b39 	movwne	r0, #6969	; 0x1b39
     3a4:	131b0000 	tstne	fp, #0
     3a8:	3a0b0b01 	bcc	2c2fb4 <__bss_end__+0x2b8fb4>
     3ac:	39053b0b 	stmdbcc	r5, {r0, r1, r3, r8, r9, fp, ip, sp}
     3b0:	0013010b 	andseq	r0, r3, fp, lsl #2
     3b4:	01171c00 	tsteq	r7, r0, lsl #24
     3b8:	0b3a0b0b 	bleq	e82fec <__bss_end__+0xe78fec>
     3bc:	0b39053b 	bleq	e418b0 <__bss_end__+0xe378b0>
     3c0:	00001301 	andeq	r1, r0, r1, lsl #6
     3c4:	03000d1d 	movweq	r0, #3357	; 0xd1d
     3c8:	3b0b3a0e 	blcc	2cec08 <__bss_end__+0x2c4c08>
     3cc:	490b3905 	stmdbmi	fp, {r0, r2, r8, fp, ip, sp}
     3d0:	1e000013 	mcrne	0, 0, r0, cr0, cr3, {0}
     3d4:	19270115 	stmdbne	r7!, {r0, r2, r4, r8}
     3d8:	00001301 	andeq	r1, r0, r1, lsl #6
     3dc:	0300341f 	movweq	r3, #1055	; 0x41f
     3e0:	3b0b3a0e 	blcc	2cec20 <__bss_end__+0x2c4c20>
     3e4:	490b3905 	stmdbmi	fp, {r0, r2, r8, fp, ip, sp}
     3e8:	3c193f13 	ldccc	15, cr3, [r9], {19}
     3ec:	20000019 	andcs	r0, r0, r9, lsl r0
     3f0:	0e030034 	mcreq	0, 0, r0, cr3, cr4, {1}
     3f4:	0b3b0b3a 	bleq	ec30e4 <__bss_end__+0xeb90e4>
     3f8:	13490b39 	movtne	r0, #39737	; 0x9b39
     3fc:	193c193f 	ldmdbne	ip!, {r0, r1, r2, r3, r4, r5, r8, fp, ip}
     400:	04210000 	strteq	r0, [r1], #-0
     404:	0b0b3e01 	bleq	2cfc10 <__bss_end__+0x2c5c10>
     408:	3a13490b 	bcc	4d283c <__bss_end__+0x4c883c>
     40c:	390b3b0b 	stmdbcc	fp, {r0, r1, r3, r8, r9, fp, ip, sp}
     410:	0013010b 	andseq	r0, r3, fp, lsl #2
     414:	00282200 	eoreq	r2, r8, r0, lsl #4
     418:	0b1c0e03 	bleq	703c2c <__bss_end__+0x6f9c2c>
     41c:	28230000 	stmdacs	r3!, {}	; <UNPREDICTABLE>
     420:	1c0e0300 	stcne	3, cr0, [lr], {-0}
     424:	24000005 	strcs	r0, [r0], #-5
     428:	0e030034 	mcreq	0, 0, r0, cr3, cr4, {1}
     42c:	0b3b0b3a 	bleq	ec311c <__bss_end__+0xeb911c>
     430:	13490b39 	movtne	r0, #39737	; 0x9b39
     434:	00001802 	andeq	r1, r0, r2, lsl #16
     438:	3f012e25 	svccc	0x00012e25
     43c:	3a0e0319 	bcc	3810a8 <__bss_end__+0x3770a8>
     440:	390b3b0b 	stmdbcc	fp, {r0, r1, r3, r8, r9, fp, ip, sp}
     444:	4919270b 	ldmdbmi	r9, {r0, r1, r3, r8, r9, sl, sp}
     448:	12011113 	andne	r1, r1, #-1073741820	; 0xc0000004
     44c:	97184006 	ldrls	r4, [r8, -r6]
     450:	13011942 	movwne	r1, #6466	; 0x1942
     454:	34260000 	strtcc	r0, [r6], #-0
     458:	3a0e0300 	bcc	381060 <__bss_end__+0x377060>
     45c:	390b3b0b 	stmdbcc	fp, {r0, r1, r3, r8, r9, fp, ip, sp}
     460:	0213490b 	andseq	r4, r3, #180224	; 0x2c000
     464:	1742b717 	smlaldne	fp, r2, r7, r7
     468:	0b270000 	bleq	9c0470 <__bss_end__+0x9b6470>
     46c:	01175501 	tsteq	r7, r1, lsl #10
     470:	28000013 	stmdacs	r0, {r0, r1, r4}
     474:	01018289 	smlabbeq	r1, r9, r2, r8
     478:	13310111 	teqne	r1, #1073741828	; 0x40000004
     47c:	00001301 	andeq	r1, r0, r1, lsl #6
     480:	01828a29 	orreq	r8, r2, r9, lsr #20
     484:	91180200 	tstls	r8, r0, lsl #4
     488:	00001842 	andeq	r1, r0, r2, asr #16
     48c:	0182892a 	orreq	r8, r2, sl, lsr #18
     490:	31011101 	tstcc	r1, r1, lsl #2
     494:	2b000013 	blcs	4e8 <_start-0x7b18>
     498:	0e030005 	cdpeq	0, 0, cr0, cr3, cr5, {0}
     49c:	0b3b0b3a 	bleq	ec318c <__bss_end__+0xeb918c>
     4a0:	13490b39 	movtne	r0, #39737	; 0x9b39
     4a4:	42b71702 	adcsmi	r1, r7, #524288	; 0x80000
     4a8:	2c000017 	stccs	0, cr0, [r0], {23}
     4ac:	08030034 	stmdaeq	r3, {r2, r4, r5}
     4b0:	0b3b0b3a 	bleq	ec31a0 <__bss_end__+0xeb91a0>
     4b4:	13490b39 	movtne	r0, #39737	; 0x9b39
     4b8:	42b71702 	adcsmi	r1, r7, #524288	; 0x80000
     4bc:	2d000017 	stccs	0, cr0, [r0, #-92]	; 0xffffffa4
     4c0:	0e030034 	mcreq	0, 0, r0, cr3, cr4, {1}
     4c4:	19341349 	ldmdbne	r4!, {r0, r3, r6, r8, r9, ip}
     4c8:	00001802 	andeq	r1, r0, r2, lsl #16
     4cc:	0182892e 	orreq	r8, r2, lr, lsr #18
     4d0:	31011100 	mrscc	r1, (UNDEF: 17)
     4d4:	2f000013 	svccs	0x00000013
     4d8:	193f012e 	ldmdbne	pc!, {r1, r2, r3, r5, r8}	; <UNPREDICTABLE>
     4dc:	0b3a0e03 	bleq	e83cf0 <__bss_end__+0xe79cf0>
     4e0:	0b390b3b 	bleq	e431d4 <__bss_end__+0xe391d4>
     4e4:	01111927 	tsteq	r1, r7, lsr #18
     4e8:	18400612 	stmdane	r0, {r1, r4, r9, sl}^
     4ec:	01194297 			; <UNDEFINED> instruction: 0x01194297
     4f0:	30000013 	andcc	r0, r0, r3, lsl r0
     4f4:	0e03012e 	adfeqsp	f0, f3, #0.5
     4f8:	0b3b0b3a 	bleq	ec31e8 <__bss_end__+0xeb91e8>
     4fc:	19270b39 	stmdbne	r7!, {r0, r3, r4, r5, r8, r9, fp}
     500:	01111349 	tsteq	r1, r9, asr #6
     504:	18400612 	stmdane	r0, {r1, r4, r9, sl}^
     508:	01194297 			; <UNDEFINED> instruction: 0x01194297
     50c:	31000013 	tstcc	r0, r3, lsl r0
     510:	08030005 	stmdaeq	r3, {r0, r2}
     514:	0b3b0b3a 	bleq	ec3204 <__bss_end__+0xeb9204>
     518:	13490b39 	movtne	r0, #39737	; 0x9b39
     51c:	42b71702 	adcsmi	r1, r7, #524288	; 0x80000
     520:	32000017 	andcc	r0, r0, #23
     524:	0e03012e 	adfeqsp	f0, f3, #0.5
     528:	0b3b0b3a 	bleq	ec3218 <__bss_end__+0xeb9218>
     52c:	19270b39 	stmdbne	r7!, {r0, r3, r4, r5, r8, r9, fp}
     530:	06120111 			; <UNDEFINED> instruction: 0x06120111
     534:	42971840 	addsmi	r1, r7, #64, 16	; 0x400000
     538:	00130119 	andseq	r0, r3, r9, lsl r1
     53c:	010b3300 	mrseq	r3, (UNDEF: 59)
     540:	06120111 			; <UNDEFINED> instruction: 0x06120111
     544:	1d340000 	ldcne	0, cr0, [r4, #-0]
     548:	52133101 	andspl	r3, r3, #1073741824	; 0x40000000
     54c:	0b42b801 	bleq	10ae558 <__bss_end__+0x10a4558>
     550:	0b581755 	bleq	16062ac <__bss_end__+0x15fc2ac>
     554:	0b570b59 	bleq	15c32c0 <__bss_end__+0x15b92c0>
     558:	00001301 	andeq	r1, r0, r1, lsl #6
     55c:	31000535 	tstcc	r0, r5, lsr r5
     560:	b7170213 			; <UNDEFINED> instruction: 0xb7170213
     564:	00001742 	andeq	r1, r0, r2, asr #14
     568:	55010b36 	strpl	r0, [r1, #-2870]	; 0xfffff4ca
     56c:	37000017 	smladcc	r0, r7, r0, r0
     570:	13310034 	teqne	r1, #52	; 0x34
     574:	42b71702 	adcsmi	r1, r7, #524288	; 0x80000
     578:	38000017 	stmdacc	r0, {r0, r1, r2, r4}
     57c:	0e03012e 	adfeqsp	f0, f3, #0.5
     580:	0b3b0b3a 	bleq	ec3270 <__bss_end__+0xeb9270>
     584:	19270b39 	stmdbne	r7!, {r0, r3, r4, r5, r8, r9, fp}
     588:	13010b20 	movwne	r0, #6944	; 0x1b20
     58c:	05390000 	ldreq	r0, [r9, #-0]!
     590:	3a080300 	bcc	201198 <__bss_end__+0x1f7198>
     594:	390b3b0b 	stmdbcc	fp, {r0, r1, r3, r8, r9, fp, ip, sp}
     598:	0013490b 	andseq	r4, r3, fp, lsl #18
     59c:	00343a00 	eorseq	r3, r4, r0, lsl #20
     5a0:	0b3a0803 	bleq	e825b4 <__bss_end__+0xe785b4>
     5a4:	0b390b3b 	bleq	e43298 <__bss_end__+0xe39298>
     5a8:	00001349 	andeq	r1, r0, r9, asr #6
     5ac:	3f002e3b 	svccc	0x00002e3b
     5b0:	6e193c19 	mrcvs	12, 0, r3, cr9, cr9, {0}
     5b4:	3a0e030e 	bcc	3811f4 <__bss_end__+0x3771f4>
     5b8:	390b3b0b 	stmdbcc	fp, {r0, r1, r3, r8, r9, fp, ip, sp}
     5bc:	0000000b 	andeq	r0, r0, fp
     5c0:	25011101 	strcs	r1, [r1, #-257]	; 0xfffffeff
     5c4:	030b130e 	movweq	r1, #45838	; 0xb30e
     5c8:	110e1b0e 	tstne	lr, lr, lsl #22
     5cc:	10061201 	andne	r1, r6, r1, lsl #4
     5d0:	02000017 	andeq	r0, r0, #23
     5d4:	0b0b0024 	bleq	2c066c <__bss_end__+0x2b666c>
     5d8:	08030b3e 	stmdaeq	r3, {r1, r2, r3, r4, r5, r8, r9, fp}
     5dc:	24030000 	strcs	r0, [r3], #-0
     5e0:	3e0b0b00 	vmlacc.f64	d0, d11, d0
     5e4:	000e030b 	andeq	r0, lr, fp, lsl #6
     5e8:	00160400 	andseq	r0, r6, r0, lsl #8
     5ec:	0b3a0e03 	bleq	e83e00 <__bss_end__+0xe79e00>
     5f0:	0b390b3b 	bleq	e432e4 <__bss_end__+0xe392e4>
     5f4:	00001349 	andeq	r1, r0, r9, asr #6
     5f8:	0b000f05 	bleq	4214 <_start-0x3dec>
     5fc:	0013490b 	andseq	r4, r3, fp, lsl #18
     600:	00130600 	andseq	r0, r3, r0, lsl #12
     604:	193c0e03 	ldmdbne	ip!, {r0, r1, r9, sl, fp}
     608:	16070000 	strne	r0, [r7], -r0
     60c:	3a0e0300 	bcc	381214 <__bss_end__+0x377214>
     610:	39053b0b 	stmdbcc	r5, {r0, r1, r3, r8, r9, fp, ip, sp}
     614:	0013490b 	andseq	r4, r3, fp, lsl #18
     618:	01170800 	tsteq	r7, r0, lsl #16
     61c:	0b3a0b0b 	bleq	e83250 <__bss_end__+0xe79250>
     620:	0b390b3b 	bleq	e43314 <__bss_end__+0xe39314>
     624:	00001301 	andeq	r1, r0, r1, lsl #6
     628:	03000d09 	movweq	r0, #3337	; 0xd09
     62c:	3b0b3a0e 	blcc	2cee6c <__bss_end__+0x2c4e6c>
     630:	490b390b 	stmdbmi	fp, {r0, r1, r3, r8, fp, ip, sp}
     634:	0a000013 	beq	688 <_start-0x7978>
     638:	13490101 	movtne	r0, #37121	; 0x9101
     63c:	00001301 	andeq	r1, r0, r1, lsl #6
     640:	4900210b 	stmdbmi	r0, {r0, r1, r3, r8, sp}
     644:	000b2f13 	andeq	r2, fp, r3, lsl pc
     648:	01130c00 	tsteq	r3, r0, lsl #24
     64c:	0b3a0b0b 	bleq	e83280 <__bss_end__+0xe79280>
     650:	0b390b3b 	bleq	e43344 <__bss_end__+0xe39344>
     654:	00001301 	andeq	r1, r0, r1, lsl #6
     658:	03000d0d 	movweq	r0, #3341	; 0xd0d
     65c:	3b0b3a0e 	blcc	2cee9c <__bss_end__+0x2c4e9c>
     660:	490b390b 	stmdbmi	fp, {r0, r1, r3, r8, fp, ip, sp}
     664:	000b3813 	andeq	r3, fp, r3, lsl r8
     668:	000f0e00 	andeq	r0, pc, r0, lsl #28
     66c:	00000b0b 	andeq	r0, r0, fp, lsl #22
     670:	4900260f 	stmdbmi	r0, {r0, r1, r2, r3, r9, sl, sp}
     674:	10000013 	andne	r0, r0, r3, lsl r0
     678:	0e030113 	mcreq	1, 0, r0, cr3, cr3, {0}
     67c:	0b3a0b0b 	bleq	e832b0 <__bss_end__+0xe792b0>
     680:	0b390b3b 	bleq	e43374 <__bss_end__+0xe39374>
     684:	00001301 	andeq	r1, r0, r1, lsl #6
     688:	03000d11 	movweq	r0, #3345	; 0xd11
     68c:	3b0b3a08 	blcc	2ceeb4 <__bss_end__+0x2c4eb4>
     690:	490b390b 	stmdbmi	fp, {r0, r1, r3, r8, fp, ip, sp}
     694:	000b3813 	andeq	r3, fp, r3, lsl r8
     698:	01131200 	tsteq	r3, r0, lsl #4
     69c:	050b0e03 	streq	r0, [fp, #-3587]	; 0xfffff1fd
     6a0:	0b3b0b3a 	bleq	ec3390 <__bss_end__+0xeb9390>
     6a4:	13010b39 	movwne	r0, #6969	; 0x1b39
     6a8:	0d130000 	ldceq	0, cr0, [r3, #-0]
     6ac:	3a0e0300 	bcc	3812b4 <__bss_end__+0x3772b4>
     6b0:	390b3b0b 	stmdbcc	fp, {r0, r1, r3, r8, r9, fp, ip, sp}
     6b4:	3813490b 	ldmdacc	r3, {r0, r1, r3, r8, fp, lr}
     6b8:	14000005 	strne	r0, [r0], #-5
     6bc:	19270015 	stmdbne	r7!, {r0, r2, r4}
     6c0:	15150000 	ldrne	r0, [r5, #-0]
     6c4:	49192701 	ldmdbmi	r9, {r0, r8, r9, sl, sp}
     6c8:	00130113 	andseq	r0, r3, r3, lsl r1
     6cc:	00051600 	andeq	r1, r5, r0, lsl #12
     6d0:	00001349 	andeq	r1, r0, r9, asr #6
     6d4:	03011317 	movweq	r1, #4887	; 0x1317
     6d8:	3a050b0e 	bcc	143318 <__bss_end__+0x139318>
     6dc:	39053b0b 	stmdbcc	r5, {r0, r1, r3, r8, r9, fp, ip, sp}
     6e0:	0013010b 	andseq	r0, r3, fp, lsl #2
     6e4:	000d1800 	andeq	r1, sp, r0, lsl #16
     6e8:	0b3a0e03 	bleq	e83efc <__bss_end__+0xe79efc>
     6ec:	0b39053b 	bleq	e41be0 <__bss_end__+0xe37be0>
     6f0:	0b381349 	bleq	e0541c <__bss_end__+0xdfb41c>
     6f4:	0d190000 	ldceq	0, cr0, [r9, #-0]
     6f8:	3a0e0300 	bcc	381300 <__bss_end__+0x377300>
     6fc:	39053b0b 	stmdbcc	r5, {r0, r1, r3, r8, r9, fp, ip, sp}
     700:	3813490b 	ldmdacc	r3, {r0, r1, r3, r8, fp, lr}
     704:	1a000005 	bne	720 <_start-0x78e0>
     708:	0e030113 	mcreq	1, 0, r0, cr3, cr3, {0}
     70c:	0b3a0b0b 	bleq	e83340 <__bss_end__+0xe79340>
     710:	0b39053b 	bleq	e41c04 <__bss_end__+0xe37c04>
     714:	00001301 	andeq	r1, r0, r1, lsl #6
     718:	0b01131b 	bleq	4538c <__bss_end__+0x3b38c>
     71c:	3b0b3a0b 	blcc	2cef50 <__bss_end__+0x2c4f50>
     720:	010b3905 	tsteq	fp, r5, lsl #18
     724:	1c000013 	stcne	0, cr0, [r0], {19}
     728:	0b0b0117 	bleq	2c0b8c <__bss_end__+0x2b6b8c>
     72c:	053b0b3a 	ldreq	r0, [fp, #-2874]!	; 0xfffff4c6
     730:	13010b39 	movwne	r0, #6969	; 0x1b39
     734:	0d1d0000 	ldceq	0, cr0, [sp, #-0]
     738:	3a0e0300 	bcc	381340 <__bss_end__+0x377340>
     73c:	39053b0b 	stmdbcc	r5, {r0, r1, r3, r8, r9, fp, ip, sp}
     740:	0013490b 	andseq	r4, r3, fp, lsl #18
     744:	01151e00 	tsteq	r5, r0, lsl #28
     748:	13011927 	movwne	r1, #6439	; 0x1927
     74c:	341f0000 	ldrcc	r0, [pc], #-0	; 754 <_start-0x78ac>
     750:	3a0e0300 	bcc	381358 <__bss_end__+0x377358>
     754:	39053b0b 	stmdbcc	r5, {r0, r1, r3, r8, r9, fp, ip, sp}
     758:	3f13490b 	svccc	0x0013490b
     75c:	00193c19 	andseq	r3, r9, r9, lsl ip
     760:	00342000 	eorseq	r2, r4, r0
     764:	0b3a0e03 	bleq	e83f78 <__bss_end__+0xe79f78>
     768:	0b390b3b 	bleq	e4345c <__bss_end__+0xe3945c>
     76c:	193f1349 	ldmdbne	pc!, {r0, r3, r6, r8, r9, ip}	; <UNPREDICTABLE>
     770:	0000193c 	andeq	r1, r0, ip, lsr r9
     774:	3f012e21 	svccc	0x00012e21
     778:	3a0e0319 	bcc	3813e4 <__bss_end__+0x3773e4>
     77c:	390b3b0b 	stmdbcc	fp, {r0, r1, r3, r8, r9, fp, ip, sp}
     780:	4919270b 	ldmdbmi	r9, {r0, r1, r3, r8, r9, sl, sp}
     784:	12011113 	andne	r1, r1, #-1073741820	; 0xc0000004
     788:	97184006 	ldrls	r4, [r8, -r6]
     78c:	13011942 	movwne	r1, #6466	; 0x1942
     790:	05220000 	streq	r0, [r2, #-0]!
     794:	3a0e0300 	bcc	38139c <__bss_end__+0x37739c>
     798:	390b3b0b 	stmdbcc	fp, {r0, r1, r3, r8, r9, fp, ip, sp}
     79c:	0213490b 	andseq	r4, r3, #180224	; 0x2c000
     7a0:	1742b717 	smlaldne	fp, r2, r7, r7
     7a4:	05230000 	streq	r0, [r3, #-0]!
     7a8:	3a080300 	bcc	2013b0 <__bss_end__+0x1f73b0>
     7ac:	390b3b0b 	stmdbcc	fp, {r0, r1, r3, r8, r9, fp, ip, sp}
     7b0:	0213490b 	andseq	r4, r3, #180224	; 0x2c000
     7b4:	1742b717 	smlaldne	fp, r2, r7, r7
     7b8:	34240000 	strtcc	r0, [r4], #-0
     7bc:	3a0e0300 	bcc	3813c4 <__bss_end__+0x3773c4>
     7c0:	390b3b0b 	stmdbcc	fp, {r0, r1, r3, r8, r9, fp, ip, sp}
     7c4:	0213490b 	andseq	r4, r3, #180224	; 0x2c000
     7c8:	1742b717 	smlaldne	fp, r2, r7, r7
     7cc:	34250000 	strtcc	r0, [r5], #-0
     7d0:	3a080300 	bcc	2013d8 <__bss_end__+0x1f73d8>
     7d4:	390b3b0b 	stmdbcc	fp, {r0, r1, r3, r8, r9, fp, ip, sp}
     7d8:	0213490b 	andseq	r4, r3, #180224	; 0x2c000
     7dc:	1742b717 	smlaldne	fp, r2, r7, r7
     7e0:	26260000 	strtcs	r0, [r6], -r0
     7e4:	00000000 	andeq	r0, r0, r0
     7e8:	25011101 	strcs	r1, [r1, #-257]	; 0xfffffeff
     7ec:	030b130e 	movweq	r1, #45838	; 0xb30e
     7f0:	110e1b0e 	tstne	lr, lr, lsl #22
     7f4:	10061201 	andne	r1, r6, r1, lsl #4
     7f8:	02000017 	andeq	r0, r0, #23
     7fc:	0b0b0024 	bleq	2c0894 <__bss_end__+0x2b6894>
     800:	08030b3e 	stmdaeq	r3, {r1, r2, r3, r4, r5, r8, r9, fp}
     804:	16030000 	strne	r0, [r3], -r0
     808:	3a0e0300 	bcc	381410 <__bss_end__+0x377410>
     80c:	390b3b0b 	stmdbcc	fp, {r0, r1, r3, r8, r9, fp, ip, sp}
     810:	0013490b 	andseq	r4, r3, fp, lsl #18
     814:	00240400 	eoreq	r0, r4, r0, lsl #8
     818:	0b3e0b0b 	bleq	f8344c <__bss_end__+0xf7944c>
     81c:	00000e03 	andeq	r0, r0, r3, lsl #28
     820:	0b000f05 	bleq	443c <_start-0x3bc4>
     824:	0013490b 	andseq	r4, r3, fp, lsl #18
     828:	00130600 	andseq	r0, r3, r0, lsl #12
     82c:	193c0e03 	ldmdbne	ip!, {r0, r1, r9, sl, fp}
     830:	16070000 	strne	r0, [r7], -r0
     834:	3a0e0300 	bcc	38143c <__bss_end__+0x37743c>
     838:	39053b0b 	stmdbcc	r5, {r0, r1, r3, r8, r9, fp, ip, sp}
     83c:	0013490b 	andseq	r4, r3, fp, lsl #18
     840:	01170800 	tsteq	r7, r0, lsl #16
     844:	0b3a0b0b 	bleq	e83478 <__bss_end__+0xe79478>
     848:	0b390b3b 	bleq	e4353c <__bss_end__+0xe3953c>
     84c:	00001301 	andeq	r1, r0, r1, lsl #6
     850:	03000d09 	movweq	r0, #3337	; 0xd09
     854:	3b0b3a0e 	blcc	2cf094 <__bss_end__+0x2c5094>
     858:	490b390b 	stmdbmi	fp, {r0, r1, r3, r8, fp, ip, sp}
     85c:	0a000013 	beq	8b0 <_start-0x7750>
     860:	13490101 	movtne	r0, #37121	; 0x9101
     864:	00001301 	andeq	r1, r0, r1, lsl #6
     868:	4900210b 	stmdbmi	r0, {r0, r1, r3, r8, sp}
     86c:	000b2f13 	andeq	r2, fp, r3, lsl pc
     870:	01130c00 	tsteq	r3, r0, lsl #24
     874:	0b3a0b0b 	bleq	e834a8 <__bss_end__+0xe794a8>
     878:	0b390b3b 	bleq	e4356c <__bss_end__+0xe3956c>
     87c:	00001301 	andeq	r1, r0, r1, lsl #6
     880:	03000d0d 	movweq	r0, #3341	; 0xd0d
     884:	3b0b3a0e 	blcc	2cf0c4 <__bss_end__+0x2c50c4>
     888:	490b390b 	stmdbmi	fp, {r0, r1, r3, r8, fp, ip, sp}
     88c:	000b3813 	andeq	r3, fp, r3, lsl r8
     890:	000f0e00 	andeq	r0, pc, r0, lsl #28
     894:	00000b0b 	andeq	r0, r0, fp, lsl #22
     898:	4900260f 	stmdbmi	r0, {r0, r1, r2, r3, r9, sl, sp}
     89c:	10000013 	andne	r0, r0, r3, lsl r0
     8a0:	0e030113 	mcreq	1, 0, r0, cr3, cr3, {0}
     8a4:	0b3a0b0b 	bleq	e834d8 <__bss_end__+0xe794d8>
     8a8:	0b390b3b 	bleq	e4359c <__bss_end__+0xe3959c>
     8ac:	00001301 	andeq	r1, r0, r1, lsl #6
     8b0:	03000d11 	movweq	r0, #3345	; 0xd11
     8b4:	3b0b3a08 	blcc	2cf0dc <__bss_end__+0x2c50dc>
     8b8:	490b390b 	stmdbmi	fp, {r0, r1, r3, r8, fp, ip, sp}
     8bc:	000b3813 	andeq	r3, fp, r3, lsl r8
     8c0:	01131200 	tsteq	r3, r0, lsl #4
     8c4:	050b0e03 	streq	r0, [fp, #-3587]	; 0xfffff1fd
     8c8:	0b3b0b3a 	bleq	ec35b8 <__bss_end__+0xeb95b8>
     8cc:	13010b39 	movwne	r0, #6969	; 0x1b39
     8d0:	0d130000 	ldceq	0, cr0, [r3, #-0]
     8d4:	3a0e0300 	bcc	3814dc <__bss_end__+0x3774dc>
     8d8:	390b3b0b 	stmdbcc	fp, {r0, r1, r3, r8, r9, fp, ip, sp}
     8dc:	3813490b 	ldmdacc	r3, {r0, r1, r3, r8, fp, lr}
     8e0:	14000005 	strne	r0, [r0], #-5
     8e4:	19270015 	stmdbne	r7!, {r0, r2, r4}
     8e8:	15150000 	ldrne	r0, [r5, #-0]
     8ec:	49192701 	ldmdbmi	r9, {r0, r8, r9, sl, sp}
     8f0:	00130113 	andseq	r0, r3, r3, lsl r1
     8f4:	00051600 	andeq	r1, r5, r0, lsl #12
     8f8:	00001349 	andeq	r1, r0, r9, asr #6
     8fc:	03011317 	movweq	r1, #4887	; 0x1317
     900:	3a050b0e 	bcc	143540 <__bss_end__+0x139540>
     904:	39053b0b 	stmdbcc	r5, {r0, r1, r3, r8, r9, fp, ip, sp}
     908:	0013010b 	andseq	r0, r3, fp, lsl #2
     90c:	000d1800 	andeq	r1, sp, r0, lsl #16
     910:	0b3a0e03 	bleq	e84124 <__bss_end__+0xe7a124>
     914:	0b39053b 	bleq	e41e08 <__bss_end__+0xe37e08>
     918:	0b381349 	bleq	e05644 <__bss_end__+0xdfb644>
     91c:	0d190000 	ldceq	0, cr0, [r9, #-0]
     920:	3a0e0300 	bcc	381528 <__bss_end__+0x377528>
     924:	39053b0b 	stmdbcc	r5, {r0, r1, r3, r8, r9, fp, ip, sp}
     928:	3813490b 	ldmdacc	r3, {r0, r1, r3, r8, fp, lr}
     92c:	1a000005 	bne	948 <_start-0x76b8>
     930:	0e030113 	mcreq	1, 0, r0, cr3, cr3, {0}
     934:	0b3a0b0b 	bleq	e83568 <__bss_end__+0xe79568>
     938:	0b39053b 	bleq	e41e2c <__bss_end__+0xe37e2c>
     93c:	00001301 	andeq	r1, r0, r1, lsl #6
     940:	0b01131b 	bleq	455b4 <__bss_end__+0x3b5b4>
     944:	3b0b3a0b 	blcc	2cf178 <__bss_end__+0x2c5178>
     948:	010b3905 	tsteq	fp, r5, lsl #18
     94c:	1c000013 	stcne	0, cr0, [r0], {19}
     950:	0b0b0117 	bleq	2c0db4 <__bss_end__+0x2b6db4>
     954:	053b0b3a 	ldreq	r0, [fp, #-2874]!	; 0xfffff4c6
     958:	13010b39 	movwne	r0, #6969	; 0x1b39
     95c:	0d1d0000 	ldceq	0, cr0, [sp, #-0]
     960:	3a0e0300 	bcc	381568 <__bss_end__+0x377568>
     964:	39053b0b 	stmdbcc	r5, {r0, r1, r3, r8, r9, fp, ip, sp}
     968:	0013490b 	andseq	r4, r3, fp, lsl #18
     96c:	01151e00 	tsteq	r5, r0, lsl #28
     970:	13011927 	movwne	r1, #6439	; 0x1927
     974:	341f0000 	ldrcc	r0, [pc], #-0	; 97c <_start-0x7684>
     978:	3a0e0300 	bcc	381580 <__bss_end__+0x377580>
     97c:	39053b0b 	stmdbcc	r5, {r0, r1, r3, r8, r9, fp, ip, sp}
     980:	3f13490b 	svccc	0x0013490b
     984:	00193c19 	andseq	r3, r9, r9, lsl ip
     988:	012e2000 			; <UNDEFINED> instruction: 0x012e2000
     98c:	0e03193f 			; <UNDEFINED> instruction: 0x0e03193f
     990:	0b3b0b3a 	bleq	ec3680 <__bss_end__+0xeb9680>
     994:	19270b39 	stmdbne	r7!, {r0, r3, r4, r5, r8, r9, fp}
     998:	01111349 	tsteq	r1, r9, asr #6
     99c:	18400612 	stmdane	r0, {r1, r4, r9, sl}^
     9a0:	00194297 	mulseq	r9, r7, r2
     9a4:	00052100 	andeq	r2, r5, r0, lsl #2
     9a8:	0b3a0803 	bleq	e829bc <__bss_end__+0xe789bc>
     9ac:	0b390b3b 	bleq	e436a0 <__bss_end__+0xe396a0>
     9b0:	18021349 	stmdane	r2, {r0, r3, r6, r8, r9, ip}
     9b4:	05220000 	streq	r0, [r2, #-0]!
     9b8:	3a080300 	bcc	2015c0 <__bss_end__+0x1f75c0>
     9bc:	390b3b0b 	stmdbcc	fp, {r0, r1, r3, r8, r9, fp, ip, sp}
     9c0:	0213490b 	andseq	r4, r3, #180224	; 0x2c000
     9c4:	1742b717 	smlaldne	fp, r2, r7, r7
     9c8:	34230000 	strtcc	r0, [r3], #-0
     9cc:	3a080300 	bcc	2015d4 <__bss_end__+0x1f75d4>
     9d0:	390b3b0b 	stmdbcc	fp, {r0, r1, r3, r8, r9, fp, ip, sp}
     9d4:	0213490b 	andseq	r4, r3, #180224	; 0x2c000
     9d8:	1742b717 	smlaldne	fp, r2, r7, r7
     9dc:	01000000 	mrseq	r0, (UNDEF: 0)
     9e0:	0e250111 	mcreq	1, 1, r0, cr5, cr1, {0}
     9e4:	0e030b13 	vmoveq.32	d3[0], r0
     9e8:	01110e1b 	tsteq	r1, fp, lsl lr
     9ec:	17100612 			; <UNDEFINED> instruction: 0x17100612
     9f0:	16020000 	strne	r0, [r2], -r0
     9f4:	3a0e0300 	bcc	3815fc <__bss_end__+0x3775fc>
     9f8:	390b3b0b 	stmdbcc	fp, {r0, r1, r3, r8, r9, fp, ip, sp}
     9fc:	0013490b 	andseq	r4, r3, fp, lsl #18
     a00:	01130300 	tsteq	r3, r0, lsl #6
     a04:	0b0b0e03 	bleq	2c4218 <__bss_end__+0x2ba218>
     a08:	0b3b0b3a 	bleq	ec36f8 <__bss_end__+0xeb96f8>
     a0c:	00001301 	andeq	r1, r0, r1, lsl #6
     a10:	03000d04 	movweq	r0, #3332	; 0xd04
     a14:	3813490e 	ldmdacc	r3, {r1, r2, r3, r8, fp, lr}
     a18:	0019340b 	andseq	r3, r9, fp, lsl #8
     a1c:	000f0500 	andeq	r0, pc, r0, lsl #10
     a20:	00000b0b 	andeq	r0, r0, fp, lsl #22
     a24:	0b002406 	bleq	9a44 <__FUNCTION__.4407+0x88>
     a28:	030b3e0b 	movweq	r3, #48651	; 0xbe0b
     a2c:	07000008 	streq	r0, [r0, -r8]
     a30:	0b0b0024 	bleq	2c0ac8 <__bss_end__+0x2b6ac8>
     a34:	0e030b3e 	vmoveq.16	d3[0], r0
     a38:	0f080000 	svceq	0x00080000
     a3c:	490b0b00 	stmdbmi	fp, {r8, r9, fp}
     a40:	09000013 	stmdbeq	r0, {r0, r1, r4}
     a44:	0e030013 	mcreq	0, 0, r0, cr3, cr3, {0}
     a48:	0000193c 	andeq	r1, r0, ip, lsr r9
     a4c:	0300160a 	movweq	r1, #1546	; 0x60a
     a50:	3b0b3a0e 	blcc	2cf290 <__bss_end__+0x2c5290>
     a54:	490b3905 	stmdbmi	fp, {r0, r2, r8, fp, ip, sp}
     a58:	0b000013 	bleq	aac <_start-0x7554>
     a5c:	0b0b0117 	bleq	2c0ec0 <__bss_end__+0x2b6ec0>
     a60:	0b3b0b3a 	bleq	ec3750 <__bss_end__+0xeb9750>
     a64:	13010b39 	movwne	r0, #6969	; 0x1b39
     a68:	0d0c0000 	stceq	0, cr0, [ip, #-0]
     a6c:	3a0e0300 	bcc	381674 <__bss_end__+0x377674>
     a70:	390b3b0b 	stmdbcc	fp, {r0, r1, r3, r8, r9, fp, ip, sp}
     a74:	0013490b 	andseq	r4, r3, fp, lsl #18
     a78:	01010d00 	tsteq	r1, r0, lsl #26
     a7c:	13011349 	movwne	r1, #4937	; 0x1349
     a80:	210e0000 	mrscs	r0, (UNDEF: 14)
     a84:	2f134900 	svccs	0x00134900
     a88:	0f00000b 	svceq	0x0000000b
     a8c:	0b0b0113 	bleq	2c0ee0 <__bss_end__+0x2b6ee0>
     a90:	0b3b0b3a 	bleq	ec3780 <__bss_end__+0xeb9780>
     a94:	13010b39 	movwne	r0, #6969	; 0x1b39
     a98:	0d100000 	ldceq	0, cr0, [r0, #-0]
     a9c:	3a0e0300 	bcc	3816a4 <__bss_end__+0x3776a4>
     aa0:	390b3b0b 	stmdbcc	fp, {r0, r1, r3, r8, r9, fp, ip, sp}
     aa4:	3813490b 	ldmdacc	r3, {r0, r1, r3, r8, fp, lr}
     aa8:	1100000b 	tstne	r0, fp
     aac:	13490026 	movtne	r0, #36902	; 0x9026
     ab0:	13120000 	tstne	r2, #0
     ab4:	0b0e0301 	bleq	3816c0 <__bss_end__+0x3776c0>
     ab8:	3b0b3a0b 	blcc	2cf2ec <__bss_end__+0x2c52ec>
     abc:	010b390b 	tsteq	fp, fp, lsl #18
     ac0:	13000013 	movwne	r0, #19
     ac4:	0803000d 	stmdaeq	r3, {r0, r2, r3}
     ac8:	0b3b0b3a 	bleq	ec37b8 <__bss_end__+0xeb97b8>
     acc:	13490b39 	movtne	r0, #39737	; 0x9b39
     ad0:	00000b38 	andeq	r0, r0, r8, lsr fp
     ad4:	03011314 	movweq	r1, #4884	; 0x1314
     ad8:	3a050b0e 	bcc	143718 <__bss_end__+0x139718>
     adc:	390b3b0b 	stmdbcc	fp, {r0, r1, r3, r8, r9, fp, ip, sp}
     ae0:	0013010b 	andseq	r0, r3, fp, lsl #2
     ae4:	000d1500 	andeq	r1, sp, r0, lsl #10
     ae8:	0b3a0e03 	bleq	e842fc <__bss_end__+0xe7a2fc>
     aec:	0b390b3b 	bleq	e437e0 <__bss_end__+0xe397e0>
     af0:	05381349 	ldreq	r1, [r8, #-841]!	; 0xfffffcb7
     af4:	15160000 	ldrne	r0, [r6, #-0]
     af8:	00192700 	andseq	r2, r9, r0, lsl #14
     afc:	01151700 	tsteq	r5, r0, lsl #14
     b00:	13491927 	movtne	r1, #39207	; 0x9927
     b04:	00001301 	andeq	r1, r0, r1, lsl #6
     b08:	49000518 	stmdbmi	r0, {r3, r4, r8, sl}
     b0c:	19000013 	stmdbne	r0, {r0, r1, r4}
     b10:	0e030113 	mcreq	1, 0, r0, cr3, cr3, {0}
     b14:	0b3a050b 	bleq	e81f48 <__bss_end__+0xe77f48>
     b18:	0b39053b 	bleq	e4200c <__bss_end__+0xe3800c>
     b1c:	00001301 	andeq	r1, r0, r1, lsl #6
     b20:	03000d1a 	movweq	r0, #3354	; 0xd1a
     b24:	3b0b3a0e 	blcc	2cf364 <__bss_end__+0x2c5364>
     b28:	490b3905 	stmdbmi	fp, {r0, r2, r8, fp, ip, sp}
     b2c:	000b3813 	andeq	r3, fp, r3, lsl r8
     b30:	000d1b00 	andeq	r1, sp, r0, lsl #22
     b34:	0b3a0e03 	bleq	e84348 <__bss_end__+0xe7a348>
     b38:	0b39053b 	bleq	e4202c <__bss_end__+0xe3802c>
     b3c:	05381349 	ldreq	r1, [r8, #-841]!	; 0xfffffcb7
     b40:	131c0000 	tstne	ip, #0
     b44:	0b0e0301 	bleq	381750 <__bss_end__+0x377750>
     b48:	3b0b3a0b 	blcc	2cf37c <__bss_end__+0x2c537c>
     b4c:	010b3905 	tsteq	fp, r5, lsl #18
     b50:	1d000013 	stcne	0, cr0, [r0, #-76]	; 0xffffffb4
     b54:	0b0b0113 	bleq	2c0fa8 <__bss_end__+0x2b6fa8>
     b58:	053b0b3a 	ldreq	r0, [fp, #-2874]!	; 0xfffff4c6
     b5c:	13010b39 	movwne	r0, #6969	; 0x1b39
     b60:	171e0000 	ldrne	r0, [lr, -r0]
     b64:	3a0b0b01 	bcc	2c3770 <__bss_end__+0x2b9770>
     b68:	39053b0b 	stmdbcc	r5, {r0, r1, r3, r8, r9, fp, ip, sp}
     b6c:	0013010b 	andseq	r0, r3, fp, lsl #2
     b70:	000d1f00 	andeq	r1, sp, r0, lsl #30
     b74:	0b3a0e03 	bleq	e84388 <__bss_end__+0xe7a388>
     b78:	0b39053b 	bleq	e4206c <__bss_end__+0xe3806c>
     b7c:	00001349 	andeq	r1, r0, r9, asr #6
     b80:	27011520 	strcs	r1, [r1, -r0, lsr #10]
     b84:	00130119 	andseq	r0, r3, r9, lsl r1
     b88:	00342100 	eorseq	r2, r4, r0, lsl #2
     b8c:	0b3a0e03 	bleq	e843a0 <__bss_end__+0xe7a3a0>
     b90:	0b39053b 	bleq	e42084 <__bss_end__+0xe38084>
     b94:	193f1349 	ldmdbne	pc!, {r0, r3, r6, r8, r9, ip}	; <UNPREDICTABLE>
     b98:	0000193c 	andeq	r1, r0, ip, lsr r9
     b9c:	03003422 	movweq	r3, #1058	; 0x422
     ba0:	3b0b3a0e 	blcc	2cf3e0 <__bss_end__+0x2c53e0>
     ba4:	490b390b 	stmdbmi	fp, {r0, r1, r3, r8, fp, ip, sp}
     ba8:	3c193f13 	ldccc	15, cr3, [r9], {19}
     bac:	23000019 	movwcs	r0, #25
     bb0:	193f012e 	ldmdbne	pc!, {r1, r2, r3, r5, r8}	; <UNPREDICTABLE>
     bb4:	0b3a0e03 	bleq	e843c8 <__bss_end__+0xe7a3c8>
     bb8:	0b390b3b 	bleq	e438ac <__bss_end__+0xe398ac>
     bbc:	13491927 	movtne	r1, #39207	; 0x9927
     bc0:	06120111 			; <UNDEFINED> instruction: 0x06120111
     bc4:	42971840 	addsmi	r1, r7, #64, 16	; 0x400000
     bc8:	00130119 	andseq	r0, r3, r9, lsl r1
     bcc:	00052400 	andeq	r2, r5, r0, lsl #8
     bd0:	0b3a0803 	bleq	e82be4 <__bss_end__+0xe78be4>
     bd4:	0b390b3b 	bleq	e438c8 <__bss_end__+0xe398c8>
     bd8:	18021349 	stmdane	r2, {r0, r3, r6, r8, r9, ip}
     bdc:	18250000 	stmdane	r5!, {}	; <UNPREDICTABLE>
     be0:	26000000 	strcs	r0, [r0], -r0
     be4:	08030034 	stmdaeq	r3, {r2, r4, r5}
     be8:	0b3b0b3a 	bleq	ec38d8 <__bss_end__+0xeb98d8>
     bec:	13490b39 	movtne	r0, #39737	; 0x9b39
     bf0:	00001802 	andeq	r1, r0, r2, lsl #16
     bf4:	03003427 	movweq	r3, #1063	; 0x427
     bf8:	3b0b3a0e 	blcc	2cf438 <__bss_end__+0x2c5438>
     bfc:	490b390b 	stmdbmi	fp, {r0, r1, r3, r8, fp, ip, sp}
     c00:	00180213 	andseq	r0, r8, r3, lsl r2
     c04:	00342800 	eorseq	r2, r4, r0, lsl #16
     c08:	0b3a0803 	bleq	e82c1c <__bss_end__+0xe78c1c>
     c0c:	0b390b3b 	bleq	e43900 <__bss_end__+0xe39900>
     c10:	17021349 	strne	r1, [r2, -r9, asr #6]
     c14:	001742b7 			; <UNDEFINED> instruction: 0x001742b7
     c18:	82892900 	addhi	r2, r9, #0, 18
     c1c:	01110101 	tsteq	r1, r1, lsl #2
     c20:	13011331 	movwne	r1, #4913	; 0x1331
     c24:	8a2a0000 	bhi	a80c2c <__bss_end__+0xa76c2c>
     c28:	02000182 	andeq	r0, r0, #-2147483616	; 0x80000020
     c2c:	18429118 	stmdane	r2, {r3, r4, r8, ip, pc}^
     c30:	892b0000 	stmdbhi	fp!, {}	; <UNPREDICTABLE>
     c34:	11010182 	smlabbne	r1, r2, r1, r0
     c38:	2c000001 	stccs	0, cr0, [r0], {1}
     c3c:	13490021 	movtne	r0, #36897	; 0x9021
     c40:	0000052f 	andeq	r0, r0, pc, lsr #10
     c44:	3f002e2d 	svccc	0x00002e2d
     c48:	6e193c19 	mrcvs	12, 0, r3, cr9, cr9, {0}
     c4c:	3a0e030e 	bcc	38188c <__bss_end__+0x37788c>
     c50:	390b3b0b 	stmdbcc	fp, {r0, r1, r3, r8, r9, fp, ip, sp}
     c54:	0000000b 	andeq	r0, r0, fp
     c58:	25011101 	strcs	r1, [r1, #-257]	; 0xfffffeff
     c5c:	030b130e 	movweq	r1, #45838	; 0xb30e
     c60:	110e1b0e 	tstne	lr, lr, lsl #22
     c64:	10061201 	andne	r1, r6, r1, lsl #4
     c68:	02000017 	andeq	r0, r0, #23
     c6c:	0b0b0024 	bleq	2c0d04 <__bss_end__+0x2b6d04>
     c70:	08030b3e 	stmdaeq	r3, {r1, r2, r3, r4, r5, r8, r9, fp}
     c74:	24030000 	strcs	r0, [r3], #-0
     c78:	3e0b0b00 	vmlacc.f64	d0, d11, d0
     c7c:	000e030b 	andeq	r0, lr, fp, lsl #6
     c80:	00160400 	andseq	r0, r6, r0, lsl #8
     c84:	0b3a0e03 	bleq	e84498 <__bss_end__+0xe7a498>
     c88:	0b390b3b 	bleq	e4397c <__bss_end__+0xe3997c>
     c8c:	00001349 	andeq	r1, r0, r9, asr #6
     c90:	0b000f05 	bleq	48ac <_start-0x3754>
     c94:	0013490b 	andseq	r4, r3, fp, lsl #18
     c98:	00130600 	andseq	r0, r3, r0, lsl #12
     c9c:	193c0e03 	ldmdbne	ip!, {r0, r1, r9, sl, fp}
     ca0:	16070000 	strne	r0, [r7], -r0
     ca4:	3a0e0300 	bcc	3818ac <__bss_end__+0x3778ac>
     ca8:	39053b0b 	stmdbcc	r5, {r0, r1, r3, r8, r9, fp, ip, sp}
     cac:	0013490b 	andseq	r4, r3, fp, lsl #18
     cb0:	01170800 	tsteq	r7, r0, lsl #16
     cb4:	0b3a0b0b 	bleq	e838e8 <__bss_end__+0xe798e8>
     cb8:	0b390b3b 	bleq	e439ac <__bss_end__+0xe399ac>
     cbc:	00001301 	andeq	r1, r0, r1, lsl #6
     cc0:	03000d09 	movweq	r0, #3337	; 0xd09
     cc4:	3b0b3a0e 	blcc	2cf504 <__bss_end__+0x2c5504>
     cc8:	490b390b 	stmdbmi	fp, {r0, r1, r3, r8, fp, ip, sp}
     ccc:	0a000013 	beq	d20 <_start-0x72e0>
     cd0:	13490101 	movtne	r0, #37121	; 0x9101
     cd4:	00001301 	andeq	r1, r0, r1, lsl #6
     cd8:	4900210b 	stmdbmi	r0, {r0, r1, r3, r8, sp}
     cdc:	000b2f13 	andeq	r2, fp, r3, lsl pc
     ce0:	01130c00 	tsteq	r3, r0, lsl #24
     ce4:	0b3a0b0b 	bleq	e83918 <__bss_end__+0xe79918>
     ce8:	0b390b3b 	bleq	e439dc <__bss_end__+0xe399dc>
     cec:	00001301 	andeq	r1, r0, r1, lsl #6
     cf0:	03000d0d 	movweq	r0, #3341	; 0xd0d
     cf4:	3b0b3a0e 	blcc	2cf534 <__bss_end__+0x2c5534>
     cf8:	490b390b 	stmdbmi	fp, {r0, r1, r3, r8, fp, ip, sp}
     cfc:	000b3813 	andeq	r3, fp, r3, lsl r8
     d00:	000f0e00 	andeq	r0, pc, r0, lsl #28
     d04:	00000b0b 	andeq	r0, r0, fp, lsl #22
     d08:	4900260f 	stmdbmi	r0, {r0, r1, r2, r3, r9, sl, sp}
     d0c:	10000013 	andne	r0, r0, r3, lsl r0
     d10:	0e030113 	mcreq	1, 0, r0, cr3, cr3, {0}
     d14:	0b3a0b0b 	bleq	e83948 <__bss_end__+0xe79948>
     d18:	0b390b3b 	bleq	e43a0c <__bss_end__+0xe39a0c>
     d1c:	00001301 	andeq	r1, r0, r1, lsl #6
     d20:	03000d11 	movweq	r0, #3345	; 0xd11
     d24:	3b0b3a08 	blcc	2cf54c <__bss_end__+0x2c554c>
     d28:	490b390b 	stmdbmi	fp, {r0, r1, r3, r8, fp, ip, sp}
     d2c:	000b3813 	andeq	r3, fp, r3, lsl r8
     d30:	01131200 	tsteq	r3, r0, lsl #4
     d34:	050b0e03 	streq	r0, [fp, #-3587]	; 0xfffff1fd
     d38:	0b3b0b3a 	bleq	ec3a28 <__bss_end__+0xeb9a28>
     d3c:	13010b39 	movwne	r0, #6969	; 0x1b39
     d40:	0d130000 	ldceq	0, cr0, [r3, #-0]
     d44:	3a0e0300 	bcc	38194c <__bss_end__+0x37794c>
     d48:	390b3b0b 	stmdbcc	fp, {r0, r1, r3, r8, r9, fp, ip, sp}
     d4c:	3813490b 	ldmdacc	r3, {r0, r1, r3, r8, fp, lr}
     d50:	14000005 	strne	r0, [r0], #-5
     d54:	19270015 	stmdbne	r7!, {r0, r2, r4}
     d58:	15150000 	ldrne	r0, [r5, #-0]
     d5c:	49192701 	ldmdbmi	r9, {r0, r8, r9, sl, sp}
     d60:	00130113 	andseq	r0, r3, r3, lsl r1
     d64:	00051600 	andeq	r1, r5, r0, lsl #12
     d68:	00001349 	andeq	r1, r0, r9, asr #6
     d6c:	03011317 	movweq	r1, #4887	; 0x1317
     d70:	3a050b0e 	bcc	1439b0 <__bss_end__+0x1399b0>
     d74:	39053b0b 	stmdbcc	r5, {r0, r1, r3, r8, r9, fp, ip, sp}
     d78:	0013010b 	andseq	r0, r3, fp, lsl #2
     d7c:	000d1800 	andeq	r1, sp, r0, lsl #16
     d80:	0b3a0e03 	bleq	e84594 <__bss_end__+0xe7a594>
     d84:	0b39053b 	bleq	e42278 <__bss_end__+0xe38278>
     d88:	0b381349 	bleq	e05ab4 <__bss_end__+0xdfbab4>
     d8c:	0d190000 	ldceq	0, cr0, [r9, #-0]
     d90:	3a0e0300 	bcc	381998 <__bss_end__+0x377998>
     d94:	39053b0b 	stmdbcc	r5, {r0, r1, r3, r8, r9, fp, ip, sp}
     d98:	3813490b 	ldmdacc	r3, {r0, r1, r3, r8, fp, lr}
     d9c:	1a000005 	bne	db8 <_start-0x7248>
     da0:	0e030113 	mcreq	1, 0, r0, cr3, cr3, {0}
     da4:	0b3a0b0b 	bleq	e839d8 <__bss_end__+0xe799d8>
     da8:	0b39053b 	bleq	e4229c <__bss_end__+0xe3829c>
     dac:	00001301 	andeq	r1, r0, r1, lsl #6
     db0:	0b01131b 	bleq	45a24 <__bss_end__+0x3ba24>
     db4:	3b0b3a0b 	blcc	2cf5e8 <__bss_end__+0x2c55e8>
     db8:	010b3905 	tsteq	fp, r5, lsl #18
     dbc:	1c000013 	stcne	0, cr0, [r0], {19}
     dc0:	0b0b0117 	bleq	2c1224 <__bss_end__+0x2b7224>
     dc4:	053b0b3a 	ldreq	r0, [fp, #-2874]!	; 0xfffff4c6
     dc8:	13010b39 	movwne	r0, #6969	; 0x1b39
     dcc:	0d1d0000 	ldceq	0, cr0, [sp, #-0]
     dd0:	3a0e0300 	bcc	3819d8 <__bss_end__+0x3779d8>
     dd4:	39053b0b 	stmdbcc	r5, {r0, r1, r3, r8, r9, fp, ip, sp}
     dd8:	0013490b 	andseq	r4, r3, fp, lsl #18
     ddc:	01151e00 	tsteq	r5, r0, lsl #28
     de0:	13011927 	movwne	r1, #6439	; 0x1927
     de4:	341f0000 	ldrcc	r0, [pc], #-0	; dec <_start-0x7214>
     de8:	3a0e0300 	bcc	3819f0 <__bss_end__+0x3779f0>
     dec:	39053b0b 	stmdbcc	r5, {r0, r1, r3, r8, r9, fp, ip, sp}
     df0:	3f13490b 	svccc	0x0013490b
     df4:	00193c19 	andseq	r3, r9, r9, lsl ip
     df8:	00342000 	eorseq	r2, r4, r0
     dfc:	0b3a0e03 	bleq	e84610 <__bss_end__+0xe7a610>
     e00:	0b390b3b 	bleq	e43af4 <__bss_end__+0xe39af4>
     e04:	193f1349 	ldmdbne	pc!, {r0, r3, r6, r8, r9, ip}	; <UNPREDICTABLE>
     e08:	0000193c 	andeq	r1, r0, ip, lsr r9
     e0c:	47003421 	strmi	r3, [r0, -r1, lsr #8]
     e10:	3b0b3a13 	blcc	2cf664 <__bss_end__+0x2c5664>
     e14:	020b390b 	andeq	r3, fp, #180224	; 0x2c000
     e18:	22000018 	andcs	r0, r0, #24
     e1c:	193f012e 	ldmdbne	pc!, {r1, r2, r3, r5, r8}	; <UNPREDICTABLE>
     e20:	0b3a0e03 	bleq	e84634 <__bss_end__+0xe7a634>
     e24:	0b390b3b 	bleq	e43b18 <__bss_end__+0xe39b18>
     e28:	01111927 	tsteq	r1, r7, lsr #18
     e2c:	18400612 	stmdane	r0, {r1, r4, r9, sl}^
     e30:	01194297 			; <UNDEFINED> instruction: 0x01194297
     e34:	23000013 	movwcs	r0, #19
     e38:	08030005 	stmdaeq	r3, {r0, r2}
     e3c:	0b3b0b3a 	bleq	ec3b2c <__bss_end__+0xeb9b2c>
     e40:	13490b39 	movtne	r0, #39737	; 0x9b39
     e44:	00001802 	andeq	r1, r0, r2, lsl #16
     e48:	3f002e24 	svccc	0x00002e24
     e4c:	3a0e0319 	bcc	381ab8 <__bss_end__+0x377ab8>
     e50:	390b3b0b 	stmdbcc	fp, {r0, r1, r3, r8, r9, fp, ip, sp}
     e54:	1119270b 	tstne	r9, fp, lsl #14
     e58:	40061201 	andmi	r1, r6, r1, lsl #4
     e5c:	19429718 	stmdbne	r2, {r3, r4, r8, r9, sl, ip, pc}^
     e60:	2e250000 	cdpcs	0, 2, cr0, cr5, cr0, {0}
     e64:	3a0e0301 	bcc	381a70 <__bss_end__+0x377a70>
     e68:	390b3b0b 	stmdbcc	fp, {r0, r1, r3, r8, r9, fp, ip, sp}
     e6c:	4919270b 	ldmdbmi	r9, {r0, r1, r3, r8, r9, sl, sp}
     e70:	12011113 	andne	r1, r1, #-1073741820	; 0xc0000004
     e74:	97184006 	ldrls	r4, [r8, -r6]
     e78:	13011942 	movwne	r1, #6466	; 0x1942
     e7c:	05260000 	streq	r0, [r6, #-0]!
     e80:	3a080300 	bcc	201a88 <__bss_end__+0x1f7a88>
     e84:	390b3b0b 	stmdbcc	fp, {r0, r1, r3, r8, r9, fp, ip, sp}
     e88:	0213490b 	andseq	r4, r3, #180224	; 0x2c000
     e8c:	1742b717 	smlaldne	fp, r2, r7, r7
     e90:	89270000 	stmdbhi	r7!, {}	; <UNPREDICTABLE>
     e94:	11010182 	smlabbne	r1, r2, r1, r0
     e98:	00133101 	andseq	r3, r3, r1, lsl #2
     e9c:	828a2800 	addhi	r2, sl, #0, 16
     ea0:	18020001 	stmdane	r2, {r0}
     ea4:	00184291 	mulseq	r8, r1, r2
     ea8:	002e2900 	eoreq	r2, lr, r0, lsl #18
     eac:	193c193f 	ldmdbne	ip!, {r0, r1, r2, r3, r4, r5, r8, fp, ip}
     eb0:	0e030e6e 	cdpeq	14, 0, cr0, cr3, cr14, {3}
     eb4:	0b3b0b3a 	bleq	ec3ba4 <__bss_end__+0xeb9ba4>
     eb8:	00000b39 	andeq	r0, r0, r9, lsr fp
     ebc:	01110100 	tsteq	r1, r0, lsl #2
     ec0:	0b130e25 	bleq	4c475c <__bss_end__+0x4ba75c>
     ec4:	0e1b0e03 	cdpeq	14, 1, cr0, cr11, cr3, {0}
     ec8:	06120111 			; <UNDEFINED> instruction: 0x06120111
     ecc:	00001710 	andeq	r1, r0, r0, lsl r7
     ed0:	0b002402 	bleq	9ee0 <buf.4297+0x2e0>
     ed4:	030b3e0b 	movweq	r3, #48651	; 0xbe0b
     ed8:	03000008 	movweq	r0, #8
     edc:	0b0b0024 	bleq	2c0f74 <__bss_end__+0x2b6f74>
     ee0:	0e030b3e 	vmoveq.16	d3[0], r0
     ee4:	16040000 	strne	r0, [r4], -r0
     ee8:	3a0e0300 	bcc	381af0 <__bss_end__+0x377af0>
     eec:	390b3b0b 	stmdbcc	fp, {r0, r1, r3, r8, r9, fp, ip, sp}
     ef0:	0013490b 	andseq	r4, r3, fp, lsl #18
     ef4:	000f0500 	andeq	r0, pc, r0, lsl #10
     ef8:	13490b0b 	movtne	r0, #39691	; 0x9b0b
     efc:	13060000 	movwne	r0, #24576	; 0x6000
     f00:	3c0e0300 	stccc	3, cr0, [lr], {-0}
     f04:	07000019 	smladeq	r0, r9, r0, r0
     f08:	0e030016 	mcreq	0, 0, r0, cr3, cr6, {0}
     f0c:	053b0b3a 	ldreq	r0, [fp, #-2874]!	; 0xfffff4c6
     f10:	13490b39 	movtne	r0, #39737	; 0x9b39
     f14:	17080000 	strne	r0, [r8, -r0]
     f18:	3a0b0b01 	bcc	2c3b24 <__bss_end__+0x2b9b24>
     f1c:	390b3b0b 	stmdbcc	fp, {r0, r1, r3, r8, r9, fp, ip, sp}
     f20:	0013010b 	andseq	r0, r3, fp, lsl #2
     f24:	000d0900 	andeq	r0, sp, r0, lsl #18
     f28:	0b3a0e03 	bleq	e8473c <__bss_end__+0xe7a73c>
     f2c:	0b390b3b 	bleq	e43c20 <__bss_end__+0xe39c20>
     f30:	00001349 	andeq	r1, r0, r9, asr #6
     f34:	4901010a 	stmdbmi	r1, {r1, r3, r8}
     f38:	00130113 	andseq	r0, r3, r3, lsl r1
     f3c:	00210b00 	eoreq	r0, r1, r0, lsl #22
     f40:	0b2f1349 	bleq	bc5c6c <__bss_end__+0xbbbc6c>
     f44:	130c0000 	movwne	r0, #49152	; 0xc000
     f48:	3a0b0b01 	bcc	2c3b54 <__bss_end__+0x2b9b54>
     f4c:	390b3b0b 	stmdbcc	fp, {r0, r1, r3, r8, r9, fp, ip, sp}
     f50:	0013010b 	andseq	r0, r3, fp, lsl #2
     f54:	000d0d00 	andeq	r0, sp, r0, lsl #26
     f58:	0b3a0e03 	bleq	e8476c <__bss_end__+0xe7a76c>
     f5c:	0b390b3b 	bleq	e43c50 <__bss_end__+0xe39c50>
     f60:	0b381349 	bleq	e05c8c <__bss_end__+0xdfbc8c>
     f64:	0f0e0000 	svceq	0x000e0000
     f68:	000b0b00 	andeq	r0, fp, r0, lsl #22
     f6c:	00260f00 	eoreq	r0, r6, r0, lsl #30
     f70:	00001349 	andeq	r1, r0, r9, asr #6
     f74:	03011310 	movweq	r1, #4880	; 0x1310
     f78:	3a0b0b0e 	bcc	2c3bb8 <__bss_end__+0x2b9bb8>
     f7c:	390b3b0b 	stmdbcc	fp, {r0, r1, r3, r8, r9, fp, ip, sp}
     f80:	0013010b 	andseq	r0, r3, fp, lsl #2
     f84:	000d1100 	andeq	r1, sp, r0, lsl #2
     f88:	0b3a0803 	bleq	e82f9c <__bss_end__+0xe78f9c>
     f8c:	0b390b3b 	bleq	e43c80 <__bss_end__+0xe39c80>
     f90:	0b381349 	bleq	e05cbc <__bss_end__+0xdfbcbc>
     f94:	13120000 	tstne	r2, #0
     f98:	0b0e0301 	bleq	381ba4 <__bss_end__+0x377ba4>
     f9c:	3b0b3a05 	blcc	2cf7b8 <__bss_end__+0x2c57b8>
     fa0:	010b390b 	tsteq	fp, fp, lsl #18
     fa4:	13000013 	movwne	r0, #19
     fa8:	0e03000d 	cdpeq	0, 0, cr0, cr3, cr13, {0}
     fac:	0b3b0b3a 	bleq	ec3c9c <__bss_end__+0xeb9c9c>
     fb0:	13490b39 	movtne	r0, #39737	; 0x9b39
     fb4:	00000538 	andeq	r0, r0, r8, lsr r5
     fb8:	27001514 	smladcs	r0, r4, r5, r1
     fbc:	15000019 	strne	r0, [r0, #-25]	; 0xffffffe7
     fc0:	19270115 	stmdbne	r7!, {r0, r2, r4, r8}
     fc4:	13011349 	movwne	r1, #4937	; 0x1349
     fc8:	05160000 	ldreq	r0, [r6, #-0]
     fcc:	00134900 	andseq	r4, r3, r0, lsl #18
     fd0:	01131700 	tsteq	r3, r0, lsl #14
     fd4:	050b0e03 	streq	r0, [fp, #-3587]	; 0xfffff1fd
     fd8:	053b0b3a 	ldreq	r0, [fp, #-2874]!	; 0xfffff4c6
     fdc:	13010b39 	movwne	r0, #6969	; 0x1b39
     fe0:	0d180000 	ldceq	0, cr0, [r8, #-0]
     fe4:	3a0e0300 	bcc	381bec <__bss_end__+0x377bec>
     fe8:	39053b0b 	stmdbcc	r5, {r0, r1, r3, r8, r9, fp, ip, sp}
     fec:	3813490b 	ldmdacc	r3, {r0, r1, r3, r8, fp, lr}
     ff0:	1900000b 	stmdbne	r0, {r0, r1, r3}
     ff4:	0e03000d 	cdpeq	0, 0, cr0, cr3, cr13, {0}
     ff8:	053b0b3a 	ldreq	r0, [fp, #-2874]!	; 0xfffff4c6
     ffc:	13490b39 	movtne	r0, #39737	; 0x9b39
    1000:	00000538 	andeq	r0, r0, r8, lsr r5
    1004:	0301131a 	movweq	r1, #4890	; 0x131a
    1008:	3a0b0b0e 	bcc	2c3c48 <__bss_end__+0x2b9c48>
    100c:	39053b0b 	stmdbcc	r5, {r0, r1, r3, r8, r9, fp, ip, sp}
    1010:	0013010b 	andseq	r0, r3, fp, lsl #2
    1014:	01131b00 	tsteq	r3, r0, lsl #22
    1018:	0b3a0b0b 	bleq	e83c4c <__bss_end__+0xe79c4c>
    101c:	0b39053b 	bleq	e42510 <__bss_end__+0xe38510>
    1020:	00001301 	andeq	r1, r0, r1, lsl #6
    1024:	0b01171c 	bleq	46c9c <__bss_end__+0x3cc9c>
    1028:	3b0b3a0b 	blcc	2cf85c <__bss_end__+0x2c585c>
    102c:	010b3905 	tsteq	fp, r5, lsl #18
    1030:	1d000013 	stcne	0, cr0, [r0, #-76]	; 0xffffffb4
    1034:	0e03000d 	cdpeq	0, 0, cr0, cr3, cr13, {0}
    1038:	053b0b3a 	ldreq	r0, [fp, #-2874]!	; 0xfffff4c6
    103c:	13490b39 	movtne	r0, #39737	; 0x9b39
    1040:	151e0000 	ldrne	r0, [lr, #-0]
    1044:	01192701 	tsteq	r9, r1, lsl #14
    1048:	1f000013 	svcne	0x00000013
    104c:	0e030034 	mcreq	0, 0, r0, cr3, cr4, {1}
    1050:	053b0b3a 	ldreq	r0, [fp, #-2874]!	; 0xfffff4c6
    1054:	13490b39 	movtne	r0, #39737	; 0x9b39
    1058:	193c193f 	ldmdbne	ip!, {r0, r1, r2, r3, r4, r5, r8, fp, ip}
    105c:	34200000 	strtcc	r0, [r0], #-0
    1060:	3a0e0300 	bcc	381c68 <__bss_end__+0x377c68>
    1064:	390b3b0b 	stmdbcc	fp, {r0, r1, r3, r8, r9, fp, ip, sp}
    1068:	3f13490b 	svccc	0x0013490b
    106c:	00193c19 	andseq	r3, r9, r9, lsl ip
    1070:	00342100 	eorseq	r2, r4, r0, lsl #2
    1074:	0b3a1347 	bleq	e85d98 <__bss_end__+0xe7bd98>
    1078:	0b390b3b 	bleq	e43d6c <__bss_end__+0xe39d6c>
    107c:	00001802 	andeq	r1, r0, r2, lsl #16
    1080:	3f012e22 	svccc	0x00012e22
    1084:	3a0e0319 	bcc	381cf0 <__bss_end__+0x377cf0>
    1088:	390b3b0b 	stmdbcc	fp, {r0, r1, r3, r8, r9, fp, ip, sp}
    108c:	4919270b 	ldmdbmi	r9, {r0, r1, r3, r8, r9, sl, sp}
    1090:	12011113 	andne	r1, r1, #-1073741820	; 0xc0000004
    1094:	96184006 	ldrls	r4, [r8], -r6
    1098:	00001942 	andeq	r1, r0, r2, asr #18
    109c:	03000523 	movweq	r0, #1315	; 0x523
    10a0:	3b0b3a08 	blcc	2cf8c8 <__bss_end__+0x2c58c8>
    10a4:	490b390b 	stmdbmi	fp, {r0, r1, r3, r8, fp, ip, sp}
    10a8:	b7170213 			; <UNDEFINED> instruction: 0xb7170213
    10ac:	00001742 	andeq	r1, r0, r2, asr #14
    10b0:	01110100 	tsteq	r1, r0, lsl #2
    10b4:	0b130e25 	bleq	4c4950 <__bss_end__+0x4ba950>
    10b8:	0e1b0e03 	cdpeq	14, 1, cr0, cr11, cr3, {0}
    10bc:	06120111 			; <UNDEFINED> instruction: 0x06120111
    10c0:	00001710 	andeq	r1, r0, r0, lsl r7
    10c4:	0b002402 	bleq	a0d4 <__bss_end__+0xd4>
    10c8:	030b3e0b 	movweq	r3, #48651	; 0xbe0b
    10cc:	03000008 	movweq	r0, #8
    10d0:	0b0b0024 	bleq	2c1168 <__bss_end__+0x2b7168>
    10d4:	0e030b3e 	vmoveq.16	d3[0], r0
    10d8:	16040000 	strne	r0, [r4], -r0
    10dc:	3a0e0300 	bcc	381ce4 <__bss_end__+0x377ce4>
    10e0:	390b3b0b 	stmdbcc	fp, {r0, r1, r3, r8, r9, fp, ip, sp}
    10e4:	0013490b 	andseq	r4, r3, fp, lsl #18
    10e8:	000f0500 	andeq	r0, pc, r0, lsl #10
    10ec:	13490b0b 	movtne	r0, #39691	; 0x9b0b
    10f0:	13060000 	movwne	r0, #24576	; 0x6000
    10f4:	3c0e0300 	stccc	3, cr0, [lr], {-0}
    10f8:	07000019 	smladeq	r0, r9, r0, r0
    10fc:	0e030016 	mcreq	0, 0, r0, cr3, cr6, {0}
    1100:	053b0b3a 	ldreq	r0, [fp, #-2874]!	; 0xfffff4c6
    1104:	13490b39 	movtne	r0, #39737	; 0x9b39
    1108:	17080000 	strne	r0, [r8, -r0]
    110c:	3a0b0b01 	bcc	2c3d18 <__bss_end__+0x2b9d18>
    1110:	390b3b0b 	stmdbcc	fp, {r0, r1, r3, r8, r9, fp, ip, sp}
    1114:	0013010b 	andseq	r0, r3, fp, lsl #2
    1118:	000d0900 	andeq	r0, sp, r0, lsl #18
    111c:	0b3a0e03 	bleq	e84930 <__bss_end__+0xe7a930>
    1120:	0b390b3b 	bleq	e43e14 <__bss_end__+0xe39e14>
    1124:	00001349 	andeq	r1, r0, r9, asr #6
    1128:	4901010a 	stmdbmi	r1, {r1, r3, r8}
    112c:	00130113 	andseq	r0, r3, r3, lsl r1
    1130:	00210b00 	eoreq	r0, r1, r0, lsl #22
    1134:	0b2f1349 	bleq	bc5e60 <__bss_end__+0xbbbe60>
    1138:	130c0000 	movwne	r0, #49152	; 0xc000
    113c:	3a0b0b01 	bcc	2c3d48 <__bss_end__+0x2b9d48>
    1140:	390b3b0b 	stmdbcc	fp, {r0, r1, r3, r8, r9, fp, ip, sp}
    1144:	0013010b 	andseq	r0, r3, fp, lsl #2
    1148:	000d0d00 	andeq	r0, sp, r0, lsl #26
    114c:	0b3a0e03 	bleq	e84960 <__bss_end__+0xe7a960>
    1150:	0b390b3b 	bleq	e43e44 <__bss_end__+0xe39e44>
    1154:	0b381349 	bleq	e05e80 <__bss_end__+0xdfbe80>
    1158:	0f0e0000 	svceq	0x000e0000
    115c:	000b0b00 	andeq	r0, fp, r0, lsl #22
    1160:	00260f00 	eoreq	r0, r6, r0, lsl #30
    1164:	00001349 	andeq	r1, r0, r9, asr #6
    1168:	03011310 	movweq	r1, #4880	; 0x1310
    116c:	3a0b0b0e 	bcc	2c3dac <__bss_end__+0x2b9dac>
    1170:	390b3b0b 	stmdbcc	fp, {r0, r1, r3, r8, r9, fp, ip, sp}
    1174:	0013010b 	andseq	r0, r3, fp, lsl #2
    1178:	000d1100 	andeq	r1, sp, r0, lsl #2
    117c:	0b3a0803 	bleq	e83190 <__bss_end__+0xe79190>
    1180:	0b390b3b 	bleq	e43e74 <__bss_end__+0xe39e74>
    1184:	0b381349 	bleq	e05eb0 <__bss_end__+0xdfbeb0>
    1188:	13120000 	tstne	r2, #0
    118c:	0b0e0301 	bleq	381d98 <__bss_end__+0x377d98>
    1190:	3b0b3a05 	blcc	2cf9ac <__bss_end__+0x2c59ac>
    1194:	010b390b 	tsteq	fp, fp, lsl #18
    1198:	13000013 	movwne	r0, #19
    119c:	0e03000d 	cdpeq	0, 0, cr0, cr3, cr13, {0}
    11a0:	0b3b0b3a 	bleq	ec3e90 <__bss_end__+0xeb9e90>
    11a4:	13490b39 	movtne	r0, #39737	; 0x9b39
    11a8:	00000538 	andeq	r0, r0, r8, lsr r5
    11ac:	27001514 	smladcs	r0, r4, r5, r1
    11b0:	15000019 	strne	r0, [r0, #-25]	; 0xffffffe7
    11b4:	19270115 	stmdbne	r7!, {r0, r2, r4, r8}
    11b8:	13011349 	movwne	r1, #4937	; 0x1349
    11bc:	05160000 	ldreq	r0, [r6, #-0]
    11c0:	00134900 	andseq	r4, r3, r0, lsl #18
    11c4:	01131700 	tsteq	r3, r0, lsl #14
    11c8:	050b0e03 	streq	r0, [fp, #-3587]	; 0xfffff1fd
    11cc:	053b0b3a 	ldreq	r0, [fp, #-2874]!	; 0xfffff4c6
    11d0:	13010b39 	movwne	r0, #6969	; 0x1b39
    11d4:	0d180000 	ldceq	0, cr0, [r8, #-0]
    11d8:	3a0e0300 	bcc	381de0 <__bss_end__+0x377de0>
    11dc:	39053b0b 	stmdbcc	r5, {r0, r1, r3, r8, r9, fp, ip, sp}
    11e0:	3813490b 	ldmdacc	r3, {r0, r1, r3, r8, fp, lr}
    11e4:	1900000b 	stmdbne	r0, {r0, r1, r3}
    11e8:	0e03000d 	cdpeq	0, 0, cr0, cr3, cr13, {0}
    11ec:	053b0b3a 	ldreq	r0, [fp, #-2874]!	; 0xfffff4c6
    11f0:	13490b39 	movtne	r0, #39737	; 0x9b39
    11f4:	00000538 	andeq	r0, r0, r8, lsr r5
    11f8:	0301131a 	movweq	r1, #4890	; 0x131a
    11fc:	3a0b0b0e 	bcc	2c3e3c <__bss_end__+0x2b9e3c>
    1200:	39053b0b 	stmdbcc	r5, {r0, r1, r3, r8, r9, fp, ip, sp}
    1204:	0013010b 	andseq	r0, r3, fp, lsl #2
    1208:	01131b00 	tsteq	r3, r0, lsl #22
    120c:	0b3a0b0b 	bleq	e83e40 <__bss_end__+0xe79e40>
    1210:	0b39053b 	bleq	e42704 <__bss_end__+0xe38704>
    1214:	00001301 	andeq	r1, r0, r1, lsl #6
    1218:	0b01171c 	bleq	46e90 <__bss_end__+0x3ce90>
    121c:	3b0b3a0b 	blcc	2cfa50 <__bss_end__+0x2c5a50>
    1220:	010b3905 	tsteq	fp, r5, lsl #18
    1224:	1d000013 	stcne	0, cr0, [r0, #-76]	; 0xffffffb4
    1228:	0e03000d 	cdpeq	0, 0, cr0, cr3, cr13, {0}
    122c:	053b0b3a 	ldreq	r0, [fp, #-2874]!	; 0xfffff4c6
    1230:	13490b39 	movtne	r0, #39737	; 0x9b39
    1234:	151e0000 	ldrne	r0, [lr, #-0]
    1238:	01192701 	tsteq	r9, r1, lsl #14
    123c:	1f000013 	svcne	0x00000013
    1240:	0e030034 	mcreq	0, 0, r0, cr3, cr4, {1}
    1244:	053b0b3a 	ldreq	r0, [fp, #-2874]!	; 0xfffff4c6
    1248:	13490b39 	movtne	r0, #39737	; 0x9b39
    124c:	193c193f 	ldmdbne	ip!, {r0, r1, r2, r3, r4, r5, r8, fp, ip}
    1250:	34200000 	strtcc	r0, [r0], #-0
    1254:	3a0e0300 	bcc	381e5c <__bss_end__+0x377e5c>
    1258:	390b3b0b 	stmdbcc	fp, {r0, r1, r3, r8, r9, fp, ip, sp}
    125c:	3f13490b 	svccc	0x0013490b
    1260:	00193c19 	andseq	r3, r9, r9, lsl ip
    1264:	01132100 	tsteq	r3, r0, lsl #2
    1268:	0b0b0e03 	bleq	2c4a7c <__bss_end__+0x2baa7c>
    126c:	0b3b0b3a 	bleq	ec3f5c <__bss_end__+0xeb9f5c>
    1270:	00001301 	andeq	r1, r0, r1, lsl #6
    1274:	03000d22 	movweq	r0, #3362	; 0xd22
    1278:	3813490e 	ldmdacc	r3, {r1, r2, r3, r8, fp, lr}
    127c:	0019340b 	andseq	r3, r9, fp, lsl #8
    1280:	012e2300 			; <UNDEFINED> instruction: 0x012e2300
    1284:	0e03193f 			; <UNDEFINED> instruction: 0x0e03193f
    1288:	0b3b0b3a 	bleq	ec3f78 <__bss_end__+0xeb9f78>
    128c:	19270b39 	stmdbne	r7!, {r0, r3, r4, r5, r8, r9, fp}
    1290:	01111349 	tsteq	r1, r9, asr #6
    1294:	18400612 	stmdane	r0, {r1, r4, r9, sl}^
    1298:	01194297 			; <UNDEFINED> instruction: 0x01194297
    129c:	24000013 	strcs	r0, [r0], #-19	; 0xffffffed
    12a0:	08030005 	stmdaeq	r3, {r0, r2}
    12a4:	0b3b0b3a 	bleq	ec3f94 <__bss_end__+0xeb9f94>
    12a8:	13490b39 	movtne	r0, #39737	; 0x9b39
    12ac:	42b71702 	adcsmi	r1, r7, #524288	; 0x80000
    12b0:	25000017 	strcs	r0, [r0, #-23]	; 0xffffffe9
    12b4:	0e030005 	cdpeq	0, 0, cr0, cr3, cr5, {0}
    12b8:	0b3b0b3a 	bleq	ec3fa8 <__bss_end__+0xeb9fa8>
    12bc:	13490b39 	movtne	r0, #39737	; 0x9b39
    12c0:	00001802 	andeq	r1, r0, r2, lsl #16
    12c4:	03003426 	movweq	r3, #1062	; 0x426
    12c8:	3b0b3a08 	blcc	2cfaf0 <__bss_end__+0x2c5af0>
    12cc:	490b390b 	stmdbmi	fp, {r0, r1, r3, r8, fp, ip, sp}
    12d0:	b7170213 			; <UNDEFINED> instruction: 0xb7170213
    12d4:	00001742 	andeq	r1, r0, r2, asr #14
    12d8:	03003427 	movweq	r3, #1063	; 0x427
    12dc:	3413490e 	ldrcc	r4, [r3], #-2318	; 0xfffff6f2
    12e0:	00180219 	andseq	r0, r8, r9, lsl r2
    12e4:	010b2800 	tsteq	fp, r0, lsl #16
    12e8:	06120111 			; <UNDEFINED> instruction: 0x06120111
    12ec:	34290000 	strtcc	r0, [r9], #-0
    12f0:	3a080300 	bcc	201ef8 <__bss_end__+0x1f7ef8>
    12f4:	390b3b0b 	stmdbcc	fp, {r0, r1, r3, r8, r9, fp, ip, sp}
    12f8:	0213490b 	andseq	r4, r3, #180224	; 0x2c000
    12fc:	2a000018 	bcs	1364 <_start-0x6c9c>
    1300:	0e030034 	mcreq	0, 0, r0, cr3, cr4, {1}
    1304:	0b3b0b3a 	bleq	ec3ff4 <__bss_end__+0xeb9ff4>
    1308:	13490b39 	movtne	r0, #39737	; 0x9b39
    130c:	42b71702 	adcsmi	r1, r7, #524288	; 0x80000
    1310:	2b000017 	blcs	1374 <_start-0x6c8c>
    1314:	01018289 	smlabbeq	r1, r9, r2, r8
    1318:	13310111 	teqne	r1, #1073741828	; 0x40000004
    131c:	00001301 	andeq	r1, r0, r1, lsl #6
    1320:	01828a2c 	orreq	r8, r2, ip, lsr #20
    1324:	91180200 	tstls	r8, r0, lsl #4
    1328:	00001842 	andeq	r1, r0, r2, asr #16
    132c:	0182892d 	orreq	r8, r2, sp, lsr #18
    1330:	31011100 	mrscc	r1, (UNDEF: 17)
    1334:	2e000013 	mcrcs	0, 0, r0, cr0, cr3, {0}
    1338:	0e03012e 	adfeqsp	f0, f3, #0.5
    133c:	0b3b0b3a 	bleq	ec402c <__bss_end__+0xeba02c>
    1340:	19270b39 	stmdbne	r7!, {r0, r3, r4, r5, r8, r9, fp}
    1344:	01111349 	tsteq	r1, r9, asr #6
    1348:	18400612 	stmdane	r0, {r1, r4, r9, sl}^
    134c:	01194297 			; <UNDEFINED> instruction: 0x01194297
    1350:	2f000013 	svccs	0x00000013
    1354:	0e030005 	cdpeq	0, 0, cr0, cr3, cr5, {0}
    1358:	0b3b0b3a 	bleq	ec4048 <__bss_end__+0xeba048>
    135c:	13490b39 	movtne	r0, #39737	; 0x9b39
    1360:	42b71702 	adcsmi	r1, r7, #524288	; 0x80000
    1364:	30000017 	andcc	r0, r0, r7, lsl r0
    1368:	0111010b 	tsteq	r1, fp, lsl #2
    136c:	13010612 	movwne	r0, #5650	; 0x1612
    1370:	2e310000 	cdpcs	0, 3, cr0, cr1, cr0, {0}
    1374:	3a080301 	bcc	201f80 <__bss_end__+0x1f7f80>
    1378:	390b3b0b 	stmdbcc	fp, {r0, r1, r3, r8, r9, fp, ip, sp}
    137c:	4919270b 	ldmdbmi	r9, {r0, r1, r3, r8, r9, sl, sp}
    1380:	12011113 	andne	r1, r1, #-1073741820	; 0xc0000004
    1384:	97184006 	ldrls	r4, [r8, -r6]
    1388:	13011942 	movwne	r1, #6466	; 0x1942
    138c:	2e320000 	cdpcs	0, 3, cr0, cr2, cr0, {0}
    1390:	03193f01 	tsteq	r9, #1, 30
    1394:	3b0b3a0e 	blcc	2cfbd4 <__bss_end__+0x2c5bd4>
    1398:	270b390b 	strcs	r3, [fp, -fp, lsl #18]
    139c:	12011119 	andne	r1, r1, #1073741830	; 0x40000006
    13a0:	97184006 	ldrls	r4, [r8, -r6]
    13a4:	13011942 	movwne	r1, #6466	; 0x1942
    13a8:	2e330000 	cdpcs	0, 3, cr0, cr3, cr0, {0}
    13ac:	3c193f00 	ldccc	15, cr3, [r9], {-0}
    13b0:	030e6e19 	movweq	r6, #60953	; 0xee19
    13b4:	3b0b3a0e 	blcc	2cfbf4 <__bss_end__+0x2c5bf4>
    13b8:	000b390b 	andeq	r3, fp, fp, lsl #18
    13bc:	11010000 	mrsne	r0, (UNDEF: 1)
    13c0:	130e2501 	movwne	r2, #58625	; 0xe501
    13c4:	1b0e030b 	blne	381ff8 <__bss_end__+0x377ff8>
    13c8:	1201110e 	andne	r1, r1, #-2147483645	; 0x80000003
    13cc:	00171006 	andseq	r1, r7, r6
    13d0:	00240200 	eoreq	r0, r4, r0, lsl #4
    13d4:	0b3e0b0b 	bleq	f84008 <__bss_end__+0xf7a008>
    13d8:	00000803 	andeq	r0, r0, r3, lsl #16
    13dc:	0b002403 	bleq	a3f0 <__bss_end__+0x3f0>
    13e0:	030b3e0b 	movweq	r3, #48651	; 0xbe0b
    13e4:	0400000e 	streq	r0, [r0], #-14
    13e8:	0e030016 	mcreq	0, 0, r0, cr3, cr6, {0}
    13ec:	0b3b0b3a 	bleq	ec40dc <__bss_end__+0xeba0dc>
    13f0:	13490b39 	movtne	r0, #39737	; 0x9b39
    13f4:	0f050000 	svceq	0x00050000
    13f8:	490b0b00 	stmdbmi	fp, {r8, r9, fp}
    13fc:	06000013 			; <UNDEFINED> instruction: 0x06000013
    1400:	0e030013 	mcreq	0, 0, r0, cr3, cr3, {0}
    1404:	0000193c 	andeq	r1, r0, ip, lsr r9
    1408:	03001607 	movweq	r1, #1543	; 0x607
    140c:	3b0b3a0e 	blcc	2cfc4c <__bss_end__+0x2c5c4c>
    1410:	490b3905 	stmdbmi	fp, {r0, r2, r8, fp, ip, sp}
    1414:	08000013 	stmdaeq	r0, {r0, r1, r4}
    1418:	0b0b0117 	bleq	2c187c <__bss_end__+0x2b787c>
    141c:	0b3b0b3a 	bleq	ec410c <__bss_end__+0xeba10c>
    1420:	13010b39 	movwne	r0, #6969	; 0x1b39
    1424:	0d090000 	stceq	0, cr0, [r9, #-0]
    1428:	3a0e0300 	bcc	382030 <__bss_end__+0x378030>
    142c:	390b3b0b 	stmdbcc	fp, {r0, r1, r3, r8, r9, fp, ip, sp}
    1430:	0013490b 	andseq	r4, r3, fp, lsl #18
    1434:	01010a00 	tsteq	r1, r0, lsl #20
    1438:	13011349 	movwne	r1, #4937	; 0x1349
    143c:	210b0000 	mrscs	r0, (UNDEF: 11)
    1440:	2f134900 	svccs	0x00134900
    1444:	0c00000b 	stceq	0, cr0, [r0], {11}
    1448:	0b0b0113 	bleq	2c189c <__bss_end__+0x2b789c>
    144c:	0b3b0b3a 	bleq	ec413c <__bss_end__+0xeba13c>
    1450:	13010b39 	movwne	r0, #6969	; 0x1b39
    1454:	0d0d0000 	stceq	0, cr0, [sp, #-0]
    1458:	3a0e0300 	bcc	382060 <__bss_end__+0x378060>
    145c:	390b3b0b 	stmdbcc	fp, {r0, r1, r3, r8, r9, fp, ip, sp}
    1460:	3813490b 	ldmdacc	r3, {r0, r1, r3, r8, fp, lr}
    1464:	0e00000b 	cdpeq	0, 0, cr0, cr0, cr11, {0}
    1468:	0b0b000f 	bleq	2c14ac <__bss_end__+0x2b74ac>
    146c:	260f0000 	strcs	r0, [pc], -r0
    1470:	00134900 	andseq	r4, r3, r0, lsl #18
    1474:	01131000 	tsteq	r3, r0
    1478:	0b0b0e03 	bleq	2c4c8c <__bss_end__+0x2bac8c>
    147c:	0b3b0b3a 	bleq	ec416c <__bss_end__+0xeba16c>
    1480:	13010b39 	movwne	r0, #6969	; 0x1b39
    1484:	0d110000 	ldceq	0, cr0, [r1, #-0]
    1488:	3a080300 	bcc	202090 <__bss_end__+0x1f8090>
    148c:	390b3b0b 	stmdbcc	fp, {r0, r1, r3, r8, r9, fp, ip, sp}
    1490:	3813490b 	ldmdacc	r3, {r0, r1, r3, r8, fp, lr}
    1494:	1200000b 	andne	r0, r0, #11
    1498:	0e030113 	mcreq	1, 0, r0, cr3, cr3, {0}
    149c:	0b3a050b 	bleq	e828d0 <__bss_end__+0xe788d0>
    14a0:	0b390b3b 	bleq	e44194 <__bss_end__+0xe3a194>
    14a4:	00001301 	andeq	r1, r0, r1, lsl #6
    14a8:	03000d13 	movweq	r0, #3347	; 0xd13
    14ac:	3b0b3a0e 	blcc	2cfcec <__bss_end__+0x2c5cec>
    14b0:	490b390b 	stmdbmi	fp, {r0, r1, r3, r8, fp, ip, sp}
    14b4:	00053813 	andeq	r3, r5, r3, lsl r8
    14b8:	00151400 	andseq	r1, r5, r0, lsl #8
    14bc:	00001927 	andeq	r1, r0, r7, lsr #18
    14c0:	27011515 	smladcs	r1, r5, r5, r1
    14c4:	01134919 	tsteq	r3, r9, lsl r9
    14c8:	16000013 			; <UNDEFINED> instruction: 0x16000013
    14cc:	13490005 	movtne	r0, #36869	; 0x9005
    14d0:	13170000 	tstne	r7, #0
    14d4:	0b0e0301 	bleq	3820e0 <__bss_end__+0x3780e0>
    14d8:	3b0b3a05 	blcc	2cfcf4 <__bss_end__+0x2c5cf4>
    14dc:	010b3905 	tsteq	fp, r5, lsl #18
    14e0:	18000013 	stmdane	r0, {r0, r1, r4}
    14e4:	0e03000d 	cdpeq	0, 0, cr0, cr3, cr13, {0}
    14e8:	053b0b3a 	ldreq	r0, [fp, #-2874]!	; 0xfffff4c6
    14ec:	13490b39 	movtne	r0, #39737	; 0x9b39
    14f0:	00000b38 	andeq	r0, r0, r8, lsr fp
    14f4:	03000d19 	movweq	r0, #3353	; 0xd19
    14f8:	3b0b3a0e 	blcc	2cfd38 <__bss_end__+0x2c5d38>
    14fc:	490b3905 	stmdbmi	fp, {r0, r2, r8, fp, ip, sp}
    1500:	00053813 	andeq	r3, r5, r3, lsl r8
    1504:	01131a00 	tsteq	r3, r0, lsl #20
    1508:	0b0b0e03 	bleq	2c4d1c <__bss_end__+0x2bad1c>
    150c:	053b0b3a 	ldreq	r0, [fp, #-2874]!	; 0xfffff4c6
    1510:	13010b39 	movwne	r0, #6969	; 0x1b39
    1514:	131b0000 	tstne	fp, #0
    1518:	3a0b0b01 	bcc	2c4124 <__bss_end__+0x2ba124>
    151c:	39053b0b 	stmdbcc	r5, {r0, r1, r3, r8, r9, fp, ip, sp}
    1520:	0013010b 	andseq	r0, r3, fp, lsl #2
    1524:	01171c00 	tsteq	r7, r0, lsl #24
    1528:	0b3a0b0b 	bleq	e8415c <__bss_end__+0xe7a15c>
    152c:	0b39053b 	bleq	e42a20 <__bss_end__+0xe38a20>
    1530:	00001301 	andeq	r1, r0, r1, lsl #6
    1534:	03000d1d 	movweq	r0, #3357	; 0xd1d
    1538:	3b0b3a0e 	blcc	2cfd78 <__bss_end__+0x2c5d78>
    153c:	490b3905 	stmdbmi	fp, {r0, r2, r8, fp, ip, sp}
    1540:	1e000013 	mcrne	0, 0, r0, cr0, cr3, {0}
    1544:	19270115 	stmdbne	r7!, {r0, r2, r4, r8}
    1548:	00001301 	andeq	r1, r0, r1, lsl #6
    154c:	0300341f 	movweq	r3, #1055	; 0x41f
    1550:	3b0b3a0e 	blcc	2cfd90 <__bss_end__+0x2c5d90>
    1554:	490b3905 	stmdbmi	fp, {r0, r2, r8, fp, ip, sp}
    1558:	3c193f13 	ldccc	15, cr3, [r9], {19}
    155c:	20000019 	andcs	r0, r0, r9, lsl r0
    1560:	0e030034 	mcreq	0, 0, r0, cr3, cr4, {1}
    1564:	0b3b0b3a 	bleq	ec4254 <__bss_end__+0xeba254>
    1568:	13490b39 	movtne	r0, #39737	; 0x9b39
    156c:	193c193f 	ldmdbne	ip!, {r0, r1, r2, r3, r4, r5, r8, fp, ip}
    1570:	2e210000 	cdpcs	0, 2, cr0, cr1, cr0, {0}
    1574:	03193f01 	tsteq	r9, #1, 30
    1578:	3b0b3a0e 	blcc	2cfdb8 <__bss_end__+0x2c5db8>
    157c:	270b390b 	strcs	r3, [fp, -fp, lsl #18]
    1580:	19018719 	stmdbne	r1, {r0, r3, r4, r8, r9, sl, pc}
    1584:	06120111 			; <UNDEFINED> instruction: 0x06120111
    1588:	42971840 	addsmi	r1, r7, #64, 16	; 0x400000
    158c:	00130119 	andseq	r0, r3, r9, lsl r1
    1590:	82892200 	addhi	r2, r9, #0, 4
    1594:	01110101 	tsteq	r1, r1, lsl #2
    1598:	00001301 	andeq	r1, r0, r1, lsl #6
    159c:	01828a23 	orreq	r8, r2, r3, lsr #20
    15a0:	91180200 	tstls	r8, r0, lsl #4
    15a4:	00001842 	andeq	r1, r0, r2, asr #16
    15a8:	01828924 	orreq	r8, r2, r4, lsr #18
    15ac:	31011101 	tstcc	r1, r1, lsl #2
    15b0:	00130113 	andseq	r0, r3, r3, lsl r1
    15b4:	82892500 	addhi	r2, r9, #0, 10
    15b8:	01110001 	tsteq	r1, r1
    15bc:	00001331 	andeq	r1, r0, r1, lsr r3
    15c0:	3f002e26 	svccc	0x00002e26
    15c4:	6e193c19 	mrcvs	12, 0, r3, cr9, cr9, {0}
    15c8:	3a0e030e 	bcc	382208 <__bss_end__+0x378208>
    15cc:	390b3b0b 	stmdbcc	fp, {r0, r1, r3, r8, r9, fp, ip, sp}
    15d0:	0000000b 	andeq	r0, r0, fp
    15d4:	25011101 	strcs	r1, [r1, #-257]	; 0xfffffeff
    15d8:	030b130e 	movweq	r1, #45838	; 0xb30e
    15dc:	110e1b0e 	tstne	lr, lr, lsl #22
    15e0:	10061201 	andne	r1, r6, r1, lsl #4
    15e4:	02000017 	andeq	r0, r0, #23
    15e8:	0b0b0024 	bleq	2c1680 <__bss_end__+0x2b7680>
    15ec:	08030b3e 	stmdaeq	r3, {r1, r2, r3, r4, r5, r8, r9, fp}
    15f0:	24030000 	strcs	r0, [r3], #-0
    15f4:	3e0b0b00 	vmlacc.f64	d0, d11, d0
    15f8:	000e030b 	andeq	r0, lr, fp, lsl #6
    15fc:	00160400 	andseq	r0, r6, r0, lsl #8
    1600:	0b3a0e03 	bleq	e84e14 <__bss_end__+0xe7ae14>
    1604:	0b390b3b 	bleq	e442f8 <__bss_end__+0xe3a2f8>
    1608:	00001349 	andeq	r1, r0, r9, asr #6
    160c:	0b000f05 	bleq	5228 <_start-0x2dd8>
    1610:	0013490b 	andseq	r4, r3, fp, lsl #18
    1614:	00130600 	andseq	r0, r3, r0, lsl #12
    1618:	193c0e03 	ldmdbne	ip!, {r0, r1, r9, sl, fp}
    161c:	16070000 	strne	r0, [r7], -r0
    1620:	3a0e0300 	bcc	382228 <__bss_end__+0x378228>
    1624:	39053b0b 	stmdbcc	r5, {r0, r1, r3, r8, r9, fp, ip, sp}
    1628:	0013490b 	andseq	r4, r3, fp, lsl #18
    162c:	01170800 	tsteq	r7, r0, lsl #16
    1630:	0b3a0b0b 	bleq	e84264 <__bss_end__+0xe7a264>
    1634:	0b390b3b 	bleq	e44328 <__bss_end__+0xe3a328>
    1638:	00001301 	andeq	r1, r0, r1, lsl #6
    163c:	03000d09 	movweq	r0, #3337	; 0xd09
    1640:	3b0b3a0e 	blcc	2cfe80 <__bss_end__+0x2c5e80>
    1644:	490b390b 	stmdbmi	fp, {r0, r1, r3, r8, fp, ip, sp}
    1648:	0a000013 	beq	169c <_start-0x6964>
    164c:	13490101 	movtne	r0, #37121	; 0x9101
    1650:	00001301 	andeq	r1, r0, r1, lsl #6
    1654:	4900210b 	stmdbmi	r0, {r0, r1, r3, r8, sp}
    1658:	000b2f13 	andeq	r2, fp, r3, lsl pc
    165c:	01130c00 	tsteq	r3, r0, lsl #24
    1660:	0b3a0b0b 	bleq	e84294 <__bss_end__+0xe7a294>
    1664:	0b390b3b 	bleq	e44358 <__bss_end__+0xe3a358>
    1668:	00001301 	andeq	r1, r0, r1, lsl #6
    166c:	03000d0d 	movweq	r0, #3341	; 0xd0d
    1670:	3b0b3a0e 	blcc	2cfeb0 <__bss_end__+0x2c5eb0>
    1674:	490b390b 	stmdbmi	fp, {r0, r1, r3, r8, fp, ip, sp}
    1678:	000b3813 	andeq	r3, fp, r3, lsl r8
    167c:	000f0e00 	andeq	r0, pc, r0, lsl #28
    1680:	00000b0b 	andeq	r0, r0, fp, lsl #22
    1684:	4900260f 	stmdbmi	r0, {r0, r1, r2, r3, r9, sl, sp}
    1688:	10000013 	andne	r0, r0, r3, lsl r0
    168c:	0e030113 	mcreq	1, 0, r0, cr3, cr3, {0}
    1690:	0b3a0b0b 	bleq	e842c4 <__bss_end__+0xe7a2c4>
    1694:	0b390b3b 	bleq	e44388 <__bss_end__+0xe3a388>
    1698:	00001301 	andeq	r1, r0, r1, lsl #6
    169c:	03000d11 	movweq	r0, #3345	; 0xd11
    16a0:	3b0b3a08 	blcc	2cfec8 <__bss_end__+0x2c5ec8>
    16a4:	490b390b 	stmdbmi	fp, {r0, r1, r3, r8, fp, ip, sp}
    16a8:	000b3813 	andeq	r3, fp, r3, lsl r8
    16ac:	01131200 	tsteq	r3, r0, lsl #4
    16b0:	050b0e03 	streq	r0, [fp, #-3587]	; 0xfffff1fd
    16b4:	0b3b0b3a 	bleq	ec43a4 <__bss_end__+0xeba3a4>
    16b8:	13010b39 	movwne	r0, #6969	; 0x1b39
    16bc:	0d130000 	ldceq	0, cr0, [r3, #-0]
    16c0:	3a0e0300 	bcc	3822c8 <__bss_end__+0x3782c8>
    16c4:	390b3b0b 	stmdbcc	fp, {r0, r1, r3, r8, r9, fp, ip, sp}
    16c8:	3813490b 	ldmdacc	r3, {r0, r1, r3, r8, fp, lr}
    16cc:	14000005 	strne	r0, [r0], #-5
    16d0:	19270015 	stmdbne	r7!, {r0, r2, r4}
    16d4:	15150000 	ldrne	r0, [r5, #-0]
    16d8:	49192701 	ldmdbmi	r9, {r0, r8, r9, sl, sp}
    16dc:	00130113 	andseq	r0, r3, r3, lsl r1
    16e0:	00051600 	andeq	r1, r5, r0, lsl #12
    16e4:	00001349 	andeq	r1, r0, r9, asr #6
    16e8:	03011317 	movweq	r1, #4887	; 0x1317
    16ec:	3a050b0e 	bcc	14432c <__bss_end__+0x13a32c>
    16f0:	39053b0b 	stmdbcc	r5, {r0, r1, r3, r8, r9, fp, ip, sp}
    16f4:	0013010b 	andseq	r0, r3, fp, lsl #2
    16f8:	000d1800 	andeq	r1, sp, r0, lsl #16
    16fc:	0b3a0e03 	bleq	e84f10 <__bss_end__+0xe7af10>
    1700:	0b39053b 	bleq	e42bf4 <__bss_end__+0xe38bf4>
    1704:	0b381349 	bleq	e06430 <__bss_end__+0xdfc430>
    1708:	0d190000 	ldceq	0, cr0, [r9, #-0]
    170c:	3a0e0300 	bcc	382314 <__bss_end__+0x378314>
    1710:	39053b0b 	stmdbcc	r5, {r0, r1, r3, r8, r9, fp, ip, sp}
    1714:	3813490b 	ldmdacc	r3, {r0, r1, r3, r8, fp, lr}
    1718:	1a000005 	bne	1734 <_start-0x68cc>
    171c:	0e030113 	mcreq	1, 0, r0, cr3, cr3, {0}
    1720:	0b3a0b0b 	bleq	e84354 <__bss_end__+0xe7a354>
    1724:	0b39053b 	bleq	e42c18 <__bss_end__+0xe38c18>
    1728:	00001301 	andeq	r1, r0, r1, lsl #6
    172c:	0b01131b 	bleq	463a0 <__bss_end__+0x3c3a0>
    1730:	3b0b3a0b 	blcc	2cff64 <__bss_end__+0x2c5f64>
    1734:	010b3905 	tsteq	fp, r5, lsl #18
    1738:	1c000013 	stcne	0, cr0, [r0], {19}
    173c:	0b0b0117 	bleq	2c1ba0 <__bss_end__+0x2b7ba0>
    1740:	053b0b3a 	ldreq	r0, [fp, #-2874]!	; 0xfffff4c6
    1744:	13010b39 	movwne	r0, #6969	; 0x1b39
    1748:	0d1d0000 	ldceq	0, cr0, [sp, #-0]
    174c:	3a0e0300 	bcc	382354 <__bss_end__+0x378354>
    1750:	39053b0b 	stmdbcc	r5, {r0, r1, r3, r8, r9, fp, ip, sp}
    1754:	0013490b 	andseq	r4, r3, fp, lsl #18
    1758:	01151e00 	tsteq	r5, r0, lsl #28
    175c:	13011927 	movwne	r1, #6439	; 0x1927
    1760:	341f0000 	ldrcc	r0, [pc], #-0	; 1768 <_start-0x6898>
    1764:	3a0e0300 	bcc	38236c <__bss_end__+0x37836c>
    1768:	39053b0b 	stmdbcc	r5, {r0, r1, r3, r8, r9, fp, ip, sp}
    176c:	3f13490b 	svccc	0x0013490b
    1770:	00193c19 	andseq	r3, r9, r9, lsl ip
    1774:	00342000 	eorseq	r2, r4, r0
    1778:	0b3a0e03 	bleq	e84f8c <__bss_end__+0xe7af8c>
    177c:	0b390b3b 	bleq	e44470 <__bss_end__+0xe3a470>
    1780:	193f1349 	ldmdbne	pc!, {r0, r3, r6, r8, r9, ip}	; <UNPREDICTABLE>
    1784:	0000193c 	andeq	r1, r0, ip, lsr r9
    1788:	3f012e21 	svccc	0x00012e21
    178c:	3a0e0319 	bcc	3823f8 <__bss_end__+0x3783f8>
    1790:	390b3b0b 	stmdbcc	fp, {r0, r1, r3, r8, r9, fp, ip, sp}
    1794:	1201110b 	andne	r1, r1, #-1073741822	; 0xc0000002
    1798:	97184006 	ldrls	r4, [r8, -r6]
    179c:	13011942 	movwne	r1, #6466	; 0x1942
    17a0:	2e220000 	cdpcs	0, 2, cr0, cr2, cr0, {0}
    17a4:	03193f00 	tsteq	r9, #0, 30
    17a8:	3b0b3a0e 	blcc	2cffe8 <__bss_end__+0x2c5fe8>
    17ac:	270b390b 	strcs	r3, [fp, -fp, lsl #18]
    17b0:	00193c19 	andseq	r3, r9, r9, lsl ip
    17b4:	00342300 	eorseq	r2, r4, r0, lsl #6
    17b8:	0b3a0803 	bleq	e837cc <__bss_end__+0xe797cc>
    17bc:	0b390b3b 	bleq	e444b0 <__bss_end__+0xe3a4b0>
    17c0:	17021349 	strne	r1, [r2, -r9, asr #6]
    17c4:	001742b7 			; <UNDEFINED> instruction: 0x001742b7
    17c8:	00342400 	eorseq	r2, r4, r0, lsl #8
    17cc:	0b3a0e03 	bleq	e84fe0 <__bss_end__+0xe7afe0>
    17d0:	0b390b3b 	bleq	e444c4 <__bss_end__+0xe3a4c4>
    17d4:	00001349 	andeq	r1, r0, r9, asr #6
    17d8:	01828925 	orreq	r8, r2, r5, lsr #18
    17dc:	31011100 	mrscc	r1, (UNDEF: 17)
    17e0:	26000013 			; <UNDEFINED> instruction: 0x26000013
    17e4:	193f002e 	ldmdbne	pc!, {r1, r2, r3, r5}	; <UNPREDICTABLE>
    17e8:	0e6e193c 			; <UNDEFINED> instruction: 0x0e6e193c
    17ec:	0b3a0e03 	bleq	e85000 <__bss_end__+0xe7b000>
    17f0:	0b390b3b 	bleq	e444e4 <__bss_end__+0xe3a4e4>
    17f4:	01000000 	mrseq	r0, (UNDEF: 0)
    17f8:	0e250111 	mcreq	1, 1, r0, cr5, cr1, {0}
    17fc:	0e030b13 	vmoveq.32	d3[0], r0
    1800:	17550e1b 	smmlane	r5, fp, lr, r0
    1804:	17100111 			; <UNDEFINED> instruction: 0x17100111
    1808:	24020000 	strcs	r0, [r2], #-0
    180c:	3e0b0b00 	vmlacc.f64	d0, d11, d0
    1810:	0008030b 	andeq	r0, r8, fp, lsl #6
    1814:	00260300 	eoreq	r0, r6, r0, lsl #6
    1818:	00001349 	andeq	r1, r0, r9, asr #6
    181c:	0b002404 	bleq	a834 <__bss_end__+0x834>
    1820:	030b3e0b 	movweq	r3, #48651	; 0xbe0b
    1824:	0500000e 	streq	r0, [r0, #-14]
    1828:	0e030016 	mcreq	0, 0, r0, cr3, cr6, {0}
    182c:	0b3b0b3a 	bleq	ec451c <__bss_end__+0xeba51c>
    1830:	13490b39 	movtne	r0, #39737	; 0x9b39
    1834:	0f060000 	svceq	0x00060000
    1838:	490b0b00 	stmdbmi	fp, {r8, r9, fp}
    183c:	07000013 	smladeq	r0, r3, r0, r0
    1840:	0e030013 	mcreq	0, 0, r0, cr3, cr3, {0}
    1844:	0000193c 	andeq	r1, r0, ip, lsr r9
    1848:	03001608 	movweq	r1, #1544	; 0x608
    184c:	3b0b3a0e 	blcc	2d008c <__bss_end__+0x2c608c>
    1850:	490b3905 	stmdbmi	fp, {r0, r2, r8, fp, ip, sp}
    1854:	09000013 	stmdbeq	r0, {r0, r1, r4}
    1858:	0b0b0117 	bleq	2c1cbc <__bss_end__+0x2b7cbc>
    185c:	0b3b0b3a 	bleq	ec454c <__bss_end__+0xeba54c>
    1860:	13010b39 	movwne	r0, #6969	; 0x1b39
    1864:	0d0a0000 	stceq	0, cr0, [sl, #-0]
    1868:	3a0e0300 	bcc	382470 <__bss_end__+0x378470>
    186c:	390b3b0b 	stmdbcc	fp, {r0, r1, r3, r8, r9, fp, ip, sp}
    1870:	0013490b 	andseq	r4, r3, fp, lsl #18
    1874:	01010b00 	tsteq	r1, r0, lsl #22
    1878:	13011349 	movwne	r1, #4937	; 0x1349
    187c:	210c0000 	mrscs	r0, (UNDEF: 12)
    1880:	2f134900 	svccs	0x00134900
    1884:	0d00000b 	stceq	0, cr0, [r0, #-44]	; 0xffffffd4
    1888:	0b0b0113 	bleq	2c1cdc <__bss_end__+0x2b7cdc>
    188c:	0b3b0b3a 	bleq	ec457c <__bss_end__+0xeba57c>
    1890:	13010b39 	movwne	r0, #6969	; 0x1b39
    1894:	0d0e0000 	stceq	0, cr0, [lr, #-0]
    1898:	3a0e0300 	bcc	3824a0 <__bss_end__+0x3784a0>
    189c:	390b3b0b 	stmdbcc	fp, {r0, r1, r3, r8, r9, fp, ip, sp}
    18a0:	3813490b 	ldmdacc	r3, {r0, r1, r3, r8, fp, lr}
    18a4:	0f00000b 	svceq	0x0000000b
    18a8:	0b0b000f 	bleq	2c18ec <__bss_end__+0x2b78ec>
    18ac:	13100000 	tstne	r0, #0
    18b0:	0b0e0301 	bleq	3824bc <__bss_end__+0x3784bc>
    18b4:	3b0b3a0b 	blcc	2d00e8 <__bss_end__+0x2c60e8>
    18b8:	010b390b 	tsteq	fp, fp, lsl #18
    18bc:	11000013 	tstne	r0, r3, lsl r0
    18c0:	0803000d 	stmdaeq	r3, {r0, r2, r3}
    18c4:	0b3b0b3a 	bleq	ec45b4 <__bss_end__+0xeba5b4>
    18c8:	13490b39 	movtne	r0, #39737	; 0x9b39
    18cc:	00000b38 	andeq	r0, r0, r8, lsr fp
    18d0:	03011312 	movweq	r1, #4882	; 0x1312
    18d4:	3a050b0e 	bcc	144514 <__bss_end__+0x13a514>
    18d8:	390b3b0b 	stmdbcc	fp, {r0, r1, r3, r8, r9, fp, ip, sp}
    18dc:	0013010b 	andseq	r0, r3, fp, lsl #2
    18e0:	000d1300 	andeq	r1, sp, r0, lsl #6
    18e4:	0b3a0e03 	bleq	e850f8 <__bss_end__+0xe7b0f8>
    18e8:	0b390b3b 	bleq	e445dc <__bss_end__+0xe3a5dc>
    18ec:	05381349 	ldreq	r1, [r8, #-841]!	; 0xfffffcb7
    18f0:	15140000 	ldrne	r0, [r4, #-0]
    18f4:	00192700 	andseq	r2, r9, r0, lsl #14
    18f8:	01151500 	tsteq	r5, r0, lsl #10
    18fc:	13491927 	movtne	r1, #39207	; 0x9927
    1900:	00001301 	andeq	r1, r0, r1, lsl #6
    1904:	49000516 	stmdbmi	r0, {r1, r2, r4, r8, sl}
    1908:	17000013 	smladne	r0, r3, r0, r0
    190c:	0e030113 	mcreq	1, 0, r0, cr3, cr3, {0}
    1910:	0b3a050b 	bleq	e82d44 <__bss_end__+0xe78d44>
    1914:	0b39053b 	bleq	e42e08 <__bss_end__+0xe38e08>
    1918:	00001301 	andeq	r1, r0, r1, lsl #6
    191c:	03000d18 	movweq	r0, #3352	; 0xd18
    1920:	3b0b3a0e 	blcc	2d0160 <__bss_end__+0x2c6160>
    1924:	490b3905 	stmdbmi	fp, {r0, r2, r8, fp, ip, sp}
    1928:	000b3813 	andeq	r3, fp, r3, lsl r8
    192c:	000d1900 	andeq	r1, sp, r0, lsl #18
    1930:	0b3a0e03 	bleq	e85144 <__bss_end__+0xe7b144>
    1934:	0b39053b 	bleq	e42e28 <__bss_end__+0xe38e28>
    1938:	05381349 	ldreq	r1, [r8, #-841]!	; 0xfffffcb7
    193c:	131a0000 	tstne	sl, #0
    1940:	0b0e0301 	bleq	38254c <__bss_end__+0x37854c>
    1944:	3b0b3a0b 	blcc	2d0178 <__bss_end__+0x2c6178>
    1948:	010b3905 	tsteq	fp, r5, lsl #18
    194c:	1b000013 	blne	19a0 <_start-0x6660>
    1950:	0b0b0113 	bleq	2c1da4 <__bss_end__+0x2b7da4>
    1954:	053b0b3a 	ldreq	r0, [fp, #-2874]!	; 0xfffff4c6
    1958:	13010b39 	movwne	r0, #6969	; 0x1b39
    195c:	171c0000 	ldrne	r0, [ip, -r0]
    1960:	3a0b0b01 	bcc	2c456c <__bss_end__+0x2ba56c>
    1964:	39053b0b 	stmdbcc	r5, {r0, r1, r3, r8, r9, fp, ip, sp}
    1968:	0013010b 	andseq	r0, r3, fp, lsl #2
    196c:	000d1d00 	andeq	r1, sp, r0, lsl #26
    1970:	0b3a0e03 	bleq	e85184 <__bss_end__+0xe7b184>
    1974:	0b39053b 	bleq	e42e68 <__bss_end__+0xe38e68>
    1978:	00001349 	andeq	r1, r0, r9, asr #6
    197c:	2701151e 	smladcs	r1, lr, r5, r1
    1980:	00130119 	andseq	r0, r3, r9, lsl r1
    1984:	00341f00 	eorseq	r1, r4, r0, lsl #30
    1988:	0b3a0e03 	bleq	e8519c <__bss_end__+0xe7b19c>
    198c:	0b39053b 	bleq	e42e80 <__bss_end__+0xe38e80>
    1990:	193f1349 	ldmdbne	pc!, {r0, r3, r6, r8, r9, ip}	; <UNPREDICTABLE>
    1994:	0000193c 	andeq	r1, r0, ip, lsr r9
    1998:	03003420 	movweq	r3, #1056	; 0x420
    199c:	3b0b3a0e 	blcc	2d01dc <__bss_end__+0x2c61dc>
    19a0:	490b390b 	stmdbmi	fp, {r0, r1, r3, r8, fp, ip, sp}
    19a4:	3c193f13 	ldccc	15, cr3, [r9], {19}
    19a8:	21000019 	tstcs	r0, r9, lsl r0
    19ac:	0e030034 	mcreq	0, 0, r0, cr3, cr4, {1}
    19b0:	0b3b0b3a 	bleq	ec46a0 <__bss_end__+0xeba6a0>
    19b4:	13490b39 	movtne	r0, #39737	; 0x9b39
    19b8:	2e220000 	cdpcs	0, 2, cr0, cr2, cr0, {0}
    19bc:	03193f01 	tsteq	r9, #1, 30
    19c0:	3b0b3a0e 	blcc	2d0200 <__bss_end__+0x2c6200>
    19c4:	270b390b 	strcs	r3, [fp, -fp, lsl #18]
    19c8:	19018719 	stmdbne	r1, {r0, r3, r4, r8, r9, sl, pc}
    19cc:	06120111 			; <UNDEFINED> instruction: 0x06120111
    19d0:	42971840 	addsmi	r1, r7, #64, 16	; 0x400000
    19d4:	00130119 	andseq	r0, r3, r9, lsl r1
    19d8:	00342300 	eorseq	r2, r4, r0, lsl #6
    19dc:	0b3a0e03 	bleq	e851f0 <__bss_end__+0xe7b1f0>
    19e0:	0b390b3b 	bleq	e446d4 <__bss_end__+0xe3a6d4>
    19e4:	17021349 	strne	r1, [r2, -r9, asr #6]
    19e8:	001742b7 			; <UNDEFINED> instruction: 0x001742b7
    19ec:	82892400 	addhi	r2, r9, #0, 8
    19f0:	01110001 	tsteq	r1, r1
    19f4:	00001331 	andeq	r1, r0, r1, lsr r3
    19f8:	01828925 	orreq	r8, r2, r5, lsr #18
    19fc:	31011101 	tstcc	r1, r1, lsl #2
    1a00:	00130113 	andseq	r0, r3, r3, lsl r1
    1a04:	828a2600 	addhi	r2, sl, #0, 12
    1a08:	18020001 	stmdane	r2, {r0}
    1a0c:	00184291 	mulseq	r8, r1, r2
    1a10:	012e2700 			; <UNDEFINED> instruction: 0x012e2700
    1a14:	0e03193f 			; <UNDEFINED> instruction: 0x0e03193f
    1a18:	0b3b0b3a 	bleq	ec4708 <__bss_end__+0xeba708>
    1a1c:	19270b39 	stmdbne	r7!, {r0, r3, r4, r5, r8, r9, fp}
    1a20:	06120111 			; <UNDEFINED> instruction: 0x06120111
    1a24:	42971840 	addsmi	r1, r7, #64, 16	; 0x400000
    1a28:	00130119 	andseq	r0, r3, r9, lsl r1
    1a2c:	012e2800 			; <UNDEFINED> instruction: 0x012e2800
    1a30:	0e03193f 			; <UNDEFINED> instruction: 0x0e03193f
    1a34:	0b3b0b3a 	bleq	ec4724 <__bss_end__+0xeba724>
    1a38:	19270b39 	stmdbne	r7!, {r0, r3, r4, r5, r8, r9, fp}
    1a3c:	01111349 	tsteq	r1, r9, asr #6
    1a40:	18400612 	stmdane	r0, {r1, r4, r9, sl}^
    1a44:	01194297 			; <UNDEFINED> instruction: 0x01194297
    1a48:	29000013 	stmdbcs	r0, {r0, r1, r4}
    1a4c:	193f002e 	ldmdbne	pc!, {r1, r2, r3, r5}	; <UNPREDICTABLE>
    1a50:	0e6e193c 			; <UNDEFINED> instruction: 0x0e6e193c
    1a54:	0b3a0e03 	bleq	e85268 <__bss_end__+0xe7b268>
    1a58:	0b390b3b 	bleq	e4474c <__bss_end__+0xe3a74c>
    1a5c:	01000000 	mrseq	r0, (UNDEF: 0)
    1a60:	0e250111 	mcreq	1, 1, r0, cr5, cr1, {0}
    1a64:	0e030b13 	vmoveq.32	d3[0], r0
    1a68:	01110e1b 	tsteq	r1, fp, lsl lr
    1a6c:	17100612 			; <UNDEFINED> instruction: 0x17100612
    1a70:	24020000 	strcs	r0, [r2], #-0
    1a74:	3e0b0b00 	vmlacc.f64	d0, d11, d0
    1a78:	0008030b 	andeq	r0, r8, fp, lsl #6
    1a7c:	00240300 	eoreq	r0, r4, r0, lsl #6
    1a80:	0b3e0b0b 	bleq	f846b4 <__bss_end__+0xf7a6b4>
    1a84:	00000e03 	andeq	r0, r0, r3, lsl #28
    1a88:	03001604 	movweq	r1, #1540	; 0x604
    1a8c:	3b0b3a0e 	blcc	2d02cc <__bss_end__+0x2c62cc>
    1a90:	490b390b 	stmdbmi	fp, {r0, r1, r3, r8, fp, ip, sp}
    1a94:	05000013 	streq	r0, [r0, #-19]	; 0xffffffed
    1a98:	0b0b000f 	bleq	2c1adc <__bss_end__+0x2b7adc>
    1a9c:	00001349 	andeq	r1, r0, r9, asr #6
    1aa0:	03001306 	movweq	r1, #774	; 0x306
    1aa4:	00193c0e 	andseq	r3, r9, lr, lsl #24
    1aa8:	00160700 	andseq	r0, r6, r0, lsl #14
    1aac:	0b3a0e03 	bleq	e852c0 <__bss_end__+0xe7b2c0>
    1ab0:	0b39053b 	bleq	e42fa4 <__bss_end__+0xe38fa4>
    1ab4:	00001349 	andeq	r1, r0, r9, asr #6
    1ab8:	0b011708 	bleq	476e0 <__bss_end__+0x3d6e0>
    1abc:	3b0b3a0b 	blcc	2d02f0 <__bss_end__+0x2c62f0>
    1ac0:	010b390b 	tsteq	fp, fp, lsl #18
    1ac4:	09000013 	stmdbeq	r0, {r0, r1, r4}
    1ac8:	0e03000d 	cdpeq	0, 0, cr0, cr3, cr13, {0}
    1acc:	0b3b0b3a 	bleq	ec47bc <__bss_end__+0xeba7bc>
    1ad0:	13490b39 	movtne	r0, #39737	; 0x9b39
    1ad4:	010a0000 	mrseq	r0, (UNDEF: 10)
    1ad8:	01134901 	tsteq	r3, r1, lsl #18
    1adc:	0b000013 	bleq	1b30 <_start-0x64d0>
    1ae0:	13490021 	movtne	r0, #36897	; 0x9021
    1ae4:	00000b2f 	andeq	r0, r0, pc, lsr #22
    1ae8:	0b01130c 	bleq	46720 <__bss_end__+0x3c720>
    1aec:	3b0b3a0b 	blcc	2d0320 <__bss_end__+0x2c6320>
    1af0:	010b390b 	tsteq	fp, fp, lsl #18
    1af4:	0d000013 	stceq	0, cr0, [r0, #-76]	; 0xffffffb4
    1af8:	0e03000d 	cdpeq	0, 0, cr0, cr3, cr13, {0}
    1afc:	0b3b0b3a 	bleq	ec47ec <__bss_end__+0xeba7ec>
    1b00:	13490b39 	movtne	r0, #39737	; 0x9b39
    1b04:	00000b38 	andeq	r0, r0, r8, lsr fp
    1b08:	0b000f0e 	bleq	5748 <_start-0x28b8>
    1b0c:	0f00000b 	svceq	0x0000000b
    1b10:	13490026 	movtne	r0, #36902	; 0x9026
    1b14:	13100000 	tstne	r0, #0
    1b18:	0b0e0301 	bleq	382724 <__bss_end__+0x378724>
    1b1c:	3b0b3a0b 	blcc	2d0350 <__bss_end__+0x2c6350>
    1b20:	010b390b 	tsteq	fp, fp, lsl #18
    1b24:	11000013 	tstne	r0, r3, lsl r0
    1b28:	0803000d 	stmdaeq	r3, {r0, r2, r3}
    1b2c:	0b3b0b3a 	bleq	ec481c <__bss_end__+0xeba81c>
    1b30:	13490b39 	movtne	r0, #39737	; 0x9b39
    1b34:	00000b38 	andeq	r0, r0, r8, lsr fp
    1b38:	03011312 	movweq	r1, #4882	; 0x1312
    1b3c:	3a050b0e 	bcc	14477c <__bss_end__+0x13a77c>
    1b40:	390b3b0b 	stmdbcc	fp, {r0, r1, r3, r8, r9, fp, ip, sp}
    1b44:	0013010b 	andseq	r0, r3, fp, lsl #2
    1b48:	000d1300 	andeq	r1, sp, r0, lsl #6
    1b4c:	0b3a0e03 	bleq	e85360 <__bss_end__+0xe7b360>
    1b50:	0b390b3b 	bleq	e44844 <__bss_end__+0xe3a844>
    1b54:	05381349 	ldreq	r1, [r8, #-841]!	; 0xfffffcb7
    1b58:	15140000 	ldrne	r0, [r4, #-0]
    1b5c:	00192700 	andseq	r2, r9, r0, lsl #14
    1b60:	01151500 	tsteq	r5, r0, lsl #10
    1b64:	13491927 	movtne	r1, #39207	; 0x9927
    1b68:	00001301 	andeq	r1, r0, r1, lsl #6
    1b6c:	49000516 	stmdbmi	r0, {r1, r2, r4, r8, sl}
    1b70:	17000013 	smladne	r0, r3, r0, r0
    1b74:	0e030113 	mcreq	1, 0, r0, cr3, cr3, {0}
    1b78:	0b3a050b 	bleq	e82fac <__bss_end__+0xe78fac>
    1b7c:	0b39053b 	bleq	e43070 <__bss_end__+0xe39070>
    1b80:	00001301 	andeq	r1, r0, r1, lsl #6
    1b84:	03000d18 	movweq	r0, #3352	; 0xd18
    1b88:	3b0b3a0e 	blcc	2d03c8 <__bss_end__+0x2c63c8>
    1b8c:	490b3905 	stmdbmi	fp, {r0, r2, r8, fp, ip, sp}
    1b90:	000b3813 	andeq	r3, fp, r3, lsl r8
    1b94:	000d1900 	andeq	r1, sp, r0, lsl #18
    1b98:	0b3a0e03 	bleq	e853ac <__bss_end__+0xe7b3ac>
    1b9c:	0b39053b 	bleq	e43090 <__bss_end__+0xe39090>
    1ba0:	05381349 	ldreq	r1, [r8, #-841]!	; 0xfffffcb7
    1ba4:	131a0000 	tstne	sl, #0
    1ba8:	0b0e0301 	bleq	3827b4 <__bss_end__+0x3787b4>
    1bac:	3b0b3a0b 	blcc	2d03e0 <__bss_end__+0x2c63e0>
    1bb0:	010b3905 	tsteq	fp, r5, lsl #18
    1bb4:	1b000013 	blne	1c08 <_start-0x63f8>
    1bb8:	0b0b0113 	bleq	2c200c <__bss_end__+0x2b800c>
    1bbc:	053b0b3a 	ldreq	r0, [fp, #-2874]!	; 0xfffff4c6
    1bc0:	13010b39 	movwne	r0, #6969	; 0x1b39
    1bc4:	171c0000 	ldrne	r0, [ip, -r0]
    1bc8:	3a0b0b01 	bcc	2c47d4 <__bss_end__+0x2ba7d4>
    1bcc:	39053b0b 	stmdbcc	r5, {r0, r1, r3, r8, r9, fp, ip, sp}
    1bd0:	0013010b 	andseq	r0, r3, fp, lsl #2
    1bd4:	000d1d00 	andeq	r1, sp, r0, lsl #26
    1bd8:	0b3a0e03 	bleq	e853ec <__bss_end__+0xe7b3ec>
    1bdc:	0b39053b 	bleq	e430d0 <__bss_end__+0xe390d0>
    1be0:	00001349 	andeq	r1, r0, r9, asr #6
    1be4:	2701151e 	smladcs	r1, lr, r5, r1
    1be8:	00130119 	andseq	r0, r3, r9, lsl r1
    1bec:	00341f00 	eorseq	r1, r4, r0, lsl #30
    1bf0:	0b3a0e03 	bleq	e85404 <__bss_end__+0xe7b404>
    1bf4:	0b39053b 	bleq	e430e8 <__bss_end__+0xe390e8>
    1bf8:	193f1349 	ldmdbne	pc!, {r0, r3, r6, r8, r9, ip}	; <UNPREDICTABLE>
    1bfc:	0000193c 	andeq	r1, r0, ip, lsr r9
    1c00:	03003420 	movweq	r3, #1056	; 0x420
    1c04:	3b0b3a0e 	blcc	2d0444 <__bss_end__+0x2c6444>
    1c08:	490b390b 	stmdbmi	fp, {r0, r1, r3, r8, fp, ip, sp}
    1c0c:	3c193f13 	ldccc	15, cr3, [r9], {19}
    1c10:	21000019 	tstcs	r0, r9, lsl r0
    1c14:	193f012e 	ldmdbne	pc!, {r1, r2, r3, r5, r8}	; <UNPREDICTABLE>
    1c18:	0b3a0e03 	bleq	e8542c <__bss_end__+0xe7b42c>
    1c1c:	0b390b3b 	bleq	e44910 <__bss_end__+0xe3a910>
    1c20:	01111927 	tsteq	r1, r7, lsr #18
    1c24:	18400612 	stmdane	r0, {r1, r4, r9, sl}^
    1c28:	01194297 			; <UNDEFINED> instruction: 0x01194297
    1c2c:	22000013 	andcs	r0, r0, #19
    1c30:	08030005 	stmdaeq	r3, {r0, r2}
    1c34:	0b3b0b3a 	bleq	ec4924 <__bss_end__+0xeba924>
    1c38:	13490b39 	movtne	r0, #39737	; 0x9b39
    1c3c:	42b71702 	adcsmi	r1, r7, #524288	; 0x80000
    1c40:	23000017 	movwcs	r0, #23
    1c44:	01018289 	smlabbeq	r1, r9, r2, r8
    1c48:	13310111 	teqne	r1, #1073741828	; 0x40000004
    1c4c:	8a240000 	bhi	901c54 <__bss_end__+0x8f7c54>
    1c50:	02000182 	andeq	r0, r0, #-2147483616	; 0x80000020
    1c54:	18429118 	stmdane	r2, {r3, r4, r8, ip, pc}^
    1c58:	34250000 	strtcc	r0, [r5], #-0
    1c5c:	3a080300 	bcc	202864 <__bss_end__+0x1f8864>
    1c60:	390b3b0b 	stmdbcc	fp, {r0, r1, r3, r8, r9, fp, ip, sp}
    1c64:	0213490b 	andseq	r4, r3, #180224	; 0x2c000
    1c68:	1742b717 	smlaldne	fp, r2, r7, r7
    1c6c:	0b260000 	bleq	981c74 <__bss_end__+0x977c74>
    1c70:	12011101 	andne	r1, r1, #1073741824	; 0x40000000
    1c74:	00130106 	andseq	r0, r3, r6, lsl #2
    1c78:	82892700 	addhi	r2, r9, #0, 14
    1c7c:	01110001 	tsteq	r1, r1
    1c80:	00001331 	andeq	r1, r0, r1, lsr r3
    1c84:	3f012e28 	svccc	0x00012e28
    1c88:	3a0e0319 	bcc	3828f4 <__bss_end__+0x3788f4>
    1c8c:	390b3b0b 	stmdbcc	fp, {r0, r1, r3, r8, r9, fp, ip, sp}
    1c90:	4919270b 	ldmdbmi	r9, {r0, r1, r3, r8, r9, sl, sp}
    1c94:	12011113 	andne	r1, r1, #-1073741820	; 0xc0000004
    1c98:	97184006 	ldrls	r4, [r8, -r6]
    1c9c:	13011942 	movwne	r1, #6466	; 0x1942
    1ca0:	05290000 	streq	r0, [r9, #-0]!
    1ca4:	3a0e0300 	bcc	3828ac <__bss_end__+0x3788ac>
    1ca8:	390b3b0b 	stmdbcc	fp, {r0, r1, r3, r8, r9, fp, ip, sp}
    1cac:	0213490b 	andseq	r4, r3, #180224	; 0x2c000
    1cb0:	1742b717 	smlaldne	fp, r2, r7, r7
    1cb4:	2e2a0000 	cdpcs	0, 2, cr0, cr10, cr0, {0}
    1cb8:	3c193f00 	ldccc	15, cr3, [r9], {-0}
    1cbc:	030e6e19 	movweq	r6, #60953	; 0xee19
    1cc0:	3b0b3a0e 	blcc	2d0500 <__bss_end__+0x2c6500>
    1cc4:	000b390b 	andeq	r3, fp, fp, lsl #18
    1cc8:	11010000 	mrsne	r0, (UNDEF: 1)
    1ccc:	130e2501 	movwne	r2, #58625	; 0xe501
    1cd0:	1b0e030b 	blne	382904 <__bss_end__+0x378904>
    1cd4:	1201110e 	andne	r1, r1, #-2147483645	; 0x80000003
    1cd8:	00171006 	andseq	r1, r7, r6
    1cdc:	00240200 	eoreq	r0, r4, r0, lsl #4
    1ce0:	0b3e0b0b 	bleq	f84914 <__bss_end__+0xf7a914>
    1ce4:	00000803 	andeq	r0, r0, r3, lsl #16
    1ce8:	0b002403 	bleq	acfc <__bss_end__+0xcfc>
    1cec:	030b3e0b 	movweq	r3, #48651	; 0xbe0b
    1cf0:	0400000e 	streq	r0, [r0], #-14
    1cf4:	13490035 	movtne	r0, #36917	; 0x9035
    1cf8:	16050000 	strne	r0, [r5], -r0
    1cfc:	3a0e0300 	bcc	382904 <__bss_end__+0x378904>
    1d00:	490b3b0b 	stmdbmi	fp, {r0, r1, r3, r8, r9, fp, ip, sp}
    1d04:	06000013 			; <UNDEFINED> instruction: 0x06000013
    1d08:	0e030016 	mcreq	0, 0, r0, cr3, cr6, {0}
    1d0c:	053b0b3a 	ldreq	r0, [fp, #-2874]!	; 0xfffff4c6
    1d10:	00001349 	andeq	r1, r0, r9, asr #6
    1d14:	0b011707 	bleq	47938 <__bss_end__+0x3d938>
    1d18:	3b0b3a0b 	blcc	2d054c <__bss_end__+0x2c654c>
    1d1c:	0013010b 	andseq	r0, r3, fp, lsl #2
    1d20:	000d0800 	andeq	r0, sp, r0, lsl #16
    1d24:	0b3a0e03 	bleq	e85538 <__bss_end__+0xe7b538>
    1d28:	13490b3b 	movtne	r0, #39739	; 0x9b3b
    1d2c:	01090000 	mrseq	r0, (UNDEF: 9)
    1d30:	01134901 	tsteq	r3, r1, lsl #18
    1d34:	0a000013 	beq	1d88 <_start-0x6278>
    1d38:	13490021 	movtne	r0, #36897	; 0x9021
    1d3c:	00000b2f 	andeq	r0, r0, pc, lsr #22
    1d40:	0b01130b 	bleq	46974 <__bss_end__+0x3c974>
    1d44:	3b0b3a0b 	blcc	2d0578 <__bss_end__+0x2c6578>
    1d48:	0013010b 	andseq	r0, r3, fp, lsl #2
    1d4c:	000d0c00 	andeq	r0, sp, r0, lsl #24
    1d50:	0b3a0e03 	bleq	e85564 <__bss_end__+0xe7b564>
    1d54:	13490b3b 	movtne	r0, #39739	; 0x9b3b
    1d58:	00000b38 	andeq	r0, r0, r8, lsr fp
    1d5c:	0b000f0d 	bleq	5998 <_start-0x2668>
    1d60:	0e00000b 	cdpeq	0, 0, cr0, cr0, cr11, {0}
    1d64:	0b0b000f 	bleq	2c1da8 <__bss_end__+0x2b7da8>
    1d68:	00001349 	andeq	r1, r0, r9, asr #6
    1d6c:	4900260f 	stmdbmi	r0, {r0, r1, r2, r3, r9, sl, sp}
    1d70:	10000013 	andne	r0, r0, r3, lsl r0
    1d74:	0e030113 	mcreq	1, 0, r0, cr3, cr3, {0}
    1d78:	0b3a0b0b 	bleq	e849ac <__bss_end__+0xe7a9ac>
    1d7c:	13010b3b 	movwne	r0, #6971	; 0x1b3b
    1d80:	0d110000 	ldceq	0, cr0, [r1, #-0]
    1d84:	3a080300 	bcc	20298c <__bss_end__+0x1f898c>
    1d88:	490b3b0b 	stmdbmi	fp, {r0, r1, r3, r8, r9, fp, ip, sp}
    1d8c:	000b3813 	andeq	r3, fp, r3, lsl r8
    1d90:	01131200 	tsteq	r3, r0, lsl #4
    1d94:	050b0e03 	streq	r0, [fp, #-3587]	; 0xfffff1fd
    1d98:	0b3b0b3a 	bleq	ec4a88 <__bss_end__+0xebaa88>
    1d9c:	00001301 	andeq	r1, r0, r1, lsl #6
    1da0:	03000d13 	movweq	r0, #3347	; 0xd13
    1da4:	3b0b3a0e 	blcc	2d05e4 <__bss_end__+0x2c65e4>
    1da8:	3813490b 	ldmdacc	r3, {r0, r1, r3, r8, fp, lr}
    1dac:	14000005 	strne	r0, [r0], #-5
    1db0:	19270015 	stmdbne	r7!, {r0, r2, r4}
    1db4:	15150000 	ldrne	r0, [r5, #-0]
    1db8:	49192701 	ldmdbmi	r9, {r0, r8, r9, sl, sp}
    1dbc:	00130113 	andseq	r0, r3, r3, lsl r1
    1dc0:	00051600 	andeq	r1, r5, r0, lsl #12
    1dc4:	00001349 	andeq	r1, r0, r9, asr #6
    1dc8:	03011317 	movweq	r1, #4887	; 0x1317
    1dcc:	3a050b0e 	bcc	144a0c <__bss_end__+0x13aa0c>
    1dd0:	01053b0b 	tsteq	r5, fp, lsl #22
    1dd4:	18000013 	stmdane	r0, {r0, r1, r4}
    1dd8:	0e03000d 	cdpeq	0, 0, cr0, cr3, cr13, {0}
    1ddc:	053b0b3a 	ldreq	r0, [fp, #-2874]!	; 0xfffff4c6
    1de0:	0b381349 	bleq	e06b0c <__bss_end__+0xdfcb0c>
    1de4:	0d190000 	ldceq	0, cr0, [r9, #-0]
    1de8:	3a0e0300 	bcc	3829f0 <__bss_end__+0x3789f0>
    1dec:	49053b0b 	stmdbmi	r5, {r0, r1, r3, r8, r9, fp, ip, sp}
    1df0:	00053813 	andeq	r3, r5, r3, lsl r8
    1df4:	01131a00 	tsteq	r3, r0, lsl #20
    1df8:	0b0b0e03 	bleq	2c560c <__bss_end__+0x2bb60c>
    1dfc:	053b0b3a 	ldreq	r0, [fp, #-2874]!	; 0xfffff4c6
    1e00:	00001301 	andeq	r1, r0, r1, lsl #6
    1e04:	0b01131b 	bleq	46a78 <__bss_end__+0x3ca78>
    1e08:	3b0b3a0b 	blcc	2d063c <__bss_end__+0x2c663c>
    1e0c:	00130105 	andseq	r0, r3, r5, lsl #2
    1e10:	01171c00 	tsteq	r7, r0, lsl #24
    1e14:	0b3a0b0b 	bleq	e84a48 <__bss_end__+0xe7aa48>
    1e18:	1301053b 	movwne	r0, #5435	; 0x153b
    1e1c:	0d1d0000 	ldceq	0, cr0, [sp, #-0]
    1e20:	3a0e0300 	bcc	382a28 <__bss_end__+0x378a28>
    1e24:	49053b0b 	stmdbmi	r5, {r0, r1, r3, r8, r9, fp, ip, sp}
    1e28:	1e000013 	mcrne	0, 0, r0, cr0, cr3, {0}
    1e2c:	19270115 	stmdbne	r7!, {r0, r2, r4, r8}
    1e30:	00001301 	andeq	r1, r0, r1, lsl #6
    1e34:	0300341f 	movweq	r3, #1055	; 0x41f
    1e38:	3b0b3a0e 	blcc	2d0678 <__bss_end__+0x2c6678>
    1e3c:	3f134905 	svccc	0x00134905
    1e40:	00193c19 	andseq	r3, r9, r9, lsl ip
    1e44:	00342000 	eorseq	r2, r4, r0
    1e48:	0b3a0e03 	bleq	e8565c <__bss_end__+0xe7b65c>
    1e4c:	13490b3b 	movtne	r0, #39739	; 0x9b3b
    1e50:	193c193f 	ldmdbne	ip!, {r0, r1, r2, r3, r4, r5, r8, fp, ip}
    1e54:	04210000 	strteq	r0, [r1], #-0
    1e58:	490b0b01 	stmdbmi	fp, {r0, r8, r9, fp}
    1e5c:	3b0b3a13 	blcc	2d06b0 <__bss_end__+0x2c66b0>
    1e60:	0013010b 	andseq	r0, r3, fp, lsl #2
    1e64:	00282200 	eoreq	r2, r8, r0, lsl #4
    1e68:	0b1c0e03 	bleq	70567c <__bss_end__+0x6fb67c>
    1e6c:	34230000 	strtcc	r0, [r3], #-0
    1e70:	3a0e0300 	bcc	382a78 <__bss_end__+0x378a78>
    1e74:	490b3b0b 	stmdbmi	fp, {r0, r1, r3, r8, r9, fp, ip, sp}
    1e78:	00061c13 	andeq	r1, r6, r3, lsl ip
    1e7c:	012e2400 			; <UNDEFINED> instruction: 0x012e2400
    1e80:	0e03193f 			; <UNDEFINED> instruction: 0x0e03193f
    1e84:	0b3b0b3a 	bleq	ec4b74 <__bss_end__+0xebab74>
    1e88:	13491927 	movtne	r1, #39207	; 0x9927
    1e8c:	06120111 			; <UNDEFINED> instruction: 0x06120111
    1e90:	42971840 	addsmi	r1, r7, #64, 16	; 0x400000
    1e94:	00130119 	andseq	r0, r3, r9, lsl r1
    1e98:	82892500 	addhi	r2, r9, #0, 10
    1e9c:	01110001 	tsteq	r1, r1
    1ea0:	00001331 	andeq	r1, r0, r1, lsr r3
    1ea4:	3f012e26 	svccc	0x00012e26
    1ea8:	3a0e0319 	bcc	382b14 <__bss_end__+0x378b14>
    1eac:	270b3b0b 	strcs	r3, [fp, -fp, lsl #22]
    1eb0:	12011119 	andne	r1, r1, #1073741830	; 0x40000006
    1eb4:	97184006 	ldrls	r4, [r8, -r6]
    1eb8:	13011942 	movwne	r1, #6466	; 0x1942
    1ebc:	05270000 	streq	r0, [r7, #-0]!
    1ec0:	3a080300 	bcc	202ac8 <__bss_end__+0x1f8ac8>
    1ec4:	490b3b0b 	stmdbmi	fp, {r0, r1, r3, r8, r9, fp, ip, sp}
    1ec8:	00170213 	andseq	r0, r7, r3, lsl r2
    1ecc:	82892800 	addhi	r2, r9, #0, 16
    1ed0:	01110101 	tsteq	r1, r1, lsl #2
    1ed4:	13011331 	movwne	r1, #4913	; 0x1331
    1ed8:	8a290000 	bhi	a41ee0 <__bss_end__+0xa37ee0>
    1edc:	02000182 	andeq	r0, r0, #-2147483616	; 0x80000020
    1ee0:	18429118 	stmdane	r2, {r3, r4, r8, ip, pc}^
    1ee4:	342a0000 	strtcc	r0, [sl], #-0
    1ee8:	3a080300 	bcc	202af0 <__bss_end__+0x1f8af0>
    1eec:	490b3b0b 	stmdbmi	fp, {r0, r1, r3, r8, r9, fp, ip, sp}
    1ef0:	00180213 	andseq	r0, r8, r3, lsl r2
    1ef4:	82892b00 	addhi	r2, r9, #0, 22
    1ef8:	01110101 	tsteq	r1, r1, lsl #2
    1efc:	00001331 	andeq	r1, r0, r1, lsr r3
    1f00:	03012e2c 	movweq	r2, #7724	; 0x1e2c
    1f04:	3b0b3a0e 	blcc	2d0744 <__bss_end__+0x2c6744>
    1f08:	1119270b 	tstne	r9, fp, lsl #14
    1f0c:	40061201 	andmi	r1, r6, r1, lsl #4
    1f10:	19429718 	stmdbne	r2, {r3, r4, r8, r9, sl, ip, pc}^
    1f14:	00001301 	andeq	r1, r0, r1, lsl #6
    1f18:	0300052d 	movweq	r0, #1325	; 0x52d
    1f1c:	3b0b3a0e 	blcc	2d075c <__bss_end__+0x2c675c>
    1f20:	0213490b 	andseq	r4, r3, #180224	; 0x2c000
    1f24:	2e000017 	mcrcs	0, 0, r0, cr0, cr7, {0}
    1f28:	00000035 	andeq	r0, r0, r5, lsr r0
    1f2c:	3f002e2f 	svccc	0x00002e2f
    1f30:	6e193c19 	mrcvs	12, 0, r3, cr9, cr9, {0}
    1f34:	3a0e030e 	bcc	382b74 <__bss_end__+0x378b74>
    1f38:	000b3b0b 	andeq	r3, fp, fp, lsl #22
    1f3c:	11010000 	mrsne	r0, (UNDEF: 1)
    1f40:	130e2501 	movwne	r2, #58625	; 0xe501
    1f44:	1b0e030b 	blne	382b78 <__bss_end__+0x378b78>
    1f48:	1201110e 	andne	r1, r1, #-2147483645	; 0x80000003
    1f4c:	00171006 	andseq	r1, r7, r6
    1f50:	00240200 	eoreq	r0, r4, r0, lsl #4
    1f54:	0b3e0b0b 	bleq	f84b88 <__bss_end__+0xf7ab88>
    1f58:	00000803 	andeq	r0, r0, r3, lsl #16
    1f5c:	0b002403 	bleq	af70 <__bss_end__+0xf70>
    1f60:	030b3e0b 	movweq	r3, #48651	; 0xbe0b
    1f64:	0400000e 	streq	r0, [r0], #-14
    1f68:	13490026 	movtne	r0, #36902	; 0x9026
    1f6c:	16050000 	strne	r0, [r5], -r0
    1f70:	3a0e0300 	bcc	382b78 <__bss_end__+0x378b78>
    1f74:	490b3b0b 	stmdbmi	fp, {r0, r1, r3, r8, r9, fp, ip, sp}
    1f78:	06000013 			; <UNDEFINED> instruction: 0x06000013
    1f7c:	0e030016 	mcreq	0, 0, r0, cr3, cr6, {0}
    1f80:	053b0b3a 	ldreq	r0, [fp, #-2874]!	; 0xfffff4c6
    1f84:	00001349 	andeq	r1, r0, r9, asr #6
    1f88:	0b011707 	bleq	47bac <__bss_end__+0x3dbac>
    1f8c:	3b0b3a0b 	blcc	2d07c0 <__bss_end__+0x2c67c0>
    1f90:	0013010b 	andseq	r0, r3, fp, lsl #2
    1f94:	000d0800 	andeq	r0, sp, r0, lsl #16
    1f98:	0b3a0e03 	bleq	e857ac <__bss_end__+0xe7b7ac>
    1f9c:	13490b3b 	movtne	r0, #39739	; 0x9b3b
    1fa0:	01090000 	mrseq	r0, (UNDEF: 9)
    1fa4:	01134901 	tsteq	r3, r1, lsl #18
    1fa8:	0a000013 	beq	1ffc <_start-0x6004>
    1fac:	13490021 	movtne	r0, #36897	; 0x9021
    1fb0:	00000b2f 	andeq	r0, r0, pc, lsr #22
    1fb4:	0b01130b 	bleq	46be8 <__bss_end__+0x3cbe8>
    1fb8:	3b0b3a0b 	blcc	2d07ec <__bss_end__+0x2c67ec>
    1fbc:	0013010b 	andseq	r0, r3, fp, lsl #2
    1fc0:	000d0c00 	andeq	r0, sp, r0, lsl #24
    1fc4:	0b3a0e03 	bleq	e857d8 <__bss_end__+0xe7b7d8>
    1fc8:	13490b3b 	movtne	r0, #39739	; 0x9b3b
    1fcc:	00000b38 	andeq	r0, r0, r8, lsr fp
    1fd0:	0b000f0d 	bleq	5c0c <_start-0x23f4>
    1fd4:	0e00000b 	cdpeq	0, 0, cr0, cr0, cr11, {0}
    1fd8:	0b0b000f 	bleq	2c201c <__bss_end__+0x2b801c>
    1fdc:	00001349 	andeq	r1, r0, r9, asr #6
    1fe0:	0301130f 	movweq	r1, #4879	; 0x130f
    1fe4:	3a0b0b0e 	bcc	2c4c24 <__bss_end__+0x2bac24>
    1fe8:	010b3b0b 	tsteq	fp, fp, lsl #22
    1fec:	10000013 	andne	r0, r0, r3, lsl r0
    1ff0:	0803000d 	stmdaeq	r3, {r0, r2, r3}
    1ff4:	0b3b0b3a 	bleq	ec4ce4 <__bss_end__+0xebace4>
    1ff8:	0b381349 	bleq	e06d24 <__bss_end__+0xdfcd24>
    1ffc:	13110000 	tstne	r1, #0
    2000:	0b0e0301 	bleq	382c0c <__bss_end__+0x378c0c>
    2004:	3b0b3a05 	blcc	2d0820 <__bss_end__+0x2c6820>
    2008:	0013010b 	andseq	r0, r3, fp, lsl #2
    200c:	000d1200 	andeq	r1, sp, r0, lsl #4
    2010:	0b3a0e03 	bleq	e85824 <__bss_end__+0xe7b824>
    2014:	13490b3b 	movtne	r0, #39739	; 0x9b3b
    2018:	00000538 	andeq	r0, r0, r8, lsr r5
    201c:	27001513 	smladcs	r0, r3, r5, r1
    2020:	14000019 	strne	r0, [r0], #-25	; 0xffffffe7
    2024:	19270115 	stmdbne	r7!, {r0, r2, r4, r8}
    2028:	13011349 	movwne	r1, #4937	; 0x1349
    202c:	05150000 	ldreq	r0, [r5, #-0]
    2030:	00134900 	andseq	r4, r3, r0, lsl #18
    2034:	01131600 	tsteq	r3, r0, lsl #12
    2038:	050b0e03 	streq	r0, [fp, #-3587]	; 0xfffff1fd
    203c:	053b0b3a 	ldreq	r0, [fp, #-2874]!	; 0xfffff4c6
    2040:	00001301 	andeq	r1, r0, r1, lsl #6
    2044:	03000d17 	movweq	r0, #3351	; 0xd17
    2048:	3b0b3a0e 	blcc	2d0888 <__bss_end__+0x2c6888>
    204c:	38134905 	ldmdacc	r3, {r0, r2, r8, fp, lr}
    2050:	1800000b 	stmdane	r0, {r0, r1, r3}
    2054:	0e03000d 	cdpeq	0, 0, cr0, cr3, cr13, {0}
    2058:	053b0b3a 	ldreq	r0, [fp, #-2874]!	; 0xfffff4c6
    205c:	05381349 	ldreq	r1, [r8, #-841]!	; 0xfffffcb7
    2060:	13190000 	tstne	r9, #0
    2064:	0b0e0301 	bleq	382c70 <__bss_end__+0x378c70>
    2068:	3b0b3a0b 	blcc	2d089c <__bss_end__+0x2c689c>
    206c:	00130105 	andseq	r0, r3, r5, lsl #2
    2070:	01131a00 	tsteq	r3, r0, lsl #20
    2074:	0b3a0b0b 	bleq	e84ca8 <__bss_end__+0xe7aca8>
    2078:	1301053b 	movwne	r0, #5435	; 0x153b
    207c:	171b0000 	ldrne	r0, [fp, -r0]
    2080:	3a0b0b01 	bcc	2c4c8c <__bss_end__+0x2bac8c>
    2084:	01053b0b 	tsteq	r5, fp, lsl #22
    2088:	1c000013 	stcne	0, cr0, [r0], {19}
    208c:	0e03000d 	cdpeq	0, 0, cr0, cr3, cr13, {0}
    2090:	053b0b3a 	ldreq	r0, [fp, #-2874]!	; 0xfffff4c6
    2094:	00001349 	andeq	r1, r0, r9, asr #6
    2098:	2701151d 	smladcs	r1, sp, r5, r1
    209c:	00130119 	andseq	r0, r3, r9, lsl r1
    20a0:	00341e00 	eorseq	r1, r4, r0, lsl #28
    20a4:	0b3a0e03 	bleq	e858b8 <__bss_end__+0xe7b8b8>
    20a8:	1349053b 	movtne	r0, #38203	; 0x953b
    20ac:	193c193f 	ldmdbne	ip!, {r0, r1, r2, r3, r4, r5, r8, fp, ip}
    20b0:	341f0000 	ldrcc	r0, [pc], #-0	; 20b8 <_start-0x5f48>
    20b4:	3a0e0300 	bcc	382cbc <__bss_end__+0x378cbc>
    20b8:	490b3b0b 	stmdbmi	fp, {r0, r1, r3, r8, r9, fp, ip, sp}
    20bc:	3c193f13 	ldccc	15, cr3, [r9], {19}
    20c0:	20000019 	andcs	r0, r0, r9, lsl r0
    20c4:	0b0b0104 	bleq	2c24dc <__bss_end__+0x2b84dc>
    20c8:	0b3a1349 	bleq	e86df4 <__bss_end__+0xe7cdf4>
    20cc:	13010b3b 	movwne	r0, #6971	; 0x1b3b
    20d0:	28210000 	stmdacs	r1!, {}	; <UNPREDICTABLE>
    20d4:	1c0e0300 	stcne	3, cr0, [lr], {-0}
    20d8:	2200000b 	andcs	r0, r0, #11
    20dc:	0e030034 	mcreq	0, 0, r0, cr3, cr4, {1}
    20e0:	0b3b0b3a 	bleq	ec4dd0 <__bss_end__+0xebadd0>
    20e4:	061c1349 	ldreq	r1, [ip], -r9, asr #6
    20e8:	2e230000 	cdpcs	0, 2, cr0, cr3, cr0, {0}
    20ec:	03193f01 	tsteq	r9, #1, 30
    20f0:	3b0b3a0e 	blcc	2d0930 <__bss_end__+0x2c6930>
    20f4:	4919270b 	ldmdbmi	r9, {r0, r1, r3, r8, r9, sl, sp}
    20f8:	12011113 	andne	r1, r1, #-1073741820	; 0xc0000004
    20fc:	97184006 	ldrls	r4, [r8, -r6]
    2100:	13011942 	movwne	r1, #6466	; 0x1942
    2104:	05240000 	streq	r0, [r4, #-0]!
    2108:	3a080300 	bcc	202d10 <__bss_end__+0x1f8d10>
    210c:	490b3b0b 	stmdbmi	fp, {r0, r1, r3, r8, r9, fp, ip, sp}
    2110:	00170213 	andseq	r0, r7, r3, lsl r2
    2114:	00342500 	eorseq	r2, r4, r0, lsl #10
    2118:	0b3a0e03 	bleq	e8592c <__bss_end__+0xe7b92c>
    211c:	13490b3b 	movtne	r0, #39739	; 0x9b3b
    2120:	00001702 	andeq	r1, r0, r2, lsl #14
    2124:	03003426 	movweq	r3, #1062	; 0x426
    2128:	3b0b3a08 	blcc	2d0950 <__bss_end__+0x2c6950>
    212c:	0213490b 	andseq	r4, r3, #180224	; 0x2c000
    2130:	27000017 	smladcs	r0, r7, r0, r0
    2134:	01018289 	smlabbeq	r1, r9, r2, r8
    2138:	13310111 	teqne	r1, #1073741828	; 0x40000004
    213c:	8a280000 	bhi	a02144 <__bss_end__+0x9f8144>
    2140:	02000182 	andeq	r0, r0, #-2147483616	; 0x80000020
    2144:	18429118 	stmdane	r2, {r3, r4, r8, ip, pc}^
    2148:	2e290000 	cdpcs	0, 2, cr0, cr9, cr0, {0}
    214c:	03193f01 	tsteq	r9, #1, 30
    2150:	3b0b3a0e 	blcc	2d0990 <__bss_end__+0x2c6990>
    2154:	1119270b 	tstne	r9, fp, lsl #14
    2158:	40061201 	andmi	r1, r6, r1, lsl #4
    215c:	19429718 	stmdbne	r2, {r3, r4, r8, r9, sl, ip, pc}^
    2160:	00001301 	andeq	r1, r0, r1, lsl #6
    2164:	0182892a 	orreq	r8, r2, sl, lsr #18
    2168:	31011101 	tstcc	r1, r1, lsl #2
    216c:	00130113 	andseq	r0, r3, r3, lsl r1
    2170:	82892b00 	addhi	r2, r9, #0, 22
    2174:	01110001 	tsteq	r1, r1
    2178:	00001331 	andeq	r1, r0, r1, lsr r3
    217c:	0300052c 	movweq	r0, #1324	; 0x52c
    2180:	3b0b3a0e 	blcc	2d09c0 <__bss_end__+0x2c69c0>
    2184:	0213490b 	andseq	r4, r3, #180224	; 0x2c000
    2188:	2d000017 	stccs	0, cr0, [r0, #-92]	; 0xffffffa4
    218c:	08030034 	stmdaeq	r3, {r2, r4, r5}
    2190:	0b3b0b3a 	bleq	ec4e80 <__bss_end__+0xebae80>
    2194:	18021349 	stmdane	r2, {r0, r3, r6, r8, r9, ip}
    2198:	2e2e0000 	cdpcs	0, 2, cr0, cr14, cr0, {0}
    219c:	3c193f00 	ldccc	15, cr3, [r9], {-0}
    21a0:	030e6e19 	movweq	r6, #60953	; 0xee19
    21a4:	3b0b3a0e 	blcc	2d09e4 <__bss_end__+0x2c69e4>
    21a8:	0000000b 	andeq	r0, r0, fp
    21ac:	25011101 	strcs	r1, [r1, #-257]	; 0xfffffeff
    21b0:	030b130e 	movweq	r1, #45838	; 0xb30e
    21b4:	110e1b0e 	tstne	lr, lr, lsl #22
    21b8:	10061201 	andne	r1, r6, r1, lsl #4
    21bc:	02000017 	andeq	r0, r0, #23
    21c0:	0b0b0024 	bleq	2c2258 <__bss_end__+0x2b8258>
    21c4:	08030b3e 	stmdaeq	r3, {r1, r2, r3, r4, r5, r8, r9, fp}
    21c8:	24030000 	strcs	r0, [r3], #-0
    21cc:	3e0b0b00 	vmlacc.f64	d0, d11, d0
    21d0:	000e030b 	andeq	r0, lr, fp, lsl #6
    21d4:	00160400 	andseq	r0, r6, r0, lsl #8
    21d8:	0b3a0e03 	bleq	e859ec <__bss_end__+0xe7b9ec>
    21dc:	13490b3b 	movtne	r0, #39739	; 0x9b3b
    21e0:	16050000 	strne	r0, [r5], -r0
    21e4:	3a0e0300 	bcc	382dec <__bss_end__+0x378dec>
    21e8:	49053b0b 	stmdbmi	r5, {r0, r1, r3, r8, r9, fp, ip, sp}
    21ec:	06000013 			; <UNDEFINED> instruction: 0x06000013
    21f0:	0b0b0117 	bleq	2c2654 <__bss_end__+0x2b8654>
    21f4:	0b3b0b3a 	bleq	ec4ee4 <__bss_end__+0xebaee4>
    21f8:	00001301 	andeq	r1, r0, r1, lsl #6
    21fc:	03000d07 	movweq	r0, #3335	; 0xd07
    2200:	3b0b3a0e 	blcc	2d0a40 <__bss_end__+0x2c6a40>
    2204:	0013490b 	andseq	r4, r3, fp, lsl #18
    2208:	01010800 	tsteq	r1, r0, lsl #16
    220c:	13011349 	movwne	r1, #4937	; 0x1349
    2210:	21090000 	mrscs	r0, (UNDEF: 9)
    2214:	2f134900 	svccs	0x00134900
    2218:	0a00000b 	beq	224c <_start-0x5db4>
    221c:	0b0b0113 	bleq	2c2670 <__bss_end__+0x2b8670>
    2220:	0b3b0b3a 	bleq	ec4f10 <__bss_end__+0xebaf10>
    2224:	00001301 	andeq	r1, r0, r1, lsl #6
    2228:	03000d0b 	movweq	r0, #3339	; 0xd0b
    222c:	3b0b3a0e 	blcc	2d0a6c <__bss_end__+0x2c6a6c>
    2230:	3813490b 	ldmdacc	r3, {r0, r1, r3, r8, fp, lr}
    2234:	0c00000b 	stceq	0, cr0, [r0], {11}
    2238:	0b0b000f 	bleq	2c227c <__bss_end__+0x2b827c>
    223c:	0f0d0000 	svceq	0x000d0000
    2240:	490b0b00 	stmdbmi	fp, {r8, r9, fp}
    2244:	0e000013 	mcreq	0, 0, r0, cr0, cr3, {0}
    2248:	13490026 	movtne	r0, #36902	; 0x9026
    224c:	130f0000 	movwne	r0, #61440	; 0xf000
    2250:	0b0e0301 	bleq	382e5c <__bss_end__+0x378e5c>
    2254:	3b0b3a0b 	blcc	2d0a88 <__bss_end__+0x2c6a88>
    2258:	0013010b 	andseq	r0, r3, fp, lsl #2
    225c:	000d1000 	andeq	r1, sp, r0
    2260:	0b3a0803 	bleq	e84274 <__bss_end__+0xe7a274>
    2264:	13490b3b 	movtne	r0, #39739	; 0x9b3b
    2268:	00000b38 	andeq	r0, r0, r8, lsr fp
    226c:	03011311 	movweq	r1, #4881	; 0x1311
    2270:	3a050b0e 	bcc	144eb0 <__bss_end__+0x13aeb0>
    2274:	010b3b0b 	tsteq	fp, fp, lsl #22
    2278:	12000013 	andne	r0, r0, #19
    227c:	0e03000d 	cdpeq	0, 0, cr0, cr3, cr13, {0}
    2280:	0b3b0b3a 	bleq	ec4f70 <__bss_end__+0xebaf70>
    2284:	05381349 	ldreq	r1, [r8, #-841]!	; 0xfffffcb7
    2288:	15130000 	ldrne	r0, [r3, #-0]
    228c:	00192700 	andseq	r2, r9, r0, lsl #14
    2290:	01151400 	tsteq	r5, r0, lsl #8
    2294:	13491927 	movtne	r1, #39207	; 0x9927
    2298:	00001301 	andeq	r1, r0, r1, lsl #6
    229c:	49000515 	stmdbmi	r0, {r0, r2, r4, r8, sl}
    22a0:	16000013 			; <UNDEFINED> instruction: 0x16000013
    22a4:	0e030113 	mcreq	1, 0, r0, cr3, cr3, {0}
    22a8:	0b3a050b 	bleq	e836dc <__bss_end__+0xe796dc>
    22ac:	1301053b 	movwne	r0, #5435	; 0x153b
    22b0:	0d170000 	ldceq	0, cr0, [r7, #-0]
    22b4:	3a0e0300 	bcc	382ebc <__bss_end__+0x378ebc>
    22b8:	49053b0b 	stmdbmi	r5, {r0, r1, r3, r8, r9, fp, ip, sp}
    22bc:	000b3813 	andeq	r3, fp, r3, lsl r8
    22c0:	000d1800 	andeq	r1, sp, r0, lsl #16
    22c4:	0b3a0e03 	bleq	e85ad8 <__bss_end__+0xe7bad8>
    22c8:	1349053b 	movtne	r0, #38203	; 0x953b
    22cc:	00000538 	andeq	r0, r0, r8, lsr r5
    22d0:	03011319 	movweq	r1, #4889	; 0x1319
    22d4:	3a0b0b0e 	bcc	2c4f14 <__bss_end__+0x2baf14>
    22d8:	01053b0b 	tsteq	r5, fp, lsl #22
    22dc:	1a000013 	bne	2330 <_start-0x5cd0>
    22e0:	0b0b0113 	bleq	2c2734 <__bss_end__+0x2b8734>
    22e4:	053b0b3a 	ldreq	r0, [fp, #-2874]!	; 0xfffff4c6
    22e8:	00001301 	andeq	r1, r0, r1, lsl #6
    22ec:	0b01171b 	bleq	47f60 <__bss_end__+0x3df60>
    22f0:	3b0b3a0b 	blcc	2d0b24 <__bss_end__+0x2c6b24>
    22f4:	00130105 	andseq	r0, r3, r5, lsl #2
    22f8:	000d1c00 	andeq	r1, sp, r0, lsl #24
    22fc:	0b3a0e03 	bleq	e85b10 <__bss_end__+0xe7bb10>
    2300:	1349053b 	movtne	r0, #38203	; 0x953b
    2304:	151d0000 	ldrne	r0, [sp, #-0]
    2308:	01192701 	tsteq	r9, r1, lsl #14
    230c:	1e000013 	mcrne	0, 0, r0, cr0, cr3, {0}
    2310:	0e030034 	mcreq	0, 0, r0, cr3, cr4, {1}
    2314:	053b0b3a 	ldreq	r0, [fp, #-2874]!	; 0xfffff4c6
    2318:	193f1349 	ldmdbne	pc!, {r0, r3, r6, r8, r9, ip}	; <UNPREDICTABLE>
    231c:	0000193c 	andeq	r1, r0, ip, lsr r9
    2320:	0300341f 	movweq	r3, #1055	; 0x41f
    2324:	3b0b3a0e 	blcc	2d0b64 <__bss_end__+0x2c6b64>
    2328:	3f13490b 	svccc	0x0013490b
    232c:	00193c19 	andseq	r3, r9, r9, lsl ip
    2330:	00342000 	eorseq	r2, r4, r0
    2334:	0b3a0e03 	bleq	e85b48 <__bss_end__+0xe7bb48>
    2338:	13490b3b 	movtne	r0, #39739	; 0x9b3b
    233c:	00001802 	andeq	r1, r0, r2, lsl #16
    2340:	3f012e21 	svccc	0x00012e21
    2344:	3a0e0319 	bcc	382fb0 <__bss_end__+0x378fb0>
    2348:	270b3b0b 	strcs	r3, [fp, -fp, lsl #22]
    234c:	12011119 	andne	r1, r1, #1073741830	; 0x40000006
    2350:	97184006 	ldrls	r4, [r8, -r6]
    2354:	13011942 	movwne	r1, #6466	; 0x1942
    2358:	05220000 	streq	r0, [r2, #-0]!
    235c:	3a080300 	bcc	202f64 <__bss_end__+0x1f8f64>
    2360:	490b3b0b 	stmdbmi	fp, {r0, r1, r3, r8, r9, fp, ip, sp}
    2364:	00180213 	andseq	r0, r8, r3, lsl r2
    2368:	002e2300 	eoreq	r2, lr, r0, lsl #6
    236c:	0e03193f 			; <UNDEFINED> instruction: 0x0e03193f
    2370:	0b3b0b3a 	bleq	ec5060 <__bss_end__+0xebb060>
    2374:	01111927 	tsteq	r1, r7, lsr #18
    2378:	18400612 	stmdane	r0, {r1, r4, r9, sl}^
    237c:	00194297 	mulseq	r9, r7, r2
    2380:	012e2400 			; <UNDEFINED> instruction: 0x012e2400
    2384:	0e03193f 			; <UNDEFINED> instruction: 0x0e03193f
    2388:	0b3b0b3a 	bleq	ec5078 <__bss_end__+0xebb078>
    238c:	13491927 	movtne	r1, #39207	; 0x9927
    2390:	06120111 			; <UNDEFINED> instruction: 0x06120111
    2394:	42971840 	addsmi	r1, r7, #64, 16	; 0x400000
    2398:	00130119 	andseq	r0, r3, r9, lsl r1
    239c:	00052500 	andeq	r2, r5, r0, lsl #10
    23a0:	0b3a0e03 	bleq	e85bb4 <__bss_end__+0xe7bbb4>
    23a4:	13490b3b 	movtne	r0, #39739	; 0x9b3b
    23a8:	00001702 	andeq	r1, r0, r2, lsl #14
    23ac:	03003426 	movweq	r3, #1062	; 0x426
    23b0:	3413490e 	ldrcc	r4, [r3], #-2318	; 0xfffff6f2
    23b4:	00180219 	andseq	r0, r8, r9, lsl r2
    23b8:	00342700 	eorseq	r2, r4, r0, lsl #14
    23bc:	0b3a0803 	bleq	e843d0 <__bss_end__+0xe7a3d0>
    23c0:	13490b3b 	movtne	r0, #39739	; 0x9b3b
    23c4:	00001702 	andeq	r1, r0, r2, lsl #14
    23c8:	01828928 	orreq	r8, r2, r8, lsr #18
    23cc:	31011101 	tstcc	r1, r1, lsl #2
    23d0:	00130113 	andseq	r0, r3, r3, lsl r1
    23d4:	828a2900 	addhi	r2, sl, #0, 18
    23d8:	18020001 	stmdane	r2, {r0}
    23dc:	00184291 	mulseq	r8, r1, r2
    23e0:	82892a00 	addhi	r2, r9, #0, 20
    23e4:	01110001 	tsteq	r1, r1
    23e8:	00001331 	andeq	r1, r0, r1, lsr r3
    23ec:	0300052b 	movweq	r0, #1323	; 0x52b
    23f0:	3b0b3a08 	blcc	2d0c18 <__bss_end__+0x2c6c18>
    23f4:	0213490b 	andseq	r4, r3, #180224	; 0x2c000
    23f8:	2c000017 	stccs	0, cr0, [r0], {23}
    23fc:	0e030034 	mcreq	0, 0, r0, cr3, cr4, {1}
    2400:	0b3b0b3a 	bleq	ec50f0 <__bss_end__+0xebb0f0>
    2404:	17021349 	strne	r1, [r2, -r9, asr #6]
    2408:	2e2d0000 	cdpcs	0, 2, cr0, cr13, cr0, {0}
    240c:	03193f00 	tsteq	r9, #0, 30
    2410:	3b0b3a0e 	blcc	2d0c50 <__bss_end__+0x2c6c50>
    2414:	4919270b 	ldmdbmi	r9, {r0, r1, r3, r8, r9, sl, sp}
    2418:	12011113 	andne	r1, r1, #-1073741820	; 0xc0000004
    241c:	97184006 	ldrls	r4, [r8, -r6]
    2420:	00001942 	andeq	r1, r0, r2, asr #18
    2424:	3f002e2e 	svccc	0x00002e2e
    2428:	6e193c19 	mrcvs	12, 0, r3, cr9, cr9, {0}
    242c:	3a0e030e 	bcc	38306c <__bss_end__+0x37906c>
    2430:	000b3b0b 	andeq	r3, fp, fp, lsl #22
	...

Disassembly of section .debug_loc:

00000000 <.debug_loc>:
       0:	00000000 	andeq	r0, r0, r0
       4:	00000048 	andeq	r0, r0, r8, asr #32
       8:	00000053 	andeq	r0, r0, r3, asr r0
       c:	53500001 	cmppl	r0, #1
      10:	98000000 	stmdals	r0, {}	; <UNPREDICTABLE>
      14:	01000000 	mrseq	r0, (UNDEF: 0)
      18:	00005400 	andeq	r5, r0, r0, lsl #8
	...
      28:	00000074 	andeq	r0, r0, r4, ror r0
      2c:	00000080 	andeq	r0, r0, r0, lsl #1
      30:	94500001 	ldrbls	r0, [r0], #-1
      34:	9b000000 	blls	3c <_start-0x7fc4>
      38:	01000000 	mrseq	r0, (UNDEF: 0)
      3c:	009b5000 	addseq	r5, fp, r0
      40:	00d00000 	sbcseq	r0, r0, r0
      44:	00010000 	andeq	r0, r1, r0
      48:	00000054 	andeq	r0, r0, r4, asr r0
      4c:	00000000 	andeq	r0, r0, r0
      50:	2c000000 	stccs	0, cr0, [r0], {-0}
      54:	54000007 	strpl	r0, [r0], #-7
      58:	01000007 	tsteq	r0, r7
      5c:	00005500 	andeq	r5, r0, r0, lsl #10
	...
      68:	00000734 	andeq	r0, r0, r4, lsr r7
      6c:	00000758 	andeq	r0, r0, r8, asr r7
      70:	00560001 	subseq	r0, r6, r1
      74:	00000000 	andeq	r0, r0, r0
      78:	02000000 	andeq	r0, r0, #0
      7c:	4c000000 	stcmi	0, cr0, [r0], {-0}
      80:	5c000007 	stcpl	0, cr0, [r0], {7}
      84:	02000007 	andeq	r0, r0, #7
      88:	5c9f3000 	ldcpl	0, cr3, [pc], {0}
      8c:	68000007 	stmdavs	r0, {r0, r1, r2}
      90:	01000008 	tsteq	r0, r8
      94:	00005600 	andeq	r5, r0, r0, lsl #12
      98:	00000000 	andeq	r0, r0, r0
      9c:	00030000 	andeq	r0, r3, r0
      a0:	074c0000 	strbeq	r0, [ip, -r0]
      a4:	075c0000 	ldrbeq	r0, [ip, -r0]
      a8:	00020000 	andeq	r0, r2, r0
      ac:	075c9f30 	smmlareq	ip, r0, pc, r9	; <UNPREDICTABLE>
      b0:	08680000 	stmdaeq	r8!, {}^	; <UNPREDICTABLE>
      b4:	00010000 	andeq	r0, r1, r0
      b8:	00000055 	andeq	r0, r0, r5, asr r0
      bc:	00000000 	andeq	r0, r0, r0
      c0:	50000000 	andpl	r0, r0, r0
      c4:	68000007 	stmdavs	r0, {r0, r1, r2}
      c8:	01000008 	tsteq	r0, r8
      cc:	00005400 	andeq	r5, r0, r0, lsl #8
	...
      e0:	000004fc 	strdeq	r0, [r0], -ip
      e4:	00000528 	andeq	r0, r0, r8, lsr #10
      e8:	28500001 	ldmdacs	r0, {r0}^
      ec:	24000005 	strcs	r0, [r0], #-5
      f0:	01000006 	tsteq	r0, r6
      f4:	06245500 	strteq	r5, [r4], -r0, lsl #10
      f8:	06270000 	strteq	r0, [r7], -r0
      fc:	00010000 	andeq	r0, r1, r0
     100:	00062750 	andeq	r2, r6, r0, asr r7
     104:	00064000 	andeq	r4, r6, r0
     108:	f3000400 	vshl.u8	d0, d0, d0
     10c:	409f5001 	addsmi	r5, pc, r1
     110:	18000006 	stmdane	r0, {r1, r2}
     114:	01000007 	tsteq	r0, r7
     118:	00005500 	andeq	r5, r0, r0, lsl #10
	...
     12c:	000004fc 	strdeq	r0, [r0], -ip
     130:	0000052b 	andeq	r0, r0, fp, lsr #10
     134:	2b510001 	blcs	1440140 <__bss_end__+0x1436140>
     138:	24000005 	strcs	r0, [r0], #-5
     13c:	01000006 	tsteq	r0, r6
     140:	06245800 	strteq	r5, [r4], -r0, lsl #16
     144:	06270000 	strteq	r0, [r7], -r0
     148:	00010000 	andeq	r0, r1, r0
     14c:	00062751 	andeq	r2, r6, r1, asr r7
     150:	00064000 	andeq	r4, r6, r0
     154:	f3000400 	vshl.u8	d0, d0, d0
     158:	409f5101 	addsmi	r5, pc, r1, lsl #2
     15c:	18000006 	stmdane	r0, {r1, r2}
     160:	01000007 	tsteq	r0, r7
     164:	00005800 	andeq	r5, r0, r0, lsl #16
	...
     178:	000004fc 	strdeq	r0, [r0], -ip
     17c:	0000052b 	andeq	r0, r0, fp, lsr #10
     180:	2b520001 	blcs	148018c <__bss_end__+0x147618c>
     184:	24000005 	strcs	r0, [r0], #-5
     188:	01000006 	tsteq	r0, r6
     18c:	06245700 	strteq	r5, [r4], -r0, lsl #14
     190:	06270000 	strteq	r0, [r7], -r0
     194:	00010000 	andeq	r0, r1, r0
     198:	00062752 	andeq	r2, r6, r2, asr r7
     19c:	00064000 	andeq	r4, r6, r0
     1a0:	f3000400 	vshl.u8	d0, d0, d0
     1a4:	409f5201 	addsmi	r5, pc, r1, lsl #4
     1a8:	18000006 	stmdane	r0, {r1, r2}
     1ac:	01000007 	tsteq	r0, r7
     1b0:	00005700 	andeq	r5, r0, r0, lsl #14
	...
     1c4:	000004fc 	strdeq	r0, [r0], -ip
     1c8:	0000050c 	andeq	r0, r0, ip, lsl #10
     1cc:	0c530001 	mrrceq	0, 0, r0, r3, cr1
     1d0:	b0000005 	andlt	r0, r0, r5
     1d4:	01000005 	tsteq	r0, r5
     1d8:	05b05600 	ldreq	r5, [r0, #1536]!	; 0x600
     1dc:	06240000 	strteq	r0, [r4], -r0
     1e0:	00040000 	andeq	r0, r4, r0
     1e4:	9f5301f3 	svcls	0x005301f3
     1e8:	00000624 	andeq	r0, r0, r4, lsr #12
     1ec:	000006c8 	andeq	r0, r0, r8, asr #13
     1f0:	c8560001 	ldmdagt	r6, {r0}^
     1f4:	18000006 	stmdane	r0, {r1, r2}
     1f8:	04000007 	streq	r0, [r0], #-7
     1fc:	5301f300 	movwpl	pc, #4864	; 0x1300	; <UNPREDICTABLE>
     200:	0000009f 	muleq	r0, pc, r0	; <UNPREDICTABLE>
     204:	00000000 	andeq	r0, r0, r0
     208:	03030100 	movweq	r0, #12544	; 0x3100
     20c:	00000000 	andeq	r0, r0, r0
     210:	00050800 	andeq	r0, r5, r0, lsl #16
     214:	00056400 	andeq	r6, r5, r0, lsl #8
     218:	30000200 	andcc	r0, r0, r0, lsl #4
     21c:	0005649f 	muleq	r5, pc, r4	; <UNPREDICTABLE>
     220:	0005fc00 	andeq	pc, r5, r0, lsl #24
     224:	54000100 	strpl	r0, [r0], #-256	; 0xffffff00
     228:	00000624 	andeq	r0, r0, r4, lsr #12
     22c:	000006c8 	andeq	r0, r0, r8, asr #13
     230:	9f300002 	svcls	0x00300002
     234:	000006c8 	andeq	r0, r0, r8, asr #13
     238:	00000718 	andeq	r0, r0, r8, lsl r7
     23c:	00540001 	subseq	r0, r4, r1
     240:	00000000 	andeq	r0, r0, r0
     244:	02000000 	andeq	r0, r0, #0
     248:	00000000 	andeq	r0, r0, r0
     24c:	08000000 	stmdaeq	r0, {}	; <UNPREDICTABLE>
     250:	fc000005 	stc2	0, cr0, [r0], {5}
     254:	02000005 	andeq	r0, r0, #5
     258:	fc9f3000 	ldc2	0, cr3, [pc], {0}
     25c:	00000005 	andeq	r0, r0, r5
     260:	01000006 	tsteq	r0, r6
     264:	06005000 	streq	r5, [r0], -r0
     268:	06240000 	strteq	r0, [r4], -r0
     26c:	00010000 	andeq	r0, r1, r0
     270:	00062454 	andeq	r2, r6, r4, asr r4
     274:	00071800 	andeq	r1, r7, r0, lsl #16
     278:	30000200 	andcc	r0, r0, r0, lsl #4
     27c:	0000009f 	muleq	r0, pc, r0	; <UNPREDICTABLE>
	...
     290:	00054000 	andeq	r4, r5, r0
     294:	00056c00 	andeq	r6, r5, r0, lsl #24
     298:	50000100 	andpl	r0, r0, r0, lsl #2
     29c:	0000056c 	andeq	r0, r0, ip, ror #10
     2a0:	00000624 	andeq	r0, r0, r4, lsr #12
     2a4:	c8790004 	ldmdagt	r9!, {r2}^
     2a8:	06409f7d 			; <UNDEFINED> instruction: 0x06409f7d
     2ac:	06440000 	strbeq	r0, [r4], -r0
     2b0:	00010000 	andeq	r0, r1, r0
     2b4:	00064450 	andeq	r4, r6, r0, asr r4
     2b8:	00067400 	andeq	r7, r6, r0, lsl #8
     2bc:	79000400 	stmdbvc	r0, {sl}
     2c0:	749f7dc8 	ldrvc	r7, [pc], #3528	; 2c8 <_start-0x7d38>
     2c4:	78000006 	stmdavc	r0, {r1, r2}
     2c8:	01000006 	tsteq	r0, r6
     2cc:	06785000 	ldrbteq	r5, [r8], -r0
     2d0:	07180000 	ldreq	r0, [r8, -r0]
     2d4:	00040000 	andeq	r0, r4, r0
     2d8:	9f7dc879 	svcls	0x007dc879
	...
     2e8:	00000544 	andeq	r0, r0, r4, asr #10
     2ec:	00000624 	andeq	r0, r0, r4, lsr #12
     2f0:	40590001 	subsmi	r0, r9, r1
     2f4:	18000006 	stmdane	r0, {r1, r2}
     2f8:	01000007 	tsteq	r0, r7
     2fc:	00005900 	andeq	r5, r0, r0, lsl #18
	...
     308:	04440000 	strbeq	r0, [r4], #-0
     30c:	045b0000 	ldrbeq	r0, [fp], #-0
     310:	00010000 	andeq	r0, r1, r0
     314:	00045b50 	andeq	r5, r4, r0, asr fp
     318:	0004fc00 	andeq	pc, r4, r0, lsl #24
     31c:	55000100 	strpl	r0, [r0, #-256]	; 0xffffff00
	...
     32c:	00000444 	andeq	r0, r0, r4, asr #8
     330:	0000045b 	andeq	r0, r0, fp, asr r4
     334:	5b510001 	blpl	1440340 <__bss_end__+0x1436340>
     338:	fc000004 	stc2	0, cr0, [r0], {4}
     33c:	01000004 	tsteq	r0, r4
     340:	00005700 	andeq	r5, r0, r0, lsl #14
	...
     34c:	04440000 	strbeq	r0, [r4], #-0
     350:	045b0000 	ldrbeq	r0, [fp], #-0
     354:	00010000 	andeq	r0, r1, r0
     358:	00045b52 	andeq	r5, r4, r2, asr fp
     35c:	0004fc00 	andeq	pc, r4, r0, lsl #24
     360:	56000100 	strpl	r0, [r0], -r0, lsl #2
	...
     370:	00000444 	andeq	r0, r0, r4, asr #8
     374:	0000045b 	andeq	r0, r0, fp, asr r4
     378:	5b530001 	blpl	14c0384 <__bss_end__+0x14b6384>
     37c:	fc000004 	stc2	0, cr0, [r0], {4}
     380:	01000004 	tsteq	r0, r4
     384:	00005800 	andeq	r5, r0, r0, lsl #16
	...
     394:	0000045c 	andeq	r0, r0, ip, asr r4
     398:	00000474 	andeq	r0, r0, r4, ror r4
     39c:	74500001 	ldrbvc	r0, [r0], #-1
     3a0:	c8000004 	stmdagt	r0, {r2}
     3a4:	01000004 	tsteq	r0, r4
     3a8:	04c85400 	strbeq	r5, [r8], #1024	; 0x400
     3ac:	04cb0000 	strbeq	r0, [fp], #0
     3b0:	00010000 	andeq	r0, r1, r0
     3b4:	00000050 	andeq	r0, r0, r0, asr r0
	...
     3c0:	00036c00 	andeq	r6, r3, r0, lsl #24
     3c4:	00037700 	andeq	r7, r3, r0, lsl #14
     3c8:	50000100 	andpl	r0, r0, r0, lsl #2
     3cc:	00000377 	andeq	r0, r0, r7, ror r3
     3d0:	000003d0 	ldrdeq	r0, [r0], -r0	; <UNPREDICTABLE>
     3d4:	00540001 	subseq	r0, r4, r1
	...
     3e0:	50000000 	andpl	r0, r0, r0
     3e4:	5f000001 	svcpl	0x00000001
     3e8:	01000001 	tsteq	r0, r1
     3ec:	015f5000 	cmpeq	pc, r0
     3f0:	01640000 	cmneq	r4, r0
     3f4:	00040000 	andeq	r0, r4, r0
     3f8:	9f5001f3 	svcls	0x005001f3
	...
     408:	01500000 	cmpeq	r0, r0
     40c:	015c0000 	cmpeq	ip, r0
     410:	00010000 	andeq	r0, r1, r0
     414:	00015c51 	andeq	r5, r1, r1, asr ip
     418:	00015f00 	andeq	r5, r1, r0, lsl #30
     41c:	52000100 	andpl	r0, r0, #0, 2
     420:	0000015f 	andeq	r0, r0, pc, asr r1
     424:	00000164 	andeq	r0, r0, r4, ror #2
     428:	01f30004 	mvnseq	r0, r4
     42c:	00009f51 	andeq	r9, r0, r1, asr pc
	...
     43c:	00440000 	subeq	r0, r4, r0
     440:	00700000 	rsbseq	r0, r0, r0
     444:	00010000 	andeq	r0, r1, r0
     448:	00007050 	andeq	r7, r0, r0, asr r0
     44c:	00012c00 	andeq	r2, r1, r0, lsl #24
     450:	55000100 	strpl	r0, [r0, #-256]	; 0xffffff00
     454:	0000012c 	andeq	r0, r0, ip, lsr #2
     458:	00000130 	andeq	r0, r0, r0, lsr r1
     45c:	30500001 	subscc	r0, r0, r1
     460:	50000001 	andpl	r0, r0, r1
     464:	01000001 	tsteq	r0, r1
     468:	00005500 	andeq	r5, r0, r0, lsl #10
	...
     478:	00000044 	andeq	r0, r0, r4, asr #32
     47c:	00000073 	andeq	r0, r0, r3, ror r0
     480:	73510001 	cmpvc	r1, #1
     484:	2c000000 	stccs	0, cr0, [r0], {-0}
     488:	04000001 	streq	r0, [r0], #-1
     48c:	5101f300 	mrspl	pc, SP_irq	; <UNPREDICTABLE>
     490:	00012c9f 	muleq	r1, pc, ip	; <UNPREDICTABLE>
     494:	00015000 	andeq	r5, r1, r0
     498:	51000100 	mrspl	r0, (UNDEF: 16)
	...
     4a8:	00440000 	subeq	r0, r4, r0
     4ac:	00730000 	rsbseq	r0, r3, r0
     4b0:	00010000 	andeq	r0, r1, r0
     4b4:	00007352 	andeq	r7, r0, r2, asr r3
     4b8:	00012c00 	andeq	r2, r1, r0, lsl #24
     4bc:	56000100 	strpl	r0, [r0], -r0, lsl #2
     4c0:	0000012c 	andeq	r0, r0, ip, lsr #2
     4c4:	00000150 	andeq	r0, r0, r0, asr r1
     4c8:	00520001 	subseq	r0, r2, r1
     4cc:	00000000 	andeq	r0, r0, r0
     4d0:	02000000 	andeq	r0, r0, #0
     4d4:	00000000 	andeq	r0, r0, r0
     4d8:	00005000 	andeq	r5, r0, r0
     4dc:	00005400 	andeq	r5, r0, r0, lsl #8
     4e0:	30000200 	andcc	r0, r0, r0, lsl #4
     4e4:	0000549f 	muleq	r0, pc, r4	; <UNPREDICTABLE>
     4e8:	00007c00 	andeq	r7, r0, r0, lsl #24
     4ec:	54000100 	strpl	r0, [r0], #-256	; 0xffffff00
     4f0:	0000012c 	andeq	r0, r0, ip, lsr #2
     4f4:	00000150 	andeq	r0, r0, r0, asr r1
     4f8:	00540001 	subseq	r0, r4, r1
	...
     504:	00007c00 	andeq	r7, r0, r0, lsl #24
     508:	00012c00 	andeq	r2, r1, r0, lsl #24
     50c:	54000100 	strpl	r0, [r0], #-256	; 0xffffff00
	...
     518:	00000101 	andeq	r0, r0, r1, lsl #2
     51c:	000000a0 	andeq	r0, r0, r0, lsr #1
     520:	000000e8 	andeq	r0, r0, r8, ror #1
     524:	00560001 	subseq	r0, r6, r1
     528:	2c000001 	stccs	0, cr0, [r0], {1}
     52c:	01000001 	tsteq	r0, r1
     530:	00005600 	andeq	r5, r0, r0, lsl #12
     534:	00000000 	andeq	r0, r0, r0
     538:	02020000 	andeq	r0, r2, #0
     53c:	00b40002 	adcseq	r0, r4, r2
     540:	00dc0000 	sbcseq	r0, ip, r0
     544:	00030000 	andeq	r0, r3, r0
     548:	dc9f1076 	ldcle	0, cr1, [pc], {118}	; 0x76
     54c:	2c000000 	stccs	0, cr0, [r0], {-0}
     550:	03000001 	movweq	r0, #1
     554:	9f1c7600 	svcls	0x001c7600
	...
     568:	00000270 	andeq	r0, r0, r0, ror r2
     56c:	0000029c 	muleq	r0, ip, r2
     570:	9c500001 	mrrcls	0, 0, r0, r0, cr1	; <UNPREDICTABLE>
     574:	4c000002 	stcmi	0, cr0, [r0], {2}
     578:	01000003 	tsteq	r0, r3
     57c:	034c5500 	movteq	r5, #50432	; 0xc500
     580:	03500000 	cmpeq	r0, #0
     584:	00010000 	andeq	r0, r1, r0
     588:	00035050 	andeq	r5, r3, r0, asr r0
     58c:	00036c00 	andeq	r6, r3, r0, lsl #24
     590:	55000100 	strpl	r0, [r0, #-256]	; 0xffffff00
	...
     5a0:	02700000 	rsbseq	r0, r0, #0
     5a4:	029f0000 	addseq	r0, pc, #0
     5a8:	00010000 	andeq	r0, r1, r0
     5ac:	00029f51 	andeq	r9, r2, r1, asr pc
     5b0:	00034c00 	andeq	r4, r3, r0, lsl #24
     5b4:	f3000400 	vshl.u8	d0, d0, d0
     5b8:	4c9f5101 	ldfmis	f5, [pc], {1}
     5bc:	6c000003 	stcvs	0, cr0, [r0], {3}
     5c0:	01000003 	tsteq	r0, r3
     5c4:	00005100 	andeq	r5, r0, r0, lsl #2
	...
     5d4:	00000270 	andeq	r0, r0, r0, ror r2
     5d8:	0000029f 	muleq	r0, pc, r2	; <UNPREDICTABLE>
     5dc:	9f520001 	svcls	0x00520001
     5e0:	4c000002 	stcmi	0, cr0, [r0], {2}
     5e4:	01000003 	tsteq	r0, r3
     5e8:	034c5600 	movteq	r5, #50688	; 0xc600
     5ec:	036c0000 	cmneq	ip, #0
     5f0:	00010000 	andeq	r0, r1, r0
     5f4:	00000052 	andeq	r0, r0, r2, asr r0
     5f8:	00000000 	andeq	r0, r0, r0
     5fc:	00000200 	andeq	r0, r0, r0, lsl #4
     600:	7c000000 	stcvc	0, cr0, [r0], {-0}
     604:	80000002 	andhi	r0, r0, r2
     608:	02000002 	andeq	r0, r0, #2
     60c:	809f3000 	addshi	r3, pc, r0
     610:	a8000002 	stmdage	r0, {r1}
     614:	01000002 	tsteq	r0, r2
     618:	034c5400 	movteq	r5, #50176	; 0xc400
     61c:	036c0000 	cmneq	ip, #0
     620:	00010000 	andeq	r0, r1, r0
     624:	00000054 	andeq	r0, r0, r4, asr r0
     628:	00000000 	andeq	r0, r0, r0
     62c:	a8000000 	stmdage	r0, {}	; <UNPREDICTABLE>
     630:	4c000002 	stcmi	0, cr0, [r0], {2}
     634:	01000003 	tsteq	r0, r3
     638:	00005400 	andeq	r5, r0, r0, lsl #8
     63c:	00000000 	andeq	r0, r0, r0
     640:	00010000 	andeq	r0, r1, r0
     644:	000002d0 	ldrdeq	r0, [r0], -r0	; <UNPREDICTABLE>
     648:	0000034c 	andeq	r0, r0, ip, asr #6
     64c:	00560001 	subseq	r0, r6, r1
     650:	00000000 	andeq	r0, r0, r0
     654:	02000000 	andeq	r0, r0, #0
     658:	e4000202 	str	r0, [r0], #-514	; 0xfffffdfe
     65c:	0c000002 	stceq	0, cr0, [r0], {2}
     660:	03000003 	movweq	r0, #3
     664:	9f107600 	svcls	0x00107600
     668:	0000030c 	andeq	r0, r0, ip, lsl #6
     66c:	0000034c 	andeq	r0, r0, ip, asr #6
     670:	1c760003 	ldclne	0, cr0, [r6], #-12
     674:	0000009f 	muleq	r0, pc, r0	; <UNPREDICTABLE>
	...
     680:	00018800 	andeq	r8, r1, r0, lsl #16
     684:	0001a700 	andeq	sl, r1, r0, lsl #14
     688:	50000100 	andpl	r0, r0, r0, lsl #2
     68c:	000001a7 	andeq	r0, r0, r7, lsr #3
     690:	00000270 	andeq	r0, r0, r0, ror r2
     694:	00540001 	subseq	r0, r4, r1
     698:	00000000 	andeq	r0, r0, r0
     69c:	01000000 	mrseq	r0, (UNDEF: 0)
     6a0:	0001d400 	andeq	sp, r1, r0, lsl #8
     6a4:	00025000 	andeq	r5, r2, r0
     6a8:	54000100 	strpl	r0, [r0], #-256	; 0xffffff00
	...
     6b4:	00020202 	andeq	r0, r2, r2, lsl #4
     6b8:	000001e8 	andeq	r0, r0, r8, ror #3
     6bc:	00000210 	andeq	r0, r0, r0, lsl r2
     6c0:	10740003 	rsbsne	r0, r4, r3
     6c4:	0002109f 	muleq	r2, pc, r0	; <UNPREDICTABLE>
     6c8:	00025000 	andeq	r5, r2, r0
     6cc:	74000300 	strvc	r0, [r0], #-768	; 0xfffffd00
     6d0:	00009f1c 	andeq	r9, r0, ip, lsl pc
	...
     6dc:	01640000 	cmneq	r4, r0
     6e0:	017f0000 	cmneq	pc, r0
     6e4:	00010000 	andeq	r0, r1, r0
     6e8:	00017f50 	andeq	r7, r1, r0, asr pc
     6ec:	00018800 	andeq	r8, r1, r0, lsl #16
     6f0:	54000100 	strpl	r0, [r0], #-256	; 0xffffff00
	...
     6fc:	01700000 	cmneq	r0, r0
     700:	01880000 	orreq	r0, r8, r0
     704:	00010000 	andeq	r0, r1, r0
     708:	00000055 	andeq	r0, r0, r5, asr r0
     70c:	00000000 	andeq	r0, r0, r0
     710:	80000000 	andhi	r0, r0, r0
     714:	88000001 	stmdahi	r0, {r0}
     718:	01000001 	tsteq	r0, r1
     71c:	00005000 	andeq	r5, r0, r0
	...
     728:	003c0000 	eorseq	r0, ip, r0
     72c:	00400000 	subeq	r0, r0, r0
     730:	00010000 	andeq	r0, r1, r0
     734:	00004050 	andeq	r4, r0, r0, asr r0
     738:	00004400 	andeq	r4, r0, r0, lsl #8
     73c:	70000400 	andvc	r0, r0, r0, lsl #8
     740:	009f01b8 			; <UNDEFINED> instruction: 0x009f01b8
	...
     74c:	30000000 	andcc	r0, r0, r0
     750:	34000000 	strcc	r0, [r0], #-0
     754:	01000000 	mrseq	r0, (UNDEF: 0)
     758:	00345000 	eorseq	r5, r4, r0
     75c:	003c0000 	eorseq	r0, ip, r0
     760:	00040000 	andeq	r0, r4, r0
     764:	9f5001f3 	svcls	0x005001f3
	...
     774:	00000018 	andeq	r0, r0, r8, lsl r0
     778:	00000023 	andeq	r0, r0, r3, lsr #32
     77c:	23500001 	cmpcs	r0, #1
     780:	30000000 	andcc	r0, r0, r0
     784:	01000000 	mrseq	r0, (UNDEF: 0)
     788:	00005400 	andeq	r5, r0, r0, lsl #8
	...
     794:	00080000 	andeq	r0, r8, r0
     798:	000f0000 	andeq	r0, pc, r0
     79c:	00010000 	andeq	r0, r1, r0
     7a0:	00000f50 	andeq	r0, r0, r0, asr pc
     7a4:	00001800 	andeq	r1, r0, r0, lsl #16
     7a8:	f3000400 	vshl.u8	d0, d0, d0
     7ac:	009f5001 	addseq	r5, pc, r1
	...
     7bc:	04000000 	streq	r0, [r0], #-0
     7c0:	01000000 	mrseq	r0, (UNDEF: 0)
     7c4:	00045000 	andeq	r5, r4, r0
     7c8:	00080000 	andeq	r0, r8, r0
     7cc:	00030000 	andeq	r0, r3, r0
     7d0:	009f4870 	addseq	r4, pc, r0, ror r8	; <UNPREDICTABLE>
	...
     7e4:	0003d000 	andeq	sp, r3, r0
     7e8:	0003f800 	andeq	pc, r3, r0, lsl #16
     7ec:	50000100 	andpl	r0, r0, r0, lsl #2
     7f0:	000003f8 	strdeq	r0, [r0], -r8
     7f4:	0000040c 	andeq	r0, r0, ip, lsl #8
     7f8:	0c540001 	mrrceq	0, 0, r0, r4, cr1
     7fc:	14000004 	strne	r0, [r0], #-4
     800:	05000004 	streq	r0, [r0, #-4]
     804:	9bf40300 	blls	ffd0140c <__bss_end__+0xffcf740c>
     808:	04140000 	ldreq	r0, [r4], #-0
     80c:	04170000 	ldreq	r0, [r7], #-0
     810:	00010000 	andeq	r0, r1, r0
     814:	00041750 	andeq	r1, r4, r0, asr r7
     818:	00044400 	andeq	r4, r4, r0, lsl #8
     81c:	f3000400 	vshl.u8	d0, d0, d0
     820:	009f5001 	addseq	r5, pc, r1
	...
     830:	d0000000 	andle	r0, r0, r0
     834:	f4000003 	vst4.8	{d0-d3}, [r0], r3
     838:	01000003 	tsteq	r0, r3
     83c:	03f45100 	mvnseq	r5, #0, 2
     840:	04140000 	ldreq	r0, [r4], #-0
     844:	00010000 	andeq	r0, r1, r0
     848:	00041455 	andeq	r1, r4, r5, asr r4
     84c:	00041700 	andeq	r1, r4, r0, lsl #14
     850:	51000100 	mrspl	r0, (UNDEF: 16)
     854:	00000417 	andeq	r0, r0, r7, lsl r4
     858:	00000444 	andeq	r0, r0, r4, asr #8
     85c:	01f30004 	mvnseq	r0, r4
     860:	00009f51 	andeq	r9, r0, r1, asr pc
     864:	00000000 	andeq	r0, r0, r0
     868:	01000000 	mrseq	r0, (UNDEF: 0)
     86c:	00000001 	andeq	r0, r0, r1
     870:	00000000 	andeq	r0, r0, r0
     874:	00200000 	eoreq	r0, r0, r0
     878:	00010000 	andeq	r0, r1, r0
     87c:	00002050 	andeq	r2, r0, r0, asr r0
     880:	0000e400 	andeq	lr, r0, r0, lsl #8
     884:	f3000400 	vshl.u8	d0, d0, d0
     888:	e49f5001 	ldr	r5, [pc], #1	; 890 <_start-0x7770>
     88c:	e8000000 	stmda	r0, {}	; <UNPREDICTABLE>
     890:	01000000 	mrseq	r0, (UNDEF: 0)
     894:	00e85000 	rsceq	r5, r8, r0
     898:	00ec0000 	rsceq	r0, ip, r0
     89c:	00040000 	andeq	r0, r4, r0
     8a0:	9f5001f3 	svcls	0x005001f3
	...
     8b8:	00200000 	eoreq	r0, r0, r0
     8bc:	00010000 	andeq	r0, r1, r0
     8c0:	00002051 	andeq	r2, r0, r1, asr r0
     8c4:	00007400 	andeq	r7, r0, r0, lsl #8
     8c8:	51000100 	mrspl	r0, (UNDEF: 16)
     8cc:	00000090 	muleq	r0, r0, r0
     8d0:	00000094 	muleq	r0, r4, r0
     8d4:	b4510001 	ldrblt	r0, [r1], #-1
     8d8:	b8000000 	stmdalt	r0, {}	; <UNPREDICTABLE>
     8dc:	01000000 	mrseq	r0, (UNDEF: 0)
     8e0:	00d05100 	sbcseq	r5, r0, r0, lsl #2
     8e4:	00ec0000 	rsceq	r0, ip, r0
     8e8:	00010000 	andeq	r0, r1, r0
     8ec:	00000051 	andeq	r0, r0, r1, asr r0
     8f0:	00000000 	andeq	r0, r0, r0
     8f4:	01010200 	mrseq	r0, R9_usr
	...
     900:	00002000 	andeq	r2, r0, r0
     904:	50000100 	andpl	r0, r0, r0, lsl #2
     908:	00000020 	andeq	r0, r0, r0, lsr #32
     90c:	000000e4 	andeq	r0, r0, r4, ror #1
     910:	e45c0001 	ldrb	r0, [ip], #-1
     914:	e8000000 	stmda	r0, {}	; <UNPREDICTABLE>
     918:	01000000 	mrseq	r0, (UNDEF: 0)
     91c:	00e85000 	rsceq	r5, r8, r0
     920:	00ec0000 	rsceq	r0, ip, r0
     924:	00040000 	andeq	r0, r4, r0
     928:	9f5001f3 	svcls	0x005001f3
	...
     934:	00000003 	andeq	r0, r0, r3
	...
     944:	00200000 	eoreq	r0, r0, r0
     948:	00010000 	andeq	r0, r1, r0
     94c:	00002051 	andeq	r2, r0, r1, asr r0
     950:	00003800 	andeq	r3, r0, r0, lsl #16
     954:	53000100 	movwpl	r0, #256	; 0x100
     958:	00000038 	andeq	r0, r0, r8, lsr r0
     95c:	0000004c 	andeq	r0, r0, ip, asr #32
     960:	4c520001 	mrrcmi	0, 0, r0, r2, cr1
     964:	78000000 	stmdavc	r0, {}	; <UNPREDICTABLE>
     968:	01000000 	mrseq	r0, (UNDEF: 0)
     96c:	00785300 	rsbseq	r5, r8, r0, lsl #6
     970:	00900000 	addseq	r0, r0, r0
     974:	00010000 	andeq	r0, r1, r0
     978:	00009050 	andeq	r9, r0, r0, asr r0
     97c:	0000e400 	andeq	lr, r0, r0, lsl #8
     980:	53000100 	movwpl	r0, #256	; 0x100
     984:	000000e4 	andeq	r0, r0, r4, ror #1
     988:	000000ec 	andeq	r0, r0, ip, ror #1
     98c:	00510001 	subseq	r0, r1, r1
	...
     99c:	00004800 	andeq	r4, r0, r0, lsl #16
     9a0:	00004c00 	andeq	r4, r0, r0, lsl #24
     9a4:	53000100 	movwpl	r0, #256	; 0x100
     9a8:	0000004c 	andeq	r0, r0, ip, asr #32
     9ac:	00000050 	andeq	r0, r0, r0, asr r0
     9b0:	00700012 	rsbseq	r0, r0, r2, lsl r0
     9b4:	027c2438 	rsbseq	r2, ip, #56, 8	; 0x38000000
     9b8:	ff080194 			; <UNDEFINED> instruction: 0xff080194
     9bc:	243b221a 	ldrtcs	r2, [fp], #-538	; 0xfffffde6
     9c0:	9f270072 	svcls	0x00270072
     9c4:	00000050 	andeq	r0, r0, r0, asr r0
     9c8:	0000005c 	andeq	r0, r0, ip, asr r0
     9cc:	00700012 	rsbseq	r0, r0, r2, lsl r0
     9d0:	7e7c2438 	mrcvc	4, 3, r2, cr12, cr8, {1}
     9d4:	ff080194 			; <UNDEFINED> instruction: 0xff080194
     9d8:	243b221a 	ldrtcs	r2, [fp], #-538	; 0xfffffde6
     9dc:	9f270072 	svcls	0x00270072
	...
     9e8:	001c0000 	andseq	r0, ip, r0
     9ec:	00e40000 	rsceq	r0, r4, r0
     9f0:	00010000 	andeq	r0, r1, r0
     9f4:	0000005e 	andeq	r0, r0, lr, asr r0
	...
     a04:	00000400 	andeq	r0, r0, r0, lsl #8
     a08:	52000100 	andpl	r0, r0, #0, 2
     a0c:	00000004 	andeq	r0, r0, r4
     a10:	00000018 	andeq	r0, r0, r8, lsl r0
     a14:	01f30004 	mvnseq	r0, r4
     a18:	00009f52 	andeq	r9, r0, r2, asr pc
     a1c:	00000000 	andeq	r0, r0, r0
     a20:	00020000 	andeq	r0, r2, r0
     a24:	00010100 	andeq	r0, r1, r0, lsl #2
     a28:	00000000 	andeq	r0, r0, r0
     a2c:	00080000 	andeq	r0, r8, r0
     a30:	00010000 	andeq	r0, r1, r0
     a34:	00000850 	andeq	r0, r0, r0, asr r8
     a38:	00001000 	andeq	r1, r0, r0
     a3c:	53000100 	movwpl	r0, #256	; 0x100
     a40:	00000010 	andeq	r0, r0, r0, lsl r0
     a44:	00000014 	andeq	r0, r0, r4, lsl r0
     a48:	01730003 	cmneq	r3, r3
     a4c:	0000149f 	muleq	r0, pc, r4	; <UNPREDICTABLE>
     a50:	00001800 	andeq	r1, r0, r0, lsl #16
     a54:	53000100 	movwpl	r0, #256	; 0x100
	...
     a60:	00040000 	andeq	r0, r4, r0
     a64:	00180000 	andseq	r0, r8, r0
     a68:	00010000 	andeq	r0, r1, r0
     a6c:	00000052 	andeq	r0, r0, r2, asr r0
	...
     a78:	2c000000 	stccs	0, cr0, [r0], {-0}
     a7c:	38000000 	stmdacc	r0, {}	; <UNPREDICTABLE>
     a80:	01000000 	mrseq	r0, (UNDEF: 0)
     a84:	00385000 	eorseq	r5, r8, r0
     a88:	00480000 	subeq	r0, r8, r0
     a8c:	00010000 	andeq	r0, r1, r0
     a90:	00004854 	andeq	r4, r0, r4, asr r8
     a94:	00005800 	andeq	r5, r0, r0, lsl #16
     a98:	50000100 	andpl	r0, r0, r0, lsl #2
	...
     aac:	0000000b 	andeq	r0, r0, fp
     ab0:	0b500001 	bleq	1400abc <__bss_end__+0x13f6abc>
     ab4:	14000000 	strne	r0, [r0], #-0
     ab8:	01000000 	mrseq	r0, (UNDEF: 0)
     abc:	00005400 	andeq	r5, r0, r0, lsl #8
     ac0:	00000000 	andeq	r0, r0, r0
     ac4:	01000000 	mrseq	r0, (UNDEF: 0)
     ac8:	00000001 	andeq	r0, r0, r1
     acc:	00080000 	andeq	r0, r8, r0
     ad0:	00010000 	andeq	r0, r1, r0
     ad4:	00000850 	andeq	r0, r0, r0, asr r8
     ad8:	00003400 	andeq	r3, r0, r0, lsl #8
     adc:	54000100 	strpl	r0, [r0], #-256	; 0xffffff00
	...
     aec:	02700000 	rsbseq	r0, r0, #0
     af0:	029c0000 	addseq	r0, ip, #0
     af4:	00010000 	andeq	r0, r1, r0
     af8:	00029c50 	andeq	r9, r2, r0, asr ip
     afc:	00050c00 	andeq	r0, r5, r0, lsl #24
     b00:	57000100 	strpl	r0, [r0, -r0, lsl #2]
     b04:	0000050c 	andeq	r0, r0, ip, lsl #10
     b08:	00000520 	andeq	r0, r0, r0, lsr #10
     b0c:	01f30004 	mvnseq	r0, r4
     b10:	00009f50 	andeq	r9, r0, r0, asr pc
	...
     b20:	00000270 	andeq	r0, r0, r0, ror r2
     b24:	00000288 	andeq	r0, r0, r8, lsl #5
     b28:	88510001 	ldmdahi	r1, {r0}^
     b2c:	9c000002 	stcls	0, cr0, [r0], {2}
     b30:	03000002 	movweq	r0, #2
     b34:	9f017100 	svcls	0x00017100
     b38:	0000029c 	muleq	r0, ip, r2
     b3c:	00000520 	andeq	r0, r0, r0, lsr #10
     b40:	01f30004 	mvnseq	r0, r4
     b44:	00009f51 	andeq	r9, r0, r1, asr pc
	...
     b50:	02700000 	rsbseq	r0, r0, #0
     b54:	029c0000 	addseq	r0, ip, #0
     b58:	00010000 	andeq	r0, r1, r0
     b5c:	00029c52 	andeq	r9, r2, r2, asr ip
     b60:	00050c00 	andeq	r0, r5, r0, lsl #24
     b64:	59000100 	stmdbpl	r0, {r8}
	...
     b70:	00000001 	andeq	r0, r0, r1
     b74:	01000000 	mrseq	r0, (UNDEF: 0)
     b78:	00000001 	andeq	r0, r0, r1
     b7c:	02000000 	andeq	r0, r0, #0
     b80:	00000002 	andeq	r0, r0, r2
     b84:	00000284 	andeq	r0, r0, r4, lsl #5
     b88:	0000029c 	muleq	r0, ip, r2
     b8c:	9c500001 	mrrcls	0, 0, r0, r0, cr1	; <UNPREDICTABLE>
     b90:	a0000002 	andge	r0, r0, r2
     b94:	01000002 	tsteq	r0, r2
     b98:	02a05400 	adceq	r5, r0, #0, 8
     b9c:	02a40000 	adceq	r0, r4, #0
     ba0:	00030000 	andeq	r0, r3, r0
     ba4:	a49f0174 	ldrge	r0, [pc], #372	; bac <_start-0x7454>
     ba8:	c8000002 	stmdagt	r0, {r1}
     bac:	01000002 	tsteq	r0, r2
     bb0:	02c85400 	sbceq	r5, r8, #0, 8
     bb4:	02cc0000 	sbceq	r0, ip, #0
     bb8:	00030000 	andeq	r0, r3, r0
     bbc:	cc9f0174 	ldfgts	f0, [pc], {116}	; 0x74
     bc0:	f8000002 			; <UNDEFINED> instruction: 0xf8000002
     bc4:	01000003 	tsteq	r0, r3
     bc8:	03f85400 	mvnseq	r5, #0, 8
     bcc:	03fc0000 	mvnseq	r0, #0
     bd0:	00030000 	andeq	r0, r3, r0
     bd4:	fc9f0174 	ldc2	1, cr0, [pc], {116}	; 0x74
     bd8:	f8000003 			; <UNDEFINED> instruction: 0xf8000003
     bdc:	01000004 	tsteq	r0, r4
     be0:	04f85400 	ldrbteq	r5, [r8], #1024	; 0x400
     be4:	05000000 	streq	r0, [r0, #-0]
     be8:	00030000 	andeq	r0, r3, r0
     bec:	009f0174 	addseq	r0, pc, r4, ror r1	; <UNPREDICTABLE>
     bf0:	0c000005 	stceq	0, cr0, [r0], {5}
     bf4:	01000005 	tsteq	r0, r5
     bf8:	00005400 	andeq	r5, r0, r0, lsl #8
	...
     c04:	028c0000 	addeq	r0, ip, #0
     c08:	050c0000 	streq	r0, [ip, #-0]
     c0c:	00010000 	andeq	r0, r1, r0
     c10:	00050c58 	andeq	r0, r5, r8, asr ip
     c14:	00052000 	andeq	r2, r5, r0
     c18:	f3000a00 	vpmax.u8	d0, d0, d0
     c1c:	01f35101 	mvnseq	r5, r1, lsl #2
     c20:	1c312250 	lfmne	f2, 4, [r1], #-320	; 0xfffffec0
     c24:	0000009f 	muleq	r0, pc, r0	; <UNPREDICTABLE>
	...
     c34:	dc000000 	stcle	0, cr0, [r0], {-0}
     c38:	00000003 	andeq	r0, r0, r3
     c3c:	01000004 	tsteq	r0, r4
     c40:	042c5000 	strteq	r5, [ip], #-0
     c44:	04300000 	ldrteq	r0, [r0], #-0
     c48:	00010000 	andeq	r0, r1, r0
     c4c:	00045c50 	andeq	r5, r4, r0, asr ip
     c50:	00046000 	andeq	r6, r4, r0
     c54:	50000100 	andpl	r0, r0, r0, lsl #2
     c58:	0000048c 	andeq	r0, r0, ip, lsl #9
     c5c:	00000490 	muleq	r0, r0, r4
     c60:	d0500001 	subsle	r0, r0, r1
     c64:	d4000004 	strle	r0, [r0], #-4
     c68:	01000004 	tsteq	r0, r4
     c6c:	00005000 	andeq	r5, r0, r0
     c70:	00000000 	andeq	r0, r0, r0
     c74:	00020000 	andeq	r0, r2, r0
     c78:	00000000 	andeq	r0, r0, r0
     c7c:	000002d8 	ldrdeq	r0, [r0], -r8
     c80:	000002e0 	andeq	r0, r0, r0, ror #5
     c84:	9f300002 	svcls	0x00300002
     c88:	000002e0 	andeq	r0, r0, r0, ror #5
     c8c:	000002e4 	andeq	r0, r0, r4, ror #5
     c90:	ec560001 	mrrc	0, 0, r0, r6, cr1
     c94:	f8000002 			; <UNDEFINED> instruction: 0xf8000002
     c98:	01000004 	tsteq	r0, r4
     c9c:	00005600 	andeq	r5, r0, r0, lsl #12
	...
     cac:	00000070 	andeq	r0, r0, r0, ror r0
     cb0:	00000094 	muleq	r0, r4, r0
     cb4:	94500001 	ldrbls	r0, [r0], #-1
     cb8:	fc000000 	stc2	0, cr0, [r0], {-0}
     cbc:	03000000 	movweq	r0, #0
     cc0:	9f027000 	svcls	0x00027000
     cc4:	000000fc 	strdeq	r0, [r0], -ip
     cc8:	0000021c 	andeq	r0, r0, ip, lsl r2
     ccc:	01f30004 	mvnseq	r0, r4
     cd0:	00009f50 	andeq	r9, r0, r0, asr pc
	...
     ce8:	00700000 	rsbseq	r0, r0, r0
     cec:	00e00000 	rsceq	r0, r0, r0
     cf0:	00010000 	andeq	r0, r1, r0
     cf4:	0000e051 	andeq	lr, r0, r1, asr r0
     cf8:	00015400 	andeq	r5, r1, r0, lsl #8
     cfc:	55000100 	strpl	r0, [r0, #-256]	; 0xffffff00
     d00:	00000154 	andeq	r0, r0, r4, asr r1
     d04:	00000158 	andeq	r0, r0, r8, asr r1
     d08:	58510001 	ldmdapl	r1, {r0}^
     d0c:	b0000001 	andlt	r0, r0, r1
     d10:	01000001 	tsteq	r0, r1
     d14:	01b05500 	lslseq	r5, r0, #10
     d18:	01c00000 	biceq	r0, r0, r0
     d1c:	00010000 	andeq	r0, r1, r0
     d20:	0001c051 	andeq	ip, r1, r1, asr r0
     d24:	0001e400 	andeq	lr, r1, r0, lsl #8
     d28:	55000100 	strpl	r0, [r0, #-256]	; 0xffffff00
     d2c:	000001e4 	andeq	r0, r0, r4, ror #3
     d30:	000001e7 	andeq	r0, r0, r7, ror #3
     d34:	e7510001 	ldrb	r0, [r1, -r1]
     d38:	1c000001 	stcne	0, cr0, [r0], {1}
     d3c:	01000002 	tsteq	r0, r2
     d40:	00005500 	andeq	r5, r0, r0, lsl #10
	...
     d4c:	00700000 	rsbseq	r0, r0, r0
     d50:	00840000 	addeq	r0, r4, r0
     d54:	00010000 	andeq	r0, r1, r0
     d58:	00008452 	andeq	r8, r0, r2, asr r4
     d5c:	00021c00 	andeq	r1, r2, r0, lsl #24
     d60:	54000100 	strpl	r0, [r0], #-256	; 0xffffff00
	...
     d70:	00000100 	andeq	r0, r0, r0, lsl #2
     d74:	00700000 	rsbseq	r0, r0, r0
     d78:	00f40000 	rscseq	r0, r4, r0
     d7c:	00010000 	andeq	r0, r1, r0
     d80:	00014c53 	andeq	r4, r1, r3, asr ip
     d84:	00018000 	andeq	r8, r1, r0
     d88:	53000100 	movwpl	r0, #256	; 0x100
     d8c:	00000180 	andeq	r0, r0, r0, lsl #3
     d90:	0000018c 	andeq	r0, r0, ip, lsl #3
     d94:	01f30004 	mvnseq	r0, r4
     d98:	01b09f53 	asrseq	r9, r3, pc
     d9c:	01e70000 	mvneq	r0, r0
     da0:	00010000 	andeq	r0, r1, r0
     da4:	0001e753 	andeq	lr, r1, r3, asr r7
     da8:	00021c00 	andeq	r1, r2, r0, lsl #24
     dac:	f3000400 	vshl.u8	d0, d0, d0
     db0:	009f5301 	addseq	r5, pc, r1, lsl #6
	...
     dc0:	00007000 	andeq	r7, r0, r0
     dc4:	00008c00 	andeq	r8, r0, r0, lsl #24
     dc8:	91000200 	mrsls	r0, R8_usr
     dcc:	00008c00 	andeq	r8, r0, r0, lsl #24
     dd0:	00019300 	andeq	r9, r1, r0, lsl #6
     dd4:	52000100 	andpl	r0, r0, #0, 2
     dd8:	000001b0 			; <UNDEFINED> instruction: 0x000001b0
     ddc:	000001e7 	andeq	r0, r0, r7, ror #3
     de0:	00520001 	subseq	r0, r2, r1
     de4:	00000000 	andeq	r0, r0, r0
     de8:	01000000 	mrseq	r0, (UNDEF: 0)
     dec:	01010000 	mrseq	r0, (UNDEF: 1)
	...
     df8:	01010101 	tsteq	r1, r1, lsl #2
     dfc:	01010000 	mrseq	r0, (UNDEF: 1)
	...
     e08:	8c000000 	stchi	0, cr0, [r0], {-0}
     e0c:	fc000000 	stc2	0, cr0, [r0], {-0}
     e10:	01000000 	mrseq	r0, (UNDEF: 0)
     e14:	00fc5d00 	rscseq	r5, ip, r0, lsl #26
     e18:	013c0000 	teqeq	ip, r0
     e1c:	00010000 	andeq	r0, r1, r0
     e20:	00013c50 	andeq	r3, r1, r0, asr ip
     e24:	00014800 	andeq	r4, r1, r0, lsl #16
     e28:	71000300 	mrsvc	r0, LR_irq
     e2c:	01489f02 	cmpeq	r8, r2, lsl #30
     e30:	014c0000 	mrseq	r0, (UNDEF: 76)
     e34:	00010000 	andeq	r0, r1, r0
     e38:	00014c50 	andeq	r4, r1, r0, asr ip
     e3c:	00015800 	andeq	r5, r1, r0, lsl #16
     e40:	5d000100 	stfpls	f0, [r0, #-0]
     e44:	00000158 	andeq	r0, r0, r8, asr r1
     e48:	0000016c 	andeq	r0, r0, ip, ror #2
     e4c:	6c510001 	mrrcvs	0, 0, r0, r1, cr1
     e50:	78000001 	stmdavc	r0, {r0}
     e54:	03000001 	movweq	r0, #1
     e58:	9f7f7100 	svcls	0x007f7100
     e5c:	00000178 	andeq	r0, r0, r8, ror r1
     e60:	00000184 	andeq	r0, r0, r4, lsl #3
     e64:	01710003 	cmneq	r1, r3
     e68:	0001849f 	muleq	r1, pc, r4	; <UNPREDICTABLE>
     e6c:	00019300 	andeq	r9, r1, r0, lsl #6
     e70:	50000100 	andpl	r0, r0, r0, lsl #2
     e74:	000001b0 			; <UNDEFINED> instruction: 0x000001b0
     e78:	000001b0 			; <UNDEFINED> instruction: 0x000001b0
     e7c:	b05d0001 	subslt	r0, sp, r1
     e80:	b8000001 	stmdalt	r0, {r0}
     e84:	04000001 	streq	r0, [r0], #-1
     e88:	7fa19100 	svcvc	0x00a19100
     e8c:	0001b89f 	muleq	r1, pc, r8	; <UNPREDICTABLE>
     e90:	0001bc00 	andeq	fp, r1, r0, lsl #24
     e94:	50000100 	andpl	r0, r0, r0, lsl #2
     e98:	000001bc 			; <UNDEFINED> instruction: 0x000001bc
     e9c:	000001c0 	andeq	r0, r0, r0, asr #3
     ea0:	c05d0001 	subsgt	r0, sp, r1
     ea4:	d4000001 	strle	r0, [r0], #-1
     ea8:	01000001 	tsteq	r0, r1
     eac:	01d45000 	bicseq	r5, r4, r0
     eb0:	01e40000 	mvneq	r0, r0
     eb4:	00030000 	andeq	r0, r3, r0
     eb8:	e49f7f70 	ldr	r7, [pc], #3952	; ec0 <_start-0x7140>
     ebc:	1c000001 	stcne	0, cr0, [r0], {1}
     ec0:	01000002 	tsteq	r0, r2
     ec4:	00005d00 	andeq	r5, r0, r0, lsl #26
	...
     ed0:	00010100 	andeq	r0, r1, r0, lsl #2
	...
     ee0:	00000090 	muleq	r0, r0, r0
     ee4:	000000dc 	ldrdeq	r0, [r0], -ip
     ee8:	dc5c0001 	mrrcle	0, 0, r0, ip, cr1
     eec:	f4000000 	vst4.8	{d0-d3}, [r0], r0
     ef0:	01000000 	mrseq	r0, (UNDEF: 0)
     ef4:	00f45300 	rscseq	r5, r4, r0, lsl #6
     ef8:	014c0000 	mrseq	r0, (UNDEF: 76)
     efc:	00010000 	andeq	r0, r1, r0
     f00:	00014c5c 	andeq	r4, r1, ip, asr ip
     f04:	00015800 	andeq	r5, r1, r0, lsl #16
     f08:	53000100 	movwpl	r0, #256	; 0x100
     f0c:	00000158 	andeq	r0, r0, r8, asr r1
     f10:	00000174 	andeq	r0, r0, r4, ror r1
     f14:	b05c0001 	subslt	r0, ip, r1
     f18:	c0000001 	andgt	r0, r0, r1
     f1c:	01000001 	tsteq	r0, r1
     f20:	01c05300 	biceq	r5, r0, r0, lsl #6
     f24:	01dc0000 	bicseq	r0, ip, r0
     f28:	00010000 	andeq	r0, r1, r0
     f2c:	0001e45c 	andeq	lr, r1, ip, asr r4
     f30:	0001e700 	andeq	lr, r1, r0, lsl #14
     f34:	53000100 	movwpl	r0, #256	; 0x100
     f38:	000001e7 	andeq	r0, r0, r7, ror #3
     f3c:	0000021c 	andeq	r0, r0, ip, lsl r2
     f40:	01f30004 	mvnseq	r0, r4
     f44:	00009f53 	andeq	r9, r0, r3, asr pc
     f48:	00000000 	andeq	r0, r0, r0
     f4c:	01010000 	mrseq	r0, (UNDEF: 1)
     f50:	00000001 	andeq	r0, r0, r1
     f54:	00dc0000 	sbcseq	r0, ip, r0
     f58:	00f00000 	rscseq	r0, r0, r0
     f5c:	00020000 	andeq	r0, r2, r0
     f60:	00f09f30 	rscseq	r9, r0, r0, lsr pc
     f64:	00f80000 	rscseq	r0, r8, r0
     f68:	00020000 	andeq	r0, r2, r0
     f6c:	00fc9f31 	rscseq	r9, ip, r1, lsr pc
     f70:	014c0000 	mrseq	r0, (UNDEF: 76)
     f74:	00010000 	andeq	r0, r1, r0
     f78:	00014c56 	andeq	r4, r1, r6, asr ip
     f7c:	00015400 	andeq	r5, r1, r0, lsl #8
     f80:	30000200 	andcc	r0, r0, r0, lsl #4
     f84:	0000009f 	muleq	r0, pc, r0	; <UNPREDICTABLE>
	...
     f90:	00000101 	andeq	r0, r0, r1, lsl #2
     f94:	38000101 	stmdacc	r0, {r0, r8}
     f98:	54000000 	strpl	r0, [r0], #-0
     f9c:	01000000 	mrseq	r0, (UNDEF: 0)
     fa0:	00545000 	subseq	r5, r4, r0
     fa4:	00580000 	subseq	r0, r8, r0
     fa8:	00010000 	andeq	r0, r1, r0
     fac:	00005852 	andeq	r5, r0, r2, asr r8
     fb0:	00006000 	andeq	r6, r0, r0
     fb4:	72000300 	andvc	r0, r0, #0, 6
     fb8:	00609f01 	rsbeq	r9, r0, r1, lsl #30
     fbc:	00640000 	rsbeq	r0, r4, r0
     fc0:	00010000 	andeq	r0, r1, r0
     fc4:	00006452 	andeq	r6, r0, r2, asr r4
     fc8:	00007000 	andeq	r7, r0, r0
     fcc:	72000300 	andvc	r0, r0, #0, 6
     fd0:	00009f01 	andeq	r9, r0, r1, lsl #30
	...
     fdc:	00380000 	eorseq	r0, r8, r0
     fe0:	00500000 	subseq	r0, r0, r0
     fe4:	00010000 	andeq	r0, r1, r0
     fe8:	00005051 	andeq	r5, r0, r1, asr r0
     fec:	00007000 	andeq	r7, r0, r0
     ff0:	f3000400 	vshl.u8	d0, d0, d0
     ff4:	009f5101 	addseq	r5, pc, r1, lsl #2
	...
    1004:	38000101 	stmdacc	r0, {r0, r8}
    1008:	50000000 	andpl	r0, r0, r0
    100c:	01000000 	mrseq	r0, (UNDEF: 0)
    1010:	00505200 	subseq	r5, r0, r0, lsl #4
    1014:	005c0000 	subseq	r0, ip, r0
    1018:	00010000 	andeq	r0, r1, r0
    101c:	00005c51 	andeq	r5, r0, r1, asr ip
    1020:	00006000 	andeq	r6, r0, r0
    1024:	71000300 	mrsvc	r0, LR_irq
    1028:	00609f01 	rsbeq	r9, r0, r1, lsl #30
    102c:	00700000 	rsbseq	r0, r0, r0
    1030:	00010000 	andeq	r0, r1, r0
    1034:	00000051 	andeq	r0, r0, r1, asr r0
	...
    1040:	00003800 	andeq	r3, r0, r0, lsl #16
    1044:	00004c00 	andeq	r4, r0, r0, lsl #24
    1048:	53000100 	movwpl	r0, #256	; 0x100
    104c:	0000004c 	andeq	r0, r0, ip, asr #32
    1050:	00000068 	andeq	r0, r0, r8, rrx
    1054:	00530001 	subseq	r0, r3, r1
	...
    1064:	40000000 	andmi	r0, r0, r0
    1068:	48000000 	stmdami	r0, {}	; <UNPREDICTABLE>
    106c:	01000000 	mrseq	r0, (UNDEF: 0)
    1070:	00485c00 	subeq	r5, r8, r0, lsl #24
    1074:	004c0000 	subeq	r0, ip, r0
    1078:	00080000 	andeq	r0, r8, r0
    107c:	00730072 	rsbseq	r0, r3, r2, ror r0
    1080:	9f01231c 	svcls	0x0001231c
    1084:	0000004c 	andeq	r0, r0, ip, asr #32
    1088:	00000054 	andeq	r0, r0, r4, asr r0
    108c:	00720009 	rsbseq	r0, r2, r9
    1090:	1c5301f3 	ldfnee	f0, [r3], {243}	; 0xf3
    1094:	549f0123 	ldrpl	r0, [pc], #291	; 109c <_start-0x6f64>
    1098:	70000000 	andvc	r0, r0, r0
    109c:	0a000000 	beq	10a4 <_start-0x6f5c>
    10a0:	5201f300 	andpl	pc, r1, #0, 6
    10a4:	1c5301f3 	ldfnee	f0, [r3], {243}	; 0xf3
    10a8:	009f0123 	addseq	r0, pc, r3, lsr #2
    10ac:	00000000 	andeq	r0, r0, r0
    10b0:	01000000 	mrseq	r0, (UNDEF: 0)
    10b4:	00004c00 	andeq	r4, r0, r0, lsl #24
    10b8:	00007000 	andeq	r7, r0, r0
    10bc:	50000100 	andpl	r0, r0, r0, lsl #2
	...
    10c8:	00010100 	andeq	r0, r1, r0, lsl #2
    10cc:	00140000 	andseq	r0, r4, r0
    10d0:	001c0000 	andseq	r0, ip, r0
    10d4:	00010000 	andeq	r0, r1, r0
    10d8:	00001c50 	andeq	r1, r0, r0, asr ip
    10dc:	00002400 	andeq	r2, r0, r0, lsl #8
    10e0:	70000300 	andvc	r0, r0, r0, lsl #6
    10e4:	00249f01 	eoreq	r9, r4, r1, lsl #30
    10e8:	00380000 	eorseq	r0, r8, r0
    10ec:	00010000 	andeq	r0, r1, r0
    10f0:	00000050 	andeq	r0, r0, r0, asr r0
	...
    10fc:	00001400 	andeq	r1, r0, r0, lsl #8
    1100:	00001800 	andeq	r1, r0, r0, lsl #16
    1104:	51000100 	mrspl	r0, (UNDEF: 16)
    1108:	00000018 	andeq	r0, r0, r8, lsl r0
    110c:	00000038 	andeq	r0, r0, r8, lsr r0
    1110:	01f30004 	mvnseq	r0, r4
    1114:	00009f51 	andeq	r9, r0, r1, asr pc
	...
    1120:	00000018 	andeq	r0, r0, r8, lsl r0
    1124:	00000038 	andeq	r0, r0, r8, lsr r0
    1128:	00510001 	subseq	r0, r1, r1
	...
    113c:	00000400 	andeq	r0, r0, r0, lsl #8
    1140:	50000100 	andpl	r0, r0, r0, lsl #2
    1144:	00000004 	andeq	r0, r0, r4
    1148:	0000000c 	andeq	r0, r0, ip
    114c:	30700003 	rsbscc	r0, r0, r3
    1150:	00000c9f 	muleq	r0, pc, ip	; <UNPREDICTABLE>
    1154:	00001400 	andeq	r1, r0, r0, lsl #8
    1158:	f3000400 	vshl.u8	d0, d0, d0
    115c:	009f5001 	addseq	r5, pc, r1
	...
    1168:	1c000000 	stcne	0, cr0, [r0], {-0}
    116c:	43000002 	movwmi	r0, #2
    1170:	01000002 	tsteq	r0, r2
    1174:	02435000 	subeq	r5, r3, #0
    1178:	02700000 	rsbseq	r0, r0, #0
    117c:	00040000 	andeq	r0, r4, r0
    1180:	9f5001f3 	svcls	0x005001f3
	...
    1190:	0000021c 	andeq	r0, r0, ip, lsl r2
    1194:	00000243 	andeq	r0, r0, r3, asr #4
    1198:	43510001 	cmpmi	r1, #1
    119c:	70000002 	andvc	r0, r0, r2
    11a0:	04000002 	streq	r0, [r0], #-2
    11a4:	5101f300 	mrspl	pc, SP_irq	; <UNPREDICTABLE>
    11a8:	0000009f 	muleq	r0, pc, r0	; <UNPREDICTABLE>
    11ac:	00000000 	andeq	r0, r0, r0
    11b0:	01010000 	mrseq	r0, (UNDEF: 1)
    11b4:	08000000 	stmdaeq	r0, {}	; <UNPREDICTABLE>
    11b8:	10000000 	andne	r0, r0, r0
    11bc:	01000000 	mrseq	r0, (UNDEF: 0)
    11c0:	00105300 	andseq	r5, r0, r0, lsl #6
    11c4:	00180000 	andseq	r0, r8, r0
    11c8:	00030000 	andeq	r0, r3, r0
    11cc:	189f0473 	ldmne	pc, {r0, r1, r4, r5, r6, sl}	; <UNPREDICTABLE>
    11d0:	1f000000 	svcne	0x00000000
    11d4:	01000000 	mrseq	r0, (UNDEF: 0)
    11d8:	00005300 	andeq	r5, r0, r0, lsl #6
    11dc:	00000000 	andeq	r0, r0, r0
    11e0:	00010000 	andeq	r0, r1, r0
    11e4:	000090cc 	andeq	r9, r0, ip, asr #1
    11e8:	000090e8 	andeq	r9, r0, r8, ror #1
    11ec:	1c0c0006 	stcne	0, cr0, [ip], {6}
    11f0:	9f201000 	svcls	0x00201000
	...
    11fc:	90cc0002 	sbcls	r0, ip, r2
    1200:	90e80000 	rscls	r0, r8, r0
    1204:	00060000 	andeq	r0, r6, r0
    1208:	1000240c 	andne	r2, r0, ip, lsl #8
    120c:	00009f20 	andeq	r9, r0, r0, lsr #30
    1210:	00000000 	andeq	r0, r0, r0
    1214:	00030000 	andeq	r0, r3, r0
    1218:	000090cc 	andeq	r9, r0, ip, asr #1
    121c:	000090e8 	andeq	r9, r0, r8, ror #1
    1220:	b4080005 	strlt	r0, [r8], #-5
    1224:	009f2447 	addseq	r2, pc, r7, asr #8
    1228:	00000000 	andeq	r0, r0, r0
    122c:	04000000 	streq	r0, [r0], #-0
    1230:	0090cc00 	addseq	ip, r0, r0, lsl #24
    1234:	0090e800 	addseq	lr, r0, r0, lsl #16
    1238:	08000300 	stmdaeq	r0, {r8, r9}
    123c:	00009f20 	andeq	r9, r0, r0, lsr #30
    1240:	00000000 	andeq	r0, r0, r0
    1244:	00020000 	andeq	r0, r2, r0
    1248:	00000000 	andeq	r0, r0, r0
    124c:	000090a0 	andeq	r9, r0, r0, lsr #1
    1250:	000090a4 	andeq	r9, r0, r4, lsr #1
    1254:	9f300002 	svcls	0x00300002
    1258:	000090a4 	andeq	r9, r0, r4, lsr #1
    125c:	000090a8 	andeq	r9, r0, r8, lsr #1
    1260:	ac530001 	mrrcge	0, 0, r0, r3, cr1
    1264:	b4000090 	strlt	r0, [r0], #-144	; 0xffffff70
    1268:	01000090 	swpeq	r0, r0, [r0]	; <UNPREDICTABLE>
    126c:	00005300 	andeq	r5, r0, r0, lsl #6
    1270:	00000000 	andeq	r0, r0, r0
    1274:	00020000 	andeq	r0, r2, r0
    1278:	90880000 	addls	r0, r8, r0
    127c:	908c0000 	addls	r0, ip, r0
    1280:	00020000 	andeq	r0, r2, r0
    1284:	908c9f30 	addls	r9, ip, r0, lsr pc
    1288:	90900000 	addsls	r0, r0, r0
    128c:	00010000 	andeq	r0, r1, r0
    1290:	00000050 	andeq	r0, r0, r0, asr r0
	...
    129c:	00007400 	andeq	r7, r0, r0, lsl #8
    12a0:	00008000 	andeq	r8, r0, r0
    12a4:	50000100 	andpl	r0, r0, r0, lsl #2
    12a8:	00000080 	andeq	r0, r0, r0, lsl #1
    12ac:	0000008c 	andeq	r0, r0, ip, lsl #1
    12b0:	01f30004 	mvnseq	r0, r4
    12b4:	00009f50 	andeq	r9, r0, r0, asr pc
	...
    12c0:	005c0000 	subseq	r0, ip, r0
    12c4:	00680000 	rsbeq	r0, r8, r0
    12c8:	00010000 	andeq	r0, r1, r0
    12cc:	00006850 	andeq	r6, r0, r0, asr r8
    12d0:	00007400 	andeq	r7, r0, r0, lsl #8
    12d4:	f3000400 	vshl.u8	d0, d0, d0
    12d8:	009f5001 	addseq	r5, pc, r1
	...
    12e4:	38000000 	stmdacc	r0, {}	; <UNPREDICTABLE>
    12e8:	43000000 	movwmi	r0, #0
    12ec:	01000000 	mrseq	r0, (UNDEF: 0)
    12f0:	00435000 	subeq	r5, r3, r0
    12f4:	005c0000 	subseq	r0, ip, r0
    12f8:	00010000 	andeq	r0, r1, r0
    12fc:	00000055 	andeq	r0, r0, r5, asr r0
    1300:	00000000 	andeq	r0, r0, r0
    1304:	48000000 	stmdami	r0, {}	; <UNPREDICTABLE>
    1308:	5c000000 	stcpl	0, cr0, [r0], {-0}
    130c:	01000000 	mrseq	r0, (UNDEF: 0)
    1310:	00005400 	andeq	r5, r0, r0, lsl #8
	...
    131c:	0000004c 	andeq	r0, r0, ip, asr #32
    1320:	00000050 	andeq	r0, r0, r0, asr r0
    1324:	00500001 	subseq	r0, r0, r1
	...
    1330:	00003400 	andeq	r3, r0, r0, lsl #8
    1334:	00003800 	andeq	r3, r0, r0, lsl #16
    1338:	50000100 	andpl	r0, r0, r0, lsl #2
	...
    134c:	00000004 	andeq	r0, r0, r4
    1350:	04500001 	ldrbeq	r0, [r0], #-1
    1354:	18000000 	stmdane	r0, {}	; <UNPREDICTABLE>
    1358:	01000000 	mrseq	r0, (UNDEF: 0)
    135c:	00005300 	andeq	r5, r0, r0, lsl #6
    1360:	00000000 	andeq	r0, r0, r0
    1364:	01380000 	teqeq	r8, r0
    1368:	01430000 	mrseq	r0, (UNDEF: 67)
    136c:	00010000 	andeq	r0, r1, r0
    1370:	00014350 	andeq	r4, r1, r0, asr r3
    1374:	00016800 	andeq	r6, r1, r0, lsl #16
    1378:	54000100 	strpl	r0, [r0], #-256	; 0xffffff00
	...
    1388:	0000000f 	andeq	r0, r0, pc
    138c:	0f500001 	svceq	0x00500001
    1390:	20000000 	andcs	r0, r0, r0
    1394:	01000000 	mrseq	r0, (UNDEF: 0)
    1398:	00005400 	andeq	r5, r0, r0, lsl #8
	...
    13a4:	000f0000 	andeq	r0, pc, r0
    13a8:	00010000 	andeq	r0, r1, r0
    13ac:	00000f51 	andeq	r0, r0, r1, asr pc
    13b0:	00002000 	andeq	r2, r0, r0
    13b4:	55000100 	strpl	r0, [r0, #-256]	; 0xffffff00
	...
    13c0:	000000ec 	andeq	r0, r0, ip, ror #1
    13c4:	00000104 	andeq	r0, r0, r4, lsl #2
    13c8:	04500001 	ldrbeq	r0, [r0], #-1
    13cc:	14000001 	strne	r0, [r0], #-1
    13d0:	04000001 	streq	r0, [r0], #-1
    13d4:	5001f300 	andpl	pc, r1, r0, lsl #6
    13d8:	0001149f 	muleq	r1, pc, r4	; <UNPREDICTABLE>
    13dc:	00011800 	andeq	r1, r1, r0, lsl #16
    13e0:	50000100 	andpl	r0, r0, r0, lsl #2
    13e4:	00000118 	andeq	r0, r0, r8, lsl r1
    13e8:	00000120 	andeq	r0, r0, r0, lsr #2
    13ec:	01f30004 	mvnseq	r0, r4
    13f0:	00009f50 	andeq	r9, r0, r0, asr pc
    13f4:	00000000 	andeq	r0, r0, r0
    13f8:	00f80000 	rscseq	r0, r8, r0
    13fc:	01040000 	mrseq	r0, (UNDEF: 4)
    1400:	000b0000 	andeq	r0, fp, r0
    1404:	25350070 	ldrcs	r0, [r5, #-112]!	; 0xffffff90
    1408:	8080b423 	addhi	fp, r0, r3, lsr #8
    140c:	049f0281 	ldreq	r0, [pc], #641	; 1414 <_start-0x6bec>
    1410:	07000001 	streq	r0, [r0, -r1]
    1414:	01000001 	tsteq	r0, r1
    1418:	01075000 	mrseq	r5, (UNDEF: 7)
    141c:	01140000 	tsteq	r4, r0
    1420:	000c0000 	andeq	r0, ip, r0
    1424:	355001f3 	ldrbcc	r0, [r0, #-499]	; 0xfffffe0d
    1428:	80b42325 	adcshi	r2, r4, r5, lsr #6
    142c:	9f028180 	svcls	0x00028180
	...
    1438:	000000fc 	strdeq	r0, [r0], -ip
    143c:	00000114 	andeq	r0, r0, r4, lsl r1
    1440:	00540001 	subseq	r0, r4, r1
    1444:	00000000 	andeq	r0, r0, r0
    1448:	d0000000 	andle	r0, r0, r0
    144c:	df000000 	svcle	0x00000000
    1450:	01000000 	mrseq	r0, (UNDEF: 0)
    1454:	00df5000 	sbcseq	r5, pc, r0
    1458:	00e40000 	rsceq	r0, r4, r0
    145c:	00040000 	andeq	r0, r4, r0
    1460:	9f5001f3 	svcls	0x005001f3
    1464:	000000e4 	andeq	r0, r0, r4, ror #1
    1468:	000000e7 	andeq	r0, r0, r7, ror #1
    146c:	e7500001 	ldrb	r0, [r0, -r1]
    1470:	ec000000 	stc	0, cr0, [r0], {-0}
    1474:	04000000 	streq	r0, [r0], #-0
    1478:	5001f300 	andpl	pc, r1, r0, lsl #6
    147c:	0000009f 	muleq	r0, pc, r0	; <UNPREDICTABLE>
    1480:	00000000 	andeq	r0, r0, r0
    1484:	0000d000 	andeq	sp, r0, r0
    1488:	0000df00 	andeq	sp, r0, r0, lsl #30
    148c:	51000100 	mrspl	r0, (UNDEF: 16)
    1490:	000000df 	ldrdeq	r0, [r0], -pc	; <UNPREDICTABLE>
    1494:	000000e4 	andeq	r0, r0, r4, ror #1
    1498:	01f30004 	mvnseq	r0, r4
    149c:	00e49f51 	rsceq	r9, r4, r1, asr pc
    14a0:	00e70000 	rsceq	r0, r7, r0
    14a4:	00010000 	andeq	r0, r1, r0
    14a8:	0000e751 	andeq	lr, r0, r1, asr r7
    14ac:	0000ec00 	andeq	lr, r0, r0, lsl #24
    14b0:	f3000400 	vshl.u8	d0, d0, d0
    14b4:	009f5101 	addseq	r5, pc, r1, lsl #2
    14b8:	00000000 	andeq	r0, r0, r0
    14bc:	c0000000 	andgt	r0, r0, r0
    14c0:	cb000000 	blgt	14c8 <_start-0x6b38>
    14c4:	01000000 	mrseq	r0, (UNDEF: 0)
    14c8:	00cb5000 	sbceq	r5, fp, r0
    14cc:	00d00000 	sbcseq	r0, r0, r0
    14d0:	00040000 	andeq	r0, r4, r0
    14d4:	9f5001f3 	svcls	0x005001f3
	...
    14e0:	0000009c 	muleq	r0, ip, r0
    14e4:	000000b4 	strheq	r0, [r0], -r4
    14e8:	b4500001 	ldrblt	r0, [r0], #-1
    14ec:	c0000000 	andgt	r0, r0, r0
    14f0:	04000000 	streq	r0, [r0], #-0
    14f4:	5001f300 	andpl	pc, r1, r0, lsl #6
    14f8:	0000009f 	muleq	r0, pc, r0	; <UNPREDICTABLE>
    14fc:	00000000 	andeq	r0, r0, r0
    1500:	00007800 	andeq	r7, r0, r0, lsl #16
    1504:	00009000 	andeq	r9, r0, r0
    1508:	50000100 	andpl	r0, r0, r0, lsl #2
    150c:	00000090 	muleq	r0, r0, r0
    1510:	0000009c 	muleq	r0, ip, r0
    1514:	01f30004 	mvnseq	r0, r4
    1518:	00009f50 	andeq	r9, r0, r0, asr pc
    151c:	00000000 	andeq	r0, r0, r0
    1520:	00680000 	rsbeq	r0, r8, r0
    1524:	00730000 	rsbseq	r0, r3, r0
    1528:	00010000 	andeq	r0, r1, r0
    152c:	00007350 	andeq	r7, r0, r0, asr r3
    1530:	00007800 	andeq	r7, r0, r0, lsl #16
    1534:	f3000400 	vshl.u8	d0, d0, d0
    1538:	009f5001 	addseq	r5, pc, r1
	...
    1544:	48000000 	stmdami	r0, {}	; <UNPREDICTABLE>
    1548:	01000000 	mrseq	r0, (UNDEF: 0)
    154c:	00485000 	subeq	r5, r8, r0
    1550:	00680000 	rsbeq	r0, r8, r0
    1554:	00040000 	andeq	r0, r4, r0
    1558:	9f5001f3 	svcls	0x005001f3
	...
    1568:	0000004b 	andeq	r0, r0, fp, asr #32
    156c:	4b510001 	blmi	1441578 <__bss_end__+0x1437578>
    1570:	68000000 	stmdavs	r0, {}	; <UNPREDICTABLE>
    1574:	04000000 	streq	r0, [r0], #-0
    1578:	5101f300 	mrspl	pc, SP_irq	; <UNPREDICTABLE>
    157c:	0000009f 	muleq	r0, pc, r0	; <UNPREDICTABLE>
    1580:	00000000 	andeq	r0, r0, r0
    1584:	00004c00 	andeq	r4, r0, r0, lsl #24
    1588:	00005400 	andeq	r5, r0, r0, lsl #8
    158c:	50000100 	andpl	r0, r0, r0, lsl #2
    1590:	00000054 	andeq	r0, r0, r4, asr r0
    1594:	00000058 	andeq	r0, r0, r8, asr r0
    1598:	00750009 	rsbseq	r0, r5, r9
    159c:	71240074 			; <UNDEFINED> instruction: 0x71240074
    15a0:	589f2100 	ldmpl	pc, {r8, sp}	; <UNPREDICTABLE>
    15a4:	5f000000 	svcpl	0x00000000
    15a8:	01000000 	mrseq	r0, (UNDEF: 0)
    15ac:	00005100 	andeq	r5, r0, r0, lsl #2
    15b0:	00000000 	andeq	r0, r0, r0
    15b4:	00e00000 	rsceq	r0, r0, r0
    15b8:	011b0000 	tsteq	fp, r0
    15bc:	00010000 	andeq	r0, r1, r0
    15c0:	00011b50 	andeq	r1, r1, r0, asr fp
    15c4:	00012000 	andeq	r2, r1, r0
    15c8:	f3000400 	vshl.u8	d0, d0, d0
    15cc:	209f5001 	addscs	r5, pc, r1
    15d0:	23000001 	movwcs	r0, #1
    15d4:	01000001 	tsteq	r0, r1
    15d8:	01235000 			; <UNDEFINED> instruction: 0x01235000
    15dc:	013c0000 	teqeq	ip, r0
    15e0:	00040000 	andeq	r0, r4, r0
    15e4:	9f5001f3 	svcls	0x005001f3
    15e8:	0000013c 	andeq	r0, r0, ip, lsr r1
    15ec:	0000013f 	andeq	r0, r0, pc, lsr r1
    15f0:	3f500001 	svccc	0x00500001
    15f4:	6c000001 	stcvs	0, cr0, [r0], {1}
    15f8:	04000001 	streq	r0, [r0], #-1
    15fc:	5001f300 	andpl	pc, r1, r0, lsl #6
    1600:	0000009f 	muleq	r0, pc, r0	; <UNPREDICTABLE>
    1604:	00000000 	andeq	r0, r0, r0
    1608:	0000e000 	andeq	lr, r0, r0
    160c:	00010800 	andeq	r0, r1, r0, lsl #16
    1610:	51000100 	mrspl	r0, (UNDEF: 16)
    1614:	00000108 	andeq	r0, r0, r8, lsl #2
    1618:	0000011b 	andeq	r0, r0, fp, lsl r1
    161c:	01710003 	cmneq	r1, r3
    1620:	00011b9f 	muleq	r1, pc, fp	; <UNPREDICTABLE>
    1624:	00012000 	andeq	r2, r1, r0
    1628:	f3000400 	vshl.u8	d0, d0, d0
    162c:	209f5101 	addscs	r5, pc, r1, lsl #2
    1630:	23000001 	movwcs	r0, #1
    1634:	01000001 	tsteq	r0, r1
    1638:	01235100 			; <UNDEFINED> instruction: 0x01235100
    163c:	016c0000 	cmneq	ip, r0
    1640:	00040000 	andeq	r0, r4, r0
    1644:	9f5101f3 	svcls	0x005101f3
	...
    1650:	000000f8 	strdeq	r0, [r0], -r8
    1654:	000000fc 	strdeq	r0, [r0], -ip
    1658:	fc520001 	mrrc2	0, 0, r0, r2, cr1
    165c:	04000000 	streq	r0, [r0], #-0
    1660:	05000001 	streq	r0, [r0, #-1]
    1664:	96240300 	strtls	r0, [r4], -r0, lsl #6
    1668:	01040000 	mrseq	r0, (UNDEF: 4)
    166c:	011b0000 	tsteq	fp, r0
    1670:	00010000 	andeq	r0, r1, r0
    1674:	00013c53 	andeq	r3, r1, r3, asr ip
    1678:	00013f00 	andeq	r3, r1, r0, lsl #30
    167c:	53000100 	movwpl	r0, #256	; 0x100
	...
    1688:	0000006c 	andeq	r0, r0, ip, rrx
    168c:	00000080 	andeq	r0, r0, r0, lsl #1
    1690:	80500001 	subshi	r0, r0, r1
    1694:	9b000000 	blls	169c <_start-0x6964>
    1698:	01000000 	mrseq	r0, (UNDEF: 0)
    169c:	009b5200 	addseq	r5, fp, r0, lsl #4
    16a0:	00a40000 	adceq	r0, r4, r0
    16a4:	00090000 	andeq	r0, r9, r0
    16a8:	235001f3 	cmpcs	r0, #-1073741764	; 0xc000003c
    16ac:	1af80907 	bne	ffe03ad0 <__bss_end__+0xffdf9ad0>
    16b0:	0000a49f 	muleq	r0, pc, r4	; <UNPREDICTABLE>
    16b4:	0000a700 	andeq	sl, r0, r0, lsl #14
    16b8:	50000100 	andpl	r0, r0, r0, lsl #2
    16bc:	000000a7 	andeq	r0, r0, r7, lsr #1
    16c0:	000000d0 	ldrdeq	r0, [r0], -r0	; <UNPREDICTABLE>
    16c4:	01f30004 	mvnseq	r0, r4
    16c8:	00009f50 	andeq	r9, r0, r0, asr pc
    16cc:	00000000 	andeq	r0, r0, r0
    16d0:	00880000 	addeq	r0, r8, r0
    16d4:	00a40000 	adceq	r0, r4, r0
    16d8:	00010000 	andeq	r0, r1, r0
    16dc:	00000054 	andeq	r0, r0, r4, asr r0
    16e0:	00000000 	andeq	r0, r0, r0
    16e4:	00001c00 	andeq	r1, r0, r0, lsl #24
    16e8:	00004300 	andeq	r4, r0, r0, lsl #6
    16ec:	50000100 	andpl	r0, r0, r0, lsl #2
    16f0:	00000043 	andeq	r0, r0, r3, asr #32
    16f4:	0000006c 	andeq	r0, r0, ip, rrx
    16f8:	01f30004 	mvnseq	r0, r4
    16fc:	00009f50 	andeq	r9, r0, r0, asr pc
    1700:	00000000 	andeq	r0, r0, r0
    1704:	001c0000 	andseq	r0, ip, r0
    1708:	00430000 	subeq	r0, r3, r0
    170c:	00010000 	andeq	r0, r1, r0
    1710:	00004350 	andeq	r4, r0, r0, asr r3
    1714:	00006c00 	andeq	r6, r0, r0, lsl #24
    1718:	f3000400 	vshl.u8	d0, d0, d0
    171c:	009f5001 	addseq	r5, pc, r1
    1720:	00000000 	andeq	r0, r0, r0
    1724:	Address 0x0000000000001724 is out of bounds.


Disassembly of section .debug_aranges:

00000000 <.debug_aranges>:
   0:	0000001c 	andeq	r0, r0, ip, lsl r0
   4:	00000002 	andeq	r0, r0, r2
   8:	00040000 	andeq	r0, r4, r0
   c:	00000000 	andeq	r0, r0, r0
  10:	00008010 	andeq	r8, r0, r0, lsl r0
  14:	000000d0 	ldrdeq	r0, [r0], -r0	; <UNPREDICTABLE>
	...
  20:	0000001c 	andeq	r0, r0, ip, lsl r0
  24:	0b6c0002 	bleq	1b00034 <__bss_end__+0x1af6034>
  28:	00040000 	andeq	r0, r4, r0
  2c:	00000000 	andeq	r0, r0, r0
  30:	000080e0 	andeq	r8, r0, r0, ror #1
  34:	00000868 	andeq	r0, r0, r8, ror #16
	...
  40:	0000001c 	andeq	r0, r0, ip, lsl r0
  44:	24f50002 	ldrbtcs	r0, [r5], #2
  48:	00040000 	andeq	r0, r4, r0
  4c:	00000000 	andeq	r0, r0, r0
  50:	00008948 	andeq	r8, r0, r8, asr #18
  54:	000000ec 	andeq	r0, r0, ip, ror #1
	...
  60:	0000001c 	andeq	r0, r0, ip, lsl r0
  64:	2ef70002 	cdpcs	0, 15, cr0, cr7, cr2, {0}
  68:	00040000 	andeq	r0, r4, r0
  6c:	00000000 	andeq	r0, r0, r0
  70:	00008a34 	andeq	r8, r0, r4, lsr sl
  74:	00000018 	andeq	r0, r0, r8, lsl r0
	...
  80:	0000001c 	andeq	r0, r0, ip, lsl r0
  84:	38770002 	ldmdacc	r7!, {r1}^
  88:	00040000 	andeq	r0, r4, r0
  8c:	00000000 	andeq	r0, r0, r0
  90:	00008a4c 	andeq	r8, r0, ip, asr #20
  94:	00000058 	andeq	r0, r0, r8, asr r0
	...
  a0:	0000001c 	andeq	r0, r0, ip, lsl r0
  a4:	42a60002 	adcmi	r0, r6, #2
  a8:	00040000 	andeq	r0, r4, r0
  ac:	00000000 	andeq	r0, r0, r0
  b0:	00008aa4 	andeq	r8, r0, r4, lsr #21
  b4:	0000003c 	andeq	r0, r0, ip, lsr r0
	...
  c0:	0000001c 	andeq	r0, r0, ip, lsl r0
  c4:	4c830002 	stcmi	0, cr0, [r3], {2}
  c8:	00040000 	andeq	r0, r4, r0
  cc:	00000000 	andeq	r0, r0, r0
  d0:	00008ae0 	andeq	r8, r0, r0, ror #21
  d4:	00000034 	andeq	r0, r0, r4, lsr r0
	...
  e0:	0000001c 	andeq	r0, r0, ip, lsl r0
  e4:	560a0002 	strpl	r0, [sl], -r2
  e8:	00040000 	andeq	r0, r4, r0
  ec:	00000000 	andeq	r0, r0, r0
  f0:	00008b14 	andeq	r8, r0, r4, lsl fp
  f4:	00000520 	andeq	r0, r0, r0, lsr #10
	...
 100:	0000001c 	andeq	r0, r0, ip, lsl r0
 104:	65ae0002 	strvs	r0, [lr, #2]!
 108:	00040000 	andeq	r0, r4, r0
 10c:	00000000 	andeq	r0, r0, r0
 110:	00009034 	andeq	r9, r0, r4, lsr r0
 114:	00000028 	andeq	r0, r0, r8, lsr #32
	...
 120:	0000001c 	andeq	r0, r0, ip, lsl r0
 124:	6f5d0002 	svcvs	0x005d0002
 128:	00040000 	andeq	r0, r4, r0
 12c:	00000000 	andeq	r0, r0, r0
 130:	0000905c 	andeq	r9, r0, ip, asr r0
 134:	0000002c 	andeq	r0, r0, ip, lsr #32
	...
 140:	0000001c 	andeq	r0, r0, ip, lsl r0
 144:	79340002 	ldmdbvc	r4!, {r1}
 148:	00040000 	andeq	r0, r4, r0
 14c:	00000000 	andeq	r0, r0, r0
 150:	00009088 	andeq	r9, r0, r8, lsl #1
 154:	00000078 	andeq	r0, r0, r8, ror r0
	...
 160:	0000001c 	andeq	r0, r0, ip, lsl r0
 164:	83d30002 	bicshi	r0, r3, #2
 168:	00040000 	andeq	r0, r4, r0
 16c:	00000000 	andeq	r0, r0, r0
 170:	00009100 	andeq	r9, r0, r0, lsl #2
 174:	0000008c 	andeq	r0, r0, ip, lsl #1
	...
 180:	0000001c 	andeq	r0, r0, ip, lsl r0
 184:	8ec10002 	cdphi	0, 12, cr0, cr1, cr2, {0}
 188:	00040000 	andeq	r0, r4, r0
 18c:	00000000 	andeq	r0, r0, r0
 190:	000091d8 	ldrdeq	r9, [r0], -r8
 194:	00000178 	andeq	r0, r0, r8, ror r1
	...
 1a0:	0000001c 	andeq	r0, r0, ip, lsl r0
 1a4:	9b8a0002 	blls	fe2801b4 <__bss_end__+0xfe2761b4>
 1a8:	00040000 	andeq	r0, r4, r0
 1ac:	00000000 	andeq	r0, r0, r0
 1b0:	00009350 	andeq	r9, r0, r0, asr r3
 1b4:	00000120 	andeq	r0, r0, r0, lsr #2
	...
 1c0:	0000001c 	andeq	r0, r0, ip, lsl r0
 1c4:	a6fe0002 	ldrbtge	r0, [lr], r2
 1c8:	00040000 	andeq	r0, r4, r0
 1cc:	00000000 	andeq	r0, r0, r0
 1d0:	00009470 	andeq	r9, r0, r0, ror r4
 1d4:	00000194 	muleq	r0, r4, r1
	...

Disassembly of section .debug_line:

00000000 <.debug_line>:
       0:	00000147 	andeq	r0, r0, r7, asr #2
       4:	00fa0003 	rscseq	r0, sl, r3
       8:	01020000 	mrseq	r0, (UNDEF: 2)
       c:	000d0efb 	strdeq	r0, [sp], -fp
      10:	01010101 	tsteq	r1, r1, lsl #2
      14:	01000000 	mrseq	r0, (UNDEF: 0)
      18:	2f010000 	svccs	0x00010000
      1c:	2f727375 	svccs	0x00727375
      20:	2d6d7261 	sfmcs	f7, 2, [sp, #-388]!	; 0xfffffe7c
      24:	656e6f6e 	strbvs	r6, [lr, #-3950]!	; 0xfffff092
      28:	6261652d 	rsbvs	r6, r1, #188743680	; 0xb400000
      2c:	6e692f69 	cdpvs	15, 6, cr2, cr9, cr9, {3}
      30:	64756c63 	ldrbtvs	r6, [r5], #-3171	; 0xfffff39d
      34:	79732f65 	ldmdbvc	r3!, {r0, r2, r5, r6, r8, r9, sl, fp, sp}^
      38:	752f0073 	strvc	r0, [pc, #-115]!	; ffffffcd <__bss_end__+0xffff5fcd>
      3c:	6c2f7273 	sfmvs	f7, 4, [pc], #-460	; fffffe78 <__bss_end__+0xffff5e78>
      40:	672f6269 	strvs	r6, [pc, -r9, ror #4]!
      44:	612f6363 			; <UNDEFINED> instruction: 0x612f6363
      48:	6e2d6d72 	mcrvs	13, 1, r6, cr13, cr2, {3}
      4c:	2d656e6f 	stclcs	14, cr6, [r5, #-444]!	; 0xfffffe44
      50:	69626165 	stmdbvs	r2!, {r0, r2, r5, r6, r8, sp, lr}^
      54:	322e392f 	eorcc	r3, lr, #770048	; 0xbc000
      58:	692f302e 	stmdbvs	pc!, {r1, r2, r3, r5, ip, sp}	; <UNPREDICTABLE>
      5c:	756c636e 	strbvc	r6, [ip, #-878]!	; 0xfffffc92
      60:	2f006564 	svccs	0x00006564
      64:	656d6f68 	strbvs	r6, [sp, #-3944]!	; 0xfffff098
      68:	6573752f 	ldrbvs	r7, [r3, #-1327]!	; 0xfffffad1
      6c:	65442f72 	strbvs	r2, [r4, #-3954]	; 0xfffff08e
      70:	53432f76 	movtpl	r2, #16246	; 0x3f76
      74:	58303432 	ldmdapl	r0!, {r1, r4, r5, sl, ip, sp}
      78:	62696c2f 	rsbvs	r6, r9, #12032	; 0x2f00
      7c:	692f6970 	stmdbvs	pc!, {r4, r5, r6, r8, fp, sp, lr}	; <UNPREDICTABLE>
      80:	756c636e 	strbvc	r6, [ip, #-878]!	; 0xfffffc92
      84:	2f006564 	svccs	0x00006564
      88:	2f727375 	svccs	0x00727375
      8c:	2d6d7261 	sfmcs	f7, 2, [sp, #-388]!	; 0xfffffe7c
      90:	656e6f6e 	strbvs	r6, [lr, #-3950]!	; 0xfffff092
      94:	6261652d 	rsbvs	r6, r1, #188743680	; 0xb400000
      98:	6e692f69 	cdpvs	15, 6, cr2, cr9, cr9, {3}
      9c:	64756c63 	ldrbtvs	r6, [r5], #-3171	; 0xfffff39d
      a0:	70000065 	andvc	r0, r0, r5, rrx
      a4:	31747261 	cmncc	r4, r1, ror #4
      a8:	7365742d 	cmnvc	r5, #754974720	; 0x2d000000
      ac:	632e3374 			; <UNDEFINED> instruction: 0x632e3374
      b0:	00000000 	andeq	r0, r0, r0
      b4:	6b636f6c 	blvs	18dbe6c <__bss_end__+0x18d1e6c>
      b8:	0100682e 	tsteq	r0, lr, lsr #16
      bc:	745f0000 	ldrbvc	r0, [pc], #-0	; c4 <_start-0x7f3c>
      c0:	73657079 	cmnvc	r5, #121	; 0x79
      c4:	0100682e 	tsteq	r0, lr, lsr #16
      c8:	74730000 	ldrbtvc	r0, [r3], #-0
      cc:	66656464 	strbtvs	r6, [r5], -r4, ror #8
      d0:	0200682e 	andeq	r6, r0, #3014656	; 0x2e0000
      d4:	65720000 	ldrbvs	r0, [r2, #-0]!
      d8:	2e746e65 	cdpcs	14, 7, cr6, cr4, cr5, {3}
      dc:	00010068 	andeq	r0, r1, r8, rrx
      e0:	69707200 	ldmdbvs	r0!, {r9, ip, sp, lr}^
      e4:	0300682e 	movweq	r6, #2094	; 0x82e
      e8:	6b630000 	blvs	18c00f0 <__bss_end__+0x18b60f0>
      ec:	6f6c6c61 	svcvs	0x006c6c61
      f0:	00682e63 	rsbeq	r2, r8, r3, ror #28
      f4:	73000000 	movwvc	r0, #0
      f8:	6e697274 	mcrvs	2, 3, r7, cr9, cr4, {3}
      fc:	00682e67 	rsbeq	r2, r8, r7, ror #28
     100:	00000004 	andeq	r0, r0, r4
     104:	05001405 	streq	r1, [r0, #-1029]	; 0xfffffbfb
     108:	00801002 	addeq	r1, r0, r2
     10c:	05051600 	streq	r1, [r5, #-1536]	; 0xfffffa00
     110:	134b4d4b 	movtne	r4, #48459	; 0xbd4b
     114:	060f0584 	streq	r0, [pc], -r4, lsl #11
     118:	06050501 	streq	r0, [r5], -r1, lsl #10
     11c:	05a067f3 	streq	r6, [r0, #2035]!	; 0x7f3
     120:	0501060a 	streq	r0, [r1, #-1546]	; 0xfffff9f6
     124:	134b0605 	movtne	r0, #46597	; 0xb605
     128:	01061005 	tsteq	r6, r5
     12c:	052e0705 	streq	r0, [lr, #-1797]!	; 0xfffff8fb
     130:	144b0609 	strbne	r0, [fp], #-1545	; 0xfffff9f7
     134:	062e0601 	strteq	r0, [lr], -r1, lsl #12
     138:	01054a2e 	tsteq	r5, lr, lsr #20
     13c:	054a1306 	strbeq	r1, [sl, #-774]	; 0xfffffcfa
     140:	012b0609 			; <UNDEFINED> instruction: 0x012b0609
     144:	0e02ba2e 	vmlaeq.f32	s22, s4, s29
     148:	2f010100 	svccs	0x00010100
     14c:	03000007 	movweq	r0, #7
     150:	00013700 	andeq	r3, r1, r0, lsl #14
     154:	fb010200 	blx	4095e <__bss_end__+0x3695e>
     158:	01000d0e 	tsteq	r0, lr, lsl #26
     15c:	00010101 	andeq	r0, r1, r1, lsl #2
     160:	00010000 	andeq	r0, r1, r0
     164:	752f0100 	strvc	r0, [pc, #-256]!	; 6c <_start-0x7f94>
     168:	6c2f7273 	sfmvs	f7, 4, [pc], #-460	; ffffffa4 <__bss_end__+0xffff5fa4>
     16c:	672f6269 	strvs	r6, [pc, -r9, ror #4]!
     170:	612f6363 			; <UNDEFINED> instruction: 0x612f6363
     174:	6e2d6d72 	mcrvs	13, 1, r6, cr13, cr2, {3}
     178:	2d656e6f 	stclcs	14, cr6, [r5, #-444]!	; 0xfffffe44
     17c:	69626165 	stmdbvs	r2!, {r0, r2, r5, r6, r8, sp, lr}^
     180:	322e392f 	eorcc	r3, lr, #770048	; 0xbc000
     184:	692f302e 	stmdbvs	pc!, {r1, r2, r3, r5, ip, sp}	; <UNPREDICTABLE>
     188:	756c636e 	strbvc	r6, [ip, #-878]!	; 0xfffffc92
     18c:	2f006564 	svccs	0x00006564
     190:	2f727375 	svccs	0x00727375
     194:	2d6d7261 	sfmcs	f7, 2, [sp, #-388]!	; 0xfffffe7c
     198:	656e6f6e 	strbvs	r6, [lr, #-3950]!	; 0xfffff092
     19c:	6261652d 	rsbvs	r6, r1, #188743680	; 0xb400000
     1a0:	6e692f69 	cdpvs	15, 6, cr2, cr9, cr9, {3}
     1a4:	64756c63 	ldrbtvs	r6, [r5], #-3171	; 0xfffff39d
     1a8:	79732f65 	ldmdbvc	r3!, {r0, r2, r5, r6, r8, r9, sl, fp, sp}^
     1ac:	682f0073 	stmdavs	pc!, {r0, r1, r4, r5, r6}	; <UNPREDICTABLE>
     1b0:	2f656d6f 	svccs	0x00656d6f
     1b4:	72657375 	rsbvc	r7, r5, #-738197503	; 0xd4000001
     1b8:	7665442f 	strbtvc	r4, [r5], -pc, lsr #8
     1bc:	3253432f 	subscc	r4, r3, #-1140850688	; 0xbc000000
     1c0:	2f583034 	svccs	0x00583034
     1c4:	7062696c 	rsbvc	r6, r2, ip, ror #18
     1c8:	6e692f69 	cdpvs	15, 6, cr2, cr9, cr9, {3}
     1cc:	64756c63 	ldrbtvs	r6, [r5], #-3171	; 0xfffff39d
     1d0:	752f0065 	strvc	r0, [pc, #-101]!	; 173 <_start-0x7e8d>
     1d4:	612f7273 			; <UNDEFINED> instruction: 0x612f7273
     1d8:	6e2d6d72 	mcrvs	13, 1, r6, cr13, cr2, {3}
     1dc:	2d656e6f 	stclcs	14, cr6, [r5, #-444]!	; 0xfffffe44
     1e0:	69626165 	stmdbvs	r2!, {r0, r2, r5, r6, r8, sp, lr}^
     1e4:	636e692f 	cmnvs	lr, #770048	; 0xbc000
     1e8:	6564756c 	strbvs	r7, [r4, #-1388]!	; 0xfffffa94
     1ec:	6f682f00 	svcvs	0x00682f00
     1f0:	752f656d 	strvc	r6, [pc, #-1389]!	; fffffc8b <__bss_end__+0xffff5c8b>
     1f4:	2f726573 	svccs	0x00726573
     1f8:	2f766544 	svccs	0x00766544
     1fc:	34325343 	ldrtcc	r5, [r2], #-835	; 0xfffffcbd
     200:	6c2f5830 	stcvs	8, cr5, [pc], #-192	; 148 <_start-0x7eb8>
     204:	69706269 	ldmdbvs	r0!, {r0, r3, r5, r6, r9, sp, lr}^
     208:	62696c2f 	rsbvs	r6, r9, #12032	; 0x2f00
     20c:	63000063 	movwvs	r0, #99	; 0x63
     210:	6c6c616b 	stfvse	f6, [ip], #-428	; 0xfffffe54
     214:	632e636f 			; <UNDEFINED> instruction: 0x632e636f
     218:	00000000 	andeq	r0, r0, r0
     21c:	6c616b63 			; <UNDEFINED> instruction: 0x6c616b63
     220:	2e636f6c 	cdpcs	15, 6, cr6, cr3, cr12, {3}
     224:	00000068 	andeq	r0, r0, r8, rrx
     228:	64747300 	ldrbtvs	r7, [r4], #-768	; 0xfffffd00
     22c:	2d746e69 	ldclcs	14, cr6, [r4, #-420]!	; 0xfffffe5c
     230:	2e636367 	cdpcs	3, 6, cr6, cr3, cr7, {3}
     234:	00010068 	andeq	r0, r1, r8, rrx
     238:	636f6c00 	cmnvs	pc, #0, 24
     23c:	00682e6b 	rsbeq	r2, r8, fp, ror #28
     240:	5f000002 	svcpl	0x00000002
     244:	65707974 	ldrbvs	r7, [r0, #-2420]!	; 0xfffff68c
     248:	00682e73 	rsbeq	r2, r8, r3, ror lr
     24c:	73000002 	movwvc	r0, #2
     250:	65646474 	strbvs	r6, [r4, #-1140]!	; 0xfffffb8c
     254:	00682e66 	rsbeq	r2, r8, r6, ror #28
     258:	72000001 	andvc	r0, r0, #1
     25c:	746e6565 	strbtvc	r6, [lr], #-1381	; 0xfffffa9b
     260:	0200682e 	andeq	r6, r0, #3014656	; 0x2e0000
     264:	70720000 	rsbsvc	r0, r2, r0
     268:	00682e69 	rsbeq	r2, r8, r9, ror #28
     26c:	73000003 	movwvc	r0, #3
     270:	6e697274 	mcrvs	2, 3, r7, cr9, cr4, {3}
     274:	00682e67 	rsbeq	r2, r8, r7, ror #28
     278:	6c000004 	stcvs	0, cr0, [r0], {4}
     27c:	2d636269 	sfmcs	f6, 2, [r3, #-420]!	; 0xfffffe5c
     280:	72747865 	rsbsvc	r7, r4, #6619136	; 0x650000
     284:	00682e61 	rsbeq	r2, r8, r1, ror #28
     288:	00000005 	andeq	r0, r0, r5
     28c:	05002205 	streq	r2, [r0, #-517]	; 0xfffffdfb
     290:	0080e002 	addeq	lr, r0, r2
     294:	01120300 	tsteq	r2, r0, lsl #6
     298:	05012405 	streq	r2, [r1, #-1029]	; 0xfffffbfb
     29c:	2e010601 	cfmadd32cs	mvax0, mvfx0, mvfx1, mvfx1
     2a0:	30062405 	andcc	r2, r6, r5, lsl #8
     2a4:	26050106 	strcs	r0, [r5], -r6, lsl #2
     2a8:	2d052e06 	stccs	14, cr2, [r5, #-24]	; 0xffffffe8
     2ac:	01050106 	tsteq	r5, r6, lsl #2
     2b0:	0622052e 	strteq	r0, [r2], -lr, lsr #10
     2b4:	0501064c 	streq	r0, [r1, #-1612]	; 0xfffff9b4
     2b8:	054a0624 	strbeq	r0, [sl, #-1572]	; 0xfffff9dc
     2bc:	0501062b 	streq	r0, [r1, #-1579]	; 0xfffff9d5
     2c0:	01052e3d 	tsteq	r5, sp, lsr lr
     2c4:	0628052e 	strteq	r0, [r8], -lr, lsr #10
     2c8:	012a054c 			; <UNDEFINED> instruction: 0x012a054c
     2cc:	01063c05 	tsteq	r6, r5, lsl #24
     2d0:	052e0105 	streq	r0, [lr, #-261]!	; 0xfffffefb
     2d4:	054d0629 	strbeq	r0, [sp, #-1577]	; 0xfffff9d7
     2d8:	01051305 	tsteq	r5, r5, lsl #6
     2dc:	052e1306 	streq	r1, [lr, #-774]!	; 0xfffffcfa
     2e0:	23030642 	movwcs	r0, #13890	; 0x3642
     2e4:	0501062e 	streq	r0, [r1, #-1582]	; 0xfffff9d2
     2e8:	13670605 	cmnne	r7, #5242880	; 0x500000
     2ec:	01060b05 	tsteq	r6, r5, lsl #22
     2f0:	02001005 	andeq	r1, r0, #5
     2f4:	2e060104 	adfcss	f0, f6, f4
     2f8:	02000505 	andeq	r0, r0, #20971520	; 0x1400000
     2fc:	01060104 	tsteq	r6, r4, lsl #2
     300:	4b060905 	blmi	18271c <__bss_end__+0x17871c>
     304:	01060d05 	tsteq	r6, r5, lsl #26
     308:	052e0b05 	streq	r0, [lr, #-2821]!	; 0xfffff4fb
     30c:	0402001c 	streq	r0, [r2], #-28	; 0xffffffe4
     310:	052d0602 	streq	r0, [sp, #-1538]!	; 0xfffff9fe
     314:	0402001d 	streq	r0, [r2], #-29	; 0xffffffe3
     318:	00010602 	andeq	r0, r1, r2, lsl #12
     31c:	2e020402 	cdpcs	4, 0, cr0, cr2, cr2, {0}
     320:	30060d05 	andcc	r0, r6, r5, lsl #26
     324:	01062405 	tsteq	r6, r5, lsl #8
     328:	2e1a052e 	cfmul64cs	mvdx0, mvdx10, mvdx14
     32c:	052e1105 	streq	r1, [lr, #-261]!	; 0xfffffefb
     330:	012f060d 			; <UNDEFINED> instruction: 0x012f060d
     334:	014a6601 	cmpeq	sl, r1, lsl #12
     338:	05020482 	streq	r0, [r2, #-1154]	; 0xfffffb7e
     33c:	010f0314 	tsteq	pc, r4, lsl r3	; <UNPREDICTABLE>
     340:	01130505 	tsteq	r3, r5, lsl #10
     344:	1313664a 	tstne	r3, #77594624	; 0x4a00000
     348:	01060905 	tsteq	r6, r5, lsl #18
     34c:	052e0705 	streq	r0, [lr, #-1797]!	; 0xfffff8fb
     350:	014b0609 	cmpeq	fp, r9, lsl #12
     354:	05059e4a 	streq	r9, [r5, #-3658]	; 0xfffff1b6
     358:	09051314 	stmdbeq	r5, {r2, r4, r8, r9, ip}
     35c:	07050106 	streq	r0, [r5, -r6, lsl #2]
     360:	0609052e 	streq	r0, [r9], -lr, lsr #10
     364:	0401064b 	streq	r0, [r1], #-1611	; 0xfffff9b5
     368:	060d0501 	streq	r0, [sp], -r1, lsl #10
     36c:	13016903 	movwne	r6, #6403	; 0x1903
     370:	134a4a01 	movtne	r4, #43521	; 0xaa01
     374:	01061405 	tsteq	r6, r5, lsl #8
     378:	1e050204 	cdpne	2, 0, cr0, cr5, cr4, {0}
     37c:	054a1403 	strbeq	r1, [sl, #-1027]	; 0xfffffbfd
     380:	09052e1a 	stmdbeq	r5, {r1, r3, r4, r9, sl, fp, sp}
     384:	4a014b06 	bmi	52fa4 <__bss_end__+0x48fa4>
     388:	0104ba06 	tsteq	r4, r6, lsl #20
     38c:	6f030c05 	svcvs	0x00030c05
     390:	2f010501 	svccs	0x00010501
     394:	f4063005 	vst4.8	{d3-d6}, [r6], r5
     398:	05050106 	streq	r0, [r5, #-262]	; 0xfffffefa
     39c:	2e064b06 	vmlacs.f64	d4, d6, d6
     3a0:	052f0105 	streq	r0, [pc, #-261]!	; 2a3 <_start-0x7d5d>
     3a4:	50030625 	andpl	r0, r3, r5, lsr #12
     3a8:	0501062e 	streq	r0, [r1, #-1582]	; 0xfffff9d2
     3ac:	054b0605 	strbeq	r0, [fp, #-1541]	; 0xfffff9fb
     3b0:	0501060e 	streq	r0, [r1, #-1550]	; 0xfffff9f2
     3b4:	052f0605 	streq	r0, [pc, #-1541]!	; fffffdb7 <__bss_end__+0xffff5db7>
     3b8:	0501060e 	streq	r0, [r1, #-1550]	; 0xfffff9f2
     3bc:	054b0605 	strbeq	r0, [fp, #-1541]	; 0xfffff9fb
     3c0:	05010616 	streq	r0, [r1, #-1558]	; 0xfffff9ea
     3c4:	054b0605 	strbeq	r0, [fp, #-1541]	; 0xfffff9fb
     3c8:	0501060e 	streq	r0, [r1, #-1550]	; 0xfffff9f2
     3cc:	052f0605 	streq	r0, [pc, #-1541]!	; fffffdcf <__bss_end__+0xffff5dcf>
     3d0:	05130601 	ldreq	r0, [r3, #-1537]	; 0xfffff9ff
     3d4:	06310620 	ldrteq	r0, [r1], -r0, lsr #12
     3d8:	06050501 	streq	r0, [r5], -r1, lsl #10
     3dc:	060c054b 	streq	r0, [ip], -fp, asr #10
     3e0:	2e1f0501 	cfmul32cs	mvfx0, mvfx15, mvfx1
     3e4:	052e0905 	streq	r0, [lr, #-2309]!	; 0xfffff6fb
     3e8:	04020039 	streq	r0, [r2], #-57	; 0xffffffc7
     3ec:	44054a01 	strmi	r4, [r5], #-2561	; 0xfffff5ff
     3f0:	01040200 	mrseq	r0, R12_usr
     3f4:	0035052e 	eorseq	r0, r5, lr, lsr #10
     3f8:	2e010402 	cdpcs	4, 0, cr0, cr1, cr2, {0}
     3fc:	4c060905 			; <UNDEFINED> instruction: 0x4c060905
     400:	4a660101 	bmi	198080c <__bss_end__+0x197680c>
     404:	02048201 	andeq	r8, r4, #268435456	; 0x10000000
     408:	28031405 	stmdacs	r3, {r0, r2, sl, ip}
     40c:	13050501 	movwne	r0, #21761	; 0x5501
     410:	13664a01 	cmnne	r6, #4096	; 0x1000
     414:	06090513 			; <UNDEFINED> instruction: 0x06090513
     418:	2e070501 	cfsh32cs	mvfx0, mvfx7, #1
     41c:	4b060905 	blmi	182838 <__bss_end__+0x178838>
     420:	059e4a01 	ldreq	r4, [lr, #2561]	; 0xa01
     424:	05131405 	ldreq	r1, [r3, #-1029]	; 0xfffffbfb
     428:	05010609 	streq	r0, [r1, #-1545]	; 0xfffff9f7
     42c:	09052e07 	stmdbeq	r5, {r0, r1, r2, r9, sl, fp, sp}
     430:	01044b06 	tsteq	r4, r6, lsl #22
     434:	03061005 	movweq	r1, #24581	; 0x6005
     438:	02040151 	andeq	r0, r4, #1073741844	; 0x40000014
     43c:	30030105 	andcc	r0, r3, r5, lsl #2
     440:	2c1e052e 	cfldr32cs	mvfx0, [lr], {46}	; 0x2e
     444:	052e1a05 	streq	r1, [lr, #-2565]!	; 0xfffff5fb
     448:	014b0609 	cmpeq	fp, r9, lsl #12
     44c:	04ba064a 	ldrteq	r0, [sl], #1610	; 0x64a
     450:	030c0501 	movweq	r0, #50433	; 0xc501
     454:	01050154 	tsteq	r5, r4, asr r1
     458:	063a052f 	ldrteq	r0, [sl], -pc, lsr #10
     45c:	050106d8 	streq	r0, [r1, #-1752]	; 0xfffff928
     460:	13670605 	cmnne	r7, #5242880	; 0x500000
     464:	01060b05 	tsteq	r6, r5, lsl #22
     468:	02001005 	andeq	r1, r0, #5
     46c:	2e060104 	adfcss	f0, f6, f4
     470:	02000505 	andeq	r0, r0, #20971520	; 0x1400000
     474:	01060104 	tsteq	r6, r4, lsl #2
     478:	4b060905 	blmi	182894 <__bss_end__+0x178894>
     47c:	01060d05 	tsteq	r6, r5, lsl #26
     480:	052e0b05 	streq	r0, [lr, #-2821]!	; 0xfffff4fb
     484:	0402001c 	streq	r0, [r2], #-28	; 0xffffffe4
     488:	052d0602 	streq	r0, [sp, #-1538]!	; 0xfffff9fe
     48c:	0402001d 	streq	r0, [r2], #-29	; 0xffffffe3
     490:	00010602 	andeq	r0, r1, r2, lsl #12
     494:	2e020402 	cdpcs	4, 0, cr0, cr2, cr2, {0}
     498:	30060d05 	andcc	r0, r6, r5, lsl #26
     49c:	01062405 	tsteq	r6, r5, lsl #8
     4a0:	2e1a052e 	cfmul64cs	mvdx0, mvdx10, mvdx14
     4a4:	052e1105 	streq	r1, [lr, #-261]!	; 0xfffffefb
     4a8:	012f060d 			; <UNDEFINED> instruction: 0x012f060d
     4ac:	014a6601 	cmpeq	sl, r1, lsl #12
     4b0:	0502049e 	streq	r0, [r2, #-1182]	; 0xfffffb62
     4b4:	011c0314 	tsteq	ip, r4, lsl r3
     4b8:	01130505 	tsteq	r3, r5, lsl #10
     4bc:	1313664a 	tstne	r3, #77594624	; 0x4a00000
     4c0:	01060905 	tsteq	r6, r5, lsl #18
     4c4:	052e0705 	streq	r0, [lr, #-1797]!	; 0xfffff8fb
     4c8:	014b0609 	cmpeq	fp, r9, lsl #12
     4cc:	05059e4a 	streq	r9, [r5, #-3658]	; 0xfffff1b6
     4d0:	09051314 	stmdbeq	r5, {r2, r4, r8, r9, ip}
     4d4:	07050106 	streq	r0, [r5, -r6, lsl #2]
     4d8:	0609052e 	streq	r0, [r9], -lr, lsr #10
     4dc:	0501044b 	streq	r0, [r1, #-1099]	; 0xfffffbb5
     4e0:	5d030614 	stcpl	6, cr0, [r3, #-80]	; 0xffffffb0
     4e4:	05020401 	streq	r0, [r2, #-1025]	; 0xfffffbff
     4e8:	2e240301 	cdpcs	3, 2, cr0, cr4, cr1, {0}
     4ec:	052c1e05 	streq	r1, [ip, #-3589]!	; 0xfffff1fb
     4f0:	09052e1a 	stmdbeq	r5, {r1, r3, r4, r9, sl, fp, sp}
     4f4:	4a014b06 	bmi	53114 <__bss_end__+0x49114>
     4f8:	0104ba06 	tsteq	r4, r6, lsl #20
     4fc:	61030c05 	tstvs	r3, r5, lsl #24
     500:	2f010501 	svccs	0x00010501
     504:	03062205 	movweq	r2, #25093	; 0x6205
     508:	0106d61a 	tsteq	r6, sl, lsl r6
     50c:	4c060505 	cfstr32mi	mvfx0, [r6], {5}
     510:	01060c05 	tsteq	r6, r5, lsl #24
     514:	05300905 	ldreq	r0, [r0, #-2309]!	; 0xfffff6fb
     518:	0c054916 			; <UNDEFINED> instruction: 0x0c054916
     51c:	6609054a 	strvs	r0, [r9], -sl, asr #10
     520:	02001605 	andeq	r1, r0, #5242880	; 0x500000
     524:	054b0304 	strbeq	r0, [fp, #-772]	; 0xfffffcfc
     528:	0402000c 	streq	r0, [r2], #-12
     52c:	09056603 	stmdbeq	r5, {r0, r1, r9, sl, sp, lr}
     530:	03040200 	movweq	r0, #16896	; 0x4200
     534:	01054aba 			; <UNDEFINED> instruction: 0x01054aba
     538:	0627052f 	strteq	r0, [r7], -pc, lsr #10
     53c:	2e7fab03 	vaddcs.f64	d26, d15, d3
     540:	05050106 	streq	r0, [r5, #-262]	; 0xfffffefa
     544:	00012f06 	andeq	r2, r1, r6, lsl #30
     548:	ba020402 	blt	81558 <__bss_end__+0x77558>
     54c:	02040200 	andeq	r0, r4, #0, 4
     550:	04020001 	streq	r0, [r2], #-1
     554:	02001302 	andeq	r1, r0, #134217728	; 0x8000000
     558:	4a060204 	bmi	180d70 <__bss_end__+0x176d70>
     55c:	02040200 	andeq	r0, r4, #0, 4
     560:	0402002e 	streq	r0, [r2], #-46	; 0xffffffd2
     564:	052f0602 	streq	r0, [pc, #-1538]!	; ffffff6a <__bss_end__+0xffff5f6a>
     568:	04020017 	streq	r0, [r2], #-23	; 0xffffffe9
     56c:	05010602 	streq	r0, [r1, #-1538]	; 0xfffff9fe
     570:	0402000a 	streq	r0, [r2], #-10
     574:	05054a02 	streq	r4, [r5, #-2562]	; 0xfffff5fe
     578:	02040200 	andeq	r0, r4, #0, 4
     57c:	15052f06 	strne	r2, [r5, #-3846]	; 0xfffff0fa
     580:	02040200 	andeq	r0, r4, #0, 4
     584:	0e050106 	adfeqs	f0, f5, f6
     588:	02040200 	andeq	r0, r4, #0, 4
     58c:	0001052e 	andeq	r0, r1, lr, lsr #10
     590:	2f020402 	svccs	0x00020402
     594:	02000505 	andeq	r0, r0, #20971520	; 0x1400000
     598:	2a060104 	bcs	1809b0 <__bss_end__+0x1769b0>
     59c:	01040200 	mrseq	r0, R12_usr
     5a0:	04020001 	streq	r0, [r2], #-1
     5a4:	02002e01 	andeq	r2, r0, #1, 28
     5a8:	059e0104 	ldreq	r0, [lr, #260]	; 0x104
     5ac:	00e70350 	rsceq	r0, r7, r0, asr r3
     5b0:	050106ba 	streq	r0, [r1, #-1722]	; 0xfffff946
     5b4:	059f0605 	ldreq	r0, [pc, #1541]	; bc1 <_start-0x743f>
     5b8:	05010610 	streq	r0, [r1, #-1552]	; 0xfffff9f0
     5bc:	01300605 	teqeq	r0, r5, lsl #12
     5c0:	02040200 	andeq	r0, r4, #0, 4
     5c4:	0402009e 	streq	r0, [r2], #-158	; 0xffffff62
     5c8:	02001302 	andeq	r1, r0, #134217728	; 0x8000000
     5cc:	00010204 	andeq	r0, r1, r4, lsl #4
     5d0:	06020402 	streq	r0, [r2], -r2, lsl #8
     5d4:	0402002e 	streq	r0, [r2], #-46	; 0xffffffd2
     5d8:	002e0602 	eoreq	r0, lr, r2, lsl #12
     5dc:	66020402 	strvs	r0, [r2], -r2, lsl #8
     5e0:	02040200 	andeq	r0, r4, #0, 4
     5e4:	000a0513 	andeq	r0, sl, r3, lsl r5
     5e8:	06020402 	streq	r0, [r2], -r2, lsl #8
     5ec:	00080501 	andeq	r0, r8, r1, lsl #10
     5f0:	4a020402 	bmi	81600 <__bss_end__+0x77600>
     5f4:	4c060505 	cfstr32mi	mvfx0, [r6], {5}
     5f8:	01061105 	tsteq	r6, r5, lsl #2
     5fc:	6b060505 	blvs	181a18 <__bss_end__+0x177a18>
     600:	01060e05 	tsteq	r6, r5, lsl #28
     604:	4b060505 	blmi	181a20 <__bss_end__+0x177a20>
     608:	06100583 	ldreq	r0, [r0], -r3, lsl #11
     60c:	4a0e0501 	bmi	381a18 <__bss_end__+0x377a18>
     610:	052f0105 	streq	r0, [pc, #-261]!	; 513 <_start-0x7aed>
     614:	04020005 	streq	r0, [r2], #-5
     618:	74030601 	strvc	r0, [r3], #-1537	; 0xfffff9ff
     61c:	0402002e 	streq	r0, [r2], #-46	; 0xffffffd2
     620:	02002e01 	andeq	r2, r0, #1, 28
     624:	059e0104 	ldreq	r0, [lr, #260]	; 0x104
     628:	d60f0357 			; <UNDEFINED> instruction: 0xd60f0357
     62c:	05050106 	streq	r0, [r5, #-262]	; 0xfffffefa
     630:	14136706 	ldrne	r6, [r3], #-1798	; 0xfffff8fa
     634:	002e0601 	eoreq	r0, lr, r1, lsl #12
     638:	06020402 	streq	r0, [r2], -r2, lsl #8
     63c:	040200ba 	streq	r0, [r2], #-186	; 0xffffff46
     640:	02001302 	andeq	r1, r0, #134217728	; 0x8000000
     644:	00010204 	andeq	r0, r1, r4, lsl #4
     648:	06020402 	streq	r0, [r2], -r2, lsl #8
     64c:	0402002e 	streq	r0, [r2], #-46	; 0xffffffd2
     650:	002e0602 	eoreq	r0, lr, r2, lsl #12
     654:	66020402 	strvs	r0, [r2], -r2, lsl #8
     658:	02040200 	andeq	r0, r4, #0, 4
     65c:	00140514 	andseq	r0, r4, r4, lsl r5
     660:	06020402 	streq	r0, [r2], -r2, lsl #8
     664:	000e0501 	andeq	r0, lr, r1, lsl #10
     668:	2e020402 	cdpcs	4, 0, cr0, cr2, cr2, {0}
     66c:	02000505 	andeq	r0, r0, #20971520	; 0x1400000
     670:	2f060204 	svccs	0x00060204
     674:	02000e05 	andeq	r0, r0, #5, 28	; 0x50
     678:	01060204 	tsteq	r6, r4, lsl #4
     67c:	02000505 	andeq	r0, r0, #20971520	; 0x1400000
     680:	31060204 	tstcc	r6, r4, lsl #4
     684:	02000705 	andeq	r0, r0, #1310720	; 0x140000
     688:	01060204 	tsteq	r6, r4, lsl #4
     68c:	4b060905 	blmi	182aa8 <__bss_end__+0x178aa8>
     690:	14050501 	strne	r0, [r5], #-1281	; 0xfffffaff
     694:	01060e05 	tsteq	r6, r5, lsl #28
     698:	05661305 	strbeq	r1, [r6, #-773]!	; 0xfffffcfb
     69c:	09052e07 	stmdbeq	r5, {r0, r1, r2, r9, sl, fp, sp}
     6a0:	05014b06 	streq	r4, [r1, #-2822]	; 0xfffff4fa
     6a4:	05131505 	ldreq	r1, [r3, #-1285]	; 0xfffffafb
     6a8:	05010615 	streq	r0, [r1, #-1557]	; 0xfffff9eb
     6ac:	052f0605 	streq	r0, [pc, #-1541]!	; af <_start-0x7f51>
     6b0:	05010619 	streq	r0, [r1, #-1561]	; 0xfffff9e7
     6b4:	05052e13 	streq	r2, [r5, #-3603]	; 0xfffff1ed
     6b8:	0e052f06 	cdpeq	15, 0, cr2, cr5, cr6, {0}
     6bc:	05050106 	streq	r0, [r5, #-262]	; 0xfffffefa
     6c0:	12054b06 	andne	r4, r5, #6144	; 0x1800
     6c4:	05050106 	streq	r0, [r5, #-262]	; 0xfffffefa
     6c8:	13056706 	movwne	r6, #22278	; 0x5706
     6cc:	05050106 	streq	r0, [r5, #-262]	; 0xfffffefa
     6d0:	14054b06 	strne	r4, [r5], #-2822	; 0xfffff4fa
     6d4:	05050106 	streq	r0, [r5, #-262]	; 0xfffffefa
     6d8:	06834b06 	streq	r4, [r3], r6, lsl #22
     6dc:	059f0666 	ldreq	r0, [pc, #1638]	; d4a <_start-0x72b6>
     6e0:	05010610 	streq	r0, [r1, #-1552]	; 0xfffff9f0
     6e4:	05054a0e 	streq	r4, [r5, #-2574]	; 0xfffff5f2
     6e8:	0a053006 	beq	14c708 <__bss_end__+0x142708>
     6ec:	05050106 	streq	r0, [r5, #-262]	; 0xfffffefa
     6f0:	00018306 	andeq	r8, r1, r6, lsl #6
     6f4:	82020402 	andhi	r0, r2, #33554432	; 0x2000000
     6f8:	02040200 	andeq	r0, r4, #0, 4
     6fc:	04020001 	streq	r0, [r2], #-1
     700:	0b051302 	bleq	145310 <__bss_end__+0x13b310>
     704:	02040200 	andeq	r0, r4, #0, 4
     708:	05050106 	streq	r0, [r5, #-262]	; 0xfffffefa
     70c:	02040200 	andeq	r0, r4, #0, 4
     710:	02006706 	andeq	r6, r0, #1572864	; 0x180000
     714:	00010204 	andeq	r0, r1, r4, lsl #4
     718:	06020402 	streq	r0, [r2], -r2, lsl #8
     71c:	0402002e 	streq	r0, [r2], #-46	; 0xffffffd2
     720:	002e0602 	eoreq	r0, lr, r2, lsl #12
     724:	9e020402 	cdpls	4, 0, cr0, cr2, cr2, {0}
     728:	02040200 	andeq	r0, r4, #0, 4
     72c:	00010513 	andeq	r0, r1, r3, lsl r5
     730:	06020402 	streq	r0, [r2], -r2, lsl #8
     734:	00050513 	andeq	r0, r5, r3, lsl r5
     738:	06010402 	streq	r0, [r1], -r2, lsl #8
     73c:	00666203 	rsbeq	r6, r6, r3, lsl #4
     740:	2e010402 	cdpcs	4, 0, cr0, cr1, cr2, {0}
     744:	01040200 	mrseq	r0, R12_usr
     748:	3609059e 			; <UNDEFINED> instruction: 0x3609059e
     74c:	062e0601 	strteq	r0, [lr], -r1, lsl #12
     750:	2e01662e 	cfmadd32cs	mvax1, mvfx6, mvfx1, mvfx14
     754:	060131ba 			; <UNDEFINED> instruction: 0x060131ba
     758:	d62e062e 	strtle	r0, [lr], -lr, lsr #12
     75c:	3c082e01 	stccc	14, cr2, [r8], {1}
     760:	02000505 	andeq	r0, r0, #20971520	; 0x1400000
     764:	0f030104 	svceq	0x00030104
     768:	0402002e 	streq	r0, [r2], #-46	; 0xffffffd2
     76c:	02000101 	andeq	r0, r0, #1073741824	; 0x40000000
     770:	002e0104 	eoreq	r0, lr, r4, lsl #2
     774:	9e010402 	cdpls	4, 0, cr0, cr1, cr2, {0}
     778:	09031a05 	stmdbeq	r3, {r0, r2, r9, fp, ip}
     77c:	0505ac08 	streq	sl, [r5, #-3080]	; 0xfffff3f8
     780:	061d052f 	ldreq	r0, [sp], -pc, lsr #10
     784:	06050501 	streq	r0, [r5], -r1, lsl #10
     788:	061e0583 	ldreq	r0, [lr], -r3, lsl #11
     78c:	06050501 	streq	r0, [r5], -r1, lsl #10
     790:	824a014c 	subhi	r0, sl, #76, 2
     794:	05151314 	ldreq	r1, [r5, #-788]	; 0xfffffcec
     798:	1105010a 	tstne	r5, sl, lsl #2
     79c:	052e0106 	streq	r0, [lr, #-262]!	; 0xfffffefa
     7a0:	052d0f0e 	streq	r0, [sp, #-3854]!	; 0xfffff0f2
     7a4:	0d053205 	sfmeq	f3, 4, [r5, #-20]	; 0xffffffec
     7a8:	14053306 	strne	r3, [r5], #-774	; 0xfffffcfa
     7ac:	0d050106 	stfeqs	f0, [r5, #-24]	; 0xffffffe8
     7b0:	12052f06 	andne	r2, r5, #6, 30
     7b4:	0d050106 	stfeqs	f0, [r5, #-24]	; 0xffffffe8
     7b8:	01062f06 	tsteq	r6, r6, lsl #30
     7bc:	03060505 	movweq	r0, #25861	; 0x6505
     7c0:	0705010f 	streq	r0, [r5, -pc, lsl #2]
     7c4:	09050106 	stmdbeq	r5, {r1, r2, r8}
     7c8:	4a014b06 	bmi	533e8 <__bss_end__+0x493e8>
     7cc:	04020082 	streq	r0, [r2], #-130	; 0xffffff7e
     7d0:	05051401 	streq	r1, [r5, #-1025]	; 0xfffffbff
     7d4:	01040200 	mrseq	r0, R12_usr
     7d8:	00010513 	andeq	r0, r1, r3, lsl r5
     7dc:	06010402 	streq	r0, [r1], -r2, lsl #8
     7e0:	060d0513 			; <UNDEFINED> instruction: 0x060d0513
     7e4:	054a7003 	strbeq	r7, [sl, #-3]
     7e8:	05010614 	streq	r0, [r1, #-1556]	; 0xfffff9ec
     7ec:	05350609 	ldreq	r0, [r5, #-1545]!	; 0xfffff9f7
     7f0:	0501060e 	streq	r0, [r1, #-1550]	; 0xfffff9f2
     7f4:	6f03060a 	svcvs	0x0003060a
     7f8:	0633052e 	ldrteq	r0, [r3], -lr, lsr #10
     7fc:	2e490501 	cdpcs	5, 4, cr0, cr9, cr1, {0}
     800:	052e4205 	streq	r4, [lr, #-517]!	; 0xfffffdfb
     804:	10052e56 	andne	r2, r5, r6, asr lr
     808:	002f052e 	eoreq	r0, pc, lr, lsr #10
     80c:	06010402 	streq	r0, [r1], -r2, lsl #8
     810:	0037052d 	eorseq	r0, r7, sp, lsr #10
     814:	06010402 	streq	r0, [r1], -r2, lsl #8
     818:	00050501 	andeq	r0, r5, r1, lsl #10
     81c:	4a010402 	bmi	4182c <__bss_end__+0x3782c>
     820:	4d060905 	vstrmi.16	s0, [r6, #-10]	; <UNPREDICTABLE>
     824:	01060e05 	tsteq	r6, r5, lsl #28
     828:	054a0c05 	strbeq	r0, [sl, #-3077]	; 0xfffff3fb
     82c:	05510609 	ldrbeq	r0, [r1, #-1545]	; 0xfffff9f7
     830:	05010618 	streq	r0, [r1, #-1560]	; 0xfffff9e8
     834:	0c054a0e 			; <UNDEFINED> instruction: 0x0c054a0e
     838:	00480566 	subeq	r0, r8, r6, ror #10
     83c:	4a010402 	bmi	4184c <__bss_end__+0x3784c>
     840:	02003e05 	andeq	r3, r0, #5, 28	; 0x50
     844:	05660104 	strbeq	r0, [r6, #-260]!	; 0xfffffefc
     848:	0402003a 	streq	r0, [r2], #-58	; 0xffffffc6
     84c:	0e05ba01 	vmlaeq.f32	s22, s10, s2
     850:	17054c06 	strne	r4, [r5, -r6, lsl #24]
     854:	11050106 	tstne	r5, r6, lsl #2
     858:	060d052e 	streq	r0, [sp], -lr, lsr #10
     85c:	0624054c 	strteq	r0, [r4], -ip, asr #10
     860:	4a120501 	bmi	481c6c <__bss_end__+0x477c6c>
     864:	05661005 	strbeq	r1, [r6, #-5]!
     868:	052f0611 	streq	r0, [pc, #-1553]!	; 25f <_start-0x7da1>
     86c:	2e010618 	mcrcs	6, 0, r0, cr1, cr8, {0}
     870:	0609052e 	streq	r0, [r9], -lr, lsr #10
     874:	01010a03 	tsteq	r1, r3, lsl #20
     878:	0012024a 	andseq	r0, r2, sl, asr #4
     87c:	023c0101 	eorseq	r0, ip, #1073741824	; 0x40000000
     880:	00030000 	andeq	r0, r3, r0
     884:	000000d4 	ldrdeq	r0, [r0], -r4
     888:	0efb0102 	cdpeq	1, 15, cr0, cr11, cr2, {0}
     88c:	0101000d 	tsteq	r1, sp
     890:	00000101 	andeq	r0, r0, r1, lsl #2
     894:	00000100 	andeq	r0, r0, r0, lsl #2
     898:	62696c01 	rsbvs	r6, r9, #256	; 0x100
     89c:	752f0063 	strvc	r0, [pc, #-99]!	; 841 <_start-0x77bf>
     8a0:	6c2f7273 	sfmvs	f7, 4, [pc], #-460	; 6dc <_start-0x7924>
     8a4:	672f6269 	strvs	r6, [pc, -r9, ror #4]!
     8a8:	612f6363 			; <UNDEFINED> instruction: 0x612f6363
     8ac:	6e2d6d72 	mcrvs	13, 1, r6, cr13, cr2, {3}
     8b0:	2d656e6f 	stclcs	14, cr6, [r5, #-444]!	; 0xfffffe44
     8b4:	69626165 	stmdbvs	r2!, {r0, r2, r5, r6, r8, sp, lr}^
     8b8:	322e392f 	eorcc	r3, lr, #770048	; 0xbc000
     8bc:	692f302e 	stmdbvs	pc!, {r1, r2, r3, r5, ip, sp}	; <UNPREDICTABLE>
     8c0:	756c636e 	strbvc	r6, [ip, #-878]!	; 0xfffffc92
     8c4:	2f006564 	svccs	0x00006564
     8c8:	2f727375 	svccs	0x00727375
     8cc:	2d6d7261 	sfmcs	f7, 2, [sp, #-388]!	; 0xfffffe7c
     8d0:	656e6f6e 	strbvs	r6, [lr, #-3950]!	; 0xfffff092
     8d4:	6261652d 	rsbvs	r6, r1, #188743680	; 0xb400000
     8d8:	6e692f69 	cdpvs	15, 6, cr2, cr9, cr9, {3}
     8dc:	64756c63 	ldrbtvs	r6, [r5], #-3171	; 0xfffff39d
     8e0:	79732f65 	ldmdbvc	r3!, {r0, r2, r5, r6, r8, r9, sl, fp, sp}^
     8e4:	682f0073 	stmdavs	pc!, {r0, r1, r4, r5, r6}	; <UNPREDICTABLE>
     8e8:	2f656d6f 	svccs	0x00656d6f
     8ec:	72657375 	rsbvc	r7, r5, #-738197503	; 0xd4000001
     8f0:	7665442f 	strbtvc	r4, [r5], -pc, lsr #8
     8f4:	3253432f 	subscc	r4, r3, #-1140850688	; 0xbc000000
     8f8:	2f583034 	svccs	0x00583034
     8fc:	7062696c 	rsbvc	r6, r2, ip, ror #18
     900:	6e692f69 	cdpvs	15, 6, cr2, cr9, cr9, {3}
     904:	64756c63 	ldrbtvs	r6, [r5], #-3171	; 0xfffff39d
     908:	68000065 	stmdavs	r0, {r0, r2, r5, r6}
     90c:	2e687361 	cdpcs	3, 6, cr7, cr8, cr1, {3}
     910:	00010063 	andeq	r0, r1, r3, rrx
     914:	64747300 	ldrbtvs	r7, [r4], #-768	; 0xfffffd00
     918:	2d746e69 	ldclcs	14, cr6, [r4, #-420]!	; 0xfffffe5c
     91c:	2e636367 	cdpcs	3, 6, cr6, cr3, cr7, {3}
     920:	00020068 	andeq	r0, r2, r8, rrx
     924:	636f6c00 	cmnvs	pc, #0, 24
     928:	00682e6b 	rsbeq	r2, r8, fp, ror #28
     92c:	5f000003 	svcpl	0x00000003
     930:	65707974 	ldrbvs	r7, [r0, #-2420]!	; 0xfffff68c
     934:	00682e73 	rsbeq	r2, r8, r3, ror lr
     938:	73000003 	movwvc	r0, #3
     93c:	65646474 	strbvs	r6, [r4, #-1140]!	; 0xfffffb8c
     940:	00682e66 	rsbeq	r2, r8, r6, ror #28
     944:	72000002 	andvc	r0, r0, #2
     948:	746e6565 	strbtvc	r6, [lr], #-1381	; 0xfffffa9b
     94c:	0300682e 	movweq	r6, #2094	; 0x82e
     950:	70720000 	rsbsvc	r0, r2, r0
     954:	00682e69 	rsbeq	r2, r8, r9, ror #28
     958:	00000004 	andeq	r0, r0, r4
     95c:	05003105 	streq	r3, [r0, #-261]	; 0xfffffefb
     960:	00894802 	addeq	r4, r9, r2, lsl #16
     964:	010e0300 	mrseq	r0, ELR_hyp
     968:	05130505 	ldreq	r0, [r3, #-1285]	; 0xfffffafb
     96c:	05131301 	ldreq	r1, [r3, #-769]	; 0xfffffcff
     970:	08051405 	stmdaeq	r5, {r0, r2, sl, ip}
     974:	31050106 	tstcc	r5, r6, lsl #2
     978:	06050561 	streq	r0, [r5], -r1, ror #10
     97c:	0609056d 	streq	r0, [r9], -sp, ror #10
     980:	06050501 	streq	r0, [r5], -r1, lsl #10
     984:	0609052f 	streq	r0, [r9], -pc, lsr #10
     988:	06050501 	streq	r0, [r5], -r1, lsl #10
     98c:	000b0531 	andeq	r0, fp, r1, lsr r5
     990:	01010402 	tsteq	r1, r2, lsl #8
     994:	02000505 	andeq	r0, r0, #20971520	; 0x1400000
     998:	01060104 	tsteq	r6, r4, lsl #2
     99c:	02000905 	andeq	r0, r0, #81920	; 0x14000
     9a0:	4b060204 	blmi	1811b8 <__bss_end__+0x1771b8>
     9a4:	02001205 	andeq	r1, r0, #1342177280	; 0x50000000
     9a8:	01060204 	tsteq	r6, r4, lsl #4
     9ac:	02000f05 	andeq	r0, r0, #5, 30
     9b0:	05660204 	strbeq	r0, [r6, #-516]!	; 0xfffffdfc
     9b4:	04020009 	streq	r0, [r2], #-9
     9b8:	052f0602 	streq	r0, [pc, #-1538]!	; 3be <_start-0x7c42>
     9bc:	04020013 	streq	r0, [r2], #-19	; 0xffffffed
     9c0:	05010602 	streq	r0, [r1, #-1538]	; 0xfffff9fe
     9c4:	04020010 	streq	r0, [r2], #-16
     9c8:	09056602 	stmdbeq	r5, {r1, r9, sl, sp, lr}
     9cc:	02040200 	andeq	r0, r4, #0, 4
     9d0:	10052f06 	andne	r2, r5, r6, lsl #30
     9d4:	02040200 	andeq	r0, r4, #0, 4
     9d8:	09050106 	stmdbeq	r5, {r1, r2, r8}
     9dc:	02040200 	andeq	r0, r4, #0, 4
     9e0:	0f052f06 	svceq	0x00052f06
     9e4:	02040200 	andeq	r0, r4, #0, 4
     9e8:	09050106 	stmdbeq	r5, {r1, r2, r8}
     9ec:	02040200 	andeq	r0, r4, #0, 4
     9f0:	0f052f06 	svceq	0x00052f06
     9f4:	02040200 	andeq	r0, r4, #0, 4
     9f8:	14050106 	strne	r0, [r5], #-262	; 0xfffffefa
     9fc:	02040200 	andeq	r0, r4, #0, 4
     a00:	17052906 	strne	r2, [r5, -r6, lsl #18]
     a04:	02040200 	andeq	r0, r4, #0, 4
     a08:	02000106 	andeq	r0, r0, #-2147483647	; 0x80000001
     a0c:	052e0204 	streq	r0, [lr, #-516]!	; 0xfffffdfc
     a10:	09030605 	stmdbeq	r3, {r0, r2, r9, sl}
     a14:	ba10032e 	blt	4016d4 <__bss_end__+0x3f76d4>
     a18:	01060a05 	tsteq	r6, r5, lsl #20
     a1c:	2f060505 	svccs	0x00060505
     a20:	01060a05 	tsteq	r6, r5, lsl #20
     a24:	2f060505 	svccs	0x00060505
     a28:	01060a05 	tsteq	r6, r5, lsl #20
     a2c:	2f060505 	svccs	0x00060505
     a30:	01060a05 	tsteq	r6, r5, lsl #20
     a34:	2f060505 	svccs	0x00060505
     a38:	01060a05 	tsteq	r6, r5, lsl #20
     a3c:	2f060505 	svccs	0x00060505
     a40:	01060a05 	tsteq	r6, r5, lsl #20
     a44:	30060505 	andcc	r0, r6, r5, lsl #10
     a48:	13060105 	movwne	r0, #24837	; 0x6105
     a4c:	03061105 	movweq	r1, #24837	; 0x6105
     a50:	19052e69 	stmdbne	r5, {r0, r3, r5, r6, r9, sl, fp, sp}
     a54:	052e0106 	streq	r0, [lr, #-262]!	; 0xfffffefa
     a58:	11054a16 	tstne	r5, r6, lsl sl
     a5c:	16052f06 	strne	r2, [r5], -r6, lsl #30
     a60:	11050106 	tstne	r5, r6, lsl #2
     a64:	1a052f06 	bne	14c684 <__bss_end__+0x142684>
     a68:	16050106 	strne	r0, [r5], -r6, lsl #2
     a6c:	0611052e 	ldreq	r0, [r1], -lr, lsr #10
     a70:	0616052f 	ldreq	r0, [r6], -pc, lsr #10
     a74:	06110501 	ldreq	r0, [r1], -r1, lsl #10
     a78:	19052f2f 	stmdbne	r5, {r0, r1, r2, r3, r5, r8, r9, sl, fp, sp}
     a7c:	052e0106 	streq	r0, [lr, #-262]!	; 0xfffffefa
     a80:	11054a16 	tstne	r5, r6, lsl sl
     a84:	16052f06 	strne	r2, [r5], -r6, lsl #30
     a88:	11050106 	tstne	r5, r6, lsl #2
     a8c:	16052f06 	strne	r2, [r5], -r6, lsl #30
     a90:	11050106 	tstne	r5, r6, lsl #2
     a94:	052f2f06 	streq	r2, [pc, #-3846]!	; fffffb96 <__bss_end__+0xffff5b96>
     a98:	05010619 	streq	r0, [r1, #-1561]	; 0xfffff9e7
     a9c:	11052e16 	tstne	r5, r6, lsl lr
     aa0:	16052f06 	strne	r2, [r5], -r6, lsl #30
     aa4:	11050106 	tstne	r5, r6, lsl #2
     aa8:	16052f06 	strne	r2, [r5], -r6, lsl #30
     aac:	052e0106 	streq	r0, [lr, #-262]!	; 0xfffffefa
     ab0:	2e65032a 	cdpcs	3, 6, cr0, cr5, cr10, {1}
     ab4:	27030105 	strcs	r0, [r3, -r5, lsl #2]
     ab8:	0002022e 	andeq	r0, r2, lr, lsr #4
     abc:	00f00101 	rscseq	r0, r0, r1, lsl #2
     ac0:	00030000 	andeq	r0, r3, r0
     ac4:	000000c0 	andeq	r0, r0, r0, asr #1
     ac8:	0efb0102 	cdpeq	1, 15, cr0, cr11, cr2, {0}
     acc:	0101000d 	tsteq	r1, sp
     ad0:	00000101 	andeq	r0, r0, r1, lsl #2
     ad4:	00000100 	andeq	r0, r0, r0, lsl #2
     ad8:	62696c01 	rsbvs	r6, r9, #256	; 0x100
     adc:	752f0063 	strvc	r0, [pc, #-99]!	; a81 <_start-0x757f>
     ae0:	6c2f7273 	sfmvs	f7, 4, [pc], #-460	; 91c <_start-0x76e4>
     ae4:	672f6269 	strvs	r6, [pc, -r9, ror #4]!
     ae8:	612f6363 			; <UNDEFINED> instruction: 0x612f6363
     aec:	6e2d6d72 	mcrvs	13, 1, r6, cr13, cr2, {3}
     af0:	2d656e6f 	stclcs	14, cr6, [r5, #-444]!	; 0xfffffe44
     af4:	69626165 	stmdbvs	r2!, {r0, r2, r5, r6, r8, sp, lr}^
     af8:	322e392f 	eorcc	r3, lr, #770048	; 0xbc000
     afc:	692f302e 	stmdbvs	pc!, {r1, r2, r3, r5, ip, sp}	; <UNPREDICTABLE>
     b00:	756c636e 	strbvc	r6, [ip, #-878]!	; 0xfffffc92
     b04:	2f006564 	svccs	0x00006564
     b08:	2f727375 	svccs	0x00727375
     b0c:	2d6d7261 	sfmcs	f7, 2, [sp, #-388]!	; 0xfffffe7c
     b10:	656e6f6e 	strbvs	r6, [lr, #-3950]!	; 0xfffff092
     b14:	6261652d 	rsbvs	r6, r1, #188743680	; 0xb400000
     b18:	6e692f69 	cdpvs	15, 6, cr2, cr9, cr9, {3}
     b1c:	64756c63 	ldrbtvs	r6, [r5], #-3171	; 0xfffff39d
     b20:	79732f65 	ldmdbvc	r3!, {r0, r2, r5, r6, r8, r9, sl, fp, sp}^
     b24:	752f0073 	strvc	r0, [pc, #-115]!	; ab9 <_start-0x7547>
     b28:	612f7273 			; <UNDEFINED> instruction: 0x612f7273
     b2c:	6e2d6d72 	mcrvs	13, 1, r6, cr13, cr2, {3}
     b30:	2d656e6f 	stclcs	14, cr6, [r5, #-444]!	; 0xfffffe44
     b34:	69626165 	stmdbvs	r2!, {r0, r2, r5, r6, r8, sp, lr}^
     b38:	636e692f 	cmnvs	lr, #770048	; 0xbc000
     b3c:	6564756c 	strbvs	r7, [r4, #-1388]!	; 0xfffffa94
     b40:	656d0000 	strbvs	r0, [sp, #-0]!
     b44:	7465736d 	strbtvc	r7, [r5], #-877	; 0xfffffc93
     b48:	0100632e 	tsteq	r0, lr, lsr #6
     b4c:	74730000 	ldrbtvc	r0, [r3], #-0
     b50:	66656464 	strbtvs	r6, [r5], -r4, ror #8
     b54:	0200682e 	andeq	r6, r0, #3014656	; 0x2e0000
     b58:	6f6c0000 	svcvs	0x006c0000
     b5c:	682e6b63 	stmdavs	lr!, {r0, r1, r5, r6, r8, r9, fp, sp, lr}
     b60:	00000300 	andeq	r0, r0, r0, lsl #6
     b64:	7079745f 	rsbsvc	r7, r9, pc, asr r4
     b68:	682e7365 	stmdavs	lr!, {r0, r2, r5, r6, r8, r9, ip, sp, lr}
     b6c:	00000300 	andeq	r0, r0, r0, lsl #6
     b70:	6e656572 	mcrvs	5, 3, r6, cr5, cr2, {3}
     b74:	00682e74 	rsbeq	r2, r8, r4, ror lr
     b78:	73000003 	movwvc	r0, #3
     b7c:	6e697274 	mcrvs	2, 3, r7, cr9, cr4, {3}
     b80:	00682e67 	rsbeq	r2, r8, r7, ror #28
     b84:	00000004 	andeq	r0, r0, r4
     b88:	05002905 	streq	r2, [r0, #-2309]	; 0xfffff6fb
     b8c:	008a3402 	addeq	r3, sl, r2, lsl #8
     b90:	05051400 	streq	r1, [r5, #-1024]	; 0xfffffc00
     b94:	06140513 			; <UNDEFINED> instruction: 0x06140513
     b98:	06050501 	streq	r0, [r5], -r1, lsl #10
     b9c:	060b0530 			; <UNDEFINED> instruction: 0x060b0530
     ba0:	060a0510 			; <UNDEFINED> instruction: 0x060a0510
     ba4:	4b090530 	blmi	24206c <__bss_end__+0x23806c>
     ba8:	01060e05 	tsteq	r6, r5, lsl #28
     bac:	0002022e 	andeq	r0, r2, lr, lsr #4
     bb0:	01210101 			; <UNDEFINED> instruction: 0x01210101
     bb4:	00030000 	andeq	r0, r3, r0
     bb8:	000000ef 	andeq	r0, r0, pc, ror #1
     bbc:	0efb0102 	cdpeq	1, 15, cr0, cr11, cr2, {0}
     bc0:	0101000d 	tsteq	r1, sp
     bc4:	00000101 	andeq	r0, r0, r1, lsl #2
     bc8:	00000100 	andeq	r0, r0, r0, lsl #2
     bcc:	62696c01 	rsbvs	r6, r9, #256	; 0x100
     bd0:	752f0063 	strvc	r0, [pc, #-99]!	; b75 <_start-0x748b>
     bd4:	6c2f7273 	sfmvs	f7, 4, [pc], #-460	; a10 <_start-0x75f0>
     bd8:	672f6269 	strvs	r6, [pc, -r9, ror #4]!
     bdc:	612f6363 			; <UNDEFINED> instruction: 0x612f6363
     be0:	6e2d6d72 	mcrvs	13, 1, r6, cr13, cr2, {3}
     be4:	2d656e6f 	stclcs	14, cr6, [r5, #-444]!	; 0xfffffe44
     be8:	69626165 	stmdbvs	r2!, {r0, r2, r5, r6, r8, sp, lr}^
     bec:	322e392f 	eorcc	r3, lr, #770048	; 0xbc000
     bf0:	692f302e 	stmdbvs	pc!, {r1, r2, r3, r5, ip, sp}	; <UNPREDICTABLE>
     bf4:	756c636e 	strbvc	r6, [ip, #-878]!	; 0xfffffc92
     bf8:	2f006564 	svccs	0x00006564
     bfc:	2f727375 	svccs	0x00727375
     c00:	2d6d7261 	sfmcs	f7, 2, [sp, #-388]!	; 0xfffffe7c
     c04:	656e6f6e 	strbvs	r6, [lr, #-3950]!	; 0xfffff092
     c08:	6261652d 	rsbvs	r6, r1, #188743680	; 0xb400000
     c0c:	6e692f69 	cdpvs	15, 6, cr2, cr9, cr9, {3}
     c10:	64756c63 	ldrbtvs	r6, [r5], #-3171	; 0xfffff39d
     c14:	79732f65 	ldmdbvc	r3!, {r0, r2, r5, r6, r8, r9, sl, fp, sp}^
     c18:	682f0073 	stmdavs	pc!, {r0, r1, r4, r5, r6}	; <UNPREDICTABLE>
     c1c:	2f656d6f 	svccs	0x00656d6f
     c20:	72657375 	rsbvc	r7, r5, #-738197503	; 0xd4000001
     c24:	7665442f 	strbtvc	r4, [r5], -pc, lsr #8
     c28:	3253432f 	subscc	r4, r3, #-1140850688	; 0xbc000000
     c2c:	2f583034 	svccs	0x00583034
     c30:	7062696c 	rsbvc	r6, r2, ip, ror #18
     c34:	6e692f69 	cdpvs	15, 6, cr2, cr9, cr9, {3}
     c38:	64756c63 	ldrbtvs	r6, [r5], #-3171	; 0xfffff39d
     c3c:	70000065 	andvc	r0, r0, r5, rrx
     c40:	746e6972 	strbtvc	r6, [lr], #-2418	; 0xfffff68e
     c44:	00632e6b 	rsbeq	r2, r3, fp, ror #28
     c48:	73000001 	movwvc	r0, #1
     c4c:	72616474 	rsbvc	r6, r1, #116, 8	; 0x74000000
     c50:	00682e67 	rsbeq	r2, r8, r7, ror #28
     c54:	6c000002 	stcvs	0, cr0, [r0], {2}
     c58:	2e6b636f 	cdpcs	3, 6, cr6, cr11, cr15, {3}
     c5c:	00030068 	andeq	r0, r3, r8, rrx
     c60:	79745f00 	ldmdbvc	r4!, {r8, r9, sl, fp, ip, lr}^
     c64:	2e736570 	mrccs	5, 3, r6, cr3, cr0, {3}
     c68:	00030068 	andeq	r0, r3, r8, rrx
     c6c:	64747300 	ldrbtvs	r7, [r4], #-768	; 0xfffffd00
     c70:	2e666564 	cdpcs	5, 6, cr6, cr6, cr4, {3}
     c74:	00020068 	andeq	r0, r2, r8, rrx
     c78:	65657200 	strbvs	r7, [r5, #-512]!	; 0xfffffe00
     c7c:	682e746e 	stmdavs	lr!, {r1, r2, r3, r5, r6, sl, ip, sp, lr}
     c80:	00000300 	andeq	r0, r0, r0, lsl #6
     c84:	2e697072 	mcrcs	0, 3, r7, cr9, cr2, {3}
     c88:	00040068 	andeq	r0, r4, r8, rrx
     c8c:	75623c00 	strbvc	r3, [r2, #-3072]!	; 0xfffff400
     c90:	2d746c69 	ldclcs	12, cr6, [r4, #-420]!	; 0xfffffe5c
     c94:	003e6e69 	eorseq	r6, lr, r9, ror #28
     c98:	76000000 	strvc	r0, [r0], -r0
     c9c:	72702d61 	rsbsvc	r2, r0, #6208	; 0x1840
     ca0:	6b746e69 	blvs	1d1c64c <__bss_end__+0x1d1264c>
     ca4:	0100682e 	tsteq	r0, lr, lsr #16
     ca8:	05000000 	streq	r0, [r0, #-0]
     cac:	02050022 	andeq	r0, r5, #34	; 0x22
     cb0:	00008a4c 	andeq	r8, r0, ip, asr #20
     cb4:	05010617 	streq	r0, [r1, #-1559]	; 0xfffff9e9
     cb8:	13680605 	cmnne	r8, #5242880	; 0x500000
     cbc:	4b090514 	blmi	242114 <__bss_end__+0x238114>
     cc0:	01061205 	tsteq	r6, r5, lsl #4
     cc4:	bb060505 	bllt	1820e0 <__bss_end__+0x1780e0>
     cc8:	06660616 			; <UNDEFINED> instruction: 0x06660616
     ccc:	06010534 			; <UNDEFINED> instruction: 0x06010534
     cd0:	08026613 	stmdaeq	r2, {r0, r1, r4, r9, sl, sp, lr}
     cd4:	05010100 	streq	r0, [r1, #-256]	; 0xffffff00
     cd8:	03000001 	movweq	r0, #1
     cdc:	0000c700 	andeq	ip, r0, r0, lsl #14
     ce0:	fb010200 	blx	414ea <__bss_end__+0x374ea>
     ce4:	01000d0e 	tsteq	r0, lr, lsl #26
     ce8:	00010101 	andeq	r0, r1, r1, lsl #2
     cec:	00010000 	andeq	r0, r1, r0
     cf0:	696c0100 	stmdbvs	ip!, {r8}^
     cf4:	2f006362 	svccs	0x00006362
     cf8:	2f727375 	svccs	0x00727375
     cfc:	2d6d7261 	sfmcs	f7, 2, [sp, #-388]!	; 0xfffffe7c
     d00:	656e6f6e 	strbvs	r6, [lr, #-3950]!	; 0xfffff092
     d04:	6261652d 	rsbvs	r6, r1, #188743680	; 0xb400000
     d08:	6e692f69 	cdpvs	15, 6, cr2, cr9, cr9, {3}
     d0c:	64756c63 	ldrbtvs	r6, [r5], #-3171	; 0xfffff39d
     d10:	79732f65 	ldmdbvc	r3!, {r0, r2, r5, r6, r8, r9, sl, fp, sp}^
     d14:	752f0073 	strvc	r0, [pc, #-115]!	; ca9 <_start-0x7357>
     d18:	6c2f7273 	sfmvs	f7, 4, [pc], #-460	; b54 <_start-0x74ac>
     d1c:	672f6269 	strvs	r6, [pc, -r9, ror #4]!
     d20:	612f6363 			; <UNDEFINED> instruction: 0x612f6363
     d24:	6e2d6d72 	mcrvs	13, 1, r6, cr13, cr2, {3}
     d28:	2d656e6f 	stclcs	14, cr6, [r5, #-444]!	; 0xfffffe44
     d2c:	69626165 	stmdbvs	r2!, {r0, r2, r5, r6, r8, sp, lr}^
     d30:	322e392f 	eorcc	r3, lr, #770048	; 0xbc000
     d34:	692f302e 	stmdbvs	pc!, {r1, r2, r3, r5, ip, sp}	; <UNPREDICTABLE>
     d38:	756c636e 	strbvc	r6, [ip, #-878]!	; 0xfffffc92
     d3c:	2f006564 	svccs	0x00006564
     d40:	656d6f68 	strbvs	r6, [sp, #-3944]!	; 0xfffff098
     d44:	6573752f 	ldrbvs	r7, [r3, #-1327]!	; 0xfffffad1
     d48:	65442f72 	strbvs	r2, [r4, #-3954]	; 0xfffff08e
     d4c:	53432f76 	movtpl	r2, #16246	; 0x3f76
     d50:	58303432 	ldmdapl	r0!, {r1, r4, r5, sl, ip, sp}
     d54:	62696c2f 	rsbvs	r6, r9, #12032	; 0x2f00
     d58:	692f6970 	stmdbvs	pc!, {r4, r5, r6, r8, fp, sp, lr}	; <UNPREDICTABLE>
     d5c:	756c636e 	strbvc	r6, [ip, #-878]!	; 0xfffffc92
     d60:	00006564 	andeq	r6, r0, r4, ror #10
     d64:	63747570 	cmnvs	r4, #112, 10	; 0x1c000000
     d68:	2e726168 	rpwcssz	f6, f2, #0.0
     d6c:	00010063 	andeq	r0, r1, r3, rrx
     d70:	636f6c00 	cmnvs	pc, #0, 24
     d74:	00682e6b 	rsbeq	r2, r8, fp, ror #28
     d78:	5f000002 	svcpl	0x00000002
     d7c:	65707974 	ldrbvs	r7, [r0, #-2420]!	; 0xfffff68c
     d80:	00682e73 	rsbeq	r2, r8, r3, ror lr
     d84:	73000002 	movwvc	r0, #2
     d88:	65646474 	strbvs	r6, [r4, #-1140]!	; 0xfffffb8c
     d8c:	00682e66 	rsbeq	r2, r8, r6, ror #28
     d90:	72000003 	andvc	r0, r0, #3
     d94:	746e6565 	strbtvc	r6, [lr], #-1381	; 0xfffffa9b
     d98:	0200682e 	andeq	r6, r0, #3014656	; 0x2e0000
     d9c:	70720000 	rsbsvc	r0, r2, r0
     da0:	00682e69 	rsbeq	r2, r8, r9, ror #28
     da4:	00000004 	andeq	r0, r0, r4
     da8:	05002405 	streq	r2, [r0, #-1029]	; 0xfffffbfb
     dac:	008aa402 	addeq	sl, sl, r2, lsl #8
     db0:	01061400 	tsteq	r6, r0, lsl #8
     db4:	4a062605 	bmi	18a5d0 <__bss_end__+0x1805d0>
     db8:	052e3405 	streq	r3, [lr, #-1029]!	; 0xfffffbfb
     dbc:	05010601 	streq	r0, [r1, #-1537]	; 0xfffff9ff
     dc0:	054f061b 	strbeq	r0, [pc, #-1563]	; 7ad <_start-0x7853>
     dc4:	11051305 	tstne	r5, r5, lsl #6
     dc8:	01050106 	tsteq	r5, r6, lsl #2
     dcc:	06230567 	strteq	r0, [r3], -r7, ror #10
     dd0:	13050567 	movwne	r0, #21863	; 0x5567
     dd4:	01061105 	tsteq	r6, r5, lsl #2
     dd8:	024b0105 	subeq	r0, fp, #1073741825	; 0x40000001
     ddc:	01010004 	tsteq	r1, r4
     de0:	00000112 	andeq	r0, r0, r2, lsl r1
     de4:	00c40003 	sbceq	r0, r4, r3
     de8:	01020000 	mrseq	r0, (UNDEF: 2)
     dec:	000d0efb 	strdeq	r0, [sp], -fp
     df0:	01010101 	tsteq	r1, r1, lsl #2
     df4:	01000000 	mrseq	r0, (UNDEF: 0)
     df8:	6c010000 	stcvs	0, cr0, [r1], {-0}
     dfc:	00636269 	rsbeq	r6, r3, r9, ror #4
     e00:	7273752f 	rsbsvc	r7, r3, #197132288	; 0xbc00000
     e04:	6d72612f 	ldfvse	f6, [r2, #-188]!	; 0xffffff44
     e08:	6e6f6e2d 	cdpvs	14, 6, cr6, cr15, cr13, {1}
     e0c:	61652d65 	cmnvs	r5, r5, ror #26
     e10:	692f6962 	stmdbvs	pc!, {r1, r5, r6, r8, fp, sp, lr}	; <UNPREDICTABLE>
     e14:	756c636e 	strbvc	r6, [ip, #-878]!	; 0xfffffc92
     e18:	732f6564 			; <UNDEFINED> instruction: 0x732f6564
     e1c:	2f007379 	svccs	0x00007379
     e20:	2f727375 	svccs	0x00727375
     e24:	2f62696c 	svccs	0x0062696c
     e28:	2f636367 	svccs	0x00636367
     e2c:	2d6d7261 	sfmcs	f7, 2, [sp, #-388]!	; 0xfffffe7c
     e30:	656e6f6e 	strbvs	r6, [lr, #-3950]!	; 0xfffff092
     e34:	6261652d 	rsbvs	r6, r1, #188743680	; 0xb400000
     e38:	2e392f69 	cdpcs	15, 3, cr2, cr9, cr9, {3}
     e3c:	2f302e32 	svccs	0x00302e32
     e40:	6c636e69 	stclvs	14, cr6, [r3], #-420	; 0xfffffe5c
     e44:	00656475 	rsbeq	r6, r5, r5, ror r4
     e48:	6d6f682f 	stclvs	8, cr6, [pc, #-188]!	; d94 <_start-0x726c>
     e4c:	73752f65 	cmnvc	r5, #404	; 0x194
     e50:	442f7265 	strtmi	r7, [pc], #-613	; e58 <_start-0x71a8>
     e54:	432f7665 			; <UNDEFINED> instruction: 0x432f7665
     e58:	30343253 	eorscc	r3, r4, r3, asr r2
     e5c:	696c2f58 	stmdbvs	ip!, {r3, r4, r6, r8, r9, sl, fp, sp}^
     e60:	2f697062 	svccs	0x00697062
     e64:	6c636e69 	stclvs	14, cr6, [r3], #-420	; 0xfffffe5c
     e68:	00656475 	rsbeq	r6, r5, r5, ror r4
     e6c:	74757000 	ldrbtvc	r7, [r5], #-0
     e70:	00632e6b 	rsbeq	r2, r3, fp, ror #28
     e74:	6c000001 	stcvs	0, cr0, [r0], {1}
     e78:	2e6b636f 	cdpcs	3, 6, cr6, cr11, cr15, {3}
     e7c:	00020068 	andeq	r0, r2, r8, rrx
     e80:	79745f00 	ldmdbvc	r4!, {r8, r9, sl, fp, ip, lr}^
     e84:	2e736570 	mrccs	5, 3, r6, cr3, cr0, {3}
     e88:	00020068 	andeq	r0, r2, r8, rrx
     e8c:	64747300 	ldrbtvs	r7, [r4], #-768	; 0xfffffd00
     e90:	2e666564 	cdpcs	5, 6, cr6, cr6, cr4, {3}
     e94:	00030068 	andeq	r0, r3, r8, rrx
     e98:	65657200 	strbvs	r7, [r5, #-512]!	; 0xfffffe00
     e9c:	682e746e 	stmdavs	lr!, {r1, r2, r3, r5, r6, sl, ip, sp, lr}
     ea0:	00000200 	andeq	r0, r0, r0, lsl #4
     ea4:	2e697072 	mcrcs	0, 3, r7, cr9, cr2, {3}
     ea8:	00040068 	andeq	r0, r4, r8, rrx
     eac:	22050000 	andcs	r0, r5, #0
     eb0:	e0020500 	and	r0, r2, r0, lsl #10
     eb4:	1500008a 	strne	r0, [r0, #-138]	; 0xffffff76
     eb8:	05050106 	streq	r0, [r5, #-262]	; 0xfffffefa
     ebc:	0b054b06 	bleq	153adc <__bss_end__+0x149adc>
     ec0:	01040200 	mrseq	r0, R12_usr
     ec4:	00050501 	andeq	r0, r5, r1, lsl #10
     ec8:	06010402 	streq	r0, [r1], -r2, lsl #8
     ecc:	0009052e 	andeq	r0, r9, lr, lsr #10
     ed0:	06020402 	streq	r0, [r2], -r2, lsl #8
     ed4:	000f054b 	andeq	r0, pc, fp, asr #10
     ed8:	65020402 	strvs	r0, [r2, #-1026]	; 0xfffffbfe
     edc:	02001005 	andeq	r1, r0, #5
     ee0:	01060204 	tsteq	r6, r4, lsl #4
     ee4:	02040200 	andeq	r0, r4, #0, 4
     ee8:	0605052e 	streq	r0, [r5], -lr, lsr #10
     eec:	06010532 			; <UNDEFINED> instruction: 0x06010532
     ef0:	00060213 	andeq	r0, r6, r3, lsl r2
     ef4:	050d0101 	streq	r0, [sp, #-257]	; 0xfffffeff
     ef8:	00030000 	andeq	r0, r3, r0
     efc:	000000e3 	andeq	r0, r0, r3, ror #1
     f00:	0efb0102 	cdpeq	1, 15, cr0, cr11, cr2, {0}
     f04:	0101000d 	tsteq	r1, sp
     f08:	00000101 	andeq	r0, r0, r1, lsl #2
     f0c:	00000100 	andeq	r0, r0, r0, lsl #2
     f10:	62696c01 	rsbvs	r6, r9, #256	; 0x100
     f14:	752f0063 	strvc	r0, [pc, #-99]!	; eb9 <_start-0x7147>
     f18:	612f7273 			; <UNDEFINED> instruction: 0x612f7273
     f1c:	6e2d6d72 	mcrvs	13, 1, r6, cr13, cr2, {3}
     f20:	2d656e6f 	stclcs	14, cr6, [r5, #-444]!	; 0xfffffe44
     f24:	69626165 	stmdbvs	r2!, {r0, r2, r5, r6, r8, sp, lr}^
     f28:	636e692f 	cmnvs	lr, #770048	; 0xbc000
     f2c:	6564756c 	strbvs	r7, [r4, #-1388]!	; 0xfffffa94
     f30:	7379732f 	cmnvc	r9, #-1140850688	; 0xbc000000
     f34:	73752f00 	cmnvc	r5, #0, 30
     f38:	696c2f72 	stmdbvs	ip!, {r1, r4, r5, r6, r8, r9, sl, fp, sp}^
     f3c:	63672f62 	cmnvs	r7, #392	; 0x188
     f40:	72612f63 	rsbvc	r2, r1, #396	; 0x18c
     f44:	6f6e2d6d 	svcvs	0x006e2d6d
     f48:	652d656e 	strvs	r6, [sp, #-1390]!	; 0xfffffa92
     f4c:	2f696261 	svccs	0x00696261
     f50:	2e322e39 	mrccs	14, 1, r2, cr2, cr9, {1}
     f54:	6e692f30 	mcrvs	15, 3, r2, cr9, cr0, {1}
     f58:	64756c63 	ldrbtvs	r6, [r5], #-3171	; 0xfffff39d
     f5c:	682f0065 	stmdavs	pc!, {r0, r2, r5, r6}	; <UNPREDICTABLE>
     f60:	2f656d6f 	svccs	0x00656d6f
     f64:	72657375 	rsbvc	r7, r5, #-738197503	; 0xd4000001
     f68:	7665442f 	strbtvc	r4, [r5], -pc, lsr #8
     f6c:	3253432f 	subscc	r4, r3, #-1140850688	; 0xbc000000
     f70:	2f583034 	svccs	0x00583034
     f74:	7062696c 	rsbvc	r6, r2, ip, ror #18
     f78:	6e692f69 	cdpvs	15, 6, cr2, cr9, cr9, {3}
     f7c:	64756c63 	ldrbtvs	r6, [r5], #-3171	; 0xfffff39d
     f80:	76000065 	strvc	r0, [r0], -r5, rrx
     f84:	72702d61 	rsbsvc	r2, r0, #6208	; 0x1840
     f88:	6b746e69 	blvs	1d1c934 <__bss_end__+0x1d12934>
     f8c:	0100632e 	tsteq	r0, lr, lsr #6
     f90:	6f6c0000 	svcvs	0x006c0000
     f94:	682e6b63 	stmdavs	lr!, {r0, r1, r5, r6, r8, r9, fp, sp, lr}
     f98:	00000200 	andeq	r0, r0, r0, lsl #4
     f9c:	7079745f 	rsbsvc	r7, r9, pc, asr r4
     fa0:	682e7365 	stmdavs	lr!, {r0, r2, r5, r6, r8, r9, ip, sp, lr}
     fa4:	00000200 	andeq	r0, r0, r0, lsl #4
     fa8:	64647473 	strbtvs	r7, [r4], #-1139	; 0xfffffb8d
     fac:	682e6665 	stmdavs	lr!, {r0, r2, r5, r6, r9, sl, sp, lr}
     fb0:	00000300 	andeq	r0, r0, r0, lsl #6
     fb4:	6e656572 	mcrvs	5, 3, r6, cr5, cr2, {3}
     fb8:	00682e74 	rsbeq	r2, r8, r4, ror lr
     fbc:	72000002 	andvc	r0, r0, #2
     fc0:	682e6970 	stmdavs	lr!, {r4, r5, r6, r8, fp, sp, lr}
     fc4:	00000400 	andeq	r0, r0, r0, lsl #8
     fc8:	61647473 	smcvs	18243	; 0x4743
     fcc:	682e6772 	stmdavs	lr!, {r1, r4, r5, r6, r8, r9, sl, sp, lr}
     fd0:	00000300 	andeq	r0, r0, r0, lsl #6
     fd4:	6975623c 	ldmdbvs	r5!, {r2, r3, r4, r5, r9, sp, lr}^
     fd8:	692d746c 	pushvs	{r2, r3, r5, r6, sl, ip, sp, lr}
     fdc:	00003e6e 	andeq	r3, r0, lr, ror #28
     fe0:	05000000 	streq	r0, [r0, #-0]
     fe4:	0205001b 	andeq	r0, r5, #27
     fe8:	00008b14 	andeq	r8, r0, r4, lsl fp
     fec:	05012603 	streq	r2, [r1, #-1539]	; 0xfffff9fd
     ff0:	2d05011d 	stfcss	f0, [r5, #-116]	; 0xffffff8c
     ff4:	01050106 	tsteq	r5, r6, lsl #2
     ff8:	33054a2e 	movwcc	r4, #23086	; 0x5a2e
     ffc:	02055106 	andeq	r5, r5, #-2147483647	; 0x80000001
    1000:	06060513 			; <UNDEFINED> instruction: 0x06060513
    1004:	06020501 	streq	r0, [r2], -r1, lsl #10
    1008:	00080530 	andeq	r0, r8, r0, lsr r5
    100c:	01010402 	tsteq	r1, r2, lsl #8
    1010:	02000205 	andeq	r0, r0, #1342177280	; 0x50000000
    1014:	01060104 	tsteq	r6, r4, lsl #2
    1018:	02000305 	andeq	r0, r0, #335544320	; 0x14000000
    101c:	2f060204 	svccs	0x00060204
    1020:	02000805 	andeq	r0, r0, #327680	; 0x50000
    1024:	01060204 	tsteq	r6, r4, lsl #4
    1028:	02001505 	andeq	r1, r0, #20971520	; 0x1400000
    102c:	49060204 	stmdbmi	r6, {r2, r9}
    1030:	02001805 	andeq	r1, r0, #327680	; 0x50000
    1034:	01060204 	tsteq	r6, r4, lsl #4
    1038:	02040200 	andeq	r0, r4, #0, 4
    103c:	0602052e 	streq	r0, [r2], -lr, lsr #10
    1040:	06050530 			; <UNDEFINED> instruction: 0x06050530
    1044:	06020501 	streq	r0, [r2], -r1, lsl #10
    1048:	0601054b 	streq	r0, [r1], -fp, asr #10
    104c:	063e0513 			; <UNDEFINED> instruction: 0x063e0513
    1050:	14020530 	strne	r0, [r2], #-1328	; 0xfffffad0
    1054:	01060e05 	tsteq	r6, r5, lsl #28
    1058:	052e0605 	streq	r0, [lr, #-1541]!	; 0xfffff9fb
    105c:	052f0602 	streq	r0, [pc, #-1538]!	; a62 <_start-0x759e>
    1060:	05010604 	streq	r0, [r1, #-1540]	; 0xfffff9fc
    1064:	052f0603 	streq	r0, [pc, #-1539]!	; a69 <_start-0x7597>
    1068:	05010611 	streq	r0, [r1, #-1553]	; 0xfffff9ef
    106c:	02052e09 	andeq	r2, r5, #9, 28	; 0x90
    1070:	05153006 	ldreq	r3, [r5, #-6]
    1074:	05010607 	streq	r0, [r1, #-1543]	; 0xfffff9f9
    1078:	0b052e02 	bleq	14c888 <__bss_end__+0x142888>
    107c:	01040200 	mrseq	r0, R12_usr
    1080:	02052e06 	andeq	r2, r5, #6, 28	; 0x60
    1084:	01040200 	mrseq	r0, R12_usr
    1088:	03050106 	movweq	r0, #20742	; 0x5106
    108c:	03040200 	movweq	r0, #16896	; 0x4200
    1090:	0c052f06 	stceq	15, cr2, [r5], {6}
    1094:	03040200 	movweq	r0, #16896	; 0x4200
    1098:	0a050106 	beq	1414b8 <__bss_end__+0x1374b8>
    109c:	03040200 	movweq	r0, #16896	; 0x4200
    10a0:	0017052e 	andseq	r0, r7, lr, lsr #10
    10a4:	06030402 	streq	r0, [r3], -r2, lsl #8
    10a8:	0402002d 	streq	r0, [r2], #-45	; 0xffffffd3
    10ac:	05010603 	streq	r0, [r1, #-1539]	; 0xfffff9fd
    10b0:	05300602 	ldreq	r0, [r0, #-1538]!	; 0xfffff9fe
    10b4:	2e010609 	cfmadd32cs	mvax0, mvfx0, mvfx1, mvfx9
    10b8:	30060205 	andcc	r0, r6, r5, lsl #4
    10bc:	13060105 	movwne	r0, #24837	; 0x6105
    10c0:	30065605 	andcc	r5, r6, r5, lsl #12
    10c4:	02050106 	andeq	r0, r5, #-2147483647	; 0x80000001
    10c8:	0405a006 	streq	sl, [r5], #-6
    10cc:	03050106 	movweq	r0, #20742	; 0x5106
    10d0:	09052f06 	stmdbeq	r5, {r1, r2, r8, r9, sl, fp, sp}
    10d4:	02050106 	andeq	r0, r5, #-2147483647	; 0x80000001
    10d8:	05133006 	ldreq	r3, [r3, #-6]
    10dc:	0501060b 	streq	r0, [r1, #-1547]	; 0xfffff9f5
    10e0:	06300602 	ldrteq	r0, [r0], -r2, lsl #12
    10e4:	0604052e 	streq	r0, [r4], -lr, lsr #10
    10e8:	13152402 	tstne	r5, #33554432	; 0x2000000
    10ec:	01060f05 	tsteq	r6, r5, lsl #30
    10f0:	4a06052e 	bmi	1825b0 <__bss_end__+0x1785b0>
    10f4:	4b060505 	blmi	182510 <__bss_end__+0x178510>
    10f8:	06090513 			; <UNDEFINED> instruction: 0x06090513
    10fc:	06050501 	streq	r0, [r5], -r1, lsl #10
    1100:	060b052f 	streq	r0, [fp], -pc, lsr #10
    1104:	000d0510 	andeq	r0, sp, r0, lsl r5
    1108:	2c010402 	cfstrscs	mvf0, [r1], {2}
    110c:	02000405 	andeq	r0, r0, #83886080	; 0x5000000
    1110:	34060104 	strcc	r0, [r6], #-260	; 0xfffffefc
    1114:	02000505 	andeq	r0, r0, #20971520	; 0x1400000
    1118:	05130104 	ldreq	r0, [r3, #-260]	; 0xfffffefc
    111c:	0402001b 	streq	r0, [r2], #-27	; 0xffffffe5
    1120:	05010601 	streq	r0, [r1, #-1537]	; 0xfffff9ff
    1124:	04020007 	streq	r0, [r2], #-7
    1128:	1805d601 	stmdane	r5, {r0, r9, sl, ip, lr, pc}
    112c:	01040200 	mrseq	r0, R12_usr
    1130:	000a052e 	andeq	r0, sl, lr, lsr #10
    1134:	4a010402 	bmi	42144 <__bss_end__+0x38144>
    1138:	02000b05 	andeq	r0, r0, #5120	; 0x1400
    113c:	2f060104 	svccs	0x00060104
    1140:	02000e05 	andeq	r0, r0, #5, 28	; 0x50
    1144:	2e060104 	adfcss	f0, f6, f4
    1148:	02000405 	andeq	r0, r0, #83886080	; 0x5000000
    114c:	062e0104 	strteq	r0, [lr], -r4, lsl #2
    1150:	0606054b 	streq	r0, [r6], -fp, asr #10
    1154:	06050501 	streq	r0, [r5], -r1, lsl #10
    1158:	060a052f 	streq	r0, [sl], -pc, lsr #10
    115c:	4a070501 	bmi	1c2568 <__bss_end__+0x1b8568>
    1160:	030d052e 	movweq	r0, #54574	; 0xd52e
    1164:	054a2e76 	strbeq	r2, [sl, #-3702]	; 0xfffff18a
    1168:	0d050d0b 	stceq	13, cr0, [r5, #-44]	; 0xffffffd4
    116c:	01040200 	mrseq	r0, R12_usr
    1170:	2e140306 	cdpcs	3, 1, cr0, cr4, cr6, {0}
    1174:	02001105 	andeq	r1, r0, #1073741825	; 0x40000001
    1178:	05130104 	ldreq	r0, [r3, #-260]	; 0xfffffefc
    117c:	0402002d 	streq	r0, [r2], #-45	; 0xffffffd3
    1180:	05010601 	streq	r0, [r1, #-1537]	; 0xfffff9ff
    1184:	0402002a 	streq	r0, [r2], #-42	; 0xffffffd6
    1188:	16052e01 	strne	r2, [r5], -r1, lsl #28
    118c:	01040200 	mrseq	r0, R12_usr
    1190:	0014054a 	andseq	r0, r4, sl, asr #10
    1194:	06010402 	streq	r0, [r1], -r2, lsl #8
    1198:	000d054b 	andeq	r0, sp, fp, asr #10
    119c:	06010402 	streq	r0, [r1], -r2, lsl #8
    11a0:	04020001 	streq	r0, [r2], #-1
    11a4:	2f064a01 	svccs	0x00064a01
    11a8:	01061205 	tsteq	r6, r5, lsl #4
    11ac:	060d054a 	streq	r0, [sp], -sl, asr #10
    11b0:	0612052f 	ldreq	r0, [r2], -pc, lsr #10
    11b4:	06190501 	ldreq	r0, [r9], -r1, lsl #10
    11b8:	0004054b 	andeq	r0, r4, fp, asr #10
    11bc:	03020402 	movweq	r0, #9218	; 0x2402
    11c0:	02000111 	andeq	r0, r0, #1073741828	; 0x40000004
    11c4:	05010204 	streq	r0, [r1, #-516]	; 0xfffffdfc
    11c8:	04020002 	streq	r0, [r2], #-2
    11cc:	09051502 	stmdbeq	r5, {r1, r8, sl, ip}
    11d0:	02040200 	andeq	r0, r4, #0, 4
    11d4:	02000106 	andeq	r0, r0, #-2147483647	; 0x80000001
    11d8:	054a0204 	strbeq	r0, [sl, #-516]	; 0xfffffdfc
    11dc:	04020001 	streq	r0, [r2], #-1
    11e0:	04059f02 	streq	r9, [r5], #-3842	; 0xfffff0fe
    11e4:	4a6e0306 	bmi	1b81e04 <__bss_end__+0x1b77e04>
    11e8:	01060905 	tsteq	r6, r5, lsl #18
    11ec:	2f060405 	svccs	0x00060405
    11f0:	11060605 	tstne	r6, r5, lsl #12
    11f4:	052f0405 	streq	r0, [pc, #-1029]!	; df7 <_start-0x7209>
    11f8:	2e63030b 	cdpcs	3, 6, cr0, cr3, cr11, {0}
    11fc:	02001905 	andeq	r1, r0, #81920	; 0x14000
    1200:	03060104 	movweq	r0, #24836	; 0x6104
    1204:	1a052e24 	bne	14ca9c <__bss_end__+0x142a9c>
    1208:	01040200 	mrseq	r0, R12_usr
    120c:	00280513 	eoreq	r0, r8, r3, lsl r5
    1210:	06010402 	streq	r0, [r1], -r2, lsl #8
    1214:	00250501 	eoreq	r0, r5, r1, lsl #10
    1218:	2e010402 	cdpcs	4, 0, cr0, cr1, cr2, {0}
    121c:	02001f05 	andeq	r1, r0, #5, 30
    1220:	054a0104 	strbeq	r0, [sl, #-260]	; 0xfffffefc
    1224:	0402000b 	streq	r0, [r2], #-11
    1228:	054b0601 	strbeq	r0, [fp, #-1537]	; 0xfffff9ff
    122c:	04020004 	streq	r0, [r2], #-4
    1230:	00010601 	andeq	r0, r1, r1, lsl #12
    1234:	4a010402 	bmi	42244 <__bss_end__+0x38244>
    1238:	01040200 	mrseq	r0, R12_usr
    123c:	02004e06 	andeq	r4, r0, #6, 28	; 0x60
    1240:	00010104 	andeq	r0, r1, r4, lsl #2
    1244:	01010402 	tsteq	r1, r2, lsl #8
    1248:	01040200 	mrseq	r0, R12_usr
    124c:	04020001 	streq	r0, [r2], #-1
    1250:	02002e01 	andeq	r2, r0, #1, 28
    1254:	059e0104 	ldreq	r0, [lr, #260]	; 0x104
    1258:	7fa80348 	svcvc	0x00a80348
    125c:	130505f2 	movwne	r0, #22002	; 0x55f2
    1260:	002e0601 	eoreq	r0, lr, r1, lsl #12
    1264:	06020402 	streq	r0, [r2], -r2, lsl #8
    1268:	0402002e 	streq	r0, [r2], #-46	; 0xffffffd2
    126c:	02000102 	andeq	r0, r0, #-2147483648	; 0x80000000
    1270:	05130204 	ldreq	r0, [r3, #-516]	; 0xfffffdfc
    1274:	04020011 	streq	r0, [r2], #-17	; 0xffffffef
    1278:	05010602 	streq	r0, [r1, #-1538]	; 0xfffff9fe
    127c:	04020005 	streq	r0, [r2], #-5
    1280:	054b0602 	strbeq	r0, [fp, #-1538]	; 0xfffff9fe
    1284:	04020007 	streq	r0, [r2], #-7
    1288:	05010602 	streq	r0, [r1, #-1538]	; 0xfffff9fe
    128c:	052f0609 	streq	r0, [pc, #-1545]!	; c8b <_start-0x7375>
    1290:	0501060e 	streq	r0, [r1, #-1550]	; 0xfffff9f2
    1294:	04020048 	streq	r0, [r2], #-72	; 0xffffffb8
    1298:	05056201 	streq	r6, [r5, #-513]	; 0xfffffdff
    129c:	01040200 	mrseq	r0, R12_usr
    12a0:	02002f06 	andeq	r2, r0, #6, 30
    12a4:	00010104 	andeq	r0, r1, r4, lsl #2
    12a8:	2e010402 	cdpcs	4, 0, cr0, cr1, cr2, {0}
    12ac:	01040200 	mrseq	r0, R12_usr
    12b0:	0340059e 	movteq	r0, #1438	; 0x59e
    12b4:	06ba00df 	ssateq	r0, #27, pc, asr #1	; <UNPREDICTABLE>
    12b8:	06020501 	streq	r0, [r2], -r1, lsl #10
    12bc:	061e059f 			; <UNDEFINED> instruction: 0x061e059f
    12c0:	2e120501 	cfmul32cs	mvfx0, mvfx2, mvfx1
    12c4:	30060205 	andcc	r0, r6, r5, lsl #4
    12c8:	01060905 	tsteq	r6, r5, lsl #18
    12cc:	4b060205 	blmi	181ae8 <__bss_end__+0x177ae8>
    12d0:	0f060805 	svceq	0x00060805
    12d4:	05310205 	ldreq	r0, [r1, #-517]!	; 0xfffffdfb
    12d8:	05300604 	ldreq	r0, [r0, #-1540]!	; 0xfffff9fc
    12dc:	0501060f 	streq	r0, [r1, #-1551]	; 0xfffff9f1
    12e0:	08052e09 	stmdaeq	r5, {r0, r3, r9, sl, fp, sp}
    12e4:	02052c06 	andeq	r2, r5, #1536	; 0x600
    12e8:	0d052e06 	stceq	14, cr2, [r5, #-24]	; 0xffffffe8
    12ec:	01040200 	mrseq	r0, R12_usr
    12f0:	0603054a 	streq	r0, [r3], -sl, asr #10
    12f4:	0605054b 	streq	r0, [r5], -fp, asr #10
    12f8:	06080501 	streq	r0, [r8], -r1, lsl #10
    12fc:	060e054d 	streq	r0, [lr], -sp, asr #10
    1300:	2e0a0501 	cfsh32cs	mvfx0, mvfx10, #1
    1304:	2f060405 	svccs	0x00060405
    1308:	01060905 	tsteq	r6, r5, lsl #18
    130c:	2f060405 	svccs	0x00060405
    1310:	01060705 	tsteq	r6, r5, lsl #14
    1314:	0604052e 	streq	r0, [r4], -lr, lsr #10
    1318:	06070530 			; <UNDEFINED> instruction: 0x06070530
    131c:	06040501 	streq	r0, [r4], -r1, lsl #10
    1320:	05141330 	ldreq	r1, [r4, #-816]	; 0xfffffcd0
    1324:	0510060d 	ldreq	r0, [r0, #-1549]	; 0xfffff9f3
    1328:	05053009 	streq	r3, [r5, #-9]
    132c:	12052f06 	andne	r2, r5, #6, 30
    1330:	16050106 	strne	r0, [r5], -r6, lsl #2
    1334:	2e0b052e 	cfsh32cs	mvfx0, mvfx11, #30
    1338:	2f060505 	svccs	0x00060505
    133c:	01060805 	tsteq	r6, r5, lsl #16
    1340:	2c060905 			; <UNDEFINED> instruction: 0x2c060905
    1344:	01061205 	tsteq	r6, r5, lsl #4
    1348:	052e0a05 	streq	r0, [lr, #-2565]!	; 0xfffff5fb
    134c:	04054a09 	streq	r4, [r5], #-2569	; 0xfffff5f7
    1350:	4a014e06 	bmi	54b70 <__bss_end__+0x4ab70>
    1354:	02001401 	andeq	r1, r0, #16777216	; 0x1000000
    1358:	36020104 	strcc	r0, [r2], -r4, lsl #2
    135c:	04020010 	streq	r0, [r2], #-16
    1360:	02000101 	andeq	r0, r0, #1073741824	; 0x40000000
    1364:	002e0104 	eoreq	r0, lr, r4, lsl #2
    1368:	9e010402 	cdpls	4, 0, cr0, cr1, cr2, {0}
    136c:	01340505 	teqeq	r4, r5, lsl #10
    1370:	032e9e2e 			; <UNDEFINED> instruction: 0x032e9e2e
    1374:	0905010e 	stmdbeq	r5, {r1, r2, r3, r8}
    1378:	05050106 	streq	r0, [r5, #-262]	; 0xfffffefa
    137c:	05590806 	ldrbeq	r0, [r9, #-2054]	; 0xfffff7fa
    1380:	01150304 	tsteq	r5, r4, lsl #6
    1384:	01060705 	tsteq	r6, r5, lsl #14
    1388:	31060405 	tstcc	r6, r5, lsl #8
    138c:	05010a05 	streq	r0, [r1, #-2565]	; 0xfffff5fb
    1390:	05010604 	streq	r0, [r1, #-1540]	; 0xfffff9fc
    1394:	04020013 	streq	r0, [r2], #-19	; 0xffffffed
    1398:	10054a01 	andne	r4, r5, r1, lsl #20
    139c:	01040200 	mrseq	r0, R12_usr
    13a0:	0605052e 	streq	r0, [r5], -lr, lsr #10
    13a4:	060e054b 	streq	r0, [lr], -fp, asr #10
    13a8:	2e0a0501 	cfsh32cs	mvfx0, mvfx10, #1
    13ac:	0605052e 	streq	r0, [r5], -lr, lsr #10
    13b0:	052e6903 	streq	r6, [lr, #-2307]!	; 0xfffff6fd
    13b4:	0501061c 	streq	r0, [r1, #-1564]	; 0xfffff9e4
    13b8:	05058209 	streq	r8, [r5, #-521]	; 0xfffffdf7
    13bc:	0531d706 	ldreq	sp, [r1, #-1798]!	; 0xfffff8fa
    13c0:	0501061c 	streq	r0, [r1, #-1564]	; 0xfffff9e4
    13c4:	05058209 	streq	r8, [r5, #-521]	; 0xfffffdf7
    13c8:	0530d706 	ldreq	sp, [r0, #-1798]!	; 0xfffff8fa
    13cc:	0501061b 	streq	r0, [r1, #-1563]	; 0xfffff9e5
    13d0:	05058209 	streq	r8, [r5, #-521]	; 0xfffffdf7
    13d4:	0530d706 	ldreq	sp, [r0, #-1798]!	; 0xfffff8fa
    13d8:	05010607 	streq	r0, [r1, #-1543]	; 0xfffff9f9
    13dc:	30830605 	addcc	r0, r3, r5, lsl #12
    13e0:	01060905 	tsteq	r6, r5, lsl #18
    13e4:	08060505 	stmdaeq	r6, {r0, r2, r8, sl}
    13e8:	2e013059 	mcrcs	0, 0, r3, cr1, cr9, {2}
    13ec:	052e06d6 	streq	r0, [lr, #-1750]!	; 0xfffff92a
    13f0:	0a030602 	beq	c2c00 <__bss_end__+0xb8c00>
    13f4:	06070501 	streq	r0, [r7], -r1, lsl #10
    13f8:	06020501 	streq	r0, [r2], -r1, lsl #10
    13fc:	0601054b 	streq	r0, [r1], -fp, asr #10
    1400:	0a026613 	beq	9ac54 <__bss_end__+0x90c54>
    1404:	eb010100 	bl	4180c <__bss_end__+0x3780c>
    1408:	03000000 	movweq	r0, #0
    140c:	0000d100 	andeq	sp, r0, r0, lsl #2
    1410:	fb010200 	blx	41c1a <__bss_end__+0x37c1a>
    1414:	01000d0e 	tsteq	r0, lr, lsl #26
    1418:	00010101 	andeq	r0, r1, r1, lsl #2
    141c:	00010000 	andeq	r0, r1, r0
    1420:	74730100 	ldrbtvc	r0, [r3], #-256	; 0xffffff00
    1424:	2d666661 	stclcs	6, cr6, [r6, #-388]!	; 0xfffffe7c
    1428:	00637273 	rsbeq	r7, r3, r3, ror r2
    142c:	7273752f 	rsbsvc	r7, r3, #197132288	; 0xbc00000
    1430:	6d72612f 	ldfvse	f6, [r2, #-188]!	; 0xffffff44
    1434:	6e6f6e2d 	cdpvs	14, 6, cr6, cr15, cr13, {1}
    1438:	61652d65 	cmnvs	r5, r5, ror #26
    143c:	692f6962 	stmdbvs	pc!, {r1, r5, r6, r8, fp, sp, lr}	; <UNPREDICTABLE>
    1440:	756c636e 	strbvc	r6, [ip, #-878]!	; 0xfffffc92
    1444:	732f6564 			; <UNDEFINED> instruction: 0x732f6564
    1448:	2f007379 	svccs	0x00007379
    144c:	2f727375 	svccs	0x00727375
    1450:	2f62696c 	svccs	0x0062696c
    1454:	2f636367 	svccs	0x00636367
    1458:	2d6d7261 	sfmcs	f7, 2, [sp, #-388]!	; 0xfffffe7c
    145c:	656e6f6e 	strbvs	r6, [lr, #-3950]!	; 0xfffff092
    1460:	6261652d 	rsbvs	r6, r1, #188743680	; 0xb400000
    1464:	2e392f69 	cdpcs	15, 3, cr2, cr9, cr9, {3}
    1468:	2f302e32 	svccs	0x00302e32
    146c:	6c636e69 	stclvs	14, cr6, [r3], #-420	; 0xfffffe5c
    1470:	00656475 	rsbeq	r6, r5, r5, ror r4
    1474:	6d6f682f 	stclvs	8, cr6, [pc, #-188]!	; 13c0 <_start-0x6c40>
    1478:	73752f65 	cmnvc	r5, #404	; 0x194
    147c:	442f7265 	strtmi	r7, [pc], #-613	; 1484 <_start-0x6b7c>
    1480:	432f7665 			; <UNDEFINED> instruction: 0x432f7665
    1484:	30343253 	eorscc	r3, r4, r3, asr r2
    1488:	696c2f58 	stmdbvs	ip!, {r3, r4, r6, r8, r9, sl, fp, sp}^
    148c:	2f697062 	svccs	0x00697062
    1490:	6c636e69 	stclvs	14, cr6, [r3], #-420	; 0xfffffe5c
    1494:	00656475 	rsbeq	r6, r5, r5, ror r4
    1498:	656c6300 	strbvs	r6, [ip, #-768]!	; 0xfffffd00
    149c:	722d6e61 	eorvc	r6, sp, #1552	; 0x610
    14a0:	6f6f6265 	svcvs	0x006f6265
    14a4:	00632e74 	rsbeq	r2, r3, r4, ror lr
    14a8:	6c000001 	stcvs	0, cr0, [r0], {1}
    14ac:	2e6b636f 	cdpcs	3, 6, cr6, cr11, cr15, {3}
    14b0:	00020068 	andeq	r0, r2, r8, rrx
    14b4:	79745f00 	ldmdbvc	r4!, {r8, r9, sl, fp, ip, lr}^
    14b8:	2e736570 	mrccs	5, 3, r6, cr3, cr0, {3}
    14bc:	00020068 	andeq	r0, r2, r8, rrx
    14c0:	64747300 	ldrbtvs	r7, [r4], #-768	; 0xfffffd00
    14c4:	2e666564 	cdpcs	5, 6, cr6, cr6, cr4, {3}
    14c8:	00030068 	andeq	r0, r3, r8, rrx
    14cc:	65657200 	strbvs	r7, [r5, #-512]!	; 0xfffffe00
    14d0:	682e746e 	stmdavs	lr!, {r1, r2, r3, r5, r6, sl, ip, sp, lr}
    14d4:	00000200 	andeq	r0, r0, r0, lsl #4
    14d8:	2e697072 	mcrcs	0, 3, r7, cr9, cr2, {3}
    14dc:	00040068 	andeq	r0, r4, r8, rrx
    14e0:	19050000 	stmdbne	r5, {}	; <UNPREDICTABLE>
    14e4:	34020500 	strcc	r0, [r2], #-1280	; 0xfffffb00
    14e8:	15000090 	strne	r0, [r0, #-144]	; 0xffffff70
    14ec:	832f0505 			; <UNDEFINED> instruction: 0x832f0505
    14f0:	0006024b 	andeq	r0, r6, fp, asr #4
    14f4:	01040101 	tsteq	r4, r1, lsl #2
    14f8:	00030000 	andeq	r0, r3, r0
    14fc:	000000cb 	andeq	r0, r0, fp, asr #1
    1500:	0efb0102 	cdpeq	1, 15, cr0, cr11, cr2, {0}
    1504:	0101000d 	tsteq	r1, sp
    1508:	00000101 	andeq	r0, r0, r1, lsl #2
    150c:	00000100 	andeq	r0, r0, r0, lsl #2
    1510:	61747301 	cmnvs	r4, r1, lsl #6
    1514:	732d6666 			; <UNDEFINED> instruction: 0x732d6666
    1518:	2f006372 	svccs	0x00006372
    151c:	2f727375 	svccs	0x00727375
    1520:	2d6d7261 	sfmcs	f7, 2, [sp, #-388]!	; 0xfffffe7c
    1524:	656e6f6e 	strbvs	r6, [lr, #-3950]!	; 0xfffff092
    1528:	6261652d 	rsbvs	r6, r1, #188743680	; 0xb400000
    152c:	6e692f69 	cdpvs	15, 6, cr2, cr9, cr9, {3}
    1530:	64756c63 	ldrbtvs	r6, [r5], #-3171	; 0xfffff39d
    1534:	79732f65 	ldmdbvc	r3!, {r0, r2, r5, r6, r8, r9, sl, fp, sp}^
    1538:	752f0073 	strvc	r0, [pc, #-115]!	; 14cd <_start-0x6b33>
    153c:	6c2f7273 	sfmvs	f7, 4, [pc], #-460	; 1378 <_start-0x6c88>
    1540:	672f6269 	strvs	r6, [pc, -r9, ror #4]!
    1544:	612f6363 			; <UNDEFINED> instruction: 0x612f6363
    1548:	6e2d6d72 	mcrvs	13, 1, r6, cr13, cr2, {3}
    154c:	2d656e6f 	stclcs	14, cr6, [r5, #-444]!	; 0xfffffe44
    1550:	69626165 	stmdbvs	r2!, {r0, r2, r5, r6, r8, sp, lr}^
    1554:	322e392f 	eorcc	r3, lr, #770048	; 0xbc000
    1558:	692f302e 	stmdbvs	pc!, {r1, r2, r3, r5, ip, sp}	; <UNPREDICTABLE>
    155c:	756c636e 	strbvc	r6, [ip, #-878]!	; 0xfffffc92
    1560:	2f006564 	svccs	0x00006564
    1564:	656d6f68 	strbvs	r6, [sp, #-3944]!	; 0xfffff098
    1568:	6573752f 	ldrbvs	r7, [r3, #-1327]!	; 0xfffffad1
    156c:	65442f72 	strbvs	r2, [r4, #-3954]	; 0xfffff08e
    1570:	53432f76 	movtpl	r2, #16246	; 0x3f76
    1574:	58303432 	ldmdapl	r0!, {r1, r4, r5, sl, ip, sp}
    1578:	62696c2f 	rsbvs	r6, r9, #12032	; 0x2f00
    157c:	692f6970 	stmdbvs	pc!, {r4, r5, r6, r8, fp, sp, lr}	; <UNPREDICTABLE>
    1580:	756c636e 	strbvc	r6, [ip, #-878]!	; 0xfffffc92
    1584:	00006564 	andeq	r6, r0, r4, ror #10
    1588:	61747363 	cmnvs	r4, r3, ror #6
    158c:	632e7472 			; <UNDEFINED> instruction: 0x632e7472
    1590:	00000100 	andeq	r0, r0, r0, lsl #2
    1594:	6b636f6c 	blvs	18dd34c <__bss_end__+0x18d334c>
    1598:	0200682e 	andeq	r6, r0, #3014656	; 0x2e0000
    159c:	745f0000 	ldrbvc	r0, [pc], #-0	; 15a4 <_start-0x6a5c>
    15a0:	73657079 	cmnvc	r5, #121	; 0x79
    15a4:	0200682e 	andeq	r6, r0, #3014656	; 0x2e0000
    15a8:	74730000 	ldrbtvc	r0, [r3], #-0
    15ac:	66656464 	strbtvs	r6, [r5], -r4, ror #8
    15b0:	0300682e 	movweq	r6, #2094	; 0x82e
    15b4:	65720000 	ldrbvs	r0, [r2, #-0]!
    15b8:	2e746e65 	cdpcs	14, 7, cr6, cr4, cr5, {3}
    15bc:	00020068 	andeq	r0, r2, r8, rrx
    15c0:	69707200 	ldmdbvs	r0!, {r9, ip, sp, lr}^
    15c4:	0400682e 	streq	r6, [r0], #-2094	; 0xfffff7d2
    15c8:	05000000 	streq	r0, [r0, #-0]
    15cc:	02050010 	andeq	r0, r5, #16
    15d0:	0000905c 	andeq	r9, r0, ip, asr r0
    15d4:	05010c03 	streq	r0, [r1, #-3075]	; 0xfffff3fd
    15d8:	02052f05 	andeq	r2, r5, #5, 30
    15dc:	14050513 	strne	r0, [r5], #-1299	; 0xfffffaed
    15e0:	0a051413 	beq	146634 <__bss_end__+0x13c634>
    15e4:	31060f06 	tstcc	r6, r6, lsl #30
    15e8:	054b0905 	strbeq	r0, [fp, #-2309]	; 0xfffff6fb
    15ec:	4a010610 	bmi	42e34 <__bss_end__+0x38e34>
    15f0:	03060505 	movweq	r0, #25861	; 0x6505
    15f4:	02052e14 	andeq	r2, r5, #20, 28	; 0x140
    15f8:	0006022f 	andeq	r0, r6, pc, lsr #4
    15fc:	01380101 	teqeq	r8, r1, lsl #2
    1600:	00030000 	andeq	r0, r3, r0
    1604:	000000cb 	andeq	r0, r0, fp, asr #1
    1608:	0efb0102 	cdpeq	1, 15, cr0, cr11, cr2, {0}
    160c:	0101000d 	tsteq	r1, sp
    1610:	00000101 	andeq	r0, r0, r1, lsl #2
    1614:	00000100 	andeq	r0, r0, r0, lsl #2
    1618:	61747301 	cmnvs	r4, r1, lsl #6
    161c:	732d6666 			; <UNDEFINED> instruction: 0x732d6666
    1620:	2f006372 	svccs	0x00006372
    1624:	2f727375 	svccs	0x00727375
    1628:	2d6d7261 	sfmcs	f7, 2, [sp, #-388]!	; 0xfffffe7c
    162c:	656e6f6e 	strbvs	r6, [lr, #-3950]!	; 0xfffff092
    1630:	6261652d 	rsbvs	r6, r1, #188743680	; 0xb400000
    1634:	6e692f69 	cdpvs	15, 6, cr2, cr9, cr9, {3}
    1638:	64756c63 	ldrbtvs	r6, [r5], #-3171	; 0xfffff39d
    163c:	79732f65 	ldmdbvc	r3!, {r0, r2, r5, r6, r8, r9, sl, fp, sp}^
    1640:	752f0073 	strvc	r0, [pc, #-115]!	; 15d5 <_start-0x6a2b>
    1644:	6c2f7273 	sfmvs	f7, 4, [pc], #-460	; 1480 <_start-0x6b80>
    1648:	672f6269 	strvs	r6, [pc, -r9, ror #4]!
    164c:	612f6363 			; <UNDEFINED> instruction: 0x612f6363
    1650:	6e2d6d72 	mcrvs	13, 1, r6, cr13, cr2, {3}
    1654:	2d656e6f 	stclcs	14, cr6, [r5, #-444]!	; 0xfffffe44
    1658:	69626165 	stmdbvs	r2!, {r0, r2, r5, r6, r8, sp, lr}^
    165c:	322e392f 	eorcc	r3, lr, #770048	; 0xbc000
    1660:	692f302e 	stmdbvs	pc!, {r1, r2, r3, r5, ip, sp}	; <UNPREDICTABLE>
    1664:	756c636e 	strbvc	r6, [ip, #-878]!	; 0xfffffc92
    1668:	2f006564 	svccs	0x00006564
    166c:	656d6f68 	strbvs	r6, [sp, #-3944]!	; 0xfffff098
    1670:	6573752f 	ldrbvs	r7, [r3, #-1327]!	; 0xfffffad1
    1674:	65442f72 	strbvs	r2, [r4, #-3954]	; 0xfffff08e
    1678:	53432f76 	movtpl	r2, #16246	; 0x3f76
    167c:	58303432 	ldmdapl	r0!, {r1, r4, r5, sl, ip, sp}
    1680:	62696c2f 	rsbvs	r6, r9, #12032	; 0x2f00
    1684:	692f6970 	stmdbvs	pc!, {r4, r5, r6, r8, fp, sp, lr}	; <UNPREDICTABLE>
    1688:	756c636e 	strbvc	r6, [ip, #-878]!	; 0xfffffc92
    168c:	00006564 	andeq	r6, r0, r4, ror #10
    1690:	6f626572 	svcvs	0x00626572
    1694:	632e746f 			; <UNDEFINED> instruction: 0x632e746f
    1698:	00000100 	andeq	r0, r0, r0, lsl #2
    169c:	6b636f6c 	blvs	18dd454 <__bss_end__+0x18d3454>
    16a0:	0200682e 	andeq	r6, r0, #3014656	; 0x2e0000
    16a4:	745f0000 	ldrbvc	r0, [pc], #-0	; 16ac <_start-0x6954>
    16a8:	73657079 	cmnvc	r5, #121	; 0x79
    16ac:	0200682e 	andeq	r6, r0, #3014656	; 0x2e0000
    16b0:	74730000 	ldrbtvc	r0, [r3], #-0
    16b4:	66656464 	strbtvs	r6, [r5], -r4, ror #8
    16b8:	0300682e 	movweq	r6, #2094	; 0x82e
    16bc:	65720000 	ldrbvs	r0, [r2, #-0]!
    16c0:	2e746e65 	cdpcs	14, 7, cr6, cr4, cr5, {3}
    16c4:	00020068 	andeq	r0, r2, r8, rrx
    16c8:	69707200 	ldmdbvs	r0!, {r9, ip, sp, lr}^
    16cc:	0400682e 	streq	r6, [r0], #-2094	; 0xfffff7d2
    16d0:	05000000 	streq	r0, [r0, #-0]
    16d4:	02050019 	andeq	r0, r5, #25
    16d8:	00009088 	andeq	r9, r0, r8, lsl #1
    16dc:	05010d03 	streq	r0, [r1, #-3331]	; 0xfffff2fd
    16e0:	31131305 	tstcc	r3, r5, lsl #6
    16e4:	01061305 	tsteq	r6, r5, lsl #6
    16e8:	052f0105 	streq	r0, [pc, #-261]!	; 15eb <_start-0x6a15>
    16ec:	0585061b 	streq	r0, [r5, #1563]	; 0x61b
    16f0:	05141305 	ldreq	r1, [r4, #-773]	; 0xfffffcfb
    16f4:	16052f09 	strne	r2, [r5], -r9, lsl #30
    16f8:	0e050106 	adfeqs	f0, f5, f6
    16fc:	0605052e 	streq	r0, [r5], -lr, lsr #10
    1700:	0601052f 	streq	r0, [r1], -pc, lsr #10
    1704:	0617052f 	ldreq	r0, [r7], -pc, lsr #10
    1708:	2f050530 	svccs	0x00050530
    170c:	01060805 	tsteq	r6, r5, lsl #16
    1710:	052e0705 	streq	r0, [lr, #-1797]!	; 0xfffff8fb
    1714:	4c520605 	mrrcmi	6, 0, r0, r2, cr5
    1718:	15131313 	ldrne	r1, [r3, #-787]	; 0xfffffced
    171c:	04020067 	streq	r0, [r2], #-103	; 0xffffff99
    1720:	0d056701 	stceq	7, cr6, [r5, #-4]
    1724:	01040200 	mrseq	r0, R12_usr
    1728:	000a0501 	andeq	r0, sl, r1, lsl #10
    172c:	01010402 	tsteq	r1, r2, lsl #8
    1730:	6f030905 	svcvs	0x00030905
    1734:	000c022e 	andeq	r0, ip, lr, lsr #4
    1738:	015a0101 	cmpeq	sl, r1, lsl #2
    173c:	00030000 	andeq	r0, r3, r0
    1740:	000000ca 	andeq	r0, r0, sl, asr #1
    1744:	0efb0102 	cdpeq	1, 15, cr0, cr11, cr2, {0}
    1748:	0101000d 	tsteq	r1, sp
    174c:	00000101 	andeq	r0, r0, r1, lsl #2
    1750:	00000100 	andeq	r0, r0, r0, lsl #2
    1754:	61747301 	cmnvs	r4, r1, lsl #6
    1758:	732d6666 			; <UNDEFINED> instruction: 0x732d6666
    175c:	2f006372 	svccs	0x00006372
    1760:	2f727375 	svccs	0x00727375
    1764:	2d6d7261 	sfmcs	f7, 2, [sp, #-388]!	; 0xfffffe7c
    1768:	656e6f6e 	strbvs	r6, [lr, #-3950]!	; 0xfffff092
    176c:	6261652d 	rsbvs	r6, r1, #188743680	; 0xb400000
    1770:	6e692f69 	cdpvs	15, 6, cr2, cr9, cr9, {3}
    1774:	64756c63 	ldrbtvs	r6, [r5], #-3171	; 0xfffff39d
    1778:	79732f65 	ldmdbvc	r3!, {r0, r2, r5, r6, r8, r9, sl, fp, sp}^
    177c:	752f0073 	strvc	r0, [pc, #-115]!	; 1711 <_start-0x68ef>
    1780:	6c2f7273 	sfmvs	f7, 4, [pc], #-460	; 15bc <_start-0x6a44>
    1784:	672f6269 	strvs	r6, [pc, -r9, ror #4]!
    1788:	612f6363 			; <UNDEFINED> instruction: 0x612f6363
    178c:	6e2d6d72 	mcrvs	13, 1, r6, cr13, cr2, {3}
    1790:	2d656e6f 	stclcs	14, cr6, [r5, #-444]!	; 0xfffffe44
    1794:	69626165 	stmdbvs	r2!, {r0, r2, r5, r6, r8, sp, lr}^
    1798:	322e392f 	eorcc	r3, lr, #770048	; 0xbc000
    179c:	692f302e 	stmdbvs	pc!, {r1, r2, r3, r5, ip, sp}	; <UNPREDICTABLE>
    17a0:	756c636e 	strbvc	r6, [ip, #-878]!	; 0xfffffc92
    17a4:	2f006564 	svccs	0x00006564
    17a8:	656d6f68 	strbvs	r6, [sp, #-3944]!	; 0xfffff098
    17ac:	6573752f 	ldrbvs	r7, [r3, #-1327]!	; 0xfffffad1
    17b0:	65442f72 	strbvs	r2, [r4, #-3954]	; 0xfffff08e
    17b4:	53432f76 	movtpl	r2, #16246	; 0x3f76
    17b8:	58303432 	ldmdapl	r0!, {r1, r4, r5, sl, ip, sp}
    17bc:	62696c2f 	rsbvs	r6, r9, #12032	; 0x2f00
    17c0:	692f6970 	stmdbvs	pc!, {r4, r5, r6, r8, fp, sp, lr}	; <UNPREDICTABLE>
    17c4:	756c636e 	strbvc	r6, [ip, #-878]!	; 0xfffffc92
    17c8:	00006564 	andeq	r6, r0, r4, ror #10
    17cc:	656d6974 	strbvs	r6, [sp, #-2420]!	; 0xfffff68c
    17d0:	00632e72 	rsbeq	r2, r3, r2, ror lr
    17d4:	6c000001 	stcvs	0, cr0, [r0], {1}
    17d8:	2e6b636f 	cdpcs	3, 6, cr6, cr11, cr15, {3}
    17dc:	00020068 	andeq	r0, r2, r8, rrx
    17e0:	79745f00 	ldmdbvc	r4!, {r8, r9, sl, fp, ip, lr}^
    17e4:	2e736570 	mrccs	5, 3, r6, cr3, cr0, {3}
    17e8:	00020068 	andeq	r0, r2, r8, rrx
    17ec:	64747300 	ldrbtvs	r7, [r4], #-768	; 0xfffffd00
    17f0:	2e666564 	cdpcs	5, 6, cr6, cr6, cr4, {3}
    17f4:	00030068 	andeq	r0, r3, r8, rrx
    17f8:	65657200 	strbvs	r7, [r5, #-512]!	; 0xfffffe00
    17fc:	682e746e 	stmdavs	lr!, {r1, r2, r3, r5, r6, sl, ip, sp, lr}
    1800:	00000200 	andeq	r0, r0, r0, lsl #4
    1804:	2e697072 	mcrcs	0, 3, r7, cr9, cr2, {3}
    1808:	00040068 	andeq	r0, r4, r8, rrx
    180c:	23050000 	movwcs	r0, #20480	; 0x5000
    1810:	00020500 	andeq	r0, r2, r0, lsl #10
    1814:	16000091 			; <UNDEFINED> instruction: 0x16000091
    1818:	05140505 	ldreq	r0, [r4, #-1285]	; 0xfffffafb
    181c:	1005010a 	andne	r0, r5, sl, lsl #2
    1820:	0a050106 	beq	141c40 <__bss_end__+0x137c40>
    1824:	0609052e 	streq	r0, [r9], -lr, lsr #10
    1828:	0610054b 	ldreq	r0, [r0], -fp, asr #10
    182c:	0623052d 	strteq	r0, [r3], -sp, lsr #10
    1830:	054a0a03 	strbeq	r0, [sl, #-2563]	; 0xfffff5fd
    1834:	0c052f05 	stceq	15, cr2, [r5], {5}
    1838:	01050106 	tsteq	r5, r6, lsl #2
    183c:	061f054b 	ldreq	r0, [pc], -fp, asr #10
    1840:	3205054d 	andcc	r0, r5, #322961408	; 0x13400000
    1844:	01061205 	tsteq	r6, r5, lsl #4
    1848:	30060505 	andcc	r0, r6, r5, lsl #10
    184c:	13060105 	movwne	r0, #24837	; 0x6105
    1850:	30061c05 	andcc	r1, r6, r5, lsl #24
    1854:	05050106 	streq	r0, [r5, #-262]	; 0xfffffefa
    1858:	13054b06 	movwne	r4, #23302	; 0x5b06
    185c:	052e0106 	streq	r0, [lr, #-262]!	; 0xfffffefa
    1860:	052f0605 	streq	r0, [pc, #-1541]!	; 1263 <_start-0x6d9d>
    1864:	17051309 	strne	r1, [r5, -r9, lsl #6]
    1868:	09050106 	stmdbeq	r5, {r1, r2, r8}
    186c:	11052f06 	tstne	r5, r6, lsl #30
    1870:	0c050106 	stfeqs	f0, [r5], {6}
    1874:	061c052e 	ldreq	r0, [ip], -lr, lsr #10
    1878:	0501066b 	streq	r0, [r1, #-1643]	; 0xfffff995
    187c:	062f0605 	strteq	r0, [pc], -r5, lsl #12
    1880:	4b01054a 	blmi	42db0 <__bss_end__+0x38db0>
    1884:	2f061e05 	svccs	0x00061e05
    1888:	05050106 	streq	r0, [r5, #-262]	; 0xfffffefa
    188c:	4a062f06 	bmi	18d4ac <__bss_end__+0x1834ac>
    1890:	024b0105 	subeq	r0, fp, #1073741825	; 0x40000001
    1894:	01010002 	tsteq	r1, r2
    1898:	00000148 	andeq	r0, r0, r8, asr #2
    189c:	01020002 	tsteq	r2, r2
    18a0:	01020000 	mrseq	r0, (UNDEF: 2)
    18a4:	000d0efb 	strdeq	r0, [sp], -fp
    18a8:	01010101 	tsteq	r1, r1, lsl #2
    18ac:	01000000 	mrseq	r0, (UNDEF: 0)
    18b0:	2f010000 	svccs	0x00010000
    18b4:	2f727375 	svccs	0x00727375
    18b8:	6c636e69 	stclvs	14, cr6, [r3], #-420	; 0xfffffe5c
    18bc:	2f656475 	svccs	0x00656475
    18c0:	6c77656e 	cfldr64vs	mvdx6, [r7], #-440	; 0xfffffe48
    18c4:	732f6269 			; <UNDEFINED> instruction: 0x732f6269
    18c8:	2f007379 	svccs	0x00007379
    18cc:	2f727375 	svccs	0x00727375
    18d0:	2f62696c 	svccs	0x0062696c
    18d4:	2f636367 	svccs	0x00636367
    18d8:	2d6d7261 	sfmcs	f7, 2, [sp, #-388]!	; 0xfffffe7c
    18dc:	656e6f6e 	strbvs	r6, [lr, #-3950]!	; 0xfffff092
    18e0:	6261652d 	rsbvs	r6, r1, #188743680	; 0xb400000
    18e4:	2e362f69 	cdpcs	15, 3, cr2, cr6, cr9, {3}
    18e8:	2f312e33 	svccs	0x00312e33
    18ec:	6c636e69 	stclvs	14, cr6, [r3], #-420	; 0xfffffe5c
    18f0:	00656475 	rsbeq	r6, r5, r5, ror r4
    18f4:	6d6f682f 	stclvs	8, cr6, [pc, #-188]!	; 1840 <_start-0x67c0>
    18f8:	6e652f65 	cdpvs	15, 6, cr2, cr5, cr5, {3}
    18fc:	72656c67 	rsbvc	r6, r5, #26368	; 0x6700
    1900:	616c632f 	cmnvs	ip, pc, lsr #6
    1904:	632f7373 			; <UNDEFINED> instruction: 0x632f7373
    1908:	30343273 	eorscc	r3, r4, r3, ror r2
    190c:	322d786c 	eorcc	r7, sp, #108, 16	; 0x6c0000
    1910:	72707330 	rsbsvc	r7, r0, #48, 6	; 0xc0000000
    1914:	696c2f2f 	stmdbvs	ip!, {r0, r1, r2, r3, r5, r8, r9, sl, fp, sp}^
    1918:	00697062 	rsbeq	r7, r9, r2, rrx
    191c:	6d6f682f 	stclvs	8, cr6, [pc, #-188]!	; 1868 <_start-0x6798>
    1920:	6e652f65 	cdpvs	15, 6, cr2, cr5, cr5, {3}
    1924:	72656c67 	rsbvc	r6, r5, #26368	; 0x6700
    1928:	616c632f 	cmnvs	ip, pc, lsr #6
    192c:	632f7373 			; <UNDEFINED> instruction: 0x632f7373
    1930:	30343273 	eorscc	r3, r4, r3, ror r2
    1934:	322d786c 	eorcc	r7, sp, #108, 16	; 0x6c0000
    1938:	72707330 	rsbsvc	r7, r0, #48, 6	; 0xc0000000
    193c:	696c2f2f 	stmdbvs	ip!, {r0, r1, r2, r3, r5, r8, r9, sl, fp, sp}^
    1940:	2f697062 	svccs	0x00697062
    1944:	66617473 			; <UNDEFINED> instruction: 0x66617473
    1948:	72732d66 	rsbsvc	r2, r3, #6528	; 0x1980
    194c:	75000063 	strvc	r0, [r0, #-99]	; 0xffffff9d
    1950:	2e747261 	cdpcs	2, 7, cr7, cr4, cr1, {3}
    1954:	00000063 	andeq	r0, r0, r3, rrx
    1958:	636f6c00 	cmnvs	pc, #0, 24
    195c:	00682e6b 	rsbeq	r2, r8, fp, ror #28
    1960:	5f000001 	svcpl	0x00000001
    1964:	65707974 	ldrbvs	r7, [r0, #-2420]!	; 0xfffff68c
    1968:	00682e73 	rsbeq	r2, r8, r3, ror lr
    196c:	73000001 	movwvc	r0, #1
    1970:	65646474 	strbvs	r6, [r4, #-1140]!	; 0xfffffb8c
    1974:	00682e66 	rsbeq	r2, r8, r6, ror #28
    1978:	72000002 	andvc	r0, r0, #2
    197c:	746e6565 	strbtvc	r6, [lr], #-1381	; 0xfffffa9b
    1980:	0100682e 	tsteq	r0, lr, lsr #16
    1984:	70720000 	rsbsvc	r0, r2, r0
    1988:	00682e69 	rsbeq	r2, r8, r9, ror #28
    198c:	75000003 	strvc	r0, [r0, #-3]
    1990:	2e747261 	cdpcs	2, 7, cr7, cr4, cr1, {3}
    1994:	00040068 	andeq	r0, r4, r8, rrx
    1998:	69706700 	ldmdbvs	r0!, {r8, r9, sl, sp, lr}^
    199c:	00682e6f 	rsbeq	r2, r8, pc, ror #28
    19a0:	00000004 	andeq	r0, r0, r4
    19a4:	d8020500 	stmdale	r2, {r8, sl}
    19a8:	03000091 	movweq	r0, #145	; 0x91
    19ac:	0367012c 	cmneq	r7, #44, 2
    19b0:	67359e0c 	ldrvs	r9, [r5, -ip, lsl #28]!
    19b4:	03683568 	cmneq	r8, #104, 10	; 0x1a000000
    19b8:	6b852e0c 	blvs	fe14d1f0 <__bss_end__+0xfe1431f0>
    19bc:	0c036969 			; <UNDEFINED> instruction: 0x0c036969
    19c0:	08676b66 	stmdaeq	r7!, {r1, r2, r5, r6, r8, r9, fp, sp, lr}^
    19c4:	4b683442 	blmi	1a0ead4 <__bss_end__+0x1a04ad4>
    19c8:	2f876836 	svccs	0x00876836
    19cc:	01040200 	mrseq	r0, R12_usr
    19d0:	3067682f 	rsbcc	r6, r7, pc, lsr #16
    19d4:	02004b67 	andeq	r4, r0, #105472	; 0x19c00
    19d8:	682f0104 	stmdavs	pc!, {r2, r8}	; <UNPREDICTABLE>
    19dc:	022e6967 	eoreq	r6, lr, #1687552	; 0x19c000
    19e0:	01010006 	tsteq	r1, r6
    19e4:	0000012b 	andeq	r0, r0, fp, lsr #2
    19e8:	00f80002 	rscseq	r0, r8, r2
    19ec:	01020000 	mrseq	r0, (UNDEF: 2)
    19f0:	000d0efb 	strdeq	r0, [sp], -fp
    19f4:	01010101 	tsteq	r1, r1, lsl #2
    19f8:	01000000 	mrseq	r0, (UNDEF: 0)
    19fc:	2f010000 	svccs	0x00010000
    1a00:	2f727375 	svccs	0x00727375
    1a04:	6c636e69 	stclvs	14, cr6, [r3], #-420	; 0xfffffe5c
    1a08:	2f656475 	svccs	0x00656475
    1a0c:	6c77656e 	cfldr64vs	mvdx6, [r7], #-440	; 0xfffffe48
    1a10:	732f6269 			; <UNDEFINED> instruction: 0x732f6269
    1a14:	2f007379 	svccs	0x00007379
    1a18:	2f727375 	svccs	0x00727375
    1a1c:	2f62696c 	svccs	0x0062696c
    1a20:	2f636367 	svccs	0x00636367
    1a24:	2d6d7261 	sfmcs	f7, 2, [sp, #-388]!	; 0xfffffe7c
    1a28:	656e6f6e 	strbvs	r6, [lr, #-3950]!	; 0xfffff092
    1a2c:	6261652d 	rsbvs	r6, r1, #188743680	; 0xb400000
    1a30:	2e362f69 	cdpcs	15, 3, cr2, cr6, cr9, {3}
    1a34:	2f312e33 	svccs	0x00312e33
    1a38:	6c636e69 	stclvs	14, cr6, [r3], #-420	; 0xfffffe5c
    1a3c:	00656475 	rsbeq	r6, r5, r5, ror r4
    1a40:	6d6f682f 	stclvs	8, cr6, [pc, #-188]!	; 198c <_start-0x6674>
    1a44:	6e652f65 	cdpvs	15, 6, cr2, cr5, cr5, {3}
    1a48:	72656c67 	rsbvc	r6, r5, #26368	; 0x6700
    1a4c:	616c632f 	cmnvs	ip, pc, lsr #6
    1a50:	632f7373 			; <UNDEFINED> instruction: 0x632f7373
    1a54:	30343273 	eorscc	r3, r4, r3, ror r2
    1a58:	322d786c 	eorcc	r7, sp, #108, 16	; 0x6c0000
    1a5c:	72707330 	rsbsvc	r7, r0, #48, 6	; 0xc0000000
    1a60:	696c2f2f 	stmdbvs	ip!, {r0, r1, r2, r3, r5, r8, r9, sl, fp, sp}^
    1a64:	00697062 	rsbeq	r7, r9, r2, rrx
    1a68:	6d6f682f 	stclvs	8, cr6, [pc, #-188]!	; 19b4 <_start-0x664c>
    1a6c:	6e652f65 	cdpvs	15, 6, cr2, cr5, cr5, {3}
    1a70:	72656c67 	rsbvc	r6, r5, #26368	; 0x6700
    1a74:	616c632f 	cmnvs	ip, pc, lsr #6
    1a78:	632f7373 			; <UNDEFINED> instruction: 0x632f7373
    1a7c:	30343273 	eorscc	r3, r4, r3, ror r2
    1a80:	322d786c 	eorcc	r7, sp, #108, 16	; 0x6c0000
    1a84:	72707330 	rsbsvc	r7, r0, #48, 6	; 0xc0000000
    1a88:	696c2f2f 	stmdbvs	ip!, {r0, r1, r2, r3, r5, r8, r9, sl, fp, sp}^
    1a8c:	2f697062 	svccs	0x00697062
    1a90:	66617473 			; <UNDEFINED> instruction: 0x66617473
    1a94:	72732d66 	rsbsvc	r2, r3, #6528	; 0x1980
    1a98:	67000063 	strvs	r0, [r0, -r3, rrx]
    1a9c:	2e6f6970 			; <UNDEFINED> instruction: 0x2e6f6970
    1aa0:	00000063 	andeq	r0, r0, r3, rrx
    1aa4:	636f6c00 	cmnvs	pc, #0, 24
    1aa8:	00682e6b 	rsbeq	r2, r8, fp, ror #28
    1aac:	5f000001 	svcpl	0x00000001
    1ab0:	65707974 	ldrbvs	r7, [r0, #-2420]!	; 0xfffff68c
    1ab4:	00682e73 	rsbeq	r2, r8, r3, ror lr
    1ab8:	73000001 	movwvc	r0, #1
    1abc:	65646474 	strbvs	r6, [r4, #-1140]!	; 0xfffffb8c
    1ac0:	00682e66 	rsbeq	r2, r8, r6, ror #28
    1ac4:	72000002 	andvc	r0, r0, #2
    1ac8:	746e6565 	strbtvc	r6, [lr], #-1381	; 0xfffffa9b
    1acc:	0100682e 	tsteq	r0, lr, lsr #16
    1ad0:	70720000 	rsbsvc	r0, r2, r0
    1ad4:	00682e69 	rsbeq	r2, r8, r9, ror #28
    1ad8:	67000003 	strvs	r0, [r0, -r3]
    1adc:	2e6f6970 			; <UNDEFINED> instruction: 0x2e6f6970
    1ae0:	00040068 	andeq	r0, r4, r8, rrx
    1ae4:	05000000 	streq	r0, [r0, #-0]
    1ae8:	00935002 	addseq	r5, r3, r2
    1aec:	01270300 			; <UNDEFINED> instruction: 0x01270300
    1af0:	4f474c13 	svcmi	0x00474c13
    1af4:	4c4b68f4 	mcrrmi	8, 15, r6, fp, cr4
    1af8:	136a2fa1 	cmnne	sl, #644	; 0x284
    1afc:	13be3149 			; <UNDEFINED> instruction: 0x13be3149
    1b00:	2fbe3149 	svccs	0x00be3149
    1b04:	484d2f6a 	stmdami	sp, {r1, r3, r5, r6, r8, r9, sl, fp, sp}^
    1b08:	3249134f 	subcc	r1, r9, #1006632961	; 0x3c000001
    1b0c:	0602b72f 	streq	fp, [r2], -pc, lsr #14
    1b10:	34010100 	strcc	r0, [r1], #-256	; 0xffffff00
    1b14:	02000001 	andeq	r0, r0, #1
    1b18:	0000df00 	andeq	sp, r0, r0, lsl #30
    1b1c:	fb010200 	blx	42326 <__bss_end__+0x38326>
    1b20:	01000d0e 	tsteq	r0, lr, lsl #26
    1b24:	00010101 	andeq	r0, r1, r1, lsl #2
    1b28:	00010000 	andeq	r0, r1, r0
    1b2c:	752f0100 	strvc	r0, [pc, #-256]!	; 1a34 <_start-0x65cc>
    1b30:	692f7273 	stmdbvs	pc!, {r0, r1, r4, r5, r6, r9, ip, sp, lr}	; <UNPREDICTABLE>
    1b34:	756c636e 	strbvc	r6, [ip, #-878]!	; 0xfffffc92
    1b38:	6e2f6564 	cfsh64vs	mvdx6, mvdx15, #52
    1b3c:	696c7765 	stmdbvs	ip!, {r0, r2, r5, r6, r8, r9, sl, ip, sp, lr}^
    1b40:	79732f62 	ldmdbvc	r3!, {r1, r5, r6, r8, r9, sl, fp, sp}^
    1b44:	752f0073 	strvc	r0, [pc, #-115]!	; 1ad9 <_start-0x6527>
    1b48:	6c2f7273 	sfmvs	f7, 4, [pc], #-460	; 1984 <_start-0x667c>
    1b4c:	672f6269 	strvs	r6, [pc, -r9, ror #4]!
    1b50:	612f6363 			; <UNDEFINED> instruction: 0x612f6363
    1b54:	6e2d6d72 	mcrvs	13, 1, r6, cr13, cr2, {3}
    1b58:	2d656e6f 	stclcs	14, cr6, [r5, #-444]!	; 0xfffffe44
    1b5c:	69626165 	stmdbvs	r2!, {r0, r2, r5, r6, r8, sp, lr}^
    1b60:	332e362f 			; <UNDEFINED> instruction: 0x332e362f
    1b64:	692f312e 	stmdbvs	pc!, {r1, r2, r3, r5, r8, ip, sp}	; <UNPREDICTABLE>
    1b68:	756c636e 	strbvc	r6, [ip, #-878]!	; 0xfffffc92
    1b6c:	2f006564 	svccs	0x00006564
    1b70:	656d6f68 	strbvs	r6, [sp, #-3944]!	; 0xfffff098
    1b74:	676e652f 	strbvs	r6, [lr, -pc, lsr #10]!
    1b78:	2f72656c 	svccs	0x0072656c
    1b7c:	73616c63 	cmnvc	r1, #25344	; 0x6300
    1b80:	73632f73 	cmnvc	r3, #460	; 0x1cc
    1b84:	6c303432 	cfldrsvs	mvf3, [r0], #-200	; 0xffffff38
    1b88:	30322d78 	eorscc	r2, r2, r8, ror sp
    1b8c:	2f727073 	svccs	0x00727073
    1b90:	62696c2f 	rsbvs	r6, r9, #12032	; 0x2f00
    1b94:	2f006970 	svccs	0x00006970
    1b98:	2f727375 	svccs	0x00727375
    1b9c:	6c636e69 	stclvs	14, cr6, [r3], #-420	; 0xfffffe5c
    1ba0:	2f656475 	svccs	0x00656475
    1ba4:	6c77656e 	cfldr64vs	mvdx6, [r7], #-440	; 0xfffffe48
    1ba8:	00006269 	andeq	r6, r0, r9, ror #4
    1bac:	6c616d6b 	stclvs	13, cr6, [r1], #-428	; 0xfffffe54
    1bb0:	2e636f6c 	cdpcs	15, 6, cr6, cr3, cr12, {3}
    1bb4:	00000063 	andeq	r0, r0, r3, rrx
    1bb8:	636f6c00 	cmnvs	pc, #0, 24
    1bbc:	00682e6b 	rsbeq	r2, r8, fp, ror #28
    1bc0:	5f000001 	svcpl	0x00000001
    1bc4:	65707974 	ldrbvs	r7, [r0, #-2420]!	; 0xfffff68c
    1bc8:	00682e73 	rsbeq	r2, r8, r3, ror lr
    1bcc:	73000001 	movwvc	r0, #1
    1bd0:	65646474 	strbvs	r6, [r4, #-1140]!	; 0xfffffb8c
    1bd4:	00682e66 	rsbeq	r2, r8, r6, ror #28
    1bd8:	72000002 	andvc	r0, r0, #2
    1bdc:	746e6565 	strbtvc	r6, [lr], #-1381	; 0xfffffa9b
    1be0:	0100682e 	tsteq	r0, lr, lsr #16
    1be4:	70720000 	rsbsvc	r0, r2, r0
    1be8:	00682e69 	rsbeq	r2, r8, r9, ror #28
    1bec:	73000003 	movwvc	r0, #3
    1bf0:	6e697274 	mcrvs	2, 3, r7, cr9, cr4, {3}
    1bf4:	00682e67 	rsbeq	r2, r8, r7, ror #28
    1bf8:	00000004 	andeq	r0, r0, r4
    1bfc:	70020500 	andvc	r0, r2, r0, lsl #10
    1c00:	03000094 	movweq	r0, #148	; 0x94
    1c04:	83010110 	movwhi	r0, #4368	; 0x1110
    1c08:	83146801 	tsthi	r4, #65536	; 0x10000
    1c0c:	01040200 	mrseq	r0, R12_usr
    1c10:	0402007f 	streq	r0, [r2], #-127	; 0xffffff81
    1c14:	5c083001 	stcpl	0, cr3, [r8], {1}
    1c18:	4b4c4b2f 	blmi	13148dc <__bss_end__+0x130a8dc>
    1c1c:	0200684b 	andeq	r6, r0, #4915200	; 0x4b0000
    1c20:	79030104 	stmdbvc	r3, {r2, r8}
    1c24:	0809034a 	stmdaeq	r9, {r1, r3, r6, r8, r9}
    1c28:	2e012f58 	mcrcs	15, 0, r2, cr1, cr8, {2}
    1c2c:	4b6a2f4e 	blmi	1a8d96c <__bss_end__+0x1a8396c>
    1c30:	2f4c6767 	svccs	0x004c6767
    1c34:	01040200 	mrseq	r0, R12_usr
    1c38:	002e7603 	eoreq	r7, lr, r3, lsl #12
    1c3c:	dc010402 	cfstrsle	mvf0, [r1], {2}
    1c40:	012f7a08 			; <UNDEFINED> instruction: 0x012f7a08
    1c44:	0802019f 	stmdaeq	r2, {r0, r1, r2, r3, r4, r7, r8}
    1c48:	Address 0x0000000000001c48 is out of bounds.


Disassembly of section .debug_str:

00000000 <.debug_str>:
   0:	6f73645f 	svcvs	0x0073645f
   4:	6e61685f 	mcrvs	8, 3, r6, cr1, cr15, {2}
   8:	00656c64 	rsbeq	r6, r5, r4, ror #24
   c:	685f6b63 	ldmdavs	pc, {r0, r1, r5, r6, r8, r9, fp, sp, lr}^	; <UNPREDICTABLE>
  10:	5f706165 	svcpl	0x00706165
  14:	6f727265 	svcvs	0x00727265
  18:	5f007372 	svcpl	0x00007372
  1c:	657a6973 	ldrbvs	r6, [sl, #-2419]!	; 0xfffff68d
  20:	72617000 	rsbvc	r7, r1, #0
  24:	742d3174 	strtvc	r3, [sp], #-372	; 0xfffffe8c
  28:	33747365 	cmncc	r4, #-1811939327	; 0x94000001
  2c:	5f00632e 	svcpl	0x0000632e
  30:	646e6172 	strbtvs	r6, [lr], #-370	; 0xfffffe8e
  34:	5f003834 	svcpl	0x00003834
  38:	72656d65 	rsbvc	r6, r5, #6464	; 0x1940
  3c:	636e6567 	cmnvs	lr, #432013312	; 0x19c00000
  40:	6f6e0079 	svcvs	0x006e0079
  44:	69616d74 	stmdbvs	r1!, {r2, r4, r5, r6, r8, sl, fp, sp, lr}^
  48:	775f006e 	ldrbvc	r0, [pc, -lr, rrx]
  4c:	6f747263 	svcvs	0x00747263
  50:	735f626d 	cmpvc	pc, #-805306362	; 0xd0000006
  54:	65746174 	ldrbvs	r6, [r4, #-372]!	; 0xfffffe8c
  58:	63775f00 	cmnvs	r7, #0, 30
  5c:	6f747273 	svcvs	0x00747273
  60:	5f73626d 	svcpl	0x0073626d
  64:	74617473 	strbtvc	r7, [r1], #-1139	; 0xfffffb8d
  68:	6f6c0065 	svcvs	0x006c0065
  6c:	6c20676e 	stcvs	7, cr6, [r0], #-440	; 0xfffffe48
  70:	20676e6f 	rsbcs	r6, r7, pc, ror #28
  74:	69736e75 	ldmdbvs	r3!, {r0, r2, r4, r5, r6, r9, sl, fp, sp, lr}^
  78:	64656e67 	strbtvs	r6, [r5], #-3687	; 0xfffff199
  7c:	746e6920 	strbtvc	r6, [lr], #-2336	; 0xfffff6e0
  80:	616b6300 	cmnvs	fp, r0, lsl #6
  84:	636f6c6c 	cmnvs	pc, #108, 24	; 0x6c00
  88:	626c5f00 	rsbvs	r5, ip, #0, 30
  8c:	7a697366 	bvc	1a5ce2c <__bss_end__+0x1a52e2c>
  90:	5f5f0065 	svcpl	0x005f0065
  94:	61636f6c 	cmnvs	r3, ip, ror #30
  98:	745f656c 	ldrbvc	r6, [pc], #-1388	; a0 <_start-0x7f60>
  9c:	626d5f00 	rsbvs	r5, sp, #0, 30
  a0:	776f7472 			; <UNDEFINED> instruction: 0x776f7472
  a4:	74735f63 	ldrbtvc	r5, [r3], #-3939	; 0xfffff09d
  a8:	00657461 	rsbeq	r7, r5, r1, ror #8
  ac:	6d745f5f 	ldclvs	15, cr5, [r4, #-380]!	; 0xfffffe84
  b0:	6365735f 	cmnvs	r5, #2080374785	; 0x7c000001
  b4:	6e6f6c00 	cdpvs	12, 6, cr6, cr15, cr0, {0}
  b8:	6f6c2067 	svcvs	0x006c2067
  bc:	6920676e 	stmdbvs	r0!, {r1, r2, r3, r5, r6, r8, r9, sl, sp, lr}
  c0:	5f00746e 	svcpl	0x0000746e
  c4:	66756275 			; <UNDEFINED> instruction: 0x66756275
  c8:	61625f00 	cmnvs	r2, r0, lsl #30
  cc:	5f006573 	svcpl	0x00006573
  d0:	5f6d745f 	svcpl	0x006d745f
  d4:	72756f68 	rsbsvc	r6, r5, #104, 30	; 0x1a0
  d8:	6f682f00 	svcvs	0x00682f00
  dc:	752f656d 	strvc	r6, [pc, #-1389]!	; fffffb77 <__bss_end__+0xffff5b77>
  e0:	2f726573 	svccs	0x00726573
  e4:	2f766544 	svccs	0x00766544
  e8:	34325343 	ldrtcc	r5, [r2], #-835	; 0xfffffcbd
  ec:	6c2f5830 	stcvs	8, cr5, [pc], #-192	; 34 <_start-0x7fcc>
  f0:	2f736261 	svccs	0x00736261
  f4:	6d2d3031 	stcvs	0, cr3, [sp, #-196]!	; 0xffffff3c
  f8:	68636d65 	stmdavs	r3!, {r0, r2, r5, r6, r8, sl, fp, sp, lr}^
  fc:	2d6b6365 	stclcs	3, cr6, [fp, #-404]!	; 0xfffffe6c
 100:	74617473 	strbtvc	r7, [r1], #-1139	; 0xfffffb8d
 104:	646f632f 	strbtvs	r6, [pc], #-815	; 10c <_start-0x7ef4>
 108:	5f5f0065 	svcpl	0x005f0065
 10c:	5f006673 	svcpl	0x00006673
 110:	655f6e6f 	ldrbvs	r6, [pc, #-3695]	; fffff2a9 <__bss_end__+0xffff52a9>
 114:	5f746978 	svcpl	0x00746978
 118:	73677261 	cmnvc	r7, #268435462	; 0x10000006
 11c:	6f635f00 	svcvs	0x00635f00
 120:	65696b6f 	strbvs	r6, [r9, #-2927]!	; 0xfffff491
 124:	735f5f00 	cmpvc	pc, #0, 30
 128:	65756c67 	ldrbvs	r6, [r5, #-3175]!	; 0xfffff399
 12c:	6c665f00 	stclvs	15, cr5, [r6], #-0
 130:	00736761 	rsbseq	r6, r3, r1, ror #14
 134:	5f73695f 	svcpl	0x0073695f
 138:	00617863 	rsbeq	r7, r1, r3, ror #16
 13c:	6474735f 	ldrbtvs	r7, [r4], #-863	; 0xfffffca1
 140:	63006e69 	movwvs	r6, #3689	; 0xe69
 144:	6e695f6b 	cdpvs	15, 6, cr5, cr9, cr11, {3}
 148:	5f007469 	svcpl	0x00007469
 14c:	736b6c62 	cmnvc	fp, #25088	; 0x6200
 150:	00657a69 	rsbeq	r7, r5, r9, ror #20
 154:	7476635f 	ldrbtvc	r6, [r6], #-863	; 0xfffffca1
 158:	00667562 	rsbeq	r7, r6, r2, ror #10
 15c:	66666f5f 	uqsaxvs	r6, r6, pc	; <UNPREDICTABLE>
 160:	00746573 	rsbseq	r6, r4, r3, ror r5
 164:	6c616d6b 	stclvs	13, cr6, [r1], #-428	; 0xfffffe54
 168:	5f636f6c 	svcpl	0x00636f6c
 16c:	74696e69 	strbtvc	r6, [r9], #-3689	; 0xfffff197
 170:	7465735f 	strbtvc	r7, [r5], #-863	; 0xfffffca1
 174:	6174735f 	cmnvs	r4, pc, asr r3
 178:	5f007472 	svcpl	0x00007472
 17c:	7273626d 	rsbsvc	r6, r3, #-805306362	; 0xd0000006
 180:	63776f74 	cmnvs	r7, #116, 30	; 0x1d0
 184:	74735f73 	ldrbtvc	r5, [r3], #-3955	; 0xfffff08d
 188:	00657461 	rsbeq	r7, r5, r1, ror #8
 18c:	72626d5f 	rsbvc	r6, r2, #6080	; 0x17c0
 190:	5f6e656c 	svcpl	0x006e656c
 194:	74617473 	strbtvc	r7, [r1], #-1139	; 0xfffffb8d
 198:	665f0065 	ldrbvs	r0, [pc], -r5, rrx
 19c:	6772616e 	ldrbvs	r6, [r2, -lr, ror #2]!
 1a0:	665f0073 			; <UNDEFINED> instruction: 0x665f0073
 1a4:	5f00736e 	svcpl	0x0000736e
 1a8:	6e676973 			; <UNDEFINED> instruction: 0x6e676973
 1ac:	6c665f00 	stclvs	15, cr5, [r6], #-0
 1b0:	5f6b636f 	svcpl	0x006b636f
 1b4:	735f0074 	cmpvc	pc, #116	; 0x74
 1b8:	72656474 	rsbvc	r6, r5, #116, 8	; 0x74000000
 1bc:	425f0072 	subsmi	r0, pc, #114	; 0x72
 1c0:	6e696769 	cdpvs	7, 6, cr6, cr9, cr9, {3}
 1c4:	675f0074 			; <UNDEFINED> instruction: 0x675f0074
 1c8:	616d6d61 	cmnvs	sp, r1, ror #26
 1cc:	6769735f 			; <UNDEFINED> instruction: 0x6769735f
 1d0:	6d61676e 	stclvs	7, cr6, [r1, #-440]!	; 0xfffffe48
 1d4:	65725f00 	ldrbvs	r5, [r2, #-3840]!	; 0xfffff100
 1d8:	746c7573 	strbtvc	r7, [ip], #-1395	; 0xfffffa8d
 1dc:	72006b5f 	andvc	r6, r0, #97280	; 0x17c00
 1e0:	705f6970 	subsvc	r6, pc, r0, ror r9	; <UNPREDICTABLE>
 1e4:	68637475 	stmdavs	r3!, {r0, r2, r4, r5, r6, sl, ip, sp, lr}^
 1e8:	5f007261 	svcpl	0x00007261
 1ec:	006d745f 	rsbeq	r7, sp, pc, asr r4
 1f0:	63775f5f 	cmnvs	r7, #380	; 0x17c
 1f4:	72006268 	andvc	r6, r0, #104, 4	; 0x80000006
 1f8:	725f6970 	subsvc	r6, pc, #112, 18	; 0x1c0000
 1fc:	74657365 	strbtvc	r7, [r5], #-869	; 0xfffffc9b
 200:	7475705f 	ldrbtvc	r7, [r5], #-95	; 0xffffffa1
 204:	735f0063 	cmpvc	pc, #99	; 0x63
 208:	756f6474 	strbvc	r6, [pc, #-1140]!	; fffffd9c <__bss_end__+0xffff5d9c>
 20c:	635f0074 	cmpvs	pc, #116	; 0x74
 210:	656c7476 	strbvs	r7, [ip, #-1142]!	; 0xfffffb8a
 214:	665f006e 	ldrbvs	r0, [pc], -lr, rrx
 218:	00656c69 	rsbeq	r6, r5, r9, ror #24
 21c:	55465f5f 	strbpl	r5, [r6, #-3935]	; 0xfffff0a1
 220:	4954434e 	ldmdbmi	r4, {r1, r2, r3, r6, r8, r9, lr}^
 224:	5f5f4e4f 	svcpl	0x005f4e4f
 228:	696e5f00 	stmdbvs	lr!, {r8, r9, sl, fp, ip, lr}^
 22c:	0073626f 	rsbseq	r6, r3, pc, ror #4
 230:	726f6873 	rsbvc	r6, pc, #7536640	; 0x730000
 234:	6e752074 	mrcvs	0, 3, r2, cr5, cr4, {3}
 238:	6e676973 			; <UNDEFINED> instruction: 0x6e676973
 23c:	69206465 	stmdbvs	r0!, {r0, r2, r5, r6, sl, sp, lr}
 240:	5f00746e 	svcpl	0x0000746e
 244:	78657461 	stmdavc	r5!, {r0, r5, r6, sl, ip, sp, lr}^
 248:	00307469 	eorseq	r7, r0, r9, ror #8
 24c:	6769735f 			; <UNDEFINED> instruction: 0x6769735f
 250:	5f6c616e 	svcpl	0x006c616e
 254:	00667562 	rsbeq	r7, r6, r2, ror #10
 258:	6373615f 	cmnvs	r3, #-1073741801	; 0xc0000017
 25c:	656d6974 	strbvs	r6, [sp, #-2420]!	; 0xfffff68c
 260:	6675625f 			; <UNDEFINED> instruction: 0x6675625f
 264:	65725f00 	ldrbvs	r5, [r2, #-3840]!	; 0xfffff100
 268:	746c7573 	strbtvc	r7, [ip], #-1395	; 0xfffffa8d
 26c:	775f5f00 	ldrbvc	r5, [pc, -r0, lsl #30]
 270:	5f006863 	svcpl	0x00006863
 274:	4b434f4c 	blmi	10d3fac <__bss_end__+0x10c9fac>
 278:	7700545f 	smlsdvc	r0, pc, r4, r5	; <UNPREDICTABLE>
 27c:	5f746e69 	svcpl	0x00746e69
 280:	6b630074 	blvs	18c0458 <__bss_end__+0x18b6458>
 284:	65657266 	strbvs	r7, [r5, #-614]!	; 0xfffffd9a
 288:	72656e00 	rsbvc	r6, r5, #0, 28
 28c:	665f0072 			; <UNDEFINED> instruction: 0x665f0072
 290:	7367616c 	cmnvc	r7, #108, 2
 294:	5f5f0032 	svcpl	0x005f0032
 298:	795f6d74 	ldmdbvc	pc, {r2, r4, r5, r6, r8, sl, fp, sp, lr}^	; <UNPREDICTABLE>
 29c:	00726165 	rsbseq	r6, r2, r5, ror #2
 2a0:	61656c63 	cmnvs	r5, r3, ror #24
 2a4:	65725f6e 	ldrbvs	r5, [r2, #-3950]!	; 0xfffff092
 2a8:	746f6f62 	strbtvc	r6, [pc], #-3938	; 2b0 <_start-0x7d50>
 2ac:	656e5f00 	strbvs	r5, [lr, #-3840]!	; 0xfffff100
 2b0:	00667478 	rsbeq	r7, r6, r8, ror r4
 2b4:	6d745f5f 	ldclvs	15, cr5, [r4, #-380]!	; 0xfffffe84
 2b8:	6e6f6d5f 	mcrvs	13, 3, r6, cr15, cr15, {2}
 2bc:	74615f00 	strbtvc	r5, [r1], #-3840	; 0xfffff100
 2c0:	74697865 	strbtvc	r7, [r9], #-2149	; 0xfffff79b
 2c4:	735f5f00 	cmpvc	pc, #0, 30
 2c8:	69646964 	stmdbvs	r4!, {r2, r5, r6, r8, fp, sp, lr}^
 2cc:	0074696e 	rsbseq	r6, r4, lr, ror #18
 2d0:	66666f5f 	uqsaxvs	r6, r6, pc	; <UNPREDICTABLE>
 2d4:	5f00745f 	svcpl	0x0000745f
 2d8:	65657266 	strbvs	r7, [r5, #-614]!	; 0xfffffd9a
 2dc:	7473696c 	ldrbtvc	r6, [r3], #-2412	; 0xfffff694
 2e0:	63775f00 	cmnvs	r7, #0, 30
 2e4:	626d6f74 	rsbvs	r6, sp, #116, 30	; 0x1d0
 2e8:	6174735f 	cmnvs	r4, pc, asr r3
 2ec:	75006574 	strvc	r6, [r0, #-1396]	; 0xfffffa8c
 2f0:	6769736e 	strbvs	r7, [r9, -lr, ror #6]!
 2f4:	2064656e 	rsbcs	r6, r4, lr, ror #10
 2f8:	72616863 	rsbvc	r6, r1, #6488064	; 0x630000
 2fc:	656e5f00 	strbvs	r5, [lr, #-3840]!	; 0xfffff100
 300:	4e470077 	mcrmi	0, 2, r0, cr7, cr7, {3}
 304:	39432055 	stmdbcc	r3, {r0, r2, r4, r6, sp}^
 308:	2e392039 	mrccs	0, 1, r2, cr9, cr9, {1}
 30c:	20302e32 	eorscs	r2, r0, r2, lsr lr
 310:	70636d2d 	rsbvc	r6, r3, sp, lsr #26
 314:	72613d75 	rsbvc	r3, r1, #7488	; 0x1d40
 318:	3731316d 	ldrcc	r3, [r1, -sp, ror #2]!
 31c:	667a6a36 			; <UNDEFINED> instruction: 0x667a6a36
 320:	2d20732d 	stccs	3, cr7, [r0, #-180]!	; 0xffffff4c
 324:	6e75746d 	cdpvs	4, 7, cr7, cr5, cr13, {3}
 328:	72613d65 	rsbvc	r3, r1, #6464	; 0x1940
 32c:	3731316d 	ldrcc	r3, [r1, -sp, ror #2]!
 330:	667a6a36 			; <UNDEFINED> instruction: 0x667a6a36
 334:	2d20732d 	stccs	3, cr7, [r0, #-180]!	; 0xffffff4c
 338:	6f6c666d 	svcvs	0x006c666d
 33c:	612d7461 			; <UNDEFINED> instruction: 0x612d7461
 340:	733d6962 	teqvc	sp, #1605632	; 0x188000
 344:	2074666f 	rsbscs	r6, r4, pc, ror #12
 348:	72616d2d 	rsbvc	r6, r1, #2880	; 0xb40
 34c:	6d2d206d 	stcvs	0, cr2, [sp, #-436]!	; 0xfffffe4c
 350:	68637261 	stmdavs	r3!, {r0, r5, r6, r9, ip, sp, lr}^
 354:	6d72613d 	ldfvse	f6, [r2, #-244]!	; 0xffffff0c
 358:	7a6b3676 	bvc	1acdd38 <__bss_end__+0x1ac3d38>
 35c:	67672d20 	strbvs	r2, [r7, -r0, lsr #26]!
 360:	2d206264 	sfmcs	f6, 4, [r0, #-400]!	; 0xfffffe70
 364:	2d20674f 	stccs	7, cr6, [r0, #-316]!	; 0xfffffec4
 368:	3d647473 	cfstrdcc	mvd7, [r4, #-460]!	; 0xfffffe34
 36c:	39756e67 	ldmdbcc	r5!, {r0, r1, r2, r5, r6, r9, sl, fp, sp, lr}^
 370:	662d2039 			; <UNDEFINED> instruction: 0x662d2039
 374:	65657266 	strbvs	r7, [r5, #-614]!	; 0xfffffd9a
 378:	6e617473 	mcrvs	4, 3, r7, cr1, cr3, {3}
 37c:	676e6964 	strbvs	r6, [lr, -r4, ror #18]!
 380:	5f685f00 	svcpl	0x00685f00
 384:	6e727265 	cdpvs	2, 7, cr7, cr2, cr5, {3}
 388:	6873006f 	ldmdavs	r3!, {r0, r1, r2, r3, r5, r6}^
 38c:	2074726f 	rsbscs	r7, r4, pc, ror #4
 390:	00746e69 	rsbseq	r6, r4, r9, ror #28
 394:	6d745f5f 	ldclvs	15, cr5, [r4, #-380]!	; 0xfffffe84
 398:	6164795f 	cmnvs	r4, pc, asr r9
 39c:	5f5f0079 	svcpl	0x005f0079
 3a0:	66756273 			; <UNDEFINED> instruction: 0x66756273
 3a4:	6f695f00 	svcvs	0x00695f00
 3a8:	5f007362 	svcpl	0x00007362
 3ac:	4c49465f 	mcrrmi	6, 5, r4, r9, cr15
 3b0:	6d5f0045 	ldclvs	0, cr0, [pc, #-276]	; 2a4 <_start-0x7d5c>
 3b4:	61747362 	cmnvs	r4, r2, ror #6
 3b8:	745f6574 	ldrbvc	r6, [pc], #-1396	; 3c0 <_start-0x7c40>
 3bc:	735f5f00 	cmpvc	pc, #0, 30
 3c0:	454c4946 	strbmi	r4, [ip, #-2374]	; 0xfffff6ba
 3c4:	626d5f00 	rsbvs	r5, sp, #0, 30
 3c8:	74617473 	strbtvc	r7, [r1], #-1139	; 0xfffffb8d
 3cc:	725f0065 	subsvc	r0, pc, #101	; 0x65
 3d0:	5f646e61 	svcpl	0x00646e61
 3d4:	7478656e 	ldrbtvc	r6, [r8], #-1390	; 0xfffffa92
 3d8:	626d5f00 	rsbvs	r5, sp, #0, 30
 3dc:	5f6e656c 	svcpl	0x006e656c
 3e0:	74617473 	strbtvc	r7, [r1], #-1139	; 0xfffffb8d
 3e4:	695f0065 	ldmdbvs	pc, {r0, r2, r5, r6}^	; <UNPREDICTABLE>
 3e8:	5f00636e 	svcpl	0x0000636e
 3ec:	00646e69 	rsbeq	r6, r4, r9, ror #28
 3f0:	6c635f5f 	stclvs	15, cr5, [r3], #-380	; 0xfffffe84
 3f4:	756e6165 	strbvc	r6, [lr, #-357]!	; 0xfffffe9b
 3f8:	755f0070 	ldrbvc	r0, [pc, #-112]	; 390 <_start-0x7c70>
 3fc:	6570736e 	ldrbvs	r7, [r0, #-878]!	; 0xfffffc92
 400:	69666963 	stmdbvs	r6!, {r0, r1, r5, r6, r8, fp, sp, lr}^
 404:	6c5f6465 	cfldrdvs	mvd6, [pc], {101}	; 0x65
 408:	6c61636f 	stclvs	3, cr6, [r1], #-444	; 0xfffffe44
 40c:	6e695f65 	cdpvs	15, 6, cr5, cr9, cr5, {3}
 410:	5f006f66 	svcpl	0x00006f66
 414:	7778616d 	ldrbvc	r6, [r8, -sp, ror #2]!
 418:	5f007364 	svcpl	0x00007364
 41c:	6e656572 	mcrvs	5, 3, r6, cr5, cr2, {3}
 420:	735f0074 	cmpvc	pc, #116	; 0x74
 424:	00646565 	rsbeq	r6, r4, r5, ror #10
 428:	6f635f5f 	svcvs	0x00635f5f
 42c:	00746e75 	rsbseq	r6, r4, r5, ror lr
 430:	6f6c5f5f 	svcvs	0x006c5f5f
 434:	5f006b63 	svcpl	0x00006b63
 438:	6c61765f 	stclvs	6, cr7, [r1], #-380	; 0xfffffe84
 43c:	5f006575 	svcpl	0x00006575
 440:	6b656573 	blvs	1959a14 <__bss_end__+0x194fa14>
 444:	70665f00 	rsbvc	r5, r6, r0, lsl #30
 448:	745f736f 	ldrbvc	r7, [pc], #-879	; 450 <_start-0x7bb0>
 44c:	745f5f00 	ldrbvc	r5, [pc], #-3840	; 454 <_start-0x7bac>
 450:	696d5f6d 	stmdbvs	sp!, {r0, r2, r3, r5, r6, r8, r9, sl, fp, ip, lr}^
 454:	6d5f006e 	ldclvs	0, cr0, [pc, #-440]	; 2a4 <_start-0x7d5c>
 458:	00746c75 	rsbseq	r6, r4, r5, ror ip
 45c:	7274735f 	rsbsvc	r7, r4, #2080374785	; 0x7c000001
 460:	5f6b6f74 	svcpl	0x006b6f74
 464:	7473616c 	ldrbtvc	r6, [r3], #-364	; 0xfffffe94
 468:	6e665f00 	cdpvs	15, 6, cr5, cr6, cr0, {0}
 46c:	65707974 	ldrbvs	r7, [r0, #-2420]!	; 0xfffff68c
 470:	615f0073 	cmpvs	pc, r3, ror r0	; <UNPREDICTABLE>
 474:	5f006464 	svcpl	0x00006464
 478:	6f4c555f 	svcvs	0x004c555f
 47c:	5f00676e 	svcpl	0x0000676e
 480:	64746567 	ldrbtvs	r6, [r4], #-1383	; 0xfffffa99
 484:	5f657461 	svcpl	0x00657461
 488:	00727265 	rsbseq	r7, r2, r5, ror #4
 48c:	6f6c675f 	svcvs	0x006c675f
 490:	5f6c6162 	svcpl	0x006c6162
 494:	75706d69 	ldrbvc	r6, [r0, #-3433]!	; 0xfffff297
 498:	705f6572 	subsvc	r6, pc, r2, ror r5	; <UNPREDICTABLE>
 49c:	6d007274 	sfmvs	f7, 4, [r0, #-464]	; 0xfffffe30
 4a0:	65736d65 	ldrbvs	r6, [r3, #-3429]!	; 0xfffff29b
 4a4:	755f0074 	ldrbvc	r0, [pc, #-116]	; 438 <_start-0x7bc8>
 4a8:	6573756e 	ldrbvs	r7, [r3, #-1390]!	; 0xfffffa92
 4ac:	61725f64 	cmnvs	r2, r4, ror #30
 4b0:	5f00646e 	svcpl	0x0000646e
 4b4:	00736477 	rsbseq	r6, r3, r7, ror r4
 4b8:	6d745f5f 	ldclvs	15, cr5, [r4, #-380]!	; 0xfffffe84
 4bc:	6164775f 	cmnvs	r4, pc, asr r7
 4c0:	675f0079 			; <UNDEFINED> instruction: 0x675f0079
 4c4:	0065756c 	rsbeq	r7, r5, ip, ror #10
 4c8:	616d6e5f 	cmnvs	sp, pc, asr lr
 4cc:	636f6c6c 	cmnvs	pc, #108, 24	; 0x6c00
 4d0:	366c5f00 	strbtcc	r5, [ip], -r0, lsl #30
 4d4:	625f6134 	subsvs	r6, pc, #52, 2
 4d8:	5f006675 	svcpl	0x00006675
 4dc:	5f676973 	svcpl	0x00676973
 4e0:	636e7566 	cmnvs	lr, #427819008	; 0x19800000
 4e4:	616d6b00 	cmnvs	sp, r0, lsl #22
 4e8:	636f6c6c 	cmnvs	pc, #108, 24	; 0x6c00
 4ec:	626e5f00 	rsbvs	r5, lr, #0, 30
 4f0:	5f006675 	svcpl	0x00006675
 4f4:	73756e75 	cmnvc	r5, #1872	; 0x750
 4f8:	5f006465 	svcpl	0x00006465
 4fc:	5f6d745f 	svcpl	0x006d745f
 500:	73647369 	cmnvc	r4, #-1543503871	; 0xa4000001
 504:	6c5f0074 	mrrcvs	0, 7, r0, pc, cr4	; <UNPREDICTABLE>
 508:	6c61636f 	stclvs	3, cr6, [r1], #-444	; 0xfffffe44
 50c:	656d6974 	strbvs	r6, [sp, #-2420]!	; 0xfffff68c
 510:	6675625f 			; <UNDEFINED> instruction: 0x6675625f
 514:	6c635f00 	stclvs	15, cr5, [r3], #-0
 518:	0065736f 	rsbeq	r7, r5, pc, ror #6
 51c:	3834725f 	ldmdacc	r4!, {r0, r1, r2, r3, r4, r6, r9, ip, sp, lr}
 520:	626d5f00 	rsbvs	r5, sp, #0, 30
 524:	63776f74 	cmnvs	r7, #116, 30	; 0x1d0
 528:	6174735f 	cmnvs	r4, pc, asr r3
 52c:	5f006574 	svcpl	0x00006574
 530:	00733570 	rsbseq	r3, r3, r0, ror r5
 534:	6d745f5f 	ldclvs	15, cr5, [r4, #-380]!	; 0xfffffe84
 538:	61646d5f 	cmnvs	r4, pc, asr sp
 53c:	61700079 	cmnvs	r0, r9, ror r0
 540:	6e696464 	cdpvs	4, 6, cr6, cr9, cr4, {3}
 544:	696c0067 	stmdbvs	ip!, {r0, r1, r2, r5, r6}^
 548:	6f6e656e 	svcvs	0x006e656e
 54c:	65727000 	ldrbvs	r7, [r2, #-0]!
 550:	61660076 	smcvs	24582	; 0x6006
 554:	685f7473 	ldmdavs	pc, {r0, r1, r4, r5, r6, sl, ip, sp, lr}^	; <UNPREDICTABLE>
 558:	00687361 	rsbeq	r7, r8, r1, ror #6
 55c:	65657266 	strbvs	r7, [r5, #-614]!	; 0xfffffd9a
 560:	636f6c5f 	cmnvs	pc, #24320	; 0x5f00
 564:	725f6200 	subsvc	r6, pc, #0, 4
 568:	705f317a 	subsvc	r3, pc, sl, ror r1	; <UNPREDICTABLE>
 56c:	46007274 			; <UNDEFINED> instruction: 0x46007274
 570:	44454552 	strbmi	r4, [r5], #-1362	; 0xfffffaae
 574:	4c4c4100 	stfmie	f4, [ip], {-0}
 578:	4445434f 	strbmi	r4, [r5], #-847	; 0xfffffcb1
 57c:	66657200 	strbtvs	r7, [r5], -r0, lsl #4
 580:	696d5f73 	stmdbvs	sp!, {r0, r1, r4, r5, r6, r8, r9, sl, fp, ip, lr}^
 584:	656c6464 	strbvs	r6, [ip, #-1124]!	; 0xfffffb9c
 588:	66657200 	strbtvs	r7, [r5], -r0, lsl #4
 58c:	74735f73 	ldrbtvc	r5, [r3], #-3955	; 0xfffff08d
 590:	00747261 	rsbseq	r7, r4, r1, ror #4
 594:	6f6c6c61 	svcvs	0x006c6c61
 598:	00646563 	rsbeq	r6, r4, r3, ror #10
 59c:	5245564f 	subpl	r5, r5, #82837504	; 0x4f00000
 5a0:	44414548 	strbmi	r4, [r1], #-1352	; 0xfffffab8
 5a4:	59424e5f 	stmdbpl	r2, {r0, r1, r2, r3, r4, r6, r9, sl, fp, lr}^
 5a8:	00534554 	subseq	r4, r3, r4, asr r5
 5ac:	5a444552 	bpl	1111afc <__bss_end__+0x1107afc>
 5b0:	00454e4f 	subeq	r4, r5, pc, asr #28
 5b4:	4f4c4c41 	svcmi	0x004c4c41
 5b8:	464f5f43 	strbmi	r5, [pc], -r3, asr #30
 5bc:	54455346 	strbpl	r5, [r5], #-838	; 0xfffffcba
 5c0:	72616d00 	rsbvc	r6, r1, #0, 26
 5c4:	656d5f6b 	strbvs	r5, [sp, #-3947]!	; 0xfffff095
 5c8:	5f62006d 	svcpl	0x0062006d
 5cc:	72646461 	rsbvc	r6, r4, #1627389952	; 0x61000000
 5d0:	5f6f745f 	svcpl	0x006f745f
 5d4:	00726468 	rsbseq	r6, r2, r8, ror #8
 5d8:	6c616b63 			; <UNDEFINED> instruction: 0x6c616b63
 5dc:	2e636f6c 	cdpcs	15, 6, cr6, cr3, cr12, {3}
 5e0:	666f0063 	strbtvs	r0, [pc], -r3, rrx
 5e4:	61007366 	tstvs	r0, r6, ror #6
 5e8:	636f6c6c 	cmnvs	pc, #108, 24	; 0x6c00
 5ec:	636f6c5f 	cmnvs	pc, #24320	; 0x5f00
 5f0:	72646800 	rsbvc	r6, r4, #0, 16
 5f4:	736b635f 	cmnvc	fp, #2080374785	; 0x7c000001
 5f8:	6e006d75 	mcrvs	13, 0, r6, cr0, cr5, {3}
 5fc:	65747962 	ldrbvs	r7, [r4, #-2402]!	; 0xfffff69e
 600:	6c615f73 	stclvs	15, cr5, [r1], #-460	; 0xfffffe34
 604:	00636f6c 	rsbeq	r6, r3, ip, ror #30
 608:	6c615f62 	stclvs	15, cr5, [r1], #-392	; 0xfffffe78
 60c:	5f636f6c 	svcpl	0x00636f6c
 610:	00727470 	rsbseq	r7, r2, r0, ror r4
 614:	63656863 	cmnvs	r5, #6488064	; 0x630000
 618:	72665f6b 	rsbvc	r5, r6, #428	; 0x1ac
 61c:	775f6565 	ldrbvc	r6, [pc, -r5, ror #10]
 620:	65746972 	ldrbvs	r6, [r4, #-2418]!	; 0xfffff68e
 624:	65686300 	strbvs	r6, [r8, #-768]!	; 0xfffffd00
 628:	685f6b63 	ldmdavs	pc, {r0, r1, r5, r6, r8, r9, fp, sp, lr}^	; <UNPREDICTABLE>
 62c:	62007264 	andvs	r7, r0, #100, 4	; 0x40000006
 630:	327a725f 	rsbscc	r7, sl, #-268435451	; 0xf0000005
 634:	7274705f 	rsbsvc	r7, r4, #95	; 0x5f
 638:	6c626e00 	stclvs	14, cr6, [r2], #-0
 63c:	7300736b 	movwvc	r7, #875	; 0x36b
 640:	6c5f6372 	mrrcvs	3, 7, r6, pc, cr2	; <UNPREDICTABLE>
 644:	745f636f 	ldrbvc	r6, [pc], #-879	; 64c <_start-0x79b4>
 648:	6e697500 	cdpvs	5, 6, cr7, cr9, cr0, {0}
 64c:	5f323374 	svcpl	0x00323374
 650:	656e0074 	strbvs	r0, [lr, #-116]!	; 0xffffff8c
 654:	726f7272 	rsbvc	r7, pc, #536870919	; 0x20000007
 658:	64680073 	strbtvs	r0, [r8], #-115	; 0xffffff8d
 65c:	72705f72 	rsbsvc	r5, r0, #456	; 0x1c8
 660:	00746e69 	rsbseq	r6, r4, r9, ror #28
 664:	70616568 	rsbvc	r6, r1, r8, ror #10
 668:	4e455300 	cdpmi	3, 4, cr5, cr5, cr0, {0}
 66c:	414e4954 	cmpmi	lr, r4, asr r9
 670:	6863004c 	stmdavs	r3!, {r2, r3, r6}^
 674:	5f6b6365 	svcpl	0x006b6365
 678:	636f6c62 	cmnvs	pc, #25088	; 0x6200
 67c:	5f62006b 	svcpl	0x0062006b
 680:	5f327a72 	svcpl	0x00327a72
 684:	7479626e 	ldrbtvc	r6, [r9], #-622	; 0xfffffd92
 688:	75007365 	strvc	r7, [r0, #-869]	; 0xfffffc9b
 68c:	38746e69 	ldmdacc	r4!, {r0, r3, r5, r6, r9, sl, fp, sp, lr}^
 690:	6800745f 	stmdavs	r0, {r0, r1, r2, r3, r4, r6, sl, ip, sp, lr}
 694:	745f7264 	ldrbvc	r7, [pc], #-612	; 69c <_start-0x7964>
 698:	79626e00 	stmdbvc	r2!, {r9, sl, fp, sp, lr}^
 69c:	5f736574 	svcpl	0x00736574
 6a0:	006d6572 	rsbeq	r6, sp, r2, ror r5
 6a4:	7466656c 	strbtvc	r6, [r6], #-1388	; 0xfffffa94
 6a8:	65686300 	strbvs	r6, [r8, #-768]!	; 0xfffffd00
 6ac:	6d5f6b63 	vldrvs	d22, [pc, #-396]	; 528 <_start-0x7ad8>
 6b0:	68006d65 	stmdavs	r0, {r0, r2, r5, r6, r8, sl, fp, sp, lr}
 6b4:	65646165 	strbvs	r6, [r4, #-357]!	; 0xfffffe9b
 6b8:	696c0072 	stmdbvs	ip!, {r1, r4, r5, r6}^
 6bc:	682f6362 	stmdavs	pc!, {r1, r5, r6, r8, r9, sp, lr}	; <UNPREDICTABLE>
 6c0:	2e687361 	cdpcs	3, 6, cr7, cr8, cr1, {3}
 6c4:	682f0063 	stmdavs	pc!, {r0, r1, r5, r6}	; <UNPREDICTABLE>
 6c8:	2f656d6f 	svccs	0x00656d6f
 6cc:	72657375 	rsbvc	r7, r5, #-738197503	; 0xd4000001
 6d0:	7665442f 	strbtvc	r4, [r5], -pc, lsr #8
 6d4:	3253432f 	subscc	r4, r3, #-1140850688	; 0xbc000000
 6d8:	2f583034 	svccs	0x00583034
 6dc:	7062696c 	rsbvc	r6, r2, ip, ror #18
 6e0:	69730069 	ldmdbvs	r3!, {r0, r3, r5, r6}^
 6e4:	745f657a 	ldrbvc	r6, [pc], #-1402	; 6ec <_start-0x7914>
 6e8:	62696c00 	rsbvs	r6, r9, #0, 24
 6ec:	656d2f63 	strbvs	r2, [sp, #-3939]!	; 0xfffff09d
 6f0:	7465736d 	strbtvc	r7, [r5], #-877	; 0xfffffc93
 6f4:	5f00632e 	svcpl	0x0000632e
 6f8:	5f61765f 	svcpl	0x0061765f
 6fc:	7473696c 	ldrbtvc	r6, [r3], #-2412	; 0xfffff694
 700:	5f617600 	svcpl	0x00617600
 704:	6e697270 	mcrvs	2, 3, r7, cr9, cr0, {3}
 708:	5f006b74 	svcpl	0x00006b74
 70c:	756e675f 	strbvc	r6, [lr, #-1887]!	; 0xfffff8a1
 710:	61765f63 	cmnvs	r6, r3, ror #30
 714:	73696c5f 	cmnvc	r9, #24320	; 0x5f00
 718:	5f5f0074 	svcpl	0x005f0074
 71c:	6c007061 	stcvs	0, cr7, [r0], {97}	; 0x61
 720:	2f636269 	svccs	0x00636269
 724:	6e697270 	mcrvs	2, 3, r7, cr9, cr0, {3}
 728:	632e6b74 			; <UNDEFINED> instruction: 0x632e6b74
 72c:	69707200 	ldmdbvs	r0!, {r9, ip, sp, lr}^
 730:	7465735f 	strbtvc	r7, [r5], #-863	; 0xfffffca1
 734:	7475705f 	ldrbtvc	r7, [r5], #-95	; 0xffffffa1
 738:	61750063 	cmnvs	r5, r3, rrx
 73c:	705f7472 	subsvc	r7, pc, r2, ror r4	; <UNPREDICTABLE>
 740:	00637475 	rsbeq	r7, r3, r5, ror r4
 744:	65746e69 	ldrbvs	r6, [r4, #-3689]!	; 0xfffff197
 748:	6c616e72 	stclvs	14, cr6, [r1], #-456	; 0xfffffe38
 74c:	7475705f 	ldrbtvc	r7, [r5], #-95	; 0xffffffa1
 750:	72616863 	rsbvc	r6, r1, #6488064	; 0x630000
 754:	62696c00 	rsbvs	r6, r9, #0, 24
 758:	75702f63 	ldrbvc	r2, [r0, #-3939]!	; 0xfffff09d
 75c:	61686374 	smcvs	34356	; 0x8634
 760:	00632e72 	rsbeq	r2, r3, r2, ror lr
 764:	65746e69 	ldrbvs	r6, [r4, #-3689]!	; 0xfffff197
 768:	6c616e72 	stclvs	14, cr6, [r1], #-456	; 0xfffffe38
 76c:	7475705f 	ldrbtvc	r7, [r5], #-95	; 0xffffffa1
 770:	696c006b 	stmdbvs	ip!, {r0, r1, r3, r5, r6}^
 774:	702f6362 	eorvc	r6, pc, r2, ror #6
 778:	2e6b7475 	mcrcs	4, 3, r7, cr11, cr5, {3}
 77c:	696c0063 	stmdbvs	ip!, {r0, r1, r5, r6}^
 780:	762f6362 	strtvc	r6, [pc], -r2, ror #6
 784:	72702d61 	rsbsvc	r2, r0, #6208	; 0x1840
 788:	6b746e69 	blvs	1d1c134 <__bss_end__+0x1d12134>
 78c:	7200632e 	andvc	r6, r0, #-1207959552	; 0xb8000000
 790:	735f6970 	cmpvc	pc, #112, 18	; 0x1c0000
 794:	6f5f7465 	svcvs	0x005f7465
 798:	75707475 	ldrbvc	r7, [r0, #-1141]!	; 0xfffffb8b
 79c:	69730074 	ldmdbvs	r3!, {r2, r4, r5, r6}^
 7a0:	64656e67 	strbtvs	r6, [r5], #-3687	; 0xfffff199
 7a4:	7200705f 	andvc	r7, r0, #95	; 0x5f
 7a8:	72657665 	rsbvc	r7, r5, #105906176	; 0x6500000
 7ac:	77006573 	smlsdxvc	r0, r3, r5, r6
 7b0:	68746469 	ldmdavs	r4!, {r0, r3, r5, r6, sl, sp, lr}^
 7b4:	74757000 	ldrbtvc	r7, [r5], #-0
 7b8:	70665f73 	rsbvc	r5, r6, r3, ror pc
 7bc:	67656e00 	strbvs	r6, [r5, -r0, lsl #28]!
 7c0:	7000705f 	andvc	r7, r0, pc, asr r0
 7c4:	5f637475 	svcpl	0x00637475
 7c8:	69007066 	stmdbvs	r0, {r1, r2, r5, r6, ip, sp, lr}
 7cc:	67696473 			; <UNDEFINED> instruction: 0x67696473
 7d0:	65007469 	strvs	r7, [r0, #-1129]	; 0xfffffb97
 7d4:	0074696d 	rsbseq	r6, r4, sp, ror #18
 7d8:	66617473 			; <UNDEFINED> instruction: 0x66617473
 7dc:	72732d66 	rsbsvc	r2, r3, #6528	; 0x1980
 7e0:	6c632f63 	stclvs	15, cr2, [r3], #-396	; 0xfffffe74
 7e4:	2d6e6165 	stfcse	f6, [lr, #-404]!	; 0xfffffe6c
 7e8:	6f626572 	svcvs	0x00626572
 7ec:	632e746f 			; <UNDEFINED> instruction: 0x632e746f
 7f0:	6c656400 	cfstrdvs	mvd6, [r5], #-0
 7f4:	6d5f7961 	vldrvs.16	s15, [pc, #-194]	; 73a <_start-0x78c6>	; <UNPREDICTABLE>
 7f8:	70720073 	rsbsvc	r0, r2, r3, ror r0
 7fc:	65725f69 	ldrbvs	r5, [r2, #-3945]!	; 0xfffff097
 800:	746f6f62 	strbtvc	r6, [pc], #-3938	; 808 <_start-0x77f8>
 804:	61747300 	cmnvs	r4, r0, lsl #6
 808:	732d6666 			; <UNDEFINED> instruction: 0x732d6666
 80c:	632f6372 			; <UNDEFINED> instruction: 0x632f6372
 810:	72617473 	rsbvc	r7, r1, #1929379840	; 0x73000000
 814:	00632e74 	rsbeq	r2, r3, r4, ror lr
 818:	7473635f 	ldrbtvc	r6, [r3], #-863	; 0xfffffca1
 81c:	00747261 	rsbseq	r7, r4, r1, ror #4
 820:	5f737362 	svcpl	0x00737362
 824:	00646e65 	rsbeq	r6, r4, r5, ror #28
 828:	73625f5f 	cmnvc	r2, #380	; 0x17c
 82c:	74735f73 	ldrbtvc	r5, [r3], #-3955	; 0xfffff08d
 830:	5f747261 	svcpl	0x00747261
 834:	5f5f005f 	svcpl	0x005f005f
 838:	5f737362 	svcpl	0x00737362
 83c:	5f646e65 	svcpl	0x00646e65
 840:	4d50005f 	ldclmi	0, cr0, [r0, #-380]	; 0xfffffe84
 844:	5453525f 	ldrbpl	r5, [r3], #-607	; 0xfffffda1
 848:	55500043 	ldrbpl	r0, [r0, #-67]	; 0xffffffbd
 84c:	00323354 	eorseq	r3, r2, r4, asr r3
 850:	525f4d50 	subspl	r4, pc, #80, 26	; 0x1400
 854:	5f435453 	svcpl	0x00435453
 858:	46435257 			; <UNDEFINED> instruction: 0x46435257
 85c:	55465f47 	strbpl	r5, [r6, #-3911]	; 0xfffff0b9
 860:	525f4c4c 	subspl	r4, pc, #76, 24	; 0x4c00
 864:	54455345 	strbpl	r5, [r5], #-837	; 0xfffffcbb
 868:	5f4d5000 	svcpl	0x004d5000
 86c:	474f4457 	smlsldmi	r4, pc, r7, r4	; <UNPREDICTABLE>
 870:	73706300 	cmnvc	r0, #0, 6
 874:	4d500072 	ldclmi	0, cr0, [r0, #-456]	; 0xfffffe38
 878:	5341505f 	movtpl	r5, #4191	; 0x105f
 87c:	524f5753 	subpl	r5, pc, #21757952	; 0x14c0000
 880:	74730044 	ldrbtvc	r0, [r3], #-68	; 0xffffffbc
 884:	2d666661 	stclcs	6, cr6, [r6, #-388]!	; 0xfffffe7c
 888:	2f637273 	svccs	0x00637273
 88c:	6f626572 	svcvs	0x00626572
 890:	632e746f 			; <UNDEFINED> instruction: 0x632e746f
 894:	74657300 	strbtvc	r7, [r5], #-768	; 0xfffffd00
 898:	6573755f 	ldrbvs	r7, [r3, #-1375]!	; 0xfffffaa1
 89c:	656c5f72 	strbvs	r5, [ip, #-3954]!	; 0xfffff08e
 8a0:	006c6576 	rsbeq	r6, ip, r6, ror r5
 8a4:	755f7461 	ldrbvc	r7, [pc, #-1121]	; 44b <_start-0x7bb5>
 8a8:	5f726573 	svcpl	0x00726573
 8ac:	6576656c 	ldrbvs	r6, [r6, #-1388]!	; 0xfffffa94
 8b0:	6974006c 	ldmdbvs	r4!, {r2, r3, r5, r6}^
 8b4:	5f72656d 	svcpl	0x0072656d
 8b8:	5f746567 	svcpl	0x00746567
 8bc:	63657375 	cmnvs	r5, #-738197503	; 0xd4000001
 8c0:	6c656400 	cfstrdvs	mvd6, [r5], #-0
 8c4:	735f7961 	cmpvc	pc, #1589248	; 0x184000
 8c8:	64006365 	strvs	r6, [r0], #-869	; 0xfffffc9b
 8cc:	79616c65 	stmdbvc	r1!, {r0, r2, r5, r6, sl, fp, sp, lr}^
 8d0:	6379635f 	cmnvs	r9, #2080374785	; 0x7c000001
 8d4:	0073656c 	rsbseq	r6, r3, ip, ror #10
 8d8:	66617473 			; <UNDEFINED> instruction: 0x66617473
 8dc:	72732d66 	rsbsvc	r2, r3, #6528	; 0x1980
 8e0:	69742f63 	ldmdbvs	r4!, {r0, r1, r5, r6, r8, r9, sl, fp, sp}^
 8e4:	2e72656d 	cdpcs	5, 7, cr6, cr2, cr13, {3}
 8e8:	69740063 	ldmdbvs	r4!, {r0, r1, r5, r6}^
 8ec:	00736b63 	rsbseq	r6, r3, r3, ror #22
 8f0:	33544547 	cmpcc	r4, #297795584	; 0x11c00000
 8f4:	69740032 	ldmdbvs	r4!, {r1, r4, r5}^
 8f8:	5f72656d 	svcpl	0x0072656d
 8fc:	5f746567 	svcpl	0x00746567
 900:	63657375 	cmnvs	r5, #-738197503	; 0xd4000001
 904:	7761725f 			; <UNDEFINED> instruction: 0x7761725f
 908:	6c656400 	cfstrdvs	mvd6, [r5], #-0
 90c:	755f7961 	ldrbvc	r7, [pc, #-2401]	; ffffffb3 <__bss_end__+0xffff5fb3>
 910:	61750073 	cmnvs	r5, r3, ror r0
 914:	695f7472 	ldmdbvs	pc, {r1, r4, r5, r6, sl, ip, sp, lr}^	; <UNPREDICTABLE>
 918:	0074696e 	rsbseq	r6, r4, lr, ror #18
 91c:	4f495047 	svcmi	0x00495047
 920:	4e55465f 	mrcmi	6, 2, r4, cr5, cr15, {2}
 924:	4e495f43 	cdpmi	15, 4, cr5, cr9, cr3, {2}
 928:	00545550 	subseq	r5, r4, r0, asr r5
 92c:	74617473 	strbtvc	r7, [r1], #-1139	; 0xfffffb8d
 930:	49504700 	ldmdbmi	r0, {r8, r9, sl, lr}^
 934:	55465f4f 	strbpl	r5, [r6, #-3919]	; 0xfffff0b1
 938:	415f434e 	cmpmi	pc, lr, asr #6
 93c:	0031544c 	eorseq	r5, r1, ip, asr #8
 940:	6c746e63 	ldclvs	14, cr6, [r4], #-396	; 0xfffffe74
 944:	72617500 	rsbvc	r7, r1, #0, 10
 948:	00632e74 	rsbeq	r2, r3, r4, ror lr
 94c:	5f787561 	svcpl	0x00787561
 950:	69726570 	ldmdbvs	r2!, {r4, r5, r6, r8, sl, sp, lr}^
 954:	00736870 	rsbseq	r6, r3, r0, ror r8
 958:	6d6f682f 	stclvs	8, cr6, [pc, #-188]!	; 8a4 <_start-0x775c>
 95c:	6e652f65 	cdpvs	15, 6, cr2, cr5, cr5, {3}
 960:	72656c67 	rsbvc	r6, r5, #26368	; 0x6700
 964:	616c632f 	cmnvs	ip, pc, lsr #6
 968:	632f7373 			; <UNDEFINED> instruction: 0x632f7373
 96c:	30343273 	eorscc	r3, r4, r3, ror r2
 970:	322d786c 	eorcc	r7, sp, #108, 16	; 0x6c0000
 974:	72707330 	rsbsvc	r7, r0, #48, 6	; 0xc0000000
 978:	62696c2f 	rsbvs	r6, r9, #12032	; 0x2f00
 97c:	732f6970 			; <UNDEFINED> instruction: 0x732f6970
 980:	66666174 			; <UNDEFINED> instruction: 0x66666174
 984:	6972702d 	ldmdbvs	r2!, {r0, r2, r3, r5, ip, sp, lr}^
 988:	65746176 	ldrbvs	r6, [r4, #-374]!	; 0xfffffe8a
 98c:	78756100 	ldmdavc	r5!, {r8, sp, lr}^
 990:	616e655f 	cmnvs	lr, pc, asr r5
 994:	73656c62 	cmnvc	r5, #25088	; 0x6200
 998:	72617500 	rsbvc	r7, r1, #0, 10
 99c:	61635f74 	smcvs	13812	; 0x35f4
 9a0:	75705f6e 	ldrbvc	r5, [r0, #-3950]!	; 0xfffff092
 9a4:	75006374 	strvc	r6, [r0, #-884]	; 0xfffffc8c
 9a8:	5f747261 	svcpl	0x00747261
 9ac:	63746567 	cmnvs	r4, #432013312	; 0x19c00000
 9b0:	76656400 	strbtvc	r6, [r5], -r0, lsl #8
 9b4:	7261625f 	rsbvc	r6, r1, #-268435451	; 0xf0000005
 9b8:	72656972 	rsbvc	r6, r5, #1867776	; 0x1c8000
 9bc:	49504700 	ldmdbmi	r0, {r8, r9, sl, lr}^
 9c0:	55465f4f 	strbpl	r5, [r6, #-3919]	; 0xfffff0b1
 9c4:	415f434e 	cmpmi	pc, lr, asr #6
 9c8:	0032544c 	eorseq	r5, r2, ip, asr #8
 9cc:	657a6973 	ldrbvs	r6, [sl, #-2419]!	; 0xfffff68d
 9d0:	65707974 	ldrbvs	r7, [r0, #-2420]!	; 0xfffff68c
 9d4:	69706700 	ldmdbvs	r0!, {r8, r9, sl, sp, lr}^
 9d8:	65735f6f 	ldrbvs	r5, [r3, #-3951]!	; 0xfffff091
 9dc:	75665f74 	strbvc	r5, [r6, #-3956]!	; 0xfffff08c
 9e0:	6974636e 	ldmdbvs	r4!, {r1, r2, r3, r5, r6, r8, r9, sp, lr}^
 9e4:	75006e6f 	strvc	r6, [r0, #-3695]	; 0xfffff191
 9e8:	00747261 	rsbseq	r7, r4, r1, ror #4
 9ec:	434f4c5f 	movtmi	r4, #64607	; 0xfc5f
 9f0:	45525f4b 	ldrbmi	r5, [r2, #-3915]	; 0xfffff0b5
 9f4:	53525543 	cmppl	r2, #281018368	; 0x10c00000
 9f8:	5f455649 	svcpl	0x00455649
 9fc:	635f0054 	cmpvs	pc, #84	; 0x54
 a00:	65727275 	ldrbvs	r7, [r2, #-629]!	; 0xfffffd8b
 a04:	6c5f746e 	cfldrdvs	mvd7, [pc], {110}	; 0x6e
 a08:	6c61636f 	stclvs	3, cr6, [r1], #-444	; 0xfffffe44
 a0c:	61620065 	cmnvs	r2, r5, rrx
 a10:	73006475 	movwvc	r6, #1141	; 0x475
 a14:	74617263 	strbtvc	r7, [r1], #-611	; 0xfffffd9d
 a18:	70006863 	andvc	r6, r0, r3, ror #16
 a1c:	32337475 	eorscc	r7, r3, #1962934272	; 0x75000000
 a20:	554e4700 	strbpl	r4, [lr, #-1792]	; 0xfffff900
 a24:	39394320 	ldmdbcc	r9!, {r5, r8, r9, lr}
 a28:	332e3620 			; <UNDEFINED> instruction: 0x332e3620
 a2c:	3220312e 	eorcc	r3, r0, #-2147483637	; 0x8000000b
 a30:	30373130 	eorscc	r3, r7, r0, lsr r1
 a34:	20303236 	eorscs	r3, r0, r6, lsr r2
 a38:	70636d2d 	rsbvc	r6, r3, sp, lsr #26
 a3c:	72613d75 	rsbvc	r3, r1, #7488	; 0x1d40
 a40:	3731316d 	ldrcc	r3, [r1, -sp, ror #2]!
 a44:	667a6a36 			; <UNDEFINED> instruction: 0x667a6a36
 a48:	2d20732d 	stccs	3, cr7, [r0, #-180]!	; 0xffffff4c
 a4c:	6e75746d 	cdpvs	4, 7, cr7, cr5, cr13, {3}
 a50:	72613d65 	rsbvc	r3, r1, #6464	; 0x1940
 a54:	3731316d 	ldrcc	r3, [r1, -sp, ror #2]!
 a58:	667a6a36 			; <UNDEFINED> instruction: 0x667a6a36
 a5c:	2d20732d 	stccs	3, cr7, [r0, #-180]!	; 0xffffff4c
 a60:	62646767 	rsbvs	r6, r4, #27000832	; 0x19c0000
 a64:	674f2d20 	strbvs	r2, [pc, -r0, lsr #26]
 a68:	74732d20 	ldrbtvc	r2, [r3], #-3360	; 0xfffff2e0
 a6c:	6e673d64 	cdpvs	13, 6, cr3, cr7, cr4, {3}
 a70:	20393975 	eorscs	r3, r9, r5, ror r9
 a74:	7266662d 	rsbvc	r6, r6, #47185920	; 0x2d00000
 a78:	74736565 	ldrbtvc	r6, [r3], #-1381	; 0xfffffa9b
 a7c:	69646e61 	stmdbvs	r4!, {r0, r5, r6, r9, sl, fp, sp, lr}^
 a80:	5f00676e 	svcpl	0x0000676e
 a84:	72727563 	rsbsvc	r7, r2, #415236096	; 0x18c00000
 a88:	5f746e65 	svcpl	0x00746e65
 a8c:	65746163 	ldrbvs	r6, [r4, #-355]!	; 0xfffffe9d
 a90:	79726f67 	ldmdbvc	r2!, {r0, r1, r2, r5, r6, r8, r9, sl, fp, sp, lr}^
 a94:	49504700 	ldmdbmi	r0, {r8, r9, sl, lr}^
 a98:	55465f4f 	strbpl	r5, [r6, #-3919]	; 0xfffff0b1
 a9c:	4f5f434e 	svcmi	0x005f434e
 aa0:	55505455 	ldrbpl	r5, [r0, #-1109]	; 0xfffffbab
 aa4:	65670054 	strbvs	r0, [r7, #-84]!	; 0xffffffac
 aa8:	00323374 	eorseq	r3, r2, r4, ror r3
 aac:	74726175 	ldrbtvc	r6, [r2], #-373	; 0xfffffe8b
 ab0:	6e61635f 	mcrvs	3, 3, r6, cr1, cr15, {2}
 ab4:	7465675f 	strbtvc	r6, [r5], #-1887	; 0xfffff8a1
 ab8:	726f0063 	rsbvc	r0, pc, #99	; 0x63
 abc:	336e695f 	cmncc	lr, #1556480	; 0x17c000
 ac0:	61750032 	cmnvs	r5, r2, lsr r0
 ac4:	685f7472 	ldmdavs	pc, {r1, r4, r5, r6, sl, ip, sp, lr}^	; <UNPREDICTABLE>
 ac8:	645f7361 	ldrbvs	r7, [pc], #-865	; ad0 <_start-0x7530>
 acc:	00617461 	rsbeq	r7, r1, r1, ror #8
 ad0:	4f495047 	svcmi	0x00495047
 ad4:	4e55465f 	mrcmi	6, 2, r4, cr5, cr15, {2}
 ad8:	4c415f43 	mcrrmi	15, 4, r5, r1, cr3
 adc:	47003054 	smlsdmi	r0, r4, r0, r3
 ae0:	5f4f4950 	svcpl	0x004f4950
 ae4:	434e5546 	movtmi	r5, #58694	; 0xe546
 ae8:	544c415f 	strbpl	r4, [ip], #-351	; 0xfffffea1
 aec:	50470033 	subpl	r0, r7, r3, lsr r0
 af0:	465f4f49 	ldrbmi	r4, [pc], -r9, asr #30
 af4:	5f434e55 	svcpl	0x00434e55
 af8:	34544c41 	ldrbcc	r4, [r4], #-3137	; 0xfffff3bf
 afc:	49504700 	ldmdbmi	r0, {r8, r9, sl, lr}^
 b00:	55465f4f 	strbpl	r5, [r6, #-3919]	; 0xfffff0b1
 b04:	415f434e 	cmpmi	pc, lr, asr #6
 b08:	0035544c 	eorseq	r5, r5, ip, asr #8
 b0c:	6f697067 	svcvs	0x00697067
 b10:	7465735f 	strbtvc	r7, [r5], #-863	; 0xfffffca1
 b14:	66666f5f 	uqsaxvs	r6, r6, pc	; <UNPREDICTABLE>
 b18:	6e616200 	cdpvs	2, 6, cr6, cr1, cr0, {0}
 b1c:	7067006b 	rsbvc	r0, r7, fp, rrx
 b20:	632e6f69 			; <UNDEFINED> instruction: 0x632e6f69
 b24:	69706700 	ldmdbvs	r0!, {r8, r9, sl, sp, lr}^
 b28:	65725f6f 	ldrbvs	r5, [r2, #-3951]!	; 0xfffff091
 b2c:	67006461 	strvs	r6, [r0, -r1, ror #8]
 b30:	5f6f6970 	svcpl	0x006f6970
 b34:	5f746573 	svcpl	0x00746573
 b38:	7074756f 	rsbsvc	r7, r4, pc, ror #10
 b3c:	67007475 	smlsdxvs	r0, r5, r4, r7
 b40:	5f6f6970 	svcpl	0x006f6970
 b44:	74697277 	strbtvc	r7, [r9], #-631	; 0xfffffd89
 b48:	70670065 	rsbvc	r0, r7, r5, rrx
 b4c:	735f6f69 	cmpvc	pc, #420	; 0x1a4
 b50:	00307465 	eorseq	r7, r0, r5, ror #8
 b54:	6f697067 	svcvs	0x00697067
 b58:	76656c5f 			; <UNDEFINED> instruction: 0x76656c5f
 b5c:	70670030 	rsbvc	r0, r7, r0, lsr r0
 b60:	735f6f69 	cmpvc	pc, #420	; 0x1a4
 b64:	695f7465 	ldmdbvs	pc, {r0, r2, r5, r6, sl, ip, sp, lr}^	; <UNPREDICTABLE>
 b68:	7475706e 	ldrbtvc	r7, [r5], #-110	; 0xffffff92
 b6c:	69706700 	ldmdbvs	r0!, {r8, r9, sl, sp, lr}^
 b70:	65735f6f 	ldrbvs	r5, [r3, #-3951]!	; 0xfffff091
 b74:	6e6f5f74 	mcrvs	15, 3, r5, cr15, cr4, {3}
 b78:	69706700 	ldmdbvs	r0!, {r8, r9, sl, sp, lr}^
 b7c:	75665f6f 	strbvc	r5, [r6, #-3951]!	; 0xfffff091
 b80:	745f636e 	ldrbvc	r6, [pc], #-878	; b88 <_start-0x7478>
 b84:	69706700 	ldmdbvs	r0!, {r8, r9, sl, sp, lr}^
 b88:	6c635f6f 	stclvs	15, cr5, [r3], #-444	; 0xfffffe44
 b8c:	6b003072 	blvs	cd5c <__bss_end__+0x2d5c>
 b90:	6c6c616d 	stfvse	f6, [ip], #-436	; 0xfffffe4c
 b94:	632e636f 			; <UNDEFINED> instruction: 0x632e636f
 b98:	616d6b00 	cmnvs	sp, r0, lsl #22
 b9c:	636f6c6c 	cmnvs	pc, #108, 24	; 0x6c00
 ba0:	696e695f 	stmdbvs	lr!, {r0, r1, r2, r3, r4, r6, r8, fp, sp, lr}^
 ba4:	6d6b0074 	stclvs	0, cr0, [fp, #-464]!	; 0xfffffe30
 ba8:	6f6c6c61 	svcvs	0x006c6c61
 bac:	6c615f63 	stclvs	15, cr5, [r1], #-396	; 0xfffffe74
 bb0:	656e6769 	strbvs	r6, [lr, #-1897]!	; 0xfffff897
 bb4:	6f640064 	svcvs	0x00640064
 bb8:	656c6275 	strbvs	r6, [ip, #-629]!	; 0xfffffd8b
 bbc:	72666b00 	rsbvc	r6, r6, #0, 22
 bc0:	615f6565 	cmpvs	pc, r5, ror #10
 bc4:	6b006c6c 	blvs	1bd7c <__bss_end__+0x11d7c>
 bc8:	65657266 	strbvs	r7, [r5, #-614]!	; 0xfffffd9a
 bcc:	7466615f 	strbtvc	r6, [r6], #-351	; 0xfffffea1
 bd0:	6b007265 	blvs	1d56c <__bss_end__+0x1356c>
 bd4:	6c6c616d 	stfvse	f6, [ip], #-436	; 0xfffffe4c
 bd8:	685f636f 	ldmdavs	pc, {r0, r1, r2, r3, r5, r6, r8, r9, sp, lr}^	; <UNPREDICTABLE>
 bdc:	5f706165 	svcpl	0x00706165
 be0:	00727470 	rsbseq	r7, r2, r0, ror r4
 be4:	67696c61 	strbvs	r6, [r9, -r1, ror #24]!
 be8:	6e656d6e 	cdpvs	13, 6, cr6, cr5, cr14, {3}
 bec:	5f5f0074 	svcpl	0x005f0074
 bf0:	70616568 	rsbvc	r6, r1, r8, ror #10
 bf4:	6174735f 	cmnvs	r4, pc, asr r3
 bf8:	5f5f7472 	svcpl	0x005f7472
 bfc:	616d6b00 	cmnvs	sp, r0, lsl #22
 c00:	636f6c6c 	cmnvs	pc, #108, 24	; 0x6c00
 c04:	6165685f 	cmnvs	r5, pc, asr r8
 c08:	74735f70 	ldrbtvc	r5, [r3], #-3952	; 0xfffff090
 c0c:	00747261 	rsbseq	r7, r4, r1, ror #4
 c10:	6464615f 	strbtvs	r6, [r4], #-351	; 0xfffffea1
 c14:	6d6b0072 	stclvs	0, cr0, [fp, #-456]!	; 0xfffffe38
 c18:	6f6c6c61 	svcvs	0x006c6c61
 c1c:	65685f63 	strbvs	r5, [r8, #-3939]!	; 0xfffff09d
 c20:	655f7061 	ldrbvs	r7, [pc, #-97]	; bc7 <_start-0x7439>
 c24:	Address 0x0000000000000c24 is out of bounds.


Disassembly of section .debug_frame:

00000000 <.debug_frame>:
   0:	0000000c 	andeq	r0, r0, ip
   4:	ffffffff 			; <UNDEFINED> instruction: 0xffffffff
   8:	7c020001 	stcvc	0, cr0, [r2], {1}
   c:	000d0c0e 	andeq	r0, sp, lr, lsl #24
  10:	00000024 	andeq	r0, r0, r4, lsr #32
  14:	00000000 	andeq	r0, r0, r0
  18:	00008010 	andeq	r8, r0, r0, lsl r0
  1c:	000000d0 	ldrdeq	r0, [r0], -r0	; <UNPREDICTABLE>
  20:	84100e42 	ldrhi	r0, [r0], #-3650	; 0xfffff1be
  24:	86038504 	strhi	r8, [r3], -r4, lsl #10
  28:	42018e02 	andmi	r8, r1, #2, 28
  2c:	4402180e 	strmi	r1, [r2], #-2062	; 0xfffff7f2
  30:	42100e0a 	andsmi	r0, r0, #10, 28	; 0xa0
  34:	0000000b 	andeq	r0, r0, fp
  38:	0000000c 	andeq	r0, r0, ip
  3c:	ffffffff 			; <UNDEFINED> instruction: 0xffffffff
  40:	7c020001 	stcvc	0, cr0, [r2], {1}
  44:	000d0c0e 	andeq	r0, sp, lr, lsl #24
  48:	0000000c 	andeq	r0, r0, ip
  4c:	00000038 	andeq	r0, r0, r8, lsr r0
  50:	000080e0 	andeq	r8, r0, r0, ror #1
  54:	00000008 	andeq	r0, r0, r8
  58:	00000014 	andeq	r0, r0, r4, lsl r0
  5c:	00000038 	andeq	r0, r0, r8, lsr r0
  60:	000080e8 	andeq	r8, r0, r8, ror #1
  64:	00000010 	andeq	r0, r0, r0, lsl r0
  68:	84080e42 	strhi	r0, [r8], #-3650	; 0xfffff1be
  6c:	00018e02 	andeq	r8, r1, r2, lsl #28
  70:	00000014 	andeq	r0, r0, r4, lsl r0
  74:	00000038 	andeq	r0, r0, r8, lsr r0
  78:	000080f8 	strdeq	r8, [r0], -r8	; <UNPREDICTABLE>
  7c:	00000018 	andeq	r0, r0, r8, lsl r0
  80:	84080e42 	strhi	r0, [r8], #-3650	; 0xfffff1be
  84:	00018e02 	andeq	r8, r1, r2, lsl #28
  88:	0000000c 	andeq	r0, r0, ip
  8c:	00000038 	andeq	r0, r0, r8, lsr r0
  90:	00008110 	andeq	r8, r0, r0, lsl r1
  94:	0000000c 	andeq	r0, r0, ip
  98:	0000000c 	andeq	r0, r0, ip
  9c:	00000038 	andeq	r0, r0, r8, lsr r0
  a0:	0000811c 	andeq	r8, r0, ip, lsl r1
  a4:	00000008 	andeq	r0, r0, r8
  a8:	0000001c 	andeq	r0, r0, ip, lsl r0
  ac:	00000038 	andeq	r0, r0, r8, lsr r0
  b0:	00008124 	andeq	r8, r0, r4, lsr #2
  b4:	0000010c 	andeq	r0, r0, ip, lsl #2
  b8:	84180e42 	ldrhi	r0, [r8], #-3650	; 0xfffff1be
  bc:	86058506 	strhi	r8, [r5], -r6, lsl #10
  c0:	88038704 	stmdahi	r3, {r2, r8, r9, sl, pc}
  c4:	00018e02 	andeq	r8, r1, r2, lsl #28
  c8:	00000014 	andeq	r0, r0, r4, lsl r0
  cc:	00000038 	andeq	r0, r0, r8, lsr r0
  d0:	00008230 	andeq	r8, r0, r0, lsr r2
  d4:	00000014 	andeq	r0, r0, r4, lsl r0
  d8:	84080e42 	strhi	r0, [r8], #-3650	; 0xfffff1be
  dc:	00018e02 	andeq	r8, r1, r2, lsl #28
  e0:	00000018 	andeq	r0, r0, r8, lsl r0
  e4:	00000038 	andeq	r0, r0, r8, lsr r0
  e8:	00008244 	andeq	r8, r0, r4, asr #4
  ec:	00000024 	andeq	r0, r0, r4, lsr #32
  f0:	84100e42 	ldrhi	r0, [r0], #-3650	; 0xfffff1be
  f4:	86038504 	strhi	r8, [r3], -r4, lsl #10
  f8:	00018e02 	andeq	r8, r1, r2, lsl #28
  fc:	00000018 	andeq	r0, r0, r8, lsl r0
 100:	00000038 	andeq	r0, r0, r8, lsr r0
 104:	00008268 	andeq	r8, r0, r8, ror #4
 108:	000000e8 	andeq	r0, r0, r8, ror #1
 10c:	84100e42 	ldrhi	r0, [r0], #-3650	; 0xfffff1be
 110:	86038504 	strhi	r8, [r3], -r4, lsl #10
 114:	00018e02 	andeq	r8, r1, r2, lsl #28
 118:	0000001c 	andeq	r0, r0, ip, lsl r0
 11c:	00000038 	andeq	r0, r0, r8, lsr r0
 120:	00008350 	andeq	r8, r0, r0, asr r3
 124:	000000fc 	strdeq	r0, [r0], -ip
 128:	84180e42 	ldrhi	r0, [r8], #-3650	; 0xfffff1be
 12c:	86058506 	strhi	r8, [r5], -r6, lsl #10
 130:	88038704 	stmdahi	r3, {r2, r8, r9, sl, pc}
 134:	00018e02 	andeq	r8, r1, r2, lsl #28
 138:	00000018 	andeq	r0, r0, r8, lsl r0
 13c:	00000038 	andeq	r0, r0, r8, lsr r0
 140:	0000844c 	andeq	r8, r0, ip, asr #8
 144:	00000064 	andeq	r0, r0, r4, rrx
 148:	84100e42 	ldrhi	r0, [r0], #-3650	; 0xfffff1be
 14c:	86038504 	strhi	r8, [r3], -r4, lsl #10
 150:	00018e02 	andeq	r8, r1, r2, lsl #28
 154:	00000018 	andeq	r0, r0, r8, lsl r0
 158:	00000038 	andeq	r0, r0, r8, lsr r0
 15c:	000084b0 			; <UNDEFINED> instruction: 0x000084b0
 160:	00000074 	andeq	r0, r0, r4, ror r0
 164:	84100e42 	ldrhi	r0, [r0], #-3650	; 0xfffff1be
 168:	86038504 	strhi	r8, [r3], -r4, lsl #10
 16c:	00018e02 	andeq	r8, r1, r2, lsl #28
 170:	0000001c 	andeq	r0, r0, ip, lsl r0
 174:	00000038 	andeq	r0, r0, r8, lsr r0
 178:	00008524 	andeq	r8, r0, r4, lsr #10
 17c:	000000b8 	strheq	r0, [r0], -r8
 180:	84180e42 	ldrhi	r0, [r8], #-3650	; 0xfffff1be
 184:	86058506 	strhi	r8, [r5], -r6, lsl #10
 188:	88038704 	stmdahi	r3, {r2, r8, r9, sl, pc}
 18c:	00018e02 	andeq	r8, r1, r2, lsl #28
 190:	00000028 	andeq	r0, r0, r8, lsr #32
 194:	00000038 	andeq	r0, r0, r8, lsr r0
 198:	000085dc 	ldrdeq	r8, [r0], -ip
 19c:	0000021c 	andeq	r0, r0, ip, lsl r2
 1a0:	841c0e42 	ldrhi	r0, [ip], #-3650	; 0xfffff1be
 1a4:	86068507 	strhi	r8, [r6], -r7, lsl #10
 1a8:	88048705 	stmdahi	r4, {r0, r2, r8, r9, sl, pc}
 1ac:	8e028903 	vmlahi.f16	s16, s4, s6	; <UNPREDICTABLE>
 1b0:	280e4201 	stmdacs	lr, {r0, r9, lr}
 1b4:	0e0a8e02 	cdpeq	14, 0, cr8, cr10, cr2, {0}
 1b8:	000b421c 	andeq	r4, fp, ip, lsl r2
 1bc:	0000001c 	andeq	r0, r0, ip, lsl r0
 1c0:	00000038 	andeq	r0, r0, r8, lsr r0
 1c4:	000087f8 	strdeq	r8, [r0], -r8	; <UNPREDICTABLE>
 1c8:	00000150 	andeq	r0, r0, r0, asr r1
 1cc:	84180e42 	ldrhi	r0, [r8], #-3650	; 0xfffff1be
 1d0:	86058506 	strhi	r8, [r5], -r6, lsl #10
 1d4:	88038704 	stmdahi	r3, {r2, r8, r9, sl, pc}
 1d8:	00018e02 	andeq	r8, r1, r2, lsl #28
 1dc:	0000000c 	andeq	r0, r0, ip
 1e0:	ffffffff 			; <UNDEFINED> instruction: 0xffffffff
 1e4:	7c020001 	stcvc	0, cr0, [r2], {1}
 1e8:	000d0c0e 	andeq	r0, sp, lr, lsl #24
 1ec:	00000018 	andeq	r0, r0, r8, lsl r0
 1f0:	000001dc 	ldrdeq	r0, [r0], -ip
 1f4:	00008948 	andeq	r8, r0, r8, asr #18
 1f8:	000000ec 	andeq	r0, r0, ip, ror #1
 1fc:	8e040e48 	cdphi	14, 0, cr0, cr4, cr8, {2}
 200:	0e6a0201 	cdpeq	2, 6, cr0, cr10, cr1, {0}
 204:	0000ce00 	andeq	ip, r0, r0, lsl #28
 208:	0000000c 	andeq	r0, r0, ip
 20c:	ffffffff 			; <UNDEFINED> instruction: 0xffffffff
 210:	7c020001 	stcvc	0, cr0, [r2], {1}
 214:	000d0c0e 	andeq	r0, sp, lr, lsl #24
 218:	0000000c 	andeq	r0, r0, ip
 21c:	00000208 	andeq	r0, r0, r8, lsl #4
 220:	00008a34 	andeq	r8, r0, r4, lsr sl
 224:	00000018 	andeq	r0, r0, r8, lsl r0
 228:	0000000c 	andeq	r0, r0, ip
 22c:	ffffffff 			; <UNDEFINED> instruction: 0xffffffff
 230:	7c020001 	stcvc	0, cr0, [r2], {1}
 234:	000d0c0e 	andeq	r0, sp, lr, lsl #24
 238:	00000034 	andeq	r0, r0, r4, lsr r0
 23c:	00000228 	andeq	r0, r0, r8, lsr #4
 240:	00008a4c 	andeq	r8, r0, ip, asr #20
 244:	00000058 	andeq	r0, r0, r8, asr r0
 248:	80100e42 	andshi	r0, r0, r2, asr #28
 24c:	82038104 	andhi	r8, r3, #4, 2
 250:	42018302 	andmi	r8, r1, #134217728	; 0x8000000
 254:	07841c0e 	streq	r1, [r4, lr, lsl #24]
 258:	058e0685 	streq	r0, [lr, #1669]	; 0x685
 25c:	5c280e42 	stcpl	14, cr0, [r8], #-264	; 0xfffffef8
 260:	ce421c0e 	cdpgt	12, 4, cr1, cr2, cr14, {0}
 264:	100ec4c5 	andne	ip, lr, r5, asr #9
 268:	c1c2c342 	bicgt	ip, r2, r2, asr #6
 26c:	00000ec0 	andeq	r0, r0, r0, asr #29
 270:	0000000c 	andeq	r0, r0, ip
 274:	ffffffff 			; <UNDEFINED> instruction: 0xffffffff
 278:	7c020001 	stcvc	0, cr0, [r2], {1}
 27c:	000d0c0e 	andeq	r0, sp, lr, lsl #24
 280:	00000014 	andeq	r0, r0, r4, lsl r0
 284:	00000270 	andeq	r0, r0, r0, ror r2
 288:	00008aa4 	andeq	r8, r0, r4, lsr #21
 28c:	00000014 	andeq	r0, r0, r4, lsl r0
 290:	84080e42 	strhi	r0, [r8], #-3650	; 0xfffff1be
 294:	00018e02 	andeq	r8, r1, r2, lsl #28
 298:	0000000c 	andeq	r0, r0, ip
 29c:	00000270 	andeq	r0, r0, r0, ror r2
 2a0:	00008ab8 			; <UNDEFINED> instruction: 0x00008ab8
 2a4:	00000018 	andeq	r0, r0, r8, lsl r0
 2a8:	0000000c 	andeq	r0, r0, ip
 2ac:	00000270 	andeq	r0, r0, r0, ror r2
 2b0:	00008ad0 	ldrdeq	r8, [r0], -r0
 2b4:	00000010 	andeq	r0, r0, r0, lsl r0
 2b8:	0000000c 	andeq	r0, r0, ip
 2bc:	ffffffff 			; <UNDEFINED> instruction: 0xffffffff
 2c0:	7c020001 	stcvc	0, cr0, [r2], {1}
 2c4:	000d0c0e 	andeq	r0, sp, lr, lsl #24
 2c8:	00000014 	andeq	r0, r0, r4, lsl r0
 2cc:	000002b8 			; <UNDEFINED> instruction: 0x000002b8
 2d0:	00008ae0 	andeq	r8, r0, r0, ror #21
 2d4:	00000034 	andeq	r0, r0, r4, lsr r0
 2d8:	84080e42 	strhi	r0, [r8], #-3650	; 0xfffff1be
 2dc:	00018e02 	andeq	r8, r1, r2, lsl #28
 2e0:	0000000c 	andeq	r0, r0, ip
 2e4:	ffffffff 			; <UNDEFINED> instruction: 0xffffffff
 2e8:	7c020001 	stcvc	0, cr0, [r2], {1}
 2ec:	000d0c0e 	andeq	r0, sp, lr, lsl #24
 2f0:	0000000c 	andeq	r0, r0, ip
 2f4:	000002e0 	andeq	r0, r0, r0, ror #5
 2f8:	00008b14 	andeq	r8, r0, r4, lsl fp
 2fc:	00000014 	andeq	r0, r0, r4, lsl r0
 300:	0000000c 	andeq	r0, r0, ip
 304:	000002e0 	andeq	r0, r0, r0, ror #5
 308:	00008b28 	andeq	r8, r0, r8, lsr #22
 30c:	00000024 	andeq	r0, r0, r4, lsr #32
 310:	0000000c 	andeq	r0, r0, ip
 314:	000002e0 	andeq	r0, r0, r0, ror #5
 318:	00008b4c 	andeq	r8, r0, ip, asr #22
 31c:	00000038 	andeq	r0, r0, r8, lsr r0
 320:	00000024 	andeq	r0, r0, r4, lsr #32
 324:	000002e0 	andeq	r0, r0, r0, ror #5
 328:	00008b84 	andeq	r8, r0, r4, lsl #23
 32c:	000001ac 	andeq	r0, r0, ip, lsr #3
 330:	84140e42 	ldrhi	r0, [r4], #-3650	; 0xfffff1be
 334:	86048505 	strhi	r8, [r4], -r5, lsl #10
 338:	8e028703 	cdphi	7, 0, cr8, cr2, cr3, {0}
 33c:	580e4201 	stmdapl	lr, {r0, r9, lr}
 340:	0e0a9a02 	vmlaeq.f32	s18, s20, s4
 344:	000b4214 	andeq	r4, fp, r4, lsl r2
 348:	00000014 	andeq	r0, r0, r4, lsl r0
 34c:	000002e0 	andeq	r0, r0, r0, ror #5
 350:	00008d30 	andeq	r8, r0, r0, lsr sp
 354:	00000054 	andeq	r0, r0, r4, asr r0
 358:	84080e52 	strhi	r0, [r8], #-3666	; 0xfffff1ae
 35c:	00018e02 	andeq	r8, r1, r2, lsl #28
 360:	00000028 	andeq	r0, r0, r8, lsr #32
 364:	000002e0 	andeq	r0, r0, r0, ror #5
 368:	00008d84 	andeq	r8, r0, r4, lsl #27
 36c:	000002b0 			; <UNDEFINED> instruction: 0x000002b0
 370:	841c0e42 	ldrhi	r0, [ip], #-3650	; 0xfffff1be
 374:	86068507 	strhi	r8, [r6], -r7, lsl #10
 378:	88048705 	stmdahi	r4, {r0, r2, r8, r9, sl, pc}
 37c:	8e028903 	vmlahi.f16	s16, s4, s6	; <UNPREDICTABLE>
 380:	b00e4201 	andlt	r4, lr, r1, lsl #4
 384:	01480301 	cmpeq	r8, r1, lsl #6
 388:	00001c0e 	andeq	r1, r0, lr, lsl #24
 38c:	0000000c 	andeq	r0, r0, ip
 390:	ffffffff 			; <UNDEFINED> instruction: 0xffffffff
 394:	7c020001 	stcvc	0, cr0, [r2], {1}
 398:	000d0c0e 	andeq	r0, sp, lr, lsl #24
 39c:	00000014 	andeq	r0, r0, r4, lsl r0
 3a0:	0000038c 	andeq	r0, r0, ip, lsl #7
 3a4:	00009034 	andeq	r9, r0, r4, lsr r0
 3a8:	00000028 	andeq	r0, r0, r8, lsr #32
 3ac:	84080e42 	strhi	r0, [r8], #-3650	; 0xfffff1be
 3b0:	00018e02 	andeq	r8, r1, r2, lsl #28
 3b4:	0000000c 	andeq	r0, r0, ip
 3b8:	ffffffff 			; <UNDEFINED> instruction: 0xffffffff
 3bc:	7c020001 	stcvc	0, cr0, [r2], {1}
 3c0:	000d0c0e 	andeq	r0, sp, lr, lsl #24
 3c4:	00000014 	andeq	r0, r0, r4, lsl r0
 3c8:	000003b4 			; <UNDEFINED> instruction: 0x000003b4
 3cc:	0000905c 	andeq	r9, r0, ip, asr r0
 3d0:	0000002c 	andeq	r0, r0, ip, lsr #32
 3d4:	84080e42 	strhi	r0, [r8], #-3650	; 0xfffff1be
 3d8:	00018e02 	andeq	r8, r1, r2, lsl #28
 3dc:	0000000c 	andeq	r0, r0, ip
 3e0:	ffffffff 			; <UNDEFINED> instruction: 0xffffffff
 3e4:	7c020001 	stcvc	0, cr0, [r2], {1}
 3e8:	000d0c0e 	andeq	r0, sp, lr, lsl #24
 3ec:	0000000c 	andeq	r0, r0, ip
 3f0:	000003dc 	ldrdeq	r0, [r0], -ip
 3f4:	00009088 	andeq	r9, r0, r8, lsl #1
 3f8:	00000018 	andeq	r0, r0, r8, lsl r0
 3fc:	0000000c 	andeq	r0, r0, ip
 400:	000003dc 	ldrdeq	r0, [r0], -ip
 404:	000090a0 	andeq	r9, r0, r0, lsr #1
 408:	00000014 	andeq	r0, r0, r4, lsl r0
 40c:	00000014 	andeq	r0, r0, r4, lsl r0
 410:	000003dc 	ldrdeq	r0, [r0], -ip
 414:	000090b4 	strheq	r9, [r0], -r4
 418:	0000004c 	andeq	r0, r0, ip, asr #32
 41c:	84080e42 	strhi	r0, [r8], #-3650	; 0xfffff1be
 420:	00018e02 	andeq	r8, r1, r2, lsl #28
 424:	0000000c 	andeq	r0, r0, ip
 428:	ffffffff 			; <UNDEFINED> instruction: 0xffffffff
 42c:	7c020001 	stcvc	0, cr0, [r2], {1}
 430:	000d0c0e 	andeq	r0, sp, lr, lsl #24
 434:	0000000c 	andeq	r0, r0, ip
 438:	00000424 	andeq	r0, r0, r4, lsr #8
 43c:	00009100 	andeq	r9, r0, r0, lsl #2
 440:	00000018 	andeq	r0, r0, r8, lsl r0
 444:	00000014 	andeq	r0, r0, r4, lsl r0
 448:	00000424 	andeq	r0, r0, r4, lsr #8
 44c:	00009118 	andeq	r9, r0, r8, lsl r1
 450:	00000014 	andeq	r0, r0, r4, lsl r0
 454:	84080e42 	strhi	r0, [r8], #-3650	; 0xfffff1be
 458:	00018e02 	andeq	r8, r1, r2, lsl #28
 45c:	00000014 	andeq	r0, r0, r4, lsl r0
 460:	00000424 	andeq	r0, r0, r4, lsr #8
 464:	0000912c 	andeq	r9, r0, ip, lsr #2
 468:	0000000c 	andeq	r0, r0, ip
 46c:	84080e42 	strhi	r0, [r8], #-3650	; 0xfffff1be
 470:	00018e02 	andeq	r8, r1, r2, lsl #28
 474:	00000018 	andeq	r0, r0, r8, lsl r0
 478:	00000424 	andeq	r0, r0, r4, lsr #8
 47c:	00009138 	andeq	r9, r0, r8, lsr r1
 480:	00000024 	andeq	r0, r0, r4, lsr #32
 484:	84100e42 	ldrhi	r0, [r0], #-3650	; 0xfffff1be
 488:	86038504 	strhi	r8, [r3], -r4, lsl #10
 48c:	00018e02 	andeq	r8, r1, r2, lsl #28
 490:	00000014 	andeq	r0, r0, r4, lsl r0
 494:	00000424 	andeq	r0, r0, r4, lsr #8
 498:	0000915c 	andeq	r9, r0, ip, asr r1
 49c:	00000018 	andeq	r0, r0, r8, lsl r0
 4a0:	84080e42 	strhi	r0, [r8], #-3650	; 0xfffff1be
 4a4:	00018e02 	andeq	r8, r1, r2, lsl #28
 4a8:	00000014 	andeq	r0, r0, r4, lsl r0
 4ac:	00000424 	andeq	r0, r0, r4, lsr #8
 4b0:	00009174 	andeq	r9, r0, r4, ror r1
 4b4:	00000018 	andeq	r0, r0, r8, lsl r0
 4b8:	84080e42 	strhi	r0, [r8], #-3650	; 0xfffff1be
 4bc:	00018e02 	andeq	r8, r1, r2, lsl #28
 4c0:	0000000c 	andeq	r0, r0, ip
 4c4:	ffffffff 			; <UNDEFINED> instruction: 0xffffffff
 4c8:	7c020001 	stcvc	0, cr0, [r2], {1}
 4cc:	000d0c0e 	andeq	r0, sp, lr, lsl #24
 4d0:	00000018 	andeq	r0, r0, r8, lsl r0
 4d4:	000004c0 	andeq	r0, r0, r0, asr #9
 4d8:	000091d8 	ldrdeq	r9, [r0], -r8
 4dc:	00000020 	andeq	r0, r0, r0, lsr #32
 4e0:	84100e42 	ldrhi	r0, [r0], #-3650	; 0xfffff1be
 4e4:	86038504 	strhi	r8, [r3], -r4, lsl #10
 4e8:	00018e02 	andeq	r8, r1, r2, lsl #28
 4ec:	00000014 	andeq	r0, r0, r4, lsl r0
 4f0:	000004c0 	andeq	r0, r0, r0, asr #9
 4f4:	000091f8 	strdeq	r9, [r0], -r8
 4f8:	000000b0 	strheq	r0, [r0], -r0	; <UNPREDICTABLE>
 4fc:	84080e42 	strhi	r0, [r8], #-3650	; 0xfffff1be
 500:	00018e02 	andeq	r8, r1, r2, lsl #28
 504:	00000014 	andeq	r0, r0, r4, lsl r0
 508:	000004c0 	andeq	r0, r0, r0, asr #9
 50c:	000092a8 	andeq	r9, r0, r8, lsr #5
 510:	00000018 	andeq	r0, r0, r8, lsl r0
 514:	84080e42 	strhi	r0, [r8], #-3650	; 0xfffff1be
 518:	00018e02 	andeq	r8, r1, r2, lsl #28
 51c:	00000014 	andeq	r0, r0, r4, lsl r0
 520:	000004c0 	andeq	r0, r0, r0, asr #9
 524:	000092c0 	andeq	r9, r0, r0, asr #5
 528:	00000020 	andeq	r0, r0, r0, lsr #32
 52c:	84080e42 	strhi	r0, [r8], #-3650	; 0xfffff1be
 530:	00018e02 	andeq	r8, r1, r2, lsl #28
 534:	00000014 	andeq	r0, r0, r4, lsl r0
 538:	000004c0 	andeq	r0, r0, r0, asr #9
 53c:	000092e0 	andeq	r9, r0, r0, ror #5
 540:	00000030 	andeq	r0, r0, r0, lsr r0
 544:	84080e42 	strhi	r0, [r8], #-3650	; 0xfffff1be
 548:	00018e02 	andeq	r8, r1, r2, lsl #28
 54c:	00000014 	andeq	r0, r0, r4, lsl r0
 550:	000004c0 	andeq	r0, r0, r0, asr #9
 554:	00009310 	andeq	r9, r0, r0, lsl r3
 558:	00000030 	andeq	r0, r0, r0, lsr r0
 55c:	84080e42 	strhi	r0, [r8], #-3650	; 0xfffff1be
 560:	00018e02 	andeq	r8, r1, r2, lsl #28
 564:	00000014 	andeq	r0, r0, r4, lsl r0
 568:	000004c0 	andeq	r0, r0, r0, asr #9
 56c:	00009340 	andeq	r9, r0, r0, asr #6
 570:	00000010 	andeq	r0, r0, r0, lsl r0
 574:	84080e42 	strhi	r0, [r8], #-3650	; 0xfffff1be
 578:	00018e02 	andeq	r8, r1, r2, lsl #28
 57c:	0000000c 	andeq	r0, r0, ip
 580:	ffffffff 			; <UNDEFINED> instruction: 0xffffffff
 584:	7c020001 	stcvc	0, cr0, [r2], {1}
 588:	000d0c0e 	andeq	r0, sp, lr, lsl #24
 58c:	00000018 	andeq	r0, r0, r8, lsl r0
 590:	0000057c 	andeq	r0, r0, ip, ror r5
 594:	00009350 	andeq	r9, r0, r0, asr r3
 598:	00000068 	andeq	r0, r0, r8, rrx
 59c:	84100e4a 	ldrhi	r0, [r0], #-3658	; 0xfffff1b6
 5a0:	86038504 	strhi	r8, [r3], -r4, lsl #10
 5a4:	00018e02 	andeq	r8, r1, r2, lsl #28
 5a8:	00000014 	andeq	r0, r0, r4, lsl r0
 5ac:	0000057c 	andeq	r0, r0, ip, ror r5
 5b0:	000093b8 			; <UNDEFINED> instruction: 0x000093b8
 5b4:	00000010 	andeq	r0, r0, r0, lsl r0
 5b8:	84080e42 	strhi	r0, [r8], #-3650	; 0xfffff1be
 5bc:	00018e02 	andeq	r8, r1, r2, lsl #28
 5c0:	00000014 	andeq	r0, r0, r4, lsl r0
 5c4:	0000057c 	andeq	r0, r0, ip, ror r5
 5c8:	000093c8 	andeq	r9, r0, r8, asr #7
 5cc:	00000024 	andeq	r0, r0, r4, lsr #32
 5d0:	84080e46 	strhi	r0, [r8], #-3654	; 0xfffff1ba
 5d4:	00018e02 	andeq	r8, r1, r2, lsl #28
 5d8:	00000014 	andeq	r0, r0, r4, lsl r0
 5dc:	0000057c 	andeq	r0, r0, ip, ror r5
 5e0:	000093ec 	andeq	r9, r0, ip, ror #7
 5e4:	00000024 	andeq	r0, r0, r4, lsr #32
 5e8:	84080e46 	strhi	r0, [r8], #-3654	; 0xfffff1ba
 5ec:	00018e02 	andeq	r8, r1, r2, lsl #28
 5f0:	00000014 	andeq	r0, r0, r4, lsl r0
 5f4:	0000057c 	andeq	r0, r0, ip, ror r5
 5f8:	00009410 	andeq	r9, r0, r0, lsl r4
 5fc:	00000010 	andeq	r0, r0, r0, lsl r0
 600:	84080e42 	strhi	r0, [r8], #-3650	; 0xfffff1be
 604:	00018e02 	andeq	r8, r1, r2, lsl #28
 608:	00000014 	andeq	r0, r0, r4, lsl r0
 60c:	0000057c 	andeq	r0, r0, ip, ror r5
 610:	00009420 	andeq	r9, r0, r0, lsr #8
 614:	0000001c 	andeq	r0, r0, ip, lsl r0
 618:	84080e42 	strhi	r0, [r8], #-3650	; 0xfffff1be
 61c:	00018e02 	andeq	r8, r1, r2, lsl #28
 620:	00000018 	andeq	r0, r0, r8, lsl r0
 624:	0000057c 	andeq	r0, r0, ip, ror r5
 628:	0000943c 	andeq	r9, r0, ip, lsr r4
 62c:	00000034 	andeq	r0, r0, r4, lsr r0
 630:	84080e46 	strhi	r0, [r8], #-3654	; 0xfffff1ba
 634:	4e018e02 	cdpmi	14, 0, cr8, cr1, cr2, {0}
 638:	cec4000e 	cdpgt	0, 12, cr0, cr4, cr14, {0}
 63c:	0000000c 	andeq	r0, r0, ip
 640:	ffffffff 			; <UNDEFINED> instruction: 0xffffffff
 644:	7c020001 	stcvc	0, cr0, [r2], {1}
 648:	000d0c0e 	andeq	r0, sp, lr, lsl #24
 64c:	0000000c 	andeq	r0, r0, ip
 650:	0000063c 	andeq	r0, r0, ip, lsr r6
 654:	00009470 	andeq	r9, r0, r0, ror r4
 658:	00000010 	andeq	r0, r0, r0, lsl r0
 65c:	0000000c 	andeq	r0, r0, ip
 660:	0000063c 	andeq	r0, r0, ip, lsr r6
 664:	00009480 	andeq	r9, r0, r0, lsl #9
 668:	0000000c 	andeq	r0, r0, ip
 66c:	00000014 	andeq	r0, r0, r4, lsl r0
 670:	0000063c 	andeq	r0, r0, ip, lsr r6
 674:	0000948c 	andeq	r9, r0, ip, lsl #9
 678:	00000050 	andeq	r0, r0, r0, asr r0
 67c:	84080e52 	strhi	r0, [r8], #-3666	; 0xfffff1ae
 680:	00018e02 	andeq	r8, r1, r2, lsl #28
 684:	00000014 	andeq	r0, r0, r4, lsl r0
 688:	0000063c 	andeq	r0, r0, ip, lsr r6
 68c:	000094dc 	ldrdeq	r9, [r0], -ip
 690:	00000064 	andeq	r0, r0, r4, rrx
 694:	84080e42 	strhi	r0, [r8], #-3650	; 0xfffff1be
 698:	00018e02 	andeq	r8, r1, r2, lsl #28
 69c:	0000000c 	andeq	r0, r0, ip
 6a0:	0000063c 	andeq	r0, r0, ip, lsr r6
 6a4:	00009540 	andeq	r9, r0, r0, asr #10
 6a8:	00000004 	andeq	r0, r0, r4
 6ac:	00000014 	andeq	r0, r0, r4, lsl r0
 6b0:	0000063c 	andeq	r0, r0, ip, lsr r6
 6b4:	00009544 	andeq	r9, r0, r4, asr #10
 6b8:	0000000c 	andeq	r0, r0, ip
 6bc:	84080e42 	strhi	r0, [r8], #-3650	; 0xfffff1be
 6c0:	00018e02 	andeq	r8, r1, r2, lsl #28
 6c4:	00000014 	andeq	r0, r0, r4, lsl r0
 6c8:	0000063c 	andeq	r0, r0, ip, lsr r6
 6cc:	00009550 	andeq	r9, r0, r0, asr r5
 6d0:	0000008c 	andeq	r0, r0, ip, lsl #1
 6d4:	84080e42 	strhi	r0, [r8], #-3650	; 0xfffff1be
 6d8:	00018e02 	andeq	r8, r1, r2, lsl #28
 6dc:	0000000c 	andeq	r0, r0, ip
 6e0:	0000063c 	andeq	r0, r0, ip, lsr r6
 6e4:	000095dc 	ldrdeq	r9, [r0], -ip
 6e8:	00000004 	andeq	r0, r0, r4
 6ec:	0000000c 	andeq	r0, r0, ip
 6f0:	0000063c 	andeq	r0, r0, ip, lsr r6
 6f4:	000095e0 	andeq	r9, r0, r0, ror #11
 6f8:	00000014 	andeq	r0, r0, r4, lsl r0
 6fc:	0000000c 	andeq	r0, r0, ip
 700:	0000063c 	andeq	r0, r0, ip, lsr r6
 704:	000095f4 	strdeq	r9, [r0], -r4
 708:	00000010 	andeq	r0, r0, r0, lsl r0

Disassembly of section .debug_ranges:

00000000 <.debug_ranges>:
   0:	000000a0 	andeq	r0, r0, r0, lsr #1
   4:	000000e8 	andeq	r0, r0, r8, ror #1
   8:	00000100 	andeq	r0, r0, r0, lsl #2
   c:	0000012c 	andeq	r0, r0, ip, lsr #2
	...
  18:	000001d4 	ldrdeq	r0, [r0], -r4
  1c:	0000021c 	andeq	r0, r0, ip, lsl r2
  20:	00000220 	andeq	r0, r0, r0, lsr #4
  24:	00000250 	andeq	r0, r0, r0, asr r2
	...
  30:	000002d0 	ldrdeq	r0, [r0], -r0	; <UNPREDICTABLE>
  34:	00000318 	andeq	r0, r0, r8, lsl r3
  38:	0000031c 	andeq	r0, r0, ip, lsl r3
  3c:	0000034c 	andeq	r0, r0, ip, asr #6
	...
  48:	0000074c 	andeq	r0, r0, ip, asr #14
  4c:	00000750 	andeq	r0, r0, r0, asr r7
  50:	00000758 	andeq	r0, r0, r8, asr r7
  54:	00000764 	andeq	r0, r0, r4, ror #14
  58:	0000078c 	andeq	r0, r0, ip, lsl #15
  5c:	0000083c 	andeq	r0, r0, ip, lsr r8
	...
  68:	00009088 	andeq	r9, r0, r8, lsl #1
  6c:	00009100 	andeq	r9, r0, r0, lsl #2
	...
