
part1-test4.elf:     file format elf32-littlearm


Disassembly of section .text:

00008000 <_start>:
    8000:	e3a0d302 	mov	sp, #134217728	; 0x8000000
    8004:	e3a0b000 	mov	fp, #0
    8008:	eb000422 	bl	9098 <_cstart>
    800c:	eb000439 	bl	90f8 <rpi_reboot>

00008010 <notmain>:
    8010:	e92d4070 	push	{r4, r5, r6, lr}
    8014:	e59f00d4 	ldr	r0, [pc, #212]	; 80f0 <notmain+0xe0>
    8018:	eb000259 	bl	8984 <printk>
    801c:	e3a00601 	mov	r0, #1048576	; 0x100000
    8020:	eb000533 	bl	94f4 <kmalloc_init_set_start>
    8024:	e3a00601 	mov	r0, #1048576	; 0x100000
    8028:	eb000545 	bl	9544 <kmalloc>
    802c:	e3a01601 	mov	r1, #1048576	; 0x100000
    8030:	eb00012f 	bl	84f4 <ck_init>
    8034:	e59f50b8 	ldr	r5, [pc, #184]	; 80f4 <notmain+0xe4>
    8038:	e59f40b8 	ldr	r4, [pc, #184]	; 80f8 <notmain+0xe8>
    803c:	e3a0300d 	mov	r3, #13
    8040:	e1a02005 	mov	r2, r5
    8044:	e1a01004 	mov	r1, r4
    8048:	e3a00004 	mov	r0, #4
    804c:	eb000173 	bl	8620 <ckalloc>
    8050:	e1a06000 	mov	r6, r0
    8054:	e3a02004 	mov	r2, #4
    8058:	e3a01000 	mov	r1, #0
    805c:	eb000405 	bl	9078 <memset>
    8060:	e3a0300f 	mov	r3, #15
    8064:	e1a02005 	mov	r2, r5
    8068:	e1a01004 	mov	r1, r4
    806c:	e1a00006 	mov	r0, r6
    8070:	eb00013c 	bl	8568 <ckfree>
    8074:	eb0001ef 	bl	8838 <ck_heap_errors>
    8078:	e3500000 	cmp	r0, #0
    807c:	1a00000d 	bne	80b8 <notmain+0xa8>
    8080:	e59f0074 	ldr	r0, [pc, #116]	; 80fc <notmain+0xec>
    8084:	eb00023e 	bl	8984 <printk>
    8088:	e59f0070 	ldr	r0, [pc, #112]	; 8100 <notmain+0xf0>
    808c:	eb00023c 	bl	8984 <printk>
    8090:	e3a03001 	mov	r3, #1
    8094:	e5c63004 	strb	r3, [r6, #4]
    8098:	eb0001e6 	bl	8838 <ck_heap_errors>
    809c:	e3500001 	cmp	r0, #1
    80a0:	1a00000b 	bne	80d4 <notmain+0xc4>
    80a4:	e59f0050 	ldr	r0, [pc, #80]	; 80fc <notmain+0xec>
    80a8:	eb000235 	bl	8984 <printk>
    80ac:	e59f0050 	ldr	r0, [pc, #80]	; 8104 <notmain+0xf4>
    80b0:	eb000233 	bl	8984 <printk>
    80b4:	e8bd8070 	pop	{r4, r5, r6, pc}
    80b8:	eb0003e4 	bl	9050 <rpi_reset_putc>
    80bc:	e3a03012 	mov	r3, #18
    80c0:	e1a02005 	mov	r2, r5
    80c4:	e1a01004 	mov	r1, r4
    80c8:	e59f0038 	ldr	r0, [pc, #56]	; 8108 <notmain+0xf8>
    80cc:	eb00022c 	bl	8984 <printk>
    80d0:	eb00041b 	bl	9144 <clean_reboot>
    80d4:	eb0003dd 	bl	9050 <rpi_reset_putc>
    80d8:	e3a03019 	mov	r3, #25
    80dc:	e59f2010 	ldr	r2, [pc, #16]	; 80f4 <notmain+0xe4>
    80e0:	e59f1010 	ldr	r1, [pc, #16]	; 80f8 <notmain+0xe8>
    80e4:	e59f001c 	ldr	r0, [pc, #28]	; 8108 <notmain+0xf8>
    80e8:	eb000225 	bl	8984 <printk>
    80ec:	eb000414 	bl	9144 <clean_reboot>
    80f0:	0000969c 	muleq	r0, ip, r6
    80f4:	00009694 	muleq	r0, r4, r6
    80f8:	000096b4 			; <UNDEFINED> instruction: 0x000096b4
    80fc:	000096e8 	andeq	r9, r0, r8, ror #13
    8100:	000096f0 	strdeq	r9, [r0], -r0
    8104:	0000970c 	andeq	r9, r0, ip, lsl #14
    8108:	000096c4 	andeq	r9, r0, r4, asr #13

0000810c <b_rz1_ptr>:
    810c:	e2800038 	add	r0, r0, #56	; 0x38
    8110:	e12fff1e 	bx	lr

00008114 <b_alloc_ptr>:
    8114:	e92d4010 	push	{r4, lr}
    8118:	ebfffffb 	bl	810c <b_rz1_ptr>
    811c:	e2800080 	add	r0, r0, #128	; 0x80
    8120:	e8bd8010 	pop	{r4, pc}

00008124 <b_rz2_ptr>:
    8124:	e92d4010 	push	{r4, lr}
    8128:	e1a04000 	mov	r4, r0
    812c:	ebfffff8 	bl	8114 <b_alloc_ptr>
    8130:	e5943000 	ldr	r3, [r4]
    8134:	e0800003 	add	r0, r0, r3
    8138:	e8bd8010 	pop	{r4, pc}

0000813c <b_rz2_nbytes>:
    813c:	e5900004 	ldr	r0, [r0, #4]
    8140:	e2800080 	add	r0, r0, #128	; 0x80
    8144:	e12fff1e 	bx	lr

00008148 <b_addr_to_hdr>:
    8148:	e24000b8 	sub	r0, r0, #184	; 0xb8
    814c:	e12fff1e 	bx	lr

00008150 <check_free_write>:
    8150:	e92d41f0 	push	{r4, r5, r6, r7, r8, lr}
    8154:	e3a04000 	mov	r4, #0
    8158:	e1540001 	cmp	r4, r1
    815c:	2a000035 	bcs	8238 <check_free_write+0xe8>
    8160:	e7d03004 	ldrb	r3, [r0, r4]
    8164:	e35300fe 	cmp	r3, #254	; 0xfe
    8168:	02844001 	addeq	r4, r4, #1
    816c:	0afffff9 	beq	8158 <check_free_write+0x8>
    8170:	e1a06002 	mov	r6, r2
    8174:	e1a05000 	mov	r5, r0
    8178:	e1a00002 	mov	r0, r2
    817c:	ebffffe4 	bl	8114 <b_alloc_ptr>
    8180:	e0450000 	sub	r0, r5, r0
    8184:	e0844000 	add	r4, r4, r0
    8188:	e59f70b0 	ldr	r7, [pc, #176]	; 8240 <check_free_write+0xf0>
    818c:	e1a00007 	mov	r0, r7
    8190:	eb0001fb 	bl	8984 <printk>
    8194:	e59f00a8 	ldr	r0, [pc, #168]	; 8244 <check_free_write+0xf4>
    8198:	eb0001f9 	bl	8984 <printk>
    819c:	e1a02004 	mov	r2, r4
    81a0:	e1a01005 	mov	r1, r5
    81a4:	e59f009c 	ldr	r0, [pc, #156]	; 8248 <check_free_write+0xf8>
    81a8:	eb0001f5 	bl	8984 <printk>
    81ac:	e1a00007 	mov	r0, r7
    81b0:	eb0001f3 	bl	8984 <printk>
    81b4:	e5961000 	ldr	r1, [r6]
    81b8:	e59f008c 	ldr	r0, [pc, #140]	; 824c <check_free_write+0xfc>
    81bc:	eb0001f0 	bl	8984 <printk>
    81c0:	e5963010 	ldr	r3, [r6, #16]
    81c4:	e3530000 	cmp	r3, #0
    81c8:	0a000006 	beq	81e8 <check_free_write+0x98>
    81cc:	e1a00007 	mov	r0, r7
    81d0:	eb0001eb 	bl	8984 <printk>
    81d4:	e5963018 	ldr	r3, [r6, #24]
    81d8:	e5962014 	ldr	r2, [r6, #20]
    81dc:	e5961010 	ldr	r1, [r6, #16]
    81e0:	e59f0068 	ldr	r0, [pc, #104]	; 8250 <check_free_write+0x100>
    81e4:	eb0001e6 	bl	8984 <printk>
    81e8:	e5963008 	ldr	r3, [r6, #8]
    81ec:	e353000c 	cmp	r3, #12
    81f0:	0a000005 	beq	820c <check_free_write+0xbc>
    81f4:	e59f0044 	ldr	r0, [pc, #68]	; 8240 <check_free_write+0xf0>
    81f8:	eb0001e1 	bl	8984 <printk>
    81fc:	e59f0050 	ldr	r0, [pc, #80]	; 8254 <check_free_write+0x104>
    8200:	eb0001df 	bl	8984 <printk>
    8204:	e3a00000 	mov	r0, #0
    8208:	e8bd81f0 	pop	{r4, r5, r6, r7, r8, pc}
    820c:	e596301c 	ldr	r3, [r6, #28]
    8210:	e3530000 	cmp	r3, #0
    8214:	0afffff6 	beq	81f4 <check_free_write+0xa4>
    8218:	e59f0020 	ldr	r0, [pc, #32]	; 8240 <check_free_write+0xf0>
    821c:	eb0001d8 	bl	8984 <printk>
    8220:	e5963024 	ldr	r3, [r6, #36]	; 0x24
    8224:	e5962020 	ldr	r2, [r6, #32]
    8228:	e596101c 	ldr	r1, [r6, #28]
    822c:	e59f0024 	ldr	r0, [pc, #36]	; 8258 <check_free_write+0x108>
    8230:	eb0001d3 	bl	8984 <printk>
    8234:	eaffffee 	b	81f4 <check_free_write+0xa4>
    8238:	e3a00001 	mov	r0, #1
    823c:	e8bd81f0 	pop	{r4, r5, r6, r7, r8, pc}
    8240:	000096e8 	andeq	r9, r0, r8, ror #13
    8244:	00009744 	andeq	r9, r0, r4, asr #14
    8248:	0000974c 	andeq	r9, r0, ip, asr #14
    824c:	00009770 	andeq	r9, r0, r0, ror r7
    8250:	0000977c 	andeq	r9, r0, ip, ror r7
    8254:	000097b8 			; <UNDEFINED> instruction: 0x000097b8
    8258:	0000979c 	muleq	r0, ip, r7

0000825c <mark_mem>:
    825c:	e92d4010 	push	{r4, lr}
    8260:	e1a02001 	mov	r2, r1
    8264:	e3a010fe 	mov	r1, #254	; 0xfe
    8268:	eb000382 	bl	9078 <memset>
    826c:	e8bd8010 	pop	{r4, pc}

00008270 <hdr_cksum>:
    8270:	e92d4070 	push	{r4, r5, r6, lr}
    8274:	e1a04000 	mov	r4, r0
    8278:	e590500c 	ldr	r5, [r0, #12]
    827c:	e3a03000 	mov	r3, #0
    8280:	e580300c 	str	r3, [r0, #12]
    8284:	e3a01038 	mov	r1, #56	; 0x38
    8288:	eb000324 	bl	8f20 <fast_hash>
    828c:	e584500c 	str	r5, [r4, #12]
    8290:	e8bd8070 	pop	{r4, r5, r6, pc}

00008294 <check_hdr>:
    8294:	e92d4070 	push	{r4, r5, r6, lr}
    8298:	e1a04000 	mov	r4, r0
    829c:	e5903008 	ldr	r3, [r0, #8]
    82a0:	e243300b 	sub	r3, r3, #11
    82a4:	e3530001 	cmp	r3, #1
    82a8:	9a00001c 	bls	8320 <check_hdr+0x8c>
    82ac:	e59f50bc 	ldr	r5, [pc, #188]	; 8370 <check_hdr+0xdc>
    82b0:	e1a00005 	mov	r0, r5
    82b4:	eb0001b2 	bl	8984 <printk>
    82b8:	e59f00b4 	ldr	r0, [pc, #180]	; 8374 <check_hdr+0xe0>
    82bc:	eb0001b0 	bl	8984 <printk>
    82c0:	e3a02000 	mov	r2, #0
    82c4:	e1a01004 	mov	r1, r4
    82c8:	e59f00a8 	ldr	r0, [pc, #168]	; 8378 <check_hdr+0xe4>
    82cc:	eb0001ac 	bl	8984 <printk>
    82d0:	e1a00005 	mov	r0, r5
    82d4:	eb0001aa 	bl	8984 <printk>
    82d8:	e5941000 	ldr	r1, [r4]
    82dc:	e59f0098 	ldr	r0, [pc, #152]	; 837c <check_hdr+0xe8>
    82e0:	eb0001a7 	bl	8984 <printk>
    82e4:	e5943010 	ldr	r3, [r4, #16]
    82e8:	e3530000 	cmp	r3, #0
    82ec:	0a000006 	beq	830c <check_hdr+0x78>
    82f0:	e1a00005 	mov	r0, r5
    82f4:	eb0001a2 	bl	8984 <printk>
    82f8:	e5943018 	ldr	r3, [r4, #24]
    82fc:	e5942014 	ldr	r2, [r4, #20]
    8300:	e5941010 	ldr	r1, [r4, #16]
    8304:	e59f0074 	ldr	r0, [pc, #116]	; 8380 <check_hdr+0xec>
    8308:	eb00019d 	bl	8984 <printk>
    830c:	e5943008 	ldr	r3, [r4, #8]
    8310:	e353000c 	cmp	r3, #12
    8314:	0a000007 	beq	8338 <check_hdr+0xa4>
    8318:	e3a00000 	mov	r0, #0
    831c:	e8bd8070 	pop	{r4, r5, r6, pc}
    8320:	e590500c 	ldr	r5, [r0, #12]
    8324:	ebffffd1 	bl	8270 <hdr_cksum>
    8328:	e1550000 	cmp	r5, r0
    832c:	1affffde 	bne	82ac <check_hdr+0x18>
    8330:	e3a00001 	mov	r0, #1
    8334:	e8bd8070 	pop	{r4, r5, r6, pc}
    8338:	e594301c 	ldr	r3, [r4, #28]
    833c:	e3530000 	cmp	r3, #0
    8340:	0a000008 	beq	8368 <check_hdr+0xd4>
    8344:	e59f0024 	ldr	r0, [pc, #36]	; 8370 <check_hdr+0xdc>
    8348:	eb00018d 	bl	8984 <printk>
    834c:	e5943024 	ldr	r3, [r4, #36]	; 0x24
    8350:	e5942020 	ldr	r2, [r4, #32]
    8354:	e594101c 	ldr	r1, [r4, #28]
    8358:	e59f0024 	ldr	r0, [pc, #36]	; 8384 <check_hdr+0xf0>
    835c:	eb000188 	bl	8984 <printk>
    8360:	e3a00000 	mov	r0, #0
    8364:	e8bd8070 	pop	{r4, r5, r6, pc}
    8368:	e3a00000 	mov	r0, #0
    836c:	e8bd8070 	pop	{r4, r5, r6, pc}
    8370:	000096e8 	andeq	r9, r0, r8, ror #13
    8374:	00009744 	andeq	r9, r0, r4, asr #14
    8378:	0000974c 	andeq	r9, r0, ip, asr #14
    837c:	00009770 	andeq	r9, r0, r0, ror r7
    8380:	0000977c 	andeq	r9, r0, ip, ror r7
    8384:	0000979c 	muleq	r0, ip, r7

00008388 <check_mem>:
    8388:	e92d41f0 	push	{r4, r5, r6, r7, r8, lr}
    838c:	e3a04000 	mov	r4, #0
    8390:	e1540001 	cmp	r4, r1
    8394:	2a000033 	bcs	8468 <check_mem+0xe0>
    8398:	e7d03004 	ldrb	r3, [r0, r4]
    839c:	e35300fe 	cmp	r3, #254	; 0xfe
    83a0:	02844001 	addeq	r4, r4, #1
    83a4:	0afffff9 	beq	8390 <check_mem+0x8>
    83a8:	e1a06002 	mov	r6, r2
    83ac:	e1a05000 	mov	r5, r0
    83b0:	e1a00002 	mov	r0, r2
    83b4:	ebffff56 	bl	8114 <b_alloc_ptr>
    83b8:	e0450000 	sub	r0, r5, r0
    83bc:	e0844000 	add	r4, r4, r0
    83c0:	e59f70b0 	ldr	r7, [pc, #176]	; 8478 <check_mem+0xf0>
    83c4:	e1a00007 	mov	r0, r7
    83c8:	eb00016d 	bl	8984 <printk>
    83cc:	e59f00a8 	ldr	r0, [pc, #168]	; 847c <check_mem+0xf4>
    83d0:	eb00016b 	bl	8984 <printk>
    83d4:	e5961000 	ldr	r1, [r6]
    83d8:	e1a02004 	mov	r2, r4
    83dc:	e0451001 	sub	r1, r5, r1
    83e0:	e59f0098 	ldr	r0, [pc, #152]	; 8480 <check_mem+0xf8>
    83e4:	eb000166 	bl	8984 <printk>
    83e8:	e1a00007 	mov	r0, r7
    83ec:	eb000164 	bl	8984 <printk>
    83f0:	e5961000 	ldr	r1, [r6]
    83f4:	e59f0088 	ldr	r0, [pc, #136]	; 8484 <check_mem+0xfc>
    83f8:	eb000161 	bl	8984 <printk>
    83fc:	e5963010 	ldr	r3, [r6, #16]
    8400:	e3530000 	cmp	r3, #0
    8404:	0a000006 	beq	8424 <check_mem+0x9c>
    8408:	e1a00007 	mov	r0, r7
    840c:	eb00015c 	bl	8984 <printk>
    8410:	e5963018 	ldr	r3, [r6, #24]
    8414:	e5962014 	ldr	r2, [r6, #20]
    8418:	e5961010 	ldr	r1, [r6, #16]
    841c:	e59f0064 	ldr	r0, [pc, #100]	; 8488 <check_mem+0x100>
    8420:	eb000157 	bl	8984 <printk>
    8424:	e5963008 	ldr	r3, [r6, #8]
    8428:	e353000c 	cmp	r3, #12
    842c:	0a000001 	beq	8438 <check_mem+0xb0>
    8430:	e3a00000 	mov	r0, #0
    8434:	e8bd81f0 	pop	{r4, r5, r6, r7, r8, pc}
    8438:	e596301c 	ldr	r3, [r6, #28]
    843c:	e3530000 	cmp	r3, #0
    8440:	0a00000a 	beq	8470 <check_mem+0xe8>
    8444:	e59f002c 	ldr	r0, [pc, #44]	; 8478 <check_mem+0xf0>
    8448:	eb00014d 	bl	8984 <printk>
    844c:	e5963024 	ldr	r3, [r6, #36]	; 0x24
    8450:	e5962020 	ldr	r2, [r6, #32]
    8454:	e596101c 	ldr	r1, [r6, #28]
    8458:	e59f002c 	ldr	r0, [pc, #44]	; 848c <check_mem+0x104>
    845c:	eb000148 	bl	8984 <printk>
    8460:	e3a00000 	mov	r0, #0
    8464:	e8bd81f0 	pop	{r4, r5, r6, r7, r8, pc}
    8468:	e3a00001 	mov	r0, #1
    846c:	e8bd81f0 	pop	{r4, r5, r6, r7, r8, pc}
    8470:	e3a00000 	mov	r0, #0
    8474:	e8bd81f0 	pop	{r4, r5, r6, r7, r8, pc}
    8478:	000096e8 	andeq	r9, r0, r8, ror #13
    847c:	00009744 	andeq	r9, r0, r4, asr #14
    8480:	0000974c 	andeq	r9, r0, ip, asr #14
    8484:	00009770 	andeq	r9, r0, r0, ror r7
    8488:	0000977c 	andeq	r9, r0, ip, ror r7
    848c:	0000979c 	muleq	r0, ip, r7

00008490 <check_block>:
    8490:	e92d4070 	push	{r4, r5, r6, lr}
    8494:	e1a04000 	mov	r4, r0
    8498:	ebffff7d 	bl	8294 <check_hdr>
    849c:	e3500000 	cmp	r0, #0
    84a0:	08bd8070 	popeq	{r4, r5, r6, pc}
    84a4:	e1a00004 	mov	r0, r4
    84a8:	ebffff17 	bl	810c <b_rz1_ptr>
    84ac:	e1a02004 	mov	r2, r4
    84b0:	e3a01080 	mov	r1, #128	; 0x80
    84b4:	ebffffb3 	bl	8388 <check_mem>
    84b8:	e3500000 	cmp	r0, #0
    84bc:	08bd8070 	popeq	{r4, r5, r6, pc}
    84c0:	e1a00004 	mov	r0, r4
    84c4:	ebffff16 	bl	8124 <b_rz2_ptr>
    84c8:	e1a05000 	mov	r5, r0
    84cc:	e1a00004 	mov	r0, r4
    84d0:	ebffff19 	bl	813c <b_rz2_nbytes>
    84d4:	e1a02004 	mov	r2, r4
    84d8:	e1a01000 	mov	r1, r0
    84dc:	e1a00005 	mov	r0, r5
    84e0:	ebffffa8 	bl	8388 <check_mem>
    84e4:	e3500000 	cmp	r0, #0
    84e8:	08bd8070 	popeq	{r4, r5, r6, pc}
    84ec:	e3a00001 	mov	r0, #1
    84f0:	e8bd8070 	pop	{r4, r5, r6, pc}

000084f4 <ck_init>:
    84f4:	e92d4070 	push	{r4, r5, r6, lr}
    84f8:	e59f3054 	ldr	r3, [pc, #84]	; 8554 <ck_init+0x60>
    84fc:	e5933000 	ldr	r3, [r3]
    8500:	e3130007 	tst	r3, #7
    8504:	1a00000b 	bne	8538 <ck_init+0x44>
    8508:	e1a04000 	mov	r4, r0
    850c:	e1a05001 	mov	r5, r1
    8510:	e3a02080 	mov	r2, #128	; 0x80
    8514:	e3a01038 	mov	r1, #56	; 0x38
    8518:	e59f0038 	ldr	r0, [pc, #56]	; 8558 <ck_init+0x64>
    851c:	eb000118 	bl	8984 <printk>
    8520:	e59f302c 	ldr	r3, [pc, #44]	; 8554 <ck_init+0x60>
    8524:	e5834000 	str	r4, [r3]
    8528:	e5834004 	str	r4, [r3, #4]
    852c:	e0844005 	add	r4, r4, r5
    8530:	e5834008 	str	r4, [r3, #8]
    8534:	e8bd8070 	pop	{r4, r5, r6, pc}
    8538:	eb0002c4 	bl	9050 <rpi_reset_putc>
    853c:	e3a0300a 	mov	r3, #10
    8540:	e59f2014 	ldr	r2, [pc, #20]	; 855c <ck_init+0x68>
    8544:	e59f1014 	ldr	r1, [pc, #20]	; 8560 <ck_init+0x6c>
    8548:	e59f0014 	ldr	r0, [pc, #20]	; 8564 <ck_init+0x70>
    854c:	eb00010c 	bl	8984 <printk>
    8550:	eb0002fb 	bl	9144 <clean_reboot>
    8554:	00009c60 	andeq	r9, r0, r0, ror #24
    8558:	00009808 	andeq	r9, r0, r8, lsl #16
    855c:	0000972c 	andeq	r9, r0, ip, lsr #14
    8560:	000097d4 	ldrdeq	r9, [r0], -r4
    8564:	000097e0 	andeq	r9, r0, r0, ror #15

00008568 <ckfree>:
    8568:	e92d41f0 	push	{r4, r5, r6, r7, r8, lr}
    856c:	e1a05000 	mov	r5, r0
    8570:	e1a08001 	mov	r8, r1
    8574:	e1a07002 	mov	r7, r2
    8578:	e1a06003 	mov	r6, r3
    857c:	ebfffef1 	bl	8148 <b_addr_to_hdr>
    8580:	e59f3080 	ldr	r3, [pc, #128]	; 8608 <ckfree+0xa0>
    8584:	e5933004 	ldr	r3, [r3, #4]
    8588:	e3530000 	cmp	r3, #0
    858c:	0a000016 	beq	85ec <ckfree+0x84>
    8590:	e1a04000 	mov	r4, r0
    8594:	e59f0070 	ldr	r0, [pc, #112]	; 860c <ckfree+0xa4>
    8598:	eb0000f9 	bl	8984 <printk>
    859c:	e1a01005 	mov	r1, r5
    85a0:	e59f0068 	ldr	r0, [pc, #104]	; 8610 <ckfree+0xa8>
    85a4:	eb0000f6 	bl	8984 <printk>
    85a8:	e1a00004 	mov	r0, r4
    85ac:	ebffffb7 	bl	8490 <check_block>
    85b0:	e3500000 	cmp	r0, #0
    85b4:	08bd81f0 	popeq	{r4, r5, r6, r7, r8, pc}
    85b8:	e584801c 	str	r8, [r4, #28]
    85bc:	e5847020 	str	r7, [r4, #32]
    85c0:	e5846024 	str	r6, [r4, #36]	; 0x24
    85c4:	e3a0300c 	mov	r3, #12
    85c8:	e5843008 	str	r3, [r4, #8]
    85cc:	e1a00004 	mov	r0, r4
    85d0:	ebfffecf 	bl	8114 <b_alloc_ptr>
    85d4:	e5941000 	ldr	r1, [r4]
    85d8:	ebffff1f 	bl	825c <mark_mem>
    85dc:	e1a00004 	mov	r0, r4
    85e0:	ebffff22 	bl	8270 <hdr_cksum>
    85e4:	e584000c 	str	r0, [r4, #12]
    85e8:	e8bd81f0 	pop	{r4, r5, r6, r7, r8, pc}
    85ec:	eb000297 	bl	9050 <rpi_reset_putc>
    85f0:	e3a03075 	mov	r3, #117	; 0x75
    85f4:	e59f2018 	ldr	r2, [pc, #24]	; 8614 <ckfree+0xac>
    85f8:	e59f1018 	ldr	r1, [pc, #24]	; 8618 <ckfree+0xb0>
    85fc:	e59f0018 	ldr	r0, [pc, #24]	; 861c <ckfree+0xb4>
    8600:	eb0000df 	bl	8984 <printk>
    8604:	eb0002ce 	bl	9144 <clean_reboot>
    8608:	00009c60 	andeq	r9, r0, r0, ror #24
    860c:	000096e8 	andeq	r9, r0, r8, ror #13
    8610:	00009858 	andeq	r9, r0, r8, asr r8
    8614:	00009734 	andeq	r9, r0, r4, lsr r7
    8618:	000097d4 	ldrdeq	r9, [r0], -r4
    861c:	00009824 	andeq	r9, r0, r4, lsr #16

00008620 <ckalloc>:
    8620:	e92d43f0 	push	{r4, r5, r6, r7, r8, r9, lr}
    8624:	e24dd00c 	sub	sp, sp, #12
    8628:	e1a07003 	mov	r7, r3
    862c:	e59f31d0 	ldr	r3, [pc, #464]	; 8804 <ckalloc+0x1e4>
    8630:	e5933004 	ldr	r3, [r3, #4]
    8634:	e3530000 	cmp	r3, #0
    8638:	0a000041 	beq	8744 <ckalloc+0x124>
    863c:	e1a05000 	mov	r5, r0
    8640:	e1a09001 	mov	r9, r1
    8644:	e1a08002 	mov	r8, r2
    8648:	e59f01b8 	ldr	r0, [pc, #440]	; 8808 <ckalloc+0x1e8>
    864c:	eb0000cc 	bl	8984 <printk>
    8650:	e1a01005 	mov	r1, r5
    8654:	e59f01b0 	ldr	r0, [pc, #432]	; 880c <ckalloc+0x1ec>
    8658:	eb0000c9 	bl	8984 <printk>
    865c:	e2853007 	add	r3, r5, #7
    8660:	e3c33007 	bic	r3, r3, #7
    8664:	e2836f4e 	add	r6, r3, #312	; 0x138
    8668:	e1550006 	cmp	r5, r6
    866c:	8a00003b 	bhi	8760 <ckalloc+0x140>
    8670:	e59f218c 	ldr	r2, [pc, #396]	; 8804 <ckalloc+0x1e4>
    8674:	e5924004 	ldr	r4, [r2, #4]
    8678:	e0841006 	add	r1, r4, r6
    867c:	e5922008 	ldr	r2, [r2, #8]
    8680:	e1510002 	cmp	r1, r2
    8684:	2a000042 	bcs	8794 <ckalloc+0x174>
    8688:	e5845000 	str	r5, [r4]
    868c:	e5843004 	str	r3, [r4, #4]
    8690:	e3a0300b 	mov	r3, #11
    8694:	e5843008 	str	r3, [r4, #8]
    8698:	e5849010 	str	r9, [r4, #16]
    869c:	e5848014 	str	r8, [r4, #20]
    86a0:	e5847018 	str	r7, [r4, #24]
    86a4:	e3a03001 	mov	r3, #1
    86a8:	e5843028 	str	r3, [r4, #40]	; 0x28
    86ac:	e3a03000 	mov	r3, #0
    86b0:	e584302c 	str	r3, [r4, #44]	; 0x2c
    86b4:	e1a00004 	mov	r0, r4
    86b8:	ebfffe93 	bl	810c <b_rz1_ptr>
    86bc:	e3a01080 	mov	r1, #128	; 0x80
    86c0:	ebfffee5 	bl	825c <mark_mem>
    86c4:	e1a00004 	mov	r0, r4
    86c8:	ebfffe95 	bl	8124 <b_rz2_ptr>
    86cc:	e1a07000 	mov	r7, r0
    86d0:	e1a00004 	mov	r0, r4
    86d4:	ebfffe98 	bl	813c <b_rz2_nbytes>
    86d8:	e1a01000 	mov	r1, r0
    86dc:	e1a00007 	mov	r0, r7
    86e0:	ebfffedd 	bl	825c <mark_mem>
    86e4:	e1a00004 	mov	r0, r4
    86e8:	ebfffee0 	bl	8270 <hdr_cksum>
    86ec:	e584000c 	str	r0, [r4, #12]
    86f0:	e59f210c 	ldr	r2, [pc, #268]	; 8804 <ckalloc+0x1e4>
    86f4:	e5923004 	ldr	r3, [r2, #4]
    86f8:	e0833006 	add	r3, r3, r6
    86fc:	e5823004 	str	r3, [r2, #4]
    8700:	e1a00004 	mov	r0, r4
    8704:	ebffff61 	bl	8490 <check_block>
    8708:	e3500000 	cmp	r0, #0
    870c:	0a000035 	beq	87e8 <ckalloc+0x1c8>
    8710:	e1a00004 	mov	r0, r4
    8714:	ebfffe7e 	bl	8114 <b_alloc_ptr>
    8718:	e1a04000 	mov	r4, r0
    871c:	e59f00e4 	ldr	r0, [pc, #228]	; 8808 <ckalloc+0x1e8>
    8720:	eb000097 	bl	8984 <printk>
    8724:	e1a03004 	mov	r3, r4
    8728:	e1a02006 	mov	r2, r6
    872c:	e1a01005 	mov	r1, r5
    8730:	e59f00d8 	ldr	r0, [pc, #216]	; 8810 <ckalloc+0x1f0>
    8734:	eb000092 	bl	8984 <printk>
    8738:	e1a00004 	mov	r0, r4
    873c:	e28dd00c 	add	sp, sp, #12
    8740:	e8bd83f0 	pop	{r4, r5, r6, r7, r8, r9, pc}
    8744:	eb000241 	bl	9050 <rpi_reset_putc>
    8748:	e3a0308b 	mov	r3, #139	; 0x8b
    874c:	e59f20c0 	ldr	r2, [pc, #192]	; 8814 <ckalloc+0x1f4>
    8750:	e59f10c0 	ldr	r1, [pc, #192]	; 8818 <ckalloc+0x1f8>
    8754:	e59f00c0 	ldr	r0, [pc, #192]	; 881c <ckalloc+0x1fc>
    8758:	eb000089 	bl	8984 <printk>
    875c:	eb000278 	bl	9144 <clean_reboot>
    8760:	e59f00b8 	ldr	r0, [pc, #184]	; 8820 <ckalloc+0x200>
    8764:	eb000086 	bl	8984 <printk>
    8768:	e1a01005 	mov	r1, r5
    876c:	e59f00b0 	ldr	r0, [pc, #176]	; 8824 <ckalloc+0x204>
    8770:	eb000083 	bl	8984 <printk>
    8774:	eb000235 	bl	9050 <rpi_reset_putc>
    8778:	e58d5000 	str	r5, [sp]
    877c:	e3a03093 	mov	r3, #147	; 0x93
    8780:	e59f208c 	ldr	r2, [pc, #140]	; 8814 <ckalloc+0x1f4>
    8784:	e59f108c 	ldr	r1, [pc, #140]	; 8818 <ckalloc+0x1f8>
    8788:	e59f0098 	ldr	r0, [pc, #152]	; 8828 <ckalloc+0x208>
    878c:	eb00007c 	bl	8984 <printk>
    8790:	eb00026b 	bl	9144 <clean_reboot>
    8794:	e59f0084 	ldr	r0, [pc, #132]	; 8820 <ckalloc+0x200>
    8798:	eb000079 	bl	8984 <printk>
    879c:	e59f4060 	ldr	r4, [pc, #96]	; 8804 <ckalloc+0x1e4>
    87a0:	e5941008 	ldr	r1, [r4, #8]
    87a4:	e5943004 	ldr	r3, [r4, #4]
    87a8:	e1a02006 	mov	r2, r6
    87ac:	e0411003 	sub	r1, r1, r3
    87b0:	e59f0074 	ldr	r0, [pc, #116]	; 882c <ckalloc+0x20c>
    87b4:	eb000072 	bl	8984 <printk>
    87b8:	eb000224 	bl	9050 <rpi_reset_putc>
    87bc:	e58d6004 	str	r6, [sp, #4]
    87c0:	e5943008 	ldr	r3, [r4, #8]
    87c4:	e5942004 	ldr	r2, [r4, #4]
    87c8:	e0433002 	sub	r3, r3, r2
    87cc:	e58d3000 	str	r3, [sp]
    87d0:	e3a03097 	mov	r3, #151	; 0x97
    87d4:	e59f2038 	ldr	r2, [pc, #56]	; 8814 <ckalloc+0x1f4>
    87d8:	e59f1038 	ldr	r1, [pc, #56]	; 8818 <ckalloc+0x1f8>
    87dc:	e59f004c 	ldr	r0, [pc, #76]	; 8830 <ckalloc+0x210>
    87e0:	eb000067 	bl	8984 <printk>
    87e4:	eb000256 	bl	9144 <clean_reboot>
    87e8:	eb000218 	bl	9050 <rpi_reset_putc>
    87ec:	e3a030a5 	mov	r3, #165	; 0xa5
    87f0:	e59f201c 	ldr	r2, [pc, #28]	; 8814 <ckalloc+0x1f4>
    87f4:	e59f101c 	ldr	r1, [pc, #28]	; 8818 <ckalloc+0x1f8>
    87f8:	e59f0034 	ldr	r0, [pc, #52]	; 8834 <ckalloc+0x214>
    87fc:	eb000060 	bl	8984 <printk>
    8800:	eb00024f 	bl	9144 <clean_reboot>
    8804:	00009c60 	andeq	r9, r0, r0, ror #24
    8808:	000096e8 	andeq	r9, r0, r8, ror #13
    880c:	00009864 	andeq	r9, r0, r4, ror #16
    8810:	00009970 	andeq	r9, r0, r0, ror r9
    8814:	0000973c 	andeq	r9, r0, ip, lsr r7
    8818:	000097d4 	ldrdeq	r9, [r0], -r4
    881c:	00009824 	andeq	r9, r0, r4, lsr #16
    8820:	0000987c 	andeq	r9, r0, ip, ror r8
    8824:	00009888 	andeq	r9, r0, r8, lsl #17
    8828:	000098b0 			; <UNDEFINED> instruction: 0x000098b0
    882c:	000098e8 	andeq	r9, r0, r8, ror #17
    8830:	00009914 	andeq	r9, r0, r4, lsl r9
    8834:	00009950 	andeq	r9, r0, r0, asr r9

00008838 <ck_heap_errors>:
    8838:	e92d41f0 	push	{r4, r5, r6, r7, r8, lr}
    883c:	e59f412c 	ldr	r4, [pc, #300]	; 8970 <ck_heap_errors+0x138>
    8840:	e5943004 	ldr	r3, [r4, #4]
    8844:	e5945000 	ldr	r5, [r4]
    8848:	e0435005 	sub	r5, r3, r5
    884c:	e5946008 	ldr	r6, [r4, #8]
    8850:	e0466003 	sub	r6, r6, r3
    8854:	e59f0118 	ldr	r0, [pc, #280]	; 8974 <ck_heap_errors+0x13c>
    8858:	eb000049 	bl	8984 <printk>
    885c:	e1a02006 	mov	r2, r6
    8860:	e1a01005 	mov	r1, r5
    8864:	e59f010c 	ldr	r0, [pc, #268]	; 8978 <ck_heap_errors+0x140>
    8868:	eb000045 	bl	8984 <printk>
    886c:	e5944000 	ldr	r4, [r4]
    8870:	e3a05000 	mov	r5, #0
    8874:	e1a06005 	mov	r6, r5
    8878:	ea000011 	b	88c4 <ck_heap_errors+0x8c>
    887c:	e2866001 	add	r6, r6, #1
    8880:	e2855001 	add	r5, r5, #1
    8884:	e3560000 	cmp	r6, #0
    8888:	1a000031 	bne	8954 <ck_heap_errors+0x11c>
    888c:	e59f00e0 	ldr	r0, [pc, #224]	; 8974 <ck_heap_errors+0x13c>
    8890:	eb00003b 	bl	8984 <printk>
    8894:	e1a01005 	mov	r1, r5
    8898:	e59f00dc 	ldr	r0, [pc, #220]	; 897c <ck_heap_errors+0x144>
    889c:	eb000038 	bl	8984 <printk>
    88a0:	e1a00006 	mov	r0, r6
    88a4:	e8bd81f0 	pop	{r4, r5, r6, r7, r8, pc}
    88a8:	e2866001 	add	r6, r6, #1
    88ac:	e2855001 	add	r5, r5, #1
    88b0:	e5943000 	ldr	r3, [r4]
    88b4:	e5942004 	ldr	r2, [r4, #4]
    88b8:	e0833002 	add	r3, r3, r2
    88bc:	e2833f4e 	add	r3, r3, #312	; 0x138
    88c0:	e0844003 	add	r4, r4, r3
    88c4:	e59f30a4 	ldr	r3, [pc, #164]	; 8970 <ck_heap_errors+0x138>
    88c8:	e5933004 	ldr	r3, [r3, #4]
    88cc:	e1540003 	cmp	r4, r3
    88d0:	2affffeb 	bcs	8884 <ck_heap_errors+0x4c>
    88d4:	e1a00004 	mov	r0, r4
    88d8:	ebfffe6d 	bl	8294 <check_hdr>
    88dc:	e3500000 	cmp	r0, #0
    88e0:	0affffe5 	beq	887c <ck_heap_errors+0x44>
    88e4:	e1a00004 	mov	r0, r4
    88e8:	ebfffe07 	bl	810c <b_rz1_ptr>
    88ec:	e1a02004 	mov	r2, r4
    88f0:	e3a01080 	mov	r1, #128	; 0x80
    88f4:	ebfffea3 	bl	8388 <check_mem>
    88f8:	e3500000 	cmp	r0, #0
    88fc:	0affffe9 	beq	88a8 <ck_heap_errors+0x70>
    8900:	e1a00004 	mov	r0, r4
    8904:	ebfffe06 	bl	8124 <b_rz2_ptr>
    8908:	e1a07000 	mov	r7, r0
    890c:	e1a00004 	mov	r0, r4
    8910:	ebfffe09 	bl	813c <b_rz2_nbytes>
    8914:	e1a02004 	mov	r2, r4
    8918:	e1a01000 	mov	r1, r0
    891c:	e1a00007 	mov	r0, r7
    8920:	ebfffe98 	bl	8388 <check_mem>
    8924:	e3500000 	cmp	r0, #0
    8928:	0affffde 	beq	88a8 <ck_heap_errors+0x70>
    892c:	e3a0300c 	mov	r3, #12
    8930:	e5843008 	str	r3, [r4, #8]
    8934:	e1a00004 	mov	r0, r4
    8938:	ebfffdf5 	bl	8114 <b_alloc_ptr>
    893c:	e1a02004 	mov	r2, r4
    8940:	e5941000 	ldr	r1, [r4]
    8944:	ebfffe01 	bl	8150 <check_free_write>
    8948:	e3500000 	cmp	r0, #0
    894c:	02866001 	addeq	r6, r6, #1
    8950:	eaffffd5 	b	88ac <ck_heap_errors+0x74>
    8954:	e59f0018 	ldr	r0, [pc, #24]	; 8974 <ck_heap_errors+0x13c>
    8958:	eb000009 	bl	8984 <printk>
    895c:	e1a02006 	mov	r2, r6
    8960:	e1a01005 	mov	r1, r5
    8964:	e59f0014 	ldr	r0, [pc, #20]	; 8980 <ck_heap_errors+0x148>
    8968:	eb000005 	bl	8984 <printk>
    896c:	eaffffcb 	b	88a0 <ck_heap_errors+0x68>
    8970:	00009c60 	andeq	r9, r0, r0, ror #24
    8974:	000096e8 	andeq	r9, r0, r8, ror #13
    8978:	000099a0 	andeq	r9, r0, r0, lsr #19
    897c:	00009a00 	andeq	r9, r0, r0, lsl #20
    8980:	000099d8 	ldrdeq	r9, [r0], -r8

00008984 <printk>:
    8984:	e92d000f 	push	{r0, r1, r2, r3}
    8988:	e92d4030 	push	{r4, r5, lr}
    898c:	e24dd00c 	sub	sp, sp, #12
    8990:	e28d301c 	add	r3, sp, #28
    8994:	e58d3004 	str	r3, [sp, #4]
    8998:	e59f4034 	ldr	r4, [pc, #52]	; 89d4 <printk+0x50>
    899c:	e59d2018 	ldr	r2, [sp, #24]
    89a0:	e3a01b01 	mov	r1, #1024	; 0x400
    89a4:	e1a00004 	mov	r0, r4
    89a8:	eb0000ac 	bl	8c60 <va_printk>
    89ac:	e1a05000 	mov	r5, r0
    89b0:	e59f3020 	ldr	r3, [pc, #32]	; 89d8 <printk+0x54>
    89b4:	e5933000 	ldr	r3, [r3]
    89b8:	e1a00004 	mov	r0, r4
    89bc:	e12fff33 	blx	r3
    89c0:	e1a00005 	mov	r0, r5
    89c4:	e28dd00c 	add	sp, sp, #12
    89c8:	e8bd4030 	pop	{r4, r5, lr}
    89cc:	e28dd010 	add	sp, sp, #16
    89d0:	e12fff1e 	bx	lr
    89d4:	00009c6c 	andeq	r9, r0, ip, ror #24
    89d8:	00009684 	andeq	r9, r0, r4, lsl #13

000089dc <isdigit>:
    89dc:	e2400030 	sub	r0, r0, #48	; 0x30
    89e0:	e3500009 	cmp	r0, #9
    89e4:	83a00000 	movhi	r0, #0
    89e8:	93a00001 	movls	r0, #1
    89ec:	e12fff1e 	bx	lr

000089f0 <pad>:
    89f0:	e0401001 	sub	r1, r0, r1
    89f4:	ea000003 	b	8a08 <pad+0x18>
    89f8:	e3a03020 	mov	r3, #32
    89fc:	e5c03000 	strb	r3, [r0]
    8a00:	e2811001 	add	r1, r1, #1
    8a04:	e2800001 	add	r0, r0, #1
    8a08:	e1510002 	cmp	r1, r2
    8a0c:	bafffff9 	blt	89f8 <pad+0x8>
    8a10:	e3a03000 	mov	r3, #0
    8a14:	e5c03000 	strb	r3, [r0]
    8a18:	e12fff1e 	bx	lr

00008a1c <reverse>:
    8a1c:	e042c003 	sub	ip, r2, r3
    8a20:	e28cc001 	add	ip, ip, #1
    8a24:	e15c0001 	cmp	ip, r1
    8a28:	c04cc001 	subgt	ip, ip, r1
    8a2c:	c083300c 	addgt	r3, r3, ip
    8a30:	e2422001 	sub	r2, r2, #1
    8a34:	e1a01000 	mov	r1, r0
    8a38:	ea000002 	b	8a48 <reverse+0x2c>
    8a3c:	e452c001 	ldrb	ip, [r2], #-1
    8a40:	e5c1c000 	strb	ip, [r1]
    8a44:	e2811001 	add	r1, r1, #1
    8a48:	e1520003 	cmp	r2, r3
    8a4c:	2afffffa 	bcs	8a3c <reverse+0x20>
    8a50:	e3a03000 	mov	r3, #0
    8a54:	e5c13000 	strb	r3, [r1]
    8a58:	e12fff1e 	bx	lr

00008a5c <emit>:
    8a5c:	e92d40f0 	push	{r4, r5, r6, r7, lr}
    8a60:	e24dd044 	sub	sp, sp, #68	; 0x44
    8a64:	e1a05001 	mov	r5, r1
    8a68:	e1a04002 	mov	r4, r2
    8a6c:	e59d2058 	ldr	r2, [sp, #88]	; 0x58
    8a70:	e1520004 	cmp	r2, r4
    8a74:	c2442001 	subgt	r2, r4, #1
    8a78:	e1a01003 	mov	r1, r3
    8a7c:	e2400002 	sub	r0, r0, #2
    8a80:	e350000e 	cmp	r0, #14
    8a84:	979ff100 	ldrls	pc, [pc, r0, lsl #2]
    8a88:	ea000051 	b	8bd4 <emit+0x178>
    8a8c:	00008bac 	andeq	r8, r0, ip, lsr #23
    8a90:	00008bd4 	ldrdeq	r8, [r0], -r4
    8a94:	00008bd4 	ldrdeq	r8, [r0], -r4
    8a98:	00008bd4 	ldrdeq	r8, [r0], -r4
    8a9c:	00008bd4 	ldrdeq	r8, [r0], -r4
    8aa0:	00008bd4 	ldrdeq	r8, [r0], -r4
    8aa4:	00008ba0 	andeq	r8, r0, r0, lsr #23
    8aa8:	00008bd4 	ldrdeq	r8, [r0], -r4
    8aac:	00008ac8 	andeq	r8, r0, r8, asr #21
    8ab0:	00008bd4 	ldrdeq	r8, [r0], -r4
    8ab4:	00008bd4 	ldrdeq	r8, [r0], -r4
    8ab8:	00008bd4 	ldrdeq	r8, [r0], -r4
    8abc:	00008bd4 	ldrdeq	r8, [r0], -r4
    8ac0:	00008bd4 	ldrdeq	r8, [r0], -r4
    8ac4:	00008b44 	andeq	r8, r0, r4, asr #22
    8ac8:	e59d005c 	ldr	r0, [sp, #92]	; 0x5c
    8acc:	e2900000 	adds	r0, r0, #0
    8ad0:	13a00001 	movne	r0, #1
    8ad4:	e0100fa3 	ands	r0, r0, r3, lsr #31
    8ad8:	0a000003 	beq	8aec <emit+0x90>
    8adc:	e2631000 	rsb	r1, r3, #0
    8ae0:	e3a07001 	mov	r7, #1
    8ae4:	e1a0c00d 	mov	ip, sp
    8ae8:	ea000002 	b	8af8 <emit+0x9c>
    8aec:	e3a07000 	mov	r7, #0
    8af0:	eafffffb 	b	8ae4 <emit+0x88>
    8af4:	e1a0c000 	mov	ip, r0
    8af8:	e28c0001 	add	r0, ip, #1
    8afc:	e59f30ec 	ldr	r3, [pc, #236]	; 8bf0 <emit+0x194>
    8b00:	e083e193 	umull	lr, r3, r3, r1
    8b04:	e1a031a3 	lsr	r3, r3, #3
    8b08:	e1a0e003 	mov	lr, r3
    8b0c:	e0833103 	add	r3, r3, r3, lsl #2
    8b10:	e1a06083 	lsl	r6, r3, #1
    8b14:	e0413006 	sub	r3, r1, r6
    8b18:	e59f10d4 	ldr	r1, [pc, #212]	; 8bf4 <emit+0x198>
    8b1c:	e7d13003 	ldrb	r3, [r1, r3]
    8b20:	e5cc3000 	strb	r3, [ip]
    8b24:	e1a0100e 	mov	r1, lr
    8b28:	e35e0000 	cmp	lr, #0
    8b2c:	1afffff0 	bne	8af4 <emit+0x98>
    8b30:	e3570000 	cmp	r7, #0
    8b34:	13a0302d 	movne	r3, #45	; 0x2d
    8b38:	15c03000 	strbne	r3, [r0]
    8b3c:	128c0002 	addne	r0, ip, #2
    8b40:	ea00000d 	b	8b7c <emit+0x120>
    8b44:	e1a0300d 	mov	r3, sp
    8b48:	e283c001 	add	ip, r3, #1
    8b4c:	e201000f 	and	r0, r1, #15
    8b50:	e59fe0a0 	ldr	lr, [pc, #160]	; 8bf8 <emit+0x19c>
    8b54:	e7de0000 	ldrb	r0, [lr, r0]
    8b58:	e5c30000 	strb	r0, [r3]
    8b5c:	e1a0300c 	mov	r3, ip
    8b60:	e1b01221 	lsrs	r1, r1, #4
    8b64:	1afffff7 	bne	8b48 <emit+0xec>
    8b68:	e1a0000c 	mov	r0, ip
    8b6c:	e3a03078 	mov	r3, #120	; 0x78
    8b70:	e4c03002 	strb	r3, [r0], #2
    8b74:	e3a03030 	mov	r3, #48	; 0x30
    8b78:	e5cc3001 	strb	r3, [ip, #1]
    8b7c:	e1a0100d 	mov	r1, sp
    8b80:	ebffff9a 	bl	89f0 <pad>
    8b84:	e1a0300d 	mov	r3, sp
    8b88:	e1a02000 	mov	r2, r0
    8b8c:	e1a01004 	mov	r1, r4
    8b90:	e1a00005 	mov	r0, r5
    8b94:	ebffffa0 	bl	8a1c <reverse>
    8b98:	e28dd044 	add	sp, sp, #68	; 0x44
    8b9c:	e8bd80f0 	pop	{r4, r5, r6, r7, pc}
    8ba0:	e5cd3000 	strb	r3, [sp]
    8ba4:	e28d0001 	add	r0, sp, #1
    8ba8:	eafffff3 	b	8b7c <emit+0x120>
    8bac:	e1a0300d 	mov	r3, sp
    8bb0:	e2830001 	add	r0, r3, #1
    8bb4:	e201c001 	and	ip, r1, #1
    8bb8:	e59fe03c 	ldr	lr, [pc, #60]	; 8bfc <emit+0x1a0>
    8bbc:	e7dec00c 	ldrb	ip, [lr, ip]
    8bc0:	e5c3c000 	strb	ip, [r3]
    8bc4:	e1a03000 	mov	r3, r0
    8bc8:	e1b010a1 	lsrs	r1, r1, #1
    8bcc:	1afffff7 	bne	8bb0 <emit+0x154>
    8bd0:	eaffffe9 	b	8b7c <emit+0x120>
    8bd4:	eb00011d 	bl	9050 <rpi_reset_putc>
    8bd8:	e3a03077 	mov	r3, #119	; 0x77
    8bdc:	e59f201c 	ldr	r2, [pc, #28]	; 8c00 <emit+0x1a4>
    8be0:	e59f101c 	ldr	r1, [pc, #28]	; 8c04 <emit+0x1a8>
    8be4:	e59f001c 	ldr	r0, [pc, #28]	; 8c08 <emit+0x1ac>
    8be8:	ebffff65 	bl	8984 <printk>
    8bec:	eb000154 	bl	9144 <clean_reboot>
    8bf0:	cccccccd 	stclgt	12, cr12, [ip], {205}	; 0xcd
    8bf4:	00009a7c 	andeq	r9, r0, ip, ror sl
    8bf8:	00009a88 	andeq	r9, r0, r8, lsl #21
    8bfc:	00009a9c 	muleq	r0, ip, sl
    8c00:	00009a30 	andeq	r9, r0, r0, lsr sl
    8c04:	00009a54 	andeq	r9, r0, r4, asr sl
    8c08:	00009a68 	andeq	r9, r0, r8, ror #20

00008c0c <rpi_set_output>:
    8c0c:	e3500000 	cmp	r0, #0
    8c10:	0a000005 	beq	8c2c <rpi_set_output+0x20>
    8c14:	e59f3030 	ldr	r3, [pc, #48]	; 8c4c <rpi_set_output+0x40>
    8c18:	e5830000 	str	r0, [r3]
    8c1c:	e3510000 	cmp	r1, #0
    8c20:	159f3028 	ldrne	r3, [pc, #40]	; 8c50 <rpi_set_output+0x44>
    8c24:	15831000 	strne	r1, [r3]
    8c28:	e12fff1e 	bx	lr
    8c2c:	e92d4010 	push	{r4, lr}
    8c30:	eb000106 	bl	9050 <rpi_reset_putc>
    8c34:	e3a03020 	mov	r3, #32
    8c38:	e59f2014 	ldr	r2, [pc, #20]	; 8c54 <rpi_set_output+0x48>
    8c3c:	e59f1014 	ldr	r1, [pc, #20]	; 8c58 <rpi_set_output+0x4c>
    8c40:	e59f0014 	ldr	r0, [pc, #20]	; 8c5c <rpi_set_output+0x50>
    8c44:	ebffff4e 	bl	8984 <printk>
    8c48:	eb00013d 	bl	9144 <clean_reboot>
    8c4c:	00009688 	andeq	r9, r0, r8, lsl #13
    8c50:	00009684 	andeq	r9, r0, r4, lsl #13
    8c54:	00009a38 	andeq	r9, r0, r8, lsr sl
    8c58:	00009a54 	andeq	r9, r0, r4, asr sl
    8c5c:	00009aa0 	andeq	r9, r0, r0, lsr #21

00008c60 <va_printk>:
    8c60:	e92d43f0 	push	{r4, r5, r6, r7, r8, r9, lr}
    8c64:	e24dd094 	sub	sp, sp, #148	; 0x94
    8c68:	e1a09000 	mov	r9, r0
    8c6c:	e58d300c 	str	r3, [sp, #12]
    8c70:	e2411001 	sub	r1, r1, #1
    8c74:	e0808001 	add	r8, r0, r1
    8c78:	e3a03000 	mov	r3, #0
    8c7c:	e5c03000 	strb	r3, [r0]
    8c80:	e1a06000 	mov	r6, r0
    8c84:	e5d23000 	ldrb	r3, [r2]
    8c88:	e3530000 	cmp	r3, #0
    8c8c:	0a000098 	beq	8ef4 <va_printk+0x294>
    8c90:	e1560008 	cmp	r6, r8
    8c94:	2a000096 	bcs	8ef4 <va_printk+0x294>
    8c98:	e3530025 	cmp	r3, #37	; 0x25
    8c9c:	12822001 	addne	r2, r2, #1
    8ca0:	15c63000 	strbne	r3, [r6]
    8ca4:	12866001 	addne	r6, r6, #1
    8ca8:	1afffff5 	bne	8c84 <va_printk+0x24>
    8cac:	e5d21001 	ldrb	r1, [r2, #1]
    8cb0:	e3510025 	cmp	r1, #37	; 0x25
    8cb4:	12825001 	addne	r5, r2, #1
    8cb8:	13a04000 	movne	r4, #0
    8cbc:	1a000008 	bne	8ce4 <va_printk+0x84>
    8cc0:	e5c63000 	strb	r3, [r6]
    8cc4:	e2822002 	add	r2, r2, #2
    8cc8:	e2866001 	add	r6, r6, #1
    8ccc:	eaffffec 	b	8c84 <va_printk+0x24>
    8cd0:	e0844104 	add	r4, r4, r4, lsl #2
    8cd4:	e1a03084 	lsl	r3, r4, #1
    8cd8:	e0834007 	add	r4, r3, r7
    8cdc:	e2444030 	sub	r4, r4, #48	; 0x30
    8ce0:	e2855001 	add	r5, r5, #1
    8ce4:	e5d57000 	ldrb	r7, [r5]
    8ce8:	e1a00007 	mov	r0, r7
    8cec:	ebffff3a 	bl	89dc <isdigit>
    8cf0:	e3500000 	cmp	r0, #0
    8cf4:	1afffff5 	bne	8cd0 <va_printk+0x70>
    8cf8:	e354001f 	cmp	r4, #31
    8cfc:	8a00001a 	bhi	8d6c <va_printk+0x10c>
    8d00:	e2477062 	sub	r7, r7, #98	; 0x62
    8d04:	e3570016 	cmp	r7, #22
    8d08:	979ff107 	ldrls	pc, [pc, r7, lsl #2]
    8d0c:	ea000066 	b	8eac <va_printk+0x24c>
    8d10:	00008e38 	andeq	r8, r0, r8, lsr lr
    8d14:	00008e7c 	andeq	r8, r0, ip, ror lr
    8d18:	00008da4 	andeq	r8, r0, r4, lsr #27
    8d1c:	00008eac 	andeq	r8, r0, ip, lsr #29
    8d20:	00008d88 	andeq	r8, r0, r8, lsl #27
    8d24:	00008eac 	andeq	r8, r0, ip, lsr #29
    8d28:	00008eac 	andeq	r8, r0, ip, lsr #29
    8d2c:	00008eac 	andeq	r8, r0, ip, lsr #29
    8d30:	00008eac 	andeq	r8, r0, ip, lsr #29
    8d34:	00008eac 	andeq	r8, r0, ip, lsr #29
    8d38:	00008eac 	andeq	r8, r0, ip, lsr #29
    8d3c:	00008eac 	andeq	r8, r0, ip, lsr #29
    8d40:	00008eac 	andeq	r8, r0, ip, lsr #29
    8d44:	00008eac 	andeq	r8, r0, ip, lsr #29
    8d48:	00008e08 	andeq	r8, r0, r8, lsl #28
    8d4c:	00008eac 	andeq	r8, r0, ip, lsr #29
    8d50:	00008eac 	andeq	r8, r0, ip, lsr #29
    8d54:	00008e68 	andeq	r8, r0, r8, ror #28
    8d58:	00008eac 	andeq	r8, r0, ip, lsr #29
    8d5c:	00008dd8 	ldrdeq	r8, [r0], -r8	; <UNPREDICTABLE>
    8d60:	00008eac 	andeq	r8, r0, ip, lsr #29
    8d64:	00008eac 	andeq	r8, r0, ip, lsr #29
    8d68:	00008e08 	andeq	r8, r0, r8, lsl #28
    8d6c:	eb0000b7 	bl	9050 <rpi_reset_putc>
    8d70:	e3a03094 	mov	r3, #148	; 0x94
    8d74:	e59f2190 	ldr	r2, [pc, #400]	; 8f0c <va_printk+0x2ac>
    8d78:	e59f1190 	ldr	r1, [pc, #400]	; 8f10 <va_printk+0x2b0>
    8d7c:	e59f0190 	ldr	r0, [pc, #400]	; 8f14 <va_printk+0x2b4>
    8d80:	ebfffeff 	bl	8984 <printk>
    8d84:	eb0000ee 	bl	9144 <clean_reboot>
    8d88:	eb0000b0 	bl	9050 <rpi_reset_putc>
    8d8c:	e3a0309a 	mov	r3, #154	; 0x9a
    8d90:	e59f2174 	ldr	r2, [pc, #372]	; 8f0c <va_printk+0x2ac>
    8d94:	e59f1174 	ldr	r1, [pc, #372]	; 8f10 <va_printk+0x2b0>
    8d98:	e59f0178 	ldr	r0, [pc, #376]	; 8f18 <va_printk+0x2b8>
    8d9c:	ebfffef8 	bl	8984 <printk>
    8da0:	eb0000e7 	bl	9144 <clean_reboot>
    8da4:	e59d300c 	ldr	r3, [sp, #12]
    8da8:	e2832004 	add	r2, r3, #4
    8dac:	e58d200c 	str	r2, [sp, #12]
    8db0:	e5933000 	ldr	r3, [r3]
    8db4:	e3a02001 	mov	r2, #1
    8db8:	e58d2004 	str	r2, [sp, #4]
    8dbc:	e58d4000 	str	r4, [sp]
    8dc0:	e3a02080 	mov	r2, #128	; 0x80
    8dc4:	e28d1010 	add	r1, sp, #16
    8dc8:	e3a0000a 	mov	r0, #10
    8dcc:	ebffff22 	bl	8a5c <emit>
    8dd0:	e2852001 	add	r2, r5, #1
    8dd4:	ea000040 	b	8edc <va_printk+0x27c>
    8dd8:	e59d300c 	ldr	r3, [sp, #12]
    8ddc:	e2832004 	add	r2, r3, #4
    8de0:	e58d200c 	str	r2, [sp, #12]
    8de4:	e5933000 	ldr	r3, [r3]
    8de8:	e3a02000 	mov	r2, #0
    8dec:	e58d2004 	str	r2, [sp, #4]
    8df0:	e58d4000 	str	r4, [sp]
    8df4:	e3a02080 	mov	r2, #128	; 0x80
    8df8:	e28d1010 	add	r1, sp, #16
    8dfc:	e3a0000a 	mov	r0, #10
    8e00:	ebffff15 	bl	8a5c <emit>
    8e04:	eafffff1 	b	8dd0 <va_printk+0x170>
    8e08:	e59d300c 	ldr	r3, [sp, #12]
    8e0c:	e2832004 	add	r2, r3, #4
    8e10:	e58d200c 	str	r2, [sp, #12]
    8e14:	e5933000 	ldr	r3, [r3]
    8e18:	e3a02000 	mov	r2, #0
    8e1c:	e58d2004 	str	r2, [sp, #4]
    8e20:	e58d4000 	str	r4, [sp]
    8e24:	e3a02080 	mov	r2, #128	; 0x80
    8e28:	e28d1010 	add	r1, sp, #16
    8e2c:	e3a00010 	mov	r0, #16
    8e30:	ebffff09 	bl	8a5c <emit>
    8e34:	eaffffe5 	b	8dd0 <va_printk+0x170>
    8e38:	e59d300c 	ldr	r3, [sp, #12]
    8e3c:	e2832004 	add	r2, r3, #4
    8e40:	e58d200c 	str	r2, [sp, #12]
    8e44:	e5933000 	ldr	r3, [r3]
    8e48:	e3a02000 	mov	r2, #0
    8e4c:	e58d2004 	str	r2, [sp, #4]
    8e50:	e58d4000 	str	r4, [sp]
    8e54:	e3a02080 	mov	r2, #128	; 0x80
    8e58:	e28d1010 	add	r1, sp, #16
    8e5c:	e3a00002 	mov	r0, #2
    8e60:	ebfffefd 	bl	8a5c <emit>
    8e64:	eaffffd9 	b	8dd0 <va_printk+0x170>
    8e68:	e59d300c 	ldr	r3, [sp, #12]
    8e6c:	e2832004 	add	r2, r3, #4
    8e70:	e58d200c 	str	r2, [sp, #12]
    8e74:	e5930000 	ldr	r0, [r3]
    8e78:	eaffffd4 	b	8dd0 <va_printk+0x170>
    8e7c:	e59d300c 	ldr	r3, [sp, #12]
    8e80:	e2832004 	add	r2, r3, #4
    8e84:	e58d200c 	str	r2, [sp, #12]
    8e88:	e5933000 	ldr	r3, [r3]
    8e8c:	e3a02000 	mov	r2, #0
    8e90:	e58d2004 	str	r2, [sp, #4]
    8e94:	e58d4000 	str	r4, [sp]
    8e98:	e3a02080 	mov	r2, #128	; 0x80
    8e9c:	e28d1010 	add	r1, sp, #16
    8ea0:	e3a00008 	mov	r0, #8
    8ea4:	ebfffeec 	bl	8a5c <emit>
    8ea8:	eaffffc8 	b	8dd0 <va_printk+0x170>
    8eac:	eb000067 	bl	9050 <rpi_reset_putc>
    8eb0:	e5d53000 	ldrb	r3, [r5]
    8eb4:	e58d3000 	str	r3, [sp]
    8eb8:	e3a030bb 	mov	r3, #187	; 0xbb
    8ebc:	e59f2048 	ldr	r2, [pc, #72]	; 8f0c <va_printk+0x2ac>
    8ec0:	e59f1048 	ldr	r1, [pc, #72]	; 8f10 <va_printk+0x2b0>
    8ec4:	e59f0050 	ldr	r0, [pc, #80]	; 8f1c <va_printk+0x2bc>
    8ec8:	ebfffead 	bl	8984 <printk>
    8ecc:	eb00009c 	bl	9144 <clean_reboot>
    8ed0:	e2800001 	add	r0, r0, #1
    8ed4:	e5c63000 	strb	r3, [r6]
    8ed8:	e2866001 	add	r6, r6, #1
    8edc:	e1560008 	cmp	r6, r8
    8ee0:	2affff67 	bcs	8c84 <va_printk+0x24>
    8ee4:	e5d03000 	ldrb	r3, [r0]
    8ee8:	e3530000 	cmp	r3, #0
    8eec:	1afffff7 	bne	8ed0 <va_printk+0x270>
    8ef0:	eaffff63 	b	8c84 <va_printk+0x24>
    8ef4:	e2860001 	add	r0, r6, #1
    8ef8:	e3a03000 	mov	r3, #0
    8efc:	e5c63000 	strb	r3, [r6]
    8f00:	e0400009 	sub	r0, r0, r9
    8f04:	e28dd094 	add	sp, sp, #148	; 0x94
    8f08:	e8bd83f0 	pop	{r4, r5, r6, r7, r8, r9, pc}
    8f0c:	00009a48 	andeq	r9, r0, r8, asr #20
    8f10:	00009a54 	andeq	r9, r0, r4, asr sl
    8f14:	00009ab8 			; <UNDEFINED> instruction: 0x00009ab8
    8f18:	00009ad4 	ldrdeq	r9, [r0], -r4
    8f1c:	00009afc 	strdeq	r9, [r0], -ip

00008f20 <fast_hash>:
    8f20:	e3500000 	cmp	r0, #0
    8f24:	13510000 	cmpne	r1, #0
    8f28:	da000034 	ble	9000 <fast_hash+0xe0>
    8f2c:	e52de004 	push	{lr}		; (str lr, [sp, #-4]!)
    8f30:	e1a03001 	mov	r3, r1
    8f34:	e201e003 	and	lr, r1, #3
    8f38:	e1a01141 	asr	r1, r1, #2
    8f3c:	ea00000b 	b	8f70 <fast_hash+0x50>
    8f40:	e5d0c001 	ldrb	ip, [r0, #1]
    8f44:	e5d02000 	ldrb	r2, [r0]
    8f48:	e082240c 	add	r2, r2, ip, lsl #8
    8f4c:	e0832002 	add	r2, r3, r2
    8f50:	e5d0c003 	ldrb	ip, [r0, #3]
    8f54:	e5d03002 	ldrb	r3, [r0, #2]
    8f58:	e083340c 	add	r3, r3, ip, lsl #8
    8f5c:	e0223583 	eor	r3, r2, r3, lsl #11
    8f60:	e0233802 	eor	r3, r3, r2, lsl #16
    8f64:	e2800004 	add	r0, r0, #4
    8f68:	e08335a3 	add	r3, r3, r3, lsr #11
    8f6c:	e2411001 	sub	r1, r1, #1
    8f70:	e3510000 	cmp	r1, #0
    8f74:	cafffff1 	bgt	8f40 <fast_hash+0x20>
    8f78:	e35e0002 	cmp	lr, #2
    8f7c:	0a000013 	beq	8fd0 <fast_hash+0xb0>
    8f80:	e35e0003 	cmp	lr, #3
    8f84:	0a000008 	beq	8fac <fast_hash+0x8c>
    8f88:	e35e0001 	cmp	lr, #1
    8f8c:	0a000016 	beq	8fec <fast_hash+0xcc>
    8f90:	e0230183 	eor	r0, r3, r3, lsl #3
    8f94:	e08002a0 	add	r0, r0, r0, lsr #5
    8f98:	e0200200 	eor	r0, r0, r0, lsl #4
    8f9c:	e08008a0 	add	r0, r0, r0, lsr #17
    8fa0:	e0200c80 	eor	r0, r0, r0, lsl #25
    8fa4:	e0800320 	add	r0, r0, r0, lsr #6
    8fa8:	e49df004 	pop	{pc}		; (ldr pc, [sp], #4)
    8fac:	e5d01001 	ldrb	r1, [r0, #1]
    8fb0:	e5d02000 	ldrb	r2, [r0]
    8fb4:	e0822401 	add	r2, r2, r1, lsl #8
    8fb8:	e0833002 	add	r3, r3, r2
    8fbc:	e0233803 	eor	r3, r3, r3, lsl #16
    8fc0:	e1d020d2 	ldrsb	r2, [r0, #2]
    8fc4:	e0233902 	eor	r3, r3, r2, lsl #18
    8fc8:	e08335a3 	add	r3, r3, r3, lsr #11
    8fcc:	eaffffef 	b	8f90 <fast_hash+0x70>
    8fd0:	e5d01001 	ldrb	r1, [r0, #1]
    8fd4:	e5d02000 	ldrb	r2, [r0]
    8fd8:	e0822401 	add	r2, r2, r1, lsl #8
    8fdc:	e0833002 	add	r3, r3, r2
    8fe0:	e0233583 	eor	r3, r3, r3, lsl #11
    8fe4:	e08338a3 	add	r3, r3, r3, lsr #17
    8fe8:	eaffffe8 	b	8f90 <fast_hash+0x70>
    8fec:	e1d020d0 	ldrsb	r2, [r0]
    8ff0:	e0833002 	add	r3, r3, r2
    8ff4:	e0233503 	eor	r3, r3, r3, lsl #10
    8ff8:	e08330a3 	add	r3, r3, r3, lsr #1
    8ffc:	eaffffe3 	b	8f90 <fast_hash+0x70>
    9000:	e3a00000 	mov	r0, #0
    9004:	e12fff1e 	bx	lr

00009008 <internal_putk>:
    9008:	e92d4010 	push	{r4, lr}
    900c:	e1a04000 	mov	r4, r0
    9010:	ea000003 	b	9024 <internal_putk+0x1c>
    9014:	e59f301c 	ldr	r3, [pc, #28]	; 9038 <internal_putk+0x30>
    9018:	e5933000 	ldr	r3, [r3]
    901c:	e12fff33 	blx	r3
    9020:	e2844001 	add	r4, r4, #1
    9024:	e5d40000 	ldrb	r0, [r4]
    9028:	e3500000 	cmp	r0, #0
    902c:	1afffff8 	bne	9014 <internal_putk+0xc>
    9030:	e3a00001 	mov	r0, #1
    9034:	e8bd8010 	pop	{r4, pc}
    9038:	00009688 	andeq	r9, r0, r8, lsl #13

0000903c <internal_putchar>:
    903c:	e92d4010 	push	{r4, lr}
    9040:	e1a04000 	mov	r4, r0
    9044:	eb0000cb 	bl	9378 <uart_putc>
    9048:	e1a00004 	mov	r0, r4
    904c:	e8bd8010 	pop	{r4, pc}

00009050 <rpi_reset_putc>:
    9050:	e59f2008 	ldr	r2, [pc, #8]	; 9060 <rpi_reset_putc+0x10>
    9054:	e59f3008 	ldr	r3, [pc, #8]	; 9064 <rpi_reset_putc+0x14>
    9058:	e5832000 	str	r2, [r3]
    905c:	e12fff1e 	bx	lr
    9060:	0000903c 	andeq	r9, r0, ip, lsr r0
    9064:	00009688 	andeq	r9, r0, r8, lsl #13

00009068 <rpi_set_putc>:
    9068:	e59f3004 	ldr	r3, [pc, #4]	; 9074 <rpi_set_putc+0xc>
    906c:	e5830000 	str	r0, [r3]
    9070:	e12fff1e 	bx	lr
    9074:	00009688 	andeq	r9, r0, r8, lsl #13

00009078 <memset>:
    9078:	e0802002 	add	r2, r0, r2
    907c:	e1a03000 	mov	r3, r0
    9080:	ea000001 	b	908c <memset+0x14>
    9084:	e5c31000 	strb	r1, [r3]
    9088:	e2833001 	add	r3, r3, #1
    908c:	e1530002 	cmp	r3, r2
    9090:	3afffffb 	bcc	9084 <memset+0xc>
    9094:	e12fff1e 	bx	lr

00009098 <_cstart>:
    9098:	e92d4010 	push	{r4, lr}
    909c:	e59f3020 	ldr	r3, [pc, #32]	; 90c4 <_cstart+0x2c>
    90a0:	ea000002 	b	90b0 <_cstart+0x18>
    90a4:	e3a02000 	mov	r2, #0
    90a8:	e5832000 	str	r2, [r3]
    90ac:	e2833004 	add	r3, r3, #4
    90b0:	e59f2010 	ldr	r2, [pc, #16]	; 90c8 <_cstart+0x30>
    90b4:	e1530002 	cmp	r3, r2
    90b8:	3afffff9 	bcc	90a4 <_cstart+0xc>
    90bc:	ebfffbd3 	bl	8010 <notmain>
    90c0:	eb00001f 	bl	9144 <clean_reboot>
    90c4:	00009c60 	andeq	r9, r0, r0, ror #24
    90c8:	0000a070 	andeq	sl, r0, r0, ror r0

000090cc <at_user_level>:
    90cc:	e10f0000 	mrs	r0, CPSR
    90d0:	e200001f 	and	r0, r0, #31
    90d4:	e3500010 	cmp	r0, #16
    90d8:	13a00000 	movne	r0, #0
    90dc:	03a00001 	moveq	r0, #1
    90e0:	e12fff1e 	bx	lr

000090e4 <set_user_level>:
    90e4:	e10f3000 	mrs	r3, CPSR
    90e8:	e3c3301f 	bic	r3, r3, #31
    90ec:	e3833010 	orr	r3, r3, #16
    90f0:	e129f003 	msr	CPSR_fc, r3
    90f4:	e12fff1e 	bx	lr

000090f8 <rpi_reboot>:
    90f8:	e92d4010 	push	{r4, lr}
    90fc:	ebfffff2 	bl	90cc <at_user_level>
    9100:	e3500000 	cmp	r0, #0
    9104:	1a000008 	bne	912c <rpi_reboot+0x34>
    9108:	e3a0001e 	mov	r0, #30
    910c:	eb00002e 	bl	91cc <delay_ms>
    9110:	e59f101c 	ldr	r1, [pc, #28]	; 9134 <rpi_reboot+0x3c>
    9114:	e59f001c 	ldr	r0, [pc, #28]	; 9138 <rpi_reboot+0x40>
    9118:	eb000037 	bl	91fc <PUT32>
    911c:	e59f1018 	ldr	r1, [pc, #24]	; 913c <rpi_reboot+0x44>
    9120:	e59f0018 	ldr	r0, [pc, #24]	; 9140 <rpi_reboot+0x48>
    9124:	eb000034 	bl	91fc <PUT32>
    9128:	eafffffe 	b	9128 <rpi_reboot+0x30>
    912c:	ebffffec 	bl	90e4 <set_user_level>
    9130:	eafffff4 	b	9108 <rpi_reboot+0x10>
    9134:	5a000001 	bpl	9140 <rpi_reboot+0x48>
    9138:	20100024 	andscs	r0, r0, r4, lsr #32
    913c:	5a000020 	bpl	91c4 <delay_us+0x1c>
    9140:	2010001c 	andscs	r0, r0, ip, lsl r0

00009144 <clean_reboot>:
    9144:	e92d4010 	push	{r4, lr}
    9148:	e59f3014 	ldr	r3, [pc, #20]	; 9164 <clean_reboot+0x20>
    914c:	e5933000 	ldr	r3, [r3]
    9150:	e59f0010 	ldr	r0, [pc, #16]	; 9168 <clean_reboot+0x24>
    9154:	e12fff33 	blx	r3
    9158:	e3a00064 	mov	r0, #100	; 0x64
    915c:	eb00001a 	bl	91cc <delay_ms>
    9160:	ebffffe4 	bl	90f8 <rpi_reboot>
    9164:	00009684 	andeq	r9, r0, r4, lsl #13
    9168:	00009b34 	andeq	r9, r0, r4, lsr fp

0000916c <delay_cycles>:
    916c:	ea000001 	b	9178 <delay_cycles+0xc>
    9170:	e2811000 	add	r1, r1, #0
    9174:	e1a00003 	mov	r0, r3
    9178:	e2403001 	sub	r3, r0, #1
    917c:	e3500000 	cmp	r0, #0
    9180:	1afffffa 	bne	9170 <delay_cycles+0x4>
    9184:	e12fff1e 	bx	lr

00009188 <timer_get_usec_raw>:
    9188:	e92d4010 	push	{r4, lr}
    918c:	e59f0004 	ldr	r0, [pc, #4]	; 9198 <timer_get_usec_raw+0x10>
    9190:	eb000025 	bl	922c <GET32>
    9194:	e8bd8010 	pop	{r4, pc}
    9198:	20003004 	andcs	r3, r0, r4

0000919c <timer_get_usec>:
    919c:	e92d4010 	push	{r4, lr}
    91a0:	ebfffff8 	bl	9188 <timer_get_usec_raw>
    91a4:	e8bd8010 	pop	{r4, pc}

000091a8 <delay_us>:
    91a8:	e92d4070 	push	{r4, r5, r6, lr}
    91ac:	e1a05000 	mov	r5, r0
    91b0:	ebfffff9 	bl	919c <timer_get_usec>
    91b4:	e1a04000 	mov	r4, r0
    91b8:	ebfffff7 	bl	919c <timer_get_usec>
    91bc:	e0400004 	sub	r0, r0, r4
    91c0:	e1500005 	cmp	r0, r5
    91c4:	3afffffb 	bcc	91b8 <delay_us+0x10>
    91c8:	e8bd8070 	pop	{r4, r5, r6, pc}

000091cc <delay_ms>:
    91cc:	e92d4010 	push	{r4, lr}
    91d0:	e3a03ffa 	mov	r3, #1000	; 0x3e8
    91d4:	e0000093 	mul	r0, r3, r0
    91d8:	ebfffff2 	bl	91a8 <delay_us>
    91dc:	e8bd8010 	pop	{r4, pc}

000091e0 <delay_sec>:
    91e0:	e92d4010 	push	{r4, lr}
    91e4:	e3a03ffa 	mov	r3, #1000	; 0x3e8
    91e8:	e0000093 	mul	r0, r3, r0
    91ec:	ebfffff6 	bl	91cc <delay_ms>
    91f0:	e8bd8010 	pop	{r4, pc}

000091f4 <put32>:
    91f4:	e5801000 	str	r1, [r0]
    91f8:	e12fff1e 	bx	lr

000091fc <PUT32>:
    91fc:	e5801000 	str	r1, [r0]
    9200:	e12fff1e 	bx	lr

00009204 <put16>:
    9204:	e1c010b0 	strh	r1, [r0]
    9208:	e12fff1e 	bx	lr

0000920c <PUT16>:
    920c:	e1c010b0 	strh	r1, [r0]
    9210:	e12fff1e 	bx	lr

00009214 <put8>:
    9214:	e5c01000 	strb	r1, [r0]
    9218:	e12fff1e 	bx	lr

0000921c <PUT8>:
    921c:	e5c01000 	strb	r1, [r0]
    9220:	e12fff1e 	bx	lr

00009224 <get32>:
    9224:	e5900000 	ldr	r0, [r0]
    9228:	e12fff1e 	bx	lr

0000922c <GET32>:
    922c:	e5900000 	ldr	r0, [r0]
    9230:	e12fff1e 	bx	lr

00009234 <GETPC>:
    9234:	e1a0000e 	mov	r0, lr
    9238:	e12fff1e 	bx	lr

0000923c <dummy>:
    923c:	e12fff1e 	bx	lr

00009240 <or_in32>:
    9240:	e92d4070 	push	{r4, r5, r6, lr}
    9244:	e1a04000 	mov	r4, r0
    9248:	e1a05001 	mov	r5, r1
    924c:	ebfffff4 	bl	9224 <get32>
    9250:	e1801005 	orr	r1, r0, r5
    9254:	e1a00004 	mov	r0, r4
    9258:	ebffffe5 	bl	91f4 <put32>
    925c:	e8bd8070 	pop	{r4, r5, r6, pc}

00009260 <uart_init>:
    9260:	e92d4010 	push	{r4, lr}
    9264:	e3a01002 	mov	r1, #2
    9268:	e3a0000e 	mov	r0, #14
    926c:	eb000051 	bl	93b8 <gpio_set_function>
    9270:	e3a01002 	mov	r1, #2
    9274:	e3a0000f 	mov	r0, #15
    9278:	eb00004e 	bl	93b8 <gpio_set_function>
    927c:	eb0000fa 	bl	966c <dev_barrier>
    9280:	e3a01001 	mov	r1, #1
    9284:	e59f0064 	ldr	r0, [pc, #100]	; 92f0 <uart_init+0x90>
    9288:	ebffffec 	bl	9240 <or_in32>
    928c:	eb0000f6 	bl	966c <dev_barrier>
    9290:	e59f405c 	ldr	r4, [pc, #92]	; 92f4 <uart_init+0x94>
    9294:	e3a01000 	mov	r1, #0
    9298:	e1a00004 	mov	r0, r4
    929c:	ebffffd4 	bl	91f4 <put32>
    92a0:	e3a01000 	mov	r1, #0
    92a4:	e59f004c 	ldr	r0, [pc, #76]	; 92f8 <uart_init+0x98>
    92a8:	ebffffd1 	bl	91f4 <put32>
    92ac:	e3a01003 	mov	r1, #3
    92b0:	e59f0044 	ldr	r0, [pc, #68]	; 92fc <uart_init+0x9c>
    92b4:	ebffffce 	bl	91f4 <put32>
    92b8:	e3a01000 	mov	r1, #0
    92bc:	e59f003c 	ldr	r0, [pc, #60]	; 9300 <uart_init+0xa0>
    92c0:	ebffffcb 	bl	91f4 <put32>
    92c4:	e3a010c7 	mov	r1, #199	; 0xc7
    92c8:	e59f0034 	ldr	r0, [pc, #52]	; 9304 <uart_init+0xa4>
    92cc:	ebffffc8 	bl	91f4 <put32>
    92d0:	e59f1030 	ldr	r1, [pc, #48]	; 9308 <uart_init+0xa8>
    92d4:	e59f0030 	ldr	r0, [pc, #48]	; 930c <uart_init+0xac>
    92d8:	ebffffc5 	bl	91f4 <put32>
    92dc:	e3a01003 	mov	r1, #3
    92e0:	e1a00004 	mov	r0, r4
    92e4:	ebffffc2 	bl	91f4 <put32>
    92e8:	eb0000df 	bl	966c <dev_barrier>
    92ec:	e8bd8010 	pop	{r4, pc}
    92f0:	20215004 	eorcs	r5, r1, r4
    92f4:	20215060 	eorcs	r5, r1, r0, rrx
    92f8:	20215044 	eorcs	r5, r1, r4, asr #32
    92fc:	2021504c 	eorcs	r5, r1, ip, asr #32
    9300:	20215050 	eorcs	r5, r1, r0, asr r0
    9304:	20215048 	eorcs	r5, r1, r8, asr #32
    9308:	0000010e 	andeq	r0, r0, lr, lsl #2
    930c:	20215068 	eorcs	r5, r1, r8, rrx

00009310 <uart_can_getc>:
    9310:	e92d4010 	push	{r4, lr}
    9314:	e59f0008 	ldr	r0, [pc, #8]	; 9324 <uart_can_getc+0x14>
    9318:	ebffffc1 	bl	9224 <get32>
    931c:	e2000001 	and	r0, r0, #1
    9320:	e8bd8010 	pop	{r4, pc}
    9324:	20215064 	eorcs	r5, r1, r4, rrx

00009328 <uart_can_putc>:
    9328:	e92d4010 	push	{r4, lr}
    932c:	e59f0010 	ldr	r0, [pc, #16]	; 9344 <uart_can_putc+0x1c>
    9330:	ebffffbb 	bl	9224 <get32>
    9334:	e3100002 	tst	r0, #2
    9338:	13a00001 	movne	r0, #1
    933c:	03a00000 	moveq	r0, #0
    9340:	e8bd8010 	pop	{r4, pc}
    9344:	20215064 	eorcs	r5, r1, r4, rrx

00009348 <uart_getc>:
    9348:	e92d4010 	push	{r4, lr}
    934c:	eb0000c6 	bl	966c <dev_barrier>
    9350:	ebffffee 	bl	9310 <uart_can_getc>
    9354:	e3500000 	cmp	r0, #0
    9358:	0afffffc 	beq	9350 <uart_getc+0x8>
    935c:	e59f0010 	ldr	r0, [pc, #16]	; 9374 <uart_getc+0x2c>
    9360:	ebffffaf 	bl	9224 <get32>
    9364:	e6ef4070 	uxtb	r4, r0
    9368:	eb0000bf 	bl	966c <dev_barrier>
    936c:	e1a00004 	mov	r0, r4
    9370:	e8bd8010 	pop	{r4, pc}
    9374:	20215040 	eorcs	r5, r1, r0, asr #32

00009378 <uart_putc>:
    9378:	e92d4010 	push	{r4, lr}
    937c:	e1a04000 	mov	r4, r0
    9380:	eb0000b9 	bl	966c <dev_barrier>
    9384:	ebffffe7 	bl	9328 <uart_can_putc>
    9388:	e3500000 	cmp	r0, #0
    938c:	0afffffc 	beq	9384 <uart_putc+0xc>
    9390:	e6ef1074 	uxtb	r1, r4
    9394:	e59f0008 	ldr	r0, [pc, #8]	; 93a4 <uart_putc+0x2c>
    9398:	ebffff95 	bl	91f4 <put32>
    939c:	eb0000b2 	bl	966c <dev_barrier>
    93a0:	e8bd8010 	pop	{r4, pc}
    93a4:	20215040 	eorcs	r5, r1, r0, asr #32

000093a8 <uart_has_data>:
    93a8:	e92d4010 	push	{r4, lr}
    93ac:	eb0000ae 	bl	966c <dev_barrier>
    93b0:	ebffffd6 	bl	9310 <uart_can_getc>
    93b4:	e8bd8010 	pop	{r4, pc}

000093b8 <gpio_set_function>:
    93b8:	e350001f 	cmp	r0, #31
    93bc:	812fff1e 	bxhi	lr
    93c0:	e3d13007 	bics	r3, r1, #7
    93c4:	112fff1e 	bxne	lr
    93c8:	e92d4070 	push	{r4, r5, r6, lr}
    93cc:	e1a05001 	mov	r5, r1
    93d0:	e59f3044 	ldr	r3, [pc, #68]	; 941c <gpio_set_function+0x64>
    93d4:	e0832093 	umull	r2, r3, r3, r0
    93d8:	e1a031a3 	lsr	r3, r3, #3
    93dc:	e1a06003 	mov	r6, r3
    93e0:	e0833103 	add	r3, r3, r3, lsl #2
    93e4:	e1a02083 	lsl	r2, r3, #1
    93e8:	e0403002 	sub	r3, r0, r2
    93ec:	e0834083 	add	r4, r3, r3, lsl #1
    93f0:	e2866302 	add	r6, r6, #134217728	; 0x8000000
    93f4:	e2866702 	add	r6, r6, #524288	; 0x80000
    93f8:	e1a06106 	lsl	r6, r6, #2
    93fc:	e1a00006 	mov	r0, r6
    9400:	ebffff89 	bl	922c <GET32>
    9404:	e3a01007 	mov	r1, #7
    9408:	e1c01411 	bic	r1, r0, r1, lsl r4
    940c:	e1811415 	orr	r1, r1, r5, lsl r4
    9410:	e1a00006 	mov	r0, r6
    9414:	ebffff78 	bl	91fc <PUT32>
    9418:	e8bd8070 	pop	{r4, r5, r6, pc}
    941c:	cccccccd 	stclgt	12, cr12, [ip], {205}	; 0xcd

00009420 <gpio_set_output>:
    9420:	e92d4010 	push	{r4, lr}
    9424:	e3a01001 	mov	r1, #1
    9428:	ebffffe2 	bl	93b8 <gpio_set_function>
    942c:	e8bd8010 	pop	{r4, pc}

00009430 <gpio_set_on>:
    9430:	e350001f 	cmp	r0, #31
    9434:	812fff1e 	bxhi	lr
    9438:	e92d4010 	push	{r4, lr}
    943c:	e3a01001 	mov	r1, #1
    9440:	e1a01011 	lsl	r1, r1, r0
    9444:	e59f0004 	ldr	r0, [pc, #4]	; 9450 <gpio_set_on+0x20>
    9448:	ebffff6b 	bl	91fc <PUT32>
    944c:	e8bd8010 	pop	{r4, pc}
    9450:	2020001c 	eorcs	r0, r0, ip, lsl r0

00009454 <gpio_set_off>:
    9454:	e350001f 	cmp	r0, #31
    9458:	812fff1e 	bxhi	lr
    945c:	e92d4010 	push	{r4, lr}
    9460:	e3a01001 	mov	r1, #1
    9464:	e1a01011 	lsl	r1, r1, r0
    9468:	e59f0004 	ldr	r0, [pc, #4]	; 9474 <gpio_set_off+0x20>
    946c:	ebffff62 	bl	91fc <PUT32>
    9470:	e8bd8010 	pop	{r4, pc}
    9474:	20200028 	eorcs	r0, r0, r8, lsr #32

00009478 <gpio_set_input>:
    9478:	e92d4010 	push	{r4, lr}
    947c:	e3a01000 	mov	r1, #0
    9480:	ebffffcc 	bl	93b8 <gpio_set_function>
    9484:	e8bd8010 	pop	{r4, pc}

00009488 <gpio_write>:
    9488:	e92d4010 	push	{r4, lr}
    948c:	e3510000 	cmp	r1, #0
    9490:	1a000001 	bne	949c <gpio_write+0x14>
    9494:	ebffffee 	bl	9454 <gpio_set_off>
    9498:	e8bd8010 	pop	{r4, pc}
    949c:	ebffffe3 	bl	9430 <gpio_set_on>
    94a0:	e8bd8010 	pop	{r4, pc}

000094a4 <gpio_read>:
    94a4:	e350001f 	cmp	r0, #31
    94a8:	8a000007 	bhi	94cc <gpio_read+0x28>
    94ac:	e92d4010 	push	{r4, lr}
    94b0:	e200401f 	and	r4, r0, #31
    94b4:	e59f3018 	ldr	r3, [pc, #24]	; 94d4 <gpio_read+0x30>
    94b8:	e08302a0 	add	r0, r3, r0, lsr #5
    94bc:	ebffff5a 	bl	922c <GET32>
    94c0:	e1a00430 	lsr	r0, r0, r4
    94c4:	e2000001 	and	r0, r0, #1
    94c8:	e8bd8010 	pop	{r4, pc}
    94cc:	e3e00000 	mvn	r0, #0
    94d0:	e12fff1e 	bx	lr
    94d4:	20200034 	eorcs	r0, r0, r4, lsr r0

000094d8 <kmalloc_heap_end>:
    94d8:	e59f3004 	ldr	r3, [pc, #4]	; 94e4 <kmalloc_heap_end+0xc>
    94dc:	e5930000 	ldr	r0, [r3]
    94e0:	e12fff1e 	bx	lr
    94e4:	0000968c 	andeq	r9, r0, ip, lsl #13

000094e8 <kmalloc_heap_start>:
    94e8:	e59f0000 	ldr	r0, [pc]	; 94f0 <kmalloc_heap_start+0x8>
    94ec:	e12fff1e 	bx	lr
    94f0:	0000a070 	andeq	sl, r0, r0, ror r0

000094f4 <kmalloc_init_set_start>:
    94f4:	e59f3038 	ldr	r3, [pc, #56]	; 9534 <kmalloc_init_set_start+0x40>
    94f8:	e5933000 	ldr	r3, [r3]
    94fc:	e1500003 	cmp	r0, r3
    9500:	9a000003 	bls	9514 <kmalloc_init_set_start+0x20>
    9504:	e59f3028 	ldr	r3, [pc, #40]	; 9534 <kmalloc_init_set_start+0x40>
    9508:	e5830000 	str	r0, [r3]
    950c:	e5830004 	str	r0, [r3, #4]
    9510:	e12fff1e 	bx	lr
    9514:	e92d4010 	push	{r4, lr}
    9518:	ebfffecc 	bl	9050 <rpi_reset_putc>
    951c:	e3a03016 	mov	r3, #22
    9520:	e59f2010 	ldr	r2, [pc, #16]	; 9538 <kmalloc_init_set_start+0x44>
    9524:	e59f1010 	ldr	r1, [pc, #16]	; 953c <kmalloc_init_set_start+0x48>
    9528:	e59f0010 	ldr	r0, [pc, #16]	; 9540 <kmalloc_init_set_start+0x4c>
    952c:	ebfffd14 	bl	8984 <printk>
    9530:	ebffff03 	bl	9144 <clean_reboot>
    9534:	0000968c 	andeq	r9, r0, ip, lsl #13
    9538:	00009b40 	andeq	r9, r0, r0, asr #22
    953c:	00009b70 	andeq	r9, r0, r0, ror fp
    9540:	00009b7c 	andeq	r9, r0, ip, ror fp

00009544 <kmalloc>:
    9544:	e92d4010 	push	{r4, lr}
    9548:	e3500000 	cmp	r0, #0
    954c:	0a00000a 	beq	957c <kmalloc+0x38>
    9550:	e2802007 	add	r2, r0, #7
    9554:	e3c22007 	bic	r2, r2, #7
    9558:	e59f3038 	ldr	r3, [pc, #56]	; 9598 <kmalloc+0x54>
    955c:	e5934000 	ldr	r4, [r3]
    9560:	e0841002 	add	r1, r4, r2
    9564:	e5831000 	str	r1, [r3]
    9568:	e3a01000 	mov	r1, #0
    956c:	e1a00004 	mov	r0, r4
    9570:	ebfffec0 	bl	9078 <memset>
    9574:	e1a00004 	mov	r0, r4
    9578:	e8bd8010 	pop	{r4, pc}
    957c:	ebfffeb3 	bl	9050 <rpi_reset_putc>
    9580:	e3a0301b 	mov	r3, #27
    9584:	e59f2010 	ldr	r2, [pc, #16]	; 959c <kmalloc+0x58>
    9588:	e59f1010 	ldr	r1, [pc, #16]	; 95a0 <kmalloc+0x5c>
    958c:	e59f0010 	ldr	r0, [pc, #16]	; 95a4 <kmalloc+0x60>
    9590:	ebfffcfb 	bl	8984 <printk>
    9594:	ebfffeea 	bl	9144 <clean_reboot>
    9598:	0000968c 	andeq	r9, r0, ip, lsl #13
    959c:	00009b58 	andeq	r9, r0, r8, asr fp
    95a0:	00009b70 	andeq	r9, r0, r0, ror fp
    95a4:	00009b98 	muleq	r0, r8, fp

000095a8 <kmalloc_init>:
    95a8:	e12fff1e 	bx	lr

000095ac <kmalloc_heap_ptr>:
    95ac:	e92d4010 	push	{r4, lr}
    95b0:	ebffffcc 	bl	94e8 <kmalloc_heap_start>
    95b4:	e8bd8010 	pop	{r4, pc}

000095b8 <kmalloc_aligned>:
    95b8:	e92d4010 	push	{r4, lr}
    95bc:	e2613000 	rsb	r3, r1, #0
    95c0:	e1d12003 	bics	r2, r1, r3
    95c4:	1a00000b 	bne	95f8 <kmalloc_aligned+0x40>
    95c8:	e59f2060 	ldr	r2, [pc, #96]	; 9630 <kmalloc_aligned+0x78>
    95cc:	e5922000 	ldr	r2, [r2]
    95d0:	e0812002 	add	r2, r1, r2
    95d4:	e2422001 	sub	r2, r2, #1
    95d8:	e0033002 	and	r3, r3, r2
    95dc:	e2411001 	sub	r1, r1, #1
    95e0:	e1130001 	tst	r3, r1
    95e4:	1a00000a 	bne	9614 <kmalloc_aligned+0x5c>
    95e8:	e59f2040 	ldr	r2, [pc, #64]	; 9630 <kmalloc_aligned+0x78>
    95ec:	e5823000 	str	r3, [r2]
    95f0:	ebffffd3 	bl	9544 <kmalloc>
    95f4:	e8bd8010 	pop	{r4, pc}
    95f8:	ebfffe94 	bl	9050 <rpi_reset_putc>
    95fc:	e3a0302a 	mov	r3, #42	; 0x2a
    9600:	e59f202c 	ldr	r2, [pc, #44]	; 9634 <kmalloc_aligned+0x7c>
    9604:	e59f102c 	ldr	r1, [pc, #44]	; 9638 <kmalloc_aligned+0x80>
    9608:	e59f002c 	ldr	r0, [pc, #44]	; 963c <kmalloc_aligned+0x84>
    960c:	ebfffcdc 	bl	8984 <printk>
    9610:	ebfffecb 	bl	9144 <clean_reboot>
    9614:	ebfffe8d 	bl	9050 <rpi_reset_putc>
    9618:	e3a03030 	mov	r3, #48	; 0x30
    961c:	e59f2010 	ldr	r2, [pc, #16]	; 9634 <kmalloc_aligned+0x7c>
    9620:	e59f1010 	ldr	r1, [pc, #16]	; 9638 <kmalloc_aligned+0x80>
    9624:	e59f0014 	ldr	r0, [pc, #20]	; 9640 <kmalloc_aligned+0x88>
    9628:	ebfffcd5 	bl	8984 <printk>
    962c:	ebfffec4 	bl	9144 <clean_reboot>
    9630:	0000968c 	andeq	r9, r0, ip, lsl #13
    9634:	00009b60 	andeq	r9, r0, r0, ror #22
    9638:	00009b70 	andeq	r9, r0, r0, ror fp
    963c:	00009bac 	andeq	r9, r0, ip, lsr #23
    9640:	00009c0c 	andeq	r9, r0, ip, lsl #24

00009644 <kfree>:
    9644:	e12fff1e 	bx	lr

00009648 <kfree_all>:
    9648:	e59f3008 	ldr	r3, [pc, #8]	; 9658 <kfree_all+0x10>
    964c:	e5932004 	ldr	r2, [r3, #4]
    9650:	e5832000 	str	r2, [r3]
    9654:	e12fff1e 	bx	lr
    9658:	0000968c 	andeq	r9, r0, ip, lsl #13

0000965c <kfree_after>:
    965c:	e59f3004 	ldr	r3, [pc, #4]	; 9668 <kfree_after+0xc>
    9660:	e5830000 	str	r0, [r3]
    9664:	e12fff1e 	bx	lr
    9668:	0000968c 	andeq	r9, r0, ip, lsl #13

0000966c <dev_barrier>:
    966c:	ea000002 	b	967c <dsb>

00009670 <dmb>:
    9670:	e3a00000 	mov	r0, #0
    9674:	ee070fba 	mcr	15, 0, r0, cr7, cr10, {5}
    9678:	e12fff1e 	bx	lr

0000967c <dsb>:
    967c:	ee070f9a 	mcr	15, 0, r0, cr7, cr10, {4}
    9680:	e12fff1e 	bx	lr

Disassembly of section .data:

00009684 <putk>:
    9684:	00009008 	andeq	r9, r0, r8

00009688 <rpi_putchar>:
    9688:	0000903c 	andeq	r9, r0, ip, lsr r0

0000968c <heap>:
    968c:	0000a070 	andeq	sl, r0, r0, ror r0

00009690 <heap_start>:
    9690:	0000a070 	andeq	sl, r0, r0, ror r0

Disassembly of section .rodata:

00009694 <__FUNCTION__.4269>:
    9694:	6d746f6e 	ldclvs	15, cr6, [r4, #-440]!	; 0xfffffe48
    9698:	006e6961 	rsbeq	r6, lr, r1, ror #18
    969c:	74736574 	ldrbtvc	r6, [r3], #-1396	; 0xfffffa8c
    96a0:	75203a34 	strvc	r3, [r0, #-2612]!	; 0xfffff5cc
    96a4:	61206573 			; <UNDEFINED> instruction: 0x61206573
    96a8:	72657466 	rsbvc	r7, r5, #1711276032	; 0x66000000
    96ac:	65726620 	ldrbvs	r6, [r2, #-1568]!	; 0xfffff9e0
    96b0:	00000a65 	andeq	r0, r0, r5, ror #20
    96b4:	74726170 	ldrbtvc	r6, [r2], #-368	; 0xfffffe90
    96b8:	65742d31 	ldrbvs	r2, [r4, #-3377]!	; 0xfffff2cf
    96bc:	2e347473 	mrccs	4, 1, r7, cr4, cr3, {3}
    96c0:	00000063 	andeq	r0, r0, r3, rrx
    96c4:	494e4150 	stmdbmi	lr, {r4, r6, r8, lr}^
    96c8:	73253a43 			; <UNDEFINED> instruction: 0x73253a43
    96cc:	3a73253a 	bcc	1cd2bbc <__bss_end__+0x1cc8b4c>
    96d0:	693a6425 	ldmdbvs	sl!, {r0, r2, r5, sl, sp, lr}
    96d4:	6c61766e 	stclvs	6, cr7, [r1], #-440	; 0xfffffe48
    96d8:	65206469 	strvs	r6, [r0, #-1129]!	; 0xfffffb97
    96dc:	726f7272 	rsbvc	r7, pc, #536870919	; 0x20000007
    96e0:	0a0a2121 	beq	291b6c <__bss_end__+0x287afc>
    96e4:	00000000 	andeq	r0, r0, r0
    96e8:	43415254 	movtmi	r5, #4692	; 0x1254
    96ec:	00003a45 	andeq	r3, r0, r5, asr #20
    96f0:	43435553 	movtmi	r5, #13651	; 0x3553
    96f4:	20535345 	subscs	r5, r3, r5, asr #6
    96f8:	70616568 	rsbvc	r6, r1, r8, ror #10
    96fc:	65686320 	strbvs	r6, [r8, #-800]!	; 0xfffffce0
    9700:	64656b63 	strbtvs	r6, [r5], #-2915	; 0xfffff49d
    9704:	74756f20 	ldrbtvc	r6, [r5], #-3872	; 0xfffff0e0
    9708:	0000000a 	andeq	r0, r0, sl
    970c:	43435553 	movtmi	r5, #13651	; 0x3553
    9710:	3a535345 	bcc	14de42c <__bss_end__+0x14d43bc>
    9714:	74656420 	strbtvc	r6, [r5], #-1056	; 0xfffffbe0
    9718:	65746365 	ldrbvs	r6, [r4, #-869]!	; 0xfffffc9b
    971c:	6f632064 	svcvs	0x00632064
    9720:	70757272 	rsbsvc	r7, r5, r2, ror r2
    9724:	6e6f6974 			; <UNDEFINED> instruction: 0x6e6f6974
    9728:	0000000a 	andeq	r0, r0, sl

0000972c <__FUNCTION__.4271>:
    972c:	695f6b63 	ldmdbvs	pc, {r0, r1, r5, r6, r8, r9, fp, sp, lr}^	; <UNPREDICTABLE>
    9730:	0074696e 	rsbseq	r6, r4, lr, ror #18

00009734 <__FUNCTION__.4329>:
    9734:	72666b63 	rsbvc	r6, r6, #101376	; 0x18c00
    9738:	00006565 	andeq	r6, r0, r5, ror #10

0000973c <__FUNCTION__.4339>:
    973c:	6c616b63 			; <UNDEFINED> instruction: 0x6c616b63
    9740:	00636f6c 	rsbeq	r6, r3, ip, ror #30
    9744:	4f525245 	svcmi	0x00525245
    9748:	00003a52 	andeq	r3, r0, r2, asr sl
    974c:	636f6c62 	cmnvs	pc, #25088	; 0x6200
    9750:	7025206b 	eorvc	r2, r5, fp, rrx
    9754:	726f6320 	rsbvc	r6, pc, #32, 6	; 0x80000000
    9758:	74707572 	ldrbtvc	r7, [r0], #-1394	; 0xfffffa8e
    975c:	61206465 			; <UNDEFINED> instruction: 0x61206465
    9760:	666f2074 			; <UNDEFINED> instruction: 0x666f2074
    9764:	74657366 	strbtvc	r7, [r5], #-870	; 0xfffffc9a
    9768:	0a642520 	beq	1912bf0 <__bss_end__+0x1908b80>
    976c:	00000000 	andeq	r0, r0, r0
    9770:	79626e09 	stmdbvc	r2!, {r0, r3, r9, sl, fp, sp, lr}^
    9774:	3d736574 	cfldr64cc	mvdx6, [r3, #-464]!	; 0xfffffe30
    9778:	000a6425 	andeq	r6, sl, r5, lsr #8
    977c:	6f6c4209 	svcvs	0x006c4209
    9780:	61206b63 			; <UNDEFINED> instruction: 0x61206b63
    9784:	636f6c6c 	cmnvs	pc, #108, 24	; 0x6c00
    9788:	64657461 	strbtvs	r7, [r5], #-1121	; 0xfffffb9f
    978c:	3a746120 	bcc	1d21c14 <__bss_end__+0x1d17ba4>
    9790:	3a732520 	bcc	1cd2c18 <__bss_end__+0x1cc8ba8>
    9794:	253a7325 	ldrcs	r7, [sl, #-805]!	; 0xfffffcdb
    9798:	00000a64 	andeq	r0, r0, r4, ror #20
    979c:	6f6c4209 	svcvs	0x006c4209
    97a0:	66206b63 	strtvs	r6, [r0], -r3, ror #22
    97a4:	64656572 	strbtvs	r6, [r5], #-1394	; 0xfffffa8e
    97a8:	3a746120 	bcc	1d21c30 <__bss_end__+0x1d17bc0>
    97ac:	3a732520 	bcc	1cd2c34 <__bss_end__+0x1cc8bc4>
    97b0:	253a7325 	ldrcs	r7, [sl, #-805]!	; 0xfffffcdb
    97b4:	00000a64 	andeq	r0, r0, r4, ror #20
    97b8:	6f725709 	svcvs	0x00725709
    97bc:	62206574 	eorvs	r6, r0, #116, 10	; 0x1d000000
    97c0:	6b636f6c 	blvs	18e5578 <__bss_end__+0x18db508>
    97c4:	74666120 	strbtvc	r6, [r6], #-288	; 0xfffffee0
    97c8:	66207265 	strtvs	r7, [r0], -r5, ror #4
    97cc:	21656572 	smccs	22098	; 0x5652
    97d0:	0000000a 	andeq	r0, r0, sl
    97d4:	6c616b63 			; <UNDEFINED> instruction: 0x6c616b63
    97d8:	2e636f6c 	cdpcs	15, 6, cr6, cr3, cr12, {3}
    97dc:	00000063 	andeq	r0, r0, r3, rrx
    97e0:	494e4150 	stmdbmi	lr, {r4, r6, r8, lr}^
    97e4:	73253a43 			; <UNDEFINED> instruction: 0x73253a43
    97e8:	3a73253a 	bcc	1cd2cd8 <__bss_end__+0x1cc8c68>
    97ec:	613a6425 	teqvs	sl, r5, lsr #8
    97f0:	6e67696c 	vnmulvs.f16	s13, s14, s25	; <UNPREDICTABLE>
    97f4:	68286465 	stmdavs	r8!, {r0, r2, r5, r6, sl, sp, lr}
    97f8:	5f706165 	svcpl	0x00706165
    97fc:	72617473 	rsbvc	r7, r1, #1929379840	; 0x73000000
    9800:	38202c74 	stmdacc	r0!, {r2, r4, r5, r6, sl, fp, sp}
    9804:	00000a29 	andeq	r0, r0, r9, lsr #20
    9808:	657a6973 	ldrbvs	r6, [sl, #-2419]!	; 0xfffff68d
    980c:	6820666f 	stmdavs	r0!, {r0, r1, r2, r3, r5, r6, r9, sl, sp, lr}
    9810:	253d7264 	ldrcs	r7, [sp, #-612]!	; 0xfffffd9c
    9814:	72202c64 	eorvc	r2, r0, #100, 24	; 0x6400
    9818:	6f7a6465 	svcvs	0x007a6465
    981c:	253d656e 	ldrcs	r6, [sp, #-1390]!	; 0xfffffa92
    9820:	00000a64 	andeq	r0, r0, r4, ror #20
    9824:	4f525245 	svcmi	0x00525245
    9828:	73253a52 			; <UNDEFINED> instruction: 0x73253a52
    982c:	3a73253a 	bcc	1cd2d1c <__bss_end__+0x1cc8cac>
    9830:	203a6425 	eorscs	r6, sl, r5, lsr #8
    9834:	534c4146 	movtpl	r4, #49478	; 0xc146
    9838:	683c2845 	ldmdavs	ip!, {r0, r2, r6, fp, sp}
    983c:	3e706165 	rpwccsz	f6, f0, f5
    9840:	6e203a29 	vmulvs.f32	s6, s0, s19
    9844:	6920746f 	stmdbvs	r0!, {r0, r1, r2, r3, r5, r6, sl, ip, sp, lr}
    9848:	6974696e 	ldmdbvs	r4!, {r1, r2, r3, r5, r6, r8, fp, sp, lr}^
    984c:	7a696c61 	bvc	1a649d8 <__bss_end__+0x1a5a968>
    9850:	0a3f6465 	beq	fe29ec <__bss_end__+0xfd897c>
    9854:	00000000 	andeq	r0, r0, r0
    9858:	65657266 	strbvs	r7, [r5, #-614]!	; 0xfffffd9a
    985c:	20676e69 	rsbcs	r6, r7, r9, ror #28
    9860:	000a7025 	andeq	r7, sl, r5, lsr #32
    9864:	6f6c6c61 	svcvs	0x006c6c61
    9868:	69746163 	ldmdbvs	r4!, {r0, r1, r5, r6, r8, sp, lr}^
    986c:	2520676e 	strcs	r6, [r0, #-1902]!	; 0xfffff892
    9870:	79622064 	stmdbvc	r2!, {r2, r5, r6, sp}^
    9874:	0a736574 	beq	1ce2e4c <__bss_end__+0x1cd8ddc>
    9878:	00000000 	andeq	r0, r0, r0
    987c:	43415254 	movtmi	r5, #4692	; 0x1254
    9880:	52453a45 	subpl	r3, r5, #282624	; 0x45000
    9884:	00524f52 	subseq	r4, r2, r2, asr pc
    9888:	657a6973 	ldrbvs	r6, [sl, #-2419]!	; 0xfffff68d
    988c:	65766f20 	ldrbvs	r6, [r6, #-3872]!	; 0xfffff0e0
    9890:	6f6c6672 	svcvs	0x006c6672
    9894:	3a646577 	bcc	1922e78 <__bss_end__+0x1918e08>
    9898:	20642520 	rsbcs	r2, r4, r0, lsr #10
    989c:	65747962 	ldrbvs	r7, [r4, #-2402]!	; 0xfffff69e
    98a0:	73692073 	cmnvc	r9, #115	; 0x73
    98a4:	6f6f7420 	svcvs	0x006f7420
    98a8:	72616c20 	rsbvc	r6, r1, #32, 24	; 0x2000
    98ac:	000a6567 	andeq	r6, sl, r7, ror #10
    98b0:	494e4150 	stmdbmi	lr, {r4, r6, r8, lr}^
    98b4:	73253a43 			; <UNDEFINED> instruction: 0x73253a43
    98b8:	3a73253a 	bcc	1cd2da8 <__bss_end__+0x1cc8d38>
    98bc:	733a6425 	teqvc	sl, #620756992	; 0x25000000
    98c0:	20657a69 	rsbcs	r7, r5, r9, ror #20
    98c4:	7265766f 	rsbvc	r7, r5, #116391936	; 0x6f00000
    98c8:	776f6c66 	strbvc	r6, [pc, -r6, ror #24]!
    98cc:	203a6465 	eorscs	r6, sl, r5, ror #8
    98d0:	62206425 	eorvs	r6, r0, #620756992	; 0x25000000
    98d4:	73657479 	cmnvc	r5, #2030043136	; 0x79000000
    98d8:	20736920 	rsbscs	r6, r3, r0, lsr #18
    98dc:	206f6f74 	rsbcs	r6, pc, r4, ror pc	; <UNPREDICTABLE>
    98e0:	6772616c 	ldrbvs	r6, [r2, -ip, ror #2]!
    98e4:	000a0a65 	andeq	r0, sl, r5, ror #20
    98e8:	2074756f 	rsbscs	r7, r4, pc, ror #10
    98ec:	6d20666f 	stcvs	6, cr6, [r0, #-444]!	; 0xfffffe44
    98f0:	726f6d65 	rsbvc	r6, pc, #6464	; 0x1940
    98f4:	20202179 	eorcs	r2, r0, r9, ror r1
    98f8:	65766168 	ldrbvs	r6, [r6, #-360]!	; 0xfffffe98
    98fc:	6c6e6f20 	stclvs	15, cr6, [lr], #-128	; 0xffffff80
    9900:	64252079 	strtvs	r2, [r5], #-121	; 0xffffff87
    9904:	66656c20 	strbtvs	r6, [r5], -r0, lsr #24
    9908:	6e202c74 	mcrvs	12, 1, r2, cr0, cr4, {3}
    990c:	20646565 	rsbcs	r6, r4, r5, ror #10
    9910:	000a6425 	andeq	r6, sl, r5, lsr #8
    9914:	494e4150 	stmdbmi	lr, {r4, r6, r8, lr}^
    9918:	73253a43 			; <UNDEFINED> instruction: 0x73253a43
    991c:	3a73253a 	bcc	1cd2e0c <__bss_end__+0x1cc8d9c>
    9920:	6f3a6425 	svcvs	0x003a6425
    9924:	6f207475 	svcvs	0x00207475
    9928:	656d2066 	strbvs	r2, [sp, #-102]!	; 0xffffff9a
    992c:	79726f6d 	ldmdbvc	r2!, {r0, r2, r3, r5, r6, r8, r9, sl, fp, sp, lr}^
    9930:	68202021 	stmdavs	r0!, {r0, r5, sp}
    9934:	20657661 	rsbcs	r7, r5, r1, ror #12
    9938:	796c6e6f 	stmdbvc	ip!, {r0, r1, r2, r3, r5, r6, r9, sl, fp, sp, lr}^
    993c:	20642520 	rsbcs	r2, r4, r0, lsr #10
    9940:	7466656c 	strbtvc	r6, [r6], #-1388	; 0xfffffa94
    9944:	656e202c 	strbvs	r2, [lr, #-44]!	; 0xffffffd4
    9948:	25206465 	strcs	r6, [r0, #-1125]!	; 0xfffffb9b
    994c:	000a0a64 	andeq	r0, sl, r4, ror #20
    9950:	494e4150 	stmdbmi	lr, {r4, r6, r8, lr}^
    9954:	73253a43 			; <UNDEFINED> instruction: 0x73253a43
    9958:	3a73253a 	bcc	1cd2e48 <__bss_end__+0x1cc8dd8>
    995c:	633a6425 	teqvs	sl, #620756992	; 0x25000000
    9960:	6b636568 	blvs	18e2f08 <__bss_end__+0x18d8e98>
    9964:	6f6c625f 	svcvs	0x006c625f
    9968:	68286b63 	stmdavs	r8!, {r0, r1, r5, r6, r8, r9, fp, sp, lr}
    996c:	00000a29 	andeq	r0, r0, r9, lsr #20
    9970:	6c616b63 			; <UNDEFINED> instruction: 0x6c616b63
    9974:	3a636f6c 	bcc	18e572c <__bss_end__+0x18db6bc>
    9978:	6f6c6c61 	svcvs	0x006c6c61
    997c:	65746163 	ldrbvs	r6, [r4, #-355]!	; 0xfffffe9d
    9980:	64252064 	strtvs	r2, [r5], #-100	; 0xffffff9c
    9984:	74796220 	ldrbtvc	r6, [r9], #-544	; 0xfffffde0
    9988:	202c7365 	eorcs	r7, ip, r5, ror #6
    998c:	746f7428 	strbtvc	r7, [pc], #-1064	; 9994 <__FUNCTION__.4339+0x258>
    9990:	253d6c61 	ldrcs	r6, [sp, #-3169]!	; 0xfffff39f
    9994:	202c2964 	eorcs	r2, ip, r4, ror #18
    9998:	3d727470 	cfldrdcc	mvd7, [r2, #-448]!	; 0xfffffe40
    999c:	000a7025 	andeq	r7, sl, r5, lsr #32
    99a0:	6e696f67 	cdpvs	15, 6, cr6, cr9, cr7, {3}
    99a4:	6f742067 	svcvs	0x00742067
    99a8:	65686320 	strbvs	r6, [r8, #-800]!	; 0xfffffce0
    99ac:	68206b63 	stmdavs	r0!, {r0, r1, r5, r6, r8, r9, fp, sp, lr}
    99b0:	3a706165 	bcc	1c21f4c <__bss_end__+0x1c17edc>
    99b4:	20642520 	rsbcs	r2, r4, r0, lsr #10
    99b8:	65747962 	ldrbvs	r7, [r4, #-2402]!	; 0xfffff69e
    99bc:	6c612073 	stclvs	0, cr2, [r1], #-460	; 0xfffffe34
    99c0:	61636f6c 	cmnvs	r3, ip, ror #30
    99c4:	2c646574 	cfstr64cs	mvdx6, [r4], #-464	; 0xfffffe30
    99c8:	20642520 	rsbcs	r2, r4, r0, lsr #10
    99cc:	65747962 	ldrbvs	r7, [r4, #-2402]!	; 0xfffff69e
    99d0:	656c2073 	strbvs	r2, [ip, #-115]!	; 0xffffff8d
    99d4:	000a7466 	andeq	r7, sl, r6, ror #8
    99d8:	63656863 	cmnvs	r5, #6488064	; 0x630000
    99dc:	2064656b 	rsbcs	r6, r4, fp, ror #10
    99e0:	62206425 	eorvs	r6, r0, #620756992	; 0x25000000
    99e4:	6b636f6c 	blvs	18e579c <__bss_end__+0x18db72c>
    99e8:	64202c73 	strtvs	r2, [r0], #-3187	; 0xfffff38d
    99ec:	63657465 	cmnvs	r5, #1694498816	; 0x65000000
    99f0:	20646574 	rsbcs	r6, r4, r4, ror r5
    99f4:	65206425 	strvs	r6, [r0, #-1061]!	; 0xfffffbdb
    99f8:	726f7272 	rsbvc	r7, pc, #536870919	; 0x20000007
    99fc:	00000a73 	andeq	r0, r0, r3, ror sl
    9a00:	43435553 	movtmi	r5, #13651	; 0x3553
    9a04:	3a535345 	bcc	14de720 <__bss_end__+0x14d46b0>
    9a08:	65686320 	strbvs	r6, [r8, #-800]!	; 0xfffffce0
    9a0c:	64656b63 	strbtvs	r6, [r5], #-2915	; 0xfffff49d
    9a10:	20642520 	rsbcs	r2, r4, r0, lsr #10
    9a14:	636f6c62 	cmnvs	pc, #25088	; 0x6200
    9a18:	202c736b 	eorcs	r7, ip, fp, ror #6
    9a1c:	65746564 	ldrbvs	r6, [r4, #-1380]!	; 0xfffffa9c
    9a20:	64657463 	strbtvs	r7, [r5], #-1123	; 0xfffffb9d
    9a24:	206f6e20 	rsbcs	r6, pc, r0, lsr #28
    9a28:	6f727265 	svcvs	0x00727265
    9a2c:	000a7372 	andeq	r7, sl, r2, ror r3

00009a30 <__FUNCTION__.4281>:
    9a30:	74696d65 	strbtvc	r6, [r9], #-3429	; 0xfffff29b
    9a34:	00000000 	andeq	r0, r0, r0

00009a38 <__FUNCTION__.4229>:
    9a38:	5f697072 	svcpl	0x00697072
    9a3c:	5f746573 	svcpl	0x00746573
    9a40:	7074756f 	rsbsvc	r7, r4, pc, ror #10
    9a44:	00007475 	andeq	r7, r0, r5, ror r4

00009a48 <__FUNCTION__.4303>:
    9a48:	705f6176 	subsvc	r6, pc, r6, ror r1	; <UNPREDICTABLE>
    9a4c:	746e6972 	strbtvc	r6, [lr], #-2418	; 0xfffff68e
    9a50:	0000006b 	andeq	r0, r0, fp, rrx
    9a54:	6362696c 	cmnvs	r2, #108, 18	; 0x1b0000
    9a58:	2d61762f 	stclcs	6, cr7, [r1, #-188]!	; 0xffffff44
    9a5c:	6e697270 	mcrvs	2, 3, r7, cr9, cr0, {3}
    9a60:	632e6b74 			; <UNDEFINED> instruction: 0x632e6b74
    9a64:	00000000 	andeq	r0, r0, r0
    9a68:	494e4150 	stmdbmi	lr, {r4, r6, r8, lr}^
    9a6c:	73253a43 			; <UNDEFINED> instruction: 0x73253a43
    9a70:	3a73253a 	bcc	1cd2f60 <__bss_end__+0x1cc8ef0>
    9a74:	303a6425 	eorscc	r6, sl, r5, lsr #8
    9a78:	0000000a 	andeq	r0, r0, sl
    9a7c:	33323130 	teqcc	r2, #48, 2
    9a80:	37363534 			; <UNDEFINED> instruction: 0x37363534
    9a84:	00003938 	andeq	r3, r0, r8, lsr r9
    9a88:	33323130 	teqcc	r2, #48, 2
    9a8c:	37363534 			; <UNDEFINED> instruction: 0x37363534
    9a90:	62613938 	rsbvs	r3, r1, #56, 18	; 0xe0000
    9a94:	66656463 	strbtvs	r6, [r5], -r3, ror #8
    9a98:	00000000 	andeq	r0, r0, r0
    9a9c:	00003130 	andeq	r3, r0, r0, lsr r1
    9aa0:	494e4150 	stmdbmi	lr, {r4, r6, r8, lr}^
    9aa4:	73253a43 			; <UNDEFINED> instruction: 0x73253a43
    9aa8:	3a73253a 	bcc	1cd2f98 <__bss_end__+0x1cc8f28>
    9aac:	703a6425 	eorsvc	r6, sl, r5, lsr #8
    9ab0:	5f637475 	svcpl	0x00637475
    9ab4:	000a7066 	andeq	r7, sl, r6, rrx
    9ab8:	494e4150 	stmdbmi	lr, {r4, r6, r8, lr}^
    9abc:	73253a43 			; <UNDEFINED> instruction: 0x73253a43
    9ac0:	3a73253a 	bcc	1cd2fb0 <__bss_end__+0x1cc8f40>
    9ac4:	773a6425 	ldrvc	r6, [sl, -r5, lsr #8]!
    9ac8:	68746469 	ldmdavs	r4!, {r0, r3, r5, r6, sl, sp, lr}^
    9acc:	33203c20 			; <UNDEFINED> instruction: 0x33203c20
    9ad0:	00000a32 	andeq	r0, r0, r2, lsr sl
    9ad4:	494e4150 	stmdbmi	lr, {r4, r6, r8, lr}^
    9ad8:	73253a43 			; <UNDEFINED> instruction: 0x73253a43
    9adc:	3a73253a 	bcc	1cd2fcc <__bss_end__+0x1cc8f5c>
    9ae0:	663a6425 	ldrtvs	r6, [sl], -r5, lsr #8
    9ae4:	74616f6c 	strbtvc	r6, [r1], #-3948	; 0xfffff094
    9ae8:	746f6e20 	strbtvc	r6, [pc], #-3616	; 9af0 <__FUNCTION__.4303+0xa8>
    9aec:	616e6520 	cmnvs	lr, r0, lsr #10
    9af0:	64656c62 	strbtvs	r6, [r5], #-3170	; 0xfffff39e
    9af4:	0a212121 	beq	851f80 <__bss_end__+0x847f10>
    9af8:	00000000 	andeq	r0, r0, r0
    9afc:	494e4150 	stmdbmi	lr, {r4, r6, r8, lr}^
    9b00:	73253a43 			; <UNDEFINED> instruction: 0x73253a43
    9b04:	3a73253a 	bcc	1cd2ff4 <__bss_end__+0x1cc8f84>
    9b08:	703a6425 	eorsvc	r6, sl, r5, lsr #8
    9b0c:	746e6972 	strbtvc	r6, [lr], #-2418	; 0xfffff68e
    9b10:	6e203a6b 	vnmulvs.f32	s6, s0, s23
    9b14:	6820746f 	stmdavs	r0!, {r0, r1, r2, r3, r5, r6, sl, ip, sp, lr}
    9b18:	6c646e61 	stclvs	14, cr6, [r4], #-388	; 0xfffffe7c
    9b1c:	20676e69 	rsbcs	r6, r7, r9, ror #28
    9b20:	63657073 	cmnvs	r5, #115	; 0x73
    9b24:	65696669 	strbvs	r6, [r9, #-1641]!	; 0xfffff997
    9b28:	25272072 	strcs	r2, [r7, #-114]!	; 0xffffff8e
    9b2c:	0a0a2763 	beq	2938c0 <__bss_end__+0x289850>
    9b30:	00000000 	andeq	r0, r0, r0
    9b34:	454e4f44 	strbmi	r4, [lr, #-3908]	; 0xfffff0bc
    9b38:	0a212121 	beq	851fc4 <__bss_end__+0x847f54>
    9b3c:	00000000 	andeq	r0, r0, r0

00009b40 <__FUNCTION__.4237>:
    9b40:	6c616d6b 	stclvs	13, cr6, [r1], #-428	; 0xfffffe54
    9b44:	5f636f6c 	svcpl	0x00636f6c
    9b48:	74696e69 	strbtvc	r6, [r9], #-3689	; 0xfffff197
    9b4c:	7465735f 	strbtvc	r7, [r5], #-863	; 0xfffffca1
    9b50:	6174735f 	cmnvs	r4, pc, asr r3
    9b54:	00007472 	andeq	r7, r0, r2, ror r4

00009b58 <__FUNCTION__.4241>:
    9b58:	6c616d6b 	stclvs	13, cr6, [r1], #-428	; 0xfffffe54
    9b5c:	00636f6c 	rsbeq	r6, r3, ip, ror #30

00009b60 <__FUNCTION__.4253>:
    9b60:	6c616d6b 	stclvs	13, cr6, [r1], #-428	; 0xfffffe54
    9b64:	5f636f6c 	svcpl	0x00636f6c
    9b68:	67696c61 	strbvs	r6, [r9, -r1, ror #24]!
    9b6c:	0064656e 	rsbeq	r6, r4, lr, ror #10
    9b70:	6c616d6b 	stclvs	13, cr6, [r1], #-428	; 0xfffffe54
    9b74:	2e636f6c 	cdpcs	15, 6, cr6, cr3, cr12, {3}
    9b78:	00000063 	andeq	r0, r0, r3, rrx
    9b7c:	494e4150 	stmdbmi	lr, {r4, r6, r8, lr}^
    9b80:	73253a43 			; <UNDEFINED> instruction: 0x73253a43
    9b84:	3a73253a 	bcc	1cd3074 <__bss_end__+0x1cc9004>
    9b88:	613a6425 	teqvs	sl, r5, lsr #8
    9b8c:	20726464 	rsbscs	r6, r2, r4, ror #8
    9b90:	6568203e 	strbvs	r2, [r8, #-62]!	; 0xffffffc2
    9b94:	000a7061 	andeq	r7, sl, r1, rrx
    9b98:	494e4150 	stmdbmi	lr, {r4, r6, r8, lr}^
    9b9c:	73253a43 			; <UNDEFINED> instruction: 0x73253a43
    9ba0:	3a73253a 	bcc	1cd3090 <__bss_end__+0x1cc9020>
    9ba4:	733a6425 	teqvc	sl, #620756992	; 0x25000000
    9ba8:	00000a7a 	andeq	r0, r0, sl, ror sl
    9bac:	4f525245 	svcmi	0x00525245
    9bb0:	73253a52 			; <UNDEFINED> instruction: 0x73253a52
    9bb4:	3a73253a 	bcc	1cd30a4 <__bss_end__+0x1cc9034>
    9bb8:	203a6425 	eorscs	r6, sl, r5, lsr #8
    9bbc:	534c4146 	movtpl	r4, #49478	; 0xc146
    9bc0:	283c2845 	ldmdacs	ip!, {r0, r2, r6, fp, sp}
    9bc4:	6c612828 	stclvs	8, cr2, [r1], #-160	; 0xffffff60
    9bc8:	6d6e6769 	stclvs	7, cr6, [lr, #-420]!	; 0xfffffe5c
    9bcc:	29746e65 	ldmdbcs	r4!, {r0, r2, r5, r6, r9, sl, fp, sp, lr}^
    9bd0:	61282d26 			; <UNDEFINED> instruction: 0x61282d26
    9bd4:	6e67696c 	vnmulvs.f16	s13, s14, s25	; <UNPREDICTABLE>
    9bd8:	746e656d 	strbtvc	r6, [lr], #-1389	; 0xfffffa93
    9bdc:	3d202929 			; <UNDEFINED> instruction: 0x3d202929
    9be0:	6128203d 			; <UNDEFINED> instruction: 0x6128203d
    9be4:	6e67696c 	vnmulvs.f16	s13, s14, s25	; <UNPREDICTABLE>
    9be8:	746e656d 	strbtvc	r6, [lr], #-1389	; 0xfffffa93
    9bec:	293e2929 	ldmdbcs	lr!, {r0, r3, r5, r8, fp, sp}
    9bf0:	7361203a 	cmnvc	r1, #58	; 0x3a
    9bf4:	696d7573 	stmdbvs	sp!, {r0, r1, r4, r5, r6, r8, sl, ip, sp, lr}^
    9bf8:	7020676e 	eorvc	r6, r0, lr, ror #14
    9bfc:	7265776f 	rsbvc	r7, r5, #29097984	; 0x1bc0000
    9c00:	20666f20 	rsbcs	r6, r6, r0, lsr #30
    9c04:	0a6f7774 	beq	1be79dc <__bss_end__+0x1bdd96c>
    9c08:	00000000 	andeq	r0, r0, r0
    9c0c:	4f525245 	svcmi	0x00525245
    9c10:	73253a52 			; <UNDEFINED> instruction: 0x73253a52
    9c14:	3a73253a 	bcc	1cd3104 <__bss_end__+0x1cc9094>
    9c18:	203a6425 	eorscs	r6, sl, r5, lsr #8
    9c1c:	534c4146 	movtpl	r4, #49478	; 0xc146
    9c20:	283c2845 	ldmdacs	ip!, {r0, r2, r6, fp, sp}
    9c24:	29682828 	stmdbcs	r8!, {r3, r5, fp, sp}^
    9c28:	28202620 	stmdacs	r0!, {r5, r9, sl, sp}
    9c2c:	70797428 	rsbsvc	r7, r9, r8, lsr #8
    9c30:	28666f65 	stmdacs	r6!, {r0, r2, r5, r6, r8, r9, sl, fp, sp, lr}^
    9c34:	28292968 	stmdacs	r9!, {r3, r5, r6, r8, fp, sp}
    9c38:	67696c61 	strbvs	r6, [r9, -r1, ror #24]!
    9c3c:	6e656d6e 	cdpvs	13, 6, cr6, cr5, cr14, {3}
    9c40:	2d202974 			; <UNDEFINED> instruction: 0x2d202974
    9c44:	29293120 	stmdbcs	r9!, {r5, r8, ip, sp}
    9c48:	203d3d20 	eorscs	r3, sp, r0, lsr #26
    9c4c:	293e2930 	ldmdbcs	lr!, {r4, r5, r8, fp, sp}
    9c50:	6d69203a 	stclvs	0, cr2, [r9, #-232]!	; 0xffffff18
    9c54:	73736f70 	cmnvc	r3, #112, 30	; 0x1c0
    9c58:	656c6269 	strbvs	r6, [ip, #-617]!	; 0xfffffd97
    9c5c:	0000000a 	andeq	r0, r0, sl

Disassembly of section .bss:

00009c60 <__bss_start__>:
    9c60:	00000000 	andeq	r0, r0, r0

00009c64 <heap>:
    9c64:	00000000 	andeq	r0, r0, r0

00009c68 <heap_end>:
    9c68:	00000000 	andeq	r0, r0, r0

00009c6c <buf.4229>:
	...

Disassembly of section .ARM.attributes:

00000000 <.ARM.attributes>:
   0:	00002a41 	andeq	r2, r0, r1, asr #20
   4:	61656100 	cmnvs	r5, r0, lsl #2
   8:	01006962 	tsteq	r0, r2, ror #18
   c:	00000020 	andeq	r0, r0, r0, lsr #32
  10:	4b5a3605 	blmi	168d82c <__bss_end__+0x16837bc>
  14:	08070600 	stmdaeq	r7, {r9, sl}
  18:	12010901 	andne	r0, r1, #16384	; 0x4000
  1c:	15011404 	strne	r1, [r1, #-1028]	; 0xfffffbfc
  20:	18031701 	stmdane	r3, {r0, r8, r9, sl, ip}
  24:	22011a01 	andcs	r1, r1, #4096	; 0x1000
  28:	Address 0x0000000000000028 is out of bounds.


Disassembly of section .comment:

00000000 <.comment>:
   0:	3a434347 	bcc	10d0d24 <__bss_end__+0x10c6cb4>
   4:	35312820 	ldrcc	r2, [r1, #-2080]!	; 0xfffff7e0
   8:	332e363a 			; <UNDEFINED> instruction: 0x332e363a
   c:	732b312e 			; <UNDEFINED> instruction: 0x732b312e
  10:	35326e76 	ldrcc	r6, [r2, #-3702]!	; 0xfffff18a
  14:	39333033 	ldmdbcc	r3!, {r0, r1, r4, r5, ip, sp}
  18:	7562312d 	strbvc	r3, [r2, #-301]!	; 0xfffffed3
  1c:	31646c69 	cmncc	r4, r9, ror #24
  20:	2e362029 	cdpcs	0, 3, cr2, cr6, cr9, {1}
  24:	20312e33 	eorscs	r2, r1, r3, lsr lr
  28:	37313032 			; <UNDEFINED> instruction: 0x37313032
  2c:	30323630 	eorscc	r3, r2, r0, lsr r6
	...

Disassembly of section .debug_info:

00000000 <.debug_info>:
       0:	00000b1c 	andeq	r0, r0, ip, lsl fp
       4:	00000004 	andeq	r0, r0, r4
       8:	01040000 	mrseq	r0, (UNDEF: 4)
       c:	000003c8 	andeq	r0, r0, r8, asr #7
      10:	00045a0c 	andeq	r5, r4, ip, lsl #20
      14:	0000ce00 	andeq	ip, r0, r0, lsl #28
      18:	00801000 	addeq	r1, r0, r0
      1c:	0000fc00 	andeq	pc, r0, r0, lsl #24
      20:	00000000 	andeq	r0, r0, r0
      24:	05040200 	streq	r0, [r4, #-512]	; 0xfffffe00
      28:	00746e69 	rsbseq	r6, r4, r9, ror #28
      2c:	66070403 	strvs	r0, [r7], -r3, lsl #8
      30:	03000000 	movweq	r0, #0
      34:	02ec0601 	rsceq	r0, ip, #1048576	; 0x100000
      38:	02030000 	andeq	r0, r3, #0
      3c:	00030605 	andeq	r0, r3, r5, lsl #12
      40:	05040300 	streq	r0, [r4, #-768]	; 0xfffffd00
      44:	000000af 	andeq	r0, r0, pc, lsr #1
      48:	aa050803 	bge	14205c <__bss_end__+0x137fec>
      4c:	03000000 	movweq	r0, #0
      50:	02ea0801 	rsceq	r0, sl, #65536	; 0x10000
      54:	02030000 	andeq	r0, r3, #0
      58:	00022507 	andeq	r2, r2, r7, lsl #10
      5c:	07040300 	streq	r0, [r4, -r0, lsl #6]
      60:	00000061 	andeq	r0, r0, r1, rrx
      64:	5c070803 	stcpl	8, cr0, [r7], {3}
      68:	04000000 	streq	r0, [r0], #-0
      6c:	000002d8 	ldrdeq	r0, [r0], -r8
      70:	00250702 	eoreq	r0, r5, r2, lsl #14
      74:	c7040000 	strgt	r0, [r4, -r0]
      78:	03000002 	movweq	r0, #2
      7c:	0000412c 	andeq	r4, r0, ip, lsr #2
      80:	03b10400 			; <UNDEFINED> instruction: 0x03b10400
      84:	72030000 	andvc	r0, r3, #0
      88:	00000041 	andeq	r0, r0, r1, asr #32
      8c:	00026805 	andeq	r6, r2, r5, lsl #16
      90:	01650400 	cmneq	r5, r0, lsl #8
      94:	0000002c 	andeq	r0, r0, ip, lsr #32
      98:	a6030406 	strge	r0, [r3], -r6, lsl #8
      9c:	000000b7 	strheq	r0, [r0], -r7
      a0:	00026207 	andeq	r6, r2, r7, lsl #4
      a4:	8ca80300 	stchi	3, cr0, [r8]
      a8:	07000000 	streq	r0, [r0, -r0]
      ac:	000001e5 	andeq	r0, r0, r5, ror #3
      b0:	00b7a903 	adcseq	sl, r7, r3, lsl #18
      b4:	08000000 	stmdaeq	r0, {}	; <UNPREDICTABLE>
      b8:	0000004f 	andeq	r0, r0, pc, asr #32
      bc:	000000c7 	andeq	r0, r0, r7, asr #1
      c0:	0000c709 	andeq	ip, r0, r9, lsl #14
      c4:	03000300 	movweq	r0, #768	; 0x300
      c8:	029b0704 	addseq	r0, fp, #4, 14	; 0x100000
      cc:	080a0000 	stmdaeq	sl, {}	; <UNPREDICTABLE>
      d0:	00efa303 	rsceq	sl, pc, r3, lsl #6
      d4:	9b0b0000 	blls	2c00dc <__bss_end__+0x2b606c>
      d8:	03000003 	movweq	r0, #3
      dc:	000025a5 	andeq	r2, r0, r5, lsr #11
      e0:	a30b0000 	movwge	r0, #45056	; 0xb000
      e4:	03000003 	movweq	r0, #3
      e8:	000098aa 	andeq	r9, r0, sl, lsr #17
      ec:	04000400 	streq	r0, [r0], #-1024	; 0xfffffc00
      f0:	0000032e 	andeq	r0, r0, lr, lsr #6
      f4:	00ceab03 	sbceq	sl, lr, r3, lsl #22
      f8:	a2040000 	andge	r0, r4, #0
      fc:	03000001 	movweq	r0, #1
     100:	00006baf 	andeq	r6, r0, pc, lsr #23
     104:	0d040c00 	stceq	12, cr0, [r4, #-0]
     108:	00010d04 	andeq	r0, r1, r4, lsl #26
     10c:	08010300 	stmdaeq	r1, {r8, r9}
     110:	000002f3 	strdeq	r0, [r0], -r3
     114:	00010d0e 	andeq	r0, r1, lr, lsl #26
     118:	04450400 	strbeq	r0, [r5], #-1024	; 0xfffffc00
     11c:	16050000 	strne	r0, [r5], -r0
     120:	0000005d 	andeq	r0, r0, sp, asr r0
     124:	0001b30f 	andeq	fp, r1, pc, lsl #6
     128:	2d051800 	stccs	8, cr1, [r5, #-0]
     12c:	00000177 	andeq	r0, r0, r7, ror r1
     130:	00034f0b 	andeq	r4, r3, fp, lsl #30
     134:	772f0500 	strvc	r0, [pc, -r0, lsl #10]!
     138:	00000001 	andeq	r0, r0, r1
     13c:	006b5f10 	rsbeq	r5, fp, r0, lsl pc
     140:	00253005 	eoreq	r3, r5, r5
     144:	0b040000 	bleq	10014c <__bss_end__+0xf60dc>
     148:	00000386 	andeq	r0, r0, r6, lsl #7
     14c:	00253005 	eoreq	r3, r5, r5
     150:	0b080000 	bleq	200158 <__bss_end__+0x1f60e8>
     154:	0000019c 	muleq	r0, ip, r1
     158:	00253005 	eoreq	r3, r5, r5
     15c:	0b0c0000 	bleq	300164 <__bss_end__+0x2f60f4>
     160:	000004a1 	andeq	r0, r0, r1, lsr #9
     164:	00253005 	eoreq	r3, r5, r5
     168:	10100000 	andsne	r0, r0, r0
     16c:	0500785f 	streq	r7, [r0, #-2143]	; 0xfffff7a1
     170:	00017d31 	andeq	r7, r1, r1, lsr sp
     174:	0d001400 	cfstrseq	mvf1, [r0, #-0]
     178:	00012404 	andeq	r2, r1, r4, lsl #8
     17c:	01190800 	tsteq	r9, r0, lsl #16
     180:	018d0000 	orreq	r0, sp, r0
     184:	c7090000 	strgt	r0, [r9, -r0]
     188:	00000000 	andeq	r0, r0, r0
     18c:	01e00f00 	mvneq	r0, r0, lsl #30
     190:	05240000 	streq	r0, [r4, #-0]!
     194:	00020635 	andeq	r0, r2, r5, lsr r6
     198:	00a10b00 	adceq	r0, r1, r0, lsl #22
     19c:	37050000 	strcc	r0, [r5, -r0]
     1a0:	00000025 	andeq	r0, r0, r5, lsr #32
     1a4:	03b90b00 			; <UNDEFINED> instruction: 0x03b90b00
     1a8:	38050000 	stmdacc	r5, {}	; <UNPREDICTABLE>
     1ac:	00000025 	andeq	r0, r0, r5, lsr #32
     1b0:	00c40b04 	sbceq	r0, r4, r4, lsl #22
     1b4:	39050000 	stmdbcc	r5, {}	; <UNPREDICTABLE>
     1b8:	00000025 	andeq	r0, r0, r5, lsr #32
     1bc:	05220b08 	streq	r0, [r2, #-2824]!	; 0xfffff4f8
     1c0:	3a050000 	bcc	1401c8 <__bss_end__+0x136158>
     1c4:	00000025 	andeq	r0, r0, r5, lsr #32
     1c8:	02ab0b0c 	adceq	r0, fp, #12, 22	; 0x3000
     1cc:	3b050000 	blcc	1401d4 <__bss_end__+0x136164>
     1d0:	00000025 	andeq	r0, r0, r5, lsr #32
     1d4:	02840b10 	addeq	r0, r4, #16, 22	; 0x4000
     1d8:	3c050000 	stccc	0, cr0, [r5], {-0}
     1dc:	00000025 	andeq	r0, r0, r5, lsr #32
     1e0:	04a60b14 	strteq	r0, [r6], #2836	; 0xb14
     1e4:	3d050000 	stccc	0, cr0, [r5, #-0]
     1e8:	00000025 	andeq	r0, r0, r5, lsr #32
     1ec:	03100b18 	tsteq	r0, #24, 22	; 0x6000
     1f0:	3e050000 	cdpcc	0, 0, cr0, cr5, cr0, {0}
     1f4:	00000025 	andeq	r0, r0, r5, lsr #32
     1f8:	04e90b1c 	strbteq	r0, [r9], #2844	; 0xb1c
     1fc:	3f050000 	svccc	0x00050000
     200:	00000025 	andeq	r0, r0, r5, lsr #32
     204:	04110020 	ldreq	r0, [r1], #-32	; 0xffffffe0
     208:	08000001 	stmdaeq	r0, {r0}
     20c:	46480501 	strbmi	r0, [r8], -r1, lsl #10
     210:	0b000002 	bleq	220 <_start-0x7de0>
     214:	0000018f 	andeq	r0, r0, pc, lsl #3
     218:	02464905 	subeq	r4, r6, #81920	; 0x14000
     21c:	0b000000 	bleq	224 <_start-0x7ddc>
     220:	00000000 	andeq	r0, r0, r0
     224:	02464a05 	subeq	r4, r6, #20480	; 0x5000
     228:	12800000 	addne	r0, r0, #0
     22c:	00000437 	andeq	r0, r0, r7, lsr r4
     230:	01194c05 	tsteq	r9, r5, lsl #24
     234:	01000000 	mrseq	r0, (UNDEF: 0)
     238:	00012912 	andeq	r2, r1, r2, lsl r9
     23c:	194f0500 	stmdbne	pc, {r8, sl}^	; <UNPREDICTABLE>
     240:	04000001 	streq	r0, [r0], #-1
     244:	05080001 	streq	r0, [r8, #-1]
     248:	56000001 	strpl	r0, [r0], -r1
     24c:	09000002 	stmdbeq	r0, {r1}
     250:	000000c7 	andeq	r0, r0, r7, asr #1
     254:	b411001f 	ldrlt	r0, [r1], #-31	; 0xffffffe1
     258:	90000002 	andls	r0, r0, r2
     25c:	945b0501 	ldrbls	r0, [fp], #-1281	; 0xfffffaff
     260:	0b000002 	bleq	270 <_start-0x7d90>
     264:	0000034f 	andeq	r0, r0, pc, asr #6
     268:	02945c05 	addseq	r5, r4, #1280	; 0x500
     26c:	0b000000 	bleq	274 <_start-0x7d8c>
     270:	00000367 	andeq	r0, r0, r7, ror #6
     274:	00255d05 	eoreq	r5, r5, r5, lsl #26
     278:	0b040000 	bleq	100280 <__bss_end__+0xf6210>
     27c:	00000197 	muleq	r0, r7, r1
     280:	029a5f05 	addseq	r5, sl, #5, 30
     284:	0b080000 	bleq	20028c <__bss_end__+0x1f621c>
     288:	00000104 	andeq	r0, r0, r4, lsl #2
     28c:	02066005 	andeq	r6, r6, #5
     290:	00880000 	addeq	r0, r8, r0
     294:	0256040d 	subseq	r0, r6, #218103808	; 0xd000000
     298:	aa080000 	bge	2002a0 <__bss_end__+0x1f6230>
     29c:	aa000002 	bge	2ac <_start-0x7d54>
     2a0:	09000002 	stmdbeq	r0, {r1}
     2a4:	000000c7 	andeq	r0, r0, r7, asr #1
     2a8:	040d001f 	streq	r0, [sp], #-31	; 0xffffffe1
     2ac:	000002b0 			; <UNDEFINED> instruction: 0x000002b0
     2b0:	031a0f13 	tsteq	sl, #19, 30	; 0x4c
     2b4:	05080000 	streq	r0, [r8, #-0]
     2b8:	0002d673 	andeq	sp, r2, r3, ror r6
     2bc:	00be0b00 	adcseq	r0, lr, r0, lsl #22
     2c0:	74050000 	strvc	r0, [r5], #-0
     2c4:	000002d6 	ldrdeq	r0, [r0], -r6
     2c8:	001b0b00 	andseq	r0, fp, r0, lsl #22
     2cc:	75050000 	strvc	r0, [r5, #-0]
     2d0:	00000025 	andeq	r0, r0, r5, lsr #32
     2d4:	040d0004 	streq	r0, [sp], #-4
     2d8:	0000004f 	andeq	r0, r0, pc, asr #32
     2dc:	0003390f 	andeq	r3, r3, pc, lsl #18
     2e0:	b3056800 	movwlt	r6, #22528	; 0x5800
     2e4:	00000406 	andeq	r0, r0, r6, lsl #8
     2e8:	00705f10 	rsbseq	r5, r0, r0, lsl pc
     2ec:	02d6b405 	sbcseq	fp, r6, #83886080	; 0x5000000
     2f0:	10000000 	andne	r0, r0, r0
     2f4:	0500725f 	streq	r7, [r0, #-607]	; 0xfffffda1
     2f8:	000025b5 			; <UNDEFINED> instruction: 0x000025b5
     2fc:	5f100400 	svcpl	0x00100400
     300:	b6050077 			; <UNDEFINED> instruction: 0xb6050077
     304:	00000025 	andeq	r0, r0, r5, lsr #32
     308:	01220b08 			; <UNDEFINED> instruction: 0x01220b08
     30c:	b7050000 	strlt	r0, [r5, -r0]
     310:	0000003a 	andeq	r0, r0, sl, lsr r0
     314:	020b0b0c 	andeq	r0, fp, #12, 22	; 0x3000
     318:	b8050000 	stmdalt	r5, {}	; <UNPREDICTABLE>
     31c:	0000003a 	andeq	r0, r0, sl, lsr r0
     320:	625f100e 	subsvs	r1, pc, #14
     324:	b9050066 	stmdblt	r5, {r1, r2, r5, r6}
     328:	000002b1 			; <UNDEFINED> instruction: 0x000002b1
     32c:	007b0b10 	rsbseq	r0, fp, r0, lsl fp
     330:	ba050000 	blt	140338 <__bss_end__+0x1362c8>
     334:	00000025 	andeq	r0, r0, r5, lsr #32
     338:	01120b18 	tsteq	r2, r8, lsl fp
     33c:	c1050000 	mrsgt	r0, (UNDEF: 5)
     340:	00000105 	andeq	r0, r0, r5, lsl #2
     344:	0a780b1c 	beq	1e02fbc <__bss_end__+0x1df8f4c>
     348:	c3050000 	movwgt	r0, #20480	; 0x5000
     34c:	00000561 	andeq	r0, r0, r1, ror #10
     350:	060c0b20 	streq	r0, [ip], -r0, lsr #22
     354:	c5050000 	strgt	r0, [r5, #-0]
     358:	0000058b 	andeq	r0, r0, fp, lsl #11
     35c:	03ab0b24 			; <UNDEFINED> instruction: 0x03ab0b24
     360:	c8050000 	stmdagt	r5, {}	; <UNPREDICTABLE>
     364:	000005af 	andeq	r0, r0, pc, lsr #11
     368:	05030b28 	streq	r0, [r3, #-2856]	; 0xfffff4d8
     36c:	c9050000 	stmdbgt	r5, {}	; <UNPREDICTABLE>
     370:	000005c9 	andeq	r0, r0, r9, asr #11
     374:	755f102c 	ldrbvc	r1, [pc, #-44]	; 350 <_start-0x7cb0>
     378:	cc050062 	stcgt	0, cr0, [r5], {98}	; 0x62
     37c:	000002b1 			; <UNDEFINED> instruction: 0x000002b1
     380:	755f1030 	ldrbvc	r1, [pc, #-48]	; 358 <_start-0x7ca8>
     384:	cd050070 	stcgt	0, cr0, [r5, #-448]	; 0xfffffe40
     388:	000002d6 	ldrdeq	r0, [r0], -r6
     38c:	755f1038 	ldrbvc	r1, [pc, #-56]	; 35c <_start-0x7ca4>
     390:	ce050072 	mcrgt	0, 0, r0, cr5, cr2, {3}
     394:	00000025 	andeq	r0, r0, r5, lsr #32
     398:	00b80b3c 	adcseq	r0, r8, ip, lsr fp
     39c:	d1050000 	mrsle	r0, (UNDEF: 5)
     3a0:	000005cf 	andeq	r0, r0, pc, asr #11
     3a4:	04db0b40 	ldrbeq	r0, [fp], #2880	; 0xb40
     3a8:	d2050000 	andle	r0, r5, #0
     3ac:	000005df 	ldrdeq	r0, [r0], -pc	; <UNPREDICTABLE>
     3b0:	6c5f1043 	mrrcvs	0, 4, r1, pc, cr3	; <UNPREDICTABLE>
     3b4:	d5050062 	strle	r0, [r5, #-98]	; 0xffffff9e
     3b8:	000002b1 			; <UNDEFINED> instruction: 0x000002b1
     3bc:	01400b44 	cmpeq	r0, r4, asr #22
     3c0:	d8050000 	stmdale	r5, {}	; <UNPREDICTABLE>
     3c4:	00000025 	andeq	r0, r0, r5, lsr #32
     3c8:	01510b4c 	cmpeq	r1, ip, asr #22
     3cc:	d9050000 	stmdble	r5, {}	; <UNPREDICTABLE>
     3d0:	00000076 	andeq	r0, r0, r6, ror r0
     3d4:	0a190b50 	beq	64311c <__bss_end__+0x6390ac>
     3d8:	dc050000 	stcle	0, cr0, [r5], {-0}
     3dc:	00000424 	andeq	r0, r0, r4, lsr #8
     3e0:	02760b54 	rsbseq	r0, r6, #84, 22	; 0x15000
     3e4:	e0050000 	and	r0, r5, r0
     3e8:	000000fa 	strdeq	r0, [r0], -sl
     3ec:	03410b58 	movteq	r0, #7000	; 0x1b58
     3f0:	e2050000 	and	r0, r5, #0
     3f4:	000000ef 	andeq	r0, r0, pc, ror #1
     3f8:	027c0b5c 	rsbseq	r0, ip, #92, 22	; 0x17000
     3fc:	e3050000 	movw	r0, #20480	; 0x5000
     400:	00000025 	andeq	r0, r0, r5, lsr #32
     404:	25140064 	ldrcs	r0, [r4, #-100]	; 0xffffff9c
     408:	24000000 	strcs	r0, [r0], #-0
     40c:	15000004 	strne	r0, [r0, #-4]
     410:	00000424 	andeq	r0, r0, r4, lsr #8
     414:	00010515 	andeq	r0, r1, r5, lsl r5
     418:	01071500 	tsteq	r7, r0, lsl #10
     41c:	25150000 	ldrcs	r0, [r5, #-0]
     420:	00000000 	andeq	r0, r0, r0
     424:	042f040d 	strteq	r0, [pc], #-1037	; 42c <_start-0x7bd4>
     428:	240e0000 	strcs	r0, [lr], #-0
     42c:	16000004 	strne	r0, [r0], -r4
     430:	0000038e 	andeq	r0, r0, lr, lsl #7
     434:	38050428 	stmdacc	r5, {r3, r5, sl}
     438:	00056102 	andeq	r6, r5, r2, lsl #2
     43c:	02ff1700 	rscseq	r1, pc, #0, 14
     440:	3a050000 	bcc	140448 <__bss_end__+0x1363d8>
     444:	00002502 	andeq	r2, r0, r2, lsl #10
     448:	31170000 	tstcc	r7, r0
     44c:	05000001 	streq	r0, [r0, #-1]
     450:	0636023f 			; <UNDEFINED> instruction: 0x0636023f
     454:	17040000 	strne	r0, [r4, -r0]
     458:	000001fb 	strdeq	r0, [r0], -fp
     45c:	36023f05 	strcc	r3, [r2], -r5, lsl #30
     460:	08000006 	stmdaeq	r0, {r1, r2}
     464:	0001ab17 	andeq	sl, r1, r7, lsl fp
     468:	023f0500 	eorseq	r0, pc, #0, 10
     46c:	00000636 	andeq	r0, r0, r6, lsr r6
     470:	0362170c 	cmneq	r2, #12, 14	; 0x300000
     474:	41050000 	mrsmi	r0, (UNDEF: 5)
     478:	00002502 	andeq	r2, r0, r2, lsl #10
     47c:	29171000 	ldmdbcs	r7, {ip}
     480:	05000000 	streq	r0, [r0, #-0]
     484:	08180242 	ldmdaeq	r8, {r1, r6, r9}
     488:	17140000 	ldrne	r0, [r4, -r0]
     48c:	0000047b 	andeq	r0, r0, fp, ror r4
     490:	25024405 	strcs	r4, [r2, #-1029]	; 0xfffffbfb
     494:	30000000 	andcc	r0, r0, r0
     498:	00036c17 	andeq	r6, r3, r7, lsl ip
     49c:	02450500 	subeq	r0, r5, #0, 10
     4a0:	00000585 	andeq	r0, r0, r5, lsl #11
     4a4:	02bc1734 	adcseq	r1, ip, #52, 14	; 0xd00000
     4a8:	47050000 	strmi	r0, [r5, -r0]
     4ac:	00002502 	andeq	r2, r0, r2, lsl #10
     4b0:	7c173800 	ldcvc	8, cr3, [r7], {-0}
     4b4:	05000003 	streq	r0, [r0, #-3]
     4b8:	08330249 	ldmdaeq	r3!, {r0, r3, r6, r9}
     4bc:	173c0000 	ldrne	r0, [ip, -r0]!
     4c0:	0000025a 	andeq	r0, r0, sl, asr r2
     4c4:	77024c05 	strvc	r4, [r2, -r5, lsl #24]
     4c8:	40000001 	andmi	r0, r0, r1
     4cc:	0001ca17 	andeq	ip, r1, r7, lsl sl
     4d0:	024d0500 	subeq	r0, sp, #0, 10
     4d4:	00000025 	andeq	r0, r0, r5, lsr #32
     4d8:	051d1744 	ldreq	r1, [sp, #-1860]	; 0xfffff8bc
     4dc:	4e050000 	cdpmi	0, 0, cr0, cr5, cr0, {0}
     4e0:	00017702 	andeq	r7, r1, r2, lsl #14
     4e4:	ce174800 	cdpgt	8, 1, cr4, cr7, cr0, {0}
     4e8:	05000002 	streq	r0, [r0, #-2]
     4ec:	0839024f 	ldmdaeq	r9!, {r0, r1, r2, r3, r6, r9}
     4f0:	174c0000 	strbne	r0, [ip, -r0]
     4f4:	00000203 	andeq	r0, r0, r3, lsl #4
     4f8:	25025205 	strcs	r5, [r2, #-517]	; 0xfffffdfb
     4fc:	50000000 	andpl	r0, r0, r0
     500:	00014917 	andeq	r4, r1, r7, lsl r9
     504:	02530500 	subseq	r0, r3, #0, 10
     508:	00000107 	andeq	r0, r0, r7, lsl #2
     50c:	02f81754 	rscseq	r1, r8, #84, 14	; 0x1500000
     510:	76050000 	strvc	r0, [r5], -r0
     514:	0007f602 	andeq	pc, r7, r2, lsl #12
     518:	b4185800 	ldrlt	r5, [r8], #-2048	; 0xfffff800
     51c:	05000002 	streq	r0, [r0, #-2]
     520:	0294027a 	addseq	r0, r4, #-1610612729	; 0xa0000007
     524:	01480000 	mrseq	r0, (UNDEF: 72)
     528:	00023818 	andeq	r3, r2, r8, lsl r8
     52c:	027b0500 	rsbseq	r0, fp, #0, 10
     530:	00000256 	andeq	r0, r0, r6, asr r2
     534:	c918014c 	ldmdbgt	r8, {r2, r3, r6, r8}
     538:	05000004 	streq	r0, [r0, #-4]
     53c:	084a027f 	stmdaeq	sl, {r0, r1, r2, r3, r4, r5, r6, r9}^
     540:	02dc0000 	sbcseq	r0, ip, #0
     544:	00011a18 	andeq	r1, r1, r8, lsl sl
     548:	02840500 	addeq	r0, r4, #0, 10
     54c:	000005fb 	strdeq	r0, [r0], -fp
     550:	ff1802e0 			; <UNDEFINED> instruction: 0xff1802e0
     554:	05000000 	streq	r0, [r0, #-0]
     558:	08560285 	ldmdaeq	r6, {r0, r2, r7, r9}^
     55c:	02ec0000 	rsceq	r0, ip, #0
     560:	06040d00 	streq	r0, [r4], -r0, lsl #26
     564:	14000004 	strne	r0, [r0], #-4
     568:	00000025 	andeq	r0, r0, r5, lsr #32
     56c:	00000585 	andeq	r0, r0, r5, lsl #11
     570:	00042415 	andeq	r2, r4, r5, lsl r4
     574:	01051500 	tsteq	r5, r0, lsl #10
     578:	85150000 	ldrhi	r0, [r5, #-0]
     57c:	15000005 	strne	r0, [r0, #-5]
     580:	00000025 	andeq	r0, r0, r5, lsr #32
     584:	14040d00 	strne	r0, [r4], #-3328	; 0xfffff300
     588:	0d000001 	stceq	0, cr0, [r0, #-4]
     58c:	00056704 	andeq	r6, r5, r4, lsl #14
     590:	00811400 	addeq	r1, r1, r0, lsl #8
     594:	05af0000 	streq	r0, [pc, #0]!	; 59c <_start-0x7a64>
     598:	24150000 	ldrcs	r0, [r5], #-0
     59c:	15000004 	strne	r0, [r0, #-4]
     5a0:	00000105 	andeq	r0, r0, r5, lsl #2
     5a4:	00008115 	andeq	r8, r0, r5, lsl r1
     5a8:	00251500 	eoreq	r1, r5, r0, lsl #10
     5ac:	0d000000 	stceq	0, cr0, [r0, #-0]
     5b0:	00059104 	andeq	r9, r5, r4, lsl #2
     5b4:	00251400 	eoreq	r1, r5, r0, lsl #8
     5b8:	05c90000 	strbeq	r0, [r9]
     5bc:	24150000 	ldrcs	r0, [r5], #-0
     5c0:	15000004 	strne	r0, [r0, #-4]
     5c4:	00000105 	andeq	r0, r0, r5, lsl #2
     5c8:	b5040d00 	strlt	r0, [r4, #-3328]	; 0xfffff300
     5cc:	08000005 	stmdaeq	r0, {r0, r2}
     5d0:	0000004f 	andeq	r0, r0, pc, asr #32
     5d4:	000005df 	ldrdeq	r0, [r0], -pc	; <UNPREDICTABLE>
     5d8:	0000c709 	andeq	ip, r0, r9, lsl #14
     5dc:	08000200 	stmdaeq	r0, {r9}
     5e0:	0000004f 	andeq	r0, r0, pc, asr #32
     5e4:	000005ef 	andeq	r0, r0, pc, ror #11
     5e8:	0000c709 	andeq	ip, r0, r9, lsl #14
     5ec:	05000000 	streq	r0, [r0, #-0]
     5f0:	00000327 	andeq	r0, r0, r7, lsr #6
     5f4:	dc011d05 	stcle	13, cr1, [r1], {5}
     5f8:	19000002 	stmdbne	r0, {r1}
     5fc:	000004b0 			; <UNDEFINED> instruction: 0x000004b0
     600:	0121050c 			; <UNDEFINED> instruction: 0x0121050c
     604:	00000630 	andeq	r0, r0, r0, lsr r6
     608:	00034f17 	andeq	r4, r3, r7, lsl pc
     60c:	01230500 			; <UNDEFINED> instruction: 0x01230500
     610:	00000630 	andeq	r0, r0, r0, lsr r6
     614:	021e1700 	andseq	r1, lr, #0, 14
     618:	24050000 	strcs	r0, [r5], #-0
     61c:	00002501 	andeq	r2, r0, r1, lsl #10
     620:	21170400 	tstcs	r7, r0, lsl #8
     624:	05000003 	streq	r0, [r0, #-3]
     628:	06360125 	ldrteq	r0, [r6], -r5, lsr #2
     62c:	00080000 	andeq	r0, r8, r0
     630:	05fb040d 	ldrbeq	r0, [fp, #1037]!	; 0x40d
     634:	040d0000 	streq	r0, [sp], #-0
     638:	000005ef 	andeq	r0, r0, pc, ror #11
     63c:	00002119 	andeq	r2, r0, r9, lsl r1
     640:	3d050e00 	stccc	14, cr0, [r5, #-0]
     644:	00067101 	andeq	r7, r6, r1, lsl #2
     648:	03951700 	orrseq	r1, r5, #0, 14
     64c:	3e050000 	cdpcc	0, 0, cr0, cr5, cr0, {0}
     650:	00067101 	andeq	r7, r6, r1, lsl #2
     654:	c2170000 	andsgt	r0, r7, #0
     658:	05000003 	streq	r0, [r0, #-3]
     65c:	0671013f 			; <UNDEFINED> instruction: 0x0671013f
     660:	17060000 	strne	r0, [r6, -r0]
     664:	00000440 	andeq	r0, r0, r0, asr #8
     668:	56014005 	strpl	r4, [r1], -r5
     66c:	0c000000 	stceq	0, cr0, [r0], {-0}
     670:	00560800 	subseq	r0, r6, r0, lsl #16
     674:	06810000 	streq	r0, [r1], r0
     678:	c7090000 	strgt	r0, [r9, -r0]
     67c:	02000000 	andeq	r0, r0, #0
     680:	05d01a00 	ldrbeq	r1, [r0, #2560]	; 0xa00
     684:	07820257 			; <UNDEFINED> instruction: 0x07820257
     688:	94170000 	ldrls	r0, [r7], #-0
     68c:	05000004 	streq	r0, [r0, #-4]
     690:	002c0259 	eoreq	r0, ip, r9, asr r2
     694:	17000000 	strne	r0, [r0, -r0]
     698:	0000042a 	andeq	r0, r0, sl, lsr #8
     69c:	07025a05 	streq	r5, [r2, -r5, lsl #20]
     6a0:	04000001 	streq	r0, [r0], #-1
     6a4:	00024d17 	andeq	r4, r2, r7, lsl sp
     6a8:	025b0500 	subseq	r0, fp, #0, 10
     6ac:	00000782 	andeq	r0, r0, r2, lsl #15
     6b0:	04f41708 	ldrbteq	r1, [r4], #1800	; 0x708
     6b4:	5c050000 	stcpl	0, cr0, [r5], {-0}
     6b8:	00018d02 	andeq	r8, r1, r2, lsl #26
     6bc:	bb172400 	bllt	5c96c4 <__bss_end__+0x5bf654>
     6c0:	05000001 	streq	r0, [r0, #-1]
     6c4:	0025025d 	eoreq	r0, r5, sp, asr r2
     6c8:	17480000 	strbne	r0, [r8, -r0]
     6cc:	0000034a 	andeq	r0, r0, sl, asr #6
     6d0:	64025e05 	strvs	r5, [r2], #-3589	; 0xfffff1fb
     6d4:	50000000 	andpl	r0, r0, r0
     6d8:	00050a17 	andeq	r0, r5, r7, lsl sl
     6dc:	025f0500 	subseq	r0, pc, #0, 10
     6e0:	0000063c 	andeq	r0, r0, ip, lsr r6
     6e4:	03551758 	cmpeq	r5, #88, 14	; 0x1600000
     6e8:	60050000 	andvs	r0, r5, r0
     6ec:	0000ef02 	andeq	lr, r0, r2, lsl #30
     6f0:	0f176800 	svceq	0x00176800
     6f4:	05000005 	streq	r0, [r0, #-5]
     6f8:	00ef0261 	rsceq	r0, pc, r1, ror #4
     6fc:	17700000 	ldrbne	r0, [r0, -r0]!
     700:	00000093 	muleq	r0, r3, r0
     704:	ef026205 	svc	0x00026205
     708:	78000000 	stmdavc	r0, {}	; <UNPREDICTABLE>
     70c:	0004bf17 	andeq	fp, r4, r7, lsl pc
     710:	02630500 	rsbeq	r0, r3, #0, 10
     714:	00000792 	muleq	r0, r2, r7
     718:	02411780 	subeq	r1, r1, #128, 14	; 0x2000000
     71c:	64050000 	strvs	r0, [r5], #-0
     720:	0007a202 	andeq	sl, r7, r2, lsl #4
     724:	4d178800 	ldcmi	8, cr8, [r7, #-0]
     728:	05000004 	streq	r0, [r0, #-4]
     72c:	00250265 	eoreq	r0, r5, r5, ror #4
     730:	17a00000 	strne	r0, [r0, r0]!
     734:	00000181 	andeq	r0, r0, r1, lsl #3
     738:	ef026605 	svc	0x00026605
     73c:	a4000000 	strge	r0, [r0], #-0
     740:	00008417 	andeq	r8, r0, r7, lsl r4
     744:	02670500 	rsbeq	r0, r7, #0, 10
     748:	000000ef 	andeq	r0, r0, pc, ror #1
     74c:	017017ac 	cmneq	r0, ip, lsr #15
     750:	68050000 	stmdavs	r5, {}	; <UNPREDICTABLE>
     754:	0000ef02 	andeq	lr, r0, r2, lsl #30
     758:	3c17b400 	cfldrscc	mvf11, [r7], {-0}
     75c:	05000000 	streq	r0, [r0, #-0]
     760:	00ef0269 	rsceq	r0, pc, r9, ror #4
     764:	17bc0000 	ldrne	r0, [ip, r0]!
     768:	0000004b 	andeq	r0, r0, fp, asr #32
     76c:	ef026a05 	svc	0x00026a05
     770:	c4000000 	strgt	r0, [r0], #-0
     774:	0002fd17 	andeq	pc, r2, r7, lsl sp	; <UNPREDICTABLE>
     778:	026b0500 	rsbeq	r0, fp, #0, 10
     77c:	00000025 	andeq	r0, r0, r5, lsr #32
     780:	0d0800cc 	stceq	0, cr0, [r8, #-816]	; 0xfffffcd0
     784:	92000001 	andls	r0, r0, #1
     788:	09000007 	stmdbeq	r0, {r0, r1, r2}
     78c:	000000c7 	andeq	r0, r0, r7, asr #1
     790:	0d080019 	stceq	0, cr0, [r8, #-100]	; 0xffffff9c
     794:	a2000001 	andge	r0, r0, #1
     798:	09000007 	stmdbeq	r0, {r0, r1, r2}
     79c:	000000c7 	andeq	r0, r0, r7, asr #1
     7a0:	0d080007 	stceq	0, cr0, [r8, #-28]	; 0xffffffe4
     7a4:	b2000001 	andlt	r0, r0, #1
     7a8:	09000007 	stmdbeq	r0, {r0, r1, r2}
     7ac:	000000c7 	andeq	r0, r0, r7, asr #1
     7b0:	f01a0017 			; <UNDEFINED> instruction: 0xf01a0017
     7b4:	d6027005 	strle	r7, [r2], -r5
     7b8:	17000007 	strne	r0, [r0, -r7]
     7bc:	000002a4 	andeq	r0, r0, r4, lsr #5
     7c0:	d6027305 	strle	r7, [r2], -r5, lsl #6
     7c4:	00000007 	andeq	r0, r0, r7
     7c8:	0004b617 	andeq	fp, r4, r7, lsl r6
     7cc:	02740500 	rsbseq	r0, r4, #0, 10
     7d0:	000007e6 	andeq	r0, r0, r6, ror #15
     7d4:	d6080078 			; <UNDEFINED> instruction: 0xd6080078
     7d8:	e6000002 	str	r0, [r0], -r2
     7dc:	09000007 	stmdbeq	r0, {r0, r1, r2}
     7e0:	000000c7 	andeq	r0, r0, r7, asr #1
     7e4:	2c08001d 	stccs	0, cr0, [r8], {29}
     7e8:	f6000000 			; <UNDEFINED> instruction: 0xf6000000
     7ec:	09000007 	stmdbeq	r0, {r0, r1, r2}
     7f0:	000000c7 	andeq	r0, r0, r7, asr #1
     7f4:	f01b001d 			; <UNDEFINED> instruction: 0xf01b001d
     7f8:	18025505 	stmdane	r2, {r0, r2, r8, sl, ip, lr}
     7fc:	1c000008 	stcne	0, cr0, [r0], {8}
     800:	0000038e 	andeq	r0, r0, lr, lsl #7
     804:	81026c05 	tsthi	r2, r5, lsl #24
     808:	1c000006 	stcne	0, cr0, [r0], {6}
     80c:	000004e1 	andeq	r0, r0, r1, ror #9
     810:	b2027505 	andlt	r7, r2, #20971520	; 0x1400000
     814:	00000007 	andeq	r0, r0, r7
     818:	00010d08 	andeq	r0, r1, r8, lsl #26
     81c:	00082800 	andeq	r2, r8, r0, lsl #16
     820:	00c70900 	sbceq	r0, r7, r0, lsl #18
     824:	00180000 	andseq	r0, r8, r0
     828:	0008331d 	andeq	r3, r8, sp, lsl r3
     82c:	04241500 	strteq	r1, [r4], #-1280	; 0xfffffb00
     830:	0d000000 	stceq	0, cr0, [r0, #-0]
     834:	00082804 	andeq	r2, r8, r4, lsl #16
     838:	77040d00 	strvc	r0, [r4, -r0, lsl #26]
     83c:	1d000001 	stcne	0, cr0, [r0, #-4]
     840:	0000084a 	andeq	r0, r0, sl, asr #16
     844:	00002515 	andeq	r2, r0, r5, lsl r5
     848:	040d0000 	streq	r0, [sp], #-0
     84c:	00000850 	andeq	r0, r0, r0, asr r8
     850:	083f040d 	ldmdaeq	pc!, {r0, r2, r3, sl}	; <UNPREDICTABLE>
     854:	ef080000 	svc	0x00080000
     858:	66000005 	strvs	r0, [r0], -r5
     85c:	09000008 	stmdbeq	r0, {r3}
     860:	000000c7 	andeq	r0, r0, r7, asr #1
     864:	6f1e0002 	svcvs	0x001e0002
     868:	05000004 	streq	r0, [r0, #-4]
     86c:	042402fd 	strteq	r0, [r4], #-765	; 0xfffffd03
     870:	681e0000 	ldmdavs	lr, {}	; <UNPREDICTABLE>
     874:	05000004 	streq	r0, [r0, #-4]
     878:	042a02fe 	strteq	r0, [sl], #-766	; 0xfffffd02
     87c:	25140000 	ldrcs	r0, [r4, #-0]
     880:	8d000000 	stchi	0, cr0, [r0, #-0]
     884:	15000008 	strne	r0, [r0, #-8]
     888:	00000025 	andeq	r0, r0, r5, lsr #32
     88c:	01d41f00 	bicseq	r1, r4, r0, lsl #30
     890:	1d060000 	stcne	0, cr0, [r6, #-0]
     894:	00000898 	muleq	r0, r8, r8
     898:	087e040d 	ldmdaeq	lr!, {r0, r2, r3, sl}^
     89c:	25140000 	ldrcs	r0, [r4, #-0]
     8a0:	ad000000 	stcge	0, cr0, [r0, #-0]
     8a4:	15000008 	strne	r0, [r0, #-8]
     8a8:	00000585 	andeq	r0, r0, r5, lsl #11
     8ac:	07691f00 	strbeq	r1, [r9, -r0, lsl #30]!
     8b0:	22060000 	andcs	r0, r6, #0
     8b4:	000008b8 			; <UNDEFINED> instruction: 0x000008b8
     8b8:	089e040d 	ldmeq	lr, {r0, r2, r3, sl}
     8bc:	34200000 	strtcc	r0, [r0], #-0
     8c0:	01000000 	mrseq	r0, (UNDEF: 0)
     8c4:	00801005 	addeq	r1, r0, r5
     8c8:	0000fc00 	andeq	pc, r0, r0, lsl #24
     8cc:	9c9c0100 	ldflss	f0, [ip], {0}
     8d0:	2100000a 	tstcs	r0, sl
     8d4:	0a01006e 	beq	40a94 <__bss_end__+0x36a24>
     8d8:	0000002c 	andeq	r0, r0, ip, lsr #32
     8dc:	00100000 	andseq	r0, r0, r0
     8e0:	01007022 	tsteq	r0, r2, lsr #32
     8e4:	0001070d 	andeq	r0, r1, sp, lsl #14
     8e8:	00000000 	andeq	r0, r0, r0
     8ec:	02112300 	andseq	r2, r1, #0, 6
     8f0:	0aac0000 	beq	feb008f8 <__bss_end__+0xfeaf6888>
     8f4:	03050000 	movweq	r0, #20480	; 0x5000
     8f8:	00009694 	muleq	r0, r4, r6
     8fc:	00801c24 	addeq	r1, r0, r4, lsr #24
     900:	000ab100 	andeq	fp, sl, r0, lsl #2
     904:	00091300 	andeq	r1, r9, r0, lsl #6
     908:	50012500 	andpl	r2, r1, r0, lsl #10
     90c:	969c0305 	ldrls	r0, [ip], r5, lsl #6
     910:	24000000 	strcs	r0, [r0], #-0
     914:	00008024 	andeq	r8, r0, r4, lsr #32
     918:	00000abc 			; <UNDEFINED> instruction: 0x00000abc
     91c:	00000928 	andeq	r0, r0, r8, lsr #18
     920:	03500125 	cmpeq	r0, #1073741833	; 0x40000009
     924:	00244040 	eoreq	r4, r4, r0, asr #32
     928:	00802c24 	addeq	r2, r0, r4, lsr #24
     92c:	000ac700 	andeq	ip, sl, r0, lsl #14
     930:	00093d00 	andeq	r3, r9, r0, lsl #26
     934:	50012500 	andpl	r2, r1, r0, lsl #10
     938:	24404003 	strbcs	r4, [r0], #-3
     93c:	80342400 	eorshi	r2, r4, r0, lsl #8
     940:	0ad20000 	beq	ff480948 <__bss_end__+0xff4768d8>
     944:	09520000 	ldmdbeq	r2, {}^	; <UNPREDICTABLE>
     948:	01250000 			; <UNDEFINED> instruction: 0x01250000
     94c:	40400351 	submi	r0, r0, r1, asr r3
     950:	50240024 	eorpl	r0, r4, r4, lsr #32
     954:	dd000080 	stcle	0, cr0, [r0, #-512]	; 0xfffffe00
     958:	7600000a 	strvc	r0, [r0], -sl
     95c:	25000009 	strcs	r0, [r0, #-9]
     960:	34015001 	strcc	r5, [r1], #-1
     964:	02510125 	subseq	r0, r1, #1073741833	; 0x40000009
     968:	01250074 			; <UNDEFINED> instruction: 0x01250074
     96c:	00750252 	rsbseq	r0, r5, r2, asr r2
     970:	01530125 	cmpeq	r3, r5, lsr #2
     974:	6024003d 	eorvs	r0, r4, sp, lsr r0
     978:	e8000080 	stmda	r0, {r7}
     97c:	9400000a 	strls	r0, [r0], #-10
     980:	25000009 	strcs	r0, [r0, #-9]
     984:	76025001 	strvc	r5, [r2], -r1
     988:	51012500 	tstpl	r1, r0, lsl #10
     98c:	01253001 			; <UNDEFINED> instruction: 0x01253001
     990:	00340152 	eorseq	r0, r4, r2, asr r1
     994:	00807424 	addeq	r7, r0, r4, lsr #8
     998:	000af300 	andeq	pc, sl, r0, lsl #6
     99c:	0009b900 	andeq	fp, r9, r0, lsl #18
     9a0:	50012500 	andpl	r2, r1, r0, lsl #10
     9a4:	25007602 	strcs	r7, [r0, #-1538]	; 0xfffff9fe
     9a8:	74025101 	strvc	r5, [r2], #-257	; 0xfffffeff
     9ac:	52012500 	andpl	r2, r1, #0, 10
     9b0:	25007502 	strcs	r7, [r0, #-1282]	; 0xfffffafe
     9b4:	3f015301 	svccc	0x00015301
     9b8:	80782600 	rsbshi	r2, r8, r0, lsl #12
     9bc:	0afe0000 	beq	fff809c4 <__bss_end__+0xfff76954>
     9c0:	88240000 	stmdahi	r4!, {}	; <UNPREDICTABLE>
     9c4:	b1000080 	smlabblt	r0, r0, r0, r0
     9c8:	d900000a 	stmdble	r0, {r1, r3}
     9cc:	25000009 	strcs	r0, [r0, #-9]
     9d0:	03055001 	movweq	r5, #20481	; 0x5001
     9d4:	000096e8 	andeq	r9, r0, r8, ror #13
     9d8:	80902400 	addshi	r2, r0, r0, lsl #8
     9dc:	0ab10000 	beq	fec409e4 <__bss_end__+0xfec36974>
     9e0:	09f00000 	ldmibeq	r0!, {}^	; <UNPREDICTABLE>
     9e4:	01250000 			; <UNDEFINED> instruction: 0x01250000
     9e8:	f0030550 			; <UNDEFINED> instruction: 0xf0030550
     9ec:	00000096 	muleq	r0, r6, r0
     9f0:	00809c26 	addeq	r9, r0, r6, lsr #24
     9f4:	000afe00 	andeq	pc, sl, r0, lsl #28
     9f8:	80ac2400 	adchi	r2, ip, r0, lsl #8
     9fc:	0ab10000 	beq	fec40a04 <__bss_end__+0xfec36994>
     a00:	0a100000 	beq	400a08 <__bss_end__+0x3f6998>
     a04:	01250000 			; <UNDEFINED> instruction: 0x01250000
     a08:	e8030550 	stmda	r3, {r4, r6, r8, sl}
     a0c:	00000096 	muleq	r0, r6, r0
     a10:	0080b424 	addeq	fp, r0, r4, lsr #8
     a14:	000ab100 	andeq	fp, sl, r0, lsl #2
     a18:	000a2700 	andeq	r2, sl, r0, lsl #14
     a1c:	50012500 	andpl	r2, r1, r0, lsl #10
     a20:	970c0305 	strls	r0, [ip, -r5, lsl #6]
     a24:	26000000 	strcs	r0, [r0], -r0
     a28:	000080bc 	strheq	r8, [r0], -ip
     a2c:	00000b09 	andeq	r0, r0, r9, lsl #22
     a30:	0080d024 	addeq	sp, r0, r4, lsr #32
     a34:	000ab100 	andeq	fp, sl, r0, lsl #2
     a38:	000a5800 	andeq	r5, sl, r0, lsl #16
     a3c:	50012500 	andpl	r2, r1, r0, lsl #10
     a40:	96c40305 	strbls	r0, [r4], r5, lsl #6
     a44:	01250000 			; <UNDEFINED> instruction: 0x01250000
     a48:	00740251 	rsbseq	r0, r4, r1, asr r2
     a4c:	02520125 	subseq	r0, r2, #1073741833	; 0x40000009
     a50:	01250075 			; <UNDEFINED> instruction: 0x01250075
     a54:	00420153 	subeq	r0, r2, r3, asr r1
     a58:	0080d426 	addeq	sp, r0, r6, lsr #8
     a5c:	000b1400 	andeq	r1, fp, r0, lsl #8
     a60:	80d82600 	sbcshi	r2, r8, r0, lsl #12
     a64:	0b090000 	bleq	240a6c <__bss_end__+0x2369fc>
     a68:	ec240000 	stc	0, cr0, [r4], #-0
     a6c:	b1000080 	smlabblt	r0, r0, r0, r0
     a70:	9200000a 	andls	r0, r0, #10
     a74:	2500000a 	strcs	r0, [r0, #-10]
     a78:	03055001 	movweq	r5, #20481	; 0x5001
     a7c:	000096c4 	andeq	r9, r0, r4, asr #13
     a80:	02510125 	subseq	r0, r1, #1073741833	; 0x40000009
     a84:	01250074 			; <UNDEFINED> instruction: 0x01250074
     a88:	00750252 	rsbseq	r0, r5, r2, asr r2
     a8c:	01530125 	cmpeq	r3, r5, lsr #2
     a90:	f0260049 			; <UNDEFINED> instruction: 0xf0260049
     a94:	14000080 	strne	r0, [r0], #-128	; 0xffffff80
     a98:	0000000b 	andeq	r0, r0, fp
     a9c:	00011408 	andeq	r1, r1, r8, lsl #8
     aa0:	000aac00 	andeq	sl, sl, r0, lsl #24
     aa4:	00c70900 	sbceq	r0, r7, r0, lsl #18
     aa8:	00070000 	andeq	r0, r7, r0
     aac:	000a9c0e 	andeq	r9, sl, lr, lsl #24
     ab0:	06b52700 	ldrteq	r2, [r5], r0, lsl #14
     ab4:	06b50000 	ldrteq	r0, [r5], r0
     ab8:	29060000 	stmdbcs	r6, {}	; <UNPREDICTABLE>
     abc:	00015927 	andeq	r5, r1, r7, lsr #18
     ac0:	00015900 	andeq	r5, r1, r0, lsl #18
     ac4:	27720600 	ldrbcs	r0, [r2, -r0, lsl #12]!
     ac8:	000004d3 	ldrdeq	r0, [r0], -r3
     acc:	000004d3 	ldrdeq	r0, [r0], -r3
     ad0:	38276c06 	stmdacc	r7!, {r1, r2, sl, fp, sp, lr}
     ad4:	38000001 	stmdacc	r0, {r0}
     ad8:	07000001 	streq	r0, [r0, -r1]
     adc:	00732777 	rsbseq	r2, r3, r7, ror r7
     ae0:	00730000 	rsbseq	r0, r3, r0
     ae4:	74070000 	strvc	r0, [r7], #-0
     ae8:	00048d27 	andeq	r8, r4, r7, lsr #26
     aec:	00048d00 	andeq	r8, r4, r0, lsl #26
     af0:	27190800 	ldrcs	r0, [r9, -r0, lsl #16]
     af4:	0000026f 	andeq	r0, r0, pc, ror #4
     af8:	0000026f 	andeq	r0, r0, pc, ror #4
     afc:	0c277507 	cfstr32eq	mvfx7, [r7], #-28	; 0xffffffe4
     b00:	0c000000 	stceq	0, cr0, [r0], {-0}
     b04:	07000000 	streq	r0, [r0, -r0]
     b08:	01ec277d 	mvneq	r2, sp, ror r7
     b0c:	01ec0000 	mvneq	r0, r0
     b10:	1e060000 	cdpne	0, 0, cr0, cr6, cr0, {0}
     b14:	00028e27 	andeq	r8, r2, r7, lsr #28
     b18:	00028e00 	andeq	r8, r2, r0, lsl #28
     b1c:	00650600 	rsbeq	r0, r5, r0, lsl #12
     b20:	000017c9 	andeq	r1, r0, r9, asr #15
     b24:	02000004 	andeq	r0, r0, #4
     b28:	01040000 	mrseq	r0, (UNDEF: 4)
     b2c:	000003c8 	andeq	r0, r0, r8, asr #7
     b30:	0005c60c 	andeq	ip, r5, ip, lsl #12
     b34:	0000ce00 	andeq	ip, r0, r0, lsl #28
     b38:	00810c00 	addeq	r0, r1, r0, lsl #24
     b3c:	00087800 	andeq	r7, r8, r0, lsl #16
     b40:	00011300 	andeq	r1, r1, r0, lsl #6
     b44:	05040200 	streq	r0, [r4, #-512]	; 0xfffffe00
     b48:	00746e69 	rsbseq	r6, r4, r9, ror #28
     b4c:	66070403 	strvs	r0, [r7], -r3, lsl #8
     b50:	03000000 	movweq	r0, #0
     b54:	02ec0601 	rsceq	r0, ip, #1048576	; 0x100000
     b58:	02030000 	andeq	r0, r3, #0
     b5c:	00030605 	andeq	r0, r3, r5, lsl #12
     b60:	05040300 	streq	r0, [r4, #-768]	; 0xfffffd00
     b64:	000000af 	andeq	r0, r0, pc, lsr #1
     b68:	aa050803 	bge	142b7c <__bss_end__+0x138b0c>
     b6c:	04000000 	streq	r0, [r0], #-0
     b70:	00000679 	andeq	r0, r0, r9, ror r6
     b74:	005a2e03 	subseq	r2, sl, r3, lsl #28
     b78:	01030000 	mrseq	r0, (UNDEF: 3)
     b7c:	0002ea08 	andeq	lr, r2, r8, lsl #20
     b80:	07020300 	streq	r0, [r2, -r0, lsl #6]
     b84:	00000225 	andeq	r0, r0, r5, lsr #4
     b88:	00063704 	andeq	r3, r6, r4, lsl #14
     b8c:	73340300 	teqvc	r4, #0, 6
     b90:	03000000 	movweq	r0, #0
     b94:	00610704 	rsbeq	r0, r1, r4, lsl #14
     b98:	08030000 	stmdaeq	r3, {}	; <UNPREDICTABLE>
     b9c:	00005c07 	andeq	r5, r0, r7, lsl #24
     ba0:	02d80400 	sbcseq	r0, r8, #0, 8
     ba4:	07040000 	streq	r0, [r4, -r0]
     ba8:	00000025 	andeq	r0, r0, r5, lsr #32
     bac:	0002c704 	andeq	ip, r2, r4, lsl #14
     bb0:	412c0500 			; <UNDEFINED> instruction: 0x412c0500
     bb4:	04000000 	streq	r0, [r0], #-0
     bb8:	000003b1 			; <UNDEFINED> instruction: 0x000003b1
     bbc:	00417205 	subeq	r7, r1, r5, lsl #4
     bc0:	68050000 	stmdavs	r5, {}	; <UNPREDICTABLE>
     bc4:	06000002 	streq	r0, [r0], -r2
     bc8:	002c0165 	eoreq	r0, ip, r5, ror #2
     bcc:	04060000 	streq	r0, [r6], #-0
     bd0:	00cda605 	sbceq	sl, sp, r5, lsl #12
     bd4:	62070000 	andvs	r0, r7, #0
     bd8:	05000002 	streq	r0, [r0, #-2]
     bdc:	0000a2a8 	andeq	sl, r0, r8, lsr #5
     be0:	01e50700 	mvneq	r0, r0, lsl #14
     be4:	a9050000 	stmdbge	r5, {}	; <UNPREDICTABLE>
     be8:	000000cd 	andeq	r0, r0, sp, asr #1
     bec:	005a0800 	subseq	r0, sl, r0, lsl #16
     bf0:	00dd0000 	sbcseq	r0, sp, r0
     bf4:	dd090000 	stcle	0, cr0, [r9, #-0]
     bf8:	03000000 	movweq	r0, #0
     bfc:	07040300 	streq	r0, [r4, -r0, lsl #6]
     c00:	0000029b 	muleq	r0, fp, r2
     c04:	a305080a 	movwge	r0, #22538	; 0x580a
     c08:	00000105 	andeq	r0, r0, r5, lsl #2
     c0c:	00039b0b 	andeq	r9, r3, fp, lsl #22
     c10:	25a50500 	strcs	r0, [r5, #1280]!	; 0x500
     c14:	00000000 	andeq	r0, r0, r0
     c18:	0003a30b 	andeq	sl, r3, fp, lsl #6
     c1c:	aeaa0500 	cdpge	5, 10, cr0, cr10, cr0, {0}
     c20:	04000000 	streq	r0, [r0], #-0
     c24:	032e0400 			; <UNDEFINED> instruction: 0x032e0400
     c28:	ab050000 	blge	140c30 <__bss_end__+0x136bc0>
     c2c:	000000e4 	andeq	r0, r0, r4, ror #1
     c30:	0001a204 	andeq	sl, r1, r4, lsl #4
     c34:	81af0500 			; <UNDEFINED> instruction: 0x81af0500
     c38:	0c000000 	stceq	0, cr0, [r0], {-0}
     c3c:	23040d04 	movwcs	r0, #19716	; 0x4d04
     c40:	03000001 	movweq	r0, #1
     c44:	02f30801 	rscseq	r0, r3, #65536	; 0x10000
     c48:	230e0000 	movwcs	r0, #57344	; 0xe000
     c4c:	04000001 	streq	r0, [r0], #-1
     c50:	00000445 	andeq	r0, r0, r5, asr #8
     c54:	00731607 	rsbseq	r1, r3, r7, lsl #12
     c58:	b30f0000 	movwlt	r0, #61440	; 0xf000
     c5c:	18000001 	stmdane	r0, {r0}
     c60:	018d2d07 	orreq	r2, sp, r7, lsl #26
     c64:	4f0b0000 	svcmi	0x000b0000
     c68:	07000003 	streq	r0, [r0, -r3]
     c6c:	00018d2f 	andeq	r8, r1, pc, lsr #26
     c70:	5f100000 	svcpl	0x00100000
     c74:	3007006b 	andcc	r0, r7, fp, rrx
     c78:	00000025 	andeq	r0, r0, r5, lsr #32
     c7c:	03860b04 	orreq	r0, r6, #4, 22	; 0x1000
     c80:	30070000 	andcc	r0, r7, r0
     c84:	00000025 	andeq	r0, r0, r5, lsr #32
     c88:	019c0b08 	orrseq	r0, ip, r8, lsl #22
     c8c:	30070000 	andcc	r0, r7, r0
     c90:	00000025 	andeq	r0, r0, r5, lsr #32
     c94:	04a10b0c 	strteq	r0, [r1], #2828	; 0xb0c
     c98:	30070000 	andcc	r0, r7, r0
     c9c:	00000025 	andeq	r0, r0, r5, lsr #32
     ca0:	785f1010 	ldmdavc	pc, {r4, ip}^	; <UNPREDICTABLE>
     ca4:	93310700 	teqls	r1, #0, 14
     ca8:	14000001 	strne	r0, [r0], #-1
     cac:	3a040d00 	bcc	1040b4 <__bss_end__+0xfa044>
     cb0:	08000001 	stmdaeq	r0, {r0}
     cb4:	0000012f 	andeq	r0, r0, pc, lsr #2
     cb8:	000001a3 	andeq	r0, r0, r3, lsr #3
     cbc:	0000dd09 	andeq	sp, r0, r9, lsl #26
     cc0:	0f000000 	svceq	0x00000000
     cc4:	000001e0 	andeq	r0, r0, r0, ror #3
     cc8:	1c350724 	ldcne	7, cr0, [r5], #-144	; 0xffffff70
     ccc:	0b000002 	bleq	cdc <_start-0x7324>
     cd0:	000000a1 	andeq	r0, r0, r1, lsr #1
     cd4:	00253707 	eoreq	r3, r5, r7, lsl #14
     cd8:	0b000000 	bleq	ce0 <_start-0x7320>
     cdc:	000003b9 			; <UNDEFINED> instruction: 0x000003b9
     ce0:	00253807 	eoreq	r3, r5, r7, lsl #16
     ce4:	0b040000 	bleq	100cec <__bss_end__+0xf6c7c>
     ce8:	000000c4 	andeq	r0, r0, r4, asr #1
     cec:	00253907 	eoreq	r3, r5, r7, lsl #18
     cf0:	0b080000 	bleq	200cf8 <__bss_end__+0x1f6c88>
     cf4:	00000522 	andeq	r0, r0, r2, lsr #10
     cf8:	00253a07 	eoreq	r3, r5, r7, lsl #20
     cfc:	0b0c0000 	bleq	300d04 <__bss_end__+0x2f6c94>
     d00:	000002ab 	andeq	r0, r0, fp, lsr #5
     d04:	00253b07 	eoreq	r3, r5, r7, lsl #22
     d08:	0b100000 	bleq	400d10 <__bss_end__+0x3f6ca0>
     d0c:	00000284 	andeq	r0, r0, r4, lsl #5
     d10:	00253c07 	eoreq	r3, r5, r7, lsl #24
     d14:	0b140000 	bleq	500d1c <__bss_end__+0x4f6cac>
     d18:	000004a6 	andeq	r0, r0, r6, lsr #9
     d1c:	00253d07 	eoreq	r3, r5, r7, lsl #26
     d20:	0b180000 	bleq	600d28 <__bss_end__+0x5f6cb8>
     d24:	00000310 	andeq	r0, r0, r0, lsl r3
     d28:	00253e07 	eoreq	r3, r5, r7, lsl #28
     d2c:	0b1c0000 	bleq	700d34 <__bss_end__+0x6f6cc4>
     d30:	000004e9 	andeq	r0, r0, r9, ror #9
     d34:	00253f07 	eoreq	r3, r5, r7, lsl #30
     d38:	00200000 	eoreq	r0, r0, r0
     d3c:	00010411 	andeq	r0, r1, r1, lsl r4
     d40:	07010800 	streq	r0, [r1, -r0, lsl #16]
     d44:	00025c48 	andeq	r5, r2, r8, asr #24
     d48:	018f0b00 	orreq	r0, pc, r0, lsl #22
     d4c:	49070000 	stmdbmi	r7, {}	; <UNPREDICTABLE>
     d50:	0000025c 	andeq	r0, r0, ip, asr r2
     d54:	00000b00 	andeq	r0, r0, r0, lsl #22
     d58:	4a070000 	bmi	1c0d60 <__bss_end__+0x1b6cf0>
     d5c:	0000025c 	andeq	r0, r0, ip, asr r2
     d60:	04371280 	ldrteq	r1, [r7], #-640	; 0xfffffd80
     d64:	4c070000 	stcmi	0, cr0, [r7], {-0}
     d68:	0000012f 	andeq	r0, r0, pc, lsr #2
     d6c:	29120100 	ldmdbcs	r2, {r8}
     d70:	07000001 	streq	r0, [r0, -r1]
     d74:	00012f4f 	andeq	r2, r1, pc, asr #30
     d78:	00010400 	andeq	r0, r1, r0, lsl #8
     d7c:	00011b08 	andeq	r1, r1, r8, lsl #22
     d80:	00026c00 	andeq	r6, r2, r0, lsl #24
     d84:	00dd0900 	sbcseq	r0, sp, r0, lsl #18
     d88:	001f0000 	andseq	r0, pc, r0
     d8c:	0002b411 	andeq	fp, r2, r1, lsl r4
     d90:	07019000 	streq	r9, [r1, -r0]
     d94:	0002aa5b 	andeq	sl, r2, fp, asr sl
     d98:	034f0b00 	movteq	r0, #64256	; 0xfb00
     d9c:	5c070000 	stcpl	0, cr0, [r7], {-0}
     da0:	000002aa 	andeq	r0, r0, sl, lsr #5
     da4:	03670b00 	cmneq	r7, #0, 22
     da8:	5d070000 	stcpl	0, cr0, [r7, #-0]
     dac:	00000025 	andeq	r0, r0, r5, lsr #32
     db0:	01970b04 	orrseq	r0, r7, r4, lsl #22
     db4:	5f070000 	svcpl	0x00070000
     db8:	000002b0 			; <UNDEFINED> instruction: 0x000002b0
     dbc:	01040b08 	tsteq	r4, r8, lsl #22
     dc0:	60070000 	andvs	r0, r7, r0
     dc4:	0000021c 	andeq	r0, r0, ip, lsl r2
     dc8:	040d0088 	streq	r0, [sp], #-136	; 0xffffff78
     dcc:	0000026c 	andeq	r0, r0, ip, ror #4
     dd0:	0002c008 	andeq	ip, r2, r8
     dd4:	0002c000 	andeq	ip, r2, r0
     dd8:	00dd0900 	sbcseq	r0, sp, r0, lsl #18
     ddc:	001f0000 	andseq	r0, pc, r0
     de0:	02c6040d 	sbceq	r0, r6, #218103808	; 0xd000000
     de4:	0f130000 	svceq	0x00130000
     de8:	0000031a 	andeq	r0, r0, sl, lsl r3
     dec:	ec730708 	ldcl	7, cr0, [r3], #-32	; 0xffffffe0
     df0:	0b000002 	bleq	e00 <_start-0x7200>
     df4:	000000be 	strheq	r0, [r0], -lr
     df8:	02ec7407 	rsceq	r7, ip, #117440512	; 0x7000000
     dfc:	0b000000 	bleq	e04 <_start-0x71fc>
     e00:	0000001b 	andeq	r0, r0, fp, lsl r0
     e04:	00257507 	eoreq	r7, r5, r7, lsl #10
     e08:	00040000 	andeq	r0, r4, r0
     e0c:	005a040d 	subseq	r0, sl, sp, lsl #8
     e10:	390f0000 	stmdbcc	pc, {}	; <UNPREDICTABLE>
     e14:	68000003 	stmdavs	r0, {r0, r1}
     e18:	041cb307 	ldreq	fp, [ip], #-775	; 0xfffffcf9
     e1c:	5f100000 	svcpl	0x00100000
     e20:	b4070070 	strlt	r0, [r7], #-112	; 0xffffff90
     e24:	000002ec 	andeq	r0, r0, ip, ror #5
     e28:	725f1000 	subsvc	r1, pc, #0
     e2c:	25b50700 	ldrcs	r0, [r5, #1792]!	; 0x700
     e30:	04000000 	streq	r0, [r0], #-0
     e34:	00775f10 	rsbseq	r5, r7, r0, lsl pc
     e38:	0025b607 	eoreq	fp, r5, r7, lsl #12
     e3c:	0b080000 	bleq	200e44 <__bss_end__+0x1f6dd4>
     e40:	00000122 	andeq	r0, r0, r2, lsr #2
     e44:	003ab707 	eorseq	fp, sl, r7, lsl #14
     e48:	0b0c0000 	bleq	300e50 <__bss_end__+0x2f6de0>
     e4c:	0000020b 	andeq	r0, r0, fp, lsl #4
     e50:	003ab807 	eorseq	fp, sl, r7, lsl #16
     e54:	100e0000 	andne	r0, lr, r0
     e58:	0066625f 	rsbeq	r6, r6, pc, asr r2
     e5c:	02c7b907 	sbceq	fp, r7, #114688	; 0x1c000
     e60:	0b100000 	bleq	400e68 <__bss_end__+0x3f6df8>
     e64:	0000007b 	andeq	r0, r0, fp, ror r0
     e68:	0025ba07 	eoreq	fp, r5, r7, lsl #20
     e6c:	0b180000 	bleq	600e74 <__bss_end__+0x5f6e04>
     e70:	00000112 	andeq	r0, r0, r2, lsl r1
     e74:	011bc107 	tsteq	fp, r7, lsl #2
     e78:	0b1c0000 	bleq	700e80 <__bss_end__+0x6f6e10>
     e7c:	00000a78 	andeq	r0, r0, r8, ror sl
     e80:	0577c307 	ldrbeq	ip, [r7, #-775]!	; 0xfffffcf9
     e84:	0b200000 	bleq	800e8c <__bss_end__+0x7f6e1c>
     e88:	0000060c 	andeq	r0, r0, ip, lsl #12
     e8c:	05a1c507 	streq	ip, [r1, #1287]!	; 0x507
     e90:	0b240000 	bleq	900e98 <__bss_end__+0x8f6e28>
     e94:	000003ab 	andeq	r0, r0, fp, lsr #7
     e98:	05c5c807 	strbeq	ip, [r5, #2055]	; 0x807
     e9c:	0b280000 	bleq	a00ea4 <__bss_end__+0x9f6e34>
     ea0:	00000503 	andeq	r0, r0, r3, lsl #10
     ea4:	05dfc907 	ldrbeq	ip, [pc, #2311]	; 17b3 <_start-0x684d>
     ea8:	102c0000 	eorne	r0, ip, r0
     eac:	0062755f 	rsbeq	r7, r2, pc, asr r5
     eb0:	02c7cc07 	sbceq	ip, r7, #1792	; 0x700
     eb4:	10300000 	eorsne	r0, r0, r0
     eb8:	0070755f 	rsbseq	r7, r0, pc, asr r5
     ebc:	02eccd07 	rsceq	ip, ip, #448	; 0x1c0
     ec0:	10380000 	eorsne	r0, r8, r0
     ec4:	0072755f 	rsbseq	r7, r2, pc, asr r5
     ec8:	0025ce07 	eoreq	ip, r5, r7, lsl #28
     ecc:	0b3c0000 	bleq	f00ed4 <__bss_end__+0xef6e64>
     ed0:	000000b8 	strheq	r0, [r0], -r8
     ed4:	05e5d107 	strbeq	sp, [r5, #263]!	; 0x107
     ed8:	0b400000 	bleq	1000ee0 <__bss_end__+0xff6e70>
     edc:	000004db 	ldrdeq	r0, [r0], -fp
     ee0:	05f5d207 	ldrbeq	sp, [r5, #519]!	; 0x207
     ee4:	10430000 	subne	r0, r3, r0
     ee8:	00626c5f 	rsbeq	r6, r2, pc, asr ip
     eec:	02c7d507 	sbceq	sp, r7, #29360128	; 0x1c00000
     ef0:	0b440000 	bleq	1100ef8 <__bss_end__+0x10f6e88>
     ef4:	00000140 	andeq	r0, r0, r0, asr #2
     ef8:	0025d807 	eoreq	sp, r5, r7, lsl #16
     efc:	0b4c0000 	bleq	1300f04 <__bss_end__+0x12f6e94>
     f00:	00000151 	andeq	r0, r0, r1, asr r1
     f04:	008cd907 	addeq	sp, ip, r7, lsl #18
     f08:	0b500000 	bleq	1400f10 <__bss_end__+0x13f6ea0>
     f0c:	00000a19 	andeq	r0, r0, r9, lsl sl
     f10:	043adc07 	ldrteq	sp, [sl], #-3079	; 0xfffff3f9
     f14:	0b540000 	bleq	1500f1c <__bss_end__+0x14f6eac>
     f18:	00000276 	andeq	r0, r0, r6, ror r2
     f1c:	0110e007 	tsteq	r0, r7
     f20:	0b580000 	bleq	1600f28 <__bss_end__+0x15f6eb8>
     f24:	00000341 	andeq	r0, r0, r1, asr #6
     f28:	0105e207 	tsteq	r5, r7, lsl #4
     f2c:	0b5c0000 	bleq	1700f34 <__bss_end__+0x16f6ec4>
     f30:	0000027c 	andeq	r0, r0, ip, ror r2
     f34:	0025e307 	eoreq	lr, r5, r7, lsl #6
     f38:	00640000 	rsbeq	r0, r4, r0
     f3c:	00002514 	andeq	r2, r0, r4, lsl r5
     f40:	00043a00 	andeq	r3, r4, r0, lsl #20
     f44:	043a1500 	ldrteq	r1, [sl], #-1280	; 0xfffffb00
     f48:	1b150000 	blne	540f50 <__bss_end__+0x536ee0>
     f4c:	15000001 	strne	r0, [r0, #-1]
     f50:	0000011d 	andeq	r0, r0, sp, lsl r1
     f54:	00002515 	andeq	r2, r0, r5, lsl r5
     f58:	040d0000 	streq	r0, [sp], #-0
     f5c:	00000445 	andeq	r0, r0, r5, asr #8
     f60:	00043a0e 	andeq	r3, r4, lr, lsl #20
     f64:	038e1600 	orreq	r1, lr, #0, 12
     f68:	04280000 	strteq	r0, [r8], #-0
     f6c:	77023807 	strvc	r3, [r2, -r7, lsl #16]
     f70:	17000005 	strne	r0, [r0, -r5]
     f74:	000002ff 	strdeq	r0, [r0], -pc	; <UNPREDICTABLE>
     f78:	25023a07 	strcs	r3, [r2, #-2567]	; 0xfffff5f9
     f7c:	00000000 	andeq	r0, r0, r0
     f80:	00013117 	andeq	r3, r1, r7, lsl r1
     f84:	023f0700 	eorseq	r0, pc, #0, 14
     f88:	0000064c 	andeq	r0, r0, ip, asr #12
     f8c:	01fb1704 	mvnseq	r1, r4, lsl #14
     f90:	3f070000 	svccc	0x00070000
     f94:	00064c02 	andeq	r4, r6, r2, lsl #24
     f98:	ab170800 	blge	5c2fa0 <__bss_end__+0x5b8f30>
     f9c:	07000001 	streq	r0, [r0, -r1]
     fa0:	064c023f 			; <UNDEFINED> instruction: 0x064c023f
     fa4:	170c0000 	strne	r0, [ip, -r0]
     fa8:	00000362 	andeq	r0, r0, r2, ror #6
     fac:	25024107 	strcs	r4, [r2, #-263]	; 0xfffffef9
     fb0:	10000000 	andne	r0, r0, r0
     fb4:	00002917 	andeq	r2, r0, r7, lsl r9
     fb8:	02420700 	subeq	r0, r2, #0, 14
     fbc:	0000082e 	andeq	r0, r0, lr, lsr #16
     fc0:	047b1714 	ldrbteq	r1, [fp], #-1812	; 0xfffff8ec
     fc4:	44070000 	strmi	r0, [r7], #-0
     fc8:	00002502 	andeq	r2, r0, r2, lsl #10
     fcc:	6c173000 	ldcvs	0, cr3, [r7], {-0}
     fd0:	07000003 	streq	r0, [r0, -r3]
     fd4:	059b0245 	ldreq	r0, [fp, #581]	; 0x245
     fd8:	17340000 	ldrne	r0, [r4, -r0]!
     fdc:	000002bc 			; <UNDEFINED> instruction: 0x000002bc
     fe0:	25024707 	strcs	r4, [r2, #-1799]	; 0xfffff8f9
     fe4:	38000000 	stmdacc	r0, {}	; <UNPREDICTABLE>
     fe8:	00037c17 	andeq	r7, r3, r7, lsl ip
     fec:	02490700 	subeq	r0, r9, #0, 14
     ff0:	00000849 	andeq	r0, r0, r9, asr #16
     ff4:	025a173c 	subseq	r1, sl, #60, 14	; 0xf00000
     ff8:	4c070000 	stcmi	0, cr0, [r7], {-0}
     ffc:	00018d02 	andeq	r8, r1, r2, lsl #26
    1000:	ca174000 	bgt	5d1008 <__bss_end__+0x5c6f98>
    1004:	07000001 	streq	r0, [r0, -r1]
    1008:	0025024d 	eoreq	r0, r5, sp, asr #4
    100c:	17440000 	strbne	r0, [r4, -r0]
    1010:	0000051d 	andeq	r0, r0, sp, lsl r5
    1014:	8d024e07 	stchi	14, cr4, [r2, #-28]	; 0xffffffe4
    1018:	48000001 	stmdami	r0, {r0}
    101c:	0002ce17 	andeq	ip, r2, r7, lsl lr
    1020:	024f0700 	subeq	r0, pc, #0, 14
    1024:	0000084f 	andeq	r0, r0, pc, asr #16
    1028:	0203174c 	andeq	r1, r3, #76, 14	; 0x1300000
    102c:	52070000 	andpl	r0, r7, #0
    1030:	00002502 	andeq	r2, r0, r2, lsl #10
    1034:	49175000 	ldmdbmi	r7, {ip, lr}
    1038:	07000001 	streq	r0, [r0, -r1]
    103c:	011d0253 	tsteq	sp, r3, asr r2
    1040:	17540000 	ldrbne	r0, [r4, -r0]
    1044:	000002f8 	strdeq	r0, [r0], -r8
    1048:	0c027607 	stceq	6, cr7, [r2], {7}
    104c:	58000008 	stmdapl	r0, {r3}
    1050:	0002b418 	andeq	fp, r2, r8, lsl r4
    1054:	027a0700 	rsbseq	r0, sl, #0, 14
    1058:	000002aa 	andeq	r0, r0, sl, lsr #5
    105c:	38180148 	ldmdacc	r8, {r3, r6, r8}
    1060:	07000002 	streq	r0, [r0, -r2]
    1064:	026c027b 	rsbeq	r0, ip, #-1342177273	; 0xb0000007
    1068:	014c0000 	mrseq	r0, (UNDEF: 76)
    106c:	0004c918 	andeq	ip, r4, r8, lsl r9
    1070:	027f0700 	rsbseq	r0, pc, #0, 14
    1074:	00000860 	andeq	r0, r0, r0, ror #16
    1078:	1a1802dc 	bne	601bf0 <__bss_end__+0x5f7b80>
    107c:	07000001 	streq	r0, [r0, -r1]
    1080:	06110284 	ldreq	r0, [r1], -r4, lsl #5
    1084:	02e00000 	rsceq	r0, r0, #0
    1088:	0000ff18 	andeq	pc, r0, r8, lsl pc	; <UNPREDICTABLE>
    108c:	02850700 	addeq	r0, r5, #0, 14
    1090:	0000086c 	andeq	r0, r0, ip, ror #16
    1094:	0d0002ec 	sfmeq	f0, 4, [r0, #-944]	; 0xfffffc50
    1098:	00041c04 	andeq	r1, r4, r4, lsl #24
    109c:	00251400 	eoreq	r1, r5, r0, lsl #8
    10a0:	059b0000 	ldreq	r0, [fp]
    10a4:	3a150000 	bcc	5410ac <__bss_end__+0x53703c>
    10a8:	15000004 	strne	r0, [r0, #-4]
    10ac:	0000011b 	andeq	r0, r0, fp, lsl r1
    10b0:	00059b15 	andeq	r9, r5, r5, lsl fp
    10b4:	00251500 	eoreq	r1, r5, r0, lsl #10
    10b8:	0d000000 	stceq	0, cr0, [r0, #-0]
    10bc:	00012a04 	andeq	r2, r1, r4, lsl #20
    10c0:	7d040d00 	stcvc	13, cr0, [r4, #-0]
    10c4:	14000005 	strne	r0, [r0], #-5
    10c8:	00000097 	muleq	r0, r7, r0
    10cc:	000005c5 	andeq	r0, r0, r5, asr #11
    10d0:	00043a15 	andeq	r3, r4, r5, lsl sl
    10d4:	011b1500 	tsteq	fp, r0, lsl #10
    10d8:	97150000 	ldrls	r0, [r5, -r0]
    10dc:	15000000 	strne	r0, [r0, #-0]
    10e0:	00000025 	andeq	r0, r0, r5, lsr #32
    10e4:	a7040d00 	strge	r0, [r4, -r0, lsl #26]
    10e8:	14000005 	strne	r0, [r0], #-5
    10ec:	00000025 	andeq	r0, r0, r5, lsr #32
    10f0:	000005df 	ldrdeq	r0, [r0], -pc	; <UNPREDICTABLE>
    10f4:	00043a15 	andeq	r3, r4, r5, lsl sl
    10f8:	011b1500 	tsteq	fp, r0, lsl #10
    10fc:	0d000000 	stceq	0, cr0, [r0, #-0]
    1100:	0005cb04 	andeq	ip, r5, r4, lsl #22
    1104:	005a0800 	subseq	r0, sl, r0, lsl #16
    1108:	05f50000 	ldrbeq	r0, [r5, #0]!
    110c:	dd090000 	stcle	0, cr0, [r9, #-0]
    1110:	02000000 	andeq	r0, r0, #0
    1114:	005a0800 	subseq	r0, sl, r0, lsl #16
    1118:	06050000 	streq	r0, [r5], -r0
    111c:	dd090000 	stcle	0, cr0, [r9, #-0]
    1120:	00000000 	andeq	r0, r0, r0
    1124:	03270500 			; <UNDEFINED> instruction: 0x03270500
    1128:	1d070000 	stcne	0, cr0, [r7, #-0]
    112c:	0002f201 	andeq	pc, r2, r1, lsl #4
    1130:	04b01900 	ldrteq	r1, [r0], #2304	; 0x900
    1134:	070c0000 	streq	r0, [ip, -r0]
    1138:	06460121 	strbeq	r0, [r6], -r1, lsr #2
    113c:	4f170000 	svcmi	0x00170000
    1140:	07000003 	streq	r0, [r0, -r3]
    1144:	06460123 	strbeq	r0, [r6], -r3, lsr #2
    1148:	17000000 	strne	r0, [r0, -r0]
    114c:	0000021e 	andeq	r0, r0, lr, lsl r2
    1150:	25012407 	strcs	r2, [r1, #-1031]	; 0xfffffbf9
    1154:	04000000 	streq	r0, [r0], #-0
    1158:	00032117 	andeq	r2, r3, r7, lsl r1
    115c:	01250700 			; <UNDEFINED> instruction: 0x01250700
    1160:	0000064c 	andeq	r0, r0, ip, asr #12
    1164:	040d0008 	streq	r0, [sp], #-8
    1168:	00000611 	andeq	r0, r0, r1, lsl r6
    116c:	0605040d 	streq	r0, [r5], -sp, lsl #8
    1170:	21190000 	tstcs	r9, r0
    1174:	0e000000 	cdpeq	0, 0, cr0, cr0, cr0, {0}
    1178:	87013d07 	strhi	r3, [r1, -r7, lsl #26]
    117c:	17000006 	strne	r0, [r0, -r6]
    1180:	00000395 	muleq	r0, r5, r3
    1184:	87013e07 	strhi	r3, [r1, -r7, lsl #28]
    1188:	00000006 	andeq	r0, r0, r6
    118c:	0003c217 	andeq	ip, r3, r7, lsl r2
    1190:	013f0700 	teqeq	pc, r0, lsl #14
    1194:	00000687 	andeq	r0, r0, r7, lsl #13
    1198:	04401706 	strbeq	r1, [r0], #-1798	; 0xfffff8fa
    119c:	40070000 	andmi	r0, r7, r0
    11a0:	00006101 	andeq	r6, r0, r1, lsl #2
    11a4:	08000c00 	stmdaeq	r0, {sl, fp}
    11a8:	00000061 	andeq	r0, r0, r1, rrx
    11ac:	00000697 	muleq	r0, r7, r6
    11b0:	0000dd09 	andeq	sp, r0, r9, lsl #26
    11b4:	1a000200 	bne	19bc <_start-0x6644>
    11b8:	025707d0 	subseq	r0, r7, #208, 14	; 0x3400000
    11bc:	00000798 	muleq	r0, r8, r7
    11c0:	00049417 	andeq	r9, r4, r7, lsl r4
    11c4:	02590700 	subseq	r0, r9, #0, 14
    11c8:	0000002c 	andeq	r0, r0, ip, lsr #32
    11cc:	042a1700 	strteq	r1, [sl], #-1792	; 0xfffff900
    11d0:	5a070000 	bpl	1c11d8 <__bss_end__+0x1b7168>
    11d4:	00011d02 	andeq	r1, r1, r2, lsl #26
    11d8:	4d170400 	cfldrsmi	mvf0, [r7, #-0]
    11dc:	07000002 	streq	r0, [r0, -r2]
    11e0:	0798025b 			; <UNDEFINED> instruction: 0x0798025b
    11e4:	17080000 	strne	r0, [r8, -r0]
    11e8:	000004f4 	strdeq	r0, [r0], -r4
    11ec:	a3025c07 	movwge	r5, #11271	; 0x2c07
    11f0:	24000001 	strcs	r0, [r0], #-1
    11f4:	0001bb17 	andeq	fp, r1, r7, lsl fp
    11f8:	025d0700 	subseq	r0, sp, #0, 14
    11fc:	00000025 	andeq	r0, r0, r5, lsr #32
    1200:	034a1748 	movteq	r1, #42824	; 0xa748
    1204:	5e070000 	cdppl	0, 0, cr0, cr7, cr0, {0}
    1208:	00007a02 	andeq	r7, r0, r2, lsl #20
    120c:	0a175000 	beq	5d5214 <__bss_end__+0x5cb1a4>
    1210:	07000005 	streq	r0, [r0, -r5]
    1214:	0652025f 			; <UNDEFINED> instruction: 0x0652025f
    1218:	17580000 	ldrbne	r0, [r8, -r0]
    121c:	00000355 	andeq	r0, r0, r5, asr r3
    1220:	05026007 	streq	r6, [r2, #-7]
    1224:	68000001 	stmdavs	r0, {r0}
    1228:	00050f17 	andeq	r0, r5, r7, lsl pc
    122c:	02610700 	rsbeq	r0, r1, #0, 14
    1230:	00000105 	andeq	r0, r0, r5, lsl #2
    1234:	00931770 	addseq	r1, r3, r0, ror r7
    1238:	62070000 	andvs	r0, r7, #0
    123c:	00010502 	andeq	r0, r1, r2, lsl #10
    1240:	bf177800 	svclt	0x00177800
    1244:	07000004 	streq	r0, [r0, -r4]
    1248:	07a80263 	streq	r0, [r8, r3, ror #4]!
    124c:	17800000 	strne	r0, [r0, r0]
    1250:	00000241 	andeq	r0, r0, r1, asr #4
    1254:	b8026407 	stmdalt	r2, {r0, r1, r2, sl, sp, lr}
    1258:	88000007 	stmdahi	r0, {r0, r1, r2}
    125c:	00044d17 	andeq	r4, r4, r7, lsl sp
    1260:	02650700 	rsbeq	r0, r5, #0, 14
    1264:	00000025 	andeq	r0, r0, r5, lsr #32
    1268:	018117a0 	orreq	r1, r1, r0, lsr #15
    126c:	66070000 	strvs	r0, [r7], -r0
    1270:	00010502 	andeq	r0, r1, r2, lsl #10
    1274:	8417a400 	ldrhi	sl, [r7], #-1024	; 0xfffffc00
    1278:	07000000 	streq	r0, [r0, -r0]
    127c:	01050267 	tsteq	r5, r7, ror #4
    1280:	17ac0000 	strne	r0, [ip, r0]!
    1284:	00000170 	andeq	r0, r0, r0, ror r1
    1288:	05026807 	streq	r6, [r2, #-2055]	; 0xfffff7f9
    128c:	b4000001 	strlt	r0, [r0], #-1
    1290:	00003c17 	andeq	r3, r0, r7, lsl ip
    1294:	02690700 	rsbeq	r0, r9, #0, 14
    1298:	00000105 	andeq	r0, r0, r5, lsl #2
    129c:	004b17bc 	strheq	r1, [fp], #-124	; 0xffffff84
    12a0:	6a070000 	bvs	1c12a8 <__bss_end__+0x1b7238>
    12a4:	00010502 	andeq	r0, r1, r2, lsl #10
    12a8:	fd17c400 	ldc2	4, cr12, [r7, #-0]
    12ac:	07000002 	streq	r0, [r0, -r2]
    12b0:	0025026b 	eoreq	r0, r5, fp, ror #4
    12b4:	00cc0000 	sbceq	r0, ip, r0
    12b8:	00012308 	andeq	r2, r1, r8, lsl #6
    12bc:	0007a800 	andeq	sl, r7, r0, lsl #16
    12c0:	00dd0900 	sbcseq	r0, sp, r0, lsl #18
    12c4:	00190000 	andseq	r0, r9, r0
    12c8:	00012308 	andeq	r2, r1, r8, lsl #6
    12cc:	0007b800 	andeq	fp, r7, r0, lsl #16
    12d0:	00dd0900 	sbcseq	r0, sp, r0, lsl #18
    12d4:	00070000 	andeq	r0, r7, r0
    12d8:	00012308 	andeq	r2, r1, r8, lsl #6
    12dc:	0007c800 	andeq	ip, r7, r0, lsl #16
    12e0:	00dd0900 	sbcseq	r0, sp, r0, lsl #18
    12e4:	00170000 	andseq	r0, r7, r0
    12e8:	7007f01a 	andvc	pc, r7, sl, lsl r0	; <UNPREDICTABLE>
    12ec:	0007ec02 	andeq	lr, r7, r2, lsl #24
    12f0:	02a41700 	adceq	r1, r4, #0, 14
    12f4:	73070000 	movwvc	r0, #28672	; 0x7000
    12f8:	0007ec02 	andeq	lr, r7, r2, lsl #24
    12fc:	b6170000 	ldrlt	r0, [r7], -r0
    1300:	07000004 	streq	r0, [r0, -r4]
    1304:	07fc0274 			; <UNDEFINED> instruction: 0x07fc0274
    1308:	00780000 	rsbseq	r0, r8, r0
    130c:	0002ec08 	andeq	lr, r2, r8, lsl #24
    1310:	0007fc00 	andeq	pc, r7, r0, lsl #24
    1314:	00dd0900 	sbcseq	r0, sp, r0, lsl #18
    1318:	001d0000 	andseq	r0, sp, r0
    131c:	00002c08 	andeq	r2, r0, r8, lsl #24
    1320:	00080c00 	andeq	r0, r8, r0, lsl #24
    1324:	00dd0900 	sbcseq	r0, sp, r0, lsl #18
    1328:	001d0000 	andseq	r0, sp, r0
    132c:	5507f01b 	strpl	pc, [r7, #-27]	; 0xffffffe5
    1330:	00082e02 	andeq	r2, r8, r2, lsl #28
    1334:	038e1c00 	orreq	r1, lr, #0, 24
    1338:	6c070000 	stcvs	0, cr0, [r7], {-0}
    133c:	00069702 	andeq	r9, r6, r2, lsl #14
    1340:	04e11c00 	strbteq	r1, [r1], #3072	; 0xc00
    1344:	75070000 	strvc	r0, [r7, #-0]
    1348:	0007c802 	andeq	ip, r7, r2, lsl #16
    134c:	23080000 	movwcs	r0, #32768	; 0x8000
    1350:	3e000001 	cdpcc	0, 0, cr0, cr0, cr1, {0}
    1354:	09000008 	stmdbeq	r0, {r3}
    1358:	000000dd 	ldrdeq	r0, [r0], -sp
    135c:	491d0018 	ldmdbmi	sp, {r3, r4}
    1360:	15000008 	strne	r0, [r0, #-8]
    1364:	0000043a 	andeq	r0, r0, sl, lsr r4
    1368:	3e040d00 	cdpcc	13, 0, cr0, cr4, cr0, {0}
    136c:	0d000008 	stceq	0, cr0, [r0, #-32]	; 0xffffffe0
    1370:	00018d04 	andeq	r8, r1, r4, lsl #26
    1374:	08601d00 	stmdaeq	r0!, {r8, sl, fp, ip}^
    1378:	25150000 	ldrcs	r0, [r5, #-0]
    137c:	00000000 	andeq	r0, r0, r0
    1380:	0866040d 	stmdaeq	r6!, {r0, r2, r3, sl}^
    1384:	040d0000 	streq	r0, [sp], #-0
    1388:	00000855 	andeq	r0, r0, r5, asr r8
    138c:	00060508 	andeq	r0, r6, r8, lsl #10
    1390:	00087c00 	andeq	r7, r8, r0, lsl #24
    1394:	00dd0900 	sbcseq	r0, sp, r0, lsl #18
    1398:	00020000 	andeq	r0, r2, r0
    139c:	00046f1e 	andeq	r6, r4, lr, lsl pc
    13a0:	02fd0700 	rscseq	r0, sp, #0, 14
    13a4:	0000043a 	andeq	r0, r0, sl, lsr r4
    13a8:	0004681e 	andeq	r6, r4, lr, lsl r8
    13ac:	02fe0700 	rscseq	r0, lr, #0, 14
    13b0:	00000440 	andeq	r0, r0, r0, asr #8
    13b4:	00002514 	andeq	r2, r0, r4, lsl r5
    13b8:	0008a300 	andeq	sl, r8, r0, lsl #6
    13bc:	00251500 	eoreq	r1, r5, r0, lsl #10
    13c0:	1f000000 	svcne	0x00000000
    13c4:	000001d4 	ldrdeq	r0, [r0], -r4
    13c8:	08ae1d08 	stmiaeq	lr!, {r3, r8, sl, fp, ip}
    13cc:	040d0000 	streq	r0, [sp], #-0
    13d0:	00000894 	muleq	r0, r4, r8
    13d4:	00002514 	andeq	r2, r0, r4, lsl r5
    13d8:	0008c300 	andeq	ip, r8, r0, lsl #6
    13dc:	059b1500 	ldreq	r1, [fp, #1280]	; 0x500
    13e0:	1f000000 	svcne	0x00000000
    13e4:	00000769 	andeq	r0, r0, r9, ror #14
    13e8:	08ce2208 	stmiaeq	lr, {r3, r9, sp}^
    13ec:	040d0000 	streq	r0, [sp], #-0
    13f0:	000008b4 			; <UNDEFINED> instruction: 0x000008b4
    13f4:	005a0120 	subseq	r0, sl, r0, lsr #2
    13f8:	24020000 	strcs	r0, [r2], #-0
    13fc:	000008ed 	andeq	r0, r0, sp, ror #17
    1400:	00056321 	andeq	r6, r5, r1, lsr #6
    1404:	5d210b00 	vstmdbpl	r1!, {d0-d-1}
    1408:	0c000005 	stceq	0, cr0, [r0], {5}
    140c:	020c0a00 	andeq	r0, ip, #0, 20
    1410:	00091a26 	andeq	r1, r9, r6, lsr #20
    1414:	020c0b00 	andeq	r0, ip, #0, 22
    1418:	27020000 	strcs	r0, [r2, -r0]
    141c:	0000059b 	muleq	r0, fp, r5
    1420:	04ce0b00 	strbeq	r0, [lr], #2816	; 0xb00
    1424:	28020000 	stmdacs	r2, {}	; <UNPREDICTABLE>
    1428:	0000059b 	muleq	r0, fp, r5
    142c:	05340b04 	ldreq	r0, [r4, #-2820]!	; 0xfffff4fc
    1430:	29020000 	stmdbcs	r2, {}	; <UNPREDICTABLE>
    1434:	0000002c 	andeq	r0, r0, ip, lsr #32
    1438:	2d040008 	stccs	0, cr0, [r4, #-32]	; 0xffffffe0
    143c:	02000006 	andeq	r0, r0, #6
    1440:	0008ed2a 	andeq	lr, r8, sl, lsr #26
    1444:	06a10f00 	strteq	r0, [r1], r0, lsl #30
    1448:	02380000 	eorseq	r0, r8, #0
    144c:	0009aa2d 	andeq	sl, r9, sp, lsr #20
    1450:	05e90b00 	strbeq	r0, [r9, #2816]!	; 0xb00
    1454:	2e020000 	cdpcs	0, 0, cr0, cr2, cr0, {0}
    1458:	00000068 	andeq	r0, r0, r8, rrx
    145c:	06870b00 	streq	r0, [r7], r0, lsl #22
    1460:	2f020000 	svccs	0x00020000
    1464:	00000068 	andeq	r0, r0, r8, rrx
    1468:	009b0b04 	addseq	r0, fp, r4, lsl #22
    146c:	30020000 	andcc	r0, r2, r0
    1470:	00000068 	andeq	r0, r0, r8, rrx
    1474:	05e30b08 	strbeq	r0, [r3, #2824]!	; 0xb08
    1478:	34020000 	strcc	r0, [r2], #-0
    147c:	00000068 	andeq	r0, r0, r8, rrx
    1480:	05d50b0c 	ldrbeq	r0, [r5, #2828]	; 0xb0c
    1484:	36020000 	strcc	r0, [r2], -r0
    1488:	0000091a 	andeq	r0, r0, sl, lsl r9
    148c:	054a0b10 	strbeq	r0, [sl, #-2832]	; 0xfffff4f0
    1490:	37020000 	strcc	r0, [r2, -r0]
    1494:	0000091a 	andeq	r0, r0, sl, lsl r9
    1498:	05770b1c 	ldrbeq	r0, [r7, #-2844]!	; 0xfffff4e4
    149c:	3b020000 	blcc	814a4 <__bss_end__+0x77434>
    14a0:	00000068 	andeq	r0, r0, r8, rrx
    14a4:	056b0b28 	strbeq	r0, [fp, #-2856]!	; 0xfffff4d8
    14a8:	3c020000 	stccc	0, cr0, [r2], {-0}
    14ac:	00000068 	andeq	r0, r0, r8, rrx
    14b0:	053b0b2c 	ldreq	r0, [fp, #-2860]!	; 0xfffff4d4
    14b4:	3f020000 	svccc	0x00020000
    14b8:	000009aa 	andeq	r0, r0, sl, lsr #19
    14bc:	052c0b30 	streq	r0, [ip, #-2864]!	; 0xfffff4d0
    14c0:	41020000 	mrsmi	r0, (UNDEF: 2)
    14c4:	00000068 	andeq	r0, r0, r8, rrx
    14c8:	040d0034 	streq	r0, [sp], #-52	; 0xffffffcc
    14cc:	00000925 	andeq	r0, r0, r5, lsr #18
    14d0:	00068104 	andeq	r8, r6, r4, lsl #2
    14d4:	25420200 	strbcs	r0, [r2, #-512]	; 0xfffffe00
    14d8:	20000009 	andcs	r0, r0, r9
    14dc:	00006102 	andeq	r6, r0, r2, lsl #2
    14e0:	e1620200 	cmn	r2, r0, lsl #4
    14e4:	21000009 	tstcs	r0, r9
    14e8:	00000657 	andeq	r0, r0, r7, asr r6
    14ec:	059a21fe 	ldreq	r2, [sl, #510]	; 0x1fe
    14f0:	21800000 	orrcs	r0, r0, r0
    14f4:	000005a2 	andeq	r0, r0, r2, lsr #11
    14f8:	058a22b8 	streq	r2, [sl, #696]	; 0x2b8
    14fc:	01380000 	teqeq	r8, r0
    1500:	06522300 	ldrbeq	r2, [r2], -r0, lsl #6
    1504:	07010000 	streq	r0, [r1, -r0]
    1508:	000009f2 	strdeq	r0, [r0], -r2
    150c:	9c640305 	stclls	3, cr0, [r4], #-20	; 0xffffffec
    1510:	040d0000 	streq	r0, [sp], #-0
    1514:	0000004f 	andeq	r0, r0, pc, asr #32
    1518:	000b6d23 	andeq	r6, fp, r3, lsr #26
    151c:	f2070100 	vrhadd.s8	d0, d7, d0
    1520:	05000009 	streq	r0, [r0, #-9]
    1524:	009c6803 	addseq	r6, ip, r3, lsl #16
    1528:	0b542300 	bleq	150a130 <__bss_end__+0x15000c0>
    152c:	07010000 	streq	r0, [r1, -r0]
    1530:	000009f2 	strdeq	r0, [r0], -r2
    1534:	9c600305 	stclls	3, cr0, [r0], #-20	; 0xffffffec
    1538:	0c240000 	stceq	0, cr0, [r4], #-0
    153c:	01000000 	mrseq	r0, (UNDEF: 0)
    1540:	000025ae 	andeq	r2, r0, lr, lsr #11
    1544:	00883800 	addeq	r3, r8, r0, lsl #16
    1548:	00014c00 	andeq	r4, r1, r0, lsl #24
    154c:	d39c0100 	orrsle	r0, ip, #0, 2
    1550:	2500000b 	strcs	r0, [r0, #-11]
    1554:	00000582 	andeq	r0, r0, r2, lsl #11
    1558:	002caf01 	eoreq	sl, ip, r1, lsl #30
    155c:	001e0000 	andseq	r0, lr, r0
    1560:	92250000 	eorls	r0, r5, #0
    1564:	01000006 	tsteq	r0, r6
    1568:	00002cb0 			; <UNDEFINED> instruction: 0x00002cb0
    156c:	00003100 	andeq	r3, r0, r0, lsl #2
    1570:	06402500 	strbeq	r2, [r0], -r0, lsl #10
    1574:	b4010000 	strlt	r0, [r1], #-0
    1578:	0000002c 	andeq	r0, r0, ip, lsr #32
    157c:	00000044 	andeq	r0, r0, r4, asr #32
    1580:	00062725 	andeq	r2, r6, r5, lsr #14
    1584:	2cb50100 	ldfcss	f0, [r5]
    1588:	63000000 	movwvs	r0, #0
    158c:	26000000 	strcs	r0, [r0], -r0
    1590:	00000060 	andeq	r0, r0, r0, rrx
    1594:	00000b2e 	andeq	r0, r0, lr, lsr #22
    1598:	00066623 	andeq	r6, r6, r3, lsr #12
    159c:	d3b80100 			; <UNDEFINED> instruction: 0xd3b80100
    15a0:	0100000b 	tsteq	r0, fp
    15a4:	88dc2754 	ldmhi	ip, {r2, r4, r6, r8, r9, sl, sp}^
    15a8:	14620000 	strbtne	r0, [r2], #-0
    15ac:	0a990000 	beq	fe6415b4 <__bss_end__+0xfe637544>
    15b0:	01280000 			; <UNDEFINED> instruction: 0x01280000
    15b4:	00740250 	rsbseq	r0, r4, r0, asr r2
    15b8:	88ec2700 	stmiahi	ip!, {r8, r9, sl, sp}^
    15bc:	16a50000 	strtne	r0, [r5], r0
    15c0:	0aad0000 	beq	feb415c8 <__bss_end__+0xfeb37558>
    15c4:	01280000 			; <UNDEFINED> instruction: 0x01280000
    15c8:	00740250 	rsbseq	r0, r4, r0, asr r2
    15cc:	88f82700 	ldmhi	r8!, {r8, r9, sl, sp}^
    15d0:	12fc0000 	rscsne	r0, ip, #0
    15d4:	0ac70000 	beq	ff1c15dc <__bss_end__+0xff1b756c>
    15d8:	01280000 			; <UNDEFINED> instruction: 0x01280000
    15dc:	80080251 	andhi	r0, r8, r1, asr r2
    15e0:	02520128 	subseq	r0, r2, #40, 2
    15e4:	27000074 	smlsdxcs	r0, r4, r0, r0
    15e8:	00008908 	andeq	r8, r0, r8, lsl #18
    15ec:	00001636 	andeq	r1, r0, r6, lsr r6
    15f0:	00000adb 	ldrdeq	r0, [r0], -fp
    15f4:	02500128 	subseq	r0, r0, #40, 2
    15f8:	27000074 	smlsdxcs	r0, r4, r0, r0
    15fc:	00008914 	andeq	r8, r0, r4, lsl r9
    1600:	0000160f 	andeq	r1, r0, pc, lsl #12
    1604:	00000aef 	andeq	r0, r0, pc, ror #21
    1608:	02500128 	subseq	r0, r0, #40, 2
    160c:	27000074 	smlsdxcs	r0, r4, r0, r0
    1610:	00008924 	andeq	r8, r0, r4, lsr #18
    1614:	000012fc 	strdeq	r1, [r0], -ip
    1618:	00000b09 	andeq	r0, r0, r9, lsl #22
    161c:	02500128 	subseq	r0, r0, #40, 2
    1620:	01280077 			; <UNDEFINED> instruction: 0x01280077
    1624:	00740252 	rsbseq	r0, r4, r2, asr r2
    1628:	893c2700 	ldmdbhi	ip!, {r8, r9, sl, sp}
    162c:	166d0000 	strbtne	r0, [sp], -r0
    1630:	0b1d0000 	bleq	741638 <__bss_end__+0x7375c8>
    1634:	01280000 			; <UNDEFINED> instruction: 0x01280000
    1638:	00740250 	rsbseq	r0, r4, r0, asr r2
    163c:	89482900 	stmdbhi	r8, {r8, fp, sp}^
    1640:	11610000 	cmnne	r1, r0
    1644:	01280000 			; <UNDEFINED> instruction: 0x01280000
    1648:	00740252 	rsbseq	r0, r4, r2, asr r2
    164c:	5c270000 	stcpl	0, cr0, [r7], #-0
    1650:	95000088 	strls	r0, [r0, #-136]	; 0xffffff78
    1654:	45000017 	strmi	r0, [r0, #-23]	; 0xffffffe9
    1658:	2800000b 	stmdacs	r0, {r0, r1, r3}
    165c:	03055001 	movweq	r5, #20481	; 0x5001
    1660:	000096e8 	andeq	r9, r0, r8, ror #13
    1664:	886c2700 	stmdahi	ip!, {r8, r9, sl, sp}^
    1668:	17950000 	ldrne	r0, [r5, r0]
    166c:	0b680000 	bleq	1a01674 <__bss_end__+0x19f7604>
    1670:	01280000 			; <UNDEFINED> instruction: 0x01280000
    1674:	a0030550 	andge	r0, r3, r0, asr r5
    1678:	28000099 	stmdacs	r0, {r0, r3, r4, r7}
    167c:	75025101 	strvc	r5, [r2, #-257]	; 0xfffffeff
    1680:	52012800 	andpl	r2, r1, #0, 16
    1684:	00007602 	andeq	r7, r0, r2, lsl #12
    1688:	00889427 	addeq	r9, r8, r7, lsr #8
    168c:	00179500 	andseq	r9, r7, r0, lsl #10
    1690:	000b7f00 	andeq	r7, fp, r0, lsl #30
    1694:	50012800 	andpl	r2, r1, r0, lsl #16
    1698:	96e80305 	strbtls	r0, [r8], r5, lsl #6
    169c:	27000000 	strcs	r0, [r0, -r0]
    16a0:	000088a0 	andeq	r8, r0, r0, lsr #17
    16a4:	00001795 	muleq	r0, r5, r7
    16a8:	00000b9c 	muleq	r0, ip, fp
    16ac:	05500128 	ldrbeq	r0, [r0, #-296]	; 0xfffffed8
    16b0:	009a0003 	addseq	r0, sl, r3
    16b4:	51012800 	tstpl	r1, r0, lsl #16
    16b8:	00007502 	andeq	r7, r0, r2, lsl #10
    16bc:	00895c27 	addeq	r5, r9, r7, lsr #24
    16c0:	00179500 	andseq	r9, r7, r0, lsl #10
    16c4:	000bb300 	andeq	fp, fp, r0, lsl #6
    16c8:	50012800 	andpl	r2, r1, r0, lsl #16
    16cc:	96e80305 	strbtls	r0, [r8], r5, lsl #6
    16d0:	29000000 	stmdbcs	r0, {}	; <UNPREDICTABLE>
    16d4:	0000896c 	andeq	r8, r0, ip, ror #18
    16d8:	00001795 	muleq	r0, r5, r7
    16dc:	05500128 	ldrbeq	r0, [r0, #-296]	; 0xfffffed8
    16e0:	0099d803 	addseq	sp, r9, r3, lsl #16
    16e4:	51012800 	tstpl	r1, r0, lsl #16
    16e8:	28007502 	stmdacs	r0, {r1, r8, sl, ip, sp, lr}
    16ec:	76025201 	strvc	r5, [r2], -r1, lsl #4
    16f0:	0d000000 	stceq	0, cr0, [r0, #-0]
    16f4:	0009b004 	andeq	fp, r9, r4
    16f8:	00732400 	rsbseq	r2, r3, r0, lsl #8
    16fc:	87010000 	strhi	r0, [r1, -r0]
    1700:	0000011b 	andeq	r0, r0, fp, lsl r1
    1704:	00008620 	andeq	r8, r0, r0, lsr #12
    1708:	00000218 	andeq	r0, r0, r8, lsl r2
    170c:	0f049c01 	svceq	0x00049c01
    1710:	722a0000 	eorvc	r0, sl, #0
    1714:	01000006 	tsteq	r0, r6
    1718:	00006887 	andeq	r6, r0, r7, lsl #17
    171c:	00008200 	andeq	r8, r0, r0, lsl #4
    1720:	020c2a00 	andeq	r2, ip, #0, 20
    1724:	87010000 	strhi	r0, [r1, -r0]
    1728:	0000059b 	muleq	r0, fp, r5
    172c:	000000c4 	andeq	r0, r0, r4, asr #1
    1730:	0004ce2a 	andeq	ip, r4, sl, lsr #28
    1734:	9b870100 	blls	fe1c1b3c <__bss_end__+0xfe1b7acc>
    1738:	06000005 	streq	r0, [r0], -r5
    173c:	2a000001 	bcs	1748 <_start-0x68b8>
    1740:	00000534 	andeq	r0, r0, r4, lsr r5
    1744:	002c8701 	eoreq	r8, ip, r1, lsl #14
    1748:	01480000 	mrseq	r0, (UNDEF: 72)
    174c:	682b0000 	stmdavs	fp!, {}	; <UNPREDICTABLE>
    1750:	d3880100 	orrle	r0, r8, #0, 2
    1754:	8d00000b 	stchi	0, cr0, [r0, #-44]	; 0xffffffd4
    1758:	2b000001 	blcs	1764 <_start-0x689c>
    175c:	00727470 	rsbseq	r7, r2, r0, ror r4
    1760:	011b8901 	tsteq	fp, r1, lsl #18
    1764:	01c30000 	biceq	r0, r3, r0
    1768:	112c0000 			; <UNDEFINED> instruction: 0x112c0000
    176c:	14000002 	strne	r0, [r0], #-2
    1770:	0500000f 	streq	r0, [r0, #-15]
    1774:	00973c03 	addseq	r3, r7, r3, lsl #24
    1778:	6f742b00 	svcvs	0x00742b00
    177c:	8e010074 	mcrhi	0, 0, r0, cr1, cr4, {3}
    1780:	0000002c 	andeq	r0, r0, ip, lsr #32
    1784:	000001f9 	strdeq	r0, [r0], -r9
    1788:	01006e2b 	tsteq	r0, fp, lsr #28
    178c:	00002c8f 	andeq	r2, r0, pc, lsl #25
    1790:	00025800 	andeq	r5, r2, r0, lsl #16
    1794:	86502700 	ldrbhi	r2, [r0], -r0, lsl #14
    1798:	17950000 	ldrne	r0, [r5, r0]
    179c:	0c8c0000 	stceq	0, cr0, [ip], {0}
    17a0:	01280000 			; <UNDEFINED> instruction: 0x01280000
    17a4:	e8030550 	stmda	r3, {r4, r6, r8, sl}
    17a8:	00000096 	muleq	r0, r6, r0
    17ac:	00865c27 	addeq	r5, r6, r7, lsr #24
    17b0:	00179500 	andseq	r9, r7, r0, lsl #10
    17b4:	000ca900 	andeq	sl, ip, r0, lsl #18
    17b8:	50012800 	andpl	r2, r1, r0, lsl #16
    17bc:	98640305 	stmdals	r4!, {r0, r2, r8, r9}^
    17c0:	01280000 			; <UNDEFINED> instruction: 0x01280000
    17c4:	00750251 	rsbseq	r0, r5, r1, asr r2
    17c8:	86bc2700 	ldrthi	r2, [ip], r0, lsl #14
    17cc:	16a50000 	strtne	r0, [r5], r0
    17d0:	0cbd0000 	ldceq	0, cr0, [sp]
    17d4:	01280000 			; <UNDEFINED> instruction: 0x01280000
    17d8:	00740250 	rsbseq	r0, r4, r0, asr r2
    17dc:	86c42700 	strbhi	r2, [r4], r0, lsl #14
    17e0:	11110000 	tstne	r1, r0
    17e4:	0cd10000 	ldcleq	0, cr0, [r1], {0}
    17e8:	01280000 			; <UNDEFINED> instruction: 0x01280000
    17ec:	80080251 	andhi	r0, r8, r1, asr r2
    17f0:	86cc2700 	strbhi	r2, [ip], r0, lsl #14
    17f4:	16360000 	ldrtne	r0, [r6], -r0
    17f8:	0ce50000 	stcleq	0, cr0, [r5]
    17fc:	01280000 			; <UNDEFINED> instruction: 0x01280000
    1800:	00740250 	rsbseq	r0, r4, r0, asr r2
    1804:	86d82700 	ldrbhi	r2, [r8], r0, lsl #14
    1808:	160f0000 	strne	r0, [pc], -r0
    180c:	0cf90000 	ldcleq	0, cr0, [r9]
    1810:	01280000 			; <UNDEFINED> instruction: 0x01280000
    1814:	00740250 	rsbseq	r0, r4, r0, asr r2
    1818:	86e42700 	strbthi	r2, [r4], r0, lsl #14
    181c:	11110000 	tstne	r1, r0
    1820:	0d0d0000 	stceq	0, cr0, [sp, #-0]
    1824:	01280000 			; <UNDEFINED> instruction: 0x01280000
    1828:	00770250 	rsbseq	r0, r7, r0, asr r2
    182c:	86ec2700 	strbthi	r2, [ip], r0, lsl #14
    1830:	158f0000 	strne	r0, [pc]	; 1838 <_start-0x67c8>
    1834:	0d210000 	stceq	0, cr0, [r1, #-0]
    1838:	01280000 			; <UNDEFINED> instruction: 0x01280000
    183c:	00740250 	rsbseq	r0, r4, r0, asr r2
    1840:	87082700 	strhi	r2, [r8, -r0, lsl #14]
    1844:	106a0000 	rsbne	r0, sl, r0
    1848:	0d350000 	ldceq	0, cr0, [r5, #-0]
    184c:	01280000 			; <UNDEFINED> instruction: 0x01280000
    1850:	00740250 	rsbseq	r0, r4, r0, asr r2
    1854:	87182700 	ldrhi	r2, [r8, -r0, lsl #14]
    1858:	166d0000 	strbtne	r0, [sp], -r0
    185c:	0d490000 	stcleq	0, cr0, [r9, #-0]
    1860:	01280000 			; <UNDEFINED> instruction: 0x01280000
    1864:	00740250 	rsbseq	r0, r4, r0, asr r2
    1868:	87242700 	strhi	r2, [r4, -r0, lsl #14]!
    186c:	17950000 	ldrne	r0, [r5, r0]
    1870:	0d600000 	stcleq	0, cr0, [r0, #-0]
    1874:	01280000 			; <UNDEFINED> instruction: 0x01280000
    1878:	e8030550 	stmda	r3, {r4, r6, r8, sl}
    187c:	00000096 	muleq	r0, r6, r0
    1880:	00873827 	addeq	r3, r7, r7, lsr #16
    1884:	00179500 	andseq	r9, r7, r0, lsl #10
    1888:	000d8900 	andeq	r8, sp, r0, lsl #18
    188c:	50012800 	andpl	r2, r1, r0, lsl #16
    1890:	99700305 	ldmdbls	r0!, {r0, r2, r8, r9}^
    1894:	01280000 			; <UNDEFINED> instruction: 0x01280000
    1898:	00750251 	rsbseq	r0, r5, r1, asr r2
    189c:	02520128 	subseq	r0, r2, #40, 2
    18a0:	01280076 			; <UNDEFINED> instruction: 0x01280076
    18a4:	00740253 	rsbseq	r0, r4, r3, asr r2
    18a8:	87482d00 	strbhi	r2, [r8, -r0, lsl #26]
    18ac:	17a00000 	strne	r0, [r0, r0]!
    18b0:	5c270000 	stcpl	0, cr0, [r7], #-0
    18b4:	95000087 	strls	r0, [r0, #-135]	; 0xffffff79
    18b8:	c1000017 	tstgt	r0, r7, lsl r0
    18bc:	2800000d 	stmdacs	r0, {r0, r2, r3}
    18c0:	03055001 	movweq	r5, #20481	; 0x5001
    18c4:	00009824 	andeq	r9, r0, r4, lsr #16
    18c8:	05510128 	ldrbeq	r0, [r1, #-296]	; 0xfffffed8
    18cc:	0097d403 	addseq	sp, r7, r3, lsl #8
    18d0:	52012800 	andpl	r2, r1, #0, 16
    18d4:	973c0305 	ldrls	r0, [ip, -r5, lsl #6]!
    18d8:	01280000 			; <UNDEFINED> instruction: 0x01280000
    18dc:	8b080253 	blhi	202230 <__bss_end__+0x1f81c0>
    18e0:	87602d00 	strbhi	r2, [r0, -r0, lsl #26]!
    18e4:	17ab0000 	strne	r0, [fp, r0]!
    18e8:	68270000 	stmdavs	r7!, {}	; <UNPREDICTABLE>
    18ec:	95000087 	strls	r0, [r0, #-135]	; 0xffffff79
    18f0:	e1000017 	tst	r0, r7, lsl r0
    18f4:	2800000d 	stmdacs	r0, {r0, r2, r3}
    18f8:	03055001 	movweq	r5, #20481	; 0x5001
    18fc:	0000987c 	andeq	r9, r0, ip, ror r8
    1900:	87742700 	ldrbhi	r2, [r4, -r0, lsl #14]!
    1904:	17950000 	ldrne	r0, [r5, r0]
    1908:	0dfe0000 	ldcleq	0, cr0, [lr]
    190c:	01280000 			; <UNDEFINED> instruction: 0x01280000
    1910:	88030550 	stmdahi	r3, {r4, r6, r8, sl}
    1914:	28000098 	stmdacs	r0, {r3, r4, r7}
    1918:	75025101 	strvc	r5, [r2, #-257]	; 0xfffffeff
    191c:	782d0000 	stmdavc	sp!, {}	; <UNPREDICTABLE>
    1920:	a0000087 	andge	r0, r0, r7, lsl #1
    1924:	27000017 	smladcs	r0, r7, r0, r0
    1928:	00008790 	muleq	r0, r0, r7
    192c:	00001795 	muleq	r0, r5, r7
    1930:	00000e3d 	andeq	r0, r0, sp, lsr lr
    1934:	05500128 	ldrbeq	r0, [r0, #-296]	; 0xfffffed8
    1938:	0098b003 	addseq	fp, r8, r3
    193c:	51012800 	tstpl	r1, r0, lsl #16
    1940:	97d40305 	ldrbls	r0, [r4, r5, lsl #6]
    1944:	01280000 			; <UNDEFINED> instruction: 0x01280000
    1948:	3c030552 	cfstr32cc	mvfx0, [r3], {82}	; 0x52
    194c:	28000097 	stmdacs	r0, {r0, r1, r2, r4, r7}
    1950:	08025301 	stmdaeq	r2, {r0, r8, r9, ip, lr}
    1954:	7d022893 	stcvc	8, cr2, [r2, #-588]	; 0xfffffdb4
    1958:	00750200 	rsbseq	r0, r5, r0, lsl #4
    195c:	87942d00 	ldrhi	r2, [r4, r0, lsl #26]
    1960:	17ab0000 	strne	r0, [fp, r0]!
    1964:	9c270000 	stcls	0, cr0, [r7], #-0
    1968:	95000087 	strls	r0, [r0, #-135]	; 0xffffff79
    196c:	5d000017 	stcpl	0, cr0, [r0, #-92]	; 0xffffffa4
    1970:	2800000e 	stmdacs	r0, {r1, r2, r3}
    1974:	03055001 	movweq	r5, #20481	; 0x5001
    1978:	0000987c 	andeq	r9, r0, ip, ror r8
    197c:	87b82700 	ldrhi	r2, [r8, r0, lsl #14]!
    1980:	17950000 	ldrne	r0, [r5, r0]
    1984:	0e7a0000 	cdpeq	0, 7, cr0, cr10, cr0, {0}
    1988:	01280000 			; <UNDEFINED> instruction: 0x01280000
    198c:	e8030550 	stmda	r3, {r4, r6, r8, sl}
    1990:	28000098 	stmdacs	r0, {r3, r4, r7}
    1994:	76025201 	strvc	r5, [r2], -r1, lsl #4
    1998:	bc2d0000 	stclt	0, cr0, [sp], #-0
    199c:	a0000087 	andge	r0, r0, r7, lsl #1
    19a0:	27000017 	smladcs	r0, r7, r0, r0
    19a4:	000087e4 	andeq	r8, r0, r4, ror #15
    19a8:	00001795 	muleq	r0, r5, r7
    19ac:	00000eb9 			; <UNDEFINED> instruction: 0x00000eb9
    19b0:	05500128 	ldrbeq	r0, [r0, #-296]	; 0xfffffed8
    19b4:	00991403 	addseq	r1, r9, r3, lsl #8
    19b8:	51012800 	tstpl	r1, r0, lsl #16
    19bc:	97d40305 	ldrbls	r0, [r4, r5, lsl #6]
    19c0:	01280000 			; <UNDEFINED> instruction: 0x01280000
    19c4:	3c030552 	cfstr32cc	mvfx0, [r3], {82}	; 0x52
    19c8:	28000097 	stmdacs	r0, {r0, r1, r2, r4, r7}
    19cc:	08025301 	stmdaeq	r2, {r0, r8, r9, ip, lr}
    19d0:	7d022897 	stcvc	8, cr2, [r2, #-604]	; 0xfffffda4
    19d4:	00760204 	rsbseq	r0, r6, r4, lsl #4
    19d8:	87e82d00 	strbhi	r2, [r8, r0, lsl #26]!
    19dc:	17ab0000 	strne	r0, [fp, r0]!
    19e0:	ec2d0000 	stc	0, cr0, [sp], #-0
    19e4:	a0000087 	andge	r0, r0, r7, lsl #1
    19e8:	27000017 	smladcs	r0, r7, r0, r0
    19ec:	00008800 	andeq	r8, r0, r0, lsl #16
    19f0:	00001795 	muleq	r0, r5, r7
    19f4:	00000efa 	strdeq	r0, [r0], -sl
    19f8:	05500128 	ldrbeq	r0, [r0, #-296]	; 0xfffffed8
    19fc:	00995003 	addseq	r5, r9, r3
    1a00:	51012800 	tstpl	r1, r0, lsl #16
    1a04:	97d40305 	ldrbls	r0, [r4, r5, lsl #6]
    1a08:	01280000 			; <UNDEFINED> instruction: 0x01280000
    1a0c:	3c030552 	cfstr32cc	mvfx0, [r3], {82}	; 0x52
    1a10:	28000097 	stmdacs	r0, {r0, r1, r2, r4, r7}
    1a14:	08025301 	stmdaeq	r2, {r0, r8, r9, ip, lr}
    1a18:	042d00a5 	strteq	r0, [sp], #-165	; 0xffffff5b
    1a1c:	ab000088 	blge	1c44 <_start-0x63bc>
    1a20:	00000017 	andeq	r0, r0, r7, lsl r0
    1a24:	00012a08 	andeq	r2, r1, r8, lsl #20
    1a28:	000f1400 	andeq	r1, pc, r0, lsl #8
    1a2c:	00dd0900 	sbcseq	r0, sp, r0, lsl #18
    1a30:	00070000 	andeq	r0, r7, r0
    1a34:	000f040e 	andeq	r0, pc, lr, lsl #8
    1a38:	026f2e00 	rsbeq	r2, pc, #0, 28
    1a3c:	72010000 	andvc	r0, r1, #0
    1a40:	00008568 	andeq	r8, r0, r8, ror #10
    1a44:	000000b8 	strheq	r0, [r0], -r8
    1a48:	10559c01 	subsne	r9, r5, r1, lsl #24
    1a4c:	602a0000 	eorvs	r0, sl, r0
    1a50:	0100000b 	tsteq	r0, fp
    1a54:	00011b72 	andeq	r1, r1, r2, ror fp
    1a58:	00027600 	andeq	r7, r2, r0, lsl #12
    1a5c:	020c2a00 	andeq	r2, ip, #0, 20
    1a60:	72010000 	andvc	r0, r1, #0
    1a64:	0000059b 	muleq	r0, fp, r5
    1a68:	00000294 	muleq	r0, r4, r2
    1a6c:	0004ce2a 	andeq	ip, r4, sl, lsr #28
    1a70:	9b720100 	blls	1c81e78 <__bss_end__+0x1c77e08>
    1a74:	b2000005 	andlt	r0, r0, #5
    1a78:	2a000002 	bcs	1a88 <_start-0x6578>
    1a7c:	00000534 	andeq	r0, r0, r4, lsr r5
    1a80:	002c7201 	eoreq	r7, ip, r1, lsl #4
    1a84:	02d00000 	sbcseq	r0, r0, #0
    1a88:	682b0000 	stmdavs	fp!, {}	; <UNPREDICTABLE>
    1a8c:	d3730100 	cmnle	r3, #0, 2
    1a90:	ee00000b 	cdp	0, 0, cr0, cr0, cr11, {0}
    1a94:	2c000002 	stccs	0, cr0, [r0], {2}
    1a98:	00000211 	andeq	r0, r0, r1, lsl r2
    1a9c:	00001065 	andeq	r1, r0, r5, rrx
    1aa0:	97340305 	ldrls	r0, [r4, -r5, lsl #6]!
    1aa4:	80270000 	eorhi	r0, r7, r0
    1aa8:	e6000085 	str	r0, [r0], -r5, lsl #1
    1aac:	9a000015 	bls	1b08 <_start-0x64f8>
    1ab0:	2800000f 	stmdacs	r0, {r0, r1, r2, r3}
    1ab4:	75025001 	strvc	r5, [r2, #-1]
    1ab8:	9c270000 	stcls	0, cr0, [r7], #-0
    1abc:	95000085 	strls	r0, [r0, #-133]	; 0xffffff7b
    1ac0:	b1000017 	tstlt	r0, r7, lsl r0
    1ac4:	2800000f 	stmdacs	r0, {r0, r1, r2, r3}
    1ac8:	03055001 	movweq	r5, #20481	; 0x5001
    1acc:	000096e8 	andeq	r9, r0, r8, ror #13
    1ad0:	85a82700 	strhi	r2, [r8, #1792]!	; 0x700
    1ad4:	17950000 	ldrne	r0, [r5, r0]
    1ad8:	0fce0000 	svceq	0x00ce0000
    1adc:	01280000 			; <UNDEFINED> instruction: 0x01280000
    1ae0:	58030550 	stmdapl	r3, {r4, r6, r8, sl}
    1ae4:	28000098 	stmdacs	r0, {r3, r4, r7}
    1ae8:	75025101 	strvc	r5, [r2, #-257]	; 0xfffffeff
    1aec:	b0270000 	eorlt	r0, r7, r0
    1af0:	6a000085 	bvs	1d0c <_start-0x62f4>
    1af4:	e2000010 	and	r0, r0, #16
    1af8:	2800000f 	stmdacs	r0, {r0, r1, r2, r3}
    1afc:	74025001 	strvc	r5, [r2], #-1
    1b00:	d4270000 	strtle	r0, [r7], #-0
    1b04:	6d000085 	stcvs	0, cr0, [r0, #-532]	; 0xfffffdec
    1b08:	f6000016 			; <UNDEFINED> instruction: 0xf6000016
    1b0c:	2800000f 	stmdacs	r0, {r0, r1, r2, r3}
    1b10:	74025001 	strvc	r5, [r2], #-1
    1b14:	dc2d0000 	stcle	0, cr0, [sp], #-0
    1b18:	11000085 	smlabbne	r0, r5, r0, r0
    1b1c:	27000011 	smladcs	r0, r1, r0, r0
    1b20:	000085e4 	andeq	r8, r0, r4, ror #11
    1b24:	0000158f 	andeq	r1, r0, pc, lsl #11
    1b28:	00001013 	andeq	r1, r0, r3, lsl r0
    1b2c:	02500128 	subseq	r0, r0, #40, 2
    1b30:	2d000074 	stccs	0, cr0, [r0, #-464]	; 0xfffffe30
    1b34:	000085f0 	strdeq	r8, [r0], -r0
    1b38:	000017a0 	andeq	r1, r0, r0, lsr #15
    1b3c:	00860427 	addeq	r0, r6, r7, lsr #8
    1b40:	00179500 	andseq	r9, r7, r0, lsl #10
    1b44:	00104b00 	andseq	r4, r0, r0, lsl #22
    1b48:	50012800 	andpl	r2, r1, r0, lsl #16
    1b4c:	98240305 	stmdals	r4!, {r0, r2, r8, r9}
    1b50:	01280000 			; <UNDEFINED> instruction: 0x01280000
    1b54:	d4030551 	strle	r0, [r3], #-1361	; 0xfffffaaf
    1b58:	28000097 	stmdacs	r0, {r0, r1, r2, r4, r7}
    1b5c:	03055201 	movweq	r5, #20993	; 0x5201
    1b60:	00009734 	andeq	r9, r0, r4, lsr r7
    1b64:	02530128 	subseq	r0, r3, #40, 2
    1b68:	2d007508 	cfstr32cs	mvfx7, [r0, #-32]	; 0xffffffe0
    1b6c:	00008608 	andeq	r8, r0, r8, lsl #12
    1b70:	000017ab 	andeq	r1, r0, fp, lsr #15
    1b74:	012a0800 			; <UNDEFINED> instruction: 0x012a0800
    1b78:	10650000 	rsbne	r0, r5, r0
    1b7c:	dd090000 	stcle	0, cr0, [r9, #-0]
    1b80:	06000000 	streq	r0, [r0], -r0
    1b84:	10550e00 	subsne	r0, r5, r0, lsl #28
    1b88:	602f0000 	eorvs	r0, pc, r0
    1b8c:	01000006 	tsteq	r0, r6
    1b90:	00002559 	andeq	r2, r0, r9, asr r5
    1b94:	00849000 	addeq	r9, r4, r0
    1b98:	00006400 	andeq	r6, r0, r0, lsl #8
    1b9c:	119c0100 	orrsne	r0, ip, r0, lsl #2
    1ba0:	30000011 	andcc	r0, r0, r1, lsl r0
    1ba4:	59010068 	stmdbpl	r1, {r3, r5, r6}
    1ba8:	00000bd3 	ldrdeq	r0, [r0], -r3
    1bac:	00000317 	andeq	r0, r0, r7, lsl r3
    1bb0:	00849c27 	addeq	r9, r4, r7, lsr #24
    1bb4:	00146200 	andseq	r6, r4, r0, lsl #4
    1bb8:	0010a400 	andseq	sl, r0, r0, lsl #8
    1bbc:	50012800 	andpl	r2, r1, r0, lsl #16
    1bc0:	00007402 	andeq	r7, r0, r2, lsl #8
    1bc4:	0084ac27 	addeq	sl, r4, r7, lsr #24
    1bc8:	0016a500 	andseq	sl, r6, r0, lsl #10
    1bcc:	0010b800 	andseq	fp, r0, r0, lsl #16
    1bd0:	50012800 	andpl	r2, r1, r0, lsl #16
    1bd4:	00007402 	andeq	r7, r0, r2, lsl #8
    1bd8:	0084b827 	addeq	fp, r4, r7, lsr #16
    1bdc:	0012fc00 	andseq	pc, r2, r0, lsl #24
    1be0:	0010d200 	andseq	sp, r0, r0, lsl #4
    1be4:	51012800 	tstpl	r1, r0, lsl #16
    1be8:	28800802 	stmcs	r0, {r1, fp}
    1bec:	74025201 	strvc	r5, [r2], #-513	; 0xfffffdff
    1bf0:	c8270000 	stmdagt	r7!, {}	; <UNPREDICTABLE>
    1bf4:	36000084 	strcc	r0, [r0], -r4, lsl #1
    1bf8:	e6000016 			; <UNDEFINED> instruction: 0xe6000016
    1bfc:	28000010 	stmdacs	r0, {r4}
    1c00:	74025001 	strvc	r5, [r2], #-1
    1c04:	d4270000 	strtle	r0, [r7], #-0
    1c08:	0f000084 	svceq	0x00000084
    1c0c:	fa000016 	blx	1c6c <_start-0x6394>
    1c10:	28000010 	stmdacs	r0, {r4}
    1c14:	74025001 	strvc	r5, [r2], #-1
    1c18:	e4290000 	strt	r0, [r9], #-0
    1c1c:	fc000084 	stc2	0, cr0, [r0], {132}	; 0x84
    1c20:	28000012 	stmdacs	r0, {r1, r4}
    1c24:	75025001 	strvc	r5, [r2, #-1]
    1c28:	52012800 	andpl	r2, r1, #0, 16
    1c2c:	00007402 	andeq	r7, r0, r2, lsl #8
    1c30:	05af3100 	streq	r3, [pc, #256]!	; 1d38 <_start-0x62c8>
    1c34:	4f010000 	svcmi	0x00010000
    1c38:	0000825c 	andeq	r8, r0, ip, asr r2
    1c3c:	00000014 	andeq	r0, r0, r4, lsl r0
    1c40:	11619c01 	cmnne	r1, r1, lsl #24
    1c44:	70300000 	eorsvc	r0, r0, r0
    1c48:	1b4f0100 	blne	13c2050 <__bss_end__+0x13b7fe0>
    1c4c:	35000001 	strcc	r0, [r0, #-1]
    1c50:	2a000003 	bcs	1c64 <_start-0x639c>
    1c54:	00000672 	andeq	r0, r0, r2, ror r6
    1c58:	002c4f01 	eoreq	r4, ip, r1, lsl #30
    1c5c:	03560000 	cmpeq	r6, #0
    1c60:	6c290000 	stcvs	0, cr0, [r9], #-0
    1c64:	b6000082 	strlt	r0, [r0], -r2, lsl #1
    1c68:	28000017 	stmdacs	r0, {r0, r1, r2, r4}
    1c6c:	f3035001 	vhadd.u8	d5, d3, d1
    1c70:	01285001 			; <UNDEFINED> instruction: 0x01285001
    1c74:	fe080251 	mcr2	2, 0, r0, cr8, cr1, {2}
    1c78:	03520128 	cmpeq	r2, #40, 2
    1c7c:	005101f3 	ldrsheq	r0, [r1], #-19	; 0xffffffed
    1c80:	06022f00 	streq	r2, [r2], -r0, lsl #30
    1c84:	41010000 	mrsmi	r0, (UNDEF: 1)
    1c88:	00000025 	andeq	r0, r0, r5, lsr #32
    1c8c:	00008150 	andeq	r8, r0, r0, asr r1
    1c90:	0000010c 	andeq	r0, r0, ip, lsl #2
    1c94:	12fc9c01 	rscsne	r9, ip, #256	; 0x100
    1c98:	70300000 	eorsvc	r0, r0, r0
    1c9c:	1d410100 	stfnee	f0, [r1, #-0]
    1ca0:	82000001 	andhi	r0, r0, #1
    1ca4:	2a000003 	bcs	1cb8 <_start-0x6348>
    1ca8:	00000672 	andeq	r0, r0, r2, ror r6
    1cac:	002c4101 	eoreq	r4, ip, r1, lsl #2
    1cb0:	03b90000 			; <UNDEFINED> instruction: 0x03b90000
    1cb4:	68300000 	ldmdavs	r0!, {}	; <UNPREDICTABLE>
    1cb8:	d3410100 	movtle	r0, #4352	; 0x1100
    1cbc:	e500000b 	str	r0, [r0, #-11]
    1cc0:	2b000003 	blcs	1cd4 <_start-0x632c>
    1cc4:	42010069 	andmi	r0, r1, #105	; 0x69
    1cc8:	00000025 	andeq	r0, r0, r5, lsr #32
    1ccc:	0000040e 	andeq	r0, r0, lr, lsl #8
    1cd0:	00817832 	addeq	r7, r1, r2, lsr r8
    1cd4:	0000c000 	andeq	ip, r0, r0
    1cd8:	05d02500 	ldrbeq	r2, [r0, #1280]	; 0x500
    1cdc:	45010000 	strmi	r0, [r1, #-0]
    1ce0:	00000025 	andeq	r0, r0, r5, lsr #32
    1ce4:	00000438 	andeq	r0, r0, r8, lsr r4
    1ce8:	00177033 	andseq	r7, r7, r3, lsr r0
    1cec:	0081ac00 	addeq	sl, r1, r0, lsl #24
    1cf0:	00000000 	andeq	r0, r0, r0
    1cf4:	71460100 	mrsvc	r0, (UNDEF: 86)
    1cf8:	34000012 	strcc	r0, [r0], #-18	; 0xffffffee
    1cfc:	0000177c 	andeq	r1, r0, ip, ror r7
    1d00:	0000044b 	andeq	r0, r0, fp, asr #8
    1d04:	00000035 	andeq	r0, r0, r5, lsr r0
    1d08:	17853600 	strne	r3, [r5, r0, lsl #12]
    1d0c:	04690000 	strbteq	r0, [r9], #-0
    1d10:	b4270000 	strtlt	r0, [r7], #-0
    1d14:	95000081 	strls	r0, [r0, #-129]	; 0xffffff7f
    1d18:	06000017 			; <UNDEFINED> instruction: 0x06000017
    1d1c:	28000012 	stmdacs	r0, {r1, r4}
    1d20:	77025001 	strvc	r5, [r2, -r1]
    1d24:	c0270000 	eorgt	r0, r7, r0
    1d28:	95000081 	strls	r0, [r0, #-129]	; 0xffffff7f
    1d2c:	1d000017 	stcne	0, cr0, [r0, #-92]	; 0xffffffa4
    1d30:	28000012 	stmdacs	r0, {r1, r4}
    1d34:	03055001 	movweq	r5, #20481	; 0x5001
    1d38:	00009770 	andeq	r9, r0, r0, ror r7
    1d3c:	81d42700 	bicshi	r2, r4, r0, lsl #14
    1d40:	17950000 	ldrne	r0, [r5, r0]
    1d44:	12310000 	eorsne	r0, r1, #0
    1d48:	01280000 			; <UNDEFINED> instruction: 0x01280000
    1d4c:	00770250 	rsbseq	r0, r7, r0, asr r2
    1d50:	81e82700 	mvnhi	r2, r0, lsl #14
    1d54:	17950000 	ldrne	r0, [r5, r0]
    1d58:	12480000 	subne	r0, r8, #0
    1d5c:	01280000 			; <UNDEFINED> instruction: 0x01280000
    1d60:	7c030550 	cfstr32vc	mvfx0, [r3], {80}	; 0x50
    1d64:	00000097 	muleq	r0, r7, r0
    1d68:	00822027 	addeq	r2, r2, r7, lsr #32
    1d6c:	00179500 	andseq	r9, r7, r0, lsl #10
    1d70:	00125c00 	andseq	r5, r2, r0, lsl #24
    1d74:	50012800 	andpl	r2, r1, r0, lsl #16
    1d78:	00007702 	andeq	r7, r0, r2, lsl #14
    1d7c:	00823429 	addeq	r3, r2, r9, lsr #8
    1d80:	00179500 	andseq	r9, r7, r0, lsl #10
    1d84:	50012800 	andpl	r2, r1, r0, lsl #16
    1d88:	979c0305 	ldrls	r0, [ip, r5, lsl #6]
    1d8c:	00000000 	andeq	r0, r0, r0
    1d90:	81802700 	orrhi	r2, r0, r0, lsl #14
    1d94:	166d0000 	strbtne	r0, [sp], -r0
    1d98:	12850000 	addne	r0, r5, #0
    1d9c:	01280000 			; <UNDEFINED> instruction: 0x01280000
    1da0:	00760250 	rsbseq	r0, r6, r0, asr r2
    1da4:	81942700 	orrshi	r2, r4, r0, lsl #14
    1da8:	17950000 	ldrne	r0, [r5, r0]
    1dac:	12990000 	addsne	r0, r9, #0
    1db0:	01280000 			; <UNDEFINED> instruction: 0x01280000
    1db4:	00770250 	rsbseq	r0, r7, r0, asr r2
    1db8:	819c2700 	orrshi	r2, ip, r0, lsl #14
    1dbc:	17950000 	ldrne	r0, [r5, r0]
    1dc0:	12b00000 	adcsne	r0, r0, #0
    1dc4:	01280000 			; <UNDEFINED> instruction: 0x01280000
    1dc8:	44030550 	strmi	r0, [r3], #-1360	; 0xfffffab0
    1dcc:	00000097 	muleq	r0, r7, r0
    1dd0:	0081ac27 	addeq	sl, r1, r7, lsr #24
    1dd4:	00179500 	andseq	r9, r7, r0, lsl #10
    1dd8:	0012d300 	andseq	sp, r2, r0, lsl #6
    1ddc:	50012800 	andpl	r2, r1, r0, lsl #16
    1de0:	974c0305 	strbls	r0, [ip, -r5, lsl #6]
    1de4:	01280000 			; <UNDEFINED> instruction: 0x01280000
    1de8:	00750251 	rsbseq	r0, r5, r1, asr r2
    1dec:	02520128 	subseq	r0, r2, #40, 2
    1df0:	27000074 	smlsdxcs	r0, r4, r0, r0
    1df4:	000081fc 	strdeq	r8, [r0], -ip
    1df8:	00001795 	muleq	r0, r5, r7
    1dfc:	000012e7 	andeq	r1, r0, r7, ror #5
    1e00:	02500128 	subseq	r0, r0, #40, 2
    1e04:	29000077 	stmdbcs	r0, {r0, r1, r2, r4, r5, r6}
    1e08:	00008204 	andeq	r8, r0, r4, lsl #4
    1e0c:	00001795 	muleq	r0, r5, r7
    1e10:	05500128 	ldrbeq	r0, [r0, #-296]	; 0xfffffed8
    1e14:	0097b803 	addseq	fp, r7, r3, lsl #16
    1e18:	00000000 	andeq	r0, r0, r0
    1e1c:	0006972f 	andeq	r9, r6, pc, lsr #14
    1e20:	25340100 	ldrcs	r0, [r4, #-256]!	; 0xffffff00
    1e24:	88000000 	stmdahi	r0, {}	; <UNPREDICTABLE>
    1e28:	08000083 	stmdaeq	r0, {r0, r1, r7}
    1e2c:	01000001 	tsteq	r0, r1
    1e30:	0014629c 	mulseq	r4, ip, r2
    1e34:	00703000 	rsbseq	r3, r0, r0
    1e38:	011d3401 	tsteq	sp, r1, lsl #8
    1e3c:	048b0000 	streq	r0, [fp], #0
    1e40:	722a0000 	eorvc	r0, sl, #0
    1e44:	01000006 	tsteq	r0, r6
    1e48:	00002c34 	andeq	r2, r0, r4, lsr ip
    1e4c:	0004cd00 	andeq	ip, r4, r0, lsl #26
    1e50:	00683000 	rsbeq	r3, r8, r0
    1e54:	0bd33401 	bleq	ff4cee60 <__bss_end__+0xff4c4df0>
    1e58:	05070000 	streq	r0, [r7, #-0]
    1e5c:	692b0000 	stmdbvs	fp!, {}	; <UNPREDICTABLE>
    1e60:	25350100 	ldrcs	r0, [r5, #-256]!	; 0xffffff00
    1e64:	3b000000 	blcc	1e6c <_start-0x6194>
    1e68:	35000005 	strcc	r0, [r0, #-5]
    1e6c:	00000030 	andeq	r0, r0, r0, lsr r0
    1e70:	0005d025 	andeq	sp, r5, r5, lsr #32
    1e74:	25380100 	ldrcs	r0, [r8, #-256]!	; 0xffffff00
    1e78:	65000000 	strvs	r0, [r0, #-0]
    1e7c:	33000005 	movwcc	r0, #5
    1e80:	00001770 	andeq	r1, r0, r0, ror r7
    1e84:	000083e8 	andeq	r8, r0, r8, ror #7
    1e88:	00000048 	andeq	r0, r0, r8, asr #32
    1e8c:	14083901 	strne	r3, [r8], #-2305	; 0xfffff6ff
    1e90:	7c340000 	ldcvc	0, cr0, [r4], #-0
    1e94:	83000017 	movwhi	r0, #23
    1e98:	35000005 	strcc	r0, [r0, #-5]
    1e9c:	00000048 	andeq	r0, r0, r8, asr #32
    1ea0:	00178536 	andseq	r8, r7, r6, lsr r5
    1ea4:	0005a100 	andeq	sl, r5, r0, lsl #2
    1ea8:	83f02700 	mvnshi	r2, #0, 14
    1eac:	17950000 	ldrne	r0, [r5, r0]
    1eb0:	139d0000 	orrsne	r0, sp, #0
    1eb4:	01280000 			; <UNDEFINED> instruction: 0x01280000
    1eb8:	00770250 	rsbseq	r0, r7, r0, asr r2
    1ebc:	83fc2700 	mvnshi	r2, #0, 14
    1ec0:	17950000 	ldrne	r0, [r5, r0]
    1ec4:	13b40000 			; <UNDEFINED> instruction: 0x13b40000
    1ec8:	01280000 			; <UNDEFINED> instruction: 0x01280000
    1ecc:	70030550 	andvc	r0, r3, r0, asr r5
    1ed0:	00000097 	muleq	r0, r7, r0
    1ed4:	00841027 	addeq	r1, r4, r7, lsr #32
    1ed8:	00179500 	andseq	r9, r7, r0, lsl #10
    1edc:	0013c800 	andseq	ip, r3, r0, lsl #16
    1ee0:	50012800 	andpl	r2, r1, r0, lsl #16
    1ee4:	00007702 	andeq	r7, r0, r2, lsl #14
    1ee8:	00842427 	addeq	r2, r4, r7, lsr #8
    1eec:	00179500 	andseq	r9, r7, r0, lsl #10
    1ef0:	0013df00 	andseq	sp, r3, r0, lsl #30
    1ef4:	50012800 	andpl	r2, r1, r0, lsl #16
    1ef8:	977c0305 	ldrbls	r0, [ip, -r5, lsl #6]!
    1efc:	27000000 	strcs	r0, [r0, -r0]
    1f00:	0000844c 	andeq	r8, r0, ip, asr #8
    1f04:	00001795 	muleq	r0, r5, r7
    1f08:	000013f3 	strdeq	r1, [r0], -r3
    1f0c:	02500128 	subseq	r0, r0, #40, 2
    1f10:	29000077 	stmdbcs	r0, {r0, r1, r2, r4, r5, r6}
    1f14:	00008460 	andeq	r8, r0, r0, ror #8
    1f18:	00001795 	muleq	r0, r5, r7
    1f1c:	05500128 	ldrbeq	r0, [r0, #-296]	; 0xfffffed8
    1f20:	00979c03 	addseq	r9, r7, r3, lsl #24
    1f24:	00000000 	andeq	r0, r0, r0
    1f28:	0083b827 	addeq	fp, r3, r7, lsr #16
    1f2c:	00166d00 	andseq	r6, r6, r0, lsl #26
    1f30:	00141c00 	andseq	r1, r4, r0, lsl #24
    1f34:	50012800 	andpl	r2, r1, r0, lsl #16
    1f38:	00007602 	andeq	r7, r0, r2, lsl #12
    1f3c:	0083cc27 	addeq	ip, r3, r7, lsr #24
    1f40:	00179500 	andseq	r9, r7, r0, lsl #10
    1f44:	00143000 	andseq	r3, r4, r0
    1f48:	50012800 	andpl	r2, r1, r0, lsl #16
    1f4c:	00007702 	andeq	r7, r0, r2, lsl #14
    1f50:	0083d427 	addeq	sp, r3, r7, lsr #8
    1f54:	00179500 	andseq	r9, r7, r0, lsl #10
    1f58:	00144700 	andseq	r4, r4, r0, lsl #14
    1f5c:	50012800 	andpl	r2, r1, r0, lsl #16
    1f60:	97440305 	strbls	r0, [r4, -r5, lsl #6]
    1f64:	29000000 	stmdbcs	r0, {}	; <UNPREDICTABLE>
    1f68:	000083e8 	andeq	r8, r0, r8, ror #7
    1f6c:	00001795 	muleq	r0, r5, r7
    1f70:	05500128 	ldrbeq	r0, [r0, #-296]	; 0xfffffed8
    1f74:	00974c03 	addseq	r4, r7, r3, lsl #24
    1f78:	52012800 	andpl	r2, r1, #0, 16
    1f7c:	00007402 	andeq	r7, r0, r2, lsl #8
    1f80:	132f0000 			; <UNDEFINED> instruction: 0x132f0000
    1f84:	01000006 	tsteq	r0, r6
    1f88:	0000252a 	andeq	r2, r0, sl, lsr #10
    1f8c:	00829400 	addeq	r9, r2, r0, lsl #8
    1f90:	0000f400 	andeq	pc, r0, r0, lsl #8
    1f94:	8f9c0100 	svchi	0x009c0100
    1f98:	30000015 	andcc	r0, r0, r5, lsl r0
    1f9c:	2a010068 	bcs	42144 <__bss_end__+0x380d4>
    1fa0:	00000bd3 	ldrdeq	r0, [r0], -r3
    1fa4:	000005d0 	ldrdeq	r0, [r0], -r0	; <UNPREDICTABLE>
    1fa8:	00177033 	andseq	r7, r7, r3, lsr r0
    1fac:	0082d000 	addeq	sp, r2, r0
    1fb0:	00001800 	andeq	r1, r0, r0, lsl #16
    1fb4:	312d0100 			; <UNDEFINED> instruction: 0x312d0100
    1fb8:	34000015 	strcc	r0, [r0], #-21	; 0xffffffeb
    1fbc:	0000177c 	andeq	r1, r0, ip, ror r7
    1fc0:	00000604 	andeq	r0, r0, r4, lsl #12
    1fc4:	00001835 	andeq	r1, r0, r5, lsr r8
    1fc8:	17853600 	strne	r3, [r5, r0, lsl #12]
    1fcc:	06220000 	strteq	r0, [r2], -r0
    1fd0:	d8270000 	stmdale	r7!, {}	; <UNPREDICTABLE>
    1fd4:	95000082 	strls	r0, [r0, #-130]	; 0xffffff7e
    1fd8:	c6000017 			; <UNDEFINED> instruction: 0xc6000017
    1fdc:	28000014 	stmdacs	r0, {r2, r4}
    1fe0:	75025001 	strvc	r5, [r2, #-1]
    1fe4:	e4270000 	strt	r0, [r7], #-0
    1fe8:	95000082 	strls	r0, [r0, #-130]	; 0xffffff7e
    1fec:	dd000017 	stcle	0, cr0, [r0, #-92]	; 0xffffffa4
    1ff0:	28000014 	stmdacs	r0, {r2, r4}
    1ff4:	03055001 	movweq	r5, #20481	; 0x5001
    1ff8:	00009770 	andeq	r9, r0, r0, ror r7
    1ffc:	82f82700 	rscshi	r2, r8, #0, 14
    2000:	17950000 	ldrne	r0, [r5, r0]
    2004:	14f10000 	ldrbtne	r0, [r1], #0
    2008:	01280000 			; <UNDEFINED> instruction: 0x01280000
    200c:	00750250 	rsbseq	r0, r5, r0, asr r2
    2010:	830c2700 	movwhi	r2, #50944	; 0xc700
    2014:	17950000 	ldrne	r0, [r5, r0]
    2018:	15080000 	strne	r0, [r8, #-0]
    201c:	01280000 			; <UNDEFINED> instruction: 0x01280000
    2020:	7c030550 	cfstr32vc	mvfx0, [r3], {80}	; 0x50
    2024:	00000097 	muleq	r0, r7, r0
    2028:	00834c27 	addeq	r4, r3, r7, lsr #24
    202c:	00179500 	andseq	r9, r7, r0, lsl #10
    2030:	00151c00 	andseq	r1, r5, r0, lsl #24
    2034:	50012800 	andpl	r2, r1, r0, lsl #16
    2038:	00007502 	andeq	r7, r0, r2, lsl #10
    203c:	00836029 	addeq	r6, r3, r9, lsr #32
    2040:	00179500 	andseq	r9, r7, r0, lsl #10
    2044:	50012800 	andpl	r2, r1, r0, lsl #16
    2048:	979c0305 	ldrls	r0, [ip, r5, lsl #6]
    204c:	00000000 	andeq	r0, r0, r0
    2050:	82b82700 	adcshi	r2, r8, #0, 14
    2054:	17950000 	ldrne	r0, [r5, r0]
    2058:	15450000 	strbne	r0, [r5, #-0]
    205c:	01280000 			; <UNDEFINED> instruction: 0x01280000
    2060:	00750250 	rsbseq	r0, r5, r0, asr r2
    2064:	82c02700 	sbchi	r2, r0, #0, 14
    2068:	17950000 	ldrne	r0, [r5, r0]
    206c:	155c0000 	ldrbne	r0, [ip, #-0]
    2070:	01280000 			; <UNDEFINED> instruction: 0x01280000
    2074:	44030550 	strmi	r0, [r3], #-1360	; 0xfffffab0
    2078:	00000097 	muleq	r0, r7, r0
    207c:	0082d027 	addeq	sp, r2, r7, lsr #32
    2080:	00179500 	andseq	r9, r7, r0, lsl #10
    2084:	00157e00 	andseq	r7, r5, r0, lsl #28
    2088:	50012800 	andpl	r2, r1, r0, lsl #16
    208c:	974c0305 	strbls	r0, [ip, -r5, lsl #6]
    2090:	01280000 			; <UNDEFINED> instruction: 0x01280000
    2094:	00740251 	rsbseq	r0, r4, r1, asr r2
    2098:	01520128 	cmpeq	r2, r8, lsr #2
    209c:	28290030 	stmdacs	r9!, {r4, r5}
    20a0:	8f000083 	svchi	0x00000083
    20a4:	28000015 	stmdacs	r0, {r0, r2, r4}
    20a8:	74025001 	strvc	r5, [r2], #-1
    20ac:	2f000000 	svccs	0x00000000
    20b0:	000005df 	ldrdeq	r0, [r0], -pc	; <UNPREDICTABLE>
    20b4:	00682101 	rsbeq	r2, r8, r1, lsl #2
    20b8:	82700000 	rsbshi	r0, r0, #0
    20bc:	00240000 	eoreq	r0, r4, r0
    20c0:	9c010000 	stcls	0, cr0, [r1], {-0}
    20c4:	000015e6 	andeq	r1, r0, r6, ror #11
    20c8:	01006830 	tsteq	r0, r0, lsr r8
    20cc:	000bd321 	andeq	sp, fp, r1, lsr #6
    20d0:	00065100 	andeq	r5, r6, r0, lsl #2
    20d4:	6c6f3700 	stclvs	7, cr3, [pc], #-0	; 20dc <_start-0x5f24>
    20d8:	22010064 	andcs	r0, r1, #100	; 0x64
    20dc:	0000002c 	andeq	r0, r0, ip, lsr #32
    20e0:	e3235501 			; <UNDEFINED> instruction: 0xe3235501
    20e4:	01000005 	tsteq	r0, r5
    20e8:	00006824 	andeq	r6, r0, r4, lsr #16
    20ec:	29500100 	ldmdbcs	r0, {r8}^
    20f0:	0000828c 	andeq	r8, r0, ip, lsl #5
    20f4:	000017c1 	andeq	r1, r0, r1, asr #15
    20f8:	02500128 	subseq	r0, r0, #40, 2
    20fc:	01280074 			; <UNDEFINED> instruction: 0x01280074
    2100:	38080251 	stmdacc	r8, {r0, r4, r6, r9}
    2104:	b82f0000 	stmdalt	pc!, {}	; <UNPREDICTABLE>
    2108:	01000005 	tsteq	r0, r5
    210c:	000bd31c 	andeq	sp, fp, ip, lsl r3
    2110:	00814800 	addeq	r4, r1, r0, lsl #16
    2114:	00000800 	andeq	r0, r0, r0, lsl #16
    2118:	0f9c0100 	svceq	0x009c0100
    211c:	2a000016 	bcs	217c <_start-0x5e84>
    2120:	00000b60 	andeq	r0, r0, r0, ror #22
    2124:	011b1c01 	tsteq	fp, r1, lsl #24
    2128:	066f0000 	strbteq	r0, [pc], -r0
    212c:	2f000000 	svccs	0x00000000
    2130:	0000066c 	andeq	r0, r0, ip, ror #12
    2134:	002c1901 	eoreq	r1, ip, r1, lsl #18
    2138:	813c0000 	teqhi	ip, r0
    213c:	000c0000 	andeq	r0, ip, r0
    2140:	9c010000 	stcls	0, cr0, [r1], {-0}
    2144:	00001636 	andeq	r1, r0, r6, lsr r6
    2148:	01006830 	tsteq	r0, r0, lsr r8
    214c:	000bd319 	andeq	sp, fp, r9, lsl r3
    2150:	00069000 	andeq	r9, r6, r0
    2154:	1d2f0000 	stcne	0, cr0, [pc, #-0]	; 215c <_start-0x5ea4>
    2158:	01000006 	tsteq	r0, r6
    215c:	00011b17 	andeq	r1, r1, r7, lsl fp
    2160:	00812400 	addeq	r2, r1, r0, lsl #8
    2164:	00001800 	andeq	r1, r0, r0, lsl #16
    2168:	6d9c0100 	ldfvss	f0, [ip]
    216c:	30000016 	andcc	r0, r0, r6, lsl r0
    2170:	17010068 	strne	r0, [r1, -r8, rrx]
    2174:	00000bd3 	ldrdeq	r0, [r0], -r3
    2178:	000006b1 			; <UNDEFINED> instruction: 0x000006b1
    217c:	00813029 	addeq	r3, r1, r9, lsr #32
    2180:	00166d00 	andseq	r6, r6, r0, lsl #26
    2184:	50012800 	andpl	r2, r1, r0, lsl #16
    2188:	00007402 	andeq	r7, r0, r2, lsl #8
    218c:	05f62f00 	ldrbeq	r2, [r6, #3840]!	; 0xf00
    2190:	15010000 	strne	r0, [r1, #-0]
    2194:	0000011b 	andeq	r0, r0, fp, lsl r1
    2198:	00008114 	andeq	r8, r0, r4, lsl r1
    219c:	00000010 	andeq	r0, r0, r0, lsl r0
    21a0:	16a59c01 	strtne	r9, [r5], r1, lsl #24
    21a4:	68300000 	ldmdavs	r0!, {}	; <UNPREDICTABLE>
    21a8:	d3150100 	tstle	r5, #0, 2
    21ac:	cf00000b 	svcgt	0x0000000b
    21b0:	29000006 	stmdbcs	r0, {r1, r2}
    21b4:	0000811c 	andeq	r8, r0, ip, lsl r1
    21b8:	000016a5 	andeq	r1, r0, r5, lsr #13
    21bc:	03500128 	cmpeq	r0, #40, 2
    21c0:	005001f3 	ldrsheq	r0, [r0], #-19	; 0xffffffed
    21c4:	05532f00 	ldrbeq	r2, [r3, #-3840]	; 0xfffff100
    21c8:	13010000 	movwne	r0, #4096	; 0x1000
    21cc:	0000011b 	andeq	r0, r0, fp, lsl r1
    21d0:	0000810c 	andeq	r8, r0, ip, lsl #2
    21d4:	00000008 	andeq	r0, r0, r8
    21d8:	16cc9c01 	strbne	r9, [ip], r1, lsl #24
    21dc:	68300000 	ldmdavs	r0!, {}	; <UNPREDICTABLE>
    21e0:	d3130100 	tstle	r3, #0, 2
    21e4:	f000000b 			; <UNDEFINED> instruction: 0xf000000b
    21e8:	00000006 	andeq	r0, r0, r6
    21ec:	0001382e 	andeq	r3, r1, lr, lsr #16
    21f0:	f4090100 	vst4.8	{d0,d2,d4,d6}, [r9], r0
    21f4:	74000084 	strvc	r0, [r0], #-132	; 0xffffff7c
    21f8:	01000000 	mrseq	r0, (UNDEF: 0)
    21fc:	0017709c 	mulseq	r7, ip, r0
    2200:	0b592a00 	bleq	164ca08 <__bss_end__+0x1642998>
    2204:	09010000 	stmdbeq	r1, {}	; <UNPREDICTABLE>
    2208:	0000011b 	andeq	r0, r0, fp, lsl r1
    220c:	00000710 	andeq	r0, r0, r0, lsl r7
    2210:	01006e30 	tsteq	r0, r0, lsr lr
    2214:	00002c09 	andeq	r2, r0, r9, lsl #24
    2218:	00075600 	andeq	r5, r7, r0, lsl #12
    221c:	02112c00 	andseq	r2, r1, #0, 24
    2220:	0f140000 	svceq	0x00140000
    2224:	03050000 	movweq	r0, #20480	; 0x5000
    2228:	0000972c 	andeq	r9, r0, ip, lsr #14
    222c:	00852027 	addeq	r2, r5, r7, lsr #32
    2230:	00179500 	andseq	r9, r7, r0, lsl #10
    2234:	00172f00 	andseq	r2, r7, r0, lsl #30
    2238:	50012800 	andpl	r2, r1, r0, lsl #16
    223c:	98080305 	stmdals	r8, {r0, r2, r8, r9}
    2240:	01280000 			; <UNDEFINED> instruction: 0x01280000
    2244:	38080251 	stmdacc	r8, {r0, r4, r6, r9}
    2248:	02520128 	subseq	r0, r2, #40, 2
    224c:	2d008008 	stccs	0, cr8, [r0, #-32]	; 0xffffffe0
    2250:	0000853c 	andeq	r8, r0, ip, lsr r5
    2254:	000017a0 	andeq	r1, r0, r0, lsr #15
    2258:	00855027 	addeq	r5, r5, r7, lsr #32
    225c:	00179500 	andseq	r9, r7, r0, lsl #10
    2260:	00176600 	andseq	r6, r7, r0, lsl #12
    2264:	50012800 	andpl	r2, r1, r0, lsl #16
    2268:	97e00305 	strbls	r0, [r0, r5, lsl #6]!
    226c:	01280000 			; <UNDEFINED> instruction: 0x01280000
    2270:	d4030551 	strle	r0, [r3], #-1361	; 0xfffffaaf
    2274:	28000097 	stmdacs	r0, {r0, r1, r2, r4, r7}
    2278:	03055201 	movweq	r5, #20993	; 0x5201
    227c:	0000972c 	andeq	r9, r0, ip, lsr #14
    2280:	01530128 	cmpeq	r3, r8, lsr #2
    2284:	542d003a 	strtpl	r0, [sp], #-58	; 0xffffffc6
    2288:	ab000085 	blge	24a4 <_start-0x5b5c>
    228c:	00000017 	andeq	r0, r0, r7, lsl r0
    2290:	00064838 	andeq	r4, r6, r8, lsr r8
    2294:	03550200 	cmpeq	r5, #0, 4
    2298:	0000178f 	andeq	r1, r0, pc, lsl #15
    229c:	02006839 	andeq	r6, r0, #3735552	; 0x390000
    22a0:	000bd355 	andeq	sp, fp, r5, asr r3
    22a4:	006c3a00 	rsbeq	r3, ip, r0, lsl #20
    22a8:	178f5702 	strne	r5, [pc, r2, lsl #14]
    22ac:	0d000000 	stceq	0, cr0, [r0, #-0]
    22b0:	00091a04 	andeq	r1, r9, r4, lsl #20
    22b4:	06b53b00 	ldrteq	r3, [r5], r0, lsl #22
    22b8:	06b50000 	ldrteq	r0, [r5], r0
    22bc:	29080000 	stmdbcs	r8, {}	; <UNPREDICTABLE>
    22c0:	0001ec3b 	andeq	lr, r1, fp, lsr ip
    22c4:	0001ec00 	andeq	lr, r1, r0, lsl #24
    22c8:	3b1e0800 	blcc	7842d0 <__bss_end__+0x77a260>
    22cc:	0000028e 	andeq	r0, r0, lr, lsl #5
    22d0:	0000028e 	andeq	r0, r0, lr, lsl #5
    22d4:	8d3b6508 	cfldr32hi	mvfx6, [fp, #-32]!	; 0xffffffe0
    22d8:	8d000004 	stchi	0, cr0, [r0, #-16]
    22dc:	09000004 	stmdbeq	r0, {r2}
    22e0:	05403b19 	strbeq	r3, [r0, #-2841]	; 0xfffff4e7
    22e4:	05400000 	strbeq	r0, [r0, #-0]
    22e8:	050a0000 	streq	r0, [sl, #-0]
    22ec:	00098e00 	andeq	r8, r9, r0, lsl #28
    22f0:	1d000400 	cfstrsne	mvf0, [r0, #-0]
    22f4:	04000005 	streq	r0, [r0], #-5
    22f8:	0003c801 	andeq	ip, r3, r1, lsl #16
    22fc:	06d00c00 	ldrbeq	r0, [r0], r0, lsl #24
    2300:	06de0000 	ldrbeq	r0, [lr], r0
    2304:	89840000 	stmibhi	r4, {}	; <UNPREDICTABLE>
    2308:	00580000 	subseq	r0, r8, r0
    230c:	03710000 	cmneq	r1, #0
    2310:	bc020000 	stclt	0, cr0, [r2], {-0}
    2314:	02000006 	andeq	r0, r0, #6
    2318:	00003028 	andeq	r3, r0, r8, lsr #32
    231c:	06a80300 	strteq	r0, [r8], r0, lsl #6
    2320:	07040000 	streq	r0, [r4, -r0]
    2324:	00004700 	andeq	r4, r0, r0, lsl #14
    2328:	06cb0400 	strbeq	r0, [fp], r0, lsl #8
    232c:	00470000 	subeq	r0, r7, r0
    2330:	00000000 	andeq	r0, r0, r0
    2334:	aa020405 	bge	83350 <__bss_end__+0x792e0>
    2338:	02000006 	andeq	r0, r0, #6
    233c:	00002563 	andeq	r2, r0, r3, ror #10
    2340:	05040600 	streq	r0, [r4, #-1536]	; 0xfffffa00
    2344:	00746e69 	rsbseq	r6, r4, r9, ror #28
    2348:	66070407 	strvs	r0, [r7], -r7, lsl #8
    234c:	07000000 	streq	r0, [r0, -r0]
    2350:	02ec0601 	rsceq	r0, ip, #1048576	; 0x100000
    2354:	02070000 	andeq	r0, r7, #0
    2358:	00030605 	andeq	r0, r3, r5, lsl #12
    235c:	05040700 	streq	r0, [r4, #-1792]	; 0xfffff900
    2360:	000000af 	andeq	r0, r0, pc, lsr #1
    2364:	aa050807 	bge	144388 <__bss_end__+0x13a318>
    2368:	07000000 	streq	r0, [r0, -r0]
    236c:	02ea0801 	rsceq	r0, sl, #65536	; 0x10000
    2370:	02070000 	andeq	r0, r7, #0
    2374:	00022507 	andeq	r2, r2, r7, lsl #10
    2378:	07040700 	streq	r0, [r4, -r0, lsl #14]
    237c:	00000061 	andeq	r0, r0, r1, rrx
    2380:	5c070807 	stcpl	8, cr0, [r7], {7}
    2384:	02000000 	andeq	r0, r0, #0
    2388:	000002d8 	ldrdeq	r0, [r0], -r8
    238c:	00540703 	subseq	r0, r4, r3, lsl #14
    2390:	c7020000 	strgt	r0, [r2, -r0]
    2394:	04000002 	streq	r0, [r0], #-2
    2398:	0000702c 	andeq	r7, r0, ip, lsr #32
    239c:	03b10200 			; <UNDEFINED> instruction: 0x03b10200
    23a0:	72040000 	andvc	r0, r4, #0
    23a4:	00000070 	andeq	r0, r0, r0, ror r0
    23a8:	00026808 	andeq	r6, r2, r8, lsl #16
    23ac:	01650500 	cmneq	r5, r0, lsl #10
    23b0:	0000005b 	andeq	r0, r0, fp, asr r0
    23b4:	a6040409 	strge	r0, [r4], -r9, lsl #8
    23b8:	000000e6 	andeq	r0, r0, r6, ror #1
    23bc:	0002620a 	andeq	r6, r2, sl, lsl #4
    23c0:	bba80400 	bllt	fea033c8 <__bss_end__+0xfe9f9358>
    23c4:	0a000000 	beq	23cc <_start-0x5c34>
    23c8:	000001e5 	andeq	r0, r0, r5, ror #3
    23cc:	00e6a904 	rsceq	sl, r6, r4, lsl #18
    23d0:	0b000000 	bleq	23d8 <_start-0x5c28>
    23d4:	0000007e 	andeq	r0, r0, lr, ror r0
    23d8:	000000f6 	strdeq	r0, [r0], -r6
    23dc:	0000f60c 	andeq	pc, r0, ip, lsl #12
    23e0:	07000300 	streq	r0, [r0, -r0, lsl #6]
    23e4:	029b0704 	addseq	r0, fp, #4, 14	; 0x100000
    23e8:	080d0000 	stmdaeq	sp, {}	; <UNPREDICTABLE>
    23ec:	011ea304 	tsteq	lr, r4, lsl #6
    23f0:	9b0e0000 	blls	3823f8 <__bss_end__+0x378388>
    23f4:	04000003 	streq	r0, [r0], #-3
    23f8:	000054a5 	andeq	r5, r0, r5, lsr #9
    23fc:	a30e0000 	movwge	r0, #57344	; 0xe000
    2400:	04000003 	streq	r0, [r0], #-3
    2404:	0000c7aa 	andeq	ip, r0, sl, lsr #15
    2408:	02000400 	andeq	r0, r0, #0, 8
    240c:	0000032e 	andeq	r0, r0, lr, lsr #6
    2410:	00fdab04 	rscseq	sl, sp, r4, lsl #22
    2414:	a2020000 	andge	r0, r2, #0
    2418:	04000001 	streq	r0, [r0], #-1
    241c:	00009aaf 	andeq	r9, r0, pc, lsr #21
    2420:	3a040f00 	bcc	106028 <__bss_end__+0xfbfb8>
    2424:	07000001 	streq	r0, [r0, -r1]
    2428:	02f30801 	rscseq	r0, r3, #65536	; 0x10000
    242c:	3a100000 	bcc	402434 <__bss_end__+0x3f83c4>
    2430:	02000001 	andeq	r0, r0, #1
    2434:	00000445 	andeq	r0, r0, r5, asr #8
    2438:	008c1606 	addeq	r1, ip, r6, lsl #12
    243c:	b3030000 	movwlt	r0, #12288	; 0x3000
    2440:	18000001 	stmdane	r0, {r0}
    2444:	01a42d06 			; <UNDEFINED> instruction: 0x01a42d06
    2448:	4f0e0000 	svcmi	0x000e0000
    244c:	06000003 	streq	r0, [r0], -r3
    2450:	0001a42f 	andeq	sl, r1, pc, lsr #8
    2454:	5f110000 	svcpl	0x00110000
    2458:	3006006b 	andcc	r0, r6, fp, rrx
    245c:	00000054 	andeq	r0, r0, r4, asr r0
    2460:	03860e04 	orreq	r0, r6, #4, 28	; 0x40
    2464:	30060000 	andcc	r0, r6, r0
    2468:	00000054 	andeq	r0, r0, r4, asr r0
    246c:	019c0e08 	orrseq	r0, ip, r8, lsl #28
    2470:	30060000 	andcc	r0, r6, r0
    2474:	00000054 	andeq	r0, r0, r4, asr r0
    2478:	04a10e0c 	strteq	r0, [r1], #3596	; 0xe0c
    247c:	30060000 	andcc	r0, r6, r0
    2480:	00000054 	andeq	r0, r0, r4, asr r0
    2484:	785f1110 	ldmdavc	pc, {r4, r8, ip}^	; <UNPREDICTABLE>
    2488:	aa310600 	bge	c43c90 <__bss_end__+0xc39c20>
    248c:	14000001 	strne	r0, [r0], #-1
    2490:	51040f00 	tstpl	r4, r0, lsl #30
    2494:	0b000001 	bleq	24a0 <_start-0x5b60>
    2498:	00000146 	andeq	r0, r0, r6, asr #2
    249c:	000001ba 			; <UNDEFINED> instruction: 0x000001ba
    24a0:	0000f60c 	andeq	pc, r0, ip, lsl #12
    24a4:	03000000 	movweq	r0, #0
    24a8:	000001e0 	andeq	r0, r0, r0, ror #3
    24ac:	33350624 	teqcc	r5, #36, 12	; 0x2400000
    24b0:	0e000002 	cdpeq	0, 0, cr0, cr0, cr2, {0}
    24b4:	000000a1 	andeq	r0, r0, r1, lsr #1
    24b8:	00543706 	subseq	r3, r4, r6, lsl #14
    24bc:	0e000000 	cdpeq	0, 0, cr0, cr0, cr0, {0}
    24c0:	000003b9 			; <UNDEFINED> instruction: 0x000003b9
    24c4:	00543806 	subseq	r3, r4, r6, lsl #16
    24c8:	0e040000 	cdpeq	0, 0, cr0, cr4, cr0, {0}
    24cc:	000000c4 	andeq	r0, r0, r4, asr #1
    24d0:	00543906 	subseq	r3, r4, r6, lsl #18
    24d4:	0e080000 	cdpeq	0, 0, cr0, cr8, cr0, {0}
    24d8:	00000522 	andeq	r0, r0, r2, lsr #10
    24dc:	00543a06 	subseq	r3, r4, r6, lsl #20
    24e0:	0e0c0000 	cdpeq	0, 0, cr0, cr12, cr0, {0}
    24e4:	000002ab 	andeq	r0, r0, fp, lsr #5
    24e8:	00543b06 	subseq	r3, r4, r6, lsl #22
    24ec:	0e100000 	cdpeq	0, 1, cr0, cr0, cr0, {0}
    24f0:	00000284 	andeq	r0, r0, r4, lsl #5
    24f4:	00543c06 	subseq	r3, r4, r6, lsl #24
    24f8:	0e140000 	cdpeq	0, 1, cr0, cr4, cr0, {0}
    24fc:	000004a6 	andeq	r0, r0, r6, lsr #9
    2500:	00543d06 	subseq	r3, r4, r6, lsl #26
    2504:	0e180000 	cdpeq	0, 1, cr0, cr8, cr0, {0}
    2508:	00000310 	andeq	r0, r0, r0, lsl r3
    250c:	00543e06 	subseq	r3, r4, r6, lsl #28
    2510:	0e1c0000 	cdpeq	0, 1, cr0, cr12, cr0, {0}
    2514:	000004e9 	andeq	r0, r0, r9, ror #9
    2518:	00543f06 	subseq	r3, r4, r6, lsl #30
    251c:	00200000 	eoreq	r0, r0, r0
    2520:	00010412 	andeq	r0, r1, r2, lsl r4
    2524:	06010800 	streq	r0, [r1], -r0, lsl #16
    2528:	00027348 	andeq	r7, r2, r8, asr #6
    252c:	018f0e00 	orreq	r0, pc, r0, lsl #28
    2530:	49060000 	stmdbmi	r6, {}	; <UNPREDICTABLE>
    2534:	00000273 	andeq	r0, r0, r3, ror r2
    2538:	00000e00 	andeq	r0, r0, r0, lsl #28
    253c:	4a060000 	bmi	182544 <__bss_end__+0x1784d4>
    2540:	00000273 	andeq	r0, r0, r3, ror r2
    2544:	04371380 	ldrteq	r1, [r7], #-896	; 0xfffffc80
    2548:	4c060000 	stcmi	0, cr0, [r6], {-0}
    254c:	00000146 	andeq	r0, r0, r6, asr #2
    2550:	29130100 	ldmdbcs	r3, {r8}
    2554:	06000001 	streq	r0, [r0], -r1
    2558:	0001464f 	andeq	r4, r1, pc, asr #12
    255c:	00010400 	andeq	r0, r1, r0, lsl #8
    2560:	0000470b 	andeq	r4, r0, fp, lsl #14
    2564:	00028300 	andeq	r8, r2, r0, lsl #6
    2568:	00f60c00 	rscseq	r0, r6, r0, lsl #24
    256c:	001f0000 	andseq	r0, pc, r0
    2570:	0002b412 	andeq	fp, r2, r2, lsl r4
    2574:	06019000 	streq	r9, [r1], -r0
    2578:	0002c15b 	andeq	ip, r2, fp, asr r1
    257c:	034f0e00 	movteq	r0, #65024	; 0xfe00
    2580:	5c060000 	stcpl	0, cr0, [r6], {-0}
    2584:	000002c1 	andeq	r0, r0, r1, asr #5
    2588:	03670e00 	cmneq	r7, #0, 28
    258c:	5d060000 	stcpl	0, cr0, [r6, #-0]
    2590:	00000054 	andeq	r0, r0, r4, asr r0
    2594:	01970e04 	orrseq	r0, r7, r4, lsl #28
    2598:	5f060000 	svcpl	0x00060000
    259c:	000002c7 	andeq	r0, r0, r7, asr #5
    25a0:	01040e08 	tsteq	r4, r8, lsl #28
    25a4:	60060000 	andvs	r0, r6, r0
    25a8:	00000233 	andeq	r0, r0, r3, lsr r2
    25ac:	040f0088 	streq	r0, [pc], #-136	; 25b4 <_start-0x5a4c>
    25b0:	00000283 	andeq	r0, r0, r3, lsl #5
    25b4:	0002d70b 	andeq	sp, r2, fp, lsl #14
    25b8:	0002d700 	andeq	sp, r2, r0, lsl #14
    25bc:	00f60c00 	rscseq	r0, r6, r0, lsl #24
    25c0:	001f0000 	andseq	r0, pc, r0
    25c4:	02dd040f 	sbcseq	r0, sp, #251658240	; 0xf000000
    25c8:	03140000 	tsteq	r4, #0
    25cc:	0000031a 	andeq	r0, r0, sl, lsl r3
    25d0:	03730608 	cmneq	r3, #8, 12	; 0x800000
    25d4:	0e000003 	cdpeq	0, 0, cr0, cr0, cr3, {0}
    25d8:	000000be 	strheq	r0, [r0], -lr
    25dc:	03037406 	movweq	r7, #13318	; 0x3406
    25e0:	0e000000 	cdpeq	0, 0, cr0, cr0, cr0, {0}
    25e4:	0000001b 	andeq	r0, r0, fp, lsl r0
    25e8:	00547506 	subseq	r7, r4, r6, lsl #10
    25ec:	00040000 	andeq	r0, r4, r0
    25f0:	007e040f 	rsbseq	r0, lr, pc, lsl #8
    25f4:	39030000 	stmdbcc	r3, {}	; <UNPREDICTABLE>
    25f8:	68000003 	stmdavs	r0, {r0, r1}
    25fc:	0433b306 	ldrteq	fp, [r3], #-774	; 0xfffffcfa
    2600:	5f110000 	svcpl	0x00110000
    2604:	b4060070 	strlt	r0, [r6], #-112	; 0xffffff90
    2608:	00000303 	andeq	r0, r0, r3, lsl #6
    260c:	725f1100 	subsvc	r1, pc, #0, 2
    2610:	54b50600 	ldrtpl	r0, [r5], #1536	; 0x600
    2614:	04000000 	streq	r0, [r0], #-0
    2618:	00775f11 	rsbseq	r5, r7, r1, lsl pc
    261c:	0054b606 	subseq	fp, r4, r6, lsl #12
    2620:	0e080000 	cdpeq	0, 0, cr0, cr8, cr0, {0}
    2624:	00000122 	andeq	r0, r0, r2, lsr #2
    2628:	0069b706 	rsbeq	fp, r9, r6, lsl #14
    262c:	0e0c0000 	cdpeq	0, 0, cr0, cr12, cr0, {0}
    2630:	0000020b 	andeq	r0, r0, fp, lsl #4
    2634:	0069b806 	rsbeq	fp, r9, r6, lsl #16
    2638:	110e0000 	mrsne	r0, (UNDEF: 14)
    263c:	0066625f 	rsbeq	r6, r6, pc, asr r2
    2640:	02deb906 	sbcseq	fp, lr, #98304	; 0x18000
    2644:	0e100000 	cdpeq	0, 1, cr0, cr0, cr0, {0}
    2648:	0000007b 	andeq	r0, r0, fp, ror r0
    264c:	0054ba06 	subseq	fp, r4, r6, lsl #20
    2650:	0e180000 	cdpeq	0, 1, cr0, cr8, cr0, {0}
    2654:	00000112 	andeq	r0, r0, r2, lsl r1
    2658:	0047c106 	subeq	ip, r7, r6, lsl #2
    265c:	0e1c0000 	cdpeq	0, 1, cr0, cr12, cr0, {0}
    2660:	00000a78 	andeq	r0, r0, r8, ror sl
    2664:	058ec306 	streq	ip, [lr, #774]	; 0x306
    2668:	0e200000 	cdpeq	0, 2, cr0, cr0, cr0, {0}
    266c:	0000060c 	andeq	r0, r0, ip, lsl #12
    2670:	05b8c506 	ldreq	ip, [r8, #1286]!	; 0x506
    2674:	0e240000 	cdpeq	0, 2, cr0, cr4, cr0, {0}
    2678:	000003ab 	andeq	r0, r0, fp, lsr #7
    267c:	05dcc806 	ldrbeq	ip, [ip, #2054]	; 0x806
    2680:	0e280000 	cdpeq	0, 2, cr0, cr8, cr0, {0}
    2684:	00000503 	andeq	r0, r0, r3, lsl #10
    2688:	05f6c906 	ldrbeq	ip, [r6, #2310]!	; 0x906
    268c:	112c0000 			; <UNDEFINED> instruction: 0x112c0000
    2690:	0062755f 	rsbeq	r7, r2, pc, asr r5
    2694:	02decc06 	sbcseq	ip, lr, #1536	; 0x600
    2698:	11300000 	teqne	r0, r0
    269c:	0070755f 	rsbseq	r7, r0, pc, asr r5
    26a0:	0303cd06 	movweq	ip, #15622	; 0x3d06
    26a4:	11380000 	teqne	r8, r0
    26a8:	0072755f 	rsbseq	r7, r2, pc, asr r5
    26ac:	0054ce06 	subseq	ip, r4, r6, lsl #28
    26b0:	0e3c0000 	cdpeq	0, 3, cr0, cr12, cr0, {0}
    26b4:	000000b8 	strheq	r0, [r0], -r8
    26b8:	05fcd106 	ldrbeq	sp, [ip, #262]!	; 0x106
    26bc:	0e400000 	cdpeq	0, 4, cr0, cr0, cr0, {0}
    26c0:	000004db 	ldrdeq	r0, [r0], -fp
    26c4:	060cd206 	streq	sp, [ip], -r6, lsl #4
    26c8:	11430000 	mrsne	r0, (UNDEF: 67)
    26cc:	00626c5f 	rsbeq	r6, r2, pc, asr ip
    26d0:	02ded506 	sbcseq	sp, lr, #25165824	; 0x1800000
    26d4:	0e440000 	cdpeq	0, 4, cr0, cr4, cr0, {0}
    26d8:	00000140 	andeq	r0, r0, r0, asr #2
    26dc:	0054d806 	subseq	sp, r4, r6, lsl #16
    26e0:	0e4c0000 	cdpeq	0, 4, cr0, cr12, cr0, {0}
    26e4:	00000151 	andeq	r0, r0, r1, asr r1
    26e8:	00a5d906 	adceq	sp, r5, r6, lsl #18
    26ec:	0e500000 	cdpeq	0, 5, cr0, cr0, cr0, {0}
    26f0:	00000a19 	andeq	r0, r0, r9, lsl sl
    26f4:	0451dc06 	ldrbeq	sp, [r1], #-3078	; 0xfffff3fa
    26f8:	0e540000 	cdpeq	0, 5, cr0, cr4, cr0, {0}
    26fc:	00000276 	andeq	r0, r0, r6, ror r2
    2700:	0129e006 			; <UNDEFINED> instruction: 0x0129e006
    2704:	0e580000 	cdpeq	0, 5, cr0, cr8, cr0, {0}
    2708:	00000341 	andeq	r0, r0, r1, asr #6
    270c:	011ee206 	tsteq	lr, r6, lsl #4
    2710:	0e5c0000 	cdpeq	0, 5, cr0, cr12, cr0, {0}
    2714:	0000027c 	andeq	r0, r0, ip, ror r2
    2718:	0054e306 	subseq	lr, r4, r6, lsl #6
    271c:	00640000 	rsbeq	r0, r4, r0
    2720:	00005415 	andeq	r5, r0, r5, lsl r4
    2724:	00045100 	andeq	r5, r4, r0, lsl #2
    2728:	04511600 	ldrbeq	r1, [r1], #-1536	; 0xfffffa00
    272c:	47160000 	ldrmi	r0, [r6, -r0]
    2730:	16000000 	strne	r0, [r0], -r0
    2734:	00000134 	andeq	r0, r0, r4, lsr r1
    2738:	00005416 	andeq	r5, r0, r6, lsl r4
    273c:	040f0000 	streq	r0, [pc], #-0	; 2744 <_start-0x58bc>
    2740:	0000045c 	andeq	r0, r0, ip, asr r4
    2744:	00045110 	andeq	r5, r4, r0, lsl r1
    2748:	038e1700 	orreq	r1, lr, #0, 14
    274c:	04280000 	strteq	r0, [r8], #-0
    2750:	8e023806 	cdphi	8, 0, cr3, cr2, cr6, {0}
    2754:	18000005 	stmdane	r0, {r0, r2}
    2758:	000002ff 	strdeq	r0, [r0], -pc	; <UNPREDICTABLE>
    275c:	54023a06 	strpl	r3, [r2], #-2566	; 0xfffff5fa
    2760:	00000000 	andeq	r0, r0, r0
    2764:	00013118 	andeq	r3, r1, r8, lsl r1
    2768:	023f0600 	eorseq	r0, pc, #0, 12
    276c:	00000663 	andeq	r0, r0, r3, ror #12
    2770:	01fb1804 	mvnseq	r1, r4, lsl #16
    2774:	3f060000 	svccc	0x00060000
    2778:	00066302 	andeq	r6, r6, r2, lsl #6
    277c:	ab180800 	blge	604784 <__bss_end__+0x5fa714>
    2780:	06000001 	streq	r0, [r0], -r1
    2784:	0663023f 			; <UNDEFINED> instruction: 0x0663023f
    2788:	180c0000 	stmdane	ip, {}	; <UNPREDICTABLE>
    278c:	00000362 	andeq	r0, r0, r2, ror #6
    2790:	54024106 	strpl	r4, [r2], #-262	; 0xfffffefa
    2794:	10000000 	andne	r0, r0, r0
    2798:	00002918 	andeq	r2, r0, r8, lsl r9
    279c:	02420600 	subeq	r0, r2, #0, 12
    27a0:	00000845 	andeq	r0, r0, r5, asr #16
    27a4:	047b1814 	ldrbteq	r1, [fp], #-2068	; 0xfffff7ec
    27a8:	44060000 	strmi	r0, [r6], #-0
    27ac:	00005402 	andeq	r5, r0, r2, lsl #8
    27b0:	6c183000 	ldcvs	0, cr3, [r8], {-0}
    27b4:	06000003 	streq	r0, [r0], -r3
    27b8:	05b20245 	ldreq	r0, [r2, #581]!	; 0x245
    27bc:	18340000 	ldmdane	r4!, {}	; <UNPREDICTABLE>
    27c0:	000002bc 			; <UNDEFINED> instruction: 0x000002bc
    27c4:	54024706 	strpl	r4, [r2], #-1798	; 0xfffff8fa
    27c8:	38000000 	stmdacc	r0, {}	; <UNPREDICTABLE>
    27cc:	00037c18 	andeq	r7, r3, r8, lsl ip
    27d0:	02490600 	subeq	r0, r9, #0, 12
    27d4:	00000860 	andeq	r0, r0, r0, ror #16
    27d8:	025a183c 	subseq	r1, sl, #60, 16	; 0x3c0000
    27dc:	4c060000 	stcmi	0, cr0, [r6], {-0}
    27e0:	0001a402 	andeq	sl, r1, r2, lsl #8
    27e4:	ca184000 	bgt	6127ec <__bss_end__+0x60877c>
    27e8:	06000001 	streq	r0, [r0], -r1
    27ec:	0054024d 	subseq	r0, r4, sp, asr #4
    27f0:	18440000 	stmdane	r4, {}^	; <UNPREDICTABLE>
    27f4:	0000051d 	andeq	r0, r0, sp, lsl r5
    27f8:	a4024e06 	strge	r4, [r2], #-3590	; 0xfffff1fa
    27fc:	48000001 	stmdami	r0, {r0}
    2800:	0002ce18 	andeq	ip, r2, r8, lsl lr
    2804:	024f0600 	subeq	r0, pc, #0, 12
    2808:	00000866 	andeq	r0, r0, r6, ror #16
    280c:	0203184c 	andeq	r1, r3, #76, 16	; 0x4c0000
    2810:	52060000 	andpl	r0, r6, #0
    2814:	00005402 	andeq	r5, r0, r2, lsl #8
    2818:	49185000 	ldmdbmi	r8, {ip, lr}
    281c:	06000001 	streq	r0, [r0], -r1
    2820:	01340253 	teqeq	r4, r3, asr r2
    2824:	18540000 	ldmdane	r4, {}^	; <UNPREDICTABLE>
    2828:	000002f8 	strdeq	r0, [r0], -r8
    282c:	23027606 	movwcs	r7, #9734	; 0x2606
    2830:	58000008 	stmdapl	r0, {r3}
    2834:	0002b419 	andeq	fp, r2, r9, lsl r4
    2838:	027a0600 	rsbseq	r0, sl, #0, 12
    283c:	000002c1 	andeq	r0, r0, r1, asr #5
    2840:	38190148 	ldmdacc	r9, {r3, r6, r8}
    2844:	06000002 	streq	r0, [r0], -r2
    2848:	0283027b 	addeq	r0, r3, #-1342177273	; 0xb0000007
    284c:	014c0000 	mrseq	r0, (UNDEF: 76)
    2850:	0004c919 	andeq	ip, r4, r9, lsl r9
    2854:	027f0600 	rsbseq	r0, pc, #0, 12
    2858:	00000877 	andeq	r0, r0, r7, ror r8
    285c:	1a1902dc 	bne	6433d4 <__bss_end__+0x639364>
    2860:	06000001 	streq	r0, [r0], -r1
    2864:	06280284 	strteq	r0, [r8], -r4, lsl #5
    2868:	02e00000 	rsceq	r0, r0, #0
    286c:	0000ff19 	andeq	pc, r0, r9, lsl pc	; <UNPREDICTABLE>
    2870:	02850600 	addeq	r0, r5, #0, 12
    2874:	00000883 	andeq	r0, r0, r3, lsl #17
    2878:	0f0002ec 	svceq	0x000002ec
    287c:	00043304 	andeq	r3, r4, r4, lsl #6
    2880:	00541500 	subseq	r1, r4, r0, lsl #10
    2884:	05b20000 	ldreq	r0, [r2, #0]!
    2888:	51160000 	tstpl	r6, r0
    288c:	16000004 	strne	r0, [r0], -r4
    2890:	00000047 	andeq	r0, r0, r7, asr #32
    2894:	0005b216 	andeq	fp, r5, r6, lsl r2
    2898:	00541600 	subseq	r1, r4, r0, lsl #12
    289c:	0f000000 	svceq	0x00000000
    28a0:	00014104 	andeq	r4, r1, r4, lsl #2
    28a4:	94040f00 	strls	r0, [r4], #-3840	; 0xfffff100
    28a8:	15000005 	strne	r0, [r0, #-5]
    28ac:	000000b0 	strheq	r0, [r0], -r0	; <UNPREDICTABLE>
    28b0:	000005dc 	ldrdeq	r0, [r0], -ip
    28b4:	00045116 	andeq	r5, r4, r6, lsl r1
    28b8:	00471600 	subeq	r1, r7, r0, lsl #12
    28bc:	b0160000 	andslt	r0, r6, r0
    28c0:	16000000 	strne	r0, [r0], -r0
    28c4:	00000054 	andeq	r0, r0, r4, asr r0
    28c8:	be040f00 	cdplt	15, 0, cr0, cr4, cr0, {0}
    28cc:	15000005 	strne	r0, [r0, #-5]
    28d0:	00000054 	andeq	r0, r0, r4, asr r0
    28d4:	000005f6 	strdeq	r0, [r0], -r6
    28d8:	00045116 	andeq	r5, r4, r6, lsl r1
    28dc:	00471600 	subeq	r1, r7, r0, lsl #12
    28e0:	0f000000 	svceq	0x00000000
    28e4:	0005e204 	andeq	lr, r5, r4, lsl #4
    28e8:	007e0b00 	rsbseq	r0, lr, r0, lsl #22
    28ec:	060c0000 	streq	r0, [ip], -r0
    28f0:	f60c0000 			; <UNDEFINED> instruction: 0xf60c0000
    28f4:	02000000 	andeq	r0, r0, #0
    28f8:	007e0b00 	rsbseq	r0, lr, r0, lsl #22
    28fc:	061c0000 	ldreq	r0, [ip], -r0
    2900:	f60c0000 			; <UNDEFINED> instruction: 0xf60c0000
    2904:	00000000 	andeq	r0, r0, r0
    2908:	03270800 			; <UNDEFINED> instruction: 0x03270800
    290c:	1d060000 	stcne	0, cr0, [r6, #-0]
    2910:	00030901 	andeq	r0, r3, r1, lsl #18
    2914:	04b01a00 	ldrteq	r1, [r0], #2560	; 0xa00
    2918:	060c0000 	streq	r0, [ip], -r0
    291c:	065d0121 	ldrbeq	r0, [sp], -r1, lsr #2
    2920:	4f180000 	svcmi	0x00180000
    2924:	06000003 	streq	r0, [r0], -r3
    2928:	065d0123 	ldrbeq	r0, [sp], -r3, lsr #2
    292c:	18000000 	stmdane	r0, {}	; <UNPREDICTABLE>
    2930:	0000021e 	andeq	r0, r0, lr, lsl r2
    2934:	54012406 	strpl	r2, [r1], #-1030	; 0xfffffbfa
    2938:	04000000 	streq	r0, [r0], #-0
    293c:	00032118 	andeq	r2, r3, r8, lsl r1
    2940:	01250600 			; <UNDEFINED> instruction: 0x01250600
    2944:	00000663 	andeq	r0, r0, r3, ror #12
    2948:	040f0008 	streq	r0, [pc], #-8	; 2950 <_start-0x56b0>
    294c:	00000628 	andeq	r0, r0, r8, lsr #12
    2950:	061c040f 	ldreq	r0, [ip], -pc, lsl #8
    2954:	211a0000 	tstcs	sl, r0
    2958:	0e000000 	cdpeq	0, 0, cr0, cr0, cr0, {0}
    295c:	9e013d06 	cdpls	13, 0, cr3, cr1, cr6, {0}
    2960:	18000006 	stmdane	r0, {r1, r2}
    2964:	00000395 	muleq	r0, r5, r3
    2968:	9e013e06 	cdpls	14, 0, cr3, cr1, cr6, {0}
    296c:	00000006 	andeq	r0, r0, r6
    2970:	0003c218 	andeq	ip, r3, r8, lsl r2
    2974:	013f0600 	teqeq	pc, r0, lsl #12
    2978:	0000069e 	muleq	r0, lr, r6
    297c:	04401806 	strbeq	r1, [r0], #-2054	; 0xfffff7fa
    2980:	40060000 	andmi	r0, r6, r0
    2984:	00008501 	andeq	r8, r0, r1, lsl #10
    2988:	0b000c00 	bleq	5990 <_start-0x2670>
    298c:	00000085 	andeq	r0, r0, r5, lsl #1
    2990:	000006ae 	andeq	r0, r0, lr, lsr #13
    2994:	0000f60c 	andeq	pc, r0, ip, lsl #12
    2998:	1b000200 	blne	31a0 <_start-0x4e60>
    299c:	025706d0 	subseq	r0, r7, #208, 12	; 0xd000000
    29a0:	000007af 	andeq	r0, r0, pc, lsr #15
    29a4:	00049418 	andeq	r9, r4, r8, lsl r4
    29a8:	02590600 	subseq	r0, r9, #0, 12
    29ac:	0000005b 	andeq	r0, r0, fp, asr r0
    29b0:	042a1800 	strteq	r1, [sl], #-2048	; 0xfffff800
    29b4:	5a060000 	bpl	1829bc <__bss_end__+0x17894c>
    29b8:	00013402 	andeq	r3, r1, r2, lsl #8
    29bc:	4d180400 	cfldrsmi	mvf0, [r8, #-0]
    29c0:	06000002 	streq	r0, [r0], -r2
    29c4:	07af025b 	sbfxeq	r0, fp, #4, #16
    29c8:	18080000 	stmdane	r8, {}	; <UNPREDICTABLE>
    29cc:	000004f4 	strdeq	r0, [r0], -r4
    29d0:	ba025c06 	blt	999f0 <__bss_end__+0x8f980>
    29d4:	24000001 	strcs	r0, [r0], #-1
    29d8:	0001bb18 	andeq	fp, r1, r8, lsl fp
    29dc:	025d0600 	subseq	r0, sp, #0, 12
    29e0:	00000054 	andeq	r0, r0, r4, asr r0
    29e4:	034a1848 	movteq	r1, #43080	; 0xa848
    29e8:	5e060000 	cdppl	0, 0, cr0, cr6, cr0, {0}
    29ec:	00009302 	andeq	r9, r0, r2, lsl #6
    29f0:	0a185000 	beq	6169f8 <__bss_end__+0x60c988>
    29f4:	06000005 	streq	r0, [r0], -r5
    29f8:	0669025f 			; <UNDEFINED> instruction: 0x0669025f
    29fc:	18580000 	ldmdane	r8, {}^	; <UNPREDICTABLE>
    2a00:	00000355 	andeq	r0, r0, r5, asr r3
    2a04:	1e026006 	cdpne	0, 0, cr6, cr2, cr6, {0}
    2a08:	68000001 	stmdavs	r0, {r0}
    2a0c:	00050f18 	andeq	r0, r5, r8, lsl pc
    2a10:	02610600 	rsbeq	r0, r1, #0, 12
    2a14:	0000011e 	andeq	r0, r0, lr, lsl r1
    2a18:	00931870 	addseq	r1, r3, r0, ror r8
    2a1c:	62060000 	andvs	r0, r6, #0
    2a20:	00011e02 	andeq	r1, r1, r2, lsl #28
    2a24:	bf187800 	svclt	0x00187800
    2a28:	06000004 	streq	r0, [r0], -r4
    2a2c:	07bf0263 	ldreq	r0, [pc, r3, ror #4]!
    2a30:	18800000 	stmne	r0, {}	; <UNPREDICTABLE>
    2a34:	00000241 	andeq	r0, r0, r1, asr #4
    2a38:	cf026406 	svcgt	0x00026406
    2a3c:	88000007 	stmdahi	r0, {r0, r1, r2}
    2a40:	00044d18 	andeq	r4, r4, r8, lsl sp
    2a44:	02650600 	rsbeq	r0, r5, #0, 12
    2a48:	00000054 	andeq	r0, r0, r4, asr r0
    2a4c:	018118a0 	orreq	r1, r1, r0, lsr #17
    2a50:	66060000 	strvs	r0, [r6], -r0
    2a54:	00011e02 	andeq	r1, r1, r2, lsl #28
    2a58:	8418a400 	ldrhi	sl, [r8], #-1024	; 0xfffffc00
    2a5c:	06000000 	streq	r0, [r0], -r0
    2a60:	011e0267 	tsteq	lr, r7, ror #4
    2a64:	18ac0000 	stmiane	ip!, {}	; <UNPREDICTABLE>
    2a68:	00000170 	andeq	r0, r0, r0, ror r1
    2a6c:	1e026806 	cdpne	8, 0, cr6, cr2, cr6, {0}
    2a70:	b4000001 	strlt	r0, [r0], #-1
    2a74:	00003c18 	andeq	r3, r0, r8, lsl ip
    2a78:	02690600 	rsbeq	r0, r9, #0, 12
    2a7c:	0000011e 	andeq	r0, r0, lr, lsl r1
    2a80:	004b18bc 	strheq	r1, [fp], #-140	; 0xffffff74
    2a84:	6a060000 	bvs	182a8c <__bss_end__+0x178a1c>
    2a88:	00011e02 	andeq	r1, r1, r2, lsl #28
    2a8c:	fd18c400 	ldc2	4, cr12, [r8, #-0]
    2a90:	06000002 	streq	r0, [r0], -r2
    2a94:	0054026b 	subseq	r0, r4, fp, ror #4
    2a98:	00cc0000 	sbceq	r0, ip, r0
    2a9c:	00013a0b 	andeq	r3, r1, fp, lsl #20
    2aa0:	0007bf00 	andeq	fp, r7, r0, lsl #30
    2aa4:	00f60c00 	rscseq	r0, r6, r0, lsl #24
    2aa8:	00190000 	andseq	r0, r9, r0
    2aac:	00013a0b 	andeq	r3, r1, fp, lsl #20
    2ab0:	0007cf00 	andeq	ip, r7, r0, lsl #30
    2ab4:	00f60c00 	rscseq	r0, r6, r0, lsl #24
    2ab8:	00070000 	andeq	r0, r7, r0
    2abc:	00013a0b 	andeq	r3, r1, fp, lsl #20
    2ac0:	0007df00 	andeq	sp, r7, r0, lsl #30
    2ac4:	00f60c00 	rscseq	r0, r6, r0, lsl #24
    2ac8:	00170000 	andseq	r0, r7, r0
    2acc:	7006f01b 	andvc	pc, r6, fp, lsl r0	; <UNPREDICTABLE>
    2ad0:	00080302 	andeq	r0, r8, r2, lsl #6
    2ad4:	02a41800 	adceq	r1, r4, #0, 16
    2ad8:	73060000 	movwvc	r0, #24576	; 0x6000
    2adc:	00080302 	andeq	r0, r8, r2, lsl #6
    2ae0:	b6180000 	ldrlt	r0, [r8], -r0
    2ae4:	06000004 	streq	r0, [r0], -r4
    2ae8:	08130274 	ldmdaeq	r3, {r2, r4, r5, r6, r9}
    2aec:	00780000 	rsbseq	r0, r8, r0
    2af0:	0003030b 	andeq	r0, r3, fp, lsl #6
    2af4:	00081300 	andeq	r1, r8, r0, lsl #6
    2af8:	00f60c00 	rscseq	r0, r6, r0, lsl #24
    2afc:	001d0000 	andseq	r0, sp, r0
    2b00:	00005b0b 	andeq	r5, r0, fp, lsl #22
    2b04:	00082300 	andeq	r2, r8, r0, lsl #6
    2b08:	00f60c00 	rscseq	r0, r6, r0, lsl #24
    2b0c:	001d0000 	andseq	r0, sp, r0
    2b10:	5506f01c 	strpl	pc, [r6, #-28]	; 0xffffffe4
    2b14:	00084502 	andeq	r4, r8, r2, lsl #10
    2b18:	038e1d00 	orreq	r1, lr, #0, 26
    2b1c:	6c060000 	stcvs	0, cr0, [r6], {-0}
    2b20:	0006ae02 	andeq	sl, r6, r2, lsl #28
    2b24:	04e11d00 	strbteq	r1, [r1], #3328	; 0xd00
    2b28:	75060000 	strvc	r0, [r6, #-0]
    2b2c:	0007df02 	andeq	sp, r7, r2, lsl #30
    2b30:	3a0b0000 	bcc	2c2b38 <__bss_end__+0x2b8ac8>
    2b34:	55000001 	strpl	r0, [r0, #-1]
    2b38:	0c000008 	stceq	0, cr0, [r0], {8}
    2b3c:	000000f6 	strdeq	r0, [r0], -r6
    2b40:	601e0018 	andsvs	r0, lr, r8, lsl r0
    2b44:	16000008 	strne	r0, [r0], -r8
    2b48:	00000451 	andeq	r0, r0, r1, asr r4
    2b4c:	55040f00 	strpl	r0, [r4, #-3840]	; 0xfffff100
    2b50:	0f000008 	svceq	0x00000008
    2b54:	0001a404 	andeq	sl, r1, r4, lsl #8
    2b58:	08771e00 	ldmdaeq	r7!, {r9, sl, fp, ip}^
    2b5c:	54160000 	ldrpl	r0, [r6], #-0
    2b60:	00000000 	andeq	r0, r0, r0
    2b64:	087d040f 	ldmdaeq	sp!, {r0, r1, r2, r3, sl}^
    2b68:	040f0000 	streq	r0, [pc], #-0	; 2b70 <_start-0x5490>
    2b6c:	0000086c 	andeq	r0, r0, ip, ror #16
    2b70:	00061c0b 	andeq	r1, r6, fp, lsl #24
    2b74:	00089300 	andeq	r9, r8, r0, lsl #6
    2b78:	00f60c00 	rscseq	r0, r6, r0, lsl #24
    2b7c:	00020000 	andeq	r0, r2, r0
    2b80:	00046f1f 	andeq	r6, r4, pc, lsl pc
    2b84:	02fd0600 	rscseq	r0, sp, #0, 12
    2b88:	00000451 	andeq	r0, r0, r1, asr r4
    2b8c:	0004681f 	andeq	r6, r4, pc, lsl r8
    2b90:	02fe0600 	rscseq	r0, lr, #0, 12
    2b94:	00000457 	andeq	r0, r0, r7, asr r4
    2b98:	00005415 	andeq	r5, r0, r5, lsl r4
    2b9c:	0008ba00 	andeq	fp, r8, r0, lsl #20
    2ba0:	00541600 	subseq	r1, r4, r0, lsl #12
    2ba4:	20000000 	andcs	r0, r0, r0
    2ba8:	000001d4 	ldrdeq	r0, [r0], -r4
    2bac:	08c51d08 	stmiaeq	r5, {r3, r8, sl, fp, ip}^
    2bb0:	040f0000 	streq	r0, [pc], #-0	; 2bb8 <_start-0x5448>
    2bb4:	000008ab 	andeq	r0, r0, fp, lsr #17
    2bb8:	00005415 	andeq	r5, r0, r5, lsl r4
    2bbc:	0008da00 	andeq	sp, r8, r0, lsl #20
    2bc0:	05b21600 	ldreq	r1, [r2, #1536]!	; 0x600
    2bc4:	20000000 	andcs	r0, r0, r0
    2bc8:	00000769 	andeq	r0, r0, r9, ror #14
    2bcc:	08e52208 	stmiaeq	r5!, {r3, r9, sp}^
    2bd0:	040f0000 	streq	r0, [pc], #-0	; 2bd8 <_start-0x5428>
    2bd4:	000008cb 	andeq	r0, r0, fp, asr #17
    2bd8:	0006b521 	andeq	fp, r6, r1, lsr #10
    2bdc:	54060100 	strpl	r0, [r6], #-256	; 0xffffff00
    2be0:	84000000 	strhi	r0, [r0], #-0
    2be4:	58000089 	stmdapl	r0, {r0, r3, r7}
    2be8:	01000000 	mrseq	r0, (UNDEF: 0)
    2bec:	0009759c 	muleq	r9, ip, r5
    2bf0:	6d662200 	sfmvs	f2, 2, [r6, #-0]
    2bf4:	06010074 			; <UNDEFINED> instruction: 0x06010074
    2bf8:	000005b2 			; <UNDEFINED> instruction: 0x000005b2
    2bfc:	23709102 	cmncs	r0, #-2147483648	; 0x80000000
    2c00:	66756224 	ldrbtvs	r6, [r5], -r4, lsr #4
    2c04:	75080100 	strvc	r0, [r8, #-256]	; 0xffffff00
    2c08:	05000009 	streq	r0, [r0, #-9]
    2c0c:	009c6c03 	addseq	r6, ip, r3, lsl #24
    2c10:	010d2500 	tsteq	sp, r0, lsl #10
    2c14:	09010000 	stmdbeq	r1, {}	; <UNPREDICTABLE>
    2c18:	00000049 	andeq	r0, r0, r9, asr #32
    2c1c:	265c9102 	ldrbcs	r9, [ip], -r2, lsl #2
    2c20:	01007a73 	tsteq	r0, r3, ror sl
    2c24:	0000540c 	andeq	r5, r0, ip, lsl #8
    2c28:	00078d00 	andeq	r8, r7, r0, lsl #26
    2c2c:	89ac2700 	stmibhi	ip!, {r8, r9, sl, sp}
    2c30:	09860000 	stmibeq	r6, {}	; <UNPREDICTABLE>
    2c34:	09680000 	stmdbeq	r8!, {}^	; <UNPREDICTABLE>
    2c38:	01280000 			; <UNDEFINED> instruction: 0x01280000
    2c3c:	00740250 	rsbseq	r0, r4, r0, asr r2
    2c40:	03510128 	cmpeq	r1, #40, 2
    2c44:	2804000a 	stmdacs	r4, {r1, r3}
    2c48:	91035201 	tstls	r3, r1, lsl #4
    2c4c:	01280648 			; <UNDEFINED> instruction: 0x01280648
    2c50:	4c910253 	lfmmi	f0, 4, [r1], {83}	; 0x53
    2c54:	89c02900 	stmibhi	r0, {r8, fp, sp}^
    2c58:	01280000 			; <UNDEFINED> instruction: 0x01280000
    2c5c:	00740250 	rsbseq	r0, r4, r0, asr r2
    2c60:	3a0b0000 	bcc	2c2c68 <__bss_end__+0x2b8bf8>
    2c64:	86000001 	strhi	r0, [r0], -r1
    2c68:	2a000009 	bcs	2c94 <_start-0x536c>
    2c6c:	000000f6 	strdeq	r0, [r0], -r6
    2c70:	2b0003ff 	blcs	3c74 <_start-0x438c>
    2c74:	000006b2 			; <UNDEFINED> instruction: 0x000006b2
    2c78:	000006b2 			; <UNDEFINED> instruction: 0x000006b2
    2c7c:	70000209 	andvc	r0, r0, r9, lsl #4
    2c80:	0400000e 	streq	r0, [r0], #-14
    2c84:	00074900 	andeq	r4, r7, r0, lsl #18
    2c88:	c8010400 	stmdagt	r1, {sl}
    2c8c:	0c000003 	stceq	0, cr0, [r0], {3}
    2c90:	000006fa 	strdeq	r0, [r0], -sl
    2c94:	000006de 	ldrdeq	r0, [r0], -lr
    2c98:	000089dc 	ldrdeq	r8, [r0], -ip
    2c9c:	00000544 	andeq	r0, r0, r4, asr #10
    2ca0:	00000475 	andeq	r0, r0, r5, ror r4
    2ca4:	69050402 	stmdbvs	r5, {r1, sl}
    2ca8:	0300746e 	movweq	r7, #1134	; 0x46e
    2cac:	00660704 	rsbeq	r0, r6, r4, lsl #14
    2cb0:	01030000 	mrseq	r0, (UNDEF: 3)
    2cb4:	0002ec06 	andeq	lr, r2, r6, lsl #24
    2cb8:	05020300 	streq	r0, [r2, #-768]	; 0xfffffd00
    2cbc:	00000306 	andeq	r0, r0, r6, lsl #6
    2cc0:	af050403 	svcge	0x00050403
    2cc4:	03000000 	movweq	r0, #0
    2cc8:	00aa0508 	adceq	r0, sl, r8, lsl #10
    2ccc:	01030000 	mrseq	r0, (UNDEF: 3)
    2cd0:	0002ea08 	andeq	lr, r2, r8, lsl #20
    2cd4:	07020300 	streq	r0, [r2, -r0, lsl #6]
    2cd8:	00000225 	andeq	r0, r0, r5, lsr #4
    2cdc:	61070403 	tstvs	r7, r3, lsl #8
    2ce0:	03000000 	movweq	r0, #0
    2ce4:	005c0708 	subseq	r0, ip, r8, lsl #14
    2ce8:	d8040000 	stmdale	r4, {}	; <UNPREDICTABLE>
    2cec:	02000002 	andeq	r0, r0, #2
    2cf0:	00002507 	andeq	r2, r0, r7, lsl #10
    2cf4:	02c70400 	sbceq	r0, r7, #0, 8
    2cf8:	2c030000 	stccs	0, cr0, [r3], {-0}
    2cfc:	00000041 	andeq	r0, r0, r1, asr #32
    2d00:	0003b104 	andeq	fp, r3, r4, lsl #2
    2d04:	41720300 	cmnmi	r2, r0, lsl #6
    2d08:	05000000 	streq	r0, [r0, #-0]
    2d0c:	00000268 	andeq	r0, r0, r8, ror #4
    2d10:	2c016504 	cfstr32cs	mvfx6, [r1], {4}
    2d14:	06000000 	streq	r0, [r0], -r0
    2d18:	b7a60304 	strlt	r0, [r6, r4, lsl #6]!
    2d1c:	07000000 	streq	r0, [r0, -r0]
    2d20:	00000262 	andeq	r0, r0, r2, ror #4
    2d24:	008ca803 	addeq	sl, ip, r3, lsl #16
    2d28:	e5070000 	str	r0, [r7, #-0]
    2d2c:	03000001 	movweq	r0, #1
    2d30:	0000b7a9 	andeq	fp, r0, r9, lsr #15
    2d34:	4f080000 	svcmi	0x00080000
    2d38:	c7000000 	strgt	r0, [r0, -r0]
    2d3c:	09000000 	stmdbeq	r0, {}	; <UNPREDICTABLE>
    2d40:	000000c7 	andeq	r0, r0, r7, asr #1
    2d44:	04030003 	streq	r0, [r3], #-3
    2d48:	00029b07 	andeq	r9, r2, r7, lsl #22
    2d4c:	03080a00 	movweq	r0, #35328	; 0x8a00
    2d50:	0000efa3 	andeq	lr, r0, r3, lsr #31
    2d54:	039b0b00 	orrseq	r0, fp, #0, 22
    2d58:	a5030000 	strge	r0, [r3, #-0]
    2d5c:	00000025 	andeq	r0, r0, r5, lsr #32
    2d60:	03a30b00 			; <UNDEFINED> instruction: 0x03a30b00
    2d64:	aa030000 	bge	c2d6c <__bss_end__+0xb8cfc>
    2d68:	00000098 	muleq	r0, r8, r0
    2d6c:	2e040004 	cdpcs	0, 0, cr0, cr4, cr4, {0}
    2d70:	03000003 	movweq	r0, #3
    2d74:	0000ceab 	andeq	ip, r0, fp, lsr #29
    2d78:	01a20400 			; <UNDEFINED> instruction: 0x01a20400
    2d7c:	af030000 	svcge	0x00030000
    2d80:	0000006b 	andeq	r0, r0, fp, rrx
    2d84:	040d040c 	streq	r0, [sp], #-1036	; 0xfffffbf4
    2d88:	0000010d 	andeq	r0, r0, sp, lsl #2
    2d8c:	f3080103 	vrhadd.u8	d0, d8, d3
    2d90:	0e000002 	cdpeq	0, 0, cr0, cr0, cr2, {0}
    2d94:	0000010d 	andeq	r0, r0, sp, lsl #2
    2d98:	00044504 	andeq	r4, r4, r4, lsl #10
    2d9c:	5d160500 	cfldr32pl	mvfx0, [r6, #-0]
    2da0:	0f000000 	svceq	0x00000000
    2da4:	000001b3 			; <UNDEFINED> instruction: 0x000001b3
    2da8:	772d0518 			; <UNDEFINED> instruction: 0x772d0518
    2dac:	0b000001 	bleq	2db8 <_start-0x5248>
    2db0:	0000034f 	andeq	r0, r0, pc, asr #6
    2db4:	01772f05 	cmneq	r7, r5, lsl #30
    2db8:	10000000 	andne	r0, r0, r0
    2dbc:	05006b5f 	streq	r6, [r0, #-2911]	; 0xfffff4a1
    2dc0:	00002530 	andeq	r2, r0, r0, lsr r5
    2dc4:	860b0400 	strhi	r0, [fp], -r0, lsl #8
    2dc8:	05000003 	streq	r0, [r0, #-3]
    2dcc:	00002530 	andeq	r2, r0, r0, lsr r5
    2dd0:	9c0b0800 	stcls	8, cr0, [fp], {-0}
    2dd4:	05000001 	streq	r0, [r0, #-1]
    2dd8:	00002530 	andeq	r2, r0, r0, lsr r5
    2ddc:	a10b0c00 	tstge	fp, r0, lsl #24
    2de0:	05000004 	streq	r0, [r0, #-4]
    2de4:	00002530 	andeq	r2, r0, r0, lsr r5
    2de8:	5f101000 	svcpl	0x00101000
    2dec:	31050078 	tstcc	r5, r8, ror r0
    2df0:	0000017d 	andeq	r0, r0, sp, ror r1
    2df4:	040d0014 	streq	r0, [sp], #-20	; 0xffffffec
    2df8:	00000124 	andeq	r0, r0, r4, lsr #2
    2dfc:	00011908 	andeq	r1, r1, r8, lsl #18
    2e00:	00018d00 	andeq	r8, r1, r0, lsl #26
    2e04:	00c70900 	sbceq	r0, r7, r0, lsl #18
    2e08:	00000000 	andeq	r0, r0, r0
    2e0c:	0001e00f 	andeq	lr, r1, pc
    2e10:	35052400 	strcc	r2, [r5, #-1024]	; 0xfffffc00
    2e14:	00000206 	andeq	r0, r0, r6, lsl #4
    2e18:	0000a10b 	andeq	sl, r0, fp, lsl #2
    2e1c:	25370500 	ldrcs	r0, [r7, #-1280]!	; 0xfffffb00
    2e20:	00000000 	andeq	r0, r0, r0
    2e24:	0003b90b 	andeq	fp, r3, fp, lsl #18
    2e28:	25380500 	ldrcs	r0, [r8, #-1280]!	; 0xfffffb00
    2e2c:	04000000 	streq	r0, [r0], #-0
    2e30:	0000c40b 	andeq	ip, r0, fp, lsl #8
    2e34:	25390500 	ldrcs	r0, [r9, #-1280]!	; 0xfffffb00
    2e38:	08000000 	stmdaeq	r0, {}	; <UNPREDICTABLE>
    2e3c:	0005220b 	andeq	r2, r5, fp, lsl #4
    2e40:	253a0500 	ldrcs	r0, [sl, #-1280]!	; 0xfffffb00
    2e44:	0c000000 	stceq	0, cr0, [r0], {-0}
    2e48:	0002ab0b 	andeq	sl, r2, fp, lsl #22
    2e4c:	253b0500 	ldrcs	r0, [fp, #-1280]!	; 0xfffffb00
    2e50:	10000000 	andne	r0, r0, r0
    2e54:	0002840b 	andeq	r8, r2, fp, lsl #8
    2e58:	253c0500 	ldrcs	r0, [ip, #-1280]!	; 0xfffffb00
    2e5c:	14000000 	strne	r0, [r0], #-0
    2e60:	0004a60b 	andeq	sl, r4, fp, lsl #12
    2e64:	253d0500 	ldrcs	r0, [sp, #-1280]!	; 0xfffffb00
    2e68:	18000000 	stmdane	r0, {}	; <UNPREDICTABLE>
    2e6c:	0003100b 	andeq	r1, r3, fp
    2e70:	253e0500 	ldrcs	r0, [lr, #-1280]!	; 0xfffffb00
    2e74:	1c000000 	stcne	0, cr0, [r0], {-0}
    2e78:	0004e90b 	andeq	lr, r4, fp, lsl #18
    2e7c:	253f0500 	ldrcs	r0, [pc, #-1280]!	; 2984 <_start-0x567c>
    2e80:	20000000 	andcs	r0, r0, r0
    2e84:	01041100 	mrseq	r1, (UNDEF: 20)
    2e88:	01080000 	mrseq	r0, (UNDEF: 8)
    2e8c:	02464805 	subeq	r4, r6, #327680	; 0x50000
    2e90:	8f0b0000 	svchi	0x000b0000
    2e94:	05000001 	streq	r0, [r0, #-1]
    2e98:	00024649 	andeq	r4, r2, r9, asr #12
    2e9c:	000b0000 	andeq	r0, fp, r0
    2ea0:	05000000 	streq	r0, [r0, #-0]
    2ea4:	0002464a 	andeq	r4, r2, sl, asr #12
    2ea8:	37128000 	ldrcc	r8, [r2, -r0]
    2eac:	05000004 	streq	r0, [r0, #-4]
    2eb0:	0001194c 	andeq	r1, r1, ip, asr #18
    2eb4:	12010000 	andne	r0, r1, #0
    2eb8:	00000129 	andeq	r0, r0, r9, lsr #2
    2ebc:	01194f05 	tsteq	r9, r5, lsl #30
    2ec0:	01040000 	mrseq	r0, (UNDEF: 4)
    2ec4:	01050800 	tsteq	r5, r0, lsl #16
    2ec8:	02560000 	subseq	r0, r6, #0
    2ecc:	c7090000 	strgt	r0, [r9, -r0]
    2ed0:	1f000000 	svcne	0x00000000
    2ed4:	02b41100 	adcseq	r1, r4, #0, 2
    2ed8:	01900000 	orrseq	r0, r0, r0
    2edc:	02945b05 	addseq	r5, r4, #5120	; 0x1400
    2ee0:	4f0b0000 	svcmi	0x000b0000
    2ee4:	05000003 	streq	r0, [r0, #-3]
    2ee8:	0002945c 	andeq	r9, r2, ip, asr r4
    2eec:	670b0000 	strvs	r0, [fp, -r0]
    2ef0:	05000003 	streq	r0, [r0, #-3]
    2ef4:	0000255d 	andeq	r2, r0, sp, asr r5
    2ef8:	970b0400 	strls	r0, [fp, -r0, lsl #8]
    2efc:	05000001 	streq	r0, [r0, #-1]
    2f00:	00029a5f 	andeq	r9, r2, pc, asr sl
    2f04:	040b0800 	streq	r0, [fp], #-2048	; 0xfffff800
    2f08:	05000001 	streq	r0, [r0, #-1]
    2f0c:	00020660 	andeq	r0, r2, r0, ror #12
    2f10:	0d008800 	stceq	8, cr8, [r0, #-0]
    2f14:	00025604 	andeq	r5, r2, r4, lsl #12
    2f18:	02aa0800 	adceq	r0, sl, #0, 16
    2f1c:	02aa0000 	adceq	r0, sl, #0
    2f20:	c7090000 	strgt	r0, [r9, -r0]
    2f24:	1f000000 	svcne	0x00000000
    2f28:	b0040d00 	andlt	r0, r4, r0, lsl #26
    2f2c:	13000002 	movwne	r0, #2
    2f30:	00031a0f 	andeq	r1, r3, pc, lsl #20
    2f34:	73050800 	movwvc	r0, #22528	; 0x5800
    2f38:	000002d6 	ldrdeq	r0, [r0], -r6
    2f3c:	0000be0b 	andeq	fp, r0, fp, lsl #28
    2f40:	d6740500 	ldrbtle	r0, [r4], -r0, lsl #10
    2f44:	00000002 	andeq	r0, r0, r2
    2f48:	00001b0b 	andeq	r1, r0, fp, lsl #22
    2f4c:	25750500 	ldrbcs	r0, [r5, #-1280]!	; 0xfffffb00
    2f50:	04000000 	streq	r0, [r0], #-0
    2f54:	4f040d00 	svcmi	0x00040d00
    2f58:	0f000000 	svceq	0x00000000
    2f5c:	00000339 	andeq	r0, r0, r9, lsr r3
    2f60:	06b30568 	ldrteq	r0, [r3], r8, ror #10
    2f64:	10000004 	andne	r0, r0, r4
    2f68:	0500705f 	streq	r7, [r0, #-95]	; 0xffffffa1
    2f6c:	0002d6b4 			; <UNDEFINED> instruction: 0x0002d6b4
    2f70:	5f100000 	svcpl	0x00100000
    2f74:	b5050072 	strlt	r0, [r5, #-114]	; 0xffffff8e
    2f78:	00000025 	andeq	r0, r0, r5, lsr #32
    2f7c:	775f1004 	ldrbvc	r1, [pc, -r4]
    2f80:	25b60500 	ldrcs	r0, [r6, #1280]!	; 0x500
    2f84:	08000000 	stmdaeq	r0, {}	; <UNPREDICTABLE>
    2f88:	0001220b 	andeq	r2, r1, fp, lsl #4
    2f8c:	3ab70500 	bcc	fedc4394 <__bss_end__+0xfedba324>
    2f90:	0c000000 	stceq	0, cr0, [r0], {-0}
    2f94:	00020b0b 	andeq	r0, r2, fp, lsl #22
    2f98:	3ab80500 	bcc	fee043a0 <__bss_end__+0xfedfa330>
    2f9c:	0e000000 	cdpeq	0, 0, cr0, cr0, cr0, {0}
    2fa0:	66625f10 	uqadd16vs	r5, r2, r0
    2fa4:	b1b90500 			; <UNDEFINED> instruction: 0xb1b90500
    2fa8:	10000002 	andne	r0, r0, r2
    2fac:	00007b0b 	andeq	r7, r0, fp, lsl #22
    2fb0:	25ba0500 	ldrcs	r0, [sl, #1280]!	; 0x500
    2fb4:	18000000 	stmdane	r0, {}	; <UNPREDICTABLE>
    2fb8:	0001120b 	andeq	r1, r1, fp, lsl #4
    2fbc:	05c10500 	strbeq	r0, [r1, #1280]	; 0x500
    2fc0:	1c000001 	stcne	0, cr0, [r0], {1}
    2fc4:	000a780b 	andeq	r7, sl, fp, lsl #16
    2fc8:	61c30500 	bicvs	r0, r3, r0, lsl #10
    2fcc:	20000005 	andcs	r0, r0, r5
    2fd0:	00060c0b 	andeq	r0, r6, fp, lsl #24
    2fd4:	8bc50500 	blhi	ff1443dc <__bss_end__+0xff13a36c>
    2fd8:	24000005 	strcs	r0, [r0], #-5
    2fdc:	0003ab0b 	andeq	sl, r3, fp, lsl #22
    2fe0:	afc80500 	svcge	0x00c80500
    2fe4:	28000005 	stmdacs	r0, {r0, r2}
    2fe8:	0005030b 	andeq	r0, r5, fp, lsl #6
    2fec:	c9c90500 	stmibgt	r9, {r8, sl}^
    2ff0:	2c000005 	stccs	0, cr0, [r0], {5}
    2ff4:	62755f10 	rsbsvs	r5, r5, #16, 30	; 0x40
    2ff8:	b1cc0500 	biclt	r0, ip, r0, lsl #10
    2ffc:	30000002 	andcc	r0, r0, r2
    3000:	70755f10 	rsbsvc	r5, r5, r0, lsl pc
    3004:	d6cd0500 	strble	r0, [sp], r0, lsl #10
    3008:	38000002 	stmdacc	r0, {r1}
    300c:	72755f10 	rsbsvc	r5, r5, #16, 30	; 0x40
    3010:	25ce0500 	strbcs	r0, [lr, #1280]	; 0x500
    3014:	3c000000 	stccc	0, cr0, [r0], {-0}
    3018:	0000b80b 	andeq	fp, r0, fp, lsl #16
    301c:	cfd10500 	svcgt	0x00d10500
    3020:	40000005 	andmi	r0, r0, r5
    3024:	0004db0b 	andeq	sp, r4, fp, lsl #22
    3028:	dfd20500 	svcle	0x00d20500
    302c:	43000005 	movwmi	r0, #5
    3030:	626c5f10 	rsbvs	r5, ip, #16, 30	; 0x40
    3034:	b1d50500 	bicslt	r0, r5, r0, lsl #10
    3038:	44000002 	strmi	r0, [r0], #-2
    303c:	0001400b 	andeq	r4, r1, fp
    3040:	25d80500 	ldrbcs	r0, [r8, #1280]	; 0x500
    3044:	4c000000 	stcmi	0, cr0, [r0], {-0}
    3048:	0001510b 	andeq	r5, r1, fp, lsl #2
    304c:	76d90500 	ldrbvc	r0, [r9], r0, lsl #10
    3050:	50000000 	andpl	r0, r0, r0
    3054:	000a190b 	andeq	r1, sl, fp, lsl #18
    3058:	24dc0500 	ldrbcs	r0, [ip], #1280	; 0x500
    305c:	54000004 	strpl	r0, [r0], #-4
    3060:	0002760b 	andeq	r7, r2, fp, lsl #12
    3064:	fae00500 	blx	ff80446c <__bss_end__+0xff7fa3fc>
    3068:	58000000 	stmdapl	r0, {}	; <UNPREDICTABLE>
    306c:	0003410b 	andeq	r4, r3, fp, lsl #2
    3070:	efe20500 	svc	0x00e20500
    3074:	5c000000 	stcpl	0, cr0, [r0], {-0}
    3078:	00027c0b 	andeq	r7, r2, fp, lsl #24
    307c:	25e30500 	strbcs	r0, [r3, #1280]!	; 0x500
    3080:	64000000 	strvs	r0, [r0], #-0
    3084:	00251400 	eoreq	r1, r5, r0, lsl #8
    3088:	04240000 	strteq	r0, [r4], #-0
    308c:	24150000 	ldrcs	r0, [r5], #-0
    3090:	15000004 	strne	r0, [r0, #-4]
    3094:	00000105 	andeq	r0, r0, r5, lsl #2
    3098:	00010715 	andeq	r0, r1, r5, lsl r7
    309c:	00251500 	eoreq	r1, r5, r0, lsl #10
    30a0:	0d000000 	stceq	0, cr0, [r0, #-0]
    30a4:	00042f04 	andeq	r2, r4, r4, lsl #30
    30a8:	04240e00 	strteq	r0, [r4], #-3584	; 0xfffff200
    30ac:	8e160000 	cdphi	0, 1, cr0, cr6, cr0, {0}
    30b0:	28000003 	stmdacs	r0, {r0, r1}
    30b4:	02380504 	eorseq	r0, r8, #4, 10	; 0x1000000
    30b8:	00000561 	andeq	r0, r0, r1, ror #10
    30bc:	0002ff17 	andeq	pc, r2, r7, lsl pc	; <UNPREDICTABLE>
    30c0:	023a0500 	eorseq	r0, sl, #0, 10
    30c4:	00000025 	andeq	r0, r0, r5, lsr #32
    30c8:	01311700 	teqeq	r1, r0, lsl #14
    30cc:	3f050000 	svccc	0x00050000
    30d0:	00063602 	andeq	r3, r6, r2, lsl #12
    30d4:	fb170400 	blx	5c40de <__bss_end__+0x5ba06e>
    30d8:	05000001 	streq	r0, [r0, #-1]
    30dc:	0636023f 			; <UNDEFINED> instruction: 0x0636023f
    30e0:	17080000 	strne	r0, [r8, -r0]
    30e4:	000001ab 	andeq	r0, r0, fp, lsr #3
    30e8:	36023f05 	strcc	r3, [r2], -r5, lsl #30
    30ec:	0c000006 	stceq	0, cr0, [r0], {6}
    30f0:	00036217 	andeq	r6, r3, r7, lsl r2
    30f4:	02410500 	subeq	r0, r1, #0, 10
    30f8:	00000025 	andeq	r0, r0, r5, lsr #32
    30fc:	00291710 	eoreq	r1, r9, r0, lsl r7
    3100:	42050000 	andmi	r0, r5, #0
    3104:	00081802 	andeq	r1, r8, r2, lsl #16
    3108:	7b171400 	blvc	5c8110 <__bss_end__+0x5be0a0>
    310c:	05000004 	streq	r0, [r0, #-4]
    3110:	00250244 	eoreq	r0, r5, r4, asr #4
    3114:	17300000 	ldrne	r0, [r0, -r0]!
    3118:	0000036c 	andeq	r0, r0, ip, ror #6
    311c:	85024505 	strhi	r4, [r2, #-1285]	; 0xfffffafb
    3120:	34000005 	strcc	r0, [r0], #-5
    3124:	0002bc17 	andeq	fp, r2, r7, lsl ip
    3128:	02470500 	subeq	r0, r7, #0, 10
    312c:	00000025 	andeq	r0, r0, r5, lsr #32
    3130:	037c1738 	cmneq	ip, #56, 14	; 0xe00000
    3134:	49050000 	stmdbmi	r5, {}	; <UNPREDICTABLE>
    3138:	00083302 	andeq	r3, r8, r2, lsl #6
    313c:	5a173c00 	bpl	5d2144 <__bss_end__+0x5c80d4>
    3140:	05000002 	streq	r0, [r0, #-2]
    3144:	0177024c 	cmneq	r7, ip, asr #4
    3148:	17400000 	strbne	r0, [r0, -r0]
    314c:	000001ca 	andeq	r0, r0, sl, asr #3
    3150:	25024d05 	strcs	r4, [r2, #-3333]	; 0xfffff2fb
    3154:	44000000 	strmi	r0, [r0], #-0
    3158:	00051d17 	andeq	r1, r5, r7, lsl sp
    315c:	024e0500 	subeq	r0, lr, #0, 10
    3160:	00000177 	andeq	r0, r0, r7, ror r1
    3164:	02ce1748 	sbceq	r1, lr, #72, 14	; 0x1200000
    3168:	4f050000 	svcmi	0x00050000
    316c:	00083902 	andeq	r3, r8, r2, lsl #18
    3170:	03174c00 	tsteq	r7, #0, 24
    3174:	05000002 	streq	r0, [r0, #-2]
    3178:	00250252 	eoreq	r0, r5, r2, asr r2
    317c:	17500000 	ldrbne	r0, [r0, -r0]
    3180:	00000149 	andeq	r0, r0, r9, asr #2
    3184:	07025305 	streq	r5, [r2, -r5, lsl #6]
    3188:	54000001 	strpl	r0, [r0], #-1
    318c:	0002f817 	andeq	pc, r2, r7, lsl r8	; <UNPREDICTABLE>
    3190:	02760500 	rsbseq	r0, r6, #0, 10
    3194:	000007f6 	strdeq	r0, [r0], -r6
    3198:	02b41858 	adcseq	r1, r4, #88, 16	; 0x580000
    319c:	7a050000 	bvc	1431a4 <__bss_end__+0x139134>
    31a0:	00029402 	andeq	r9, r2, r2, lsl #8
    31a4:	18014800 	stmdane	r1, {fp, lr}
    31a8:	00000238 	andeq	r0, r0, r8, lsr r2
    31ac:	56027b05 	strpl	r7, [r2], -r5, lsl #22
    31b0:	4c000002 	stcmi	0, cr0, [r0], {2}
    31b4:	04c91801 	strbeq	r1, [r9], #2049	; 0x801
    31b8:	7f050000 	svcvc	0x00050000
    31bc:	00084a02 	andeq	r4, r8, r2, lsl #20
    31c0:	1802dc00 	stmdane	r2, {sl, fp, ip, lr, pc}
    31c4:	0000011a 	andeq	r0, r0, sl, lsl r1
    31c8:	fb028405 	blx	a41e6 <__bss_end__+0x9a176>
    31cc:	e0000005 	and	r0, r0, r5
    31d0:	00ff1802 	rscseq	r1, pc, r2, lsl #16
    31d4:	85050000 	strhi	r0, [r5, #-0]
    31d8:	00085602 	andeq	r5, r8, r2, lsl #12
    31dc:	0002ec00 	andeq	lr, r2, r0, lsl #24
    31e0:	0406040d 	streq	r0, [r6], #-1037	; 0xfffffbf3
    31e4:	25140000 	ldrcs	r0, [r4, #-0]
    31e8:	85000000 	strhi	r0, [r0, #-0]
    31ec:	15000005 	strne	r0, [r0, #-5]
    31f0:	00000424 	andeq	r0, r0, r4, lsr #8
    31f4:	00010515 	andeq	r0, r1, r5, lsl r5
    31f8:	05851500 	streq	r1, [r5, #1280]	; 0x500
    31fc:	25150000 	ldrcs	r0, [r5, #-0]
    3200:	00000000 	andeq	r0, r0, r0
    3204:	0114040d 	tsteq	r4, sp, lsl #8
    3208:	040d0000 	streq	r0, [sp], #-0
    320c:	00000567 	andeq	r0, r0, r7, ror #10
    3210:	00008114 	andeq	r8, r0, r4, lsl r1
    3214:	0005af00 	andeq	sl, r5, r0, lsl #30
    3218:	04241500 	strteq	r1, [r4], #-1280	; 0xfffffb00
    321c:	05150000 	ldreq	r0, [r5, #-0]
    3220:	15000001 	strne	r0, [r0, #-1]
    3224:	00000081 	andeq	r0, r0, r1, lsl #1
    3228:	00002515 	andeq	r2, r0, r5, lsl r5
    322c:	040d0000 	streq	r0, [sp], #-0
    3230:	00000591 	muleq	r0, r1, r5
    3234:	00002514 	andeq	r2, r0, r4, lsl r5
    3238:	0005c900 	andeq	ip, r5, r0, lsl #18
    323c:	04241500 	strteq	r1, [r4], #-1280	; 0xfffffb00
    3240:	05150000 	ldreq	r0, [r5, #-0]
    3244:	00000001 	andeq	r0, r0, r1
    3248:	05b5040d 	ldreq	r0, [r5, #1037]!	; 0x40d
    324c:	4f080000 	svcmi	0x00080000
    3250:	df000000 	svcle	0x00000000
    3254:	09000005 	stmdbeq	r0, {r0, r2}
    3258:	000000c7 	andeq	r0, r0, r7, asr #1
    325c:	4f080002 	svcmi	0x00080002
    3260:	ef000000 	svc	0x00000000
    3264:	09000005 	stmdbeq	r0, {r0, r2}
    3268:	000000c7 	andeq	r0, r0, r7, asr #1
    326c:	27050000 	strcs	r0, [r5, -r0]
    3270:	05000003 	streq	r0, [r0, #-3]
    3274:	02dc011d 	sbcseq	r0, ip, #1073741831	; 0x40000007
    3278:	b0190000 	andslt	r0, r9, r0
    327c:	0c000004 	stceq	0, cr0, [r0], {4}
    3280:	30012105 	andcc	r2, r1, r5, lsl #2
    3284:	17000006 	strne	r0, [r0, -r6]
    3288:	0000034f 	andeq	r0, r0, pc, asr #6
    328c:	30012305 	andcc	r2, r1, r5, lsl #6
    3290:	00000006 	andeq	r0, r0, r6
    3294:	00021e17 	andeq	r1, r2, r7, lsl lr
    3298:	01240500 			; <UNDEFINED> instruction: 0x01240500
    329c:	00000025 	andeq	r0, r0, r5, lsr #32
    32a0:	03211704 			; <UNDEFINED> instruction: 0x03211704
    32a4:	25050000 	strcs	r0, [r5, #-0]
    32a8:	00063601 	andeq	r3, r6, r1, lsl #12
    32ac:	0d000800 	stceq	8, cr0, [r0, #-0]
    32b0:	0005fb04 	andeq	pc, r5, r4, lsl #22
    32b4:	ef040d00 	svc	0x00040d00
    32b8:	19000005 	stmdbne	r0, {r0, r2}
    32bc:	00000021 	andeq	r0, r0, r1, lsr #32
    32c0:	013d050e 	teqeq	sp, lr, lsl #10
    32c4:	00000671 	andeq	r0, r0, r1, ror r6
    32c8:	00039517 	andeq	r9, r3, r7, lsl r5
    32cc:	013e0500 	teqeq	lr, r0, lsl #10
    32d0:	00000671 	andeq	r0, r0, r1, ror r6
    32d4:	03c21700 	biceq	r1, r2, #0, 14
    32d8:	3f050000 	svccc	0x00050000
    32dc:	00067101 	andeq	r7, r6, r1, lsl #2
    32e0:	40170600 	andsmi	r0, r7, r0, lsl #12
    32e4:	05000004 	streq	r0, [r0, #-4]
    32e8:	00560140 	subseq	r0, r6, r0, asr #2
    32ec:	000c0000 	andeq	r0, ip, r0
    32f0:	00005608 	andeq	r5, r0, r8, lsl #12
    32f4:	00068100 	andeq	r8, r6, r0, lsl #2
    32f8:	00c70900 	sbceq	r0, r7, r0, lsl #18
    32fc:	00020000 	andeq	r0, r2, r0
    3300:	5705d01a 	smladpl	r5, sl, r0, sp
    3304:	00078202 	andeq	r8, r7, r2, lsl #4
    3308:	04941700 	ldreq	r1, [r4], #1792	; 0x700
    330c:	59050000 	stmdbpl	r5, {}	; <UNPREDICTABLE>
    3310:	00002c02 	andeq	r2, r0, r2, lsl #24
    3314:	2a170000 	bcs	5c331c <__bss_end__+0x5b92ac>
    3318:	05000004 	streq	r0, [r0, #-4]
    331c:	0107025a 	tsteq	r7, sl, asr r2
    3320:	17040000 	strne	r0, [r4, -r0]
    3324:	0000024d 	andeq	r0, r0, sp, asr #4
    3328:	82025b05 	andhi	r5, r2, #5120	; 0x1400
    332c:	08000007 	stmdaeq	r0, {r0, r1, r2}
    3330:	0004f417 	andeq	pc, r4, r7, lsl r4	; <UNPREDICTABLE>
    3334:	025c0500 	subseq	r0, ip, #0, 10
    3338:	0000018d 	andeq	r0, r0, sp, lsl #3
    333c:	01bb1724 			; <UNDEFINED> instruction: 0x01bb1724
    3340:	5d050000 	stcpl	0, cr0, [r5, #-0]
    3344:	00002502 	andeq	r2, r0, r2, lsl #10
    3348:	4a174800 	bmi	5d5350 <__bss_end__+0x5cb2e0>
    334c:	05000003 	streq	r0, [r0, #-3]
    3350:	0064025e 	rsbeq	r0, r4, lr, asr r2
    3354:	17500000 	ldrbne	r0, [r0, -r0]
    3358:	0000050a 	andeq	r0, r0, sl, lsl #10
    335c:	3c025f05 	stccc	15, cr5, [r2], {5}
    3360:	58000006 	stmdapl	r0, {r1, r2}
    3364:	00035517 	andeq	r5, r3, r7, lsl r5
    3368:	02600500 	rsbeq	r0, r0, #0, 10
    336c:	000000ef 	andeq	r0, r0, pc, ror #1
    3370:	050f1768 	streq	r1, [pc, #-1896]	; 2c10 <_start-0x53f0>
    3374:	61050000 	mrsvs	r0, (UNDEF: 5)
    3378:	0000ef02 	andeq	lr, r0, r2, lsl #30
    337c:	93177000 	tstls	r7, #0
    3380:	05000000 	streq	r0, [r0, #-0]
    3384:	00ef0262 	rsceq	r0, pc, r2, ror #4
    3388:	17780000 	ldrbne	r0, [r8, -r0]!
    338c:	000004bf 			; <UNDEFINED> instruction: 0x000004bf
    3390:	92026305 	andls	r6, r2, #335544320	; 0x14000000
    3394:	80000007 	andhi	r0, r0, r7
    3398:	00024117 	andeq	r4, r2, r7, lsl r1
    339c:	02640500 	rsbeq	r0, r4, #0, 10
    33a0:	000007a2 	andeq	r0, r0, r2, lsr #15
    33a4:	044d1788 	strbeq	r1, [sp], #-1928	; 0xfffff878
    33a8:	65050000 	strvs	r0, [r5, #-0]
    33ac:	00002502 	andeq	r2, r0, r2, lsl #10
    33b0:	8117a000 	tsthi	r7, r0
    33b4:	05000001 	streq	r0, [r0, #-1]
    33b8:	00ef0266 	rsceq	r0, pc, r6, ror #4
    33bc:	17a40000 	strne	r0, [r4, r0]!
    33c0:	00000084 	andeq	r0, r0, r4, lsl #1
    33c4:	ef026705 	svc	0x00026705
    33c8:	ac000000 	stcge	0, cr0, [r0], {-0}
    33cc:	00017017 	andeq	r7, r1, r7, lsl r0
    33d0:	02680500 	rsbeq	r0, r8, #0, 10
    33d4:	000000ef 	andeq	r0, r0, pc, ror #1
    33d8:	003c17b4 	ldrhteq	r1, [ip], -r4
    33dc:	69050000 	stmdbvs	r5, {}	; <UNPREDICTABLE>
    33e0:	0000ef02 	andeq	lr, r0, r2, lsl #30
    33e4:	4b17bc00 	blmi	5f23ec <__bss_end__+0x5e837c>
    33e8:	05000000 	streq	r0, [r0, #-0]
    33ec:	00ef026a 	rsceq	r0, pc, sl, ror #4
    33f0:	17c40000 	strbne	r0, [r4, r0]
    33f4:	000002fd 	strdeq	r0, [r0], -sp
    33f8:	25026b05 	strcs	r6, [r2, #-2821]	; 0xfffff4fb
    33fc:	cc000000 	stcgt	0, cr0, [r0], {-0}
    3400:	010d0800 	tsteq	sp, r0, lsl #16
    3404:	07920000 	ldreq	r0, [r2, r0]
    3408:	c7090000 	strgt	r0, [r9, -r0]
    340c:	19000000 	stmdbne	r0, {}	; <UNPREDICTABLE>
    3410:	010d0800 	tsteq	sp, r0, lsl #16
    3414:	07a20000 	streq	r0, [r2, r0]!
    3418:	c7090000 	strgt	r0, [r9, -r0]
    341c:	07000000 	streq	r0, [r0, -r0]
    3420:	010d0800 	tsteq	sp, r0, lsl #16
    3424:	07b20000 	ldreq	r0, [r2, r0]!
    3428:	c7090000 	strgt	r0, [r9, -r0]
    342c:	17000000 	strne	r0, [r0, -r0]
    3430:	05f01a00 	ldrbeq	r1, [r0, #2560]!	; 0xa00
    3434:	07d60270 			; <UNDEFINED> instruction: 0x07d60270
    3438:	a4170000 	ldrge	r0, [r7], #-0
    343c:	05000002 	streq	r0, [r0, #-2]
    3440:	07d60273 			; <UNDEFINED> instruction: 0x07d60273
    3444:	17000000 	strne	r0, [r0, -r0]
    3448:	000004b6 			; <UNDEFINED> instruction: 0x000004b6
    344c:	e6027405 	str	r7, [r2], -r5, lsl #8
    3450:	78000007 	stmdavc	r0, {r0, r1, r2}
    3454:	02d60800 	sbcseq	r0, r6, #0, 16
    3458:	07e60000 	strbeq	r0, [r6, r0]!
    345c:	c7090000 	strgt	r0, [r9, -r0]
    3460:	1d000000 	stcne	0, cr0, [r0, #-0]
    3464:	002c0800 	eoreq	r0, ip, r0, lsl #16
    3468:	07f60000 	ldrbeq	r0, [r6, r0]!
    346c:	c7090000 	strgt	r0, [r9, -r0]
    3470:	1d000000 	stcne	0, cr0, [r0, #-0]
    3474:	05f01b00 	ldrbeq	r1, [r0, #2816]!	; 0xb00
    3478:	08180255 	ldmdaeq	r8, {r0, r2, r4, r6, r9}
    347c:	8e1c0000 	cdphi	0, 1, cr0, cr12, cr0, {0}
    3480:	05000003 	streq	r0, [r0, #-3]
    3484:	0681026c 	streq	r0, [r1], ip, ror #4
    3488:	e11c0000 	tst	ip, r0
    348c:	05000004 	streq	r0, [r0, #-4]
    3490:	07b20275 			; <UNDEFINED> instruction: 0x07b20275
    3494:	08000000 	stmdaeq	r0, {}	; <UNPREDICTABLE>
    3498:	0000010d 	andeq	r0, r0, sp, lsl #2
    349c:	00000828 	andeq	r0, r0, r8, lsr #16
    34a0:	0000c709 	andeq	ip, r0, r9, lsl #14
    34a4:	1d001800 	stcne	8, cr1, [r0, #-0]
    34a8:	00000833 	andeq	r0, r0, r3, lsr r8
    34ac:	00042415 	andeq	r2, r4, r5, lsl r4
    34b0:	040d0000 	streq	r0, [sp], #-0
    34b4:	00000828 	andeq	r0, r0, r8, lsr #16
    34b8:	0177040d 	cmneq	r7, sp, lsl #8
    34bc:	4a1d0000 	bmi	7434c4 <__bss_end__+0x739454>
    34c0:	15000008 	strne	r0, [r0, #-8]
    34c4:	00000025 	andeq	r0, r0, r5, lsr #32
    34c8:	50040d00 	andpl	r0, r4, r0, lsl #26
    34cc:	0d000008 	stceq	0, cr0, [r0, #-32]	; 0xffffffe0
    34d0:	00083f04 	andeq	r3, r8, r4, lsl #30
    34d4:	05ef0800 	strbeq	r0, [pc, #2048]!	; 3cdc <_start-0x4324>
    34d8:	08660000 	stmdaeq	r6!, {}^	; <UNPREDICTABLE>
    34dc:	c7090000 	strgt	r0, [r9, -r0]
    34e0:	02000000 	andeq	r0, r0, #0
    34e4:	046f1e00 	strbteq	r1, [pc], #-3584	; 34ec <_start-0x4b14>
    34e8:	fd050000 	stc2	0, cr0, [r5, #-0]
    34ec:	00042402 	andeq	r2, r4, r2, lsl #8
    34f0:	04681e00 	strbteq	r1, [r8], #-3584	; 0xfffff200
    34f4:	fe050000 	cdp2	0, 0, cr0, cr5, cr0, {0}
    34f8:	00042a02 	andeq	r2, r4, r2, lsl #20
    34fc:	00251400 	eoreq	r1, r5, r0, lsl #8
    3500:	088d0000 	stmeq	sp, {}	; <UNPREDICTABLE>
    3504:	25150000 	ldrcs	r0, [r5, #-0]
    3508:	00000000 	andeq	r0, r0, r0
    350c:	0001d41f 	andeq	sp, r1, pc, lsl r4
    3510:	981d0600 	ldmdals	sp, {r9, sl}
    3514:	0d000008 	stceq	0, cr0, [r0, #-32]	; 0xffffffe0
    3518:	00087e04 	andeq	r7, r8, r4, lsl #28
    351c:	00251400 	eoreq	r1, r5, r0, lsl #8
    3520:	08ad0000 	stmiaeq	sp!, {}	; <UNPREDICTABLE>
    3524:	85150000 	ldrhi	r0, [r5, #-0]
    3528:	00000005 	andeq	r0, r0, r5
    352c:	0007691f 	andeq	r6, r7, pc, lsl r9
    3530:	b8220600 	stmdalt	r2!, {r9, sl}
    3534:	0d000008 	stceq	0, cr0, [r0, #-32]	; 0xffffffe0
    3538:	00089e04 	andeq	r9, r8, r4, lsl #28
    353c:	06bc0400 	ldrteq	r0, [ip], r0, lsl #8
    3540:	28070000 	stmdacs	r7, {}	; <UNPREDICTABLE>
    3544:	000008c9 	andeq	r0, r0, r9, asr #17
    3548:	0006a80f 	andeq	sl, r6, pc, lsl #16
    354c:	00080400 	andeq	r0, r8, r0, lsl #8
    3550:	000008e0 	andeq	r0, r0, r0, ror #17
    3554:	0006cb20 	andeq	ip, r6, r0, lsr #22
    3558:	00010500 	andeq	r0, r1, r0, lsl #10
    355c:	04000000 	streq	r0, [r0], #-0
    3560:	000006aa 	andeq	r0, r0, sl, lsr #13
    3564:	08be6307 	ldmeq	lr!, {r0, r1, r2, r8, r9, sp, lr}
    3568:	b2210000 	eorlt	r0, r1, #0
    356c:	01000006 	tsteq	r0, r6
    3570:	0000257f 	andeq	r2, r0, pc, ror r5
    3574:	008c6000 	addeq	r6, ip, r0
    3578:	0002c000 	andeq	ip, r2, r0
    357c:	519c0100 	orrspl	r0, ip, r0, lsl #2
    3580:	2200000b 	andcs	r0, r0, #11
    3584:	00667562 	rsbeq	r7, r6, r2, ror #10
    3588:	01077f01 	tsteq	r7, r1, lsl #30
    358c:	07b60000 	ldreq	r0, [r6, r0]!
    3590:	6e220000 	cdpvs	0, 2, cr0, cr2, cr0, {0}
    3594:	257f0100 	ldrbcs	r0, [pc, #-256]!	; 349c <_start-0x4b64>
    3598:	e2000000 	and	r0, r0, #0
    359c:	22000007 	andcs	r0, r0, #7
    35a0:	00746d66 	rsbseq	r6, r4, r6, ror #26
    35a4:	05857f01 	streq	r7, [r5, #3841]	; 0xf01
    35a8:	08100000 	ldmdaeq	r0, {}	; <UNPREDICTABLE>
    35ac:	0d230000 	stceq	0, cr0, [r3, #-0]
    35b0:	01000001 	tsteq	r0, r1
    35b4:	0008e07f 	andeq	lr, r8, pc, ror r0
    35b8:	dc910300 	ldcle	3, cr0, [r1], {0}
    35bc:	0070247e 	rsbseq	r2, r0, lr, ror r4
    35c0:	01078001 	tsteq	r7, r1
    35c4:	08700000 	ldmdaeq	r0!, {}^	; <UNPREDICTABLE>
    35c8:	65240000 	strvs	r0, [r4, #-0]!
    35cc:	07800100 	streq	r0, [r0, r0, lsl #2]
    35d0:	ee000001 	cdp	0, 0, cr0, cr0, cr1, {0}
    35d4:	25000008 	strcs	r0, [r0, #-8]
    35d8:	00000211 	andeq	r0, r0, r1, lsl r2
    35dc:	00000b61 	andeq	r0, r0, r1, ror #22
    35e0:	9a480305 	bls	12041fc <__bss_end__+0x11fa18c>
    35e4:	80260000 	eorhi	r0, r6, r0
    35e8:	24000000 	strcs	r0, [r0], #-0
    35ec:	8d010073 	stchi	0, cr0, [r1, #-460]	; 0xfffffe34
    35f0:	00000107 	andeq	r0, r0, r7, lsl #2
    35f4:	00000915 	andeq	r0, r0, r5, lsl r9
    35f8:	6d756e27 	ldclvs	14, cr6, [r5, #-156]!	; 0xffffff64
    35fc:	668d0100 	strvs	r0, [sp], r0, lsl #2
    3600:	0300000b 	movweq	r0, #11
    3604:	287ee091 	ldmdacs	lr!, {r0, r4, r7, sp, lr, pc}^
    3608:	0000072b 	andeq	r0, r0, fp, lsr #14
    360c:	002c8e01 	eoreq	r8, ip, r1, lsl #28
    3610:	095f0000 	ldmdbeq	pc, {}^	; <UNPREDICTABLE>
    3614:	f0290000 			; <UNDEFINED> instruction: 0xf0290000
    3618:	9200008c 	andls	r0, r0, #140	; 0x8c
    361c:	ab00000d 	blge	3658 <_start-0x49a8>
    3620:	2a000009 	bcs	364c <_start-0x49b4>
    3624:	77025001 	strvc	r5, [r2, -r1]
    3628:	702b0000 	eorvc	r0, fp, r0
    362c:	5200008d 	andpl	r0, r0, #141	; 0x8d
    3630:	2900000e 	stmdbcs	r0, {r1, r2, r3}
    3634:	00008d84 	andeq	r8, r0, r4, lsl #27
    3638:	00000e5d 	andeq	r0, r0, sp, asr lr
    363c:	000009e3 	andeq	r0, r0, r3, ror #19
    3640:	0550012a 	ldrbeq	r0, [r0, #-298]	; 0xfffffed6
    3644:	009ab803 	addseq	fp, sl, r3, lsl #16
    3648:	51012a00 	tstpl	r1, r0, lsl #20
    364c:	9a540305 	bls	1504268 <__bss_end__+0x14fa1f8>
    3650:	012a0000 			; <UNDEFINED> instruction: 0x012a0000
    3654:	48030552 	stmdami	r3, {r1, r4, r6, r8, sl}
    3658:	2a00009a 	bcs	38c8 <_start-0x4738>
    365c:	08025301 	stmdaeq	r2, {r0, r8, r9, ip, lr}
    3660:	882b0094 	stmdahi	fp!, {r2, r4, r7}
    3664:	6800008d 	stmdavs	r0, {r0, r2, r3, r7}
    3668:	2b00000e 	blcs	36a8 <_start-0x4958>
    366c:	00008d8c 	andeq	r8, r0, ip, lsl #27
    3670:	00000e52 	andeq	r0, r0, r2, asr lr
    3674:	008da029 	addeq	sl, sp, r9, lsr #32
    3678:	000e5d00 	andeq	r5, lr, r0, lsl #26
    367c:	000a2400 	andeq	r2, sl, r0, lsl #8
    3680:	50012a00 	andpl	r2, r1, r0, lsl #20
    3684:	9ad40305 	bls	ff5042a0 <__bss_end__+0xff4fa230>
    3688:	012a0000 			; <UNDEFINED> instruction: 0x012a0000
    368c:	54030551 	strpl	r0, [r3], #-1361	; 0xfffffaaf
    3690:	2a00009a 	bcs	3900 <_start-0x4700>
    3694:	03055201 	movweq	r5, #20993	; 0x5201
    3698:	00009a48 	andeq	r9, r0, r8, asr #20
    369c:	0253012a 	subseq	r0, r3, #-2147483638	; 0x8000000a
    36a0:	2b009a08 	blcs	29ec8 <__bss_end__+0x1fe58>
    36a4:	00008da4 	andeq	r8, r0, r4, lsr #27
    36a8:	00000e68 	andeq	r0, r0, r8, ror #28
    36ac:	008dd029 	addeq	sp, sp, r9, lsr #32
    36b0:	000b7600 	andeq	r7, fp, r0, lsl #12
    36b4:	000a5a00 	andeq	r5, sl, r0, lsl #20
    36b8:	50012a00 	andpl	r2, r1, r0, lsl #20
    36bc:	012a3a01 			; <UNDEFINED> instruction: 0x012a3a01
    36c0:	d8910351 	ldmle	r1, {r0, r4, r6, r8, r9}
    36c4:	52012a7e 	andpl	r2, r1, #516096	; 0x7e000
    36c8:	2a800802 	bcs	fe0056d8 <__bss_end__+0xfdffb668>
    36cc:	02007d02 	andeq	r7, r0, #2, 26	; 0x80
    36d0:	022a0074 	eoreq	r0, sl, #116	; 0x74
    36d4:	3101047d 	tstcc	r1, sp, ror r4
    36d8:	8e042900 	vmlahi.f16	s4, s8, s0	; <UNPREDICTABLE>
    36dc:	0b760000 	bleq	1d836e4 <__bss_end__+0x1d79674>
    36e0:	0a870000 	beq	fe1c36e8 <__bss_end__+0xfe1b9678>
    36e4:	012a0000 			; <UNDEFINED> instruction: 0x012a0000
    36e8:	2a3a0150 	bcs	e83c30 <__bss_end__+0xe79bc0>
    36ec:	91035101 	tstls	r3, r1, lsl #2
    36f0:	012a7ed8 	ldrdeq	r7, [sl, -r8]!
    36f4:	80080252 	andhi	r0, r8, r2, asr r2
    36f8:	007d022a 	rsbseq	r0, sp, sl, lsr #4
    36fc:	2a007402 	bcs	2070c <__bss_end__+0x1669c>
    3700:	01047d02 	tsteq	r4, r2, lsl #26
    3704:	34290030 	strtcc	r0, [r9], #-48	; 0xffffffd0
    3708:	7600008e 	strvc	r0, [r0], -lr, lsl #1
    370c:	b400000b 	strlt	r0, [r0], #-11
    3710:	2a00000a 	bcs	3740 <_start-0x48c0>
    3714:	40015001 	andmi	r5, r1, r1
    3718:	0351012a 	cmpeq	r1, #-2147483638	; 0x8000000a
    371c:	2a7ed891 	bcs	1fb9968 <__bss_end__+0x1faf8f8>
    3720:	08025201 	stmdaeq	r2, {r0, r9, ip, lr}
    3724:	7d022a80 	vstrvc	s4, [r2, #-512]	; 0xfffffe00
    3728:	00740200 	rsbseq	r0, r4, r0, lsl #4
    372c:	047d022a 	ldrbteq	r0, [sp], #-554	; 0xfffffdd6
    3730:	29003001 	stmdbcs	r0, {r0, ip, sp}
    3734:	00008e64 	andeq	r8, r0, r4, ror #28
    3738:	00000b76 	andeq	r0, r0, r6, ror fp
    373c:	00000ae1 	andeq	r0, r0, r1, ror #21
    3740:	0150012a 	cmpeq	r0, sl, lsr #2
    3744:	51012a32 	tstpl	r1, r2, lsr sl
    3748:	7ed89103 	atnvce	f1, f3
    374c:	0252012a 	subseq	r0, r2, #-2147483638	; 0x8000000a
    3750:	022a8008 	eoreq	r8, sl, #8
    3754:	7402007d 	strvc	r0, [r2], #-125	; 0xffffff83
    3758:	7d022a00 	vstrvc	s4, [r2, #-0]
    375c:	00300104 	eorseq	r0, r0, r4, lsl #2
    3760:	008ea829 	addeq	sl, lr, r9, lsr #16
    3764:	000b7600 	andeq	r7, fp, r0, lsl #12
    3768:	000b0e00 	andeq	r0, fp, r0, lsl #28
    376c:	50012a00 	andpl	r2, r1, r0, lsl #20
    3770:	012a3801 			; <UNDEFINED> instruction: 0x012a3801
    3774:	d8910351 	ldmle	r1, {r0, r4, r6, r8, r9}
    3778:	52012a7e 	andpl	r2, r1, #516096	; 0x7e000
    377c:	2a800802 	bcs	fe00578c <__bss_end__+0xfdffb71c>
    3780:	02007d02 	andeq	r7, r0, #2, 26	; 0x80
    3784:	022a0074 	eoreq	r0, sl, #116	; 0x74
    3788:	3001047d 	andcc	r0, r1, sp, ror r4
    378c:	8eb02b00 	vmovhi.f64	d2, #0	; 0x40000000  2.0
    3790:	0e520000 	cdpeq	0, 5, cr0, cr2, cr0, {0}
    3794:	cc290000 	stcgt	0, cr0, [r9], #-0
    3798:	5d00008e 	stcpl	0, cr0, [r0, #-568]	; 0xfffffdc8
    379c:	4600000e 	strmi	r0, [r0], -lr
    37a0:	2a00000b 	bcs	37d4 <_start-0x482c>
    37a4:	03055001 	movweq	r5, #20481	; 0x5001
    37a8:	00009afc 	strdeq	r9, [r0], -ip
    37ac:	0551012a 	ldrbeq	r0, [r1, #-298]	; 0xfffffed6
    37b0:	009a5403 	addseq	r5, sl, r3, lsl #8
    37b4:	52012a00 	andpl	r2, r1, #0, 20
    37b8:	9a480305 	bls	12043d4 <__bss_end__+0x11fa364>
    37bc:	012a0000 			; <UNDEFINED> instruction: 0x012a0000
    37c0:	bb080253 	bllt	204114 <__bss_end__+0x1fa0a4>
    37c4:	8ed02b00 	vfnmshi.f64	d18, d0, d0
    37c8:	0e680000 	cdpeq	0, 6, cr0, cr8, cr0, {0}
    37cc:	00000000 	andeq	r0, r0, r0
    37d0:	00011408 	andeq	r1, r1, r8, lsl #8
    37d4:	000b6100 	andeq	r6, fp, r0, lsl #2
    37d8:	00c70900 	sbceq	r0, r7, r0, lsl #18
    37dc:	00090000 	andeq	r0, r9, r0
    37e0:	000b510e 	andeq	r5, fp, lr, lsl #2
    37e4:	010d0800 	tsteq	sp, r0, lsl #16
    37e8:	0b760000 	bleq	1d837f0 <__bss_end__+0x1d79780>
    37ec:	c7090000 	strgt	r0, [r9, -r0]
    37f0:	7f000000 	svcvc	0x00000000
    37f4:	074f2c00 	strbeq	r2, [pc, -r0, lsl #24]
    37f8:	47010000 	strmi	r0, [r1, -r0]
    37fc:	00000107 	andeq	r0, r0, r7, lsl #2
    3800:	00008a5c 	andeq	r8, r0, ip, asr sl
    3804:	000001b0 			; <UNDEFINED> instruction: 0x000001b0
    3808:	0cb19c01 	ldceq	12, cr9, [r1], #4
    380c:	bf2d0000 	svclt	0x002d0000
    3810:	01000000 	mrseq	r0, (UNDEF: 0)
    3814:	00002c47 	andeq	r2, r0, r7, asr #24
    3818:	00098900 	andeq	r8, r9, r0, lsl #18
    381c:	73642200 	cmnvc	r4, #0, 4
    3820:	47010074 	smlsdxmi	r1, r4, r0, r0
    3824:	00000107 	andeq	r0, r0, r7, lsl #2
    3828:	000009b7 			; <UNDEFINED> instruction: 0x000009b7
    382c:	01006e22 	tsteq	r0, r2, lsr #28
    3830:	00002547 	andeq	r2, r0, r7, asr #10
    3834:	0009d500 	andeq	sp, r9, r0, lsl #10
    3838:	61762200 	cmnvs	r6, r0, lsl #4
    383c:	4701006c 	strmi	r0, [r1, -ip, rrx]
    3840:	00000025 	andeq	r0, r0, r5, lsr #32
    3844:	000009f3 	strdeq	r0, [r0], -r3
    3848:	00072b2d 	andeq	r2, r7, sp, lsr #22
    384c:	25470100 	strbcs	r0, [r7, #-256]	; 0xffffff00
    3850:	67000000 	strvs	r0, [r0, -r0]
    3854:	2300000a 	movwcs	r0, #10
    3858:	0000071a 	andeq	r0, r0, sl, lsl r7
    385c:	00254701 	eoreq	r4, r5, r1, lsl #14
    3860:	91020000 	mrsls	r0, (UNDEF: 2)
    3864:	75622704 	strbvc	r2, [r2, #-1796]!	; 0xfffff8fc
    3868:	4c010066 	stcmi	0, cr0, [r1], {102}	; 0x66
    386c:	00000cb1 			; <UNDEFINED> instruction: 0x00000cb1
    3870:	7fa89103 	svcvc	0x00a89103
    3874:	01007024 	tsteq	r0, r4, lsr #32
    3878:	0001074c 	andeq	r0, r1, ip, asr #14
    387c:	000a9100 	andeq	r9, sl, r0, lsl #2
    3880:	00752400 	rsbseq	r2, r5, r0, lsl #8
    3884:	002c4d01 	eoreq	r4, ip, r1, lsl #26
    3888:	0b5b0000 	bleq	16c3890 <__bss_end__+0x16b9820>
    388c:	11250000 			; <UNDEFINED> instruction: 0x11250000
    3890:	d1000002 	tstle	r0, r2
    3894:	0500000c 	streq	r0, [r0, #-12]
    3898:	009a3003 	addseq	r3, sl, r3
    389c:	8ac82e00 	bhi	ff20f0a4 <__bss_end__+0xff205034>
    38a0:	007c0000 	rsbseq	r0, ip, r0
    38a4:	0c3b0000 	ldceq	0, cr0, [fp], #-0
    38a8:	39280000 	stmdbcc	r8!, {}	; <UNPREDICTABLE>
    38ac:	01000007 	tsteq	r0, r7
    38b0:	00002c52 	andeq	r2, r0, r2, asr ip
    38b4:	000bc600 	andeq	ip, fp, r0, lsl #12
    38b8:	84290000 	strthi	r0, [r9], #-0
    38bc:	4200008b 	andmi	r0, r0, #139	; 0x8b
    38c0:	4f00000d 	svcmi	0x0000000d
    38c4:	2a00000c 	bcs	38fc <_start-0x4704>
    38c8:	7d025101 	stfvcs	f5, [r2, #-4]
    38cc:	98290000 	stmdals	r9!, {}	; <UNPREDICTABLE>
    38d0:	d600008b 	strle	r0, [r0], -fp, lsl #1
    38d4:	6f00000c 	svcvs	0x0000000c
    38d8:	2a00000c 	bcs	3910 <_start-0x46f0>
    38dc:	75025001 	strvc	r5, [r2, #-1]
    38e0:	51012a00 	tstpl	r1, r0, lsl #20
    38e4:	2a007402 	bcs	208f4 <__bss_end__+0x16884>
    38e8:	7d025301 	stcvc	3, cr5, [r2, #-4]
    38ec:	d82b0000 	stmdale	fp!, {}	; <UNPREDICTABLE>
    38f0:	5200008b 	andpl	r0, r0, #139	; 0x8b
    38f4:	2900000e 	stmdbcs	r0, {r1, r2, r3}
    38f8:	00008bec 	andeq	r8, r0, ip, ror #23
    38fc:	00000e5d 	andeq	r0, r0, sp, asr lr
    3900:	00000ca7 	andeq	r0, r0, r7, lsr #25
    3904:	0550012a 	ldrbeq	r0, [r0, #-298]	; 0xfffffed6
    3908:	009a6803 	addseq	r6, sl, r3, lsl #16
    390c:	51012a00 	tstpl	r1, r0, lsl #20
    3910:	9a540305 	bls	150452c <__bss_end__+0x14fa4bc>
    3914:	012a0000 			; <UNDEFINED> instruction: 0x012a0000
    3918:	30030552 	andcc	r0, r3, r2, asr r5
    391c:	2a00009a 	bcs	3b8c <_start-0x4474>
    3920:	08025301 	stmdaeq	r2, {r0, r8, r9, ip, lr}
    3924:	f02b0077 			; <UNDEFINED> instruction: 0xf02b0077
    3928:	6800008b 	stmdavs	r0, {r0, r1, r3, r7}
    392c:	0000000e 	andeq	r0, r0, lr
    3930:	00010d08 	andeq	r0, r1, r8, lsl #26
    3934:	000cc100 	andeq	ip, ip, r0, lsl #2
    3938:	00c70900 	sbceq	r0, r7, r0, lsl #18
    393c:	003f0000 	eorseq	r0, pc, r0
    3940:	00011408 	andeq	r1, r1, r8, lsl #8
    3944:	000cd100 	andeq	sp, ip, r0, lsl #2
    3948:	00c70900 	sbceq	r0, r7, r0, lsl #18
    394c:	00040000 	andeq	r0, r4, r0
    3950:	000cc10e 	andeq	ip, ip, lr, lsl #2
    3954:	07232c00 	streq	r2, [r3, -r0, lsl #24]!
    3958:	37010000 	strcc	r0, [r1, -r0]
    395c:	00000107 	andeq	r0, r0, r7, lsl #2
    3960:	00008a1c 	andeq	r8, r0, ip, lsl sl
    3964:	00000040 	andeq	r0, r0, r0, asr #32
    3968:	0d429c01 	stcleq	12, cr9, [r2, #-4]
    396c:	64220000 	strtvs	r0, [r2], #-0
    3970:	01007473 	tsteq	r0, r3, ror r4
    3974:	00010737 	andeq	r0, r1, r7, lsr r7
    3978:	000bfd00 	andeq	pc, fp, r0, lsl #26
    397c:	006e2200 	rsbeq	r2, lr, r0, lsl #4
    3980:	00253701 	eoreq	r3, r5, r1, lsl #14
    3984:	0c350000 	ldceq	0, cr0, [r5], #-0
    3988:	70220000 	eorvc	r0, r2, r0
    398c:	07370100 	ldreq	r0, [r7, -r0, lsl #2]!
    3990:	56000001 	strpl	r0, [r0], -r1
    3994:	2d00000c 	stccs	0, cr0, [r0, #-48]	; 0xffffffd0
    3998:	00000b59 	andeq	r0, r0, r9, asr fp
    399c:	01073701 	tsteq	r7, r1, lsl #14
    39a0:	0c8c0000 	stceq	0, cr0, [ip], {0}
    39a4:	6c240000 	stcvs	0, cr0, [r4], #-0
    39a8:	01006e65 	tsteq	r0, r5, ror #28
    39ac:	00002539 	andeq	r2, r0, r9, lsr r5
    39b0:	000caa00 	andeq	sl, ip, r0, lsl #20
    39b4:	00732700 	rsbseq	r2, r3, r0, lsl #14
    39b8:	01073d01 	tsteq	r7, r1, lsl #26
    39bc:	50010000 	andpl	r0, r1, r0
    39c0:	61702f00 	cmnvs	r0, r0, lsl #30
    39c4:	2e010064 	cdpcs	0, 0, cr0, cr1, cr4, {3}
    39c8:	00000107 	andeq	r0, r0, r7, lsl #2
    39cc:	000089f0 	strdeq	r8, [r0], -r0
    39d0:	0000002c 	andeq	r0, r0, ip, lsr #32
    39d4:	0d929c01 	ldceq	12, cr9, [r2, #4]
    39d8:	70220000 	eorvc	r0, r2, r0
    39dc:	072e0100 	streq	r0, [lr, -r0, lsl #2]!
    39e0:	09000001 	stmdbeq	r0, {r0}
    39e4:	2d00000d 	stccs	0, cr0, [r0, #-52]	; 0xffffffcc
    39e8:	000000bf 	strheq	r0, [r0], -pc	; <UNPREDICTABLE>
    39ec:	01072e01 	tsteq	r7, r1, lsl #28
    39f0:	0d340000 	ldceq	0, cr0, [r4, #-0]
    39f4:	2b230000 	blcs	8c39fc <__bss_end__+0x8b998c>
    39f8:	01000007 	tsteq	r0, r7
    39fc:	0000252e 	andeq	r2, r0, lr, lsr #10
    3a00:	27520100 	ldrbcs	r0, [r2, -r0, lsl #2]
    3a04:	006e656c 	rsbeq	r6, lr, ip, ror #10
    3a08:	00252f01 	eoreq	r2, r5, r1, lsl #30
    3a0c:	51010000 	mrspl	r0, (UNDEF: 1)
    3a10:	07472c00 	strbeq	r2, [r7, -r0, lsl #24]
    3a14:	27010000 	strcs	r0, [r1, -r0]
    3a18:	00000025 	andeq	r0, r0, r5, lsr #32
    3a1c:	000089dc 	ldrdeq	r8, [r0], -ip
    3a20:	00000014 	andeq	r0, r0, r4, lsl r0
    3a24:	0db99c01 	ldceq	12, cr9, [r9, #4]!
    3a28:	63220000 			; <UNDEFINED> instruction: 0x63220000
    3a2c:	25270100 	strcs	r0, [r7, #-256]!	; 0xffffff00
    3a30:	55000000 	strpl	r0, [r0, #-0]
    3a34:	0000000d 	andeq	r0, r0, sp
    3a38:	00070b30 	andeq	r0, r7, r0, lsr fp
    3a3c:	0c1f0100 	ldfeqs	f0, [pc], {-0}
    3a40:	5400008c 	strpl	r0, [r0], #-140	; 0xffffff74
    3a44:	01000000 	mrseq	r0, (UNDEF: 0)
    3a48:	000e3d9c 	muleq	lr, ip, sp
    3a4c:	073f2d00 	ldreq	r2, [pc, -r0, lsl #26]!
    3a50:	1f010000 	svcne	0x00010000
    3a54:	00000898 	muleq	r0, r8, r8
    3a58:	00000d83 	andeq	r0, r0, r3, lsl #27
    3a5c:	0007312d 	andeq	r3, r7, sp, lsr #2
    3a60:	b81f0100 	ldmdalt	pc, {r8}	; <UNPREDICTABLE>
    3a64:	a4000008 	strge	r0, [r0], #-8
    3a68:	2500000d 	strcs	r0, [r0, #-13]
    3a6c:	00000211 	andeq	r0, r0, r1, lsl r2
    3a70:	00000e4d 	andeq	r0, r0, sp, asr #28
    3a74:	9a380305 	bls	e04690 <__bss_end__+0xdfa620>
    3a78:	342b0000 	strtcc	r0, [fp], #-0
    3a7c:	5200008c 	andpl	r0, r0, #140	; 0x8c
    3a80:	2900000e 	stmdbcs	r0, {r1, r2, r3}
    3a84:	00008c48 	andeq	r8, r0, r8, asr #24
    3a88:	00000e5d 	andeq	r0, r0, sp, asr lr
    3a8c:	00000e33 	andeq	r0, r0, r3, lsr lr
    3a90:	0550012a 	ldrbeq	r0, [r0, #-298]	; 0xfffffed6
    3a94:	009aa003 	addseq	sl, sl, r3
    3a98:	51012a00 	tstpl	r1, r0, lsl #20
    3a9c:	9a540305 	bls	15046b8 <__bss_end__+0x14fa648>
    3aa0:	012a0000 			; <UNDEFINED> instruction: 0x012a0000
    3aa4:	38030552 	stmdacc	r3, {r1, r4, r6, r8, sl}
    3aa8:	2a00009a 	bcs	3d18 <_start-0x42e8>
    3aac:	08025301 	stmdaeq	r2, {r0, r8, r9, ip, lr}
    3ab0:	4c2b0020 	stcmi	0, cr0, [fp], #-128	; 0xffffff80
    3ab4:	6800008c 	stmdavs	r0, {r2, r3, r7}
    3ab8:	0000000e 	andeq	r0, r0, lr
    3abc:	00011408 	andeq	r1, r1, r8, lsl #8
    3ac0:	000e4d00 	andeq	r4, lr, r0, lsl #26
    3ac4:	00c70900 	sbceq	r0, r7, r0, lsl #18
    3ac8:	000e0000 	andeq	r0, lr, r0
    3acc:	000e3d0e 	andeq	r3, lr, lr, lsl #26
    3ad0:	01ec3100 	mvneq	r3, r0, lsl #2
    3ad4:	01ec0000 	mvneq	r0, r0
    3ad8:	1e060000 	cdpne	0, 0, cr0, cr6, cr0, {0}
    3adc:	0006b531 	andeq	fp, r6, r1, lsr r5
    3ae0:	0006b500 	andeq	fp, r6, r0, lsl #10
    3ae4:	31290600 			; <UNDEFINED> instruction: 0x31290600
    3ae8:	0000028e 	andeq	r0, r0, lr, lsl #5
    3aec:	0000028e 	andeq	r0, r0, lr, lsl #5
    3af0:	4c006506 	cfstr32mi	mvfx6, [r0], {6}
    3af4:	04000009 	streq	r0, [r0], #-9
    3af8:	0009f400 	andeq	pc, r9, r0, lsl #8
    3afc:	c8010400 	stmdagt	r1, {sl}
    3b00:	0c000003 	stceq	0, cr0, [r0], {3}
    3b04:	00000754 	andeq	r0, r0, r4, asr r7
    3b08:	000006de 	ldrdeq	r0, [r0], -lr
    3b0c:	00008f20 	andeq	r8, r0, r0, lsr #30
    3b10:	000000e8 	andeq	r0, r0, r8, ror #1
    3b14:	00000647 	andeq	r0, r0, r7, asr #12
    3b18:	69050402 	stmdbvs	r5, {r1, sl}
    3b1c:	0300746e 	movweq	r7, #1134	; 0x46e
    3b20:	00660704 	rsbeq	r0, r6, r4, lsl #14
    3b24:	01030000 	mrseq	r0, (UNDEF: 3)
    3b28:	0002ec06 	andeq	lr, r2, r6, lsl #24
    3b2c:	05020300 	streq	r0, [r2, #-768]	; 0xfffffd00
    3b30:	00000306 	andeq	r0, r0, r6, lsl #6
    3b34:	af050403 	svcge	0x00050403
    3b38:	03000000 	movweq	r0, #0
    3b3c:	00aa0508 	adceq	r0, sl, r8, lsl #10
    3b40:	79040000 	stmdbvc	r4, {}	; <UNPREDICTABLE>
    3b44:	02000006 	andeq	r0, r0, #6
    3b48:	00005a2e 	andeq	r5, r0, lr, lsr #20
    3b4c:	08010300 	stmdaeq	r1, {r8, r9}
    3b50:	000002ea 	andeq	r0, r0, sl, ror #5
    3b54:	25070203 	strcs	r0, [r7, #-515]	; 0xfffffdfd
    3b58:	04000002 	streq	r0, [r0], #-2
    3b5c:	00000637 	andeq	r0, r0, r7, lsr r6
    3b60:	00733402 	rsbseq	r3, r3, r2, lsl #8
    3b64:	04030000 	streq	r0, [r3], #-0
    3b68:	00006107 	andeq	r6, r0, r7, lsl #2
    3b6c:	07080300 	streq	r0, [r8, -r0, lsl #6]
    3b70:	0000005c 	andeq	r0, r0, ip, asr r0
    3b74:	0002d804 	andeq	sp, r2, r4, lsl #16
    3b78:	25070300 	strcs	r0, [r7, #-768]	; 0xfffffd00
    3b7c:	04000000 	streq	r0, [r0], #-0
    3b80:	000002c7 	andeq	r0, r0, r7, asr #5
    3b84:	00412c04 	subeq	r2, r1, r4, lsl #24
    3b88:	b1040000 	mrslt	r0, (UNDEF: 4)
    3b8c:	04000003 	streq	r0, [r0], #-3
    3b90:	00004172 	andeq	r4, r0, r2, ror r1
    3b94:	02680500 	rsbeq	r0, r8, #0, 10
    3b98:	65050000 	strvs	r0, [r5, #-0]
    3b9c:	00002c01 	andeq	r2, r0, r1, lsl #24
    3ba0:	04040600 	streq	r0, [r4], #-1536	; 0xfffffa00
    3ba4:	0000cda6 	andeq	ip, r0, r6, lsr #27
    3ba8:	02620700 	rsbeq	r0, r2, #0, 14
    3bac:	a8040000 	stmdage	r4, {}	; <UNPREDICTABLE>
    3bb0:	000000a2 	andeq	r0, r0, r2, lsr #1
    3bb4:	0001e507 	andeq	lr, r1, r7, lsl #10
    3bb8:	cda90400 	cfstrsgt	mvf0, [r9]
    3bbc:	00000000 	andeq	r0, r0, r0
    3bc0:	00005a08 	andeq	r5, r0, r8, lsl #20
    3bc4:	0000dd00 	andeq	sp, r0, r0, lsl #26
    3bc8:	00dd0900 	sbcseq	r0, sp, r0, lsl #18
    3bcc:	00030000 	andeq	r0, r3, r0
    3bd0:	9b070403 	blls	1c4be4 <__bss_end__+0x1bab74>
    3bd4:	0a000002 	beq	3be4 <_start-0x441c>
    3bd8:	05a30408 	streq	r0, [r3, #1032]!	; 0x408
    3bdc:	0b000001 	bleq	3be8 <_start-0x4418>
    3be0:	0000039b 	muleq	r0, fp, r3
    3be4:	0025a504 	eoreq	sl, r5, r4, lsl #10
    3be8:	0b000000 	bleq	3bf0 <_start-0x4410>
    3bec:	000003a3 	andeq	r0, r0, r3, lsr #7
    3bf0:	00aeaa04 	adceq	sl, lr, r4, lsl #20
    3bf4:	00040000 	andeq	r0, r4, r0
    3bf8:	00032e04 	andeq	r2, r3, r4, lsl #28
    3bfc:	e4ab0400 	strt	r0, [fp], #1024	; 0x400
    3c00:	04000000 	streq	r0, [r0], #-0
    3c04:	000001a2 	andeq	r0, r0, r2, lsr #3
    3c08:	0081af04 	addeq	sl, r1, r4, lsl #30
    3c0c:	040c0000 	streq	r0, [ip], #-0
    3c10:	0123040d 			; <UNDEFINED> instruction: 0x0123040d
    3c14:	01030000 	mrseq	r0, (UNDEF: 3)
    3c18:	0002f308 	andeq	pc, r2, r8, lsl #6
    3c1c:	01230e00 			; <UNDEFINED> instruction: 0x01230e00
    3c20:	45040000 	strmi	r0, [r4, #-0]
    3c24:	06000004 	streq	r0, [r0], -r4
    3c28:	00007316 	andeq	r7, r0, r6, lsl r3
    3c2c:	01b30f00 			; <UNDEFINED> instruction: 0x01b30f00
    3c30:	06180000 	ldreq	r0, [r8], -r0
    3c34:	00018d2d 	andeq	r8, r1, sp, lsr #26
    3c38:	034f0b00 	movteq	r0, #64256	; 0xfb00
    3c3c:	2f060000 	svccs	0x00060000
    3c40:	0000018d 	andeq	r0, r0, sp, lsl #3
    3c44:	6b5f1000 	blvs	17c7c4c <__bss_end__+0x17bdbdc>
    3c48:	25300600 	ldrcs	r0, [r0, #-1536]!	; 0xfffffa00
    3c4c:	04000000 	streq	r0, [r0], #-0
    3c50:	0003860b 	andeq	r8, r3, fp, lsl #12
    3c54:	25300600 	ldrcs	r0, [r0, #-1536]!	; 0xfffffa00
    3c58:	08000000 	stmdaeq	r0, {}	; <UNPREDICTABLE>
    3c5c:	00019c0b 	andeq	r9, r1, fp, lsl #24
    3c60:	25300600 	ldrcs	r0, [r0, #-1536]!	; 0xfffffa00
    3c64:	0c000000 	stceq	0, cr0, [r0], {-0}
    3c68:	0004a10b 	andeq	sl, r4, fp, lsl #2
    3c6c:	25300600 	ldrcs	r0, [r0, #-1536]!	; 0xfffffa00
    3c70:	10000000 	andne	r0, r0, r0
    3c74:	00785f10 	rsbseq	r5, r8, r0, lsl pc
    3c78:	01933106 	orrseq	r3, r3, r6, lsl #2
    3c7c:	00140000 	andseq	r0, r4, r0
    3c80:	013a040d 	teqeq	sl, sp, lsl #8
    3c84:	2f080000 	svccs	0x00080000
    3c88:	a3000001 	movwge	r0, #1
    3c8c:	09000001 	stmdbeq	r0, {r0}
    3c90:	000000dd 	ldrdeq	r0, [r0], -sp
    3c94:	e00f0000 	and	r0, pc, r0
    3c98:	24000001 	strcs	r0, [r0], #-1
    3c9c:	021c3506 	andseq	r3, ip, #25165824	; 0x1800000
    3ca0:	a10b0000 	mrsge	r0, (UNDEF: 11)
    3ca4:	06000000 	streq	r0, [r0], -r0
    3ca8:	00002537 	andeq	r2, r0, r7, lsr r5
    3cac:	b90b0000 	stmdblt	fp, {}	; <UNPREDICTABLE>
    3cb0:	06000003 	streq	r0, [r0], -r3
    3cb4:	00002538 	andeq	r2, r0, r8, lsr r5
    3cb8:	c40b0400 	strgt	r0, [fp], #-1024	; 0xfffffc00
    3cbc:	06000000 	streq	r0, [r0], -r0
    3cc0:	00002539 	andeq	r2, r0, r9, lsr r5
    3cc4:	220b0800 	andcs	r0, fp, #0, 16
    3cc8:	06000005 	streq	r0, [r0], -r5
    3ccc:	0000253a 	andeq	r2, r0, sl, lsr r5
    3cd0:	ab0b0c00 	blge	2c6cd8 <__bss_end__+0x2bcc68>
    3cd4:	06000002 	streq	r0, [r0], -r2
    3cd8:	0000253b 	andeq	r2, r0, fp, lsr r5
    3cdc:	840b1000 	strhi	r1, [fp], #-0
    3ce0:	06000002 	streq	r0, [r0], -r2
    3ce4:	0000253c 	andeq	r2, r0, ip, lsr r5
    3ce8:	a60b1400 	strge	r1, [fp], -r0, lsl #8
    3cec:	06000004 	streq	r0, [r0], -r4
    3cf0:	0000253d 	andeq	r2, r0, sp, lsr r5
    3cf4:	100b1800 	andne	r1, fp, r0, lsl #16
    3cf8:	06000003 	streq	r0, [r0], -r3
    3cfc:	0000253e 	andeq	r2, r0, lr, lsr r5
    3d00:	e90b1c00 	stmdb	fp, {sl, fp, ip}
    3d04:	06000004 	streq	r0, [r0], -r4
    3d08:	0000253f 	andeq	r2, r0, pc, lsr r5
    3d0c:	11002000 	mrsne	r2, (UNDEF: 0)
    3d10:	00000104 	andeq	r0, r0, r4, lsl #2
    3d14:	48060108 	stmdami	r6, {r3, r8}
    3d18:	0000025c 	andeq	r0, r0, ip, asr r2
    3d1c:	00018f0b 	andeq	r8, r1, fp, lsl #30
    3d20:	5c490600 	mcrrpl	6, 0, r0, r9, cr0
    3d24:	00000002 	andeq	r0, r0, r2
    3d28:	0000000b 	andeq	r0, r0, fp
    3d2c:	5c4a0600 	mcrrpl	6, 0, r0, sl, cr0
    3d30:	80000002 	andhi	r0, r0, r2
    3d34:	00043712 	andeq	r3, r4, r2, lsl r7
    3d38:	2f4c0600 	svccs	0x004c0600
    3d3c:	00000001 	andeq	r0, r0, r1
    3d40:	01291201 			; <UNDEFINED> instruction: 0x01291201
    3d44:	4f060000 	svcmi	0x00060000
    3d48:	0000012f 	andeq	r0, r0, pc, lsr #2
    3d4c:	08000104 	stmdaeq	r0, {r2, r8}
    3d50:	0000011b 	andeq	r0, r0, fp, lsl r1
    3d54:	0000026c 	andeq	r0, r0, ip, ror #4
    3d58:	0000dd09 	andeq	sp, r0, r9, lsl #26
    3d5c:	11001f00 	tstne	r0, r0, lsl #30
    3d60:	000002b4 			; <UNDEFINED> instruction: 0x000002b4
    3d64:	5b060190 	blpl	1843ac <__bss_end__+0x17a33c>
    3d68:	000002aa 	andeq	r0, r0, sl, lsr #5
    3d6c:	00034f0b 	andeq	r4, r3, fp, lsl #30
    3d70:	aa5c0600 	bge	1705578 <__bss_end__+0x16fb508>
    3d74:	00000002 	andeq	r0, r0, r2
    3d78:	0003670b 	andeq	r6, r3, fp, lsl #14
    3d7c:	255d0600 	ldrbcs	r0, [sp, #-1536]	; 0xfffffa00
    3d80:	04000000 	streq	r0, [r0], #-0
    3d84:	0001970b 	andeq	r9, r1, fp, lsl #14
    3d88:	b05f0600 	subslt	r0, pc, r0, lsl #12
    3d8c:	08000002 	stmdaeq	r0, {r1}
    3d90:	0001040b 	andeq	r0, r1, fp, lsl #8
    3d94:	1c600600 	stclne	6, cr0, [r0], #-0
    3d98:	88000002 	stmdahi	r0, {r1}
    3d9c:	6c040d00 	stcvs	13, cr0, [r4], {-0}
    3da0:	08000002 	stmdaeq	r0, {r1}
    3da4:	000002c0 	andeq	r0, r0, r0, asr #5
    3da8:	000002c0 	andeq	r0, r0, r0, asr #5
    3dac:	0000dd09 	andeq	sp, r0, r9, lsl #26
    3db0:	0d001f00 	stceq	15, cr1, [r0, #-0]
    3db4:	0002c604 	andeq	ip, r2, r4, lsl #12
    3db8:	1a0f1300 	bne	3c89c0 <__bss_end__+0x3be950>
    3dbc:	08000003 	stmdaeq	r0, {r0, r1}
    3dc0:	02ec7306 	rsceq	r7, ip, #402653184	; 0x18000000
    3dc4:	be0b0000 	cdplt	0, 0, cr0, cr11, cr0, {0}
    3dc8:	06000000 	streq	r0, [r0], -r0
    3dcc:	0002ec74 	andeq	lr, r2, r4, ror ip
    3dd0:	1b0b0000 	blne	2c3dd8 <__bss_end__+0x2b9d68>
    3dd4:	06000000 	streq	r0, [r0], -r0
    3dd8:	00002575 	andeq	r2, r0, r5, ror r5
    3ddc:	0d000400 	cfstrseq	mvf0, [r0, #-0]
    3de0:	00005a04 	andeq	r5, r0, r4, lsl #20
    3de4:	03390f00 	teqeq	r9, #0, 30
    3de8:	06680000 	strbteq	r0, [r8], -r0
    3dec:	00041cb3 			; <UNDEFINED> instruction: 0x00041cb3
    3df0:	705f1000 	subsvc	r1, pc, r0
    3df4:	ecb40600 	ldc	6, cr0, [r4]
    3df8:	00000002 	andeq	r0, r0, r2
    3dfc:	00725f10 	rsbseq	r5, r2, r0, lsl pc
    3e00:	0025b506 	eoreq	fp, r5, r6, lsl #10
    3e04:	10040000 	andne	r0, r4, r0
    3e08:	0600775f 			; <UNDEFINED> instruction: 0x0600775f
    3e0c:	000025b6 			; <UNDEFINED> instruction: 0x000025b6
    3e10:	220b0800 	andcs	r0, fp, #0, 16
    3e14:	06000001 	streq	r0, [r0], -r1
    3e18:	00003ab7 			; <UNDEFINED> instruction: 0x00003ab7
    3e1c:	0b0b0c00 	bleq	2c6e24 <__bss_end__+0x2bcdb4>
    3e20:	06000002 	streq	r0, [r0], -r2
    3e24:	00003ab8 			; <UNDEFINED> instruction: 0x00003ab8
    3e28:	5f100e00 	svcpl	0x00100e00
    3e2c:	06006662 	streq	r6, [r0], -r2, ror #12
    3e30:	0002c7b9 			; <UNDEFINED> instruction: 0x0002c7b9
    3e34:	7b0b1000 	blvc	2c7e3c <__bss_end__+0x2bddcc>
    3e38:	06000000 	streq	r0, [r0], -r0
    3e3c:	000025ba 			; <UNDEFINED> instruction: 0x000025ba
    3e40:	120b1800 	andne	r1, fp, #0, 16
    3e44:	06000001 	streq	r0, [r0], -r1
    3e48:	00011bc1 	andeq	r1, r1, r1, asr #23
    3e4c:	780b1c00 	stmdavc	fp, {sl, fp, ip}
    3e50:	0600000a 	streq	r0, [r0], -sl
    3e54:	000577c3 	andeq	r7, r5, r3, asr #15
    3e58:	0c0b2000 	stceq	0, cr2, [fp], {-0}
    3e5c:	06000006 	streq	r0, [r0], -r6
    3e60:	0005a1c5 	andeq	sl, r5, r5, asr #3
    3e64:	ab0b2400 	blge	2cce6c <__bss_end__+0x2c2dfc>
    3e68:	06000003 	streq	r0, [r0], -r3
    3e6c:	0005c5c8 	andeq	ip, r5, r8, asr #11
    3e70:	030b2800 	movweq	r2, #47104	; 0xb800
    3e74:	06000005 	streq	r0, [r0], -r5
    3e78:	0005dfc9 	andeq	sp, r5, r9, asr #31
    3e7c:	5f102c00 	svcpl	0x00102c00
    3e80:	06006275 			; <UNDEFINED> instruction: 0x06006275
    3e84:	0002c7cc 	andeq	ip, r2, ip, asr #15
    3e88:	5f103000 	svcpl	0x00103000
    3e8c:	06007075 			; <UNDEFINED> instruction: 0x06007075
    3e90:	0002eccd 	andeq	lr, r2, sp, asr #25
    3e94:	5f103800 	svcpl	0x00103800
    3e98:	06007275 			; <UNDEFINED> instruction: 0x06007275
    3e9c:	000025ce 	andeq	r2, r0, lr, asr #11
    3ea0:	b80b3c00 	stmdalt	fp, {sl, fp, ip, sp}
    3ea4:	06000000 	streq	r0, [r0], -r0
    3ea8:	0005e5d1 	ldrdeq	lr, [r5], -r1
    3eac:	db0b4000 	blle	2d3eb4 <__bss_end__+0x2c9e44>
    3eb0:	06000004 	streq	r0, [r0], -r4
    3eb4:	0005f5d2 	ldrdeq	pc, [r5], -r2
    3eb8:	5f104300 	svcpl	0x00104300
    3ebc:	0600626c 	streq	r6, [r0], -ip, ror #4
    3ec0:	0002c7d5 	ldrdeq	ip, [r2], -r5
    3ec4:	400b4400 	andmi	r4, fp, r0, lsl #8
    3ec8:	06000001 	streq	r0, [r0], -r1
    3ecc:	000025d8 	ldrdeq	r2, [r0], -r8
    3ed0:	510b4c00 	tstpl	fp, r0, lsl #24
    3ed4:	06000001 	streq	r0, [r0], -r1
    3ed8:	00008cd9 	ldrdeq	r8, [r0], -r9
    3edc:	190b5000 	stmdbne	fp, {ip, lr}
    3ee0:	0600000a 	streq	r0, [r0], -sl
    3ee4:	00043adc 	ldrdeq	r3, [r4], -ip
    3ee8:	760b5400 	strvc	r5, [fp], -r0, lsl #8
    3eec:	06000002 	streq	r0, [r0], -r2
    3ef0:	000110e0 	andeq	r1, r1, r0, ror #1
    3ef4:	410b5800 	tstmi	fp, r0, lsl #16
    3ef8:	06000003 	streq	r0, [r0], -r3
    3efc:	000105e2 	andeq	r0, r1, r2, ror #11
    3f00:	7c0b5c00 	stcvc	12, cr5, [fp], {-0}
    3f04:	06000002 	streq	r0, [r0], -r2
    3f08:	000025e3 	andeq	r2, r0, r3, ror #11
    3f0c:	14006400 	strne	r6, [r0], #-1024	; 0xfffffc00
    3f10:	00000025 	andeq	r0, r0, r5, lsr #32
    3f14:	0000043a 	andeq	r0, r0, sl, lsr r4
    3f18:	00043a15 	andeq	r3, r4, r5, lsl sl
    3f1c:	011b1500 	tsteq	fp, r0, lsl #10
    3f20:	1d150000 	ldcne	0, cr0, [r5, #-0]
    3f24:	15000001 	strne	r0, [r0, #-1]
    3f28:	00000025 	andeq	r0, r0, r5, lsr #32
    3f2c:	45040d00 	strmi	r0, [r4, #-3328]	; 0xfffff300
    3f30:	0e000004 	cdpeq	0, 0, cr0, cr0, cr4, {0}
    3f34:	0000043a 	andeq	r0, r0, sl, lsr r4
    3f38:	00038e16 	andeq	r8, r3, r6, lsl lr
    3f3c:	06042800 	streq	r2, [r4], -r0, lsl #16
    3f40:	05770238 	ldrbeq	r0, [r7, #-568]!	; 0xfffffdc8
    3f44:	ff170000 			; <UNDEFINED> instruction: 0xff170000
    3f48:	06000002 	streq	r0, [r0], -r2
    3f4c:	0025023a 	eoreq	r0, r5, sl, lsr r2
    3f50:	17000000 	strne	r0, [r0, -r0]
    3f54:	00000131 	andeq	r0, r0, r1, lsr r1
    3f58:	4c023f06 	stcmi	15, cr3, [r2], {6}
    3f5c:	04000006 	streq	r0, [r0], #-6
    3f60:	0001fb17 	andeq	pc, r1, r7, lsl fp	; <UNPREDICTABLE>
    3f64:	023f0600 	eorseq	r0, pc, #0, 12
    3f68:	0000064c 	andeq	r0, r0, ip, asr #12
    3f6c:	01ab1708 			; <UNDEFINED> instruction: 0x01ab1708
    3f70:	3f060000 	svccc	0x00060000
    3f74:	00064c02 	andeq	r4, r6, r2, lsl #24
    3f78:	62170c00 	andsvs	r0, r7, #0, 24
    3f7c:	06000003 	streq	r0, [r0], -r3
    3f80:	00250241 	eoreq	r0, r5, r1, asr #4
    3f84:	17100000 	ldrne	r0, [r0, -r0]
    3f88:	00000029 	andeq	r0, r0, r9, lsr #32
    3f8c:	2e024206 	cdpcs	2, 0, cr4, cr2, cr6, {0}
    3f90:	14000008 	strne	r0, [r0], #-8
    3f94:	00047b17 	andeq	r7, r4, r7, lsl fp
    3f98:	02440600 	subeq	r0, r4, #0, 12
    3f9c:	00000025 	andeq	r0, r0, r5, lsr #32
    3fa0:	036c1730 	cmneq	ip, #48, 14	; 0xc00000
    3fa4:	45060000 	strmi	r0, [r6, #-0]
    3fa8:	00059b02 	andeq	r9, r5, r2, lsl #22
    3fac:	bc173400 	cfldrslt	mvf3, [r7], {-0}
    3fb0:	06000002 	streq	r0, [r0], -r2
    3fb4:	00250247 	eoreq	r0, r5, r7, asr #4
    3fb8:	17380000 	ldrne	r0, [r8, -r0]!
    3fbc:	0000037c 	andeq	r0, r0, ip, ror r3
    3fc0:	49024906 	stmdbmi	r2, {r1, r2, r8, fp, lr}
    3fc4:	3c000008 	stccc	0, cr0, [r0], {8}
    3fc8:	00025a17 	andeq	r5, r2, r7, lsl sl
    3fcc:	024c0600 	subeq	r0, ip, #0, 12
    3fd0:	0000018d 	andeq	r0, r0, sp, lsl #3
    3fd4:	01ca1740 	biceq	r1, sl, r0, asr #14
    3fd8:	4d060000 	stcmi	0, cr0, [r6, #-0]
    3fdc:	00002502 	andeq	r2, r0, r2, lsl #10
    3fe0:	1d174400 	cfldrsne	mvf4, [r7, #-0]
    3fe4:	06000005 	streq	r0, [r0], -r5
    3fe8:	018d024e 	orreq	r0, sp, lr, asr #4
    3fec:	17480000 	strbne	r0, [r8, -r0]
    3ff0:	000002ce 	andeq	r0, r0, lr, asr #5
    3ff4:	4f024f06 	svcmi	0x00024f06
    3ff8:	4c000008 	stcmi	0, cr0, [r0], {8}
    3ffc:	00020317 	andeq	r0, r2, r7, lsl r3
    4000:	02520600 	subseq	r0, r2, #0, 12
    4004:	00000025 	andeq	r0, r0, r5, lsr #32
    4008:	01491750 	cmpeq	r9, r0, asr r7
    400c:	53060000 	movwpl	r0, #24576	; 0x6000
    4010:	00011d02 	andeq	r1, r1, r2, lsl #26
    4014:	f8175400 			; <UNDEFINED> instruction: 0xf8175400
    4018:	06000002 	streq	r0, [r0], -r2
    401c:	080c0276 	stmdaeq	ip, {r1, r2, r4, r5, r6, r9}
    4020:	18580000 	ldmdane	r8, {}^	; <UNPREDICTABLE>
    4024:	000002b4 			; <UNDEFINED> instruction: 0x000002b4
    4028:	aa027a06 	bge	a2848 <__bss_end__+0x987d8>
    402c:	48000002 	stmdami	r0, {r1}
    4030:	02381801 	eorseq	r1, r8, #65536	; 0x10000
    4034:	7b060000 	blvc	18403c <__bss_end__+0x179fcc>
    4038:	00026c02 	andeq	r6, r2, r2, lsl #24
    403c:	18014c00 	stmdane	r1, {sl, fp, lr}
    4040:	000004c9 	andeq	r0, r0, r9, asr #9
    4044:	60027f06 	andvs	r7, r2, r6, lsl #30
    4048:	dc000008 	stcle	0, cr0, [r0], {8}
    404c:	011a1802 	tsteq	sl, r2, lsl #16
    4050:	84060000 	strhi	r0, [r6], #-0
    4054:	00061102 	andeq	r1, r6, r2, lsl #2
    4058:	1802e000 	stmdane	r2, {sp, lr, pc}
    405c:	000000ff 	strdeq	r0, [r0], -pc	; <UNPREDICTABLE>
    4060:	6c028506 	cfstr32vs	mvfx8, [r2], {6}
    4064:	ec000008 	stc	0, cr0, [r0], {8}
    4068:	040d0002 	streq	r0, [sp], #-2
    406c:	0000041c 	andeq	r0, r0, ip, lsl r4
    4070:	00002514 	andeq	r2, r0, r4, lsl r5
    4074:	00059b00 	andeq	r9, r5, r0, lsl #22
    4078:	043a1500 	ldrteq	r1, [sl], #-1280	; 0xfffffb00
    407c:	1b150000 	blne	544084 <__bss_end__+0x53a014>
    4080:	15000001 	strne	r0, [r0, #-1]
    4084:	0000059b 	muleq	r0, fp, r5
    4088:	00002515 	andeq	r2, r0, r5, lsl r5
    408c:	040d0000 	streq	r0, [sp], #-0
    4090:	0000012a 	andeq	r0, r0, sl, lsr #2
    4094:	057d040d 	ldrbeq	r0, [sp, #-1037]!	; 0xfffffbf3
    4098:	97140000 	ldrls	r0, [r4, -r0]
    409c:	c5000000 	strgt	r0, [r0, #-0]
    40a0:	15000005 	strne	r0, [r0, #-5]
    40a4:	0000043a 	andeq	r0, r0, sl, lsr r4
    40a8:	00011b15 	andeq	r1, r1, r5, lsl fp
    40ac:	00971500 	addseq	r1, r7, r0, lsl #10
    40b0:	25150000 	ldrcs	r0, [r5, #-0]
    40b4:	00000000 	andeq	r0, r0, r0
    40b8:	05a7040d 	streq	r0, [r7, #1037]!	; 0x40d
    40bc:	25140000 	ldrcs	r0, [r4, #-0]
    40c0:	df000000 	svcle	0x00000000
    40c4:	15000005 	strne	r0, [r0, #-5]
    40c8:	0000043a 	andeq	r0, r0, sl, lsr r4
    40cc:	00011b15 	andeq	r1, r1, r5, lsl fp
    40d0:	040d0000 	streq	r0, [sp], #-0
    40d4:	000005cb 	andeq	r0, r0, fp, asr #11
    40d8:	00005a08 	andeq	r5, r0, r8, lsl #20
    40dc:	0005f500 	andeq	pc, r5, r0, lsl #10
    40e0:	00dd0900 	sbcseq	r0, sp, r0, lsl #18
    40e4:	00020000 	andeq	r0, r2, r0
    40e8:	00005a08 	andeq	r5, r0, r8, lsl #20
    40ec:	00060500 	andeq	r0, r6, r0, lsl #10
    40f0:	00dd0900 	sbcseq	r0, sp, r0, lsl #18
    40f4:	00000000 	andeq	r0, r0, r0
    40f8:	00032705 	andeq	r2, r3, r5, lsl #14
    40fc:	011d0600 	tsteq	sp, r0, lsl #12
    4100:	000002f2 	strdeq	r0, [r0], -r2
    4104:	0004b019 	andeq	fp, r4, r9, lsl r0
    4108:	21060c00 	tstcs	r6, r0, lsl #24
    410c:	00064601 	andeq	r4, r6, r1, lsl #12
    4110:	034f1700 	movteq	r1, #63232	; 0xf700
    4114:	23060000 	movwcs	r0, #24576	; 0x6000
    4118:	00064601 	andeq	r4, r6, r1, lsl #12
    411c:	1e170000 	cdpne	0, 1, cr0, cr7, cr0, {0}
    4120:	06000002 	streq	r0, [r0], -r2
    4124:	00250124 	eoreq	r0, r5, r4, lsr #2
    4128:	17040000 	strne	r0, [r4, -r0]
    412c:	00000321 	andeq	r0, r0, r1, lsr #6
    4130:	4c012506 	cfstr32mi	mvfx2, [r1], {6}
    4134:	08000006 	stmdaeq	r0, {r1, r2}
    4138:	11040d00 	tstne	r4, r0, lsl #26
    413c:	0d000006 	stceq	0, cr0, [r0, #-24]	; 0xffffffe8
    4140:	00060504 	andeq	r0, r6, r4, lsl #10
    4144:	00211900 	eoreq	r1, r1, r0, lsl #18
    4148:	060e0000 	streq	r0, [lr], -r0
    414c:	0687013d 			; <UNDEFINED> instruction: 0x0687013d
    4150:	95170000 	ldrls	r0, [r7, #-0]
    4154:	06000003 	streq	r0, [r0], -r3
    4158:	0687013e 			; <UNDEFINED> instruction: 0x0687013e
    415c:	17000000 	strne	r0, [r0, -r0]
    4160:	000003c2 	andeq	r0, r0, r2, asr #7
    4164:	87013f06 	strhi	r3, [r1, -r6, lsl #30]
    4168:	06000006 	streq	r0, [r0], -r6
    416c:	00044017 	andeq	r4, r4, r7, lsl r0
    4170:	01400600 	cmpeq	r0, r0, lsl #12
    4174:	00000061 	andeq	r0, r0, r1, rrx
    4178:	6108000c 	tstvs	r8, ip
    417c:	97000000 	strls	r0, [r0, -r0]
    4180:	09000006 	stmdbeq	r0, {r1, r2}
    4184:	000000dd 	ldrdeq	r0, [r0], -sp
    4188:	d01a0002 	andsle	r0, sl, r2
    418c:	98025706 	stmdals	r2, {r1, r2, r8, r9, sl, ip, lr}
    4190:	17000007 	strne	r0, [r0, -r7]
    4194:	00000494 	muleq	r0, r4, r4
    4198:	2c025906 			; <UNDEFINED> instruction: 0x2c025906
    419c:	00000000 	andeq	r0, r0, r0
    41a0:	00042a17 	andeq	r2, r4, r7, lsl sl
    41a4:	025a0600 	subseq	r0, sl, #0, 12
    41a8:	0000011d 	andeq	r0, r0, sp, lsl r1
    41ac:	024d1704 	subeq	r1, sp, #4, 14	; 0x100000
    41b0:	5b060000 	blpl	1841b8 <__bss_end__+0x17a148>
    41b4:	00079802 	andeq	r9, r7, r2, lsl #16
    41b8:	f4170800 			; <UNDEFINED> instruction: 0xf4170800
    41bc:	06000004 	streq	r0, [r0], -r4
    41c0:	01a3025c 			; <UNDEFINED> instruction: 0x01a3025c
    41c4:	17240000 	strne	r0, [r4, -r0]!
    41c8:	000001bb 			; <UNDEFINED> instruction: 0x000001bb
    41cc:	25025d06 	strcs	r5, [r2, #-3334]	; 0xfffff2fa
    41d0:	48000000 	stmdami	r0, {}	; <UNPREDICTABLE>
    41d4:	00034a17 	andeq	r4, r3, r7, lsl sl
    41d8:	025e0600 	subseq	r0, lr, #0, 12
    41dc:	0000007a 	andeq	r0, r0, sl, ror r0
    41e0:	050a1750 	streq	r1, [sl, #-1872]	; 0xfffff8b0
    41e4:	5f060000 	svcpl	0x00060000
    41e8:	00065202 	andeq	r5, r6, r2, lsl #4
    41ec:	55175800 	ldrpl	r5, [r7, #-2048]	; 0xfffff800
    41f0:	06000003 	streq	r0, [r0], -r3
    41f4:	01050260 	tsteq	r5, r0, ror #4
    41f8:	17680000 	strbne	r0, [r8, -r0]!
    41fc:	0000050f 	andeq	r0, r0, pc, lsl #10
    4200:	05026106 	streq	r6, [r2, #-262]	; 0xfffffefa
    4204:	70000001 	andvc	r0, r0, r1
    4208:	00009317 	andeq	r9, r0, r7, lsl r3
    420c:	02620600 	rsbeq	r0, r2, #0, 12
    4210:	00000105 	andeq	r0, r0, r5, lsl #2
    4214:	04bf1778 	ldrteq	r1, [pc], #1912	; 421c <_start-0x3de4>
    4218:	63060000 	movwvs	r0, #24576	; 0x6000
    421c:	0007a802 	andeq	sl, r7, r2, lsl #16
    4220:	41178000 	tstmi	r7, r0
    4224:	06000002 	streq	r0, [r0], -r2
    4228:	07b80264 	ldreq	r0, [r8, r4, ror #4]!
    422c:	17880000 	strne	r0, [r8, r0]
    4230:	0000044d 	andeq	r0, r0, sp, asr #8
    4234:	25026506 	strcs	r6, [r2, #-1286]	; 0xfffffafa
    4238:	a0000000 	andge	r0, r0, r0
    423c:	00018117 	andeq	r8, r1, r7, lsl r1
    4240:	02660600 	rsbeq	r0, r6, #0, 12
    4244:	00000105 	andeq	r0, r0, r5, lsl #2
    4248:	008417a4 	addeq	r1, r4, r4, lsr #15
    424c:	67060000 	strvs	r0, [r6, -r0]
    4250:	00010502 	andeq	r0, r1, r2, lsl #10
    4254:	7017ac00 	andsvc	sl, r7, r0, lsl #24
    4258:	06000001 	streq	r0, [r0], -r1
    425c:	01050268 	tsteq	r5, r8, ror #4
    4260:	17b40000 	ldrne	r0, [r4, r0]!
    4264:	0000003c 	andeq	r0, r0, ip, lsr r0
    4268:	05026906 	streq	r6, [r2, #-2310]	; 0xfffff6fa
    426c:	bc000001 	stclt	0, cr0, [r0], {1}
    4270:	00004b17 	andeq	r4, r0, r7, lsl fp
    4274:	026a0600 	rsbeq	r0, sl, #0, 12
    4278:	00000105 	andeq	r0, r0, r5, lsl #2
    427c:	02fd17c4 	rscseq	r1, sp, #196, 14	; 0x3100000
    4280:	6b060000 	blvs	184288 <__bss_end__+0x17a218>
    4284:	00002502 	andeq	r2, r0, r2, lsl #10
    4288:	0800cc00 	stmdaeq	r0, {sl, fp, lr, pc}
    428c:	00000123 	andeq	r0, r0, r3, lsr #2
    4290:	000007a8 	andeq	r0, r0, r8, lsr #15
    4294:	0000dd09 	andeq	sp, r0, r9, lsl #26
    4298:	08001900 	stmdaeq	r0, {r8, fp, ip}
    429c:	00000123 	andeq	r0, r0, r3, lsr #2
    42a0:	000007b8 			; <UNDEFINED> instruction: 0x000007b8
    42a4:	0000dd09 	andeq	sp, r0, r9, lsl #26
    42a8:	08000700 	stmdaeq	r0, {r8, r9, sl}
    42ac:	00000123 	andeq	r0, r0, r3, lsr #2
    42b0:	000007c8 	andeq	r0, r0, r8, asr #15
    42b4:	0000dd09 	andeq	sp, r0, r9, lsl #26
    42b8:	1a001700 	bne	9ec0 <buf.4229+0x254>
    42bc:	027006f0 	rsbseq	r0, r0, #240, 12	; 0xf000000
    42c0:	000007ec 	andeq	r0, r0, ip, ror #15
    42c4:	0002a417 	andeq	sl, r2, r7, lsl r4
    42c8:	02730600 	rsbseq	r0, r3, #0, 12
    42cc:	000007ec 	andeq	r0, r0, ip, ror #15
    42d0:	04b61700 	ldrteq	r1, [r6], #1792	; 0x700
    42d4:	74060000 	strvc	r0, [r6], #-0
    42d8:	0007fc02 	andeq	pc, r7, r2, lsl #24
    42dc:	08007800 	stmdaeq	r0, {fp, ip, sp, lr}
    42e0:	000002ec 	andeq	r0, r0, ip, ror #5
    42e4:	000007fc 	strdeq	r0, [r0], -ip
    42e8:	0000dd09 	andeq	sp, r0, r9, lsl #26
    42ec:	08001d00 	stmdaeq	r0, {r8, sl, fp, ip}
    42f0:	0000002c 	andeq	r0, r0, ip, lsr #32
    42f4:	0000080c 	andeq	r0, r0, ip, lsl #16
    42f8:	0000dd09 	andeq	sp, r0, r9, lsl #26
    42fc:	1b001d00 	blne	b704 <__bss_end__+0x1694>
    4300:	025506f0 	subseq	r0, r5, #240, 12	; 0xf000000
    4304:	0000082e 	andeq	r0, r0, lr, lsr #16
    4308:	00038e1c 	andeq	r8, r3, ip, lsl lr
    430c:	026c0600 	rsbeq	r0, ip, #0, 12
    4310:	00000697 	muleq	r0, r7, r6
    4314:	0004e11c 	andeq	lr, r4, ip, lsl r1
    4318:	02750600 	rsbseq	r0, r5, #0, 12
    431c:	000007c8 	andeq	r0, r0, r8, asr #15
    4320:	01230800 			; <UNDEFINED> instruction: 0x01230800
    4324:	083e0000 	ldmdaeq	lr!, {}	; <UNPREDICTABLE>
    4328:	dd090000 	stcle	0, cr0, [r9, #-0]
    432c:	18000000 	stmdane	r0, {}	; <UNPREDICTABLE>
    4330:	08491d00 	stmdaeq	r9, {r8, sl, fp, ip}^
    4334:	3a150000 	bcc	54433c <__bss_end__+0x53a2cc>
    4338:	00000004 	andeq	r0, r0, r4
    433c:	083e040d 	ldmdaeq	lr!, {r0, r2, r3, sl}
    4340:	040d0000 	streq	r0, [sp], #-0
    4344:	0000018d 	andeq	r0, r0, sp, lsl #3
    4348:	0008601d 	andeq	r6, r8, sp, lsl r0
    434c:	00251500 	eoreq	r1, r5, r0, lsl #10
    4350:	0d000000 	stceq	0, cr0, [r0, #-0]
    4354:	00086604 	andeq	r6, r8, r4, lsl #12
    4358:	55040d00 	strpl	r0, [r4, #-3328]	; 0xfffff300
    435c:	08000008 	stmdaeq	r0, {r3}
    4360:	00000605 	andeq	r0, r0, r5, lsl #12
    4364:	0000087c 	andeq	r0, r0, ip, ror r8
    4368:	0000dd09 	andeq	sp, r0, r9, lsl #26
    436c:	1e000200 	cdpne	2, 0, cr0, cr0, cr0, {0}
    4370:	0000046f 	andeq	r0, r0, pc, ror #8
    4374:	3a02fd06 	bcc	c3794 <__bss_end__+0xb9724>
    4378:	1e000004 	cdpne	0, 0, cr0, cr0, cr4, {0}
    437c:	00000468 	andeq	r0, r0, r8, ror #8
    4380:	4002fe06 	andmi	pc, r2, r6, lsl #28
    4384:	14000004 	strne	r0, [r0], #-4
    4388:	00000025 	andeq	r0, r0, r5, lsr #32
    438c:	000008a3 	andeq	r0, r0, r3, lsr #17
    4390:	00002515 	andeq	r2, r0, r5, lsl r5
    4394:	d41f0000 	ldrle	r0, [pc], #-0	; 439c <_start-0x3c64>
    4398:	07000001 	streq	r0, [r0, -r1]
    439c:	0008ae1d 	andeq	sl, r8, sp, lsl lr
    43a0:	94040d00 	strls	r0, [r4], #-3328	; 0xfffff300
    43a4:	14000008 	strne	r0, [r0], #-8
    43a8:	00000025 	andeq	r0, r0, r5, lsr #32
    43ac:	000008c3 	andeq	r0, r0, r3, asr #17
    43b0:	00059b15 	andeq	r9, r5, r5, lsl fp
    43b4:	691f0000 	ldmdbvs	pc, {}	; <UNPREDICTABLE>
    43b8:	07000007 	streq	r0, [r0, -r7]
    43bc:	0008ce22 	andeq	ip, r8, r2, lsr #28
    43c0:	b4040d00 	strlt	r0, [r4], #-3328	; 0xfffff300
    43c4:	20000008 	andcs	r0, r0, r8
    43c8:	00000540 	andeq	r0, r0, r0, asr #10
    43cc:	00680f01 	rsbeq	r0, r8, r1, lsl #30
    43d0:	8f200000 	svchi	0x00200000
    43d4:	00e80000 	rsceq	r0, r8, r0
    43d8:	9c010000 	stcls	0, cr0, [r1], {-0}
    43dc:	00000948 	andeq	r0, r0, r8, asr #18
    43e0:	000a1921 	andeq	r1, sl, r1, lsr #18
    43e4:	480f0100 	stmdami	pc, {r8}	; <UNPREDICTABLE>
    43e8:	c5000009 	strgt	r0, [r0, #-9]
    43ec:	2200000d 	andcs	r0, r0, #13
    43f0:	006e656c 	rsbeq	r6, lr, ip, ror #10
    43f4:	00250f01 	eoreq	r0, r5, r1, lsl #30
    43f8:	0dff0000 	ldcleq	0, cr0, [pc]	; 4400 <_start-0x3c00>
    43fc:	1a230000 	bne	8c4404 <__bss_end__+0x8ba394>
    4400:	0100000a 	tsteq	r0, sl
    4404:	00059b10 	andeq	r9, r5, r0, lsl fp
    4408:	000e3e00 	andeq	r3, lr, r0, lsl #28
    440c:	05452300 	strbeq	r2, [r5, #-768]	; 0xfffffd00
    4410:	11010000 	mrsne	r0, (UNDEF: 1)
    4414:	00000068 	andeq	r0, r0, r8, rrx
    4418:	00000e6a 	andeq	r0, r0, sl, ror #28
    441c:	706d7424 	rsbvc	r7, sp, r4, lsr #8
    4420:	68110100 	ldmdavs	r1, {r8}
    4424:	bf000000 	svclt	0x00000000
    4428:	2400000e 	strcs	r0, [r0], #-14
    442c:	006d6572 	rsbeq	r6, sp, r2, ror r5
    4430:	00251201 	eoreq	r1, r5, r1, lsl #4
    4434:	0f0a0000 	svceq	0x000a0000
    4438:	0d000000 	stceq	0, cr0, [r0, #-0]
    443c:	00094e04 	andeq	r4, r9, r4, lsl #28
    4440:	eb002500 	bl	d848 <__bss_end__+0x37d8>
    4444:	04000008 	streq	r0, [r0], #-8
    4448:	000bd700 	andeq	sp, fp, r0, lsl #14
    444c:	c8010400 	stmdagt	r1, {sl}
    4450:	0c000003 	stceq	0, cr0, [r0], {3}
    4454:	0000076e 	andeq	r0, r0, lr, ror #14
    4458:	000006de 	ldrdeq	r0, [r0], -lr
    445c:	00009008 	andeq	r9, r0, r8
    4460:	00000034 	andeq	r0, r0, r4, lsr r0
    4464:	00000775 	andeq	r0, r0, r5, ror r7
    4468:	69050402 	stmdbvs	r5, {r1, sl}
    446c:	0300746e 	movweq	r7, #1134	; 0x46e
    4470:	00660704 	rsbeq	r0, r6, r4, lsl #14
    4474:	01030000 	mrseq	r0, (UNDEF: 3)
    4478:	0002ec06 	andeq	lr, r2, r6, lsl #24
    447c:	05020300 	streq	r0, [r2, #-768]	; 0xfffffd00
    4480:	00000306 	andeq	r0, r0, r6, lsl #6
    4484:	af050403 	svcge	0x00050403
    4488:	03000000 	movweq	r0, #0
    448c:	00aa0508 	adceq	r0, sl, r8, lsl #10
    4490:	01030000 	mrseq	r0, (UNDEF: 3)
    4494:	0002ea08 	andeq	lr, r2, r8, lsl #20
    4498:	07020300 	streq	r0, [r2, -r0, lsl #6]
    449c:	00000225 	andeq	r0, r0, r5, lsr #4
    44a0:	61070403 	tstvs	r7, r3, lsl #8
    44a4:	03000000 	movweq	r0, #0
    44a8:	005c0708 	subseq	r0, ip, r8, lsl #14
    44ac:	d8040000 	stmdale	r4, {}	; <UNPREDICTABLE>
    44b0:	02000002 	andeq	r0, r0, #2
    44b4:	00002507 	andeq	r2, r0, r7, lsl #10
    44b8:	02c70400 	sbceq	r0, r7, #0, 8
    44bc:	2c030000 	stccs	0, cr0, [r3], {-0}
    44c0:	00000041 	andeq	r0, r0, r1, asr #32
    44c4:	0003b104 	andeq	fp, r3, r4, lsl #2
    44c8:	41720300 	cmnmi	r2, r0, lsl #6
    44cc:	05000000 	streq	r0, [r0, #-0]
    44d0:	00000268 	andeq	r0, r0, r8, ror #4
    44d4:	2c016504 	cfstr32cs	mvfx6, [r1], {4}
    44d8:	06000000 	streq	r0, [r0], -r0
    44dc:	b7a60304 	strlt	r0, [r6, r4, lsl #6]!
    44e0:	07000000 	streq	r0, [r0, -r0]
    44e4:	00000262 	andeq	r0, r0, r2, ror #4
    44e8:	008ca803 	addeq	sl, ip, r3, lsl #16
    44ec:	e5070000 	str	r0, [r7, #-0]
    44f0:	03000001 	movweq	r0, #1
    44f4:	0000b7a9 	andeq	fp, r0, r9, lsr #15
    44f8:	4f080000 	svcmi	0x00080000
    44fc:	c7000000 	strgt	r0, [r0, -r0]
    4500:	09000000 	stmdbeq	r0, {}	; <UNPREDICTABLE>
    4504:	000000c7 	andeq	r0, r0, r7, asr #1
    4508:	04030003 	streq	r0, [r3], #-3
    450c:	00029b07 	andeq	r9, r2, r7, lsl #22
    4510:	03080a00 	movweq	r0, #35328	; 0x8a00
    4514:	0000efa3 	andeq	lr, r0, r3, lsr #31
    4518:	039b0b00 	orrseq	r0, fp, #0, 22
    451c:	a5030000 	strge	r0, [r3, #-0]
    4520:	00000025 	andeq	r0, r0, r5, lsr #32
    4524:	03a30b00 			; <UNDEFINED> instruction: 0x03a30b00
    4528:	aa030000 	bge	c4530 <__bss_end__+0xba4c0>
    452c:	00000098 	muleq	r0, r8, r0
    4530:	2e040004 	cdpcs	0, 0, cr0, cr4, cr4, {0}
    4534:	03000003 	movweq	r0, #3
    4538:	0000ceab 	andeq	ip, r0, fp, lsr #29
    453c:	01a20400 			; <UNDEFINED> instruction: 0x01a20400
    4540:	af030000 	svcge	0x00030000
    4544:	0000006b 	andeq	r0, r0, fp, rrx
    4548:	040d040c 	streq	r0, [sp], #-1036	; 0xfffffbf4
    454c:	0000010d 	andeq	r0, r0, sp, lsl #2
    4550:	f3080103 	vrhadd.u8	d0, d8, d3
    4554:	0e000002 	cdpeq	0, 0, cr0, cr0, cr2, {0}
    4558:	0000010d 	andeq	r0, r0, sp, lsl #2
    455c:	00044504 	andeq	r4, r4, r4, lsl #10
    4560:	5d160500 	cfldr32pl	mvfx0, [r6, #-0]
    4564:	0f000000 	svceq	0x00000000
    4568:	000001b3 			; <UNDEFINED> instruction: 0x000001b3
    456c:	772d0518 			; <UNDEFINED> instruction: 0x772d0518
    4570:	0b000001 	bleq	457c <_start-0x3a84>
    4574:	0000034f 	andeq	r0, r0, pc, asr #6
    4578:	01772f05 	cmneq	r7, r5, lsl #30
    457c:	10000000 	andne	r0, r0, r0
    4580:	05006b5f 	streq	r6, [r0, #-2911]	; 0xfffff4a1
    4584:	00002530 	andeq	r2, r0, r0, lsr r5
    4588:	860b0400 	strhi	r0, [fp], -r0, lsl #8
    458c:	05000003 	streq	r0, [r0, #-3]
    4590:	00002530 	andeq	r2, r0, r0, lsr r5
    4594:	9c0b0800 	stcls	8, cr0, [fp], {-0}
    4598:	05000001 	streq	r0, [r0, #-1]
    459c:	00002530 	andeq	r2, r0, r0, lsr r5
    45a0:	a10b0c00 	tstge	fp, r0, lsl #24
    45a4:	05000004 	streq	r0, [r0, #-4]
    45a8:	00002530 	andeq	r2, r0, r0, lsr r5
    45ac:	5f101000 	svcpl	0x00101000
    45b0:	31050078 	tstcc	r5, r8, ror r0
    45b4:	0000017d 	andeq	r0, r0, sp, ror r1
    45b8:	040d0014 	streq	r0, [sp], #-20	; 0xffffffec
    45bc:	00000124 	andeq	r0, r0, r4, lsr #2
    45c0:	00011908 	andeq	r1, r1, r8, lsl #18
    45c4:	00018d00 	andeq	r8, r1, r0, lsl #26
    45c8:	00c70900 	sbceq	r0, r7, r0, lsl #18
    45cc:	00000000 	andeq	r0, r0, r0
    45d0:	0001e00f 	andeq	lr, r1, pc
    45d4:	35052400 	strcc	r2, [r5, #-1024]	; 0xfffffc00
    45d8:	00000206 	andeq	r0, r0, r6, lsl #4
    45dc:	0000a10b 	andeq	sl, r0, fp, lsl #2
    45e0:	25370500 	ldrcs	r0, [r7, #-1280]!	; 0xfffffb00
    45e4:	00000000 	andeq	r0, r0, r0
    45e8:	0003b90b 	andeq	fp, r3, fp, lsl #18
    45ec:	25380500 	ldrcs	r0, [r8, #-1280]!	; 0xfffffb00
    45f0:	04000000 	streq	r0, [r0], #-0
    45f4:	0000c40b 	andeq	ip, r0, fp, lsl #8
    45f8:	25390500 	ldrcs	r0, [r9, #-1280]!	; 0xfffffb00
    45fc:	08000000 	stmdaeq	r0, {}	; <UNPREDICTABLE>
    4600:	0005220b 	andeq	r2, r5, fp, lsl #4
    4604:	253a0500 	ldrcs	r0, [sl, #-1280]!	; 0xfffffb00
    4608:	0c000000 	stceq	0, cr0, [r0], {-0}
    460c:	0002ab0b 	andeq	sl, r2, fp, lsl #22
    4610:	253b0500 	ldrcs	r0, [fp, #-1280]!	; 0xfffffb00
    4614:	10000000 	andne	r0, r0, r0
    4618:	0002840b 	andeq	r8, r2, fp, lsl #8
    461c:	253c0500 	ldrcs	r0, [ip, #-1280]!	; 0xfffffb00
    4620:	14000000 	strne	r0, [r0], #-0
    4624:	0004a60b 	andeq	sl, r4, fp, lsl #12
    4628:	253d0500 	ldrcs	r0, [sp, #-1280]!	; 0xfffffb00
    462c:	18000000 	stmdane	r0, {}	; <UNPREDICTABLE>
    4630:	0003100b 	andeq	r1, r3, fp
    4634:	253e0500 	ldrcs	r0, [lr, #-1280]!	; 0xfffffb00
    4638:	1c000000 	stcne	0, cr0, [r0], {-0}
    463c:	0004e90b 	andeq	lr, r4, fp, lsl #18
    4640:	253f0500 	ldrcs	r0, [pc, #-1280]!	; 4148 <_start-0x3eb8>
    4644:	20000000 	andcs	r0, r0, r0
    4648:	01041100 	mrseq	r1, (UNDEF: 20)
    464c:	01080000 	mrseq	r0, (UNDEF: 8)
    4650:	02464805 	subeq	r4, r6, #327680	; 0x50000
    4654:	8f0b0000 	svchi	0x000b0000
    4658:	05000001 	streq	r0, [r0, #-1]
    465c:	00024649 	andeq	r4, r2, r9, asr #12
    4660:	000b0000 	andeq	r0, fp, r0
    4664:	05000000 	streq	r0, [r0, #-0]
    4668:	0002464a 	andeq	r4, r2, sl, asr #12
    466c:	37128000 	ldrcc	r8, [r2, -r0]
    4670:	05000004 	streq	r0, [r0, #-4]
    4674:	0001194c 	andeq	r1, r1, ip, asr #18
    4678:	12010000 	andne	r0, r1, #0
    467c:	00000129 	andeq	r0, r0, r9, lsr #2
    4680:	01194f05 	tsteq	r9, r5, lsl #30
    4684:	01040000 	mrseq	r0, (UNDEF: 4)
    4688:	01050800 	tsteq	r5, r0, lsl #16
    468c:	02560000 	subseq	r0, r6, #0
    4690:	c7090000 	strgt	r0, [r9, -r0]
    4694:	1f000000 	svcne	0x00000000
    4698:	02b41100 	adcseq	r1, r4, #0, 2
    469c:	01900000 	orrseq	r0, r0, r0
    46a0:	02945b05 	addseq	r5, r4, #5120	; 0x1400
    46a4:	4f0b0000 	svcmi	0x000b0000
    46a8:	05000003 	streq	r0, [r0, #-3]
    46ac:	0002945c 	andeq	r9, r2, ip, asr r4
    46b0:	670b0000 	strvs	r0, [fp, -r0]
    46b4:	05000003 	streq	r0, [r0, #-3]
    46b8:	0000255d 	andeq	r2, r0, sp, asr r5
    46bc:	970b0400 	strls	r0, [fp, -r0, lsl #8]
    46c0:	05000001 	streq	r0, [r0, #-1]
    46c4:	00029a5f 	andeq	r9, r2, pc, asr sl
    46c8:	040b0800 	streq	r0, [fp], #-2048	; 0xfffff800
    46cc:	05000001 	streq	r0, [r0, #-1]
    46d0:	00020660 	andeq	r0, r2, r0, ror #12
    46d4:	0d008800 	stceq	8, cr8, [r0, #-0]
    46d8:	00025604 	andeq	r5, r2, r4, lsl #12
    46dc:	02aa0800 	adceq	r0, sl, #0, 16
    46e0:	02aa0000 	adceq	r0, sl, #0
    46e4:	c7090000 	strgt	r0, [r9, -r0]
    46e8:	1f000000 	svcne	0x00000000
    46ec:	b0040d00 	andlt	r0, r4, r0, lsl #26
    46f0:	13000002 	movwne	r0, #2
    46f4:	00031a0f 	andeq	r1, r3, pc, lsl #20
    46f8:	73050800 	movwvc	r0, #22528	; 0x5800
    46fc:	000002d6 	ldrdeq	r0, [r0], -r6
    4700:	0000be0b 	andeq	fp, r0, fp, lsl #28
    4704:	d6740500 	ldrbtle	r0, [r4], -r0, lsl #10
    4708:	00000002 	andeq	r0, r0, r2
    470c:	00001b0b 	andeq	r1, r0, fp, lsl #22
    4710:	25750500 	ldrbcs	r0, [r5, #-1280]!	; 0xfffffb00
    4714:	04000000 	streq	r0, [r0], #-0
    4718:	4f040d00 	svcmi	0x00040d00
    471c:	0f000000 	svceq	0x00000000
    4720:	00000339 	andeq	r0, r0, r9, lsr r3
    4724:	06b30568 	ldrteq	r0, [r3], r8, ror #10
    4728:	10000004 	andne	r0, r0, r4
    472c:	0500705f 	streq	r7, [r0, #-95]	; 0xffffffa1
    4730:	0002d6b4 			; <UNDEFINED> instruction: 0x0002d6b4
    4734:	5f100000 	svcpl	0x00100000
    4738:	b5050072 	strlt	r0, [r5, #-114]	; 0xffffff8e
    473c:	00000025 	andeq	r0, r0, r5, lsr #32
    4740:	775f1004 	ldrbvc	r1, [pc, -r4]
    4744:	25b60500 	ldrcs	r0, [r6, #1280]!	; 0x500
    4748:	08000000 	stmdaeq	r0, {}	; <UNPREDICTABLE>
    474c:	0001220b 	andeq	r2, r1, fp, lsl #4
    4750:	3ab70500 	bcc	fedc5b58 <__bss_end__+0xfedbbae8>
    4754:	0c000000 	stceq	0, cr0, [r0], {-0}
    4758:	00020b0b 	andeq	r0, r2, fp, lsl #22
    475c:	3ab80500 	bcc	fee05b64 <__bss_end__+0xfedfbaf4>
    4760:	0e000000 	cdpeq	0, 0, cr0, cr0, cr0, {0}
    4764:	66625f10 	uqadd16vs	r5, r2, r0
    4768:	b1b90500 			; <UNDEFINED> instruction: 0xb1b90500
    476c:	10000002 	andne	r0, r0, r2
    4770:	00007b0b 	andeq	r7, r0, fp, lsl #22
    4774:	25ba0500 	ldrcs	r0, [sl, #1280]!	; 0x500
    4778:	18000000 	stmdane	r0, {}	; <UNPREDICTABLE>
    477c:	0001120b 	andeq	r1, r1, fp, lsl #4
    4780:	05c10500 	strbeq	r0, [r1, #1280]	; 0x500
    4784:	1c000001 	stcne	0, cr0, [r0], {1}
    4788:	000a780b 	andeq	r7, sl, fp, lsl #16
    478c:	61c30500 	bicvs	r0, r3, r0, lsl #10
    4790:	20000005 	andcs	r0, r0, r5
    4794:	00060c0b 	andeq	r0, r6, fp, lsl #24
    4798:	8bc50500 	blhi	ff145ba0 <__bss_end__+0xff13bb30>
    479c:	24000005 	strcs	r0, [r0], #-5
    47a0:	0003ab0b 	andeq	sl, r3, fp, lsl #22
    47a4:	afc80500 	svcge	0x00c80500
    47a8:	28000005 	stmdacs	r0, {r0, r2}
    47ac:	0005030b 	andeq	r0, r5, fp, lsl #6
    47b0:	c9c90500 	stmibgt	r9, {r8, sl}^
    47b4:	2c000005 	stccs	0, cr0, [r0], {5}
    47b8:	62755f10 	rsbsvs	r5, r5, #16, 30	; 0x40
    47bc:	b1cc0500 	biclt	r0, ip, r0, lsl #10
    47c0:	30000002 	andcc	r0, r0, r2
    47c4:	70755f10 	rsbsvc	r5, r5, r0, lsl pc
    47c8:	d6cd0500 	strble	r0, [sp], r0, lsl #10
    47cc:	38000002 	stmdacc	r0, {r1}
    47d0:	72755f10 	rsbsvc	r5, r5, #16, 30	; 0x40
    47d4:	25ce0500 	strbcs	r0, [lr, #1280]	; 0x500
    47d8:	3c000000 	stccc	0, cr0, [r0], {-0}
    47dc:	0000b80b 	andeq	fp, r0, fp, lsl #16
    47e0:	cfd10500 	svcgt	0x00d10500
    47e4:	40000005 	andmi	r0, r0, r5
    47e8:	0004db0b 	andeq	sp, r4, fp, lsl #22
    47ec:	dfd20500 	svcle	0x00d20500
    47f0:	43000005 	movwmi	r0, #5
    47f4:	626c5f10 	rsbvs	r5, ip, #16, 30	; 0x40
    47f8:	b1d50500 	bicslt	r0, r5, r0, lsl #10
    47fc:	44000002 	strmi	r0, [r0], #-2
    4800:	0001400b 	andeq	r4, r1, fp
    4804:	25d80500 	ldrbcs	r0, [r8, #1280]	; 0x500
    4808:	4c000000 	stcmi	0, cr0, [r0], {-0}
    480c:	0001510b 	andeq	r5, r1, fp, lsl #2
    4810:	76d90500 	ldrbvc	r0, [r9], r0, lsl #10
    4814:	50000000 	andpl	r0, r0, r0
    4818:	000a190b 	andeq	r1, sl, fp, lsl #18
    481c:	24dc0500 	ldrbcs	r0, [ip], #1280	; 0x500
    4820:	54000004 	strpl	r0, [r0], #-4
    4824:	0002760b 	andeq	r7, r2, fp, lsl #12
    4828:	fae00500 	blx	ff805c30 <__bss_end__+0xff7fbbc0>
    482c:	58000000 	stmdapl	r0, {}	; <UNPREDICTABLE>
    4830:	0003410b 	andeq	r4, r3, fp, lsl #2
    4834:	efe20500 	svc	0x00e20500
    4838:	5c000000 	stcpl	0, cr0, [r0], {-0}
    483c:	00027c0b 	andeq	r7, r2, fp, lsl #24
    4840:	25e30500 	strbcs	r0, [r3, #1280]!	; 0x500
    4844:	64000000 	strvs	r0, [r0], #-0
    4848:	00251400 	eoreq	r1, r5, r0, lsl #8
    484c:	04240000 	strteq	r0, [r4], #-0
    4850:	24150000 	ldrcs	r0, [r5], #-0
    4854:	15000004 	strne	r0, [r0, #-4]
    4858:	00000105 	andeq	r0, r0, r5, lsl #2
    485c:	00010715 	andeq	r0, r1, r5, lsl r7
    4860:	00251500 	eoreq	r1, r5, r0, lsl #10
    4864:	0d000000 	stceq	0, cr0, [r0, #-0]
    4868:	00042f04 	andeq	r2, r4, r4, lsl #30
    486c:	04240e00 	strteq	r0, [r4], #-3584	; 0xfffff200
    4870:	8e160000 	cdphi	0, 1, cr0, cr6, cr0, {0}
    4874:	28000003 	stmdacs	r0, {r0, r1}
    4878:	02380504 	eorseq	r0, r8, #4, 10	; 0x1000000
    487c:	00000561 	andeq	r0, r0, r1, ror #10
    4880:	0002ff17 	andeq	pc, r2, r7, lsl pc	; <UNPREDICTABLE>
    4884:	023a0500 	eorseq	r0, sl, #0, 10
    4888:	00000025 	andeq	r0, r0, r5, lsr #32
    488c:	01311700 	teqeq	r1, r0, lsl #14
    4890:	3f050000 	svccc	0x00050000
    4894:	00063602 	andeq	r3, r6, r2, lsl #12
    4898:	fb170400 	blx	5c58a2 <__bss_end__+0x5bb832>
    489c:	05000001 	streq	r0, [r0, #-1]
    48a0:	0636023f 			; <UNDEFINED> instruction: 0x0636023f
    48a4:	17080000 	strne	r0, [r8, -r0]
    48a8:	000001ab 	andeq	r0, r0, fp, lsr #3
    48ac:	36023f05 	strcc	r3, [r2], -r5, lsl #30
    48b0:	0c000006 	stceq	0, cr0, [r0], {6}
    48b4:	00036217 	andeq	r6, r3, r7, lsl r2
    48b8:	02410500 	subeq	r0, r1, #0, 10
    48bc:	00000025 	andeq	r0, r0, r5, lsr #32
    48c0:	00291710 	eoreq	r1, r9, r0, lsl r7
    48c4:	42050000 	andmi	r0, r5, #0
    48c8:	00081802 	andeq	r1, r8, r2, lsl #16
    48cc:	7b171400 	blvc	5c98d4 <__bss_end__+0x5bf864>
    48d0:	05000004 	streq	r0, [r0, #-4]
    48d4:	00250244 	eoreq	r0, r5, r4, asr #4
    48d8:	17300000 	ldrne	r0, [r0, -r0]!
    48dc:	0000036c 	andeq	r0, r0, ip, ror #6
    48e0:	85024505 	strhi	r4, [r2, #-1285]	; 0xfffffafb
    48e4:	34000005 	strcc	r0, [r0], #-5
    48e8:	0002bc17 	andeq	fp, r2, r7, lsl ip
    48ec:	02470500 	subeq	r0, r7, #0, 10
    48f0:	00000025 	andeq	r0, r0, r5, lsr #32
    48f4:	037c1738 	cmneq	ip, #56, 14	; 0xe00000
    48f8:	49050000 	stmdbmi	r5, {}	; <UNPREDICTABLE>
    48fc:	00083302 	andeq	r3, r8, r2, lsl #6
    4900:	5a173c00 	bpl	5d3908 <__bss_end__+0x5c9898>
    4904:	05000002 	streq	r0, [r0, #-2]
    4908:	0177024c 	cmneq	r7, ip, asr #4
    490c:	17400000 	strbne	r0, [r0, -r0]
    4910:	000001ca 	andeq	r0, r0, sl, asr #3
    4914:	25024d05 	strcs	r4, [r2, #-3333]	; 0xfffff2fb
    4918:	44000000 	strmi	r0, [r0], #-0
    491c:	00051d17 	andeq	r1, r5, r7, lsl sp
    4920:	024e0500 	subeq	r0, lr, #0, 10
    4924:	00000177 	andeq	r0, r0, r7, ror r1
    4928:	02ce1748 	sbceq	r1, lr, #72, 14	; 0x1200000
    492c:	4f050000 	svcmi	0x00050000
    4930:	00083902 	andeq	r3, r8, r2, lsl #18
    4934:	03174c00 	tsteq	r7, #0, 24
    4938:	05000002 	streq	r0, [r0, #-2]
    493c:	00250252 	eoreq	r0, r5, r2, asr r2
    4940:	17500000 	ldrbne	r0, [r0, -r0]
    4944:	00000149 	andeq	r0, r0, r9, asr #2
    4948:	07025305 	streq	r5, [r2, -r5, lsl #6]
    494c:	54000001 	strpl	r0, [r0], #-1
    4950:	0002f817 	andeq	pc, r2, r7, lsl r8	; <UNPREDICTABLE>
    4954:	02760500 	rsbseq	r0, r6, #0, 10
    4958:	000007f6 	strdeq	r0, [r0], -r6
    495c:	02b41858 	adcseq	r1, r4, #88, 16	; 0x580000
    4960:	7a050000 	bvc	144968 <__bss_end__+0x13a8f8>
    4964:	00029402 	andeq	r9, r2, r2, lsl #8
    4968:	18014800 	stmdane	r1, {fp, lr}
    496c:	00000238 	andeq	r0, r0, r8, lsr r2
    4970:	56027b05 	strpl	r7, [r2], -r5, lsl #22
    4974:	4c000002 	stcmi	0, cr0, [r0], {2}
    4978:	04c91801 	strbeq	r1, [r9], #2049	; 0x801
    497c:	7f050000 	svcvc	0x00050000
    4980:	00084a02 	andeq	r4, r8, r2, lsl #20
    4984:	1802dc00 	stmdane	r2, {sl, fp, ip, lr, pc}
    4988:	0000011a 	andeq	r0, r0, sl, lsl r1
    498c:	fb028405 	blx	a59aa <__bss_end__+0x9b93a>
    4990:	e0000005 	and	r0, r0, r5
    4994:	00ff1802 	rscseq	r1, pc, r2, lsl #16
    4998:	85050000 	strhi	r0, [r5, #-0]
    499c:	00085602 	andeq	r5, r8, r2, lsl #12
    49a0:	0002ec00 	andeq	lr, r2, r0, lsl #24
    49a4:	0406040d 	streq	r0, [r6], #-1037	; 0xfffffbf3
    49a8:	25140000 	ldrcs	r0, [r4, #-0]
    49ac:	85000000 	strhi	r0, [r0, #-0]
    49b0:	15000005 	strne	r0, [r0, #-5]
    49b4:	00000424 	andeq	r0, r0, r4, lsr #8
    49b8:	00010515 	andeq	r0, r1, r5, lsl r5
    49bc:	05851500 	streq	r1, [r5, #1280]	; 0x500
    49c0:	25150000 	ldrcs	r0, [r5, #-0]
    49c4:	00000000 	andeq	r0, r0, r0
    49c8:	0114040d 	tsteq	r4, sp, lsl #8
    49cc:	040d0000 	streq	r0, [sp], #-0
    49d0:	00000567 	andeq	r0, r0, r7, ror #10
    49d4:	00008114 	andeq	r8, r0, r4, lsl r1
    49d8:	0005af00 	andeq	sl, r5, r0, lsl #30
    49dc:	04241500 	strteq	r1, [r4], #-1280	; 0xfffffb00
    49e0:	05150000 	ldreq	r0, [r5, #-0]
    49e4:	15000001 	strne	r0, [r0, #-1]
    49e8:	00000081 	andeq	r0, r0, r1, lsl #1
    49ec:	00002515 	andeq	r2, r0, r5, lsl r5
    49f0:	040d0000 	streq	r0, [sp], #-0
    49f4:	00000591 	muleq	r0, r1, r5
    49f8:	00002514 	andeq	r2, r0, r4, lsl r5
    49fc:	0005c900 	andeq	ip, r5, r0, lsl #18
    4a00:	04241500 	strteq	r1, [r4], #-1280	; 0xfffffb00
    4a04:	05150000 	ldreq	r0, [r5, #-0]
    4a08:	00000001 	andeq	r0, r0, r1
    4a0c:	05b5040d 	ldreq	r0, [r5, #1037]!	; 0x40d
    4a10:	4f080000 	svcmi	0x00080000
    4a14:	df000000 	svcle	0x00000000
    4a18:	09000005 	stmdbeq	r0, {r0, r2}
    4a1c:	000000c7 	andeq	r0, r0, r7, asr #1
    4a20:	4f080002 	svcmi	0x00080002
    4a24:	ef000000 	svc	0x00000000
    4a28:	09000005 	stmdbeq	r0, {r0, r2}
    4a2c:	000000c7 	andeq	r0, r0, r7, asr #1
    4a30:	27050000 	strcs	r0, [r5, -r0]
    4a34:	05000003 	streq	r0, [r0, #-3]
    4a38:	02dc011d 	sbcseq	r0, ip, #1073741831	; 0x40000007
    4a3c:	b0190000 	andslt	r0, r9, r0
    4a40:	0c000004 	stceq	0, cr0, [r0], {4}
    4a44:	30012105 	andcc	r2, r1, r5, lsl #2
    4a48:	17000006 	strne	r0, [r0, -r6]
    4a4c:	0000034f 	andeq	r0, r0, pc, asr #6
    4a50:	30012305 	andcc	r2, r1, r5, lsl #6
    4a54:	00000006 	andeq	r0, r0, r6
    4a58:	00021e17 	andeq	r1, r2, r7, lsl lr
    4a5c:	01240500 			; <UNDEFINED> instruction: 0x01240500
    4a60:	00000025 	andeq	r0, r0, r5, lsr #32
    4a64:	03211704 			; <UNDEFINED> instruction: 0x03211704
    4a68:	25050000 	strcs	r0, [r5, #-0]
    4a6c:	00063601 	andeq	r3, r6, r1, lsl #12
    4a70:	0d000800 	stceq	8, cr0, [r0, #-0]
    4a74:	0005fb04 	andeq	pc, r5, r4, lsl #22
    4a78:	ef040d00 	svc	0x00040d00
    4a7c:	19000005 	stmdbne	r0, {r0, r2}
    4a80:	00000021 	andeq	r0, r0, r1, lsr #32
    4a84:	013d050e 	teqeq	sp, lr, lsl #10
    4a88:	00000671 	andeq	r0, r0, r1, ror r6
    4a8c:	00039517 	andeq	r9, r3, r7, lsl r5
    4a90:	013e0500 	teqeq	lr, r0, lsl #10
    4a94:	00000671 	andeq	r0, r0, r1, ror r6
    4a98:	03c21700 	biceq	r1, r2, #0, 14
    4a9c:	3f050000 	svccc	0x00050000
    4aa0:	00067101 	andeq	r7, r6, r1, lsl #2
    4aa4:	40170600 	andsmi	r0, r7, r0, lsl #12
    4aa8:	05000004 	streq	r0, [r0, #-4]
    4aac:	00560140 	subseq	r0, r6, r0, asr #2
    4ab0:	000c0000 	andeq	r0, ip, r0
    4ab4:	00005608 	andeq	r5, r0, r8, lsl #12
    4ab8:	00068100 	andeq	r8, r6, r0, lsl #2
    4abc:	00c70900 	sbceq	r0, r7, r0, lsl #18
    4ac0:	00020000 	andeq	r0, r2, r0
    4ac4:	5705d01a 	smladpl	r5, sl, r0, sp
    4ac8:	00078202 	andeq	r8, r7, r2, lsl #4
    4acc:	04941700 	ldreq	r1, [r4], #1792	; 0x700
    4ad0:	59050000 	stmdbpl	r5, {}	; <UNPREDICTABLE>
    4ad4:	00002c02 	andeq	r2, r0, r2, lsl #24
    4ad8:	2a170000 	bcs	5c4ae0 <__bss_end__+0x5baa70>
    4adc:	05000004 	streq	r0, [r0, #-4]
    4ae0:	0107025a 	tsteq	r7, sl, asr r2
    4ae4:	17040000 	strne	r0, [r4, -r0]
    4ae8:	0000024d 	andeq	r0, r0, sp, asr #4
    4aec:	82025b05 	andhi	r5, r2, #5120	; 0x1400
    4af0:	08000007 	stmdaeq	r0, {r0, r1, r2}
    4af4:	0004f417 	andeq	pc, r4, r7, lsl r4	; <UNPREDICTABLE>
    4af8:	025c0500 	subseq	r0, ip, #0, 10
    4afc:	0000018d 	andeq	r0, r0, sp, lsl #3
    4b00:	01bb1724 			; <UNDEFINED> instruction: 0x01bb1724
    4b04:	5d050000 	stcpl	0, cr0, [r5, #-0]
    4b08:	00002502 	andeq	r2, r0, r2, lsl #10
    4b0c:	4a174800 	bmi	5d6b14 <__bss_end__+0x5ccaa4>
    4b10:	05000003 	streq	r0, [r0, #-3]
    4b14:	0064025e 	rsbeq	r0, r4, lr, asr r2
    4b18:	17500000 	ldrbne	r0, [r0, -r0]
    4b1c:	0000050a 	andeq	r0, r0, sl, lsl #10
    4b20:	3c025f05 	stccc	15, cr5, [r2], {5}
    4b24:	58000006 	stmdapl	r0, {r1, r2}
    4b28:	00035517 	andeq	r5, r3, r7, lsl r5
    4b2c:	02600500 	rsbeq	r0, r0, #0, 10
    4b30:	000000ef 	andeq	r0, r0, pc, ror #1
    4b34:	050f1768 	streq	r1, [pc, #-1896]	; 43d4 <_start-0x3c2c>
    4b38:	61050000 	mrsvs	r0, (UNDEF: 5)
    4b3c:	0000ef02 	andeq	lr, r0, r2, lsl #30
    4b40:	93177000 	tstls	r7, #0
    4b44:	05000000 	streq	r0, [r0, #-0]
    4b48:	00ef0262 	rsceq	r0, pc, r2, ror #4
    4b4c:	17780000 	ldrbne	r0, [r8, -r0]!
    4b50:	000004bf 			; <UNDEFINED> instruction: 0x000004bf
    4b54:	92026305 	andls	r6, r2, #335544320	; 0x14000000
    4b58:	80000007 	andhi	r0, r0, r7
    4b5c:	00024117 	andeq	r4, r2, r7, lsl r1
    4b60:	02640500 	rsbeq	r0, r4, #0, 10
    4b64:	000007a2 	andeq	r0, r0, r2, lsr #15
    4b68:	044d1788 	strbeq	r1, [sp], #-1928	; 0xfffff878
    4b6c:	65050000 	strvs	r0, [r5, #-0]
    4b70:	00002502 	andeq	r2, r0, r2, lsl #10
    4b74:	8117a000 	tsthi	r7, r0
    4b78:	05000001 	streq	r0, [r0, #-1]
    4b7c:	00ef0266 	rsceq	r0, pc, r6, ror #4
    4b80:	17a40000 	strne	r0, [r4, r0]!
    4b84:	00000084 	andeq	r0, r0, r4, lsl #1
    4b88:	ef026705 	svc	0x00026705
    4b8c:	ac000000 	stcge	0, cr0, [r0], {-0}
    4b90:	00017017 	andeq	r7, r1, r7, lsl r0
    4b94:	02680500 	rsbeq	r0, r8, #0, 10
    4b98:	000000ef 	andeq	r0, r0, pc, ror #1
    4b9c:	003c17b4 	ldrhteq	r1, [ip], -r4
    4ba0:	69050000 	stmdbvs	r5, {}	; <UNPREDICTABLE>
    4ba4:	0000ef02 	andeq	lr, r0, r2, lsl #30
    4ba8:	4b17bc00 	blmi	5f3bb0 <__bss_end__+0x5e9b40>
    4bac:	05000000 	streq	r0, [r0, #-0]
    4bb0:	00ef026a 	rsceq	r0, pc, sl, ror #4
    4bb4:	17c40000 	strbne	r0, [r4, r0]
    4bb8:	000002fd 	strdeq	r0, [r0], -sp
    4bbc:	25026b05 	strcs	r6, [r2, #-2821]	; 0xfffff4fb
    4bc0:	cc000000 	stcgt	0, cr0, [r0], {-0}
    4bc4:	010d0800 	tsteq	sp, r0, lsl #16
    4bc8:	07920000 	ldreq	r0, [r2, r0]
    4bcc:	c7090000 	strgt	r0, [r9, -r0]
    4bd0:	19000000 	stmdbne	r0, {}	; <UNPREDICTABLE>
    4bd4:	010d0800 	tsteq	sp, r0, lsl #16
    4bd8:	07a20000 	streq	r0, [r2, r0]!
    4bdc:	c7090000 	strgt	r0, [r9, -r0]
    4be0:	07000000 	streq	r0, [r0, -r0]
    4be4:	010d0800 	tsteq	sp, r0, lsl #16
    4be8:	07b20000 	ldreq	r0, [r2, r0]!
    4bec:	c7090000 	strgt	r0, [r9, -r0]
    4bf0:	17000000 	strne	r0, [r0, -r0]
    4bf4:	05f01a00 	ldrbeq	r1, [r0, #2560]!	; 0xa00
    4bf8:	07d60270 			; <UNDEFINED> instruction: 0x07d60270
    4bfc:	a4170000 	ldrge	r0, [r7], #-0
    4c00:	05000002 	streq	r0, [r0, #-2]
    4c04:	07d60273 			; <UNDEFINED> instruction: 0x07d60273
    4c08:	17000000 	strne	r0, [r0, -r0]
    4c0c:	000004b6 			; <UNDEFINED> instruction: 0x000004b6
    4c10:	e6027405 	str	r7, [r2], -r5, lsl #8
    4c14:	78000007 	stmdavc	r0, {r0, r1, r2}
    4c18:	02d60800 	sbcseq	r0, r6, #0, 16
    4c1c:	07e60000 	strbeq	r0, [r6, r0]!
    4c20:	c7090000 	strgt	r0, [r9, -r0]
    4c24:	1d000000 	stcne	0, cr0, [r0, #-0]
    4c28:	002c0800 	eoreq	r0, ip, r0, lsl #16
    4c2c:	07f60000 	ldrbeq	r0, [r6, r0]!
    4c30:	c7090000 	strgt	r0, [r9, -r0]
    4c34:	1d000000 	stcne	0, cr0, [r0, #-0]
    4c38:	05f01b00 	ldrbeq	r1, [r0, #2816]!	; 0xb00
    4c3c:	08180255 	ldmdaeq	r8, {r0, r2, r4, r6, r9}
    4c40:	8e1c0000 	cdphi	0, 1, cr0, cr12, cr0, {0}
    4c44:	05000003 	streq	r0, [r0, #-3]
    4c48:	0681026c 	streq	r0, [r1], ip, ror #4
    4c4c:	e11c0000 	tst	ip, r0
    4c50:	05000004 	streq	r0, [r0, #-4]
    4c54:	07b20275 			; <UNDEFINED> instruction: 0x07b20275
    4c58:	08000000 	stmdaeq	r0, {}	; <UNPREDICTABLE>
    4c5c:	0000010d 	andeq	r0, r0, sp, lsl #2
    4c60:	00000828 	andeq	r0, r0, r8, lsr #16
    4c64:	0000c709 	andeq	ip, r0, r9, lsl #14
    4c68:	1d001800 	stcne	8, cr1, [r0, #-0]
    4c6c:	00000833 	andeq	r0, r0, r3, lsr r8
    4c70:	00042415 	andeq	r2, r4, r5, lsl r4
    4c74:	040d0000 	streq	r0, [sp], #-0
    4c78:	00000828 	andeq	r0, r0, r8, lsr #16
    4c7c:	0177040d 	cmneq	r7, sp, lsl #8
    4c80:	4a1d0000 	bmi	744c88 <__bss_end__+0x73ac18>
    4c84:	15000008 	strne	r0, [r0, #-8]
    4c88:	00000025 	andeq	r0, r0, r5, lsr #32
    4c8c:	50040d00 	andpl	r0, r4, r0, lsl #26
    4c90:	0d000008 	stceq	0, cr0, [r0, #-32]	; 0xffffffe0
    4c94:	00083f04 	andeq	r3, r8, r4, lsl #30
    4c98:	05ef0800 	strbeq	r0, [pc, #2048]!	; 54a0 <_start-0x2b60>
    4c9c:	08660000 	stmdaeq	r6!, {}^	; <UNPREDICTABLE>
    4ca0:	c7090000 	strgt	r0, [r9, -r0]
    4ca4:	02000000 	andeq	r0, r0, #0
    4ca8:	046f1e00 	strbteq	r1, [pc], #-3584	; 4cb0 <_start-0x3350>
    4cac:	fd050000 	stc2	0, cr0, [r5, #-0]
    4cb0:	00042402 	andeq	r2, r4, r2, lsl #8
    4cb4:	04681e00 	strbteq	r1, [r8], #-3584	; 0xfffff200
    4cb8:	fe050000 	cdp2	0, 0, cr0, cr5, cr0, {0}
    4cbc:	00042a02 	andeq	r2, r4, r2, lsl #20
    4cc0:	00251400 	eoreq	r1, r5, r0, lsl #8
    4cc4:	088d0000 	stmeq	sp, {}	; <UNPREDICTABLE>
    4cc8:	25150000 	ldrcs	r0, [r5, #-0]
    4ccc:	00000000 	andeq	r0, r0, r0
    4cd0:	0001d41f 	andeq	sp, r1, pc, lsl r4
    4cd4:	981d0600 	ldmdals	sp, {r9, sl}
    4cd8:	0d000008 	stceq	0, cr0, [r0, #-32]	; 0xffffffe0
    4cdc:	00087e04 	andeq	r7, r8, r4, lsl #28
    4ce0:	00251400 	eoreq	r1, r5, r0, lsl #8
    4ce4:	08ad0000 	stmiaeq	sp!, {}	; <UNPREDICTABLE>
    4ce8:	85150000 	ldrhi	r0, [r5, #-0]
    4cec:	00000005 	andeq	r0, r0, r5
    4cf0:	0007691f 	andeq	r6, r7, pc, lsl r9
    4cf4:	b8220600 	stmdalt	r2!, {r9, sl}
    4cf8:	0d000008 	stceq	0, cr0, [r0, #-32]	; 0xffffffe0
    4cfc:	00089e04 	andeq	r9, r8, r4, lsl #28
    4d00:	08ad2000 	stmiaeq	sp!, {sp}
    4d04:	0c010000 	stceq	0, cr0, [r1], {-0}
    4d08:	96840305 	strls	r0, [r4], r5, lsl #6
    4d0c:	60210000 	eorvs	r0, r1, r0
    4d10:	01000007 	tsteq	r0, r7
    4d14:	00002504 	andeq	r2, r0, r4, lsl #10
    4d18:	00900800 	addseq	r0, r0, r0, lsl #16
    4d1c:	00003400 	andeq	r3, r0, r0, lsl #8
    4d20:	229c0100 	addscs	r0, ip, #0, 2
    4d24:	04010070 	streq	r0, [r1], #-112	; 0xffffff90
    4d28:	00000585 	andeq	r0, r0, r5, lsl #11
    4d2c:	00000f1d 	andeq	r0, r0, sp, lsl pc
    4d30:	093d0000 	ldmdbeq	sp!, {}	; <UNPREDICTABLE>
    4d34:	00040000 	andeq	r0, r4, r0
    4d38:	00000d93 	muleq	r0, r3, sp
    4d3c:	03c80104 	biceq	r0, r8, #4, 2
    4d40:	a20c0000 	andge	r0, ip, #0
    4d44:	de000007 	cdple	0, 0, cr0, cr0, cr7, {0}
    4d48:	3c000006 	stccc	0, cr0, [r0], {6}
    4d4c:	3c000090 	stccc	0, cr0, [r0], {144}	; 0x90
    4d50:	5d000000 	stcpl	0, cr0, [r0, #-0]
    4d54:	02000008 	andeq	r0, r0, #8
    4d58:	6e690504 	cdpvs	5, 6, cr0, cr9, cr4, {0}
    4d5c:	04030074 	streq	r0, [r3], #-116	; 0xffffff8c
    4d60:	00006607 	andeq	r6, r0, r7, lsl #12
    4d64:	06010300 	streq	r0, [r1], -r0, lsl #6
    4d68:	000002ec 	andeq	r0, r0, ip, ror #5
    4d6c:	06050203 	streq	r0, [r5], -r3, lsl #4
    4d70:	03000003 	movweq	r0, #3
    4d74:	00af0504 	adceq	r0, pc, r4, lsl #10
    4d78:	08030000 	stmdaeq	r3, {}	; <UNPREDICTABLE>
    4d7c:	0000aa05 	andeq	sl, r0, r5, lsl #20
    4d80:	08010300 	stmdaeq	r1, {r8, r9}
    4d84:	000002ea 	andeq	r0, r0, sl, ror #5
    4d88:	25070203 	strcs	r0, [r7, #-515]	; 0xfffffdfd
    4d8c:	03000002 	movweq	r0, #2
    4d90:	00610704 	rsbeq	r0, r1, r4, lsl #14
    4d94:	08030000 	stmdaeq	r3, {}	; <UNPREDICTABLE>
    4d98:	00005c07 	andeq	r5, r0, r7, lsl #24
    4d9c:	02d80400 	sbcseq	r0, r8, #0, 8
    4da0:	07020000 	streq	r0, [r2, -r0]
    4da4:	00000025 	andeq	r0, r0, r5, lsr #32
    4da8:	0002c704 	andeq	ip, r2, r4, lsl #14
    4dac:	412c0300 			; <UNDEFINED> instruction: 0x412c0300
    4db0:	04000000 	streq	r0, [r0], #-0
    4db4:	000003b1 			; <UNDEFINED> instruction: 0x000003b1
    4db8:	00417203 	subeq	r7, r1, r3, lsl #4
    4dbc:	68050000 	stmdavs	r5, {}	; <UNPREDICTABLE>
    4dc0:	04000002 	streq	r0, [r0], #-2
    4dc4:	002c0165 	eoreq	r0, ip, r5, ror #2
    4dc8:	04060000 	streq	r0, [r6], #-0
    4dcc:	00b7a603 	adcseq	sl, r7, r3, lsl #12
    4dd0:	62070000 	andvs	r0, r7, #0
    4dd4:	03000002 	movweq	r0, #2
    4dd8:	00008ca8 	andeq	r8, r0, r8, lsr #25
    4ddc:	01e50700 	mvneq	r0, r0, lsl #14
    4de0:	a9030000 	stmdbge	r3, {}	; <UNPREDICTABLE>
    4de4:	000000b7 	strheq	r0, [r0], -r7
    4de8:	004f0800 	subeq	r0, pc, r0, lsl #16
    4dec:	00c70000 	sbceq	r0, r7, r0
    4df0:	c7090000 	strgt	r0, [r9, -r0]
    4df4:	03000000 	movweq	r0, #0
    4df8:	07040300 	streq	r0, [r4, -r0, lsl #6]
    4dfc:	0000029b 	muleq	r0, fp, r2
    4e00:	a303080a 	movwge	r0, #14346	; 0x380a
    4e04:	000000ef 	andeq	r0, r0, pc, ror #1
    4e08:	00039b0b 	andeq	r9, r3, fp, lsl #22
    4e0c:	25a50300 	strcs	r0, [r5, #768]!	; 0x300
    4e10:	00000000 	andeq	r0, r0, r0
    4e14:	0003a30b 	andeq	sl, r3, fp, lsl #6
    4e18:	98aa0300 	stmials	sl!, {r8, r9}
    4e1c:	04000000 	streq	r0, [r0], #-0
    4e20:	032e0400 			; <UNDEFINED> instruction: 0x032e0400
    4e24:	ab030000 	blge	c4e2c <__bss_end__+0xbadbc>
    4e28:	000000ce 	andeq	r0, r0, lr, asr #1
    4e2c:	0001a204 	andeq	sl, r1, r4, lsl #4
    4e30:	6baf0300 	blvs	febc5a38 <__bss_end__+0xfebbb9c8>
    4e34:	0c000000 	stceq	0, cr0, [r0], {-0}
    4e38:	0d040d04 	stceq	13, cr0, [r4, #-16]
    4e3c:	03000001 	movweq	r0, #1
    4e40:	02f30801 	rscseq	r0, r3, #65536	; 0x10000
    4e44:	0d0e0000 	stceq	0, cr0, [lr, #-0]
    4e48:	04000001 	streq	r0, [r0], #-1
    4e4c:	00000445 	andeq	r0, r0, r5, asr #8
    4e50:	005d1605 	subseq	r1, sp, r5, lsl #12
    4e54:	b30f0000 	movwlt	r0, #61440	; 0xf000
    4e58:	18000001 	stmdane	r0, {r0}
    4e5c:	01772d05 	cmneq	r7, r5, lsl #26
    4e60:	4f0b0000 	svcmi	0x000b0000
    4e64:	05000003 	streq	r0, [r0, #-3]
    4e68:	0001772f 	andeq	r7, r1, pc, lsr #14
    4e6c:	5f100000 	svcpl	0x00100000
    4e70:	3005006b 	andcc	r0, r5, fp, rrx
    4e74:	00000025 	andeq	r0, r0, r5, lsr #32
    4e78:	03860b04 	orreq	r0, r6, #4, 22	; 0x1000
    4e7c:	30050000 	andcc	r0, r5, r0
    4e80:	00000025 	andeq	r0, r0, r5, lsr #32
    4e84:	019c0b08 	orrseq	r0, ip, r8, lsl #22
    4e88:	30050000 	andcc	r0, r5, r0
    4e8c:	00000025 	andeq	r0, r0, r5, lsr #32
    4e90:	04a10b0c 	strteq	r0, [r1], #2828	; 0xb0c
    4e94:	30050000 	andcc	r0, r5, r0
    4e98:	00000025 	andeq	r0, r0, r5, lsr #32
    4e9c:	785f1010 	ldmdavc	pc, {r4, ip}^	; <UNPREDICTABLE>
    4ea0:	7d310500 	cfldr32vc	mvfx0, [r1, #-0]
    4ea4:	14000001 	strne	r0, [r0], #-1
    4ea8:	24040d00 	strcs	r0, [r4], #-3328	; 0xfffff300
    4eac:	08000001 	stmdaeq	r0, {r0}
    4eb0:	00000119 	andeq	r0, r0, r9, lsl r1
    4eb4:	0000018d 	andeq	r0, r0, sp, lsl #3
    4eb8:	0000c709 	andeq	ip, r0, r9, lsl #14
    4ebc:	0f000000 	svceq	0x00000000
    4ec0:	000001e0 	andeq	r0, r0, r0, ror #3
    4ec4:	06350524 	ldrteq	r0, [r5], -r4, lsr #10
    4ec8:	0b000002 	bleq	4ed8 <_start-0x3128>
    4ecc:	000000a1 	andeq	r0, r0, r1, lsr #1
    4ed0:	00253705 	eoreq	r3, r5, r5, lsl #14
    4ed4:	0b000000 	bleq	4edc <_start-0x3124>
    4ed8:	000003b9 			; <UNDEFINED> instruction: 0x000003b9
    4edc:	00253805 	eoreq	r3, r5, r5, lsl #16
    4ee0:	0b040000 	bleq	104ee8 <__bss_end__+0xfae78>
    4ee4:	000000c4 	andeq	r0, r0, r4, asr #1
    4ee8:	00253905 	eoreq	r3, r5, r5, lsl #18
    4eec:	0b080000 	bleq	204ef4 <__bss_end__+0x1fae84>
    4ef0:	00000522 	andeq	r0, r0, r2, lsr #10
    4ef4:	00253a05 	eoreq	r3, r5, r5, lsl #20
    4ef8:	0b0c0000 	bleq	304f00 <__bss_end__+0x2fae90>
    4efc:	000002ab 	andeq	r0, r0, fp, lsr #5
    4f00:	00253b05 	eoreq	r3, r5, r5, lsl #22
    4f04:	0b100000 	bleq	404f0c <__bss_end__+0x3fae9c>
    4f08:	00000284 	andeq	r0, r0, r4, lsl #5
    4f0c:	00253c05 	eoreq	r3, r5, r5, lsl #24
    4f10:	0b140000 	bleq	504f18 <__bss_end__+0x4faea8>
    4f14:	000004a6 	andeq	r0, r0, r6, lsr #9
    4f18:	00253d05 	eoreq	r3, r5, r5, lsl #26
    4f1c:	0b180000 	bleq	604f24 <__bss_end__+0x5faeb4>
    4f20:	00000310 	andeq	r0, r0, r0, lsl r3
    4f24:	00253e05 	eoreq	r3, r5, r5, lsl #28
    4f28:	0b1c0000 	bleq	704f30 <__bss_end__+0x6faec0>
    4f2c:	000004e9 	andeq	r0, r0, r9, ror #9
    4f30:	00253f05 	eoreq	r3, r5, r5, lsl #30
    4f34:	00200000 	eoreq	r0, r0, r0
    4f38:	00010411 	andeq	r0, r1, r1, lsl r4
    4f3c:	05010800 	streq	r0, [r1, #-2048]	; 0xfffff800
    4f40:	00024648 	andeq	r4, r2, r8, asr #12
    4f44:	018f0b00 	orreq	r0, pc, r0, lsl #22
    4f48:	49050000 	stmdbmi	r5, {}	; <UNPREDICTABLE>
    4f4c:	00000246 	andeq	r0, r0, r6, asr #4
    4f50:	00000b00 	andeq	r0, r0, r0, lsl #22
    4f54:	4a050000 	bmi	144f5c <__bss_end__+0x13aeec>
    4f58:	00000246 	andeq	r0, r0, r6, asr #4
    4f5c:	04371280 	ldrteq	r1, [r7], #-640	; 0xfffffd80
    4f60:	4c050000 	stcmi	0, cr0, [r5], {-0}
    4f64:	00000119 	andeq	r0, r0, r9, lsl r1
    4f68:	29120100 	ldmdbcs	r2, {r8}
    4f6c:	05000001 	streq	r0, [r0, #-1]
    4f70:	0001194f 	andeq	r1, r1, pc, asr #18
    4f74:	00010400 	andeq	r0, r1, r0, lsl #8
    4f78:	00010508 	andeq	r0, r1, r8, lsl #10
    4f7c:	00025600 	andeq	r5, r2, r0, lsl #12
    4f80:	00c70900 	sbceq	r0, r7, r0, lsl #18
    4f84:	001f0000 	andseq	r0, pc, r0
    4f88:	0002b411 	andeq	fp, r2, r1, lsl r4
    4f8c:	05019000 	streq	r9, [r1, #-0]
    4f90:	0002945b 	andeq	r9, r2, fp, asr r4
    4f94:	034f0b00 	movteq	r0, #64256	; 0xfb00
    4f98:	5c050000 	stcpl	0, cr0, [r5], {-0}
    4f9c:	00000294 	muleq	r0, r4, r2
    4fa0:	03670b00 	cmneq	r7, #0, 22
    4fa4:	5d050000 	stcpl	0, cr0, [r5, #-0]
    4fa8:	00000025 	andeq	r0, r0, r5, lsr #32
    4fac:	01970b04 	orrseq	r0, r7, r4, lsl #22
    4fb0:	5f050000 	svcpl	0x00050000
    4fb4:	0000029a 	muleq	r0, sl, r2
    4fb8:	01040b08 	tsteq	r4, r8, lsl #22
    4fbc:	60050000 	andvs	r0, r5, r0
    4fc0:	00000206 	andeq	r0, r0, r6, lsl #4
    4fc4:	040d0088 	streq	r0, [sp], #-136	; 0xffffff78
    4fc8:	00000256 	andeq	r0, r0, r6, asr r2
    4fcc:	0002aa08 	andeq	sl, r2, r8, lsl #20
    4fd0:	0002aa00 	andeq	sl, r2, r0, lsl #20
    4fd4:	00c70900 	sbceq	r0, r7, r0, lsl #18
    4fd8:	001f0000 	andseq	r0, pc, r0
    4fdc:	02b0040d 	adcseq	r0, r0, #218103808	; 0xd000000
    4fe0:	0f130000 	svceq	0x00130000
    4fe4:	0000031a 	andeq	r0, r0, sl, lsl r3
    4fe8:	d6730508 	ldrbtle	r0, [r3], -r8, lsl #10
    4fec:	0b000002 	bleq	4ffc <_start-0x3004>
    4ff0:	000000be 	strheq	r0, [r0], -lr
    4ff4:	02d67405 	sbcseq	r7, r6, #83886080	; 0x5000000
    4ff8:	0b000000 	bleq	5000 <_start-0x3000>
    4ffc:	0000001b 	andeq	r0, r0, fp, lsl r0
    5000:	00257505 	eoreq	r7, r5, r5, lsl #10
    5004:	00040000 	andeq	r0, r4, r0
    5008:	004f040d 	subeq	r0, pc, sp, lsl #8
    500c:	390f0000 	stmdbcc	pc, {}	; <UNPREDICTABLE>
    5010:	68000003 	stmdavs	r0, {r0, r1}
    5014:	0406b305 	streq	fp, [r6], #-773	; 0xfffffcfb
    5018:	5f100000 	svcpl	0x00100000
    501c:	b4050070 	strlt	r0, [r5], #-112	; 0xffffff90
    5020:	000002d6 	ldrdeq	r0, [r0], -r6
    5024:	725f1000 	subsvc	r1, pc, #0
    5028:	25b50500 	ldrcs	r0, [r5, #1280]!	; 0x500
    502c:	04000000 	streq	r0, [r0], #-0
    5030:	00775f10 	rsbseq	r5, r7, r0, lsl pc
    5034:	0025b605 	eoreq	fp, r5, r5, lsl #12
    5038:	0b080000 	bleq	205040 <__bss_end__+0x1fafd0>
    503c:	00000122 	andeq	r0, r0, r2, lsr #2
    5040:	003ab705 	eorseq	fp, sl, r5, lsl #14
    5044:	0b0c0000 	bleq	30504c <__bss_end__+0x2fafdc>
    5048:	0000020b 	andeq	r0, r0, fp, lsl #4
    504c:	003ab805 	eorseq	fp, sl, r5, lsl #16
    5050:	100e0000 	andne	r0, lr, r0
    5054:	0066625f 	rsbeq	r6, r6, pc, asr r2
    5058:	02b1b905 	adcseq	fp, r1, #81920	; 0x14000
    505c:	0b100000 	bleq	405064 <__bss_end__+0x3faff4>
    5060:	0000007b 	andeq	r0, r0, fp, ror r0
    5064:	0025ba05 	eoreq	fp, r5, r5, lsl #20
    5068:	0b180000 	bleq	605070 <__bss_end__+0x5fb000>
    506c:	00000112 	andeq	r0, r0, r2, lsl r1
    5070:	0105c105 	tsteq	r5, r5, lsl #2
    5074:	0b1c0000 	bleq	70507c <__bss_end__+0x6fb00c>
    5078:	00000a78 	andeq	r0, r0, r8, ror sl
    507c:	0561c305 	strbeq	ip, [r1, #-773]!	; 0xfffffcfb
    5080:	0b200000 	bleq	805088 <__bss_end__+0x7fb018>
    5084:	0000060c 	andeq	r0, r0, ip, lsl #12
    5088:	058bc505 	streq	ip, [fp, #1285]	; 0x505
    508c:	0b240000 	bleq	905094 <__bss_end__+0x8fb024>
    5090:	000003ab 	andeq	r0, r0, fp, lsr #7
    5094:	05afc805 	streq	ip, [pc, #2053]!	; 58a1 <_start-0x275f>
    5098:	0b280000 	bleq	a050a0 <__bss_end__+0x9fb030>
    509c:	00000503 	andeq	r0, r0, r3, lsl #10
    50a0:	05c9c905 	strbeq	ip, [r9, #2309]	; 0x905
    50a4:	102c0000 	eorne	r0, ip, r0
    50a8:	0062755f 	rsbeq	r7, r2, pc, asr r5
    50ac:	02b1cc05 	adcseq	ip, r1, #1280	; 0x500
    50b0:	10300000 	eorsne	r0, r0, r0
    50b4:	0070755f 	rsbseq	r7, r0, pc, asr r5
    50b8:	02d6cd05 	sbcseq	ip, r6, #320	; 0x140
    50bc:	10380000 	eorsne	r0, r8, r0
    50c0:	0072755f 	rsbseq	r7, r2, pc, asr r5
    50c4:	0025ce05 	eoreq	ip, r5, r5, lsl #28
    50c8:	0b3c0000 	bleq	f050d0 <__bss_end__+0xefb060>
    50cc:	000000b8 	strheq	r0, [r0], -r8
    50d0:	05cfd105 	strbeq	sp, [pc, #261]	; 51dd <_start-0x2e23>
    50d4:	0b400000 	bleq	10050dc <__bss_end__+0xffb06c>
    50d8:	000004db 	ldrdeq	r0, [r0], -fp
    50dc:	05dfd205 	ldrbeq	sp, [pc, #517]	; 52e9 <_start-0x2d17>
    50e0:	10430000 	subne	r0, r3, r0
    50e4:	00626c5f 	rsbeq	r6, r2, pc, asr ip
    50e8:	02b1d505 	adcseq	sp, r1, #20971520	; 0x1400000
    50ec:	0b440000 	bleq	11050f4 <__bss_end__+0x10fb084>
    50f0:	00000140 	andeq	r0, r0, r0, asr #2
    50f4:	0025d805 	eoreq	sp, r5, r5, lsl #16
    50f8:	0b4c0000 	bleq	1305100 <__bss_end__+0x12fb090>
    50fc:	00000151 	andeq	r0, r0, r1, asr r1
    5100:	0076d905 	rsbseq	sp, r6, r5, lsl #18
    5104:	0b500000 	bleq	140510c <__bss_end__+0x13fb09c>
    5108:	00000a19 	andeq	r0, r0, r9, lsl sl
    510c:	0424dc05 	strteq	sp, [r4], #-3077	; 0xfffff3fb
    5110:	0b540000 	bleq	1505118 <__bss_end__+0x14fb0a8>
    5114:	00000276 	andeq	r0, r0, r6, ror r2
    5118:	00fae005 	rscseq	lr, sl, r5
    511c:	0b580000 	bleq	1605124 <__bss_end__+0x15fb0b4>
    5120:	00000341 	andeq	r0, r0, r1, asr #6
    5124:	00efe205 	rsceq	lr, pc, r5, lsl #4
    5128:	0b5c0000 	bleq	1705130 <__bss_end__+0x16fb0c0>
    512c:	0000027c 	andeq	r0, r0, ip, ror r2
    5130:	0025e305 	eoreq	lr, r5, r5, lsl #6
    5134:	00640000 	rsbeq	r0, r4, r0
    5138:	00002514 	andeq	r2, r0, r4, lsl r5
    513c:	00042400 	andeq	r2, r4, r0, lsl #8
    5140:	04241500 	strteq	r1, [r4], #-1280	; 0xfffffb00
    5144:	05150000 	ldreq	r0, [r5, #-0]
    5148:	15000001 	strne	r0, [r0, #-1]
    514c:	00000107 	andeq	r0, r0, r7, lsl #2
    5150:	00002515 	andeq	r2, r0, r5, lsl r5
    5154:	040d0000 	streq	r0, [sp], #-0
    5158:	0000042f 	andeq	r0, r0, pc, lsr #8
    515c:	0004240e 	andeq	r2, r4, lr, lsl #8
    5160:	038e1600 	orreq	r1, lr, #0, 12
    5164:	04280000 	strteq	r0, [r8], #-0
    5168:	61023805 	tstvs	r2, r5, lsl #16
    516c:	17000005 	strne	r0, [r0, -r5]
    5170:	000002ff 	strdeq	r0, [r0], -pc	; <UNPREDICTABLE>
    5174:	25023a05 	strcs	r3, [r2, #-2565]	; 0xfffff5fb
    5178:	00000000 	andeq	r0, r0, r0
    517c:	00013117 	andeq	r3, r1, r7, lsl r1
    5180:	023f0500 	eorseq	r0, pc, #0, 10
    5184:	00000636 	andeq	r0, r0, r6, lsr r6
    5188:	01fb1704 	mvnseq	r1, r4, lsl #14
    518c:	3f050000 	svccc	0x00050000
    5190:	00063602 	andeq	r3, r6, r2, lsl #12
    5194:	ab170800 	blge	5c719c <__bss_end__+0x5bd12c>
    5198:	05000001 	streq	r0, [r0, #-1]
    519c:	0636023f 			; <UNDEFINED> instruction: 0x0636023f
    51a0:	170c0000 	strne	r0, [ip, -r0]
    51a4:	00000362 	andeq	r0, r0, r2, ror #6
    51a8:	25024105 	strcs	r4, [r2, #-261]	; 0xfffffefb
    51ac:	10000000 	andne	r0, r0, r0
    51b0:	00002917 	andeq	r2, r0, r7, lsl r9
    51b4:	02420500 	subeq	r0, r2, #0, 10
    51b8:	00000818 	andeq	r0, r0, r8, lsl r8
    51bc:	047b1714 	ldrbteq	r1, [fp], #-1812	; 0xfffff8ec
    51c0:	44050000 	strmi	r0, [r5], #-0
    51c4:	00002502 	andeq	r2, r0, r2, lsl #10
    51c8:	6c173000 	ldcvs	0, cr3, [r7], {-0}
    51cc:	05000003 	streq	r0, [r0, #-3]
    51d0:	05850245 	streq	r0, [r5, #581]	; 0x245
    51d4:	17340000 	ldrne	r0, [r4, -r0]!
    51d8:	000002bc 			; <UNDEFINED> instruction: 0x000002bc
    51dc:	25024705 	strcs	r4, [r2, #-1797]	; 0xfffff8fb
    51e0:	38000000 	stmdacc	r0, {}	; <UNPREDICTABLE>
    51e4:	00037c17 	andeq	r7, r3, r7, lsl ip
    51e8:	02490500 	subeq	r0, r9, #0, 10
    51ec:	00000833 	andeq	r0, r0, r3, lsr r8
    51f0:	025a173c 	subseq	r1, sl, #60, 14	; 0xf00000
    51f4:	4c050000 	stcmi	0, cr0, [r5], {-0}
    51f8:	00017702 	andeq	r7, r1, r2, lsl #14
    51fc:	ca174000 	bgt	5d5204 <__bss_end__+0x5cb194>
    5200:	05000001 	streq	r0, [r0, #-1]
    5204:	0025024d 	eoreq	r0, r5, sp, asr #4
    5208:	17440000 	strbne	r0, [r4, -r0]
    520c:	0000051d 	andeq	r0, r0, sp, lsl r5
    5210:	77024e05 	strvc	r4, [r2, -r5, lsl #28]
    5214:	48000001 	stmdami	r0, {r0}
    5218:	0002ce17 	andeq	ip, r2, r7, lsl lr
    521c:	024f0500 	subeq	r0, pc, #0, 10
    5220:	00000839 	andeq	r0, r0, r9, lsr r8
    5224:	0203174c 	andeq	r1, r3, #76, 14	; 0x1300000
    5228:	52050000 	andpl	r0, r5, #0
    522c:	00002502 	andeq	r2, r0, r2, lsl #10
    5230:	49175000 	ldmdbmi	r7, {ip, lr}
    5234:	05000001 	streq	r0, [r0, #-1]
    5238:	01070253 	tsteq	r7, r3, asr r2
    523c:	17540000 	ldrbne	r0, [r4, -r0]
    5240:	000002f8 	strdeq	r0, [r0], -r8
    5244:	f6027605 			; <UNDEFINED> instruction: 0xf6027605
    5248:	58000007 	stmdapl	r0, {r0, r1, r2}
    524c:	0002b418 	andeq	fp, r2, r8, lsl r4
    5250:	027a0500 	rsbseq	r0, sl, #0, 10
    5254:	00000294 	muleq	r0, r4, r2
    5258:	38180148 	ldmdacc	r8, {r3, r6, r8}
    525c:	05000002 	streq	r0, [r0, #-2]
    5260:	0256027b 	subseq	r0, r6, #-1342177273	; 0xb0000007
    5264:	014c0000 	mrseq	r0, (UNDEF: 76)
    5268:	0004c918 	andeq	ip, r4, r8, lsl r9
    526c:	027f0500 	rsbseq	r0, pc, #0, 10
    5270:	0000084a 	andeq	r0, r0, sl, asr #16
    5274:	1a1802dc 	bne	605dec <__bss_end__+0x5fbd7c>
    5278:	05000001 	streq	r0, [r0, #-1]
    527c:	05fb0284 	ldrbeq	r0, [fp, #644]!	; 0x284
    5280:	02e00000 	rsceq	r0, r0, #0
    5284:	0000ff18 	andeq	pc, r0, r8, lsl pc	; <UNPREDICTABLE>
    5288:	02850500 	addeq	r0, r5, #0, 10
    528c:	00000856 	andeq	r0, r0, r6, asr r8
    5290:	0d0002ec 	sfmeq	f0, 4, [r0, #-944]	; 0xfffffc50
    5294:	00040604 	andeq	r0, r4, r4, lsl #12
    5298:	00251400 	eoreq	r1, r5, r0, lsl #8
    529c:	05850000 	streq	r0, [r5]
    52a0:	24150000 	ldrcs	r0, [r5], #-0
    52a4:	15000004 	strne	r0, [r0, #-4]
    52a8:	00000105 	andeq	r0, r0, r5, lsl #2
    52ac:	00058515 	andeq	r8, r5, r5, lsl r5
    52b0:	00251500 	eoreq	r1, r5, r0, lsl #10
    52b4:	0d000000 	stceq	0, cr0, [r0, #-0]
    52b8:	00011404 	andeq	r1, r1, r4, lsl #8
    52bc:	67040d00 	strvs	r0, [r4, -r0, lsl #26]
    52c0:	14000005 	strne	r0, [r0], #-5
    52c4:	00000081 	andeq	r0, r0, r1, lsl #1
    52c8:	000005af 	andeq	r0, r0, pc, lsr #11
    52cc:	00042415 	andeq	r2, r4, r5, lsl r4
    52d0:	01051500 	tsteq	r5, r0, lsl #10
    52d4:	81150000 	tsthi	r5, r0
    52d8:	15000000 	strne	r0, [r0, #-0]
    52dc:	00000025 	andeq	r0, r0, r5, lsr #32
    52e0:	91040d00 	tstls	r4, r0, lsl #26
    52e4:	14000005 	strne	r0, [r0], #-5
    52e8:	00000025 	andeq	r0, r0, r5, lsr #32
    52ec:	000005c9 	andeq	r0, r0, r9, asr #11
    52f0:	00042415 	andeq	r2, r4, r5, lsl r4
    52f4:	01051500 	tsteq	r5, r0, lsl #10
    52f8:	0d000000 	stceq	0, cr0, [r0, #-0]
    52fc:	0005b504 	andeq	fp, r5, r4, lsl #10
    5300:	004f0800 	subeq	r0, pc, r0, lsl #16
    5304:	05df0000 	ldrbeq	r0, [pc]	; 530c <_start-0x2cf4>
    5308:	c7090000 	strgt	r0, [r9, -r0]
    530c:	02000000 	andeq	r0, r0, #0
    5310:	004f0800 	subeq	r0, pc, r0, lsl #16
    5314:	05ef0000 	strbeq	r0, [pc, #0]!	; 531c <_start-0x2ce4>
    5318:	c7090000 	strgt	r0, [r9, -r0]
    531c:	00000000 	andeq	r0, r0, r0
    5320:	03270500 			; <UNDEFINED> instruction: 0x03270500
    5324:	1d050000 	stcne	0, cr0, [r5, #-0]
    5328:	0002dc01 	andeq	sp, r2, r1, lsl #24
    532c:	04b01900 	ldrteq	r1, [r0], #2304	; 0x900
    5330:	050c0000 	streq	r0, [ip, #-0]
    5334:	06300121 	ldrteq	r0, [r0], -r1, lsr #2
    5338:	4f170000 	svcmi	0x00170000
    533c:	05000003 	streq	r0, [r0, #-3]
    5340:	06300123 	ldrteq	r0, [r0], -r3, lsr #2
    5344:	17000000 	strne	r0, [r0, -r0]
    5348:	0000021e 	andeq	r0, r0, lr, lsl r2
    534c:	25012405 	strcs	r2, [r1, #-1029]	; 0xfffffbfb
    5350:	04000000 	streq	r0, [r0], #-0
    5354:	00032117 	andeq	r2, r3, r7, lsl r1
    5358:	01250500 			; <UNDEFINED> instruction: 0x01250500
    535c:	00000636 	andeq	r0, r0, r6, lsr r6
    5360:	040d0008 	streq	r0, [sp], #-8
    5364:	000005fb 	strdeq	r0, [r0], -fp
    5368:	05ef040d 	strbeq	r0, [pc, #1037]!	; 577d <_start-0x2883>
    536c:	21190000 	tstcs	r9, r0
    5370:	0e000000 	cdpeq	0, 0, cr0, cr0, cr0, {0}
    5374:	71013d05 	tstvc	r1, r5, lsl #26
    5378:	17000006 	strne	r0, [r0, -r6]
    537c:	00000395 	muleq	r0, r5, r3
    5380:	71013e05 	tstvc	r1, r5, lsl #28
    5384:	00000006 	andeq	r0, r0, r6
    5388:	0003c217 	andeq	ip, r3, r7, lsl r2
    538c:	013f0500 	teqeq	pc, r0, lsl #10
    5390:	00000671 	andeq	r0, r0, r1, ror r6
    5394:	04401706 	strbeq	r1, [r0], #-1798	; 0xfffff8fa
    5398:	40050000 	andmi	r0, r5, r0
    539c:	00005601 	andeq	r5, r0, r1, lsl #12
    53a0:	08000c00 	stmdaeq	r0, {sl, fp}
    53a4:	00000056 	andeq	r0, r0, r6, asr r0
    53a8:	00000681 	andeq	r0, r0, r1, lsl #13
    53ac:	0000c709 	andeq	ip, r0, r9, lsl #14
    53b0:	1a000200 	bne	5bb8 <_start-0x2448>
    53b4:	025705d0 	subseq	r0, r7, #208, 10	; 0x34000000
    53b8:	00000782 	andeq	r0, r0, r2, lsl #15
    53bc:	00049417 	andeq	r9, r4, r7, lsl r4
    53c0:	02590500 	subseq	r0, r9, #0, 10
    53c4:	0000002c 	andeq	r0, r0, ip, lsr #32
    53c8:	042a1700 	strteq	r1, [sl], #-1792	; 0xfffff900
    53cc:	5a050000 	bpl	1453d4 <__bss_end__+0x13b364>
    53d0:	00010702 	andeq	r0, r1, r2, lsl #14
    53d4:	4d170400 	cfldrsmi	mvf0, [r7, #-0]
    53d8:	05000002 	streq	r0, [r0, #-2]
    53dc:	0782025b 			; <UNDEFINED> instruction: 0x0782025b
    53e0:	17080000 	strne	r0, [r8, -r0]
    53e4:	000004f4 	strdeq	r0, [r0], -r4
    53e8:	8d025c05 	stchi	12, cr5, [r2, #-20]	; 0xffffffec
    53ec:	24000001 	strcs	r0, [r0], #-1
    53f0:	0001bb17 	andeq	fp, r1, r7, lsl fp
    53f4:	025d0500 	subseq	r0, sp, #0, 10
    53f8:	00000025 	andeq	r0, r0, r5, lsr #32
    53fc:	034a1748 	movteq	r1, #42824	; 0xa748
    5400:	5e050000 	cdppl	0, 0, cr0, cr5, cr0, {0}
    5404:	00006402 	andeq	r6, r0, r2, lsl #8
    5408:	0a175000 	beq	5d9410 <__bss_end__+0x5cf3a0>
    540c:	05000005 	streq	r0, [r0, #-5]
    5410:	063c025f 			; <UNDEFINED> instruction: 0x063c025f
    5414:	17580000 	ldrbne	r0, [r8, -r0]
    5418:	00000355 	andeq	r0, r0, r5, asr r3
    541c:	ef026005 	svc	0x00026005
    5420:	68000000 	stmdavs	r0, {}	; <UNPREDICTABLE>
    5424:	00050f17 	andeq	r0, r5, r7, lsl pc
    5428:	02610500 	rsbeq	r0, r1, #0, 10
    542c:	000000ef 	andeq	r0, r0, pc, ror #1
    5430:	00931770 	addseq	r1, r3, r0, ror r7
    5434:	62050000 	andvs	r0, r5, #0
    5438:	0000ef02 	andeq	lr, r0, r2, lsl #30
    543c:	bf177800 	svclt	0x00177800
    5440:	05000004 	streq	r0, [r0, #-4]
    5444:	07920263 	ldreq	r0, [r2, r3, ror #4]
    5448:	17800000 	strne	r0, [r0, r0]
    544c:	00000241 	andeq	r0, r0, r1, asr #4
    5450:	a2026405 	andge	r6, r2, #83886080	; 0x5000000
    5454:	88000007 	stmdahi	r0, {r0, r1, r2}
    5458:	00044d17 	andeq	r4, r4, r7, lsl sp
    545c:	02650500 	rsbeq	r0, r5, #0, 10
    5460:	00000025 	andeq	r0, r0, r5, lsr #32
    5464:	018117a0 	orreq	r1, r1, r0, lsr #15
    5468:	66050000 	strvs	r0, [r5], -r0
    546c:	0000ef02 	andeq	lr, r0, r2, lsl #30
    5470:	8417a400 	ldrhi	sl, [r7], #-1024	; 0xfffffc00
    5474:	05000000 	streq	r0, [r0, #-0]
    5478:	00ef0267 	rsceq	r0, pc, r7, ror #4
    547c:	17ac0000 	strne	r0, [ip, r0]!
    5480:	00000170 	andeq	r0, r0, r0, ror r1
    5484:	ef026805 	svc	0x00026805
    5488:	b4000000 	strlt	r0, [r0], #-0
    548c:	00003c17 	andeq	r3, r0, r7, lsl ip
    5490:	02690500 	rsbeq	r0, r9, #0, 10
    5494:	000000ef 	andeq	r0, r0, pc, ror #1
    5498:	004b17bc 	strheq	r1, [fp], #-124	; 0xffffff84
    549c:	6a050000 	bvs	1454a4 <__bss_end__+0x13b434>
    54a0:	0000ef02 	andeq	lr, r0, r2, lsl #30
    54a4:	fd17c400 	ldc2	4, cr12, [r7, #-0]
    54a8:	05000002 	streq	r0, [r0, #-2]
    54ac:	0025026b 	eoreq	r0, r5, fp, ror #4
    54b0:	00cc0000 	sbceq	r0, ip, r0
    54b4:	00010d08 	andeq	r0, r1, r8, lsl #26
    54b8:	00079200 	andeq	r9, r7, r0, lsl #4
    54bc:	00c70900 	sbceq	r0, r7, r0, lsl #18
    54c0:	00190000 	andseq	r0, r9, r0
    54c4:	00010d08 	andeq	r0, r1, r8, lsl #26
    54c8:	0007a200 	andeq	sl, r7, r0, lsl #4
    54cc:	00c70900 	sbceq	r0, r7, r0, lsl #18
    54d0:	00070000 	andeq	r0, r7, r0
    54d4:	00010d08 	andeq	r0, r1, r8, lsl #26
    54d8:	0007b200 	andeq	fp, r7, r0, lsl #4
    54dc:	00c70900 	sbceq	r0, r7, r0, lsl #18
    54e0:	00170000 	andseq	r0, r7, r0
    54e4:	7005f01a 	andvc	pc, r5, sl, lsl r0	; <UNPREDICTABLE>
    54e8:	0007d602 	andeq	sp, r7, r2, lsl #12
    54ec:	02a41700 	adceq	r1, r4, #0, 14
    54f0:	73050000 	movwvc	r0, #20480	; 0x5000
    54f4:	0007d602 	andeq	sp, r7, r2, lsl #12
    54f8:	b6170000 	ldrlt	r0, [r7], -r0
    54fc:	05000004 	streq	r0, [r0, #-4]
    5500:	07e60274 			; <UNDEFINED> instruction: 0x07e60274
    5504:	00780000 	rsbseq	r0, r8, r0
    5508:	0002d608 	andeq	sp, r2, r8, lsl #12
    550c:	0007e600 	andeq	lr, r7, r0, lsl #12
    5510:	00c70900 	sbceq	r0, r7, r0, lsl #18
    5514:	001d0000 	andseq	r0, sp, r0
    5518:	00002c08 	andeq	r2, r0, r8, lsl #24
    551c:	0007f600 	andeq	pc, r7, r0, lsl #12
    5520:	00c70900 	sbceq	r0, r7, r0, lsl #18
    5524:	001d0000 	andseq	r0, sp, r0
    5528:	5505f01b 	strpl	pc, [r5, #-27]	; 0xffffffe5
    552c:	00081802 	andeq	r1, r8, r2, lsl #16
    5530:	038e1c00 	orreq	r1, lr, #0, 24
    5534:	6c050000 	stcvs	0, cr0, [r5], {-0}
    5538:	00068102 	andeq	r8, r6, r2, lsl #2
    553c:	04e11c00 	strbteq	r1, [r1], #3072	; 0xc00
    5540:	75050000 	strvc	r0, [r5, #-0]
    5544:	0007b202 	andeq	fp, r7, r2, lsl #4
    5548:	0d080000 	stceq	0, cr0, [r8, #-0]
    554c:	28000001 	stmdacs	r0, {r0}
    5550:	09000008 	stmdbeq	r0, {r3}
    5554:	000000c7 	andeq	r0, r0, r7, asr #1
    5558:	331d0018 	tstcc	sp, #24
    555c:	15000008 	strne	r0, [r0, #-8]
    5560:	00000424 	andeq	r0, r0, r4, lsr #8
    5564:	28040d00 	stmdacs	r4, {r8, sl, fp}
    5568:	0d000008 	stceq	0, cr0, [r0, #-32]	; 0xffffffe0
    556c:	00017704 	andeq	r7, r1, r4, lsl #14
    5570:	084a1d00 	stmdaeq	sl, {r8, sl, fp, ip}^
    5574:	25150000 	ldrcs	r0, [r5, #-0]
    5578:	00000000 	andeq	r0, r0, r0
    557c:	0850040d 	ldmdaeq	r0, {r0, r2, r3, sl}^
    5580:	040d0000 	streq	r0, [sp], #-0
    5584:	0000083f 	andeq	r0, r0, pc, lsr r8
    5588:	0005ef08 	andeq	lr, r5, r8, lsl #30
    558c:	00086600 	andeq	r6, r8, r0, lsl #12
    5590:	00c70900 	sbceq	r0, r7, r0, lsl #18
    5594:	00020000 	andeq	r0, r2, r0
    5598:	00046f1e 	andeq	r6, r4, lr, lsl pc
    559c:	02fd0500 	rscseq	r0, sp, #0, 10
    55a0:	00000424 	andeq	r0, r0, r4, lsr #8
    55a4:	0004681e 	andeq	r6, r4, lr, lsl r8
    55a8:	02fe0500 	rscseq	r0, lr, #0, 10
    55ac:	0000042a 	andeq	r0, r0, sl, lsr #8
    55b0:	00002514 	andeq	r2, r0, r4, lsl r5
    55b4:	00088d00 	andeq	r8, r8, r0, lsl #26
    55b8:	00251500 	eoreq	r1, r5, r0, lsl #10
    55bc:	1f000000 	svcne	0x00000000
    55c0:	000001d4 	ldrdeq	r0, [r0], -r4
    55c4:	08981d06 	ldmeq	r8, {r1, r2, r8, sl, fp, ip}
    55c8:	040d0000 	streq	r0, [sp], #-0
    55cc:	0000087e 	andeq	r0, r0, lr, ror r8
    55d0:	00002514 	andeq	r2, r0, r4, lsl r5
    55d4:	0008ad00 	andeq	sl, r8, r0, lsl #26
    55d8:	05851500 	streq	r1, [r5, #1280]	; 0x500
    55dc:	1f000000 	svcne	0x00000000
    55e0:	00000769 	andeq	r0, r0, r9, ror #14
    55e4:	08b82206 	ldmeq	r8!, {r1, r2, r9, sp}
    55e8:	040d0000 	streq	r0, [sp], #-0
    55ec:	0000089e 	muleq	r0, lr, r8
    55f0:	00088d20 	andeq	r8, r8, r0, lsr #26
    55f4:	05060100 	streq	r0, [r6, #-256]	; 0xffffff00
    55f8:	00968803 	addseq	r8, r6, r3, lsl #16
    55fc:	077a2100 	ldrbeq	r2, [sl, -r0, lsl #2]!
    5600:	0b010000 	bleq	45608 <__bss_end__+0x3b598>
    5604:	00009068 	andeq	r9, r0, r8, rrx
    5608:	00000010 	andeq	r0, r0, r0, lsl r0
    560c:	08ed9c01 	stmiaeq	sp!, {r0, sl, fp, ip, pc}^
    5610:	66220000 	strtvs	r0, [r2], -r0
    5614:	0b010070 	bleq	457dc <__bss_end__+0x3b76c>
    5618:	00000898 	muleq	r0, r8, r8
    561c:	23005001 	movwcs	r5, #1
    5620:	000001ec 	andeq	r0, r0, ip, ror #3
    5624:	90500801 	subsls	r0, r0, r1, lsl #16
    5628:	00180000 	andseq	r0, r8, r0
    562c:	9c010000 	stcls	0, cr0, [r1], {-0}
    5630:	00079124 	andeq	r9, r7, r4, lsr #2
    5634:	25030100 	strcs	r0, [r3, #-256]	; 0xffffff00
    5638:	3c000000 	stccc	0, cr0, [r0], {-0}
    563c:	14000090 	strne	r0, [r0], #-144	; 0xffffff70
    5640:	01000000 	mrseq	r0, (UNDEF: 0)
    5644:	0009359c 	muleq	r9, ip, r5
    5648:	00632500 	rsbeq	r2, r3, r0, lsl #10
    564c:	00250301 	eoreq	r0, r5, r1, lsl #6
    5650:	0f3b0000 	svceq	0x003b0000
    5654:	48260000 	stmdami	r6!, {}	; <UNPREDICTABLE>
    5658:	35000090 	strcc	r0, [r0, #-144]	; 0xffffff70
    565c:	27000009 	strcs	r0, [r0, -r9]
    5660:	74025001 	strvc	r5, [r2], #-1
    5664:	28000000 	stmdacs	r0, {}	; <UNPREDICTABLE>
    5668:	00000787 	andeq	r0, r0, r7, lsl #15
    566c:	00000787 	andeq	r0, r0, r7, lsl #15
    5670:	d8003c06 	stmdale	r0, {r1, r2, sl, fp, ip, sp}
    5674:	04000008 	streq	r0, [r0], #-8
    5678:	000fb800 	andeq	fp, pc, r0, lsl #16
    567c:	c8010400 	stmdagt	r1, {sl}
    5680:	0c000003 	stceq	0, cr0, [r0], {3}
    5684:	000007b8 			; <UNDEFINED> instruction: 0x000007b8
    5688:	000006de 	ldrdeq	r0, [r0], -lr
    568c:	00009078 	andeq	r9, r0, r8, ror r0
    5690:	00000020 	andeq	r0, r0, r0, lsr #32
    5694:	0000093a 	andeq	r0, r0, sl, lsr r9
    5698:	69050402 	stmdbvs	r5, {r1, sl}
    569c:	0300746e 	movweq	r7, #1134	; 0x46e
    56a0:	000007b1 			; <UNDEFINED> instruction: 0x000007b1
    56a4:	0037d802 	eorseq	sp, r7, r2, lsl #16
    56a8:	04040000 	streq	r0, [r4], #-0
    56ac:	00006607 	andeq	r6, r0, r7, lsl #12
    56b0:	06010400 	streq	r0, [r1], -r0, lsl #8
    56b4:	000002ec 	andeq	r0, r0, ip, ror #5
    56b8:	ea080104 	b	205ad0 <__bss_end__+0x1fba60>
    56bc:	04000002 	streq	r0, [r0], #-2
    56c0:	03060502 	movweq	r0, #25858	; 0x6502
    56c4:	02040000 	andeq	r0, r4, #0
    56c8:	00022507 	andeq	r2, r2, r7, lsl #10
    56cc:	05040400 	streq	r0, [r4, #-1024]	; 0xfffffc00
    56d0:	000000af 	andeq	r0, r0, pc, lsr #1
    56d4:	61070404 	tstvs	r7, r4, lsl #8
    56d8:	04000000 	streq	r0, [r0], #-0
    56dc:	00aa0508 	adceq	r0, sl, r8, lsl #10
    56e0:	08040000 	stmdaeq	r4, {}	; <UNPREDICTABLE>
    56e4:	00005c07 	andeq	r5, r0, r7, lsl #24
    56e8:	02d80300 	sbcseq	r0, r8, #0, 6
    56ec:	07030000 	streq	r0, [r3, -r0]
    56f0:	00000025 	andeq	r0, r0, r5, lsr #32
    56f4:	0002c703 	andeq	ip, r2, r3, lsl #14
    56f8:	5a2c0400 	bpl	b06700 <__bss_end__+0xafc690>
    56fc:	03000000 	movweq	r0, #0
    5700:	000003b1 			; <UNDEFINED> instruction: 0x000003b1
    5704:	005a7204 	subseq	r7, sl, r4, lsl #4
    5708:	68050000 	stmdavs	r5, {}	; <UNPREDICTABLE>
    570c:	02000002 	andeq	r0, r0, #2
    5710:	00370165 	eorseq	r0, r7, r5, ror #2
    5714:	04060000 	streq	r0, [r6], #-0
    5718:	00c2a604 	sbceq	sl, r2, r4, lsl #12
    571c:	62070000 	andvs	r0, r7, #0
    5720:	04000002 	streq	r0, [r0], #-2
    5724:	000097a8 	andeq	r9, r0, r8, lsr #15
    5728:	01e50700 	mvneq	r0, r0, lsl #14
    572c:	a9040000 	stmdbge	r4, {}	; <UNPREDICTABLE>
    5730:	000000c2 	andeq	r0, r0, r2, asr #1
    5734:	00450800 	subeq	r0, r5, r0, lsl #16
    5738:	00d20000 	sbcseq	r0, r2, r0
    573c:	d2090000 	andle	r0, r9, #0
    5740:	03000000 	movweq	r0, #0
    5744:	07040400 	streq	r0, [r4, -r0, lsl #8]
    5748:	0000029b 	muleq	r0, fp, r2
    574c:	a304080a 	movwge	r0, #18442	; 0x480a
    5750:	000000fa 	strdeq	r0, [r0], -sl
    5754:	00039b0b 	andeq	r9, r3, fp, lsl #22
    5758:	25a50400 	strcs	r0, [r5, #1024]!	; 0x400
    575c:	00000000 	andeq	r0, r0, r0
    5760:	0003a30b 	andeq	sl, r3, fp, lsl #6
    5764:	a3aa0400 			; <UNDEFINED> instruction: 0xa3aa0400
    5768:	04000000 	streq	r0, [r0], #-0
    576c:	032e0300 			; <UNDEFINED> instruction: 0x032e0300
    5770:	ab040000 	blge	105778 <__bss_end__+0xfb708>
    5774:	000000d9 	ldrdeq	r0, [r0], -r9
    5778:	0001a203 	andeq	sl, r1, r3, lsl #4
    577c:	76af0400 	strtvc	r0, [pc], r0, lsl #8
    5780:	0c000000 	stceq	0, cr0, [r0], {-0}
    5784:	18040d04 	stmdane	r4, {r2, r8, sl, fp}
    5788:	04000001 	streq	r0, [r0], #-1
    578c:	02f30801 	rscseq	r0, r3, #65536	; 0x10000
    5790:	180e0000 	stmdane	lr, {}	; <UNPREDICTABLE>
    5794:	03000001 	movweq	r0, #1
    5798:	00000445 	andeq	r0, r0, r5, asr #8
    579c:	00611605 	rsbeq	r1, r1, r5, lsl #12
    57a0:	b30f0000 	movwlt	r0, #61440	; 0xf000
    57a4:	18000001 	stmdane	r0, {r0}
    57a8:	01822d05 	orreq	r2, r2, r5, lsl #26
    57ac:	4f0b0000 	svcmi	0x000b0000
    57b0:	05000003 	streq	r0, [r0, #-3]
    57b4:	0001822f 	andeq	r8, r1, pc, lsr #4
    57b8:	5f100000 	svcpl	0x00100000
    57bc:	3005006b 	andcc	r0, r5, fp, rrx
    57c0:	00000025 	andeq	r0, r0, r5, lsr #32
    57c4:	03860b04 	orreq	r0, r6, #4, 22	; 0x1000
    57c8:	30050000 	andcc	r0, r5, r0
    57cc:	00000025 	andeq	r0, r0, r5, lsr #32
    57d0:	019c0b08 	orrseq	r0, ip, r8, lsl #22
    57d4:	30050000 	andcc	r0, r5, r0
    57d8:	00000025 	andeq	r0, r0, r5, lsr #32
    57dc:	04a10b0c 	strteq	r0, [r1], #2828	; 0xb0c
    57e0:	30050000 	andcc	r0, r5, r0
    57e4:	00000025 	andeq	r0, r0, r5, lsr #32
    57e8:	785f1010 	ldmdavc	pc, {r4, ip}^	; <UNPREDICTABLE>
    57ec:	88310500 	ldmdahi	r1!, {r8, sl}
    57f0:	14000001 	strne	r0, [r0], #-1
    57f4:	2f040d00 	svccs	0x00040d00
    57f8:	08000001 	stmdaeq	r0, {r0}
    57fc:	00000124 	andeq	r0, r0, r4, lsr #2
    5800:	00000198 	muleq	r0, r8, r1
    5804:	0000d209 	andeq	sp, r0, r9, lsl #4
    5808:	0f000000 	svceq	0x00000000
    580c:	000001e0 	andeq	r0, r0, r0, ror #3
    5810:	11350524 	teqne	r5, r4, lsr #10
    5814:	0b000002 	bleq	5824 <_start-0x27dc>
    5818:	000000a1 	andeq	r0, r0, r1, lsr #1
    581c:	00253705 	eoreq	r3, r5, r5, lsl #14
    5820:	0b000000 	bleq	5828 <_start-0x27d8>
    5824:	000003b9 			; <UNDEFINED> instruction: 0x000003b9
    5828:	00253805 	eoreq	r3, r5, r5, lsl #16
    582c:	0b040000 	bleq	105834 <__bss_end__+0xfb7c4>
    5830:	000000c4 	andeq	r0, r0, r4, asr #1
    5834:	00253905 	eoreq	r3, r5, r5, lsl #18
    5838:	0b080000 	bleq	205840 <__bss_end__+0x1fb7d0>
    583c:	00000522 	andeq	r0, r0, r2, lsr #10
    5840:	00253a05 	eoreq	r3, r5, r5, lsl #20
    5844:	0b0c0000 	bleq	30584c <__bss_end__+0x2fb7dc>
    5848:	000002ab 	andeq	r0, r0, fp, lsr #5
    584c:	00253b05 	eoreq	r3, r5, r5, lsl #22
    5850:	0b100000 	bleq	405858 <__bss_end__+0x3fb7e8>
    5854:	00000284 	andeq	r0, r0, r4, lsl #5
    5858:	00253c05 	eoreq	r3, r5, r5, lsl #24
    585c:	0b140000 	bleq	505864 <__bss_end__+0x4fb7f4>
    5860:	000004a6 	andeq	r0, r0, r6, lsr #9
    5864:	00253d05 	eoreq	r3, r5, r5, lsl #26
    5868:	0b180000 	bleq	605870 <__bss_end__+0x5fb800>
    586c:	00000310 	andeq	r0, r0, r0, lsl r3
    5870:	00253e05 	eoreq	r3, r5, r5, lsl #28
    5874:	0b1c0000 	bleq	70587c <__bss_end__+0x6fb80c>
    5878:	000004e9 	andeq	r0, r0, r9, ror #9
    587c:	00253f05 	eoreq	r3, r5, r5, lsl #30
    5880:	00200000 	eoreq	r0, r0, r0
    5884:	00010411 	andeq	r0, r1, r1, lsl r4
    5888:	05010800 	streq	r0, [r1, #-2048]	; 0xfffff800
    588c:	00025148 	andeq	r5, r2, r8, asr #2
    5890:	018f0b00 	orreq	r0, pc, r0, lsl #22
    5894:	49050000 	stmdbmi	r5, {}	; <UNPREDICTABLE>
    5898:	00000251 	andeq	r0, r0, r1, asr r2
    589c:	00000b00 	andeq	r0, r0, r0, lsl #22
    58a0:	4a050000 	bmi	1458a8 <__bss_end__+0x13b838>
    58a4:	00000251 	andeq	r0, r0, r1, asr r2
    58a8:	04371280 	ldrteq	r1, [r7], #-640	; 0xfffffd80
    58ac:	4c050000 	stcmi	0, cr0, [r5], {-0}
    58b0:	00000124 	andeq	r0, r0, r4, lsr #2
    58b4:	29120100 	ldmdbcs	r2, {r8}
    58b8:	05000001 	streq	r0, [r0, #-1]
    58bc:	0001244f 	andeq	r2, r1, pc, asr #8
    58c0:	00010400 	andeq	r0, r1, r0, lsl #8
    58c4:	00011008 	andeq	r1, r1, r8
    58c8:	00026100 	andeq	r6, r2, r0, lsl #2
    58cc:	00d20900 	sbcseq	r0, r2, r0, lsl #18
    58d0:	001f0000 	andseq	r0, pc, r0
    58d4:	0002b411 	andeq	fp, r2, r1, lsl r4
    58d8:	05019000 	streq	r9, [r1, #-0]
    58dc:	00029f5b 	andeq	r9, r2, fp, asr pc
    58e0:	034f0b00 	movteq	r0, #64256	; 0xfb00
    58e4:	5c050000 	stcpl	0, cr0, [r5], {-0}
    58e8:	0000029f 	muleq	r0, pc, r2	; <UNPREDICTABLE>
    58ec:	03670b00 	cmneq	r7, #0, 22
    58f0:	5d050000 	stcpl	0, cr0, [r5, #-0]
    58f4:	00000025 	andeq	r0, r0, r5, lsr #32
    58f8:	01970b04 	orrseq	r0, r7, r4, lsl #22
    58fc:	5f050000 	svcpl	0x00050000
    5900:	000002a5 	andeq	r0, r0, r5, lsr #5
    5904:	01040b08 	tsteq	r4, r8, lsl #22
    5908:	60050000 	andvs	r0, r5, r0
    590c:	00000211 	andeq	r0, r0, r1, lsl r2
    5910:	040d0088 	streq	r0, [sp], #-136	; 0xffffff78
    5914:	00000261 	andeq	r0, r0, r1, ror #4
    5918:	0002b508 	andeq	fp, r2, r8, lsl #10
    591c:	0002b500 	andeq	fp, r2, r0, lsl #10
    5920:	00d20900 	sbcseq	r0, r2, r0, lsl #18
    5924:	001f0000 	andseq	r0, pc, r0
    5928:	02bb040d 	adcseq	r0, fp, #218103808	; 0xd000000
    592c:	0f130000 	svceq	0x00130000
    5930:	0000031a 	andeq	r0, r0, sl, lsl r3
    5934:	e1730508 	cmn	r3, r8, lsl #10
    5938:	0b000002 	bleq	5948 <_start-0x26b8>
    593c:	000000be 	strheq	r0, [r0], -lr
    5940:	02e17405 	rsceq	r7, r1, #83886080	; 0x5000000
    5944:	0b000000 	bleq	594c <_start-0x26b4>
    5948:	0000001b 	andeq	r0, r0, fp, lsl r0
    594c:	00257505 	eoreq	r7, r5, r5, lsl #10
    5950:	00040000 	andeq	r0, r4, r0
    5954:	0045040d 	subeq	r0, r5, sp, lsl #8
    5958:	390f0000 	stmdbcc	pc, {}	; <UNPREDICTABLE>
    595c:	68000003 	stmdavs	r0, {r0, r1}
    5960:	0411b305 	ldreq	fp, [r1], #-773	; 0xfffffcfb
    5964:	5f100000 	svcpl	0x00100000
    5968:	b4050070 	strlt	r0, [r5], #-112	; 0xffffff90
    596c:	000002e1 	andeq	r0, r0, r1, ror #5
    5970:	725f1000 	subsvc	r1, pc, #0
    5974:	25b50500 	ldrcs	r0, [r5, #1280]!	; 0x500
    5978:	04000000 	streq	r0, [r0], #-0
    597c:	00775f10 	rsbseq	r5, r7, r0, lsl pc
    5980:	0025b605 	eoreq	fp, r5, r5, lsl #12
    5984:	0b080000 	bleq	20598c <__bss_end__+0x1fb91c>
    5988:	00000122 	andeq	r0, r0, r2, lsr #2
    598c:	004cb705 	subeq	fp, ip, r5, lsl #14
    5990:	0b0c0000 	bleq	305998 <__bss_end__+0x2fb928>
    5994:	0000020b 	andeq	r0, r0, fp, lsl #4
    5998:	004cb805 	subeq	fp, ip, r5, lsl #16
    599c:	100e0000 	andne	r0, lr, r0
    59a0:	0066625f 	rsbeq	r6, r6, pc, asr r2
    59a4:	02bcb905 	adcseq	fp, ip, #81920	; 0x14000
    59a8:	0b100000 	bleq	4059b0 <__bss_end__+0x3fb940>
    59ac:	0000007b 	andeq	r0, r0, fp, ror r0
    59b0:	0025ba05 	eoreq	fp, r5, r5, lsl #20
    59b4:	0b180000 	bleq	6059bc <__bss_end__+0x5fb94c>
    59b8:	00000112 	andeq	r0, r0, r2, lsl r1
    59bc:	0110c105 	tsteq	r0, r5, lsl #2
    59c0:	0b1c0000 	bleq	7059c8 <__bss_end__+0x6fb958>
    59c4:	00000a78 	andeq	r0, r0, r8, ror sl
    59c8:	056cc305 	strbeq	ip, [ip, #-773]!	; 0xfffffcfb
    59cc:	0b200000 	bleq	8059d4 <__bss_end__+0x7fb964>
    59d0:	0000060c 	andeq	r0, r0, ip, lsl #12
    59d4:	0596c505 	ldreq	ip, [r6, #1285]	; 0x505
    59d8:	0b240000 	bleq	9059e0 <__bss_end__+0x8fb970>
    59dc:	000003ab 	andeq	r0, r0, fp, lsr #7
    59e0:	05bac805 	ldreq	ip, [sl, #2053]!	; 0x805
    59e4:	0b280000 	bleq	a059ec <__bss_end__+0x9fb97c>
    59e8:	00000503 	andeq	r0, r0, r3, lsl #10
    59ec:	05d4c905 	ldrbeq	ip, [r4, #2309]	; 0x905
    59f0:	102c0000 	eorne	r0, ip, r0
    59f4:	0062755f 	rsbeq	r7, r2, pc, asr r5
    59f8:	02bccc05 	adcseq	ip, ip, #1280	; 0x500
    59fc:	10300000 	eorsne	r0, r0, r0
    5a00:	0070755f 	rsbseq	r7, r0, pc, asr r5
    5a04:	02e1cd05 	rsceq	ip, r1, #320	; 0x140
    5a08:	10380000 	eorsne	r0, r8, r0
    5a0c:	0072755f 	rsbseq	r7, r2, pc, asr r5
    5a10:	0025ce05 	eoreq	ip, r5, r5, lsl #28
    5a14:	0b3c0000 	bleq	f05a1c <__bss_end__+0xefb9ac>
    5a18:	000000b8 	strheq	r0, [r0], -r8
    5a1c:	05dad105 	ldrbeq	sp, [sl, #261]	; 0x105
    5a20:	0b400000 	bleq	1005a28 <__bss_end__+0xffb9b8>
    5a24:	000004db 	ldrdeq	r0, [r0], -fp
    5a28:	05ead205 	strbeq	sp, [sl, #517]!	; 0x205
    5a2c:	10430000 	subne	r0, r3, r0
    5a30:	00626c5f 	rsbeq	r6, r2, pc, asr ip
    5a34:	02bcd505 	adcseq	sp, ip, #20971520	; 0x1400000
    5a38:	0b440000 	bleq	1105a40 <__bss_end__+0x10fb9d0>
    5a3c:	00000140 	andeq	r0, r0, r0, asr #2
    5a40:	0025d805 	eoreq	sp, r5, r5, lsl #16
    5a44:	0b4c0000 	bleq	1305a4c <__bss_end__+0x12fb9dc>
    5a48:	00000151 	andeq	r0, r0, r1, asr r1
    5a4c:	0081d905 	addeq	sp, r1, r5, lsl #18
    5a50:	0b500000 	bleq	1405a58 <__bss_end__+0x13fb9e8>
    5a54:	00000a19 	andeq	r0, r0, r9, lsl sl
    5a58:	042fdc05 	strteq	sp, [pc], #-3077	; 5a60 <_start-0x25a0>
    5a5c:	0b540000 	bleq	1505a64 <__bss_end__+0x14fb9f4>
    5a60:	00000276 	andeq	r0, r0, r6, ror r2
    5a64:	0105e005 	tsteq	r5, r5
    5a68:	0b580000 	bleq	1605a70 <__bss_end__+0x15fba00>
    5a6c:	00000341 	andeq	r0, r0, r1, asr #6
    5a70:	00fae205 	rscseq	lr, sl, r5, lsl #4
    5a74:	0b5c0000 	bleq	1705a7c <__bss_end__+0x16fba0c>
    5a78:	0000027c 	andeq	r0, r0, ip, ror r2
    5a7c:	0025e305 	eoreq	lr, r5, r5, lsl #6
    5a80:	00640000 	rsbeq	r0, r4, r0
    5a84:	00002514 	andeq	r2, r0, r4, lsl r5
    5a88:	00042f00 	andeq	r2, r4, r0, lsl #30
    5a8c:	042f1500 	strteq	r1, [pc], #-1280	; 5a94 <_start-0x256c>
    5a90:	10150000 	andsne	r0, r5, r0
    5a94:	15000001 	strne	r0, [r0, #-1]
    5a98:	00000112 	andeq	r0, r0, r2, lsl r1
    5a9c:	00002515 	andeq	r2, r0, r5, lsl r5
    5aa0:	040d0000 	streq	r0, [sp], #-0
    5aa4:	0000043a 	andeq	r0, r0, sl, lsr r4
    5aa8:	00042f0e 	andeq	r2, r4, lr, lsl #30
    5aac:	038e1600 	orreq	r1, lr, #0, 12
    5ab0:	04280000 	strteq	r0, [r8], #-0
    5ab4:	6c023805 	stcvs	8, cr3, [r2], {5}
    5ab8:	17000005 	strne	r0, [r0, -r5]
    5abc:	000002ff 	strdeq	r0, [r0], -pc	; <UNPREDICTABLE>
    5ac0:	25023a05 	strcs	r3, [r2, #-2565]	; 0xfffff5fb
    5ac4:	00000000 	andeq	r0, r0, r0
    5ac8:	00013117 	andeq	r3, r1, r7, lsl r1
    5acc:	023f0500 	eorseq	r0, pc, #0, 10
    5ad0:	00000641 	andeq	r0, r0, r1, asr #12
    5ad4:	01fb1704 	mvnseq	r1, r4, lsl #14
    5ad8:	3f050000 	svccc	0x00050000
    5adc:	00064102 	andeq	r4, r6, r2, lsl #2
    5ae0:	ab170800 	blge	5c7ae8 <__bss_end__+0x5bda78>
    5ae4:	05000001 	streq	r0, [r0, #-1]
    5ae8:	0641023f 			; <UNDEFINED> instruction: 0x0641023f
    5aec:	170c0000 	strne	r0, [ip, -r0]
    5af0:	00000362 	andeq	r0, r0, r2, ror #6
    5af4:	25024105 	strcs	r4, [r2, #-261]	; 0xfffffefb
    5af8:	10000000 	andne	r0, r0, r0
    5afc:	00002917 	andeq	r2, r0, r7, lsl r9
    5b00:	02420500 	subeq	r0, r2, #0, 10
    5b04:	00000823 	andeq	r0, r0, r3, lsr #16
    5b08:	047b1714 	ldrbteq	r1, [fp], #-1812	; 0xfffff8ec
    5b0c:	44050000 	strmi	r0, [r5], #-0
    5b10:	00002502 	andeq	r2, r0, r2, lsl #10
    5b14:	6c173000 	ldcvs	0, cr3, [r7], {-0}
    5b18:	05000003 	streq	r0, [r0, #-3]
    5b1c:	05900245 	ldreq	r0, [r0, #581]	; 0x245
    5b20:	17340000 	ldrne	r0, [r4, -r0]!
    5b24:	000002bc 			; <UNDEFINED> instruction: 0x000002bc
    5b28:	25024705 	strcs	r4, [r2, #-1797]	; 0xfffff8fb
    5b2c:	38000000 	stmdacc	r0, {}	; <UNPREDICTABLE>
    5b30:	00037c17 	andeq	r7, r3, r7, lsl ip
    5b34:	02490500 	subeq	r0, r9, #0, 10
    5b38:	0000083e 	andeq	r0, r0, lr, lsr r8
    5b3c:	025a173c 	subseq	r1, sl, #60, 14	; 0xf00000
    5b40:	4c050000 	stcmi	0, cr0, [r5], {-0}
    5b44:	00018202 	andeq	r8, r1, r2, lsl #4
    5b48:	ca174000 	bgt	5d5b50 <__bss_end__+0x5cbae0>
    5b4c:	05000001 	streq	r0, [r0, #-1]
    5b50:	0025024d 	eoreq	r0, r5, sp, asr #4
    5b54:	17440000 	strbne	r0, [r4, -r0]
    5b58:	0000051d 	andeq	r0, r0, sp, lsl r5
    5b5c:	82024e05 	andhi	r4, r2, #5, 28	; 0x50
    5b60:	48000001 	stmdami	r0, {r0}
    5b64:	0002ce17 	andeq	ip, r2, r7, lsl lr
    5b68:	024f0500 	subeq	r0, pc, #0, 10
    5b6c:	00000844 	andeq	r0, r0, r4, asr #16
    5b70:	0203174c 	andeq	r1, r3, #76, 14	; 0x1300000
    5b74:	52050000 	andpl	r0, r5, #0
    5b78:	00002502 	andeq	r2, r0, r2, lsl #10
    5b7c:	49175000 	ldmdbmi	r7, {ip, lr}
    5b80:	05000001 	streq	r0, [r0, #-1]
    5b84:	01120253 	tsteq	r2, r3, asr r2
    5b88:	17540000 	ldrbne	r0, [r4, -r0]
    5b8c:	000002f8 	strdeq	r0, [r0], -r8
    5b90:	01027605 	tsteq	r2, r5, lsl #12
    5b94:	58000008 	stmdapl	r0, {r3}
    5b98:	0002b418 	andeq	fp, r2, r8, lsl r4
    5b9c:	027a0500 	rsbseq	r0, sl, #0, 10
    5ba0:	0000029f 	muleq	r0, pc, r2	; <UNPREDICTABLE>
    5ba4:	38180148 	ldmdacc	r8, {r3, r6, r8}
    5ba8:	05000002 	streq	r0, [r0, #-2]
    5bac:	0261027b 	rsbeq	r0, r1, #-1342177273	; 0xb0000007
    5bb0:	014c0000 	mrseq	r0, (UNDEF: 76)
    5bb4:	0004c918 	andeq	ip, r4, r8, lsl r9
    5bb8:	027f0500 	rsbseq	r0, pc, #0, 10
    5bbc:	00000855 	andeq	r0, r0, r5, asr r8
    5bc0:	1a1802dc 	bne	606738 <__bss_end__+0x5fc6c8>
    5bc4:	05000001 	streq	r0, [r0, #-1]
    5bc8:	06060284 	streq	r0, [r6], -r4, lsl #5
    5bcc:	02e00000 	rsceq	r0, r0, #0
    5bd0:	0000ff18 	andeq	pc, r0, r8, lsl pc	; <UNPREDICTABLE>
    5bd4:	02850500 	addeq	r0, r5, #0, 10
    5bd8:	00000861 	andeq	r0, r0, r1, ror #16
    5bdc:	0d0002ec 	sfmeq	f0, 4, [r0, #-944]	; 0xfffffc50
    5be0:	00041104 	andeq	r1, r4, r4, lsl #2
    5be4:	00251400 	eoreq	r1, r5, r0, lsl #8
    5be8:	05900000 	ldreq	r0, [r0]
    5bec:	2f150000 	svccs	0x00150000
    5bf0:	15000004 	strne	r0, [r0, #-4]
    5bf4:	00000110 	andeq	r0, r0, r0, lsl r1
    5bf8:	00059015 	andeq	r9, r5, r5, lsl r0
    5bfc:	00251500 	eoreq	r1, r5, r0, lsl #10
    5c00:	0d000000 	stceq	0, cr0, [r0, #-0]
    5c04:	00011f04 	andeq	r1, r1, r4, lsl #30
    5c08:	72040d00 	andvc	r0, r4, #0, 26
    5c0c:	14000005 	strne	r0, [r0], #-5
    5c10:	0000008c 	andeq	r0, r0, ip, lsl #1
    5c14:	000005ba 			; <UNDEFINED> instruction: 0x000005ba
    5c18:	00042f15 	andeq	r2, r4, r5, lsl pc
    5c1c:	01101500 	tsteq	r0, r0, lsl #10
    5c20:	8c150000 	ldchi	0, cr0, [r5], {-0}
    5c24:	15000000 	strne	r0, [r0, #-0]
    5c28:	00000025 	andeq	r0, r0, r5, lsr #32
    5c2c:	9c040d00 	stcls	13, cr0, [r4], {-0}
    5c30:	14000005 	strne	r0, [r0], #-5
    5c34:	00000025 	andeq	r0, r0, r5, lsr #32
    5c38:	000005d4 	ldrdeq	r0, [r0], -r4
    5c3c:	00042f15 	andeq	r2, r4, r5, lsl pc
    5c40:	01101500 	tsteq	r0, r0, lsl #10
    5c44:	0d000000 	stceq	0, cr0, [r0, #-0]
    5c48:	0005c004 	andeq	ip, r5, r4
    5c4c:	00450800 	subeq	r0, r5, r0, lsl #16
    5c50:	05ea0000 	strbeq	r0, [sl, #0]!
    5c54:	d2090000 	andle	r0, r9, #0
    5c58:	02000000 	andeq	r0, r0, #0
    5c5c:	00450800 	subeq	r0, r5, r0, lsl #16
    5c60:	05fa0000 	ldrbeq	r0, [sl, #0]!
    5c64:	d2090000 	andle	r0, r9, #0
    5c68:	00000000 	andeq	r0, r0, r0
    5c6c:	03270500 			; <UNDEFINED> instruction: 0x03270500
    5c70:	1d050000 	stcne	0, cr0, [r5, #-0]
    5c74:	0002e701 	andeq	lr, r2, r1, lsl #14
    5c78:	04b01900 	ldrteq	r1, [r0], #2304	; 0x900
    5c7c:	050c0000 	streq	r0, [ip, #-0]
    5c80:	063b0121 	ldrteq	r0, [fp], -r1, lsr #2
    5c84:	4f170000 	svcmi	0x00170000
    5c88:	05000003 	streq	r0, [r0, #-3]
    5c8c:	063b0123 	ldrteq	r0, [fp], -r3, lsr #2
    5c90:	17000000 	strne	r0, [r0, -r0]
    5c94:	0000021e 	andeq	r0, r0, lr, lsl r2
    5c98:	25012405 	strcs	r2, [r1, #-1029]	; 0xfffffbfb
    5c9c:	04000000 	streq	r0, [r0], #-0
    5ca0:	00032117 	andeq	r2, r3, r7, lsl r1
    5ca4:	01250500 			; <UNDEFINED> instruction: 0x01250500
    5ca8:	00000641 	andeq	r0, r0, r1, asr #12
    5cac:	040d0008 	streq	r0, [sp], #-8
    5cb0:	00000606 	andeq	r0, r0, r6, lsl #12
    5cb4:	05fa040d 	ldrbeq	r0, [sl, #1037]!	; 0x40d
    5cb8:	21190000 	tstcs	r9, r0
    5cbc:	0e000000 	cdpeq	0, 0, cr0, cr0, cr0, {0}
    5cc0:	7c013d05 	stcvc	13, cr3, [r1], {5}
    5cc4:	17000006 	strne	r0, [r0, -r6]
    5cc8:	00000395 	muleq	r0, r5, r3
    5ccc:	7c013e05 	stcvc	14, cr3, [r1], {5}
    5cd0:	00000006 	andeq	r0, r0, r6
    5cd4:	0003c217 	andeq	ip, r3, r7, lsl r2
    5cd8:	013f0500 	teqeq	pc, r0, lsl #10
    5cdc:	0000067c 	andeq	r0, r0, ip, ror r6
    5ce0:	04401706 	strbeq	r1, [r0], #-1798	; 0xfffff8fa
    5ce4:	40050000 	andmi	r0, r5, r0
    5ce8:	00005301 	andeq	r5, r0, r1, lsl #6
    5cec:	08000c00 	stmdaeq	r0, {sl, fp}
    5cf0:	00000053 	andeq	r0, r0, r3, asr r0
    5cf4:	0000068c 	andeq	r0, r0, ip, lsl #13
    5cf8:	0000d209 	andeq	sp, r0, r9, lsl #4
    5cfc:	1a000200 	bne	6504 <_start-0x1afc>
    5d00:	025705d0 	subseq	r0, r7, #208, 10	; 0x34000000
    5d04:	0000078d 	andeq	r0, r0, sp, lsl #15
    5d08:	00049417 	andeq	r9, r4, r7, lsl r4
    5d0c:	02590500 	subseq	r0, r9, #0, 10
    5d10:	00000037 	andeq	r0, r0, r7, lsr r0
    5d14:	042a1700 	strteq	r1, [sl], #-1792	; 0xfffff900
    5d18:	5a050000 	bpl	145d20 <__bss_end__+0x13bcb0>
    5d1c:	00011202 	andeq	r1, r1, r2, lsl #4
    5d20:	4d170400 	cfldrsmi	mvf0, [r7, #-0]
    5d24:	05000002 	streq	r0, [r0, #-2]
    5d28:	078d025b 			; <UNDEFINED> instruction: 0x078d025b
    5d2c:	17080000 	strne	r0, [r8, -r0]
    5d30:	000004f4 	strdeq	r0, [r0], -r4
    5d34:	98025c05 	stmdals	r2, {r0, r2, sl, fp, ip, lr}
    5d38:	24000001 	strcs	r0, [r0], #-1
    5d3c:	0001bb17 	andeq	fp, r1, r7, lsl fp
    5d40:	025d0500 	subseq	r0, sp, #0, 10
    5d44:	00000025 	andeq	r0, r0, r5, lsr #32
    5d48:	034a1748 	movteq	r1, #42824	; 0xa748
    5d4c:	5e050000 	cdppl	0, 0, cr0, cr5, cr0, {0}
    5d50:	00006f02 	andeq	r6, r0, r2, lsl #30
    5d54:	0a175000 	beq	5d9d5c <__bss_end__+0x5cfcec>
    5d58:	05000005 	streq	r0, [r0, #-5]
    5d5c:	0647025f 			; <UNDEFINED> instruction: 0x0647025f
    5d60:	17580000 	ldrbne	r0, [r8, -r0]
    5d64:	00000355 	andeq	r0, r0, r5, asr r3
    5d68:	fa026005 	blx	9dd84 <__bss_end__+0x93d14>
    5d6c:	68000000 	stmdavs	r0, {}	; <UNPREDICTABLE>
    5d70:	00050f17 	andeq	r0, r5, r7, lsl pc
    5d74:	02610500 	rsbeq	r0, r1, #0, 10
    5d78:	000000fa 	strdeq	r0, [r0], -sl
    5d7c:	00931770 	addseq	r1, r3, r0, ror r7
    5d80:	62050000 	andvs	r0, r5, #0
    5d84:	0000fa02 	andeq	pc, r0, r2, lsl #20
    5d88:	bf177800 	svclt	0x00177800
    5d8c:	05000004 	streq	r0, [r0, #-4]
    5d90:	079d0263 	ldreq	r0, [sp, r3, ror #4]
    5d94:	17800000 	strne	r0, [r0, r0]
    5d98:	00000241 	andeq	r0, r0, r1, asr #4
    5d9c:	ad026405 	cfstrsge	mvf6, [r2, #-20]	; 0xffffffec
    5da0:	88000007 	stmdahi	r0, {r0, r1, r2}
    5da4:	00044d17 	andeq	r4, r4, r7, lsl sp
    5da8:	02650500 	rsbeq	r0, r5, #0, 10
    5dac:	00000025 	andeq	r0, r0, r5, lsr #32
    5db0:	018117a0 	orreq	r1, r1, r0, lsr #15
    5db4:	66050000 	strvs	r0, [r5], -r0
    5db8:	0000fa02 	andeq	pc, r0, r2, lsl #20
    5dbc:	8417a400 	ldrhi	sl, [r7], #-1024	; 0xfffffc00
    5dc0:	05000000 	streq	r0, [r0, #-0]
    5dc4:	00fa0267 	rscseq	r0, sl, r7, ror #4
    5dc8:	17ac0000 	strne	r0, [ip, r0]!
    5dcc:	00000170 	andeq	r0, r0, r0, ror r1
    5dd0:	fa026805 	blx	9fdec <__bss_end__+0x95d7c>
    5dd4:	b4000000 	strlt	r0, [r0], #-0
    5dd8:	00003c17 	andeq	r3, r0, r7, lsl ip
    5ddc:	02690500 	rsbeq	r0, r9, #0, 10
    5de0:	000000fa 	strdeq	r0, [r0], -sl
    5de4:	004b17bc 	strheq	r1, [fp], #-124	; 0xffffff84
    5de8:	6a050000 	bvs	145df0 <__bss_end__+0x13bd80>
    5dec:	0000fa02 	andeq	pc, r0, r2, lsl #20
    5df0:	fd17c400 	ldc2	4, cr12, [r7, #-0]
    5df4:	05000002 	streq	r0, [r0, #-2]
    5df8:	0025026b 	eoreq	r0, r5, fp, ror #4
    5dfc:	00cc0000 	sbceq	r0, ip, r0
    5e00:	00011808 	andeq	r1, r1, r8, lsl #16
    5e04:	00079d00 	andeq	r9, r7, r0, lsl #26
    5e08:	00d20900 	sbcseq	r0, r2, r0, lsl #18
    5e0c:	00190000 	andseq	r0, r9, r0
    5e10:	00011808 	andeq	r1, r1, r8, lsl #16
    5e14:	0007ad00 	andeq	sl, r7, r0, lsl #26
    5e18:	00d20900 	sbcseq	r0, r2, r0, lsl #18
    5e1c:	00070000 	andeq	r0, r7, r0
    5e20:	00011808 	andeq	r1, r1, r8, lsl #16
    5e24:	0007bd00 	andeq	fp, r7, r0, lsl #26
    5e28:	00d20900 	sbcseq	r0, r2, r0, lsl #18
    5e2c:	00170000 	andseq	r0, r7, r0
    5e30:	7005f01a 	andvc	pc, r5, sl, lsl r0	; <UNPREDICTABLE>
    5e34:	0007e102 	andeq	lr, r7, r2, lsl #2
    5e38:	02a41700 	adceq	r1, r4, #0, 14
    5e3c:	73050000 	movwvc	r0, #20480	; 0x5000
    5e40:	0007e102 	andeq	lr, r7, r2, lsl #2
    5e44:	b6170000 	ldrlt	r0, [r7], -r0
    5e48:	05000004 	streq	r0, [r0, #-4]
    5e4c:	07f10274 			; <UNDEFINED> instruction: 0x07f10274
    5e50:	00780000 	rsbseq	r0, r8, r0
    5e54:	0002e108 	andeq	lr, r2, r8, lsl #2
    5e58:	0007f100 	andeq	pc, r7, r0, lsl #2
    5e5c:	00d20900 	sbcseq	r0, r2, r0, lsl #18
    5e60:	001d0000 	andseq	r0, sp, r0
    5e64:	00003708 	andeq	r3, r0, r8, lsl #14
    5e68:	00080100 	andeq	r0, r8, r0, lsl #2
    5e6c:	00d20900 	sbcseq	r0, r2, r0, lsl #18
    5e70:	001d0000 	andseq	r0, sp, r0
    5e74:	5505f01b 	strpl	pc, [r5, #-27]	; 0xffffffe5
    5e78:	00082302 	andeq	r2, r8, r2, lsl #6
    5e7c:	038e1c00 	orreq	r1, lr, #0, 24
    5e80:	6c050000 	stcvs	0, cr0, [r5], {-0}
    5e84:	00068c02 	andeq	r8, r6, r2, lsl #24
    5e88:	04e11c00 	strbteq	r1, [r1], #3072	; 0xc00
    5e8c:	75050000 	strvc	r0, [r5, #-0]
    5e90:	0007bd02 	andeq	fp, r7, r2, lsl #26
    5e94:	18080000 	stmdane	r8, {}	; <UNPREDICTABLE>
    5e98:	33000001 	movwcc	r0, #1
    5e9c:	09000008 	stmdbeq	r0, {r3}
    5ea0:	000000d2 	ldrdeq	r0, [r0], -r2
    5ea4:	3e1d0018 	mrccc	0, 0, r0, cr13, cr8, {0}
    5ea8:	15000008 	strne	r0, [r0, #-8]
    5eac:	0000042f 	andeq	r0, r0, pc, lsr #8
    5eb0:	33040d00 	movwcc	r0, #19712	; 0x4d00
    5eb4:	0d000008 	stceq	0, cr0, [r0, #-32]	; 0xffffffe0
    5eb8:	00018204 	andeq	r8, r1, r4, lsl #4
    5ebc:	08551d00 	ldmdaeq	r5, {r8, sl, fp, ip}^
    5ec0:	25150000 	ldrcs	r0, [r5, #-0]
    5ec4:	00000000 	andeq	r0, r0, r0
    5ec8:	085b040d 	ldmdaeq	fp, {r0, r2, r3, sl}^
    5ecc:	040d0000 	streq	r0, [sp], #-0
    5ed0:	0000084a 	andeq	r0, r0, sl, asr #16
    5ed4:	0005fa08 	andeq	pc, r5, r8, lsl #20
    5ed8:	00087100 	andeq	r7, r8, r0, lsl #2
    5edc:	00d20900 	sbcseq	r0, r2, r0, lsl #18
    5ee0:	00020000 	andeq	r0, r2, r0
    5ee4:	00046f1e 	andeq	r6, r4, lr, lsl pc
    5ee8:	02fd0500 	rscseq	r0, sp, #0, 10
    5eec:	0000042f 	andeq	r0, r0, pc, lsr #8
    5ef0:	0004681e 	andeq	r6, r4, lr, lsl r8
    5ef4:	02fe0500 	rscseq	r0, lr, #0, 10
    5ef8:	00000435 	andeq	r0, r0, r5, lsr r4
    5efc:	00048d1f 	andeq	r8, r4, pc, lsl sp
    5f00:	10190600 	andsne	r0, r9, r0, lsl #12
    5f04:	78000001 	stmdavc	r0, {r0}
    5f08:	20000090 	mulcs	r0, r0, r0
    5f0c:	01000000 	mrseq	r0, (UNDEF: 0)
    5f10:	705f209c 			; <UNDEFINED> instruction: 0x705f209c
    5f14:	10030100 	andne	r0, r3, r0, lsl #2
    5f18:	01000001 	tsteq	r0, r1
    5f1c:	00632050 	rsbeq	r2, r3, r0, asr r0
    5f20:	00250301 	eoreq	r0, r5, r1, lsl #6
    5f24:	51010000 	mrspl	r0, (UNDEF: 1)
    5f28:	01006e21 	tsteq	r0, r1, lsr #28
    5f2c:	00002c03 	andeq	r2, r0, r3, lsl #24
    5f30:	000f5900 	andeq	r5, pc, r0, lsl #18
    5f34:	00702200 	rsbseq	r2, r0, r0, lsl #4
    5f38:	01120401 	tsteq	r2, r1, lsl #8
    5f3c:	0f7a0000 	svceq	0x007a0000
    5f40:	65230000 	strvs	r0, [r3, #-0]!
    5f44:	12040100 	andne	r0, r4, #0, 2
    5f48:	01000001 	tsteq	r0, r1
    5f4c:	36000052 			; <UNDEFINED> instruction: 0x36000052
    5f50:	04000009 	streq	r0, [r0], #-9
    5f54:	00118300 	andseq	r8, r1, r0, lsl #6
    5f58:	c8010400 	stmdagt	r1, {sl}
    5f5c:	0c000003 	stceq	0, cr0, [r0], {3}
    5f60:	000007c6 	andeq	r0, r0, r6, asr #15
    5f64:	000006de 	ldrdeq	r0, [r0], -lr
    5f68:	00009098 	muleq	r0, r8, r0
    5f6c:	00000034 	andeq	r0, r0, r4, lsr r0
    5f70:	00000a08 	andeq	r0, r0, r8, lsl #20
    5f74:	69050402 	stmdbvs	r5, {r1, sl}
    5f78:	0300746e 	movweq	r7, #1134	; 0x46e
    5f7c:	00660704 	rsbeq	r0, r6, r4, lsl #14
    5f80:	01030000 	mrseq	r0, (UNDEF: 3)
    5f84:	0002ec06 	andeq	lr, r2, r6, lsl #24
    5f88:	05020300 	streq	r0, [r2, #-768]	; 0xfffffd00
    5f8c:	00000306 	andeq	r0, r0, r6, lsl #6
    5f90:	af050403 	svcge	0x00050403
    5f94:	03000000 	movweq	r0, #0
    5f98:	00aa0508 	adceq	r0, sl, r8, lsl #10
    5f9c:	01030000 	mrseq	r0, (UNDEF: 3)
    5fa0:	0002ea08 	andeq	lr, r2, r8, lsl #20
    5fa4:	07020300 	streq	r0, [r2, -r0, lsl #6]
    5fa8:	00000225 	andeq	r0, r0, r5, lsr #4
    5fac:	61070403 	tstvs	r7, r3, lsl #8
    5fb0:	03000000 	movweq	r0, #0
    5fb4:	005c0708 	subseq	r0, ip, r8, lsl #14
    5fb8:	d8040000 	stmdale	r4, {}	; <UNPREDICTABLE>
    5fbc:	02000002 	andeq	r0, r0, #2
    5fc0:	00002507 	andeq	r2, r0, r7, lsl #10
    5fc4:	02c70400 	sbceq	r0, r7, #0, 8
    5fc8:	2c030000 	stccs	0, cr0, [r3], {-0}
    5fcc:	00000041 	andeq	r0, r0, r1, asr #32
    5fd0:	0003b104 	andeq	fp, r3, r4, lsl #2
    5fd4:	41720300 	cmnmi	r2, r0, lsl #6
    5fd8:	05000000 	streq	r0, [r0, #-0]
    5fdc:	00000268 	andeq	r0, r0, r8, ror #4
    5fe0:	2c016504 	cfstr32cs	mvfx6, [r1], {4}
    5fe4:	06000000 	streq	r0, [r0], -r0
    5fe8:	b7a60304 	strlt	r0, [r6, r4, lsl #6]!
    5fec:	07000000 	streq	r0, [r0, -r0]
    5ff0:	00000262 	andeq	r0, r0, r2, ror #4
    5ff4:	008ca803 	addeq	sl, ip, r3, lsl #16
    5ff8:	e5070000 	str	r0, [r7, #-0]
    5ffc:	03000001 	movweq	r0, #1
    6000:	0000b7a9 	andeq	fp, r0, r9, lsr #15
    6004:	4f080000 	svcmi	0x00080000
    6008:	c7000000 	strgt	r0, [r0, -r0]
    600c:	09000000 	stmdbeq	r0, {}	; <UNPREDICTABLE>
    6010:	000000c7 	andeq	r0, r0, r7, asr #1
    6014:	04030003 	streq	r0, [r3], #-3
    6018:	00029b07 	andeq	r9, r2, r7, lsl #22
    601c:	03080a00 	movweq	r0, #35328	; 0x8a00
    6020:	0000efa3 	andeq	lr, r0, r3, lsr #31
    6024:	039b0b00 	orrseq	r0, fp, #0, 22
    6028:	a5030000 	strge	r0, [r3, #-0]
    602c:	00000025 	andeq	r0, r0, r5, lsr #32
    6030:	03a30b00 			; <UNDEFINED> instruction: 0x03a30b00
    6034:	aa030000 	bge	c603c <__bss_end__+0xbbfcc>
    6038:	00000098 	muleq	r0, r8, r0
    603c:	2e040004 	cdpcs	0, 0, cr0, cr4, cr4, {0}
    6040:	03000003 	movweq	r0, #3
    6044:	0000ceab 	andeq	ip, r0, fp, lsr #29
    6048:	01a20400 			; <UNDEFINED> instruction: 0x01a20400
    604c:	af030000 	svcge	0x00030000
    6050:	0000006b 	andeq	r0, r0, fp, rrx
    6054:	040d040c 	streq	r0, [sp], #-1036	; 0xfffffbf4
    6058:	0000010d 	andeq	r0, r0, sp, lsl #2
    605c:	f3080103 	vrhadd.u8	d0, d8, d3
    6060:	0e000002 	cdpeq	0, 0, cr0, cr0, cr2, {0}
    6064:	0000010d 	andeq	r0, r0, sp, lsl #2
    6068:	00044504 	andeq	r4, r4, r4, lsl #10
    606c:	5d160500 	cfldr32pl	mvfx0, [r6, #-0]
    6070:	0f000000 	svceq	0x00000000
    6074:	000001b3 			; <UNDEFINED> instruction: 0x000001b3
    6078:	772d0518 			; <UNDEFINED> instruction: 0x772d0518
    607c:	0b000001 	bleq	6088 <_start-0x1f78>
    6080:	0000034f 	andeq	r0, r0, pc, asr #6
    6084:	01772f05 	cmneq	r7, r5, lsl #30
    6088:	10000000 	andne	r0, r0, r0
    608c:	05006b5f 	streq	r6, [r0, #-2911]	; 0xfffff4a1
    6090:	00002530 	andeq	r2, r0, r0, lsr r5
    6094:	860b0400 	strhi	r0, [fp], -r0, lsl #8
    6098:	05000003 	streq	r0, [r0, #-3]
    609c:	00002530 	andeq	r2, r0, r0, lsr r5
    60a0:	9c0b0800 	stcls	8, cr0, [fp], {-0}
    60a4:	05000001 	streq	r0, [r0, #-1]
    60a8:	00002530 	andeq	r2, r0, r0, lsr r5
    60ac:	a10b0c00 	tstge	fp, r0, lsl #24
    60b0:	05000004 	streq	r0, [r0, #-4]
    60b4:	00002530 	andeq	r2, r0, r0, lsr r5
    60b8:	5f101000 	svcpl	0x00101000
    60bc:	31050078 	tstcc	r5, r8, ror r0
    60c0:	0000017d 	andeq	r0, r0, sp, ror r1
    60c4:	040d0014 	streq	r0, [sp], #-20	; 0xffffffec
    60c8:	00000124 	andeq	r0, r0, r4, lsr #2
    60cc:	00011908 	andeq	r1, r1, r8, lsl #18
    60d0:	00018d00 	andeq	r8, r1, r0, lsl #26
    60d4:	00c70900 	sbceq	r0, r7, r0, lsl #18
    60d8:	00000000 	andeq	r0, r0, r0
    60dc:	0001e00f 	andeq	lr, r1, pc
    60e0:	35052400 	strcc	r2, [r5, #-1024]	; 0xfffffc00
    60e4:	00000206 	andeq	r0, r0, r6, lsl #4
    60e8:	0000a10b 	andeq	sl, r0, fp, lsl #2
    60ec:	25370500 	ldrcs	r0, [r7, #-1280]!	; 0xfffffb00
    60f0:	00000000 	andeq	r0, r0, r0
    60f4:	0003b90b 	andeq	fp, r3, fp, lsl #18
    60f8:	25380500 	ldrcs	r0, [r8, #-1280]!	; 0xfffffb00
    60fc:	04000000 	streq	r0, [r0], #-0
    6100:	0000c40b 	andeq	ip, r0, fp, lsl #8
    6104:	25390500 	ldrcs	r0, [r9, #-1280]!	; 0xfffffb00
    6108:	08000000 	stmdaeq	r0, {}	; <UNPREDICTABLE>
    610c:	0005220b 	andeq	r2, r5, fp, lsl #4
    6110:	253a0500 	ldrcs	r0, [sl, #-1280]!	; 0xfffffb00
    6114:	0c000000 	stceq	0, cr0, [r0], {-0}
    6118:	0002ab0b 	andeq	sl, r2, fp, lsl #22
    611c:	253b0500 	ldrcs	r0, [fp, #-1280]!	; 0xfffffb00
    6120:	10000000 	andne	r0, r0, r0
    6124:	0002840b 	andeq	r8, r2, fp, lsl #8
    6128:	253c0500 	ldrcs	r0, [ip, #-1280]!	; 0xfffffb00
    612c:	14000000 	strne	r0, [r0], #-0
    6130:	0004a60b 	andeq	sl, r4, fp, lsl #12
    6134:	253d0500 	ldrcs	r0, [sp, #-1280]!	; 0xfffffb00
    6138:	18000000 	stmdane	r0, {}	; <UNPREDICTABLE>
    613c:	0003100b 	andeq	r1, r3, fp
    6140:	253e0500 	ldrcs	r0, [lr, #-1280]!	; 0xfffffb00
    6144:	1c000000 	stcne	0, cr0, [r0], {-0}
    6148:	0004e90b 	andeq	lr, r4, fp, lsl #18
    614c:	253f0500 	ldrcs	r0, [pc, #-1280]!	; 5c54 <_start-0x23ac>
    6150:	20000000 	andcs	r0, r0, r0
    6154:	01041100 	mrseq	r1, (UNDEF: 20)
    6158:	01080000 	mrseq	r0, (UNDEF: 8)
    615c:	02464805 	subeq	r4, r6, #327680	; 0x50000
    6160:	8f0b0000 	svchi	0x000b0000
    6164:	05000001 	streq	r0, [r0, #-1]
    6168:	00024649 	andeq	r4, r2, r9, asr #12
    616c:	000b0000 	andeq	r0, fp, r0
    6170:	05000000 	streq	r0, [r0, #-0]
    6174:	0002464a 	andeq	r4, r2, sl, asr #12
    6178:	37128000 	ldrcc	r8, [r2, -r0]
    617c:	05000004 	streq	r0, [r0, #-4]
    6180:	0001194c 	andeq	r1, r1, ip, asr #18
    6184:	12010000 	andne	r0, r1, #0
    6188:	00000129 	andeq	r0, r0, r9, lsr #2
    618c:	01194f05 	tsteq	r9, r5, lsl #30
    6190:	01040000 	mrseq	r0, (UNDEF: 4)
    6194:	01050800 	tsteq	r5, r0, lsl #16
    6198:	02560000 	subseq	r0, r6, #0
    619c:	c7090000 	strgt	r0, [r9, -r0]
    61a0:	1f000000 	svcne	0x00000000
    61a4:	02b41100 	adcseq	r1, r4, #0, 2
    61a8:	01900000 	orrseq	r0, r0, r0
    61ac:	02945b05 	addseq	r5, r4, #5120	; 0x1400
    61b0:	4f0b0000 	svcmi	0x000b0000
    61b4:	05000003 	streq	r0, [r0, #-3]
    61b8:	0002945c 	andeq	r9, r2, ip, asr r4
    61bc:	670b0000 	strvs	r0, [fp, -r0]
    61c0:	05000003 	streq	r0, [r0, #-3]
    61c4:	0000255d 	andeq	r2, r0, sp, asr r5
    61c8:	970b0400 	strls	r0, [fp, -r0, lsl #8]
    61cc:	05000001 	streq	r0, [r0, #-1]
    61d0:	00029a5f 	andeq	r9, r2, pc, asr sl
    61d4:	040b0800 	streq	r0, [fp], #-2048	; 0xfffff800
    61d8:	05000001 	streq	r0, [r0, #-1]
    61dc:	00020660 	andeq	r0, r2, r0, ror #12
    61e0:	0d008800 	stceq	8, cr8, [r0, #-0]
    61e4:	00025604 	andeq	r5, r2, r4, lsl #12
    61e8:	02aa0800 	adceq	r0, sl, #0, 16
    61ec:	02aa0000 	adceq	r0, sl, #0
    61f0:	c7090000 	strgt	r0, [r9, -r0]
    61f4:	1f000000 	svcne	0x00000000
    61f8:	b0040d00 	andlt	r0, r4, r0, lsl #26
    61fc:	13000002 	movwne	r0, #2
    6200:	00031a0f 	andeq	r1, r3, pc, lsl #20
    6204:	73050800 	movwvc	r0, #22528	; 0x5800
    6208:	000002d6 	ldrdeq	r0, [r0], -r6
    620c:	0000be0b 	andeq	fp, r0, fp, lsl #28
    6210:	d6740500 	ldrbtle	r0, [r4], -r0, lsl #10
    6214:	00000002 	andeq	r0, r0, r2
    6218:	00001b0b 	andeq	r1, r0, fp, lsl #22
    621c:	25750500 	ldrbcs	r0, [r5, #-1280]!	; 0xfffffb00
    6220:	04000000 	streq	r0, [r0], #-0
    6224:	4f040d00 	svcmi	0x00040d00
    6228:	0f000000 	svceq	0x00000000
    622c:	00000339 	andeq	r0, r0, r9, lsr r3
    6230:	06b30568 	ldrteq	r0, [r3], r8, ror #10
    6234:	10000004 	andne	r0, r0, r4
    6238:	0500705f 	streq	r7, [r0, #-95]	; 0xffffffa1
    623c:	0002d6b4 			; <UNDEFINED> instruction: 0x0002d6b4
    6240:	5f100000 	svcpl	0x00100000
    6244:	b5050072 	strlt	r0, [r5, #-114]	; 0xffffff8e
    6248:	00000025 	andeq	r0, r0, r5, lsr #32
    624c:	775f1004 	ldrbvc	r1, [pc, -r4]
    6250:	25b60500 	ldrcs	r0, [r6, #1280]!	; 0x500
    6254:	08000000 	stmdaeq	r0, {}	; <UNPREDICTABLE>
    6258:	0001220b 	andeq	r2, r1, fp, lsl #4
    625c:	3ab70500 	bcc	fedc7664 <__bss_end__+0xfedbd5f4>
    6260:	0c000000 	stceq	0, cr0, [r0], {-0}
    6264:	00020b0b 	andeq	r0, r2, fp, lsl #22
    6268:	3ab80500 	bcc	fee07670 <__bss_end__+0xfedfd600>
    626c:	0e000000 	cdpeq	0, 0, cr0, cr0, cr0, {0}
    6270:	66625f10 	uqadd16vs	r5, r2, r0
    6274:	b1b90500 			; <UNDEFINED> instruction: 0xb1b90500
    6278:	10000002 	andne	r0, r0, r2
    627c:	00007b0b 	andeq	r7, r0, fp, lsl #22
    6280:	25ba0500 	ldrcs	r0, [sl, #1280]!	; 0x500
    6284:	18000000 	stmdane	r0, {}	; <UNPREDICTABLE>
    6288:	0001120b 	andeq	r1, r1, fp, lsl #4
    628c:	05c10500 	strbeq	r0, [r1, #1280]	; 0x500
    6290:	1c000001 	stcne	0, cr0, [r0], {1}
    6294:	000a780b 	andeq	r7, sl, fp, lsl #16
    6298:	61c30500 	bicvs	r0, r3, r0, lsl #10
    629c:	20000005 	andcs	r0, r0, r5
    62a0:	00060c0b 	andeq	r0, r6, fp, lsl #24
    62a4:	8bc50500 	blhi	ff1476ac <__bss_end__+0xff13d63c>
    62a8:	24000005 	strcs	r0, [r0], #-5
    62ac:	0003ab0b 	andeq	sl, r3, fp, lsl #22
    62b0:	afc80500 	svcge	0x00c80500
    62b4:	28000005 	stmdacs	r0, {r0, r2}
    62b8:	0005030b 	andeq	r0, r5, fp, lsl #6
    62bc:	c9c90500 	stmibgt	r9, {r8, sl}^
    62c0:	2c000005 	stccs	0, cr0, [r0], {5}
    62c4:	62755f10 	rsbsvs	r5, r5, #16, 30	; 0x40
    62c8:	b1cc0500 	biclt	r0, ip, r0, lsl #10
    62cc:	30000002 	andcc	r0, r0, r2
    62d0:	70755f10 	rsbsvc	r5, r5, r0, lsl pc
    62d4:	d6cd0500 	strble	r0, [sp], r0, lsl #10
    62d8:	38000002 	stmdacc	r0, {r1}
    62dc:	72755f10 	rsbsvc	r5, r5, #16, 30	; 0x40
    62e0:	25ce0500 	strbcs	r0, [lr, #1280]	; 0x500
    62e4:	3c000000 	stccc	0, cr0, [r0], {-0}
    62e8:	0000b80b 	andeq	fp, r0, fp, lsl #16
    62ec:	cfd10500 	svcgt	0x00d10500
    62f0:	40000005 	andmi	r0, r0, r5
    62f4:	0004db0b 	andeq	sp, r4, fp, lsl #22
    62f8:	dfd20500 	svcle	0x00d20500
    62fc:	43000005 	movwmi	r0, #5
    6300:	626c5f10 	rsbvs	r5, ip, #16, 30	; 0x40
    6304:	b1d50500 	bicslt	r0, r5, r0, lsl #10
    6308:	44000002 	strmi	r0, [r0], #-2
    630c:	0001400b 	andeq	r4, r1, fp
    6310:	25d80500 	ldrbcs	r0, [r8, #1280]	; 0x500
    6314:	4c000000 	stcmi	0, cr0, [r0], {-0}
    6318:	0001510b 	andeq	r5, r1, fp, lsl #2
    631c:	76d90500 	ldrbvc	r0, [r9], r0, lsl #10
    6320:	50000000 	andpl	r0, r0, r0
    6324:	000a190b 	andeq	r1, sl, fp, lsl #18
    6328:	24dc0500 	ldrbcs	r0, [ip], #1280	; 0x500
    632c:	54000004 	strpl	r0, [r0], #-4
    6330:	0002760b 	andeq	r7, r2, fp, lsl #12
    6334:	fae00500 	blx	ff80773c <__bss_end__+0xff7fd6cc>
    6338:	58000000 	stmdapl	r0, {}	; <UNPREDICTABLE>
    633c:	0003410b 	andeq	r4, r3, fp, lsl #2
    6340:	efe20500 	svc	0x00e20500
    6344:	5c000000 	stcpl	0, cr0, [r0], {-0}
    6348:	00027c0b 	andeq	r7, r2, fp, lsl #24
    634c:	25e30500 	strbcs	r0, [r3, #1280]!	; 0x500
    6350:	64000000 	strvs	r0, [r0], #-0
    6354:	00251400 	eoreq	r1, r5, r0, lsl #8
    6358:	04240000 	strteq	r0, [r4], #-0
    635c:	24150000 	ldrcs	r0, [r5], #-0
    6360:	15000004 	strne	r0, [r0, #-4]
    6364:	00000105 	andeq	r0, r0, r5, lsl #2
    6368:	00010715 	andeq	r0, r1, r5, lsl r7
    636c:	00251500 	eoreq	r1, r5, r0, lsl #10
    6370:	0d000000 	stceq	0, cr0, [r0, #-0]
    6374:	00042f04 	andeq	r2, r4, r4, lsl #30
    6378:	04240e00 	strteq	r0, [r4], #-3584	; 0xfffff200
    637c:	8e160000 	cdphi	0, 1, cr0, cr6, cr0, {0}
    6380:	28000003 	stmdacs	r0, {r0, r1}
    6384:	02380504 	eorseq	r0, r8, #4, 10	; 0x1000000
    6388:	00000561 	andeq	r0, r0, r1, ror #10
    638c:	0002ff17 	andeq	pc, r2, r7, lsl pc	; <UNPREDICTABLE>
    6390:	023a0500 	eorseq	r0, sl, #0, 10
    6394:	00000025 	andeq	r0, r0, r5, lsr #32
    6398:	01311700 	teqeq	r1, r0, lsl #14
    639c:	3f050000 	svccc	0x00050000
    63a0:	00063602 	andeq	r3, r6, r2, lsl #12
    63a4:	fb170400 	blx	5c73ae <__bss_end__+0x5bd33e>
    63a8:	05000001 	streq	r0, [r0, #-1]
    63ac:	0636023f 			; <UNDEFINED> instruction: 0x0636023f
    63b0:	17080000 	strne	r0, [r8, -r0]
    63b4:	000001ab 	andeq	r0, r0, fp, lsr #3
    63b8:	36023f05 	strcc	r3, [r2], -r5, lsl #30
    63bc:	0c000006 	stceq	0, cr0, [r0], {6}
    63c0:	00036217 	andeq	r6, r3, r7, lsl r2
    63c4:	02410500 	subeq	r0, r1, #0, 10
    63c8:	00000025 	andeq	r0, r0, r5, lsr #32
    63cc:	00291710 	eoreq	r1, r9, r0, lsl r7
    63d0:	42050000 	andmi	r0, r5, #0
    63d4:	00081802 	andeq	r1, r8, r2, lsl #16
    63d8:	7b171400 	blvc	5cb3e0 <__bss_end__+0x5c1370>
    63dc:	05000004 	streq	r0, [r0, #-4]
    63e0:	00250244 	eoreq	r0, r5, r4, asr #4
    63e4:	17300000 	ldrne	r0, [r0, -r0]!
    63e8:	0000036c 	andeq	r0, r0, ip, ror #6
    63ec:	85024505 	strhi	r4, [r2, #-1285]	; 0xfffffafb
    63f0:	34000005 	strcc	r0, [r0], #-5
    63f4:	0002bc17 	andeq	fp, r2, r7, lsl ip
    63f8:	02470500 	subeq	r0, r7, #0, 10
    63fc:	00000025 	andeq	r0, r0, r5, lsr #32
    6400:	037c1738 	cmneq	ip, #56, 14	; 0xe00000
    6404:	49050000 	stmdbmi	r5, {}	; <UNPREDICTABLE>
    6408:	00083302 	andeq	r3, r8, r2, lsl #6
    640c:	5a173c00 	bpl	5d5414 <__bss_end__+0x5cb3a4>
    6410:	05000002 	streq	r0, [r0, #-2]
    6414:	0177024c 	cmneq	r7, ip, asr #4
    6418:	17400000 	strbne	r0, [r0, -r0]
    641c:	000001ca 	andeq	r0, r0, sl, asr #3
    6420:	25024d05 	strcs	r4, [r2, #-3333]	; 0xfffff2fb
    6424:	44000000 	strmi	r0, [r0], #-0
    6428:	00051d17 	andeq	r1, r5, r7, lsl sp
    642c:	024e0500 	subeq	r0, lr, #0, 10
    6430:	00000177 	andeq	r0, r0, r7, ror r1
    6434:	02ce1748 	sbceq	r1, lr, #72, 14	; 0x1200000
    6438:	4f050000 	svcmi	0x00050000
    643c:	00083902 	andeq	r3, r8, r2, lsl #18
    6440:	03174c00 	tsteq	r7, #0, 24
    6444:	05000002 	streq	r0, [r0, #-2]
    6448:	00250252 	eoreq	r0, r5, r2, asr r2
    644c:	17500000 	ldrbne	r0, [r0, -r0]
    6450:	00000149 	andeq	r0, r0, r9, asr #2
    6454:	07025305 	streq	r5, [r2, -r5, lsl #6]
    6458:	54000001 	strpl	r0, [r0], #-1
    645c:	0002f817 	andeq	pc, r2, r7, lsl r8	; <UNPREDICTABLE>
    6460:	02760500 	rsbseq	r0, r6, #0, 10
    6464:	000007f6 	strdeq	r0, [r0], -r6
    6468:	02b41858 	adcseq	r1, r4, #88, 16	; 0x580000
    646c:	7a050000 	bvc	146474 <__bss_end__+0x13c404>
    6470:	00029402 	andeq	r9, r2, r2, lsl #8
    6474:	18014800 	stmdane	r1, {fp, lr}
    6478:	00000238 	andeq	r0, r0, r8, lsr r2
    647c:	56027b05 	strpl	r7, [r2], -r5, lsl #22
    6480:	4c000002 	stcmi	0, cr0, [r0], {2}
    6484:	04c91801 	strbeq	r1, [r9], #2049	; 0x801
    6488:	7f050000 	svcvc	0x00050000
    648c:	00084a02 	andeq	r4, r8, r2, lsl #20
    6490:	1802dc00 	stmdane	r2, {sl, fp, ip, lr, pc}
    6494:	0000011a 	andeq	r0, r0, sl, lsl r1
    6498:	fb028405 	blx	a74b6 <__bss_end__+0x9d446>
    649c:	e0000005 	and	r0, r0, r5
    64a0:	00ff1802 	rscseq	r1, pc, r2, lsl #16
    64a4:	85050000 	strhi	r0, [r5, #-0]
    64a8:	00085602 	andeq	r5, r8, r2, lsl #12
    64ac:	0002ec00 	andeq	lr, r2, r0, lsl #24
    64b0:	0406040d 	streq	r0, [r6], #-1037	; 0xfffffbf3
    64b4:	25140000 	ldrcs	r0, [r4, #-0]
    64b8:	85000000 	strhi	r0, [r0, #-0]
    64bc:	15000005 	strne	r0, [r0, #-5]
    64c0:	00000424 	andeq	r0, r0, r4, lsr #8
    64c4:	00010515 	andeq	r0, r1, r5, lsl r5
    64c8:	05851500 	streq	r1, [r5, #1280]	; 0x500
    64cc:	25150000 	ldrcs	r0, [r5, #-0]
    64d0:	00000000 	andeq	r0, r0, r0
    64d4:	0114040d 	tsteq	r4, sp, lsl #8
    64d8:	040d0000 	streq	r0, [sp], #-0
    64dc:	00000567 	andeq	r0, r0, r7, ror #10
    64e0:	00008114 	andeq	r8, r0, r4, lsl r1
    64e4:	0005af00 	andeq	sl, r5, r0, lsl #30
    64e8:	04241500 	strteq	r1, [r4], #-1280	; 0xfffffb00
    64ec:	05150000 	ldreq	r0, [r5, #-0]
    64f0:	15000001 	strne	r0, [r0, #-1]
    64f4:	00000081 	andeq	r0, r0, r1, lsl #1
    64f8:	00002515 	andeq	r2, r0, r5, lsl r5
    64fc:	040d0000 	streq	r0, [sp], #-0
    6500:	00000591 	muleq	r0, r1, r5
    6504:	00002514 	andeq	r2, r0, r4, lsl r5
    6508:	0005c900 	andeq	ip, r5, r0, lsl #18
    650c:	04241500 	strteq	r1, [r4], #-1280	; 0xfffffb00
    6510:	05150000 	ldreq	r0, [r5, #-0]
    6514:	00000001 	andeq	r0, r0, r1
    6518:	05b5040d 	ldreq	r0, [r5, #1037]!	; 0x40d
    651c:	4f080000 	svcmi	0x00080000
    6520:	df000000 	svcle	0x00000000
    6524:	09000005 	stmdbeq	r0, {r0, r2}
    6528:	000000c7 	andeq	r0, r0, r7, asr #1
    652c:	4f080002 	svcmi	0x00080002
    6530:	ef000000 	svc	0x00000000
    6534:	09000005 	stmdbeq	r0, {r0, r2}
    6538:	000000c7 	andeq	r0, r0, r7, asr #1
    653c:	27050000 	strcs	r0, [r5, -r0]
    6540:	05000003 	streq	r0, [r0, #-3]
    6544:	02dc011d 	sbcseq	r0, ip, #1073741831	; 0x40000007
    6548:	b0190000 	andslt	r0, r9, r0
    654c:	0c000004 	stceq	0, cr0, [r0], {4}
    6550:	30012105 	andcc	r2, r1, r5, lsl #2
    6554:	17000006 	strne	r0, [r0, -r6]
    6558:	0000034f 	andeq	r0, r0, pc, asr #6
    655c:	30012305 	andcc	r2, r1, r5, lsl #6
    6560:	00000006 	andeq	r0, r0, r6
    6564:	00021e17 	andeq	r1, r2, r7, lsl lr
    6568:	01240500 			; <UNDEFINED> instruction: 0x01240500
    656c:	00000025 	andeq	r0, r0, r5, lsr #32
    6570:	03211704 			; <UNDEFINED> instruction: 0x03211704
    6574:	25050000 	strcs	r0, [r5, #-0]
    6578:	00063601 	andeq	r3, r6, r1, lsl #12
    657c:	0d000800 	stceq	8, cr0, [r0, #-0]
    6580:	0005fb04 	andeq	pc, r5, r4, lsl #22
    6584:	ef040d00 	svc	0x00040d00
    6588:	19000005 	stmdbne	r0, {r0, r2}
    658c:	00000021 	andeq	r0, r0, r1, lsr #32
    6590:	013d050e 	teqeq	sp, lr, lsl #10
    6594:	00000671 	andeq	r0, r0, r1, ror r6
    6598:	00039517 	andeq	r9, r3, r7, lsl r5
    659c:	013e0500 	teqeq	lr, r0, lsl #10
    65a0:	00000671 	andeq	r0, r0, r1, ror r6
    65a4:	03c21700 	biceq	r1, r2, #0, 14
    65a8:	3f050000 	svccc	0x00050000
    65ac:	00067101 	andeq	r7, r6, r1, lsl #2
    65b0:	40170600 	andsmi	r0, r7, r0, lsl #12
    65b4:	05000004 	streq	r0, [r0, #-4]
    65b8:	00560140 	subseq	r0, r6, r0, asr #2
    65bc:	000c0000 	andeq	r0, ip, r0
    65c0:	00005608 	andeq	r5, r0, r8, lsl #12
    65c4:	00068100 	andeq	r8, r6, r0, lsl #2
    65c8:	00c70900 	sbceq	r0, r7, r0, lsl #18
    65cc:	00020000 	andeq	r0, r2, r0
    65d0:	5705d01a 	smladpl	r5, sl, r0, sp
    65d4:	00078202 	andeq	r8, r7, r2, lsl #4
    65d8:	04941700 	ldreq	r1, [r4], #1792	; 0x700
    65dc:	59050000 	stmdbpl	r5, {}	; <UNPREDICTABLE>
    65e0:	00002c02 	andeq	r2, r0, r2, lsl #24
    65e4:	2a170000 	bcs	5c65ec <__bss_end__+0x5bc57c>
    65e8:	05000004 	streq	r0, [r0, #-4]
    65ec:	0107025a 	tsteq	r7, sl, asr r2
    65f0:	17040000 	strne	r0, [r4, -r0]
    65f4:	0000024d 	andeq	r0, r0, sp, asr #4
    65f8:	82025b05 	andhi	r5, r2, #5120	; 0x1400
    65fc:	08000007 	stmdaeq	r0, {r0, r1, r2}
    6600:	0004f417 	andeq	pc, r4, r7, lsl r4	; <UNPREDICTABLE>
    6604:	025c0500 	subseq	r0, ip, #0, 10
    6608:	0000018d 	andeq	r0, r0, sp, lsl #3
    660c:	01bb1724 			; <UNDEFINED> instruction: 0x01bb1724
    6610:	5d050000 	stcpl	0, cr0, [r5, #-0]
    6614:	00002502 	andeq	r2, r0, r2, lsl #10
    6618:	4a174800 	bmi	5d8620 <__bss_end__+0x5ce5b0>
    661c:	05000003 	streq	r0, [r0, #-3]
    6620:	0064025e 	rsbeq	r0, r4, lr, asr r2
    6624:	17500000 	ldrbne	r0, [r0, -r0]
    6628:	0000050a 	andeq	r0, r0, sl, lsl #10
    662c:	3c025f05 	stccc	15, cr5, [r2], {5}
    6630:	58000006 	stmdapl	r0, {r1, r2}
    6634:	00035517 	andeq	r5, r3, r7, lsl r5
    6638:	02600500 	rsbeq	r0, r0, #0, 10
    663c:	000000ef 	andeq	r0, r0, pc, ror #1
    6640:	050f1768 	streq	r1, [pc, #-1896]	; 5ee0 <_start-0x2120>
    6644:	61050000 	mrsvs	r0, (UNDEF: 5)
    6648:	0000ef02 	andeq	lr, r0, r2, lsl #30
    664c:	93177000 	tstls	r7, #0
    6650:	05000000 	streq	r0, [r0, #-0]
    6654:	00ef0262 	rsceq	r0, pc, r2, ror #4
    6658:	17780000 	ldrbne	r0, [r8, -r0]!
    665c:	000004bf 			; <UNDEFINED> instruction: 0x000004bf
    6660:	92026305 	andls	r6, r2, #335544320	; 0x14000000
    6664:	80000007 	andhi	r0, r0, r7
    6668:	00024117 	andeq	r4, r2, r7, lsl r1
    666c:	02640500 	rsbeq	r0, r4, #0, 10
    6670:	000007a2 	andeq	r0, r0, r2, lsr #15
    6674:	044d1788 	strbeq	r1, [sp], #-1928	; 0xfffff878
    6678:	65050000 	strvs	r0, [r5, #-0]
    667c:	00002502 	andeq	r2, r0, r2, lsl #10
    6680:	8117a000 	tsthi	r7, r0
    6684:	05000001 	streq	r0, [r0, #-1]
    6688:	00ef0266 	rsceq	r0, pc, r6, ror #4
    668c:	17a40000 	strne	r0, [r4, r0]!
    6690:	00000084 	andeq	r0, r0, r4, lsl #1
    6694:	ef026705 	svc	0x00026705
    6698:	ac000000 	stcge	0, cr0, [r0], {-0}
    669c:	00017017 	andeq	r7, r1, r7, lsl r0
    66a0:	02680500 	rsbeq	r0, r8, #0, 10
    66a4:	000000ef 	andeq	r0, r0, pc, ror #1
    66a8:	003c17b4 	ldrhteq	r1, [ip], -r4
    66ac:	69050000 	stmdbvs	r5, {}	; <UNPREDICTABLE>
    66b0:	0000ef02 	andeq	lr, r0, r2, lsl #30
    66b4:	4b17bc00 	blmi	5f56bc <__bss_end__+0x5eb64c>
    66b8:	05000000 	streq	r0, [r0, #-0]
    66bc:	00ef026a 	rsceq	r0, pc, sl, ror #4
    66c0:	17c40000 	strbne	r0, [r4, r0]
    66c4:	000002fd 	strdeq	r0, [r0], -sp
    66c8:	25026b05 	strcs	r6, [r2, #-2821]	; 0xfffff4fb
    66cc:	cc000000 	stcgt	0, cr0, [r0], {-0}
    66d0:	010d0800 	tsteq	sp, r0, lsl #16
    66d4:	07920000 	ldreq	r0, [r2, r0]
    66d8:	c7090000 	strgt	r0, [r9, -r0]
    66dc:	19000000 	stmdbne	r0, {}	; <UNPREDICTABLE>
    66e0:	010d0800 	tsteq	sp, r0, lsl #16
    66e4:	07a20000 	streq	r0, [r2, r0]!
    66e8:	c7090000 	strgt	r0, [r9, -r0]
    66ec:	07000000 	streq	r0, [r0, -r0]
    66f0:	010d0800 	tsteq	sp, r0, lsl #16
    66f4:	07b20000 	ldreq	r0, [r2, r0]!
    66f8:	c7090000 	strgt	r0, [r9, -r0]
    66fc:	17000000 	strne	r0, [r0, -r0]
    6700:	05f01a00 	ldrbeq	r1, [r0, #2560]!	; 0xa00
    6704:	07d60270 			; <UNDEFINED> instruction: 0x07d60270
    6708:	a4170000 	ldrge	r0, [r7], #-0
    670c:	05000002 	streq	r0, [r0, #-2]
    6710:	07d60273 			; <UNDEFINED> instruction: 0x07d60273
    6714:	17000000 	strne	r0, [r0, -r0]
    6718:	000004b6 			; <UNDEFINED> instruction: 0x000004b6
    671c:	e6027405 	str	r7, [r2], -r5, lsl #8
    6720:	78000007 	stmdavc	r0, {r0, r1, r2}
    6724:	02d60800 	sbcseq	r0, r6, #0, 16
    6728:	07e60000 	strbeq	r0, [r6, r0]!
    672c:	c7090000 	strgt	r0, [r9, -r0]
    6730:	1d000000 	stcne	0, cr0, [r0, #-0]
    6734:	002c0800 	eoreq	r0, ip, r0, lsl #16
    6738:	07f60000 	ldrbeq	r0, [r6, r0]!
    673c:	c7090000 	strgt	r0, [r9, -r0]
    6740:	1d000000 	stcne	0, cr0, [r0, #-0]
    6744:	05f01b00 	ldrbeq	r1, [r0, #2816]!	; 0xb00
    6748:	08180255 	ldmdaeq	r8, {r0, r2, r4, r6, r9}
    674c:	8e1c0000 	cdphi	0, 1, cr0, cr12, cr0, {0}
    6750:	05000003 	streq	r0, [r0, #-3]
    6754:	0681026c 	streq	r0, [r1], ip, ror #4
    6758:	e11c0000 	tst	ip, r0
    675c:	05000004 	streq	r0, [r0, #-4]
    6760:	07b20275 			; <UNDEFINED> instruction: 0x07b20275
    6764:	08000000 	stmdaeq	r0, {}	; <UNPREDICTABLE>
    6768:	0000010d 	andeq	r0, r0, sp, lsl #2
    676c:	00000828 	andeq	r0, r0, r8, lsr #16
    6770:	0000c709 	andeq	ip, r0, r9, lsl #14
    6774:	1d001800 	stcne	8, cr1, [r0, #-0]
    6778:	00000833 	andeq	r0, r0, r3, lsr r8
    677c:	00042415 	andeq	r2, r4, r5, lsl r4
    6780:	040d0000 	streq	r0, [sp], #-0
    6784:	00000828 	andeq	r0, r0, r8, lsr #16
    6788:	0177040d 	cmneq	r7, sp, lsl #8
    678c:	4a1d0000 	bmi	746794 <__bss_end__+0x73c724>
    6790:	15000008 	strne	r0, [r0, #-8]
    6794:	00000025 	andeq	r0, r0, r5, lsr #32
    6798:	50040d00 	andpl	r0, r4, r0, lsl #26
    679c:	0d000008 	stceq	0, cr0, [r0, #-32]	; 0xffffffe0
    67a0:	00083f04 	andeq	r3, r8, r4, lsl #30
    67a4:	05ef0800 	strbeq	r0, [pc, #2048]!	; 6fac <_start-0x1054>
    67a8:	08660000 	stmdaeq	r6!, {}^	; <UNPREDICTABLE>
    67ac:	c7090000 	strgt	r0, [r9, -r0]
    67b0:	02000000 	andeq	r0, r0, #0
    67b4:	046f1e00 	strbteq	r1, [pc], #-3584	; 67bc <_start-0x1844>
    67b8:	fd050000 	stc2	0, cr0, [r5, #-0]
    67bc:	00042402 	andeq	r2, r4, r2, lsl #8
    67c0:	04681e00 	strbteq	r1, [r8], #-3584	; 0xfffff200
    67c4:	fe050000 	cdp2	0, 0, cr0, cr5, cr0, {0}
    67c8:	00042a02 	andeq	r2, r4, r2, lsl #20
    67cc:	00251400 	eoreq	r1, r5, r0, lsl #8
    67d0:	088d0000 	stmeq	sp, {}	; <UNPREDICTABLE>
    67d4:	25150000 	ldrcs	r0, [r5, #-0]
    67d8:	00000000 	andeq	r0, r0, r0
    67dc:	0001d41f 	andeq	sp, r1, pc, lsl r4
    67e0:	981d0600 	ldmdals	sp, {r9, sl}
    67e4:	0d000008 	stceq	0, cr0, [r0, #-32]	; 0xffffffe0
    67e8:	00087e04 	andeq	r7, r8, r4, lsl #28
    67ec:	00251400 	eoreq	r1, r5, r0, lsl #8
    67f0:	08ad0000 	stmiaeq	sp!, {}	; <UNPREDICTABLE>
    67f4:	85150000 	ldrhi	r0, [r5, #-0]
    67f8:	00000005 	andeq	r0, r0, r5
    67fc:	0007691f 	andeq	r6, r7, pc, lsl r9
    6800:	b8220600 	stmdalt	r2!, {r9, sl}
    6804:	0d000008 	stceq	0, cr0, [r0, #-32]	; 0xffffffe0
    6808:	00089e04 	andeq	r9, r8, r4, lsl #28
    680c:	07d92000 	ldrbeq	r2, [r9, r0]
    6810:	0d010000 	stceq	0, cr0, [r1, #-0]
    6814:	00009098 	muleq	r0, r8, r0
    6818:	00000034 	andeq	r0, r0, r4, lsr r0
    681c:	091d9c01 	ldmdbeq	sp, {r0, sl, fp, ip, pc}
    6820:	e91f0000 	ldmdb	pc, {}	; <UNPREDICTABLE>
    6824:	01000007 	tsteq	r0, r7
    6828:	0000250e 	andeq	r2, r0, lr, lsl #10
    682c:	07f71f00 	ldrbeq	r1, [r7, r0, lsl #30]!
    6830:	0e010000 	cdpeq	0, 0, cr0, cr1, cr0, {0}
    6834:	00000025 	andeq	r0, r0, r5, lsr #32
    6838:	00003421 	andeq	r3, r0, r1, lsr #8
    683c:	220f0100 	andcs	r0, pc, #0, 2
    6840:	00737362 	rsbseq	r7, r3, r2, ror #6
    6844:	091d1101 	ldmdbeq	sp, {r0, r8, ip}
    6848:	0fa50000 	svceq	0x00a50000
    684c:	e1230000 			; <UNDEFINED> instruction: 0xe1230000
    6850:	01000007 	tsteq	r0, r7
    6854:	00091d12 	andeq	r1, r9, r2, lsl sp
    6858:	90c02400 	sbcls	r2, r0, r0, lsl #8
    685c:	09230000 	stmdbeq	r3!, {}	; <UNPREDICTABLE>
    6860:	c4240000 	strtgt	r0, [r4], #-0
    6864:	2e000090 	mcrcs	0, 0, r0, cr0, cr0, {4}
    6868:	00000009 	andeq	r0, r0, r9
    686c:	0025040d 	eoreq	r0, r5, sp, lsl #8
    6870:	34250000 	strtcc	r0, [r5], #-0
    6874:	34000000 	strcc	r0, [r0], #-0
    6878:	06000000 	streq	r0, [r0], -r0
    687c:	028e25d7 	addeq	r2, lr, #901775360	; 0x35c00000
    6880:	028e0000 	addeq	r0, lr, #0
    6884:	65060000 	strvs	r0, [r6, #-0]
    6888:	0009e600 	andeq	lr, r9, r0, lsl #12
    688c:	6a000400 	bvs	7894 <_start-0x76c>
    6890:	04000013 	streq	r0, [r0], #-19	; 0xffffffed
    6894:	0003c801 	andeq	ip, r3, r1, lsl #16
    6898:	08570c00 	ldmdaeq	r7, {sl, fp}^
    689c:	06de0000 	ldrbeq	r0, [lr], r0
    68a0:	00980000 	addseq	r0, r8, r0
    68a4:	00000000 	andeq	r0, r0, r0
    68a8:	0aee0000 	beq	ffb868b0 <__bss_end__+0xffb7c840>
    68ac:	04020000 	streq	r0, [r2], #-0
    68b0:	746e6905 	strbtvc	r6, [lr], #-2309	; 0xfffff6fb
    68b4:	00250300 	eoreq	r0, r5, r0, lsl #6
    68b8:	04040000 	streq	r0, [r4], #-0
    68bc:	00006607 	andeq	r6, r0, r7, lsl #12
    68c0:	06010400 	streq	r0, [r1], -r0, lsl #8
    68c4:	000002ec 	andeq	r0, r0, ip, ror #5
    68c8:	06050204 	streq	r0, [r5], -r4, lsl #4
    68cc:	04000003 	streq	r0, [r0], #-3
    68d0:	00af0504 	adceq	r0, pc, r4, lsl #10
    68d4:	08040000 	stmdaeq	r4, {}	; <UNPREDICTABLE>
    68d8:	0000aa05 	andeq	sl, r0, r5, lsl #20
    68dc:	08010400 	stmdaeq	r1, {sl}
    68e0:	000002ea 	andeq	r0, r0, sl, ror #5
    68e4:	25070204 	strcs	r0, [r7, #-516]	; 0xfffffdfc
    68e8:	04000002 	streq	r0, [r0], #-2
    68ec:	00610704 	rsbeq	r0, r1, r4, lsl #14
    68f0:	08040000 	stmdaeq	r4, {}	; <UNPREDICTABLE>
    68f4:	00005c07 	andeq	r5, r0, r7, lsl #24
    68f8:	02d80500 	sbcseq	r0, r8, #0, 10
    68fc:	07020000 	streq	r0, [r2, -r0]
    6900:	00000025 	andeq	r0, r0, r5, lsr #32
    6904:	0002c705 	andeq	ip, r2, r5, lsl #14
    6908:	462c0300 	strtmi	r0, [ip], -r0, lsl #6
    690c:	05000000 	streq	r0, [r0, #-0]
    6910:	000003b1 			; <UNDEFINED> instruction: 0x000003b1
    6914:	00467203 	subeq	r7, r6, r3, lsl #4
    6918:	68060000 	stmdavs	r6, {}	; <UNPREDICTABLE>
    691c:	04000002 	streq	r0, [r0], #-2
    6920:	00310165 	eorseq	r0, r1, r5, ror #2
    6924:	04070000 	streq	r0, [r7], #-0
    6928:	00bca603 	adcseq	sl, ip, r3, lsl #12
    692c:	62080000 	andvs	r0, r8, #0
    6930:	03000002 	movweq	r0, #2
    6934:	000091a8 	andeq	r9, r0, r8, lsr #3
    6938:	01e50800 	mvneq	r0, r0, lsl #16
    693c:	a9030000 	stmdbge	r3, {}	; <UNPREDICTABLE>
    6940:	000000bc 	strheq	r0, [r0], -ip
    6944:	00540900 	subseq	r0, r4, r0, lsl #18
    6948:	00cc0000 	sbceq	r0, ip, r0
    694c:	cc0a0000 	stcgt	0, cr0, [sl], {-0}
    6950:	03000000 	movweq	r0, #0
    6954:	07040400 	streq	r0, [r4, -r0, lsl #8]
    6958:	0000029b 	muleq	r0, fp, r2
    695c:	a303080b 	movwge	r0, #14347	; 0x380b
    6960:	000000f4 	strdeq	r0, [r0], -r4
    6964:	00039b0c 	andeq	r9, r3, ip, lsl #22
    6968:	25a50300 	strcs	r0, [r5, #768]!	; 0x300
    696c:	00000000 	andeq	r0, r0, r0
    6970:	0003a30c 	andeq	sl, r3, ip, lsl #6
    6974:	9daa0300 	stcls	3, cr0, [sl]
    6978:	04000000 	streq	r0, [r0], #-0
    697c:	032e0500 			; <UNDEFINED> instruction: 0x032e0500
    6980:	ab030000 	blge	c6988 <__bss_end__+0xbc918>
    6984:	000000d3 	ldrdeq	r0, [r0], -r3
    6988:	0001a205 	andeq	sl, r1, r5, lsl #4
    698c:	70af0300 	adcvc	r0, pc, r0, lsl #6
    6990:	0d000000 	stceq	0, cr0, [r0, #-0]
    6994:	12040e04 	andne	r0, r4, #4, 28	; 0x40
    6998:	04000001 	streq	r0, [r0], #-1
    699c:	02f30801 	rscseq	r0, r3, #65536	; 0x10000
    69a0:	12030000 	andne	r0, r3, #0
    69a4:	05000001 	streq	r0, [r0, #-1]
    69a8:	00000445 	andeq	r0, r0, r5, asr #8
    69ac:	00621605 	rsbeq	r1, r2, r5, lsl #12
    69b0:	b30f0000 	movwlt	r0, #61440	; 0xf000
    69b4:	18000001 	stmdane	r0, {r0}
    69b8:	017c2d05 	cmneq	ip, r5, lsl #26
    69bc:	4f0c0000 	svcmi	0x000c0000
    69c0:	05000003 	streq	r0, [r0, #-3]
    69c4:	00017c2f 	andeq	r7, r1, pc, lsr #24
    69c8:	5f100000 	svcpl	0x00100000
    69cc:	3005006b 	andcc	r0, r5, fp, rrx
    69d0:	00000025 	andeq	r0, r0, r5, lsr #32
    69d4:	03860c04 	orreq	r0, r6, #4, 24	; 0x400
    69d8:	30050000 	andcc	r0, r5, r0
    69dc:	00000025 	andeq	r0, r0, r5, lsr #32
    69e0:	019c0c08 	orrseq	r0, ip, r8, lsl #24
    69e4:	30050000 	andcc	r0, r5, r0
    69e8:	00000025 	andeq	r0, r0, r5, lsr #32
    69ec:	04a10c0c 	strteq	r0, [r1], #3084	; 0xc0c
    69f0:	30050000 	andcc	r0, r5, r0
    69f4:	00000025 	andeq	r0, r0, r5, lsr #32
    69f8:	785f1010 	ldmdavc	pc, {r4, ip}^	; <UNPREDICTABLE>
    69fc:	82310500 	eorshi	r0, r1, #0, 10
    6a00:	14000001 	strne	r0, [r0], #-1
    6a04:	29040e00 	stmdbcs	r4, {r9, sl, fp}
    6a08:	09000001 	stmdbeq	r0, {r0}
    6a0c:	0000011e 	andeq	r0, r0, lr, lsl r1
    6a10:	00000192 	muleq	r0, r2, r1
    6a14:	0000cc0a 	andeq	ip, r0, sl, lsl #24
    6a18:	0f000000 	svceq	0x00000000
    6a1c:	000001e0 	andeq	r0, r0, r0, ror #3
    6a20:	0b350524 	bleq	d47eb8 <__bss_end__+0xd3de48>
    6a24:	0c000002 	stceq	0, cr0, [r0], {2}
    6a28:	000000a1 	andeq	r0, r0, r1, lsr #1
    6a2c:	00253705 	eoreq	r3, r5, r5, lsl #14
    6a30:	0c000000 	stceq	0, cr0, [r0], {-0}
    6a34:	000003b9 			; <UNDEFINED> instruction: 0x000003b9
    6a38:	00253805 	eoreq	r3, r5, r5, lsl #16
    6a3c:	0c040000 	stceq	0, cr0, [r4], {-0}
    6a40:	000000c4 	andeq	r0, r0, r4, asr #1
    6a44:	00253905 	eoreq	r3, r5, r5, lsl #18
    6a48:	0c080000 	stceq	0, cr0, [r8], {-0}
    6a4c:	00000522 	andeq	r0, r0, r2, lsr #10
    6a50:	00253a05 	eoreq	r3, r5, r5, lsl #20
    6a54:	0c0c0000 	stceq	0, cr0, [ip], {-0}
    6a58:	000002ab 	andeq	r0, r0, fp, lsr #5
    6a5c:	00253b05 	eoreq	r3, r5, r5, lsl #22
    6a60:	0c100000 	ldceq	0, cr0, [r0], {-0}
    6a64:	00000284 	andeq	r0, r0, r4, lsl #5
    6a68:	00253c05 	eoreq	r3, r5, r5, lsl #24
    6a6c:	0c140000 	ldceq	0, cr0, [r4], {-0}
    6a70:	000004a6 	andeq	r0, r0, r6, lsr #9
    6a74:	00253d05 	eoreq	r3, r5, r5, lsl #26
    6a78:	0c180000 	ldceq	0, cr0, [r8], {-0}
    6a7c:	00000310 	andeq	r0, r0, r0, lsl r3
    6a80:	00253e05 	eoreq	r3, r5, r5, lsl #28
    6a84:	0c1c0000 	ldceq	0, cr0, [ip], {-0}
    6a88:	000004e9 	andeq	r0, r0, r9, ror #9
    6a8c:	00253f05 	eoreq	r3, r5, r5, lsl #30
    6a90:	00200000 	eoreq	r0, r0, r0
    6a94:	00010411 	andeq	r0, r1, r1, lsl r4
    6a98:	05010800 	streq	r0, [r1, #-2048]	; 0xfffff800
    6a9c:	00024b48 	andeq	r4, r2, r8, asr #22
    6aa0:	018f0c00 	orreq	r0, pc, r0, lsl #24
    6aa4:	49050000 	stmdbmi	r5, {}	; <UNPREDICTABLE>
    6aa8:	0000024b 	andeq	r0, r0, fp, asr #4
    6aac:	00000c00 	andeq	r0, r0, r0, lsl #24
    6ab0:	4a050000 	bmi	146ab8 <__bss_end__+0x13ca48>
    6ab4:	0000024b 	andeq	r0, r0, fp, asr #4
    6ab8:	04371280 	ldrteq	r1, [r7], #-640	; 0xfffffd80
    6abc:	4c050000 	stcmi	0, cr0, [r5], {-0}
    6ac0:	0000011e 	andeq	r0, r0, lr, lsl r1
    6ac4:	29120100 	ldmdbcs	r2, {r8}
    6ac8:	05000001 	streq	r0, [r0, #-1]
    6acc:	00011e4f 	andeq	r1, r1, pc, asr #28
    6ad0:	00010400 	andeq	r0, r1, r0, lsl #8
    6ad4:	00010a09 	andeq	r0, r1, r9, lsl #20
    6ad8:	00025b00 	andeq	r5, r2, r0, lsl #22
    6adc:	00cc0a00 	sbceq	r0, ip, r0, lsl #20
    6ae0:	001f0000 	andseq	r0, pc, r0
    6ae4:	0002b411 	andeq	fp, r2, r1, lsl r4
    6ae8:	05019000 	streq	r9, [r1, #-0]
    6aec:	0002995b 	andeq	r9, r2, fp, asr r9
    6af0:	034f0c00 	movteq	r0, #64512	; 0xfc00
    6af4:	5c050000 	stcpl	0, cr0, [r5], {-0}
    6af8:	00000299 	muleq	r0, r9, r2
    6afc:	03670c00 	cmneq	r7, #0, 24
    6b00:	5d050000 	stcpl	0, cr0, [r5, #-0]
    6b04:	00000025 	andeq	r0, r0, r5, lsr #32
    6b08:	01970c04 	orrseq	r0, r7, r4, lsl #24
    6b0c:	5f050000 	svcpl	0x00050000
    6b10:	0000029f 	muleq	r0, pc, r2	; <UNPREDICTABLE>
    6b14:	01040c08 	tsteq	r4, r8, lsl #24
    6b18:	60050000 	andvs	r0, r5, r0
    6b1c:	0000020b 	andeq	r0, r0, fp, lsl #4
    6b20:	040e0088 	streq	r0, [lr], #-136	; 0xffffff78
    6b24:	0000025b 	andeq	r0, r0, fp, asr r2
    6b28:	0002af09 	andeq	sl, r2, r9, lsl #30
    6b2c:	0002af00 	andeq	sl, r2, r0, lsl #30
    6b30:	00cc0a00 	sbceq	r0, ip, r0, lsl #20
    6b34:	001f0000 	andseq	r0, pc, r0
    6b38:	02b5040e 	adcseq	r0, r5, #234881024	; 0xe000000
    6b3c:	0f130000 	svceq	0x00130000
    6b40:	0000031a 	andeq	r0, r0, sl, lsl r3
    6b44:	db730508 	blle	1cc7f6c <__bss_end__+0x1cbdefc>
    6b48:	0c000002 	stceq	0, cr0, [r0], {2}
    6b4c:	000000be 	strheq	r0, [r0], -lr
    6b50:	02db7405 	sbcseq	r7, fp, #83886080	; 0x5000000
    6b54:	0c000000 	stceq	0, cr0, [r0], {-0}
    6b58:	0000001b 	andeq	r0, r0, fp, lsl r0
    6b5c:	00257505 	eoreq	r7, r5, r5, lsl #10
    6b60:	00040000 	andeq	r0, r4, r0
    6b64:	0054040e 	subseq	r0, r4, lr, lsl #8
    6b68:	390f0000 	stmdbcc	pc, {}	; <UNPREDICTABLE>
    6b6c:	68000003 	stmdavs	r0, {r0, r1}
    6b70:	040bb305 	streq	fp, [fp], #-773	; 0xfffffcfb
    6b74:	5f100000 	svcpl	0x00100000
    6b78:	b4050070 	strlt	r0, [r5], #-112	; 0xffffff90
    6b7c:	000002db 	ldrdeq	r0, [r0], -fp
    6b80:	725f1000 	subsvc	r1, pc, #0
    6b84:	25b50500 	ldrcs	r0, [r5, #1280]!	; 0x500
    6b88:	04000000 	streq	r0, [r0], #-0
    6b8c:	00775f10 	rsbseq	r5, r7, r0, lsl pc
    6b90:	0025b605 	eoreq	fp, r5, r5, lsl #12
    6b94:	0c080000 	stceq	0, cr0, [r8], {-0}
    6b98:	00000122 	andeq	r0, r0, r2, lsr #2
    6b9c:	003fb705 	eorseq	fp, pc, r5, lsl #14
    6ba0:	0c0c0000 	stceq	0, cr0, [ip], {-0}
    6ba4:	0000020b 	andeq	r0, r0, fp, lsl #4
    6ba8:	003fb805 	eorseq	fp, pc, r5, lsl #16
    6bac:	100e0000 	andne	r0, lr, r0
    6bb0:	0066625f 	rsbeq	r6, r6, pc, asr r2
    6bb4:	02b6b905 	adcseq	fp, r6, #81920	; 0x14000
    6bb8:	0c100000 	ldceq	0, cr0, [r0], {-0}
    6bbc:	0000007b 	andeq	r0, r0, fp, ror r0
    6bc0:	0025ba05 	eoreq	fp, r5, r5, lsl #20
    6bc4:	0c180000 	ldceq	0, cr0, [r8], {-0}
    6bc8:	00000112 	andeq	r0, r0, r2, lsl r1
    6bcc:	010ac105 	tsteq	sl, r5, lsl #2
    6bd0:	0c1c0000 	ldceq	0, cr0, [ip], {-0}
    6bd4:	00000a78 	andeq	r0, r0, r8, ror sl
    6bd8:	0566c305 	strbeq	ip, [r6, #-773]!	; 0xfffffcfb
    6bdc:	0c200000 	stceq	0, cr0, [r0], #-0
    6be0:	0000060c 	andeq	r0, r0, ip, lsl #12
    6be4:	0590c505 	ldreq	ip, [r0, #1285]	; 0x505
    6be8:	0c240000 	stceq	0, cr0, [r4], #-0
    6bec:	000003ab 	andeq	r0, r0, fp, lsr #7
    6bf0:	05b4c805 	ldreq	ip, [r4, #2053]!	; 0x805
    6bf4:	0c280000 	stceq	0, cr0, [r8], #-0
    6bf8:	00000503 	andeq	r0, r0, r3, lsl #10
    6bfc:	05cec905 	strbeq	ip, [lr, #2309]	; 0x905
    6c00:	102c0000 	eorne	r0, ip, r0
    6c04:	0062755f 	rsbeq	r7, r2, pc, asr r5
    6c08:	02b6cc05 	adcseq	ip, r6, #1280	; 0x500
    6c0c:	10300000 	eorsne	r0, r0, r0
    6c10:	0070755f 	rsbseq	r7, r0, pc, asr r5
    6c14:	02dbcd05 	sbcseq	ip, fp, #320	; 0x140
    6c18:	10380000 	eorsne	r0, r8, r0
    6c1c:	0072755f 	rsbseq	r7, r2, pc, asr r5
    6c20:	0025ce05 	eoreq	ip, r5, r5, lsl #28
    6c24:	0c3c0000 	ldceq	0, cr0, [ip], #-0
    6c28:	000000b8 	strheq	r0, [r0], -r8
    6c2c:	05d4d105 	ldrbeq	sp, [r4, #261]	; 0x105
    6c30:	0c400000 	mareq	acc0, r0, r0
    6c34:	000004db 	ldrdeq	r0, [r0], -fp
    6c38:	05e4d205 	strbeq	sp, [r4, #517]!	; 0x205
    6c3c:	10430000 	subne	r0, r3, r0
    6c40:	00626c5f 	rsbeq	r6, r2, pc, asr ip
    6c44:	02b6d505 	adcseq	sp, r6, #20971520	; 0x1400000
    6c48:	0c440000 	mareq	acc0, r0, r4
    6c4c:	00000140 	andeq	r0, r0, r0, asr #2
    6c50:	0025d805 	eoreq	sp, r5, r5, lsl #16
    6c54:	0c4c0000 	mareq	acc0, r0, ip
    6c58:	00000151 	andeq	r0, r0, r1, asr r1
    6c5c:	007bd905 	rsbseq	sp, fp, r5, lsl #18
    6c60:	0c500000 	mraeq	r0, r0, acc0
    6c64:	00000a19 	andeq	r0, r0, r9, lsl sl
    6c68:	0429dc05 	strteq	sp, [r9], #-3077	; 0xfffff3fb
    6c6c:	0c540000 	mraeq	r0, r4, acc0
    6c70:	00000276 	andeq	r0, r0, r6, ror r2
    6c74:	00ffe005 	rscseq	lr, pc, r5
    6c78:	0c580000 	mraeq	r0, r8, acc0
    6c7c:	00000341 	andeq	r0, r0, r1, asr #6
    6c80:	00f4e205 	rscseq	lr, r4, r5, lsl #4
    6c84:	0c5c0000 	mraeq	r0, ip, acc0
    6c88:	0000027c 	andeq	r0, r0, ip, ror r2
    6c8c:	0025e305 	eoreq	lr, r5, r5, lsl #6
    6c90:	00640000 	rsbeq	r0, r4, r0
    6c94:	00002514 	andeq	r2, r0, r4, lsl r5
    6c98:	00042900 	andeq	r2, r4, r0, lsl #18
    6c9c:	04291500 	strteq	r1, [r9], #-1280	; 0xfffffb00
    6ca0:	0a150000 	beq	546ca8 <__bss_end__+0x53cc38>
    6ca4:	15000001 	strne	r0, [r0, #-1]
    6ca8:	0000010c 	andeq	r0, r0, ip, lsl #2
    6cac:	00002515 	andeq	r2, r0, r5, lsl r5
    6cb0:	040e0000 	streq	r0, [lr], #-0
    6cb4:	00000434 	andeq	r0, r0, r4, lsr r4
    6cb8:	00042903 	andeq	r2, r4, r3, lsl #18
    6cbc:	038e1600 	orreq	r1, lr, #0, 12
    6cc0:	04280000 	strteq	r0, [r8], #-0
    6cc4:	66023805 	strvs	r3, [r2], -r5, lsl #16
    6cc8:	17000005 	strne	r0, [r0, -r5]
    6ccc:	000002ff 	strdeq	r0, [r0], -pc	; <UNPREDICTABLE>
    6cd0:	25023a05 	strcs	r3, [r2, #-2565]	; 0xfffff5fb
    6cd4:	00000000 	andeq	r0, r0, r0
    6cd8:	00013117 	andeq	r3, r1, r7, lsl r1
    6cdc:	023f0500 	eorseq	r0, pc, #0, 10
    6ce0:	0000063b 	andeq	r0, r0, fp, lsr r6
    6ce4:	01fb1704 	mvnseq	r1, r4, lsl #14
    6ce8:	3f050000 	svccc	0x00050000
    6cec:	00063b02 	andeq	r3, r6, r2, lsl #22
    6cf0:	ab170800 	blge	5c8cf8 <__bss_end__+0x5bec88>
    6cf4:	05000001 	streq	r0, [r0, #-1]
    6cf8:	063b023f 			; <UNDEFINED> instruction: 0x063b023f
    6cfc:	170c0000 	strne	r0, [ip, -r0]
    6d00:	00000362 	andeq	r0, r0, r2, ror #6
    6d04:	25024105 	strcs	r4, [r2, #-261]	; 0xfffffefb
    6d08:	10000000 	andne	r0, r0, r0
    6d0c:	00002917 	andeq	r2, r0, r7, lsl r9
    6d10:	02420500 	subeq	r0, r2, #0, 10
    6d14:	0000081d 	andeq	r0, r0, sp, lsl r8
    6d18:	047b1714 	ldrbteq	r1, [fp], #-1812	; 0xfffff8ec
    6d1c:	44050000 	strmi	r0, [r5], #-0
    6d20:	00002502 	andeq	r2, r0, r2, lsl #10
    6d24:	6c173000 	ldcvs	0, cr3, [r7], {-0}
    6d28:	05000003 	streq	r0, [r0, #-3]
    6d2c:	058a0245 	streq	r0, [sl, #581]	; 0x245
    6d30:	17340000 	ldrne	r0, [r4, -r0]!
    6d34:	000002bc 			; <UNDEFINED> instruction: 0x000002bc
    6d38:	25024705 	strcs	r4, [r2, #-1797]	; 0xfffff8fb
    6d3c:	38000000 	stmdacc	r0, {}	; <UNPREDICTABLE>
    6d40:	00037c17 	andeq	r7, r3, r7, lsl ip
    6d44:	02490500 	subeq	r0, r9, #0, 10
    6d48:	00000838 	andeq	r0, r0, r8, lsr r8
    6d4c:	025a173c 	subseq	r1, sl, #60, 14	; 0xf00000
    6d50:	4c050000 	stcmi	0, cr0, [r5], {-0}
    6d54:	00017c02 	andeq	r7, r1, r2, lsl #24
    6d58:	ca174000 	bgt	5d6d60 <__bss_end__+0x5cccf0>
    6d5c:	05000001 	streq	r0, [r0, #-1]
    6d60:	0025024d 	eoreq	r0, r5, sp, asr #4
    6d64:	17440000 	strbne	r0, [r4, -r0]
    6d68:	0000051d 	andeq	r0, r0, sp, lsl r5
    6d6c:	7c024e05 	stcvc	14, cr4, [r2], {5}
    6d70:	48000001 	stmdami	r0, {r0}
    6d74:	0002ce17 	andeq	ip, r2, r7, lsl lr
    6d78:	024f0500 	subeq	r0, pc, #0, 10
    6d7c:	0000083e 	andeq	r0, r0, lr, lsr r8
    6d80:	0203174c 	andeq	r1, r3, #76, 14	; 0x1300000
    6d84:	52050000 	andpl	r0, r5, #0
    6d88:	00002502 	andeq	r2, r0, r2, lsl #10
    6d8c:	49175000 	ldmdbmi	r7, {ip, lr}
    6d90:	05000001 	streq	r0, [r0, #-1]
    6d94:	010c0253 	tsteq	ip, r3, asr r2
    6d98:	17540000 	ldrbne	r0, [r4, -r0]
    6d9c:	000002f8 	strdeq	r0, [r0], -r8
    6da0:	fb027605 	blx	a45be <__bss_end__+0x9a54e>
    6da4:	58000007 	stmdapl	r0, {r0, r1, r2}
    6da8:	0002b418 	andeq	fp, r2, r8, lsl r4
    6dac:	027a0500 	rsbseq	r0, sl, #0, 10
    6db0:	00000299 	muleq	r0, r9, r2
    6db4:	38180148 	ldmdacc	r8, {r3, r6, r8}
    6db8:	05000002 	streq	r0, [r0, #-2]
    6dbc:	025b027b 	subseq	r0, fp, #-1342177273	; 0xb0000007
    6dc0:	014c0000 	mrseq	r0, (UNDEF: 76)
    6dc4:	0004c918 	andeq	ip, r4, r8, lsl r9
    6dc8:	027f0500 	rsbseq	r0, pc, #0, 10
    6dcc:	0000084f 	andeq	r0, r0, pc, asr #16
    6dd0:	1a1802dc 	bne	607948 <__bss_end__+0x5fd8d8>
    6dd4:	05000001 	streq	r0, [r0, #-1]
    6dd8:	06000284 	streq	r0, [r0], -r4, lsl #5
    6ddc:	02e00000 	rsceq	r0, r0, #0
    6de0:	0000ff18 	andeq	pc, r0, r8, lsl pc	; <UNPREDICTABLE>
    6de4:	02850500 	addeq	r0, r5, #0, 10
    6de8:	0000085b 	andeq	r0, r0, fp, asr r8
    6dec:	0e0002ec 	cdpeq	2, 0, cr0, cr0, cr12, {7}
    6df0:	00040b04 	andeq	r0, r4, r4, lsl #22
    6df4:	00251400 	eoreq	r1, r5, r0, lsl #8
    6df8:	058a0000 	streq	r0, [sl]
    6dfc:	29150000 	ldmdbcs	r5, {}	; <UNPREDICTABLE>
    6e00:	15000004 	strne	r0, [r0, #-4]
    6e04:	0000010a 	andeq	r0, r0, sl, lsl #2
    6e08:	00058a15 	andeq	r8, r5, r5, lsl sl
    6e0c:	00251500 	eoreq	r1, r5, r0, lsl #10
    6e10:	0e000000 	cdpeq	0, 0, cr0, cr0, cr0, {0}
    6e14:	00011904 	andeq	r1, r1, r4, lsl #18
    6e18:	6c040e00 	stcvs	14, cr0, [r4], {-0}
    6e1c:	14000005 	strne	r0, [r0], #-5
    6e20:	00000086 	andeq	r0, r0, r6, lsl #1
    6e24:	000005b4 			; <UNDEFINED> instruction: 0x000005b4
    6e28:	00042915 	andeq	r2, r4, r5, lsl r9
    6e2c:	010a1500 	tsteq	sl, r0, lsl #10
    6e30:	86150000 	ldrhi	r0, [r5], -r0
    6e34:	15000000 	strne	r0, [r0, #-0]
    6e38:	00000025 	andeq	r0, r0, r5, lsr #32
    6e3c:	96040e00 	strls	r0, [r4], -r0, lsl #28
    6e40:	14000005 	strne	r0, [r0], #-5
    6e44:	00000025 	andeq	r0, r0, r5, lsr #32
    6e48:	000005ce 	andeq	r0, r0, lr, asr #11
    6e4c:	00042915 	andeq	r2, r4, r5, lsl r9
    6e50:	010a1500 	tsteq	sl, r0, lsl #10
    6e54:	0e000000 	cdpeq	0, 0, cr0, cr0, cr0, {0}
    6e58:	0005ba04 	andeq	fp, r5, r4, lsl #20
    6e5c:	00540900 	subseq	r0, r4, r0, lsl #18
    6e60:	05e40000 	strbeq	r0, [r4, #0]!
    6e64:	cc0a0000 	stcgt	0, cr0, [sl], {-0}
    6e68:	02000000 	andeq	r0, r0, #0
    6e6c:	00540900 	subseq	r0, r4, r0, lsl #18
    6e70:	05f40000 	ldrbeq	r0, [r4, #0]!
    6e74:	cc0a0000 	stcgt	0, cr0, [sl], {-0}
    6e78:	00000000 	andeq	r0, r0, r0
    6e7c:	03270600 			; <UNDEFINED> instruction: 0x03270600
    6e80:	1d050000 	stcne	0, cr0, [r5, #-0]
    6e84:	0002e101 	andeq	lr, r2, r1, lsl #2
    6e88:	04b01900 	ldrteq	r1, [r0], #2304	; 0x900
    6e8c:	050c0000 	streq	r0, [ip, #-0]
    6e90:	06350121 	ldrteq	r0, [r5], -r1, lsr #2
    6e94:	4f170000 	svcmi	0x00170000
    6e98:	05000003 	streq	r0, [r0, #-3]
    6e9c:	06350123 	ldrteq	r0, [r5], -r3, lsr #2
    6ea0:	17000000 	strne	r0, [r0, -r0]
    6ea4:	0000021e 	andeq	r0, r0, lr, lsl r2
    6ea8:	25012405 	strcs	r2, [r1, #-1029]	; 0xfffffbfb
    6eac:	04000000 	streq	r0, [r0], #-0
    6eb0:	00032117 	andeq	r2, r3, r7, lsl r1
    6eb4:	01250500 			; <UNDEFINED> instruction: 0x01250500
    6eb8:	0000063b 	andeq	r0, r0, fp, lsr r6
    6ebc:	040e0008 	streq	r0, [lr], #-8
    6ec0:	00000600 	andeq	r0, r0, r0, lsl #12
    6ec4:	05f4040e 	ldrbeq	r0, [r4, #1038]!	; 0x40e
    6ec8:	21190000 	tstcs	r9, r0
    6ecc:	0e000000 	cdpeq	0, 0, cr0, cr0, cr0, {0}
    6ed0:	76013d05 	strvc	r3, [r1], -r5, lsl #26
    6ed4:	17000006 	strne	r0, [r0, -r6]
    6ed8:	00000395 	muleq	r0, r5, r3
    6edc:	76013e05 	strvc	r3, [r1], -r5, lsl #28
    6ee0:	00000006 	andeq	r0, r0, r6
    6ee4:	0003c217 	andeq	ip, r3, r7, lsl r2
    6ee8:	013f0500 	teqeq	pc, r0, lsl #10
    6eec:	00000676 	andeq	r0, r0, r6, ror r6
    6ef0:	04401706 	strbeq	r1, [r0], #-1798	; 0xfffff8fa
    6ef4:	40050000 	andmi	r0, r5, r0
    6ef8:	00005b01 	andeq	r5, r0, r1, lsl #22
    6efc:	09000c00 	stmdbeq	r0, {sl, fp}
    6f00:	0000005b 	andeq	r0, r0, fp, asr r0
    6f04:	00000686 	andeq	r0, r0, r6, lsl #13
    6f08:	0000cc0a 	andeq	ip, r0, sl, lsl #24
    6f0c:	1a000200 	bne	7714 <_start-0x8ec>
    6f10:	025705d0 	subseq	r0, r7, #208, 10	; 0x34000000
    6f14:	00000787 	andeq	r0, r0, r7, lsl #15
    6f18:	00049417 	andeq	r9, r4, r7, lsl r4
    6f1c:	02590500 	subseq	r0, r9, #0, 10
    6f20:	00000031 	andeq	r0, r0, r1, lsr r0
    6f24:	042a1700 	strteq	r1, [sl], #-1792	; 0xfffff900
    6f28:	5a050000 	bpl	146f30 <__bss_end__+0x13cec0>
    6f2c:	00010c02 	andeq	r0, r1, r2, lsl #24
    6f30:	4d170400 	cfldrsmi	mvf0, [r7, #-0]
    6f34:	05000002 	streq	r0, [r0, #-2]
    6f38:	0787025b 			; <UNDEFINED> instruction: 0x0787025b
    6f3c:	17080000 	strne	r0, [r8, -r0]
    6f40:	000004f4 	strdeq	r0, [r0], -r4
    6f44:	92025c05 	andls	r5, r2, #1280	; 0x500
    6f48:	24000001 	strcs	r0, [r0], #-1
    6f4c:	0001bb17 	andeq	fp, r1, r7, lsl fp
    6f50:	025d0500 	subseq	r0, sp, #0, 10
    6f54:	00000025 	andeq	r0, r0, r5, lsr #32
    6f58:	034a1748 	movteq	r1, #42824	; 0xa748
    6f5c:	5e050000 	cdppl	0, 0, cr0, cr5, cr0, {0}
    6f60:	00006902 	andeq	r6, r0, r2, lsl #18
    6f64:	0a175000 	beq	5daf6c <__bss_end__+0x5d0efc>
    6f68:	05000005 	streq	r0, [r0, #-5]
    6f6c:	0641025f 			; <UNDEFINED> instruction: 0x0641025f
    6f70:	17580000 	ldrbne	r0, [r8, -r0]
    6f74:	00000355 	andeq	r0, r0, r5, asr r3
    6f78:	f4026005 	vst4.8	{d6-d9}, [r2], r5
    6f7c:	68000000 	stmdavs	r0, {}	; <UNPREDICTABLE>
    6f80:	00050f17 	andeq	r0, r5, r7, lsl pc
    6f84:	02610500 	rsbeq	r0, r1, #0, 10
    6f88:	000000f4 	strdeq	r0, [r0], -r4
    6f8c:	00931770 	addseq	r1, r3, r0, ror r7
    6f90:	62050000 	andvs	r0, r5, #0
    6f94:	0000f402 	andeq	pc, r0, r2, lsl #8
    6f98:	bf177800 	svclt	0x00177800
    6f9c:	05000004 	streq	r0, [r0, #-4]
    6fa0:	07970263 	ldreq	r0, [r7, r3, ror #4]
    6fa4:	17800000 	strne	r0, [r0, r0]
    6fa8:	00000241 	andeq	r0, r0, r1, asr #4
    6fac:	a7026405 	strge	r6, [r2, -r5, lsl #8]
    6fb0:	88000007 	stmdahi	r0, {r0, r1, r2}
    6fb4:	00044d17 	andeq	r4, r4, r7, lsl sp
    6fb8:	02650500 	rsbeq	r0, r5, #0, 10
    6fbc:	00000025 	andeq	r0, r0, r5, lsr #32
    6fc0:	018117a0 	orreq	r1, r1, r0, lsr #15
    6fc4:	66050000 	strvs	r0, [r5], -r0
    6fc8:	0000f402 	andeq	pc, r0, r2, lsl #8
    6fcc:	8417a400 	ldrhi	sl, [r7], #-1024	; 0xfffffc00
    6fd0:	05000000 	streq	r0, [r0, #-0]
    6fd4:	00f40267 	rscseq	r0, r4, r7, ror #4
    6fd8:	17ac0000 	strne	r0, [ip, r0]!
    6fdc:	00000170 	andeq	r0, r0, r0, ror r1
    6fe0:	f4026805 	vst2.8	{d6-d7}, [r2], r5
    6fe4:	b4000000 	strlt	r0, [r0], #-0
    6fe8:	00003c17 	andeq	r3, r0, r7, lsl ip
    6fec:	02690500 	rsbeq	r0, r9, #0, 10
    6ff0:	000000f4 	strdeq	r0, [r0], -r4
    6ff4:	004b17bc 	strheq	r1, [fp], #-124	; 0xffffff84
    6ff8:	6a050000 	bvs	147000 <__bss_end__+0x13cf90>
    6ffc:	0000f402 	andeq	pc, r0, r2, lsl #8
    7000:	fd17c400 	ldc2	4, cr12, [r7, #-0]
    7004:	05000002 	streq	r0, [r0, #-2]
    7008:	0025026b 	eoreq	r0, r5, fp, ror #4
    700c:	00cc0000 	sbceq	r0, ip, r0
    7010:	00011209 	andeq	r1, r1, r9, lsl #4
    7014:	00079700 	andeq	r9, r7, r0, lsl #14
    7018:	00cc0a00 	sbceq	r0, ip, r0, lsl #20
    701c:	00190000 	andseq	r0, r9, r0
    7020:	00011209 	andeq	r1, r1, r9, lsl #4
    7024:	0007a700 	andeq	sl, r7, r0, lsl #14
    7028:	00cc0a00 	sbceq	r0, ip, r0, lsl #20
    702c:	00070000 	andeq	r0, r7, r0
    7030:	00011209 	andeq	r1, r1, r9, lsl #4
    7034:	0007b700 	andeq	fp, r7, r0, lsl #14
    7038:	00cc0a00 	sbceq	r0, ip, r0, lsl #20
    703c:	00170000 	andseq	r0, r7, r0
    7040:	7005f01a 	andvc	pc, r5, sl, lsl r0	; <UNPREDICTABLE>
    7044:	0007db02 	andeq	sp, r7, r2, lsl #22
    7048:	02a41700 	adceq	r1, r4, #0, 14
    704c:	73050000 	movwvc	r0, #20480	; 0x5000
    7050:	0007db02 	andeq	sp, r7, r2, lsl #22
    7054:	b6170000 	ldrlt	r0, [r7], -r0
    7058:	05000004 	streq	r0, [r0, #-4]
    705c:	07eb0274 			; <UNDEFINED> instruction: 0x07eb0274
    7060:	00780000 	rsbseq	r0, r8, r0
    7064:	0002db09 	andeq	sp, r2, r9, lsl #22
    7068:	0007eb00 	andeq	lr, r7, r0, lsl #22
    706c:	00cc0a00 	sbceq	r0, ip, r0, lsl #20
    7070:	001d0000 	andseq	r0, sp, r0
    7074:	00003109 	andeq	r3, r0, r9, lsl #2
    7078:	0007fb00 	andeq	pc, r7, r0, lsl #22
    707c:	00cc0a00 	sbceq	r0, ip, r0, lsl #20
    7080:	001d0000 	andseq	r0, sp, r0
    7084:	5505f01b 	strpl	pc, [r5, #-27]	; 0xffffffe5
    7088:	00081d02 	andeq	r1, r8, r2, lsl #26
    708c:	038e1c00 	orreq	r1, lr, #0, 24
    7090:	6c050000 	stcvs	0, cr0, [r5], {-0}
    7094:	00068602 	andeq	r8, r6, r2, lsl #12
    7098:	04e11c00 	strbteq	r1, [r1], #3072	; 0xc00
    709c:	75050000 	strvc	r0, [r5, #-0]
    70a0:	0007b702 	andeq	fp, r7, r2, lsl #14
    70a4:	12090000 	andne	r0, r9, #0
    70a8:	2d000001 	stccs	0, cr0, [r0, #-4]
    70ac:	0a000008 	beq	70d4 <_start-0xf2c>
    70b0:	000000cc 	andeq	r0, r0, ip, asr #1
    70b4:	381d0018 	ldmdacc	sp, {r3, r4}
    70b8:	15000008 	strne	r0, [r0, #-8]
    70bc:	00000429 	andeq	r0, r0, r9, lsr #8
    70c0:	2d040e00 	stccs	14, cr0, [r4, #-0]
    70c4:	0e000008 	cdpeq	0, 0, cr0, cr0, cr8, {0}
    70c8:	00017c04 	andeq	r7, r1, r4, lsl #24
    70cc:	084f1d00 	stmdaeq	pc, {r8, sl, fp, ip}^	; <UNPREDICTABLE>
    70d0:	25150000 	ldrcs	r0, [r5, #-0]
    70d4:	00000000 	andeq	r0, r0, r0
    70d8:	0855040e 	ldmdaeq	r5, {r1, r2, r3, sl}^
    70dc:	040e0000 	streq	r0, [lr], #-0
    70e0:	00000844 	andeq	r0, r0, r4, asr #16
    70e4:	0005f409 	andeq	pc, r5, r9, lsl #8
    70e8:	00086b00 	andeq	r6, r8, r0, lsl #22
    70ec:	00cc0a00 	sbceq	r0, ip, r0, lsl #20
    70f0:	00020000 	andeq	r0, r2, r0
    70f4:	00046f1e 	andeq	r6, r4, lr, lsl pc
    70f8:	02fd0500 	rscseq	r0, sp, #0, 10
    70fc:	00000429 	andeq	r0, r0, r9, lsr #8
    7100:	0004681e 	andeq	r6, r4, lr, lsl r8
    7104:	02fe0500 	rscseq	r0, lr, #0, 10
    7108:	0000042f 	andeq	r0, r0, pc, lsr #8
    710c:	00002514 	andeq	r2, r0, r4, lsl r5
    7110:	00089200 	andeq	r9, r8, r0, lsl #4
    7114:	00251500 	eoreq	r1, r5, r0, lsl #10
    7118:	1f000000 	svcne	0x00000000
    711c:	000001d4 	ldrdeq	r0, [r0], -r4
    7120:	089d1d06 	ldmeq	sp, {r1, r2, r8, sl, fp, ip}
    7124:	040e0000 	streq	r0, [lr], #-0
    7128:	00000883 	andeq	r0, r0, r3, lsl #17
    712c:	00002514 	andeq	r2, r0, r4, lsl r5
    7130:	0008b200 	andeq	fp, r8, r0, lsl #4
    7134:	058a1500 	streq	r1, [sl, #1280]	; 0x500
    7138:	1f000000 	svcne	0x00000000
    713c:	00000769 	andeq	r0, r0, r9, ror #14
    7140:	08bd2206 	popeq	{r1, r2, r9, sp}
    7144:	040e0000 	streq	r0, [lr], #-0
    7148:	000008a3 	andeq	r0, r0, r3, lsr #17
    714c:	00087c20 	andeq	r7, r8, r0, lsr #24
    7150:	310d0100 	mrscc	r0, (UNDEF: 29)
    7154:	21000000 	mrscs	r0, (UNDEF: 0)
    7158:	0000084c 	andeq	r0, r0, ip, asr #16
    715c:	90f81f01 	rscsls	r1, r8, r1, lsl #30
    7160:	004c0000 	subeq	r0, ip, r0
    7164:	9c010000 	stcls	0, cr0, [r1], {-0}
    7168:	00000985 	andeq	r0, r0, r5, lsl #19
    716c:	00080322 	andeq	r0, r8, r2, lsr #6
    7170:	2c2a0100 	stfcss	f0, [sl], #-0
    7174:	c5000000 	strgt	r0, [r0, #-0]
    7178:	2200000f 	andcs	r0, r0, #15
    717c:	0000082a 	andeq	r0, r0, sl, lsr #16
    7180:	002c2b01 	eoreq	r2, ip, r1, lsl #22
    7184:	0fdd0000 	svceq	0x00dd0000
    7188:	37220000 	strcc	r0, [r2, -r0]!
    718c:	01000008 	tsteq	r0, r8
    7190:	00002c2c 	andeq	r2, r0, ip, lsr #24
    7194:	000ff500 	andeq	pc, pc, r0, lsl #10
    7198:	08112200 	ldmdaeq	r1, {r9, sp}
    719c:	2d010000 	stccs	0, cr0, [r1, #-0]
    71a0:	0000002c 	andeq	r0, r0, ip, lsr #32
    71a4:	0000100c 	andeq	r1, r0, ip
    71a8:	00910023 	addseq	r0, r1, r3, lsr #32
    71ac:	0009aa00 	andeq	sl, r9, r0, lsl #20
    71b0:	91102400 	tstls	r0, r0, lsl #8
    71b4:	09d30000 	ldmibeq	r3, {}^	; <UNPREDICTABLE>
    71b8:	093b0000 	ldmdbeq	fp!, {}	; <UNPREDICTABLE>
    71bc:	01250000 			; <UNDEFINED> instruction: 0x01250000
    71c0:	004e0150 	subeq	r0, lr, r0, asr r1
    71c4:	00911c24 	addseq	r1, r1, r4, lsr #24
    71c8:	0009de00 	andeq	sp, r9, r0, lsl #28
    71cc:	00095b00 	andeq	r5, r9, r0, lsl #22
    71d0:	50012500 	andpl	r2, r1, r0, lsl #10
    71d4:	00240c05 	eoreq	r0, r4, r5, lsl #24
    71d8:	01252010 			; <UNDEFINED> instruction: 0x01252010
    71dc:	010c0551 	tsteq	ip, r1, asr r5
    71e0:	005a0000 	subseq	r0, sl, r0
    71e4:	00912824 	addseq	r2, r1, r4, lsr #16
    71e8:	0009de00 	andeq	sp, r9, r0, lsl #28
    71ec:	00097b00 	andeq	r7, r9, r0, lsl #22
    71f0:	50012500 	andpl	r2, r1, r0, lsl #10
    71f4:	001c0c05 	andseq	r0, ip, r5, lsl #24
    71f8:	01252010 			; <UNDEFINED> instruction: 0x01252010
    71fc:	200c0551 	andcs	r0, ip, r1, asr r5
    7200:	005a0000 	subseq	r0, sl, r0
    7204:	00913023 	addseq	r3, r1, r3, lsr #32
    7208:	00098500 	andeq	r8, r9, r0, lsl #10
    720c:	6a260000 	bvs	987214 <__bss_end__+0x97d1a4>
    7210:	01000008 	tsteq	r0, r8
    7214:	0090e417 	addseq	lr, r0, r7, lsl r4
    7218:	00001400 	andeq	r1, r0, r0, lsl #8
    721c:	aa9c0100 	bge	fe707624 <__bss_end__+0xfe6fd5b4>
    7220:	22000009 	andcs	r0, r0, #9
    7224:	00000832 	andeq	r0, r0, r2, lsr r8
    7228:	00311801 	eorseq	r1, r1, r1, lsl #16
    722c:	10210000 	eorne	r0, r1, r0
    7230:	27000000 	strcs	r0, [r0, -r0]
    7234:	00000879 	andeq	r0, r0, r9, ror r8
    7238:	00250e01 	eoreq	r0, r5, r1, lsl #28
    723c:	90cc0000 	sbcls	r0, ip, r0
    7240:	00180000 	andseq	r0, r8, r0
    7244:	9c010000 	stcls	0, cr0, [r1], {-0}
    7248:	000009d3 	ldrdeq	r0, [r0], -r3
    724c:	00083222 	andeq	r3, r8, r2, lsr #4
    7250:	310f0100 	mrscc	r0, (UNDEF: 31)
    7254:	4b000000 	blmi	725c <_start-0xda4>
    7258:	00000010 	andeq	r0, r0, r0, lsl r0
    725c:	00084328 	andeq	r4, r8, r8, lsr #6
    7260:	00084300 	andeq	r4, r8, r0, lsl #6
    7264:	284f0600 	stmdacs	pc, {r9, sl}^	; <UNPREDICTABLE>
    7268:	0000080b 	andeq	r0, r0, fp, lsl #16
    726c:	0000080b 	andeq	r0, r0, fp, lsl #16
    7270:	17009b06 	strne	r9, [r0, -r6, lsl #22]
    7274:	04000009 	streq	r0, [r0], #-9
    7278:	00159400 	andseq	r9, r5, r0, lsl #8
    727c:	c8010400 	stmdagt	r1, {sl}
    7280:	0c000003 	stceq	0, cr0, [r0], {3}
    7284:	00000887 	andeq	r0, r0, r7, lsl #17
    7288:	000006de 	ldrdeq	r0, [r0], -lr
    728c:	00009144 	andeq	r9, r0, r4, asr #2
    7290:	00000028 	andeq	r0, r0, r8, lsr #32
    7294:	00000bdb 	ldrdeq	r0, [r0], -fp
    7298:	69050402 	stmdbvs	r5, {r1, sl}
    729c:	0300746e 	movweq	r7, #1134	; 0x46e
    72a0:	00660704 	rsbeq	r0, r6, r4, lsl #14
    72a4:	01030000 	mrseq	r0, (UNDEF: 3)
    72a8:	0002ec06 	andeq	lr, r2, r6, lsl #24
    72ac:	05020300 	streq	r0, [r2, #-768]	; 0xfffffd00
    72b0:	00000306 	andeq	r0, r0, r6, lsl #6
    72b4:	af050403 	svcge	0x00050403
    72b8:	03000000 	movweq	r0, #0
    72bc:	00aa0508 	adceq	r0, sl, r8, lsl #10
    72c0:	01030000 	mrseq	r0, (UNDEF: 3)
    72c4:	0002ea08 	andeq	lr, r2, r8, lsl #20
    72c8:	07020300 	streq	r0, [r2, -r0, lsl #6]
    72cc:	00000225 	andeq	r0, r0, r5, lsr #4
    72d0:	61070403 	tstvs	r7, r3, lsl #8
    72d4:	03000000 	movweq	r0, #0
    72d8:	005c0708 	subseq	r0, ip, r8, lsl #14
    72dc:	d8040000 	stmdale	r4, {}	; <UNPREDICTABLE>
    72e0:	02000002 	andeq	r0, r0, #2
    72e4:	00002507 	andeq	r2, r0, r7, lsl #10
    72e8:	02c70400 	sbceq	r0, r7, #0, 8
    72ec:	2c030000 	stccs	0, cr0, [r3], {-0}
    72f0:	00000041 	andeq	r0, r0, r1, asr #32
    72f4:	0003b104 	andeq	fp, r3, r4, lsl #2
    72f8:	41720300 	cmnmi	r2, r0, lsl #6
    72fc:	05000000 	streq	r0, [r0, #-0]
    7300:	00000268 	andeq	r0, r0, r8, ror #4
    7304:	2c016504 	cfstr32cs	mvfx6, [r1], {4}
    7308:	06000000 	streq	r0, [r0], -r0
    730c:	b7a60304 	strlt	r0, [r6, r4, lsl #6]!
    7310:	07000000 	streq	r0, [r0, -r0]
    7314:	00000262 	andeq	r0, r0, r2, ror #4
    7318:	008ca803 	addeq	sl, ip, r3, lsl #16
    731c:	e5070000 	str	r0, [r7, #-0]
    7320:	03000001 	movweq	r0, #1
    7324:	0000b7a9 	andeq	fp, r0, r9, lsr #15
    7328:	4f080000 	svcmi	0x00080000
    732c:	c7000000 	strgt	r0, [r0, -r0]
    7330:	09000000 	stmdbeq	r0, {}	; <UNPREDICTABLE>
    7334:	000000c7 	andeq	r0, r0, r7, asr #1
    7338:	04030003 	streq	r0, [r3], #-3
    733c:	00029b07 	andeq	r9, r2, r7, lsl #22
    7340:	03080a00 	movweq	r0, #35328	; 0x8a00
    7344:	0000efa3 	andeq	lr, r0, r3, lsr #31
    7348:	039b0b00 	orrseq	r0, fp, #0, 22
    734c:	a5030000 	strge	r0, [r3, #-0]
    7350:	00000025 	andeq	r0, r0, r5, lsr #32
    7354:	03a30b00 			; <UNDEFINED> instruction: 0x03a30b00
    7358:	aa030000 	bge	c7360 <__bss_end__+0xbd2f0>
    735c:	00000098 	muleq	r0, r8, r0
    7360:	2e040004 	cdpcs	0, 0, cr0, cr4, cr4, {0}
    7364:	03000003 	movweq	r0, #3
    7368:	0000ceab 	andeq	ip, r0, fp, lsr #29
    736c:	01a20400 			; <UNDEFINED> instruction: 0x01a20400
    7370:	af030000 	svcge	0x00030000
    7374:	0000006b 	andeq	r0, r0, fp, rrx
    7378:	040d040c 	streq	r0, [sp], #-1036	; 0xfffffbf4
    737c:	0000010d 	andeq	r0, r0, sp, lsl #2
    7380:	f3080103 	vrhadd.u8	d0, d8, d3
    7384:	0e000002 	cdpeq	0, 0, cr0, cr0, cr2, {0}
    7388:	0000010d 	andeq	r0, r0, sp, lsl #2
    738c:	00044504 	andeq	r4, r4, r4, lsl #10
    7390:	5d160500 	cfldr32pl	mvfx0, [r6, #-0]
    7394:	0f000000 	svceq	0x00000000
    7398:	000001b3 			; <UNDEFINED> instruction: 0x000001b3
    739c:	772d0518 			; <UNDEFINED> instruction: 0x772d0518
    73a0:	0b000001 	bleq	73ac <_start-0xc54>
    73a4:	0000034f 	andeq	r0, r0, pc, asr #6
    73a8:	01772f05 	cmneq	r7, r5, lsl #30
    73ac:	10000000 	andne	r0, r0, r0
    73b0:	05006b5f 	streq	r6, [r0, #-2911]	; 0xfffff4a1
    73b4:	00002530 	andeq	r2, r0, r0, lsr r5
    73b8:	860b0400 	strhi	r0, [fp], -r0, lsl #8
    73bc:	05000003 	streq	r0, [r0, #-3]
    73c0:	00002530 	andeq	r2, r0, r0, lsr r5
    73c4:	9c0b0800 	stcls	8, cr0, [fp], {-0}
    73c8:	05000001 	streq	r0, [r0, #-1]
    73cc:	00002530 	andeq	r2, r0, r0, lsr r5
    73d0:	a10b0c00 	tstge	fp, r0, lsl #24
    73d4:	05000004 	streq	r0, [r0, #-4]
    73d8:	00002530 	andeq	r2, r0, r0, lsr r5
    73dc:	5f101000 	svcpl	0x00101000
    73e0:	31050078 	tstcc	r5, r8, ror r0
    73e4:	0000017d 	andeq	r0, r0, sp, ror r1
    73e8:	040d0014 	streq	r0, [sp], #-20	; 0xffffffec
    73ec:	00000124 	andeq	r0, r0, r4, lsr #2
    73f0:	00011908 	andeq	r1, r1, r8, lsl #18
    73f4:	00018d00 	andeq	r8, r1, r0, lsl #26
    73f8:	00c70900 	sbceq	r0, r7, r0, lsl #18
    73fc:	00000000 	andeq	r0, r0, r0
    7400:	0001e00f 	andeq	lr, r1, pc
    7404:	35052400 	strcc	r2, [r5, #-1024]	; 0xfffffc00
    7408:	00000206 	andeq	r0, r0, r6, lsl #4
    740c:	0000a10b 	andeq	sl, r0, fp, lsl #2
    7410:	25370500 	ldrcs	r0, [r7, #-1280]!	; 0xfffffb00
    7414:	00000000 	andeq	r0, r0, r0
    7418:	0003b90b 	andeq	fp, r3, fp, lsl #18
    741c:	25380500 	ldrcs	r0, [r8, #-1280]!	; 0xfffffb00
    7420:	04000000 	streq	r0, [r0], #-0
    7424:	0000c40b 	andeq	ip, r0, fp, lsl #8
    7428:	25390500 	ldrcs	r0, [r9, #-1280]!	; 0xfffffb00
    742c:	08000000 	stmdaeq	r0, {}	; <UNPREDICTABLE>
    7430:	0005220b 	andeq	r2, r5, fp, lsl #4
    7434:	253a0500 	ldrcs	r0, [sl, #-1280]!	; 0xfffffb00
    7438:	0c000000 	stceq	0, cr0, [r0], {-0}
    743c:	0002ab0b 	andeq	sl, r2, fp, lsl #22
    7440:	253b0500 	ldrcs	r0, [fp, #-1280]!	; 0xfffffb00
    7444:	10000000 	andne	r0, r0, r0
    7448:	0002840b 	andeq	r8, r2, fp, lsl #8
    744c:	253c0500 	ldrcs	r0, [ip, #-1280]!	; 0xfffffb00
    7450:	14000000 	strne	r0, [r0], #-0
    7454:	0004a60b 	andeq	sl, r4, fp, lsl #12
    7458:	253d0500 	ldrcs	r0, [sp, #-1280]!	; 0xfffffb00
    745c:	18000000 	stmdane	r0, {}	; <UNPREDICTABLE>
    7460:	0003100b 	andeq	r1, r3, fp
    7464:	253e0500 	ldrcs	r0, [lr, #-1280]!	; 0xfffffb00
    7468:	1c000000 	stcne	0, cr0, [r0], {-0}
    746c:	0004e90b 	andeq	lr, r4, fp, lsl #18
    7470:	253f0500 	ldrcs	r0, [pc, #-1280]!	; 6f78 <_start-0x1088>
    7474:	20000000 	andcs	r0, r0, r0
    7478:	01041100 	mrseq	r1, (UNDEF: 20)
    747c:	01080000 	mrseq	r0, (UNDEF: 8)
    7480:	02464805 	subeq	r4, r6, #327680	; 0x50000
    7484:	8f0b0000 	svchi	0x000b0000
    7488:	05000001 	streq	r0, [r0, #-1]
    748c:	00024649 	andeq	r4, r2, r9, asr #12
    7490:	000b0000 	andeq	r0, fp, r0
    7494:	05000000 	streq	r0, [r0, #-0]
    7498:	0002464a 	andeq	r4, r2, sl, asr #12
    749c:	37128000 	ldrcc	r8, [r2, -r0]
    74a0:	05000004 	streq	r0, [r0, #-4]
    74a4:	0001194c 	andeq	r1, r1, ip, asr #18
    74a8:	12010000 	andne	r0, r1, #0
    74ac:	00000129 	andeq	r0, r0, r9, lsr #2
    74b0:	01194f05 	tsteq	r9, r5, lsl #30
    74b4:	01040000 	mrseq	r0, (UNDEF: 4)
    74b8:	01050800 	tsteq	r5, r0, lsl #16
    74bc:	02560000 	subseq	r0, r6, #0
    74c0:	c7090000 	strgt	r0, [r9, -r0]
    74c4:	1f000000 	svcne	0x00000000
    74c8:	02b41100 	adcseq	r1, r4, #0, 2
    74cc:	01900000 	orrseq	r0, r0, r0
    74d0:	02945b05 	addseq	r5, r4, #5120	; 0x1400
    74d4:	4f0b0000 	svcmi	0x000b0000
    74d8:	05000003 	streq	r0, [r0, #-3]
    74dc:	0002945c 	andeq	r9, r2, ip, asr r4
    74e0:	670b0000 	strvs	r0, [fp, -r0]
    74e4:	05000003 	streq	r0, [r0, #-3]
    74e8:	0000255d 	andeq	r2, r0, sp, asr r5
    74ec:	970b0400 	strls	r0, [fp, -r0, lsl #8]
    74f0:	05000001 	streq	r0, [r0, #-1]
    74f4:	00029a5f 	andeq	r9, r2, pc, asr sl
    74f8:	040b0800 	streq	r0, [fp], #-2048	; 0xfffff800
    74fc:	05000001 	streq	r0, [r0, #-1]
    7500:	00020660 	andeq	r0, r2, r0, ror #12
    7504:	0d008800 	stceq	8, cr8, [r0, #-0]
    7508:	00025604 	andeq	r5, r2, r4, lsl #12
    750c:	02aa0800 	adceq	r0, sl, #0, 16
    7510:	02aa0000 	adceq	r0, sl, #0
    7514:	c7090000 	strgt	r0, [r9, -r0]
    7518:	1f000000 	svcne	0x00000000
    751c:	b0040d00 	andlt	r0, r4, r0, lsl #26
    7520:	13000002 	movwne	r0, #2
    7524:	00031a0f 	andeq	r1, r3, pc, lsl #20
    7528:	73050800 	movwvc	r0, #22528	; 0x5800
    752c:	000002d6 	ldrdeq	r0, [r0], -r6
    7530:	0000be0b 	andeq	fp, r0, fp, lsl #28
    7534:	d6740500 	ldrbtle	r0, [r4], -r0, lsl #10
    7538:	00000002 	andeq	r0, r0, r2
    753c:	00001b0b 	andeq	r1, r0, fp, lsl #22
    7540:	25750500 	ldrbcs	r0, [r5, #-1280]!	; 0xfffffb00
    7544:	04000000 	streq	r0, [r0], #-0
    7548:	4f040d00 	svcmi	0x00040d00
    754c:	0f000000 	svceq	0x00000000
    7550:	00000339 	andeq	r0, r0, r9, lsr r3
    7554:	06b30568 	ldrteq	r0, [r3], r8, ror #10
    7558:	10000004 	andne	r0, r0, r4
    755c:	0500705f 	streq	r7, [r0, #-95]	; 0xffffffa1
    7560:	0002d6b4 			; <UNDEFINED> instruction: 0x0002d6b4
    7564:	5f100000 	svcpl	0x00100000
    7568:	b5050072 	strlt	r0, [r5, #-114]	; 0xffffff8e
    756c:	00000025 	andeq	r0, r0, r5, lsr #32
    7570:	775f1004 	ldrbvc	r1, [pc, -r4]
    7574:	25b60500 	ldrcs	r0, [r6, #1280]!	; 0x500
    7578:	08000000 	stmdaeq	r0, {}	; <UNPREDICTABLE>
    757c:	0001220b 	andeq	r2, r1, fp, lsl #4
    7580:	3ab70500 	bcc	fedc8988 <__bss_end__+0xfedbe918>
    7584:	0c000000 	stceq	0, cr0, [r0], {-0}
    7588:	00020b0b 	andeq	r0, r2, fp, lsl #22
    758c:	3ab80500 	bcc	fee08994 <__bss_end__+0xfedfe924>
    7590:	0e000000 	cdpeq	0, 0, cr0, cr0, cr0, {0}
    7594:	66625f10 	uqadd16vs	r5, r2, r0
    7598:	b1b90500 			; <UNDEFINED> instruction: 0xb1b90500
    759c:	10000002 	andne	r0, r0, r2
    75a0:	00007b0b 	andeq	r7, r0, fp, lsl #22
    75a4:	25ba0500 	ldrcs	r0, [sl, #1280]!	; 0x500
    75a8:	18000000 	stmdane	r0, {}	; <UNPREDICTABLE>
    75ac:	0001120b 	andeq	r1, r1, fp, lsl #4
    75b0:	05c10500 	strbeq	r0, [r1, #1280]	; 0x500
    75b4:	1c000001 	stcne	0, cr0, [r0], {1}
    75b8:	000a780b 	andeq	r7, sl, fp, lsl #16
    75bc:	61c30500 	bicvs	r0, r3, r0, lsl #10
    75c0:	20000005 	andcs	r0, r0, r5
    75c4:	00060c0b 	andeq	r0, r6, fp, lsl #24
    75c8:	8bc50500 	blhi	ff1489d0 <__bss_end__+0xff13e960>
    75cc:	24000005 	strcs	r0, [r0], #-5
    75d0:	0003ab0b 	andeq	sl, r3, fp, lsl #22
    75d4:	afc80500 	svcge	0x00c80500
    75d8:	28000005 	stmdacs	r0, {r0, r2}
    75dc:	0005030b 	andeq	r0, r5, fp, lsl #6
    75e0:	c9c90500 	stmibgt	r9, {r8, sl}^
    75e4:	2c000005 	stccs	0, cr0, [r0], {5}
    75e8:	62755f10 	rsbsvs	r5, r5, #16, 30	; 0x40
    75ec:	b1cc0500 	biclt	r0, ip, r0, lsl #10
    75f0:	30000002 	andcc	r0, r0, r2
    75f4:	70755f10 	rsbsvc	r5, r5, r0, lsl pc
    75f8:	d6cd0500 	strble	r0, [sp], r0, lsl #10
    75fc:	38000002 	stmdacc	r0, {r1}
    7600:	72755f10 	rsbsvc	r5, r5, #16, 30	; 0x40
    7604:	25ce0500 	strbcs	r0, [lr, #1280]	; 0x500
    7608:	3c000000 	stccc	0, cr0, [r0], {-0}
    760c:	0000b80b 	andeq	fp, r0, fp, lsl #16
    7610:	cfd10500 	svcgt	0x00d10500
    7614:	40000005 	andmi	r0, r0, r5
    7618:	0004db0b 	andeq	sp, r4, fp, lsl #22
    761c:	dfd20500 	svcle	0x00d20500
    7620:	43000005 	movwmi	r0, #5
    7624:	626c5f10 	rsbvs	r5, ip, #16, 30	; 0x40
    7628:	b1d50500 	bicslt	r0, r5, r0, lsl #10
    762c:	44000002 	strmi	r0, [r0], #-2
    7630:	0001400b 	andeq	r4, r1, fp
    7634:	25d80500 	ldrbcs	r0, [r8, #1280]	; 0x500
    7638:	4c000000 	stcmi	0, cr0, [r0], {-0}
    763c:	0001510b 	andeq	r5, r1, fp, lsl #2
    7640:	76d90500 	ldrbvc	r0, [r9], r0, lsl #10
    7644:	50000000 	andpl	r0, r0, r0
    7648:	000a190b 	andeq	r1, sl, fp, lsl #18
    764c:	24dc0500 	ldrbcs	r0, [ip], #1280	; 0x500
    7650:	54000004 	strpl	r0, [r0], #-4
    7654:	0002760b 	andeq	r7, r2, fp, lsl #12
    7658:	fae00500 	blx	ff808a60 <__bss_end__+0xff7fe9f0>
    765c:	58000000 	stmdapl	r0, {}	; <UNPREDICTABLE>
    7660:	0003410b 	andeq	r4, r3, fp, lsl #2
    7664:	efe20500 	svc	0x00e20500
    7668:	5c000000 	stcpl	0, cr0, [r0], {-0}
    766c:	00027c0b 	andeq	r7, r2, fp, lsl #24
    7670:	25e30500 	strbcs	r0, [r3, #1280]!	; 0x500
    7674:	64000000 	strvs	r0, [r0], #-0
    7678:	00251400 	eoreq	r1, r5, r0, lsl #8
    767c:	04240000 	strteq	r0, [r4], #-0
    7680:	24150000 	ldrcs	r0, [r5], #-0
    7684:	15000004 	strne	r0, [r0, #-4]
    7688:	00000105 	andeq	r0, r0, r5, lsl #2
    768c:	00010715 	andeq	r0, r1, r5, lsl r7
    7690:	00251500 	eoreq	r1, r5, r0, lsl #10
    7694:	0d000000 	stceq	0, cr0, [r0, #-0]
    7698:	00042f04 	andeq	r2, r4, r4, lsl #30
    769c:	04240e00 	strteq	r0, [r4], #-3584	; 0xfffff200
    76a0:	8e160000 	cdphi	0, 1, cr0, cr6, cr0, {0}
    76a4:	28000003 	stmdacs	r0, {r0, r1}
    76a8:	02380504 	eorseq	r0, r8, #4, 10	; 0x1000000
    76ac:	00000561 	andeq	r0, r0, r1, ror #10
    76b0:	0002ff17 	andeq	pc, r2, r7, lsl pc	; <UNPREDICTABLE>
    76b4:	023a0500 	eorseq	r0, sl, #0, 10
    76b8:	00000025 	andeq	r0, r0, r5, lsr #32
    76bc:	01311700 	teqeq	r1, r0, lsl #14
    76c0:	3f050000 	svccc	0x00050000
    76c4:	00063602 	andeq	r3, r6, r2, lsl #12
    76c8:	fb170400 	blx	5c86d2 <__bss_end__+0x5be662>
    76cc:	05000001 	streq	r0, [r0, #-1]
    76d0:	0636023f 			; <UNDEFINED> instruction: 0x0636023f
    76d4:	17080000 	strne	r0, [r8, -r0]
    76d8:	000001ab 	andeq	r0, r0, fp, lsr #3
    76dc:	36023f05 	strcc	r3, [r2], -r5, lsl #30
    76e0:	0c000006 	stceq	0, cr0, [r0], {6}
    76e4:	00036217 	andeq	r6, r3, r7, lsl r2
    76e8:	02410500 	subeq	r0, r1, #0, 10
    76ec:	00000025 	andeq	r0, r0, r5, lsr #32
    76f0:	00291710 	eoreq	r1, r9, r0, lsl r7
    76f4:	42050000 	andmi	r0, r5, #0
    76f8:	00081802 	andeq	r1, r8, r2, lsl #16
    76fc:	7b171400 	blvc	5cc704 <__bss_end__+0x5c2694>
    7700:	05000004 	streq	r0, [r0, #-4]
    7704:	00250244 	eoreq	r0, r5, r4, asr #4
    7708:	17300000 	ldrne	r0, [r0, -r0]!
    770c:	0000036c 	andeq	r0, r0, ip, ror #6
    7710:	85024505 	strhi	r4, [r2, #-1285]	; 0xfffffafb
    7714:	34000005 	strcc	r0, [r0], #-5
    7718:	0002bc17 	andeq	fp, r2, r7, lsl ip
    771c:	02470500 	subeq	r0, r7, #0, 10
    7720:	00000025 	andeq	r0, r0, r5, lsr #32
    7724:	037c1738 	cmneq	ip, #56, 14	; 0xe00000
    7728:	49050000 	stmdbmi	r5, {}	; <UNPREDICTABLE>
    772c:	00083302 	andeq	r3, r8, r2, lsl #6
    7730:	5a173c00 	bpl	5d6738 <__bss_end__+0x5cc6c8>
    7734:	05000002 	streq	r0, [r0, #-2]
    7738:	0177024c 	cmneq	r7, ip, asr #4
    773c:	17400000 	strbne	r0, [r0, -r0]
    7740:	000001ca 	andeq	r0, r0, sl, asr #3
    7744:	25024d05 	strcs	r4, [r2, #-3333]	; 0xfffff2fb
    7748:	44000000 	strmi	r0, [r0], #-0
    774c:	00051d17 	andeq	r1, r5, r7, lsl sp
    7750:	024e0500 	subeq	r0, lr, #0, 10
    7754:	00000177 	andeq	r0, r0, r7, ror r1
    7758:	02ce1748 	sbceq	r1, lr, #72, 14	; 0x1200000
    775c:	4f050000 	svcmi	0x00050000
    7760:	00083902 	andeq	r3, r8, r2, lsl #18
    7764:	03174c00 	tsteq	r7, #0, 24
    7768:	05000002 	streq	r0, [r0, #-2]
    776c:	00250252 	eoreq	r0, r5, r2, asr r2
    7770:	17500000 	ldrbne	r0, [r0, -r0]
    7774:	00000149 	andeq	r0, r0, r9, asr #2
    7778:	07025305 	streq	r5, [r2, -r5, lsl #6]
    777c:	54000001 	strpl	r0, [r0], #-1
    7780:	0002f817 	andeq	pc, r2, r7, lsl r8	; <UNPREDICTABLE>
    7784:	02760500 	rsbseq	r0, r6, #0, 10
    7788:	000007f6 	strdeq	r0, [r0], -r6
    778c:	02b41858 	adcseq	r1, r4, #88, 16	; 0x580000
    7790:	7a050000 	bvc	147798 <__bss_end__+0x13d728>
    7794:	00029402 	andeq	r9, r2, r2, lsl #8
    7798:	18014800 	stmdane	r1, {fp, lr}
    779c:	00000238 	andeq	r0, r0, r8, lsr r2
    77a0:	56027b05 	strpl	r7, [r2], -r5, lsl #22
    77a4:	4c000002 	stcmi	0, cr0, [r0], {2}
    77a8:	04c91801 	strbeq	r1, [r9], #2049	; 0x801
    77ac:	7f050000 	svcvc	0x00050000
    77b0:	00084a02 	andeq	r4, r8, r2, lsl #20
    77b4:	1802dc00 	stmdane	r2, {sl, fp, ip, lr, pc}
    77b8:	0000011a 	andeq	r0, r0, sl, lsl r1
    77bc:	fb028405 	blx	a87da <__bss_end__+0x9e76a>
    77c0:	e0000005 	and	r0, r0, r5
    77c4:	00ff1802 	rscseq	r1, pc, r2, lsl #16
    77c8:	85050000 	strhi	r0, [r5, #-0]
    77cc:	00085602 	andeq	r5, r8, r2, lsl #12
    77d0:	0002ec00 	andeq	lr, r2, r0, lsl #24
    77d4:	0406040d 	streq	r0, [r6], #-1037	; 0xfffffbf3
    77d8:	25140000 	ldrcs	r0, [r4, #-0]
    77dc:	85000000 	strhi	r0, [r0, #-0]
    77e0:	15000005 	strne	r0, [r0, #-5]
    77e4:	00000424 	andeq	r0, r0, r4, lsr #8
    77e8:	00010515 	andeq	r0, r1, r5, lsl r5
    77ec:	05851500 	streq	r1, [r5, #1280]	; 0x500
    77f0:	25150000 	ldrcs	r0, [r5, #-0]
    77f4:	00000000 	andeq	r0, r0, r0
    77f8:	0114040d 	tsteq	r4, sp, lsl #8
    77fc:	040d0000 	streq	r0, [sp], #-0
    7800:	00000567 	andeq	r0, r0, r7, ror #10
    7804:	00008114 	andeq	r8, r0, r4, lsl r1
    7808:	0005af00 	andeq	sl, r5, r0, lsl #30
    780c:	04241500 	strteq	r1, [r4], #-1280	; 0xfffffb00
    7810:	05150000 	ldreq	r0, [r5, #-0]
    7814:	15000001 	strne	r0, [r0, #-1]
    7818:	00000081 	andeq	r0, r0, r1, lsl #1
    781c:	00002515 	andeq	r2, r0, r5, lsl r5
    7820:	040d0000 	streq	r0, [sp], #-0
    7824:	00000591 	muleq	r0, r1, r5
    7828:	00002514 	andeq	r2, r0, r4, lsl r5
    782c:	0005c900 	andeq	ip, r5, r0, lsl #18
    7830:	04241500 	strteq	r1, [r4], #-1280	; 0xfffffb00
    7834:	05150000 	ldreq	r0, [r5, #-0]
    7838:	00000001 	andeq	r0, r0, r1
    783c:	05b5040d 	ldreq	r0, [r5, #1037]!	; 0x40d
    7840:	4f080000 	svcmi	0x00080000
    7844:	df000000 	svcle	0x00000000
    7848:	09000005 	stmdbeq	r0, {r0, r2}
    784c:	000000c7 	andeq	r0, r0, r7, asr #1
    7850:	4f080002 	svcmi	0x00080002
    7854:	ef000000 	svc	0x00000000
    7858:	09000005 	stmdbeq	r0, {r0, r2}
    785c:	000000c7 	andeq	r0, r0, r7, asr #1
    7860:	27050000 	strcs	r0, [r5, -r0]
    7864:	05000003 	streq	r0, [r0, #-3]
    7868:	02dc011d 	sbcseq	r0, ip, #1073741831	; 0x40000007
    786c:	b0190000 	andslt	r0, r9, r0
    7870:	0c000004 	stceq	0, cr0, [r0], {4}
    7874:	30012105 	andcc	r2, r1, r5, lsl #2
    7878:	17000006 	strne	r0, [r0, -r6]
    787c:	0000034f 	andeq	r0, r0, pc, asr #6
    7880:	30012305 	andcc	r2, r1, r5, lsl #6
    7884:	00000006 	andeq	r0, r0, r6
    7888:	00021e17 	andeq	r1, r2, r7, lsl lr
    788c:	01240500 			; <UNDEFINED> instruction: 0x01240500
    7890:	00000025 	andeq	r0, r0, r5, lsr #32
    7894:	03211704 			; <UNDEFINED> instruction: 0x03211704
    7898:	25050000 	strcs	r0, [r5, #-0]
    789c:	00063601 	andeq	r3, r6, r1, lsl #12
    78a0:	0d000800 	stceq	8, cr0, [r0, #-0]
    78a4:	0005fb04 	andeq	pc, r5, r4, lsl #22
    78a8:	ef040d00 	svc	0x00040d00
    78ac:	19000005 	stmdbne	r0, {r0, r2}
    78b0:	00000021 	andeq	r0, r0, r1, lsr #32
    78b4:	013d050e 	teqeq	sp, lr, lsl #10
    78b8:	00000671 	andeq	r0, r0, r1, ror r6
    78bc:	00039517 	andeq	r9, r3, r7, lsl r5
    78c0:	013e0500 	teqeq	lr, r0, lsl #10
    78c4:	00000671 	andeq	r0, r0, r1, ror r6
    78c8:	03c21700 	biceq	r1, r2, #0, 14
    78cc:	3f050000 	svccc	0x00050000
    78d0:	00067101 	andeq	r7, r6, r1, lsl #2
    78d4:	40170600 	andsmi	r0, r7, r0, lsl #12
    78d8:	05000004 	streq	r0, [r0, #-4]
    78dc:	00560140 	subseq	r0, r6, r0, asr #2
    78e0:	000c0000 	andeq	r0, ip, r0
    78e4:	00005608 	andeq	r5, r0, r8, lsl #12
    78e8:	00068100 	andeq	r8, r6, r0, lsl #2
    78ec:	00c70900 	sbceq	r0, r7, r0, lsl #18
    78f0:	00020000 	andeq	r0, r2, r0
    78f4:	5705d01a 	smladpl	r5, sl, r0, sp
    78f8:	00078202 	andeq	r8, r7, r2, lsl #4
    78fc:	04941700 	ldreq	r1, [r4], #1792	; 0x700
    7900:	59050000 	stmdbpl	r5, {}	; <UNPREDICTABLE>
    7904:	00002c02 	andeq	r2, r0, r2, lsl #24
    7908:	2a170000 	bcs	5c7910 <__bss_end__+0x5bd8a0>
    790c:	05000004 	streq	r0, [r0, #-4]
    7910:	0107025a 	tsteq	r7, sl, asr r2
    7914:	17040000 	strne	r0, [r4, -r0]
    7918:	0000024d 	andeq	r0, r0, sp, asr #4
    791c:	82025b05 	andhi	r5, r2, #5120	; 0x1400
    7920:	08000007 	stmdaeq	r0, {r0, r1, r2}
    7924:	0004f417 	andeq	pc, r4, r7, lsl r4	; <UNPREDICTABLE>
    7928:	025c0500 	subseq	r0, ip, #0, 10
    792c:	0000018d 	andeq	r0, r0, sp, lsl #3
    7930:	01bb1724 			; <UNDEFINED> instruction: 0x01bb1724
    7934:	5d050000 	stcpl	0, cr0, [r5, #-0]
    7938:	00002502 	andeq	r2, r0, r2, lsl #10
    793c:	4a174800 	bmi	5d9944 <__bss_end__+0x5cf8d4>
    7940:	05000003 	streq	r0, [r0, #-3]
    7944:	0064025e 	rsbeq	r0, r4, lr, asr r2
    7948:	17500000 	ldrbne	r0, [r0, -r0]
    794c:	0000050a 	andeq	r0, r0, sl, lsl #10
    7950:	3c025f05 	stccc	15, cr5, [r2], {5}
    7954:	58000006 	stmdapl	r0, {r1, r2}
    7958:	00035517 	andeq	r5, r3, r7, lsl r5
    795c:	02600500 	rsbeq	r0, r0, #0, 10
    7960:	000000ef 	andeq	r0, r0, pc, ror #1
    7964:	050f1768 	streq	r1, [pc, #-1896]	; 7204 <_start-0xdfc>
    7968:	61050000 	mrsvs	r0, (UNDEF: 5)
    796c:	0000ef02 	andeq	lr, r0, r2, lsl #30
    7970:	93177000 	tstls	r7, #0
    7974:	05000000 	streq	r0, [r0, #-0]
    7978:	00ef0262 	rsceq	r0, pc, r2, ror #4
    797c:	17780000 	ldrbne	r0, [r8, -r0]!
    7980:	000004bf 			; <UNDEFINED> instruction: 0x000004bf
    7984:	92026305 	andls	r6, r2, #335544320	; 0x14000000
    7988:	80000007 	andhi	r0, r0, r7
    798c:	00024117 	andeq	r4, r2, r7, lsl r1
    7990:	02640500 	rsbeq	r0, r4, #0, 10
    7994:	000007a2 	andeq	r0, r0, r2, lsr #15
    7998:	044d1788 	strbeq	r1, [sp], #-1928	; 0xfffff878
    799c:	65050000 	strvs	r0, [r5, #-0]
    79a0:	00002502 	andeq	r2, r0, r2, lsl #10
    79a4:	8117a000 	tsthi	r7, r0
    79a8:	05000001 	streq	r0, [r0, #-1]
    79ac:	00ef0266 	rsceq	r0, pc, r6, ror #4
    79b0:	17a40000 	strne	r0, [r4, r0]!
    79b4:	00000084 	andeq	r0, r0, r4, lsl #1
    79b8:	ef026705 	svc	0x00026705
    79bc:	ac000000 	stcge	0, cr0, [r0], {-0}
    79c0:	00017017 	andeq	r7, r1, r7, lsl r0
    79c4:	02680500 	rsbeq	r0, r8, #0, 10
    79c8:	000000ef 	andeq	r0, r0, pc, ror #1
    79cc:	003c17b4 	ldrhteq	r1, [ip], -r4
    79d0:	69050000 	stmdbvs	r5, {}	; <UNPREDICTABLE>
    79d4:	0000ef02 	andeq	lr, r0, r2, lsl #30
    79d8:	4b17bc00 	blmi	5f69e0 <__bss_end__+0x5ec970>
    79dc:	05000000 	streq	r0, [r0, #-0]
    79e0:	00ef026a 	rsceq	r0, pc, sl, ror #4
    79e4:	17c40000 	strbne	r0, [r4, r0]
    79e8:	000002fd 	strdeq	r0, [r0], -sp
    79ec:	25026b05 	strcs	r6, [r2, #-2821]	; 0xfffff4fb
    79f0:	cc000000 	stcgt	0, cr0, [r0], {-0}
    79f4:	010d0800 	tsteq	sp, r0, lsl #16
    79f8:	07920000 	ldreq	r0, [r2, r0]
    79fc:	c7090000 	strgt	r0, [r9, -r0]
    7a00:	19000000 	stmdbne	r0, {}	; <UNPREDICTABLE>
    7a04:	010d0800 	tsteq	sp, r0, lsl #16
    7a08:	07a20000 	streq	r0, [r2, r0]!
    7a0c:	c7090000 	strgt	r0, [r9, -r0]
    7a10:	07000000 	streq	r0, [r0, -r0]
    7a14:	010d0800 	tsteq	sp, r0, lsl #16
    7a18:	07b20000 	ldreq	r0, [r2, r0]!
    7a1c:	c7090000 	strgt	r0, [r9, -r0]
    7a20:	17000000 	strne	r0, [r0, -r0]
    7a24:	05f01a00 	ldrbeq	r1, [r0, #2560]!	; 0xa00
    7a28:	07d60270 			; <UNDEFINED> instruction: 0x07d60270
    7a2c:	a4170000 	ldrge	r0, [r7], #-0
    7a30:	05000002 	streq	r0, [r0, #-2]
    7a34:	07d60273 			; <UNDEFINED> instruction: 0x07d60273
    7a38:	17000000 	strne	r0, [r0, -r0]
    7a3c:	000004b6 			; <UNDEFINED> instruction: 0x000004b6
    7a40:	e6027405 	str	r7, [r2], -r5, lsl #8
    7a44:	78000007 	stmdavc	r0, {r0, r1, r2}
    7a48:	02d60800 	sbcseq	r0, r6, #0, 16
    7a4c:	07e60000 	strbeq	r0, [r6, r0]!
    7a50:	c7090000 	strgt	r0, [r9, -r0]
    7a54:	1d000000 	stcne	0, cr0, [r0, #-0]
    7a58:	002c0800 	eoreq	r0, ip, r0, lsl #16
    7a5c:	07f60000 	ldrbeq	r0, [r6, r0]!
    7a60:	c7090000 	strgt	r0, [r9, -r0]
    7a64:	1d000000 	stcne	0, cr0, [r0, #-0]
    7a68:	05f01b00 	ldrbeq	r1, [r0, #2816]!	; 0xb00
    7a6c:	08180255 	ldmdaeq	r8, {r0, r2, r4, r6, r9}
    7a70:	8e1c0000 	cdphi	0, 1, cr0, cr12, cr0, {0}
    7a74:	05000003 	streq	r0, [r0, #-3]
    7a78:	0681026c 	streq	r0, [r1], ip, ror #4
    7a7c:	e11c0000 	tst	ip, r0
    7a80:	05000004 	streq	r0, [r0, #-4]
    7a84:	07b20275 			; <UNDEFINED> instruction: 0x07b20275
    7a88:	08000000 	stmdaeq	r0, {}	; <UNPREDICTABLE>
    7a8c:	0000010d 	andeq	r0, r0, sp, lsl #2
    7a90:	00000828 	andeq	r0, r0, r8, lsr #16
    7a94:	0000c709 	andeq	ip, r0, r9, lsl #14
    7a98:	1d001800 	stcne	8, cr1, [r0, #-0]
    7a9c:	00000833 	andeq	r0, r0, r3, lsr r8
    7aa0:	00042415 	andeq	r2, r4, r5, lsl r4
    7aa4:	040d0000 	streq	r0, [sp], #-0
    7aa8:	00000828 	andeq	r0, r0, r8, lsr #16
    7aac:	0177040d 	cmneq	r7, sp, lsl #8
    7ab0:	4a1d0000 	bmi	747ab8 <__bss_end__+0x73da48>
    7ab4:	15000008 	strne	r0, [r0, #-8]
    7ab8:	00000025 	andeq	r0, r0, r5, lsr #32
    7abc:	50040d00 	andpl	r0, r4, r0, lsl #26
    7ac0:	0d000008 	stceq	0, cr0, [r0, #-32]	; 0xffffffe0
    7ac4:	00083f04 	andeq	r3, r8, r4, lsl #30
    7ac8:	05ef0800 	strbeq	r0, [pc, #2048]!	; 82d0 <check_hdr+0x3c>
    7acc:	08660000 	stmdaeq	r6!, {}^	; <UNPREDICTABLE>
    7ad0:	c7090000 	strgt	r0, [r9, -r0]
    7ad4:	02000000 	andeq	r0, r0, #0
    7ad8:	046f1e00 	strbteq	r1, [pc], #-3584	; 7ae0 <_start-0x520>
    7adc:	fd050000 	stc2	0, cr0, [r5, #-0]
    7ae0:	00042402 	andeq	r2, r4, r2, lsl #8
    7ae4:	04681e00 	strbteq	r1, [r8], #-3584	; 0xfffff200
    7ae8:	fe050000 	cdp2	0, 0, cr0, cr5, cr0, {0}
    7aec:	00042a02 	andeq	r2, r4, r2, lsl #20
    7af0:	00251400 	eoreq	r1, r5, r0, lsl #8
    7af4:	088d0000 	stmeq	sp, {}	; <UNPREDICTABLE>
    7af8:	25150000 	ldrcs	r0, [r5, #-0]
    7afc:	00000000 	andeq	r0, r0, r0
    7b00:	0001d41f 	andeq	sp, r1, pc, lsl r4
    7b04:	981d0600 	ldmdals	sp, {r9, sl}
    7b08:	0d000008 	stceq	0, cr0, [r0, #-32]	; 0xffffffe0
    7b0c:	00087e04 	andeq	r7, r8, r4, lsl #28
    7b10:	00251400 	eoreq	r1, r5, r0, lsl #8
    7b14:	08ad0000 	stmiaeq	sp!, {}	; <UNPREDICTABLE>
    7b18:	85150000 	ldrhi	r0, [r5, #-0]
    7b1c:	00000005 	andeq	r0, r0, r5
    7b20:	0007691f 	andeq	r6, r7, pc, lsl r9
    7b24:	b8220600 	stmdalt	r2!, {r9, sl}
    7b28:	0d000008 	stceq	0, cr0, [r0, #-32]	; 0xffffffe0
    7b2c:	00089e04 	andeq	r9, r8, r4, lsl #28
    7b30:	028e2000 	addeq	r2, lr, #0
    7b34:	04010000 	streq	r0, [r1], #-0
    7b38:	00009144 	andeq	r9, r0, r4, asr #2
    7b3c:	00000028 	andeq	r0, r0, r8, lsr #32
    7b40:	09049c01 	stmdbeq	r4, {r0, sl, fp, ip, pc}
    7b44:	58210000 	stmdapl	r1!, {}	; <UNPREDICTABLE>
    7b48:	e6000091 			; <UNDEFINED> instruction: 0xe6000091
    7b4c:	22000008 	andcs	r0, r0, #8
    7b50:	03055001 	movweq	r5, #20481	; 0x5001
    7b54:	00009b34 	andeq	r9, r0, r4, lsr fp
    7b58:	91602300 	cmnls	r0, r0, lsl #6
    7b5c:	09040000 	stmdbeq	r4, {}	; <UNPREDICTABLE>
    7b60:	08fa0000 	ldmeq	sl!, {}^	; <UNPREDICTABLE>
    7b64:	01220000 			; <UNDEFINED> instruction: 0x01220000
    7b68:	64080250 	strvs	r0, [r8], #-592	; 0xfffffdb0
    7b6c:	91642400 	cmnls	r4, r0, lsl #8
    7b70:	090f0000 	stmdbeq	pc, {}	; <UNPREDICTABLE>
    7b74:	25000000 	strcs	r0, [r0, #-0]
    7b78:	00000843 	andeq	r0, r0, r3, asr #16
    7b7c:	00000843 	andeq	r0, r0, r3, asr #16
    7b80:	4c254f06 	stcmi	15, cr4, [r5], #-24	; 0xffffffe8
    7b84:	4c000008 	stcmi	0, cr0, [r0], {8}
    7b88:	06000008 	streq	r0, [r0], -r8
    7b8c:	0a170062 	beq	5c7d1c <__bss_end__+0x5bdcac>
    7b90:	00040000 	andeq	r0, r4, r0
    7b94:	00001777 	andeq	r1, r0, r7, ror r7
    7b98:	03c80104 	biceq	r0, r8, #4, 2
    7b9c:	c60c0000 	strgt	r0, [ip], -r0
    7ba0:	de000008 	cdple	0, 0, cr0, cr0, cr8, {0}
    7ba4:	6c000006 	stcvs	0, cr0, [r0], {6}
    7ba8:	88000091 	stmdahi	r0, {r0, r4, r7}
    7bac:	c0000000 	andgt	r0, r0, r0
    7bb0:	0200000c 	andeq	r0, r0, #12
    7bb4:	6e690504 	cdpvs	5, 6, cr0, cr9, cr4, {0}
    7bb8:	04030074 	streq	r0, [r3], #-116	; 0xffffff8c
    7bbc:	00006607 	andeq	r6, r0, r7, lsl #12
    7bc0:	06010300 	streq	r0, [r1], -r0, lsl #6
    7bc4:	000002ec 	andeq	r0, r0, ip, ror #5
    7bc8:	06050203 	streq	r0, [r5], -r3, lsl #4
    7bcc:	03000003 	movweq	r0, #3
    7bd0:	00af0504 	adceq	r0, pc, r4, lsl #10
    7bd4:	08030000 	stmdaeq	r3, {}	; <UNPREDICTABLE>
    7bd8:	0000aa05 	andeq	sl, r0, r5, lsl #20
    7bdc:	08010300 	stmdaeq	r1, {r8, r9}
    7be0:	000002ea 	andeq	r0, r0, sl, ror #5
    7be4:	25070203 	strcs	r0, [r7, #-515]	; 0xfffffdfd
    7be8:	03000002 	movweq	r0, #2
    7bec:	00610704 	rsbeq	r0, r1, r4, lsl #14
    7bf0:	08030000 	stmdaeq	r3, {}	; <UNPREDICTABLE>
    7bf4:	00005c07 	andeq	r5, r0, r7, lsl #24
    7bf8:	02d80400 	sbcseq	r0, r8, #0, 8
    7bfc:	07020000 	streq	r0, [r2, -r0]
    7c00:	00000025 	andeq	r0, r0, r5, lsr #32
    7c04:	0002c704 	andeq	ip, r2, r4, lsl #14
    7c08:	412c0300 			; <UNDEFINED> instruction: 0x412c0300
    7c0c:	04000000 	streq	r0, [r0], #-0
    7c10:	000003b1 			; <UNDEFINED> instruction: 0x000003b1
    7c14:	00417203 	subeq	r7, r1, r3, lsl #4
    7c18:	68050000 	stmdavs	r5, {}	; <UNPREDICTABLE>
    7c1c:	04000002 	streq	r0, [r0], #-2
    7c20:	002c0165 	eoreq	r0, ip, r5, ror #2
    7c24:	04060000 	streq	r0, [r6], #-0
    7c28:	00b7a603 	adcseq	sl, r7, r3, lsl #12
    7c2c:	62070000 	andvs	r0, r7, #0
    7c30:	03000002 	movweq	r0, #2
    7c34:	00008ca8 	andeq	r8, r0, r8, lsr #25
    7c38:	01e50700 	mvneq	r0, r0, lsl #14
    7c3c:	a9030000 	stmdbge	r3, {}	; <UNPREDICTABLE>
    7c40:	000000b7 	strheq	r0, [r0], -r7
    7c44:	004f0800 	subeq	r0, pc, r0, lsl #16
    7c48:	00c70000 	sbceq	r0, r7, r0
    7c4c:	c7090000 	strgt	r0, [r9, -r0]
    7c50:	03000000 	movweq	r0, #0
    7c54:	07040300 	streq	r0, [r4, -r0, lsl #6]
    7c58:	0000029b 	muleq	r0, fp, r2
    7c5c:	a303080a 	movwge	r0, #14346	; 0x380a
    7c60:	000000ef 	andeq	r0, r0, pc, ror #1
    7c64:	00039b0b 	andeq	r9, r3, fp, lsl #22
    7c68:	25a50300 	strcs	r0, [r5, #768]!	; 0x300
    7c6c:	00000000 	andeq	r0, r0, r0
    7c70:	0003a30b 	andeq	sl, r3, fp, lsl #6
    7c74:	98aa0300 	stmials	sl!, {r8, r9}
    7c78:	04000000 	streq	r0, [r0], #-0
    7c7c:	032e0400 			; <UNDEFINED> instruction: 0x032e0400
    7c80:	ab030000 	blge	c7c88 <__bss_end__+0xbdc18>
    7c84:	000000ce 	andeq	r0, r0, lr, asr #1
    7c88:	0001a204 	andeq	sl, r1, r4, lsl #4
    7c8c:	6baf0300 	blvs	febc8894 <__bss_end__+0xfebbe824>
    7c90:	0c000000 	stceq	0, cr0, [r0], {-0}
    7c94:	0d040d04 	stceq	13, cr0, [r4, #-16]
    7c98:	03000001 	movweq	r0, #1
    7c9c:	02f30801 	rscseq	r0, r3, #65536	; 0x10000
    7ca0:	0d0e0000 	stceq	0, cr0, [lr, #-0]
    7ca4:	04000001 	streq	r0, [r0], #-1
    7ca8:	00000445 	andeq	r0, r0, r5, asr #8
    7cac:	005d1605 	subseq	r1, sp, r5, lsl #12
    7cb0:	b30f0000 	movwlt	r0, #61440	; 0xf000
    7cb4:	18000001 	stmdane	r0, {r0}
    7cb8:	01772d05 	cmneq	r7, r5, lsl #26
    7cbc:	4f0b0000 	svcmi	0x000b0000
    7cc0:	05000003 	streq	r0, [r0, #-3]
    7cc4:	0001772f 	andeq	r7, r1, pc, lsr #14
    7cc8:	5f100000 	svcpl	0x00100000
    7ccc:	3005006b 	andcc	r0, r5, fp, rrx
    7cd0:	00000025 	andeq	r0, r0, r5, lsr #32
    7cd4:	03860b04 	orreq	r0, r6, #4, 22	; 0x1000
    7cd8:	30050000 	andcc	r0, r5, r0
    7cdc:	00000025 	andeq	r0, r0, r5, lsr #32
    7ce0:	019c0b08 	orrseq	r0, ip, r8, lsl #22
    7ce4:	30050000 	andcc	r0, r5, r0
    7ce8:	00000025 	andeq	r0, r0, r5, lsr #32
    7cec:	04a10b0c 	strteq	r0, [r1], #2828	; 0xb0c
    7cf0:	30050000 	andcc	r0, r5, r0
    7cf4:	00000025 	andeq	r0, r0, r5, lsr #32
    7cf8:	785f1010 	ldmdavc	pc, {r4, ip}^	; <UNPREDICTABLE>
    7cfc:	7d310500 	cfldr32vc	mvfx0, [r1, #-0]
    7d00:	14000001 	strne	r0, [r0], #-1
    7d04:	24040d00 	strcs	r0, [r4], #-3328	; 0xfffff300
    7d08:	08000001 	stmdaeq	r0, {r0}
    7d0c:	00000119 	andeq	r0, r0, r9, lsl r1
    7d10:	0000018d 	andeq	r0, r0, sp, lsl #3
    7d14:	0000c709 	andeq	ip, r0, r9, lsl #14
    7d18:	0f000000 	svceq	0x00000000
    7d1c:	000001e0 	andeq	r0, r0, r0, ror #3
    7d20:	06350524 	ldrteq	r0, [r5], -r4, lsr #10
    7d24:	0b000002 	bleq	7d34 <_start-0x2cc>
    7d28:	000000a1 	andeq	r0, r0, r1, lsr #1
    7d2c:	00253705 	eoreq	r3, r5, r5, lsl #14
    7d30:	0b000000 	bleq	7d38 <_start-0x2c8>
    7d34:	000003b9 			; <UNDEFINED> instruction: 0x000003b9
    7d38:	00253805 	eoreq	r3, r5, r5, lsl #16
    7d3c:	0b040000 	bleq	107d44 <__bss_end__+0xfdcd4>
    7d40:	000000c4 	andeq	r0, r0, r4, asr #1
    7d44:	00253905 	eoreq	r3, r5, r5, lsl #18
    7d48:	0b080000 	bleq	207d50 <__bss_end__+0x1fdce0>
    7d4c:	00000522 	andeq	r0, r0, r2, lsr #10
    7d50:	00253a05 	eoreq	r3, r5, r5, lsl #20
    7d54:	0b0c0000 	bleq	307d5c <__bss_end__+0x2fdcec>
    7d58:	000002ab 	andeq	r0, r0, fp, lsr #5
    7d5c:	00253b05 	eoreq	r3, r5, r5, lsl #22
    7d60:	0b100000 	bleq	407d68 <__bss_end__+0x3fdcf8>
    7d64:	00000284 	andeq	r0, r0, r4, lsl #5
    7d68:	00253c05 	eoreq	r3, r5, r5, lsl #24
    7d6c:	0b140000 	bleq	507d74 <__bss_end__+0x4fdd04>
    7d70:	000004a6 	andeq	r0, r0, r6, lsr #9
    7d74:	00253d05 	eoreq	r3, r5, r5, lsl #26
    7d78:	0b180000 	bleq	607d80 <__bss_end__+0x5fdd10>
    7d7c:	00000310 	andeq	r0, r0, r0, lsl r3
    7d80:	00253e05 	eoreq	r3, r5, r5, lsl #28
    7d84:	0b1c0000 	bleq	707d8c <__bss_end__+0x6fdd1c>
    7d88:	000004e9 	andeq	r0, r0, r9, ror #9
    7d8c:	00253f05 	eoreq	r3, r5, r5, lsl #30
    7d90:	00200000 	eoreq	r0, r0, r0
    7d94:	00010411 	andeq	r0, r1, r1, lsl r4
    7d98:	05010800 	streq	r0, [r1, #-2048]	; 0xfffff800
    7d9c:	00024648 	andeq	r4, r2, r8, asr #12
    7da0:	018f0b00 	orreq	r0, pc, r0, lsl #22
    7da4:	49050000 	stmdbmi	r5, {}	; <UNPREDICTABLE>
    7da8:	00000246 	andeq	r0, r0, r6, asr #4
    7dac:	00000b00 	andeq	r0, r0, r0, lsl #22
    7db0:	4a050000 	bmi	147db8 <__bss_end__+0x13dd48>
    7db4:	00000246 	andeq	r0, r0, r6, asr #4
    7db8:	04371280 	ldrteq	r1, [r7], #-640	; 0xfffffd80
    7dbc:	4c050000 	stcmi	0, cr0, [r5], {-0}
    7dc0:	00000119 	andeq	r0, r0, r9, lsl r1
    7dc4:	29120100 	ldmdbcs	r2, {r8}
    7dc8:	05000001 	streq	r0, [r0, #-1]
    7dcc:	0001194f 	andeq	r1, r1, pc, asr #18
    7dd0:	00010400 	andeq	r0, r1, r0, lsl #8
    7dd4:	00010508 	andeq	r0, r1, r8, lsl #10
    7dd8:	00025600 	andeq	r5, r2, r0, lsl #12
    7ddc:	00c70900 	sbceq	r0, r7, r0, lsl #18
    7de0:	001f0000 	andseq	r0, pc, r0
    7de4:	0002b411 	andeq	fp, r2, r1, lsl r4
    7de8:	05019000 	streq	r9, [r1, #-0]
    7dec:	0002945b 	andeq	r9, r2, fp, asr r4
    7df0:	034f0b00 	movteq	r0, #64256	; 0xfb00
    7df4:	5c050000 	stcpl	0, cr0, [r5], {-0}
    7df8:	00000294 	muleq	r0, r4, r2
    7dfc:	03670b00 	cmneq	r7, #0, 22
    7e00:	5d050000 	stcpl	0, cr0, [r5, #-0]
    7e04:	00000025 	andeq	r0, r0, r5, lsr #32
    7e08:	01970b04 	orrseq	r0, r7, r4, lsl #22
    7e0c:	5f050000 	svcpl	0x00050000
    7e10:	0000029a 	muleq	r0, sl, r2
    7e14:	01040b08 	tsteq	r4, r8, lsl #22
    7e18:	60050000 	andvs	r0, r5, r0
    7e1c:	00000206 	andeq	r0, r0, r6, lsl #4
    7e20:	040d0088 	streq	r0, [sp], #-136	; 0xffffff78
    7e24:	00000256 	andeq	r0, r0, r6, asr r2
    7e28:	0002aa08 	andeq	sl, r2, r8, lsl #20
    7e2c:	0002aa00 	andeq	sl, r2, r0, lsl #20
    7e30:	00c70900 	sbceq	r0, r7, r0, lsl #18
    7e34:	001f0000 	andseq	r0, pc, r0
    7e38:	02b0040d 	adcseq	r0, r0, #218103808	; 0xd000000
    7e3c:	0f130000 	svceq	0x00130000
    7e40:	0000031a 	andeq	r0, r0, sl, lsl r3
    7e44:	d6730508 	ldrbtle	r0, [r3], -r8, lsl #10
    7e48:	0b000002 	bleq	7e58 <_start-0x1a8>
    7e4c:	000000be 	strheq	r0, [r0], -lr
    7e50:	02d67405 	sbcseq	r7, r6, #83886080	; 0x5000000
    7e54:	0b000000 	bleq	7e5c <_start-0x1a4>
    7e58:	0000001b 	andeq	r0, r0, fp, lsl r0
    7e5c:	00257505 	eoreq	r7, r5, r5, lsl #10
    7e60:	00040000 	andeq	r0, r4, r0
    7e64:	004f040d 	subeq	r0, pc, sp, lsl #8
    7e68:	390f0000 	stmdbcc	pc, {}	; <UNPREDICTABLE>
    7e6c:	68000003 	stmdavs	r0, {r0, r1}
    7e70:	0406b305 	streq	fp, [r6], #-773	; 0xfffffcfb
    7e74:	5f100000 	svcpl	0x00100000
    7e78:	b4050070 	strlt	r0, [r5], #-112	; 0xffffff90
    7e7c:	000002d6 	ldrdeq	r0, [r0], -r6
    7e80:	725f1000 	subsvc	r1, pc, #0
    7e84:	25b50500 	ldrcs	r0, [r5, #1280]!	; 0x500
    7e88:	04000000 	streq	r0, [r0], #-0
    7e8c:	00775f10 	rsbseq	r5, r7, r0, lsl pc
    7e90:	0025b605 	eoreq	fp, r5, r5, lsl #12
    7e94:	0b080000 	bleq	207e9c <__bss_end__+0x1fde2c>
    7e98:	00000122 	andeq	r0, r0, r2, lsr #2
    7e9c:	003ab705 	eorseq	fp, sl, r5, lsl #14
    7ea0:	0b0c0000 	bleq	307ea8 <__bss_end__+0x2fde38>
    7ea4:	0000020b 	andeq	r0, r0, fp, lsl #4
    7ea8:	003ab805 	eorseq	fp, sl, r5, lsl #16
    7eac:	100e0000 	andne	r0, lr, r0
    7eb0:	0066625f 	rsbeq	r6, r6, pc, asr r2
    7eb4:	02b1b905 	adcseq	fp, r1, #81920	; 0x14000
    7eb8:	0b100000 	bleq	407ec0 <__bss_end__+0x3fde50>
    7ebc:	0000007b 	andeq	r0, r0, fp, ror r0
    7ec0:	0025ba05 	eoreq	fp, r5, r5, lsl #20
    7ec4:	0b180000 	bleq	607ecc <__bss_end__+0x5fde5c>
    7ec8:	00000112 	andeq	r0, r0, r2, lsl r1
    7ecc:	0105c105 	tsteq	r5, r5, lsl #2
    7ed0:	0b1c0000 	bleq	707ed8 <__bss_end__+0x6fde68>
    7ed4:	00000a78 	andeq	r0, r0, r8, ror sl
    7ed8:	0561c305 	strbeq	ip, [r1, #-773]!	; 0xfffffcfb
    7edc:	0b200000 	bleq	807ee4 <__bss_end__+0x7fde74>
    7ee0:	0000060c 	andeq	r0, r0, ip, lsl #12
    7ee4:	058bc505 	streq	ip, [fp, #1285]	; 0x505
    7ee8:	0b240000 	bleq	907ef0 <__bss_end__+0x8fde80>
    7eec:	000003ab 	andeq	r0, r0, fp, lsr #7
    7ef0:	05afc805 	streq	ip, [pc, #2053]!	; 86fd <ckalloc+0xdd>
    7ef4:	0b280000 	bleq	a07efc <__bss_end__+0x9fde8c>
    7ef8:	00000503 	andeq	r0, r0, r3, lsl #10
    7efc:	05c9c905 	strbeq	ip, [r9, #2309]	; 0x905
    7f00:	102c0000 	eorne	r0, ip, r0
    7f04:	0062755f 	rsbeq	r7, r2, pc, asr r5
    7f08:	02b1cc05 	adcseq	ip, r1, #1280	; 0x500
    7f0c:	10300000 	eorsne	r0, r0, r0
    7f10:	0070755f 	rsbseq	r7, r0, pc, asr r5
    7f14:	02d6cd05 	sbcseq	ip, r6, #320	; 0x140
    7f18:	10380000 	eorsne	r0, r8, r0
    7f1c:	0072755f 	rsbseq	r7, r2, pc, asr r5
    7f20:	0025ce05 	eoreq	ip, r5, r5, lsl #28
    7f24:	0b3c0000 	bleq	f07f2c <__bss_end__+0xefdebc>
    7f28:	000000b8 	strheq	r0, [r0], -r8
    7f2c:	05cfd105 	strbeq	sp, [pc, #261]	; 8039 <notmain+0x29>
    7f30:	0b400000 	bleq	1007f38 <__bss_end__+0xffdec8>
    7f34:	000004db 	ldrdeq	r0, [r0], -fp
    7f38:	05dfd205 	ldrbeq	sp, [pc, #517]	; 8145 <b_rz2_nbytes+0x9>
    7f3c:	10430000 	subne	r0, r3, r0
    7f40:	00626c5f 	rsbeq	r6, r2, pc, asr ip
    7f44:	02b1d505 	adcseq	sp, r1, #20971520	; 0x1400000
    7f48:	0b440000 	bleq	1107f50 <__bss_end__+0x10fdee0>
    7f4c:	00000140 	andeq	r0, r0, r0, asr #2
    7f50:	0025d805 	eoreq	sp, r5, r5, lsl #16
    7f54:	0b4c0000 	bleq	1307f5c <__bss_end__+0x12fdeec>
    7f58:	00000151 	andeq	r0, r0, r1, asr r1
    7f5c:	0076d905 	rsbseq	sp, r6, r5, lsl #18
    7f60:	0b500000 	bleq	1407f68 <__bss_end__+0x13fdef8>
    7f64:	00000a19 	andeq	r0, r0, r9, lsl sl
    7f68:	0424dc05 	strteq	sp, [r4], #-3077	; 0xfffff3fb
    7f6c:	0b540000 	bleq	1507f74 <__bss_end__+0x14fdf04>
    7f70:	00000276 	andeq	r0, r0, r6, ror r2
    7f74:	00fae005 	rscseq	lr, sl, r5
    7f78:	0b580000 	bleq	1607f80 <__bss_end__+0x15fdf10>
    7f7c:	00000341 	andeq	r0, r0, r1, asr #6
    7f80:	00efe205 	rsceq	lr, pc, r5, lsl #4
    7f84:	0b5c0000 	bleq	1707f8c <__bss_end__+0x16fdf1c>
    7f88:	0000027c 	andeq	r0, r0, ip, ror r2
    7f8c:	0025e305 	eoreq	lr, r5, r5, lsl #6
    7f90:	00640000 	rsbeq	r0, r4, r0
    7f94:	00002514 	andeq	r2, r0, r4, lsl r5
    7f98:	00042400 	andeq	r2, r4, r0, lsl #8
    7f9c:	04241500 	strteq	r1, [r4], #-1280	; 0xfffffb00
    7fa0:	05150000 	ldreq	r0, [r5, #-0]
    7fa4:	15000001 	strne	r0, [r0, #-1]
    7fa8:	00000107 	andeq	r0, r0, r7, lsl #2
    7fac:	00002515 	andeq	r2, r0, r5, lsl r5
    7fb0:	040d0000 	streq	r0, [sp], #-0
    7fb4:	0000042f 	andeq	r0, r0, pc, lsr #8
    7fb8:	0004240e 	andeq	r2, r4, lr, lsl #8
    7fbc:	038e1600 	orreq	r1, lr, #0, 12
    7fc0:	04280000 	strteq	r0, [r8], #-0
    7fc4:	61023805 	tstvs	r2, r5, lsl #16
    7fc8:	17000005 	strne	r0, [r0, -r5]
    7fcc:	000002ff 	strdeq	r0, [r0], -pc	; <UNPREDICTABLE>
    7fd0:	25023a05 	strcs	r3, [r2, #-2565]	; 0xfffff5fb
    7fd4:	00000000 	andeq	r0, r0, r0
    7fd8:	00013117 	andeq	r3, r1, r7, lsl r1
    7fdc:	023f0500 	eorseq	r0, pc, #0, 10
    7fe0:	00000636 	andeq	r0, r0, r6, lsr r6
    7fe4:	01fb1704 	mvnseq	r1, r4, lsl #14
    7fe8:	3f050000 	svccc	0x00050000
    7fec:	00063602 	andeq	r3, r6, r2, lsl #12
    7ff0:	ab170800 	blge	5c9ff8 <__bss_end__+0x5bff88>
    7ff4:	05000001 	streq	r0, [r0, #-1]
    7ff8:	0636023f 			; <UNDEFINED> instruction: 0x0636023f
    7ffc:	170c0000 	strne	r0, [ip, -r0]
    8000:	00000362 	andeq	r0, r0, r2, ror #6
    8004:	25024105 	strcs	r4, [r2, #-261]	; 0xfffffefb
    8008:	10000000 	andne	r0, r0, r0
    800c:	00002917 	andeq	r2, r0, r7, lsl r9
    8010:	02420500 	subeq	r0, r2, #0, 10
    8014:	00000818 	andeq	r0, r0, r8, lsl r8
    8018:	047b1714 	ldrbteq	r1, [fp], #-1812	; 0xfffff8ec
    801c:	44050000 	strmi	r0, [r5], #-0
    8020:	00002502 	andeq	r2, r0, r2, lsl #10
    8024:	6c173000 	ldcvs	0, cr3, [r7], {-0}
    8028:	05000003 	streq	r0, [r0, #-3]
    802c:	05850245 	streq	r0, [r5, #581]	; 0x245
    8030:	17340000 	ldrne	r0, [r4, -r0]!
    8034:	000002bc 			; <UNDEFINED> instruction: 0x000002bc
    8038:	25024705 	strcs	r4, [r2, #-1797]	; 0xfffff8fb
    803c:	38000000 	stmdacc	r0, {}	; <UNPREDICTABLE>
    8040:	00037c17 	andeq	r7, r3, r7, lsl ip
    8044:	02490500 	subeq	r0, r9, #0, 10
    8048:	00000833 	andeq	r0, r0, r3, lsr r8
    804c:	025a173c 	subseq	r1, sl, #60, 14	; 0xf00000
    8050:	4c050000 	stcmi	0, cr0, [r5], {-0}
    8054:	00017702 	andeq	r7, r1, r2, lsl #14
    8058:	ca174000 	bgt	5d8060 <__bss_end__+0x5cdff0>
    805c:	05000001 	streq	r0, [r0, #-1]
    8060:	0025024d 	eoreq	r0, r5, sp, asr #4
    8064:	17440000 	strbne	r0, [r4, -r0]
    8068:	0000051d 	andeq	r0, r0, sp, lsl r5
    806c:	77024e05 	strvc	r4, [r2, -r5, lsl #28]
    8070:	48000001 	stmdami	r0, {r0}
    8074:	0002ce17 	andeq	ip, r2, r7, lsl lr
    8078:	024f0500 	subeq	r0, pc, #0, 10
    807c:	00000839 	andeq	r0, r0, r9, lsr r8
    8080:	0203174c 	andeq	r1, r3, #76, 14	; 0x1300000
    8084:	52050000 	andpl	r0, r5, #0
    8088:	00002502 	andeq	r2, r0, r2, lsl #10
    808c:	49175000 	ldmdbmi	r7, {ip, lr}
    8090:	05000001 	streq	r0, [r0, #-1]
    8094:	01070253 	tsteq	r7, r3, asr r2
    8098:	17540000 	ldrbne	r0, [r4, -r0]
    809c:	000002f8 	strdeq	r0, [r0], -r8
    80a0:	f6027605 			; <UNDEFINED> instruction: 0xf6027605
    80a4:	58000007 	stmdapl	r0, {r0, r1, r2}
    80a8:	0002b418 	andeq	fp, r2, r8, lsl r4
    80ac:	027a0500 	rsbseq	r0, sl, #0, 10
    80b0:	00000294 	muleq	r0, r4, r2
    80b4:	38180148 	ldmdacc	r8, {r3, r6, r8}
    80b8:	05000002 	streq	r0, [r0, #-2]
    80bc:	0256027b 	subseq	r0, r6, #-1342177273	; 0xb0000007
    80c0:	014c0000 	mrseq	r0, (UNDEF: 76)
    80c4:	0004c918 	andeq	ip, r4, r8, lsl r9
    80c8:	027f0500 	rsbseq	r0, pc, #0, 10
    80cc:	0000084a 	andeq	r0, r0, sl, asr #16
    80d0:	1a1802dc 	bne	608c48 <__bss_end__+0x5febd8>
    80d4:	05000001 	streq	r0, [r0, #-1]
    80d8:	05fb0284 	ldrbeq	r0, [fp, #644]!	; 0x284
    80dc:	02e00000 	rsceq	r0, r0, #0
    80e0:	0000ff18 	andeq	pc, r0, r8, lsl pc	; <UNPREDICTABLE>
    80e4:	02850500 	addeq	r0, r5, #0, 10
    80e8:	00000856 	andeq	r0, r0, r6, asr r8
    80ec:	0d0002ec 	sfmeq	f0, 4, [r0, #-944]	; 0xfffffc50
    80f0:	00040604 	andeq	r0, r4, r4, lsl #12
    80f4:	00251400 	eoreq	r1, r5, r0, lsl #8
    80f8:	05850000 	streq	r0, [r5]
    80fc:	24150000 	ldrcs	r0, [r5], #-0
    8100:	15000004 	strne	r0, [r0, #-4]
    8104:	00000105 	andeq	r0, r0, r5, lsl #2
    8108:	00058515 	andeq	r8, r5, r5, lsl r5
    810c:	00251500 	eoreq	r1, r5, r0, lsl #10
    8110:	0d000000 	stceq	0, cr0, [r0, #-0]
    8114:	00011404 	andeq	r1, r1, r4, lsl #8
    8118:	67040d00 	strvs	r0, [r4, -r0, lsl #26]
    811c:	14000005 	strne	r0, [r0], #-5
    8120:	00000081 	andeq	r0, r0, r1, lsl #1
    8124:	000005af 	andeq	r0, r0, pc, lsr #11
    8128:	00042415 	andeq	r2, r4, r5, lsl r4
    812c:	01051500 	tsteq	r5, r0, lsl #10
    8130:	81150000 	tsthi	r5, r0
    8134:	15000000 	strne	r0, [r0, #-0]
    8138:	00000025 	andeq	r0, r0, r5, lsr #32
    813c:	91040d00 	tstls	r4, r0, lsl #26
    8140:	14000005 	strne	r0, [r0], #-5
    8144:	00000025 	andeq	r0, r0, r5, lsr #32
    8148:	000005c9 	andeq	r0, r0, r9, asr #11
    814c:	00042415 	andeq	r2, r4, r5, lsl r4
    8150:	01051500 	tsteq	r5, r0, lsl #10
    8154:	0d000000 	stceq	0, cr0, [r0, #-0]
    8158:	0005b504 	andeq	fp, r5, r4, lsl #10
    815c:	004f0800 	subeq	r0, pc, r0, lsl #16
    8160:	05df0000 	ldrbeq	r0, [pc]	; 8168 <check_free_write+0x18>
    8164:	c7090000 	strgt	r0, [r9, -r0]
    8168:	02000000 	andeq	r0, r0, #0
    816c:	004f0800 	subeq	r0, pc, r0, lsl #16
    8170:	05ef0000 	strbeq	r0, [pc, #0]!	; 8178 <check_free_write+0x28>
    8174:	c7090000 	strgt	r0, [r9, -r0]
    8178:	00000000 	andeq	r0, r0, r0
    817c:	03270500 			; <UNDEFINED> instruction: 0x03270500
    8180:	1d050000 	stcne	0, cr0, [r5, #-0]
    8184:	0002dc01 	andeq	sp, r2, r1, lsl #24
    8188:	04b01900 	ldrteq	r1, [r0], #2304	; 0x900
    818c:	050c0000 	streq	r0, [ip, #-0]
    8190:	06300121 	ldrteq	r0, [r0], -r1, lsr #2
    8194:	4f170000 	svcmi	0x00170000
    8198:	05000003 	streq	r0, [r0, #-3]
    819c:	06300123 	ldrteq	r0, [r0], -r3, lsr #2
    81a0:	17000000 	strne	r0, [r0, -r0]
    81a4:	0000021e 	andeq	r0, r0, lr, lsl r2
    81a8:	25012405 	strcs	r2, [r1, #-1029]	; 0xfffffbfb
    81ac:	04000000 	streq	r0, [r0], #-0
    81b0:	00032117 	andeq	r2, r3, r7, lsl r1
    81b4:	01250500 			; <UNDEFINED> instruction: 0x01250500
    81b8:	00000636 	andeq	r0, r0, r6, lsr r6
    81bc:	040d0008 	streq	r0, [sp], #-8
    81c0:	000005fb 	strdeq	r0, [r0], -fp
    81c4:	05ef040d 	strbeq	r0, [pc, #1037]!	; 85d9 <ckfree+0x71>
    81c8:	21190000 	tstcs	r9, r0
    81cc:	0e000000 	cdpeq	0, 0, cr0, cr0, cr0, {0}
    81d0:	71013d05 	tstvc	r1, r5, lsl #26
    81d4:	17000006 	strne	r0, [r0, -r6]
    81d8:	00000395 	muleq	r0, r5, r3
    81dc:	71013e05 	tstvc	r1, r5, lsl #28
    81e0:	00000006 	andeq	r0, r0, r6
    81e4:	0003c217 	andeq	ip, r3, r7, lsl r2
    81e8:	013f0500 	teqeq	pc, r0, lsl #10
    81ec:	00000671 	andeq	r0, r0, r1, ror r6
    81f0:	04401706 	strbeq	r1, [r0], #-1798	; 0xfffff8fa
    81f4:	40050000 	andmi	r0, r5, r0
    81f8:	00005601 	andeq	r5, r0, r1, lsl #12
    81fc:	08000c00 	stmdaeq	r0, {sl, fp}
    8200:	00000056 	andeq	r0, r0, r6, asr r0
    8204:	00000681 	andeq	r0, r0, r1, lsl #13
    8208:	0000c709 	andeq	ip, r0, r9, lsl #14
    820c:	1a000200 	bne	8a14 <pad+0x24>
    8210:	025705d0 	subseq	r0, r7, #208, 10	; 0x34000000
    8214:	00000782 	andeq	r0, r0, r2, lsl #15
    8218:	00049417 	andeq	r9, r4, r7, lsl r4
    821c:	02590500 	subseq	r0, r9, #0, 10
    8220:	0000002c 	andeq	r0, r0, ip, lsr #32
    8224:	042a1700 	strteq	r1, [sl], #-1792	; 0xfffff900
    8228:	5a050000 	bpl	148230 <__bss_end__+0x13e1c0>
    822c:	00010702 	andeq	r0, r1, r2, lsl #14
    8230:	4d170400 	cfldrsmi	mvf0, [r7, #-0]
    8234:	05000002 	streq	r0, [r0, #-2]
    8238:	0782025b 			; <UNDEFINED> instruction: 0x0782025b
    823c:	17080000 	strne	r0, [r8, -r0]
    8240:	000004f4 	strdeq	r0, [r0], -r4
    8244:	8d025c05 	stchi	12, cr5, [r2, #-20]	; 0xffffffec
    8248:	24000001 	strcs	r0, [r0], #-1
    824c:	0001bb17 	andeq	fp, r1, r7, lsl fp
    8250:	025d0500 	subseq	r0, sp, #0, 10
    8254:	00000025 	andeq	r0, r0, r5, lsr #32
    8258:	034a1748 	movteq	r1, #42824	; 0xa748
    825c:	5e050000 	cdppl	0, 0, cr0, cr5, cr0, {0}
    8260:	00006402 	andeq	r6, r0, r2, lsl #8
    8264:	0a175000 	beq	5dc26c <__bss_end__+0x5d21fc>
    8268:	05000005 	streq	r0, [r0, #-5]
    826c:	063c025f 			; <UNDEFINED> instruction: 0x063c025f
    8270:	17580000 	ldrbne	r0, [r8, -r0]
    8274:	00000355 	andeq	r0, r0, r5, asr r3
    8278:	ef026005 	svc	0x00026005
    827c:	68000000 	stmdavs	r0, {}	; <UNPREDICTABLE>
    8280:	00050f17 	andeq	r0, r5, r7, lsl pc
    8284:	02610500 	rsbeq	r0, r1, #0, 10
    8288:	000000ef 	andeq	r0, r0, pc, ror #1
    828c:	00931770 	addseq	r1, r3, r0, ror r7
    8290:	62050000 	andvs	r0, r5, #0
    8294:	0000ef02 	andeq	lr, r0, r2, lsl #30
    8298:	bf177800 	svclt	0x00177800
    829c:	05000004 	streq	r0, [r0, #-4]
    82a0:	07920263 	ldreq	r0, [r2, r3, ror #4]
    82a4:	17800000 	strne	r0, [r0, r0]
    82a8:	00000241 	andeq	r0, r0, r1, asr #4
    82ac:	a2026405 	andge	r6, r2, #83886080	; 0x5000000
    82b0:	88000007 	stmdahi	r0, {r0, r1, r2}
    82b4:	00044d17 	andeq	r4, r4, r7, lsl sp
    82b8:	02650500 	rsbeq	r0, r5, #0, 10
    82bc:	00000025 	andeq	r0, r0, r5, lsr #32
    82c0:	018117a0 	orreq	r1, r1, r0, lsr #15
    82c4:	66050000 	strvs	r0, [r5], -r0
    82c8:	0000ef02 	andeq	lr, r0, r2, lsl #30
    82cc:	8417a400 	ldrhi	sl, [r7], #-1024	; 0xfffffc00
    82d0:	05000000 	streq	r0, [r0, #-0]
    82d4:	00ef0267 	rsceq	r0, pc, r7, ror #4
    82d8:	17ac0000 	strne	r0, [ip, r0]!
    82dc:	00000170 	andeq	r0, r0, r0, ror r1
    82e0:	ef026805 	svc	0x00026805
    82e4:	b4000000 	strlt	r0, [r0], #-0
    82e8:	00003c17 	andeq	r3, r0, r7, lsl ip
    82ec:	02690500 	rsbeq	r0, r9, #0, 10
    82f0:	000000ef 	andeq	r0, r0, pc, ror #1
    82f4:	004b17bc 	strheq	r1, [fp], #-124	; 0xffffff84
    82f8:	6a050000 	bvs	148300 <__bss_end__+0x13e290>
    82fc:	0000ef02 	andeq	lr, r0, r2, lsl #30
    8300:	fd17c400 	ldc2	4, cr12, [r7, #-0]
    8304:	05000002 	streq	r0, [r0, #-2]
    8308:	0025026b 	eoreq	r0, r5, fp, ror #4
    830c:	00cc0000 	sbceq	r0, ip, r0
    8310:	00010d08 	andeq	r0, r1, r8, lsl #26
    8314:	00079200 	andeq	r9, r7, r0, lsl #4
    8318:	00c70900 	sbceq	r0, r7, r0, lsl #18
    831c:	00190000 	andseq	r0, r9, r0
    8320:	00010d08 	andeq	r0, r1, r8, lsl #26
    8324:	0007a200 	andeq	sl, r7, r0, lsl #4
    8328:	00c70900 	sbceq	r0, r7, r0, lsl #18
    832c:	00070000 	andeq	r0, r7, r0
    8330:	00010d08 	andeq	r0, r1, r8, lsl #26
    8334:	0007b200 	andeq	fp, r7, r0, lsl #4
    8338:	00c70900 	sbceq	r0, r7, r0, lsl #18
    833c:	00170000 	andseq	r0, r7, r0
    8340:	7005f01a 	andvc	pc, r5, sl, lsl r0	; <UNPREDICTABLE>
    8344:	0007d602 	andeq	sp, r7, r2, lsl #12
    8348:	02a41700 	adceq	r1, r4, #0, 14
    834c:	73050000 	movwvc	r0, #20480	; 0x5000
    8350:	0007d602 	andeq	sp, r7, r2, lsl #12
    8354:	b6170000 	ldrlt	r0, [r7], -r0
    8358:	05000004 	streq	r0, [r0, #-4]
    835c:	07e60274 			; <UNDEFINED> instruction: 0x07e60274
    8360:	00780000 	rsbseq	r0, r8, r0
    8364:	0002d608 	andeq	sp, r2, r8, lsl #12
    8368:	0007e600 	andeq	lr, r7, r0, lsl #12
    836c:	00c70900 	sbceq	r0, r7, r0, lsl #18
    8370:	001d0000 	andseq	r0, sp, r0
    8374:	00002c08 	andeq	r2, r0, r8, lsl #24
    8378:	0007f600 	andeq	pc, r7, r0, lsl #12
    837c:	00c70900 	sbceq	r0, r7, r0, lsl #18
    8380:	001d0000 	andseq	r0, sp, r0
    8384:	5505f01b 	strpl	pc, [r5, #-27]	; 0xffffffe5
    8388:	00081802 	andeq	r1, r8, r2, lsl #16
    838c:	038e1c00 	orreq	r1, lr, #0, 24
    8390:	6c050000 	stcvs	0, cr0, [r5], {-0}
    8394:	00068102 	andeq	r8, r6, r2, lsl #2
    8398:	04e11c00 	strbteq	r1, [r1], #3072	; 0xc00
    839c:	75050000 	strvc	r0, [r5, #-0]
    83a0:	0007b202 	andeq	fp, r7, r2, lsl #4
    83a4:	0d080000 	stceq	0, cr0, [r8, #-0]
    83a8:	28000001 	stmdacs	r0, {r0}
    83ac:	09000008 	stmdbeq	r0, {r3}
    83b0:	000000c7 	andeq	r0, r0, r7, asr #1
    83b4:	331d0018 	tstcc	sp, #24
    83b8:	15000008 	strne	r0, [r0, #-8]
    83bc:	00000424 	andeq	r0, r0, r4, lsr #8
    83c0:	28040d00 	stmdacs	r4, {r8, sl, fp}
    83c4:	0d000008 	stceq	0, cr0, [r0, #-32]	; 0xffffffe0
    83c8:	00017704 	andeq	r7, r1, r4, lsl #14
    83cc:	084a1d00 	stmdaeq	sl, {r8, sl, fp, ip}^
    83d0:	25150000 	ldrcs	r0, [r5, #-0]
    83d4:	00000000 	andeq	r0, r0, r0
    83d8:	0850040d 	ldmdaeq	r0, {r0, r2, r3, sl}^
    83dc:	040d0000 	streq	r0, [sp], #-0
    83e0:	0000083f 	andeq	r0, r0, pc, lsr r8
    83e4:	0005ef08 	andeq	lr, r5, r8, lsl #30
    83e8:	00086600 	andeq	r6, r8, r0, lsl #12
    83ec:	00c70900 	sbceq	r0, r7, r0, lsl #18
    83f0:	00020000 	andeq	r0, r2, r0
    83f4:	00046f1e 	andeq	r6, r4, lr, lsl pc
    83f8:	02fd0500 	rscseq	r0, sp, #0, 10
    83fc:	00000424 	andeq	r0, r0, r4, lsr #8
    8400:	0004681e 	andeq	r6, r4, lr, lsl r8
    8404:	02fe0500 	rscseq	r0, lr, #0, 10
    8408:	0000042a 	andeq	r0, r0, sl, lsr #8
    840c:	00002514 	andeq	r2, r0, r4, lsl r5
    8410:	00088d00 	andeq	r8, r8, r0, lsl #26
    8414:	00251500 	eoreq	r1, r5, r0, lsl #10
    8418:	1f000000 	svcne	0x00000000
    841c:	000001d4 	ldrdeq	r0, [r0], -r4
    8420:	08981d06 	ldmeq	r8, {r1, r2, r8, sl, fp, ip}
    8424:	040d0000 	streq	r0, [sp], #-0
    8428:	0000087e 	andeq	r0, r0, lr, ror r8
    842c:	00002514 	andeq	r2, r0, r4, lsl r5
    8430:	0008ad00 	andeq	sl, r8, r0, lsl #26
    8434:	05851500 	streq	r1, [r5, #1280]	; 0x500
    8438:	1f000000 	svcne	0x00000000
    843c:	00000769 	andeq	r0, r0, r9, ror #14
    8440:	08b82206 	ldmeq	r8!, {r1, r2, r9, sp}
    8444:	040d0000 	streq	r0, [sp], #-0
    8448:	0000089e 	muleq	r0, lr, r8
    844c:	0008af20 	andeq	sl, r8, r0, lsr #30
    8450:	e02b0100 	eor	r0, fp, r0, lsl #2
    8454:	14000091 	strne	r0, [r0], #-145	; 0xffffff6f
    8458:	01000000 	mrseq	r0, (UNDEF: 0)
    845c:	0008f89c 	muleq	r8, ip, r8
    8460:	65732100 	ldrbvs	r2, [r3, #-256]!	; 0xffffff00
    8464:	2b010063 	blcs	485f8 <__bss_end__+0x3e588>
    8468:	0000002c 	andeq	r0, r0, ip, lsr #32
    846c:	0000106a 	andeq	r1, r0, sl, rrx
    8470:	0091f022 	addseq	pc, r1, r2, lsr #32
    8474:	0008f800 	andeq	pc, r8, r0, lsl #16
    8478:	50012300 	andpl	r2, r1, r0, lsl #6
    847c:	5001f307 	andpl	pc, r1, r7, lsl #6
    8480:	1e03e80a 	cdpne	8, 0, cr14, cr3, cr10, {0}
    8484:	43200000 	nopmi	{0}	; <UNPREDICTABLE>
    8488:	01000008 	tsteq	r0, r8
    848c:	0091cc28 	addseq	ip, r1, r8, lsr #24
    8490:	00001400 	andeq	r1, r0, r0, lsl #8
    8494:	319c0100 	orrscc	r0, ip, r0, lsl #2
    8498:	21000009 	tstcs	r0, r9
    849c:	0100736d 	tsteq	r0, sp, ror #6
    84a0:	00002c28 	andeq	r2, r0, r8, lsr #24
    84a4:	00108b00 	andseq	r8, r0, r0, lsl #22
    84a8:	91dc2200 	bicsls	r2, ip, r0, lsl #4
    84ac:	09310000 	ldmdbeq	r1!, {}	; <UNPREDICTABLE>
    84b0:	01230000 			; <UNDEFINED> instruction: 0x01230000
    84b4:	01f30750 	mvnseq	r0, r0, asr r7
    84b8:	03e80a50 	mvneq	r0, #80, 20	; 0x50000
    84bc:	2000001e 	andcs	r0, r0, lr, lsl r0
    84c0:	000008f7 	strdeq	r0, [r0], -r7
    84c4:	91a81f01 			; <UNDEFINED> instruction: 0x91a81f01
    84c8:	00240000 	eoreq	r0, r4, r0
    84cc:	9c010000 	stcls	0, cr0, [r1], {-0}
    84d0:	0000098f 	andeq	r0, r0, pc, lsl #19
    84d4:	00737521 	rsbseq	r7, r3, r1, lsr #10
    84d8:	002c1f01 	eoreq	r1, ip, r1, lsl #30
    84dc:	10ac0000 	adcne	r0, ip, r0
    84e0:	72240000 	eorvc	r0, r4, #0
    84e4:	20010062 	andcs	r0, r1, r2, rrx
    84e8:	0000002c 	andeq	r0, r0, ip, lsr #32
    84ec:	b8255401 	stmdalt	r5!, {r0, sl, ip, lr}
    84f0:	10000091 	mulne	r0, r1, r0
    84f4:	85000000 	strhi	r0, [r0, #-0]
    84f8:	26000009 	strcs	r0, [r0], -r9
    84fc:	01006172 	tsteq	r0, r2, ror r1
    8500:	00002c22 	andeq	r2, r0, r2, lsr #24
    8504:	0010ca00 	andseq	ip, r0, r0, lsl #20
    8508:	91bc2700 			; <UNDEFINED> instruction: 0x91bc2700
    850c:	098f0000 	stmibeq	pc, {}	; <UNPREDICTABLE>
    8510:	27000000 	strcs	r0, [r0, -r0]
    8514:	000091b4 			; <UNDEFINED> instruction: 0x000091b4
    8518:	0000098f 	andeq	r0, r0, pc, lsl #19
    851c:	08a02800 	stmiaeq	r0!, {fp, sp}
    8520:	16010000 	strne	r0, [r1], -r0
    8524:	0000002c 	andeq	r0, r0, ip, lsr #32
    8528:	0000919c 	muleq	r0, ip, r1
    852c:	0000000c 	andeq	r0, r0, ip
    8530:	09bd9c01 	ldmibeq	sp!, {r0, sl, fp, ip, pc}
    8534:	75240000 	strvc	r0, [r4, #-0]!
    8538:	2c1a0100 	ldfcss	f0, [sl], {-0}
    853c:	01000000 	mrseq	r0, (UNDEF: 0)
    8540:	91a42750 			; <UNDEFINED> instruction: 0x91a42750
    8544:	09bd0000 	ldmibeq	sp!, {}	; <UNPREDICTABLE>
    8548:	28000000 	stmdacs	r0, {}	; <UNPREDICTABLE>
    854c:	000008e4 	andeq	r0, r0, r4, ror #17
    8550:	002c1101 	eoreq	r1, ip, r1, lsl #2
    8554:	91880000 	orrls	r0, r8, r0
    8558:	00140000 	andseq	r0, r4, r0
    855c:	9c010000 	stcls	0, cr0, [r1], {-0}
    8560:	000009ea 	andeq	r0, r0, sl, ror #19
    8564:	00919422 	addseq	r9, r1, r2, lsr #8
    8568:	000a0f00 	andeq	r0, sl, r0, lsl #30
    856c:	50012300 	andpl	r2, r1, r0, lsl #6
    8570:	30040c05 	andcc	r0, r4, r5, lsl #24
    8574:	00002000 	andeq	r2, r0, r0
    8578:	0008b920 	andeq	fp, r8, r0, lsr #18
    857c:	6c050100 	stfvss	f0, [r5], {-0}
    8580:	1c000091 	stcne	0, cr0, [r0], {145}	; 0x91
    8584:	01000000 	mrseq	r0, (UNDEF: 0)
    8588:	000a0f9c 	muleq	sl, ip, pc	; <UNPREDICTABLE>
    858c:	08d82900 	ldmeq	r8, {r8, fp, sp}^
    8590:	05010000 	streq	r0, [r1, #-0]
    8594:	0000002c 	andeq	r0, r0, ip, lsr #32
    8598:	000010dd 	ldrdeq	r1, [r0], -sp
    859c:	08de2a00 	ldmeq	lr, {r9, fp, sp}^
    85a0:	08de0000 	ldmeq	lr, {}^	; <UNPREDICTABLE>
    85a4:	a7060000 	strge	r0, [r6, -r0]
    85a8:	000cc500 	andeq	ip, ip, r0, lsl #10
    85ac:	ad000400 	cfstrsge	mvf0, [r0, #-0]
    85b0:	04000019 	streq	r0, [r0], #-25	; 0xffffffe7
    85b4:	0003c801 	andeq	ip, r3, r1, lsl #16
    85b8:	09330c00 	ldmdbeq	r3!, {sl, fp}
    85bc:	09460000 	stmdbeq	r6, {}^	; <UNPREDICTABLE>
    85c0:	92400000 	subls	r0, r0, #0
    85c4:	01780000 	cmneq	r8, r0
    85c8:	0dae0000 	stceq	0, cr0, [lr]
    85cc:	04020000 	streq	r0, [r2], #-0
    85d0:	746e6905 	strbtvc	r6, [lr], #-2309	; 0xfffff6fb
    85d4:	07040300 	streq	r0, [r4, -r0, lsl #6]
    85d8:	00000066 	andeq	r0, r0, r6, rrx
    85dc:	00002c04 	andeq	r2, r0, r4, lsl #24
    85e0:	06010300 	streq	r0, [r1], -r0, lsl #6
    85e4:	000002ec 	andeq	r0, r0, ip, ror #5
    85e8:	06050203 	streq	r0, [r5], -r3, lsl #4
    85ec:	03000003 	movweq	r0, #3
    85f0:	00af0504 	adceq	r0, pc, r4, lsl #10
    85f4:	08030000 	stmdaeq	r3, {}	; <UNPREDICTABLE>
    85f8:	0000aa05 	andeq	sl, r0, r5, lsl #20
    85fc:	08010300 	stmdaeq	r1, {r8, r9}
    8600:	000002ea 	andeq	r0, r0, sl, ror #5
    8604:	25070203 	strcs	r0, [r7, #-515]	; 0xfffffdfd
    8608:	03000002 	movweq	r0, #2
    860c:	00610704 	rsbeq	r0, r1, r4, lsl #14
    8610:	08030000 	stmdaeq	r3, {}	; <UNPREDICTABLE>
    8614:	00005c07 	andeq	r5, r0, r7, lsl #24
    8618:	02d80500 	sbcseq	r0, r8, #0, 10
    861c:	07020000 	streq	r0, [r2, -r0]
    8620:	00000025 	andeq	r0, r0, r5, lsr #32
    8624:	0002c705 	andeq	ip, r2, r5, lsl #14
    8628:	462c0300 	strtmi	r0, [ip], -r0, lsl #6
    862c:	05000000 	streq	r0, [r0, #-0]
    8630:	000003b1 			; <UNDEFINED> instruction: 0x000003b1
    8634:	00467203 	subeq	r7, r6, r3, lsl #4
    8638:	68060000 	stmdavs	r6, {}	; <UNPREDICTABLE>
    863c:	04000002 	streq	r0, [r0], #-2
    8640:	002c0165 	eoreq	r0, ip, r5, ror #2
    8644:	04070000 	streq	r0, [r7], #-0
    8648:	00bca603 	adcseq	sl, ip, r3, lsl #12
    864c:	62080000 	andvs	r0, r8, #0
    8650:	03000002 	movweq	r0, #2
    8654:	000091a8 	andeq	r9, r0, r8, lsr #3
    8658:	01e50800 	mvneq	r0, r0, lsl #16
    865c:	a9030000 	stmdbge	r3, {}	; <UNPREDICTABLE>
    8660:	000000bc 	strheq	r0, [r0], -ip
    8664:	00540900 	subseq	r0, r4, r0, lsl #18
    8668:	00cc0000 	sbceq	r0, ip, r0
    866c:	cc0a0000 	stcgt	0, cr0, [sl], {-0}
    8670:	03000000 	movweq	r0, #0
    8674:	07040300 	streq	r0, [r4, -r0, lsl #6]
    8678:	0000029b 	muleq	r0, fp, r2
    867c:	a303080b 	movwge	r0, #14347	; 0x380b
    8680:	000000f4 	strdeq	r0, [r0], -r4
    8684:	00039b0c 	andeq	r9, r3, ip, lsl #22
    8688:	25a50300 	strcs	r0, [r5, #768]!	; 0x300
    868c:	00000000 	andeq	r0, r0, r0
    8690:	0003a30c 	andeq	sl, r3, ip, lsl #6
    8694:	9daa0300 	stcls	3, cr0, [sl]
    8698:	04000000 	streq	r0, [r0], #-0
    869c:	032e0500 			; <UNDEFINED> instruction: 0x032e0500
    86a0:	ab030000 	blge	c86a8 <__bss_end__+0xbe638>
    86a4:	000000d3 	ldrdeq	r0, [r0], -r3
    86a8:	0001a205 	andeq	sl, r1, r5, lsl #4
    86ac:	70af0300 	adcvc	r0, pc, r0, lsl #6
    86b0:	0d000000 	stceq	0, cr0, [r0, #-0]
    86b4:	12040e04 	andne	r0, r4, #4, 28	; 0x40
    86b8:	03000001 	movweq	r0, #1
    86bc:	02f30801 	rscseq	r0, r3, #65536	; 0x10000
    86c0:	120f0000 	andne	r0, pc, #0
    86c4:	05000001 	streq	r0, [r0, #-1]
    86c8:	00000445 	andeq	r0, r0, r5, asr #8
    86cc:	00621605 	rsbeq	r1, r2, r5, lsl #12
    86d0:	b3100000 	tstlt	r0, #0
    86d4:	18000001 	stmdane	r0, {r0}
    86d8:	017c2d05 	cmneq	ip, r5, lsl #26
    86dc:	4f0c0000 	svcmi	0x000c0000
    86e0:	05000003 	streq	r0, [r0, #-3]
    86e4:	00017c2f 	andeq	r7, r1, pc, lsr #24
    86e8:	5f110000 	svcpl	0x00110000
    86ec:	3005006b 	andcc	r0, r5, fp, rrx
    86f0:	00000025 	andeq	r0, r0, r5, lsr #32
    86f4:	03860c04 	orreq	r0, r6, #4, 24	; 0x400
    86f8:	30050000 	andcc	r0, r5, r0
    86fc:	00000025 	andeq	r0, r0, r5, lsr #32
    8700:	019c0c08 	orrseq	r0, ip, r8, lsl #24
    8704:	30050000 	andcc	r0, r5, r0
    8708:	00000025 	andeq	r0, r0, r5, lsr #32
    870c:	04a10c0c 	strteq	r0, [r1], #3084	; 0xc0c
    8710:	30050000 	andcc	r0, r5, r0
    8714:	00000025 	andeq	r0, r0, r5, lsr #32
    8718:	785f1110 	ldmdavc	pc, {r4, r8, ip}^	; <UNPREDICTABLE>
    871c:	82310500 	eorshi	r0, r1, #0, 10
    8720:	14000001 	strne	r0, [r0], #-1
    8724:	29040e00 	stmdbcs	r4, {r9, sl, fp}
    8728:	09000001 	stmdbeq	r0, {r0}
    872c:	0000011e 	andeq	r0, r0, lr, lsl r1
    8730:	00000192 	muleq	r0, r2, r1
    8734:	0000cc0a 	andeq	ip, r0, sl, lsl #24
    8738:	10000000 	andne	r0, r0, r0
    873c:	000001e0 	andeq	r0, r0, r0, ror #3
    8740:	0b350524 	bleq	d49bd8 <__bss_end__+0xd3fb68>
    8744:	0c000002 	stceq	0, cr0, [r0], {2}
    8748:	000000a1 	andeq	r0, r0, r1, lsr #1
    874c:	00253705 	eoreq	r3, r5, r5, lsl #14
    8750:	0c000000 	stceq	0, cr0, [r0], {-0}
    8754:	000003b9 			; <UNDEFINED> instruction: 0x000003b9
    8758:	00253805 	eoreq	r3, r5, r5, lsl #16
    875c:	0c040000 	stceq	0, cr0, [r4], {-0}
    8760:	000000c4 	andeq	r0, r0, r4, asr #1
    8764:	00253905 	eoreq	r3, r5, r5, lsl #18
    8768:	0c080000 	stceq	0, cr0, [r8], {-0}
    876c:	00000522 	andeq	r0, r0, r2, lsr #10
    8770:	00253a05 	eoreq	r3, r5, r5, lsl #20
    8774:	0c0c0000 	stceq	0, cr0, [ip], {-0}
    8778:	000002ab 	andeq	r0, r0, fp, lsr #5
    877c:	00253b05 	eoreq	r3, r5, r5, lsl #22
    8780:	0c100000 	ldceq	0, cr0, [r0], {-0}
    8784:	00000284 	andeq	r0, r0, r4, lsl #5
    8788:	00253c05 	eoreq	r3, r5, r5, lsl #24
    878c:	0c140000 	ldceq	0, cr0, [r4], {-0}
    8790:	000004a6 	andeq	r0, r0, r6, lsr #9
    8794:	00253d05 	eoreq	r3, r5, r5, lsl #26
    8798:	0c180000 	ldceq	0, cr0, [r8], {-0}
    879c:	00000310 	andeq	r0, r0, r0, lsl r3
    87a0:	00253e05 	eoreq	r3, r5, r5, lsl #28
    87a4:	0c1c0000 	ldceq	0, cr0, [ip], {-0}
    87a8:	000004e9 	andeq	r0, r0, r9, ror #9
    87ac:	00253f05 	eoreq	r3, r5, r5, lsl #30
    87b0:	00200000 	eoreq	r0, r0, r0
    87b4:	00010412 	andeq	r0, r1, r2, lsl r4
    87b8:	05010800 	streq	r0, [r1, #-2048]	; 0xfffff800
    87bc:	00024b48 	andeq	r4, r2, r8, asr #22
    87c0:	018f0c00 	orreq	r0, pc, r0, lsl #24
    87c4:	49050000 	stmdbmi	r5, {}	; <UNPREDICTABLE>
    87c8:	0000024b 	andeq	r0, r0, fp, asr #4
    87cc:	00000c00 	andeq	r0, r0, r0, lsl #24
    87d0:	4a050000 	bmi	1487d8 <__bss_end__+0x13e768>
    87d4:	0000024b 	andeq	r0, r0, fp, asr #4
    87d8:	04371380 	ldrteq	r1, [r7], #-896	; 0xfffffc80
    87dc:	4c050000 	stcmi	0, cr0, [r5], {-0}
    87e0:	0000011e 	andeq	r0, r0, lr, lsl r1
    87e4:	29130100 	ldmdbcs	r3, {r8}
    87e8:	05000001 	streq	r0, [r0, #-1]
    87ec:	00011e4f 	andeq	r1, r1, pc, asr #28
    87f0:	00010400 	andeq	r0, r1, r0, lsl #8
    87f4:	00010a09 	andeq	r0, r1, r9, lsl #20
    87f8:	00025b00 	andeq	r5, r2, r0, lsl #22
    87fc:	00cc0a00 	sbceq	r0, ip, r0, lsl #20
    8800:	001f0000 	andseq	r0, pc, r0
    8804:	0002b412 	andeq	fp, r2, r2, lsl r4
    8808:	05019000 	streq	r9, [r1, #-0]
    880c:	0002995b 	andeq	r9, r2, fp, asr r9
    8810:	034f0c00 	movteq	r0, #64512	; 0xfc00
    8814:	5c050000 	stcpl	0, cr0, [r5], {-0}
    8818:	00000299 	muleq	r0, r9, r2
    881c:	03670c00 	cmneq	r7, #0, 24
    8820:	5d050000 	stcpl	0, cr0, [r5, #-0]
    8824:	00000025 	andeq	r0, r0, r5, lsr #32
    8828:	01970c04 	orrseq	r0, r7, r4, lsl #24
    882c:	5f050000 	svcpl	0x00050000
    8830:	0000029f 	muleq	r0, pc, r2	; <UNPREDICTABLE>
    8834:	01040c08 	tsteq	r4, r8, lsl #24
    8838:	60050000 	andvs	r0, r5, r0
    883c:	0000020b 	andeq	r0, r0, fp, lsl #4
    8840:	040e0088 	streq	r0, [lr], #-136	; 0xffffff78
    8844:	0000025b 	andeq	r0, r0, fp, asr r2
    8848:	0002af09 	andeq	sl, r2, r9, lsl #30
    884c:	0002af00 	andeq	sl, r2, r0, lsl #30
    8850:	00cc0a00 	sbceq	r0, ip, r0, lsl #20
    8854:	001f0000 	andseq	r0, pc, r0
    8858:	02b5040e 	adcseq	r0, r5, #234881024	; 0xe000000
    885c:	10140000 	andsne	r0, r4, r0
    8860:	0000031a 	andeq	r0, r0, sl, lsl r3
    8864:	db730508 	blle	1cc9c8c <__bss_end__+0x1cbfc1c>
    8868:	0c000002 	stceq	0, cr0, [r0], {2}
    886c:	000000be 	strheq	r0, [r0], -lr
    8870:	02db7405 	sbcseq	r7, fp, #83886080	; 0x5000000
    8874:	0c000000 	stceq	0, cr0, [r0], {-0}
    8878:	0000001b 	andeq	r0, r0, fp, lsl r0
    887c:	00257505 	eoreq	r7, r5, r5, lsl #10
    8880:	00040000 	andeq	r0, r4, r0
    8884:	0054040e 	subseq	r0, r4, lr, lsl #8
    8888:	39100000 	ldmdbcc	r0, {}	; <UNPREDICTABLE>
    888c:	68000003 	stmdavs	r0, {r0, r1}
    8890:	040bb305 	streq	fp, [fp], #-773	; 0xfffffcfb
    8894:	5f110000 	svcpl	0x00110000
    8898:	b4050070 	strlt	r0, [r5], #-112	; 0xffffff90
    889c:	000002db 	ldrdeq	r0, [r0], -fp
    88a0:	725f1100 	subsvc	r1, pc, #0, 2
    88a4:	25b50500 	ldrcs	r0, [r5, #1280]!	; 0x500
    88a8:	04000000 	streq	r0, [r0], #-0
    88ac:	00775f11 	rsbseq	r5, r7, r1, lsl pc
    88b0:	0025b605 	eoreq	fp, r5, r5, lsl #12
    88b4:	0c080000 	stceq	0, cr0, [r8], {-0}
    88b8:	00000122 	andeq	r0, r0, r2, lsr #2
    88bc:	003fb705 	eorseq	fp, pc, r5, lsl #14
    88c0:	0c0c0000 	stceq	0, cr0, [ip], {-0}
    88c4:	0000020b 	andeq	r0, r0, fp, lsl #4
    88c8:	003fb805 	eorseq	fp, pc, r5, lsl #16
    88cc:	110e0000 	mrsne	r0, (UNDEF: 14)
    88d0:	0066625f 	rsbeq	r6, r6, pc, asr r2
    88d4:	02b6b905 	adcseq	fp, r6, #81920	; 0x14000
    88d8:	0c100000 	ldceq	0, cr0, [r0], {-0}
    88dc:	0000007b 	andeq	r0, r0, fp, ror r0
    88e0:	0025ba05 	eoreq	fp, r5, r5, lsl #20
    88e4:	0c180000 	ldceq	0, cr0, [r8], {-0}
    88e8:	00000112 	andeq	r0, r0, r2, lsl r1
    88ec:	010ac105 	tsteq	sl, r5, lsl #2
    88f0:	0c1c0000 	ldceq	0, cr0, [ip], {-0}
    88f4:	00000a78 	andeq	r0, r0, r8, ror sl
    88f8:	0566c305 	strbeq	ip, [r6, #-773]!	; 0xfffffcfb
    88fc:	0c200000 	stceq	0, cr0, [r0], #-0
    8900:	0000060c 	andeq	r0, r0, ip, lsl #12
    8904:	0590c505 	ldreq	ip, [r0, #1285]	; 0x505
    8908:	0c240000 	stceq	0, cr0, [r4], #-0
    890c:	000003ab 	andeq	r0, r0, fp, lsr #7
    8910:	05b4c805 	ldreq	ip, [r4, #2053]!	; 0x805
    8914:	0c280000 	stceq	0, cr0, [r8], #-0
    8918:	00000503 	andeq	r0, r0, r3, lsl #10
    891c:	05cec905 	strbeq	ip, [lr, #2309]	; 0x905
    8920:	112c0000 			; <UNDEFINED> instruction: 0x112c0000
    8924:	0062755f 	rsbeq	r7, r2, pc, asr r5
    8928:	02b6cc05 	adcseq	ip, r6, #1280	; 0x500
    892c:	11300000 	teqne	r0, r0
    8930:	0070755f 	rsbseq	r7, r0, pc, asr r5
    8934:	02dbcd05 	sbcseq	ip, fp, #320	; 0x140
    8938:	11380000 	teqne	r8, r0
    893c:	0072755f 	rsbseq	r7, r2, pc, asr r5
    8940:	0025ce05 	eoreq	ip, r5, r5, lsl #28
    8944:	0c3c0000 	ldceq	0, cr0, [ip], #-0
    8948:	000000b8 	strheq	r0, [r0], -r8
    894c:	05d4d105 	ldrbeq	sp, [r4, #261]	; 0x105
    8950:	0c400000 	mareq	acc0, r0, r0
    8954:	000004db 	ldrdeq	r0, [r0], -fp
    8958:	05e4d205 	strbeq	sp, [r4, #517]!	; 0x205
    895c:	11430000 	mrsne	r0, (UNDEF: 67)
    8960:	00626c5f 	rsbeq	r6, r2, pc, asr ip
    8964:	02b6d505 	adcseq	sp, r6, #20971520	; 0x1400000
    8968:	0c440000 	mareq	acc0, r0, r4
    896c:	00000140 	andeq	r0, r0, r0, asr #2
    8970:	0025d805 	eoreq	sp, r5, r5, lsl #16
    8974:	0c4c0000 	mareq	acc0, r0, ip
    8978:	00000151 	andeq	r0, r0, r1, asr r1
    897c:	007bd905 	rsbseq	sp, fp, r5, lsl #18
    8980:	0c500000 	mraeq	r0, r0, acc0
    8984:	00000a19 	andeq	r0, r0, r9, lsl sl
    8988:	0429dc05 	strteq	sp, [r9], #-3077	; 0xfffff3fb
    898c:	0c540000 	mraeq	r0, r4, acc0
    8990:	00000276 	andeq	r0, r0, r6, ror r2
    8994:	00ffe005 	rscseq	lr, pc, r5
    8998:	0c580000 	mraeq	r0, r8, acc0
    899c:	00000341 	andeq	r0, r0, r1, asr #6
    89a0:	00f4e205 	rscseq	lr, r4, r5, lsl #4
    89a4:	0c5c0000 	mraeq	r0, ip, acc0
    89a8:	0000027c 	andeq	r0, r0, ip, ror r2
    89ac:	0025e305 	eoreq	lr, r5, r5, lsl #6
    89b0:	00640000 	rsbeq	r0, r4, r0
    89b4:	00002515 	andeq	r2, r0, r5, lsl r5
    89b8:	00042900 	andeq	r2, r4, r0, lsl #18
    89bc:	04291600 	strteq	r1, [r9], #-1536	; 0xfffffa00
    89c0:	0a160000 	beq	5889c8 <__bss_end__+0x57e958>
    89c4:	16000001 	strne	r0, [r0], -r1
    89c8:	0000010c 	andeq	r0, r0, ip, lsl #2
    89cc:	00002516 	andeq	r2, r0, r6, lsl r5
    89d0:	040e0000 	streq	r0, [lr], #-0
    89d4:	00000434 	andeq	r0, r0, r4, lsr r4
    89d8:	0004290f 	andeq	r2, r4, pc, lsl #18
    89dc:	038e1700 	orreq	r1, lr, #0, 14
    89e0:	04280000 	strteq	r0, [r8], #-0
    89e4:	66023805 	strvs	r3, [r2], -r5, lsl #16
    89e8:	18000005 	stmdane	r0, {r0, r2}
    89ec:	000002ff 	strdeq	r0, [r0], -pc	; <UNPREDICTABLE>
    89f0:	25023a05 	strcs	r3, [r2, #-2565]	; 0xfffff5fb
    89f4:	00000000 	andeq	r0, r0, r0
    89f8:	00013118 	andeq	r3, r1, r8, lsl r1
    89fc:	023f0500 	eorseq	r0, pc, #0, 10
    8a00:	0000063b 	andeq	r0, r0, fp, lsr r6
    8a04:	01fb1804 	mvnseq	r1, r4, lsl #16
    8a08:	3f050000 	svccc	0x00050000
    8a0c:	00063b02 	andeq	r3, r6, r2, lsl #22
    8a10:	ab180800 	blge	60aa18 <__bss_end__+0x6009a8>
    8a14:	05000001 	streq	r0, [r0, #-1]
    8a18:	063b023f 			; <UNDEFINED> instruction: 0x063b023f
    8a1c:	180c0000 	stmdane	ip, {}	; <UNPREDICTABLE>
    8a20:	00000362 	andeq	r0, r0, r2, ror #6
    8a24:	25024105 	strcs	r4, [r2, #-261]	; 0xfffffefb
    8a28:	10000000 	andne	r0, r0, r0
    8a2c:	00002918 	andeq	r2, r0, r8, lsl r9
    8a30:	02420500 	subeq	r0, r2, #0, 10
    8a34:	0000081d 	andeq	r0, r0, sp, lsl r8
    8a38:	047b1814 	ldrbteq	r1, [fp], #-2068	; 0xfffff7ec
    8a3c:	44050000 	strmi	r0, [r5], #-0
    8a40:	00002502 	andeq	r2, r0, r2, lsl #10
    8a44:	6c183000 	ldcvs	0, cr3, [r8], {-0}
    8a48:	05000003 	streq	r0, [r0, #-3]
    8a4c:	058a0245 	streq	r0, [sl, #581]	; 0x245
    8a50:	18340000 	ldmdane	r4!, {}	; <UNPREDICTABLE>
    8a54:	000002bc 			; <UNDEFINED> instruction: 0x000002bc
    8a58:	25024705 	strcs	r4, [r2, #-1797]	; 0xfffff8fb
    8a5c:	38000000 	stmdacc	r0, {}	; <UNPREDICTABLE>
    8a60:	00037c18 	andeq	r7, r3, r8, lsl ip
    8a64:	02490500 	subeq	r0, r9, #0, 10
    8a68:	00000838 	andeq	r0, r0, r8, lsr r8
    8a6c:	025a183c 	subseq	r1, sl, #60, 16	; 0x3c0000
    8a70:	4c050000 	stcmi	0, cr0, [r5], {-0}
    8a74:	00017c02 	andeq	r7, r1, r2, lsl #24
    8a78:	ca184000 	bgt	618a80 <__bss_end__+0x60ea10>
    8a7c:	05000001 	streq	r0, [r0, #-1]
    8a80:	0025024d 	eoreq	r0, r5, sp, asr #4
    8a84:	18440000 	stmdane	r4, {}^	; <UNPREDICTABLE>
    8a88:	0000051d 	andeq	r0, r0, sp, lsl r5
    8a8c:	7c024e05 	stcvc	14, cr4, [r2], {5}
    8a90:	48000001 	stmdami	r0, {r0}
    8a94:	0002ce18 	andeq	ip, r2, r8, lsl lr
    8a98:	024f0500 	subeq	r0, pc, #0, 10
    8a9c:	0000083e 	andeq	r0, r0, lr, lsr r8
    8aa0:	0203184c 	andeq	r1, r3, #76, 16	; 0x4c0000
    8aa4:	52050000 	andpl	r0, r5, #0
    8aa8:	00002502 	andeq	r2, r0, r2, lsl #10
    8aac:	49185000 	ldmdbmi	r8, {ip, lr}
    8ab0:	05000001 	streq	r0, [r0, #-1]
    8ab4:	010c0253 	tsteq	ip, r3, asr r2
    8ab8:	18540000 	ldmdane	r4, {}^	; <UNPREDICTABLE>
    8abc:	000002f8 	strdeq	r0, [r0], -r8
    8ac0:	fb027605 	blx	a62de <__bss_end__+0x9c26e>
    8ac4:	58000007 	stmdapl	r0, {r0, r1, r2}
    8ac8:	0002b419 	andeq	fp, r2, r9, lsl r4
    8acc:	027a0500 	rsbseq	r0, sl, #0, 10
    8ad0:	00000299 	muleq	r0, r9, r2
    8ad4:	38190148 	ldmdacc	r9, {r3, r6, r8}
    8ad8:	05000002 	streq	r0, [r0, #-2]
    8adc:	025b027b 	subseq	r0, fp, #-1342177273	; 0xb0000007
    8ae0:	014c0000 	mrseq	r0, (UNDEF: 76)
    8ae4:	0004c919 	andeq	ip, r4, r9, lsl r9
    8ae8:	027f0500 	rsbseq	r0, pc, #0, 10
    8aec:	0000084f 	andeq	r0, r0, pc, asr #16
    8af0:	1a1902dc 	bne	649668 <__bss_end__+0x63f5f8>
    8af4:	05000001 	streq	r0, [r0, #-1]
    8af8:	06000284 	streq	r0, [r0], -r4, lsl #5
    8afc:	02e00000 	rsceq	r0, r0, #0
    8b00:	0000ff19 	andeq	pc, r0, r9, lsl pc	; <UNPREDICTABLE>
    8b04:	02850500 	addeq	r0, r5, #0, 10
    8b08:	0000085b 	andeq	r0, r0, fp, asr r8
    8b0c:	0e0002ec 	cdpeq	2, 0, cr0, cr0, cr12, {7}
    8b10:	00040b04 	andeq	r0, r4, r4, lsl #22
    8b14:	00251500 	eoreq	r1, r5, r0, lsl #10
    8b18:	058a0000 	streq	r0, [sl]
    8b1c:	29160000 	ldmdbcs	r6, {}	; <UNPREDICTABLE>
    8b20:	16000004 	strne	r0, [r0], -r4
    8b24:	0000010a 	andeq	r0, r0, sl, lsl #2
    8b28:	00058a16 	andeq	r8, r5, r6, lsl sl
    8b2c:	00251600 	eoreq	r1, r5, r0, lsl #12
    8b30:	0e000000 	cdpeq	0, 0, cr0, cr0, cr0, {0}
    8b34:	00011904 	andeq	r1, r1, r4, lsl #18
    8b38:	6c040e00 	stcvs	14, cr0, [r4], {-0}
    8b3c:	15000005 	strne	r0, [r0, #-5]
    8b40:	00000086 	andeq	r0, r0, r6, lsl #1
    8b44:	000005b4 			; <UNDEFINED> instruction: 0x000005b4
    8b48:	00042916 	andeq	r2, r4, r6, lsl r9
    8b4c:	010a1600 	tsteq	sl, r0, lsl #12
    8b50:	86160000 	ldrhi	r0, [r6], -r0
    8b54:	16000000 	strne	r0, [r0], -r0
    8b58:	00000025 	andeq	r0, r0, r5, lsr #32
    8b5c:	96040e00 	strls	r0, [r4], -r0, lsl #28
    8b60:	15000005 	strne	r0, [r0, #-5]
    8b64:	00000025 	andeq	r0, r0, r5, lsr #32
    8b68:	000005ce 	andeq	r0, r0, lr, asr #11
    8b6c:	00042916 	andeq	r2, r4, r6, lsl r9
    8b70:	010a1600 	tsteq	sl, r0, lsl #12
    8b74:	0e000000 	cdpeq	0, 0, cr0, cr0, cr0, {0}
    8b78:	0005ba04 	andeq	fp, r5, r4, lsl #20
    8b7c:	00540900 	subseq	r0, r4, r0, lsl #18
    8b80:	05e40000 	strbeq	r0, [r4, #0]!
    8b84:	cc0a0000 	stcgt	0, cr0, [sl], {-0}
    8b88:	02000000 	andeq	r0, r0, #0
    8b8c:	00540900 	subseq	r0, r4, r0, lsl #18
    8b90:	05f40000 	ldrbeq	r0, [r4, #0]!
    8b94:	cc0a0000 	stcgt	0, cr0, [sl], {-0}
    8b98:	00000000 	andeq	r0, r0, r0
    8b9c:	03270600 			; <UNDEFINED> instruction: 0x03270600
    8ba0:	1d050000 	stcne	0, cr0, [r5, #-0]
    8ba4:	0002e101 	andeq	lr, r2, r1, lsl #2
    8ba8:	04b01a00 	ldrteq	r1, [r0], #2560	; 0xa00
    8bac:	050c0000 	streq	r0, [ip, #-0]
    8bb0:	06350121 	ldrteq	r0, [r5], -r1, lsr #2
    8bb4:	4f180000 	svcmi	0x00180000
    8bb8:	05000003 	streq	r0, [r0, #-3]
    8bbc:	06350123 	ldrteq	r0, [r5], -r3, lsr #2
    8bc0:	18000000 	stmdane	r0, {}	; <UNPREDICTABLE>
    8bc4:	0000021e 	andeq	r0, r0, lr, lsl r2
    8bc8:	25012405 	strcs	r2, [r1, #-1029]	; 0xfffffbfb
    8bcc:	04000000 	streq	r0, [r0], #-0
    8bd0:	00032118 	andeq	r2, r3, r8, lsl r1
    8bd4:	01250500 			; <UNDEFINED> instruction: 0x01250500
    8bd8:	0000063b 	andeq	r0, r0, fp, lsr r6
    8bdc:	040e0008 	streq	r0, [lr], #-8
    8be0:	00000600 	andeq	r0, r0, r0, lsl #12
    8be4:	05f4040e 	ldrbeq	r0, [r4, #1038]!	; 0x40e
    8be8:	211a0000 	tstcs	sl, r0
    8bec:	0e000000 	cdpeq	0, 0, cr0, cr0, cr0, {0}
    8bf0:	76013d05 	strvc	r3, [r1], -r5, lsl #26
    8bf4:	18000006 	stmdane	r0, {r1, r2}
    8bf8:	00000395 	muleq	r0, r5, r3
    8bfc:	76013e05 	strvc	r3, [r1], -r5, lsl #28
    8c00:	00000006 	andeq	r0, r0, r6
    8c04:	0003c218 	andeq	ip, r3, r8, lsl r2
    8c08:	013f0500 	teqeq	pc, r0, lsl #10
    8c0c:	00000676 	andeq	r0, r0, r6, ror r6
    8c10:	04401806 	strbeq	r1, [r0], #-2054	; 0xfffff7fa
    8c14:	40050000 	andmi	r0, r5, r0
    8c18:	00005b01 	andeq	r5, r0, r1, lsl #22
    8c1c:	09000c00 	stmdbeq	r0, {sl, fp}
    8c20:	0000005b 	andeq	r0, r0, fp, asr r0
    8c24:	00000686 	andeq	r0, r0, r6, lsl #13
    8c28:	0000cc0a 	andeq	ip, r0, sl, lsl #24
    8c2c:	1b000200 	blne	9434 <gpio_set_on+0x4>
    8c30:	025705d0 	subseq	r0, r7, #208, 10	; 0x34000000
    8c34:	00000787 	andeq	r0, r0, r7, lsl #15
    8c38:	00049418 	andeq	r9, r4, r8, lsl r4
    8c3c:	02590500 	subseq	r0, r9, #0, 10
    8c40:	0000002c 	andeq	r0, r0, ip, lsr #32
    8c44:	042a1800 	strteq	r1, [sl], #-2048	; 0xfffff800
    8c48:	5a050000 	bpl	148c50 <__bss_end__+0x13ebe0>
    8c4c:	00010c02 	andeq	r0, r1, r2, lsl #24
    8c50:	4d180400 	cfldrsmi	mvf0, [r8, #-0]
    8c54:	05000002 	streq	r0, [r0, #-2]
    8c58:	0787025b 			; <UNDEFINED> instruction: 0x0787025b
    8c5c:	18080000 	stmdane	r8, {}	; <UNPREDICTABLE>
    8c60:	000004f4 	strdeq	r0, [r0], -r4
    8c64:	92025c05 	andls	r5, r2, #1280	; 0x500
    8c68:	24000001 	strcs	r0, [r0], #-1
    8c6c:	0001bb18 	andeq	fp, r1, r8, lsl fp
    8c70:	025d0500 	subseq	r0, sp, #0, 10
    8c74:	00000025 	andeq	r0, r0, r5, lsr #32
    8c78:	034a1848 	movteq	r1, #43080	; 0xa848
    8c7c:	5e050000 	cdppl	0, 0, cr0, cr5, cr0, {0}
    8c80:	00006902 	andeq	r6, r0, r2, lsl #18
    8c84:	0a185000 	beq	61cc8c <__bss_end__+0x612c1c>
    8c88:	05000005 	streq	r0, [r0, #-5]
    8c8c:	0641025f 			; <UNDEFINED> instruction: 0x0641025f
    8c90:	18580000 	ldmdane	r8, {}^	; <UNPREDICTABLE>
    8c94:	00000355 	andeq	r0, r0, r5, asr r3
    8c98:	f4026005 	vst4.8	{d6-d9}, [r2], r5
    8c9c:	68000000 	stmdavs	r0, {}	; <UNPREDICTABLE>
    8ca0:	00050f18 	andeq	r0, r5, r8, lsl pc
    8ca4:	02610500 	rsbeq	r0, r1, #0, 10
    8ca8:	000000f4 	strdeq	r0, [r0], -r4
    8cac:	00931870 	addseq	r1, r3, r0, ror r8
    8cb0:	62050000 	andvs	r0, r5, #0
    8cb4:	0000f402 	andeq	pc, r0, r2, lsl #8
    8cb8:	bf187800 	svclt	0x00187800
    8cbc:	05000004 	streq	r0, [r0, #-4]
    8cc0:	07970263 	ldreq	r0, [r7, r3, ror #4]
    8cc4:	18800000 	stmne	r0, {}	; <UNPREDICTABLE>
    8cc8:	00000241 	andeq	r0, r0, r1, asr #4
    8ccc:	a7026405 	strge	r6, [r2, -r5, lsl #8]
    8cd0:	88000007 	stmdahi	r0, {r0, r1, r2}
    8cd4:	00044d18 	andeq	r4, r4, r8, lsl sp
    8cd8:	02650500 	rsbeq	r0, r5, #0, 10
    8cdc:	00000025 	andeq	r0, r0, r5, lsr #32
    8ce0:	018118a0 	orreq	r1, r1, r0, lsr #17
    8ce4:	66050000 	strvs	r0, [r5], -r0
    8ce8:	0000f402 	andeq	pc, r0, r2, lsl #8
    8cec:	8418a400 	ldrhi	sl, [r8], #-1024	; 0xfffffc00
    8cf0:	05000000 	streq	r0, [r0, #-0]
    8cf4:	00f40267 	rscseq	r0, r4, r7, ror #4
    8cf8:	18ac0000 	stmiane	ip!, {}	; <UNPREDICTABLE>
    8cfc:	00000170 	andeq	r0, r0, r0, ror r1
    8d00:	f4026805 	vst2.8	{d6-d7}, [r2], r5
    8d04:	b4000000 	strlt	r0, [r0], #-0
    8d08:	00003c18 	andeq	r3, r0, r8, lsl ip
    8d0c:	02690500 	rsbeq	r0, r9, #0, 10
    8d10:	000000f4 	strdeq	r0, [r0], -r4
    8d14:	004b18bc 	strheq	r1, [fp], #-140	; 0xffffff74
    8d18:	6a050000 	bvs	148d20 <__bss_end__+0x13ecb0>
    8d1c:	0000f402 	andeq	pc, r0, r2, lsl #8
    8d20:	fd18c400 	ldc2	4, cr12, [r8, #-0]
    8d24:	05000002 	streq	r0, [r0, #-2]
    8d28:	0025026b 	eoreq	r0, r5, fp, ror #4
    8d2c:	00cc0000 	sbceq	r0, ip, r0
    8d30:	00011209 	andeq	r1, r1, r9, lsl #4
    8d34:	00079700 	andeq	r9, r7, r0, lsl #14
    8d38:	00cc0a00 	sbceq	r0, ip, r0, lsl #20
    8d3c:	00190000 	andseq	r0, r9, r0
    8d40:	00011209 	andeq	r1, r1, r9, lsl #4
    8d44:	0007a700 	andeq	sl, r7, r0, lsl #14
    8d48:	00cc0a00 	sbceq	r0, ip, r0, lsl #20
    8d4c:	00070000 	andeq	r0, r7, r0
    8d50:	00011209 	andeq	r1, r1, r9, lsl #4
    8d54:	0007b700 	andeq	fp, r7, r0, lsl #14
    8d58:	00cc0a00 	sbceq	r0, ip, r0, lsl #20
    8d5c:	00170000 	andseq	r0, r7, r0
    8d60:	7005f01b 	andvc	pc, r5, fp, lsl r0	; <UNPREDICTABLE>
    8d64:	0007db02 	andeq	sp, r7, r2, lsl #22
    8d68:	02a41800 	adceq	r1, r4, #0, 16
    8d6c:	73050000 	movwvc	r0, #20480	; 0x5000
    8d70:	0007db02 	andeq	sp, r7, r2, lsl #22
    8d74:	b6180000 	ldrlt	r0, [r8], -r0
    8d78:	05000004 	streq	r0, [r0, #-4]
    8d7c:	07eb0274 			; <UNDEFINED> instruction: 0x07eb0274
    8d80:	00780000 	rsbseq	r0, r8, r0
    8d84:	0002db09 	andeq	sp, r2, r9, lsl #22
    8d88:	0007eb00 	andeq	lr, r7, r0, lsl #22
    8d8c:	00cc0a00 	sbceq	r0, ip, r0, lsl #20
    8d90:	001d0000 	andseq	r0, sp, r0
    8d94:	00002c09 	andeq	r2, r0, r9, lsl #24
    8d98:	0007fb00 	andeq	pc, r7, r0, lsl #22
    8d9c:	00cc0a00 	sbceq	r0, ip, r0, lsl #20
    8da0:	001d0000 	andseq	r0, sp, r0
    8da4:	5505f01c 	strpl	pc, [r5, #-28]	; 0xffffffe4
    8da8:	00081d02 	andeq	r1, r8, r2, lsl #26
    8dac:	038e1d00 	orreq	r1, lr, #0, 26
    8db0:	6c050000 	stcvs	0, cr0, [r5], {-0}
    8db4:	00068602 	andeq	r8, r6, r2, lsl #12
    8db8:	04e11d00 	strbteq	r1, [r1], #3328	; 0xd00
    8dbc:	75050000 	strvc	r0, [r5, #-0]
    8dc0:	0007b702 	andeq	fp, r7, r2, lsl #14
    8dc4:	12090000 	andne	r0, r9, #0
    8dc8:	2d000001 	stccs	0, cr0, [r0, #-4]
    8dcc:	0a000008 	beq	8df4 <va_printk+0x194>
    8dd0:	000000cc 	andeq	r0, r0, ip, asr #1
    8dd4:	381e0018 	ldmdacc	lr, {r3, r4}
    8dd8:	16000008 	strne	r0, [r0], -r8
    8ddc:	00000429 	andeq	r0, r0, r9, lsr #8
    8de0:	2d040e00 	stccs	14, cr0, [r4, #-0]
    8de4:	0e000008 	cdpeq	0, 0, cr0, cr0, cr8, {0}
    8de8:	00017c04 	andeq	r7, r1, r4, lsl #24
    8dec:	084f1e00 	stmdaeq	pc, {r9, sl, fp, ip}^	; <UNPREDICTABLE>
    8df0:	25160000 	ldrcs	r0, [r6, #-0]
    8df4:	00000000 	andeq	r0, r0, r0
    8df8:	0855040e 	ldmdaeq	r5, {r1, r2, r3, sl}^
    8dfc:	040e0000 	streq	r0, [lr], #-0
    8e00:	00000844 	andeq	r0, r0, r4, asr #16
    8e04:	0005f409 	andeq	pc, r5, r9, lsl #8
    8e08:	00086b00 	andeq	r6, r8, r0, lsl #22
    8e0c:	00cc0a00 	sbceq	r0, ip, r0, lsl #20
    8e10:	00020000 	andeq	r0, r2, r0
    8e14:	00046f1f 	andeq	r6, r4, pc, lsl pc
    8e18:	02fd0500 	rscseq	r0, sp, #0, 10
    8e1c:	00000429 	andeq	r0, r0, r9, lsr #8
    8e20:	0004681f 	andeq	r6, r4, pc, lsl r8
    8e24:	02fe0500 	rscseq	r0, lr, #0, 10
    8e28:	0000042f 	andeq	r0, r0, pc, lsr #8
    8e2c:	00002515 	andeq	r2, r0, r5, lsl r5
    8e30:	00089200 	andeq	r9, r8, r0, lsl #4
    8e34:	00251600 	eoreq	r1, r5, r0, lsl #12
    8e38:	20000000 	andcs	r0, r0, r0
    8e3c:	000001d4 	ldrdeq	r0, [r0], -r4
    8e40:	089d1d06 	ldmeq	sp, {r1, r2, r8, sl, fp, ip}
    8e44:	040e0000 	streq	r0, [lr], #-0
    8e48:	00000883 	andeq	r0, r0, r3, lsl #17
    8e4c:	00002515 	andeq	r2, r0, r5, lsl r5
    8e50:	0008b200 	andeq	fp, r8, r0, lsl #4
    8e54:	058a1600 	streq	r1, [sl, #1536]	; 0x600
    8e58:	20000000 	andcs	r0, r0, r0
    8e5c:	00000769 	andeq	r0, r0, r9, ror #14
    8e60:	08bd2206 	popeq	{r1, r2, r9, sp}
    8e64:	040e0000 	streq	r0, [lr], #-0
    8e68:	000008a3 	andeq	r0, r0, r3, lsr #17
    8e6c:	00540121 	subseq	r0, r4, r1, lsr #2
    8e70:	0c080000 	stceq	0, cr0, [r8], {-0}
    8e74:	00000900 	andeq	r0, r0, r0, lsl #18
    8e78:	00090a22 	andeq	r0, r9, r2, lsr #20
    8e7c:	e4220000 	strt	r0, [r2], #-0
    8e80:	01000009 	tsteq	r0, r9
    8e84:	000a1f22 	andeq	r1, sl, r2, lsr #30
    8e88:	1f220400 	svcne	0x00220400
    8e8c:	05000009 	streq	r0, [r0, #-9]
    8e90:	0009ab22 	andeq	sl, r9, r2, lsr #22
    8e94:	2e220600 	cfmadda32cs	mvax0, mvax0, mvfx2, mvfx0
    8e98:	0700000a 	streq	r0, [r0, -sl]
    8e9c:	000a3d22 	andeq	r3, sl, r2, lsr #26
    8ea0:	4c220300 	stcmi	3, cr0, [r2], #-0
    8ea4:	0200000a 	andeq	r0, r0, #10
    8ea8:	093a1000 	ldmdbeq	sl!, {ip}
    8eac:	072c0000 	streq	r0, [ip, -r0]!
    8eb0:	00099006 	andeq	r9, r9, r6
    8eb4:	6f691100 	svcvs	0x00691100
    8eb8:	33090700 	movwcc	r0, #38656	; 0x9700
    8ebc:	00000000 	andeq	r0, r0, r0
    8ec0:	72656911 	rsbvc	r6, r5, #278528	; 0x44000
    8ec4:	330a0700 	movwcc	r0, #42752	; 0xa700
    8ec8:	04000000 	streq	r0, [r0], #-0
    8ecc:	72696911 	rsbvc	r6, r9, #278528	; 0x44000
    8ed0:	33110700 	tstcc	r1, #0, 14
    8ed4:	08000000 	stmdaeq	r0, {}	; <UNPREDICTABLE>
    8ed8:	72636c11 	rsbvc	r6, r3, #4352	; 0x1100
    8edc:	33130700 	tstcc	r3, #0, 14
    8ee0:	0c000000 	stceq	0, cr0, [r0], {-0}
    8ee4:	72636d11 	rsbvc	r6, r3, #1088	; 0x440
    8ee8:	33140700 	tstcc	r4, #0, 14
    8eec:	10000000 	andne	r0, r0, r0
    8ef0:	72736c11 	rsbsvc	r6, r3, #4352	; 0x1100
    8ef4:	33150700 	tstcc	r5, #0, 14
    8ef8:	14000000 	strne	r0, [r0], #-0
    8efc:	72736d11 	rsbsvc	r6, r3, #1088	; 0x440
    8f00:	33160700 	tstcc	r6, #0, 14
    8f04:	18000000 	stmdane	r0, {}	; <UNPREDICTABLE>
    8f08:	0009d60c 	andeq	sp, r9, ip, lsl #12
    8f0c:	33170700 	tstcc	r7, #0, 14
    8f10:	1c000000 	stcne	0, cr0, [r0], {-0}
    8f14:	00092e0c 	andeq	r2, r9, ip, lsl #28
    8f18:	331b0700 	tstcc	fp, #0, 14
    8f1c:	20000000 	andcs	r0, r0, r0
    8f20:	00091a0c 	andeq	r1, r9, ip, lsl #20
    8f24:	331d0700 	tstcc	sp, #0, 14
    8f28:	24000000 	strcs	r0, [r0], #-0
    8f2c:	0009d10c 	andeq	sp, r9, ip, lsl #2
    8f30:	331e0700 	tstcc	lr, #0, 14
    8f34:	28000000 	stmdacs	r0, {}	; <UNPREDICTABLE>
    8f38:	097b2300 	ldmdbeq	fp!, {r8, r9, sp}^
    8f3c:	07010000 	streq	r0, [r1, -r0]
    8f40:	000009a5 	andeq	r0, r0, r5, lsr #19
    8f44:	20215004 	eorcs	r5, r1, r4
    8f48:	0033040e 	eorseq	r0, r3, lr, lsl #8
    8f4c:	9f0f0000 	svcls	0x000f0000
    8f50:	23000009 	movwcs	r0, #9
    8f54:	000009cc 	andeq	r0, r0, ip, asr #19
    8f58:	09bf2801 	ldmibeq	pc!, {r0, fp, sp}	; <UNPREDICTABLE>
    8f5c:	50400000 	subpl	r0, r0, r0
    8f60:	040e2021 	streq	r2, [lr], #-33	; 0xffffffdf
    8f64:	00000900 	andeq	r0, r0, r0, lsl #18
    8f68:	0009b90f 	andeq	fp, r9, pc, lsl #18
    8f6c:	0a112400 	beq	451f74 <__bss_end__+0x447f04>
    8f70:	a7010000 	strge	r0, [r1, -r0]
    8f74:	00000025 	andeq	r0, r0, r5, lsr #32
    8f78:	000093a8 	andeq	r9, r0, r8, lsr #7
    8f7c:	00000010 	andeq	r0, r0, r0, lsl r0
    8f80:	09f09c01 	ldmibeq	r0!, {r0, sl, fp, ip, pc}^
    8f84:	b0250000 	eorlt	r0, r5, r0
    8f88:	9c000093 	stcls	0, cr0, [r0], {147}	; 0x93
    8f8c:	2500000c 	strcs	r0, [r0, #-12]
    8f90:	000093b4 			; <UNDEFINED> instruction: 0x000093b4
    8f94:	00000ad2 	ldrdeq	r0, [r0], -r2
    8f98:	07872600 	streq	r2, [r7, r0, lsl #12]
    8f9c:	9f010000 	svcls	0x00010000
    8fa0:	00009378 	andeq	r9, r0, r8, ror r3
    8fa4:	00000030 	andeq	r0, r0, r0, lsr r0
    8fa8:	0a4e9c01 	beq	13affb4 <__bss_end__+0x13a5f44>
    8fac:	63270000 			; <UNDEFINED> instruction: 0x63270000
    8fb0:	2c9f0100 	ldfcss	f0, [pc], {0}
    8fb4:	11000000 	mrsne	r0, (UNDEF: 0)
    8fb8:	25000011 	strcs	r0, [r0, #-17]	; 0xffffffef
    8fbc:	00009384 	andeq	r9, r0, r4, lsl #7
    8fc0:	00000c9c 	muleq	r0, ip, ip
    8fc4:	00938825 	addseq	r8, r3, r5, lsr #16
    8fc8:	000aa500 	andeq	sl, sl, r0, lsl #10
    8fcc:	939c2800 	orrsls	r2, ip, #0, 16
    8fd0:	0ca70000 	stceq	0, cr0, [r7]
    8fd4:	0a440000 	beq	1108fdc <__bss_end__+0x10fef6c>
    8fd8:	01290000 			; <UNDEFINED> instruction: 0x01290000
    8fdc:	400c0550 	andmi	r0, ip, r0, asr r5
    8fe0:	29202150 	stmdbcs	r0!, {r4, r6, r8, sp}
    8fe4:	74055101 	strvc	r5, [r5], #-257	; 0xfffffeff
    8fe8:	1aff0800 	bne	fffcaff0 <__bss_end__+0xfffc0f80>
    8fec:	93a02500 	movls	r2, #0, 10
    8ff0:	0c9c0000 	ldceq	0, cr0, [ip], {0}
    8ff4:	24000000 	strcs	r0, [r0], #-0
    8ff8:	00000995 	muleq	r0, r5, r9
    8ffc:	00259701 	eoreq	r9, r5, r1, lsl #14
    9000:	93480000 	movtls	r0, #32768	; 0x8000
    9004:	00300000 	eorseq	r0, r0, r0
    9008:	9c010000 	stcls	0, cr0, [r1], {-0}
    900c:	00000aa5 	andeq	r0, r0, r5, lsr #21
    9010:	0100632a 	tsteq	r0, sl, lsr #6
    9014:	0000259b 	muleq	r0, fp, r5
    9018:	25540100 	ldrbcs	r0, [r4, #-256]	; 0xffffff00
    901c:	00009350 	andeq	r9, r0, r0, asr r3
    9020:	00000c9c 	muleq	r0, ip, ip
    9024:	00935425 	addseq	r5, r3, r5, lsr #8
    9028:	000ad200 	andeq	sp, sl, r0, lsl #4
    902c:	93642800 	cmnls	r4, #0, 16
    9030:	0cb20000 	ldceq	0, cr0, [r2]
    9034:	0a9b0000 	beq	fe6c903c <__bss_end__+0xfe6befcc>
    9038:	01290000 			; <UNDEFINED> instruction: 0x01290000
    903c:	400c0550 	andmi	r0, ip, r0, asr r5
    9040:	00202150 	eoreq	r2, r0, r0, asr r1
    9044:	00936c25 	addseq	r6, r3, r5, lsr #24
    9048:	000c9c00 	andeq	r9, ip, r0, lsl #24
    904c:	87240000 	strhi	r0, [r4, -r0]!
    9050:	01000009 	tsteq	r0, r9
    9054:	00002588 	andeq	r2, r0, r8, lsl #11
    9058:	00932800 	addseq	r2, r3, r0, lsl #16
    905c:	00002000 	andeq	r2, r0, r0
    9060:	d29c0100 	addsle	r0, ip, #0, 2
    9064:	2b00000a 	blcs	9094 <memset+0x1c>
    9068:	00009334 	andeq	r9, r0, r4, lsr r3
    906c:	00000cb2 			; <UNDEFINED> instruction: 0x00000cb2
    9070:	05500129 	ldrbeq	r0, [r0, #-297]	; 0xfffffed7
    9074:	2150640c 	cmpcs	r0, ip, lsl #8
    9078:	24000020 	strcs	r0, [r0], #-32	; 0xffffffe0
    907c:	000009fb 	strdeq	r0, [r0], -fp
    9080:	00257f01 	eoreq	r7, r5, r1, lsl #30
    9084:	93100000 	tstls	r0, #0
    9088:	00180000 	andseq	r0, r8, r0
    908c:	9c010000 	stcls	0, cr0, [r1], {-0}
    9090:	00000aff 	strdeq	r0, [r0], -pc	; <UNPREDICTABLE>
    9094:	00931c2b 	addseq	r1, r3, fp, lsr #24
    9098:	000cb200 	andeq	fp, ip, r0, lsl #4
    909c:	50012900 	andpl	r2, r1, r0, lsl #18
    90a0:	50640c05 	rsbpl	r0, r4, r5, lsl #24
    90a4:	00002021 	andeq	r2, r0, r1, lsr #32
    90a8:	00090026 	andeq	r0, r9, r6, lsr #32
    90ac:	603a0100 	eorsvs	r0, sl, r0, lsl #2
    90b0:	b0000092 	mullt	r0, r2, r0
    90b4:	01000000 	mrseq	r0, (UNDEF: 0)
    90b8:	000c3d9c 	muleq	ip, ip, sp
    90bc:	92702800 	rsbsls	r2, r0, #0, 16
    90c0:	0cbd0000 	ldceq	0, cr0, [sp]
    90c4:	0b2c0000 	bleq	b090cc <__bss_end__+0xaff05c>
    90c8:	01290000 			; <UNDEFINED> instruction: 0x01290000
    90cc:	293e0150 	ldmdbcs	lr!, {r4, r6, r8}
    90d0:	32015101 	andcc	r5, r1, #1073741824	; 0x40000000
    90d4:	927c2800 	rsbsls	r2, ip, #0, 16
    90d8:	0cbd0000 	ldceq	0, cr0, [sp]
    90dc:	0b440000 	bleq	11090e4 <__bss_end__+0x10ff074>
    90e0:	01290000 			; <UNDEFINED> instruction: 0x01290000
    90e4:	293f0150 	ldmdbcs	pc!, {r4, r6, r8}	; <UNPREDICTABLE>
    90e8:	32015101 	andcc	r5, r1, #1073741824	; 0x40000000
    90ec:	92802500 	addls	r2, r0, #0, 10
    90f0:	0c9c0000 	ldceq	0, cr0, [ip], {0}
    90f4:	8c280000 	stchi	0, cr0, [r8], #-0
    90f8:	3d000092 	stccc	0, cr0, [r0, #-584]	; 0xfffffdb8
    90fc:	6900000c 	stmdbvs	r0, {r2, r3}
    9100:	2900000b 	stmdbcs	r0, {r0, r1, r3}
    9104:	0c055001 	stceq	0, cr5, [r5], {1}
    9108:	20215004 	eorcs	r5, r1, r4
    910c:	01510129 	cmpeq	r1, r9, lsr #2
    9110:	90250031 	eorls	r0, r5, r1, lsr r0
    9114:	9c000092 	stcls	0, cr0, [r0], {146}	; 0x92
    9118:	2800000c 	stmdacs	r0, {r2, r3}
    911c:	000092a0 	andeq	r9, r0, r0, lsr #5
    9120:	00000ca7 	andeq	r0, r0, r7, lsr #25
    9124:	00000b8b 	andeq	r0, r0, fp, lsl #23
    9128:	02500129 	subseq	r0, r0, #1073741834	; 0x4000000a
    912c:	01290074 			; <UNDEFINED> instruction: 0x01290074
    9130:	00300151 	eorseq	r0, r0, r1, asr r1
    9134:	0092ac28 	addseq	sl, r2, r8, lsr #24
    9138:	000ca700 	andeq	sl, ip, r0, lsl #14
    913c:	000ba700 	andeq	sl, fp, r0, lsl #14
    9140:	50012900 	andpl	r2, r1, r0, lsl #18
    9144:	50440c05 	subpl	r0, r4, r5, lsl #24
    9148:	01292021 			; <UNDEFINED> instruction: 0x01292021
    914c:	00300151 	eorseq	r0, r0, r1, asr r1
    9150:	0092b828 	addseq	fp, r2, r8, lsr #16
    9154:	000ca700 	andeq	sl, ip, r0, lsl #14
    9158:	000bc300 	andeq	ip, fp, r0, lsl #6
    915c:	50012900 	andpl	r2, r1, r0, lsl #18
    9160:	504c0c05 	subpl	r0, ip, r5, lsl #24
    9164:	01292021 			; <UNDEFINED> instruction: 0x01292021
    9168:	00330151 	eorseq	r0, r3, r1, asr r1
    916c:	0092c428 	addseq	ip, r2, r8, lsr #8
    9170:	000ca700 	andeq	sl, ip, r0, lsl #14
    9174:	000bdf00 	andeq	sp, fp, r0, lsl #30
    9178:	50012900 	andpl	r2, r1, r0, lsl #18
    917c:	50500c05 	subspl	r0, r0, r5, lsl #24
    9180:	01292021 			; <UNDEFINED> instruction: 0x01292021
    9184:	00300151 	eorseq	r0, r0, r1, asr r1
    9188:	0092d028 	addseq	sp, r2, r8, lsr #32
    918c:	000ca700 	andeq	sl, ip, r0, lsl #14
    9190:	000bfc00 	andeq	pc, fp, r0, lsl #24
    9194:	50012900 	andpl	r2, r1, r0, lsl #18
    9198:	50480c05 	subpl	r0, r8, r5, lsl #24
    919c:	01292021 			; <UNDEFINED> instruction: 0x01292021
    91a0:	c7080251 	smlsdgt	r8, r1, r2, r0
    91a4:	92dc2800 	sbcsls	r2, ip, #0, 16
    91a8:	0ca70000 	stceq	0, cr0, [r7]
    91ac:	0c1a0000 	ldceq	0, cr0, [sl], {-0}
    91b0:	01290000 			; <UNDEFINED> instruction: 0x01290000
    91b4:	680c0550 	stmdavs	ip, {r4, r6, r8, sl}
    91b8:	29202150 	stmdbcs	r0!, {r4, r6, r8, sp}
    91bc:	0a035101 	beq	dd5c8 <__bss_end__+0xd3558>
    91c0:	2800010e 	stmdacs	r0, {r1, r2, r3, r8}
    91c4:	000092e8 	andeq	r9, r0, r8, ror #5
    91c8:	00000ca7 	andeq	r0, r0, r7, lsr #25
    91cc:	00000c33 	andeq	r0, r0, r3, lsr ip
    91d0:	02500129 	subseq	r0, r0, #1073741834	; 0x4000000a
    91d4:	01290074 			; <UNDEFINED> instruction: 0x01290074
    91d8:	00330151 	eorseq	r0, r3, r1, asr r1
    91dc:	0092ec25 	addseq	lr, r2, r5, lsr #24
    91e0:	000c9c00 	andeq	r9, ip, r0, lsl #24
    91e4:	092c0000 	stmdbeq	ip!, {}	; <UNPREDICTABLE>
    91e8:	0100000a 	tsteq	r0, sl
    91ec:	0092402d 	addseq	r4, r2, sp, lsr #32
    91f0:	00002000 	andeq	r2, r0, r0
    91f4:	959c0100 	ldrls	r0, [ip, #256]	; 0x100
    91f8:	2d00000c 	stccs	0, cr0, [r0, #-48]	; 0xffffffd0
    91fc:	00000b60 	andeq	r0, r0, r0, ror #22
    9200:	0c952d01 	ldceq	13, cr2, [r5], {1}
    9204:	112f0000 			; <UNDEFINED> instruction: 0x112f0000
    9208:	76270000 	strtvc	r0, [r7], -r0
    920c:	01006c61 	tsteq	r0, r1, ror #24
    9210:	00002c2d 	andeq	r2, r0, sp, lsr #24
    9214:	00114d00 	andseq	r4, r1, r0, lsl #26
    9218:	92502800 	subsls	r2, r0, #0, 16
    921c:	0cb20000 	ldceq	0, cr0, [r2]
    9220:	0c840000 	stceq	0, cr0, [r4], {0}
    9224:	01290000 			; <UNDEFINED> instruction: 0x01290000
    9228:	00740250 	rsbseq	r0, r4, r0, asr r2
    922c:	925c2b00 	subsls	r2, ip, #0, 22
    9230:	0ca70000 	stceq	0, cr0, [r7]
    9234:	01290000 			; <UNDEFINED> instruction: 0x01290000
    9238:	00740250 	rsbseq	r0, r4, r0, asr r2
    923c:	040e0000 	streq	r0, [lr], #-0
    9240:	00000c9b 	muleq	r0, fp, ip
    9244:	099f2f2e 	ldmibeq	pc, {r1, r2, r3, r5, r8, r9, sl, fp, sp}	; <UNPREDICTABLE>
    9248:	099f0000 	ldmibeq	pc, {}	; <UNPREDICTABLE>
    924c:	89060000 	stmdbhi	r6, {}	; <UNPREDICTABLE>
    9250:	0009de2f 	andeq	sp, r9, pc, lsr #28
    9254:	0009de00 	andeq	sp, r9, r0, lsl #28
    9258:	2f9c0600 	svccs	0x009c0600
    925c:	000009f5 	strdeq	r0, [r0], -r5
    9260:	000009f5 	strdeq	r0, [r0], -r5
    9264:	ba2fa806 	blt	bf3284 <__bss_end__+0xbe9214>
    9268:	ba000009 	blt	9294 <uart_init+0x34>
    926c:	08000009 	stmdaeq	r0, {r0, r3}
    9270:	0b700019 	bleq	1c092dc <__bss_end__+0x1bff26c>
    9274:	00040000 	andeq	r0, r4, r0
    9278:	00001c21 	andeq	r1, r0, r1, lsr #24
    927c:	03c80104 	biceq	r0, r8, #4, 2
    9280:	6d0c0000 	stcvs	0, cr0, [ip, #-0]
    9284:	4600000a 	strmi	r0, [r0], -sl
    9288:	b8000009 	stmdalt	r0, {r0, r3}
    928c:	20000093 	mulcs	r0, r3, r0
    9290:	fa000001 	blx	929c <uart_init+0x3c>
    9294:	0200000e 	andeq	r0, r0, #14
    9298:	6e690504 	cdpvs	5, 6, cr0, cr9, cr4, {0}
    929c:	04030074 	streq	r0, [r3], #-116	; 0xffffff8c
    92a0:	00006607 	andeq	r6, r0, r7, lsl #12
    92a4:	002c0400 	eoreq	r0, ip, r0, lsl #8
    92a8:	01030000 	mrseq	r0, (UNDEF: 3)
    92ac:	0002ec06 	andeq	lr, r2, r6, lsl #24
    92b0:	05020300 	streq	r0, [r2, #-768]	; 0xfffffd00
    92b4:	00000306 	andeq	r0, r0, r6, lsl #6
    92b8:	af050403 	svcge	0x00050403
    92bc:	03000000 	movweq	r0, #0
    92c0:	00aa0508 	adceq	r0, sl, r8, lsl #10
    92c4:	01030000 	mrseq	r0, (UNDEF: 3)
    92c8:	0002ea08 	andeq	lr, r2, r8, lsl #20
    92cc:	07020300 	streq	r0, [r2, -r0, lsl #6]
    92d0:	00000225 	andeq	r0, r0, r5, lsr #4
    92d4:	61070403 	tstvs	r7, r3, lsl #8
    92d8:	03000000 	movweq	r0, #0
    92dc:	005c0708 	subseq	r0, ip, r8, lsl #14
    92e0:	d8050000 	stmdale	r5, {}	; <UNPREDICTABLE>
    92e4:	02000002 	andeq	r0, r0, #2
    92e8:	00002507 	andeq	r2, r0, r7, lsl #10
    92ec:	02c70500 	sbceq	r0, r7, #0, 10
    92f0:	2c030000 	stccs	0, cr0, [r3], {-0}
    92f4:	00000046 	andeq	r0, r0, r6, asr #32
    92f8:	0003b105 	andeq	fp, r3, r5, lsl #2
    92fc:	46720300 	ldrbtmi	r0, [r2], -r0, lsl #6
    9300:	06000000 	streq	r0, [r0], -r0
    9304:	00000268 	andeq	r0, r0, r8, ror #4
    9308:	2c016504 	cfstr32cs	mvfx6, [r1], {4}
    930c:	07000000 	streq	r0, [r0, -r0]
    9310:	bca60304 	stclt	3, cr0, [r6], #16
    9314:	08000000 	stmdaeq	r0, {}	; <UNPREDICTABLE>
    9318:	00000262 	andeq	r0, r0, r2, ror #4
    931c:	0091a803 	addseq	sl, r1, r3, lsl #16
    9320:	e5080000 	str	r0, [r8, #-0]
    9324:	03000001 	movweq	r0, #1
    9328:	0000bca9 	andeq	fp, r0, r9, lsr #25
    932c:	54090000 	strpl	r0, [r9], #-0
    9330:	cc000000 	stcgt	0, cr0, [r0], {-0}
    9334:	0a000000 	beq	933c <uart_can_putc+0x14>
    9338:	000000cc 	andeq	r0, r0, ip, asr #1
    933c:	04030003 	streq	r0, [r3], #-3
    9340:	00029b07 	andeq	r9, r2, r7, lsl #22
    9344:	03080b00 	movweq	r0, #35584	; 0x8b00
    9348:	0000f4a3 	andeq	pc, r0, r3, lsr #9
    934c:	039b0c00 	orrseq	r0, fp, #0, 24
    9350:	a5030000 	strge	r0, [r3, #-0]
    9354:	00000025 	andeq	r0, r0, r5, lsr #32
    9358:	03a30c00 			; <UNDEFINED> instruction: 0x03a30c00
    935c:	aa030000 	bge	c9364 <__bss_end__+0xbf2f4>
    9360:	0000009d 	muleq	r0, sp, r0
    9364:	2e050004 	cdpcs	0, 0, cr0, cr5, cr4, {0}
    9368:	03000003 	movweq	r0, #3
    936c:	0000d3ab 	andeq	sp, r0, fp, lsr #7
    9370:	01a20500 			; <UNDEFINED> instruction: 0x01a20500
    9374:	af030000 	svcge	0x00030000
    9378:	00000070 	andeq	r0, r0, r0, ror r0
    937c:	040e040d 	streq	r0, [lr], #-1037	; 0xfffffbf3
    9380:	00000112 	andeq	r0, r0, r2, lsl r1
    9384:	f3080103 	vrhadd.u8	d0, d8, d3
    9388:	04000002 	streq	r0, [r0], #-2
    938c:	00000112 	andeq	r0, r0, r2, lsl r1
    9390:	00044505 	andeq	r4, r4, r5, lsl #10
    9394:	62160500 	andsvs	r0, r6, #0, 10
    9398:	0f000000 	svceq	0x00000000
    939c:	000001b3 			; <UNDEFINED> instruction: 0x000001b3
    93a0:	7c2d0518 	cfstr32vc	mvfx0, [sp], #-96	; 0xffffffa0
    93a4:	0c000001 	stceq	0, cr0, [r0], {1}
    93a8:	0000034f 	andeq	r0, r0, pc, asr #6
    93ac:	017c2f05 	cmneq	ip, r5, lsl #30
    93b0:	10000000 	andne	r0, r0, r0
    93b4:	05006b5f 	streq	r6, [r0, #-2911]	; 0xfffff4a1
    93b8:	00002530 	andeq	r2, r0, r0, lsr r5
    93bc:	860c0400 	strhi	r0, [ip], -r0, lsl #8
    93c0:	05000003 	streq	r0, [r0, #-3]
    93c4:	00002530 	andeq	r2, r0, r0, lsr r5
    93c8:	9c0c0800 	stcls	8, cr0, [ip], {-0}
    93cc:	05000001 	streq	r0, [r0, #-1]
    93d0:	00002530 	andeq	r2, r0, r0, lsr r5
    93d4:	a10c0c00 	tstge	ip, r0, lsl #24
    93d8:	05000004 	streq	r0, [r0, #-4]
    93dc:	00002530 	andeq	r2, r0, r0, lsr r5
    93e0:	5f101000 	svcpl	0x00101000
    93e4:	31050078 	tstcc	r5, r8, ror r0
    93e8:	00000182 	andeq	r0, r0, r2, lsl #3
    93ec:	040e0014 	streq	r0, [lr], #-20	; 0xffffffec
    93f0:	00000129 	andeq	r0, r0, r9, lsr #2
    93f4:	00011e09 	andeq	r1, r1, r9, lsl #28
    93f8:	00019200 	andeq	r9, r1, r0, lsl #4
    93fc:	00cc0a00 	sbceq	r0, ip, r0, lsl #20
    9400:	00000000 	andeq	r0, r0, r0
    9404:	0001e00f 	andeq	lr, r1, pc
    9408:	35052400 	strcc	r2, [r5, #-1024]	; 0xfffffc00
    940c:	0000020b 	andeq	r0, r0, fp, lsl #4
    9410:	0000a10c 	andeq	sl, r0, ip, lsl #2
    9414:	25370500 	ldrcs	r0, [r7, #-1280]!	; 0xfffffb00
    9418:	00000000 	andeq	r0, r0, r0
    941c:	0003b90c 	andeq	fp, r3, ip, lsl #18
    9420:	25380500 	ldrcs	r0, [r8, #-1280]!	; 0xfffffb00
    9424:	04000000 	streq	r0, [r0], #-0
    9428:	0000c40c 	andeq	ip, r0, ip, lsl #8
    942c:	25390500 	ldrcs	r0, [r9, #-1280]!	; 0xfffffb00
    9430:	08000000 	stmdaeq	r0, {}	; <UNPREDICTABLE>
    9434:	0005220c 	andeq	r2, r5, ip, lsl #4
    9438:	253a0500 	ldrcs	r0, [sl, #-1280]!	; 0xfffffb00
    943c:	0c000000 	stceq	0, cr0, [r0], {-0}
    9440:	0002ab0c 	andeq	sl, r2, ip, lsl #22
    9444:	253b0500 	ldrcs	r0, [fp, #-1280]!	; 0xfffffb00
    9448:	10000000 	andne	r0, r0, r0
    944c:	0002840c 	andeq	r8, r2, ip, lsl #8
    9450:	253c0500 	ldrcs	r0, [ip, #-1280]!	; 0xfffffb00
    9454:	14000000 	strne	r0, [r0], #-0
    9458:	0004a60c 	andeq	sl, r4, ip, lsl #12
    945c:	253d0500 	ldrcs	r0, [sp, #-1280]!	; 0xfffffb00
    9460:	18000000 	stmdane	r0, {}	; <UNPREDICTABLE>
    9464:	0003100c 	andeq	r1, r3, ip
    9468:	253e0500 	ldrcs	r0, [lr, #-1280]!	; 0xfffffb00
    946c:	1c000000 	stcne	0, cr0, [r0], {-0}
    9470:	0004e90c 	andeq	lr, r4, ip, lsl #18
    9474:	253f0500 	ldrcs	r0, [pc, #-1280]!	; 8f7c <fast_hash+0x5c>
    9478:	20000000 	andcs	r0, r0, r0
    947c:	01041100 	mrseq	r1, (UNDEF: 20)
    9480:	01080000 	mrseq	r0, (UNDEF: 8)
    9484:	024b4805 	subeq	r4, fp, #327680	; 0x50000
    9488:	8f0c0000 	svchi	0x000c0000
    948c:	05000001 	streq	r0, [r0, #-1]
    9490:	00024b49 	andeq	r4, r2, r9, asr #22
    9494:	000c0000 	andeq	r0, ip, r0
    9498:	05000000 	streq	r0, [r0, #-0]
    949c:	00024b4a 	andeq	r4, r2, sl, asr #22
    94a0:	37128000 	ldrcc	r8, [r2, -r0]
    94a4:	05000004 	streq	r0, [r0, #-4]
    94a8:	00011e4c 	andeq	r1, r1, ip, asr #28
    94ac:	12010000 	andne	r0, r1, #0
    94b0:	00000129 	andeq	r0, r0, r9, lsr #2
    94b4:	011e4f05 	tsteq	lr, r5, lsl #30
    94b8:	01040000 	mrseq	r0, (UNDEF: 4)
    94bc:	010a0900 	tsteq	sl, r0, lsl #18
    94c0:	025b0000 	subseq	r0, fp, #0
    94c4:	cc0a0000 	stcgt	0, cr0, [sl], {-0}
    94c8:	1f000000 	svcne	0x00000000
    94cc:	02b41100 	adcseq	r1, r4, #0, 2
    94d0:	01900000 	orrseq	r0, r0, r0
    94d4:	02995b05 	addseq	r5, r9, #5120	; 0x1400
    94d8:	4f0c0000 	svcmi	0x000c0000
    94dc:	05000003 	streq	r0, [r0, #-3]
    94e0:	0002995c 	andeq	r9, r2, ip, asr r9
    94e4:	670c0000 	strvs	r0, [ip, -r0]
    94e8:	05000003 	streq	r0, [r0, #-3]
    94ec:	0000255d 	andeq	r2, r0, sp, asr r5
    94f0:	970c0400 	strls	r0, [ip, -r0, lsl #8]
    94f4:	05000001 	streq	r0, [r0, #-1]
    94f8:	00029f5f 	andeq	r9, r2, pc, asr pc
    94fc:	040c0800 	streq	r0, [ip], #-2048	; 0xfffff800
    9500:	05000001 	streq	r0, [r0, #-1]
    9504:	00020b60 	andeq	r0, r2, r0, ror #22
    9508:	0e008800 	cdpeq	8, 0, cr8, cr0, cr0, {0}
    950c:	00025b04 	andeq	r5, r2, r4, lsl #22
    9510:	02af0900 	adceq	r0, pc, #0, 18
    9514:	02af0000 	adceq	r0, pc, #0
    9518:	cc0a0000 	stcgt	0, cr0, [sl], {-0}
    951c:	1f000000 	svcne	0x00000000
    9520:	b5040e00 	strlt	r0, [r4, #-3584]	; 0xfffff200
    9524:	13000002 	movwne	r0, #2
    9528:	00031a0f 	andeq	r1, r3, pc, lsl #20
    952c:	73050800 	movwvc	r0, #22528	; 0x5800
    9530:	000002db 	ldrdeq	r0, [r0], -fp
    9534:	0000be0c 	andeq	fp, r0, ip, lsl #28
    9538:	db740500 	blle	1d0a940 <__bss_end__+0x1d008d0>
    953c:	00000002 	andeq	r0, r0, r2
    9540:	00001b0c 	andeq	r1, r0, ip, lsl #22
    9544:	25750500 	ldrbcs	r0, [r5, #-1280]!	; 0xfffffb00
    9548:	04000000 	streq	r0, [r0], #-0
    954c:	54040e00 	strpl	r0, [r4], #-3584	; 0xfffff200
    9550:	0f000000 	svceq	0x00000000
    9554:	00000339 	andeq	r0, r0, r9, lsr r3
    9558:	0bb30568 	bleq	feccab00 <__bss_end__+0xfecc0a90>
    955c:	10000004 	andne	r0, r0, r4
    9560:	0500705f 	streq	r7, [r0, #-95]	; 0xffffffa1
    9564:	0002dbb4 			; <UNDEFINED> instruction: 0x0002dbb4
    9568:	5f100000 	svcpl	0x00100000
    956c:	b5050072 	strlt	r0, [r5, #-114]	; 0xffffff8e
    9570:	00000025 	andeq	r0, r0, r5, lsr #32
    9574:	775f1004 	ldrbvc	r1, [pc, -r4]
    9578:	25b60500 	ldrcs	r0, [r6, #1280]!	; 0x500
    957c:	08000000 	stmdaeq	r0, {}	; <UNPREDICTABLE>
    9580:	0001220c 	andeq	r2, r1, ip, lsl #4
    9584:	3fb70500 	svccc	0x00b70500
    9588:	0c000000 	stceq	0, cr0, [r0], {-0}
    958c:	00020b0c 	andeq	r0, r2, ip, lsl #22
    9590:	3fb80500 	svccc	0x00b80500
    9594:	0e000000 	cdpeq	0, 0, cr0, cr0, cr0, {0}
    9598:	66625f10 	uqadd16vs	r5, r2, r0
    959c:	b6b90500 	ldrtlt	r0, [r9], r0, lsl #10
    95a0:	10000002 	andne	r0, r0, r2
    95a4:	00007b0c 	andeq	r7, r0, ip, lsl #22
    95a8:	25ba0500 	ldrcs	r0, [sl, #1280]!	; 0x500
    95ac:	18000000 	stmdane	r0, {}	; <UNPREDICTABLE>
    95b0:	0001120c 	andeq	r1, r1, ip, lsl #4
    95b4:	0ac10500 	beq	ff04a9bc <__bss_end__+0xff04094c>
    95b8:	1c000001 	stcne	0, cr0, [r0], {1}
    95bc:	000a780c 	andeq	r7, sl, ip, lsl #16
    95c0:	66c30500 	strbvs	r0, [r3], r0, lsl #10
    95c4:	20000005 	andcs	r0, r0, r5
    95c8:	00060c0c 	andeq	r0, r6, ip, lsl #24
    95cc:	90c50500 	sbcls	r0, r5, r0, lsl #10
    95d0:	24000005 	strcs	r0, [r0], #-5
    95d4:	0003ab0c 	andeq	sl, r3, ip, lsl #22
    95d8:	b4c80500 	strblt	r0, [r8], #1280	; 0x500
    95dc:	28000005 	stmdacs	r0, {r0, r2}
    95e0:	0005030c 	andeq	r0, r5, ip, lsl #6
    95e4:	cec90500 	cdpgt	5, 12, cr0, cr9, cr0, {0}
    95e8:	2c000005 	stccs	0, cr0, [r0], {5}
    95ec:	62755f10 	rsbsvs	r5, r5, #16, 30	; 0x40
    95f0:	b6cc0500 	strblt	r0, [ip], r0, lsl #10
    95f4:	30000002 	andcc	r0, r0, r2
    95f8:	70755f10 	rsbsvc	r5, r5, r0, lsl pc
    95fc:	dbcd0500 	blle	ff34aa04 <__bss_end__+0xff340994>
    9600:	38000002 	stmdacc	r0, {r1}
    9604:	72755f10 	rsbsvc	r5, r5, #16, 30	; 0x40
    9608:	25ce0500 	strbcs	r0, [lr, #1280]	; 0x500
    960c:	3c000000 	stccc	0, cr0, [r0], {-0}
    9610:	0000b80c 	andeq	fp, r0, ip, lsl #16
    9614:	d4d10500 	ldrble	r0, [r1], #1280	; 0x500
    9618:	40000005 	andmi	r0, r0, r5
    961c:	0004db0c 	andeq	sp, r4, ip, lsl #22
    9620:	e4d20500 	ldrb	r0, [r2], #1280	; 0x500
    9624:	43000005 	movwmi	r0, #5
    9628:	626c5f10 	rsbvs	r5, ip, #16, 30	; 0x40
    962c:	b6d50500 	ldrblt	r0, [r5], r0, lsl #10
    9630:	44000002 	strmi	r0, [r0], #-2
    9634:	0001400c 	andeq	r4, r1, ip
    9638:	25d80500 	ldrbcs	r0, [r8, #1280]	; 0x500
    963c:	4c000000 	stcmi	0, cr0, [r0], {-0}
    9640:	0001510c 	andeq	r5, r1, ip, lsl #2
    9644:	7bd90500 	blvc	ff64aa4c <__bss_end__+0xff6409dc>
    9648:	50000000 	andpl	r0, r0, r0
    964c:	000a190c 	andeq	r1, sl, ip, lsl #18
    9650:	29dc0500 	ldmibcs	ip, {r8, sl}^
    9654:	54000004 	strpl	r0, [r0], #-4
    9658:	0002760c 	andeq	r7, r2, ip, lsl #12
    965c:	ffe00500 			; <UNDEFINED> instruction: 0xffe00500
    9660:	58000000 	stmdapl	r0, {}	; <UNPREDICTABLE>
    9664:	0003410c 	andeq	r4, r3, ip, lsl #2
    9668:	f4e20500 	vld2.16	{d16[0],d17[0]}, [r2], r0
    966c:	5c000000 	stcpl	0, cr0, [r0], {-0}
    9670:	00027c0c 	andeq	r7, r2, ip, lsl #24
    9674:	25e30500 	strbcs	r0, [r3, #1280]!	; 0x500
    9678:	64000000 	strvs	r0, [r0], #-0
    967c:	00251400 	eoreq	r1, r5, r0, lsl #8
    9680:	04290000 	strteq	r0, [r9], #-0
    9684:	29150000 	ldmdbcs	r5, {}	; <UNPREDICTABLE>
    9688:	15000004 	strne	r0, [r0, #-4]
    968c:	0000010a 	andeq	r0, r0, sl, lsl #2
    9690:	00010c15 	andeq	r0, r1, r5, lsl ip
    9694:	00251500 	eoreq	r1, r5, r0, lsl #10
    9698:	0e000000 	cdpeq	0, 0, cr0, cr0, cr0, {0}
    969c:	00043404 	andeq	r3, r4, r4, lsl #8
    96a0:	04290400 	strteq	r0, [r9], #-1024	; 0xfffffc00
    96a4:	8e160000 	cdphi	0, 1, cr0, cr6, cr0, {0}
    96a8:	28000003 	stmdacs	r0, {r0, r1}
    96ac:	02380504 	eorseq	r0, r8, #4, 10	; 0x1000000
    96b0:	00000566 	andeq	r0, r0, r6, ror #10
    96b4:	0002ff17 	andeq	pc, r2, r7, lsl pc	; <UNPREDICTABLE>
    96b8:	023a0500 	eorseq	r0, sl, #0, 10
    96bc:	00000025 	andeq	r0, r0, r5, lsr #32
    96c0:	01311700 	teqeq	r1, r0, lsl #14
    96c4:	3f050000 	svccc	0x00050000
    96c8:	00063b02 	andeq	r3, r6, r2, lsl #22
    96cc:	fb170400 	blx	5ca6d6 <__bss_end__+0x5c0666>
    96d0:	05000001 	streq	r0, [r0, #-1]
    96d4:	063b023f 			; <UNDEFINED> instruction: 0x063b023f
    96d8:	17080000 	strne	r0, [r8, -r0]
    96dc:	000001ab 	andeq	r0, r0, fp, lsr #3
    96e0:	3b023f05 	blcc	992fc <__bss_end__+0x8f28c>
    96e4:	0c000006 	stceq	0, cr0, [r0], {6}
    96e8:	00036217 	andeq	r6, r3, r7, lsl r2
    96ec:	02410500 	subeq	r0, r1, #0, 10
    96f0:	00000025 	andeq	r0, r0, r5, lsr #32
    96f4:	00291710 	eoreq	r1, r9, r0, lsl r7
    96f8:	42050000 	andmi	r0, r5, #0
    96fc:	00081d02 	andeq	r1, r8, r2, lsl #26
    9700:	7b171400 	blvc	5ce708 <__bss_end__+0x5c4698>
    9704:	05000004 	streq	r0, [r0, #-4]
    9708:	00250244 	eoreq	r0, r5, r4, asr #4
    970c:	17300000 	ldrne	r0, [r0, -r0]!
    9710:	0000036c 	andeq	r0, r0, ip, ror #6
    9714:	8a024505 	bhi	9ab30 <__bss_end__+0x90ac0>
    9718:	34000005 	strcc	r0, [r0], #-5
    971c:	0002bc17 	andeq	fp, r2, r7, lsl ip
    9720:	02470500 	subeq	r0, r7, #0, 10
    9724:	00000025 	andeq	r0, r0, r5, lsr #32
    9728:	037c1738 	cmneq	ip, #56, 14	; 0xe00000
    972c:	49050000 	stmdbmi	r5, {}	; <UNPREDICTABLE>
    9730:	00083802 	andeq	r3, r8, r2, lsl #16
    9734:	5a173c00 	bpl	5d873c <__bss_end__+0x5ce6cc>
    9738:	05000002 	streq	r0, [r0, #-2]
    973c:	017c024c 	cmneq	ip, ip, asr #4
    9740:	17400000 	strbne	r0, [r0, -r0]
    9744:	000001ca 	andeq	r0, r0, sl, asr #3
    9748:	25024d05 	strcs	r4, [r2, #-3333]	; 0xfffff2fb
    974c:	44000000 	strmi	r0, [r0], #-0
    9750:	00051d17 	andeq	r1, r5, r7, lsl sp
    9754:	024e0500 	subeq	r0, lr, #0, 10
    9758:	0000017c 	andeq	r0, r0, ip, ror r1
    975c:	02ce1748 	sbceq	r1, lr, #72, 14	; 0x1200000
    9760:	4f050000 	svcmi	0x00050000
    9764:	00083e02 	andeq	r3, r8, r2, lsl #28
    9768:	03174c00 	tsteq	r7, #0, 24
    976c:	05000002 	streq	r0, [r0, #-2]
    9770:	00250252 	eoreq	r0, r5, r2, asr r2
    9774:	17500000 	ldrbne	r0, [r0, -r0]
    9778:	00000149 	andeq	r0, r0, r9, asr #2
    977c:	0c025305 	stceq	3, cr5, [r2], {5}
    9780:	54000001 	strpl	r0, [r0], #-1
    9784:	0002f817 	andeq	pc, r2, r7, lsl r8	; <UNPREDICTABLE>
    9788:	02760500 	rsbseq	r0, r6, #0, 10
    978c:	000007fb 	strdeq	r0, [r0], -fp
    9790:	02b41858 	adcseq	r1, r4, #88, 16	; 0x580000
    9794:	7a050000 	bvc	14979c <__bss_end__+0x13f72c>
    9798:	00029902 	andeq	r9, r2, r2, lsl #18
    979c:	18014800 	stmdane	r1, {fp, lr}
    97a0:	00000238 	andeq	r0, r0, r8, lsr r2
    97a4:	5b027b05 	blpl	a83c0 <__bss_end__+0x9e350>
    97a8:	4c000002 	stcmi	0, cr0, [r0], {2}
    97ac:	04c91801 	strbeq	r1, [r9], #2049	; 0x801
    97b0:	7f050000 	svcvc	0x00050000
    97b4:	00084f02 	andeq	r4, r8, r2, lsl #30
    97b8:	1802dc00 	stmdane	r2, {sl, fp, ip, lr, pc}
    97bc:	0000011a 	andeq	r0, r0, sl, lsl r1
    97c0:	00028405 	andeq	r8, r2, r5, lsl #8
    97c4:	e0000006 	and	r0, r0, r6
    97c8:	00ff1802 	rscseq	r1, pc, r2, lsl #16
    97cc:	85050000 	strhi	r0, [r5, #-0]
    97d0:	00085b02 	andeq	r5, r8, r2, lsl #22
    97d4:	0002ec00 	andeq	lr, r2, r0, lsl #24
    97d8:	040b040e 	streq	r0, [fp], #-1038	; 0xfffffbf2
    97dc:	25140000 	ldrcs	r0, [r4, #-0]
    97e0:	8a000000 	bhi	97e8 <__FUNCTION__.4339+0xac>
    97e4:	15000005 	strne	r0, [r0, #-5]
    97e8:	00000429 	andeq	r0, r0, r9, lsr #8
    97ec:	00010a15 	andeq	r0, r1, r5, lsl sl
    97f0:	058a1500 	streq	r1, [sl, #1280]	; 0x500
    97f4:	25150000 	ldrcs	r0, [r5, #-0]
    97f8:	00000000 	andeq	r0, r0, r0
    97fc:	0119040e 	tsteq	r9, lr, lsl #8
    9800:	040e0000 	streq	r0, [lr], #-0
    9804:	0000056c 	andeq	r0, r0, ip, ror #10
    9808:	00008614 	andeq	r8, r0, r4, lsl r6
    980c:	0005b400 	andeq	fp, r5, r0, lsl #8
    9810:	04291500 	strteq	r1, [r9], #-1280	; 0xfffffb00
    9814:	0a150000 	beq	54981c <__bss_end__+0x53f7ac>
    9818:	15000001 	strne	r0, [r0, #-1]
    981c:	00000086 	andeq	r0, r0, r6, lsl #1
    9820:	00002515 	andeq	r2, r0, r5, lsl r5
    9824:	040e0000 	streq	r0, [lr], #-0
    9828:	00000596 	muleq	r0, r6, r5
    982c:	00002514 	andeq	r2, r0, r4, lsl r5
    9830:	0005ce00 	andeq	ip, r5, r0, lsl #28
    9834:	04291500 	strteq	r1, [r9], #-1280	; 0xfffffb00
    9838:	0a150000 	beq	549840 <__bss_end__+0x53f7d0>
    983c:	00000001 	andeq	r0, r0, r1
    9840:	05ba040e 	ldreq	r0, [sl, #1038]!	; 0x40e
    9844:	54090000 	strpl	r0, [r9], #-0
    9848:	e4000000 	str	r0, [r0], #-0
    984c:	0a000005 	beq	9868 <__FUNCTION__.4339+0x12c>
    9850:	000000cc 	andeq	r0, r0, ip, asr #1
    9854:	54090002 	strpl	r0, [r9], #-2
    9858:	f4000000 	vst4.8	{d0-d3}, [r0], r0
    985c:	0a000005 	beq	9878 <__FUNCTION__.4339+0x13c>
    9860:	000000cc 	andeq	r0, r0, ip, asr #1
    9864:	27060000 	strcs	r0, [r6, -r0]
    9868:	05000003 	streq	r0, [r0, #-3]
    986c:	02e1011d 	rsceq	r0, r1, #1073741831	; 0x40000007
    9870:	b0190000 	andslt	r0, r9, r0
    9874:	0c000004 	stceq	0, cr0, [r0], {4}
    9878:	35012105 	strcc	r2, [r1, #-261]	; 0xfffffefb
    987c:	17000006 	strne	r0, [r0, -r6]
    9880:	0000034f 	andeq	r0, r0, pc, asr #6
    9884:	35012305 	strcc	r2, [r1, #-773]	; 0xfffffcfb
    9888:	00000006 	andeq	r0, r0, r6
    988c:	00021e17 	andeq	r1, r2, r7, lsl lr
    9890:	01240500 			; <UNDEFINED> instruction: 0x01240500
    9894:	00000025 	andeq	r0, r0, r5, lsr #32
    9898:	03211704 			; <UNDEFINED> instruction: 0x03211704
    989c:	25050000 	strcs	r0, [r5, #-0]
    98a0:	00063b01 	andeq	r3, r6, r1, lsl #22
    98a4:	0e000800 	cdpeq	8, 0, cr0, cr0, cr0, {0}
    98a8:	00060004 	andeq	r0, r6, r4
    98ac:	f4040e00 			; <UNDEFINED> instruction: 0xf4040e00
    98b0:	19000005 	stmdbne	r0, {r0, r2}
    98b4:	00000021 	andeq	r0, r0, r1, lsr #32
    98b8:	013d050e 	teqeq	sp, lr, lsl #10
    98bc:	00000676 	andeq	r0, r0, r6, ror r6
    98c0:	00039517 	andeq	r9, r3, r7, lsl r5
    98c4:	013e0500 	teqeq	lr, r0, lsl #10
    98c8:	00000676 	andeq	r0, r0, r6, ror r6
    98cc:	03c21700 	biceq	r1, r2, #0, 14
    98d0:	3f050000 	svccc	0x00050000
    98d4:	00067601 	andeq	r7, r6, r1, lsl #12
    98d8:	40170600 	andsmi	r0, r7, r0, lsl #12
    98dc:	05000004 	streq	r0, [r0, #-4]
    98e0:	005b0140 	subseq	r0, fp, r0, asr #2
    98e4:	000c0000 	andeq	r0, ip, r0
    98e8:	00005b09 	andeq	r5, r0, r9, lsl #22
    98ec:	00068600 	andeq	r8, r6, r0, lsl #12
    98f0:	00cc0a00 	sbceq	r0, ip, r0, lsl #20
    98f4:	00020000 	andeq	r0, r2, r0
    98f8:	5705d01a 	smladpl	r5, sl, r0, sp
    98fc:	00078702 	andeq	r8, r7, r2, lsl #14
    9900:	04941700 	ldreq	r1, [r4], #1792	; 0x700
    9904:	59050000 	stmdbpl	r5, {}	; <UNPREDICTABLE>
    9908:	00002c02 	andeq	r2, r0, r2, lsl #24
    990c:	2a170000 	bcs	5c9914 <__bss_end__+0x5bf8a4>
    9910:	05000004 	streq	r0, [r0, #-4]
    9914:	010c025a 	tsteq	ip, sl, asr r2
    9918:	17040000 	strne	r0, [r4, -r0]
    991c:	0000024d 	andeq	r0, r0, sp, asr #4
    9920:	87025b05 	strhi	r5, [r2, -r5, lsl #22]
    9924:	08000007 	stmdaeq	r0, {r0, r1, r2}
    9928:	0004f417 	andeq	pc, r4, r7, lsl r4	; <UNPREDICTABLE>
    992c:	025c0500 	subseq	r0, ip, #0, 10
    9930:	00000192 	muleq	r0, r2, r1
    9934:	01bb1724 			; <UNDEFINED> instruction: 0x01bb1724
    9938:	5d050000 	stcpl	0, cr0, [r5, #-0]
    993c:	00002502 	andeq	r2, r0, r2, lsl #10
    9940:	4a174800 	bmi	5db948 <__bss_end__+0x5d18d8>
    9944:	05000003 	streq	r0, [r0, #-3]
    9948:	0069025e 	rsbeq	r0, r9, lr, asr r2
    994c:	17500000 	ldrbne	r0, [r0, -r0]
    9950:	0000050a 	andeq	r0, r0, sl, lsl #10
    9954:	41025f05 	tstmi	r2, r5, lsl #30
    9958:	58000006 	stmdapl	r0, {r1, r2}
    995c:	00035517 	andeq	r5, r3, r7, lsl r5
    9960:	02600500 	rsbeq	r0, r0, #0, 10
    9964:	000000f4 	strdeq	r0, [r0], -r4
    9968:	050f1768 	streq	r1, [pc, #-1896]	; 9208 <put16+0x4>
    996c:	61050000 	mrsvs	r0, (UNDEF: 5)
    9970:	0000f402 	andeq	pc, r0, r2, lsl #8
    9974:	93177000 	tstls	r7, #0
    9978:	05000000 	streq	r0, [r0, #-0]
    997c:	00f40262 	rscseq	r0, r4, r2, ror #4
    9980:	17780000 	ldrbne	r0, [r8, -r0]!
    9984:	000004bf 			; <UNDEFINED> instruction: 0x000004bf
    9988:	97026305 	strls	r6, [r2, -r5, lsl #6]
    998c:	80000007 	andhi	r0, r0, r7
    9990:	00024117 	andeq	r4, r2, r7, lsl r1
    9994:	02640500 	rsbeq	r0, r4, #0, 10
    9998:	000007a7 	andeq	r0, r0, r7, lsr #15
    999c:	044d1788 	strbeq	r1, [sp], #-1928	; 0xfffff878
    99a0:	65050000 	strvs	r0, [r5, #-0]
    99a4:	00002502 	andeq	r2, r0, r2, lsl #10
    99a8:	8117a000 	tsthi	r7, r0
    99ac:	05000001 	streq	r0, [r0, #-1]
    99b0:	00f40266 	rscseq	r0, r4, r6, ror #4
    99b4:	17a40000 	strne	r0, [r4, r0]!
    99b8:	00000084 	andeq	r0, r0, r4, lsl #1
    99bc:	f4026705 	vst1.8	{d6}, [r2], r5
    99c0:	ac000000 	stcge	0, cr0, [r0], {-0}
    99c4:	00017017 	andeq	r7, r1, r7, lsl r0
    99c8:	02680500 	rsbeq	r0, r8, #0, 10
    99cc:	000000f4 	strdeq	r0, [r0], -r4
    99d0:	003c17b4 	ldrhteq	r1, [ip], -r4
    99d4:	69050000 	stmdbvs	r5, {}	; <UNPREDICTABLE>
    99d8:	0000f402 	andeq	pc, r0, r2, lsl #8
    99dc:	4b17bc00 	blmi	5f89e4 <__bss_end__+0x5ee974>
    99e0:	05000000 	streq	r0, [r0, #-0]
    99e4:	00f4026a 	rscseq	r0, r4, sl, ror #4
    99e8:	17c40000 	strbne	r0, [r4, r0]
    99ec:	000002fd 	strdeq	r0, [r0], -sp
    99f0:	25026b05 	strcs	r6, [r2, #-2821]	; 0xfffff4fb
    99f4:	cc000000 	stcgt	0, cr0, [r0], {-0}
    99f8:	01120900 	tsteq	r2, r0, lsl #18
    99fc:	07970000 	ldreq	r0, [r7, r0]
    9a00:	cc0a0000 	stcgt	0, cr0, [sl], {-0}
    9a04:	19000000 	stmdbne	r0, {}	; <UNPREDICTABLE>
    9a08:	01120900 	tsteq	r2, r0, lsl #18
    9a0c:	07a70000 	streq	r0, [r7, r0]!
    9a10:	cc0a0000 	stcgt	0, cr0, [sl], {-0}
    9a14:	07000000 	streq	r0, [r0, -r0]
    9a18:	01120900 	tsteq	r2, r0, lsl #18
    9a1c:	07b70000 	ldreq	r0, [r7, r0]!
    9a20:	cc0a0000 	stcgt	0, cr0, [sl], {-0}
    9a24:	17000000 	strne	r0, [r0, -r0]
    9a28:	05f01a00 	ldrbeq	r1, [r0, #2560]!	; 0xa00
    9a2c:	07db0270 			; <UNDEFINED> instruction: 0x07db0270
    9a30:	a4170000 	ldrge	r0, [r7], #-0
    9a34:	05000002 	streq	r0, [r0, #-2]
    9a38:	07db0273 			; <UNDEFINED> instruction: 0x07db0273
    9a3c:	17000000 	strne	r0, [r0, -r0]
    9a40:	000004b6 			; <UNDEFINED> instruction: 0x000004b6
    9a44:	eb027405 	bl	a6a60 <__bss_end__+0x9c9f0>
    9a48:	78000007 	stmdavc	r0, {r0, r1, r2}
    9a4c:	02db0900 	sbcseq	r0, fp, #0, 18
    9a50:	07eb0000 	strbeq	r0, [fp, r0]!
    9a54:	cc0a0000 	stcgt	0, cr0, [sl], {-0}
    9a58:	1d000000 	stcne	0, cr0, [r0, #-0]
    9a5c:	002c0900 	eoreq	r0, ip, r0, lsl #18
    9a60:	07fb0000 	ldrbeq	r0, [fp, r0]!
    9a64:	cc0a0000 	stcgt	0, cr0, [sl], {-0}
    9a68:	1d000000 	stcne	0, cr0, [r0, #-0]
    9a6c:	05f01b00 	ldrbeq	r1, [r0, #2816]!	; 0xb00
    9a70:	081d0255 	ldmdaeq	sp, {r0, r2, r4, r6, r9}
    9a74:	8e1c0000 	cdphi	0, 1, cr0, cr12, cr0, {0}
    9a78:	05000003 	streq	r0, [r0, #-3]
    9a7c:	0686026c 	streq	r0, [r6], ip, ror #4
    9a80:	e11c0000 	tst	ip, r0
    9a84:	05000004 	streq	r0, [r0, #-4]
    9a88:	07b70275 			; <UNDEFINED> instruction: 0x07b70275
    9a8c:	09000000 	stmdbeq	r0, {}	; <UNPREDICTABLE>
    9a90:	00000112 	andeq	r0, r0, r2, lsl r1
    9a94:	0000082d 	andeq	r0, r0, sp, lsr #16
    9a98:	0000cc0a 	andeq	ip, r0, sl, lsl #24
    9a9c:	1d001800 	stcne	8, cr1, [r0, #-0]
    9aa0:	00000838 	andeq	r0, r0, r8, lsr r8
    9aa4:	00042915 	andeq	r2, r4, r5, lsl r9
    9aa8:	040e0000 	streq	r0, [lr], #-0
    9aac:	0000082d 	andeq	r0, r0, sp, lsr #16
    9ab0:	017c040e 	cmneq	ip, lr, lsl #8
    9ab4:	4f1d0000 	svcmi	0x001d0000
    9ab8:	15000008 	strne	r0, [r0, #-8]
    9abc:	00000025 	andeq	r0, r0, r5, lsr #32
    9ac0:	55040e00 	strpl	r0, [r4, #-3584]	; 0xfffff200
    9ac4:	0e000008 	cdpeq	0, 0, cr0, cr0, cr8, {0}
    9ac8:	00084404 	andeq	r4, r8, r4, lsl #8
    9acc:	05f40900 	ldrbeq	r0, [r4, #2304]!	; 0x900
    9ad0:	086b0000 	stmdaeq	fp!, {}^	; <UNPREDICTABLE>
    9ad4:	cc0a0000 	stcgt	0, cr0, [sl], {-0}
    9ad8:	02000000 	andeq	r0, r0, #0
    9adc:	046f1e00 	strbteq	r1, [pc], #-3584	; 9ae4 <__FUNCTION__.4303+0x9c>
    9ae0:	fd050000 	stc2	0, cr0, [r5, #-0]
    9ae4:	00042902 	andeq	r2, r4, r2, lsl #18
    9ae8:	04681e00 	strbteq	r1, [r8], #-3584	; 0xfffff200
    9aec:	fe050000 	cdp2	0, 0, cr0, cr5, cr0, {0}
    9af0:	00042f02 	andeq	r2, r4, r2, lsl #30
    9af4:	00251400 	eoreq	r1, r5, r0, lsl #8
    9af8:	08920000 	ldmeq	r2, {}	; <UNPREDICTABLE>
    9afc:	25150000 	ldrcs	r0, [r5, #-0]
    9b00:	00000000 	andeq	r0, r0, r0
    9b04:	0001d41f 	andeq	sp, r1, pc, lsl r4
    9b08:	9d1d0600 	ldcls	6, cr0, [sp, #-0]
    9b0c:	0e000008 	cdpeq	0, 0, cr0, cr0, cr8, {0}
    9b10:	00088304 	andeq	r8, r8, r4, lsl #6
    9b14:	00251400 	eoreq	r1, r5, r0, lsl #8
    9b18:	08b20000 	ldmeq	r2!, {}	; <UNPREDICTABLE>
    9b1c:	8a150000 	bhi	549b24 <__bss_end__+0x53fab4>
    9b20:	00000005 	andeq	r0, r0, r5
    9b24:	0007691f 	andeq	r6, r7, pc, lsl r9
    9b28:	bd220600 	stclt	6, cr0, [r2, #-0]
    9b2c:	0e000008 	cdpeq	0, 0, cr0, cr0, cr8, {0}
    9b30:	0008a304 	andeq	sl, r8, r4, lsl #6
    9b34:	54012000 	strpl	r2, [r1], #-0
    9b38:	07000000 	streq	r0, [r0, -r0]
    9b3c:	0009000c 	andeq	r0, r9, ip
    9b40:	090a2100 	stmdbeq	sl, {r8, sp}
    9b44:	21000000 	mrscs	r0, (UNDEF: 0)
    9b48:	000009e4 	andeq	r0, r0, r4, ror #19
    9b4c:	0a1f2101 	beq	7d1f58 <__bss_end__+0x7c7ee8>
    9b50:	21040000 	mrscs	r0, (UNDEF: 4)
    9b54:	0000091f 	andeq	r0, r0, pc, lsl r9
    9b58:	09ab2105 	stmibeq	fp!, {r0, r2, r8, sp}
    9b5c:	21060000 	mrscs	r0, (UNDEF: 6)
    9b60:	00000a2e 	andeq	r0, r0, lr, lsr #20
    9b64:	0a3d2107 	beq	f51f88 <__bss_end__+0xf47f18>
    9b68:	21030000 	mrscs	r0, (UNDEF: 3)
    9b6c:	00000a4c 	andeq	r0, r0, ip, asr #20
    9b70:	c8050002 	stmdagt	r5, {r1}
    9b74:	0700000a 	streq	r0, [r0, -sl]
    9b78:	0008c315 	andeq	ip, r8, r5, lsl r3
    9b7c:	0a992200 	beq	fe652384 <__bss_end__+0xfe648314>
    9b80:	1d010000 	stcne	0, cr0, [r1, #-0]
    9b84:	00000033 	andeq	r0, r0, r3, lsr r0
    9b88:	2020001c 	eorcs	r0, r0, ip, lsl r0
    9b8c:	000ad422 	andeq	sp, sl, r2, lsr #8
    9b90:	331e0100 	tstcc	lr, #0, 2
    9b94:	28000000 	stmdacs	r0, {}	; <UNPREDICTABLE>
    9b98:	22202000 	eorcs	r2, r0, #0
    9b9c:	00000aa3 	andeq	r0, r0, r3, lsr #21
    9ba0:	00331f01 	eorseq	r1, r3, r1, lsl #30
    9ba4:	00340000 	eorseq	r0, r4, r0
    9ba8:	74232020 	strtvc	r2, [r3], #-32	; 0xffffffe0
    9bac:	0100000a 	tsteq	r0, sl
    9bb0:	00002556 	andeq	r2, r0, r6, asr r5
    9bb4:	0094a400 	addseq	sl, r4, r0, lsl #8
    9bb8:	00003400 	andeq	r3, r0, r0, lsl #8
    9bbc:	989c0100 	ldmls	ip, {r8}
    9bc0:	24000009 	strcs	r0, [r0], #-9
    9bc4:	006e6970 	rsbeq	r6, lr, r0, ror r9
    9bc8:	002c5601 	eoreq	r5, ip, r1, lsl #12
    9bcc:	116b0000 	cmnne	fp, r0
    9bd0:	68250000 	stmdavs	r5!, {}	; <UNPREDICTABLE>
    9bd4:	0100000a 	tsteq	r0, sl
    9bd8:	00002c59 	andeq	r2, r0, r9, asr ip
    9bdc:	0011a500 	andseq	sl, r1, r0, lsl #10
    9be0:	666f2600 	strbtvs	r2, [pc], -r0, lsl #12
    9be4:	5a010066 	bpl	49d84 <__bss_end__+0x3fd14>
    9be8:	0000002c 	andeq	r0, r0, ip, lsr #32
    9bec:	000011e3 	andeq	r1, r0, r3, ror #3
    9bf0:	0094c027 	addseq	ip, r4, r7, lsr #32
    9bf4:	000b5d00 	andeq	r5, fp, r0, lsl #26
    9bf8:	50012800 	andpl	r2, r1, r0, lsl #16
    9bfc:	5001f30b 	andpl	pc, r1, fp, lsl #6
    9c00:	b4232535 	strtlt	r2, [r3], #-1333	; 0xfffffacb
    9c04:	02818080 	addeq	r8, r1, #128	; 0x80
    9c08:	8e290000 	cdphi	0, 2, cr0, cr9, cr0, {0}
    9c0c:	0100000a 	tsteq	r0, sl
    9c10:	0094884f 	addseq	r8, r4, pc, asr #16
    9c14:	00001c00 	andeq	r1, r0, r0, lsl #24
    9c18:	e89c0100 	ldm	ip, {r8}
    9c1c:	24000009 	strcs	r0, [r0], #-9
    9c20:	006e6970 	rsbeq	r6, lr, r0, ror r9
    9c24:	002c4f01 	eoreq	r4, ip, r1, lsl #30
    9c28:	11f60000 	mvnsne	r0, r0
    9c2c:	76240000 	strtvc	r0, [r4], -r0
    9c30:	2c4f0100 	stfcse	f0, [pc], {-0}
    9c34:	30000000 	andcc	r0, r0, r0
    9c38:	2a000012 	bcs	9c88 <buf.4229+0x1c>
    9c3c:	00009498 	muleq	r0, r8, r4
    9c40:	00000a23 	andeq	r0, r0, r3, lsr #20
    9c44:	000009de 	ldrdeq	r0, [r0], -lr
    9c48:	03500128 	cmpeq	r0, #40, 2
    9c4c:	005001f3 	ldrsheq	r0, [r0], #-19	; 0xffffffed
    9c50:	0094a02b 	addseq	sl, r4, fp, lsr #32
    9c54:	000a6400 	andeq	r6, sl, r0, lsl #8
    9c58:	ad290000 	stcge	0, cr0, [r9, #-0]
    9c5c:	0100000a 	tsteq	r0, sl
    9c60:	0094784a 	addseq	r7, r4, sl, asr #16
    9c64:	00001000 	andeq	r1, r0, r0
    9c68:	239c0100 	orrscs	r0, ip, #0, 2
    9c6c:	2400000a 	strcs	r0, [r0], #-10
    9c70:	006e6970 	rsbeq	r6, lr, r0, ror r9
    9c74:	002c4a01 	eoreq	r4, ip, r1, lsl #20
    9c78:	126a0000 	rsbne	r0, sl, #0
    9c7c:	84270000 	strthi	r0, [r7], #-0
    9c80:	e0000094 	mul	r0, r4, r0
    9c84:	2800000a 	stmdacs	r0, {r1, r3}
    9c88:	f3035001 	vhadd.u8	d5, d3, d1
    9c8c:	01285001 			; <UNDEFINED> instruction: 0x01285001
    9c90:	00300151 	eorseq	r0, r0, r1, asr r1
    9c94:	0a5b2900 	beq	16d409c <__bss_end__+0x16ca02c>
    9c98:	43010000 	movwmi	r0, #4096	; 0x1000
    9c9c:	00009454 	andeq	r9, r0, r4, asr r4
    9ca0:	00000024 	andeq	r0, r0, r4, lsr #32
    9ca4:	0a649c01 	beq	1930cb0 <__bss_end__+0x1926c40>
    9ca8:	70240000 	eorvc	r0, r4, r0
    9cac:	01006e69 	tsteq	r0, r9, ror #28
    9cb0:	00002c43 	andeq	r2, r0, r3, asr #24
    9cb4:	00128b00 	andseq	r8, r2, r0, lsl #22
    9cb8:	94702700 	ldrbtls	r2, [r0], #-1792	; 0xfffff900
    9cbc:	0b680000 	bleq	1a09cc4 <__bss_end__+0x19ffc54>
    9cc0:	01280000 			; <UNDEFINED> instruction: 0x01280000
    9cc4:	280c0550 	stmdacs	ip, {r4, r6, r8, sl}
    9cc8:	28202000 	stmdacs	r0!, {sp}
    9ccc:	31055101 	tstcc	r5, r1, lsl #2
    9cd0:	245001f3 	ldrbcs	r0, [r0], #-499	; 0xfffffe0d
    9cd4:	bc290000 	stclt	0, cr0, [r9], #-0
    9cd8:	0100000a 	tsteq	r0, sl
    9cdc:	0094303c 	addseq	r3, r4, ip, lsr r0
    9ce0:	00002400 	andeq	r2, r0, r0, lsl #8
    9ce4:	a59c0100 	ldrge	r0, [ip, #256]	; 0x100
    9ce8:	2400000a 	strcs	r0, [r0], #-10
    9cec:	006e6970 	rsbeq	r6, lr, r0, ror r9
    9cf0:	002c3c01 	eoreq	r3, ip, r1, lsl #24
    9cf4:	12ac0000 	adcne	r0, ip, #0
    9cf8:	4c270000 	stcmi	0, cr0, [r7], #-0
    9cfc:	68000094 	stmdavs	r0, {r2, r4, r7}
    9d00:	2800000b 	stmdacs	r0, {r0, r1, r3}
    9d04:	0c055001 	stceq	0, cr5, [r5], {1}
    9d08:	2020001c 	eorcs	r0, r0, ip, lsl r0
    9d0c:	05510128 	ldrbeq	r0, [r1, #-296]	; 0xfffffed8
    9d10:	5001f331 	andpl	pc, r1, r1, lsr r3	; <UNPREDICTABLE>
    9d14:	29000024 	stmdbcs	r0, {r2, r5}
    9d18:	00000a7e 	andeq	r0, r0, lr, ror sl
    9d1c:	94203701 	strtls	r3, [r0], #-1793	; 0xfffff8ff
    9d20:	00100000 	andseq	r0, r0, r0
    9d24:	9c010000 	stcls	0, cr0, [r1], {-0}
    9d28:	00000ae0 	andeq	r0, r0, r0, ror #21
    9d2c:	6e697024 	cdpvs	0, 6, cr7, cr9, cr4, {1}
    9d30:	2c370100 	ldfcss	f0, [r7], #-0
    9d34:	cd000000 	stcgt	0, cr0, [r0, #-0]
    9d38:	27000012 	smladcs	r0, r2, r0, r0
    9d3c:	0000942c 	andeq	r9, r0, ip, lsr #8
    9d40:	00000ae0 	andeq	r0, r0, r0, ror #21
    9d44:	03500128 	cmpeq	r0, #40, 2
    9d48:	285001f3 	ldmdacs	r0, {r0, r1, r4, r5, r6, r7, r8}^
    9d4c:	31015101 	tstcc	r1, r1, lsl #2
    9d50:	ba290000 	blt	a49d58 <__bss_end__+0xa3fce8>
    9d54:	01000009 	tsteq	r0, r9
    9d58:	0093b828 	addseq	fp, r3, r8, lsr #16
    9d5c:	00006800 	andeq	r6, r0, r0, lsl #16
    9d60:	5d9c0100 	ldfpls	f0, [ip]
    9d64:	2400000b 	strcs	r0, [r0], #-11
    9d68:	006e6970 	rsbeq	r6, lr, r0, ror r9
    9d6c:	002c2801 	eoreq	r2, ip, r1, lsl #16
    9d70:	12ee0000 	rscne	r0, lr, #0
    9d74:	ce2c0000 	cdpgt	0, 2, cr0, cr12, cr0, {0}
    9d78:	01000004 	tsteq	r0, r4
    9d7c:	00090028 	andeq	r0, r9, r8, lsr #32
    9d80:	00130f00 	andseq	r0, r3, r0, lsl #30
    9d84:	666f2d00 	strbtvs	r2, [pc], -r0, lsl #26
    9d88:	2d010066 	stccs	0, cr0, [r1, #-408]	; 0xfffffe68
    9d8c:	0000002c 	andeq	r0, r0, ip, lsr #32
    9d90:	672d5401 	strvs	r5, [sp, -r1, lsl #8]!
    9d94:	2c2f0100 	stfcss	f0, [pc], #-0	; 9d9c <buf.4229+0x130>
    9d98:	01000000 	mrseq	r0, (UNDEF: 0)
    9d9c:	00762656 	rsbseq	r2, r6, r6, asr r6
    9da0:	002c3101 	eoreq	r3, ip, r1, lsl #2
    9da4:	13300000 	teqne	r0, #0
    9da8:	042a0000 	strteq	r0, [sl], #-0
    9dac:	5d000094 	stcpl	0, cr0, [r0, #-592]	; 0xfffffdb0
    9db0:	4c00000b 	stcmi	0, cr0, [r0], {11}
    9db4:	2800000b 	stmdacs	r0, {r0, r1, r3}
    9db8:	76025001 	strvc	r5, [r2], -r1
    9dbc:	18270000 	stmdane	r7!, {}	; <UNPREDICTABLE>
    9dc0:	68000094 	stmdavs	r0, {r2, r4, r7}
    9dc4:	2800000b 	stmdacs	r0, {r0, r1, r3}
    9dc8:	76025001 	strvc	r5, [r2], -r1
    9dcc:	2e000000 	cdpcs	0, 0, cr0, cr0, cr0, {0}
    9dd0:	000008de 	ldrdeq	r0, [r0], -lr
    9dd4:	000008de 	ldrdeq	r0, [r0], -lr
    9dd8:	0b2ea706 	bleq	bb39f8 <__bss_end__+0xba9988>
    9ddc:	0b000008 	bleq	9e04 <buf.4229+0x198>
    9de0:	06000008 	streq	r0, [r0], -r8
    9de4:	0c24009b 	stceq	0, cr0, [r4], #-620	; 0xfffffd94
    9de8:	00040000 	andeq	r0, r4, r0
    9dec:	00001e8f 	andeq	r1, r0, pc, lsl #29
    9df0:	03c80104 	biceq	r0, r8, #4, 2
    9df4:	de0c0000 	cdple	0, 0, cr0, cr12, cr0, {0}
    9df8:	4600000a 	strmi	r0, [r0], -sl
    9dfc:	d8000009 	stmdale	r0, {r0, r3}
    9e00:	94000094 	strls	r0, [r0], #-148	; 0xffffff6c
    9e04:	29000001 	stmdbcs	r0, {r0}
    9e08:	02000010 	andeq	r0, r0, #16
    9e0c:	6e690504 	cdpvs	5, 6, cr0, cr9, cr4, {0}
    9e10:	04030074 	streq	r0, [r3], #-116	; 0xffffff8c
    9e14:	00006607 	andeq	r6, r0, r7, lsl #12
    9e18:	06010300 	streq	r0, [r1], -r0, lsl #6
    9e1c:	000002ec 	andeq	r0, r0, ip, ror #5
    9e20:	06050203 	streq	r0, [r5], -r3, lsl #4
    9e24:	03000003 	movweq	r0, #3
    9e28:	00af0504 	adceq	r0, pc, r4, lsl #10
    9e2c:	08030000 	stmdaeq	r3, {}	; <UNPREDICTABLE>
    9e30:	0000aa05 	andeq	sl, r0, r5, lsl #20
    9e34:	08010300 	stmdaeq	r1, {r8, r9}
    9e38:	000002ea 	andeq	r0, r0, sl, ror #5
    9e3c:	25070203 	strcs	r0, [r7, #-515]	; 0xfffffdfd
    9e40:	03000002 	movweq	r0, #2
    9e44:	00610704 	rsbeq	r0, r1, r4, lsl #14
    9e48:	08030000 	stmdaeq	r3, {}	; <UNPREDICTABLE>
    9e4c:	00005c07 	andeq	r5, r0, r7, lsl #24
    9e50:	02d80400 	sbcseq	r0, r8, #0, 8
    9e54:	07020000 	streq	r0, [r2, -r0]
    9e58:	00000025 	andeq	r0, r0, r5, lsr #32
    9e5c:	0002c704 	andeq	ip, r2, r4, lsl #14
    9e60:	412c0300 			; <UNDEFINED> instruction: 0x412c0300
    9e64:	04000000 	streq	r0, [r0], #-0
    9e68:	000003b1 			; <UNDEFINED> instruction: 0x000003b1
    9e6c:	00417203 	subeq	r7, r1, r3, lsl #4
    9e70:	68050000 	stmdavs	r5, {}	; <UNPREDICTABLE>
    9e74:	04000002 	streq	r0, [r0], #-2
    9e78:	002c0165 	eoreq	r0, ip, r5, ror #2
    9e7c:	04060000 	streq	r0, [r6], #-0
    9e80:	00b7a603 	adcseq	sl, r7, r3, lsl #12
    9e84:	62070000 	andvs	r0, r7, #0
    9e88:	03000002 	movweq	r0, #2
    9e8c:	00008ca8 	andeq	r8, r0, r8, lsr #25
    9e90:	01e50700 	mvneq	r0, r0, lsl #14
    9e94:	a9030000 	stmdbge	r3, {}	; <UNPREDICTABLE>
    9e98:	000000b7 	strheq	r0, [r0], -r7
    9e9c:	004f0800 	subeq	r0, pc, r0, lsl #16
    9ea0:	00c70000 	sbceq	r0, r7, r0
    9ea4:	c7090000 	strgt	r0, [r9, -r0]
    9ea8:	03000000 	movweq	r0, #0
    9eac:	07040300 	streq	r0, [r4, -r0, lsl #6]
    9eb0:	0000029b 	muleq	r0, fp, r2
    9eb4:	a303080a 	movwge	r0, #14346	; 0x380a
    9eb8:	000000ef 	andeq	r0, r0, pc, ror #1
    9ebc:	00039b0b 	andeq	r9, r3, fp, lsl #22
    9ec0:	25a50300 	strcs	r0, [r5, #768]!	; 0x300
    9ec4:	00000000 	andeq	r0, r0, r0
    9ec8:	0003a30b 	andeq	sl, r3, fp, lsl #6
    9ecc:	98aa0300 	stmials	sl!, {r8, r9}
    9ed0:	04000000 	streq	r0, [r0], #-0
    9ed4:	032e0400 			; <UNDEFINED> instruction: 0x032e0400
    9ed8:	ab030000 	blge	c9ee0 <__bss_end__+0xbfe70>
    9edc:	000000ce 	andeq	r0, r0, lr, asr #1
    9ee0:	0001a204 	andeq	sl, r1, r4, lsl #4
    9ee4:	6baf0300 	blvs	febcaaec <__bss_end__+0xfebc0a7c>
    9ee8:	0c000000 	stceq	0, cr0, [r0], {-0}
    9eec:	0d040d04 	stceq	13, cr0, [r4, #-16]
    9ef0:	03000001 	movweq	r0, #1
    9ef4:	02f30801 	rscseq	r0, r3, #65536	; 0x10000
    9ef8:	0d0e0000 	stceq	0, cr0, [lr, #-0]
    9efc:	04000001 	streq	r0, [r0], #-1
    9f00:	00000445 	andeq	r0, r0, r5, asr #8
    9f04:	005d1605 	subseq	r1, sp, r5, lsl #12
    9f08:	b30f0000 	movwlt	r0, #61440	; 0xf000
    9f0c:	18000001 	stmdane	r0, {r0}
    9f10:	01772d05 	cmneq	r7, r5, lsl #26
    9f14:	4f0b0000 	svcmi	0x000b0000
    9f18:	05000003 	streq	r0, [r0, #-3]
    9f1c:	0001772f 	andeq	r7, r1, pc, lsr #14
    9f20:	5f100000 	svcpl	0x00100000
    9f24:	3005006b 	andcc	r0, r5, fp, rrx
    9f28:	00000025 	andeq	r0, r0, r5, lsr #32
    9f2c:	03860b04 	orreq	r0, r6, #4, 22	; 0x1000
    9f30:	30050000 	andcc	r0, r5, r0
    9f34:	00000025 	andeq	r0, r0, r5, lsr #32
    9f38:	019c0b08 	orrseq	r0, ip, r8, lsl #22
    9f3c:	30050000 	andcc	r0, r5, r0
    9f40:	00000025 	andeq	r0, r0, r5, lsr #32
    9f44:	04a10b0c 	strteq	r0, [r1], #2828	; 0xb0c
    9f48:	30050000 	andcc	r0, r5, r0
    9f4c:	00000025 	andeq	r0, r0, r5, lsr #32
    9f50:	785f1010 	ldmdavc	pc, {r4, ip}^	; <UNPREDICTABLE>
    9f54:	7d310500 	cfldr32vc	mvfx0, [r1, #-0]
    9f58:	14000001 	strne	r0, [r0], #-1
    9f5c:	24040d00 	strcs	r0, [r4], #-3328	; 0xfffff300
    9f60:	08000001 	stmdaeq	r0, {r0}
    9f64:	00000119 	andeq	r0, r0, r9, lsl r1
    9f68:	0000018d 	andeq	r0, r0, sp, lsl #3
    9f6c:	0000c709 	andeq	ip, r0, r9, lsl #14
    9f70:	0f000000 	svceq	0x00000000
    9f74:	000001e0 	andeq	r0, r0, r0, ror #3
    9f78:	06350524 	ldrteq	r0, [r5], -r4, lsr #10
    9f7c:	0b000002 	bleq	9f8c <buf.4229+0x320>
    9f80:	000000a1 	andeq	r0, r0, r1, lsr #1
    9f84:	00253705 	eoreq	r3, r5, r5, lsl #14
    9f88:	0b000000 	bleq	9f90 <buf.4229+0x324>
    9f8c:	000003b9 			; <UNDEFINED> instruction: 0x000003b9
    9f90:	00253805 	eoreq	r3, r5, r5, lsl #16
    9f94:	0b040000 	bleq	109f9c <__bss_end__+0xfff2c>
    9f98:	000000c4 	andeq	r0, r0, r4, asr #1
    9f9c:	00253905 	eoreq	r3, r5, r5, lsl #18
    9fa0:	0b080000 	bleq	209fa8 <__bss_end__+0x1fff38>
    9fa4:	00000522 	andeq	r0, r0, r2, lsr #10
    9fa8:	00253a05 	eoreq	r3, r5, r5, lsl #20
    9fac:	0b0c0000 	bleq	309fb4 <__bss_end__+0x2fff44>
    9fb0:	000002ab 	andeq	r0, r0, fp, lsr #5
    9fb4:	00253b05 	eoreq	r3, r5, r5, lsl #22
    9fb8:	0b100000 	bleq	409fc0 <__bss_end__+0x3fff50>
    9fbc:	00000284 	andeq	r0, r0, r4, lsl #5
    9fc0:	00253c05 	eoreq	r3, r5, r5, lsl #24
    9fc4:	0b140000 	bleq	509fcc <__bss_end__+0x4fff5c>
    9fc8:	000004a6 	andeq	r0, r0, r6, lsr #9
    9fcc:	00253d05 	eoreq	r3, r5, r5, lsl #26
    9fd0:	0b180000 	bleq	609fd8 <__bss_end__+0x5fff68>
    9fd4:	00000310 	andeq	r0, r0, r0, lsl r3
    9fd8:	00253e05 	eoreq	r3, r5, r5, lsl #28
    9fdc:	0b1c0000 	bleq	709fe4 <__bss_end__+0x6fff74>
    9fe0:	000004e9 	andeq	r0, r0, r9, ror #9
    9fe4:	00253f05 	eoreq	r3, r5, r5, lsl #30
    9fe8:	00200000 	eoreq	r0, r0, r0
    9fec:	00010411 	andeq	r0, r1, r1, lsl r4
    9ff0:	05010800 	streq	r0, [r1, #-2048]	; 0xfffff800
    9ff4:	00024648 	andeq	r4, r2, r8, asr #12
    9ff8:	018f0b00 	orreq	r0, pc, r0, lsl #22
    9ffc:	49050000 	stmdbmi	r5, {}	; <UNPREDICTABLE>
    a000:	00000246 	andeq	r0, r0, r6, asr #4
    a004:	00000b00 	andeq	r0, r0, r0, lsl #22
    a008:	4a050000 	bmi	14a010 <__bss_end__+0x13ffa0>
    a00c:	00000246 	andeq	r0, r0, r6, asr #4
    a010:	04371280 	ldrteq	r1, [r7], #-640	; 0xfffffd80
    a014:	4c050000 	stcmi	0, cr0, [r5], {-0}
    a018:	00000119 	andeq	r0, r0, r9, lsl r1
    a01c:	29120100 	ldmdbcs	r2, {r8}
    a020:	05000001 	streq	r0, [r0, #-1]
    a024:	0001194f 	andeq	r1, r1, pc, asr #18
    a028:	00010400 	andeq	r0, r1, r0, lsl #8
    a02c:	00010508 	andeq	r0, r1, r8, lsl #10
    a030:	00025600 	andeq	r5, r2, r0, lsl #12
    a034:	00c70900 	sbceq	r0, r7, r0, lsl #18
    a038:	001f0000 	andseq	r0, pc, r0
    a03c:	0002b411 	andeq	fp, r2, r1, lsl r4
    a040:	05019000 	streq	r9, [r1, #-0]
    a044:	0002945b 	andeq	r9, r2, fp, asr r4
    a048:	034f0b00 	movteq	r0, #64256	; 0xfb00
    a04c:	5c050000 	stcpl	0, cr0, [r5], {-0}
    a050:	00000294 	muleq	r0, r4, r2
    a054:	03670b00 	cmneq	r7, #0, 22
    a058:	5d050000 	stcpl	0, cr0, [r5, #-0]
    a05c:	00000025 	andeq	r0, r0, r5, lsr #32
    a060:	01970b04 	orrseq	r0, r7, r4, lsl #22
    a064:	5f050000 	svcpl	0x00050000
    a068:	0000029a 	muleq	r0, sl, r2
    a06c:	01040b08 	tsteq	r4, r8, lsl #22
    a070:	60050000 	andvs	r0, r5, r0
    a074:	00000206 	andeq	r0, r0, r6, lsl #4
    a078:	040d0088 	streq	r0, [sp], #-136	; 0xffffff78
    a07c:	00000256 	andeq	r0, r0, r6, asr r2
    a080:	0002aa08 	andeq	sl, r2, r8, lsl #20
    a084:	0002aa00 	andeq	sl, r2, r0, lsl #20
    a088:	00c70900 	sbceq	r0, r7, r0, lsl #18
    a08c:	001f0000 	andseq	r0, pc, r0
    a090:	02b0040d 	adcseq	r0, r0, #218103808	; 0xd000000
    a094:	0f130000 	svceq	0x00130000
    a098:	0000031a 	andeq	r0, r0, sl, lsl r3
    a09c:	d6730508 	ldrbtle	r0, [r3], -r8, lsl #10
    a0a0:	0b000002 	bleq	a0b0 <__bss_end__+0x40>
    a0a4:	000000be 	strheq	r0, [r0], -lr
    a0a8:	02d67405 	sbcseq	r7, r6, #83886080	; 0x5000000
    a0ac:	0b000000 	bleq	a0b4 <__bss_end__+0x44>
    a0b0:	0000001b 	andeq	r0, r0, fp, lsl r0
    a0b4:	00257505 	eoreq	r7, r5, r5, lsl #10
    a0b8:	00040000 	andeq	r0, r4, r0
    a0bc:	004f040d 	subeq	r0, pc, sp, lsl #8
    a0c0:	390f0000 	stmdbcc	pc, {}	; <UNPREDICTABLE>
    a0c4:	68000003 	stmdavs	r0, {r0, r1}
    a0c8:	0406b305 	streq	fp, [r6], #-773	; 0xfffffcfb
    a0cc:	5f100000 	svcpl	0x00100000
    a0d0:	b4050070 	strlt	r0, [r5], #-112	; 0xffffff90
    a0d4:	000002d6 	ldrdeq	r0, [r0], -r6
    a0d8:	725f1000 	subsvc	r1, pc, #0
    a0dc:	25b50500 	ldrcs	r0, [r5, #1280]!	; 0x500
    a0e0:	04000000 	streq	r0, [r0], #-0
    a0e4:	00775f10 	rsbseq	r5, r7, r0, lsl pc
    a0e8:	0025b605 	eoreq	fp, r5, r5, lsl #12
    a0ec:	0b080000 	bleq	20a0f4 <__bss_end__+0x200084>
    a0f0:	00000122 	andeq	r0, r0, r2, lsr #2
    a0f4:	003ab705 	eorseq	fp, sl, r5, lsl #14
    a0f8:	0b0c0000 	bleq	30a100 <__bss_end__+0x300090>
    a0fc:	0000020b 	andeq	r0, r0, fp, lsl #4
    a100:	003ab805 	eorseq	fp, sl, r5, lsl #16
    a104:	100e0000 	andne	r0, lr, r0
    a108:	0066625f 	rsbeq	r6, r6, pc, asr r2
    a10c:	02b1b905 	adcseq	fp, r1, #81920	; 0x14000
    a110:	0b100000 	bleq	40a118 <__bss_end__+0x4000a8>
    a114:	0000007b 	andeq	r0, r0, fp, ror r0
    a118:	0025ba05 	eoreq	fp, r5, r5, lsl #20
    a11c:	0b180000 	bleq	60a124 <__bss_end__+0x6000b4>
    a120:	00000112 	andeq	r0, r0, r2, lsl r1
    a124:	0105c105 	tsteq	r5, r5, lsl #2
    a128:	0b1c0000 	bleq	70a130 <__bss_end__+0x7000c0>
    a12c:	00000a78 	andeq	r0, r0, r8, ror sl
    a130:	0561c305 	strbeq	ip, [r1, #-773]!	; 0xfffffcfb
    a134:	0b200000 	bleq	80a13c <__bss_end__+0x8000cc>
    a138:	0000060c 	andeq	r0, r0, ip, lsl #12
    a13c:	058bc505 	streq	ip, [fp, #1285]	; 0x505
    a140:	0b240000 	bleq	90a148 <__bss_end__+0x9000d8>
    a144:	000003ab 	andeq	r0, r0, fp, lsr #7
    a148:	05afc805 	streq	ip, [pc, #2053]!	; a955 <__bss_end__+0x8e5>
    a14c:	0b280000 	bleq	a0a154 <__bss_end__+0xa000e4>
    a150:	00000503 	andeq	r0, r0, r3, lsl #10
    a154:	05c9c905 	strbeq	ip, [r9, #2309]	; 0x905
    a158:	102c0000 	eorne	r0, ip, r0
    a15c:	0062755f 	rsbeq	r7, r2, pc, asr r5
    a160:	02b1cc05 	adcseq	ip, r1, #1280	; 0x500
    a164:	10300000 	eorsne	r0, r0, r0
    a168:	0070755f 	rsbseq	r7, r0, pc, asr r5
    a16c:	02d6cd05 	sbcseq	ip, r6, #320	; 0x140
    a170:	10380000 	eorsne	r0, r8, r0
    a174:	0072755f 	rsbseq	r7, r2, pc, asr r5
    a178:	0025ce05 	eoreq	ip, r5, r5, lsl #28
    a17c:	0b3c0000 	bleq	f0a184 <__bss_end__+0xf00114>
    a180:	000000b8 	strheq	r0, [r0], -r8
    a184:	05cfd105 	strbeq	sp, [pc, #261]	; a291 <__bss_end__+0x221>
    a188:	0b400000 	bleq	100a190 <__bss_end__+0x1000120>
    a18c:	000004db 	ldrdeq	r0, [r0], -fp
    a190:	05dfd205 	ldrbeq	sp, [pc, #517]	; a39d <__bss_end__+0x32d>
    a194:	10430000 	subne	r0, r3, r0
    a198:	00626c5f 	rsbeq	r6, r2, pc, asr ip
    a19c:	02b1d505 	adcseq	sp, r1, #20971520	; 0x1400000
    a1a0:	0b440000 	bleq	110a1a8 <__bss_end__+0x1100138>
    a1a4:	00000140 	andeq	r0, r0, r0, asr #2
    a1a8:	0025d805 	eoreq	sp, r5, r5, lsl #16
    a1ac:	0b4c0000 	bleq	130a1b4 <__bss_end__+0x1300144>
    a1b0:	00000151 	andeq	r0, r0, r1, asr r1
    a1b4:	0076d905 	rsbseq	sp, r6, r5, lsl #18
    a1b8:	0b500000 	bleq	140a1c0 <__bss_end__+0x1400150>
    a1bc:	00000a19 	andeq	r0, r0, r9, lsl sl
    a1c0:	0424dc05 	strteq	sp, [r4], #-3077	; 0xfffff3fb
    a1c4:	0b540000 	bleq	150a1cc <__bss_end__+0x150015c>
    a1c8:	00000276 	andeq	r0, r0, r6, ror r2
    a1cc:	00fae005 	rscseq	lr, sl, r5
    a1d0:	0b580000 	bleq	160a1d8 <__bss_end__+0x1600168>
    a1d4:	00000341 	andeq	r0, r0, r1, asr #6
    a1d8:	00efe205 	rsceq	lr, pc, r5, lsl #4
    a1dc:	0b5c0000 	bleq	170a1e4 <__bss_end__+0x1700174>
    a1e0:	0000027c 	andeq	r0, r0, ip, ror r2
    a1e4:	0025e305 	eoreq	lr, r5, r5, lsl #6
    a1e8:	00640000 	rsbeq	r0, r4, r0
    a1ec:	00002514 	andeq	r2, r0, r4, lsl r5
    a1f0:	00042400 	andeq	r2, r4, r0, lsl #8
    a1f4:	04241500 	strteq	r1, [r4], #-1280	; 0xfffffb00
    a1f8:	05150000 	ldreq	r0, [r5, #-0]
    a1fc:	15000001 	strne	r0, [r0, #-1]
    a200:	00000107 	andeq	r0, r0, r7, lsl #2
    a204:	00002515 	andeq	r2, r0, r5, lsl r5
    a208:	040d0000 	streq	r0, [sp], #-0
    a20c:	0000042f 	andeq	r0, r0, pc, lsr #8
    a210:	0004240e 	andeq	r2, r4, lr, lsl #8
    a214:	038e1600 	orreq	r1, lr, #0, 12
    a218:	04280000 	strteq	r0, [r8], #-0
    a21c:	61023805 	tstvs	r2, r5, lsl #16
    a220:	17000005 	strne	r0, [r0, -r5]
    a224:	000002ff 	strdeq	r0, [r0], -pc	; <UNPREDICTABLE>
    a228:	25023a05 	strcs	r3, [r2, #-2565]	; 0xfffff5fb
    a22c:	00000000 	andeq	r0, r0, r0
    a230:	00013117 	andeq	r3, r1, r7, lsl r1
    a234:	023f0500 	eorseq	r0, pc, #0, 10
    a238:	00000636 	andeq	r0, r0, r6, lsr r6
    a23c:	01fb1704 	mvnseq	r1, r4, lsl #14
    a240:	3f050000 	svccc	0x00050000
    a244:	00063602 	andeq	r3, r6, r2, lsl #12
    a248:	ab170800 	blge	5cc250 <__bss_end__+0x5c21e0>
    a24c:	05000001 	streq	r0, [r0, #-1]
    a250:	0636023f 			; <UNDEFINED> instruction: 0x0636023f
    a254:	170c0000 	strne	r0, [ip, -r0]
    a258:	00000362 	andeq	r0, r0, r2, ror #6
    a25c:	25024105 	strcs	r4, [r2, #-261]	; 0xfffffefb
    a260:	10000000 	andne	r0, r0, r0
    a264:	00002917 	andeq	r2, r0, r7, lsl r9
    a268:	02420500 	subeq	r0, r2, #0, 10
    a26c:	00000818 	andeq	r0, r0, r8, lsl r8
    a270:	047b1714 	ldrbteq	r1, [fp], #-1812	; 0xfffff8ec
    a274:	44050000 	strmi	r0, [r5], #-0
    a278:	00002502 	andeq	r2, r0, r2, lsl #10
    a27c:	6c173000 	ldcvs	0, cr3, [r7], {-0}
    a280:	05000003 	streq	r0, [r0, #-3]
    a284:	05850245 	streq	r0, [r5, #581]	; 0x245
    a288:	17340000 	ldrne	r0, [r4, -r0]!
    a28c:	000002bc 			; <UNDEFINED> instruction: 0x000002bc
    a290:	25024705 	strcs	r4, [r2, #-1797]	; 0xfffff8fb
    a294:	38000000 	stmdacc	r0, {}	; <UNPREDICTABLE>
    a298:	00037c17 	andeq	r7, r3, r7, lsl ip
    a29c:	02490500 	subeq	r0, r9, #0, 10
    a2a0:	00000833 	andeq	r0, r0, r3, lsr r8
    a2a4:	025a173c 	subseq	r1, sl, #60, 14	; 0xf00000
    a2a8:	4c050000 	stcmi	0, cr0, [r5], {-0}
    a2ac:	00017702 	andeq	r7, r1, r2, lsl #14
    a2b0:	ca174000 	bgt	5da2b8 <__bss_end__+0x5d0248>
    a2b4:	05000001 	streq	r0, [r0, #-1]
    a2b8:	0025024d 	eoreq	r0, r5, sp, asr #4
    a2bc:	17440000 	strbne	r0, [r4, -r0]
    a2c0:	0000051d 	andeq	r0, r0, sp, lsl r5
    a2c4:	77024e05 	strvc	r4, [r2, -r5, lsl #28]
    a2c8:	48000001 	stmdami	r0, {r0}
    a2cc:	0002ce17 	andeq	ip, r2, r7, lsl lr
    a2d0:	024f0500 	subeq	r0, pc, #0, 10
    a2d4:	00000839 	andeq	r0, r0, r9, lsr r8
    a2d8:	0203174c 	andeq	r1, r3, #76, 14	; 0x1300000
    a2dc:	52050000 	andpl	r0, r5, #0
    a2e0:	00002502 	andeq	r2, r0, r2, lsl #10
    a2e4:	49175000 	ldmdbmi	r7, {ip, lr}
    a2e8:	05000001 	streq	r0, [r0, #-1]
    a2ec:	01070253 	tsteq	r7, r3, asr r2
    a2f0:	17540000 	ldrbne	r0, [r4, -r0]
    a2f4:	000002f8 	strdeq	r0, [r0], -r8
    a2f8:	f6027605 			; <UNDEFINED> instruction: 0xf6027605
    a2fc:	58000007 	stmdapl	r0, {r0, r1, r2}
    a300:	0002b418 	andeq	fp, r2, r8, lsl r4
    a304:	027a0500 	rsbseq	r0, sl, #0, 10
    a308:	00000294 	muleq	r0, r4, r2
    a30c:	38180148 	ldmdacc	r8, {r3, r6, r8}
    a310:	05000002 	streq	r0, [r0, #-2]
    a314:	0256027b 	subseq	r0, r6, #-1342177273	; 0xb0000007
    a318:	014c0000 	mrseq	r0, (UNDEF: 76)
    a31c:	0004c918 	andeq	ip, r4, r8, lsl r9
    a320:	027f0500 	rsbseq	r0, pc, #0, 10
    a324:	0000084a 	andeq	r0, r0, sl, asr #16
    a328:	1a1802dc 	bne	60aea0 <__bss_end__+0x600e30>
    a32c:	05000001 	streq	r0, [r0, #-1]
    a330:	05fb0284 	ldrbeq	r0, [fp, #644]!	; 0x284
    a334:	02e00000 	rsceq	r0, r0, #0
    a338:	0000ff18 	andeq	pc, r0, r8, lsl pc	; <UNPREDICTABLE>
    a33c:	02850500 	addeq	r0, r5, #0, 10
    a340:	00000856 	andeq	r0, r0, r6, asr r8
    a344:	0d0002ec 	sfmeq	f0, 4, [r0, #-944]	; 0xfffffc50
    a348:	00040604 	andeq	r0, r4, r4, lsl #12
    a34c:	00251400 	eoreq	r1, r5, r0, lsl #8
    a350:	05850000 	streq	r0, [r5]
    a354:	24150000 	ldrcs	r0, [r5], #-0
    a358:	15000004 	strne	r0, [r0, #-4]
    a35c:	00000105 	andeq	r0, r0, r5, lsl #2
    a360:	00058515 	andeq	r8, r5, r5, lsl r5
    a364:	00251500 	eoreq	r1, r5, r0, lsl #10
    a368:	0d000000 	stceq	0, cr0, [r0, #-0]
    a36c:	00011404 	andeq	r1, r1, r4, lsl #8
    a370:	67040d00 	strvs	r0, [r4, -r0, lsl #26]
    a374:	14000005 	strne	r0, [r0], #-5
    a378:	00000081 	andeq	r0, r0, r1, lsl #1
    a37c:	000005af 	andeq	r0, r0, pc, lsr #11
    a380:	00042415 	andeq	r2, r4, r5, lsl r4
    a384:	01051500 	tsteq	r5, r0, lsl #10
    a388:	81150000 	tsthi	r5, r0
    a38c:	15000000 	strne	r0, [r0, #-0]
    a390:	00000025 	andeq	r0, r0, r5, lsr #32
    a394:	91040d00 	tstls	r4, r0, lsl #26
    a398:	14000005 	strne	r0, [r0], #-5
    a39c:	00000025 	andeq	r0, r0, r5, lsr #32
    a3a0:	000005c9 	andeq	r0, r0, r9, asr #11
    a3a4:	00042415 	andeq	r2, r4, r5, lsl r4
    a3a8:	01051500 	tsteq	r5, r0, lsl #10
    a3ac:	0d000000 	stceq	0, cr0, [r0, #-0]
    a3b0:	0005b504 	andeq	fp, r5, r4, lsl #10
    a3b4:	004f0800 	subeq	r0, pc, r0, lsl #16
    a3b8:	05df0000 	ldrbeq	r0, [pc]	; a3c0 <__bss_end__+0x350>
    a3bc:	c7090000 	strgt	r0, [r9, -r0]
    a3c0:	02000000 	andeq	r0, r0, #0
    a3c4:	004f0800 	subeq	r0, pc, r0, lsl #16
    a3c8:	05ef0000 	strbeq	r0, [pc, #0]!	; a3d0 <__bss_end__+0x360>
    a3cc:	c7090000 	strgt	r0, [r9, -r0]
    a3d0:	00000000 	andeq	r0, r0, r0
    a3d4:	03270500 			; <UNDEFINED> instruction: 0x03270500
    a3d8:	1d050000 	stcne	0, cr0, [r5, #-0]
    a3dc:	0002dc01 	andeq	sp, r2, r1, lsl #24
    a3e0:	04b01900 	ldrteq	r1, [r0], #2304	; 0x900
    a3e4:	050c0000 	streq	r0, [ip, #-0]
    a3e8:	06300121 	ldrteq	r0, [r0], -r1, lsr #2
    a3ec:	4f170000 	svcmi	0x00170000
    a3f0:	05000003 	streq	r0, [r0, #-3]
    a3f4:	06300123 	ldrteq	r0, [r0], -r3, lsr #2
    a3f8:	17000000 	strne	r0, [r0, -r0]
    a3fc:	0000021e 	andeq	r0, r0, lr, lsl r2
    a400:	25012405 	strcs	r2, [r1, #-1029]	; 0xfffffbfb
    a404:	04000000 	streq	r0, [r0], #-0
    a408:	00032117 	andeq	r2, r3, r7, lsl r1
    a40c:	01250500 			; <UNDEFINED> instruction: 0x01250500
    a410:	00000636 	andeq	r0, r0, r6, lsr r6
    a414:	040d0008 	streq	r0, [sp], #-8
    a418:	000005fb 	strdeq	r0, [r0], -fp
    a41c:	05ef040d 	strbeq	r0, [pc, #1037]!	; a831 <__bss_end__+0x7c1>
    a420:	21190000 	tstcs	r9, r0
    a424:	0e000000 	cdpeq	0, 0, cr0, cr0, cr0, {0}
    a428:	71013d05 	tstvc	r1, r5, lsl #26
    a42c:	17000006 	strne	r0, [r0, -r6]
    a430:	00000395 	muleq	r0, r5, r3
    a434:	71013e05 	tstvc	r1, r5, lsl #28
    a438:	00000006 	andeq	r0, r0, r6
    a43c:	0003c217 	andeq	ip, r3, r7, lsl r2
    a440:	013f0500 	teqeq	pc, r0, lsl #10
    a444:	00000671 	andeq	r0, r0, r1, ror r6
    a448:	04401706 	strbeq	r1, [r0], #-1798	; 0xfffff8fa
    a44c:	40050000 	andmi	r0, r5, r0
    a450:	00005601 	andeq	r5, r0, r1, lsl #12
    a454:	08000c00 	stmdaeq	r0, {sl, fp}
    a458:	00000056 	andeq	r0, r0, r6, asr r0
    a45c:	00000681 	andeq	r0, r0, r1, lsl #13
    a460:	0000c709 	andeq	ip, r0, r9, lsl #14
    a464:	1a000200 	bne	ac6c <__bss_end__+0xbfc>
    a468:	025705d0 	subseq	r0, r7, #208, 10	; 0x34000000
    a46c:	00000782 	andeq	r0, r0, r2, lsl #15
    a470:	00049417 	andeq	r9, r4, r7, lsl r4
    a474:	02590500 	subseq	r0, r9, #0, 10
    a478:	0000002c 	andeq	r0, r0, ip, lsr #32
    a47c:	042a1700 	strteq	r1, [sl], #-1792	; 0xfffff900
    a480:	5a050000 	bpl	14a488 <__bss_end__+0x140418>
    a484:	00010702 	andeq	r0, r1, r2, lsl #14
    a488:	4d170400 	cfldrsmi	mvf0, [r7, #-0]
    a48c:	05000002 	streq	r0, [r0, #-2]
    a490:	0782025b 			; <UNDEFINED> instruction: 0x0782025b
    a494:	17080000 	strne	r0, [r8, -r0]
    a498:	000004f4 	strdeq	r0, [r0], -r4
    a49c:	8d025c05 	stchi	12, cr5, [r2, #-20]	; 0xffffffec
    a4a0:	24000001 	strcs	r0, [r0], #-1
    a4a4:	0001bb17 	andeq	fp, r1, r7, lsl fp
    a4a8:	025d0500 	subseq	r0, sp, #0, 10
    a4ac:	00000025 	andeq	r0, r0, r5, lsr #32
    a4b0:	034a1748 	movteq	r1, #42824	; 0xa748
    a4b4:	5e050000 	cdppl	0, 0, cr0, cr5, cr0, {0}
    a4b8:	00006402 	andeq	r6, r0, r2, lsl #8
    a4bc:	0a175000 	beq	5de4c4 <__bss_end__+0x5d4454>
    a4c0:	05000005 	streq	r0, [r0, #-5]
    a4c4:	063c025f 			; <UNDEFINED> instruction: 0x063c025f
    a4c8:	17580000 	ldrbne	r0, [r8, -r0]
    a4cc:	00000355 	andeq	r0, r0, r5, asr r3
    a4d0:	ef026005 	svc	0x00026005
    a4d4:	68000000 	stmdavs	r0, {}	; <UNPREDICTABLE>
    a4d8:	00050f17 	andeq	r0, r5, r7, lsl pc
    a4dc:	02610500 	rsbeq	r0, r1, #0, 10
    a4e0:	000000ef 	andeq	r0, r0, pc, ror #1
    a4e4:	00931770 	addseq	r1, r3, r0, ror r7
    a4e8:	62050000 	andvs	r0, r5, #0
    a4ec:	0000ef02 	andeq	lr, r0, r2, lsl #30
    a4f0:	bf177800 	svclt	0x00177800
    a4f4:	05000004 	streq	r0, [r0, #-4]
    a4f8:	07920263 	ldreq	r0, [r2, r3, ror #4]
    a4fc:	17800000 	strne	r0, [r0, r0]
    a500:	00000241 	andeq	r0, r0, r1, asr #4
    a504:	a2026405 	andge	r6, r2, #83886080	; 0x5000000
    a508:	88000007 	stmdahi	r0, {r0, r1, r2}
    a50c:	00044d17 	andeq	r4, r4, r7, lsl sp
    a510:	02650500 	rsbeq	r0, r5, #0, 10
    a514:	00000025 	andeq	r0, r0, r5, lsr #32
    a518:	018117a0 	orreq	r1, r1, r0, lsr #15
    a51c:	66050000 	strvs	r0, [r5], -r0
    a520:	0000ef02 	andeq	lr, r0, r2, lsl #30
    a524:	8417a400 	ldrhi	sl, [r7], #-1024	; 0xfffffc00
    a528:	05000000 	streq	r0, [r0, #-0]
    a52c:	00ef0267 	rsceq	r0, pc, r7, ror #4
    a530:	17ac0000 	strne	r0, [ip, r0]!
    a534:	00000170 	andeq	r0, r0, r0, ror r1
    a538:	ef026805 	svc	0x00026805
    a53c:	b4000000 	strlt	r0, [r0], #-0
    a540:	00003c17 	andeq	r3, r0, r7, lsl ip
    a544:	02690500 	rsbeq	r0, r9, #0, 10
    a548:	000000ef 	andeq	r0, r0, pc, ror #1
    a54c:	004b17bc 	strheq	r1, [fp], #-124	; 0xffffff84
    a550:	6a050000 	bvs	14a558 <__bss_end__+0x1404e8>
    a554:	0000ef02 	andeq	lr, r0, r2, lsl #30
    a558:	fd17c400 	ldc2	4, cr12, [r7, #-0]
    a55c:	05000002 	streq	r0, [r0, #-2]
    a560:	0025026b 	eoreq	r0, r5, fp, ror #4
    a564:	00cc0000 	sbceq	r0, ip, r0
    a568:	00010d08 	andeq	r0, r1, r8, lsl #26
    a56c:	00079200 	andeq	r9, r7, r0, lsl #4
    a570:	00c70900 	sbceq	r0, r7, r0, lsl #18
    a574:	00190000 	andseq	r0, r9, r0
    a578:	00010d08 	andeq	r0, r1, r8, lsl #26
    a57c:	0007a200 	andeq	sl, r7, r0, lsl #4
    a580:	00c70900 	sbceq	r0, r7, r0, lsl #18
    a584:	00070000 	andeq	r0, r7, r0
    a588:	00010d08 	andeq	r0, r1, r8, lsl #26
    a58c:	0007b200 	andeq	fp, r7, r0, lsl #4
    a590:	00c70900 	sbceq	r0, r7, r0, lsl #18
    a594:	00170000 	andseq	r0, r7, r0
    a598:	7005f01a 	andvc	pc, r5, sl, lsl r0	; <UNPREDICTABLE>
    a59c:	0007d602 	andeq	sp, r7, r2, lsl #12
    a5a0:	02a41700 	adceq	r1, r4, #0, 14
    a5a4:	73050000 	movwvc	r0, #20480	; 0x5000
    a5a8:	0007d602 	andeq	sp, r7, r2, lsl #12
    a5ac:	b6170000 	ldrlt	r0, [r7], -r0
    a5b0:	05000004 	streq	r0, [r0, #-4]
    a5b4:	07e60274 			; <UNDEFINED> instruction: 0x07e60274
    a5b8:	00780000 	rsbseq	r0, r8, r0
    a5bc:	0002d608 	andeq	sp, r2, r8, lsl #12
    a5c0:	0007e600 	andeq	lr, r7, r0, lsl #12
    a5c4:	00c70900 	sbceq	r0, r7, r0, lsl #18
    a5c8:	001d0000 	andseq	r0, sp, r0
    a5cc:	00002c08 	andeq	r2, r0, r8, lsl #24
    a5d0:	0007f600 	andeq	pc, r7, r0, lsl #12
    a5d4:	00c70900 	sbceq	r0, r7, r0, lsl #18
    a5d8:	001d0000 	andseq	r0, sp, r0
    a5dc:	5505f01b 	strpl	pc, [r5, #-27]	; 0xffffffe5
    a5e0:	00081802 	andeq	r1, r8, r2, lsl #16
    a5e4:	038e1c00 	orreq	r1, lr, #0, 24
    a5e8:	6c050000 	stcvs	0, cr0, [r5], {-0}
    a5ec:	00068102 	andeq	r8, r6, r2, lsl #2
    a5f0:	04e11c00 	strbteq	r1, [r1], #3072	; 0xc00
    a5f4:	75050000 	strvc	r0, [r5, #-0]
    a5f8:	0007b202 	andeq	fp, r7, r2, lsl #4
    a5fc:	0d080000 	stceq	0, cr0, [r8, #-0]
    a600:	28000001 	stmdacs	r0, {r0}
    a604:	09000008 	stmdbeq	r0, {r3}
    a608:	000000c7 	andeq	r0, r0, r7, asr #1
    a60c:	331d0018 	tstcc	sp, #24
    a610:	15000008 	strne	r0, [r0, #-8]
    a614:	00000424 	andeq	r0, r0, r4, lsr #8
    a618:	28040d00 	stmdacs	r4, {r8, sl, fp}
    a61c:	0d000008 	stceq	0, cr0, [r0, #-32]	; 0xffffffe0
    a620:	00017704 	andeq	r7, r1, r4, lsl #14
    a624:	084a1d00 	stmdaeq	sl, {r8, sl, fp, ip}^
    a628:	25150000 	ldrcs	r0, [r5, #-0]
    a62c:	00000000 	andeq	r0, r0, r0
    a630:	0850040d 	ldmdaeq	r0, {r0, r2, r3, sl}^
    a634:	040d0000 	streq	r0, [sp], #-0
    a638:	0000083f 	andeq	r0, r0, pc, lsr r8
    a63c:	0005ef08 	andeq	lr, r5, r8, lsl #30
    a640:	00086600 	andeq	r6, r8, r0, lsl #12
    a644:	00c70900 	sbceq	r0, r7, r0, lsl #18
    a648:	00020000 	andeq	r0, r2, r0
    a64c:	00046f1e 	andeq	r6, r4, lr, lsl pc
    a650:	02fd0500 	rscseq	r0, sp, #0, 10
    a654:	00000424 	andeq	r0, r0, r4, lsr #8
    a658:	0004681e 	andeq	r6, r4, lr, lsl r8
    a65c:	02fe0500 	rscseq	r0, lr, #0, 10
    a660:	0000042a 	andeq	r0, r0, sl, lsr #8
    a664:	00002514 	andeq	r2, r0, r4, lsl r5
    a668:	00088d00 	andeq	r8, r8, r0, lsl #26
    a66c:	00251500 	eoreq	r1, r5, r0, lsl #10
    a670:	1f000000 	svcne	0x00000000
    a674:	000001d4 	ldrdeq	r0, [r0], -r4
    a678:	08981d06 	ldmeq	r8, {r1, r2, r8, sl, fp, ip}
    a67c:	040d0000 	streq	r0, [sp], #-0
    a680:	0000087e 	andeq	r0, r0, lr, ror r8
    a684:	00002514 	andeq	r2, r0, r4, lsl r5
    a688:	0008ad00 	andeq	sl, r8, r0, lsl #26
    a68c:	05851500 	streq	r1, [r5, #1280]	; 0x500
    a690:	1f000000 	svcne	0x00000000
    a694:	00000769 	andeq	r0, r0, r9, ror #14
    a698:	08b82206 	ldmeq	r8!, {r1, r2, r9, sp}
    a69c:	040d0000 	streq	r0, [sp], #-0
    a6a0:	0000089e 	muleq	r0, lr, r8
    a6a4:	05040803 	streq	r0, [r4, #-2051]	; 0xfffff7fd
    a6a8:	1f00000b 	svcne	0x0000000b
    a6ac:	00000b3d 	andeq	r0, r0, sp, lsr fp
    a6b0:	010d0d01 	tsteq	sp, r1, lsl #26
    a6b4:	52200000 	eorpl	r0, r0, #0
    a6b8:	01000006 	tsteq	r0, r6
    a6bc:	0001070e 	andeq	r0, r1, lr, lsl #14
    a6c0:	8c030500 	cfstr32hi	mvfx0, [r3], {-0}
    a6c4:	20000096 	mulcs	r0, r6, r0
    a6c8:	00000b54 	andeq	r0, r0, r4, asr fp
    a6cc:	01070f01 	tsteq	r7, r1, lsl #30
    a6d0:	03050000 	movweq	r0, #20480	; 0x5000
    a6d4:	00009690 	muleq	r0, r0, r6
    a6d8:	000b1621 	andeq	r1, fp, r1, lsr #12
    a6dc:	5c380100 	ldfpls	f0, [r8], #-0
    a6e0:	10000096 	mulne	r0, r6, r0
    a6e4:	01000000 	mrseq	r0, (UNDEF: 0)
    a6e8:	0009139c 	muleq	r9, ip, r3
    a6ec:	00702200 	rsbseq	r2, r0, r0, lsl #4
    a6f0:	01053801 	tsteq	r5, r1, lsl #16
    a6f4:	50010000 	andpl	r0, r1, r0
    a6f8:	0b0c2300 	bleq	313300 <__bss_end__+0x309290>
    a6fc:	37010000 	strcc	r0, [r1, -r0]
    a700:	00009648 	andeq	r9, r0, r8, asr #12
    a704:	00000014 	andeq	r0, r0, r4, lsl r0
    a708:	70219c01 	eorvc	r9, r1, r1, lsl #24
    a70c:	01000002 	tsteq	r0, r2
    a710:	00964436 	addseq	r4, r6, r6, lsr r4
    a714:	00000400 	andeq	r0, r0, r0, lsl #8
    a718:	459c0100 	ldrmi	r0, [ip, #256]	; 0x100
    a71c:	22000009 	andcs	r0, r0, #9
    a720:	36010070 			; <UNDEFINED> instruction: 0x36010070
    a724:	00000105 	andeq	r0, r0, r5, lsl #2
    a728:	24005001 	strcs	r5, [r0], #-1
    a72c:	00000af5 	strdeq	r0, [r0], -r5
    a730:	01052901 	tsteq	r5, r1, lsl #18
    a734:	95b80000 	ldrls	r0, [r8, #0]!
    a738:	008c0000 	addeq	r0, ip, r0
    a73c:	9c010000 	stcls	0, cr0, [r1], {-0}
    a740:	00000a30 	andeq	r0, r0, r0, lsr sl
    a744:	00067225 	andeq	r7, r6, r5, lsr #4
    a748:	2c290100 	stfcss	f0, [r9], #-0
    a74c:	61000000 	mrsvs	r0, (UNDEF: 0)
    a750:	25000013 	strcs	r0, [r0, #-19]	; 0xffffffed
    a754:	00000b33 	andeq	r0, r0, r3, lsr fp
    a758:	002c2901 	eoreq	r2, ip, r1, lsl #18
    a75c:	13b40000 			; <UNDEFINED> instruction: 0x13b40000
    a760:	11260000 			; <UNDEFINED> instruction: 0x11260000
    a764:	40000002 	andmi	r0, r0, r2
    a768:	0500000a 	streq	r0, [r0, #-10]
    a76c:	009b6003 	addseq	r6, fp, r3
    a770:	00682700 	rsbeq	r2, r8, r0, lsl #14
    a774:	002c2e01 	eoreq	r2, ip, r1, lsl #28
    a778:	13fb0000 	mvnsne	r0, #0
    a77c:	f4280000 	vld4.8	{d0-d3}, [r8], r0
    a780:	79000095 	stmdbvc	r0, {r0, r2, r4, r7}
    a784:	ad00000a 	stcge	0, cr0, [r0, #-40]	; 0xffffffd8
    a788:	29000009 	stmdbcs	r0, {r0, r3}
    a78c:	f3035001 	vhadd.u8	d5, d3, d1
    a790:	2a005001 	bcs	1e79c <__bss_end__+0x1472c>
    a794:	000095fc 	strdeq	r9, [r0], -ip
    a798:	00000bfb 	strdeq	r0, [r0], -fp
    a79c:	00961028 	addseq	r1, r6, r8, lsr #32
    a7a0:	000c0600 	andeq	r0, ip, r0, lsl #12
    a7a4:	0009e500 	andeq	lr, r9, r0, lsl #10
    a7a8:	50012900 	andpl	r2, r1, r0, lsl #18
    a7ac:	9bac0305 	blls	feb0b3c8 <__bss_end__+0xfeb01358>
    a7b0:	01290000 			; <UNDEFINED> instruction: 0x01290000
    a7b4:	70030551 	andvc	r0, r3, r1, asr r5
    a7b8:	2900009b 	stmdbcs	r0, {r0, r1, r3, r4, r7}
    a7bc:	03055201 	movweq	r5, #20993	; 0x5201
    a7c0:	00009b60 	andeq	r9, r0, r0, ror #22
    a7c4:	02530129 	subseq	r0, r3, #1073741834	; 0x4000000a
    a7c8:	2a002a08 	bcs	14ff0 <__bss_end__+0xaf80>
    a7cc:	00009614 	andeq	r9, r0, r4, lsl r6
    a7d0:	00000c11 	andeq	r0, r0, r1, lsl ip
    a7d4:	0096182a 	addseq	r1, r6, sl, lsr #16
    a7d8:	000bfb00 	andeq	pc, fp, r0, lsl #22
    a7dc:	962c2800 	strtls	r2, [ip], -r0, lsl #16
    a7e0:	0c060000 	stceq	0, cr0, [r6], {-0}
    a7e4:	0a260000 	beq	98a7ec <__bss_end__+0x98077c>
    a7e8:	01290000 			; <UNDEFINED> instruction: 0x01290000
    a7ec:	0c030550 	cfstr32eq	mvfx0, [r3], {80}	; 0x50
    a7f0:	2900009c 	stmdbcs	r0, {r2, r3, r4, r7}
    a7f4:	03055101 	movweq	r5, #20737	; 0x5101
    a7f8:	00009b70 	andeq	r9, r0, r0, ror fp
    a7fc:	05520129 	ldrbeq	r0, [r2, #-297]	; 0xfffffed7
    a800:	009b6003 	addseq	r6, fp, r3
    a804:	53012900 	movwpl	r2, #6400	; 0x1900
    a808:	00300802 	eorseq	r0, r0, r2, lsl #16
    a80c:	0096302a 	addseq	r3, r6, sl, lsr #32
    a810:	000c1100 	andeq	r1, ip, r0, lsl #2
    a814:	14080000 	strne	r0, [r8], #-0
    a818:	40000001 	andmi	r0, r0, r1
    a81c:	0900000a 	stmdbeq	r0, {r1, r3}
    a820:	000000c7 	andeq	r0, r0, r7, asr #1
    a824:	300e000f 	andcc	r0, lr, pc
    a828:	2400000a 	strcs	r0, [r0], #-10
    a82c:	00000b22 	andeq	r0, r0, r2, lsr #22
    a830:	01052501 	tsteq	r5, r1, lsl #10
    a834:	95ac0000 	strls	r0, [ip, #0]!
    a838:	000c0000 	andeq	r0, ip, r0
    a83c:	9c010000 	stcls	0, cr0, [r1], {-0}
    a840:	00000a68 	andeq	r0, r0, r8, ror #20
    a844:	0095b42a 	addseq	fp, r5, sl, lsr #8
    a848:	000bd100 	andeq	sp, fp, r0, lsl #2
    a84c:	e8230000 	stmda	r3!, {}	; <UNPREDICTABLE>
    a850:	0100000a 	tsteq	r0, sl
    a854:	0095a824 	addseq	sl, r5, r4, lsr #16
    a858:	00000400 	andeq	r0, r0, r0, lsl #8
    a85c:	249c0100 	ldrcs	r0, [ip], #256	; 0x100
    a860:	000004d3 	ldrdeq	r0, [r0], -r3
    a864:	01051a01 	tsteq	r5, r1, lsl #20
    a868:	95440000 	strbls	r0, [r4, #-0]
    a86c:	00640000 	rsbeq	r0, r4, r0
    a870:	9c010000 	stcls	0, cr0, [r1], {-0}
    a874:	00000b24 	andeq	r0, r0, r4, lsr #22
    a878:	007a732b 	rsbseq	r7, sl, fp, lsr #6
    a87c:	002c1a01 	eoreq	r1, ip, r1, lsl #20
    a880:	14330000 	ldrtne	r0, [r3], #-0
    a884:	11260000 			; <UNDEFINED> instruction: 0x11260000
    a888:	34000002 	strcc	r0, [r0], #-2
    a88c:	0500000b 	streq	r0, [r0, #-11]
    a890:	009b5803 	addseq	r5, fp, r3, lsl #16
    a894:	0b602c00 	bleq	181589c <__bss_end__+0x180b82c>
    a898:	1e010000 	cdpne	0, 0, cr0, cr1, cr0, {0}
    a89c:	00000105 	andeq	r0, r0, r5, lsl #2
    a8a0:	0000147d 	andeq	r1, r0, sp, ror r4
    a8a4:	00957428 	addseq	r7, r5, r8, lsr #8
    a8a8:	000c1c00 	andeq	r1, ip, r0, lsl #24
    a8ac:	000ae300 	andeq	lr, sl, r0, lsl #6
    a8b0:	50012900 	andpl	r2, r1, r0, lsl #18
    a8b4:	29007402 	stmdbcs	r0, {r1, sl, ip, sp, lr}
    a8b8:	30015101 	andcc	r5, r1, r1, lsl #2
    a8bc:	08520129 	ldmdaeq	r2, {r0, r3, r5, r8}^
    a8c0:	235001f3 	cmpcs	r0, #-1073741764	; 0xc000003c
    a8c4:	1af80907 	bne	ffe0cce8 <__bss_end__+0xffe02c78>
    a8c8:	95802a00 	strls	r2, [r0, #2560]	; 0xa00
    a8cc:	0bfb0000 	bleq	ffeca8d4 <__bss_end__+0xffec0864>
    a8d0:	94280000 	strtls	r0, [r8], #-0
    a8d4:	06000095 			; <UNDEFINED> instruction: 0x06000095
    a8d8:	1a00000c 	bne	a910 <__bss_end__+0x8a0>
    a8dc:	2900000b 	stmdbcs	r0, {r0, r1, r3}
    a8e0:	03055001 	movweq	r5, #20481	; 0x5001
    a8e4:	00009b98 	muleq	r0, r8, fp
    a8e8:	05510129 	ldrbeq	r0, [r1, #-297]	; 0xfffffed7
    a8ec:	009b7003 	addseq	r7, fp, r3
    a8f0:	52012900 	andpl	r2, r1, #0, 18
    a8f4:	9b580305 	blls	160b510 <__bss_end__+0x16014a0>
    a8f8:	01290000 			; <UNDEFINED> instruction: 0x01290000
    a8fc:	004b0153 	subeq	r0, fp, r3, asr r1
    a900:	0095982a 	addseq	r9, r5, sl, lsr #16
    a904:	000c1100 	andeq	r1, ip, r0, lsl #2
    a908:	14080000 	strne	r0, [r8], #-0
    a90c:	34000001 	strcc	r0, [r0], #-1
    a910:	0900000b 	stmdbeq	r0, {r0, r1, r3}
    a914:	000000c7 	andeq	r0, r0, r7, asr #1
    a918:	240e0007 	strcs	r0, [lr], #-7
    a91c:	2100000b 	tstcs	r0, fp
    a920:	00000159 	andeq	r0, r0, r9, asr r1
    a924:	94f41401 	ldrbtls	r1, [r4], #1025	; 0x401
    a928:	00500000 	subseq	r0, r0, r0
    a92c:	9c010000 	stcls	0, cr0, [r1], {-0}
    a930:	00000bbc 			; <UNDEFINED> instruction: 0x00000bbc
    a934:	000b5f25 	andeq	r5, fp, r5, lsr #30
    a938:	2c140100 	ldfcss	f0, [r4], {-0}
    a93c:	90000000 	andls	r0, r0, r0
    a940:	2c000014 	stccs	0, cr0, [r0], {20}
    a944:	00000b60 	andeq	r0, r0, r0, ror #22
    a948:	01071501 	tsteq	r7, r1, lsl #10
    a94c:	14b10000 	ldrtne	r0, [r1], #0
    a950:	11260000 			; <UNDEFINED> instruction: 0x11260000
    a954:	cc000002 	stcgt	0, cr0, [r0], {2}
    a958:	0500000b 	streq	r0, [r0, #-11]
    a95c:	009b4003 	addseq	r4, fp, r3
    a960:	951c2a00 	ldrls	r2, [ip, #-2560]	; 0xfffff600
    a964:	0bfb0000 	bleq	ffeca96c <__bss_end__+0xffec08fc>
    a968:	30280000 	eorcc	r0, r8, r0
    a96c:	06000095 			; <UNDEFINED> instruction: 0x06000095
    a970:	b200000c 	andlt	r0, r0, #12
    a974:	2900000b 	stmdbcs	r0, {r0, r1, r3}
    a978:	03055001 	movweq	r5, #20481	; 0x5001
    a97c:	00009b7c 	andeq	r9, r0, ip, ror fp
    a980:	05510129 	ldrbeq	r0, [r1, #-297]	; 0xfffffed7
    a984:	009b7003 	addseq	r7, fp, r3
    a988:	52012900 	andpl	r2, r1, #0, 18
    a98c:	9b400305 	blls	100b5a8 <__bss_end__+0x1001538>
    a990:	01290000 			; <UNDEFINED> instruction: 0x01290000
    a994:	00460153 	subeq	r0, r6, r3, asr r1
    a998:	0095342a 	addseq	r3, r5, sl, lsr #8
    a99c:	000c1100 	andeq	r1, ip, r0, lsl #2
    a9a0:	14080000 	strne	r0, [r8], #-0
    a9a4:	cc000001 	stcgt	0, cr0, [r0], {1}
    a9a8:	0900000b 	stmdbeq	r0, {r0, r1, r3}
    a9ac:	000000c7 	andeq	r0, r0, r7, asr #1
    a9b0:	bc0e0016 	stclt	0, cr0, [lr], {22}
    a9b4:	2d00000b 	stccs	0, cr0, [r0, #-44]	; 0xffffffd4
    a9b8:	00000b4c 	andeq	r0, r0, ip, asr #22
    a9bc:	01051201 	tsteq	r5, r1, lsl #4
    a9c0:	94e80000 	strbtls	r0, [r8], #0
    a9c4:	000c0000 	andeq	r0, ip, r0
    a9c8:	9c010000 	stcls	0, cr0, [r1], {-0}
    a9cc:	000b652d 	andeq	r6, fp, sp, lsr #10
    a9d0:	05110100 	ldreq	r0, [r1, #-256]	; 0xffffff00
    a9d4:	d8000001 	stmdale	r0, {r0}
    a9d8:	10000094 	mulne	r0, r4, r0
    a9dc:	01000000 	mrseq	r0, (UNDEF: 0)
    a9e0:	01ec2e9c 	stlexheq	r2, ip, [ip]
    a9e4:	01ec0000 	mvneq	r0, r0
    a9e8:	1e060000 	cdpne	0, 0, cr0, cr6, cr0, {0}
    a9ec:	0006b52e 	andeq	fp, r6, lr, lsr #10
    a9f0:	0006b500 	andeq	fp, r6, r0, lsl #10
    a9f4:	2e290600 	cfmadda32cs	mvax0, mvax0, mvfx9, mvfx0
    a9f8:	0000028e 	andeq	r0, r0, lr, lsl #5
    a9fc:	0000028e 	andeq	r0, r0, lr, lsl #5
    aa00:	8d2e6506 	cfstr32hi	mvfx6, [lr, #-24]!	; 0xffffffe8
    aa04:	8d000004 	stchi	0, cr0, [r0, #-16]
    aa08:	07000004 	streq	r0, [r0, -r4]
    aa0c:	Address 0x000000000000aa0c is out of bounds.


Disassembly of section .debug_abbrev:

00000000 <.debug_abbrev>:
       0:	25011101 	strcs	r1, [r1, #-257]	; 0xfffffeff
       4:	030b130e 	movweq	r1, #45838	; 0xb30e
       8:	110e1b0e 	tstne	lr, lr, lsl #22
       c:	10061201 	andne	r1, r6, r1, lsl #4
      10:	02000017 	andeq	r0, r0, #23
      14:	0b0b0024 	bleq	2c00ac <__bss_end__+0x2b603c>
      18:	08030b3e 	stmdaeq	r3, {r1, r2, r3, r4, r5, r8, r9, fp}
      1c:	24030000 	strcs	r0, [r3], #-0
      20:	3e0b0b00 	vmlacc.f64	d0, d11, d0
      24:	000e030b 	andeq	r0, lr, fp, lsl #6
      28:	00160400 	andseq	r0, r6, r0, lsl #8
      2c:	0b3a0e03 	bleq	e83840 <__bss_end__+0xe797d0>
      30:	13490b3b 	movtne	r0, #39739	; 0x9b3b
      34:	16050000 	strne	r0, [r5], -r0
      38:	3a0e0300 	bcc	380c40 <__bss_end__+0x376bd0>
      3c:	49053b0b 	stmdbmi	r5, {r0, r1, r3, r8, r9, fp, ip, sp}
      40:	06000013 			; <UNDEFINED> instruction: 0x06000013
      44:	0b0b0117 	bleq	2c04a8 <__bss_end__+0x2b6438>
      48:	0b3b0b3a 	bleq	ec2d38 <__bss_end__+0xeb8cc8>
      4c:	00001301 	andeq	r1, r0, r1, lsl #6
      50:	03000d07 	movweq	r0, #3335	; 0xd07
      54:	3b0b3a0e 	blcc	2ce894 <__bss_end__+0x2c4824>
      58:	0013490b 	andseq	r4, r3, fp, lsl #18
      5c:	01010800 	tsteq	r1, r0, lsl #16
      60:	13011349 	movwne	r1, #4937	; 0x1349
      64:	21090000 	mrscs	r0, (UNDEF: 9)
      68:	2f134900 	svccs	0x00134900
      6c:	0a00000b 	beq	a0 <_start-0x7f60>
      70:	0b0b0113 	bleq	2c04c4 <__bss_end__+0x2b6454>
      74:	0b3b0b3a 	bleq	ec2d64 <__bss_end__+0xeb8cf4>
      78:	00001301 	andeq	r1, r0, r1, lsl #6
      7c:	03000d0b 	movweq	r0, #3339	; 0xd0b
      80:	3b0b3a0e 	blcc	2ce8c0 <__bss_end__+0x2c4850>
      84:	3813490b 	ldmdacc	r3, {r0, r1, r3, r8, fp, lr}
      88:	0c00000b 	stceq	0, cr0, [r0], {11}
      8c:	0b0b000f 	bleq	2c00d0 <__bss_end__+0x2b6060>
      90:	0f0d0000 	svceq	0x000d0000
      94:	490b0b00 	stmdbmi	fp, {r8, r9, fp}
      98:	0e000013 	mcreq	0, 0, r0, cr0, cr3, {0}
      9c:	13490026 	movtne	r0, #36902	; 0x9026
      a0:	130f0000 	movwne	r0, #61440	; 0xf000
      a4:	0b0e0301 	bleq	380cb0 <__bss_end__+0x376c40>
      a8:	3b0b3a0b 	blcc	2ce8dc <__bss_end__+0x2c486c>
      ac:	0013010b 	andseq	r0, r3, fp, lsl #2
      b0:	000d1000 	andeq	r1, sp, r0
      b4:	0b3a0803 	bleq	e820c8 <__bss_end__+0xe78058>
      b8:	13490b3b 	movtne	r0, #39739	; 0x9b3b
      bc:	00000b38 	andeq	r0, r0, r8, lsr fp
      c0:	03011311 	movweq	r1, #4881	; 0x1311
      c4:	3a050b0e 	bcc	142d04 <__bss_end__+0x138c94>
      c8:	010b3b0b 	tsteq	fp, fp, lsl #22
      cc:	12000013 	andne	r0, r0, #19
      d0:	0e03000d 	cdpeq	0, 0, cr0, cr3, cr13, {0}
      d4:	0b3b0b3a 	bleq	ec2dc4 <__bss_end__+0xeb8d54>
      d8:	05381349 	ldreq	r1, [r8, #-841]!	; 0xfffffcb7
      dc:	15130000 	ldrne	r0, [r3, #-0]
      e0:	00192700 	andseq	r2, r9, r0, lsl #14
      e4:	01151400 	tsteq	r5, r0, lsl #8
      e8:	13491927 	movtne	r1, #39207	; 0x9927
      ec:	00001301 	andeq	r1, r0, r1, lsl #6
      f0:	49000515 	stmdbmi	r0, {r0, r2, r4, r8, sl}
      f4:	16000013 			; <UNDEFINED> instruction: 0x16000013
      f8:	0e030113 	mcreq	1, 0, r0, cr3, cr3, {0}
      fc:	0b3a050b 	bleq	e81530 <__bss_end__+0xe774c0>
     100:	1301053b 	movwne	r0, #5435	; 0x153b
     104:	0d170000 	ldceq	0, cr0, [r7, #-0]
     108:	3a0e0300 	bcc	380d10 <__bss_end__+0x376ca0>
     10c:	49053b0b 	stmdbmi	r5, {r0, r1, r3, r8, r9, fp, ip, sp}
     110:	000b3813 	andeq	r3, fp, r3, lsl r8
     114:	000d1800 	andeq	r1, sp, r0, lsl #16
     118:	0b3a0e03 	bleq	e8392c <__bss_end__+0xe798bc>
     11c:	1349053b 	movtne	r0, #38203	; 0x953b
     120:	00000538 	andeq	r0, r0, r8, lsr r5
     124:	03011319 	movweq	r1, #4889	; 0x1319
     128:	3a0b0b0e 	bcc	2c2d68 <__bss_end__+0x2b8cf8>
     12c:	01053b0b 	tsteq	r5, fp, lsl #22
     130:	1a000013 	bne	184 <_start-0x7e7c>
     134:	0b0b0113 	bleq	2c0588 <__bss_end__+0x2b6518>
     138:	053b0b3a 	ldreq	r0, [fp, #-2874]!	; 0xfffff4c6
     13c:	00001301 	andeq	r1, r0, r1, lsl #6
     140:	0b01171b 	bleq	45db4 <__bss_end__+0x3bd44>
     144:	3b0b3a0b 	blcc	2ce978 <__bss_end__+0x2c4908>
     148:	00130105 	andseq	r0, r3, r5, lsl #2
     14c:	000d1c00 	andeq	r1, sp, r0, lsl #24
     150:	0b3a0e03 	bleq	e83964 <__bss_end__+0xe798f4>
     154:	1349053b 	movtne	r0, #38203	; 0x953b
     158:	151d0000 	ldrne	r0, [sp, #-0]
     15c:	01192701 	tsteq	r9, r1, lsl #14
     160:	1e000013 	mcrne	0, 0, r0, cr0, cr3, {0}
     164:	0e030034 	mcreq	0, 0, r0, cr3, cr4, {1}
     168:	053b0b3a 	ldreq	r0, [fp, #-2874]!	; 0xfffff4c6
     16c:	193f1349 	ldmdbne	pc!, {r0, r3, r6, r8, r9, ip}	; <UNPREDICTABLE>
     170:	0000193c 	andeq	r1, r0, ip, lsr r9
     174:	0300341f 	movweq	r3, #1055	; 0x41f
     178:	3b0b3a0e 	blcc	2ce9b8 <__bss_end__+0x2c4948>
     17c:	3f13490b 	svccc	0x0013490b
     180:	00193c19 	andseq	r3, r9, r9, lsl ip
     184:	012e2000 			; <UNDEFINED> instruction: 0x012e2000
     188:	0e03193f 			; <UNDEFINED> instruction: 0x0e03193f
     18c:	0b3b0b3a 	bleq	ec2e7c <__bss_end__+0xeb8e0c>
     190:	01111927 	tsteq	r1, r7, lsr #18
     194:	18400612 	stmdane	r0, {r1, r4, r9, sl}^
     198:	01194297 			; <UNDEFINED> instruction: 0x01194297
     19c:	21000013 	tstcs	r0, r3, lsl r0
     1a0:	08030034 	stmdaeq	r3, {r2, r4, r5}
     1a4:	0b3b0b3a 	bleq	ec2e94 <__bss_end__+0xeb8e24>
     1a8:	061c1349 	ldreq	r1, [ip], -r9, asr #6
     1ac:	34220000 	strtcc	r0, [r2], #-0
     1b0:	3a080300 	bcc	200db8 <__bss_end__+0x1f6d48>
     1b4:	490b3b0b 	stmdbmi	fp, {r0, r1, r3, r8, r9, fp, ip, sp}
     1b8:	00170213 	andseq	r0, r7, r3, lsl r2
     1bc:	00342300 	eorseq	r2, r4, r0, lsl #6
     1c0:	13490e03 	movtne	r0, #40451	; 0x9e03
     1c4:	18021934 	stmdane	r2, {r2, r4, r5, r8, fp, ip}
     1c8:	89240000 	stmdbhi	r4!, {}	; <UNPREDICTABLE>
     1cc:	11010182 	smlabbne	r1, r2, r1, r0
     1d0:	01133101 	tsteq	r3, r1, lsl #2
     1d4:	25000013 	strcs	r0, [r0, #-19]	; 0xffffffed
     1d8:	0001828a 	andeq	r8, r1, sl, lsl #5
     1dc:	42911802 	addsmi	r1, r1, #131072	; 0x20000
     1e0:	26000018 			; <UNDEFINED> instruction: 0x26000018
     1e4:	00018289 	andeq	r8, r1, r9, lsl #5
     1e8:	13310111 	teqne	r1, #1073741828	; 0x40000004
     1ec:	2e270000 	cdpcs	0, 2, cr0, cr7, cr0, {0}
     1f0:	3c193f00 	ldccc	15, cr3, [r9], {-0}
     1f4:	030e6e19 	movweq	r6, #60953	; 0xee19
     1f8:	3b0b3a0e 	blcc	2cea38 <__bss_end__+0x2c49c8>
     1fc:	0000000b 	andeq	r0, r0, fp
     200:	25011101 	strcs	r1, [r1, #-257]	; 0xfffffeff
     204:	030b130e 	movweq	r1, #45838	; 0xb30e
     208:	110e1b0e 	tstne	lr, lr, lsl #22
     20c:	10061201 	andne	r1, r6, r1, lsl #4
     210:	02000017 	andeq	r0, r0, #23
     214:	0b0b0024 	bleq	2c02ac <__bss_end__+0x2b623c>
     218:	08030b3e 	stmdaeq	r3, {r1, r2, r3, r4, r5, r8, r9, fp}
     21c:	24030000 	strcs	r0, [r3], #-0
     220:	3e0b0b00 	vmlacc.f64	d0, d11, d0
     224:	000e030b 	andeq	r0, lr, fp, lsl #6
     228:	00160400 	andseq	r0, r6, r0, lsl #8
     22c:	0b3a0e03 	bleq	e83a40 <__bss_end__+0xe799d0>
     230:	13490b3b 	movtne	r0, #39739	; 0x9b3b
     234:	16050000 	strne	r0, [r5], -r0
     238:	3a0e0300 	bcc	380e40 <__bss_end__+0x376dd0>
     23c:	49053b0b 	stmdbmi	r5, {r0, r1, r3, r8, r9, fp, ip, sp}
     240:	06000013 			; <UNDEFINED> instruction: 0x06000013
     244:	0b0b0117 	bleq	2c06a8 <__bss_end__+0x2b6638>
     248:	0b3b0b3a 	bleq	ec2f38 <__bss_end__+0xeb8ec8>
     24c:	00001301 	andeq	r1, r0, r1, lsl #6
     250:	03000d07 	movweq	r0, #3335	; 0xd07
     254:	3b0b3a0e 	blcc	2cea94 <__bss_end__+0x2c4a24>
     258:	0013490b 	andseq	r4, r3, fp, lsl #18
     25c:	01010800 	tsteq	r1, r0, lsl #16
     260:	13011349 	movwne	r1, #4937	; 0x1349
     264:	21090000 	mrscs	r0, (UNDEF: 9)
     268:	2f134900 	svccs	0x00134900
     26c:	0a00000b 	beq	2a0 <_start-0x7d60>
     270:	0b0b0113 	bleq	2c06c4 <__bss_end__+0x2b6654>
     274:	0b3b0b3a 	bleq	ec2f64 <__bss_end__+0xeb8ef4>
     278:	00001301 	andeq	r1, r0, r1, lsl #6
     27c:	03000d0b 	movweq	r0, #3339	; 0xd0b
     280:	3b0b3a0e 	blcc	2ceac0 <__bss_end__+0x2c4a50>
     284:	3813490b 	ldmdacc	r3, {r0, r1, r3, r8, fp, lr}
     288:	0c00000b 	stceq	0, cr0, [r0], {11}
     28c:	0b0b000f 	bleq	2c02d0 <__bss_end__+0x2b6260>
     290:	0f0d0000 	svceq	0x000d0000
     294:	490b0b00 	stmdbmi	fp, {r8, r9, fp}
     298:	0e000013 	mcreq	0, 0, r0, cr0, cr3, {0}
     29c:	13490026 	movtne	r0, #36902	; 0x9026
     2a0:	130f0000 	movwne	r0, #61440	; 0xf000
     2a4:	0b0e0301 	bleq	380eb0 <__bss_end__+0x376e40>
     2a8:	3b0b3a0b 	blcc	2ceadc <__bss_end__+0x2c4a6c>
     2ac:	0013010b 	andseq	r0, r3, fp, lsl #2
     2b0:	000d1000 	andeq	r1, sp, r0
     2b4:	0b3a0803 	bleq	e822c8 <__bss_end__+0xe78258>
     2b8:	13490b3b 	movtne	r0, #39739	; 0x9b3b
     2bc:	00000b38 	andeq	r0, r0, r8, lsr fp
     2c0:	03011311 	movweq	r1, #4881	; 0x1311
     2c4:	3a050b0e 	bcc	142f04 <__bss_end__+0x138e94>
     2c8:	010b3b0b 	tsteq	fp, fp, lsl #22
     2cc:	12000013 	andne	r0, r0, #19
     2d0:	0e03000d 	cdpeq	0, 0, cr0, cr3, cr13, {0}
     2d4:	0b3b0b3a 	bleq	ec2fc4 <__bss_end__+0xeb8f54>
     2d8:	05381349 	ldreq	r1, [r8, #-841]!	; 0xfffffcb7
     2dc:	15130000 	ldrne	r0, [r3, #-0]
     2e0:	00192700 	andseq	r2, r9, r0, lsl #14
     2e4:	01151400 	tsteq	r5, r0, lsl #8
     2e8:	13491927 	movtne	r1, #39207	; 0x9927
     2ec:	00001301 	andeq	r1, r0, r1, lsl #6
     2f0:	49000515 	stmdbmi	r0, {r0, r2, r4, r8, sl}
     2f4:	16000013 			; <UNDEFINED> instruction: 0x16000013
     2f8:	0e030113 	mcreq	1, 0, r0, cr3, cr3, {0}
     2fc:	0b3a050b 	bleq	e81730 <__bss_end__+0xe776c0>
     300:	1301053b 	movwne	r0, #5435	; 0x153b
     304:	0d170000 	ldceq	0, cr0, [r7, #-0]
     308:	3a0e0300 	bcc	380f10 <__bss_end__+0x376ea0>
     30c:	49053b0b 	stmdbmi	r5, {r0, r1, r3, r8, r9, fp, ip, sp}
     310:	000b3813 	andeq	r3, fp, r3, lsl r8
     314:	000d1800 	andeq	r1, sp, r0, lsl #16
     318:	0b3a0e03 	bleq	e83b2c <__bss_end__+0xe79abc>
     31c:	1349053b 	movtne	r0, #38203	; 0x953b
     320:	00000538 	andeq	r0, r0, r8, lsr r5
     324:	03011319 	movweq	r1, #4889	; 0x1319
     328:	3a0b0b0e 	bcc	2c2f68 <__bss_end__+0x2b8ef8>
     32c:	01053b0b 	tsteq	r5, fp, lsl #22
     330:	1a000013 	bne	384 <_start-0x7c7c>
     334:	0b0b0113 	bleq	2c0788 <__bss_end__+0x2b6718>
     338:	053b0b3a 	ldreq	r0, [fp, #-2874]!	; 0xfffff4c6
     33c:	00001301 	andeq	r1, r0, r1, lsl #6
     340:	0b01171b 	bleq	45fb4 <__bss_end__+0x3bf44>
     344:	3b0b3a0b 	blcc	2ceb78 <__bss_end__+0x2c4b08>
     348:	00130105 	andseq	r0, r3, r5, lsl #2
     34c:	000d1c00 	andeq	r1, sp, r0, lsl #24
     350:	0b3a0e03 	bleq	e83b64 <__bss_end__+0xe79af4>
     354:	1349053b 	movtne	r0, #38203	; 0x953b
     358:	151d0000 	ldrne	r0, [sp, #-0]
     35c:	01192701 	tsteq	r9, r1, lsl #14
     360:	1e000013 	mcrne	0, 0, r0, cr0, cr3, {0}
     364:	0e030034 	mcreq	0, 0, r0, cr3, cr4, {1}
     368:	053b0b3a 	ldreq	r0, [fp, #-2874]!	; 0xfffff4c6
     36c:	193f1349 	ldmdbne	pc!, {r0, r3, r6, r8, r9, ip}	; <UNPREDICTABLE>
     370:	0000193c 	andeq	r1, r0, ip, lsr r9
     374:	0300341f 	movweq	r3, #1055	; 0x41f
     378:	3b0b3a0e 	blcc	2cebb8 <__bss_end__+0x2c4b48>
     37c:	3f13490b 	svccc	0x0013490b
     380:	00193c19 	andseq	r3, r9, r9, lsl ip
     384:	01042000 	mrseq	r2, (UNDEF: 4)
     388:	13490b0b 	movtne	r0, #39691	; 0x9b0b
     38c:	0b3b0b3a 	bleq	ec307c <__bss_end__+0xeb900c>
     390:	00001301 	andeq	r1, r0, r1, lsl #6
     394:	03002821 	movweq	r2, #2081	; 0x821
     398:	000b1c0e 	andeq	r1, fp, lr, lsl #24
     39c:	00282200 	eoreq	r2, r8, r0, lsl #4
     3a0:	051c0e03 	ldreq	r0, [ip, #-3587]	; 0xfffff1fd
     3a4:	34230000 	strtcc	r0, [r3], #-0
     3a8:	3a0e0300 	bcc	380fb0 <__bss_end__+0x376f40>
     3ac:	490b3b0b 	stmdbmi	fp, {r0, r1, r3, r8, r9, fp, ip, sp}
     3b0:	00180213 	andseq	r0, r8, r3, lsl r2
     3b4:	012e2400 			; <UNDEFINED> instruction: 0x012e2400
     3b8:	0e03193f 			; <UNDEFINED> instruction: 0x0e03193f
     3bc:	0b3b0b3a 	bleq	ec30ac <__bss_end__+0xeb903c>
     3c0:	13491927 	movtne	r1, #39207	; 0x9927
     3c4:	06120111 			; <UNDEFINED> instruction: 0x06120111
     3c8:	42971840 	addsmi	r1, r7, #64, 16	; 0x400000
     3cc:	00130119 	andseq	r0, r3, r9, lsl r1
     3d0:	00342500 	eorseq	r2, r4, r0, lsl #10
     3d4:	0b3a0e03 	bleq	e83be8 <__bss_end__+0xe79b78>
     3d8:	13490b3b 	movtne	r0, #39739	; 0x9b3b
     3dc:	00001702 	andeq	r1, r0, r2, lsl #14
     3e0:	55010b26 	strpl	r0, [r1, #-2854]	; 0xfffff4da
     3e4:	00130117 	andseq	r0, r3, r7, lsl r1
     3e8:	82892700 	addhi	r2, r9, #0, 14
     3ec:	01110101 	tsteq	r1, r1, lsl #2
     3f0:	13011331 	movwne	r1, #4913	; 0x1331
     3f4:	8a280000 	bhi	a003fc <__bss_end__+0x9f638c>
     3f8:	02000182 	andeq	r0, r0, #-2147483616	; 0x80000020
     3fc:	18429118 	stmdane	r2, {r3, r4, r8, ip, pc}^
     400:	89290000 	stmdbhi	r9!, {}	; <UNPREDICTABLE>
     404:	11010182 	smlabbne	r1, r2, r1, r0
     408:	00133101 	andseq	r3, r3, r1, lsl #2
     40c:	00052a00 	andeq	r2, r5, r0, lsl #20
     410:	0b3a0e03 	bleq	e83c24 <__bss_end__+0xe79bb4>
     414:	13490b3b 	movtne	r0, #39739	; 0x9b3b
     418:	00001702 	andeq	r1, r0, r2, lsl #14
     41c:	0300342b 	movweq	r3, #1067	; 0x42b
     420:	3b0b3a08 	blcc	2cec48 <__bss_end__+0x2c4bd8>
     424:	0213490b 	andseq	r4, r3, #180224	; 0x2c000
     428:	2c000017 	stccs	0, cr0, [r0], {23}
     42c:	0e030034 	mcreq	0, 0, r0, cr3, cr4, {1}
     430:	19341349 	ldmdbne	r4!, {r0, r3, r6, r8, r9, ip}
     434:	00001802 	andeq	r1, r0, r2, lsl #16
     438:	0182892d 	orreq	r8, r2, sp, lsr #18
     43c:	31011100 	mrscc	r1, (UNDEF: 17)
     440:	2e000013 	mcrcs	0, 0, r0, cr0, cr3, {0}
     444:	193f012e 	ldmdbne	pc!, {r1, r2, r3, r5, r8}	; <UNPREDICTABLE>
     448:	0b3a0e03 	bleq	e83c5c <__bss_end__+0xe79bec>
     44c:	19270b3b 	stmdbne	r7!, {r0, r1, r3, r4, r5, r8, r9, fp}
     450:	06120111 			; <UNDEFINED> instruction: 0x06120111
     454:	42971840 	addsmi	r1, r7, #64, 16	; 0x400000
     458:	00130119 	andseq	r0, r3, r9, lsl r1
     45c:	012e2f00 			; <UNDEFINED> instruction: 0x012e2f00
     460:	0b3a0e03 	bleq	e83c74 <__bss_end__+0xe79c04>
     464:	19270b3b 	stmdbne	r7!, {r0, r1, r3, r4, r5, r8, r9, fp}
     468:	01111349 	tsteq	r1, r9, asr #6
     46c:	18400612 	stmdane	r0, {r1, r4, r9, sl}^
     470:	01194297 			; <UNDEFINED> instruction: 0x01194297
     474:	30000013 	andcc	r0, r0, r3, lsl r0
     478:	08030005 	stmdaeq	r3, {r0, r2}
     47c:	0b3b0b3a 	bleq	ec316c <__bss_end__+0xeb90fc>
     480:	17021349 	strne	r1, [r2, -r9, asr #6]
     484:	2e310000 	cdpcs	0, 3, cr0, cr1, cr0, {0}
     488:	3a0e0301 	bcc	381094 <__bss_end__+0x377024>
     48c:	270b3b0b 	strcs	r3, [fp, -fp, lsl #22]
     490:	12011119 	andne	r1, r1, #1073741830	; 0x40000006
     494:	97184006 	ldrls	r4, [r8, -r6]
     498:	13011942 	movwne	r1, #6466	; 0x1942
     49c:	0b320000 	bleq	c804a4 <__bss_end__+0xc76434>
     4a0:	12011101 	andne	r1, r1, #1073741824	; 0x40000000
     4a4:	33000006 	movwcc	r0, #6
     4a8:	1331011d 	teqne	r1, #1073741831	; 0x40000007
     4ac:	17550152 			; <UNDEFINED> instruction: 0x17550152
     4b0:	0b590b58 	bleq	1643218 <__bss_end__+0x16391a8>
     4b4:	00001301 	andeq	r1, r0, r1, lsl #6
     4b8:	31000534 	tstcc	r0, r4, lsr r5
     4bc:	00170213 	andseq	r0, r7, r3, lsl r2
     4c0:	010b3500 	tsteq	fp, r0, lsl #10
     4c4:	00001755 	andeq	r1, r0, r5, asr r7
     4c8:	31003436 	tstcc	r0, r6, lsr r4
     4cc:	00170213 	andseq	r0, r7, r3, lsl r2
     4d0:	00343700 	eorseq	r3, r4, r0, lsl #14
     4d4:	0b3a0803 	bleq	e824e8 <__bss_end__+0xe78478>
     4d8:	13490b3b 	movtne	r0, #39739	; 0x9b3b
     4dc:	00001802 	andeq	r1, r0, r2, lsl #16
     4e0:	03012e38 	movweq	r2, #7736	; 0x1e38
     4e4:	3b0b3a0e 	blcc	2ced24 <__bss_end__+0x2c4cb4>
     4e8:	2019270b 	andscs	r2, r9, fp, lsl #14
     4ec:	0013010b 	andseq	r0, r3, fp, lsl #2
     4f0:	00053900 	andeq	r3, r5, r0, lsl #18
     4f4:	0b3a0803 	bleq	e82508 <__bss_end__+0xe78498>
     4f8:	13490b3b 	movtne	r0, #39739	; 0x9b3b
     4fc:	343a0000 	ldrtcc	r0, [sl], #-0
     500:	3a080300 	bcc	201108 <__bss_end__+0x1f7098>
     504:	490b3b0b 	stmdbmi	fp, {r0, r1, r3, r8, r9, fp, ip, sp}
     508:	3b000013 	blcc	55c <_start-0x7aa4>
     50c:	193f002e 	ldmdbne	pc!, {r1, r2, r3, r5}	; <UNPREDICTABLE>
     510:	0e6e193c 			; <UNDEFINED> instruction: 0x0e6e193c
     514:	0b3a0e03 	bleq	e83d28 <__bss_end__+0xe79cb8>
     518:	00000b3b 	andeq	r0, r0, fp, lsr fp
     51c:	01110100 	tsteq	r1, r0, lsl #2
     520:	0b130e25 	bleq	4c3dbc <__bss_end__+0x4b9d4c>
     524:	0e1b0e03 	cdpeq	14, 1, cr0, cr11, cr3, {0}
     528:	06120111 			; <UNDEFINED> instruction: 0x06120111
     52c:	00001710 	andeq	r1, r0, r0, lsl r7
     530:	03001602 	movweq	r1, #1538	; 0x602
     534:	3b0b3a0e 	blcc	2ced74 <__bss_end__+0x2c4d04>
     538:	0013490b 	andseq	r4, r3, fp, lsl #18
     53c:	01130300 	tsteq	r3, r0, lsl #6
     540:	0b0b0e03 	bleq	2c3d54 <__bss_end__+0x2b9ce4>
     544:	0b3b0b3a 	bleq	ec3234 <__bss_end__+0xeb91c4>
     548:	00001301 	andeq	r1, r0, r1, lsl #6
     54c:	03000d04 	movweq	r0, #3332	; 0xd04
     550:	3813490e 	ldmdacc	r3, {r1, r2, r3, r8, fp, lr}
     554:	0019340b 	andseq	r3, r9, fp, lsl #8
     558:	000f0500 	andeq	r0, pc, r0, lsl #10
     55c:	00000b0b 	andeq	r0, r0, fp, lsl #22
     560:	0b002406 	bleq	9580 <kmalloc+0x3c>
     564:	030b3e0b 	movweq	r3, #48651	; 0xbe0b
     568:	07000008 	streq	r0, [r0, -r8]
     56c:	0b0b0024 	bleq	2c0604 <__bss_end__+0x2b6594>
     570:	0e030b3e 	vmoveq.16	d3[0], r0
     574:	16080000 	strne	r0, [r8], -r0
     578:	3a0e0300 	bcc	381180 <__bss_end__+0x377110>
     57c:	49053b0b 	stmdbmi	r5, {r0, r1, r3, r8, r9, fp, ip, sp}
     580:	09000013 	stmdbeq	r0, {r0, r1, r4}
     584:	0b0b0117 	bleq	2c09e8 <__bss_end__+0x2b6978>
     588:	0b3b0b3a 	bleq	ec3278 <__bss_end__+0xeb9208>
     58c:	00001301 	andeq	r1, r0, r1, lsl #6
     590:	03000d0a 	movweq	r0, #3338	; 0xd0a
     594:	3b0b3a0e 	blcc	2cedd4 <__bss_end__+0x2c4d64>
     598:	0013490b 	andseq	r4, r3, fp, lsl #18
     59c:	01010b00 	tsteq	r1, r0, lsl #22
     5a0:	13011349 	movwne	r1, #4937	; 0x1349
     5a4:	210c0000 	mrscs	r0, (UNDEF: 12)
     5a8:	2f134900 	svccs	0x00134900
     5ac:	0d00000b 	stceq	0, cr0, [r0, #-44]	; 0xffffffd4
     5b0:	0b0b0113 	bleq	2c0a04 <__bss_end__+0x2b6994>
     5b4:	0b3b0b3a 	bleq	ec32a4 <__bss_end__+0xeb9234>
     5b8:	00001301 	andeq	r1, r0, r1, lsl #6
     5bc:	03000d0e 	movweq	r0, #3342	; 0xd0e
     5c0:	3b0b3a0e 	blcc	2cee00 <__bss_end__+0x2c4d90>
     5c4:	3813490b 	ldmdacc	r3, {r0, r1, r3, r8, fp, lr}
     5c8:	0f00000b 	svceq	0x0000000b
     5cc:	0b0b000f 	bleq	2c0610 <__bss_end__+0x2b65a0>
     5d0:	00001349 	andeq	r1, r0, r9, asr #6
     5d4:	49002610 	stmdbmi	r0, {r4, r9, sl, sp}
     5d8:	11000013 	tstne	r0, r3, lsl r0
     5dc:	0803000d 	stmdaeq	r3, {r0, r2, r3}
     5e0:	0b3b0b3a 	bleq	ec32d0 <__bss_end__+0xeb9260>
     5e4:	0b381349 	bleq	e05310 <__bss_end__+0xdfb2a0>
     5e8:	13120000 	tstne	r2, #0
     5ec:	0b0e0301 	bleq	3811f8 <__bss_end__+0x377188>
     5f0:	3b0b3a05 	blcc	2cee0c <__bss_end__+0x2c4d9c>
     5f4:	0013010b 	andseq	r0, r3, fp, lsl #2
     5f8:	000d1300 	andeq	r1, sp, r0, lsl #6
     5fc:	0b3a0e03 	bleq	e83e10 <__bss_end__+0xe79da0>
     600:	13490b3b 	movtne	r0, #39739	; 0x9b3b
     604:	00000538 	andeq	r0, r0, r8, lsr r5
     608:	27001514 	smladcs	r0, r4, r5, r1
     60c:	15000019 	strne	r0, [r0, #-25]	; 0xffffffe7
     610:	19270115 	stmdbne	r7!, {r0, r2, r4, r8}
     614:	13011349 	movwne	r1, #4937	; 0x1349
     618:	05160000 	ldreq	r0, [r6, #-0]
     61c:	00134900 	andseq	r4, r3, r0, lsl #18
     620:	01131700 	tsteq	r3, r0, lsl #14
     624:	050b0e03 	streq	r0, [fp, #-3587]	; 0xfffff1fd
     628:	053b0b3a 	ldreq	r0, [fp, #-2874]!	; 0xfffff4c6
     62c:	00001301 	andeq	r1, r0, r1, lsl #6
     630:	03000d18 	movweq	r0, #3352	; 0xd18
     634:	3b0b3a0e 	blcc	2cee74 <__bss_end__+0x2c4e04>
     638:	38134905 	ldmdacc	r3, {r0, r2, r8, fp, lr}
     63c:	1900000b 	stmdbne	r0, {r0, r1, r3}
     640:	0e03000d 	cdpeq	0, 0, cr0, cr3, cr13, {0}
     644:	053b0b3a 	ldreq	r0, [fp, #-2874]!	; 0xfffff4c6
     648:	05381349 	ldreq	r1, [r8, #-841]!	; 0xfffffcb7
     64c:	131a0000 	tstne	sl, #0
     650:	0b0e0301 	bleq	38125c <__bss_end__+0x3771ec>
     654:	3b0b3a0b 	blcc	2cee88 <__bss_end__+0x2c4e18>
     658:	00130105 	andseq	r0, r3, r5, lsl #2
     65c:	01131b00 	tsteq	r3, r0, lsl #22
     660:	0b3a0b0b 	bleq	e83294 <__bss_end__+0xe79224>
     664:	1301053b 	movwne	r0, #5435	; 0x153b
     668:	171c0000 	ldrne	r0, [ip, -r0]
     66c:	3a0b0b01 	bcc	2c3278 <__bss_end__+0x2b9208>
     670:	01053b0b 	tsteq	r5, fp, lsl #22
     674:	1d000013 	stcne	0, cr0, [r0, #-76]	; 0xffffffb4
     678:	0e03000d 	cdpeq	0, 0, cr0, cr3, cr13, {0}
     67c:	053b0b3a 	ldreq	r0, [fp, #-2874]!	; 0xfffff4c6
     680:	00001349 	andeq	r1, r0, r9, asr #6
     684:	2701151e 	smladcs	r1, lr, r5, r1
     688:	00130119 	andseq	r0, r3, r9, lsl r1
     68c:	00341f00 	eorseq	r1, r4, r0, lsl #30
     690:	0b3a0e03 	bleq	e83ea4 <__bss_end__+0xe79e34>
     694:	1349053b 	movtne	r0, #38203	; 0x953b
     698:	193c193f 	ldmdbne	ip!, {r0, r1, r2, r3, r4, r5, r8, fp, ip}
     69c:	34200000 	strtcc	r0, [r0], #-0
     6a0:	3a0e0300 	bcc	3812a8 <__bss_end__+0x377238>
     6a4:	490b3b0b 	stmdbmi	fp, {r0, r1, r3, r8, r9, fp, ip, sp}
     6a8:	3c193f13 	ldccc	15, cr3, [r9], {19}
     6ac:	21000019 	tstcs	r0, r9, lsl r0
     6b0:	193f012e 	ldmdbne	pc!, {r1, r2, r3, r5, r8}	; <UNPREDICTABLE>
     6b4:	0b3a0e03 	bleq	e83ec8 <__bss_end__+0xe79e58>
     6b8:	19270b3b 	stmdbne	r7!, {r0, r1, r3, r4, r5, r8, r9, fp}
     6bc:	01111349 	tsteq	r1, r9, asr #6
     6c0:	18400612 	stmdane	r0, {r1, r4, r9, sl}^
     6c4:	01194297 			; <UNDEFINED> instruction: 0x01194297
     6c8:	22000013 	andcs	r0, r0, #19
     6cc:	08030005 	stmdaeq	r3, {r0, r2}
     6d0:	0b3b0b3a 	bleq	ec33c0 <__bss_end__+0xeb9350>
     6d4:	18021349 	stmdane	r2, {r0, r3, r6, r8, r9, ip}
     6d8:	18230000 	stmdane	r3!, {}	; <UNPREDICTABLE>
     6dc:	24000000 	strcs	r0, [r0], #-0
     6e0:	08030034 	stmdaeq	r3, {r2, r4, r5}
     6e4:	0b3b0b3a 	bleq	ec33d4 <__bss_end__+0xeb9364>
     6e8:	18021349 	stmdane	r2, {r0, r3, r6, r8, r9, ip}
     6ec:	34250000 	strtcc	r0, [r5], #-0
     6f0:	3a0e0300 	bcc	3812f8 <__bss_end__+0x377288>
     6f4:	490b3b0b 	stmdbmi	fp, {r0, r1, r3, r8, r9, fp, ip, sp}
     6f8:	00180213 	andseq	r0, r8, r3, lsl r2
     6fc:	00342600 	eorseq	r2, r4, r0, lsl #12
     700:	0b3a0803 	bleq	e82714 <__bss_end__+0xe786a4>
     704:	13490b3b 	movtne	r0, #39739	; 0x9b3b
     708:	00001702 	andeq	r1, r0, r2, lsl #14
     70c:	01828927 	orreq	r8, r2, r7, lsr #18
     710:	31011101 	tstcc	r1, r1, lsl #2
     714:	00130113 	andseq	r0, r3, r3, lsl r1
     718:	828a2800 	addhi	r2, sl, #0, 16
     71c:	18020001 	stmdane	r2, {r0}
     720:	00184291 	mulseq	r8, r1, r2
     724:	82892900 	addhi	r2, r9, #0, 18
     728:	01110101 	tsteq	r1, r1, lsl #2
     72c:	212a0000 			; <UNDEFINED> instruction: 0x212a0000
     730:	2f134900 	svccs	0x00134900
     734:	2b000005 	blcs	750 <_start-0x78b0>
     738:	193f002e 	ldmdbne	pc!, {r1, r2, r3, r5}	; <UNPREDICTABLE>
     73c:	0e6e193c 			; <UNDEFINED> instruction: 0x0e6e193c
     740:	0b3a0e03 	bleq	e83f54 <__bss_end__+0xe79ee4>
     744:	00000b3b 	andeq	r0, r0, fp, lsr fp
     748:	01110100 	tsteq	r1, r0, lsl #2
     74c:	0b130e25 	bleq	4c3fe8 <__bss_end__+0x4b9f78>
     750:	0e1b0e03 	cdpeq	14, 1, cr0, cr11, cr3, {0}
     754:	06120111 			; <UNDEFINED> instruction: 0x06120111
     758:	00001710 	andeq	r1, r0, r0, lsl r7
     75c:	0b002402 	bleq	976c <__FUNCTION__.4339+0x30>
     760:	030b3e0b 	movweq	r3, #48651	; 0xbe0b
     764:	03000008 	movweq	r0, #8
     768:	0b0b0024 	bleq	2c0800 <__bss_end__+0x2b6790>
     76c:	0e030b3e 	vmoveq.16	d3[0], r0
     770:	16040000 	strne	r0, [r4], -r0
     774:	3a0e0300 	bcc	38137c <__bss_end__+0x37730c>
     778:	490b3b0b 	stmdbmi	fp, {r0, r1, r3, r8, r9, fp, ip, sp}
     77c:	05000013 	streq	r0, [r0, #-19]	; 0xffffffed
     780:	0e030016 	mcreq	0, 0, r0, cr3, cr6, {0}
     784:	053b0b3a 	ldreq	r0, [fp, #-2874]!	; 0xfffff4c6
     788:	00001349 	andeq	r1, r0, r9, asr #6
     78c:	0b011706 	bleq	463ac <__bss_end__+0x3c33c>
     790:	3b0b3a0b 	blcc	2cefc4 <__bss_end__+0x2c4f54>
     794:	0013010b 	andseq	r0, r3, fp, lsl #2
     798:	000d0700 	andeq	r0, sp, r0, lsl #14
     79c:	0b3a0e03 	bleq	e83fb0 <__bss_end__+0xe79f40>
     7a0:	13490b3b 	movtne	r0, #39739	; 0x9b3b
     7a4:	01080000 	mrseq	r0, (UNDEF: 8)
     7a8:	01134901 	tsteq	r3, r1, lsl #18
     7ac:	09000013 	stmdbeq	r0, {r0, r1, r4}
     7b0:	13490021 	movtne	r0, #36897	; 0x9021
     7b4:	00000b2f 	andeq	r0, r0, pc, lsr #22
     7b8:	0b01130a 	bleq	453e8 <__bss_end__+0x3b378>
     7bc:	3b0b3a0b 	blcc	2ceff0 <__bss_end__+0x2c4f80>
     7c0:	0013010b 	andseq	r0, r3, fp, lsl #2
     7c4:	000d0b00 	andeq	r0, sp, r0, lsl #22
     7c8:	0b3a0e03 	bleq	e83fdc <__bss_end__+0xe79f6c>
     7cc:	13490b3b 	movtne	r0, #39739	; 0x9b3b
     7d0:	00000b38 	andeq	r0, r0, r8, lsr fp
     7d4:	0b000f0c 	bleq	440c <_start-0x3bf4>
     7d8:	0d00000b 	stceq	0, cr0, [r0, #-44]	; 0xffffffd4
     7dc:	0b0b000f 	bleq	2c0820 <__bss_end__+0x2b67b0>
     7e0:	00001349 	andeq	r1, r0, r9, asr #6
     7e4:	4900260e 	stmdbmi	r0, {r1, r2, r3, r9, sl, sp}
     7e8:	0f000013 	svceq	0x00000013
     7ec:	0e030113 	mcreq	1, 0, r0, cr3, cr3, {0}
     7f0:	0b3a0b0b 	bleq	e83424 <__bss_end__+0xe793b4>
     7f4:	13010b3b 	movwne	r0, #6971	; 0x1b3b
     7f8:	0d100000 	ldceq	0, cr0, [r0, #-0]
     7fc:	3a080300 	bcc	201404 <__bss_end__+0x1f7394>
     800:	490b3b0b 	stmdbmi	fp, {r0, r1, r3, r8, r9, fp, ip, sp}
     804:	000b3813 	andeq	r3, fp, r3, lsl r8
     808:	01131100 	tsteq	r3, r0, lsl #2
     80c:	050b0e03 	streq	r0, [fp, #-3587]	; 0xfffff1fd
     810:	0b3b0b3a 	bleq	ec3500 <__bss_end__+0xeb9490>
     814:	00001301 	andeq	r1, r0, r1, lsl #6
     818:	03000d12 	movweq	r0, #3346	; 0xd12
     81c:	3b0b3a0e 	blcc	2cf05c <__bss_end__+0x2c4fec>
     820:	3813490b 	ldmdacc	r3, {r0, r1, r3, r8, fp, lr}
     824:	13000005 	movwne	r0, #5
     828:	19270015 	stmdbne	r7!, {r0, r2, r4}
     82c:	15140000 	ldrne	r0, [r4, #-0]
     830:	49192701 	ldmdbmi	r9, {r0, r8, r9, sl, sp}
     834:	00130113 	andseq	r0, r3, r3, lsl r1
     838:	00051500 	andeq	r1, r5, r0, lsl #10
     83c:	00001349 	andeq	r1, r0, r9, asr #6
     840:	03011316 	movweq	r1, #4886	; 0x1316
     844:	3a050b0e 	bcc	143484 <__bss_end__+0x139414>
     848:	01053b0b 	tsteq	r5, fp, lsl #22
     84c:	17000013 	smladne	r0, r3, r0, r0
     850:	0e03000d 	cdpeq	0, 0, cr0, cr3, cr13, {0}
     854:	053b0b3a 	ldreq	r0, [fp, #-2874]!	; 0xfffff4c6
     858:	0b381349 	bleq	e05584 <__bss_end__+0xdfb514>
     85c:	0d180000 	ldceq	0, cr0, [r8, #-0]
     860:	3a0e0300 	bcc	381468 <__bss_end__+0x3773f8>
     864:	49053b0b 	stmdbmi	r5, {r0, r1, r3, r8, r9, fp, ip, sp}
     868:	00053813 	andeq	r3, r5, r3, lsl r8
     86c:	01131900 	tsteq	r3, r0, lsl #18
     870:	0b0b0e03 	bleq	2c4084 <__bss_end__+0x2ba014>
     874:	053b0b3a 	ldreq	r0, [fp, #-2874]!	; 0xfffff4c6
     878:	00001301 	andeq	r1, r0, r1, lsl #6
     87c:	0b01131a 	bleq	454ec <__bss_end__+0x3b47c>
     880:	3b0b3a0b 	blcc	2cf0b4 <__bss_end__+0x2c5044>
     884:	00130105 	andseq	r0, r3, r5, lsl #2
     888:	01171b00 	tsteq	r7, r0, lsl #22
     88c:	0b3a0b0b 	bleq	e834c0 <__bss_end__+0xe79450>
     890:	1301053b 	movwne	r0, #5435	; 0x153b
     894:	0d1c0000 	ldceq	0, cr0, [ip, #-0]
     898:	3a0e0300 	bcc	3814a0 <__bss_end__+0x377430>
     89c:	49053b0b 	stmdbmi	r5, {r0, r1, r3, r8, r9, fp, ip, sp}
     8a0:	1d000013 	stcne	0, cr0, [r0, #-76]	; 0xffffffb4
     8a4:	19270115 	stmdbne	r7!, {r0, r2, r4, r8}
     8a8:	00001301 	andeq	r1, r0, r1, lsl #6
     8ac:	0300341e 	movweq	r3, #1054	; 0x41e
     8b0:	3b0b3a0e 	blcc	2cf0f0 <__bss_end__+0x2c5080>
     8b4:	3f134905 	svccc	0x00134905
     8b8:	00193c19 	andseq	r3, r9, r9, lsl ip
     8bc:	00341f00 	eorseq	r1, r4, r0, lsl #30
     8c0:	0b3a0e03 	bleq	e840d4 <__bss_end__+0xe7a064>
     8c4:	13490b3b 	movtne	r0, #39739	; 0x9b3b
     8c8:	193c193f 	ldmdbne	ip!, {r0, r1, r2, r3, r4, r5, r8, fp, ip}
     8cc:	0d200000 	stceq	0, cr0, [r0, #-0]
     8d0:	490e0300 	stmdbmi	lr, {r8, r9}
     8d4:	340b3813 	strcc	r3, [fp], #-2067	; 0xfffff7ed
     8d8:	21000019 	tstcs	r0, r9, lsl r0
     8dc:	193f012e 	ldmdbne	pc!, {r1, r2, r3, r5, r8}	; <UNPREDICTABLE>
     8e0:	0b3a0e03 	bleq	e840f4 <__bss_end__+0xe7a084>
     8e4:	19270b3b 	stmdbne	r7!, {r0, r1, r3, r4, r5, r8, r9, fp}
     8e8:	01111349 	tsteq	r1, r9, asr #6
     8ec:	18400612 	stmdane	r0, {r1, r4, r9, sl}^
     8f0:	01194297 			; <UNDEFINED> instruction: 0x01194297
     8f4:	22000013 	andcs	r0, r0, #19
     8f8:	08030005 	stmdaeq	r3, {r0, r2}
     8fc:	0b3b0b3a 	bleq	ec35ec <__bss_end__+0xeb957c>
     900:	17021349 	strne	r1, [r2, -r9, asr #6]
     904:	05230000 	streq	r0, [r3, #-0]!
     908:	3a0e0300 	bcc	381510 <__bss_end__+0x3774a0>
     90c:	490b3b0b 	stmdbmi	fp, {r0, r1, r3, r8, r9, fp, ip, sp}
     910:	00180213 	andseq	r0, r8, r3, lsl r2
     914:	00342400 	eorseq	r2, r4, r0, lsl #8
     918:	0b3a0803 	bleq	e8292c <__bss_end__+0xe788bc>
     91c:	13490b3b 	movtne	r0, #39739	; 0x9b3b
     920:	00001702 	andeq	r1, r0, r2, lsl #14
     924:	03003425 	movweq	r3, #1061	; 0x425
     928:	3413490e 	ldrcc	r4, [r3], #-2318	; 0xfffff6f2
     92c:	00180219 	andseq	r0, r8, r9, lsl r2
     930:	010b2600 	tsteq	fp, r0, lsl #12
     934:	00001755 	andeq	r1, r0, r5, asr r7
     938:	03003427 	movweq	r3, #1063	; 0x427
     93c:	3b0b3a08 	blcc	2cf164 <__bss_end__+0x2c50f4>
     940:	0213490b 	andseq	r4, r3, #180224	; 0x2c000
     944:	28000018 	stmdacs	r0, {r3, r4}
     948:	0e030034 	mcreq	0, 0, r0, cr3, cr4, {1}
     94c:	0b3b0b3a 	bleq	ec363c <__bss_end__+0xeb95cc>
     950:	17021349 	strne	r1, [r2, -r9, asr #6]
     954:	89290000 	stmdbhi	r9!, {}	; <UNPREDICTABLE>
     958:	11010182 	smlabbne	r1, r2, r1, r0
     95c:	01133101 	tsteq	r3, r1, lsl #2
     960:	2a000013 	bcs	9b4 <_start-0x764c>
     964:	0001828a 	andeq	r8, r1, sl, lsl #5
     968:	42911802 	addsmi	r1, r1, #131072	; 0x20000
     96c:	2b000018 	blcs	9d4 <_start-0x762c>
     970:	00018289 	andeq	r8, r1, r9, lsl #5
     974:	13310111 	teqne	r1, #1073741828	; 0x40000004
     978:	2e2c0000 	cdpcs	0, 2, cr0, cr12, cr0, {0}
     97c:	3a0e0301 	bcc	381588 <__bss_end__+0x377518>
     980:	270b3b0b 	strcs	r3, [fp, -fp, lsl #22]
     984:	11134919 	tstne	r3, r9, lsl r9
     988:	40061201 	andmi	r1, r6, r1, lsl #4
     98c:	19429718 	stmdbne	r2, {r3, r4, r8, r9, sl, ip, pc}^
     990:	00001301 	andeq	r1, r0, r1, lsl #6
     994:	0300052d 	movweq	r0, #1325	; 0x52d
     998:	3b0b3a0e 	blcc	2cf1d8 <__bss_end__+0x2c5168>
     99c:	0213490b 	andseq	r4, r3, #180224	; 0x2c000
     9a0:	2e000017 	mcrcs	0, 0, r0, cr0, cr7, {0}
     9a4:	0111010b 	tsteq	r1, fp, lsl #2
     9a8:	13010612 	movwne	r0, #5650	; 0x1612
     9ac:	2e2f0000 	cdpcs	0, 2, cr0, cr15, cr0, {0}
     9b0:	3a080301 	bcc	2015bc <__bss_end__+0x1f754c>
     9b4:	270b3b0b 	strcs	r3, [fp, -fp, lsl #22]
     9b8:	11134919 	tstne	r3, r9, lsl r9
     9bc:	40061201 	andmi	r1, r6, r1, lsl #4
     9c0:	19429718 	stmdbne	r2, {r3, r4, r8, r9, sl, ip, pc}^
     9c4:	00001301 	andeq	r1, r0, r1, lsl #6
     9c8:	3f012e30 	svccc	0x00012e30
     9cc:	3a0e0319 	bcc	381638 <__bss_end__+0x3775c8>
     9d0:	270b3b0b 	strcs	r3, [fp, -fp, lsl #22]
     9d4:	12011119 	andne	r1, r1, #1073741830	; 0x40000006
     9d8:	97184006 	ldrls	r4, [r8, -r6]
     9dc:	13011942 	movwne	r1, #6466	; 0x1942
     9e0:	2e310000 	cdpcs	0, 3, cr0, cr1, cr0, {0}
     9e4:	3c193f00 	ldccc	15, cr3, [r9], {-0}
     9e8:	030e6e19 	movweq	r6, #60953	; 0xee19
     9ec:	3b0b3a0e 	blcc	2cf22c <__bss_end__+0x2c51bc>
     9f0:	0000000b 	andeq	r0, r0, fp
     9f4:	25011101 	strcs	r1, [r1, #-257]	; 0xfffffeff
     9f8:	030b130e 	movweq	r1, #45838	; 0xb30e
     9fc:	110e1b0e 	tstne	lr, lr, lsl #22
     a00:	10061201 	andne	r1, r6, r1, lsl #4
     a04:	02000017 	andeq	r0, r0, #23
     a08:	0b0b0024 	bleq	2c0aa0 <__bss_end__+0x2b6a30>
     a0c:	08030b3e 	stmdaeq	r3, {r1, r2, r3, r4, r5, r8, r9, fp}
     a10:	24030000 	strcs	r0, [r3], #-0
     a14:	3e0b0b00 	vmlacc.f64	d0, d11, d0
     a18:	000e030b 	andeq	r0, lr, fp, lsl #6
     a1c:	00160400 	andseq	r0, r6, r0, lsl #8
     a20:	0b3a0e03 	bleq	e84234 <__bss_end__+0xe7a1c4>
     a24:	13490b3b 	movtne	r0, #39739	; 0x9b3b
     a28:	16050000 	strne	r0, [r5], -r0
     a2c:	3a0e0300 	bcc	381634 <__bss_end__+0x3775c4>
     a30:	49053b0b 	stmdbmi	r5, {r0, r1, r3, r8, r9, fp, ip, sp}
     a34:	06000013 			; <UNDEFINED> instruction: 0x06000013
     a38:	0b0b0117 	bleq	2c0e9c <__bss_end__+0x2b6e2c>
     a3c:	0b3b0b3a 	bleq	ec372c <__bss_end__+0xeb96bc>
     a40:	00001301 	andeq	r1, r0, r1, lsl #6
     a44:	03000d07 	movweq	r0, #3335	; 0xd07
     a48:	3b0b3a0e 	blcc	2cf288 <__bss_end__+0x2c5218>
     a4c:	0013490b 	andseq	r4, r3, fp, lsl #18
     a50:	01010800 	tsteq	r1, r0, lsl #16
     a54:	13011349 	movwne	r1, #4937	; 0x1349
     a58:	21090000 	mrscs	r0, (UNDEF: 9)
     a5c:	2f134900 	svccs	0x00134900
     a60:	0a00000b 	beq	a94 <_start-0x756c>
     a64:	0b0b0113 	bleq	2c0eb8 <__bss_end__+0x2b6e48>
     a68:	0b3b0b3a 	bleq	ec3758 <__bss_end__+0xeb96e8>
     a6c:	00001301 	andeq	r1, r0, r1, lsl #6
     a70:	03000d0b 	movweq	r0, #3339	; 0xd0b
     a74:	3b0b3a0e 	blcc	2cf2b4 <__bss_end__+0x2c5244>
     a78:	3813490b 	ldmdacc	r3, {r0, r1, r3, r8, fp, lr}
     a7c:	0c00000b 	stceq	0, cr0, [r0], {11}
     a80:	0b0b000f 	bleq	2c0ac4 <__bss_end__+0x2b6a54>
     a84:	0f0d0000 	svceq	0x000d0000
     a88:	490b0b00 	stmdbmi	fp, {r8, r9, fp}
     a8c:	0e000013 	mcreq	0, 0, r0, cr0, cr3, {0}
     a90:	13490026 	movtne	r0, #36902	; 0x9026
     a94:	130f0000 	movwne	r0, #61440	; 0xf000
     a98:	0b0e0301 	bleq	3816a4 <__bss_end__+0x377634>
     a9c:	3b0b3a0b 	blcc	2cf2d0 <__bss_end__+0x2c5260>
     aa0:	0013010b 	andseq	r0, r3, fp, lsl #2
     aa4:	000d1000 	andeq	r1, sp, r0
     aa8:	0b3a0803 	bleq	e82abc <__bss_end__+0xe78a4c>
     aac:	13490b3b 	movtne	r0, #39739	; 0x9b3b
     ab0:	00000b38 	andeq	r0, r0, r8, lsr fp
     ab4:	03011311 	movweq	r1, #4881	; 0x1311
     ab8:	3a050b0e 	bcc	1436f8 <__bss_end__+0x139688>
     abc:	010b3b0b 	tsteq	fp, fp, lsl #22
     ac0:	12000013 	andne	r0, r0, #19
     ac4:	0e03000d 	cdpeq	0, 0, cr0, cr3, cr13, {0}
     ac8:	0b3b0b3a 	bleq	ec37b8 <__bss_end__+0xeb9748>
     acc:	05381349 	ldreq	r1, [r8, #-841]!	; 0xfffffcb7
     ad0:	15130000 	ldrne	r0, [r3, #-0]
     ad4:	00192700 	andseq	r2, r9, r0, lsl #14
     ad8:	01151400 	tsteq	r5, r0, lsl #8
     adc:	13491927 	movtne	r1, #39207	; 0x9927
     ae0:	00001301 	andeq	r1, r0, r1, lsl #6
     ae4:	49000515 	stmdbmi	r0, {r0, r2, r4, r8, sl}
     ae8:	16000013 			; <UNDEFINED> instruction: 0x16000013
     aec:	0e030113 	mcreq	1, 0, r0, cr3, cr3, {0}
     af0:	0b3a050b 	bleq	e81f24 <__bss_end__+0xe77eb4>
     af4:	1301053b 	movwne	r0, #5435	; 0x153b
     af8:	0d170000 	ldceq	0, cr0, [r7, #-0]
     afc:	3a0e0300 	bcc	381704 <__bss_end__+0x377694>
     b00:	49053b0b 	stmdbmi	r5, {r0, r1, r3, r8, r9, fp, ip, sp}
     b04:	000b3813 	andeq	r3, fp, r3, lsl r8
     b08:	000d1800 	andeq	r1, sp, r0, lsl #16
     b0c:	0b3a0e03 	bleq	e84320 <__bss_end__+0xe7a2b0>
     b10:	1349053b 	movtne	r0, #38203	; 0x953b
     b14:	00000538 	andeq	r0, r0, r8, lsr r5
     b18:	03011319 	movweq	r1, #4889	; 0x1319
     b1c:	3a0b0b0e 	bcc	2c375c <__bss_end__+0x2b96ec>
     b20:	01053b0b 	tsteq	r5, fp, lsl #22
     b24:	1a000013 	bne	b78 <_start-0x7488>
     b28:	0b0b0113 	bleq	2c0f7c <__bss_end__+0x2b6f0c>
     b2c:	053b0b3a 	ldreq	r0, [fp, #-2874]!	; 0xfffff4c6
     b30:	00001301 	andeq	r1, r0, r1, lsl #6
     b34:	0b01171b 	bleq	467a8 <__bss_end__+0x3c738>
     b38:	3b0b3a0b 	blcc	2cf36c <__bss_end__+0x2c52fc>
     b3c:	00130105 	andseq	r0, r3, r5, lsl #2
     b40:	000d1c00 	andeq	r1, sp, r0, lsl #24
     b44:	0b3a0e03 	bleq	e84358 <__bss_end__+0xe7a2e8>
     b48:	1349053b 	movtne	r0, #38203	; 0x953b
     b4c:	151d0000 	ldrne	r0, [sp, #-0]
     b50:	01192701 	tsteq	r9, r1, lsl #14
     b54:	1e000013 	mcrne	0, 0, r0, cr0, cr3, {0}
     b58:	0e030034 	mcreq	0, 0, r0, cr3, cr4, {1}
     b5c:	053b0b3a 	ldreq	r0, [fp, #-2874]!	; 0xfffff4c6
     b60:	193f1349 	ldmdbne	pc!, {r0, r3, r6, r8, r9, ip}	; <UNPREDICTABLE>
     b64:	0000193c 	andeq	r1, r0, ip, lsr r9
     b68:	0300341f 	movweq	r3, #1055	; 0x41f
     b6c:	3b0b3a0e 	blcc	2cf3ac <__bss_end__+0x2c533c>
     b70:	3f13490b 	svccc	0x0013490b
     b74:	00193c19 	andseq	r3, r9, r9, lsl ip
     b78:	012e2000 			; <UNDEFINED> instruction: 0x012e2000
     b7c:	0e03193f 			; <UNDEFINED> instruction: 0x0e03193f
     b80:	0b3b0b3a 	bleq	ec3870 <__bss_end__+0xeb9800>
     b84:	13491927 	movtne	r1, #39207	; 0x9927
     b88:	06120111 			; <UNDEFINED> instruction: 0x06120111
     b8c:	42971840 	addsmi	r1, r7, #64, 16	; 0x400000
     b90:	00130119 	andseq	r0, r3, r9, lsl r1
     b94:	00052100 	andeq	r2, r5, r0, lsl #2
     b98:	0b3a0e03 	bleq	e843ac <__bss_end__+0xe7a33c>
     b9c:	13490b3b 	movtne	r0, #39739	; 0x9b3b
     ba0:	00001702 	andeq	r1, r0, r2, lsl #14
     ba4:	03000522 	movweq	r0, #1314	; 0x522
     ba8:	3b0b3a08 	blcc	2cf3d0 <__bss_end__+0x2c5360>
     bac:	0213490b 	andseq	r4, r3, #180224	; 0x2c000
     bb0:	23000017 	movwcs	r0, #23
     bb4:	0e030034 	mcreq	0, 0, r0, cr3, cr4, {1}
     bb8:	0b3b0b3a 	bleq	ec38a8 <__bss_end__+0xeb9838>
     bbc:	17021349 	strne	r1, [r2, -r9, asr #6]
     bc0:	34240000 	strtcc	r0, [r4], #-0
     bc4:	3a080300 	bcc	2017cc <__bss_end__+0x1f775c>
     bc8:	490b3b0b 	stmdbmi	fp, {r0, r1, r3, r8, r9, fp, ip, sp}
     bcc:	00170213 	andseq	r0, r7, r3, lsl r2
     bd0:	00262500 	eoreq	r2, r6, r0, lsl #10
     bd4:	01000000 	mrseq	r0, (UNDEF: 0)
     bd8:	0e250111 	mcreq	1, 1, r0, cr5, cr1, {0}
     bdc:	0e030b13 	vmoveq.32	d3[0], r0
     be0:	01110e1b 	tsteq	r1, fp, lsl lr
     be4:	17100612 			; <UNDEFINED> instruction: 0x17100612
     be8:	24020000 	strcs	r0, [r2], #-0
     bec:	3e0b0b00 	vmlacc.f64	d0, d11, d0
     bf0:	0008030b 	andeq	r0, r8, fp, lsl #6
     bf4:	00240300 	eoreq	r0, r4, r0, lsl #6
     bf8:	0b3e0b0b 	bleq	f8382c <__bss_end__+0xf797bc>
     bfc:	00000e03 	andeq	r0, r0, r3, lsl #28
     c00:	03001604 	movweq	r1, #1540	; 0x604
     c04:	3b0b3a0e 	blcc	2cf444 <__bss_end__+0x2c53d4>
     c08:	0013490b 	andseq	r4, r3, fp, lsl #18
     c0c:	00160500 	andseq	r0, r6, r0, lsl #10
     c10:	0b3a0e03 	bleq	e84424 <__bss_end__+0xe7a3b4>
     c14:	1349053b 	movtne	r0, #38203	; 0x953b
     c18:	17060000 	strne	r0, [r6, -r0]
     c1c:	3a0b0b01 	bcc	2c3828 <__bss_end__+0x2b97b8>
     c20:	010b3b0b 	tsteq	fp, fp, lsl #22
     c24:	07000013 	smladeq	r0, r3, r0, r0
     c28:	0e03000d 	cdpeq	0, 0, cr0, cr3, cr13, {0}
     c2c:	0b3b0b3a 	bleq	ec391c <__bss_end__+0xeb98ac>
     c30:	00001349 	andeq	r1, r0, r9, asr #6
     c34:	49010108 	stmdbmi	r1, {r3, r8}
     c38:	00130113 	andseq	r0, r3, r3, lsl r1
     c3c:	00210900 	eoreq	r0, r1, r0, lsl #18
     c40:	0b2f1349 	bleq	bc596c <__bss_end__+0xbbb8fc>
     c44:	130a0000 	movwne	r0, #40960	; 0xa000
     c48:	3a0b0b01 	bcc	2c3854 <__bss_end__+0x2b97e4>
     c4c:	010b3b0b 	tsteq	fp, fp, lsl #22
     c50:	0b000013 	bleq	ca4 <_start-0x735c>
     c54:	0e03000d 	cdpeq	0, 0, cr0, cr3, cr13, {0}
     c58:	0b3b0b3a 	bleq	ec3948 <__bss_end__+0xeb98d8>
     c5c:	0b381349 	bleq	e05988 <__bss_end__+0xdfb918>
     c60:	0f0c0000 	svceq	0x000c0000
     c64:	000b0b00 	andeq	r0, fp, r0, lsl #22
     c68:	000f0d00 	andeq	r0, pc, r0, lsl #26
     c6c:	13490b0b 	movtne	r0, #39691	; 0x9b0b
     c70:	260e0000 	strcs	r0, [lr], -r0
     c74:	00134900 	andseq	r4, r3, r0, lsl #18
     c78:	01130f00 	tsteq	r3, r0, lsl #30
     c7c:	0b0b0e03 	bleq	2c4490 <__bss_end__+0x2ba420>
     c80:	0b3b0b3a 	bleq	ec3970 <__bss_end__+0xeb9900>
     c84:	00001301 	andeq	r1, r0, r1, lsl #6
     c88:	03000d10 	movweq	r0, #3344	; 0xd10
     c8c:	3b0b3a08 	blcc	2cf4b4 <__bss_end__+0x2c5444>
     c90:	3813490b 	ldmdacc	r3, {r0, r1, r3, r8, fp, lr}
     c94:	1100000b 	tstne	r0, fp
     c98:	0e030113 	mcreq	1, 0, r0, cr3, cr3, {0}
     c9c:	0b3a050b 	bleq	e820d0 <__bss_end__+0xe78060>
     ca0:	13010b3b 	movwne	r0, #6971	; 0x1b3b
     ca4:	0d120000 	ldceq	0, cr0, [r2, #-0]
     ca8:	3a0e0300 	bcc	3818b0 <__bss_end__+0x377840>
     cac:	490b3b0b 	stmdbmi	fp, {r0, r1, r3, r8, r9, fp, ip, sp}
     cb0:	00053813 	andeq	r3, r5, r3, lsl r8
     cb4:	00151300 	andseq	r1, r5, r0, lsl #6
     cb8:	00001927 	andeq	r1, r0, r7, lsr #18
     cbc:	27011514 	smladcs	r1, r4, r5, r1
     cc0:	01134919 	tsteq	r3, r9, lsl r9
     cc4:	15000013 	strne	r0, [r0, #-19]	; 0xffffffed
     cc8:	13490005 	movtne	r0, #36869	; 0x9005
     ccc:	13160000 	tstne	r6, #0
     cd0:	0b0e0301 	bleq	3818dc <__bss_end__+0x37786c>
     cd4:	3b0b3a05 	blcc	2cf4f0 <__bss_end__+0x2c5480>
     cd8:	00130105 	andseq	r0, r3, r5, lsl #2
     cdc:	000d1700 	andeq	r1, sp, r0, lsl #14
     ce0:	0b3a0e03 	bleq	e844f4 <__bss_end__+0xe7a484>
     ce4:	1349053b 	movtne	r0, #38203	; 0x953b
     ce8:	00000b38 	andeq	r0, r0, r8, lsr fp
     cec:	03000d18 	movweq	r0, #3352	; 0xd18
     cf0:	3b0b3a0e 	blcc	2cf530 <__bss_end__+0x2c54c0>
     cf4:	38134905 	ldmdacc	r3, {r0, r2, r8, fp, lr}
     cf8:	19000005 	stmdbne	r0, {r0, r2}
     cfc:	0e030113 	mcreq	1, 0, r0, cr3, cr3, {0}
     d00:	0b3a0b0b 	bleq	e83934 <__bss_end__+0xe798c4>
     d04:	1301053b 	movwne	r0, #5435	; 0x153b
     d08:	131a0000 	tstne	sl, #0
     d0c:	3a0b0b01 	bcc	2c3918 <__bss_end__+0x2b98a8>
     d10:	01053b0b 	tsteq	r5, fp, lsl #22
     d14:	1b000013 	blne	d68 <_start-0x7298>
     d18:	0b0b0117 	bleq	2c117c <__bss_end__+0x2b710c>
     d1c:	053b0b3a 	ldreq	r0, [fp, #-2874]!	; 0xfffff4c6
     d20:	00001301 	andeq	r1, r0, r1, lsl #6
     d24:	03000d1c 	movweq	r0, #3356	; 0xd1c
     d28:	3b0b3a0e 	blcc	2cf568 <__bss_end__+0x2c54f8>
     d2c:	00134905 	andseq	r4, r3, r5, lsl #18
     d30:	01151d00 	tsteq	r5, r0, lsl #26
     d34:	13011927 	movwne	r1, #6439	; 0x1927
     d38:	341e0000 	ldrcc	r0, [lr], #-0
     d3c:	3a0e0300 	bcc	381944 <__bss_end__+0x3778d4>
     d40:	49053b0b 	stmdbmi	r5, {r0, r1, r3, r8, r9, fp, ip, sp}
     d44:	3c193f13 	ldccc	15, cr3, [r9], {19}
     d48:	1f000019 	svcne	0x00000019
     d4c:	0e030034 	mcreq	0, 0, r0, cr3, cr4, {1}
     d50:	0b3b0b3a 	bleq	ec3a40 <__bss_end__+0xeb99d0>
     d54:	193f1349 	ldmdbne	pc!, {r0, r3, r6, r8, r9, ip}	; <UNPREDICTABLE>
     d58:	0000193c 	andeq	r1, r0, ip, lsr r9
     d5c:	47003420 	strmi	r3, [r0, -r0, lsr #8]
     d60:	3b0b3a13 	blcc	2cf5b4 <__bss_end__+0x2c5544>
     d64:	0018020b 	andseq	r0, r8, fp, lsl #4
     d68:	012e2100 			; <UNDEFINED> instruction: 0x012e2100
     d6c:	0e03193f 			; <UNDEFINED> instruction: 0x0e03193f
     d70:	0b3b0b3a 	bleq	ec3a60 <__bss_end__+0xeb99f0>
     d74:	13491927 	movtne	r1, #39207	; 0x9927
     d78:	06120111 			; <UNDEFINED> instruction: 0x06120111
     d7c:	42961840 	addsmi	r1, r6, #64, 16	; 0x400000
     d80:	22000019 	andcs	r0, r0, #25
     d84:	08030005 	stmdaeq	r3, {r0, r2}
     d88:	0b3b0b3a 	bleq	ec3a78 <__bss_end__+0xeb9a08>
     d8c:	17021349 	strne	r1, [r2, -r9, asr #6]
     d90:	01000000 	mrseq	r0, (UNDEF: 0)
     d94:	0e250111 	mcreq	1, 1, r0, cr5, cr1, {0}
     d98:	0e030b13 	vmoveq.32	d3[0], r0
     d9c:	01110e1b 	tsteq	r1, fp, lsl lr
     da0:	17100612 			; <UNDEFINED> instruction: 0x17100612
     da4:	24020000 	strcs	r0, [r2], #-0
     da8:	3e0b0b00 	vmlacc.f64	d0, d11, d0
     dac:	0008030b 	andeq	r0, r8, fp, lsl #6
     db0:	00240300 	eoreq	r0, r4, r0, lsl #6
     db4:	0b3e0b0b 	bleq	f839e8 <__bss_end__+0xf79978>
     db8:	00000e03 	andeq	r0, r0, r3, lsl #28
     dbc:	03001604 	movweq	r1, #1540	; 0x604
     dc0:	3b0b3a0e 	blcc	2cf600 <__bss_end__+0x2c5590>
     dc4:	0013490b 	andseq	r4, r3, fp, lsl #18
     dc8:	00160500 	andseq	r0, r6, r0, lsl #10
     dcc:	0b3a0e03 	bleq	e845e0 <__bss_end__+0xe7a570>
     dd0:	1349053b 	movtne	r0, #38203	; 0x953b
     dd4:	17060000 	strne	r0, [r6, -r0]
     dd8:	3a0b0b01 	bcc	2c39e4 <__bss_end__+0x2b9974>
     ddc:	010b3b0b 	tsteq	fp, fp, lsl #22
     de0:	07000013 	smladeq	r0, r3, r0, r0
     de4:	0e03000d 	cdpeq	0, 0, cr0, cr3, cr13, {0}
     de8:	0b3b0b3a 	bleq	ec3ad8 <__bss_end__+0xeb9a68>
     dec:	00001349 	andeq	r1, r0, r9, asr #6
     df0:	49010108 	stmdbmi	r1, {r3, r8}
     df4:	00130113 	andseq	r0, r3, r3, lsl r1
     df8:	00210900 	eoreq	r0, r1, r0, lsl #18
     dfc:	0b2f1349 	bleq	bc5b28 <__bss_end__+0xbbbab8>
     e00:	130a0000 	movwne	r0, #40960	; 0xa000
     e04:	3a0b0b01 	bcc	2c3a10 <__bss_end__+0x2b99a0>
     e08:	010b3b0b 	tsteq	fp, fp, lsl #22
     e0c:	0b000013 	bleq	e60 <_start-0x71a0>
     e10:	0e03000d 	cdpeq	0, 0, cr0, cr3, cr13, {0}
     e14:	0b3b0b3a 	bleq	ec3b04 <__bss_end__+0xeb9a94>
     e18:	0b381349 	bleq	e05b44 <__bss_end__+0xdfbad4>
     e1c:	0f0c0000 	svceq	0x000c0000
     e20:	000b0b00 	andeq	r0, fp, r0, lsl #22
     e24:	000f0d00 	andeq	r0, pc, r0, lsl #26
     e28:	13490b0b 	movtne	r0, #39691	; 0x9b0b
     e2c:	260e0000 	strcs	r0, [lr], -r0
     e30:	00134900 	andseq	r4, r3, r0, lsl #18
     e34:	01130f00 	tsteq	r3, r0, lsl #30
     e38:	0b0b0e03 	bleq	2c464c <__bss_end__+0x2ba5dc>
     e3c:	0b3b0b3a 	bleq	ec3b2c <__bss_end__+0xeb9abc>
     e40:	00001301 	andeq	r1, r0, r1, lsl #6
     e44:	03000d10 	movweq	r0, #3344	; 0xd10
     e48:	3b0b3a08 	blcc	2cf670 <__bss_end__+0x2c5600>
     e4c:	3813490b 	ldmdacc	r3, {r0, r1, r3, r8, fp, lr}
     e50:	1100000b 	tstne	r0, fp
     e54:	0e030113 	mcreq	1, 0, r0, cr3, cr3, {0}
     e58:	0b3a050b 	bleq	e8228c <__bss_end__+0xe7821c>
     e5c:	13010b3b 	movwne	r0, #6971	; 0x1b3b
     e60:	0d120000 	ldceq	0, cr0, [r2, #-0]
     e64:	3a0e0300 	bcc	381a6c <__bss_end__+0x3779fc>
     e68:	490b3b0b 	stmdbmi	fp, {r0, r1, r3, r8, r9, fp, ip, sp}
     e6c:	00053813 	andeq	r3, r5, r3, lsl r8
     e70:	00151300 	andseq	r1, r5, r0, lsl #6
     e74:	00001927 	andeq	r1, r0, r7, lsr #18
     e78:	27011514 	smladcs	r1, r4, r5, r1
     e7c:	01134919 	tsteq	r3, r9, lsl r9
     e80:	15000013 	strne	r0, [r0, #-19]	; 0xffffffed
     e84:	13490005 	movtne	r0, #36869	; 0x9005
     e88:	13160000 	tstne	r6, #0
     e8c:	0b0e0301 	bleq	381a98 <__bss_end__+0x377a28>
     e90:	3b0b3a05 	blcc	2cf6ac <__bss_end__+0x2c563c>
     e94:	00130105 	andseq	r0, r3, r5, lsl #2
     e98:	000d1700 	andeq	r1, sp, r0, lsl #14
     e9c:	0b3a0e03 	bleq	e846b0 <__bss_end__+0xe7a640>
     ea0:	1349053b 	movtne	r0, #38203	; 0x953b
     ea4:	00000b38 	andeq	r0, r0, r8, lsr fp
     ea8:	03000d18 	movweq	r0, #3352	; 0xd18
     eac:	3b0b3a0e 	blcc	2cf6ec <__bss_end__+0x2c567c>
     eb0:	38134905 	ldmdacc	r3, {r0, r2, r8, fp, lr}
     eb4:	19000005 	stmdbne	r0, {r0, r2}
     eb8:	0e030113 	mcreq	1, 0, r0, cr3, cr3, {0}
     ebc:	0b3a0b0b 	bleq	e83af0 <__bss_end__+0xe79a80>
     ec0:	1301053b 	movwne	r0, #5435	; 0x153b
     ec4:	131a0000 	tstne	sl, #0
     ec8:	3a0b0b01 	bcc	2c3ad4 <__bss_end__+0x2b9a64>
     ecc:	01053b0b 	tsteq	r5, fp, lsl #22
     ed0:	1b000013 	blne	f24 <_start-0x70dc>
     ed4:	0b0b0117 	bleq	2c1338 <__bss_end__+0x2b72c8>
     ed8:	053b0b3a 	ldreq	r0, [fp, #-2874]!	; 0xfffff4c6
     edc:	00001301 	andeq	r1, r0, r1, lsl #6
     ee0:	03000d1c 	movweq	r0, #3356	; 0xd1c
     ee4:	3b0b3a0e 	blcc	2cf724 <__bss_end__+0x2c56b4>
     ee8:	00134905 	andseq	r4, r3, r5, lsl #18
     eec:	01151d00 	tsteq	r5, r0, lsl #26
     ef0:	13011927 	movwne	r1, #6439	; 0x1927
     ef4:	341e0000 	ldrcc	r0, [lr], #-0
     ef8:	3a0e0300 	bcc	381b00 <__bss_end__+0x377a90>
     efc:	49053b0b 	stmdbmi	r5, {r0, r1, r3, r8, r9, fp, ip, sp}
     f00:	3c193f13 	ldccc	15, cr3, [r9], {19}
     f04:	1f000019 	svcne	0x00000019
     f08:	0e030034 	mcreq	0, 0, r0, cr3, cr4, {1}
     f0c:	0b3b0b3a 	bleq	ec3bfc <__bss_end__+0xeb9b8c>
     f10:	193f1349 	ldmdbne	pc!, {r0, r3, r6, r8, r9, ip}	; <UNPREDICTABLE>
     f14:	0000193c 	andeq	r1, r0, ip, lsr r9
     f18:	47003420 	strmi	r3, [r0, -r0, lsr #8]
     f1c:	3b0b3a13 	blcc	2cf770 <__bss_end__+0x2c5700>
     f20:	0018020b 	andseq	r0, r8, fp, lsl #4
     f24:	012e2100 			; <UNDEFINED> instruction: 0x012e2100
     f28:	0e03193f 			; <UNDEFINED> instruction: 0x0e03193f
     f2c:	0b3b0b3a 	bleq	ec3c1c <__bss_end__+0xeb9bac>
     f30:	01111927 	tsteq	r1, r7, lsr #18
     f34:	18400612 	stmdane	r0, {r1, r4, r9, sl}^
     f38:	01194297 			; <UNDEFINED> instruction: 0x01194297
     f3c:	22000013 	andcs	r0, r0, #19
     f40:	08030005 	stmdaeq	r3, {r0, r2}
     f44:	0b3b0b3a 	bleq	ec3c34 <__bss_end__+0xeb9bc4>
     f48:	18021349 	stmdane	r2, {r0, r3, r6, r8, r9, ip}
     f4c:	2e230000 	cdpcs	0, 2, cr0, cr3, cr0, {0}
     f50:	03193f00 	tsteq	r9, #0, 30
     f54:	3b0b3a0e 	blcc	2cf794 <__bss_end__+0x2c5724>
     f58:	1119270b 	tstne	r9, fp, lsl #14
     f5c:	40061201 	andmi	r1, r6, r1, lsl #4
     f60:	19429718 	stmdbne	r2, {r3, r4, r8, r9, sl, ip, pc}^
     f64:	2e240000 	cdpcs	0, 2, cr0, cr4, cr0, {0}
     f68:	3a0e0301 	bcc	381b74 <__bss_end__+0x377b04>
     f6c:	270b3b0b 	strcs	r3, [fp, -fp, lsl #22]
     f70:	11134919 	tstne	r3, r9, lsl r9
     f74:	40061201 	andmi	r1, r6, r1, lsl #4
     f78:	19429718 	stmdbne	r2, {r3, r4, r8, r9, sl, ip, pc}^
     f7c:	00001301 	andeq	r1, r0, r1, lsl #6
     f80:	03000525 	movweq	r0, #1317	; 0x525
     f84:	3b0b3a08 	blcc	2cf7ac <__bss_end__+0x2c573c>
     f88:	0213490b 	andseq	r4, r3, #180224	; 0x2c000
     f8c:	26000017 			; <UNDEFINED> instruction: 0x26000017
     f90:	01018289 	smlabbeq	r1, r9, r2, r8
     f94:	13310111 	teqne	r1, #1073741828	; 0x40000004
     f98:	8a270000 	bhi	9c0fa0 <__bss_end__+0x9b6f30>
     f9c:	02000182 	andeq	r0, r0, #-2147483616	; 0x80000020
     fa0:	18429118 	stmdane	r2, {r3, r4, r8, ip, pc}^
     fa4:	2e280000 	cdpcs	0, 2, cr0, cr8, cr0, {0}
     fa8:	3c193f00 	ldccc	15, cr3, [r9], {-0}
     fac:	030e6e19 	movweq	r6, #60953	; 0xee19
     fb0:	3b0b3a0e 	blcc	2cf7f0 <__bss_end__+0x2c5780>
     fb4:	0000000b 	andeq	r0, r0, fp
     fb8:	25011101 	strcs	r1, [r1, #-257]	; 0xfffffeff
     fbc:	030b130e 	movweq	r1, #45838	; 0xb30e
     fc0:	110e1b0e 	tstne	lr, lr, lsl #22
     fc4:	10061201 	andne	r1, r6, r1, lsl #4
     fc8:	02000017 	andeq	r0, r0, #23
     fcc:	0b0b0024 	bleq	2c1064 <__bss_end__+0x2b6ff4>
     fd0:	08030b3e 	stmdaeq	r3, {r1, r2, r3, r4, r5, r8, r9, fp}
     fd4:	16030000 	strne	r0, [r3], -r0
     fd8:	3a0e0300 	bcc	381be0 <__bss_end__+0x377b70>
     fdc:	490b3b0b 	stmdbmi	fp, {r0, r1, r3, r8, r9, fp, ip, sp}
     fe0:	04000013 	streq	r0, [r0], #-19	; 0xffffffed
     fe4:	0b0b0024 	bleq	2c107c <__bss_end__+0x2b700c>
     fe8:	0e030b3e 	vmoveq.16	d3[0], r0
     fec:	16050000 	strne	r0, [r5], -r0
     ff0:	3a0e0300 	bcc	381bf8 <__bss_end__+0x377b88>
     ff4:	49053b0b 	stmdbmi	r5, {r0, r1, r3, r8, r9, fp, ip, sp}
     ff8:	06000013 			; <UNDEFINED> instruction: 0x06000013
     ffc:	0b0b0117 	bleq	2c1460 <__bss_end__+0x2b73f0>
    1000:	0b3b0b3a 	bleq	ec3cf0 <__bss_end__+0xeb9c80>
    1004:	00001301 	andeq	r1, r0, r1, lsl #6
    1008:	03000d07 	movweq	r0, #3335	; 0xd07
    100c:	3b0b3a0e 	blcc	2cf84c <__bss_end__+0x2c57dc>
    1010:	0013490b 	andseq	r4, r3, fp, lsl #18
    1014:	01010800 	tsteq	r1, r0, lsl #16
    1018:	13011349 	movwne	r1, #4937	; 0x1349
    101c:	21090000 	mrscs	r0, (UNDEF: 9)
    1020:	2f134900 	svccs	0x00134900
    1024:	0a00000b 	beq	1058 <_start-0x6fa8>
    1028:	0b0b0113 	bleq	2c147c <__bss_end__+0x2b740c>
    102c:	0b3b0b3a 	bleq	ec3d1c <__bss_end__+0xeb9cac>
    1030:	00001301 	andeq	r1, r0, r1, lsl #6
    1034:	03000d0b 	movweq	r0, #3339	; 0xd0b
    1038:	3b0b3a0e 	blcc	2cf878 <__bss_end__+0x2c5808>
    103c:	3813490b 	ldmdacc	r3, {r0, r1, r3, r8, fp, lr}
    1040:	0c00000b 	stceq	0, cr0, [r0], {11}
    1044:	0b0b000f 	bleq	2c1088 <__bss_end__+0x2b7018>
    1048:	0f0d0000 	svceq	0x000d0000
    104c:	490b0b00 	stmdbmi	fp, {r8, r9, fp}
    1050:	0e000013 	mcreq	0, 0, r0, cr0, cr3, {0}
    1054:	13490026 	movtne	r0, #36902	; 0x9026
    1058:	130f0000 	movwne	r0, #61440	; 0xf000
    105c:	0b0e0301 	bleq	381c68 <__bss_end__+0x377bf8>
    1060:	3b0b3a0b 	blcc	2cf894 <__bss_end__+0x2c5824>
    1064:	0013010b 	andseq	r0, r3, fp, lsl #2
    1068:	000d1000 	andeq	r1, sp, r0
    106c:	0b3a0803 	bleq	e83080 <__bss_end__+0xe79010>
    1070:	13490b3b 	movtne	r0, #39739	; 0x9b3b
    1074:	00000b38 	andeq	r0, r0, r8, lsr fp
    1078:	03011311 	movweq	r1, #4881	; 0x1311
    107c:	3a050b0e 	bcc	143cbc <__bss_end__+0x139c4c>
    1080:	010b3b0b 	tsteq	fp, fp, lsl #22
    1084:	12000013 	andne	r0, r0, #19
    1088:	0e03000d 	cdpeq	0, 0, cr0, cr3, cr13, {0}
    108c:	0b3b0b3a 	bleq	ec3d7c <__bss_end__+0xeb9d0c>
    1090:	05381349 	ldreq	r1, [r8, #-841]!	; 0xfffffcb7
    1094:	15130000 	ldrne	r0, [r3, #-0]
    1098:	00192700 	andseq	r2, r9, r0, lsl #14
    109c:	01151400 	tsteq	r5, r0, lsl #8
    10a0:	13491927 	movtne	r1, #39207	; 0x9927
    10a4:	00001301 	andeq	r1, r0, r1, lsl #6
    10a8:	49000515 	stmdbmi	r0, {r0, r2, r4, r8, sl}
    10ac:	16000013 			; <UNDEFINED> instruction: 0x16000013
    10b0:	0e030113 	mcreq	1, 0, r0, cr3, cr3, {0}
    10b4:	0b3a050b 	bleq	e824e8 <__bss_end__+0xe78478>
    10b8:	1301053b 	movwne	r0, #5435	; 0x153b
    10bc:	0d170000 	ldceq	0, cr0, [r7, #-0]
    10c0:	3a0e0300 	bcc	381cc8 <__bss_end__+0x377c58>
    10c4:	49053b0b 	stmdbmi	r5, {r0, r1, r3, r8, r9, fp, ip, sp}
    10c8:	000b3813 	andeq	r3, fp, r3, lsl r8
    10cc:	000d1800 	andeq	r1, sp, r0, lsl #16
    10d0:	0b3a0e03 	bleq	e848e4 <__bss_end__+0xe7a874>
    10d4:	1349053b 	movtne	r0, #38203	; 0x953b
    10d8:	00000538 	andeq	r0, r0, r8, lsr r5
    10dc:	03011319 	movweq	r1, #4889	; 0x1319
    10e0:	3a0b0b0e 	bcc	2c3d20 <__bss_end__+0x2b9cb0>
    10e4:	01053b0b 	tsteq	r5, fp, lsl #22
    10e8:	1a000013 	bne	113c <_start-0x6ec4>
    10ec:	0b0b0113 	bleq	2c1540 <__bss_end__+0x2b74d0>
    10f0:	053b0b3a 	ldreq	r0, [fp, #-2874]!	; 0xfffff4c6
    10f4:	00001301 	andeq	r1, r0, r1, lsl #6
    10f8:	0b01171b 	bleq	46d6c <__bss_end__+0x3ccfc>
    10fc:	3b0b3a0b 	blcc	2cf930 <__bss_end__+0x2c58c0>
    1100:	00130105 	andseq	r0, r3, r5, lsl #2
    1104:	000d1c00 	andeq	r1, sp, r0, lsl #24
    1108:	0b3a0e03 	bleq	e8491c <__bss_end__+0xe7a8ac>
    110c:	1349053b 	movtne	r0, #38203	; 0x953b
    1110:	151d0000 	ldrne	r0, [sp, #-0]
    1114:	01192701 	tsteq	r9, r1, lsl #14
    1118:	1e000013 	mcrne	0, 0, r0, cr0, cr3, {0}
    111c:	0e030034 	mcreq	0, 0, r0, cr3, cr4, {1}
    1120:	053b0b3a 	ldreq	r0, [fp, #-2874]!	; 0xfffff4c6
    1124:	193f1349 	ldmdbne	pc!, {r0, r3, r6, r8, r9, ip}	; <UNPREDICTABLE>
    1128:	0000193c 	andeq	r1, r0, ip, lsr r9
    112c:	3f012e1f 	svccc	0x00012e1f
    1130:	3a0e0319 	bcc	381d9c <__bss_end__+0x377d2c>
    1134:	270b3b0b 	strcs	r3, [fp, -fp, lsl #22]
    1138:	11134919 	tstne	r3, r9, lsl r9
    113c:	40061201 	andmi	r1, r6, r1, lsl #4
    1140:	19429718 	stmdbne	r2, {r3, r4, r8, r9, sl, ip, pc}^
    1144:	05200000 	streq	r0, [r0, #-0]!
    1148:	3a080300 	bcc	201d50 <__bss_end__+0x1f7ce0>
    114c:	490b3b0b 	stmdbmi	fp, {r0, r1, r3, r8, r9, fp, ip, sp}
    1150:	00180213 	andseq	r0, r8, r3, lsl r2
    1154:	00052100 	andeq	r2, r5, r0, lsl #2
    1158:	0b3a0803 	bleq	e8316c <__bss_end__+0xe790fc>
    115c:	13490b3b 	movtne	r0, #39739	; 0x9b3b
    1160:	00001702 	andeq	r1, r0, r2, lsl #14
    1164:	03003422 	movweq	r3, #1058	; 0x422
    1168:	3b0b3a08 	blcc	2cf990 <__bss_end__+0x2c5920>
    116c:	0213490b 	andseq	r4, r3, #180224	; 0x2c000
    1170:	23000017 	movwcs	r0, #23
    1174:	08030034 	stmdaeq	r3, {r2, r4, r5}
    1178:	0b3b0b3a 	bleq	ec3e68 <__bss_end__+0xeb9df8>
    117c:	18021349 	stmdane	r2, {r0, r3, r6, r8, r9, ip}
    1180:	01000000 	mrseq	r0, (UNDEF: 0)
    1184:	0e250111 	mcreq	1, 1, r0, cr5, cr1, {0}
    1188:	0e030b13 	vmoveq.32	d3[0], r0
    118c:	01110e1b 	tsteq	r1, fp, lsl lr
    1190:	17100612 			; <UNDEFINED> instruction: 0x17100612
    1194:	24020000 	strcs	r0, [r2], #-0
    1198:	3e0b0b00 	vmlacc.f64	d0, d11, d0
    119c:	0008030b 	andeq	r0, r8, fp, lsl #6
    11a0:	00240300 	eoreq	r0, r4, r0, lsl #6
    11a4:	0b3e0b0b 	bleq	f83dd8 <__bss_end__+0xf79d68>
    11a8:	00000e03 	andeq	r0, r0, r3, lsl #28
    11ac:	03001604 	movweq	r1, #1540	; 0x604
    11b0:	3b0b3a0e 	blcc	2cf9f0 <__bss_end__+0x2c5980>
    11b4:	0013490b 	andseq	r4, r3, fp, lsl #18
    11b8:	00160500 	andseq	r0, r6, r0, lsl #10
    11bc:	0b3a0e03 	bleq	e849d0 <__bss_end__+0xe7a960>
    11c0:	1349053b 	movtne	r0, #38203	; 0x953b
    11c4:	17060000 	strne	r0, [r6, -r0]
    11c8:	3a0b0b01 	bcc	2c3dd4 <__bss_end__+0x2b9d64>
    11cc:	010b3b0b 	tsteq	fp, fp, lsl #22
    11d0:	07000013 	smladeq	r0, r3, r0, r0
    11d4:	0e03000d 	cdpeq	0, 0, cr0, cr3, cr13, {0}
    11d8:	0b3b0b3a 	bleq	ec3ec8 <__bss_end__+0xeb9e58>
    11dc:	00001349 	andeq	r1, r0, r9, asr #6
    11e0:	49010108 	stmdbmi	r1, {r3, r8}
    11e4:	00130113 	andseq	r0, r3, r3, lsl r1
    11e8:	00210900 	eoreq	r0, r1, r0, lsl #18
    11ec:	0b2f1349 	bleq	bc5f18 <__bss_end__+0xbbbea8>
    11f0:	130a0000 	movwne	r0, #40960	; 0xa000
    11f4:	3a0b0b01 	bcc	2c3e00 <__bss_end__+0x2b9d90>
    11f8:	010b3b0b 	tsteq	fp, fp, lsl #22
    11fc:	0b000013 	bleq	1250 <_start-0x6db0>
    1200:	0e03000d 	cdpeq	0, 0, cr0, cr3, cr13, {0}
    1204:	0b3b0b3a 	bleq	ec3ef4 <__bss_end__+0xeb9e84>
    1208:	0b381349 	bleq	e05f34 <__bss_end__+0xdfbec4>
    120c:	0f0c0000 	svceq	0x000c0000
    1210:	000b0b00 	andeq	r0, fp, r0, lsl #22
    1214:	000f0d00 	andeq	r0, pc, r0, lsl #26
    1218:	13490b0b 	movtne	r0, #39691	; 0x9b0b
    121c:	260e0000 	strcs	r0, [lr], -r0
    1220:	00134900 	andseq	r4, r3, r0, lsl #18
    1224:	01130f00 	tsteq	r3, r0, lsl #30
    1228:	0b0b0e03 	bleq	2c4a3c <__bss_end__+0x2ba9cc>
    122c:	0b3b0b3a 	bleq	ec3f1c <__bss_end__+0xeb9eac>
    1230:	00001301 	andeq	r1, r0, r1, lsl #6
    1234:	03000d10 	movweq	r0, #3344	; 0xd10
    1238:	3b0b3a08 	blcc	2cfa60 <__bss_end__+0x2c59f0>
    123c:	3813490b 	ldmdacc	r3, {r0, r1, r3, r8, fp, lr}
    1240:	1100000b 	tstne	r0, fp
    1244:	0e030113 	mcreq	1, 0, r0, cr3, cr3, {0}
    1248:	0b3a050b 	bleq	e8267c <__bss_end__+0xe7860c>
    124c:	13010b3b 	movwne	r0, #6971	; 0x1b3b
    1250:	0d120000 	ldceq	0, cr0, [r2, #-0]
    1254:	3a0e0300 	bcc	381e5c <__bss_end__+0x377dec>
    1258:	490b3b0b 	stmdbmi	fp, {r0, r1, r3, r8, r9, fp, ip, sp}
    125c:	00053813 	andeq	r3, r5, r3, lsl r8
    1260:	00151300 	andseq	r1, r5, r0, lsl #6
    1264:	00001927 	andeq	r1, r0, r7, lsr #18
    1268:	27011514 	smladcs	r1, r4, r5, r1
    126c:	01134919 	tsteq	r3, r9, lsl r9
    1270:	15000013 	strne	r0, [r0, #-19]	; 0xffffffed
    1274:	13490005 	movtne	r0, #36869	; 0x9005
    1278:	13160000 	tstne	r6, #0
    127c:	0b0e0301 	bleq	381e88 <__bss_end__+0x377e18>
    1280:	3b0b3a05 	blcc	2cfa9c <__bss_end__+0x2c5a2c>
    1284:	00130105 	andseq	r0, r3, r5, lsl #2
    1288:	000d1700 	andeq	r1, sp, r0, lsl #14
    128c:	0b3a0e03 	bleq	e84aa0 <__bss_end__+0xe7aa30>
    1290:	1349053b 	movtne	r0, #38203	; 0x953b
    1294:	00000b38 	andeq	r0, r0, r8, lsr fp
    1298:	03000d18 	movweq	r0, #3352	; 0xd18
    129c:	3b0b3a0e 	blcc	2cfadc <__bss_end__+0x2c5a6c>
    12a0:	38134905 	ldmdacc	r3, {r0, r2, r8, fp, lr}
    12a4:	19000005 	stmdbne	r0, {r0, r2}
    12a8:	0e030113 	mcreq	1, 0, r0, cr3, cr3, {0}
    12ac:	0b3a0b0b 	bleq	e83ee0 <__bss_end__+0xe79e70>
    12b0:	1301053b 	movwne	r0, #5435	; 0x153b
    12b4:	131a0000 	tstne	sl, #0
    12b8:	3a0b0b01 	bcc	2c3ec4 <__bss_end__+0x2b9e54>
    12bc:	01053b0b 	tsteq	r5, fp, lsl #22
    12c0:	1b000013 	blne	1314 <_start-0x6cec>
    12c4:	0b0b0117 	bleq	2c1728 <__bss_end__+0x2b76b8>
    12c8:	053b0b3a 	ldreq	r0, [fp, #-2874]!	; 0xfffff4c6
    12cc:	00001301 	andeq	r1, r0, r1, lsl #6
    12d0:	03000d1c 	movweq	r0, #3356	; 0xd1c
    12d4:	3b0b3a0e 	blcc	2cfb14 <__bss_end__+0x2c5aa4>
    12d8:	00134905 	andseq	r4, r3, r5, lsl #18
    12dc:	01151d00 	tsteq	r5, r0, lsl #26
    12e0:	13011927 	movwne	r1, #6439	; 0x1927
    12e4:	341e0000 	ldrcc	r0, [lr], #-0
    12e8:	3a0e0300 	bcc	381ef0 <__bss_end__+0x377e80>
    12ec:	49053b0b 	stmdbmi	r5, {r0, r1, r3, r8, r9, fp, ip, sp}
    12f0:	3c193f13 	ldccc	15, cr3, [r9], {19}
    12f4:	1f000019 	svcne	0x00000019
    12f8:	0e030034 	mcreq	0, 0, r0, cr3, cr4, {1}
    12fc:	0b3b0b3a 	bleq	ec3fec <__bss_end__+0xeb9f7c>
    1300:	193f1349 	ldmdbne	pc!, {r0, r3, r6, r8, r9, ip}	; <UNPREDICTABLE>
    1304:	0000193c 	andeq	r1, r0, ip, lsr r9
    1308:	3f012e20 	svccc	0x00012e20
    130c:	3a0e0319 	bcc	381f78 <__bss_end__+0x377f08>
    1310:	110b3b0b 	tstne	fp, fp, lsl #22
    1314:	40061201 	andmi	r1, r6, r1, lsl #4
    1318:	19429718 	stmdbne	r2, {r3, r4, r8, r9, sl, ip, pc}^
    131c:	00001301 	andeq	r1, r0, r1, lsl #6
    1320:	3f002e21 	svccc	0x00002e21
    1324:	3a0e0319 	bcc	381f90 <__bss_end__+0x377f20>
    1328:	270b3b0b 	strcs	r3, [fp, -fp, lsl #22]
    132c:	00193c19 	andseq	r3, r9, r9, lsl ip
    1330:	00342200 	eorseq	r2, r4, r0, lsl #4
    1334:	0b3a0803 	bleq	e83348 <__bss_end__+0xe792d8>
    1338:	13490b3b 	movtne	r0, #39739	; 0x9b3b
    133c:	00001702 	andeq	r1, r0, r2, lsl #14
    1340:	03003423 	movweq	r3, #1059	; 0x423
    1344:	3b0b3a0e 	blcc	2cfb84 <__bss_end__+0x2c5b14>
    1348:	0013490b 	andseq	r4, r3, fp, lsl #18
    134c:	82892400 	addhi	r2, r9, #0, 8
    1350:	01110001 	tsteq	r1, r1
    1354:	00001331 	andeq	r1, r0, r1, lsr r3
    1358:	3f002e25 	svccc	0x00002e25
    135c:	6e193c19 	mrcvs	12, 0, r3, cr9, cr9, {0}
    1360:	3a0e030e 	bcc	381fa0 <__bss_end__+0x377f30>
    1364:	000b3b0b 	andeq	r3, fp, fp, lsl #22
    1368:	11010000 	mrsne	r0, (UNDEF: 1)
    136c:	130e2501 	movwne	r2, #58625	; 0xe501
    1370:	1b0e030b 	blne	381fa4 <__bss_end__+0x377f34>
    1374:	1117550e 	tstne	r7, lr, lsl #10
    1378:	00171001 	andseq	r1, r7, r1
    137c:	00240200 	eoreq	r0, r4, r0, lsl #4
    1380:	0b3e0b0b 	bleq	f83fb4 <__bss_end__+0xf79f44>
    1384:	00000803 	andeq	r0, r0, r3, lsl #16
    1388:	49002603 	stmdbmi	r0, {r0, r1, r9, sl, sp}
    138c:	04000013 	streq	r0, [r0], #-19	; 0xffffffed
    1390:	0b0b0024 	bleq	2c1428 <__bss_end__+0x2b73b8>
    1394:	0e030b3e 	vmoveq.16	d3[0], r0
    1398:	16050000 	strne	r0, [r5], -r0
    139c:	3a0e0300 	bcc	381fa4 <__bss_end__+0x377f34>
    13a0:	490b3b0b 	stmdbmi	fp, {r0, r1, r3, r8, r9, fp, ip, sp}
    13a4:	06000013 			; <UNDEFINED> instruction: 0x06000013
    13a8:	0e030016 	mcreq	0, 0, r0, cr3, cr6, {0}
    13ac:	053b0b3a 	ldreq	r0, [fp, #-2874]!	; 0xfffff4c6
    13b0:	00001349 	andeq	r1, r0, r9, asr #6
    13b4:	0b011707 	bleq	46fd8 <__bss_end__+0x3cf68>
    13b8:	3b0b3a0b 	blcc	2cfbec <__bss_end__+0x2c5b7c>
    13bc:	0013010b 	andseq	r0, r3, fp, lsl #2
    13c0:	000d0800 	andeq	r0, sp, r0, lsl #16
    13c4:	0b3a0e03 	bleq	e84bd8 <__bss_end__+0xe7ab68>
    13c8:	13490b3b 	movtne	r0, #39739	; 0x9b3b
    13cc:	01090000 	mrseq	r0, (UNDEF: 9)
    13d0:	01134901 	tsteq	r3, r1, lsl #18
    13d4:	0a000013 	beq	1428 <_start-0x6bd8>
    13d8:	13490021 	movtne	r0, #36897	; 0x9021
    13dc:	00000b2f 	andeq	r0, r0, pc, lsr #22
    13e0:	0b01130b 	bleq	46014 <__bss_end__+0x3bfa4>
    13e4:	3b0b3a0b 	blcc	2cfc18 <__bss_end__+0x2c5ba8>
    13e8:	0013010b 	andseq	r0, r3, fp, lsl #2
    13ec:	000d0c00 	andeq	r0, sp, r0, lsl #24
    13f0:	0b3a0e03 	bleq	e84c04 <__bss_end__+0xe7ab94>
    13f4:	13490b3b 	movtne	r0, #39739	; 0x9b3b
    13f8:	00000b38 	andeq	r0, r0, r8, lsr fp
    13fc:	0b000f0d 	bleq	5038 <_start-0x2fc8>
    1400:	0e00000b 	cdpeq	0, 0, cr0, cr0, cr11, {0}
    1404:	0b0b000f 	bleq	2c1448 <__bss_end__+0x2b73d8>
    1408:	00001349 	andeq	r1, r0, r9, asr #6
    140c:	0301130f 	movweq	r1, #4879	; 0x130f
    1410:	3a0b0b0e 	bcc	2c4050 <__bss_end__+0x2b9fe0>
    1414:	010b3b0b 	tsteq	fp, fp, lsl #22
    1418:	10000013 	andne	r0, r0, r3, lsl r0
    141c:	0803000d 	stmdaeq	r3, {r0, r2, r3}
    1420:	0b3b0b3a 	bleq	ec4110 <__bss_end__+0xeba0a0>
    1424:	0b381349 	bleq	e06150 <__bss_end__+0xdfc0e0>
    1428:	13110000 	tstne	r1, #0
    142c:	0b0e0301 	bleq	382038 <__bss_end__+0x377fc8>
    1430:	3b0b3a05 	blcc	2cfc4c <__bss_end__+0x2c5bdc>
    1434:	0013010b 	andseq	r0, r3, fp, lsl #2
    1438:	000d1200 	andeq	r1, sp, r0, lsl #4
    143c:	0b3a0e03 	bleq	e84c50 <__bss_end__+0xe7abe0>
    1440:	13490b3b 	movtne	r0, #39739	; 0x9b3b
    1444:	00000538 	andeq	r0, r0, r8, lsr r5
    1448:	27001513 	smladcs	r0, r3, r5, r1
    144c:	14000019 	strne	r0, [r0], #-25	; 0xffffffe7
    1450:	19270115 	stmdbne	r7!, {r0, r2, r4, r8}
    1454:	13011349 	movwne	r1, #4937	; 0x1349
    1458:	05150000 	ldreq	r0, [r5, #-0]
    145c:	00134900 	andseq	r4, r3, r0, lsl #18
    1460:	01131600 	tsteq	r3, r0, lsl #12
    1464:	050b0e03 	streq	r0, [fp, #-3587]	; 0xfffff1fd
    1468:	053b0b3a 	ldreq	r0, [fp, #-2874]!	; 0xfffff4c6
    146c:	00001301 	andeq	r1, r0, r1, lsl #6
    1470:	03000d17 	movweq	r0, #3351	; 0xd17
    1474:	3b0b3a0e 	blcc	2cfcb4 <__bss_end__+0x2c5c44>
    1478:	38134905 	ldmdacc	r3, {r0, r2, r8, fp, lr}
    147c:	1800000b 	stmdane	r0, {r0, r1, r3}
    1480:	0e03000d 	cdpeq	0, 0, cr0, cr3, cr13, {0}
    1484:	053b0b3a 	ldreq	r0, [fp, #-2874]!	; 0xfffff4c6
    1488:	05381349 	ldreq	r1, [r8, #-841]!	; 0xfffffcb7
    148c:	13190000 	tstne	r9, #0
    1490:	0b0e0301 	bleq	38209c <__bss_end__+0x37802c>
    1494:	3b0b3a0b 	blcc	2cfcc8 <__bss_end__+0x2c5c58>
    1498:	00130105 	andseq	r0, r3, r5, lsl #2
    149c:	01131a00 	tsteq	r3, r0, lsl #20
    14a0:	0b3a0b0b 	bleq	e840d4 <__bss_end__+0xe7a064>
    14a4:	1301053b 	movwne	r0, #5435	; 0x153b
    14a8:	171b0000 	ldrne	r0, [fp, -r0]
    14ac:	3a0b0b01 	bcc	2c40b8 <__bss_end__+0x2ba048>
    14b0:	01053b0b 	tsteq	r5, fp, lsl #22
    14b4:	1c000013 	stcne	0, cr0, [r0], {19}
    14b8:	0e03000d 	cdpeq	0, 0, cr0, cr3, cr13, {0}
    14bc:	053b0b3a 	ldreq	r0, [fp, #-2874]!	; 0xfffff4c6
    14c0:	00001349 	andeq	r1, r0, r9, asr #6
    14c4:	2701151d 	smladcs	r1, sp, r5, r1
    14c8:	00130119 	andseq	r0, r3, r9, lsl r1
    14cc:	00341e00 	eorseq	r1, r4, r0, lsl #28
    14d0:	0b3a0e03 	bleq	e84ce4 <__bss_end__+0xe7ac74>
    14d4:	1349053b 	movtne	r0, #38203	; 0x953b
    14d8:	193c193f 	ldmdbne	ip!, {r0, r1, r2, r3, r4, r5, r8, fp, ip}
    14dc:	341f0000 	ldrcc	r0, [pc], #-0	; 14e4 <_start-0x6b1c>
    14e0:	3a0e0300 	bcc	3820e8 <__bss_end__+0x378078>
    14e4:	490b3b0b 	stmdbmi	fp, {r0, r1, r3, r8, r9, fp, ip, sp}
    14e8:	3c193f13 	ldccc	15, cr3, [r9], {19}
    14ec:	20000019 	andcs	r0, r0, r9, lsl r0
    14f0:	0e030034 	mcreq	0, 0, r0, cr3, cr4, {1}
    14f4:	0b3b0b3a 	bleq	ec41e4 <__bss_end__+0xeba174>
    14f8:	00001349 	andeq	r1, r0, r9, asr #6
    14fc:	3f012e21 	svccc	0x00012e21
    1500:	3a0e0319 	bcc	38216c <__bss_end__+0x3780fc>
    1504:	270b3b0b 	strcs	r3, [fp, -fp, lsl #22]
    1508:	19018719 	stmdbne	r1, {r0, r3, r4, r8, r9, sl, pc}
    150c:	06120111 			; <UNDEFINED> instruction: 0x06120111
    1510:	42971840 	addsmi	r1, r7, #64, 16	; 0x400000
    1514:	00130119 	andseq	r0, r3, r9, lsl r1
    1518:	00342200 	eorseq	r2, r4, r0, lsl #4
    151c:	0b3a0e03 	bleq	e84d30 <__bss_end__+0xe7acc0>
    1520:	13490b3b 	movtne	r0, #39739	; 0x9b3b
    1524:	00001702 	andeq	r1, r0, r2, lsl #14
    1528:	01828923 	orreq	r8, r2, r3, lsr #18
    152c:	31011100 	mrscc	r1, (UNDEF: 17)
    1530:	24000013 	strcs	r0, [r0], #-19	; 0xffffffed
    1534:	01018289 	smlabbeq	r1, r9, r2, r8
    1538:	13310111 	teqne	r1, #1073741828	; 0x40000004
    153c:	00001301 	andeq	r1, r0, r1, lsl #6
    1540:	01828a25 	orreq	r8, r2, r5, lsr #20
    1544:	91180200 	tstls	r8, r0, lsl #4
    1548:	00001842 	andeq	r1, r0, r2, asr #16
    154c:	3f012e26 	svccc	0x00012e26
    1550:	3a0e0319 	bcc	3821bc <__bss_end__+0x37814c>
    1554:	270b3b0b 	strcs	r3, [fp, -fp, lsl #22]
    1558:	12011119 	andne	r1, r1, #1073741830	; 0x40000006
    155c:	97184006 	ldrls	r4, [r8, -r6]
    1560:	13011942 	movwne	r1, #6466	; 0x1942
    1564:	2e270000 	cdpcs	0, 2, cr0, cr7, cr0, {0}
    1568:	03193f01 	tsteq	r9, #1, 30
    156c:	3b0b3a0e 	blcc	2cfdac <__bss_end__+0x2c5d3c>
    1570:	4919270b 	ldmdbmi	r9, {r0, r1, r3, r8, r9, sl, sp}
    1574:	12011113 	andne	r1, r1, #-1073741820	; 0xc0000004
    1578:	97184006 	ldrls	r4, [r8, -r6]
    157c:	13011942 	movwne	r1, #6466	; 0x1942
    1580:	2e280000 	cdpcs	0, 2, cr0, cr8, cr0, {0}
    1584:	3c193f00 	ldccc	15, cr3, [r9], {-0}
    1588:	030e6e19 	movweq	r6, #60953	; 0xee19
    158c:	3b0b3a0e 	blcc	2cfdcc <__bss_end__+0x2c5d5c>
    1590:	0000000b 	andeq	r0, r0, fp
    1594:	25011101 	strcs	r1, [r1, #-257]	; 0xfffffeff
    1598:	030b130e 	movweq	r1, #45838	; 0xb30e
    159c:	110e1b0e 	tstne	lr, lr, lsl #22
    15a0:	10061201 	andne	r1, r6, r1, lsl #4
    15a4:	02000017 	andeq	r0, r0, #23
    15a8:	0b0b0024 	bleq	2c1640 <__bss_end__+0x2b75d0>
    15ac:	08030b3e 	stmdaeq	r3, {r1, r2, r3, r4, r5, r8, r9, fp}
    15b0:	24030000 	strcs	r0, [r3], #-0
    15b4:	3e0b0b00 	vmlacc.f64	d0, d11, d0
    15b8:	000e030b 	andeq	r0, lr, fp, lsl #6
    15bc:	00160400 	andseq	r0, r6, r0, lsl #8
    15c0:	0b3a0e03 	bleq	e84dd4 <__bss_end__+0xe7ad64>
    15c4:	13490b3b 	movtne	r0, #39739	; 0x9b3b
    15c8:	16050000 	strne	r0, [r5], -r0
    15cc:	3a0e0300 	bcc	3821d4 <__bss_end__+0x378164>
    15d0:	49053b0b 	stmdbmi	r5, {r0, r1, r3, r8, r9, fp, ip, sp}
    15d4:	06000013 			; <UNDEFINED> instruction: 0x06000013
    15d8:	0b0b0117 	bleq	2c1a3c <__bss_end__+0x2b79cc>
    15dc:	0b3b0b3a 	bleq	ec42cc <__bss_end__+0xeba25c>
    15e0:	00001301 	andeq	r1, r0, r1, lsl #6
    15e4:	03000d07 	movweq	r0, #3335	; 0xd07
    15e8:	3b0b3a0e 	blcc	2cfe28 <__bss_end__+0x2c5db8>
    15ec:	0013490b 	andseq	r4, r3, fp, lsl #18
    15f0:	01010800 	tsteq	r1, r0, lsl #16
    15f4:	13011349 	movwne	r1, #4937	; 0x1349
    15f8:	21090000 	mrscs	r0, (UNDEF: 9)
    15fc:	2f134900 	svccs	0x00134900
    1600:	0a00000b 	beq	1634 <_start-0x69cc>
    1604:	0b0b0113 	bleq	2c1a58 <__bss_end__+0x2b79e8>
    1608:	0b3b0b3a 	bleq	ec42f8 <__bss_end__+0xeba288>
    160c:	00001301 	andeq	r1, r0, r1, lsl #6
    1610:	03000d0b 	movweq	r0, #3339	; 0xd0b
    1614:	3b0b3a0e 	blcc	2cfe54 <__bss_end__+0x2c5de4>
    1618:	3813490b 	ldmdacc	r3, {r0, r1, r3, r8, fp, lr}
    161c:	0c00000b 	stceq	0, cr0, [r0], {11}
    1620:	0b0b000f 	bleq	2c1664 <__bss_end__+0x2b75f4>
    1624:	0f0d0000 	svceq	0x000d0000
    1628:	490b0b00 	stmdbmi	fp, {r8, r9, fp}
    162c:	0e000013 	mcreq	0, 0, r0, cr0, cr3, {0}
    1630:	13490026 	movtne	r0, #36902	; 0x9026
    1634:	130f0000 	movwne	r0, #61440	; 0xf000
    1638:	0b0e0301 	bleq	382244 <__bss_end__+0x3781d4>
    163c:	3b0b3a0b 	blcc	2cfe70 <__bss_end__+0x2c5e00>
    1640:	0013010b 	andseq	r0, r3, fp, lsl #2
    1644:	000d1000 	andeq	r1, sp, r0
    1648:	0b3a0803 	bleq	e8365c <__bss_end__+0xe795ec>
    164c:	13490b3b 	movtne	r0, #39739	; 0x9b3b
    1650:	00000b38 	andeq	r0, r0, r8, lsr fp
    1654:	03011311 	movweq	r1, #4881	; 0x1311
    1658:	3a050b0e 	bcc	144298 <__bss_end__+0x13a228>
    165c:	010b3b0b 	tsteq	fp, fp, lsl #22
    1660:	12000013 	andne	r0, r0, #19
    1664:	0e03000d 	cdpeq	0, 0, cr0, cr3, cr13, {0}
    1668:	0b3b0b3a 	bleq	ec4358 <__bss_end__+0xeba2e8>
    166c:	05381349 	ldreq	r1, [r8, #-841]!	; 0xfffffcb7
    1670:	15130000 	ldrne	r0, [r3, #-0]
    1674:	00192700 	andseq	r2, r9, r0, lsl #14
    1678:	01151400 	tsteq	r5, r0, lsl #8
    167c:	13491927 	movtne	r1, #39207	; 0x9927
    1680:	00001301 	andeq	r1, r0, r1, lsl #6
    1684:	49000515 	stmdbmi	r0, {r0, r2, r4, r8, sl}
    1688:	16000013 			; <UNDEFINED> instruction: 0x16000013
    168c:	0e030113 	mcreq	1, 0, r0, cr3, cr3, {0}
    1690:	0b3a050b 	bleq	e82ac4 <__bss_end__+0xe78a54>
    1694:	1301053b 	movwne	r0, #5435	; 0x153b
    1698:	0d170000 	ldceq	0, cr0, [r7, #-0]
    169c:	3a0e0300 	bcc	3822a4 <__bss_end__+0x378234>
    16a0:	49053b0b 	stmdbmi	r5, {r0, r1, r3, r8, r9, fp, ip, sp}
    16a4:	000b3813 	andeq	r3, fp, r3, lsl r8
    16a8:	000d1800 	andeq	r1, sp, r0, lsl #16
    16ac:	0b3a0e03 	bleq	e84ec0 <__bss_end__+0xe7ae50>
    16b0:	1349053b 	movtne	r0, #38203	; 0x953b
    16b4:	00000538 	andeq	r0, r0, r8, lsr r5
    16b8:	03011319 	movweq	r1, #4889	; 0x1319
    16bc:	3a0b0b0e 	bcc	2c42fc <__bss_end__+0x2ba28c>
    16c0:	01053b0b 	tsteq	r5, fp, lsl #22
    16c4:	1a000013 	bne	1718 <_start-0x68e8>
    16c8:	0b0b0113 	bleq	2c1b1c <__bss_end__+0x2b7aac>
    16cc:	053b0b3a 	ldreq	r0, [fp, #-2874]!	; 0xfffff4c6
    16d0:	00001301 	andeq	r1, r0, r1, lsl #6
    16d4:	0b01171b 	bleq	47348 <__bss_end__+0x3d2d8>
    16d8:	3b0b3a0b 	blcc	2cff0c <__bss_end__+0x2c5e9c>
    16dc:	00130105 	andseq	r0, r3, r5, lsl #2
    16e0:	000d1c00 	andeq	r1, sp, r0, lsl #24
    16e4:	0b3a0e03 	bleq	e84ef8 <__bss_end__+0xe7ae88>
    16e8:	1349053b 	movtne	r0, #38203	; 0x953b
    16ec:	151d0000 	ldrne	r0, [sp, #-0]
    16f0:	01192701 	tsteq	r9, r1, lsl #14
    16f4:	1e000013 	mcrne	0, 0, r0, cr0, cr3, {0}
    16f8:	0e030034 	mcreq	0, 0, r0, cr3, cr4, {1}
    16fc:	053b0b3a 	ldreq	r0, [fp, #-2874]!	; 0xfffff4c6
    1700:	193f1349 	ldmdbne	pc!, {r0, r3, r6, r8, r9, ip}	; <UNPREDICTABLE>
    1704:	0000193c 	andeq	r1, r0, ip, lsr r9
    1708:	0300341f 	movweq	r3, #1055	; 0x41f
    170c:	3b0b3a0e 	blcc	2cff4c <__bss_end__+0x2c5edc>
    1710:	3f13490b 	svccc	0x0013490b
    1714:	00193c19 	andseq	r3, r9, r9, lsl ip
    1718:	012e2000 			; <UNDEFINED> instruction: 0x012e2000
    171c:	0e03193f 			; <UNDEFINED> instruction: 0x0e03193f
    1720:	0b3b0b3a 	bleq	ec4410 <__bss_end__+0xeba3a0>
    1724:	01871927 	orreq	r1, r7, r7, lsr #18
    1728:	12011119 	andne	r1, r1, #1073741830	; 0x40000006
    172c:	97184006 	ldrls	r4, [r8, -r6]
    1730:	13011942 	movwne	r1, #6466	; 0x1942
    1734:	89210000 	stmdbhi	r1!, {}	; <UNPREDICTABLE>
    1738:	11010182 	smlabbne	r1, r2, r1, r0
    173c:	00130101 	andseq	r0, r3, r1, lsl #2
    1740:	828a2200 	addhi	r2, sl, #0, 4
    1744:	18020001 	stmdane	r2, {r0}
    1748:	00184291 	mulseq	r8, r1, r2
    174c:	82892300 	addhi	r2, r9, #0, 6
    1750:	01110101 	tsteq	r1, r1, lsl #2
    1754:	13011331 	movwne	r1, #4913	; 0x1331
    1758:	89240000 	stmdbhi	r4!, {}	; <UNPREDICTABLE>
    175c:	11000182 	smlabbne	r0, r2, r1, r0
    1760:	00133101 	andseq	r3, r3, r1, lsl #2
    1764:	002e2500 	eoreq	r2, lr, r0, lsl #10
    1768:	193c193f 	ldmdbne	ip!, {r0, r1, r2, r3, r4, r5, r8, fp, ip}
    176c:	0e030e6e 	cdpeq	14, 0, cr0, cr3, cr14, {3}
    1770:	0b3b0b3a 	bleq	ec4460 <__bss_end__+0xeba3f0>
    1774:	01000000 	mrseq	r0, (UNDEF: 0)
    1778:	0e250111 	mcreq	1, 1, r0, cr5, cr1, {0}
    177c:	0e030b13 	vmoveq.32	d3[0], r0
    1780:	01110e1b 	tsteq	r1, fp, lsl lr
    1784:	17100612 			; <UNDEFINED> instruction: 0x17100612
    1788:	24020000 	strcs	r0, [r2], #-0
    178c:	3e0b0b00 	vmlacc.f64	d0, d11, d0
    1790:	0008030b 	andeq	r0, r8, fp, lsl #6
    1794:	00240300 	eoreq	r0, r4, r0, lsl #6
    1798:	0b3e0b0b 	bleq	f843cc <__bss_end__+0xf7a35c>
    179c:	00000e03 	andeq	r0, r0, r3, lsl #28
    17a0:	03001604 	movweq	r1, #1540	; 0x604
    17a4:	3b0b3a0e 	blcc	2cffe4 <__bss_end__+0x2c5f74>
    17a8:	0013490b 	andseq	r4, r3, fp, lsl #18
    17ac:	00160500 	andseq	r0, r6, r0, lsl #10
    17b0:	0b3a0e03 	bleq	e84fc4 <__bss_end__+0xe7af54>
    17b4:	1349053b 	movtne	r0, #38203	; 0x953b
    17b8:	17060000 	strne	r0, [r6, -r0]
    17bc:	3a0b0b01 	bcc	2c43c8 <__bss_end__+0x2ba358>
    17c0:	010b3b0b 	tsteq	fp, fp, lsl #22
    17c4:	07000013 	smladeq	r0, r3, r0, r0
    17c8:	0e03000d 	cdpeq	0, 0, cr0, cr3, cr13, {0}
    17cc:	0b3b0b3a 	bleq	ec44bc <__bss_end__+0xeba44c>
    17d0:	00001349 	andeq	r1, r0, r9, asr #6
    17d4:	49010108 	stmdbmi	r1, {r3, r8}
    17d8:	00130113 	andseq	r0, r3, r3, lsl r1
    17dc:	00210900 	eoreq	r0, r1, r0, lsl #18
    17e0:	0b2f1349 	bleq	bc650c <__bss_end__+0xbbc49c>
    17e4:	130a0000 	movwne	r0, #40960	; 0xa000
    17e8:	3a0b0b01 	bcc	2c43f4 <__bss_end__+0x2ba384>
    17ec:	010b3b0b 	tsteq	fp, fp, lsl #22
    17f0:	0b000013 	bleq	1844 <_start-0x67bc>
    17f4:	0e03000d 	cdpeq	0, 0, cr0, cr3, cr13, {0}
    17f8:	0b3b0b3a 	bleq	ec44e8 <__bss_end__+0xeba478>
    17fc:	0b381349 	bleq	e06528 <__bss_end__+0xdfc4b8>
    1800:	0f0c0000 	svceq	0x000c0000
    1804:	000b0b00 	andeq	r0, fp, r0, lsl #22
    1808:	000f0d00 	andeq	r0, pc, r0, lsl #26
    180c:	13490b0b 	movtne	r0, #39691	; 0x9b0b
    1810:	260e0000 	strcs	r0, [lr], -r0
    1814:	00134900 	andseq	r4, r3, r0, lsl #18
    1818:	01130f00 	tsteq	r3, r0, lsl #30
    181c:	0b0b0e03 	bleq	2c5030 <__bss_end__+0x2bafc0>
    1820:	0b3b0b3a 	bleq	ec4510 <__bss_end__+0xeba4a0>
    1824:	00001301 	andeq	r1, r0, r1, lsl #6
    1828:	03000d10 	movweq	r0, #3344	; 0xd10
    182c:	3b0b3a08 	blcc	2d0054 <__bss_end__+0x2c5fe4>
    1830:	3813490b 	ldmdacc	r3, {r0, r1, r3, r8, fp, lr}
    1834:	1100000b 	tstne	r0, fp
    1838:	0e030113 	mcreq	1, 0, r0, cr3, cr3, {0}
    183c:	0b3a050b 	bleq	e82c70 <__bss_end__+0xe78c00>
    1840:	13010b3b 	movwne	r0, #6971	; 0x1b3b
    1844:	0d120000 	ldceq	0, cr0, [r2, #-0]
    1848:	3a0e0300 	bcc	382450 <__bss_end__+0x3783e0>
    184c:	490b3b0b 	stmdbmi	fp, {r0, r1, r3, r8, r9, fp, ip, sp}
    1850:	00053813 	andeq	r3, r5, r3, lsl r8
    1854:	00151300 	andseq	r1, r5, r0, lsl #6
    1858:	00001927 	andeq	r1, r0, r7, lsr #18
    185c:	27011514 	smladcs	r1, r4, r5, r1
    1860:	01134919 	tsteq	r3, r9, lsl r9
    1864:	15000013 	strne	r0, [r0, #-19]	; 0xffffffed
    1868:	13490005 	movtne	r0, #36869	; 0x9005
    186c:	13160000 	tstne	r6, #0
    1870:	0b0e0301 	bleq	38247c <__bss_end__+0x37840c>
    1874:	3b0b3a05 	blcc	2d0090 <__bss_end__+0x2c6020>
    1878:	00130105 	andseq	r0, r3, r5, lsl #2
    187c:	000d1700 	andeq	r1, sp, r0, lsl #14
    1880:	0b3a0e03 	bleq	e85094 <__bss_end__+0xe7b024>
    1884:	1349053b 	movtne	r0, #38203	; 0x953b
    1888:	00000b38 	andeq	r0, r0, r8, lsr fp
    188c:	03000d18 	movweq	r0, #3352	; 0xd18
    1890:	3b0b3a0e 	blcc	2d00d0 <__bss_end__+0x2c6060>
    1894:	38134905 	ldmdacc	r3, {r0, r2, r8, fp, lr}
    1898:	19000005 	stmdbne	r0, {r0, r2}
    189c:	0e030113 	mcreq	1, 0, r0, cr3, cr3, {0}
    18a0:	0b3a0b0b 	bleq	e844d4 <__bss_end__+0xe7a464>
    18a4:	1301053b 	movwne	r0, #5435	; 0x153b
    18a8:	131a0000 	tstne	sl, #0
    18ac:	3a0b0b01 	bcc	2c44b8 <__bss_end__+0x2ba448>
    18b0:	01053b0b 	tsteq	r5, fp, lsl #22
    18b4:	1b000013 	blne	1908 <_start-0x66f8>
    18b8:	0b0b0117 	bleq	2c1d1c <__bss_end__+0x2b7cac>
    18bc:	053b0b3a 	ldreq	r0, [fp, #-2874]!	; 0xfffff4c6
    18c0:	00001301 	andeq	r1, r0, r1, lsl #6
    18c4:	03000d1c 	movweq	r0, #3356	; 0xd1c
    18c8:	3b0b3a0e 	blcc	2d0108 <__bss_end__+0x2c6098>
    18cc:	00134905 	andseq	r4, r3, r5, lsl #18
    18d0:	01151d00 	tsteq	r5, r0, lsl #26
    18d4:	13011927 	movwne	r1, #6439	; 0x1927
    18d8:	341e0000 	ldrcc	r0, [lr], #-0
    18dc:	3a0e0300 	bcc	3824e4 <__bss_end__+0x378474>
    18e0:	49053b0b 	stmdbmi	r5, {r0, r1, r3, r8, r9, fp, ip, sp}
    18e4:	3c193f13 	ldccc	15, cr3, [r9], {19}
    18e8:	1f000019 	svcne	0x00000019
    18ec:	0e030034 	mcreq	0, 0, r0, cr3, cr4, {1}
    18f0:	0b3b0b3a 	bleq	ec45e0 <__bss_end__+0xeba570>
    18f4:	193f1349 	ldmdbne	pc!, {r0, r3, r6, r8, r9, ip}	; <UNPREDICTABLE>
    18f8:	0000193c 	andeq	r1, r0, ip, lsr r9
    18fc:	3f012e20 	svccc	0x00012e20
    1900:	3a0e0319 	bcc	38256c <__bss_end__+0x3784fc>
    1904:	270b3b0b 	strcs	r3, [fp, -fp, lsl #22]
    1908:	12011119 	andne	r1, r1, #1073741830	; 0x40000006
    190c:	97184006 	ldrls	r4, [r8, -r6]
    1910:	13011942 	movwne	r1, #6466	; 0x1942
    1914:	05210000 	streq	r0, [r1, #-0]!
    1918:	3a080300 	bcc	202520 <__bss_end__+0x1f84b0>
    191c:	490b3b0b 	stmdbmi	fp, {r0, r1, r3, r8, r9, fp, ip, sp}
    1920:	00170213 	andseq	r0, r7, r3, lsl r2
    1924:	82892200 	addhi	r2, r9, #0, 4
    1928:	01110101 	tsteq	r1, r1, lsl #2
    192c:	00001331 	andeq	r1, r0, r1, lsr r3
    1930:	01828a23 	orreq	r8, r2, r3, lsr #20
    1934:	91180200 	tstls	r8, r0, lsl #4
    1938:	00001842 	andeq	r1, r0, r2, asr #16
    193c:	03003424 	movweq	r3, #1060	; 0x424
    1940:	3b0b3a08 	blcc	2d0168 <__bss_end__+0x2c60f8>
    1944:	0213490b 	andseq	r4, r3, #180224	; 0x2c000
    1948:	25000018 	strcs	r0, [r0, #-24]	; 0xffffffe8
    194c:	0111010b 	tsteq	r1, fp, lsl #2
    1950:	13010612 	movwne	r0, #5650	; 0x1612
    1954:	34260000 	strtcc	r0, [r6], #-0
    1958:	3a080300 	bcc	202560 <__bss_end__+0x1f84f0>
    195c:	490b3b0b 	stmdbmi	fp, {r0, r1, r3, r8, r9, fp, ip, sp}
    1960:	00170213 	andseq	r0, r7, r3, lsl r2
    1964:	82892700 	addhi	r2, r9, #0, 14
    1968:	01110001 	tsteq	r1, r1
    196c:	00001331 	andeq	r1, r0, r1, lsr r3
    1970:	3f012e28 	svccc	0x00012e28
    1974:	3a0e0319 	bcc	3825e0 <__bss_end__+0x378570>
    1978:	270b3b0b 	strcs	r3, [fp, -fp, lsl #22]
    197c:	11134919 	tstne	r3, r9, lsl r9
    1980:	40061201 	andmi	r1, r6, r1, lsl #4
    1984:	19429718 	stmdbne	r2, {r3, r4, r8, r9, sl, ip, pc}^
    1988:	00001301 	andeq	r1, r0, r1, lsl #6
    198c:	03000529 	movweq	r0, #1321	; 0x529
    1990:	3b0b3a0e 	blcc	2d01d0 <__bss_end__+0x2c6160>
    1994:	0213490b 	andseq	r4, r3, #180224	; 0x2c000
    1998:	2a000017 	bcs	19fc <_start-0x6604>
    199c:	193f002e 	ldmdbne	pc!, {r1, r2, r3, r5}	; <UNPREDICTABLE>
    19a0:	0e6e193c 			; <UNDEFINED> instruction: 0x0e6e193c
    19a4:	0b3a0e03 	bleq	e851b8 <__bss_end__+0xe7b148>
    19a8:	00000b3b 	andeq	r0, r0, fp, lsr fp
    19ac:	01110100 	tsteq	r1, r0, lsl #2
    19b0:	0b130e25 	bleq	4c524c <__bss_end__+0x4bb1dc>
    19b4:	0e1b0e03 	cdpeq	14, 1, cr0, cr11, cr3, {0}
    19b8:	06120111 			; <UNDEFINED> instruction: 0x06120111
    19bc:	00001710 	andeq	r1, r0, r0, lsl r7
    19c0:	0b002402 	bleq	a9d0 <__bss_end__+0x960>
    19c4:	030b3e0b 	movweq	r3, #48651	; 0xbe0b
    19c8:	03000008 	movweq	r0, #8
    19cc:	0b0b0024 	bleq	2c1a64 <__bss_end__+0x2b79f4>
    19d0:	0e030b3e 	vmoveq.16	d3[0], r0
    19d4:	35040000 	strcc	r0, [r4, #-0]
    19d8:	00134900 	andseq	r4, r3, r0, lsl #18
    19dc:	00160500 	andseq	r0, r6, r0, lsl #10
    19e0:	0b3a0e03 	bleq	e851f4 <__bss_end__+0xe7b184>
    19e4:	13490b3b 	movtne	r0, #39739	; 0x9b3b
    19e8:	16060000 	strne	r0, [r6], -r0
    19ec:	3a0e0300 	bcc	3825f4 <__bss_end__+0x378584>
    19f0:	49053b0b 	stmdbmi	r5, {r0, r1, r3, r8, r9, fp, ip, sp}
    19f4:	07000013 	smladeq	r0, r3, r0, r0
    19f8:	0b0b0117 	bleq	2c1e5c <__bss_end__+0x2b7dec>
    19fc:	0b3b0b3a 	bleq	ec46ec <__bss_end__+0xeba67c>
    1a00:	00001301 	andeq	r1, r0, r1, lsl #6
    1a04:	03000d08 	movweq	r0, #3336	; 0xd08
    1a08:	3b0b3a0e 	blcc	2d0248 <__bss_end__+0x2c61d8>
    1a0c:	0013490b 	andseq	r4, r3, fp, lsl #18
    1a10:	01010900 	tsteq	r1, r0, lsl #18
    1a14:	13011349 	movwne	r1, #4937	; 0x1349
    1a18:	210a0000 	mrscs	r0, (UNDEF: 10)
    1a1c:	2f134900 	svccs	0x00134900
    1a20:	0b00000b 	bleq	1a54 <_start-0x65ac>
    1a24:	0b0b0113 	bleq	2c1e78 <__bss_end__+0x2b7e08>
    1a28:	0b3b0b3a 	bleq	ec4718 <__bss_end__+0xeba6a8>
    1a2c:	00001301 	andeq	r1, r0, r1, lsl #6
    1a30:	03000d0c 	movweq	r0, #3340	; 0xd0c
    1a34:	3b0b3a0e 	blcc	2d0274 <__bss_end__+0x2c6204>
    1a38:	3813490b 	ldmdacc	r3, {r0, r1, r3, r8, fp, lr}
    1a3c:	0d00000b 	stceq	0, cr0, [r0, #-44]	; 0xffffffd4
    1a40:	0b0b000f 	bleq	2c1a84 <__bss_end__+0x2b7a14>
    1a44:	0f0e0000 	svceq	0x000e0000
    1a48:	490b0b00 	stmdbmi	fp, {r8, r9, fp}
    1a4c:	0f000013 	svceq	0x00000013
    1a50:	13490026 	movtne	r0, #36902	; 0x9026
    1a54:	13100000 	tstne	r0, #0
    1a58:	0b0e0301 	bleq	382664 <__bss_end__+0x3785f4>
    1a5c:	3b0b3a0b 	blcc	2d0290 <__bss_end__+0x2c6220>
    1a60:	0013010b 	andseq	r0, r3, fp, lsl #2
    1a64:	000d1100 	andeq	r1, sp, r0, lsl #2
    1a68:	0b3a0803 	bleq	e83a7c <__bss_end__+0xe79a0c>
    1a6c:	13490b3b 	movtne	r0, #39739	; 0x9b3b
    1a70:	00000b38 	andeq	r0, r0, r8, lsr fp
    1a74:	03011312 	movweq	r1, #4882	; 0x1312
    1a78:	3a050b0e 	bcc	1446b8 <__bss_end__+0x13a648>
    1a7c:	010b3b0b 	tsteq	fp, fp, lsl #22
    1a80:	13000013 	movwne	r0, #19
    1a84:	0e03000d 	cdpeq	0, 0, cr0, cr3, cr13, {0}
    1a88:	0b3b0b3a 	bleq	ec4778 <__bss_end__+0xeba708>
    1a8c:	05381349 	ldreq	r1, [r8, #-841]!	; 0xfffffcb7
    1a90:	15140000 	ldrne	r0, [r4, #-0]
    1a94:	00192700 	andseq	r2, r9, r0, lsl #14
    1a98:	01151500 	tsteq	r5, r0, lsl #10
    1a9c:	13491927 	movtne	r1, #39207	; 0x9927
    1aa0:	00001301 	andeq	r1, r0, r1, lsl #6
    1aa4:	49000516 	stmdbmi	r0, {r1, r2, r4, r8, sl}
    1aa8:	17000013 	smladne	r0, r3, r0, r0
    1aac:	0e030113 	mcreq	1, 0, r0, cr3, cr3, {0}
    1ab0:	0b3a050b 	bleq	e82ee4 <__bss_end__+0xe78e74>
    1ab4:	1301053b 	movwne	r0, #5435	; 0x153b
    1ab8:	0d180000 	ldceq	0, cr0, [r8, #-0]
    1abc:	3a0e0300 	bcc	3826c4 <__bss_end__+0x378654>
    1ac0:	49053b0b 	stmdbmi	r5, {r0, r1, r3, r8, r9, fp, ip, sp}
    1ac4:	000b3813 	andeq	r3, fp, r3, lsl r8
    1ac8:	000d1900 	andeq	r1, sp, r0, lsl #18
    1acc:	0b3a0e03 	bleq	e852e0 <__bss_end__+0xe7b270>
    1ad0:	1349053b 	movtne	r0, #38203	; 0x953b
    1ad4:	00000538 	andeq	r0, r0, r8, lsr r5
    1ad8:	0301131a 	movweq	r1, #4890	; 0x131a
    1adc:	3a0b0b0e 	bcc	2c471c <__bss_end__+0x2ba6ac>
    1ae0:	01053b0b 	tsteq	r5, fp, lsl #22
    1ae4:	1b000013 	blne	1b38 <_start-0x64c8>
    1ae8:	0b0b0113 	bleq	2c1f3c <__bss_end__+0x2b7ecc>
    1aec:	053b0b3a 	ldreq	r0, [fp, #-2874]!	; 0xfffff4c6
    1af0:	00001301 	andeq	r1, r0, r1, lsl #6
    1af4:	0b01171c 	bleq	4776c <__bss_end__+0x3d6fc>
    1af8:	3b0b3a0b 	blcc	2d032c <__bss_end__+0x2c62bc>
    1afc:	00130105 	andseq	r0, r3, r5, lsl #2
    1b00:	000d1d00 	andeq	r1, sp, r0, lsl #26
    1b04:	0b3a0e03 	bleq	e85318 <__bss_end__+0xe7b2a8>
    1b08:	1349053b 	movtne	r0, #38203	; 0x953b
    1b0c:	151e0000 	ldrne	r0, [lr, #-0]
    1b10:	01192701 	tsteq	r9, r1, lsl #14
    1b14:	1f000013 	svcne	0x00000013
    1b18:	0e030034 	mcreq	0, 0, r0, cr3, cr4, {1}
    1b1c:	053b0b3a 	ldreq	r0, [fp, #-2874]!	; 0xfffff4c6
    1b20:	193f1349 	ldmdbne	pc!, {r0, r3, r6, r8, r9, ip}	; <UNPREDICTABLE>
    1b24:	0000193c 	andeq	r1, r0, ip, lsr r9
    1b28:	03003420 	movweq	r3, #1056	; 0x420
    1b2c:	3b0b3a0e 	blcc	2d036c <__bss_end__+0x2c62fc>
    1b30:	3f13490b 	svccc	0x0013490b
    1b34:	00193c19 	andseq	r3, r9, r9, lsl ip
    1b38:	01042100 	mrseq	r2, (UNDEF: 20)
    1b3c:	13490b0b 	movtne	r0, #39691	; 0x9b0b
    1b40:	0b3b0b3a 	bleq	ec4830 <__bss_end__+0xeba7c0>
    1b44:	00001301 	andeq	r1, r0, r1, lsl #6
    1b48:	03002822 	movweq	r2, #2082	; 0x822
    1b4c:	000b1c0e 	andeq	r1, fp, lr, lsl #24
    1b50:	00342300 	eorseq	r2, r4, r0, lsl #6
    1b54:	0b3a0e03 	bleq	e85368 <__bss_end__+0xe7b2f8>
    1b58:	13490b3b 	movtne	r0, #39739	; 0x9b3b
    1b5c:	0000061c 	andeq	r0, r0, ip, lsl r6
    1b60:	3f012e24 	svccc	0x00012e24
    1b64:	3a0e0319 	bcc	3827d0 <__bss_end__+0x378760>
    1b68:	270b3b0b 	strcs	r3, [fp, -fp, lsl #22]
    1b6c:	11134919 	tstne	r3, r9, lsl r9
    1b70:	40061201 	andmi	r1, r6, r1, lsl #4
    1b74:	19429718 	stmdbne	r2, {r3, r4, r8, r9, sl, ip, pc}^
    1b78:	00001301 	andeq	r1, r0, r1, lsl #6
    1b7c:	01828925 	orreq	r8, r2, r5, lsr #18
    1b80:	31011100 	mrscc	r1, (UNDEF: 17)
    1b84:	26000013 			; <UNDEFINED> instruction: 0x26000013
    1b88:	193f012e 	ldmdbne	pc!, {r1, r2, r3, r5, r8}	; <UNPREDICTABLE>
    1b8c:	0b3a0e03 	bleq	e853a0 <__bss_end__+0xe7b330>
    1b90:	19270b3b 	stmdbne	r7!, {r0, r1, r3, r4, r5, r8, r9, fp}
    1b94:	06120111 			; <UNDEFINED> instruction: 0x06120111
    1b98:	42971840 	addsmi	r1, r7, #64, 16	; 0x400000
    1b9c:	00130119 	andseq	r0, r3, r9, lsl r1
    1ba0:	00052700 	andeq	r2, r5, r0, lsl #14
    1ba4:	0b3a0803 	bleq	e83bb8 <__bss_end__+0xe79b48>
    1ba8:	13490b3b 	movtne	r0, #39739	; 0x9b3b
    1bac:	00001702 	andeq	r1, r0, r2, lsl #14
    1bb0:	01828928 	orreq	r8, r2, r8, lsr #18
    1bb4:	31011101 	tstcc	r1, r1, lsl #2
    1bb8:	00130113 	andseq	r0, r3, r3, lsl r1
    1bbc:	828a2900 	addhi	r2, sl, #0, 18
    1bc0:	18020001 	stmdane	r2, {r0}
    1bc4:	00184291 	mulseq	r8, r1, r2
    1bc8:	00342a00 	eorseq	r2, r4, r0, lsl #20
    1bcc:	0b3a0803 	bleq	e83be0 <__bss_end__+0xe79b70>
    1bd0:	13490b3b 	movtne	r0, #39739	; 0x9b3b
    1bd4:	00001802 	andeq	r1, r0, r2, lsl #16
    1bd8:	0182892b 	orreq	r8, r2, fp, lsr #18
    1bdc:	31011101 	tstcc	r1, r1, lsl #2
    1be0:	2c000013 	stccs	0, cr0, [r0], {19}
    1be4:	0e03012e 	adfeqsp	f0, f3, #0.5
    1be8:	0b3b0b3a 	bleq	ec48d8 <__bss_end__+0xeba868>
    1bec:	01111927 	tsteq	r1, r7, lsr #18
    1bf0:	18400612 	stmdane	r0, {r1, r4, r9, sl}^
    1bf4:	01194297 			; <UNDEFINED> instruction: 0x01194297
    1bf8:	2d000013 	stccs	0, cr0, [r0, #-76]	; 0xffffffb4
    1bfc:	0e030005 	cdpeq	0, 0, cr0, cr3, cr5, {0}
    1c00:	0b3b0b3a 	bleq	ec48f0 <__bss_end__+0xeba880>
    1c04:	17021349 	strne	r1, [r2, -r9, asr #6]
    1c08:	352e0000 	strcc	r0, [lr, #-0]!
    1c0c:	2f000000 	svccs	0x00000000
    1c10:	193f002e 	ldmdbne	pc!, {r1, r2, r3, r5}	; <UNPREDICTABLE>
    1c14:	0e6e193c 			; <UNDEFINED> instruction: 0x0e6e193c
    1c18:	0b3a0e03 	bleq	e8542c <__bss_end__+0xe7b3bc>
    1c1c:	00000b3b 	andeq	r0, r0, fp, lsr fp
    1c20:	01110100 	tsteq	r1, r0, lsl #2
    1c24:	0b130e25 	bleq	4c54c0 <__bss_end__+0x4bb450>
    1c28:	0e1b0e03 	cdpeq	14, 1, cr0, cr11, cr3, {0}
    1c2c:	06120111 			; <UNDEFINED> instruction: 0x06120111
    1c30:	00001710 	andeq	r1, r0, r0, lsl r7
    1c34:	0b002402 	bleq	ac44 <__bss_end__+0xbd4>
    1c38:	030b3e0b 	movweq	r3, #48651	; 0xbe0b
    1c3c:	03000008 	movweq	r0, #8
    1c40:	0b0b0024 	bleq	2c1cd8 <__bss_end__+0x2b7c68>
    1c44:	0e030b3e 	vmoveq.16	d3[0], r0
    1c48:	26040000 	strcs	r0, [r4], -r0
    1c4c:	00134900 	andseq	r4, r3, r0, lsl #18
    1c50:	00160500 	andseq	r0, r6, r0, lsl #10
    1c54:	0b3a0e03 	bleq	e85468 <__bss_end__+0xe7b3f8>
    1c58:	13490b3b 	movtne	r0, #39739	; 0x9b3b
    1c5c:	16060000 	strne	r0, [r6], -r0
    1c60:	3a0e0300 	bcc	382868 <__bss_end__+0x3787f8>
    1c64:	49053b0b 	stmdbmi	r5, {r0, r1, r3, r8, r9, fp, ip, sp}
    1c68:	07000013 	smladeq	r0, r3, r0, r0
    1c6c:	0b0b0117 	bleq	2c20d0 <__bss_end__+0x2b8060>
    1c70:	0b3b0b3a 	bleq	ec4960 <__bss_end__+0xeba8f0>
    1c74:	00001301 	andeq	r1, r0, r1, lsl #6
    1c78:	03000d08 	movweq	r0, #3336	; 0xd08
    1c7c:	3b0b3a0e 	blcc	2d04bc <__bss_end__+0x2c644c>
    1c80:	0013490b 	andseq	r4, r3, fp, lsl #18
    1c84:	01010900 	tsteq	r1, r0, lsl #18
    1c88:	13011349 	movwne	r1, #4937	; 0x1349
    1c8c:	210a0000 	mrscs	r0, (UNDEF: 10)
    1c90:	2f134900 	svccs	0x00134900
    1c94:	0b00000b 	bleq	1cc8 <_start-0x6338>
    1c98:	0b0b0113 	bleq	2c20ec <__bss_end__+0x2b807c>
    1c9c:	0b3b0b3a 	bleq	ec498c <__bss_end__+0xeba91c>
    1ca0:	00001301 	andeq	r1, r0, r1, lsl #6
    1ca4:	03000d0c 	movweq	r0, #3340	; 0xd0c
    1ca8:	3b0b3a0e 	blcc	2d04e8 <__bss_end__+0x2c6478>
    1cac:	3813490b 	ldmdacc	r3, {r0, r1, r3, r8, fp, lr}
    1cb0:	0d00000b 	stceq	0, cr0, [r0, #-44]	; 0xffffffd4
    1cb4:	0b0b000f 	bleq	2c1cf8 <__bss_end__+0x2b7c88>
    1cb8:	0f0e0000 	svceq	0x000e0000
    1cbc:	490b0b00 	stmdbmi	fp, {r8, r9, fp}
    1cc0:	0f000013 	svceq	0x00000013
    1cc4:	0e030113 	mcreq	1, 0, r0, cr3, cr3, {0}
    1cc8:	0b3a0b0b 	bleq	e848fc <__bss_end__+0xe7a88c>
    1ccc:	13010b3b 	movwne	r0, #6971	; 0x1b3b
    1cd0:	0d100000 	ldceq	0, cr0, [r0, #-0]
    1cd4:	3a080300 	bcc	2028dc <__bss_end__+0x1f886c>
    1cd8:	490b3b0b 	stmdbmi	fp, {r0, r1, r3, r8, r9, fp, ip, sp}
    1cdc:	000b3813 	andeq	r3, fp, r3, lsl r8
    1ce0:	01131100 	tsteq	r3, r0, lsl #2
    1ce4:	050b0e03 	streq	r0, [fp, #-3587]	; 0xfffff1fd
    1ce8:	0b3b0b3a 	bleq	ec49d8 <__bss_end__+0xeba968>
    1cec:	00001301 	andeq	r1, r0, r1, lsl #6
    1cf0:	03000d12 	movweq	r0, #3346	; 0xd12
    1cf4:	3b0b3a0e 	blcc	2d0534 <__bss_end__+0x2c64c4>
    1cf8:	3813490b 	ldmdacc	r3, {r0, r1, r3, r8, fp, lr}
    1cfc:	13000005 	movwne	r0, #5
    1d00:	19270015 	stmdbne	r7!, {r0, r2, r4}
    1d04:	15140000 	ldrne	r0, [r4, #-0]
    1d08:	49192701 	ldmdbmi	r9, {r0, r8, r9, sl, sp}
    1d0c:	00130113 	andseq	r0, r3, r3, lsl r1
    1d10:	00051500 	andeq	r1, r5, r0, lsl #10
    1d14:	00001349 	andeq	r1, r0, r9, asr #6
    1d18:	03011316 	movweq	r1, #4886	; 0x1316
    1d1c:	3a050b0e 	bcc	14495c <__bss_end__+0x13a8ec>
    1d20:	01053b0b 	tsteq	r5, fp, lsl #22
    1d24:	17000013 	smladne	r0, r3, r0, r0
    1d28:	0e03000d 	cdpeq	0, 0, cr0, cr3, cr13, {0}
    1d2c:	053b0b3a 	ldreq	r0, [fp, #-2874]!	; 0xfffff4c6
    1d30:	0b381349 	bleq	e06a5c <__bss_end__+0xdfc9ec>
    1d34:	0d180000 	ldceq	0, cr0, [r8, #-0]
    1d38:	3a0e0300 	bcc	382940 <__bss_end__+0x3788d0>
    1d3c:	49053b0b 	stmdbmi	r5, {r0, r1, r3, r8, r9, fp, ip, sp}
    1d40:	00053813 	andeq	r3, r5, r3, lsl r8
    1d44:	01131900 	tsteq	r3, r0, lsl #18
    1d48:	0b0b0e03 	bleq	2c555c <__bss_end__+0x2bb4ec>
    1d4c:	053b0b3a 	ldreq	r0, [fp, #-2874]!	; 0xfffff4c6
    1d50:	00001301 	andeq	r1, r0, r1, lsl #6
    1d54:	0b01131a 	bleq	469c4 <__bss_end__+0x3c954>
    1d58:	3b0b3a0b 	blcc	2d058c <__bss_end__+0x2c651c>
    1d5c:	00130105 	andseq	r0, r3, r5, lsl #2
    1d60:	01171b00 	tsteq	r7, r0, lsl #22
    1d64:	0b3a0b0b 	bleq	e84998 <__bss_end__+0xe7a928>
    1d68:	1301053b 	movwne	r0, #5435	; 0x153b
    1d6c:	0d1c0000 	ldceq	0, cr0, [ip, #-0]
    1d70:	3a0e0300 	bcc	382978 <__bss_end__+0x378908>
    1d74:	49053b0b 	stmdbmi	r5, {r0, r1, r3, r8, r9, fp, ip, sp}
    1d78:	1d000013 	stcne	0, cr0, [r0, #-76]	; 0xffffffb4
    1d7c:	19270115 	stmdbne	r7!, {r0, r2, r4, r8}
    1d80:	00001301 	andeq	r1, r0, r1, lsl #6
    1d84:	0300341e 	movweq	r3, #1054	; 0x41e
    1d88:	3b0b3a0e 	blcc	2d05c8 <__bss_end__+0x2c6558>
    1d8c:	3f134905 	svccc	0x00134905
    1d90:	00193c19 	andseq	r3, r9, r9, lsl ip
    1d94:	00341f00 	eorseq	r1, r4, r0, lsl #30
    1d98:	0b3a0e03 	bleq	e855ac <__bss_end__+0xe7b53c>
    1d9c:	13490b3b 	movtne	r0, #39739	; 0x9b3b
    1da0:	193c193f 	ldmdbne	ip!, {r0, r1, r2, r3, r4, r5, r8, fp, ip}
    1da4:	04200000 	strteq	r0, [r0], #-0
    1da8:	490b0b01 	stmdbmi	fp, {r0, r8, r9, fp}
    1dac:	3b0b3a13 	blcc	2d0600 <__bss_end__+0x2c6590>
    1db0:	0013010b 	andseq	r0, r3, fp, lsl #2
    1db4:	00282100 	eoreq	r2, r8, r0, lsl #2
    1db8:	0b1c0e03 	bleq	7055cc <__bss_end__+0x6fb55c>
    1dbc:	34220000 	strtcc	r0, [r2], #-0
    1dc0:	3a0e0300 	bcc	3829c8 <__bss_end__+0x378958>
    1dc4:	490b3b0b 	stmdbmi	fp, {r0, r1, r3, r8, r9, fp, ip, sp}
    1dc8:	00061c13 	andeq	r1, r6, r3, lsl ip
    1dcc:	012e2300 			; <UNDEFINED> instruction: 0x012e2300
    1dd0:	0e03193f 			; <UNDEFINED> instruction: 0x0e03193f
    1dd4:	0b3b0b3a 	bleq	ec4ac4 <__bss_end__+0xebaa54>
    1dd8:	13491927 	movtne	r1, #39207	; 0x9927
    1ddc:	06120111 			; <UNDEFINED> instruction: 0x06120111
    1de0:	42971840 	addsmi	r1, r7, #64, 16	; 0x400000
    1de4:	00130119 	andseq	r0, r3, r9, lsl r1
    1de8:	00052400 	andeq	r2, r5, r0, lsl #8
    1dec:	0b3a0803 	bleq	e83e00 <__bss_end__+0xe79d90>
    1df0:	13490b3b 	movtne	r0, #39739	; 0x9b3b
    1df4:	00001702 	andeq	r1, r0, r2, lsl #14
    1df8:	03003425 	movweq	r3, #1061	; 0x425
    1dfc:	3b0b3a0e 	blcc	2d063c <__bss_end__+0x2c65cc>
    1e00:	0213490b 	andseq	r4, r3, #180224	; 0x2c000
    1e04:	26000017 			; <UNDEFINED> instruction: 0x26000017
    1e08:	08030034 	stmdaeq	r3, {r2, r4, r5}
    1e0c:	0b3b0b3a 	bleq	ec4afc <__bss_end__+0xebaa8c>
    1e10:	17021349 	strne	r1, [r2, -r9, asr #6]
    1e14:	89270000 	stmdbhi	r7!, {}	; <UNPREDICTABLE>
    1e18:	11010182 	smlabbne	r1, r2, r1, r0
    1e1c:	00133101 	andseq	r3, r3, r1, lsl #2
    1e20:	828a2800 	addhi	r2, sl, #0, 16
    1e24:	18020001 	stmdane	r2, {r0}
    1e28:	00184291 	mulseq	r8, r1, r2
    1e2c:	012e2900 			; <UNDEFINED> instruction: 0x012e2900
    1e30:	0e03193f 			; <UNDEFINED> instruction: 0x0e03193f
    1e34:	0b3b0b3a 	bleq	ec4b24 <__bss_end__+0xebaab4>
    1e38:	01111927 	tsteq	r1, r7, lsr #18
    1e3c:	18400612 	stmdane	r0, {r1, r4, r9, sl}^
    1e40:	01194297 			; <UNDEFINED> instruction: 0x01194297
    1e44:	2a000013 	bcs	1e98 <_start-0x6168>
    1e48:	01018289 	smlabbeq	r1, r9, r2, r8
    1e4c:	13310111 	teqne	r1, #1073741828	; 0x40000004
    1e50:	00001301 	andeq	r1, r0, r1, lsl #6
    1e54:	0182892b 	orreq	r8, r2, fp, lsr #18
    1e58:	31011100 	mrscc	r1, (UNDEF: 17)
    1e5c:	2c000013 	stccs	0, cr0, [r0], {19}
    1e60:	0e030005 	cdpeq	0, 0, cr0, cr3, cr5, {0}
    1e64:	0b3b0b3a 	bleq	ec4b54 <__bss_end__+0xebaae4>
    1e68:	17021349 	strne	r1, [r2, -r9, asr #6]
    1e6c:	342d0000 	strtcc	r0, [sp], #-0
    1e70:	3a080300 	bcc	202a78 <__bss_end__+0x1f8a08>
    1e74:	490b3b0b 	stmdbmi	fp, {r0, r1, r3, r8, r9, fp, ip, sp}
    1e78:	00180213 	andseq	r0, r8, r3, lsl r2
    1e7c:	002e2e00 	eoreq	r2, lr, r0, lsl #28
    1e80:	193c193f 	ldmdbne	ip!, {r0, r1, r2, r3, r4, r5, r8, fp, ip}
    1e84:	0e030e6e 	cdpeq	14, 0, cr0, cr3, cr14, {3}
    1e88:	0b3b0b3a 	bleq	ec4b78 <__bss_end__+0xebab08>
    1e8c:	01000000 	mrseq	r0, (UNDEF: 0)
    1e90:	0e250111 	mcreq	1, 1, r0, cr5, cr1, {0}
    1e94:	0e030b13 	vmoveq.32	d3[0], r0
    1e98:	01110e1b 	tsteq	r1, fp, lsl lr
    1e9c:	17100612 			; <UNDEFINED> instruction: 0x17100612
    1ea0:	24020000 	strcs	r0, [r2], #-0
    1ea4:	3e0b0b00 	vmlacc.f64	d0, d11, d0
    1ea8:	0008030b 	andeq	r0, r8, fp, lsl #6
    1eac:	00240300 	eoreq	r0, r4, r0, lsl #6
    1eb0:	0b3e0b0b 	bleq	f84ae4 <__bss_end__+0xf7aa74>
    1eb4:	00000e03 	andeq	r0, r0, r3, lsl #28
    1eb8:	03001604 	movweq	r1, #1540	; 0x604
    1ebc:	3b0b3a0e 	blcc	2d06fc <__bss_end__+0x2c668c>
    1ec0:	0013490b 	andseq	r4, r3, fp, lsl #18
    1ec4:	00160500 	andseq	r0, r6, r0, lsl #10
    1ec8:	0b3a0e03 	bleq	e856dc <__bss_end__+0xe7b66c>
    1ecc:	1349053b 	movtne	r0, #38203	; 0x953b
    1ed0:	17060000 	strne	r0, [r6, -r0]
    1ed4:	3a0b0b01 	bcc	2c4ae0 <__bss_end__+0x2baa70>
    1ed8:	010b3b0b 	tsteq	fp, fp, lsl #22
    1edc:	07000013 	smladeq	r0, r3, r0, r0
    1ee0:	0e03000d 	cdpeq	0, 0, cr0, cr3, cr13, {0}
    1ee4:	0b3b0b3a 	bleq	ec4bd4 <__bss_end__+0xebab64>
    1ee8:	00001349 	andeq	r1, r0, r9, asr #6
    1eec:	49010108 	stmdbmi	r1, {r3, r8}
    1ef0:	00130113 	andseq	r0, r3, r3, lsl r1
    1ef4:	00210900 	eoreq	r0, r1, r0, lsl #18
    1ef8:	0b2f1349 	bleq	bc6c24 <__bss_end__+0xbbcbb4>
    1efc:	130a0000 	movwne	r0, #40960	; 0xa000
    1f00:	3a0b0b01 	bcc	2c4b0c <__bss_end__+0x2baa9c>
    1f04:	010b3b0b 	tsteq	fp, fp, lsl #22
    1f08:	0b000013 	bleq	1f5c <_start-0x60a4>
    1f0c:	0e03000d 	cdpeq	0, 0, cr0, cr3, cr13, {0}
    1f10:	0b3b0b3a 	bleq	ec4c00 <__bss_end__+0xebab90>
    1f14:	0b381349 	bleq	e06c40 <__bss_end__+0xdfcbd0>
    1f18:	0f0c0000 	svceq	0x000c0000
    1f1c:	000b0b00 	andeq	r0, fp, r0, lsl #22
    1f20:	000f0d00 	andeq	r0, pc, r0, lsl #26
    1f24:	13490b0b 	movtne	r0, #39691	; 0x9b0b
    1f28:	260e0000 	strcs	r0, [lr], -r0
    1f2c:	00134900 	andseq	r4, r3, r0, lsl #18
    1f30:	01130f00 	tsteq	r3, r0, lsl #30
    1f34:	0b0b0e03 	bleq	2c5748 <__bss_end__+0x2bb6d8>
    1f38:	0b3b0b3a 	bleq	ec4c28 <__bss_end__+0xebabb8>
    1f3c:	00001301 	andeq	r1, r0, r1, lsl #6
    1f40:	03000d10 	movweq	r0, #3344	; 0xd10
    1f44:	3b0b3a08 	blcc	2d076c <__bss_end__+0x2c66fc>
    1f48:	3813490b 	ldmdacc	r3, {r0, r1, r3, r8, fp, lr}
    1f4c:	1100000b 	tstne	r0, fp
    1f50:	0e030113 	mcreq	1, 0, r0, cr3, cr3, {0}
    1f54:	0b3a050b 	bleq	e83388 <__bss_end__+0xe79318>
    1f58:	13010b3b 	movwne	r0, #6971	; 0x1b3b
    1f5c:	0d120000 	ldceq	0, cr0, [r2, #-0]
    1f60:	3a0e0300 	bcc	382b68 <__bss_end__+0x378af8>
    1f64:	490b3b0b 	stmdbmi	fp, {r0, r1, r3, r8, r9, fp, ip, sp}
    1f68:	00053813 	andeq	r3, r5, r3, lsl r8
    1f6c:	00151300 	andseq	r1, r5, r0, lsl #6
    1f70:	00001927 	andeq	r1, r0, r7, lsr #18
    1f74:	27011514 	smladcs	r1, r4, r5, r1
    1f78:	01134919 	tsteq	r3, r9, lsl r9
    1f7c:	15000013 	strne	r0, [r0, #-19]	; 0xffffffed
    1f80:	13490005 	movtne	r0, #36869	; 0x9005
    1f84:	13160000 	tstne	r6, #0
    1f88:	0b0e0301 	bleq	382b94 <__bss_end__+0x378b24>
    1f8c:	3b0b3a05 	blcc	2d07a8 <__bss_end__+0x2c6738>
    1f90:	00130105 	andseq	r0, r3, r5, lsl #2
    1f94:	000d1700 	andeq	r1, sp, r0, lsl #14
    1f98:	0b3a0e03 	bleq	e857ac <__bss_end__+0xe7b73c>
    1f9c:	1349053b 	movtne	r0, #38203	; 0x953b
    1fa0:	00000b38 	andeq	r0, r0, r8, lsr fp
    1fa4:	03000d18 	movweq	r0, #3352	; 0xd18
    1fa8:	3b0b3a0e 	blcc	2d07e8 <__bss_end__+0x2c6778>
    1fac:	38134905 	ldmdacc	r3, {r0, r2, r8, fp, lr}
    1fb0:	19000005 	stmdbne	r0, {r0, r2}
    1fb4:	0e030113 	mcreq	1, 0, r0, cr3, cr3, {0}
    1fb8:	0b3a0b0b 	bleq	e84bec <__bss_end__+0xe7ab7c>
    1fbc:	1301053b 	movwne	r0, #5435	; 0x153b
    1fc0:	131a0000 	tstne	sl, #0
    1fc4:	3a0b0b01 	bcc	2c4bd0 <__bss_end__+0x2bab60>
    1fc8:	01053b0b 	tsteq	r5, fp, lsl #22
    1fcc:	1b000013 	blne	2020 <_start-0x5fe0>
    1fd0:	0b0b0117 	bleq	2c2434 <__bss_end__+0x2b83c4>
    1fd4:	053b0b3a 	ldreq	r0, [fp, #-2874]!	; 0xfffff4c6
    1fd8:	00001301 	andeq	r1, r0, r1, lsl #6
    1fdc:	03000d1c 	movweq	r0, #3356	; 0xd1c
    1fe0:	3b0b3a0e 	blcc	2d0820 <__bss_end__+0x2c67b0>
    1fe4:	00134905 	andseq	r4, r3, r5, lsl #18
    1fe8:	01151d00 	tsteq	r5, r0, lsl #26
    1fec:	13011927 	movwne	r1, #6439	; 0x1927
    1ff0:	341e0000 	ldrcc	r0, [lr], #-0
    1ff4:	3a0e0300 	bcc	382bfc <__bss_end__+0x378b8c>
    1ff8:	49053b0b 	stmdbmi	r5, {r0, r1, r3, r8, r9, fp, ip, sp}
    1ffc:	3c193f13 	ldccc	15, cr3, [r9], {19}
    2000:	1f000019 	svcne	0x00000019
    2004:	0e030034 	mcreq	0, 0, r0, cr3, cr4, {1}
    2008:	0b3b0b3a 	bleq	ec4cf8 <__bss_end__+0xebac88>
    200c:	193f1349 	ldmdbne	pc!, {r0, r3, r6, r8, r9, ip}	; <UNPREDICTABLE>
    2010:	0000193c 	andeq	r1, r0, ip, lsr r9
    2014:	03003420 	movweq	r3, #1056	; 0x420
    2018:	3b0b3a0e 	blcc	2d0858 <__bss_end__+0x2c67e8>
    201c:	0213490b 	andseq	r4, r3, #180224	; 0x2c000
    2020:	21000018 	tstcs	r0, r8, lsl r0
    2024:	193f012e 	ldmdbne	pc!, {r1, r2, r3, r5, r8}	; <UNPREDICTABLE>
    2028:	0b3a0e03 	bleq	e8583c <__bss_end__+0xe7b7cc>
    202c:	19270b3b 	stmdbne	r7!, {r0, r1, r3, r4, r5, r8, r9, fp}
    2030:	06120111 			; <UNDEFINED> instruction: 0x06120111
    2034:	42971840 	addsmi	r1, r7, #64, 16	; 0x400000
    2038:	00130119 	andseq	r0, r3, r9, lsl r1
    203c:	00052200 	andeq	r2, r5, r0, lsl #4
    2040:	0b3a0803 	bleq	e84054 <__bss_end__+0xe79fe4>
    2044:	13490b3b 	movtne	r0, #39739	; 0x9b3b
    2048:	00001802 	andeq	r1, r0, r2, lsl #16
    204c:	3f002e23 	svccc	0x00002e23
    2050:	3a0e0319 	bcc	382cbc <__bss_end__+0x378c4c>
    2054:	270b3b0b 	strcs	r3, [fp, -fp, lsl #22]
    2058:	12011119 	andne	r1, r1, #1073741830	; 0x40000006
    205c:	97184006 	ldrls	r4, [r8, -r6]
    2060:	00001942 	andeq	r1, r0, r2, asr #18
    2064:	3f012e24 	svccc	0x00012e24
    2068:	3a0e0319 	bcc	382cd4 <__bss_end__+0x378c64>
    206c:	270b3b0b 	strcs	r3, [fp, -fp, lsl #22]
    2070:	11134919 	tstne	r3, r9, lsl r9
    2074:	40061201 	andmi	r1, r6, r1, lsl #4
    2078:	19429718 	stmdbne	r2, {r3, r4, r8, r9, sl, ip, pc}^
    207c:	00001301 	andeq	r1, r0, r1, lsl #6
    2080:	03000525 	movweq	r0, #1317	; 0x525
    2084:	3b0b3a0e 	blcc	2d08c4 <__bss_end__+0x2c6854>
    2088:	0213490b 	andseq	r4, r3, #180224	; 0x2c000
    208c:	26000017 			; <UNDEFINED> instruction: 0x26000017
    2090:	0e030034 	mcreq	0, 0, r0, cr3, cr4, {1}
    2094:	19341349 	ldmdbne	r4!, {r0, r3, r6, r8, r9, ip}
    2098:	00001802 	andeq	r1, r0, r2, lsl #16
    209c:	03003427 	movweq	r3, #1063	; 0x427
    20a0:	3b0b3a08 	blcc	2d08c8 <__bss_end__+0x2c6858>
    20a4:	0213490b 	andseq	r4, r3, #180224	; 0x2c000
    20a8:	28000017 	stmdacs	r0, {r0, r1, r2, r4}
    20ac:	01018289 	smlabbeq	r1, r9, r2, r8
    20b0:	13310111 	teqne	r1, #1073741828	; 0x40000004
    20b4:	00001301 	andeq	r1, r0, r1, lsl #6
    20b8:	01828a29 	orreq	r8, r2, r9, lsr #20
    20bc:	91180200 	tstls	r8, r0, lsl #4
    20c0:	00001842 	andeq	r1, r0, r2, asr #16
    20c4:	0182892a 	orreq	r8, r2, sl, lsr #18
    20c8:	31011100 	mrscc	r1, (UNDEF: 17)
    20cc:	2b000013 	blcs	2120 <_start-0x5ee0>
    20d0:	08030005 	stmdaeq	r3, {r0, r2}
    20d4:	0b3b0b3a 	bleq	ec4dc4 <__bss_end__+0xebad54>
    20d8:	17021349 	strne	r1, [r2, -r9, asr #6]
    20dc:	342c0000 	strtcc	r0, [ip], #-0
    20e0:	3a0e0300 	bcc	382ce8 <__bss_end__+0x378c78>
    20e4:	490b3b0b 	stmdbmi	fp, {r0, r1, r3, r8, r9, fp, ip, sp}
    20e8:	00170213 	andseq	r0, r7, r3, lsl r2
    20ec:	002e2d00 	eoreq	r2, lr, r0, lsl #26
    20f0:	0e03193f 			; <UNDEFINED> instruction: 0x0e03193f
    20f4:	0b3b0b3a 	bleq	ec4de4 <__bss_end__+0xebad74>
    20f8:	13491927 	movtne	r1, #39207	; 0x9927
    20fc:	06120111 			; <UNDEFINED> instruction: 0x06120111
    2100:	42971840 	addsmi	r1, r7, #64, 16	; 0x400000
    2104:	2e000019 	mcrcs	0, 0, r0, cr0, cr9, {0}
    2108:	193f002e 	ldmdbne	pc!, {r1, r2, r3, r5}	; <UNPREDICTABLE>
    210c:	0e6e193c 			; <UNDEFINED> instruction: 0x0e6e193c
    2110:	0b3a0e03 	bleq	e85924 <__bss_end__+0xe7b8b4>
    2114:	00000b3b 	andeq	r0, r0, fp, lsr fp
	...

Disassembly of section .debug_loc:

00000000 <.debug_loc>:
       0:	00000044 	andeq	r0, r0, r4, asr #32
       4:	0000004f 	andeq	r0, r0, pc, asr #32
       8:	4f500001 	svcmi	0x00500001
       c:	fc000000 	stc2	0, cr0, [r0], {-0}
      10:	01000000 	mrseq	r0, (UNDEF: 0)
      14:	00005600 	andeq	r5, r0, r0, lsl #12
      18:	00000000 	andeq	r0, r0, r0
      1c:	07400000 	strbeq	r0, [r0, -r0]
      20:	07680000 	strbeq	r0, [r8, -r0]!
      24:	00010000 	andeq	r0, r1, r0
      28:	00000055 	andeq	r0, r0, r5, asr r0
      2c:	00000000 	andeq	r0, r0, r0
      30:	00074800 	andeq	r4, r7, r0, lsl #16
      34:	00076c00 	andeq	r6, r7, r0, lsl #24
      38:	56000100 	strpl	r0, [r0], -r0, lsl #2
	...
      44:	00000760 	andeq	r0, r0, r0, ror #14
      48:	00000770 	andeq	r0, r0, r0, ror r7
      4c:	9f300002 	svcls	0x00300002
      50:	00000770 	andeq	r0, r0, r0, ror r7
      54:	00000878 	andeq	r0, r0, r8, ror r8
      58:	00560001 	subseq	r0, r6, r1
      5c:	00000000 	andeq	r0, r0, r0
      60:	60000000 	andvs	r0, r0, r0
      64:	70000007 	andvc	r0, r0, r7
      68:	02000007 	andeq	r0, r0, #7
      6c:	709f3000 	addsvc	r3, pc, r0
      70:	78000007 	stmdavc	r0, {r0, r1, r2}
      74:	01000008 	tsteq	r0, r8
      78:	00005500 	andeq	r5, r0, r0, lsl #10
      7c:	00000000 	andeq	r0, r0, r0
      80:	05140000 	ldreq	r0, [r4, #-0]
      84:	05400000 	strbeq	r0, [r0, #-0]
      88:	00010000 	andeq	r0, r1, r0
      8c:	00054050 	andeq	r4, r5, r0, asr r0
      90:	00063800 	andeq	r3, r6, r0, lsl #16
      94:	55000100 	strpl	r0, [r0, #-256]	; 0xffffff00
      98:	00000638 	andeq	r0, r0, r8, lsr r6
      9c:	0000063b 	andeq	r0, r0, fp, lsr r6
      a0:	3b500001 	blcc	14000ac <__bss_end__+0x13f603c>
      a4:	54000006 	strpl	r0, [r0], #-6
      a8:	04000006 	streq	r0, [r0], #-6
      ac:	5001f300 	andpl	pc, r1, r0, lsl #6
      b0:	0006549f 	muleq	r6, pc, r4	; <UNPREDICTABLE>
      b4:	00072c00 	andeq	r2, r7, r0, lsl #24
      b8:	55000100 	strpl	r0, [r0, #-256]	; 0xffffff00
	...
      c4:	00000514 	andeq	r0, r0, r4, lsl r5
      c8:	00000543 	andeq	r0, r0, r3, asr #10
      cc:	43510001 	cmpmi	r1, #1
      d0:	38000005 	stmdacc	r0, {r0, r2}
      d4:	01000006 	tsteq	r0, r6
      d8:	06385900 	ldrteq	r5, [r8], -r0, lsl #18
      dc:	063b0000 	ldrteq	r0, [fp], -r0
      e0:	00010000 	andeq	r0, r1, r0
      e4:	00063b51 	andeq	r3, r6, r1, asr fp
      e8:	00065400 	andeq	r5, r6, r0, lsl #8
      ec:	f3000400 	vshl.u8	d0, d0, d0
      f0:	549f5101 	ldrpl	r5, [pc], #257	; f8 <_start-0x7f08>
      f4:	2c000006 	stccs	0, cr0, [r0], {6}
      f8:	01000007 	tsteq	r0, r7
      fc:	00005900 	andeq	r5, r0, r0, lsl #18
     100:	00000000 	andeq	r0, r0, r0
     104:	05140000 	ldreq	r0, [r4, #-0]
     108:	05430000 	strbeq	r0, [r3, #-0]
     10c:	00010000 	andeq	r0, r1, r0
     110:	00054352 	andeq	r4, r5, r2, asr r3
     114:	00063800 	andeq	r3, r6, r0, lsl #16
     118:	58000100 	stmdapl	r0, {r8}
     11c:	00000638 	andeq	r0, r0, r8, lsr r6
     120:	0000063b 	andeq	r0, r0, fp, lsr r6
     124:	3b520001 	blcc	1480130 <__bss_end__+0x14760c0>
     128:	54000006 	strpl	r0, [r0], #-6
     12c:	04000006 	streq	r0, [r0], #-6
     130:	5201f300 	andpl	pc, r1, #0, 6
     134:	0006549f 	muleq	r6, pc, r4	; <UNPREDICTABLE>
     138:	00072c00 	andeq	r2, r7, r0, lsl #24
     13c:	58000100 	stmdapl	r0, {r8}
	...
     148:	00000514 	andeq	r0, r0, r4, lsl r5
     14c:	00000524 	andeq	r0, r0, r4, lsr #10
     150:	24530001 	ldrbcs	r0, [r3], #-1
     154:	c4000005 	strgt	r0, [r0], #-5
     158:	01000005 	tsteq	r0, r5
     15c:	05c45700 	strbeq	r5, [r4, #1792]	; 0x700
     160:	06380000 	ldrteq	r0, [r8], -r0
     164:	00040000 	andeq	r0, r4, r0
     168:	9f5301f3 	svcls	0x005301f3
     16c:	00000638 	andeq	r0, r0, r8, lsr r6
     170:	000006dc 	ldrdeq	r0, [r0], -ip
     174:	dc570001 	mrrcle	0, 0, r0, r7, cr1
     178:	2c000006 	stccs	0, cr0, [r0], {6}
     17c:	04000007 	streq	r0, [r0], #-7
     180:	5301f300 	movwpl	pc, #4864	; 0x1300	; <UNPREDICTABLE>
     184:	0000009f 	muleq	r0, pc, r0	; <UNPREDICTABLE>
     188:	00000000 	andeq	r0, r0, r0
     18c:	00052000 	andeq	r2, r5, r0
     190:	00057c00 	andeq	r7, r5, r0, lsl #24
     194:	30000200 	andcc	r0, r0, r0, lsl #4
     198:	00057c9f 	muleq	r5, pc, ip	; <UNPREDICTABLE>
     19c:	00061000 	andeq	r1, r6, r0
     1a0:	54000100 	strpl	r0, [r0], #-256	; 0xffffff00
     1a4:	00000638 	andeq	r0, r0, r8, lsr r6
     1a8:	000006dc 	ldrdeq	r0, [r0], -ip
     1ac:	9f300002 	svcls	0x00300002
     1b0:	000006dc 	ldrdeq	r0, [r0], -ip
     1b4:	0000072c 	andeq	r0, r0, ip, lsr #14
     1b8:	00540001 	subseq	r0, r4, r1
     1bc:	00000000 	andeq	r0, r0, r0
     1c0:	20000000 	andcs	r0, r0, r0
     1c4:	10000005 	andne	r0, r0, r5
     1c8:	02000006 	andeq	r0, r0, #6
     1cc:	109f3000 	addsne	r3, pc, r0
     1d0:	14000006 	strne	r0, [r0], #-6
     1d4:	01000006 	tsteq	r0, r6
     1d8:	06145000 	ldreq	r5, [r4], -r0
     1dc:	06380000 	ldrteq	r0, [r8], -r0
     1e0:	00010000 	andeq	r0, r1, r0
     1e4:	00063854 	andeq	r3, r6, r4, asr r8
     1e8:	00072c00 	andeq	r2, r7, r0, lsl #24
     1ec:	30000200 	andcc	r0, r0, r0, lsl #4
     1f0:	0000009f 	muleq	r0, pc, r0	; <UNPREDICTABLE>
     1f4:	00000000 	andeq	r0, r0, r0
     1f8:	00055800 	andeq	r5, r5, r0, lsl #16
     1fc:	00058800 	andeq	r8, r5, r0, lsl #16
     200:	53000100 	movwpl	r0, #256	; 0x100
     204:	00000588 	andeq	r0, r0, r8, lsl #11
     208:	000005af 	andeq	r0, r0, pc, lsr #11
     20c:	04740002 	ldrbteq	r0, [r4], #-2
     210:	000005af 	andeq	r0, r0, pc, lsr #11
     214:	00000638 	andeq	r0, r0, r8, lsr r6
     218:	c8760004 	ldmdagt	r6!, {r2}^
     21c:	06549f7d 	usub16eq	r9, r4, sp
     220:	065b0000 	ldrbeq	r0, [fp], -r0
     224:	00010000 	andeq	r0, r1, r0
     228:	00065b53 	andeq	r5, r6, r3, asr fp
     22c:	00068800 	andeq	r8, r6, r0, lsl #16
     230:	76000400 	strvc	r0, [r0], -r0, lsl #8
     234:	889f7dc8 	ldmhi	pc, {r3, r6, r7, r8, sl, fp, ip, sp, lr}	; <UNPREDICTABLE>
     238:	8f000006 	svchi	0x00000006
     23c:	01000006 	tsteq	r0, r6
     240:	068f5300 	streq	r5, [pc], r0, lsl #6
     244:	072c0000 	streq	r0, [ip, -r0]!
     248:	00040000 	andeq	r0, r4, r0
     24c:	9f7dc876 	svcls	0x007dc876
	...
     258:	0000055c 	andeq	r0, r0, ip, asr r5
     25c:	00000638 	andeq	r0, r0, r8, lsr r6
     260:	54560001 	ldrbpl	r0, [r6], #-1
     264:	2c000006 	stccs	0, cr0, [r0], {6}
     268:	01000007 	tsteq	r0, r7
     26c:	00005600 	andeq	r5, r0, r0, lsl #12
     270:	00000000 	andeq	r0, r0, r0
     274:	045c0000 	ldrbeq	r0, [ip], #-0
     278:	04730000 	ldrbteq	r0, [r3], #-0
     27c:	00010000 	andeq	r0, r1, r0
     280:	00047350 	andeq	r7, r4, r0, asr r3
     284:	00051400 	andeq	r1, r5, r0, lsl #8
     288:	55000100 	strpl	r0, [r0, #-256]	; 0xffffff00
	...
     294:	0000045c 	andeq	r0, r0, ip, asr r4
     298:	00000473 	andeq	r0, r0, r3, ror r4
     29c:	73510001 	cmpvc	r1, #1
     2a0:	14000004 	strne	r0, [r0], #-4
     2a4:	01000005 	tsteq	r0, r5
     2a8:	00005800 	andeq	r5, r0, r0, lsl #16
     2ac:	00000000 	andeq	r0, r0, r0
     2b0:	045c0000 	ldrbeq	r0, [ip], #-0
     2b4:	04730000 	ldrbteq	r0, [r3], #-0
     2b8:	00010000 	andeq	r0, r1, r0
     2bc:	00047352 	andeq	r7, r4, r2, asr r3
     2c0:	00051400 	andeq	r1, r5, r0, lsl #8
     2c4:	57000100 	strpl	r0, [r0, -r0, lsl #2]
	...
     2d0:	0000045c 	andeq	r0, r0, ip, asr r4
     2d4:	00000473 	andeq	r0, r0, r3, ror r4
     2d8:	73530001 	cmpvc	r3, #1
     2dc:	14000004 	strne	r0, [r0], #-4
     2e0:	01000005 	tsteq	r0, r5
     2e4:	00005600 	andeq	r5, r0, r0, lsl #12
     2e8:	00000000 	andeq	r0, r0, r0
     2ec:	04740000 	ldrbteq	r0, [r4], #-0
     2f0:	048c0000 	streq	r0, [ip], #0
     2f4:	00010000 	andeq	r0, r1, r0
     2f8:	00048c50 	andeq	r8, r4, r0, asr ip
     2fc:	0004e000 	andeq	lr, r4, r0
     300:	54000100 	strpl	r0, [r0], #-256	; 0xffffff00
     304:	000004e0 	andeq	r0, r0, r0, ror #9
     308:	000004e3 	andeq	r0, r0, r3, ror #9
     30c:	00500001 	subseq	r0, r0, r1
     310:	00000000 	andeq	r0, r0, r0
     314:	84000000 	strhi	r0, [r0], #-0
     318:	8f000003 	svchi	0x00000003
     31c:	01000003 	tsteq	r0, r3
     320:	038f5000 	orreq	r5, pc, #0
     324:	03e80000 	mvneq	r0, #0
     328:	00010000 	andeq	r0, r1, r0
     32c:	00000054 	andeq	r0, r0, r4, asr r0
     330:	00000000 	andeq	r0, r0, r0
     334:	00015000 	andeq	r5, r1, r0
     338:	00015f00 	andeq	r5, r1, r0, lsl #30
     33c:	50000100 	andpl	r0, r0, r0, lsl #2
     340:	0000015f 	andeq	r0, r0, pc, asr r1
     344:	00000164 	andeq	r0, r0, r4, ror #2
     348:	01f30004 	mvnseq	r0, r4
     34c:	00009f50 	andeq	r9, r0, r0, asr pc
     350:	00000000 	andeq	r0, r0, r0
     354:	01500000 	cmpeq	r0, r0
     358:	015c0000 	cmpeq	ip, r0
     35c:	00010000 	andeq	r0, r1, r0
     360:	00015c51 	andeq	r5, r1, r1, asr ip
     364:	00015f00 	andeq	r5, r1, r0, lsl #30
     368:	52000100 	andpl	r0, r0, #0, 2
     36c:	0000015f 	andeq	r0, r0, pc, asr r1
     370:	00000164 	andeq	r0, r0, r4, ror #2
     374:	01f30004 	mvnseq	r0, r4
     378:	00009f51 	andeq	r9, r0, r1, asr pc
     37c:	00000000 	andeq	r0, r0, r0
     380:	00440000 	subeq	r0, r4, r0
     384:	00700000 	rsbseq	r0, r0, r0
     388:	00010000 	andeq	r0, r1, r0
     38c:	00007050 	andeq	r7, r0, r0, asr r0
     390:	00012c00 	andeq	r2, r1, r0, lsl #24
     394:	55000100 	strpl	r0, [r0, #-256]	; 0xffffff00
     398:	0000012c 	andeq	r0, r0, ip, lsr #2
     39c:	00000130 	andeq	r0, r0, r0, lsr r1
     3a0:	30500001 	subscc	r0, r0, r1
     3a4:	50000001 	andpl	r0, r0, r1
     3a8:	04000001 	streq	r0, [r0], #-1
     3ac:	5001f300 	andpl	pc, r1, r0, lsl #6
     3b0:	0000009f 	muleq	r0, pc, r0	; <UNPREDICTABLE>
     3b4:	00000000 	andeq	r0, r0, r0
     3b8:	00004400 	andeq	r4, r0, r0, lsl #8
     3bc:	00007300 	andeq	r7, r0, r0, lsl #6
     3c0:	51000100 	mrspl	r0, (UNDEF: 16)
     3c4:	00000073 	andeq	r0, r0, r3, ror r0
     3c8:	0000012c 	andeq	r0, r0, ip, lsr #2
     3cc:	01f30004 	mvnseq	r0, r4
     3d0:	012c9f51 			; <UNDEFINED> instruction: 0x012c9f51
     3d4:	01500000 	cmpeq	r0, r0
     3d8:	00010000 	andeq	r0, r1, r0
     3dc:	00000051 	andeq	r0, r0, r1, asr r0
     3e0:	00000000 	andeq	r0, r0, r0
     3e4:	00004400 	andeq	r4, r0, r0, lsl #8
     3e8:	00007300 	andeq	r7, r0, r0, lsl #6
     3ec:	52000100 	andpl	r0, r0, #0, 2
     3f0:	00000073 	andeq	r0, r0, r3, ror r0
     3f4:	0000012c 	andeq	r0, r0, ip, lsr #2
     3f8:	2c560001 	mrrccs	0, 0, r0, r6, cr1
     3fc:	50000001 	andpl	r0, r0, r1
     400:	01000001 	tsteq	r0, r1
     404:	00005200 	andeq	r5, r0, r0, lsl #4
     408:	00000000 	andeq	r0, r0, r0
     40c:	00480000 	subeq	r0, r8, r0
     410:	004c0000 	subeq	r0, ip, r0
     414:	00020000 	andeq	r0, r2, r0
     418:	004c9f30 	subeq	r9, ip, r0, lsr pc
     41c:	007c0000 	rsbseq	r0, ip, r0
     420:	00010000 	andeq	r0, r1, r0
     424:	00012c54 	andeq	r2, r1, r4, asr ip
     428:	00015000 	andeq	r5, r1, r0
     42c:	54000100 	strpl	r0, [r0], #-256	; 0xffffff00
	...
     438:	0000007c 	andeq	r0, r0, ip, ror r0
     43c:	0000012c 	andeq	r0, r0, ip, lsr #2
     440:	00540001 	subseq	r0, r4, r1
     444:	00000000 	andeq	r0, r0, r0
     448:	a0000000 	andge	r0, r0, r0
     44c:	e8000000 	stmda	r0, {}	; <UNPREDICTABLE>
     450:	01000000 	mrseq	r0, (UNDEF: 0)
     454:	01005600 	tsteq	r0, r0, lsl #12
     458:	012c0000 			; <UNDEFINED> instruction: 0x012c0000
     45c:	00010000 	andeq	r0, r1, r0
     460:	00000056 	andeq	r0, r0, r6, asr r0
     464:	00000000 	andeq	r0, r0, r0
     468:	0000b400 	andeq	fp, r0, r0, lsl #8
     46c:	0000dc00 	andeq	sp, r0, r0, lsl #24
     470:	76000300 	strvc	r0, [r0], -r0, lsl #6
     474:	00dc9f10 	sbcseq	r9, ip, r0, lsl pc
     478:	012c0000 			; <UNDEFINED> instruction: 0x012c0000
     47c:	00030000 	andeq	r0, r3, r0
     480:	009f1c76 	addseq	r1, pc, r6, ror ip	; <UNPREDICTABLE>
     484:	00000000 	andeq	r0, r0, r0
     488:	7c000000 	stcvc	0, cr0, [r0], {-0}
     48c:	a8000002 	stmdage	r0, {r1}
     490:	01000002 	tsteq	r0, r2
     494:	02a85000 	adceq	r5, r8, #0
     498:	035c0000 	cmpeq	ip, #0
     49c:	00010000 	andeq	r0, r1, r0
     4a0:	00035c55 	andeq	r5, r3, r5, asr ip
     4a4:	00036000 	andeq	r6, r3, r0
     4a8:	50000100 	andpl	r0, r0, r0, lsl #2
     4ac:	00000360 	andeq	r0, r0, r0, ror #6
     4b0:	00000364 	andeq	r0, r0, r4, ror #6
     4b4:	01f30004 	mvnseq	r0, r4
     4b8:	03649f50 	cmneq	r4, #80, 30	; 0x140
     4bc:	03840000 	orreq	r0, r4, #0
     4c0:	00010000 	andeq	r0, r1, r0
     4c4:	00000055 	andeq	r0, r0, r5, asr r0
     4c8:	00000000 	andeq	r0, r0, r0
     4cc:	00027c00 	andeq	r7, r2, r0, lsl #24
     4d0:	0002ab00 	andeq	sl, r2, r0, lsl #22
     4d4:	51000100 	mrspl	r0, (UNDEF: 16)
     4d8:	000002ab 	andeq	r0, r0, fp, lsr #5
     4dc:	0000035c 	andeq	r0, r0, ip, asr r3
     4e0:	01f30004 	mvnseq	r0, r4
     4e4:	035c9f51 	cmpeq	ip, #324	; 0x144
     4e8:	03640000 	cmneq	r4, #0
     4ec:	00010000 	andeq	r0, r1, r0
     4f0:	00036451 	andeq	r6, r3, r1, asr r4
     4f4:	00038400 	andeq	r8, r3, r0, lsl #8
     4f8:	f3000400 	vshl.u8	d0, d0, d0
     4fc:	009f5101 	addseq	r5, pc, r1, lsl #2
     500:	00000000 	andeq	r0, r0, r0
     504:	7c000000 	stcvc	0, cr0, [r0], {-0}
     508:	ab000002 	blge	518 <_start-0x7ae8>
     50c:	01000002 	tsteq	r0, r2
     510:	02ab5200 	adceq	r5, fp, #0, 4
     514:	035c0000 	cmpeq	ip, #0
     518:	00010000 	andeq	r0, r1, r0
     51c:	00035c56 	andeq	r5, r3, r6, asr ip
     520:	00036400 	andeq	r6, r3, r0, lsl #8
     524:	52000100 	andpl	r0, r0, #0, 2
     528:	00000364 	andeq	r0, r0, r4, ror #6
     52c:	00000384 	andeq	r0, r0, r4, lsl #7
     530:	00560001 	subseq	r0, r6, r1
     534:	00000000 	andeq	r0, r0, r0
     538:	80000000 	andhi	r0, r0, r0
     53c:	84000002 	strhi	r0, [r0], #-2
     540:	02000002 	andeq	r0, r0, #2
     544:	849f3000 	ldrhi	r3, [pc], #0	; 54c <_start-0x7ab4>
     548:	b4000002 	strlt	r0, [r0], #-2
     54c:	01000002 	tsteq	r0, r2
     550:	035c5400 	cmpeq	ip, #0, 8
     554:	03640000 	cmneq	r4, #0
     558:	00010000 	andeq	r0, r1, r0
     55c:	00000054 	andeq	r0, r0, r4, asr r0
     560:	00000000 	andeq	r0, r0, r0
     564:	0002b400 	andeq	fp, r2, r0, lsl #8
     568:	00035c00 	andeq	r5, r3, r0, lsl #24
     56c:	54000100 	strpl	r0, [r0], #-256	; 0xffffff00
     570:	00000364 	andeq	r0, r0, r4, ror #6
     574:	00000384 	andeq	r0, r0, r4, lsl #7
     578:	00540001 	subseq	r0, r4, r1
     57c:	00000000 	andeq	r0, r0, r0
     580:	dc000000 	stcle	0, cr0, [r0], {-0}
     584:	5c000002 	stcpl	0, cr0, [r0], {2}
     588:	01000003 	tsteq	r0, r3
     58c:	03645600 	cmneq	r4, #0, 12
     590:	03840000 	orreq	r0, r4, #0
     594:	00010000 	andeq	r0, r1, r0
     598:	00000056 	andeq	r0, r0, r6, asr r0
     59c:	00000000 	andeq	r0, r0, r0
     5a0:	0002f000 	andeq	pc, r2, r0
     5a4:	00031800 	andeq	r1, r3, r0, lsl #16
     5a8:	76000300 	strvc	r0, [r0], -r0, lsl #6
     5ac:	03189f10 	tsteq	r8, #16, 30	; 0x40
     5b0:	035c0000 	cmpeq	ip, #0
     5b4:	00030000 	andeq	r0, r3, r0
     5b8:	649f1c76 	ldrvs	r1, [pc], #3190	; 5c0 <_start-0x7a40>
     5bc:	84000003 	strhi	r0, [r0], #-3
     5c0:	03000003 	movweq	r0, #3
     5c4:	9f1c7600 	svcls	0x001c7600
	...
     5d0:	00000188 	andeq	r0, r0, r8, lsl #3
     5d4:	000001a0 	andeq	r0, r0, r0, lsr #3
     5d8:	a0500001 	subsge	r0, r0, r1
     5dc:	14000001 	strne	r0, [r0], #-1
     5e0:	01000002 	tsteq	r0, r2
     5e4:	02145400 	andseq	r5, r4, #0, 8
     5e8:	021b0000 	andseq	r0, fp, #0
     5ec:	00010000 	andeq	r0, r1, r0
     5f0:	00021b50 	andeq	r1, r2, r0, asr fp
     5f4:	00027c00 	andeq	r7, r2, r0, lsl #24
     5f8:	54000100 	strpl	r0, [r0], #-256	; 0xffffff00
	...
     604:	000001c4 	andeq	r0, r0, r4, asr #3
     608:	00000214 	andeq	r0, r0, r4, lsl r2
     60c:	2c540001 	mrrccs	0, 0, r0, r4, cr1
     610:	7c000002 	stcvc	0, cr0, [r0], {2}
     614:	01000002 	tsteq	r0, r2
     618:	00005400 	andeq	r5, r0, r0, lsl #8
     61c:	00000000 	andeq	r0, r0, r0
     620:	01d80000 	bicseq	r0, r8, r0
     624:	02000000 	andeq	r0, r0, #0
     628:	00030000 	andeq	r0, r3, r0
     62c:	009f1074 	addseq	r1, pc, r4, ror r0	; <UNPREDICTABLE>
     630:	14000002 	strne	r0, [r0], #-2
     634:	03000002 	movweq	r0, #2
     638:	9f1c7400 	svcls	0x001c7400
     63c:	0000022c 	andeq	r0, r0, ip, lsr #4
     640:	0000027c 	andeq	r0, r0, ip, ror r2
     644:	1c740003 	ldclne	0, cr0, [r4], #-12
     648:	0000009f 	muleq	r0, pc, r0	; <UNPREDICTABLE>
     64c:	00000000 	andeq	r0, r0, r0
     650:	00016400 	andeq	r6, r1, r0, lsl #8
     654:	00017f00 	andeq	r7, r1, r0, lsl #30
     658:	50000100 	andpl	r0, r0, r0, lsl #2
     65c:	0000017f 	andeq	r0, r0, pc, ror r1
     660:	00000188 	andeq	r0, r0, r8, lsl #3
     664:	00540001 	subseq	r0, r4, r1
     668:	00000000 	andeq	r0, r0, r0
     66c:	3c000000 	stccc	0, cr0, [r0], {-0}
     670:	40000000 	andmi	r0, r0, r0
     674:	01000000 	mrseq	r0, (UNDEF: 0)
     678:	00405000 	subeq	r5, r0, r0
     67c:	00440000 	subeq	r0, r4, r0
     680:	00040000 	andeq	r0, r4, r0
     684:	9f01b870 	svcls	0x0001b870
	...
     690:	00000030 	andeq	r0, r0, r0, lsr r0
     694:	00000034 	andeq	r0, r0, r4, lsr r0
     698:	34500001 	ldrbcc	r0, [r0], #-1
     69c:	3c000000 	stccc	0, cr0, [r0], {-0}
     6a0:	04000000 	streq	r0, [r0], #-0
     6a4:	5001f300 	andpl	pc, r1, r0, lsl #6
     6a8:	0000009f 	muleq	r0, pc, r0	; <UNPREDICTABLE>
     6ac:	00000000 	andeq	r0, r0, r0
     6b0:	00001800 	andeq	r1, r0, r0, lsl #16
     6b4:	00002300 	andeq	r2, r0, r0, lsl #6
     6b8:	50000100 	andpl	r0, r0, r0, lsl #2
     6bc:	00000023 	andeq	r0, r0, r3, lsr #32
     6c0:	00000030 	andeq	r0, r0, r0, lsr r0
     6c4:	00540001 	subseq	r0, r4, r1
     6c8:	00000000 	andeq	r0, r0, r0
     6cc:	08000000 	stmdaeq	r0, {}	; <UNPREDICTABLE>
     6d0:	0f000000 	svceq	0x00000000
     6d4:	01000000 	mrseq	r0, (UNDEF: 0)
     6d8:	000f5000 	andeq	r5, pc, r0
     6dc:	00180000 	andseq	r0, r8, r0
     6e0:	00040000 	andeq	r0, r4, r0
     6e4:	9f5001f3 	svcls	0x005001f3
	...
     6f4:	00000004 	andeq	r0, r0, r4
     6f8:	04500001 	ldrbeq	r0, [r0], #-1
     6fc:	08000000 	stmdaeq	r0, {}	; <UNPREDICTABLE>
     700:	03000000 	movweq	r0, #0
     704:	9f487000 	svcls	0x00487000
	...
     710:	000003e8 	andeq	r0, r0, r8, ror #7
     714:	00000410 	andeq	r0, r0, r0, lsl r4
     718:	10500001 	subsne	r0, r0, r1
     71c:	24000004 	strcs	r0, [r0], #-4
     720:	01000004 	tsteq	r0, r4
     724:	04245400 	strteq	r5, [r4], #-1024	; 0xfffffc00
     728:	042c0000 	strteq	r0, [ip], #-0
     72c:	00050000 	andeq	r0, r5, r0
     730:	009c6003 	addseq	r6, ip, r3
     734:	00042c00 	andeq	r2, r4, r0, lsl #24
     738:	00042f00 	andeq	r2, r4, r0, lsl #30
     73c:	50000100 	andpl	r0, r0, r0, lsl #2
     740:	0000042f 	andeq	r0, r0, pc, lsr #8
     744:	0000045c 	andeq	r0, r0, ip, asr r4
     748:	01f30004 	mvnseq	r0, r4
     74c:	00009f50 	andeq	r9, r0, r0, asr pc
     750:	00000000 	andeq	r0, r0, r0
     754:	03e80000 	mvneq	r0, #0
     758:	040c0000 	streq	r0, [ip], #-0
     75c:	00010000 	andeq	r0, r1, r0
     760:	00040c51 	andeq	r0, r4, r1, asr ip
     764:	00042c00 	andeq	r2, r4, r0, lsl #24
     768:	55000100 	strpl	r0, [r0, #-256]	; 0xffffff00
     76c:	0000042c 	andeq	r0, r0, ip, lsr #8
     770:	0000042f 	andeq	r0, r0, pc, lsr #8
     774:	2f510001 	svccs	0x00510001
     778:	5c000004 	stcpl	0, cr0, [r0], {4}
     77c:	04000004 	streq	r0, [r0], #-4
     780:	5101f300 	mrspl	pc, SP_irq	; <UNPREDICTABLE>
     784:	0000009f 	muleq	r0, pc, r0	; <UNPREDICTABLE>
     788:	00000000 	andeq	r0, r0, r0
     78c:	00002c00 	andeq	r2, r0, r0, lsl #24
     790:	00003800 	andeq	r3, r0, r0, lsl #16
     794:	50000100 	andpl	r0, r0, r0, lsl #2
     798:	00000038 	andeq	r0, r0, r8, lsr r0
     79c:	00000048 	andeq	r0, r0, r8, asr #32
     7a0:	48550001 	ldmdami	r5, {r0}^
     7a4:	58000000 	stmdapl	r0, {}	; <UNPREDICTABLE>
     7a8:	01000000 	mrseq	r0, (UNDEF: 0)
     7ac:	00005000 	andeq	r5, r0, r0
     7b0:	00000000 	andeq	r0, r0, r0
     7b4:	02840000 	addeq	r0, r4, #0
     7b8:	02a80000 	adceq	r0, r8, #0
     7bc:	00010000 	andeq	r0, r1, r0
     7c0:	0002a850 	andeq	sl, r2, r0, asr r8
     7c4:	00053000 	andeq	r3, r5, r0
     7c8:	59000100 	stmdbpl	r0, {r8}
     7cc:	00000530 	andeq	r0, r0, r0, lsr r5
     7d0:	00000544 	andeq	r0, r0, r4, asr #10
     7d4:	01f30004 	mvnseq	r0, r4
     7d8:	00009f50 	andeq	r9, r0, r0, asr pc
     7dc:	00000000 	andeq	r0, r0, r0
     7e0:	02840000 	addeq	r0, r4, #0
     7e4:	02980000 	addseq	r0, r8, #0
     7e8:	00010000 	andeq	r0, r1, r0
     7ec:	00029851 	andeq	r9, r2, r1, asr r8
     7f0:	0002a800 	andeq	sl, r2, r0, lsl #16
     7f4:	71000300 	mrsvc	r0, LR_irq
     7f8:	02a89f01 	adceq	r9, r8, #1, 30
     7fc:	05440000 	strbeq	r0, [r4, #-0]
     800:	00040000 	andeq	r0, r4, r0
     804:	9f5101f3 	svcls	0x005101f3
	...
     810:	00000284 	andeq	r0, r0, r4, lsl #5
     814:	000002c4 	andeq	r0, r0, r4, asr #5
     818:	c4520001 	ldrbgt	r0, [r2], #-1
     81c:	dc000002 	stcle	0, cr0, [r0], {2}
     820:	01000002 	tsteq	r0, r2
     824:	02dc5200 	sbcseq	r5, ip, #0, 4
     828:	02e40000 	rsceq	r0, r4, #0
     82c:	00010000 	andeq	r0, r1, r0
     830:	0002e455 	andeq	lr, r2, r5, asr r4
     834:	0002f400 	andeq	pc, r2, r0, lsl #8
     838:	52000100 	andpl	r0, r0, #0, 2
     83c:	000002f4 	strdeq	r0, [r0], -r4
     840:	000003f8 	strdeq	r0, [r0], -r8
     844:	f8550001 			; <UNDEFINED> instruction: 0xf8550001
     848:	fc000003 	stc2	0, cr0, [r0], {3}
     84c:	01000003 	tsteq	r0, r3
     850:	03fc5200 	mvnseq	r5, #0, 4
     854:	04f40000 	ldrbteq	r0, [r4], #0
     858:	00010000 	andeq	r0, r1, r0
     85c:	0004f455 	andeq	pc, r4, r5, asr r4	; <UNPREDICTABLE>
     860:	00054400 	andeq	r4, r5, r0, lsl #8
     864:	52000100 	andpl	r0, r0, #0, 2
	...
     870:	00000294 	muleq	r0, r4, r2
     874:	000002a8 	andeq	r0, r0, r8, lsr #5
     878:	a8500001 	ldmdage	r0, {r0}^
     87c:	c0000002 	andgt	r0, r0, r2
     880:	01000002 	tsteq	r0, r2
     884:	02c05600 	sbceq	r5, r0, #0, 12
     888:	02cc0000 	sbceq	r0, ip, #0
     88c:	00030000 	andeq	r0, r3, r0
     890:	cc9f0176 	ldfgts	f0, [pc], {118}	; 0x76
     894:	e4000002 	str	r0, [r0], #-2
     898:	01000002 	tsteq	r0, r2
     89c:	02e45600 	rsceq	r5, r4, #0, 12
     8a0:	02f00000 	rscseq	r0, r0, #0
     8a4:	00030000 	andeq	r0, r3, r0
     8a8:	f09f0176 			; <UNDEFINED> instruction: 0xf09f0176
     8ac:	f4000002 	vst4.8	{d0-d3}, [r0], r2
     8b0:	01000004 	tsteq	r0, r4
     8b4:	04f45600 	ldrbteq	r5, [r4], #1536	; 0x600
     8b8:	05000000 	streq	r0, [r0, #-0]
     8bc:	00030000 	andeq	r0, r3, r0
     8c0:	009f0176 	addseq	r0, pc, r6, ror r1	; <UNPREDICTABLE>
     8c4:	1c000005 	stcne	0, cr0, [r0], {5}
     8c8:	01000005 	tsteq	r0, r5
     8cc:	051c5600 	ldreq	r5, [ip, #-1536]	; 0xfffffa00
     8d0:	05280000 	streq	r0, [r8, #-0]!
     8d4:	00010000 	andeq	r0, r1, r0
     8d8:	00052850 	andeq	r2, r5, r0, asr r8
     8dc:	00053000 	andeq	r3, r5, r0
     8e0:	76000300 	strvc	r0, [r0], -r0, lsl #6
     8e4:	00009f01 	andeq	r9, r0, r1, lsl #30
     8e8:	00000000 	andeq	r0, r0, r0
     8ec:	029c0000 	addseq	r0, ip, #0
     8f0:	05300000 	ldreq	r0, [r0, #-0]!
     8f4:	00010000 	andeq	r0, r1, r0
     8f8:	00053058 	andeq	r3, r5, r8, asr r0
     8fc:	00054400 	andeq	r4, r5, r0, lsl #8
     900:	f3000a00 	vpmax.u8	d0, d0, d0
     904:	01f35101 	mvnseq	r5, r1, lsl #2
     908:	1c312250 	lfmne	f2, 4, [r1], #-320	; 0xfffffec0
     90c:	0000009f 	muleq	r0, pc, r0	; <UNPREDICTABLE>
     910:	00000000 	andeq	r0, r0, r0
     914:	0003f400 	andeq	pc, r3, r0, lsl #8
     918:	0003fc00 	andeq	pc, r3, r0, lsl #24
     91c:	50000100 	andpl	r0, r0, r0, lsl #2
     920:	00000428 	andeq	r0, r0, r8, lsr #8
     924:	0000042c 	andeq	r0, r0, ip, lsr #8
     928:	58500001 	ldmdapl	r0, {r0}^
     92c:	5c000004 	stcpl	0, cr0, [r0], {4}
     930:	01000004 	tsteq	r0, r4
     934:	04885000 	streq	r5, [r8], #0
     938:	048c0000 	streq	r0, [ip], #0
     93c:	00010000 	andeq	r0, r1, r0
     940:	0004cc50 	andeq	ip, r4, r0, asr ip
     944:	0004d000 	andeq	sp, r4, r0
     948:	50000100 	andpl	r0, r0, r0, lsl #2
     94c:	000004f4 	strdeq	r0, [r0], -r4
     950:	00000518 	andeq	r0, r0, r8, lsl r5
     954:	00500001 	subseq	r0, r0, r1
     958:	00000000 	andeq	r0, r0, r0
     95c:	dc000000 	stcle	0, cr0, [r0], {-0}
     960:	e4000002 	str	r0, [r0], #-2
     964:	02000002 	andeq	r0, r0, #2
     968:	f49f3000 			; <UNDEFINED> instruction: 0xf49f3000
     96c:	f8000002 			; <UNDEFINED> instruction: 0xf8000002
     970:	01000002 	tsteq	r0, r2
     974:	03045400 	movweq	r5, #17408	; 0x4400
     978:	05180000 	ldreq	r0, [r8, #-0]
     97c:	00010000 	andeq	r0, r1, r0
     980:	00000054 	andeq	r0, r0, r4, asr r0
     984:	00000000 	andeq	r0, r0, r0
     988:	00008000 	andeq	r8, r0, r0
     98c:	0000a400 	andeq	sl, r0, r0, lsl #8
     990:	50000100 	andpl	r0, r0, r0, lsl #2
     994:	000000a4 	andeq	r0, r0, r4, lsr #1
     998:	000000f0 	strdeq	r0, [r0], -r0	; <UNPREDICTABLE>
     99c:	02700003 	rsbseq	r0, r0, #3
     9a0:	0000f09f 	muleq	r0, pc, r0	; <UNPREDICTABLE>
     9a4:	00023000 	andeq	r3, r2, r0
     9a8:	f3000400 	vshl.u8	d0, d0, d0
     9ac:	009f5001 	addseq	r5, pc, r1
     9b0:	00000000 	andeq	r0, r0, r0
     9b4:	80000000 	andhi	r0, r0, r0
     9b8:	a0000000 	andge	r0, r0, r0
     9bc:	01000000 	mrseq	r0, (UNDEF: 0)
     9c0:	00a05100 	adceq	r5, r0, r0, lsl #2
     9c4:	02300000 	eorseq	r0, r0, #0
     9c8:	00010000 	andeq	r0, r1, r0
     9cc:	00000055 	andeq	r0, r0, r5, asr r0
     9d0:	00000000 	andeq	r0, r0, r0
     9d4:	00008000 	andeq	r8, r0, r0
     9d8:	00009400 	andeq	r9, r0, r0, lsl #8
     9dc:	52000100 	andpl	r0, r0, #0, 2
     9e0:	00000094 	muleq	r0, r4, r0
     9e4:	00000230 	andeq	r0, r0, r0, lsr r2
     9e8:	00540001 	subseq	r0, r4, r1
     9ec:	00000000 	andeq	r0, r0, r0
     9f0:	80000000 	andhi	r0, r0, r0
     9f4:	ec000000 	stc	0, cr0, [r0], {-0}
     9f8:	01000000 	mrseq	r0, (UNDEF: 0)
     9fc:	00ec5300 	rsceq	r5, ip, r0, lsl #6
     a00:	01040000 	mrseq	r0, (UNDEF: 4)
     a04:	00010000 	andeq	r0, r1, r0
     a08:	00011051 	andeq	r1, r1, r1, asr r0
     a0c:	00011800 	andeq	r1, r1, r0, lsl #16
     a10:	51000100 	mrspl	r0, (UNDEF: 16)
     a14:	00000168 	andeq	r0, r0, r8, ror #2
     a18:	0000016c 	andeq	r0, r0, ip, ror #2
     a1c:	6c510001 	mrrcvs	0, 0, r0, r1, cr1
     a20:	a0000001 	andge	r0, r0, r1
     a24:	04000001 	streq	r0, [r0], #-1
     a28:	5301f300 	movwpl	pc, #4864	; 0x1300	; <UNPREDICTABLE>
     a2c:	0001c49f 	muleq	r1, pc, r4	; <UNPREDICTABLE>
     a30:	0001d400 	andeq	sp, r1, r0, lsl #8
     a34:	51000100 	mrspl	r0, (UNDEF: 16)
     a38:	000001d4 	ldrdeq	r0, [r0], -r4
     a3c:	000001f8 	strdeq	r0, [r0], -r8
     a40:	01f30004 	mvnseq	r0, r4
     a44:	01f89f53 	mvnseq	r9, r3, asr pc
     a48:	01fb0000 	mvnseq	r0, r0
     a4c:	00010000 	andeq	r0, r1, r0
     a50:	0001fb51 	andeq	pc, r1, r1, asr fp	; <UNPREDICTABLE>
     a54:	00023000 	andeq	r3, r2, r0
     a58:	f3000400 	vshl.u8	d0, d0, d0
     a5c:	009f5301 	addseq	r5, pc, r1, lsl #6
     a60:	00000000 	andeq	r0, r0, r0
     a64:	80000000 	andhi	r0, r0, r0
     a68:	9c000000 	stcls	0, cr0, [r0], {-0}
     a6c:	02000000 	andeq	r0, r0, #0
     a70:	9c009100 	stflsd	f1, [r0], {-0}
     a74:	a7000000 	strge	r0, [r0, -r0]
     a78:	01000001 	tsteq	r0, r1
     a7c:	01c45200 	biceq	r5, r4, r0, lsl #4
     a80:	01fb0000 	mvnseq	r0, r0
     a84:	00010000 	andeq	r0, r1, r0
     a88:	00000052 	andeq	r0, r0, r2, asr r0
     a8c:	00000000 	andeq	r0, r0, r0
     a90:	00009c00 	andeq	r9, r0, r0, lsl #24
     a94:	00011800 	andeq	r1, r1, r0, lsl #16
     a98:	5d000100 	stfpls	f0, [r0, #-0]
     a9c:	00000118 	andeq	r0, r0, r8, lsl r1
     aa0:	0000011c 	andeq	r0, r0, ip, lsl r1
     aa4:	1c500001 	mrrcne	0, 0, r0, r0, cr1	; <UNPREDICTABLE>
     aa8:	20000001 	andcs	r0, r0, r1
     aac:	01000001 	tsteq	r0, r1
     ab0:	01205c00 			; <UNDEFINED> instruction: 0x01205c00
     ab4:	01580000 	cmpeq	r8, r0
     ab8:	00010000 	andeq	r0, r1, r0
     abc:	00015850 	andeq	r5, r1, r0, asr r8
     ac0:	00016400 	andeq	r6, r1, r0, lsl #8
     ac4:	7c000300 	stcvc	3, cr0, [r0], {-0}
     ac8:	01649f02 	cmneq	r4, r2, lsl #30
     acc:	01680000 	cmneq	r8, r0
     ad0:	00010000 	andeq	r0, r1, r0
     ad4:	00016850 	andeq	r6, r1, r0, asr r8
     ad8:	00016c00 	andeq	r6, r1, r0, lsl #24
     adc:	5d000100 	stfpls	f0, [r0, #-0]
     ae0:	0000016c 	andeq	r0, r0, ip, ror #2
     ae4:	00000170 	andeq	r0, r0, r0, ror r1
     ae8:	70530001 	subsvc	r0, r3, r1
     aec:	8c000001 	stchi	0, cr0, [r0], {1}
     af0:	01000001 	tsteq	r0, r1
     af4:	018c5c00 	orreq	r5, ip, r0, lsl #24
     af8:	01980000 	orrseq	r0, r8, r0
     afc:	00030000 	andeq	r0, r3, r0
     b00:	989f027c 	ldmls	pc, {r2, r3, r4, r5, r6, r9}	; <UNPREDICTABLE>
     b04:	a7000001 	strge	r0, [r0, -r1]
     b08:	01000001 	tsteq	r0, r1
     b0c:	01c45000 	biceq	r5, r4, r0
     b10:	01cc0000 	biceq	r0, ip, r0
     b14:	00040000 	andeq	r0, r4, r0
     b18:	9f7fa191 	svcls	0x007fa191
     b1c:	000001cc 	andeq	r0, r0, ip, asr #3
     b20:	000001d0 	ldrdeq	r0, [r0], -r0	; <UNPREDICTABLE>
     b24:	d0500001 	subsle	r0, r0, r1
     b28:	d4000001 	strle	r0, [r0], #-1
     b2c:	01000001 	tsteq	r0, r1
     b30:	01d45d00 	bicseq	r5, r4, r0, lsl #26
     b34:	01d80000 	bicseq	r0, r8, r0
     b38:	00010000 	andeq	r0, r1, r0
     b3c:	0001d853 	andeq	sp, r1, r3, asr r8
     b40:	0001f800 	andeq	pc, r1, r0, lsl #16
     b44:	50000100 	andpl	r0, r0, r0, lsl #2
     b48:	000001f8 	strdeq	r0, [r0], -r8
     b4c:	00000230 	andeq	r0, r0, r0, lsr r2
     b50:	005d0001 	subseq	r0, sp, r1
     b54:	00000000 	andeq	r0, r0, r0
     b58:	a0000000 	andge	r0, r0, r0
     b5c:	40000000 	andmi	r0, r0, r0
     b60:	01000001 	tsteq	r0, r1
     b64:	014c5100 	mrseq	r5, (UNDEF: 92)
     b68:	01800000 	orreq	r0, r0, r0
     b6c:	00010000 	andeq	r0, r1, r0
     b70:	00018051 	andeq	r8, r1, r1, asr r0
     b74:	00018800 	andeq	r8, r1, r0, lsl #16
     b78:	71000500 	tstvc	r0, r0, lsl #10
     b7c:	9f253400 	svcls	0x00253400
     b80:	00000188 	andeq	r0, r0, r8, lsl #3
     b84:	000001a4 	andeq	r0, r0, r4, lsr #3
     b88:	c4510001 	ldrbgt	r0, [r1], #-1
     b8c:	e8000001 	stmda	r0, {r0}
     b90:	01000001 	tsteq	r0, r1
     b94:	01e85100 	mvneq	r5, r0, lsl #2
     b98:	01f00000 	mvnseq	r0, r0
     b9c:	00050000 	andeq	r0, r5, r0
     ba0:	25310071 	ldrcs	r0, [r1, #-113]!	; 0xffffff8f
     ba4:	0001f09f 	muleq	r1, pc, r0	; <UNPREDICTABLE>
     ba8:	0001fb00 	andeq	pc, r1, r0, lsl #22
     bac:	51000100 	mrspl	r0, (UNDEF: 16)
     bb0:	000001fb 	strdeq	r0, [r0], -fp
     bb4:	00000230 	andeq	r0, r0, r0, lsr r2
     bb8:	01f30004 	mvnseq	r0, r4
     bbc:	00009f53 	andeq	r9, r0, r3, asr pc
     bc0:	00000000 	andeq	r0, r0, r0
     bc4:	00ec0000 	rsceq	r0, ip, r0
     bc8:	01000000 	mrseq	r0, (UNDEF: 0)
     bcc:	00020000 	andeq	r0, r2, r0
     bd0:	01009f30 	tsteq	r0, r0, lsr pc
     bd4:	01080000 	mrseq	r0, (UNDEF: 8)
     bd8:	00020000 	andeq	r0, r2, r0
     bdc:	01109f31 	tsteq	r0, r1, lsr pc
     be0:	01180000 	tsteq	r8, r0
     be4:	00020000 	andeq	r0, r2, r0
     be8:	01189f30 	tsteq	r8, r0, lsr pc
     bec:	01680000 	cmneq	r8, r0
     bf0:	00010000 	andeq	r0, r1, r0
     bf4:	00000057 	andeq	r0, r0, r7, asr r0
     bf8:	00000000 	andeq	r0, r0, r0
     bfc:	00004000 	andeq	r4, r0, r0
     c00:	00006000 	andeq	r6, r0, r0
     c04:	50000100 	andpl	r0, r0, r0, lsl #2
     c08:	00000060 	andeq	r0, r0, r0, rrx
     c0c:	0000006c 	andeq	r0, r0, ip, rrx
     c10:	01710003 	cmneq	r1, r3
     c14:	00006c9f 	muleq	r0, pc, ip	; <UNPREDICTABLE>
     c18:	00007400 	andeq	r7, r0, r0, lsl #8
     c1c:	51000100 	mrspl	r0, (UNDEF: 16)
     c20:	00000074 	andeq	r0, r0, r4, ror r0
     c24:	00000080 	andeq	r0, r0, r0, lsl #1
     c28:	01710003 	cmneq	r1, r3
     c2c:	0000009f 	muleq	r0, pc, r0	; <UNPREDICTABLE>
     c30:	00000000 	andeq	r0, r0, r0
     c34:	00004000 	andeq	r4, r0, r0
     c38:	00005c00 	andeq	r5, r0, r0, lsl #24
     c3c:	51000100 	mrspl	r0, (UNDEF: 16)
     c40:	0000005c 	andeq	r0, r0, ip, asr r0
     c44:	00000080 	andeq	r0, r0, r0, lsl #1
     c48:	01f30004 	mvnseq	r0, r4
     c4c:	00009f51 	andeq	r9, r0, r1, asr pc
     c50:	00000000 	andeq	r0, r0, r0
     c54:	00400000 	subeq	r0, r0, r0
     c58:	00580000 	subseq	r0, r8, r0
     c5c:	00010000 	andeq	r0, r1, r0
     c60:	00005852 	andeq	r5, r0, r2, asr r8
     c64:	00006400 	andeq	r6, r0, r0, lsl #8
     c68:	52000100 	andpl	r0, r0, #0, 2
     c6c:	00000064 	andeq	r0, r0, r4, rrx
     c70:	00000068 	andeq	r0, r0, r8, rrx
     c74:	01720003 	cmneq	r2, r3
     c78:	0000689f 	muleq	r0, pc, r8	; <UNPREDICTABLE>
     c7c:	00008000 	andeq	r8, r0, r0
     c80:	52000100 	andpl	r0, r0, #0, 2
	...
     c8c:	00000040 	andeq	r0, r0, r0, asr #32
     c90:	00000054 	andeq	r0, r0, r4, asr r0
     c94:	54530001 	ldrbpl	r0, [r3], #-1
     c98:	78000000 	stmdavc	r0, {}	; <UNPREDICTABLE>
     c9c:	01000000 	mrseq	r0, (UNDEF: 0)
     ca0:	00005300 	andeq	r5, r0, r0, lsl #6
     ca4:	00000000 	andeq	r0, r0, r0
     ca8:	00480000 	subeq	r0, r8, r0
     cac:	00500000 	subseq	r0, r0, r0
     cb0:	00010000 	andeq	r0, r1, r0
     cb4:	0000505c 	andeq	r5, r0, ip, asr r0
     cb8:	00005400 	andeq	r5, r0, r0, lsl #8
     cbc:	72000800 	andvc	r0, r0, #0, 16
     cc0:	1c007300 	stcne	3, cr7, [r0], {-0}
     cc4:	549f0123 	ldrpl	r0, [pc], #291	; ccc <_start-0x7334>
     cc8:	58000000 	stmdapl	r0, {}	; <UNPREDICTABLE>
     ccc:	09000000 	stmdbeq	r0, {}	; <UNPREDICTABLE>
     cd0:	f3007200 	vhsub.u8	d7, d0, d0
     cd4:	231c5301 	tstcs	ip, #67108864	; 0x4000000
     cd8:	00589f01 	subseq	r9, r8, r1, lsl #30
     cdc:	00600000 	rsbeq	r0, r0, r0
     ce0:	00090000 	andeq	r0, r9, r0
     ce4:	01f30072 	mvnseq	r0, r2, ror r0
     ce8:	02231c53 	eoreq	r1, r3, #21248	; 0x5300
     cec:	0000609f 	muleq	r0, pc, r0	; <UNPREDICTABLE>
     cf0:	00008000 	andeq	r8, r0, r0
     cf4:	f3000a00 	vpmax.u8	d0, d0, d0
     cf8:	01f35201 	mvnseq	r5, r1, lsl #4
     cfc:	01231c53 			; <UNDEFINED> instruction: 0x01231c53
     d00:	0000009f 	muleq	r0, pc, r0	; <UNPREDICTABLE>
     d04:	00000000 	andeq	r0, r0, r0
     d08:	00001400 	andeq	r1, r0, r0, lsl #8
     d0c:	00001c00 	andeq	r1, r0, r0, lsl #24
     d10:	50000100 	andpl	r0, r0, r0, lsl #2
     d14:	0000001c 	andeq	r0, r0, ip, lsl r0
     d18:	0000002c 	andeq	r0, r0, ip, lsr #32
     d1c:	01700003 	cmneq	r0, r3
     d20:	00002c9f 	muleq	r0, pc, ip	; <UNPREDICTABLE>
     d24:	00004000 	andeq	r4, r0, r0
     d28:	50000100 	andpl	r0, r0, r0, lsl #2
	...
     d34:	00000014 	andeq	r0, r0, r4, lsl r0
     d38:	00000018 	andeq	r0, r0, r8, lsl r0
     d3c:	18510001 	ldmdane	r1, {r0}^
     d40:	40000000 	andmi	r0, r0, r0
     d44:	04000000 	streq	r0, [r0], #-0
     d48:	5101f300 	mrspl	pc, SP_irq	; <UNPREDICTABLE>
     d4c:	0000009f 	muleq	r0, pc, r0	; <UNPREDICTABLE>
	...
     d58:	00000400 	andeq	r0, r0, r0, lsl #8
     d5c:	50000100 	andpl	r0, r0, r0, lsl #2
     d60:	00000004 	andeq	r0, r0, r4
     d64:	0000000c 	andeq	r0, r0, ip
     d68:	30700003 	rsbscc	r0, r0, r3
     d6c:	00000c9f 	muleq	r0, pc, ip	; <UNPREDICTABLE>
     d70:	00001400 	andeq	r1, r0, r0, lsl #8
     d74:	f3000400 	vshl.u8	d0, d0, d0
     d78:	009f5001 	addseq	r5, pc, r1
     d7c:	00000000 	andeq	r0, r0, r0
     d80:	30000000 	andcc	r0, r0, r0
     d84:	57000002 	strpl	r0, [r0, -r2]
     d88:	01000002 	tsteq	r0, r2
     d8c:	02575000 	subseq	r5, r7, #0
     d90:	02840000 	addeq	r0, r4, #0
     d94:	00040000 	andeq	r0, r4, r0
     d98:	9f5001f3 	svcls	0x005001f3
	...
     da4:	00000230 	andeq	r0, r0, r0, lsr r2
     da8:	00000257 	andeq	r0, r0, r7, asr r2
     dac:	57510001 	ldrbpl	r0, [r1, -r1]
     db0:	84000002 	strhi	r0, [r0], #-2
     db4:	04000002 	streq	r0, [r0], #-2
     db8:	5101f300 	mrspl	pc, SP_irq	; <UNPREDICTABLE>
     dbc:	0000009f 	muleq	r0, pc, r0	; <UNPREDICTABLE>
	...
     dc8:	00002000 	andeq	r2, r0, r0
     dcc:	50000100 	andpl	r0, r0, r0, lsl #2
     dd0:	00000020 	andeq	r0, r0, r0, lsr #32
     dd4:	000000e0 	andeq	r0, r0, r0, ror #1
     dd8:	01f30004 	mvnseq	r0, r4
     ddc:	00e09f50 	rsceq	r9, r0, r0, asr pc
     de0:	00e40000 	rsceq	r0, r4, r0
     de4:	00010000 	andeq	r0, r1, r0
     de8:	0000e450 	andeq	lr, r0, r0, asr r4
     dec:	0000e800 	andeq	lr, r0, r0, lsl #16
     df0:	f3000400 	vshl.u8	d0, d0, d0
     df4:	009f5001 	addseq	r5, pc, r1
	...
     e00:	1c000000 	stcne	0, cr0, [r0], {-0}
     e04:	01000000 	mrseq	r0, (UNDEF: 0)
     e08:	001c5100 	andseq	r5, ip, r0, lsl #2
     e0c:	00700000 	rsbseq	r0, r0, r0
     e10:	00010000 	andeq	r0, r1, r0
     e14:	00008c51 	andeq	r8, r0, r1, asr ip
     e18:	00009000 	andeq	r9, r0, r0
     e1c:	51000100 	mrspl	r0, (UNDEF: 16)
     e20:	000000b0 	strheq	r0, [r0], -r0	; <UNPREDICTABLE>
     e24:	000000b4 	strheq	r0, [r0], -r4
     e28:	cc510001 	mrrcgt	0, 0, r0, r1, cr1
     e2c:	e8000000 	stmda	r0, {}	; <UNPREDICTABLE>
     e30:	01000000 	mrseq	r0, (UNDEF: 0)
     e34:	00005100 	andeq	r5, r0, r0, lsl #2
	...
     e40:	00740000 	rsbseq	r0, r4, r0
     e44:	00010000 	andeq	r0, r1, r0
     e48:	00008c50 	andeq	r8, r0, r0, asr ip
     e4c:	0000e400 	andeq	lr, r0, r0, lsl #8
     e50:	50000100 	andpl	r0, r0, r0, lsl #2
     e54:	000000e4 	andeq	r0, r0, r4, ror #1
     e58:	000000e8 	andeq	r0, r0, r8, ror #1
     e5c:	01f30004 	mvnseq	r0, r4
     e60:	00009f50 	andeq	r9, r0, r0, asr pc
	...
     e6c:	001c0000 	andseq	r0, ip, r0
     e70:	00010000 	andeq	r0, r1, r0
     e74:	00001c51 	andeq	r1, r0, r1, asr ip
     e78:	00003000 	andeq	r3, r0, r0
     e7c:	53000100 	movwpl	r0, #256	; 0x100
     e80:	00000030 	andeq	r0, r0, r0, lsr r0
     e84:	00000044 	andeq	r0, r0, r4, asr #32
     e88:	44520001 	ldrbmi	r0, [r2], #-1
     e8c:	74000000 	strvc	r0, [r0], #-0
     e90:	01000000 	mrseq	r0, (UNDEF: 0)
     e94:	00745300 	rsbseq	r5, r4, r0, lsl #6
     e98:	008c0000 	addeq	r0, ip, r0
     e9c:	00010000 	andeq	r0, r1, r0
     ea0:	00008c50 	andeq	r8, r0, r0, asr ip
     ea4:	0000e000 	andeq	lr, r0, r0
     ea8:	53000100 	movwpl	r0, #256	; 0x100
     eac:	000000e0 	andeq	r0, r0, r0, ror #1
     eb0:	000000e8 	andeq	r0, r0, r8, ror #1
     eb4:	00510001 	subseq	r0, r1, r1
     eb8:	00000000 	andeq	r0, r0, r0
     ebc:	40000000 	andmi	r0, r0, r0
     ec0:	44000000 	strmi	r0, [r0], #-0
     ec4:	01000000 	mrseq	r0, (UNDEF: 0)
     ec8:	00445300 	subeq	r5, r4, r0, lsl #6
     ecc:	00480000 	subeq	r0, r8, r0
     ed0:	00120000 	andseq	r0, r2, r0
     ed4:	2438007c 	ldrtcs	r0, [r8], #-124	; 0xffffff84
     ed8:	01940270 	orrseq	r0, r4, r0, ror r2
     edc:	221aff08 	andscs	pc, sl, #8, 30
     ee0:	0072243b 	rsbseq	r2, r2, fp, lsr r4
     ee4:	00489f27 	subeq	r9, r8, r7, lsr #30
     ee8:	00500000 	subseq	r0, r0, r0
     eec:	00120000 	andseq	r0, r2, r0
     ef0:	2438007c 	ldrtcs	r0, [r8], #-124	; 0xffffff84
     ef4:	01947e70 	orrseq	r7, r4, r0, ror lr
     ef8:	221aff08 	andscs	pc, sl, #8, 30
     efc:	0072243b 	rsbseq	r2, r2, fp, lsr r4
     f00:	00009f27 	andeq	r9, r0, r7, lsr #30
     f04:	00000000 	andeq	r0, r0, r0
     f08:	00180000 	andseq	r0, r8, r0
     f0c:	00e00000 	rsceq	r0, r0, r0
     f10:	00010000 	andeq	r0, r1, r0
     f14:	0000005e 	andeq	r0, r0, lr, asr r0
	...
     f20:	00000c00 	andeq	r0, r0, r0, lsl #24
     f24:	50000100 	andpl	r0, r0, r0, lsl #2
     f28:	0000000c 	andeq	r0, r0, ip
     f2c:	00000034 	andeq	r0, r0, r4, lsr r0
     f30:	00540001 	subseq	r0, r4, r1
	...
     f3c:	0b000000 	bleq	f44 <_start-0x70bc>
     f40:	01000000 	mrseq	r0, (UNDEF: 0)
     f44:	000b5000 	andeq	r5, fp, r0
     f48:	00140000 	andseq	r0, r4, r0
     f4c:	00010000 	andeq	r0, r1, r0
     f50:	00000054 	andeq	r0, r0, r4, asr r0
	...
     f5c:	00000400 	andeq	r0, r0, r0, lsl #8
     f60:	52000100 	andpl	r0, r0, #0, 2
     f64:	00000004 	andeq	r0, r0, r4
     f68:	00000020 	andeq	r0, r0, r0, lsr #32
     f6c:	01f30004 	mvnseq	r0, r4
     f70:	00009f52 	andeq	r9, r0, r2, asr pc
	...
     f7c:	000c0000 	andeq	r0, ip, r0
     f80:	00010000 	andeq	r0, r1, r0
     f84:	00000c50 	andeq	r0, r0, r0, asr ip
     f88:	00001400 	andeq	r1, r0, r0, lsl #8
     f8c:	73000300 	movwvc	r0, #768	; 0x300
     f90:	00149f01 	andseq	r9, r4, r1, lsl #30
     f94:	00200000 	eoreq	r0, r0, r0
     f98:	00010000 	andeq	r0, r1, r0
     f9c:	00000053 	andeq	r0, r0, r3, asr r0
     fa0:	00000000 	andeq	r0, r0, r0
     fa4:	00000c00 	andeq	r0, r0, r0, lsl #24
     fa8:	00001800 	andeq	r1, r0, r0, lsl #16
     fac:	73000300 	movwvc	r0, #768	; 0x300
     fb0:	00189f04 	andseq	r9, r8, r4, lsl #30
     fb4:	00270000 	eoreq	r0, r7, r0
     fb8:	00010000 	andeq	r0, r1, r0
     fbc:	00000053 	andeq	r0, r0, r3, asr r0
     fc0:	00000000 	andeq	r0, r0, r0
     fc4:	00911000 	addseq	r1, r1, r0
     fc8:	00912c00 	addseq	r2, r1, r0, lsl #24
     fcc:	0c000600 	stceq	6, cr0, [r0], {-0}
     fd0:	2010001c 	andscs	r0, r0, ip, lsl r0
     fd4:	0000009f 	muleq	r0, pc, r0	; <UNPREDICTABLE>
     fd8:	00000000 	andeq	r0, r0, r0
     fdc:	00911000 	addseq	r1, r1, r0
     fe0:	00912c00 	addseq	r2, r1, r0, lsl #24
     fe4:	0c000600 	stceq	6, cr0, [r0], {-0}
     fe8:	20100024 	andscs	r0, r0, r4, lsr #32
     fec:	0000009f 	muleq	r0, pc, r0	; <UNPREDICTABLE>
     ff0:	00000000 	andeq	r0, r0, r0
     ff4:	00911000 	addseq	r1, r1, r0
     ff8:	00912c00 	addseq	r2, r1, r0, lsl #24
     ffc:	08000500 	stmdaeq	r0, {r8, sl}
    1000:	9f2447b4 	svcls	0x002447b4
	...
    100c:	00009110 	andeq	r9, r0, r0, lsl r1
    1010:	0000912c 	andeq	r9, r0, ip, lsr #2
    1014:	20080003 	andcs	r0, r8, r3
    1018:	0000009f 	muleq	r0, pc, r0	; <UNPREDICTABLE>
    101c:	00000000 	andeq	r0, r0, r0
    1020:	0090e400 	addseq	lr, r0, r0, lsl #8
    1024:	0090e800 	addseq	lr, r0, r0, lsl #16
    1028:	30000200 	andcc	r0, r0, r0, lsl #4
    102c:	0090e89f 	umullseq	lr, r0, pc, r8	; <UNPREDICTABLE>
    1030:	0090ec00 	addseq	lr, r0, r0, lsl #24
    1034:	53000100 	movwpl	r0, #256	; 0x100
    1038:	000090f0 	strdeq	r9, [r0], -r0
    103c:	000090f8 	strdeq	r9, [r0], -r8
    1040:	00530001 	subseq	r0, r3, r1
    1044:	00000000 	andeq	r0, r0, r0
    1048:	cc000000 	stcgt	0, cr0, [r0], {-0}
    104c:	d0000090 	mulle	r0, r0, r0
    1050:	02000090 	andeq	r0, r0, #144	; 0x90
    1054:	d09f3000 	addsle	r3, pc, r0
    1058:	d4000090 	strle	r0, [r0], #-144	; 0xffffff70
    105c:	01000090 	swpeq	r0, r0, [r0]	; <UNPREDICTABLE>
    1060:	00005000 	andeq	r5, r0, r0
    1064:	00000000 	andeq	r0, r0, r0
    1068:	00740000 	rsbseq	r0, r4, r0
    106c:	00800000 	addeq	r0, r0, r0
    1070:	00010000 	andeq	r0, r1, r0
    1074:	00008050 	andeq	r8, r0, r0, asr r0
    1078:	00008800 	andeq	r8, r0, r0, lsl #16
    107c:	f3000400 	vshl.u8	d0, d0, d0
    1080:	009f5001 	addseq	r5, pc, r1
    1084:	00000000 	andeq	r0, r0, r0
    1088:	60000000 	andvs	r0, r0, r0
    108c:	6c000000 	stcvs	0, cr0, [r0], {-0}
    1090:	01000000 	mrseq	r0, (UNDEF: 0)
    1094:	006c5000 	rsbeq	r5, ip, r0
    1098:	00740000 	rsbseq	r0, r4, r0
    109c:	00040000 	andeq	r0, r4, r0
    10a0:	9f5001f3 	svcls	0x005001f3
	...
    10ac:	0000003c 	andeq	r0, r0, ip, lsr r0
    10b0:	00000047 	andeq	r0, r0, r7, asr #32
    10b4:	47500001 	ldrbmi	r0, [r0, -r1]
    10b8:	60000000 	andvs	r0, r0, r0
    10bc:	01000000 	mrseq	r0, (UNDEF: 0)
    10c0:	00005500 	andeq	r5, r0, r0, lsl #10
    10c4:	00000000 	andeq	r0, r0, r0
    10c8:	00500000 	subseq	r0, r0, r0
    10cc:	00540000 	subseq	r0, r4, r0
    10d0:	00010000 	andeq	r0, r1, r0
    10d4:	00000050 	andeq	r0, r0, r0, asr r0
	...
    10e0:	00000400 	andeq	r0, r0, r0, lsl #8
    10e4:	50000100 	andpl	r0, r0, r0, lsl #2
    10e8:	00000004 	andeq	r0, r0, r4
    10ec:	0000000c 	andeq	r0, r0, ip
    10f0:	0c530001 	mrrceq	0, 0, r0, r3, cr1
    10f4:	10000000 	andne	r0, r0, r0
    10f8:	01000000 	mrseq	r0, (UNDEF: 0)
    10fc:	00105000 	andseq	r5, r0, r0
    1100:	001c0000 	andseq	r0, ip, r0
    1104:	00010000 	andeq	r0, r1, r0
    1108:	00000053 	andeq	r0, r0, r3, asr r0
    110c:	00000000 	andeq	r0, r0, r0
    1110:	00013800 	andeq	r3, r1, r0, lsl #16
    1114:	00014300 	andeq	r4, r1, r0, lsl #6
    1118:	50000100 	andpl	r0, r0, r0, lsl #2
    111c:	00000143 	andeq	r0, r0, r3, asr #2
    1120:	00000168 	andeq	r0, r0, r8, ror #2
    1124:	00540001 	subseq	r0, r4, r1
	...
    1130:	0f000000 	svceq	0x00000000
    1134:	01000000 	mrseq	r0, (UNDEF: 0)
    1138:	000f5000 	andeq	r5, pc, r0
    113c:	00200000 	eoreq	r0, r0, r0
    1140:	00010000 	andeq	r0, r1, r0
    1144:	00000054 	andeq	r0, r0, r4, asr r0
	...
    1150:	00000f00 	andeq	r0, r0, r0, lsl #30
    1154:	51000100 	mrspl	r0, (UNDEF: 16)
    1158:	0000000f 	andeq	r0, r0, pc
    115c:	00000020 	andeq	r0, r0, r0, lsr #32
    1160:	00550001 	subseq	r0, r5, r1
    1164:	00000000 	andeq	r0, r0, r0
    1168:	ec000000 	stc	0, cr0, [r0], {-0}
    116c:	04000000 	streq	r0, [r0], #-0
    1170:	01000001 	tsteq	r0, r1
    1174:	01045000 	mrseq	r5, (UNDEF: 4)
    1178:	01140000 	tsteq	r4, r0
    117c:	00040000 	andeq	r0, r4, r0
    1180:	9f5001f3 	svcls	0x005001f3
    1184:	00000114 	andeq	r0, r0, r4, lsl r1
    1188:	00000118 	andeq	r0, r0, r8, lsl r1
    118c:	18500001 	ldmdane	r0, {r0}^
    1190:	20000001 	andcs	r0, r0, r1
    1194:	04000001 	streq	r0, [r0], #-1
    1198:	5001f300 	andpl	pc, r1, r0, lsl #6
    119c:	0000009f 	muleq	r0, pc, r0	; <UNPREDICTABLE>
    11a0:	00000000 	andeq	r0, r0, r0
    11a4:	0000f800 	andeq	pc, r0, r0, lsl #16
    11a8:	00010400 	andeq	r0, r1, r0, lsl #8
    11ac:	70000b00 	andvc	r0, r0, r0, lsl #22
    11b0:	23253500 			; <UNDEFINED> instruction: 0x23253500
    11b4:	818080b4 	strhhi	r8, [r0, r4]
    11b8:	01049f02 	tsteq	r4, r2, lsl #30
    11bc:	01070000 	mrseq	r0, (UNDEF: 7)
    11c0:	00010000 	andeq	r0, r1, r0
    11c4:	00010750 	andeq	r0, r1, r0, asr r7
    11c8:	00011400 	andeq	r1, r1, r0, lsl #8
    11cc:	f3000c00 			; <UNDEFINED> instruction: 0xf3000c00
    11d0:	25355001 	ldrcs	r5, [r5, #-1]!
    11d4:	8080b423 	addhi	fp, r0, r3, lsr #8
    11d8:	009f0281 	addseq	r0, pc, r1, lsl #5
    11dc:	00000000 	andeq	r0, r0, r0
    11e0:	fc000000 	stc2	0, cr0, [r0], {-0}
    11e4:	14000000 	strne	r0, [r0], #-0
    11e8:	01000001 	tsteq	r0, r1
    11ec:	00005400 	andeq	r5, r0, r0, lsl #8
    11f0:	00000000 	andeq	r0, r0, r0
    11f4:	00d00000 	sbcseq	r0, r0, r0
    11f8:	00df0000 	sbcseq	r0, pc, r0
    11fc:	00010000 	andeq	r0, r1, r0
    1200:	0000df50 	andeq	sp, r0, r0, asr pc
    1204:	0000e400 	andeq	lr, r0, r0, lsl #8
    1208:	f3000400 	vshl.u8	d0, d0, d0
    120c:	e49f5001 	ldr	r5, [pc], #1	; 1214 <_start-0x6dec>
    1210:	e7000000 	str	r0, [r0, -r0]
    1214:	01000000 	mrseq	r0, (UNDEF: 0)
    1218:	00e75000 	rsceq	r5, r7, r0
    121c:	00ec0000 	rsceq	r0, ip, r0
    1220:	00040000 	andeq	r0, r4, r0
    1224:	9f5001f3 	svcls	0x005001f3
	...
    1230:	000000d0 	ldrdeq	r0, [r0], -r0	; <UNPREDICTABLE>
    1234:	000000df 	ldrdeq	r0, [r0], -pc	; <UNPREDICTABLE>
    1238:	df510001 	svcle	0x00510001
    123c:	e4000000 	str	r0, [r0], #-0
    1240:	04000000 	streq	r0, [r0], #-0
    1244:	5101f300 	mrspl	pc, SP_irq	; <UNPREDICTABLE>
    1248:	0000e49f 	muleq	r0, pc, r4	; <UNPREDICTABLE>
    124c:	0000e700 	andeq	lr, r0, r0, lsl #14
    1250:	51000100 	mrspl	r0, (UNDEF: 16)
    1254:	000000e7 	andeq	r0, r0, r7, ror #1
    1258:	000000ec 	andeq	r0, r0, ip, ror #1
    125c:	01f30004 	mvnseq	r0, r4
    1260:	00009f51 	andeq	r9, r0, r1, asr pc
    1264:	00000000 	andeq	r0, r0, r0
    1268:	00c00000 	sbceq	r0, r0, r0
    126c:	00cb0000 	sbceq	r0, fp, r0
    1270:	00010000 	andeq	r0, r1, r0
    1274:	0000cb50 	andeq	ip, r0, r0, asr fp
    1278:	0000d000 	andeq	sp, r0, r0
    127c:	f3000400 	vshl.u8	d0, d0, d0
    1280:	009f5001 	addseq	r5, pc, r1
    1284:	00000000 	andeq	r0, r0, r0
    1288:	9c000000 	stcls	0, cr0, [r0], {-0}
    128c:	b4000000 	strlt	r0, [r0], #-0
    1290:	01000000 	mrseq	r0, (UNDEF: 0)
    1294:	00b45000 	adcseq	r5, r4, r0
    1298:	00c00000 	sbceq	r0, r0, r0
    129c:	00040000 	andeq	r0, r4, r0
    12a0:	9f5001f3 	svcls	0x005001f3
	...
    12ac:	00000078 	andeq	r0, r0, r8, ror r0
    12b0:	00000090 	muleq	r0, r0, r0
    12b4:	90500001 	subsls	r0, r0, r1
    12b8:	9c000000 	stcls	0, cr0, [r0], {-0}
    12bc:	04000000 	streq	r0, [r0], #-0
    12c0:	5001f300 	andpl	pc, r1, r0, lsl #6
    12c4:	0000009f 	muleq	r0, pc, r0	; <UNPREDICTABLE>
    12c8:	00000000 	andeq	r0, r0, r0
    12cc:	00006800 	andeq	r6, r0, r0, lsl #16
    12d0:	00007300 	andeq	r7, r0, r0, lsl #6
    12d4:	50000100 	andpl	r0, r0, r0, lsl #2
    12d8:	00000073 	andeq	r0, r0, r3, ror r0
    12dc:	00000078 	andeq	r0, r0, r8, ror r0
    12e0:	01f30004 	mvnseq	r0, r4
    12e4:	00009f50 	andeq	r9, r0, r0, asr pc
	...
    12f0:	00480000 	subeq	r0, r8, r0
    12f4:	00010000 	andeq	r0, r1, r0
    12f8:	00004850 	andeq	r4, r0, r0, asr r8
    12fc:	00006800 	andeq	r6, r0, r0, lsl #16
    1300:	f3000400 	vshl.u8	d0, d0, d0
    1304:	009f5001 	addseq	r5, pc, r1
	...
    1310:	4b000000 	blmi	1318 <_start-0x6ce8>
    1314:	01000000 	mrseq	r0, (UNDEF: 0)
    1318:	004b5100 	subeq	r5, fp, r0, lsl #2
    131c:	00680000 	rsbeq	r0, r8, r0
    1320:	00040000 	andeq	r0, r4, r0
    1324:	9f5101f3 	svcls	0x005101f3
	...
    1330:	0000004c 	andeq	r0, r0, ip, asr #32
    1334:	00000054 	andeq	r0, r0, r4, asr r0
    1338:	54500001 	ldrbpl	r0, [r0], #-1
    133c:	58000000 	stmdapl	r0, {}	; <UNPREDICTABLE>
    1340:	09000000 	stmdbeq	r0, {}	; <UNPREDICTABLE>
    1344:	74007500 	strvc	r7, [r0], #-1280	; 0xfffffb00
    1348:	00712400 	rsbseq	r2, r1, r0, lsl #8
    134c:	00589f21 	subseq	r9, r8, r1, lsr #30
    1350:	005f0000 	subseq	r0, pc, r0
    1354:	00010000 	andeq	r0, r1, r0
    1358:	00000051 	andeq	r0, r0, r1, asr r0
    135c:	00000000 	andeq	r0, r0, r0
    1360:	0000e000 	andeq	lr, r0, r0
    1364:	00011b00 	andeq	r1, r1, r0, lsl #22
    1368:	50000100 	andpl	r0, r0, r0, lsl #2
    136c:	0000011b 	andeq	r0, r0, fp, lsl r1
    1370:	00000120 	andeq	r0, r0, r0, lsr #2
    1374:	01f30004 	mvnseq	r0, r4
    1378:	01209f50 			; <UNDEFINED> instruction: 0x01209f50
    137c:	01230000 			; <UNDEFINED> instruction: 0x01230000
    1380:	00010000 	andeq	r0, r1, r0
    1384:	00012350 	andeq	r2, r1, r0, asr r3
    1388:	00013c00 	andeq	r3, r1, r0, lsl #24
    138c:	f3000400 	vshl.u8	d0, d0, d0
    1390:	3c9f5001 	ldccc	0, cr5, [pc], {1}
    1394:	3f000001 	svccc	0x00000001
    1398:	01000001 	tsteq	r0, r1
    139c:	013f5000 	teqeq	pc, r0
    13a0:	016c0000 	cmneq	ip, r0
    13a4:	00040000 	andeq	r0, r4, r0
    13a8:	9f5001f3 	svcls	0x005001f3
	...
    13b4:	000000e0 	andeq	r0, r0, r0, ror #1
    13b8:	00000108 	andeq	r0, r0, r8, lsl #2
    13bc:	08510001 	ldmdaeq	r1, {r0}^
    13c0:	1b000001 	blne	13cc <_start-0x6c34>
    13c4:	03000001 	movweq	r0, #1
    13c8:	9f017100 	svcls	0x00017100
    13cc:	0000011b 	andeq	r0, r0, fp, lsl r1
    13d0:	00000120 	andeq	r0, r0, r0, lsr #2
    13d4:	01f30004 	mvnseq	r0, r4
    13d8:	01209f51 			; <UNDEFINED> instruction: 0x01209f51
    13dc:	01230000 			; <UNDEFINED> instruction: 0x01230000
    13e0:	00010000 	andeq	r0, r1, r0
    13e4:	00012351 	andeq	r2, r1, r1, asr r3
    13e8:	00016c00 	andeq	r6, r1, r0, lsl #24
    13ec:	f3000400 	vshl.u8	d0, d0, d0
    13f0:	009f5101 	addseq	r5, pc, r1, lsl #2
    13f4:	00000000 	andeq	r0, r0, r0
    13f8:	f8000000 			; <UNDEFINED> instruction: 0xf8000000
    13fc:	fc000000 	stc2	0, cr0, [r0], {-0}
    1400:	01000000 	mrseq	r0, (UNDEF: 0)
    1404:	00fc5200 	rscseq	r5, ip, r0, lsl #4
    1408:	01040000 	mrseq	r0, (UNDEF: 4)
    140c:	00050000 	andeq	r0, r5, r0
    1410:	00968c03 	addseq	r8, r6, r3, lsl #24
    1414:	00010400 	andeq	r0, r1, r0, lsl #8
    1418:	00011b00 	andeq	r1, r1, r0, lsl #22
    141c:	53000100 	movwpl	r0, #256	; 0x100
    1420:	0000013c 	andeq	r0, r0, ip, lsr r1
    1424:	0000013f 	andeq	r0, r0, pc, lsr r1
    1428:	00530001 	subseq	r0, r3, r1
    142c:	00000000 	andeq	r0, r0, r0
    1430:	6c000000 	stcvs	0, cr0, [r0], {-0}
    1434:	80000000 	andhi	r0, r0, r0
    1438:	01000000 	mrseq	r0, (UNDEF: 0)
    143c:	00805000 	addeq	r5, r0, r0
    1440:	009b0000 	addseq	r0, fp, r0
    1444:	00010000 	andeq	r0, r1, r0
    1448:	00009b52 	andeq	r9, r0, r2, asr fp
    144c:	0000a400 	andeq	sl, r0, r0, lsl #8
    1450:	f3000900 	vmls.i8	d0, d0, d0
    1454:	07235001 	streq	r5, [r3, -r1]!
    1458:	9f1af809 	svcls	0x001af809
    145c:	000000a4 	andeq	r0, r0, r4, lsr #1
    1460:	000000a7 	andeq	r0, r0, r7, lsr #1
    1464:	a7500001 	ldrbge	r0, [r0, -r1]
    1468:	d0000000 	andle	r0, r0, r0
    146c:	04000000 	streq	r0, [r0], #-0
    1470:	5001f300 	andpl	pc, r1, r0, lsl #6
    1474:	0000009f 	muleq	r0, pc, r0	; <UNPREDICTABLE>
    1478:	00000000 	andeq	r0, r0, r0
    147c:	00008800 	andeq	r8, r0, r0, lsl #16
    1480:	0000a400 	andeq	sl, r0, r0, lsl #8
    1484:	54000100 	strpl	r0, [r0], #-256	; 0xffffff00
	...
    1490:	0000001c 	andeq	r0, r0, ip, lsl r0
    1494:	00000043 	andeq	r0, r0, r3, asr #32
    1498:	43500001 	cmpmi	r0, #1
    149c:	6c000000 	stcvs	0, cr0, [r0], {-0}
    14a0:	04000000 	streq	r0, [r0], #-0
    14a4:	5001f300 	andpl	pc, r1, r0, lsl #6
    14a8:	0000009f 	muleq	r0, pc, r0	; <UNPREDICTABLE>
    14ac:	00000000 	andeq	r0, r0, r0
    14b0:	00001c00 	andeq	r1, r0, r0, lsl #24
    14b4:	00004300 	andeq	r4, r0, r0, lsl #6
    14b8:	50000100 	andpl	r0, r0, r0, lsl #2
    14bc:	00000043 	andeq	r0, r0, r3, asr #32
    14c0:	0000006c 	andeq	r0, r0, ip, rrx
    14c4:	01f30004 	mvnseq	r0, r4
    14c8:	00009f50 	andeq	r9, r0, r0, asr pc
    14cc:	00000000 	andeq	r0, r0, r0
	...

Disassembly of section .debug_aranges:

00000000 <.debug_aranges>:
   0:	0000001c 	andeq	r0, r0, ip, lsl r0
   4:	00000002 	andeq	r0, r0, r2
   8:	00040000 	andeq	r0, r4, r0
   c:	00000000 	andeq	r0, r0, r0
  10:	00008010 	andeq	r8, r0, r0, lsl r0
  14:	000000fc 	strdeq	r0, [r0], -ip
	...
  20:	0000001c 	andeq	r0, r0, ip, lsl r0
  24:	0b200002 	bleq	800034 <__bss_end__+0x7f5fc4>
  28:	00040000 	andeq	r0, r4, r0
  2c:	00000000 	andeq	r0, r0, r0
  30:	0000810c 	andeq	r8, r0, ip, lsl #2
  34:	00000878 	andeq	r0, r0, r8, ror r8
	...
  40:	0000001c 	andeq	r0, r0, ip, lsl r0
  44:	22ed0002 	rsccs	r0, sp, #2
  48:	00040000 	andeq	r0, r4, r0
  4c:	00000000 	andeq	r0, r0, r0
  50:	00008984 	andeq	r8, r0, r4, lsl #19
  54:	00000058 	andeq	r0, r0, r8, asr r0
	...
  60:	0000001c 	andeq	r0, r0, ip, lsl r0
  64:	2c7f0002 	ldclcs	0, cr0, [pc], #-8	; 64 <_start-0x7f9c>
  68:	00040000 	andeq	r0, r4, r0
  6c:	00000000 	andeq	r0, r0, r0
  70:	000089dc 	ldrdeq	r8, [r0], -ip
  74:	00000544 	andeq	r0, r0, r4, asr #10
	...
  80:	0000001c 	andeq	r0, r0, ip, lsl r0
  84:	3af30002 	bcc	ffcc0094 <__bss_end__+0xffcb6024>
  88:	00040000 	andeq	r0, r4, r0
  8c:	00000000 	andeq	r0, r0, r0
  90:	00008f20 	andeq	r8, r0, r0, lsr #30
  94:	000000e8 	andeq	r0, r0, r8, ror #1
	...
  a0:	0000001c 	andeq	r0, r0, ip, lsl r0
  a4:	44430002 	strbmi	r0, [r3], #-2
  a8:	00040000 	andeq	r0, r4, r0
  ac:	00000000 	andeq	r0, r0, r0
  b0:	00009008 	andeq	r9, r0, r8
  b4:	00000034 	andeq	r0, r0, r4, lsr r0
	...
  c0:	0000001c 	andeq	r0, r0, ip, lsl r0
  c4:	4d320002 	ldcmi	0, cr0, [r2, #-8]!
  c8:	00040000 	andeq	r0, r4, r0
  cc:	00000000 	andeq	r0, r0, r0
  d0:	0000903c 	andeq	r9, r0, ip, lsr r0
  d4:	0000003c 	andeq	r0, r0, ip, lsr r0
	...
  e0:	0000001c 	andeq	r0, r0, ip, lsl r0
  e4:	56730002 	ldrbtpl	r0, [r3], -r2
  e8:	00040000 	andeq	r0, r4, r0
  ec:	00000000 	andeq	r0, r0, r0
  f0:	00009078 	andeq	r9, r0, r8, ror r0
  f4:	00000020 	andeq	r0, r0, r0, lsr #32
	...
 100:	0000001c 	andeq	r0, r0, ip, lsl r0
 104:	5f4f0002 	svcpl	0x004f0002
 108:	00040000 	andeq	r0, r4, r0
 10c:	00000000 	andeq	r0, r0, r0
 110:	00009098 	muleq	r0, r8, r0
 114:	00000034 	andeq	r0, r0, r4, lsr r0
	...
 120:	0000001c 	andeq	r0, r0, ip, lsl r0
 124:	68890002 	stmvs	r9, {r1}
 128:	00040000 	andeq	r0, r4, r0
 12c:	00000000 	andeq	r0, r0, r0
 130:	000090cc 	andeq	r9, r0, ip, asr #1
 134:	00000078 	andeq	r0, r0, r8, ror r0
	...
 140:	0000001c 	andeq	r0, r0, ip, lsl r0
 144:	72730002 	rsbsvc	r0, r3, #2
 148:	00040000 	andeq	r0, r4, r0
 14c:	00000000 	andeq	r0, r0, r0
 150:	00009144 	andeq	r9, r0, r4, asr #2
 154:	00000028 	andeq	r0, r0, r8, lsr #32
	...
 160:	0000001c 	andeq	r0, r0, ip, lsl r0
 164:	7b8e0002 	blvc	fe380174 <__bss_end__+0xfe376104>
 168:	00040000 	andeq	r0, r4, r0
 16c:	00000000 	andeq	r0, r0, r0
 170:	0000916c 	andeq	r9, r0, ip, ror #2
 174:	00000088 	andeq	r0, r0, r8, lsl #1
	...
 180:	0000001c 	andeq	r0, r0, ip, lsl r0
 184:	85a90002 	strhi	r0, [r9, #2]!
 188:	00040000 	andeq	r0, r4, r0
 18c:	00000000 	andeq	r0, r0, r0
 190:	00009240 	andeq	r9, r0, r0, asr #4
 194:	00000178 	andeq	r0, r0, r8, ror r1
	...
 1a0:	0000001c 	andeq	r0, r0, ip, lsl r0
 1a4:	92720002 	rsbsls	r0, r2, #2
 1a8:	00040000 	andeq	r0, r4, r0
 1ac:	00000000 	andeq	r0, r0, r0
 1b0:	000093b8 			; <UNDEFINED> instruction: 0x000093b8
 1b4:	00000120 	andeq	r0, r0, r0, lsr #2
	...
 1c0:	0000001c 	andeq	r0, r0, ip, lsl r0
 1c4:	9de60002 	stclls	0, cr0, [r6, #8]!
 1c8:	00040000 	andeq	r0, r4, r0
 1cc:	00000000 	andeq	r0, r0, r0
 1d0:	000094d8 	ldrdeq	r9, [r0], -r8
 1d4:	00000194 	muleq	r0, r4, r1
	...

Disassembly of section .debug_line:

00000000 <.debug_line>:
       0:	0000010f 	andeq	r0, r0, pc, lsl #2
       4:	00ed0002 	rsceq	r0, sp, r2
       8:	01020000 	mrseq	r0, (UNDEF: 2)
       c:	000d0efb 	strdeq	r0, [sp], -fp
      10:	01010101 	tsteq	r1, r1, lsl #2
      14:	01000000 	mrseq	r0, (UNDEF: 0)
      18:	2f010000 	svccs	0x00010000
      1c:	2f727375 	svccs	0x00727375
      20:	6c636e69 	stclvs	14, cr6, [r3], #-420	; 0xfffffe5c
      24:	2f656475 	svccs	0x00656475
      28:	6c77656e 	cfldr64vs	mvdx6, [r7], #-440	; 0xfffffe48
      2c:	732f6269 			; <UNDEFINED> instruction: 0x732f6269
      30:	2f007379 	svccs	0x00007379
      34:	2f727375 	svccs	0x00727375
      38:	2f62696c 	svccs	0x0062696c
      3c:	2f636367 	svccs	0x00636367
      40:	2d6d7261 	sfmcs	f7, 2, [sp, #-388]!	; 0xfffffe7c
      44:	656e6f6e 	strbvs	r6, [lr, #-3950]!	; 0xfffff092
      48:	6261652d 	rsbvs	r6, r1, #188743680	; 0xb400000
      4c:	2e362f69 	cdpcs	15, 3, cr2, cr6, cr9, {3}
      50:	2f312e33 	svccs	0x00312e33
      54:	6c636e69 	stclvs	14, cr6, [r3], #-420	; 0xfffffe5c
      58:	00656475 	rsbeq	r6, r5, r5, ror r4
      5c:	6d6f682f 	stclvs	8, cr6, [pc, #-188]!	; ffffffa8 <__bss_end__+0xffff5f38>
      60:	73752f65 	cmnvc	r5, #404	; 0x194
      64:	442f7265 	strtmi	r7, [pc], #-613	; 6c <_start-0x7f94>
      68:	432f7665 			; <UNDEFINED> instruction: 0x432f7665
      6c:	30343253 	eorscc	r3, r4, r3, asr r2
      70:	6c2f2f58 	stcvs	15, cr2, [pc], #-352	; ffffff18 <__bss_end__+0xffff5ea8>
      74:	69706269 	ldmdbvs	r0!, {r0, r3, r5, r6, r9, sp, lr}^
      78:	636e692f 	cmnvs	lr, #770048	; 0xbc000
      7c:	6564756c 	strbvs	r7, [r4, #-1388]!	; 0xfffffa94
      80:	73752f00 	cmnvc	r5, #0, 30
      84:	6e692f72 	mcrvs	15, 3, r2, cr9, cr2, {3}
      88:	64756c63 	ldrbtvs	r6, [r5], #-3171	; 0xfffff39d
      8c:	656e2f65 	strbvs	r2, [lr, #-3941]!	; 0xfffff09b
      90:	62696c77 	rsbvs	r6, r9, #30464	; 0x7700
      94:	61700000 	cmnvs	r0, r0
      98:	2d317472 	cfldrscs	mvf7, [r1, #-456]!	; 0xfffffe38
      9c:	74736574 	ldrbtvc	r6, [r3], #-1396	; 0xfffffa8c
      a0:	00632e34 	rsbeq	r2, r3, r4, lsr lr
      a4:	6c000000 	stcvs	0, cr0, [r0], {-0}
      a8:	2e6b636f 	cdpcs	3, 6, cr6, cr11, cr15, {3}
      ac:	00010068 	andeq	r0, r1, r8, rrx
      b0:	79745f00 	ldmdbvc	r4!, {r8, r9, sl, fp, ip, lr}^
      b4:	2e736570 	mrccs	5, 3, r6, cr3, cr0, {3}
      b8:	00010068 	andeq	r0, r1, r8, rrx
      bc:	64747300 	ldrbtvs	r7, [r4], #-768	; 0xfffffd00
      c0:	2e666564 	cdpcs	5, 6, cr6, cr6, cr4, {3}
      c4:	00020068 	andeq	r0, r2, r8, rrx
      c8:	65657200 	strbvs	r7, [r5, #-512]!	; 0xfffffe00
      cc:	682e746e 	stmdavs	lr!, {r1, r2, r3, r5, r6, sl, ip, sp, lr}
      d0:	00000100 	andeq	r0, r0, r0, lsl #2
      d4:	2e697072 	mcrcs	0, 3, r7, cr9, cr2, {3}
      d8:	00030068 	andeq	r0, r3, r8, rrx
      dc:	616b6300 	cmnvs	fp, r0, lsl #6
      e0:	636f6c6c 	cmnvs	pc, #108, 24	; 0x6c00
      e4:	0000682e 	andeq	r6, r0, lr, lsr #16
      e8:	74730000 	ldrbtvc	r0, [r3], #-0
      ec:	676e6972 			; <UNDEFINED> instruction: 0x676e6972
      f0:	0400682e 	streq	r6, [r0], #-2094	; 0xfffff7d2
      f4:	00000000 	andeq	r0, r0, r0
      f8:	80100205 	andshi	r0, r0, r5, lsl #4
      fc:	2f160000 	svccs	0x00160000
     100:	f3844c4d 	vqdmulh.s<illegal width 8>	q2, q2, d1[3]
     104:	8469a067 	strbthi	sl, [r9], #-103	; 0xffffff99
     108:	7703694c 	strvc	r6, [r3, -ip, asr #18]
     10c:	1c02dd9e 	stcne	13, cr13, [r2], {158}	; 0x9e
     110:	5a010100 	bpl	40518 <__bss_end__+0x364a8>
     114:	02000002 	andeq	r0, r0, #2
     118:	00012b00 	andeq	r2, r1, r0, lsl #22
     11c:	fb010200 	blx	40926 <__bss_end__+0x368b6>
     120:	01000d0e 	tsteq	r0, lr, lsl #26
     124:	00010101 	andeq	r0, r1, r1, lsl #2
     128:	00010000 	andeq	r0, r1, r0
     12c:	752f0100 	strvc	r0, [pc, #-256]!	; 34 <_start-0x7fcc>
     130:	6c2f7273 	sfmvs	f7, 4, [pc], #-460	; ffffff6c <__bss_end__+0xffff5efc>
     134:	672f6269 	strvs	r6, [pc, -r9, ror #4]!
     138:	612f6363 			; <UNDEFINED> instruction: 0x612f6363
     13c:	6e2d6d72 	mcrvs	13, 1, r6, cr13, cr2, {3}
     140:	2d656e6f 	stclcs	14, cr6, [r5, #-444]!	; 0xfffffe44
     144:	69626165 	stmdbvs	r2!, {r0, r2, r5, r6, r8, sp, lr}^
     148:	332e362f 			; <UNDEFINED> instruction: 0x332e362f
     14c:	692f312e 	stmdbvs	pc!, {r1, r2, r3, r5, r8, ip, sp}	; <UNPREDICTABLE>
     150:	756c636e 	strbvc	r6, [ip, #-878]!	; 0xfffffc92
     154:	2f006564 	svccs	0x00006564
     158:	2f727375 	svccs	0x00727375
     15c:	6c636e69 	stclvs	14, cr6, [r3], #-420	; 0xfffffe5c
     160:	2f656475 	svccs	0x00656475
     164:	6c77656e 	cfldr64vs	mvdx6, [r7], #-440	; 0xfffffe48
     168:	732f6269 			; <UNDEFINED> instruction: 0x732f6269
     16c:	2f007379 	svccs	0x00007379
     170:	656d6f68 	strbvs	r6, [sp, #-3944]!	; 0xfffff098
     174:	6573752f 	ldrbvs	r7, [r3, #-1327]!	; 0xfffffad1
     178:	65442f72 	strbvs	r2, [r4, #-3954]	; 0xfffff08e
     17c:	53432f76 	movtpl	r2, #16246	; 0x3f76
     180:	58303432 	ldmdapl	r0!, {r1, r4, r5, sl, ip, sp}
     184:	696c2f2f 	stmdbvs	ip!, {r0, r1, r2, r3, r5, r8, r9, sl, fp, sp}^
     188:	2f697062 	svccs	0x00697062
     18c:	6c636e69 	stclvs	14, cr6, [r3], #-420	; 0xfffffe5c
     190:	00656475 	rsbeq	r6, r5, r5, ror r4
     194:	7273752f 	rsbsvc	r7, r3, #197132288	; 0xbc00000
     198:	636e692f 	cmnvs	lr, #770048	; 0xbc000
     19c:	6564756c 	strbvs	r7, [r4, #-1388]!	; 0xfffffa94
     1a0:	77656e2f 	strbvc	r6, [r5, -pc, lsr #28]!
     1a4:	0062696c 	rsbeq	r6, r2, ip, ror #18
     1a8:	6d6f682f 	stclvs	8, cr6, [pc, #-188]!	; f4 <_start-0x7f0c>
     1ac:	73752f65 	cmnvc	r5, #404	; 0x194
     1b0:	442f7265 	strtmi	r7, [pc], #-613	; 1b8 <_start-0x7e48>
     1b4:	432f7665 			; <UNDEFINED> instruction: 0x432f7665
     1b8:	30343253 	eorscc	r3, r4, r3, asr r2
     1bc:	6c2f2f58 	stcvs	15, cr2, [pc], #-352	; 64 <_start-0x7f9c>
     1c0:	69706269 	ldmdbvs	r0!, {r0, r3, r5, r6, r9, sp, lr}^
     1c4:	62696c2f 	rsbvs	r6, r9, #12032	; 0x2f00
     1c8:	63000063 	movwvs	r0, #99	; 0x63
     1cc:	6c6c616b 	stfvse	f6, [ip], #-428	; 0xfffffe54
     1d0:	632e636f 			; <UNDEFINED> instruction: 0x632e636f
     1d4:	00000000 	andeq	r0, r0, r0
     1d8:	6c616b63 			; <UNDEFINED> instruction: 0x6c616b63
     1dc:	2e636f6c 	cdpcs	15, 6, cr6, cr3, cr12, {3}
     1e0:	00000068 	andeq	r0, r0, r8, rrx
     1e4:	64747300 	ldrbtvs	r7, [r4], #-768	; 0xfffffd00
     1e8:	2d746e69 	ldclcs	14, cr6, [r4, #-420]!	; 0xfffffe5c
     1ec:	2e636367 	cdpcs	3, 6, cr6, cr3, cr7, {3}
     1f0:	00010068 	andeq	r0, r1, r8, rrx
     1f4:	636f6c00 	cmnvs	pc, #0, 24
     1f8:	00682e6b 	rsbeq	r2, r8, fp, ror #28
     1fc:	5f000002 	svcpl	0x00000002
     200:	65707974 	ldrbvs	r7, [r0, #-2420]!	; 0xfffff68c
     204:	00682e73 	rsbeq	r2, r8, r3, ror lr
     208:	73000002 	movwvc	r0, #2
     20c:	65646474 	strbvs	r6, [r4, #-1140]!	; 0xfffffb8c
     210:	00682e66 	rsbeq	r2, r8, r6, ror #28
     214:	72000001 	andvc	r0, r0, #1
     218:	746e6565 	strbtvc	r6, [lr], #-1381	; 0xfffffa9b
     21c:	0200682e 	andeq	r6, r0, #3014656	; 0x2e0000
     220:	70720000 	rsbsvc	r0, r2, r0
     224:	00682e69 	rsbeq	r2, r8, r9, ror #28
     228:	73000003 	movwvc	r0, #3
     22c:	6e697274 	mcrvs	2, 3, r7, cr9, cr4, {3}
     230:	00682e67 	rsbeq	r2, r8, r7, ror #28
     234:	6c000004 	stcvs	0, cr0, [r0], {4}
     238:	2d636269 	sfmcs	f6, 2, [r3, #-420]!	; 0xfffffe5c
     23c:	72747865 	rsbsvc	r7, r4, #6619136	; 0x650000
     240:	00682e61 	rsbeq	r2, r8, r1, ror #28
     244:	00000005 	andeq	r0, r0, r5
     248:	0c020500 	cfstr32eq	mvfx0, [r2], {-0}
     24c:	03000081 	movweq	r0, #129	; 0x81
     250:	4c010112 	stfmis	f0, [r1], {18}
     254:	844a682e 	strbhi	r6, [sl], #-2094	; 0xfffff7d2
     258:	03146901 	tsteq	r4, #16384	; 0x4000
     25c:	00304a23 	eorseq	r4, r0, r3, lsr #20
     260:	06010402 	streq	r0, [r1], -r2, lsl #8
     264:	004b062e 	subeq	r0, fp, lr, lsr #12
     268:	49020402 	stmdbmi	r2, {r1, sl}
     26c:	02048384 	andeq	r8, r4, #132, 6	; 0x10000002
     270:	20081003 	andcs	r1, r8, r3
     274:	04d967a0 	ldrbeq	r6, [r9], #1952	; 0x7a0
     278:	666b0301 	strbtvs	r0, [fp], -r1, lsl #6
     27c:	03020483 	movweq	r0, #9347	; 0x2483
     280:	04674a14 	strbteq	r4, [r7], #-2580	; 0xfffff5ec
     284:	f26f0301 	vcgt.s32	d16, d15, d1
     288:	032ff42f 	msreq	CPSR_fsxc, #788529152	; 0x2f000000
     28c:	2f4b8251 	svccs	0x004b8251
     290:	31304b4b 	teqcc	r0, fp, asr #22
     294:	0204844b 	andeq	r8, r4, #1258291200	; 0x4b000000
     298:	20082903 	andcs	r2, r8, r3, lsl #18
     29c:	04d967a0 	ldrbeq	r6, [r9], #1952	; 0x7a0
     2a0:	66520301 	ldrbvs	r0, [r2], -r1, lsl #6
     2a4:	01040200 	mrseq	r0, R12_usr
     2a8:	02048847 	andeq	r8, r4, #4653056	; 0x470000
     2ac:	674a2b03 	strbvs	r2, [sl, -r3, lsl #22]
     2b0:	51030104 	tstpl	r3, r4, lsl #2
     2b4:	30d86ad6 	ldrsbcc	r6, [r8], #166	; 0xa6
     2b8:	01040200 	mrseq	r0, R12_usr
     2bc:	4b062e06 	blmi	18badc <__bss_end__+0x181a6c>
     2c0:	02040200 	andeq	r0, r4, #0, 4
     2c4:	04838449 	streq	r8, [r3], #1097	; 0x449
     2c8:	081d0302 	ldmdaeq	sp, {r1, r8, r9}
     2cc:	d967a03c 	stmdble	r7!, {r2, r3, r4, r5, sp, pc}^
     2d0:	5e030104 	adfpls	f0, f3, f4
     2d4:	03020466 	movweq	r0, #9318	; 0x2466
     2d8:	04674a22 	strbteq	r4, [r7], #-2594	; 0xfffff5de
     2dc:	d65d0301 	ldrble	r0, [sp], -r1, lsl #6
     2e0:	0333464e 	teqeq	r3, #81788928	; 0x4e00000
     2e4:	304cd61a 	subcc	sp, ip, sl, lsl r6
     2e8:	04020049 	streq	r0, [r2], #-73	; 0xffffffb7
     2ec:	0806d703 	stmdaeq	r6, {r0, r1, r8, r9, sl, ip, lr, pc}
     2f0:	032f0658 			; <UNDEFINED> instruction: 0x032f0658
     2f4:	2f2e7fab 	svccs	0x002e7fab
     2f8:	006783bb 	strhteq	r8, [r7], #-59	; 0xffffffc5
     2fc:	63010402 	movwvs	r0, #5122	; 0x1402
     300:	0800e803 	stmdaeq	r0, {r0, r1, fp, sp, lr, pc}
     304:	9f309f74 	svcls	0x00309f74
     308:	4e6b849f 	mcrmi	4, 3, r8, cr11, cr15, {4}
     30c:	04020083 	streq	r0, [r2], #-131	; 0xffffff7d
     310:	82720301 	rsbshi	r0, r2, #67108864	; 0x4000000
     314:	90081203 	andls	r1, r8, r3, lsl #4
     318:	4ba0d76a 	blmi	fe8360c8 <__bss_end__+0xfe82c058>
     31c:	2fbf4d31 	svccs	0x00bf4d31
     320:	4b674b2f 	blmi	19d2fe4 <__bss_end__+0x19c8f74>
     324:	68f3834b 	ldmvs	r3!, {r0, r1, r3, r6, r8, r9, pc}^
     328:	d8678383 	stmdale	r7!, {r0, r1, r7, r8, r9, pc}^
     32c:	01040200 	mrseq	r0, R12_usr
     330:	de666203 	cdple	2, 6, cr6, cr6, cr3, {0}
     334:	02009308 	andeq	r9, r0, #8, 6	; 0x20000000
     338:	0f030104 	svceq	0x00030104
     33c:	03012a02 	movweq	r2, #6658	; 0x1a02
     340:	01280209 			; <UNDEFINED> instruction: 0x01280209
     344:	c04c832f 	subgt	r8, ip, pc, lsr #6
     348:	33322d2b 	teqcc	r2, #2752	; 0xac0
     34c:	2e10032f 	cdpcs	3, 1, cr0, cr0, cr15, {1}
     350:	7003a04d 	andvc	sl, r3, sp, asr #32
     354:	6f03354a 	svcvs	0x0003354a
     358:	0402002e 	streq	r0, [r2], #-46	; 0xffffffd2
     35c:	89859d01 	stmibhi	r5, {r0, r8, sl, fp, ip, pc}
     360:	01040200 	mrseq	r0, R12_usr
     364:	0806d606 	stmdaeq	r6, {r1, r2, r9, sl, ip, lr, pc}
     368:	52bb4c5a 	adcspl	r4, fp, #23040	; 0x5a00
     36c:	01001802 	tsteq	r0, r2, lsl #16
     370:	00010001 	andeq	r0, r1, r1
     374:	e9000200 	stmdb	r0, {r9}
     378:	02000000 	andeq	r0, r0, #0
     37c:	0d0efb01 	vstreq	d15, [lr, #-4]
     380:	01010100 	mrseq	r0, (UNDEF: 17)
     384:	00000001 	andeq	r0, r0, r1
     388:	01000001 	tsteq	r0, r1
     38c:	6362696c 	cmnvs	r2, #108, 18	; 0x1b0000
     390:	73752f00 	cmnvc	r5, #0, 30
     394:	696c2f72 	stmdbvs	ip!, {r1, r4, r5, r6, r8, r9, sl, fp, sp}^
     398:	63672f62 	cmnvs	r7, #392	; 0x188
     39c:	72612f63 	rsbvc	r2, r1, #396	; 0x18c
     3a0:	6f6e2d6d 	svcvs	0x006e2d6d
     3a4:	652d656e 	strvs	r6, [sp, #-1390]!	; 0xfffffa92
     3a8:	2f696261 	svccs	0x00696261
     3ac:	2e332e36 	mrccs	14, 1, r2, cr3, cr6, {1}
     3b0:	6e692f31 	mcrvs	15, 3, r2, cr9, cr1, {1}
     3b4:	64756c63 	ldrbtvs	r6, [r5], #-3171	; 0xfffff39d
     3b8:	752f0065 	strvc	r0, [pc, #-101]!	; 35b <_start-0x7ca5>
     3bc:	692f7273 	stmdbvs	pc!, {r0, r1, r4, r5, r6, r9, ip, sp, lr}	; <UNPREDICTABLE>
     3c0:	756c636e 	strbvc	r6, [ip, #-878]!	; 0xfffffc92
     3c4:	6e2f6564 	cfsh64vs	mvdx6, mvdx15, #52
     3c8:	696c7765 	stmdbvs	ip!, {r0, r2, r5, r6, r8, r9, sl, ip, sp, lr}^
     3cc:	79732f62 	ldmdbvc	r3!, {r1, r5, r6, r8, r9, sl, fp, sp}^
     3d0:	682f0073 	stmdavs	pc!, {r0, r1, r4, r5, r6}	; <UNPREDICTABLE>
     3d4:	2f656d6f 	svccs	0x00656d6f
     3d8:	72657375 	rsbvc	r7, r5, #-738197503	; 0xd4000001
     3dc:	7665442f 	strbtvc	r4, [r5], -pc, lsr #8
     3e0:	3253432f 	subscc	r4, r3, #-1140850688	; 0xbc000000
     3e4:	2f583034 	svccs	0x00583034
     3e8:	62696c2f 	rsbvs	r6, r9, #12032	; 0x2f00
     3ec:	692f6970 	stmdbvs	pc!, {r4, r5, r6, r8, fp, sp, lr}	; <UNPREDICTABLE>
     3f0:	756c636e 	strbvc	r6, [ip, #-878]!	; 0xfffffc92
     3f4:	00006564 	andeq	r6, r0, r4, ror #10
     3f8:	6e697270 	mcrvs	2, 3, r7, cr9, cr0, {3}
     3fc:	632e6b74 			; <UNDEFINED> instruction: 0x632e6b74
     400:	00000100 	andeq	r0, r0, r0, lsl #2
     404:	61647473 	smcvs	18243	; 0x4743
     408:	682e6772 	stmdavs	lr!, {r1, r4, r5, r6, r8, r9, sl, sp, lr}
     40c:	00000200 	andeq	r0, r0, r0, lsl #4
     410:	6b636f6c 	blvs	18dc1c8 <__bss_end__+0x18d2158>
     414:	0300682e 	movweq	r6, #2094	; 0x82e
     418:	745f0000 	ldrbvc	r0, [pc], #-0	; 420 <_start-0x7be0>
     41c:	73657079 	cmnvc	r5, #121	; 0x79
     420:	0300682e 	movweq	r6, #2094	; 0x82e
     424:	74730000 	ldrbtvc	r0, [r3], #-0
     428:	66656464 	strbtvs	r6, [r5], -r4, ror #8
     42c:	0200682e 	andeq	r6, r0, #3014656	; 0x2e0000
     430:	65720000 	ldrbvs	r0, [r2, #-0]!
     434:	2e746e65 	cdpcs	14, 7, cr6, cr4, cr5, {3}
     438:	00030068 	andeq	r0, r3, r8, rrx
     43c:	75623c00 	strbvc	r3, [r2, #-3072]!	; 0xfffff400
     440:	2d746c69 	ldclcs	12, cr6, [r4, #-420]!	; 0xfffffe5c
     444:	003e6e69 	eorseq	r6, lr, r9, ror #28
     448:	72000000 	andvc	r0, r0, #0
     44c:	682e6970 	stmdavs	lr!, {r4, r5, r6, r8, fp, sp, lr}
     450:	00000400 	andeq	r0, r0, r0, lsl #8
     454:	702d6176 	eorvc	r6, sp, r6, ror r1
     458:	746e6972 	strbtvc	r6, [lr], #-2418	; 0xfffff68e
     45c:	00682e6b 	rsbeq	r2, r8, fp, ror #28
     460:	00000001 	andeq	r0, r0, r1
     464:	84020500 	strhi	r0, [r2], #-1280	; 0xfffffb00
     468:	17000089 	strne	r0, [r0, -r9, lsl #1]
     46c:	89bf4b6b 	ldmibhi	pc!, {r0, r1, r3, r5, r6, r8, r9, fp, lr}	; <UNPREDICTABLE>
     470:	01000e02 	tsteq	r0, r2, lsl #28
     474:	0001ce01 	andeq	ip, r1, r1, lsl #28
     478:	dd000200 	sfmle	f0, 4, [r0, #-0]
     47c:	02000000 	andeq	r0, r0, #0
     480:	0d0efb01 	vstreq	d15, [lr, #-4]
     484:	01010100 	mrseq	r0, (UNDEF: 17)
     488:	00000001 	andeq	r0, r0, r1
     48c:	01000001 	tsteq	r0, r1
     490:	6362696c 	cmnvs	r2, #108, 18	; 0x1b0000
     494:	73752f00 	cmnvc	r5, #0, 30
     498:	6e692f72 	mcrvs	15, 3, r2, cr9, cr2, {3}
     49c:	64756c63 	ldrbtvs	r6, [r5], #-3171	; 0xfffff39d
     4a0:	656e2f65 	strbvs	r2, [lr, #-3941]!	; 0xfffff09b
     4a4:	62696c77 	rsbvs	r6, r9, #30464	; 0x7700
     4a8:	7379732f 	cmnvc	r9, #-1140850688	; 0xbc000000
     4ac:	73752f00 	cmnvc	r5, #0, 30
     4b0:	696c2f72 	stmdbvs	ip!, {r1, r4, r5, r6, r8, r9, sl, fp, sp}^
     4b4:	63672f62 	cmnvs	r7, #392	; 0x188
     4b8:	72612f63 	rsbvc	r2, r1, #396	; 0x18c
     4bc:	6f6e2d6d 	svcvs	0x006e2d6d
     4c0:	652d656e 	strvs	r6, [sp, #-1390]!	; 0xfffffa92
     4c4:	2f696261 	svccs	0x00696261
     4c8:	2e332e36 	mrccs	14, 1, r2, cr3, cr6, {1}
     4cc:	6e692f31 	mcrvs	15, 3, r2, cr9, cr1, {1}
     4d0:	64756c63 	ldrbtvs	r6, [r5], #-3171	; 0xfffff39d
     4d4:	682f0065 	stmdavs	pc!, {r0, r2, r5, r6}	; <UNPREDICTABLE>
     4d8:	2f656d6f 	svccs	0x00656d6f
     4dc:	72657375 	rsbvc	r7, r5, #-738197503	; 0xd4000001
     4e0:	7665442f 	strbtvc	r4, [r5], -pc, lsr #8
     4e4:	3253432f 	subscc	r4, r3, #-1140850688	; 0xbc000000
     4e8:	2f583034 	svccs	0x00583034
     4ec:	62696c2f 	rsbvs	r6, r9, #12032	; 0x2f00
     4f0:	692f6970 	stmdbvs	pc!, {r4, r5, r6, r8, fp, sp, lr}	; <UNPREDICTABLE>
     4f4:	756c636e 	strbvc	r6, [ip, #-878]!	; 0xfffffc92
     4f8:	00006564 	andeq	r6, r0, r4, ror #10
     4fc:	702d6176 	eorvc	r6, sp, r6, ror r1
     500:	746e6972 	strbtvc	r6, [lr], #-2418	; 0xfffff68e
     504:	00632e6b 	rsbeq	r2, r3, fp, ror #28
     508:	6c000001 	stcvs	0, cr0, [r0], {1}
     50c:	2e6b636f 	cdpcs	3, 6, cr6, cr11, cr15, {3}
     510:	00020068 	andeq	r0, r2, r8, rrx
     514:	79745f00 	ldmdbvc	r4!, {r8, r9, sl, fp, ip, lr}^
     518:	2e736570 	mrccs	5, 3, r6, cr3, cr0, {3}
     51c:	00020068 	andeq	r0, r2, r8, rrx
     520:	64747300 	ldrbtvs	r7, [r4], #-768	; 0xfffffd00
     524:	2e666564 	cdpcs	5, 6, cr6, cr6, cr4, {3}
     528:	00030068 	andeq	r0, r3, r8, rrx
     52c:	65657200 	strbvs	r7, [r5, #-512]!	; 0xfffffe00
     530:	682e746e 	stmdavs	lr!, {r1, r2, r3, r5, r6, sl, ip, sp, lr}
     534:	00000200 	andeq	r0, r0, r0, lsl #4
     538:	2e697072 	mcrcs	0, 3, r7, cr9, cr2, {3}
     53c:	00040068 	andeq	r0, r4, r8, rrx
     540:	64747300 	ldrbtvs	r7, [r4], #-768	; 0xfffffd00
     544:	2e677261 	cdpcs	2, 6, cr7, cr7, cr1, {3}
     548:	00030068 	andeq	r0, r3, r8, rrx
     54c:	75623c00 	strbvc	r3, [r2, #-3072]!	; 0xfffff400
     550:	2d746c69 	ldclcs	12, cr6, [r4, #-420]!	; 0xfffffe5c
     554:	003e6e69 	eorseq	r6, lr, r9, ror #28
     558:	00000000 	andeq	r0, r0, r0
     55c:	dc020500 	cfstr32le	mvfx0, [r2], {-0}
     560:	03000089 	movweq	r0, #137	; 0x89
     564:	a5010126 	strge	r0, [r1, #-294]	; 0xfffffeda
     568:	02003013 	andeq	r3, r0, #19
     56c:	002f0204 	eoreq	r0, pc, r4, lsl #4
     570:	49020402 	stmdbmi	r2, {r1, sl}
     574:	02040200 	andeq	r0, r4, #0, 4
     578:	0402002f 	streq	r0, [r2], #-47	; 0xffffffd1
     57c:	4c4c2d01 	mcrrmi	13, 0, r2, ip, cr1
     580:	2f4b1430 	svccs	0x004b1430
     584:	0402004f 	streq	r0, [r2], #-79	; 0xffffffb1
     588:	02006703 	andeq	r6, r0, #786432	; 0xc0000
     58c:	4c650104 	stfmie	f0, [r5], #-16
     590:	2fa0304d 	svccs	0x00a0304d
     594:	26023031 			; <UNDEFINED> instruction: 0x26023031
     598:	002da016 	eoreq	sl, sp, r6, lsl r0
     59c:	06010402 	streq	r0, [r1], -r2, lsl #8
     5a0:	5148062e 	cmppl	r8, lr, lsr #12
     5a4:	01040200 	mrseq	r0, R12_usr
     5a8:	02002e06 	andeq	r2, r0, #6, 28	; 0x60
     5ac:	08060104 	stmdaeq	r6, {r2, r8}
     5b0:	032f6759 			; <UNDEFINED> instruction: 0x032f6759
     5b4:	02008273 	andeq	r8, r0, #805306375	; 0x30000007
     5b8:	13030104 	movwne	r0, #12548	; 0x3104
     5bc:	0402002e 	streq	r0, [r2], #-46	; 0xffffffd2
     5c0:	674bbb01 	strbvs	fp, [fp, -r1, lsl #22]
     5c4:	d74a1503 	strble	r1, [sl, -r3, lsl #10]
     5c8:	4b4a6e03 	blmi	129bddc <__bss_end__+0x1291d6c>
     5cc:	002e6503 	eoreq	r6, lr, r3, lsl #10
     5d0:	03010402 	movweq	r0, #5122	; 0x1402
     5d4:	02002e23 	andeq	r2, r0, #560	; 0x230
     5d8:	00bb0104 	adcseq	r0, fp, r4, lsl #2
     5dc:	6a010402 	bvs	415ec <__bss_end__+0x3757c>
     5e0:	087fa803 	ldmdaeq	pc!, {r0, r1, fp, sp, pc}^	; <UNPREDICTABLE>
     5e4:	4b4b13ac 	blmi	12c549c <__bss_end__+0x12bb42c>
     5e8:	0402002f 	streq	r0, [r2], #-47	; 0xffffffd1
     5ec:	02006201 	andeq	r6, r0, #268435456	; 0x10000000
     5f0:	032f0104 			; <UNDEFINED> instruction: 0x032f0104
     5f4:	740800df 	strvc	r0, [r8], #-223	; 0xffffff21
     5f8:	31484c83 	smlalbbcc	r4, r8, r3, ip
     5fc:	01040200 	mrseq	r0, R12_usr
     600:	4b066606 	blmi	199e20 <__bss_end__+0x18fdb0>
     604:	314e842f 	cmpcc	lr, pc, lsr #8
     608:	2e780330 	mrccs	3, 3, r0, cr8, cr0, {1}
     60c:	09032d2f 	stmdbeq	r3, {r0, r1, r2, r3, r5, r8, sl, fp, sp}
     610:	a22c834a 	eorge	r8, ip, #671088641	; 0x28000001
     614:	0402004c 	streq	r0, [r2], #-76	; 0xffffffb4
     618:	10360201 	eorsne	r0, r6, r1, lsl #4
     61c:	d60e03dc 			; <UNDEFINED> instruction: 0xd60e03dc
     620:	58081603 	stmdapl	r8, {r0, r1, r9, sl, ip}
     624:	2e6a0331 	mcrcs	3, 3, r0, cr10, cr1, {1}
     628:	08315908 	ldmdaeq	r1!, {r3, r8, fp, ip, lr}
     62c:	59083059 	stmdbpl	r8, {r0, r3, r4, r6, ip, sp}
     630:	08308330 	ldmdaeq	r0!, {r4, r5, r8, r9, pc}
     634:	27083059 	smlsdcs	r8, r9, r0, r3
     638:	04020065 	streq	r0, [r2], #-101	; 0xffffff9b
     63c:	064a0601 	strbeq	r0, [sl], -r1, lsl #12
     640:	10026886 	andne	r6, r2, r6, lsl #17
     644:	2a010100 	bcs	40a4c <__bss_end__+0x369dc>
     648:	02000001 	andeq	r0, r0, #1
     64c:	0000ce00 	andeq	ip, r0, r0, lsl #28
     650:	fb010200 	blx	40e5a <__bss_end__+0x36dea>
     654:	01000d0e 	tsteq	r0, lr, lsl #26
     658:	00010101 	andeq	r0, r1, r1, lsl #2
     65c:	00010000 	andeq	r0, r1, r0
     660:	696c0100 	stmdbvs	ip!, {r8}^
     664:	2f006362 	svccs	0x00006362
     668:	2f727375 	svccs	0x00727375
     66c:	2f62696c 	svccs	0x0062696c
     670:	2f636367 	svccs	0x00636367
     674:	2d6d7261 	sfmcs	f7, 2, [sp, #-388]!	; 0xfffffe7c
     678:	656e6f6e 	strbvs	r6, [lr, #-3950]!	; 0xfffff092
     67c:	6261652d 	rsbvs	r6, r1, #188743680	; 0xb400000
     680:	2e362f69 	cdpcs	15, 3, cr2, cr6, cr9, {3}
     684:	2f312e33 	svccs	0x00312e33
     688:	6c636e69 	stclvs	14, cr6, [r3], #-420	; 0xfffffe5c
     68c:	00656475 	rsbeq	r6, r5, r5, ror r4
     690:	7273752f 	rsbsvc	r7, r3, #197132288	; 0xbc00000
     694:	636e692f 	cmnvs	lr, #770048	; 0xbc000
     698:	6564756c 	strbvs	r7, [r4, #-1388]!	; 0xfffffa94
     69c:	77656e2f 	strbvc	r6, [r5, -pc, lsr #28]!
     6a0:	2f62696c 	svccs	0x0062696c
     6a4:	00737973 	rsbseq	r7, r3, r3, ror r9
     6a8:	6d6f682f 	stclvs	8, cr6, [pc, #-188]!	; 5f4 <_start-0x7a0c>
     6ac:	73752f65 	cmnvc	r5, #404	; 0x194
     6b0:	442f7265 	strtmi	r7, [pc], #-613	; 6b8 <_start-0x7948>
     6b4:	432f7665 			; <UNDEFINED> instruction: 0x432f7665
     6b8:	30343253 	eorscc	r3, r4, r3, asr r2
     6bc:	6c2f2f58 	stcvs	15, cr2, [pc], #-352	; 564 <_start-0x7a9c>
     6c0:	69706269 	ldmdbvs	r0!, {r0, r3, r5, r6, r9, sp, lr}^
     6c4:	636e692f 	cmnvs	lr, #770048	; 0xbc000
     6c8:	6564756c 	strbvs	r7, [r4, #-1388]!	; 0xfffffa94
     6cc:	61680000 	cmnvs	r8, r0
     6d0:	632e6873 			; <UNDEFINED> instruction: 0x632e6873
     6d4:	00000100 	andeq	r0, r0, r0, lsl #2
     6d8:	69647473 	stmdbvs	r4!, {r0, r1, r4, r5, r6, sl, ip, sp, lr}^
     6dc:	672d746e 	strvs	r7, [sp, -lr, ror #8]!
     6e0:	682e6363 	stmdavs	lr!, {r0, r1, r5, r6, r8, r9, sp, lr}
     6e4:	00000200 	andeq	r0, r0, r0, lsl #4
     6e8:	6b636f6c 	blvs	18dc4a0 <__bss_end__+0x18d2430>
     6ec:	0300682e 	movweq	r6, #2094	; 0x82e
     6f0:	745f0000 	ldrbvc	r0, [pc], #-0	; 6f8 <_start-0x7908>
     6f4:	73657079 	cmnvc	r5, #121	; 0x79
     6f8:	0300682e 	movweq	r6, #2094	; 0x82e
     6fc:	74730000 	ldrbtvc	r0, [r3], #-0
     700:	66656464 	strbtvs	r6, [r5], -r4, ror #8
     704:	0200682e 	andeq	r6, r0, #3014656	; 0x2e0000
     708:	65720000 	ldrbvs	r0, [r2, #-0]!
     70c:	2e746e65 	cdpcs	14, 7, cr6, cr4, cr5, {3}
     710:	00030068 	andeq	r0, r3, r8, rrx
     714:	69707200 	ldmdbvs	r0!, {r9, ip, sp, lr}^
     718:	0400682e 	streq	r6, [r0], #-2094	; 0xfffff7d2
     71c:	00000000 	andeq	r0, r0, r0
     720:	8f200205 	svchi	0x00200205
     724:	0e030000 	cdpeq	0, 0, cr0, cr3, cr0, {0}
     728:	51611701 	cmnpl	r1, r1, lsl #14
     72c:	0200312f 	andeq	r3, r0, #-1073741813	; 0xc000000b
     730:	002f0204 	eoreq	r0, pc, r4, lsl #4
     734:	83020402 	movwhi	r0, #9218	; 0x2402
     738:	02040200 	andeq	r0, r4, #0, 4
     73c:	04020083 	streq	r0, [r2], #-131	; 0xffffff7d
     740:	02002f02 	andeq	r2, r0, #2, 30
     744:	002f0204 	eoreq	r0, pc, r4, lsl #4
     748:	29020402 	stmdbcs	r2, {r1, sl}
     74c:	01040200 	mrseq	r0, R12_usr
     750:	03062e06 	movweq	r2, #28166	; 0x6e06
     754:	10034a09 	andne	r4, r3, r9, lsl #20
     758:	2f2f2fba 	svccs	0x002f2fba
     75c:	03302f2f 	teqeq	r0, #47, 30	; 0xbc
     760:	2f832e6a 	svccs	0x00832e6a
     764:	832f2f4b 			; <UNDEFINED> instruction: 0x832f2f4b
     768:	4b2f2f2f 	blmi	bcc42c <__bss_end__+0xbc23bc>
     76c:	4a65032f 	bmi	1941430 <__bss_end__+0x19373c0>
     770:	01000402 	tsteq	r0, r2, lsl #8
     774:	0000e401 	andeq	lr, r0, r1, lsl #8
     778:	be000200 	cdplt	2, 0, cr0, cr0, cr0, {0}
     77c:	02000000 	andeq	r0, r0, #0
     780:	0d0efb01 	vstreq	d15, [lr, #-4]
     784:	01010100 	mrseq	r0, (UNDEF: 17)
     788:	00000001 	andeq	r0, r0, r1
     78c:	01000001 	tsteq	r0, r1
     790:	6362696c 	cmnvs	r2, #108, 18	; 0x1b0000
     794:	73752f00 	cmnvc	r5, #0, 30
     798:	6e692f72 	mcrvs	15, 3, r2, cr9, cr2, {3}
     79c:	64756c63 	ldrbtvs	r6, [r5], #-3171	; 0xfffff39d
     7a0:	656e2f65 	strbvs	r2, [lr, #-3941]!	; 0xfffff09b
     7a4:	62696c77 	rsbvs	r6, r9, #30464	; 0x7700
     7a8:	7379732f 	cmnvc	r9, #-1140850688	; 0xbc000000
     7ac:	73752f00 	cmnvc	r5, #0, 30
     7b0:	696c2f72 	stmdbvs	ip!, {r1, r4, r5, r6, r8, r9, sl, fp, sp}^
     7b4:	63672f62 	cmnvs	r7, #392	; 0x188
     7b8:	72612f63 	rsbvc	r2, r1, #396	; 0x18c
     7bc:	6f6e2d6d 	svcvs	0x006e2d6d
     7c0:	652d656e 	strvs	r6, [sp, #-1390]!	; 0xfffffa92
     7c4:	2f696261 	svccs	0x00696261
     7c8:	2e332e36 	mrccs	14, 1, r2, cr3, cr6, {1}
     7cc:	6e692f31 	mcrvs	15, 3, r2, cr9, cr1, {1}
     7d0:	64756c63 	ldrbtvs	r6, [r5], #-3171	; 0xfffff39d
     7d4:	682f0065 	stmdavs	pc!, {r0, r2, r5, r6}	; <UNPREDICTABLE>
     7d8:	2f656d6f 	svccs	0x00656d6f
     7dc:	72657375 	rsbvc	r7, r5, #-738197503	; 0xd4000001
     7e0:	7665442f 	strbtvc	r4, [r5], -pc, lsr #8
     7e4:	3253432f 	subscc	r4, r3, #-1140850688	; 0xbc000000
     7e8:	2f583034 	svccs	0x00583034
     7ec:	62696c2f 	rsbvs	r6, r9, #12032	; 0x2f00
     7f0:	692f6970 	stmdbvs	pc!, {r4, r5, r6, r8, fp, sp, lr}	; <UNPREDICTABLE>
     7f4:	756c636e 	strbvc	r6, [ip, #-878]!	; 0xfffffc92
     7f8:	00006564 	andeq	r6, r0, r4, ror #10
     7fc:	6b747570 	blvs	1d1ddc4 <__bss_end__+0x1d13d54>
     800:	0100632e 	tsteq	r0, lr, lsr #6
     804:	6f6c0000 	svcvs	0x006c0000
     808:	682e6b63 	stmdavs	lr!, {r0, r1, r5, r6, r8, r9, fp, sp, lr}
     80c:	00000200 	andeq	r0, r0, r0, lsl #4
     810:	7079745f 	rsbsvc	r7, r9, pc, asr r4
     814:	682e7365 	stmdavs	lr!, {r0, r2, r5, r6, r8, r9, ip, sp, lr}
     818:	00000200 	andeq	r0, r0, r0, lsl #4
     81c:	64647473 	strbtvs	r7, [r4], #-1139	; 0xfffffb8d
     820:	682e6665 	stmdavs	lr!, {r0, r2, r5, r6, r9, sl, sp, lr}
     824:	00000300 	andeq	r0, r0, r0, lsl #6
     828:	6e656572 	mcrvs	5, 3, r6, cr5, cr2, {3}
     82c:	00682e74 	rsbeq	r2, r8, r4, ror lr
     830:	72000002 	andvc	r0, r0, #2
     834:	682e6970 	stmdavs	lr!, {r4, r5, r6, r8, fp, sp, lr}
     838:	00000400 	andeq	r0, r0, r0, lsl #8
     83c:	02050000 	andeq	r0, r5, #0
     840:	00009008 	andeq	r9, r0, r8
     844:	02004b15 	andeq	r4, r0, #21504	; 0x5400
     848:	002f0204 	eoreq	r0, pc, r4, lsl #4
     84c:	65020402 	strvs	r0, [r2, #-1026]	; 0xfffffbfe
     850:	01040200 	mrseq	r0, R12_usr
     854:	6b062e06 	blvs	18c074 <__bss_end__+0x182004>
     858:	01000602 	tsteq	r0, r2, lsl #12
     85c:	0000d901 	andeq	sp, r0, r1, lsl #18
     860:	c1000200 	mrsgt	r0, R8_usr
     864:	02000000 	andeq	r0, r0, #0
     868:	0d0efb01 	vstreq	d15, [lr, #-4]
     86c:	01010100 	mrseq	r0, (UNDEF: 17)
     870:	00000001 	andeq	r0, r0, r1
     874:	01000001 	tsteq	r0, r1
     878:	6362696c 	cmnvs	r2, #108, 18	; 0x1b0000
     87c:	73752f00 	cmnvc	r5, #0, 30
     880:	6e692f72 	mcrvs	15, 3, r2, cr9, cr2, {3}
     884:	64756c63 	ldrbtvs	r6, [r5], #-3171	; 0xfffff39d
     888:	656e2f65 	strbvs	r2, [lr, #-3941]!	; 0xfffff09b
     88c:	62696c77 	rsbvs	r6, r9, #30464	; 0x7700
     890:	7379732f 	cmnvc	r9, #-1140850688	; 0xbc000000
     894:	73752f00 	cmnvc	r5, #0, 30
     898:	696c2f72 	stmdbvs	ip!, {r1, r4, r5, r6, r8, r9, sl, fp, sp}^
     89c:	63672f62 	cmnvs	r7, #392	; 0x188
     8a0:	72612f63 	rsbvc	r2, r1, #396	; 0x18c
     8a4:	6f6e2d6d 	svcvs	0x006e2d6d
     8a8:	652d656e 	strvs	r6, [sp, #-1390]!	; 0xfffffa92
     8ac:	2f696261 	svccs	0x00696261
     8b0:	2e332e36 	mrccs	14, 1, r2, cr3, cr6, {1}
     8b4:	6e692f31 	mcrvs	15, 3, r2, cr9, cr1, {1}
     8b8:	64756c63 	ldrbtvs	r6, [r5], #-3171	; 0xfffff39d
     8bc:	682f0065 	stmdavs	pc!, {r0, r2, r5, r6}	; <UNPREDICTABLE>
     8c0:	2f656d6f 	svccs	0x00656d6f
     8c4:	72657375 	rsbvc	r7, r5, #-738197503	; 0xd4000001
     8c8:	7665442f 	strbtvc	r4, [r5], -pc, lsr #8
     8cc:	3253432f 	subscc	r4, r3, #-1140850688	; 0xbc000000
     8d0:	2f583034 	svccs	0x00583034
     8d4:	62696c2f 	rsbvs	r6, r9, #12032	; 0x2f00
     8d8:	692f6970 	stmdbvs	pc!, {r4, r5, r6, r8, fp, sp, lr}	; <UNPREDICTABLE>
     8dc:	756c636e 	strbvc	r6, [ip, #-878]!	; 0xfffffc92
     8e0:	00006564 	andeq	r6, r0, r4, ror #10
     8e4:	63747570 	cmnvs	r4, #112, 10	; 0x1c000000
     8e8:	2e726168 	rpwcssz	f6, f2, #0.0
     8ec:	00010063 	andeq	r0, r1, r3, rrx
     8f0:	636f6c00 	cmnvs	pc, #0, 24
     8f4:	00682e6b 	rsbeq	r2, r8, fp, ror #28
     8f8:	5f000002 	svcpl	0x00000002
     8fc:	65707974 	ldrbvs	r7, [r0, #-2420]!	; 0xfffff68c
     900:	00682e73 	rsbeq	r2, r8, r3, ror lr
     904:	73000002 	movwvc	r0, #2
     908:	65646474 	strbvs	r6, [r4, #-1140]!	; 0xfffffb8c
     90c:	00682e66 	rsbeq	r2, r8, r6, ror #28
     910:	72000003 	andvc	r0, r0, #3
     914:	746e6565 	strbtvc	r6, [lr], #-1381	; 0xfffffa9b
     918:	0200682e 	andeq	r6, r0, #3014656	; 0x2e0000
     91c:	70720000 	rsbsvc	r0, r2, r0
     920:	00682e69 	rsbeq	r2, r8, r9, ror #28
     924:	00000004 	andeq	r0, r0, r4
     928:	3c020500 	cfstr32cc	mvfx0, [r2], {-0}
     92c:	14000090 	strne	r0, [r0], #-144	; 0xffffff70
     930:	bc136b4a 			; <UNDEFINED> instruction: 0xbc136b4a
     934:	00080213 	andeq	r0, r8, r3, lsl r2
     938:	00ca0101 	sbceq	r0, sl, r1, lsl #2
     93c:	00020000 	andeq	r0, r2, r0
     940:	000000b2 	strheq	r0, [r0], -r2
     944:	0efb0102 	cdpeq	1, 15, cr0, cr11, cr2, {0}
     948:	0101000d 	tsteq	r1, sp
     94c:	00000101 	andeq	r0, r0, r1, lsl #2
     950:	00000100 	andeq	r0, r0, r0, lsl #2
     954:	62696c01 	rsbvs	r6, r9, #256	; 0x100
     958:	752f0063 	strvc	r0, [pc, #-99]!	; 8fd <_start-0x7703>
     95c:	6c2f7273 	sfmvs	f7, 4, [pc], #-460	; 798 <_start-0x7868>
     960:	672f6269 	strvs	r6, [pc, -r9, ror #4]!
     964:	612f6363 			; <UNDEFINED> instruction: 0x612f6363
     968:	6e2d6d72 	mcrvs	13, 1, r6, cr13, cr2, {3}
     96c:	2d656e6f 	stclcs	14, cr6, [r5, #-444]!	; 0xfffffe44
     970:	69626165 	stmdbvs	r2!, {r0, r2, r5, r6, r8, sp, lr}^
     974:	332e362f 			; <UNDEFINED> instruction: 0x332e362f
     978:	692f312e 	stmdbvs	pc!, {r1, r2, r3, r5, r8, ip, sp}	; <UNPREDICTABLE>
     97c:	756c636e 	strbvc	r6, [ip, #-878]!	; 0xfffffc92
     980:	2f006564 	svccs	0x00006564
     984:	2f727375 	svccs	0x00727375
     988:	6c636e69 	stclvs	14, cr6, [r3], #-420	; 0xfffffe5c
     98c:	2f656475 	svccs	0x00656475
     990:	6c77656e 	cfldr64vs	mvdx6, [r7], #-440	; 0xfffffe48
     994:	732f6269 			; <UNDEFINED> instruction: 0x732f6269
     998:	2f007379 	svccs	0x00007379
     99c:	2f727375 	svccs	0x00727375
     9a0:	6c636e69 	stclvs	14, cr6, [r3], #-420	; 0xfffffe5c
     9a4:	2f656475 	svccs	0x00656475
     9a8:	6c77656e 	cfldr64vs	mvdx6, [r7], #-440	; 0xfffffe48
     9ac:	00006269 	andeq	r6, r0, r9, ror #4
     9b0:	736d656d 	cmnvc	sp, #457179136	; 0x1b400000
     9b4:	632e7465 			; <UNDEFINED> instruction: 0x632e7465
     9b8:	00000100 	andeq	r0, r0, r0, lsl #2
     9bc:	64647473 	strbtvs	r7, [r4], #-1139	; 0xfffffb8d
     9c0:	682e6665 	stmdavs	lr!, {r0, r2, r5, r6, r9, sl, sp, lr}
     9c4:	00000200 	andeq	r0, r0, r0, lsl #4
     9c8:	6b636f6c 	blvs	18dc780 <__bss_end__+0x18d2710>
     9cc:	0300682e 	movweq	r6, #2094	; 0x82e
     9d0:	745f0000 	ldrbvc	r0, [pc], #-0	; 9d8 <_start-0x7628>
     9d4:	73657079 	cmnvc	r5, #121	; 0x79
     9d8:	0300682e 	movweq	r6, #2094	; 0x82e
     9dc:	65720000 	ldrbvs	r0, [r2, #-0]!
     9e0:	2e746e65 	cdpcs	14, 7, cr6, cr4, cr5, {3}
     9e4:	00030068 	andeq	r0, r3, r8, rrx
     9e8:	72747300 	rsbsvc	r7, r4, #0, 6
     9ec:	2e676e69 	cdpcs	14, 6, cr6, cr7, cr9, {3}
     9f0:	00040068 	andeq	r0, r4, r8, rrx
     9f4:	05000000 	streq	r0, [r0, #-0]
     9f8:	00907802 	addseq	r7, r0, r2, lsl #16
     9fc:	4c131400 	cfldrsmi	mvf1, [r3], {-0}
     a00:	024d492f 	subeq	r4, sp, #770048	; 0xbc000
     a04:	01010002 	tsteq	r1, r2
     a08:	000000e2 	andeq	r0, r0, r2, ror #1
     a0c:	00c50002 	sbceq	r0, r5, r2
     a10:	01020000 	mrseq	r0, (UNDEF: 2)
     a14:	000d0efb 	strdeq	r0, [sp], -fp
     a18:	01010101 	tsteq	r1, r1, lsl #2
     a1c:	01000000 	mrseq	r0, (UNDEF: 0)
     a20:	73010000 	movwvc	r0, #4096	; 0x1000
     a24:	66666174 			; <UNDEFINED> instruction: 0x66666174
     a28:	6372732d 	cmnvs	r2, #-1275068416	; 0xb4000000
     a2c:	73752f00 	cmnvc	r5, #0, 30
     a30:	6e692f72 	mcrvs	15, 3, r2, cr9, cr2, {3}
     a34:	64756c63 	ldrbtvs	r6, [r5], #-3171	; 0xfffff39d
     a38:	656e2f65 	strbvs	r2, [lr, #-3941]!	; 0xfffff09b
     a3c:	62696c77 	rsbvs	r6, r9, #30464	; 0x7700
     a40:	7379732f 	cmnvc	r9, #-1140850688	; 0xbc000000
     a44:	73752f00 	cmnvc	r5, #0, 30
     a48:	696c2f72 	stmdbvs	ip!, {r1, r4, r5, r6, r8, r9, sl, fp, sp}^
     a4c:	63672f62 	cmnvs	r7, #392	; 0x188
     a50:	72612f63 	rsbvc	r2, r1, #396	; 0x18c
     a54:	6f6e2d6d 	svcvs	0x006e2d6d
     a58:	652d656e 	strvs	r6, [sp, #-1390]!	; 0xfffffa92
     a5c:	2f696261 	svccs	0x00696261
     a60:	2e332e36 	mrccs	14, 1, r2, cr3, cr6, {1}
     a64:	6e692f31 	mcrvs	15, 3, r2, cr9, cr1, {1}
     a68:	64756c63 	ldrbtvs	r6, [r5], #-3171	; 0xfffff39d
     a6c:	682f0065 	stmdavs	pc!, {r0, r2, r5, r6}	; <UNPREDICTABLE>
     a70:	2f656d6f 	svccs	0x00656d6f
     a74:	72657375 	rsbvc	r7, r5, #-738197503	; 0xd4000001
     a78:	7665442f 	strbtvc	r4, [r5], -pc, lsr #8
     a7c:	3253432f 	subscc	r4, r3, #-1140850688	; 0xbc000000
     a80:	2f583034 	svccs	0x00583034
     a84:	62696c2f 	rsbvs	r6, r9, #12032	; 0x2f00
     a88:	692f6970 	stmdbvs	pc!, {r4, r5, r6, r8, fp, sp, lr}	; <UNPREDICTABLE>
     a8c:	756c636e 	strbvc	r6, [ip, #-878]!	; 0xfffffc92
     a90:	00006564 	andeq	r6, r0, r4, ror #10
     a94:	61747363 	cmnvs	r4, r3, ror #6
     a98:	632e7472 			; <UNDEFINED> instruction: 0x632e7472
     a9c:	00000100 	andeq	r0, r0, r0, lsl #2
     aa0:	6b636f6c 	blvs	18dc858 <__bss_end__+0x18d27e8>
     aa4:	0200682e 	andeq	r6, r0, #3014656	; 0x2e0000
     aa8:	745f0000 	ldrbvc	r0, [pc], #-0	; ab0 <_start-0x7550>
     aac:	73657079 	cmnvc	r5, #121	; 0x79
     ab0:	0200682e 	andeq	r6, r0, #3014656	; 0x2e0000
     ab4:	74730000 	ldrbtvc	r0, [r3], #-0
     ab8:	66656464 	strbtvs	r6, [r5], -r4, ror #8
     abc:	0300682e 	movweq	r6, #2094	; 0x82e
     ac0:	65720000 	ldrbvs	r0, [r2, #-0]!
     ac4:	2e746e65 	cdpcs	14, 7, cr6, cr4, cr5, {3}
     ac8:	00020068 	andeq	r0, r2, r8, rrx
     acc:	69707200 	ldmdbvs	r0!, {r9, ip, sp, lr}^
     ad0:	0400682e 	streq	r6, [r0], #-2094	; 0xfffff7d2
     ad4:	00000000 	andeq	r0, r0, r0
     ad8:	90980205 	addsls	r0, r8, r5, lsl #4
     adc:	0c030000 	stceq	0, cr0, [r3], {-0}
     ae0:	2f313201 	svccs	0x00313201
     ae4:	66150365 	ldrvs	r0, [r5], -r5, ror #6
     ae8:	0006022f 	andeq	r0, r6, pc, lsr #4
     aec:	00e90101 	rsceq	r0, r9, r1, lsl #2
     af0:	00020000 	andeq	r0, r2, r0
     af4:	000000c5 	andeq	r0, r0, r5, asr #1
     af8:	0efb0102 	cdpeq	1, 15, cr0, cr11, cr2, {0}
     afc:	0101000d 	tsteq	r1, sp
     b00:	00000101 	andeq	r0, r0, r1, lsl #2
     b04:	00000100 	andeq	r0, r0, r0, lsl #2
     b08:	61747301 	cmnvs	r4, r1, lsl #6
     b0c:	732d6666 			; <UNDEFINED> instruction: 0x732d6666
     b10:	2f006372 	svccs	0x00006372
     b14:	2f727375 	svccs	0x00727375
     b18:	6c636e69 	stclvs	14, cr6, [r3], #-420	; 0xfffffe5c
     b1c:	2f656475 	svccs	0x00656475
     b20:	6c77656e 	cfldr64vs	mvdx6, [r7], #-440	; 0xfffffe48
     b24:	732f6269 			; <UNDEFINED> instruction: 0x732f6269
     b28:	2f007379 	svccs	0x00007379
     b2c:	2f727375 	svccs	0x00727375
     b30:	2f62696c 	svccs	0x0062696c
     b34:	2f636367 	svccs	0x00636367
     b38:	2d6d7261 	sfmcs	f7, 2, [sp, #-388]!	; 0xfffffe7c
     b3c:	656e6f6e 	strbvs	r6, [lr, #-3950]!	; 0xfffff092
     b40:	6261652d 	rsbvs	r6, r1, #188743680	; 0xb400000
     b44:	2e362f69 	cdpcs	15, 3, cr2, cr6, cr9, {3}
     b48:	2f312e33 	svccs	0x00312e33
     b4c:	6c636e69 	stclvs	14, cr6, [r3], #-420	; 0xfffffe5c
     b50:	00656475 	rsbeq	r6, r5, r5, ror r4
     b54:	6d6f682f 	stclvs	8, cr6, [pc, #-188]!	; aa0 <_start-0x7560>
     b58:	73752f65 	cmnvc	r5, #404	; 0x194
     b5c:	442f7265 	strtmi	r7, [pc], #-613	; b64 <_start-0x749c>
     b60:	432f7665 			; <UNDEFINED> instruction: 0x432f7665
     b64:	30343253 	eorscc	r3, r4, r3, asr r2
     b68:	6c2f2f58 	stcvs	15, cr2, [pc], #-352	; a10 <_start-0x75f0>
     b6c:	69706269 	ldmdbvs	r0!, {r0, r3, r5, r6, r9, sp, lr}^
     b70:	636e692f 	cmnvs	lr, #770048	; 0xbc000
     b74:	6564756c 	strbvs	r7, [r4, #-1388]!	; 0xfffffa94
     b78:	65720000 	ldrbvs	r0, [r2, #-0]!
     b7c:	746f6f62 	strbtvc	r6, [pc], #-3938	; b84 <_start-0x747c>
     b80:	0100632e 	tsteq	r0, lr, lsr #6
     b84:	6f6c0000 	svcvs	0x006c0000
     b88:	682e6b63 	stmdavs	lr!, {r0, r1, r5, r6, r8, r9, fp, sp, lr}
     b8c:	00000200 	andeq	r0, r0, r0, lsl #4
     b90:	7079745f 	rsbsvc	r7, r9, pc, asr r4
     b94:	682e7365 	stmdavs	lr!, {r0, r2, r5, r6, r8, r9, ip, sp, lr}
     b98:	00000200 	andeq	r0, r0, r0, lsl #4
     b9c:	64647473 	strbtvs	r7, [r4], #-1139	; 0xfffffb8d
     ba0:	682e6665 	stmdavs	lr!, {r0, r2, r5, r6, r9, sl, sp, lr}
     ba4:	00000300 	andeq	r0, r0, r0, lsl #6
     ba8:	6e656572 	mcrvs	5, 3, r6, cr5, cr2, {3}
     bac:	00682e74 	rsbeq	r2, r8, r4, ror lr
     bb0:	72000002 	andvc	r0, r0, #2
     bb4:	682e6970 	stmdavs	lr!, {r4, r5, r6, r8, fp, sp, lr}
     bb8:	00000400 	andeq	r0, r0, r0, lsl #8
     bbc:	02050000 	andeq	r0, r5, #0
     bc0:	000090cc 	andeq	r9, r0, ip, asr #1
     bc4:	14010d03 	strne	r0, [r1], #-3331	; 0xfffff2fd
     bc8:	15852f31 	strne	r2, [r5, #3889]	; 0xf31
     bcc:	2f4d4b2f 	svccs	0x004d4b2f
     bd0:	0367526e 	cmneq	r7, #-536870906	; 0xe0000006
     bd4:	0c028270 	sfmeq	f0, 1, [r2], {112}	; 0x70
     bd8:	e1010100 	mrs	r0, (UNDEF: 17)
     bdc:	02000000 	andeq	r0, r0, #0
     be0:	0000cb00 	andeq	ip, r0, r0, lsl #22
     be4:	fb010200 	blx	413ee <__bss_end__+0x3737e>
     be8:	01000d0e 	tsteq	r0, lr, lsl #26
     bec:	00010101 	andeq	r0, r1, r1, lsl #2
     bf0:	00010000 	andeq	r0, r1, r0
     bf4:	74730100 	ldrbtvc	r0, [r3], #-256	; 0xffffff00
     bf8:	2d666661 	stclcs	6, cr6, [r6, #-388]!	; 0xfffffe7c
     bfc:	00637273 	rsbeq	r7, r3, r3, ror r2
     c00:	7273752f 	rsbsvc	r7, r3, #197132288	; 0xbc00000
     c04:	636e692f 	cmnvs	lr, #770048	; 0xbc000
     c08:	6564756c 	strbvs	r7, [r4, #-1388]!	; 0xfffffa94
     c0c:	77656e2f 	strbvc	r6, [r5, -pc, lsr #28]!
     c10:	2f62696c 	svccs	0x0062696c
     c14:	00737973 	rsbseq	r7, r3, r3, ror r9
     c18:	7273752f 	rsbsvc	r7, r3, #197132288	; 0xbc00000
     c1c:	62696c2f 	rsbvs	r6, r9, #12032	; 0x2f00
     c20:	6363672f 	cmnvs	r3, #12320768	; 0xbc0000
     c24:	6d72612f 	ldfvse	f6, [r2, #-188]!	; 0xffffff44
     c28:	6e6f6e2d 	cdpvs	14, 6, cr6, cr15, cr13, {1}
     c2c:	61652d65 	cmnvs	r5, r5, ror #26
     c30:	362f6962 	strtcc	r6, [pc], -r2, ror #18
     c34:	312e332e 			; <UNDEFINED> instruction: 0x312e332e
     c38:	636e692f 	cmnvs	lr, #770048	; 0xbc000
     c3c:	6564756c 	strbvs	r7, [r4, #-1388]!	; 0xfffffa94
     c40:	6f682f00 	svcvs	0x00682f00
     c44:	752f656d 	strvc	r6, [pc, #-1389]!	; 6df <_start-0x7921>
     c48:	2f726573 	svccs	0x00726573
     c4c:	2f766544 	svccs	0x00766544
     c50:	34325343 	ldrtcc	r5, [r2], #-835	; 0xfffffcbd
     c54:	2f2f5830 	svccs	0x002f5830
     c58:	7062696c 	rsbvc	r6, r2, ip, ror #18
     c5c:	6e692f69 	cdpvs	15, 6, cr2, cr9, cr9, {3}
     c60:	64756c63 	ldrbtvs	r6, [r5], #-3171	; 0xfffff39d
     c64:	63000065 	movwvs	r0, #101	; 0x65
     c68:	6e61656c 	cdpvs	5, 6, cr6, cr1, cr12, {3}
     c6c:	6265722d 	rsbvs	r7, r5, #-805306366	; 0xd0000002
     c70:	2e746f6f 	cdpcs	15, 7, cr6, cr4, cr15, {3}
     c74:	00010063 	andeq	r0, r1, r3, rrx
     c78:	636f6c00 	cmnvs	pc, #0, 24
     c7c:	00682e6b 	rsbeq	r2, r8, fp, ror #28
     c80:	5f000002 	svcpl	0x00000002
     c84:	65707974 	ldrbvs	r7, [r0, #-2420]!	; 0xfffff68c
     c88:	00682e73 	rsbeq	r2, r8, r3, ror lr
     c8c:	73000002 	movwvc	r0, #2
     c90:	65646474 	strbvs	r6, [r4, #-1140]!	; 0xfffffb8c
     c94:	00682e66 	rsbeq	r2, r8, r6, ror #28
     c98:	72000003 	andvc	r0, r0, #3
     c9c:	746e6565 	strbtvc	r6, [lr], #-1381	; 0xfffffa9b
     ca0:	0200682e 	andeq	r6, r0, #3014656	; 0x2e0000
     ca4:	70720000 	rsbsvc	r0, r2, r0
     ca8:	00682e69 	rsbeq	r2, r8, r9, ror #28
     cac:	00000004 	andeq	r0, r0, r4
     cb0:	44020500 	strmi	r0, [r2], #-1280	; 0xfffffb00
     cb4:	15000091 	strne	r0, [r0, #-145]	; 0xffffff6f
     cb8:	024b832f 	subeq	r8, fp, #-1140850688	; 0xbc000000
     cbc:	01010006 	tsteq	r1, r6
     cc0:	000000ea 	andeq	r0, r0, sl, ror #1
     cc4:	00c40002 	sbceq	r0, r4, r2
     cc8:	01020000 	mrseq	r0, (UNDEF: 2)
     ccc:	000d0efb 	strdeq	r0, [sp], -fp
     cd0:	01010101 	tsteq	r1, r1, lsl #2
     cd4:	01000000 	mrseq	r0, (UNDEF: 0)
     cd8:	73010000 	movwvc	r0, #4096	; 0x1000
     cdc:	66666174 			; <UNDEFINED> instruction: 0x66666174
     ce0:	6372732d 	cmnvs	r2, #-1275068416	; 0xb4000000
     ce4:	73752f00 	cmnvc	r5, #0, 30
     ce8:	6e692f72 	mcrvs	15, 3, r2, cr9, cr2, {3}
     cec:	64756c63 	ldrbtvs	r6, [r5], #-3171	; 0xfffff39d
     cf0:	656e2f65 	strbvs	r2, [lr, #-3941]!	; 0xfffff09b
     cf4:	62696c77 	rsbvs	r6, r9, #30464	; 0x7700
     cf8:	7379732f 	cmnvc	r9, #-1140850688	; 0xbc000000
     cfc:	73752f00 	cmnvc	r5, #0, 30
     d00:	696c2f72 	stmdbvs	ip!, {r1, r4, r5, r6, r8, r9, sl, fp, sp}^
     d04:	63672f62 	cmnvs	r7, #392	; 0x188
     d08:	72612f63 	rsbvc	r2, r1, #396	; 0x18c
     d0c:	6f6e2d6d 	svcvs	0x006e2d6d
     d10:	652d656e 	strvs	r6, [sp, #-1390]!	; 0xfffffa92
     d14:	2f696261 	svccs	0x00696261
     d18:	2e332e36 	mrccs	14, 1, r2, cr3, cr6, {1}
     d1c:	6e692f31 	mcrvs	15, 3, r2, cr9, cr1, {1}
     d20:	64756c63 	ldrbtvs	r6, [r5], #-3171	; 0xfffff39d
     d24:	682f0065 	stmdavs	pc!, {r0, r2, r5, r6}	; <UNPREDICTABLE>
     d28:	2f656d6f 	svccs	0x00656d6f
     d2c:	72657375 	rsbvc	r7, r5, #-738197503	; 0xd4000001
     d30:	7665442f 	strbtvc	r4, [r5], -pc, lsr #8
     d34:	3253432f 	subscc	r4, r3, #-1140850688	; 0xbc000000
     d38:	2f583034 	svccs	0x00583034
     d3c:	62696c2f 	rsbvs	r6, r9, #12032	; 0x2f00
     d40:	692f6970 	stmdbvs	pc!, {r4, r5, r6, r8, fp, sp, lr}	; <UNPREDICTABLE>
     d44:	756c636e 	strbvc	r6, [ip, #-878]!	; 0xfffffc92
     d48:	00006564 	andeq	r6, r0, r4, ror #10
     d4c:	656d6974 	strbvs	r6, [sp, #-2420]!	; 0xfffff68c
     d50:	00632e72 	rsbeq	r2, r3, r2, ror lr
     d54:	6c000001 	stcvs	0, cr0, [r0], {1}
     d58:	2e6b636f 	cdpcs	3, 6, cr6, cr11, cr15, {3}
     d5c:	00020068 	andeq	r0, r2, r8, rrx
     d60:	79745f00 	ldmdbvc	r4!, {r8, r9, sl, fp, ip, lr}^
     d64:	2e736570 	mrccs	5, 3, r6, cr3, cr0, {3}
     d68:	00020068 	andeq	r0, r2, r8, rrx
     d6c:	64747300 	ldrbtvs	r7, [r4], #-768	; 0xfffffd00
     d70:	2e666564 	cdpcs	5, 6, cr6, cr6, cr4, {3}
     d74:	00030068 	andeq	r0, r3, r8, rrx
     d78:	65657200 	strbvs	r7, [r5, #-512]!	; 0xfffffe00
     d7c:	682e746e 	stmdavs	lr!, {r1, r2, r3, r5, r6, sl, ip, sp, lr}
     d80:	00000200 	andeq	r0, r0, r0, lsl #4
     d84:	2e697072 	mcrcs	0, 3, r7, cr9, cr2, {3}
     d88:	00040068 	andeq	r0, r4, r8, rrx
     d8c:	05000000 	streq	r0, [r0, #-0]
     d90:	00916c02 	addseq	r6, r1, r2, lsl #24
     d94:	2f141600 	svccs	0x00141600
     d98:	2f31892d 	svccs	0x0031892d
     d9c:	31324d4b 	teqcc	r2, fp, asr #26
     da0:	2f4c4b30 	svccs	0x004c4b30
     da4:	842f2f6a 	strthi	r2, [pc], #-3946	; dac <_start-0x7254>
     da8:	0008022f 	andeq	r0, r8, pc, lsr #4
     dac:	01480101 	cmpeq	r8, r1, lsl #2
     db0:	00020000 	andeq	r0, r2, r0
     db4:	00000102 	andeq	r0, r0, r2, lsl #2
     db8:	0efb0102 	cdpeq	1, 15, cr0, cr11, cr2, {0}
     dbc:	0101000d 	tsteq	r1, sp
     dc0:	00000101 	andeq	r0, r0, r1, lsl #2
     dc4:	00000100 	andeq	r0, r0, r0, lsl #2
     dc8:	73752f01 	cmnvc	r5, #1, 30
     dcc:	6e692f72 	mcrvs	15, 3, r2, cr9, cr2, {3}
     dd0:	64756c63 	ldrbtvs	r6, [r5], #-3171	; 0xfffff39d
     dd4:	656e2f65 	strbvs	r2, [lr, #-3941]!	; 0xfffff09b
     dd8:	62696c77 	rsbvs	r6, r9, #30464	; 0x7700
     ddc:	7379732f 	cmnvc	r9, #-1140850688	; 0xbc000000
     de0:	73752f00 	cmnvc	r5, #0, 30
     de4:	696c2f72 	stmdbvs	ip!, {r1, r4, r5, r6, r8, r9, sl, fp, sp}^
     de8:	63672f62 	cmnvs	r7, #392	; 0x188
     dec:	72612f63 	rsbvc	r2, r1, #396	; 0x18c
     df0:	6f6e2d6d 	svcvs	0x006e2d6d
     df4:	652d656e 	strvs	r6, [sp, #-1390]!	; 0xfffffa92
     df8:	2f696261 	svccs	0x00696261
     dfc:	2e332e36 	mrccs	14, 1, r2, cr3, cr6, {1}
     e00:	6e692f31 	mcrvs	15, 3, r2, cr9, cr1, {1}
     e04:	64756c63 	ldrbtvs	r6, [r5], #-3171	; 0xfffff39d
     e08:	682f0065 	stmdavs	pc!, {r0, r2, r5, r6}	; <UNPREDICTABLE>
     e0c:	2f656d6f 	svccs	0x00656d6f
     e10:	6c676e65 	stclvs	14, cr6, [r7], #-404	; 0xfffffe6c
     e14:	632f7265 			; <UNDEFINED> instruction: 0x632f7265
     e18:	7373616c 	cmnvc	r3, #108, 2
     e1c:	3273632f 	rsbscc	r6, r3, #-1140850688	; 0xbc000000
     e20:	786c3034 	stmdavc	ip!, {r2, r4, r5, ip, sp}^
     e24:	7330322d 	teqvc	r0, #-805306366	; 0xd0000002
     e28:	2f2f7270 	svccs	0x002f7270
     e2c:	7062696c 	rsbvc	r6, r2, ip, ror #18
     e30:	682f0069 	stmdavs	pc!, {r0, r3, r5, r6}	; <UNPREDICTABLE>
     e34:	2f656d6f 	svccs	0x00656d6f
     e38:	6c676e65 	stclvs	14, cr6, [r7], #-404	; 0xfffffe6c
     e3c:	632f7265 			; <UNDEFINED> instruction: 0x632f7265
     e40:	7373616c 	cmnvc	r3, #108, 2
     e44:	3273632f 	rsbscc	r6, r3, #-1140850688	; 0xbc000000
     e48:	786c3034 	stmdavc	ip!, {r2, r4, r5, ip, sp}^
     e4c:	7330322d 	teqvc	r0, #-805306366	; 0xd0000002
     e50:	2f2f7270 	svccs	0x002f7270
     e54:	7062696c 	rsbvc	r6, r2, ip, ror #18
     e58:	74732f69 	ldrbtvc	r2, [r3], #-3945	; 0xfffff097
     e5c:	2d666661 	stclcs	6, cr6, [r6, #-388]!	; 0xfffffe7c
     e60:	00637273 	rsbeq	r7, r3, r3, ror r2
     e64:	72617500 	rsbvc	r7, r1, #0, 10
     e68:	00632e74 	rsbeq	r2, r3, r4, ror lr
     e6c:	6c000000 	stcvs	0, cr0, [r0], {-0}
     e70:	2e6b636f 	cdpcs	3, 6, cr6, cr11, cr15, {3}
     e74:	00010068 	andeq	r0, r1, r8, rrx
     e78:	79745f00 	ldmdbvc	r4!, {r8, r9, sl, fp, ip, lr}^
     e7c:	2e736570 	mrccs	5, 3, r6, cr3, cr0, {3}
     e80:	00010068 	andeq	r0, r1, r8, rrx
     e84:	64747300 	ldrbtvs	r7, [r4], #-768	; 0xfffffd00
     e88:	2e666564 	cdpcs	5, 6, cr6, cr6, cr4, {3}
     e8c:	00020068 	andeq	r0, r2, r8, rrx
     e90:	65657200 	strbvs	r7, [r5, #-512]!	; 0xfffffe00
     e94:	682e746e 	stmdavs	lr!, {r1, r2, r3, r5, r6, sl, ip, sp, lr}
     e98:	00000100 	andeq	r0, r0, r0, lsl #2
     e9c:	2e697072 	mcrcs	0, 3, r7, cr9, cr2, {3}
     ea0:	00030068 	andeq	r0, r3, r8, rrx
     ea4:	72617500 	rsbvc	r7, r1, #0, 10
     ea8:	00682e74 	rsbeq	r2, r8, r4, ror lr
     eac:	67000004 	strvs	r0, [r0, -r4]
     eb0:	2e6f6970 			; <UNDEFINED> instruction: 0x2e6f6970
     eb4:	00040068 	andeq	r0, r4, r8, rrx
     eb8:	05000000 	streq	r0, [r0, #-0]
     ebc:	00924002 	addseq	r4, r2, r2
     ec0:	012c0300 			; <UNDEFINED> instruction: 0x012c0300
     ec4:	9e0c0367 	cdpls	3, 0, cr0, cr12, cr7, {3}
     ec8:	35686735 	strbcc	r6, [r8, #-1845]!	; 0xfffff8cb
     ecc:	2e0c0368 	cdpcs	3, 0, cr0, cr12, cr8, {3}
     ed0:	69696b85 	stmdbvs	r9!, {r0, r2, r7, r8, r9, fp, sp, lr}^
     ed4:	6b660c03 	blvs	1983ee8 <__bss_end__+0x1979e78>
     ed8:	34420867 	strbcc	r0, [r2], #-2151	; 0xfffff799
     edc:	68364b68 	ldmdavs	r6!, {r3, r5, r6, r8, r9, fp, lr}
     ee0:	02002f87 	andeq	r2, r0, #540	; 0x21c
     ee4:	682f0104 	stmdavs	pc!, {r2, r8}	; <UNPREDICTABLE>
     ee8:	4b673067 	blmi	19cd08c <__bss_end__+0x19c301c>
     eec:	01040200 	mrseq	r0, R12_usr
     ef0:	6967682f 	stmdbvs	r7!, {r0, r1, r2, r3, r5, fp, sp, lr}^
     ef4:	0006022e 	andeq	r0, r6, lr, lsr #4
     ef8:	012b0101 			; <UNDEFINED> instruction: 0x012b0101
     efc:	00020000 	andeq	r0, r2, r0
     f00:	000000f8 	strdeq	r0, [r0], -r8
     f04:	0efb0102 	cdpeq	1, 15, cr0, cr11, cr2, {0}
     f08:	0101000d 	tsteq	r1, sp
     f0c:	00000101 	andeq	r0, r0, r1, lsl #2
     f10:	00000100 	andeq	r0, r0, r0, lsl #2
     f14:	73752f01 	cmnvc	r5, #1, 30
     f18:	6e692f72 	mcrvs	15, 3, r2, cr9, cr2, {3}
     f1c:	64756c63 	ldrbtvs	r6, [r5], #-3171	; 0xfffff39d
     f20:	656e2f65 	strbvs	r2, [lr, #-3941]!	; 0xfffff09b
     f24:	62696c77 	rsbvs	r6, r9, #30464	; 0x7700
     f28:	7379732f 	cmnvc	r9, #-1140850688	; 0xbc000000
     f2c:	73752f00 	cmnvc	r5, #0, 30
     f30:	696c2f72 	stmdbvs	ip!, {r1, r4, r5, r6, r8, r9, sl, fp, sp}^
     f34:	63672f62 	cmnvs	r7, #392	; 0x188
     f38:	72612f63 	rsbvc	r2, r1, #396	; 0x18c
     f3c:	6f6e2d6d 	svcvs	0x006e2d6d
     f40:	652d656e 	strvs	r6, [sp, #-1390]!	; 0xfffffa92
     f44:	2f696261 	svccs	0x00696261
     f48:	2e332e36 	mrccs	14, 1, r2, cr3, cr6, {1}
     f4c:	6e692f31 	mcrvs	15, 3, r2, cr9, cr1, {1}
     f50:	64756c63 	ldrbtvs	r6, [r5], #-3171	; 0xfffff39d
     f54:	682f0065 	stmdavs	pc!, {r0, r2, r5, r6}	; <UNPREDICTABLE>
     f58:	2f656d6f 	svccs	0x00656d6f
     f5c:	6c676e65 	stclvs	14, cr6, [r7], #-404	; 0xfffffe6c
     f60:	632f7265 			; <UNDEFINED> instruction: 0x632f7265
     f64:	7373616c 	cmnvc	r3, #108, 2
     f68:	3273632f 	rsbscc	r6, r3, #-1140850688	; 0xbc000000
     f6c:	786c3034 	stmdavc	ip!, {r2, r4, r5, ip, sp}^
     f70:	7330322d 	teqvc	r0, #-805306366	; 0xd0000002
     f74:	2f2f7270 	svccs	0x002f7270
     f78:	7062696c 	rsbvc	r6, r2, ip, ror #18
     f7c:	682f0069 	stmdavs	pc!, {r0, r3, r5, r6}	; <UNPREDICTABLE>
     f80:	2f656d6f 	svccs	0x00656d6f
     f84:	6c676e65 	stclvs	14, cr6, [r7], #-404	; 0xfffffe6c
     f88:	632f7265 			; <UNDEFINED> instruction: 0x632f7265
     f8c:	7373616c 	cmnvc	r3, #108, 2
     f90:	3273632f 	rsbscc	r6, r3, #-1140850688	; 0xbc000000
     f94:	786c3034 	stmdavc	ip!, {r2, r4, r5, ip, sp}^
     f98:	7330322d 	teqvc	r0, #-805306366	; 0xd0000002
     f9c:	2f2f7270 	svccs	0x002f7270
     fa0:	7062696c 	rsbvc	r6, r2, ip, ror #18
     fa4:	74732f69 	ldrbtvc	r2, [r3], #-3945	; 0xfffff097
     fa8:	2d666661 	stclcs	6, cr6, [r6, #-388]!	; 0xfffffe7c
     fac:	00637273 	rsbeq	r7, r3, r3, ror r2
     fb0:	69706700 	ldmdbvs	r0!, {r8, r9, sl, sp, lr}^
     fb4:	00632e6f 	rsbeq	r2, r3, pc, ror #28
     fb8:	6c000000 	stcvs	0, cr0, [r0], {-0}
     fbc:	2e6b636f 	cdpcs	3, 6, cr6, cr11, cr15, {3}
     fc0:	00010068 	andeq	r0, r1, r8, rrx
     fc4:	79745f00 	ldmdbvc	r4!, {r8, r9, sl, fp, ip, lr}^
     fc8:	2e736570 	mrccs	5, 3, r6, cr3, cr0, {3}
     fcc:	00010068 	andeq	r0, r1, r8, rrx
     fd0:	64747300 	ldrbtvs	r7, [r4], #-768	; 0xfffffd00
     fd4:	2e666564 	cdpcs	5, 6, cr6, cr6, cr4, {3}
     fd8:	00020068 	andeq	r0, r2, r8, rrx
     fdc:	65657200 	strbvs	r7, [r5, #-512]!	; 0xfffffe00
     fe0:	682e746e 	stmdavs	lr!, {r1, r2, r3, r5, r6, sl, ip, sp, lr}
     fe4:	00000100 	andeq	r0, r0, r0, lsl #2
     fe8:	2e697072 	mcrcs	0, 3, r7, cr9, cr2, {3}
     fec:	00030068 	andeq	r0, r3, r8, rrx
     ff0:	69706700 	ldmdbvs	r0!, {r8, r9, sl, sp, lr}^
     ff4:	00682e6f 	rsbeq	r2, r8, pc, ror #28
     ff8:	00000004 	andeq	r0, r0, r4
     ffc:	b8020500 	stmdalt	r2, {r8, sl}
    1000:	03000093 	movweq	r0, #147	; 0x93
    1004:	4c130127 	ldfmis	f0, [r3], {39}	; 0x27
    1008:	68f44f47 	ldmvs	r4!, {r0, r1, r2, r6, r8, r9, sl, fp, lr}^
    100c:	2fa14c4b 	svccs	0x00a14c4b
    1010:	3149136a 	cmpcc	r9, sl, ror #6
    1014:	314913be 	strhcc	r1, [r9, #-62]	; 0xffffffc2
    1018:	2f6a2fbe 	svccs	0x006a2fbe
    101c:	134f484d 	movtne	r4, #63565	; 0xf84d
    1020:	b72f3249 	strlt	r3, [pc, -r9, asr #4]!
    1024:	01000602 	tsteq	r0, r2, lsl #12
    1028:	00013401 	andeq	r3, r1, r1, lsl #8
    102c:	df000200 	svcle	0x00000200
    1030:	02000000 	andeq	r0, r0, #0
    1034:	0d0efb01 	vstreq	d15, [lr, #-4]
    1038:	01010100 	mrseq	r0, (UNDEF: 17)
    103c:	00000001 	andeq	r0, r0, r1
    1040:	01000001 	tsteq	r0, r1
    1044:	7273752f 	rsbsvc	r7, r3, #197132288	; 0xbc00000
    1048:	636e692f 	cmnvs	lr, #770048	; 0xbc000
    104c:	6564756c 	strbvs	r7, [r4, #-1388]!	; 0xfffffa94
    1050:	77656e2f 	strbvc	r6, [r5, -pc, lsr #28]!
    1054:	2f62696c 	svccs	0x0062696c
    1058:	00737973 	rsbseq	r7, r3, r3, ror r9
    105c:	7273752f 	rsbsvc	r7, r3, #197132288	; 0xbc00000
    1060:	62696c2f 	rsbvs	r6, r9, #12032	; 0x2f00
    1064:	6363672f 	cmnvs	r3, #12320768	; 0xbc0000
    1068:	6d72612f 	ldfvse	f6, [r2, #-188]!	; 0xffffff44
    106c:	6e6f6e2d 	cdpvs	14, 6, cr6, cr15, cr13, {1}
    1070:	61652d65 	cmnvs	r5, r5, ror #26
    1074:	362f6962 	strtcc	r6, [pc], -r2, ror #18
    1078:	312e332e 			; <UNDEFINED> instruction: 0x312e332e
    107c:	636e692f 	cmnvs	lr, #770048	; 0xbc000
    1080:	6564756c 	strbvs	r7, [r4, #-1388]!	; 0xfffffa94
    1084:	6f682f00 	svcvs	0x00682f00
    1088:	652f656d 	strvs	r6, [pc, #-1389]!	; b23 <_start-0x74dd>
    108c:	656c676e 	strbvs	r6, [ip, #-1902]!	; 0xfffff892
    1090:	6c632f72 	stclvs	15, cr2, [r3], #-456	; 0xfffffe38
    1094:	2f737361 	svccs	0x00737361
    1098:	34327363 	ldrtcc	r7, [r2], #-867	; 0xfffffc9d
    109c:	2d786c30 	ldclcs	12, cr6, [r8, #-192]!	; 0xffffff40
    10a0:	70733032 	rsbsvc	r3, r3, r2, lsr r0
    10a4:	6c2f2f72 	stcvs	15, cr2, [pc], #-456	; ee4 <_start-0x711c>
    10a8:	69706269 	ldmdbvs	r0!, {r0, r3, r5, r6, r9, sp, lr}^
    10ac:	73752f00 	cmnvc	r5, #0, 30
    10b0:	6e692f72 	mcrvs	15, 3, r2, cr9, cr2, {3}
    10b4:	64756c63 	ldrbtvs	r6, [r5], #-3171	; 0xfffff39d
    10b8:	656e2f65 	strbvs	r2, [lr, #-3941]!	; 0xfffff09b
    10bc:	62696c77 	rsbvs	r6, r9, #30464	; 0x7700
    10c0:	6d6b0000 	stclvs	0, cr0, [fp, #-0]
    10c4:	6f6c6c61 	svcvs	0x006c6c61
    10c8:	00632e63 	rsbeq	r2, r3, r3, ror #28
    10cc:	6c000000 	stcvs	0, cr0, [r0], {-0}
    10d0:	2e6b636f 	cdpcs	3, 6, cr6, cr11, cr15, {3}
    10d4:	00010068 	andeq	r0, r1, r8, rrx
    10d8:	79745f00 	ldmdbvc	r4!, {r8, r9, sl, fp, ip, lr}^
    10dc:	2e736570 	mrccs	5, 3, r6, cr3, cr0, {3}
    10e0:	00010068 	andeq	r0, r1, r8, rrx
    10e4:	64747300 	ldrbtvs	r7, [r4], #-768	; 0xfffffd00
    10e8:	2e666564 	cdpcs	5, 6, cr6, cr6, cr4, {3}
    10ec:	00020068 	andeq	r0, r2, r8, rrx
    10f0:	65657200 	strbvs	r7, [r5, #-512]!	; 0xfffffe00
    10f4:	682e746e 	stmdavs	lr!, {r1, r2, r3, r5, r6, sl, ip, sp, lr}
    10f8:	00000100 	andeq	r0, r0, r0, lsl #2
    10fc:	2e697072 	mcrcs	0, 3, r7, cr9, cr2, {3}
    1100:	00030068 	andeq	r0, r3, r8, rrx
    1104:	72747300 	rsbsvc	r7, r4, #0, 6
    1108:	2e676e69 	cdpcs	14, 6, cr6, cr7, cr9, {3}
    110c:	00040068 	andeq	r0, r4, r8, rrx
    1110:	05000000 	streq	r0, [r0, #-0]
    1114:	0094d802 	addseq	sp, r4, r2, lsl #16
    1118:	01100300 	tsteq	r0, r0, lsl #6
    111c:	68018301 	stmdavs	r1, {r0, r8, r9, pc}
    1120:	02008314 	andeq	r8, r0, #20, 6	; 0x50000000
    1124:	007f0104 	rsbseq	r0, pc, r4, lsl #2
    1128:	30010402 	andcc	r0, r1, r2, lsl #8
    112c:	4b2f5c08 	blmi	bd8154 <__bss_end__+0xbce0e4>
    1130:	684b4b4c 	stmdavs	fp, {r2, r3, r6, r8, r9, fp, lr}^
    1134:	01040200 	mrseq	r0, R12_usr
    1138:	034a7903 	movteq	r7, #43267	; 0xa903
    113c:	2f580809 	svccs	0x00580809
    1140:	2f4e2e01 	svccs	0x004e2e01
    1144:	67674b6a 	strbvs	r4, [r7, -sl, ror #22]!
    1148:	02002f4c 	andeq	r2, r0, #76, 30	; 0x130
    114c:	76030104 	strvc	r0, [r3], -r4, lsl #2
    1150:	0402002e 	streq	r0, [r2], #-46	; 0xffffffd2
    1154:	7a08dc01 	bvc	238160 <__bss_end__+0x22e0f0>
    1158:	019f012f 	orrseq	r0, pc, pc, lsr #2
    115c:	01000802 	tsteq	r0, r2, lsl #16
    1160:	Address 0x0000000000001160 is out of bounds.


Disassembly of section .debug_str:

00000000 <.debug_str>:
   0:	6f73645f 	svcvs	0x0073645f
   4:	6e61685f 	mcrvs	8, 3, r6, cr1, cr15, {2}
   8:	00656c64 	rsbeq	r6, r5, r4, ror #24
   c:	685f6b63 	ldmdavs	pc, {r0, r1, r5, r6, r8, r9, fp, sp, lr}^	; <UNPREDICTABLE>
  10:	5f706165 	svcpl	0x00706165
  14:	6f727265 	svcvs	0x00727265
  18:	5f007372 	svcpl	0x00007372
  1c:	657a6973 	ldrbvs	r6, [sl, #-2419]!	; 0xfffff68d
  20:	61725f00 	cmnvs	r2, r0, lsl #30
  24:	3834646e 	ldmdacc	r4!, {r1, r2, r3, r5, r6, sl, sp, lr}
  28:	6d655f00 	stclvs	15, cr5, [r5, #-0]
  2c:	65677265 	strbvs	r7, [r7, #-613]!	; 0xfffffd9b
  30:	0079636e 	rsbseq	r6, r9, lr, ror #6
  34:	6d746f6e 	ldclvs	15, cr6, [r4, #-440]!	; 0xfffffe48
  38:	006e6961 	rsbeq	r6, lr, r1, ror #18
  3c:	7263775f 	rsbvc	r7, r3, #24903680	; 0x17c0000
  40:	626d6f74 	rsbvs	r6, sp, #116, 30	; 0x1d0
  44:	6174735f 	cmnvs	r4, pc, asr r3
  48:	5f006574 	svcpl	0x00006574
  4c:	72736377 	rsbsvc	r6, r3, #-603979775	; 0xdc000001
  50:	626d6f74 	rsbvs	r6, sp, #116, 30	; 0x1d0
  54:	74735f73 	ldrbtvc	r5, [r3], #-3955	; 0xfffff08d
  58:	00657461 	rsbeq	r7, r5, r1, ror #8
  5c:	676e6f6c 	strbvs	r6, [lr, -ip, ror #30]!
  60:	6e6f6c20 	cdpvs	12, 6, cr6, cr15, cr0, {1}
  64:	6e752067 	cdpvs	0, 7, cr2, cr5, cr7, {3}
  68:	6e676973 			; <UNDEFINED> instruction: 0x6e676973
  6c:	69206465 	stmdbvs	r0!, {r0, r2, r5, r6, sl, sp, lr}
  70:	6300746e 	movwvs	r7, #1134	; 0x46e
  74:	6c6c616b 	stfvse	f6, [ip], #-428	; 0xfffffe54
  78:	5f00636f 	svcpl	0x0000636f
  7c:	7366626c 	cmnvc	r6, #108, 4	; 0xc0000006
  80:	00657a69 	rsbeq	r7, r5, r9, ror #20
  84:	72626d5f 	rsbvc	r6, r2, #6080	; 0x17c0
  88:	63776f74 	cmnvs	r7, #116, 30	; 0x1d0
  8c:	6174735f 	cmnvs	r4, pc, asr r3
  90:	5f006574 	svcpl	0x00006574
  94:	6f746377 	svcvs	0x00746377
  98:	735f626d 	cmpvc	pc, #-805306362	; 0xd0000006
  9c:	65746174 	ldrbvs	r6, [r4, #-372]!	; 0xfffffe8c
  a0:	745f5f00 	ldrbvc	r5, [pc], #-3840	; a8 <_start-0x7f58>
  a4:	65735f6d 	ldrbvs	r5, [r3, #-3949]!	; 0xfffff093
  a8:	6f6c0063 	svcvs	0x006c0063
  ac:	6c20676e 	stcvs	7, cr6, [r0], #-440	; 0xfffffe48
  b0:	20676e6f 	rsbcs	r6, r7, pc, ror #28
  b4:	00746e69 	rsbseq	r6, r4, r9, ror #28
  b8:	7562755f 	strbvc	r7, [r2, #-1375]!	; 0xfffffaa1
  bc:	625f0066 	subsvs	r0, pc, #102	; 0x66
  c0:	00657361 	rsbeq	r7, r5, r1, ror #6
  c4:	6d745f5f 	ldclvs	15, cr5, [r4, #-380]!	; 0xfffffe84
  c8:	756f685f 	strbvc	r6, [pc, #-2143]!	; fffff871 <__bss_end__+0xffff5801>
  cc:	682f0072 	stmdavs	pc!, {r1, r4, r5, r6}	; <UNPREDICTABLE>
  d0:	2f656d6f 	svccs	0x00656d6f
  d4:	72657375 	rsbvc	r7, r5, #-738197503	; 0xd4000001
  d8:	7665442f 	strbtvc	r4, [r5], -pc, lsr #8
  dc:	3253432f 	subscc	r4, r3, #-1140850688	; 0xbc000000
  e0:	2f583034 	svccs	0x00583034
  e4:	7362616c 	cmnvc	r2, #108, 2
  e8:	2d30312f 	ldfcss	f3, [r0, #-188]!	; 0xffffff44
  ec:	636d656d 	cmnvs	sp, #457179136	; 0x1b400000
  f0:	6b636568 	blvs	18d9698 <__bss_end__+0x18cf628>
  f4:	6174732d 	cmnvs	r4, sp, lsr #6
  f8:	6f632f74 	svcvs	0x00632f74
  fc:	5f006564 	svcpl	0x00006564
 100:	0066735f 	rsbeq	r7, r6, pc, asr r3
 104:	5f6e6f5f 	svcpl	0x006e6f5f
 108:	74697865 	strbtvc	r7, [r9], #-2149	; 0xfffff79b
 10c:	6772615f 			; <UNDEFINED> instruction: 0x6772615f
 110:	635f0073 	cmpvs	pc, #115	; 0x73
 114:	696b6f6f 	stmdbvs	fp!, {r0, r1, r2, r3, r5, r6, r8, r9, sl, fp, sp, lr}^
 118:	5f5f0065 	svcpl	0x005f0065
 11c:	756c6773 	strbvc	r6, [ip, #-1907]!	; 0xfffff88d
 120:	665f0065 	ldrbvs	r0, [pc], -r5, rrx
 124:	7367616c 	cmnvc	r7, #108, 2
 128:	73695f00 	cmnvc	r9, #0, 30
 12c:	6178635f 	cmnvs	r8, pc, asr r3
 130:	74735f00 	ldrbtvc	r5, [r3], #-3840	; 0xfffff100
 134:	006e6964 	rsbeq	r6, lr, r4, ror #18
 138:	695f6b63 	ldmdbvs	pc, {r0, r1, r5, r6, r8, r9, fp, sp, lr}^	; <UNPREDICTABLE>
 13c:	0074696e 	rsbseq	r6, r4, lr, ror #18
 140:	6b6c625f 	blvs	1b18ac4 <__bss_end__+0x1b0ea54>
 144:	657a6973 	ldrbvs	r6, [sl, #-2419]!	; 0xfffff68d
 148:	76635f00 	strbtvc	r5, [r3], -r0, lsl #30
 14c:	66756274 			; <UNDEFINED> instruction: 0x66756274
 150:	666f5f00 	strbtvs	r5, [pc], -r0, lsl #30
 154:	74657366 	strbtvc	r7, [r5], #-870	; 0xfffffc9a
 158:	616d6b00 	cmnvs	sp, r0, lsl #22
 15c:	636f6c6c 	cmnvs	pc, #108, 24	; 0x6c00
 160:	696e695f 	stmdbvs	lr!, {r0, r1, r2, r3, r4, r6, r8, fp, sp, lr}^
 164:	65735f74 	ldrbvs	r5, [r3, #-3956]!	; 0xfffff08c
 168:	74735f74 	ldrbtvc	r5, [r3], #-3956	; 0xfffff08c
 16c:	00747261 	rsbseq	r7, r4, r1, ror #4
 170:	73626d5f 	cmnvc	r2, #6080	; 0x17c0
 174:	776f7472 			; <UNDEFINED> instruction: 0x776f7472
 178:	735f7363 	cmpvc	pc, #-1946157055	; 0x8c000001
 17c:	65746174 	ldrbvs	r6, [r4, #-372]!	; 0xfffffe8c
 180:	626d5f00 	rsbvs	r5, sp, #0, 30
 184:	6e656c72 	mcrvs	12, 3, r6, cr5, cr2, {3}
 188:	6174735f 	cmnvs	r4, pc, asr r3
 18c:	5f006574 	svcpl	0x00006574
 190:	72616e66 	rsbvc	r6, r1, #1632	; 0x660
 194:	5f007367 	svcpl	0x00007367
 198:	00736e66 	rsbseq	r6, r3, r6, ror #28
 19c:	6769735f 			; <UNDEFINED> instruction: 0x6769735f
 1a0:	665f006e 	ldrbvs	r0, [pc], -lr, rrx
 1a4:	6b636f6c 	blvs	18dbf5c <__bss_end__+0x18d1eec>
 1a8:	5f00745f 	svcpl	0x0000745f
 1ac:	65647473 	strbvs	r7, [r4, #-1139]!	; 0xfffffb8d
 1b0:	5f007272 	svcpl	0x00007272
 1b4:	69676942 	stmdbvs	r7!, {r1, r6, r8, fp, sp, lr}^
 1b8:	5f00746e 	svcpl	0x0000746e
 1bc:	6d6d6167 	stfvse	f6, [sp, #-412]!	; 0xfffffe64
 1c0:	69735f61 	ldmdbvs	r3!, {r0, r5, r6, r8, r9, sl, fp, ip, lr}^
 1c4:	61676e67 	cmnvs	r7, r7, ror #28
 1c8:	725f006d 	subsvc	r0, pc, #109	; 0x6d
 1cc:	6c757365 	ldclvs	3, cr7, [r5], #-404	; 0xfffffe6c
 1d0:	006b5f74 	rsbeq	r5, fp, r4, ror pc
 1d4:	5f697072 	svcpl	0x00697072
 1d8:	63747570 	cmnvs	r4, #112, 10	; 0x1c000000
 1dc:	00726168 	rsbseq	r6, r2, r8, ror #2
 1e0:	6d745f5f 	ldclvs	15, cr5, [r4, #-380]!	; 0xfffffe84
 1e4:	775f5f00 	ldrbvc	r5, [pc, -r0, lsl #30]
 1e8:	00626863 	rsbeq	r6, r2, r3, ror #16
 1ec:	5f697072 	svcpl	0x00697072
 1f0:	65736572 	ldrbvs	r6, [r3, #-1394]!	; 0xfffffa8e
 1f4:	75705f74 	ldrbvc	r5, [r0, #-3956]!	; 0xfffff08c
 1f8:	5f006374 	svcpl	0x00006374
 1fc:	6f647473 	svcvs	0x00647473
 200:	5f007475 	svcpl	0x00007475
 204:	6c747663 	ldclvs	6, cr7, [r4], #-396	; 0xfffffe74
 208:	5f006e65 	svcpl	0x00006e65
 20c:	656c6966 	strbvs	r6, [ip, #-2406]!	; 0xfffff69a
 210:	465f5f00 	ldrbmi	r5, [pc], -r0, lsl #30
 214:	54434e55 	strbpl	r4, [r3], #-3669	; 0xfffff1ab
 218:	5f4e4f49 	svcpl	0x004e4f49
 21c:	6e5f005f 	mrcvs	0, 2, r0, cr15, cr15, {2}
 220:	73626f69 	cmnvc	r2, #420	; 0x1a4
 224:	6f687300 	svcvs	0x00687300
 228:	75207472 	strvc	r7, [r0, #-1138]!	; 0xfffffb8e
 22c:	6769736e 	strbvs	r7, [r9, -lr, ror #6]!
 230:	2064656e 	rsbcs	r6, r4, lr, ror #10
 234:	00746e69 	rsbseq	r6, r4, r9, ror #28
 238:	6574615f 	ldrbvs	r6, [r4, #-351]!	; 0xfffffea1
 23c:	30746978 	rsbscc	r6, r4, r8, ror r9
 240:	69735f00 	ldmdbvs	r3!, {r8, r9, sl, fp, ip, lr}^
 244:	6c616e67 	stclvs	14, cr6, [r1], #-412	; 0xfffffe64
 248:	6675625f 			; <UNDEFINED> instruction: 0x6675625f
 24c:	73615f00 	cmnvc	r1, #0, 30
 250:	6d697463 	cfstrdvs	mvd7, [r9, #-396]!	; 0xfffffe74
 254:	75625f65 	strbvc	r5, [r2, #-3941]!	; 0xfffff09b
 258:	725f0066 	subsvc	r0, pc, #102	; 0x66
 25c:	6c757365 	ldclvs	3, cr7, [r5], #-404	; 0xfffffe6c
 260:	5f5f0074 	svcpl	0x005f0074
 264:	00686377 	rsbeq	r6, r8, r7, ror r3
 268:	746e6977 	strbtvc	r6, [lr], #-2423	; 0xfffff689
 26c:	6300745f 	movwvs	r7, #1119	; 0x45f
 270:	6572666b 	ldrbvs	r6, [r2, #-1643]!	; 0xfffff995
 274:	6c5f0065 	mrrcvs	0, 6, r0, pc, cr5	; <UNPREDICTABLE>
 278:	006b636f 	rsbeq	r6, fp, pc, ror #6
 27c:	616c665f 	cmnvs	ip, pc, asr r6
 280:	00327367 	eorseq	r7, r2, r7, ror #6
 284:	6d745f5f 	ldclvs	15, cr5, [r4, #-380]!	; 0xfffffe84
 288:	6165795f 	cmnvs	r5, pc, asr r9
 28c:	6c630072 	stclvs	0, cr0, [r3], #-456	; 0xfffffe38
 290:	5f6e6165 	svcpl	0x006e6165
 294:	6f626572 	svcvs	0x00626572
 298:	7300746f 	movwvc	r7, #1135	; 0x46f
 29c:	74657a69 	strbtvc	r7, [r5], #-2665	; 0xfffff597
 2a0:	00657079 	rsbeq	r7, r5, r9, ror r0
 2a4:	78656e5f 	stmdavc	r5!, {r0, r1, r2, r3, r4, r6, r9, sl, fp, sp, lr}^
 2a8:	5f006674 	svcpl	0x00006674
 2ac:	5f6d745f 	svcpl	0x006d745f
 2b0:	006e6f6d 	rsbeq	r6, lr, sp, ror #30
 2b4:	6574615f 	ldrbvs	r6, [r4, #-351]!	; 0xfffffea1
 2b8:	00746978 	rsbseq	r6, r4, r8, ror r9
 2bc:	64735f5f 	ldrbtvs	r5, [r3], #-3935	; 0xfffff0a1
 2c0:	6e696469 	cdpvs	4, 6, cr6, cr9, cr9, {3}
 2c4:	5f007469 	svcpl	0x00007469
 2c8:	5f66666f 	svcpl	0x0066666f
 2cc:	665f0074 			; <UNDEFINED> instruction: 0x665f0074
 2d0:	6c656572 	cfstr64vs	mvdx6, [r5], #-456	; 0xfffffe38
 2d4:	00747369 	rsbseq	r7, r4, r9, ror #6
 2d8:	434f4c5f 	movtmi	r4, #64607	; 0xfc5f
 2dc:	45525f4b 	ldrbmi	r5, [r2, #-3915]	; 0xfffff0b5
 2e0:	53525543 	cmppl	r2, #281018368	; 0x10c00000
 2e4:	5f455649 	svcpl	0x00455649
 2e8:	6e750054 	mrcvs	0, 3, r0, cr5, cr4, {2}
 2ec:	6e676973 			; <UNDEFINED> instruction: 0x6e676973
 2f0:	63206465 			; <UNDEFINED> instruction: 0x63206465
 2f4:	00726168 	rsbseq	r6, r2, r8, ror #2
 2f8:	77656e5f 			; <UNDEFINED> instruction: 0x77656e5f
 2fc:	5f685f00 	svcpl	0x00685f00
 300:	6e727265 	cdpvs	2, 7, cr7, cr2, cr5, {3}
 304:	6873006f 	ldmdavs	r3!, {r0, r1, r2, r3, r5, r6}^
 308:	2074726f 	rsbscs	r7, r4, pc, ror #4
 30c:	00746e69 	rsbseq	r6, r4, r9, ror #28
 310:	6d745f5f 	ldclvs	15, cr5, [r4, #-380]!	; 0xfffffe84
 314:	6164795f 	cmnvs	r4, pc, asr r9
 318:	5f5f0079 	svcpl	0x005f0079
 31c:	66756273 			; <UNDEFINED> instruction: 0x66756273
 320:	6f695f00 	svcvs	0x00695f00
 324:	5f007362 	svcpl	0x00007362
 328:	4c49465f 	mcrrmi	6, 5, r4, r9, cr15
 32c:	6d5f0045 	ldclvs	0, cr0, [pc, #-276]	; 220 <_start-0x7de0>
 330:	61747362 	cmnvs	r4, r2, ror #6
 334:	745f6574 	ldrbvc	r6, [pc], #-1396	; 33c <_start-0x7cc4>
 338:	735f5f00 	cmpvc	pc, #0, 30
 33c:	454c4946 	strbmi	r4, [ip, #-2374]	; 0xfffff6ba
 340:	626d5f00 	rsbvs	r5, sp, #0, 30
 344:	74617473 	strbtvc	r7, [r1], #-1139	; 0xfffffb8d
 348:	725f0065 	subsvc	r0, pc, #101	; 0x65
 34c:	5f646e61 	svcpl	0x00646e61
 350:	7478656e 	ldrbtvc	r6, [r8], #-1390	; 0xfffffa92
 354:	626d5f00 	rsbvs	r5, sp, #0, 30
 358:	5f6e656c 	svcpl	0x006e656c
 35c:	74617473 	strbtvc	r7, [r1], #-1139	; 0xfffffb8d
 360:	695f0065 	ldmdbvs	pc, {r0, r2, r5, r6}^	; <UNPREDICTABLE>
 364:	5f00636e 	svcpl	0x0000636e
 368:	00646e69 	rsbeq	r6, r4, r9, ror #28
 36c:	7275635f 	rsbsvc	r6, r5, #2080374785	; 0x7c000001
 370:	746e6572 	strbtvc	r6, [lr], #-1394	; 0xfffffa8e
 374:	636f6c5f 	cmnvs	pc, #24320	; 0x5f00
 378:	00656c61 	rsbeq	r6, r5, r1, ror #24
 37c:	6c635f5f 	stclvs	15, cr5, [r3], #-380	; 0xfffffe84
 380:	756e6165 	strbvc	r6, [lr, #-357]!	; 0xfffffe9b
 384:	6d5f0070 	ldclvs	0, cr0, [pc, #-448]	; 1cc <_start-0x7e34>
 388:	64777861 	ldrbtvs	r7, [r7], #-2145	; 0xfffff79f
 38c:	725f0073 	subsvc	r0, pc, #115	; 0x73
 390:	746e6565 	strbtvc	r6, [lr], #-1381	; 0xfffffa9b
 394:	65735f00 	ldrbvs	r5, [r3, #-3840]!	; 0xfffff100
 398:	5f006465 	svcpl	0x00006465
 39c:	756f635f 	strbvc	r6, [pc, #-863]!	; 45 <_start-0x7fbb>
 3a0:	5f00746e 	svcpl	0x0000746e
 3a4:	6c61765f 	stclvs	6, cr7, [r1], #-380	; 0xfffffe84
 3a8:	5f006575 	svcpl	0x00006575
 3ac:	6b656573 	blvs	1959980 <__bss_end__+0x194f910>
 3b0:	70665f00 	rsbvc	r5, r6, r0, lsl #30
 3b4:	745f736f 	ldrbvc	r7, [pc], #-879	; 3bc <_start-0x7c44>
 3b8:	745f5f00 	ldrbvc	r5, [pc], #-3840	; 3c0 <_start-0x7c40>
 3bc:	696d5f6d 	stmdbvs	sp!, {r0, r2, r3, r5, r6, r8, r9, sl, fp, ip, lr}^
 3c0:	6d5f006e 	ldclvs	0, cr0, [pc, #-440]	; 210 <_start-0x7df0>
 3c4:	00746c75 	rsbseq	r6, r4, r5, ror ip
 3c8:	20554e47 	subscs	r4, r5, r7, asr #28
 3cc:	20393943 	eorscs	r3, r9, r3, asr #18
 3d0:	2e332e36 	mrccs	14, 1, r2, cr3, cr6, {1}
 3d4:	30322031 	eorscc	r2, r2, r1, lsr r0
 3d8:	36303731 			; <UNDEFINED> instruction: 0x36303731
 3dc:	2d203032 	stccs	0, cr3, [r0, #-200]!	; 0xffffff38
 3e0:	7570636d 	ldrbvc	r6, [r0, #-877]!	; 0xfffffc93
 3e4:	6d72613d 	ldfvse	f6, [r2, #-244]!	; 0xffffff0c
 3e8:	36373131 			; <UNDEFINED> instruction: 0x36373131
 3ec:	2d667a6a 	vstmdbcs	r6!, {s15-s120}
 3f0:	6d2d2073 	stcvs	0, cr2, [sp, #-460]!	; 0xfffffe34
 3f4:	656e7574 	strbvs	r7, [lr, #-1396]!	; 0xfffffa8c
 3f8:	6d72613d 	ldfvse	f6, [r2, #-244]!	; 0xffffff0c
 3fc:	36373131 			; <UNDEFINED> instruction: 0x36373131
 400:	2d667a6a 	vstmdbcs	r6!, {s15-s120}
 404:	672d2073 			; <UNDEFINED> instruction: 0x672d2073
 408:	20626467 	rsbcs	r6, r2, r7, ror #8
 40c:	20674f2d 	rsbcs	r4, r7, sp, lsr #30
 410:	6474732d 	ldrbtvs	r7, [r4], #-813	; 0xfffffcd3
 414:	756e673d 	strbvc	r6, [lr, #-1853]!	; 0xfffff8c3
 418:	2d203939 			; <UNDEFINED> instruction: 0x2d203939
 41c:	65726666 	ldrbvs	r6, [r2, #-1638]!	; 0xfffff99a
 420:	61747365 	cmnvs	r4, r5, ror #6
 424:	6e69646e 	cdpvs	4, 6, cr6, cr9, cr14, {3}
 428:	735f0067 	cmpvc	pc, #103	; 0x67
 42c:	6f747274 	svcvs	0x00747274
 430:	616c5f6b 	cmnvs	ip, fp, ror #30
 434:	5f007473 	svcpl	0x00007473
 438:	79746e66 	ldmdbvc	r4!, {r1, r2, r5, r6, r9, sl, fp, sp, lr}^
 43c:	00736570 	rsbseq	r6, r3, r0, ror r5
 440:	6464615f 	strbtvs	r6, [r4], #-351	; 0xfffffea1
 444:	555f5f00 	ldrbpl	r5, [pc, #-3840]	; fffff54c <__bss_end__+0xffff54dc>
 448:	676e6f4c 	strbvs	r6, [lr, -ip, asr #30]!
 44c:	65675f00 	strbvs	r5, [r7, #-3840]!	; 0xfffff100
 450:	74616474 	strbtvc	r6, [r1], #-1140	; 0xfffffb8c
 454:	72655f65 	rsbvc	r5, r5, #404	; 0x194
 458:	61700072 	cmnvs	r0, r2, ror r0
 45c:	2d317472 	cfldrscs	mvf7, [r1, #-456]!	; 0xfffffe38
 460:	74736574 	ldrbtvc	r6, [r3], #-1396	; 0xfffffa8c
 464:	00632e34 	rsbeq	r2, r3, r4, lsr lr
 468:	6f6c675f 	svcvs	0x006c675f
 46c:	5f6c6162 	svcpl	0x006c6162
 470:	75706d69 	ldrbvc	r6, [r0, #-3433]!	; 0xfffff297
 474:	705f6572 	subsvc	r6, pc, r2, ror r5	; <UNPREDICTABLE>
 478:	5f007274 	svcpl	0x00007274
 47c:	72727563 	rsbsvc	r7, r2, #415236096	; 0x18c00000
 480:	5f746e65 	svcpl	0x00746e65
 484:	65746163 	ldrbvs	r6, [r4, #-355]!	; 0xfffffe9d
 488:	79726f67 	ldmdbvc	r2!, {r0, r1, r2, r5, r6, r8, r9, sl, fp, sp, lr}^
 48c:	6d656d00 	stclvs	13, cr6, [r5, #-0]
 490:	00746573 	rsbseq	r6, r4, r3, ror r5
 494:	756e755f 	strbvc	r7, [lr, #-1375]!	; 0xfffffaa1
 498:	5f646573 	svcpl	0x00646573
 49c:	646e6172 	strbtvs	r6, [lr], #-370	; 0xfffffe8e
 4a0:	64775f00 	ldrbtvs	r5, [r7], #-3840	; 0xfffff100
 4a4:	5f5f0073 	svcpl	0x005f0073
 4a8:	775f6d74 			; <UNDEFINED> instruction: 0x775f6d74
 4ac:	00796164 	rsbseq	r6, r9, r4, ror #2
 4b0:	756c675f 	strbvc	r6, [ip, #-1887]!	; 0xfffff8a1
 4b4:	6e5f0065 	cdpvs	0, 5, cr0, cr15, cr5, {3}
 4b8:	6c6c616d 	stfvse	f6, [ip], #-436	; 0xfffffe4c
 4bc:	5f00636f 	svcpl	0x0000636f
 4c0:	6134366c 	teqvs	r4, ip, ror #12
 4c4:	6675625f 			; <UNDEFINED> instruction: 0x6675625f
 4c8:	69735f00 	ldmdbvs	r3!, {r8, r9, sl, fp, ip, lr}^
 4cc:	75665f67 	strbvc	r5, [r6, #-3943]!	; 0xfffff099
 4d0:	6b00636e 	blvs	19290 <__bss_end__+0xf220>
 4d4:	6c6c616d 	stfvse	f6, [ip], #-436	; 0xfffffe4c
 4d8:	5f00636f 	svcpl	0x0000636f
 4dc:	6675626e 	ldrbtvs	r6, [r5], -lr, ror #4
 4e0:	6e755f00 	cdpvs	15, 7, cr5, cr5, cr0, {0}
 4e4:	64657375 	strbtvs	r7, [r5], #-885	; 0xfffffc8b
 4e8:	745f5f00 	ldrbvc	r5, [pc], #-3840	; 4f0 <_start-0x7b10>
 4ec:	73695f6d 	cmnvc	r9, #436	; 0x1b4
 4f0:	00747364 	rsbseq	r7, r4, r4, ror #6
 4f4:	636f6c5f 	cmnvs	pc, #24320	; 0x5f00
 4f8:	69746c61 	ldmdbvs	r4!, {r0, r5, r6, sl, fp, sp, lr}^
 4fc:	625f656d 	subsvs	r6, pc, #457179136	; 0x1b400000
 500:	5f006675 	svcpl	0x00006675
 504:	736f6c63 	cmnvc	pc, #25344	; 0x6300
 508:	725f0065 	subsvc	r0, pc, #101	; 0x65
 50c:	5f003834 	svcpl	0x00003834
 510:	6f74626d 	svcvs	0x0074626d
 514:	735f6377 	cmpvc	pc, #-603979775	; 0xdc000001
 518:	65746174 	ldrbvs	r6, [r4, #-372]!	; 0xfffffe8c
 51c:	35705f00 	ldrbcc	r5, [r0, #-3840]!	; 0xfffff100
 520:	5f5f0073 	svcpl	0x005f0073
 524:	6d5f6d74 	ldclvs	13, cr6, [pc, #-464]	; 35c <_start-0x7ca4>
 528:	00796164 	rsbseq	r6, r9, r4, ror #2
 52c:	64646170 	strbtvs	r6, [r4], #-368	; 0xfffffe90
 530:	00676e69 	rsbeq	r6, r7, r9, ror #28
 534:	656e696c 	strbvs	r6, [lr, #-2412]!	; 0xfffff694
 538:	70006f6e 	andvc	r6, r0, lr, ror #30
 53c:	00766572 	rsbseq	r6, r6, r2, ror r5
 540:	74736166 	ldrbtvc	r6, [r3], #-358	; 0xfffffe9a
 544:	7361685f 	cmnvc	r1, #6225920	; 0x5f0000
 548:	72660068 	rsbvc	r0, r6, #104	; 0x68
 54c:	6c5f6565 	cfldr64vs	mvdx6, [pc], {101}	; 0x65
 550:	6200636f 	andvs	r6, r0, #-1140850687	; 0xbc000001
 554:	317a725f 	cmncc	sl, pc, asr r2
 558:	7274705f 	rsbsvc	r7, r4, #95	; 0x5f
 55c:	45524600 	ldrbmi	r4, [r2, #-1536]	; 0xfffffa00
 560:	41004445 	tstmi	r0, r5, asr #8
 564:	434f4c4c 	movtmi	r4, #64588	; 0xfc4c
 568:	72004445 	andvc	r4, r0, #1157627904	; 0x45000000
 56c:	5f736665 	svcpl	0x00736665
 570:	6464696d 	strbtvs	r6, [r4], #-2413	; 0xfffff693
 574:	7200656c 	andvc	r6, r0, #108, 10	; 0x1b000000
 578:	5f736665 	svcpl	0x00736665
 57c:	72617473 	rsbvc	r7, r1, #1929379840	; 0x73000000
 580:	6c610074 	stclvs	0, cr0, [r1], #-464	; 0xfffffe30
 584:	65636f6c 	strbvs	r6, [r3, #-3948]!	; 0xfffff094
 588:	564f0064 	strbpl	r0, [pc], -r4, rrx
 58c:	45485245 	strbmi	r5, [r8, #-581]	; 0xfffffdbb
 590:	4e5f4441 	cdpmi	4, 5, cr4, cr15, cr1, {2}
 594:	45545942 	ldrbmi	r5, [r4, #-2370]	; 0xfffff6be
 598:	45520053 	ldrbmi	r0, [r2, #-83]	; 0xffffffad
 59c:	4e4f5a44 	vmlsmi.f32	s11, s30, s8
 5a0:	4c410045 	mcrrmi	0, 4, r0, r1, cr5
 5a4:	5f434f4c 	svcpl	0x00434f4c
 5a8:	5346464f 	movtpl	r4, #26191	; 0x664f
 5ac:	6d005445 	cfstrsvs	mvf5, [r0, #-276]	; 0xfffffeec
 5b0:	5f6b7261 	svcpl	0x006b7261
 5b4:	006d656d 	rsbeq	r6, sp, sp, ror #10
 5b8:	64615f62 	strbtvs	r5, [r1], #-3938	; 0xfffff09e
 5bc:	745f7264 	ldrbvc	r7, [pc], #-612	; 5c4 <_start-0x7a3c>
 5c0:	64685f6f 	strbtvs	r5, [r8], #-3951	; 0xfffff091
 5c4:	6b630072 	blvs	18c0794 <__bss_end__+0x18b6724>
 5c8:	6f6c6c61 	svcvs	0x006c6c61
 5cc:	00632e63 	rsbeq	r2, r3, r3, ror #28
 5d0:	7366666f 	cmnvc	r6, #116391936	; 0x6f00000
 5d4:	6c6c6100 	stfvse	f6, [ip], #-0
 5d8:	6c5f636f 	mrrcvs	3, 6, r6, pc, cr15	; <UNPREDICTABLE>
 5dc:	6800636f 	stmdavs	r0, {r0, r1, r2, r3, r5, r6, r8, r9, sp, lr}
 5e0:	635f7264 	cmpvs	pc, #100, 4	; 0x40000006
 5e4:	6d75736b 	ldclvs	3, cr7, [r5, #-428]!	; 0xfffffe54
 5e8:	79626e00 	stmdbvc	r2!, {r9, sl, fp, sp, lr}^
 5ec:	5f736574 	svcpl	0x00736574
 5f0:	6f6c6c61 	svcvs	0x006c6c61
 5f4:	5f620063 	svcpl	0x00620063
 5f8:	6f6c6c61 	svcvs	0x006c6c61
 5fc:	74705f63 	ldrbtvc	r5, [r0], #-3939	; 0xfffff09d
 600:	68630072 	stmdavs	r3!, {r1, r4, r5, r6}^
 604:	5f6b6365 	svcpl	0x006b6365
 608:	65657266 	strbvs	r7, [r5, #-614]!	; 0xfffffd9a
 60c:	6972775f 	ldmdbvs	r2!, {r0, r1, r2, r3, r4, r6, r8, r9, sl, ip, sp, lr}^
 610:	63006574 	movwvs	r6, #1396	; 0x574
 614:	6b636568 	blvs	18d9bbc <__bss_end__+0x18cfb4c>
 618:	7264685f 	rsbvc	r6, r4, #6225920	; 0x5f0000
 61c:	725f6200 	subsvc	r6, pc, #0, 4
 620:	705f327a 	subsvc	r3, pc, sl, ror r2	; <UNPREDICTABLE>
 624:	6e007274 	mcrvs	2, 0, r7, cr0, cr4, {3}
 628:	736b6c62 	cmnvc	fp, #25088	; 0x6200
 62c:	63727300 	cmnvs	r2, #0, 6
 630:	636f6c5f 	cmnvs	pc, #24320	; 0x5f00
 634:	7500745f 	strvc	r7, [r0, #-1119]	; 0xfffffba1
 638:	33746e69 	cmncc	r4, #1680	; 0x690
 63c:	00745f32 	rsbseq	r5, r4, r2, lsr pc
 640:	7272656e 	rsbsvc	r6, r2, #461373440	; 0x1b800000
 644:	0073726f 	rsbseq	r7, r3, pc, ror #4
 648:	5f726468 	svcpl	0x00726468
 64c:	6e697270 	mcrvs	2, 3, r7, cr9, cr0, {3}
 650:	65680074 	strbvs	r0, [r8, #-116]!	; 0xffffff8c
 654:	53007061 	movwpl	r7, #97	; 0x61
 658:	49544e45 	ldmdbmi	r4, {r0, r2, r6, r9, sl, fp, lr}^
 65c:	004c414e 	subeq	r4, ip, lr, asr #2
 660:	63656863 	cmnvs	r5, #6488064	; 0x630000
 664:	6c625f6b 	stclvs	15, cr5, [r2], #-428	; 0xfffffe54
 668:	006b636f 	rsbeq	r6, fp, pc, ror #6
 66c:	7a725f62 	bvc	1c983fc <__bss_end__+0x1c8e38c>
 670:	626e5f32 	rsbvs	r5, lr, #50, 30	; 0xc8
 674:	73657479 	cmnvc	r5, #2030043136	; 0x79000000
 678:	6e697500 	cdpvs	5, 6, cr7, cr9, cr0, {0}
 67c:	745f3874 	ldrbvc	r3, [pc], #-2164	; 684 <_start-0x797c>
 680:	72646800 	rsbvc	r6, r4, #0, 16
 684:	6e00745f 	cfmvsrvs	mvf0, r7
 688:	65747962 	ldrbvs	r7, [r4, #-2402]!	; 0xfffff69e
 68c:	65725f73 	ldrbvs	r5, [r2, #-3955]!	; 0xfffff08d
 690:	656c006d 	strbvs	r0, [ip, #-109]!	; 0xffffff93
 694:	63007466 	movwvs	r7, #1126	; 0x466
 698:	6b636568 	blvs	18d9c40 <__bss_end__+0x18cfbd0>
 69c:	6d656d5f 	stclvs	13, cr6, [r5, #-380]!	; 0xfffffe84
 6a0:	61656800 	cmnvs	r5, r0, lsl #16
 6a4:	00726564 	rsbseq	r6, r2, r4, ror #10
 6a8:	61765f5f 	cmnvs	r6, pc, asr pc
 6ac:	73696c5f 	cmnvc	r9, #24320	; 0x5f00
 6b0:	61760074 	cmnvs	r6, r4, ror r0
 6b4:	6972705f 	ldmdbvs	r2!, {r0, r1, r2, r3, r4, r6, ip, sp, lr}^
 6b8:	006b746e 	rsbeq	r7, fp, lr, ror #8
 6bc:	6e675f5f 	mcrvs	15, 3, r5, cr7, cr15, {2}
 6c0:	765f6375 			; <UNDEFINED> instruction: 0x765f6375
 6c4:	696c5f61 	stmdbvs	ip!, {r0, r5, r6, r8, r9, sl, fp, ip, lr}^
 6c8:	5f007473 	svcpl	0x00007473
 6cc:	0070615f 	rsbseq	r6, r0, pc, asr r1
 6d0:	6362696c 	cmnvs	r2, #108, 18	; 0x1b0000
 6d4:	6972702f 	ldmdbvs	r2!, {r0, r1, r2, r3, r5, ip, sp, lr}^
 6d8:	2e6b746e 	cdpcs	4, 6, cr7, cr11, cr14, {3}
 6dc:	682f0063 	stmdavs	pc!, {r0, r1, r5, r6}	; <UNPREDICTABLE>
 6e0:	2f656d6f 	svccs	0x00656d6f
 6e4:	72657375 	rsbvc	r7, r5, #-738197503	; 0xd4000001
 6e8:	7665442f 	strbtvc	r4, [r5], -pc, lsr #8
 6ec:	3253432f 	subscc	r4, r3, #-1140850688	; 0xbc000000
 6f0:	2f583034 	svccs	0x00583034
 6f4:	7062696c 	rsbvc	r6, r2, ip, ror #18
 6f8:	696c0069 	stmdbvs	ip!, {r0, r3, r5, r6}^
 6fc:	762f6362 	strtvc	r6, [pc], -r2, ror #6
 700:	72702d61 	rsbsvc	r2, r0, #6208	; 0x1840
 704:	6b746e69 	blvs	1d1c0b0 <__bss_end__+0x1d12040>
 708:	7200632e 	andvc	r6, r0, #-1207959552	; 0xb8000000
 70c:	735f6970 	cmpvc	pc, #112, 18	; 0x1c0000
 710:	6f5f7465 	svcvs	0x005f7465
 714:	75707475 	ldrbvc	r7, [r0, #-1141]!	; 0xfffffb8b
 718:	69730074 	ldmdbvs	r3!, {r2, r4, r5, r6}^
 71c:	64656e67 	strbtvs	r6, [r5], #-3687	; 0xfffff199
 720:	7200705f 	andvc	r7, r0, #95	; 0x5f
 724:	72657665 	rsbvc	r7, r5, #105906176	; 0x6500000
 728:	77006573 	smlsdxvc	r0, r3, r5, r6
 72c:	68746469 	ldmdavs	r4!, {r0, r3, r5, r6, sl, sp, lr}^
 730:	74757000 	ldrbtvc	r7, [r5], #-0
 734:	70665f73 	rsbvc	r5, r6, r3, ror pc
 738:	67656e00 	strbvs	r6, [r5, -r0, lsl #28]!
 73c:	7000705f 	andvc	r7, r0, pc, asr r0
 740:	5f637475 	svcpl	0x00637475
 744:	69007066 	stmdbvs	r0, {r1, r2, r5, r6, ip, sp, lr}
 748:	67696473 			; <UNDEFINED> instruction: 0x67696473
 74c:	65007469 	strvs	r7, [r0, #-1129]	; 0xfffffb97
 750:	0074696d 	rsbseq	r6, r4, sp, ror #18
 754:	6362696c 	cmnvs	r2, #108, 18	; 0x1b0000
 758:	7361682f 	cmnvc	r1, #3080192	; 0x2f0000
 75c:	00632e68 	rsbeq	r2, r3, r8, ror #28
 760:	65746e69 	ldrbvs	r6, [r4, #-3689]!	; 0xfffff197
 764:	6c616e72 	stclvs	14, cr6, [r1], #-456	; 0xfffffe38
 768:	7475705f 	ldrbtvc	r7, [r5], #-95	; 0xffffffa1
 76c:	696c006b 	stmdbvs	ip!, {r0, r1, r3, r5, r6}^
 770:	702f6362 	eorvc	r6, pc, r2, ror #6
 774:	2e6b7475 	mcrcs	4, 3, r7, cr11, cr5, {3}
 778:	70720063 	rsbsvc	r0, r2, r3, rrx
 77c:	65735f69 	ldrbvs	r5, [r3, #-3945]!	; 0xfffff097
 780:	75705f74 	ldrbvc	r5, [r0, #-3956]!	; 0xfffff08c
 784:	75006374 	strvc	r6, [r0, #-884]	; 0xfffffc8c
 788:	5f747261 	svcpl	0x00747261
 78c:	63747570 	cmnvs	r4, #112, 10	; 0x1c000000
 790:	746e6900 	strbtvc	r6, [lr], #-2304	; 0xfffff700
 794:	616e7265 	cmnvs	lr, r5, ror #4
 798:	75705f6c 	ldrbvc	r5, [r0, #-3948]!	; 0xfffff094
 79c:	61686374 	smcvs	34356	; 0x8634
 7a0:	696c0072 	stmdbvs	ip!, {r1, r4, r5, r6}^
 7a4:	702f6362 	eorvc	r6, pc, r2, ror #6
 7a8:	68637475 	stmdavs	r3!, {r0, r2, r4, r5, r6, sl, ip, sp, lr}^
 7ac:	632e7261 			; <UNDEFINED> instruction: 0x632e7261
 7b0:	7a697300 	bvc	1a5d3b8 <__bss_end__+0x1a53348>
 7b4:	00745f65 	rsbseq	r5, r4, r5, ror #30
 7b8:	6362696c 	cmnvs	r2, #108, 18	; 0x1b0000
 7bc:	6d656d2f 	stclvs	13, cr6, [r5, #-188]!	; 0xffffff44
 7c0:	2e746573 	mrccs	5, 3, r6, cr4, cr3, {3}
 7c4:	74730063 	ldrbtvc	r0, [r3], #-99	; 0xffffff9d
 7c8:	2d666661 	stclcs	6, cr6, [r6, #-388]!	; 0xfffffe7c
 7cc:	2f637273 	svccs	0x00637273
 7d0:	61747363 	cmnvs	r4, r3, ror #6
 7d4:	632e7472 			; <UNDEFINED> instruction: 0x632e7472
 7d8:	73635f00 	cmnvc	r3, #0, 30
 7dc:	74726174 	ldrbtvc	r6, [r2], #-372	; 0xfffffe8c
 7e0:	73736200 	cmnvc	r3, #0, 4
 7e4:	646e655f 	strbtvs	r6, [lr], #-1375	; 0xfffffaa1
 7e8:	625f5f00 	subsvs	r5, pc, #0, 30
 7ec:	735f7373 	cmpvc	pc, #-872415231	; 0xcc000001
 7f0:	74726174 	ldrbtvc	r6, [r2], #-372	; 0xfffffe8c
 7f4:	5f005f5f 	svcpl	0x00005f5f
 7f8:	7373625f 	cmnvc	r3, #-268435451	; 0xf0000005
 7fc:	646e655f 	strbtvs	r6, [lr], #-1375	; 0xfffffaa1
 800:	50005f5f 	andpl	r5, r0, pc, asr pc
 804:	53525f4d 	cmppl	r2, #308	; 0x134
 808:	50004354 	andpl	r4, r0, r4, asr r3
 80c:	32335455 	eorscc	r5, r3, #1426063360	; 0x55000000
 810:	5f4d5000 	svcpl	0x004d5000
 814:	43545352 	cmpmi	r4, #1207959553	; 0x48000001
 818:	4352575f 	cmpmi	r2, #24903680	; 0x17c0000
 81c:	465f4746 	ldrbmi	r4, [pc], -r6, asr #14
 820:	5f4c4c55 	svcpl	0x004c4c55
 824:	45534552 	ldrbmi	r4, [r3, #-1362]	; 0xfffffaae
 828:	4d500054 	ldclmi	0, cr0, [r0, #-336]	; 0xfffffeb0
 82c:	4f44575f 	svcmi	0x0044575f
 830:	70630047 	rsbvc	r0, r3, r7, asr #32
 834:	50007273 	andpl	r7, r0, r3, ror r2
 838:	41505f4d 	cmpmi	r0, sp, asr #30
 83c:	4f575353 	svcmi	0x00575353
 840:	64004452 	strvs	r4, [r0], #-1106	; 0xfffffbae
 844:	79616c65 	stmdbvc	r1!, {r0, r2, r5, r6, sl, fp, sp, lr}^
 848:	00736d5f 	rsbseq	r6, r3, pc, asr sp
 84c:	5f697072 	svcpl	0x00697072
 850:	6f626572 	svcvs	0x00626572
 854:	7300746f 	movwvc	r7, #1135	; 0x46f
 858:	66666174 			; <UNDEFINED> instruction: 0x66666174
 85c:	6372732d 	cmnvs	r2, #-1275068416	; 0xb4000000
 860:	6265722f 	rsbvs	r7, r5, #-268435454	; 0xf0000002
 864:	2e746f6f 	cdpcs	15, 7, cr6, cr4, cr15, {3}
 868:	65730063 	ldrbvs	r0, [r3, #-99]!	; 0xffffff9d
 86c:	73755f74 	cmnvc	r5, #116, 30	; 0x1d0
 870:	6c5f7265 	lfmvs	f7, 2, [pc], {101}	; 0x65
 874:	6c657665 	stclvs	6, cr7, [r5], #-404	; 0xfffffe6c
 878:	5f746100 	svcpl	0x00746100
 87c:	72657375 	rsbvc	r7, r5, #-738197503	; 0xd4000001
 880:	76656c5f 			; <UNDEFINED> instruction: 0x76656c5f
 884:	73006c65 	movwvc	r6, #3173	; 0xc65
 888:	66666174 			; <UNDEFINED> instruction: 0x66666174
 88c:	6372732d 	cmnvs	r2, #-1275068416	; 0xb4000000
 890:	656c632f 	strbvs	r6, [ip, #-815]!	; 0xfffffcd1
 894:	722d6e61 	eorvc	r6, sp, #1552	; 0x610
 898:	6f6f6265 	svcvs	0x006f6265
 89c:	00632e74 	rsbeq	r2, r3, r4, ror lr
 8a0:	656d6974 	strbvs	r6, [sp, #-2420]!	; 0xfffff68c
 8a4:	65675f72 	strbvs	r5, [r7, #-3954]!	; 0xfffff08e
 8a8:	73755f74 	cmnvc	r5, #116, 30	; 0x1d0
 8ac:	64006365 	strvs	r6, [r0], #-869	; 0xfffffc9b
 8b0:	79616c65 	stmdbvc	r1!, {r0, r2, r5, r6, sl, fp, sp, lr}^
 8b4:	6365735f 	cmnvs	r5, #2080374785	; 0x7c000001
 8b8:	6c656400 	cfstrdvs	mvd6, [r5], #-0
 8bc:	635f7961 	cmpvs	pc, #1589248	; 0x184000
 8c0:	656c6379 	strbvs	r6, [ip, #-889]!	; 0xfffffc87
 8c4:	74730073 	ldrbtvc	r0, [r3], #-115	; 0xffffff8d
 8c8:	2d666661 	stclcs	6, cr6, [r6, #-388]!	; 0xfffffe7c
 8cc:	2f637273 	svccs	0x00637273
 8d0:	656d6974 	strbvs	r6, [sp, #-2420]!	; 0xfffff68c
 8d4:	00632e72 	rsbeq	r2, r3, r2, ror lr
 8d8:	6b636974 	blvs	18daeb0 <__bss_end__+0x18d0e40>
 8dc:	45470073 	strbmi	r0, [r7, #-115]	; 0xffffff8d
 8e0:	00323354 	eorseq	r3, r2, r4, asr r3
 8e4:	656d6974 	strbvs	r6, [sp, #-2420]!	; 0xfffff68c
 8e8:	65675f72 	strbvs	r5, [r7, #-3954]!	; 0xfffff08e
 8ec:	73755f74 	cmnvc	r5, #116, 30	; 0x1d0
 8f0:	725f6365 	subsvc	r6, pc, #-1811939327	; 0x94000001
 8f4:	64007761 	strvs	r7, [r0], #-1889	; 0xfffff89f
 8f8:	79616c65 	stmdbvc	r1!, {r0, r2, r5, r6, sl, fp, sp, lr}^
 8fc:	0073755f 	rsbseq	r7, r3, pc, asr r5
 900:	74726175 	ldrbtvc	r6, [r2], #-373	; 0xfffffe8b
 904:	696e695f 	stmdbvs	lr!, {r0, r1, r2, r3, r4, r6, r8, fp, sp, lr}^
 908:	50470074 	subpl	r0, r7, r4, ror r0
 90c:	465f4f49 	ldrbmi	r4, [pc], -r9, asr #30
 910:	5f434e55 	svcpl	0x00434e55
 914:	55504e49 	ldrbpl	r4, [r0, #-3657]	; 0xfffff1b7
 918:	74730054 	ldrbtvc	r0, [r3], #-84	; 0xffffffac
 91c:	47007461 	strmi	r7, [r0, -r1, ror #8]
 920:	5f4f4950 	svcpl	0x004f4950
 924:	434e5546 	movtmi	r5, #58694	; 0xe546
 928:	544c415f 	strbpl	r4, [ip], #-351	; 0xfffffea1
 92c:	6e630031 	mcrvs	0, 3, r0, cr3, cr1, {1}
 930:	75006c74 	strvc	r6, [r0, #-3188]	; 0xfffff38c
 934:	2e747261 	cdpcs	2, 7, cr7, cr4, cr1, {3}
 938:	75610063 	strbvc	r0, [r1, #-99]!	; 0xffffff9d
 93c:	65705f78 	ldrbvs	r5, [r0, #-3960]!	; 0xfffff088
 940:	68706972 	ldmdavs	r0!, {r1, r4, r5, r6, r8, fp, sp, lr}^
 944:	682f0073 	stmdavs	pc!, {r0, r1, r4, r5, r6}	; <UNPREDICTABLE>
 948:	2f656d6f 	svccs	0x00656d6f
 94c:	6c676e65 	stclvs	14, cr6, [r7], #-404	; 0xfffffe6c
 950:	632f7265 			; <UNDEFINED> instruction: 0x632f7265
 954:	7373616c 	cmnvc	r3, #108, 2
 958:	3273632f 	rsbscc	r6, r3, #-1140850688	; 0xbc000000
 95c:	786c3034 	stmdavc	ip!, {r2, r4, r5, ip, sp}^
 960:	7330322d 	teqvc	r0, #-805306366	; 0xd0000002
 964:	6c2f7270 	sfmvs	f7, 4, [pc], #-448	; 7ac <_start-0x7854>
 968:	69706269 	ldmdbvs	r0!, {r0, r3, r5, r6, r9, sp, lr}^
 96c:	6174732f 	cmnvs	r4, pc, lsr #6
 970:	702d6666 	eorvc	r6, sp, r6, ror #12
 974:	61766972 	cmnvs	r6, r2, ror r9
 978:	61006574 	tstvs	r0, r4, ror r5
 97c:	655f7875 	ldrbvs	r7, [pc, #-2165]	; 10f <_start-0x7ef1>
 980:	6c62616e 	stfvse	f6, [r2], #-440	; 0xfffffe48
 984:	75007365 	strvc	r7, [r0, #-869]	; 0xfffffc9b
 988:	5f747261 	svcpl	0x00747261
 98c:	5f6e6163 	svcpl	0x006e6163
 990:	63747570 	cmnvs	r4, #112, 10	; 0x1c000000
 994:	72617500 	rsbvc	r7, r1, #0, 10
 998:	65675f74 	strbvs	r5, [r7, #-3956]!	; 0xfffff08c
 99c:	64006374 	strvs	r6, [r0], #-884	; 0xfffffc8c
 9a0:	625f7665 	subsvs	r7, pc, #105906176	; 0x6500000
 9a4:	69727261 	ldmdbvs	r2!, {r0, r5, r6, r9, ip, sp, lr}^
 9a8:	47007265 	strmi	r7, [r0, -r5, ror #4]
 9ac:	5f4f4950 	svcpl	0x004f4950
 9b0:	434e5546 	movtmi	r5, #58694	; 0xe546
 9b4:	544c415f 	strbpl	r4, [ip], #-351	; 0xfffffea1
 9b8:	70670032 	rsbvc	r0, r7, r2, lsr r0
 9bc:	735f6f69 	cmpvc	pc, #420	; 0x1a4
 9c0:	665f7465 	ldrbvs	r7, [pc], -r5, ror #8
 9c4:	74636e75 	strbtvc	r6, [r3], #-3701	; 0xfffff18b
 9c8:	006e6f69 	rsbeq	r6, lr, r9, ror #30
 9cc:	74726175 	ldrbtvc	r6, [r2], #-373	; 0xfffffe8b
 9d0:	75616200 	strbvc	r6, [r1, #-512]!	; 0xfffffe00
 9d4:	63730064 	cmnvs	r3, #100	; 0x64
 9d8:	63746172 	cmnvs	r4, #-2147483620	; 0x8000001c
 9dc:	75700068 	ldrbvc	r0, [r0, #-104]!	; 0xffffff98
 9e0:	00323374 	eorseq	r3, r2, r4, ror r3
 9e4:	4f495047 	svcmi	0x00495047
 9e8:	4e55465f 	mrcmi	6, 2, r4, cr5, cr15, {2}
 9ec:	554f5f43 	strbpl	r5, [pc, #-3907]	; fffffab1 <__bss_end__+0xffff5a41>
 9f0:	54555054 	ldrbpl	r5, [r5], #-84	; 0xffffffac
 9f4:	74656700 	strbtvc	r6, [r5], #-1792	; 0xfffff900
 9f8:	75003233 	strvc	r3, [r0, #-563]	; 0xfffffdcd
 9fc:	5f747261 	svcpl	0x00747261
 a00:	5f6e6163 	svcpl	0x006e6163
 a04:	63746567 	cmnvs	r4, #432013312	; 0x19c00000
 a08:	5f726f00 	svcpl	0x00726f00
 a0c:	32336e69 	eorscc	r6, r3, #1680	; 0x690
 a10:	72617500 	rsbvc	r7, r1, #0, 10
 a14:	61685f74 	smcvs	34292	; 0x85f4
 a18:	61645f73 	smcvs	17907	; 0x45f3
 a1c:	47006174 	smlsdxmi	r0, r4, r1, r6
 a20:	5f4f4950 	svcpl	0x004f4950
 a24:	434e5546 	movtmi	r5, #58694	; 0xe546
 a28:	544c415f 	strbpl	r4, [ip], #-351	; 0xfffffea1
 a2c:	50470030 	subpl	r0, r7, r0, lsr r0
 a30:	465f4f49 	ldrbmi	r4, [pc], -r9, asr #30
 a34:	5f434e55 	svcpl	0x00434e55
 a38:	33544c41 	cmpcc	r4, #16640	; 0x4100
 a3c:	49504700 	ldmdbmi	r0, {r8, r9, sl, lr}^
 a40:	55465f4f 	strbpl	r5, [r6, #-3919]	; 0xfffff0b1
 a44:	415f434e 	cmpmi	pc, lr, asr #6
 a48:	0034544c 	eorseq	r5, r4, ip, asr #8
 a4c:	4f495047 	svcmi	0x00495047
 a50:	4e55465f 	mrcmi	6, 2, r4, cr5, cr15, {2}
 a54:	4c415f43 	mcrrmi	15, 4, r5, r1, cr3
 a58:	67003554 	smlsdvs	r0, r4, r5, r3
 a5c:	5f6f6970 	svcpl	0x006f6970
 a60:	5f746573 	svcpl	0x00746573
 a64:	0066666f 	rsbeq	r6, r6, pc, ror #12
 a68:	6b6e6162 	blvs	1b98ff8 <__bss_end__+0x1b8ef88>
 a6c:	69706700 	ldmdbvs	r0!, {r8, r9, sl, sp, lr}^
 a70:	00632e6f 	rsbeq	r2, r3, pc, ror #28
 a74:	6f697067 	svcvs	0x00697067
 a78:	6165725f 	cmnvs	r5, pc, asr r2
 a7c:	70670064 	rsbvc	r0, r7, r4, rrx
 a80:	735f6f69 	cmpvc	pc, #420	; 0x1a4
 a84:	6f5f7465 	svcvs	0x005f7465
 a88:	75707475 	ldrbvc	r7, [r0, #-1141]!	; 0xfffffb8b
 a8c:	70670074 	rsbvc	r0, r7, r4, ror r0
 a90:	775f6f69 	ldrbvc	r6, [pc, -r9, ror #30]
 a94:	65746972 	ldrbvs	r6, [r4, #-2418]!	; 0xfffff68e
 a98:	69706700 	ldmdbvs	r0!, {r8, r9, sl, sp, lr}^
 a9c:	65735f6f 	ldrbvs	r5, [r3, #-3951]!	; 0xfffff091
 aa0:	67003074 	smlsdxvs	r0, r4, r0, r3
 aa4:	5f6f6970 	svcpl	0x006f6970
 aa8:	3076656c 	rsbscc	r6, r6, ip, ror #10
 aac:	69706700 	ldmdbvs	r0!, {r8, r9, sl, sp, lr}^
 ab0:	65735f6f 	ldrbvs	r5, [r3, #-3951]!	; 0xfffff091
 ab4:	6e695f74 	mcrvs	15, 3, r5, cr9, cr4, {3}
 ab8:	00747570 	rsbseq	r7, r4, r0, ror r5
 abc:	6f697067 	svcvs	0x00697067
 ac0:	7465735f 	strbtvc	r7, [r5], #-863	; 0xfffffca1
 ac4:	006e6f5f 	rsbeq	r6, lr, pc, asr pc
 ac8:	6f697067 	svcvs	0x00697067
 acc:	6e75665f 	mrcvs	6, 3, r6, cr5, cr15, {2}
 ad0:	00745f63 	rsbseq	r5, r4, r3, ror #30
 ad4:	6f697067 	svcvs	0x00697067
 ad8:	726c635f 	rsbvc	r6, ip, #2080374785	; 0x7c000001
 adc:	6d6b0030 	stclvs	0, cr0, [fp, #-192]!	; 0xffffff40
 ae0:	6f6c6c61 	svcvs	0x006c6c61
 ae4:	00632e63 	rsbeq	r2, r3, r3, ror #28
 ae8:	6c616d6b 	stclvs	13, cr6, [r1], #-428	; 0xfffffe54
 aec:	5f636f6c 	svcpl	0x00636f6c
 af0:	74696e69 	strbtvc	r6, [r9], #-3689	; 0xfffff197
 af4:	616d6b00 	cmnvs	sp, r0, lsl #22
 af8:	636f6c6c 	cmnvs	pc, #108, 24	; 0x6c00
 afc:	696c615f 	stmdbvs	ip!, {r0, r1, r2, r3, r4, r6, r8, sp, lr}^
 b00:	64656e67 	strbtvs	r6, [r5], #-3687	; 0xfffff199
 b04:	756f6400 	strbvc	r6, [pc, #-1024]!	; 70c <_start-0x78f4>
 b08:	00656c62 	rsbeq	r6, r5, r2, ror #24
 b0c:	6572666b 	ldrbvs	r6, [r2, #-1643]!	; 0xfffff995
 b10:	6c615f65 	stclvs	15, cr5, [r1], #-404	; 0xfffffe6c
 b14:	666b006c 	strbtvs	r0, [fp], -ip, rrx
 b18:	5f656572 	svcpl	0x00656572
 b1c:	65746661 	ldrbvs	r6, [r4, #-1633]!	; 0xfffff99f
 b20:	6d6b0072 	stclvs	0, cr0, [fp, #-456]!	; 0xfffffe38
 b24:	6f6c6c61 	svcvs	0x006c6c61
 b28:	65685f63 	strbvs	r5, [r8, #-3939]!	; 0xfffff09d
 b2c:	705f7061 	subsvc	r7, pc, r1, rrx
 b30:	61007274 	tstvs	r0, r4, ror r2
 b34:	6e67696c 	vnmulvs.f16	s13, s14, s25	; <UNPREDICTABLE>
 b38:	746e656d 	strbtvc	r6, [lr], #-1389	; 0xfffffa93
 b3c:	685f5f00 	ldmdavs	pc, {r8, r9, sl, fp, ip, lr}^	; <UNPREDICTABLE>
 b40:	5f706165 	svcpl	0x00706165
 b44:	72617473 	rsbvc	r7, r1, #1929379840	; 0x73000000
 b48:	005f5f74 	subseq	r5, pc, r4, ror pc	; <UNPREDICTABLE>
 b4c:	6c616d6b 	stclvs	13, cr6, [r1], #-428	; 0xfffffe54
 b50:	5f636f6c 	svcpl	0x00636f6c
 b54:	70616568 	rsbvc	r6, r1, r8, ror #10
 b58:	6174735f 	cmnvs	r4, pc, asr r3
 b5c:	5f007472 	svcpl	0x00007472
 b60:	72646461 	rsbvc	r6, r4, #1627389952	; 0x61000000
 b64:	616d6b00 	cmnvs	sp, r0, lsl #22
 b68:	636f6c6c 	cmnvs	pc, #108, 24	; 0x6c00
 b6c:	6165685f 	cmnvs	r5, pc, asr r8
 b70:	6e655f70 	mcrvs	15, 3, r5, cr5, cr0, {3}
 b74:	Address 0x0000000000000b74 is out of bounds.


Disassembly of section .debug_frame:

00000000 <.debug_frame>:
   0:	0000000c 	andeq	r0, r0, ip
   4:	ffffffff 			; <UNDEFINED> instruction: 0xffffffff
   8:	7c020001 	stcvc	0, cr0, [r2], {1}
   c:	000d0c0e 	andeq	r0, sp, lr, lsl #24
  10:	00000018 	andeq	r0, r0, r8, lsl r0
  14:	00000000 	andeq	r0, r0, r0
  18:	00008010 	andeq	r8, r0, r0, lsl r0
  1c:	000000fc 	strdeq	r0, [r0], -ip
  20:	84100e42 	ldrhi	r0, [r0], #-3650	; 0xfffff1be
  24:	86038504 	strhi	r8, [r3], -r4, lsl #10
  28:	00018e02 	andeq	r8, r1, r2, lsl #28
  2c:	0000000c 	andeq	r0, r0, ip
  30:	ffffffff 			; <UNDEFINED> instruction: 0xffffffff
  34:	7c020001 	stcvc	0, cr0, [r2], {1}
  38:	000d0c0e 	andeq	r0, sp, lr, lsl #24
  3c:	0000000c 	andeq	r0, r0, ip
  40:	0000002c 	andeq	r0, r0, ip, lsr #32
  44:	0000810c 	andeq	r8, r0, ip, lsl #2
  48:	00000008 	andeq	r0, r0, r8
  4c:	00000014 	andeq	r0, r0, r4, lsl r0
  50:	0000002c 	andeq	r0, r0, ip, lsr #32
  54:	00008114 	andeq	r8, r0, r4, lsl r1
  58:	00000010 	andeq	r0, r0, r0, lsl r0
  5c:	84080e42 	strhi	r0, [r8], #-3650	; 0xfffff1be
  60:	00018e02 	andeq	r8, r1, r2, lsl #28
  64:	00000014 	andeq	r0, r0, r4, lsl r0
  68:	0000002c 	andeq	r0, r0, ip, lsr #32
  6c:	00008124 	andeq	r8, r0, r4, lsr #2
  70:	00000018 	andeq	r0, r0, r8, lsl r0
  74:	84080e42 	strhi	r0, [r8], #-3650	; 0xfffff1be
  78:	00018e02 	andeq	r8, r1, r2, lsl #28
  7c:	0000000c 	andeq	r0, r0, ip
  80:	0000002c 	andeq	r0, r0, ip, lsr #32
  84:	0000813c 	andeq	r8, r0, ip, lsr r1
  88:	0000000c 	andeq	r0, r0, ip
  8c:	0000000c 	andeq	r0, r0, ip
  90:	0000002c 	andeq	r0, r0, ip, lsr #32
  94:	00008148 	andeq	r8, r0, r8, asr #2
  98:	00000008 	andeq	r0, r0, r8
  9c:	0000001c 	andeq	r0, r0, ip, lsl r0
  a0:	0000002c 	andeq	r0, r0, ip, lsr #32
  a4:	00008150 	andeq	r8, r0, r0, asr r1
  a8:	0000010c 	andeq	r0, r0, ip, lsl #2
  ac:	84180e42 	ldrhi	r0, [r8], #-3650	; 0xfffff1be
  b0:	86058506 	strhi	r8, [r5], -r6, lsl #10
  b4:	88038704 	stmdahi	r3, {r2, r8, r9, sl, pc}
  b8:	00018e02 	andeq	r8, r1, r2, lsl #28
  bc:	00000014 	andeq	r0, r0, r4, lsl r0
  c0:	0000002c 	andeq	r0, r0, ip, lsr #32
  c4:	0000825c 	andeq	r8, r0, ip, asr r2
  c8:	00000014 	andeq	r0, r0, r4, lsl r0
  cc:	84080e42 	strhi	r0, [r8], #-3650	; 0xfffff1be
  d0:	00018e02 	andeq	r8, r1, r2, lsl #28
  d4:	00000018 	andeq	r0, r0, r8, lsl r0
  d8:	0000002c 	andeq	r0, r0, ip, lsr #32
  dc:	00008270 	andeq	r8, r0, r0, ror r2
  e0:	00000024 	andeq	r0, r0, r4, lsr #32
  e4:	84100e42 	ldrhi	r0, [r0], #-3650	; 0xfffff1be
  e8:	86038504 	strhi	r8, [r3], -r4, lsl #10
  ec:	00018e02 	andeq	r8, r1, r2, lsl #28
  f0:	00000018 	andeq	r0, r0, r8, lsl r0
  f4:	0000002c 	andeq	r0, r0, ip, lsr #32
  f8:	00008294 	muleq	r0, r4, r2
  fc:	000000f4 	strdeq	r0, [r0], -r4
 100:	84100e42 	ldrhi	r0, [r0], #-3650	; 0xfffff1be
 104:	86038504 	strhi	r8, [r3], -r4, lsl #10
 108:	00018e02 	andeq	r8, r1, r2, lsl #28
 10c:	0000001c 	andeq	r0, r0, ip, lsl r0
 110:	0000002c 	andeq	r0, r0, ip, lsr #32
 114:	00008388 	andeq	r8, r0, r8, lsl #7
 118:	00000108 	andeq	r0, r0, r8, lsl #2
 11c:	84180e42 	ldrhi	r0, [r8], #-3650	; 0xfffff1be
 120:	86058506 	strhi	r8, [r5], -r6, lsl #10
 124:	88038704 	stmdahi	r3, {r2, r8, r9, sl, pc}
 128:	00018e02 	andeq	r8, r1, r2, lsl #28
 12c:	00000018 	andeq	r0, r0, r8, lsl r0
 130:	0000002c 	andeq	r0, r0, ip, lsr #32
 134:	00008490 	muleq	r0, r0, r4
 138:	00000064 	andeq	r0, r0, r4, rrx
 13c:	84100e42 	ldrhi	r0, [r0], #-3650	; 0xfffff1be
 140:	86038504 	strhi	r8, [r3], -r4, lsl #10
 144:	00018e02 	andeq	r8, r1, r2, lsl #28
 148:	00000018 	andeq	r0, r0, r8, lsl r0
 14c:	0000002c 	andeq	r0, r0, ip, lsr #32
 150:	000084f4 	strdeq	r8, [r0], -r4
 154:	00000074 	andeq	r0, r0, r4, ror r0
 158:	84100e42 	ldrhi	r0, [r0], #-3650	; 0xfffff1be
 15c:	86038504 	strhi	r8, [r3], -r4, lsl #10
 160:	00018e02 	andeq	r8, r1, r2, lsl #28
 164:	0000001c 	andeq	r0, r0, ip, lsl r0
 168:	0000002c 	andeq	r0, r0, ip, lsr #32
 16c:	00008568 	andeq	r8, r0, r8, ror #10
 170:	000000b8 	strheq	r0, [r0], -r8
 174:	84180e42 	ldrhi	r0, [r8], #-3650	; 0xfffff1be
 178:	86058506 	strhi	r8, [r5], -r6, lsl #10
 17c:	88038704 	stmdahi	r3, {r2, r8, r9, sl, pc}
 180:	00018e02 	andeq	r8, r1, r2, lsl #28
 184:	00000028 	andeq	r0, r0, r8, lsr #32
 188:	0000002c 	andeq	r0, r0, ip, lsr #32
 18c:	00008620 	andeq	r8, r0, r0, lsr #12
 190:	00000218 	andeq	r0, r0, r8, lsl r2
 194:	841c0e42 	ldrhi	r0, [ip], #-3650	; 0xfffff1be
 198:	86068507 	strhi	r8, [r6], -r7, lsl #10
 19c:	88048705 	stmdahi	r4, {r0, r2, r8, r9, sl, pc}
 1a0:	8e028903 	vmlahi.f16	s16, s4, s6	; <UNPREDICTABLE>
 1a4:	280e4201 	stmdacs	lr, {r0, r9, lr}
 1a8:	0e0a8c02 	cdpeq	12, 0, cr8, cr10, cr2, {0}
 1ac:	000b421c 	andeq	r4, fp, ip, lsl r2
 1b0:	0000001c 	andeq	r0, r0, ip, lsl r0
 1b4:	0000002c 	andeq	r0, r0, ip, lsr #32
 1b8:	00008838 	andeq	r8, r0, r8, lsr r8
 1bc:	0000014c 	andeq	r0, r0, ip, asr #2
 1c0:	84180e42 	ldrhi	r0, [r8], #-3650	; 0xfffff1be
 1c4:	86058506 	strhi	r8, [r5], -r6, lsl #10
 1c8:	88038704 	stmdahi	r3, {r2, r8, r9, sl, pc}
 1cc:	00018e02 	andeq	r8, r1, r2, lsl #28
 1d0:	0000000c 	andeq	r0, r0, ip
 1d4:	ffffffff 			; <UNDEFINED> instruction: 0xffffffff
 1d8:	7c020001 	stcvc	0, cr0, [r2], {1}
 1dc:	000d0c0e 	andeq	r0, sp, lr, lsl #24
 1e0:	00000034 	andeq	r0, r0, r4, lsr r0
 1e4:	000001d0 	ldrdeq	r0, [r0], -r0	; <UNPREDICTABLE>
 1e8:	00008984 	andeq	r8, r0, r4, lsl #19
 1ec:	00000058 	andeq	r0, r0, r8, asr r0
 1f0:	80100e42 	andshi	r0, r0, r2, asr #28
 1f4:	82038104 	andhi	r8, r3, #4, 2
 1f8:	42018302 	andmi	r8, r1, #134217728	; 0x8000000
 1fc:	07841c0e 	streq	r1, [r4, lr, lsl #24]
 200:	058e0685 	streq	r0, [lr, #1669]	; 0x685
 204:	5c280e42 	stcpl	14, cr0, [r8], #-264	; 0xfffffef8
 208:	ce421c0e 	cdpgt	12, 4, cr1, cr2, cr14, {0}
 20c:	100ec4c5 	andne	ip, lr, r5, asr #9
 210:	c1c2c342 	bicgt	ip, r2, r2, asr #6
 214:	00000ec0 	andeq	r0, r0, r0, asr #29
 218:	0000000c 	andeq	r0, r0, ip
 21c:	ffffffff 			; <UNDEFINED> instruction: 0xffffffff
 220:	7c020001 	stcvc	0, cr0, [r2], {1}
 224:	000d0c0e 	andeq	r0, sp, lr, lsl #24
 228:	0000000c 	andeq	r0, r0, ip
 22c:	00000218 	andeq	r0, r0, r8, lsl r2
 230:	000089dc 	ldrdeq	r8, [r0], -ip
 234:	00000014 	andeq	r0, r0, r4, lsl r0
 238:	0000000c 	andeq	r0, r0, ip
 23c:	00000218 	andeq	r0, r0, r8, lsl r2
 240:	000089f0 	strdeq	r8, [r0], -r0
 244:	0000002c 	andeq	r0, r0, ip, lsr #32
 248:	0000000c 	andeq	r0, r0, ip
 24c:	00000218 	andeq	r0, r0, r8, lsl r2
 250:	00008a1c 	andeq	r8, r0, ip, lsl sl
 254:	00000040 	andeq	r0, r0, r0, asr #32
 258:	00000024 	andeq	r0, r0, r4, lsr #32
 25c:	00000218 	andeq	r0, r0, r8, lsl r2
 260:	00008a5c 	andeq	r8, r0, ip, asr sl
 264:	000001b0 			; <UNDEFINED> instruction: 0x000001b0
 268:	84140e42 	ldrhi	r0, [r4], #-3650	; 0xfffff1be
 26c:	86048505 	strhi	r8, [r4], -r5, lsl #10
 270:	8e028703 	cdphi	7, 0, cr8, cr2, cr3, {0}
 274:	580e4201 	stmdapl	lr, {r0, r9, lr}
 278:	0e0a9c02 	cdpeq	12, 0, cr9, cr10, cr2, {0}
 27c:	000b4214 	andeq	r4, fp, r4, lsl r2
 280:	00000014 	andeq	r0, r0, r4, lsl r0
 284:	00000218 	andeq	r0, r0, r8, lsl r2
 288:	00008c0c 	andeq	r8, r0, ip, lsl #24
 28c:	00000054 	andeq	r0, r0, r4, asr r0
 290:	84080e52 	strhi	r0, [r8], #-3666	; 0xfffff1ae
 294:	00018e02 	andeq	r8, r1, r2, lsl #28
 298:	00000028 	andeq	r0, r0, r8, lsr #32
 29c:	00000218 	andeq	r0, r0, r8, lsl r2
 2a0:	00008c60 	andeq	r8, r0, r0, ror #24
 2a4:	000002c0 	andeq	r0, r0, r0, asr #5
 2a8:	841c0e42 	ldrhi	r0, [ip], #-3650	; 0xfffff1be
 2ac:	86068507 	strhi	r8, [r6], -r7, lsl #10
 2b0:	88048705 	stmdahi	r4, {r0, r2, r8, r9, sl, pc}
 2b4:	8e028903 	vmlahi.f16	s16, s4, s6	; <UNPREDICTABLE>
 2b8:	b00e4201 	andlt	r4, lr, r1, lsl #4
 2bc:	01500301 	cmpeq	r0, r1, lsl #6
 2c0:	00001c0e 	andeq	r1, r0, lr, lsl #24
 2c4:	0000000c 	andeq	r0, r0, ip
 2c8:	ffffffff 			; <UNDEFINED> instruction: 0xffffffff
 2cc:	7c020001 	stcvc	0, cr0, [r2], {1}
 2d0:	000d0c0e 	andeq	r0, sp, lr, lsl #24
 2d4:	00000018 	andeq	r0, r0, r8, lsl r0
 2d8:	000002c4 	andeq	r0, r0, r4, asr #5
 2dc:	00008f20 	andeq	r8, r0, r0, lsr #30
 2e0:	000000e8 	andeq	r0, r0, r8, ror #1
 2e4:	8e040e48 	cdphi	14, 0, cr0, cr4, cr8, {2}
 2e8:	0e680201 	cdpeq	2, 6, cr0, cr8, cr1, {0}
 2ec:	0000ce00 	andeq	ip, r0, r0, lsl #28
 2f0:	0000000c 	andeq	r0, r0, ip
 2f4:	ffffffff 			; <UNDEFINED> instruction: 0xffffffff
 2f8:	7c020001 	stcvc	0, cr0, [r2], {1}
 2fc:	000d0c0e 	andeq	r0, sp, lr, lsl #24
 300:	00000014 	andeq	r0, r0, r4, lsl r0
 304:	000002f0 	strdeq	r0, [r0], -r0	; <UNPREDICTABLE>
 308:	00009008 	andeq	r9, r0, r8
 30c:	00000034 	andeq	r0, r0, r4, lsr r0
 310:	84080e42 	strhi	r0, [r8], #-3650	; 0xfffff1be
 314:	00018e02 	andeq	r8, r1, r2, lsl #28
 318:	0000000c 	andeq	r0, r0, ip
 31c:	ffffffff 			; <UNDEFINED> instruction: 0xffffffff
 320:	7c020001 	stcvc	0, cr0, [r2], {1}
 324:	000d0c0e 	andeq	r0, sp, lr, lsl #24
 328:	00000014 	andeq	r0, r0, r4, lsl r0
 32c:	00000318 	andeq	r0, r0, r8, lsl r3
 330:	0000903c 	andeq	r9, r0, ip, lsr r0
 334:	00000014 	andeq	r0, r0, r4, lsl r0
 338:	84080e42 	strhi	r0, [r8], #-3650	; 0xfffff1be
 33c:	00018e02 	andeq	r8, r1, r2, lsl #28
 340:	0000000c 	andeq	r0, r0, ip
 344:	00000318 	andeq	r0, r0, r8, lsl r3
 348:	00009050 	andeq	r9, r0, r0, asr r0
 34c:	00000018 	andeq	r0, r0, r8, lsl r0
 350:	0000000c 	andeq	r0, r0, ip
 354:	00000318 	andeq	r0, r0, r8, lsl r3
 358:	00009068 	andeq	r9, r0, r8, rrx
 35c:	00000010 	andeq	r0, r0, r0, lsl r0
 360:	0000000c 	andeq	r0, r0, ip
 364:	ffffffff 			; <UNDEFINED> instruction: 0xffffffff
 368:	7c020001 	stcvc	0, cr0, [r2], {1}
 36c:	000d0c0e 	andeq	r0, sp, lr, lsl #24
 370:	0000000c 	andeq	r0, r0, ip
 374:	00000360 	andeq	r0, r0, r0, ror #6
 378:	00009078 	andeq	r9, r0, r8, ror r0
 37c:	00000020 	andeq	r0, r0, r0, lsr #32
 380:	0000000c 	andeq	r0, r0, ip
 384:	ffffffff 			; <UNDEFINED> instruction: 0xffffffff
 388:	7c020001 	stcvc	0, cr0, [r2], {1}
 38c:	000d0c0e 	andeq	r0, sp, lr, lsl #24
 390:	00000014 	andeq	r0, r0, r4, lsl r0
 394:	00000380 	andeq	r0, r0, r0, lsl #7
 398:	00009098 	muleq	r0, r8, r0
 39c:	00000034 	andeq	r0, r0, r4, lsr r0
 3a0:	84080e42 	strhi	r0, [r8], #-3650	; 0xfffff1be
 3a4:	00018e02 	andeq	r8, r1, r2, lsl #28
 3a8:	0000000c 	andeq	r0, r0, ip
 3ac:	ffffffff 			; <UNDEFINED> instruction: 0xffffffff
 3b0:	7c020001 	stcvc	0, cr0, [r2], {1}
 3b4:	000d0c0e 	andeq	r0, sp, lr, lsl #24
 3b8:	0000000c 	andeq	r0, r0, ip
 3bc:	000003a8 	andeq	r0, r0, r8, lsr #7
 3c0:	000090cc 	andeq	r9, r0, ip, asr #1
 3c4:	00000018 	andeq	r0, r0, r8, lsl r0
 3c8:	0000000c 	andeq	r0, r0, ip
 3cc:	000003a8 	andeq	r0, r0, r8, lsr #7
 3d0:	000090e4 	andeq	r9, r0, r4, ror #1
 3d4:	00000014 	andeq	r0, r0, r4, lsl r0
 3d8:	00000014 	andeq	r0, r0, r4, lsl r0
 3dc:	000003a8 	andeq	r0, r0, r8, lsr #7
 3e0:	000090f8 	strdeq	r9, [r0], -r8
 3e4:	0000004c 	andeq	r0, r0, ip, asr #32
 3e8:	84080e42 	strhi	r0, [r8], #-3650	; 0xfffff1be
 3ec:	00018e02 	andeq	r8, r1, r2, lsl #28
 3f0:	0000000c 	andeq	r0, r0, ip
 3f4:	ffffffff 			; <UNDEFINED> instruction: 0xffffffff
 3f8:	7c020001 	stcvc	0, cr0, [r2], {1}
 3fc:	000d0c0e 	andeq	r0, sp, lr, lsl #24
 400:	00000014 	andeq	r0, r0, r4, lsl r0
 404:	000003f0 	strdeq	r0, [r0], -r0	; <UNPREDICTABLE>
 408:	00009144 	andeq	r9, r0, r4, asr #2
 40c:	00000028 	andeq	r0, r0, r8, lsr #32
 410:	84080e42 	strhi	r0, [r8], #-3650	; 0xfffff1be
 414:	00018e02 	andeq	r8, r1, r2, lsl #28
 418:	0000000c 	andeq	r0, r0, ip
 41c:	ffffffff 			; <UNDEFINED> instruction: 0xffffffff
 420:	7c020001 	stcvc	0, cr0, [r2], {1}
 424:	000d0c0e 	andeq	r0, sp, lr, lsl #24
 428:	0000000c 	andeq	r0, r0, ip
 42c:	00000418 	andeq	r0, r0, r8, lsl r4
 430:	0000916c 	andeq	r9, r0, ip, ror #2
 434:	0000001c 	andeq	r0, r0, ip, lsl r0
 438:	00000014 	andeq	r0, r0, r4, lsl r0
 43c:	00000418 	andeq	r0, r0, r8, lsl r4
 440:	00009188 	andeq	r9, r0, r8, lsl #3
 444:	00000014 	andeq	r0, r0, r4, lsl r0
 448:	84080e42 	strhi	r0, [r8], #-3650	; 0xfffff1be
 44c:	00018e02 	andeq	r8, r1, r2, lsl #28
 450:	00000014 	andeq	r0, r0, r4, lsl r0
 454:	00000418 	andeq	r0, r0, r8, lsl r4
 458:	0000919c 	muleq	r0, ip, r1
 45c:	0000000c 	andeq	r0, r0, ip
 460:	84080e42 	strhi	r0, [r8], #-3650	; 0xfffff1be
 464:	00018e02 	andeq	r8, r1, r2, lsl #28
 468:	00000018 	andeq	r0, r0, r8, lsl r0
 46c:	00000418 	andeq	r0, r0, r8, lsl r4
 470:	000091a8 	andeq	r9, r0, r8, lsr #3
 474:	00000024 	andeq	r0, r0, r4, lsr #32
 478:	84100e42 	ldrhi	r0, [r0], #-3650	; 0xfffff1be
 47c:	86038504 	strhi	r8, [r3], -r4, lsl #10
 480:	00018e02 	andeq	r8, r1, r2, lsl #28
 484:	00000014 	andeq	r0, r0, r4, lsl r0
 488:	00000418 	andeq	r0, r0, r8, lsl r4
 48c:	000091cc 	andeq	r9, r0, ip, asr #3
 490:	00000014 	andeq	r0, r0, r4, lsl r0
 494:	84080e42 	strhi	r0, [r8], #-3650	; 0xfffff1be
 498:	00018e02 	andeq	r8, r1, r2, lsl #28
 49c:	00000014 	andeq	r0, r0, r4, lsl r0
 4a0:	00000418 	andeq	r0, r0, r8, lsl r4
 4a4:	000091e0 	andeq	r9, r0, r0, ror #3
 4a8:	00000014 	andeq	r0, r0, r4, lsl r0
 4ac:	84080e42 	strhi	r0, [r8], #-3650	; 0xfffff1be
 4b0:	00018e02 	andeq	r8, r1, r2, lsl #28
 4b4:	0000000c 	andeq	r0, r0, ip
 4b8:	ffffffff 			; <UNDEFINED> instruction: 0xffffffff
 4bc:	7c020001 	stcvc	0, cr0, [r2], {1}
 4c0:	000d0c0e 	andeq	r0, sp, lr, lsl #24
 4c4:	00000018 	andeq	r0, r0, r8, lsl r0
 4c8:	000004b4 			; <UNDEFINED> instruction: 0x000004b4
 4cc:	00009240 	andeq	r9, r0, r0, asr #4
 4d0:	00000020 	andeq	r0, r0, r0, lsr #32
 4d4:	84100e42 	ldrhi	r0, [r0], #-3650	; 0xfffff1be
 4d8:	86038504 	strhi	r8, [r3], -r4, lsl #10
 4dc:	00018e02 	andeq	r8, r1, r2, lsl #28
 4e0:	00000014 	andeq	r0, r0, r4, lsl r0
 4e4:	000004b4 			; <UNDEFINED> instruction: 0x000004b4
 4e8:	00009260 	andeq	r9, r0, r0, ror #4
 4ec:	000000b0 	strheq	r0, [r0], -r0	; <UNPREDICTABLE>
 4f0:	84080e42 	strhi	r0, [r8], #-3650	; 0xfffff1be
 4f4:	00018e02 	andeq	r8, r1, r2, lsl #28
 4f8:	00000014 	andeq	r0, r0, r4, lsl r0
 4fc:	000004b4 			; <UNDEFINED> instruction: 0x000004b4
 500:	00009310 	andeq	r9, r0, r0, lsl r3
 504:	00000018 	andeq	r0, r0, r8, lsl r0
 508:	84080e42 	strhi	r0, [r8], #-3650	; 0xfffff1be
 50c:	00018e02 	andeq	r8, r1, r2, lsl #28
 510:	00000014 	andeq	r0, r0, r4, lsl r0
 514:	000004b4 			; <UNDEFINED> instruction: 0x000004b4
 518:	00009328 	andeq	r9, r0, r8, lsr #6
 51c:	00000020 	andeq	r0, r0, r0, lsr #32
 520:	84080e42 	strhi	r0, [r8], #-3650	; 0xfffff1be
 524:	00018e02 	andeq	r8, r1, r2, lsl #28
 528:	00000014 	andeq	r0, r0, r4, lsl r0
 52c:	000004b4 			; <UNDEFINED> instruction: 0x000004b4
 530:	00009348 	andeq	r9, r0, r8, asr #6
 534:	00000030 	andeq	r0, r0, r0, lsr r0
 538:	84080e42 	strhi	r0, [r8], #-3650	; 0xfffff1be
 53c:	00018e02 	andeq	r8, r1, r2, lsl #28
 540:	00000014 	andeq	r0, r0, r4, lsl r0
 544:	000004b4 			; <UNDEFINED> instruction: 0x000004b4
 548:	00009378 	andeq	r9, r0, r8, ror r3
 54c:	00000030 	andeq	r0, r0, r0, lsr r0
 550:	84080e42 	strhi	r0, [r8], #-3650	; 0xfffff1be
 554:	00018e02 	andeq	r8, r1, r2, lsl #28
 558:	00000014 	andeq	r0, r0, r4, lsl r0
 55c:	000004b4 			; <UNDEFINED> instruction: 0x000004b4
 560:	000093a8 	andeq	r9, r0, r8, lsr #7
 564:	00000010 	andeq	r0, r0, r0, lsl r0
 568:	84080e42 	strhi	r0, [r8], #-3650	; 0xfffff1be
 56c:	00018e02 	andeq	r8, r1, r2, lsl #28
 570:	0000000c 	andeq	r0, r0, ip
 574:	ffffffff 			; <UNDEFINED> instruction: 0xffffffff
 578:	7c020001 	stcvc	0, cr0, [r2], {1}
 57c:	000d0c0e 	andeq	r0, sp, lr, lsl #24
 580:	00000018 	andeq	r0, r0, r8, lsl r0
 584:	00000570 	andeq	r0, r0, r0, ror r5
 588:	000093b8 			; <UNDEFINED> instruction: 0x000093b8
 58c:	00000068 	andeq	r0, r0, r8, rrx
 590:	84100e4a 	ldrhi	r0, [r0], #-3658	; 0xfffff1b6
 594:	86038504 	strhi	r8, [r3], -r4, lsl #10
 598:	00018e02 	andeq	r8, r1, r2, lsl #28
 59c:	00000014 	andeq	r0, r0, r4, lsl r0
 5a0:	00000570 	andeq	r0, r0, r0, ror r5
 5a4:	00009420 	andeq	r9, r0, r0, lsr #8
 5a8:	00000010 	andeq	r0, r0, r0, lsl r0
 5ac:	84080e42 	strhi	r0, [r8], #-3650	; 0xfffff1be
 5b0:	00018e02 	andeq	r8, r1, r2, lsl #28
 5b4:	00000014 	andeq	r0, r0, r4, lsl r0
 5b8:	00000570 	andeq	r0, r0, r0, ror r5
 5bc:	00009430 	andeq	r9, r0, r0, lsr r4
 5c0:	00000024 	andeq	r0, r0, r4, lsr #32
 5c4:	84080e46 	strhi	r0, [r8], #-3654	; 0xfffff1ba
 5c8:	00018e02 	andeq	r8, r1, r2, lsl #28
 5cc:	00000014 	andeq	r0, r0, r4, lsl r0
 5d0:	00000570 	andeq	r0, r0, r0, ror r5
 5d4:	00009454 	andeq	r9, r0, r4, asr r4
 5d8:	00000024 	andeq	r0, r0, r4, lsr #32
 5dc:	84080e46 	strhi	r0, [r8], #-3654	; 0xfffff1ba
 5e0:	00018e02 	andeq	r8, r1, r2, lsl #28
 5e4:	00000014 	andeq	r0, r0, r4, lsl r0
 5e8:	00000570 	andeq	r0, r0, r0, ror r5
 5ec:	00009478 	andeq	r9, r0, r8, ror r4
 5f0:	00000010 	andeq	r0, r0, r0, lsl r0
 5f4:	84080e42 	strhi	r0, [r8], #-3650	; 0xfffff1be
 5f8:	00018e02 	andeq	r8, r1, r2, lsl #28
 5fc:	00000014 	andeq	r0, r0, r4, lsl r0
 600:	00000570 	andeq	r0, r0, r0, ror r5
 604:	00009488 	andeq	r9, r0, r8, lsl #9
 608:	0000001c 	andeq	r0, r0, ip, lsl r0
 60c:	84080e42 	strhi	r0, [r8], #-3650	; 0xfffff1be
 610:	00018e02 	andeq	r8, r1, r2, lsl #28
 614:	00000018 	andeq	r0, r0, r8, lsl r0
 618:	00000570 	andeq	r0, r0, r0, ror r5
 61c:	000094a4 	andeq	r9, r0, r4, lsr #9
 620:	00000034 	andeq	r0, r0, r4, lsr r0
 624:	84080e46 	strhi	r0, [r8], #-3654	; 0xfffff1ba
 628:	4e018e02 	cdpmi	14, 0, cr8, cr1, cr2, {0}
 62c:	cec4000e 	cdpgt	0, 12, cr0, cr4, cr14, {0}
 630:	0000000c 	andeq	r0, r0, ip
 634:	ffffffff 			; <UNDEFINED> instruction: 0xffffffff
 638:	7c020001 	stcvc	0, cr0, [r2], {1}
 63c:	000d0c0e 	andeq	r0, sp, lr, lsl #24
 640:	0000000c 	andeq	r0, r0, ip
 644:	00000630 	andeq	r0, r0, r0, lsr r6
 648:	000094d8 	ldrdeq	r9, [r0], -r8
 64c:	00000010 	andeq	r0, r0, r0, lsl r0
 650:	0000000c 	andeq	r0, r0, ip
 654:	00000630 	andeq	r0, r0, r0, lsr r6
 658:	000094e8 	andeq	r9, r0, r8, ror #9
 65c:	0000000c 	andeq	r0, r0, ip
 660:	00000014 	andeq	r0, r0, r4, lsl r0
 664:	00000630 	andeq	r0, r0, r0, lsr r6
 668:	000094f4 	strdeq	r9, [r0], -r4
 66c:	00000050 	andeq	r0, r0, r0, asr r0
 670:	84080e52 	strhi	r0, [r8], #-3666	; 0xfffff1ae
 674:	00018e02 	andeq	r8, r1, r2, lsl #28
 678:	00000014 	andeq	r0, r0, r4, lsl r0
 67c:	00000630 	andeq	r0, r0, r0, lsr r6
 680:	00009544 	andeq	r9, r0, r4, asr #10
 684:	00000064 	andeq	r0, r0, r4, rrx
 688:	84080e42 	strhi	r0, [r8], #-3650	; 0xfffff1be
 68c:	00018e02 	andeq	r8, r1, r2, lsl #28
 690:	0000000c 	andeq	r0, r0, ip
 694:	00000630 	andeq	r0, r0, r0, lsr r6
 698:	000095a8 	andeq	r9, r0, r8, lsr #11
 69c:	00000004 	andeq	r0, r0, r4
 6a0:	00000014 	andeq	r0, r0, r4, lsl r0
 6a4:	00000630 	andeq	r0, r0, r0, lsr r6
 6a8:	000095ac 	andeq	r9, r0, ip, lsr #11
 6ac:	0000000c 	andeq	r0, r0, ip
 6b0:	84080e42 	strhi	r0, [r8], #-3650	; 0xfffff1be
 6b4:	00018e02 	andeq	r8, r1, r2, lsl #28
 6b8:	00000014 	andeq	r0, r0, r4, lsl r0
 6bc:	00000630 	andeq	r0, r0, r0, lsr r6
 6c0:	000095b8 			; <UNDEFINED> instruction: 0x000095b8
 6c4:	0000008c 	andeq	r0, r0, ip, lsl #1
 6c8:	84080e42 	strhi	r0, [r8], #-3650	; 0xfffff1be
 6cc:	00018e02 	andeq	r8, r1, r2, lsl #28
 6d0:	0000000c 	andeq	r0, r0, ip
 6d4:	00000630 	andeq	r0, r0, r0, lsr r6
 6d8:	00009644 	andeq	r9, r0, r4, asr #12
 6dc:	00000004 	andeq	r0, r0, r4
 6e0:	0000000c 	andeq	r0, r0, ip
 6e4:	00000630 	andeq	r0, r0, r0, lsr r6
 6e8:	00009648 	andeq	r9, r0, r8, asr #12
 6ec:	00000014 	andeq	r0, r0, r4, lsl r0
 6f0:	0000000c 	andeq	r0, r0, ip
 6f4:	00000630 	andeq	r0, r0, r0, lsr r6
 6f8:	0000965c 	andeq	r9, r0, ip, asr r6
 6fc:	00000010 	andeq	r0, r0, r0, lsl r0

Disassembly of section .debug_ranges:

00000000 <.debug_ranges>:
   0:	000000a0 	andeq	r0, r0, r0, lsr #1
   4:	000000e8 	andeq	r0, r0, r8, ror #1
   8:	00000100 	andeq	r0, r0, r0, lsl #2
   c:	0000012c 	andeq	r0, r0, ip, lsr #2
	...
  18:	000001c4 	andeq	r0, r0, r4, asr #3
  1c:	0000020c 	andeq	r0, r0, ip, lsl #4
  20:	0000022c 	andeq	r0, r0, ip, lsr #4
  24:	00000254 	andeq	r0, r0, r4, asr r2
	...
  30:	000002a4 	andeq	r0, r0, r4, lsr #5
  34:	0000035c 	andeq	r0, r0, ip, asr r3
  38:	00000364 	andeq	r0, r0, r4, ror #6
  3c:	00000368 	andeq	r0, r0, r8, ror #6
	...
  48:	000002dc 	ldrdeq	r0, [r0], -ip
  4c:	00000324 	andeq	r0, r0, r4, lsr #6
  50:	0000032c 	andeq	r0, r0, ip, lsr #6
  54:	00000354 	andeq	r0, r0, r4, asr r3
	...
  60:	00000760 	andeq	r0, r0, r0, ror #14
  64:	00000764 	andeq	r0, r0, r4, ror #14
  68:	0000076c 	andeq	r0, r0, ip, ror #14
  6c:	00000778 	andeq	r0, r0, r8, ror r7
  70:	0000079c 	muleq	r0, ip, r7
  74:	00000848 	andeq	r0, r0, r8, asr #16
	...
  80:	000002d8 	ldrdeq	r0, [r0], -r8
  84:	000002e4 	andeq	r0, r0, r4, ror #5
  88:	000002f4 	strdeq	r0, [r0], -r4
  8c:	00000518 	andeq	r0, r0, r8, lsl r5
	...
  98:	000090cc 	andeq	r9, r0, ip, asr #1
  9c:	00009144 	andeq	r9, r0, r4, asr #2
	...
