
part1-test3.elf:     file format elf32-littlearm


Disassembly of section .text:

00008000 <_start>:
    8000:	e3a0d302 	mov	sp, #134217728	; 0x8000000
    8004:	e3a0b000 	mov	fp, #0
    8008:	eb000417 	bl	906c <_cstart>
    800c:	eb00042e 	bl	90cc <rpi_reboot>

00008010 <notmain>:
    8010:	e92d4070 	push	{r4, r5, r6, lr}
    8014:	e24dd008 	sub	sp, sp, #8
    8018:	e59f00a8 	ldr	r0, [pc, #168]	; 80c8 <notmain+0xb8>
    801c:	eb00024d 	bl	8958 <printk>
    8020:	e3a00601 	mov	r0, #1048576	; 0x100000
    8024:	eb000527 	bl	94c8 <kmalloc_init_set_start>
    8028:	e3a00601 	mov	r0, #1048576	; 0x100000
    802c:	eb000539 	bl	9518 <kmalloc>
    8030:	e3a01601 	mov	r1, #1048576	; 0x100000
    8034:	eb000123 	bl	84c8 <ck_init>
    8038:	e59f608c 	ldr	r6, [pc, #140]	; 80cc <notmain+0xbc>
    803c:	e59f508c 	ldr	r5, [pc, #140]	; 80d0 <notmain+0xc0>
    8040:	e3a0300d 	mov	r3, #13
    8044:	e1a02006 	mov	r2, r6
    8048:	e1a01005 	mov	r1, r5
    804c:	e3a00004 	mov	r0, #4
    8050:	eb000167 	bl	85f4 <ckalloc>
    8054:	e1a04000 	mov	r4, r0
    8058:	e3a02004 	mov	r2, #4
    805c:	e3a01000 	mov	r1, #0
    8060:	eb0003f9 	bl	904c <memset>
    8064:	e3a0300f 	mov	r3, #15
    8068:	e1a02006 	mov	r2, r6
    806c:	e1a01005 	mov	r1, r5
    8070:	e1a00004 	mov	r0, r4
    8074:	eb000130 	bl	853c <ckfree>
    8078:	e3a03001 	mov	r3, #1
    807c:	e5c43000 	strb	r3, [r4]
    8080:	eb0001e1 	bl	880c <ck_heap_errors>
    8084:	e3500001 	cmp	r0, #1
    8088:	1a000005 	bne	80a4 <notmain+0x94>
    808c:	e59f0040 	ldr	r0, [pc, #64]	; 80d4 <notmain+0xc4>
    8090:	eb000230 	bl	8958 <printk>
    8094:	e59f003c 	ldr	r0, [pc, #60]	; 80d8 <notmain+0xc8>
    8098:	eb00022e 	bl	8958 <printk>
    809c:	e28dd008 	add	sp, sp, #8
    80a0:	e8bd8070 	pop	{r4, r5, r6, pc}
    80a4:	e1a04000 	mov	r4, r0
    80a8:	eb0003dd 	bl	9024 <rpi_reset_putc>
    80ac:	e58d4000 	str	r4, [sp]
    80b0:	e3a03014 	mov	r3, #20
    80b4:	e1a02006 	mov	r2, r6
    80b8:	e1a01005 	mov	r1, r5
    80bc:	e59f0018 	ldr	r0, [pc, #24]	; 80dc <notmain+0xcc>
    80c0:	eb000224 	bl	8958 <printk>
    80c4:	eb000413 	bl	9118 <clean_reboot>
    80c8:	00009670 	andeq	r9, r0, r0, ror r6
    80cc:	00009668 	andeq	r9, r0, r8, ror #12
    80d0:	00009688 	andeq	r9, r0, r8, lsl #13
    80d4:	000096d4 	ldrdeq	r9, [r0], -r4
    80d8:	000096dc 	ldrdeq	r9, [r0], -ip
    80dc:	00009698 	muleq	r0, r8, r6

000080e0 <b_rz1_ptr>:
    80e0:	e2800038 	add	r0, r0, #56	; 0x38
    80e4:	e12fff1e 	bx	lr

000080e8 <b_alloc_ptr>:
    80e8:	e92d4010 	push	{r4, lr}
    80ec:	ebfffffb 	bl	80e0 <b_rz1_ptr>
    80f0:	e2800080 	add	r0, r0, #128	; 0x80
    80f4:	e8bd8010 	pop	{r4, pc}

000080f8 <b_rz2_ptr>:
    80f8:	e92d4010 	push	{r4, lr}
    80fc:	e1a04000 	mov	r4, r0
    8100:	ebfffff8 	bl	80e8 <b_alloc_ptr>
    8104:	e5943000 	ldr	r3, [r4]
    8108:	e0800003 	add	r0, r0, r3
    810c:	e8bd8010 	pop	{r4, pc}

00008110 <b_rz2_nbytes>:
    8110:	e5900004 	ldr	r0, [r0, #4]
    8114:	e2800080 	add	r0, r0, #128	; 0x80
    8118:	e12fff1e 	bx	lr

0000811c <b_addr_to_hdr>:
    811c:	e24000b8 	sub	r0, r0, #184	; 0xb8
    8120:	e12fff1e 	bx	lr

00008124 <check_free_write>:
    8124:	e92d41f0 	push	{r4, r5, r6, r7, r8, lr}
    8128:	e3a04000 	mov	r4, #0
    812c:	e1540001 	cmp	r4, r1
    8130:	2a000035 	bcs	820c <check_free_write+0xe8>
    8134:	e7d03004 	ldrb	r3, [r0, r4]
    8138:	e35300fe 	cmp	r3, #254	; 0xfe
    813c:	02844001 	addeq	r4, r4, #1
    8140:	0afffff9 	beq	812c <check_free_write+0x8>
    8144:	e1a06002 	mov	r6, r2
    8148:	e1a05000 	mov	r5, r0
    814c:	e1a00002 	mov	r0, r2
    8150:	ebffffe4 	bl	80e8 <b_alloc_ptr>
    8154:	e0450000 	sub	r0, r5, r0
    8158:	e0844000 	add	r4, r4, r0
    815c:	e59f70b0 	ldr	r7, [pc, #176]	; 8214 <check_free_write+0xf0>
    8160:	e1a00007 	mov	r0, r7
    8164:	eb0001fb 	bl	8958 <printk>
    8168:	e59f00a8 	ldr	r0, [pc, #168]	; 8218 <check_free_write+0xf4>
    816c:	eb0001f9 	bl	8958 <printk>
    8170:	e1a02004 	mov	r2, r4
    8174:	e1a01005 	mov	r1, r5
    8178:	e59f009c 	ldr	r0, [pc, #156]	; 821c <check_free_write+0xf8>
    817c:	eb0001f5 	bl	8958 <printk>
    8180:	e1a00007 	mov	r0, r7
    8184:	eb0001f3 	bl	8958 <printk>
    8188:	e5961000 	ldr	r1, [r6]
    818c:	e59f008c 	ldr	r0, [pc, #140]	; 8220 <check_free_write+0xfc>
    8190:	eb0001f0 	bl	8958 <printk>
    8194:	e5963010 	ldr	r3, [r6, #16]
    8198:	e3530000 	cmp	r3, #0
    819c:	0a000006 	beq	81bc <check_free_write+0x98>
    81a0:	e1a00007 	mov	r0, r7
    81a4:	eb0001eb 	bl	8958 <printk>
    81a8:	e5963018 	ldr	r3, [r6, #24]
    81ac:	e5962014 	ldr	r2, [r6, #20]
    81b0:	e5961010 	ldr	r1, [r6, #16]
    81b4:	e59f0068 	ldr	r0, [pc, #104]	; 8224 <check_free_write+0x100>
    81b8:	eb0001e6 	bl	8958 <printk>
    81bc:	e5963008 	ldr	r3, [r6, #8]
    81c0:	e353000c 	cmp	r3, #12
    81c4:	0a000005 	beq	81e0 <check_free_write+0xbc>
    81c8:	e59f0044 	ldr	r0, [pc, #68]	; 8214 <check_free_write+0xf0>
    81cc:	eb0001e1 	bl	8958 <printk>
    81d0:	e59f0050 	ldr	r0, [pc, #80]	; 8228 <check_free_write+0x104>
    81d4:	eb0001df 	bl	8958 <printk>
    81d8:	e3a00000 	mov	r0, #0
    81dc:	e8bd81f0 	pop	{r4, r5, r6, r7, r8, pc}
    81e0:	e596301c 	ldr	r3, [r6, #28]
    81e4:	e3530000 	cmp	r3, #0
    81e8:	0afffff6 	beq	81c8 <check_free_write+0xa4>
    81ec:	e59f0020 	ldr	r0, [pc, #32]	; 8214 <check_free_write+0xf0>
    81f0:	eb0001d8 	bl	8958 <printk>
    81f4:	e5963024 	ldr	r3, [r6, #36]	; 0x24
    81f8:	e5962020 	ldr	r2, [r6, #32]
    81fc:	e596101c 	ldr	r1, [r6, #28]
    8200:	e59f0024 	ldr	r0, [pc, #36]	; 822c <check_free_write+0x108>
    8204:	eb0001d3 	bl	8958 <printk>
    8208:	eaffffee 	b	81c8 <check_free_write+0xa4>
    820c:	e3a00001 	mov	r0, #1
    8210:	e8bd81f0 	pop	{r4, r5, r6, r7, r8, pc}
    8214:	000096d4 	ldrdeq	r9, [r0], -r4
    8218:	00009714 	andeq	r9, r0, r4, lsl r7
    821c:	0000971c 	andeq	r9, r0, ip, lsl r7
    8220:	00009740 	andeq	r9, r0, r0, asr #14
    8224:	0000974c 	andeq	r9, r0, ip, asr #14
    8228:	00009788 	andeq	r9, r0, r8, lsl #15
    822c:	0000976c 	andeq	r9, r0, ip, ror #14

00008230 <mark_mem>:
    8230:	e92d4010 	push	{r4, lr}
    8234:	e1a02001 	mov	r2, r1
    8238:	e3a010fe 	mov	r1, #254	; 0xfe
    823c:	eb000382 	bl	904c <memset>
    8240:	e8bd8010 	pop	{r4, pc}

00008244 <hdr_cksum>:
    8244:	e92d4070 	push	{r4, r5, r6, lr}
    8248:	e1a04000 	mov	r4, r0
    824c:	e590500c 	ldr	r5, [r0, #12]
    8250:	e3a03000 	mov	r3, #0
    8254:	e580300c 	str	r3, [r0, #12]
    8258:	e3a01038 	mov	r1, #56	; 0x38
    825c:	eb000324 	bl	8ef4 <fast_hash>
    8260:	e584500c 	str	r5, [r4, #12]
    8264:	e8bd8070 	pop	{r4, r5, r6, pc}

00008268 <check_hdr>:
    8268:	e92d4070 	push	{r4, r5, r6, lr}
    826c:	e1a04000 	mov	r4, r0
    8270:	e5903008 	ldr	r3, [r0, #8]
    8274:	e243300b 	sub	r3, r3, #11
    8278:	e3530001 	cmp	r3, #1
    827c:	9a00001c 	bls	82f4 <check_hdr+0x8c>
    8280:	e59f50bc 	ldr	r5, [pc, #188]	; 8344 <check_hdr+0xdc>
    8284:	e1a00005 	mov	r0, r5
    8288:	eb0001b2 	bl	8958 <printk>
    828c:	e59f00b4 	ldr	r0, [pc, #180]	; 8348 <check_hdr+0xe0>
    8290:	eb0001b0 	bl	8958 <printk>
    8294:	e3a02000 	mov	r2, #0
    8298:	e1a01004 	mov	r1, r4
    829c:	e59f00a8 	ldr	r0, [pc, #168]	; 834c <check_hdr+0xe4>
    82a0:	eb0001ac 	bl	8958 <printk>
    82a4:	e1a00005 	mov	r0, r5
    82a8:	eb0001aa 	bl	8958 <printk>
    82ac:	e5941000 	ldr	r1, [r4]
    82b0:	e59f0098 	ldr	r0, [pc, #152]	; 8350 <check_hdr+0xe8>
    82b4:	eb0001a7 	bl	8958 <printk>
    82b8:	e5943010 	ldr	r3, [r4, #16]
    82bc:	e3530000 	cmp	r3, #0
    82c0:	0a000006 	beq	82e0 <check_hdr+0x78>
    82c4:	e1a00005 	mov	r0, r5
    82c8:	eb0001a2 	bl	8958 <printk>
    82cc:	e5943018 	ldr	r3, [r4, #24]
    82d0:	e5942014 	ldr	r2, [r4, #20]
    82d4:	e5941010 	ldr	r1, [r4, #16]
    82d8:	e59f0074 	ldr	r0, [pc, #116]	; 8354 <check_hdr+0xec>
    82dc:	eb00019d 	bl	8958 <printk>
    82e0:	e5943008 	ldr	r3, [r4, #8]
    82e4:	e353000c 	cmp	r3, #12
    82e8:	0a000007 	beq	830c <check_hdr+0xa4>
    82ec:	e3a00000 	mov	r0, #0
    82f0:	e8bd8070 	pop	{r4, r5, r6, pc}
    82f4:	e590500c 	ldr	r5, [r0, #12]
    82f8:	ebffffd1 	bl	8244 <hdr_cksum>
    82fc:	e1550000 	cmp	r5, r0
    8300:	1affffde 	bne	8280 <check_hdr+0x18>
    8304:	e3a00001 	mov	r0, #1
    8308:	e8bd8070 	pop	{r4, r5, r6, pc}
    830c:	e594301c 	ldr	r3, [r4, #28]
    8310:	e3530000 	cmp	r3, #0
    8314:	0a000008 	beq	833c <check_hdr+0xd4>
    8318:	e59f0024 	ldr	r0, [pc, #36]	; 8344 <check_hdr+0xdc>
    831c:	eb00018d 	bl	8958 <printk>
    8320:	e5943024 	ldr	r3, [r4, #36]	; 0x24
    8324:	e5942020 	ldr	r2, [r4, #32]
    8328:	e594101c 	ldr	r1, [r4, #28]
    832c:	e59f0024 	ldr	r0, [pc, #36]	; 8358 <check_hdr+0xf0>
    8330:	eb000188 	bl	8958 <printk>
    8334:	e3a00000 	mov	r0, #0
    8338:	e8bd8070 	pop	{r4, r5, r6, pc}
    833c:	e3a00000 	mov	r0, #0
    8340:	e8bd8070 	pop	{r4, r5, r6, pc}
    8344:	000096d4 	ldrdeq	r9, [r0], -r4
    8348:	00009714 	andeq	r9, r0, r4, lsl r7
    834c:	0000971c 	andeq	r9, r0, ip, lsl r7
    8350:	00009740 	andeq	r9, r0, r0, asr #14
    8354:	0000974c 	andeq	r9, r0, ip, asr #14
    8358:	0000976c 	andeq	r9, r0, ip, ror #14

0000835c <check_mem>:
    835c:	e92d41f0 	push	{r4, r5, r6, r7, r8, lr}
    8360:	e3a04000 	mov	r4, #0
    8364:	e1540001 	cmp	r4, r1
    8368:	2a000033 	bcs	843c <check_mem+0xe0>
    836c:	e7d03004 	ldrb	r3, [r0, r4]
    8370:	e35300fe 	cmp	r3, #254	; 0xfe
    8374:	02844001 	addeq	r4, r4, #1
    8378:	0afffff9 	beq	8364 <check_mem+0x8>
    837c:	e1a06002 	mov	r6, r2
    8380:	e1a05000 	mov	r5, r0
    8384:	e1a00002 	mov	r0, r2
    8388:	ebffff56 	bl	80e8 <b_alloc_ptr>
    838c:	e0450000 	sub	r0, r5, r0
    8390:	e0844000 	add	r4, r4, r0
    8394:	e59f70b0 	ldr	r7, [pc, #176]	; 844c <check_mem+0xf0>
    8398:	e1a00007 	mov	r0, r7
    839c:	eb00016d 	bl	8958 <printk>
    83a0:	e59f00a8 	ldr	r0, [pc, #168]	; 8450 <check_mem+0xf4>
    83a4:	eb00016b 	bl	8958 <printk>
    83a8:	e5961000 	ldr	r1, [r6]
    83ac:	e1a02004 	mov	r2, r4
    83b0:	e0451001 	sub	r1, r5, r1
    83b4:	e59f0098 	ldr	r0, [pc, #152]	; 8454 <check_mem+0xf8>
    83b8:	eb000166 	bl	8958 <printk>
    83bc:	e1a00007 	mov	r0, r7
    83c0:	eb000164 	bl	8958 <printk>
    83c4:	e5961000 	ldr	r1, [r6]
    83c8:	e59f0088 	ldr	r0, [pc, #136]	; 8458 <check_mem+0xfc>
    83cc:	eb000161 	bl	8958 <printk>
    83d0:	e5963010 	ldr	r3, [r6, #16]
    83d4:	e3530000 	cmp	r3, #0
    83d8:	0a000006 	beq	83f8 <check_mem+0x9c>
    83dc:	e1a00007 	mov	r0, r7
    83e0:	eb00015c 	bl	8958 <printk>
    83e4:	e5963018 	ldr	r3, [r6, #24]
    83e8:	e5962014 	ldr	r2, [r6, #20]
    83ec:	e5961010 	ldr	r1, [r6, #16]
    83f0:	e59f0064 	ldr	r0, [pc, #100]	; 845c <check_mem+0x100>
    83f4:	eb000157 	bl	8958 <printk>
    83f8:	e5963008 	ldr	r3, [r6, #8]
    83fc:	e353000c 	cmp	r3, #12
    8400:	0a000001 	beq	840c <check_mem+0xb0>
    8404:	e3a00000 	mov	r0, #0
    8408:	e8bd81f0 	pop	{r4, r5, r6, r7, r8, pc}
    840c:	e596301c 	ldr	r3, [r6, #28]
    8410:	e3530000 	cmp	r3, #0
    8414:	0a00000a 	beq	8444 <check_mem+0xe8>
    8418:	e59f002c 	ldr	r0, [pc, #44]	; 844c <check_mem+0xf0>
    841c:	eb00014d 	bl	8958 <printk>
    8420:	e5963024 	ldr	r3, [r6, #36]	; 0x24
    8424:	e5962020 	ldr	r2, [r6, #32]
    8428:	e596101c 	ldr	r1, [r6, #28]
    842c:	e59f002c 	ldr	r0, [pc, #44]	; 8460 <check_mem+0x104>
    8430:	eb000148 	bl	8958 <printk>
    8434:	e3a00000 	mov	r0, #0
    8438:	e8bd81f0 	pop	{r4, r5, r6, r7, r8, pc}
    843c:	e3a00001 	mov	r0, #1
    8440:	e8bd81f0 	pop	{r4, r5, r6, r7, r8, pc}
    8444:	e3a00000 	mov	r0, #0
    8448:	e8bd81f0 	pop	{r4, r5, r6, r7, r8, pc}
    844c:	000096d4 	ldrdeq	r9, [r0], -r4
    8450:	00009714 	andeq	r9, r0, r4, lsl r7
    8454:	0000971c 	andeq	r9, r0, ip, lsl r7
    8458:	00009740 	andeq	r9, r0, r0, asr #14
    845c:	0000974c 	andeq	r9, r0, ip, asr #14
    8460:	0000976c 	andeq	r9, r0, ip, ror #14

00008464 <check_block>:
    8464:	e92d4070 	push	{r4, r5, r6, lr}
    8468:	e1a04000 	mov	r4, r0
    846c:	ebffff7d 	bl	8268 <check_hdr>
    8470:	e3500000 	cmp	r0, #0
    8474:	08bd8070 	popeq	{r4, r5, r6, pc}
    8478:	e1a00004 	mov	r0, r4
    847c:	ebffff17 	bl	80e0 <b_rz1_ptr>
    8480:	e1a02004 	mov	r2, r4
    8484:	e3a01080 	mov	r1, #128	; 0x80
    8488:	ebffffb3 	bl	835c <check_mem>
    848c:	e3500000 	cmp	r0, #0
    8490:	08bd8070 	popeq	{r4, r5, r6, pc}
    8494:	e1a00004 	mov	r0, r4
    8498:	ebffff16 	bl	80f8 <b_rz2_ptr>
    849c:	e1a05000 	mov	r5, r0
    84a0:	e1a00004 	mov	r0, r4
    84a4:	ebffff19 	bl	8110 <b_rz2_nbytes>
    84a8:	e1a02004 	mov	r2, r4
    84ac:	e1a01000 	mov	r1, r0
    84b0:	e1a00005 	mov	r0, r5
    84b4:	ebffffa8 	bl	835c <check_mem>
    84b8:	e3500000 	cmp	r0, #0
    84bc:	08bd8070 	popeq	{r4, r5, r6, pc}
    84c0:	e3a00001 	mov	r0, #1
    84c4:	e8bd8070 	pop	{r4, r5, r6, pc}

000084c8 <ck_init>:
    84c8:	e92d4070 	push	{r4, r5, r6, lr}
    84cc:	e59f3054 	ldr	r3, [pc, #84]	; 8528 <ck_init+0x60>
    84d0:	e5933000 	ldr	r3, [r3]
    84d4:	e3130007 	tst	r3, #7
    84d8:	1a00000b 	bne	850c <ck_init+0x44>
    84dc:	e1a04000 	mov	r4, r0
    84e0:	e1a05001 	mov	r5, r1
    84e4:	e3a02080 	mov	r2, #128	; 0x80
    84e8:	e3a01038 	mov	r1, #56	; 0x38
    84ec:	e59f0038 	ldr	r0, [pc, #56]	; 852c <ck_init+0x64>
    84f0:	eb000118 	bl	8958 <printk>
    84f4:	e59f302c 	ldr	r3, [pc, #44]	; 8528 <ck_init+0x60>
    84f8:	e5834000 	str	r4, [r3]
    84fc:	e5834004 	str	r4, [r3, #4]
    8500:	e0844005 	add	r4, r4, r5
    8504:	e5834008 	str	r4, [r3, #8]
    8508:	e8bd8070 	pop	{r4, r5, r6, pc}
    850c:	eb0002c4 	bl	9024 <rpi_reset_putc>
    8510:	e3a0300a 	mov	r3, #10
    8514:	e59f2014 	ldr	r2, [pc, #20]	; 8530 <ck_init+0x68>
    8518:	e59f1014 	ldr	r1, [pc, #20]	; 8534 <ck_init+0x6c>
    851c:	e59f0014 	ldr	r0, [pc, #20]	; 8538 <ck_init+0x70>
    8520:	eb00010c 	bl	8958 <printk>
    8524:	eb0002fb 	bl	9118 <clean_reboot>
    8528:	00009c30 	andeq	r9, r0, r0, lsr ip
    852c:	000097d8 	ldrdeq	r9, [r0], -r8
    8530:	000096fc 	strdeq	r9, [r0], -ip
    8534:	000097a4 	andeq	r9, r0, r4, lsr #15
    8538:	000097b0 			; <UNDEFINED> instruction: 0x000097b0

0000853c <ckfree>:
    853c:	e92d41f0 	push	{r4, r5, r6, r7, r8, lr}
    8540:	e1a05000 	mov	r5, r0
    8544:	e1a08001 	mov	r8, r1
    8548:	e1a07002 	mov	r7, r2
    854c:	e1a06003 	mov	r6, r3
    8550:	ebfffef1 	bl	811c <b_addr_to_hdr>
    8554:	e59f3080 	ldr	r3, [pc, #128]	; 85dc <ckfree+0xa0>
    8558:	e5933004 	ldr	r3, [r3, #4]
    855c:	e3530000 	cmp	r3, #0
    8560:	0a000016 	beq	85c0 <ckfree+0x84>
    8564:	e1a04000 	mov	r4, r0
    8568:	e59f0070 	ldr	r0, [pc, #112]	; 85e0 <ckfree+0xa4>
    856c:	eb0000f9 	bl	8958 <printk>
    8570:	e1a01005 	mov	r1, r5
    8574:	e59f0068 	ldr	r0, [pc, #104]	; 85e4 <ckfree+0xa8>
    8578:	eb0000f6 	bl	8958 <printk>
    857c:	e1a00004 	mov	r0, r4
    8580:	ebffffb7 	bl	8464 <check_block>
    8584:	e3500000 	cmp	r0, #0
    8588:	08bd81f0 	popeq	{r4, r5, r6, r7, r8, pc}
    858c:	e584801c 	str	r8, [r4, #28]
    8590:	e5847020 	str	r7, [r4, #32]
    8594:	e5846024 	str	r6, [r4, #36]	; 0x24
    8598:	e3a0300c 	mov	r3, #12
    859c:	e5843008 	str	r3, [r4, #8]
    85a0:	e1a00004 	mov	r0, r4
    85a4:	ebfffecf 	bl	80e8 <b_alloc_ptr>
    85a8:	e5941000 	ldr	r1, [r4]
    85ac:	ebffff1f 	bl	8230 <mark_mem>
    85b0:	e1a00004 	mov	r0, r4
    85b4:	ebffff22 	bl	8244 <hdr_cksum>
    85b8:	e584000c 	str	r0, [r4, #12]
    85bc:	e8bd81f0 	pop	{r4, r5, r6, r7, r8, pc}
    85c0:	eb000297 	bl	9024 <rpi_reset_putc>
    85c4:	e3a03075 	mov	r3, #117	; 0x75
    85c8:	e59f2018 	ldr	r2, [pc, #24]	; 85e8 <ckfree+0xac>
    85cc:	e59f1018 	ldr	r1, [pc, #24]	; 85ec <ckfree+0xb0>
    85d0:	e59f0018 	ldr	r0, [pc, #24]	; 85f0 <ckfree+0xb4>
    85d4:	eb0000df 	bl	8958 <printk>
    85d8:	eb0002ce 	bl	9118 <clean_reboot>
    85dc:	00009c30 	andeq	r9, r0, r0, lsr ip
    85e0:	000096d4 	ldrdeq	r9, [r0], -r4
    85e4:	00009828 	andeq	r9, r0, r8, lsr #16
    85e8:	00009704 	andeq	r9, r0, r4, lsl #14
    85ec:	000097a4 	andeq	r9, r0, r4, lsr #15
    85f0:	000097f4 	strdeq	r9, [r0], -r4

000085f4 <ckalloc>:
    85f4:	e92d43f0 	push	{r4, r5, r6, r7, r8, r9, lr}
    85f8:	e24dd00c 	sub	sp, sp, #12
    85fc:	e1a07003 	mov	r7, r3
    8600:	e59f31d0 	ldr	r3, [pc, #464]	; 87d8 <ckalloc+0x1e4>
    8604:	e5933004 	ldr	r3, [r3, #4]
    8608:	e3530000 	cmp	r3, #0
    860c:	0a000041 	beq	8718 <ckalloc+0x124>
    8610:	e1a05000 	mov	r5, r0
    8614:	e1a09001 	mov	r9, r1
    8618:	e1a08002 	mov	r8, r2
    861c:	e59f01b8 	ldr	r0, [pc, #440]	; 87dc <ckalloc+0x1e8>
    8620:	eb0000cc 	bl	8958 <printk>
    8624:	e1a01005 	mov	r1, r5
    8628:	e59f01b0 	ldr	r0, [pc, #432]	; 87e0 <ckalloc+0x1ec>
    862c:	eb0000c9 	bl	8958 <printk>
    8630:	e2853007 	add	r3, r5, #7
    8634:	e3c33007 	bic	r3, r3, #7
    8638:	e2836f4e 	add	r6, r3, #312	; 0x138
    863c:	e1550006 	cmp	r5, r6
    8640:	8a00003b 	bhi	8734 <ckalloc+0x140>
    8644:	e59f218c 	ldr	r2, [pc, #396]	; 87d8 <ckalloc+0x1e4>
    8648:	e5924004 	ldr	r4, [r2, #4]
    864c:	e0841006 	add	r1, r4, r6
    8650:	e5922008 	ldr	r2, [r2, #8]
    8654:	e1510002 	cmp	r1, r2
    8658:	2a000042 	bcs	8768 <ckalloc+0x174>
    865c:	e5845000 	str	r5, [r4]
    8660:	e5843004 	str	r3, [r4, #4]
    8664:	e3a0300b 	mov	r3, #11
    8668:	e5843008 	str	r3, [r4, #8]
    866c:	e5849010 	str	r9, [r4, #16]
    8670:	e5848014 	str	r8, [r4, #20]
    8674:	e5847018 	str	r7, [r4, #24]
    8678:	e3a03001 	mov	r3, #1
    867c:	e5843028 	str	r3, [r4, #40]	; 0x28
    8680:	e3a03000 	mov	r3, #0
    8684:	e584302c 	str	r3, [r4, #44]	; 0x2c
    8688:	e1a00004 	mov	r0, r4
    868c:	ebfffe93 	bl	80e0 <b_rz1_ptr>
    8690:	e3a01080 	mov	r1, #128	; 0x80
    8694:	ebfffee5 	bl	8230 <mark_mem>
    8698:	e1a00004 	mov	r0, r4
    869c:	ebfffe95 	bl	80f8 <b_rz2_ptr>
    86a0:	e1a07000 	mov	r7, r0
    86a4:	e1a00004 	mov	r0, r4
    86a8:	ebfffe98 	bl	8110 <b_rz2_nbytes>
    86ac:	e1a01000 	mov	r1, r0
    86b0:	e1a00007 	mov	r0, r7
    86b4:	ebfffedd 	bl	8230 <mark_mem>
    86b8:	e1a00004 	mov	r0, r4
    86bc:	ebfffee0 	bl	8244 <hdr_cksum>
    86c0:	e584000c 	str	r0, [r4, #12]
    86c4:	e59f210c 	ldr	r2, [pc, #268]	; 87d8 <ckalloc+0x1e4>
    86c8:	e5923004 	ldr	r3, [r2, #4]
    86cc:	e0833006 	add	r3, r3, r6
    86d0:	e5823004 	str	r3, [r2, #4]
    86d4:	e1a00004 	mov	r0, r4
    86d8:	ebffff61 	bl	8464 <check_block>
    86dc:	e3500000 	cmp	r0, #0
    86e0:	0a000035 	beq	87bc <ckalloc+0x1c8>
    86e4:	e1a00004 	mov	r0, r4
    86e8:	ebfffe7e 	bl	80e8 <b_alloc_ptr>
    86ec:	e1a04000 	mov	r4, r0
    86f0:	e59f00e4 	ldr	r0, [pc, #228]	; 87dc <ckalloc+0x1e8>
    86f4:	eb000097 	bl	8958 <printk>
    86f8:	e1a03004 	mov	r3, r4
    86fc:	e1a02006 	mov	r2, r6
    8700:	e1a01005 	mov	r1, r5
    8704:	e59f00d8 	ldr	r0, [pc, #216]	; 87e4 <ckalloc+0x1f0>
    8708:	eb000092 	bl	8958 <printk>
    870c:	e1a00004 	mov	r0, r4
    8710:	e28dd00c 	add	sp, sp, #12
    8714:	e8bd83f0 	pop	{r4, r5, r6, r7, r8, r9, pc}
    8718:	eb000241 	bl	9024 <rpi_reset_putc>
    871c:	e3a0308b 	mov	r3, #139	; 0x8b
    8720:	e59f20c0 	ldr	r2, [pc, #192]	; 87e8 <ckalloc+0x1f4>
    8724:	e59f10c0 	ldr	r1, [pc, #192]	; 87ec <ckalloc+0x1f8>
    8728:	e59f00c0 	ldr	r0, [pc, #192]	; 87f0 <ckalloc+0x1fc>
    872c:	eb000089 	bl	8958 <printk>
    8730:	eb000278 	bl	9118 <clean_reboot>
    8734:	e59f00b8 	ldr	r0, [pc, #184]	; 87f4 <ckalloc+0x200>
    8738:	eb000086 	bl	8958 <printk>
    873c:	e1a01005 	mov	r1, r5
    8740:	e59f00b0 	ldr	r0, [pc, #176]	; 87f8 <ckalloc+0x204>
    8744:	eb000083 	bl	8958 <printk>
    8748:	eb000235 	bl	9024 <rpi_reset_putc>
    874c:	e58d5000 	str	r5, [sp]
    8750:	e3a03093 	mov	r3, #147	; 0x93
    8754:	e59f208c 	ldr	r2, [pc, #140]	; 87e8 <ckalloc+0x1f4>
    8758:	e59f108c 	ldr	r1, [pc, #140]	; 87ec <ckalloc+0x1f8>
    875c:	e59f0098 	ldr	r0, [pc, #152]	; 87fc <ckalloc+0x208>
    8760:	eb00007c 	bl	8958 <printk>
    8764:	eb00026b 	bl	9118 <clean_reboot>
    8768:	e59f0084 	ldr	r0, [pc, #132]	; 87f4 <ckalloc+0x200>
    876c:	eb000079 	bl	8958 <printk>
    8770:	e59f4060 	ldr	r4, [pc, #96]	; 87d8 <ckalloc+0x1e4>
    8774:	e5941008 	ldr	r1, [r4, #8]
    8778:	e5943004 	ldr	r3, [r4, #4]
    877c:	e1a02006 	mov	r2, r6
    8780:	e0411003 	sub	r1, r1, r3
    8784:	e59f0074 	ldr	r0, [pc, #116]	; 8800 <ckalloc+0x20c>
    8788:	eb000072 	bl	8958 <printk>
    878c:	eb000224 	bl	9024 <rpi_reset_putc>
    8790:	e58d6004 	str	r6, [sp, #4]
    8794:	e5943008 	ldr	r3, [r4, #8]
    8798:	e5942004 	ldr	r2, [r4, #4]
    879c:	e0433002 	sub	r3, r3, r2
    87a0:	e58d3000 	str	r3, [sp]
    87a4:	e3a03097 	mov	r3, #151	; 0x97
    87a8:	e59f2038 	ldr	r2, [pc, #56]	; 87e8 <ckalloc+0x1f4>
    87ac:	e59f1038 	ldr	r1, [pc, #56]	; 87ec <ckalloc+0x1f8>
    87b0:	e59f004c 	ldr	r0, [pc, #76]	; 8804 <ckalloc+0x210>
    87b4:	eb000067 	bl	8958 <printk>
    87b8:	eb000256 	bl	9118 <clean_reboot>
    87bc:	eb000218 	bl	9024 <rpi_reset_putc>
    87c0:	e3a030a5 	mov	r3, #165	; 0xa5
    87c4:	e59f201c 	ldr	r2, [pc, #28]	; 87e8 <ckalloc+0x1f4>
    87c8:	e59f101c 	ldr	r1, [pc, #28]	; 87ec <ckalloc+0x1f8>
    87cc:	e59f0034 	ldr	r0, [pc, #52]	; 8808 <ckalloc+0x214>
    87d0:	eb000060 	bl	8958 <printk>
    87d4:	eb00024f 	bl	9118 <clean_reboot>
    87d8:	00009c30 	andeq	r9, r0, r0, lsr ip
    87dc:	000096d4 	ldrdeq	r9, [r0], -r4
    87e0:	00009834 	andeq	r9, r0, r4, lsr r8
    87e4:	00009940 	andeq	r9, r0, r0, asr #18
    87e8:	0000970c 	andeq	r9, r0, ip, lsl #14
    87ec:	000097a4 	andeq	r9, r0, r4, lsr #15
    87f0:	000097f4 	strdeq	r9, [r0], -r4
    87f4:	0000984c 	andeq	r9, r0, ip, asr #16
    87f8:	00009858 	andeq	r9, r0, r8, asr r8
    87fc:	00009880 	andeq	r9, r0, r0, lsl #17
    8800:	000098b8 			; <UNDEFINED> instruction: 0x000098b8
    8804:	000098e4 	andeq	r9, r0, r4, ror #17
    8808:	00009920 	andeq	r9, r0, r0, lsr #18

0000880c <ck_heap_errors>:
    880c:	e92d41f0 	push	{r4, r5, r6, r7, r8, lr}
    8810:	e59f412c 	ldr	r4, [pc, #300]	; 8944 <ck_heap_errors+0x138>
    8814:	e5943004 	ldr	r3, [r4, #4]
    8818:	e5945000 	ldr	r5, [r4]
    881c:	e0435005 	sub	r5, r3, r5
    8820:	e5946008 	ldr	r6, [r4, #8]
    8824:	e0466003 	sub	r6, r6, r3
    8828:	e59f0118 	ldr	r0, [pc, #280]	; 8948 <ck_heap_errors+0x13c>
    882c:	eb000049 	bl	8958 <printk>
    8830:	e1a02006 	mov	r2, r6
    8834:	e1a01005 	mov	r1, r5
    8838:	e59f010c 	ldr	r0, [pc, #268]	; 894c <ck_heap_errors+0x140>
    883c:	eb000045 	bl	8958 <printk>
    8840:	e5944000 	ldr	r4, [r4]
    8844:	e3a05000 	mov	r5, #0
    8848:	e1a06005 	mov	r6, r5
    884c:	ea000011 	b	8898 <ck_heap_errors+0x8c>
    8850:	e2866001 	add	r6, r6, #1
    8854:	e2855001 	add	r5, r5, #1
    8858:	e3560000 	cmp	r6, #0
    885c:	1a000031 	bne	8928 <ck_heap_errors+0x11c>
    8860:	e59f00e0 	ldr	r0, [pc, #224]	; 8948 <ck_heap_errors+0x13c>
    8864:	eb00003b 	bl	8958 <printk>
    8868:	e1a01005 	mov	r1, r5
    886c:	e59f00dc 	ldr	r0, [pc, #220]	; 8950 <ck_heap_errors+0x144>
    8870:	eb000038 	bl	8958 <printk>
    8874:	e1a00006 	mov	r0, r6
    8878:	e8bd81f0 	pop	{r4, r5, r6, r7, r8, pc}
    887c:	e2866001 	add	r6, r6, #1
    8880:	e2855001 	add	r5, r5, #1
    8884:	e5943000 	ldr	r3, [r4]
    8888:	e5942004 	ldr	r2, [r4, #4]
    888c:	e0833002 	add	r3, r3, r2
    8890:	e2833f4e 	add	r3, r3, #312	; 0x138
    8894:	e0844003 	add	r4, r4, r3
    8898:	e59f30a4 	ldr	r3, [pc, #164]	; 8944 <ck_heap_errors+0x138>
    889c:	e5933004 	ldr	r3, [r3, #4]
    88a0:	e1540003 	cmp	r4, r3
    88a4:	2affffeb 	bcs	8858 <ck_heap_errors+0x4c>
    88a8:	e1a00004 	mov	r0, r4
    88ac:	ebfffe6d 	bl	8268 <check_hdr>
    88b0:	e3500000 	cmp	r0, #0
    88b4:	0affffe5 	beq	8850 <ck_heap_errors+0x44>
    88b8:	e1a00004 	mov	r0, r4
    88bc:	ebfffe07 	bl	80e0 <b_rz1_ptr>
    88c0:	e1a02004 	mov	r2, r4
    88c4:	e3a01080 	mov	r1, #128	; 0x80
    88c8:	ebfffea3 	bl	835c <check_mem>
    88cc:	e3500000 	cmp	r0, #0
    88d0:	0affffe9 	beq	887c <ck_heap_errors+0x70>
    88d4:	e1a00004 	mov	r0, r4
    88d8:	ebfffe06 	bl	80f8 <b_rz2_ptr>
    88dc:	e1a07000 	mov	r7, r0
    88e0:	e1a00004 	mov	r0, r4
    88e4:	ebfffe09 	bl	8110 <b_rz2_nbytes>
    88e8:	e1a02004 	mov	r2, r4
    88ec:	e1a01000 	mov	r1, r0
    88f0:	e1a00007 	mov	r0, r7
    88f4:	ebfffe98 	bl	835c <check_mem>
    88f8:	e3500000 	cmp	r0, #0
    88fc:	0affffde 	beq	887c <ck_heap_errors+0x70>
    8900:	e3a0300c 	mov	r3, #12
    8904:	e5843008 	str	r3, [r4, #8]
    8908:	e1a00004 	mov	r0, r4
    890c:	ebfffdf5 	bl	80e8 <b_alloc_ptr>
    8910:	e1a02004 	mov	r2, r4
    8914:	e5941000 	ldr	r1, [r4]
    8918:	ebfffe01 	bl	8124 <check_free_write>
    891c:	e3500000 	cmp	r0, #0
    8920:	02866001 	addeq	r6, r6, #1
    8924:	eaffffd5 	b	8880 <ck_heap_errors+0x74>
    8928:	e59f0018 	ldr	r0, [pc, #24]	; 8948 <ck_heap_errors+0x13c>
    892c:	eb000009 	bl	8958 <printk>
    8930:	e1a02006 	mov	r2, r6
    8934:	e1a01005 	mov	r1, r5
    8938:	e59f0014 	ldr	r0, [pc, #20]	; 8954 <ck_heap_errors+0x148>
    893c:	eb000005 	bl	8958 <printk>
    8940:	eaffffcb 	b	8874 <ck_heap_errors+0x68>
    8944:	00009c30 	andeq	r9, r0, r0, lsr ip
    8948:	000096d4 	ldrdeq	r9, [r0], -r4
    894c:	00009970 	andeq	r9, r0, r0, ror r9
    8950:	000099d0 	ldrdeq	r9, [r0], -r0
    8954:	000099a8 	andeq	r9, r0, r8, lsr #19

00008958 <printk>:
    8958:	e92d000f 	push	{r0, r1, r2, r3}
    895c:	e92d4030 	push	{r4, r5, lr}
    8960:	e24dd00c 	sub	sp, sp, #12
    8964:	e28d301c 	add	r3, sp, #28
    8968:	e58d3004 	str	r3, [sp, #4]
    896c:	e59f4034 	ldr	r4, [pc, #52]	; 89a8 <printk+0x50>
    8970:	e59d2018 	ldr	r2, [sp, #24]
    8974:	e3a01b01 	mov	r1, #1024	; 0x400
    8978:	e1a00004 	mov	r0, r4
    897c:	eb0000ac 	bl	8c34 <va_printk>
    8980:	e1a05000 	mov	r5, r0
    8984:	e59f3020 	ldr	r3, [pc, #32]	; 89ac <printk+0x54>
    8988:	e5933000 	ldr	r3, [r3]
    898c:	e1a00004 	mov	r0, r4
    8990:	e12fff33 	blx	r3
    8994:	e1a00005 	mov	r0, r5
    8998:	e28dd00c 	add	sp, sp, #12
    899c:	e8bd4030 	pop	{r4, r5, lr}
    89a0:	e28dd010 	add	sp, sp, #16
    89a4:	e12fff1e 	bx	lr
    89a8:	00009c3c 	andeq	r9, r0, ip, lsr ip
    89ac:	00009658 	andeq	r9, r0, r8, asr r6

000089b0 <isdigit>:
    89b0:	e2400030 	sub	r0, r0, #48	; 0x30
    89b4:	e3500009 	cmp	r0, #9
    89b8:	83a00000 	movhi	r0, #0
    89bc:	93a00001 	movls	r0, #1
    89c0:	e12fff1e 	bx	lr

000089c4 <pad>:
    89c4:	e0401001 	sub	r1, r0, r1
    89c8:	ea000003 	b	89dc <pad+0x18>
    89cc:	e3a03020 	mov	r3, #32
    89d0:	e5c03000 	strb	r3, [r0]
    89d4:	e2811001 	add	r1, r1, #1
    89d8:	e2800001 	add	r0, r0, #1
    89dc:	e1510002 	cmp	r1, r2
    89e0:	bafffff9 	blt	89cc <pad+0x8>
    89e4:	e3a03000 	mov	r3, #0
    89e8:	e5c03000 	strb	r3, [r0]
    89ec:	e12fff1e 	bx	lr

000089f0 <reverse>:
    89f0:	e042c003 	sub	ip, r2, r3
    89f4:	e28cc001 	add	ip, ip, #1
    89f8:	e15c0001 	cmp	ip, r1
    89fc:	c04cc001 	subgt	ip, ip, r1
    8a00:	c083300c 	addgt	r3, r3, ip
    8a04:	e2422001 	sub	r2, r2, #1
    8a08:	e1a01000 	mov	r1, r0
    8a0c:	ea000002 	b	8a1c <reverse+0x2c>
    8a10:	e452c001 	ldrb	ip, [r2], #-1
    8a14:	e5c1c000 	strb	ip, [r1]
    8a18:	e2811001 	add	r1, r1, #1
    8a1c:	e1520003 	cmp	r2, r3
    8a20:	2afffffa 	bcs	8a10 <reverse+0x20>
    8a24:	e3a03000 	mov	r3, #0
    8a28:	e5c13000 	strb	r3, [r1]
    8a2c:	e12fff1e 	bx	lr

00008a30 <emit>:
    8a30:	e92d40f0 	push	{r4, r5, r6, r7, lr}
    8a34:	e24dd044 	sub	sp, sp, #68	; 0x44
    8a38:	e1a05001 	mov	r5, r1
    8a3c:	e1a04002 	mov	r4, r2
    8a40:	e59d2058 	ldr	r2, [sp, #88]	; 0x58
    8a44:	e1520004 	cmp	r2, r4
    8a48:	c2442001 	subgt	r2, r4, #1
    8a4c:	e1a01003 	mov	r1, r3
    8a50:	e2400002 	sub	r0, r0, #2
    8a54:	e350000e 	cmp	r0, #14
    8a58:	979ff100 	ldrls	pc, [pc, r0, lsl #2]
    8a5c:	ea000051 	b	8ba8 <emit+0x178>
    8a60:	00008b80 	andeq	r8, r0, r0, lsl #23
    8a64:	00008ba8 	andeq	r8, r0, r8, lsr #23
    8a68:	00008ba8 	andeq	r8, r0, r8, lsr #23
    8a6c:	00008ba8 	andeq	r8, r0, r8, lsr #23
    8a70:	00008ba8 	andeq	r8, r0, r8, lsr #23
    8a74:	00008ba8 	andeq	r8, r0, r8, lsr #23
    8a78:	00008b74 	andeq	r8, r0, r4, ror fp
    8a7c:	00008ba8 	andeq	r8, r0, r8, lsr #23
    8a80:	00008a9c 	muleq	r0, ip, sl
    8a84:	00008ba8 	andeq	r8, r0, r8, lsr #23
    8a88:	00008ba8 	andeq	r8, r0, r8, lsr #23
    8a8c:	00008ba8 	andeq	r8, r0, r8, lsr #23
    8a90:	00008ba8 	andeq	r8, r0, r8, lsr #23
    8a94:	00008ba8 	andeq	r8, r0, r8, lsr #23
    8a98:	00008b18 	andeq	r8, r0, r8, lsl fp
    8a9c:	e59d005c 	ldr	r0, [sp, #92]	; 0x5c
    8aa0:	e2900000 	adds	r0, r0, #0
    8aa4:	13a00001 	movne	r0, #1
    8aa8:	e0100fa3 	ands	r0, r0, r3, lsr #31
    8aac:	0a000003 	beq	8ac0 <emit+0x90>
    8ab0:	e2631000 	rsb	r1, r3, #0
    8ab4:	e3a07001 	mov	r7, #1
    8ab8:	e1a0c00d 	mov	ip, sp
    8abc:	ea000002 	b	8acc <emit+0x9c>
    8ac0:	e3a07000 	mov	r7, #0
    8ac4:	eafffffb 	b	8ab8 <emit+0x88>
    8ac8:	e1a0c000 	mov	ip, r0
    8acc:	e28c0001 	add	r0, ip, #1
    8ad0:	e59f30ec 	ldr	r3, [pc, #236]	; 8bc4 <emit+0x194>
    8ad4:	e083e193 	umull	lr, r3, r3, r1
    8ad8:	e1a031a3 	lsr	r3, r3, #3
    8adc:	e1a0e003 	mov	lr, r3
    8ae0:	e0833103 	add	r3, r3, r3, lsl #2
    8ae4:	e1a06083 	lsl	r6, r3, #1
    8ae8:	e0413006 	sub	r3, r1, r6
    8aec:	e59f10d4 	ldr	r1, [pc, #212]	; 8bc8 <emit+0x198>
    8af0:	e7d13003 	ldrb	r3, [r1, r3]
    8af4:	e5cc3000 	strb	r3, [ip]
    8af8:	e1a0100e 	mov	r1, lr
    8afc:	e35e0000 	cmp	lr, #0
    8b00:	1afffff0 	bne	8ac8 <emit+0x98>
    8b04:	e3570000 	cmp	r7, #0
    8b08:	13a0302d 	movne	r3, #45	; 0x2d
    8b0c:	15c03000 	strbne	r3, [r0]
    8b10:	128c0002 	addne	r0, ip, #2
    8b14:	ea00000d 	b	8b50 <emit+0x120>
    8b18:	e1a0300d 	mov	r3, sp
    8b1c:	e283c001 	add	ip, r3, #1
    8b20:	e201000f 	and	r0, r1, #15
    8b24:	e59fe0a0 	ldr	lr, [pc, #160]	; 8bcc <emit+0x19c>
    8b28:	e7de0000 	ldrb	r0, [lr, r0]
    8b2c:	e5c30000 	strb	r0, [r3]
    8b30:	e1a0300c 	mov	r3, ip
    8b34:	e1b01221 	lsrs	r1, r1, #4
    8b38:	1afffff7 	bne	8b1c <emit+0xec>
    8b3c:	e1a0000c 	mov	r0, ip
    8b40:	e3a03078 	mov	r3, #120	; 0x78
    8b44:	e4c03002 	strb	r3, [r0], #2
    8b48:	e3a03030 	mov	r3, #48	; 0x30
    8b4c:	e5cc3001 	strb	r3, [ip, #1]
    8b50:	e1a0100d 	mov	r1, sp
    8b54:	ebffff9a 	bl	89c4 <pad>
    8b58:	e1a0300d 	mov	r3, sp
    8b5c:	e1a02000 	mov	r2, r0
    8b60:	e1a01004 	mov	r1, r4
    8b64:	e1a00005 	mov	r0, r5
    8b68:	ebffffa0 	bl	89f0 <reverse>
    8b6c:	e28dd044 	add	sp, sp, #68	; 0x44
    8b70:	e8bd80f0 	pop	{r4, r5, r6, r7, pc}
    8b74:	e5cd3000 	strb	r3, [sp]
    8b78:	e28d0001 	add	r0, sp, #1
    8b7c:	eafffff3 	b	8b50 <emit+0x120>
    8b80:	e1a0300d 	mov	r3, sp
    8b84:	e2830001 	add	r0, r3, #1
    8b88:	e201c001 	and	ip, r1, #1
    8b8c:	e59fe03c 	ldr	lr, [pc, #60]	; 8bd0 <emit+0x1a0>
    8b90:	e7dec00c 	ldrb	ip, [lr, ip]
    8b94:	e5c3c000 	strb	ip, [r3]
    8b98:	e1a03000 	mov	r3, r0
    8b9c:	e1b010a1 	lsrs	r1, r1, #1
    8ba0:	1afffff7 	bne	8b84 <emit+0x154>
    8ba4:	eaffffe9 	b	8b50 <emit+0x120>
    8ba8:	eb00011d 	bl	9024 <rpi_reset_putc>
    8bac:	e3a03077 	mov	r3, #119	; 0x77
    8bb0:	e59f201c 	ldr	r2, [pc, #28]	; 8bd4 <emit+0x1a4>
    8bb4:	e59f101c 	ldr	r1, [pc, #28]	; 8bd8 <emit+0x1a8>
    8bb8:	e59f001c 	ldr	r0, [pc, #28]	; 8bdc <emit+0x1ac>
    8bbc:	ebffff65 	bl	8958 <printk>
    8bc0:	eb000154 	bl	9118 <clean_reboot>
    8bc4:	cccccccd 	stclgt	12, cr12, [ip], {205}	; 0xcd
    8bc8:	00009a4c 	andeq	r9, r0, ip, asr #20
    8bcc:	00009a58 	andeq	r9, r0, r8, asr sl
    8bd0:	00009a6c 	andeq	r9, r0, ip, ror #20
    8bd4:	00009a00 	andeq	r9, r0, r0, lsl #20
    8bd8:	00009a24 	andeq	r9, r0, r4, lsr #20
    8bdc:	00009a38 	andeq	r9, r0, r8, lsr sl

00008be0 <rpi_set_output>:
    8be0:	e3500000 	cmp	r0, #0
    8be4:	0a000005 	beq	8c00 <rpi_set_output+0x20>
    8be8:	e59f3030 	ldr	r3, [pc, #48]	; 8c20 <rpi_set_output+0x40>
    8bec:	e5830000 	str	r0, [r3]
    8bf0:	e3510000 	cmp	r1, #0
    8bf4:	159f3028 	ldrne	r3, [pc, #40]	; 8c24 <rpi_set_output+0x44>
    8bf8:	15831000 	strne	r1, [r3]
    8bfc:	e12fff1e 	bx	lr
    8c00:	e92d4010 	push	{r4, lr}
    8c04:	eb000106 	bl	9024 <rpi_reset_putc>
    8c08:	e3a03020 	mov	r3, #32
    8c0c:	e59f2014 	ldr	r2, [pc, #20]	; 8c28 <rpi_set_output+0x48>
    8c10:	e59f1014 	ldr	r1, [pc, #20]	; 8c2c <rpi_set_output+0x4c>
    8c14:	e59f0014 	ldr	r0, [pc, #20]	; 8c30 <rpi_set_output+0x50>
    8c18:	ebffff4e 	bl	8958 <printk>
    8c1c:	eb00013d 	bl	9118 <clean_reboot>
    8c20:	0000965c 	andeq	r9, r0, ip, asr r6
    8c24:	00009658 	andeq	r9, r0, r8, asr r6
    8c28:	00009a08 	andeq	r9, r0, r8, lsl #20
    8c2c:	00009a24 	andeq	r9, r0, r4, lsr #20
    8c30:	00009a70 	andeq	r9, r0, r0, ror sl

00008c34 <va_printk>:
    8c34:	e92d43f0 	push	{r4, r5, r6, r7, r8, r9, lr}
    8c38:	e24dd094 	sub	sp, sp, #148	; 0x94
    8c3c:	e1a09000 	mov	r9, r0
    8c40:	e58d300c 	str	r3, [sp, #12]
    8c44:	e2411001 	sub	r1, r1, #1
    8c48:	e0808001 	add	r8, r0, r1
    8c4c:	e3a03000 	mov	r3, #0
    8c50:	e5c03000 	strb	r3, [r0]
    8c54:	e1a06000 	mov	r6, r0
    8c58:	e5d23000 	ldrb	r3, [r2]
    8c5c:	e3530000 	cmp	r3, #0
    8c60:	0a000098 	beq	8ec8 <va_printk+0x294>
    8c64:	e1560008 	cmp	r6, r8
    8c68:	2a000096 	bcs	8ec8 <va_printk+0x294>
    8c6c:	e3530025 	cmp	r3, #37	; 0x25
    8c70:	12822001 	addne	r2, r2, #1
    8c74:	15c63000 	strbne	r3, [r6]
    8c78:	12866001 	addne	r6, r6, #1
    8c7c:	1afffff5 	bne	8c58 <va_printk+0x24>
    8c80:	e5d21001 	ldrb	r1, [r2, #1]
    8c84:	e3510025 	cmp	r1, #37	; 0x25
    8c88:	12825001 	addne	r5, r2, #1
    8c8c:	13a04000 	movne	r4, #0
    8c90:	1a000008 	bne	8cb8 <va_printk+0x84>
    8c94:	e5c63000 	strb	r3, [r6]
    8c98:	e2822002 	add	r2, r2, #2
    8c9c:	e2866001 	add	r6, r6, #1
    8ca0:	eaffffec 	b	8c58 <va_printk+0x24>
    8ca4:	e0844104 	add	r4, r4, r4, lsl #2
    8ca8:	e1a03084 	lsl	r3, r4, #1
    8cac:	e0834007 	add	r4, r3, r7
    8cb0:	e2444030 	sub	r4, r4, #48	; 0x30
    8cb4:	e2855001 	add	r5, r5, #1
    8cb8:	e5d57000 	ldrb	r7, [r5]
    8cbc:	e1a00007 	mov	r0, r7
    8cc0:	ebffff3a 	bl	89b0 <isdigit>
    8cc4:	e3500000 	cmp	r0, #0
    8cc8:	1afffff5 	bne	8ca4 <va_printk+0x70>
    8ccc:	e354001f 	cmp	r4, #31
    8cd0:	8a00001a 	bhi	8d40 <va_printk+0x10c>
    8cd4:	e2477062 	sub	r7, r7, #98	; 0x62
    8cd8:	e3570016 	cmp	r7, #22
    8cdc:	979ff107 	ldrls	pc, [pc, r7, lsl #2]
    8ce0:	ea000066 	b	8e80 <va_printk+0x24c>
    8ce4:	00008e0c 	andeq	r8, r0, ip, lsl #28
    8ce8:	00008e50 	andeq	r8, r0, r0, asr lr
    8cec:	00008d78 	andeq	r8, r0, r8, ror sp
    8cf0:	00008e80 	andeq	r8, r0, r0, lsl #29
    8cf4:	00008d5c 	andeq	r8, r0, ip, asr sp
    8cf8:	00008e80 	andeq	r8, r0, r0, lsl #29
    8cfc:	00008e80 	andeq	r8, r0, r0, lsl #29
    8d00:	00008e80 	andeq	r8, r0, r0, lsl #29
    8d04:	00008e80 	andeq	r8, r0, r0, lsl #29
    8d08:	00008e80 	andeq	r8, r0, r0, lsl #29
    8d0c:	00008e80 	andeq	r8, r0, r0, lsl #29
    8d10:	00008e80 	andeq	r8, r0, r0, lsl #29
    8d14:	00008e80 	andeq	r8, r0, r0, lsl #29
    8d18:	00008e80 	andeq	r8, r0, r0, lsl #29
    8d1c:	00008ddc 	ldrdeq	r8, [r0], -ip
    8d20:	00008e80 	andeq	r8, r0, r0, lsl #29
    8d24:	00008e80 	andeq	r8, r0, r0, lsl #29
    8d28:	00008e3c 	andeq	r8, r0, ip, lsr lr
    8d2c:	00008e80 	andeq	r8, r0, r0, lsl #29
    8d30:	00008dac 	andeq	r8, r0, ip, lsr #27
    8d34:	00008e80 	andeq	r8, r0, r0, lsl #29
    8d38:	00008e80 	andeq	r8, r0, r0, lsl #29
    8d3c:	00008ddc 	ldrdeq	r8, [r0], -ip
    8d40:	eb0000b7 	bl	9024 <rpi_reset_putc>
    8d44:	e3a03094 	mov	r3, #148	; 0x94
    8d48:	e59f2190 	ldr	r2, [pc, #400]	; 8ee0 <va_printk+0x2ac>
    8d4c:	e59f1190 	ldr	r1, [pc, #400]	; 8ee4 <va_printk+0x2b0>
    8d50:	e59f0190 	ldr	r0, [pc, #400]	; 8ee8 <va_printk+0x2b4>
    8d54:	ebfffeff 	bl	8958 <printk>
    8d58:	eb0000ee 	bl	9118 <clean_reboot>
    8d5c:	eb0000b0 	bl	9024 <rpi_reset_putc>
    8d60:	e3a0309a 	mov	r3, #154	; 0x9a
    8d64:	e59f2174 	ldr	r2, [pc, #372]	; 8ee0 <va_printk+0x2ac>
    8d68:	e59f1174 	ldr	r1, [pc, #372]	; 8ee4 <va_printk+0x2b0>
    8d6c:	e59f0178 	ldr	r0, [pc, #376]	; 8eec <va_printk+0x2b8>
    8d70:	ebfffef8 	bl	8958 <printk>
    8d74:	eb0000e7 	bl	9118 <clean_reboot>
    8d78:	e59d300c 	ldr	r3, [sp, #12]
    8d7c:	e2832004 	add	r2, r3, #4
    8d80:	e58d200c 	str	r2, [sp, #12]
    8d84:	e5933000 	ldr	r3, [r3]
    8d88:	e3a02001 	mov	r2, #1
    8d8c:	e58d2004 	str	r2, [sp, #4]
    8d90:	e58d4000 	str	r4, [sp]
    8d94:	e3a02080 	mov	r2, #128	; 0x80
    8d98:	e28d1010 	add	r1, sp, #16
    8d9c:	e3a0000a 	mov	r0, #10
    8da0:	ebffff22 	bl	8a30 <emit>
    8da4:	e2852001 	add	r2, r5, #1
    8da8:	ea000040 	b	8eb0 <va_printk+0x27c>
    8dac:	e59d300c 	ldr	r3, [sp, #12]
    8db0:	e2832004 	add	r2, r3, #4
    8db4:	e58d200c 	str	r2, [sp, #12]
    8db8:	e5933000 	ldr	r3, [r3]
    8dbc:	e3a02000 	mov	r2, #0
    8dc0:	e58d2004 	str	r2, [sp, #4]
    8dc4:	e58d4000 	str	r4, [sp]
    8dc8:	e3a02080 	mov	r2, #128	; 0x80
    8dcc:	e28d1010 	add	r1, sp, #16
    8dd0:	e3a0000a 	mov	r0, #10
    8dd4:	ebffff15 	bl	8a30 <emit>
    8dd8:	eafffff1 	b	8da4 <va_printk+0x170>
    8ddc:	e59d300c 	ldr	r3, [sp, #12]
    8de0:	e2832004 	add	r2, r3, #4
    8de4:	e58d200c 	str	r2, [sp, #12]
    8de8:	e5933000 	ldr	r3, [r3]
    8dec:	e3a02000 	mov	r2, #0
    8df0:	e58d2004 	str	r2, [sp, #4]
    8df4:	e58d4000 	str	r4, [sp]
    8df8:	e3a02080 	mov	r2, #128	; 0x80
    8dfc:	e28d1010 	add	r1, sp, #16
    8e00:	e3a00010 	mov	r0, #16
    8e04:	ebffff09 	bl	8a30 <emit>
    8e08:	eaffffe5 	b	8da4 <va_printk+0x170>
    8e0c:	e59d300c 	ldr	r3, [sp, #12]
    8e10:	e2832004 	add	r2, r3, #4
    8e14:	e58d200c 	str	r2, [sp, #12]
    8e18:	e5933000 	ldr	r3, [r3]
    8e1c:	e3a02000 	mov	r2, #0
    8e20:	e58d2004 	str	r2, [sp, #4]
    8e24:	e58d4000 	str	r4, [sp]
    8e28:	e3a02080 	mov	r2, #128	; 0x80
    8e2c:	e28d1010 	add	r1, sp, #16
    8e30:	e3a00002 	mov	r0, #2
    8e34:	ebfffefd 	bl	8a30 <emit>
    8e38:	eaffffd9 	b	8da4 <va_printk+0x170>
    8e3c:	e59d300c 	ldr	r3, [sp, #12]
    8e40:	e2832004 	add	r2, r3, #4
    8e44:	e58d200c 	str	r2, [sp, #12]
    8e48:	e5930000 	ldr	r0, [r3]
    8e4c:	eaffffd4 	b	8da4 <va_printk+0x170>
    8e50:	e59d300c 	ldr	r3, [sp, #12]
    8e54:	e2832004 	add	r2, r3, #4
    8e58:	e58d200c 	str	r2, [sp, #12]
    8e5c:	e5933000 	ldr	r3, [r3]
    8e60:	e3a02000 	mov	r2, #0
    8e64:	e58d2004 	str	r2, [sp, #4]
    8e68:	e58d4000 	str	r4, [sp]
    8e6c:	e3a02080 	mov	r2, #128	; 0x80
    8e70:	e28d1010 	add	r1, sp, #16
    8e74:	e3a00008 	mov	r0, #8
    8e78:	ebfffeec 	bl	8a30 <emit>
    8e7c:	eaffffc8 	b	8da4 <va_printk+0x170>
    8e80:	eb000067 	bl	9024 <rpi_reset_putc>
    8e84:	e5d53000 	ldrb	r3, [r5]
    8e88:	e58d3000 	str	r3, [sp]
    8e8c:	e3a030bb 	mov	r3, #187	; 0xbb
    8e90:	e59f2048 	ldr	r2, [pc, #72]	; 8ee0 <va_printk+0x2ac>
    8e94:	e59f1048 	ldr	r1, [pc, #72]	; 8ee4 <va_printk+0x2b0>
    8e98:	e59f0050 	ldr	r0, [pc, #80]	; 8ef0 <va_printk+0x2bc>
    8e9c:	ebfffead 	bl	8958 <printk>
    8ea0:	eb00009c 	bl	9118 <clean_reboot>
    8ea4:	e2800001 	add	r0, r0, #1
    8ea8:	e5c63000 	strb	r3, [r6]
    8eac:	e2866001 	add	r6, r6, #1
    8eb0:	e1560008 	cmp	r6, r8
    8eb4:	2affff67 	bcs	8c58 <va_printk+0x24>
    8eb8:	e5d03000 	ldrb	r3, [r0]
    8ebc:	e3530000 	cmp	r3, #0
    8ec0:	1afffff7 	bne	8ea4 <va_printk+0x270>
    8ec4:	eaffff63 	b	8c58 <va_printk+0x24>
    8ec8:	e2860001 	add	r0, r6, #1
    8ecc:	e3a03000 	mov	r3, #0
    8ed0:	e5c63000 	strb	r3, [r6]
    8ed4:	e0400009 	sub	r0, r0, r9
    8ed8:	e28dd094 	add	sp, sp, #148	; 0x94
    8edc:	e8bd83f0 	pop	{r4, r5, r6, r7, r8, r9, pc}
    8ee0:	00009a18 	andeq	r9, r0, r8, lsl sl
    8ee4:	00009a24 	andeq	r9, r0, r4, lsr #20
    8ee8:	00009a88 	andeq	r9, r0, r8, lsl #21
    8eec:	00009aa4 	andeq	r9, r0, r4, lsr #21
    8ef0:	00009acc 	andeq	r9, r0, ip, asr #21

00008ef4 <fast_hash>:
    8ef4:	e3500000 	cmp	r0, #0
    8ef8:	13510000 	cmpne	r1, #0
    8efc:	da000034 	ble	8fd4 <fast_hash+0xe0>
    8f00:	e52de004 	push	{lr}		; (str lr, [sp, #-4]!)
    8f04:	e1a03001 	mov	r3, r1
    8f08:	e201e003 	and	lr, r1, #3
    8f0c:	e1a01141 	asr	r1, r1, #2
    8f10:	ea00000b 	b	8f44 <fast_hash+0x50>
    8f14:	e5d0c001 	ldrb	ip, [r0, #1]
    8f18:	e5d02000 	ldrb	r2, [r0]
    8f1c:	e082240c 	add	r2, r2, ip, lsl #8
    8f20:	e0832002 	add	r2, r3, r2
    8f24:	e5d0c003 	ldrb	ip, [r0, #3]
    8f28:	e5d03002 	ldrb	r3, [r0, #2]
    8f2c:	e083340c 	add	r3, r3, ip, lsl #8
    8f30:	e0223583 	eor	r3, r2, r3, lsl #11
    8f34:	e0233802 	eor	r3, r3, r2, lsl #16
    8f38:	e2800004 	add	r0, r0, #4
    8f3c:	e08335a3 	add	r3, r3, r3, lsr #11
    8f40:	e2411001 	sub	r1, r1, #1
    8f44:	e3510000 	cmp	r1, #0
    8f48:	cafffff1 	bgt	8f14 <fast_hash+0x20>
    8f4c:	e35e0002 	cmp	lr, #2
    8f50:	0a000013 	beq	8fa4 <fast_hash+0xb0>
    8f54:	e35e0003 	cmp	lr, #3
    8f58:	0a000008 	beq	8f80 <fast_hash+0x8c>
    8f5c:	e35e0001 	cmp	lr, #1
    8f60:	0a000016 	beq	8fc0 <fast_hash+0xcc>
    8f64:	e0230183 	eor	r0, r3, r3, lsl #3
    8f68:	e08002a0 	add	r0, r0, r0, lsr #5
    8f6c:	e0200200 	eor	r0, r0, r0, lsl #4
    8f70:	e08008a0 	add	r0, r0, r0, lsr #17
    8f74:	e0200c80 	eor	r0, r0, r0, lsl #25
    8f78:	e0800320 	add	r0, r0, r0, lsr #6
    8f7c:	e49df004 	pop	{pc}		; (ldr pc, [sp], #4)
    8f80:	e5d01001 	ldrb	r1, [r0, #1]
    8f84:	e5d02000 	ldrb	r2, [r0]
    8f88:	e0822401 	add	r2, r2, r1, lsl #8
    8f8c:	e0833002 	add	r3, r3, r2
    8f90:	e0233803 	eor	r3, r3, r3, lsl #16
    8f94:	e1d020d2 	ldrsb	r2, [r0, #2]
    8f98:	e0233902 	eor	r3, r3, r2, lsl #18
    8f9c:	e08335a3 	add	r3, r3, r3, lsr #11
    8fa0:	eaffffef 	b	8f64 <fast_hash+0x70>
    8fa4:	e5d01001 	ldrb	r1, [r0, #1]
    8fa8:	e5d02000 	ldrb	r2, [r0]
    8fac:	e0822401 	add	r2, r2, r1, lsl #8
    8fb0:	e0833002 	add	r3, r3, r2
    8fb4:	e0233583 	eor	r3, r3, r3, lsl #11
    8fb8:	e08338a3 	add	r3, r3, r3, lsr #17
    8fbc:	eaffffe8 	b	8f64 <fast_hash+0x70>
    8fc0:	e1d020d0 	ldrsb	r2, [r0]
    8fc4:	e0833002 	add	r3, r3, r2
    8fc8:	e0233503 	eor	r3, r3, r3, lsl #10
    8fcc:	e08330a3 	add	r3, r3, r3, lsr #1
    8fd0:	eaffffe3 	b	8f64 <fast_hash+0x70>
    8fd4:	e3a00000 	mov	r0, #0
    8fd8:	e12fff1e 	bx	lr

00008fdc <internal_putk>:
    8fdc:	e92d4010 	push	{r4, lr}
    8fe0:	e1a04000 	mov	r4, r0
    8fe4:	ea000003 	b	8ff8 <internal_putk+0x1c>
    8fe8:	e59f301c 	ldr	r3, [pc, #28]	; 900c <internal_putk+0x30>
    8fec:	e5933000 	ldr	r3, [r3]
    8ff0:	e12fff33 	blx	r3
    8ff4:	e2844001 	add	r4, r4, #1
    8ff8:	e5d40000 	ldrb	r0, [r4]
    8ffc:	e3500000 	cmp	r0, #0
    9000:	1afffff8 	bne	8fe8 <internal_putk+0xc>
    9004:	e3a00001 	mov	r0, #1
    9008:	e8bd8010 	pop	{r4, pc}
    900c:	0000965c 	andeq	r9, r0, ip, asr r6

00009010 <internal_putchar>:
    9010:	e92d4010 	push	{r4, lr}
    9014:	e1a04000 	mov	r4, r0
    9018:	eb0000cb 	bl	934c <uart_putc>
    901c:	e1a00004 	mov	r0, r4
    9020:	e8bd8010 	pop	{r4, pc}

00009024 <rpi_reset_putc>:
    9024:	e59f2008 	ldr	r2, [pc, #8]	; 9034 <rpi_reset_putc+0x10>
    9028:	e59f3008 	ldr	r3, [pc, #8]	; 9038 <rpi_reset_putc+0x14>
    902c:	e5832000 	str	r2, [r3]
    9030:	e12fff1e 	bx	lr
    9034:	00009010 	andeq	r9, r0, r0, lsl r0
    9038:	0000965c 	andeq	r9, r0, ip, asr r6

0000903c <rpi_set_putc>:
    903c:	e59f3004 	ldr	r3, [pc, #4]	; 9048 <rpi_set_putc+0xc>
    9040:	e5830000 	str	r0, [r3]
    9044:	e12fff1e 	bx	lr
    9048:	0000965c 	andeq	r9, r0, ip, asr r6

0000904c <memset>:
    904c:	e0802002 	add	r2, r0, r2
    9050:	e1a03000 	mov	r3, r0
    9054:	ea000001 	b	9060 <memset+0x14>
    9058:	e5c31000 	strb	r1, [r3]
    905c:	e2833001 	add	r3, r3, #1
    9060:	e1530002 	cmp	r3, r2
    9064:	3afffffb 	bcc	9058 <memset+0xc>
    9068:	e12fff1e 	bx	lr

0000906c <_cstart>:
    906c:	e92d4010 	push	{r4, lr}
    9070:	e59f3020 	ldr	r3, [pc, #32]	; 9098 <_cstart+0x2c>
    9074:	ea000002 	b	9084 <_cstart+0x18>
    9078:	e3a02000 	mov	r2, #0
    907c:	e5832000 	str	r2, [r3]
    9080:	e2833004 	add	r3, r3, #4
    9084:	e59f2010 	ldr	r2, [pc, #16]	; 909c <_cstart+0x30>
    9088:	e1530002 	cmp	r3, r2
    908c:	3afffff9 	bcc	9078 <_cstart+0xc>
    9090:	ebfffbde 	bl	8010 <notmain>
    9094:	eb00001f 	bl	9118 <clean_reboot>
    9098:	00009c30 	andeq	r9, r0, r0, lsr ip
    909c:	0000a040 	andeq	sl, r0, r0, asr #32

000090a0 <at_user_level>:
    90a0:	e10f0000 	mrs	r0, CPSR
    90a4:	e200001f 	and	r0, r0, #31
    90a8:	e3500010 	cmp	r0, #16
    90ac:	13a00000 	movne	r0, #0
    90b0:	03a00001 	moveq	r0, #1
    90b4:	e12fff1e 	bx	lr

000090b8 <set_user_level>:
    90b8:	e10f3000 	mrs	r3, CPSR
    90bc:	e3c3301f 	bic	r3, r3, #31
    90c0:	e3833010 	orr	r3, r3, #16
    90c4:	e129f003 	msr	CPSR_fc, r3
    90c8:	e12fff1e 	bx	lr

000090cc <rpi_reboot>:
    90cc:	e92d4010 	push	{r4, lr}
    90d0:	ebfffff2 	bl	90a0 <at_user_level>
    90d4:	e3500000 	cmp	r0, #0
    90d8:	1a000008 	bne	9100 <rpi_reboot+0x34>
    90dc:	e3a0001e 	mov	r0, #30
    90e0:	eb00002e 	bl	91a0 <delay_ms>
    90e4:	e59f101c 	ldr	r1, [pc, #28]	; 9108 <rpi_reboot+0x3c>
    90e8:	e59f001c 	ldr	r0, [pc, #28]	; 910c <rpi_reboot+0x40>
    90ec:	eb000037 	bl	91d0 <PUT32>
    90f0:	e59f1018 	ldr	r1, [pc, #24]	; 9110 <rpi_reboot+0x44>
    90f4:	e59f0018 	ldr	r0, [pc, #24]	; 9114 <rpi_reboot+0x48>
    90f8:	eb000034 	bl	91d0 <PUT32>
    90fc:	eafffffe 	b	90fc <rpi_reboot+0x30>
    9100:	ebffffec 	bl	90b8 <set_user_level>
    9104:	eafffff4 	b	90dc <rpi_reboot+0x10>
    9108:	5a000001 	bpl	9114 <rpi_reboot+0x48>
    910c:	20100024 	andscs	r0, r0, r4, lsr #32
    9110:	5a000020 	bpl	9198 <delay_us+0x1c>
    9114:	2010001c 	andscs	r0, r0, ip, lsl r0

00009118 <clean_reboot>:
    9118:	e92d4010 	push	{r4, lr}
    911c:	e59f3014 	ldr	r3, [pc, #20]	; 9138 <clean_reboot+0x20>
    9120:	e5933000 	ldr	r3, [r3]
    9124:	e59f0010 	ldr	r0, [pc, #16]	; 913c <clean_reboot+0x24>
    9128:	e12fff33 	blx	r3
    912c:	e3a00064 	mov	r0, #100	; 0x64
    9130:	eb00001a 	bl	91a0 <delay_ms>
    9134:	ebffffe4 	bl	90cc <rpi_reboot>
    9138:	00009658 	andeq	r9, r0, r8, asr r6
    913c:	00009b04 	andeq	r9, r0, r4, lsl #22

00009140 <delay_cycles>:
    9140:	ea000001 	b	914c <delay_cycles+0xc>
    9144:	e2811000 	add	r1, r1, #0
    9148:	e1a00003 	mov	r0, r3
    914c:	e2403001 	sub	r3, r0, #1
    9150:	e3500000 	cmp	r0, #0
    9154:	1afffffa 	bne	9144 <delay_cycles+0x4>
    9158:	e12fff1e 	bx	lr

0000915c <timer_get_usec_raw>:
    915c:	e92d4010 	push	{r4, lr}
    9160:	e59f0004 	ldr	r0, [pc, #4]	; 916c <timer_get_usec_raw+0x10>
    9164:	eb000025 	bl	9200 <GET32>
    9168:	e8bd8010 	pop	{r4, pc}
    916c:	20003004 	andcs	r3, r0, r4

00009170 <timer_get_usec>:
    9170:	e92d4010 	push	{r4, lr}
    9174:	ebfffff8 	bl	915c <timer_get_usec_raw>
    9178:	e8bd8010 	pop	{r4, pc}

0000917c <delay_us>:
    917c:	e92d4070 	push	{r4, r5, r6, lr}
    9180:	e1a05000 	mov	r5, r0
    9184:	ebfffff9 	bl	9170 <timer_get_usec>
    9188:	e1a04000 	mov	r4, r0
    918c:	ebfffff7 	bl	9170 <timer_get_usec>
    9190:	e0400004 	sub	r0, r0, r4
    9194:	e1500005 	cmp	r0, r5
    9198:	3afffffb 	bcc	918c <delay_us+0x10>
    919c:	e8bd8070 	pop	{r4, r5, r6, pc}

000091a0 <delay_ms>:
    91a0:	e92d4010 	push	{r4, lr}
    91a4:	e3a03ffa 	mov	r3, #1000	; 0x3e8
    91a8:	e0000093 	mul	r0, r3, r0
    91ac:	ebfffff2 	bl	917c <delay_us>
    91b0:	e8bd8010 	pop	{r4, pc}

000091b4 <delay_sec>:
    91b4:	e92d4010 	push	{r4, lr}
    91b8:	e3a03ffa 	mov	r3, #1000	; 0x3e8
    91bc:	e0000093 	mul	r0, r3, r0
    91c0:	ebfffff6 	bl	91a0 <delay_ms>
    91c4:	e8bd8010 	pop	{r4, pc}

000091c8 <put32>:
    91c8:	e5801000 	str	r1, [r0]
    91cc:	e12fff1e 	bx	lr

000091d0 <PUT32>:
    91d0:	e5801000 	str	r1, [r0]
    91d4:	e12fff1e 	bx	lr

000091d8 <put16>:
    91d8:	e1c010b0 	strh	r1, [r0]
    91dc:	e12fff1e 	bx	lr

000091e0 <PUT16>:
    91e0:	e1c010b0 	strh	r1, [r0]
    91e4:	e12fff1e 	bx	lr

000091e8 <put8>:
    91e8:	e5c01000 	strb	r1, [r0]
    91ec:	e12fff1e 	bx	lr

000091f0 <PUT8>:
    91f0:	e5c01000 	strb	r1, [r0]
    91f4:	e12fff1e 	bx	lr

000091f8 <get32>:
    91f8:	e5900000 	ldr	r0, [r0]
    91fc:	e12fff1e 	bx	lr

00009200 <GET32>:
    9200:	e5900000 	ldr	r0, [r0]
    9204:	e12fff1e 	bx	lr

00009208 <GETPC>:
    9208:	e1a0000e 	mov	r0, lr
    920c:	e12fff1e 	bx	lr

00009210 <dummy>:
    9210:	e12fff1e 	bx	lr

00009214 <or_in32>:
    9214:	e92d4070 	push	{r4, r5, r6, lr}
    9218:	e1a04000 	mov	r4, r0
    921c:	e1a05001 	mov	r5, r1
    9220:	ebfffff4 	bl	91f8 <get32>
    9224:	e1801005 	orr	r1, r0, r5
    9228:	e1a00004 	mov	r0, r4
    922c:	ebffffe5 	bl	91c8 <put32>
    9230:	e8bd8070 	pop	{r4, r5, r6, pc}

00009234 <uart_init>:
    9234:	e92d4010 	push	{r4, lr}
    9238:	e3a01002 	mov	r1, #2
    923c:	e3a0000e 	mov	r0, #14
    9240:	eb000051 	bl	938c <gpio_set_function>
    9244:	e3a01002 	mov	r1, #2
    9248:	e3a0000f 	mov	r0, #15
    924c:	eb00004e 	bl	938c <gpio_set_function>
    9250:	eb0000fa 	bl	9640 <dev_barrier>
    9254:	e3a01001 	mov	r1, #1
    9258:	e59f0064 	ldr	r0, [pc, #100]	; 92c4 <uart_init+0x90>
    925c:	ebffffec 	bl	9214 <or_in32>
    9260:	eb0000f6 	bl	9640 <dev_barrier>
    9264:	e59f405c 	ldr	r4, [pc, #92]	; 92c8 <uart_init+0x94>
    9268:	e3a01000 	mov	r1, #0
    926c:	e1a00004 	mov	r0, r4
    9270:	ebffffd4 	bl	91c8 <put32>
    9274:	e3a01000 	mov	r1, #0
    9278:	e59f004c 	ldr	r0, [pc, #76]	; 92cc <uart_init+0x98>
    927c:	ebffffd1 	bl	91c8 <put32>
    9280:	e3a01003 	mov	r1, #3
    9284:	e59f0044 	ldr	r0, [pc, #68]	; 92d0 <uart_init+0x9c>
    9288:	ebffffce 	bl	91c8 <put32>
    928c:	e3a01000 	mov	r1, #0
    9290:	e59f003c 	ldr	r0, [pc, #60]	; 92d4 <uart_init+0xa0>
    9294:	ebffffcb 	bl	91c8 <put32>
    9298:	e3a010c7 	mov	r1, #199	; 0xc7
    929c:	e59f0034 	ldr	r0, [pc, #52]	; 92d8 <uart_init+0xa4>
    92a0:	ebffffc8 	bl	91c8 <put32>
    92a4:	e59f1030 	ldr	r1, [pc, #48]	; 92dc <uart_init+0xa8>
    92a8:	e59f0030 	ldr	r0, [pc, #48]	; 92e0 <uart_init+0xac>
    92ac:	ebffffc5 	bl	91c8 <put32>
    92b0:	e3a01003 	mov	r1, #3
    92b4:	e1a00004 	mov	r0, r4
    92b8:	ebffffc2 	bl	91c8 <put32>
    92bc:	eb0000df 	bl	9640 <dev_barrier>
    92c0:	e8bd8010 	pop	{r4, pc}
    92c4:	20215004 	eorcs	r5, r1, r4
    92c8:	20215060 	eorcs	r5, r1, r0, rrx
    92cc:	20215044 	eorcs	r5, r1, r4, asr #32
    92d0:	2021504c 	eorcs	r5, r1, ip, asr #32
    92d4:	20215050 	eorcs	r5, r1, r0, asr r0
    92d8:	20215048 	eorcs	r5, r1, r8, asr #32
    92dc:	0000010e 	andeq	r0, r0, lr, lsl #2
    92e0:	20215068 	eorcs	r5, r1, r8, rrx

000092e4 <uart_can_getc>:
    92e4:	e92d4010 	push	{r4, lr}
    92e8:	e59f0008 	ldr	r0, [pc, #8]	; 92f8 <uart_can_getc+0x14>
    92ec:	ebffffc1 	bl	91f8 <get32>
    92f0:	e2000001 	and	r0, r0, #1
    92f4:	e8bd8010 	pop	{r4, pc}
    92f8:	20215064 	eorcs	r5, r1, r4, rrx

000092fc <uart_can_putc>:
    92fc:	e92d4010 	push	{r4, lr}
    9300:	e59f0010 	ldr	r0, [pc, #16]	; 9318 <uart_can_putc+0x1c>
    9304:	ebffffbb 	bl	91f8 <get32>
    9308:	e3100002 	tst	r0, #2
    930c:	13a00001 	movne	r0, #1
    9310:	03a00000 	moveq	r0, #0
    9314:	e8bd8010 	pop	{r4, pc}
    9318:	20215064 	eorcs	r5, r1, r4, rrx

0000931c <uart_getc>:
    931c:	e92d4010 	push	{r4, lr}
    9320:	eb0000c6 	bl	9640 <dev_barrier>
    9324:	ebffffee 	bl	92e4 <uart_can_getc>
    9328:	e3500000 	cmp	r0, #0
    932c:	0afffffc 	beq	9324 <uart_getc+0x8>
    9330:	e59f0010 	ldr	r0, [pc, #16]	; 9348 <uart_getc+0x2c>
    9334:	ebffffaf 	bl	91f8 <get32>
    9338:	e6ef4070 	uxtb	r4, r0
    933c:	eb0000bf 	bl	9640 <dev_barrier>
    9340:	e1a00004 	mov	r0, r4
    9344:	e8bd8010 	pop	{r4, pc}
    9348:	20215040 	eorcs	r5, r1, r0, asr #32

0000934c <uart_putc>:
    934c:	e92d4010 	push	{r4, lr}
    9350:	e1a04000 	mov	r4, r0
    9354:	eb0000b9 	bl	9640 <dev_barrier>
    9358:	ebffffe7 	bl	92fc <uart_can_putc>
    935c:	e3500000 	cmp	r0, #0
    9360:	0afffffc 	beq	9358 <uart_putc+0xc>
    9364:	e6ef1074 	uxtb	r1, r4
    9368:	e59f0008 	ldr	r0, [pc, #8]	; 9378 <uart_putc+0x2c>
    936c:	ebffff95 	bl	91c8 <put32>
    9370:	eb0000b2 	bl	9640 <dev_barrier>
    9374:	e8bd8010 	pop	{r4, pc}
    9378:	20215040 	eorcs	r5, r1, r0, asr #32

0000937c <uart_has_data>:
    937c:	e92d4010 	push	{r4, lr}
    9380:	eb0000ae 	bl	9640 <dev_barrier>
    9384:	ebffffd6 	bl	92e4 <uart_can_getc>
    9388:	e8bd8010 	pop	{r4, pc}

0000938c <gpio_set_function>:
    938c:	e350001f 	cmp	r0, #31
    9390:	812fff1e 	bxhi	lr
    9394:	e3d13007 	bics	r3, r1, #7
    9398:	112fff1e 	bxne	lr
    939c:	e92d4070 	push	{r4, r5, r6, lr}
    93a0:	e1a05001 	mov	r5, r1
    93a4:	e59f3044 	ldr	r3, [pc, #68]	; 93f0 <gpio_set_function+0x64>
    93a8:	e0832093 	umull	r2, r3, r3, r0
    93ac:	e1a031a3 	lsr	r3, r3, #3
    93b0:	e1a06003 	mov	r6, r3
    93b4:	e0833103 	add	r3, r3, r3, lsl #2
    93b8:	e1a02083 	lsl	r2, r3, #1
    93bc:	e0403002 	sub	r3, r0, r2
    93c0:	e0834083 	add	r4, r3, r3, lsl #1
    93c4:	e2866302 	add	r6, r6, #134217728	; 0x8000000
    93c8:	e2866702 	add	r6, r6, #524288	; 0x80000
    93cc:	e1a06106 	lsl	r6, r6, #2
    93d0:	e1a00006 	mov	r0, r6
    93d4:	ebffff89 	bl	9200 <GET32>
    93d8:	e3a01007 	mov	r1, #7
    93dc:	e1c01411 	bic	r1, r0, r1, lsl r4
    93e0:	e1811415 	orr	r1, r1, r5, lsl r4
    93e4:	e1a00006 	mov	r0, r6
    93e8:	ebffff78 	bl	91d0 <PUT32>
    93ec:	e8bd8070 	pop	{r4, r5, r6, pc}
    93f0:	cccccccd 	stclgt	12, cr12, [ip], {205}	; 0xcd

000093f4 <gpio_set_output>:
    93f4:	e92d4010 	push	{r4, lr}
    93f8:	e3a01001 	mov	r1, #1
    93fc:	ebffffe2 	bl	938c <gpio_set_function>
    9400:	e8bd8010 	pop	{r4, pc}

00009404 <gpio_set_on>:
    9404:	e350001f 	cmp	r0, #31
    9408:	812fff1e 	bxhi	lr
    940c:	e92d4010 	push	{r4, lr}
    9410:	e3a01001 	mov	r1, #1
    9414:	e1a01011 	lsl	r1, r1, r0
    9418:	e59f0004 	ldr	r0, [pc, #4]	; 9424 <gpio_set_on+0x20>
    941c:	ebffff6b 	bl	91d0 <PUT32>
    9420:	e8bd8010 	pop	{r4, pc}
    9424:	2020001c 	eorcs	r0, r0, ip, lsl r0

00009428 <gpio_set_off>:
    9428:	e350001f 	cmp	r0, #31
    942c:	812fff1e 	bxhi	lr
    9430:	e92d4010 	push	{r4, lr}
    9434:	e3a01001 	mov	r1, #1
    9438:	e1a01011 	lsl	r1, r1, r0
    943c:	e59f0004 	ldr	r0, [pc, #4]	; 9448 <gpio_set_off+0x20>
    9440:	ebffff62 	bl	91d0 <PUT32>
    9444:	e8bd8010 	pop	{r4, pc}
    9448:	20200028 	eorcs	r0, r0, r8, lsr #32

0000944c <gpio_set_input>:
    944c:	e92d4010 	push	{r4, lr}
    9450:	e3a01000 	mov	r1, #0
    9454:	ebffffcc 	bl	938c <gpio_set_function>
    9458:	e8bd8010 	pop	{r4, pc}

0000945c <gpio_write>:
    945c:	e92d4010 	push	{r4, lr}
    9460:	e3510000 	cmp	r1, #0
    9464:	1a000001 	bne	9470 <gpio_write+0x14>
    9468:	ebffffee 	bl	9428 <gpio_set_off>
    946c:	e8bd8010 	pop	{r4, pc}
    9470:	ebffffe3 	bl	9404 <gpio_set_on>
    9474:	e8bd8010 	pop	{r4, pc}

00009478 <gpio_read>:
    9478:	e350001f 	cmp	r0, #31
    947c:	8a000007 	bhi	94a0 <gpio_read+0x28>
    9480:	e92d4010 	push	{r4, lr}
    9484:	e200401f 	and	r4, r0, #31
    9488:	e59f3018 	ldr	r3, [pc, #24]	; 94a8 <gpio_read+0x30>
    948c:	e08302a0 	add	r0, r3, r0, lsr #5
    9490:	ebffff5a 	bl	9200 <GET32>
    9494:	e1a00430 	lsr	r0, r0, r4
    9498:	e2000001 	and	r0, r0, #1
    949c:	e8bd8010 	pop	{r4, pc}
    94a0:	e3e00000 	mvn	r0, #0
    94a4:	e12fff1e 	bx	lr
    94a8:	20200034 	eorcs	r0, r0, r4, lsr r0

000094ac <kmalloc_heap_end>:
    94ac:	e59f3004 	ldr	r3, [pc, #4]	; 94b8 <kmalloc_heap_end+0xc>
    94b0:	e5930000 	ldr	r0, [r3]
    94b4:	e12fff1e 	bx	lr
    94b8:	00009660 	andeq	r9, r0, r0, ror #12

000094bc <kmalloc_heap_start>:
    94bc:	e59f0000 	ldr	r0, [pc]	; 94c4 <kmalloc_heap_start+0x8>
    94c0:	e12fff1e 	bx	lr
    94c4:	0000a040 	andeq	sl, r0, r0, asr #32

000094c8 <kmalloc_init_set_start>:
    94c8:	e59f3038 	ldr	r3, [pc, #56]	; 9508 <kmalloc_init_set_start+0x40>
    94cc:	e5933000 	ldr	r3, [r3]
    94d0:	e1500003 	cmp	r0, r3
    94d4:	9a000003 	bls	94e8 <kmalloc_init_set_start+0x20>
    94d8:	e59f3028 	ldr	r3, [pc, #40]	; 9508 <kmalloc_init_set_start+0x40>
    94dc:	e5830000 	str	r0, [r3]
    94e0:	e5830004 	str	r0, [r3, #4]
    94e4:	e12fff1e 	bx	lr
    94e8:	e92d4010 	push	{r4, lr}
    94ec:	ebfffecc 	bl	9024 <rpi_reset_putc>
    94f0:	e3a03016 	mov	r3, #22
    94f4:	e59f2010 	ldr	r2, [pc, #16]	; 950c <kmalloc_init_set_start+0x44>
    94f8:	e59f1010 	ldr	r1, [pc, #16]	; 9510 <kmalloc_init_set_start+0x48>
    94fc:	e59f0010 	ldr	r0, [pc, #16]	; 9514 <kmalloc_init_set_start+0x4c>
    9500:	ebfffd14 	bl	8958 <printk>
    9504:	ebffff03 	bl	9118 <clean_reboot>
    9508:	00009660 	andeq	r9, r0, r0, ror #12
    950c:	00009b10 	andeq	r9, r0, r0, lsl fp
    9510:	00009b40 	andeq	r9, r0, r0, asr #22
    9514:	00009b4c 	andeq	r9, r0, ip, asr #22

00009518 <kmalloc>:
    9518:	e92d4010 	push	{r4, lr}
    951c:	e3500000 	cmp	r0, #0
    9520:	0a00000a 	beq	9550 <kmalloc+0x38>
    9524:	e2802007 	add	r2, r0, #7
    9528:	e3c22007 	bic	r2, r2, #7
    952c:	e59f3038 	ldr	r3, [pc, #56]	; 956c <kmalloc+0x54>
    9530:	e5934000 	ldr	r4, [r3]
    9534:	e0841002 	add	r1, r4, r2
    9538:	e5831000 	str	r1, [r3]
    953c:	e3a01000 	mov	r1, #0
    9540:	e1a00004 	mov	r0, r4
    9544:	ebfffec0 	bl	904c <memset>
    9548:	e1a00004 	mov	r0, r4
    954c:	e8bd8010 	pop	{r4, pc}
    9550:	ebfffeb3 	bl	9024 <rpi_reset_putc>
    9554:	e3a0301b 	mov	r3, #27
    9558:	e59f2010 	ldr	r2, [pc, #16]	; 9570 <kmalloc+0x58>
    955c:	e59f1010 	ldr	r1, [pc, #16]	; 9574 <kmalloc+0x5c>
    9560:	e59f0010 	ldr	r0, [pc, #16]	; 9578 <kmalloc+0x60>
    9564:	ebfffcfb 	bl	8958 <printk>
    9568:	ebfffeea 	bl	9118 <clean_reboot>
    956c:	00009660 	andeq	r9, r0, r0, ror #12
    9570:	00009b28 	andeq	r9, r0, r8, lsr #22
    9574:	00009b40 	andeq	r9, r0, r0, asr #22
    9578:	00009b68 	andeq	r9, r0, r8, ror #22

0000957c <kmalloc_init>:
    957c:	e12fff1e 	bx	lr

00009580 <kmalloc_heap_ptr>:
    9580:	e92d4010 	push	{r4, lr}
    9584:	ebffffcc 	bl	94bc <kmalloc_heap_start>
    9588:	e8bd8010 	pop	{r4, pc}

0000958c <kmalloc_aligned>:
    958c:	e92d4010 	push	{r4, lr}
    9590:	e2613000 	rsb	r3, r1, #0
    9594:	e1d12003 	bics	r2, r1, r3
    9598:	1a00000b 	bne	95cc <kmalloc_aligned+0x40>
    959c:	e59f2060 	ldr	r2, [pc, #96]	; 9604 <kmalloc_aligned+0x78>
    95a0:	e5922000 	ldr	r2, [r2]
    95a4:	e0812002 	add	r2, r1, r2
    95a8:	e2422001 	sub	r2, r2, #1
    95ac:	e0033002 	and	r3, r3, r2
    95b0:	e2411001 	sub	r1, r1, #1
    95b4:	e1130001 	tst	r3, r1
    95b8:	1a00000a 	bne	95e8 <kmalloc_aligned+0x5c>
    95bc:	e59f2040 	ldr	r2, [pc, #64]	; 9604 <kmalloc_aligned+0x78>
    95c0:	e5823000 	str	r3, [r2]
    95c4:	ebffffd3 	bl	9518 <kmalloc>
    95c8:	e8bd8010 	pop	{r4, pc}
    95cc:	ebfffe94 	bl	9024 <rpi_reset_putc>
    95d0:	e3a0302a 	mov	r3, #42	; 0x2a
    95d4:	e59f202c 	ldr	r2, [pc, #44]	; 9608 <kmalloc_aligned+0x7c>
    95d8:	e59f102c 	ldr	r1, [pc, #44]	; 960c <kmalloc_aligned+0x80>
    95dc:	e59f002c 	ldr	r0, [pc, #44]	; 9610 <kmalloc_aligned+0x84>
    95e0:	ebfffcdc 	bl	8958 <printk>
    95e4:	ebfffecb 	bl	9118 <clean_reboot>
    95e8:	ebfffe8d 	bl	9024 <rpi_reset_putc>
    95ec:	e3a03030 	mov	r3, #48	; 0x30
    95f0:	e59f2010 	ldr	r2, [pc, #16]	; 9608 <kmalloc_aligned+0x7c>
    95f4:	e59f1010 	ldr	r1, [pc, #16]	; 960c <kmalloc_aligned+0x80>
    95f8:	e59f0014 	ldr	r0, [pc, #20]	; 9614 <kmalloc_aligned+0x88>
    95fc:	ebfffcd5 	bl	8958 <printk>
    9600:	ebfffec4 	bl	9118 <clean_reboot>
    9604:	00009660 	andeq	r9, r0, r0, ror #12
    9608:	00009b30 	andeq	r9, r0, r0, lsr fp
    960c:	00009b40 	andeq	r9, r0, r0, asr #22
    9610:	00009b7c 	andeq	r9, r0, ip, ror fp
    9614:	00009bdc 	ldrdeq	r9, [r0], -ip

00009618 <kfree>:
    9618:	e12fff1e 	bx	lr

0000961c <kfree_all>:
    961c:	e59f3008 	ldr	r3, [pc, #8]	; 962c <kfree_all+0x10>
    9620:	e5932004 	ldr	r2, [r3, #4]
    9624:	e5832000 	str	r2, [r3]
    9628:	e12fff1e 	bx	lr
    962c:	00009660 	andeq	r9, r0, r0, ror #12

00009630 <kfree_after>:
    9630:	e59f3004 	ldr	r3, [pc, #4]	; 963c <kfree_after+0xc>
    9634:	e5830000 	str	r0, [r3]
    9638:	e12fff1e 	bx	lr
    963c:	00009660 	andeq	r9, r0, r0, ror #12

00009640 <dev_barrier>:
    9640:	ea000002 	b	9650 <dsb>

00009644 <dmb>:
    9644:	e3a00000 	mov	r0, #0
    9648:	ee070fba 	mcr	15, 0, r0, cr7, cr10, {5}
    964c:	e12fff1e 	bx	lr

00009650 <dsb>:
    9650:	ee070f9a 	mcr	15, 0, r0, cr7, cr10, {4}
    9654:	e12fff1e 	bx	lr

Disassembly of section .data:

00009658 <putk>:
    9658:	00008fdc 	ldrdeq	r8, [r0], -ip

0000965c <rpi_putchar>:
    965c:	00009010 	andeq	r9, r0, r0, lsl r0

00009660 <heap>:
    9660:	0000a040 	andeq	sl, r0, r0, asr #32

00009664 <heap_start>:
    9664:	0000a040 	andeq	sl, r0, r0, asr #32

Disassembly of section .rodata:

00009668 <__FUNCTION__.4269>:
    9668:	6d746f6e 	ldclvs	15, cr6, [r4, #-440]!	; 0xfffffe48
    966c:	006e6961 	rsbeq	r6, lr, r1, ror #18
    9670:	74736574 	ldrbtvc	r6, [r3], #-1396	; 0xfffffa8c
    9674:	75203a33 	strvc	r3, [r0, #-2611]!	; 0xfffff5cd
    9678:	61206573 			; <UNDEFINED> instruction: 0x61206573
    967c:	72657466 	rsbvc	r7, r5, #1711276032	; 0x66000000
    9680:	65726620 	ldrbvs	r6, [r2, #-1568]!	; 0xfffff9e0
    9684:	00000a65 	andeq	r0, r0, r5, ror #20
    9688:	74726170 	ldrbtvc	r6, [r2], #-368	; 0xfffffe90
    968c:	65742d31 	ldrbvs	r2, [r4, #-3377]!	; 0xfffff2cf
    9690:	2e337473 	mrccs	4, 1, r7, cr3, cr3, {3}
    9694:	00000063 	andeq	r0, r0, r3, rrx
    9698:	494e4150 	stmdbmi	lr, {r4, r6, r8, lr}^
    969c:	73253a43 			; <UNDEFINED> instruction: 0x73253a43
    96a0:	3a73253a 	bcc	1cd2b90 <__bss_end__+0x1cc8b50>
    96a4:	693a6425 	ldmdbvs	sl!, {r0, r2, r5, sl, sp, lr}
    96a8:	6c61766e 	stclvs	6, cr7, [r1], #-440	; 0xfffffe48
    96ac:	65206469 	strvs	r6, [r0, #-1129]!	; 0xfffffb97
    96b0:	726f7272 	rsbvc	r7, pc, #536870919	; 0x20000007
    96b4:	6168203a 	cmnvs	r8, sl, lsr r0
    96b8:	25206576 	strcs	r6, [r0, #-1398]!	; 0xfffffa8a
    96bc:	72652064 	rsbvc	r2, r5, #100	; 0x64
    96c0:	73726f72 	cmnvc	r2, #456	; 0x1c8
    96c4:	70786520 	rsbsvc	r6, r8, r0, lsr #10
    96c8:	65746365 	ldrbvs	r6, [r4, #-869]!	; 0xfffffc9b
    96cc:	21312064 	teqcs	r1, r4, rrx
    96d0:	000a0a21 	andeq	r0, sl, r1, lsr #20
    96d4:	43415254 	movtmi	r5, #4692	; 0x1254
    96d8:	00003a45 	andeq	r3, r0, r5, asr #20
    96dc:	43435553 	movtmi	r5, #13651	; 0x3553
    96e0:	3a535345 	bcc	14de3fc <__bss_end__+0x14d43bc>
    96e4:	74656420 	strbtvc	r6, [r5], #-1056	; 0xfffffbe0
    96e8:	65746365 	ldrbvs	r6, [r4, #-869]!	; 0xfffffc9b
    96ec:	6f632064 	svcvs	0x00632064
    96f0:	70757272 	rsbsvc	r7, r5, r2, ror r2
    96f4:	6e6f6974 			; <UNDEFINED> instruction: 0x6e6f6974
    96f8:	0000000a 	andeq	r0, r0, sl

000096fc <__FUNCTION__.4271>:
    96fc:	695f6b63 	ldmdbvs	pc, {r0, r1, r5, r6, r8, r9, fp, sp, lr}^	; <UNPREDICTABLE>
    9700:	0074696e 	rsbseq	r6, r4, lr, ror #18

00009704 <__FUNCTION__.4329>:
    9704:	72666b63 	rsbvc	r6, r6, #101376	; 0x18c00
    9708:	00006565 	andeq	r6, r0, r5, ror #10

0000970c <__FUNCTION__.4339>:
    970c:	6c616b63 			; <UNDEFINED> instruction: 0x6c616b63
    9710:	00636f6c 	rsbeq	r6, r3, ip, ror #30
    9714:	4f525245 	svcmi	0x00525245
    9718:	00003a52 	andeq	r3, r0, r2, asr sl
    971c:	636f6c62 	cmnvs	pc, #25088	; 0x6200
    9720:	7025206b 	eorvc	r2, r5, fp, rrx
    9724:	726f6320 	rsbvc	r6, pc, #32, 6	; 0x80000000
    9728:	74707572 	ldrbtvc	r7, [r0], #-1394	; 0xfffffa8e
    972c:	61206465 			; <UNDEFINED> instruction: 0x61206465
    9730:	666f2074 			; <UNDEFINED> instruction: 0x666f2074
    9734:	74657366 	strbtvc	r7, [r5], #-870	; 0xfffffc9a
    9738:	0a642520 	beq	1912bc0 <__bss_end__+0x1908b80>
    973c:	00000000 	andeq	r0, r0, r0
    9740:	79626e09 	stmdbvc	r2!, {r0, r3, r9, sl, fp, sp, lr}^
    9744:	3d736574 	cfldr64cc	mvdx6, [r3, #-464]!	; 0xfffffe30
    9748:	000a6425 	andeq	r6, sl, r5, lsr #8
    974c:	6f6c4209 	svcvs	0x006c4209
    9750:	61206b63 			; <UNDEFINED> instruction: 0x61206b63
    9754:	636f6c6c 	cmnvs	pc, #108, 24	; 0x6c00
    9758:	64657461 	strbtvs	r7, [r5], #-1121	; 0xfffffb9f
    975c:	3a746120 	bcc	1d21be4 <__bss_end__+0x1d17ba4>
    9760:	3a732520 	bcc	1cd2be8 <__bss_end__+0x1cc8ba8>
    9764:	253a7325 	ldrcs	r7, [sl, #-805]!	; 0xfffffcdb
    9768:	00000a64 	andeq	r0, r0, r4, ror #20
    976c:	6f6c4209 	svcvs	0x006c4209
    9770:	66206b63 	strtvs	r6, [r0], -r3, ror #22
    9774:	64656572 	strbtvs	r6, [r5], #-1394	; 0xfffffa8e
    9778:	3a746120 	bcc	1d21c00 <__bss_end__+0x1d17bc0>
    977c:	3a732520 	bcc	1cd2c04 <__bss_end__+0x1cc8bc4>
    9780:	253a7325 	ldrcs	r7, [sl, #-805]!	; 0xfffffcdb
    9784:	00000a64 	andeq	r0, r0, r4, ror #20
    9788:	6f725709 	svcvs	0x00725709
    978c:	62206574 	eorvs	r6, r0, #116, 10	; 0x1d000000
    9790:	6b636f6c 	blvs	18e5548 <__bss_end__+0x18db508>
    9794:	74666120 	strbtvc	r6, [r6], #-288	; 0xfffffee0
    9798:	66207265 	strtvs	r7, [r0], -r5, ror #4
    979c:	21656572 	smccs	22098	; 0x5652
    97a0:	0000000a 	andeq	r0, r0, sl
    97a4:	6c616b63 			; <UNDEFINED> instruction: 0x6c616b63
    97a8:	2e636f6c 	cdpcs	15, 6, cr6, cr3, cr12, {3}
    97ac:	00000063 	andeq	r0, r0, r3, rrx
    97b0:	494e4150 	stmdbmi	lr, {r4, r6, r8, lr}^
    97b4:	73253a43 			; <UNDEFINED> instruction: 0x73253a43
    97b8:	3a73253a 	bcc	1cd2ca8 <__bss_end__+0x1cc8c68>
    97bc:	613a6425 	teqvs	sl, r5, lsr #8
    97c0:	6e67696c 	vnmulvs.f16	s13, s14, s25	; <UNPREDICTABLE>
    97c4:	68286465 	stmdavs	r8!, {r0, r2, r5, r6, sl, sp, lr}
    97c8:	5f706165 	svcpl	0x00706165
    97cc:	72617473 	rsbvc	r7, r1, #1929379840	; 0x73000000
    97d0:	38202c74 	stmdacc	r0!, {r2, r4, r5, r6, sl, fp, sp}
    97d4:	00000a29 	andeq	r0, r0, r9, lsr #20
    97d8:	657a6973 	ldrbvs	r6, [sl, #-2419]!	; 0xfffff68d
    97dc:	6820666f 	stmdavs	r0!, {r0, r1, r2, r3, r5, r6, r9, sl, sp, lr}
    97e0:	253d7264 	ldrcs	r7, [sp, #-612]!	; 0xfffffd9c
    97e4:	72202c64 	eorvc	r2, r0, #100, 24	; 0x6400
    97e8:	6f7a6465 	svcvs	0x007a6465
    97ec:	253d656e 	ldrcs	r6, [sp, #-1390]!	; 0xfffffa92
    97f0:	00000a64 	andeq	r0, r0, r4, ror #20
    97f4:	4f525245 	svcmi	0x00525245
    97f8:	73253a52 			; <UNDEFINED> instruction: 0x73253a52
    97fc:	3a73253a 	bcc	1cd2cec <__bss_end__+0x1cc8cac>
    9800:	203a6425 	eorscs	r6, sl, r5, lsr #8
    9804:	534c4146 	movtpl	r4, #49478	; 0xc146
    9808:	683c2845 	ldmdavs	ip!, {r0, r2, r6, fp, sp}
    980c:	3e706165 	rpwccsz	f6, f0, f5
    9810:	6e203a29 	vmulvs.f32	s6, s0, s19
    9814:	6920746f 	stmdbvs	r0!, {r0, r1, r2, r3, r5, r6, sl, ip, sp, lr}
    9818:	6974696e 	ldmdbvs	r4!, {r1, r2, r3, r5, r6, r8, fp, sp, lr}^
    981c:	7a696c61 	bvc	1a649a8 <__bss_end__+0x1a5a968>
    9820:	0a3f6465 	beq	fe29bc <__bss_end__+0xfd897c>
    9824:	00000000 	andeq	r0, r0, r0
    9828:	65657266 	strbvs	r7, [r5, #-614]!	; 0xfffffd9a
    982c:	20676e69 	rsbcs	r6, r7, r9, ror #28
    9830:	000a7025 	andeq	r7, sl, r5, lsr #32
    9834:	6f6c6c61 	svcvs	0x006c6c61
    9838:	69746163 	ldmdbvs	r4!, {r0, r1, r5, r6, r8, sp, lr}^
    983c:	2520676e 	strcs	r6, [r0, #-1902]!	; 0xfffff892
    9840:	79622064 	stmdbvc	r2!, {r2, r5, r6, sp}^
    9844:	0a736574 	beq	1ce2e1c <__bss_end__+0x1cd8ddc>
    9848:	00000000 	andeq	r0, r0, r0
    984c:	43415254 	movtmi	r5, #4692	; 0x1254
    9850:	52453a45 	subpl	r3, r5, #282624	; 0x45000
    9854:	00524f52 	subseq	r4, r2, r2, asr pc
    9858:	657a6973 	ldrbvs	r6, [sl, #-2419]!	; 0xfffff68d
    985c:	65766f20 	ldrbvs	r6, [r6, #-3872]!	; 0xfffff0e0
    9860:	6f6c6672 	svcvs	0x006c6672
    9864:	3a646577 	bcc	1922e48 <__bss_end__+0x1918e08>
    9868:	20642520 	rsbcs	r2, r4, r0, lsr #10
    986c:	65747962 	ldrbvs	r7, [r4, #-2402]!	; 0xfffff69e
    9870:	73692073 	cmnvc	r9, #115	; 0x73
    9874:	6f6f7420 	svcvs	0x006f7420
    9878:	72616c20 	rsbvc	r6, r1, #32, 24	; 0x2000
    987c:	000a6567 	andeq	r6, sl, r7, ror #10
    9880:	494e4150 	stmdbmi	lr, {r4, r6, r8, lr}^
    9884:	73253a43 			; <UNDEFINED> instruction: 0x73253a43
    9888:	3a73253a 	bcc	1cd2d78 <__bss_end__+0x1cc8d38>
    988c:	733a6425 	teqvc	sl, #620756992	; 0x25000000
    9890:	20657a69 	rsbcs	r7, r5, r9, ror #20
    9894:	7265766f 	rsbvc	r7, r5, #116391936	; 0x6f00000
    9898:	776f6c66 	strbvc	r6, [pc, -r6, ror #24]!
    989c:	203a6465 	eorscs	r6, sl, r5, ror #8
    98a0:	62206425 	eorvs	r6, r0, #620756992	; 0x25000000
    98a4:	73657479 	cmnvc	r5, #2030043136	; 0x79000000
    98a8:	20736920 	rsbscs	r6, r3, r0, lsr #18
    98ac:	206f6f74 	rsbcs	r6, pc, r4, ror pc	; <UNPREDICTABLE>
    98b0:	6772616c 	ldrbvs	r6, [r2, -ip, ror #2]!
    98b4:	000a0a65 	andeq	r0, sl, r5, ror #20
    98b8:	2074756f 	rsbscs	r7, r4, pc, ror #10
    98bc:	6d20666f 	stcvs	6, cr6, [r0, #-444]!	; 0xfffffe44
    98c0:	726f6d65 	rsbvc	r6, pc, #6464	; 0x1940
    98c4:	20202179 	eorcs	r2, r0, r9, ror r1
    98c8:	65766168 	ldrbvs	r6, [r6, #-360]!	; 0xfffffe98
    98cc:	6c6e6f20 	stclvs	15, cr6, [lr], #-128	; 0xffffff80
    98d0:	64252079 	strtvs	r2, [r5], #-121	; 0xffffff87
    98d4:	66656c20 	strbtvs	r6, [r5], -r0, lsr #24
    98d8:	6e202c74 	mcrvs	12, 1, r2, cr0, cr4, {3}
    98dc:	20646565 	rsbcs	r6, r4, r5, ror #10
    98e0:	000a6425 	andeq	r6, sl, r5, lsr #8
    98e4:	494e4150 	stmdbmi	lr, {r4, r6, r8, lr}^
    98e8:	73253a43 			; <UNDEFINED> instruction: 0x73253a43
    98ec:	3a73253a 	bcc	1cd2ddc <__bss_end__+0x1cc8d9c>
    98f0:	6f3a6425 	svcvs	0x003a6425
    98f4:	6f207475 	svcvs	0x00207475
    98f8:	656d2066 	strbvs	r2, [sp, #-102]!	; 0xffffff9a
    98fc:	79726f6d 	ldmdbvc	r2!, {r0, r2, r3, r5, r6, r8, r9, sl, fp, sp, lr}^
    9900:	68202021 	stmdavs	r0!, {r0, r5, sp}
    9904:	20657661 	rsbcs	r7, r5, r1, ror #12
    9908:	796c6e6f 	stmdbvc	ip!, {r0, r1, r2, r3, r5, r6, r9, sl, fp, sp, lr}^
    990c:	20642520 	rsbcs	r2, r4, r0, lsr #10
    9910:	7466656c 	strbtvc	r6, [r6], #-1388	; 0xfffffa94
    9914:	656e202c 	strbvs	r2, [lr, #-44]!	; 0xffffffd4
    9918:	25206465 	strcs	r6, [r0, #-1125]!	; 0xfffffb9b
    991c:	000a0a64 	andeq	r0, sl, r4, ror #20
    9920:	494e4150 	stmdbmi	lr, {r4, r6, r8, lr}^
    9924:	73253a43 			; <UNDEFINED> instruction: 0x73253a43
    9928:	3a73253a 	bcc	1cd2e18 <__bss_end__+0x1cc8dd8>
    992c:	633a6425 	teqvs	sl, #620756992	; 0x25000000
    9930:	6b636568 	blvs	18e2ed8 <__bss_end__+0x18d8e98>
    9934:	6f6c625f 	svcvs	0x006c625f
    9938:	68286b63 	stmdavs	r8!, {r0, r1, r5, r6, r8, r9, fp, sp, lr}
    993c:	00000a29 	andeq	r0, r0, r9, lsr #20
    9940:	6c616b63 			; <UNDEFINED> instruction: 0x6c616b63
    9944:	3a636f6c 	bcc	18e56fc <__bss_end__+0x18db6bc>
    9948:	6f6c6c61 	svcvs	0x006c6c61
    994c:	65746163 	ldrbvs	r6, [r4, #-355]!	; 0xfffffe9d
    9950:	64252064 	strtvs	r2, [r5], #-100	; 0xffffff9c
    9954:	74796220 	ldrbtvc	r6, [r9], #-544	; 0xfffffde0
    9958:	202c7365 	eorcs	r7, ip, r5, ror #6
    995c:	746f7428 	strbtvc	r7, [pc], #-1064	; 9964 <__FUNCTION__.4339+0x258>
    9960:	253d6c61 	ldrcs	r6, [sp, #-3169]!	; 0xfffff39f
    9964:	202c2964 	eorcs	r2, ip, r4, ror #18
    9968:	3d727470 	cfldrdcc	mvd7, [r2, #-448]!	; 0xfffffe40
    996c:	000a7025 	andeq	r7, sl, r5, lsr #32
    9970:	6e696f67 	cdpvs	15, 6, cr6, cr9, cr7, {3}
    9974:	6f742067 	svcvs	0x00742067
    9978:	65686320 	strbvs	r6, [r8, #-800]!	; 0xfffffce0
    997c:	68206b63 	stmdavs	r0!, {r0, r1, r5, r6, r8, r9, fp, sp, lr}
    9980:	3a706165 	bcc	1c21f1c <__bss_end__+0x1c17edc>
    9984:	20642520 	rsbcs	r2, r4, r0, lsr #10
    9988:	65747962 	ldrbvs	r7, [r4, #-2402]!	; 0xfffff69e
    998c:	6c612073 	stclvs	0, cr2, [r1], #-460	; 0xfffffe34
    9990:	61636f6c 	cmnvs	r3, ip, ror #30
    9994:	2c646574 	cfstr64cs	mvdx6, [r4], #-464	; 0xfffffe30
    9998:	20642520 	rsbcs	r2, r4, r0, lsr #10
    999c:	65747962 	ldrbvs	r7, [r4, #-2402]!	; 0xfffff69e
    99a0:	656c2073 	strbvs	r2, [ip, #-115]!	; 0xffffff8d
    99a4:	000a7466 	andeq	r7, sl, r6, ror #8
    99a8:	63656863 	cmnvs	r5, #6488064	; 0x630000
    99ac:	2064656b 	rsbcs	r6, r4, fp, ror #10
    99b0:	62206425 	eorvs	r6, r0, #620756992	; 0x25000000
    99b4:	6b636f6c 	blvs	18e576c <__bss_end__+0x18db72c>
    99b8:	64202c73 	strtvs	r2, [r0], #-3187	; 0xfffff38d
    99bc:	63657465 	cmnvs	r5, #1694498816	; 0x65000000
    99c0:	20646574 	rsbcs	r6, r4, r4, ror r5
    99c4:	65206425 	strvs	r6, [r0, #-1061]!	; 0xfffffbdb
    99c8:	726f7272 	rsbvc	r7, pc, #536870919	; 0x20000007
    99cc:	00000a73 	andeq	r0, r0, r3, ror sl
    99d0:	43435553 	movtmi	r5, #13651	; 0x3553
    99d4:	3a535345 	bcc	14de6f0 <__bss_end__+0x14d46b0>
    99d8:	65686320 	strbvs	r6, [r8, #-800]!	; 0xfffffce0
    99dc:	64656b63 	strbtvs	r6, [r5], #-2915	; 0xfffff49d
    99e0:	20642520 	rsbcs	r2, r4, r0, lsr #10
    99e4:	636f6c62 	cmnvs	pc, #25088	; 0x6200
    99e8:	202c736b 	eorcs	r7, ip, fp, ror #6
    99ec:	65746564 	ldrbvs	r6, [r4, #-1380]!	; 0xfffffa9c
    99f0:	64657463 	strbtvs	r7, [r5], #-1123	; 0xfffffb9d
    99f4:	206f6e20 	rsbcs	r6, pc, r0, lsr #28
    99f8:	6f727265 	svcvs	0x00727265
    99fc:	000a7372 	andeq	r7, sl, r2, ror r3

00009a00 <__FUNCTION__.4281>:
    9a00:	74696d65 	strbtvc	r6, [r9], #-3429	; 0xfffff29b
    9a04:	00000000 	andeq	r0, r0, r0

00009a08 <__FUNCTION__.4229>:
    9a08:	5f697072 	svcpl	0x00697072
    9a0c:	5f746573 	svcpl	0x00746573
    9a10:	7074756f 	rsbsvc	r7, r4, pc, ror #10
    9a14:	00007475 	andeq	r7, r0, r5, ror r4

00009a18 <__FUNCTION__.4303>:
    9a18:	705f6176 	subsvc	r6, pc, r6, ror r1	; <UNPREDICTABLE>
    9a1c:	746e6972 	strbtvc	r6, [lr], #-2418	; 0xfffff68e
    9a20:	0000006b 	andeq	r0, r0, fp, rrx
    9a24:	6362696c 	cmnvs	r2, #108, 18	; 0x1b0000
    9a28:	2d61762f 	stclcs	6, cr7, [r1, #-188]!	; 0xffffff44
    9a2c:	6e697270 	mcrvs	2, 3, r7, cr9, cr0, {3}
    9a30:	632e6b74 			; <UNDEFINED> instruction: 0x632e6b74
    9a34:	00000000 	andeq	r0, r0, r0
    9a38:	494e4150 	stmdbmi	lr, {r4, r6, r8, lr}^
    9a3c:	73253a43 			; <UNDEFINED> instruction: 0x73253a43
    9a40:	3a73253a 	bcc	1cd2f30 <__bss_end__+0x1cc8ef0>
    9a44:	303a6425 	eorscc	r6, sl, r5, lsr #8
    9a48:	0000000a 	andeq	r0, r0, sl
    9a4c:	33323130 	teqcc	r2, #48, 2
    9a50:	37363534 			; <UNDEFINED> instruction: 0x37363534
    9a54:	00003938 	andeq	r3, r0, r8, lsr r9
    9a58:	33323130 	teqcc	r2, #48, 2
    9a5c:	37363534 			; <UNDEFINED> instruction: 0x37363534
    9a60:	62613938 	rsbvs	r3, r1, #56, 18	; 0xe0000
    9a64:	66656463 	strbtvs	r6, [r5], -r3, ror #8
    9a68:	00000000 	andeq	r0, r0, r0
    9a6c:	00003130 	andeq	r3, r0, r0, lsr r1
    9a70:	494e4150 	stmdbmi	lr, {r4, r6, r8, lr}^
    9a74:	73253a43 			; <UNDEFINED> instruction: 0x73253a43
    9a78:	3a73253a 	bcc	1cd2f68 <__bss_end__+0x1cc8f28>
    9a7c:	703a6425 	eorsvc	r6, sl, r5, lsr #8
    9a80:	5f637475 	svcpl	0x00637475
    9a84:	000a7066 	andeq	r7, sl, r6, rrx
    9a88:	494e4150 	stmdbmi	lr, {r4, r6, r8, lr}^
    9a8c:	73253a43 			; <UNDEFINED> instruction: 0x73253a43
    9a90:	3a73253a 	bcc	1cd2f80 <__bss_end__+0x1cc8f40>
    9a94:	773a6425 	ldrvc	r6, [sl, -r5, lsr #8]!
    9a98:	68746469 	ldmdavs	r4!, {r0, r3, r5, r6, sl, sp, lr}^
    9a9c:	33203c20 			; <UNDEFINED> instruction: 0x33203c20
    9aa0:	00000a32 	andeq	r0, r0, r2, lsr sl
    9aa4:	494e4150 	stmdbmi	lr, {r4, r6, r8, lr}^
    9aa8:	73253a43 			; <UNDEFINED> instruction: 0x73253a43
    9aac:	3a73253a 	bcc	1cd2f9c <__bss_end__+0x1cc8f5c>
    9ab0:	663a6425 	ldrtvs	r6, [sl], -r5, lsr #8
    9ab4:	74616f6c 	strbtvc	r6, [r1], #-3948	; 0xfffff094
    9ab8:	746f6e20 	strbtvc	r6, [pc], #-3616	; 9ac0 <__FUNCTION__.4303+0xa8>
    9abc:	616e6520 	cmnvs	lr, r0, lsr #10
    9ac0:	64656c62 	strbtvs	r6, [r5], #-3170	; 0xfffff39e
    9ac4:	0a212121 	beq	851f50 <__bss_end__+0x847f10>
    9ac8:	00000000 	andeq	r0, r0, r0
    9acc:	494e4150 	stmdbmi	lr, {r4, r6, r8, lr}^
    9ad0:	73253a43 			; <UNDEFINED> instruction: 0x73253a43
    9ad4:	3a73253a 	bcc	1cd2fc4 <__bss_end__+0x1cc8f84>
    9ad8:	703a6425 	eorsvc	r6, sl, r5, lsr #8
    9adc:	746e6972 	strbtvc	r6, [lr], #-2418	; 0xfffff68e
    9ae0:	6e203a6b 	vnmulvs.f32	s6, s0, s23
    9ae4:	6820746f 	stmdavs	r0!, {r0, r1, r2, r3, r5, r6, sl, ip, sp, lr}
    9ae8:	6c646e61 	stclvs	14, cr6, [r4], #-388	; 0xfffffe7c
    9aec:	20676e69 	rsbcs	r6, r7, r9, ror #28
    9af0:	63657073 	cmnvs	r5, #115	; 0x73
    9af4:	65696669 	strbvs	r6, [r9, #-1641]!	; 0xfffff997
    9af8:	25272072 	strcs	r2, [r7, #-114]!	; 0xffffff8e
    9afc:	0a0a2763 	beq	293890 <__bss_end__+0x289850>
    9b00:	00000000 	andeq	r0, r0, r0
    9b04:	454e4f44 	strbmi	r4, [lr, #-3908]	; 0xfffff0bc
    9b08:	0a212121 	beq	851f94 <__bss_end__+0x847f54>
    9b0c:	00000000 	andeq	r0, r0, r0

00009b10 <__FUNCTION__.4237>:
    9b10:	6c616d6b 	stclvs	13, cr6, [r1], #-428	; 0xfffffe54
    9b14:	5f636f6c 	svcpl	0x00636f6c
    9b18:	74696e69 	strbtvc	r6, [r9], #-3689	; 0xfffff197
    9b1c:	7465735f 	strbtvc	r7, [r5], #-863	; 0xfffffca1
    9b20:	6174735f 	cmnvs	r4, pc, asr r3
    9b24:	00007472 	andeq	r7, r0, r2, ror r4

00009b28 <__FUNCTION__.4241>:
    9b28:	6c616d6b 	stclvs	13, cr6, [r1], #-428	; 0xfffffe54
    9b2c:	00636f6c 	rsbeq	r6, r3, ip, ror #30

00009b30 <__FUNCTION__.4253>:
    9b30:	6c616d6b 	stclvs	13, cr6, [r1], #-428	; 0xfffffe54
    9b34:	5f636f6c 	svcpl	0x00636f6c
    9b38:	67696c61 	strbvs	r6, [r9, -r1, ror #24]!
    9b3c:	0064656e 	rsbeq	r6, r4, lr, ror #10
    9b40:	6c616d6b 	stclvs	13, cr6, [r1], #-428	; 0xfffffe54
    9b44:	2e636f6c 	cdpcs	15, 6, cr6, cr3, cr12, {3}
    9b48:	00000063 	andeq	r0, r0, r3, rrx
    9b4c:	494e4150 	stmdbmi	lr, {r4, r6, r8, lr}^
    9b50:	73253a43 			; <UNDEFINED> instruction: 0x73253a43
    9b54:	3a73253a 	bcc	1cd3044 <__bss_end__+0x1cc9004>
    9b58:	613a6425 	teqvs	sl, r5, lsr #8
    9b5c:	20726464 	rsbscs	r6, r2, r4, ror #8
    9b60:	6568203e 	strbvs	r2, [r8, #-62]!	; 0xffffffc2
    9b64:	000a7061 	andeq	r7, sl, r1, rrx
    9b68:	494e4150 	stmdbmi	lr, {r4, r6, r8, lr}^
    9b6c:	73253a43 			; <UNDEFINED> instruction: 0x73253a43
    9b70:	3a73253a 	bcc	1cd3060 <__bss_end__+0x1cc9020>
    9b74:	733a6425 	teqvc	sl, #620756992	; 0x25000000
    9b78:	00000a7a 	andeq	r0, r0, sl, ror sl
    9b7c:	4f525245 	svcmi	0x00525245
    9b80:	73253a52 			; <UNDEFINED> instruction: 0x73253a52
    9b84:	3a73253a 	bcc	1cd3074 <__bss_end__+0x1cc9034>
    9b88:	203a6425 	eorscs	r6, sl, r5, lsr #8
    9b8c:	534c4146 	movtpl	r4, #49478	; 0xc146
    9b90:	283c2845 	ldmdacs	ip!, {r0, r2, r6, fp, sp}
    9b94:	6c612828 	stclvs	8, cr2, [r1], #-160	; 0xffffff60
    9b98:	6d6e6769 	stclvs	7, cr6, [lr, #-420]!	; 0xfffffe5c
    9b9c:	29746e65 	ldmdbcs	r4!, {r0, r2, r5, r6, r9, sl, fp, sp, lr}^
    9ba0:	61282d26 			; <UNDEFINED> instruction: 0x61282d26
    9ba4:	6e67696c 	vnmulvs.f16	s13, s14, s25	; <UNPREDICTABLE>
    9ba8:	746e656d 	strbtvc	r6, [lr], #-1389	; 0xfffffa93
    9bac:	3d202929 			; <UNDEFINED> instruction: 0x3d202929
    9bb0:	6128203d 			; <UNDEFINED> instruction: 0x6128203d
    9bb4:	6e67696c 	vnmulvs.f16	s13, s14, s25	; <UNPREDICTABLE>
    9bb8:	746e656d 	strbtvc	r6, [lr], #-1389	; 0xfffffa93
    9bbc:	293e2929 	ldmdbcs	lr!, {r0, r3, r5, r8, fp, sp}
    9bc0:	7361203a 	cmnvc	r1, #58	; 0x3a
    9bc4:	696d7573 	stmdbvs	sp!, {r0, r1, r4, r5, r6, r8, sl, ip, sp, lr}^
    9bc8:	7020676e 	eorvc	r6, r0, lr, ror #14
    9bcc:	7265776f 	rsbvc	r7, r5, #29097984	; 0x1bc0000
    9bd0:	20666f20 	rsbcs	r6, r6, r0, lsr #30
    9bd4:	0a6f7774 	beq	1be79ac <__bss_end__+0x1bdd96c>
    9bd8:	00000000 	andeq	r0, r0, r0
    9bdc:	4f525245 	svcmi	0x00525245
    9be0:	73253a52 			; <UNDEFINED> instruction: 0x73253a52
    9be4:	3a73253a 	bcc	1cd30d4 <__bss_end__+0x1cc9094>
    9be8:	203a6425 	eorscs	r6, sl, r5, lsr #8
    9bec:	534c4146 	movtpl	r4, #49478	; 0xc146
    9bf0:	283c2845 	ldmdacs	ip!, {r0, r2, r6, fp, sp}
    9bf4:	29682828 	stmdbcs	r8!, {r3, r5, fp, sp}^
    9bf8:	28202620 	stmdacs	r0!, {r5, r9, sl, sp}
    9bfc:	70797428 	rsbsvc	r7, r9, r8, lsr #8
    9c00:	28666f65 	stmdacs	r6!, {r0, r2, r5, r6, r8, r9, sl, fp, sp, lr}^
    9c04:	28292968 	stmdacs	r9!, {r3, r5, r6, r8, fp, sp}
    9c08:	67696c61 	strbvs	r6, [r9, -r1, ror #24]!
    9c0c:	6e656d6e 	cdpvs	13, 6, cr6, cr5, cr14, {3}
    9c10:	2d202974 			; <UNDEFINED> instruction: 0x2d202974
    9c14:	29293120 	stmdbcs	r9!, {r5, r8, ip, sp}
    9c18:	203d3d20 	eorscs	r3, sp, r0, lsr #26
    9c1c:	293e2930 	ldmdbcs	lr!, {r4, r5, r8, fp, sp}
    9c20:	6d69203a 	stclvs	0, cr2, [r9, #-232]!	; 0xffffff18
    9c24:	73736f70 	cmnvc	r3, #112, 30	; 0x1c0
    9c28:	656c6269 	strbvs	r6, [ip, #-617]!	; 0xfffffd97
    9c2c:	0000000a 	andeq	r0, r0, sl

Disassembly of section .bss:

00009c30 <__bss_start__>:
    9c30:	00000000 	andeq	r0, r0, r0

00009c34 <heap>:
    9c34:	00000000 	andeq	r0, r0, r0

00009c38 <heap_end>:
    9c38:	00000000 	andeq	r0, r0, r0

00009c3c <buf.4229>:
	...

Disassembly of section .ARM.attributes:

00000000 <.ARM.attributes>:
   0:	00002a41 	andeq	r2, r0, r1, asr #20
   4:	61656100 	cmnvs	r5, r0, lsl #2
   8:	01006962 	tsteq	r0, r2, ror #18
   c:	00000020 	andeq	r0, r0, r0, lsr #32
  10:	4b5a3605 	blmi	168d82c <__bss_end__+0x16837ec>
  14:	08070600 	stmdaeq	r7, {r9, sl}
  18:	12010901 	andne	r0, r1, #16384	; 0x4000
  1c:	15011404 	strne	r1, [r1, #-1028]	; 0xfffffbfc
  20:	18031701 	stmdane	r3, {r0, r8, r9, sl, ip}
  24:	22011a01 	andcs	r1, r1, #4096	; 0x1000
  28:	Address 0x0000000000000028 is out of bounds.


Disassembly of section .comment:

00000000 <.comment>:
   0:	3a434347 	bcc	10d0d24 <__bss_end__+0x10c6ce4>
   4:	35312820 	ldrcc	r2, [r1, #-2080]!	; 0xfffff7e0
   8:	332e363a 			; <UNDEFINED> instruction: 0x332e363a
   c:	732b312e 			; <UNDEFINED> instruction: 0x732b312e
  10:	35326e76 	ldrcc	r6, [r2, #-3702]!	; 0xfffff18a
  14:	39333033 	ldmdbcc	r3!, {r0, r1, r4, r5, ip, sp}
  18:	7562312d 	strbvc	r3, [r2, #-301]!	; 0xfffffed3
  1c:	31646c69 	cmncc	r4, r9, ror #24
  20:	2e362029 	cdpcs	0, 3, cr2, cr6, cr9, {1}
  24:	20312e33 	eorscs	r2, r1, r3, lsr lr
  28:	37313032 			; <UNDEFINED> instruction: 0x37313032
  2c:	30323630 	eorscc	r3, r2, r0, lsr r6
	...

Disassembly of section .debug_info:

00000000 <.debug_info>:
       0:	00000ac1 	andeq	r0, r0, r1, asr #21
       4:	00000004 	andeq	r0, r0, r4
       8:	01040000 	mrseq	r0, (UNDEF: 4)
       c:	000003db 	ldrdeq	r0, [r0], -fp
      10:	0000210c 	andeq	r2, r0, ip, lsl #2
      14:	0000dc00 	andeq	sp, r0, r0, lsl #24
      18:	00801000 	addeq	r1, r0, r0
      1c:	0000d000 	andeq	sp, r0, r0
      20:	00000000 	andeq	r0, r0, r0
      24:	05040200 	streq	r0, [r4, #-512]	; 0xfffffe00
      28:	00746e69 	rsbseq	r6, r4, r9, ror #28
      2c:	74070403 	strvc	r0, [r7], #-1027	; 0xfffffbfd
      30:	03000000 	movweq	r0, #0
      34:	02ff0601 	rscseq	r0, pc, #1048576	; 0x100000
      38:	02030000 	andeq	r0, r3, #0
      3c:	00031905 	andeq	r1, r3, r5, lsl #18
      40:	05040300 	streq	r0, [r4, #-768]	; 0xfffffd00
      44:	000000bd 	strheq	r0, [r0], -sp
      48:	b8050803 	stmdalt	r5, {r0, r1, fp}
      4c:	03000000 	movweq	r0, #0
      50:	02fd0801 	rscseq	r0, sp, #65536	; 0x10000
      54:	02030000 	andeq	r0, r3, #0
      58:	00023307 	andeq	r3, r2, r7, lsl #6
      5c:	07040300 	streq	r0, [r4, -r0, lsl #6]
      60:	0000006f 	andeq	r0, r0, pc, rrx
      64:	6a070803 	bvs	1c2078 <__bss_end__+0x1b8038>
      68:	04000000 	streq	r0, [r0], #-0
      6c:	000002eb 	andeq	r0, r0, fp, ror #5
      70:	00250702 	eoreq	r0, r5, r2, lsl #14
      74:	da040000 	ble	10007c <__bss_end__+0xf603c>
      78:	03000002 	movweq	r0, #2
      7c:	0000412c 	andeq	r4, r0, ip, lsr #2
      80:	03c40400 	biceq	r0, r4, #0, 8
      84:	72030000 	andvc	r0, r3, #0
      88:	00000041 	andeq	r0, r0, r1, asr #32
      8c:	00027605 	andeq	r7, r2, r5, lsl #12
      90:	01650400 	cmneq	r5, r0, lsl #8
      94:	0000002c 	andeq	r0, r0, ip, lsr #32
      98:	a6030406 	strge	r0, [r3], -r6, lsl #8
      9c:	000000b7 	strheq	r0, [r0], -r7
      a0:	00027007 	andeq	r7, r2, r7
      a4:	8ca80300 	stchi	3, cr0, [r8]
      a8:	07000000 	streq	r0, [r0, -r0]
      ac:	000001f3 	strdeq	r0, [r0], -r3
      b0:	00b7a903 	adcseq	sl, r7, r3, lsl #18
      b4:	08000000 	stmdaeq	r0, {}	; <UNPREDICTABLE>
      b8:	0000004f 	andeq	r0, r0, pc, asr #32
      bc:	000000c7 	andeq	r0, r0, r7, asr #1
      c0:	0000c709 	andeq	ip, r0, r9, lsl #14
      c4:	03000300 	movweq	r0, #768	; 0x300
      c8:	02ae0704 	adceq	r0, lr, #4, 14	; 0x100000
      cc:	080a0000 	stmdaeq	sl, {}	; <UNPREDICTABLE>
      d0:	00efa303 	rsceq	sl, pc, r3, lsl #6
      d4:	ae0b0000 	cdpge	0, 0, cr0, cr11, cr0, {0}
      d8:	03000003 	movweq	r0, #3
      dc:	000025a5 	andeq	r2, r0, r5, lsr #11
      e0:	b60b0000 	strlt	r0, [fp], -r0
      e4:	03000003 	movweq	r0, #3
      e8:	000098aa 	andeq	r9, r0, sl, lsr #17
      ec:	04000400 	streq	r0, [r0], #-1024	; 0xfffffc00
      f0:	00000341 	andeq	r0, r0, r1, asr #6
      f4:	00ceab03 	sbceq	sl, lr, r3, lsl #22
      f8:	b0040000 	andlt	r0, r4, r0
      fc:	03000001 	movweq	r0, #1
     100:	00006baf 	andeq	r6, r0, pc, lsr #23
     104:	0d040c00 	stceq	12, cr0, [r4, #-0]
     108:	00010d04 	andeq	r0, r1, r4, lsl #26
     10c:	08010300 	stmdaeq	r1, {r8, r9}
     110:	00000306 	andeq	r0, r0, r6, lsl #6
     114:	00010d0e 	andeq	r0, r1, lr, lsl #26
     118:	04580400 	ldrbeq	r0, [r8], #-1024	; 0xfffffc00
     11c:	16050000 	strne	r0, [r5], -r0
     120:	0000005d 	andeq	r0, r0, sp, asr r0
     124:	0001c10f 	andeq	ip, r1, pc, lsl #2
     128:	2d051800 	stccs	8, cr1, [r5, #-0]
     12c:	00000177 	andeq	r0, r0, r7, ror r1
     130:	0003620b 	andeq	r6, r3, fp, lsl #4
     134:	772f0500 	strvc	r0, [pc, -r0, lsl #10]!
     138:	00000001 	andeq	r0, r0, r1
     13c:	006b5f10 	rsbeq	r5, fp, r0, lsl pc
     140:	00253005 	eoreq	r3, r5, r5
     144:	0b040000 	bleq	10014c <__bss_end__+0xf610c>
     148:	00000399 	muleq	r0, r9, r3
     14c:	00253005 	eoreq	r3, r5, r5
     150:	0b080000 	bleq	200158 <__bss_end__+0x1f6118>
     154:	000001aa 	andeq	r0, r0, sl, lsr #3
     158:	00253005 	eoreq	r3, r5, r5
     15c:	0b0c0000 	bleq	300164 <__bss_end__+0x2f6124>
     160:	000004a6 	andeq	r0, r0, r6, lsr #9
     164:	00253005 	eoreq	r3, r5, r5
     168:	10100000 	andsne	r0, r0, r0
     16c:	0500785f 	streq	r7, [r0, #-2143]	; 0xfffff7a1
     170:	00017d31 	andeq	r7, r1, r1, lsr sp
     174:	0d001400 	cfstrseq	mvf1, [r0, #-0]
     178:	00012404 	andeq	r2, r1, r4, lsl #8
     17c:	01190800 	tsteq	r9, r0, lsl #16
     180:	018d0000 	orreq	r0, sp, r0
     184:	c7090000 	strgt	r0, [r9, -r0]
     188:	00000000 	andeq	r0, r0, r0
     18c:	01ee0f00 	mvneq	r0, r0, lsl #30
     190:	05240000 	streq	r0, [r4, #-0]!
     194:	00020635 	andeq	r0, r2, r5, lsr r6
     198:	00af0b00 	adceq	r0, pc, r0, lsl #22
     19c:	37050000 	strcc	r0, [r5, -r0]
     1a0:	00000025 	andeq	r0, r0, r5, lsr #32
     1a4:	03cc0b00 	biceq	r0, ip, #0, 22
     1a8:	38050000 	stmdacc	r5, {}	; <UNPREDICTABLE>
     1ac:	00000025 	andeq	r0, r0, r5, lsr #32
     1b0:	00d20b04 	sbcseq	r0, r2, r4, lsl #22
     1b4:	39050000 	stmdbcc	r5, {}	; <UNPREDICTABLE>
     1b8:	00000025 	andeq	r0, r0, r5, lsr #32
     1bc:	05270b08 	streq	r0, [r7, #-2824]!	; 0xfffff4f8
     1c0:	3a050000 	bcc	1401c8 <__bss_end__+0x136188>
     1c4:	00000025 	andeq	r0, r0, r5, lsr #32
     1c8:	02be0b0c 	adcseq	r0, lr, #12, 22	; 0x3000
     1cc:	3b050000 	blcc	1401d4 <__bss_end__+0x136194>
     1d0:	00000025 	andeq	r0, r0, r5, lsr #32
     1d4:	02970b10 	addseq	r0, r7, #16, 22	; 0x4000
     1d8:	3c050000 	stccc	0, cr0, [r5], {-0}
     1dc:	00000025 	andeq	r0, r0, r5, lsr #32
     1e0:	04ab0b14 	strteq	r0, [fp], #2836	; 0xb14
     1e4:	3d050000 	stccc	0, cr0, [r5, #-0]
     1e8:	00000025 	andeq	r0, r0, r5, lsr #32
     1ec:	03230b18 			; <UNDEFINED> instruction: 0x03230b18
     1f0:	3e050000 	cdpcc	0, 0, cr0, cr5, cr0, {0}
     1f4:	00000025 	andeq	r0, r0, r5, lsr #32
     1f8:	04ee0b1c 	strbteq	r0, [lr], #2844	; 0xb1c
     1fc:	3f050000 	svccc	0x00050000
     200:	00000025 	andeq	r0, r0, r5, lsr #32
     204:	12110020 	andsne	r0, r1, #32
     208:	08000001 	stmdaeq	r0, {r0}
     20c:	46480501 	strbmi	r0, [r8], -r1, lsl #10
     210:	0b000002 	bleq	220 <_start-0x7de0>
     214:	0000019d 	muleq	r0, sp, r1
     218:	02464905 	subeq	r4, r6, #81920	; 0x14000
     21c:	0b000000 	bleq	224 <_start-0x7ddc>
     220:	00000000 	andeq	r0, r0, r0
     224:	02464a05 	subeq	r4, r6, #20480	; 0x5000
     228:	12800000 	addne	r0, r0, #0
     22c:	0000044a 	andeq	r0, r0, sl, asr #8
     230:	01194c05 	tsteq	r9, r5, lsl #24
     234:	01000000 	mrseq	r0, (UNDEF: 0)
     238:	00013712 	andeq	r3, r1, r2, lsl r7
     23c:	194f0500 	stmdbne	pc, {r8, sl}^	; <UNPREDICTABLE>
     240:	04000001 	streq	r0, [r0], #-1
     244:	05080001 	streq	r0, [r8, #-1]
     248:	56000001 	strpl	r0, [r0], -r1
     24c:	09000002 	stmdbeq	r0, {r1}
     250:	000000c7 	andeq	r0, r0, r7, asr #1
     254:	c711001f 			; <UNDEFINED> instruction: 0xc711001f
     258:	90000002 	andls	r0, r0, r2
     25c:	945b0501 	ldrbls	r0, [fp], #-1281	; 0xfffffaff
     260:	0b000002 	bleq	270 <_start-0x7d90>
     264:	00000362 	andeq	r0, r0, r2, ror #6
     268:	02945c05 	addseq	r5, r4, #1280	; 0x500
     26c:	0b000000 	bleq	274 <_start-0x7d8c>
     270:	0000037a 	andeq	r0, r0, sl, ror r3
     274:	00255d05 	eoreq	r5, r5, r5, lsl #26
     278:	0b040000 	bleq	100280 <__bss_end__+0xf6240>
     27c:	000001a5 	andeq	r0, r0, r5, lsr #3
     280:	029a5f05 	addseq	r5, sl, #5, 30
     284:	0b080000 	bleq	20028c <__bss_end__+0x1f624c>
     288:	00000112 	andeq	r0, r0, r2, lsl r1
     28c:	02066005 	andeq	r6, r6, #5
     290:	00880000 	addeq	r0, r8, r0
     294:	0256040d 	subseq	r0, r6, #218103808	; 0xd000000
     298:	aa080000 	bge	2002a0 <__bss_end__+0x1f6260>
     29c:	aa000002 	bge	2ac <_start-0x7d54>
     2a0:	09000002 	stmdbeq	r0, {r1}
     2a4:	000000c7 	andeq	r0, r0, r7, asr #1
     2a8:	040d001f 	streq	r0, [sp], #-31	; 0xffffffe1
     2ac:	000002b0 			; <UNDEFINED> instruction: 0x000002b0
     2b0:	032d0f13 			; <UNDEFINED> instruction: 0x032d0f13
     2b4:	05080000 	streq	r0, [r8, #-0]
     2b8:	0002d673 	andeq	sp, r2, r3, ror r6
     2bc:	00cc0b00 	sbceq	r0, ip, r0, lsl #22
     2c0:	74050000 	strvc	r0, [r5], #-0
     2c4:	000002d6 	ldrdeq	r0, [r0], -r6
     2c8:	001b0b00 	andseq	r0, fp, r0, lsl #22
     2cc:	75050000 	strvc	r0, [r5, #-0]
     2d0:	00000025 	andeq	r0, r0, r5, lsr #32
     2d4:	040d0004 	streq	r0, [sp], #-4
     2d8:	0000004f 	andeq	r0, r0, pc, asr #32
     2dc:	00034c0f 	andeq	r4, r3, pc, lsl #24
     2e0:	b3056800 	movwlt	r6, #22528	; 0x5800
     2e4:	00000406 	andeq	r0, r0, r6, lsl #8
     2e8:	00705f10 	rsbseq	r5, r0, r0, lsl pc
     2ec:	02d6b405 	sbcseq	fp, r6, #83886080	; 0x5000000
     2f0:	10000000 	andne	r0, r0, r0
     2f4:	0500725f 	streq	r7, [r0, #-607]	; 0xfffffda1
     2f8:	000025b5 			; <UNDEFINED> instruction: 0x000025b5
     2fc:	5f100400 	svcpl	0x00100400
     300:	b6050077 			; <UNDEFINED> instruction: 0xb6050077
     304:	00000025 	andeq	r0, r0, r5, lsr #32
     308:	01300b08 	teqeq	r0, r8, lsl #22
     30c:	b7050000 	strlt	r0, [r5, -r0]
     310:	0000003a 	andeq	r0, r0, sl, lsr r0
     314:	02190b0c 	andseq	r0, r9, #12, 22	; 0x3000
     318:	b8050000 	stmdalt	r5, {}	; <UNPREDICTABLE>
     31c:	0000003a 	andeq	r0, r0, sl, lsr r0
     320:	625f100e 	subsvs	r1, pc, #14
     324:	b9050066 	stmdblt	r5, {r1, r2, r5, r6}
     328:	000002b1 			; <UNDEFINED> instruction: 0x000002b1
     32c:	00890b10 	addeq	r0, r9, r0, lsl fp
     330:	ba050000 	blt	140338 <__bss_end__+0x1362f8>
     334:	00000025 	andeq	r0, r0, r5, lsr #32
     338:	01200b18 			; <UNDEFINED> instruction: 0x01200b18
     33c:	c1050000 	mrsgt	r0, (UNDEF: 5)
     340:	00000105 	andeq	r0, r0, r5, lsl #2
     344:	0a7d0b1c 	beq	1f42fbc <__bss_end__+0x1f38f7c>
     348:	c3050000 	movwgt	r0, #20480	; 0x5000
     34c:	00000561 	andeq	r0, r0, r1, ror #10
     350:	06110b20 	ldreq	r0, [r1], -r0, lsr #22
     354:	c5050000 	strgt	r0, [r5, #-0]
     358:	0000058b 	andeq	r0, r0, fp, lsl #11
     35c:	03be0b24 			; <UNDEFINED> instruction: 0x03be0b24
     360:	c8050000 	stmdagt	r5, {}	; <UNPREDICTABLE>
     364:	000005af 	andeq	r0, r0, pc, lsr #11
     368:	05080b28 	streq	r0, [r8, #-2856]	; 0xfffff4d8
     36c:	c9050000 	stmdbgt	r5, {}	; <UNPREDICTABLE>
     370:	000005c9 	andeq	r0, r0, r9, asr #11
     374:	755f102c 	ldrbvc	r1, [pc, #-44]	; 350 <_start-0x7cb0>
     378:	cc050062 	stcgt	0, cr0, [r5], {98}	; 0x62
     37c:	000002b1 			; <UNDEFINED> instruction: 0x000002b1
     380:	755f1030 	ldrbvc	r1, [pc, #-48]	; 358 <_start-0x7ca8>
     384:	cd050070 	stcgt	0, cr0, [r5, #-448]	; 0xfffffe40
     388:	000002d6 	ldrdeq	r0, [r0], -r6
     38c:	755f1038 	ldrbvc	r1, [pc, #-56]	; 35c <_start-0x7ca4>
     390:	ce050072 	mcrgt	0, 0, r0, cr5, cr2, {3}
     394:	00000025 	andeq	r0, r0, r5, lsr #32
     398:	00c60b3c 	sbceq	r0, r6, ip, lsr fp
     39c:	d1050000 	mrsle	r0, (UNDEF: 5)
     3a0:	000005cf 	andeq	r0, r0, pc, asr #11
     3a4:	04e00b40 	strbteq	r0, [r0], #2880	; 0xb40
     3a8:	d2050000 	andle	r0, r5, #0
     3ac:	000005df 	ldrdeq	r0, [r0], -pc	; <UNPREDICTABLE>
     3b0:	6c5f1043 	mrrcvs	0, 4, r1, pc, cr3	; <UNPREDICTABLE>
     3b4:	d5050062 	strle	r0, [r5, #-98]	; 0xffffff9e
     3b8:	000002b1 			; <UNDEFINED> instruction: 0x000002b1
     3bc:	014e0b44 	cmpeq	lr, r4, asr #22
     3c0:	d8050000 	stmdale	r5, {}	; <UNPREDICTABLE>
     3c4:	00000025 	andeq	r0, r0, r5, lsr #32
     3c8:	015f0b4c 	cmpeq	pc, ip, asr #22
     3cc:	d9050000 	stmdble	r5, {}	; <UNPREDICTABLE>
     3d0:	00000076 	andeq	r0, r0, r6, ror r0
     3d4:	0a1e0b50 	beq	78311c <__bss_end__+0x7790dc>
     3d8:	dc050000 	stcle	0, cr0, [r5], {-0}
     3dc:	00000424 	andeq	r0, r0, r4, lsr #8
     3e0:	02840b54 	addeq	r0, r4, #84, 22	; 0x15000
     3e4:	e0050000 	and	r0, r5, r0
     3e8:	000000fa 	strdeq	r0, [r0], -sl
     3ec:	03540b58 	cmpeq	r4, #88, 22	; 0x16000
     3f0:	e2050000 	and	r0, r5, #0
     3f4:	000000ef 	andeq	r0, r0, pc, ror #1
     3f8:	028f0b5c 	addeq	r0, pc, #92, 22	; 0x17000
     3fc:	e3050000 	movw	r0, #20480	; 0x5000
     400:	00000025 	andeq	r0, r0, r5, lsr #32
     404:	25140064 	ldrcs	r0, [r4, #-100]	; 0xffffff9c
     408:	24000000 	strcs	r0, [r0], #-0
     40c:	15000004 	strne	r0, [r0, #-4]
     410:	00000424 	andeq	r0, r0, r4, lsr #8
     414:	00010515 	andeq	r0, r1, r5, lsl r5
     418:	01071500 	tsteq	r7, r0, lsl #10
     41c:	25150000 	ldrcs	r0, [r5, #-0]
     420:	00000000 	andeq	r0, r0, r0
     424:	042f040d 	strteq	r0, [pc], #-1037	; 42c <_start-0x7bd4>
     428:	240e0000 	strcs	r0, [lr], #-0
     42c:	16000004 	strne	r0, [r0], -r4
     430:	000003a1 	andeq	r0, r0, r1, lsr #7
     434:	38050428 	stmdacc	r5, {r3, r5, sl}
     438:	00056102 	andeq	r6, r5, r2, lsl #2
     43c:	03121700 	tsteq	r2, #0, 14
     440:	3a050000 	bcc	140448 <__bss_end__+0x136408>
     444:	00002502 	andeq	r2, r0, r2, lsl #10
     448:	3f170000 	svccc	0x00170000
     44c:	05000001 	streq	r0, [r0, #-1]
     450:	0636023f 			; <UNDEFINED> instruction: 0x0636023f
     454:	17040000 	strne	r0, [r4, -r0]
     458:	00000209 	andeq	r0, r0, r9, lsl #4
     45c:	36023f05 	strcc	r3, [r2], -r5, lsl #30
     460:	08000006 	stmdaeq	r0, {r1, r2}
     464:	0001b917 	andeq	fp, r1, r7, lsl r9
     468:	023f0500 	eorseq	r0, pc, #0, 10
     46c:	00000636 	andeq	r0, r0, r6, lsr r6
     470:	0375170c 	cmneq	r5, #12, 14	; 0x300000
     474:	41050000 	mrsmi	r0, (UNDEF: 5)
     478:	00002502 	andeq	r2, r0, r2, lsl #10
     47c:	37171000 	ldrcc	r1, [r7, -r0]
     480:	05000000 	streq	r0, [r0, #-0]
     484:	08180242 	ldmdaeq	r8, {r1, r6, r9}
     488:	17140000 	ldrne	r0, [r4, -r0]
     48c:	00000480 	andeq	r0, r0, r0, lsl #9
     490:	25024405 	strcs	r4, [r2, #-1029]	; 0xfffffbfb
     494:	30000000 	andcc	r0, r0, r0
     498:	00037f17 	andeq	r7, r3, r7, lsl pc
     49c:	02450500 	subeq	r0, r5, #0, 10
     4a0:	00000585 	andeq	r0, r0, r5, lsl #11
     4a4:	02cf1734 	sbceq	r1, pc, #52, 14	; 0xd00000
     4a8:	47050000 	strmi	r0, [r5, -r0]
     4ac:	00002502 	andeq	r2, r0, r2, lsl #10
     4b0:	8f173800 	svchi	0x00173800
     4b4:	05000003 	streq	r0, [r0, #-3]
     4b8:	08330249 	ldmdaeq	r3!, {r0, r3, r6, r9}
     4bc:	173c0000 	ldrne	r0, [ip, -r0]!
     4c0:	00000268 	andeq	r0, r0, r8, ror #4
     4c4:	77024c05 	strvc	r4, [r2, -r5, lsl #24]
     4c8:	40000001 	andmi	r0, r0, r1
     4cc:	0001d817 	andeq	sp, r1, r7, lsl r8
     4d0:	024d0500 	subeq	r0, sp, #0, 10
     4d4:	00000025 	andeq	r0, r0, r5, lsr #32
     4d8:	05221744 	streq	r1, [r2, #-1860]!	; 0xfffff8bc
     4dc:	4e050000 	cdpmi	0, 0, cr0, cr5, cr0, {0}
     4e0:	00017702 	andeq	r7, r1, r2, lsl #14
     4e4:	e1174800 	tst	r7, r0, lsl #16
     4e8:	05000002 	streq	r0, [r0, #-2]
     4ec:	0839024f 	ldmdaeq	r9!, {r0, r1, r2, r3, r6, r9}
     4f0:	174c0000 	strbne	r0, [ip, -r0]
     4f4:	00000211 	andeq	r0, r0, r1, lsl r2
     4f8:	25025205 	strcs	r5, [r2, #-517]	; 0xfffffdfb
     4fc:	50000000 	andpl	r0, r0, r0
     500:	00015717 	andeq	r5, r1, r7, lsl r7
     504:	02530500 	subseq	r0, r3, #0, 10
     508:	00000107 	andeq	r0, r0, r7, lsl #2
     50c:	030b1754 	movweq	r1, #46932	; 0xb754
     510:	76050000 	strvc	r0, [r5], -r0
     514:	0007f602 	andeq	pc, r7, r2, lsl #12
     518:	c7185800 	ldrgt	r5, [r8, -r0, lsl #16]
     51c:	05000002 	streq	r0, [r0, #-2]
     520:	0294027a 	addseq	r0, r4, #-1610612729	; 0xa0000007
     524:	01480000 	mrseq	r0, (UNDEF: 72)
     528:	00024618 	andeq	r4, r2, r8, lsl r6
     52c:	027b0500 	rsbseq	r0, fp, #0, 10
     530:	00000256 	andeq	r0, r0, r6, asr r2
     534:	ce18014c 	mufgtem	f0, f0, #4.0
     538:	05000004 	streq	r0, [r0, #-4]
     53c:	084a027f 	stmdaeq	sl, {r0, r1, r2, r3, r4, r5, r6, r9}^
     540:	02dc0000 	sbcseq	r0, ip, #0
     544:	00012818 	andeq	r2, r1, r8, lsl r8
     548:	02840500 	addeq	r0, r4, #0, 10
     54c:	000005fb 	strdeq	r0, [r0], -fp
     550:	0d1802e0 	lfmeq	f0, 4, [r8, #-896]	; 0xfffffc80
     554:	05000001 	streq	r0, [r0, #-1]
     558:	08560285 	ldmdaeq	r6, {r0, r2, r7, r9}^
     55c:	02ec0000 	rsceq	r0, ip, #0
     560:	06040d00 	streq	r0, [r4], -r0, lsl #26
     564:	14000004 	strne	r0, [r0], #-4
     568:	00000025 	andeq	r0, r0, r5, lsr #32
     56c:	00000585 	andeq	r0, r0, r5, lsl #11
     570:	00042415 	andeq	r2, r4, r5, lsl r4
     574:	01051500 	tsteq	r5, r0, lsl #10
     578:	85150000 	ldrhi	r0, [r5, #-0]
     57c:	15000005 	strne	r0, [r0, #-5]
     580:	00000025 	andeq	r0, r0, r5, lsr #32
     584:	14040d00 	strne	r0, [r4], #-3328	; 0xfffff300
     588:	0d000001 	stceq	0, cr0, [r0, #-4]
     58c:	00056704 	andeq	r6, r5, r4, lsl #14
     590:	00811400 	addeq	r1, r1, r0, lsl #8
     594:	05af0000 	streq	r0, [pc, #0]!	; 59c <_start-0x7a64>
     598:	24150000 	ldrcs	r0, [r5], #-0
     59c:	15000004 	strne	r0, [r0, #-4]
     5a0:	00000105 	andeq	r0, r0, r5, lsl #2
     5a4:	00008115 	andeq	r8, r0, r5, lsl r1
     5a8:	00251500 	eoreq	r1, r5, r0, lsl #10
     5ac:	0d000000 	stceq	0, cr0, [r0, #-0]
     5b0:	00059104 	andeq	r9, r5, r4, lsl #2
     5b4:	00251400 	eoreq	r1, r5, r0, lsl #8
     5b8:	05c90000 	strbeq	r0, [r9]
     5bc:	24150000 	ldrcs	r0, [r5], #-0
     5c0:	15000004 	strne	r0, [r0, #-4]
     5c4:	00000105 	andeq	r0, r0, r5, lsl #2
     5c8:	b5040d00 	strlt	r0, [r4, #-3328]	; 0xfffff300
     5cc:	08000005 	stmdaeq	r0, {r0, r2}
     5d0:	0000004f 	andeq	r0, r0, pc, asr #32
     5d4:	000005df 	ldrdeq	r0, [r0], -pc	; <UNPREDICTABLE>
     5d8:	0000c709 	andeq	ip, r0, r9, lsl #14
     5dc:	08000200 	stmdaeq	r0, {r9}
     5e0:	0000004f 	andeq	r0, r0, pc, asr #32
     5e4:	000005ef 	andeq	r0, r0, pc, ror #11
     5e8:	0000c709 	andeq	ip, r0, r9, lsl #14
     5ec:	05000000 	streq	r0, [r0, #-0]
     5f0:	0000033a 	andeq	r0, r0, sl, lsr r3
     5f4:	dc011d05 	stcle	13, cr1, [r1], {5}
     5f8:	19000002 	stmdbne	r0, {r1}
     5fc:	000004b5 			; <UNDEFINED> instruction: 0x000004b5
     600:	0121050c 			; <UNDEFINED> instruction: 0x0121050c
     604:	00000630 	andeq	r0, r0, r0, lsr r6
     608:	00036217 	andeq	r6, r3, r7, lsl r2
     60c:	01230500 			; <UNDEFINED> instruction: 0x01230500
     610:	00000630 	andeq	r0, r0, r0, lsr r6
     614:	022c1700 	eoreq	r1, ip, #0, 14
     618:	24050000 	strcs	r0, [r5], #-0
     61c:	00002501 	andeq	r2, r0, r1, lsl #10
     620:	34170400 	ldrcc	r0, [r7], #-1024	; 0xfffffc00
     624:	05000003 	streq	r0, [r0, #-3]
     628:	06360125 	ldrteq	r0, [r6], -r5, lsr #2
     62c:	00080000 	andeq	r0, r8, r0
     630:	05fb040d 	ldrbeq	r0, [fp, #1037]!	; 0x40d
     634:	040d0000 	streq	r0, [sp], #-0
     638:	000005ef 	andeq	r0, r0, pc, ror #11
     63c:	00002f19 	andeq	r2, r0, r9, lsl pc
     640:	3d050e00 	stccc	14, cr0, [r5, #-0]
     644:	00067101 	andeq	r7, r6, r1, lsl #2
     648:	03a81700 			; <UNDEFINED> instruction: 0x03a81700
     64c:	3e050000 	cdpcc	0, 0, cr0, cr5, cr0, {0}
     650:	00067101 	andeq	r7, r6, r1, lsl #2
     654:	d5170000 	ldrle	r0, [r7, #-0]
     658:	05000003 	streq	r0, [r0, #-3]
     65c:	0671013f 			; <UNDEFINED> instruction: 0x0671013f
     660:	17060000 	strne	r0, [r6, -r0]
     664:	00000453 	andeq	r0, r0, r3, asr r4
     668:	56014005 	strpl	r4, [r1], -r5
     66c:	0c000000 	stceq	0, cr0, [r0], {-0}
     670:	00560800 	subseq	r0, r6, r0, lsl #16
     674:	06810000 	streq	r0, [r1], r0
     678:	c7090000 	strgt	r0, [r9, -r0]
     67c:	02000000 	andeq	r0, r0, #0
     680:	05d01a00 	ldrbeq	r1, [r0, #2560]	; 0xa00
     684:	07820257 			; <UNDEFINED> instruction: 0x07820257
     688:	99170000 	ldmdbls	r7, {}	; <UNPREDICTABLE>
     68c:	05000004 	streq	r0, [r0, #-4]
     690:	002c0259 	eoreq	r0, ip, r9, asr r2
     694:	17000000 	strne	r0, [r0, -r0]
     698:	0000043d 	andeq	r0, r0, sp, lsr r4
     69c:	07025a05 	streq	r5, [r2, -r5, lsl #20]
     6a0:	04000001 	streq	r0, [r0], #-1
     6a4:	00025b17 	andeq	r5, r2, r7, lsl fp
     6a8:	025b0500 	subseq	r0, fp, #0, 10
     6ac:	00000782 	andeq	r0, r0, r2, lsl #15
     6b0:	04f91708 	ldrbteq	r1, [r9], #1800	; 0x708
     6b4:	5c050000 	stcpl	0, cr0, [r5], {-0}
     6b8:	00018d02 	andeq	r8, r1, r2, lsl #26
     6bc:	c9172400 	ldmdbgt	r7, {sl, sp}
     6c0:	05000001 	streq	r0, [r0, #-1]
     6c4:	0025025d 	eoreq	r0, r5, sp, asr r2
     6c8:	17480000 	strbne	r0, [r8, -r0]
     6cc:	0000035d 	andeq	r0, r0, sp, asr r3
     6d0:	64025e05 	strvs	r5, [r2], #-3589	; 0xfffff1fb
     6d4:	50000000 	andpl	r0, r0, r0
     6d8:	00050f17 	andeq	r0, r5, r7, lsl pc
     6dc:	025f0500 	subseq	r0, pc, #0, 10
     6e0:	0000063c 	andeq	r0, r0, ip, lsr r6
     6e4:	03681758 	cmneq	r8, #88, 14	; 0x1600000
     6e8:	60050000 	andvs	r0, r5, r0
     6ec:	0000ef02 	andeq	lr, r0, r2, lsl #30
     6f0:	14176800 	ldrne	r6, [r7], #-2048	; 0xfffff800
     6f4:	05000005 	streq	r0, [r0, #-5]
     6f8:	00ef0261 	rsceq	r0, pc, r1, ror #4
     6fc:	17700000 	ldrbne	r0, [r0, -r0]!
     700:	000000a1 	andeq	r0, r0, r1, lsr #1
     704:	ef026205 	svc	0x00026205
     708:	78000000 	stmdavc	r0, {}	; <UNPREDICTABLE>
     70c:	0004c417 	andeq	ip, r4, r7, lsl r4
     710:	02630500 	rsbeq	r0, r3, #0, 10
     714:	00000792 	muleq	r0, r2, r7
     718:	024f1780 	subeq	r1, pc, #128, 14	; 0x2000000
     71c:	64050000 	strvs	r0, [r5], #-0
     720:	0007a202 	andeq	sl, r7, r2, lsl #4
     724:	60178800 	andsvs	r8, r7, r0, lsl #16
     728:	05000004 	streq	r0, [r0, #-4]
     72c:	00250265 	eoreq	r0, r5, r5, ror #4
     730:	17a00000 	strne	r0, [r0, r0]!
     734:	0000018f 	andeq	r0, r0, pc, lsl #3
     738:	ef026605 	svc	0x00026605
     73c:	a4000000 	strge	r0, [r0], #-0
     740:	00009217 	andeq	r9, r0, r7, lsl r2
     744:	02670500 	rsbeq	r0, r7, #0, 10
     748:	000000ef 	andeq	r0, r0, pc, ror #1
     74c:	017e17ac 	cmneq	lr, ip, lsr #15
     750:	68050000 	stmdavs	r5, {}	; <UNPREDICTABLE>
     754:	0000ef02 	andeq	lr, r0, r2, lsl #30
     758:	4a17b400 	bmi	5ed760 <__bss_end__+0x5e3720>
     75c:	05000000 	streq	r0, [r0, #-0]
     760:	00ef0269 	rsceq	r0, pc, r9, ror #4
     764:	17bc0000 	ldrne	r0, [ip, r0]!
     768:	00000059 	andeq	r0, r0, r9, asr r0
     76c:	ef026a05 	svc	0x00026a05
     770:	c4000000 	strgt	r0, [r0], #-0
     774:	00031017 	andeq	r1, r3, r7, lsl r0
     778:	026b0500 	rsbeq	r0, fp, #0, 10
     77c:	00000025 	andeq	r0, r0, r5, lsr #32
     780:	0d0800cc 	stceq	0, cr0, [r8, #-816]	; 0xfffffcd0
     784:	92000001 	andls	r0, r0, #1
     788:	09000007 	stmdbeq	r0, {r0, r1, r2}
     78c:	000000c7 	andeq	r0, r0, r7, asr #1
     790:	0d080019 	stceq	0, cr0, [r8, #-100]	; 0xffffff9c
     794:	a2000001 	andge	r0, r0, #1
     798:	09000007 	stmdbeq	r0, {r0, r1, r2}
     79c:	000000c7 	andeq	r0, r0, r7, asr #1
     7a0:	0d080007 	stceq	0, cr0, [r8, #-28]	; 0xffffffe4
     7a4:	b2000001 	andlt	r0, r0, #1
     7a8:	09000007 	stmdbeq	r0, {r0, r1, r2}
     7ac:	000000c7 	andeq	r0, r0, r7, asr #1
     7b0:	f01a0017 			; <UNDEFINED> instruction: 0xf01a0017
     7b4:	d6027005 	strle	r7, [r2], -r5
     7b8:	17000007 	strne	r0, [r0, -r7]
     7bc:	000002b7 			; <UNDEFINED> instruction: 0x000002b7
     7c0:	d6027305 	strle	r7, [r2], -r5, lsl #6
     7c4:	00000007 	andeq	r0, r0, r7
     7c8:	0004bb17 	andeq	fp, r4, r7, lsl fp
     7cc:	02740500 	rsbseq	r0, r4, #0, 10
     7d0:	000007e6 	andeq	r0, r0, r6, ror #15
     7d4:	d6080078 			; <UNDEFINED> instruction: 0xd6080078
     7d8:	e6000002 	str	r0, [r0], -r2
     7dc:	09000007 	stmdbeq	r0, {r0, r1, r2}
     7e0:	000000c7 	andeq	r0, r0, r7, asr #1
     7e4:	2c08001d 	stccs	0, cr0, [r8], {29}
     7e8:	f6000000 			; <UNDEFINED> instruction: 0xf6000000
     7ec:	09000007 	stmdbeq	r0, {r0, r1, r2}
     7f0:	000000c7 	andeq	r0, r0, r7, asr #1
     7f4:	f01b001d 			; <UNDEFINED> instruction: 0xf01b001d
     7f8:	18025505 	stmdane	r2, {r0, r2, r8, sl, ip, lr}
     7fc:	1c000008 	stcne	0, cr0, [r0], {8}
     800:	000003a1 	andeq	r0, r0, r1, lsr #7
     804:	81026c05 	tsthi	r2, r5, lsl #24
     808:	1c000006 	stcne	0, cr0, [r0], {6}
     80c:	000004e6 	andeq	r0, r0, r6, ror #9
     810:	b2027505 	andlt	r7, r2, #20971520	; 0x1400000
     814:	00000007 	andeq	r0, r0, r7
     818:	00010d08 	andeq	r0, r1, r8, lsl #26
     81c:	00082800 	andeq	r2, r8, r0, lsl #16
     820:	00c70900 	sbceq	r0, r7, r0, lsl #18
     824:	00180000 	andseq	r0, r8, r0
     828:	0008331d 	andeq	r3, r8, sp, lsl r3
     82c:	04241500 	strteq	r1, [r4], #-1280	; 0xfffffb00
     830:	0d000000 	stceq	0, cr0, [r0, #-0]
     834:	00082804 	andeq	r2, r8, r4, lsl #16
     838:	77040d00 	strvc	r0, [r4, -r0, lsl #26]
     83c:	1d000001 	stcne	0, cr0, [r0, #-4]
     840:	0000084a 	andeq	r0, r0, sl, asr #16
     844:	00002515 	andeq	r2, r0, r5, lsl r5
     848:	040d0000 	streq	r0, [sp], #-0
     84c:	00000850 	andeq	r0, r0, r0, asr r8
     850:	083f040d 	ldmdaeq	pc!, {r0, r2, r3, sl}	; <UNPREDICTABLE>
     854:	ef080000 	svc	0x00080000
     858:	66000005 	strvs	r0, [r0], -r5
     85c:	09000008 	stmdbeq	r0, {r3}
     860:	000000c7 	andeq	r0, r0, r7, asr #1
     864:	741e0002 	ldrvc	r0, [lr], #-2
     868:	05000004 	streq	r0, [r0, #-4]
     86c:	042402fd 	strteq	r0, [r4], #-765	; 0xfffffd03
     870:	6d1e0000 	ldcvs	0, cr0, [lr, #-0]
     874:	05000004 	streq	r0, [r0, #-4]
     878:	042a02fe 	strteq	r0, [sl], #-766	; 0xfffffd02
     87c:	25140000 	ldrcs	r0, [r4, #-0]
     880:	8d000000 	stchi	0, cr0, [r0, #-0]
     884:	15000008 	strne	r0, [r0, #-8]
     888:	00000025 	andeq	r0, r0, r5, lsr #32
     88c:	01e21f00 	mvneq	r1, r0, lsl #30
     890:	1d060000 	stcne	0, cr0, [r6, #-0]
     894:	00000898 	muleq	r0, r8, r8
     898:	087e040d 	ldmdaeq	lr!, {r0, r2, r3, sl}^
     89c:	25140000 	ldrcs	r0, [r4, #-0]
     8a0:	ad000000 	stcge	0, cr0, [r0, #-0]
     8a4:	15000008 	strne	r0, [r0, #-8]
     8a8:	00000585 	andeq	r0, r0, r5, lsl #11
     8ac:	076e1f00 	strbeq	r1, [lr, -r0, lsl #30]!
     8b0:	22060000 	andcs	r0, r6, #0
     8b4:	000008b8 			; <UNDEFINED> instruction: 0x000008b8
     8b8:	089e040d 	ldmeq	lr, {r0, r2, r3, sl}
     8bc:	42200000 	eormi	r0, r0, #0
     8c0:	01000000 	mrseq	r0, (UNDEF: 0)
     8c4:	00801005 	addeq	r1, r0, r5
     8c8:	0000d000 	andeq	sp, r0, r0
     8cc:	419c0100 	orrsmi	r0, ip, r0, lsl #2
     8d0:	2100000a 	tstcs	r0, sl
     8d4:	0a01006e 	beq	40a94 <__bss_end__+0x36a54>
     8d8:	0000002c 	andeq	r0, r0, ip, lsr #32
     8dc:	00100000 	andseq	r0, r0, r0
     8e0:	01007022 	tsteq	r0, r2, lsr #32
     8e4:	0001070d 	andeq	r0, r1, sp, lsl #14
     8e8:	00000000 	andeq	r0, r0, r0
     8ec:	021f2300 	andseq	r2, pc, #0, 6
     8f0:	0a510000 	beq	14408f8 <__bss_end__+0x14368b8>
     8f4:	03050000 	movweq	r0, #20480	; 0x5000
     8f8:	00009668 	andeq	r9, r0, r8, ror #12
     8fc:	00028a24 	andeq	r8, r2, r4, lsr #20
     900:	2c120100 	ldfcss	f0, [r2], {-0}
     904:	1e000000 	cdpne	0, 0, cr0, cr0, cr0, {0}
     908:	25000000 	strcs	r0, [r0, #-0]
     90c:	00008020 	andeq	r8, r0, r0, lsr #32
     910:	00000a56 	andeq	r0, r0, r6, asr sl
     914:	00000922 	andeq	r0, r0, r2, lsr #18
     918:	05500126 	ldrbeq	r0, [r0, #-294]	; 0xfffffeda
     91c:	00967003 	addseq	r7, r6, r3
     920:	28250000 	stmdacs	r5!, {}	; <UNPREDICTABLE>
     924:	61000080 	smlabbvs	r0, r0, r0, r0
     928:	3700000a 	strcc	r0, [r0, -sl]
     92c:	26000009 	strcs	r0, [r0], -r9
     930:	40035001 	andmi	r5, r3, r1
     934:	25002440 	strcs	r2, [r0, #-1088]	; 0xfffffbc0
     938:	00008030 	andeq	r8, r0, r0, lsr r0
     93c:	00000a6c 	andeq	r0, r0, ip, ror #20
     940:	0000094c 	andeq	r0, r0, ip, asr #18
     944:	03500126 	cmpeq	r0, #-2147483639	; 0x80000009
     948:	00244040 	eoreq	r4, r4, r0, asr #32
     94c:	00803825 	addeq	r3, r0, r5, lsr #16
     950:	000a7700 	andeq	r7, sl, r0, lsl #14
     954:	00096100 	andeq	r6, r9, r0, lsl #2
     958:	51012600 	tstpl	r1, r0, lsl #12
     95c:	24404003 	strbcs	r4, [r0], #-3
     960:	80542500 	subshi	r2, r4, r0, lsl #10
     964:	0a820000 	beq	fe08096c <__bss_end__+0xfe07692c>
     968:	09850000 	stmibeq	r5, {}	; <UNPREDICTABLE>
     96c:	01260000 			; <UNDEFINED> instruction: 0x01260000
     970:	26340150 			; <UNDEFINED> instruction: 0x26340150
     974:	75025101 	strvc	r5, [r2, #-257]	; 0xfffffeff
     978:	52012600 	andpl	r2, r1, #0, 12
     97c:	26007602 	strcs	r7, [r0], -r2, lsl #12
     980:	3d015301 	stccc	3, cr5, [r1, #-4]
     984:	80642500 	rsbhi	r2, r4, r0, lsl #10
     988:	0a8d0000 	beq	fe340990 <__bss_end__+0xfe336950>
     98c:	09a30000 	stmibeq	r3!, {}	; <UNPREDICTABLE>
     990:	01260000 			; <UNDEFINED> instruction: 0x01260000
     994:	00740250 	rsbseq	r0, r4, r0, asr r2
     998:	01510126 	cmpeq	r1, r6, lsr #2
     99c:	52012630 	andpl	r2, r1, #48, 12	; 0x3000000
     9a0:	25003401 	strcs	r3, [r0, #-1025]	; 0xfffffbff
     9a4:	00008078 	andeq	r8, r0, r8, ror r0
     9a8:	00000a98 	muleq	r0, r8, sl
     9ac:	000009c8 	andeq	r0, r0, r8, asr #19
     9b0:	02500126 	subseq	r0, r0, #-2147483639	; 0x80000009
     9b4:	01260074 			; <UNDEFINED> instruction: 0x01260074
     9b8:	00750251 	rsbseq	r0, r5, r1, asr r2
     9bc:	02520126 	subseq	r0, r2, #-2147483639	; 0x80000009
     9c0:	01260076 			; <UNDEFINED> instruction: 0x01260076
     9c4:	003f0153 	eorseq	r0, pc, r3, asr r1	; <UNPREDICTABLE>
     9c8:	00808427 	addeq	r8, r0, r7, lsr #8
     9cc:	000aa300 	andeq	sl, sl, r0, lsl #6
     9d0:	80942500 	addshi	r2, r4, r0, lsl #10
     9d4:	0a560000 	beq	15809dc <__bss_end__+0x157699c>
     9d8:	09e80000 	stmibeq	r8!, {}^	; <UNPREDICTABLE>
     9dc:	01260000 			; <UNDEFINED> instruction: 0x01260000
     9e0:	d4030550 	strle	r0, [r3], #-1360	; 0xfffffab0
     9e4:	00000096 	muleq	r0, r6, r0
     9e8:	00809c25 	addeq	r9, r0, r5, lsr #24
     9ec:	000a5600 	andeq	r5, sl, r0, lsl #12
     9f0:	0009ff00 	andeq	pc, r9, r0, lsl #30
     9f4:	50012600 	andpl	r2, r1, r0, lsl #12
     9f8:	96dc0305 	ldrbls	r0, [ip], r5, lsl #6
     9fc:	27000000 	strcs	r0, [r0, -r0]
     a00:	000080ac 	andeq	r8, r0, ip, lsr #1
     a04:	00000aae 	andeq	r0, r0, lr, lsr #21
     a08:	0080c425 	addeq	ip, r0, r5, lsr #8
     a0c:	000a5600 	andeq	r5, sl, r0, lsl #12
     a10:	000a3700 	andeq	r3, sl, r0, lsl #14
     a14:	50012600 	andpl	r2, r1, r0, lsl #12
     a18:	96980305 	ldrls	r0, [r8], r5, lsl #6
     a1c:	01260000 			; <UNDEFINED> instruction: 0x01260000
     a20:	00750251 	rsbseq	r0, r5, r1, asr r2
     a24:	02520126 	subseq	r0, r2, #-2147483639	; 0x80000009
     a28:	01260076 			; <UNDEFINED> instruction: 0x01260076
     a2c:	26440153 			; <UNDEFINED> instruction: 0x26440153
     a30:	02007d02 	andeq	r7, r0, #2, 26	; 0x80
     a34:	27000074 	smlsdxcs	r0, r4, r0, r0
     a38:	000080c8 	andeq	r8, r0, r8, asr #1
     a3c:	00000ab9 			; <UNDEFINED> instruction: 0x00000ab9
     a40:	01140800 	tsteq	r4, r0, lsl #16
     a44:	0a510000 	beq	1440a4c <__bss_end__+0x1436a0c>
     a48:	c7090000 	strgt	r0, [r9, -r0]
     a4c:	07000000 	streq	r0, [r0, -r0]
     a50:	0a410e00 	beq	1044258 <__bss_end__+0x103a218>
     a54:	ba280000 	blt	a00a5c <__bss_end__+0x9f6a1c>
     a58:	ba000006 	blt	a78 <_start-0x7588>
     a5c:	06000006 	streq	r0, [r0], -r6
     a60:	01672829 	cmneq	r7, r9, lsr #16
     a64:	01670000 	cmneq	r7, r0
     a68:	72060000 	andvc	r0, r6, #0
     a6c:	0004d828 	andeq	sp, r4, r8, lsr #16
     a70:	0004d800 	andeq	sp, r4, r0, lsl #16
     a74:	286c0600 	stmdacs	ip!, {r9, sl}^
     a78:	00000146 	andeq	r0, r0, r6, asr #2
     a7c:	00000146 	andeq	r0, r0, r6, asr #2
     a80:	81287707 			; <UNDEFINED> instruction: 0x81287707
     a84:	81000000 	mrshi	r0, (UNDEF: 0)
     a88:	07000000 	streq	r0, [r0, -r0]
     a8c:	04922874 	ldreq	r2, [r2], #2164	; 0x874
     a90:	04920000 	ldreq	r0, [r2], #0
     a94:	19080000 	stmdbne	r8, {}	; <UNPREDICTABLE>
     a98:	00027d28 	andeq	r7, r2, r8, lsr #26
     a9c:	00027d00 	andeq	r7, r2, r0, lsl #26
     aa0:	28750700 	ldmdacs	r5!, {r8, r9, sl}^
     aa4:	0000000c 	andeq	r0, r0, ip
     aa8:	0000000c 	andeq	r0, r0, ip
     aac:	fa287d07 	blx	a1fed0 <__bss_end__+0xa15e90>
     ab0:	fa000001 	blx	abc <_start-0x7544>
     ab4:	06000001 	streq	r0, [r0], -r1
     ab8:	02a1281e 	adceq	r2, r1, #1966080	; 0x1e0000
     abc:	02a10000 	adceq	r0, r1, #0
     ac0:	65060000 	strvs	r0, [r6, #-0]
     ac4:	0017c900 	andseq	ip, r7, r0, lsl #18
     ac8:	0f000400 	svceq	0x00000400
     acc:	04000002 	streq	r0, [r0], #-2
     ad0:	0003db01 	andeq	sp, r3, r1, lsl #22
     ad4:	05cb0c00 	strbeq	r0, [fp, #3072]	; 0xc00
     ad8:	00dc0000 	sbcseq	r0, ip, r0
     adc:	80e00000 	rschi	r0, r0, r0
     ae0:	08780000 	ldmdaeq	r8!, {}^	; <UNPREDICTABLE>
     ae4:	010f0000 	mrseq	r0, CPSR
     ae8:	04020000 	streq	r0, [r2], #-0
     aec:	746e6905 	strbtvc	r6, [lr], #-2309	; 0xfffff6fb
     af0:	07040300 	streq	r0, [r4, -r0, lsl #6]
     af4:	00000074 	andeq	r0, r0, r4, ror r0
     af8:	ff060103 			; <UNDEFINED> instruction: 0xff060103
     afc:	03000002 	movweq	r0, #2
     b00:	03190502 	tsteq	r9, #8388608	; 0x800000
     b04:	04030000 	streq	r0, [r3], #-0
     b08:	0000bd05 	andeq	fp, r0, r5, lsl #26
     b0c:	05080300 	streq	r0, [r8, #-768]	; 0xfffffd00
     b10:	000000b8 	strheq	r0, [r0], -r8
     b14:	00067e04 	andeq	r7, r6, r4, lsl #28
     b18:	5a2e0300 	bpl	b81720 <__bss_end__+0xb776e0>
     b1c:	03000000 	movweq	r0, #0
     b20:	02fd0801 	rscseq	r0, sp, #65536	; 0x10000
     b24:	02030000 	andeq	r0, r3, #0
     b28:	00023307 	andeq	r3, r2, r7, lsl #6
     b2c:	063c0400 	ldrteq	r0, [ip], -r0, lsl #8
     b30:	34030000 	strcc	r0, [r3], #-0
     b34:	00000073 	andeq	r0, r0, r3, ror r0
     b38:	6f070403 	svcvs	0x00070403
     b3c:	03000000 	movweq	r0, #0
     b40:	006a0708 	rsbeq	r0, sl, r8, lsl #14
     b44:	eb040000 	bl	100b4c <__bss_end__+0xf6b0c>
     b48:	04000002 	streq	r0, [r0], #-2
     b4c:	00002507 	andeq	r2, r0, r7, lsl #10
     b50:	02da0400 	sbcseq	r0, sl, #0, 8
     b54:	2c050000 	stccs	0, cr0, [r5], {-0}
     b58:	00000041 	andeq	r0, r0, r1, asr #32
     b5c:	0003c404 	andeq	ip, r3, r4, lsl #8
     b60:	41720500 	cmnmi	r2, r0, lsl #10
     b64:	05000000 	streq	r0, [r0, #-0]
     b68:	00000276 	andeq	r0, r0, r6, ror r2
     b6c:	2c016506 	cfstr32cs	mvfx6, [r1], {6}
     b70:	06000000 	streq	r0, [r0], -r0
     b74:	cda60504 	cfstr32gt	mvfx0, [r6, #16]!
     b78:	07000000 	streq	r0, [r0, -r0]
     b7c:	00000270 	andeq	r0, r0, r0, ror r2
     b80:	00a2a805 	adceq	sl, r2, r5, lsl #16
     b84:	f3070000 	vhadd.u8	d0, d7, d0
     b88:	05000001 	streq	r0, [r0, #-1]
     b8c:	0000cda9 	andeq	ip, r0, r9, lsr #27
     b90:	5a080000 	bpl	200b98 <__bss_end__+0x1f6b58>
     b94:	dd000000 	stcle	0, cr0, [r0, #-0]
     b98:	09000000 	stmdbeq	r0, {}	; <UNPREDICTABLE>
     b9c:	000000dd 	ldrdeq	r0, [r0], -sp
     ba0:	04030003 	streq	r0, [r3], #-3
     ba4:	0002ae07 	andeq	sl, r2, r7, lsl #28
     ba8:	05080a00 	streq	r0, [r8, #-2560]	; 0xfffff600
     bac:	000105a3 	andeq	r0, r1, r3, lsr #11
     bb0:	03ae0b00 			; <UNDEFINED> instruction: 0x03ae0b00
     bb4:	a5050000 	strge	r0, [r5, #-0]
     bb8:	00000025 	andeq	r0, r0, r5, lsr #32
     bbc:	03b60b00 			; <UNDEFINED> instruction: 0x03b60b00
     bc0:	aa050000 	bge	140bc8 <__bss_end__+0x136b88>
     bc4:	000000ae 	andeq	r0, r0, lr, lsr #1
     bc8:	41040004 	tstmi	r4, r4
     bcc:	05000003 	streq	r0, [r0, #-3]
     bd0:	0000e4ab 	andeq	lr, r0, fp, lsr #9
     bd4:	01b00400 	lslseq	r0, r0, #8
     bd8:	af050000 	svcge	0x00050000
     bdc:	00000081 	andeq	r0, r0, r1, lsl #1
     be0:	040d040c 	streq	r0, [sp], #-1036	; 0xfffffbf4
     be4:	00000123 	andeq	r0, r0, r3, lsr #2
     be8:	06080103 	streq	r0, [r8], -r3, lsl #2
     bec:	0e000003 	cdpeq	0, 0, cr0, cr0, cr3, {0}
     bf0:	00000123 	andeq	r0, r0, r3, lsr #2
     bf4:	00045804 	andeq	r5, r4, r4, lsl #16
     bf8:	73160700 	tstvc	r6, #0, 14
     bfc:	0f000000 	svceq	0x00000000
     c00:	000001c1 	andeq	r0, r0, r1, asr #3
     c04:	8d2d0718 	stchi	7, cr0, [sp, #-96]!	; 0xffffffa0
     c08:	0b000001 	bleq	c14 <_start-0x73ec>
     c0c:	00000362 	andeq	r0, r0, r2, ror #6
     c10:	018d2f07 	orreq	r2, sp, r7, lsl #30
     c14:	10000000 	andne	r0, r0, r0
     c18:	07006b5f 	smlsdeq	r0, pc, fp, r6	; <UNPREDICTABLE>
     c1c:	00002530 	andeq	r2, r0, r0, lsr r5
     c20:	990b0400 	stmdbls	fp, {sl}
     c24:	07000003 	streq	r0, [r0, -r3]
     c28:	00002530 	andeq	r2, r0, r0, lsr r5
     c2c:	aa0b0800 	bge	2c2c34 <__bss_end__+0x2b8bf4>
     c30:	07000001 	streq	r0, [r0, -r1]
     c34:	00002530 	andeq	r2, r0, r0, lsr r5
     c38:	a60b0c00 	strge	r0, [fp], -r0, lsl #24
     c3c:	07000004 	streq	r0, [r0, -r4]
     c40:	00002530 	andeq	r2, r0, r0, lsr r5
     c44:	5f101000 	svcpl	0x00101000
     c48:	31070078 	tstcc	r7, r8, ror r0
     c4c:	00000193 	muleq	r0, r3, r1
     c50:	040d0014 	streq	r0, [sp], #-20	; 0xffffffec
     c54:	0000013a 	andeq	r0, r0, sl, lsr r1
     c58:	00012f08 	andeq	r2, r1, r8, lsl #30
     c5c:	0001a300 	andeq	sl, r1, r0, lsl #6
     c60:	00dd0900 	sbcseq	r0, sp, r0, lsl #18
     c64:	00000000 	andeq	r0, r0, r0
     c68:	0001ee0f 	andeq	lr, r1, pc, lsl #28
     c6c:	35072400 	strcc	r2, [r7, #-1024]	; 0xfffffc00
     c70:	0000021c 	andeq	r0, r0, ip, lsl r2
     c74:	0000af0b 	andeq	sl, r0, fp, lsl #30
     c78:	25370700 	ldrcs	r0, [r7, #-1792]!	; 0xfffff900
     c7c:	00000000 	andeq	r0, r0, r0
     c80:	0003cc0b 	andeq	ip, r3, fp, lsl #24
     c84:	25380700 	ldrcs	r0, [r8, #-1792]!	; 0xfffff900
     c88:	04000000 	streq	r0, [r0], #-0
     c8c:	0000d20b 	andeq	sp, r0, fp, lsl #4
     c90:	25390700 	ldrcs	r0, [r9, #-1792]!	; 0xfffff900
     c94:	08000000 	stmdaeq	r0, {}	; <UNPREDICTABLE>
     c98:	0005270b 	andeq	r2, r5, fp, lsl #14
     c9c:	253a0700 	ldrcs	r0, [sl, #-1792]!	; 0xfffff900
     ca0:	0c000000 	stceq	0, cr0, [r0], {-0}
     ca4:	0002be0b 	andeq	fp, r2, fp, lsl #28
     ca8:	253b0700 	ldrcs	r0, [fp, #-1792]!	; 0xfffff900
     cac:	10000000 	andne	r0, r0, r0
     cb0:	0002970b 	andeq	r9, r2, fp, lsl #14
     cb4:	253c0700 	ldrcs	r0, [ip, #-1792]!	; 0xfffff900
     cb8:	14000000 	strne	r0, [r0], #-0
     cbc:	0004ab0b 	andeq	sl, r4, fp, lsl #22
     cc0:	253d0700 	ldrcs	r0, [sp, #-1792]!	; 0xfffff900
     cc4:	18000000 	stmdane	r0, {}	; <UNPREDICTABLE>
     cc8:	0003230b 	andeq	r2, r3, fp, lsl #6
     ccc:	253e0700 	ldrcs	r0, [lr, #-1792]!	; 0xfffff900
     cd0:	1c000000 	stcne	0, cr0, [r0], {-0}
     cd4:	0004ee0b 	andeq	lr, r4, fp, lsl #28
     cd8:	253f0700 	ldrcs	r0, [pc, #-1792]!	; 5e0 <_start-0x7a20>
     cdc:	20000000 	andcs	r0, r0, r0
     ce0:	01121100 	tsteq	r2, r0, lsl #2
     ce4:	01080000 	mrseq	r0, (UNDEF: 8)
     ce8:	025c4807 	subseq	r4, ip, #458752	; 0x70000
     cec:	9d0b0000 	stcls	0, cr0, [fp, #-0]
     cf0:	07000001 	streq	r0, [r0, -r1]
     cf4:	00025c49 	andeq	r5, r2, r9, asr #24
     cf8:	000b0000 	andeq	r0, fp, r0
     cfc:	07000000 	streq	r0, [r0, -r0]
     d00:	00025c4a 	andeq	r5, r2, sl, asr #24
     d04:	4a128000 	bmi	4a0d0c <__bss_end__+0x496ccc>
     d08:	07000004 	streq	r0, [r0, -r4]
     d0c:	00012f4c 	andeq	r2, r1, ip, asr #30
     d10:	12010000 	andne	r0, r1, #0
     d14:	00000137 	andeq	r0, r0, r7, lsr r1
     d18:	012f4f07 			; <UNDEFINED> instruction: 0x012f4f07
     d1c:	01040000 	mrseq	r0, (UNDEF: 4)
     d20:	011b0800 	tsteq	fp, r0, lsl #16
     d24:	026c0000 	rsbeq	r0, ip, #0
     d28:	dd090000 	stcle	0, cr0, [r9, #-0]
     d2c:	1f000000 	svcne	0x00000000
     d30:	02c71100 	sbceq	r1, r7, #0, 2
     d34:	01900000 	orrseq	r0, r0, r0
     d38:	02aa5b07 	adceq	r5, sl, #7168	; 0x1c00
     d3c:	620b0000 	andvs	r0, fp, #0
     d40:	07000003 	streq	r0, [r0, -r3]
     d44:	0002aa5c 	andeq	sl, r2, ip, asr sl
     d48:	7a0b0000 	bvc	2c0d50 <__bss_end__+0x2b6d10>
     d4c:	07000003 	streq	r0, [r0, -r3]
     d50:	0000255d 	andeq	r2, r0, sp, asr r5
     d54:	a50b0400 	strge	r0, [fp, #-1024]	; 0xfffffc00
     d58:	07000001 	streq	r0, [r0, -r1]
     d5c:	0002b05f 	andeq	fp, r2, pc, asr r0
     d60:	120b0800 	andne	r0, fp, #0, 16
     d64:	07000001 	streq	r0, [r0, -r1]
     d68:	00021c60 	andeq	r1, r2, r0, ror #24
     d6c:	0d008800 	stceq	8, cr8, [r0, #-0]
     d70:	00026c04 	andeq	r6, r2, r4, lsl #24
     d74:	02c00800 	sbceq	r0, r0, #0, 16
     d78:	02c00000 	sbceq	r0, r0, #0
     d7c:	dd090000 	stcle	0, cr0, [r9, #-0]
     d80:	1f000000 	svcne	0x00000000
     d84:	c6040d00 	strgt	r0, [r4], -r0, lsl #26
     d88:	13000002 	movwne	r0, #2
     d8c:	00032d0f 	andeq	r2, r3, pc, lsl #26
     d90:	73070800 	movwvc	r0, #30720	; 0x7800
     d94:	000002ec 	andeq	r0, r0, ip, ror #5
     d98:	0000cc0b 	andeq	ip, r0, fp, lsl #24
     d9c:	ec740700 	ldcl	7, cr0, [r4], #-0
     da0:	00000002 	andeq	r0, r0, r2
     da4:	00001b0b 	andeq	r1, r0, fp, lsl #22
     da8:	25750700 	ldrbcs	r0, [r5, #-1792]!	; 0xfffff900
     dac:	04000000 	streq	r0, [r0], #-0
     db0:	5a040d00 	bpl	1041b8 <__bss_end__+0xfa178>
     db4:	0f000000 	svceq	0x00000000
     db8:	0000034c 	andeq	r0, r0, ip, asr #6
     dbc:	1cb30768 	ldcne	7, cr0, [r3], #416	; 0x1a0
     dc0:	10000004 	andne	r0, r0, r4
     dc4:	0700705f 	smlsdeq	r0, pc, r0, r7	; <UNPREDICTABLE>
     dc8:	0002ecb4 			; <UNDEFINED> instruction: 0x0002ecb4
     dcc:	5f100000 	svcpl	0x00100000
     dd0:	b5070072 	strlt	r0, [r7, #-114]	; 0xffffff8e
     dd4:	00000025 	andeq	r0, r0, r5, lsr #32
     dd8:	775f1004 	ldrbvc	r1, [pc, -r4]
     ddc:	25b60700 	ldrcs	r0, [r6, #1792]!	; 0x700
     de0:	08000000 	stmdaeq	r0, {}	; <UNPREDICTABLE>
     de4:	0001300b 	andeq	r3, r1, fp
     de8:	3ab70700 	bcc	fedc29f0 <__bss_end__+0xfedb89b0>
     dec:	0c000000 	stceq	0, cr0, [r0], {-0}
     df0:	0002190b 	andeq	r1, r2, fp, lsl #18
     df4:	3ab80700 	bcc	fee029fc <__bss_end__+0xfedf89bc>
     df8:	0e000000 	cdpeq	0, 0, cr0, cr0, cr0, {0}
     dfc:	66625f10 	uqadd16vs	r5, r2, r0
     e00:	c7b90700 	ldrgt	r0, [r9, r0, lsl #14]!
     e04:	10000002 	andne	r0, r0, r2
     e08:	0000890b 	andeq	r8, r0, fp, lsl #18
     e0c:	25ba0700 	ldrcs	r0, [sl, #1792]!	; 0x700
     e10:	18000000 	stmdane	r0, {}	; <UNPREDICTABLE>
     e14:	0001200b 	andeq	r2, r1, fp
     e18:	1bc10700 	blne	ff042a20 <__bss_end__+0xff0389e0>
     e1c:	1c000001 	stcne	0, cr0, [r0], {1}
     e20:	000a7d0b 	andeq	r7, sl, fp, lsl #26
     e24:	77c30700 	strbvc	r0, [r3, r0, lsl #14]
     e28:	20000005 	andcs	r0, r0, r5
     e2c:	0006110b 	andeq	r1, r6, fp, lsl #2
     e30:	a1c50700 	bicge	r0, r5, r0, lsl #14
     e34:	24000005 	strcs	r0, [r0], #-5
     e38:	0003be0b 	andeq	fp, r3, fp, lsl #28
     e3c:	c5c80700 	strbgt	r0, [r8, #1792]	; 0x700
     e40:	28000005 	stmdacs	r0, {r0, r2}
     e44:	0005080b 	andeq	r0, r5, fp, lsl #16
     e48:	dfc90700 	svcle	0x00c90700
     e4c:	2c000005 	stccs	0, cr0, [r0], {5}
     e50:	62755f10 	rsbsvs	r5, r5, #16, 30	; 0x40
     e54:	c7cc0700 	strbgt	r0, [ip, r0, lsl #14]
     e58:	30000002 	andcc	r0, r0, r2
     e5c:	70755f10 	rsbsvc	r5, r5, r0, lsl pc
     e60:	eccd0700 	stcl	7, cr0, [sp], {0}
     e64:	38000002 	stmdacc	r0, {r1}
     e68:	72755f10 	rsbsvc	r5, r5, #16, 30	; 0x40
     e6c:	25ce0700 	strbcs	r0, [lr, #1792]	; 0x700
     e70:	3c000000 	stccc	0, cr0, [r0], {-0}
     e74:	0000c60b 	andeq	ip, r0, fp, lsl #12
     e78:	e5d10700 	ldrb	r0, [r1, #1792]	; 0x700
     e7c:	40000005 	andmi	r0, r0, r5
     e80:	0004e00b 	andeq	lr, r4, fp
     e84:	f5d20700 			; <UNDEFINED> instruction: 0xf5d20700
     e88:	43000005 	movwmi	r0, #5
     e8c:	626c5f10 	rsbvs	r5, ip, #16, 30	; 0x40
     e90:	c7d50700 	ldrbgt	r0, [r5, r0, lsl #14]
     e94:	44000002 	strmi	r0, [r0], #-2
     e98:	00014e0b 	andeq	r4, r1, fp, lsl #28
     e9c:	25d80700 	ldrbcs	r0, [r8, #1792]	; 0x700
     ea0:	4c000000 	stcmi	0, cr0, [r0], {-0}
     ea4:	00015f0b 	andeq	r5, r1, fp, lsl #30
     ea8:	8cd90700 	ldclhi	7, cr0, [r9], {0}
     eac:	50000000 	andpl	r0, r0, r0
     eb0:	000a1e0b 	andeq	r1, sl, fp, lsl #28
     eb4:	3adc0700 	bcc	ff702abc <__bss_end__+0xff6f8a7c>
     eb8:	54000004 	strpl	r0, [r0], #-4
     ebc:	0002840b 	andeq	r8, r2, fp, lsl #8
     ec0:	10e00700 	rscne	r0, r0, r0, lsl #14
     ec4:	58000001 	stmdapl	r0, {r0}
     ec8:	0003540b 	andeq	r5, r3, fp, lsl #8
     ecc:	05e20700 	strbeq	r0, [r2, #1792]!	; 0x700
     ed0:	5c000001 	stcpl	0, cr0, [r0], {1}
     ed4:	00028f0b 	andeq	r8, r2, fp, lsl #30
     ed8:	25e30700 	strbcs	r0, [r3, #1792]!	; 0x700
     edc:	64000000 	strvs	r0, [r0], #-0
     ee0:	00251400 	eoreq	r1, r5, r0, lsl #8
     ee4:	043a0000 	ldrteq	r0, [sl], #-0
     ee8:	3a150000 	bcc	540ef0 <__bss_end__+0x536eb0>
     eec:	15000004 	strne	r0, [r0, #-4]
     ef0:	0000011b 	andeq	r0, r0, fp, lsl r1
     ef4:	00011d15 	andeq	r1, r1, r5, lsl sp
     ef8:	00251500 	eoreq	r1, r5, r0, lsl #10
     efc:	0d000000 	stceq	0, cr0, [r0, #-0]
     f00:	00044504 	andeq	r4, r4, r4, lsl #10
     f04:	043a0e00 	ldrteq	r0, [sl], #-3584	; 0xfffff200
     f08:	a1160000 	tstge	r6, r0
     f0c:	28000003 	stmdacs	r0, {r0, r1}
     f10:	02380704 	eorseq	r0, r8, #4, 14	; 0x100000
     f14:	00000577 	andeq	r0, r0, r7, ror r5
     f18:	00031217 	andeq	r1, r3, r7, lsl r2
     f1c:	023a0700 	eorseq	r0, sl, #0, 14
     f20:	00000025 	andeq	r0, r0, r5, lsr #32
     f24:	013f1700 	teqeq	pc, r0, lsl #14
     f28:	3f070000 	svccc	0x00070000
     f2c:	00064c02 	andeq	r4, r6, r2, lsl #24
     f30:	09170400 	ldmdbeq	r7, {sl}
     f34:	07000002 	streq	r0, [r0, -r2]
     f38:	064c023f 			; <UNDEFINED> instruction: 0x064c023f
     f3c:	17080000 	strne	r0, [r8, -r0]
     f40:	000001b9 			; <UNDEFINED> instruction: 0x000001b9
     f44:	4c023f07 	stcmi	15, cr3, [r2], {7}
     f48:	0c000006 	stceq	0, cr0, [r0], {6}
     f4c:	00037517 	andeq	r7, r3, r7, lsl r5
     f50:	02410700 	subeq	r0, r1, #0, 14
     f54:	00000025 	andeq	r0, r0, r5, lsr #32
     f58:	00371710 	eorseq	r1, r7, r0, lsl r7
     f5c:	42070000 	andmi	r0, r7, #0
     f60:	00082e02 	andeq	r2, r8, r2, lsl #28
     f64:	80171400 	andshi	r1, r7, r0, lsl #8
     f68:	07000004 	streq	r0, [r0, -r4]
     f6c:	00250244 	eoreq	r0, r5, r4, asr #4
     f70:	17300000 	ldrne	r0, [r0, -r0]!
     f74:	0000037f 	andeq	r0, r0, pc, ror r3
     f78:	9b024507 	blls	9239c <__bss_end__+0x8835c>
     f7c:	34000005 	strcc	r0, [r0], #-5
     f80:	0002cf17 	andeq	ip, r2, r7, lsl pc
     f84:	02470700 	subeq	r0, r7, #0, 14
     f88:	00000025 	andeq	r0, r0, r5, lsr #32
     f8c:	038f1738 	orreq	r1, pc, #56, 14	; 0xe00000
     f90:	49070000 	stmdbmi	r7, {}	; <UNPREDICTABLE>
     f94:	00084902 	andeq	r4, r8, r2, lsl #18
     f98:	68173c00 	ldmdavs	r7, {sl, fp, ip, sp}
     f9c:	07000002 	streq	r0, [r0, -r2]
     fa0:	018d024c 	orreq	r0, sp, ip, asr #4
     fa4:	17400000 	strbne	r0, [r0, -r0]
     fa8:	000001d8 	ldrdeq	r0, [r0], -r8
     fac:	25024d07 	strcs	r4, [r2, #-3335]	; 0xfffff2f9
     fb0:	44000000 	strmi	r0, [r0], #-0
     fb4:	00052217 	andeq	r2, r5, r7, lsl r2
     fb8:	024e0700 	subeq	r0, lr, #0, 14
     fbc:	0000018d 	andeq	r0, r0, sp, lsl #3
     fc0:	02e11748 	rsceq	r1, r1, #72, 14	; 0x1200000
     fc4:	4f070000 	svcmi	0x00070000
     fc8:	00084f02 	andeq	r4, r8, r2, lsl #30
     fcc:	11174c00 	tstne	r7, r0, lsl #24
     fd0:	07000002 	streq	r0, [r0, -r2]
     fd4:	00250252 	eoreq	r0, r5, r2, asr r2
     fd8:	17500000 	ldrbne	r0, [r0, -r0]
     fdc:	00000157 	andeq	r0, r0, r7, asr r1
     fe0:	1d025307 	stcne	3, cr5, [r2, #-28]	; 0xffffffe4
     fe4:	54000001 	strpl	r0, [r0], #-1
     fe8:	00030b17 	andeq	r0, r3, r7, lsl fp
     fec:	02760700 	rsbseq	r0, r6, #0, 14
     ff0:	0000080c 	andeq	r0, r0, ip, lsl #16
     ff4:	02c71858 	sbceq	r1, r7, #88, 16	; 0x580000
     ff8:	7a070000 	bvc	1c1000 <__bss_end__+0x1b6fc0>
     ffc:	0002aa02 	andeq	sl, r2, r2, lsl #20
    1000:	18014800 	stmdane	r1, {fp, lr}
    1004:	00000246 	andeq	r0, r0, r6, asr #4
    1008:	6c027b07 			; <UNDEFINED> instruction: 0x6c027b07
    100c:	4c000002 	stcmi	0, cr0, [r0], {2}
    1010:	04ce1801 	strbeq	r1, [lr], #2049	; 0x801
    1014:	7f070000 	svcvc	0x00070000
    1018:	00086002 	andeq	r6, r8, r2
    101c:	1802dc00 	stmdane	r2, {sl, fp, ip, lr, pc}
    1020:	00000128 	andeq	r0, r0, r8, lsr #2
    1024:	11028407 	tstne	r2, r7, lsl #8
    1028:	e0000006 	and	r0, r0, r6
    102c:	010d1802 	tsteq	sp, r2, lsl #16
    1030:	85070000 	strhi	r0, [r7, #-0]
    1034:	00086c02 	andeq	r6, r8, r2, lsl #24
    1038:	0002ec00 	andeq	lr, r2, r0, lsl #24
    103c:	041c040d 	ldreq	r0, [ip], #-1037	; 0xfffffbf3
    1040:	25140000 	ldrcs	r0, [r4, #-0]
    1044:	9b000000 	blls	104c <_start-0x6fb4>
    1048:	15000005 	strne	r0, [r0, #-5]
    104c:	0000043a 	andeq	r0, r0, sl, lsr r4
    1050:	00011b15 	andeq	r1, r1, r5, lsl fp
    1054:	059b1500 	ldreq	r1, [fp, #1280]	; 0x500
    1058:	25150000 	ldrcs	r0, [r5, #-0]
    105c:	00000000 	andeq	r0, r0, r0
    1060:	012a040d 			; <UNDEFINED> instruction: 0x012a040d
    1064:	040d0000 	streq	r0, [sp], #-0
    1068:	0000057d 	andeq	r0, r0, sp, ror r5
    106c:	00009714 	andeq	r9, r0, r4, lsl r7
    1070:	0005c500 	andeq	ip, r5, r0, lsl #10
    1074:	043a1500 	ldrteq	r1, [sl], #-1280	; 0xfffffb00
    1078:	1b150000 	blne	541080 <__bss_end__+0x537040>
    107c:	15000001 	strne	r0, [r0, #-1]
    1080:	00000097 	muleq	r0, r7, r0
    1084:	00002515 	andeq	r2, r0, r5, lsl r5
    1088:	040d0000 	streq	r0, [sp], #-0
    108c:	000005a7 	andeq	r0, r0, r7, lsr #11
    1090:	00002514 	andeq	r2, r0, r4, lsl r5
    1094:	0005df00 	andeq	sp, r5, r0, lsl #30
    1098:	043a1500 	ldrteq	r1, [sl], #-1280	; 0xfffffb00
    109c:	1b150000 	blne	5410a4 <__bss_end__+0x537064>
    10a0:	00000001 	andeq	r0, r0, r1
    10a4:	05cb040d 	strbeq	r0, [fp, #1037]	; 0x40d
    10a8:	5a080000 	bpl	2010b0 <__bss_end__+0x1f7070>
    10ac:	f5000000 			; <UNDEFINED> instruction: 0xf5000000
    10b0:	09000005 	stmdbeq	r0, {r0, r2}
    10b4:	000000dd 	ldrdeq	r0, [r0], -sp
    10b8:	5a080002 	bpl	2010c8 <__bss_end__+0x1f7088>
    10bc:	05000000 	streq	r0, [r0, #-0]
    10c0:	09000006 	stmdbeq	r0, {r1, r2}
    10c4:	000000dd 	ldrdeq	r0, [r0], -sp
    10c8:	3a050000 	bcc	1410d0 <__bss_end__+0x137090>
    10cc:	07000003 	streq	r0, [r0, -r3]
    10d0:	02f2011d 	rscseq	r0, r2, #1073741831	; 0x40000007
    10d4:	b5190000 	ldrlt	r0, [r9, #-0]
    10d8:	0c000004 	stceq	0, cr0, [r0], {4}
    10dc:	46012107 	strmi	r2, [r1], -r7, lsl #2
    10e0:	17000006 	strne	r0, [r0, -r6]
    10e4:	00000362 	andeq	r0, r0, r2, ror #6
    10e8:	46012307 	strmi	r2, [r1], -r7, lsl #6
    10ec:	00000006 	andeq	r0, r0, r6
    10f0:	00022c17 	andeq	r2, r2, r7, lsl ip
    10f4:	01240700 			; <UNDEFINED> instruction: 0x01240700
    10f8:	00000025 	andeq	r0, r0, r5, lsr #32
    10fc:	03341704 	teqeq	r4, #4, 14	; 0x100000
    1100:	25070000 	strcs	r0, [r7, #-0]
    1104:	00064c01 	andeq	r4, r6, r1, lsl #24
    1108:	0d000800 	stceq	8, cr0, [r0, #-0]
    110c:	00061104 	andeq	r1, r6, r4, lsl #2
    1110:	05040d00 	streq	r0, [r4, #-3328]	; 0xfffff300
    1114:	19000006 	stmdbne	r0, {r1, r2}
    1118:	0000002f 	andeq	r0, r0, pc, lsr #32
    111c:	013d070e 	teqeq	sp, lr, lsl #14
    1120:	00000687 	andeq	r0, r0, r7, lsl #13
    1124:	0003a817 	andeq	sl, r3, r7, lsl r8
    1128:	013e0700 	teqeq	lr, r0, lsl #14
    112c:	00000687 	andeq	r0, r0, r7, lsl #13
    1130:	03d51700 	bicseq	r1, r5, #0, 14
    1134:	3f070000 	svccc	0x00070000
    1138:	00068701 	andeq	r8, r6, r1, lsl #14
    113c:	53170600 	tstpl	r7, #0, 12
    1140:	07000004 	streq	r0, [r0, -r4]
    1144:	00610140 	rsbeq	r0, r1, r0, asr #2
    1148:	000c0000 	andeq	r0, ip, r0
    114c:	00006108 	andeq	r6, r0, r8, lsl #2
    1150:	00069700 	andeq	r9, r6, r0, lsl #14
    1154:	00dd0900 	sbcseq	r0, sp, r0, lsl #18
    1158:	00020000 	andeq	r0, r2, r0
    115c:	5707d01a 	smladpl	r7, sl, r0, sp
    1160:	00079802 	andeq	r9, r7, r2, lsl #16
    1164:	04991700 	ldreq	r1, [r9], #1792	; 0x700
    1168:	59070000 	stmdbpl	r7, {}	; <UNPREDICTABLE>
    116c:	00002c02 	andeq	r2, r0, r2, lsl #24
    1170:	3d170000 	ldccc	0, cr0, [r7, #-0]
    1174:	07000004 	streq	r0, [r0, -r4]
    1178:	011d025a 	tsteq	sp, sl, asr r2
    117c:	17040000 	strne	r0, [r4, -r0]
    1180:	0000025b 	andeq	r0, r0, fp, asr r2
    1184:	98025b07 	stmdals	r2, {r0, r1, r2, r8, r9, fp, ip, lr}
    1188:	08000007 	stmdaeq	r0, {r0, r1, r2}
    118c:	0004f917 	andeq	pc, r4, r7, lsl r9	; <UNPREDICTABLE>
    1190:	025c0700 	subseq	r0, ip, #0, 14
    1194:	000001a3 	andeq	r0, r0, r3, lsr #3
    1198:	01c91724 	biceq	r1, r9, r4, lsr #14
    119c:	5d070000 	stcpl	0, cr0, [r7, #-0]
    11a0:	00002502 	andeq	r2, r0, r2, lsl #10
    11a4:	5d174800 	ldcpl	8, cr4, [r7, #-0]
    11a8:	07000003 	streq	r0, [r0, -r3]
    11ac:	007a025e 	rsbseq	r0, sl, lr, asr r2
    11b0:	17500000 	ldrbne	r0, [r0, -r0]
    11b4:	0000050f 	andeq	r0, r0, pc, lsl #10
    11b8:	52025f07 	andpl	r5, r2, #7, 30
    11bc:	58000006 	stmdapl	r0, {r1, r2}
    11c0:	00036817 	andeq	r6, r3, r7, lsl r8
    11c4:	02600700 	rsbeq	r0, r0, #0, 14
    11c8:	00000105 	andeq	r0, r0, r5, lsl #2
    11cc:	05141768 	ldreq	r1, [r4, #-1896]	; 0xfffff898
    11d0:	61070000 	mrsvs	r0, (UNDEF: 7)
    11d4:	00010502 	andeq	r0, r1, r2, lsl #10
    11d8:	a1177000 	tstge	r7, r0
    11dc:	07000000 	streq	r0, [r0, -r0]
    11e0:	01050262 	tsteq	r5, r2, ror #4
    11e4:	17780000 	ldrbne	r0, [r8, -r0]!
    11e8:	000004c4 	andeq	r0, r0, r4, asr #9
    11ec:	a8026307 	stmdage	r2, {r0, r1, r2, r8, r9, sp, lr}
    11f0:	80000007 	andhi	r0, r0, r7
    11f4:	00024f17 	andeq	r4, r2, r7, lsl pc
    11f8:	02640700 	rsbeq	r0, r4, #0, 14
    11fc:	000007b8 			; <UNDEFINED> instruction: 0x000007b8
    1200:	04601788 	strbteq	r1, [r0], #-1928	; 0xfffff878
    1204:	65070000 	strvs	r0, [r7, #-0]
    1208:	00002502 	andeq	r2, r0, r2, lsl #10
    120c:	8f17a000 	svchi	0x0017a000
    1210:	07000001 	streq	r0, [r0, -r1]
    1214:	01050266 	tsteq	r5, r6, ror #4
    1218:	17a40000 	strne	r0, [r4, r0]!
    121c:	00000092 	muleq	r0, r2, r0
    1220:	05026707 	streq	r6, [r2, #-1799]	; 0xfffff8f9
    1224:	ac000001 	stcge	0, cr0, [r0], {1}
    1228:	00017e17 	andeq	r7, r1, r7, lsl lr
    122c:	02680700 	rsbeq	r0, r8, #0, 14
    1230:	00000105 	andeq	r0, r0, r5, lsl #2
    1234:	004a17b4 	strheq	r1, [sl], #-116	; 0xffffff8c
    1238:	69070000 	stmdbvs	r7, {}	; <UNPREDICTABLE>
    123c:	00010502 	andeq	r0, r1, r2, lsl #10
    1240:	5917bc00 	ldmdbpl	r7, {sl, fp, ip, sp, pc}
    1244:	07000000 	streq	r0, [r0, -r0]
    1248:	0105026a 	tsteq	r5, sl, ror #4
    124c:	17c40000 	strbne	r0, [r4, r0]
    1250:	00000310 	andeq	r0, r0, r0, lsl r3
    1254:	25026b07 	strcs	r6, [r2, #-2823]	; 0xfffff4f9
    1258:	cc000000 	stcgt	0, cr0, [r0], {-0}
    125c:	01230800 			; <UNDEFINED> instruction: 0x01230800
    1260:	07a80000 	streq	r0, [r8, r0]!
    1264:	dd090000 	stcle	0, cr0, [r9, #-0]
    1268:	19000000 	stmdbne	r0, {}	; <UNPREDICTABLE>
    126c:	01230800 			; <UNDEFINED> instruction: 0x01230800
    1270:	07b80000 	ldreq	r0, [r8, r0]!
    1274:	dd090000 	stcle	0, cr0, [r9, #-0]
    1278:	07000000 	streq	r0, [r0, -r0]
    127c:	01230800 			; <UNDEFINED> instruction: 0x01230800
    1280:	07c80000 	strbeq	r0, [r8, r0]
    1284:	dd090000 	stcle	0, cr0, [r9, #-0]
    1288:	17000000 	strne	r0, [r0, -r0]
    128c:	07f01a00 	ldrbeq	r1, [r0, r0, lsl #20]!
    1290:	07ec0270 			; <UNDEFINED> instruction: 0x07ec0270
    1294:	b7170000 	ldrlt	r0, [r7, -r0]
    1298:	07000002 	streq	r0, [r0, -r2]
    129c:	07ec0273 			; <UNDEFINED> instruction: 0x07ec0273
    12a0:	17000000 	strne	r0, [r0, -r0]
    12a4:	000004bb 			; <UNDEFINED> instruction: 0x000004bb
    12a8:	fc027407 	stc2	4, cr7, [r2], {7}
    12ac:	78000007 	stmdavc	r0, {r0, r1, r2}
    12b0:	02ec0800 	rsceq	r0, ip, #0, 16
    12b4:	07fc0000 	ldrbeq	r0, [ip, r0]!
    12b8:	dd090000 	stcle	0, cr0, [r9, #-0]
    12bc:	1d000000 	stcne	0, cr0, [r0, #-0]
    12c0:	002c0800 	eoreq	r0, ip, r0, lsl #16
    12c4:	080c0000 	stmdaeq	ip, {}	; <UNPREDICTABLE>
    12c8:	dd090000 	stcle	0, cr0, [r9, #-0]
    12cc:	1d000000 	stcne	0, cr0, [r0, #-0]
    12d0:	07f01b00 	ldrbeq	r1, [r0, r0, lsl #22]!
    12d4:	082e0255 	stmdaeq	lr!, {r0, r2, r4, r6, r9}
    12d8:	a11c0000 	tstge	ip, r0
    12dc:	07000003 	streq	r0, [r0, -r3]
    12e0:	0697026c 	ldreq	r0, [r7], ip, ror #4
    12e4:	e61c0000 	ldr	r0, [ip], -r0
    12e8:	07000004 	streq	r0, [r0, -r4]
    12ec:	07c80275 			; <UNDEFINED> instruction: 0x07c80275
    12f0:	08000000 	stmdaeq	r0, {}	; <UNPREDICTABLE>
    12f4:	00000123 	andeq	r0, r0, r3, lsr #2
    12f8:	0000083e 	andeq	r0, r0, lr, lsr r8
    12fc:	0000dd09 	andeq	sp, r0, r9, lsl #26
    1300:	1d001800 	stcne	8, cr1, [r0, #-0]
    1304:	00000849 	andeq	r0, r0, r9, asr #16
    1308:	00043a15 	andeq	r3, r4, r5, lsl sl
    130c:	040d0000 	streq	r0, [sp], #-0
    1310:	0000083e 	andeq	r0, r0, lr, lsr r8
    1314:	018d040d 	orreq	r0, sp, sp, lsl #8
    1318:	601d0000 	andsvs	r0, sp, r0
    131c:	15000008 	strne	r0, [r0, #-8]
    1320:	00000025 	andeq	r0, r0, r5, lsr #32
    1324:	66040d00 	strvs	r0, [r4], -r0, lsl #26
    1328:	0d000008 	stceq	0, cr0, [r0, #-32]	; 0xffffffe0
    132c:	00085504 	andeq	r5, r8, r4, lsl #10
    1330:	06050800 	streq	r0, [r5], -r0, lsl #16
    1334:	087c0000 	ldmdaeq	ip!, {}^	; <UNPREDICTABLE>
    1338:	dd090000 	stcle	0, cr0, [r9, #-0]
    133c:	02000000 	andeq	r0, r0, #0
    1340:	04741e00 	ldrbteq	r1, [r4], #-3584	; 0xfffff200
    1344:	fd070000 	stc2	0, cr0, [r7, #-0]
    1348:	00043a02 	andeq	r3, r4, r2, lsl #20
    134c:	046d1e00 	strbteq	r1, [sp], #-3584	; 0xfffff200
    1350:	fe070000 	cdp2	0, 0, cr0, cr7, cr0, {0}
    1354:	00044002 	andeq	r4, r4, r2
    1358:	00251400 	eoreq	r1, r5, r0, lsl #8
    135c:	08a30000 	stmiaeq	r3!, {}	; <UNPREDICTABLE>
    1360:	25150000 	ldrcs	r0, [r5, #-0]
    1364:	00000000 	andeq	r0, r0, r0
    1368:	0001e21f 	andeq	lr, r1, pc, lsl r2
    136c:	ae1d0800 	cdpge	8, 1, cr0, cr13, cr0, {0}
    1370:	0d000008 	stceq	0, cr0, [r0, #-32]	; 0xffffffe0
    1374:	00089404 	andeq	r9, r8, r4, lsl #8
    1378:	00251400 	eoreq	r1, r5, r0, lsl #8
    137c:	08c30000 	stmiaeq	r3, {}^	; <UNPREDICTABLE>
    1380:	9b150000 	blls	541388 <__bss_end__+0x537348>
    1384:	00000005 	andeq	r0, r0, r5
    1388:	00076e1f 	andeq	r6, r7, pc, lsl lr
    138c:	ce220800 	cdpgt	8, 2, cr0, cr2, cr0, {0}
    1390:	0d000008 	stceq	0, cr0, [r0, #-32]	; 0xffffffe0
    1394:	0008b404 	andeq	fp, r8, r4, lsl #8
    1398:	5a012000 	bpl	493a0 <__bss_end__+0x3f360>
    139c:	02000000 	andeq	r0, r0, #0
    13a0:	0008ed24 	andeq	lr, r8, r4, lsr #26
    13a4:	05682100 	strbeq	r2, [r8, #-256]!	; 0xffffff00
    13a8:	210b0000 	mrscs	r0, (UNDEF: 11)
    13ac:	00000562 	andeq	r0, r0, r2, ror #10
    13b0:	0c0a000c 	stceq	0, cr0, [sl], {12}
    13b4:	091a2602 	ldmdbeq	sl, {r1, r9, sl, sp}
    13b8:	1a0b0000 	bne	2c13c0 <__bss_end__+0x2b7380>
    13bc:	02000002 	andeq	r0, r0, #2
    13c0:	00059b27 	andeq	r9, r5, r7, lsr #22
    13c4:	d30b0000 	movwle	r0, #45056	; 0xb000
    13c8:	02000004 	andeq	r0, r0, #4
    13cc:	00059b28 	andeq	r9, r5, r8, lsr #22
    13d0:	390b0400 	stmdbcc	fp, {sl}
    13d4:	02000005 	andeq	r0, r0, #5
    13d8:	00002c29 	andeq	r2, r0, r9, lsr #24
    13dc:	04000800 	streq	r0, [r0], #-2048	; 0xfffff800
    13e0:	00000632 	andeq	r0, r0, r2, lsr r6
    13e4:	08ed2a02 	stmiaeq	sp!, {r1, r9, fp, sp}^
    13e8:	a60f0000 	strge	r0, [pc], -r0
    13ec:	38000006 	stmdacc	r0, {r1, r2}
    13f0:	09aa2d02 	stmibeq	sl!, {r1, r8, sl, fp, sp}
    13f4:	ee0b0000 	cdp	0, 0, cr0, cr11, cr0, {0}
    13f8:	02000005 	andeq	r0, r0, #5
    13fc:	0000682e 	andeq	r6, r0, lr, lsr #16
    1400:	8c0b0000 	stchi	0, cr0, [fp], {-0}
    1404:	02000006 	andeq	r0, r0, #6
    1408:	0000682f 	andeq	r6, r0, pc, lsr #16
    140c:	a90b0400 	stmdbge	fp, {sl}
    1410:	02000000 	andeq	r0, r0, #0
    1414:	00006830 	andeq	r6, r0, r0, lsr r8
    1418:	e80b0800 	stmda	fp, {fp}
    141c:	02000005 	andeq	r0, r0, #5
    1420:	00006834 	andeq	r6, r0, r4, lsr r8
    1424:	da0b0c00 	ble	2c442c <__bss_end__+0x2ba3ec>
    1428:	02000005 	andeq	r0, r0, #5
    142c:	00091a36 	andeq	r1, r9, r6, lsr sl
    1430:	4f0b1000 	svcmi	0x000b1000
    1434:	02000005 	andeq	r0, r0, #5
    1438:	00091a37 	andeq	r1, r9, r7, lsr sl
    143c:	7c0b1c00 	stcvc	12, cr1, [fp], {-0}
    1440:	02000005 	andeq	r0, r0, #5
    1444:	0000683b 	andeq	r6, r0, fp, lsr r8
    1448:	700b2800 	andvc	r2, fp, r0, lsl #16
    144c:	02000005 	andeq	r0, r0, #5
    1450:	0000683c 	andeq	r6, r0, ip, lsr r8
    1454:	400b2c00 	andmi	r2, fp, r0, lsl #24
    1458:	02000005 	andeq	r0, r0, #5
    145c:	0009aa3f 	andeq	sl, r9, pc, lsr sl
    1460:	310b3000 	mrscc	r3, (UNDEF: 11)
    1464:	02000005 	andeq	r0, r0, #5
    1468:	00006841 	andeq	r6, r0, r1, asr #16
    146c:	0d003400 	cfstrseq	mvf3, [r0, #-0]
    1470:	00092504 	andeq	r2, r9, r4, lsl #10
    1474:	06860400 	streq	r0, [r6], r0, lsl #8
    1478:	42020000 	andmi	r0, r2, #0
    147c:	00000925 	andeq	r0, r0, r5, lsr #18
    1480:	00610220 	rsbeq	r0, r1, r0, lsr #4
    1484:	62020000 	andvs	r0, r2, #0
    1488:	000009e1 	andeq	r0, r0, r1, ror #19
    148c:	00065c21 	andeq	r5, r6, r1, lsr #24
    1490:	9f21fe00 	svcls	0x0021fe00
    1494:	80000005 	andhi	r0, r0, r5
    1498:	0005a721 	andeq	sl, r5, r1, lsr #14
    149c:	8f22b800 	svchi	0x0022b800
    14a0:	38000005 	stmdacc	r0, {r0, r2}
    14a4:	57230001 	strpl	r0, [r3, -r1]!
    14a8:	01000006 	tsteq	r0, r6
    14ac:	0009f207 	andeq	pc, r9, r7, lsl #4
    14b0:	34030500 	strcc	r0, [r3], #-1280	; 0xfffffb00
    14b4:	0d00009c 	stceq	0, cr0, [r0, #-624]	; 0xfffffd90
    14b8:	00004f04 	andeq	r4, r0, r4, lsl #30
    14bc:	0b722300 	bleq	1c8a0c4 <__bss_end__+0x1c80084>
    14c0:	07010000 	streq	r0, [r1, -r0]
    14c4:	000009f2 	strdeq	r0, [r0], -r2
    14c8:	9c380305 	ldcls	3, cr0, [r8], #-20	; 0xffffffec
    14cc:	59230000 	stmdbpl	r3!, {}	; <UNPREDICTABLE>
    14d0:	0100000b 	tsteq	r0, fp
    14d4:	0009f207 	andeq	pc, r9, r7, lsl #4
    14d8:	30030500 	andcc	r0, r3, r0, lsl #10
    14dc:	2400009c 	strcs	r0, [r0], #-156	; 0xffffff64
    14e0:	0000000c 	andeq	r0, r0, ip
    14e4:	0025ae01 	eoreq	sl, r5, r1, lsl #28
    14e8:	880c0000 	stmdahi	ip, {}	; <UNPREDICTABLE>
    14ec:	014c0000 	mrseq	r0, (UNDEF: 76)
    14f0:	9c010000 	stcls	0, cr0, [r1], {-0}
    14f4:	00000bd3 	ldrdeq	r0, [r0], -r3
    14f8:	00058725 	andeq	r8, r5, r5, lsr #14
    14fc:	2caf0100 	stfcss	f0, [pc]	; 1504 <_start-0x6afc>
    1500:	47000000 	strmi	r0, [r0, -r0]
    1504:	25000000 	strcs	r0, [r0, #-0]
    1508:	00000697 	muleq	r0, r7, r6
    150c:	002cb001 	eoreq	fp, ip, r1
    1510:	005a0000 	subseq	r0, sl, r0
    1514:	45250000 	strmi	r0, [r5, #-0]!
    1518:	01000006 	tsteq	r0, r6
    151c:	00002cb4 			; <UNDEFINED> instruction: 0x00002cb4
    1520:	00006d00 	andeq	r6, r0, r0, lsl #26
    1524:	062c2500 	strteq	r2, [ip], -r0, lsl #10
    1528:	b5010000 	strlt	r0, [r1, #-0]
    152c:	0000002c 	andeq	r0, r0, ip, lsr #32
    1530:	0000008c 	andeq	r0, r0, ip, lsl #1
    1534:	00006026 	andeq	r6, r0, r6, lsr #32
    1538:	000b2e00 	andeq	r2, fp, r0, lsl #28
    153c:	066b2300 	strbteq	r2, [fp], -r0, lsl #6
    1540:	b8010000 	stmdalt	r1, {}	; <UNPREDICTABLE>
    1544:	00000bd3 	ldrdeq	r0, [r0], -r3
    1548:	b0275401 	eorlt	r5, r7, r1, lsl #8
    154c:	62000088 	andvs	r0, r0, #136	; 0x88
    1550:	99000014 	stmdbls	r0, {r2, r4}
    1554:	2800000a 	stmdacs	r0, {r1, r3}
    1558:	74025001 	strvc	r5, [r2], #-1
    155c:	c0270000 	eorgt	r0, r7, r0
    1560:	a5000088 	strge	r0, [r0, #-136]	; 0xffffff78
    1564:	ad000016 	stcge	0, cr0, [r0, #-88]	; 0xffffffa8
    1568:	2800000a 	stmdacs	r0, {r1, r3}
    156c:	74025001 	strvc	r5, [r2], #-1
    1570:	cc270000 	stcgt	0, cr0, [r7], #-0
    1574:	fc000088 	stc2	0, cr0, [r0], {136}	; 0x88
    1578:	c7000012 	smladgt	r0, r2, r0, r0
    157c:	2800000a 	stmdacs	r0, {r1, r3}
    1580:	08025101 	stmdaeq	r2, {r0, r8, ip, lr}
    1584:	52012880 	andpl	r2, r1, #128, 16	; 0x800000
    1588:	00007402 	andeq	r7, r0, r2, lsl #8
    158c:	0088dc27 	addeq	sp, r8, r7, lsr #24
    1590:	00163600 	andseq	r3, r6, r0, lsl #12
    1594:	000adb00 	andeq	sp, sl, r0, lsl #22
    1598:	50012800 	andpl	r2, r1, r0, lsl #16
    159c:	00007402 	andeq	r7, r0, r2, lsl #8
    15a0:	0088e827 	addeq	lr, r8, r7, lsr #16
    15a4:	00160f00 	andseq	r0, r6, r0, lsl #30
    15a8:	000aef00 	andeq	lr, sl, r0, lsl #30
    15ac:	50012800 	andpl	r2, r1, r0, lsl #16
    15b0:	00007402 	andeq	r7, r0, r2, lsl #8
    15b4:	0088f827 	addeq	pc, r8, r7, lsr #16
    15b8:	0012fc00 	andseq	pc, r2, r0, lsl #24
    15bc:	000b0900 	andeq	r0, fp, r0, lsl #18
    15c0:	50012800 	andpl	r2, r1, r0, lsl #16
    15c4:	28007702 	stmdacs	r0, {r1, r8, r9, sl, ip, sp, lr}
    15c8:	74025201 	strvc	r5, [r2], #-513	; 0xfffffdff
    15cc:	10270000 	eorne	r0, r7, r0
    15d0:	6d000089 	stcvs	0, cr0, [r0, #-548]	; 0xfffffddc
    15d4:	1d000016 	stcne	0, cr0, [r0, #-88]	; 0xffffffa8
    15d8:	2800000b 	stmdacs	r0, {r0, r1, r3}
    15dc:	74025001 	strvc	r5, [r2], #-1
    15e0:	1c290000 	stcne	0, cr0, [r9], #-0
    15e4:	61000089 	smlabbvs	r0, r9, r0, r0
    15e8:	28000011 	stmdacs	r0, {r0, r4}
    15ec:	74025201 	strvc	r5, [r2], #-513	; 0xfffffdff
    15f0:	27000000 	strcs	r0, [r0, -r0]
    15f4:	00008830 	andeq	r8, r0, r0, lsr r8
    15f8:	00001795 	muleq	r0, r5, r7
    15fc:	00000b45 	andeq	r0, r0, r5, asr #22
    1600:	05500128 	ldrbeq	r0, [r0, #-296]	; 0xfffffed8
    1604:	0096d403 	addseq	sp, r6, r3, lsl #8
    1608:	40270000 	eormi	r0, r7, r0
    160c:	95000088 	strls	r0, [r0, #-136]	; 0xffffff78
    1610:	68000017 	stmdavs	r0, {r0, r1, r2, r4}
    1614:	2800000b 	stmdacs	r0, {r0, r1, r3}
    1618:	03055001 	movweq	r5, #20481	; 0x5001
    161c:	00009970 	andeq	r9, r0, r0, ror r9
    1620:	02510128 	subseq	r0, r1, #40, 2
    1624:	01280075 			; <UNDEFINED> instruction: 0x01280075
    1628:	00760252 	rsbseq	r0, r6, r2, asr r2
    162c:	88682700 	stmdahi	r8!, {r8, r9, sl, sp}^
    1630:	17950000 	ldrne	r0, [r5, r0]
    1634:	0b7f0000 	bleq	1fc163c <__bss_end__+0x1fb75fc>
    1638:	01280000 			; <UNDEFINED> instruction: 0x01280000
    163c:	d4030550 	strle	r0, [r3], #-1360	; 0xfffffab0
    1640:	00000096 	muleq	r0, r6, r0
    1644:	00887427 	addeq	r7, r8, r7, lsr #8
    1648:	00179500 	andseq	r9, r7, r0, lsl #10
    164c:	000b9c00 	andeq	r9, fp, r0, lsl #24
    1650:	50012800 	andpl	r2, r1, r0, lsl #16
    1654:	99d00305 	ldmibls	r0, {r0, r2, r8, r9}^
    1658:	01280000 			; <UNDEFINED> instruction: 0x01280000
    165c:	00750251 	rsbseq	r0, r5, r1, asr r2
    1660:	89302700 	ldmdbhi	r0!, {r8, r9, sl, sp}
    1664:	17950000 	ldrne	r0, [r5, r0]
    1668:	0bb30000 	bleq	fecc1670 <__bss_end__+0xfecb7630>
    166c:	01280000 			; <UNDEFINED> instruction: 0x01280000
    1670:	d4030550 	strle	r0, [r3], #-1360	; 0xfffffab0
    1674:	00000096 	muleq	r0, r6, r0
    1678:	00894029 	addeq	r4, r9, r9, lsr #32
    167c:	00179500 	andseq	r9, r7, r0, lsl #10
    1680:	50012800 	andpl	r2, r1, r0, lsl #16
    1684:	99a80305 	stmibls	r8!, {r0, r2, r8, r9}
    1688:	01280000 			; <UNDEFINED> instruction: 0x01280000
    168c:	00750251 	rsbseq	r0, r5, r1, asr r2
    1690:	02520128 	subseq	r0, r2, #40, 2
    1694:	00000076 	andeq	r0, r0, r6, ror r0
    1698:	09b0040d 	ldmibeq	r0!, {r0, r2, r3, sl}
    169c:	81240000 			; <UNDEFINED> instruction: 0x81240000
    16a0:	01000000 	mrseq	r0, (UNDEF: 0)
    16a4:	00011b87 	andeq	r1, r1, r7, lsl #23
    16a8:	0085f400 	addeq	pc, r5, r0, lsl #8
    16ac:	00021800 	andeq	r1, r2, r0, lsl #16
    16b0:	049c0100 	ldreq	r0, [ip], #256	; 0x100
    16b4:	2a00000f 	bcs	16f8 <_start-0x6908>
    16b8:	00000677 	andeq	r0, r0, r7, ror r6
    16bc:	00688701 	rsbeq	r8, r8, r1, lsl #14
    16c0:	00ab0000 	adceq	r0, fp, r0
    16c4:	1a2a0000 	bne	a816cc <__bss_end__+0xa7768c>
    16c8:	01000002 	tsteq	r0, r2
    16cc:	00059b87 	andeq	r9, r5, r7, lsl #23
    16d0:	0000ed00 	andeq	lr, r0, r0, lsl #26
    16d4:	04d32a00 	ldrbeq	r2, [r3], #2560	; 0xa00
    16d8:	87010000 	strhi	r0, [r1, -r0]
    16dc:	0000059b 	muleq	r0, fp, r5
    16e0:	0000012f 	andeq	r0, r0, pc, lsr #2
    16e4:	0005392a 	andeq	r3, r5, sl, lsr #18
    16e8:	2c870100 	stfcss	f0, [r7], {0}
    16ec:	71000000 	mrsvc	r0, (UNDEF: 0)
    16f0:	2b000001 	blcs	16fc <_start-0x6904>
    16f4:	88010068 	stmdahi	r1, {r3, r5, r6}
    16f8:	00000bd3 	ldrdeq	r0, [r0], -r3
    16fc:	000001b6 			; <UNDEFINED> instruction: 0x000001b6
    1700:	7274702b 	rsbsvc	r7, r4, #43	; 0x2b
    1704:	1b890100 	blne	fe241b0c <__bss_end__+0xfe237acc>
    1708:	ec000001 	stc	0, cr0, [r0], {1}
    170c:	2c000001 	stccs	0, cr0, [r0], {1}
    1710:	0000021f 	andeq	r0, r0, pc, lsl r2
    1714:	00000f14 	andeq	r0, r0, r4, lsl pc
    1718:	970c0305 	strls	r0, [ip, -r5, lsl #6]
    171c:	742b0000 	strtvc	r0, [fp], #-0
    1720:	0100746f 	tsteq	r0, pc, ror #8
    1724:	00002c8e 	andeq	r2, r0, lr, lsl #25
    1728:	00022200 	andeq	r2, r2, r0, lsl #4
    172c:	006e2b00 	rsbeq	r2, lr, r0, lsl #22
    1730:	002c8f01 	eoreq	r8, ip, r1, lsl #30
    1734:	02810000 	addeq	r0, r1, #0
    1738:	24270000 	strtcs	r0, [r7], #-0
    173c:	95000086 	strls	r0, [r0, #-134]	; 0xffffff7a
    1740:	8c000017 	stchi	0, cr0, [r0], {23}
    1744:	2800000c 	stmdacs	r0, {r2, r3}
    1748:	03055001 	movweq	r5, #20481	; 0x5001
    174c:	000096d4 	ldrdeq	r9, [r0], -r4
    1750:	86302700 	ldrthi	r2, [r0], -r0, lsl #14
    1754:	17950000 	ldrne	r0, [r5, r0]
    1758:	0ca90000 	stceq	0, cr0, [r9]
    175c:	01280000 			; <UNDEFINED> instruction: 0x01280000
    1760:	34030550 	strcc	r0, [r3], #-1360	; 0xfffffab0
    1764:	28000098 	stmdacs	r0, {r3, r4, r7}
    1768:	75025101 	strvc	r5, [r2, #-257]	; 0xfffffeff
    176c:	90270000 	eorls	r0, r7, r0
    1770:	a5000086 	strge	r0, [r0, #-134]	; 0xffffff7a
    1774:	bd000016 	stclt	0, cr0, [r0, #-88]	; 0xffffffa8
    1778:	2800000c 	stmdacs	r0, {r2, r3}
    177c:	74025001 	strvc	r5, [r2], #-1
    1780:	98270000 	stmdals	r7!, {}	; <UNPREDICTABLE>
    1784:	11000086 	smlabbne	r0, r6, r0, r0
    1788:	d1000011 	tstle	r0, r1, lsl r0
    178c:	2800000c 	stmdacs	r0, {r2, r3}
    1790:	08025101 	stmdaeq	r2, {r0, r8, ip, lr}
    1794:	a0270080 	eorge	r0, r7, r0, lsl #1
    1798:	36000086 	strcc	r0, [r0], -r6, lsl #1
    179c:	e5000016 	str	r0, [r0, #-22]	; 0xffffffea
    17a0:	2800000c 	stmdacs	r0, {r2, r3}
    17a4:	74025001 	strvc	r5, [r2], #-1
    17a8:	ac270000 	stcge	0, cr0, [r7], #-0
    17ac:	0f000086 	svceq	0x00000086
    17b0:	f9000016 			; <UNDEFINED> instruction: 0xf9000016
    17b4:	2800000c 	stmdacs	r0, {r2, r3}
    17b8:	74025001 	strvc	r5, [r2], #-1
    17bc:	b8270000 	stmdalt	r7!, {}	; <UNPREDICTABLE>
    17c0:	11000086 	smlabbne	r0, r6, r0, r0
    17c4:	0d000011 	stceq	0, cr0, [r0, #-68]	; 0xffffffbc
    17c8:	2800000d 	stmdacs	r0, {r0, r2, r3}
    17cc:	77025001 	strvc	r5, [r2, -r1]
    17d0:	c0270000 	eorgt	r0, r7, r0
    17d4:	8f000086 	svchi	0x00000086
    17d8:	21000015 	tstcs	r0, r5, lsl r0
    17dc:	2800000d 	stmdacs	r0, {r0, r2, r3}
    17e0:	74025001 	strvc	r5, [r2], #-1
    17e4:	dc270000 	stcle	0, cr0, [r7], #-0
    17e8:	6a000086 	bvs	1a08 <_start-0x65f8>
    17ec:	35000010 	strcc	r0, [r0, #-16]
    17f0:	2800000d 	stmdacs	r0, {r0, r2, r3}
    17f4:	74025001 	strvc	r5, [r2], #-1
    17f8:	ec270000 	stc	0, cr0, [r7], #-0
    17fc:	6d000086 	stcvs	0, cr0, [r0, #-536]	; 0xfffffde8
    1800:	49000016 	stmdbmi	r0, {r1, r2, r4}
    1804:	2800000d 	stmdacs	r0, {r0, r2, r3}
    1808:	74025001 	strvc	r5, [r2], #-1
    180c:	f8270000 			; <UNDEFINED> instruction: 0xf8270000
    1810:	95000086 	strls	r0, [r0, #-134]	; 0xffffff7a
    1814:	60000017 	andvs	r0, r0, r7, lsl r0
    1818:	2800000d 	stmdacs	r0, {r0, r2, r3}
    181c:	03055001 	movweq	r5, #20481	; 0x5001
    1820:	000096d4 	ldrdeq	r9, [r0], -r4
    1824:	870c2700 	strhi	r2, [ip, -r0, lsl #14]
    1828:	17950000 	ldrne	r0, [r5, r0]
    182c:	0d890000 	stceq	0, cr0, [r9]
    1830:	01280000 			; <UNDEFINED> instruction: 0x01280000
    1834:	40030550 	andmi	r0, r3, r0, asr r5
    1838:	28000099 	stmdacs	r0, {r0, r3, r4, r7}
    183c:	75025101 	strvc	r5, [r2, #-257]	; 0xfffffeff
    1840:	52012800 	andpl	r2, r1, #0, 16
    1844:	28007602 	stmdacs	r0, {r1, r9, sl, ip, sp, lr}
    1848:	74025301 	strvc	r5, [r2], #-769	; 0xfffffcff
    184c:	1c2d0000 	stcne	0, cr0, [sp], #-0
    1850:	a0000087 	andge	r0, r0, r7, lsl #1
    1854:	27000017 	smladcs	r0, r7, r0, r0
    1858:	00008730 	andeq	r8, r0, r0, lsr r7
    185c:	00001795 	muleq	r0, r5, r7
    1860:	00000dc1 	andeq	r0, r0, r1, asr #27
    1864:	05500128 	ldrbeq	r0, [r0, #-296]	; 0xfffffed8
    1868:	0097f403 	addseq	pc, r7, r3, lsl #8
    186c:	51012800 	tstpl	r1, r0, lsl #16
    1870:	97a40305 	strls	r0, [r4, r5, lsl #6]!
    1874:	01280000 			; <UNDEFINED> instruction: 0x01280000
    1878:	0c030552 	cfstr32eq	mvfx0, [r3], {82}	; 0x52
    187c:	28000097 	stmdacs	r0, {r0, r1, r2, r4, r7}
    1880:	08025301 	stmdaeq	r2, {r0, r8, r9, ip, lr}
    1884:	342d008b 	strtcc	r0, [sp], #-139	; 0xffffff75
    1888:	ab000087 	blge	1aac <_start-0x6554>
    188c:	27000017 	smladcs	r0, r7, r0, r0
    1890:	0000873c 	andeq	r8, r0, ip, lsr r7
    1894:	00001795 	muleq	r0, r5, r7
    1898:	00000de1 	andeq	r0, r0, r1, ror #27
    189c:	05500128 	ldrbeq	r0, [r0, #-296]	; 0xfffffed8
    18a0:	00984c03 	addseq	r4, r8, r3, lsl #24
    18a4:	48270000 	stmdami	r7!, {}	; <UNPREDICTABLE>
    18a8:	95000087 	strls	r0, [r0, #-135]	; 0xffffff79
    18ac:	fe000017 	mcr2	0, 0, r0, cr0, cr7, {0}
    18b0:	2800000d 	stmdacs	r0, {r0, r2, r3}
    18b4:	03055001 	movweq	r5, #20481	; 0x5001
    18b8:	00009858 	andeq	r9, r0, r8, asr r8
    18bc:	02510128 	subseq	r0, r1, #40, 2
    18c0:	2d000075 	stccs	0, cr0, [r0, #-468]	; 0xfffffe2c
    18c4:	0000874c 	andeq	r8, r0, ip, asr #14
    18c8:	000017a0 	andeq	r1, r0, r0, lsr #15
    18cc:	00876427 	addeq	r6, r7, r7, lsr #8
    18d0:	00179500 	andseq	r9, r7, r0, lsl #10
    18d4:	000e3d00 	andeq	r3, lr, r0, lsl #26
    18d8:	50012800 	andpl	r2, r1, r0, lsl #16
    18dc:	98800305 	stmls	r0, {r0, r2, r8, r9}
    18e0:	01280000 			; <UNDEFINED> instruction: 0x01280000
    18e4:	a4030551 	strge	r0, [r3], #-1361	; 0xfffffaaf
    18e8:	28000097 	stmdacs	r0, {r0, r1, r2, r4, r7}
    18ec:	03055201 	movweq	r5, #20993	; 0x5201
    18f0:	0000970c 	andeq	r9, r0, ip, lsl #14
    18f4:	02530128 	subseq	r0, r3, #40, 2
    18f8:	02289308 	eoreq	r9, r8, #8, 6	; 0x20000000
    18fc:	7502007d 	strvc	r0, [r2, #-125]	; 0xffffff83
    1900:	682d0000 	stmdavs	sp!, {}	; <UNPREDICTABLE>
    1904:	ab000087 	blge	1b28 <_start-0x64d8>
    1908:	27000017 	smladcs	r0, r7, r0, r0
    190c:	00008770 	andeq	r8, r0, r0, ror r7
    1910:	00001795 	muleq	r0, r5, r7
    1914:	00000e5d 	andeq	r0, r0, sp, asr lr
    1918:	05500128 	ldrbeq	r0, [r0, #-296]	; 0xfffffed8
    191c:	00984c03 	addseq	r4, r8, r3, lsl #24
    1920:	8c270000 	stchi	0, cr0, [r7], #-0
    1924:	95000087 	strls	r0, [r0, #-135]	; 0xffffff79
    1928:	7a000017 	bvc	198c <_start-0x6674>
    192c:	2800000e 	stmdacs	r0, {r1, r2, r3}
    1930:	03055001 	movweq	r5, #20481	; 0x5001
    1934:	000098b8 			; <UNDEFINED> instruction: 0x000098b8
    1938:	02520128 	subseq	r0, r2, #40, 2
    193c:	2d000076 	stccs	0, cr0, [r0, #-472]	; 0xfffffe28
    1940:	00008790 	muleq	r0, r0, r7
    1944:	000017a0 	andeq	r1, r0, r0, lsr #15
    1948:	0087b827 	addeq	fp, r7, r7, lsr #16
    194c:	00179500 	andseq	r9, r7, r0, lsl #10
    1950:	000eb900 	andeq	fp, lr, r0, lsl #18
    1954:	50012800 	andpl	r2, r1, r0, lsl #16
    1958:	98e40305 	stmials	r4!, {r0, r2, r8, r9}^
    195c:	01280000 			; <UNDEFINED> instruction: 0x01280000
    1960:	a4030551 	strge	r0, [r3], #-1361	; 0xfffffaaf
    1964:	28000097 	stmdacs	r0, {r0, r1, r2, r4, r7}
    1968:	03055201 	movweq	r5, #20993	; 0x5201
    196c:	0000970c 	andeq	r9, r0, ip, lsl #14
    1970:	02530128 	subseq	r0, r3, #40, 2
    1974:	02289708 	eoreq	r9, r8, #8, 14	; 0x200000
    1978:	7602047d 			; <UNDEFINED> instruction: 0x7602047d
    197c:	bc2d0000 	stclt	0, cr0, [sp], #-0
    1980:	ab000087 	blge	1ba4 <_start-0x645c>
    1984:	2d000017 	stccs	0, cr0, [r0, #-92]	; 0xffffffa4
    1988:	000087c0 	andeq	r8, r0, r0, asr #15
    198c:	000017a0 	andeq	r1, r0, r0, lsr #15
    1990:	0087d427 	addeq	sp, r7, r7, lsr #8
    1994:	00179500 	andseq	r9, r7, r0, lsl #10
    1998:	000efa00 	andeq	pc, lr, r0, lsl #20
    199c:	50012800 	andpl	r2, r1, r0, lsl #16
    19a0:	99200305 	stmdbls	r0!, {r0, r2, r8, r9}
    19a4:	01280000 			; <UNDEFINED> instruction: 0x01280000
    19a8:	a4030551 	strge	r0, [r3], #-1361	; 0xfffffaaf
    19ac:	28000097 	stmdacs	r0, {r0, r1, r2, r4, r7}
    19b0:	03055201 	movweq	r5, #20993	; 0x5201
    19b4:	0000970c 	andeq	r9, r0, ip, lsl #14
    19b8:	02530128 	subseq	r0, r3, #40, 2
    19bc:	2d00a508 	cfstr32cs	mvfx10, [r0, #-32]	; 0xffffffe0
    19c0:	000087d8 	ldrdeq	r8, [r0], -r8	; <UNPREDICTABLE>
    19c4:	000017ab 	andeq	r1, r0, fp, lsr #15
    19c8:	012a0800 			; <UNDEFINED> instruction: 0x012a0800
    19cc:	0f140000 	svceq	0x00140000
    19d0:	dd090000 	stcle	0, cr0, [r9, #-0]
    19d4:	07000000 	streq	r0, [r0, -r0]
    19d8:	0f040e00 	svceq	0x00040e00
    19dc:	7d2e0000 	stcvc	0, cr0, [lr, #-0]
    19e0:	01000002 	tsteq	r0, r2
    19e4:	00853c72 	addeq	r3, r5, r2, ror ip
    19e8:	0000b800 	andeq	fp, r0, r0, lsl #16
    19ec:	559c0100 	ldrpl	r0, [ip, #256]	; 0x100
    19f0:	2a000010 	bcs	1a38 <_start-0x65c8>
    19f4:	00000b65 	andeq	r0, r0, r5, ror #22
    19f8:	011b7201 	tsteq	fp, r1, lsl #4
    19fc:	029f0000 	addseq	r0, pc, #0
    1a00:	1a2a0000 	bne	a81a08 <__bss_end__+0xa779c8>
    1a04:	01000002 	tsteq	r0, r2
    1a08:	00059b72 	andeq	r9, r5, r2, ror fp
    1a0c:	0002bd00 	andeq	fp, r2, r0, lsl #26
    1a10:	04d32a00 	ldrbeq	r2, [r3], #2560	; 0xa00
    1a14:	72010000 	andvc	r0, r1, #0
    1a18:	0000059b 	muleq	r0, fp, r5
    1a1c:	000002db 	ldrdeq	r0, [r0], -fp
    1a20:	0005392a 	andeq	r3, r5, sl, lsr #18
    1a24:	2c720100 	ldfcse	f0, [r2], #-0
    1a28:	f9000000 			; <UNDEFINED> instruction: 0xf9000000
    1a2c:	2b000002 	blcs	1a3c <_start-0x65c4>
    1a30:	73010068 	movwvc	r0, #4200	; 0x1068
    1a34:	00000bd3 	ldrdeq	r0, [r0], -r3
    1a38:	00000317 	andeq	r0, r0, r7, lsl r3
    1a3c:	00021f2c 	andeq	r1, r2, ip, lsr #30
    1a40:	00106500 	andseq	r6, r0, r0, lsl #10
    1a44:	04030500 	streq	r0, [r3], #-1280	; 0xfffffb00
    1a48:	27000097 			; <UNDEFINED> instruction: 0x27000097
    1a4c:	00008554 	andeq	r8, r0, r4, asr r5
    1a50:	000015e6 	andeq	r1, r0, r6, ror #11
    1a54:	00000f9a 	muleq	r0, sl, pc	; <UNPREDICTABLE>
    1a58:	02500128 	subseq	r0, r0, #40, 2
    1a5c:	27000075 	smlsdxcs	r0, r5, r0, r0
    1a60:	00008570 	andeq	r8, r0, r0, ror r5
    1a64:	00001795 	muleq	r0, r5, r7
    1a68:	00000fb1 			; <UNDEFINED> instruction: 0x00000fb1
    1a6c:	05500128 	ldrbeq	r0, [r0, #-296]	; 0xfffffed8
    1a70:	0096d403 	addseq	sp, r6, r3, lsl #8
    1a74:	7c270000 	stcvc	0, cr0, [r7], #-0
    1a78:	95000085 	strls	r0, [r0, #-133]	; 0xffffff7b
    1a7c:	ce000017 	mcrgt	0, 0, r0, cr0, cr7, {0}
    1a80:	2800000f 	stmdacs	r0, {r0, r1, r2, r3}
    1a84:	03055001 	movweq	r5, #20481	; 0x5001
    1a88:	00009828 	andeq	r9, r0, r8, lsr #16
    1a8c:	02510128 	subseq	r0, r1, #40, 2
    1a90:	27000075 	smlsdxcs	r0, r5, r0, r0
    1a94:	00008584 	andeq	r8, r0, r4, lsl #11
    1a98:	0000106a 	andeq	r1, r0, sl, rrx
    1a9c:	00000fe2 	andeq	r0, r0, r2, ror #31
    1aa0:	02500128 	subseq	r0, r0, #40, 2
    1aa4:	27000074 	smlsdxcs	r0, r4, r0, r0
    1aa8:	000085a8 	andeq	r8, r0, r8, lsr #11
    1aac:	0000166d 	andeq	r1, r0, sp, ror #12
    1ab0:	00000ff6 	strdeq	r0, [r0], -r6
    1ab4:	02500128 	subseq	r0, r0, #40, 2
    1ab8:	2d000074 	stccs	0, cr0, [r0, #-464]	; 0xfffffe30
    1abc:	000085b0 			; <UNDEFINED> instruction: 0x000085b0
    1ac0:	00001111 	andeq	r1, r0, r1, lsl r1
    1ac4:	0085b827 	addeq	fp, r5, r7, lsr #16
    1ac8:	00158f00 	andseq	r8, r5, r0, lsl #30
    1acc:	00101300 	andseq	r1, r0, r0, lsl #6
    1ad0:	50012800 	andpl	r2, r1, r0, lsl #16
    1ad4:	00007402 	andeq	r7, r0, r2, lsl #8
    1ad8:	0085c42d 	addeq	ip, r5, sp, lsr #8
    1adc:	0017a000 	andseq	sl, r7, r0
    1ae0:	85d82700 	ldrbhi	r2, [r8, #1792]	; 0x700
    1ae4:	17950000 	ldrne	r0, [r5, r0]
    1ae8:	104b0000 	subne	r0, fp, r0
    1aec:	01280000 			; <UNDEFINED> instruction: 0x01280000
    1af0:	f4030550 	vst3.16	{d0,d2,d4}, [r3 :64], r0
    1af4:	28000097 	stmdacs	r0, {r0, r1, r2, r4, r7}
    1af8:	03055101 	movweq	r5, #20737	; 0x5101
    1afc:	000097a4 	andeq	r9, r0, r4, lsr #15
    1b00:	05520128 	ldrbeq	r0, [r2, #-296]	; 0xfffffed8
    1b04:	00970403 	addseq	r0, r7, r3, lsl #8
    1b08:	53012800 	movwpl	r2, #6144	; 0x1800
    1b0c:	00750802 	rsbseq	r0, r5, r2, lsl #16
    1b10:	0085dc2d 	addeq	sp, r5, sp, lsr #24
    1b14:	0017ab00 	andseq	sl, r7, r0, lsl #22
    1b18:	2a080000 	bcs	201b20 <__bss_end__+0x1f7ae0>
    1b1c:	65000001 	strvs	r0, [r0, #-1]
    1b20:	09000010 	stmdbeq	r0, {r4}
    1b24:	000000dd 	ldrdeq	r0, [r0], -sp
    1b28:	550e0006 	strpl	r0, [lr, #-6]
    1b2c:	2f000010 	svccs	0x00000010
    1b30:	00000665 	andeq	r0, r0, r5, ror #12
    1b34:	00255901 	eoreq	r5, r5, r1, lsl #18
    1b38:	84640000 	strbthi	r0, [r4], #-0
    1b3c:	00640000 	rsbeq	r0, r4, r0
    1b40:	9c010000 	stcls	0, cr0, [r1], {-0}
    1b44:	00001111 	andeq	r1, r0, r1, lsl r1
    1b48:	01006830 	tsteq	r0, r0, lsr r8
    1b4c:	000bd359 	andeq	sp, fp, r9, asr r3
    1b50:	00034000 	andeq	r4, r3, r0
    1b54:	84702700 	ldrbthi	r2, [r0], #-1792	; 0xfffff900
    1b58:	14620000 	strbtne	r0, [r2], #-0
    1b5c:	10a40000 	adcne	r0, r4, r0
    1b60:	01280000 			; <UNDEFINED> instruction: 0x01280000
    1b64:	00740250 	rsbseq	r0, r4, r0, asr r2
    1b68:	84802700 	strhi	r2, [r0], #1792	; 0x700
    1b6c:	16a50000 	strtne	r0, [r5], r0
    1b70:	10b80000 	adcsne	r0, r8, r0
    1b74:	01280000 			; <UNDEFINED> instruction: 0x01280000
    1b78:	00740250 	rsbseq	r0, r4, r0, asr r2
    1b7c:	848c2700 	strhi	r2, [ip], #1792	; 0x700
    1b80:	12fc0000 	rscsne	r0, ip, #0
    1b84:	10d20000 	sbcsne	r0, r2, r0
    1b88:	01280000 			; <UNDEFINED> instruction: 0x01280000
    1b8c:	80080251 	andhi	r0, r8, r1, asr r2
    1b90:	02520128 	subseq	r0, r2, #40, 2
    1b94:	27000074 	smlsdxcs	r0, r4, r0, r0
    1b98:	0000849c 	muleq	r0, ip, r4
    1b9c:	00001636 	andeq	r1, r0, r6, lsr r6
    1ba0:	000010e6 	andeq	r1, r0, r6, ror #1
    1ba4:	02500128 	subseq	r0, r0, #40, 2
    1ba8:	27000074 	smlsdxcs	r0, r4, r0, r0
    1bac:	000084a8 	andeq	r8, r0, r8, lsr #9
    1bb0:	0000160f 	andeq	r1, r0, pc, lsl #12
    1bb4:	000010fa 	strdeq	r1, [r0], -sl
    1bb8:	02500128 	subseq	r0, r0, #40, 2
    1bbc:	29000074 	stmdbcs	r0, {r2, r4, r5, r6}
    1bc0:	000084b8 			; <UNDEFINED> instruction: 0x000084b8
    1bc4:	000012fc 	strdeq	r1, [r0], -ip
    1bc8:	02500128 	subseq	r0, r0, #40, 2
    1bcc:	01280075 			; <UNDEFINED> instruction: 0x01280075
    1bd0:	00740252 	rsbseq	r0, r4, r2, asr r2
    1bd4:	b4310000 	ldrtlt	r0, [r1], #-0
    1bd8:	01000005 	tsteq	r0, r5
    1bdc:	0082304f 	addeq	r3, r2, pc, asr #32
    1be0:	00001400 	andeq	r1, r0, r0, lsl #8
    1be4:	619c0100 	orrsvs	r0, ip, r0, lsl #2
    1be8:	30000011 	andcc	r0, r0, r1, lsl r0
    1bec:	4f010070 	svcmi	0x00010070
    1bf0:	0000011b 	andeq	r0, r0, fp, lsl r1
    1bf4:	0000035e 	andeq	r0, r0, lr, asr r3
    1bf8:	0006772a 	andeq	r7, r6, sl, lsr #14
    1bfc:	2c4f0100 	stfcse	f0, [pc], {-0}
    1c00:	7f000000 	svcvc	0x00000000
    1c04:	29000003 	stmdbcs	r0, {r0, r1}
    1c08:	00008240 	andeq	r8, r0, r0, asr #4
    1c0c:	000017b6 			; <UNDEFINED> instruction: 0x000017b6
    1c10:	03500128 	cmpeq	r0, #40, 2
    1c14:	285001f3 	ldmdacs	r0, {r0, r1, r4, r5, r6, r7, r8}^
    1c18:	08025101 	stmdaeq	r2, {r0, r8, ip, lr}
    1c1c:	520128fe 	andpl	r2, r1, #16646144	; 0xfe0000
    1c20:	5101f303 	tstpl	r1, r3, lsl #6	; <UNPREDICTABLE>
    1c24:	072f0000 	streq	r0, [pc, -r0]!
    1c28:	01000006 	tsteq	r0, r6
    1c2c:	00002541 	andeq	r2, r0, r1, asr #10
    1c30:	00812400 	addeq	r2, r1, r0, lsl #8
    1c34:	00010c00 	andeq	r0, r1, r0, lsl #24
    1c38:	fc9c0100 	ldc2	1, cr0, [ip], {0}
    1c3c:	30000012 	andcc	r0, r0, r2, lsl r0
    1c40:	41010070 	tstmi	r1, r0, ror r0
    1c44:	0000011d 	andeq	r0, r0, sp, lsl r1
    1c48:	000003ab 	andeq	r0, r0, fp, lsr #7
    1c4c:	0006772a 	andeq	r7, r6, sl, lsr #14
    1c50:	2c410100 	stfcse	f0, [r1], {-0}
    1c54:	e2000000 	and	r0, r0, #0
    1c58:	30000003 	andcc	r0, r0, r3
    1c5c:	41010068 	tstmi	r1, r8, rrx
    1c60:	00000bd3 	ldrdeq	r0, [r0], -r3
    1c64:	0000040e 	andeq	r0, r0, lr, lsl #8
    1c68:	0100692b 	tsteq	r0, fp, lsr #18
    1c6c:	00002542 	andeq	r2, r0, r2, asr #10
    1c70:	00043700 	andeq	r3, r4, r0, lsl #14
    1c74:	814c3200 	mrshi	r3, (UNDEF: 108)
    1c78:	00c00000 	sbceq	r0, r0, r0
    1c7c:	d5250000 	strle	r0, [r5, #-0]!
    1c80:	01000005 	tsteq	r0, r5
    1c84:	00002545 	andeq	r2, r0, r5, asr #10
    1c88:	00046100 	andeq	r6, r4, r0, lsl #2
    1c8c:	17703300 	ldrbne	r3, [r0, -r0, lsl #6]!
    1c90:	81800000 	orrhi	r0, r0, r0
    1c94:	00000000 	andeq	r0, r0, r0
    1c98:	46010000 	strmi	r0, [r1], -r0
    1c9c:	00001271 	andeq	r1, r0, r1, ror r2
    1ca0:	00177c34 	andseq	r7, r7, r4, lsr ip
    1ca4:	00047400 	andeq	r7, r4, r0, lsl #8
    1ca8:	00003500 	andeq	r3, r0, r0, lsl #10
    1cac:	85360000 	ldrhi	r0, [r6, #-0]!
    1cb0:	92000017 	andls	r0, r0, #23
    1cb4:	27000004 	strcs	r0, [r0, -r4]
    1cb8:	00008188 	andeq	r8, r0, r8, lsl #3
    1cbc:	00001795 	muleq	r0, r5, r7
    1cc0:	00001206 	andeq	r1, r0, r6, lsl #4
    1cc4:	02500128 	subseq	r0, r0, #40, 2
    1cc8:	27000077 	smlsdxcs	r0, r7, r0, r0
    1ccc:	00008194 	muleq	r0, r4, r1
    1cd0:	00001795 	muleq	r0, r5, r7
    1cd4:	0000121d 	andeq	r1, r0, sp, lsl r2
    1cd8:	05500128 	ldrbeq	r0, [r0, #-296]	; 0xfffffed8
    1cdc:	00974003 	addseq	r4, r7, r3
    1ce0:	a8270000 	stmdage	r7!, {}	; <UNPREDICTABLE>
    1ce4:	95000081 	strls	r0, [r0, #-129]	; 0xffffff7f
    1ce8:	31000017 	tstcc	r0, r7, lsl r0
    1cec:	28000012 	stmdacs	r0, {r1, r4}
    1cf0:	77025001 	strvc	r5, [r2, -r1]
    1cf4:	bc270000 	stclt	0, cr0, [r7], #-0
    1cf8:	95000081 	strls	r0, [r0, #-129]	; 0xffffff7f
    1cfc:	48000017 	stmdami	r0, {r0, r1, r2, r4}
    1d00:	28000012 	stmdacs	r0, {r1, r4}
    1d04:	03055001 	movweq	r5, #20481	; 0x5001
    1d08:	0000974c 	andeq	r9, r0, ip, asr #14
    1d0c:	81f42700 	mvnshi	r2, r0, lsl #14
    1d10:	17950000 	ldrne	r0, [r5, r0]
    1d14:	125c0000 	subsne	r0, ip, #0
    1d18:	01280000 			; <UNDEFINED> instruction: 0x01280000
    1d1c:	00770250 	rsbseq	r0, r7, r0, asr r2
    1d20:	82082900 	andhi	r2, r8, #0, 18
    1d24:	17950000 	ldrne	r0, [r5, r0]
    1d28:	01280000 			; <UNDEFINED> instruction: 0x01280000
    1d2c:	6c030550 	cfstr32vs	mvfx0, [r3], {80}	; 0x50
    1d30:	00000097 	muleq	r0, r7, r0
    1d34:	54270000 	strtpl	r0, [r7], #-0
    1d38:	6d000081 	stcvs	0, cr0, [r0, #-516]	; 0xfffffdfc
    1d3c:	85000016 	strhi	r0, [r0, #-22]	; 0xffffffea
    1d40:	28000012 	stmdacs	r0, {r1, r4}
    1d44:	76025001 	strvc	r5, [r2], -r1
    1d48:	68270000 	stmdavs	r7!, {}	; <UNPREDICTABLE>
    1d4c:	95000081 	strls	r0, [r0, #-129]	; 0xffffff7f
    1d50:	99000017 	stmdbls	r0, {r0, r1, r2, r4}
    1d54:	28000012 	stmdacs	r0, {r1, r4}
    1d58:	77025001 	strvc	r5, [r2, -r1]
    1d5c:	70270000 	eorvc	r0, r7, r0
    1d60:	95000081 	strls	r0, [r0, #-129]	; 0xffffff7f
    1d64:	b0000017 	andlt	r0, r0, r7, lsl r0
    1d68:	28000012 	stmdacs	r0, {r1, r4}
    1d6c:	03055001 	movweq	r5, #20481	; 0x5001
    1d70:	00009714 	andeq	r9, r0, r4, lsl r7
    1d74:	81802700 	orrhi	r2, r0, r0, lsl #14
    1d78:	17950000 	ldrne	r0, [r5, r0]
    1d7c:	12d30000 	sbcsne	r0, r3, #0
    1d80:	01280000 			; <UNDEFINED> instruction: 0x01280000
    1d84:	1c030550 	cfstr32ne	mvfx0, [r3], {80}	; 0x50
    1d88:	28000097 	stmdacs	r0, {r0, r1, r2, r4, r7}
    1d8c:	75025101 	strvc	r5, [r2, #-257]	; 0xfffffeff
    1d90:	52012800 	andpl	r2, r1, #0, 16
    1d94:	00007402 	andeq	r7, r0, r2, lsl #8
    1d98:	0081d027 	addeq	sp, r1, r7, lsr #32
    1d9c:	00179500 	andseq	r9, r7, r0, lsl #10
    1da0:	0012e700 	andseq	lr, r2, r0, lsl #14
    1da4:	50012800 	andpl	r2, r1, r0, lsl #16
    1da8:	00007702 	andeq	r7, r0, r2, lsl #14
    1dac:	0081d829 	addeq	sp, r1, r9, lsr #16
    1db0:	00179500 	andseq	r9, r7, r0, lsl #10
    1db4:	50012800 	andpl	r2, r1, r0, lsl #16
    1db8:	97880305 	strls	r0, [r8, r5, lsl #6]
    1dbc:	00000000 	andeq	r0, r0, r0
    1dc0:	069c2f00 	ldreq	r2, [ip], r0, lsl #30
    1dc4:	34010000 	strcc	r0, [r1], #-0
    1dc8:	00000025 	andeq	r0, r0, r5, lsr #32
    1dcc:	0000835c 	andeq	r8, r0, ip, asr r3
    1dd0:	00000108 	andeq	r0, r0, r8, lsl #2
    1dd4:	14629c01 	strbtne	r9, [r2], #-3073	; 0xfffff3ff
    1dd8:	70300000 	eorsvc	r0, r0, r0
    1ddc:	1d340100 	ldfnes	f0, [r4, #-0]
    1de0:	b4000001 	strlt	r0, [r0], #-1
    1de4:	2a000004 	bcs	1dfc <_start-0x6204>
    1de8:	00000677 	andeq	r0, r0, r7, ror r6
    1dec:	002c3401 	eoreq	r3, ip, r1, lsl #8
    1df0:	04f60000 	ldrbteq	r0, [r6], #0
    1df4:	68300000 	ldmdavs	r0!, {}	; <UNPREDICTABLE>
    1df8:	d3340100 	teqle	r4, #0, 2
    1dfc:	3000000b 	andcc	r0, r0, fp
    1e00:	2b000005 	blcs	1e1c <_start-0x61e4>
    1e04:	35010069 	strcc	r0, [r1, #-105]	; 0xffffff97
    1e08:	00000025 	andeq	r0, r0, r5, lsr #32
    1e0c:	00000564 	andeq	r0, r0, r4, ror #10
    1e10:	00003035 	andeq	r3, r0, r5, lsr r0
    1e14:	05d52500 	ldrbeq	r2, [r5, #1280]	; 0x500
    1e18:	38010000 	stmdacc	r1, {}	; <UNPREDICTABLE>
    1e1c:	00000025 	andeq	r0, r0, r5, lsr #32
    1e20:	0000058e 	andeq	r0, r0, lr, lsl #11
    1e24:	00177033 	andseq	r7, r7, r3, lsr r0
    1e28:	0083bc00 	addeq	fp, r3, r0, lsl #24
    1e2c:	00004800 	andeq	r4, r0, r0, lsl #16
    1e30:	08390100 	ldmdaeq	r9!, {r8}
    1e34:	34000014 	strcc	r0, [r0], #-20	; 0xffffffec
    1e38:	0000177c 	andeq	r1, r0, ip, ror r7
    1e3c:	000005ac 	andeq	r0, r0, ip, lsr #11
    1e40:	00004835 	andeq	r4, r0, r5, lsr r8
    1e44:	17853600 	strne	r3, [r5, r0, lsl #12]
    1e48:	05ca0000 	strbeq	r0, [sl]
    1e4c:	c4270000 	strtgt	r0, [r7], #-0
    1e50:	95000083 	strls	r0, [r0, #-131]	; 0xffffff7d
    1e54:	9d000017 	stcls	0, cr0, [r0, #-92]	; 0xffffffa4
    1e58:	28000013 	stmdacs	r0, {r0, r1, r4}
    1e5c:	77025001 	strvc	r5, [r2, -r1]
    1e60:	d0270000 	eorle	r0, r7, r0
    1e64:	95000083 	strls	r0, [r0, #-131]	; 0xffffff7d
    1e68:	b4000017 	strlt	r0, [r0], #-23	; 0xffffffe9
    1e6c:	28000013 	stmdacs	r0, {r0, r1, r4}
    1e70:	03055001 	movweq	r5, #20481	; 0x5001
    1e74:	00009740 	andeq	r9, r0, r0, asr #14
    1e78:	83e42700 	mvnhi	r2, #0, 14
    1e7c:	17950000 	ldrne	r0, [r5, r0]
    1e80:	13c80000 	bicne	r0, r8, #0
    1e84:	01280000 			; <UNDEFINED> instruction: 0x01280000
    1e88:	00770250 	rsbseq	r0, r7, r0, asr r2
    1e8c:	83f82700 	mvnshi	r2, #0, 14
    1e90:	17950000 	ldrne	r0, [r5, r0]
    1e94:	13df0000 	bicsne	r0, pc, #0
    1e98:	01280000 			; <UNDEFINED> instruction: 0x01280000
    1e9c:	4c030550 	cfstr32mi	mvfx0, [r3], {80}	; 0x50
    1ea0:	00000097 	muleq	r0, r7, r0
    1ea4:	00842027 	addeq	r2, r4, r7, lsr #32
    1ea8:	00179500 	andseq	r9, r7, r0, lsl #10
    1eac:	0013f300 	andseq	pc, r3, r0, lsl #6
    1eb0:	50012800 	andpl	r2, r1, r0, lsl #16
    1eb4:	00007702 	andeq	r7, r0, r2, lsl #14
    1eb8:	00843429 	addeq	r3, r4, r9, lsr #8
    1ebc:	00179500 	andseq	r9, r7, r0, lsl #10
    1ec0:	50012800 	andpl	r2, r1, r0, lsl #16
    1ec4:	976c0305 	strbls	r0, [ip, -r5, lsl #6]!
    1ec8:	00000000 	andeq	r0, r0, r0
    1ecc:	838c2700 	orrhi	r2, ip, #0, 14
    1ed0:	166d0000 	strbtne	r0, [sp], -r0
    1ed4:	141c0000 	ldrne	r0, [ip], #-0
    1ed8:	01280000 			; <UNDEFINED> instruction: 0x01280000
    1edc:	00760250 	rsbseq	r0, r6, r0, asr r2
    1ee0:	83a02700 	movhi	r2, #0, 14
    1ee4:	17950000 	ldrne	r0, [r5, r0]
    1ee8:	14300000 	ldrtne	r0, [r0], #-0
    1eec:	01280000 			; <UNDEFINED> instruction: 0x01280000
    1ef0:	00770250 	rsbseq	r0, r7, r0, asr r2
    1ef4:	83a82700 			; <UNDEFINED> instruction: 0x83a82700
    1ef8:	17950000 	ldrne	r0, [r5, r0]
    1efc:	14470000 	strbne	r0, [r7], #-0
    1f00:	01280000 			; <UNDEFINED> instruction: 0x01280000
    1f04:	14030550 	strne	r0, [r3], #-1360	; 0xfffffab0
    1f08:	00000097 	muleq	r0, r7, r0
    1f0c:	0083bc29 	addeq	fp, r3, r9, lsr #24
    1f10:	00179500 	andseq	r9, r7, r0, lsl #10
    1f14:	50012800 	andpl	r2, r1, r0, lsl #16
    1f18:	971c0305 	ldrls	r0, [ip, -r5, lsl #6]
    1f1c:	01280000 			; <UNDEFINED> instruction: 0x01280000
    1f20:	00740252 	rsbseq	r0, r4, r2, asr r2
    1f24:	2f000000 	svccs	0x00000000
    1f28:	00000618 	andeq	r0, r0, r8, lsl r6
    1f2c:	00252a01 	eoreq	r2, r5, r1, lsl #20
    1f30:	82680000 	rsbhi	r0, r8, #0
    1f34:	00f40000 	rscseq	r0, r4, r0
    1f38:	9c010000 	stcls	0, cr0, [r1], {-0}
    1f3c:	0000158f 	andeq	r1, r0, pc, lsl #11
    1f40:	01006830 	tsteq	r0, r0, lsr r8
    1f44:	000bd32a 	andeq	sp, fp, sl, lsr #6
    1f48:	0005f900 	andeq	pc, r5, r0, lsl #18
    1f4c:	17703300 	ldrbne	r3, [r0, -r0, lsl #6]!
    1f50:	82a40000 	adchi	r0, r4, #0
    1f54:	00180000 	andseq	r0, r8, r0
    1f58:	2d010000 	stccs	0, cr0, [r1, #-0]
    1f5c:	00001531 	andeq	r1, r0, r1, lsr r5
    1f60:	00177c34 	andseq	r7, r7, r4, lsr ip
    1f64:	00062d00 	andeq	r2, r6, r0, lsl #26
    1f68:	00183500 	andseq	r3, r8, r0, lsl #10
    1f6c:	85360000 	ldrhi	r0, [r6, #-0]!
    1f70:	4b000017 	blmi	1fd4 <_start-0x602c>
    1f74:	27000006 	strcs	r0, [r0, -r6]
    1f78:	000082ac 	andeq	r8, r0, ip, lsr #5
    1f7c:	00001795 	muleq	r0, r5, r7
    1f80:	000014c6 	andeq	r1, r0, r6, asr #9
    1f84:	02500128 	subseq	r0, r0, #40, 2
    1f88:	27000075 	smlsdxcs	r0, r5, r0, r0
    1f8c:	000082b8 			; <UNDEFINED> instruction: 0x000082b8
    1f90:	00001795 	muleq	r0, r5, r7
    1f94:	000014dd 	ldrdeq	r1, [r0], -sp
    1f98:	05500128 	ldrbeq	r0, [r0, #-296]	; 0xfffffed8
    1f9c:	00974003 	addseq	r4, r7, r3
    1fa0:	cc270000 	stcgt	0, cr0, [r7], #-0
    1fa4:	95000082 	strls	r0, [r0, #-130]	; 0xffffff7e
    1fa8:	f1000017 	cps	#23
    1fac:	28000014 	stmdacs	r0, {r2, r4}
    1fb0:	75025001 	strvc	r5, [r2, #-1]
    1fb4:	e0270000 	eor	r0, r7, r0
    1fb8:	95000082 	strls	r0, [r0, #-130]	; 0xffffff7e
    1fbc:	08000017 	stmdaeq	r0, {r0, r1, r2, r4}
    1fc0:	28000015 	stmdacs	r0, {r0, r2, r4}
    1fc4:	03055001 	movweq	r5, #20481	; 0x5001
    1fc8:	0000974c 	andeq	r9, r0, ip, asr #14
    1fcc:	83202700 	nophi	{0}	; <UNPREDICTABLE>
    1fd0:	17950000 	ldrne	r0, [r5, r0]
    1fd4:	151c0000 	ldrne	r0, [ip, #-0]
    1fd8:	01280000 			; <UNDEFINED> instruction: 0x01280000
    1fdc:	00750250 	rsbseq	r0, r5, r0, asr r2
    1fe0:	83342900 	teqhi	r4, #0, 18
    1fe4:	17950000 	ldrne	r0, [r5, r0]
    1fe8:	01280000 			; <UNDEFINED> instruction: 0x01280000
    1fec:	6c030550 	cfstr32vs	mvfx0, [r3], {80}	; 0x50
    1ff0:	00000097 	muleq	r0, r7, r0
    1ff4:	8c270000 	stchi	0, cr0, [r7], #-0
    1ff8:	95000082 	strls	r0, [r0, #-130]	; 0xffffff7e
    1ffc:	45000017 	strmi	r0, [r0, #-23]	; 0xffffffe9
    2000:	28000015 	stmdacs	r0, {r0, r2, r4}
    2004:	75025001 	strvc	r5, [r2, #-1]
    2008:	94270000 	strtls	r0, [r7], #-0
    200c:	95000082 	strls	r0, [r0, #-130]	; 0xffffff7e
    2010:	5c000017 	stcpl	0, cr0, [r0], {23}
    2014:	28000015 	stmdacs	r0, {r0, r2, r4}
    2018:	03055001 	movweq	r5, #20481	; 0x5001
    201c:	00009714 	andeq	r9, r0, r4, lsl r7
    2020:	82a42700 	adchi	r2, r4, #0, 14
    2024:	17950000 	ldrne	r0, [r5, r0]
    2028:	157e0000 	ldrbne	r0, [lr, #-0]!
    202c:	01280000 			; <UNDEFINED> instruction: 0x01280000
    2030:	1c030550 	cfstr32ne	mvfx0, [r3], {80}	; 0x50
    2034:	28000097 	stmdacs	r0, {r0, r1, r2, r4, r7}
    2038:	74025101 	strvc	r5, [r2], #-257	; 0xfffffeff
    203c:	52012800 	andpl	r2, r1, #0, 16
    2040:	29003001 	stmdbcs	r0, {r0, ip, sp}
    2044:	000082fc 	strdeq	r8, [r0], -ip
    2048:	0000158f 	andeq	r1, r0, pc, lsl #11
    204c:	02500128 	subseq	r0, r0, #40, 2
    2050:	00000074 	andeq	r0, r0, r4, ror r0
    2054:	0005e42f 	andeq	lr, r5, pc, lsr #8
    2058:	68210100 	stmdavs	r1!, {r8}
    205c:	44000000 	strmi	r0, [r0], #-0
    2060:	24000082 	strcs	r0, [r0], #-130	; 0xffffff7e
    2064:	01000000 	mrseq	r0, (UNDEF: 0)
    2068:	0015e69c 	mulseq	r5, ip, r6
    206c:	00683000 	rsbeq	r3, r8, r0
    2070:	0bd32101 	bleq	ff4ca47c <__bss_end__+0xff4c043c>
    2074:	067a0000 	ldrbteq	r0, [sl], -r0
    2078:	6f370000 	svcvs	0x00370000
    207c:	0100646c 	tsteq	r0, ip, ror #8
    2080:	00002c22 	andeq	r2, r0, r2, lsr #24
    2084:	23550100 	cmpcs	r5, #0, 2
    2088:	000005e8 	andeq	r0, r0, r8, ror #11
    208c:	00682401 	rsbeq	r2, r8, r1, lsl #8
    2090:	50010000 	andpl	r0, r1, r0
    2094:	00826029 	addeq	r6, r2, r9, lsr #32
    2098:	0017c100 	andseq	ip, r7, r0, lsl #2
    209c:	50012800 	andpl	r2, r1, r0, lsl #16
    20a0:	28007402 	stmdacs	r0, {r1, sl, ip, sp, lr}
    20a4:	08025101 	stmdaeq	r2, {r0, r8, ip, lr}
    20a8:	2f000038 	svccs	0x00000038
    20ac:	000005bd 			; <UNDEFINED> instruction: 0x000005bd
    20b0:	0bd31c01 	bleq	ff4c90bc <__bss_end__+0xff4bf07c>
    20b4:	811c0000 	tsthi	ip, r0
    20b8:	00080000 	andeq	r0, r8, r0
    20bc:	9c010000 	stcls	0, cr0, [r1], {-0}
    20c0:	0000160f 	andeq	r1, r0, pc, lsl #12
    20c4:	000b652a 	andeq	r6, fp, sl, lsr #10
    20c8:	1b1c0100 	blne	7024d0 <__bss_end__+0x6f8490>
    20cc:	98000001 	stmdals	r0, {r0}
    20d0:	00000006 	andeq	r0, r0, r6
    20d4:	0006712f 	andeq	r7, r6, pc, lsr #2
    20d8:	2c190100 	ldfcss	f0, [r9], {-0}
    20dc:	10000000 	andne	r0, r0, r0
    20e0:	0c000081 	stceq	0, cr0, [r0], {129}	; 0x81
    20e4:	01000000 	mrseq	r0, (UNDEF: 0)
    20e8:	0016369c 	mulseq	r6, ip, r6
    20ec:	00683000 	rsbeq	r3, r8, r0
    20f0:	0bd31901 	bleq	ff4c84fc <__bss_end__+0xff4be4bc>
    20f4:	06b90000 	ldrteq	r0, [r9], r0
    20f8:	2f000000 	svccs	0x00000000
    20fc:	00000622 	andeq	r0, r0, r2, lsr #12
    2100:	011b1701 	tsteq	fp, r1, lsl #14
    2104:	80f80000 	rscshi	r0, r8, r0
    2108:	00180000 	andseq	r0, r8, r0
    210c:	9c010000 	stcls	0, cr0, [r1], {-0}
    2110:	0000166d 	andeq	r1, r0, sp, ror #12
    2114:	01006830 	tsteq	r0, r0, lsr r8
    2118:	000bd317 	andeq	sp, fp, r7, lsl r3
    211c:	0006da00 	andeq	sp, r6, r0, lsl #20
    2120:	81042900 	tsthi	r4, r0, lsl #18
    2124:	166d0000 	strbtne	r0, [sp], -r0
    2128:	01280000 			; <UNDEFINED> instruction: 0x01280000
    212c:	00740250 	rsbseq	r0, r4, r0, asr r2
    2130:	fb2f0000 	blx	bc213a <__bss_end__+0xbb80fa>
    2134:	01000005 	tsteq	r0, r5
    2138:	00011b15 	andeq	r1, r1, r5, lsl fp
    213c:	0080e800 	addeq	lr, r0, r0, lsl #16
    2140:	00001000 	andeq	r1, r0, r0
    2144:	a59c0100 	ldrge	r0, [ip, #256]	; 0x100
    2148:	30000016 	andcc	r0, r0, r6, lsl r0
    214c:	15010068 	strne	r0, [r1, #-104]	; 0xffffff98
    2150:	00000bd3 	ldrdeq	r0, [r0], -r3
    2154:	000006f8 	strdeq	r0, [r0], -r8
    2158:	0080f029 	addeq	pc, r0, r9, lsr #32
    215c:	0016a500 	andseq	sl, r6, r0, lsl #10
    2160:	50012800 	andpl	r2, r1, r0, lsl #16
    2164:	5001f303 	andpl	pc, r1, r3, lsl #6
    2168:	582f0000 	stmdapl	pc!, {}	; <UNPREDICTABLE>
    216c:	01000005 	tsteq	r0, r5
    2170:	00011b13 	andeq	r1, r1, r3, lsl fp
    2174:	0080e000 	addeq	lr, r0, r0
    2178:	00000800 	andeq	r0, r0, r0, lsl #16
    217c:	cc9c0100 	ldfgts	f0, [ip], {0}
    2180:	30000016 	andcc	r0, r0, r6, lsl r0
    2184:	13010068 	movwne	r0, #4200	; 0x1068
    2188:	00000bd3 	ldrdeq	r0, [r0], -r3
    218c:	00000719 	andeq	r0, r0, r9, lsl r7
    2190:	01462e00 	cmpeq	r6, r0, lsl #28
    2194:	09010000 	stmdbeq	r1, {}	; <UNPREDICTABLE>
    2198:	000084c8 	andeq	r8, r0, r8, asr #9
    219c:	00000074 	andeq	r0, r0, r4, ror r0
    21a0:	17709c01 	ldrbne	r9, [r0, -r1, lsl #24]!
    21a4:	5e2a0000 	cdppl	0, 2, cr0, cr10, cr0, {0}
    21a8:	0100000b 	tsteq	r0, fp
    21ac:	00011b09 	andeq	r1, r1, r9, lsl #22
    21b0:	00073900 	andeq	r3, r7, r0, lsl #18
    21b4:	006e3000 	rsbeq	r3, lr, r0
    21b8:	002c0901 	eoreq	r0, ip, r1, lsl #18
    21bc:	077f0000 	ldrbeq	r0, [pc, -r0]!
    21c0:	1f2c0000 	svcne	0x002c0000
    21c4:	14000002 	strne	r0, [r0], #-2
    21c8:	0500000f 	streq	r0, [r0, #-15]
    21cc:	0096fc03 	addseq	pc, r6, r3, lsl #24
    21d0:	84f42700 	ldrbthi	r2, [r4], #1792	; 0x700
    21d4:	17950000 	ldrne	r0, [r5, r0]
    21d8:	172f0000 	strne	r0, [pc, -r0]!
    21dc:	01280000 			; <UNDEFINED> instruction: 0x01280000
    21e0:	d8030550 	stmdale	r3, {r4, r6, r8, sl}
    21e4:	28000097 	stmdacs	r0, {r0, r1, r2, r4, r7}
    21e8:	08025101 	stmdaeq	r2, {r0, r8, ip, lr}
    21ec:	52012838 	andpl	r2, r1, #56, 16	; 0x380000
    21f0:	00800802 	addeq	r0, r0, r2, lsl #16
    21f4:	0085102d 	addeq	r1, r5, sp, lsr #32
    21f8:	0017a000 	andseq	sl, r7, r0
    21fc:	85242700 	strhi	r2, [r4, #-1792]!	; 0xfffff900
    2200:	17950000 	ldrne	r0, [r5, r0]
    2204:	17660000 	strbne	r0, [r6, -r0]!
    2208:	01280000 			; <UNDEFINED> instruction: 0x01280000
    220c:	b0030550 	andlt	r0, r3, r0, asr r5
    2210:	28000097 	stmdacs	r0, {r0, r1, r2, r4, r7}
    2214:	03055101 	movweq	r5, #20737	; 0x5101
    2218:	000097a4 	andeq	r9, r0, r4, lsr #15
    221c:	05520128 	ldrbeq	r0, [r2, #-296]	; 0xfffffed8
    2220:	0096fc03 	addseq	pc, r6, r3, lsl #24
    2224:	53012800 	movwpl	r2, #6144	; 0x1800
    2228:	2d003a01 	vstrcs	s6, [r0, #-4]
    222c:	00008528 	andeq	r8, r0, r8, lsr #10
    2230:	000017ab 	andeq	r1, r0, fp, lsr #15
    2234:	064d3800 	strbeq	r3, [sp], -r0, lsl #16
    2238:	55020000 	strpl	r0, [r2, #-0]
    223c:	00178f03 	andseq	r8, r7, r3, lsl #30
    2240:	00683900 	rsbeq	r3, r8, r0, lsl #18
    2244:	0bd35502 	bleq	ff4d7654 <__bss_end__+0xff4cd614>
    2248:	6c3a0000 	ldcvs	0, cr0, [sl], #-0
    224c:	8f570200 	svchi	0x00570200
    2250:	00000017 	andeq	r0, r0, r7, lsl r0
    2254:	091a040d 	ldmdbeq	sl, {r0, r2, r3, sl}
    2258:	ba3b0000 	blt	ec2260 <__bss_end__+0xeb8220>
    225c:	ba000006 	blt	227c <_start-0x5d84>
    2260:	08000006 	stmdaeq	r0, {r1, r2}
    2264:	01fa3b29 	mvnseq	r3, r9, lsr #22
    2268:	01fa0000 	mvnseq	r0, r0
    226c:	1e080000 	cdpne	0, 0, cr0, cr8, cr0, {0}
    2270:	0002a13b 	andeq	sl, r2, fp, lsr r1
    2274:	0002a100 	andeq	sl, r2, r0, lsl #2
    2278:	3b650800 	blcc	1944280 <__bss_end__+0x193a240>
    227c:	00000492 	muleq	r0, r2, r4
    2280:	00000492 	muleq	r0, r2, r4
    2284:	453b1909 	ldrmi	r1, [fp, #-2313]!	; 0xfffff6f7
    2288:	45000005 	strmi	r0, [r0, #-5]
    228c:	0a000005 	beq	22a8 <_start-0x5d58>
    2290:	098e0005 	stmibeq	lr, {r0, r2}
    2294:	00040000 	andeq	r0, r4, r0
    2298:	0000052c 	andeq	r0, r0, ip, lsr #10
    229c:	03db0104 	bicseq	r0, fp, #4, 2
    22a0:	d50c0000 	strle	r0, [ip, #-0]
    22a4:	e3000006 	movw	r0, #6
    22a8:	58000006 	stmdapl	r0, {r1, r2}
    22ac:	58000089 	stmdapl	r0, {r0, r3, r7}
    22b0:	6d000000 	stcvs	0, cr0, [r0, #-0]
    22b4:	02000003 	andeq	r0, r0, #3
    22b8:	000006c1 	andeq	r0, r0, r1, asr #13
    22bc:	00302802 	eorseq	r2, r0, r2, lsl #16
    22c0:	ad030000 	stcge	0, cr0, [r3, #-0]
    22c4:	04000006 	streq	r0, [r0], #-6
    22c8:	00470007 	subeq	r0, r7, r7
    22cc:	d0040000 	andle	r0, r4, r0
    22d0:	47000006 	strmi	r0, [r0, -r6]
    22d4:	00000000 	andeq	r0, r0, r0
    22d8:	02040500 	andeq	r0, r4, #0, 10
    22dc:	000006af 	andeq	r0, r0, pc, lsr #13
    22e0:	00256302 	eoreq	r6, r5, r2, lsl #6
    22e4:	04060000 	streq	r0, [r6], #-0
    22e8:	746e6905 	strbtvc	r6, [lr], #-2309	; 0xfffff6fb
    22ec:	07040700 	streq	r0, [r4, -r0, lsl #14]
    22f0:	00000074 	andeq	r0, r0, r4, ror r0
    22f4:	ff060107 			; <UNDEFINED> instruction: 0xff060107
    22f8:	07000002 	streq	r0, [r0, -r2]
    22fc:	03190502 	tsteq	r9, #8388608	; 0x800000
    2300:	04070000 	streq	r0, [r7], #-0
    2304:	0000bd05 	andeq	fp, r0, r5, lsl #26
    2308:	05080700 	streq	r0, [r8, #-1792]	; 0xfffff900
    230c:	000000b8 	strheq	r0, [r0], -r8
    2310:	fd080107 	stc2	1, cr0, [r8, #-28]	; 0xffffffe4
    2314:	07000002 	streq	r0, [r0, -r2]
    2318:	02330702 	eorseq	r0, r3, #524288	; 0x80000
    231c:	04070000 	streq	r0, [r7], #-0
    2320:	00006f07 	andeq	r6, r0, r7, lsl #30
    2324:	07080700 	streq	r0, [r8, -r0, lsl #14]
    2328:	0000006a 	andeq	r0, r0, sl, rrx
    232c:	0002eb02 	andeq	lr, r2, r2, lsl #22
    2330:	54070300 	strpl	r0, [r7], #-768	; 0xfffffd00
    2334:	02000000 	andeq	r0, r0, #0
    2338:	000002da 	ldrdeq	r0, [r0], -sl
    233c:	00702c04 	rsbseq	r2, r0, r4, lsl #24
    2340:	c4020000 	strgt	r0, [r2], #-0
    2344:	04000003 	streq	r0, [r0], #-3
    2348:	00007072 	andeq	r7, r0, r2, ror r0
    234c:	02760800 	rsbseq	r0, r6, #0, 16
    2350:	65050000 	strvs	r0, [r5, #-0]
    2354:	00005b01 	andeq	r5, r0, r1, lsl #22
    2358:	04040900 	streq	r0, [r4], #-2304	; 0xfffff700
    235c:	0000e6a6 	andeq	lr, r0, r6, lsr #13
    2360:	02700a00 	rsbseq	r0, r0, #0, 20
    2364:	a8040000 	stmdage	r4, {}	; <UNPREDICTABLE>
    2368:	000000bb 	strheq	r0, [r0], -fp
    236c:	0001f30a 	andeq	pc, r1, sl, lsl #6
    2370:	e6a90400 	strt	r0, [r9], r0, lsl #8
    2374:	00000000 	andeq	r0, r0, r0
    2378:	00007e0b 	andeq	r7, r0, fp, lsl #28
    237c:	0000f600 	andeq	pc, r0, r0, lsl #12
    2380:	00f60c00 	rscseq	r0, r6, r0, lsl #24
    2384:	00030000 	andeq	r0, r3, r0
    2388:	ae070407 	cdpge	4, 0, cr0, cr7, cr7, {0}
    238c:	0d000002 	stceq	0, cr0, [r0, #-8]
    2390:	1ea30408 	cdpne	4, 10, cr0, cr3, cr8, {0}
    2394:	0e000001 	cdpeq	0, 0, cr0, cr0, cr1, {0}
    2398:	000003ae 	andeq	r0, r0, lr, lsr #7
    239c:	0054a504 	subseq	sl, r4, r4, lsl #10
    23a0:	0e000000 	cdpeq	0, 0, cr0, cr0, cr0, {0}
    23a4:	000003b6 			; <UNDEFINED> instruction: 0x000003b6
    23a8:	00c7aa04 	sbceq	sl, r7, r4, lsl #20
    23ac:	00040000 	andeq	r0, r4, r0
    23b0:	00034102 	andeq	r4, r3, r2, lsl #2
    23b4:	fdab0400 	stc2	4, cr0, [fp]
    23b8:	02000000 	andeq	r0, r0, #0
    23bc:	000001b0 			; <UNDEFINED> instruction: 0x000001b0
    23c0:	009aaf04 	addseq	sl, sl, r4, lsl #30
    23c4:	040f0000 	streq	r0, [pc], #-0	; 23cc <_start-0x5c34>
    23c8:	0000013a 	andeq	r0, r0, sl, lsr r1
    23cc:	06080107 	streq	r0, [r8], -r7, lsl #2
    23d0:	10000003 	andne	r0, r0, r3
    23d4:	0000013a 	andeq	r0, r0, sl, lsr r1
    23d8:	00045802 	andeq	r5, r4, r2, lsl #16
    23dc:	8c160600 	ldchi	6, cr0, [r6], {-0}
    23e0:	03000000 	movweq	r0, #0
    23e4:	000001c1 	andeq	r0, r0, r1, asr #3
    23e8:	a42d0618 	strtge	r0, [sp], #-1560	; 0xfffff9e8
    23ec:	0e000001 	cdpeq	0, 0, cr0, cr0, cr1, {0}
    23f0:	00000362 	andeq	r0, r0, r2, ror #6
    23f4:	01a42f06 			; <UNDEFINED> instruction: 0x01a42f06
    23f8:	11000000 	mrsne	r0, (UNDEF: 0)
    23fc:	06006b5f 			; <UNDEFINED> instruction: 0x06006b5f
    2400:	00005430 	andeq	r5, r0, r0, lsr r4
    2404:	990e0400 	stmdbls	lr, {sl}
    2408:	06000003 	streq	r0, [r0], -r3
    240c:	00005430 	andeq	r5, r0, r0, lsr r4
    2410:	aa0e0800 	bge	384418 <__bss_end__+0x37a3d8>
    2414:	06000001 	streq	r0, [r0], -r1
    2418:	00005430 	andeq	r5, r0, r0, lsr r4
    241c:	a60e0c00 	strge	r0, [lr], -r0, lsl #24
    2420:	06000004 	streq	r0, [r0], -r4
    2424:	00005430 	andeq	r5, r0, r0, lsr r4
    2428:	5f111000 	svcpl	0x00111000
    242c:	31060078 	tstcc	r6, r8, ror r0
    2430:	000001aa 	andeq	r0, r0, sl, lsr #3
    2434:	040f0014 	streq	r0, [pc], #-20	; 243c <_start-0x5bc4>
    2438:	00000151 	andeq	r0, r0, r1, asr r1
    243c:	0001460b 	andeq	r4, r1, fp, lsl #12
    2440:	0001ba00 	andeq	fp, r1, r0, lsl #20
    2444:	00f60c00 	rscseq	r0, r6, r0, lsl #24
    2448:	00000000 	andeq	r0, r0, r0
    244c:	0001ee03 	andeq	lr, r1, r3, lsl #28
    2450:	35062400 	strcc	r2, [r6, #-1024]	; 0xfffffc00
    2454:	00000233 	andeq	r0, r0, r3, lsr r2
    2458:	0000af0e 	andeq	sl, r0, lr, lsl #30
    245c:	54370600 	ldrtpl	r0, [r7], #-1536	; 0xfffffa00
    2460:	00000000 	andeq	r0, r0, r0
    2464:	0003cc0e 	andeq	ip, r3, lr, lsl #24
    2468:	54380600 	ldrtpl	r0, [r8], #-1536	; 0xfffffa00
    246c:	04000000 	streq	r0, [r0], #-0
    2470:	0000d20e 	andeq	sp, r0, lr, lsl #4
    2474:	54390600 	ldrtpl	r0, [r9], #-1536	; 0xfffffa00
    2478:	08000000 	stmdaeq	r0, {}	; <UNPREDICTABLE>
    247c:	0005270e 	andeq	r2, r5, lr, lsl #14
    2480:	543a0600 	ldrtpl	r0, [sl], #-1536	; 0xfffffa00
    2484:	0c000000 	stceq	0, cr0, [r0], {-0}
    2488:	0002be0e 	andeq	fp, r2, lr, lsl #28
    248c:	543b0600 	ldrtpl	r0, [fp], #-1536	; 0xfffffa00
    2490:	10000000 	andne	r0, r0, r0
    2494:	0002970e 	andeq	r9, r2, lr, lsl #14
    2498:	543c0600 	ldrtpl	r0, [ip], #-1536	; 0xfffffa00
    249c:	14000000 	strne	r0, [r0], #-0
    24a0:	0004ab0e 	andeq	sl, r4, lr, lsl #22
    24a4:	543d0600 	ldrtpl	r0, [sp], #-1536	; 0xfffffa00
    24a8:	18000000 	stmdane	r0, {}	; <UNPREDICTABLE>
    24ac:	0003230e 	andeq	r2, r3, lr, lsl #6
    24b0:	543e0600 	ldrtpl	r0, [lr], #-1536	; 0xfffffa00
    24b4:	1c000000 	stcne	0, cr0, [r0], {-0}
    24b8:	0004ee0e 	andeq	lr, r4, lr, lsl #28
    24bc:	543f0600 	ldrtpl	r0, [pc], #-1536	; 24c4 <_start-0x5b3c>
    24c0:	20000000 	andcs	r0, r0, r0
    24c4:	01121200 	tsteq	r2, r0, lsl #4
    24c8:	01080000 	mrseq	r0, (UNDEF: 8)
    24cc:	02734806 	rsbseq	r4, r3, #393216	; 0x60000
    24d0:	9d0e0000 	stcls	0, cr0, [lr, #-0]
    24d4:	06000001 	streq	r0, [r0], -r1
    24d8:	00027349 	andeq	r7, r2, r9, asr #6
    24dc:	000e0000 	andeq	r0, lr, r0
    24e0:	06000000 	streq	r0, [r0], -r0
    24e4:	0002734a 	andeq	r7, r2, sl, asr #6
    24e8:	4a138000 	bmi	4e24f0 <__bss_end__+0x4d84b0>
    24ec:	06000004 	streq	r0, [r0], -r4
    24f0:	0001464c 	andeq	r4, r1, ip, asr #12
    24f4:	13010000 	movwne	r0, #4096	; 0x1000
    24f8:	00000137 	andeq	r0, r0, r7, lsr r1
    24fc:	01464f06 	cmpeq	r6, r6, lsl #30
    2500:	01040000 	mrseq	r0, (UNDEF: 4)
    2504:	00470b00 	subeq	r0, r7, r0, lsl #22
    2508:	02830000 	addeq	r0, r3, #0
    250c:	f60c0000 			; <UNDEFINED> instruction: 0xf60c0000
    2510:	1f000000 	svcne	0x00000000
    2514:	02c71200 	sbceq	r1, r7, #0, 4
    2518:	01900000 	orrseq	r0, r0, r0
    251c:	02c15b06 	sbceq	r5, r1, #6144	; 0x1800
    2520:	620e0000 	andvs	r0, lr, #0
    2524:	06000003 	streq	r0, [r0], -r3
    2528:	0002c15c 	andeq	ip, r2, ip, asr r1
    252c:	7a0e0000 	bvc	382534 <__bss_end__+0x3784f4>
    2530:	06000003 	streq	r0, [r0], -r3
    2534:	0000545d 	andeq	r5, r0, sp, asr r4
    2538:	a50e0400 	strge	r0, [lr, #-1024]	; 0xfffffc00
    253c:	06000001 	streq	r0, [r0], -r1
    2540:	0002c75f 	andeq	ip, r2, pc, asr r7
    2544:	120e0800 	andne	r0, lr, #0, 16
    2548:	06000001 	streq	r0, [r0], -r1
    254c:	00023360 	andeq	r3, r2, r0, ror #6
    2550:	0f008800 	svceq	0x00008800
    2554:	00028304 	andeq	r8, r2, r4, lsl #6
    2558:	02d70b00 	sbcseq	r0, r7, #0, 22
    255c:	02d70000 	sbcseq	r0, r7, #0
    2560:	f60c0000 			; <UNDEFINED> instruction: 0xf60c0000
    2564:	1f000000 	svcne	0x00000000
    2568:	dd040f00 	stcle	15, cr0, [r4, #-0]
    256c:	14000002 	strne	r0, [r0], #-2
    2570:	00032d03 	andeq	r2, r3, r3, lsl #26
    2574:	73060800 	movwvc	r0, #26624	; 0x6800
    2578:	00000303 	andeq	r0, r0, r3, lsl #6
    257c:	0000cc0e 	andeq	ip, r0, lr, lsl #24
    2580:	03740600 	cmneq	r4, #0, 12
    2584:	00000003 	andeq	r0, r0, r3
    2588:	00001b0e 	andeq	r1, r0, lr, lsl #22
    258c:	54750600 	ldrbtpl	r0, [r5], #-1536	; 0xfffffa00
    2590:	04000000 	streq	r0, [r0], #-0
    2594:	7e040f00 	cdpvc	15, 0, cr0, cr4, cr0, {0}
    2598:	03000000 	movweq	r0, #0
    259c:	0000034c 	andeq	r0, r0, ip, asr #6
    25a0:	33b30668 			; <UNDEFINED> instruction: 0x33b30668
    25a4:	11000004 	tstne	r0, r4
    25a8:	0600705f 			; <UNDEFINED> instruction: 0x0600705f
    25ac:	000303b4 			; <UNDEFINED> instruction: 0x000303b4
    25b0:	5f110000 	svcpl	0x00110000
    25b4:	b5060072 	strlt	r0, [r6, #-114]	; 0xffffff8e
    25b8:	00000054 	andeq	r0, r0, r4, asr r0
    25bc:	775f1104 	ldrbvc	r1, [pc, -r4, lsl #2]
    25c0:	54b60600 	ldrtpl	r0, [r6], #1536	; 0x600
    25c4:	08000000 	stmdaeq	r0, {}	; <UNPREDICTABLE>
    25c8:	0001300e 	andeq	r3, r1, lr
    25cc:	69b70600 	ldmibvs	r7!, {r9, sl}
    25d0:	0c000000 	stceq	0, cr0, [r0], {-0}
    25d4:	0002190e 	andeq	r1, r2, lr, lsl #18
    25d8:	69b80600 	ldmibvs	r8!, {r9, sl}
    25dc:	0e000000 	cdpeq	0, 0, cr0, cr0, cr0, {0}
    25e0:	66625f11 	uqadd16vs	r5, r2, r1
    25e4:	deb90600 	cdple	6, 11, cr0, cr9, cr0, {0}
    25e8:	10000002 	andne	r0, r0, r2
    25ec:	0000890e 	andeq	r8, r0, lr, lsl #18
    25f0:	54ba0600 	ldrtpl	r0, [sl], #1536	; 0x600
    25f4:	18000000 	stmdane	r0, {}	; <UNPREDICTABLE>
    25f8:	0001200e 	andeq	r2, r1, lr
    25fc:	47c10600 	strbmi	r0, [r1, r0, lsl #12]
    2600:	1c000000 	stcne	0, cr0, [r0], {-0}
    2604:	000a7d0e 	andeq	r7, sl, lr, lsl #26
    2608:	8ec30600 	cdphi	6, 12, cr0, cr3, cr0, {0}
    260c:	20000005 	andcs	r0, r0, r5
    2610:	0006110e 	andeq	r1, r6, lr, lsl #2
    2614:	b8c50600 	stmialt	r5, {r9, sl}^
    2618:	24000005 	strcs	r0, [r0], #-5
    261c:	0003be0e 	andeq	fp, r3, lr, lsl #28
    2620:	dcc80600 	stclle	6, cr0, [r8], {0}
    2624:	28000005 	stmdacs	r0, {r0, r2}
    2628:	0005080e 	andeq	r0, r5, lr, lsl #16
    262c:	f6c90600 			; <UNDEFINED> instruction: 0xf6c90600
    2630:	2c000005 	stccs	0, cr0, [r0], {5}
    2634:	62755f11 	rsbsvs	r5, r5, #17, 30	; 0x44
    2638:	decc0600 	cdple	6, 12, cr0, cr12, cr0, {0}
    263c:	30000002 	andcc	r0, r0, r2
    2640:	70755f11 	rsbsvc	r5, r5, r1, lsl pc
    2644:	03cd0600 	biceq	r0, sp, #0, 12
    2648:	38000003 	stmdacc	r0, {r0, r1}
    264c:	72755f11 	rsbsvc	r5, r5, #17, 30	; 0x44
    2650:	54ce0600 	strbpl	r0, [lr], #1536	; 0x600
    2654:	3c000000 	stccc	0, cr0, [r0], {-0}
    2658:	0000c60e 	andeq	ip, r0, lr, lsl #12
    265c:	fcd10600 	ldc2l	6, cr0, [r1], {0}
    2660:	40000005 	andmi	r0, r0, r5
    2664:	0004e00e 	andeq	lr, r4, lr
    2668:	0cd20600 	ldcleq	6, cr0, [r2], {0}
    266c:	43000006 	movwmi	r0, #6
    2670:	626c5f11 	rsbvs	r5, ip, #17, 30	; 0x44
    2674:	ded50600 	cdple	6, 13, cr0, cr5, cr0, {0}
    2678:	44000002 	strmi	r0, [r0], #-2
    267c:	00014e0e 	andeq	r4, r1, lr, lsl #28
    2680:	54d80600 	ldrbpl	r0, [r8], #1536	; 0x600
    2684:	4c000000 	stcmi	0, cr0, [r0], {-0}
    2688:	00015f0e 	andeq	r5, r1, lr, lsl #30
    268c:	a5d90600 	ldrbge	r0, [r9, #1536]	; 0x600
    2690:	50000000 	andpl	r0, r0, r0
    2694:	000a1e0e 	andeq	r1, sl, lr, lsl #28
    2698:	51dc0600 	bicspl	r0, ip, r0, lsl #12
    269c:	54000004 	strpl	r0, [r0], #-4
    26a0:	0002840e 	andeq	r8, r2, lr, lsl #8
    26a4:	29e00600 	stmibcs	r0!, {r9, sl}^
    26a8:	58000001 	stmdapl	r0, {r0}
    26ac:	0003540e 	andeq	r5, r3, lr, lsl #8
    26b0:	1ee20600 	cdpne	6, 14, cr0, cr2, cr0, {0}
    26b4:	5c000001 	stcpl	0, cr0, [r0], {1}
    26b8:	00028f0e 	andeq	r8, r2, lr, lsl #30
    26bc:	54e30600 	strbtpl	r0, [r3], #1536	; 0x600
    26c0:	64000000 	strvs	r0, [r0], #-0
    26c4:	00541500 	subseq	r1, r4, r0, lsl #10
    26c8:	04510000 	ldrbeq	r0, [r1], #-0
    26cc:	51160000 	tstpl	r6, r0
    26d0:	16000004 	strne	r0, [r0], -r4
    26d4:	00000047 	andeq	r0, r0, r7, asr #32
    26d8:	00013416 	andeq	r3, r1, r6, lsl r4
    26dc:	00541600 	subseq	r1, r4, r0, lsl #12
    26e0:	0f000000 	svceq	0x00000000
    26e4:	00045c04 	andeq	r5, r4, r4, lsl #24
    26e8:	04511000 	ldrbeq	r1, [r1], #-0
    26ec:	a1170000 	tstge	r7, r0
    26f0:	28000003 	stmdacs	r0, {r0, r1}
    26f4:	02380604 	eorseq	r0, r8, #4, 12	; 0x400000
    26f8:	0000058e 	andeq	r0, r0, lr, lsl #11
    26fc:	00031218 	andeq	r1, r3, r8, lsl r2
    2700:	023a0600 	eorseq	r0, sl, #0, 12
    2704:	00000054 	andeq	r0, r0, r4, asr r0
    2708:	013f1800 	teqeq	pc, r0, lsl #16
    270c:	3f060000 	svccc	0x00060000
    2710:	00066302 	andeq	r6, r6, r2, lsl #6
    2714:	09180400 	ldmdbeq	r8, {sl}
    2718:	06000002 	streq	r0, [r0], -r2
    271c:	0663023f 			; <UNDEFINED> instruction: 0x0663023f
    2720:	18080000 	stmdane	r8, {}	; <UNPREDICTABLE>
    2724:	000001b9 			; <UNDEFINED> instruction: 0x000001b9
    2728:	63023f06 	movwvs	r3, #12038	; 0x2f06
    272c:	0c000006 	stceq	0, cr0, [r0], {6}
    2730:	00037518 	andeq	r7, r3, r8, lsl r5
    2734:	02410600 	subeq	r0, r1, #0, 12
    2738:	00000054 	andeq	r0, r0, r4, asr r0
    273c:	00371810 	eorseq	r1, r7, r0, lsl r8
    2740:	42060000 	andmi	r0, r6, #0
    2744:	00084502 	andeq	r4, r8, r2, lsl #10
    2748:	80181400 	andshi	r1, r8, r0, lsl #8
    274c:	06000004 	streq	r0, [r0], -r4
    2750:	00540244 	subseq	r0, r4, r4, asr #4
    2754:	18300000 	ldmdane	r0!, {}	; <UNPREDICTABLE>
    2758:	0000037f 	andeq	r0, r0, pc, ror r3
    275c:	b2024506 	andlt	r4, r2, #25165824	; 0x1800000
    2760:	34000005 	strcc	r0, [r0], #-5
    2764:	0002cf18 	andeq	ip, r2, r8, lsl pc
    2768:	02470600 	subeq	r0, r7, #0, 12
    276c:	00000054 	andeq	r0, r0, r4, asr r0
    2770:	038f1838 	orreq	r1, pc, #56, 16	; 0x380000
    2774:	49060000 	stmdbmi	r6, {}	; <UNPREDICTABLE>
    2778:	00086002 	andeq	r6, r8, r2
    277c:	68183c00 	ldmdavs	r8, {sl, fp, ip, sp}
    2780:	06000002 	streq	r0, [r0], -r2
    2784:	01a4024c 			; <UNDEFINED> instruction: 0x01a4024c
    2788:	18400000 	stmdane	r0, {}^	; <UNPREDICTABLE>
    278c:	000001d8 	ldrdeq	r0, [r0], -r8
    2790:	54024d06 	strpl	r4, [r2], #-3334	; 0xfffff2fa
    2794:	44000000 	strmi	r0, [r0], #-0
    2798:	00052218 	andeq	r2, r5, r8, lsl r2
    279c:	024e0600 	subeq	r0, lr, #0, 12
    27a0:	000001a4 	andeq	r0, r0, r4, lsr #3
    27a4:	02e11848 	rsceq	r1, r1, #72, 16	; 0x480000
    27a8:	4f060000 	svcmi	0x00060000
    27ac:	00086602 	andeq	r6, r8, r2, lsl #12
    27b0:	11184c00 	tstne	r8, r0, lsl #24
    27b4:	06000002 	streq	r0, [r0], -r2
    27b8:	00540252 	subseq	r0, r4, r2, asr r2
    27bc:	18500000 	ldmdane	r0, {}^	; <UNPREDICTABLE>
    27c0:	00000157 	andeq	r0, r0, r7, asr r1
    27c4:	34025306 	strcc	r5, [r2], #-774	; 0xfffffcfa
    27c8:	54000001 	strpl	r0, [r0], #-1
    27cc:	00030b18 	andeq	r0, r3, r8, lsl fp
    27d0:	02760600 	rsbseq	r0, r6, #0, 12
    27d4:	00000823 	andeq	r0, r0, r3, lsr #16
    27d8:	02c71958 	sbceq	r1, r7, #88, 18	; 0x160000
    27dc:	7a060000 	bvc	1827e4 <__bss_end__+0x1787a4>
    27e0:	0002c102 	andeq	ip, r2, r2, lsl #2
    27e4:	19014800 	stmdbne	r1, {fp, lr}
    27e8:	00000246 	andeq	r0, r0, r6, asr #4
    27ec:	83027b06 	movwhi	r7, #11014	; 0x2b06
    27f0:	4c000002 	stcmi	0, cr0, [r0], {2}
    27f4:	04ce1901 	strbeq	r1, [lr], #2305	; 0x901
    27f8:	7f060000 	svcvc	0x00060000
    27fc:	00087702 	andeq	r7, r8, r2, lsl #14
    2800:	1902dc00 	stmdbne	r2, {sl, fp, ip, lr, pc}
    2804:	00000128 	andeq	r0, r0, r8, lsr #2
    2808:	28028406 	stmdacs	r2, {r1, r2, sl, pc}
    280c:	e0000006 	and	r0, r0, r6
    2810:	010d1902 	tsteq	sp, r2, lsl #18
    2814:	85060000 	strhi	r0, [r6, #-0]
    2818:	00088302 	andeq	r8, r8, r2, lsl #6
    281c:	0002ec00 	andeq	lr, r2, r0, lsl #24
    2820:	0433040f 	ldrteq	r0, [r3], #-1039	; 0xfffffbf1
    2824:	54150000 	ldrpl	r0, [r5], #-0
    2828:	b2000000 	andlt	r0, r0, #0
    282c:	16000005 	strne	r0, [r0], -r5
    2830:	00000451 	andeq	r0, r0, r1, asr r4
    2834:	00004716 	andeq	r4, r0, r6, lsl r7
    2838:	05b21600 	ldreq	r1, [r2, #1536]!	; 0x600
    283c:	54160000 	ldrpl	r0, [r6], #-0
    2840:	00000000 	andeq	r0, r0, r0
    2844:	0141040f 	cmpeq	r1, pc, lsl #8
    2848:	040f0000 	streq	r0, [pc], #-0	; 2850 <_start-0x57b0>
    284c:	00000594 	muleq	r0, r4, r5
    2850:	0000b015 	andeq	fp, r0, r5, lsl r0
    2854:	0005dc00 	andeq	sp, r5, r0, lsl #24
    2858:	04511600 	ldrbeq	r1, [r1], #-1536	; 0xfffffa00
    285c:	47160000 	ldrmi	r0, [r6, -r0]
    2860:	16000000 	strne	r0, [r0], -r0
    2864:	000000b0 	strheq	r0, [r0], -r0	; <UNPREDICTABLE>
    2868:	00005416 	andeq	r5, r0, r6, lsl r4
    286c:	040f0000 	streq	r0, [pc], #-0	; 2874 <_start-0x578c>
    2870:	000005be 			; <UNDEFINED> instruction: 0x000005be
    2874:	00005415 	andeq	r5, r0, r5, lsl r4
    2878:	0005f600 	andeq	pc, r5, r0, lsl #12
    287c:	04511600 	ldrbeq	r1, [r1], #-1536	; 0xfffffa00
    2880:	47160000 	ldrmi	r0, [r6, -r0]
    2884:	00000000 	andeq	r0, r0, r0
    2888:	05e2040f 	strbeq	r0, [r2, #1039]!	; 0x40f
    288c:	7e0b0000 	cdpvc	0, 0, cr0, cr11, cr0, {0}
    2890:	0c000000 	stceq	0, cr0, [r0], {-0}
    2894:	0c000006 	stceq	0, cr0, [r0], {6}
    2898:	000000f6 	strdeq	r0, [r0], -r6
    289c:	7e0b0002 	cdpvc	0, 0, cr0, cr11, cr2, {0}
    28a0:	1c000000 	stcne	0, cr0, [r0], {-0}
    28a4:	0c000006 	stceq	0, cr0, [r0], {6}
    28a8:	000000f6 	strdeq	r0, [r0], -r6
    28ac:	3a080000 	bcc	2028b4 <__bss_end__+0x1f8874>
    28b0:	06000003 	streq	r0, [r0], -r3
    28b4:	0309011d 	movweq	r0, #37149	; 0x911d
    28b8:	b51a0000 	ldrlt	r0, [sl, #-0]
    28bc:	0c000004 	stceq	0, cr0, [r0], {4}
    28c0:	5d012106 	stfpls	f2, [r1, #-24]	; 0xffffffe8
    28c4:	18000006 	stmdane	r0, {r1, r2}
    28c8:	00000362 	andeq	r0, r0, r2, ror #6
    28cc:	5d012306 	stcpl	3, cr2, [r1, #-24]	; 0xffffffe8
    28d0:	00000006 	andeq	r0, r0, r6
    28d4:	00022c18 	andeq	r2, r2, r8, lsl ip
    28d8:	01240600 			; <UNDEFINED> instruction: 0x01240600
    28dc:	00000054 	andeq	r0, r0, r4, asr r0
    28e0:	03341804 	teqeq	r4, #4, 16	; 0x40000
    28e4:	25060000 	strcs	r0, [r6, #-0]
    28e8:	00066301 	andeq	r6, r6, r1, lsl #6
    28ec:	0f000800 	svceq	0x00000800
    28f0:	00062804 	andeq	r2, r6, r4, lsl #16
    28f4:	1c040f00 	stcne	15, cr0, [r4], {-0}
    28f8:	1a000006 	bne	2918 <_start-0x56e8>
    28fc:	0000002f 	andeq	r0, r0, pc, lsr #32
    2900:	013d060e 	teqeq	sp, lr, lsl #12
    2904:	0000069e 	muleq	r0, lr, r6
    2908:	0003a818 	andeq	sl, r3, r8, lsl r8
    290c:	013e0600 	teqeq	lr, r0, lsl #12
    2910:	0000069e 	muleq	r0, lr, r6
    2914:	03d51800 	bicseq	r1, r5, #0, 16
    2918:	3f060000 	svccc	0x00060000
    291c:	00069e01 	andeq	r9, r6, r1, lsl #28
    2920:	53180600 	tstpl	r8, #0, 12
    2924:	06000004 	streq	r0, [r0], -r4
    2928:	00850140 	addeq	r0, r5, r0, asr #2
    292c:	000c0000 	andeq	r0, ip, r0
    2930:	0000850b 	andeq	r8, r0, fp, lsl #10
    2934:	0006ae00 	andeq	sl, r6, r0, lsl #28
    2938:	00f60c00 	rscseq	r0, r6, r0, lsl #24
    293c:	00020000 	andeq	r0, r2, r0
    2940:	5706d01b 	smladpl	r6, fp, r0, sp
    2944:	0007af02 	andeq	sl, r7, r2, lsl #30
    2948:	04991800 	ldreq	r1, [r9], #2048	; 0x800
    294c:	59060000 	stmdbpl	r6, {}	; <UNPREDICTABLE>
    2950:	00005b02 	andeq	r5, r0, r2, lsl #22
    2954:	3d180000 	ldccc	0, cr0, [r8, #-0]
    2958:	06000004 	streq	r0, [r0], -r4
    295c:	0134025a 	teqeq	r4, sl, asr r2
    2960:	18040000 	stmdane	r4, {}	; <UNPREDICTABLE>
    2964:	0000025b 	andeq	r0, r0, fp, asr r2
    2968:	af025b06 	svcge	0x00025b06
    296c:	08000007 	stmdaeq	r0, {r0, r1, r2}
    2970:	0004f918 	andeq	pc, r4, r8, lsl r9	; <UNPREDICTABLE>
    2974:	025c0600 	subseq	r0, ip, #0, 12
    2978:	000001ba 			; <UNDEFINED> instruction: 0x000001ba
    297c:	01c91824 	biceq	r1, r9, r4, lsr #16
    2980:	5d060000 	stcpl	0, cr0, [r6, #-0]
    2984:	00005402 	andeq	r5, r0, r2, lsl #8
    2988:	5d184800 	ldcpl	8, cr4, [r8, #-0]
    298c:	06000003 	streq	r0, [r0], -r3
    2990:	0093025e 	addseq	r0, r3, lr, asr r2
    2994:	18500000 	ldmdane	r0, {}^	; <UNPREDICTABLE>
    2998:	0000050f 	andeq	r0, r0, pc, lsl #10
    299c:	69025f06 	stmdbvs	r2, {r1, r2, r8, r9, sl, fp, ip, lr}
    29a0:	58000006 	stmdapl	r0, {r1, r2}
    29a4:	00036818 	andeq	r6, r3, r8, lsl r8
    29a8:	02600600 	rsbeq	r0, r0, #0, 12
    29ac:	0000011e 	andeq	r0, r0, lr, lsl r1
    29b0:	05141868 	ldreq	r1, [r4, #-2152]	; 0xfffff798
    29b4:	61060000 	mrsvs	r0, (UNDEF: 6)
    29b8:	00011e02 	andeq	r1, r1, r2, lsl #28
    29bc:	a1187000 	tstge	r8, r0
    29c0:	06000000 	streq	r0, [r0], -r0
    29c4:	011e0262 	tsteq	lr, r2, ror #4
    29c8:	18780000 	ldmdane	r8!, {}^	; <UNPREDICTABLE>
    29cc:	000004c4 	andeq	r0, r0, r4, asr #9
    29d0:	bf026306 	svclt	0x00026306
    29d4:	80000007 	andhi	r0, r0, r7
    29d8:	00024f18 	andeq	r4, r2, r8, lsl pc
    29dc:	02640600 	rsbeq	r0, r4, #0, 12
    29e0:	000007cf 	andeq	r0, r0, pc, asr #15
    29e4:	04601888 	strbteq	r1, [r0], #-2184	; 0xfffff778
    29e8:	65060000 	strvs	r0, [r6, #-0]
    29ec:	00005402 	andeq	r5, r0, r2, lsl #8
    29f0:	8f18a000 	svchi	0x0018a000
    29f4:	06000001 	streq	r0, [r0], -r1
    29f8:	011e0266 	tsteq	lr, r6, ror #4
    29fc:	18a40000 	stmiane	r4!, {}	; <UNPREDICTABLE>
    2a00:	00000092 	muleq	r0, r2, r0
    2a04:	1e026706 	cdpne	7, 0, cr6, cr2, cr6, {0}
    2a08:	ac000001 	stcge	0, cr0, [r0], {1}
    2a0c:	00017e18 	andeq	r7, r1, r8, lsl lr
    2a10:	02680600 	rsbeq	r0, r8, #0, 12
    2a14:	0000011e 	andeq	r0, r0, lr, lsl r1
    2a18:	004a18b4 	strheq	r1, [sl], #-132	; 0xffffff7c
    2a1c:	69060000 	stmdbvs	r6, {}	; <UNPREDICTABLE>
    2a20:	00011e02 	andeq	r1, r1, r2, lsl #28
    2a24:	5918bc00 	ldmdbpl	r8, {sl, fp, ip, sp, pc}
    2a28:	06000000 	streq	r0, [r0], -r0
    2a2c:	011e026a 	tsteq	lr, sl, ror #4
    2a30:	18c40000 	stmiane	r4, {}^	; <UNPREDICTABLE>
    2a34:	00000310 	andeq	r0, r0, r0, lsl r3
    2a38:	54026b06 	strpl	r6, [r2], #-2822	; 0xfffff4fa
    2a3c:	cc000000 	stcgt	0, cr0, [r0], {-0}
    2a40:	013a0b00 	teqeq	sl, r0, lsl #22
    2a44:	07bf0000 	ldreq	r0, [pc, r0]!
    2a48:	f60c0000 			; <UNDEFINED> instruction: 0xf60c0000
    2a4c:	19000000 	stmdbne	r0, {}	; <UNPREDICTABLE>
    2a50:	013a0b00 	teqeq	sl, r0, lsl #22
    2a54:	07cf0000 	strbeq	r0, [pc, r0]
    2a58:	f60c0000 			; <UNDEFINED> instruction: 0xf60c0000
    2a5c:	07000000 	streq	r0, [r0, -r0]
    2a60:	013a0b00 	teqeq	sl, r0, lsl #22
    2a64:	07df0000 	ldrbeq	r0, [pc, r0]
    2a68:	f60c0000 			; <UNDEFINED> instruction: 0xf60c0000
    2a6c:	17000000 	strne	r0, [r0, -r0]
    2a70:	06f01b00 	ldrbteq	r1, [r0], r0, lsl #22
    2a74:	08030270 	stmdaeq	r3, {r4, r5, r6, r9}
    2a78:	b7180000 	ldrlt	r0, [r8, -r0]
    2a7c:	06000002 	streq	r0, [r0], -r2
    2a80:	08030273 	stmdaeq	r3, {r0, r1, r4, r5, r6, r9}
    2a84:	18000000 	stmdane	r0, {}	; <UNPREDICTABLE>
    2a88:	000004bb 			; <UNDEFINED> instruction: 0x000004bb
    2a8c:	13027406 	movwne	r7, #9222	; 0x2406
    2a90:	78000008 	stmdavc	r0, {r3}
    2a94:	03030b00 	movweq	r0, #15104	; 0x3b00
    2a98:	08130000 	ldmdaeq	r3, {}	; <UNPREDICTABLE>
    2a9c:	f60c0000 			; <UNDEFINED> instruction: 0xf60c0000
    2aa0:	1d000000 	stcne	0, cr0, [r0, #-0]
    2aa4:	005b0b00 	subseq	r0, fp, r0, lsl #22
    2aa8:	08230000 	stmdaeq	r3!, {}	; <UNPREDICTABLE>
    2aac:	f60c0000 			; <UNDEFINED> instruction: 0xf60c0000
    2ab0:	1d000000 	stcne	0, cr0, [r0, #-0]
    2ab4:	06f01c00 	ldrbteq	r1, [r0], r0, lsl #24
    2ab8:	08450255 	stmdaeq	r5, {r0, r2, r4, r6, r9}^
    2abc:	a11d0000 	tstge	sp, r0
    2ac0:	06000003 	streq	r0, [r0], -r3
    2ac4:	06ae026c 	strteq	r0, [lr], ip, ror #4
    2ac8:	e61d0000 	ldr	r0, [sp], -r0
    2acc:	06000004 	streq	r0, [r0], -r4
    2ad0:	07df0275 			; <UNDEFINED> instruction: 0x07df0275
    2ad4:	0b000000 	bleq	2adc <_start-0x5524>
    2ad8:	0000013a 	andeq	r0, r0, sl, lsr r1
    2adc:	00000855 	andeq	r0, r0, r5, asr r8
    2ae0:	0000f60c 	andeq	pc, r0, ip, lsl #12
    2ae4:	1e001800 	cdpne	8, 0, cr1, cr0, cr0, {0}
    2ae8:	00000860 	andeq	r0, r0, r0, ror #16
    2aec:	00045116 	andeq	r5, r4, r6, lsl r1
    2af0:	040f0000 	streq	r0, [pc], #-0	; 2af8 <_start-0x5508>
    2af4:	00000855 	andeq	r0, r0, r5, asr r8
    2af8:	01a4040f 			; <UNDEFINED> instruction: 0x01a4040f
    2afc:	771e0000 	ldrvc	r0, [lr, -r0]
    2b00:	16000008 	strne	r0, [r0], -r8
    2b04:	00000054 	andeq	r0, r0, r4, asr r0
    2b08:	7d040f00 	stcvc	15, cr0, [r4, #-0]
    2b0c:	0f000008 	svceq	0x00000008
    2b10:	00086c04 	andeq	r6, r8, r4, lsl #24
    2b14:	061c0b00 	ldreq	r0, [ip], -r0, lsl #22
    2b18:	08930000 	ldmeq	r3, {}	; <UNPREDICTABLE>
    2b1c:	f60c0000 			; <UNDEFINED> instruction: 0xf60c0000
    2b20:	02000000 	andeq	r0, r0, #0
    2b24:	04741f00 	ldrbteq	r1, [r4], #-3840	; 0xfffff100
    2b28:	fd060000 	stc2	0, cr0, [r6, #-0]
    2b2c:	00045102 	andeq	r5, r4, r2, lsl #2
    2b30:	046d1f00 	strbteq	r1, [sp], #-3840	; 0xfffff100
    2b34:	fe060000 	cdp2	0, 0, cr0, cr6, cr0, {0}
    2b38:	00045702 	andeq	r5, r4, r2, lsl #14
    2b3c:	00541500 	subseq	r1, r4, r0, lsl #10
    2b40:	08ba0000 	ldmeq	sl!, {}	; <UNPREDICTABLE>
    2b44:	54160000 	ldrpl	r0, [r6], #-0
    2b48:	00000000 	andeq	r0, r0, r0
    2b4c:	0001e220 	andeq	lr, r1, r0, lsr #4
    2b50:	c51d0800 	ldrgt	r0, [sp, #-2048]	; 0xfffff800
    2b54:	0f000008 	svceq	0x00000008
    2b58:	0008ab04 	andeq	sl, r8, r4, lsl #22
    2b5c:	00541500 	subseq	r1, r4, r0, lsl #10
    2b60:	08da0000 	ldmeq	sl, {}^	; <UNPREDICTABLE>
    2b64:	b2160000 	andslt	r0, r6, #0
    2b68:	00000005 	andeq	r0, r0, r5
    2b6c:	00076e20 	andeq	r6, r7, r0, lsr #28
    2b70:	e5220800 	str	r0, [r2, #-2048]!	; 0xfffff800
    2b74:	0f000008 	svceq	0x00000008
    2b78:	0008cb04 	andeq	ip, r8, r4, lsl #22
    2b7c:	06ba2100 	ldrteq	r2, [sl], r0, lsl #2
    2b80:	06010000 	streq	r0, [r1], -r0
    2b84:	00000054 	andeq	r0, r0, r4, asr r0
    2b88:	00008958 	andeq	r8, r0, r8, asr r9
    2b8c:	00000058 	andeq	r0, r0, r8, asr r0
    2b90:	09759c01 	ldmdbeq	r5!, {r0, sl, fp, ip, pc}^
    2b94:	66220000 	strtvs	r0, [r2], -r0
    2b98:	0100746d 	tsteq	r0, sp, ror #8
    2b9c:	0005b206 	andeq	fp, r5, r6, lsl #4
    2ba0:	70910200 	addsvc	r0, r1, r0, lsl #4
    2ba4:	75622423 	strbvc	r2, [r2, #-1059]!	; 0xfffffbdd
    2ba8:	08010066 	stmdaeq	r1, {r1, r2, r5, r6}
    2bac:	00000975 	andeq	r0, r0, r5, ror r9
    2bb0:	9c3c0305 	ldcls	3, cr0, [ip], #-20	; 0xffffffec
    2bb4:	1b250000 	blne	942bbc <__bss_end__+0x938b7c>
    2bb8:	01000001 	tsteq	r0, r1
    2bbc:	00004909 	andeq	r4, r0, r9, lsl #18
    2bc0:	5c910200 	lfmpl	f0, 4, [r1], {0}
    2bc4:	007a7326 	rsbseq	r7, sl, r6, lsr #6
    2bc8:	00540c01 	subseq	r0, r4, r1, lsl #24
    2bcc:	07b60000 	ldreq	r0, [r6, r0]!
    2bd0:	80270000 	eorhi	r0, r7, r0
    2bd4:	86000089 	strhi	r0, [r0], -r9, lsl #1
    2bd8:	68000009 	stmdavs	r0, {r0, r3}
    2bdc:	28000009 	stmdacs	r0, {r0, r3}
    2be0:	74025001 	strvc	r5, [r2], #-1
    2be4:	51012800 	tstpl	r1, r0, lsl #16
    2be8:	04000a03 	streq	r0, [r0], #-2563	; 0xfffff5fd
    2bec:	03520128 	cmpeq	r2, #40, 2
    2bf0:	28064891 	stmdacs	r6, {r0, r4, r7, fp, lr}
    2bf4:	91025301 	tstls	r2, r1, lsl #6
    2bf8:	9429004c 	strtls	r0, [r9], #-76	; 0xffffffb4
    2bfc:	28000089 	stmdacs	r0, {r0, r3, r7}
    2c00:	74025001 	strvc	r5, [r2], #-1
    2c04:	0b000000 	bleq	2c0c <_start-0x53f4>
    2c08:	0000013a 	andeq	r0, r0, sl, lsr r1
    2c0c:	00000986 	andeq	r0, r0, r6, lsl #19
    2c10:	0000f62a 	andeq	pc, r0, sl, lsr #12
    2c14:	0003ff00 	andeq	pc, r3, r0, lsl #30
    2c18:	0006b72b 	andeq	fp, r6, fp, lsr #14
    2c1c:	0006b700 	andeq	fp, r6, r0, lsl #14
    2c20:	00020900 	andeq	r0, r2, r0, lsl #18
    2c24:	00000e70 	andeq	r0, r0, r0, ror lr
    2c28:	07580004 	ldrbeq	r0, [r8, -r4]
    2c2c:	01040000 	mrseq	r0, (UNDEF: 4)
    2c30:	000003db 	ldrdeq	r0, [r0], -fp
    2c34:	0006ff0c 	andeq	pc, r6, ip, lsl #30
    2c38:	0006e300 	andeq	lr, r6, r0, lsl #6
    2c3c:	0089b000 	addeq	fp, r9, r0
    2c40:	00054400 	andeq	r4, r5, r0, lsl #8
    2c44:	00047100 	andeq	r7, r4, r0, lsl #2
    2c48:	05040200 	streq	r0, [r4, #-512]	; 0xfffffe00
    2c4c:	00746e69 	rsbseq	r6, r4, r9, ror #28
    2c50:	74070403 	strvc	r0, [r7], #-1027	; 0xfffffbfd
    2c54:	03000000 	movweq	r0, #0
    2c58:	02ff0601 	rscseq	r0, pc, #1048576	; 0x100000
    2c5c:	02030000 	andeq	r0, r3, #0
    2c60:	00031905 	andeq	r1, r3, r5, lsl #18
    2c64:	05040300 	streq	r0, [r4, #-768]	; 0xfffffd00
    2c68:	000000bd 	strheq	r0, [r0], -sp
    2c6c:	b8050803 	stmdalt	r5, {r0, r1, fp}
    2c70:	03000000 	movweq	r0, #0
    2c74:	02fd0801 	rscseq	r0, sp, #65536	; 0x10000
    2c78:	02030000 	andeq	r0, r3, #0
    2c7c:	00023307 	andeq	r3, r2, r7, lsl #6
    2c80:	07040300 	streq	r0, [r4, -r0, lsl #6]
    2c84:	0000006f 	andeq	r0, r0, pc, rrx
    2c88:	6a070803 	bvs	1c4c9c <__bss_end__+0x1bac5c>
    2c8c:	04000000 	streq	r0, [r0], #-0
    2c90:	000002eb 	andeq	r0, r0, fp, ror #5
    2c94:	00250702 	eoreq	r0, r5, r2, lsl #14
    2c98:	da040000 	ble	102ca0 <__bss_end__+0xf8c60>
    2c9c:	03000002 	movweq	r0, #2
    2ca0:	0000412c 	andeq	r4, r0, ip, lsr #2
    2ca4:	03c40400 	biceq	r0, r4, #0, 8
    2ca8:	72030000 	andvc	r0, r3, #0
    2cac:	00000041 	andeq	r0, r0, r1, asr #32
    2cb0:	00027605 	andeq	r7, r2, r5, lsl #12
    2cb4:	01650400 	cmneq	r5, r0, lsl #8
    2cb8:	0000002c 	andeq	r0, r0, ip, lsr #32
    2cbc:	a6030406 	strge	r0, [r3], -r6, lsl #8
    2cc0:	000000b7 	strheq	r0, [r0], -r7
    2cc4:	00027007 	andeq	r7, r2, r7
    2cc8:	8ca80300 	stchi	3, cr0, [r8]
    2ccc:	07000000 	streq	r0, [r0, -r0]
    2cd0:	000001f3 	strdeq	r0, [r0], -r3
    2cd4:	00b7a903 	adcseq	sl, r7, r3, lsl #18
    2cd8:	08000000 	stmdaeq	r0, {}	; <UNPREDICTABLE>
    2cdc:	0000004f 	andeq	r0, r0, pc, asr #32
    2ce0:	000000c7 	andeq	r0, r0, r7, asr #1
    2ce4:	0000c709 	andeq	ip, r0, r9, lsl #14
    2ce8:	03000300 	movweq	r0, #768	; 0x300
    2cec:	02ae0704 	adceq	r0, lr, #4, 14	; 0x100000
    2cf0:	080a0000 	stmdaeq	sl, {}	; <UNPREDICTABLE>
    2cf4:	00efa303 	rsceq	sl, pc, r3, lsl #6
    2cf8:	ae0b0000 	cdpge	0, 0, cr0, cr11, cr0, {0}
    2cfc:	03000003 	movweq	r0, #3
    2d00:	000025a5 	andeq	r2, r0, r5, lsr #11
    2d04:	b60b0000 	strlt	r0, [fp], -r0
    2d08:	03000003 	movweq	r0, #3
    2d0c:	000098aa 	andeq	r9, r0, sl, lsr #17
    2d10:	04000400 	streq	r0, [r0], #-1024	; 0xfffffc00
    2d14:	00000341 	andeq	r0, r0, r1, asr #6
    2d18:	00ceab03 	sbceq	sl, lr, r3, lsl #22
    2d1c:	b0040000 	andlt	r0, r4, r0
    2d20:	03000001 	movweq	r0, #1
    2d24:	00006baf 	andeq	r6, r0, pc, lsr #23
    2d28:	0d040c00 	stceq	12, cr0, [r4, #-0]
    2d2c:	00010d04 	andeq	r0, r1, r4, lsl #26
    2d30:	08010300 	stmdaeq	r1, {r8, r9}
    2d34:	00000306 	andeq	r0, r0, r6, lsl #6
    2d38:	00010d0e 	andeq	r0, r1, lr, lsl #26
    2d3c:	04580400 	ldrbeq	r0, [r8], #-1024	; 0xfffffc00
    2d40:	16050000 	strne	r0, [r5], -r0
    2d44:	0000005d 	andeq	r0, r0, sp, asr r0
    2d48:	0001c10f 	andeq	ip, r1, pc, lsl #2
    2d4c:	2d051800 	stccs	8, cr1, [r5, #-0]
    2d50:	00000177 	andeq	r0, r0, r7, ror r1
    2d54:	0003620b 	andeq	r6, r3, fp, lsl #4
    2d58:	772f0500 	strvc	r0, [pc, -r0, lsl #10]!
    2d5c:	00000001 	andeq	r0, r0, r1
    2d60:	006b5f10 	rsbeq	r5, fp, r0, lsl pc
    2d64:	00253005 	eoreq	r3, r5, r5
    2d68:	0b040000 	bleq	102d70 <__bss_end__+0xf8d30>
    2d6c:	00000399 	muleq	r0, r9, r3
    2d70:	00253005 	eoreq	r3, r5, r5
    2d74:	0b080000 	bleq	202d7c <__bss_end__+0x1f8d3c>
    2d78:	000001aa 	andeq	r0, r0, sl, lsr #3
    2d7c:	00253005 	eoreq	r3, r5, r5
    2d80:	0b0c0000 	bleq	302d88 <__bss_end__+0x2f8d48>
    2d84:	000004a6 	andeq	r0, r0, r6, lsr #9
    2d88:	00253005 	eoreq	r3, r5, r5
    2d8c:	10100000 	andsne	r0, r0, r0
    2d90:	0500785f 	streq	r7, [r0, #-2143]	; 0xfffff7a1
    2d94:	00017d31 	andeq	r7, r1, r1, lsr sp
    2d98:	0d001400 	cfstrseq	mvf1, [r0, #-0]
    2d9c:	00012404 	andeq	r2, r1, r4, lsl #8
    2da0:	01190800 	tsteq	r9, r0, lsl #16
    2da4:	018d0000 	orreq	r0, sp, r0
    2da8:	c7090000 	strgt	r0, [r9, -r0]
    2dac:	00000000 	andeq	r0, r0, r0
    2db0:	01ee0f00 	mvneq	r0, r0, lsl #30
    2db4:	05240000 	streq	r0, [r4, #-0]!
    2db8:	00020635 	andeq	r0, r2, r5, lsr r6
    2dbc:	00af0b00 	adceq	r0, pc, r0, lsl #22
    2dc0:	37050000 	strcc	r0, [r5, -r0]
    2dc4:	00000025 	andeq	r0, r0, r5, lsr #32
    2dc8:	03cc0b00 	biceq	r0, ip, #0, 22
    2dcc:	38050000 	stmdacc	r5, {}	; <UNPREDICTABLE>
    2dd0:	00000025 	andeq	r0, r0, r5, lsr #32
    2dd4:	00d20b04 	sbcseq	r0, r2, r4, lsl #22
    2dd8:	39050000 	stmdbcc	r5, {}	; <UNPREDICTABLE>
    2ddc:	00000025 	andeq	r0, r0, r5, lsr #32
    2de0:	05270b08 	streq	r0, [r7, #-2824]!	; 0xfffff4f8
    2de4:	3a050000 	bcc	142dec <__bss_end__+0x138dac>
    2de8:	00000025 	andeq	r0, r0, r5, lsr #32
    2dec:	02be0b0c 	adcseq	r0, lr, #12, 22	; 0x3000
    2df0:	3b050000 	blcc	142df8 <__bss_end__+0x138db8>
    2df4:	00000025 	andeq	r0, r0, r5, lsr #32
    2df8:	02970b10 	addseq	r0, r7, #16, 22	; 0x4000
    2dfc:	3c050000 	stccc	0, cr0, [r5], {-0}
    2e00:	00000025 	andeq	r0, r0, r5, lsr #32
    2e04:	04ab0b14 	strteq	r0, [fp], #2836	; 0xb14
    2e08:	3d050000 	stccc	0, cr0, [r5, #-0]
    2e0c:	00000025 	andeq	r0, r0, r5, lsr #32
    2e10:	03230b18 			; <UNDEFINED> instruction: 0x03230b18
    2e14:	3e050000 	cdpcc	0, 0, cr0, cr5, cr0, {0}
    2e18:	00000025 	andeq	r0, r0, r5, lsr #32
    2e1c:	04ee0b1c 	strbteq	r0, [lr], #2844	; 0xb1c
    2e20:	3f050000 	svccc	0x00050000
    2e24:	00000025 	andeq	r0, r0, r5, lsr #32
    2e28:	12110020 	andsne	r0, r1, #32
    2e2c:	08000001 	stmdaeq	r0, {r0}
    2e30:	46480501 	strbmi	r0, [r8], -r1, lsl #10
    2e34:	0b000002 	bleq	2e44 <_start-0x51bc>
    2e38:	0000019d 	muleq	r0, sp, r1
    2e3c:	02464905 	subeq	r4, r6, #81920	; 0x14000
    2e40:	0b000000 	bleq	2e48 <_start-0x51b8>
    2e44:	00000000 	andeq	r0, r0, r0
    2e48:	02464a05 	subeq	r4, r6, #20480	; 0x5000
    2e4c:	12800000 	addne	r0, r0, #0
    2e50:	0000044a 	andeq	r0, r0, sl, asr #8
    2e54:	01194c05 	tsteq	r9, r5, lsl #24
    2e58:	01000000 	mrseq	r0, (UNDEF: 0)
    2e5c:	00013712 	andeq	r3, r1, r2, lsl r7
    2e60:	194f0500 	stmdbne	pc, {r8, sl}^	; <UNPREDICTABLE>
    2e64:	04000001 	streq	r0, [r0], #-1
    2e68:	05080001 	streq	r0, [r8, #-1]
    2e6c:	56000001 	strpl	r0, [r0], -r1
    2e70:	09000002 	stmdbeq	r0, {r1}
    2e74:	000000c7 	andeq	r0, r0, r7, asr #1
    2e78:	c711001f 			; <UNDEFINED> instruction: 0xc711001f
    2e7c:	90000002 	andls	r0, r0, r2
    2e80:	945b0501 	ldrbls	r0, [fp], #-1281	; 0xfffffaff
    2e84:	0b000002 	bleq	2e94 <_start-0x516c>
    2e88:	00000362 	andeq	r0, r0, r2, ror #6
    2e8c:	02945c05 	addseq	r5, r4, #1280	; 0x500
    2e90:	0b000000 	bleq	2e98 <_start-0x5168>
    2e94:	0000037a 	andeq	r0, r0, sl, ror r3
    2e98:	00255d05 	eoreq	r5, r5, r5, lsl #26
    2e9c:	0b040000 	bleq	102ea4 <__bss_end__+0xf8e64>
    2ea0:	000001a5 	andeq	r0, r0, r5, lsr #3
    2ea4:	029a5f05 	addseq	r5, sl, #5, 30
    2ea8:	0b080000 	bleq	202eb0 <__bss_end__+0x1f8e70>
    2eac:	00000112 	andeq	r0, r0, r2, lsl r1
    2eb0:	02066005 	andeq	r6, r6, #5
    2eb4:	00880000 	addeq	r0, r8, r0
    2eb8:	0256040d 	subseq	r0, r6, #218103808	; 0xd000000
    2ebc:	aa080000 	bge	202ec4 <__bss_end__+0x1f8e84>
    2ec0:	aa000002 	bge	2ed0 <_start-0x5130>
    2ec4:	09000002 	stmdbeq	r0, {r1}
    2ec8:	000000c7 	andeq	r0, r0, r7, asr #1
    2ecc:	040d001f 	streq	r0, [sp], #-31	; 0xffffffe1
    2ed0:	000002b0 			; <UNDEFINED> instruction: 0x000002b0
    2ed4:	032d0f13 			; <UNDEFINED> instruction: 0x032d0f13
    2ed8:	05080000 	streq	r0, [r8, #-0]
    2edc:	0002d673 	andeq	sp, r2, r3, ror r6
    2ee0:	00cc0b00 	sbceq	r0, ip, r0, lsl #22
    2ee4:	74050000 	strvc	r0, [r5], #-0
    2ee8:	000002d6 	ldrdeq	r0, [r0], -r6
    2eec:	001b0b00 	andseq	r0, fp, r0, lsl #22
    2ef0:	75050000 	strvc	r0, [r5, #-0]
    2ef4:	00000025 	andeq	r0, r0, r5, lsr #32
    2ef8:	040d0004 	streq	r0, [sp], #-4
    2efc:	0000004f 	andeq	r0, r0, pc, asr #32
    2f00:	00034c0f 	andeq	r4, r3, pc, lsl #24
    2f04:	b3056800 	movwlt	r6, #22528	; 0x5800
    2f08:	00000406 	andeq	r0, r0, r6, lsl #8
    2f0c:	00705f10 	rsbseq	r5, r0, r0, lsl pc
    2f10:	02d6b405 	sbcseq	fp, r6, #83886080	; 0x5000000
    2f14:	10000000 	andne	r0, r0, r0
    2f18:	0500725f 	streq	r7, [r0, #-607]	; 0xfffffda1
    2f1c:	000025b5 			; <UNDEFINED> instruction: 0x000025b5
    2f20:	5f100400 	svcpl	0x00100400
    2f24:	b6050077 			; <UNDEFINED> instruction: 0xb6050077
    2f28:	00000025 	andeq	r0, r0, r5, lsr #32
    2f2c:	01300b08 	teqeq	r0, r8, lsl #22
    2f30:	b7050000 	strlt	r0, [r5, -r0]
    2f34:	0000003a 	andeq	r0, r0, sl, lsr r0
    2f38:	02190b0c 	andseq	r0, r9, #12, 22	; 0x3000
    2f3c:	b8050000 	stmdalt	r5, {}	; <UNPREDICTABLE>
    2f40:	0000003a 	andeq	r0, r0, sl, lsr r0
    2f44:	625f100e 	subsvs	r1, pc, #14
    2f48:	b9050066 	stmdblt	r5, {r1, r2, r5, r6}
    2f4c:	000002b1 			; <UNDEFINED> instruction: 0x000002b1
    2f50:	00890b10 	addeq	r0, r9, r0, lsl fp
    2f54:	ba050000 	blt	142f5c <__bss_end__+0x138f1c>
    2f58:	00000025 	andeq	r0, r0, r5, lsr #32
    2f5c:	01200b18 			; <UNDEFINED> instruction: 0x01200b18
    2f60:	c1050000 	mrsgt	r0, (UNDEF: 5)
    2f64:	00000105 	andeq	r0, r0, r5, lsl #2
    2f68:	0a7d0b1c 	beq	1f45be0 <__bss_end__+0x1f3bba0>
    2f6c:	c3050000 	movwgt	r0, #20480	; 0x5000
    2f70:	00000561 	andeq	r0, r0, r1, ror #10
    2f74:	06110b20 	ldreq	r0, [r1], -r0, lsr #22
    2f78:	c5050000 	strgt	r0, [r5, #-0]
    2f7c:	0000058b 	andeq	r0, r0, fp, lsl #11
    2f80:	03be0b24 			; <UNDEFINED> instruction: 0x03be0b24
    2f84:	c8050000 	stmdagt	r5, {}	; <UNPREDICTABLE>
    2f88:	000005af 	andeq	r0, r0, pc, lsr #11
    2f8c:	05080b28 	streq	r0, [r8, #-2856]	; 0xfffff4d8
    2f90:	c9050000 	stmdbgt	r5, {}	; <UNPREDICTABLE>
    2f94:	000005c9 	andeq	r0, r0, r9, asr #11
    2f98:	755f102c 	ldrbvc	r1, [pc, #-44]	; 2f74 <_start-0x508c>
    2f9c:	cc050062 	stcgt	0, cr0, [r5], {98}	; 0x62
    2fa0:	000002b1 			; <UNDEFINED> instruction: 0x000002b1
    2fa4:	755f1030 	ldrbvc	r1, [pc, #-48]	; 2f7c <_start-0x5084>
    2fa8:	cd050070 	stcgt	0, cr0, [r5, #-448]	; 0xfffffe40
    2fac:	000002d6 	ldrdeq	r0, [r0], -r6
    2fb0:	755f1038 	ldrbvc	r1, [pc, #-56]	; 2f80 <_start-0x5080>
    2fb4:	ce050072 	mcrgt	0, 0, r0, cr5, cr2, {3}
    2fb8:	00000025 	andeq	r0, r0, r5, lsr #32
    2fbc:	00c60b3c 	sbceq	r0, r6, ip, lsr fp
    2fc0:	d1050000 	mrsle	r0, (UNDEF: 5)
    2fc4:	000005cf 	andeq	r0, r0, pc, asr #11
    2fc8:	04e00b40 	strbteq	r0, [r0], #2880	; 0xb40
    2fcc:	d2050000 	andle	r0, r5, #0
    2fd0:	000005df 	ldrdeq	r0, [r0], -pc	; <UNPREDICTABLE>
    2fd4:	6c5f1043 	mrrcvs	0, 4, r1, pc, cr3	; <UNPREDICTABLE>
    2fd8:	d5050062 	strle	r0, [r5, #-98]	; 0xffffff9e
    2fdc:	000002b1 			; <UNDEFINED> instruction: 0x000002b1
    2fe0:	014e0b44 	cmpeq	lr, r4, asr #22
    2fe4:	d8050000 	stmdale	r5, {}	; <UNPREDICTABLE>
    2fe8:	00000025 	andeq	r0, r0, r5, lsr #32
    2fec:	015f0b4c 	cmpeq	pc, ip, asr #22
    2ff0:	d9050000 	stmdble	r5, {}	; <UNPREDICTABLE>
    2ff4:	00000076 	andeq	r0, r0, r6, ror r0
    2ff8:	0a1e0b50 	beq	785d40 <__bss_end__+0x77bd00>
    2ffc:	dc050000 	stcle	0, cr0, [r5], {-0}
    3000:	00000424 	andeq	r0, r0, r4, lsr #8
    3004:	02840b54 	addeq	r0, r4, #84, 22	; 0x15000
    3008:	e0050000 	and	r0, r5, r0
    300c:	000000fa 	strdeq	r0, [r0], -sl
    3010:	03540b58 	cmpeq	r4, #88, 22	; 0x16000
    3014:	e2050000 	and	r0, r5, #0
    3018:	000000ef 	andeq	r0, r0, pc, ror #1
    301c:	028f0b5c 	addeq	r0, pc, #92, 22	; 0x17000
    3020:	e3050000 	movw	r0, #20480	; 0x5000
    3024:	00000025 	andeq	r0, r0, r5, lsr #32
    3028:	25140064 	ldrcs	r0, [r4, #-100]	; 0xffffff9c
    302c:	24000000 	strcs	r0, [r0], #-0
    3030:	15000004 	strne	r0, [r0, #-4]
    3034:	00000424 	andeq	r0, r0, r4, lsr #8
    3038:	00010515 	andeq	r0, r1, r5, lsl r5
    303c:	01071500 	tsteq	r7, r0, lsl #10
    3040:	25150000 	ldrcs	r0, [r5, #-0]
    3044:	00000000 	andeq	r0, r0, r0
    3048:	042f040d 	strteq	r0, [pc], #-1037	; 3050 <_start-0x4fb0>
    304c:	240e0000 	strcs	r0, [lr], #-0
    3050:	16000004 	strne	r0, [r0], -r4
    3054:	000003a1 	andeq	r0, r0, r1, lsr #7
    3058:	38050428 	stmdacc	r5, {r3, r5, sl}
    305c:	00056102 	andeq	r6, r5, r2, lsl #2
    3060:	03121700 	tsteq	r2, #0, 14
    3064:	3a050000 	bcc	14306c <__bss_end__+0x13902c>
    3068:	00002502 	andeq	r2, r0, r2, lsl #10
    306c:	3f170000 	svccc	0x00170000
    3070:	05000001 	streq	r0, [r0, #-1]
    3074:	0636023f 			; <UNDEFINED> instruction: 0x0636023f
    3078:	17040000 	strne	r0, [r4, -r0]
    307c:	00000209 	andeq	r0, r0, r9, lsl #4
    3080:	36023f05 	strcc	r3, [r2], -r5, lsl #30
    3084:	08000006 	stmdaeq	r0, {r1, r2}
    3088:	0001b917 	andeq	fp, r1, r7, lsl r9
    308c:	023f0500 	eorseq	r0, pc, #0, 10
    3090:	00000636 	andeq	r0, r0, r6, lsr r6
    3094:	0375170c 	cmneq	r5, #12, 14	; 0x300000
    3098:	41050000 	mrsmi	r0, (UNDEF: 5)
    309c:	00002502 	andeq	r2, r0, r2, lsl #10
    30a0:	37171000 	ldrcc	r1, [r7, -r0]
    30a4:	05000000 	streq	r0, [r0, #-0]
    30a8:	08180242 	ldmdaeq	r8, {r1, r6, r9}
    30ac:	17140000 	ldrne	r0, [r4, -r0]
    30b0:	00000480 	andeq	r0, r0, r0, lsl #9
    30b4:	25024405 	strcs	r4, [r2, #-1029]	; 0xfffffbfb
    30b8:	30000000 	andcc	r0, r0, r0
    30bc:	00037f17 	andeq	r7, r3, r7, lsl pc
    30c0:	02450500 	subeq	r0, r5, #0, 10
    30c4:	00000585 	andeq	r0, r0, r5, lsl #11
    30c8:	02cf1734 	sbceq	r1, pc, #52, 14	; 0xd00000
    30cc:	47050000 	strmi	r0, [r5, -r0]
    30d0:	00002502 	andeq	r2, r0, r2, lsl #10
    30d4:	8f173800 	svchi	0x00173800
    30d8:	05000003 	streq	r0, [r0, #-3]
    30dc:	08330249 	ldmdaeq	r3!, {r0, r3, r6, r9}
    30e0:	173c0000 	ldrne	r0, [ip, -r0]!
    30e4:	00000268 	andeq	r0, r0, r8, ror #4
    30e8:	77024c05 	strvc	r4, [r2, -r5, lsl #24]
    30ec:	40000001 	andmi	r0, r0, r1
    30f0:	0001d817 	andeq	sp, r1, r7, lsl r8
    30f4:	024d0500 	subeq	r0, sp, #0, 10
    30f8:	00000025 	andeq	r0, r0, r5, lsr #32
    30fc:	05221744 	streq	r1, [r2, #-1860]!	; 0xfffff8bc
    3100:	4e050000 	cdpmi	0, 0, cr0, cr5, cr0, {0}
    3104:	00017702 	andeq	r7, r1, r2, lsl #14
    3108:	e1174800 	tst	r7, r0, lsl #16
    310c:	05000002 	streq	r0, [r0, #-2]
    3110:	0839024f 	ldmdaeq	r9!, {r0, r1, r2, r3, r6, r9}
    3114:	174c0000 	strbne	r0, [ip, -r0]
    3118:	00000211 	andeq	r0, r0, r1, lsl r2
    311c:	25025205 	strcs	r5, [r2, #-517]	; 0xfffffdfb
    3120:	50000000 	andpl	r0, r0, r0
    3124:	00015717 	andeq	r5, r1, r7, lsl r7
    3128:	02530500 	subseq	r0, r3, #0, 10
    312c:	00000107 	andeq	r0, r0, r7, lsl #2
    3130:	030b1754 	movweq	r1, #46932	; 0xb754
    3134:	76050000 	strvc	r0, [r5], -r0
    3138:	0007f602 	andeq	pc, r7, r2, lsl #12
    313c:	c7185800 	ldrgt	r5, [r8, -r0, lsl #16]
    3140:	05000002 	streq	r0, [r0, #-2]
    3144:	0294027a 	addseq	r0, r4, #-1610612729	; 0xa0000007
    3148:	01480000 	mrseq	r0, (UNDEF: 72)
    314c:	00024618 	andeq	r4, r2, r8, lsl r6
    3150:	027b0500 	rsbseq	r0, fp, #0, 10
    3154:	00000256 	andeq	r0, r0, r6, asr r2
    3158:	ce18014c 	mufgtem	f0, f0, #4.0
    315c:	05000004 	streq	r0, [r0, #-4]
    3160:	084a027f 	stmdaeq	sl, {r0, r1, r2, r3, r4, r5, r6, r9}^
    3164:	02dc0000 	sbcseq	r0, ip, #0
    3168:	00012818 	andeq	r2, r1, r8, lsl r8
    316c:	02840500 	addeq	r0, r4, #0, 10
    3170:	000005fb 	strdeq	r0, [r0], -fp
    3174:	0d1802e0 	lfmeq	f0, 4, [r8, #-896]	; 0xfffffc80
    3178:	05000001 	streq	r0, [r0, #-1]
    317c:	08560285 	ldmdaeq	r6, {r0, r2, r7, r9}^
    3180:	02ec0000 	rsceq	r0, ip, #0
    3184:	06040d00 	streq	r0, [r4], -r0, lsl #26
    3188:	14000004 	strne	r0, [r0], #-4
    318c:	00000025 	andeq	r0, r0, r5, lsr #32
    3190:	00000585 	andeq	r0, r0, r5, lsl #11
    3194:	00042415 	andeq	r2, r4, r5, lsl r4
    3198:	01051500 	tsteq	r5, r0, lsl #10
    319c:	85150000 	ldrhi	r0, [r5, #-0]
    31a0:	15000005 	strne	r0, [r0, #-5]
    31a4:	00000025 	andeq	r0, r0, r5, lsr #32
    31a8:	14040d00 	strne	r0, [r4], #-3328	; 0xfffff300
    31ac:	0d000001 	stceq	0, cr0, [r0, #-4]
    31b0:	00056704 	andeq	r6, r5, r4, lsl #14
    31b4:	00811400 	addeq	r1, r1, r0, lsl #8
    31b8:	05af0000 	streq	r0, [pc, #0]!	; 31c0 <_start-0x4e40>
    31bc:	24150000 	ldrcs	r0, [r5], #-0
    31c0:	15000004 	strne	r0, [r0, #-4]
    31c4:	00000105 	andeq	r0, r0, r5, lsl #2
    31c8:	00008115 	andeq	r8, r0, r5, lsl r1
    31cc:	00251500 	eoreq	r1, r5, r0, lsl #10
    31d0:	0d000000 	stceq	0, cr0, [r0, #-0]
    31d4:	00059104 	andeq	r9, r5, r4, lsl #2
    31d8:	00251400 	eoreq	r1, r5, r0, lsl #8
    31dc:	05c90000 	strbeq	r0, [r9]
    31e0:	24150000 	ldrcs	r0, [r5], #-0
    31e4:	15000004 	strne	r0, [r0, #-4]
    31e8:	00000105 	andeq	r0, r0, r5, lsl #2
    31ec:	b5040d00 	strlt	r0, [r4, #-3328]	; 0xfffff300
    31f0:	08000005 	stmdaeq	r0, {r0, r2}
    31f4:	0000004f 	andeq	r0, r0, pc, asr #32
    31f8:	000005df 	ldrdeq	r0, [r0], -pc	; <UNPREDICTABLE>
    31fc:	0000c709 	andeq	ip, r0, r9, lsl #14
    3200:	08000200 	stmdaeq	r0, {r9}
    3204:	0000004f 	andeq	r0, r0, pc, asr #32
    3208:	000005ef 	andeq	r0, r0, pc, ror #11
    320c:	0000c709 	andeq	ip, r0, r9, lsl #14
    3210:	05000000 	streq	r0, [r0, #-0]
    3214:	0000033a 	andeq	r0, r0, sl, lsr r3
    3218:	dc011d05 	stcle	13, cr1, [r1], {5}
    321c:	19000002 	stmdbne	r0, {r1}
    3220:	000004b5 			; <UNDEFINED> instruction: 0x000004b5
    3224:	0121050c 			; <UNDEFINED> instruction: 0x0121050c
    3228:	00000630 	andeq	r0, r0, r0, lsr r6
    322c:	00036217 	andeq	r6, r3, r7, lsl r2
    3230:	01230500 			; <UNDEFINED> instruction: 0x01230500
    3234:	00000630 	andeq	r0, r0, r0, lsr r6
    3238:	022c1700 	eoreq	r1, ip, #0, 14
    323c:	24050000 	strcs	r0, [r5], #-0
    3240:	00002501 	andeq	r2, r0, r1, lsl #10
    3244:	34170400 	ldrcc	r0, [r7], #-1024	; 0xfffffc00
    3248:	05000003 	streq	r0, [r0, #-3]
    324c:	06360125 	ldrteq	r0, [r6], -r5, lsr #2
    3250:	00080000 	andeq	r0, r8, r0
    3254:	05fb040d 	ldrbeq	r0, [fp, #1037]!	; 0x40d
    3258:	040d0000 	streq	r0, [sp], #-0
    325c:	000005ef 	andeq	r0, r0, pc, ror #11
    3260:	00002f19 	andeq	r2, r0, r9, lsl pc
    3264:	3d050e00 	stccc	14, cr0, [r5, #-0]
    3268:	00067101 	andeq	r7, r6, r1, lsl #2
    326c:	03a81700 			; <UNDEFINED> instruction: 0x03a81700
    3270:	3e050000 	cdpcc	0, 0, cr0, cr5, cr0, {0}
    3274:	00067101 	andeq	r7, r6, r1, lsl #2
    3278:	d5170000 	ldrle	r0, [r7, #-0]
    327c:	05000003 	streq	r0, [r0, #-3]
    3280:	0671013f 			; <UNDEFINED> instruction: 0x0671013f
    3284:	17060000 	strne	r0, [r6, -r0]
    3288:	00000453 	andeq	r0, r0, r3, asr r4
    328c:	56014005 	strpl	r4, [r1], -r5
    3290:	0c000000 	stceq	0, cr0, [r0], {-0}
    3294:	00560800 	subseq	r0, r6, r0, lsl #16
    3298:	06810000 	streq	r0, [r1], r0
    329c:	c7090000 	strgt	r0, [r9, -r0]
    32a0:	02000000 	andeq	r0, r0, #0
    32a4:	05d01a00 	ldrbeq	r1, [r0, #2560]	; 0xa00
    32a8:	07820257 			; <UNDEFINED> instruction: 0x07820257
    32ac:	99170000 	ldmdbls	r7, {}	; <UNPREDICTABLE>
    32b0:	05000004 	streq	r0, [r0, #-4]
    32b4:	002c0259 	eoreq	r0, ip, r9, asr r2
    32b8:	17000000 	strne	r0, [r0, -r0]
    32bc:	0000043d 	andeq	r0, r0, sp, lsr r4
    32c0:	07025a05 	streq	r5, [r2, -r5, lsl #20]
    32c4:	04000001 	streq	r0, [r0], #-1
    32c8:	00025b17 	andeq	r5, r2, r7, lsl fp
    32cc:	025b0500 	subseq	r0, fp, #0, 10
    32d0:	00000782 	andeq	r0, r0, r2, lsl #15
    32d4:	04f91708 	ldrbteq	r1, [r9], #1800	; 0x708
    32d8:	5c050000 	stcpl	0, cr0, [r5], {-0}
    32dc:	00018d02 	andeq	r8, r1, r2, lsl #26
    32e0:	c9172400 	ldmdbgt	r7, {sl, sp}
    32e4:	05000001 	streq	r0, [r0, #-1]
    32e8:	0025025d 	eoreq	r0, r5, sp, asr r2
    32ec:	17480000 	strbne	r0, [r8, -r0]
    32f0:	0000035d 	andeq	r0, r0, sp, asr r3
    32f4:	64025e05 	strvs	r5, [r2], #-3589	; 0xfffff1fb
    32f8:	50000000 	andpl	r0, r0, r0
    32fc:	00050f17 	andeq	r0, r5, r7, lsl pc
    3300:	025f0500 	subseq	r0, pc, #0, 10
    3304:	0000063c 	andeq	r0, r0, ip, lsr r6
    3308:	03681758 	cmneq	r8, #88, 14	; 0x1600000
    330c:	60050000 	andvs	r0, r5, r0
    3310:	0000ef02 	andeq	lr, r0, r2, lsl #30
    3314:	14176800 	ldrne	r6, [r7], #-2048	; 0xfffff800
    3318:	05000005 	streq	r0, [r0, #-5]
    331c:	00ef0261 	rsceq	r0, pc, r1, ror #4
    3320:	17700000 	ldrbne	r0, [r0, -r0]!
    3324:	000000a1 	andeq	r0, r0, r1, lsr #1
    3328:	ef026205 	svc	0x00026205
    332c:	78000000 	stmdavc	r0, {}	; <UNPREDICTABLE>
    3330:	0004c417 	andeq	ip, r4, r7, lsl r4
    3334:	02630500 	rsbeq	r0, r3, #0, 10
    3338:	00000792 	muleq	r0, r2, r7
    333c:	024f1780 	subeq	r1, pc, #128, 14	; 0x2000000
    3340:	64050000 	strvs	r0, [r5], #-0
    3344:	0007a202 	andeq	sl, r7, r2, lsl #4
    3348:	60178800 	andsvs	r8, r7, r0, lsl #16
    334c:	05000004 	streq	r0, [r0, #-4]
    3350:	00250265 	eoreq	r0, r5, r5, ror #4
    3354:	17a00000 	strne	r0, [r0, r0]!
    3358:	0000018f 	andeq	r0, r0, pc, lsl #3
    335c:	ef026605 	svc	0x00026605
    3360:	a4000000 	strge	r0, [r0], #-0
    3364:	00009217 	andeq	r9, r0, r7, lsl r2
    3368:	02670500 	rsbeq	r0, r7, #0, 10
    336c:	000000ef 	andeq	r0, r0, pc, ror #1
    3370:	017e17ac 	cmneq	lr, ip, lsr #15
    3374:	68050000 	stmdavs	r5, {}	; <UNPREDICTABLE>
    3378:	0000ef02 	andeq	lr, r0, r2, lsl #30
    337c:	4a17b400 	bmi	5f0384 <__bss_end__+0x5e6344>
    3380:	05000000 	streq	r0, [r0, #-0]
    3384:	00ef0269 	rsceq	r0, pc, r9, ror #4
    3388:	17bc0000 	ldrne	r0, [ip, r0]!
    338c:	00000059 	andeq	r0, r0, r9, asr r0
    3390:	ef026a05 	svc	0x00026a05
    3394:	c4000000 	strgt	r0, [r0], #-0
    3398:	00031017 	andeq	r1, r3, r7, lsl r0
    339c:	026b0500 	rsbeq	r0, fp, #0, 10
    33a0:	00000025 	andeq	r0, r0, r5, lsr #32
    33a4:	0d0800cc 	stceq	0, cr0, [r8, #-816]	; 0xfffffcd0
    33a8:	92000001 	andls	r0, r0, #1
    33ac:	09000007 	stmdbeq	r0, {r0, r1, r2}
    33b0:	000000c7 	andeq	r0, r0, r7, asr #1
    33b4:	0d080019 	stceq	0, cr0, [r8, #-100]	; 0xffffff9c
    33b8:	a2000001 	andge	r0, r0, #1
    33bc:	09000007 	stmdbeq	r0, {r0, r1, r2}
    33c0:	000000c7 	andeq	r0, r0, r7, asr #1
    33c4:	0d080007 	stceq	0, cr0, [r8, #-28]	; 0xffffffe4
    33c8:	b2000001 	andlt	r0, r0, #1
    33cc:	09000007 	stmdbeq	r0, {r0, r1, r2}
    33d0:	000000c7 	andeq	r0, r0, r7, asr #1
    33d4:	f01a0017 			; <UNDEFINED> instruction: 0xf01a0017
    33d8:	d6027005 	strle	r7, [r2], -r5
    33dc:	17000007 	strne	r0, [r0, -r7]
    33e0:	000002b7 			; <UNDEFINED> instruction: 0x000002b7
    33e4:	d6027305 	strle	r7, [r2], -r5, lsl #6
    33e8:	00000007 	andeq	r0, r0, r7
    33ec:	0004bb17 	andeq	fp, r4, r7, lsl fp
    33f0:	02740500 	rsbseq	r0, r4, #0, 10
    33f4:	000007e6 	andeq	r0, r0, r6, ror #15
    33f8:	d6080078 			; <UNDEFINED> instruction: 0xd6080078
    33fc:	e6000002 	str	r0, [r0], -r2
    3400:	09000007 	stmdbeq	r0, {r0, r1, r2}
    3404:	000000c7 	andeq	r0, r0, r7, asr #1
    3408:	2c08001d 	stccs	0, cr0, [r8], {29}
    340c:	f6000000 			; <UNDEFINED> instruction: 0xf6000000
    3410:	09000007 	stmdbeq	r0, {r0, r1, r2}
    3414:	000000c7 	andeq	r0, r0, r7, asr #1
    3418:	f01b001d 			; <UNDEFINED> instruction: 0xf01b001d
    341c:	18025505 	stmdane	r2, {r0, r2, r8, sl, ip, lr}
    3420:	1c000008 	stcne	0, cr0, [r0], {8}
    3424:	000003a1 	andeq	r0, r0, r1, lsr #7
    3428:	81026c05 	tsthi	r2, r5, lsl #24
    342c:	1c000006 	stcne	0, cr0, [r0], {6}
    3430:	000004e6 	andeq	r0, r0, r6, ror #9
    3434:	b2027505 	andlt	r7, r2, #20971520	; 0x1400000
    3438:	00000007 	andeq	r0, r0, r7
    343c:	00010d08 	andeq	r0, r1, r8, lsl #26
    3440:	00082800 	andeq	r2, r8, r0, lsl #16
    3444:	00c70900 	sbceq	r0, r7, r0, lsl #18
    3448:	00180000 	andseq	r0, r8, r0
    344c:	0008331d 	andeq	r3, r8, sp, lsl r3
    3450:	04241500 	strteq	r1, [r4], #-1280	; 0xfffffb00
    3454:	0d000000 	stceq	0, cr0, [r0, #-0]
    3458:	00082804 	andeq	r2, r8, r4, lsl #16
    345c:	77040d00 	strvc	r0, [r4, -r0, lsl #26]
    3460:	1d000001 	stcne	0, cr0, [r0, #-4]
    3464:	0000084a 	andeq	r0, r0, sl, asr #16
    3468:	00002515 	andeq	r2, r0, r5, lsl r5
    346c:	040d0000 	streq	r0, [sp], #-0
    3470:	00000850 	andeq	r0, r0, r0, asr r8
    3474:	083f040d 	ldmdaeq	pc!, {r0, r2, r3, sl}	; <UNPREDICTABLE>
    3478:	ef080000 	svc	0x00080000
    347c:	66000005 	strvs	r0, [r0], -r5
    3480:	09000008 	stmdbeq	r0, {r3}
    3484:	000000c7 	andeq	r0, r0, r7, asr #1
    3488:	741e0002 	ldrvc	r0, [lr], #-2
    348c:	05000004 	streq	r0, [r0, #-4]
    3490:	042402fd 	strteq	r0, [r4], #-765	; 0xfffffd03
    3494:	6d1e0000 	ldcvs	0, cr0, [lr, #-0]
    3498:	05000004 	streq	r0, [r0, #-4]
    349c:	042a02fe 	strteq	r0, [sl], #-766	; 0xfffffd02
    34a0:	25140000 	ldrcs	r0, [r4, #-0]
    34a4:	8d000000 	stchi	0, cr0, [r0, #-0]
    34a8:	15000008 	strne	r0, [r0, #-8]
    34ac:	00000025 	andeq	r0, r0, r5, lsr #32
    34b0:	01e21f00 	mvneq	r1, r0, lsl #30
    34b4:	1d060000 	stcne	0, cr0, [r6, #-0]
    34b8:	00000898 	muleq	r0, r8, r8
    34bc:	087e040d 	ldmdaeq	lr!, {r0, r2, r3, sl}^
    34c0:	25140000 	ldrcs	r0, [r4, #-0]
    34c4:	ad000000 	stcge	0, cr0, [r0, #-0]
    34c8:	15000008 	strne	r0, [r0, #-8]
    34cc:	00000585 	andeq	r0, r0, r5, lsl #11
    34d0:	076e1f00 	strbeq	r1, [lr, -r0, lsl #30]!
    34d4:	22060000 	andcs	r0, r6, #0
    34d8:	000008b8 			; <UNDEFINED> instruction: 0x000008b8
    34dc:	089e040d 	ldmeq	lr, {r0, r2, r3, sl}
    34e0:	c1040000 	mrsgt	r0, (UNDEF: 4)
    34e4:	07000006 	streq	r0, [r0, -r6]
    34e8:	0008c928 	andeq	ip, r8, r8, lsr #18
    34ec:	06ad0f00 	strteq	r0, [sp], r0, lsl #30
    34f0:	08040000 	stmdaeq	r4, {}	; <UNPREDICTABLE>
    34f4:	0008e000 	andeq	lr, r8, r0
    34f8:	06d02000 	ldrbeq	r2, [r0], r0
    34fc:	01050000 	mrseq	r0, (UNDEF: 5)
    3500:	00000000 	andeq	r0, r0, r0
    3504:	0006af04 	andeq	sl, r6, r4, lsl #30
    3508:	be630700 	cdplt	7, 6, cr0, cr3, cr0, {0}
    350c:	21000008 	tstcs	r0, r8
    3510:	000006b7 			; <UNDEFINED> instruction: 0x000006b7
    3514:	00257f01 	eoreq	r7, r5, r1, lsl #30
    3518:	8c340000 	ldchi	0, cr0, [r4], #-0
    351c:	02c00000 	sbceq	r0, r0, #0
    3520:	9c010000 	stcls	0, cr0, [r1], {-0}
    3524:	00000b51 	andeq	r0, r0, r1, asr fp
    3528:	66756222 	ldrbtvs	r6, [r5], -r2, lsr #4
    352c:	077f0100 	ldrbeq	r0, [pc, -r0, lsl #2]!
    3530:	df000001 	svcle	0x00000001
    3534:	22000007 	andcs	r0, r0, #7
    3538:	7f01006e 	svcvc	0x0001006e
    353c:	00000025 	andeq	r0, r0, r5, lsr #32
    3540:	0000080b 	andeq	r0, r0, fp, lsl #16
    3544:	746d6622 	strbtvc	r6, [sp], #-1570	; 0xfffff9de
    3548:	857f0100 	ldrbhi	r0, [pc, #-256]!	; 3450 <_start-0x4bb0>
    354c:	39000005 	stmdbcc	r0, {r0, r2}
    3550:	23000008 	movwcs	r0, #8
    3554:	0000011b 	andeq	r0, r0, fp, lsl r1
    3558:	08e07f01 	stmiaeq	r0!, {r0, r8, r9, sl, fp, ip, sp, lr}^
    355c:	91030000 	mrsls	r0, (UNDEF: 3)
    3560:	70247edc 	ldrdvc	r7, [r4], -ip	; <UNPREDICTABLE>
    3564:	07800100 	streq	r0, [r0, r0, lsl #2]
    3568:	99000001 	stmdbls	r0, {r0}
    356c:	24000008 	strcs	r0, [r0], #-8
    3570:	80010065 	andhi	r0, r1, r5, rrx
    3574:	00000107 	andeq	r0, r0, r7, lsl #2
    3578:	00000917 	andeq	r0, r0, r7, lsl r9
    357c:	00021f25 	andeq	r1, r2, r5, lsr #30
    3580:	000b6100 	andeq	r6, fp, r0, lsl #2
    3584:	18030500 	stmdane	r3, {r8, sl}
    3588:	2600009a 			; <UNDEFINED> instruction: 0x2600009a
    358c:	00000080 	andeq	r0, r0, r0, lsl #1
    3590:	01007324 	tsteq	r0, r4, lsr #6
    3594:	0001078d 	andeq	r0, r1, sp, lsl #15
    3598:	00093e00 	andeq	r3, r9, r0, lsl #28
    359c:	756e2700 	strbvc	r2, [lr, #-1792]!	; 0xfffff900
    35a0:	8d01006d 	stchi	0, cr0, [r1, #-436]	; 0xfffffe4c
    35a4:	00000b66 	andeq	r0, r0, r6, ror #22
    35a8:	7ee09103 	urdvcs	f1, f3
    35ac:	00073028 	andeq	r3, r7, r8, lsr #32
    35b0:	2c8e0100 	stfcss	f0, [lr], {0}
    35b4:	88000000 	stmdahi	r0, {}	; <UNPREDICTABLE>
    35b8:	29000009 	stmdbcs	r0, {r0, r3}
    35bc:	00008cc4 	andeq	r8, r0, r4, asr #25
    35c0:	00000d92 	muleq	r0, r2, sp
    35c4:	000009ab 	andeq	r0, r0, fp, lsr #19
    35c8:	0250012a 	subseq	r0, r0, #-2147483638	; 0x8000000a
    35cc:	2b000077 	blcs	37b0 <_start-0x4850>
    35d0:	00008d44 	andeq	r8, r0, r4, asr #26
    35d4:	00000e52 	andeq	r0, r0, r2, asr lr
    35d8:	008d5829 	addeq	r5, sp, r9, lsr #16
    35dc:	000e5d00 	andeq	r5, lr, r0, lsl #26
    35e0:	0009e300 	andeq	lr, r9, r0, lsl #6
    35e4:	50012a00 	andpl	r2, r1, r0, lsl #20
    35e8:	9a880305 	bls	fe204204 <__bss_end__+0xfe1fa1c4>
    35ec:	012a0000 			; <UNDEFINED> instruction: 0x012a0000
    35f0:	24030551 	strcs	r0, [r3], #-1361	; 0xfffffaaf
    35f4:	2a00009a 	bcs	3864 <_start-0x479c>
    35f8:	03055201 	movweq	r5, #20993	; 0x5201
    35fc:	00009a18 	andeq	r9, r0, r8, lsl sl
    3600:	0253012a 	subseq	r0, r3, #-2147483638	; 0x8000000a
    3604:	2b009408 	blcs	2862c <__bss_end__+0x1e5ec>
    3608:	00008d5c 	andeq	r8, r0, ip, asr sp
    360c:	00000e68 	andeq	r0, r0, r8, ror #28
    3610:	008d602b 	addeq	r6, sp, fp, lsr #32
    3614:	000e5200 	andeq	r5, lr, r0, lsl #4
    3618:	8d742900 			; <UNDEFINED> instruction: 0x8d742900
    361c:	0e5d0000 	cdpeq	0, 5, cr0, cr13, cr0, {0}
    3620:	0a240000 	beq	903628 <__bss_end__+0x8f95e8>
    3624:	012a0000 			; <UNDEFINED> instruction: 0x012a0000
    3628:	a4030550 	strge	r0, [r3], #-1360	; 0xfffffab0
    362c:	2a00009a 	bcs	389c <_start-0x4764>
    3630:	03055101 	movweq	r5, #20737	; 0x5101
    3634:	00009a24 	andeq	r9, r0, r4, lsr #20
    3638:	0552012a 	ldrbeq	r0, [r2, #-298]	; 0xfffffed6
    363c:	009a1803 	addseq	r1, sl, r3, lsl #16
    3640:	53012a00 	movwpl	r2, #6656	; 0x1a00
    3644:	009a0802 	addseq	r0, sl, r2, lsl #16
    3648:	008d782b 	addeq	r7, sp, fp, lsr #16
    364c:	000e6800 	andeq	r6, lr, r0, lsl #16
    3650:	8da42900 			; <UNDEFINED> instruction: 0x8da42900
    3654:	0b760000 	bleq	1d8365c <__bss_end__+0x1d7961c>
    3658:	0a5a0000 	beq	1683660 <__bss_end__+0x1679620>
    365c:	012a0000 			; <UNDEFINED> instruction: 0x012a0000
    3660:	2a3a0150 	bcs	e83ba8 <__bss_end__+0xe79b68>
    3664:	91035101 	tstls	r3, r1, lsl #2
    3668:	012a7ed8 	ldrdeq	r7, [sl, -r8]!
    366c:	80080252 	andhi	r0, r8, r2, asr r2
    3670:	007d022a 	rsbseq	r0, sp, sl, lsr #4
    3674:	2a007402 	bcs	20684 <__bss_end__+0x16644>
    3678:	01047d02 	tsteq	r4, r2, lsl #26
    367c:	d8290031 	stmdale	r9!, {r0, r4, r5}
    3680:	7600008d 	strvc	r0, [r0], -sp, lsl #1
    3684:	8700000b 	strhi	r0, [r0, -fp]
    3688:	2a00000a 	bcs	36b8 <_start-0x4948>
    368c:	3a015001 	bcc	57698 <__bss_end__+0x4d658>
    3690:	0351012a 	cmpeq	r1, #-2147483638	; 0x8000000a
    3694:	2a7ed891 	bcs	1fb98e0 <__bss_end__+0x1faf8a0>
    3698:	08025201 	stmdaeq	r2, {r0, r9, ip, lr}
    369c:	7d022a80 	vstrvc	s4, [r2, #-512]	; 0xfffffe00
    36a0:	00740200 	rsbseq	r0, r4, r0, lsl #4
    36a4:	047d022a 	ldrbteq	r0, [sp], #-554	; 0xfffffdd6
    36a8:	29003001 	stmdbcs	r0, {r0, ip, sp}
    36ac:	00008e08 	andeq	r8, r0, r8, lsl #28
    36b0:	00000b76 	andeq	r0, r0, r6, ror fp
    36b4:	00000ab4 			; <UNDEFINED> instruction: 0x00000ab4
    36b8:	0150012a 	cmpeq	r0, sl, lsr #2
    36bc:	51012a40 	tstpl	r1, r0, asr #20
    36c0:	7ed89103 	atnvce	f1, f3
    36c4:	0252012a 	subseq	r0, r2, #-2147483638	; 0x8000000a
    36c8:	022a8008 	eoreq	r8, sl, #8
    36cc:	7402007d 	strvc	r0, [r2], #-125	; 0xffffff83
    36d0:	7d022a00 	vstrvc	s4, [r2, #-0]
    36d4:	00300104 	eorseq	r0, r0, r4, lsl #2
    36d8:	008e3829 	addeq	r3, lr, r9, lsr #16
    36dc:	000b7600 	andeq	r7, fp, r0, lsl #12
    36e0:	000ae100 	andeq	lr, sl, r0, lsl #2
    36e4:	50012a00 	andpl	r2, r1, r0, lsl #20
    36e8:	012a3201 			; <UNDEFINED> instruction: 0x012a3201
    36ec:	d8910351 	ldmle	r1, {r0, r4, r6, r8, r9}
    36f0:	52012a7e 	andpl	r2, r1, #516096	; 0x7e000
    36f4:	2a800802 	bcs	fe005704 <__bss_end__+0xfdffb6c4>
    36f8:	02007d02 	andeq	r7, r0, #2, 26	; 0x80
    36fc:	022a0074 	eoreq	r0, sl, #116	; 0x74
    3700:	3001047d 	andcc	r0, r1, sp, ror r4
    3704:	8e7c2900 	vaddhi.f16	s5, s24, s0	; <UNPREDICTABLE>
    3708:	0b760000 	bleq	1d83710 <__bss_end__+0x1d796d0>
    370c:	0b0e0000 	bleq	383714 <__bss_end__+0x3796d4>
    3710:	012a0000 			; <UNDEFINED> instruction: 0x012a0000
    3714:	2a380150 	bcs	e03c5c <__bss_end__+0xdf9c1c>
    3718:	91035101 	tstls	r3, r1, lsl #2
    371c:	012a7ed8 	ldrdeq	r7, [sl, -r8]!
    3720:	80080252 	andhi	r0, r8, r2, asr r2
    3724:	007d022a 	rsbseq	r0, sp, sl, lsr #4
    3728:	2a007402 	bcs	20738 <__bss_end__+0x166f8>
    372c:	01047d02 	tsteq	r4, r2, lsl #26
    3730:	842b0030 	strthi	r0, [fp], #-48	; 0xffffffd0
    3734:	5200008e 	andpl	r0, r0, #142	; 0x8e
    3738:	2900000e 	stmdbcs	r0, {r1, r2, r3}
    373c:	00008ea0 	andeq	r8, r0, r0, lsr #29
    3740:	00000e5d 	andeq	r0, r0, sp, asr lr
    3744:	00000b46 	andeq	r0, r0, r6, asr #22
    3748:	0550012a 	ldrbeq	r0, [r0, #-298]	; 0xfffffed6
    374c:	009acc03 	addseq	ip, sl, r3, lsl #24
    3750:	51012a00 	tstpl	r1, r0, lsl #20
    3754:	9a240305 	bls	904370 <__bss_end__+0x8fa330>
    3758:	012a0000 			; <UNDEFINED> instruction: 0x012a0000
    375c:	18030552 	stmdane	r3, {r1, r4, r6, r8, sl}
    3760:	2a00009a 	bcs	39d0 <_start-0x4630>
    3764:	08025301 	stmdaeq	r2, {r0, r8, r9, ip, lr}
    3768:	a42b00bb 	strtge	r0, [fp], #-187	; 0xffffff45
    376c:	6800008e 	stmdavs	r0, {r1, r2, r3, r7}
    3770:	0000000e 	andeq	r0, r0, lr
    3774:	01140800 	tsteq	r4, r0, lsl #16
    3778:	0b610000 	bleq	1843780 <__bss_end__+0x1839740>
    377c:	c7090000 	strgt	r0, [r9, -r0]
    3780:	09000000 	stmdbeq	r0, {}	; <UNPREDICTABLE>
    3784:	0b510e00 	bleq	1446f8c <__bss_end__+0x143cf4c>
    3788:	0d080000 	stceq	0, cr0, [r8, #-0]
    378c:	76000001 	strvc	r0, [r0], -r1
    3790:	0900000b 	stmdbeq	r0, {r0, r1, r3}
    3794:	000000c7 	andeq	r0, r0, r7, asr #1
    3798:	542c007f 	strtpl	r0, [ip], #-127	; 0xffffff81
    379c:	01000007 	tsteq	r0, r7
    37a0:	00010747 	andeq	r0, r1, r7, asr #14
    37a4:	008a3000 	addeq	r3, sl, r0
    37a8:	0001b000 	andeq	fp, r1, r0
    37ac:	b19c0100 	orrslt	r0, ip, r0, lsl #2
    37b0:	2d00000c 	stccs	0, cr0, [r0, #-48]	; 0xffffffd0
    37b4:	000000cd 	andeq	r0, r0, sp, asr #1
    37b8:	002c4701 	eoreq	r4, ip, r1, lsl #14
    37bc:	09b20000 	ldmibeq	r2!, {}	; <UNPREDICTABLE>
    37c0:	64220000 	strtvs	r0, [r2], #-0
    37c4:	01007473 	tsteq	r0, r3, ror r4
    37c8:	00010747 	andeq	r0, r1, r7, asr #14
    37cc:	0009e000 	andeq	lr, r9, r0
    37d0:	006e2200 	rsbeq	r2, lr, r0, lsl #4
    37d4:	00254701 	eoreq	r4, r5, r1, lsl #14
    37d8:	09fe0000 	ldmibeq	lr!, {}^	; <UNPREDICTABLE>
    37dc:	76220000 	strtvc	r0, [r2], -r0
    37e0:	01006c61 	tsteq	r0, r1, ror #24
    37e4:	00002547 	andeq	r2, r0, r7, asr #10
    37e8:	000a1c00 	andeq	r1, sl, r0, lsl #24
    37ec:	07302d00 	ldreq	r2, [r0, -r0, lsl #26]!
    37f0:	47010000 	strmi	r0, [r1, -r0]
    37f4:	00000025 	andeq	r0, r0, r5, lsr #32
    37f8:	00000a90 	muleq	r0, r0, sl
    37fc:	00071f23 	andeq	r1, r7, r3, lsr #30
    3800:	25470100 	strbcs	r0, [r7, #-256]	; 0xffffff00
    3804:	02000000 	andeq	r0, r0, #0
    3808:	62270491 	eorvs	r0, r7, #-1862270976	; 0x91000000
    380c:	01006675 	tsteq	r0, r5, ror r6
    3810:	000cb14c 	andeq	fp, ip, ip, asr #2
    3814:	a8910300 	ldmge	r1, {r8, r9}
    3818:	0070247f 	rsbseq	r2, r0, pc, ror r4
    381c:	01074c01 	tsteq	r7, r1, lsl #24
    3820:	0aba0000 	beq	fee83828 <__bss_end__+0xfee797e8>
    3824:	75240000 	strvc	r0, [r4, #-0]!
    3828:	2c4d0100 	stfcse	f0, [sp], {-0}
    382c:	84000000 	strhi	r0, [r0], #-0
    3830:	2500000b 	strcs	r0, [r0, #-11]
    3834:	0000021f 	andeq	r0, r0, pc, lsl r2
    3838:	00000cd1 	ldrdeq	r0, [r0], -r1
    383c:	9a000305 	bls	4458 <_start-0x3ba8>
    3840:	9c2e0000 	stcls	0, cr0, [lr], #-0
    3844:	7c00008a 	stcvc	0, cr0, [r0], {138}	; 0x8a
    3848:	3b000000 	blcc	3850 <_start-0x47b0>
    384c:	2800000c 	stmdacs	r0, {r2, r3}
    3850:	0000073e 	andeq	r0, r0, lr, lsr r7
    3854:	002c5201 	eoreq	r5, ip, r1, lsl #4
    3858:	0bef0000 	bleq	ffbc3860 <__bss_end__+0xffbb9820>
    385c:	29000000 	stmdbcs	r0, {}	; <UNPREDICTABLE>
    3860:	00008b58 	andeq	r8, r0, r8, asr fp
    3864:	00000d42 	andeq	r0, r0, r2, asr #26
    3868:	00000c4f 	andeq	r0, r0, pc, asr #24
    386c:	0251012a 	subseq	r0, r1, #-2147483638	; 0x8000000a
    3870:	2900007d 	stmdbcs	r0, {r0, r2, r3, r4, r5, r6}
    3874:	00008b6c 	andeq	r8, r0, ip, ror #22
    3878:	00000cd6 	ldrdeq	r0, [r0], -r6
    387c:	00000c6f 	andeq	r0, r0, pc, ror #24
    3880:	0250012a 	subseq	r0, r0, #-2147483638	; 0x8000000a
    3884:	012a0075 			; <UNDEFINED> instruction: 0x012a0075
    3888:	00740251 	rsbseq	r0, r4, r1, asr r2
    388c:	0253012a 	subseq	r0, r3, #-2147483638	; 0x8000000a
    3890:	2b00007d 	blcs	3a8c <_start-0x4574>
    3894:	00008bac 	andeq	r8, r0, ip, lsr #23
    3898:	00000e52 	andeq	r0, r0, r2, asr lr
    389c:	008bc029 	addeq	ip, fp, r9, lsr #32
    38a0:	000e5d00 	andeq	r5, lr, r0, lsl #26
    38a4:	000ca700 	andeq	sl, ip, r0, lsl #14
    38a8:	50012a00 	andpl	r2, r1, r0, lsl #20
    38ac:	9a380305 	bls	e044c8 <__bss_end__+0xdfa488>
    38b0:	012a0000 			; <UNDEFINED> instruction: 0x012a0000
    38b4:	24030551 	strcs	r0, [r3], #-1361	; 0xfffffaaf
    38b8:	2a00009a 	bcs	3b28 <_start-0x44d8>
    38bc:	03055201 	movweq	r5, #20993	; 0x5201
    38c0:	00009a00 	andeq	r9, r0, r0, lsl #20
    38c4:	0253012a 	subseq	r0, r3, #-2147483638	; 0x8000000a
    38c8:	2b007708 	blcs	214f0 <__bss_end__+0x174b0>
    38cc:	00008bc4 	andeq	r8, r0, r4, asr #23
    38d0:	00000e68 	andeq	r0, r0, r8, ror #28
    38d4:	010d0800 	tsteq	sp, r0, lsl #16
    38d8:	0cc10000 	stcleq	0, cr0, [r1], {0}
    38dc:	c7090000 	strgt	r0, [r9, -r0]
    38e0:	3f000000 	svccc	0x00000000
    38e4:	01140800 	tsteq	r4, r0, lsl #16
    38e8:	0cd10000 	ldcleq	0, cr0, [r1], {0}
    38ec:	c7090000 	strgt	r0, [r9, -r0]
    38f0:	04000000 	streq	r0, [r0], #-0
    38f4:	0cc10e00 	stcleq	14, cr0, [r1], {0}
    38f8:	282c0000 	stmdacs	ip!, {}	; <UNPREDICTABLE>
    38fc:	01000007 	tsteq	r0, r7
    3900:	00010737 	andeq	r0, r1, r7, lsr r7
    3904:	0089f000 	addeq	pc, r9, r0
    3908:	00004000 	andeq	r4, r0, r0
    390c:	429c0100 	addsmi	r0, ip, #0, 2
    3910:	2200000d 	andcs	r0, r0, #13
    3914:	00747364 	rsbseq	r7, r4, r4, ror #6
    3918:	01073701 	tsteq	r7, r1, lsl #14
    391c:	0c260000 	stceq	0, cr0, [r6], #-0
    3920:	6e220000 	cdpvs	0, 2, cr0, cr2, cr0, {0}
    3924:	25370100 	ldrcs	r0, [r7, #-256]!	; 0xffffff00
    3928:	5e000000 	cdppl	0, 0, cr0, cr0, cr0, {0}
    392c:	2200000c 	andcs	r0, r0, #12
    3930:	37010070 	smlsdxcc	r1, r0, r0, r0
    3934:	00000107 	andeq	r0, r0, r7, lsl #2
    3938:	00000c7f 	andeq	r0, r0, pc, ror ip
    393c:	000b5e2d 	andeq	r5, fp, sp, lsr #28
    3940:	07370100 	ldreq	r0, [r7, -r0, lsl #2]!
    3944:	b5000001 	strlt	r0, [r0, #-1]
    3948:	2400000c 	strcs	r0, [r0], #-12
    394c:	006e656c 	rsbeq	r6, lr, ip, ror #10
    3950:	00253901 	eoreq	r3, r5, r1, lsl #18
    3954:	0cd30000 	ldcleq	0, cr0, [r3], {0}
    3958:	73270000 			; <UNDEFINED> instruction: 0x73270000
    395c:	073d0100 	ldreq	r0, [sp, -r0, lsl #2]!
    3960:	01000001 	tsteq	r0, r1
    3964:	702f0050 	eorvc	r0, pc, r0, asr r0	; <UNPREDICTABLE>
    3968:	01006461 	tsteq	r0, r1, ror #8
    396c:	0001072e 	andeq	r0, r1, lr, lsr #14
    3970:	0089c400 	addeq	ip, r9, r0, lsl #8
    3974:	00002c00 	andeq	r2, r0, r0, lsl #24
    3978:	929c0100 	addsls	r0, ip, #0, 2
    397c:	2200000d 	andcs	r0, r0, #13
    3980:	2e010070 	mcrcs	0, 0, r0, cr1, cr0, {3}
    3984:	00000107 	andeq	r0, r0, r7, lsl #2
    3988:	00000d32 	andeq	r0, r0, r2, lsr sp
    398c:	0000cd2d 	andeq	ip, r0, sp, lsr #26
    3990:	072e0100 	streq	r0, [lr, -r0, lsl #2]!
    3994:	5d000001 	stcpl	0, cr0, [r0, #-4]
    3998:	2300000d 	movwcs	r0, #13
    399c:	00000730 	andeq	r0, r0, r0, lsr r7
    39a0:	00252e01 	eoreq	r2, r5, r1, lsl #28
    39a4:	52010000 	andpl	r0, r1, #0
    39a8:	6e656c27 	cdpvs	12, 6, cr6, cr5, cr7, {1}
    39ac:	252f0100 	strcs	r0, [pc, #-256]!	; 38b4 <_start-0x474c>
    39b0:	01000000 	mrseq	r0, (UNDEF: 0)
    39b4:	4c2c0051 	stcmi	0, cr0, [ip], #-324	; 0xfffffebc
    39b8:	01000007 	tsteq	r0, r7
    39bc:	00002527 	andeq	r2, r0, r7, lsr #10
    39c0:	0089b000 	addeq	fp, r9, r0
    39c4:	00001400 	andeq	r1, r0, r0, lsl #8
    39c8:	b99c0100 	ldmiblt	ip, {r8}
    39cc:	2200000d 	andcs	r0, r0, #13
    39d0:	27010063 	strcs	r0, [r1, -r3, rrx]
    39d4:	00000025 	andeq	r0, r0, r5, lsr #32
    39d8:	00000d7e 	andeq	r0, r0, lr, ror sp
    39dc:	07103000 	ldreq	r3, [r0, -r0]
    39e0:	1f010000 	svcne	0x00010000
    39e4:	00008be0 	andeq	r8, r0, r0, ror #23
    39e8:	00000054 	andeq	r0, r0, r4, asr r0
    39ec:	0e3d9c01 	cdpeq	12, 3, cr9, cr13, cr1, {0}
    39f0:	442d0000 	strtmi	r0, [sp], #-0
    39f4:	01000007 	tsteq	r0, r7
    39f8:	0008981f 	andeq	r9, r8, pc, lsl r8
    39fc:	000dac00 	andeq	sl, sp, r0, lsl #24
    3a00:	07362d00 	ldreq	r2, [r6, -r0, lsl #26]!
    3a04:	1f010000 	svcne	0x00010000
    3a08:	000008b8 			; <UNDEFINED> instruction: 0x000008b8
    3a0c:	00000dcd 	andeq	r0, r0, sp, asr #27
    3a10:	00021f25 	andeq	r1, r2, r5, lsr #30
    3a14:	000e4d00 	andeq	r4, lr, r0, lsl #26
    3a18:	08030500 	stmdaeq	r3, {r8, sl}
    3a1c:	2b00009a 	blcs	3c8c <_start-0x4374>
    3a20:	00008c08 	andeq	r8, r0, r8, lsl #24
    3a24:	00000e52 	andeq	r0, r0, r2, asr lr
    3a28:	008c1c29 	addeq	r1, ip, r9, lsr #24
    3a2c:	000e5d00 	andeq	r5, lr, r0, lsl #26
    3a30:	000e3300 	andeq	r3, lr, r0, lsl #6
    3a34:	50012a00 	andpl	r2, r1, r0, lsl #20
    3a38:	9a700305 	bls	1c04654 <__bss_end__+0x1bfa614>
    3a3c:	012a0000 			; <UNDEFINED> instruction: 0x012a0000
    3a40:	24030551 	strcs	r0, [r3], #-1361	; 0xfffffaaf
    3a44:	2a00009a 	bcs	3cb4 <_start-0x434c>
    3a48:	03055201 	movweq	r5, #20993	; 0x5201
    3a4c:	00009a08 	andeq	r9, r0, r8, lsl #20
    3a50:	0253012a 	subseq	r0, r3, #-2147483638	; 0x8000000a
    3a54:	2b002008 	blcs	ba7c <__bss_end__+0x1a3c>
    3a58:	00008c20 	andeq	r8, r0, r0, lsr #24
    3a5c:	00000e68 	andeq	r0, r0, r8, ror #28
    3a60:	01140800 	tsteq	r4, r0, lsl #16
    3a64:	0e4d0000 	cdpeq	0, 4, cr0, cr13, cr0, {0}
    3a68:	c7090000 	strgt	r0, [r9, -r0]
    3a6c:	0e000000 	cdpeq	0, 0, cr0, cr0, cr0, {0}
    3a70:	0e3d0e00 	cdpeq	14, 3, cr0, cr13, cr0, {0}
    3a74:	fa310000 	blx	c43a7c <__bss_end__+0xc39a3c>
    3a78:	fa000001 	blx	3a84 <_start-0x457c>
    3a7c:	06000001 	streq	r0, [r0], -r1
    3a80:	06ba311e 	ssateq	r3, #27, lr, lsl #2
    3a84:	06ba0000 	ldrteq	r0, [sl], r0
    3a88:	29060000 	stmdbcs	r6, {}	; <UNPREDICTABLE>
    3a8c:	0002a131 	andeq	sl, r2, r1, lsr r1
    3a90:	0002a100 	andeq	sl, r2, r0, lsl #2
    3a94:	00650600 	rsbeq	r0, r5, r0, lsl #12
    3a98:	0000094c 	andeq	r0, r0, ip, asr #18
    3a9c:	0a030004 	beq	c3ab4 <__bss_end__+0xb9a74>
    3aa0:	01040000 	mrseq	r0, (UNDEF: 4)
    3aa4:	000003db 	ldrdeq	r0, [r0], -fp
    3aa8:	0007590c 	andeq	r5, r7, ip, lsl #18
    3aac:	0006e300 	andeq	lr, r6, r0, lsl #6
    3ab0:	008ef400 	addeq	pc, lr, r0, lsl #8
    3ab4:	0000e800 	andeq	lr, r0, r0, lsl #16
    3ab8:	00064300 	andeq	r4, r6, r0, lsl #6
    3abc:	05040200 	streq	r0, [r4, #-512]	; 0xfffffe00
    3ac0:	00746e69 	rsbseq	r6, r4, r9, ror #28
    3ac4:	74070403 	strvc	r0, [r7], #-1027	; 0xfffffbfd
    3ac8:	03000000 	movweq	r0, #0
    3acc:	02ff0601 	rscseq	r0, pc, #1048576	; 0x100000
    3ad0:	02030000 	andeq	r0, r3, #0
    3ad4:	00031905 	andeq	r1, r3, r5, lsl #18
    3ad8:	05040300 	streq	r0, [r4, #-768]	; 0xfffffd00
    3adc:	000000bd 	strheq	r0, [r0], -sp
    3ae0:	b8050803 	stmdalt	r5, {r0, r1, fp}
    3ae4:	04000000 	streq	r0, [r0], #-0
    3ae8:	0000067e 	andeq	r0, r0, lr, ror r6
    3aec:	005a2e02 	subseq	r2, sl, r2, lsl #28
    3af0:	01030000 	mrseq	r0, (UNDEF: 3)
    3af4:	0002fd08 	andeq	pc, r2, r8, lsl #26
    3af8:	07020300 	streq	r0, [r2, -r0, lsl #6]
    3afc:	00000233 	andeq	r0, r0, r3, lsr r2
    3b00:	00063c04 	andeq	r3, r6, r4, lsl #24
    3b04:	73340200 	teqvc	r4, #0, 4
    3b08:	03000000 	movweq	r0, #0
    3b0c:	006f0704 	rsbeq	r0, pc, r4, lsl #14
    3b10:	08030000 	stmdaeq	r3, {}	; <UNPREDICTABLE>
    3b14:	00006a07 	andeq	r6, r0, r7, lsl #20
    3b18:	02eb0400 	rsceq	r0, fp, #0, 8
    3b1c:	07030000 	streq	r0, [r3, -r0]
    3b20:	00000025 	andeq	r0, r0, r5, lsr #32
    3b24:	0002da04 	andeq	sp, r2, r4, lsl #20
    3b28:	412c0400 			; <UNDEFINED> instruction: 0x412c0400
    3b2c:	04000000 	streq	r0, [r0], #-0
    3b30:	000003c4 	andeq	r0, r0, r4, asr #7
    3b34:	00417204 	subeq	r7, r1, r4, lsl #4
    3b38:	76050000 	strvc	r0, [r5], -r0
    3b3c:	05000002 	streq	r0, [r0, #-2]
    3b40:	002c0165 	eoreq	r0, ip, r5, ror #2
    3b44:	04060000 	streq	r0, [r6], #-0
    3b48:	00cda604 	sbceq	sl, sp, r4, lsl #12
    3b4c:	70070000 	andvc	r0, r7, r0
    3b50:	04000002 	streq	r0, [r0], #-2
    3b54:	0000a2a8 	andeq	sl, r0, r8, lsr #5
    3b58:	01f30700 	mvnseq	r0, r0, lsl #14
    3b5c:	a9040000 	stmdbge	r4, {}	; <UNPREDICTABLE>
    3b60:	000000cd 	andeq	r0, r0, sp, asr #1
    3b64:	005a0800 	subseq	r0, sl, r0, lsl #16
    3b68:	00dd0000 	sbcseq	r0, sp, r0
    3b6c:	dd090000 	stcle	0, cr0, [r9, #-0]
    3b70:	03000000 	movweq	r0, #0
    3b74:	07040300 	streq	r0, [r4, -r0, lsl #6]
    3b78:	000002ae 	andeq	r0, r0, lr, lsr #5
    3b7c:	a304080a 	movwge	r0, #18442	; 0x480a
    3b80:	00000105 	andeq	r0, r0, r5, lsl #2
    3b84:	0003ae0b 	andeq	sl, r3, fp, lsl #28
    3b88:	25a50400 	strcs	r0, [r5, #1024]!	; 0x400
    3b8c:	00000000 	andeq	r0, r0, r0
    3b90:	0003b60b 	andeq	fp, r3, fp, lsl #12
    3b94:	aeaa0400 	cdpge	4, 10, cr0, cr10, cr0, {0}
    3b98:	04000000 	streq	r0, [r0], #-0
    3b9c:	03410400 	movteq	r0, #5120	; 0x1400
    3ba0:	ab040000 	blge	103ba8 <__bss_end__+0xf9b68>
    3ba4:	000000e4 	andeq	r0, r0, r4, ror #1
    3ba8:	0001b004 	andeq	fp, r1, r4
    3bac:	81af0400 			; <UNDEFINED> instruction: 0x81af0400
    3bb0:	0c000000 	stceq	0, cr0, [r0], {-0}
    3bb4:	23040d04 	movwcs	r0, #19716	; 0x4d04
    3bb8:	03000001 	movweq	r0, #1
    3bbc:	03060801 	movweq	r0, #26625	; 0x6801
    3bc0:	230e0000 	movwcs	r0, #57344	; 0xe000
    3bc4:	04000001 	streq	r0, [r0], #-1
    3bc8:	00000458 	andeq	r0, r0, r8, asr r4
    3bcc:	00731606 	rsbseq	r1, r3, r6, lsl #12
    3bd0:	c10f0000 	mrsgt	r0, CPSR
    3bd4:	18000001 	stmdane	r0, {r0}
    3bd8:	018d2d06 	orreq	r2, sp, r6, lsl #26
    3bdc:	620b0000 	andvs	r0, fp, #0
    3be0:	06000003 	streq	r0, [r0], -r3
    3be4:	00018d2f 	andeq	r8, r1, pc, lsr #26
    3be8:	5f100000 	svcpl	0x00100000
    3bec:	3006006b 	andcc	r0, r6, fp, rrx
    3bf0:	00000025 	andeq	r0, r0, r5, lsr #32
    3bf4:	03990b04 	orrseq	r0, r9, #4, 22	; 0x1000
    3bf8:	30060000 	andcc	r0, r6, r0
    3bfc:	00000025 	andeq	r0, r0, r5, lsr #32
    3c00:	01aa0b08 			; <UNDEFINED> instruction: 0x01aa0b08
    3c04:	30060000 	andcc	r0, r6, r0
    3c08:	00000025 	andeq	r0, r0, r5, lsr #32
    3c0c:	04a60b0c 	strteq	r0, [r6], #2828	; 0xb0c
    3c10:	30060000 	andcc	r0, r6, r0
    3c14:	00000025 	andeq	r0, r0, r5, lsr #32
    3c18:	785f1010 	ldmdavc	pc, {r4, ip}^	; <UNPREDICTABLE>
    3c1c:	93310600 	teqls	r1, #0, 12
    3c20:	14000001 	strne	r0, [r0], #-1
    3c24:	3a040d00 	bcc	10702c <__bss_end__+0xfcfec>
    3c28:	08000001 	stmdaeq	r0, {r0}
    3c2c:	0000012f 	andeq	r0, r0, pc, lsr #2
    3c30:	000001a3 	andeq	r0, r0, r3, lsr #3
    3c34:	0000dd09 	andeq	sp, r0, r9, lsl #26
    3c38:	0f000000 	svceq	0x00000000
    3c3c:	000001ee 	andeq	r0, r0, lr, ror #3
    3c40:	1c350624 	ldcne	6, cr0, [r5], #-144	; 0xffffff70
    3c44:	0b000002 	bleq	3c54 <_start-0x43ac>
    3c48:	000000af 	andeq	r0, r0, pc, lsr #1
    3c4c:	00253706 	eoreq	r3, r5, r6, lsl #14
    3c50:	0b000000 	bleq	3c58 <_start-0x43a8>
    3c54:	000003cc 	andeq	r0, r0, ip, asr #7
    3c58:	00253806 	eoreq	r3, r5, r6, lsl #16
    3c5c:	0b040000 	bleq	103c64 <__bss_end__+0xf9c24>
    3c60:	000000d2 	ldrdeq	r0, [r0], -r2
    3c64:	00253906 	eoreq	r3, r5, r6, lsl #18
    3c68:	0b080000 	bleq	203c70 <__bss_end__+0x1f9c30>
    3c6c:	00000527 	andeq	r0, r0, r7, lsr #10
    3c70:	00253a06 	eoreq	r3, r5, r6, lsl #20
    3c74:	0b0c0000 	bleq	303c7c <__bss_end__+0x2f9c3c>
    3c78:	000002be 			; <UNDEFINED> instruction: 0x000002be
    3c7c:	00253b06 	eoreq	r3, r5, r6, lsl #22
    3c80:	0b100000 	bleq	403c88 <__bss_end__+0x3f9c48>
    3c84:	00000297 	muleq	r0, r7, r2
    3c88:	00253c06 	eoreq	r3, r5, r6, lsl #24
    3c8c:	0b140000 	bleq	503c94 <__bss_end__+0x4f9c54>
    3c90:	000004ab 	andeq	r0, r0, fp, lsr #9
    3c94:	00253d06 	eoreq	r3, r5, r6, lsl #26
    3c98:	0b180000 	bleq	603ca0 <__bss_end__+0x5f9c60>
    3c9c:	00000323 	andeq	r0, r0, r3, lsr #6
    3ca0:	00253e06 	eoreq	r3, r5, r6, lsl #28
    3ca4:	0b1c0000 	bleq	703cac <__bss_end__+0x6f9c6c>
    3ca8:	000004ee 	andeq	r0, r0, lr, ror #9
    3cac:	00253f06 	eoreq	r3, r5, r6, lsl #30
    3cb0:	00200000 	eoreq	r0, r0, r0
    3cb4:	00011211 	andeq	r1, r1, r1, lsl r2
    3cb8:	06010800 	streq	r0, [r1], -r0, lsl #16
    3cbc:	00025c48 	andeq	r5, r2, r8, asr #24
    3cc0:	019d0b00 	orrseq	r0, sp, r0, lsl #22
    3cc4:	49060000 	stmdbmi	r6, {}	; <UNPREDICTABLE>
    3cc8:	0000025c 	andeq	r0, r0, ip, asr r2
    3ccc:	00000b00 	andeq	r0, r0, r0, lsl #22
    3cd0:	4a060000 	bmi	183cd8 <__bss_end__+0x179c98>
    3cd4:	0000025c 	andeq	r0, r0, ip, asr r2
    3cd8:	044a1280 	strbeq	r1, [sl], #-640	; 0xfffffd80
    3cdc:	4c060000 	stcmi	0, cr0, [r6], {-0}
    3ce0:	0000012f 	andeq	r0, r0, pc, lsr #2
    3ce4:	37120100 	ldrcc	r0, [r2, -r0, lsl #2]
    3ce8:	06000001 	streq	r0, [r0], -r1
    3cec:	00012f4f 	andeq	r2, r1, pc, asr #30
    3cf0:	00010400 	andeq	r0, r1, r0, lsl #8
    3cf4:	00011b08 	andeq	r1, r1, r8, lsl #22
    3cf8:	00026c00 	andeq	r6, r2, r0, lsl #24
    3cfc:	00dd0900 	sbcseq	r0, sp, r0, lsl #18
    3d00:	001f0000 	andseq	r0, pc, r0
    3d04:	0002c711 	andeq	ip, r2, r1, lsl r7
    3d08:	06019000 	streq	r9, [r1], -r0
    3d0c:	0002aa5b 	andeq	sl, r2, fp, asr sl
    3d10:	03620b00 	cmneq	r2, #0, 22
    3d14:	5c060000 	stcpl	0, cr0, [r6], {-0}
    3d18:	000002aa 	andeq	r0, r0, sl, lsr #5
    3d1c:	037a0b00 	cmneq	sl, #0, 22
    3d20:	5d060000 	stcpl	0, cr0, [r6, #-0]
    3d24:	00000025 	andeq	r0, r0, r5, lsr #32
    3d28:	01a50b04 			; <UNDEFINED> instruction: 0x01a50b04
    3d2c:	5f060000 	svcpl	0x00060000
    3d30:	000002b0 			; <UNDEFINED> instruction: 0x000002b0
    3d34:	01120b08 	tsteq	r2, r8, lsl #22
    3d38:	60060000 	andvs	r0, r6, r0
    3d3c:	0000021c 	andeq	r0, r0, ip, lsl r2
    3d40:	040d0088 	streq	r0, [sp], #-136	; 0xffffff78
    3d44:	0000026c 	andeq	r0, r0, ip, ror #4
    3d48:	0002c008 	andeq	ip, r2, r8
    3d4c:	0002c000 	andeq	ip, r2, r0
    3d50:	00dd0900 	sbcseq	r0, sp, r0, lsl #18
    3d54:	001f0000 	andseq	r0, pc, r0
    3d58:	02c6040d 	sbceq	r0, r6, #218103808	; 0xd000000
    3d5c:	0f130000 	svceq	0x00130000
    3d60:	0000032d 	andeq	r0, r0, sp, lsr #6
    3d64:	ec730608 	ldcl	6, cr0, [r3], #-32	; 0xffffffe0
    3d68:	0b000002 	bleq	3d78 <_start-0x4288>
    3d6c:	000000cc 	andeq	r0, r0, ip, asr #1
    3d70:	02ec7406 	rsceq	r7, ip, #100663296	; 0x6000000
    3d74:	0b000000 	bleq	3d7c <_start-0x4284>
    3d78:	0000001b 	andeq	r0, r0, fp, lsl r0
    3d7c:	00257506 	eoreq	r7, r5, r6, lsl #10
    3d80:	00040000 	andeq	r0, r4, r0
    3d84:	005a040d 	subseq	r0, sl, sp, lsl #8
    3d88:	4c0f0000 	stcmi	0, cr0, [pc], {-0}
    3d8c:	68000003 	stmdavs	r0, {r0, r1}
    3d90:	041cb306 	ldreq	fp, [ip], #-774	; 0xfffffcfa
    3d94:	5f100000 	svcpl	0x00100000
    3d98:	b4060070 	strlt	r0, [r6], #-112	; 0xffffff90
    3d9c:	000002ec 	andeq	r0, r0, ip, ror #5
    3da0:	725f1000 	subsvc	r1, pc, #0
    3da4:	25b50600 	ldrcs	r0, [r5, #1536]!	; 0x600
    3da8:	04000000 	streq	r0, [r0], #-0
    3dac:	00775f10 	rsbseq	r5, r7, r0, lsl pc
    3db0:	0025b606 	eoreq	fp, r5, r6, lsl #12
    3db4:	0b080000 	bleq	203dbc <__bss_end__+0x1f9d7c>
    3db8:	00000130 	andeq	r0, r0, r0, lsr r1
    3dbc:	003ab706 	eorseq	fp, sl, r6, lsl #14
    3dc0:	0b0c0000 	bleq	303dc8 <__bss_end__+0x2f9d88>
    3dc4:	00000219 	andeq	r0, r0, r9, lsl r2
    3dc8:	003ab806 	eorseq	fp, sl, r6, lsl #16
    3dcc:	100e0000 	andne	r0, lr, r0
    3dd0:	0066625f 	rsbeq	r6, r6, pc, asr r2
    3dd4:	02c7b906 	sbceq	fp, r7, #98304	; 0x18000
    3dd8:	0b100000 	bleq	403de0 <__bss_end__+0x3f9da0>
    3ddc:	00000089 	andeq	r0, r0, r9, lsl #1
    3de0:	0025ba06 	eoreq	fp, r5, r6, lsl #20
    3de4:	0b180000 	bleq	603dec <__bss_end__+0x5f9dac>
    3de8:	00000120 	andeq	r0, r0, r0, lsr #2
    3dec:	011bc106 	tsteq	fp, r6, lsl #2
    3df0:	0b1c0000 	bleq	703df8 <__bss_end__+0x6f9db8>
    3df4:	00000a7d 	andeq	r0, r0, sp, ror sl
    3df8:	0577c306 	ldrbeq	ip, [r7, #-774]!	; 0xfffffcfa
    3dfc:	0b200000 	bleq	803e04 <__bss_end__+0x7f9dc4>
    3e00:	00000611 	andeq	r0, r0, r1, lsl r6
    3e04:	05a1c506 	streq	ip, [r1, #1286]!	; 0x506
    3e08:	0b240000 	bleq	903e10 <__bss_end__+0x8f9dd0>
    3e0c:	000003be 			; <UNDEFINED> instruction: 0x000003be
    3e10:	05c5c806 	strbeq	ip, [r5, #2054]	; 0x806
    3e14:	0b280000 	bleq	a03e1c <__bss_end__+0x9f9ddc>
    3e18:	00000508 	andeq	r0, r0, r8, lsl #10
    3e1c:	05dfc906 	ldrbeq	ip, [pc, #2310]	; 472a <_start-0x38d6>
    3e20:	102c0000 	eorne	r0, ip, r0
    3e24:	0062755f 	rsbeq	r7, r2, pc, asr r5
    3e28:	02c7cc06 	sbceq	ip, r7, #1536	; 0x600
    3e2c:	10300000 	eorsne	r0, r0, r0
    3e30:	0070755f 	rsbseq	r7, r0, pc, asr r5
    3e34:	02eccd06 	rsceq	ip, ip, #384	; 0x180
    3e38:	10380000 	eorsne	r0, r8, r0
    3e3c:	0072755f 	rsbseq	r7, r2, pc, asr r5
    3e40:	0025ce06 	eoreq	ip, r5, r6, lsl #28
    3e44:	0b3c0000 	bleq	f03e4c <__bss_end__+0xef9e0c>
    3e48:	000000c6 	andeq	r0, r0, r6, asr #1
    3e4c:	05e5d106 	strbeq	sp, [r5, #262]!	; 0x106
    3e50:	0b400000 	bleq	1003e58 <__bss_end__+0xff9e18>
    3e54:	000004e0 	andeq	r0, r0, r0, ror #9
    3e58:	05f5d206 	ldrbeq	sp, [r5, #518]!	; 0x206
    3e5c:	10430000 	subne	r0, r3, r0
    3e60:	00626c5f 	rsbeq	r6, r2, pc, asr ip
    3e64:	02c7d506 	sbceq	sp, r7, #25165824	; 0x1800000
    3e68:	0b440000 	bleq	1103e70 <__bss_end__+0x10f9e30>
    3e6c:	0000014e 	andeq	r0, r0, lr, asr #2
    3e70:	0025d806 	eoreq	sp, r5, r6, lsl #16
    3e74:	0b4c0000 	bleq	1303e7c <__bss_end__+0x12f9e3c>
    3e78:	0000015f 	andeq	r0, r0, pc, asr r1
    3e7c:	008cd906 	addeq	sp, ip, r6, lsl #18
    3e80:	0b500000 	bleq	1403e88 <__bss_end__+0x13f9e48>
    3e84:	00000a1e 	andeq	r0, r0, lr, lsl sl
    3e88:	043adc06 	ldrteq	sp, [sl], #-3078	; 0xfffff3fa
    3e8c:	0b540000 	bleq	1503e94 <__bss_end__+0x14f9e54>
    3e90:	00000284 	andeq	r0, r0, r4, lsl #5
    3e94:	0110e006 	tsteq	r0, r6
    3e98:	0b580000 	bleq	1603ea0 <__bss_end__+0x15f9e60>
    3e9c:	00000354 	andeq	r0, r0, r4, asr r3
    3ea0:	0105e206 	tsteq	r5, r6, lsl #4
    3ea4:	0b5c0000 	bleq	1703eac <__bss_end__+0x16f9e6c>
    3ea8:	0000028f 	andeq	r0, r0, pc, lsl #5
    3eac:	0025e306 	eoreq	lr, r5, r6, lsl #6
    3eb0:	00640000 	rsbeq	r0, r4, r0
    3eb4:	00002514 	andeq	r2, r0, r4, lsl r5
    3eb8:	00043a00 	andeq	r3, r4, r0, lsl #20
    3ebc:	043a1500 	ldrteq	r1, [sl], #-1280	; 0xfffffb00
    3ec0:	1b150000 	blne	543ec8 <__bss_end__+0x539e88>
    3ec4:	15000001 	strne	r0, [r0, #-1]
    3ec8:	0000011d 	andeq	r0, r0, sp, lsl r1
    3ecc:	00002515 	andeq	r2, r0, r5, lsl r5
    3ed0:	040d0000 	streq	r0, [sp], #-0
    3ed4:	00000445 	andeq	r0, r0, r5, asr #8
    3ed8:	00043a0e 	andeq	r3, r4, lr, lsl #20
    3edc:	03a11600 			; <UNDEFINED> instruction: 0x03a11600
    3ee0:	04280000 	strteq	r0, [r8], #-0
    3ee4:	77023806 	strvc	r3, [r2, -r6, lsl #16]
    3ee8:	17000005 	strne	r0, [r0, -r5]
    3eec:	00000312 	andeq	r0, r0, r2, lsl r3
    3ef0:	25023a06 	strcs	r3, [r2, #-2566]	; 0xfffff5fa
    3ef4:	00000000 	andeq	r0, r0, r0
    3ef8:	00013f17 	andeq	r3, r1, r7, lsl pc
    3efc:	023f0600 	eorseq	r0, pc, #0, 12
    3f00:	0000064c 	andeq	r0, r0, ip, asr #12
    3f04:	02091704 	andeq	r1, r9, #4, 14	; 0x100000
    3f08:	3f060000 	svccc	0x00060000
    3f0c:	00064c02 	andeq	r4, r6, r2, lsl #24
    3f10:	b9170800 	ldmdblt	r7, {fp}
    3f14:	06000001 	streq	r0, [r0], -r1
    3f18:	064c023f 			; <UNDEFINED> instruction: 0x064c023f
    3f1c:	170c0000 	strne	r0, [ip, -r0]
    3f20:	00000375 	andeq	r0, r0, r5, ror r3
    3f24:	25024106 	strcs	r4, [r2, #-262]	; 0xfffffefa
    3f28:	10000000 	andne	r0, r0, r0
    3f2c:	00003717 	andeq	r3, r0, r7, lsl r7
    3f30:	02420600 	subeq	r0, r2, #0, 12
    3f34:	0000082e 	andeq	r0, r0, lr, lsr #16
    3f38:	04801714 	streq	r1, [r0], #1812	; 0x714
    3f3c:	44060000 	strmi	r0, [r6], #-0
    3f40:	00002502 	andeq	r2, r0, r2, lsl #10
    3f44:	7f173000 	svcvc	0x00173000
    3f48:	06000003 	streq	r0, [r0], -r3
    3f4c:	059b0245 	ldreq	r0, [fp, #581]	; 0x245
    3f50:	17340000 	ldrne	r0, [r4, -r0]!
    3f54:	000002cf 	andeq	r0, r0, pc, asr #5
    3f58:	25024706 	strcs	r4, [r2, #-1798]	; 0xfffff8fa
    3f5c:	38000000 	stmdacc	r0, {}	; <UNPREDICTABLE>
    3f60:	00038f17 	andeq	r8, r3, r7, lsl pc
    3f64:	02490600 	subeq	r0, r9, #0, 12
    3f68:	00000849 	andeq	r0, r0, r9, asr #16
    3f6c:	0268173c 	rsbeq	r1, r8, #60, 14	; 0xf00000
    3f70:	4c060000 	stcmi	0, cr0, [r6], {-0}
    3f74:	00018d02 	andeq	r8, r1, r2, lsl #26
    3f78:	d8174000 	ldmdale	r7, {lr}
    3f7c:	06000001 	streq	r0, [r0], -r1
    3f80:	0025024d 	eoreq	r0, r5, sp, asr #4
    3f84:	17440000 	strbne	r0, [r4, -r0]
    3f88:	00000522 	andeq	r0, r0, r2, lsr #10
    3f8c:	8d024e06 	stchi	14, cr4, [r2, #-24]	; 0xffffffe8
    3f90:	48000001 	stmdami	r0, {r0}
    3f94:	0002e117 	andeq	lr, r2, r7, lsl r1
    3f98:	024f0600 	subeq	r0, pc, #0, 12
    3f9c:	0000084f 	andeq	r0, r0, pc, asr #16
    3fa0:	0211174c 	andseq	r1, r1, #76, 14	; 0x1300000
    3fa4:	52060000 	andpl	r0, r6, #0
    3fa8:	00002502 	andeq	r2, r0, r2, lsl #10
    3fac:	57175000 	ldrpl	r5, [r7, -r0]
    3fb0:	06000001 	streq	r0, [r0], -r1
    3fb4:	011d0253 	tsteq	sp, r3, asr r2
    3fb8:	17540000 	ldrbne	r0, [r4, -r0]
    3fbc:	0000030b 	andeq	r0, r0, fp, lsl #6
    3fc0:	0c027606 	stceq	6, cr7, [r2], {6}
    3fc4:	58000008 	stmdapl	r0, {r3}
    3fc8:	0002c718 	andeq	ip, r2, r8, lsl r7
    3fcc:	027a0600 	rsbseq	r0, sl, #0, 12
    3fd0:	000002aa 	andeq	r0, r0, sl, lsr #5
    3fd4:	46180148 	ldrmi	r0, [r8], -r8, asr #2
    3fd8:	06000002 	streq	r0, [r0], -r2
    3fdc:	026c027b 	rsbeq	r0, ip, #-1342177273	; 0xb0000007
    3fe0:	014c0000 	mrseq	r0, (UNDEF: 76)
    3fe4:	0004ce18 	andeq	ip, r4, r8, lsl lr
    3fe8:	027f0600 	rsbseq	r0, pc, #0, 12
    3fec:	00000860 	andeq	r0, r0, r0, ror #16
    3ff0:	281802dc 	ldmdacs	r8, {r2, r3, r4, r6, r7, r9}
    3ff4:	06000001 	streq	r0, [r0], -r1
    3ff8:	06110284 	ldreq	r0, [r1], -r4, lsl #5
    3ffc:	02e00000 	rsceq	r0, r0, #0
    4000:	00010d18 	andeq	r0, r1, r8, lsl sp
    4004:	02850600 	addeq	r0, r5, #0, 12
    4008:	0000086c 	andeq	r0, r0, ip, ror #16
    400c:	0d0002ec 	sfmeq	f0, 4, [r0, #-944]	; 0xfffffc50
    4010:	00041c04 	andeq	r1, r4, r4, lsl #24
    4014:	00251400 	eoreq	r1, r5, r0, lsl #8
    4018:	059b0000 	ldreq	r0, [fp]
    401c:	3a150000 	bcc	544024 <__bss_end__+0x539fe4>
    4020:	15000004 	strne	r0, [r0, #-4]
    4024:	0000011b 	andeq	r0, r0, fp, lsl r1
    4028:	00059b15 	andeq	r9, r5, r5, lsl fp
    402c:	00251500 	eoreq	r1, r5, r0, lsl #10
    4030:	0d000000 	stceq	0, cr0, [r0, #-0]
    4034:	00012a04 	andeq	r2, r1, r4, lsl #20
    4038:	7d040d00 	stcvc	13, cr0, [r4, #-0]
    403c:	14000005 	strne	r0, [r0], #-5
    4040:	00000097 	muleq	r0, r7, r0
    4044:	000005c5 	andeq	r0, r0, r5, asr #11
    4048:	00043a15 	andeq	r3, r4, r5, lsl sl
    404c:	011b1500 	tsteq	fp, r0, lsl #10
    4050:	97150000 	ldrls	r0, [r5, -r0]
    4054:	15000000 	strne	r0, [r0, #-0]
    4058:	00000025 	andeq	r0, r0, r5, lsr #32
    405c:	a7040d00 	strge	r0, [r4, -r0, lsl #26]
    4060:	14000005 	strne	r0, [r0], #-5
    4064:	00000025 	andeq	r0, r0, r5, lsr #32
    4068:	000005df 	ldrdeq	r0, [r0], -pc	; <UNPREDICTABLE>
    406c:	00043a15 	andeq	r3, r4, r5, lsl sl
    4070:	011b1500 	tsteq	fp, r0, lsl #10
    4074:	0d000000 	stceq	0, cr0, [r0, #-0]
    4078:	0005cb04 	andeq	ip, r5, r4, lsl #22
    407c:	005a0800 	subseq	r0, sl, r0, lsl #16
    4080:	05f50000 	ldrbeq	r0, [r5, #0]!
    4084:	dd090000 	stcle	0, cr0, [r9, #-0]
    4088:	02000000 	andeq	r0, r0, #0
    408c:	005a0800 	subseq	r0, sl, r0, lsl #16
    4090:	06050000 	streq	r0, [r5], -r0
    4094:	dd090000 	stcle	0, cr0, [r9, #-0]
    4098:	00000000 	andeq	r0, r0, r0
    409c:	033a0500 	teqeq	sl, #0, 10
    40a0:	1d060000 	stcne	0, cr0, [r6, #-0]
    40a4:	0002f201 	andeq	pc, r2, r1, lsl #4
    40a8:	04b51900 	ldrteq	r1, [r5], #2304	; 0x900
    40ac:	060c0000 	streq	r0, [ip], -r0
    40b0:	06460121 	strbeq	r0, [r6], -r1, lsr #2
    40b4:	62170000 	andsvs	r0, r7, #0
    40b8:	06000003 	streq	r0, [r0], -r3
    40bc:	06460123 	strbeq	r0, [r6], -r3, lsr #2
    40c0:	17000000 	strne	r0, [r0, -r0]
    40c4:	0000022c 	andeq	r0, r0, ip, lsr #4
    40c8:	25012406 	strcs	r2, [r1, #-1030]	; 0xfffffbfa
    40cc:	04000000 	streq	r0, [r0], #-0
    40d0:	00033417 	andeq	r3, r3, r7, lsl r4
    40d4:	01250600 			; <UNDEFINED> instruction: 0x01250600
    40d8:	0000064c 	andeq	r0, r0, ip, asr #12
    40dc:	040d0008 	streq	r0, [sp], #-8
    40e0:	00000611 	andeq	r0, r0, r1, lsl r6
    40e4:	0605040d 	streq	r0, [r5], -sp, lsl #8
    40e8:	2f190000 	svccs	0x00190000
    40ec:	0e000000 	cdpeq	0, 0, cr0, cr0, cr0, {0}
    40f0:	87013d06 	strhi	r3, [r1, -r6, lsl #26]
    40f4:	17000006 	strne	r0, [r0, -r6]
    40f8:	000003a8 	andeq	r0, r0, r8, lsr #7
    40fc:	87013e06 	strhi	r3, [r1, -r6, lsl #28]
    4100:	00000006 	andeq	r0, r0, r6
    4104:	0003d517 	andeq	sp, r3, r7, lsl r5
    4108:	013f0600 	teqeq	pc, r0, lsl #12
    410c:	00000687 	andeq	r0, r0, r7, lsl #13
    4110:	04531706 	ldrbeq	r1, [r3], #-1798	; 0xfffff8fa
    4114:	40060000 	andmi	r0, r6, r0
    4118:	00006101 	andeq	r6, r0, r1, lsl #2
    411c:	08000c00 	stmdaeq	r0, {sl, fp}
    4120:	00000061 	andeq	r0, r0, r1, rrx
    4124:	00000697 	muleq	r0, r7, r6
    4128:	0000dd09 	andeq	sp, r0, r9, lsl #26
    412c:	1a000200 	bne	4934 <_start-0x36cc>
    4130:	025706d0 	subseq	r0, r7, #208, 12	; 0xd000000
    4134:	00000798 	muleq	r0, r8, r7
    4138:	00049917 	andeq	r9, r4, r7, lsl r9
    413c:	02590600 	subseq	r0, r9, #0, 12
    4140:	0000002c 	andeq	r0, r0, ip, lsr #32
    4144:	043d1700 	ldrteq	r1, [sp], #-1792	; 0xfffff900
    4148:	5a060000 	bpl	184150 <__bss_end__+0x17a110>
    414c:	00011d02 	andeq	r1, r1, r2, lsl #26
    4150:	5b170400 	blpl	5c5158 <__bss_end__+0x5bb118>
    4154:	06000002 	streq	r0, [r0], -r2
    4158:	0798025b 			; <UNDEFINED> instruction: 0x0798025b
    415c:	17080000 	strne	r0, [r8, -r0]
    4160:	000004f9 	strdeq	r0, [r0], -r9
    4164:	a3025c06 	movwge	r5, #11270	; 0x2c06
    4168:	24000001 	strcs	r0, [r0], #-1
    416c:	0001c917 	andeq	ip, r1, r7, lsl r9
    4170:	025d0600 	subseq	r0, sp, #0, 12
    4174:	00000025 	andeq	r0, r0, r5, lsr #32
    4178:	035d1748 	cmpeq	sp, #72, 14	; 0x1200000
    417c:	5e060000 	cdppl	0, 0, cr0, cr6, cr0, {0}
    4180:	00007a02 	andeq	r7, r0, r2, lsl #20
    4184:	0f175000 	svceq	0x00175000
    4188:	06000005 	streq	r0, [r0], -r5
    418c:	0652025f 			; <UNDEFINED> instruction: 0x0652025f
    4190:	17580000 	ldrbne	r0, [r8, -r0]
    4194:	00000368 	andeq	r0, r0, r8, ror #6
    4198:	05026006 	streq	r6, [r2, #-6]
    419c:	68000001 	stmdavs	r0, {r0}
    41a0:	00051417 	andeq	r1, r5, r7, lsl r4
    41a4:	02610600 	rsbeq	r0, r1, #0, 12
    41a8:	00000105 	andeq	r0, r0, r5, lsl #2
    41ac:	00a11770 	adceq	r1, r1, r0, ror r7
    41b0:	62060000 	andvs	r0, r6, #0
    41b4:	00010502 	andeq	r0, r1, r2, lsl #10
    41b8:	c4177800 	ldrgt	r7, [r7], #-2048	; 0xfffff800
    41bc:	06000004 	streq	r0, [r0], -r4
    41c0:	07a80263 	streq	r0, [r8, r3, ror #4]!
    41c4:	17800000 	strne	r0, [r0, r0]
    41c8:	0000024f 	andeq	r0, r0, pc, asr #4
    41cc:	b8026406 	stmdalt	r2, {r1, r2, sl, sp, lr}
    41d0:	88000007 	stmdahi	r0, {r0, r1, r2}
    41d4:	00046017 	andeq	r6, r4, r7, lsl r0
    41d8:	02650600 	rsbeq	r0, r5, #0, 12
    41dc:	00000025 	andeq	r0, r0, r5, lsr #32
    41e0:	018f17a0 	orreq	r1, pc, r0, lsr #15
    41e4:	66060000 	strvs	r0, [r6], -r0
    41e8:	00010502 	andeq	r0, r1, r2, lsl #10
    41ec:	9217a400 	andsls	sl, r7, #0, 8
    41f0:	06000000 	streq	r0, [r0], -r0
    41f4:	01050267 	tsteq	r5, r7, ror #4
    41f8:	17ac0000 	strne	r0, [ip, r0]!
    41fc:	0000017e 	andeq	r0, r0, lr, ror r1
    4200:	05026806 	streq	r6, [r2, #-2054]	; 0xfffff7fa
    4204:	b4000001 	strlt	r0, [r0], #-1
    4208:	00004a17 	andeq	r4, r0, r7, lsl sl
    420c:	02690600 	rsbeq	r0, r9, #0, 12
    4210:	00000105 	andeq	r0, r0, r5, lsl #2
    4214:	005917bc 	ldrheq	r1, [r9], #-124	; 0xffffff84
    4218:	6a060000 	bvs	184220 <__bss_end__+0x17a1e0>
    421c:	00010502 	andeq	r0, r1, r2, lsl #10
    4220:	1017c400 	andsne	ip, r7, r0, lsl #8
    4224:	06000003 	streq	r0, [r0], -r3
    4228:	0025026b 	eoreq	r0, r5, fp, ror #4
    422c:	00cc0000 	sbceq	r0, ip, r0
    4230:	00012308 	andeq	r2, r1, r8, lsl #6
    4234:	0007a800 	andeq	sl, r7, r0, lsl #16
    4238:	00dd0900 	sbcseq	r0, sp, r0, lsl #18
    423c:	00190000 	andseq	r0, r9, r0
    4240:	00012308 	andeq	r2, r1, r8, lsl #6
    4244:	0007b800 	andeq	fp, r7, r0, lsl #16
    4248:	00dd0900 	sbcseq	r0, sp, r0, lsl #18
    424c:	00070000 	andeq	r0, r7, r0
    4250:	00012308 	andeq	r2, r1, r8, lsl #6
    4254:	0007c800 	andeq	ip, r7, r0, lsl #16
    4258:	00dd0900 	sbcseq	r0, sp, r0, lsl #18
    425c:	00170000 	andseq	r0, r7, r0
    4260:	7006f01a 	andvc	pc, r6, sl, lsl r0	; <UNPREDICTABLE>
    4264:	0007ec02 	andeq	lr, r7, r2, lsl #24
    4268:	02b71700 	adcseq	r1, r7, #0, 14
    426c:	73060000 	movwvc	r0, #24576	; 0x6000
    4270:	0007ec02 	andeq	lr, r7, r2, lsl #24
    4274:	bb170000 	bllt	5c427c <__bss_end__+0x5ba23c>
    4278:	06000004 	streq	r0, [r0], -r4
    427c:	07fc0274 			; <UNDEFINED> instruction: 0x07fc0274
    4280:	00780000 	rsbseq	r0, r8, r0
    4284:	0002ec08 	andeq	lr, r2, r8, lsl #24
    4288:	0007fc00 	andeq	pc, r7, r0, lsl #24
    428c:	00dd0900 	sbcseq	r0, sp, r0, lsl #18
    4290:	001d0000 	andseq	r0, sp, r0
    4294:	00002c08 	andeq	r2, r0, r8, lsl #24
    4298:	00080c00 	andeq	r0, r8, r0, lsl #24
    429c:	00dd0900 	sbcseq	r0, sp, r0, lsl #18
    42a0:	001d0000 	andseq	r0, sp, r0
    42a4:	5506f01b 	strpl	pc, [r6, #-27]	; 0xffffffe5
    42a8:	00082e02 	andeq	r2, r8, r2, lsl #28
    42ac:	03a11c00 			; <UNDEFINED> instruction: 0x03a11c00
    42b0:	6c060000 	stcvs	0, cr0, [r6], {-0}
    42b4:	00069702 	andeq	r9, r6, r2, lsl #14
    42b8:	04e61c00 	strbteq	r1, [r6], #3072	; 0xc00
    42bc:	75060000 	strvc	r0, [r6, #-0]
    42c0:	0007c802 	andeq	ip, r7, r2, lsl #16
    42c4:	23080000 	movwcs	r0, #32768	; 0x8000
    42c8:	3e000001 	cdpcc	0, 0, cr0, cr0, cr1, {0}
    42cc:	09000008 	stmdbeq	r0, {r3}
    42d0:	000000dd 	ldrdeq	r0, [r0], -sp
    42d4:	491d0018 	ldmdbmi	sp, {r3, r4}
    42d8:	15000008 	strne	r0, [r0, #-8]
    42dc:	0000043a 	andeq	r0, r0, sl, lsr r4
    42e0:	3e040d00 	cdpcc	13, 0, cr0, cr4, cr0, {0}
    42e4:	0d000008 	stceq	0, cr0, [r0, #-32]	; 0xffffffe0
    42e8:	00018d04 	andeq	r8, r1, r4, lsl #26
    42ec:	08601d00 	stmdaeq	r0!, {r8, sl, fp, ip}^
    42f0:	25150000 	ldrcs	r0, [r5, #-0]
    42f4:	00000000 	andeq	r0, r0, r0
    42f8:	0866040d 	stmdaeq	r6!, {r0, r2, r3, sl}^
    42fc:	040d0000 	streq	r0, [sp], #-0
    4300:	00000855 	andeq	r0, r0, r5, asr r8
    4304:	00060508 	andeq	r0, r6, r8, lsl #10
    4308:	00087c00 	andeq	r7, r8, r0, lsl #24
    430c:	00dd0900 	sbcseq	r0, sp, r0, lsl #18
    4310:	00020000 	andeq	r0, r2, r0
    4314:	0004741e 	andeq	r7, r4, lr, lsl r4
    4318:	02fd0600 	rscseq	r0, sp, #0, 12
    431c:	0000043a 	andeq	r0, r0, sl, lsr r4
    4320:	00046d1e 	andeq	r6, r4, lr, lsl sp
    4324:	02fe0600 	rscseq	r0, lr, #0, 12
    4328:	00000440 	andeq	r0, r0, r0, asr #8
    432c:	00002514 	andeq	r2, r0, r4, lsl r5
    4330:	0008a300 	andeq	sl, r8, r0, lsl #6
    4334:	00251500 	eoreq	r1, r5, r0, lsl #10
    4338:	1f000000 	svcne	0x00000000
    433c:	000001e2 	andeq	r0, r0, r2, ror #3
    4340:	08ae1d07 	stmiaeq	lr!, {r0, r1, r2, r8, sl, fp, ip}
    4344:	040d0000 	streq	r0, [sp], #-0
    4348:	00000894 	muleq	r0, r4, r8
    434c:	00002514 	andeq	r2, r0, r4, lsl r5
    4350:	0008c300 	andeq	ip, r8, r0, lsl #6
    4354:	059b1500 	ldreq	r1, [fp, #1280]	; 0x500
    4358:	1f000000 	svcne	0x00000000
    435c:	0000076e 	andeq	r0, r0, lr, ror #14
    4360:	08ce2207 	stmiaeq	lr, {r0, r1, r2, r9, sp}^
    4364:	040d0000 	streq	r0, [sp], #-0
    4368:	000008b4 			; <UNDEFINED> instruction: 0x000008b4
    436c:	00054520 	andeq	r4, r5, r0, lsr #10
    4370:	680f0100 	stmdavs	pc, {r8}	; <UNPREDICTABLE>
    4374:	f4000000 	vst4.8	{d0-d3}, [r0], r0
    4378:	e800008e 	stmda	r0, {r1, r2, r3, r7}
    437c:	01000000 	mrseq	r0, (UNDEF: 0)
    4380:	0009489c 	muleq	r9, ip, r8
    4384:	0a1e2100 	beq	78c78c <__bss_end__+0x78274c>
    4388:	0f010000 	svceq	0x00010000
    438c:	00000948 	andeq	r0, r0, r8, asr #18
    4390:	00000dee 	andeq	r0, r0, lr, ror #27
    4394:	6e656c22 	cdpvs	12, 6, cr6, cr5, cr2, {1}
    4398:	250f0100 	strcs	r0, [pc, #-256]	; 42a0 <_start-0x3d60>
    439c:	28000000 	stmdacs	r0, {}	; <UNPREDICTABLE>
    43a0:	2300000e 	movwcs	r0, #14
    43a4:	00000a1f 	andeq	r0, r0, pc, lsl sl
    43a8:	059b1001 	ldreq	r1, [fp, #1]
    43ac:	0e670000 	cdpeq	0, 6, cr0, cr7, cr0, {0}
    43b0:	4a230000 	bmi	8c43b8 <__bss_end__+0x8ba378>
    43b4:	01000005 	tsteq	r0, r5
    43b8:	00006811 	andeq	r6, r0, r1, lsl r8
    43bc:	000e9300 	andeq	r9, lr, r0, lsl #6
    43c0:	6d742400 	cfldrdvs	mvd2, [r4, #-0]
    43c4:	11010070 	tstne	r1, r0, ror r0
    43c8:	00000068 	andeq	r0, r0, r8, rrx
    43cc:	00000ee8 	andeq	r0, r0, r8, ror #29
    43d0:	6d657224 	sfmvs	f7, 2, [r5, #-144]!	; 0xffffff70
    43d4:	25120100 	ldrcs	r0, [r2, #-256]	; 0xffffff00
    43d8:	33000000 	movwcc	r0, #0
    43dc:	0000000f 	andeq	r0, r0, pc
    43e0:	094e040d 	stmdbeq	lr, {r0, r2, r3, sl}^
    43e4:	00250000 	eoreq	r0, r5, r0
    43e8:	000008eb 	andeq	r0, r0, fp, ror #17
    43ec:	0be60004 	bleq	ff984404 <__bss_end__+0xff97a3c4>
    43f0:	01040000 	mrseq	r0, (UNDEF: 4)
    43f4:	000003db 	ldrdeq	r0, [r0], -fp
    43f8:	0007730c 	andeq	r7, r7, ip, lsl #6
    43fc:	0006e300 	andeq	lr, r6, r0, lsl #6
    4400:	008fdc00 	addeq	sp, pc, r0, lsl #24
    4404:	00003400 	andeq	r3, r0, r0, lsl #8
    4408:	00077100 	andeq	r7, r7, r0, lsl #2
    440c:	05040200 	streq	r0, [r4, #-512]	; 0xfffffe00
    4410:	00746e69 	rsbseq	r6, r4, r9, ror #28
    4414:	74070403 	strvc	r0, [r7], #-1027	; 0xfffffbfd
    4418:	03000000 	movweq	r0, #0
    441c:	02ff0601 	rscseq	r0, pc, #1048576	; 0x100000
    4420:	02030000 	andeq	r0, r3, #0
    4424:	00031905 	andeq	r1, r3, r5, lsl #18
    4428:	05040300 	streq	r0, [r4, #-768]	; 0xfffffd00
    442c:	000000bd 	strheq	r0, [r0], -sp
    4430:	b8050803 	stmdalt	r5, {r0, r1, fp}
    4434:	03000000 	movweq	r0, #0
    4438:	02fd0801 	rscseq	r0, sp, #65536	; 0x10000
    443c:	02030000 	andeq	r0, r3, #0
    4440:	00023307 	andeq	r3, r2, r7, lsl #6
    4444:	07040300 	streq	r0, [r4, -r0, lsl #6]
    4448:	0000006f 	andeq	r0, r0, pc, rrx
    444c:	6a070803 	bvs	1c6460 <__bss_end__+0x1bc420>
    4450:	04000000 	streq	r0, [r0], #-0
    4454:	000002eb 	andeq	r0, r0, fp, ror #5
    4458:	00250702 	eoreq	r0, r5, r2, lsl #14
    445c:	da040000 	ble	104464 <__bss_end__+0xfa424>
    4460:	03000002 	movweq	r0, #2
    4464:	0000412c 	andeq	r4, r0, ip, lsr #2
    4468:	03c40400 	biceq	r0, r4, #0, 8
    446c:	72030000 	andvc	r0, r3, #0
    4470:	00000041 	andeq	r0, r0, r1, asr #32
    4474:	00027605 	andeq	r7, r2, r5, lsl #12
    4478:	01650400 	cmneq	r5, r0, lsl #8
    447c:	0000002c 	andeq	r0, r0, ip, lsr #32
    4480:	a6030406 	strge	r0, [r3], -r6, lsl #8
    4484:	000000b7 	strheq	r0, [r0], -r7
    4488:	00027007 	andeq	r7, r2, r7
    448c:	8ca80300 	stchi	3, cr0, [r8]
    4490:	07000000 	streq	r0, [r0, -r0]
    4494:	000001f3 	strdeq	r0, [r0], -r3
    4498:	00b7a903 	adcseq	sl, r7, r3, lsl #18
    449c:	08000000 	stmdaeq	r0, {}	; <UNPREDICTABLE>
    44a0:	0000004f 	andeq	r0, r0, pc, asr #32
    44a4:	000000c7 	andeq	r0, r0, r7, asr #1
    44a8:	0000c709 	andeq	ip, r0, r9, lsl #14
    44ac:	03000300 	movweq	r0, #768	; 0x300
    44b0:	02ae0704 	adceq	r0, lr, #4, 14	; 0x100000
    44b4:	080a0000 	stmdaeq	sl, {}	; <UNPREDICTABLE>
    44b8:	00efa303 	rsceq	sl, pc, r3, lsl #6
    44bc:	ae0b0000 	cdpge	0, 0, cr0, cr11, cr0, {0}
    44c0:	03000003 	movweq	r0, #3
    44c4:	000025a5 	andeq	r2, r0, r5, lsr #11
    44c8:	b60b0000 	strlt	r0, [fp], -r0
    44cc:	03000003 	movweq	r0, #3
    44d0:	000098aa 	andeq	r9, r0, sl, lsr #17
    44d4:	04000400 	streq	r0, [r0], #-1024	; 0xfffffc00
    44d8:	00000341 	andeq	r0, r0, r1, asr #6
    44dc:	00ceab03 	sbceq	sl, lr, r3, lsl #22
    44e0:	b0040000 	andlt	r0, r4, r0
    44e4:	03000001 	movweq	r0, #1
    44e8:	00006baf 	andeq	r6, r0, pc, lsr #23
    44ec:	0d040c00 	stceq	12, cr0, [r4, #-0]
    44f0:	00010d04 	andeq	r0, r1, r4, lsl #26
    44f4:	08010300 	stmdaeq	r1, {r8, r9}
    44f8:	00000306 	andeq	r0, r0, r6, lsl #6
    44fc:	00010d0e 	andeq	r0, r1, lr, lsl #26
    4500:	04580400 	ldrbeq	r0, [r8], #-1024	; 0xfffffc00
    4504:	16050000 	strne	r0, [r5], -r0
    4508:	0000005d 	andeq	r0, r0, sp, asr r0
    450c:	0001c10f 	andeq	ip, r1, pc, lsl #2
    4510:	2d051800 	stccs	8, cr1, [r5, #-0]
    4514:	00000177 	andeq	r0, r0, r7, ror r1
    4518:	0003620b 	andeq	r6, r3, fp, lsl #4
    451c:	772f0500 	strvc	r0, [pc, -r0, lsl #10]!
    4520:	00000001 	andeq	r0, r0, r1
    4524:	006b5f10 	rsbeq	r5, fp, r0, lsl pc
    4528:	00253005 	eoreq	r3, r5, r5
    452c:	0b040000 	bleq	104534 <__bss_end__+0xfa4f4>
    4530:	00000399 	muleq	r0, r9, r3
    4534:	00253005 	eoreq	r3, r5, r5
    4538:	0b080000 	bleq	204540 <__bss_end__+0x1fa500>
    453c:	000001aa 	andeq	r0, r0, sl, lsr #3
    4540:	00253005 	eoreq	r3, r5, r5
    4544:	0b0c0000 	bleq	30454c <__bss_end__+0x2fa50c>
    4548:	000004a6 	andeq	r0, r0, r6, lsr #9
    454c:	00253005 	eoreq	r3, r5, r5
    4550:	10100000 	andsne	r0, r0, r0
    4554:	0500785f 	streq	r7, [r0, #-2143]	; 0xfffff7a1
    4558:	00017d31 	andeq	r7, r1, r1, lsr sp
    455c:	0d001400 	cfstrseq	mvf1, [r0, #-0]
    4560:	00012404 	andeq	r2, r1, r4, lsl #8
    4564:	01190800 	tsteq	r9, r0, lsl #16
    4568:	018d0000 	orreq	r0, sp, r0
    456c:	c7090000 	strgt	r0, [r9, -r0]
    4570:	00000000 	andeq	r0, r0, r0
    4574:	01ee0f00 	mvneq	r0, r0, lsl #30
    4578:	05240000 	streq	r0, [r4, #-0]!
    457c:	00020635 	andeq	r0, r2, r5, lsr r6
    4580:	00af0b00 	adceq	r0, pc, r0, lsl #22
    4584:	37050000 	strcc	r0, [r5, -r0]
    4588:	00000025 	andeq	r0, r0, r5, lsr #32
    458c:	03cc0b00 	biceq	r0, ip, #0, 22
    4590:	38050000 	stmdacc	r5, {}	; <UNPREDICTABLE>
    4594:	00000025 	andeq	r0, r0, r5, lsr #32
    4598:	00d20b04 	sbcseq	r0, r2, r4, lsl #22
    459c:	39050000 	stmdbcc	r5, {}	; <UNPREDICTABLE>
    45a0:	00000025 	andeq	r0, r0, r5, lsr #32
    45a4:	05270b08 	streq	r0, [r7, #-2824]!	; 0xfffff4f8
    45a8:	3a050000 	bcc	1445b0 <__bss_end__+0x13a570>
    45ac:	00000025 	andeq	r0, r0, r5, lsr #32
    45b0:	02be0b0c 	adcseq	r0, lr, #12, 22	; 0x3000
    45b4:	3b050000 	blcc	1445bc <__bss_end__+0x13a57c>
    45b8:	00000025 	andeq	r0, r0, r5, lsr #32
    45bc:	02970b10 	addseq	r0, r7, #16, 22	; 0x4000
    45c0:	3c050000 	stccc	0, cr0, [r5], {-0}
    45c4:	00000025 	andeq	r0, r0, r5, lsr #32
    45c8:	04ab0b14 	strteq	r0, [fp], #2836	; 0xb14
    45cc:	3d050000 	stccc	0, cr0, [r5, #-0]
    45d0:	00000025 	andeq	r0, r0, r5, lsr #32
    45d4:	03230b18 			; <UNDEFINED> instruction: 0x03230b18
    45d8:	3e050000 	cdpcc	0, 0, cr0, cr5, cr0, {0}
    45dc:	00000025 	andeq	r0, r0, r5, lsr #32
    45e0:	04ee0b1c 	strbteq	r0, [lr], #2844	; 0xb1c
    45e4:	3f050000 	svccc	0x00050000
    45e8:	00000025 	andeq	r0, r0, r5, lsr #32
    45ec:	12110020 	andsne	r0, r1, #32
    45f0:	08000001 	stmdaeq	r0, {r0}
    45f4:	46480501 	strbmi	r0, [r8], -r1, lsl #10
    45f8:	0b000002 	bleq	4608 <_start-0x39f8>
    45fc:	0000019d 	muleq	r0, sp, r1
    4600:	02464905 	subeq	r4, r6, #81920	; 0x14000
    4604:	0b000000 	bleq	460c <_start-0x39f4>
    4608:	00000000 	andeq	r0, r0, r0
    460c:	02464a05 	subeq	r4, r6, #20480	; 0x5000
    4610:	12800000 	addne	r0, r0, #0
    4614:	0000044a 	andeq	r0, r0, sl, asr #8
    4618:	01194c05 	tsteq	r9, r5, lsl #24
    461c:	01000000 	mrseq	r0, (UNDEF: 0)
    4620:	00013712 	andeq	r3, r1, r2, lsl r7
    4624:	194f0500 	stmdbne	pc, {r8, sl}^	; <UNPREDICTABLE>
    4628:	04000001 	streq	r0, [r0], #-1
    462c:	05080001 	streq	r0, [r8, #-1]
    4630:	56000001 	strpl	r0, [r0], -r1
    4634:	09000002 	stmdbeq	r0, {r1}
    4638:	000000c7 	andeq	r0, r0, r7, asr #1
    463c:	c711001f 			; <UNDEFINED> instruction: 0xc711001f
    4640:	90000002 	andls	r0, r0, r2
    4644:	945b0501 	ldrbls	r0, [fp], #-1281	; 0xfffffaff
    4648:	0b000002 	bleq	4658 <_start-0x39a8>
    464c:	00000362 	andeq	r0, r0, r2, ror #6
    4650:	02945c05 	addseq	r5, r4, #1280	; 0x500
    4654:	0b000000 	bleq	465c <_start-0x39a4>
    4658:	0000037a 	andeq	r0, r0, sl, ror r3
    465c:	00255d05 	eoreq	r5, r5, r5, lsl #26
    4660:	0b040000 	bleq	104668 <__bss_end__+0xfa628>
    4664:	000001a5 	andeq	r0, r0, r5, lsr #3
    4668:	029a5f05 	addseq	r5, sl, #5, 30
    466c:	0b080000 	bleq	204674 <__bss_end__+0x1fa634>
    4670:	00000112 	andeq	r0, r0, r2, lsl r1
    4674:	02066005 	andeq	r6, r6, #5
    4678:	00880000 	addeq	r0, r8, r0
    467c:	0256040d 	subseq	r0, r6, #218103808	; 0xd000000
    4680:	aa080000 	bge	204688 <__bss_end__+0x1fa648>
    4684:	aa000002 	bge	4694 <_start-0x396c>
    4688:	09000002 	stmdbeq	r0, {r1}
    468c:	000000c7 	andeq	r0, r0, r7, asr #1
    4690:	040d001f 	streq	r0, [sp], #-31	; 0xffffffe1
    4694:	000002b0 			; <UNDEFINED> instruction: 0x000002b0
    4698:	032d0f13 			; <UNDEFINED> instruction: 0x032d0f13
    469c:	05080000 	streq	r0, [r8, #-0]
    46a0:	0002d673 	andeq	sp, r2, r3, ror r6
    46a4:	00cc0b00 	sbceq	r0, ip, r0, lsl #22
    46a8:	74050000 	strvc	r0, [r5], #-0
    46ac:	000002d6 	ldrdeq	r0, [r0], -r6
    46b0:	001b0b00 	andseq	r0, fp, r0, lsl #22
    46b4:	75050000 	strvc	r0, [r5, #-0]
    46b8:	00000025 	andeq	r0, r0, r5, lsr #32
    46bc:	040d0004 	streq	r0, [sp], #-4
    46c0:	0000004f 	andeq	r0, r0, pc, asr #32
    46c4:	00034c0f 	andeq	r4, r3, pc, lsl #24
    46c8:	b3056800 	movwlt	r6, #22528	; 0x5800
    46cc:	00000406 	andeq	r0, r0, r6, lsl #8
    46d0:	00705f10 	rsbseq	r5, r0, r0, lsl pc
    46d4:	02d6b405 	sbcseq	fp, r6, #83886080	; 0x5000000
    46d8:	10000000 	andne	r0, r0, r0
    46dc:	0500725f 	streq	r7, [r0, #-607]	; 0xfffffda1
    46e0:	000025b5 			; <UNDEFINED> instruction: 0x000025b5
    46e4:	5f100400 	svcpl	0x00100400
    46e8:	b6050077 			; <UNDEFINED> instruction: 0xb6050077
    46ec:	00000025 	andeq	r0, r0, r5, lsr #32
    46f0:	01300b08 	teqeq	r0, r8, lsl #22
    46f4:	b7050000 	strlt	r0, [r5, -r0]
    46f8:	0000003a 	andeq	r0, r0, sl, lsr r0
    46fc:	02190b0c 	andseq	r0, r9, #12, 22	; 0x3000
    4700:	b8050000 	stmdalt	r5, {}	; <UNPREDICTABLE>
    4704:	0000003a 	andeq	r0, r0, sl, lsr r0
    4708:	625f100e 	subsvs	r1, pc, #14
    470c:	b9050066 	stmdblt	r5, {r1, r2, r5, r6}
    4710:	000002b1 			; <UNDEFINED> instruction: 0x000002b1
    4714:	00890b10 	addeq	r0, r9, r0, lsl fp
    4718:	ba050000 	blt	144720 <__bss_end__+0x13a6e0>
    471c:	00000025 	andeq	r0, r0, r5, lsr #32
    4720:	01200b18 			; <UNDEFINED> instruction: 0x01200b18
    4724:	c1050000 	mrsgt	r0, (UNDEF: 5)
    4728:	00000105 	andeq	r0, r0, r5, lsl #2
    472c:	0a7d0b1c 	beq	1f473a4 <__bss_end__+0x1f3d364>
    4730:	c3050000 	movwgt	r0, #20480	; 0x5000
    4734:	00000561 	andeq	r0, r0, r1, ror #10
    4738:	06110b20 	ldreq	r0, [r1], -r0, lsr #22
    473c:	c5050000 	strgt	r0, [r5, #-0]
    4740:	0000058b 	andeq	r0, r0, fp, lsl #11
    4744:	03be0b24 			; <UNDEFINED> instruction: 0x03be0b24
    4748:	c8050000 	stmdagt	r5, {}	; <UNPREDICTABLE>
    474c:	000005af 	andeq	r0, r0, pc, lsr #11
    4750:	05080b28 	streq	r0, [r8, #-2856]	; 0xfffff4d8
    4754:	c9050000 	stmdbgt	r5, {}	; <UNPREDICTABLE>
    4758:	000005c9 	andeq	r0, r0, r9, asr #11
    475c:	755f102c 	ldrbvc	r1, [pc, #-44]	; 4738 <_start-0x38c8>
    4760:	cc050062 	stcgt	0, cr0, [r5], {98}	; 0x62
    4764:	000002b1 			; <UNDEFINED> instruction: 0x000002b1
    4768:	755f1030 	ldrbvc	r1, [pc, #-48]	; 4740 <_start-0x38c0>
    476c:	cd050070 	stcgt	0, cr0, [r5, #-448]	; 0xfffffe40
    4770:	000002d6 	ldrdeq	r0, [r0], -r6
    4774:	755f1038 	ldrbvc	r1, [pc, #-56]	; 4744 <_start-0x38bc>
    4778:	ce050072 	mcrgt	0, 0, r0, cr5, cr2, {3}
    477c:	00000025 	andeq	r0, r0, r5, lsr #32
    4780:	00c60b3c 	sbceq	r0, r6, ip, lsr fp
    4784:	d1050000 	mrsle	r0, (UNDEF: 5)
    4788:	000005cf 	andeq	r0, r0, pc, asr #11
    478c:	04e00b40 	strbteq	r0, [r0], #2880	; 0xb40
    4790:	d2050000 	andle	r0, r5, #0
    4794:	000005df 	ldrdeq	r0, [r0], -pc	; <UNPREDICTABLE>
    4798:	6c5f1043 	mrrcvs	0, 4, r1, pc, cr3	; <UNPREDICTABLE>
    479c:	d5050062 	strle	r0, [r5, #-98]	; 0xffffff9e
    47a0:	000002b1 			; <UNDEFINED> instruction: 0x000002b1
    47a4:	014e0b44 	cmpeq	lr, r4, asr #22
    47a8:	d8050000 	stmdale	r5, {}	; <UNPREDICTABLE>
    47ac:	00000025 	andeq	r0, r0, r5, lsr #32
    47b0:	015f0b4c 	cmpeq	pc, ip, asr #22
    47b4:	d9050000 	stmdble	r5, {}	; <UNPREDICTABLE>
    47b8:	00000076 	andeq	r0, r0, r6, ror r0
    47bc:	0a1e0b50 	beq	787504 <__bss_end__+0x77d4c4>
    47c0:	dc050000 	stcle	0, cr0, [r5], {-0}
    47c4:	00000424 	andeq	r0, r0, r4, lsr #8
    47c8:	02840b54 	addeq	r0, r4, #84, 22	; 0x15000
    47cc:	e0050000 	and	r0, r5, r0
    47d0:	000000fa 	strdeq	r0, [r0], -sl
    47d4:	03540b58 	cmpeq	r4, #88, 22	; 0x16000
    47d8:	e2050000 	and	r0, r5, #0
    47dc:	000000ef 	andeq	r0, r0, pc, ror #1
    47e0:	028f0b5c 	addeq	r0, pc, #92, 22	; 0x17000
    47e4:	e3050000 	movw	r0, #20480	; 0x5000
    47e8:	00000025 	andeq	r0, r0, r5, lsr #32
    47ec:	25140064 	ldrcs	r0, [r4, #-100]	; 0xffffff9c
    47f0:	24000000 	strcs	r0, [r0], #-0
    47f4:	15000004 	strne	r0, [r0, #-4]
    47f8:	00000424 	andeq	r0, r0, r4, lsr #8
    47fc:	00010515 	andeq	r0, r1, r5, lsl r5
    4800:	01071500 	tsteq	r7, r0, lsl #10
    4804:	25150000 	ldrcs	r0, [r5, #-0]
    4808:	00000000 	andeq	r0, r0, r0
    480c:	042f040d 	strteq	r0, [pc], #-1037	; 4814 <_start-0x37ec>
    4810:	240e0000 	strcs	r0, [lr], #-0
    4814:	16000004 	strne	r0, [r0], -r4
    4818:	000003a1 	andeq	r0, r0, r1, lsr #7
    481c:	38050428 	stmdacc	r5, {r3, r5, sl}
    4820:	00056102 	andeq	r6, r5, r2, lsl #2
    4824:	03121700 	tsteq	r2, #0, 14
    4828:	3a050000 	bcc	144830 <__bss_end__+0x13a7f0>
    482c:	00002502 	andeq	r2, r0, r2, lsl #10
    4830:	3f170000 	svccc	0x00170000
    4834:	05000001 	streq	r0, [r0, #-1]
    4838:	0636023f 			; <UNDEFINED> instruction: 0x0636023f
    483c:	17040000 	strne	r0, [r4, -r0]
    4840:	00000209 	andeq	r0, r0, r9, lsl #4
    4844:	36023f05 	strcc	r3, [r2], -r5, lsl #30
    4848:	08000006 	stmdaeq	r0, {r1, r2}
    484c:	0001b917 	andeq	fp, r1, r7, lsl r9
    4850:	023f0500 	eorseq	r0, pc, #0, 10
    4854:	00000636 	andeq	r0, r0, r6, lsr r6
    4858:	0375170c 	cmneq	r5, #12, 14	; 0x300000
    485c:	41050000 	mrsmi	r0, (UNDEF: 5)
    4860:	00002502 	andeq	r2, r0, r2, lsl #10
    4864:	37171000 	ldrcc	r1, [r7, -r0]
    4868:	05000000 	streq	r0, [r0, #-0]
    486c:	08180242 	ldmdaeq	r8, {r1, r6, r9}
    4870:	17140000 	ldrne	r0, [r4, -r0]
    4874:	00000480 	andeq	r0, r0, r0, lsl #9
    4878:	25024405 	strcs	r4, [r2, #-1029]	; 0xfffffbfb
    487c:	30000000 	andcc	r0, r0, r0
    4880:	00037f17 	andeq	r7, r3, r7, lsl pc
    4884:	02450500 	subeq	r0, r5, #0, 10
    4888:	00000585 	andeq	r0, r0, r5, lsl #11
    488c:	02cf1734 	sbceq	r1, pc, #52, 14	; 0xd00000
    4890:	47050000 	strmi	r0, [r5, -r0]
    4894:	00002502 	andeq	r2, r0, r2, lsl #10
    4898:	8f173800 	svchi	0x00173800
    489c:	05000003 	streq	r0, [r0, #-3]
    48a0:	08330249 	ldmdaeq	r3!, {r0, r3, r6, r9}
    48a4:	173c0000 	ldrne	r0, [ip, -r0]!
    48a8:	00000268 	andeq	r0, r0, r8, ror #4
    48ac:	77024c05 	strvc	r4, [r2, -r5, lsl #24]
    48b0:	40000001 	andmi	r0, r0, r1
    48b4:	0001d817 	andeq	sp, r1, r7, lsl r8
    48b8:	024d0500 	subeq	r0, sp, #0, 10
    48bc:	00000025 	andeq	r0, r0, r5, lsr #32
    48c0:	05221744 	streq	r1, [r2, #-1860]!	; 0xfffff8bc
    48c4:	4e050000 	cdpmi	0, 0, cr0, cr5, cr0, {0}
    48c8:	00017702 	andeq	r7, r1, r2, lsl #14
    48cc:	e1174800 	tst	r7, r0, lsl #16
    48d0:	05000002 	streq	r0, [r0, #-2]
    48d4:	0839024f 	ldmdaeq	r9!, {r0, r1, r2, r3, r6, r9}
    48d8:	174c0000 	strbne	r0, [ip, -r0]
    48dc:	00000211 	andeq	r0, r0, r1, lsl r2
    48e0:	25025205 	strcs	r5, [r2, #-517]	; 0xfffffdfb
    48e4:	50000000 	andpl	r0, r0, r0
    48e8:	00015717 	andeq	r5, r1, r7, lsl r7
    48ec:	02530500 	subseq	r0, r3, #0, 10
    48f0:	00000107 	andeq	r0, r0, r7, lsl #2
    48f4:	030b1754 	movweq	r1, #46932	; 0xb754
    48f8:	76050000 	strvc	r0, [r5], -r0
    48fc:	0007f602 	andeq	pc, r7, r2, lsl #12
    4900:	c7185800 	ldrgt	r5, [r8, -r0, lsl #16]
    4904:	05000002 	streq	r0, [r0, #-2]
    4908:	0294027a 	addseq	r0, r4, #-1610612729	; 0xa0000007
    490c:	01480000 	mrseq	r0, (UNDEF: 72)
    4910:	00024618 	andeq	r4, r2, r8, lsl r6
    4914:	027b0500 	rsbseq	r0, fp, #0, 10
    4918:	00000256 	andeq	r0, r0, r6, asr r2
    491c:	ce18014c 	mufgtem	f0, f0, #4.0
    4920:	05000004 	streq	r0, [r0, #-4]
    4924:	084a027f 	stmdaeq	sl, {r0, r1, r2, r3, r4, r5, r6, r9}^
    4928:	02dc0000 	sbcseq	r0, ip, #0
    492c:	00012818 	andeq	r2, r1, r8, lsl r8
    4930:	02840500 	addeq	r0, r4, #0, 10
    4934:	000005fb 	strdeq	r0, [r0], -fp
    4938:	0d1802e0 	lfmeq	f0, 4, [r8, #-896]	; 0xfffffc80
    493c:	05000001 	streq	r0, [r0, #-1]
    4940:	08560285 	ldmdaeq	r6, {r0, r2, r7, r9}^
    4944:	02ec0000 	rsceq	r0, ip, #0
    4948:	06040d00 	streq	r0, [r4], -r0, lsl #26
    494c:	14000004 	strne	r0, [r0], #-4
    4950:	00000025 	andeq	r0, r0, r5, lsr #32
    4954:	00000585 	andeq	r0, r0, r5, lsl #11
    4958:	00042415 	andeq	r2, r4, r5, lsl r4
    495c:	01051500 	tsteq	r5, r0, lsl #10
    4960:	85150000 	ldrhi	r0, [r5, #-0]
    4964:	15000005 	strne	r0, [r0, #-5]
    4968:	00000025 	andeq	r0, r0, r5, lsr #32
    496c:	14040d00 	strne	r0, [r4], #-3328	; 0xfffff300
    4970:	0d000001 	stceq	0, cr0, [r0, #-4]
    4974:	00056704 	andeq	r6, r5, r4, lsl #14
    4978:	00811400 	addeq	r1, r1, r0, lsl #8
    497c:	05af0000 	streq	r0, [pc, #0]!	; 4984 <_start-0x367c>
    4980:	24150000 	ldrcs	r0, [r5], #-0
    4984:	15000004 	strne	r0, [r0, #-4]
    4988:	00000105 	andeq	r0, r0, r5, lsl #2
    498c:	00008115 	andeq	r8, r0, r5, lsl r1
    4990:	00251500 	eoreq	r1, r5, r0, lsl #10
    4994:	0d000000 	stceq	0, cr0, [r0, #-0]
    4998:	00059104 	andeq	r9, r5, r4, lsl #2
    499c:	00251400 	eoreq	r1, r5, r0, lsl #8
    49a0:	05c90000 	strbeq	r0, [r9]
    49a4:	24150000 	ldrcs	r0, [r5], #-0
    49a8:	15000004 	strne	r0, [r0, #-4]
    49ac:	00000105 	andeq	r0, r0, r5, lsl #2
    49b0:	b5040d00 	strlt	r0, [r4, #-3328]	; 0xfffff300
    49b4:	08000005 	stmdaeq	r0, {r0, r2}
    49b8:	0000004f 	andeq	r0, r0, pc, asr #32
    49bc:	000005df 	ldrdeq	r0, [r0], -pc	; <UNPREDICTABLE>
    49c0:	0000c709 	andeq	ip, r0, r9, lsl #14
    49c4:	08000200 	stmdaeq	r0, {r9}
    49c8:	0000004f 	andeq	r0, r0, pc, asr #32
    49cc:	000005ef 	andeq	r0, r0, pc, ror #11
    49d0:	0000c709 	andeq	ip, r0, r9, lsl #14
    49d4:	05000000 	streq	r0, [r0, #-0]
    49d8:	0000033a 	andeq	r0, r0, sl, lsr r3
    49dc:	dc011d05 	stcle	13, cr1, [r1], {5}
    49e0:	19000002 	stmdbne	r0, {r1}
    49e4:	000004b5 			; <UNDEFINED> instruction: 0x000004b5
    49e8:	0121050c 			; <UNDEFINED> instruction: 0x0121050c
    49ec:	00000630 	andeq	r0, r0, r0, lsr r6
    49f0:	00036217 	andeq	r6, r3, r7, lsl r2
    49f4:	01230500 			; <UNDEFINED> instruction: 0x01230500
    49f8:	00000630 	andeq	r0, r0, r0, lsr r6
    49fc:	022c1700 	eoreq	r1, ip, #0, 14
    4a00:	24050000 	strcs	r0, [r5], #-0
    4a04:	00002501 	andeq	r2, r0, r1, lsl #10
    4a08:	34170400 	ldrcc	r0, [r7], #-1024	; 0xfffffc00
    4a0c:	05000003 	streq	r0, [r0, #-3]
    4a10:	06360125 	ldrteq	r0, [r6], -r5, lsr #2
    4a14:	00080000 	andeq	r0, r8, r0
    4a18:	05fb040d 	ldrbeq	r0, [fp, #1037]!	; 0x40d
    4a1c:	040d0000 	streq	r0, [sp], #-0
    4a20:	000005ef 	andeq	r0, r0, pc, ror #11
    4a24:	00002f19 	andeq	r2, r0, r9, lsl pc
    4a28:	3d050e00 	stccc	14, cr0, [r5, #-0]
    4a2c:	00067101 	andeq	r7, r6, r1, lsl #2
    4a30:	03a81700 			; <UNDEFINED> instruction: 0x03a81700
    4a34:	3e050000 	cdpcc	0, 0, cr0, cr5, cr0, {0}
    4a38:	00067101 	andeq	r7, r6, r1, lsl #2
    4a3c:	d5170000 	ldrle	r0, [r7, #-0]
    4a40:	05000003 	streq	r0, [r0, #-3]
    4a44:	0671013f 			; <UNDEFINED> instruction: 0x0671013f
    4a48:	17060000 	strne	r0, [r6, -r0]
    4a4c:	00000453 	andeq	r0, r0, r3, asr r4
    4a50:	56014005 	strpl	r4, [r1], -r5
    4a54:	0c000000 	stceq	0, cr0, [r0], {-0}
    4a58:	00560800 	subseq	r0, r6, r0, lsl #16
    4a5c:	06810000 	streq	r0, [r1], r0
    4a60:	c7090000 	strgt	r0, [r9, -r0]
    4a64:	02000000 	andeq	r0, r0, #0
    4a68:	05d01a00 	ldrbeq	r1, [r0, #2560]	; 0xa00
    4a6c:	07820257 			; <UNDEFINED> instruction: 0x07820257
    4a70:	99170000 	ldmdbls	r7, {}	; <UNPREDICTABLE>
    4a74:	05000004 	streq	r0, [r0, #-4]
    4a78:	002c0259 	eoreq	r0, ip, r9, asr r2
    4a7c:	17000000 	strne	r0, [r0, -r0]
    4a80:	0000043d 	andeq	r0, r0, sp, lsr r4
    4a84:	07025a05 	streq	r5, [r2, -r5, lsl #20]
    4a88:	04000001 	streq	r0, [r0], #-1
    4a8c:	00025b17 	andeq	r5, r2, r7, lsl fp
    4a90:	025b0500 	subseq	r0, fp, #0, 10
    4a94:	00000782 	andeq	r0, r0, r2, lsl #15
    4a98:	04f91708 	ldrbteq	r1, [r9], #1800	; 0x708
    4a9c:	5c050000 	stcpl	0, cr0, [r5], {-0}
    4aa0:	00018d02 	andeq	r8, r1, r2, lsl #26
    4aa4:	c9172400 	ldmdbgt	r7, {sl, sp}
    4aa8:	05000001 	streq	r0, [r0, #-1]
    4aac:	0025025d 	eoreq	r0, r5, sp, asr r2
    4ab0:	17480000 	strbne	r0, [r8, -r0]
    4ab4:	0000035d 	andeq	r0, r0, sp, asr r3
    4ab8:	64025e05 	strvs	r5, [r2], #-3589	; 0xfffff1fb
    4abc:	50000000 	andpl	r0, r0, r0
    4ac0:	00050f17 	andeq	r0, r5, r7, lsl pc
    4ac4:	025f0500 	subseq	r0, pc, #0, 10
    4ac8:	0000063c 	andeq	r0, r0, ip, lsr r6
    4acc:	03681758 	cmneq	r8, #88, 14	; 0x1600000
    4ad0:	60050000 	andvs	r0, r5, r0
    4ad4:	0000ef02 	andeq	lr, r0, r2, lsl #30
    4ad8:	14176800 	ldrne	r6, [r7], #-2048	; 0xfffff800
    4adc:	05000005 	streq	r0, [r0, #-5]
    4ae0:	00ef0261 	rsceq	r0, pc, r1, ror #4
    4ae4:	17700000 	ldrbne	r0, [r0, -r0]!
    4ae8:	000000a1 	andeq	r0, r0, r1, lsr #1
    4aec:	ef026205 	svc	0x00026205
    4af0:	78000000 	stmdavc	r0, {}	; <UNPREDICTABLE>
    4af4:	0004c417 	andeq	ip, r4, r7, lsl r4
    4af8:	02630500 	rsbeq	r0, r3, #0, 10
    4afc:	00000792 	muleq	r0, r2, r7
    4b00:	024f1780 	subeq	r1, pc, #128, 14	; 0x2000000
    4b04:	64050000 	strvs	r0, [r5], #-0
    4b08:	0007a202 	andeq	sl, r7, r2, lsl #4
    4b0c:	60178800 	andsvs	r8, r7, r0, lsl #16
    4b10:	05000004 	streq	r0, [r0, #-4]
    4b14:	00250265 	eoreq	r0, r5, r5, ror #4
    4b18:	17a00000 	strne	r0, [r0, r0]!
    4b1c:	0000018f 	andeq	r0, r0, pc, lsl #3
    4b20:	ef026605 	svc	0x00026605
    4b24:	a4000000 	strge	r0, [r0], #-0
    4b28:	00009217 	andeq	r9, r0, r7, lsl r2
    4b2c:	02670500 	rsbeq	r0, r7, #0, 10
    4b30:	000000ef 	andeq	r0, r0, pc, ror #1
    4b34:	017e17ac 	cmneq	lr, ip, lsr #15
    4b38:	68050000 	stmdavs	r5, {}	; <UNPREDICTABLE>
    4b3c:	0000ef02 	andeq	lr, r0, r2, lsl #30
    4b40:	4a17b400 	bmi	5f1b48 <__bss_end__+0x5e7b08>
    4b44:	05000000 	streq	r0, [r0, #-0]
    4b48:	00ef0269 	rsceq	r0, pc, r9, ror #4
    4b4c:	17bc0000 	ldrne	r0, [ip, r0]!
    4b50:	00000059 	andeq	r0, r0, r9, asr r0
    4b54:	ef026a05 	svc	0x00026a05
    4b58:	c4000000 	strgt	r0, [r0], #-0
    4b5c:	00031017 	andeq	r1, r3, r7, lsl r0
    4b60:	026b0500 	rsbeq	r0, fp, #0, 10
    4b64:	00000025 	andeq	r0, r0, r5, lsr #32
    4b68:	0d0800cc 	stceq	0, cr0, [r8, #-816]	; 0xfffffcd0
    4b6c:	92000001 	andls	r0, r0, #1
    4b70:	09000007 	stmdbeq	r0, {r0, r1, r2}
    4b74:	000000c7 	andeq	r0, r0, r7, asr #1
    4b78:	0d080019 	stceq	0, cr0, [r8, #-100]	; 0xffffff9c
    4b7c:	a2000001 	andge	r0, r0, #1
    4b80:	09000007 	stmdbeq	r0, {r0, r1, r2}
    4b84:	000000c7 	andeq	r0, r0, r7, asr #1
    4b88:	0d080007 	stceq	0, cr0, [r8, #-28]	; 0xffffffe4
    4b8c:	b2000001 	andlt	r0, r0, #1
    4b90:	09000007 	stmdbeq	r0, {r0, r1, r2}
    4b94:	000000c7 	andeq	r0, r0, r7, asr #1
    4b98:	f01a0017 			; <UNDEFINED> instruction: 0xf01a0017
    4b9c:	d6027005 	strle	r7, [r2], -r5
    4ba0:	17000007 	strne	r0, [r0, -r7]
    4ba4:	000002b7 			; <UNDEFINED> instruction: 0x000002b7
    4ba8:	d6027305 	strle	r7, [r2], -r5, lsl #6
    4bac:	00000007 	andeq	r0, r0, r7
    4bb0:	0004bb17 	andeq	fp, r4, r7, lsl fp
    4bb4:	02740500 	rsbseq	r0, r4, #0, 10
    4bb8:	000007e6 	andeq	r0, r0, r6, ror #15
    4bbc:	d6080078 			; <UNDEFINED> instruction: 0xd6080078
    4bc0:	e6000002 	str	r0, [r0], -r2
    4bc4:	09000007 	stmdbeq	r0, {r0, r1, r2}
    4bc8:	000000c7 	andeq	r0, r0, r7, asr #1
    4bcc:	2c08001d 	stccs	0, cr0, [r8], {29}
    4bd0:	f6000000 			; <UNDEFINED> instruction: 0xf6000000
    4bd4:	09000007 	stmdbeq	r0, {r0, r1, r2}
    4bd8:	000000c7 	andeq	r0, r0, r7, asr #1
    4bdc:	f01b001d 			; <UNDEFINED> instruction: 0xf01b001d
    4be0:	18025505 	stmdane	r2, {r0, r2, r8, sl, ip, lr}
    4be4:	1c000008 	stcne	0, cr0, [r0], {8}
    4be8:	000003a1 	andeq	r0, r0, r1, lsr #7
    4bec:	81026c05 	tsthi	r2, r5, lsl #24
    4bf0:	1c000006 	stcne	0, cr0, [r0], {6}
    4bf4:	000004e6 	andeq	r0, r0, r6, ror #9
    4bf8:	b2027505 	andlt	r7, r2, #20971520	; 0x1400000
    4bfc:	00000007 	andeq	r0, r0, r7
    4c00:	00010d08 	andeq	r0, r1, r8, lsl #26
    4c04:	00082800 	andeq	r2, r8, r0, lsl #16
    4c08:	00c70900 	sbceq	r0, r7, r0, lsl #18
    4c0c:	00180000 	andseq	r0, r8, r0
    4c10:	0008331d 	andeq	r3, r8, sp, lsl r3
    4c14:	04241500 	strteq	r1, [r4], #-1280	; 0xfffffb00
    4c18:	0d000000 	stceq	0, cr0, [r0, #-0]
    4c1c:	00082804 	andeq	r2, r8, r4, lsl #16
    4c20:	77040d00 	strvc	r0, [r4, -r0, lsl #26]
    4c24:	1d000001 	stcne	0, cr0, [r0, #-4]
    4c28:	0000084a 	andeq	r0, r0, sl, asr #16
    4c2c:	00002515 	andeq	r2, r0, r5, lsl r5
    4c30:	040d0000 	streq	r0, [sp], #-0
    4c34:	00000850 	andeq	r0, r0, r0, asr r8
    4c38:	083f040d 	ldmdaeq	pc!, {r0, r2, r3, sl}	; <UNPREDICTABLE>
    4c3c:	ef080000 	svc	0x00080000
    4c40:	66000005 	strvs	r0, [r0], -r5
    4c44:	09000008 	stmdbeq	r0, {r3}
    4c48:	000000c7 	andeq	r0, r0, r7, asr #1
    4c4c:	741e0002 	ldrvc	r0, [lr], #-2
    4c50:	05000004 	streq	r0, [r0, #-4]
    4c54:	042402fd 	strteq	r0, [r4], #-765	; 0xfffffd03
    4c58:	6d1e0000 	ldcvs	0, cr0, [lr, #-0]
    4c5c:	05000004 	streq	r0, [r0, #-4]
    4c60:	042a02fe 	strteq	r0, [sl], #-766	; 0xfffffd02
    4c64:	25140000 	ldrcs	r0, [r4, #-0]
    4c68:	8d000000 	stchi	0, cr0, [r0, #-0]
    4c6c:	15000008 	strne	r0, [r0, #-8]
    4c70:	00000025 	andeq	r0, r0, r5, lsr #32
    4c74:	01e21f00 	mvneq	r1, r0, lsl #30
    4c78:	1d060000 	stcne	0, cr0, [r6, #-0]
    4c7c:	00000898 	muleq	r0, r8, r8
    4c80:	087e040d 	ldmdaeq	lr!, {r0, r2, r3, sl}^
    4c84:	25140000 	ldrcs	r0, [r4, #-0]
    4c88:	ad000000 	stcge	0, cr0, [r0, #-0]
    4c8c:	15000008 	strne	r0, [r0, #-8]
    4c90:	00000585 	andeq	r0, r0, r5, lsl #11
    4c94:	076e1f00 	strbeq	r1, [lr, -r0, lsl #30]!
    4c98:	22060000 	andcs	r0, r6, #0
    4c9c:	000008b8 			; <UNDEFINED> instruction: 0x000008b8
    4ca0:	089e040d 	ldmeq	lr, {r0, r2, r3, sl}
    4ca4:	ad200000 	stcge	0, cr0, [r0, #-0]
    4ca8:	01000008 	tsteq	r0, r8
    4cac:	5803050c 	stmdapl	r3, {r2, r3, r8, sl}
    4cb0:	21000096 	swpcs	r0, r6, [r0]	; <UNPREDICTABLE>
    4cb4:	00000765 	andeq	r0, r0, r5, ror #14
    4cb8:	00250401 	eoreq	r0, r5, r1, lsl #8
    4cbc:	8fdc0000 	svchi	0x00dc0000
    4cc0:	00340000 	eorseq	r0, r4, r0
    4cc4:	9c010000 	stcls	0, cr0, [r1], {-0}
    4cc8:	01007022 	tsteq	r0, r2, lsr #32
    4ccc:	00058504 	andeq	r8, r5, r4, lsl #10
    4cd0:	000f4600 	andeq	r4, pc, r0, lsl #12
    4cd4:	3d000000 	stccc	0, cr0, [r0, #-0]
    4cd8:	04000009 	streq	r0, [r0], #-9
    4cdc:	000da200 	andeq	sl, sp, r0, lsl #4
    4ce0:	db010400 	blle	45ce8 <__bss_end__+0x3bca8>
    4ce4:	0c000003 	stceq	0, cr0, [r0], {3}
    4ce8:	000007a7 	andeq	r0, r0, r7, lsr #15
    4cec:	000006e3 	andeq	r0, r0, r3, ror #13
    4cf0:	00009010 	andeq	r9, r0, r0, lsl r0
    4cf4:	0000003c 	andeq	r0, r0, ip, lsr r0
    4cf8:	00000859 	andeq	r0, r0, r9, asr r8
    4cfc:	69050402 	stmdbvs	r5, {r1, sl}
    4d00:	0300746e 	movweq	r7, #1134	; 0x46e
    4d04:	00740704 	rsbseq	r0, r4, r4, lsl #14
    4d08:	01030000 	mrseq	r0, (UNDEF: 3)
    4d0c:	0002ff06 	andeq	pc, r2, r6, lsl #30
    4d10:	05020300 	streq	r0, [r2, #-768]	; 0xfffffd00
    4d14:	00000319 	andeq	r0, r0, r9, lsl r3
    4d18:	bd050403 	cfstrslt	mvf0, [r5, #-12]
    4d1c:	03000000 	movweq	r0, #0
    4d20:	00b80508 	adcseq	r0, r8, r8, lsl #10
    4d24:	01030000 	mrseq	r0, (UNDEF: 3)
    4d28:	0002fd08 	andeq	pc, r2, r8, lsl #26
    4d2c:	07020300 	streq	r0, [r2, -r0, lsl #6]
    4d30:	00000233 	andeq	r0, r0, r3, lsr r2
    4d34:	6f070403 	svcvs	0x00070403
    4d38:	03000000 	movweq	r0, #0
    4d3c:	006a0708 	rsbeq	r0, sl, r8, lsl #14
    4d40:	eb040000 	bl	104d48 <__bss_end__+0xfad08>
    4d44:	02000002 	andeq	r0, r0, #2
    4d48:	00002507 	andeq	r2, r0, r7, lsl #10
    4d4c:	02da0400 	sbcseq	r0, sl, #0, 8
    4d50:	2c030000 	stccs	0, cr0, [r3], {-0}
    4d54:	00000041 	andeq	r0, r0, r1, asr #32
    4d58:	0003c404 	andeq	ip, r3, r4, lsl #8
    4d5c:	41720300 	cmnmi	r2, r0, lsl #6
    4d60:	05000000 	streq	r0, [r0, #-0]
    4d64:	00000276 	andeq	r0, r0, r6, ror r2
    4d68:	2c016504 	cfstr32cs	mvfx6, [r1], {4}
    4d6c:	06000000 	streq	r0, [r0], -r0
    4d70:	b7a60304 	strlt	r0, [r6, r4, lsl #6]!
    4d74:	07000000 	streq	r0, [r0, -r0]
    4d78:	00000270 	andeq	r0, r0, r0, ror r2
    4d7c:	008ca803 	addeq	sl, ip, r3, lsl #16
    4d80:	f3070000 	vhadd.u8	d0, d7, d0
    4d84:	03000001 	movweq	r0, #1
    4d88:	0000b7a9 	andeq	fp, r0, r9, lsr #15
    4d8c:	4f080000 	svcmi	0x00080000
    4d90:	c7000000 	strgt	r0, [r0, -r0]
    4d94:	09000000 	stmdbeq	r0, {}	; <UNPREDICTABLE>
    4d98:	000000c7 	andeq	r0, r0, r7, asr #1
    4d9c:	04030003 	streq	r0, [r3], #-3
    4da0:	0002ae07 	andeq	sl, r2, r7, lsl #28
    4da4:	03080a00 	movweq	r0, #35328	; 0x8a00
    4da8:	0000efa3 	andeq	lr, r0, r3, lsr #31
    4dac:	03ae0b00 			; <UNDEFINED> instruction: 0x03ae0b00
    4db0:	a5030000 	strge	r0, [r3, #-0]
    4db4:	00000025 	andeq	r0, r0, r5, lsr #32
    4db8:	03b60b00 			; <UNDEFINED> instruction: 0x03b60b00
    4dbc:	aa030000 	bge	c4dc4 <__bss_end__+0xbad84>
    4dc0:	00000098 	muleq	r0, r8, r0
    4dc4:	41040004 	tstmi	r4, r4
    4dc8:	03000003 	movweq	r0, #3
    4dcc:	0000ceab 	andeq	ip, r0, fp, lsr #29
    4dd0:	01b00400 	lslseq	r0, r0, #8
    4dd4:	af030000 	svcge	0x00030000
    4dd8:	0000006b 	andeq	r0, r0, fp, rrx
    4ddc:	040d040c 	streq	r0, [sp], #-1036	; 0xfffffbf4
    4de0:	0000010d 	andeq	r0, r0, sp, lsl #2
    4de4:	06080103 	streq	r0, [r8], -r3, lsl #2
    4de8:	0e000003 	cdpeq	0, 0, cr0, cr0, cr3, {0}
    4dec:	0000010d 	andeq	r0, r0, sp, lsl #2
    4df0:	00045804 	andeq	r5, r4, r4, lsl #16
    4df4:	5d160500 	cfldr32pl	mvfx0, [r6, #-0]
    4df8:	0f000000 	svceq	0x00000000
    4dfc:	000001c1 	andeq	r0, r0, r1, asr #3
    4e00:	772d0518 			; <UNDEFINED> instruction: 0x772d0518
    4e04:	0b000001 	bleq	4e10 <_start-0x31f0>
    4e08:	00000362 	andeq	r0, r0, r2, ror #6
    4e0c:	01772f05 	cmneq	r7, r5, lsl #30
    4e10:	10000000 	andne	r0, r0, r0
    4e14:	05006b5f 	streq	r6, [r0, #-2911]	; 0xfffff4a1
    4e18:	00002530 	andeq	r2, r0, r0, lsr r5
    4e1c:	990b0400 	stmdbls	fp, {sl}
    4e20:	05000003 	streq	r0, [r0, #-3]
    4e24:	00002530 	andeq	r2, r0, r0, lsr r5
    4e28:	aa0b0800 	bge	2c6e30 <__bss_end__+0x2bcdf0>
    4e2c:	05000001 	streq	r0, [r0, #-1]
    4e30:	00002530 	andeq	r2, r0, r0, lsr r5
    4e34:	a60b0c00 	strge	r0, [fp], -r0, lsl #24
    4e38:	05000004 	streq	r0, [r0, #-4]
    4e3c:	00002530 	andeq	r2, r0, r0, lsr r5
    4e40:	5f101000 	svcpl	0x00101000
    4e44:	31050078 	tstcc	r5, r8, ror r0
    4e48:	0000017d 	andeq	r0, r0, sp, ror r1
    4e4c:	040d0014 	streq	r0, [sp], #-20	; 0xffffffec
    4e50:	00000124 	andeq	r0, r0, r4, lsr #2
    4e54:	00011908 	andeq	r1, r1, r8, lsl #18
    4e58:	00018d00 	andeq	r8, r1, r0, lsl #26
    4e5c:	00c70900 	sbceq	r0, r7, r0, lsl #18
    4e60:	00000000 	andeq	r0, r0, r0
    4e64:	0001ee0f 	andeq	lr, r1, pc, lsl #28
    4e68:	35052400 	strcc	r2, [r5, #-1024]	; 0xfffffc00
    4e6c:	00000206 	andeq	r0, r0, r6, lsl #4
    4e70:	0000af0b 	andeq	sl, r0, fp, lsl #30
    4e74:	25370500 	ldrcs	r0, [r7, #-1280]!	; 0xfffffb00
    4e78:	00000000 	andeq	r0, r0, r0
    4e7c:	0003cc0b 	andeq	ip, r3, fp, lsl #24
    4e80:	25380500 	ldrcs	r0, [r8, #-1280]!	; 0xfffffb00
    4e84:	04000000 	streq	r0, [r0], #-0
    4e88:	0000d20b 	andeq	sp, r0, fp, lsl #4
    4e8c:	25390500 	ldrcs	r0, [r9, #-1280]!	; 0xfffffb00
    4e90:	08000000 	stmdaeq	r0, {}	; <UNPREDICTABLE>
    4e94:	0005270b 	andeq	r2, r5, fp, lsl #14
    4e98:	253a0500 	ldrcs	r0, [sl, #-1280]!	; 0xfffffb00
    4e9c:	0c000000 	stceq	0, cr0, [r0], {-0}
    4ea0:	0002be0b 	andeq	fp, r2, fp, lsl #28
    4ea4:	253b0500 	ldrcs	r0, [fp, #-1280]!	; 0xfffffb00
    4ea8:	10000000 	andne	r0, r0, r0
    4eac:	0002970b 	andeq	r9, r2, fp, lsl #14
    4eb0:	253c0500 	ldrcs	r0, [ip, #-1280]!	; 0xfffffb00
    4eb4:	14000000 	strne	r0, [r0], #-0
    4eb8:	0004ab0b 	andeq	sl, r4, fp, lsl #22
    4ebc:	253d0500 	ldrcs	r0, [sp, #-1280]!	; 0xfffffb00
    4ec0:	18000000 	stmdane	r0, {}	; <UNPREDICTABLE>
    4ec4:	0003230b 	andeq	r2, r3, fp, lsl #6
    4ec8:	253e0500 	ldrcs	r0, [lr, #-1280]!	; 0xfffffb00
    4ecc:	1c000000 	stcne	0, cr0, [r0], {-0}
    4ed0:	0004ee0b 	andeq	lr, r4, fp, lsl #28
    4ed4:	253f0500 	ldrcs	r0, [pc, #-1280]!	; 49dc <_start-0x3624>
    4ed8:	20000000 	andcs	r0, r0, r0
    4edc:	01121100 	tsteq	r2, r0, lsl #2
    4ee0:	01080000 	mrseq	r0, (UNDEF: 8)
    4ee4:	02464805 	subeq	r4, r6, #327680	; 0x50000
    4ee8:	9d0b0000 	stcls	0, cr0, [fp, #-0]
    4eec:	05000001 	streq	r0, [r0, #-1]
    4ef0:	00024649 	andeq	r4, r2, r9, asr #12
    4ef4:	000b0000 	andeq	r0, fp, r0
    4ef8:	05000000 	streq	r0, [r0, #-0]
    4efc:	0002464a 	andeq	r4, r2, sl, asr #12
    4f00:	4a128000 	bmi	4a4f08 <__bss_end__+0x49aec8>
    4f04:	05000004 	streq	r0, [r0, #-4]
    4f08:	0001194c 	andeq	r1, r1, ip, asr #18
    4f0c:	12010000 	andne	r0, r1, #0
    4f10:	00000137 	andeq	r0, r0, r7, lsr r1
    4f14:	01194f05 	tsteq	r9, r5, lsl #30
    4f18:	01040000 	mrseq	r0, (UNDEF: 4)
    4f1c:	01050800 	tsteq	r5, r0, lsl #16
    4f20:	02560000 	subseq	r0, r6, #0
    4f24:	c7090000 	strgt	r0, [r9, -r0]
    4f28:	1f000000 	svcne	0x00000000
    4f2c:	02c71100 	sbceq	r1, r7, #0, 2
    4f30:	01900000 	orrseq	r0, r0, r0
    4f34:	02945b05 	addseq	r5, r4, #5120	; 0x1400
    4f38:	620b0000 	andvs	r0, fp, #0
    4f3c:	05000003 	streq	r0, [r0, #-3]
    4f40:	0002945c 	andeq	r9, r2, ip, asr r4
    4f44:	7a0b0000 	bvc	2c4f4c <__bss_end__+0x2baf0c>
    4f48:	05000003 	streq	r0, [r0, #-3]
    4f4c:	0000255d 	andeq	r2, r0, sp, asr r5
    4f50:	a50b0400 	strge	r0, [fp, #-1024]	; 0xfffffc00
    4f54:	05000001 	streq	r0, [r0, #-1]
    4f58:	00029a5f 	andeq	r9, r2, pc, asr sl
    4f5c:	120b0800 	andne	r0, fp, #0, 16
    4f60:	05000001 	streq	r0, [r0, #-1]
    4f64:	00020660 	andeq	r0, r2, r0, ror #12
    4f68:	0d008800 	stceq	8, cr8, [r0, #-0]
    4f6c:	00025604 	andeq	r5, r2, r4, lsl #12
    4f70:	02aa0800 	adceq	r0, sl, #0, 16
    4f74:	02aa0000 	adceq	r0, sl, #0
    4f78:	c7090000 	strgt	r0, [r9, -r0]
    4f7c:	1f000000 	svcne	0x00000000
    4f80:	b0040d00 	andlt	r0, r4, r0, lsl #26
    4f84:	13000002 	movwne	r0, #2
    4f88:	00032d0f 	andeq	r2, r3, pc, lsl #26
    4f8c:	73050800 	movwvc	r0, #22528	; 0x5800
    4f90:	000002d6 	ldrdeq	r0, [r0], -r6
    4f94:	0000cc0b 	andeq	ip, r0, fp, lsl #24
    4f98:	d6740500 	ldrbtle	r0, [r4], -r0, lsl #10
    4f9c:	00000002 	andeq	r0, r0, r2
    4fa0:	00001b0b 	andeq	r1, r0, fp, lsl #22
    4fa4:	25750500 	ldrbcs	r0, [r5, #-1280]!	; 0xfffffb00
    4fa8:	04000000 	streq	r0, [r0], #-0
    4fac:	4f040d00 	svcmi	0x00040d00
    4fb0:	0f000000 	svceq	0x00000000
    4fb4:	0000034c 	andeq	r0, r0, ip, asr #6
    4fb8:	06b30568 	ldrteq	r0, [r3], r8, ror #10
    4fbc:	10000004 	andne	r0, r0, r4
    4fc0:	0500705f 	streq	r7, [r0, #-95]	; 0xffffffa1
    4fc4:	0002d6b4 			; <UNDEFINED> instruction: 0x0002d6b4
    4fc8:	5f100000 	svcpl	0x00100000
    4fcc:	b5050072 	strlt	r0, [r5, #-114]	; 0xffffff8e
    4fd0:	00000025 	andeq	r0, r0, r5, lsr #32
    4fd4:	775f1004 	ldrbvc	r1, [pc, -r4]
    4fd8:	25b60500 	ldrcs	r0, [r6, #1280]!	; 0x500
    4fdc:	08000000 	stmdaeq	r0, {}	; <UNPREDICTABLE>
    4fe0:	0001300b 	andeq	r3, r1, fp
    4fe4:	3ab70500 	bcc	fedc63ec <__bss_end__+0xfedbc3ac>
    4fe8:	0c000000 	stceq	0, cr0, [r0], {-0}
    4fec:	0002190b 	andeq	r1, r2, fp, lsl #18
    4ff0:	3ab80500 	bcc	fee063f8 <__bss_end__+0xfedfc3b8>
    4ff4:	0e000000 	cdpeq	0, 0, cr0, cr0, cr0, {0}
    4ff8:	66625f10 	uqadd16vs	r5, r2, r0
    4ffc:	b1b90500 			; <UNDEFINED> instruction: 0xb1b90500
    5000:	10000002 	andne	r0, r0, r2
    5004:	0000890b 	andeq	r8, r0, fp, lsl #18
    5008:	25ba0500 	ldrcs	r0, [sl, #1280]!	; 0x500
    500c:	18000000 	stmdane	r0, {}	; <UNPREDICTABLE>
    5010:	0001200b 	andeq	r2, r1, fp
    5014:	05c10500 	strbeq	r0, [r1, #1280]	; 0x500
    5018:	1c000001 	stcne	0, cr0, [r0], {1}
    501c:	000a7d0b 	andeq	r7, sl, fp, lsl #26
    5020:	61c30500 	bicvs	r0, r3, r0, lsl #10
    5024:	20000005 	andcs	r0, r0, r5
    5028:	0006110b 	andeq	r1, r6, fp, lsl #2
    502c:	8bc50500 	blhi	ff146434 <__bss_end__+0xff13c3f4>
    5030:	24000005 	strcs	r0, [r0], #-5
    5034:	0003be0b 	andeq	fp, r3, fp, lsl #28
    5038:	afc80500 	svcge	0x00c80500
    503c:	28000005 	stmdacs	r0, {r0, r2}
    5040:	0005080b 	andeq	r0, r5, fp, lsl #16
    5044:	c9c90500 	stmibgt	r9, {r8, sl}^
    5048:	2c000005 	stccs	0, cr0, [r0], {5}
    504c:	62755f10 	rsbsvs	r5, r5, #16, 30	; 0x40
    5050:	b1cc0500 	biclt	r0, ip, r0, lsl #10
    5054:	30000002 	andcc	r0, r0, r2
    5058:	70755f10 	rsbsvc	r5, r5, r0, lsl pc
    505c:	d6cd0500 	strble	r0, [sp], r0, lsl #10
    5060:	38000002 	stmdacc	r0, {r1}
    5064:	72755f10 	rsbsvc	r5, r5, #16, 30	; 0x40
    5068:	25ce0500 	strbcs	r0, [lr, #1280]	; 0x500
    506c:	3c000000 	stccc	0, cr0, [r0], {-0}
    5070:	0000c60b 	andeq	ip, r0, fp, lsl #12
    5074:	cfd10500 	svcgt	0x00d10500
    5078:	40000005 	andmi	r0, r0, r5
    507c:	0004e00b 	andeq	lr, r4, fp
    5080:	dfd20500 	svcle	0x00d20500
    5084:	43000005 	movwmi	r0, #5
    5088:	626c5f10 	rsbvs	r5, ip, #16, 30	; 0x40
    508c:	b1d50500 	bicslt	r0, r5, r0, lsl #10
    5090:	44000002 	strmi	r0, [r0], #-2
    5094:	00014e0b 	andeq	r4, r1, fp, lsl #28
    5098:	25d80500 	ldrbcs	r0, [r8, #1280]	; 0x500
    509c:	4c000000 	stcmi	0, cr0, [r0], {-0}
    50a0:	00015f0b 	andeq	r5, r1, fp, lsl #30
    50a4:	76d90500 	ldrbvc	r0, [r9], r0, lsl #10
    50a8:	50000000 	andpl	r0, r0, r0
    50ac:	000a1e0b 	andeq	r1, sl, fp, lsl #28
    50b0:	24dc0500 	ldrbcs	r0, [ip], #1280	; 0x500
    50b4:	54000004 	strpl	r0, [r0], #-4
    50b8:	0002840b 	andeq	r8, r2, fp, lsl #8
    50bc:	fae00500 	blx	ff8064c4 <__bss_end__+0xff7fc484>
    50c0:	58000000 	stmdapl	r0, {}	; <UNPREDICTABLE>
    50c4:	0003540b 	andeq	r5, r3, fp, lsl #8
    50c8:	efe20500 	svc	0x00e20500
    50cc:	5c000000 	stcpl	0, cr0, [r0], {-0}
    50d0:	00028f0b 	andeq	r8, r2, fp, lsl #30
    50d4:	25e30500 	strbcs	r0, [r3, #1280]!	; 0x500
    50d8:	64000000 	strvs	r0, [r0], #-0
    50dc:	00251400 	eoreq	r1, r5, r0, lsl #8
    50e0:	04240000 	strteq	r0, [r4], #-0
    50e4:	24150000 	ldrcs	r0, [r5], #-0
    50e8:	15000004 	strne	r0, [r0, #-4]
    50ec:	00000105 	andeq	r0, r0, r5, lsl #2
    50f0:	00010715 	andeq	r0, r1, r5, lsl r7
    50f4:	00251500 	eoreq	r1, r5, r0, lsl #10
    50f8:	0d000000 	stceq	0, cr0, [r0, #-0]
    50fc:	00042f04 	andeq	r2, r4, r4, lsl #30
    5100:	04240e00 	strteq	r0, [r4], #-3584	; 0xfffff200
    5104:	a1160000 	tstge	r6, r0
    5108:	28000003 	stmdacs	r0, {r0, r1}
    510c:	02380504 	eorseq	r0, r8, #4, 10	; 0x1000000
    5110:	00000561 	andeq	r0, r0, r1, ror #10
    5114:	00031217 	andeq	r1, r3, r7, lsl r2
    5118:	023a0500 	eorseq	r0, sl, #0, 10
    511c:	00000025 	andeq	r0, r0, r5, lsr #32
    5120:	013f1700 	teqeq	pc, r0, lsl #14
    5124:	3f050000 	svccc	0x00050000
    5128:	00063602 	andeq	r3, r6, r2, lsl #12
    512c:	09170400 	ldmdbeq	r7, {sl}
    5130:	05000002 	streq	r0, [r0, #-2]
    5134:	0636023f 			; <UNDEFINED> instruction: 0x0636023f
    5138:	17080000 	strne	r0, [r8, -r0]
    513c:	000001b9 			; <UNDEFINED> instruction: 0x000001b9
    5140:	36023f05 	strcc	r3, [r2], -r5, lsl #30
    5144:	0c000006 	stceq	0, cr0, [r0], {6}
    5148:	00037517 	andeq	r7, r3, r7, lsl r5
    514c:	02410500 	subeq	r0, r1, #0, 10
    5150:	00000025 	andeq	r0, r0, r5, lsr #32
    5154:	00371710 	eorseq	r1, r7, r0, lsl r7
    5158:	42050000 	andmi	r0, r5, #0
    515c:	00081802 	andeq	r1, r8, r2, lsl #16
    5160:	80171400 	andshi	r1, r7, r0, lsl #8
    5164:	05000004 	streq	r0, [r0, #-4]
    5168:	00250244 	eoreq	r0, r5, r4, asr #4
    516c:	17300000 	ldrne	r0, [r0, -r0]!
    5170:	0000037f 	andeq	r0, r0, pc, ror r3
    5174:	85024505 	strhi	r4, [r2, #-1285]	; 0xfffffafb
    5178:	34000005 	strcc	r0, [r0], #-5
    517c:	0002cf17 	andeq	ip, r2, r7, lsl pc
    5180:	02470500 	subeq	r0, r7, #0, 10
    5184:	00000025 	andeq	r0, r0, r5, lsr #32
    5188:	038f1738 	orreq	r1, pc, #56, 14	; 0xe00000
    518c:	49050000 	stmdbmi	r5, {}	; <UNPREDICTABLE>
    5190:	00083302 	andeq	r3, r8, r2, lsl #6
    5194:	68173c00 	ldmdavs	r7, {sl, fp, ip, sp}
    5198:	05000002 	streq	r0, [r0, #-2]
    519c:	0177024c 	cmneq	r7, ip, asr #4
    51a0:	17400000 	strbne	r0, [r0, -r0]
    51a4:	000001d8 	ldrdeq	r0, [r0], -r8
    51a8:	25024d05 	strcs	r4, [r2, #-3333]	; 0xfffff2fb
    51ac:	44000000 	strmi	r0, [r0], #-0
    51b0:	00052217 	andeq	r2, r5, r7, lsl r2
    51b4:	024e0500 	subeq	r0, lr, #0, 10
    51b8:	00000177 	andeq	r0, r0, r7, ror r1
    51bc:	02e11748 	rsceq	r1, r1, #72, 14	; 0x1200000
    51c0:	4f050000 	svcmi	0x00050000
    51c4:	00083902 	andeq	r3, r8, r2, lsl #18
    51c8:	11174c00 	tstne	r7, r0, lsl #24
    51cc:	05000002 	streq	r0, [r0, #-2]
    51d0:	00250252 	eoreq	r0, r5, r2, asr r2
    51d4:	17500000 	ldrbne	r0, [r0, -r0]
    51d8:	00000157 	andeq	r0, r0, r7, asr r1
    51dc:	07025305 	streq	r5, [r2, -r5, lsl #6]
    51e0:	54000001 	strpl	r0, [r0], #-1
    51e4:	00030b17 	andeq	r0, r3, r7, lsl fp
    51e8:	02760500 	rsbseq	r0, r6, #0, 10
    51ec:	000007f6 	strdeq	r0, [r0], -r6
    51f0:	02c71858 	sbceq	r1, r7, #88, 16	; 0x580000
    51f4:	7a050000 	bvc	1451fc <__bss_end__+0x13b1bc>
    51f8:	00029402 	andeq	r9, r2, r2, lsl #8
    51fc:	18014800 	stmdane	r1, {fp, lr}
    5200:	00000246 	andeq	r0, r0, r6, asr #4
    5204:	56027b05 	strpl	r7, [r2], -r5, lsl #22
    5208:	4c000002 	stcmi	0, cr0, [r0], {2}
    520c:	04ce1801 	strbeq	r1, [lr], #2049	; 0x801
    5210:	7f050000 	svcvc	0x00050000
    5214:	00084a02 	andeq	r4, r8, r2, lsl #20
    5218:	1802dc00 	stmdane	r2, {sl, fp, ip, lr, pc}
    521c:	00000128 	andeq	r0, r0, r8, lsr #2
    5220:	fb028405 	blx	a623e <__bss_end__+0x9c1fe>
    5224:	e0000005 	and	r0, r0, r5
    5228:	010d1802 	tsteq	sp, r2, lsl #16
    522c:	85050000 	strhi	r0, [r5, #-0]
    5230:	00085602 	andeq	r5, r8, r2, lsl #12
    5234:	0002ec00 	andeq	lr, r2, r0, lsl #24
    5238:	0406040d 	streq	r0, [r6], #-1037	; 0xfffffbf3
    523c:	25140000 	ldrcs	r0, [r4, #-0]
    5240:	85000000 	strhi	r0, [r0, #-0]
    5244:	15000005 	strne	r0, [r0, #-5]
    5248:	00000424 	andeq	r0, r0, r4, lsr #8
    524c:	00010515 	andeq	r0, r1, r5, lsl r5
    5250:	05851500 	streq	r1, [r5, #1280]	; 0x500
    5254:	25150000 	ldrcs	r0, [r5, #-0]
    5258:	00000000 	andeq	r0, r0, r0
    525c:	0114040d 	tsteq	r4, sp, lsl #8
    5260:	040d0000 	streq	r0, [sp], #-0
    5264:	00000567 	andeq	r0, r0, r7, ror #10
    5268:	00008114 	andeq	r8, r0, r4, lsl r1
    526c:	0005af00 	andeq	sl, r5, r0, lsl #30
    5270:	04241500 	strteq	r1, [r4], #-1280	; 0xfffffb00
    5274:	05150000 	ldreq	r0, [r5, #-0]
    5278:	15000001 	strne	r0, [r0, #-1]
    527c:	00000081 	andeq	r0, r0, r1, lsl #1
    5280:	00002515 	andeq	r2, r0, r5, lsl r5
    5284:	040d0000 	streq	r0, [sp], #-0
    5288:	00000591 	muleq	r0, r1, r5
    528c:	00002514 	andeq	r2, r0, r4, lsl r5
    5290:	0005c900 	andeq	ip, r5, r0, lsl #18
    5294:	04241500 	strteq	r1, [r4], #-1280	; 0xfffffb00
    5298:	05150000 	ldreq	r0, [r5, #-0]
    529c:	00000001 	andeq	r0, r0, r1
    52a0:	05b5040d 	ldreq	r0, [r5, #1037]!	; 0x40d
    52a4:	4f080000 	svcmi	0x00080000
    52a8:	df000000 	svcle	0x00000000
    52ac:	09000005 	stmdbeq	r0, {r0, r2}
    52b0:	000000c7 	andeq	r0, r0, r7, asr #1
    52b4:	4f080002 	svcmi	0x00080002
    52b8:	ef000000 	svc	0x00000000
    52bc:	09000005 	stmdbeq	r0, {r0, r2}
    52c0:	000000c7 	andeq	r0, r0, r7, asr #1
    52c4:	3a050000 	bcc	1452cc <__bss_end__+0x13b28c>
    52c8:	05000003 	streq	r0, [r0, #-3]
    52cc:	02dc011d 	sbcseq	r0, ip, #1073741831	; 0x40000007
    52d0:	b5190000 	ldrlt	r0, [r9, #-0]
    52d4:	0c000004 	stceq	0, cr0, [r0], {4}
    52d8:	30012105 	andcc	r2, r1, r5, lsl #2
    52dc:	17000006 	strne	r0, [r0, -r6]
    52e0:	00000362 	andeq	r0, r0, r2, ror #6
    52e4:	30012305 	andcc	r2, r1, r5, lsl #6
    52e8:	00000006 	andeq	r0, r0, r6
    52ec:	00022c17 	andeq	r2, r2, r7, lsl ip
    52f0:	01240500 			; <UNDEFINED> instruction: 0x01240500
    52f4:	00000025 	andeq	r0, r0, r5, lsr #32
    52f8:	03341704 	teqeq	r4, #4, 14	; 0x100000
    52fc:	25050000 	strcs	r0, [r5, #-0]
    5300:	00063601 	andeq	r3, r6, r1, lsl #12
    5304:	0d000800 	stceq	8, cr0, [r0, #-0]
    5308:	0005fb04 	andeq	pc, r5, r4, lsl #22
    530c:	ef040d00 	svc	0x00040d00
    5310:	19000005 	stmdbne	r0, {r0, r2}
    5314:	0000002f 	andeq	r0, r0, pc, lsr #32
    5318:	013d050e 	teqeq	sp, lr, lsl #10
    531c:	00000671 	andeq	r0, r0, r1, ror r6
    5320:	0003a817 	andeq	sl, r3, r7, lsl r8
    5324:	013e0500 	teqeq	lr, r0, lsl #10
    5328:	00000671 	andeq	r0, r0, r1, ror r6
    532c:	03d51700 	bicseq	r1, r5, #0, 14
    5330:	3f050000 	svccc	0x00050000
    5334:	00067101 	andeq	r7, r6, r1, lsl #2
    5338:	53170600 	tstpl	r7, #0, 12
    533c:	05000004 	streq	r0, [r0, #-4]
    5340:	00560140 	subseq	r0, r6, r0, asr #2
    5344:	000c0000 	andeq	r0, ip, r0
    5348:	00005608 	andeq	r5, r0, r8, lsl #12
    534c:	00068100 	andeq	r8, r6, r0, lsl #2
    5350:	00c70900 	sbceq	r0, r7, r0, lsl #18
    5354:	00020000 	andeq	r0, r2, r0
    5358:	5705d01a 	smladpl	r5, sl, r0, sp
    535c:	00078202 	andeq	r8, r7, r2, lsl #4
    5360:	04991700 	ldreq	r1, [r9], #1792	; 0x700
    5364:	59050000 	stmdbpl	r5, {}	; <UNPREDICTABLE>
    5368:	00002c02 	andeq	r2, r0, r2, lsl #24
    536c:	3d170000 	ldccc	0, cr0, [r7, #-0]
    5370:	05000004 	streq	r0, [r0, #-4]
    5374:	0107025a 	tsteq	r7, sl, asr r2
    5378:	17040000 	strne	r0, [r4, -r0]
    537c:	0000025b 	andeq	r0, r0, fp, asr r2
    5380:	82025b05 	andhi	r5, r2, #5120	; 0x1400
    5384:	08000007 	stmdaeq	r0, {r0, r1, r2}
    5388:	0004f917 	andeq	pc, r4, r7, lsl r9	; <UNPREDICTABLE>
    538c:	025c0500 	subseq	r0, ip, #0, 10
    5390:	0000018d 	andeq	r0, r0, sp, lsl #3
    5394:	01c91724 	biceq	r1, r9, r4, lsr #14
    5398:	5d050000 	stcpl	0, cr0, [r5, #-0]
    539c:	00002502 	andeq	r2, r0, r2, lsl #10
    53a0:	5d174800 	ldcpl	8, cr4, [r7, #-0]
    53a4:	05000003 	streq	r0, [r0, #-3]
    53a8:	0064025e 	rsbeq	r0, r4, lr, asr r2
    53ac:	17500000 	ldrbne	r0, [r0, -r0]
    53b0:	0000050f 	andeq	r0, r0, pc, lsl #10
    53b4:	3c025f05 	stccc	15, cr5, [r2], {5}
    53b8:	58000006 	stmdapl	r0, {r1, r2}
    53bc:	00036817 	andeq	r6, r3, r7, lsl r8
    53c0:	02600500 	rsbeq	r0, r0, #0, 10
    53c4:	000000ef 	andeq	r0, r0, pc, ror #1
    53c8:	05141768 	ldreq	r1, [r4, #-1896]	; 0xfffff898
    53cc:	61050000 	mrsvs	r0, (UNDEF: 5)
    53d0:	0000ef02 	andeq	lr, r0, r2, lsl #30
    53d4:	a1177000 	tstge	r7, r0
    53d8:	05000000 	streq	r0, [r0, #-0]
    53dc:	00ef0262 	rsceq	r0, pc, r2, ror #4
    53e0:	17780000 	ldrbne	r0, [r8, -r0]!
    53e4:	000004c4 	andeq	r0, r0, r4, asr #9
    53e8:	92026305 	andls	r6, r2, #335544320	; 0x14000000
    53ec:	80000007 	andhi	r0, r0, r7
    53f0:	00024f17 	andeq	r4, r2, r7, lsl pc
    53f4:	02640500 	rsbeq	r0, r4, #0, 10
    53f8:	000007a2 	andeq	r0, r0, r2, lsr #15
    53fc:	04601788 	strbteq	r1, [r0], #-1928	; 0xfffff878
    5400:	65050000 	strvs	r0, [r5, #-0]
    5404:	00002502 	andeq	r2, r0, r2, lsl #10
    5408:	8f17a000 	svchi	0x0017a000
    540c:	05000001 	streq	r0, [r0, #-1]
    5410:	00ef0266 	rsceq	r0, pc, r6, ror #4
    5414:	17a40000 	strne	r0, [r4, r0]!
    5418:	00000092 	muleq	r0, r2, r0
    541c:	ef026705 	svc	0x00026705
    5420:	ac000000 	stcge	0, cr0, [r0], {-0}
    5424:	00017e17 	andeq	r7, r1, r7, lsl lr
    5428:	02680500 	rsbeq	r0, r8, #0, 10
    542c:	000000ef 	andeq	r0, r0, pc, ror #1
    5430:	004a17b4 	strheq	r1, [sl], #-116	; 0xffffff8c
    5434:	69050000 	stmdbvs	r5, {}	; <UNPREDICTABLE>
    5438:	0000ef02 	andeq	lr, r0, r2, lsl #30
    543c:	5917bc00 	ldmdbpl	r7, {sl, fp, ip, sp, pc}
    5440:	05000000 	streq	r0, [r0, #-0]
    5444:	00ef026a 	rsceq	r0, pc, sl, ror #4
    5448:	17c40000 	strbne	r0, [r4, r0]
    544c:	00000310 	andeq	r0, r0, r0, lsl r3
    5450:	25026b05 	strcs	r6, [r2, #-2821]	; 0xfffff4fb
    5454:	cc000000 	stcgt	0, cr0, [r0], {-0}
    5458:	010d0800 	tsteq	sp, r0, lsl #16
    545c:	07920000 	ldreq	r0, [r2, r0]
    5460:	c7090000 	strgt	r0, [r9, -r0]
    5464:	19000000 	stmdbne	r0, {}	; <UNPREDICTABLE>
    5468:	010d0800 	tsteq	sp, r0, lsl #16
    546c:	07a20000 	streq	r0, [r2, r0]!
    5470:	c7090000 	strgt	r0, [r9, -r0]
    5474:	07000000 	streq	r0, [r0, -r0]
    5478:	010d0800 	tsteq	sp, r0, lsl #16
    547c:	07b20000 	ldreq	r0, [r2, r0]!
    5480:	c7090000 	strgt	r0, [r9, -r0]
    5484:	17000000 	strne	r0, [r0, -r0]
    5488:	05f01a00 	ldrbeq	r1, [r0, #2560]!	; 0xa00
    548c:	07d60270 			; <UNDEFINED> instruction: 0x07d60270
    5490:	b7170000 	ldrlt	r0, [r7, -r0]
    5494:	05000002 	streq	r0, [r0, #-2]
    5498:	07d60273 			; <UNDEFINED> instruction: 0x07d60273
    549c:	17000000 	strne	r0, [r0, -r0]
    54a0:	000004bb 			; <UNDEFINED> instruction: 0x000004bb
    54a4:	e6027405 	str	r7, [r2], -r5, lsl #8
    54a8:	78000007 	stmdavc	r0, {r0, r1, r2}
    54ac:	02d60800 	sbcseq	r0, r6, #0, 16
    54b0:	07e60000 	strbeq	r0, [r6, r0]!
    54b4:	c7090000 	strgt	r0, [r9, -r0]
    54b8:	1d000000 	stcne	0, cr0, [r0, #-0]
    54bc:	002c0800 	eoreq	r0, ip, r0, lsl #16
    54c0:	07f60000 	ldrbeq	r0, [r6, r0]!
    54c4:	c7090000 	strgt	r0, [r9, -r0]
    54c8:	1d000000 	stcne	0, cr0, [r0, #-0]
    54cc:	05f01b00 	ldrbeq	r1, [r0, #2816]!	; 0xb00
    54d0:	08180255 	ldmdaeq	r8, {r0, r2, r4, r6, r9}
    54d4:	a11c0000 	tstge	ip, r0
    54d8:	05000003 	streq	r0, [r0, #-3]
    54dc:	0681026c 	streq	r0, [r1], ip, ror #4
    54e0:	e61c0000 	ldr	r0, [ip], -r0
    54e4:	05000004 	streq	r0, [r0, #-4]
    54e8:	07b20275 			; <UNDEFINED> instruction: 0x07b20275
    54ec:	08000000 	stmdaeq	r0, {}	; <UNPREDICTABLE>
    54f0:	0000010d 	andeq	r0, r0, sp, lsl #2
    54f4:	00000828 	andeq	r0, r0, r8, lsr #16
    54f8:	0000c709 	andeq	ip, r0, r9, lsl #14
    54fc:	1d001800 	stcne	8, cr1, [r0, #-0]
    5500:	00000833 	andeq	r0, r0, r3, lsr r8
    5504:	00042415 	andeq	r2, r4, r5, lsl r4
    5508:	040d0000 	streq	r0, [sp], #-0
    550c:	00000828 	andeq	r0, r0, r8, lsr #16
    5510:	0177040d 	cmneq	r7, sp, lsl #8
    5514:	4a1d0000 	bmi	74551c <__bss_end__+0x73b4dc>
    5518:	15000008 	strne	r0, [r0, #-8]
    551c:	00000025 	andeq	r0, r0, r5, lsr #32
    5520:	50040d00 	andpl	r0, r4, r0, lsl #26
    5524:	0d000008 	stceq	0, cr0, [r0, #-32]	; 0xffffffe0
    5528:	00083f04 	andeq	r3, r8, r4, lsl #30
    552c:	05ef0800 	strbeq	r0, [pc, #2048]!	; 5d34 <_start-0x22cc>
    5530:	08660000 	stmdaeq	r6!, {}^	; <UNPREDICTABLE>
    5534:	c7090000 	strgt	r0, [r9, -r0]
    5538:	02000000 	andeq	r0, r0, #0
    553c:	04741e00 	ldrbteq	r1, [r4], #-3584	; 0xfffff200
    5540:	fd050000 	stc2	0, cr0, [r5, #-0]
    5544:	00042402 	andeq	r2, r4, r2, lsl #8
    5548:	046d1e00 	strbteq	r1, [sp], #-3584	; 0xfffff200
    554c:	fe050000 	cdp2	0, 0, cr0, cr5, cr0, {0}
    5550:	00042a02 	andeq	r2, r4, r2, lsl #20
    5554:	00251400 	eoreq	r1, r5, r0, lsl #8
    5558:	088d0000 	stmeq	sp, {}	; <UNPREDICTABLE>
    555c:	25150000 	ldrcs	r0, [r5, #-0]
    5560:	00000000 	andeq	r0, r0, r0
    5564:	0001e21f 	andeq	lr, r1, pc, lsl r2
    5568:	981d0600 	ldmdals	sp, {r9, sl}
    556c:	0d000008 	stceq	0, cr0, [r0, #-32]	; 0xffffffe0
    5570:	00087e04 	andeq	r7, r8, r4, lsl #28
    5574:	00251400 	eoreq	r1, r5, r0, lsl #8
    5578:	08ad0000 	stmiaeq	sp!, {}	; <UNPREDICTABLE>
    557c:	85150000 	ldrhi	r0, [r5, #-0]
    5580:	00000005 	andeq	r0, r0, r5
    5584:	00076e1f 	andeq	r6, r7, pc, lsl lr
    5588:	b8220600 	stmdalt	r2!, {r9, sl}
    558c:	0d000008 	stceq	0, cr0, [r0, #-32]	; 0xffffffe0
    5590:	00089e04 	andeq	r9, r8, r4, lsl #28
    5594:	088d2000 	stmeq	sp, {sp}
    5598:	06010000 	streq	r0, [r1], -r0
    559c:	965c0305 	ldrbls	r0, [ip], -r5, lsl #6
    55a0:	7f210000 	svcvc	0x00210000
    55a4:	01000007 	tsteq	r0, r7
    55a8:	00903c0b 	addseq	r3, r0, fp, lsl #24
    55ac:	00001000 	andeq	r1, r0, r0
    55b0:	ed9c0100 	ldfs	f0, [ip]
    55b4:	22000008 	andcs	r0, r0, #8
    55b8:	01007066 	tsteq	r0, r6, rrx
    55bc:	0008980b 	andeq	r9, r8, fp, lsl #16
    55c0:	00500100 	subseq	r0, r0, r0, lsl #2
    55c4:	0001fa23 	andeq	pc, r1, r3, lsr #20
    55c8:	24080100 	strcs	r0, [r8], #-256	; 0xffffff00
    55cc:	18000090 	stmdane	r0, {r4, r7}
    55d0:	01000000 	mrseq	r0, (UNDEF: 0)
    55d4:	0796249c 			; <UNDEFINED> instruction: 0x0796249c
    55d8:	03010000 	movweq	r0, #4096	; 0x1000
    55dc:	00000025 	andeq	r0, r0, r5, lsr #32
    55e0:	00009010 	andeq	r9, r0, r0, lsl r0
    55e4:	00000014 	andeq	r0, r0, r4, lsl r0
    55e8:	09359c01 	ldmdbeq	r5!, {r0, sl, fp, ip, pc}
    55ec:	63250000 			; <UNDEFINED> instruction: 0x63250000
    55f0:	25030100 	strcs	r0, [r3, #-256]	; 0xffffff00
    55f4:	64000000 	strvs	r0, [r0], #-0
    55f8:	2600000f 	strcs	r0, [r0], -pc
    55fc:	0000901c 	andeq	r9, r0, ip, lsl r0
    5600:	00000935 	andeq	r0, r0, r5, lsr r9
    5604:	02500127 	subseq	r0, r0, #-1073741815	; 0xc0000009
    5608:	00000074 	andeq	r0, r0, r4, ror r0
    560c:	00078c28 	andeq	r8, r7, r8, lsr #24
    5610:	00078c00 	andeq	r8, r7, r0, lsl #24
    5614:	003c0600 	eorseq	r0, ip, r0, lsl #12
    5618:	000008d8 	ldrdeq	r0, [r0], -r8
    561c:	0fc70004 	svceq	0x00c70004
    5620:	01040000 	mrseq	r0, (UNDEF: 4)
    5624:	000003db 	ldrdeq	r0, [r0], -fp
    5628:	0007bd0c 	andeq	fp, r7, ip, lsl #26
    562c:	0006e300 	andeq	lr, r6, r0, lsl #6
    5630:	00904c00 	addseq	r4, r0, r0, lsl #24
    5634:	00002000 	andeq	r2, r0, r0
    5638:	00093600 	andeq	r3, r9, r0, lsl #12
    563c:	05040200 	streq	r0, [r4, #-512]	; 0xfffffe00
    5640:	00746e69 	rsbseq	r6, r4, r9, ror #28
    5644:	0007b603 	andeq	fp, r7, r3, lsl #12
    5648:	37d80200 	ldrbcc	r0, [r8, r0, lsl #4]
    564c:	04000000 	streq	r0, [r0], #-0
    5650:	00740704 	rsbseq	r0, r4, r4, lsl #14
    5654:	01040000 	mrseq	r0, (UNDEF: 4)
    5658:	0002ff06 	andeq	pc, r2, r6, lsl #30
    565c:	08010400 	stmdaeq	r1, {sl}
    5660:	000002fd 	strdeq	r0, [r0], -sp
    5664:	19050204 	stmdbne	r5, {r2, r9}
    5668:	04000003 	streq	r0, [r0], #-3
    566c:	02330702 	eorseq	r0, r3, #524288	; 0x80000
    5670:	04040000 	streq	r0, [r4], #-0
    5674:	0000bd05 	andeq	fp, r0, r5, lsl #26
    5678:	07040400 	streq	r0, [r4, -r0, lsl #8]
    567c:	0000006f 	andeq	r0, r0, pc, rrx
    5680:	b8050804 	stmdalt	r5, {r2, fp}
    5684:	04000000 	streq	r0, [r0], #-0
    5688:	006a0708 	rsbeq	r0, sl, r8, lsl #14
    568c:	eb030000 	bl	c5694 <__bss_end__+0xbb654>
    5690:	03000002 	movweq	r0, #2
    5694:	00002507 	andeq	r2, r0, r7, lsl #10
    5698:	02da0300 	sbcseq	r0, sl, #0, 6
    569c:	2c040000 	stccs	0, cr0, [r4], {-0}
    56a0:	0000005a 	andeq	r0, r0, sl, asr r0
    56a4:	0003c403 	andeq	ip, r3, r3, lsl #8
    56a8:	5a720400 	bpl	1c866b0 <__bss_end__+0x1c7c670>
    56ac:	05000000 	streq	r0, [r0, #-0]
    56b0:	00000276 	andeq	r0, r0, r6, ror r2
    56b4:	37016502 	strcc	r6, [r1, -r2, lsl #10]
    56b8:	06000000 	streq	r0, [r0], -r0
    56bc:	c2a60404 	adcgt	r0, r6, #4, 8	; 0x4000000
    56c0:	07000000 	streq	r0, [r0, -r0]
    56c4:	00000270 	andeq	r0, r0, r0, ror r2
    56c8:	0097a804 	addseq	sl, r7, r4, lsl #16
    56cc:	f3070000 	vhadd.u8	d0, d7, d0
    56d0:	04000001 	streq	r0, [r0], #-1
    56d4:	0000c2a9 	andeq	ip, r0, r9, lsr #5
    56d8:	45080000 	strmi	r0, [r8, #-0]
    56dc:	d2000000 	andle	r0, r0, #0
    56e0:	09000000 	stmdbeq	r0, {}	; <UNPREDICTABLE>
    56e4:	000000d2 	ldrdeq	r0, [r0], -r2
    56e8:	04040003 	streq	r0, [r4], #-3
    56ec:	0002ae07 	andeq	sl, r2, r7, lsl #28
    56f0:	04080a00 	streq	r0, [r8], #-2560	; 0xfffff600
    56f4:	0000faa3 	andeq	pc, r0, r3, lsr #21
    56f8:	03ae0b00 			; <UNDEFINED> instruction: 0x03ae0b00
    56fc:	a5040000 	strge	r0, [r4, #-0]
    5700:	00000025 	andeq	r0, r0, r5, lsr #32
    5704:	03b60b00 			; <UNDEFINED> instruction: 0x03b60b00
    5708:	aa040000 	bge	105710 <__bss_end__+0xfb6d0>
    570c:	000000a3 	andeq	r0, r0, r3, lsr #1
    5710:	41030004 	tstmi	r3, r4
    5714:	04000003 	streq	r0, [r0], #-3
    5718:	0000d9ab 	andeq	sp, r0, fp, lsr #19
    571c:	01b00300 	lslseq	r0, r0, #6
    5720:	af040000 	svcge	0x00040000
    5724:	00000076 	andeq	r0, r0, r6, ror r0
    5728:	040d040c 	streq	r0, [sp], #-1036	; 0xfffffbf4
    572c:	00000118 	andeq	r0, r0, r8, lsl r1
    5730:	06080104 	streq	r0, [r8], -r4, lsl #2
    5734:	0e000003 	cdpeq	0, 0, cr0, cr0, cr3, {0}
    5738:	00000118 	andeq	r0, r0, r8, lsl r1
    573c:	00045803 	andeq	r5, r4, r3, lsl #16
    5740:	61160500 	tstvs	r6, r0, lsl #10
    5744:	0f000000 	svceq	0x00000000
    5748:	000001c1 	andeq	r0, r0, r1, asr #3
    574c:	822d0518 	eorhi	r0, sp, #24, 10	; 0x6000000
    5750:	0b000001 	bleq	575c <_start-0x28a4>
    5754:	00000362 	andeq	r0, r0, r2, ror #6
    5758:	01822f05 	orreq	r2, r2, r5, lsl #30
    575c:	10000000 	andne	r0, r0, r0
    5760:	05006b5f 	streq	r6, [r0, #-2911]	; 0xfffff4a1
    5764:	00002530 	andeq	r2, r0, r0, lsr r5
    5768:	990b0400 	stmdbls	fp, {sl}
    576c:	05000003 	streq	r0, [r0, #-3]
    5770:	00002530 	andeq	r2, r0, r0, lsr r5
    5774:	aa0b0800 	bge	2c777c <__bss_end__+0x2bd73c>
    5778:	05000001 	streq	r0, [r0, #-1]
    577c:	00002530 	andeq	r2, r0, r0, lsr r5
    5780:	a60b0c00 	strge	r0, [fp], -r0, lsl #24
    5784:	05000004 	streq	r0, [r0, #-4]
    5788:	00002530 	andeq	r2, r0, r0, lsr r5
    578c:	5f101000 	svcpl	0x00101000
    5790:	31050078 	tstcc	r5, r8, ror r0
    5794:	00000188 	andeq	r0, r0, r8, lsl #3
    5798:	040d0014 	streq	r0, [sp], #-20	; 0xffffffec
    579c:	0000012f 	andeq	r0, r0, pc, lsr #2
    57a0:	00012408 	andeq	r2, r1, r8, lsl #8
    57a4:	00019800 	andeq	r9, r1, r0, lsl #16
    57a8:	00d20900 	sbcseq	r0, r2, r0, lsl #18
    57ac:	00000000 	andeq	r0, r0, r0
    57b0:	0001ee0f 	andeq	lr, r1, pc, lsl #28
    57b4:	35052400 	strcc	r2, [r5, #-1024]	; 0xfffffc00
    57b8:	00000211 	andeq	r0, r0, r1, lsl r2
    57bc:	0000af0b 	andeq	sl, r0, fp, lsl #30
    57c0:	25370500 	ldrcs	r0, [r7, #-1280]!	; 0xfffffb00
    57c4:	00000000 	andeq	r0, r0, r0
    57c8:	0003cc0b 	andeq	ip, r3, fp, lsl #24
    57cc:	25380500 	ldrcs	r0, [r8, #-1280]!	; 0xfffffb00
    57d0:	04000000 	streq	r0, [r0], #-0
    57d4:	0000d20b 	andeq	sp, r0, fp, lsl #4
    57d8:	25390500 	ldrcs	r0, [r9, #-1280]!	; 0xfffffb00
    57dc:	08000000 	stmdaeq	r0, {}	; <UNPREDICTABLE>
    57e0:	0005270b 	andeq	r2, r5, fp, lsl #14
    57e4:	253a0500 	ldrcs	r0, [sl, #-1280]!	; 0xfffffb00
    57e8:	0c000000 	stceq	0, cr0, [r0], {-0}
    57ec:	0002be0b 	andeq	fp, r2, fp, lsl #28
    57f0:	253b0500 	ldrcs	r0, [fp, #-1280]!	; 0xfffffb00
    57f4:	10000000 	andne	r0, r0, r0
    57f8:	0002970b 	andeq	r9, r2, fp, lsl #14
    57fc:	253c0500 	ldrcs	r0, [ip, #-1280]!	; 0xfffffb00
    5800:	14000000 	strne	r0, [r0], #-0
    5804:	0004ab0b 	andeq	sl, r4, fp, lsl #22
    5808:	253d0500 	ldrcs	r0, [sp, #-1280]!	; 0xfffffb00
    580c:	18000000 	stmdane	r0, {}	; <UNPREDICTABLE>
    5810:	0003230b 	andeq	r2, r3, fp, lsl #6
    5814:	253e0500 	ldrcs	r0, [lr, #-1280]!	; 0xfffffb00
    5818:	1c000000 	stcne	0, cr0, [r0], {-0}
    581c:	0004ee0b 	andeq	lr, r4, fp, lsl #28
    5820:	253f0500 	ldrcs	r0, [pc, #-1280]!	; 5328 <_start-0x2cd8>
    5824:	20000000 	andcs	r0, r0, r0
    5828:	01121100 	tsteq	r2, r0, lsl #2
    582c:	01080000 	mrseq	r0, (UNDEF: 8)
    5830:	02514805 	subseq	r4, r1, #327680	; 0x50000
    5834:	9d0b0000 	stcls	0, cr0, [fp, #-0]
    5838:	05000001 	streq	r0, [r0, #-1]
    583c:	00025149 	andeq	r5, r2, r9, asr #2
    5840:	000b0000 	andeq	r0, fp, r0
    5844:	05000000 	streq	r0, [r0, #-0]
    5848:	0002514a 	andeq	r5, r2, sl, asr #2
    584c:	4a128000 	bmi	4a5854 <__bss_end__+0x49b814>
    5850:	05000004 	streq	r0, [r0, #-4]
    5854:	0001244c 	andeq	r2, r1, ip, asr #8
    5858:	12010000 	andne	r0, r1, #0
    585c:	00000137 	andeq	r0, r0, r7, lsr r1
    5860:	01244f05 			; <UNDEFINED> instruction: 0x01244f05
    5864:	01040000 	mrseq	r0, (UNDEF: 4)
    5868:	01100800 	tsteq	r0, r0, lsl #16
    586c:	02610000 	rsbeq	r0, r1, #0
    5870:	d2090000 	andle	r0, r9, #0
    5874:	1f000000 	svcne	0x00000000
    5878:	02c71100 	sbceq	r1, r7, #0, 2
    587c:	01900000 	orrseq	r0, r0, r0
    5880:	029f5b05 	addseq	r5, pc, #5120	; 0x1400
    5884:	620b0000 	andvs	r0, fp, #0
    5888:	05000003 	streq	r0, [r0, #-3]
    588c:	00029f5c 	andeq	r9, r2, ip, asr pc
    5890:	7a0b0000 	bvc	2c5898 <__bss_end__+0x2bb858>
    5894:	05000003 	streq	r0, [r0, #-3]
    5898:	0000255d 	andeq	r2, r0, sp, asr r5
    589c:	a50b0400 	strge	r0, [fp, #-1024]	; 0xfffffc00
    58a0:	05000001 	streq	r0, [r0, #-1]
    58a4:	0002a55f 	andeq	sl, r2, pc, asr r5
    58a8:	120b0800 	andne	r0, fp, #0, 16
    58ac:	05000001 	streq	r0, [r0, #-1]
    58b0:	00021160 	andeq	r1, r2, r0, ror #2
    58b4:	0d008800 	stceq	8, cr8, [r0, #-0]
    58b8:	00026104 	andeq	r6, r2, r4, lsl #2
    58bc:	02b50800 	adcseq	r0, r5, #0, 16
    58c0:	02b50000 	adcseq	r0, r5, #0
    58c4:	d2090000 	andle	r0, r9, #0
    58c8:	1f000000 	svcne	0x00000000
    58cc:	bb040d00 	bllt	108cd4 <__bss_end__+0xfec94>
    58d0:	13000002 	movwne	r0, #2
    58d4:	00032d0f 	andeq	r2, r3, pc, lsl #26
    58d8:	73050800 	movwvc	r0, #22528	; 0x5800
    58dc:	000002e1 	andeq	r0, r0, r1, ror #5
    58e0:	0000cc0b 	andeq	ip, r0, fp, lsl #24
    58e4:	e1740500 	cmn	r4, r0, lsl #10
    58e8:	00000002 	andeq	r0, r0, r2
    58ec:	00001b0b 	andeq	r1, r0, fp, lsl #22
    58f0:	25750500 	ldrbcs	r0, [r5, #-1280]!	; 0xfffffb00
    58f4:	04000000 	streq	r0, [r0], #-0
    58f8:	45040d00 	strmi	r0, [r4, #-3328]	; 0xfffff300
    58fc:	0f000000 	svceq	0x00000000
    5900:	0000034c 	andeq	r0, r0, ip, asr #6
    5904:	11b30568 			; <UNDEFINED> instruction: 0x11b30568
    5908:	10000004 	andne	r0, r0, r4
    590c:	0500705f 	streq	r7, [r0, #-95]	; 0xffffffa1
    5910:	0002e1b4 			; <UNDEFINED> instruction: 0x0002e1b4
    5914:	5f100000 	svcpl	0x00100000
    5918:	b5050072 	strlt	r0, [r5, #-114]	; 0xffffff8e
    591c:	00000025 	andeq	r0, r0, r5, lsr #32
    5920:	775f1004 	ldrbvc	r1, [pc, -r4]
    5924:	25b60500 	ldrcs	r0, [r6, #1280]!	; 0x500
    5928:	08000000 	stmdaeq	r0, {}	; <UNPREDICTABLE>
    592c:	0001300b 	andeq	r3, r1, fp
    5930:	4cb70500 	cfldr32mi	mvfx0, [r7]
    5934:	0c000000 	stceq	0, cr0, [r0], {-0}
    5938:	0002190b 	andeq	r1, r2, fp, lsl #18
    593c:	4cb80500 	cfldr32mi	mvfx0, [r8]
    5940:	0e000000 	cdpeq	0, 0, cr0, cr0, cr0, {0}
    5944:	66625f10 	uqadd16vs	r5, r2, r0
    5948:	bcb90500 	cfldr32lt	mvfx0, [r9]
    594c:	10000002 	andne	r0, r0, r2
    5950:	0000890b 	andeq	r8, r0, fp, lsl #18
    5954:	25ba0500 	ldrcs	r0, [sl, #1280]!	; 0x500
    5958:	18000000 	stmdane	r0, {}	; <UNPREDICTABLE>
    595c:	0001200b 	andeq	r2, r1, fp
    5960:	10c10500 	sbcne	r0, r1, r0, lsl #10
    5964:	1c000001 	stcne	0, cr0, [r0], {1}
    5968:	000a7d0b 	andeq	r7, sl, fp, lsl #26
    596c:	6cc30500 	cfstr64vs	mvdx0, [r3], {0}
    5970:	20000005 	andcs	r0, r0, r5
    5974:	0006110b 	andeq	r1, r6, fp, lsl #2
    5978:	96c50500 	strbls	r0, [r5], r0, lsl #10
    597c:	24000005 	strcs	r0, [r0], #-5
    5980:	0003be0b 	andeq	fp, r3, fp, lsl #28
    5984:	bac80500 	blt	ff206d8c <__bss_end__+0xff1fcd4c>
    5988:	28000005 	stmdacs	r0, {r0, r2}
    598c:	0005080b 	andeq	r0, r5, fp, lsl #16
    5990:	d4c90500 	strble	r0, [r9], #1280	; 0x500
    5994:	2c000005 	stccs	0, cr0, [r0], {5}
    5998:	62755f10 	rsbsvs	r5, r5, #16, 30	; 0x40
    599c:	bccc0500 	cfstr64lt	mvdx0, [ip], {0}
    59a0:	30000002 	andcc	r0, r0, r2
    59a4:	70755f10 	rsbsvc	r5, r5, r0, lsl pc
    59a8:	e1cd0500 	bic	r0, sp, r0, lsl #10
    59ac:	38000002 	stmdacc	r0, {r1}
    59b0:	72755f10 	rsbsvc	r5, r5, #16, 30	; 0x40
    59b4:	25ce0500 	strbcs	r0, [lr, #1280]	; 0x500
    59b8:	3c000000 	stccc	0, cr0, [r0], {-0}
    59bc:	0000c60b 	andeq	ip, r0, fp, lsl #12
    59c0:	dad10500 	ble	ff446dc8 <__bss_end__+0xff43cd88>
    59c4:	40000005 	andmi	r0, r0, r5
    59c8:	0004e00b 	andeq	lr, r4, fp
    59cc:	ead20500 	b	ff486dd4 <__bss_end__+0xff47cd94>
    59d0:	43000005 	movwmi	r0, #5
    59d4:	626c5f10 	rsbvs	r5, ip, #16, 30	; 0x40
    59d8:	bcd50500 	cfldr64lt	mvdx0, [r5], {0}
    59dc:	44000002 	strmi	r0, [r0], #-2
    59e0:	00014e0b 	andeq	r4, r1, fp, lsl #28
    59e4:	25d80500 	ldrbcs	r0, [r8, #1280]	; 0x500
    59e8:	4c000000 	stcmi	0, cr0, [r0], {-0}
    59ec:	00015f0b 	andeq	r5, r1, fp, lsl #30
    59f0:	81d90500 	bicshi	r0, r9, r0, lsl #10
    59f4:	50000000 	andpl	r0, r0, r0
    59f8:	000a1e0b 	andeq	r1, sl, fp, lsl #28
    59fc:	2fdc0500 	svccs	0x00dc0500
    5a00:	54000004 	strpl	r0, [r0], #-4
    5a04:	0002840b 	andeq	r8, r2, fp, lsl #8
    5a08:	05e00500 	strbeq	r0, [r0, #1280]!	; 0x500
    5a0c:	58000001 	stmdapl	r0, {r0}
    5a10:	0003540b 	andeq	r5, r3, fp, lsl #8
    5a14:	fae20500 	blx	ff886e1c <__bss_end__+0xff87cddc>
    5a18:	5c000000 	stcpl	0, cr0, [r0], {-0}
    5a1c:	00028f0b 	andeq	r8, r2, fp, lsl #30
    5a20:	25e30500 	strbcs	r0, [r3, #1280]!	; 0x500
    5a24:	64000000 	strvs	r0, [r0], #-0
    5a28:	00251400 	eoreq	r1, r5, r0, lsl #8
    5a2c:	042f0000 	strteq	r0, [pc], #-0	; 5a34 <_start-0x25cc>
    5a30:	2f150000 	svccs	0x00150000
    5a34:	15000004 	strne	r0, [r0, #-4]
    5a38:	00000110 	andeq	r0, r0, r0, lsl r1
    5a3c:	00011215 	andeq	r1, r1, r5, lsl r2
    5a40:	00251500 	eoreq	r1, r5, r0, lsl #10
    5a44:	0d000000 	stceq	0, cr0, [r0, #-0]
    5a48:	00043a04 	andeq	r3, r4, r4, lsl #20
    5a4c:	042f0e00 	strteq	r0, [pc], #-3584	; 5a54 <_start-0x25ac>
    5a50:	a1160000 	tstge	r6, r0
    5a54:	28000003 	stmdacs	r0, {r0, r1}
    5a58:	02380504 	eorseq	r0, r8, #4, 10	; 0x1000000
    5a5c:	0000056c 	andeq	r0, r0, ip, ror #10
    5a60:	00031217 	andeq	r1, r3, r7, lsl r2
    5a64:	023a0500 	eorseq	r0, sl, #0, 10
    5a68:	00000025 	andeq	r0, r0, r5, lsr #32
    5a6c:	013f1700 	teqeq	pc, r0, lsl #14
    5a70:	3f050000 	svccc	0x00050000
    5a74:	00064102 	andeq	r4, r6, r2, lsl #2
    5a78:	09170400 	ldmdbeq	r7, {sl}
    5a7c:	05000002 	streq	r0, [r0, #-2]
    5a80:	0641023f 			; <UNDEFINED> instruction: 0x0641023f
    5a84:	17080000 	strne	r0, [r8, -r0]
    5a88:	000001b9 			; <UNDEFINED> instruction: 0x000001b9
    5a8c:	41023f05 	tstmi	r2, r5, lsl #30
    5a90:	0c000006 	stceq	0, cr0, [r0], {6}
    5a94:	00037517 	andeq	r7, r3, r7, lsl r5
    5a98:	02410500 	subeq	r0, r1, #0, 10
    5a9c:	00000025 	andeq	r0, r0, r5, lsr #32
    5aa0:	00371710 	eorseq	r1, r7, r0, lsl r7
    5aa4:	42050000 	andmi	r0, r5, #0
    5aa8:	00082302 	andeq	r2, r8, r2, lsl #6
    5aac:	80171400 	andshi	r1, r7, r0, lsl #8
    5ab0:	05000004 	streq	r0, [r0, #-4]
    5ab4:	00250244 	eoreq	r0, r5, r4, asr #4
    5ab8:	17300000 	ldrne	r0, [r0, -r0]!
    5abc:	0000037f 	andeq	r0, r0, pc, ror r3
    5ac0:	90024505 	andls	r4, r2, r5, lsl #10
    5ac4:	34000005 	strcc	r0, [r0], #-5
    5ac8:	0002cf17 	andeq	ip, r2, r7, lsl pc
    5acc:	02470500 	subeq	r0, r7, #0, 10
    5ad0:	00000025 	andeq	r0, r0, r5, lsr #32
    5ad4:	038f1738 	orreq	r1, pc, #56, 14	; 0xe00000
    5ad8:	49050000 	stmdbmi	r5, {}	; <UNPREDICTABLE>
    5adc:	00083e02 	andeq	r3, r8, r2, lsl #28
    5ae0:	68173c00 	ldmdavs	r7, {sl, fp, ip, sp}
    5ae4:	05000002 	streq	r0, [r0, #-2]
    5ae8:	0182024c 	orreq	r0, r2, ip, asr #4
    5aec:	17400000 	strbne	r0, [r0, -r0]
    5af0:	000001d8 	ldrdeq	r0, [r0], -r8
    5af4:	25024d05 	strcs	r4, [r2, #-3333]	; 0xfffff2fb
    5af8:	44000000 	strmi	r0, [r0], #-0
    5afc:	00052217 	andeq	r2, r5, r7, lsl r2
    5b00:	024e0500 	subeq	r0, lr, #0, 10
    5b04:	00000182 	andeq	r0, r0, r2, lsl #3
    5b08:	02e11748 	rsceq	r1, r1, #72, 14	; 0x1200000
    5b0c:	4f050000 	svcmi	0x00050000
    5b10:	00084402 	andeq	r4, r8, r2, lsl #8
    5b14:	11174c00 	tstne	r7, r0, lsl #24
    5b18:	05000002 	streq	r0, [r0, #-2]
    5b1c:	00250252 	eoreq	r0, r5, r2, asr r2
    5b20:	17500000 	ldrbne	r0, [r0, -r0]
    5b24:	00000157 	andeq	r0, r0, r7, asr r1
    5b28:	12025305 	andne	r5, r2, #335544320	; 0x14000000
    5b2c:	54000001 	strpl	r0, [r0], #-1
    5b30:	00030b17 	andeq	r0, r3, r7, lsl fp
    5b34:	02760500 	rsbseq	r0, r6, #0, 10
    5b38:	00000801 	andeq	r0, r0, r1, lsl #16
    5b3c:	02c71858 	sbceq	r1, r7, #88, 16	; 0x580000
    5b40:	7a050000 	bvc	145b48 <__bss_end__+0x13bb08>
    5b44:	00029f02 	andeq	r9, r2, r2, lsl #30
    5b48:	18014800 	stmdane	r1, {fp, lr}
    5b4c:	00000246 	andeq	r0, r0, r6, asr #4
    5b50:	61027b05 	tstvs	r2, r5, lsl #22
    5b54:	4c000002 	stcmi	0, cr0, [r0], {2}
    5b58:	04ce1801 	strbeq	r1, [lr], #2049	; 0x801
    5b5c:	7f050000 	svcvc	0x00050000
    5b60:	00085502 	andeq	r5, r8, r2, lsl #10
    5b64:	1802dc00 	stmdane	r2, {sl, fp, ip, lr, pc}
    5b68:	00000128 	andeq	r0, r0, r8, lsr #2
    5b6c:	06028405 	streq	r8, [r2], -r5, lsl #8
    5b70:	e0000006 	and	r0, r0, r6
    5b74:	010d1802 	tsteq	sp, r2, lsl #16
    5b78:	85050000 	strhi	r0, [r5, #-0]
    5b7c:	00086102 	andeq	r6, r8, r2, lsl #2
    5b80:	0002ec00 	andeq	lr, r2, r0, lsl #24
    5b84:	0411040d 	ldreq	r0, [r1], #-1037	; 0xfffffbf3
    5b88:	25140000 	ldrcs	r0, [r4, #-0]
    5b8c:	90000000 	andls	r0, r0, r0
    5b90:	15000005 	strne	r0, [r0, #-5]
    5b94:	0000042f 	andeq	r0, r0, pc, lsr #8
    5b98:	00011015 	andeq	r1, r1, r5, lsl r0
    5b9c:	05901500 	ldreq	r1, [r0, #1280]	; 0x500
    5ba0:	25150000 	ldrcs	r0, [r5, #-0]
    5ba4:	00000000 	andeq	r0, r0, r0
    5ba8:	011f040d 	tsteq	pc, sp, lsl #8
    5bac:	040d0000 	streq	r0, [sp], #-0
    5bb0:	00000572 	andeq	r0, r0, r2, ror r5
    5bb4:	00008c14 	andeq	r8, r0, r4, lsl ip
    5bb8:	0005ba00 	andeq	fp, r5, r0, lsl #20
    5bbc:	042f1500 	strteq	r1, [pc], #-1280	; 5bc4 <_start-0x243c>
    5bc0:	10150000 	andsne	r0, r5, r0
    5bc4:	15000001 	strne	r0, [r0, #-1]
    5bc8:	0000008c 	andeq	r0, r0, ip, lsl #1
    5bcc:	00002515 	andeq	r2, r0, r5, lsl r5
    5bd0:	040d0000 	streq	r0, [sp], #-0
    5bd4:	0000059c 	muleq	r0, ip, r5
    5bd8:	00002514 	andeq	r2, r0, r4, lsl r5
    5bdc:	0005d400 	andeq	sp, r5, r0, lsl #8
    5be0:	042f1500 	strteq	r1, [pc], #-1280	; 5be8 <_start-0x2418>
    5be4:	10150000 	andsne	r0, r5, r0
    5be8:	00000001 	andeq	r0, r0, r1
    5bec:	05c0040d 	strbeq	r0, [r0, #1037]	; 0x40d
    5bf0:	45080000 	strmi	r0, [r8, #-0]
    5bf4:	ea000000 	b	5bfc <_start-0x2404>
    5bf8:	09000005 	stmdbeq	r0, {r0, r2}
    5bfc:	000000d2 	ldrdeq	r0, [r0], -r2
    5c00:	45080002 	strmi	r0, [r8, #-2]
    5c04:	fa000000 	blx	5c0c <_start-0x23f4>
    5c08:	09000005 	stmdbeq	r0, {r0, r2}
    5c0c:	000000d2 	ldrdeq	r0, [r0], -r2
    5c10:	3a050000 	bcc	145c18 <__bss_end__+0x13bbd8>
    5c14:	05000003 	streq	r0, [r0, #-3]
    5c18:	02e7011d 	rsceq	r0, r7, #1073741831	; 0x40000007
    5c1c:	b5190000 	ldrlt	r0, [r9, #-0]
    5c20:	0c000004 	stceq	0, cr0, [r0], {4}
    5c24:	3b012105 	blcc	4e040 <__bss_end__+0x44000>
    5c28:	17000006 	strne	r0, [r0, -r6]
    5c2c:	00000362 	andeq	r0, r0, r2, ror #6
    5c30:	3b012305 	blcc	4e84c <__bss_end__+0x4480c>
    5c34:	00000006 	andeq	r0, r0, r6
    5c38:	00022c17 	andeq	r2, r2, r7, lsl ip
    5c3c:	01240500 			; <UNDEFINED> instruction: 0x01240500
    5c40:	00000025 	andeq	r0, r0, r5, lsr #32
    5c44:	03341704 	teqeq	r4, #4, 14	; 0x100000
    5c48:	25050000 	strcs	r0, [r5, #-0]
    5c4c:	00064101 	andeq	r4, r6, r1, lsl #2
    5c50:	0d000800 	stceq	8, cr0, [r0, #-0]
    5c54:	00060604 	andeq	r0, r6, r4, lsl #12
    5c58:	fa040d00 	blx	109060 <__bss_end__+0xff020>
    5c5c:	19000005 	stmdbne	r0, {r0, r2}
    5c60:	0000002f 	andeq	r0, r0, pc, lsr #32
    5c64:	013d050e 	teqeq	sp, lr, lsl #10
    5c68:	0000067c 	andeq	r0, r0, ip, ror r6
    5c6c:	0003a817 	andeq	sl, r3, r7, lsl r8
    5c70:	013e0500 	teqeq	lr, r0, lsl #10
    5c74:	0000067c 	andeq	r0, r0, ip, ror r6
    5c78:	03d51700 	bicseq	r1, r5, #0, 14
    5c7c:	3f050000 	svccc	0x00050000
    5c80:	00067c01 	andeq	r7, r6, r1, lsl #24
    5c84:	53170600 	tstpl	r7, #0, 12
    5c88:	05000004 	streq	r0, [r0, #-4]
    5c8c:	00530140 	subseq	r0, r3, r0, asr #2
    5c90:	000c0000 	andeq	r0, ip, r0
    5c94:	00005308 	andeq	r5, r0, r8, lsl #6
    5c98:	00068c00 	andeq	r8, r6, r0, lsl #24
    5c9c:	00d20900 	sbcseq	r0, r2, r0, lsl #18
    5ca0:	00020000 	andeq	r0, r2, r0
    5ca4:	5705d01a 	smladpl	r5, sl, r0, sp
    5ca8:	00078d02 	andeq	r8, r7, r2, lsl #26
    5cac:	04991700 	ldreq	r1, [r9], #1792	; 0x700
    5cb0:	59050000 	stmdbpl	r5, {}	; <UNPREDICTABLE>
    5cb4:	00003702 	andeq	r3, r0, r2, lsl #14
    5cb8:	3d170000 	ldccc	0, cr0, [r7, #-0]
    5cbc:	05000004 	streq	r0, [r0, #-4]
    5cc0:	0112025a 	tsteq	r2, sl, asr r2
    5cc4:	17040000 	strne	r0, [r4, -r0]
    5cc8:	0000025b 	andeq	r0, r0, fp, asr r2
    5ccc:	8d025b05 	vstrhi	d5, [r2, #-20]	; 0xffffffec
    5cd0:	08000007 	stmdaeq	r0, {r0, r1, r2}
    5cd4:	0004f917 	andeq	pc, r4, r7, lsl r9	; <UNPREDICTABLE>
    5cd8:	025c0500 	subseq	r0, ip, #0, 10
    5cdc:	00000198 	muleq	r0, r8, r1
    5ce0:	01c91724 	biceq	r1, r9, r4, lsr #14
    5ce4:	5d050000 	stcpl	0, cr0, [r5, #-0]
    5ce8:	00002502 	andeq	r2, r0, r2, lsl #10
    5cec:	5d174800 	ldcpl	8, cr4, [r7, #-0]
    5cf0:	05000003 	streq	r0, [r0, #-3]
    5cf4:	006f025e 	rsbeq	r0, pc, lr, asr r2	; <UNPREDICTABLE>
    5cf8:	17500000 	ldrbne	r0, [r0, -r0]
    5cfc:	0000050f 	andeq	r0, r0, pc, lsl #10
    5d00:	47025f05 	strmi	r5, [r2, -r5, lsl #30]
    5d04:	58000006 	stmdapl	r0, {r1, r2}
    5d08:	00036817 	andeq	r6, r3, r7, lsl r8
    5d0c:	02600500 	rsbeq	r0, r0, #0, 10
    5d10:	000000fa 	strdeq	r0, [r0], -sl
    5d14:	05141768 	ldreq	r1, [r4, #-1896]	; 0xfffff898
    5d18:	61050000 	mrsvs	r0, (UNDEF: 5)
    5d1c:	0000fa02 	andeq	pc, r0, r2, lsl #20
    5d20:	a1177000 	tstge	r7, r0
    5d24:	05000000 	streq	r0, [r0, #-0]
    5d28:	00fa0262 	rscseq	r0, sl, r2, ror #4
    5d2c:	17780000 	ldrbne	r0, [r8, -r0]!
    5d30:	000004c4 	andeq	r0, r0, r4, asr #9
    5d34:	9d026305 	stcls	3, cr6, [r2, #-20]	; 0xffffffec
    5d38:	80000007 	andhi	r0, r0, r7
    5d3c:	00024f17 	andeq	r4, r2, r7, lsl pc
    5d40:	02640500 	rsbeq	r0, r4, #0, 10
    5d44:	000007ad 	andeq	r0, r0, sp, lsr #15
    5d48:	04601788 	strbteq	r1, [r0], #-1928	; 0xfffff878
    5d4c:	65050000 	strvs	r0, [r5, #-0]
    5d50:	00002502 	andeq	r2, r0, r2, lsl #10
    5d54:	8f17a000 	svchi	0x0017a000
    5d58:	05000001 	streq	r0, [r0, #-1]
    5d5c:	00fa0266 	rscseq	r0, sl, r6, ror #4
    5d60:	17a40000 	strne	r0, [r4, r0]!
    5d64:	00000092 	muleq	r0, r2, r0
    5d68:	fa026705 	blx	9f984 <__bss_end__+0x95944>
    5d6c:	ac000000 	stcge	0, cr0, [r0], {-0}
    5d70:	00017e17 	andeq	r7, r1, r7, lsl lr
    5d74:	02680500 	rsbeq	r0, r8, #0, 10
    5d78:	000000fa 	strdeq	r0, [r0], -sl
    5d7c:	004a17b4 	strheq	r1, [sl], #-116	; 0xffffff8c
    5d80:	69050000 	stmdbvs	r5, {}	; <UNPREDICTABLE>
    5d84:	0000fa02 	andeq	pc, r0, r2, lsl #20
    5d88:	5917bc00 	ldmdbpl	r7, {sl, fp, ip, sp, pc}
    5d8c:	05000000 	streq	r0, [r0, #-0]
    5d90:	00fa026a 	rscseq	r0, sl, sl, ror #4
    5d94:	17c40000 	strbne	r0, [r4, r0]
    5d98:	00000310 	andeq	r0, r0, r0, lsl r3
    5d9c:	25026b05 	strcs	r6, [r2, #-2821]	; 0xfffff4fb
    5da0:	cc000000 	stcgt	0, cr0, [r0], {-0}
    5da4:	01180800 	tsteq	r8, r0, lsl #16
    5da8:	079d0000 	ldreq	r0, [sp, r0]
    5dac:	d2090000 	andle	r0, r9, #0
    5db0:	19000000 	stmdbne	r0, {}	; <UNPREDICTABLE>
    5db4:	01180800 	tsteq	r8, r0, lsl #16
    5db8:	07ad0000 	streq	r0, [sp, r0]!
    5dbc:	d2090000 	andle	r0, r9, #0
    5dc0:	07000000 	streq	r0, [r0, -r0]
    5dc4:	01180800 	tsteq	r8, r0, lsl #16
    5dc8:	07bd0000 	ldreq	r0, [sp, r0]!
    5dcc:	d2090000 	andle	r0, r9, #0
    5dd0:	17000000 	strne	r0, [r0, -r0]
    5dd4:	05f01a00 	ldrbeq	r1, [r0, #2560]!	; 0xa00
    5dd8:	07e10270 			; <UNDEFINED> instruction: 0x07e10270
    5ddc:	b7170000 	ldrlt	r0, [r7, -r0]
    5de0:	05000002 	streq	r0, [r0, #-2]
    5de4:	07e10273 			; <UNDEFINED> instruction: 0x07e10273
    5de8:	17000000 	strne	r0, [r0, -r0]
    5dec:	000004bb 			; <UNDEFINED> instruction: 0x000004bb
    5df0:	f1027405 			; <UNDEFINED> instruction: 0xf1027405
    5df4:	78000007 	stmdavc	r0, {r0, r1, r2}
    5df8:	02e10800 	rsceq	r0, r1, #0, 16
    5dfc:	07f10000 	ldrbeq	r0, [r1, r0]!
    5e00:	d2090000 	andle	r0, r9, #0
    5e04:	1d000000 	stcne	0, cr0, [r0, #-0]
    5e08:	00370800 	eorseq	r0, r7, r0, lsl #16
    5e0c:	08010000 	stmdaeq	r1, {}	; <UNPREDICTABLE>
    5e10:	d2090000 	andle	r0, r9, #0
    5e14:	1d000000 	stcne	0, cr0, [r0, #-0]
    5e18:	05f01b00 	ldrbeq	r1, [r0, #2816]!	; 0xb00
    5e1c:	08230255 	stmdaeq	r3!, {r0, r2, r4, r6, r9}
    5e20:	a11c0000 	tstge	ip, r0
    5e24:	05000003 	streq	r0, [r0, #-3]
    5e28:	068c026c 	streq	r0, [ip], ip, ror #4
    5e2c:	e61c0000 	ldr	r0, [ip], -r0
    5e30:	05000004 	streq	r0, [r0, #-4]
    5e34:	07bd0275 			; <UNDEFINED> instruction: 0x07bd0275
    5e38:	08000000 	stmdaeq	r0, {}	; <UNPREDICTABLE>
    5e3c:	00000118 	andeq	r0, r0, r8, lsl r1
    5e40:	00000833 	andeq	r0, r0, r3, lsr r8
    5e44:	0000d209 	andeq	sp, r0, r9, lsl #4
    5e48:	1d001800 	stcne	8, cr1, [r0, #-0]
    5e4c:	0000083e 	andeq	r0, r0, lr, lsr r8
    5e50:	00042f15 	andeq	r2, r4, r5, lsl pc
    5e54:	040d0000 	streq	r0, [sp], #-0
    5e58:	00000833 	andeq	r0, r0, r3, lsr r8
    5e5c:	0182040d 	orreq	r0, r2, sp, lsl #8
    5e60:	551d0000 	ldrpl	r0, [sp, #-0]
    5e64:	15000008 	strne	r0, [r0, #-8]
    5e68:	00000025 	andeq	r0, r0, r5, lsr #32
    5e6c:	5b040d00 	blpl	109274 <__bss_end__+0xff234>
    5e70:	0d000008 	stceq	0, cr0, [r0, #-32]	; 0xffffffe0
    5e74:	00084a04 	andeq	r4, r8, r4, lsl #20
    5e78:	05fa0800 	ldrbeq	r0, [sl, #2048]!	; 0x800
    5e7c:	08710000 	ldmdaeq	r1!, {}^	; <UNPREDICTABLE>
    5e80:	d2090000 	andle	r0, r9, #0
    5e84:	02000000 	andeq	r0, r0, #0
    5e88:	04741e00 	ldrbteq	r1, [r4], #-3584	; 0xfffff200
    5e8c:	fd050000 	stc2	0, cr0, [r5, #-0]
    5e90:	00042f02 	andeq	r2, r4, r2, lsl #30
    5e94:	046d1e00 	strbteq	r1, [sp], #-3584	; 0xfffff200
    5e98:	fe050000 	cdp2	0, 0, cr0, cr5, cr0, {0}
    5e9c:	00043502 	andeq	r3, r4, r2, lsl #10
    5ea0:	04921f00 	ldreq	r1, [r2], #3840	; 0xf00
    5ea4:	19060000 	stmdbne	r6, {}	; <UNPREDICTABLE>
    5ea8:	00000110 	andeq	r0, r0, r0, lsl r1
    5eac:	0000904c 	andeq	r9, r0, ip, asr #32
    5eb0:	00000020 	andeq	r0, r0, r0, lsr #32
    5eb4:	5f209c01 	svcpl	0x00209c01
    5eb8:	03010070 	movweq	r0, #4208	; 0x1070
    5ebc:	00000110 	andeq	r0, r0, r0, lsl r1
    5ec0:	63205001 			; <UNDEFINED> instruction: 0x63205001
    5ec4:	25030100 	strcs	r0, [r3, #-256]	; 0xffffff00
    5ec8:	01000000 	mrseq	r0, (UNDEF: 0)
    5ecc:	006e2151 	rsbeq	r2, lr, r1, asr r1
    5ed0:	002c0301 	eoreq	r0, ip, r1, lsl #6
    5ed4:	0f820000 	svceq	0x00820000
    5ed8:	70220000 	eorvc	r0, r2, r0
    5edc:	12040100 	andne	r0, r4, #0, 2
    5ee0:	a3000001 	movwge	r0, #1
    5ee4:	2300000f 	movwcs	r0, #15
    5ee8:	04010065 	streq	r0, [r1], #-101	; 0xffffff9b
    5eec:	00000112 	andeq	r0, r0, r2, lsl r1
    5ef0:	00005201 	andeq	r5, r0, r1, lsl #4
    5ef4:	00000936 	andeq	r0, r0, r6, lsr r9
    5ef8:	11920004 	orrsne	r0, r2, r4
    5efc:	01040000 	mrseq	r0, (UNDEF: 4)
    5f00:	000003db 	ldrdeq	r0, [r0], -fp
    5f04:	0007cb0c 	andeq	ip, r7, ip, lsl #22
    5f08:	0006e300 	andeq	lr, r6, r0, lsl #6
    5f0c:	00906c00 	addseq	r6, r0, r0, lsl #24
    5f10:	00003400 	andeq	r3, r0, r0, lsl #8
    5f14:	000a0400 	andeq	r0, sl, r0, lsl #8
    5f18:	05040200 	streq	r0, [r4, #-512]	; 0xfffffe00
    5f1c:	00746e69 	rsbseq	r6, r4, r9, ror #28
    5f20:	74070403 	strvc	r0, [r7], #-1027	; 0xfffffbfd
    5f24:	03000000 	movweq	r0, #0
    5f28:	02ff0601 	rscseq	r0, pc, #1048576	; 0x100000
    5f2c:	02030000 	andeq	r0, r3, #0
    5f30:	00031905 	andeq	r1, r3, r5, lsl #18
    5f34:	05040300 	streq	r0, [r4, #-768]	; 0xfffffd00
    5f38:	000000bd 	strheq	r0, [r0], -sp
    5f3c:	b8050803 	stmdalt	r5, {r0, r1, fp}
    5f40:	03000000 	movweq	r0, #0
    5f44:	02fd0801 	rscseq	r0, sp, #65536	; 0x10000
    5f48:	02030000 	andeq	r0, r3, #0
    5f4c:	00023307 	andeq	r3, r2, r7, lsl #6
    5f50:	07040300 	streq	r0, [r4, -r0, lsl #6]
    5f54:	0000006f 	andeq	r0, r0, pc, rrx
    5f58:	6a070803 	bvs	1c7f6c <__bss_end__+0x1bdf2c>
    5f5c:	04000000 	streq	r0, [r0], #-0
    5f60:	000002eb 	andeq	r0, r0, fp, ror #5
    5f64:	00250702 	eoreq	r0, r5, r2, lsl #14
    5f68:	da040000 	ble	105f70 <__bss_end__+0xfbf30>
    5f6c:	03000002 	movweq	r0, #2
    5f70:	0000412c 	andeq	r4, r0, ip, lsr #2
    5f74:	03c40400 	biceq	r0, r4, #0, 8
    5f78:	72030000 	andvc	r0, r3, #0
    5f7c:	00000041 	andeq	r0, r0, r1, asr #32
    5f80:	00027605 	andeq	r7, r2, r5, lsl #12
    5f84:	01650400 	cmneq	r5, r0, lsl #8
    5f88:	0000002c 	andeq	r0, r0, ip, lsr #32
    5f8c:	a6030406 	strge	r0, [r3], -r6, lsl #8
    5f90:	000000b7 	strheq	r0, [r0], -r7
    5f94:	00027007 	andeq	r7, r2, r7
    5f98:	8ca80300 	stchi	3, cr0, [r8]
    5f9c:	07000000 	streq	r0, [r0, -r0]
    5fa0:	000001f3 	strdeq	r0, [r0], -r3
    5fa4:	00b7a903 	adcseq	sl, r7, r3, lsl #18
    5fa8:	08000000 	stmdaeq	r0, {}	; <UNPREDICTABLE>
    5fac:	0000004f 	andeq	r0, r0, pc, asr #32
    5fb0:	000000c7 	andeq	r0, r0, r7, asr #1
    5fb4:	0000c709 	andeq	ip, r0, r9, lsl #14
    5fb8:	03000300 	movweq	r0, #768	; 0x300
    5fbc:	02ae0704 	adceq	r0, lr, #4, 14	; 0x100000
    5fc0:	080a0000 	stmdaeq	sl, {}	; <UNPREDICTABLE>
    5fc4:	00efa303 	rsceq	sl, pc, r3, lsl #6
    5fc8:	ae0b0000 	cdpge	0, 0, cr0, cr11, cr0, {0}
    5fcc:	03000003 	movweq	r0, #3
    5fd0:	000025a5 	andeq	r2, r0, r5, lsr #11
    5fd4:	b60b0000 	strlt	r0, [fp], -r0
    5fd8:	03000003 	movweq	r0, #3
    5fdc:	000098aa 	andeq	r9, r0, sl, lsr #17
    5fe0:	04000400 	streq	r0, [r0], #-1024	; 0xfffffc00
    5fe4:	00000341 	andeq	r0, r0, r1, asr #6
    5fe8:	00ceab03 	sbceq	sl, lr, r3, lsl #22
    5fec:	b0040000 	andlt	r0, r4, r0
    5ff0:	03000001 	movweq	r0, #1
    5ff4:	00006baf 	andeq	r6, r0, pc, lsr #23
    5ff8:	0d040c00 	stceq	12, cr0, [r4, #-0]
    5ffc:	00010d04 	andeq	r0, r1, r4, lsl #26
    6000:	08010300 	stmdaeq	r1, {r8, r9}
    6004:	00000306 	andeq	r0, r0, r6, lsl #6
    6008:	00010d0e 	andeq	r0, r1, lr, lsl #26
    600c:	04580400 	ldrbeq	r0, [r8], #-1024	; 0xfffffc00
    6010:	16050000 	strne	r0, [r5], -r0
    6014:	0000005d 	andeq	r0, r0, sp, asr r0
    6018:	0001c10f 	andeq	ip, r1, pc, lsl #2
    601c:	2d051800 	stccs	8, cr1, [r5, #-0]
    6020:	00000177 	andeq	r0, r0, r7, ror r1
    6024:	0003620b 	andeq	r6, r3, fp, lsl #4
    6028:	772f0500 	strvc	r0, [pc, -r0, lsl #10]!
    602c:	00000001 	andeq	r0, r0, r1
    6030:	006b5f10 	rsbeq	r5, fp, r0, lsl pc
    6034:	00253005 	eoreq	r3, r5, r5
    6038:	0b040000 	bleq	106040 <__bss_end__+0xfc000>
    603c:	00000399 	muleq	r0, r9, r3
    6040:	00253005 	eoreq	r3, r5, r5
    6044:	0b080000 	bleq	20604c <__bss_end__+0x1fc00c>
    6048:	000001aa 	andeq	r0, r0, sl, lsr #3
    604c:	00253005 	eoreq	r3, r5, r5
    6050:	0b0c0000 	bleq	306058 <__bss_end__+0x2fc018>
    6054:	000004a6 	andeq	r0, r0, r6, lsr #9
    6058:	00253005 	eoreq	r3, r5, r5
    605c:	10100000 	andsne	r0, r0, r0
    6060:	0500785f 	streq	r7, [r0, #-2143]	; 0xfffff7a1
    6064:	00017d31 	andeq	r7, r1, r1, lsr sp
    6068:	0d001400 	cfstrseq	mvf1, [r0, #-0]
    606c:	00012404 	andeq	r2, r1, r4, lsl #8
    6070:	01190800 	tsteq	r9, r0, lsl #16
    6074:	018d0000 	orreq	r0, sp, r0
    6078:	c7090000 	strgt	r0, [r9, -r0]
    607c:	00000000 	andeq	r0, r0, r0
    6080:	01ee0f00 	mvneq	r0, r0, lsl #30
    6084:	05240000 	streq	r0, [r4, #-0]!
    6088:	00020635 	andeq	r0, r2, r5, lsr r6
    608c:	00af0b00 	adceq	r0, pc, r0, lsl #22
    6090:	37050000 	strcc	r0, [r5, -r0]
    6094:	00000025 	andeq	r0, r0, r5, lsr #32
    6098:	03cc0b00 	biceq	r0, ip, #0, 22
    609c:	38050000 	stmdacc	r5, {}	; <UNPREDICTABLE>
    60a0:	00000025 	andeq	r0, r0, r5, lsr #32
    60a4:	00d20b04 	sbcseq	r0, r2, r4, lsl #22
    60a8:	39050000 	stmdbcc	r5, {}	; <UNPREDICTABLE>
    60ac:	00000025 	andeq	r0, r0, r5, lsr #32
    60b0:	05270b08 	streq	r0, [r7, #-2824]!	; 0xfffff4f8
    60b4:	3a050000 	bcc	1460bc <__bss_end__+0x13c07c>
    60b8:	00000025 	andeq	r0, r0, r5, lsr #32
    60bc:	02be0b0c 	adcseq	r0, lr, #12, 22	; 0x3000
    60c0:	3b050000 	blcc	1460c8 <__bss_end__+0x13c088>
    60c4:	00000025 	andeq	r0, r0, r5, lsr #32
    60c8:	02970b10 	addseq	r0, r7, #16, 22	; 0x4000
    60cc:	3c050000 	stccc	0, cr0, [r5], {-0}
    60d0:	00000025 	andeq	r0, r0, r5, lsr #32
    60d4:	04ab0b14 	strteq	r0, [fp], #2836	; 0xb14
    60d8:	3d050000 	stccc	0, cr0, [r5, #-0]
    60dc:	00000025 	andeq	r0, r0, r5, lsr #32
    60e0:	03230b18 			; <UNDEFINED> instruction: 0x03230b18
    60e4:	3e050000 	cdpcc	0, 0, cr0, cr5, cr0, {0}
    60e8:	00000025 	andeq	r0, r0, r5, lsr #32
    60ec:	04ee0b1c 	strbteq	r0, [lr], #2844	; 0xb1c
    60f0:	3f050000 	svccc	0x00050000
    60f4:	00000025 	andeq	r0, r0, r5, lsr #32
    60f8:	12110020 	andsne	r0, r1, #32
    60fc:	08000001 	stmdaeq	r0, {r0}
    6100:	46480501 	strbmi	r0, [r8], -r1, lsl #10
    6104:	0b000002 	bleq	6114 <_start-0x1eec>
    6108:	0000019d 	muleq	r0, sp, r1
    610c:	02464905 	subeq	r4, r6, #81920	; 0x14000
    6110:	0b000000 	bleq	6118 <_start-0x1ee8>
    6114:	00000000 	andeq	r0, r0, r0
    6118:	02464a05 	subeq	r4, r6, #20480	; 0x5000
    611c:	12800000 	addne	r0, r0, #0
    6120:	0000044a 	andeq	r0, r0, sl, asr #8
    6124:	01194c05 	tsteq	r9, r5, lsl #24
    6128:	01000000 	mrseq	r0, (UNDEF: 0)
    612c:	00013712 	andeq	r3, r1, r2, lsl r7
    6130:	194f0500 	stmdbne	pc, {r8, sl}^	; <UNPREDICTABLE>
    6134:	04000001 	streq	r0, [r0], #-1
    6138:	05080001 	streq	r0, [r8, #-1]
    613c:	56000001 	strpl	r0, [r0], -r1
    6140:	09000002 	stmdbeq	r0, {r1}
    6144:	000000c7 	andeq	r0, r0, r7, asr #1
    6148:	c711001f 			; <UNDEFINED> instruction: 0xc711001f
    614c:	90000002 	andls	r0, r0, r2
    6150:	945b0501 	ldrbls	r0, [fp], #-1281	; 0xfffffaff
    6154:	0b000002 	bleq	6164 <_start-0x1e9c>
    6158:	00000362 	andeq	r0, r0, r2, ror #6
    615c:	02945c05 	addseq	r5, r4, #1280	; 0x500
    6160:	0b000000 	bleq	6168 <_start-0x1e98>
    6164:	0000037a 	andeq	r0, r0, sl, ror r3
    6168:	00255d05 	eoreq	r5, r5, r5, lsl #26
    616c:	0b040000 	bleq	106174 <__bss_end__+0xfc134>
    6170:	000001a5 	andeq	r0, r0, r5, lsr #3
    6174:	029a5f05 	addseq	r5, sl, #5, 30
    6178:	0b080000 	bleq	206180 <__bss_end__+0x1fc140>
    617c:	00000112 	andeq	r0, r0, r2, lsl r1
    6180:	02066005 	andeq	r6, r6, #5
    6184:	00880000 	addeq	r0, r8, r0
    6188:	0256040d 	subseq	r0, r6, #218103808	; 0xd000000
    618c:	aa080000 	bge	206194 <__bss_end__+0x1fc154>
    6190:	aa000002 	bge	61a0 <_start-0x1e60>
    6194:	09000002 	stmdbeq	r0, {r1}
    6198:	000000c7 	andeq	r0, r0, r7, asr #1
    619c:	040d001f 	streq	r0, [sp], #-31	; 0xffffffe1
    61a0:	000002b0 			; <UNDEFINED> instruction: 0x000002b0
    61a4:	032d0f13 			; <UNDEFINED> instruction: 0x032d0f13
    61a8:	05080000 	streq	r0, [r8, #-0]
    61ac:	0002d673 	andeq	sp, r2, r3, ror r6
    61b0:	00cc0b00 	sbceq	r0, ip, r0, lsl #22
    61b4:	74050000 	strvc	r0, [r5], #-0
    61b8:	000002d6 	ldrdeq	r0, [r0], -r6
    61bc:	001b0b00 	andseq	r0, fp, r0, lsl #22
    61c0:	75050000 	strvc	r0, [r5, #-0]
    61c4:	00000025 	andeq	r0, r0, r5, lsr #32
    61c8:	040d0004 	streq	r0, [sp], #-4
    61cc:	0000004f 	andeq	r0, r0, pc, asr #32
    61d0:	00034c0f 	andeq	r4, r3, pc, lsl #24
    61d4:	b3056800 	movwlt	r6, #22528	; 0x5800
    61d8:	00000406 	andeq	r0, r0, r6, lsl #8
    61dc:	00705f10 	rsbseq	r5, r0, r0, lsl pc
    61e0:	02d6b405 	sbcseq	fp, r6, #83886080	; 0x5000000
    61e4:	10000000 	andne	r0, r0, r0
    61e8:	0500725f 	streq	r7, [r0, #-607]	; 0xfffffda1
    61ec:	000025b5 			; <UNDEFINED> instruction: 0x000025b5
    61f0:	5f100400 	svcpl	0x00100400
    61f4:	b6050077 			; <UNDEFINED> instruction: 0xb6050077
    61f8:	00000025 	andeq	r0, r0, r5, lsr #32
    61fc:	01300b08 	teqeq	r0, r8, lsl #22
    6200:	b7050000 	strlt	r0, [r5, -r0]
    6204:	0000003a 	andeq	r0, r0, sl, lsr r0
    6208:	02190b0c 	andseq	r0, r9, #12, 22	; 0x3000
    620c:	b8050000 	stmdalt	r5, {}	; <UNPREDICTABLE>
    6210:	0000003a 	andeq	r0, r0, sl, lsr r0
    6214:	625f100e 	subsvs	r1, pc, #14
    6218:	b9050066 	stmdblt	r5, {r1, r2, r5, r6}
    621c:	000002b1 			; <UNDEFINED> instruction: 0x000002b1
    6220:	00890b10 	addeq	r0, r9, r0, lsl fp
    6224:	ba050000 	blt	14622c <__bss_end__+0x13c1ec>
    6228:	00000025 	andeq	r0, r0, r5, lsr #32
    622c:	01200b18 			; <UNDEFINED> instruction: 0x01200b18
    6230:	c1050000 	mrsgt	r0, (UNDEF: 5)
    6234:	00000105 	andeq	r0, r0, r5, lsl #2
    6238:	0a7d0b1c 	beq	1f48eb0 <__bss_end__+0x1f3ee70>
    623c:	c3050000 	movwgt	r0, #20480	; 0x5000
    6240:	00000561 	andeq	r0, r0, r1, ror #10
    6244:	06110b20 	ldreq	r0, [r1], -r0, lsr #22
    6248:	c5050000 	strgt	r0, [r5, #-0]
    624c:	0000058b 	andeq	r0, r0, fp, lsl #11
    6250:	03be0b24 			; <UNDEFINED> instruction: 0x03be0b24
    6254:	c8050000 	stmdagt	r5, {}	; <UNPREDICTABLE>
    6258:	000005af 	andeq	r0, r0, pc, lsr #11
    625c:	05080b28 	streq	r0, [r8, #-2856]	; 0xfffff4d8
    6260:	c9050000 	stmdbgt	r5, {}	; <UNPREDICTABLE>
    6264:	000005c9 	andeq	r0, r0, r9, asr #11
    6268:	755f102c 	ldrbvc	r1, [pc, #-44]	; 6244 <_start-0x1dbc>
    626c:	cc050062 	stcgt	0, cr0, [r5], {98}	; 0x62
    6270:	000002b1 			; <UNDEFINED> instruction: 0x000002b1
    6274:	755f1030 	ldrbvc	r1, [pc, #-48]	; 624c <_start-0x1db4>
    6278:	cd050070 	stcgt	0, cr0, [r5, #-448]	; 0xfffffe40
    627c:	000002d6 	ldrdeq	r0, [r0], -r6
    6280:	755f1038 	ldrbvc	r1, [pc, #-56]	; 6250 <_start-0x1db0>
    6284:	ce050072 	mcrgt	0, 0, r0, cr5, cr2, {3}
    6288:	00000025 	andeq	r0, r0, r5, lsr #32
    628c:	00c60b3c 	sbceq	r0, r6, ip, lsr fp
    6290:	d1050000 	mrsle	r0, (UNDEF: 5)
    6294:	000005cf 	andeq	r0, r0, pc, asr #11
    6298:	04e00b40 	strbteq	r0, [r0], #2880	; 0xb40
    629c:	d2050000 	andle	r0, r5, #0
    62a0:	000005df 	ldrdeq	r0, [r0], -pc	; <UNPREDICTABLE>
    62a4:	6c5f1043 	mrrcvs	0, 4, r1, pc, cr3	; <UNPREDICTABLE>
    62a8:	d5050062 	strle	r0, [r5, #-98]	; 0xffffff9e
    62ac:	000002b1 			; <UNDEFINED> instruction: 0x000002b1
    62b0:	014e0b44 	cmpeq	lr, r4, asr #22
    62b4:	d8050000 	stmdale	r5, {}	; <UNPREDICTABLE>
    62b8:	00000025 	andeq	r0, r0, r5, lsr #32
    62bc:	015f0b4c 	cmpeq	pc, ip, asr #22
    62c0:	d9050000 	stmdble	r5, {}	; <UNPREDICTABLE>
    62c4:	00000076 	andeq	r0, r0, r6, ror r0
    62c8:	0a1e0b50 	beq	789010 <__bss_end__+0x77efd0>
    62cc:	dc050000 	stcle	0, cr0, [r5], {-0}
    62d0:	00000424 	andeq	r0, r0, r4, lsr #8
    62d4:	02840b54 	addeq	r0, r4, #84, 22	; 0x15000
    62d8:	e0050000 	and	r0, r5, r0
    62dc:	000000fa 	strdeq	r0, [r0], -sl
    62e0:	03540b58 	cmpeq	r4, #88, 22	; 0x16000
    62e4:	e2050000 	and	r0, r5, #0
    62e8:	000000ef 	andeq	r0, r0, pc, ror #1
    62ec:	028f0b5c 	addeq	r0, pc, #92, 22	; 0x17000
    62f0:	e3050000 	movw	r0, #20480	; 0x5000
    62f4:	00000025 	andeq	r0, r0, r5, lsr #32
    62f8:	25140064 	ldrcs	r0, [r4, #-100]	; 0xffffff9c
    62fc:	24000000 	strcs	r0, [r0], #-0
    6300:	15000004 	strne	r0, [r0, #-4]
    6304:	00000424 	andeq	r0, r0, r4, lsr #8
    6308:	00010515 	andeq	r0, r1, r5, lsl r5
    630c:	01071500 	tsteq	r7, r0, lsl #10
    6310:	25150000 	ldrcs	r0, [r5, #-0]
    6314:	00000000 	andeq	r0, r0, r0
    6318:	042f040d 	strteq	r0, [pc], #-1037	; 6320 <_start-0x1ce0>
    631c:	240e0000 	strcs	r0, [lr], #-0
    6320:	16000004 	strne	r0, [r0], -r4
    6324:	000003a1 	andeq	r0, r0, r1, lsr #7
    6328:	38050428 	stmdacc	r5, {r3, r5, sl}
    632c:	00056102 	andeq	r6, r5, r2, lsl #2
    6330:	03121700 	tsteq	r2, #0, 14
    6334:	3a050000 	bcc	14633c <__bss_end__+0x13c2fc>
    6338:	00002502 	andeq	r2, r0, r2, lsl #10
    633c:	3f170000 	svccc	0x00170000
    6340:	05000001 	streq	r0, [r0, #-1]
    6344:	0636023f 			; <UNDEFINED> instruction: 0x0636023f
    6348:	17040000 	strne	r0, [r4, -r0]
    634c:	00000209 	andeq	r0, r0, r9, lsl #4
    6350:	36023f05 	strcc	r3, [r2], -r5, lsl #30
    6354:	08000006 	stmdaeq	r0, {r1, r2}
    6358:	0001b917 	andeq	fp, r1, r7, lsl r9
    635c:	023f0500 	eorseq	r0, pc, #0, 10
    6360:	00000636 	andeq	r0, r0, r6, lsr r6
    6364:	0375170c 	cmneq	r5, #12, 14	; 0x300000
    6368:	41050000 	mrsmi	r0, (UNDEF: 5)
    636c:	00002502 	andeq	r2, r0, r2, lsl #10
    6370:	37171000 	ldrcc	r1, [r7, -r0]
    6374:	05000000 	streq	r0, [r0, #-0]
    6378:	08180242 	ldmdaeq	r8, {r1, r6, r9}
    637c:	17140000 	ldrne	r0, [r4, -r0]
    6380:	00000480 	andeq	r0, r0, r0, lsl #9
    6384:	25024405 	strcs	r4, [r2, #-1029]	; 0xfffffbfb
    6388:	30000000 	andcc	r0, r0, r0
    638c:	00037f17 	andeq	r7, r3, r7, lsl pc
    6390:	02450500 	subeq	r0, r5, #0, 10
    6394:	00000585 	andeq	r0, r0, r5, lsl #11
    6398:	02cf1734 	sbceq	r1, pc, #52, 14	; 0xd00000
    639c:	47050000 	strmi	r0, [r5, -r0]
    63a0:	00002502 	andeq	r2, r0, r2, lsl #10
    63a4:	8f173800 	svchi	0x00173800
    63a8:	05000003 	streq	r0, [r0, #-3]
    63ac:	08330249 	ldmdaeq	r3!, {r0, r3, r6, r9}
    63b0:	173c0000 	ldrne	r0, [ip, -r0]!
    63b4:	00000268 	andeq	r0, r0, r8, ror #4
    63b8:	77024c05 	strvc	r4, [r2, -r5, lsl #24]
    63bc:	40000001 	andmi	r0, r0, r1
    63c0:	0001d817 	andeq	sp, r1, r7, lsl r8
    63c4:	024d0500 	subeq	r0, sp, #0, 10
    63c8:	00000025 	andeq	r0, r0, r5, lsr #32
    63cc:	05221744 	streq	r1, [r2, #-1860]!	; 0xfffff8bc
    63d0:	4e050000 	cdpmi	0, 0, cr0, cr5, cr0, {0}
    63d4:	00017702 	andeq	r7, r1, r2, lsl #14
    63d8:	e1174800 	tst	r7, r0, lsl #16
    63dc:	05000002 	streq	r0, [r0, #-2]
    63e0:	0839024f 	ldmdaeq	r9!, {r0, r1, r2, r3, r6, r9}
    63e4:	174c0000 	strbne	r0, [ip, -r0]
    63e8:	00000211 	andeq	r0, r0, r1, lsl r2
    63ec:	25025205 	strcs	r5, [r2, #-517]	; 0xfffffdfb
    63f0:	50000000 	andpl	r0, r0, r0
    63f4:	00015717 	andeq	r5, r1, r7, lsl r7
    63f8:	02530500 	subseq	r0, r3, #0, 10
    63fc:	00000107 	andeq	r0, r0, r7, lsl #2
    6400:	030b1754 	movweq	r1, #46932	; 0xb754
    6404:	76050000 	strvc	r0, [r5], -r0
    6408:	0007f602 	andeq	pc, r7, r2, lsl #12
    640c:	c7185800 	ldrgt	r5, [r8, -r0, lsl #16]
    6410:	05000002 	streq	r0, [r0, #-2]
    6414:	0294027a 	addseq	r0, r4, #-1610612729	; 0xa0000007
    6418:	01480000 	mrseq	r0, (UNDEF: 72)
    641c:	00024618 	andeq	r4, r2, r8, lsl r6
    6420:	027b0500 	rsbseq	r0, fp, #0, 10
    6424:	00000256 	andeq	r0, r0, r6, asr r2
    6428:	ce18014c 	mufgtem	f0, f0, #4.0
    642c:	05000004 	streq	r0, [r0, #-4]
    6430:	084a027f 	stmdaeq	sl, {r0, r1, r2, r3, r4, r5, r6, r9}^
    6434:	02dc0000 	sbcseq	r0, ip, #0
    6438:	00012818 	andeq	r2, r1, r8, lsl r8
    643c:	02840500 	addeq	r0, r4, #0, 10
    6440:	000005fb 	strdeq	r0, [r0], -fp
    6444:	0d1802e0 	lfmeq	f0, 4, [r8, #-896]	; 0xfffffc80
    6448:	05000001 	streq	r0, [r0, #-1]
    644c:	08560285 	ldmdaeq	r6, {r0, r2, r7, r9}^
    6450:	02ec0000 	rsceq	r0, ip, #0
    6454:	06040d00 	streq	r0, [r4], -r0, lsl #26
    6458:	14000004 	strne	r0, [r0], #-4
    645c:	00000025 	andeq	r0, r0, r5, lsr #32
    6460:	00000585 	andeq	r0, r0, r5, lsl #11
    6464:	00042415 	andeq	r2, r4, r5, lsl r4
    6468:	01051500 	tsteq	r5, r0, lsl #10
    646c:	85150000 	ldrhi	r0, [r5, #-0]
    6470:	15000005 	strne	r0, [r0, #-5]
    6474:	00000025 	andeq	r0, r0, r5, lsr #32
    6478:	14040d00 	strne	r0, [r4], #-3328	; 0xfffff300
    647c:	0d000001 	stceq	0, cr0, [r0, #-4]
    6480:	00056704 	andeq	r6, r5, r4, lsl #14
    6484:	00811400 	addeq	r1, r1, r0, lsl #8
    6488:	05af0000 	streq	r0, [pc, #0]!	; 6490 <_start-0x1b70>
    648c:	24150000 	ldrcs	r0, [r5], #-0
    6490:	15000004 	strne	r0, [r0, #-4]
    6494:	00000105 	andeq	r0, r0, r5, lsl #2
    6498:	00008115 	andeq	r8, r0, r5, lsl r1
    649c:	00251500 	eoreq	r1, r5, r0, lsl #10
    64a0:	0d000000 	stceq	0, cr0, [r0, #-0]
    64a4:	00059104 	andeq	r9, r5, r4, lsl #2
    64a8:	00251400 	eoreq	r1, r5, r0, lsl #8
    64ac:	05c90000 	strbeq	r0, [r9]
    64b0:	24150000 	ldrcs	r0, [r5], #-0
    64b4:	15000004 	strne	r0, [r0, #-4]
    64b8:	00000105 	andeq	r0, r0, r5, lsl #2
    64bc:	b5040d00 	strlt	r0, [r4, #-3328]	; 0xfffff300
    64c0:	08000005 	stmdaeq	r0, {r0, r2}
    64c4:	0000004f 	andeq	r0, r0, pc, asr #32
    64c8:	000005df 	ldrdeq	r0, [r0], -pc	; <UNPREDICTABLE>
    64cc:	0000c709 	andeq	ip, r0, r9, lsl #14
    64d0:	08000200 	stmdaeq	r0, {r9}
    64d4:	0000004f 	andeq	r0, r0, pc, asr #32
    64d8:	000005ef 	andeq	r0, r0, pc, ror #11
    64dc:	0000c709 	andeq	ip, r0, r9, lsl #14
    64e0:	05000000 	streq	r0, [r0, #-0]
    64e4:	0000033a 	andeq	r0, r0, sl, lsr r3
    64e8:	dc011d05 	stcle	13, cr1, [r1], {5}
    64ec:	19000002 	stmdbne	r0, {r1}
    64f0:	000004b5 			; <UNDEFINED> instruction: 0x000004b5
    64f4:	0121050c 			; <UNDEFINED> instruction: 0x0121050c
    64f8:	00000630 	andeq	r0, r0, r0, lsr r6
    64fc:	00036217 	andeq	r6, r3, r7, lsl r2
    6500:	01230500 			; <UNDEFINED> instruction: 0x01230500
    6504:	00000630 	andeq	r0, r0, r0, lsr r6
    6508:	022c1700 	eoreq	r1, ip, #0, 14
    650c:	24050000 	strcs	r0, [r5], #-0
    6510:	00002501 	andeq	r2, r0, r1, lsl #10
    6514:	34170400 	ldrcc	r0, [r7], #-1024	; 0xfffffc00
    6518:	05000003 	streq	r0, [r0, #-3]
    651c:	06360125 	ldrteq	r0, [r6], -r5, lsr #2
    6520:	00080000 	andeq	r0, r8, r0
    6524:	05fb040d 	ldrbeq	r0, [fp, #1037]!	; 0x40d
    6528:	040d0000 	streq	r0, [sp], #-0
    652c:	000005ef 	andeq	r0, r0, pc, ror #11
    6530:	00002f19 	andeq	r2, r0, r9, lsl pc
    6534:	3d050e00 	stccc	14, cr0, [r5, #-0]
    6538:	00067101 	andeq	r7, r6, r1, lsl #2
    653c:	03a81700 			; <UNDEFINED> instruction: 0x03a81700
    6540:	3e050000 	cdpcc	0, 0, cr0, cr5, cr0, {0}
    6544:	00067101 	andeq	r7, r6, r1, lsl #2
    6548:	d5170000 	ldrle	r0, [r7, #-0]
    654c:	05000003 	streq	r0, [r0, #-3]
    6550:	0671013f 			; <UNDEFINED> instruction: 0x0671013f
    6554:	17060000 	strne	r0, [r6, -r0]
    6558:	00000453 	andeq	r0, r0, r3, asr r4
    655c:	56014005 	strpl	r4, [r1], -r5
    6560:	0c000000 	stceq	0, cr0, [r0], {-0}
    6564:	00560800 	subseq	r0, r6, r0, lsl #16
    6568:	06810000 	streq	r0, [r1], r0
    656c:	c7090000 	strgt	r0, [r9, -r0]
    6570:	02000000 	andeq	r0, r0, #0
    6574:	05d01a00 	ldrbeq	r1, [r0, #2560]	; 0xa00
    6578:	07820257 			; <UNDEFINED> instruction: 0x07820257
    657c:	99170000 	ldmdbls	r7, {}	; <UNPREDICTABLE>
    6580:	05000004 	streq	r0, [r0, #-4]
    6584:	002c0259 	eoreq	r0, ip, r9, asr r2
    6588:	17000000 	strne	r0, [r0, -r0]
    658c:	0000043d 	andeq	r0, r0, sp, lsr r4
    6590:	07025a05 	streq	r5, [r2, -r5, lsl #20]
    6594:	04000001 	streq	r0, [r0], #-1
    6598:	00025b17 	andeq	r5, r2, r7, lsl fp
    659c:	025b0500 	subseq	r0, fp, #0, 10
    65a0:	00000782 	andeq	r0, r0, r2, lsl #15
    65a4:	04f91708 	ldrbteq	r1, [r9], #1800	; 0x708
    65a8:	5c050000 	stcpl	0, cr0, [r5], {-0}
    65ac:	00018d02 	andeq	r8, r1, r2, lsl #26
    65b0:	c9172400 	ldmdbgt	r7, {sl, sp}
    65b4:	05000001 	streq	r0, [r0, #-1]
    65b8:	0025025d 	eoreq	r0, r5, sp, asr r2
    65bc:	17480000 	strbne	r0, [r8, -r0]
    65c0:	0000035d 	andeq	r0, r0, sp, asr r3
    65c4:	64025e05 	strvs	r5, [r2], #-3589	; 0xfffff1fb
    65c8:	50000000 	andpl	r0, r0, r0
    65cc:	00050f17 	andeq	r0, r5, r7, lsl pc
    65d0:	025f0500 	subseq	r0, pc, #0, 10
    65d4:	0000063c 	andeq	r0, r0, ip, lsr r6
    65d8:	03681758 	cmneq	r8, #88, 14	; 0x1600000
    65dc:	60050000 	andvs	r0, r5, r0
    65e0:	0000ef02 	andeq	lr, r0, r2, lsl #30
    65e4:	14176800 	ldrne	r6, [r7], #-2048	; 0xfffff800
    65e8:	05000005 	streq	r0, [r0, #-5]
    65ec:	00ef0261 	rsceq	r0, pc, r1, ror #4
    65f0:	17700000 	ldrbne	r0, [r0, -r0]!
    65f4:	000000a1 	andeq	r0, r0, r1, lsr #1
    65f8:	ef026205 	svc	0x00026205
    65fc:	78000000 	stmdavc	r0, {}	; <UNPREDICTABLE>
    6600:	0004c417 	andeq	ip, r4, r7, lsl r4
    6604:	02630500 	rsbeq	r0, r3, #0, 10
    6608:	00000792 	muleq	r0, r2, r7
    660c:	024f1780 	subeq	r1, pc, #128, 14	; 0x2000000
    6610:	64050000 	strvs	r0, [r5], #-0
    6614:	0007a202 	andeq	sl, r7, r2, lsl #4
    6618:	60178800 	andsvs	r8, r7, r0, lsl #16
    661c:	05000004 	streq	r0, [r0, #-4]
    6620:	00250265 	eoreq	r0, r5, r5, ror #4
    6624:	17a00000 	strne	r0, [r0, r0]!
    6628:	0000018f 	andeq	r0, r0, pc, lsl #3
    662c:	ef026605 	svc	0x00026605
    6630:	a4000000 	strge	r0, [r0], #-0
    6634:	00009217 	andeq	r9, r0, r7, lsl r2
    6638:	02670500 	rsbeq	r0, r7, #0, 10
    663c:	000000ef 	andeq	r0, r0, pc, ror #1
    6640:	017e17ac 	cmneq	lr, ip, lsr #15
    6644:	68050000 	stmdavs	r5, {}	; <UNPREDICTABLE>
    6648:	0000ef02 	andeq	lr, r0, r2, lsl #30
    664c:	4a17b400 	bmi	5f3654 <__bss_end__+0x5e9614>
    6650:	05000000 	streq	r0, [r0, #-0]
    6654:	00ef0269 	rsceq	r0, pc, r9, ror #4
    6658:	17bc0000 	ldrne	r0, [ip, r0]!
    665c:	00000059 	andeq	r0, r0, r9, asr r0
    6660:	ef026a05 	svc	0x00026a05
    6664:	c4000000 	strgt	r0, [r0], #-0
    6668:	00031017 	andeq	r1, r3, r7, lsl r0
    666c:	026b0500 	rsbeq	r0, fp, #0, 10
    6670:	00000025 	andeq	r0, r0, r5, lsr #32
    6674:	0d0800cc 	stceq	0, cr0, [r8, #-816]	; 0xfffffcd0
    6678:	92000001 	andls	r0, r0, #1
    667c:	09000007 	stmdbeq	r0, {r0, r1, r2}
    6680:	000000c7 	andeq	r0, r0, r7, asr #1
    6684:	0d080019 	stceq	0, cr0, [r8, #-100]	; 0xffffff9c
    6688:	a2000001 	andge	r0, r0, #1
    668c:	09000007 	stmdbeq	r0, {r0, r1, r2}
    6690:	000000c7 	andeq	r0, r0, r7, asr #1
    6694:	0d080007 	stceq	0, cr0, [r8, #-28]	; 0xffffffe4
    6698:	b2000001 	andlt	r0, r0, #1
    669c:	09000007 	stmdbeq	r0, {r0, r1, r2}
    66a0:	000000c7 	andeq	r0, r0, r7, asr #1
    66a4:	f01a0017 			; <UNDEFINED> instruction: 0xf01a0017
    66a8:	d6027005 	strle	r7, [r2], -r5
    66ac:	17000007 	strne	r0, [r0, -r7]
    66b0:	000002b7 			; <UNDEFINED> instruction: 0x000002b7
    66b4:	d6027305 	strle	r7, [r2], -r5, lsl #6
    66b8:	00000007 	andeq	r0, r0, r7
    66bc:	0004bb17 	andeq	fp, r4, r7, lsl fp
    66c0:	02740500 	rsbseq	r0, r4, #0, 10
    66c4:	000007e6 	andeq	r0, r0, r6, ror #15
    66c8:	d6080078 			; <UNDEFINED> instruction: 0xd6080078
    66cc:	e6000002 	str	r0, [r0], -r2
    66d0:	09000007 	stmdbeq	r0, {r0, r1, r2}
    66d4:	000000c7 	andeq	r0, r0, r7, asr #1
    66d8:	2c08001d 	stccs	0, cr0, [r8], {29}
    66dc:	f6000000 			; <UNDEFINED> instruction: 0xf6000000
    66e0:	09000007 	stmdbeq	r0, {r0, r1, r2}
    66e4:	000000c7 	andeq	r0, r0, r7, asr #1
    66e8:	f01b001d 			; <UNDEFINED> instruction: 0xf01b001d
    66ec:	18025505 	stmdane	r2, {r0, r2, r8, sl, ip, lr}
    66f0:	1c000008 	stcne	0, cr0, [r0], {8}
    66f4:	000003a1 	andeq	r0, r0, r1, lsr #7
    66f8:	81026c05 	tsthi	r2, r5, lsl #24
    66fc:	1c000006 	stcne	0, cr0, [r0], {6}
    6700:	000004e6 	andeq	r0, r0, r6, ror #9
    6704:	b2027505 	andlt	r7, r2, #20971520	; 0x1400000
    6708:	00000007 	andeq	r0, r0, r7
    670c:	00010d08 	andeq	r0, r1, r8, lsl #26
    6710:	00082800 	andeq	r2, r8, r0, lsl #16
    6714:	00c70900 	sbceq	r0, r7, r0, lsl #18
    6718:	00180000 	andseq	r0, r8, r0
    671c:	0008331d 	andeq	r3, r8, sp, lsl r3
    6720:	04241500 	strteq	r1, [r4], #-1280	; 0xfffffb00
    6724:	0d000000 	stceq	0, cr0, [r0, #-0]
    6728:	00082804 	andeq	r2, r8, r4, lsl #16
    672c:	77040d00 	strvc	r0, [r4, -r0, lsl #26]
    6730:	1d000001 	stcne	0, cr0, [r0, #-4]
    6734:	0000084a 	andeq	r0, r0, sl, asr #16
    6738:	00002515 	andeq	r2, r0, r5, lsl r5
    673c:	040d0000 	streq	r0, [sp], #-0
    6740:	00000850 	andeq	r0, r0, r0, asr r8
    6744:	083f040d 	ldmdaeq	pc!, {r0, r2, r3, sl}	; <UNPREDICTABLE>
    6748:	ef080000 	svc	0x00080000
    674c:	66000005 	strvs	r0, [r0], -r5
    6750:	09000008 	stmdbeq	r0, {r3}
    6754:	000000c7 	andeq	r0, r0, r7, asr #1
    6758:	741e0002 	ldrvc	r0, [lr], #-2
    675c:	05000004 	streq	r0, [r0, #-4]
    6760:	042402fd 	strteq	r0, [r4], #-765	; 0xfffffd03
    6764:	6d1e0000 	ldcvs	0, cr0, [lr, #-0]
    6768:	05000004 	streq	r0, [r0, #-4]
    676c:	042a02fe 	strteq	r0, [sl], #-766	; 0xfffffd02
    6770:	25140000 	ldrcs	r0, [r4, #-0]
    6774:	8d000000 	stchi	0, cr0, [r0, #-0]
    6778:	15000008 	strne	r0, [r0, #-8]
    677c:	00000025 	andeq	r0, r0, r5, lsr #32
    6780:	01e21f00 	mvneq	r1, r0, lsl #30
    6784:	1d060000 	stcne	0, cr0, [r6, #-0]
    6788:	00000898 	muleq	r0, r8, r8
    678c:	087e040d 	ldmdaeq	lr!, {r0, r2, r3, sl}^
    6790:	25140000 	ldrcs	r0, [r4, #-0]
    6794:	ad000000 	stcge	0, cr0, [r0, #-0]
    6798:	15000008 	strne	r0, [r0, #-8]
    679c:	00000585 	andeq	r0, r0, r5, lsl #11
    67a0:	076e1f00 	strbeq	r1, [lr, -r0, lsl #30]!
    67a4:	22060000 	andcs	r0, r6, #0
    67a8:	000008b8 			; <UNDEFINED> instruction: 0x000008b8
    67ac:	089e040d 	ldmeq	lr, {r0, r2, r3, sl}
    67b0:	de200000 	cdple	0, 2, cr0, cr0, cr0, {0}
    67b4:	01000007 	tsteq	r0, r7
    67b8:	00906c0d 	addseq	r6, r0, sp, lsl #24
    67bc:	00003400 	andeq	r3, r0, r0, lsl #8
    67c0:	1d9c0100 	ldfnes	f0, [ip]
    67c4:	1f000009 	svcne	0x00000009
    67c8:	000007ee 	andeq	r0, r0, lr, ror #15
    67cc:	00250e01 	eoreq	r0, r5, r1, lsl #28
    67d0:	fc1f0000 	ldc2	0, cr0, [pc], {-0}
    67d4:	01000007 	tsteq	r0, r7
    67d8:	0000250e 	andeq	r2, r0, lr, lsl #10
    67dc:	00422100 	subeq	r2, r2, r0, lsl #2
    67e0:	0f010000 	svceq	0x00010000
    67e4:	73736222 	cmnvc	r3, #536870914	; 0x20000002
    67e8:	1d110100 	ldfnes	f0, [r1, #-0]
    67ec:	ce000009 	cdpgt	0, 0, cr0, cr0, cr9, {0}
    67f0:	2300000f 	movwcs	r0, #15
    67f4:	000007e6 	andeq	r0, r0, r6, ror #15
    67f8:	091d1201 	ldmdbeq	sp, {r0, r9, ip}
    67fc:	94240000 	strtls	r0, [r4], #-0
    6800:	23000090 	movwcs	r0, #144	; 0x90
    6804:	24000009 	strcs	r0, [r0], #-9
    6808:	00009098 	muleq	r0, r8, r0
    680c:	0000092e 	andeq	r0, r0, lr, lsr #18
    6810:	25040d00 	strcs	r0, [r4, #-3328]	; 0xfffff300
    6814:	25000000 	strcs	r0, [r0, #-0]
    6818:	00000042 	andeq	r0, r0, r2, asr #32
    681c:	00000042 	andeq	r0, r0, r2, asr #32
    6820:	a125d706 			; <UNDEFINED> instruction: 0xa125d706
    6824:	a1000002 	tstge	r0, r2
    6828:	06000002 	streq	r0, [r0], -r2
    682c:	09e60065 	stmibeq	r6!, {r0, r2, r5, r6}^
    6830:	00040000 	andeq	r0, r4, r0
    6834:	00001379 	andeq	r1, r0, r9, ror r3
    6838:	03db0104 	bicseq	r0, fp, #4, 2
    683c:	5c0c0000 	stcpl	0, cr0, [ip], {-0}
    6840:	e3000008 	movw	r0, #8
    6844:	98000006 	stmdals	r0, {r1, r2}
    6848:	00000000 	andeq	r0, r0, r0
    684c:	ea000000 	b	6854 <_start-0x17ac>
    6850:	0200000a 	andeq	r0, r0, #10
    6854:	6e690504 	cdpvs	5, 6, cr0, cr9, cr4, {0}
    6858:	25030074 	strcs	r0, [r3, #-116]	; 0xffffff8c
    685c:	04000000 	streq	r0, [r0], #-0
    6860:	00740704 	rsbseq	r0, r4, r4, lsl #14
    6864:	01040000 	mrseq	r0, (UNDEF: 4)
    6868:	0002ff06 	andeq	pc, r2, r6, lsl #30
    686c:	05020400 	streq	r0, [r2, #-1024]	; 0xfffffc00
    6870:	00000319 	andeq	r0, r0, r9, lsl r3
    6874:	bd050404 	cfstrslt	mvf0, [r5, #-16]
    6878:	04000000 	streq	r0, [r0], #-0
    687c:	00b80508 	adcseq	r0, r8, r8, lsl #10
    6880:	01040000 	mrseq	r0, (UNDEF: 4)
    6884:	0002fd08 	andeq	pc, r2, r8, lsl #26
    6888:	07020400 	streq	r0, [r2, -r0, lsl #8]
    688c:	00000233 	andeq	r0, r0, r3, lsr r2
    6890:	6f070404 	svcvs	0x00070404
    6894:	04000000 	streq	r0, [r0], #-0
    6898:	006a0708 	rsbeq	r0, sl, r8, lsl #14
    689c:	eb050000 	bl	1468a4 <__bss_end__+0x13c864>
    68a0:	02000002 	andeq	r0, r0, #2
    68a4:	00002507 	andeq	r2, r0, r7, lsl #10
    68a8:	02da0500 	sbcseq	r0, sl, #0, 10
    68ac:	2c030000 	stccs	0, cr0, [r3], {-0}
    68b0:	00000046 	andeq	r0, r0, r6, asr #32
    68b4:	0003c405 	andeq	ip, r3, r5, lsl #8
    68b8:	46720300 	ldrbtmi	r0, [r2], -r0, lsl #6
    68bc:	06000000 	streq	r0, [r0], -r0
    68c0:	00000276 	andeq	r0, r0, r6, ror r2
    68c4:	31016504 	tstcc	r1, r4, lsl #10
    68c8:	07000000 	streq	r0, [r0, -r0]
    68cc:	bca60304 	stclt	3, cr0, [r6], #16
    68d0:	08000000 	stmdaeq	r0, {}	; <UNPREDICTABLE>
    68d4:	00000270 	andeq	r0, r0, r0, ror r2
    68d8:	0091a803 	addseq	sl, r1, r3, lsl #16
    68dc:	f3080000 	vhadd.u8	d0, d8, d0
    68e0:	03000001 	movweq	r0, #1
    68e4:	0000bca9 	andeq	fp, r0, r9, lsr #25
    68e8:	54090000 	strpl	r0, [r9], #-0
    68ec:	cc000000 	stcgt	0, cr0, [r0], {-0}
    68f0:	0a000000 	beq	68f8 <_start-0x1708>
    68f4:	000000cc 	andeq	r0, r0, ip, asr #1
    68f8:	04040003 	streq	r0, [r4], #-3
    68fc:	0002ae07 	andeq	sl, r2, r7, lsl #28
    6900:	03080b00 	movweq	r0, #35584	; 0x8b00
    6904:	0000f4a3 	andeq	pc, r0, r3, lsr #9
    6908:	03ae0c00 			; <UNDEFINED> instruction: 0x03ae0c00
    690c:	a5030000 	strge	r0, [r3, #-0]
    6910:	00000025 	andeq	r0, r0, r5, lsr #32
    6914:	03b60c00 			; <UNDEFINED> instruction: 0x03b60c00
    6918:	aa030000 	bge	c6920 <__bss_end__+0xbc8e0>
    691c:	0000009d 	muleq	r0, sp, r0
    6920:	41050004 	tstmi	r5, r4
    6924:	03000003 	movweq	r0, #3
    6928:	0000d3ab 	andeq	sp, r0, fp, lsr #7
    692c:	01b00500 	lslseq	r0, r0, #10
    6930:	af030000 	svcge	0x00030000
    6934:	00000070 	andeq	r0, r0, r0, ror r0
    6938:	040e040d 	streq	r0, [lr], #-1037	; 0xfffffbf3
    693c:	00000112 	andeq	r0, r0, r2, lsl r1
    6940:	06080104 	streq	r0, [r8], -r4, lsl #2
    6944:	03000003 	movweq	r0, #3
    6948:	00000112 	andeq	r0, r0, r2, lsl r1
    694c:	00045805 	andeq	r5, r4, r5, lsl #16
    6950:	62160500 	andsvs	r0, r6, #0, 10
    6954:	0f000000 	svceq	0x00000000
    6958:	000001c1 	andeq	r0, r0, r1, asr #3
    695c:	7c2d0518 	cfstr32vc	mvfx0, [sp], #-96	; 0xffffffa0
    6960:	0c000001 	stceq	0, cr0, [r0], {1}
    6964:	00000362 	andeq	r0, r0, r2, ror #6
    6968:	017c2f05 	cmneq	ip, r5, lsl #30
    696c:	10000000 	andne	r0, r0, r0
    6970:	05006b5f 	streq	r6, [r0, #-2911]	; 0xfffff4a1
    6974:	00002530 	andeq	r2, r0, r0, lsr r5
    6978:	990c0400 	stmdbls	ip, {sl}
    697c:	05000003 	streq	r0, [r0, #-3]
    6980:	00002530 	andeq	r2, r0, r0, lsr r5
    6984:	aa0c0800 	bge	30898c <__bss_end__+0x2fe94c>
    6988:	05000001 	streq	r0, [r0, #-1]
    698c:	00002530 	andeq	r2, r0, r0, lsr r5
    6990:	a60c0c00 	strge	r0, [ip], -r0, lsl #24
    6994:	05000004 	streq	r0, [r0, #-4]
    6998:	00002530 	andeq	r2, r0, r0, lsr r5
    699c:	5f101000 	svcpl	0x00101000
    69a0:	31050078 	tstcc	r5, r8, ror r0
    69a4:	00000182 	andeq	r0, r0, r2, lsl #3
    69a8:	040e0014 	streq	r0, [lr], #-20	; 0xffffffec
    69ac:	00000129 	andeq	r0, r0, r9, lsr #2
    69b0:	00011e09 	andeq	r1, r1, r9, lsl #28
    69b4:	00019200 	andeq	r9, r1, r0, lsl #4
    69b8:	00cc0a00 	sbceq	r0, ip, r0, lsl #20
    69bc:	00000000 	andeq	r0, r0, r0
    69c0:	0001ee0f 	andeq	lr, r1, pc, lsl #28
    69c4:	35052400 	strcc	r2, [r5, #-1024]	; 0xfffffc00
    69c8:	0000020b 	andeq	r0, r0, fp, lsl #4
    69cc:	0000af0c 	andeq	sl, r0, ip, lsl #30
    69d0:	25370500 	ldrcs	r0, [r7, #-1280]!	; 0xfffffb00
    69d4:	00000000 	andeq	r0, r0, r0
    69d8:	0003cc0c 	andeq	ip, r3, ip, lsl #24
    69dc:	25380500 	ldrcs	r0, [r8, #-1280]!	; 0xfffffb00
    69e0:	04000000 	streq	r0, [r0], #-0
    69e4:	0000d20c 	andeq	sp, r0, ip, lsl #4
    69e8:	25390500 	ldrcs	r0, [r9, #-1280]!	; 0xfffffb00
    69ec:	08000000 	stmdaeq	r0, {}	; <UNPREDICTABLE>
    69f0:	0005270c 	andeq	r2, r5, ip, lsl #14
    69f4:	253a0500 	ldrcs	r0, [sl, #-1280]!	; 0xfffffb00
    69f8:	0c000000 	stceq	0, cr0, [r0], {-0}
    69fc:	0002be0c 	andeq	fp, r2, ip, lsl #28
    6a00:	253b0500 	ldrcs	r0, [fp, #-1280]!	; 0xfffffb00
    6a04:	10000000 	andne	r0, r0, r0
    6a08:	0002970c 	andeq	r9, r2, ip, lsl #14
    6a0c:	253c0500 	ldrcs	r0, [ip, #-1280]!	; 0xfffffb00
    6a10:	14000000 	strne	r0, [r0], #-0
    6a14:	0004ab0c 	andeq	sl, r4, ip, lsl #22
    6a18:	253d0500 	ldrcs	r0, [sp, #-1280]!	; 0xfffffb00
    6a1c:	18000000 	stmdane	r0, {}	; <UNPREDICTABLE>
    6a20:	0003230c 	andeq	r2, r3, ip, lsl #6
    6a24:	253e0500 	ldrcs	r0, [lr, #-1280]!	; 0xfffffb00
    6a28:	1c000000 	stcne	0, cr0, [r0], {-0}
    6a2c:	0004ee0c 	andeq	lr, r4, ip, lsl #28
    6a30:	253f0500 	ldrcs	r0, [pc, #-1280]!	; 6538 <_start-0x1ac8>
    6a34:	20000000 	andcs	r0, r0, r0
    6a38:	01121100 	tsteq	r2, r0, lsl #2
    6a3c:	01080000 	mrseq	r0, (UNDEF: 8)
    6a40:	024b4805 	subeq	r4, fp, #327680	; 0x50000
    6a44:	9d0c0000 	stcls	0, cr0, [ip, #-0]
    6a48:	05000001 	streq	r0, [r0, #-1]
    6a4c:	00024b49 	andeq	r4, r2, r9, asr #22
    6a50:	000c0000 	andeq	r0, ip, r0
    6a54:	05000000 	streq	r0, [r0, #-0]
    6a58:	00024b4a 	andeq	r4, r2, sl, asr #22
    6a5c:	4a128000 	bmi	4a6a64 <__bss_end__+0x49ca24>
    6a60:	05000004 	streq	r0, [r0, #-4]
    6a64:	00011e4c 	andeq	r1, r1, ip, asr #28
    6a68:	12010000 	andne	r0, r1, #0
    6a6c:	00000137 	andeq	r0, r0, r7, lsr r1
    6a70:	011e4f05 	tsteq	lr, r5, lsl #30
    6a74:	01040000 	mrseq	r0, (UNDEF: 4)
    6a78:	010a0900 	tsteq	sl, r0, lsl #18
    6a7c:	025b0000 	subseq	r0, fp, #0
    6a80:	cc0a0000 	stcgt	0, cr0, [sl], {-0}
    6a84:	1f000000 	svcne	0x00000000
    6a88:	02c71100 	sbceq	r1, r7, #0, 2
    6a8c:	01900000 	orrseq	r0, r0, r0
    6a90:	02995b05 	addseq	r5, r9, #5120	; 0x1400
    6a94:	620c0000 	andvs	r0, ip, #0
    6a98:	05000003 	streq	r0, [r0, #-3]
    6a9c:	0002995c 	andeq	r9, r2, ip, asr r9
    6aa0:	7a0c0000 	bvc	306aa8 <__bss_end__+0x2fca68>
    6aa4:	05000003 	streq	r0, [r0, #-3]
    6aa8:	0000255d 	andeq	r2, r0, sp, asr r5
    6aac:	a50c0400 	strge	r0, [ip, #-1024]	; 0xfffffc00
    6ab0:	05000001 	streq	r0, [r0, #-1]
    6ab4:	00029f5f 	andeq	r9, r2, pc, asr pc
    6ab8:	120c0800 	andne	r0, ip, #0, 16
    6abc:	05000001 	streq	r0, [r0, #-1]
    6ac0:	00020b60 	andeq	r0, r2, r0, ror #22
    6ac4:	0e008800 	cdpeq	8, 0, cr8, cr0, cr0, {0}
    6ac8:	00025b04 	andeq	r5, r2, r4, lsl #22
    6acc:	02af0900 	adceq	r0, pc, #0, 18
    6ad0:	02af0000 	adceq	r0, pc, #0
    6ad4:	cc0a0000 	stcgt	0, cr0, [sl], {-0}
    6ad8:	1f000000 	svcne	0x00000000
    6adc:	b5040e00 	strlt	r0, [r4, #-3584]	; 0xfffff200
    6ae0:	13000002 	movwne	r0, #2
    6ae4:	00032d0f 	andeq	r2, r3, pc, lsl #26
    6ae8:	73050800 	movwvc	r0, #22528	; 0x5800
    6aec:	000002db 	ldrdeq	r0, [r0], -fp
    6af0:	0000cc0c 	andeq	ip, r0, ip, lsl #24
    6af4:	db740500 	blle	1d07efc <__bss_end__+0x1cfdebc>
    6af8:	00000002 	andeq	r0, r0, r2
    6afc:	00001b0c 	andeq	r1, r0, ip, lsl #22
    6b00:	25750500 	ldrbcs	r0, [r5, #-1280]!	; 0xfffffb00
    6b04:	04000000 	streq	r0, [r0], #-0
    6b08:	54040e00 	strpl	r0, [r4], #-3584	; 0xfffff200
    6b0c:	0f000000 	svceq	0x00000000
    6b10:	0000034c 	andeq	r0, r0, ip, asr #6
    6b14:	0bb30568 	bleq	fecc80bc <__bss_end__+0xfecbe07c>
    6b18:	10000004 	andne	r0, r0, r4
    6b1c:	0500705f 	streq	r7, [r0, #-95]	; 0xffffffa1
    6b20:	0002dbb4 			; <UNDEFINED> instruction: 0x0002dbb4
    6b24:	5f100000 	svcpl	0x00100000
    6b28:	b5050072 	strlt	r0, [r5, #-114]	; 0xffffff8e
    6b2c:	00000025 	andeq	r0, r0, r5, lsr #32
    6b30:	775f1004 	ldrbvc	r1, [pc, -r4]
    6b34:	25b60500 	ldrcs	r0, [r6, #1280]!	; 0x500
    6b38:	08000000 	stmdaeq	r0, {}	; <UNPREDICTABLE>
    6b3c:	0001300c 	andeq	r3, r1, ip
    6b40:	3fb70500 	svccc	0x00b70500
    6b44:	0c000000 	stceq	0, cr0, [r0], {-0}
    6b48:	0002190c 	andeq	r1, r2, ip, lsl #18
    6b4c:	3fb80500 	svccc	0x00b80500
    6b50:	0e000000 	cdpeq	0, 0, cr0, cr0, cr0, {0}
    6b54:	66625f10 	uqadd16vs	r5, r2, r0
    6b58:	b6b90500 	ldrtlt	r0, [r9], r0, lsl #10
    6b5c:	10000002 	andne	r0, r0, r2
    6b60:	0000890c 	andeq	r8, r0, ip, lsl #18
    6b64:	25ba0500 	ldrcs	r0, [sl, #1280]!	; 0x500
    6b68:	18000000 	stmdane	r0, {}	; <UNPREDICTABLE>
    6b6c:	0001200c 	andeq	r2, r1, ip
    6b70:	0ac10500 	beq	ff047f78 <__bss_end__+0xff03df38>
    6b74:	1c000001 	stcne	0, cr0, [r0], {1}
    6b78:	000a7d0c 	andeq	r7, sl, ip, lsl #26
    6b7c:	66c30500 	strbvs	r0, [r3], r0, lsl #10
    6b80:	20000005 	andcs	r0, r0, r5
    6b84:	0006110c 	andeq	r1, r6, ip, lsl #2
    6b88:	90c50500 	sbcls	r0, r5, r0, lsl #10
    6b8c:	24000005 	strcs	r0, [r0], #-5
    6b90:	0003be0c 	andeq	fp, r3, ip, lsl #28
    6b94:	b4c80500 	strblt	r0, [r8], #1280	; 0x500
    6b98:	28000005 	stmdacs	r0, {r0, r2}
    6b9c:	0005080c 	andeq	r0, r5, ip, lsl #16
    6ba0:	cec90500 	cdpgt	5, 12, cr0, cr9, cr0, {0}
    6ba4:	2c000005 	stccs	0, cr0, [r0], {5}
    6ba8:	62755f10 	rsbsvs	r5, r5, #16, 30	; 0x40
    6bac:	b6cc0500 	strblt	r0, [ip], r0, lsl #10
    6bb0:	30000002 	andcc	r0, r0, r2
    6bb4:	70755f10 	rsbsvc	r5, r5, r0, lsl pc
    6bb8:	dbcd0500 	blle	ff347fc0 <__bss_end__+0xff33df80>
    6bbc:	38000002 	stmdacc	r0, {r1}
    6bc0:	72755f10 	rsbsvc	r5, r5, #16, 30	; 0x40
    6bc4:	25ce0500 	strbcs	r0, [lr, #1280]	; 0x500
    6bc8:	3c000000 	stccc	0, cr0, [r0], {-0}
    6bcc:	0000c60c 	andeq	ip, r0, ip, lsl #12
    6bd0:	d4d10500 	ldrble	r0, [r1], #1280	; 0x500
    6bd4:	40000005 	andmi	r0, r0, r5
    6bd8:	0004e00c 	andeq	lr, r4, ip
    6bdc:	e4d20500 	ldrb	r0, [r2], #1280	; 0x500
    6be0:	43000005 	movwmi	r0, #5
    6be4:	626c5f10 	rsbvs	r5, ip, #16, 30	; 0x40
    6be8:	b6d50500 	ldrblt	r0, [r5], r0, lsl #10
    6bec:	44000002 	strmi	r0, [r0], #-2
    6bf0:	00014e0c 	andeq	r4, r1, ip, lsl #28
    6bf4:	25d80500 	ldrbcs	r0, [r8, #1280]	; 0x500
    6bf8:	4c000000 	stcmi	0, cr0, [r0], {-0}
    6bfc:	00015f0c 	andeq	r5, r1, ip, lsl #30
    6c00:	7bd90500 	blvc	ff648008 <__bss_end__+0xff63dfc8>
    6c04:	50000000 	andpl	r0, r0, r0
    6c08:	000a1e0c 	andeq	r1, sl, ip, lsl #28
    6c0c:	29dc0500 	ldmibcs	ip, {r8, sl}^
    6c10:	54000004 	strpl	r0, [r0], #-4
    6c14:	0002840c 	andeq	r8, r2, ip, lsl #8
    6c18:	ffe00500 			; <UNDEFINED> instruction: 0xffe00500
    6c1c:	58000000 	stmdapl	r0, {}	; <UNPREDICTABLE>
    6c20:	0003540c 	andeq	r5, r3, ip, lsl #8
    6c24:	f4e20500 	vld2.16	{d16[0],d17[0]}, [r2], r0
    6c28:	5c000000 	stcpl	0, cr0, [r0], {-0}
    6c2c:	00028f0c 	andeq	r8, r2, ip, lsl #30
    6c30:	25e30500 	strbcs	r0, [r3, #1280]!	; 0x500
    6c34:	64000000 	strvs	r0, [r0], #-0
    6c38:	00251400 	eoreq	r1, r5, r0, lsl #8
    6c3c:	04290000 	strteq	r0, [r9], #-0
    6c40:	29150000 	ldmdbcs	r5, {}	; <UNPREDICTABLE>
    6c44:	15000004 	strne	r0, [r0, #-4]
    6c48:	0000010a 	andeq	r0, r0, sl, lsl #2
    6c4c:	00010c15 	andeq	r0, r1, r5, lsl ip
    6c50:	00251500 	eoreq	r1, r5, r0, lsl #10
    6c54:	0e000000 	cdpeq	0, 0, cr0, cr0, cr0, {0}
    6c58:	00043404 	andeq	r3, r4, r4, lsl #8
    6c5c:	04290300 	strteq	r0, [r9], #-768	; 0xfffffd00
    6c60:	a1160000 	tstge	r6, r0
    6c64:	28000003 	stmdacs	r0, {r0, r1}
    6c68:	02380504 	eorseq	r0, r8, #4, 10	; 0x1000000
    6c6c:	00000566 	andeq	r0, r0, r6, ror #10
    6c70:	00031217 	andeq	r1, r3, r7, lsl r2
    6c74:	023a0500 	eorseq	r0, sl, #0, 10
    6c78:	00000025 	andeq	r0, r0, r5, lsr #32
    6c7c:	013f1700 	teqeq	pc, r0, lsl #14
    6c80:	3f050000 	svccc	0x00050000
    6c84:	00063b02 	andeq	r3, r6, r2, lsl #22
    6c88:	09170400 	ldmdbeq	r7, {sl}
    6c8c:	05000002 	streq	r0, [r0, #-2]
    6c90:	063b023f 			; <UNDEFINED> instruction: 0x063b023f
    6c94:	17080000 	strne	r0, [r8, -r0]
    6c98:	000001b9 			; <UNDEFINED> instruction: 0x000001b9
    6c9c:	3b023f05 	blcc	968b8 <__bss_end__+0x8c878>
    6ca0:	0c000006 	stceq	0, cr0, [r0], {6}
    6ca4:	00037517 	andeq	r7, r3, r7, lsl r5
    6ca8:	02410500 	subeq	r0, r1, #0, 10
    6cac:	00000025 	andeq	r0, r0, r5, lsr #32
    6cb0:	00371710 	eorseq	r1, r7, r0, lsl r7
    6cb4:	42050000 	andmi	r0, r5, #0
    6cb8:	00081d02 	andeq	r1, r8, r2, lsl #26
    6cbc:	80171400 	andshi	r1, r7, r0, lsl #8
    6cc0:	05000004 	streq	r0, [r0, #-4]
    6cc4:	00250244 	eoreq	r0, r5, r4, asr #4
    6cc8:	17300000 	ldrne	r0, [r0, -r0]!
    6ccc:	0000037f 	andeq	r0, r0, pc, ror r3
    6cd0:	8a024505 	bhi	980ec <__bss_end__+0x8e0ac>
    6cd4:	34000005 	strcc	r0, [r0], #-5
    6cd8:	0002cf17 	andeq	ip, r2, r7, lsl pc
    6cdc:	02470500 	subeq	r0, r7, #0, 10
    6ce0:	00000025 	andeq	r0, r0, r5, lsr #32
    6ce4:	038f1738 	orreq	r1, pc, #56, 14	; 0xe00000
    6ce8:	49050000 	stmdbmi	r5, {}	; <UNPREDICTABLE>
    6cec:	00083802 	andeq	r3, r8, r2, lsl #16
    6cf0:	68173c00 	ldmdavs	r7, {sl, fp, ip, sp}
    6cf4:	05000002 	streq	r0, [r0, #-2]
    6cf8:	017c024c 	cmneq	ip, ip, asr #4
    6cfc:	17400000 	strbne	r0, [r0, -r0]
    6d00:	000001d8 	ldrdeq	r0, [r0], -r8
    6d04:	25024d05 	strcs	r4, [r2, #-3333]	; 0xfffff2fb
    6d08:	44000000 	strmi	r0, [r0], #-0
    6d0c:	00052217 	andeq	r2, r5, r7, lsl r2
    6d10:	024e0500 	subeq	r0, lr, #0, 10
    6d14:	0000017c 	andeq	r0, r0, ip, ror r1
    6d18:	02e11748 	rsceq	r1, r1, #72, 14	; 0x1200000
    6d1c:	4f050000 	svcmi	0x00050000
    6d20:	00083e02 	andeq	r3, r8, r2, lsl #28
    6d24:	11174c00 	tstne	r7, r0, lsl #24
    6d28:	05000002 	streq	r0, [r0, #-2]
    6d2c:	00250252 	eoreq	r0, r5, r2, asr r2
    6d30:	17500000 	ldrbne	r0, [r0, -r0]
    6d34:	00000157 	andeq	r0, r0, r7, asr r1
    6d38:	0c025305 	stceq	3, cr5, [r2], {5}
    6d3c:	54000001 	strpl	r0, [r0], #-1
    6d40:	00030b17 	andeq	r0, r3, r7, lsl fp
    6d44:	02760500 	rsbseq	r0, r6, #0, 10
    6d48:	000007fb 	strdeq	r0, [r0], -fp
    6d4c:	02c71858 	sbceq	r1, r7, #88, 16	; 0x580000
    6d50:	7a050000 	bvc	146d58 <__bss_end__+0x13cd18>
    6d54:	00029902 	andeq	r9, r2, r2, lsl #18
    6d58:	18014800 	stmdane	r1, {fp, lr}
    6d5c:	00000246 	andeq	r0, r0, r6, asr #4
    6d60:	5b027b05 	blpl	a597c <__bss_end__+0x9b93c>
    6d64:	4c000002 	stcmi	0, cr0, [r0], {2}
    6d68:	04ce1801 	strbeq	r1, [lr], #2049	; 0x801
    6d6c:	7f050000 	svcvc	0x00050000
    6d70:	00084f02 	andeq	r4, r8, r2, lsl #30
    6d74:	1802dc00 	stmdane	r2, {sl, fp, ip, lr, pc}
    6d78:	00000128 	andeq	r0, r0, r8, lsr #2
    6d7c:	00028405 	andeq	r8, r2, r5, lsl #8
    6d80:	e0000006 	and	r0, r0, r6
    6d84:	010d1802 	tsteq	sp, r2, lsl #16
    6d88:	85050000 	strhi	r0, [r5, #-0]
    6d8c:	00085b02 	andeq	r5, r8, r2, lsl #22
    6d90:	0002ec00 	andeq	lr, r2, r0, lsl #24
    6d94:	040b040e 	streq	r0, [fp], #-1038	; 0xfffffbf2
    6d98:	25140000 	ldrcs	r0, [r4, #-0]
    6d9c:	8a000000 	bhi	6da4 <_start-0x125c>
    6da0:	15000005 	strne	r0, [r0, #-5]
    6da4:	00000429 	andeq	r0, r0, r9, lsr #8
    6da8:	00010a15 	andeq	r0, r1, r5, lsl sl
    6dac:	058a1500 	streq	r1, [sl, #1280]	; 0x500
    6db0:	25150000 	ldrcs	r0, [r5, #-0]
    6db4:	00000000 	andeq	r0, r0, r0
    6db8:	0119040e 	tsteq	r9, lr, lsl #8
    6dbc:	040e0000 	streq	r0, [lr], #-0
    6dc0:	0000056c 	andeq	r0, r0, ip, ror #10
    6dc4:	00008614 	andeq	r8, r0, r4, lsl r6
    6dc8:	0005b400 	andeq	fp, r5, r0, lsl #8
    6dcc:	04291500 	strteq	r1, [r9], #-1280	; 0xfffffb00
    6dd0:	0a150000 	beq	546dd8 <__bss_end__+0x53cd98>
    6dd4:	15000001 	strne	r0, [r0, #-1]
    6dd8:	00000086 	andeq	r0, r0, r6, lsl #1
    6ddc:	00002515 	andeq	r2, r0, r5, lsl r5
    6de0:	040e0000 	streq	r0, [lr], #-0
    6de4:	00000596 	muleq	r0, r6, r5
    6de8:	00002514 	andeq	r2, r0, r4, lsl r5
    6dec:	0005ce00 	andeq	ip, r5, r0, lsl #28
    6df0:	04291500 	strteq	r1, [r9], #-1280	; 0xfffffb00
    6df4:	0a150000 	beq	546dfc <__bss_end__+0x53cdbc>
    6df8:	00000001 	andeq	r0, r0, r1
    6dfc:	05ba040e 	ldreq	r0, [sl, #1038]!	; 0x40e
    6e00:	54090000 	strpl	r0, [r9], #-0
    6e04:	e4000000 	str	r0, [r0], #-0
    6e08:	0a000005 	beq	6e24 <_start-0x11dc>
    6e0c:	000000cc 	andeq	r0, r0, ip, asr #1
    6e10:	54090002 	strpl	r0, [r9], #-2
    6e14:	f4000000 	vst4.8	{d0-d3}, [r0], r0
    6e18:	0a000005 	beq	6e34 <_start-0x11cc>
    6e1c:	000000cc 	andeq	r0, r0, ip, asr #1
    6e20:	3a060000 	bcc	186e28 <__bss_end__+0x17cde8>
    6e24:	05000003 	streq	r0, [r0, #-3]
    6e28:	02e1011d 	rsceq	r0, r1, #1073741831	; 0x40000007
    6e2c:	b5190000 	ldrlt	r0, [r9, #-0]
    6e30:	0c000004 	stceq	0, cr0, [r0], {4}
    6e34:	35012105 	strcc	r2, [r1, #-261]	; 0xfffffefb
    6e38:	17000006 	strne	r0, [r0, -r6]
    6e3c:	00000362 	andeq	r0, r0, r2, ror #6
    6e40:	35012305 	strcc	r2, [r1, #-773]	; 0xfffffcfb
    6e44:	00000006 	andeq	r0, r0, r6
    6e48:	00022c17 	andeq	r2, r2, r7, lsl ip
    6e4c:	01240500 			; <UNDEFINED> instruction: 0x01240500
    6e50:	00000025 	andeq	r0, r0, r5, lsr #32
    6e54:	03341704 	teqeq	r4, #4, 14	; 0x100000
    6e58:	25050000 	strcs	r0, [r5, #-0]
    6e5c:	00063b01 	andeq	r3, r6, r1, lsl #22
    6e60:	0e000800 	cdpeq	8, 0, cr0, cr0, cr0, {0}
    6e64:	00060004 	andeq	r0, r6, r4
    6e68:	f4040e00 			; <UNDEFINED> instruction: 0xf4040e00
    6e6c:	19000005 	stmdbne	r0, {r0, r2}
    6e70:	0000002f 	andeq	r0, r0, pc, lsr #32
    6e74:	013d050e 	teqeq	sp, lr, lsl #10
    6e78:	00000676 	andeq	r0, r0, r6, ror r6
    6e7c:	0003a817 	andeq	sl, r3, r7, lsl r8
    6e80:	013e0500 	teqeq	lr, r0, lsl #10
    6e84:	00000676 	andeq	r0, r0, r6, ror r6
    6e88:	03d51700 	bicseq	r1, r5, #0, 14
    6e8c:	3f050000 	svccc	0x00050000
    6e90:	00067601 	andeq	r7, r6, r1, lsl #12
    6e94:	53170600 	tstpl	r7, #0, 12
    6e98:	05000004 	streq	r0, [r0, #-4]
    6e9c:	005b0140 	subseq	r0, fp, r0, asr #2
    6ea0:	000c0000 	andeq	r0, ip, r0
    6ea4:	00005b09 	andeq	r5, r0, r9, lsl #22
    6ea8:	00068600 	andeq	r8, r6, r0, lsl #12
    6eac:	00cc0a00 	sbceq	r0, ip, r0, lsl #20
    6eb0:	00020000 	andeq	r0, r2, r0
    6eb4:	5705d01a 	smladpl	r5, sl, r0, sp
    6eb8:	00078702 	andeq	r8, r7, r2, lsl #14
    6ebc:	04991700 	ldreq	r1, [r9], #1792	; 0x700
    6ec0:	59050000 	stmdbpl	r5, {}	; <UNPREDICTABLE>
    6ec4:	00003102 	andeq	r3, r0, r2, lsl #2
    6ec8:	3d170000 	ldccc	0, cr0, [r7, #-0]
    6ecc:	05000004 	streq	r0, [r0, #-4]
    6ed0:	010c025a 	tsteq	ip, sl, asr r2
    6ed4:	17040000 	strne	r0, [r4, -r0]
    6ed8:	0000025b 	andeq	r0, r0, fp, asr r2
    6edc:	87025b05 	strhi	r5, [r2, -r5, lsl #22]
    6ee0:	08000007 	stmdaeq	r0, {r0, r1, r2}
    6ee4:	0004f917 	andeq	pc, r4, r7, lsl r9	; <UNPREDICTABLE>
    6ee8:	025c0500 	subseq	r0, ip, #0, 10
    6eec:	00000192 	muleq	r0, r2, r1
    6ef0:	01c91724 	biceq	r1, r9, r4, lsr #14
    6ef4:	5d050000 	stcpl	0, cr0, [r5, #-0]
    6ef8:	00002502 	andeq	r2, r0, r2, lsl #10
    6efc:	5d174800 	ldcpl	8, cr4, [r7, #-0]
    6f00:	05000003 	streq	r0, [r0, #-3]
    6f04:	0069025e 	rsbeq	r0, r9, lr, asr r2
    6f08:	17500000 	ldrbne	r0, [r0, -r0]
    6f0c:	0000050f 	andeq	r0, r0, pc, lsl #10
    6f10:	41025f05 	tstmi	r2, r5, lsl #30
    6f14:	58000006 	stmdapl	r0, {r1, r2}
    6f18:	00036817 	andeq	r6, r3, r7, lsl r8
    6f1c:	02600500 	rsbeq	r0, r0, #0, 10
    6f20:	000000f4 	strdeq	r0, [r0], -r4
    6f24:	05141768 	ldreq	r1, [r4, #-1896]	; 0xfffff898
    6f28:	61050000 	mrsvs	r0, (UNDEF: 5)
    6f2c:	0000f402 	andeq	pc, r0, r2, lsl #8
    6f30:	a1177000 	tstge	r7, r0
    6f34:	05000000 	streq	r0, [r0, #-0]
    6f38:	00f40262 	rscseq	r0, r4, r2, ror #4
    6f3c:	17780000 	ldrbne	r0, [r8, -r0]!
    6f40:	000004c4 	andeq	r0, r0, r4, asr #9
    6f44:	97026305 	strls	r6, [r2, -r5, lsl #6]
    6f48:	80000007 	andhi	r0, r0, r7
    6f4c:	00024f17 	andeq	r4, r2, r7, lsl pc
    6f50:	02640500 	rsbeq	r0, r4, #0, 10
    6f54:	000007a7 	andeq	r0, r0, r7, lsr #15
    6f58:	04601788 	strbteq	r1, [r0], #-1928	; 0xfffff878
    6f5c:	65050000 	strvs	r0, [r5, #-0]
    6f60:	00002502 	andeq	r2, r0, r2, lsl #10
    6f64:	8f17a000 	svchi	0x0017a000
    6f68:	05000001 	streq	r0, [r0, #-1]
    6f6c:	00f40266 	rscseq	r0, r4, r6, ror #4
    6f70:	17a40000 	strne	r0, [r4, r0]!
    6f74:	00000092 	muleq	r0, r2, r0
    6f78:	f4026705 	vst1.8	{d6}, [r2], r5
    6f7c:	ac000000 	stcge	0, cr0, [r0], {-0}
    6f80:	00017e17 	andeq	r7, r1, r7, lsl lr
    6f84:	02680500 	rsbeq	r0, r8, #0, 10
    6f88:	000000f4 	strdeq	r0, [r0], -r4
    6f8c:	004a17b4 	strheq	r1, [sl], #-116	; 0xffffff8c
    6f90:	69050000 	stmdbvs	r5, {}	; <UNPREDICTABLE>
    6f94:	0000f402 	andeq	pc, r0, r2, lsl #8
    6f98:	5917bc00 	ldmdbpl	r7, {sl, fp, ip, sp, pc}
    6f9c:	05000000 	streq	r0, [r0, #-0]
    6fa0:	00f4026a 	rscseq	r0, r4, sl, ror #4
    6fa4:	17c40000 	strbne	r0, [r4, r0]
    6fa8:	00000310 	andeq	r0, r0, r0, lsl r3
    6fac:	25026b05 	strcs	r6, [r2, #-2821]	; 0xfffff4fb
    6fb0:	cc000000 	stcgt	0, cr0, [r0], {-0}
    6fb4:	01120900 	tsteq	r2, r0, lsl #18
    6fb8:	07970000 	ldreq	r0, [r7, r0]
    6fbc:	cc0a0000 	stcgt	0, cr0, [sl], {-0}
    6fc0:	19000000 	stmdbne	r0, {}	; <UNPREDICTABLE>
    6fc4:	01120900 	tsteq	r2, r0, lsl #18
    6fc8:	07a70000 	streq	r0, [r7, r0]!
    6fcc:	cc0a0000 	stcgt	0, cr0, [sl], {-0}
    6fd0:	07000000 	streq	r0, [r0, -r0]
    6fd4:	01120900 	tsteq	r2, r0, lsl #18
    6fd8:	07b70000 	ldreq	r0, [r7, r0]!
    6fdc:	cc0a0000 	stcgt	0, cr0, [sl], {-0}
    6fe0:	17000000 	strne	r0, [r0, -r0]
    6fe4:	05f01a00 	ldrbeq	r1, [r0, #2560]!	; 0xa00
    6fe8:	07db0270 			; <UNDEFINED> instruction: 0x07db0270
    6fec:	b7170000 	ldrlt	r0, [r7, -r0]
    6ff0:	05000002 	streq	r0, [r0, #-2]
    6ff4:	07db0273 			; <UNDEFINED> instruction: 0x07db0273
    6ff8:	17000000 	strne	r0, [r0, -r0]
    6ffc:	000004bb 			; <UNDEFINED> instruction: 0x000004bb
    7000:	eb027405 	bl	a401c <__bss_end__+0x99fdc>
    7004:	78000007 	stmdavc	r0, {r0, r1, r2}
    7008:	02db0900 	sbcseq	r0, fp, #0, 18
    700c:	07eb0000 	strbeq	r0, [fp, r0]!
    7010:	cc0a0000 	stcgt	0, cr0, [sl], {-0}
    7014:	1d000000 	stcne	0, cr0, [r0, #-0]
    7018:	00310900 	eorseq	r0, r1, r0, lsl #18
    701c:	07fb0000 	ldrbeq	r0, [fp, r0]!
    7020:	cc0a0000 	stcgt	0, cr0, [sl], {-0}
    7024:	1d000000 	stcne	0, cr0, [r0, #-0]
    7028:	05f01b00 	ldrbeq	r1, [r0, #2816]!	; 0xb00
    702c:	081d0255 	ldmdaeq	sp, {r0, r2, r4, r6, r9}
    7030:	a11c0000 	tstge	ip, r0
    7034:	05000003 	streq	r0, [r0, #-3]
    7038:	0686026c 	streq	r0, [r6], ip, ror #4
    703c:	e61c0000 	ldr	r0, [ip], -r0
    7040:	05000004 	streq	r0, [r0, #-4]
    7044:	07b70275 			; <UNDEFINED> instruction: 0x07b70275
    7048:	09000000 	stmdbeq	r0, {}	; <UNPREDICTABLE>
    704c:	00000112 	andeq	r0, r0, r2, lsl r1
    7050:	0000082d 	andeq	r0, r0, sp, lsr #16
    7054:	0000cc0a 	andeq	ip, r0, sl, lsl #24
    7058:	1d001800 	stcne	8, cr1, [r0, #-0]
    705c:	00000838 	andeq	r0, r0, r8, lsr r8
    7060:	00042915 	andeq	r2, r4, r5, lsl r9
    7064:	040e0000 	streq	r0, [lr], #-0
    7068:	0000082d 	andeq	r0, r0, sp, lsr #16
    706c:	017c040e 	cmneq	ip, lr, lsl #8
    7070:	4f1d0000 	svcmi	0x001d0000
    7074:	15000008 	strne	r0, [r0, #-8]
    7078:	00000025 	andeq	r0, r0, r5, lsr #32
    707c:	55040e00 	strpl	r0, [r4, #-3584]	; 0xfffff200
    7080:	0e000008 	cdpeq	0, 0, cr0, cr0, cr8, {0}
    7084:	00084404 	andeq	r4, r8, r4, lsl #8
    7088:	05f40900 	ldrbeq	r0, [r4, #2304]!	; 0x900
    708c:	086b0000 	stmdaeq	fp!, {}^	; <UNPREDICTABLE>
    7090:	cc0a0000 	stcgt	0, cr0, [sl], {-0}
    7094:	02000000 	andeq	r0, r0, #0
    7098:	04741e00 	ldrbteq	r1, [r4], #-3584	; 0xfffff200
    709c:	fd050000 	stc2	0, cr0, [r5, #-0]
    70a0:	00042902 	andeq	r2, r4, r2, lsl #18
    70a4:	046d1e00 	strbteq	r1, [sp], #-3584	; 0xfffff200
    70a8:	fe050000 	cdp2	0, 0, cr0, cr5, cr0, {0}
    70ac:	00042f02 	andeq	r2, r4, r2, lsl #30
    70b0:	00251400 	eoreq	r1, r5, r0, lsl #8
    70b4:	08920000 	ldmeq	r2, {}	; <UNPREDICTABLE>
    70b8:	25150000 	ldrcs	r0, [r5, #-0]
    70bc:	00000000 	andeq	r0, r0, r0
    70c0:	0001e21f 	andeq	lr, r1, pc, lsl r2
    70c4:	9d1d0600 	ldcls	6, cr0, [sp, #-0]
    70c8:	0e000008 	cdpeq	0, 0, cr0, cr0, cr8, {0}
    70cc:	00088304 	andeq	r8, r8, r4, lsl #6
    70d0:	00251400 	eoreq	r1, r5, r0, lsl #8
    70d4:	08b20000 	ldmeq	r2!, {}	; <UNPREDICTABLE>
    70d8:	8a150000 	bhi	5470e0 <__bss_end__+0x53d0a0>
    70dc:	00000005 	andeq	r0, r0, r5
    70e0:	00076e1f 	andeq	r6, r7, pc, lsl lr
    70e4:	bd220600 	stclt	6, cr0, [r2, #-0]
    70e8:	0e000008 	cdpeq	0, 0, cr0, cr0, cr8, {0}
    70ec:	0008a304 	andeq	sl, r8, r4, lsl #6
    70f0:	08812000 	stmeq	r1, {sp}
    70f4:	0d010000 	stceq	0, cr0, [r1, #-0]
    70f8:	00000031 	andeq	r0, r0, r1, lsr r0
    70fc:	00085121 	andeq	r5, r8, r1, lsr #2
    7100:	cc1f0100 	ldfgts	f0, [pc], {-0}
    7104:	4c000090 	stcmi	0, cr0, [r0], {144}	; 0x90
    7108:	01000000 	mrseq	r0, (UNDEF: 0)
    710c:	0009859c 	muleq	r9, ip, r5
    7110:	08082200 	stmdaeq	r8, {r9, sp}
    7114:	2a010000 	bcs	4711c <__bss_end__+0x3d0dc>
    7118:	0000002c 	andeq	r0, r0, ip, lsr #32
    711c:	00000fee 	andeq	r0, r0, lr, ror #31
    7120:	00082f22 	andeq	r2, r8, r2, lsr #30
    7124:	2c2b0100 	stfcss	f0, [fp], #-0
    7128:	06000000 	streq	r0, [r0], -r0
    712c:	22000010 	andcs	r0, r0, #16
    7130:	0000083c 	andeq	r0, r0, ip, lsr r8
    7134:	002c2c01 	eoreq	r2, ip, r1, lsl #24
    7138:	101e0000 	andsne	r0, lr, r0
    713c:	16220000 	strtne	r0, [r2], -r0
    7140:	01000008 	tsteq	r0, r8
    7144:	00002c2d 	andeq	r2, r0, sp, lsr #24
    7148:	00103500 	andseq	r3, r0, r0, lsl #10
    714c:	90d42300 	sbcsls	r2, r4, r0, lsl #6
    7150:	09aa0000 	stmibeq	sl!, {}	; <UNPREDICTABLE>
    7154:	e4240000 	strt	r0, [r4], #-0
    7158:	d3000090 	movwle	r0, #144	; 0x90
    715c:	3b000009 	blcc	7188 <_start-0xe78>
    7160:	25000009 	strcs	r0, [r0, #-9]
    7164:	4e015001 	cdpmi	0, 0, cr5, cr1, cr1, {0}
    7168:	90f02400 	rscsls	r2, r0, r0, lsl #8
    716c:	09de0000 	ldmibeq	lr, {}^	; <UNPREDICTABLE>
    7170:	095b0000 	ldmdbeq	fp, {}^	; <UNPREDICTABLE>
    7174:	01250000 			; <UNDEFINED> instruction: 0x01250000
    7178:	240c0550 	strcs	r0, [ip], #-1360	; 0xfffffab0
    717c:	25201000 	strcs	r1, [r0, #-0]!
    7180:	0c055101 	stfeqs	f5, [r5], {1}
    7184:	5a000001 	bpl	7190 <_start-0xe70>
    7188:	90fc2400 	rscsls	r2, ip, r0, lsl #8
    718c:	09de0000 	ldmibeq	lr, {}^	; <UNPREDICTABLE>
    7190:	097b0000 	ldmdbeq	fp!, {}^	; <UNPREDICTABLE>
    7194:	01250000 			; <UNDEFINED> instruction: 0x01250000
    7198:	1c0c0550 	cfstr32ne	mvfx0, [ip], {80}	; 0x50
    719c:	25201000 	strcs	r1, [r0, #-0]!
    71a0:	0c055101 	stfeqs	f5, [r5], {1}
    71a4:	5a000020 	bpl	722c <_start-0xdd4>
    71a8:	91042300 	mrsls	r2, LR_abt
    71ac:	09850000 	stmibeq	r5, {}	; <UNPREDICTABLE>
    71b0:	26000000 	strcs	r0, [r0], -r0
    71b4:	0000086f 	andeq	r0, r0, pc, ror #16
    71b8:	90b81701 	adcsls	r1, r8, r1, lsl #14
    71bc:	00140000 	andseq	r0, r4, r0
    71c0:	9c010000 	stcls	0, cr0, [r1], {-0}
    71c4:	000009aa 	andeq	r0, r0, sl, lsr #19
    71c8:	00083722 	andeq	r3, r8, r2, lsr #14
    71cc:	31180100 	tstcc	r8, r0, lsl #2
    71d0:	4a000000 	bmi	71d8 <_start-0xe28>
    71d4:	00000010 	andeq	r0, r0, r0, lsl r0
    71d8:	00087e27 	andeq	r7, r8, r7, lsr #28
    71dc:	250e0100 	strcs	r0, [lr, #-256]	; 0xffffff00
    71e0:	a0000000 	andge	r0, r0, r0
    71e4:	18000090 	stmdane	r0, {r4, r7}
    71e8:	01000000 	mrseq	r0, (UNDEF: 0)
    71ec:	0009d39c 	muleq	r9, ip, r3
    71f0:	08372200 	ldmdaeq	r7!, {r9, sp}
    71f4:	0f010000 	svceq	0x00010000
    71f8:	00000031 	andeq	r0, r0, r1, lsr r0
    71fc:	00001074 	andeq	r1, r0, r4, ror r0
    7200:	08482800 	stmdaeq	r8, {fp, sp}^
    7204:	08480000 	stmdaeq	r8, {}^	; <UNPREDICTABLE>
    7208:	4f060000 	svcmi	0x00060000
    720c:	00081028 	andeq	r1, r8, r8, lsr #32
    7210:	00081000 	andeq	r1, r8, r0
    7214:	009b0600 	addseq	r0, fp, r0, lsl #12
    7218:	00000917 	andeq	r0, r0, r7, lsl r9
    721c:	15a30004 	strne	r0, [r3, #4]!
    7220:	01040000 	mrseq	r0, (UNDEF: 4)
    7224:	000003db 	ldrdeq	r0, [r0], -fp
    7228:	00088c0c 	andeq	r8, r8, ip, lsl #24
    722c:	0006e300 	andeq	lr, r6, r0, lsl #6
    7230:	00911800 	addseq	r1, r1, r0, lsl #16
    7234:	00002800 	andeq	r2, r0, r0, lsl #16
    7238:	000bd700 	andeq	sp, fp, r0, lsl #14
    723c:	05040200 	streq	r0, [r4, #-512]	; 0xfffffe00
    7240:	00746e69 	rsbseq	r6, r4, r9, ror #28
    7244:	74070403 	strvc	r0, [r7], #-1027	; 0xfffffbfd
    7248:	03000000 	movweq	r0, #0
    724c:	02ff0601 	rscseq	r0, pc, #1048576	; 0x100000
    7250:	02030000 	andeq	r0, r3, #0
    7254:	00031905 	andeq	r1, r3, r5, lsl #18
    7258:	05040300 	streq	r0, [r4, #-768]	; 0xfffffd00
    725c:	000000bd 	strheq	r0, [r0], -sp
    7260:	b8050803 	stmdalt	r5, {r0, r1, fp}
    7264:	03000000 	movweq	r0, #0
    7268:	02fd0801 	rscseq	r0, sp, #65536	; 0x10000
    726c:	02030000 	andeq	r0, r3, #0
    7270:	00023307 	andeq	r3, r2, r7, lsl #6
    7274:	07040300 	streq	r0, [r4, -r0, lsl #6]
    7278:	0000006f 	andeq	r0, r0, pc, rrx
    727c:	6a070803 	bvs	1c9290 <__bss_end__+0x1bf250>
    7280:	04000000 	streq	r0, [r0], #-0
    7284:	000002eb 	andeq	r0, r0, fp, ror #5
    7288:	00250702 	eoreq	r0, r5, r2, lsl #14
    728c:	da040000 	ble	107294 <__bss_end__+0xfd254>
    7290:	03000002 	movweq	r0, #2
    7294:	0000412c 	andeq	r4, r0, ip, lsr #2
    7298:	03c40400 	biceq	r0, r4, #0, 8
    729c:	72030000 	andvc	r0, r3, #0
    72a0:	00000041 	andeq	r0, r0, r1, asr #32
    72a4:	00027605 	andeq	r7, r2, r5, lsl #12
    72a8:	01650400 	cmneq	r5, r0, lsl #8
    72ac:	0000002c 	andeq	r0, r0, ip, lsr #32
    72b0:	a6030406 	strge	r0, [r3], -r6, lsl #8
    72b4:	000000b7 	strheq	r0, [r0], -r7
    72b8:	00027007 	andeq	r7, r2, r7
    72bc:	8ca80300 	stchi	3, cr0, [r8]
    72c0:	07000000 	streq	r0, [r0, -r0]
    72c4:	000001f3 	strdeq	r0, [r0], -r3
    72c8:	00b7a903 	adcseq	sl, r7, r3, lsl #18
    72cc:	08000000 	stmdaeq	r0, {}	; <UNPREDICTABLE>
    72d0:	0000004f 	andeq	r0, r0, pc, asr #32
    72d4:	000000c7 	andeq	r0, r0, r7, asr #1
    72d8:	0000c709 	andeq	ip, r0, r9, lsl #14
    72dc:	03000300 	movweq	r0, #768	; 0x300
    72e0:	02ae0704 	adceq	r0, lr, #4, 14	; 0x100000
    72e4:	080a0000 	stmdaeq	sl, {}	; <UNPREDICTABLE>
    72e8:	00efa303 	rsceq	sl, pc, r3, lsl #6
    72ec:	ae0b0000 	cdpge	0, 0, cr0, cr11, cr0, {0}
    72f0:	03000003 	movweq	r0, #3
    72f4:	000025a5 	andeq	r2, r0, r5, lsr #11
    72f8:	b60b0000 	strlt	r0, [fp], -r0
    72fc:	03000003 	movweq	r0, #3
    7300:	000098aa 	andeq	r9, r0, sl, lsr #17
    7304:	04000400 	streq	r0, [r0], #-1024	; 0xfffffc00
    7308:	00000341 	andeq	r0, r0, r1, asr #6
    730c:	00ceab03 	sbceq	sl, lr, r3, lsl #22
    7310:	b0040000 	andlt	r0, r4, r0
    7314:	03000001 	movweq	r0, #1
    7318:	00006baf 	andeq	r6, r0, pc, lsr #23
    731c:	0d040c00 	stceq	12, cr0, [r4, #-0]
    7320:	00010d04 	andeq	r0, r1, r4, lsl #26
    7324:	08010300 	stmdaeq	r1, {r8, r9}
    7328:	00000306 	andeq	r0, r0, r6, lsl #6
    732c:	00010d0e 	andeq	r0, r1, lr, lsl #26
    7330:	04580400 	ldrbeq	r0, [r8], #-1024	; 0xfffffc00
    7334:	16050000 	strne	r0, [r5], -r0
    7338:	0000005d 	andeq	r0, r0, sp, asr r0
    733c:	0001c10f 	andeq	ip, r1, pc, lsl #2
    7340:	2d051800 	stccs	8, cr1, [r5, #-0]
    7344:	00000177 	andeq	r0, r0, r7, ror r1
    7348:	0003620b 	andeq	r6, r3, fp, lsl #4
    734c:	772f0500 	strvc	r0, [pc, -r0, lsl #10]!
    7350:	00000001 	andeq	r0, r0, r1
    7354:	006b5f10 	rsbeq	r5, fp, r0, lsl pc
    7358:	00253005 	eoreq	r3, r5, r5
    735c:	0b040000 	bleq	107364 <__bss_end__+0xfd324>
    7360:	00000399 	muleq	r0, r9, r3
    7364:	00253005 	eoreq	r3, r5, r5
    7368:	0b080000 	bleq	207370 <__bss_end__+0x1fd330>
    736c:	000001aa 	andeq	r0, r0, sl, lsr #3
    7370:	00253005 	eoreq	r3, r5, r5
    7374:	0b0c0000 	bleq	30737c <__bss_end__+0x2fd33c>
    7378:	000004a6 	andeq	r0, r0, r6, lsr #9
    737c:	00253005 	eoreq	r3, r5, r5
    7380:	10100000 	andsne	r0, r0, r0
    7384:	0500785f 	streq	r7, [r0, #-2143]	; 0xfffff7a1
    7388:	00017d31 	andeq	r7, r1, r1, lsr sp
    738c:	0d001400 	cfstrseq	mvf1, [r0, #-0]
    7390:	00012404 	andeq	r2, r1, r4, lsl #8
    7394:	01190800 	tsteq	r9, r0, lsl #16
    7398:	018d0000 	orreq	r0, sp, r0
    739c:	c7090000 	strgt	r0, [r9, -r0]
    73a0:	00000000 	andeq	r0, r0, r0
    73a4:	01ee0f00 	mvneq	r0, r0, lsl #30
    73a8:	05240000 	streq	r0, [r4, #-0]!
    73ac:	00020635 	andeq	r0, r2, r5, lsr r6
    73b0:	00af0b00 	adceq	r0, pc, r0, lsl #22
    73b4:	37050000 	strcc	r0, [r5, -r0]
    73b8:	00000025 	andeq	r0, r0, r5, lsr #32
    73bc:	03cc0b00 	biceq	r0, ip, #0, 22
    73c0:	38050000 	stmdacc	r5, {}	; <UNPREDICTABLE>
    73c4:	00000025 	andeq	r0, r0, r5, lsr #32
    73c8:	00d20b04 	sbcseq	r0, r2, r4, lsl #22
    73cc:	39050000 	stmdbcc	r5, {}	; <UNPREDICTABLE>
    73d0:	00000025 	andeq	r0, r0, r5, lsr #32
    73d4:	05270b08 	streq	r0, [r7, #-2824]!	; 0xfffff4f8
    73d8:	3a050000 	bcc	1473e0 <__bss_end__+0x13d3a0>
    73dc:	00000025 	andeq	r0, r0, r5, lsr #32
    73e0:	02be0b0c 	adcseq	r0, lr, #12, 22	; 0x3000
    73e4:	3b050000 	blcc	1473ec <__bss_end__+0x13d3ac>
    73e8:	00000025 	andeq	r0, r0, r5, lsr #32
    73ec:	02970b10 	addseq	r0, r7, #16, 22	; 0x4000
    73f0:	3c050000 	stccc	0, cr0, [r5], {-0}
    73f4:	00000025 	andeq	r0, r0, r5, lsr #32
    73f8:	04ab0b14 	strteq	r0, [fp], #2836	; 0xb14
    73fc:	3d050000 	stccc	0, cr0, [r5, #-0]
    7400:	00000025 	andeq	r0, r0, r5, lsr #32
    7404:	03230b18 			; <UNDEFINED> instruction: 0x03230b18
    7408:	3e050000 	cdpcc	0, 0, cr0, cr5, cr0, {0}
    740c:	00000025 	andeq	r0, r0, r5, lsr #32
    7410:	04ee0b1c 	strbteq	r0, [lr], #2844	; 0xb1c
    7414:	3f050000 	svccc	0x00050000
    7418:	00000025 	andeq	r0, r0, r5, lsr #32
    741c:	12110020 	andsne	r0, r1, #32
    7420:	08000001 	stmdaeq	r0, {r0}
    7424:	46480501 	strbmi	r0, [r8], -r1, lsl #10
    7428:	0b000002 	bleq	7438 <_start-0xbc8>
    742c:	0000019d 	muleq	r0, sp, r1
    7430:	02464905 	subeq	r4, r6, #81920	; 0x14000
    7434:	0b000000 	bleq	743c <_start-0xbc4>
    7438:	00000000 	andeq	r0, r0, r0
    743c:	02464a05 	subeq	r4, r6, #20480	; 0x5000
    7440:	12800000 	addne	r0, r0, #0
    7444:	0000044a 	andeq	r0, r0, sl, asr #8
    7448:	01194c05 	tsteq	r9, r5, lsl #24
    744c:	01000000 	mrseq	r0, (UNDEF: 0)
    7450:	00013712 	andeq	r3, r1, r2, lsl r7
    7454:	194f0500 	stmdbne	pc, {r8, sl}^	; <UNPREDICTABLE>
    7458:	04000001 	streq	r0, [r0], #-1
    745c:	05080001 	streq	r0, [r8, #-1]
    7460:	56000001 	strpl	r0, [r0], -r1
    7464:	09000002 	stmdbeq	r0, {r1}
    7468:	000000c7 	andeq	r0, r0, r7, asr #1
    746c:	c711001f 			; <UNDEFINED> instruction: 0xc711001f
    7470:	90000002 	andls	r0, r0, r2
    7474:	945b0501 	ldrbls	r0, [fp], #-1281	; 0xfffffaff
    7478:	0b000002 	bleq	7488 <_start-0xb78>
    747c:	00000362 	andeq	r0, r0, r2, ror #6
    7480:	02945c05 	addseq	r5, r4, #1280	; 0x500
    7484:	0b000000 	bleq	748c <_start-0xb74>
    7488:	0000037a 	andeq	r0, r0, sl, ror r3
    748c:	00255d05 	eoreq	r5, r5, r5, lsl #26
    7490:	0b040000 	bleq	107498 <__bss_end__+0xfd458>
    7494:	000001a5 	andeq	r0, r0, r5, lsr #3
    7498:	029a5f05 	addseq	r5, sl, #5, 30
    749c:	0b080000 	bleq	2074a4 <__bss_end__+0x1fd464>
    74a0:	00000112 	andeq	r0, r0, r2, lsl r1
    74a4:	02066005 	andeq	r6, r6, #5
    74a8:	00880000 	addeq	r0, r8, r0
    74ac:	0256040d 	subseq	r0, r6, #218103808	; 0xd000000
    74b0:	aa080000 	bge	2074b8 <__bss_end__+0x1fd478>
    74b4:	aa000002 	bge	74c4 <_start-0xb3c>
    74b8:	09000002 	stmdbeq	r0, {r1}
    74bc:	000000c7 	andeq	r0, r0, r7, asr #1
    74c0:	040d001f 	streq	r0, [sp], #-31	; 0xffffffe1
    74c4:	000002b0 			; <UNDEFINED> instruction: 0x000002b0
    74c8:	032d0f13 			; <UNDEFINED> instruction: 0x032d0f13
    74cc:	05080000 	streq	r0, [r8, #-0]
    74d0:	0002d673 	andeq	sp, r2, r3, ror r6
    74d4:	00cc0b00 	sbceq	r0, ip, r0, lsl #22
    74d8:	74050000 	strvc	r0, [r5], #-0
    74dc:	000002d6 	ldrdeq	r0, [r0], -r6
    74e0:	001b0b00 	andseq	r0, fp, r0, lsl #22
    74e4:	75050000 	strvc	r0, [r5, #-0]
    74e8:	00000025 	andeq	r0, r0, r5, lsr #32
    74ec:	040d0004 	streq	r0, [sp], #-4
    74f0:	0000004f 	andeq	r0, r0, pc, asr #32
    74f4:	00034c0f 	andeq	r4, r3, pc, lsl #24
    74f8:	b3056800 	movwlt	r6, #22528	; 0x5800
    74fc:	00000406 	andeq	r0, r0, r6, lsl #8
    7500:	00705f10 	rsbseq	r5, r0, r0, lsl pc
    7504:	02d6b405 	sbcseq	fp, r6, #83886080	; 0x5000000
    7508:	10000000 	andne	r0, r0, r0
    750c:	0500725f 	streq	r7, [r0, #-607]	; 0xfffffda1
    7510:	000025b5 			; <UNDEFINED> instruction: 0x000025b5
    7514:	5f100400 	svcpl	0x00100400
    7518:	b6050077 			; <UNDEFINED> instruction: 0xb6050077
    751c:	00000025 	andeq	r0, r0, r5, lsr #32
    7520:	01300b08 	teqeq	r0, r8, lsl #22
    7524:	b7050000 	strlt	r0, [r5, -r0]
    7528:	0000003a 	andeq	r0, r0, sl, lsr r0
    752c:	02190b0c 	andseq	r0, r9, #12, 22	; 0x3000
    7530:	b8050000 	stmdalt	r5, {}	; <UNPREDICTABLE>
    7534:	0000003a 	andeq	r0, r0, sl, lsr r0
    7538:	625f100e 	subsvs	r1, pc, #14
    753c:	b9050066 	stmdblt	r5, {r1, r2, r5, r6}
    7540:	000002b1 			; <UNDEFINED> instruction: 0x000002b1
    7544:	00890b10 	addeq	r0, r9, r0, lsl fp
    7548:	ba050000 	blt	147550 <__bss_end__+0x13d510>
    754c:	00000025 	andeq	r0, r0, r5, lsr #32
    7550:	01200b18 			; <UNDEFINED> instruction: 0x01200b18
    7554:	c1050000 	mrsgt	r0, (UNDEF: 5)
    7558:	00000105 	andeq	r0, r0, r5, lsl #2
    755c:	0a7d0b1c 	beq	1f4a1d4 <__bss_end__+0x1f40194>
    7560:	c3050000 	movwgt	r0, #20480	; 0x5000
    7564:	00000561 	andeq	r0, r0, r1, ror #10
    7568:	06110b20 	ldreq	r0, [r1], -r0, lsr #22
    756c:	c5050000 	strgt	r0, [r5, #-0]
    7570:	0000058b 	andeq	r0, r0, fp, lsl #11
    7574:	03be0b24 			; <UNDEFINED> instruction: 0x03be0b24
    7578:	c8050000 	stmdagt	r5, {}	; <UNPREDICTABLE>
    757c:	000005af 	andeq	r0, r0, pc, lsr #11
    7580:	05080b28 	streq	r0, [r8, #-2856]	; 0xfffff4d8
    7584:	c9050000 	stmdbgt	r5, {}	; <UNPREDICTABLE>
    7588:	000005c9 	andeq	r0, r0, r9, asr #11
    758c:	755f102c 	ldrbvc	r1, [pc, #-44]	; 7568 <_start-0xa98>
    7590:	cc050062 	stcgt	0, cr0, [r5], {98}	; 0x62
    7594:	000002b1 			; <UNDEFINED> instruction: 0x000002b1
    7598:	755f1030 	ldrbvc	r1, [pc, #-48]	; 7570 <_start-0xa90>
    759c:	cd050070 	stcgt	0, cr0, [r5, #-448]	; 0xfffffe40
    75a0:	000002d6 	ldrdeq	r0, [r0], -r6
    75a4:	755f1038 	ldrbvc	r1, [pc, #-56]	; 7574 <_start-0xa8c>
    75a8:	ce050072 	mcrgt	0, 0, r0, cr5, cr2, {3}
    75ac:	00000025 	andeq	r0, r0, r5, lsr #32
    75b0:	00c60b3c 	sbceq	r0, r6, ip, lsr fp
    75b4:	d1050000 	mrsle	r0, (UNDEF: 5)
    75b8:	000005cf 	andeq	r0, r0, pc, asr #11
    75bc:	04e00b40 	strbteq	r0, [r0], #2880	; 0xb40
    75c0:	d2050000 	andle	r0, r5, #0
    75c4:	000005df 	ldrdeq	r0, [r0], -pc	; <UNPREDICTABLE>
    75c8:	6c5f1043 	mrrcvs	0, 4, r1, pc, cr3	; <UNPREDICTABLE>
    75cc:	d5050062 	strle	r0, [r5, #-98]	; 0xffffff9e
    75d0:	000002b1 			; <UNDEFINED> instruction: 0x000002b1
    75d4:	014e0b44 	cmpeq	lr, r4, asr #22
    75d8:	d8050000 	stmdale	r5, {}	; <UNPREDICTABLE>
    75dc:	00000025 	andeq	r0, r0, r5, lsr #32
    75e0:	015f0b4c 	cmpeq	pc, ip, asr #22
    75e4:	d9050000 	stmdble	r5, {}	; <UNPREDICTABLE>
    75e8:	00000076 	andeq	r0, r0, r6, ror r0
    75ec:	0a1e0b50 	beq	78a334 <__bss_end__+0x7802f4>
    75f0:	dc050000 	stcle	0, cr0, [r5], {-0}
    75f4:	00000424 	andeq	r0, r0, r4, lsr #8
    75f8:	02840b54 	addeq	r0, r4, #84, 22	; 0x15000
    75fc:	e0050000 	and	r0, r5, r0
    7600:	000000fa 	strdeq	r0, [r0], -sl
    7604:	03540b58 	cmpeq	r4, #88, 22	; 0x16000
    7608:	e2050000 	and	r0, r5, #0
    760c:	000000ef 	andeq	r0, r0, pc, ror #1
    7610:	028f0b5c 	addeq	r0, pc, #92, 22	; 0x17000
    7614:	e3050000 	movw	r0, #20480	; 0x5000
    7618:	00000025 	andeq	r0, r0, r5, lsr #32
    761c:	25140064 	ldrcs	r0, [r4, #-100]	; 0xffffff9c
    7620:	24000000 	strcs	r0, [r0], #-0
    7624:	15000004 	strne	r0, [r0, #-4]
    7628:	00000424 	andeq	r0, r0, r4, lsr #8
    762c:	00010515 	andeq	r0, r1, r5, lsl r5
    7630:	01071500 	tsteq	r7, r0, lsl #10
    7634:	25150000 	ldrcs	r0, [r5, #-0]
    7638:	00000000 	andeq	r0, r0, r0
    763c:	042f040d 	strteq	r0, [pc], #-1037	; 7644 <_start-0x9bc>
    7640:	240e0000 	strcs	r0, [lr], #-0
    7644:	16000004 	strne	r0, [r0], -r4
    7648:	000003a1 	andeq	r0, r0, r1, lsr #7
    764c:	38050428 	stmdacc	r5, {r3, r5, sl}
    7650:	00056102 	andeq	r6, r5, r2, lsl #2
    7654:	03121700 	tsteq	r2, #0, 14
    7658:	3a050000 	bcc	147660 <__bss_end__+0x13d620>
    765c:	00002502 	andeq	r2, r0, r2, lsl #10
    7660:	3f170000 	svccc	0x00170000
    7664:	05000001 	streq	r0, [r0, #-1]
    7668:	0636023f 			; <UNDEFINED> instruction: 0x0636023f
    766c:	17040000 	strne	r0, [r4, -r0]
    7670:	00000209 	andeq	r0, r0, r9, lsl #4
    7674:	36023f05 	strcc	r3, [r2], -r5, lsl #30
    7678:	08000006 	stmdaeq	r0, {r1, r2}
    767c:	0001b917 	andeq	fp, r1, r7, lsl r9
    7680:	023f0500 	eorseq	r0, pc, #0, 10
    7684:	00000636 	andeq	r0, r0, r6, lsr r6
    7688:	0375170c 	cmneq	r5, #12, 14	; 0x300000
    768c:	41050000 	mrsmi	r0, (UNDEF: 5)
    7690:	00002502 	andeq	r2, r0, r2, lsl #10
    7694:	37171000 	ldrcc	r1, [r7, -r0]
    7698:	05000000 	streq	r0, [r0, #-0]
    769c:	08180242 	ldmdaeq	r8, {r1, r6, r9}
    76a0:	17140000 	ldrne	r0, [r4, -r0]
    76a4:	00000480 	andeq	r0, r0, r0, lsl #9
    76a8:	25024405 	strcs	r4, [r2, #-1029]	; 0xfffffbfb
    76ac:	30000000 	andcc	r0, r0, r0
    76b0:	00037f17 	andeq	r7, r3, r7, lsl pc
    76b4:	02450500 	subeq	r0, r5, #0, 10
    76b8:	00000585 	andeq	r0, r0, r5, lsl #11
    76bc:	02cf1734 	sbceq	r1, pc, #52, 14	; 0xd00000
    76c0:	47050000 	strmi	r0, [r5, -r0]
    76c4:	00002502 	andeq	r2, r0, r2, lsl #10
    76c8:	8f173800 	svchi	0x00173800
    76cc:	05000003 	streq	r0, [r0, #-3]
    76d0:	08330249 	ldmdaeq	r3!, {r0, r3, r6, r9}
    76d4:	173c0000 	ldrne	r0, [ip, -r0]!
    76d8:	00000268 	andeq	r0, r0, r8, ror #4
    76dc:	77024c05 	strvc	r4, [r2, -r5, lsl #24]
    76e0:	40000001 	andmi	r0, r0, r1
    76e4:	0001d817 	andeq	sp, r1, r7, lsl r8
    76e8:	024d0500 	subeq	r0, sp, #0, 10
    76ec:	00000025 	andeq	r0, r0, r5, lsr #32
    76f0:	05221744 	streq	r1, [r2, #-1860]!	; 0xfffff8bc
    76f4:	4e050000 	cdpmi	0, 0, cr0, cr5, cr0, {0}
    76f8:	00017702 	andeq	r7, r1, r2, lsl #14
    76fc:	e1174800 	tst	r7, r0, lsl #16
    7700:	05000002 	streq	r0, [r0, #-2]
    7704:	0839024f 	ldmdaeq	r9!, {r0, r1, r2, r3, r6, r9}
    7708:	174c0000 	strbne	r0, [ip, -r0]
    770c:	00000211 	andeq	r0, r0, r1, lsl r2
    7710:	25025205 	strcs	r5, [r2, #-517]	; 0xfffffdfb
    7714:	50000000 	andpl	r0, r0, r0
    7718:	00015717 	andeq	r5, r1, r7, lsl r7
    771c:	02530500 	subseq	r0, r3, #0, 10
    7720:	00000107 	andeq	r0, r0, r7, lsl #2
    7724:	030b1754 	movweq	r1, #46932	; 0xb754
    7728:	76050000 	strvc	r0, [r5], -r0
    772c:	0007f602 	andeq	pc, r7, r2, lsl #12
    7730:	c7185800 	ldrgt	r5, [r8, -r0, lsl #16]
    7734:	05000002 	streq	r0, [r0, #-2]
    7738:	0294027a 	addseq	r0, r4, #-1610612729	; 0xa0000007
    773c:	01480000 	mrseq	r0, (UNDEF: 72)
    7740:	00024618 	andeq	r4, r2, r8, lsl r6
    7744:	027b0500 	rsbseq	r0, fp, #0, 10
    7748:	00000256 	andeq	r0, r0, r6, asr r2
    774c:	ce18014c 	mufgtem	f0, f0, #4.0
    7750:	05000004 	streq	r0, [r0, #-4]
    7754:	084a027f 	stmdaeq	sl, {r0, r1, r2, r3, r4, r5, r6, r9}^
    7758:	02dc0000 	sbcseq	r0, ip, #0
    775c:	00012818 	andeq	r2, r1, r8, lsl r8
    7760:	02840500 	addeq	r0, r4, #0, 10
    7764:	000005fb 	strdeq	r0, [r0], -fp
    7768:	0d1802e0 	lfmeq	f0, 4, [r8, #-896]	; 0xfffffc80
    776c:	05000001 	streq	r0, [r0, #-1]
    7770:	08560285 	ldmdaeq	r6, {r0, r2, r7, r9}^
    7774:	02ec0000 	rsceq	r0, ip, #0
    7778:	06040d00 	streq	r0, [r4], -r0, lsl #26
    777c:	14000004 	strne	r0, [r0], #-4
    7780:	00000025 	andeq	r0, r0, r5, lsr #32
    7784:	00000585 	andeq	r0, r0, r5, lsl #11
    7788:	00042415 	andeq	r2, r4, r5, lsl r4
    778c:	01051500 	tsteq	r5, r0, lsl #10
    7790:	85150000 	ldrhi	r0, [r5, #-0]
    7794:	15000005 	strne	r0, [r0, #-5]
    7798:	00000025 	andeq	r0, r0, r5, lsr #32
    779c:	14040d00 	strne	r0, [r4], #-3328	; 0xfffff300
    77a0:	0d000001 	stceq	0, cr0, [r0, #-4]
    77a4:	00056704 	andeq	r6, r5, r4, lsl #14
    77a8:	00811400 	addeq	r1, r1, r0, lsl #8
    77ac:	05af0000 	streq	r0, [pc, #0]!	; 77b4 <_start-0x84c>
    77b0:	24150000 	ldrcs	r0, [r5], #-0
    77b4:	15000004 	strne	r0, [r0, #-4]
    77b8:	00000105 	andeq	r0, r0, r5, lsl #2
    77bc:	00008115 	andeq	r8, r0, r5, lsl r1
    77c0:	00251500 	eoreq	r1, r5, r0, lsl #10
    77c4:	0d000000 	stceq	0, cr0, [r0, #-0]
    77c8:	00059104 	andeq	r9, r5, r4, lsl #2
    77cc:	00251400 	eoreq	r1, r5, r0, lsl #8
    77d0:	05c90000 	strbeq	r0, [r9]
    77d4:	24150000 	ldrcs	r0, [r5], #-0
    77d8:	15000004 	strne	r0, [r0, #-4]
    77dc:	00000105 	andeq	r0, r0, r5, lsl #2
    77e0:	b5040d00 	strlt	r0, [r4, #-3328]	; 0xfffff300
    77e4:	08000005 	stmdaeq	r0, {r0, r2}
    77e8:	0000004f 	andeq	r0, r0, pc, asr #32
    77ec:	000005df 	ldrdeq	r0, [r0], -pc	; <UNPREDICTABLE>
    77f0:	0000c709 	andeq	ip, r0, r9, lsl #14
    77f4:	08000200 	stmdaeq	r0, {r9}
    77f8:	0000004f 	andeq	r0, r0, pc, asr #32
    77fc:	000005ef 	andeq	r0, r0, pc, ror #11
    7800:	0000c709 	andeq	ip, r0, r9, lsl #14
    7804:	05000000 	streq	r0, [r0, #-0]
    7808:	0000033a 	andeq	r0, r0, sl, lsr r3
    780c:	dc011d05 	stcle	13, cr1, [r1], {5}
    7810:	19000002 	stmdbne	r0, {r1}
    7814:	000004b5 			; <UNDEFINED> instruction: 0x000004b5
    7818:	0121050c 			; <UNDEFINED> instruction: 0x0121050c
    781c:	00000630 	andeq	r0, r0, r0, lsr r6
    7820:	00036217 	andeq	r6, r3, r7, lsl r2
    7824:	01230500 			; <UNDEFINED> instruction: 0x01230500
    7828:	00000630 	andeq	r0, r0, r0, lsr r6
    782c:	022c1700 	eoreq	r1, ip, #0, 14
    7830:	24050000 	strcs	r0, [r5], #-0
    7834:	00002501 	andeq	r2, r0, r1, lsl #10
    7838:	34170400 	ldrcc	r0, [r7], #-1024	; 0xfffffc00
    783c:	05000003 	streq	r0, [r0, #-3]
    7840:	06360125 	ldrteq	r0, [r6], -r5, lsr #2
    7844:	00080000 	andeq	r0, r8, r0
    7848:	05fb040d 	ldrbeq	r0, [fp, #1037]!	; 0x40d
    784c:	040d0000 	streq	r0, [sp], #-0
    7850:	000005ef 	andeq	r0, r0, pc, ror #11
    7854:	00002f19 	andeq	r2, r0, r9, lsl pc
    7858:	3d050e00 	stccc	14, cr0, [r5, #-0]
    785c:	00067101 	andeq	r7, r6, r1, lsl #2
    7860:	03a81700 			; <UNDEFINED> instruction: 0x03a81700
    7864:	3e050000 	cdpcc	0, 0, cr0, cr5, cr0, {0}
    7868:	00067101 	andeq	r7, r6, r1, lsl #2
    786c:	d5170000 	ldrle	r0, [r7, #-0]
    7870:	05000003 	streq	r0, [r0, #-3]
    7874:	0671013f 			; <UNDEFINED> instruction: 0x0671013f
    7878:	17060000 	strne	r0, [r6, -r0]
    787c:	00000453 	andeq	r0, r0, r3, asr r4
    7880:	56014005 	strpl	r4, [r1], -r5
    7884:	0c000000 	stceq	0, cr0, [r0], {-0}
    7888:	00560800 	subseq	r0, r6, r0, lsl #16
    788c:	06810000 	streq	r0, [r1], r0
    7890:	c7090000 	strgt	r0, [r9, -r0]
    7894:	02000000 	andeq	r0, r0, #0
    7898:	05d01a00 	ldrbeq	r1, [r0, #2560]	; 0xa00
    789c:	07820257 			; <UNDEFINED> instruction: 0x07820257
    78a0:	99170000 	ldmdbls	r7, {}	; <UNPREDICTABLE>
    78a4:	05000004 	streq	r0, [r0, #-4]
    78a8:	002c0259 	eoreq	r0, ip, r9, asr r2
    78ac:	17000000 	strne	r0, [r0, -r0]
    78b0:	0000043d 	andeq	r0, r0, sp, lsr r4
    78b4:	07025a05 	streq	r5, [r2, -r5, lsl #20]
    78b8:	04000001 	streq	r0, [r0], #-1
    78bc:	00025b17 	andeq	r5, r2, r7, lsl fp
    78c0:	025b0500 	subseq	r0, fp, #0, 10
    78c4:	00000782 	andeq	r0, r0, r2, lsl #15
    78c8:	04f91708 	ldrbteq	r1, [r9], #1800	; 0x708
    78cc:	5c050000 	stcpl	0, cr0, [r5], {-0}
    78d0:	00018d02 	andeq	r8, r1, r2, lsl #26
    78d4:	c9172400 	ldmdbgt	r7, {sl, sp}
    78d8:	05000001 	streq	r0, [r0, #-1]
    78dc:	0025025d 	eoreq	r0, r5, sp, asr r2
    78e0:	17480000 	strbne	r0, [r8, -r0]
    78e4:	0000035d 	andeq	r0, r0, sp, asr r3
    78e8:	64025e05 	strvs	r5, [r2], #-3589	; 0xfffff1fb
    78ec:	50000000 	andpl	r0, r0, r0
    78f0:	00050f17 	andeq	r0, r5, r7, lsl pc
    78f4:	025f0500 	subseq	r0, pc, #0, 10
    78f8:	0000063c 	andeq	r0, r0, ip, lsr r6
    78fc:	03681758 	cmneq	r8, #88, 14	; 0x1600000
    7900:	60050000 	andvs	r0, r5, r0
    7904:	0000ef02 	andeq	lr, r0, r2, lsl #30
    7908:	14176800 	ldrne	r6, [r7], #-2048	; 0xfffff800
    790c:	05000005 	streq	r0, [r0, #-5]
    7910:	00ef0261 	rsceq	r0, pc, r1, ror #4
    7914:	17700000 	ldrbne	r0, [r0, -r0]!
    7918:	000000a1 	andeq	r0, r0, r1, lsr #1
    791c:	ef026205 	svc	0x00026205
    7920:	78000000 	stmdavc	r0, {}	; <UNPREDICTABLE>
    7924:	0004c417 	andeq	ip, r4, r7, lsl r4
    7928:	02630500 	rsbeq	r0, r3, #0, 10
    792c:	00000792 	muleq	r0, r2, r7
    7930:	024f1780 	subeq	r1, pc, #128, 14	; 0x2000000
    7934:	64050000 	strvs	r0, [r5], #-0
    7938:	0007a202 	andeq	sl, r7, r2, lsl #4
    793c:	60178800 	andsvs	r8, r7, r0, lsl #16
    7940:	05000004 	streq	r0, [r0, #-4]
    7944:	00250265 	eoreq	r0, r5, r5, ror #4
    7948:	17a00000 	strne	r0, [r0, r0]!
    794c:	0000018f 	andeq	r0, r0, pc, lsl #3
    7950:	ef026605 	svc	0x00026605
    7954:	a4000000 	strge	r0, [r0], #-0
    7958:	00009217 	andeq	r9, r0, r7, lsl r2
    795c:	02670500 	rsbeq	r0, r7, #0, 10
    7960:	000000ef 	andeq	r0, r0, pc, ror #1
    7964:	017e17ac 	cmneq	lr, ip, lsr #15
    7968:	68050000 	stmdavs	r5, {}	; <UNPREDICTABLE>
    796c:	0000ef02 	andeq	lr, r0, r2, lsl #30
    7970:	4a17b400 	bmi	5f4978 <__bss_end__+0x5ea938>
    7974:	05000000 	streq	r0, [r0, #-0]
    7978:	00ef0269 	rsceq	r0, pc, r9, ror #4
    797c:	17bc0000 	ldrne	r0, [ip, r0]!
    7980:	00000059 	andeq	r0, r0, r9, asr r0
    7984:	ef026a05 	svc	0x00026a05
    7988:	c4000000 	strgt	r0, [r0], #-0
    798c:	00031017 	andeq	r1, r3, r7, lsl r0
    7990:	026b0500 	rsbeq	r0, fp, #0, 10
    7994:	00000025 	andeq	r0, r0, r5, lsr #32
    7998:	0d0800cc 	stceq	0, cr0, [r8, #-816]	; 0xfffffcd0
    799c:	92000001 	andls	r0, r0, #1
    79a0:	09000007 	stmdbeq	r0, {r0, r1, r2}
    79a4:	000000c7 	andeq	r0, r0, r7, asr #1
    79a8:	0d080019 	stceq	0, cr0, [r8, #-100]	; 0xffffff9c
    79ac:	a2000001 	andge	r0, r0, #1
    79b0:	09000007 	stmdbeq	r0, {r0, r1, r2}
    79b4:	000000c7 	andeq	r0, r0, r7, asr #1
    79b8:	0d080007 	stceq	0, cr0, [r8, #-28]	; 0xffffffe4
    79bc:	b2000001 	andlt	r0, r0, #1
    79c0:	09000007 	stmdbeq	r0, {r0, r1, r2}
    79c4:	000000c7 	andeq	r0, r0, r7, asr #1
    79c8:	f01a0017 			; <UNDEFINED> instruction: 0xf01a0017
    79cc:	d6027005 	strle	r7, [r2], -r5
    79d0:	17000007 	strne	r0, [r0, -r7]
    79d4:	000002b7 			; <UNDEFINED> instruction: 0x000002b7
    79d8:	d6027305 	strle	r7, [r2], -r5, lsl #6
    79dc:	00000007 	andeq	r0, r0, r7
    79e0:	0004bb17 	andeq	fp, r4, r7, lsl fp
    79e4:	02740500 	rsbseq	r0, r4, #0, 10
    79e8:	000007e6 	andeq	r0, r0, r6, ror #15
    79ec:	d6080078 			; <UNDEFINED> instruction: 0xd6080078
    79f0:	e6000002 	str	r0, [r0], -r2
    79f4:	09000007 	stmdbeq	r0, {r0, r1, r2}
    79f8:	000000c7 	andeq	r0, r0, r7, asr #1
    79fc:	2c08001d 	stccs	0, cr0, [r8], {29}
    7a00:	f6000000 			; <UNDEFINED> instruction: 0xf6000000
    7a04:	09000007 	stmdbeq	r0, {r0, r1, r2}
    7a08:	000000c7 	andeq	r0, r0, r7, asr #1
    7a0c:	f01b001d 			; <UNDEFINED> instruction: 0xf01b001d
    7a10:	18025505 	stmdane	r2, {r0, r2, r8, sl, ip, lr}
    7a14:	1c000008 	stcne	0, cr0, [r0], {8}
    7a18:	000003a1 	andeq	r0, r0, r1, lsr #7
    7a1c:	81026c05 	tsthi	r2, r5, lsl #24
    7a20:	1c000006 	stcne	0, cr0, [r0], {6}
    7a24:	000004e6 	andeq	r0, r0, r6, ror #9
    7a28:	b2027505 	andlt	r7, r2, #20971520	; 0x1400000
    7a2c:	00000007 	andeq	r0, r0, r7
    7a30:	00010d08 	andeq	r0, r1, r8, lsl #26
    7a34:	00082800 	andeq	r2, r8, r0, lsl #16
    7a38:	00c70900 	sbceq	r0, r7, r0, lsl #18
    7a3c:	00180000 	andseq	r0, r8, r0
    7a40:	0008331d 	andeq	r3, r8, sp, lsl r3
    7a44:	04241500 	strteq	r1, [r4], #-1280	; 0xfffffb00
    7a48:	0d000000 	stceq	0, cr0, [r0, #-0]
    7a4c:	00082804 	andeq	r2, r8, r4, lsl #16
    7a50:	77040d00 	strvc	r0, [r4, -r0, lsl #26]
    7a54:	1d000001 	stcne	0, cr0, [r0, #-4]
    7a58:	0000084a 	andeq	r0, r0, sl, asr #16
    7a5c:	00002515 	andeq	r2, r0, r5, lsl r5
    7a60:	040d0000 	streq	r0, [sp], #-0
    7a64:	00000850 	andeq	r0, r0, r0, asr r8
    7a68:	083f040d 	ldmdaeq	pc!, {r0, r2, r3, sl}	; <UNPREDICTABLE>
    7a6c:	ef080000 	svc	0x00080000
    7a70:	66000005 	strvs	r0, [r0], -r5
    7a74:	09000008 	stmdbeq	r0, {r3}
    7a78:	000000c7 	andeq	r0, r0, r7, asr #1
    7a7c:	741e0002 	ldrvc	r0, [lr], #-2
    7a80:	05000004 	streq	r0, [r0, #-4]
    7a84:	042402fd 	strteq	r0, [r4], #-765	; 0xfffffd03
    7a88:	6d1e0000 	ldcvs	0, cr0, [lr, #-0]
    7a8c:	05000004 	streq	r0, [r0, #-4]
    7a90:	042a02fe 	strteq	r0, [sl], #-766	; 0xfffffd02
    7a94:	25140000 	ldrcs	r0, [r4, #-0]
    7a98:	8d000000 	stchi	0, cr0, [r0, #-0]
    7a9c:	15000008 	strne	r0, [r0, #-8]
    7aa0:	00000025 	andeq	r0, r0, r5, lsr #32
    7aa4:	01e21f00 	mvneq	r1, r0, lsl #30
    7aa8:	1d060000 	stcne	0, cr0, [r6, #-0]
    7aac:	00000898 	muleq	r0, r8, r8
    7ab0:	087e040d 	ldmdaeq	lr!, {r0, r2, r3, sl}^
    7ab4:	25140000 	ldrcs	r0, [r4, #-0]
    7ab8:	ad000000 	stcge	0, cr0, [r0, #-0]
    7abc:	15000008 	strne	r0, [r0, #-8]
    7ac0:	00000585 	andeq	r0, r0, r5, lsl #11
    7ac4:	076e1f00 	strbeq	r1, [lr, -r0, lsl #30]!
    7ac8:	22060000 	andcs	r0, r6, #0
    7acc:	000008b8 			; <UNDEFINED> instruction: 0x000008b8
    7ad0:	089e040d 	ldmeq	lr, {r0, r2, r3, sl}
    7ad4:	a1200000 			; <UNDEFINED> instruction: 0xa1200000
    7ad8:	01000002 	tsteq	r0, r2
    7adc:	00911804 	addseq	r1, r1, r4, lsl #16
    7ae0:	00002800 	andeq	r2, r0, r0, lsl #16
    7ae4:	049c0100 	ldreq	r0, [ip], #256	; 0x100
    7ae8:	21000009 	tstcs	r0, r9
    7aec:	0000912c 	andeq	r9, r0, ip, lsr #2
    7af0:	000008e6 	andeq	r0, r0, r6, ror #17
    7af4:	05500122 	ldrbeq	r0, [r0, #-290]	; 0xfffffede
    7af8:	009b0403 	addseq	r0, fp, r3, lsl #8
    7afc:	34230000 	strtcc	r0, [r3], #-0
    7b00:	04000091 	streq	r0, [r0], #-145	; 0xffffff6f
    7b04:	fa000009 	blx	7b30 <_start-0x4d0>
    7b08:	22000008 	andcs	r0, r0, #8
    7b0c:	08025001 	stmdaeq	r2, {r0, ip, lr}
    7b10:	38240064 	stmdacc	r4!, {r2, r5, r6}
    7b14:	0f000091 	svceq	0x00000091
    7b18:	00000009 	andeq	r0, r0, r9
    7b1c:	00084825 	andeq	r4, r8, r5, lsr #16
    7b20:	00084800 	andeq	r4, r8, r0, lsl #16
    7b24:	254f0600 	strbcs	r0, [pc, #-1536]	; 752c <_start-0xad4>
    7b28:	00000851 	andeq	r0, r0, r1, asr r8
    7b2c:	00000851 	andeq	r0, r0, r1, asr r8
    7b30:	17006206 	strne	r6, [r0, -r6, lsl #4]
    7b34:	0400000a 	streq	r0, [r0], #-10
    7b38:	00178600 	andseq	r8, r7, r0, lsl #12
    7b3c:	db010400 	blle	48b44 <__bss_end__+0x3eb04>
    7b40:	0c000003 	stceq	0, cr0, [r0], {3}
    7b44:	000008cb 	andeq	r0, r0, fp, asr #17
    7b48:	000006e3 	andeq	r0, r0, r3, ror #13
    7b4c:	00009140 	andeq	r9, r0, r0, asr #2
    7b50:	00000088 	andeq	r0, r0, r8, lsl #1
    7b54:	00000cbc 			; <UNDEFINED> instruction: 0x00000cbc
    7b58:	69050402 	stmdbvs	r5, {r1, sl}
    7b5c:	0300746e 	movweq	r7, #1134	; 0x46e
    7b60:	00740704 	rsbseq	r0, r4, r4, lsl #14
    7b64:	01030000 	mrseq	r0, (UNDEF: 3)
    7b68:	0002ff06 	andeq	pc, r2, r6, lsl #30
    7b6c:	05020300 	streq	r0, [r2, #-768]	; 0xfffffd00
    7b70:	00000319 	andeq	r0, r0, r9, lsl r3
    7b74:	bd050403 	cfstrslt	mvf0, [r5, #-12]
    7b78:	03000000 	movweq	r0, #0
    7b7c:	00b80508 	adcseq	r0, r8, r8, lsl #10
    7b80:	01030000 	mrseq	r0, (UNDEF: 3)
    7b84:	0002fd08 	andeq	pc, r2, r8, lsl #26
    7b88:	07020300 	streq	r0, [r2, -r0, lsl #6]
    7b8c:	00000233 	andeq	r0, r0, r3, lsr r2
    7b90:	6f070403 	svcvs	0x00070403
    7b94:	03000000 	movweq	r0, #0
    7b98:	006a0708 	rsbeq	r0, sl, r8, lsl #14
    7b9c:	eb040000 	bl	107ba4 <__bss_end__+0xfdb64>
    7ba0:	02000002 	andeq	r0, r0, #2
    7ba4:	00002507 	andeq	r2, r0, r7, lsl #10
    7ba8:	02da0400 	sbcseq	r0, sl, #0, 8
    7bac:	2c030000 	stccs	0, cr0, [r3], {-0}
    7bb0:	00000041 	andeq	r0, r0, r1, asr #32
    7bb4:	0003c404 	andeq	ip, r3, r4, lsl #8
    7bb8:	41720300 	cmnmi	r2, r0, lsl #6
    7bbc:	05000000 	streq	r0, [r0, #-0]
    7bc0:	00000276 	andeq	r0, r0, r6, ror r2
    7bc4:	2c016504 	cfstr32cs	mvfx6, [r1], {4}
    7bc8:	06000000 	streq	r0, [r0], -r0
    7bcc:	b7a60304 	strlt	r0, [r6, r4, lsl #6]!
    7bd0:	07000000 	streq	r0, [r0, -r0]
    7bd4:	00000270 	andeq	r0, r0, r0, ror r2
    7bd8:	008ca803 	addeq	sl, ip, r3, lsl #16
    7bdc:	f3070000 	vhadd.u8	d0, d7, d0
    7be0:	03000001 	movweq	r0, #1
    7be4:	0000b7a9 	andeq	fp, r0, r9, lsr #15
    7be8:	4f080000 	svcmi	0x00080000
    7bec:	c7000000 	strgt	r0, [r0, -r0]
    7bf0:	09000000 	stmdbeq	r0, {}	; <UNPREDICTABLE>
    7bf4:	000000c7 	andeq	r0, r0, r7, asr #1
    7bf8:	04030003 	streq	r0, [r3], #-3
    7bfc:	0002ae07 	andeq	sl, r2, r7, lsl #28
    7c00:	03080a00 	movweq	r0, #35328	; 0x8a00
    7c04:	0000efa3 	andeq	lr, r0, r3, lsr #31
    7c08:	03ae0b00 			; <UNDEFINED> instruction: 0x03ae0b00
    7c0c:	a5030000 	strge	r0, [r3, #-0]
    7c10:	00000025 	andeq	r0, r0, r5, lsr #32
    7c14:	03b60b00 			; <UNDEFINED> instruction: 0x03b60b00
    7c18:	aa030000 	bge	c7c20 <__bss_end__+0xbdbe0>
    7c1c:	00000098 	muleq	r0, r8, r0
    7c20:	41040004 	tstmi	r4, r4
    7c24:	03000003 	movweq	r0, #3
    7c28:	0000ceab 	andeq	ip, r0, fp, lsr #29
    7c2c:	01b00400 	lslseq	r0, r0, #8
    7c30:	af030000 	svcge	0x00030000
    7c34:	0000006b 	andeq	r0, r0, fp, rrx
    7c38:	040d040c 	streq	r0, [sp], #-1036	; 0xfffffbf4
    7c3c:	0000010d 	andeq	r0, r0, sp, lsl #2
    7c40:	06080103 	streq	r0, [r8], -r3, lsl #2
    7c44:	0e000003 	cdpeq	0, 0, cr0, cr0, cr3, {0}
    7c48:	0000010d 	andeq	r0, r0, sp, lsl #2
    7c4c:	00045804 	andeq	r5, r4, r4, lsl #16
    7c50:	5d160500 	cfldr32pl	mvfx0, [r6, #-0]
    7c54:	0f000000 	svceq	0x00000000
    7c58:	000001c1 	andeq	r0, r0, r1, asr #3
    7c5c:	772d0518 			; <UNDEFINED> instruction: 0x772d0518
    7c60:	0b000001 	bleq	7c6c <_start-0x394>
    7c64:	00000362 	andeq	r0, r0, r2, ror #6
    7c68:	01772f05 	cmneq	r7, r5, lsl #30
    7c6c:	10000000 	andne	r0, r0, r0
    7c70:	05006b5f 	streq	r6, [r0, #-2911]	; 0xfffff4a1
    7c74:	00002530 	andeq	r2, r0, r0, lsr r5
    7c78:	990b0400 	stmdbls	fp, {sl}
    7c7c:	05000003 	streq	r0, [r0, #-3]
    7c80:	00002530 	andeq	r2, r0, r0, lsr r5
    7c84:	aa0b0800 	bge	2c9c8c <__bss_end__+0x2bfc4c>
    7c88:	05000001 	streq	r0, [r0, #-1]
    7c8c:	00002530 	andeq	r2, r0, r0, lsr r5
    7c90:	a60b0c00 	strge	r0, [fp], -r0, lsl #24
    7c94:	05000004 	streq	r0, [r0, #-4]
    7c98:	00002530 	andeq	r2, r0, r0, lsr r5
    7c9c:	5f101000 	svcpl	0x00101000
    7ca0:	31050078 	tstcc	r5, r8, ror r0
    7ca4:	0000017d 	andeq	r0, r0, sp, ror r1
    7ca8:	040d0014 	streq	r0, [sp], #-20	; 0xffffffec
    7cac:	00000124 	andeq	r0, r0, r4, lsr #2
    7cb0:	00011908 	andeq	r1, r1, r8, lsl #18
    7cb4:	00018d00 	andeq	r8, r1, r0, lsl #26
    7cb8:	00c70900 	sbceq	r0, r7, r0, lsl #18
    7cbc:	00000000 	andeq	r0, r0, r0
    7cc0:	0001ee0f 	andeq	lr, r1, pc, lsl #28
    7cc4:	35052400 	strcc	r2, [r5, #-1024]	; 0xfffffc00
    7cc8:	00000206 	andeq	r0, r0, r6, lsl #4
    7ccc:	0000af0b 	andeq	sl, r0, fp, lsl #30
    7cd0:	25370500 	ldrcs	r0, [r7, #-1280]!	; 0xfffffb00
    7cd4:	00000000 	andeq	r0, r0, r0
    7cd8:	0003cc0b 	andeq	ip, r3, fp, lsl #24
    7cdc:	25380500 	ldrcs	r0, [r8, #-1280]!	; 0xfffffb00
    7ce0:	04000000 	streq	r0, [r0], #-0
    7ce4:	0000d20b 	andeq	sp, r0, fp, lsl #4
    7ce8:	25390500 	ldrcs	r0, [r9, #-1280]!	; 0xfffffb00
    7cec:	08000000 	stmdaeq	r0, {}	; <UNPREDICTABLE>
    7cf0:	0005270b 	andeq	r2, r5, fp, lsl #14
    7cf4:	253a0500 	ldrcs	r0, [sl, #-1280]!	; 0xfffffb00
    7cf8:	0c000000 	stceq	0, cr0, [r0], {-0}
    7cfc:	0002be0b 	andeq	fp, r2, fp, lsl #28
    7d00:	253b0500 	ldrcs	r0, [fp, #-1280]!	; 0xfffffb00
    7d04:	10000000 	andne	r0, r0, r0
    7d08:	0002970b 	andeq	r9, r2, fp, lsl #14
    7d0c:	253c0500 	ldrcs	r0, [ip, #-1280]!	; 0xfffffb00
    7d10:	14000000 	strne	r0, [r0], #-0
    7d14:	0004ab0b 	andeq	sl, r4, fp, lsl #22
    7d18:	253d0500 	ldrcs	r0, [sp, #-1280]!	; 0xfffffb00
    7d1c:	18000000 	stmdane	r0, {}	; <UNPREDICTABLE>
    7d20:	0003230b 	andeq	r2, r3, fp, lsl #6
    7d24:	253e0500 	ldrcs	r0, [lr, #-1280]!	; 0xfffffb00
    7d28:	1c000000 	stcne	0, cr0, [r0], {-0}
    7d2c:	0004ee0b 	andeq	lr, r4, fp, lsl #28
    7d30:	253f0500 	ldrcs	r0, [pc, #-1280]!	; 7838 <_start-0x7c8>
    7d34:	20000000 	andcs	r0, r0, r0
    7d38:	01121100 	tsteq	r2, r0, lsl #2
    7d3c:	01080000 	mrseq	r0, (UNDEF: 8)
    7d40:	02464805 	subeq	r4, r6, #327680	; 0x50000
    7d44:	9d0b0000 	stcls	0, cr0, [fp, #-0]
    7d48:	05000001 	streq	r0, [r0, #-1]
    7d4c:	00024649 	andeq	r4, r2, r9, asr #12
    7d50:	000b0000 	andeq	r0, fp, r0
    7d54:	05000000 	streq	r0, [r0, #-0]
    7d58:	0002464a 	andeq	r4, r2, sl, asr #12
    7d5c:	4a128000 	bmi	4a7d64 <__bss_end__+0x49dd24>
    7d60:	05000004 	streq	r0, [r0, #-4]
    7d64:	0001194c 	andeq	r1, r1, ip, asr #18
    7d68:	12010000 	andne	r0, r1, #0
    7d6c:	00000137 	andeq	r0, r0, r7, lsr r1
    7d70:	01194f05 	tsteq	r9, r5, lsl #30
    7d74:	01040000 	mrseq	r0, (UNDEF: 4)
    7d78:	01050800 	tsteq	r5, r0, lsl #16
    7d7c:	02560000 	subseq	r0, r6, #0
    7d80:	c7090000 	strgt	r0, [r9, -r0]
    7d84:	1f000000 	svcne	0x00000000
    7d88:	02c71100 	sbceq	r1, r7, #0, 2
    7d8c:	01900000 	orrseq	r0, r0, r0
    7d90:	02945b05 	addseq	r5, r4, #5120	; 0x1400
    7d94:	620b0000 	andvs	r0, fp, #0
    7d98:	05000003 	streq	r0, [r0, #-3]
    7d9c:	0002945c 	andeq	r9, r2, ip, asr r4
    7da0:	7a0b0000 	bvc	2c7da8 <__bss_end__+0x2bdd68>
    7da4:	05000003 	streq	r0, [r0, #-3]
    7da8:	0000255d 	andeq	r2, r0, sp, asr r5
    7dac:	a50b0400 	strge	r0, [fp, #-1024]	; 0xfffffc00
    7db0:	05000001 	streq	r0, [r0, #-1]
    7db4:	00029a5f 	andeq	r9, r2, pc, asr sl
    7db8:	120b0800 	andne	r0, fp, #0, 16
    7dbc:	05000001 	streq	r0, [r0, #-1]
    7dc0:	00020660 	andeq	r0, r2, r0, ror #12
    7dc4:	0d008800 	stceq	8, cr8, [r0, #-0]
    7dc8:	00025604 	andeq	r5, r2, r4, lsl #12
    7dcc:	02aa0800 	adceq	r0, sl, #0, 16
    7dd0:	02aa0000 	adceq	r0, sl, #0
    7dd4:	c7090000 	strgt	r0, [r9, -r0]
    7dd8:	1f000000 	svcne	0x00000000
    7ddc:	b0040d00 	andlt	r0, r4, r0, lsl #26
    7de0:	13000002 	movwne	r0, #2
    7de4:	00032d0f 	andeq	r2, r3, pc, lsl #26
    7de8:	73050800 	movwvc	r0, #22528	; 0x5800
    7dec:	000002d6 	ldrdeq	r0, [r0], -r6
    7df0:	0000cc0b 	andeq	ip, r0, fp, lsl #24
    7df4:	d6740500 	ldrbtle	r0, [r4], -r0, lsl #10
    7df8:	00000002 	andeq	r0, r0, r2
    7dfc:	00001b0b 	andeq	r1, r0, fp, lsl #22
    7e00:	25750500 	ldrbcs	r0, [r5, #-1280]!	; 0xfffffb00
    7e04:	04000000 	streq	r0, [r0], #-0
    7e08:	4f040d00 	svcmi	0x00040d00
    7e0c:	0f000000 	svceq	0x00000000
    7e10:	0000034c 	andeq	r0, r0, ip, asr #6
    7e14:	06b30568 	ldrteq	r0, [r3], r8, ror #10
    7e18:	10000004 	andne	r0, r0, r4
    7e1c:	0500705f 	streq	r7, [r0, #-95]	; 0xffffffa1
    7e20:	0002d6b4 			; <UNDEFINED> instruction: 0x0002d6b4
    7e24:	5f100000 	svcpl	0x00100000
    7e28:	b5050072 	strlt	r0, [r5, #-114]	; 0xffffff8e
    7e2c:	00000025 	andeq	r0, r0, r5, lsr #32
    7e30:	775f1004 	ldrbvc	r1, [pc, -r4]
    7e34:	25b60500 	ldrcs	r0, [r6, #1280]!	; 0x500
    7e38:	08000000 	stmdaeq	r0, {}	; <UNPREDICTABLE>
    7e3c:	0001300b 	andeq	r3, r1, fp
    7e40:	3ab70500 	bcc	fedc9248 <__bss_end__+0xfedbf208>
    7e44:	0c000000 	stceq	0, cr0, [r0], {-0}
    7e48:	0002190b 	andeq	r1, r2, fp, lsl #18
    7e4c:	3ab80500 	bcc	fee09254 <__bss_end__+0xfedff214>
    7e50:	0e000000 	cdpeq	0, 0, cr0, cr0, cr0, {0}
    7e54:	66625f10 	uqadd16vs	r5, r2, r0
    7e58:	b1b90500 			; <UNDEFINED> instruction: 0xb1b90500
    7e5c:	10000002 	andne	r0, r0, r2
    7e60:	0000890b 	andeq	r8, r0, fp, lsl #18
    7e64:	25ba0500 	ldrcs	r0, [sl, #1280]!	; 0x500
    7e68:	18000000 	stmdane	r0, {}	; <UNPREDICTABLE>
    7e6c:	0001200b 	andeq	r2, r1, fp
    7e70:	05c10500 	strbeq	r0, [r1, #1280]	; 0x500
    7e74:	1c000001 	stcne	0, cr0, [r0], {1}
    7e78:	000a7d0b 	andeq	r7, sl, fp, lsl #26
    7e7c:	61c30500 	bicvs	r0, r3, r0, lsl #10
    7e80:	20000005 	andcs	r0, r0, r5
    7e84:	0006110b 	andeq	r1, r6, fp, lsl #2
    7e88:	8bc50500 	blhi	ff149290 <__bss_end__+0xff13f250>
    7e8c:	24000005 	strcs	r0, [r0], #-5
    7e90:	0003be0b 	andeq	fp, r3, fp, lsl #28
    7e94:	afc80500 	svcge	0x00c80500
    7e98:	28000005 	stmdacs	r0, {r0, r2}
    7e9c:	0005080b 	andeq	r0, r5, fp, lsl #16
    7ea0:	c9c90500 	stmibgt	r9, {r8, sl}^
    7ea4:	2c000005 	stccs	0, cr0, [r0], {5}
    7ea8:	62755f10 	rsbsvs	r5, r5, #16, 30	; 0x40
    7eac:	b1cc0500 	biclt	r0, ip, r0, lsl #10
    7eb0:	30000002 	andcc	r0, r0, r2
    7eb4:	70755f10 	rsbsvc	r5, r5, r0, lsl pc
    7eb8:	d6cd0500 	strble	r0, [sp], r0, lsl #10
    7ebc:	38000002 	stmdacc	r0, {r1}
    7ec0:	72755f10 	rsbsvc	r5, r5, #16, 30	; 0x40
    7ec4:	25ce0500 	strbcs	r0, [lr, #1280]	; 0x500
    7ec8:	3c000000 	stccc	0, cr0, [r0], {-0}
    7ecc:	0000c60b 	andeq	ip, r0, fp, lsl #12
    7ed0:	cfd10500 	svcgt	0x00d10500
    7ed4:	40000005 	andmi	r0, r0, r5
    7ed8:	0004e00b 	andeq	lr, r4, fp
    7edc:	dfd20500 	svcle	0x00d20500
    7ee0:	43000005 	movwmi	r0, #5
    7ee4:	626c5f10 	rsbvs	r5, ip, #16, 30	; 0x40
    7ee8:	b1d50500 	bicslt	r0, r5, r0, lsl #10
    7eec:	44000002 	strmi	r0, [r0], #-2
    7ef0:	00014e0b 	andeq	r4, r1, fp, lsl #28
    7ef4:	25d80500 	ldrbcs	r0, [r8, #1280]	; 0x500
    7ef8:	4c000000 	stcmi	0, cr0, [r0], {-0}
    7efc:	00015f0b 	andeq	r5, r1, fp, lsl #30
    7f00:	76d90500 	ldrbvc	r0, [r9], r0, lsl #10
    7f04:	50000000 	andpl	r0, r0, r0
    7f08:	000a1e0b 	andeq	r1, sl, fp, lsl #28
    7f0c:	24dc0500 	ldrbcs	r0, [ip], #1280	; 0x500
    7f10:	54000004 	strpl	r0, [r0], #-4
    7f14:	0002840b 	andeq	r8, r2, fp, lsl #8
    7f18:	fae00500 	blx	ff809320 <__bss_end__+0xff7ff2e0>
    7f1c:	58000000 	stmdapl	r0, {}	; <UNPREDICTABLE>
    7f20:	0003540b 	andeq	r5, r3, fp, lsl #8
    7f24:	efe20500 	svc	0x00e20500
    7f28:	5c000000 	stcpl	0, cr0, [r0], {-0}
    7f2c:	00028f0b 	andeq	r8, r2, fp, lsl #30
    7f30:	25e30500 	strbcs	r0, [r3, #1280]!	; 0x500
    7f34:	64000000 	strvs	r0, [r0], #-0
    7f38:	00251400 	eoreq	r1, r5, r0, lsl #8
    7f3c:	04240000 	strteq	r0, [r4], #-0
    7f40:	24150000 	ldrcs	r0, [r5], #-0
    7f44:	15000004 	strne	r0, [r0, #-4]
    7f48:	00000105 	andeq	r0, r0, r5, lsl #2
    7f4c:	00010715 	andeq	r0, r1, r5, lsl r7
    7f50:	00251500 	eoreq	r1, r5, r0, lsl #10
    7f54:	0d000000 	stceq	0, cr0, [r0, #-0]
    7f58:	00042f04 	andeq	r2, r4, r4, lsl #30
    7f5c:	04240e00 	strteq	r0, [r4], #-3584	; 0xfffff200
    7f60:	a1160000 	tstge	r6, r0
    7f64:	28000003 	stmdacs	r0, {r0, r1}
    7f68:	02380504 	eorseq	r0, r8, #4, 10	; 0x1000000
    7f6c:	00000561 	andeq	r0, r0, r1, ror #10
    7f70:	00031217 	andeq	r1, r3, r7, lsl r2
    7f74:	023a0500 	eorseq	r0, sl, #0, 10
    7f78:	00000025 	andeq	r0, r0, r5, lsr #32
    7f7c:	013f1700 	teqeq	pc, r0, lsl #14
    7f80:	3f050000 	svccc	0x00050000
    7f84:	00063602 	andeq	r3, r6, r2, lsl #12
    7f88:	09170400 	ldmdbeq	r7, {sl}
    7f8c:	05000002 	streq	r0, [r0, #-2]
    7f90:	0636023f 			; <UNDEFINED> instruction: 0x0636023f
    7f94:	17080000 	strne	r0, [r8, -r0]
    7f98:	000001b9 			; <UNDEFINED> instruction: 0x000001b9
    7f9c:	36023f05 	strcc	r3, [r2], -r5, lsl #30
    7fa0:	0c000006 	stceq	0, cr0, [r0], {6}
    7fa4:	00037517 	andeq	r7, r3, r7, lsl r5
    7fa8:	02410500 	subeq	r0, r1, #0, 10
    7fac:	00000025 	andeq	r0, r0, r5, lsr #32
    7fb0:	00371710 	eorseq	r1, r7, r0, lsl r7
    7fb4:	42050000 	andmi	r0, r5, #0
    7fb8:	00081802 	andeq	r1, r8, r2, lsl #16
    7fbc:	80171400 	andshi	r1, r7, r0, lsl #8
    7fc0:	05000004 	streq	r0, [r0, #-4]
    7fc4:	00250244 	eoreq	r0, r5, r4, asr #4
    7fc8:	17300000 	ldrne	r0, [r0, -r0]!
    7fcc:	0000037f 	andeq	r0, r0, pc, ror r3
    7fd0:	85024505 	strhi	r4, [r2, #-1285]	; 0xfffffafb
    7fd4:	34000005 	strcc	r0, [r0], #-5
    7fd8:	0002cf17 	andeq	ip, r2, r7, lsl pc
    7fdc:	02470500 	subeq	r0, r7, #0, 10
    7fe0:	00000025 	andeq	r0, r0, r5, lsr #32
    7fe4:	038f1738 	orreq	r1, pc, #56, 14	; 0xe00000
    7fe8:	49050000 	stmdbmi	r5, {}	; <UNPREDICTABLE>
    7fec:	00083302 	andeq	r3, r8, r2, lsl #6
    7ff0:	68173c00 	ldmdavs	r7, {sl, fp, ip, sp}
    7ff4:	05000002 	streq	r0, [r0, #-2]
    7ff8:	0177024c 	cmneq	r7, ip, asr #4
    7ffc:	17400000 	strbne	r0, [r0, -r0]
    8000:	000001d8 	ldrdeq	r0, [r0], -r8
    8004:	25024d05 	strcs	r4, [r2, #-3333]	; 0xfffff2fb
    8008:	44000000 	strmi	r0, [r0], #-0
    800c:	00052217 	andeq	r2, r5, r7, lsl r2
    8010:	024e0500 	subeq	r0, lr, #0, 10
    8014:	00000177 	andeq	r0, r0, r7, ror r1
    8018:	02e11748 	rsceq	r1, r1, #72, 14	; 0x1200000
    801c:	4f050000 	svcmi	0x00050000
    8020:	00083902 	andeq	r3, r8, r2, lsl #18
    8024:	11174c00 	tstne	r7, r0, lsl #24
    8028:	05000002 	streq	r0, [r0, #-2]
    802c:	00250252 	eoreq	r0, r5, r2, asr r2
    8030:	17500000 	ldrbne	r0, [r0, -r0]
    8034:	00000157 	andeq	r0, r0, r7, asr r1
    8038:	07025305 	streq	r5, [r2, -r5, lsl #6]
    803c:	54000001 	strpl	r0, [r0], #-1
    8040:	00030b17 	andeq	r0, r3, r7, lsl fp
    8044:	02760500 	rsbseq	r0, r6, #0, 10
    8048:	000007f6 	strdeq	r0, [r0], -r6
    804c:	02c71858 	sbceq	r1, r7, #88, 16	; 0x580000
    8050:	7a050000 	bvc	148058 <__bss_end__+0x13e018>
    8054:	00029402 	andeq	r9, r2, r2, lsl #8
    8058:	18014800 	stmdane	r1, {fp, lr}
    805c:	00000246 	andeq	r0, r0, r6, asr #4
    8060:	56027b05 	strpl	r7, [r2], -r5, lsl #22
    8064:	4c000002 	stcmi	0, cr0, [r0], {2}
    8068:	04ce1801 	strbeq	r1, [lr], #2049	; 0x801
    806c:	7f050000 	svcvc	0x00050000
    8070:	00084a02 	andeq	r4, r8, r2, lsl #20
    8074:	1802dc00 	stmdane	r2, {sl, fp, ip, lr, pc}
    8078:	00000128 	andeq	r0, r0, r8, lsr #2
    807c:	fb028405 	blx	a909a <__bss_end__+0x9f05a>
    8080:	e0000005 	and	r0, r0, r5
    8084:	010d1802 	tsteq	sp, r2, lsl #16
    8088:	85050000 	strhi	r0, [r5, #-0]
    808c:	00085602 	andeq	r5, r8, r2, lsl #12
    8090:	0002ec00 	andeq	lr, r2, r0, lsl #24
    8094:	0406040d 	streq	r0, [r6], #-1037	; 0xfffffbf3
    8098:	25140000 	ldrcs	r0, [r4, #-0]
    809c:	85000000 	strhi	r0, [r0, #-0]
    80a0:	15000005 	strne	r0, [r0, #-5]
    80a4:	00000424 	andeq	r0, r0, r4, lsr #8
    80a8:	00010515 	andeq	r0, r1, r5, lsl r5
    80ac:	05851500 	streq	r1, [r5, #1280]	; 0x500
    80b0:	25150000 	ldrcs	r0, [r5, #-0]
    80b4:	00000000 	andeq	r0, r0, r0
    80b8:	0114040d 	tsteq	r4, sp, lsl #8
    80bc:	040d0000 	streq	r0, [sp], #-0
    80c0:	00000567 	andeq	r0, r0, r7, ror #10
    80c4:	00008114 	andeq	r8, r0, r4, lsl r1
    80c8:	0005af00 	andeq	sl, r5, r0, lsl #30
    80cc:	04241500 	strteq	r1, [r4], #-1280	; 0xfffffb00
    80d0:	05150000 	ldreq	r0, [r5, #-0]
    80d4:	15000001 	strne	r0, [r0, #-1]
    80d8:	00000081 	andeq	r0, r0, r1, lsl #1
    80dc:	00002515 	andeq	r2, r0, r5, lsl r5
    80e0:	040d0000 	streq	r0, [sp], #-0
    80e4:	00000591 	muleq	r0, r1, r5
    80e8:	00002514 	andeq	r2, r0, r4, lsl r5
    80ec:	0005c900 	andeq	ip, r5, r0, lsl #18
    80f0:	04241500 	strteq	r1, [r4], #-1280	; 0xfffffb00
    80f4:	05150000 	ldreq	r0, [r5, #-0]
    80f8:	00000001 	andeq	r0, r0, r1
    80fc:	05b5040d 	ldreq	r0, [r5, #1037]!	; 0x40d
    8100:	4f080000 	svcmi	0x00080000
    8104:	df000000 	svcle	0x00000000
    8108:	09000005 	stmdbeq	r0, {r0, r2}
    810c:	000000c7 	andeq	r0, r0, r7, asr #1
    8110:	4f080002 	svcmi	0x00080002
    8114:	ef000000 	svc	0x00000000
    8118:	09000005 	stmdbeq	r0, {r0, r2}
    811c:	000000c7 	andeq	r0, r0, r7, asr #1
    8120:	3a050000 	bcc	148128 <__bss_end__+0x13e0e8>
    8124:	05000003 	streq	r0, [r0, #-3]
    8128:	02dc011d 	sbcseq	r0, ip, #1073741831	; 0x40000007
    812c:	b5190000 	ldrlt	r0, [r9, #-0]
    8130:	0c000004 	stceq	0, cr0, [r0], {4}
    8134:	30012105 	andcc	r2, r1, r5, lsl #2
    8138:	17000006 	strne	r0, [r0, -r6]
    813c:	00000362 	andeq	r0, r0, r2, ror #6
    8140:	30012305 	andcc	r2, r1, r5, lsl #6
    8144:	00000006 	andeq	r0, r0, r6
    8148:	00022c17 	andeq	r2, r2, r7, lsl ip
    814c:	01240500 			; <UNDEFINED> instruction: 0x01240500
    8150:	00000025 	andeq	r0, r0, r5, lsr #32
    8154:	03341704 	teqeq	r4, #4, 14	; 0x100000
    8158:	25050000 	strcs	r0, [r5, #-0]
    815c:	00063601 	andeq	r3, r6, r1, lsl #12
    8160:	0d000800 	stceq	8, cr0, [r0, #-0]
    8164:	0005fb04 	andeq	pc, r5, r4, lsl #22
    8168:	ef040d00 	svc	0x00040d00
    816c:	19000005 	stmdbne	r0, {r0, r2}
    8170:	0000002f 	andeq	r0, r0, pc, lsr #32
    8174:	013d050e 	teqeq	sp, lr, lsl #10
    8178:	00000671 	andeq	r0, r0, r1, ror r6
    817c:	0003a817 	andeq	sl, r3, r7, lsl r8
    8180:	013e0500 	teqeq	lr, r0, lsl #10
    8184:	00000671 	andeq	r0, r0, r1, ror r6
    8188:	03d51700 	bicseq	r1, r5, #0, 14
    818c:	3f050000 	svccc	0x00050000
    8190:	00067101 	andeq	r7, r6, r1, lsl #2
    8194:	53170600 	tstpl	r7, #0, 12
    8198:	05000004 	streq	r0, [r0, #-4]
    819c:	00560140 	subseq	r0, r6, r0, asr #2
    81a0:	000c0000 	andeq	r0, ip, r0
    81a4:	00005608 	andeq	r5, r0, r8, lsl #12
    81a8:	00068100 	andeq	r8, r6, r0, lsl #2
    81ac:	00c70900 	sbceq	r0, r7, r0, lsl #18
    81b0:	00020000 	andeq	r0, r2, r0
    81b4:	5705d01a 	smladpl	r5, sl, r0, sp
    81b8:	00078202 	andeq	r8, r7, r2, lsl #4
    81bc:	04991700 	ldreq	r1, [r9], #1792	; 0x700
    81c0:	59050000 	stmdbpl	r5, {}	; <UNPREDICTABLE>
    81c4:	00002c02 	andeq	r2, r0, r2, lsl #24
    81c8:	3d170000 	ldccc	0, cr0, [r7, #-0]
    81cc:	05000004 	streq	r0, [r0, #-4]
    81d0:	0107025a 	tsteq	r7, sl, asr r2
    81d4:	17040000 	strne	r0, [r4, -r0]
    81d8:	0000025b 	andeq	r0, r0, fp, asr r2
    81dc:	82025b05 	andhi	r5, r2, #5120	; 0x1400
    81e0:	08000007 	stmdaeq	r0, {r0, r1, r2}
    81e4:	0004f917 	andeq	pc, r4, r7, lsl r9	; <UNPREDICTABLE>
    81e8:	025c0500 	subseq	r0, ip, #0, 10
    81ec:	0000018d 	andeq	r0, r0, sp, lsl #3
    81f0:	01c91724 	biceq	r1, r9, r4, lsr #14
    81f4:	5d050000 	stcpl	0, cr0, [r5, #-0]
    81f8:	00002502 	andeq	r2, r0, r2, lsl #10
    81fc:	5d174800 	ldcpl	8, cr4, [r7, #-0]
    8200:	05000003 	streq	r0, [r0, #-3]
    8204:	0064025e 	rsbeq	r0, r4, lr, asr r2
    8208:	17500000 	ldrbne	r0, [r0, -r0]
    820c:	0000050f 	andeq	r0, r0, pc, lsl #10
    8210:	3c025f05 	stccc	15, cr5, [r2], {5}
    8214:	58000006 	stmdapl	r0, {r1, r2}
    8218:	00036817 	andeq	r6, r3, r7, lsl r8
    821c:	02600500 	rsbeq	r0, r0, #0, 10
    8220:	000000ef 	andeq	r0, r0, pc, ror #1
    8224:	05141768 	ldreq	r1, [r4, #-1896]	; 0xfffff898
    8228:	61050000 	mrsvs	r0, (UNDEF: 5)
    822c:	0000ef02 	andeq	lr, r0, r2, lsl #30
    8230:	a1177000 	tstge	r7, r0
    8234:	05000000 	streq	r0, [r0, #-0]
    8238:	00ef0262 	rsceq	r0, pc, r2, ror #4
    823c:	17780000 	ldrbne	r0, [r8, -r0]!
    8240:	000004c4 	andeq	r0, r0, r4, asr #9
    8244:	92026305 	andls	r6, r2, #335544320	; 0x14000000
    8248:	80000007 	andhi	r0, r0, r7
    824c:	00024f17 	andeq	r4, r2, r7, lsl pc
    8250:	02640500 	rsbeq	r0, r4, #0, 10
    8254:	000007a2 	andeq	r0, r0, r2, lsr #15
    8258:	04601788 	strbteq	r1, [r0], #-1928	; 0xfffff878
    825c:	65050000 	strvs	r0, [r5, #-0]
    8260:	00002502 	andeq	r2, r0, r2, lsl #10
    8264:	8f17a000 	svchi	0x0017a000
    8268:	05000001 	streq	r0, [r0, #-1]
    826c:	00ef0266 	rsceq	r0, pc, r6, ror #4
    8270:	17a40000 	strne	r0, [r4, r0]!
    8274:	00000092 	muleq	r0, r2, r0
    8278:	ef026705 	svc	0x00026705
    827c:	ac000000 	stcge	0, cr0, [r0], {-0}
    8280:	00017e17 	andeq	r7, r1, r7, lsl lr
    8284:	02680500 	rsbeq	r0, r8, #0, 10
    8288:	000000ef 	andeq	r0, r0, pc, ror #1
    828c:	004a17b4 	strheq	r1, [sl], #-116	; 0xffffff8c
    8290:	69050000 	stmdbvs	r5, {}	; <UNPREDICTABLE>
    8294:	0000ef02 	andeq	lr, r0, r2, lsl #30
    8298:	5917bc00 	ldmdbpl	r7, {sl, fp, ip, sp, pc}
    829c:	05000000 	streq	r0, [r0, #-0]
    82a0:	00ef026a 	rsceq	r0, pc, sl, ror #4
    82a4:	17c40000 	strbne	r0, [r4, r0]
    82a8:	00000310 	andeq	r0, r0, r0, lsl r3
    82ac:	25026b05 	strcs	r6, [r2, #-2821]	; 0xfffff4fb
    82b0:	cc000000 	stcgt	0, cr0, [r0], {-0}
    82b4:	010d0800 	tsteq	sp, r0, lsl #16
    82b8:	07920000 	ldreq	r0, [r2, r0]
    82bc:	c7090000 	strgt	r0, [r9, -r0]
    82c0:	19000000 	stmdbne	r0, {}	; <UNPREDICTABLE>
    82c4:	010d0800 	tsteq	sp, r0, lsl #16
    82c8:	07a20000 	streq	r0, [r2, r0]!
    82cc:	c7090000 	strgt	r0, [r9, -r0]
    82d0:	07000000 	streq	r0, [r0, -r0]
    82d4:	010d0800 	tsteq	sp, r0, lsl #16
    82d8:	07b20000 	ldreq	r0, [r2, r0]!
    82dc:	c7090000 	strgt	r0, [r9, -r0]
    82e0:	17000000 	strne	r0, [r0, -r0]
    82e4:	05f01a00 	ldrbeq	r1, [r0, #2560]!	; 0xa00
    82e8:	07d60270 			; <UNDEFINED> instruction: 0x07d60270
    82ec:	b7170000 	ldrlt	r0, [r7, -r0]
    82f0:	05000002 	streq	r0, [r0, #-2]
    82f4:	07d60273 			; <UNDEFINED> instruction: 0x07d60273
    82f8:	17000000 	strne	r0, [r0, -r0]
    82fc:	000004bb 			; <UNDEFINED> instruction: 0x000004bb
    8300:	e6027405 	str	r7, [r2], -r5, lsl #8
    8304:	78000007 	stmdavc	r0, {r0, r1, r2}
    8308:	02d60800 	sbcseq	r0, r6, #0, 16
    830c:	07e60000 	strbeq	r0, [r6, r0]!
    8310:	c7090000 	strgt	r0, [r9, -r0]
    8314:	1d000000 	stcne	0, cr0, [r0, #-0]
    8318:	002c0800 	eoreq	r0, ip, r0, lsl #16
    831c:	07f60000 	ldrbeq	r0, [r6, r0]!
    8320:	c7090000 	strgt	r0, [r9, -r0]
    8324:	1d000000 	stcne	0, cr0, [r0, #-0]
    8328:	05f01b00 	ldrbeq	r1, [r0, #2816]!	; 0xb00
    832c:	08180255 	ldmdaeq	r8, {r0, r2, r4, r6, r9}
    8330:	a11c0000 	tstge	ip, r0
    8334:	05000003 	streq	r0, [r0, #-3]
    8338:	0681026c 	streq	r0, [r1], ip, ror #4
    833c:	e61c0000 	ldr	r0, [ip], -r0
    8340:	05000004 	streq	r0, [r0, #-4]
    8344:	07b20275 			; <UNDEFINED> instruction: 0x07b20275
    8348:	08000000 	stmdaeq	r0, {}	; <UNPREDICTABLE>
    834c:	0000010d 	andeq	r0, r0, sp, lsl #2
    8350:	00000828 	andeq	r0, r0, r8, lsr #16
    8354:	0000c709 	andeq	ip, r0, r9, lsl #14
    8358:	1d001800 	stcne	8, cr1, [r0, #-0]
    835c:	00000833 	andeq	r0, r0, r3, lsr r8
    8360:	00042415 	andeq	r2, r4, r5, lsl r4
    8364:	040d0000 	streq	r0, [sp], #-0
    8368:	00000828 	andeq	r0, r0, r8, lsr #16
    836c:	0177040d 	cmneq	r7, sp, lsl #8
    8370:	4a1d0000 	bmi	748378 <__bss_end__+0x73e338>
    8374:	15000008 	strne	r0, [r0, #-8]
    8378:	00000025 	andeq	r0, r0, r5, lsr #32
    837c:	50040d00 	andpl	r0, r4, r0, lsl #26
    8380:	0d000008 	stceq	0, cr0, [r0, #-32]	; 0xffffffe0
    8384:	00083f04 	andeq	r3, r8, r4, lsl #30
    8388:	05ef0800 	strbeq	r0, [pc, #2048]!	; 8b90 <emit+0x160>
    838c:	08660000 	stmdaeq	r6!, {}^	; <UNPREDICTABLE>
    8390:	c7090000 	strgt	r0, [r9, -r0]
    8394:	02000000 	andeq	r0, r0, #0
    8398:	04741e00 	ldrbteq	r1, [r4], #-3584	; 0xfffff200
    839c:	fd050000 	stc2	0, cr0, [r5, #-0]
    83a0:	00042402 	andeq	r2, r4, r2, lsl #8
    83a4:	046d1e00 	strbteq	r1, [sp], #-3584	; 0xfffff200
    83a8:	fe050000 	cdp2	0, 0, cr0, cr5, cr0, {0}
    83ac:	00042a02 	andeq	r2, r4, r2, lsl #20
    83b0:	00251400 	eoreq	r1, r5, r0, lsl #8
    83b4:	088d0000 	stmeq	sp, {}	; <UNPREDICTABLE>
    83b8:	25150000 	ldrcs	r0, [r5, #-0]
    83bc:	00000000 	andeq	r0, r0, r0
    83c0:	0001e21f 	andeq	lr, r1, pc, lsl r2
    83c4:	981d0600 	ldmdals	sp, {r9, sl}
    83c8:	0d000008 	stceq	0, cr0, [r0, #-32]	; 0xffffffe0
    83cc:	00087e04 	andeq	r7, r8, r4, lsl #28
    83d0:	00251400 	eoreq	r1, r5, r0, lsl #8
    83d4:	08ad0000 	stmiaeq	sp!, {}	; <UNPREDICTABLE>
    83d8:	85150000 	ldrhi	r0, [r5, #-0]
    83dc:	00000005 	andeq	r0, r0, r5
    83e0:	00076e1f 	andeq	r6, r7, pc, lsl lr
    83e4:	b8220600 	stmdalt	r2!, {r9, sl}
    83e8:	0d000008 	stceq	0, cr0, [r0, #-32]	; 0xffffffe0
    83ec:	00089e04 	andeq	r9, r8, r4, lsl #28
    83f0:	08b42000 	ldmeq	r4!, {sp}
    83f4:	2b010000 	blcs	483fc <__bss_end__+0x3e3bc>
    83f8:	000091b4 			; <UNDEFINED> instruction: 0x000091b4
    83fc:	00000014 	andeq	r0, r0, r4, lsl r0
    8400:	08f89c01 	ldmeq	r8!, {r0, sl, fp, ip, pc}^
    8404:	73210000 			; <UNDEFINED> instruction: 0x73210000
    8408:	01006365 	tsteq	r0, r5, ror #6
    840c:	00002c2b 	andeq	r2, r0, fp, lsr #24
    8410:	00109300 	andseq	r9, r0, r0, lsl #6
    8414:	91c42200 	bicls	r2, r4, r0, lsl #4
    8418:	08f80000 	ldmeq	r8!, {}^	; <UNPREDICTABLE>
    841c:	01230000 			; <UNDEFINED> instruction: 0x01230000
    8420:	01f30750 	mvnseq	r0, r0, asr r7
    8424:	03e80a50 	mvneq	r0, #80, 20	; 0x50000
    8428:	2000001e 	andcs	r0, r0, lr, lsl r0
    842c:	00000848 	andeq	r0, r0, r8, asr #16
    8430:	91a02801 	lslls	r2, r1, #16
    8434:	00140000 	andseq	r0, r4, r0
    8438:	9c010000 	stcls	0, cr0, [r1], {-0}
    843c:	00000931 	andeq	r0, r0, r1, lsr r9
    8440:	00736d21 	rsbseq	r6, r3, r1, lsr #26
    8444:	002c2801 	eoreq	r2, ip, r1, lsl #16
    8448:	10b40000 	adcsne	r0, r4, r0
    844c:	b0220000 	eorlt	r0, r2, r0
    8450:	31000091 	swpcc	r0, r1, [r0]	; <UNPREDICTABLE>
    8454:	23000009 	movwcs	r0, #9
    8458:	f3075001 	vhadd.u8	d5, d7, d1
    845c:	e80a5001 	stmda	sl, {r0, ip, lr}
    8460:	00001e03 	andeq	r1, r0, r3, lsl #28
    8464:	0008fc20 	andeq	pc, r8, r0, lsr #24
    8468:	7c1f0100 	ldfvcs	f0, [pc], {-0}
    846c:	24000091 	strcs	r0, [r0], #-145	; 0xffffff6f
    8470:	01000000 	mrseq	r0, (UNDEF: 0)
    8474:	00098f9c 	muleq	r9, ip, pc	; <UNPREDICTABLE>
    8478:	73752100 	cmnvc	r5, #0, 2
    847c:	2c1f0100 	ldfcss	f0, [pc], {-0}
    8480:	d5000000 	strle	r0, [r0, #-0]
    8484:	24000010 	strcs	r0, [r0], #-16
    8488:	01006272 	tsteq	r0, r2, ror r2
    848c:	00002c20 	andeq	r2, r0, r0, lsr #24
    8490:	25540100 	ldrbcs	r0, [r4, #-256]	; 0xffffff00
    8494:	0000918c 	andeq	r9, r0, ip, lsl #3
    8498:	00000010 	andeq	r0, r0, r0, lsl r0
    849c:	00000985 	andeq	r0, r0, r5, lsl #19
    84a0:	00617226 	rsbeq	r7, r1, r6, lsr #4
    84a4:	002c2201 	eoreq	r2, ip, r1, lsl #4
    84a8:	10f30000 	rscsne	r0, r3, r0
    84ac:	90270000 	eorls	r0, r7, r0
    84b0:	8f000091 	svchi	0x00000091
    84b4:	00000009 	andeq	r0, r0, r9
    84b8:	00918827 	addseq	r8, r1, r7, lsr #16
    84bc:	00098f00 	andeq	r8, r9, r0, lsl #30
    84c0:	a5280000 	strge	r0, [r8, #-0]!
    84c4:	01000008 	tsteq	r0, r8
    84c8:	00002c16 	andeq	r2, r0, r6, lsl ip
    84cc:	00917000 	addseq	r7, r1, r0
    84d0:	00000c00 	andeq	r0, r0, r0, lsl #24
    84d4:	bd9c0100 	ldflts	f0, [ip]
    84d8:	24000009 	strcs	r0, [r0], #-9
    84dc:	1a010075 	bne	486b8 <__bss_end__+0x3e678>
    84e0:	0000002c 	andeq	r0, r0, ip, lsr #32
    84e4:	78275001 	stmdavc	r7!, {r0, ip, lr}
    84e8:	bd000091 	stclt	0, cr0, [r0, #-580]	; 0xfffffdbc
    84ec:	00000009 	andeq	r0, r0, r9
    84f0:	0008e928 	andeq	lr, r8, r8, lsr #18
    84f4:	2c110100 	ldfcss	f0, [r1], {-0}
    84f8:	5c000000 	stcpl	0, cr0, [r0], {-0}
    84fc:	14000091 	strne	r0, [r0], #-145	; 0xffffff6f
    8500:	01000000 	mrseq	r0, (UNDEF: 0)
    8504:	0009ea9c 	muleq	r9, ip, sl
    8508:	91682200 	cmnls	r8, r0, lsl #4
    850c:	0a0f0000 	beq	3c8514 <__bss_end__+0x3be4d4>
    8510:	01230000 			; <UNDEFINED> instruction: 0x01230000
    8514:	040c0550 	streq	r0, [ip], #-1360	; 0xfffffab0
    8518:	00200030 	eoreq	r0, r0, r0, lsr r0
    851c:	08be2000 	ldmeq	lr!, {sp}
    8520:	05010000 	streq	r0, [r1, #-0]
    8524:	00009140 	andeq	r9, r0, r0, asr #2
    8528:	0000001c 	andeq	r0, r0, ip, lsl r0
    852c:	0a0f9c01 	beq	3ef538 <__bss_end__+0x3e54f8>
    8530:	dd290000 	stcle	0, cr0, [r9, #-0]
    8534:	01000008 	tsteq	r0, r8
    8538:	00002c05 	andeq	r2, r0, r5, lsl #24
    853c:	00110600 	andseq	r0, r1, r0, lsl #12
    8540:	e32a0000 			; <UNDEFINED> instruction: 0xe32a0000
    8544:	e3000008 	movw	r0, #8
    8548:	06000008 	streq	r0, [r0], -r8
    854c:	0cc500a7 	stcleq	0, cr0, [r5], {167}	; 0xa7
    8550:	00040000 	andeq	r0, r4, r0
    8554:	000019bc 			; <UNDEFINED> instruction: 0x000019bc
    8558:	03db0104 	bicseq	r0, fp, #4, 2
    855c:	380c0000 	stmdacc	ip, {}	; <UNPREDICTABLE>
    8560:	4b000009 	blmi	858c <ckfree+0x50>
    8564:	14000009 	strne	r0, [r0], #-9
    8568:	78000092 	stmdavc	r0, {r1, r4, r7}
    856c:	aa000001 	bge	8578 <ckfree+0x3c>
    8570:	0200000d 	andeq	r0, r0, #13
    8574:	6e690504 	cdpvs	5, 6, cr0, cr9, cr4, {0}
    8578:	04030074 	streq	r0, [r3], #-116	; 0xffffff8c
    857c:	00007407 	andeq	r7, r0, r7, lsl #8
    8580:	002c0400 	eoreq	r0, ip, r0, lsl #8
    8584:	01030000 	mrseq	r0, (UNDEF: 3)
    8588:	0002ff06 	andeq	pc, r2, r6, lsl #30
    858c:	05020300 	streq	r0, [r2, #-768]	; 0xfffffd00
    8590:	00000319 	andeq	r0, r0, r9, lsl r3
    8594:	bd050403 	cfstrslt	mvf0, [r5, #-12]
    8598:	03000000 	movweq	r0, #0
    859c:	00b80508 	adcseq	r0, r8, r8, lsl #10
    85a0:	01030000 	mrseq	r0, (UNDEF: 3)
    85a4:	0002fd08 	andeq	pc, r2, r8, lsl #26
    85a8:	07020300 	streq	r0, [r2, -r0, lsl #6]
    85ac:	00000233 	andeq	r0, r0, r3, lsr r2
    85b0:	6f070403 	svcvs	0x00070403
    85b4:	03000000 	movweq	r0, #0
    85b8:	006a0708 	rsbeq	r0, sl, r8, lsl #14
    85bc:	eb050000 	bl	1485c4 <__bss_end__+0x13e584>
    85c0:	02000002 	andeq	r0, r0, #2
    85c4:	00002507 	andeq	r2, r0, r7, lsl #10
    85c8:	02da0500 	sbcseq	r0, sl, #0, 10
    85cc:	2c030000 	stccs	0, cr0, [r3], {-0}
    85d0:	00000046 	andeq	r0, r0, r6, asr #32
    85d4:	0003c405 	andeq	ip, r3, r5, lsl #8
    85d8:	46720300 	ldrbtmi	r0, [r2], -r0, lsl #6
    85dc:	06000000 	streq	r0, [r0], -r0
    85e0:	00000276 	andeq	r0, r0, r6, ror r2
    85e4:	2c016504 	cfstr32cs	mvfx6, [r1], {4}
    85e8:	07000000 	streq	r0, [r0, -r0]
    85ec:	bca60304 	stclt	3, cr0, [r6], #16
    85f0:	08000000 	stmdaeq	r0, {}	; <UNPREDICTABLE>
    85f4:	00000270 	andeq	r0, r0, r0, ror r2
    85f8:	0091a803 	addseq	sl, r1, r3, lsl #16
    85fc:	f3080000 	vhadd.u8	d0, d8, d0
    8600:	03000001 	movweq	r0, #1
    8604:	0000bca9 	andeq	fp, r0, r9, lsr #25
    8608:	54090000 	strpl	r0, [r9], #-0
    860c:	cc000000 	stcgt	0, cr0, [r0], {-0}
    8610:	0a000000 	beq	8618 <ckalloc+0x24>
    8614:	000000cc 	andeq	r0, r0, ip, asr #1
    8618:	04030003 	streq	r0, [r3], #-3
    861c:	0002ae07 	andeq	sl, r2, r7, lsl #28
    8620:	03080b00 	movweq	r0, #35584	; 0x8b00
    8624:	0000f4a3 	andeq	pc, r0, r3, lsr #9
    8628:	03ae0c00 			; <UNDEFINED> instruction: 0x03ae0c00
    862c:	a5030000 	strge	r0, [r3, #-0]
    8630:	00000025 	andeq	r0, r0, r5, lsr #32
    8634:	03b60c00 			; <UNDEFINED> instruction: 0x03b60c00
    8638:	aa030000 	bge	c8640 <__bss_end__+0xbe600>
    863c:	0000009d 	muleq	r0, sp, r0
    8640:	41050004 	tstmi	r5, r4
    8644:	03000003 	movweq	r0, #3
    8648:	0000d3ab 	andeq	sp, r0, fp, lsr #7
    864c:	01b00500 	lslseq	r0, r0, #10
    8650:	af030000 	svcge	0x00030000
    8654:	00000070 	andeq	r0, r0, r0, ror r0
    8658:	040e040d 	streq	r0, [lr], #-1037	; 0xfffffbf3
    865c:	00000112 	andeq	r0, r0, r2, lsl r1
    8660:	06080103 	streq	r0, [r8], -r3, lsl #2
    8664:	0f000003 	svceq	0x00000003
    8668:	00000112 	andeq	r0, r0, r2, lsl r1
    866c:	00045805 	andeq	r5, r4, r5, lsl #16
    8670:	62160500 	andsvs	r0, r6, #0, 10
    8674:	10000000 	andne	r0, r0, r0
    8678:	000001c1 	andeq	r0, r0, r1, asr #3
    867c:	7c2d0518 	cfstr32vc	mvfx0, [sp], #-96	; 0xffffffa0
    8680:	0c000001 	stceq	0, cr0, [r0], {1}
    8684:	00000362 	andeq	r0, r0, r2, ror #6
    8688:	017c2f05 	cmneq	ip, r5, lsl #30
    868c:	11000000 	mrsne	r0, (UNDEF: 0)
    8690:	05006b5f 	streq	r6, [r0, #-2911]	; 0xfffff4a1
    8694:	00002530 	andeq	r2, r0, r0, lsr r5
    8698:	990c0400 	stmdbls	ip, {sl}
    869c:	05000003 	streq	r0, [r0, #-3]
    86a0:	00002530 	andeq	r2, r0, r0, lsr r5
    86a4:	aa0c0800 	bge	30a6ac <__bss_end__+0x30066c>
    86a8:	05000001 	streq	r0, [r0, #-1]
    86ac:	00002530 	andeq	r2, r0, r0, lsr r5
    86b0:	a60c0c00 	strge	r0, [ip], -r0, lsl #24
    86b4:	05000004 	streq	r0, [r0, #-4]
    86b8:	00002530 	andeq	r2, r0, r0, lsr r5
    86bc:	5f111000 	svcpl	0x00111000
    86c0:	31050078 	tstcc	r5, r8, ror r0
    86c4:	00000182 	andeq	r0, r0, r2, lsl #3
    86c8:	040e0014 	streq	r0, [lr], #-20	; 0xffffffec
    86cc:	00000129 	andeq	r0, r0, r9, lsr #2
    86d0:	00011e09 	andeq	r1, r1, r9, lsl #28
    86d4:	00019200 	andeq	r9, r1, r0, lsl #4
    86d8:	00cc0a00 	sbceq	r0, ip, r0, lsl #20
    86dc:	00000000 	andeq	r0, r0, r0
    86e0:	0001ee10 	andeq	lr, r1, r0, lsl lr
    86e4:	35052400 	strcc	r2, [r5, #-1024]	; 0xfffffc00
    86e8:	0000020b 	andeq	r0, r0, fp, lsl #4
    86ec:	0000af0c 	andeq	sl, r0, ip, lsl #30
    86f0:	25370500 	ldrcs	r0, [r7, #-1280]!	; 0xfffffb00
    86f4:	00000000 	andeq	r0, r0, r0
    86f8:	0003cc0c 	andeq	ip, r3, ip, lsl #24
    86fc:	25380500 	ldrcs	r0, [r8, #-1280]!	; 0xfffffb00
    8700:	04000000 	streq	r0, [r0], #-0
    8704:	0000d20c 	andeq	sp, r0, ip, lsl #4
    8708:	25390500 	ldrcs	r0, [r9, #-1280]!	; 0xfffffb00
    870c:	08000000 	stmdaeq	r0, {}	; <UNPREDICTABLE>
    8710:	0005270c 	andeq	r2, r5, ip, lsl #14
    8714:	253a0500 	ldrcs	r0, [sl, #-1280]!	; 0xfffffb00
    8718:	0c000000 	stceq	0, cr0, [r0], {-0}
    871c:	0002be0c 	andeq	fp, r2, ip, lsl #28
    8720:	253b0500 	ldrcs	r0, [fp, #-1280]!	; 0xfffffb00
    8724:	10000000 	andne	r0, r0, r0
    8728:	0002970c 	andeq	r9, r2, ip, lsl #14
    872c:	253c0500 	ldrcs	r0, [ip, #-1280]!	; 0xfffffb00
    8730:	14000000 	strne	r0, [r0], #-0
    8734:	0004ab0c 	andeq	sl, r4, ip, lsl #22
    8738:	253d0500 	ldrcs	r0, [sp, #-1280]!	; 0xfffffb00
    873c:	18000000 	stmdane	r0, {}	; <UNPREDICTABLE>
    8740:	0003230c 	andeq	r2, r3, ip, lsl #6
    8744:	253e0500 	ldrcs	r0, [lr, #-1280]!	; 0xfffffb00
    8748:	1c000000 	stcne	0, cr0, [r0], {-0}
    874c:	0004ee0c 	andeq	lr, r4, ip, lsl #28
    8750:	253f0500 	ldrcs	r0, [pc, #-1280]!	; 8258 <hdr_cksum+0x14>
    8754:	20000000 	andcs	r0, r0, r0
    8758:	01121200 	tsteq	r2, r0, lsl #4
    875c:	01080000 	mrseq	r0, (UNDEF: 8)
    8760:	024b4805 	subeq	r4, fp, #327680	; 0x50000
    8764:	9d0c0000 	stcls	0, cr0, [ip, #-0]
    8768:	05000001 	streq	r0, [r0, #-1]
    876c:	00024b49 	andeq	r4, r2, r9, asr #22
    8770:	000c0000 	andeq	r0, ip, r0
    8774:	05000000 	streq	r0, [r0, #-0]
    8778:	00024b4a 	andeq	r4, r2, sl, asr #22
    877c:	4a138000 	bmi	4e8784 <__bss_end__+0x4de744>
    8780:	05000004 	streq	r0, [r0, #-4]
    8784:	00011e4c 	andeq	r1, r1, ip, asr #28
    8788:	13010000 	movwne	r0, #4096	; 0x1000
    878c:	00000137 	andeq	r0, r0, r7, lsr r1
    8790:	011e4f05 	tsteq	lr, r5, lsl #30
    8794:	01040000 	mrseq	r0, (UNDEF: 4)
    8798:	010a0900 	tsteq	sl, r0, lsl #18
    879c:	025b0000 	subseq	r0, fp, #0
    87a0:	cc0a0000 	stcgt	0, cr0, [sl], {-0}
    87a4:	1f000000 	svcne	0x00000000
    87a8:	02c71200 	sbceq	r1, r7, #0, 4
    87ac:	01900000 	orrseq	r0, r0, r0
    87b0:	02995b05 	addseq	r5, r9, #5120	; 0x1400
    87b4:	620c0000 	andvs	r0, ip, #0
    87b8:	05000003 	streq	r0, [r0, #-3]
    87bc:	0002995c 	andeq	r9, r2, ip, asr r9
    87c0:	7a0c0000 	bvc	3087c8 <__bss_end__+0x2fe788>
    87c4:	05000003 	streq	r0, [r0, #-3]
    87c8:	0000255d 	andeq	r2, r0, sp, asr r5
    87cc:	a50c0400 	strge	r0, [ip, #-1024]	; 0xfffffc00
    87d0:	05000001 	streq	r0, [r0, #-1]
    87d4:	00029f5f 	andeq	r9, r2, pc, asr pc
    87d8:	120c0800 	andne	r0, ip, #0, 16
    87dc:	05000001 	streq	r0, [r0, #-1]
    87e0:	00020b60 	andeq	r0, r2, r0, ror #22
    87e4:	0e008800 	cdpeq	8, 0, cr8, cr0, cr0, {0}
    87e8:	00025b04 	andeq	r5, r2, r4, lsl #22
    87ec:	02af0900 	adceq	r0, pc, #0, 18
    87f0:	02af0000 	adceq	r0, pc, #0
    87f4:	cc0a0000 	stcgt	0, cr0, [sl], {-0}
    87f8:	1f000000 	svcne	0x00000000
    87fc:	b5040e00 	strlt	r0, [r4, #-3584]	; 0xfffff200
    8800:	14000002 	strne	r0, [r0], #-2
    8804:	00032d10 	andeq	r2, r3, r0, lsl sp
    8808:	73050800 	movwvc	r0, #22528	; 0x5800
    880c:	000002db 	ldrdeq	r0, [r0], -fp
    8810:	0000cc0c 	andeq	ip, r0, ip, lsl #24
    8814:	db740500 	blle	1d09c1c <__bss_end__+0x1cffbdc>
    8818:	00000002 	andeq	r0, r0, r2
    881c:	00001b0c 	andeq	r1, r0, ip, lsl #22
    8820:	25750500 	ldrbcs	r0, [r5, #-1280]!	; 0xfffffb00
    8824:	04000000 	streq	r0, [r0], #-0
    8828:	54040e00 	strpl	r0, [r4], #-3584	; 0xfffff200
    882c:	10000000 	andne	r0, r0, r0
    8830:	0000034c 	andeq	r0, r0, ip, asr #6
    8834:	0bb30568 	bleq	fecc9ddc <__bss_end__+0xfecbfd9c>
    8838:	11000004 	tstne	r0, r4
    883c:	0500705f 	streq	r7, [r0, #-95]	; 0xffffffa1
    8840:	0002dbb4 			; <UNDEFINED> instruction: 0x0002dbb4
    8844:	5f110000 	svcpl	0x00110000
    8848:	b5050072 	strlt	r0, [r5, #-114]	; 0xffffff8e
    884c:	00000025 	andeq	r0, r0, r5, lsr #32
    8850:	775f1104 	ldrbvc	r1, [pc, -r4, lsl #2]
    8854:	25b60500 	ldrcs	r0, [r6, #1280]!	; 0x500
    8858:	08000000 	stmdaeq	r0, {}	; <UNPREDICTABLE>
    885c:	0001300c 	andeq	r3, r1, ip
    8860:	3fb70500 	svccc	0x00b70500
    8864:	0c000000 	stceq	0, cr0, [r0], {-0}
    8868:	0002190c 	andeq	r1, r2, ip, lsl #18
    886c:	3fb80500 	svccc	0x00b80500
    8870:	0e000000 	cdpeq	0, 0, cr0, cr0, cr0, {0}
    8874:	66625f11 	uqadd16vs	r5, r2, r1
    8878:	b6b90500 	ldrtlt	r0, [r9], r0, lsl #10
    887c:	10000002 	andne	r0, r0, r2
    8880:	0000890c 	andeq	r8, r0, ip, lsl #18
    8884:	25ba0500 	ldrcs	r0, [sl, #1280]!	; 0x500
    8888:	18000000 	stmdane	r0, {}	; <UNPREDICTABLE>
    888c:	0001200c 	andeq	r2, r1, ip
    8890:	0ac10500 	beq	ff049c98 <__bss_end__+0xff03fc58>
    8894:	1c000001 	stcne	0, cr0, [r0], {1}
    8898:	000a7d0c 	andeq	r7, sl, ip, lsl #26
    889c:	66c30500 	strbvs	r0, [r3], r0, lsl #10
    88a0:	20000005 	andcs	r0, r0, r5
    88a4:	0006110c 	andeq	r1, r6, ip, lsl #2
    88a8:	90c50500 	sbcls	r0, r5, r0, lsl #10
    88ac:	24000005 	strcs	r0, [r0], #-5
    88b0:	0003be0c 	andeq	fp, r3, ip, lsl #28
    88b4:	b4c80500 	strblt	r0, [r8], #1280	; 0x500
    88b8:	28000005 	stmdacs	r0, {r0, r2}
    88bc:	0005080c 	andeq	r0, r5, ip, lsl #16
    88c0:	cec90500 	cdpgt	5, 12, cr0, cr9, cr0, {0}
    88c4:	2c000005 	stccs	0, cr0, [r0], {5}
    88c8:	62755f11 	rsbsvs	r5, r5, #17, 30	; 0x44
    88cc:	b6cc0500 	strblt	r0, [ip], r0, lsl #10
    88d0:	30000002 	andcc	r0, r0, r2
    88d4:	70755f11 	rsbsvc	r5, r5, r1, lsl pc
    88d8:	dbcd0500 	blle	ff349ce0 <__bss_end__+0xff33fca0>
    88dc:	38000002 	stmdacc	r0, {r1}
    88e0:	72755f11 	rsbsvc	r5, r5, #17, 30	; 0x44
    88e4:	25ce0500 	strbcs	r0, [lr, #1280]	; 0x500
    88e8:	3c000000 	stccc	0, cr0, [r0], {-0}
    88ec:	0000c60c 	andeq	ip, r0, ip, lsl #12
    88f0:	d4d10500 	ldrble	r0, [r1], #1280	; 0x500
    88f4:	40000005 	andmi	r0, r0, r5
    88f8:	0004e00c 	andeq	lr, r4, ip
    88fc:	e4d20500 	ldrb	r0, [r2], #1280	; 0x500
    8900:	43000005 	movwmi	r0, #5
    8904:	626c5f11 	rsbvs	r5, ip, #17, 30	; 0x44
    8908:	b6d50500 	ldrblt	r0, [r5], r0, lsl #10
    890c:	44000002 	strmi	r0, [r0], #-2
    8910:	00014e0c 	andeq	r4, r1, ip, lsl #28
    8914:	25d80500 	ldrbcs	r0, [r8, #1280]	; 0x500
    8918:	4c000000 	stcmi	0, cr0, [r0], {-0}
    891c:	00015f0c 	andeq	r5, r1, ip, lsl #30
    8920:	7bd90500 	blvc	ff649d28 <__bss_end__+0xff63fce8>
    8924:	50000000 	andpl	r0, r0, r0
    8928:	000a1e0c 	andeq	r1, sl, ip, lsl #28
    892c:	29dc0500 	ldmibcs	ip, {r8, sl}^
    8930:	54000004 	strpl	r0, [r0], #-4
    8934:	0002840c 	andeq	r8, r2, ip, lsl #8
    8938:	ffe00500 			; <UNDEFINED> instruction: 0xffe00500
    893c:	58000000 	stmdapl	r0, {}	; <UNPREDICTABLE>
    8940:	0003540c 	andeq	r5, r3, ip, lsl #8
    8944:	f4e20500 	vld2.16	{d16[0],d17[0]}, [r2], r0
    8948:	5c000000 	stcpl	0, cr0, [r0], {-0}
    894c:	00028f0c 	andeq	r8, r2, ip, lsl #30
    8950:	25e30500 	strbcs	r0, [r3, #1280]!	; 0x500
    8954:	64000000 	strvs	r0, [r0], #-0
    8958:	00251500 	eoreq	r1, r5, r0, lsl #10
    895c:	04290000 	strteq	r0, [r9], #-0
    8960:	29160000 	ldmdbcs	r6, {}	; <UNPREDICTABLE>
    8964:	16000004 	strne	r0, [r0], -r4
    8968:	0000010a 	andeq	r0, r0, sl, lsl #2
    896c:	00010c16 	andeq	r0, r1, r6, lsl ip
    8970:	00251600 	eoreq	r1, r5, r0, lsl #12
    8974:	0e000000 	cdpeq	0, 0, cr0, cr0, cr0, {0}
    8978:	00043404 	andeq	r3, r4, r4, lsl #8
    897c:	04290f00 	strteq	r0, [r9], #-3840	; 0xfffff100
    8980:	a1170000 	tstge	r7, r0
    8984:	28000003 	stmdacs	r0, {r0, r1}
    8988:	02380504 	eorseq	r0, r8, #4, 10	; 0x1000000
    898c:	00000566 	andeq	r0, r0, r6, ror #10
    8990:	00031218 	andeq	r1, r3, r8, lsl r2
    8994:	023a0500 	eorseq	r0, sl, #0, 10
    8998:	00000025 	andeq	r0, r0, r5, lsr #32
    899c:	013f1800 	teqeq	pc, r0, lsl #16
    89a0:	3f050000 	svccc	0x00050000
    89a4:	00063b02 	andeq	r3, r6, r2, lsl #22
    89a8:	09180400 	ldmdbeq	r8, {sl}
    89ac:	05000002 	streq	r0, [r0, #-2]
    89b0:	063b023f 			; <UNDEFINED> instruction: 0x063b023f
    89b4:	18080000 	stmdane	r8, {}	; <UNPREDICTABLE>
    89b8:	000001b9 			; <UNDEFINED> instruction: 0x000001b9
    89bc:	3b023f05 	blcc	985d8 <__bss_end__+0x8e598>
    89c0:	0c000006 	stceq	0, cr0, [r0], {6}
    89c4:	00037518 	andeq	r7, r3, r8, lsl r5
    89c8:	02410500 	subeq	r0, r1, #0, 10
    89cc:	00000025 	andeq	r0, r0, r5, lsr #32
    89d0:	00371810 	eorseq	r1, r7, r0, lsl r8
    89d4:	42050000 	andmi	r0, r5, #0
    89d8:	00081d02 	andeq	r1, r8, r2, lsl #26
    89dc:	80181400 	andshi	r1, r8, r0, lsl #8
    89e0:	05000004 	streq	r0, [r0, #-4]
    89e4:	00250244 	eoreq	r0, r5, r4, asr #4
    89e8:	18300000 	ldmdane	r0!, {}	; <UNPREDICTABLE>
    89ec:	0000037f 	andeq	r0, r0, pc, ror r3
    89f0:	8a024505 	bhi	99e0c <__bss_end__+0x8fdcc>
    89f4:	34000005 	strcc	r0, [r0], #-5
    89f8:	0002cf18 	andeq	ip, r2, r8, lsl pc
    89fc:	02470500 	subeq	r0, r7, #0, 10
    8a00:	00000025 	andeq	r0, r0, r5, lsr #32
    8a04:	038f1838 	orreq	r1, pc, #56, 16	; 0x380000
    8a08:	49050000 	stmdbmi	r5, {}	; <UNPREDICTABLE>
    8a0c:	00083802 	andeq	r3, r8, r2, lsl #16
    8a10:	68183c00 	ldmdavs	r8, {sl, fp, ip, sp}
    8a14:	05000002 	streq	r0, [r0, #-2]
    8a18:	017c024c 	cmneq	ip, ip, asr #4
    8a1c:	18400000 	stmdane	r0, {}^	; <UNPREDICTABLE>
    8a20:	000001d8 	ldrdeq	r0, [r0], -r8
    8a24:	25024d05 	strcs	r4, [r2, #-3333]	; 0xfffff2fb
    8a28:	44000000 	strmi	r0, [r0], #-0
    8a2c:	00052218 	andeq	r2, r5, r8, lsl r2
    8a30:	024e0500 	subeq	r0, lr, #0, 10
    8a34:	0000017c 	andeq	r0, r0, ip, ror r1
    8a38:	02e11848 	rsceq	r1, r1, #72, 16	; 0x480000
    8a3c:	4f050000 	svcmi	0x00050000
    8a40:	00083e02 	andeq	r3, r8, r2, lsl #28
    8a44:	11184c00 	tstne	r8, r0, lsl #24
    8a48:	05000002 	streq	r0, [r0, #-2]
    8a4c:	00250252 	eoreq	r0, r5, r2, asr r2
    8a50:	18500000 	ldmdane	r0, {}^	; <UNPREDICTABLE>
    8a54:	00000157 	andeq	r0, r0, r7, asr r1
    8a58:	0c025305 	stceq	3, cr5, [r2], {5}
    8a5c:	54000001 	strpl	r0, [r0], #-1
    8a60:	00030b18 	andeq	r0, r3, r8, lsl fp
    8a64:	02760500 	rsbseq	r0, r6, #0, 10
    8a68:	000007fb 	strdeq	r0, [r0], -fp
    8a6c:	02c71958 	sbceq	r1, r7, #88, 18	; 0x160000
    8a70:	7a050000 	bvc	148a78 <__bss_end__+0x13ea38>
    8a74:	00029902 	andeq	r9, r2, r2, lsl #18
    8a78:	19014800 	stmdbne	r1, {fp, lr}
    8a7c:	00000246 	andeq	r0, r0, r6, asr #4
    8a80:	5b027b05 	blpl	a769c <__bss_end__+0x9d65c>
    8a84:	4c000002 	stcmi	0, cr0, [r0], {2}
    8a88:	04ce1901 	strbeq	r1, [lr], #2305	; 0x901
    8a8c:	7f050000 	svcvc	0x00050000
    8a90:	00084f02 	andeq	r4, r8, r2, lsl #30
    8a94:	1902dc00 	stmdbne	r2, {sl, fp, ip, lr, pc}
    8a98:	00000128 	andeq	r0, r0, r8, lsr #2
    8a9c:	00028405 	andeq	r8, r2, r5, lsl #8
    8aa0:	e0000006 	and	r0, r0, r6
    8aa4:	010d1902 	tsteq	sp, r2, lsl #18
    8aa8:	85050000 	strhi	r0, [r5, #-0]
    8aac:	00085b02 	andeq	r5, r8, r2, lsl #22
    8ab0:	0002ec00 	andeq	lr, r2, r0, lsl #24
    8ab4:	040b040e 	streq	r0, [fp], #-1038	; 0xfffffbf2
    8ab8:	25150000 	ldrcs	r0, [r5, #-0]
    8abc:	8a000000 	bhi	8ac4 <emit+0x94>
    8ac0:	16000005 	strne	r0, [r0], -r5
    8ac4:	00000429 	andeq	r0, r0, r9, lsr #8
    8ac8:	00010a16 	andeq	r0, r1, r6, lsl sl
    8acc:	058a1600 	streq	r1, [sl, #1536]	; 0x600
    8ad0:	25160000 	ldrcs	r0, [r6, #-0]
    8ad4:	00000000 	andeq	r0, r0, r0
    8ad8:	0119040e 	tsteq	r9, lr, lsl #8
    8adc:	040e0000 	streq	r0, [lr], #-0
    8ae0:	0000056c 	andeq	r0, r0, ip, ror #10
    8ae4:	00008615 	andeq	r8, r0, r5, lsl r6
    8ae8:	0005b400 	andeq	fp, r5, r0, lsl #8
    8aec:	04291600 	strteq	r1, [r9], #-1536	; 0xfffffa00
    8af0:	0a160000 	beq	588af8 <__bss_end__+0x57eab8>
    8af4:	16000001 	strne	r0, [r0], -r1
    8af8:	00000086 	andeq	r0, r0, r6, lsl #1
    8afc:	00002516 	andeq	r2, r0, r6, lsl r5
    8b00:	040e0000 	streq	r0, [lr], #-0
    8b04:	00000596 	muleq	r0, r6, r5
    8b08:	00002515 	andeq	r2, r0, r5, lsl r5
    8b0c:	0005ce00 	andeq	ip, r5, r0, lsl #28
    8b10:	04291600 	strteq	r1, [r9], #-1536	; 0xfffffa00
    8b14:	0a160000 	beq	588b1c <__bss_end__+0x57eadc>
    8b18:	00000001 	andeq	r0, r0, r1
    8b1c:	05ba040e 	ldreq	r0, [sl, #1038]!	; 0x40e
    8b20:	54090000 	strpl	r0, [r9], #-0
    8b24:	e4000000 	str	r0, [r0], #-0
    8b28:	0a000005 	beq	8b44 <emit+0x114>
    8b2c:	000000cc 	andeq	r0, r0, ip, asr #1
    8b30:	54090002 	strpl	r0, [r9], #-2
    8b34:	f4000000 	vst4.8	{d0-d3}, [r0], r0
    8b38:	0a000005 	beq	8b54 <emit+0x124>
    8b3c:	000000cc 	andeq	r0, r0, ip, asr #1
    8b40:	3a060000 	bcc	188b48 <__bss_end__+0x17eb08>
    8b44:	05000003 	streq	r0, [r0, #-3]
    8b48:	02e1011d 	rsceq	r0, r1, #1073741831	; 0x40000007
    8b4c:	b51a0000 	ldrlt	r0, [sl, #-0]
    8b50:	0c000004 	stceq	0, cr0, [r0], {4}
    8b54:	35012105 	strcc	r2, [r1, #-261]	; 0xfffffefb
    8b58:	18000006 	stmdane	r0, {r1, r2}
    8b5c:	00000362 	andeq	r0, r0, r2, ror #6
    8b60:	35012305 	strcc	r2, [r1, #-773]	; 0xfffffcfb
    8b64:	00000006 	andeq	r0, r0, r6
    8b68:	00022c18 	andeq	r2, r2, r8, lsl ip
    8b6c:	01240500 			; <UNDEFINED> instruction: 0x01240500
    8b70:	00000025 	andeq	r0, r0, r5, lsr #32
    8b74:	03341804 	teqeq	r4, #4, 16	; 0x40000
    8b78:	25050000 	strcs	r0, [r5, #-0]
    8b7c:	00063b01 	andeq	r3, r6, r1, lsl #22
    8b80:	0e000800 	cdpeq	8, 0, cr0, cr0, cr0, {0}
    8b84:	00060004 	andeq	r0, r6, r4
    8b88:	f4040e00 			; <UNDEFINED> instruction: 0xf4040e00
    8b8c:	1a000005 	bne	8ba8 <emit+0x178>
    8b90:	0000002f 	andeq	r0, r0, pc, lsr #32
    8b94:	013d050e 	teqeq	sp, lr, lsl #10
    8b98:	00000676 	andeq	r0, r0, r6, ror r6
    8b9c:	0003a818 	andeq	sl, r3, r8, lsl r8
    8ba0:	013e0500 	teqeq	lr, r0, lsl #10
    8ba4:	00000676 	andeq	r0, r0, r6, ror r6
    8ba8:	03d51800 	bicseq	r1, r5, #0, 16
    8bac:	3f050000 	svccc	0x00050000
    8bb0:	00067601 	andeq	r7, r6, r1, lsl #12
    8bb4:	53180600 	tstpl	r8, #0, 12
    8bb8:	05000004 	streq	r0, [r0, #-4]
    8bbc:	005b0140 	subseq	r0, fp, r0, asr #2
    8bc0:	000c0000 	andeq	r0, ip, r0
    8bc4:	00005b09 	andeq	r5, r0, r9, lsl #22
    8bc8:	00068600 	andeq	r8, r6, r0, lsl #12
    8bcc:	00cc0a00 	sbceq	r0, ip, r0, lsl #20
    8bd0:	00020000 	andeq	r0, r2, r0
    8bd4:	5705d01b 	smladpl	r5, fp, r0, sp
    8bd8:	00078702 	andeq	r8, r7, r2, lsl #14
    8bdc:	04991800 	ldreq	r1, [r9], #2048	; 0x800
    8be0:	59050000 	stmdbpl	r5, {}	; <UNPREDICTABLE>
    8be4:	00002c02 	andeq	r2, r0, r2, lsl #24
    8be8:	3d180000 	ldccc	0, cr0, [r8, #-0]
    8bec:	05000004 	streq	r0, [r0, #-4]
    8bf0:	010c025a 	tsteq	ip, sl, asr r2
    8bf4:	18040000 	stmdane	r4, {}	; <UNPREDICTABLE>
    8bf8:	0000025b 	andeq	r0, r0, fp, asr r2
    8bfc:	87025b05 	strhi	r5, [r2, -r5, lsl #22]
    8c00:	08000007 	stmdaeq	r0, {r0, r1, r2}
    8c04:	0004f918 	andeq	pc, r4, r8, lsl r9	; <UNPREDICTABLE>
    8c08:	025c0500 	subseq	r0, ip, #0, 10
    8c0c:	00000192 	muleq	r0, r2, r1
    8c10:	01c91824 	biceq	r1, r9, r4, lsr #16
    8c14:	5d050000 	stcpl	0, cr0, [r5, #-0]
    8c18:	00002502 	andeq	r2, r0, r2, lsl #10
    8c1c:	5d184800 	ldcpl	8, cr4, [r8, #-0]
    8c20:	05000003 	streq	r0, [r0, #-3]
    8c24:	0069025e 	rsbeq	r0, r9, lr, asr r2
    8c28:	18500000 	ldmdane	r0, {}^	; <UNPREDICTABLE>
    8c2c:	0000050f 	andeq	r0, r0, pc, lsl #10
    8c30:	41025f05 	tstmi	r2, r5, lsl #30
    8c34:	58000006 	stmdapl	r0, {r1, r2}
    8c38:	00036818 	andeq	r6, r3, r8, lsl r8
    8c3c:	02600500 	rsbeq	r0, r0, #0, 10
    8c40:	000000f4 	strdeq	r0, [r0], -r4
    8c44:	05141868 	ldreq	r1, [r4, #-2152]	; 0xfffff798
    8c48:	61050000 	mrsvs	r0, (UNDEF: 5)
    8c4c:	0000f402 	andeq	pc, r0, r2, lsl #8
    8c50:	a1187000 	tstge	r8, r0
    8c54:	05000000 	streq	r0, [r0, #-0]
    8c58:	00f40262 	rscseq	r0, r4, r2, ror #4
    8c5c:	18780000 	ldmdane	r8!, {}^	; <UNPREDICTABLE>
    8c60:	000004c4 	andeq	r0, r0, r4, asr #9
    8c64:	97026305 	strls	r6, [r2, -r5, lsl #6]
    8c68:	80000007 	andhi	r0, r0, r7
    8c6c:	00024f18 	andeq	r4, r2, r8, lsl pc
    8c70:	02640500 	rsbeq	r0, r4, #0, 10
    8c74:	000007a7 	andeq	r0, r0, r7, lsr #15
    8c78:	04601888 	strbteq	r1, [r0], #-2184	; 0xfffff778
    8c7c:	65050000 	strvs	r0, [r5, #-0]
    8c80:	00002502 	andeq	r2, r0, r2, lsl #10
    8c84:	8f18a000 	svchi	0x0018a000
    8c88:	05000001 	streq	r0, [r0, #-1]
    8c8c:	00f40266 	rscseq	r0, r4, r6, ror #4
    8c90:	18a40000 	stmiane	r4!, {}	; <UNPREDICTABLE>
    8c94:	00000092 	muleq	r0, r2, r0
    8c98:	f4026705 	vst1.8	{d6}, [r2], r5
    8c9c:	ac000000 	stcge	0, cr0, [r0], {-0}
    8ca0:	00017e18 	andeq	r7, r1, r8, lsl lr
    8ca4:	02680500 	rsbeq	r0, r8, #0, 10
    8ca8:	000000f4 	strdeq	r0, [r0], -r4
    8cac:	004a18b4 	strheq	r1, [sl], #-132	; 0xffffff7c
    8cb0:	69050000 	stmdbvs	r5, {}	; <UNPREDICTABLE>
    8cb4:	0000f402 	andeq	pc, r0, r2, lsl #8
    8cb8:	5918bc00 	ldmdbpl	r8, {sl, fp, ip, sp, pc}
    8cbc:	05000000 	streq	r0, [r0, #-0]
    8cc0:	00f4026a 	rscseq	r0, r4, sl, ror #4
    8cc4:	18c40000 	stmiane	r4, {}^	; <UNPREDICTABLE>
    8cc8:	00000310 	andeq	r0, r0, r0, lsl r3
    8ccc:	25026b05 	strcs	r6, [r2, #-2821]	; 0xfffff4fb
    8cd0:	cc000000 	stcgt	0, cr0, [r0], {-0}
    8cd4:	01120900 	tsteq	r2, r0, lsl #18
    8cd8:	07970000 	ldreq	r0, [r7, r0]
    8cdc:	cc0a0000 	stcgt	0, cr0, [sl], {-0}
    8ce0:	19000000 	stmdbne	r0, {}	; <UNPREDICTABLE>
    8ce4:	01120900 	tsteq	r2, r0, lsl #18
    8ce8:	07a70000 	streq	r0, [r7, r0]!
    8cec:	cc0a0000 	stcgt	0, cr0, [sl], {-0}
    8cf0:	07000000 	streq	r0, [r0, -r0]
    8cf4:	01120900 	tsteq	r2, r0, lsl #18
    8cf8:	07b70000 	ldreq	r0, [r7, r0]!
    8cfc:	cc0a0000 	stcgt	0, cr0, [sl], {-0}
    8d00:	17000000 	strne	r0, [r0, -r0]
    8d04:	05f01b00 	ldrbeq	r1, [r0, #2816]!	; 0xb00
    8d08:	07db0270 			; <UNDEFINED> instruction: 0x07db0270
    8d0c:	b7180000 	ldrlt	r0, [r8, -r0]
    8d10:	05000002 	streq	r0, [r0, #-2]
    8d14:	07db0273 			; <UNDEFINED> instruction: 0x07db0273
    8d18:	18000000 	stmdane	r0, {}	; <UNPREDICTABLE>
    8d1c:	000004bb 			; <UNDEFINED> instruction: 0x000004bb
    8d20:	eb027405 	bl	a5d3c <__bss_end__+0x9bcfc>
    8d24:	78000007 	stmdavc	r0, {r0, r1, r2}
    8d28:	02db0900 	sbcseq	r0, fp, #0, 18
    8d2c:	07eb0000 	strbeq	r0, [fp, r0]!
    8d30:	cc0a0000 	stcgt	0, cr0, [sl], {-0}
    8d34:	1d000000 	stcne	0, cr0, [r0, #-0]
    8d38:	002c0900 	eoreq	r0, ip, r0, lsl #18
    8d3c:	07fb0000 	ldrbeq	r0, [fp, r0]!
    8d40:	cc0a0000 	stcgt	0, cr0, [sl], {-0}
    8d44:	1d000000 	stcne	0, cr0, [r0, #-0]
    8d48:	05f01c00 	ldrbeq	r1, [r0, #3072]!	; 0xc00
    8d4c:	081d0255 	ldmdaeq	sp, {r0, r2, r4, r6, r9}
    8d50:	a11d0000 	tstge	sp, r0
    8d54:	05000003 	streq	r0, [r0, #-3]
    8d58:	0686026c 	streq	r0, [r6], ip, ror #4
    8d5c:	e61d0000 	ldr	r0, [sp], -r0
    8d60:	05000004 	streq	r0, [r0, #-4]
    8d64:	07b70275 			; <UNDEFINED> instruction: 0x07b70275
    8d68:	09000000 	stmdbeq	r0, {}	; <UNPREDICTABLE>
    8d6c:	00000112 	andeq	r0, r0, r2, lsl r1
    8d70:	0000082d 	andeq	r0, r0, sp, lsr #16
    8d74:	0000cc0a 	andeq	ip, r0, sl, lsl #24
    8d78:	1e001800 	cdpne	8, 0, cr1, cr0, cr0, {0}
    8d7c:	00000838 	andeq	r0, r0, r8, lsr r8
    8d80:	00042916 	andeq	r2, r4, r6, lsl r9
    8d84:	040e0000 	streq	r0, [lr], #-0
    8d88:	0000082d 	andeq	r0, r0, sp, lsr #16
    8d8c:	017c040e 	cmneq	ip, lr, lsl #8
    8d90:	4f1e0000 	svcmi	0x001e0000
    8d94:	16000008 	strne	r0, [r0], -r8
    8d98:	00000025 	andeq	r0, r0, r5, lsr #32
    8d9c:	55040e00 	strpl	r0, [r4, #-3584]	; 0xfffff200
    8da0:	0e000008 	cdpeq	0, 0, cr0, cr0, cr8, {0}
    8da4:	00084404 	andeq	r4, r8, r4, lsl #8
    8da8:	05f40900 	ldrbeq	r0, [r4, #2304]!	; 0x900
    8dac:	086b0000 	stmdaeq	fp!, {}^	; <UNPREDICTABLE>
    8db0:	cc0a0000 	stcgt	0, cr0, [sl], {-0}
    8db4:	02000000 	andeq	r0, r0, #0
    8db8:	04741f00 	ldrbteq	r1, [r4], #-3840	; 0xfffff100
    8dbc:	fd050000 	stc2	0, cr0, [r5, #-0]
    8dc0:	00042902 	andeq	r2, r4, r2, lsl #18
    8dc4:	046d1f00 	strbteq	r1, [sp], #-3840	; 0xfffff100
    8dc8:	fe050000 	cdp2	0, 0, cr0, cr5, cr0, {0}
    8dcc:	00042f02 	andeq	r2, r4, r2, lsl #30
    8dd0:	00251500 	eoreq	r1, r5, r0, lsl #10
    8dd4:	08920000 	ldmeq	r2, {}	; <UNPREDICTABLE>
    8dd8:	25160000 	ldrcs	r0, [r6, #-0]
    8ddc:	00000000 	andeq	r0, r0, r0
    8de0:	0001e220 	andeq	lr, r1, r0, lsr #4
    8de4:	9d1d0600 	ldcls	6, cr0, [sp, #-0]
    8de8:	0e000008 	cdpeq	0, 0, cr0, cr0, cr8, {0}
    8dec:	00088304 	andeq	r8, r8, r4, lsl #6
    8df0:	00251500 	eoreq	r1, r5, r0, lsl #10
    8df4:	08b20000 	ldmeq	r2!, {}	; <UNPREDICTABLE>
    8df8:	8a160000 	bhi	588e00 <__bss_end__+0x57edc0>
    8dfc:	00000005 	andeq	r0, r0, r5
    8e00:	00076e20 	andeq	r6, r7, r0, lsr #28
    8e04:	bd220600 	stclt	6, cr0, [r2, #-0]
    8e08:	0e000008 	cdpeq	0, 0, cr0, cr0, cr8, {0}
    8e0c:	0008a304 	andeq	sl, r8, r4, lsl #6
    8e10:	54012100 	strpl	r2, [r1], #-256	; 0xffffff00
    8e14:	08000000 	stmdaeq	r0, {}	; <UNPREDICTABLE>
    8e18:	0009000c 	andeq	r0, r9, ip
    8e1c:	090f2200 	stmdbeq	pc, {r9, sp}	; <UNPREDICTABLE>
    8e20:	22000000 	andcs	r0, r0, #0
    8e24:	000009e9 	andeq	r0, r0, r9, ror #19
    8e28:	0a242201 	beq	911634 <__bss_end__+0x9075f4>
    8e2c:	22040000 	andcs	r0, r4, #0
    8e30:	00000924 	andeq	r0, r0, r4, lsr #18
    8e34:	09b02205 	ldmibeq	r0!, {r0, r2, r9, sp}
    8e38:	22060000 	andcs	r0, r6, #0
    8e3c:	00000a33 	andeq	r0, r0, r3, lsr sl
    8e40:	0a422207 	beq	1091664 <__bss_end__+0x1087624>
    8e44:	22030000 	andcs	r0, r3, #0
    8e48:	00000a51 	andeq	r0, r0, r1, asr sl
    8e4c:	3f100002 	svccc	0x00100002
    8e50:	2c000009 	stccs	0, cr0, [r0], {9}
    8e54:	09900607 	ldmibeq	r0, {r0, r1, r2, r9, sl}
    8e58:	69110000 	ldmdbvs	r1, {}	; <UNPREDICTABLE>
    8e5c:	0907006f 	stmdbeq	r7, {r0, r1, r2, r3, r5, r6}
    8e60:	00000033 	andeq	r0, r0, r3, lsr r0
    8e64:	65691100 	strbvs	r1, [r9, #-256]!	; 0xffffff00
    8e68:	0a070072 	beq	1c9038 <__bss_end__+0x1beff8>
    8e6c:	00000033 	andeq	r0, r0, r3, lsr r0
    8e70:	69691104 	stmdbvs	r9!, {r2, r8, ip}^
    8e74:	11070072 	tstne	r7, r2, ror r0
    8e78:	00000033 	andeq	r0, r0, r3, lsr r0
    8e7c:	636c1108 	cmnvs	ip, #8, 2
    8e80:	13070072 	movwne	r0, #28786	; 0x7072
    8e84:	00000033 	andeq	r0, r0, r3, lsr r0
    8e88:	636d110c 	cmnvs	sp, #12, 2
    8e8c:	14070072 	strne	r0, [r7], #-114	; 0xffffff8e
    8e90:	00000033 	andeq	r0, r0, r3, lsr r0
    8e94:	736c1110 	cmnvc	ip, #16, 2
    8e98:	15070072 	strne	r0, [r7, #-114]	; 0xffffff8e
    8e9c:	00000033 	andeq	r0, r0, r3, lsr r0
    8ea0:	736d1114 	cmnvc	sp, #20, 2
    8ea4:	16070072 			; <UNDEFINED> instruction: 0x16070072
    8ea8:	00000033 	andeq	r0, r0, r3, lsr r0
    8eac:	09db0c18 	ldmibeq	fp, {r3, r4, sl, fp}^
    8eb0:	17070000 	strne	r0, [r7, -r0]
    8eb4:	00000033 	andeq	r0, r0, r3, lsr r0
    8eb8:	09330c1c 	ldmdbeq	r3!, {r2, r3, r4, sl, fp}
    8ebc:	1b070000 	blne	1c8ec4 <__bss_end__+0x1bee84>
    8ec0:	00000033 	andeq	r0, r0, r3, lsr r0
    8ec4:	091f0c20 	ldmdbeq	pc, {r5, sl, fp}	; <UNPREDICTABLE>
    8ec8:	1d070000 	stcne	0, cr0, [r7, #-0]
    8ecc:	00000033 	andeq	r0, r0, r3, lsr r0
    8ed0:	09d60c24 	ldmibeq	r6, {r2, r5, sl, fp}^
    8ed4:	1e070000 	cdpne	0, 0, cr0, cr7, cr0, {0}
    8ed8:	00000033 	andeq	r0, r0, r3, lsr r0
    8edc:	80230028 	eorhi	r0, r3, r8, lsr #32
    8ee0:	01000009 	tsteq	r0, r9
    8ee4:	0009a507 	andeq	sl, r9, r7, lsl #10
    8ee8:	21500400 	cmpcs	r0, r0, lsl #8
    8eec:	33040e20 	movwcc	r0, #20000	; 0x4e20
    8ef0:	0f000000 	svceq	0x00000000
    8ef4:	0000099f 	muleq	r0, pc, r9	; <UNPREDICTABLE>
    8ef8:	0009d123 	andeq	sp, r9, r3, lsr #2
    8efc:	bf280100 	svclt	0x00280100
    8f00:	40000009 	andmi	r0, r0, r9
    8f04:	0e202150 	mcreq	1, 1, r2, cr0, cr0, {2}
    8f08:	00090004 	andeq	r0, r9, r4
    8f0c:	09b90f00 	ldmibeq	r9!, {r8, r9, sl, fp}
    8f10:	16240000 	strtne	r0, [r4], -r0
    8f14:	0100000a 	tsteq	r0, sl
    8f18:	000025a7 	andeq	r2, r0, r7, lsr #11
    8f1c:	00937c00 	addseq	r7, r3, r0, lsl #24
    8f20:	00001000 	andeq	r1, r0, r0
    8f24:	f09c0100 			; <UNDEFINED> instruction: 0xf09c0100
    8f28:	25000009 	strcs	r0, [r0, #-9]
    8f2c:	00009384 	andeq	r9, r0, r4, lsl #7
    8f30:	00000c9c 	muleq	r0, ip, ip
    8f34:	00938825 	addseq	r8, r3, r5, lsr #16
    8f38:	000ad200 	andeq	sp, sl, r0, lsl #4
    8f3c:	8c260000 	stchi	0, cr0, [r6], #-0
    8f40:	01000007 	tsteq	r0, r7
    8f44:	00934c9f 	umullseq	r4, r3, pc, ip	; <UNPREDICTABLE>
    8f48:	00003000 	andeq	r3, r0, r0
    8f4c:	4e9c0100 	fmlmie	f0, f4, f0
    8f50:	2700000a 	strcs	r0, [r0, -sl]
    8f54:	9f010063 	svcls	0x00010063
    8f58:	0000002c 	andeq	r0, r0, ip, lsr #32
    8f5c:	0000113a 	andeq	r1, r0, sl, lsr r1
    8f60:	00935825 	addseq	r5, r3, r5, lsr #16
    8f64:	000c9c00 	andeq	r9, ip, r0, lsl #24
    8f68:	935c2500 	cmpls	ip, #0, 10
    8f6c:	0aa50000 	beq	fe948f74 <__bss_end__+0xfe93ef34>
    8f70:	70280000 	eorvc	r0, r8, r0
    8f74:	a7000093 			; <UNDEFINED> instruction: 0xa7000093
    8f78:	4400000c 	strmi	r0, [r0], #-12
    8f7c:	2900000a 	stmdbcs	r0, {r1, r3}
    8f80:	0c055001 	stceq	0, cr5, [r5], {1}
    8f84:	20215040 	eorcs	r5, r1, r0, asr #32
    8f88:	05510129 	ldrbeq	r0, [r1, #-297]	; 0xfffffed7
    8f8c:	ff080074 			; <UNDEFINED> instruction: 0xff080074
    8f90:	7425001a 	strtvc	r0, [r5], #-26	; 0xffffffe6
    8f94:	9c000093 	stcls	0, cr0, [r0], {147}	; 0x93
    8f98:	0000000c 	andeq	r0, r0, ip
    8f9c:	00099a24 	andeq	r9, r9, r4, lsr #20
    8fa0:	25970100 	ldrcs	r0, [r7, #256]	; 0x100
    8fa4:	1c000000 	stcne	0, cr0, [r0], {-0}
    8fa8:	30000093 	mulcc	r0, r3, r0
    8fac:	01000000 	mrseq	r0, (UNDEF: 0)
    8fb0:	000aa59c 	muleq	sl, ip, r5
    8fb4:	00632a00 	rsbeq	r2, r3, r0, lsl #20
    8fb8:	00259b01 	eoreq	r9, r5, r1, lsl #22
    8fbc:	54010000 	strpl	r0, [r1], #-0
    8fc0:	00932425 	addseq	r2, r3, r5, lsr #8
    8fc4:	000c9c00 	andeq	r9, ip, r0, lsl #24
    8fc8:	93282500 			; <UNDEFINED> instruction: 0x93282500
    8fcc:	0ad20000 	beq	ff488fd4 <__bss_end__+0xff47ef94>
    8fd0:	38280000 	stmdacc	r8!, {}	; <UNPREDICTABLE>
    8fd4:	b2000093 	andlt	r0, r0, #147	; 0x93
    8fd8:	9b00000c 	blls	9010 <internal_putchar>
    8fdc:	2900000a 	stmdbcs	r0, {r1, r3}
    8fe0:	0c055001 	stceq	0, cr5, [r5], {1}
    8fe4:	20215040 	eorcs	r5, r1, r0, asr #32
    8fe8:	93402500 	movtls	r2, #1280	; 0x500
    8fec:	0c9c0000 	ldceq	0, cr0, [ip], {0}
    8ff0:	24000000 	strcs	r0, [r0], #-0
    8ff4:	0000098c 	andeq	r0, r0, ip, lsl #19
    8ff8:	00258801 	eoreq	r8, r5, r1, lsl #16
    8ffc:	92fc0000 	rscsls	r0, ip, #0
    9000:	00200000 	eoreq	r0, r0, r0
    9004:	9c010000 	stcls	0, cr0, [r1], {-0}
    9008:	00000ad2 	ldrdeq	r0, [r0], -r2
    900c:	0093082b 	addseq	r0, r3, fp, lsr #16
    9010:	000cb200 	andeq	fp, ip, r0, lsl #4
    9014:	50012900 	andpl	r2, r1, r0, lsl #18
    9018:	50640c05 	rsbpl	r0, r4, r5, lsl #24
    901c:	00002021 	andeq	r2, r0, r1, lsr #32
    9020:	000a0024 	andeq	r0, sl, r4, lsr #32
    9024:	257f0100 	ldrbcs	r0, [pc, #-256]!	; 8f2c <fast_hash+0x38>
    9028:	e4000000 	str	r0, [r0], #-0
    902c:	18000092 	stmdane	r0, {r1, r4, r7}
    9030:	01000000 	mrseq	r0, (UNDEF: 0)
    9034:	000aff9c 	muleq	sl, ip, pc	; <UNPREDICTABLE>
    9038:	92f02b00 	rscsls	r2, r0, #0, 22
    903c:	0cb20000 	ldceq	0, cr0, [r2]
    9040:	01290000 			; <UNDEFINED> instruction: 0x01290000
    9044:	640c0550 	strvs	r0, [ip], #-1360	; 0xfffffab0
    9048:	00202150 	eoreq	r2, r0, r0, asr r1
    904c:	09052600 	stmdbeq	r5, {r9, sl, sp}
    9050:	3a010000 	bcc	49058 <__bss_end__+0x3f018>
    9054:	00009234 	andeq	r9, r0, r4, lsr r2
    9058:	000000b0 	strheq	r0, [r0], -r0	; <UNPREDICTABLE>
    905c:	0c3d9c01 	ldceq	12, cr9, [sp], #-4
    9060:	44280000 	strtmi	r0, [r8], #-0
    9064:	bd000092 	stclt	0, cr0, [r0, #-584]	; 0xfffffdb8
    9068:	2c00000c 	stccs	0, cr0, [r0], {12}
    906c:	2900000b 	stmdbcs	r0, {r0, r1, r3}
    9070:	3e015001 	cdpcc	0, 0, cr5, cr1, cr1, {0}
    9074:	01510129 	cmpeq	r1, r9, lsr #2
    9078:	50280032 	eorpl	r0, r8, r2, lsr r0
    907c:	bd000092 	stclt	0, cr0, [r0, #-584]	; 0xfffffdb8
    9080:	4400000c 	strmi	r0, [r0], #-12
    9084:	2900000b 	stmdbcs	r0, {r0, r1, r3}
    9088:	3f015001 	svccc	0x00015001
    908c:	01510129 	cmpeq	r1, r9, lsr #2
    9090:	54250032 	strtpl	r0, [r5], #-50	; 0xffffffce
    9094:	9c000092 	stcls	0, cr0, [r0], {146}	; 0x92
    9098:	2800000c 	stmdacs	r0, {r2, r3}
    909c:	00009260 	andeq	r9, r0, r0, ror #4
    90a0:	00000c3d 	andeq	r0, r0, sp, lsr ip
    90a4:	00000b69 	andeq	r0, r0, r9, ror #22
    90a8:	05500129 	ldrbeq	r0, [r0, #-297]	; 0xfffffed7
    90ac:	2150040c 	cmpcs	r0, ip, lsl #8
    90b0:	51012920 	tstpl	r1, r0, lsr #18
    90b4:	25003101 	strcs	r3, [r0, #-257]	; 0xfffffeff
    90b8:	00009264 	andeq	r9, r0, r4, ror #4
    90bc:	00000c9c 	muleq	r0, ip, ip
    90c0:	00927428 	addseq	r7, r2, r8, lsr #8
    90c4:	000ca700 	andeq	sl, ip, r0, lsl #14
    90c8:	000b8b00 	andeq	r8, fp, r0, lsl #22
    90cc:	50012900 	andpl	r2, r1, r0, lsl #18
    90d0:	29007402 	stmdbcs	r0, {r1, sl, ip, sp, lr}
    90d4:	30015101 	andcc	r5, r1, r1, lsl #2
    90d8:	92802800 	addls	r2, r0, #0, 16
    90dc:	0ca70000 	stceq	0, cr0, [r7]
    90e0:	0ba70000 	bleq	fe9c90e8 <__bss_end__+0xfe9bf0a8>
    90e4:	01290000 			; <UNDEFINED> instruction: 0x01290000
    90e8:	440c0550 	strmi	r0, [ip], #-1360	; 0xfffffab0
    90ec:	29202150 	stmdbcs	r0!, {r4, r6, r8, sp}
    90f0:	30015101 	andcc	r5, r1, r1, lsl #2
    90f4:	928c2800 	addls	r2, ip, #0, 16
    90f8:	0ca70000 	stceq	0, cr0, [r7]
    90fc:	0bc30000 	bleq	ff0c9104 <__bss_end__+0xff0bf0c4>
    9100:	01290000 			; <UNDEFINED> instruction: 0x01290000
    9104:	4c0c0550 	cfstr32mi	mvfx0, [ip], {80}	; 0x50
    9108:	29202150 	stmdbcs	r0!, {r4, r6, r8, sp}
    910c:	33015101 	movwcc	r5, #4353	; 0x1101
    9110:	92982800 	addsls	r2, r8, #0, 16
    9114:	0ca70000 	stceq	0, cr0, [r7]
    9118:	0bdf0000 	bleq	ff7c9120 <__bss_end__+0xff7bf0e0>
    911c:	01290000 			; <UNDEFINED> instruction: 0x01290000
    9120:	500c0550 	andpl	r0, ip, r0, asr r5
    9124:	29202150 	stmdbcs	r0!, {r4, r6, r8, sp}
    9128:	30015101 	andcc	r5, r1, r1, lsl #2
    912c:	92a42800 	adcls	r2, r4, #0, 16
    9130:	0ca70000 	stceq	0, cr0, [r7]
    9134:	0bfc0000 	bleq	fff0913c <__bss_end__+0xffeff0fc>
    9138:	01290000 			; <UNDEFINED> instruction: 0x01290000
    913c:	480c0550 	stmdami	ip, {r4, r6, r8, sl}
    9140:	29202150 	stmdbcs	r0!, {r4, r6, r8, sp}
    9144:	08025101 	stmdaeq	r2, {r0, r8, ip, lr}
    9148:	b02800c7 	eorlt	r0, r8, r7, asr #1
    914c:	a7000092 			; <UNDEFINED> instruction: 0xa7000092
    9150:	1a00000c 	bne	9188 <delay_us+0xc>
    9154:	2900000c 	stmdbcs	r0, {r2, r3}
    9158:	0c055001 	stceq	0, cr5, [r5], {1}
    915c:	20215068 	eorcs	r5, r1, r8, rrx
    9160:	03510129 	cmpeq	r1, #1073741834	; 0x4000000a
    9164:	00010e0a 	andeq	r0, r1, sl, lsl #28
    9168:	0092bc28 	addseq	fp, r2, r8, lsr #24
    916c:	000ca700 	andeq	sl, ip, r0, lsl #14
    9170:	000c3300 	andeq	r3, ip, r0, lsl #6
    9174:	50012900 	andpl	r2, r1, r0, lsl #18
    9178:	29007402 	stmdbcs	r0, {r1, sl, ip, sp, lr}
    917c:	33015101 	movwcc	r5, #4353	; 0x1101
    9180:	92c02500 	sbcls	r2, r0, #0, 10
    9184:	0c9c0000 	ldceq	0, cr0, [ip], {0}
    9188:	2c000000 	stccs	0, cr0, [r0], {-0}
    918c:	00000a0e 	andeq	r0, r0, lr, lsl #20
    9190:	92142d01 	andsls	r2, r4, #1, 26	; 0x40
    9194:	00200000 	eoreq	r0, r0, r0
    9198:	9c010000 	stcls	0, cr0, [r1], {-0}
    919c:	00000c95 	muleq	r0, r5, ip
    91a0:	000b652d 	andeq	r6, fp, sp, lsr #10
    91a4:	952d0100 	strls	r0, [sp, #-256]!	; 0xffffff00
    91a8:	5800000c 	stmdapl	r0, {r2, r3}
    91ac:	27000011 	smladcs	r0, r1, r0, r0
    91b0:	006c6176 	rsbeq	r6, ip, r6, ror r1
    91b4:	002c2d01 	eoreq	r2, ip, r1, lsl #26
    91b8:	11760000 	cmnne	r6, r0
    91bc:	24280000 	strtcs	r0, [r8], #-0
    91c0:	b2000092 	andlt	r0, r0, #146	; 0x92
    91c4:	8400000c 	strhi	r0, [r0], #-12
    91c8:	2900000c 	stmdbcs	r0, {r2, r3}
    91cc:	74025001 	strvc	r5, [r2], #-1
    91d0:	302b0000 	eorcc	r0, fp, r0
    91d4:	a7000092 			; <UNDEFINED> instruction: 0xa7000092
    91d8:	2900000c 	stmdbcs	r0, {r2, r3}
    91dc:	74025001 	strvc	r5, [r2], #-1
    91e0:	0e000000 	cdpeq	0, 0, cr0, cr0, cr0, {0}
    91e4:	000c9b04 	andeq	r9, ip, r4, lsl #22
    91e8:	a42f2e00 	strtge	r2, [pc], #-3584	; 91f0 <PUT8>
    91ec:	a4000009 	strge	r0, [r0], #-9
    91f0:	06000009 	streq	r0, [r0], -r9
    91f4:	09e32f89 	stmibeq	r3!, {r0, r3, r7, r8, r9, sl, fp, sp}^
    91f8:	09e30000 	stmibeq	r3!, {}^	; <UNPREDICTABLE>
    91fc:	9c060000 	stcls	0, cr0, [r6], {-0}
    9200:	0009fa2f 	andeq	pc, r9, pc, lsr #20
    9204:	0009fa00 	andeq	pc, r9, r0, lsl #20
    9208:	2fa80600 	svccs	0x00a80600
    920c:	000009bf 			; <UNDEFINED> instruction: 0x000009bf
    9210:	000009bf 			; <UNDEFINED> instruction: 0x000009bf
    9214:	70001908 	andvc	r1, r0, r8, lsl #18
    9218:	0400000b 	streq	r0, [r0], #-11
    921c:	001c3000 	andseq	r3, ip, r0
    9220:	db010400 	blle	4a228 <__bss_end__+0x401e8>
    9224:	0c000003 	stceq	0, cr0, [r0], {3}
    9228:	00000a72 	andeq	r0, r0, r2, ror sl
    922c:	0000094b 	andeq	r0, r0, fp, asr #18
    9230:	0000938c 	andeq	r9, r0, ip, lsl #7
    9234:	00000120 	andeq	r0, r0, r0, lsr #2
    9238:	00000ef6 	strdeq	r0, [r0], -r6
    923c:	69050402 	stmdbvs	r5, {r1, sl}
    9240:	0300746e 	movweq	r7, #1134	; 0x46e
    9244:	00740704 	rsbseq	r0, r4, r4, lsl #14
    9248:	2c040000 	stccs	0, cr0, [r4], {-0}
    924c:	03000000 	movweq	r0, #0
    9250:	02ff0601 	rscseq	r0, pc, #1048576	; 0x100000
    9254:	02030000 	andeq	r0, r3, #0
    9258:	00031905 	andeq	r1, r3, r5, lsl #18
    925c:	05040300 	streq	r0, [r4, #-768]	; 0xfffffd00
    9260:	000000bd 	strheq	r0, [r0], -sp
    9264:	b8050803 	stmdalt	r5, {r0, r1, fp}
    9268:	03000000 	movweq	r0, #0
    926c:	02fd0801 	rscseq	r0, sp, #65536	; 0x10000
    9270:	02030000 	andeq	r0, r3, #0
    9274:	00023307 	andeq	r3, r2, r7, lsl #6
    9278:	07040300 	streq	r0, [r4, -r0, lsl #6]
    927c:	0000006f 	andeq	r0, r0, pc, rrx
    9280:	6a070803 	bvs	1cb294 <__bss_end__+0x1c1254>
    9284:	05000000 	streq	r0, [r0, #-0]
    9288:	000002eb 	andeq	r0, r0, fp, ror #5
    928c:	00250702 	eoreq	r0, r5, r2, lsl #14
    9290:	da050000 	ble	149298 <__bss_end__+0x13f258>
    9294:	03000002 	movweq	r0, #2
    9298:	0000462c 	andeq	r4, r0, ip, lsr #12
    929c:	03c40500 	biceq	r0, r4, #0, 10
    92a0:	72030000 	andvc	r0, r3, #0
    92a4:	00000046 	andeq	r0, r0, r6, asr #32
    92a8:	00027606 	andeq	r7, r2, r6, lsl #12
    92ac:	01650400 	cmneq	r5, r0, lsl #8
    92b0:	0000002c 	andeq	r0, r0, ip, lsr #32
    92b4:	a6030407 	strge	r0, [r3], -r7, lsl #8
    92b8:	000000bc 	strheq	r0, [r0], -ip
    92bc:	00027008 	andeq	r7, r2, r8
    92c0:	91a80300 			; <UNDEFINED> instruction: 0x91a80300
    92c4:	08000000 	stmdaeq	r0, {}	; <UNPREDICTABLE>
    92c8:	000001f3 	strdeq	r0, [r0], -r3
    92cc:	00bca903 	adcseq	sl, ip, r3, lsl #18
    92d0:	09000000 	stmdbeq	r0, {}	; <UNPREDICTABLE>
    92d4:	00000054 	andeq	r0, r0, r4, asr r0
    92d8:	000000cc 	andeq	r0, r0, ip, asr #1
    92dc:	0000cc0a 	andeq	ip, r0, sl, lsl #24
    92e0:	03000300 	movweq	r0, #768	; 0x300
    92e4:	02ae0704 	adceq	r0, lr, #4, 14	; 0x100000
    92e8:	080b0000 	stmdaeq	fp, {}	; <UNPREDICTABLE>
    92ec:	00f4a303 	rscseq	sl, r4, r3, lsl #6
    92f0:	ae0c0000 	cdpge	0, 0, cr0, cr12, cr0, {0}
    92f4:	03000003 	movweq	r0, #3
    92f8:	000025a5 	andeq	r2, r0, r5, lsr #11
    92fc:	b60c0000 	strlt	r0, [ip], -r0
    9300:	03000003 	movweq	r0, #3
    9304:	00009daa 	andeq	r9, r0, sl, lsr #27
    9308:	05000400 	streq	r0, [r0, #-1024]	; 0xfffffc00
    930c:	00000341 	andeq	r0, r0, r1, asr #6
    9310:	00d3ab03 	sbcseq	sl, r3, r3, lsl #22
    9314:	b0050000 	andlt	r0, r5, r0
    9318:	03000001 	movweq	r0, #1
    931c:	000070af 	andeq	r7, r0, pc, lsr #1
    9320:	0e040d00 	cdpeq	13, 0, cr0, cr4, cr0, {0}
    9324:	00011204 	andeq	r1, r1, r4, lsl #4
    9328:	08010300 	stmdaeq	r1, {r8, r9}
    932c:	00000306 	andeq	r0, r0, r6, lsl #6
    9330:	00011204 	andeq	r1, r1, r4, lsl #4
    9334:	04580500 	ldrbeq	r0, [r8], #-1280	; 0xfffffb00
    9338:	16050000 	strne	r0, [r5], -r0
    933c:	00000062 	andeq	r0, r0, r2, rrx
    9340:	0001c10f 	andeq	ip, r1, pc, lsl #2
    9344:	2d051800 	stccs	8, cr1, [r5, #-0]
    9348:	0000017c 	andeq	r0, r0, ip, ror r1
    934c:	0003620c 	andeq	r6, r3, ip, lsl #4
    9350:	7c2f0500 	cfstr32vc	mvfx0, [pc], #-0	; 9358 <uart_putc+0xc>
    9354:	00000001 	andeq	r0, r0, r1
    9358:	006b5f10 	rsbeq	r5, fp, r0, lsl pc
    935c:	00253005 	eoreq	r3, r5, r5
    9360:	0c040000 	stceq	0, cr0, [r4], {-0}
    9364:	00000399 	muleq	r0, r9, r3
    9368:	00253005 	eoreq	r3, r5, r5
    936c:	0c080000 	stceq	0, cr0, [r8], {-0}
    9370:	000001aa 	andeq	r0, r0, sl, lsr #3
    9374:	00253005 	eoreq	r3, r5, r5
    9378:	0c0c0000 	stceq	0, cr0, [ip], {-0}
    937c:	000004a6 	andeq	r0, r0, r6, lsr #9
    9380:	00253005 	eoreq	r3, r5, r5
    9384:	10100000 	andsne	r0, r0, r0
    9388:	0500785f 	streq	r7, [r0, #-2143]	; 0xfffff7a1
    938c:	00018231 	andeq	r8, r1, r1, lsr r2
    9390:	0e001400 	cfcpyseq	mvf1, mvf0
    9394:	00012904 	andeq	r2, r1, r4, lsl #18
    9398:	011e0900 	tsteq	lr, r0, lsl #18
    939c:	01920000 	orrseq	r0, r2, r0
    93a0:	cc0a0000 	stcgt	0, cr0, [sl], {-0}
    93a4:	00000000 	andeq	r0, r0, r0
    93a8:	01ee0f00 	mvneq	r0, r0, lsl #30
    93ac:	05240000 	streq	r0, [r4, #-0]!
    93b0:	00020b35 	andeq	r0, r2, r5, lsr fp
    93b4:	00af0c00 	adceq	r0, pc, r0, lsl #24
    93b8:	37050000 	strcc	r0, [r5, -r0]
    93bc:	00000025 	andeq	r0, r0, r5, lsr #32
    93c0:	03cc0c00 	biceq	r0, ip, #0, 24
    93c4:	38050000 	stmdacc	r5, {}	; <UNPREDICTABLE>
    93c8:	00000025 	andeq	r0, r0, r5, lsr #32
    93cc:	00d20c04 	sbcseq	r0, r2, r4, lsl #24
    93d0:	39050000 	stmdbcc	r5, {}	; <UNPREDICTABLE>
    93d4:	00000025 	andeq	r0, r0, r5, lsr #32
    93d8:	05270c08 	streq	r0, [r7, #-3080]!	; 0xfffff3f8
    93dc:	3a050000 	bcc	1493e4 <__bss_end__+0x13f3a4>
    93e0:	00000025 	andeq	r0, r0, r5, lsr #32
    93e4:	02be0c0c 	adcseq	r0, lr, #12, 24	; 0xc00
    93e8:	3b050000 	blcc	1493f0 <__bss_end__+0x13f3b0>
    93ec:	00000025 	andeq	r0, r0, r5, lsr #32
    93f0:	02970c10 	addseq	r0, r7, #16, 24	; 0x1000
    93f4:	3c050000 	stccc	0, cr0, [r5], {-0}
    93f8:	00000025 	andeq	r0, r0, r5, lsr #32
    93fc:	04ab0c14 	strteq	r0, [fp], #3092	; 0xc14
    9400:	3d050000 	stccc	0, cr0, [r5, #-0]
    9404:	00000025 	andeq	r0, r0, r5, lsr #32
    9408:	03230c18 			; <UNDEFINED> instruction: 0x03230c18
    940c:	3e050000 	cdpcc	0, 0, cr0, cr5, cr0, {0}
    9410:	00000025 	andeq	r0, r0, r5, lsr #32
    9414:	04ee0c1c 	strbteq	r0, [lr], #3100	; 0xc1c
    9418:	3f050000 	svccc	0x00050000
    941c:	00000025 	andeq	r0, r0, r5, lsr #32
    9420:	12110020 	andsne	r0, r1, #32
    9424:	08000001 	stmdaeq	r0, {r0}
    9428:	4b480501 	blmi	120a834 <__bss_end__+0x12007f4>
    942c:	0c000002 	stceq	0, cr0, [r0], {2}
    9430:	0000019d 	muleq	r0, sp, r1
    9434:	024b4905 	subeq	r4, fp, #81920	; 0x14000
    9438:	0c000000 	stceq	0, cr0, [r0], {-0}
    943c:	00000000 	andeq	r0, r0, r0
    9440:	024b4a05 	subeq	r4, fp, #20480	; 0x5000
    9444:	12800000 	addne	r0, r0, #0
    9448:	0000044a 	andeq	r0, r0, sl, asr #8
    944c:	011e4c05 	tsteq	lr, r5, lsl #24
    9450:	01000000 	mrseq	r0, (UNDEF: 0)
    9454:	00013712 	andeq	r3, r1, r2, lsl r7
    9458:	1e4f0500 	cdpne	5, 4, cr0, cr15, cr0, {0}
    945c:	04000001 	streq	r0, [r0], #-1
    9460:	0a090001 	beq	24946c <__bss_end__+0x23f42c>
    9464:	5b000001 	blpl	9470 <gpio_write+0x14>
    9468:	0a000002 	beq	9478 <gpio_read>
    946c:	000000cc 	andeq	r0, r0, ip, asr #1
    9470:	c711001f 			; <UNDEFINED> instruction: 0xc711001f
    9474:	90000002 	andls	r0, r0, r2
    9478:	995b0501 	ldmdbls	fp, {r0, r8, sl}^
    947c:	0c000002 	stceq	0, cr0, [r0], {2}
    9480:	00000362 	andeq	r0, r0, r2, ror #6
    9484:	02995c05 	addseq	r5, r9, #1280	; 0x500
    9488:	0c000000 	stceq	0, cr0, [r0], {-0}
    948c:	0000037a 	andeq	r0, r0, sl, ror r3
    9490:	00255d05 	eoreq	r5, r5, r5, lsl #26
    9494:	0c040000 	stceq	0, cr0, [r4], {-0}
    9498:	000001a5 	andeq	r0, r0, r5, lsr #3
    949c:	029f5f05 	addseq	r5, pc, #5, 30
    94a0:	0c080000 	stceq	0, cr0, [r8], {-0}
    94a4:	00000112 	andeq	r0, r0, r2, lsl r1
    94a8:	020b6005 	andeq	r6, fp, #5
    94ac:	00880000 	addeq	r0, r8, r0
    94b0:	025b040e 	subseq	r0, fp, #234881024	; 0xe000000
    94b4:	af090000 	svcge	0x00090000
    94b8:	af000002 	svcge	0x00000002
    94bc:	0a000002 	beq	94cc <kmalloc_init_set_start+0x4>
    94c0:	000000cc 	andeq	r0, r0, ip, asr #1
    94c4:	040e001f 	streq	r0, [lr], #-31	; 0xffffffe1
    94c8:	000002b5 			; <UNDEFINED> instruction: 0x000002b5
    94cc:	032d0f13 			; <UNDEFINED> instruction: 0x032d0f13
    94d0:	05080000 	streq	r0, [r8, #-0]
    94d4:	0002db73 	andeq	sp, r2, r3, ror fp
    94d8:	00cc0c00 	sbceq	r0, ip, r0, lsl #24
    94dc:	74050000 	strvc	r0, [r5], #-0
    94e0:	000002db 	ldrdeq	r0, [r0], -fp
    94e4:	001b0c00 	andseq	r0, fp, r0, lsl #24
    94e8:	75050000 	strvc	r0, [r5, #-0]
    94ec:	00000025 	andeq	r0, r0, r5, lsr #32
    94f0:	040e0004 	streq	r0, [lr], #-4
    94f4:	00000054 	andeq	r0, r0, r4, asr r0
    94f8:	00034c0f 	andeq	r4, r3, pc, lsl #24
    94fc:	b3056800 	movwlt	r6, #22528	; 0x5800
    9500:	0000040b 	andeq	r0, r0, fp, lsl #8
    9504:	00705f10 	rsbseq	r5, r0, r0, lsl pc
    9508:	02dbb405 	sbcseq	fp, fp, #83886080	; 0x5000000
    950c:	10000000 	andne	r0, r0, r0
    9510:	0500725f 	streq	r7, [r0, #-607]	; 0xfffffda1
    9514:	000025b5 			; <UNDEFINED> instruction: 0x000025b5
    9518:	5f100400 	svcpl	0x00100400
    951c:	b6050077 			; <UNDEFINED> instruction: 0xb6050077
    9520:	00000025 	andeq	r0, r0, r5, lsr #32
    9524:	01300c08 	teqeq	r0, r8, lsl #24
    9528:	b7050000 	strlt	r0, [r5, -r0]
    952c:	0000003f 	andeq	r0, r0, pc, lsr r0
    9530:	02190c0c 	andseq	r0, r9, #12, 24	; 0xc00
    9534:	b8050000 	stmdalt	r5, {}	; <UNPREDICTABLE>
    9538:	0000003f 	andeq	r0, r0, pc, lsr r0
    953c:	625f100e 	subsvs	r1, pc, #14
    9540:	b9050066 	stmdblt	r5, {r1, r2, r5, r6}
    9544:	000002b6 			; <UNDEFINED> instruction: 0x000002b6
    9548:	00890c10 	addeq	r0, r9, r0, lsl ip
    954c:	ba050000 	blt	149554 <__bss_end__+0x13f514>
    9550:	00000025 	andeq	r0, r0, r5, lsr #32
    9554:	01200c18 			; <UNDEFINED> instruction: 0x01200c18
    9558:	c1050000 	mrsgt	r0, (UNDEF: 5)
    955c:	0000010a 	andeq	r0, r0, sl, lsl #2
    9560:	0a7d0c1c 	beq	1f4c5d8 <__bss_end__+0x1f42598>
    9564:	c3050000 	movwgt	r0, #20480	; 0x5000
    9568:	00000566 	andeq	r0, r0, r6, ror #10
    956c:	06110c20 	ldreq	r0, [r1], -r0, lsr #24
    9570:	c5050000 	strgt	r0, [r5, #-0]
    9574:	00000590 	muleq	r0, r0, r5
    9578:	03be0c24 			; <UNDEFINED> instruction: 0x03be0c24
    957c:	c8050000 	stmdagt	r5, {}	; <UNPREDICTABLE>
    9580:	000005b4 			; <UNDEFINED> instruction: 0x000005b4
    9584:	05080c28 	streq	r0, [r8, #-3112]	; 0xfffff3d8
    9588:	c9050000 	stmdbgt	r5, {}	; <UNPREDICTABLE>
    958c:	000005ce 	andeq	r0, r0, lr, asr #11
    9590:	755f102c 	ldrbvc	r1, [pc, #-44]	; 956c <kmalloc+0x54>
    9594:	cc050062 	stcgt	0, cr0, [r5], {98}	; 0x62
    9598:	000002b6 			; <UNDEFINED> instruction: 0x000002b6
    959c:	755f1030 	ldrbvc	r1, [pc, #-48]	; 9574 <kmalloc+0x5c>
    95a0:	cd050070 	stcgt	0, cr0, [r5, #-448]	; 0xfffffe40
    95a4:	000002db 	ldrdeq	r0, [r0], -fp
    95a8:	755f1038 	ldrbvc	r1, [pc, #-56]	; 9578 <kmalloc+0x60>
    95ac:	ce050072 	mcrgt	0, 0, r0, cr5, cr2, {3}
    95b0:	00000025 	andeq	r0, r0, r5, lsr #32
    95b4:	00c60c3c 	sbceq	r0, r6, ip, lsr ip
    95b8:	d1050000 	mrsle	r0, (UNDEF: 5)
    95bc:	000005d4 	ldrdeq	r0, [r0], -r4
    95c0:	04e00c40 	strbteq	r0, [r0], #3136	; 0xc40
    95c4:	d2050000 	andle	r0, r5, #0
    95c8:	000005e4 	andeq	r0, r0, r4, ror #11
    95cc:	6c5f1043 	mrrcvs	0, 4, r1, pc, cr3	; <UNPREDICTABLE>
    95d0:	d5050062 	strle	r0, [r5, #-98]	; 0xffffff9e
    95d4:	000002b6 			; <UNDEFINED> instruction: 0x000002b6
    95d8:	014e0c44 	cmpeq	lr, r4, asr #24
    95dc:	d8050000 	stmdale	r5, {}	; <UNPREDICTABLE>
    95e0:	00000025 	andeq	r0, r0, r5, lsr #32
    95e4:	015f0c4c 	cmpeq	pc, ip, asr #24
    95e8:	d9050000 	stmdble	r5, {}	; <UNPREDICTABLE>
    95ec:	0000007b 	andeq	r0, r0, fp, ror r0
    95f0:	0a1e0c50 	beq	78c738 <__bss_end__+0x7826f8>
    95f4:	dc050000 	stcle	0, cr0, [r5], {-0}
    95f8:	00000429 	andeq	r0, r0, r9, lsr #8
    95fc:	02840c54 	addeq	r0, r4, #84, 24	; 0x5400
    9600:	e0050000 	and	r0, r5, r0
    9604:	000000ff 	strdeq	r0, [r0], -pc	; <UNPREDICTABLE>
    9608:	03540c58 	cmpeq	r4, #88, 24	; 0x5800
    960c:	e2050000 	and	r0, r5, #0
    9610:	000000f4 	strdeq	r0, [r0], -r4
    9614:	028f0c5c 	addeq	r0, pc, #92, 24	; 0x5c00
    9618:	e3050000 	movw	r0, #20480	; 0x5000
    961c:	00000025 	andeq	r0, r0, r5, lsr #32
    9620:	25140064 	ldrcs	r0, [r4, #-100]	; 0xffffff9c
    9624:	29000000 	stmdbcs	r0, {}	; <UNPREDICTABLE>
    9628:	15000004 	strne	r0, [r0, #-4]
    962c:	00000429 	andeq	r0, r0, r9, lsr #8
    9630:	00010a15 	andeq	r0, r1, r5, lsl sl
    9634:	010c1500 	tsteq	ip, r0, lsl #10
    9638:	25150000 	ldrcs	r0, [r5, #-0]
    963c:	00000000 	andeq	r0, r0, r0
    9640:	0434040e 	ldrteq	r0, [r4], #-1038	; 0xfffffbf2
    9644:	29040000 	stmdbcs	r4, {}	; <UNPREDICTABLE>
    9648:	16000004 	strne	r0, [r0], -r4
    964c:	000003a1 	andeq	r0, r0, r1, lsr #7
    9650:	38050428 	stmdacc	r5, {r3, r5, sl}
    9654:	00056602 	andeq	r6, r5, r2, lsl #12
    9658:	03121700 	tsteq	r2, #0, 14
    965c:	3a050000 	bcc	149664 <__bss_end__+0x13f624>
    9660:	00002502 	andeq	r2, r0, r2, lsl #10
    9664:	3f170000 	svccc	0x00170000
    9668:	05000001 	streq	r0, [r0, #-1]
    966c:	063b023f 			; <UNDEFINED> instruction: 0x063b023f
    9670:	17040000 	strne	r0, [r4, -r0]
    9674:	00000209 	andeq	r0, r0, r9, lsl #4
    9678:	3b023f05 	blcc	99294 <__bss_end__+0x8f254>
    967c:	08000006 	stmdaeq	r0, {r1, r2}
    9680:	0001b917 	andeq	fp, r1, r7, lsl r9
    9684:	023f0500 	eorseq	r0, pc, #0, 10
    9688:	0000063b 	andeq	r0, r0, fp, lsr r6
    968c:	0375170c 	cmneq	r5, #12, 14	; 0x300000
    9690:	41050000 	mrsmi	r0, (UNDEF: 5)
    9694:	00002502 	andeq	r2, r0, r2, lsl #10
    9698:	37171000 	ldrcc	r1, [r7, -r0]
    969c:	05000000 	streq	r0, [r0, #-0]
    96a0:	081d0242 	ldmdaeq	sp, {r1, r6, r9}
    96a4:	17140000 	ldrne	r0, [r4, -r0]
    96a8:	00000480 	andeq	r0, r0, r0, lsl #9
    96ac:	25024405 	strcs	r4, [r2, #-1029]	; 0xfffffbfb
    96b0:	30000000 	andcc	r0, r0, r0
    96b4:	00037f17 	andeq	r7, r3, r7, lsl pc
    96b8:	02450500 	subeq	r0, r5, #0, 10
    96bc:	0000058a 	andeq	r0, r0, sl, lsl #11
    96c0:	02cf1734 	sbceq	r1, pc, #52, 14	; 0xd00000
    96c4:	47050000 	strmi	r0, [r5, -r0]
    96c8:	00002502 	andeq	r2, r0, r2, lsl #10
    96cc:	8f173800 	svchi	0x00173800
    96d0:	05000003 	streq	r0, [r0, #-3]
    96d4:	08380249 	ldmdaeq	r8!, {r0, r3, r6, r9}
    96d8:	173c0000 	ldrne	r0, [ip, -r0]!
    96dc:	00000268 	andeq	r0, r0, r8, ror #4
    96e0:	7c024c05 	stcvc	12, cr4, [r2], {5}
    96e4:	40000001 	andmi	r0, r0, r1
    96e8:	0001d817 	andeq	sp, r1, r7, lsl r8
    96ec:	024d0500 	subeq	r0, sp, #0, 10
    96f0:	00000025 	andeq	r0, r0, r5, lsr #32
    96f4:	05221744 	streq	r1, [r2, #-1860]!	; 0xfffff8bc
    96f8:	4e050000 	cdpmi	0, 0, cr0, cr5, cr0, {0}
    96fc:	00017c02 	andeq	r7, r1, r2, lsl #24
    9700:	e1174800 	tst	r7, r0, lsl #16
    9704:	05000002 	streq	r0, [r0, #-2]
    9708:	083e024f 	ldmdaeq	lr!, {r0, r1, r2, r3, r6, r9}
    970c:	174c0000 	strbne	r0, [ip, -r0]
    9710:	00000211 	andeq	r0, r0, r1, lsl r2
    9714:	25025205 	strcs	r5, [r2, #-517]	; 0xfffffdfb
    9718:	50000000 	andpl	r0, r0, r0
    971c:	00015717 	andeq	r5, r1, r7, lsl r7
    9720:	02530500 	subseq	r0, r3, #0, 10
    9724:	0000010c 	andeq	r0, r0, ip, lsl #2
    9728:	030b1754 	movweq	r1, #46932	; 0xb754
    972c:	76050000 	strvc	r0, [r5], -r0
    9730:	0007fb02 	andeq	pc, r7, r2, lsl #22
    9734:	c7185800 	ldrgt	r5, [r8, -r0, lsl #16]
    9738:	05000002 	streq	r0, [r0, #-2]
    973c:	0299027a 	addseq	r0, r9, #-1610612729	; 0xa0000007
    9740:	01480000 	mrseq	r0, (UNDEF: 72)
    9744:	00024618 	andeq	r4, r2, r8, lsl r6
    9748:	027b0500 	rsbseq	r0, fp, #0, 10
    974c:	0000025b 	andeq	r0, r0, fp, asr r2
    9750:	ce18014c 	mufgtem	f0, f0, #4.0
    9754:	05000004 	streq	r0, [r0, #-4]
    9758:	084f027f 	stmdaeq	pc, {r0, r1, r2, r3, r4, r5, r6, r9}^	; <UNPREDICTABLE>
    975c:	02dc0000 	sbcseq	r0, ip, #0
    9760:	00012818 	andeq	r2, r1, r8, lsl r8
    9764:	02840500 	addeq	r0, r4, #0, 10
    9768:	00000600 	andeq	r0, r0, r0, lsl #12
    976c:	0d1802e0 	lfmeq	f0, 4, [r8, #-896]	; 0xfffffc80
    9770:	05000001 	streq	r0, [r0, #-1]
    9774:	085b0285 	ldmdaeq	fp, {r0, r2, r7, r9}^
    9778:	02ec0000 	rsceq	r0, ip, #0
    977c:	0b040e00 	bleq	10cf84 <__bss_end__+0x102f44>
    9780:	14000004 	strne	r0, [r0], #-4
    9784:	00000025 	andeq	r0, r0, r5, lsr #32
    9788:	0000058a 	andeq	r0, r0, sl, lsl #11
    978c:	00042915 	andeq	r2, r4, r5, lsl r9
    9790:	010a1500 	tsteq	sl, r0, lsl #10
    9794:	8a150000 	bhi	54979c <__bss_end__+0x53f75c>
    9798:	15000005 	strne	r0, [r0, #-5]
    979c:	00000025 	andeq	r0, r0, r5, lsr #32
    97a0:	19040e00 	stmdbne	r4, {r9, sl, fp}
    97a4:	0e000001 	cdpeq	0, 0, cr0, cr0, cr1, {0}
    97a8:	00056c04 	andeq	r6, r5, r4, lsl #24
    97ac:	00861400 	addeq	r1, r6, r0, lsl #8
    97b0:	05b40000 	ldreq	r0, [r4, #0]!
    97b4:	29150000 	ldmdbcs	r5, {}	; <UNPREDICTABLE>
    97b8:	15000004 	strne	r0, [r0, #-4]
    97bc:	0000010a 	andeq	r0, r0, sl, lsl #2
    97c0:	00008615 	andeq	r8, r0, r5, lsl r6
    97c4:	00251500 	eoreq	r1, r5, r0, lsl #10
    97c8:	0e000000 	cdpeq	0, 0, cr0, cr0, cr0, {0}
    97cc:	00059604 	andeq	r9, r5, r4, lsl #12
    97d0:	00251400 	eoreq	r1, r5, r0, lsl #8
    97d4:	05ce0000 	strbeq	r0, [lr]
    97d8:	29150000 	ldmdbcs	r5, {}	; <UNPREDICTABLE>
    97dc:	15000004 	strne	r0, [r0, #-4]
    97e0:	0000010a 	andeq	r0, r0, sl, lsl #2
    97e4:	ba040e00 	blt	10cfec <__bss_end__+0x102fac>
    97e8:	09000005 	stmdbeq	r0, {r0, r2}
    97ec:	00000054 	andeq	r0, r0, r4, asr r0
    97f0:	000005e4 	andeq	r0, r0, r4, ror #11
    97f4:	0000cc0a 	andeq	ip, r0, sl, lsl #24
    97f8:	09000200 	stmdbeq	r0, {r9}
    97fc:	00000054 	andeq	r0, r0, r4, asr r0
    9800:	000005f4 	strdeq	r0, [r0], -r4
    9804:	0000cc0a 	andeq	ip, r0, sl, lsl #24
    9808:	06000000 	streq	r0, [r0], -r0
    980c:	0000033a 	andeq	r0, r0, sl, lsr r3
    9810:	e1011d05 	tst	r1, r5, lsl #26
    9814:	19000002 	stmdbne	r0, {r1}
    9818:	000004b5 			; <UNDEFINED> instruction: 0x000004b5
    981c:	0121050c 			; <UNDEFINED> instruction: 0x0121050c
    9820:	00000635 	andeq	r0, r0, r5, lsr r6
    9824:	00036217 	andeq	r6, r3, r7, lsl r2
    9828:	01230500 			; <UNDEFINED> instruction: 0x01230500
    982c:	00000635 	andeq	r0, r0, r5, lsr r6
    9830:	022c1700 	eoreq	r1, ip, #0, 14
    9834:	24050000 	strcs	r0, [r5], #-0
    9838:	00002501 	andeq	r2, r0, r1, lsl #10
    983c:	34170400 	ldrcc	r0, [r7], #-1024	; 0xfffffc00
    9840:	05000003 	streq	r0, [r0, #-3]
    9844:	063b0125 	ldrteq	r0, [fp], -r5, lsr #2
    9848:	00080000 	andeq	r0, r8, r0
    984c:	0600040e 	streq	r0, [r0], -lr, lsl #8
    9850:	040e0000 	streq	r0, [lr], #-0
    9854:	000005f4 	strdeq	r0, [r0], -r4
    9858:	00002f19 	andeq	r2, r0, r9, lsl pc
    985c:	3d050e00 	stccc	14, cr0, [r5, #-0]
    9860:	00067601 	andeq	r7, r6, r1, lsl #12
    9864:	03a81700 			; <UNDEFINED> instruction: 0x03a81700
    9868:	3e050000 	cdpcc	0, 0, cr0, cr5, cr0, {0}
    986c:	00067601 	andeq	r7, r6, r1, lsl #12
    9870:	d5170000 	ldrle	r0, [r7, #-0]
    9874:	05000003 	streq	r0, [r0, #-3]
    9878:	0676013f 			; <UNDEFINED> instruction: 0x0676013f
    987c:	17060000 	strne	r0, [r6, -r0]
    9880:	00000453 	andeq	r0, r0, r3, asr r4
    9884:	5b014005 	blpl	598a0 <__bss_end__+0x4f860>
    9888:	0c000000 	stceq	0, cr0, [r0], {-0}
    988c:	005b0900 	subseq	r0, fp, r0, lsl #18
    9890:	06860000 	streq	r0, [r6], r0
    9894:	cc0a0000 	stcgt	0, cr0, [sl], {-0}
    9898:	02000000 	andeq	r0, r0, #0
    989c:	05d01a00 	ldrbeq	r1, [r0, #2560]	; 0xa00
    98a0:	07870257 			; <UNDEFINED> instruction: 0x07870257
    98a4:	99170000 	ldmdbls	r7, {}	; <UNPREDICTABLE>
    98a8:	05000004 	streq	r0, [r0, #-4]
    98ac:	002c0259 	eoreq	r0, ip, r9, asr r2
    98b0:	17000000 	strne	r0, [r0, -r0]
    98b4:	0000043d 	andeq	r0, r0, sp, lsr r4
    98b8:	0c025a05 			; <UNDEFINED> instruction: 0x0c025a05
    98bc:	04000001 	streq	r0, [r0], #-1
    98c0:	00025b17 	andeq	r5, r2, r7, lsl fp
    98c4:	025b0500 	subseq	r0, fp, #0, 10
    98c8:	00000787 	andeq	r0, r0, r7, lsl #15
    98cc:	04f91708 	ldrbteq	r1, [r9], #1800	; 0x708
    98d0:	5c050000 	stcpl	0, cr0, [r5], {-0}
    98d4:	00019202 	andeq	r9, r1, r2, lsl #4
    98d8:	c9172400 	ldmdbgt	r7, {sl, sp}
    98dc:	05000001 	streq	r0, [r0, #-1]
    98e0:	0025025d 	eoreq	r0, r5, sp, asr r2
    98e4:	17480000 	strbne	r0, [r8, -r0]
    98e8:	0000035d 	andeq	r0, r0, sp, asr r3
    98ec:	69025e05 	stmdbvs	r2, {r0, r2, r9, sl, fp, ip, lr}
    98f0:	50000000 	andpl	r0, r0, r0
    98f4:	00050f17 	andeq	r0, r5, r7, lsl pc
    98f8:	025f0500 	subseq	r0, pc, #0, 10
    98fc:	00000641 	andeq	r0, r0, r1, asr #12
    9900:	03681758 	cmneq	r8, #88, 14	; 0x1600000
    9904:	60050000 	andvs	r0, r5, r0
    9908:	0000f402 	andeq	pc, r0, r2, lsl #8
    990c:	14176800 	ldrne	r6, [r7], #-2048	; 0xfffff800
    9910:	05000005 	streq	r0, [r0, #-5]
    9914:	00f40261 	rscseq	r0, r4, r1, ror #4
    9918:	17700000 	ldrbne	r0, [r0, -r0]!
    991c:	000000a1 	andeq	r0, r0, r1, lsr #1
    9920:	f4026205 	vst1.8	{d6-d9}, [r2], r5
    9924:	78000000 	stmdavc	r0, {}	; <UNPREDICTABLE>
    9928:	0004c417 	andeq	ip, r4, r7, lsl r4
    992c:	02630500 	rsbeq	r0, r3, #0, 10
    9930:	00000797 	muleq	r0, r7, r7
    9934:	024f1780 	subeq	r1, pc, #128, 14	; 0x2000000
    9938:	64050000 	strvs	r0, [r5], #-0
    993c:	0007a702 	andeq	sl, r7, r2, lsl #14
    9940:	60178800 	andsvs	r8, r7, r0, lsl #16
    9944:	05000004 	streq	r0, [r0, #-4]
    9948:	00250265 	eoreq	r0, r5, r5, ror #4
    994c:	17a00000 	strne	r0, [r0, r0]!
    9950:	0000018f 	andeq	r0, r0, pc, lsl #3
    9954:	f4026605 	vst1.8	{d6-d8}, [r2], r5
    9958:	a4000000 	strge	r0, [r0], #-0
    995c:	00009217 	andeq	r9, r0, r7, lsl r2
    9960:	02670500 	rsbeq	r0, r7, #0, 10
    9964:	000000f4 	strdeq	r0, [r0], -r4
    9968:	017e17ac 	cmneq	lr, ip, lsr #15
    996c:	68050000 	stmdavs	r5, {}	; <UNPREDICTABLE>
    9970:	0000f402 	andeq	pc, r0, r2, lsl #8
    9974:	4a17b400 	bmi	5f697c <__bss_end__+0x5ec93c>
    9978:	05000000 	streq	r0, [r0, #-0]
    997c:	00f40269 	rscseq	r0, r4, r9, ror #4
    9980:	17bc0000 	ldrne	r0, [ip, r0]!
    9984:	00000059 	andeq	r0, r0, r9, asr r0
    9988:	f4026a05 	vst1.8	{d6-d7}, [r2], r5
    998c:	c4000000 	strgt	r0, [r0], #-0
    9990:	00031017 	andeq	r1, r3, r7, lsl r0
    9994:	026b0500 	rsbeq	r0, fp, #0, 10
    9998:	00000025 	andeq	r0, r0, r5, lsr #32
    999c:	120900cc 	andne	r0, r9, #204	; 0xcc
    99a0:	97000001 	strls	r0, [r0, -r1]
    99a4:	0a000007 	beq	99c8 <__FUNCTION__.4339+0x2bc>
    99a8:	000000cc 	andeq	r0, r0, ip, asr #1
    99ac:	12090019 	andne	r0, r9, #25
    99b0:	a7000001 	strge	r0, [r0, -r1]
    99b4:	0a000007 	beq	99d8 <__FUNCTION__.4339+0x2cc>
    99b8:	000000cc 	andeq	r0, r0, ip, asr #1
    99bc:	12090007 	andne	r0, r9, #7
    99c0:	b7000001 	strlt	r0, [r0, -r1]
    99c4:	0a000007 	beq	99e8 <__FUNCTION__.4339+0x2dc>
    99c8:	000000cc 	andeq	r0, r0, ip, asr #1
    99cc:	f01a0017 			; <UNDEFINED> instruction: 0xf01a0017
    99d0:	db027005 	blle	a59ec <__bss_end__+0x9b9ac>
    99d4:	17000007 	strne	r0, [r0, -r7]
    99d8:	000002b7 			; <UNDEFINED> instruction: 0x000002b7
    99dc:	db027305 	blle	a65f8 <__bss_end__+0x9c5b8>
    99e0:	00000007 	andeq	r0, r0, r7
    99e4:	0004bb17 	andeq	fp, r4, r7, lsl fp
    99e8:	02740500 	rsbseq	r0, r4, #0, 10
    99ec:	000007eb 	andeq	r0, r0, fp, ror #15
    99f0:	db090078 	blle	249bd8 <__bss_end__+0x23fb98>
    99f4:	eb000002 	bl	9a04 <__FUNCTION__.4281+0x4>
    99f8:	0a000007 	beq	9a1c <__FUNCTION__.4303+0x4>
    99fc:	000000cc 	andeq	r0, r0, ip, asr #1
    9a00:	2c09001d 	stccs	0, cr0, [r9], {29}
    9a04:	fb000000 	blx	9a0e <__FUNCTION__.4229+0x6>
    9a08:	0a000007 	beq	9a2c <__FUNCTION__.4303+0x14>
    9a0c:	000000cc 	andeq	r0, r0, ip, asr #1
    9a10:	f01b001d 			; <UNDEFINED> instruction: 0xf01b001d
    9a14:	1d025505 	cfstr32ne	mvfx5, [r2, #-20]	; 0xffffffec
    9a18:	1c000008 	stcne	0, cr0, [r0], {8}
    9a1c:	000003a1 	andeq	r0, r0, r1, lsr #7
    9a20:	86026c05 	strhi	r6, [r2], -r5, lsl #24
    9a24:	1c000006 	stcne	0, cr0, [r0], {6}
    9a28:	000004e6 	andeq	r0, r0, r6, ror #9
    9a2c:	b7027505 	strlt	r7, [r2, -r5, lsl #10]
    9a30:	00000007 	andeq	r0, r0, r7
    9a34:	00011209 	andeq	r1, r1, r9, lsl #4
    9a38:	00082d00 	andeq	r2, r8, r0, lsl #26
    9a3c:	00cc0a00 	sbceq	r0, ip, r0, lsl #20
    9a40:	00180000 	andseq	r0, r8, r0
    9a44:	0008381d 	andeq	r3, r8, sp, lsl r8
    9a48:	04291500 	strteq	r1, [r9], #-1280	; 0xfffffb00
    9a4c:	0e000000 	cdpeq	0, 0, cr0, cr0, cr0, {0}
    9a50:	00082d04 	andeq	r2, r8, r4, lsl #26
    9a54:	7c040e00 	stcvc	14, cr0, [r4], {-0}
    9a58:	1d000001 	stcne	0, cr0, [r0, #-4]
    9a5c:	0000084f 	andeq	r0, r0, pc, asr #16
    9a60:	00002515 	andeq	r2, r0, r5, lsl r5
    9a64:	040e0000 	streq	r0, [lr], #-0
    9a68:	00000855 	andeq	r0, r0, r5, asr r8
    9a6c:	0844040e 	stmdaeq	r4, {r1, r2, r3, sl}^
    9a70:	f4090000 	vst4.8	{d0-d3}, [r9], r0
    9a74:	6b000005 	blvs	9a90 <__FUNCTION__.4303+0x78>
    9a78:	0a000008 	beq	9aa0 <__FUNCTION__.4303+0x88>
    9a7c:	000000cc 	andeq	r0, r0, ip, asr #1
    9a80:	741e0002 	ldrvc	r0, [lr], #-2
    9a84:	05000004 	streq	r0, [r0, #-4]
    9a88:	042902fd 	strteq	r0, [r9], #-765	; 0xfffffd03
    9a8c:	6d1e0000 	ldcvs	0, cr0, [lr, #-0]
    9a90:	05000004 	streq	r0, [r0, #-4]
    9a94:	042f02fe 	strteq	r0, [pc], #-766	; 9a9c <__FUNCTION__.4303+0x84>
    9a98:	25140000 	ldrcs	r0, [r4, #-0]
    9a9c:	92000000 	andls	r0, r0, #0
    9aa0:	15000008 	strne	r0, [r0, #-8]
    9aa4:	00000025 	andeq	r0, r0, r5, lsr #32
    9aa8:	01e21f00 	mvneq	r1, r0, lsl #30
    9aac:	1d060000 	stcne	0, cr0, [r6, #-0]
    9ab0:	0000089d 	muleq	r0, sp, r8
    9ab4:	0883040e 	stmeq	r3, {r1, r2, r3, sl}
    9ab8:	25140000 	ldrcs	r0, [r4, #-0]
    9abc:	b2000000 	andlt	r0, r0, #0
    9ac0:	15000008 	strne	r0, [r0, #-8]
    9ac4:	0000058a 	andeq	r0, r0, sl, lsl #11
    9ac8:	076e1f00 	strbeq	r1, [lr, -r0, lsl #30]!
    9acc:	22060000 	andcs	r0, r6, #0
    9ad0:	000008bd 			; <UNDEFINED> instruction: 0x000008bd
    9ad4:	08a3040e 	stmiaeq	r3!, {r1, r2, r3, sl}
    9ad8:	01200000 			; <UNDEFINED> instruction: 0x01200000
    9adc:	00000054 	andeq	r0, r0, r4, asr r0
    9ae0:	09000c07 	stmdbeq	r0, {r0, r1, r2, sl, fp}
    9ae4:	0f210000 	svceq	0x00210000
    9ae8:	00000009 	andeq	r0, r0, r9
    9aec:	0009e921 	andeq	lr, r9, r1, lsr #18
    9af0:	24210100 	strtcs	r0, [r1], #-256	; 0xffffff00
    9af4:	0400000a 	streq	r0, [r0], #-10
    9af8:	00092421 	andeq	r2, r9, r1, lsr #8
    9afc:	b0210500 	eorlt	r0, r1, r0, lsl #10
    9b00:	06000009 	streq	r0, [r0], -r9
    9b04:	000a3321 	andeq	r3, sl, r1, lsr #6
    9b08:	42210700 	eormi	r0, r1, #0, 14
    9b0c:	0300000a 	movweq	r0, #10
    9b10:	000a5121 	andeq	r5, sl, r1, lsr #2
    9b14:	05000200 	streq	r0, [r0, #-512]	; 0xfffffe00
    9b18:	00000acd 	andeq	r0, r0, sp, asr #21
    9b1c:	08c31507 	stmiaeq	r3, {r0, r1, r2, r8, sl, ip}^
    9b20:	9e220000 	cdpls	0, 2, cr0, cr2, cr0, {0}
    9b24:	0100000a 	tsteq	r0, sl
    9b28:	0000331d 	andeq	r3, r0, sp, lsl r3
    9b2c:	20001c00 	andcs	r1, r0, r0, lsl #24
    9b30:	0ad92220 	beq	ff6523b8 <__bss_end__+0xff648378>
    9b34:	1e010000 	cdpne	0, 0, cr0, cr1, cr0, {0}
    9b38:	00000033 	andeq	r0, r0, r3, lsr r0
    9b3c:	20200028 	eorcs	r0, r0, r8, lsr #32
    9b40:	000aa822 	andeq	sl, sl, r2, lsr #16
    9b44:	331f0100 	tstcc	pc, #0, 2
    9b48:	34000000 	strcc	r0, [r0], #-0
    9b4c:	23202000 	nopcs	{0}	; <UNPREDICTABLE>
    9b50:	00000a79 	andeq	r0, r0, r9, ror sl
    9b54:	00255601 	eoreq	r5, r5, r1, lsl #12
    9b58:	94780000 	ldrbtls	r0, [r8], #-0
    9b5c:	00340000 	eorseq	r0, r4, r0
    9b60:	9c010000 	stcls	0, cr0, [r1], {-0}
    9b64:	00000998 	muleq	r0, r8, r9
    9b68:	6e697024 	cdpvs	0, 6, cr7, cr9, cr4, {1}
    9b6c:	2c560100 	ldfcse	f0, [r6], {-0}
    9b70:	94000000 	strls	r0, [r0], #-0
    9b74:	25000011 	strcs	r0, [r0, #-17]	; 0xffffffef
    9b78:	00000a6d 	andeq	r0, r0, sp, ror #20
    9b7c:	002c5901 	eoreq	r5, ip, r1, lsl #18
    9b80:	11ce0000 	bicne	r0, lr, r0
    9b84:	6f260000 	svcvs	0x00260000
    9b88:	01006666 	tsteq	r0, r6, ror #12
    9b8c:	00002c5a 	andeq	r2, r0, sl, asr ip
    9b90:	00120c00 	andseq	r0, r2, r0, lsl #24
    9b94:	94942700 	ldrls	r2, [r4], #1792	; 0x700
    9b98:	0b5d0000 	bleq	1749ba0 <__bss_end__+0x173fb60>
    9b9c:	01280000 			; <UNDEFINED> instruction: 0x01280000
    9ba0:	01f30b50 	mvnseq	r0, r0, asr fp
    9ba4:	23253550 			; <UNDEFINED> instruction: 0x23253550
    9ba8:	818080b4 	strhhi	r8, [r0, r4]
    9bac:	29000002 	stmdbcs	r0, {r1}
    9bb0:	00000a93 	muleq	r0, r3, sl
    9bb4:	945c4f01 	ldrbls	r4, [ip], #-3841	; 0xfffff0ff
    9bb8:	001c0000 	andseq	r0, ip, r0
    9bbc:	9c010000 	stcls	0, cr0, [r1], {-0}
    9bc0:	000009e8 	andeq	r0, r0, r8, ror #19
    9bc4:	6e697024 	cdpvs	0, 6, cr7, cr9, cr4, {1}
    9bc8:	2c4f0100 	stfcse	f0, [pc], {-0}
    9bcc:	1f000000 	svcne	0x00000000
    9bd0:	24000012 	strcs	r0, [r0], #-18	; 0xffffffee
    9bd4:	4f010076 	svcmi	0x00010076
    9bd8:	0000002c 	andeq	r0, r0, ip, lsr #32
    9bdc:	00001259 	andeq	r1, r0, r9, asr r2
    9be0:	00946c2a 	addseq	r6, r4, sl, lsr #24
    9be4:	000a2300 	andeq	r2, sl, r0, lsl #6
    9be8:	0009de00 	andeq	sp, r9, r0, lsl #28
    9bec:	50012800 	andpl	r2, r1, r0, lsl #16
    9bf0:	5001f303 	andpl	pc, r1, r3, lsl #6
    9bf4:	94742b00 	ldrbtls	r2, [r4], #-2816	; 0xfffff500
    9bf8:	0a640000 	beq	1909c00 <__bss_end__+0x18ffbc0>
    9bfc:	29000000 	stmdbcs	r0, {}	; <UNPREDICTABLE>
    9c00:	00000ab2 			; <UNDEFINED> instruction: 0x00000ab2
    9c04:	944c4a01 	strbls	r4, [ip], #-2561	; 0xfffff5ff
    9c08:	00100000 	andseq	r0, r0, r0
    9c0c:	9c010000 	stcls	0, cr0, [r1], {-0}
    9c10:	00000a23 	andeq	r0, r0, r3, lsr #20
    9c14:	6e697024 	cdpvs	0, 6, cr7, cr9, cr4, {1}
    9c18:	2c4a0100 	stfcse	f0, [sl], {-0}
    9c1c:	93000000 	movwls	r0, #0
    9c20:	27000012 	smladcs	r0, r2, r0, r0
    9c24:	00009458 	andeq	r9, r0, r8, asr r4
    9c28:	00000ae0 	andeq	r0, r0, r0, ror #21
    9c2c:	03500128 	cmpeq	r0, #40, 2
    9c30:	285001f3 	ldmdacs	r0, {r0, r1, r4, r5, r6, r7, r8}^
    9c34:	30015101 	andcc	r5, r1, r1, lsl #2
    9c38:	60290000 	eorvs	r0, r9, r0
    9c3c:	0100000a 	tsteq	r0, sl
    9c40:	00942843 	addseq	r2, r4, r3, asr #16
    9c44:	00002400 	andeq	r2, r0, r0, lsl #8
    9c48:	649c0100 	ldrvs	r0, [ip], #256	; 0x100
    9c4c:	2400000a 	strcs	r0, [r0], #-10
    9c50:	006e6970 	rsbeq	r6, lr, r0, ror r9
    9c54:	002c4301 	eoreq	r4, ip, r1, lsl #6
    9c58:	12b40000 	adcsne	r0, r4, #0
    9c5c:	44270000 	strtmi	r0, [r7], #-0
    9c60:	68000094 	stmdavs	r0, {r2, r4, r7}
    9c64:	2800000b 	stmdacs	r0, {r0, r1, r3}
    9c68:	0c055001 	stceq	0, cr5, [r5], {1}
    9c6c:	20200028 	eorcs	r0, r0, r8, lsr #32
    9c70:	05510128 	ldrbeq	r0, [r1, #-296]	; 0xfffffed8
    9c74:	5001f331 	andpl	pc, r1, r1, lsr r3	; <UNPREDICTABLE>
    9c78:	29000024 	stmdbcs	r0, {r2, r5}
    9c7c:	00000ac1 	andeq	r0, r0, r1, asr #21
    9c80:	94043c01 	strls	r3, [r4], #-3073	; 0xfffff3ff
    9c84:	00240000 	eoreq	r0, r4, r0
    9c88:	9c010000 	stcls	0, cr0, [r1], {-0}
    9c8c:	00000aa5 	andeq	r0, r0, r5, lsr #21
    9c90:	6e697024 	cdpvs	0, 6, cr7, cr9, cr4, {1}
    9c94:	2c3c0100 	ldfcss	f0, [ip], #-0
    9c98:	d5000000 	strle	r0, [r0, #-0]
    9c9c:	27000012 	smladcs	r0, r2, r0, r0
    9ca0:	00009420 	andeq	r9, r0, r0, lsr #8
    9ca4:	00000b68 	andeq	r0, r0, r8, ror #22
    9ca8:	05500128 	ldrbeq	r0, [r0, #-296]	; 0xfffffed8
    9cac:	20001c0c 	andcs	r1, r0, ip, lsl #24
    9cb0:	51012820 	tstpl	r1, r0, lsr #16
    9cb4:	01f33105 	mvnseq	r3, r5, lsl #2
    9cb8:	00002450 	andeq	r2, r0, r0, asr r4
    9cbc:	000a8329 	andeq	r8, sl, r9, lsr #6
    9cc0:	f4370100 			; <UNDEFINED> instruction: 0xf4370100
    9cc4:	10000093 	mulne	r0, r3, r0
    9cc8:	01000000 	mrseq	r0, (UNDEF: 0)
    9ccc:	000ae09c 	muleq	sl, ip, r0
    9cd0:	69702400 	ldmdbvs	r0!, {sl, sp}^
    9cd4:	3701006e 	strcc	r0, [r1, -lr, rrx]
    9cd8:	0000002c 	andeq	r0, r0, ip, lsr #32
    9cdc:	000012f6 	strdeq	r1, [r0], -r6
    9ce0:	00940027 	addseq	r0, r4, r7, lsr #32
    9ce4:	000ae000 	andeq	lr, sl, r0
    9ce8:	50012800 	andpl	r2, r1, r0, lsl #16
    9cec:	5001f303 	andpl	pc, r1, r3, lsl #6
    9cf0:	01510128 	cmpeq	r1, r8, lsr #2
    9cf4:	29000031 	stmdbcs	r0, {r0, r4, r5}
    9cf8:	000009bf 			; <UNDEFINED> instruction: 0x000009bf
    9cfc:	938c2801 	orrls	r2, ip, #65536	; 0x10000
    9d00:	00680000 	rsbeq	r0, r8, r0
    9d04:	9c010000 	stcls	0, cr0, [r1], {-0}
    9d08:	00000b5d 	andeq	r0, r0, sp, asr fp
    9d0c:	6e697024 	cdpvs	0, 6, cr7, cr9, cr4, {1}
    9d10:	2c280100 	stfcss	f0, [r8], #-0
    9d14:	17000000 	strne	r0, [r0, -r0]
    9d18:	2c000013 	stccs	0, cr0, [r0], {19}
    9d1c:	000004d3 	ldrdeq	r0, [r0], -r3
    9d20:	09002801 	stmdbeq	r0, {r0, fp, sp}
    9d24:	13380000 	teqne	r8, #0
    9d28:	6f2d0000 	svcvs	0x002d0000
    9d2c:	01006666 	tsteq	r0, r6, ror #12
    9d30:	00002c2d 	andeq	r2, r0, sp, lsr #24
    9d34:	2d540100 	ldfcse	f0, [r4, #-0]
    9d38:	2f010067 	svccs	0x00010067
    9d3c:	0000002c 	andeq	r0, r0, ip, lsr #32
    9d40:	76265601 	strtvc	r5, [r6], -r1, lsl #12
    9d44:	2c310100 	ldfcss	f0, [r1], #-0
    9d48:	59000000 	stmdbpl	r0, {}	; <UNPREDICTABLE>
    9d4c:	2a000013 	bcs	9da0 <buf.4229+0x164>
    9d50:	000093d8 	ldrdeq	r9, [r0], -r8
    9d54:	00000b5d 	andeq	r0, r0, sp, asr fp
    9d58:	00000b4c 	andeq	r0, r0, ip, asr #22
    9d5c:	02500128 	subseq	r0, r0, #40, 2
    9d60:	27000076 	smlsdxcs	r0, r6, r0, r0
    9d64:	000093ec 	andeq	r9, r0, ip, ror #7
    9d68:	00000b68 	andeq	r0, r0, r8, ror #22
    9d6c:	02500128 	subseq	r0, r0, #40, 2
    9d70:	00000076 	andeq	r0, r0, r6, ror r0
    9d74:	0008e32e 	andeq	lr, r8, lr, lsr #6
    9d78:	0008e300 	andeq	lr, r8, r0, lsl #6
    9d7c:	2ea70600 	cdpcs	6, 10, cr0, cr7, cr0, {0}
    9d80:	00000810 	andeq	r0, r0, r0, lsl r8
    9d84:	00000810 	andeq	r0, r0, r0, lsl r8
    9d88:	24009b06 	strcs	r9, [r0], #-2822	; 0xfffff4fa
    9d8c:	0400000c 	streq	r0, [r0], #-12
    9d90:	001e9e00 	andseq	r9, lr, r0, lsl #28
    9d94:	db010400 	blle	4ad9c <__bss_end__+0x40d5c>
    9d98:	0c000003 	stceq	0, cr0, [r0], {3}
    9d9c:	00000ae3 	andeq	r0, r0, r3, ror #21
    9da0:	0000094b 	andeq	r0, r0, fp, asr #18
    9da4:	000094ac 	andeq	r9, r0, ip, lsr #9
    9da8:	00000194 	muleq	r0, r4, r1
    9dac:	00001025 	andeq	r1, r0, r5, lsr #32
    9db0:	69050402 	stmdbvs	r5, {r1, sl}
    9db4:	0300746e 	movweq	r7, #1134	; 0x46e
    9db8:	00740704 	rsbseq	r0, r4, r4, lsl #14
    9dbc:	01030000 	mrseq	r0, (UNDEF: 3)
    9dc0:	0002ff06 	andeq	pc, r2, r6, lsl #30
    9dc4:	05020300 	streq	r0, [r2, #-768]	; 0xfffffd00
    9dc8:	00000319 	andeq	r0, r0, r9, lsl r3
    9dcc:	bd050403 	cfstrslt	mvf0, [r5, #-12]
    9dd0:	03000000 	movweq	r0, #0
    9dd4:	00b80508 	adcseq	r0, r8, r8, lsl #10
    9dd8:	01030000 	mrseq	r0, (UNDEF: 3)
    9ddc:	0002fd08 	andeq	pc, r2, r8, lsl #26
    9de0:	07020300 	streq	r0, [r2, -r0, lsl #6]
    9de4:	00000233 	andeq	r0, r0, r3, lsr r2
    9de8:	6f070403 	svcvs	0x00070403
    9dec:	03000000 	movweq	r0, #0
    9df0:	006a0708 	rsbeq	r0, sl, r8, lsl #14
    9df4:	eb040000 	bl	109dfc <__bss_end__+0xffdbc>
    9df8:	02000002 	andeq	r0, r0, #2
    9dfc:	00002507 	andeq	r2, r0, r7, lsl #10
    9e00:	02da0400 	sbcseq	r0, sl, #0, 8
    9e04:	2c030000 	stccs	0, cr0, [r3], {-0}
    9e08:	00000041 	andeq	r0, r0, r1, asr #32
    9e0c:	0003c404 	andeq	ip, r3, r4, lsl #8
    9e10:	41720300 	cmnmi	r2, r0, lsl #6
    9e14:	05000000 	streq	r0, [r0, #-0]
    9e18:	00000276 	andeq	r0, r0, r6, ror r2
    9e1c:	2c016504 	cfstr32cs	mvfx6, [r1], {4}
    9e20:	06000000 	streq	r0, [r0], -r0
    9e24:	b7a60304 	strlt	r0, [r6, r4, lsl #6]!
    9e28:	07000000 	streq	r0, [r0, -r0]
    9e2c:	00000270 	andeq	r0, r0, r0, ror r2
    9e30:	008ca803 	addeq	sl, ip, r3, lsl #16
    9e34:	f3070000 	vhadd.u8	d0, d7, d0
    9e38:	03000001 	movweq	r0, #1
    9e3c:	0000b7a9 	andeq	fp, r0, r9, lsr #15
    9e40:	4f080000 	svcmi	0x00080000
    9e44:	c7000000 	strgt	r0, [r0, -r0]
    9e48:	09000000 	stmdbeq	r0, {}	; <UNPREDICTABLE>
    9e4c:	000000c7 	andeq	r0, r0, r7, asr #1
    9e50:	04030003 	streq	r0, [r3], #-3
    9e54:	0002ae07 	andeq	sl, r2, r7, lsl #28
    9e58:	03080a00 	movweq	r0, #35328	; 0x8a00
    9e5c:	0000efa3 	andeq	lr, r0, r3, lsr #31
    9e60:	03ae0b00 			; <UNDEFINED> instruction: 0x03ae0b00
    9e64:	a5030000 	strge	r0, [r3, #-0]
    9e68:	00000025 	andeq	r0, r0, r5, lsr #32
    9e6c:	03b60b00 			; <UNDEFINED> instruction: 0x03b60b00
    9e70:	aa030000 	bge	c9e78 <__bss_end__+0xbfe38>
    9e74:	00000098 	muleq	r0, r8, r0
    9e78:	41040004 	tstmi	r4, r4
    9e7c:	03000003 	movweq	r0, #3
    9e80:	0000ceab 	andeq	ip, r0, fp, lsr #29
    9e84:	01b00400 	lslseq	r0, r0, #8
    9e88:	af030000 	svcge	0x00030000
    9e8c:	0000006b 	andeq	r0, r0, fp, rrx
    9e90:	040d040c 	streq	r0, [sp], #-1036	; 0xfffffbf4
    9e94:	0000010d 	andeq	r0, r0, sp, lsl #2
    9e98:	06080103 	streq	r0, [r8], -r3, lsl #2
    9e9c:	0e000003 	cdpeq	0, 0, cr0, cr0, cr3, {0}
    9ea0:	0000010d 	andeq	r0, r0, sp, lsl #2
    9ea4:	00045804 	andeq	r5, r4, r4, lsl #16
    9ea8:	5d160500 	cfldr32pl	mvfx0, [r6, #-0]
    9eac:	0f000000 	svceq	0x00000000
    9eb0:	000001c1 	andeq	r0, r0, r1, asr #3
    9eb4:	772d0518 			; <UNDEFINED> instruction: 0x772d0518
    9eb8:	0b000001 	bleq	9ec4 <buf.4229+0x288>
    9ebc:	00000362 	andeq	r0, r0, r2, ror #6
    9ec0:	01772f05 	cmneq	r7, r5, lsl #30
    9ec4:	10000000 	andne	r0, r0, r0
    9ec8:	05006b5f 	streq	r6, [r0, #-2911]	; 0xfffff4a1
    9ecc:	00002530 	andeq	r2, r0, r0, lsr r5
    9ed0:	990b0400 	stmdbls	fp, {sl}
    9ed4:	05000003 	streq	r0, [r0, #-3]
    9ed8:	00002530 	andeq	r2, r0, r0, lsr r5
    9edc:	aa0b0800 	bge	2cbee4 <__bss_end__+0x2c1ea4>
    9ee0:	05000001 	streq	r0, [r0, #-1]
    9ee4:	00002530 	andeq	r2, r0, r0, lsr r5
    9ee8:	a60b0c00 	strge	r0, [fp], -r0, lsl #24
    9eec:	05000004 	streq	r0, [r0, #-4]
    9ef0:	00002530 	andeq	r2, r0, r0, lsr r5
    9ef4:	5f101000 	svcpl	0x00101000
    9ef8:	31050078 	tstcc	r5, r8, ror r0
    9efc:	0000017d 	andeq	r0, r0, sp, ror r1
    9f00:	040d0014 	streq	r0, [sp], #-20	; 0xffffffec
    9f04:	00000124 	andeq	r0, r0, r4, lsr #2
    9f08:	00011908 	andeq	r1, r1, r8, lsl #18
    9f0c:	00018d00 	andeq	r8, r1, r0, lsl #26
    9f10:	00c70900 	sbceq	r0, r7, r0, lsl #18
    9f14:	00000000 	andeq	r0, r0, r0
    9f18:	0001ee0f 	andeq	lr, r1, pc, lsl #28
    9f1c:	35052400 	strcc	r2, [r5, #-1024]	; 0xfffffc00
    9f20:	00000206 	andeq	r0, r0, r6, lsl #4
    9f24:	0000af0b 	andeq	sl, r0, fp, lsl #30
    9f28:	25370500 	ldrcs	r0, [r7, #-1280]!	; 0xfffffb00
    9f2c:	00000000 	andeq	r0, r0, r0
    9f30:	0003cc0b 	andeq	ip, r3, fp, lsl #24
    9f34:	25380500 	ldrcs	r0, [r8, #-1280]!	; 0xfffffb00
    9f38:	04000000 	streq	r0, [r0], #-0
    9f3c:	0000d20b 	andeq	sp, r0, fp, lsl #4
    9f40:	25390500 	ldrcs	r0, [r9, #-1280]!	; 0xfffffb00
    9f44:	08000000 	stmdaeq	r0, {}	; <UNPREDICTABLE>
    9f48:	0005270b 	andeq	r2, r5, fp, lsl #14
    9f4c:	253a0500 	ldrcs	r0, [sl, #-1280]!	; 0xfffffb00
    9f50:	0c000000 	stceq	0, cr0, [r0], {-0}
    9f54:	0002be0b 	andeq	fp, r2, fp, lsl #28
    9f58:	253b0500 	ldrcs	r0, [fp, #-1280]!	; 0xfffffb00
    9f5c:	10000000 	andne	r0, r0, r0
    9f60:	0002970b 	andeq	r9, r2, fp, lsl #14
    9f64:	253c0500 	ldrcs	r0, [ip, #-1280]!	; 0xfffffb00
    9f68:	14000000 	strne	r0, [r0], #-0
    9f6c:	0004ab0b 	andeq	sl, r4, fp, lsl #22
    9f70:	253d0500 	ldrcs	r0, [sp, #-1280]!	; 0xfffffb00
    9f74:	18000000 	stmdane	r0, {}	; <UNPREDICTABLE>
    9f78:	0003230b 	andeq	r2, r3, fp, lsl #6
    9f7c:	253e0500 	ldrcs	r0, [lr, #-1280]!	; 0xfffffb00
    9f80:	1c000000 	stcne	0, cr0, [r0], {-0}
    9f84:	0004ee0b 	andeq	lr, r4, fp, lsl #28
    9f88:	253f0500 	ldrcs	r0, [pc, #-1280]!	; 9a90 <__FUNCTION__.4303+0x78>
    9f8c:	20000000 	andcs	r0, r0, r0
    9f90:	01121100 	tsteq	r2, r0, lsl #2
    9f94:	01080000 	mrseq	r0, (UNDEF: 8)
    9f98:	02464805 	subeq	r4, r6, #327680	; 0x50000
    9f9c:	9d0b0000 	stcls	0, cr0, [fp, #-0]
    9fa0:	05000001 	streq	r0, [r0, #-1]
    9fa4:	00024649 	andeq	r4, r2, r9, asr #12
    9fa8:	000b0000 	andeq	r0, fp, r0
    9fac:	05000000 	streq	r0, [r0, #-0]
    9fb0:	0002464a 	andeq	r4, r2, sl, asr #12
    9fb4:	4a128000 	bmi	4a9fbc <__bss_end__+0x49ff7c>
    9fb8:	05000004 	streq	r0, [r0, #-4]
    9fbc:	0001194c 	andeq	r1, r1, ip, asr #18
    9fc0:	12010000 	andne	r0, r1, #0
    9fc4:	00000137 	andeq	r0, r0, r7, lsr r1
    9fc8:	01194f05 	tsteq	r9, r5, lsl #30
    9fcc:	01040000 	mrseq	r0, (UNDEF: 4)
    9fd0:	01050800 	tsteq	r5, r0, lsl #16
    9fd4:	02560000 	subseq	r0, r6, #0
    9fd8:	c7090000 	strgt	r0, [r9, -r0]
    9fdc:	1f000000 	svcne	0x00000000
    9fe0:	02c71100 	sbceq	r1, r7, #0, 2
    9fe4:	01900000 	orrseq	r0, r0, r0
    9fe8:	02945b05 	addseq	r5, r4, #5120	; 0x1400
    9fec:	620b0000 	andvs	r0, fp, #0
    9ff0:	05000003 	streq	r0, [r0, #-3]
    9ff4:	0002945c 	andeq	r9, r2, ip, asr r4
    9ff8:	7a0b0000 	bvc	2ca000 <__bss_end__+0x2bffc0>
    9ffc:	05000003 	streq	r0, [r0, #-3]
    a000:	0000255d 	andeq	r2, r0, sp, asr r5
    a004:	a50b0400 	strge	r0, [fp, #-1024]	; 0xfffffc00
    a008:	05000001 	streq	r0, [r0, #-1]
    a00c:	00029a5f 	andeq	r9, r2, pc, asr sl
    a010:	120b0800 	andne	r0, fp, #0, 16
    a014:	05000001 	streq	r0, [r0, #-1]
    a018:	00020660 	andeq	r0, r2, r0, ror #12
    a01c:	0d008800 	stceq	8, cr8, [r0, #-0]
    a020:	00025604 	andeq	r5, r2, r4, lsl #12
    a024:	02aa0800 	adceq	r0, sl, #0, 16
    a028:	02aa0000 	adceq	r0, sl, #0
    a02c:	c7090000 	strgt	r0, [r9, -r0]
    a030:	1f000000 	svcne	0x00000000
    a034:	b0040d00 	andlt	r0, r4, r0, lsl #26
    a038:	13000002 	movwne	r0, #2
    a03c:	00032d0f 	andeq	r2, r3, pc, lsl #26
    a040:	73050800 	movwvc	r0, #22528	; 0x5800
    a044:	000002d6 	ldrdeq	r0, [r0], -r6
    a048:	0000cc0b 	andeq	ip, r0, fp, lsl #24
    a04c:	d6740500 	ldrbtle	r0, [r4], -r0, lsl #10
    a050:	00000002 	andeq	r0, r0, r2
    a054:	00001b0b 	andeq	r1, r0, fp, lsl #22
    a058:	25750500 	ldrbcs	r0, [r5, #-1280]!	; 0xfffffb00
    a05c:	04000000 	streq	r0, [r0], #-0
    a060:	4f040d00 	svcmi	0x00040d00
    a064:	0f000000 	svceq	0x00000000
    a068:	0000034c 	andeq	r0, r0, ip, asr #6
    a06c:	06b30568 	ldrteq	r0, [r3], r8, ror #10
    a070:	10000004 	andne	r0, r0, r4
    a074:	0500705f 	streq	r7, [r0, #-95]	; 0xffffffa1
    a078:	0002d6b4 			; <UNDEFINED> instruction: 0x0002d6b4
    a07c:	5f100000 	svcpl	0x00100000
    a080:	b5050072 	strlt	r0, [r5, #-114]	; 0xffffff8e
    a084:	00000025 	andeq	r0, r0, r5, lsr #32
    a088:	775f1004 	ldrbvc	r1, [pc, -r4]
    a08c:	25b60500 	ldrcs	r0, [r6, #1280]!	; 0x500
    a090:	08000000 	stmdaeq	r0, {}	; <UNPREDICTABLE>
    a094:	0001300b 	andeq	r3, r1, fp
    a098:	3ab70500 	bcc	fedcb4a0 <__bss_end__+0xfedc1460>
    a09c:	0c000000 	stceq	0, cr0, [r0], {-0}
    a0a0:	0002190b 	andeq	r1, r2, fp, lsl #18
    a0a4:	3ab80500 	bcc	fee0b4ac <__bss_end__+0xfee0146c>
    a0a8:	0e000000 	cdpeq	0, 0, cr0, cr0, cr0, {0}
    a0ac:	66625f10 	uqadd16vs	r5, r2, r0
    a0b0:	b1b90500 			; <UNDEFINED> instruction: 0xb1b90500
    a0b4:	10000002 	andne	r0, r0, r2
    a0b8:	0000890b 	andeq	r8, r0, fp, lsl #18
    a0bc:	25ba0500 	ldrcs	r0, [sl, #1280]!	; 0x500
    a0c0:	18000000 	stmdane	r0, {}	; <UNPREDICTABLE>
    a0c4:	0001200b 	andeq	r2, r1, fp
    a0c8:	05c10500 	strbeq	r0, [r1, #1280]	; 0x500
    a0cc:	1c000001 	stcne	0, cr0, [r0], {1}
    a0d0:	000a7d0b 	andeq	r7, sl, fp, lsl #26
    a0d4:	61c30500 	bicvs	r0, r3, r0, lsl #10
    a0d8:	20000005 	andcs	r0, r0, r5
    a0dc:	0006110b 	andeq	r1, r6, fp, lsl #2
    a0e0:	8bc50500 	blhi	ff14b4e8 <__bss_end__+0xff1414a8>
    a0e4:	24000005 	strcs	r0, [r0], #-5
    a0e8:	0003be0b 	andeq	fp, r3, fp, lsl #28
    a0ec:	afc80500 	svcge	0x00c80500
    a0f0:	28000005 	stmdacs	r0, {r0, r2}
    a0f4:	0005080b 	andeq	r0, r5, fp, lsl #16
    a0f8:	c9c90500 	stmibgt	r9, {r8, sl}^
    a0fc:	2c000005 	stccs	0, cr0, [r0], {5}
    a100:	62755f10 	rsbsvs	r5, r5, #16, 30	; 0x40
    a104:	b1cc0500 	biclt	r0, ip, r0, lsl #10
    a108:	30000002 	andcc	r0, r0, r2
    a10c:	70755f10 	rsbsvc	r5, r5, r0, lsl pc
    a110:	d6cd0500 	strble	r0, [sp], r0, lsl #10
    a114:	38000002 	stmdacc	r0, {r1}
    a118:	72755f10 	rsbsvc	r5, r5, #16, 30	; 0x40
    a11c:	25ce0500 	strbcs	r0, [lr, #1280]	; 0x500
    a120:	3c000000 	stccc	0, cr0, [r0], {-0}
    a124:	0000c60b 	andeq	ip, r0, fp, lsl #12
    a128:	cfd10500 	svcgt	0x00d10500
    a12c:	40000005 	andmi	r0, r0, r5
    a130:	0004e00b 	andeq	lr, r4, fp
    a134:	dfd20500 	svcle	0x00d20500
    a138:	43000005 	movwmi	r0, #5
    a13c:	626c5f10 	rsbvs	r5, ip, #16, 30	; 0x40
    a140:	b1d50500 	bicslt	r0, r5, r0, lsl #10
    a144:	44000002 	strmi	r0, [r0], #-2
    a148:	00014e0b 	andeq	r4, r1, fp, lsl #28
    a14c:	25d80500 	ldrbcs	r0, [r8, #1280]	; 0x500
    a150:	4c000000 	stcmi	0, cr0, [r0], {-0}
    a154:	00015f0b 	andeq	r5, r1, fp, lsl #30
    a158:	76d90500 	ldrbvc	r0, [r9], r0, lsl #10
    a15c:	50000000 	andpl	r0, r0, r0
    a160:	000a1e0b 	andeq	r1, sl, fp, lsl #28
    a164:	24dc0500 	ldrbcs	r0, [ip], #1280	; 0x500
    a168:	54000004 	strpl	r0, [r0], #-4
    a16c:	0002840b 	andeq	r8, r2, fp, lsl #8
    a170:	fae00500 	blx	ff80b578 <__bss_end__+0xff801538>
    a174:	58000000 	stmdapl	r0, {}	; <UNPREDICTABLE>
    a178:	0003540b 	andeq	r5, r3, fp, lsl #8
    a17c:	efe20500 	svc	0x00e20500
    a180:	5c000000 	stcpl	0, cr0, [r0], {-0}
    a184:	00028f0b 	andeq	r8, r2, fp, lsl #30
    a188:	25e30500 	strbcs	r0, [r3, #1280]!	; 0x500
    a18c:	64000000 	strvs	r0, [r0], #-0
    a190:	00251400 	eoreq	r1, r5, r0, lsl #8
    a194:	04240000 	strteq	r0, [r4], #-0
    a198:	24150000 	ldrcs	r0, [r5], #-0
    a19c:	15000004 	strne	r0, [r0, #-4]
    a1a0:	00000105 	andeq	r0, r0, r5, lsl #2
    a1a4:	00010715 	andeq	r0, r1, r5, lsl r7
    a1a8:	00251500 	eoreq	r1, r5, r0, lsl #10
    a1ac:	0d000000 	stceq	0, cr0, [r0, #-0]
    a1b0:	00042f04 	andeq	r2, r4, r4, lsl #30
    a1b4:	04240e00 	strteq	r0, [r4], #-3584	; 0xfffff200
    a1b8:	a1160000 	tstge	r6, r0
    a1bc:	28000003 	stmdacs	r0, {r0, r1}
    a1c0:	02380504 	eorseq	r0, r8, #4, 10	; 0x1000000
    a1c4:	00000561 	andeq	r0, r0, r1, ror #10
    a1c8:	00031217 	andeq	r1, r3, r7, lsl r2
    a1cc:	023a0500 	eorseq	r0, sl, #0, 10
    a1d0:	00000025 	andeq	r0, r0, r5, lsr #32
    a1d4:	013f1700 	teqeq	pc, r0, lsl #14
    a1d8:	3f050000 	svccc	0x00050000
    a1dc:	00063602 	andeq	r3, r6, r2, lsl #12
    a1e0:	09170400 	ldmdbeq	r7, {sl}
    a1e4:	05000002 	streq	r0, [r0, #-2]
    a1e8:	0636023f 			; <UNDEFINED> instruction: 0x0636023f
    a1ec:	17080000 	strne	r0, [r8, -r0]
    a1f0:	000001b9 			; <UNDEFINED> instruction: 0x000001b9
    a1f4:	36023f05 	strcc	r3, [r2], -r5, lsl #30
    a1f8:	0c000006 	stceq	0, cr0, [r0], {6}
    a1fc:	00037517 	andeq	r7, r3, r7, lsl r5
    a200:	02410500 	subeq	r0, r1, #0, 10
    a204:	00000025 	andeq	r0, r0, r5, lsr #32
    a208:	00371710 	eorseq	r1, r7, r0, lsl r7
    a20c:	42050000 	andmi	r0, r5, #0
    a210:	00081802 	andeq	r1, r8, r2, lsl #16
    a214:	80171400 	andshi	r1, r7, r0, lsl #8
    a218:	05000004 	streq	r0, [r0, #-4]
    a21c:	00250244 	eoreq	r0, r5, r4, asr #4
    a220:	17300000 	ldrne	r0, [r0, -r0]!
    a224:	0000037f 	andeq	r0, r0, pc, ror r3
    a228:	85024505 	strhi	r4, [r2, #-1285]	; 0xfffffafb
    a22c:	34000005 	strcc	r0, [r0], #-5
    a230:	0002cf17 	andeq	ip, r2, r7, lsl pc
    a234:	02470500 	subeq	r0, r7, #0, 10
    a238:	00000025 	andeq	r0, r0, r5, lsr #32
    a23c:	038f1738 	orreq	r1, pc, #56, 14	; 0xe00000
    a240:	49050000 	stmdbmi	r5, {}	; <UNPREDICTABLE>
    a244:	00083302 	andeq	r3, r8, r2, lsl #6
    a248:	68173c00 	ldmdavs	r7, {sl, fp, ip, sp}
    a24c:	05000002 	streq	r0, [r0, #-2]
    a250:	0177024c 	cmneq	r7, ip, asr #4
    a254:	17400000 	strbne	r0, [r0, -r0]
    a258:	000001d8 	ldrdeq	r0, [r0], -r8
    a25c:	25024d05 	strcs	r4, [r2, #-3333]	; 0xfffff2fb
    a260:	44000000 	strmi	r0, [r0], #-0
    a264:	00052217 	andeq	r2, r5, r7, lsl r2
    a268:	024e0500 	subeq	r0, lr, #0, 10
    a26c:	00000177 	andeq	r0, r0, r7, ror r1
    a270:	02e11748 	rsceq	r1, r1, #72, 14	; 0x1200000
    a274:	4f050000 	svcmi	0x00050000
    a278:	00083902 	andeq	r3, r8, r2, lsl #18
    a27c:	11174c00 	tstne	r7, r0, lsl #24
    a280:	05000002 	streq	r0, [r0, #-2]
    a284:	00250252 	eoreq	r0, r5, r2, asr r2
    a288:	17500000 	ldrbne	r0, [r0, -r0]
    a28c:	00000157 	andeq	r0, r0, r7, asr r1
    a290:	07025305 	streq	r5, [r2, -r5, lsl #6]
    a294:	54000001 	strpl	r0, [r0], #-1
    a298:	00030b17 	andeq	r0, r3, r7, lsl fp
    a29c:	02760500 	rsbseq	r0, r6, #0, 10
    a2a0:	000007f6 	strdeq	r0, [r0], -r6
    a2a4:	02c71858 	sbceq	r1, r7, #88, 16	; 0x580000
    a2a8:	7a050000 	bvc	14a2b0 <__bss_end__+0x140270>
    a2ac:	00029402 	andeq	r9, r2, r2, lsl #8
    a2b0:	18014800 	stmdane	r1, {fp, lr}
    a2b4:	00000246 	andeq	r0, r0, r6, asr #4
    a2b8:	56027b05 	strpl	r7, [r2], -r5, lsl #22
    a2bc:	4c000002 	stcmi	0, cr0, [r0], {2}
    a2c0:	04ce1801 	strbeq	r1, [lr], #2049	; 0x801
    a2c4:	7f050000 	svcvc	0x00050000
    a2c8:	00084a02 	andeq	r4, r8, r2, lsl #20
    a2cc:	1802dc00 	stmdane	r2, {sl, fp, ip, lr, pc}
    a2d0:	00000128 	andeq	r0, r0, r8, lsr #2
    a2d4:	fb028405 	blx	ab2f2 <__bss_end__+0xa12b2>
    a2d8:	e0000005 	and	r0, r0, r5
    a2dc:	010d1802 	tsteq	sp, r2, lsl #16
    a2e0:	85050000 	strhi	r0, [r5, #-0]
    a2e4:	00085602 	andeq	r5, r8, r2, lsl #12
    a2e8:	0002ec00 	andeq	lr, r2, r0, lsl #24
    a2ec:	0406040d 	streq	r0, [r6], #-1037	; 0xfffffbf3
    a2f0:	25140000 	ldrcs	r0, [r4, #-0]
    a2f4:	85000000 	strhi	r0, [r0, #-0]
    a2f8:	15000005 	strne	r0, [r0, #-5]
    a2fc:	00000424 	andeq	r0, r0, r4, lsr #8
    a300:	00010515 	andeq	r0, r1, r5, lsl r5
    a304:	05851500 	streq	r1, [r5, #1280]	; 0x500
    a308:	25150000 	ldrcs	r0, [r5, #-0]
    a30c:	00000000 	andeq	r0, r0, r0
    a310:	0114040d 	tsteq	r4, sp, lsl #8
    a314:	040d0000 	streq	r0, [sp], #-0
    a318:	00000567 	andeq	r0, r0, r7, ror #10
    a31c:	00008114 	andeq	r8, r0, r4, lsl r1
    a320:	0005af00 	andeq	sl, r5, r0, lsl #30
    a324:	04241500 	strteq	r1, [r4], #-1280	; 0xfffffb00
    a328:	05150000 	ldreq	r0, [r5, #-0]
    a32c:	15000001 	strne	r0, [r0, #-1]
    a330:	00000081 	andeq	r0, r0, r1, lsl #1
    a334:	00002515 	andeq	r2, r0, r5, lsl r5
    a338:	040d0000 	streq	r0, [sp], #-0
    a33c:	00000591 	muleq	r0, r1, r5
    a340:	00002514 	andeq	r2, r0, r4, lsl r5
    a344:	0005c900 	andeq	ip, r5, r0, lsl #18
    a348:	04241500 	strteq	r1, [r4], #-1280	; 0xfffffb00
    a34c:	05150000 	ldreq	r0, [r5, #-0]
    a350:	00000001 	andeq	r0, r0, r1
    a354:	05b5040d 	ldreq	r0, [r5, #1037]!	; 0x40d
    a358:	4f080000 	svcmi	0x00080000
    a35c:	df000000 	svcle	0x00000000
    a360:	09000005 	stmdbeq	r0, {r0, r2}
    a364:	000000c7 	andeq	r0, r0, r7, asr #1
    a368:	4f080002 	svcmi	0x00080002
    a36c:	ef000000 	svc	0x00000000
    a370:	09000005 	stmdbeq	r0, {r0, r2}
    a374:	000000c7 	andeq	r0, r0, r7, asr #1
    a378:	3a050000 	bcc	14a380 <__bss_end__+0x140340>
    a37c:	05000003 	streq	r0, [r0, #-3]
    a380:	02dc011d 	sbcseq	r0, ip, #1073741831	; 0x40000007
    a384:	b5190000 	ldrlt	r0, [r9, #-0]
    a388:	0c000004 	stceq	0, cr0, [r0], {4}
    a38c:	30012105 	andcc	r2, r1, r5, lsl #2
    a390:	17000006 	strne	r0, [r0, -r6]
    a394:	00000362 	andeq	r0, r0, r2, ror #6
    a398:	30012305 	andcc	r2, r1, r5, lsl #6
    a39c:	00000006 	andeq	r0, r0, r6
    a3a0:	00022c17 	andeq	r2, r2, r7, lsl ip
    a3a4:	01240500 			; <UNDEFINED> instruction: 0x01240500
    a3a8:	00000025 	andeq	r0, r0, r5, lsr #32
    a3ac:	03341704 	teqeq	r4, #4, 14	; 0x100000
    a3b0:	25050000 	strcs	r0, [r5, #-0]
    a3b4:	00063601 	andeq	r3, r6, r1, lsl #12
    a3b8:	0d000800 	stceq	8, cr0, [r0, #-0]
    a3bc:	0005fb04 	andeq	pc, r5, r4, lsl #22
    a3c0:	ef040d00 	svc	0x00040d00
    a3c4:	19000005 	stmdbne	r0, {r0, r2}
    a3c8:	0000002f 	andeq	r0, r0, pc, lsr #32
    a3cc:	013d050e 	teqeq	sp, lr, lsl #10
    a3d0:	00000671 	andeq	r0, r0, r1, ror r6
    a3d4:	0003a817 	andeq	sl, r3, r7, lsl r8
    a3d8:	013e0500 	teqeq	lr, r0, lsl #10
    a3dc:	00000671 	andeq	r0, r0, r1, ror r6
    a3e0:	03d51700 	bicseq	r1, r5, #0, 14
    a3e4:	3f050000 	svccc	0x00050000
    a3e8:	00067101 	andeq	r7, r6, r1, lsl #2
    a3ec:	53170600 	tstpl	r7, #0, 12
    a3f0:	05000004 	streq	r0, [r0, #-4]
    a3f4:	00560140 	subseq	r0, r6, r0, asr #2
    a3f8:	000c0000 	andeq	r0, ip, r0
    a3fc:	00005608 	andeq	r5, r0, r8, lsl #12
    a400:	00068100 	andeq	r8, r6, r0, lsl #2
    a404:	00c70900 	sbceq	r0, r7, r0, lsl #18
    a408:	00020000 	andeq	r0, r2, r0
    a40c:	5705d01a 	smladpl	r5, sl, r0, sp
    a410:	00078202 	andeq	r8, r7, r2, lsl #4
    a414:	04991700 	ldreq	r1, [r9], #1792	; 0x700
    a418:	59050000 	stmdbpl	r5, {}	; <UNPREDICTABLE>
    a41c:	00002c02 	andeq	r2, r0, r2, lsl #24
    a420:	3d170000 	ldccc	0, cr0, [r7, #-0]
    a424:	05000004 	streq	r0, [r0, #-4]
    a428:	0107025a 	tsteq	r7, sl, asr r2
    a42c:	17040000 	strne	r0, [r4, -r0]
    a430:	0000025b 	andeq	r0, r0, fp, asr r2
    a434:	82025b05 	andhi	r5, r2, #5120	; 0x1400
    a438:	08000007 	stmdaeq	r0, {r0, r1, r2}
    a43c:	0004f917 	andeq	pc, r4, r7, lsl r9	; <UNPREDICTABLE>
    a440:	025c0500 	subseq	r0, ip, #0, 10
    a444:	0000018d 	andeq	r0, r0, sp, lsl #3
    a448:	01c91724 	biceq	r1, r9, r4, lsr #14
    a44c:	5d050000 	stcpl	0, cr0, [r5, #-0]
    a450:	00002502 	andeq	r2, r0, r2, lsl #10
    a454:	5d174800 	ldcpl	8, cr4, [r7, #-0]
    a458:	05000003 	streq	r0, [r0, #-3]
    a45c:	0064025e 	rsbeq	r0, r4, lr, asr r2
    a460:	17500000 	ldrbne	r0, [r0, -r0]
    a464:	0000050f 	andeq	r0, r0, pc, lsl #10
    a468:	3c025f05 	stccc	15, cr5, [r2], {5}
    a46c:	58000006 	stmdapl	r0, {r1, r2}
    a470:	00036817 	andeq	r6, r3, r7, lsl r8
    a474:	02600500 	rsbeq	r0, r0, #0, 10
    a478:	000000ef 	andeq	r0, r0, pc, ror #1
    a47c:	05141768 	ldreq	r1, [r4, #-1896]	; 0xfffff898
    a480:	61050000 	mrsvs	r0, (UNDEF: 5)
    a484:	0000ef02 	andeq	lr, r0, r2, lsl #30
    a488:	a1177000 	tstge	r7, r0
    a48c:	05000000 	streq	r0, [r0, #-0]
    a490:	00ef0262 	rsceq	r0, pc, r2, ror #4
    a494:	17780000 	ldrbne	r0, [r8, -r0]!
    a498:	000004c4 	andeq	r0, r0, r4, asr #9
    a49c:	92026305 	andls	r6, r2, #335544320	; 0x14000000
    a4a0:	80000007 	andhi	r0, r0, r7
    a4a4:	00024f17 	andeq	r4, r2, r7, lsl pc
    a4a8:	02640500 	rsbeq	r0, r4, #0, 10
    a4ac:	000007a2 	andeq	r0, r0, r2, lsr #15
    a4b0:	04601788 	strbteq	r1, [r0], #-1928	; 0xfffff878
    a4b4:	65050000 	strvs	r0, [r5, #-0]
    a4b8:	00002502 	andeq	r2, r0, r2, lsl #10
    a4bc:	8f17a000 	svchi	0x0017a000
    a4c0:	05000001 	streq	r0, [r0, #-1]
    a4c4:	00ef0266 	rsceq	r0, pc, r6, ror #4
    a4c8:	17a40000 	strne	r0, [r4, r0]!
    a4cc:	00000092 	muleq	r0, r2, r0
    a4d0:	ef026705 	svc	0x00026705
    a4d4:	ac000000 	stcge	0, cr0, [r0], {-0}
    a4d8:	00017e17 	andeq	r7, r1, r7, lsl lr
    a4dc:	02680500 	rsbeq	r0, r8, #0, 10
    a4e0:	000000ef 	andeq	r0, r0, pc, ror #1
    a4e4:	004a17b4 	strheq	r1, [sl], #-116	; 0xffffff8c
    a4e8:	69050000 	stmdbvs	r5, {}	; <UNPREDICTABLE>
    a4ec:	0000ef02 	andeq	lr, r0, r2, lsl #30
    a4f0:	5917bc00 	ldmdbpl	r7, {sl, fp, ip, sp, pc}
    a4f4:	05000000 	streq	r0, [r0, #-0]
    a4f8:	00ef026a 	rsceq	r0, pc, sl, ror #4
    a4fc:	17c40000 	strbne	r0, [r4, r0]
    a500:	00000310 	andeq	r0, r0, r0, lsl r3
    a504:	25026b05 	strcs	r6, [r2, #-2821]	; 0xfffff4fb
    a508:	cc000000 	stcgt	0, cr0, [r0], {-0}
    a50c:	010d0800 	tsteq	sp, r0, lsl #16
    a510:	07920000 	ldreq	r0, [r2, r0]
    a514:	c7090000 	strgt	r0, [r9, -r0]
    a518:	19000000 	stmdbne	r0, {}	; <UNPREDICTABLE>
    a51c:	010d0800 	tsteq	sp, r0, lsl #16
    a520:	07a20000 	streq	r0, [r2, r0]!
    a524:	c7090000 	strgt	r0, [r9, -r0]
    a528:	07000000 	streq	r0, [r0, -r0]
    a52c:	010d0800 	tsteq	sp, r0, lsl #16
    a530:	07b20000 	ldreq	r0, [r2, r0]!
    a534:	c7090000 	strgt	r0, [r9, -r0]
    a538:	17000000 	strne	r0, [r0, -r0]
    a53c:	05f01a00 	ldrbeq	r1, [r0, #2560]!	; 0xa00
    a540:	07d60270 			; <UNDEFINED> instruction: 0x07d60270
    a544:	b7170000 	ldrlt	r0, [r7, -r0]
    a548:	05000002 	streq	r0, [r0, #-2]
    a54c:	07d60273 			; <UNDEFINED> instruction: 0x07d60273
    a550:	17000000 	strne	r0, [r0, -r0]
    a554:	000004bb 			; <UNDEFINED> instruction: 0x000004bb
    a558:	e6027405 	str	r7, [r2], -r5, lsl #8
    a55c:	78000007 	stmdavc	r0, {r0, r1, r2}
    a560:	02d60800 	sbcseq	r0, r6, #0, 16
    a564:	07e60000 	strbeq	r0, [r6, r0]!
    a568:	c7090000 	strgt	r0, [r9, -r0]
    a56c:	1d000000 	stcne	0, cr0, [r0, #-0]
    a570:	002c0800 	eoreq	r0, ip, r0, lsl #16
    a574:	07f60000 	ldrbeq	r0, [r6, r0]!
    a578:	c7090000 	strgt	r0, [r9, -r0]
    a57c:	1d000000 	stcne	0, cr0, [r0, #-0]
    a580:	05f01b00 	ldrbeq	r1, [r0, #2816]!	; 0xb00
    a584:	08180255 	ldmdaeq	r8, {r0, r2, r4, r6, r9}
    a588:	a11c0000 	tstge	ip, r0
    a58c:	05000003 	streq	r0, [r0, #-3]
    a590:	0681026c 	streq	r0, [r1], ip, ror #4
    a594:	e61c0000 	ldr	r0, [ip], -r0
    a598:	05000004 	streq	r0, [r0, #-4]
    a59c:	07b20275 			; <UNDEFINED> instruction: 0x07b20275
    a5a0:	08000000 	stmdaeq	r0, {}	; <UNPREDICTABLE>
    a5a4:	0000010d 	andeq	r0, r0, sp, lsl #2
    a5a8:	00000828 	andeq	r0, r0, r8, lsr #16
    a5ac:	0000c709 	andeq	ip, r0, r9, lsl #14
    a5b0:	1d001800 	stcne	8, cr1, [r0, #-0]
    a5b4:	00000833 	andeq	r0, r0, r3, lsr r8
    a5b8:	00042415 	andeq	r2, r4, r5, lsl r4
    a5bc:	040d0000 	streq	r0, [sp], #-0
    a5c0:	00000828 	andeq	r0, r0, r8, lsr #16
    a5c4:	0177040d 	cmneq	r7, sp, lsl #8
    a5c8:	4a1d0000 	bmi	74a5d0 <__bss_end__+0x740590>
    a5cc:	15000008 	strne	r0, [r0, #-8]
    a5d0:	00000025 	andeq	r0, r0, r5, lsr #32
    a5d4:	50040d00 	andpl	r0, r4, r0, lsl #26
    a5d8:	0d000008 	stceq	0, cr0, [r0, #-32]	; 0xffffffe0
    a5dc:	00083f04 	andeq	r3, r8, r4, lsl #30
    a5e0:	05ef0800 	strbeq	r0, [pc, #2048]!	; ade8 <__bss_end__+0xda8>
    a5e4:	08660000 	stmdaeq	r6!, {}^	; <UNPREDICTABLE>
    a5e8:	c7090000 	strgt	r0, [r9, -r0]
    a5ec:	02000000 	andeq	r0, r0, #0
    a5f0:	04741e00 	ldrbteq	r1, [r4], #-3584	; 0xfffff200
    a5f4:	fd050000 	stc2	0, cr0, [r5, #-0]
    a5f8:	00042402 	andeq	r2, r4, r2, lsl #8
    a5fc:	046d1e00 	strbteq	r1, [sp], #-3584	; 0xfffff200
    a600:	fe050000 	cdp2	0, 0, cr0, cr5, cr0, {0}
    a604:	00042a02 	andeq	r2, r4, r2, lsl #20
    a608:	00251400 	eoreq	r1, r5, r0, lsl #8
    a60c:	088d0000 	stmeq	sp, {}	; <UNPREDICTABLE>
    a610:	25150000 	ldrcs	r0, [r5, #-0]
    a614:	00000000 	andeq	r0, r0, r0
    a618:	0001e21f 	andeq	lr, r1, pc, lsl r2
    a61c:	981d0600 	ldmdals	sp, {r9, sl}
    a620:	0d000008 	stceq	0, cr0, [r0, #-32]	; 0xffffffe0
    a624:	00087e04 	andeq	r7, r8, r4, lsl #28
    a628:	00251400 	eoreq	r1, r5, r0, lsl #8
    a62c:	08ad0000 	stmiaeq	sp!, {}	; <UNPREDICTABLE>
    a630:	85150000 	ldrhi	r0, [r5, #-0]
    a634:	00000005 	andeq	r0, r0, r5
    a638:	00076e1f 	andeq	r6, r7, pc, lsl lr
    a63c:	b8220600 	stmdalt	r2!, {r9, sl}
    a640:	0d000008 	stceq	0, cr0, [r0, #-32]	; 0xffffffe0
    a644:	00089e04 	andeq	r9, r8, r4, lsl #28
    a648:	04080300 	streq	r0, [r8], #-768	; 0xfffffd00
    a64c:	00000b0a 	andeq	r0, r0, sl, lsl #22
    a650:	000b421f 	andeq	r4, fp, pc, lsl r2
    a654:	0d0d0100 	stfeqs	f0, [sp, #-0]
    a658:	20000001 	andcs	r0, r0, r1
    a65c:	00000657 	andeq	r0, r0, r7, asr r6
    a660:	01070e01 	tsteq	r7, r1, lsl #28
    a664:	03050000 	movweq	r0, #20480	; 0x5000
    a668:	00009660 	andeq	r9, r0, r0, ror #12
    a66c:	000b5920 	andeq	r5, fp, r0, lsr #18
    a670:	070f0100 	streq	r0, [pc, -r0, lsl #2]
    a674:	05000001 	streq	r0, [r0, #-1]
    a678:	00966403 	addseq	r6, r6, r3, lsl #8
    a67c:	0b1b2100 	bleq	6d2a84 <__bss_end__+0x6c8a44>
    a680:	38010000 	stmdacc	r1, {}	; <UNPREDICTABLE>
    a684:	00009630 	andeq	r9, r0, r0, lsr r6
    a688:	00000010 	andeq	r0, r0, r0, lsl r0
    a68c:	09139c01 	ldmdbeq	r3, {r0, sl, fp, ip, pc}
    a690:	70220000 	eorvc	r0, r2, r0
    a694:	05380100 	ldreq	r0, [r8, #-256]!	; 0xffffff00
    a698:	01000001 	tsteq	r0, r1
    a69c:	11230050 	qsubne	r0, r0, r3
    a6a0:	0100000b 	tsteq	r0, fp
    a6a4:	00961c37 	addseq	r1, r6, r7, lsr ip
    a6a8:	00001400 	andeq	r1, r0, r0, lsl #8
    a6ac:	219c0100 	orrscs	r0, ip, r0, lsl #2
    a6b0:	0000027e 	andeq	r0, r0, lr, ror r2
    a6b4:	96183601 	ldrls	r3, [r8], -r1, lsl #12
    a6b8:	00040000 	andeq	r0, r4, r0
    a6bc:	9c010000 	stcls	0, cr0, [r1], {-0}
    a6c0:	00000945 	andeq	r0, r0, r5, asr #18
    a6c4:	01007022 	tsteq	r0, r2, lsr #32
    a6c8:	00010536 	andeq	r0, r1, r6, lsr r5
    a6cc:	00500100 	subseq	r0, r0, r0, lsl #2
    a6d0:	000afa24 	andeq	pc, sl, r4, lsr #20
    a6d4:	05290100 	streq	r0, [r9, #-256]!	; 0xffffff00
    a6d8:	8c000001 	stchi	0, cr0, [r0], {1}
    a6dc:	8c000095 	stchi	0, cr0, [r0], {149}	; 0x95
    a6e0:	01000000 	mrseq	r0, (UNDEF: 0)
    a6e4:	000a309c 	muleq	sl, ip, r0
    a6e8:	06772500 	ldrbteq	r2, [r7], -r0, lsl #10
    a6ec:	29010000 	stmdbcs	r1, {}	; <UNPREDICTABLE>
    a6f0:	0000002c 	andeq	r0, r0, ip, lsr #32
    a6f4:	0000138a 	andeq	r1, r0, sl, lsl #7
    a6f8:	000b3825 	andeq	r3, fp, r5, lsr #16
    a6fc:	2c290100 	stfcss	f0, [r9], #-0
    a700:	dd000000 	stcle	0, cr0, [r0, #-0]
    a704:	26000013 			; <UNDEFINED> instruction: 0x26000013
    a708:	0000021f 	andeq	r0, r0, pc, lsl r2
    a70c:	00000a40 	andeq	r0, r0, r0, asr #20
    a710:	9b300305 	blls	c0b32c <__bss_end__+0xc012ec>
    a714:	68270000 	stmdavs	r7!, {}	; <UNPREDICTABLE>
    a718:	2c2e0100 	stfcss	f0, [lr], #-0
    a71c:	24000000 	strcs	r0, [r0], #-0
    a720:	28000014 	stmdacs	r0, {r2, r4}
    a724:	000095c8 	andeq	r9, r0, r8, asr #11
    a728:	00000a79 	andeq	r0, r0, r9, ror sl
    a72c:	000009ad 	andeq	r0, r0, sp, lsr #19
    a730:	03500129 	cmpeq	r0, #1073741834	; 0x4000000a
    a734:	005001f3 	ldrsheq	r0, [r0], #-19	; 0xffffffed
    a738:	0095d02a 	addseq	sp, r5, sl, lsr #32
    a73c:	000bfb00 	andeq	pc, fp, r0, lsl #22
    a740:	95e42800 	strbls	r2, [r4, #2048]!	; 0x800
    a744:	0c060000 	stceq	0, cr0, [r6], {-0}
    a748:	09e50000 	stmibeq	r5!, {}^	; <UNPREDICTABLE>
    a74c:	01290000 			; <UNDEFINED> instruction: 0x01290000
    a750:	7c030550 	cfstr32vc	mvfx0, [r3], {80}	; 0x50
    a754:	2900009b 	stmdbcs	r0, {r0, r1, r3, r4, r7}
    a758:	03055101 	movweq	r5, #20737	; 0x5101
    a75c:	00009b40 	andeq	r9, r0, r0, asr #22
    a760:	05520129 	ldrbeq	r0, [r2, #-297]	; 0xfffffed7
    a764:	009b3003 	addseq	r3, fp, r3
    a768:	53012900 	movwpl	r2, #6400	; 0x1900
    a76c:	002a0802 	eoreq	r0, sl, r2, lsl #16
    a770:	0095e82a 	addseq	lr, r5, sl, lsr #16
    a774:	000c1100 	andeq	r1, ip, r0, lsl #2
    a778:	95ec2a00 	strbls	r2, [ip, #2560]!	; 0xa00
    a77c:	0bfb0000 	bleq	ffeca784 <__bss_end__+0xffec0744>
    a780:	00280000 	eoreq	r0, r8, r0
    a784:	06000096 			; <UNDEFINED> instruction: 0x06000096
    a788:	2600000c 	strcs	r0, [r0], -ip
    a78c:	2900000a 	stmdbcs	r0, {r1, r3}
    a790:	03055001 	movweq	r5, #20481	; 0x5001
    a794:	00009bdc 	ldrdeq	r9, [r0], -ip
    a798:	05510129 	ldrbeq	r0, [r1, #-297]	; 0xfffffed7
    a79c:	009b4003 	addseq	r4, fp, r3
    a7a0:	52012900 	andpl	r2, r1, #0, 18
    a7a4:	9b300305 	blls	c0b3c0 <__bss_end__+0xc01380>
    a7a8:	01290000 			; <UNDEFINED> instruction: 0x01290000
    a7ac:	30080253 	andcc	r0, r8, r3, asr r2
    a7b0:	96042a00 	strls	r2, [r4], -r0, lsl #20
    a7b4:	0c110000 	ldceq	0, cr0, [r1], {-0}
    a7b8:	08000000 	stmdaeq	r0, {}	; <UNPREDICTABLE>
    a7bc:	00000114 	andeq	r0, r0, r4, lsl r1
    a7c0:	00000a40 	andeq	r0, r0, r0, asr #20
    a7c4:	0000c709 	andeq	ip, r0, r9, lsl #14
    a7c8:	0e000f00 	cdpeq	15, 0, cr0, cr0, cr0, {0}
    a7cc:	00000a30 	andeq	r0, r0, r0, lsr sl
    a7d0:	000b2724 	andeq	r2, fp, r4, lsr #14
    a7d4:	05250100 	streq	r0, [r5, #-256]!	; 0xffffff00
    a7d8:	80000001 	andhi	r0, r0, r1
    a7dc:	0c000095 	stceq	0, cr0, [r0], {149}	; 0x95
    a7e0:	01000000 	mrseq	r0, (UNDEF: 0)
    a7e4:	000a689c 	muleq	sl, ip, r8
    a7e8:	95882a00 	strls	r2, [r8, #2560]	; 0xa00
    a7ec:	0bd10000 	bleq	ff44a7f4 <__bss_end__+0xff4407b4>
    a7f0:	23000000 	movwcs	r0, #0
    a7f4:	00000aed 	andeq	r0, r0, sp, ror #21
    a7f8:	957c2401 	ldrbls	r2, [ip, #-1025]!	; 0xfffffbff
    a7fc:	00040000 	andeq	r0, r4, r0
    a800:	9c010000 	stcls	0, cr0, [r1], {-0}
    a804:	0004d824 	andeq	sp, r4, r4, lsr #16
    a808:	051a0100 	ldreq	r0, [sl, #-256]	; 0xffffff00
    a80c:	18000001 	stmdane	r0, {r0}
    a810:	64000095 	strvs	r0, [r0], #-149	; 0xffffff6b
    a814:	01000000 	mrseq	r0, (UNDEF: 0)
    a818:	000b249c 	muleq	fp, ip, r4
    a81c:	7a732b00 	bvc	1cd5424 <__bss_end__+0x1ccb3e4>
    a820:	2c1a0100 	ldfcss	f0, [sl], {-0}
    a824:	5c000000 	stcpl	0, cr0, [r0], {-0}
    a828:	26000014 			; <UNDEFINED> instruction: 0x26000014
    a82c:	0000021f 	andeq	r0, r0, pc, lsl r2
    a830:	00000b34 	andeq	r0, r0, r4, lsr fp
    a834:	9b280305 	blls	a0b450 <__bss_end__+0xa01410>
    a838:	652c0000 	strvs	r0, [ip, #-0]!
    a83c:	0100000b 	tsteq	r0, fp
    a840:	0001051e 	andeq	r0, r1, lr, lsl r5
    a844:	0014a600 	andseq	sl, r4, r0, lsl #12
    a848:	95482800 	strbls	r2, [r8, #-2048]	; 0xfffff800
    a84c:	0c1c0000 	ldceq	0, cr0, [ip], {-0}
    a850:	0ae30000 	beq	ff8ca858 <__bss_end__+0xff8c0818>
    a854:	01290000 			; <UNDEFINED> instruction: 0x01290000
    a858:	00740250 	rsbseq	r0, r4, r0, asr r2
    a85c:	01510129 	cmpeq	r1, r9, lsr #2
    a860:	52012930 	andpl	r2, r1, #48, 18	; 0xc0000
    a864:	5001f308 	andpl	pc, r1, r8, lsl #6
    a868:	f8090723 			; <UNDEFINED> instruction: 0xf8090723
    a86c:	542a001a 	strtpl	r0, [sl], #-26	; 0xffffffe6
    a870:	fb000095 	blx	aace <__bss_end__+0xa8e>
    a874:	2800000b 	stmdacs	r0, {r0, r1, r3}
    a878:	00009568 	andeq	r9, r0, r8, ror #10
    a87c:	00000c06 	andeq	r0, r0, r6, lsl #24
    a880:	00000b1a 	andeq	r0, r0, sl, lsl fp
    a884:	05500129 	ldrbeq	r0, [r0, #-297]	; 0xfffffed7
    a888:	009b6803 	addseq	r6, fp, r3, lsl #16
    a88c:	51012900 	tstpl	r1, r0, lsl #18
    a890:	9b400305 	blls	100b4ac <__bss_end__+0x100146c>
    a894:	01290000 			; <UNDEFINED> instruction: 0x01290000
    a898:	28030552 	stmdacs	r3, {r1, r4, r6, r8, sl}
    a89c:	2900009b 	stmdbcs	r0, {r0, r1, r3, r4, r7}
    a8a0:	4b015301 	blmi	5f4ac <__bss_end__+0x5546c>
    a8a4:	956c2a00 	strbls	r2, [ip, #-2560]!	; 0xfffff600
    a8a8:	0c110000 	ldceq	0, cr0, [r1], {-0}
    a8ac:	08000000 	stmdaeq	r0, {}	; <UNPREDICTABLE>
    a8b0:	00000114 	andeq	r0, r0, r4, lsl r1
    a8b4:	00000b34 	andeq	r0, r0, r4, lsr fp
    a8b8:	0000c709 	andeq	ip, r0, r9, lsl #14
    a8bc:	0e000700 	cdpeq	7, 0, cr0, cr0, cr0, {0}
    a8c0:	00000b24 	andeq	r0, r0, r4, lsr #22
    a8c4:	00016721 	andeq	r6, r1, r1, lsr #14
    a8c8:	c8140100 	ldmdagt	r4, {r8}
    a8cc:	50000094 	mulpl	r0, r4, r0
    a8d0:	01000000 	mrseq	r0, (UNDEF: 0)
    a8d4:	000bbc9c 	muleq	fp, ip, ip
    a8d8:	0b642500 	bleq	1913ce0 <__bss_end__+0x1909ca0>
    a8dc:	14010000 	strne	r0, [r1], #-0
    a8e0:	0000002c 	andeq	r0, r0, ip, lsr #32
    a8e4:	000014b9 			; <UNDEFINED> instruction: 0x000014b9
    a8e8:	000b652c 	andeq	r6, fp, ip, lsr #10
    a8ec:	07150100 	ldreq	r0, [r5, -r0, lsl #2]
    a8f0:	da000001 	ble	a8fc <__bss_end__+0x8bc>
    a8f4:	26000014 			; <UNDEFINED> instruction: 0x26000014
    a8f8:	0000021f 	andeq	r0, r0, pc, lsl r2
    a8fc:	00000bcc 	andeq	r0, r0, ip, asr #23
    a900:	9b100305 	blls	40b51c <__bss_end__+0x4014dc>
    a904:	f02a0000 			; <UNDEFINED> instruction: 0xf02a0000
    a908:	fb000094 	blx	ab62 <__bss_end__+0xb22>
    a90c:	2800000b 	stmdacs	r0, {r0, r1, r3}
    a910:	00009504 	andeq	r9, r0, r4, lsl #10
    a914:	00000c06 	andeq	r0, r0, r6, lsl #24
    a918:	00000bb2 			; <UNDEFINED> instruction: 0x00000bb2
    a91c:	05500129 	ldrbeq	r0, [r0, #-297]	; 0xfffffed7
    a920:	009b4c03 	addseq	r4, fp, r3, lsl #24
    a924:	51012900 	tstpl	r1, r0, lsl #18
    a928:	9b400305 	blls	100b544 <__bss_end__+0x1001504>
    a92c:	01290000 			; <UNDEFINED> instruction: 0x01290000
    a930:	10030552 	andne	r0, r3, r2, asr r5
    a934:	2900009b 	stmdbcs	r0, {r0, r1, r3, r4, r7}
    a938:	46015301 	strmi	r5, [r1], -r1, lsl #6
    a93c:	95082a00 	strls	r2, [r8, #-2560]	; 0xfffff600
    a940:	0c110000 	ldceq	0, cr0, [r1], {-0}
    a944:	08000000 	stmdaeq	r0, {}	; <UNPREDICTABLE>
    a948:	00000114 	andeq	r0, r0, r4, lsl r1
    a94c:	00000bcc 	andeq	r0, r0, ip, asr #23
    a950:	0000c709 	andeq	ip, r0, r9, lsl #14
    a954:	0e001600 	cfmadd32eq	mvax0, mvfx1, mvfx0, mvfx0
    a958:	00000bbc 			; <UNDEFINED> instruction: 0x00000bbc
    a95c:	000b512d 	andeq	r5, fp, sp, lsr #2
    a960:	05120100 	ldreq	r0, [r2, #-256]	; 0xffffff00
    a964:	bc000001 	stclt	0, cr0, [r0], {1}
    a968:	0c000094 	stceq	0, cr0, [r0], {148}	; 0x94
    a96c:	01000000 	mrseq	r0, (UNDEF: 0)
    a970:	0b6a2d9c 	bleq	1a95fe8 <__bss_end__+0x1a8bfa8>
    a974:	11010000 	mrsne	r0, (UNDEF: 1)
    a978:	00000105 	andeq	r0, r0, r5, lsl #2
    a97c:	000094ac 	andeq	r9, r0, ip, lsr #9
    a980:	00000010 	andeq	r0, r0, r0, lsl r0
    a984:	fa2e9c01 	blx	bb1990 <__bss_end__+0xba7950>
    a988:	fa000001 	blx	a994 <__bss_end__+0x954>
    a98c:	06000001 	streq	r0, [r0], -r1
    a990:	06ba2e1e 	ssateq	r2, #27, lr, lsl #28
    a994:	06ba0000 	ldrteq	r0, [sl], r0
    a998:	29060000 	stmdbcs	r6, {}	; <UNPREDICTABLE>
    a99c:	0002a12e 	andeq	sl, r2, lr, lsr #2
    a9a0:	0002a100 	andeq	sl, r2, r0, lsl #2
    a9a4:	2e650600 	cdpcs	6, 6, cr0, cr5, cr0, {0}
    a9a8:	00000492 	muleq	r0, r2, r4
    a9ac:	00000492 	muleq	r0, r2, r4
    a9b0:	Address 0x000000000000a9b0 is out of bounds.


Disassembly of section .debug_abbrev:

00000000 <.debug_abbrev>:
       0:	25011101 	strcs	r1, [r1, #-257]	; 0xfffffeff
       4:	030b130e 	movweq	r1, #45838	; 0xb30e
       8:	110e1b0e 	tstne	lr, lr, lsl #22
       c:	10061201 	andne	r1, r6, r1, lsl #4
      10:	02000017 	andeq	r0, r0, #23
      14:	0b0b0024 	bleq	2c00ac <__bss_end__+0x2b606c>
      18:	08030b3e 	stmdaeq	r3, {r1, r2, r3, r4, r5, r8, r9, fp}
      1c:	24030000 	strcs	r0, [r3], #-0
      20:	3e0b0b00 	vmlacc.f64	d0, d11, d0
      24:	000e030b 	andeq	r0, lr, fp, lsl #6
      28:	00160400 	andseq	r0, r6, r0, lsl #8
      2c:	0b3a0e03 	bleq	e83840 <__bss_end__+0xe79800>
      30:	13490b3b 	movtne	r0, #39739	; 0x9b3b
      34:	16050000 	strne	r0, [r5], -r0
      38:	3a0e0300 	bcc	380c40 <__bss_end__+0x376c00>
      3c:	49053b0b 	stmdbmi	r5, {r0, r1, r3, r8, r9, fp, ip, sp}
      40:	06000013 			; <UNDEFINED> instruction: 0x06000013
      44:	0b0b0117 	bleq	2c04a8 <__bss_end__+0x2b6468>
      48:	0b3b0b3a 	bleq	ec2d38 <__bss_end__+0xeb8cf8>
      4c:	00001301 	andeq	r1, r0, r1, lsl #6
      50:	03000d07 	movweq	r0, #3335	; 0xd07
      54:	3b0b3a0e 	blcc	2ce894 <__bss_end__+0x2c4854>
      58:	0013490b 	andseq	r4, r3, fp, lsl #18
      5c:	01010800 	tsteq	r1, r0, lsl #16
      60:	13011349 	movwne	r1, #4937	; 0x1349
      64:	21090000 	mrscs	r0, (UNDEF: 9)
      68:	2f134900 	svccs	0x00134900
      6c:	0a00000b 	beq	a0 <_start-0x7f60>
      70:	0b0b0113 	bleq	2c04c4 <__bss_end__+0x2b6484>
      74:	0b3b0b3a 	bleq	ec2d64 <__bss_end__+0xeb8d24>
      78:	00001301 	andeq	r1, r0, r1, lsl #6
      7c:	03000d0b 	movweq	r0, #3339	; 0xd0b
      80:	3b0b3a0e 	blcc	2ce8c0 <__bss_end__+0x2c4880>
      84:	3813490b 	ldmdacc	r3, {r0, r1, r3, r8, fp, lr}
      88:	0c00000b 	stceq	0, cr0, [r0], {11}
      8c:	0b0b000f 	bleq	2c00d0 <__bss_end__+0x2b6090>
      90:	0f0d0000 	svceq	0x000d0000
      94:	490b0b00 	stmdbmi	fp, {r8, r9, fp}
      98:	0e000013 	mcreq	0, 0, r0, cr0, cr3, {0}
      9c:	13490026 	movtne	r0, #36902	; 0x9026
      a0:	130f0000 	movwne	r0, #61440	; 0xf000
      a4:	0b0e0301 	bleq	380cb0 <__bss_end__+0x376c70>
      a8:	3b0b3a0b 	blcc	2ce8dc <__bss_end__+0x2c489c>
      ac:	0013010b 	andseq	r0, r3, fp, lsl #2
      b0:	000d1000 	andeq	r1, sp, r0
      b4:	0b3a0803 	bleq	e820c8 <__bss_end__+0xe78088>
      b8:	13490b3b 	movtne	r0, #39739	; 0x9b3b
      bc:	00000b38 	andeq	r0, r0, r8, lsr fp
      c0:	03011311 	movweq	r1, #4881	; 0x1311
      c4:	3a050b0e 	bcc	142d04 <__bss_end__+0x138cc4>
      c8:	010b3b0b 	tsteq	fp, fp, lsl #22
      cc:	12000013 	andne	r0, r0, #19
      d0:	0e03000d 	cdpeq	0, 0, cr0, cr3, cr13, {0}
      d4:	0b3b0b3a 	bleq	ec2dc4 <__bss_end__+0xeb8d84>
      d8:	05381349 	ldreq	r1, [r8, #-841]!	; 0xfffffcb7
      dc:	15130000 	ldrne	r0, [r3, #-0]
      e0:	00192700 	andseq	r2, r9, r0, lsl #14
      e4:	01151400 	tsteq	r5, r0, lsl #8
      e8:	13491927 	movtne	r1, #39207	; 0x9927
      ec:	00001301 	andeq	r1, r0, r1, lsl #6
      f0:	49000515 	stmdbmi	r0, {r0, r2, r4, r8, sl}
      f4:	16000013 			; <UNDEFINED> instruction: 0x16000013
      f8:	0e030113 	mcreq	1, 0, r0, cr3, cr3, {0}
      fc:	0b3a050b 	bleq	e81530 <__bss_end__+0xe774f0>
     100:	1301053b 	movwne	r0, #5435	; 0x153b
     104:	0d170000 	ldceq	0, cr0, [r7, #-0]
     108:	3a0e0300 	bcc	380d10 <__bss_end__+0x376cd0>
     10c:	49053b0b 	stmdbmi	r5, {r0, r1, r3, r8, r9, fp, ip, sp}
     110:	000b3813 	andeq	r3, fp, r3, lsl r8
     114:	000d1800 	andeq	r1, sp, r0, lsl #16
     118:	0b3a0e03 	bleq	e8392c <__bss_end__+0xe798ec>
     11c:	1349053b 	movtne	r0, #38203	; 0x953b
     120:	00000538 	andeq	r0, r0, r8, lsr r5
     124:	03011319 	movweq	r1, #4889	; 0x1319
     128:	3a0b0b0e 	bcc	2c2d68 <__bss_end__+0x2b8d28>
     12c:	01053b0b 	tsteq	r5, fp, lsl #22
     130:	1a000013 	bne	184 <_start-0x7e7c>
     134:	0b0b0113 	bleq	2c0588 <__bss_end__+0x2b6548>
     138:	053b0b3a 	ldreq	r0, [fp, #-2874]!	; 0xfffff4c6
     13c:	00001301 	andeq	r1, r0, r1, lsl #6
     140:	0b01171b 	bleq	45db4 <__bss_end__+0x3bd74>
     144:	3b0b3a0b 	blcc	2ce978 <__bss_end__+0x2c4938>
     148:	00130105 	andseq	r0, r3, r5, lsl #2
     14c:	000d1c00 	andeq	r1, sp, r0, lsl #24
     150:	0b3a0e03 	bleq	e83964 <__bss_end__+0xe79924>
     154:	1349053b 	movtne	r0, #38203	; 0x953b
     158:	151d0000 	ldrne	r0, [sp, #-0]
     15c:	01192701 	tsteq	r9, r1, lsl #14
     160:	1e000013 	mcrne	0, 0, r0, cr0, cr3, {0}
     164:	0e030034 	mcreq	0, 0, r0, cr3, cr4, {1}
     168:	053b0b3a 	ldreq	r0, [fp, #-2874]!	; 0xfffff4c6
     16c:	193f1349 	ldmdbne	pc!, {r0, r3, r6, r8, r9, ip}	; <UNPREDICTABLE>
     170:	0000193c 	andeq	r1, r0, ip, lsr r9
     174:	0300341f 	movweq	r3, #1055	; 0x41f
     178:	3b0b3a0e 	blcc	2ce9b8 <__bss_end__+0x2c4978>
     17c:	3f13490b 	svccc	0x0013490b
     180:	00193c19 	andseq	r3, r9, r9, lsl ip
     184:	012e2000 			; <UNDEFINED> instruction: 0x012e2000
     188:	0e03193f 			; <UNDEFINED> instruction: 0x0e03193f
     18c:	0b3b0b3a 	bleq	ec2e7c <__bss_end__+0xeb8e3c>
     190:	01111927 	tsteq	r1, r7, lsr #18
     194:	18400612 	stmdane	r0, {r1, r4, r9, sl}^
     198:	01194297 			; <UNDEFINED> instruction: 0x01194297
     19c:	21000013 	tstcs	r0, r3, lsl r0
     1a0:	08030034 	stmdaeq	r3, {r2, r4, r5}
     1a4:	0b3b0b3a 	bleq	ec2e94 <__bss_end__+0xeb8e54>
     1a8:	061c1349 	ldreq	r1, [ip], -r9, asr #6
     1ac:	34220000 	strtcc	r0, [r2], #-0
     1b0:	3a080300 	bcc	200db8 <__bss_end__+0x1f6d78>
     1b4:	490b3b0b 	stmdbmi	fp, {r0, r1, r3, r8, r9, fp, ip, sp}
     1b8:	00170213 	andseq	r0, r7, r3, lsl r2
     1bc:	00342300 	eorseq	r2, r4, r0, lsl #6
     1c0:	13490e03 	movtne	r0, #40451	; 0x9e03
     1c4:	18021934 	stmdane	r2, {r2, r4, r5, r8, fp, ip}
     1c8:	34240000 	strtcc	r0, [r4], #-0
     1cc:	3a0e0300 	bcc	380dd4 <__bss_end__+0x376d94>
     1d0:	490b3b0b 	stmdbmi	fp, {r0, r1, r3, r8, r9, fp, ip, sp}
     1d4:	00170213 	andseq	r0, r7, r3, lsl r2
     1d8:	82892500 	addhi	r2, r9, #0, 10
     1dc:	01110101 	tsteq	r1, r1, lsl #2
     1e0:	13011331 	movwne	r1, #4913	; 0x1331
     1e4:	8a260000 	bhi	9801ec <__bss_end__+0x9761ac>
     1e8:	02000182 	andeq	r0, r0, #-2147483616	; 0x80000020
     1ec:	18429118 	stmdane	r2, {r3, r4, r8, ip, pc}^
     1f0:	89270000 	stmdbhi	r7!, {}	; <UNPREDICTABLE>
     1f4:	11000182 	smlabbne	r0, r2, r1, r0
     1f8:	00133101 	andseq	r3, r3, r1, lsl #2
     1fc:	002e2800 	eoreq	r2, lr, r0, lsl #16
     200:	193c193f 	ldmdbne	ip!, {r0, r1, r2, r3, r4, r5, r8, fp, ip}
     204:	0e030e6e 	cdpeq	14, 0, cr0, cr3, cr14, {3}
     208:	0b3b0b3a 	bleq	ec2ef8 <__bss_end__+0xeb8eb8>
     20c:	01000000 	mrseq	r0, (UNDEF: 0)
     210:	0e250111 	mcreq	1, 1, r0, cr5, cr1, {0}
     214:	0e030b13 	vmoveq.32	d3[0], r0
     218:	01110e1b 	tsteq	r1, fp, lsl lr
     21c:	17100612 			; <UNDEFINED> instruction: 0x17100612
     220:	24020000 	strcs	r0, [r2], #-0
     224:	3e0b0b00 	vmlacc.f64	d0, d11, d0
     228:	0008030b 	andeq	r0, r8, fp, lsl #6
     22c:	00240300 	eoreq	r0, r4, r0, lsl #6
     230:	0b3e0b0b 	bleq	f82e64 <__bss_end__+0xf78e24>
     234:	00000e03 	andeq	r0, r0, r3, lsl #28
     238:	03001604 	movweq	r1, #1540	; 0x604
     23c:	3b0b3a0e 	blcc	2cea7c <__bss_end__+0x2c4a3c>
     240:	0013490b 	andseq	r4, r3, fp, lsl #18
     244:	00160500 	andseq	r0, r6, r0, lsl #10
     248:	0b3a0e03 	bleq	e83a5c <__bss_end__+0xe79a1c>
     24c:	1349053b 	movtne	r0, #38203	; 0x953b
     250:	17060000 	strne	r0, [r6, -r0]
     254:	3a0b0b01 	bcc	2c2e60 <__bss_end__+0x2b8e20>
     258:	010b3b0b 	tsteq	fp, fp, lsl #22
     25c:	07000013 	smladeq	r0, r3, r0, r0
     260:	0e03000d 	cdpeq	0, 0, cr0, cr3, cr13, {0}
     264:	0b3b0b3a 	bleq	ec2f54 <__bss_end__+0xeb8f14>
     268:	00001349 	andeq	r1, r0, r9, asr #6
     26c:	49010108 	stmdbmi	r1, {r3, r8}
     270:	00130113 	andseq	r0, r3, r3, lsl r1
     274:	00210900 	eoreq	r0, r1, r0, lsl #18
     278:	0b2f1349 	bleq	bc4fa4 <__bss_end__+0xbbaf64>
     27c:	130a0000 	movwne	r0, #40960	; 0xa000
     280:	3a0b0b01 	bcc	2c2e8c <__bss_end__+0x2b8e4c>
     284:	010b3b0b 	tsteq	fp, fp, lsl #22
     288:	0b000013 	bleq	2dc <_start-0x7d24>
     28c:	0e03000d 	cdpeq	0, 0, cr0, cr3, cr13, {0}
     290:	0b3b0b3a 	bleq	ec2f80 <__bss_end__+0xeb8f40>
     294:	0b381349 	bleq	e04fc0 <__bss_end__+0xdfaf80>
     298:	0f0c0000 	svceq	0x000c0000
     29c:	000b0b00 	andeq	r0, fp, r0, lsl #22
     2a0:	000f0d00 	andeq	r0, pc, r0, lsl #26
     2a4:	13490b0b 	movtne	r0, #39691	; 0x9b0b
     2a8:	260e0000 	strcs	r0, [lr], -r0
     2ac:	00134900 	andseq	r4, r3, r0, lsl #18
     2b0:	01130f00 	tsteq	r3, r0, lsl #30
     2b4:	0b0b0e03 	bleq	2c3ac8 <__bss_end__+0x2b9a88>
     2b8:	0b3b0b3a 	bleq	ec2fa8 <__bss_end__+0xeb8f68>
     2bc:	00001301 	andeq	r1, r0, r1, lsl #6
     2c0:	03000d10 	movweq	r0, #3344	; 0xd10
     2c4:	3b0b3a08 	blcc	2ceaec <__bss_end__+0x2c4aac>
     2c8:	3813490b 	ldmdacc	r3, {r0, r1, r3, r8, fp, lr}
     2cc:	1100000b 	tstne	r0, fp
     2d0:	0e030113 	mcreq	1, 0, r0, cr3, cr3, {0}
     2d4:	0b3a050b 	bleq	e81708 <__bss_end__+0xe776c8>
     2d8:	13010b3b 	movwne	r0, #6971	; 0x1b3b
     2dc:	0d120000 	ldceq	0, cr0, [r2, #-0]
     2e0:	3a0e0300 	bcc	380ee8 <__bss_end__+0x376ea8>
     2e4:	490b3b0b 	stmdbmi	fp, {r0, r1, r3, r8, r9, fp, ip, sp}
     2e8:	00053813 	andeq	r3, r5, r3, lsl r8
     2ec:	00151300 	andseq	r1, r5, r0, lsl #6
     2f0:	00001927 	andeq	r1, r0, r7, lsr #18
     2f4:	27011514 	smladcs	r1, r4, r5, r1
     2f8:	01134919 	tsteq	r3, r9, lsl r9
     2fc:	15000013 	strne	r0, [r0, #-19]	; 0xffffffed
     300:	13490005 	movtne	r0, #36869	; 0x9005
     304:	13160000 	tstne	r6, #0
     308:	0b0e0301 	bleq	380f14 <__bss_end__+0x376ed4>
     30c:	3b0b3a05 	blcc	2ceb28 <__bss_end__+0x2c4ae8>
     310:	00130105 	andseq	r0, r3, r5, lsl #2
     314:	000d1700 	andeq	r1, sp, r0, lsl #14
     318:	0b3a0e03 	bleq	e83b2c <__bss_end__+0xe79aec>
     31c:	1349053b 	movtne	r0, #38203	; 0x953b
     320:	00000b38 	andeq	r0, r0, r8, lsr fp
     324:	03000d18 	movweq	r0, #3352	; 0xd18
     328:	3b0b3a0e 	blcc	2ceb68 <__bss_end__+0x2c4b28>
     32c:	38134905 	ldmdacc	r3, {r0, r2, r8, fp, lr}
     330:	19000005 	stmdbne	r0, {r0, r2}
     334:	0e030113 	mcreq	1, 0, r0, cr3, cr3, {0}
     338:	0b3a0b0b 	bleq	e82f6c <__bss_end__+0xe78f2c>
     33c:	1301053b 	movwne	r0, #5435	; 0x153b
     340:	131a0000 	tstne	sl, #0
     344:	3a0b0b01 	bcc	2c2f50 <__bss_end__+0x2b8f10>
     348:	01053b0b 	tsteq	r5, fp, lsl #22
     34c:	1b000013 	blne	3a0 <_start-0x7c60>
     350:	0b0b0117 	bleq	2c07b4 <__bss_end__+0x2b6774>
     354:	053b0b3a 	ldreq	r0, [fp, #-2874]!	; 0xfffff4c6
     358:	00001301 	andeq	r1, r0, r1, lsl #6
     35c:	03000d1c 	movweq	r0, #3356	; 0xd1c
     360:	3b0b3a0e 	blcc	2ceba0 <__bss_end__+0x2c4b60>
     364:	00134905 	andseq	r4, r3, r5, lsl #18
     368:	01151d00 	tsteq	r5, r0, lsl #26
     36c:	13011927 	movwne	r1, #6439	; 0x1927
     370:	341e0000 	ldrcc	r0, [lr], #-0
     374:	3a0e0300 	bcc	380f7c <__bss_end__+0x376f3c>
     378:	49053b0b 	stmdbmi	r5, {r0, r1, r3, r8, r9, fp, ip, sp}
     37c:	3c193f13 	ldccc	15, cr3, [r9], {19}
     380:	1f000019 	svcne	0x00000019
     384:	0e030034 	mcreq	0, 0, r0, cr3, cr4, {1}
     388:	0b3b0b3a 	bleq	ec3078 <__bss_end__+0xeb9038>
     38c:	193f1349 	ldmdbne	pc!, {r0, r3, r6, r8, r9, ip}	; <UNPREDICTABLE>
     390:	0000193c 	andeq	r1, r0, ip, lsr r9
     394:	0b010420 	bleq	4141c <__bss_end__+0x373dc>
     398:	3a13490b 	bcc	4d27cc <__bss_end__+0x4c878c>
     39c:	010b3b0b 	tsteq	fp, fp, lsl #22
     3a0:	21000013 	tstcs	r0, r3, lsl r0
     3a4:	0e030028 	cdpeq	0, 0, cr0, cr3, cr8, {1}
     3a8:	00000b1c 	andeq	r0, r0, ip, lsl fp
     3ac:	03002822 	movweq	r2, #2082	; 0x822
     3b0:	00051c0e 	andeq	r1, r5, lr, lsl #24
     3b4:	00342300 	eorseq	r2, r4, r0, lsl #6
     3b8:	0b3a0e03 	bleq	e83bcc <__bss_end__+0xe79b8c>
     3bc:	13490b3b 	movtne	r0, #39739	; 0x9b3b
     3c0:	00001802 	andeq	r1, r0, r2, lsl #16
     3c4:	3f012e24 	svccc	0x00012e24
     3c8:	3a0e0319 	bcc	381034 <__bss_end__+0x376ff4>
     3cc:	270b3b0b 	strcs	r3, [fp, -fp, lsl #22]
     3d0:	11134919 	tstne	r3, r9, lsl r9
     3d4:	40061201 	andmi	r1, r6, r1, lsl #4
     3d8:	19429718 	stmdbne	r2, {r3, r4, r8, r9, sl, ip, pc}^
     3dc:	00001301 	andeq	r1, r0, r1, lsl #6
     3e0:	03003425 	movweq	r3, #1061	; 0x425
     3e4:	3b0b3a0e 	blcc	2cec24 <__bss_end__+0x2c4be4>
     3e8:	0213490b 	andseq	r4, r3, #180224	; 0x2c000
     3ec:	26000017 			; <UNDEFINED> instruction: 0x26000017
     3f0:	1755010b 	ldrbne	r0, [r5, -fp, lsl #2]
     3f4:	00001301 	andeq	r1, r0, r1, lsl #6
     3f8:	01828927 	orreq	r8, r2, r7, lsr #18
     3fc:	31011101 	tstcc	r1, r1, lsl #2
     400:	00130113 	andseq	r0, r3, r3, lsl r1
     404:	828a2800 	addhi	r2, sl, #0, 16
     408:	18020001 	stmdane	r2, {r0}
     40c:	00184291 	mulseq	r8, r1, r2
     410:	82892900 	addhi	r2, r9, #0, 18
     414:	01110101 	tsteq	r1, r1, lsl #2
     418:	00001331 	andeq	r1, r0, r1, lsr r3
     41c:	0300052a 	movweq	r0, #1322	; 0x52a
     420:	3b0b3a0e 	blcc	2cec60 <__bss_end__+0x2c4c20>
     424:	0213490b 	andseq	r4, r3, #180224	; 0x2c000
     428:	2b000017 	blcs	48c <_start-0x7b74>
     42c:	08030034 	stmdaeq	r3, {r2, r4, r5}
     430:	0b3b0b3a 	bleq	ec3120 <__bss_end__+0xeb90e0>
     434:	17021349 	strne	r1, [r2, -r9, asr #6]
     438:	342c0000 	strtcc	r0, [ip], #-0
     43c:	490e0300 	stmdbmi	lr, {r8, r9}
     440:	02193413 	andseq	r3, r9, #318767104	; 0x13000000
     444:	2d000018 	stccs	0, cr0, [r0, #-96]	; 0xffffffa0
     448:	00018289 	andeq	r8, r1, r9, lsl #5
     44c:	13310111 	teqne	r1, #1073741828	; 0x40000004
     450:	2e2e0000 	cdpcs	0, 2, cr0, cr14, cr0, {0}
     454:	03193f01 	tsteq	r9, #1, 30
     458:	3b0b3a0e 	blcc	2cec98 <__bss_end__+0x2c4c58>
     45c:	1119270b 	tstne	r9, fp, lsl #14
     460:	40061201 	andmi	r1, r6, r1, lsl #4
     464:	19429718 	stmdbne	r2, {r3, r4, r8, r9, sl, ip, pc}^
     468:	00001301 	andeq	r1, r0, r1, lsl #6
     46c:	03012e2f 	movweq	r2, #7727	; 0x1e2f
     470:	3b0b3a0e 	blcc	2cecb0 <__bss_end__+0x2c4c70>
     474:	4919270b 	ldmdbmi	r9, {r0, r1, r3, r8, r9, sl, sp}
     478:	12011113 	andne	r1, r1, #-1073741820	; 0xc0000004
     47c:	97184006 	ldrls	r4, [r8, -r6]
     480:	13011942 	movwne	r1, #6466	; 0x1942
     484:	05300000 	ldreq	r0, [r0, #-0]!
     488:	3a080300 	bcc	201090 <__bss_end__+0x1f7050>
     48c:	490b3b0b 	stmdbmi	fp, {r0, r1, r3, r8, r9, fp, ip, sp}
     490:	00170213 	andseq	r0, r7, r3, lsl r2
     494:	012e3100 			; <UNDEFINED> instruction: 0x012e3100
     498:	0b3a0e03 	bleq	e83cac <__bss_end__+0xe79c6c>
     49c:	19270b3b 	stmdbne	r7!, {r0, r1, r3, r4, r5, r8, r9, fp}
     4a0:	06120111 			; <UNDEFINED> instruction: 0x06120111
     4a4:	42971840 	addsmi	r1, r7, #64, 16	; 0x400000
     4a8:	00130119 	andseq	r0, r3, r9, lsl r1
     4ac:	010b3200 	mrseq	r3, R11_fiq
     4b0:	06120111 			; <UNDEFINED> instruction: 0x06120111
     4b4:	1d330000 	ldcne	0, cr0, [r3, #-0]
     4b8:	52133101 	andspl	r3, r3, #1073741824	; 0x40000000
     4bc:	58175501 	ldmdapl	r7, {r0, r8, sl, ip, lr}
     4c0:	010b590b 	tsteq	fp, fp, lsl #18
     4c4:	34000013 	strcc	r0, [r0], #-19	; 0xffffffed
     4c8:	13310005 	teqne	r1, #5
     4cc:	00001702 	andeq	r1, r0, r2, lsl #14
     4d0:	55010b35 	strpl	r0, [r1, #-2869]	; 0xfffff4cb
     4d4:	36000017 			; <UNDEFINED> instruction: 0x36000017
     4d8:	13310034 	teqne	r1, #52	; 0x34
     4dc:	00001702 	andeq	r1, r0, r2, lsl #14
     4e0:	03003437 	movweq	r3, #1079	; 0x437
     4e4:	3b0b3a08 	blcc	2ced0c <__bss_end__+0x2c4ccc>
     4e8:	0213490b 	andseq	r4, r3, #180224	; 0x2c000
     4ec:	38000018 	stmdacc	r0, {r3, r4}
     4f0:	0e03012e 	adfeqsp	f0, f3, #0.5
     4f4:	0b3b0b3a 	bleq	ec31e4 <__bss_end__+0xeb91a4>
     4f8:	0b201927 	bleq	80699c <__bss_end__+0x7fc95c>
     4fc:	00001301 	andeq	r1, r0, r1, lsl #6
     500:	03000539 	movweq	r0, #1337	; 0x539
     504:	3b0b3a08 	blcc	2ced2c <__bss_end__+0x2c4cec>
     508:	0013490b 	andseq	r4, r3, fp, lsl #18
     50c:	00343a00 	eorseq	r3, r4, r0, lsl #20
     510:	0b3a0803 	bleq	e82524 <__bss_end__+0xe784e4>
     514:	13490b3b 	movtne	r0, #39739	; 0x9b3b
     518:	2e3b0000 	cdpcs	0, 3, cr0, cr11, cr0, {0}
     51c:	3c193f00 	ldccc	15, cr3, [r9], {-0}
     520:	030e6e19 	movweq	r6, #60953	; 0xee19
     524:	3b0b3a0e 	blcc	2ced64 <__bss_end__+0x2c4d24>
     528:	0000000b 	andeq	r0, r0, fp
     52c:	25011101 	strcs	r1, [r1, #-257]	; 0xfffffeff
     530:	030b130e 	movweq	r1, #45838	; 0xb30e
     534:	110e1b0e 	tstne	lr, lr, lsl #22
     538:	10061201 	andne	r1, r6, r1, lsl #4
     53c:	02000017 	andeq	r0, r0, #23
     540:	0e030016 	mcreq	0, 0, r0, cr3, cr6, {0}
     544:	0b3b0b3a 	bleq	ec3234 <__bss_end__+0xeb91f4>
     548:	00001349 	andeq	r1, r0, r9, asr #6
     54c:	03011303 	movweq	r1, #4867	; 0x1303
     550:	3a0b0b0e 	bcc	2c3190 <__bss_end__+0x2b9150>
     554:	010b3b0b 	tsteq	fp, fp, lsl #22
     558:	04000013 	streq	r0, [r0], #-19	; 0xffffffed
     55c:	0e03000d 	cdpeq	0, 0, cr0, cr3, cr13, {0}
     560:	0b381349 	bleq	e0528c <__bss_end__+0xdfb24c>
     564:	00001934 	andeq	r1, r0, r4, lsr r9
     568:	0b000f05 	bleq	4184 <_start-0x3e7c>
     56c:	0600000b 	streq	r0, [r0], -fp
     570:	0b0b0024 	bleq	2c0608 <__bss_end__+0x2b65c8>
     574:	08030b3e 	stmdaeq	r3, {r1, r2, r3, r4, r5, r8, r9, fp}
     578:	24070000 	strcs	r0, [r7], #-0
     57c:	3e0b0b00 	vmlacc.f64	d0, d11, d0
     580:	000e030b 	andeq	r0, lr, fp, lsl #6
     584:	00160800 	andseq	r0, r6, r0, lsl #16
     588:	0b3a0e03 	bleq	e83d9c <__bss_end__+0xe79d5c>
     58c:	1349053b 	movtne	r0, #38203	; 0x953b
     590:	17090000 	strne	r0, [r9, -r0]
     594:	3a0b0b01 	bcc	2c31a0 <__bss_end__+0x2b9160>
     598:	010b3b0b 	tsteq	fp, fp, lsl #22
     59c:	0a000013 	beq	5f0 <_start-0x7a10>
     5a0:	0e03000d 	cdpeq	0, 0, cr0, cr3, cr13, {0}
     5a4:	0b3b0b3a 	bleq	ec3294 <__bss_end__+0xeb9254>
     5a8:	00001349 	andeq	r1, r0, r9, asr #6
     5ac:	4901010b 	stmdbmi	r1, {r0, r1, r3, r8}
     5b0:	00130113 	andseq	r0, r3, r3, lsl r1
     5b4:	00210c00 	eoreq	r0, r1, r0, lsl #24
     5b8:	0b2f1349 	bleq	bc52e4 <__bss_end__+0xbbb2a4>
     5bc:	130d0000 	movwne	r0, #53248	; 0xd000
     5c0:	3a0b0b01 	bcc	2c31cc <__bss_end__+0x2b918c>
     5c4:	010b3b0b 	tsteq	fp, fp, lsl #22
     5c8:	0e000013 	mcreq	0, 0, r0, cr0, cr3, {0}
     5cc:	0e03000d 	cdpeq	0, 0, cr0, cr3, cr13, {0}
     5d0:	0b3b0b3a 	bleq	ec32c0 <__bss_end__+0xeb9280>
     5d4:	0b381349 	bleq	e05300 <__bss_end__+0xdfb2c0>
     5d8:	0f0f0000 	svceq	0x000f0000
     5dc:	490b0b00 	stmdbmi	fp, {r8, r9, fp}
     5e0:	10000013 	andne	r0, r0, r3, lsl r0
     5e4:	13490026 	movtne	r0, #36902	; 0x9026
     5e8:	0d110000 	ldceq	0, cr0, [r1, #-0]
     5ec:	3a080300 	bcc	2011f4 <__bss_end__+0x1f71b4>
     5f0:	490b3b0b 	stmdbmi	fp, {r0, r1, r3, r8, r9, fp, ip, sp}
     5f4:	000b3813 	andeq	r3, fp, r3, lsl r8
     5f8:	01131200 	tsteq	r3, r0, lsl #4
     5fc:	050b0e03 	streq	r0, [fp, #-3587]	; 0xfffff1fd
     600:	0b3b0b3a 	bleq	ec32f0 <__bss_end__+0xeb92b0>
     604:	00001301 	andeq	r1, r0, r1, lsl #6
     608:	03000d13 	movweq	r0, #3347	; 0xd13
     60c:	3b0b3a0e 	blcc	2cee4c <__bss_end__+0x2c4e0c>
     610:	3813490b 	ldmdacc	r3, {r0, r1, r3, r8, fp, lr}
     614:	14000005 	strne	r0, [r0], #-5
     618:	19270015 	stmdbne	r7!, {r0, r2, r4}
     61c:	15150000 	ldrne	r0, [r5, #-0]
     620:	49192701 	ldmdbmi	r9, {r0, r8, r9, sl, sp}
     624:	00130113 	andseq	r0, r3, r3, lsl r1
     628:	00051600 	andeq	r1, r5, r0, lsl #12
     62c:	00001349 	andeq	r1, r0, r9, asr #6
     630:	03011317 	movweq	r1, #4887	; 0x1317
     634:	3a050b0e 	bcc	143274 <__bss_end__+0x139234>
     638:	01053b0b 	tsteq	r5, fp, lsl #22
     63c:	18000013 	stmdane	r0, {r0, r1, r4}
     640:	0e03000d 	cdpeq	0, 0, cr0, cr3, cr13, {0}
     644:	053b0b3a 	ldreq	r0, [fp, #-2874]!	; 0xfffff4c6
     648:	0b381349 	bleq	e05374 <__bss_end__+0xdfb334>
     64c:	0d190000 	ldceq	0, cr0, [r9, #-0]
     650:	3a0e0300 	bcc	381258 <__bss_end__+0x377218>
     654:	49053b0b 	stmdbmi	r5, {r0, r1, r3, r8, r9, fp, ip, sp}
     658:	00053813 	andeq	r3, r5, r3, lsl r8
     65c:	01131a00 	tsteq	r3, r0, lsl #20
     660:	0b0b0e03 	bleq	2c3e74 <__bss_end__+0x2b9e34>
     664:	053b0b3a 	ldreq	r0, [fp, #-2874]!	; 0xfffff4c6
     668:	00001301 	andeq	r1, r0, r1, lsl #6
     66c:	0b01131b 	bleq	452e0 <__bss_end__+0x3b2a0>
     670:	3b0b3a0b 	blcc	2ceea4 <__bss_end__+0x2c4e64>
     674:	00130105 	andseq	r0, r3, r5, lsl #2
     678:	01171c00 	tsteq	r7, r0, lsl #24
     67c:	0b3a0b0b 	bleq	e832b0 <__bss_end__+0xe79270>
     680:	1301053b 	movwne	r0, #5435	; 0x153b
     684:	0d1d0000 	ldceq	0, cr0, [sp, #-0]
     688:	3a0e0300 	bcc	381290 <__bss_end__+0x377250>
     68c:	49053b0b 	stmdbmi	r5, {r0, r1, r3, r8, r9, fp, ip, sp}
     690:	1e000013 	mcrne	0, 0, r0, cr0, cr3, {0}
     694:	19270115 	stmdbne	r7!, {r0, r2, r4, r8}
     698:	00001301 	andeq	r1, r0, r1, lsl #6
     69c:	0300341f 	movweq	r3, #1055	; 0x41f
     6a0:	3b0b3a0e 	blcc	2ceee0 <__bss_end__+0x2c4ea0>
     6a4:	3f134905 	svccc	0x00134905
     6a8:	00193c19 	andseq	r3, r9, r9, lsl ip
     6ac:	00342000 	eorseq	r2, r4, r0
     6b0:	0b3a0e03 	bleq	e83ec4 <__bss_end__+0xe79e84>
     6b4:	13490b3b 	movtne	r0, #39739	; 0x9b3b
     6b8:	193c193f 	ldmdbne	ip!, {r0, r1, r2, r3, r4, r5, r8, fp, ip}
     6bc:	2e210000 	cdpcs	0, 2, cr0, cr1, cr0, {0}
     6c0:	03193f01 	tsteq	r9, #1, 30
     6c4:	3b0b3a0e 	blcc	2cef04 <__bss_end__+0x2c4ec4>
     6c8:	4919270b 	ldmdbmi	r9, {r0, r1, r3, r8, r9, sl, sp}
     6cc:	12011113 	andne	r1, r1, #-1073741820	; 0xc0000004
     6d0:	97184006 	ldrls	r4, [r8, -r6]
     6d4:	13011942 	movwne	r1, #6466	; 0x1942
     6d8:	05220000 	streq	r0, [r2, #-0]!
     6dc:	3a080300 	bcc	2012e4 <__bss_end__+0x1f72a4>
     6e0:	490b3b0b 	stmdbmi	fp, {r0, r1, r3, r8, r9, fp, ip, sp}
     6e4:	00180213 	andseq	r0, r8, r3, lsl r2
     6e8:	00182300 	andseq	r2, r8, r0, lsl #6
     6ec:	34240000 	strtcc	r0, [r4], #-0
     6f0:	3a080300 	bcc	2012f8 <__bss_end__+0x1f72b8>
     6f4:	490b3b0b 	stmdbmi	fp, {r0, r1, r3, r8, r9, fp, ip, sp}
     6f8:	00180213 	andseq	r0, r8, r3, lsl r2
     6fc:	00342500 	eorseq	r2, r4, r0, lsl #10
     700:	0b3a0e03 	bleq	e83f14 <__bss_end__+0xe79ed4>
     704:	13490b3b 	movtne	r0, #39739	; 0x9b3b
     708:	00001802 	andeq	r1, r0, r2, lsl #16
     70c:	03003426 	movweq	r3, #1062	; 0x426
     710:	3b0b3a08 	blcc	2cef38 <__bss_end__+0x2c4ef8>
     714:	0213490b 	andseq	r4, r3, #180224	; 0x2c000
     718:	27000017 	smladcs	r0, r7, r0, r0
     71c:	01018289 	smlabbeq	r1, r9, r2, r8
     720:	13310111 	teqne	r1, #1073741828	; 0x40000004
     724:	00001301 	andeq	r1, r0, r1, lsl #6
     728:	01828a28 	orreq	r8, r2, r8, lsr #20
     72c:	91180200 	tstls	r8, r0, lsl #4
     730:	00001842 	andeq	r1, r0, r2, asr #16
     734:	01828929 	orreq	r8, r2, r9, lsr #18
     738:	00011101 	andeq	r1, r1, r1, lsl #2
     73c:	00212a00 	eoreq	r2, r1, r0, lsl #20
     740:	052f1349 	streq	r1, [pc, #-841]!	; 3ff <_start-0x7c01>
     744:	2e2b0000 	cdpcs	0, 2, cr0, cr11, cr0, {0}
     748:	3c193f00 	ldccc	15, cr3, [r9], {-0}
     74c:	030e6e19 	movweq	r6, #60953	; 0xee19
     750:	3b0b3a0e 	blcc	2cef90 <__bss_end__+0x2c4f50>
     754:	0000000b 	andeq	r0, r0, fp
     758:	25011101 	strcs	r1, [r1, #-257]	; 0xfffffeff
     75c:	030b130e 	movweq	r1, #45838	; 0xb30e
     760:	110e1b0e 	tstne	lr, lr, lsl #22
     764:	10061201 	andne	r1, r6, r1, lsl #4
     768:	02000017 	andeq	r0, r0, #23
     76c:	0b0b0024 	bleq	2c0804 <__bss_end__+0x2b67c4>
     770:	08030b3e 	stmdaeq	r3, {r1, r2, r3, r4, r5, r8, r9, fp}
     774:	24030000 	strcs	r0, [r3], #-0
     778:	3e0b0b00 	vmlacc.f64	d0, d11, d0
     77c:	000e030b 	andeq	r0, lr, fp, lsl #6
     780:	00160400 	andseq	r0, r6, r0, lsl #8
     784:	0b3a0e03 	bleq	e83f98 <__bss_end__+0xe79f58>
     788:	13490b3b 	movtne	r0, #39739	; 0x9b3b
     78c:	16050000 	strne	r0, [r5], -r0
     790:	3a0e0300 	bcc	381398 <__bss_end__+0x377358>
     794:	49053b0b 	stmdbmi	r5, {r0, r1, r3, r8, r9, fp, ip, sp}
     798:	06000013 			; <UNDEFINED> instruction: 0x06000013
     79c:	0b0b0117 	bleq	2c0c00 <__bss_end__+0x2b6bc0>
     7a0:	0b3b0b3a 	bleq	ec3490 <__bss_end__+0xeb9450>
     7a4:	00001301 	andeq	r1, r0, r1, lsl #6
     7a8:	03000d07 	movweq	r0, #3335	; 0xd07
     7ac:	3b0b3a0e 	blcc	2cefec <__bss_end__+0x2c4fac>
     7b0:	0013490b 	andseq	r4, r3, fp, lsl #18
     7b4:	01010800 	tsteq	r1, r0, lsl #16
     7b8:	13011349 	movwne	r1, #4937	; 0x1349
     7bc:	21090000 	mrscs	r0, (UNDEF: 9)
     7c0:	2f134900 	svccs	0x00134900
     7c4:	0a00000b 	beq	7f8 <_start-0x7808>
     7c8:	0b0b0113 	bleq	2c0c1c <__bss_end__+0x2b6bdc>
     7cc:	0b3b0b3a 	bleq	ec34bc <__bss_end__+0xeb947c>
     7d0:	00001301 	andeq	r1, r0, r1, lsl #6
     7d4:	03000d0b 	movweq	r0, #3339	; 0xd0b
     7d8:	3b0b3a0e 	blcc	2cf018 <__bss_end__+0x2c4fd8>
     7dc:	3813490b 	ldmdacc	r3, {r0, r1, r3, r8, fp, lr}
     7e0:	0c00000b 	stceq	0, cr0, [r0], {11}
     7e4:	0b0b000f 	bleq	2c0828 <__bss_end__+0x2b67e8>
     7e8:	0f0d0000 	svceq	0x000d0000
     7ec:	490b0b00 	stmdbmi	fp, {r8, r9, fp}
     7f0:	0e000013 	mcreq	0, 0, r0, cr0, cr3, {0}
     7f4:	13490026 	movtne	r0, #36902	; 0x9026
     7f8:	130f0000 	movwne	r0, #61440	; 0xf000
     7fc:	0b0e0301 	bleq	381408 <__bss_end__+0x3773c8>
     800:	3b0b3a0b 	blcc	2cf034 <__bss_end__+0x2c4ff4>
     804:	0013010b 	andseq	r0, r3, fp, lsl #2
     808:	000d1000 	andeq	r1, sp, r0
     80c:	0b3a0803 	bleq	e82820 <__bss_end__+0xe787e0>
     810:	13490b3b 	movtne	r0, #39739	; 0x9b3b
     814:	00000b38 	andeq	r0, r0, r8, lsr fp
     818:	03011311 	movweq	r1, #4881	; 0x1311
     81c:	3a050b0e 	bcc	14345c <__bss_end__+0x13941c>
     820:	010b3b0b 	tsteq	fp, fp, lsl #22
     824:	12000013 	andne	r0, r0, #19
     828:	0e03000d 	cdpeq	0, 0, cr0, cr3, cr13, {0}
     82c:	0b3b0b3a 	bleq	ec351c <__bss_end__+0xeb94dc>
     830:	05381349 	ldreq	r1, [r8, #-841]!	; 0xfffffcb7
     834:	15130000 	ldrne	r0, [r3, #-0]
     838:	00192700 	andseq	r2, r9, r0, lsl #14
     83c:	01151400 	tsteq	r5, r0, lsl #8
     840:	13491927 	movtne	r1, #39207	; 0x9927
     844:	00001301 	andeq	r1, r0, r1, lsl #6
     848:	49000515 	stmdbmi	r0, {r0, r2, r4, r8, sl}
     84c:	16000013 			; <UNDEFINED> instruction: 0x16000013
     850:	0e030113 	mcreq	1, 0, r0, cr3, cr3, {0}
     854:	0b3a050b 	bleq	e81c88 <__bss_end__+0xe77c48>
     858:	1301053b 	movwne	r0, #5435	; 0x153b
     85c:	0d170000 	ldceq	0, cr0, [r7, #-0]
     860:	3a0e0300 	bcc	381468 <__bss_end__+0x377428>
     864:	49053b0b 	stmdbmi	r5, {r0, r1, r3, r8, r9, fp, ip, sp}
     868:	000b3813 	andeq	r3, fp, r3, lsl r8
     86c:	000d1800 	andeq	r1, sp, r0, lsl #16
     870:	0b3a0e03 	bleq	e84084 <__bss_end__+0xe7a044>
     874:	1349053b 	movtne	r0, #38203	; 0x953b
     878:	00000538 	andeq	r0, r0, r8, lsr r5
     87c:	03011319 	movweq	r1, #4889	; 0x1319
     880:	3a0b0b0e 	bcc	2c34c0 <__bss_end__+0x2b9480>
     884:	01053b0b 	tsteq	r5, fp, lsl #22
     888:	1a000013 	bne	8dc <_start-0x7724>
     88c:	0b0b0113 	bleq	2c0ce0 <__bss_end__+0x2b6ca0>
     890:	053b0b3a 	ldreq	r0, [fp, #-2874]!	; 0xfffff4c6
     894:	00001301 	andeq	r1, r0, r1, lsl #6
     898:	0b01171b 	bleq	4650c <__bss_end__+0x3c4cc>
     89c:	3b0b3a0b 	blcc	2cf0d0 <__bss_end__+0x2c5090>
     8a0:	00130105 	andseq	r0, r3, r5, lsl #2
     8a4:	000d1c00 	andeq	r1, sp, r0, lsl #24
     8a8:	0b3a0e03 	bleq	e840bc <__bss_end__+0xe7a07c>
     8ac:	1349053b 	movtne	r0, #38203	; 0x953b
     8b0:	151d0000 	ldrne	r0, [sp, #-0]
     8b4:	01192701 	tsteq	r9, r1, lsl #14
     8b8:	1e000013 	mcrne	0, 0, r0, cr0, cr3, {0}
     8bc:	0e030034 	mcreq	0, 0, r0, cr3, cr4, {1}
     8c0:	053b0b3a 	ldreq	r0, [fp, #-2874]!	; 0xfffff4c6
     8c4:	193f1349 	ldmdbne	pc!, {r0, r3, r6, r8, r9, ip}	; <UNPREDICTABLE>
     8c8:	0000193c 	andeq	r1, r0, ip, lsr r9
     8cc:	0300341f 	movweq	r3, #1055	; 0x41f
     8d0:	3b0b3a0e 	blcc	2cf110 <__bss_end__+0x2c50d0>
     8d4:	3f13490b 	svccc	0x0013490b
     8d8:	00193c19 	andseq	r3, r9, r9, lsl ip
     8dc:	000d2000 	andeq	r2, sp, r0
     8e0:	13490e03 	movtne	r0, #40451	; 0x9e03
     8e4:	19340b38 	ldmdbne	r4!, {r3, r4, r5, r8, r9, fp}
     8e8:	2e210000 	cdpcs	0, 2, cr0, cr1, cr0, {0}
     8ec:	03193f01 	tsteq	r9, #1, 30
     8f0:	3b0b3a0e 	blcc	2cf130 <__bss_end__+0x2c50f0>
     8f4:	4919270b 	ldmdbmi	r9, {r0, r1, r3, r8, r9, sl, sp}
     8f8:	12011113 	andne	r1, r1, #-1073741820	; 0xc0000004
     8fc:	97184006 	ldrls	r4, [r8, -r6]
     900:	13011942 	movwne	r1, #6466	; 0x1942
     904:	05220000 	streq	r0, [r2, #-0]!
     908:	3a080300 	bcc	201510 <__bss_end__+0x1f74d0>
     90c:	490b3b0b 	stmdbmi	fp, {r0, r1, r3, r8, r9, fp, ip, sp}
     910:	00170213 	andseq	r0, r7, r3, lsl r2
     914:	00052300 	andeq	r2, r5, r0, lsl #6
     918:	0b3a0e03 	bleq	e8412c <__bss_end__+0xe7a0ec>
     91c:	13490b3b 	movtne	r0, #39739	; 0x9b3b
     920:	00001802 	andeq	r1, r0, r2, lsl #16
     924:	03003424 	movweq	r3, #1060	; 0x424
     928:	3b0b3a08 	blcc	2cf150 <__bss_end__+0x2c5110>
     92c:	0213490b 	andseq	r4, r3, #180224	; 0x2c000
     930:	25000017 	strcs	r0, [r0, #-23]	; 0xffffffe9
     934:	0e030034 	mcreq	0, 0, r0, cr3, cr4, {1}
     938:	19341349 	ldmdbne	r4!, {r0, r3, r6, r8, r9, ip}
     93c:	00001802 	andeq	r1, r0, r2, lsl #16
     940:	55010b26 	strpl	r0, [r1, #-2854]	; 0xfffff4da
     944:	27000017 	smladcs	r0, r7, r0, r0
     948:	08030034 	stmdaeq	r3, {r2, r4, r5}
     94c:	0b3b0b3a 	bleq	ec363c <__bss_end__+0xeb95fc>
     950:	18021349 	stmdane	r2, {r0, r3, r6, r8, r9, ip}
     954:	34280000 	strtcc	r0, [r8], #-0
     958:	3a0e0300 	bcc	381560 <__bss_end__+0x377520>
     95c:	490b3b0b 	stmdbmi	fp, {r0, r1, r3, r8, r9, fp, ip, sp}
     960:	00170213 	andseq	r0, r7, r3, lsl r2
     964:	82892900 	addhi	r2, r9, #0, 18
     968:	01110101 	tsteq	r1, r1, lsl #2
     96c:	13011331 	movwne	r1, #4913	; 0x1331
     970:	8a2a0000 	bhi	a80978 <__bss_end__+0xa76938>
     974:	02000182 	andeq	r0, r0, #-2147483616	; 0x80000020
     978:	18429118 	stmdane	r2, {r3, r4, r8, ip, pc}^
     97c:	892b0000 	stmdbhi	fp!, {}	; <UNPREDICTABLE>
     980:	11000182 	smlabbne	r0, r2, r1, r0
     984:	00133101 	andseq	r3, r3, r1, lsl #2
     988:	012e2c00 			; <UNDEFINED> instruction: 0x012e2c00
     98c:	0b3a0e03 	bleq	e841a0 <__bss_end__+0xe7a160>
     990:	19270b3b 	stmdbne	r7!, {r0, r1, r3, r4, r5, r8, r9, fp}
     994:	01111349 	tsteq	r1, r9, asr #6
     998:	18400612 	stmdane	r0, {r1, r4, r9, sl}^
     99c:	01194297 			; <UNDEFINED> instruction: 0x01194297
     9a0:	2d000013 	stccs	0, cr0, [r0, #-76]	; 0xffffffb4
     9a4:	0e030005 	cdpeq	0, 0, cr0, cr3, cr5, {0}
     9a8:	0b3b0b3a 	bleq	ec3698 <__bss_end__+0xeb9658>
     9ac:	17021349 	strne	r1, [r2, -r9, asr #6]
     9b0:	0b2e0000 	bleq	b809b8 <__bss_end__+0xb76978>
     9b4:	12011101 	andne	r1, r1, #1073741824	; 0x40000000
     9b8:	00130106 	andseq	r0, r3, r6, lsl #2
     9bc:	012e2f00 			; <UNDEFINED> instruction: 0x012e2f00
     9c0:	0b3a0803 	bleq	e829d4 <__bss_end__+0xe78994>
     9c4:	19270b3b 	stmdbne	r7!, {r0, r1, r3, r4, r5, r8, r9, fp}
     9c8:	01111349 	tsteq	r1, r9, asr #6
     9cc:	18400612 	stmdane	r0, {r1, r4, r9, sl}^
     9d0:	01194297 			; <UNDEFINED> instruction: 0x01194297
     9d4:	30000013 	andcc	r0, r0, r3, lsl r0
     9d8:	193f012e 	ldmdbne	pc!, {r1, r2, r3, r5, r8}	; <UNPREDICTABLE>
     9dc:	0b3a0e03 	bleq	e841f0 <__bss_end__+0xe7a1b0>
     9e0:	19270b3b 	stmdbne	r7!, {r0, r1, r3, r4, r5, r8, r9, fp}
     9e4:	06120111 			; <UNDEFINED> instruction: 0x06120111
     9e8:	42971840 	addsmi	r1, r7, #64, 16	; 0x400000
     9ec:	00130119 	andseq	r0, r3, r9, lsl r1
     9f0:	002e3100 	eoreq	r3, lr, r0, lsl #2
     9f4:	193c193f 	ldmdbne	ip!, {r0, r1, r2, r3, r4, r5, r8, fp, ip}
     9f8:	0e030e6e 	cdpeq	14, 0, cr0, cr3, cr14, {3}
     9fc:	0b3b0b3a 	bleq	ec36ec <__bss_end__+0xeb96ac>
     a00:	01000000 	mrseq	r0, (UNDEF: 0)
     a04:	0e250111 	mcreq	1, 1, r0, cr5, cr1, {0}
     a08:	0e030b13 	vmoveq.32	d3[0], r0
     a0c:	01110e1b 	tsteq	r1, fp, lsl lr
     a10:	17100612 			; <UNDEFINED> instruction: 0x17100612
     a14:	24020000 	strcs	r0, [r2], #-0
     a18:	3e0b0b00 	vmlacc.f64	d0, d11, d0
     a1c:	0008030b 	andeq	r0, r8, fp, lsl #6
     a20:	00240300 	eoreq	r0, r4, r0, lsl #6
     a24:	0b3e0b0b 	bleq	f83658 <__bss_end__+0xf79618>
     a28:	00000e03 	andeq	r0, r0, r3, lsl #28
     a2c:	03001604 	movweq	r1, #1540	; 0x604
     a30:	3b0b3a0e 	blcc	2cf270 <__bss_end__+0x2c5230>
     a34:	0013490b 	andseq	r4, r3, fp, lsl #18
     a38:	00160500 	andseq	r0, r6, r0, lsl #10
     a3c:	0b3a0e03 	bleq	e84250 <__bss_end__+0xe7a210>
     a40:	1349053b 	movtne	r0, #38203	; 0x953b
     a44:	17060000 	strne	r0, [r6, -r0]
     a48:	3a0b0b01 	bcc	2c3654 <__bss_end__+0x2b9614>
     a4c:	010b3b0b 	tsteq	fp, fp, lsl #22
     a50:	07000013 	smladeq	r0, r3, r0, r0
     a54:	0e03000d 	cdpeq	0, 0, cr0, cr3, cr13, {0}
     a58:	0b3b0b3a 	bleq	ec3748 <__bss_end__+0xeb9708>
     a5c:	00001349 	andeq	r1, r0, r9, asr #6
     a60:	49010108 	stmdbmi	r1, {r3, r8}
     a64:	00130113 	andseq	r0, r3, r3, lsl r1
     a68:	00210900 	eoreq	r0, r1, r0, lsl #18
     a6c:	0b2f1349 	bleq	bc5798 <__bss_end__+0xbbb758>
     a70:	130a0000 	movwne	r0, #40960	; 0xa000
     a74:	3a0b0b01 	bcc	2c3680 <__bss_end__+0x2b9640>
     a78:	010b3b0b 	tsteq	fp, fp, lsl #22
     a7c:	0b000013 	bleq	ad0 <_start-0x7530>
     a80:	0e03000d 	cdpeq	0, 0, cr0, cr3, cr13, {0}
     a84:	0b3b0b3a 	bleq	ec3774 <__bss_end__+0xeb9734>
     a88:	0b381349 	bleq	e057b4 <__bss_end__+0xdfb774>
     a8c:	0f0c0000 	svceq	0x000c0000
     a90:	000b0b00 	andeq	r0, fp, r0, lsl #22
     a94:	000f0d00 	andeq	r0, pc, r0, lsl #26
     a98:	13490b0b 	movtne	r0, #39691	; 0x9b0b
     a9c:	260e0000 	strcs	r0, [lr], -r0
     aa0:	00134900 	andseq	r4, r3, r0, lsl #18
     aa4:	01130f00 	tsteq	r3, r0, lsl #30
     aa8:	0b0b0e03 	bleq	2c42bc <__bss_end__+0x2ba27c>
     aac:	0b3b0b3a 	bleq	ec379c <__bss_end__+0xeb975c>
     ab0:	00001301 	andeq	r1, r0, r1, lsl #6
     ab4:	03000d10 	movweq	r0, #3344	; 0xd10
     ab8:	3b0b3a08 	blcc	2cf2e0 <__bss_end__+0x2c52a0>
     abc:	3813490b 	ldmdacc	r3, {r0, r1, r3, r8, fp, lr}
     ac0:	1100000b 	tstne	r0, fp
     ac4:	0e030113 	mcreq	1, 0, r0, cr3, cr3, {0}
     ac8:	0b3a050b 	bleq	e81efc <__bss_end__+0xe77ebc>
     acc:	13010b3b 	movwne	r0, #6971	; 0x1b3b
     ad0:	0d120000 	ldceq	0, cr0, [r2, #-0]
     ad4:	3a0e0300 	bcc	3816dc <__bss_end__+0x37769c>
     ad8:	490b3b0b 	stmdbmi	fp, {r0, r1, r3, r8, r9, fp, ip, sp}
     adc:	00053813 	andeq	r3, r5, r3, lsl r8
     ae0:	00151300 	andseq	r1, r5, r0, lsl #6
     ae4:	00001927 	andeq	r1, r0, r7, lsr #18
     ae8:	27011514 	smladcs	r1, r4, r5, r1
     aec:	01134919 	tsteq	r3, r9, lsl r9
     af0:	15000013 	strne	r0, [r0, #-19]	; 0xffffffed
     af4:	13490005 	movtne	r0, #36869	; 0x9005
     af8:	13160000 	tstne	r6, #0
     afc:	0b0e0301 	bleq	381708 <__bss_end__+0x3776c8>
     b00:	3b0b3a05 	blcc	2cf31c <__bss_end__+0x2c52dc>
     b04:	00130105 	andseq	r0, r3, r5, lsl #2
     b08:	000d1700 	andeq	r1, sp, r0, lsl #14
     b0c:	0b3a0e03 	bleq	e84320 <__bss_end__+0xe7a2e0>
     b10:	1349053b 	movtne	r0, #38203	; 0x953b
     b14:	00000b38 	andeq	r0, r0, r8, lsr fp
     b18:	03000d18 	movweq	r0, #3352	; 0xd18
     b1c:	3b0b3a0e 	blcc	2cf35c <__bss_end__+0x2c531c>
     b20:	38134905 	ldmdacc	r3, {r0, r2, r8, fp, lr}
     b24:	19000005 	stmdbne	r0, {r0, r2}
     b28:	0e030113 	mcreq	1, 0, r0, cr3, cr3, {0}
     b2c:	0b3a0b0b 	bleq	e83760 <__bss_end__+0xe79720>
     b30:	1301053b 	movwne	r0, #5435	; 0x153b
     b34:	131a0000 	tstne	sl, #0
     b38:	3a0b0b01 	bcc	2c3744 <__bss_end__+0x2b9704>
     b3c:	01053b0b 	tsteq	r5, fp, lsl #22
     b40:	1b000013 	blne	b94 <_start-0x746c>
     b44:	0b0b0117 	bleq	2c0fa8 <__bss_end__+0x2b6f68>
     b48:	053b0b3a 	ldreq	r0, [fp, #-2874]!	; 0xfffff4c6
     b4c:	00001301 	andeq	r1, r0, r1, lsl #6
     b50:	03000d1c 	movweq	r0, #3356	; 0xd1c
     b54:	3b0b3a0e 	blcc	2cf394 <__bss_end__+0x2c5354>
     b58:	00134905 	andseq	r4, r3, r5, lsl #18
     b5c:	01151d00 	tsteq	r5, r0, lsl #26
     b60:	13011927 	movwne	r1, #6439	; 0x1927
     b64:	341e0000 	ldrcc	r0, [lr], #-0
     b68:	3a0e0300 	bcc	381770 <__bss_end__+0x377730>
     b6c:	49053b0b 	stmdbmi	r5, {r0, r1, r3, r8, r9, fp, ip, sp}
     b70:	3c193f13 	ldccc	15, cr3, [r9], {19}
     b74:	1f000019 	svcne	0x00000019
     b78:	0e030034 	mcreq	0, 0, r0, cr3, cr4, {1}
     b7c:	0b3b0b3a 	bleq	ec386c <__bss_end__+0xeb982c>
     b80:	193f1349 	ldmdbne	pc!, {r0, r3, r6, r8, r9, ip}	; <UNPREDICTABLE>
     b84:	0000193c 	andeq	r1, r0, ip, lsr r9
     b88:	3f012e20 	svccc	0x00012e20
     b8c:	3a0e0319 	bcc	3817f8 <__bss_end__+0x3777b8>
     b90:	270b3b0b 	strcs	r3, [fp, -fp, lsl #22]
     b94:	11134919 	tstne	r3, r9, lsl r9
     b98:	40061201 	andmi	r1, r6, r1, lsl #4
     b9c:	19429718 	stmdbne	r2, {r3, r4, r8, r9, sl, ip, pc}^
     ba0:	00001301 	andeq	r1, r0, r1, lsl #6
     ba4:	03000521 	movweq	r0, #1313	; 0x521
     ba8:	3b0b3a0e 	blcc	2cf3e8 <__bss_end__+0x2c53a8>
     bac:	0213490b 	andseq	r4, r3, #180224	; 0x2c000
     bb0:	22000017 	andcs	r0, r0, #23
     bb4:	08030005 	stmdaeq	r3, {r0, r2}
     bb8:	0b3b0b3a 	bleq	ec38a8 <__bss_end__+0xeb9868>
     bbc:	17021349 	strne	r1, [r2, -r9, asr #6]
     bc0:	34230000 	strtcc	r0, [r3], #-0
     bc4:	3a0e0300 	bcc	3817cc <__bss_end__+0x37778c>
     bc8:	490b3b0b 	stmdbmi	fp, {r0, r1, r3, r8, r9, fp, ip, sp}
     bcc:	00170213 	andseq	r0, r7, r3, lsl r2
     bd0:	00342400 	eorseq	r2, r4, r0, lsl #8
     bd4:	0b3a0803 	bleq	e82be8 <__bss_end__+0xe78ba8>
     bd8:	13490b3b 	movtne	r0, #39739	; 0x9b3b
     bdc:	00001702 	andeq	r1, r0, r2, lsl #14
     be0:	00002625 	andeq	r2, r0, r5, lsr #12
     be4:	11010000 	mrsne	r0, (UNDEF: 1)
     be8:	130e2501 	movwne	r2, #58625	; 0xe501
     bec:	1b0e030b 	blne	381820 <__bss_end__+0x3777e0>
     bf0:	1201110e 	andne	r1, r1, #-2147483645	; 0x80000003
     bf4:	00171006 	andseq	r1, r7, r6
     bf8:	00240200 	eoreq	r0, r4, r0, lsl #4
     bfc:	0b3e0b0b 	bleq	f83830 <__bss_end__+0xf797f0>
     c00:	00000803 	andeq	r0, r0, r3, lsl #16
     c04:	0b002403 	bleq	9c18 <__FUNCTION__.4253+0xe8>
     c08:	030b3e0b 	movweq	r3, #48651	; 0xbe0b
     c0c:	0400000e 	streq	r0, [r0], #-14
     c10:	0e030016 	mcreq	0, 0, r0, cr3, cr6, {0}
     c14:	0b3b0b3a 	bleq	ec3904 <__bss_end__+0xeb98c4>
     c18:	00001349 	andeq	r1, r0, r9, asr #6
     c1c:	03001605 	movweq	r1, #1541	; 0x605
     c20:	3b0b3a0e 	blcc	2cf460 <__bss_end__+0x2c5420>
     c24:	00134905 	andseq	r4, r3, r5, lsl #18
     c28:	01170600 	tsteq	r7, r0, lsl #12
     c2c:	0b3a0b0b 	bleq	e83860 <__bss_end__+0xe79820>
     c30:	13010b3b 	movwne	r0, #6971	; 0x1b3b
     c34:	0d070000 	stceq	0, cr0, [r7, #-0]
     c38:	3a0e0300 	bcc	381840 <__bss_end__+0x377800>
     c3c:	490b3b0b 	stmdbmi	fp, {r0, r1, r3, r8, r9, fp, ip, sp}
     c40:	08000013 	stmdaeq	r0, {r0, r1, r4}
     c44:	13490101 	movtne	r0, #37121	; 0x9101
     c48:	00001301 	andeq	r1, r0, r1, lsl #6
     c4c:	49002109 	stmdbmi	r0, {r0, r3, r8, sp}
     c50:	000b2f13 	andeq	r2, fp, r3, lsl pc
     c54:	01130a00 	tsteq	r3, r0, lsl #20
     c58:	0b3a0b0b 	bleq	e8388c <__bss_end__+0xe7984c>
     c5c:	13010b3b 	movwne	r0, #6971	; 0x1b3b
     c60:	0d0b0000 	stceq	0, cr0, [fp, #-0]
     c64:	3a0e0300 	bcc	38186c <__bss_end__+0x37782c>
     c68:	490b3b0b 	stmdbmi	fp, {r0, r1, r3, r8, r9, fp, ip, sp}
     c6c:	000b3813 	andeq	r3, fp, r3, lsl r8
     c70:	000f0c00 	andeq	r0, pc, r0, lsl #24
     c74:	00000b0b 	andeq	r0, r0, fp, lsl #22
     c78:	0b000f0d 	bleq	48b4 <_start-0x374c>
     c7c:	0013490b 	andseq	r4, r3, fp, lsl #18
     c80:	00260e00 	eoreq	r0, r6, r0, lsl #28
     c84:	00001349 	andeq	r1, r0, r9, asr #6
     c88:	0301130f 	movweq	r1, #4879	; 0x130f
     c8c:	3a0b0b0e 	bcc	2c38cc <__bss_end__+0x2b988c>
     c90:	010b3b0b 	tsteq	fp, fp, lsl #22
     c94:	10000013 	andne	r0, r0, r3, lsl r0
     c98:	0803000d 	stmdaeq	r3, {r0, r2, r3}
     c9c:	0b3b0b3a 	bleq	ec398c <__bss_end__+0xeb994c>
     ca0:	0b381349 	bleq	e059cc <__bss_end__+0xdfb98c>
     ca4:	13110000 	tstne	r1, #0
     ca8:	0b0e0301 	bleq	3818b4 <__bss_end__+0x377874>
     cac:	3b0b3a05 	blcc	2cf4c8 <__bss_end__+0x2c5488>
     cb0:	0013010b 	andseq	r0, r3, fp, lsl #2
     cb4:	000d1200 	andeq	r1, sp, r0, lsl #4
     cb8:	0b3a0e03 	bleq	e844cc <__bss_end__+0xe7a48c>
     cbc:	13490b3b 	movtne	r0, #39739	; 0x9b3b
     cc0:	00000538 	andeq	r0, r0, r8, lsr r5
     cc4:	27001513 	smladcs	r0, r3, r5, r1
     cc8:	14000019 	strne	r0, [r0], #-25	; 0xffffffe7
     ccc:	19270115 	stmdbne	r7!, {r0, r2, r4, r8}
     cd0:	13011349 	movwne	r1, #4937	; 0x1349
     cd4:	05150000 	ldreq	r0, [r5, #-0]
     cd8:	00134900 	andseq	r4, r3, r0, lsl #18
     cdc:	01131600 	tsteq	r3, r0, lsl #12
     ce0:	050b0e03 	streq	r0, [fp, #-3587]	; 0xfffff1fd
     ce4:	053b0b3a 	ldreq	r0, [fp, #-2874]!	; 0xfffff4c6
     ce8:	00001301 	andeq	r1, r0, r1, lsl #6
     cec:	03000d17 	movweq	r0, #3351	; 0xd17
     cf0:	3b0b3a0e 	blcc	2cf530 <__bss_end__+0x2c54f0>
     cf4:	38134905 	ldmdacc	r3, {r0, r2, r8, fp, lr}
     cf8:	1800000b 	stmdane	r0, {r0, r1, r3}
     cfc:	0e03000d 	cdpeq	0, 0, cr0, cr3, cr13, {0}
     d00:	053b0b3a 	ldreq	r0, [fp, #-2874]!	; 0xfffff4c6
     d04:	05381349 	ldreq	r1, [r8, #-841]!	; 0xfffffcb7
     d08:	13190000 	tstne	r9, #0
     d0c:	0b0e0301 	bleq	381918 <__bss_end__+0x3778d8>
     d10:	3b0b3a0b 	blcc	2cf544 <__bss_end__+0x2c5504>
     d14:	00130105 	andseq	r0, r3, r5, lsl #2
     d18:	01131a00 	tsteq	r3, r0, lsl #20
     d1c:	0b3a0b0b 	bleq	e83950 <__bss_end__+0xe79910>
     d20:	1301053b 	movwne	r0, #5435	; 0x153b
     d24:	171b0000 	ldrne	r0, [fp, -r0]
     d28:	3a0b0b01 	bcc	2c3934 <__bss_end__+0x2b98f4>
     d2c:	01053b0b 	tsteq	r5, fp, lsl #22
     d30:	1c000013 	stcne	0, cr0, [r0], {19}
     d34:	0e03000d 	cdpeq	0, 0, cr0, cr3, cr13, {0}
     d38:	053b0b3a 	ldreq	r0, [fp, #-2874]!	; 0xfffff4c6
     d3c:	00001349 	andeq	r1, r0, r9, asr #6
     d40:	2701151d 	smladcs	r1, sp, r5, r1
     d44:	00130119 	andseq	r0, r3, r9, lsl r1
     d48:	00341e00 	eorseq	r1, r4, r0, lsl #28
     d4c:	0b3a0e03 	bleq	e84560 <__bss_end__+0xe7a520>
     d50:	1349053b 	movtne	r0, #38203	; 0x953b
     d54:	193c193f 	ldmdbne	ip!, {r0, r1, r2, r3, r4, r5, r8, fp, ip}
     d58:	341f0000 	ldrcc	r0, [pc], #-0	; d60 <_start-0x72a0>
     d5c:	3a0e0300 	bcc	381964 <__bss_end__+0x377924>
     d60:	490b3b0b 	stmdbmi	fp, {r0, r1, r3, r8, r9, fp, ip, sp}
     d64:	3c193f13 	ldccc	15, cr3, [r9], {19}
     d68:	20000019 	andcs	r0, r0, r9, lsl r0
     d6c:	13470034 	movtne	r0, #28724	; 0x7034
     d70:	0b3b0b3a 	bleq	ec3a60 <__bss_end__+0xeb9a20>
     d74:	00001802 	andeq	r1, r0, r2, lsl #16
     d78:	3f012e21 	svccc	0x00012e21
     d7c:	3a0e0319 	bcc	3819e8 <__bss_end__+0x3779a8>
     d80:	270b3b0b 	strcs	r3, [fp, -fp, lsl #22]
     d84:	11134919 	tstne	r3, r9, lsl r9
     d88:	40061201 	andmi	r1, r6, r1, lsl #4
     d8c:	19429618 	stmdbne	r2, {r3, r4, r9, sl, ip, pc}^
     d90:	05220000 	streq	r0, [r2, #-0]!
     d94:	3a080300 	bcc	20199c <__bss_end__+0x1f795c>
     d98:	490b3b0b 	stmdbmi	fp, {r0, r1, r3, r8, r9, fp, ip, sp}
     d9c:	00170213 	andseq	r0, r7, r3, lsl r2
     da0:	11010000 	mrsne	r0, (UNDEF: 1)
     da4:	130e2501 	movwne	r2, #58625	; 0xe501
     da8:	1b0e030b 	blne	3819dc <__bss_end__+0x37799c>
     dac:	1201110e 	andne	r1, r1, #-2147483645	; 0x80000003
     db0:	00171006 	andseq	r1, r7, r6
     db4:	00240200 	eoreq	r0, r4, r0, lsl #4
     db8:	0b3e0b0b 	bleq	f839ec <__bss_end__+0xf799ac>
     dbc:	00000803 	andeq	r0, r0, r3, lsl #16
     dc0:	0b002403 	bleq	9dd4 <buf.4229+0x198>
     dc4:	030b3e0b 	movweq	r3, #48651	; 0xbe0b
     dc8:	0400000e 	streq	r0, [r0], #-14
     dcc:	0e030016 	mcreq	0, 0, r0, cr3, cr6, {0}
     dd0:	0b3b0b3a 	bleq	ec3ac0 <__bss_end__+0xeb9a80>
     dd4:	00001349 	andeq	r1, r0, r9, asr #6
     dd8:	03001605 	movweq	r1, #1541	; 0x605
     ddc:	3b0b3a0e 	blcc	2cf61c <__bss_end__+0x2c55dc>
     de0:	00134905 	andseq	r4, r3, r5, lsl #18
     de4:	01170600 	tsteq	r7, r0, lsl #12
     de8:	0b3a0b0b 	bleq	e83a1c <__bss_end__+0xe799dc>
     dec:	13010b3b 	movwne	r0, #6971	; 0x1b3b
     df0:	0d070000 	stceq	0, cr0, [r7, #-0]
     df4:	3a0e0300 	bcc	3819fc <__bss_end__+0x3779bc>
     df8:	490b3b0b 	stmdbmi	fp, {r0, r1, r3, r8, r9, fp, ip, sp}
     dfc:	08000013 	stmdaeq	r0, {r0, r1, r4}
     e00:	13490101 	movtne	r0, #37121	; 0x9101
     e04:	00001301 	andeq	r1, r0, r1, lsl #6
     e08:	49002109 	stmdbmi	r0, {r0, r3, r8, sp}
     e0c:	000b2f13 	andeq	r2, fp, r3, lsl pc
     e10:	01130a00 	tsteq	r3, r0, lsl #20
     e14:	0b3a0b0b 	bleq	e83a48 <__bss_end__+0xe79a08>
     e18:	13010b3b 	movwne	r0, #6971	; 0x1b3b
     e1c:	0d0b0000 	stceq	0, cr0, [fp, #-0]
     e20:	3a0e0300 	bcc	381a28 <__bss_end__+0x3779e8>
     e24:	490b3b0b 	stmdbmi	fp, {r0, r1, r3, r8, r9, fp, ip, sp}
     e28:	000b3813 	andeq	r3, fp, r3, lsl r8
     e2c:	000f0c00 	andeq	r0, pc, r0, lsl #24
     e30:	00000b0b 	andeq	r0, r0, fp, lsl #22
     e34:	0b000f0d 	bleq	4a70 <_start-0x3590>
     e38:	0013490b 	andseq	r4, r3, fp, lsl #18
     e3c:	00260e00 	eoreq	r0, r6, r0, lsl #28
     e40:	00001349 	andeq	r1, r0, r9, asr #6
     e44:	0301130f 	movweq	r1, #4879	; 0x130f
     e48:	3a0b0b0e 	bcc	2c3a88 <__bss_end__+0x2b9a48>
     e4c:	010b3b0b 	tsteq	fp, fp, lsl #22
     e50:	10000013 	andne	r0, r0, r3, lsl r0
     e54:	0803000d 	stmdaeq	r3, {r0, r2, r3}
     e58:	0b3b0b3a 	bleq	ec3b48 <__bss_end__+0xeb9b08>
     e5c:	0b381349 	bleq	e05b88 <__bss_end__+0xdfbb48>
     e60:	13110000 	tstne	r1, #0
     e64:	0b0e0301 	bleq	381a70 <__bss_end__+0x377a30>
     e68:	3b0b3a05 	blcc	2cf684 <__bss_end__+0x2c5644>
     e6c:	0013010b 	andseq	r0, r3, fp, lsl #2
     e70:	000d1200 	andeq	r1, sp, r0, lsl #4
     e74:	0b3a0e03 	bleq	e84688 <__bss_end__+0xe7a648>
     e78:	13490b3b 	movtne	r0, #39739	; 0x9b3b
     e7c:	00000538 	andeq	r0, r0, r8, lsr r5
     e80:	27001513 	smladcs	r0, r3, r5, r1
     e84:	14000019 	strne	r0, [r0], #-25	; 0xffffffe7
     e88:	19270115 	stmdbne	r7!, {r0, r2, r4, r8}
     e8c:	13011349 	movwne	r1, #4937	; 0x1349
     e90:	05150000 	ldreq	r0, [r5, #-0]
     e94:	00134900 	andseq	r4, r3, r0, lsl #18
     e98:	01131600 	tsteq	r3, r0, lsl #12
     e9c:	050b0e03 	streq	r0, [fp, #-3587]	; 0xfffff1fd
     ea0:	053b0b3a 	ldreq	r0, [fp, #-2874]!	; 0xfffff4c6
     ea4:	00001301 	andeq	r1, r0, r1, lsl #6
     ea8:	03000d17 	movweq	r0, #3351	; 0xd17
     eac:	3b0b3a0e 	blcc	2cf6ec <__bss_end__+0x2c56ac>
     eb0:	38134905 	ldmdacc	r3, {r0, r2, r8, fp, lr}
     eb4:	1800000b 	stmdane	r0, {r0, r1, r3}
     eb8:	0e03000d 	cdpeq	0, 0, cr0, cr3, cr13, {0}
     ebc:	053b0b3a 	ldreq	r0, [fp, #-2874]!	; 0xfffff4c6
     ec0:	05381349 	ldreq	r1, [r8, #-841]!	; 0xfffffcb7
     ec4:	13190000 	tstne	r9, #0
     ec8:	0b0e0301 	bleq	381ad4 <__bss_end__+0x377a94>
     ecc:	3b0b3a0b 	blcc	2cf700 <__bss_end__+0x2c56c0>
     ed0:	00130105 	andseq	r0, r3, r5, lsl #2
     ed4:	01131a00 	tsteq	r3, r0, lsl #20
     ed8:	0b3a0b0b 	bleq	e83b0c <__bss_end__+0xe79acc>
     edc:	1301053b 	movwne	r0, #5435	; 0x153b
     ee0:	171b0000 	ldrne	r0, [fp, -r0]
     ee4:	3a0b0b01 	bcc	2c3af0 <__bss_end__+0x2b9ab0>
     ee8:	01053b0b 	tsteq	r5, fp, lsl #22
     eec:	1c000013 	stcne	0, cr0, [r0], {19}
     ef0:	0e03000d 	cdpeq	0, 0, cr0, cr3, cr13, {0}
     ef4:	053b0b3a 	ldreq	r0, [fp, #-2874]!	; 0xfffff4c6
     ef8:	00001349 	andeq	r1, r0, r9, asr #6
     efc:	2701151d 	smladcs	r1, sp, r5, r1
     f00:	00130119 	andseq	r0, r3, r9, lsl r1
     f04:	00341e00 	eorseq	r1, r4, r0, lsl #28
     f08:	0b3a0e03 	bleq	e8471c <__bss_end__+0xe7a6dc>
     f0c:	1349053b 	movtne	r0, #38203	; 0x953b
     f10:	193c193f 	ldmdbne	ip!, {r0, r1, r2, r3, r4, r5, r8, fp, ip}
     f14:	341f0000 	ldrcc	r0, [pc], #-0	; f1c <_start-0x70e4>
     f18:	3a0e0300 	bcc	381b20 <__bss_end__+0x377ae0>
     f1c:	490b3b0b 	stmdbmi	fp, {r0, r1, r3, r8, r9, fp, ip, sp}
     f20:	3c193f13 	ldccc	15, cr3, [r9], {19}
     f24:	20000019 	andcs	r0, r0, r9, lsl r0
     f28:	13470034 	movtne	r0, #28724	; 0x7034
     f2c:	0b3b0b3a 	bleq	ec3c1c <__bss_end__+0xeb9bdc>
     f30:	00001802 	andeq	r1, r0, r2, lsl #16
     f34:	3f012e21 	svccc	0x00012e21
     f38:	3a0e0319 	bcc	381ba4 <__bss_end__+0x377b64>
     f3c:	270b3b0b 	strcs	r3, [fp, -fp, lsl #22]
     f40:	12011119 	andne	r1, r1, #1073741830	; 0x40000006
     f44:	97184006 	ldrls	r4, [r8, -r6]
     f48:	13011942 	movwne	r1, #6466	; 0x1942
     f4c:	05220000 	streq	r0, [r2, #-0]!
     f50:	3a080300 	bcc	201b58 <__bss_end__+0x1f7b18>
     f54:	490b3b0b 	stmdbmi	fp, {r0, r1, r3, r8, r9, fp, ip, sp}
     f58:	00180213 	andseq	r0, r8, r3, lsl r2
     f5c:	002e2300 	eoreq	r2, lr, r0, lsl #6
     f60:	0e03193f 			; <UNDEFINED> instruction: 0x0e03193f
     f64:	0b3b0b3a 	bleq	ec3c54 <__bss_end__+0xeb9c14>
     f68:	01111927 	tsteq	r1, r7, lsr #18
     f6c:	18400612 	stmdane	r0, {r1, r4, r9, sl}^
     f70:	00194297 	mulseq	r9, r7, r2
     f74:	012e2400 			; <UNDEFINED> instruction: 0x012e2400
     f78:	0b3a0e03 	bleq	e8478c <__bss_end__+0xe7a74c>
     f7c:	19270b3b 	stmdbne	r7!, {r0, r1, r3, r4, r5, r8, r9, fp}
     f80:	01111349 	tsteq	r1, r9, asr #6
     f84:	18400612 	stmdane	r0, {r1, r4, r9, sl}^
     f88:	01194297 			; <UNDEFINED> instruction: 0x01194297
     f8c:	25000013 	strcs	r0, [r0, #-19]	; 0xffffffed
     f90:	08030005 	stmdaeq	r3, {r0, r2}
     f94:	0b3b0b3a 	bleq	ec3c84 <__bss_end__+0xeb9c44>
     f98:	17021349 	strne	r1, [r2, -r9, asr #6]
     f9c:	89260000 	stmdbhi	r6!, {}	; <UNPREDICTABLE>
     fa0:	11010182 	smlabbne	r1, r2, r1, r0
     fa4:	00133101 	andseq	r3, r3, r1, lsl #2
     fa8:	828a2700 	addhi	r2, sl, #0, 14
     fac:	18020001 	stmdane	r2, {r0}
     fb0:	00184291 	mulseq	r8, r1, r2
     fb4:	002e2800 	eoreq	r2, lr, r0, lsl #16
     fb8:	193c193f 	ldmdbne	ip!, {r0, r1, r2, r3, r4, r5, r8, fp, ip}
     fbc:	0e030e6e 	cdpeq	14, 0, cr0, cr3, cr14, {3}
     fc0:	0b3b0b3a 	bleq	ec3cb0 <__bss_end__+0xeb9c70>
     fc4:	01000000 	mrseq	r0, (UNDEF: 0)
     fc8:	0e250111 	mcreq	1, 1, r0, cr5, cr1, {0}
     fcc:	0e030b13 	vmoveq.32	d3[0], r0
     fd0:	01110e1b 	tsteq	r1, fp, lsl lr
     fd4:	17100612 			; <UNDEFINED> instruction: 0x17100612
     fd8:	24020000 	strcs	r0, [r2], #-0
     fdc:	3e0b0b00 	vmlacc.f64	d0, d11, d0
     fe0:	0008030b 	andeq	r0, r8, fp, lsl #6
     fe4:	00160300 	andseq	r0, r6, r0, lsl #6
     fe8:	0b3a0e03 	bleq	e847fc <__bss_end__+0xe7a7bc>
     fec:	13490b3b 	movtne	r0, #39739	; 0x9b3b
     ff0:	24040000 	strcs	r0, [r4], #-0
     ff4:	3e0b0b00 	vmlacc.f64	d0, d11, d0
     ff8:	000e030b 	andeq	r0, lr, fp, lsl #6
     ffc:	00160500 	andseq	r0, r6, r0, lsl #10
    1000:	0b3a0e03 	bleq	e84814 <__bss_end__+0xe7a7d4>
    1004:	1349053b 	movtne	r0, #38203	; 0x953b
    1008:	17060000 	strne	r0, [r6, -r0]
    100c:	3a0b0b01 	bcc	2c3c18 <__bss_end__+0x2b9bd8>
    1010:	010b3b0b 	tsteq	fp, fp, lsl #22
    1014:	07000013 	smladeq	r0, r3, r0, r0
    1018:	0e03000d 	cdpeq	0, 0, cr0, cr3, cr13, {0}
    101c:	0b3b0b3a 	bleq	ec3d0c <__bss_end__+0xeb9ccc>
    1020:	00001349 	andeq	r1, r0, r9, asr #6
    1024:	49010108 	stmdbmi	r1, {r3, r8}
    1028:	00130113 	andseq	r0, r3, r3, lsl r1
    102c:	00210900 	eoreq	r0, r1, r0, lsl #18
    1030:	0b2f1349 	bleq	bc5d5c <__bss_end__+0xbbbd1c>
    1034:	130a0000 	movwne	r0, #40960	; 0xa000
    1038:	3a0b0b01 	bcc	2c3c44 <__bss_end__+0x2b9c04>
    103c:	010b3b0b 	tsteq	fp, fp, lsl #22
    1040:	0b000013 	bleq	1094 <_start-0x6f6c>
    1044:	0e03000d 	cdpeq	0, 0, cr0, cr3, cr13, {0}
    1048:	0b3b0b3a 	bleq	ec3d38 <__bss_end__+0xeb9cf8>
    104c:	0b381349 	bleq	e05d78 <__bss_end__+0xdfbd38>
    1050:	0f0c0000 	svceq	0x000c0000
    1054:	000b0b00 	andeq	r0, fp, r0, lsl #22
    1058:	000f0d00 	andeq	r0, pc, r0, lsl #26
    105c:	13490b0b 	movtne	r0, #39691	; 0x9b0b
    1060:	260e0000 	strcs	r0, [lr], -r0
    1064:	00134900 	andseq	r4, r3, r0, lsl #18
    1068:	01130f00 	tsteq	r3, r0, lsl #30
    106c:	0b0b0e03 	bleq	2c4880 <__bss_end__+0x2ba840>
    1070:	0b3b0b3a 	bleq	ec3d60 <__bss_end__+0xeb9d20>
    1074:	00001301 	andeq	r1, r0, r1, lsl #6
    1078:	03000d10 	movweq	r0, #3344	; 0xd10
    107c:	3b0b3a08 	blcc	2cf8a4 <__bss_end__+0x2c5864>
    1080:	3813490b 	ldmdacc	r3, {r0, r1, r3, r8, fp, lr}
    1084:	1100000b 	tstne	r0, fp
    1088:	0e030113 	mcreq	1, 0, r0, cr3, cr3, {0}
    108c:	0b3a050b 	bleq	e824c0 <__bss_end__+0xe78480>
    1090:	13010b3b 	movwne	r0, #6971	; 0x1b3b
    1094:	0d120000 	ldceq	0, cr0, [r2, #-0]
    1098:	3a0e0300 	bcc	381ca0 <__bss_end__+0x377c60>
    109c:	490b3b0b 	stmdbmi	fp, {r0, r1, r3, r8, r9, fp, ip, sp}
    10a0:	00053813 	andeq	r3, r5, r3, lsl r8
    10a4:	00151300 	andseq	r1, r5, r0, lsl #6
    10a8:	00001927 	andeq	r1, r0, r7, lsr #18
    10ac:	27011514 	smladcs	r1, r4, r5, r1
    10b0:	01134919 	tsteq	r3, r9, lsl r9
    10b4:	15000013 	strne	r0, [r0, #-19]	; 0xffffffed
    10b8:	13490005 	movtne	r0, #36869	; 0x9005
    10bc:	13160000 	tstne	r6, #0
    10c0:	0b0e0301 	bleq	381ccc <__bss_end__+0x377c8c>
    10c4:	3b0b3a05 	blcc	2cf8e0 <__bss_end__+0x2c58a0>
    10c8:	00130105 	andseq	r0, r3, r5, lsl #2
    10cc:	000d1700 	andeq	r1, sp, r0, lsl #14
    10d0:	0b3a0e03 	bleq	e848e4 <__bss_end__+0xe7a8a4>
    10d4:	1349053b 	movtne	r0, #38203	; 0x953b
    10d8:	00000b38 	andeq	r0, r0, r8, lsr fp
    10dc:	03000d18 	movweq	r0, #3352	; 0xd18
    10e0:	3b0b3a0e 	blcc	2cf920 <__bss_end__+0x2c58e0>
    10e4:	38134905 	ldmdacc	r3, {r0, r2, r8, fp, lr}
    10e8:	19000005 	stmdbne	r0, {r0, r2}
    10ec:	0e030113 	mcreq	1, 0, r0, cr3, cr3, {0}
    10f0:	0b3a0b0b 	bleq	e83d24 <__bss_end__+0xe79ce4>
    10f4:	1301053b 	movwne	r0, #5435	; 0x153b
    10f8:	131a0000 	tstne	sl, #0
    10fc:	3a0b0b01 	bcc	2c3d08 <__bss_end__+0x2b9cc8>
    1100:	01053b0b 	tsteq	r5, fp, lsl #22
    1104:	1b000013 	blne	1158 <_start-0x6ea8>
    1108:	0b0b0117 	bleq	2c156c <__bss_end__+0x2b752c>
    110c:	053b0b3a 	ldreq	r0, [fp, #-2874]!	; 0xfffff4c6
    1110:	00001301 	andeq	r1, r0, r1, lsl #6
    1114:	03000d1c 	movweq	r0, #3356	; 0xd1c
    1118:	3b0b3a0e 	blcc	2cf958 <__bss_end__+0x2c5918>
    111c:	00134905 	andseq	r4, r3, r5, lsl #18
    1120:	01151d00 	tsteq	r5, r0, lsl #26
    1124:	13011927 	movwne	r1, #6439	; 0x1927
    1128:	341e0000 	ldrcc	r0, [lr], #-0
    112c:	3a0e0300 	bcc	381d34 <__bss_end__+0x377cf4>
    1130:	49053b0b 	stmdbmi	r5, {r0, r1, r3, r8, r9, fp, ip, sp}
    1134:	3c193f13 	ldccc	15, cr3, [r9], {19}
    1138:	1f000019 	svcne	0x00000019
    113c:	193f012e 	ldmdbne	pc!, {r1, r2, r3, r5, r8}	; <UNPREDICTABLE>
    1140:	0b3a0e03 	bleq	e84954 <__bss_end__+0xe7a914>
    1144:	19270b3b 	stmdbne	r7!, {r0, r1, r3, r4, r5, r8, r9, fp}
    1148:	01111349 	tsteq	r1, r9, asr #6
    114c:	18400612 	stmdane	r0, {r1, r4, r9, sl}^
    1150:	00194297 	mulseq	r9, r7, r2
    1154:	00052000 	andeq	r2, r5, r0
    1158:	0b3a0803 	bleq	e8316c <__bss_end__+0xe7912c>
    115c:	13490b3b 	movtne	r0, #39739	; 0x9b3b
    1160:	00001802 	andeq	r1, r0, r2, lsl #16
    1164:	03000521 	movweq	r0, #1313	; 0x521
    1168:	3b0b3a08 	blcc	2cf990 <__bss_end__+0x2c5950>
    116c:	0213490b 	andseq	r4, r3, #180224	; 0x2c000
    1170:	22000017 	andcs	r0, r0, #23
    1174:	08030034 	stmdaeq	r3, {r2, r4, r5}
    1178:	0b3b0b3a 	bleq	ec3e68 <__bss_end__+0xeb9e28>
    117c:	17021349 	strne	r1, [r2, -r9, asr #6]
    1180:	34230000 	strtcc	r0, [r3], #-0
    1184:	3a080300 	bcc	201d8c <__bss_end__+0x1f7d4c>
    1188:	490b3b0b 	stmdbmi	fp, {r0, r1, r3, r8, r9, fp, ip, sp}
    118c:	00180213 	andseq	r0, r8, r3, lsl r2
    1190:	11010000 	mrsne	r0, (UNDEF: 1)
    1194:	130e2501 	movwne	r2, #58625	; 0xe501
    1198:	1b0e030b 	blne	381dcc <__bss_end__+0x377d8c>
    119c:	1201110e 	andne	r1, r1, #-2147483645	; 0x80000003
    11a0:	00171006 	andseq	r1, r7, r6
    11a4:	00240200 	eoreq	r0, r4, r0, lsl #4
    11a8:	0b3e0b0b 	bleq	f83ddc <__bss_end__+0xf79d9c>
    11ac:	00000803 	andeq	r0, r0, r3, lsl #16
    11b0:	0b002403 	bleq	a1c4 <__bss_end__+0x184>
    11b4:	030b3e0b 	movweq	r3, #48651	; 0xbe0b
    11b8:	0400000e 	streq	r0, [r0], #-14
    11bc:	0e030016 	mcreq	0, 0, r0, cr3, cr6, {0}
    11c0:	0b3b0b3a 	bleq	ec3eb0 <__bss_end__+0xeb9e70>
    11c4:	00001349 	andeq	r1, r0, r9, asr #6
    11c8:	03001605 	movweq	r1, #1541	; 0x605
    11cc:	3b0b3a0e 	blcc	2cfa0c <__bss_end__+0x2c59cc>
    11d0:	00134905 	andseq	r4, r3, r5, lsl #18
    11d4:	01170600 	tsteq	r7, r0, lsl #12
    11d8:	0b3a0b0b 	bleq	e83e0c <__bss_end__+0xe79dcc>
    11dc:	13010b3b 	movwne	r0, #6971	; 0x1b3b
    11e0:	0d070000 	stceq	0, cr0, [r7, #-0]
    11e4:	3a0e0300 	bcc	381dec <__bss_end__+0x377dac>
    11e8:	490b3b0b 	stmdbmi	fp, {r0, r1, r3, r8, r9, fp, ip, sp}
    11ec:	08000013 	stmdaeq	r0, {r0, r1, r4}
    11f0:	13490101 	movtne	r0, #37121	; 0x9101
    11f4:	00001301 	andeq	r1, r0, r1, lsl #6
    11f8:	49002109 	stmdbmi	r0, {r0, r3, r8, sp}
    11fc:	000b2f13 	andeq	r2, fp, r3, lsl pc
    1200:	01130a00 	tsteq	r3, r0, lsl #20
    1204:	0b3a0b0b 	bleq	e83e38 <__bss_end__+0xe79df8>
    1208:	13010b3b 	movwne	r0, #6971	; 0x1b3b
    120c:	0d0b0000 	stceq	0, cr0, [fp, #-0]
    1210:	3a0e0300 	bcc	381e18 <__bss_end__+0x377dd8>
    1214:	490b3b0b 	stmdbmi	fp, {r0, r1, r3, r8, r9, fp, ip, sp}
    1218:	000b3813 	andeq	r3, fp, r3, lsl r8
    121c:	000f0c00 	andeq	r0, pc, r0, lsl #24
    1220:	00000b0b 	andeq	r0, r0, fp, lsl #22
    1224:	0b000f0d 	bleq	4e60 <_start-0x31a0>
    1228:	0013490b 	andseq	r4, r3, fp, lsl #18
    122c:	00260e00 	eoreq	r0, r6, r0, lsl #28
    1230:	00001349 	andeq	r1, r0, r9, asr #6
    1234:	0301130f 	movweq	r1, #4879	; 0x130f
    1238:	3a0b0b0e 	bcc	2c3e78 <__bss_end__+0x2b9e38>
    123c:	010b3b0b 	tsteq	fp, fp, lsl #22
    1240:	10000013 	andne	r0, r0, r3, lsl r0
    1244:	0803000d 	stmdaeq	r3, {r0, r2, r3}
    1248:	0b3b0b3a 	bleq	ec3f38 <__bss_end__+0xeb9ef8>
    124c:	0b381349 	bleq	e05f78 <__bss_end__+0xdfbf38>
    1250:	13110000 	tstne	r1, #0
    1254:	0b0e0301 	bleq	381e60 <__bss_end__+0x377e20>
    1258:	3b0b3a05 	blcc	2cfa74 <__bss_end__+0x2c5a34>
    125c:	0013010b 	andseq	r0, r3, fp, lsl #2
    1260:	000d1200 	andeq	r1, sp, r0, lsl #4
    1264:	0b3a0e03 	bleq	e84a78 <__bss_end__+0xe7aa38>
    1268:	13490b3b 	movtne	r0, #39739	; 0x9b3b
    126c:	00000538 	andeq	r0, r0, r8, lsr r5
    1270:	27001513 	smladcs	r0, r3, r5, r1
    1274:	14000019 	strne	r0, [r0], #-25	; 0xffffffe7
    1278:	19270115 	stmdbne	r7!, {r0, r2, r4, r8}
    127c:	13011349 	movwne	r1, #4937	; 0x1349
    1280:	05150000 	ldreq	r0, [r5, #-0]
    1284:	00134900 	andseq	r4, r3, r0, lsl #18
    1288:	01131600 	tsteq	r3, r0, lsl #12
    128c:	050b0e03 	streq	r0, [fp, #-3587]	; 0xfffff1fd
    1290:	053b0b3a 	ldreq	r0, [fp, #-2874]!	; 0xfffff4c6
    1294:	00001301 	andeq	r1, r0, r1, lsl #6
    1298:	03000d17 	movweq	r0, #3351	; 0xd17
    129c:	3b0b3a0e 	blcc	2cfadc <__bss_end__+0x2c5a9c>
    12a0:	38134905 	ldmdacc	r3, {r0, r2, r8, fp, lr}
    12a4:	1800000b 	stmdane	r0, {r0, r1, r3}
    12a8:	0e03000d 	cdpeq	0, 0, cr0, cr3, cr13, {0}
    12ac:	053b0b3a 	ldreq	r0, [fp, #-2874]!	; 0xfffff4c6
    12b0:	05381349 	ldreq	r1, [r8, #-841]!	; 0xfffffcb7
    12b4:	13190000 	tstne	r9, #0
    12b8:	0b0e0301 	bleq	381ec4 <__bss_end__+0x377e84>
    12bc:	3b0b3a0b 	blcc	2cfaf0 <__bss_end__+0x2c5ab0>
    12c0:	00130105 	andseq	r0, r3, r5, lsl #2
    12c4:	01131a00 	tsteq	r3, r0, lsl #20
    12c8:	0b3a0b0b 	bleq	e83efc <__bss_end__+0xe79ebc>
    12cc:	1301053b 	movwne	r0, #5435	; 0x153b
    12d0:	171b0000 	ldrne	r0, [fp, -r0]
    12d4:	3a0b0b01 	bcc	2c3ee0 <__bss_end__+0x2b9ea0>
    12d8:	01053b0b 	tsteq	r5, fp, lsl #22
    12dc:	1c000013 	stcne	0, cr0, [r0], {19}
    12e0:	0e03000d 	cdpeq	0, 0, cr0, cr3, cr13, {0}
    12e4:	053b0b3a 	ldreq	r0, [fp, #-2874]!	; 0xfffff4c6
    12e8:	00001349 	andeq	r1, r0, r9, asr #6
    12ec:	2701151d 	smladcs	r1, sp, r5, r1
    12f0:	00130119 	andseq	r0, r3, r9, lsl r1
    12f4:	00341e00 	eorseq	r1, r4, r0, lsl #28
    12f8:	0b3a0e03 	bleq	e84b0c <__bss_end__+0xe7aacc>
    12fc:	1349053b 	movtne	r0, #38203	; 0x953b
    1300:	193c193f 	ldmdbne	ip!, {r0, r1, r2, r3, r4, r5, r8, fp, ip}
    1304:	341f0000 	ldrcc	r0, [pc], #-0	; 130c <_start-0x6cf4>
    1308:	3a0e0300 	bcc	381f10 <__bss_end__+0x377ed0>
    130c:	490b3b0b 	stmdbmi	fp, {r0, r1, r3, r8, r9, fp, ip, sp}
    1310:	3c193f13 	ldccc	15, cr3, [r9], {19}
    1314:	20000019 	andcs	r0, r0, r9, lsl r0
    1318:	193f012e 	ldmdbne	pc!, {r1, r2, r3, r5, r8}	; <UNPREDICTABLE>
    131c:	0b3a0e03 	bleq	e84b30 <__bss_end__+0xe7aaf0>
    1320:	01110b3b 	tsteq	r1, fp, lsr fp
    1324:	18400612 	stmdane	r0, {r1, r4, r9, sl}^
    1328:	01194297 			; <UNDEFINED> instruction: 0x01194297
    132c:	21000013 	tstcs	r0, r3, lsl r0
    1330:	193f002e 	ldmdbne	pc!, {r1, r2, r3, r5}	; <UNPREDICTABLE>
    1334:	0b3a0e03 	bleq	e84b48 <__bss_end__+0xe7ab08>
    1338:	19270b3b 	stmdbne	r7!, {r0, r1, r3, r4, r5, r8, r9, fp}
    133c:	0000193c 	andeq	r1, r0, ip, lsr r9
    1340:	03003422 	movweq	r3, #1058	; 0x422
    1344:	3b0b3a08 	blcc	2cfb6c <__bss_end__+0x2c5b2c>
    1348:	0213490b 	andseq	r4, r3, #180224	; 0x2c000
    134c:	23000017 	movwcs	r0, #23
    1350:	0e030034 	mcreq	0, 0, r0, cr3, cr4, {1}
    1354:	0b3b0b3a 	bleq	ec4044 <__bss_end__+0xeba004>
    1358:	00001349 	andeq	r1, r0, r9, asr #6
    135c:	01828924 	orreq	r8, r2, r4, lsr #18
    1360:	31011100 	mrscc	r1, (UNDEF: 17)
    1364:	25000013 	strcs	r0, [r0, #-19]	; 0xffffffed
    1368:	193f002e 	ldmdbne	pc!, {r1, r2, r3, r5}	; <UNPREDICTABLE>
    136c:	0e6e193c 			; <UNDEFINED> instruction: 0x0e6e193c
    1370:	0b3a0e03 	bleq	e84b84 <__bss_end__+0xe7ab44>
    1374:	00000b3b 	andeq	r0, r0, fp, lsr fp
    1378:	01110100 	tsteq	r1, r0, lsl #2
    137c:	0b130e25 	bleq	4c4c18 <__bss_end__+0x4babd8>
    1380:	0e1b0e03 	cdpeq	14, 1, cr0, cr11, cr3, {0}
    1384:	01111755 	tsteq	r1, r5, asr r7
    1388:	00001710 	andeq	r1, r0, r0, lsl r7
    138c:	0b002402 	bleq	a39c <__bss_end__+0x35c>
    1390:	030b3e0b 	movweq	r3, #48651	; 0xbe0b
    1394:	03000008 	movweq	r0, #8
    1398:	13490026 	movtne	r0, #36902	; 0x9026
    139c:	24040000 	strcs	r0, [r4], #-0
    13a0:	3e0b0b00 	vmlacc.f64	d0, d11, d0
    13a4:	000e030b 	andeq	r0, lr, fp, lsl #6
    13a8:	00160500 	andseq	r0, r6, r0, lsl #10
    13ac:	0b3a0e03 	bleq	e84bc0 <__bss_end__+0xe7ab80>
    13b0:	13490b3b 	movtne	r0, #39739	; 0x9b3b
    13b4:	16060000 	strne	r0, [r6], -r0
    13b8:	3a0e0300 	bcc	381fc0 <__bss_end__+0x377f80>
    13bc:	49053b0b 	stmdbmi	r5, {r0, r1, r3, r8, r9, fp, ip, sp}
    13c0:	07000013 	smladeq	r0, r3, r0, r0
    13c4:	0b0b0117 	bleq	2c1828 <__bss_end__+0x2b77e8>
    13c8:	0b3b0b3a 	bleq	ec40b8 <__bss_end__+0xeba078>
    13cc:	00001301 	andeq	r1, r0, r1, lsl #6
    13d0:	03000d08 	movweq	r0, #3336	; 0xd08
    13d4:	3b0b3a0e 	blcc	2cfc14 <__bss_end__+0x2c5bd4>
    13d8:	0013490b 	andseq	r4, r3, fp, lsl #18
    13dc:	01010900 	tsteq	r1, r0, lsl #18
    13e0:	13011349 	movwne	r1, #4937	; 0x1349
    13e4:	210a0000 	mrscs	r0, (UNDEF: 10)
    13e8:	2f134900 	svccs	0x00134900
    13ec:	0b00000b 	bleq	1420 <_start-0x6be0>
    13f0:	0b0b0113 	bleq	2c1844 <__bss_end__+0x2b7804>
    13f4:	0b3b0b3a 	bleq	ec40e4 <__bss_end__+0xeba0a4>
    13f8:	00001301 	andeq	r1, r0, r1, lsl #6
    13fc:	03000d0c 	movweq	r0, #3340	; 0xd0c
    1400:	3b0b3a0e 	blcc	2cfc40 <__bss_end__+0x2c5c00>
    1404:	3813490b 	ldmdacc	r3, {r0, r1, r3, r8, fp, lr}
    1408:	0d00000b 	stceq	0, cr0, [r0, #-44]	; 0xffffffd4
    140c:	0b0b000f 	bleq	2c1450 <__bss_end__+0x2b7410>
    1410:	0f0e0000 	svceq	0x000e0000
    1414:	490b0b00 	stmdbmi	fp, {r8, r9, fp}
    1418:	0f000013 	svceq	0x00000013
    141c:	0e030113 	mcreq	1, 0, r0, cr3, cr3, {0}
    1420:	0b3a0b0b 	bleq	e84054 <__bss_end__+0xe7a014>
    1424:	13010b3b 	movwne	r0, #6971	; 0x1b3b
    1428:	0d100000 	ldceq	0, cr0, [r0, #-0]
    142c:	3a080300 	bcc	202034 <__bss_end__+0x1f7ff4>
    1430:	490b3b0b 	stmdbmi	fp, {r0, r1, r3, r8, r9, fp, ip, sp}
    1434:	000b3813 	andeq	r3, fp, r3, lsl r8
    1438:	01131100 	tsteq	r3, r0, lsl #2
    143c:	050b0e03 	streq	r0, [fp, #-3587]	; 0xfffff1fd
    1440:	0b3b0b3a 	bleq	ec4130 <__bss_end__+0xeba0f0>
    1444:	00001301 	andeq	r1, r0, r1, lsl #6
    1448:	03000d12 	movweq	r0, #3346	; 0xd12
    144c:	3b0b3a0e 	blcc	2cfc8c <__bss_end__+0x2c5c4c>
    1450:	3813490b 	ldmdacc	r3, {r0, r1, r3, r8, fp, lr}
    1454:	13000005 	movwne	r0, #5
    1458:	19270015 	stmdbne	r7!, {r0, r2, r4}
    145c:	15140000 	ldrne	r0, [r4, #-0]
    1460:	49192701 	ldmdbmi	r9, {r0, r8, r9, sl, sp}
    1464:	00130113 	andseq	r0, r3, r3, lsl r1
    1468:	00051500 	andeq	r1, r5, r0, lsl #10
    146c:	00001349 	andeq	r1, r0, r9, asr #6
    1470:	03011316 	movweq	r1, #4886	; 0x1316
    1474:	3a050b0e 	bcc	1440b4 <__bss_end__+0x13a074>
    1478:	01053b0b 	tsteq	r5, fp, lsl #22
    147c:	17000013 	smladne	r0, r3, r0, r0
    1480:	0e03000d 	cdpeq	0, 0, cr0, cr3, cr13, {0}
    1484:	053b0b3a 	ldreq	r0, [fp, #-2874]!	; 0xfffff4c6
    1488:	0b381349 	bleq	e061b4 <__bss_end__+0xdfc174>
    148c:	0d180000 	ldceq	0, cr0, [r8, #-0]
    1490:	3a0e0300 	bcc	382098 <__bss_end__+0x378058>
    1494:	49053b0b 	stmdbmi	r5, {r0, r1, r3, r8, r9, fp, ip, sp}
    1498:	00053813 	andeq	r3, r5, r3, lsl r8
    149c:	01131900 	tsteq	r3, r0, lsl #18
    14a0:	0b0b0e03 	bleq	2c4cb4 <__bss_end__+0x2bac74>
    14a4:	053b0b3a 	ldreq	r0, [fp, #-2874]!	; 0xfffff4c6
    14a8:	00001301 	andeq	r1, r0, r1, lsl #6
    14ac:	0b01131a 	bleq	4611c <__bss_end__+0x3c0dc>
    14b0:	3b0b3a0b 	blcc	2cfce4 <__bss_end__+0x2c5ca4>
    14b4:	00130105 	andseq	r0, r3, r5, lsl #2
    14b8:	01171b00 	tsteq	r7, r0, lsl #22
    14bc:	0b3a0b0b 	bleq	e840f0 <__bss_end__+0xe7a0b0>
    14c0:	1301053b 	movwne	r0, #5435	; 0x153b
    14c4:	0d1c0000 	ldceq	0, cr0, [ip, #-0]
    14c8:	3a0e0300 	bcc	3820d0 <__bss_end__+0x378090>
    14cc:	49053b0b 	stmdbmi	r5, {r0, r1, r3, r8, r9, fp, ip, sp}
    14d0:	1d000013 	stcne	0, cr0, [r0, #-76]	; 0xffffffb4
    14d4:	19270115 	stmdbne	r7!, {r0, r2, r4, r8}
    14d8:	00001301 	andeq	r1, r0, r1, lsl #6
    14dc:	0300341e 	movweq	r3, #1054	; 0x41e
    14e0:	3b0b3a0e 	blcc	2cfd20 <__bss_end__+0x2c5ce0>
    14e4:	3f134905 	svccc	0x00134905
    14e8:	00193c19 	andseq	r3, r9, r9, lsl ip
    14ec:	00341f00 	eorseq	r1, r4, r0, lsl #30
    14f0:	0b3a0e03 	bleq	e84d04 <__bss_end__+0xe7acc4>
    14f4:	13490b3b 	movtne	r0, #39739	; 0x9b3b
    14f8:	193c193f 	ldmdbne	ip!, {r0, r1, r2, r3, r4, r5, r8, fp, ip}
    14fc:	34200000 	strtcc	r0, [r0], #-0
    1500:	3a0e0300 	bcc	382108 <__bss_end__+0x3780c8>
    1504:	490b3b0b 	stmdbmi	fp, {r0, r1, r3, r8, r9, fp, ip, sp}
    1508:	21000013 	tstcs	r0, r3, lsl r0
    150c:	193f012e 	ldmdbne	pc!, {r1, r2, r3, r5, r8}	; <UNPREDICTABLE>
    1510:	0b3a0e03 	bleq	e84d24 <__bss_end__+0xe7ace4>
    1514:	19270b3b 	stmdbne	r7!, {r0, r1, r3, r4, r5, r8, r9, fp}
    1518:	11190187 	tstne	r9, r7, lsl #3
    151c:	40061201 	andmi	r1, r6, r1, lsl #4
    1520:	19429718 	stmdbne	r2, {r3, r4, r8, r9, sl, ip, pc}^
    1524:	00001301 	andeq	r1, r0, r1, lsl #6
    1528:	03003422 	movweq	r3, #1058	; 0x422
    152c:	3b0b3a0e 	blcc	2cfd6c <__bss_end__+0x2c5d2c>
    1530:	0213490b 	andseq	r4, r3, #180224	; 0x2c000
    1534:	23000017 	movwcs	r0, #23
    1538:	00018289 	andeq	r8, r1, r9, lsl #5
    153c:	13310111 	teqne	r1, #1073741828	; 0x40000004
    1540:	89240000 	stmdbhi	r4!, {}	; <UNPREDICTABLE>
    1544:	11010182 	smlabbne	r1, r2, r1, r0
    1548:	01133101 	tsteq	r3, r1, lsl #2
    154c:	25000013 	strcs	r0, [r0, #-19]	; 0xffffffed
    1550:	0001828a 	andeq	r8, r1, sl, lsl #5
    1554:	42911802 	addsmi	r1, r1, #131072	; 0x20000
    1558:	26000018 			; <UNDEFINED> instruction: 0x26000018
    155c:	193f012e 	ldmdbne	pc!, {r1, r2, r3, r5, r8}	; <UNPREDICTABLE>
    1560:	0b3a0e03 	bleq	e84d74 <__bss_end__+0xe7ad34>
    1564:	19270b3b 	stmdbne	r7!, {r0, r1, r3, r4, r5, r8, r9, fp}
    1568:	06120111 			; <UNDEFINED> instruction: 0x06120111
    156c:	42971840 	addsmi	r1, r7, #64, 16	; 0x400000
    1570:	00130119 	andseq	r0, r3, r9, lsl r1
    1574:	012e2700 			; <UNDEFINED> instruction: 0x012e2700
    1578:	0e03193f 			; <UNDEFINED> instruction: 0x0e03193f
    157c:	0b3b0b3a 	bleq	ec426c <__bss_end__+0xeba22c>
    1580:	13491927 	movtne	r1, #39207	; 0x9927
    1584:	06120111 			; <UNDEFINED> instruction: 0x06120111
    1588:	42971840 	addsmi	r1, r7, #64, 16	; 0x400000
    158c:	00130119 	andseq	r0, r3, r9, lsl r1
    1590:	002e2800 	eoreq	r2, lr, r0, lsl #16
    1594:	193c193f 	ldmdbne	ip!, {r0, r1, r2, r3, r4, r5, r8, fp, ip}
    1598:	0e030e6e 	cdpeq	14, 0, cr0, cr3, cr14, {3}
    159c:	0b3b0b3a 	bleq	ec428c <__bss_end__+0xeba24c>
    15a0:	01000000 	mrseq	r0, (UNDEF: 0)
    15a4:	0e250111 	mcreq	1, 1, r0, cr5, cr1, {0}
    15a8:	0e030b13 	vmoveq.32	d3[0], r0
    15ac:	01110e1b 	tsteq	r1, fp, lsl lr
    15b0:	17100612 			; <UNDEFINED> instruction: 0x17100612
    15b4:	24020000 	strcs	r0, [r2], #-0
    15b8:	3e0b0b00 	vmlacc.f64	d0, d11, d0
    15bc:	0008030b 	andeq	r0, r8, fp, lsl #6
    15c0:	00240300 	eoreq	r0, r4, r0, lsl #6
    15c4:	0b3e0b0b 	bleq	f841f8 <__bss_end__+0xf7a1b8>
    15c8:	00000e03 	andeq	r0, r0, r3, lsl #28
    15cc:	03001604 	movweq	r1, #1540	; 0x604
    15d0:	3b0b3a0e 	blcc	2cfe10 <__bss_end__+0x2c5dd0>
    15d4:	0013490b 	andseq	r4, r3, fp, lsl #18
    15d8:	00160500 	andseq	r0, r6, r0, lsl #10
    15dc:	0b3a0e03 	bleq	e84df0 <__bss_end__+0xe7adb0>
    15e0:	1349053b 	movtne	r0, #38203	; 0x953b
    15e4:	17060000 	strne	r0, [r6, -r0]
    15e8:	3a0b0b01 	bcc	2c41f4 <__bss_end__+0x2ba1b4>
    15ec:	010b3b0b 	tsteq	fp, fp, lsl #22
    15f0:	07000013 	smladeq	r0, r3, r0, r0
    15f4:	0e03000d 	cdpeq	0, 0, cr0, cr3, cr13, {0}
    15f8:	0b3b0b3a 	bleq	ec42e8 <__bss_end__+0xeba2a8>
    15fc:	00001349 	andeq	r1, r0, r9, asr #6
    1600:	49010108 	stmdbmi	r1, {r3, r8}
    1604:	00130113 	andseq	r0, r3, r3, lsl r1
    1608:	00210900 	eoreq	r0, r1, r0, lsl #18
    160c:	0b2f1349 	bleq	bc6338 <__bss_end__+0xbbc2f8>
    1610:	130a0000 	movwne	r0, #40960	; 0xa000
    1614:	3a0b0b01 	bcc	2c4220 <__bss_end__+0x2ba1e0>
    1618:	010b3b0b 	tsteq	fp, fp, lsl #22
    161c:	0b000013 	bleq	1670 <_start-0x6990>
    1620:	0e03000d 	cdpeq	0, 0, cr0, cr3, cr13, {0}
    1624:	0b3b0b3a 	bleq	ec4314 <__bss_end__+0xeba2d4>
    1628:	0b381349 	bleq	e06354 <__bss_end__+0xdfc314>
    162c:	0f0c0000 	svceq	0x000c0000
    1630:	000b0b00 	andeq	r0, fp, r0, lsl #22
    1634:	000f0d00 	andeq	r0, pc, r0, lsl #26
    1638:	13490b0b 	movtne	r0, #39691	; 0x9b0b
    163c:	260e0000 	strcs	r0, [lr], -r0
    1640:	00134900 	andseq	r4, r3, r0, lsl #18
    1644:	01130f00 	tsteq	r3, r0, lsl #30
    1648:	0b0b0e03 	bleq	2c4e5c <__bss_end__+0x2bae1c>
    164c:	0b3b0b3a 	bleq	ec433c <__bss_end__+0xeba2fc>
    1650:	00001301 	andeq	r1, r0, r1, lsl #6
    1654:	03000d10 	movweq	r0, #3344	; 0xd10
    1658:	3b0b3a08 	blcc	2cfe80 <__bss_end__+0x2c5e40>
    165c:	3813490b 	ldmdacc	r3, {r0, r1, r3, r8, fp, lr}
    1660:	1100000b 	tstne	r0, fp
    1664:	0e030113 	mcreq	1, 0, r0, cr3, cr3, {0}
    1668:	0b3a050b 	bleq	e82a9c <__bss_end__+0xe78a5c>
    166c:	13010b3b 	movwne	r0, #6971	; 0x1b3b
    1670:	0d120000 	ldceq	0, cr0, [r2, #-0]
    1674:	3a0e0300 	bcc	38227c <__bss_end__+0x37823c>
    1678:	490b3b0b 	stmdbmi	fp, {r0, r1, r3, r8, r9, fp, ip, sp}
    167c:	00053813 	andeq	r3, r5, r3, lsl r8
    1680:	00151300 	andseq	r1, r5, r0, lsl #6
    1684:	00001927 	andeq	r1, r0, r7, lsr #18
    1688:	27011514 	smladcs	r1, r4, r5, r1
    168c:	01134919 	tsteq	r3, r9, lsl r9
    1690:	15000013 	strne	r0, [r0, #-19]	; 0xffffffed
    1694:	13490005 	movtne	r0, #36869	; 0x9005
    1698:	13160000 	tstne	r6, #0
    169c:	0b0e0301 	bleq	3822a8 <__bss_end__+0x378268>
    16a0:	3b0b3a05 	blcc	2cfebc <__bss_end__+0x2c5e7c>
    16a4:	00130105 	andseq	r0, r3, r5, lsl #2
    16a8:	000d1700 	andeq	r1, sp, r0, lsl #14
    16ac:	0b3a0e03 	bleq	e84ec0 <__bss_end__+0xe7ae80>
    16b0:	1349053b 	movtne	r0, #38203	; 0x953b
    16b4:	00000b38 	andeq	r0, r0, r8, lsr fp
    16b8:	03000d18 	movweq	r0, #3352	; 0xd18
    16bc:	3b0b3a0e 	blcc	2cfefc <__bss_end__+0x2c5ebc>
    16c0:	38134905 	ldmdacc	r3, {r0, r2, r8, fp, lr}
    16c4:	19000005 	stmdbne	r0, {r0, r2}
    16c8:	0e030113 	mcreq	1, 0, r0, cr3, cr3, {0}
    16cc:	0b3a0b0b 	bleq	e84300 <__bss_end__+0xe7a2c0>
    16d0:	1301053b 	movwne	r0, #5435	; 0x153b
    16d4:	131a0000 	tstne	sl, #0
    16d8:	3a0b0b01 	bcc	2c42e4 <__bss_end__+0x2ba2a4>
    16dc:	01053b0b 	tsteq	r5, fp, lsl #22
    16e0:	1b000013 	blne	1734 <_start-0x68cc>
    16e4:	0b0b0117 	bleq	2c1b48 <__bss_end__+0x2b7b08>
    16e8:	053b0b3a 	ldreq	r0, [fp, #-2874]!	; 0xfffff4c6
    16ec:	00001301 	andeq	r1, r0, r1, lsl #6
    16f0:	03000d1c 	movweq	r0, #3356	; 0xd1c
    16f4:	3b0b3a0e 	blcc	2cff34 <__bss_end__+0x2c5ef4>
    16f8:	00134905 	andseq	r4, r3, r5, lsl #18
    16fc:	01151d00 	tsteq	r5, r0, lsl #26
    1700:	13011927 	movwne	r1, #6439	; 0x1927
    1704:	341e0000 	ldrcc	r0, [lr], #-0
    1708:	3a0e0300 	bcc	382310 <__bss_end__+0x3782d0>
    170c:	49053b0b 	stmdbmi	r5, {r0, r1, r3, r8, r9, fp, ip, sp}
    1710:	3c193f13 	ldccc	15, cr3, [r9], {19}
    1714:	1f000019 	svcne	0x00000019
    1718:	0e030034 	mcreq	0, 0, r0, cr3, cr4, {1}
    171c:	0b3b0b3a 	bleq	ec440c <__bss_end__+0xeba3cc>
    1720:	193f1349 	ldmdbne	pc!, {r0, r3, r6, r8, r9, ip}	; <UNPREDICTABLE>
    1724:	0000193c 	andeq	r1, r0, ip, lsr r9
    1728:	3f012e20 	svccc	0x00012e20
    172c:	3a0e0319 	bcc	382398 <__bss_end__+0x378358>
    1730:	270b3b0b 	strcs	r3, [fp, -fp, lsl #22]
    1734:	19018719 	stmdbne	r1, {r0, r3, r4, r8, r9, sl, pc}
    1738:	06120111 			; <UNDEFINED> instruction: 0x06120111
    173c:	42971840 	addsmi	r1, r7, #64, 16	; 0x400000
    1740:	00130119 	andseq	r0, r3, r9, lsl r1
    1744:	82892100 	addhi	r2, r9, #0, 2
    1748:	01110101 	tsteq	r1, r1, lsl #2
    174c:	00001301 	andeq	r1, r0, r1, lsl #6
    1750:	01828a22 	orreq	r8, r2, r2, lsr #20
    1754:	91180200 	tstls	r8, r0, lsl #4
    1758:	00001842 	andeq	r1, r0, r2, asr #16
    175c:	01828923 	orreq	r8, r2, r3, lsr #18
    1760:	31011101 	tstcc	r1, r1, lsl #2
    1764:	00130113 	andseq	r0, r3, r3, lsl r1
    1768:	82892400 	addhi	r2, r9, #0, 8
    176c:	01110001 	tsteq	r1, r1
    1770:	00001331 	andeq	r1, r0, r1, lsr r3
    1774:	3f002e25 	svccc	0x00002e25
    1778:	6e193c19 	mrcvs	12, 0, r3, cr9, cr9, {0}
    177c:	3a0e030e 	bcc	3823bc <__bss_end__+0x37837c>
    1780:	000b3b0b 	andeq	r3, fp, fp, lsl #22
    1784:	11010000 	mrsne	r0, (UNDEF: 1)
    1788:	130e2501 	movwne	r2, #58625	; 0xe501
    178c:	1b0e030b 	blne	3823c0 <__bss_end__+0x378380>
    1790:	1201110e 	andne	r1, r1, #-2147483645	; 0x80000003
    1794:	00171006 	andseq	r1, r7, r6
    1798:	00240200 	eoreq	r0, r4, r0, lsl #4
    179c:	0b3e0b0b 	bleq	f843d0 <__bss_end__+0xf7a390>
    17a0:	00000803 	andeq	r0, r0, r3, lsl #16
    17a4:	0b002403 	bleq	a7b8 <__bss_end__+0x778>
    17a8:	030b3e0b 	movweq	r3, #48651	; 0xbe0b
    17ac:	0400000e 	streq	r0, [r0], #-14
    17b0:	0e030016 	mcreq	0, 0, r0, cr3, cr6, {0}
    17b4:	0b3b0b3a 	bleq	ec44a4 <__bss_end__+0xeba464>
    17b8:	00001349 	andeq	r1, r0, r9, asr #6
    17bc:	03001605 	movweq	r1, #1541	; 0x605
    17c0:	3b0b3a0e 	blcc	2d0000 <__bss_end__+0x2c5fc0>
    17c4:	00134905 	andseq	r4, r3, r5, lsl #18
    17c8:	01170600 	tsteq	r7, r0, lsl #12
    17cc:	0b3a0b0b 	bleq	e84400 <__bss_end__+0xe7a3c0>
    17d0:	13010b3b 	movwne	r0, #6971	; 0x1b3b
    17d4:	0d070000 	stceq	0, cr0, [r7, #-0]
    17d8:	3a0e0300 	bcc	3823e0 <__bss_end__+0x3783a0>
    17dc:	490b3b0b 	stmdbmi	fp, {r0, r1, r3, r8, r9, fp, ip, sp}
    17e0:	08000013 	stmdaeq	r0, {r0, r1, r4}
    17e4:	13490101 	movtne	r0, #37121	; 0x9101
    17e8:	00001301 	andeq	r1, r0, r1, lsl #6
    17ec:	49002109 	stmdbmi	r0, {r0, r3, r8, sp}
    17f0:	000b2f13 	andeq	r2, fp, r3, lsl pc
    17f4:	01130a00 	tsteq	r3, r0, lsl #20
    17f8:	0b3a0b0b 	bleq	e8442c <__bss_end__+0xe7a3ec>
    17fc:	13010b3b 	movwne	r0, #6971	; 0x1b3b
    1800:	0d0b0000 	stceq	0, cr0, [fp, #-0]
    1804:	3a0e0300 	bcc	38240c <__bss_end__+0x3783cc>
    1808:	490b3b0b 	stmdbmi	fp, {r0, r1, r3, r8, r9, fp, ip, sp}
    180c:	000b3813 	andeq	r3, fp, r3, lsl r8
    1810:	000f0c00 	andeq	r0, pc, r0, lsl #24
    1814:	00000b0b 	andeq	r0, r0, fp, lsl #22
    1818:	0b000f0d 	bleq	5454 <_start-0x2bac>
    181c:	0013490b 	andseq	r4, r3, fp, lsl #18
    1820:	00260e00 	eoreq	r0, r6, r0, lsl #28
    1824:	00001349 	andeq	r1, r0, r9, asr #6
    1828:	0301130f 	movweq	r1, #4879	; 0x130f
    182c:	3a0b0b0e 	bcc	2c446c <__bss_end__+0x2ba42c>
    1830:	010b3b0b 	tsteq	fp, fp, lsl #22
    1834:	10000013 	andne	r0, r0, r3, lsl r0
    1838:	0803000d 	stmdaeq	r3, {r0, r2, r3}
    183c:	0b3b0b3a 	bleq	ec452c <__bss_end__+0xeba4ec>
    1840:	0b381349 	bleq	e0656c <__bss_end__+0xdfc52c>
    1844:	13110000 	tstne	r1, #0
    1848:	0b0e0301 	bleq	382454 <__bss_end__+0x378414>
    184c:	3b0b3a05 	blcc	2d0068 <__bss_end__+0x2c6028>
    1850:	0013010b 	andseq	r0, r3, fp, lsl #2
    1854:	000d1200 	andeq	r1, sp, r0, lsl #4
    1858:	0b3a0e03 	bleq	e8506c <__bss_end__+0xe7b02c>
    185c:	13490b3b 	movtne	r0, #39739	; 0x9b3b
    1860:	00000538 	andeq	r0, r0, r8, lsr r5
    1864:	27001513 	smladcs	r0, r3, r5, r1
    1868:	14000019 	strne	r0, [r0], #-25	; 0xffffffe7
    186c:	19270115 	stmdbne	r7!, {r0, r2, r4, r8}
    1870:	13011349 	movwne	r1, #4937	; 0x1349
    1874:	05150000 	ldreq	r0, [r5, #-0]
    1878:	00134900 	andseq	r4, r3, r0, lsl #18
    187c:	01131600 	tsteq	r3, r0, lsl #12
    1880:	050b0e03 	streq	r0, [fp, #-3587]	; 0xfffff1fd
    1884:	053b0b3a 	ldreq	r0, [fp, #-2874]!	; 0xfffff4c6
    1888:	00001301 	andeq	r1, r0, r1, lsl #6
    188c:	03000d17 	movweq	r0, #3351	; 0xd17
    1890:	3b0b3a0e 	blcc	2d00d0 <__bss_end__+0x2c6090>
    1894:	38134905 	ldmdacc	r3, {r0, r2, r8, fp, lr}
    1898:	1800000b 	stmdane	r0, {r0, r1, r3}
    189c:	0e03000d 	cdpeq	0, 0, cr0, cr3, cr13, {0}
    18a0:	053b0b3a 	ldreq	r0, [fp, #-2874]!	; 0xfffff4c6
    18a4:	05381349 	ldreq	r1, [r8, #-841]!	; 0xfffffcb7
    18a8:	13190000 	tstne	r9, #0
    18ac:	0b0e0301 	bleq	3824b8 <__bss_end__+0x378478>
    18b0:	3b0b3a0b 	blcc	2d00e4 <__bss_end__+0x2c60a4>
    18b4:	00130105 	andseq	r0, r3, r5, lsl #2
    18b8:	01131a00 	tsteq	r3, r0, lsl #20
    18bc:	0b3a0b0b 	bleq	e844f0 <__bss_end__+0xe7a4b0>
    18c0:	1301053b 	movwne	r0, #5435	; 0x153b
    18c4:	171b0000 	ldrne	r0, [fp, -r0]
    18c8:	3a0b0b01 	bcc	2c44d4 <__bss_end__+0x2ba494>
    18cc:	01053b0b 	tsteq	r5, fp, lsl #22
    18d0:	1c000013 	stcne	0, cr0, [r0], {19}
    18d4:	0e03000d 	cdpeq	0, 0, cr0, cr3, cr13, {0}
    18d8:	053b0b3a 	ldreq	r0, [fp, #-2874]!	; 0xfffff4c6
    18dc:	00001349 	andeq	r1, r0, r9, asr #6
    18e0:	2701151d 	smladcs	r1, sp, r5, r1
    18e4:	00130119 	andseq	r0, r3, r9, lsl r1
    18e8:	00341e00 	eorseq	r1, r4, r0, lsl #28
    18ec:	0b3a0e03 	bleq	e85100 <__bss_end__+0xe7b0c0>
    18f0:	1349053b 	movtne	r0, #38203	; 0x953b
    18f4:	193c193f 	ldmdbne	ip!, {r0, r1, r2, r3, r4, r5, r8, fp, ip}
    18f8:	341f0000 	ldrcc	r0, [pc], #-0	; 1900 <_start-0x6700>
    18fc:	3a0e0300 	bcc	382504 <__bss_end__+0x3784c4>
    1900:	490b3b0b 	stmdbmi	fp, {r0, r1, r3, r8, r9, fp, ip, sp}
    1904:	3c193f13 	ldccc	15, cr3, [r9], {19}
    1908:	20000019 	andcs	r0, r0, r9, lsl r0
    190c:	193f012e 	ldmdbne	pc!, {r1, r2, r3, r5, r8}	; <UNPREDICTABLE>
    1910:	0b3a0e03 	bleq	e85124 <__bss_end__+0xe7b0e4>
    1914:	19270b3b 	stmdbne	r7!, {r0, r1, r3, r4, r5, r8, r9, fp}
    1918:	06120111 			; <UNDEFINED> instruction: 0x06120111
    191c:	42971840 	addsmi	r1, r7, #64, 16	; 0x400000
    1920:	00130119 	andseq	r0, r3, r9, lsl r1
    1924:	00052100 	andeq	r2, r5, r0, lsl #2
    1928:	0b3a0803 	bleq	e8393c <__bss_end__+0xe798fc>
    192c:	13490b3b 	movtne	r0, #39739	; 0x9b3b
    1930:	00001702 	andeq	r1, r0, r2, lsl #14
    1934:	01828922 	orreq	r8, r2, r2, lsr #18
    1938:	31011101 	tstcc	r1, r1, lsl #2
    193c:	23000013 	movwcs	r0, #19
    1940:	0001828a 	andeq	r8, r1, sl, lsl #5
    1944:	42911802 	addsmi	r1, r1, #131072	; 0x20000
    1948:	24000018 	strcs	r0, [r0], #-24	; 0xffffffe8
    194c:	08030034 	stmdaeq	r3, {r2, r4, r5}
    1950:	0b3b0b3a 	bleq	ec4640 <__bss_end__+0xeba600>
    1954:	18021349 	stmdane	r2, {r0, r3, r6, r8, r9, ip}
    1958:	0b250000 	bleq	941960 <__bss_end__+0x937920>
    195c:	12011101 	andne	r1, r1, #1073741824	; 0x40000000
    1960:	00130106 	andseq	r0, r3, r6, lsl #2
    1964:	00342600 	eorseq	r2, r4, r0, lsl #12
    1968:	0b3a0803 	bleq	e8397c <__bss_end__+0xe7993c>
    196c:	13490b3b 	movtne	r0, #39739	; 0x9b3b
    1970:	00001702 	andeq	r1, r0, r2, lsl #14
    1974:	01828927 	orreq	r8, r2, r7, lsr #18
    1978:	31011100 	mrscc	r1, (UNDEF: 17)
    197c:	28000013 	stmdacs	r0, {r0, r1, r4}
    1980:	193f012e 	ldmdbne	pc!, {r1, r2, r3, r5, r8}	; <UNPREDICTABLE>
    1984:	0b3a0e03 	bleq	e85198 <__bss_end__+0xe7b158>
    1988:	19270b3b 	stmdbne	r7!, {r0, r1, r3, r4, r5, r8, r9, fp}
    198c:	01111349 	tsteq	r1, r9, asr #6
    1990:	18400612 	stmdane	r0, {r1, r4, r9, sl}^
    1994:	01194297 			; <UNDEFINED> instruction: 0x01194297
    1998:	29000013 	stmdbcs	r0, {r0, r1, r4}
    199c:	0e030005 	cdpeq	0, 0, cr0, cr3, cr5, {0}
    19a0:	0b3b0b3a 	bleq	ec4690 <__bss_end__+0xeba650>
    19a4:	17021349 	strne	r1, [r2, -r9, asr #6]
    19a8:	2e2a0000 	cdpcs	0, 2, cr0, cr10, cr0, {0}
    19ac:	3c193f00 	ldccc	15, cr3, [r9], {-0}
    19b0:	030e6e19 	movweq	r6, #60953	; 0xee19
    19b4:	3b0b3a0e 	blcc	2d01f4 <__bss_end__+0x2c61b4>
    19b8:	0000000b 	andeq	r0, r0, fp
    19bc:	25011101 	strcs	r1, [r1, #-257]	; 0xfffffeff
    19c0:	030b130e 	movweq	r1, #45838	; 0xb30e
    19c4:	110e1b0e 	tstne	lr, lr, lsl #22
    19c8:	10061201 	andne	r1, r6, r1, lsl #4
    19cc:	02000017 	andeq	r0, r0, #23
    19d0:	0b0b0024 	bleq	2c1a68 <__bss_end__+0x2b7a28>
    19d4:	08030b3e 	stmdaeq	r3, {r1, r2, r3, r4, r5, r8, r9, fp}
    19d8:	24030000 	strcs	r0, [r3], #-0
    19dc:	3e0b0b00 	vmlacc.f64	d0, d11, d0
    19e0:	000e030b 	andeq	r0, lr, fp, lsl #6
    19e4:	00350400 	eorseq	r0, r5, r0, lsl #8
    19e8:	00001349 	andeq	r1, r0, r9, asr #6
    19ec:	03001605 	movweq	r1, #1541	; 0x605
    19f0:	3b0b3a0e 	blcc	2d0230 <__bss_end__+0x2c61f0>
    19f4:	0013490b 	andseq	r4, r3, fp, lsl #18
    19f8:	00160600 	andseq	r0, r6, r0, lsl #12
    19fc:	0b3a0e03 	bleq	e85210 <__bss_end__+0xe7b1d0>
    1a00:	1349053b 	movtne	r0, #38203	; 0x953b
    1a04:	17070000 	strne	r0, [r7, -r0]
    1a08:	3a0b0b01 	bcc	2c4614 <__bss_end__+0x2ba5d4>
    1a0c:	010b3b0b 	tsteq	fp, fp, lsl #22
    1a10:	08000013 	stmdaeq	r0, {r0, r1, r4}
    1a14:	0e03000d 	cdpeq	0, 0, cr0, cr3, cr13, {0}
    1a18:	0b3b0b3a 	bleq	ec4708 <__bss_end__+0xeba6c8>
    1a1c:	00001349 	andeq	r1, r0, r9, asr #6
    1a20:	49010109 	stmdbmi	r1, {r0, r3, r8}
    1a24:	00130113 	andseq	r0, r3, r3, lsl r1
    1a28:	00210a00 	eoreq	r0, r1, r0, lsl #20
    1a2c:	0b2f1349 	bleq	bc6758 <__bss_end__+0xbbc718>
    1a30:	130b0000 	movwne	r0, #45056	; 0xb000
    1a34:	3a0b0b01 	bcc	2c4640 <__bss_end__+0x2ba600>
    1a38:	010b3b0b 	tsteq	fp, fp, lsl #22
    1a3c:	0c000013 	stceq	0, cr0, [r0], {19}
    1a40:	0e03000d 	cdpeq	0, 0, cr0, cr3, cr13, {0}
    1a44:	0b3b0b3a 	bleq	ec4734 <__bss_end__+0xeba6f4>
    1a48:	0b381349 	bleq	e06774 <__bss_end__+0xdfc734>
    1a4c:	0f0d0000 	svceq	0x000d0000
    1a50:	000b0b00 	andeq	r0, fp, r0, lsl #22
    1a54:	000f0e00 	andeq	r0, pc, r0, lsl #28
    1a58:	13490b0b 	movtne	r0, #39691	; 0x9b0b
    1a5c:	260f0000 	strcs	r0, [pc], -r0
    1a60:	00134900 	andseq	r4, r3, r0, lsl #18
    1a64:	01131000 	tsteq	r3, r0
    1a68:	0b0b0e03 	bleq	2c527c <__bss_end__+0x2bb23c>
    1a6c:	0b3b0b3a 	bleq	ec475c <__bss_end__+0xeba71c>
    1a70:	00001301 	andeq	r1, r0, r1, lsl #6
    1a74:	03000d11 	movweq	r0, #3345	; 0xd11
    1a78:	3b0b3a08 	blcc	2d02a0 <__bss_end__+0x2c6260>
    1a7c:	3813490b 	ldmdacc	r3, {r0, r1, r3, r8, fp, lr}
    1a80:	1200000b 	andne	r0, r0, #11
    1a84:	0e030113 	mcreq	1, 0, r0, cr3, cr3, {0}
    1a88:	0b3a050b 	bleq	e82ebc <__bss_end__+0xe78e7c>
    1a8c:	13010b3b 	movwne	r0, #6971	; 0x1b3b
    1a90:	0d130000 	ldceq	0, cr0, [r3, #-0]
    1a94:	3a0e0300 	bcc	38269c <__bss_end__+0x37865c>
    1a98:	490b3b0b 	stmdbmi	fp, {r0, r1, r3, r8, r9, fp, ip, sp}
    1a9c:	00053813 	andeq	r3, r5, r3, lsl r8
    1aa0:	00151400 	andseq	r1, r5, r0, lsl #8
    1aa4:	00001927 	andeq	r1, r0, r7, lsr #18
    1aa8:	27011515 	smladcs	r1, r5, r5, r1
    1aac:	01134919 	tsteq	r3, r9, lsl r9
    1ab0:	16000013 			; <UNDEFINED> instruction: 0x16000013
    1ab4:	13490005 	movtne	r0, #36869	; 0x9005
    1ab8:	13170000 	tstne	r7, #0
    1abc:	0b0e0301 	bleq	3826c8 <__bss_end__+0x378688>
    1ac0:	3b0b3a05 	blcc	2d02dc <__bss_end__+0x2c629c>
    1ac4:	00130105 	andseq	r0, r3, r5, lsl #2
    1ac8:	000d1800 	andeq	r1, sp, r0, lsl #16
    1acc:	0b3a0e03 	bleq	e852e0 <__bss_end__+0xe7b2a0>
    1ad0:	1349053b 	movtne	r0, #38203	; 0x953b
    1ad4:	00000b38 	andeq	r0, r0, r8, lsr fp
    1ad8:	03000d19 	movweq	r0, #3353	; 0xd19
    1adc:	3b0b3a0e 	blcc	2d031c <__bss_end__+0x2c62dc>
    1ae0:	38134905 	ldmdacc	r3, {r0, r2, r8, fp, lr}
    1ae4:	1a000005 	bne	1b00 <_start-0x6500>
    1ae8:	0e030113 	mcreq	1, 0, r0, cr3, cr3, {0}
    1aec:	0b3a0b0b 	bleq	e84720 <__bss_end__+0xe7a6e0>
    1af0:	1301053b 	movwne	r0, #5435	; 0x153b
    1af4:	131b0000 	tstne	fp, #0
    1af8:	3a0b0b01 	bcc	2c4704 <__bss_end__+0x2ba6c4>
    1afc:	01053b0b 	tsteq	r5, fp, lsl #22
    1b00:	1c000013 	stcne	0, cr0, [r0], {19}
    1b04:	0b0b0117 	bleq	2c1f68 <__bss_end__+0x2b7f28>
    1b08:	053b0b3a 	ldreq	r0, [fp, #-2874]!	; 0xfffff4c6
    1b0c:	00001301 	andeq	r1, r0, r1, lsl #6
    1b10:	03000d1d 	movweq	r0, #3357	; 0xd1d
    1b14:	3b0b3a0e 	blcc	2d0354 <__bss_end__+0x2c6314>
    1b18:	00134905 	andseq	r4, r3, r5, lsl #18
    1b1c:	01151e00 	tsteq	r5, r0, lsl #28
    1b20:	13011927 	movwne	r1, #6439	; 0x1927
    1b24:	341f0000 	ldrcc	r0, [pc], #-0	; 1b2c <_start-0x64d4>
    1b28:	3a0e0300 	bcc	382730 <__bss_end__+0x3786f0>
    1b2c:	49053b0b 	stmdbmi	r5, {r0, r1, r3, r8, r9, fp, ip, sp}
    1b30:	3c193f13 	ldccc	15, cr3, [r9], {19}
    1b34:	20000019 	andcs	r0, r0, r9, lsl r0
    1b38:	0e030034 	mcreq	0, 0, r0, cr3, cr4, {1}
    1b3c:	0b3b0b3a 	bleq	ec482c <__bss_end__+0xeba7ec>
    1b40:	193f1349 	ldmdbne	pc!, {r0, r3, r6, r8, r9, ip}	; <UNPREDICTABLE>
    1b44:	0000193c 	andeq	r1, r0, ip, lsr r9
    1b48:	0b010421 	bleq	42bd4 <__bss_end__+0x38b94>
    1b4c:	3a13490b 	bcc	4d3f80 <__bss_end__+0x4c9f40>
    1b50:	010b3b0b 	tsteq	fp, fp, lsl #22
    1b54:	22000013 	andcs	r0, r0, #19
    1b58:	0e030028 	cdpeq	0, 0, cr0, cr3, cr8, {1}
    1b5c:	00000b1c 	andeq	r0, r0, ip, lsl fp
    1b60:	03003423 	movweq	r3, #1059	; 0x423
    1b64:	3b0b3a0e 	blcc	2d03a4 <__bss_end__+0x2c6364>
    1b68:	1c13490b 			; <UNDEFINED> instruction: 0x1c13490b
    1b6c:	24000006 	strcs	r0, [r0], #-6
    1b70:	193f012e 	ldmdbne	pc!, {r1, r2, r3, r5, r8}	; <UNPREDICTABLE>
    1b74:	0b3a0e03 	bleq	e85388 <__bss_end__+0xe7b348>
    1b78:	19270b3b 	stmdbne	r7!, {r0, r1, r3, r4, r5, r8, r9, fp}
    1b7c:	01111349 	tsteq	r1, r9, asr #6
    1b80:	18400612 	stmdane	r0, {r1, r4, r9, sl}^
    1b84:	01194297 			; <UNDEFINED> instruction: 0x01194297
    1b88:	25000013 	strcs	r0, [r0, #-19]	; 0xffffffed
    1b8c:	00018289 	andeq	r8, r1, r9, lsl #5
    1b90:	13310111 	teqne	r1, #1073741828	; 0x40000004
    1b94:	2e260000 	cdpcs	0, 2, cr0, cr6, cr0, {0}
    1b98:	03193f01 	tsteq	r9, #1, 30
    1b9c:	3b0b3a0e 	blcc	2d03dc <__bss_end__+0x2c639c>
    1ba0:	1119270b 	tstne	r9, fp, lsl #14
    1ba4:	40061201 	andmi	r1, r6, r1, lsl #4
    1ba8:	19429718 	stmdbne	r2, {r3, r4, r8, r9, sl, ip, pc}^
    1bac:	00001301 	andeq	r1, r0, r1, lsl #6
    1bb0:	03000527 	movweq	r0, #1319	; 0x527
    1bb4:	3b0b3a08 	blcc	2d03dc <__bss_end__+0x2c639c>
    1bb8:	0213490b 	andseq	r4, r3, #180224	; 0x2c000
    1bbc:	28000017 	stmdacs	r0, {r0, r1, r2, r4}
    1bc0:	01018289 	smlabbeq	r1, r9, r2, r8
    1bc4:	13310111 	teqne	r1, #1073741828	; 0x40000004
    1bc8:	00001301 	andeq	r1, r0, r1, lsl #6
    1bcc:	01828a29 	orreq	r8, r2, r9, lsr #20
    1bd0:	91180200 	tstls	r8, r0, lsl #4
    1bd4:	00001842 	andeq	r1, r0, r2, asr #16
    1bd8:	0300342a 	movweq	r3, #1066	; 0x42a
    1bdc:	3b0b3a08 	blcc	2d0404 <__bss_end__+0x2c63c4>
    1be0:	0213490b 	andseq	r4, r3, #180224	; 0x2c000
    1be4:	2b000018 	blcs	1c4c <_start-0x63b4>
    1be8:	01018289 	smlabbeq	r1, r9, r2, r8
    1bec:	13310111 	teqne	r1, #1073741828	; 0x40000004
    1bf0:	2e2c0000 	cdpcs	0, 2, cr0, cr12, cr0, {0}
    1bf4:	3a0e0301 	bcc	382800 <__bss_end__+0x3787c0>
    1bf8:	270b3b0b 	strcs	r3, [fp, -fp, lsl #22]
    1bfc:	12011119 	andne	r1, r1, #1073741830	; 0x40000006
    1c00:	97184006 	ldrls	r4, [r8, -r6]
    1c04:	13011942 	movwne	r1, #6466	; 0x1942
    1c08:	052d0000 	streq	r0, [sp, #-0]!
    1c0c:	3a0e0300 	bcc	382814 <__bss_end__+0x3787d4>
    1c10:	490b3b0b 	stmdbmi	fp, {r0, r1, r3, r8, r9, fp, ip, sp}
    1c14:	00170213 	andseq	r0, r7, r3, lsl r2
    1c18:	00352e00 	eorseq	r2, r5, r0, lsl #28
    1c1c:	2e2f0000 	cdpcs	0, 2, cr0, cr15, cr0, {0}
    1c20:	3c193f00 	ldccc	15, cr3, [r9], {-0}
    1c24:	030e6e19 	movweq	r6, #60953	; 0xee19
    1c28:	3b0b3a0e 	blcc	2d0468 <__bss_end__+0x2c6428>
    1c2c:	0000000b 	andeq	r0, r0, fp
    1c30:	25011101 	strcs	r1, [r1, #-257]	; 0xfffffeff
    1c34:	030b130e 	movweq	r1, #45838	; 0xb30e
    1c38:	110e1b0e 	tstne	lr, lr, lsl #22
    1c3c:	10061201 	andne	r1, r6, r1, lsl #4
    1c40:	02000017 	andeq	r0, r0, #23
    1c44:	0b0b0024 	bleq	2c1cdc <__bss_end__+0x2b7c9c>
    1c48:	08030b3e 	stmdaeq	r3, {r1, r2, r3, r4, r5, r8, r9, fp}
    1c4c:	24030000 	strcs	r0, [r3], #-0
    1c50:	3e0b0b00 	vmlacc.f64	d0, d11, d0
    1c54:	000e030b 	andeq	r0, lr, fp, lsl #6
    1c58:	00260400 	eoreq	r0, r6, r0, lsl #8
    1c5c:	00001349 	andeq	r1, r0, r9, asr #6
    1c60:	03001605 	movweq	r1, #1541	; 0x605
    1c64:	3b0b3a0e 	blcc	2d04a4 <__bss_end__+0x2c6464>
    1c68:	0013490b 	andseq	r4, r3, fp, lsl #18
    1c6c:	00160600 	andseq	r0, r6, r0, lsl #12
    1c70:	0b3a0e03 	bleq	e85484 <__bss_end__+0xe7b444>
    1c74:	1349053b 	movtne	r0, #38203	; 0x953b
    1c78:	17070000 	strne	r0, [r7, -r0]
    1c7c:	3a0b0b01 	bcc	2c4888 <__bss_end__+0x2ba848>
    1c80:	010b3b0b 	tsteq	fp, fp, lsl #22
    1c84:	08000013 	stmdaeq	r0, {r0, r1, r4}
    1c88:	0e03000d 	cdpeq	0, 0, cr0, cr3, cr13, {0}
    1c8c:	0b3b0b3a 	bleq	ec497c <__bss_end__+0xeba93c>
    1c90:	00001349 	andeq	r1, r0, r9, asr #6
    1c94:	49010109 	stmdbmi	r1, {r0, r3, r8}
    1c98:	00130113 	andseq	r0, r3, r3, lsl r1
    1c9c:	00210a00 	eoreq	r0, r1, r0, lsl #20
    1ca0:	0b2f1349 	bleq	bc69cc <__bss_end__+0xbbc98c>
    1ca4:	130b0000 	movwne	r0, #45056	; 0xb000
    1ca8:	3a0b0b01 	bcc	2c48b4 <__bss_end__+0x2ba874>
    1cac:	010b3b0b 	tsteq	fp, fp, lsl #22
    1cb0:	0c000013 	stceq	0, cr0, [r0], {19}
    1cb4:	0e03000d 	cdpeq	0, 0, cr0, cr3, cr13, {0}
    1cb8:	0b3b0b3a 	bleq	ec49a8 <__bss_end__+0xeba968>
    1cbc:	0b381349 	bleq	e069e8 <__bss_end__+0xdfc9a8>
    1cc0:	0f0d0000 	svceq	0x000d0000
    1cc4:	000b0b00 	andeq	r0, fp, r0, lsl #22
    1cc8:	000f0e00 	andeq	r0, pc, r0, lsl #28
    1ccc:	13490b0b 	movtne	r0, #39691	; 0x9b0b
    1cd0:	130f0000 	movwne	r0, #61440	; 0xf000
    1cd4:	0b0e0301 	bleq	3828e0 <__bss_end__+0x3788a0>
    1cd8:	3b0b3a0b 	blcc	2d050c <__bss_end__+0x2c64cc>
    1cdc:	0013010b 	andseq	r0, r3, fp, lsl #2
    1ce0:	000d1000 	andeq	r1, sp, r0
    1ce4:	0b3a0803 	bleq	e83cf8 <__bss_end__+0xe79cb8>
    1ce8:	13490b3b 	movtne	r0, #39739	; 0x9b3b
    1cec:	00000b38 	andeq	r0, r0, r8, lsr fp
    1cf0:	03011311 	movweq	r1, #4881	; 0x1311
    1cf4:	3a050b0e 	bcc	144934 <__bss_end__+0x13a8f4>
    1cf8:	010b3b0b 	tsteq	fp, fp, lsl #22
    1cfc:	12000013 	andne	r0, r0, #19
    1d00:	0e03000d 	cdpeq	0, 0, cr0, cr3, cr13, {0}
    1d04:	0b3b0b3a 	bleq	ec49f4 <__bss_end__+0xeba9b4>
    1d08:	05381349 	ldreq	r1, [r8, #-841]!	; 0xfffffcb7
    1d0c:	15130000 	ldrne	r0, [r3, #-0]
    1d10:	00192700 	andseq	r2, r9, r0, lsl #14
    1d14:	01151400 	tsteq	r5, r0, lsl #8
    1d18:	13491927 	movtne	r1, #39207	; 0x9927
    1d1c:	00001301 	andeq	r1, r0, r1, lsl #6
    1d20:	49000515 	stmdbmi	r0, {r0, r2, r4, r8, sl}
    1d24:	16000013 			; <UNDEFINED> instruction: 0x16000013
    1d28:	0e030113 	mcreq	1, 0, r0, cr3, cr3, {0}
    1d2c:	0b3a050b 	bleq	e83160 <__bss_end__+0xe79120>
    1d30:	1301053b 	movwne	r0, #5435	; 0x153b
    1d34:	0d170000 	ldceq	0, cr0, [r7, #-0]
    1d38:	3a0e0300 	bcc	382940 <__bss_end__+0x378900>
    1d3c:	49053b0b 	stmdbmi	r5, {r0, r1, r3, r8, r9, fp, ip, sp}
    1d40:	000b3813 	andeq	r3, fp, r3, lsl r8
    1d44:	000d1800 	andeq	r1, sp, r0, lsl #16
    1d48:	0b3a0e03 	bleq	e8555c <__bss_end__+0xe7b51c>
    1d4c:	1349053b 	movtne	r0, #38203	; 0x953b
    1d50:	00000538 	andeq	r0, r0, r8, lsr r5
    1d54:	03011319 	movweq	r1, #4889	; 0x1319
    1d58:	3a0b0b0e 	bcc	2c4998 <__bss_end__+0x2ba958>
    1d5c:	01053b0b 	tsteq	r5, fp, lsl #22
    1d60:	1a000013 	bne	1db4 <_start-0x624c>
    1d64:	0b0b0113 	bleq	2c21b8 <__bss_end__+0x2b8178>
    1d68:	053b0b3a 	ldreq	r0, [fp, #-2874]!	; 0xfffff4c6
    1d6c:	00001301 	andeq	r1, r0, r1, lsl #6
    1d70:	0b01171b 	bleq	479e4 <__bss_end__+0x3d9a4>
    1d74:	3b0b3a0b 	blcc	2d05a8 <__bss_end__+0x2c6568>
    1d78:	00130105 	andseq	r0, r3, r5, lsl #2
    1d7c:	000d1c00 	andeq	r1, sp, r0, lsl #24
    1d80:	0b3a0e03 	bleq	e85594 <__bss_end__+0xe7b554>
    1d84:	1349053b 	movtne	r0, #38203	; 0x953b
    1d88:	151d0000 	ldrne	r0, [sp, #-0]
    1d8c:	01192701 	tsteq	r9, r1, lsl #14
    1d90:	1e000013 	mcrne	0, 0, r0, cr0, cr3, {0}
    1d94:	0e030034 	mcreq	0, 0, r0, cr3, cr4, {1}
    1d98:	053b0b3a 	ldreq	r0, [fp, #-2874]!	; 0xfffff4c6
    1d9c:	193f1349 	ldmdbne	pc!, {r0, r3, r6, r8, r9, ip}	; <UNPREDICTABLE>
    1da0:	0000193c 	andeq	r1, r0, ip, lsr r9
    1da4:	0300341f 	movweq	r3, #1055	; 0x41f
    1da8:	3b0b3a0e 	blcc	2d05e8 <__bss_end__+0x2c65a8>
    1dac:	3f13490b 	svccc	0x0013490b
    1db0:	00193c19 	andseq	r3, r9, r9, lsl ip
    1db4:	01042000 	mrseq	r2, (UNDEF: 4)
    1db8:	13490b0b 	movtne	r0, #39691	; 0x9b0b
    1dbc:	0b3b0b3a 	bleq	ec4aac <__bss_end__+0xebaa6c>
    1dc0:	00001301 	andeq	r1, r0, r1, lsl #6
    1dc4:	03002821 	movweq	r2, #2081	; 0x821
    1dc8:	000b1c0e 	andeq	r1, fp, lr, lsl #24
    1dcc:	00342200 	eorseq	r2, r4, r0, lsl #4
    1dd0:	0b3a0e03 	bleq	e855e4 <__bss_end__+0xe7b5a4>
    1dd4:	13490b3b 	movtne	r0, #39739	; 0x9b3b
    1dd8:	0000061c 	andeq	r0, r0, ip, lsl r6
    1ddc:	3f012e23 	svccc	0x00012e23
    1de0:	3a0e0319 	bcc	382a4c <__bss_end__+0x378a0c>
    1de4:	270b3b0b 	strcs	r3, [fp, -fp, lsl #22]
    1de8:	11134919 	tstne	r3, r9, lsl r9
    1dec:	40061201 	andmi	r1, r6, r1, lsl #4
    1df0:	19429718 	stmdbne	r2, {r3, r4, r8, r9, sl, ip, pc}^
    1df4:	00001301 	andeq	r1, r0, r1, lsl #6
    1df8:	03000524 	movweq	r0, #1316	; 0x524
    1dfc:	3b0b3a08 	blcc	2d0624 <__bss_end__+0x2c65e4>
    1e00:	0213490b 	andseq	r4, r3, #180224	; 0x2c000
    1e04:	25000017 	strcs	r0, [r0, #-23]	; 0xffffffe9
    1e08:	0e030034 	mcreq	0, 0, r0, cr3, cr4, {1}
    1e0c:	0b3b0b3a 	bleq	ec4afc <__bss_end__+0xebaabc>
    1e10:	17021349 	strne	r1, [r2, -r9, asr #6]
    1e14:	34260000 	strtcc	r0, [r6], #-0
    1e18:	3a080300 	bcc	202a20 <__bss_end__+0x1f89e0>
    1e1c:	490b3b0b 	stmdbmi	fp, {r0, r1, r3, r8, r9, fp, ip, sp}
    1e20:	00170213 	andseq	r0, r7, r3, lsl r2
    1e24:	82892700 	addhi	r2, r9, #0, 14
    1e28:	01110101 	tsteq	r1, r1, lsl #2
    1e2c:	00001331 	andeq	r1, r0, r1, lsr r3
    1e30:	01828a28 	orreq	r8, r2, r8, lsr #20
    1e34:	91180200 	tstls	r8, r0, lsl #4
    1e38:	00001842 	andeq	r1, r0, r2, asr #16
    1e3c:	3f012e29 	svccc	0x00012e29
    1e40:	3a0e0319 	bcc	382aac <__bss_end__+0x378a6c>
    1e44:	270b3b0b 	strcs	r3, [fp, -fp, lsl #22]
    1e48:	12011119 	andne	r1, r1, #1073741830	; 0x40000006
    1e4c:	97184006 	ldrls	r4, [r8, -r6]
    1e50:	13011942 	movwne	r1, #6466	; 0x1942
    1e54:	892a0000 	stmdbhi	sl!, {}	; <UNPREDICTABLE>
    1e58:	11010182 	smlabbne	r1, r2, r1, r0
    1e5c:	01133101 	tsteq	r3, r1, lsl #2
    1e60:	2b000013 	blcs	1eb4 <_start-0x614c>
    1e64:	00018289 	andeq	r8, r1, r9, lsl #5
    1e68:	13310111 	teqne	r1, #1073741828	; 0x40000004
    1e6c:	052c0000 	streq	r0, [ip, #-0]!
    1e70:	3a0e0300 	bcc	382a78 <__bss_end__+0x378a38>
    1e74:	490b3b0b 	stmdbmi	fp, {r0, r1, r3, r8, r9, fp, ip, sp}
    1e78:	00170213 	andseq	r0, r7, r3, lsl r2
    1e7c:	00342d00 	eorseq	r2, r4, r0, lsl #26
    1e80:	0b3a0803 	bleq	e83e94 <__bss_end__+0xe79e54>
    1e84:	13490b3b 	movtne	r0, #39739	; 0x9b3b
    1e88:	00001802 	andeq	r1, r0, r2, lsl #16
    1e8c:	3f002e2e 	svccc	0x00002e2e
    1e90:	6e193c19 	mrcvs	12, 0, r3, cr9, cr9, {0}
    1e94:	3a0e030e 	bcc	382ad4 <__bss_end__+0x378a94>
    1e98:	000b3b0b 	andeq	r3, fp, fp, lsl #22
    1e9c:	11010000 	mrsne	r0, (UNDEF: 1)
    1ea0:	130e2501 	movwne	r2, #58625	; 0xe501
    1ea4:	1b0e030b 	blne	382ad8 <__bss_end__+0x378a98>
    1ea8:	1201110e 	andne	r1, r1, #-2147483645	; 0x80000003
    1eac:	00171006 	andseq	r1, r7, r6
    1eb0:	00240200 	eoreq	r0, r4, r0, lsl #4
    1eb4:	0b3e0b0b 	bleq	f84ae8 <__bss_end__+0xf7aaa8>
    1eb8:	00000803 	andeq	r0, r0, r3, lsl #16
    1ebc:	0b002403 	bleq	aed0 <__bss_end__+0xe90>
    1ec0:	030b3e0b 	movweq	r3, #48651	; 0xbe0b
    1ec4:	0400000e 	streq	r0, [r0], #-14
    1ec8:	0e030016 	mcreq	0, 0, r0, cr3, cr6, {0}
    1ecc:	0b3b0b3a 	bleq	ec4bbc <__bss_end__+0xebab7c>
    1ed0:	00001349 	andeq	r1, r0, r9, asr #6
    1ed4:	03001605 	movweq	r1, #1541	; 0x605
    1ed8:	3b0b3a0e 	blcc	2d0718 <__bss_end__+0x2c66d8>
    1edc:	00134905 	andseq	r4, r3, r5, lsl #18
    1ee0:	01170600 	tsteq	r7, r0, lsl #12
    1ee4:	0b3a0b0b 	bleq	e84b18 <__bss_end__+0xe7aad8>
    1ee8:	13010b3b 	movwne	r0, #6971	; 0x1b3b
    1eec:	0d070000 	stceq	0, cr0, [r7, #-0]
    1ef0:	3a0e0300 	bcc	382af8 <__bss_end__+0x378ab8>
    1ef4:	490b3b0b 	stmdbmi	fp, {r0, r1, r3, r8, r9, fp, ip, sp}
    1ef8:	08000013 	stmdaeq	r0, {r0, r1, r4}
    1efc:	13490101 	movtne	r0, #37121	; 0x9101
    1f00:	00001301 	andeq	r1, r0, r1, lsl #6
    1f04:	49002109 	stmdbmi	r0, {r0, r3, r8, sp}
    1f08:	000b2f13 	andeq	r2, fp, r3, lsl pc
    1f0c:	01130a00 	tsteq	r3, r0, lsl #20
    1f10:	0b3a0b0b 	bleq	e84b44 <__bss_end__+0xe7ab04>
    1f14:	13010b3b 	movwne	r0, #6971	; 0x1b3b
    1f18:	0d0b0000 	stceq	0, cr0, [fp, #-0]
    1f1c:	3a0e0300 	bcc	382b24 <__bss_end__+0x378ae4>
    1f20:	490b3b0b 	stmdbmi	fp, {r0, r1, r3, r8, r9, fp, ip, sp}
    1f24:	000b3813 	andeq	r3, fp, r3, lsl r8
    1f28:	000f0c00 	andeq	r0, pc, r0, lsl #24
    1f2c:	00000b0b 	andeq	r0, r0, fp, lsl #22
    1f30:	0b000f0d 	bleq	5b6c <_start-0x2494>
    1f34:	0013490b 	andseq	r4, r3, fp, lsl #18
    1f38:	00260e00 	eoreq	r0, r6, r0, lsl #28
    1f3c:	00001349 	andeq	r1, r0, r9, asr #6
    1f40:	0301130f 	movweq	r1, #4879	; 0x130f
    1f44:	3a0b0b0e 	bcc	2c4b84 <__bss_end__+0x2bab44>
    1f48:	010b3b0b 	tsteq	fp, fp, lsl #22
    1f4c:	10000013 	andne	r0, r0, r3, lsl r0
    1f50:	0803000d 	stmdaeq	r3, {r0, r2, r3}
    1f54:	0b3b0b3a 	bleq	ec4c44 <__bss_end__+0xebac04>
    1f58:	0b381349 	bleq	e06c84 <__bss_end__+0xdfcc44>
    1f5c:	13110000 	tstne	r1, #0
    1f60:	0b0e0301 	bleq	382b6c <__bss_end__+0x378b2c>
    1f64:	3b0b3a05 	blcc	2d0780 <__bss_end__+0x2c6740>
    1f68:	0013010b 	andseq	r0, r3, fp, lsl #2
    1f6c:	000d1200 	andeq	r1, sp, r0, lsl #4
    1f70:	0b3a0e03 	bleq	e85784 <__bss_end__+0xe7b744>
    1f74:	13490b3b 	movtne	r0, #39739	; 0x9b3b
    1f78:	00000538 	andeq	r0, r0, r8, lsr r5
    1f7c:	27001513 	smladcs	r0, r3, r5, r1
    1f80:	14000019 	strne	r0, [r0], #-25	; 0xffffffe7
    1f84:	19270115 	stmdbne	r7!, {r0, r2, r4, r8}
    1f88:	13011349 	movwne	r1, #4937	; 0x1349
    1f8c:	05150000 	ldreq	r0, [r5, #-0]
    1f90:	00134900 	andseq	r4, r3, r0, lsl #18
    1f94:	01131600 	tsteq	r3, r0, lsl #12
    1f98:	050b0e03 	streq	r0, [fp, #-3587]	; 0xfffff1fd
    1f9c:	053b0b3a 	ldreq	r0, [fp, #-2874]!	; 0xfffff4c6
    1fa0:	00001301 	andeq	r1, r0, r1, lsl #6
    1fa4:	03000d17 	movweq	r0, #3351	; 0xd17
    1fa8:	3b0b3a0e 	blcc	2d07e8 <__bss_end__+0x2c67a8>
    1fac:	38134905 	ldmdacc	r3, {r0, r2, r8, fp, lr}
    1fb0:	1800000b 	stmdane	r0, {r0, r1, r3}
    1fb4:	0e03000d 	cdpeq	0, 0, cr0, cr3, cr13, {0}
    1fb8:	053b0b3a 	ldreq	r0, [fp, #-2874]!	; 0xfffff4c6
    1fbc:	05381349 	ldreq	r1, [r8, #-841]!	; 0xfffffcb7
    1fc0:	13190000 	tstne	r9, #0
    1fc4:	0b0e0301 	bleq	382bd0 <__bss_end__+0x378b90>
    1fc8:	3b0b3a0b 	blcc	2d07fc <__bss_end__+0x2c67bc>
    1fcc:	00130105 	andseq	r0, r3, r5, lsl #2
    1fd0:	01131a00 	tsteq	r3, r0, lsl #20
    1fd4:	0b3a0b0b 	bleq	e84c08 <__bss_end__+0xe7abc8>
    1fd8:	1301053b 	movwne	r0, #5435	; 0x153b
    1fdc:	171b0000 	ldrne	r0, [fp, -r0]
    1fe0:	3a0b0b01 	bcc	2c4bec <__bss_end__+0x2babac>
    1fe4:	01053b0b 	tsteq	r5, fp, lsl #22
    1fe8:	1c000013 	stcne	0, cr0, [r0], {19}
    1fec:	0e03000d 	cdpeq	0, 0, cr0, cr3, cr13, {0}
    1ff0:	053b0b3a 	ldreq	r0, [fp, #-2874]!	; 0xfffff4c6
    1ff4:	00001349 	andeq	r1, r0, r9, asr #6
    1ff8:	2701151d 	smladcs	r1, sp, r5, r1
    1ffc:	00130119 	andseq	r0, r3, r9, lsl r1
    2000:	00341e00 	eorseq	r1, r4, r0, lsl #28
    2004:	0b3a0e03 	bleq	e85818 <__bss_end__+0xe7b7d8>
    2008:	1349053b 	movtne	r0, #38203	; 0x953b
    200c:	193c193f 	ldmdbne	ip!, {r0, r1, r2, r3, r4, r5, r8, fp, ip}
    2010:	341f0000 	ldrcc	r0, [pc], #-0	; 2018 <_start-0x5fe8>
    2014:	3a0e0300 	bcc	382c1c <__bss_end__+0x378bdc>
    2018:	490b3b0b 	stmdbmi	fp, {r0, r1, r3, r8, r9, fp, ip, sp}
    201c:	3c193f13 	ldccc	15, cr3, [r9], {19}
    2020:	20000019 	andcs	r0, r0, r9, lsl r0
    2024:	0e030034 	mcreq	0, 0, r0, cr3, cr4, {1}
    2028:	0b3b0b3a 	bleq	ec4d18 <__bss_end__+0xebacd8>
    202c:	18021349 	stmdane	r2, {r0, r3, r6, r8, r9, ip}
    2030:	2e210000 	cdpcs	0, 2, cr0, cr1, cr0, {0}
    2034:	03193f01 	tsteq	r9, #1, 30
    2038:	3b0b3a0e 	blcc	2d0878 <__bss_end__+0x2c6838>
    203c:	1119270b 	tstne	r9, fp, lsl #14
    2040:	40061201 	andmi	r1, r6, r1, lsl #4
    2044:	19429718 	stmdbne	r2, {r3, r4, r8, r9, sl, ip, pc}^
    2048:	00001301 	andeq	r1, r0, r1, lsl #6
    204c:	03000522 	movweq	r0, #1314	; 0x522
    2050:	3b0b3a08 	blcc	2d0878 <__bss_end__+0x2c6838>
    2054:	0213490b 	andseq	r4, r3, #180224	; 0x2c000
    2058:	23000018 	movwcs	r0, #24
    205c:	193f002e 	ldmdbne	pc!, {r1, r2, r3, r5}	; <UNPREDICTABLE>
    2060:	0b3a0e03 	bleq	e85874 <__bss_end__+0xe7b834>
    2064:	19270b3b 	stmdbne	r7!, {r0, r1, r3, r4, r5, r8, r9, fp}
    2068:	06120111 			; <UNDEFINED> instruction: 0x06120111
    206c:	42971840 	addsmi	r1, r7, #64, 16	; 0x400000
    2070:	24000019 	strcs	r0, [r0], #-25	; 0xffffffe7
    2074:	193f012e 	ldmdbne	pc!, {r1, r2, r3, r5, r8}	; <UNPREDICTABLE>
    2078:	0b3a0e03 	bleq	e8588c <__bss_end__+0xe7b84c>
    207c:	19270b3b 	stmdbne	r7!, {r0, r1, r3, r4, r5, r8, r9, fp}
    2080:	01111349 	tsteq	r1, r9, asr #6
    2084:	18400612 	stmdane	r0, {r1, r4, r9, sl}^
    2088:	01194297 			; <UNDEFINED> instruction: 0x01194297
    208c:	25000013 	strcs	r0, [r0, #-19]	; 0xffffffed
    2090:	0e030005 	cdpeq	0, 0, cr0, cr3, cr5, {0}
    2094:	0b3b0b3a 	bleq	ec4d84 <__bss_end__+0xebad44>
    2098:	17021349 	strne	r1, [r2, -r9, asr #6]
    209c:	34260000 	strtcc	r0, [r6], #-0
    20a0:	490e0300 	stmdbmi	lr, {r8, r9}
    20a4:	02193413 	andseq	r3, r9, #318767104	; 0x13000000
    20a8:	27000018 	smladcs	r0, r8, r0, r0
    20ac:	08030034 	stmdaeq	r3, {r2, r4, r5}
    20b0:	0b3b0b3a 	bleq	ec4da0 <__bss_end__+0xebad60>
    20b4:	17021349 	strne	r1, [r2, -r9, asr #6]
    20b8:	89280000 	stmdbhi	r8!, {}	; <UNPREDICTABLE>
    20bc:	11010182 	smlabbne	r1, r2, r1, r0
    20c0:	01133101 	tsteq	r3, r1, lsl #2
    20c4:	29000013 	stmdbcs	r0, {r0, r1, r4}
    20c8:	0001828a 	andeq	r8, r1, sl, lsl #5
    20cc:	42911802 	addsmi	r1, r1, #131072	; 0x20000
    20d0:	2a000018 	bcs	2138 <_start-0x5ec8>
    20d4:	00018289 	andeq	r8, r1, r9, lsl #5
    20d8:	13310111 	teqne	r1, #1073741828	; 0x40000004
    20dc:	052b0000 	streq	r0, [fp, #-0]!
    20e0:	3a080300 	bcc	202ce8 <__bss_end__+0x1f8ca8>
    20e4:	490b3b0b 	stmdbmi	fp, {r0, r1, r3, r8, r9, fp, ip, sp}
    20e8:	00170213 	andseq	r0, r7, r3, lsl r2
    20ec:	00342c00 	eorseq	r2, r4, r0, lsl #24
    20f0:	0b3a0e03 	bleq	e85904 <__bss_end__+0xe7b8c4>
    20f4:	13490b3b 	movtne	r0, #39739	; 0x9b3b
    20f8:	00001702 	andeq	r1, r0, r2, lsl #14
    20fc:	3f002e2d 	svccc	0x00002e2d
    2100:	3a0e0319 	bcc	382d6c <__bss_end__+0x378d2c>
    2104:	270b3b0b 	strcs	r3, [fp, -fp, lsl #22]
    2108:	11134919 	tstne	r3, r9, lsl r9
    210c:	40061201 	andmi	r1, r6, r1, lsl #4
    2110:	19429718 	stmdbne	r2, {r3, r4, r8, r9, sl, ip, pc}^
    2114:	2e2e0000 	cdpcs	0, 2, cr0, cr14, cr0, {0}
    2118:	3c193f00 	ldccc	15, cr3, [r9], {-0}
    211c:	030e6e19 	movweq	r6, #60953	; 0xee19
    2120:	3b0b3a0e 	blcc	2d0960 <__bss_end__+0x2c6920>
    2124:	0000000b 	andeq	r0, r0, fp

Disassembly of section .debug_loc:

00000000 <.debug_loc>:
       0:	00000048 	andeq	r0, r0, r8, asr #32
       4:	00000053 	andeq	r0, r0, r3, asr r0
       8:	53500001 	cmppl	r0, #1
       c:	98000000 	stmdals	r0, {}	; <UNPREDICTABLE>
      10:	01000000 	mrseq	r0, (UNDEF: 0)
      14:	00005400 	andeq	r5, r0, r0, lsl #8
      18:	00000000 	andeq	r0, r0, r0
      1c:	00740000 	rsbseq	r0, r4, r0
      20:	00800000 	addeq	r0, r0, r0
      24:	00010000 	andeq	r0, r1, r0
      28:	00009450 	andeq	r9, r0, r0, asr r4
      2c:	00009b00 	andeq	r9, r0, r0, lsl #22
      30:	50000100 	andpl	r0, r0, r0, lsl #2
      34:	0000009b 	muleq	r0, fp, r0
      38:	000000d0 	ldrdeq	r0, [r0], -r0	; <UNPREDICTABLE>
      3c:	00540001 	subseq	r0, r4, r1
      40:	00000000 	andeq	r0, r0, r0
      44:	40000000 	andmi	r0, r0, r0
      48:	68000007 	stmdavs	r0, {r0, r1, r2}
      4c:	01000007 	tsteq	r0, r7
      50:	00005500 	andeq	r5, r0, r0, lsl #10
      54:	00000000 	andeq	r0, r0, r0
      58:	07480000 	strbeq	r0, [r8, -r0]
      5c:	076c0000 	strbeq	r0, [ip, -r0]!
      60:	00010000 	andeq	r0, r1, r0
      64:	00000056 	andeq	r0, r0, r6, asr r0
      68:	00000000 	andeq	r0, r0, r0
      6c:	00076000 	andeq	r6, r7, r0
      70:	00077000 	andeq	r7, r7, r0
      74:	30000200 	andcc	r0, r0, r0, lsl #4
      78:	0007709f 	muleq	r7, pc, r0	; <UNPREDICTABLE>
      7c:	00087800 	andeq	r7, r8, r0, lsl #16
      80:	56000100 	strpl	r0, [r0], -r0, lsl #2
	...
      8c:	00000760 	andeq	r0, r0, r0, ror #14
      90:	00000770 	andeq	r0, r0, r0, ror r7
      94:	9f300002 	svcls	0x00300002
      98:	00000770 	andeq	r0, r0, r0, ror r7
      9c:	00000878 	andeq	r0, r0, r8, ror r8
      a0:	00550001 	subseq	r0, r5, r1
      a4:	00000000 	andeq	r0, r0, r0
      a8:	14000000 	strne	r0, [r0], #-0
      ac:	40000005 	andmi	r0, r0, r5
      b0:	01000005 	tsteq	r0, r5
      b4:	05405000 	strbeq	r5, [r0, #-0]
      b8:	06380000 	ldrteq	r0, [r8], -r0
      bc:	00010000 	andeq	r0, r1, r0
      c0:	00063855 	andeq	r3, r6, r5, asr r8
      c4:	00063b00 	andeq	r3, r6, r0, lsl #22
      c8:	50000100 	andpl	r0, r0, r0, lsl #2
      cc:	0000063b 	andeq	r0, r0, fp, lsr r6
      d0:	00000654 	andeq	r0, r0, r4, asr r6
      d4:	01f30004 	mvnseq	r0, r4
      d8:	06549f50 	usaxeq	r9, r4, r0
      dc:	072c0000 	streq	r0, [ip, -r0]!
      e0:	00010000 	andeq	r0, r1, r0
      e4:	00000055 	andeq	r0, r0, r5, asr r0
      e8:	00000000 	andeq	r0, r0, r0
      ec:	00051400 	andeq	r1, r5, r0, lsl #8
      f0:	00054300 	andeq	r4, r5, r0, lsl #6
      f4:	51000100 	mrspl	r0, (UNDEF: 16)
      f8:	00000543 	andeq	r0, r0, r3, asr #10
      fc:	00000638 	andeq	r0, r0, r8, lsr r6
     100:	38590001 	ldmdacc	r9, {r0}^
     104:	3b000006 	blcc	124 <_start-0x7edc>
     108:	01000006 	tsteq	r0, r6
     10c:	063b5100 	ldrteq	r5, [fp], -r0, lsl #2
     110:	06540000 	ldrbeq	r0, [r4], -r0
     114:	00040000 	andeq	r0, r4, r0
     118:	9f5101f3 	svcls	0x005101f3
     11c:	00000654 	andeq	r0, r0, r4, asr r6
     120:	0000072c 	andeq	r0, r0, ip, lsr #14
     124:	00590001 	subseq	r0, r9, r1
     128:	00000000 	andeq	r0, r0, r0
     12c:	14000000 	strne	r0, [r0], #-0
     130:	43000005 	movwmi	r0, #5
     134:	01000005 	tsteq	r0, r5
     138:	05435200 	strbeq	r5, [r3, #-512]	; 0xfffffe00
     13c:	06380000 	ldrteq	r0, [r8], -r0
     140:	00010000 	andeq	r0, r1, r0
     144:	00063858 	andeq	r3, r6, r8, asr r8
     148:	00063b00 	andeq	r3, r6, r0, lsl #22
     14c:	52000100 	andpl	r0, r0, #0, 2
     150:	0000063b 	andeq	r0, r0, fp, lsr r6
     154:	00000654 	andeq	r0, r0, r4, asr r6
     158:	01f30004 	mvnseq	r0, r4
     15c:	06549f52 	usaxeq	r9, r4, r2
     160:	072c0000 	streq	r0, [ip, -r0]!
     164:	00010000 	andeq	r0, r1, r0
     168:	00000058 	andeq	r0, r0, r8, asr r0
     16c:	00000000 	andeq	r0, r0, r0
     170:	00051400 	andeq	r1, r5, r0, lsl #8
     174:	00052400 	andeq	r2, r5, r0, lsl #8
     178:	53000100 	movwpl	r0, #256	; 0x100
     17c:	00000524 	andeq	r0, r0, r4, lsr #10
     180:	000005c4 	andeq	r0, r0, r4, asr #11
     184:	c4570001 	ldrbgt	r0, [r7], #-1
     188:	38000005 	stmdacc	r0, {r0, r2}
     18c:	04000006 	streq	r0, [r0], #-6
     190:	5301f300 	movwpl	pc, #4864	; 0x1300	; <UNPREDICTABLE>
     194:	0006389f 	muleq	r6, pc, r8	; <UNPREDICTABLE>
     198:	0006dc00 	andeq	sp, r6, r0, lsl #24
     19c:	57000100 	strpl	r0, [r0, -r0, lsl #2]
     1a0:	000006dc 	ldrdeq	r0, [r0], -ip
     1a4:	0000072c 	andeq	r0, r0, ip, lsr #14
     1a8:	01f30004 	mvnseq	r0, r4
     1ac:	00009f53 	andeq	r9, r0, r3, asr pc
     1b0:	00000000 	andeq	r0, r0, r0
     1b4:	05200000 	streq	r0, [r0, #-0]!
     1b8:	057c0000 	ldrbeq	r0, [ip, #-0]!
     1bc:	00020000 	andeq	r0, r2, r0
     1c0:	057c9f30 	ldrbeq	r9, [ip, #-3888]!	; 0xfffff0d0
     1c4:	06100000 	ldreq	r0, [r0], -r0
     1c8:	00010000 	andeq	r0, r1, r0
     1cc:	00063854 	andeq	r3, r6, r4, asr r8
     1d0:	0006dc00 	andeq	sp, r6, r0, lsl #24
     1d4:	30000200 	andcc	r0, r0, r0, lsl #4
     1d8:	0006dc9f 	muleq	r6, pc, ip	; <UNPREDICTABLE>
     1dc:	00072c00 	andeq	r2, r7, r0, lsl #24
     1e0:	54000100 	strpl	r0, [r0], #-256	; 0xffffff00
	...
     1ec:	00000520 	andeq	r0, r0, r0, lsr #10
     1f0:	00000610 	andeq	r0, r0, r0, lsl r6
     1f4:	9f300002 	svcls	0x00300002
     1f8:	00000610 	andeq	r0, r0, r0, lsl r6
     1fc:	00000614 	andeq	r0, r0, r4, lsl r6
     200:	14500001 	ldrbne	r0, [r0], #-1
     204:	38000006 	stmdacc	r0, {r1, r2}
     208:	01000006 	tsteq	r0, r6
     20c:	06385400 	ldrteq	r5, [r8], -r0, lsl #8
     210:	072c0000 	streq	r0, [ip, -r0]!
     214:	00020000 	andeq	r0, r2, r0
     218:	00009f30 	andeq	r9, r0, r0, lsr pc
     21c:	00000000 	andeq	r0, r0, r0
     220:	05580000 	ldrbeq	r0, [r8, #-0]
     224:	05880000 	streq	r0, [r8]
     228:	00010000 	andeq	r0, r1, r0
     22c:	00058853 	andeq	r8, r5, r3, asr r8
     230:	0005af00 	andeq	sl, r5, r0, lsl #30
     234:	74000200 	strvc	r0, [r0], #-512	; 0xfffffe00
     238:	0005af04 	andeq	sl, r5, r4, lsl #30
     23c:	00063800 	andeq	r3, r6, r0, lsl #16
     240:	76000400 	strvc	r0, [r0], -r0, lsl #8
     244:	549f7dc8 	ldrpl	r7, [pc], #3528	; 24c <_start-0x7db4>
     248:	5b000006 	blpl	268 <_start-0x7d98>
     24c:	01000006 	tsteq	r0, r6
     250:	065b5300 	ldrbeq	r5, [fp], -r0, lsl #6
     254:	06880000 	streq	r0, [r8], r0
     258:	00040000 	andeq	r0, r4, r0
     25c:	9f7dc876 	svcls	0x007dc876
     260:	00000688 	andeq	r0, r0, r8, lsl #13
     264:	0000068f 	andeq	r0, r0, pc, lsl #13
     268:	8f530001 	svchi	0x00530001
     26c:	2c000006 	stccs	0, cr0, [r0], {6}
     270:	04000007 	streq	r0, [r0], #-7
     274:	7dc87600 	stclvc	6, cr7, [r8]
     278:	0000009f 	muleq	r0, pc, r0	; <UNPREDICTABLE>
     27c:	00000000 	andeq	r0, r0, r0
     280:	00055c00 	andeq	r5, r5, r0, lsl #24
     284:	00063800 	andeq	r3, r6, r0, lsl #16
     288:	56000100 	strpl	r0, [r0], -r0, lsl #2
     28c:	00000654 	andeq	r0, r0, r4, asr r6
     290:	0000072c 	andeq	r0, r0, ip, lsr #14
     294:	00560001 	subseq	r0, r6, r1
     298:	00000000 	andeq	r0, r0, r0
     29c:	5c000000 	stcpl	0, cr0, [r0], {-0}
     2a0:	73000004 	movwvc	r0, #4
     2a4:	01000004 	tsteq	r0, r4
     2a8:	04735000 	ldrbteq	r5, [r3], #-0
     2ac:	05140000 	ldreq	r0, [r4, #-0]
     2b0:	00010000 	andeq	r0, r1, r0
     2b4:	00000055 	andeq	r0, r0, r5, asr r0
     2b8:	00000000 	andeq	r0, r0, r0
     2bc:	00045c00 	andeq	r5, r4, r0, lsl #24
     2c0:	00047300 	andeq	r7, r4, r0, lsl #6
     2c4:	51000100 	mrspl	r0, (UNDEF: 16)
     2c8:	00000473 	andeq	r0, r0, r3, ror r4
     2cc:	00000514 	andeq	r0, r0, r4, lsl r5
     2d0:	00580001 	subseq	r0, r8, r1
     2d4:	00000000 	andeq	r0, r0, r0
     2d8:	5c000000 	stcpl	0, cr0, [r0], {-0}
     2dc:	73000004 	movwvc	r0, #4
     2e0:	01000004 	tsteq	r0, r4
     2e4:	04735200 	ldrbteq	r5, [r3], #-512	; 0xfffffe00
     2e8:	05140000 	ldreq	r0, [r4, #-0]
     2ec:	00010000 	andeq	r0, r1, r0
     2f0:	00000057 	andeq	r0, r0, r7, asr r0
     2f4:	00000000 	andeq	r0, r0, r0
     2f8:	00045c00 	andeq	r5, r4, r0, lsl #24
     2fc:	00047300 	andeq	r7, r4, r0, lsl #6
     300:	53000100 	movwpl	r0, #256	; 0x100
     304:	00000473 	andeq	r0, r0, r3, ror r4
     308:	00000514 	andeq	r0, r0, r4, lsl r5
     30c:	00560001 	subseq	r0, r6, r1
     310:	00000000 	andeq	r0, r0, r0
     314:	74000000 	strvc	r0, [r0], #-0
     318:	8c000004 	stchi	0, cr0, [r0], {4}
     31c:	01000004 	tsteq	r0, r4
     320:	048c5000 	streq	r5, [ip], #0
     324:	04e00000 	strbteq	r0, [r0], #0
     328:	00010000 	andeq	r0, r1, r0
     32c:	0004e054 	andeq	lr, r4, r4, asr r0
     330:	0004e300 	andeq	lr, r4, r0, lsl #6
     334:	50000100 	andpl	r0, r0, r0, lsl #2
	...
     340:	00000384 	andeq	r0, r0, r4, lsl #7
     344:	0000038f 	andeq	r0, r0, pc, lsl #7
     348:	8f500001 	svchi	0x00500001
     34c:	e8000003 	stmda	r0, {r0, r1}
     350:	01000003 	tsteq	r0, r3
     354:	00005400 	andeq	r5, r0, r0, lsl #8
     358:	00000000 	andeq	r0, r0, r0
     35c:	01500000 	cmpeq	r0, r0
     360:	015f0000 	cmpeq	pc, r0
     364:	00010000 	andeq	r0, r1, r0
     368:	00015f50 	andeq	r5, r1, r0, asr pc
     36c:	00016400 	andeq	r6, r1, r0, lsl #8
     370:	f3000400 	vshl.u8	d0, d0, d0
     374:	009f5001 	addseq	r5, pc, r1
     378:	00000000 	andeq	r0, r0, r0
     37c:	50000000 	andpl	r0, r0, r0
     380:	5c000001 	stcpl	0, cr0, [r0], {1}
     384:	01000001 	tsteq	r0, r1
     388:	015c5100 	cmpeq	ip, r0, lsl #2
     38c:	015f0000 	cmpeq	pc, r0
     390:	00010000 	andeq	r0, r1, r0
     394:	00015f52 	andeq	r5, r1, r2, asr pc
     398:	00016400 	andeq	r6, r1, r0, lsl #8
     39c:	f3000400 	vshl.u8	d0, d0, d0
     3a0:	009f5101 	addseq	r5, pc, r1, lsl #2
     3a4:	00000000 	andeq	r0, r0, r0
     3a8:	44000000 	strmi	r0, [r0], #-0
     3ac:	70000000 	andvc	r0, r0, r0
     3b0:	01000000 	mrseq	r0, (UNDEF: 0)
     3b4:	00705000 	rsbseq	r5, r0, r0
     3b8:	012c0000 			; <UNDEFINED> instruction: 0x012c0000
     3bc:	00010000 	andeq	r0, r1, r0
     3c0:	00012c55 	andeq	r2, r1, r5, asr ip
     3c4:	00013000 	andeq	r3, r1, r0
     3c8:	50000100 	andpl	r0, r0, r0, lsl #2
     3cc:	00000130 	andeq	r0, r0, r0, lsr r1
     3d0:	00000150 	andeq	r0, r0, r0, asr r1
     3d4:	01f30004 	mvnseq	r0, r4
     3d8:	00009f50 	andeq	r9, r0, r0, asr pc
     3dc:	00000000 	andeq	r0, r0, r0
     3e0:	00440000 	subeq	r0, r4, r0
     3e4:	00730000 	rsbseq	r0, r3, r0
     3e8:	00010000 	andeq	r0, r1, r0
     3ec:	00007351 	andeq	r7, r0, r1, asr r3
     3f0:	00012c00 	andeq	r2, r1, r0, lsl #24
     3f4:	f3000400 	vshl.u8	d0, d0, d0
     3f8:	2c9f5101 	ldfcss	f5, [pc], {1}
     3fc:	50000001 	andpl	r0, r0, r1
     400:	01000001 	tsteq	r0, r1
     404:	00005100 	andeq	r5, r0, r0, lsl #2
     408:	00000000 	andeq	r0, r0, r0
     40c:	00440000 	subeq	r0, r4, r0
     410:	00730000 	rsbseq	r0, r3, r0
     414:	00010000 	andeq	r0, r1, r0
     418:	00007352 	andeq	r7, r0, r2, asr r3
     41c:	00012c00 	andeq	r2, r1, r0, lsl #24
     420:	56000100 	strpl	r0, [r0], -r0, lsl #2
     424:	0000012c 	andeq	r0, r0, ip, lsr #2
     428:	00000150 	andeq	r0, r0, r0, asr r1
     42c:	00520001 	subseq	r0, r2, r1
     430:	00000000 	andeq	r0, r0, r0
     434:	48000000 	stmdami	r0, {}	; <UNPREDICTABLE>
     438:	4c000000 	stcmi	0, cr0, [r0], {-0}
     43c:	02000000 	andeq	r0, r0, #0
     440:	4c9f3000 	ldcmi	0, cr3, [pc], {0}
     444:	7c000000 	stcvc	0, cr0, [r0], {-0}
     448:	01000000 	mrseq	r0, (UNDEF: 0)
     44c:	012c5400 			; <UNDEFINED> instruction: 0x012c5400
     450:	01500000 	cmpeq	r0, r0
     454:	00010000 	andeq	r0, r1, r0
     458:	00000054 	andeq	r0, r0, r4, asr r0
     45c:	00000000 	andeq	r0, r0, r0
     460:	00007c00 	andeq	r7, r0, r0, lsl #24
     464:	00012c00 	andeq	r2, r1, r0, lsl #24
     468:	54000100 	strpl	r0, [r0], #-256	; 0xffffff00
	...
     474:	000000a0 	andeq	r0, r0, r0, lsr #1
     478:	000000e8 	andeq	r0, r0, r8, ror #1
     47c:	00560001 	subseq	r0, r6, r1
     480:	2c000001 	stccs	0, cr0, [r0], {1}
     484:	01000001 	tsteq	r0, r1
     488:	00005600 	andeq	r5, r0, r0, lsl #12
     48c:	00000000 	andeq	r0, r0, r0
     490:	00b40000 	adcseq	r0, r4, r0
     494:	00dc0000 	sbcseq	r0, ip, r0
     498:	00030000 	andeq	r0, r3, r0
     49c:	dc9f1076 	ldcle	0, cr1, [pc], {118}	; 0x76
     4a0:	2c000000 	stccs	0, cr0, [r0], {-0}
     4a4:	03000001 	movweq	r0, #1
     4a8:	9f1c7600 	svcls	0x001c7600
	...
     4b4:	0000027c 	andeq	r0, r0, ip, ror r2
     4b8:	000002a8 	andeq	r0, r0, r8, lsr #5
     4bc:	a8500001 	ldmdage	r0, {r0}^
     4c0:	5c000002 	stcpl	0, cr0, [r0], {2}
     4c4:	01000003 	tsteq	r0, r3
     4c8:	035c5500 	cmpeq	ip, #0, 10
     4cc:	03600000 	cmneq	r0, #0
     4d0:	00010000 	andeq	r0, r1, r0
     4d4:	00036050 	andeq	r6, r3, r0, asr r0
     4d8:	00036400 	andeq	r6, r3, r0, lsl #8
     4dc:	f3000400 	vshl.u8	d0, d0, d0
     4e0:	649f5001 	ldrvs	r5, [pc], #1	; 4e8 <_start-0x7b18>
     4e4:	84000003 	strhi	r0, [r0], #-3
     4e8:	01000003 	tsteq	r0, r3
     4ec:	00005500 	andeq	r5, r0, r0, lsl #10
     4f0:	00000000 	andeq	r0, r0, r0
     4f4:	027c0000 	rsbseq	r0, ip, #0
     4f8:	02ab0000 	adceq	r0, fp, #0
     4fc:	00010000 	andeq	r0, r1, r0
     500:	0002ab51 	andeq	sl, r2, r1, asr fp
     504:	00035c00 	andeq	r5, r3, r0, lsl #24
     508:	f3000400 	vshl.u8	d0, d0, d0
     50c:	5c9f5101 	ldfpls	f5, [pc], {1}
     510:	64000003 	strvs	r0, [r0], #-3
     514:	01000003 	tsteq	r0, r3
     518:	03645100 	cmneq	r4, #0, 2
     51c:	03840000 	orreq	r0, r4, #0
     520:	00040000 	andeq	r0, r4, r0
     524:	9f5101f3 	svcls	0x005101f3
	...
     530:	0000027c 	andeq	r0, r0, ip, ror r2
     534:	000002ab 	andeq	r0, r0, fp, lsr #5
     538:	ab520001 	blge	1480544 <__bss_end__+0x1476504>
     53c:	5c000002 	stcpl	0, cr0, [r0], {2}
     540:	01000003 	tsteq	r0, r3
     544:	035c5600 	cmpeq	ip, #0, 12
     548:	03640000 	cmneq	r4, #0
     54c:	00010000 	andeq	r0, r1, r0
     550:	00036452 	andeq	r6, r3, r2, asr r4
     554:	00038400 	andeq	r8, r3, r0, lsl #8
     558:	56000100 	strpl	r0, [r0], -r0, lsl #2
	...
     564:	00000280 	andeq	r0, r0, r0, lsl #5
     568:	00000284 	andeq	r0, r0, r4, lsl #5
     56c:	9f300002 	svcls	0x00300002
     570:	00000284 	andeq	r0, r0, r4, lsl #5
     574:	000002b4 			; <UNDEFINED> instruction: 0x000002b4
     578:	5c540001 	mrrcpl	0, 0, r0, r4, cr1
     57c:	64000003 	strvs	r0, [r0], #-3
     580:	01000003 	tsteq	r0, r3
     584:	00005400 	andeq	r5, r0, r0, lsl #8
     588:	00000000 	andeq	r0, r0, r0
     58c:	02b40000 	adcseq	r0, r4, #0
     590:	035c0000 	cmpeq	ip, #0
     594:	00010000 	andeq	r0, r1, r0
     598:	00036454 	andeq	r6, r3, r4, asr r4
     59c:	00038400 	andeq	r8, r3, r0, lsl #8
     5a0:	54000100 	strpl	r0, [r0], #-256	; 0xffffff00
	...
     5ac:	000002dc 	ldrdeq	r0, [r0], -ip
     5b0:	0000035c 	andeq	r0, r0, ip, asr r3
     5b4:	64560001 	ldrbvs	r0, [r6], #-1
     5b8:	84000003 	strhi	r0, [r0], #-3
     5bc:	01000003 	tsteq	r0, r3
     5c0:	00005600 	andeq	r5, r0, r0, lsl #12
     5c4:	00000000 	andeq	r0, r0, r0
     5c8:	02f00000 	rscseq	r0, r0, #0
     5cc:	03180000 	tsteq	r8, #0
     5d0:	00030000 	andeq	r0, r3, r0
     5d4:	189f1076 	ldmne	pc, {r1, r2, r4, r5, r6, ip}	; <UNPREDICTABLE>
     5d8:	5c000003 	stcpl	0, cr0, [r0], {3}
     5dc:	03000003 	movweq	r0, #3
     5e0:	9f1c7600 	svcls	0x001c7600
     5e4:	00000364 	andeq	r0, r0, r4, ror #6
     5e8:	00000384 	andeq	r0, r0, r4, lsl #7
     5ec:	1c760003 	ldclne	0, cr0, [r6], #-12
     5f0:	0000009f 	muleq	r0, pc, r0	; <UNPREDICTABLE>
     5f4:	00000000 	andeq	r0, r0, r0
     5f8:	00018800 	andeq	r8, r1, r0, lsl #16
     5fc:	0001a000 	andeq	sl, r1, r0
     600:	50000100 	andpl	r0, r0, r0, lsl #2
     604:	000001a0 	andeq	r0, r0, r0, lsr #3
     608:	00000214 	andeq	r0, r0, r4, lsl r2
     60c:	14540001 	ldrbne	r0, [r4], #-1
     610:	1b000002 	blne	620 <_start-0x79e0>
     614:	01000002 	tsteq	r0, r2
     618:	021b5000 	andseq	r5, fp, #0
     61c:	027c0000 	rsbseq	r0, ip, #0
     620:	00010000 	andeq	r0, r1, r0
     624:	00000054 	andeq	r0, r0, r4, asr r0
     628:	00000000 	andeq	r0, r0, r0
     62c:	0001c400 	andeq	ip, r1, r0, lsl #8
     630:	00021400 	andeq	r1, r2, r0, lsl #8
     634:	54000100 	strpl	r0, [r0], #-256	; 0xffffff00
     638:	0000022c 	andeq	r0, r0, ip, lsr #4
     63c:	0000027c 	andeq	r0, r0, ip, ror r2
     640:	00540001 	subseq	r0, r4, r1
     644:	00000000 	andeq	r0, r0, r0
     648:	d8000000 	stmdale	r0, {}	; <UNPREDICTABLE>
     64c:	00000001 	andeq	r0, r0, r1
     650:	03000002 	movweq	r0, #2
     654:	9f107400 	svcls	0x00107400
     658:	00000200 	andeq	r0, r0, r0, lsl #4
     65c:	00000214 	andeq	r0, r0, r4, lsl r2
     660:	1c740003 	ldclne	0, cr0, [r4], #-12
     664:	00022c9f 	muleq	r2, pc, ip	; <UNPREDICTABLE>
     668:	00027c00 	andeq	r7, r2, r0, lsl #24
     66c:	74000300 	strvc	r0, [r0], #-768	; 0xfffffd00
     670:	00009f1c 	andeq	r9, r0, ip, lsl pc
     674:	00000000 	andeq	r0, r0, r0
     678:	01640000 	cmneq	r4, r0
     67c:	017f0000 	cmneq	pc, r0
     680:	00010000 	andeq	r0, r1, r0
     684:	00017f50 	andeq	r7, r1, r0, asr pc
     688:	00018800 	andeq	r8, r1, r0, lsl #16
     68c:	54000100 	strpl	r0, [r0], #-256	; 0xffffff00
	...
     698:	0000003c 	andeq	r0, r0, ip, lsr r0
     69c:	00000040 	andeq	r0, r0, r0, asr #32
     6a0:	40500001 	subsmi	r0, r0, r1
     6a4:	44000000 	strmi	r0, [r0], #-0
     6a8:	04000000 	streq	r0, [r0], #-0
     6ac:	01b87000 			; <UNDEFINED> instruction: 0x01b87000
     6b0:	0000009f 	muleq	r0, pc, r0	; <UNPREDICTABLE>
     6b4:	00000000 	andeq	r0, r0, r0
     6b8:	00003000 	andeq	r3, r0, r0
     6bc:	00003400 	andeq	r3, r0, r0, lsl #8
     6c0:	50000100 	andpl	r0, r0, r0, lsl #2
     6c4:	00000034 	andeq	r0, r0, r4, lsr r0
     6c8:	0000003c 	andeq	r0, r0, ip, lsr r0
     6cc:	01f30004 	mvnseq	r0, r4
     6d0:	00009f50 	andeq	r9, r0, r0, asr pc
     6d4:	00000000 	andeq	r0, r0, r0
     6d8:	00180000 	andseq	r0, r8, r0
     6dc:	00230000 	eoreq	r0, r3, r0
     6e0:	00010000 	andeq	r0, r1, r0
     6e4:	00002350 	andeq	r2, r0, r0, asr r3
     6e8:	00003000 	andeq	r3, r0, r0
     6ec:	54000100 	strpl	r0, [r0], #-256	; 0xffffff00
	...
     6f8:	00000008 	andeq	r0, r0, r8
     6fc:	0000000f 	andeq	r0, r0, pc
     700:	0f500001 	svceq	0x00500001
     704:	18000000 	stmdane	r0, {}	; <UNPREDICTABLE>
     708:	04000000 	streq	r0, [r0], #-0
     70c:	5001f300 	andpl	pc, r1, r0, lsl #6
     710:	0000009f 	muleq	r0, pc, r0	; <UNPREDICTABLE>
	...
     71c:	00000400 	andeq	r0, r0, r0, lsl #8
     720:	50000100 	andpl	r0, r0, r0, lsl #2
     724:	00000004 	andeq	r0, r0, r4
     728:	00000008 	andeq	r0, r0, r8
     72c:	48700003 	ldmdami	r0!, {r0, r1}^
     730:	0000009f 	muleq	r0, pc, r0	; <UNPREDICTABLE>
     734:	00000000 	andeq	r0, r0, r0
     738:	0003e800 	andeq	lr, r3, r0, lsl #16
     73c:	00041000 	andeq	r1, r4, r0
     740:	50000100 	andpl	r0, r0, r0, lsl #2
     744:	00000410 	andeq	r0, r0, r0, lsl r4
     748:	00000424 	andeq	r0, r0, r4, lsr #8
     74c:	24540001 	ldrbcs	r0, [r4], #-1
     750:	2c000004 	stccs	0, cr0, [r0], {4}
     754:	05000004 	streq	r0, [r0, #-4]
     758:	9c300300 	ldcls	3, cr0, [r0], #-0
     75c:	042c0000 	strteq	r0, [ip], #-0
     760:	042f0000 	strteq	r0, [pc], #-0	; 768 <_start-0x7898>
     764:	00010000 	andeq	r0, r1, r0
     768:	00042f50 	andeq	r2, r4, r0, asr pc
     76c:	00045c00 	andeq	r5, r4, r0, lsl #24
     770:	f3000400 	vshl.u8	d0, d0, d0
     774:	009f5001 	addseq	r5, pc, r1
     778:	00000000 	andeq	r0, r0, r0
     77c:	e8000000 	stmda	r0, {}	; <UNPREDICTABLE>
     780:	0c000003 	stceq	0, cr0, [r0], {3}
     784:	01000004 	tsteq	r0, r4
     788:	040c5100 	streq	r5, [ip], #-256	; 0xffffff00
     78c:	042c0000 	strteq	r0, [ip], #-0
     790:	00010000 	andeq	r0, r1, r0
     794:	00042c55 	andeq	r2, r4, r5, asr ip
     798:	00042f00 	andeq	r2, r4, r0, lsl #30
     79c:	51000100 	mrspl	r0, (UNDEF: 16)
     7a0:	0000042f 	andeq	r0, r0, pc, lsr #8
     7a4:	0000045c 	andeq	r0, r0, ip, asr r4
     7a8:	01f30004 	mvnseq	r0, r4
     7ac:	00009f51 	andeq	r9, r0, r1, asr pc
     7b0:	00000000 	andeq	r0, r0, r0
     7b4:	002c0000 	eoreq	r0, ip, r0
     7b8:	00380000 	eorseq	r0, r8, r0
     7bc:	00010000 	andeq	r0, r1, r0
     7c0:	00003850 	andeq	r3, r0, r0, asr r8
     7c4:	00004800 	andeq	r4, r0, r0, lsl #16
     7c8:	55000100 	strpl	r0, [r0, #-256]	; 0xffffff00
     7cc:	00000048 	andeq	r0, r0, r8, asr #32
     7d0:	00000058 	andeq	r0, r0, r8, asr r0
     7d4:	00500001 	subseq	r0, r0, r1
     7d8:	00000000 	andeq	r0, r0, r0
     7dc:	84000000 	strhi	r0, [r0], #-0
     7e0:	a8000002 	stmdage	r0, {r1}
     7e4:	01000002 	tsteq	r0, r2
     7e8:	02a85000 	adceq	r5, r8, #0
     7ec:	05300000 	ldreq	r0, [r0, #-0]!
     7f0:	00010000 	andeq	r0, r1, r0
     7f4:	00053059 	andeq	r3, r5, r9, asr r0
     7f8:	00054400 	andeq	r4, r5, r0, lsl #8
     7fc:	f3000400 	vshl.u8	d0, d0, d0
     800:	009f5001 	addseq	r5, pc, r1
     804:	00000000 	andeq	r0, r0, r0
     808:	84000000 	strhi	r0, [r0], #-0
     80c:	98000002 	stmdals	r0, {r1}
     810:	01000002 	tsteq	r0, r2
     814:	02985100 	addseq	r5, r8, #0, 2
     818:	02a80000 	adceq	r0, r8, #0
     81c:	00030000 	andeq	r0, r3, r0
     820:	a89f0171 	ldmge	pc, {r0, r4, r5, r6, r8}	; <UNPREDICTABLE>
     824:	44000002 	strmi	r0, [r0], #-2
     828:	04000005 	streq	r0, [r0], #-5
     82c:	5101f300 	mrspl	pc, SP_irq	; <UNPREDICTABLE>
     830:	0000009f 	muleq	r0, pc, r0	; <UNPREDICTABLE>
     834:	00000000 	andeq	r0, r0, r0
     838:	00028400 	andeq	r8, r2, r0, lsl #8
     83c:	0002c400 	andeq	ip, r2, r0, lsl #8
     840:	52000100 	andpl	r0, r0, #0, 2
     844:	000002c4 	andeq	r0, r0, r4, asr #5
     848:	000002dc 	ldrdeq	r0, [r0], -ip
     84c:	dc520001 	mrrcle	0, 0, r0, r2, cr1
     850:	e4000002 	str	r0, [r0], #-2
     854:	01000002 	tsteq	r0, r2
     858:	02e45500 	rsceq	r5, r4, #0, 10
     85c:	02f40000 	rscseq	r0, r4, #0
     860:	00010000 	andeq	r0, r1, r0
     864:	0002f452 	andeq	pc, r2, r2, asr r4	; <UNPREDICTABLE>
     868:	0003f800 	andeq	pc, r3, r0, lsl #16
     86c:	55000100 	strpl	r0, [r0, #-256]	; 0xffffff00
     870:	000003f8 	strdeq	r0, [r0], -r8
     874:	000003fc 	strdeq	r0, [r0], -ip
     878:	fc520001 	mrrc2	0, 0, r0, r2, cr1
     87c:	f4000003 	vst4.8	{d0-d3}, [r0], r3
     880:	01000004 	tsteq	r0, r4
     884:	04f45500 	ldrbteq	r5, [r4], #1280	; 0x500
     888:	05440000 	strbeq	r0, [r4, #-0]
     88c:	00010000 	andeq	r0, r1, r0
     890:	00000052 	andeq	r0, r0, r2, asr r0
     894:	00000000 	andeq	r0, r0, r0
     898:	00029400 	andeq	r9, r2, r0, lsl #8
     89c:	0002a800 	andeq	sl, r2, r0, lsl #16
     8a0:	50000100 	andpl	r0, r0, r0, lsl #2
     8a4:	000002a8 	andeq	r0, r0, r8, lsr #5
     8a8:	000002c0 	andeq	r0, r0, r0, asr #5
     8ac:	c0560001 	subsgt	r0, r6, r1
     8b0:	cc000002 	stcgt	0, cr0, [r0], {2}
     8b4:	03000002 	movweq	r0, #2
     8b8:	9f017600 	svcls	0x00017600
     8bc:	000002cc 	andeq	r0, r0, ip, asr #5
     8c0:	000002e4 	andeq	r0, r0, r4, ror #5
     8c4:	e4560001 	ldrb	r0, [r6], #-1
     8c8:	f0000002 			; <UNDEFINED> instruction: 0xf0000002
     8cc:	03000002 	movweq	r0, #2
     8d0:	9f017600 	svcls	0x00017600
     8d4:	000002f0 	strdeq	r0, [r0], -r0	; <UNPREDICTABLE>
     8d8:	000004f4 	strdeq	r0, [r0], -r4
     8dc:	f4560001 			; <UNDEFINED> instruction: 0xf4560001
     8e0:	00000004 	andeq	r0, r0, r4
     8e4:	03000005 	movweq	r0, #5
     8e8:	9f017600 	svcls	0x00017600
     8ec:	00000500 	andeq	r0, r0, r0, lsl #10
     8f0:	0000051c 	andeq	r0, r0, ip, lsl r5
     8f4:	1c560001 	mrrcne	0, 0, r0, r6, cr1
     8f8:	28000005 	stmdacs	r0, {r0, r2}
     8fc:	01000005 	tsteq	r0, r5
     900:	05285000 	streq	r5, [r8, #-0]!
     904:	05300000 	ldreq	r0, [r0, #-0]!
     908:	00030000 	andeq	r0, r3, r0
     90c:	009f0176 	addseq	r0, pc, r6, ror r1	; <UNPREDICTABLE>
     910:	00000000 	andeq	r0, r0, r0
     914:	9c000000 	stcls	0, cr0, [r0], {-0}
     918:	30000002 	andcc	r0, r0, r2
     91c:	01000005 	tsteq	r0, r5
     920:	05305800 	ldreq	r5, [r0, #-2048]!	; 0xfffff800
     924:	05440000 	strbeq	r0, [r4, #-0]
     928:	000a0000 	andeq	r0, sl, r0
     92c:	f35101f3 	vbsl	q8, <illegal reg q8.5>, <illegal reg q9.5>
     930:	31225001 			; <UNDEFINED> instruction: 0x31225001
     934:	00009f1c 	andeq	r9, r0, ip, lsl pc
     938:	00000000 	andeq	r0, r0, r0
     93c:	03f40000 	mvnseq	r0, #0
     940:	03fc0000 	mvnseq	r0, #0
     944:	00010000 	andeq	r0, r1, r0
     948:	00042850 	andeq	r2, r4, r0, asr r8
     94c:	00042c00 	andeq	r2, r4, r0, lsl #24
     950:	50000100 	andpl	r0, r0, r0, lsl #2
     954:	00000458 	andeq	r0, r0, r8, asr r4
     958:	0000045c 	andeq	r0, r0, ip, asr r4
     95c:	88500001 	ldmdahi	r0, {r0}^
     960:	8c000004 	stchi	0, cr0, [r0], {4}
     964:	01000004 	tsteq	r0, r4
     968:	04cc5000 	strbeq	r5, [ip], #0
     96c:	04d00000 	ldrbeq	r0, [r0], #0
     970:	00010000 	andeq	r0, r1, r0
     974:	0004f450 	andeq	pc, r4, r0, asr r4	; <UNPREDICTABLE>
     978:	00051800 	andeq	r1, r5, r0, lsl #16
     97c:	50000100 	andpl	r0, r0, r0, lsl #2
	...
     988:	000002dc 	ldrdeq	r0, [r0], -ip
     98c:	000002e4 	andeq	r0, r0, r4, ror #5
     990:	9f300002 	svcls	0x00300002
     994:	000002f4 	strdeq	r0, [r0], -r4
     998:	000002f8 	strdeq	r0, [r0], -r8
     99c:	04540001 	ldrbeq	r0, [r4], #-1
     9a0:	18000003 	stmdane	r0, {r0, r1}
     9a4:	01000005 	tsteq	r0, r5
     9a8:	00005400 	andeq	r5, r0, r0, lsl #8
     9ac:	00000000 	andeq	r0, r0, r0
     9b0:	00800000 	addeq	r0, r0, r0
     9b4:	00a40000 	adceq	r0, r4, r0
     9b8:	00010000 	andeq	r0, r1, r0
     9bc:	0000a450 	andeq	sl, r0, r0, asr r4
     9c0:	0000f000 	andeq	pc, r0, r0
     9c4:	70000300 	andvc	r0, r0, r0, lsl #6
     9c8:	00f09f02 	rscseq	r9, r0, r2, lsl #30
     9cc:	02300000 	eorseq	r0, r0, #0
     9d0:	00040000 	andeq	r0, r4, r0
     9d4:	9f5001f3 	svcls	0x005001f3
	...
     9e0:	00000080 	andeq	r0, r0, r0, lsl #1
     9e4:	000000a0 	andeq	r0, r0, r0, lsr #1
     9e8:	a0510001 	subsge	r0, r1, r1
     9ec:	30000000 	andcc	r0, r0, r0
     9f0:	01000002 	tsteq	r0, r2
     9f4:	00005500 	andeq	r5, r0, r0, lsl #10
     9f8:	00000000 	andeq	r0, r0, r0
     9fc:	00800000 	addeq	r0, r0, r0
     a00:	00940000 	addseq	r0, r4, r0
     a04:	00010000 	andeq	r0, r1, r0
     a08:	00009452 	andeq	r9, r0, r2, asr r4
     a0c:	00023000 	andeq	r3, r2, r0
     a10:	54000100 	strpl	r0, [r0], #-256	; 0xffffff00
	...
     a1c:	00000080 	andeq	r0, r0, r0, lsl #1
     a20:	000000ec 	andeq	r0, r0, ip, ror #1
     a24:	ec530001 	mrrc	0, 0, r0, r3, cr1
     a28:	04000000 	streq	r0, [r0], #-0
     a2c:	01000001 	tsteq	r0, r1
     a30:	01105100 	tsteq	r0, r0, lsl #2
     a34:	01180000 	tsteq	r8, r0
     a38:	00010000 	andeq	r0, r1, r0
     a3c:	00016851 	andeq	r6, r1, r1, asr r8
     a40:	00016c00 	andeq	r6, r1, r0, lsl #24
     a44:	51000100 	mrspl	r0, (UNDEF: 16)
     a48:	0000016c 	andeq	r0, r0, ip, ror #2
     a4c:	000001a0 	andeq	r0, r0, r0, lsr #3
     a50:	01f30004 	mvnseq	r0, r4
     a54:	01c49f53 	biceq	r9, r4, r3, asr pc
     a58:	01d40000 	bicseq	r0, r4, r0
     a5c:	00010000 	andeq	r0, r1, r0
     a60:	0001d451 	andeq	sp, r1, r1, asr r4
     a64:	0001f800 	andeq	pc, r1, r0, lsl #16
     a68:	f3000400 	vshl.u8	d0, d0, d0
     a6c:	f89f5301 			; <UNDEFINED> instruction: 0xf89f5301
     a70:	fb000001 	blx	a7e <_start-0x7582>
     a74:	01000001 	tsteq	r0, r1
     a78:	01fb5100 	mvnseq	r5, r0, lsl #2
     a7c:	02300000 	eorseq	r0, r0, #0
     a80:	00040000 	andeq	r0, r4, r0
     a84:	9f5301f3 	svcls	0x005301f3
	...
     a90:	00000080 	andeq	r0, r0, r0, lsl #1
     a94:	0000009c 	muleq	r0, ip, r0
     a98:	00910002 	addseq	r0, r1, r2
     a9c:	0000009c 	muleq	r0, ip, r0
     aa0:	000001a7 	andeq	r0, r0, r7, lsr #3
     aa4:	c4520001 	ldrbgt	r0, [r2], #-1
     aa8:	fb000001 	blx	ab6 <_start-0x754a>
     aac:	01000001 	tsteq	r0, r1
     ab0:	00005200 	andeq	r5, r0, r0, lsl #4
     ab4:	00000000 	andeq	r0, r0, r0
     ab8:	009c0000 	addseq	r0, ip, r0
     abc:	01180000 	tsteq	r8, r0
     ac0:	00010000 	andeq	r0, r1, r0
     ac4:	0001185d 	andeq	r1, r1, sp, asr r8
     ac8:	00011c00 	andeq	r1, r1, r0, lsl #24
     acc:	50000100 	andpl	r0, r0, r0, lsl #2
     ad0:	0000011c 	andeq	r0, r0, ip, lsl r1
     ad4:	00000120 	andeq	r0, r0, r0, lsr #2
     ad8:	205c0001 	subscs	r0, ip, r1
     adc:	58000001 	stmdapl	r0, {r0}
     ae0:	01000001 	tsteq	r0, r1
     ae4:	01585000 	cmpeq	r8, r0
     ae8:	01640000 	cmneq	r4, r0
     aec:	00030000 	andeq	r0, r3, r0
     af0:	649f027c 	ldrvs	r0, [pc], #636	; af8 <_start-0x7508>
     af4:	68000001 	stmdavs	r0, {r0}
     af8:	01000001 	tsteq	r0, r1
     afc:	01685000 	cmneq	r8, r0
     b00:	016c0000 	cmneq	ip, r0
     b04:	00010000 	andeq	r0, r1, r0
     b08:	00016c5d 	andeq	r6, r1, sp, asr ip
     b0c:	00017000 	andeq	r7, r1, r0
     b10:	53000100 	movwpl	r0, #256	; 0x100
     b14:	00000170 	andeq	r0, r0, r0, ror r1
     b18:	0000018c 	andeq	r0, r0, ip, lsl #3
     b1c:	8c5c0001 	mrrchi	0, 0, r0, ip, cr1
     b20:	98000001 	stmdals	r0, {r0}
     b24:	03000001 	movweq	r0, #1
     b28:	9f027c00 	svcls	0x00027c00
     b2c:	00000198 	muleq	r0, r8, r1
     b30:	000001a7 	andeq	r0, r0, r7, lsr #3
     b34:	c4500001 	ldrbgt	r0, [r0], #-1
     b38:	cc000001 	stcgt	0, cr0, [r0], {1}
     b3c:	04000001 	streq	r0, [r0], #-1
     b40:	7fa19100 	svcvc	0x00a19100
     b44:	0001cc9f 	muleq	r1, pc, ip	; <UNPREDICTABLE>
     b48:	0001d000 	andeq	sp, r1, r0
     b4c:	50000100 	andpl	r0, r0, r0, lsl #2
     b50:	000001d0 	ldrdeq	r0, [r0], -r0	; <UNPREDICTABLE>
     b54:	000001d4 	ldrdeq	r0, [r0], -r4
     b58:	d45d0001 	ldrble	r0, [sp], #-1
     b5c:	d8000001 	stmdale	r0, {r0}
     b60:	01000001 	tsteq	r0, r1
     b64:	01d85300 	bicseq	r5, r8, r0, lsl #6
     b68:	01f80000 	mvnseq	r0, r0
     b6c:	00010000 	andeq	r0, r1, r0
     b70:	0001f850 	andeq	pc, r1, r0, asr r8	; <UNPREDICTABLE>
     b74:	00023000 	andeq	r3, r2, r0
     b78:	5d000100 	stfpls	f0, [r0, #-0]
	...
     b84:	000000a0 	andeq	r0, r0, r0, lsr #1
     b88:	00000140 	andeq	r0, r0, r0, asr #2
     b8c:	4c510001 	mrrcmi	0, 0, r0, r1, cr1
     b90:	80000001 	andhi	r0, r0, r1
     b94:	01000001 	tsteq	r0, r1
     b98:	01805100 	orreq	r5, r0, r0, lsl #2
     b9c:	01880000 	orreq	r0, r8, r0
     ba0:	00050000 	andeq	r0, r5, r0
     ba4:	25340071 	ldrcs	r0, [r4, #-113]!	; 0xffffff8f
     ba8:	0001889f 	muleq	r1, pc, r8	; <UNPREDICTABLE>
     bac:	0001a400 	andeq	sl, r1, r0, lsl #8
     bb0:	51000100 	mrspl	r0, (UNDEF: 16)
     bb4:	000001c4 	andeq	r0, r0, r4, asr #3
     bb8:	000001e8 	andeq	r0, r0, r8, ror #3
     bbc:	e8510001 	ldmda	r1, {r0}^
     bc0:	f0000001 			; <UNDEFINED> instruction: 0xf0000001
     bc4:	05000001 	streq	r0, [r0, #-1]
     bc8:	31007100 	mrscc	r7, (UNDEF: 16)
     bcc:	01f09f25 	mvnseq	r9, r5, lsr #30
     bd0:	01fb0000 	mvnseq	r0, r0
     bd4:	00010000 	andeq	r0, r1, r0
     bd8:	0001fb51 	andeq	pc, r1, r1, asr fp	; <UNPREDICTABLE>
     bdc:	00023000 	andeq	r3, r2, r0
     be0:	f3000400 	vshl.u8	d0, d0, d0
     be4:	009f5301 	addseq	r5, pc, r1, lsl #6
     be8:	00000000 	andeq	r0, r0, r0
     bec:	ec000000 	stc	0, cr0, [r0], {-0}
     bf0:	00000000 	andeq	r0, r0, r0
     bf4:	02000001 	andeq	r0, r0, #1
     bf8:	009f3000 	addseq	r3, pc, r0
     bfc:	08000001 	stmdaeq	r0, {r0}
     c00:	02000001 	andeq	r0, r0, #1
     c04:	109f3100 	addsne	r3, pc, r0, lsl #2
     c08:	18000001 	stmdane	r0, {r0}
     c0c:	02000001 	andeq	r0, r0, #1
     c10:	189f3000 	ldmne	pc, {ip, sp}	; <UNPREDICTABLE>
     c14:	68000001 	stmdavs	r0, {r0}
     c18:	01000001 	tsteq	r0, r1
     c1c:	00005700 	andeq	r5, r0, r0, lsl #14
     c20:	00000000 	andeq	r0, r0, r0
     c24:	00400000 	subeq	r0, r0, r0
     c28:	00600000 	rsbeq	r0, r0, r0
     c2c:	00010000 	andeq	r0, r1, r0
     c30:	00006050 	andeq	r6, r0, r0, asr r0
     c34:	00006c00 	andeq	r6, r0, r0, lsl #24
     c38:	71000300 	mrsvc	r0, LR_irq
     c3c:	006c9f01 	rsbeq	r9, ip, r1, lsl #30
     c40:	00740000 	rsbseq	r0, r4, r0
     c44:	00010000 	andeq	r0, r1, r0
     c48:	00007451 	andeq	r7, r0, r1, asr r4
     c4c:	00008000 	andeq	r8, r0, r0
     c50:	71000300 	mrsvc	r0, LR_irq
     c54:	00009f01 	andeq	r9, r0, r1, lsl #30
     c58:	00000000 	andeq	r0, r0, r0
     c5c:	00400000 	subeq	r0, r0, r0
     c60:	005c0000 	subseq	r0, ip, r0
     c64:	00010000 	andeq	r0, r1, r0
     c68:	00005c51 	andeq	r5, r0, r1, asr ip
     c6c:	00008000 	andeq	r8, r0, r0
     c70:	f3000400 	vshl.u8	d0, d0, d0
     c74:	009f5101 	addseq	r5, pc, r1, lsl #2
     c78:	00000000 	andeq	r0, r0, r0
     c7c:	40000000 	andmi	r0, r0, r0
     c80:	58000000 	stmdapl	r0, {}	; <UNPREDICTABLE>
     c84:	01000000 	mrseq	r0, (UNDEF: 0)
     c88:	00585200 	subseq	r5, r8, r0, lsl #4
     c8c:	00640000 	rsbeq	r0, r4, r0
     c90:	00010000 	andeq	r0, r1, r0
     c94:	00006452 	andeq	r6, r0, r2, asr r4
     c98:	00006800 	andeq	r6, r0, r0, lsl #16
     c9c:	72000300 	andvc	r0, r0, #0, 6
     ca0:	00689f01 	rsbeq	r9, r8, r1, lsl #30
     ca4:	00800000 	addeq	r0, r0, r0
     ca8:	00010000 	andeq	r0, r1, r0
     cac:	00000052 	andeq	r0, r0, r2, asr r0
     cb0:	00000000 	andeq	r0, r0, r0
     cb4:	00004000 	andeq	r4, r0, r0
     cb8:	00005400 	andeq	r5, r0, r0, lsl #8
     cbc:	53000100 	movwpl	r0, #256	; 0x100
     cc0:	00000054 	andeq	r0, r0, r4, asr r0
     cc4:	00000078 	andeq	r0, r0, r8, ror r0
     cc8:	00530001 	subseq	r0, r3, r1
     ccc:	00000000 	andeq	r0, r0, r0
     cd0:	48000000 	stmdami	r0, {}	; <UNPREDICTABLE>
     cd4:	50000000 	andpl	r0, r0, r0
     cd8:	01000000 	mrseq	r0, (UNDEF: 0)
     cdc:	00505c00 	subseq	r5, r0, r0, lsl #24
     ce0:	00540000 	subseq	r0, r4, r0
     ce4:	00080000 	andeq	r0, r8, r0
     ce8:	00730072 	rsbseq	r0, r3, r2, ror r0
     cec:	9f01231c 	svcls	0x0001231c
     cf0:	00000054 	andeq	r0, r0, r4, asr r0
     cf4:	00000058 	andeq	r0, r0, r8, asr r0
     cf8:	00720009 	rsbseq	r0, r2, r9
     cfc:	1c5301f3 	ldfnee	f0, [r3], {243}	; 0xf3
     d00:	589f0123 	ldmpl	pc, {r0, r1, r5, r8}	; <UNPREDICTABLE>
     d04:	60000000 	andvs	r0, r0, r0
     d08:	09000000 	stmdbeq	r0, {}	; <UNPREDICTABLE>
     d0c:	f3007200 	vhsub.u8	d7, d0, d0
     d10:	231c5301 	tstcs	ip, #67108864	; 0x4000000
     d14:	00609f02 	rsbeq	r9, r0, r2, lsl #30
     d18:	00800000 	addeq	r0, r0, r0
     d1c:	000a0000 	andeq	r0, sl, r0
     d20:	f35201f3 	vbsl	q8, q9, <illegal reg q9.5>
     d24:	231c5301 	tstcs	ip, #67108864	; 0x4000000
     d28:	00009f01 	andeq	r9, r0, r1, lsl #30
     d2c:	00000000 	andeq	r0, r0, r0
     d30:	00140000 	andseq	r0, r4, r0
     d34:	001c0000 	andseq	r0, ip, r0
     d38:	00010000 	andeq	r0, r1, r0
     d3c:	00001c50 	andeq	r1, r0, r0, asr ip
     d40:	00002c00 	andeq	r2, r0, r0, lsl #24
     d44:	70000300 	andvc	r0, r0, r0, lsl #6
     d48:	002c9f01 	eoreq	r9, ip, r1, lsl #30
     d4c:	00400000 	subeq	r0, r0, r0
     d50:	00010000 	andeq	r0, r1, r0
     d54:	00000050 	andeq	r0, r0, r0, asr r0
     d58:	00000000 	andeq	r0, r0, r0
     d5c:	00001400 	andeq	r1, r0, r0, lsl #8
     d60:	00001800 	andeq	r1, r0, r0, lsl #16
     d64:	51000100 	mrspl	r0, (UNDEF: 16)
     d68:	00000018 	andeq	r0, r0, r8, lsl r0
     d6c:	00000040 	andeq	r0, r0, r0, asr #32
     d70:	01f30004 	mvnseq	r0, r4
     d74:	00009f51 	andeq	r9, r0, r1, asr pc
	...
     d80:	00040000 	andeq	r0, r4, r0
     d84:	00010000 	andeq	r0, r1, r0
     d88:	00000450 	andeq	r0, r0, r0, asr r4
     d8c:	00000c00 	andeq	r0, r0, r0, lsl #24
     d90:	70000300 	andvc	r0, r0, r0, lsl #6
     d94:	000c9f30 	andeq	r9, ip, r0, lsr pc
     d98:	00140000 	andseq	r0, r4, r0
     d9c:	00040000 	andeq	r0, r4, r0
     da0:	9f5001f3 	svcls	0x005001f3
	...
     dac:	00000230 	andeq	r0, r0, r0, lsr r2
     db0:	00000257 	andeq	r0, r0, r7, asr r2
     db4:	57500001 	ldrbpl	r0, [r0, -r1]
     db8:	84000002 	strhi	r0, [r0], #-2
     dbc:	04000002 	streq	r0, [r0], #-2
     dc0:	5001f300 	andpl	pc, r1, r0, lsl #6
     dc4:	0000009f 	muleq	r0, pc, r0	; <UNPREDICTABLE>
     dc8:	00000000 	andeq	r0, r0, r0
     dcc:	00023000 	andeq	r3, r2, r0
     dd0:	00025700 	andeq	r5, r2, r0, lsl #14
     dd4:	51000100 	mrspl	r0, (UNDEF: 16)
     dd8:	00000257 	andeq	r0, r0, r7, asr r2
     ddc:	00000284 	andeq	r0, r0, r4, lsl #5
     de0:	01f30004 	mvnseq	r0, r4
     de4:	00009f51 	andeq	r9, r0, r1, asr pc
	...
     df0:	00200000 	eoreq	r0, r0, r0
     df4:	00010000 	andeq	r0, r1, r0
     df8:	00002050 	andeq	r2, r0, r0, asr r0
     dfc:	0000e000 	andeq	lr, r0, r0
     e00:	f3000400 	vshl.u8	d0, d0, d0
     e04:	e09f5001 	adds	r5, pc, r1
     e08:	e4000000 	str	r0, [r0], #-0
     e0c:	01000000 	mrseq	r0, (UNDEF: 0)
     e10:	00e45000 	rsceq	r5, r4, r0
     e14:	00e80000 	rsceq	r0, r8, r0
     e18:	00040000 	andeq	r0, r4, r0
     e1c:	9f5001f3 	svcls	0x005001f3
	...
     e2c:	0000001c 	andeq	r0, r0, ip, lsl r0
     e30:	1c510001 	mrrcne	0, 0, r0, r1, cr1
     e34:	70000000 	andvc	r0, r0, r0
     e38:	01000000 	mrseq	r0, (UNDEF: 0)
     e3c:	008c5100 	addeq	r5, ip, r0, lsl #2
     e40:	00900000 	addseq	r0, r0, r0
     e44:	00010000 	andeq	r0, r1, r0
     e48:	0000b051 	andeq	fp, r0, r1, asr r0
     e4c:	0000b400 	andeq	fp, r0, r0, lsl #8
     e50:	51000100 	mrspl	r0, (UNDEF: 16)
     e54:	000000cc 	andeq	r0, r0, ip, asr #1
     e58:	000000e8 	andeq	r0, r0, r8, ror #1
     e5c:	00510001 	subseq	r0, r1, r1
	...
     e68:	74000000 	strvc	r0, [r0], #-0
     e6c:	01000000 	mrseq	r0, (UNDEF: 0)
     e70:	008c5000 	addeq	r5, ip, r0
     e74:	00e40000 	rsceq	r0, r4, r0
     e78:	00010000 	andeq	r0, r1, r0
     e7c:	0000e450 	andeq	lr, r0, r0, asr r4
     e80:	0000e800 	andeq	lr, r0, r0, lsl #16
     e84:	f3000400 	vshl.u8	d0, d0, d0
     e88:	009f5001 	addseq	r5, pc, r1
	...
     e94:	1c000000 	stcne	0, cr0, [r0], {-0}
     e98:	01000000 	mrseq	r0, (UNDEF: 0)
     e9c:	001c5100 	andseq	r5, ip, r0, lsl #2
     ea0:	00300000 	eorseq	r0, r0, r0
     ea4:	00010000 	andeq	r0, r1, r0
     ea8:	00003053 	andeq	r3, r0, r3, asr r0
     eac:	00004400 	andeq	r4, r0, r0, lsl #8
     eb0:	52000100 	andpl	r0, r0, #0, 2
     eb4:	00000044 	andeq	r0, r0, r4, asr #32
     eb8:	00000074 	andeq	r0, r0, r4, ror r0
     ebc:	74530001 	ldrbvc	r0, [r3], #-1
     ec0:	8c000000 	stchi	0, cr0, [r0], {-0}
     ec4:	01000000 	mrseq	r0, (UNDEF: 0)
     ec8:	008c5000 	addeq	r5, ip, r0
     ecc:	00e00000 	rsceq	r0, r0, r0
     ed0:	00010000 	andeq	r0, r1, r0
     ed4:	0000e053 	andeq	lr, r0, r3, asr r0
     ed8:	0000e800 	andeq	lr, r0, r0, lsl #16
     edc:	51000100 	mrspl	r0, (UNDEF: 16)
	...
     ee8:	00000040 	andeq	r0, r0, r0, asr #32
     eec:	00000044 	andeq	r0, r0, r4, asr #32
     ef0:	44530001 	ldrbmi	r0, [r3], #-1
     ef4:	48000000 	stmdami	r0, {}	; <UNPREDICTABLE>
     ef8:	12000000 	andne	r0, r0, #0
     efc:	38007c00 	stmdacc	r0, {sl, fp, ip, sp, lr}
     f00:	94027024 	strls	r7, [r2], #-36	; 0xffffffdc
     f04:	1aff0801 	bne	fffc2f10 <__bss_end__+0xfffb8ed0>
     f08:	72243b22 	eorvc	r3, r4, #34816	; 0x8800
     f0c:	489f2700 	ldmmi	pc, {r8, r9, sl, sp}	; <UNPREDICTABLE>
     f10:	50000000 	andpl	r0, r0, r0
     f14:	12000000 	andne	r0, r0, #0
     f18:	38007c00 	stmdacc	r0, {sl, fp, ip, sp, lr}
     f1c:	947e7024 	ldrbtls	r7, [lr], #-36	; 0xffffffdc
     f20:	1aff0801 	bne	fffc2f2c <__bss_end__+0xfffb8eec>
     f24:	72243b22 	eorvc	r3, r4, #34816	; 0x8800
     f28:	009f2700 	addseq	r2, pc, r0, lsl #14
     f2c:	00000000 	andeq	r0, r0, r0
     f30:	18000000 	stmdane	r0, {}	; <UNPREDICTABLE>
     f34:	e0000000 	and	r0, r0, r0
     f38:	01000000 	mrseq	r0, (UNDEF: 0)
     f3c:	00005e00 	andeq	r5, r0, r0, lsl #28
	...
     f48:	000c0000 	andeq	r0, ip, r0
     f4c:	00010000 	andeq	r0, r1, r0
     f50:	00000c50 	andeq	r0, r0, r0, asr ip
     f54:	00003400 	andeq	r3, r0, r0, lsl #8
     f58:	54000100 	strpl	r0, [r0], #-256	; 0xffffff00
	...
     f68:	0000000b 	andeq	r0, r0, fp
     f6c:	0b500001 	bleq	1400f78 <__bss_end__+0x13f6f38>
     f70:	14000000 	strne	r0, [r0], #-0
     f74:	01000000 	mrseq	r0, (UNDEF: 0)
     f78:	00005400 	andeq	r5, r0, r0, lsl #8
	...
     f84:	00040000 	andeq	r0, r4, r0
     f88:	00010000 	andeq	r0, r1, r0
     f8c:	00000452 	andeq	r0, r0, r2, asr r4
     f90:	00002000 	andeq	r2, r0, r0
     f94:	f3000400 	vshl.u8	d0, d0, d0
     f98:	009f5201 	addseq	r5, pc, r1, lsl #4
	...
     fa4:	0c000000 	stceq	0, cr0, [r0], {-0}
     fa8:	01000000 	mrseq	r0, (UNDEF: 0)
     fac:	000c5000 	andeq	r5, ip, r0
     fb0:	00140000 	andseq	r0, r4, r0
     fb4:	00030000 	andeq	r0, r3, r0
     fb8:	149f0173 	ldrne	r0, [pc], #371	; fc0 <_start-0x7040>
     fbc:	20000000 	andcs	r0, r0, r0
     fc0:	01000000 	mrseq	r0, (UNDEF: 0)
     fc4:	00005300 	andeq	r5, r0, r0, lsl #6
     fc8:	00000000 	andeq	r0, r0, r0
     fcc:	000c0000 	andeq	r0, ip, r0
     fd0:	00180000 	andseq	r0, r8, r0
     fd4:	00030000 	andeq	r0, r3, r0
     fd8:	189f0473 	ldmne	pc, {r0, r1, r4, r5, r6, sl}	; <UNPREDICTABLE>
     fdc:	27000000 	strcs	r0, [r0, -r0]
     fe0:	01000000 	mrseq	r0, (UNDEF: 0)
     fe4:	00005300 	andeq	r5, r0, r0, lsl #6
     fe8:	00000000 	andeq	r0, r0, r0
     fec:	90e40000 	rscls	r0, r4, r0
     ff0:	91000000 	mrsls	r0, (UNDEF: 0)
     ff4:	00060000 	andeq	r0, r6, r0
     ff8:	10001c0c 	andne	r1, r0, ip, lsl #24
     ffc:	00009f20 	andeq	r9, r0, r0, lsr #30
    1000:	00000000 	andeq	r0, r0, r0
    1004:	90e40000 	rscls	r0, r4, r0
    1008:	91000000 	mrsls	r0, (UNDEF: 0)
    100c:	00060000 	andeq	r0, r6, r0
    1010:	1000240c 	andne	r2, r0, ip, lsl #8
    1014:	00009f20 	andeq	r9, r0, r0, lsr #30
    1018:	00000000 	andeq	r0, r0, r0
    101c:	90e40000 	rscls	r0, r4, r0
    1020:	91000000 	mrsls	r0, (UNDEF: 0)
    1024:	00050000 	andeq	r0, r5, r0
    1028:	2447b408 	strbcs	fp, [r7], #-1032	; 0xfffffbf8
    102c:	0000009f 	muleq	r0, pc, r0	; <UNPREDICTABLE>
    1030:	00000000 	andeq	r0, r0, r0
    1034:	0090e400 	addseq	lr, r0, r0, lsl #8
    1038:	00910000 	addseq	r0, r1, r0
    103c:	08000300 	stmdaeq	r0, {r8, r9}
    1040:	00009f20 	andeq	r9, r0, r0, lsr #30
    1044:	00000000 	andeq	r0, r0, r0
    1048:	90b80000 	adcsls	r0, r8, r0
    104c:	90bc0000 	adcsls	r0, ip, r0
    1050:	00020000 	andeq	r0, r2, r0
    1054:	90bc9f30 	adcsls	r9, ip, r0, lsr pc
    1058:	90c00000 	sbcls	r0, r0, r0
    105c:	00010000 	andeq	r0, r1, r0
    1060:	0090c453 	addseq	ip, r0, r3, asr r4
    1064:	0090cc00 	addseq	ip, r0, r0, lsl #24
    1068:	53000100 	movwpl	r0, #256	; 0x100
	...
    1074:	000090a0 	andeq	r9, r0, r0, lsr #1
    1078:	000090a4 	andeq	r9, r0, r4, lsr #1
    107c:	9f300002 	svcls	0x00300002
    1080:	000090a4 	andeq	r9, r0, r4, lsr #1
    1084:	000090a8 	andeq	r9, r0, r8, lsr #1
    1088:	00500001 	subseq	r0, r0, r1
    108c:	00000000 	andeq	r0, r0, r0
    1090:	74000000 	strvc	r0, [r0], #-0
    1094:	80000000 	andhi	r0, r0, r0
    1098:	01000000 	mrseq	r0, (UNDEF: 0)
    109c:	00805000 	addeq	r5, r0, r0
    10a0:	00880000 	addeq	r0, r8, r0
    10a4:	00040000 	andeq	r0, r4, r0
    10a8:	9f5001f3 	svcls	0x005001f3
	...
    10b4:	00000060 	andeq	r0, r0, r0, rrx
    10b8:	0000006c 	andeq	r0, r0, ip, rrx
    10bc:	6c500001 	mrrcvs	0, 0, r0, r0, cr1	; <UNPREDICTABLE>
    10c0:	74000000 	strvc	r0, [r0], #-0
    10c4:	04000000 	streq	r0, [r0], #-0
    10c8:	5001f300 	andpl	pc, r1, r0, lsl #6
    10cc:	0000009f 	muleq	r0, pc, r0	; <UNPREDICTABLE>
    10d0:	00000000 	andeq	r0, r0, r0
    10d4:	00003c00 	andeq	r3, r0, r0, lsl #24
    10d8:	00004700 	andeq	r4, r0, r0, lsl #14
    10dc:	50000100 	andpl	r0, r0, r0, lsl #2
    10e0:	00000047 	andeq	r0, r0, r7, asr #32
    10e4:	00000060 	andeq	r0, r0, r0, rrx
    10e8:	00550001 	subseq	r0, r5, r1
    10ec:	00000000 	andeq	r0, r0, r0
    10f0:	50000000 	andpl	r0, r0, r0
    10f4:	54000000 	strpl	r0, [r0], #-0
    10f8:	01000000 	mrseq	r0, (UNDEF: 0)
    10fc:	00005000 	andeq	r5, r0, r0
	...
    1108:	00040000 	andeq	r0, r4, r0
    110c:	00010000 	andeq	r0, r1, r0
    1110:	00000450 	andeq	r0, r0, r0, asr r4
    1114:	00000c00 	andeq	r0, r0, r0, lsl #24
    1118:	53000100 	movwpl	r0, #256	; 0x100
    111c:	0000000c 	andeq	r0, r0, ip
    1120:	00000010 	andeq	r0, r0, r0, lsl r0
    1124:	10500001 	subsne	r0, r0, r1
    1128:	1c000000 	stcne	0, cr0, [r0], {-0}
    112c:	01000000 	mrseq	r0, (UNDEF: 0)
    1130:	00005300 	andeq	r5, r0, r0, lsl #6
    1134:	00000000 	andeq	r0, r0, r0
    1138:	01380000 	teqeq	r8, r0
    113c:	01430000 	mrseq	r0, (UNDEF: 67)
    1140:	00010000 	andeq	r0, r1, r0
    1144:	00014350 	andeq	r4, r1, r0, asr r3
    1148:	00016800 	andeq	r6, r1, r0, lsl #16
    114c:	54000100 	strpl	r0, [r0], #-256	; 0xffffff00
	...
    115c:	0000000f 	andeq	r0, r0, pc
    1160:	0f500001 	svceq	0x00500001
    1164:	20000000 	andcs	r0, r0, r0
    1168:	01000000 	mrseq	r0, (UNDEF: 0)
    116c:	00005400 	andeq	r5, r0, r0, lsl #8
	...
    1178:	000f0000 	andeq	r0, pc, r0
    117c:	00010000 	andeq	r0, r1, r0
    1180:	00000f51 	andeq	r0, r0, r1, asr pc
    1184:	00002000 	andeq	r2, r0, r0
    1188:	55000100 	strpl	r0, [r0, #-256]	; 0xffffff00
	...
    1194:	000000ec 	andeq	r0, r0, ip, ror #1
    1198:	00000104 	andeq	r0, r0, r4, lsl #2
    119c:	04500001 	ldrbeq	r0, [r0], #-1
    11a0:	14000001 	strne	r0, [r0], #-1
    11a4:	04000001 	streq	r0, [r0], #-1
    11a8:	5001f300 	andpl	pc, r1, r0, lsl #6
    11ac:	0001149f 	muleq	r1, pc, r4	; <UNPREDICTABLE>
    11b0:	00011800 	andeq	r1, r1, r0, lsl #16
    11b4:	50000100 	andpl	r0, r0, r0, lsl #2
    11b8:	00000118 	andeq	r0, r0, r8, lsl r1
    11bc:	00000120 	andeq	r0, r0, r0, lsr #2
    11c0:	01f30004 	mvnseq	r0, r4
    11c4:	00009f50 	andeq	r9, r0, r0, asr pc
    11c8:	00000000 	andeq	r0, r0, r0
    11cc:	00f80000 	rscseq	r0, r8, r0
    11d0:	01040000 	mrseq	r0, (UNDEF: 4)
    11d4:	000b0000 	andeq	r0, fp, r0
    11d8:	25350070 	ldrcs	r0, [r5, #-112]!	; 0xffffff90
    11dc:	8080b423 	addhi	fp, r0, r3, lsr #8
    11e0:	049f0281 	ldreq	r0, [pc], #641	; 11e8 <_start-0x6e18>
    11e4:	07000001 	streq	r0, [r0, -r1]
    11e8:	01000001 	tsteq	r0, r1
    11ec:	01075000 	mrseq	r5, (UNDEF: 7)
    11f0:	01140000 	tsteq	r4, r0
    11f4:	000c0000 	andeq	r0, ip, r0
    11f8:	355001f3 	ldrbcc	r0, [r0, #-499]	; 0xfffffe0d
    11fc:	80b42325 	adcshi	r2, r4, r5, lsr #6
    1200:	9f028180 	svcls	0x00028180
	...
    120c:	000000fc 	strdeq	r0, [r0], -ip
    1210:	00000114 	andeq	r0, r0, r4, lsl r1
    1214:	00540001 	subseq	r0, r4, r1
    1218:	00000000 	andeq	r0, r0, r0
    121c:	d0000000 	andle	r0, r0, r0
    1220:	df000000 	svcle	0x00000000
    1224:	01000000 	mrseq	r0, (UNDEF: 0)
    1228:	00df5000 	sbcseq	r5, pc, r0
    122c:	00e40000 	rsceq	r0, r4, r0
    1230:	00040000 	andeq	r0, r4, r0
    1234:	9f5001f3 	svcls	0x005001f3
    1238:	000000e4 	andeq	r0, r0, r4, ror #1
    123c:	000000e7 	andeq	r0, r0, r7, ror #1
    1240:	e7500001 	ldrb	r0, [r0, -r1]
    1244:	ec000000 	stc	0, cr0, [r0], {-0}
    1248:	04000000 	streq	r0, [r0], #-0
    124c:	5001f300 	andpl	pc, r1, r0, lsl #6
    1250:	0000009f 	muleq	r0, pc, r0	; <UNPREDICTABLE>
    1254:	00000000 	andeq	r0, r0, r0
    1258:	0000d000 	andeq	sp, r0, r0
    125c:	0000df00 	andeq	sp, r0, r0, lsl #30
    1260:	51000100 	mrspl	r0, (UNDEF: 16)
    1264:	000000df 	ldrdeq	r0, [r0], -pc	; <UNPREDICTABLE>
    1268:	000000e4 	andeq	r0, r0, r4, ror #1
    126c:	01f30004 	mvnseq	r0, r4
    1270:	00e49f51 	rsceq	r9, r4, r1, asr pc
    1274:	00e70000 	rsceq	r0, r7, r0
    1278:	00010000 	andeq	r0, r1, r0
    127c:	0000e751 	andeq	lr, r0, r1, asr r7
    1280:	0000ec00 	andeq	lr, r0, r0, lsl #24
    1284:	f3000400 	vshl.u8	d0, d0, d0
    1288:	009f5101 	addseq	r5, pc, r1, lsl #2
    128c:	00000000 	andeq	r0, r0, r0
    1290:	c0000000 	andgt	r0, r0, r0
    1294:	cb000000 	blgt	129c <_start-0x6d64>
    1298:	01000000 	mrseq	r0, (UNDEF: 0)
    129c:	00cb5000 	sbceq	r5, fp, r0
    12a0:	00d00000 	sbcseq	r0, r0, r0
    12a4:	00040000 	andeq	r0, r4, r0
    12a8:	9f5001f3 	svcls	0x005001f3
	...
    12b4:	0000009c 	muleq	r0, ip, r0
    12b8:	000000b4 	strheq	r0, [r0], -r4
    12bc:	b4500001 	ldrblt	r0, [r0], #-1
    12c0:	c0000000 	andgt	r0, r0, r0
    12c4:	04000000 	streq	r0, [r0], #-0
    12c8:	5001f300 	andpl	pc, r1, r0, lsl #6
    12cc:	0000009f 	muleq	r0, pc, r0	; <UNPREDICTABLE>
    12d0:	00000000 	andeq	r0, r0, r0
    12d4:	00007800 	andeq	r7, r0, r0, lsl #16
    12d8:	00009000 	andeq	r9, r0, r0
    12dc:	50000100 	andpl	r0, r0, r0, lsl #2
    12e0:	00000090 	muleq	r0, r0, r0
    12e4:	0000009c 	muleq	r0, ip, r0
    12e8:	01f30004 	mvnseq	r0, r4
    12ec:	00009f50 	andeq	r9, r0, r0, asr pc
    12f0:	00000000 	andeq	r0, r0, r0
    12f4:	00680000 	rsbeq	r0, r8, r0
    12f8:	00730000 	rsbseq	r0, r3, r0
    12fc:	00010000 	andeq	r0, r1, r0
    1300:	00007350 	andeq	r7, r0, r0, asr r3
    1304:	00007800 	andeq	r7, r0, r0, lsl #16
    1308:	f3000400 	vshl.u8	d0, d0, d0
    130c:	009f5001 	addseq	r5, pc, r1
	...
    1318:	48000000 	stmdami	r0, {}	; <UNPREDICTABLE>
    131c:	01000000 	mrseq	r0, (UNDEF: 0)
    1320:	00485000 	subeq	r5, r8, r0
    1324:	00680000 	rsbeq	r0, r8, r0
    1328:	00040000 	andeq	r0, r4, r0
    132c:	9f5001f3 	svcls	0x005001f3
	...
    133c:	0000004b 	andeq	r0, r0, fp, asr #32
    1340:	4b510001 	blmi	144134c <__bss_end__+0x143730c>
    1344:	68000000 	stmdavs	r0, {}	; <UNPREDICTABLE>
    1348:	04000000 	streq	r0, [r0], #-0
    134c:	5101f300 	mrspl	pc, SP_irq	; <UNPREDICTABLE>
    1350:	0000009f 	muleq	r0, pc, r0	; <UNPREDICTABLE>
    1354:	00000000 	andeq	r0, r0, r0
    1358:	00004c00 	andeq	r4, r0, r0, lsl #24
    135c:	00005400 	andeq	r5, r0, r0, lsl #8
    1360:	50000100 	andpl	r0, r0, r0, lsl #2
    1364:	00000054 	andeq	r0, r0, r4, asr r0
    1368:	00000058 	andeq	r0, r0, r8, asr r0
    136c:	00750009 	rsbseq	r0, r5, r9
    1370:	71240074 			; <UNDEFINED> instruction: 0x71240074
    1374:	589f2100 	ldmpl	pc, {r8, sp}	; <UNPREDICTABLE>
    1378:	5f000000 	svcpl	0x00000000
    137c:	01000000 	mrseq	r0, (UNDEF: 0)
    1380:	00005100 	andeq	r5, r0, r0, lsl #2
    1384:	00000000 	andeq	r0, r0, r0
    1388:	00e00000 	rsceq	r0, r0, r0
    138c:	011b0000 	tsteq	fp, r0
    1390:	00010000 	andeq	r0, r1, r0
    1394:	00011b50 	andeq	r1, r1, r0, asr fp
    1398:	00012000 	andeq	r2, r1, r0
    139c:	f3000400 	vshl.u8	d0, d0, d0
    13a0:	209f5001 	addscs	r5, pc, r1
    13a4:	23000001 	movwcs	r0, #1
    13a8:	01000001 	tsteq	r0, r1
    13ac:	01235000 			; <UNDEFINED> instruction: 0x01235000
    13b0:	013c0000 	teqeq	ip, r0
    13b4:	00040000 	andeq	r0, r4, r0
    13b8:	9f5001f3 	svcls	0x005001f3
    13bc:	0000013c 	andeq	r0, r0, ip, lsr r1
    13c0:	0000013f 	andeq	r0, r0, pc, lsr r1
    13c4:	3f500001 	svccc	0x00500001
    13c8:	6c000001 	stcvs	0, cr0, [r0], {1}
    13cc:	04000001 	streq	r0, [r0], #-1
    13d0:	5001f300 	andpl	pc, r1, r0, lsl #6
    13d4:	0000009f 	muleq	r0, pc, r0	; <UNPREDICTABLE>
    13d8:	00000000 	andeq	r0, r0, r0
    13dc:	0000e000 	andeq	lr, r0, r0
    13e0:	00010800 	andeq	r0, r1, r0, lsl #16
    13e4:	51000100 	mrspl	r0, (UNDEF: 16)
    13e8:	00000108 	andeq	r0, r0, r8, lsl #2
    13ec:	0000011b 	andeq	r0, r0, fp, lsl r1
    13f0:	01710003 	cmneq	r1, r3
    13f4:	00011b9f 	muleq	r1, pc, fp	; <UNPREDICTABLE>
    13f8:	00012000 	andeq	r2, r1, r0
    13fc:	f3000400 	vshl.u8	d0, d0, d0
    1400:	209f5101 	addscs	r5, pc, r1, lsl #2
    1404:	23000001 	movwcs	r0, #1
    1408:	01000001 	tsteq	r0, r1
    140c:	01235100 			; <UNDEFINED> instruction: 0x01235100
    1410:	016c0000 	cmneq	ip, r0
    1414:	00040000 	andeq	r0, r4, r0
    1418:	9f5101f3 	svcls	0x005101f3
	...
    1424:	000000f8 	strdeq	r0, [r0], -r8
    1428:	000000fc 	strdeq	r0, [r0], -ip
    142c:	fc520001 	mrrc2	0, 0, r0, r2, cr1
    1430:	04000000 	streq	r0, [r0], #-0
    1434:	05000001 	streq	r0, [r0, #-1]
    1438:	96600300 	strbtls	r0, [r0], -r0, lsl #6
    143c:	01040000 	mrseq	r0, (UNDEF: 4)
    1440:	011b0000 	tsteq	fp, r0
    1444:	00010000 	andeq	r0, r1, r0
    1448:	00013c53 	andeq	r3, r1, r3, asr ip
    144c:	00013f00 	andeq	r3, r1, r0, lsl #30
    1450:	53000100 	movwpl	r0, #256	; 0x100
	...
    145c:	0000006c 	andeq	r0, r0, ip, rrx
    1460:	00000080 	andeq	r0, r0, r0, lsl #1
    1464:	80500001 	subshi	r0, r0, r1
    1468:	9b000000 	blls	1470 <_start-0x6b90>
    146c:	01000000 	mrseq	r0, (UNDEF: 0)
    1470:	009b5200 	addseq	r5, fp, r0, lsl #4
    1474:	00a40000 	adceq	r0, r4, r0
    1478:	00090000 	andeq	r0, r9, r0
    147c:	235001f3 	cmpcs	r0, #-1073741764	; 0xc000003c
    1480:	1af80907 	bne	ffe038a4 <__bss_end__+0xffdf9864>
    1484:	0000a49f 	muleq	r0, pc, r4	; <UNPREDICTABLE>
    1488:	0000a700 	andeq	sl, r0, r0, lsl #14
    148c:	50000100 	andpl	r0, r0, r0, lsl #2
    1490:	000000a7 	andeq	r0, r0, r7, lsr #1
    1494:	000000d0 	ldrdeq	r0, [r0], -r0	; <UNPREDICTABLE>
    1498:	01f30004 	mvnseq	r0, r4
    149c:	00009f50 	andeq	r9, r0, r0, asr pc
    14a0:	00000000 	andeq	r0, r0, r0
    14a4:	00880000 	addeq	r0, r8, r0
    14a8:	00a40000 	adceq	r0, r4, r0
    14ac:	00010000 	andeq	r0, r1, r0
    14b0:	00000054 	andeq	r0, r0, r4, asr r0
    14b4:	00000000 	andeq	r0, r0, r0
    14b8:	00001c00 	andeq	r1, r0, r0, lsl #24
    14bc:	00004300 	andeq	r4, r0, r0, lsl #6
    14c0:	50000100 	andpl	r0, r0, r0, lsl #2
    14c4:	00000043 	andeq	r0, r0, r3, asr #32
    14c8:	0000006c 	andeq	r0, r0, ip, rrx
    14cc:	01f30004 	mvnseq	r0, r4
    14d0:	00009f50 	andeq	r9, r0, r0, asr pc
    14d4:	00000000 	andeq	r0, r0, r0
    14d8:	001c0000 	andseq	r0, ip, r0
    14dc:	00430000 	subeq	r0, r3, r0
    14e0:	00010000 	andeq	r0, r1, r0
    14e4:	00004350 	andeq	r4, r0, r0, asr r3
    14e8:	00006c00 	andeq	r6, r0, r0, lsl #24
    14ec:	f3000400 	vshl.u8	d0, d0, d0
    14f0:	009f5001 	addseq	r5, pc, r1
    14f4:	00000000 	andeq	r0, r0, r0
    14f8:	Address 0x00000000000014f8 is out of bounds.


Disassembly of section .debug_aranges:

00000000 <.debug_aranges>:
   0:	0000001c 	andeq	r0, r0, ip, lsl r0
   4:	00000002 	andeq	r0, r0, r2
   8:	00040000 	andeq	r0, r4, r0
   c:	00000000 	andeq	r0, r0, r0
  10:	00008010 	andeq	r8, r0, r0, lsl r0
  14:	000000d0 	ldrdeq	r0, [r0], -r0	; <UNPREDICTABLE>
	...
  20:	0000001c 	andeq	r0, r0, ip, lsl r0
  24:	0ac50002 	beq	ff140034 <__bss_end__+0xff135ff4>
  28:	00040000 	andeq	r0, r4, r0
  2c:	00000000 	andeq	r0, r0, r0
  30:	000080e0 	andeq	r8, r0, r0, ror #1
  34:	00000878 	andeq	r0, r0, r8, ror r8
	...
  40:	0000001c 	andeq	r0, r0, ip, lsl r0
  44:	22920002 	addscs	r0, r2, #2
  48:	00040000 	andeq	r0, r4, r0
  4c:	00000000 	andeq	r0, r0, r0
  50:	00008958 	andeq	r8, r0, r8, asr r9
  54:	00000058 	andeq	r0, r0, r8, asr r0
	...
  60:	0000001c 	andeq	r0, r0, ip, lsl r0
  64:	2c240002 	stccs	0, cr0, [r4], #-8
  68:	00040000 	andeq	r0, r4, r0
  6c:	00000000 	andeq	r0, r0, r0
  70:	000089b0 			; <UNDEFINED> instruction: 0x000089b0
  74:	00000544 	andeq	r0, r0, r4, asr #10
	...
  80:	0000001c 	andeq	r0, r0, ip, lsl r0
  84:	3a980002 	bcc	fe600094 <__bss_end__+0xfe5f6054>
  88:	00040000 	andeq	r0, r4, r0
  8c:	00000000 	andeq	r0, r0, r0
  90:	00008ef4 	strdeq	r8, [r0], -r4
  94:	000000e8 	andeq	r0, r0, r8, ror #1
	...
  a0:	0000001c 	andeq	r0, r0, ip, lsl r0
  a4:	43e80002 	mvnmi	r0, #2
  a8:	00040000 	andeq	r0, r4, r0
  ac:	00000000 	andeq	r0, r0, r0
  b0:	00008fdc 	ldrdeq	r8, [r0], -ip
  b4:	00000034 	andeq	r0, r0, r4, lsr r0
	...
  c0:	0000001c 	andeq	r0, r0, ip, lsl r0
  c4:	4cd70002 	ldclmi	0, cr0, [r7], {2}
  c8:	00040000 	andeq	r0, r4, r0
  cc:	00000000 	andeq	r0, r0, r0
  d0:	00009010 	andeq	r9, r0, r0, lsl r0
  d4:	0000003c 	andeq	r0, r0, ip, lsr r0
	...
  e0:	0000001c 	andeq	r0, r0, ip, lsl r0
  e4:	56180002 	ldrpl	r0, [r8], -r2
  e8:	00040000 	andeq	r0, r4, r0
  ec:	00000000 	andeq	r0, r0, r0
  f0:	0000904c 	andeq	r9, r0, ip, asr #32
  f4:	00000020 	andeq	r0, r0, r0, lsr #32
	...
 100:	0000001c 	andeq	r0, r0, ip, lsl r0
 104:	5ef40002 	cdppl	0, 15, cr0, cr4, cr2, {0}
 108:	00040000 	andeq	r0, r4, r0
 10c:	00000000 	andeq	r0, r0, r0
 110:	0000906c 	andeq	r9, r0, ip, rrx
 114:	00000034 	andeq	r0, r0, r4, lsr r0
	...
 120:	0000001c 	andeq	r0, r0, ip, lsl r0
 124:	682e0002 	stmdavs	lr!, {r1}
 128:	00040000 	andeq	r0, r4, r0
 12c:	00000000 	andeq	r0, r0, r0
 130:	000090a0 	andeq	r9, r0, r0, lsr #1
 134:	00000078 	andeq	r0, r0, r8, ror r0
	...
 140:	0000001c 	andeq	r0, r0, ip, lsl r0
 144:	72180002 	andsvc	r0, r8, #2
 148:	00040000 	andeq	r0, r4, r0
 14c:	00000000 	andeq	r0, r0, r0
 150:	00009118 	andeq	r9, r0, r8, lsl r1
 154:	00000028 	andeq	r0, r0, r8, lsr #32
	...
 160:	0000001c 	andeq	r0, r0, ip, lsl r0
 164:	7b330002 	blvc	cc0174 <__bss_end__+0xcb6134>
 168:	00040000 	andeq	r0, r4, r0
 16c:	00000000 	andeq	r0, r0, r0
 170:	00009140 	andeq	r9, r0, r0, asr #2
 174:	00000088 	andeq	r0, r0, r8, lsl #1
	...
 180:	0000001c 	andeq	r0, r0, ip, lsl r0
 184:	854e0002 	strbhi	r0, [lr, #-2]
 188:	00040000 	andeq	r0, r4, r0
 18c:	00000000 	andeq	r0, r0, r0
 190:	00009214 	andeq	r9, r0, r4, lsl r2
 194:	00000178 	andeq	r0, r0, r8, ror r1
	...
 1a0:	0000001c 	andeq	r0, r0, ip, lsl r0
 1a4:	92170002 	andsls	r0, r7, #2
 1a8:	00040000 	andeq	r0, r4, r0
 1ac:	00000000 	andeq	r0, r0, r0
 1b0:	0000938c 	andeq	r9, r0, ip, lsl #7
 1b4:	00000120 	andeq	r0, r0, r0, lsr #2
	...
 1c0:	0000001c 	andeq	r0, r0, ip, lsl r0
 1c4:	9d8b0002 	stcls	0, cr0, [fp, #8]
 1c8:	00040000 	andeq	r0, r4, r0
 1cc:	00000000 	andeq	r0, r0, r0
 1d0:	000094ac 	andeq	r9, r0, ip, lsr #9
 1d4:	00000194 	muleq	r0, r4, r1
	...

Disassembly of section .debug_line:

00000000 <.debug_line>:
       0:	0000010b 	andeq	r0, r0, fp, lsl #2
       4:	00ed0002 	rsceq	r0, sp, r2
       8:	01020000 	mrseq	r0, (UNDEF: 2)
       c:	000d0efb 	strdeq	r0, [sp], -fp
      10:	01010101 	tsteq	r1, r1, lsl #2
      14:	01000000 	mrseq	r0, (UNDEF: 0)
      18:	2f010000 	svccs	0x00010000
      1c:	2f727375 	svccs	0x00727375
      20:	6c636e69 	stclvs	14, cr6, [r3], #-420	; 0xfffffe5c
      24:	2f656475 	svccs	0x00656475
      28:	6c77656e 	cfldr64vs	mvdx6, [r7], #-440	; 0xfffffe48
      2c:	732f6269 			; <UNDEFINED> instruction: 0x732f6269
      30:	2f007379 	svccs	0x00007379
      34:	2f727375 	svccs	0x00727375
      38:	2f62696c 	svccs	0x0062696c
      3c:	2f636367 	svccs	0x00636367
      40:	2d6d7261 	sfmcs	f7, 2, [sp, #-388]!	; 0xfffffe7c
      44:	656e6f6e 	strbvs	r6, [lr, #-3950]!	; 0xfffff092
      48:	6261652d 	rsbvs	r6, r1, #188743680	; 0xb400000
      4c:	2e362f69 	cdpcs	15, 3, cr2, cr6, cr9, {3}
      50:	2f312e33 	svccs	0x00312e33
      54:	6c636e69 	stclvs	14, cr6, [r3], #-420	; 0xfffffe5c
      58:	00656475 	rsbeq	r6, r5, r5, ror r4
      5c:	6d6f682f 	stclvs	8, cr6, [pc, #-188]!	; ffffffa8 <__bss_end__+0xffff5f68>
      60:	73752f65 	cmnvc	r5, #404	; 0x194
      64:	442f7265 	strtmi	r7, [pc], #-613	; 6c <_start-0x7f94>
      68:	432f7665 			; <UNDEFINED> instruction: 0x432f7665
      6c:	30343253 	eorscc	r3, r4, r3, asr r2
      70:	6c2f2f58 	stcvs	15, cr2, [pc], #-352	; ffffff18 <__bss_end__+0xffff5ed8>
      74:	69706269 	ldmdbvs	r0!, {r0, r3, r5, r6, r9, sp, lr}^
      78:	636e692f 	cmnvs	lr, #770048	; 0xbc000
      7c:	6564756c 	strbvs	r7, [r4, #-1388]!	; 0xfffffa94
      80:	73752f00 	cmnvc	r5, #0, 30
      84:	6e692f72 	mcrvs	15, 3, r2, cr9, cr2, {3}
      88:	64756c63 	ldrbtvs	r6, [r5], #-3171	; 0xfffff39d
      8c:	656e2f65 	strbvs	r2, [lr, #-3941]!	; 0xfffff09b
      90:	62696c77 	rsbvs	r6, r9, #30464	; 0x7700
      94:	61700000 	cmnvs	r0, r0
      98:	2d317472 	cfldrscs	mvf7, [r1, #-456]!	; 0xfffffe38
      9c:	74736574 	ldrbtvc	r6, [r3], #-1396	; 0xfffffa8c
      a0:	00632e33 	rsbeq	r2, r3, r3, lsr lr
      a4:	6c000000 	stcvs	0, cr0, [r0], {-0}
      a8:	2e6b636f 	cdpcs	3, 6, cr6, cr11, cr15, {3}
      ac:	00010068 	andeq	r0, r1, r8, rrx
      b0:	79745f00 	ldmdbvc	r4!, {r8, r9, sl, fp, ip, lr}^
      b4:	2e736570 	mrccs	5, 3, r6, cr3, cr0, {3}
      b8:	00010068 	andeq	r0, r1, r8, rrx
      bc:	64747300 	ldrbtvs	r7, [r4], #-768	; 0xfffffd00
      c0:	2e666564 	cdpcs	5, 6, cr6, cr6, cr4, {3}
      c4:	00020068 	andeq	r0, r2, r8, rrx
      c8:	65657200 	strbvs	r7, [r5, #-512]!	; 0xfffffe00
      cc:	682e746e 	stmdavs	lr!, {r1, r2, r3, r5, r6, sl, ip, sp, lr}
      d0:	00000100 	andeq	r0, r0, r0, lsl #2
      d4:	2e697072 	mcrcs	0, 3, r7, cr9, cr2, {3}
      d8:	00030068 	andeq	r0, r3, r8, rrx
      dc:	616b6300 	cmnvs	fp, r0, lsl #6
      e0:	636f6c6c 	cmnvs	pc, #108, 24	; 0x6c00
      e4:	0000682e 	andeq	r6, r0, lr, lsr #16
      e8:	74730000 	ldrbtvc	r0, [r3], #-0
      ec:	676e6972 			; <UNDEFINED> instruction: 0x676e6972
      f0:	0400682e 	streq	r6, [r0], #-2094	; 0xfffff7d2
      f4:	00000000 	andeq	r0, r0, r0
      f8:	80100205 	andshi	r0, r0, r5, lsl #4
      fc:	4b160000 	blmi	580104 <__bss_end__+0x5760c4>
     100:	f3844c4d 	vqdmulh.s<illegal width 8>	q2, q2, d1[3]
     104:	694ca067 	stmdbvs	ip, {r0, r1, r2, r5, r6, sp, pc}^
     108:	1c026383 	stcne	3, cr6, [r2], {131}	; 0x83
     10c:	5a010100 	bpl	40514 <__bss_end__+0x364d4>
     110:	02000002 	andeq	r0, r0, #2
     114:	00012b00 	andeq	r2, r1, r0, lsl #22
     118:	fb010200 	blx	40922 <__bss_end__+0x368e2>
     11c:	01000d0e 	tsteq	r0, lr, lsl #26
     120:	00010101 	andeq	r0, r1, r1, lsl #2
     124:	00010000 	andeq	r0, r1, r0
     128:	752f0100 	strvc	r0, [pc, #-256]!	; 30 <_start-0x7fd0>
     12c:	6c2f7273 	sfmvs	f7, 4, [pc], #-460	; ffffff68 <__bss_end__+0xffff5f28>
     130:	672f6269 	strvs	r6, [pc, -r9, ror #4]!
     134:	612f6363 			; <UNDEFINED> instruction: 0x612f6363
     138:	6e2d6d72 	mcrvs	13, 1, r6, cr13, cr2, {3}
     13c:	2d656e6f 	stclcs	14, cr6, [r5, #-444]!	; 0xfffffe44
     140:	69626165 	stmdbvs	r2!, {r0, r2, r5, r6, r8, sp, lr}^
     144:	332e362f 			; <UNDEFINED> instruction: 0x332e362f
     148:	692f312e 	stmdbvs	pc!, {r1, r2, r3, r5, r8, ip, sp}	; <UNPREDICTABLE>
     14c:	756c636e 	strbvc	r6, [ip, #-878]!	; 0xfffffc92
     150:	2f006564 	svccs	0x00006564
     154:	2f727375 	svccs	0x00727375
     158:	6c636e69 	stclvs	14, cr6, [r3], #-420	; 0xfffffe5c
     15c:	2f656475 	svccs	0x00656475
     160:	6c77656e 	cfldr64vs	mvdx6, [r7], #-440	; 0xfffffe48
     164:	732f6269 			; <UNDEFINED> instruction: 0x732f6269
     168:	2f007379 	svccs	0x00007379
     16c:	656d6f68 	strbvs	r6, [sp, #-3944]!	; 0xfffff098
     170:	6573752f 	ldrbvs	r7, [r3, #-1327]!	; 0xfffffad1
     174:	65442f72 	strbvs	r2, [r4, #-3954]	; 0xfffff08e
     178:	53432f76 	movtpl	r2, #16246	; 0x3f76
     17c:	58303432 	ldmdapl	r0!, {r1, r4, r5, sl, ip, sp}
     180:	696c2f2f 	stmdbvs	ip!, {r0, r1, r2, r3, r5, r8, r9, sl, fp, sp}^
     184:	2f697062 	svccs	0x00697062
     188:	6c636e69 	stclvs	14, cr6, [r3], #-420	; 0xfffffe5c
     18c:	00656475 	rsbeq	r6, r5, r5, ror r4
     190:	7273752f 	rsbsvc	r7, r3, #197132288	; 0xbc00000
     194:	636e692f 	cmnvs	lr, #770048	; 0xbc000
     198:	6564756c 	strbvs	r7, [r4, #-1388]!	; 0xfffffa94
     19c:	77656e2f 	strbvc	r6, [r5, -pc, lsr #28]!
     1a0:	0062696c 	rsbeq	r6, r2, ip, ror #18
     1a4:	6d6f682f 	stclvs	8, cr6, [pc, #-188]!	; f0 <_start-0x7f10>
     1a8:	73752f65 	cmnvc	r5, #404	; 0x194
     1ac:	442f7265 	strtmi	r7, [pc], #-613	; 1b4 <_start-0x7e4c>
     1b0:	432f7665 			; <UNDEFINED> instruction: 0x432f7665
     1b4:	30343253 	eorscc	r3, r4, r3, asr r2
     1b8:	6c2f2f58 	stcvs	15, cr2, [pc], #-352	; 60 <_start-0x7fa0>
     1bc:	69706269 	ldmdbvs	r0!, {r0, r3, r5, r6, r9, sp, lr}^
     1c0:	62696c2f 	rsbvs	r6, r9, #12032	; 0x2f00
     1c4:	63000063 	movwvs	r0, #99	; 0x63
     1c8:	6c6c616b 	stfvse	f6, [ip], #-428	; 0xfffffe54
     1cc:	632e636f 			; <UNDEFINED> instruction: 0x632e636f
     1d0:	00000000 	andeq	r0, r0, r0
     1d4:	6c616b63 			; <UNDEFINED> instruction: 0x6c616b63
     1d8:	2e636f6c 	cdpcs	15, 6, cr6, cr3, cr12, {3}
     1dc:	00000068 	andeq	r0, r0, r8, rrx
     1e0:	64747300 	ldrbtvs	r7, [r4], #-768	; 0xfffffd00
     1e4:	2d746e69 	ldclcs	14, cr6, [r4, #-420]!	; 0xfffffe5c
     1e8:	2e636367 	cdpcs	3, 6, cr6, cr3, cr7, {3}
     1ec:	00010068 	andeq	r0, r1, r8, rrx
     1f0:	636f6c00 	cmnvs	pc, #0, 24
     1f4:	00682e6b 	rsbeq	r2, r8, fp, ror #28
     1f8:	5f000002 	svcpl	0x00000002
     1fc:	65707974 	ldrbvs	r7, [r0, #-2420]!	; 0xfffff68c
     200:	00682e73 	rsbeq	r2, r8, r3, ror lr
     204:	73000002 	movwvc	r0, #2
     208:	65646474 	strbvs	r6, [r4, #-1140]!	; 0xfffffb8c
     20c:	00682e66 	rsbeq	r2, r8, r6, ror #28
     210:	72000001 	andvc	r0, r0, #1
     214:	746e6565 	strbtvc	r6, [lr], #-1381	; 0xfffffa9b
     218:	0200682e 	andeq	r6, r0, #3014656	; 0x2e0000
     21c:	70720000 	rsbsvc	r0, r2, r0
     220:	00682e69 	rsbeq	r2, r8, r9, ror #28
     224:	73000003 	movwvc	r0, #3
     228:	6e697274 	mcrvs	2, 3, r7, cr9, cr4, {3}
     22c:	00682e67 	rsbeq	r2, r8, r7, ror #28
     230:	6c000004 	stcvs	0, cr0, [r0], {4}
     234:	2d636269 	sfmcs	f6, 2, [r3, #-420]!	; 0xfffffe5c
     238:	72747865 	rsbsvc	r7, r4, #6619136	; 0x650000
     23c:	00682e61 	rsbeq	r2, r8, r1, ror #28
     240:	00000005 	andeq	r0, r0, r5
     244:	e0020500 	and	r0, r2, r0, lsl #10
     248:	03000080 	movweq	r0, #128	; 0x80
     24c:	4c010112 	stfmis	f0, [r1], {18}
     250:	844a682e 	strbhi	r6, [sl], #-2094	; 0xfffff7d2
     254:	03146901 	tsteq	r4, #16384	; 0x4000
     258:	00304a23 	eorseq	r4, r0, r3, lsr #20
     25c:	06010402 	streq	r0, [r1], -r2, lsl #8
     260:	004b062e 	subeq	r0, fp, lr, lsr #12
     264:	49020402 	stmdbmi	r2, {r1, sl}
     268:	02048384 	andeq	r8, r4, #132, 6	; 0x10000002
     26c:	20081003 	andcs	r1, r8, r3
     270:	04d967a0 	ldrbeq	r6, [r9], #1952	; 0x7a0
     274:	666b0301 	strbtvs	r0, [fp], -r1, lsl #6
     278:	03020483 	movweq	r0, #9347	; 0x2483
     27c:	04674a14 	strbteq	r4, [r7], #-2580	; 0xfffff5ec
     280:	f26f0301 	vcgt.s32	d16, d15, d1
     284:	032ff42f 	msreq	CPSR_fsxc, #788529152	; 0x2f000000
     288:	2f4b8251 	svccs	0x004b8251
     28c:	31304b4b 	teqcc	r0, fp, asr #22
     290:	0204844b 	andeq	r8, r4, #1258291200	; 0x4b000000
     294:	20082903 	andcs	r2, r8, r3, lsl #18
     298:	04d967a0 	ldrbeq	r6, [r9], #1952	; 0x7a0
     29c:	66520301 	ldrbvs	r0, [r2], -r1, lsl #6
     2a0:	01040200 	mrseq	r0, R12_usr
     2a4:	02048847 	andeq	r8, r4, #4653056	; 0x470000
     2a8:	674a2b03 	strbvs	r2, [sl, -r3, lsl #22]
     2ac:	51030104 	tstpl	r3, r4, lsl #2
     2b0:	30d86ad6 	ldrsbcc	r6, [r8], #166	; 0xa6
     2b4:	01040200 	mrseq	r0, R12_usr
     2b8:	4b062e06 	blmi	18bad8 <__bss_end__+0x181a98>
     2bc:	02040200 	andeq	r0, r4, #0, 4
     2c0:	04838449 	streq	r8, [r3], #1097	; 0x449
     2c4:	081d0302 	ldmdaeq	sp, {r1, r8, r9}
     2c8:	d967a03c 	stmdble	r7!, {r2, r3, r4, r5, sp, pc}^
     2cc:	5e030104 	adfpls	f0, f3, f4
     2d0:	03020466 	movweq	r0, #9318	; 0x2466
     2d4:	04674a22 	strbteq	r4, [r7], #-2594	; 0xfffff5de
     2d8:	d65d0301 	ldrble	r0, [sp], -r1, lsl #6
     2dc:	0333464e 	teqeq	r3, #81788928	; 0x4e00000
     2e0:	304cd61a 	subcc	sp, ip, sl, lsl r6
     2e4:	04020049 	streq	r0, [r2], #-73	; 0xffffffb7
     2e8:	0806d703 	stmdaeq	r6, {r0, r1, r8, r9, sl, ip, lr, pc}
     2ec:	032f0658 			; <UNDEFINED> instruction: 0x032f0658
     2f0:	2f2e7fab 	svccs	0x002e7fab
     2f4:	006783bb 	strhteq	r8, [r7], #-59	; 0xffffffc5
     2f8:	63010402 	movwvs	r0, #5122	; 0x1402
     2fc:	0800e803 	stmdaeq	r0, {r0, r1, fp, sp, lr, pc}
     300:	9f309f74 	svcls	0x00309f74
     304:	4e6b849f 	mcrmi	4, 3, r8, cr11, cr15, {4}
     308:	04020083 	streq	r0, [r2], #-131	; 0xffffff7d
     30c:	82720301 	rsbshi	r0, r2, #67108864	; 0x4000000
     310:	90081203 	andls	r1, r8, r3, lsl #4
     314:	4ba0d76a 	blmi	fe8360c4 <__bss_end__+0xfe82c084>
     318:	2fbf4d31 	svccs	0x00bf4d31
     31c:	4b674b2f 	blmi	19d2fe0 <__bss_end__+0x19c8fa0>
     320:	68f3834b 	ldmvs	r3!, {r0, r1, r3, r6, r8, r9, pc}^
     324:	d8678383 	stmdale	r7!, {r0, r1, r7, r8, r9, pc}^
     328:	01040200 	mrseq	r0, R12_usr
     32c:	de666203 	cdple	2, 6, cr6, cr6, cr3, {0}
     330:	02009308 	andeq	r9, r0, #8, 6	; 0x20000000
     334:	0f030104 	svceq	0x00030104
     338:	03012a02 	movweq	r2, #6658	; 0x1a02
     33c:	01280209 			; <UNDEFINED> instruction: 0x01280209
     340:	c04c832f 	subgt	r8, ip, pc, lsr #6
     344:	33322d2b 	teqcc	r2, #2752	; 0xac0
     348:	2e10032f 	cdpcs	3, 1, cr0, cr0, cr15, {1}
     34c:	7003a04d 	andvc	sl, r3, sp, asr #32
     350:	6f03354a 	svcvs	0x0003354a
     354:	0402002e 	streq	r0, [r2], #-46	; 0xffffffd2
     358:	89859d01 	stmibhi	r5, {r0, r8, sl, fp, ip, pc}
     35c:	01040200 	mrseq	r0, R12_usr
     360:	0806d606 	stmdaeq	r6, {r1, r2, r9, sl, ip, lr, pc}
     364:	52bb4c5a 	adcspl	r4, fp, #23040	; 0x5a00
     368:	01001802 	tsteq	r0, r2, lsl #16
     36c:	00010001 	andeq	r0, r1, r1
     370:	e9000200 	stmdb	r0, {r9}
     374:	02000000 	andeq	r0, r0, #0
     378:	0d0efb01 	vstreq	d15, [lr, #-4]
     37c:	01010100 	mrseq	r0, (UNDEF: 17)
     380:	00000001 	andeq	r0, r0, r1
     384:	01000001 	tsteq	r0, r1
     388:	6362696c 	cmnvs	r2, #108, 18	; 0x1b0000
     38c:	73752f00 	cmnvc	r5, #0, 30
     390:	696c2f72 	stmdbvs	ip!, {r1, r4, r5, r6, r8, r9, sl, fp, sp}^
     394:	63672f62 	cmnvs	r7, #392	; 0x188
     398:	72612f63 	rsbvc	r2, r1, #396	; 0x18c
     39c:	6f6e2d6d 	svcvs	0x006e2d6d
     3a0:	652d656e 	strvs	r6, [sp, #-1390]!	; 0xfffffa92
     3a4:	2f696261 	svccs	0x00696261
     3a8:	2e332e36 	mrccs	14, 1, r2, cr3, cr6, {1}
     3ac:	6e692f31 	mcrvs	15, 3, r2, cr9, cr1, {1}
     3b0:	64756c63 	ldrbtvs	r6, [r5], #-3171	; 0xfffff39d
     3b4:	752f0065 	strvc	r0, [pc, #-101]!	; 357 <_start-0x7ca9>
     3b8:	692f7273 	stmdbvs	pc!, {r0, r1, r4, r5, r6, r9, ip, sp, lr}	; <UNPREDICTABLE>
     3bc:	756c636e 	strbvc	r6, [ip, #-878]!	; 0xfffffc92
     3c0:	6e2f6564 	cfsh64vs	mvdx6, mvdx15, #52
     3c4:	696c7765 	stmdbvs	ip!, {r0, r2, r5, r6, r8, r9, sl, ip, sp, lr}^
     3c8:	79732f62 	ldmdbvc	r3!, {r1, r5, r6, r8, r9, sl, fp, sp}^
     3cc:	682f0073 	stmdavs	pc!, {r0, r1, r4, r5, r6}	; <UNPREDICTABLE>
     3d0:	2f656d6f 	svccs	0x00656d6f
     3d4:	72657375 	rsbvc	r7, r5, #-738197503	; 0xd4000001
     3d8:	7665442f 	strbtvc	r4, [r5], -pc, lsr #8
     3dc:	3253432f 	subscc	r4, r3, #-1140850688	; 0xbc000000
     3e0:	2f583034 	svccs	0x00583034
     3e4:	62696c2f 	rsbvs	r6, r9, #12032	; 0x2f00
     3e8:	692f6970 	stmdbvs	pc!, {r4, r5, r6, r8, fp, sp, lr}	; <UNPREDICTABLE>
     3ec:	756c636e 	strbvc	r6, [ip, #-878]!	; 0xfffffc92
     3f0:	00006564 	andeq	r6, r0, r4, ror #10
     3f4:	6e697270 	mcrvs	2, 3, r7, cr9, cr0, {3}
     3f8:	632e6b74 			; <UNDEFINED> instruction: 0x632e6b74
     3fc:	00000100 	andeq	r0, r0, r0, lsl #2
     400:	61647473 	smcvs	18243	; 0x4743
     404:	682e6772 	stmdavs	lr!, {r1, r4, r5, r6, r8, r9, sl, sp, lr}
     408:	00000200 	andeq	r0, r0, r0, lsl #4
     40c:	6b636f6c 	blvs	18dc1c4 <__bss_end__+0x18d2184>
     410:	0300682e 	movweq	r6, #2094	; 0x82e
     414:	745f0000 	ldrbvc	r0, [pc], #-0	; 41c <_start-0x7be4>
     418:	73657079 	cmnvc	r5, #121	; 0x79
     41c:	0300682e 	movweq	r6, #2094	; 0x82e
     420:	74730000 	ldrbtvc	r0, [r3], #-0
     424:	66656464 	strbtvs	r6, [r5], -r4, ror #8
     428:	0200682e 	andeq	r6, r0, #3014656	; 0x2e0000
     42c:	65720000 	ldrbvs	r0, [r2, #-0]!
     430:	2e746e65 	cdpcs	14, 7, cr6, cr4, cr5, {3}
     434:	00030068 	andeq	r0, r3, r8, rrx
     438:	75623c00 	strbvc	r3, [r2, #-3072]!	; 0xfffff400
     43c:	2d746c69 	ldclcs	12, cr6, [r4, #-420]!	; 0xfffffe5c
     440:	003e6e69 	eorseq	r6, lr, r9, ror #28
     444:	72000000 	andvc	r0, r0, #0
     448:	682e6970 	stmdavs	lr!, {r4, r5, r6, r8, fp, sp, lr}
     44c:	00000400 	andeq	r0, r0, r0, lsl #8
     450:	702d6176 	eorvc	r6, sp, r6, ror r1
     454:	746e6972 	strbtvc	r6, [lr], #-2418	; 0xfffff68e
     458:	00682e6b 	rsbeq	r2, r8, fp, ror #28
     45c:	00000001 	andeq	r0, r0, r1
     460:	58020500 	stmdapl	r2, {r8, sl}
     464:	17000089 	strne	r0, [r0, -r9, lsl #1]
     468:	89bf4b6b 	ldmibhi	pc!, {r0, r1, r3, r5, r6, r8, r9, fp, lr}	; <UNPREDICTABLE>
     46c:	01000e02 	tsteq	r0, r2, lsl #28
     470:	0001ce01 	andeq	ip, r1, r1, lsl #28
     474:	dd000200 	sfmle	f0, 4, [r0, #-0]
     478:	02000000 	andeq	r0, r0, #0
     47c:	0d0efb01 	vstreq	d15, [lr, #-4]
     480:	01010100 	mrseq	r0, (UNDEF: 17)
     484:	00000001 	andeq	r0, r0, r1
     488:	01000001 	tsteq	r0, r1
     48c:	6362696c 	cmnvs	r2, #108, 18	; 0x1b0000
     490:	73752f00 	cmnvc	r5, #0, 30
     494:	6e692f72 	mcrvs	15, 3, r2, cr9, cr2, {3}
     498:	64756c63 	ldrbtvs	r6, [r5], #-3171	; 0xfffff39d
     49c:	656e2f65 	strbvs	r2, [lr, #-3941]!	; 0xfffff09b
     4a0:	62696c77 	rsbvs	r6, r9, #30464	; 0x7700
     4a4:	7379732f 	cmnvc	r9, #-1140850688	; 0xbc000000
     4a8:	73752f00 	cmnvc	r5, #0, 30
     4ac:	696c2f72 	stmdbvs	ip!, {r1, r4, r5, r6, r8, r9, sl, fp, sp}^
     4b0:	63672f62 	cmnvs	r7, #392	; 0x188
     4b4:	72612f63 	rsbvc	r2, r1, #396	; 0x18c
     4b8:	6f6e2d6d 	svcvs	0x006e2d6d
     4bc:	652d656e 	strvs	r6, [sp, #-1390]!	; 0xfffffa92
     4c0:	2f696261 	svccs	0x00696261
     4c4:	2e332e36 	mrccs	14, 1, r2, cr3, cr6, {1}
     4c8:	6e692f31 	mcrvs	15, 3, r2, cr9, cr1, {1}
     4cc:	64756c63 	ldrbtvs	r6, [r5], #-3171	; 0xfffff39d
     4d0:	682f0065 	stmdavs	pc!, {r0, r2, r5, r6}	; <UNPREDICTABLE>
     4d4:	2f656d6f 	svccs	0x00656d6f
     4d8:	72657375 	rsbvc	r7, r5, #-738197503	; 0xd4000001
     4dc:	7665442f 	strbtvc	r4, [r5], -pc, lsr #8
     4e0:	3253432f 	subscc	r4, r3, #-1140850688	; 0xbc000000
     4e4:	2f583034 	svccs	0x00583034
     4e8:	62696c2f 	rsbvs	r6, r9, #12032	; 0x2f00
     4ec:	692f6970 	stmdbvs	pc!, {r4, r5, r6, r8, fp, sp, lr}	; <UNPREDICTABLE>
     4f0:	756c636e 	strbvc	r6, [ip, #-878]!	; 0xfffffc92
     4f4:	00006564 	andeq	r6, r0, r4, ror #10
     4f8:	702d6176 	eorvc	r6, sp, r6, ror r1
     4fc:	746e6972 	strbtvc	r6, [lr], #-2418	; 0xfffff68e
     500:	00632e6b 	rsbeq	r2, r3, fp, ror #28
     504:	6c000001 	stcvs	0, cr0, [r0], {1}
     508:	2e6b636f 	cdpcs	3, 6, cr6, cr11, cr15, {3}
     50c:	00020068 	andeq	r0, r2, r8, rrx
     510:	79745f00 	ldmdbvc	r4!, {r8, r9, sl, fp, ip, lr}^
     514:	2e736570 	mrccs	5, 3, r6, cr3, cr0, {3}
     518:	00020068 	andeq	r0, r2, r8, rrx
     51c:	64747300 	ldrbtvs	r7, [r4], #-768	; 0xfffffd00
     520:	2e666564 	cdpcs	5, 6, cr6, cr6, cr4, {3}
     524:	00030068 	andeq	r0, r3, r8, rrx
     528:	65657200 	strbvs	r7, [r5, #-512]!	; 0xfffffe00
     52c:	682e746e 	stmdavs	lr!, {r1, r2, r3, r5, r6, sl, ip, sp, lr}
     530:	00000200 	andeq	r0, r0, r0, lsl #4
     534:	2e697072 	mcrcs	0, 3, r7, cr9, cr2, {3}
     538:	00040068 	andeq	r0, r4, r8, rrx
     53c:	64747300 	ldrbtvs	r7, [r4], #-768	; 0xfffffd00
     540:	2e677261 	cdpcs	2, 6, cr7, cr7, cr1, {3}
     544:	00030068 	andeq	r0, r3, r8, rrx
     548:	75623c00 	strbvc	r3, [r2, #-3072]!	; 0xfffff400
     54c:	2d746c69 	ldclcs	12, cr6, [r4, #-420]!	; 0xfffffe5c
     550:	003e6e69 	eorseq	r6, lr, r9, ror #28
     554:	00000000 	andeq	r0, r0, r0
     558:	b0020500 	andlt	r0, r2, r0, lsl #10
     55c:	03000089 	movweq	r0, #137	; 0x89
     560:	a5010126 	strge	r0, [r1, #-294]	; 0xfffffeda
     564:	02003013 	andeq	r3, r0, #19
     568:	002f0204 	eoreq	r0, pc, r4, lsl #4
     56c:	49020402 	stmdbmi	r2, {r1, sl}
     570:	02040200 	andeq	r0, r4, #0, 4
     574:	0402002f 	streq	r0, [r2], #-47	; 0xffffffd1
     578:	4c4c2d01 	mcrrmi	13, 0, r2, ip, cr1
     57c:	2f4b1430 	svccs	0x004b1430
     580:	0402004f 	streq	r0, [r2], #-79	; 0xffffffb1
     584:	02006703 	andeq	r6, r0, #786432	; 0xc0000
     588:	4c650104 	stfmie	f0, [r5], #-16
     58c:	2fa0304d 	svccs	0x00a0304d
     590:	26023031 			; <UNDEFINED> instruction: 0x26023031
     594:	002da016 	eoreq	sl, sp, r6, lsl r0
     598:	06010402 	streq	r0, [r1], -r2, lsl #8
     59c:	5148062e 	cmppl	r8, lr, lsr #12
     5a0:	01040200 	mrseq	r0, R12_usr
     5a4:	02002e06 	andeq	r2, r0, #6, 28	; 0x60
     5a8:	08060104 	stmdaeq	r6, {r2, r8}
     5ac:	032f6759 			; <UNDEFINED> instruction: 0x032f6759
     5b0:	02008273 	andeq	r8, r0, #805306375	; 0x30000007
     5b4:	13030104 	movwne	r0, #12548	; 0x3104
     5b8:	0402002e 	streq	r0, [r2], #-46	; 0xffffffd2
     5bc:	674bbb01 	strbvs	fp, [fp, -r1, lsl #22]
     5c0:	d74a1503 	strble	r1, [sl, -r3, lsl #10]
     5c4:	4b4a6e03 	blmi	129bdd8 <__bss_end__+0x1291d98>
     5c8:	002e6503 	eoreq	r6, lr, r3, lsl #10
     5cc:	03010402 	movweq	r0, #5122	; 0x1402
     5d0:	02002e23 	andeq	r2, r0, #560	; 0x230
     5d4:	00bb0104 	adcseq	r0, fp, r4, lsl #2
     5d8:	6a010402 	bvs	415e8 <__bss_end__+0x375a8>
     5dc:	087fa803 	ldmdaeq	pc!, {r0, r1, fp, sp, pc}^	; <UNPREDICTABLE>
     5e0:	4b4b13ac 	blmi	12c5498 <__bss_end__+0x12bb458>
     5e4:	0402002f 	streq	r0, [r2], #-47	; 0xffffffd1
     5e8:	02006201 	andeq	r6, r0, #268435456	; 0x10000000
     5ec:	032f0104 			; <UNDEFINED> instruction: 0x032f0104
     5f0:	740800df 	strvc	r0, [r8], #-223	; 0xffffff21
     5f4:	31484c83 	smlalbbcc	r4, r8, r3, ip
     5f8:	01040200 	mrseq	r0, R12_usr
     5fc:	4b066606 	blmi	199e1c <__bss_end__+0x18fddc>
     600:	314e842f 	cmpcc	lr, pc, lsr #8
     604:	2e780330 	mrccs	3, 3, r0, cr8, cr0, {1}
     608:	09032d2f 	stmdbeq	r3, {r0, r1, r2, r3, r5, r8, sl, fp, sp}
     60c:	a22c834a 	eorge	r8, ip, #671088641	; 0x28000001
     610:	0402004c 	streq	r0, [r2], #-76	; 0xffffffb4
     614:	10360201 	eorsne	r0, r6, r1, lsl #4
     618:	d60e03dc 			; <UNDEFINED> instruction: 0xd60e03dc
     61c:	58081603 	stmdapl	r8, {r0, r1, r9, sl, ip}
     620:	2e6a0331 	mcrcs	3, 3, r0, cr10, cr1, {1}
     624:	08315908 	ldmdaeq	r1!, {r3, r8, fp, ip, lr}
     628:	59083059 	stmdbpl	r8, {r0, r3, r4, r6, ip, sp}
     62c:	08308330 	ldmdaeq	r0!, {r4, r5, r8, r9, pc}
     630:	27083059 	smlsdcs	r8, r9, r0, r3
     634:	04020065 	streq	r0, [r2], #-101	; 0xffffff9b
     638:	064a0601 	strbeq	r0, [sl], -r1, lsl #12
     63c:	10026886 	andne	r6, r2, r6, lsl #17
     640:	2a010100 	bcs	40a48 <__bss_end__+0x36a08>
     644:	02000001 	andeq	r0, r0, #1
     648:	0000ce00 	andeq	ip, r0, r0, lsl #28
     64c:	fb010200 	blx	40e56 <__bss_end__+0x36e16>
     650:	01000d0e 	tsteq	r0, lr, lsl #26
     654:	00010101 	andeq	r0, r1, r1, lsl #2
     658:	00010000 	andeq	r0, r1, r0
     65c:	696c0100 	stmdbvs	ip!, {r8}^
     660:	2f006362 	svccs	0x00006362
     664:	2f727375 	svccs	0x00727375
     668:	2f62696c 	svccs	0x0062696c
     66c:	2f636367 	svccs	0x00636367
     670:	2d6d7261 	sfmcs	f7, 2, [sp, #-388]!	; 0xfffffe7c
     674:	656e6f6e 	strbvs	r6, [lr, #-3950]!	; 0xfffff092
     678:	6261652d 	rsbvs	r6, r1, #188743680	; 0xb400000
     67c:	2e362f69 	cdpcs	15, 3, cr2, cr6, cr9, {3}
     680:	2f312e33 	svccs	0x00312e33
     684:	6c636e69 	stclvs	14, cr6, [r3], #-420	; 0xfffffe5c
     688:	00656475 	rsbeq	r6, r5, r5, ror r4
     68c:	7273752f 	rsbsvc	r7, r3, #197132288	; 0xbc00000
     690:	636e692f 	cmnvs	lr, #770048	; 0xbc000
     694:	6564756c 	strbvs	r7, [r4, #-1388]!	; 0xfffffa94
     698:	77656e2f 	strbvc	r6, [r5, -pc, lsr #28]!
     69c:	2f62696c 	svccs	0x0062696c
     6a0:	00737973 	rsbseq	r7, r3, r3, ror r9
     6a4:	6d6f682f 	stclvs	8, cr6, [pc, #-188]!	; 5f0 <_start-0x7a10>
     6a8:	73752f65 	cmnvc	r5, #404	; 0x194
     6ac:	442f7265 	strtmi	r7, [pc], #-613	; 6b4 <_start-0x794c>
     6b0:	432f7665 			; <UNDEFINED> instruction: 0x432f7665
     6b4:	30343253 	eorscc	r3, r4, r3, asr r2
     6b8:	6c2f2f58 	stcvs	15, cr2, [pc], #-352	; 560 <_start-0x7aa0>
     6bc:	69706269 	ldmdbvs	r0!, {r0, r3, r5, r6, r9, sp, lr}^
     6c0:	636e692f 	cmnvs	lr, #770048	; 0xbc000
     6c4:	6564756c 	strbvs	r7, [r4, #-1388]!	; 0xfffffa94
     6c8:	61680000 	cmnvs	r8, r0
     6cc:	632e6873 			; <UNDEFINED> instruction: 0x632e6873
     6d0:	00000100 	andeq	r0, r0, r0, lsl #2
     6d4:	69647473 	stmdbvs	r4!, {r0, r1, r4, r5, r6, sl, ip, sp, lr}^
     6d8:	672d746e 	strvs	r7, [sp, -lr, ror #8]!
     6dc:	682e6363 	stmdavs	lr!, {r0, r1, r5, r6, r8, r9, sp, lr}
     6e0:	00000200 	andeq	r0, r0, r0, lsl #4
     6e4:	6b636f6c 	blvs	18dc49c <__bss_end__+0x18d245c>
     6e8:	0300682e 	movweq	r6, #2094	; 0x82e
     6ec:	745f0000 	ldrbvc	r0, [pc], #-0	; 6f4 <_start-0x790c>
     6f0:	73657079 	cmnvc	r5, #121	; 0x79
     6f4:	0300682e 	movweq	r6, #2094	; 0x82e
     6f8:	74730000 	ldrbtvc	r0, [r3], #-0
     6fc:	66656464 	strbtvs	r6, [r5], -r4, ror #8
     700:	0200682e 	andeq	r6, r0, #3014656	; 0x2e0000
     704:	65720000 	ldrbvs	r0, [r2, #-0]!
     708:	2e746e65 	cdpcs	14, 7, cr6, cr4, cr5, {3}
     70c:	00030068 	andeq	r0, r3, r8, rrx
     710:	69707200 	ldmdbvs	r0!, {r9, ip, sp, lr}^
     714:	0400682e 	streq	r6, [r0], #-2094	; 0xfffff7d2
     718:	00000000 	andeq	r0, r0, r0
     71c:	8ef40205 	cdphi	2, 15, cr0, cr4, cr5, {0}
     720:	0e030000 	cdpeq	0, 0, cr0, cr3, cr0, {0}
     724:	51611701 	cmnpl	r1, r1, lsl #14
     728:	0200312f 	andeq	r3, r0, #-1073741813	; 0xc000000b
     72c:	002f0204 	eoreq	r0, pc, r4, lsl #4
     730:	83020402 	movwhi	r0, #9218	; 0x2402
     734:	02040200 	andeq	r0, r4, #0, 4
     738:	04020083 	streq	r0, [r2], #-131	; 0xffffff7d
     73c:	02002f02 	andeq	r2, r0, #2, 30
     740:	002f0204 	eoreq	r0, pc, r4, lsl #4
     744:	29020402 	stmdbcs	r2, {r1, sl}
     748:	01040200 	mrseq	r0, R12_usr
     74c:	03062e06 	movweq	r2, #28166	; 0x6e06
     750:	10034a09 	andne	r4, r3, r9, lsl #20
     754:	2f2f2fba 	svccs	0x002f2fba
     758:	03302f2f 	teqeq	r0, #47, 30	; 0xbc
     75c:	2f832e6a 	svccs	0x00832e6a
     760:	832f2f4b 			; <UNDEFINED> instruction: 0x832f2f4b
     764:	4b2f2f2f 	blmi	bcc428 <__bss_end__+0xbc23e8>
     768:	4a65032f 	bmi	194142c <__bss_end__+0x19373ec>
     76c:	01000402 	tsteq	r0, r2, lsl #8
     770:	0000e401 	andeq	lr, r0, r1, lsl #8
     774:	be000200 	cdplt	2, 0, cr0, cr0, cr0, {0}
     778:	02000000 	andeq	r0, r0, #0
     77c:	0d0efb01 	vstreq	d15, [lr, #-4]
     780:	01010100 	mrseq	r0, (UNDEF: 17)
     784:	00000001 	andeq	r0, r0, r1
     788:	01000001 	tsteq	r0, r1
     78c:	6362696c 	cmnvs	r2, #108, 18	; 0x1b0000
     790:	73752f00 	cmnvc	r5, #0, 30
     794:	6e692f72 	mcrvs	15, 3, r2, cr9, cr2, {3}
     798:	64756c63 	ldrbtvs	r6, [r5], #-3171	; 0xfffff39d
     79c:	656e2f65 	strbvs	r2, [lr, #-3941]!	; 0xfffff09b
     7a0:	62696c77 	rsbvs	r6, r9, #30464	; 0x7700
     7a4:	7379732f 	cmnvc	r9, #-1140850688	; 0xbc000000
     7a8:	73752f00 	cmnvc	r5, #0, 30
     7ac:	696c2f72 	stmdbvs	ip!, {r1, r4, r5, r6, r8, r9, sl, fp, sp}^
     7b0:	63672f62 	cmnvs	r7, #392	; 0x188
     7b4:	72612f63 	rsbvc	r2, r1, #396	; 0x18c
     7b8:	6f6e2d6d 	svcvs	0x006e2d6d
     7bc:	652d656e 	strvs	r6, [sp, #-1390]!	; 0xfffffa92
     7c0:	2f696261 	svccs	0x00696261
     7c4:	2e332e36 	mrccs	14, 1, r2, cr3, cr6, {1}
     7c8:	6e692f31 	mcrvs	15, 3, r2, cr9, cr1, {1}
     7cc:	64756c63 	ldrbtvs	r6, [r5], #-3171	; 0xfffff39d
     7d0:	682f0065 	stmdavs	pc!, {r0, r2, r5, r6}	; <UNPREDICTABLE>
     7d4:	2f656d6f 	svccs	0x00656d6f
     7d8:	72657375 	rsbvc	r7, r5, #-738197503	; 0xd4000001
     7dc:	7665442f 	strbtvc	r4, [r5], -pc, lsr #8
     7e0:	3253432f 	subscc	r4, r3, #-1140850688	; 0xbc000000
     7e4:	2f583034 	svccs	0x00583034
     7e8:	62696c2f 	rsbvs	r6, r9, #12032	; 0x2f00
     7ec:	692f6970 	stmdbvs	pc!, {r4, r5, r6, r8, fp, sp, lr}	; <UNPREDICTABLE>
     7f0:	756c636e 	strbvc	r6, [ip, #-878]!	; 0xfffffc92
     7f4:	00006564 	andeq	r6, r0, r4, ror #10
     7f8:	6b747570 	blvs	1d1ddc0 <__bss_end__+0x1d13d80>
     7fc:	0100632e 	tsteq	r0, lr, lsr #6
     800:	6f6c0000 	svcvs	0x006c0000
     804:	682e6b63 	stmdavs	lr!, {r0, r1, r5, r6, r8, r9, fp, sp, lr}
     808:	00000200 	andeq	r0, r0, r0, lsl #4
     80c:	7079745f 	rsbsvc	r7, r9, pc, asr r4
     810:	682e7365 	stmdavs	lr!, {r0, r2, r5, r6, r8, r9, ip, sp, lr}
     814:	00000200 	andeq	r0, r0, r0, lsl #4
     818:	64647473 	strbtvs	r7, [r4], #-1139	; 0xfffffb8d
     81c:	682e6665 	stmdavs	lr!, {r0, r2, r5, r6, r9, sl, sp, lr}
     820:	00000300 	andeq	r0, r0, r0, lsl #6
     824:	6e656572 	mcrvs	5, 3, r6, cr5, cr2, {3}
     828:	00682e74 	rsbeq	r2, r8, r4, ror lr
     82c:	72000002 	andvc	r0, r0, #2
     830:	682e6970 	stmdavs	lr!, {r4, r5, r6, r8, fp, sp, lr}
     834:	00000400 	andeq	r0, r0, r0, lsl #8
     838:	02050000 	andeq	r0, r5, #0
     83c:	00008fdc 	ldrdeq	r8, [r0], -ip
     840:	02004b15 	andeq	r4, r0, #21504	; 0x5400
     844:	002f0204 	eoreq	r0, pc, r4, lsl #4
     848:	65020402 	strvs	r0, [r2, #-1026]	; 0xfffffbfe
     84c:	01040200 	mrseq	r0, R12_usr
     850:	6b062e06 	blvs	18c070 <__bss_end__+0x182030>
     854:	01000602 	tsteq	r0, r2, lsl #12
     858:	0000d901 	andeq	sp, r0, r1, lsl #18
     85c:	c1000200 	mrsgt	r0, R8_usr
     860:	02000000 	andeq	r0, r0, #0
     864:	0d0efb01 	vstreq	d15, [lr, #-4]
     868:	01010100 	mrseq	r0, (UNDEF: 17)
     86c:	00000001 	andeq	r0, r0, r1
     870:	01000001 	tsteq	r0, r1
     874:	6362696c 	cmnvs	r2, #108, 18	; 0x1b0000
     878:	73752f00 	cmnvc	r5, #0, 30
     87c:	6e692f72 	mcrvs	15, 3, r2, cr9, cr2, {3}
     880:	64756c63 	ldrbtvs	r6, [r5], #-3171	; 0xfffff39d
     884:	656e2f65 	strbvs	r2, [lr, #-3941]!	; 0xfffff09b
     888:	62696c77 	rsbvs	r6, r9, #30464	; 0x7700
     88c:	7379732f 	cmnvc	r9, #-1140850688	; 0xbc000000
     890:	73752f00 	cmnvc	r5, #0, 30
     894:	696c2f72 	stmdbvs	ip!, {r1, r4, r5, r6, r8, r9, sl, fp, sp}^
     898:	63672f62 	cmnvs	r7, #392	; 0x188
     89c:	72612f63 	rsbvc	r2, r1, #396	; 0x18c
     8a0:	6f6e2d6d 	svcvs	0x006e2d6d
     8a4:	652d656e 	strvs	r6, [sp, #-1390]!	; 0xfffffa92
     8a8:	2f696261 	svccs	0x00696261
     8ac:	2e332e36 	mrccs	14, 1, r2, cr3, cr6, {1}
     8b0:	6e692f31 	mcrvs	15, 3, r2, cr9, cr1, {1}
     8b4:	64756c63 	ldrbtvs	r6, [r5], #-3171	; 0xfffff39d
     8b8:	682f0065 	stmdavs	pc!, {r0, r2, r5, r6}	; <UNPREDICTABLE>
     8bc:	2f656d6f 	svccs	0x00656d6f
     8c0:	72657375 	rsbvc	r7, r5, #-738197503	; 0xd4000001
     8c4:	7665442f 	strbtvc	r4, [r5], -pc, lsr #8
     8c8:	3253432f 	subscc	r4, r3, #-1140850688	; 0xbc000000
     8cc:	2f583034 	svccs	0x00583034
     8d0:	62696c2f 	rsbvs	r6, r9, #12032	; 0x2f00
     8d4:	692f6970 	stmdbvs	pc!, {r4, r5, r6, r8, fp, sp, lr}	; <UNPREDICTABLE>
     8d8:	756c636e 	strbvc	r6, [ip, #-878]!	; 0xfffffc92
     8dc:	00006564 	andeq	r6, r0, r4, ror #10
     8e0:	63747570 	cmnvs	r4, #112, 10	; 0x1c000000
     8e4:	2e726168 	rpwcssz	f6, f2, #0.0
     8e8:	00010063 	andeq	r0, r1, r3, rrx
     8ec:	636f6c00 	cmnvs	pc, #0, 24
     8f0:	00682e6b 	rsbeq	r2, r8, fp, ror #28
     8f4:	5f000002 	svcpl	0x00000002
     8f8:	65707974 	ldrbvs	r7, [r0, #-2420]!	; 0xfffff68c
     8fc:	00682e73 	rsbeq	r2, r8, r3, ror lr
     900:	73000002 	movwvc	r0, #2
     904:	65646474 	strbvs	r6, [r4, #-1140]!	; 0xfffffb8c
     908:	00682e66 	rsbeq	r2, r8, r6, ror #28
     90c:	72000003 	andvc	r0, r0, #3
     910:	746e6565 	strbtvc	r6, [lr], #-1381	; 0xfffffa9b
     914:	0200682e 	andeq	r6, r0, #3014656	; 0x2e0000
     918:	70720000 	rsbsvc	r0, r2, r0
     91c:	00682e69 	rsbeq	r2, r8, r9, ror #28
     920:	00000004 	andeq	r0, r0, r4
     924:	10020500 	andne	r0, r2, r0, lsl #10
     928:	14000090 	strne	r0, [r0], #-144	; 0xffffff70
     92c:	bc136b4a 			; <UNDEFINED> instruction: 0xbc136b4a
     930:	00080213 	andeq	r0, r8, r3, lsl r2
     934:	00ca0101 	sbceq	r0, sl, r1, lsl #2
     938:	00020000 	andeq	r0, r2, r0
     93c:	000000b2 	strheq	r0, [r0], -r2
     940:	0efb0102 	cdpeq	1, 15, cr0, cr11, cr2, {0}
     944:	0101000d 	tsteq	r1, sp
     948:	00000101 	andeq	r0, r0, r1, lsl #2
     94c:	00000100 	andeq	r0, r0, r0, lsl #2
     950:	62696c01 	rsbvs	r6, r9, #256	; 0x100
     954:	752f0063 	strvc	r0, [pc, #-99]!	; 8f9 <_start-0x7707>
     958:	6c2f7273 	sfmvs	f7, 4, [pc], #-460	; 794 <_start-0x786c>
     95c:	672f6269 	strvs	r6, [pc, -r9, ror #4]!
     960:	612f6363 			; <UNDEFINED> instruction: 0x612f6363
     964:	6e2d6d72 	mcrvs	13, 1, r6, cr13, cr2, {3}
     968:	2d656e6f 	stclcs	14, cr6, [r5, #-444]!	; 0xfffffe44
     96c:	69626165 	stmdbvs	r2!, {r0, r2, r5, r6, r8, sp, lr}^
     970:	332e362f 			; <UNDEFINED> instruction: 0x332e362f
     974:	692f312e 	stmdbvs	pc!, {r1, r2, r3, r5, r8, ip, sp}	; <UNPREDICTABLE>
     978:	756c636e 	strbvc	r6, [ip, #-878]!	; 0xfffffc92
     97c:	2f006564 	svccs	0x00006564
     980:	2f727375 	svccs	0x00727375
     984:	6c636e69 	stclvs	14, cr6, [r3], #-420	; 0xfffffe5c
     988:	2f656475 	svccs	0x00656475
     98c:	6c77656e 	cfldr64vs	mvdx6, [r7], #-440	; 0xfffffe48
     990:	732f6269 			; <UNDEFINED> instruction: 0x732f6269
     994:	2f007379 	svccs	0x00007379
     998:	2f727375 	svccs	0x00727375
     99c:	6c636e69 	stclvs	14, cr6, [r3], #-420	; 0xfffffe5c
     9a0:	2f656475 	svccs	0x00656475
     9a4:	6c77656e 	cfldr64vs	mvdx6, [r7], #-440	; 0xfffffe48
     9a8:	00006269 	andeq	r6, r0, r9, ror #4
     9ac:	736d656d 	cmnvc	sp, #457179136	; 0x1b400000
     9b0:	632e7465 			; <UNDEFINED> instruction: 0x632e7465
     9b4:	00000100 	andeq	r0, r0, r0, lsl #2
     9b8:	64647473 	strbtvs	r7, [r4], #-1139	; 0xfffffb8d
     9bc:	682e6665 	stmdavs	lr!, {r0, r2, r5, r6, r9, sl, sp, lr}
     9c0:	00000200 	andeq	r0, r0, r0, lsl #4
     9c4:	6b636f6c 	blvs	18dc77c <__bss_end__+0x18d273c>
     9c8:	0300682e 	movweq	r6, #2094	; 0x82e
     9cc:	745f0000 	ldrbvc	r0, [pc], #-0	; 9d4 <_start-0x762c>
     9d0:	73657079 	cmnvc	r5, #121	; 0x79
     9d4:	0300682e 	movweq	r6, #2094	; 0x82e
     9d8:	65720000 	ldrbvs	r0, [r2, #-0]!
     9dc:	2e746e65 	cdpcs	14, 7, cr6, cr4, cr5, {3}
     9e0:	00030068 	andeq	r0, r3, r8, rrx
     9e4:	72747300 	rsbsvc	r7, r4, #0, 6
     9e8:	2e676e69 	cdpcs	14, 6, cr6, cr7, cr9, {3}
     9ec:	00040068 	andeq	r0, r4, r8, rrx
     9f0:	05000000 	streq	r0, [r0, #-0]
     9f4:	00904c02 	addseq	r4, r0, r2, lsl #24
     9f8:	4c131400 	cfldrsmi	mvf1, [r3], {-0}
     9fc:	024d492f 	subeq	r4, sp, #770048	; 0xbc000
     a00:	01010002 	tsteq	r1, r2
     a04:	000000e2 	andeq	r0, r0, r2, ror #1
     a08:	00c50002 	sbceq	r0, r5, r2
     a0c:	01020000 	mrseq	r0, (UNDEF: 2)
     a10:	000d0efb 	strdeq	r0, [sp], -fp
     a14:	01010101 	tsteq	r1, r1, lsl #2
     a18:	01000000 	mrseq	r0, (UNDEF: 0)
     a1c:	73010000 	movwvc	r0, #4096	; 0x1000
     a20:	66666174 			; <UNDEFINED> instruction: 0x66666174
     a24:	6372732d 	cmnvs	r2, #-1275068416	; 0xb4000000
     a28:	73752f00 	cmnvc	r5, #0, 30
     a2c:	6e692f72 	mcrvs	15, 3, r2, cr9, cr2, {3}
     a30:	64756c63 	ldrbtvs	r6, [r5], #-3171	; 0xfffff39d
     a34:	656e2f65 	strbvs	r2, [lr, #-3941]!	; 0xfffff09b
     a38:	62696c77 	rsbvs	r6, r9, #30464	; 0x7700
     a3c:	7379732f 	cmnvc	r9, #-1140850688	; 0xbc000000
     a40:	73752f00 	cmnvc	r5, #0, 30
     a44:	696c2f72 	stmdbvs	ip!, {r1, r4, r5, r6, r8, r9, sl, fp, sp}^
     a48:	63672f62 	cmnvs	r7, #392	; 0x188
     a4c:	72612f63 	rsbvc	r2, r1, #396	; 0x18c
     a50:	6f6e2d6d 	svcvs	0x006e2d6d
     a54:	652d656e 	strvs	r6, [sp, #-1390]!	; 0xfffffa92
     a58:	2f696261 	svccs	0x00696261
     a5c:	2e332e36 	mrccs	14, 1, r2, cr3, cr6, {1}
     a60:	6e692f31 	mcrvs	15, 3, r2, cr9, cr1, {1}
     a64:	64756c63 	ldrbtvs	r6, [r5], #-3171	; 0xfffff39d
     a68:	682f0065 	stmdavs	pc!, {r0, r2, r5, r6}	; <UNPREDICTABLE>
     a6c:	2f656d6f 	svccs	0x00656d6f
     a70:	72657375 	rsbvc	r7, r5, #-738197503	; 0xd4000001
     a74:	7665442f 	strbtvc	r4, [r5], -pc, lsr #8
     a78:	3253432f 	subscc	r4, r3, #-1140850688	; 0xbc000000
     a7c:	2f583034 	svccs	0x00583034
     a80:	62696c2f 	rsbvs	r6, r9, #12032	; 0x2f00
     a84:	692f6970 	stmdbvs	pc!, {r4, r5, r6, r8, fp, sp, lr}	; <UNPREDICTABLE>
     a88:	756c636e 	strbvc	r6, [ip, #-878]!	; 0xfffffc92
     a8c:	00006564 	andeq	r6, r0, r4, ror #10
     a90:	61747363 	cmnvs	r4, r3, ror #6
     a94:	632e7472 			; <UNDEFINED> instruction: 0x632e7472
     a98:	00000100 	andeq	r0, r0, r0, lsl #2
     a9c:	6b636f6c 	blvs	18dc854 <__bss_end__+0x18d2814>
     aa0:	0200682e 	andeq	r6, r0, #3014656	; 0x2e0000
     aa4:	745f0000 	ldrbvc	r0, [pc], #-0	; aac <_start-0x7554>
     aa8:	73657079 	cmnvc	r5, #121	; 0x79
     aac:	0200682e 	andeq	r6, r0, #3014656	; 0x2e0000
     ab0:	74730000 	ldrbtvc	r0, [r3], #-0
     ab4:	66656464 	strbtvs	r6, [r5], -r4, ror #8
     ab8:	0300682e 	movweq	r6, #2094	; 0x82e
     abc:	65720000 	ldrbvs	r0, [r2, #-0]!
     ac0:	2e746e65 	cdpcs	14, 7, cr6, cr4, cr5, {3}
     ac4:	00020068 	andeq	r0, r2, r8, rrx
     ac8:	69707200 	ldmdbvs	r0!, {r9, ip, sp, lr}^
     acc:	0400682e 	streq	r6, [r0], #-2094	; 0xfffff7d2
     ad0:	00000000 	andeq	r0, r0, r0
     ad4:	906c0205 	rsbls	r0, ip, r5, lsl #4
     ad8:	0c030000 	stceq	0, cr0, [r3], {-0}
     adc:	2f313201 	svccs	0x00313201
     ae0:	66150365 	ldrvs	r0, [r5], -r5, ror #6
     ae4:	0006022f 	andeq	r0, r6, pc, lsr #4
     ae8:	00e90101 	rsceq	r0, r9, r1, lsl #2
     aec:	00020000 	andeq	r0, r2, r0
     af0:	000000c5 	andeq	r0, r0, r5, asr #1
     af4:	0efb0102 	cdpeq	1, 15, cr0, cr11, cr2, {0}
     af8:	0101000d 	tsteq	r1, sp
     afc:	00000101 	andeq	r0, r0, r1, lsl #2
     b00:	00000100 	andeq	r0, r0, r0, lsl #2
     b04:	61747301 	cmnvs	r4, r1, lsl #6
     b08:	732d6666 			; <UNDEFINED> instruction: 0x732d6666
     b0c:	2f006372 	svccs	0x00006372
     b10:	2f727375 	svccs	0x00727375
     b14:	6c636e69 	stclvs	14, cr6, [r3], #-420	; 0xfffffe5c
     b18:	2f656475 	svccs	0x00656475
     b1c:	6c77656e 	cfldr64vs	mvdx6, [r7], #-440	; 0xfffffe48
     b20:	732f6269 			; <UNDEFINED> instruction: 0x732f6269
     b24:	2f007379 	svccs	0x00007379
     b28:	2f727375 	svccs	0x00727375
     b2c:	2f62696c 	svccs	0x0062696c
     b30:	2f636367 	svccs	0x00636367
     b34:	2d6d7261 	sfmcs	f7, 2, [sp, #-388]!	; 0xfffffe7c
     b38:	656e6f6e 	strbvs	r6, [lr, #-3950]!	; 0xfffff092
     b3c:	6261652d 	rsbvs	r6, r1, #188743680	; 0xb400000
     b40:	2e362f69 	cdpcs	15, 3, cr2, cr6, cr9, {3}
     b44:	2f312e33 	svccs	0x00312e33
     b48:	6c636e69 	stclvs	14, cr6, [r3], #-420	; 0xfffffe5c
     b4c:	00656475 	rsbeq	r6, r5, r5, ror r4
     b50:	6d6f682f 	stclvs	8, cr6, [pc, #-188]!	; a9c <_start-0x7564>
     b54:	73752f65 	cmnvc	r5, #404	; 0x194
     b58:	442f7265 	strtmi	r7, [pc], #-613	; b60 <_start-0x74a0>
     b5c:	432f7665 			; <UNDEFINED> instruction: 0x432f7665
     b60:	30343253 	eorscc	r3, r4, r3, asr r2
     b64:	6c2f2f58 	stcvs	15, cr2, [pc], #-352	; a0c <_start-0x75f4>
     b68:	69706269 	ldmdbvs	r0!, {r0, r3, r5, r6, r9, sp, lr}^
     b6c:	636e692f 	cmnvs	lr, #770048	; 0xbc000
     b70:	6564756c 	strbvs	r7, [r4, #-1388]!	; 0xfffffa94
     b74:	65720000 	ldrbvs	r0, [r2, #-0]!
     b78:	746f6f62 	strbtvc	r6, [pc], #-3938	; b80 <_start-0x7480>
     b7c:	0100632e 	tsteq	r0, lr, lsr #6
     b80:	6f6c0000 	svcvs	0x006c0000
     b84:	682e6b63 	stmdavs	lr!, {r0, r1, r5, r6, r8, r9, fp, sp, lr}
     b88:	00000200 	andeq	r0, r0, r0, lsl #4
     b8c:	7079745f 	rsbsvc	r7, r9, pc, asr r4
     b90:	682e7365 	stmdavs	lr!, {r0, r2, r5, r6, r8, r9, ip, sp, lr}
     b94:	00000200 	andeq	r0, r0, r0, lsl #4
     b98:	64647473 	strbtvs	r7, [r4], #-1139	; 0xfffffb8d
     b9c:	682e6665 	stmdavs	lr!, {r0, r2, r5, r6, r9, sl, sp, lr}
     ba0:	00000300 	andeq	r0, r0, r0, lsl #6
     ba4:	6e656572 	mcrvs	5, 3, r6, cr5, cr2, {3}
     ba8:	00682e74 	rsbeq	r2, r8, r4, ror lr
     bac:	72000002 	andvc	r0, r0, #2
     bb0:	682e6970 	stmdavs	lr!, {r4, r5, r6, r8, fp, sp, lr}
     bb4:	00000400 	andeq	r0, r0, r0, lsl #8
     bb8:	02050000 	andeq	r0, r5, #0
     bbc:	000090a0 	andeq	r9, r0, r0, lsr #1
     bc0:	14010d03 	strne	r0, [r1], #-3331	; 0xfffff2fd
     bc4:	15852f31 	strne	r2, [r5, #3889]	; 0xf31
     bc8:	2f4d4b2f 	svccs	0x004d4b2f
     bcc:	0367526e 	cmneq	r7, #-536870906	; 0xe0000006
     bd0:	0c028270 	sfmeq	f0, 1, [r2], {112}	; 0x70
     bd4:	e1010100 	mrs	r0, (UNDEF: 17)
     bd8:	02000000 	andeq	r0, r0, #0
     bdc:	0000cb00 	andeq	ip, r0, r0, lsl #22
     be0:	fb010200 	blx	413ea <__bss_end__+0x373aa>
     be4:	01000d0e 	tsteq	r0, lr, lsl #26
     be8:	00010101 	andeq	r0, r1, r1, lsl #2
     bec:	00010000 	andeq	r0, r1, r0
     bf0:	74730100 	ldrbtvc	r0, [r3], #-256	; 0xffffff00
     bf4:	2d666661 	stclcs	6, cr6, [r6, #-388]!	; 0xfffffe7c
     bf8:	00637273 	rsbeq	r7, r3, r3, ror r2
     bfc:	7273752f 	rsbsvc	r7, r3, #197132288	; 0xbc00000
     c00:	636e692f 	cmnvs	lr, #770048	; 0xbc000
     c04:	6564756c 	strbvs	r7, [r4, #-1388]!	; 0xfffffa94
     c08:	77656e2f 	strbvc	r6, [r5, -pc, lsr #28]!
     c0c:	2f62696c 	svccs	0x0062696c
     c10:	00737973 	rsbseq	r7, r3, r3, ror r9
     c14:	7273752f 	rsbsvc	r7, r3, #197132288	; 0xbc00000
     c18:	62696c2f 	rsbvs	r6, r9, #12032	; 0x2f00
     c1c:	6363672f 	cmnvs	r3, #12320768	; 0xbc0000
     c20:	6d72612f 	ldfvse	f6, [r2, #-188]!	; 0xffffff44
     c24:	6e6f6e2d 	cdpvs	14, 6, cr6, cr15, cr13, {1}
     c28:	61652d65 	cmnvs	r5, r5, ror #26
     c2c:	362f6962 	strtcc	r6, [pc], -r2, ror #18
     c30:	312e332e 			; <UNDEFINED> instruction: 0x312e332e
     c34:	636e692f 	cmnvs	lr, #770048	; 0xbc000
     c38:	6564756c 	strbvs	r7, [r4, #-1388]!	; 0xfffffa94
     c3c:	6f682f00 	svcvs	0x00682f00
     c40:	752f656d 	strvc	r6, [pc, #-1389]!	; 6db <_start-0x7925>
     c44:	2f726573 	svccs	0x00726573
     c48:	2f766544 	svccs	0x00766544
     c4c:	34325343 	ldrtcc	r5, [r2], #-835	; 0xfffffcbd
     c50:	2f2f5830 	svccs	0x002f5830
     c54:	7062696c 	rsbvc	r6, r2, ip, ror #18
     c58:	6e692f69 	cdpvs	15, 6, cr2, cr9, cr9, {3}
     c5c:	64756c63 	ldrbtvs	r6, [r5], #-3171	; 0xfffff39d
     c60:	63000065 	movwvs	r0, #101	; 0x65
     c64:	6e61656c 	cdpvs	5, 6, cr6, cr1, cr12, {3}
     c68:	6265722d 	rsbvs	r7, r5, #-805306366	; 0xd0000002
     c6c:	2e746f6f 	cdpcs	15, 7, cr6, cr4, cr15, {3}
     c70:	00010063 	andeq	r0, r1, r3, rrx
     c74:	636f6c00 	cmnvs	pc, #0, 24
     c78:	00682e6b 	rsbeq	r2, r8, fp, ror #28
     c7c:	5f000002 	svcpl	0x00000002
     c80:	65707974 	ldrbvs	r7, [r0, #-2420]!	; 0xfffff68c
     c84:	00682e73 	rsbeq	r2, r8, r3, ror lr
     c88:	73000002 	movwvc	r0, #2
     c8c:	65646474 	strbvs	r6, [r4, #-1140]!	; 0xfffffb8c
     c90:	00682e66 	rsbeq	r2, r8, r6, ror #28
     c94:	72000003 	andvc	r0, r0, #3
     c98:	746e6565 	strbtvc	r6, [lr], #-1381	; 0xfffffa9b
     c9c:	0200682e 	andeq	r6, r0, #3014656	; 0x2e0000
     ca0:	70720000 	rsbsvc	r0, r2, r0
     ca4:	00682e69 	rsbeq	r2, r8, r9, ror #28
     ca8:	00000004 	andeq	r0, r0, r4
     cac:	18020500 	stmdane	r2, {r8, sl}
     cb0:	15000091 	strne	r0, [r0, #-145]	; 0xffffff6f
     cb4:	024b832f 	subeq	r8, fp, #-1140850688	; 0xbc000000
     cb8:	01010006 	tsteq	r1, r6
     cbc:	000000ea 	andeq	r0, r0, sl, ror #1
     cc0:	00c40002 	sbceq	r0, r4, r2
     cc4:	01020000 	mrseq	r0, (UNDEF: 2)
     cc8:	000d0efb 	strdeq	r0, [sp], -fp
     ccc:	01010101 	tsteq	r1, r1, lsl #2
     cd0:	01000000 	mrseq	r0, (UNDEF: 0)
     cd4:	73010000 	movwvc	r0, #4096	; 0x1000
     cd8:	66666174 			; <UNDEFINED> instruction: 0x66666174
     cdc:	6372732d 	cmnvs	r2, #-1275068416	; 0xb4000000
     ce0:	73752f00 	cmnvc	r5, #0, 30
     ce4:	6e692f72 	mcrvs	15, 3, r2, cr9, cr2, {3}
     ce8:	64756c63 	ldrbtvs	r6, [r5], #-3171	; 0xfffff39d
     cec:	656e2f65 	strbvs	r2, [lr, #-3941]!	; 0xfffff09b
     cf0:	62696c77 	rsbvs	r6, r9, #30464	; 0x7700
     cf4:	7379732f 	cmnvc	r9, #-1140850688	; 0xbc000000
     cf8:	73752f00 	cmnvc	r5, #0, 30
     cfc:	696c2f72 	stmdbvs	ip!, {r1, r4, r5, r6, r8, r9, sl, fp, sp}^
     d00:	63672f62 	cmnvs	r7, #392	; 0x188
     d04:	72612f63 	rsbvc	r2, r1, #396	; 0x18c
     d08:	6f6e2d6d 	svcvs	0x006e2d6d
     d0c:	652d656e 	strvs	r6, [sp, #-1390]!	; 0xfffffa92
     d10:	2f696261 	svccs	0x00696261
     d14:	2e332e36 	mrccs	14, 1, r2, cr3, cr6, {1}
     d18:	6e692f31 	mcrvs	15, 3, r2, cr9, cr1, {1}
     d1c:	64756c63 	ldrbtvs	r6, [r5], #-3171	; 0xfffff39d
     d20:	682f0065 	stmdavs	pc!, {r0, r2, r5, r6}	; <UNPREDICTABLE>
     d24:	2f656d6f 	svccs	0x00656d6f
     d28:	72657375 	rsbvc	r7, r5, #-738197503	; 0xd4000001
     d2c:	7665442f 	strbtvc	r4, [r5], -pc, lsr #8
     d30:	3253432f 	subscc	r4, r3, #-1140850688	; 0xbc000000
     d34:	2f583034 	svccs	0x00583034
     d38:	62696c2f 	rsbvs	r6, r9, #12032	; 0x2f00
     d3c:	692f6970 	stmdbvs	pc!, {r4, r5, r6, r8, fp, sp, lr}	; <UNPREDICTABLE>
     d40:	756c636e 	strbvc	r6, [ip, #-878]!	; 0xfffffc92
     d44:	00006564 	andeq	r6, r0, r4, ror #10
     d48:	656d6974 	strbvs	r6, [sp, #-2420]!	; 0xfffff68c
     d4c:	00632e72 	rsbeq	r2, r3, r2, ror lr
     d50:	6c000001 	stcvs	0, cr0, [r0], {1}
     d54:	2e6b636f 	cdpcs	3, 6, cr6, cr11, cr15, {3}
     d58:	00020068 	andeq	r0, r2, r8, rrx
     d5c:	79745f00 	ldmdbvc	r4!, {r8, r9, sl, fp, ip, lr}^
     d60:	2e736570 	mrccs	5, 3, r6, cr3, cr0, {3}
     d64:	00020068 	andeq	r0, r2, r8, rrx
     d68:	64747300 	ldrbtvs	r7, [r4], #-768	; 0xfffffd00
     d6c:	2e666564 	cdpcs	5, 6, cr6, cr6, cr4, {3}
     d70:	00030068 	andeq	r0, r3, r8, rrx
     d74:	65657200 	strbvs	r7, [r5, #-512]!	; 0xfffffe00
     d78:	682e746e 	stmdavs	lr!, {r1, r2, r3, r5, r6, sl, ip, sp, lr}
     d7c:	00000200 	andeq	r0, r0, r0, lsl #4
     d80:	2e697072 	mcrcs	0, 3, r7, cr9, cr2, {3}
     d84:	00040068 	andeq	r0, r4, r8, rrx
     d88:	05000000 	streq	r0, [r0, #-0]
     d8c:	00914002 	addseq	r4, r1, r2
     d90:	2f141600 	svccs	0x00141600
     d94:	2f31892d 	svccs	0x0031892d
     d98:	31324d4b 	teqcc	r2, fp, asr #26
     d9c:	2f4c4b30 	svccs	0x004c4b30
     da0:	842f2f6a 	strthi	r2, [pc], #-3946	; da8 <_start-0x7258>
     da4:	0008022f 	andeq	r0, r8, pc, lsr #4
     da8:	01480101 	cmpeq	r8, r1, lsl #2
     dac:	00020000 	andeq	r0, r2, r0
     db0:	00000102 	andeq	r0, r0, r2, lsl #2
     db4:	0efb0102 	cdpeq	1, 15, cr0, cr11, cr2, {0}
     db8:	0101000d 	tsteq	r1, sp
     dbc:	00000101 	andeq	r0, r0, r1, lsl #2
     dc0:	00000100 	andeq	r0, r0, r0, lsl #2
     dc4:	73752f01 	cmnvc	r5, #1, 30
     dc8:	6e692f72 	mcrvs	15, 3, r2, cr9, cr2, {3}
     dcc:	64756c63 	ldrbtvs	r6, [r5], #-3171	; 0xfffff39d
     dd0:	656e2f65 	strbvs	r2, [lr, #-3941]!	; 0xfffff09b
     dd4:	62696c77 	rsbvs	r6, r9, #30464	; 0x7700
     dd8:	7379732f 	cmnvc	r9, #-1140850688	; 0xbc000000
     ddc:	73752f00 	cmnvc	r5, #0, 30
     de0:	696c2f72 	stmdbvs	ip!, {r1, r4, r5, r6, r8, r9, sl, fp, sp}^
     de4:	63672f62 	cmnvs	r7, #392	; 0x188
     de8:	72612f63 	rsbvc	r2, r1, #396	; 0x18c
     dec:	6f6e2d6d 	svcvs	0x006e2d6d
     df0:	652d656e 	strvs	r6, [sp, #-1390]!	; 0xfffffa92
     df4:	2f696261 	svccs	0x00696261
     df8:	2e332e36 	mrccs	14, 1, r2, cr3, cr6, {1}
     dfc:	6e692f31 	mcrvs	15, 3, r2, cr9, cr1, {1}
     e00:	64756c63 	ldrbtvs	r6, [r5], #-3171	; 0xfffff39d
     e04:	682f0065 	stmdavs	pc!, {r0, r2, r5, r6}	; <UNPREDICTABLE>
     e08:	2f656d6f 	svccs	0x00656d6f
     e0c:	6c676e65 	stclvs	14, cr6, [r7], #-404	; 0xfffffe6c
     e10:	632f7265 			; <UNDEFINED> instruction: 0x632f7265
     e14:	7373616c 	cmnvc	r3, #108, 2
     e18:	3273632f 	rsbscc	r6, r3, #-1140850688	; 0xbc000000
     e1c:	786c3034 	stmdavc	ip!, {r2, r4, r5, ip, sp}^
     e20:	7330322d 	teqvc	r0, #-805306366	; 0xd0000002
     e24:	2f2f7270 	svccs	0x002f7270
     e28:	7062696c 	rsbvc	r6, r2, ip, ror #18
     e2c:	682f0069 	stmdavs	pc!, {r0, r3, r5, r6}	; <UNPREDICTABLE>
     e30:	2f656d6f 	svccs	0x00656d6f
     e34:	6c676e65 	stclvs	14, cr6, [r7], #-404	; 0xfffffe6c
     e38:	632f7265 			; <UNDEFINED> instruction: 0x632f7265
     e3c:	7373616c 	cmnvc	r3, #108, 2
     e40:	3273632f 	rsbscc	r6, r3, #-1140850688	; 0xbc000000
     e44:	786c3034 	stmdavc	ip!, {r2, r4, r5, ip, sp}^
     e48:	7330322d 	teqvc	r0, #-805306366	; 0xd0000002
     e4c:	2f2f7270 	svccs	0x002f7270
     e50:	7062696c 	rsbvc	r6, r2, ip, ror #18
     e54:	74732f69 	ldrbtvc	r2, [r3], #-3945	; 0xfffff097
     e58:	2d666661 	stclcs	6, cr6, [r6, #-388]!	; 0xfffffe7c
     e5c:	00637273 	rsbeq	r7, r3, r3, ror r2
     e60:	72617500 	rsbvc	r7, r1, #0, 10
     e64:	00632e74 	rsbeq	r2, r3, r4, ror lr
     e68:	6c000000 	stcvs	0, cr0, [r0], {-0}
     e6c:	2e6b636f 	cdpcs	3, 6, cr6, cr11, cr15, {3}
     e70:	00010068 	andeq	r0, r1, r8, rrx
     e74:	79745f00 	ldmdbvc	r4!, {r8, r9, sl, fp, ip, lr}^
     e78:	2e736570 	mrccs	5, 3, r6, cr3, cr0, {3}
     e7c:	00010068 	andeq	r0, r1, r8, rrx
     e80:	64747300 	ldrbtvs	r7, [r4], #-768	; 0xfffffd00
     e84:	2e666564 	cdpcs	5, 6, cr6, cr6, cr4, {3}
     e88:	00020068 	andeq	r0, r2, r8, rrx
     e8c:	65657200 	strbvs	r7, [r5, #-512]!	; 0xfffffe00
     e90:	682e746e 	stmdavs	lr!, {r1, r2, r3, r5, r6, sl, ip, sp, lr}
     e94:	00000100 	andeq	r0, r0, r0, lsl #2
     e98:	2e697072 	mcrcs	0, 3, r7, cr9, cr2, {3}
     e9c:	00030068 	andeq	r0, r3, r8, rrx
     ea0:	72617500 	rsbvc	r7, r1, #0, 10
     ea4:	00682e74 	rsbeq	r2, r8, r4, ror lr
     ea8:	67000004 	strvs	r0, [r0, -r4]
     eac:	2e6f6970 			; <UNDEFINED> instruction: 0x2e6f6970
     eb0:	00040068 	andeq	r0, r4, r8, rrx
     eb4:	05000000 	streq	r0, [r0, #-0]
     eb8:	00921402 	addseq	r1, r2, r2, lsl #8
     ebc:	012c0300 			; <UNDEFINED> instruction: 0x012c0300
     ec0:	9e0c0367 	cdpls	3, 0, cr0, cr12, cr7, {3}
     ec4:	35686735 	strbcc	r6, [r8, #-1845]!	; 0xfffff8cb
     ec8:	2e0c0368 	cdpcs	3, 0, cr0, cr12, cr8, {3}
     ecc:	69696b85 	stmdbvs	r9!, {r0, r2, r7, r8, r9, fp, sp, lr}^
     ed0:	6b660c03 	blvs	1983ee4 <__bss_end__+0x1979ea4>
     ed4:	34420867 	strbcc	r0, [r2], #-2151	; 0xfffff799
     ed8:	68364b68 	ldmdavs	r6!, {r3, r5, r6, r8, r9, fp, lr}
     edc:	02002f87 	andeq	r2, r0, #540	; 0x21c
     ee0:	682f0104 	stmdavs	pc!, {r2, r8}	; <UNPREDICTABLE>
     ee4:	4b673067 	blmi	19cd088 <__bss_end__+0x19c3048>
     ee8:	01040200 	mrseq	r0, R12_usr
     eec:	6967682f 	stmdbvs	r7!, {r0, r1, r2, r3, r5, fp, sp, lr}^
     ef0:	0006022e 	andeq	r0, r6, lr, lsr #4
     ef4:	012b0101 			; <UNDEFINED> instruction: 0x012b0101
     ef8:	00020000 	andeq	r0, r2, r0
     efc:	000000f8 	strdeq	r0, [r0], -r8
     f00:	0efb0102 	cdpeq	1, 15, cr0, cr11, cr2, {0}
     f04:	0101000d 	tsteq	r1, sp
     f08:	00000101 	andeq	r0, r0, r1, lsl #2
     f0c:	00000100 	andeq	r0, r0, r0, lsl #2
     f10:	73752f01 	cmnvc	r5, #1, 30
     f14:	6e692f72 	mcrvs	15, 3, r2, cr9, cr2, {3}
     f18:	64756c63 	ldrbtvs	r6, [r5], #-3171	; 0xfffff39d
     f1c:	656e2f65 	strbvs	r2, [lr, #-3941]!	; 0xfffff09b
     f20:	62696c77 	rsbvs	r6, r9, #30464	; 0x7700
     f24:	7379732f 	cmnvc	r9, #-1140850688	; 0xbc000000
     f28:	73752f00 	cmnvc	r5, #0, 30
     f2c:	696c2f72 	stmdbvs	ip!, {r1, r4, r5, r6, r8, r9, sl, fp, sp}^
     f30:	63672f62 	cmnvs	r7, #392	; 0x188
     f34:	72612f63 	rsbvc	r2, r1, #396	; 0x18c
     f38:	6f6e2d6d 	svcvs	0x006e2d6d
     f3c:	652d656e 	strvs	r6, [sp, #-1390]!	; 0xfffffa92
     f40:	2f696261 	svccs	0x00696261
     f44:	2e332e36 	mrccs	14, 1, r2, cr3, cr6, {1}
     f48:	6e692f31 	mcrvs	15, 3, r2, cr9, cr1, {1}
     f4c:	64756c63 	ldrbtvs	r6, [r5], #-3171	; 0xfffff39d
     f50:	682f0065 	stmdavs	pc!, {r0, r2, r5, r6}	; <UNPREDICTABLE>
     f54:	2f656d6f 	svccs	0x00656d6f
     f58:	6c676e65 	stclvs	14, cr6, [r7], #-404	; 0xfffffe6c
     f5c:	632f7265 			; <UNDEFINED> instruction: 0x632f7265
     f60:	7373616c 	cmnvc	r3, #108, 2
     f64:	3273632f 	rsbscc	r6, r3, #-1140850688	; 0xbc000000
     f68:	786c3034 	stmdavc	ip!, {r2, r4, r5, ip, sp}^
     f6c:	7330322d 	teqvc	r0, #-805306366	; 0xd0000002
     f70:	2f2f7270 	svccs	0x002f7270
     f74:	7062696c 	rsbvc	r6, r2, ip, ror #18
     f78:	682f0069 	stmdavs	pc!, {r0, r3, r5, r6}	; <UNPREDICTABLE>
     f7c:	2f656d6f 	svccs	0x00656d6f
     f80:	6c676e65 	stclvs	14, cr6, [r7], #-404	; 0xfffffe6c
     f84:	632f7265 			; <UNDEFINED> instruction: 0x632f7265
     f88:	7373616c 	cmnvc	r3, #108, 2
     f8c:	3273632f 	rsbscc	r6, r3, #-1140850688	; 0xbc000000
     f90:	786c3034 	stmdavc	ip!, {r2, r4, r5, ip, sp}^
     f94:	7330322d 	teqvc	r0, #-805306366	; 0xd0000002
     f98:	2f2f7270 	svccs	0x002f7270
     f9c:	7062696c 	rsbvc	r6, r2, ip, ror #18
     fa0:	74732f69 	ldrbtvc	r2, [r3], #-3945	; 0xfffff097
     fa4:	2d666661 	stclcs	6, cr6, [r6, #-388]!	; 0xfffffe7c
     fa8:	00637273 	rsbeq	r7, r3, r3, ror r2
     fac:	69706700 	ldmdbvs	r0!, {r8, r9, sl, sp, lr}^
     fb0:	00632e6f 	rsbeq	r2, r3, pc, ror #28
     fb4:	6c000000 	stcvs	0, cr0, [r0], {-0}
     fb8:	2e6b636f 	cdpcs	3, 6, cr6, cr11, cr15, {3}
     fbc:	00010068 	andeq	r0, r1, r8, rrx
     fc0:	79745f00 	ldmdbvc	r4!, {r8, r9, sl, fp, ip, lr}^
     fc4:	2e736570 	mrccs	5, 3, r6, cr3, cr0, {3}
     fc8:	00010068 	andeq	r0, r1, r8, rrx
     fcc:	64747300 	ldrbtvs	r7, [r4], #-768	; 0xfffffd00
     fd0:	2e666564 	cdpcs	5, 6, cr6, cr6, cr4, {3}
     fd4:	00020068 	andeq	r0, r2, r8, rrx
     fd8:	65657200 	strbvs	r7, [r5, #-512]!	; 0xfffffe00
     fdc:	682e746e 	stmdavs	lr!, {r1, r2, r3, r5, r6, sl, ip, sp, lr}
     fe0:	00000100 	andeq	r0, r0, r0, lsl #2
     fe4:	2e697072 	mcrcs	0, 3, r7, cr9, cr2, {3}
     fe8:	00030068 	andeq	r0, r3, r8, rrx
     fec:	69706700 	ldmdbvs	r0!, {r8, r9, sl, sp, lr}^
     ff0:	00682e6f 	rsbeq	r2, r8, pc, ror #28
     ff4:	00000004 	andeq	r0, r0, r4
     ff8:	8c020500 	cfstr32hi	mvfx0, [r2], {-0}
     ffc:	03000093 	movweq	r0, #147	; 0x93
    1000:	4c130127 	ldfmis	f0, [r3], {39}	; 0x27
    1004:	68f44f47 	ldmvs	r4!, {r0, r1, r2, r6, r8, r9, sl, fp, lr}^
    1008:	2fa14c4b 	svccs	0x00a14c4b
    100c:	3149136a 	cmpcc	r9, sl, ror #6
    1010:	314913be 	strhcc	r1, [r9, #-62]	; 0xffffffc2
    1014:	2f6a2fbe 	svccs	0x006a2fbe
    1018:	134f484d 	movtne	r4, #63565	; 0xf84d
    101c:	b72f3249 	strlt	r3, [pc, -r9, asr #4]!
    1020:	01000602 	tsteq	r0, r2, lsl #12
    1024:	00013401 	andeq	r3, r1, r1, lsl #8
    1028:	df000200 	svcle	0x00000200
    102c:	02000000 	andeq	r0, r0, #0
    1030:	0d0efb01 	vstreq	d15, [lr, #-4]
    1034:	01010100 	mrseq	r0, (UNDEF: 17)
    1038:	00000001 	andeq	r0, r0, r1
    103c:	01000001 	tsteq	r0, r1
    1040:	7273752f 	rsbsvc	r7, r3, #197132288	; 0xbc00000
    1044:	636e692f 	cmnvs	lr, #770048	; 0xbc000
    1048:	6564756c 	strbvs	r7, [r4, #-1388]!	; 0xfffffa94
    104c:	77656e2f 	strbvc	r6, [r5, -pc, lsr #28]!
    1050:	2f62696c 	svccs	0x0062696c
    1054:	00737973 	rsbseq	r7, r3, r3, ror r9
    1058:	7273752f 	rsbsvc	r7, r3, #197132288	; 0xbc00000
    105c:	62696c2f 	rsbvs	r6, r9, #12032	; 0x2f00
    1060:	6363672f 	cmnvs	r3, #12320768	; 0xbc0000
    1064:	6d72612f 	ldfvse	f6, [r2, #-188]!	; 0xffffff44
    1068:	6e6f6e2d 	cdpvs	14, 6, cr6, cr15, cr13, {1}
    106c:	61652d65 	cmnvs	r5, r5, ror #26
    1070:	362f6962 	strtcc	r6, [pc], -r2, ror #18
    1074:	312e332e 			; <UNDEFINED> instruction: 0x312e332e
    1078:	636e692f 	cmnvs	lr, #770048	; 0xbc000
    107c:	6564756c 	strbvs	r7, [r4, #-1388]!	; 0xfffffa94
    1080:	6f682f00 	svcvs	0x00682f00
    1084:	652f656d 	strvs	r6, [pc, #-1389]!	; b1f <_start-0x74e1>
    1088:	656c676e 	strbvs	r6, [ip, #-1902]!	; 0xfffff892
    108c:	6c632f72 	stclvs	15, cr2, [r3], #-456	; 0xfffffe38
    1090:	2f737361 	svccs	0x00737361
    1094:	34327363 	ldrtcc	r7, [r2], #-867	; 0xfffffc9d
    1098:	2d786c30 	ldclcs	12, cr6, [r8, #-192]!	; 0xffffff40
    109c:	70733032 	rsbsvc	r3, r3, r2, lsr r0
    10a0:	6c2f2f72 	stcvs	15, cr2, [pc], #-456	; ee0 <_start-0x7120>
    10a4:	69706269 	ldmdbvs	r0!, {r0, r3, r5, r6, r9, sp, lr}^
    10a8:	73752f00 	cmnvc	r5, #0, 30
    10ac:	6e692f72 	mcrvs	15, 3, r2, cr9, cr2, {3}
    10b0:	64756c63 	ldrbtvs	r6, [r5], #-3171	; 0xfffff39d
    10b4:	656e2f65 	strbvs	r2, [lr, #-3941]!	; 0xfffff09b
    10b8:	62696c77 	rsbvs	r6, r9, #30464	; 0x7700
    10bc:	6d6b0000 	stclvs	0, cr0, [fp, #-0]
    10c0:	6f6c6c61 	svcvs	0x006c6c61
    10c4:	00632e63 	rsbeq	r2, r3, r3, ror #28
    10c8:	6c000000 	stcvs	0, cr0, [r0], {-0}
    10cc:	2e6b636f 	cdpcs	3, 6, cr6, cr11, cr15, {3}
    10d0:	00010068 	andeq	r0, r1, r8, rrx
    10d4:	79745f00 	ldmdbvc	r4!, {r8, r9, sl, fp, ip, lr}^
    10d8:	2e736570 	mrccs	5, 3, r6, cr3, cr0, {3}
    10dc:	00010068 	andeq	r0, r1, r8, rrx
    10e0:	64747300 	ldrbtvs	r7, [r4], #-768	; 0xfffffd00
    10e4:	2e666564 	cdpcs	5, 6, cr6, cr6, cr4, {3}
    10e8:	00020068 	andeq	r0, r2, r8, rrx
    10ec:	65657200 	strbvs	r7, [r5, #-512]!	; 0xfffffe00
    10f0:	682e746e 	stmdavs	lr!, {r1, r2, r3, r5, r6, sl, ip, sp, lr}
    10f4:	00000100 	andeq	r0, r0, r0, lsl #2
    10f8:	2e697072 	mcrcs	0, 3, r7, cr9, cr2, {3}
    10fc:	00030068 	andeq	r0, r3, r8, rrx
    1100:	72747300 	rsbsvc	r7, r4, #0, 6
    1104:	2e676e69 	cdpcs	14, 6, cr6, cr7, cr9, {3}
    1108:	00040068 	andeq	r0, r4, r8, rrx
    110c:	05000000 	streq	r0, [r0, #-0]
    1110:	0094ac02 	addseq	sl, r4, r2, lsl #24
    1114:	01100300 	tsteq	r0, r0, lsl #6
    1118:	68018301 	stmdavs	r1, {r0, r8, r9, pc}
    111c:	02008314 	andeq	r8, r0, #20, 6	; 0x50000000
    1120:	007f0104 	rsbseq	r0, pc, r4, lsl #2
    1124:	30010402 	andcc	r0, r1, r2, lsl #8
    1128:	4b2f5c08 	blmi	bd8150 <__bss_end__+0xbce110>
    112c:	684b4b4c 	stmdavs	fp, {r2, r3, r6, r8, r9, fp, lr}^
    1130:	01040200 	mrseq	r0, R12_usr
    1134:	034a7903 	movteq	r7, #43267	; 0xa903
    1138:	2f580809 	svccs	0x00580809
    113c:	2f4e2e01 	svccs	0x004e2e01
    1140:	67674b6a 	strbvs	r4, [r7, -sl, ror #22]!
    1144:	02002f4c 	andeq	r2, r0, #76, 30	; 0x130
    1148:	76030104 	strvc	r0, [r3], -r4, lsl #2
    114c:	0402002e 	streq	r0, [r2], #-46	; 0xffffffd2
    1150:	7a08dc01 	bvc	23815c <__bss_end__+0x22e11c>
    1154:	019f012f 	orrseq	r0, pc, pc, lsr #2
    1158:	01000802 	tsteq	r0, r2, lsl #16
    115c:	Address 0x000000000000115c is out of bounds.


Disassembly of section .debug_str:

00000000 <.debug_str>:
   0:	6f73645f 	svcvs	0x0073645f
   4:	6e61685f 	mcrvs	8, 3, r6, cr1, cr15, {2}
   8:	00656c64 	rsbeq	r6, r5, r4, ror #24
   c:	685f6b63 	ldmdavs	pc, {r0, r1, r5, r6, r8, r9, fp, sp, lr}^	; <UNPREDICTABLE>
  10:	5f706165 	svcpl	0x00706165
  14:	6f727265 	svcvs	0x00727265
  18:	5f007372 	svcpl	0x00007372
  1c:	657a6973 	ldrbvs	r6, [sl, #-2419]!	; 0xfffff68d
  20:	72617000 	rsbvc	r7, r1, #0
  24:	742d3174 	strtvc	r3, [sp], #-372	; 0xfffffe8c
  28:	33747365 	cmncc	r4, #-1811939327	; 0x94000001
  2c:	5f00632e 	svcpl	0x0000632e
  30:	646e6172 	strbtvs	r6, [lr], #-370	; 0xfffffe8e
  34:	5f003834 	svcpl	0x00003834
  38:	72656d65 	rsbvc	r6, r5, #6464	; 0x1940
  3c:	636e6567 	cmnvs	lr, #432013312	; 0x19c00000
  40:	6f6e0079 	svcvs	0x006e0079
  44:	69616d74 	stmdbvs	r1!, {r2, r4, r5, r6, r8, sl, fp, sp, lr}^
  48:	775f006e 	ldrbvc	r0, [pc, -lr, rrx]
  4c:	6f747263 	svcvs	0x00747263
  50:	735f626d 	cmpvc	pc, #-805306362	; 0xd0000006
  54:	65746174 	ldrbvs	r6, [r4, #-372]!	; 0xfffffe8c
  58:	63775f00 	cmnvs	r7, #0, 30
  5c:	6f747273 	svcvs	0x00747273
  60:	5f73626d 	svcpl	0x0073626d
  64:	74617473 	strbtvc	r7, [r1], #-1139	; 0xfffffb8d
  68:	6f6c0065 	svcvs	0x006c0065
  6c:	6c20676e 	stcvs	7, cr6, [r0], #-440	; 0xfffffe48
  70:	20676e6f 	rsbcs	r6, r7, pc, ror #28
  74:	69736e75 	ldmdbvs	r3!, {r0, r2, r4, r5, r6, r9, sl, fp, sp, lr}^
  78:	64656e67 	strbtvs	r6, [r5], #-3687	; 0xfffff199
  7c:	746e6920 	strbtvc	r6, [lr], #-2336	; 0xfffff6e0
  80:	616b6300 	cmnvs	fp, r0, lsl #6
  84:	636f6c6c 	cmnvs	pc, #108, 24	; 0x6c00
  88:	626c5f00 	rsbvs	r5, ip, #0, 30
  8c:	7a697366 	bvc	1a5ce2c <__bss_end__+0x1a52dec>
  90:	6d5f0065 	ldclvs	0, cr0, [pc, #-404]	; ffffff04 <__bss_end__+0xffff5ec4>
  94:	6f747262 	svcvs	0x00747262
  98:	735f6377 	cmpvc	pc, #-603979775	; 0xdc000001
  9c:	65746174 	ldrbvs	r6, [r4, #-372]!	; 0xfffffe8c
  a0:	63775f00 	cmnvs	r7, #0, 30
  a4:	626d6f74 	rsbvs	r6, sp, #116, 30	; 0x1d0
  a8:	6174735f 	cmnvs	r4, pc, asr r3
  ac:	5f006574 	svcpl	0x00006574
  b0:	5f6d745f 	svcpl	0x006d745f
  b4:	00636573 	rsbeq	r6, r3, r3, ror r5
  b8:	676e6f6c 	strbvs	r6, [lr, -ip, ror #30]!
  bc:	6e6f6c20 	cdpvs	12, 6, cr6, cr15, cr0, {1}
  c0:	6e692067 	cdpvs	0, 6, cr2, cr9, cr7, {3}
  c4:	755f0074 	ldrbvc	r0, [pc, #-116]	; 58 <_start-0x7fa8>
  c8:	00667562 	rsbeq	r7, r6, r2, ror #10
  cc:	7361625f 	cmnvc	r1, #-268435451	; 0xf0000005
  d0:	5f5f0065 	svcpl	0x005f0065
  d4:	685f6d74 	ldmdavs	pc, {r2, r4, r5, r6, r8, sl, fp, sp, lr}^	; <UNPREDICTABLE>
  d8:	0072756f 	rsbseq	r7, r2, pc, ror #10
  dc:	6d6f682f 	stclvs	8, cr6, [pc, #-188]!	; 28 <_start-0x7fd8>
  e0:	73752f65 	cmnvc	r5, #404	; 0x194
  e4:	442f7265 	strtmi	r7, [pc], #-613	; ec <_start-0x7f14>
  e8:	432f7665 			; <UNDEFINED> instruction: 0x432f7665
  ec:	30343253 	eorscc	r3, r4, r3, asr r2
  f0:	616c2f58 	cmnvs	ip, r8, asr pc
  f4:	312f7362 			; <UNDEFINED> instruction: 0x312f7362
  f8:	656d2d30 	strbvs	r2, [sp, #-3376]!	; 0xfffff2d0
  fc:	6568636d 	strbvs	r6, [r8, #-877]!	; 0xfffffc93
 100:	732d6b63 			; <UNDEFINED> instruction: 0x732d6b63
 104:	2f746174 	svccs	0x00746174
 108:	65646f63 	strbvs	r6, [r4, #-3939]!	; 0xfffff09d
 10c:	735f5f00 	cmpvc	pc, #0, 30
 110:	6f5f0066 	svcvs	0x005f0066
 114:	78655f6e 	stmdavc	r5!, {r1, r2, r3, r5, r6, r8, r9, sl, fp, ip, lr}^
 118:	615f7469 	cmpvs	pc, r9, ror #8
 11c:	00736772 	rsbseq	r6, r3, r2, ror r7
 120:	6f6f635f 	svcvs	0x006f635f
 124:	0065696b 	rsbeq	r6, r5, fp, ror #18
 128:	67735f5f 			; <UNDEFINED> instruction: 0x67735f5f
 12c:	0065756c 	rsbeq	r7, r5, ip, ror #10
 130:	616c665f 	cmnvs	ip, pc, asr r6
 134:	5f007367 	svcpl	0x00007367
 138:	635f7369 	cmpvs	pc, #-1543503871	; 0xa4000001
 13c:	5f006178 	svcpl	0x00006178
 140:	69647473 	stmdbvs	r4!, {r0, r1, r4, r5, r6, sl, ip, sp, lr}^
 144:	6b63006e 	blvs	18c0304 <__bss_end__+0x18b62c4>
 148:	696e695f 	stmdbvs	lr!, {r0, r1, r2, r3, r4, r6, r8, fp, sp, lr}^
 14c:	625f0074 	subsvs	r0, pc, #116	; 0x74
 150:	69736b6c 	ldmdbvs	r3!, {r2, r3, r5, r6, r8, r9, fp, sp, lr}^
 154:	5f00657a 	svcpl	0x0000657a
 158:	62747663 	rsbsvs	r7, r4, #103809024	; 0x6300000
 15c:	5f006675 	svcpl	0x00006675
 160:	7366666f 	cmnvc	r6, #116391936	; 0x6f00000
 164:	6b007465 	blvs	1d300 <__bss_end__+0x132c0>
 168:	6c6c616d 	stfvse	f6, [ip], #-436	; 0xfffffe4c
 16c:	695f636f 	ldmdbvs	pc, {r0, r1, r2, r3, r5, r6, r8, r9, sp, lr}^	; <UNPREDICTABLE>
 170:	5f74696e 	svcpl	0x0074696e
 174:	5f746573 	svcpl	0x00746573
 178:	72617473 	rsbvc	r7, r1, #1929379840	; 0x73000000
 17c:	6d5f0074 	ldclvs	0, cr0, [pc, #-464]	; ffffffb4 <__bss_end__+0xffff5f74>
 180:	74727362 	ldrbtvc	r7, [r2], #-866	; 0xfffffc9e
 184:	7363776f 	cmnvc	r3, #29097984	; 0x1bc0000
 188:	6174735f 	cmnvs	r4, pc, asr r3
 18c:	5f006574 	svcpl	0x00006574
 190:	6c72626d 	lfmvs	f6, 2, [r2], #-436	; 0xfffffe4c
 194:	735f6e65 	cmpvc	pc, #1616	; 0x650
 198:	65746174 	ldrbvs	r6, [r4, #-372]!	; 0xfffffe8c
 19c:	6e665f00 	cdpvs	15, 6, cr5, cr6, cr0, {0}
 1a0:	73677261 	cmnvc	r7, #268435462	; 0x10000006
 1a4:	6e665f00 	cdpvs	15, 6, cr5, cr6, cr0, {0}
 1a8:	735f0073 	cmpvc	pc, #115	; 0x73
 1ac:	006e6769 	rsbeq	r6, lr, r9, ror #14
 1b0:	6f6c665f 	svcvs	0x006c665f
 1b4:	745f6b63 	ldrbvc	r6, [pc], #-2915	; 1bc <_start-0x7e44>
 1b8:	74735f00 	ldrbtvc	r5, [r3], #-3840	; 0xfffff100
 1bc:	72726564 	rsbsvc	r6, r2, #100, 10	; 0x19000000
 1c0:	69425f00 	stmdbvs	r2, {r8, r9, sl, fp, ip, lr}^
 1c4:	746e6967 	strbtvc	r6, [lr], #-2407	; 0xfffff699
 1c8:	61675f00 	cmnvs	r7, r0, lsl #30
 1cc:	5f616d6d 	svcpl	0x00616d6d
 1d0:	6e676973 			; <UNDEFINED> instruction: 0x6e676973
 1d4:	006d6167 	rsbeq	r6, sp, r7, ror #2
 1d8:	7365725f 	cmnvc	r5, #-268435451	; 0xf0000005
 1dc:	5f746c75 	svcpl	0x00746c75
 1e0:	7072006b 	rsbsvc	r0, r2, fp, rrx
 1e4:	75705f69 	ldrbvc	r5, [r0, #-3945]!	; 0xfffff097
 1e8:	61686374 	smcvs	34356	; 0x8634
 1ec:	5f5f0072 	svcpl	0x005f0072
 1f0:	5f006d74 	svcpl	0x00006d74
 1f4:	6863775f 	stmdavs	r3!, {r0, r1, r2, r3, r4, r6, r8, r9, sl, ip, sp, lr}^
 1f8:	70720062 	rsbsvc	r0, r2, r2, rrx
 1fc:	65725f69 	ldrbvs	r5, [r2, #-3945]!	; 0xfffff097
 200:	5f746573 	svcpl	0x00746573
 204:	63747570 	cmnvs	r4, #112, 10	; 0x1c000000
 208:	74735f00 	ldrbtvc	r5, [r3], #-3840	; 0xfffff100
 20c:	74756f64 	ldrbtvc	r6, [r5], #-3940	; 0xfffff09c
 210:	76635f00 	strbtvc	r5, [r3], -r0, lsl #30
 214:	6e656c74 	mcrvs	12, 3, r6, cr5, cr4, {3}
 218:	69665f00 	stmdbvs	r6!, {r8, r9, sl, fp, ip, lr}^
 21c:	5f00656c 	svcpl	0x0000656c
 220:	4e55465f 	mrcmi	6, 2, r4, cr5, cr15, {2}
 224:	4f495443 	svcmi	0x00495443
 228:	005f5f4e 	subseq	r5, pc, lr, asr #30
 22c:	6f696e5f 	svcvs	0x00696e5f
 230:	73007362 	movwvc	r7, #866	; 0x362
 234:	74726f68 	ldrbtvc	r6, [r2], #-3944	; 0xfffff098
 238:	736e7520 	cmnvc	lr, #32, 10	; 0x8000000
 23c:	656e6769 	strbvs	r6, [lr, #-1897]!	; 0xfffff897
 240:	6e692064 	cdpvs	0, 6, cr2, cr9, cr4, {3}
 244:	615f0074 	cmpvs	pc, r4, ror r0	; <UNPREDICTABLE>
 248:	69786574 	ldmdbvs	r8!, {r2, r4, r5, r6, r8, sl, sp, lr}^
 24c:	5f003074 	svcpl	0x00003074
 250:	6e676973 			; <UNDEFINED> instruction: 0x6e676973
 254:	625f6c61 	subsvs	r6, pc, #24832	; 0x6100
 258:	5f006675 	svcpl	0x00006675
 25c:	74637361 	strbtvc	r7, [r3], #-865	; 0xfffffc9f
 260:	5f656d69 	svcpl	0x00656d69
 264:	00667562 	rsbeq	r7, r6, r2, ror #10
 268:	7365725f 	cmnvc	r5, #-268435451	; 0xf0000005
 26c:	00746c75 	rsbseq	r6, r4, r5, ror ip
 270:	63775f5f 	cmnvs	r7, #380	; 0x17c
 274:	69770068 	ldmdbvs	r7!, {r3, r5, r6}^
 278:	745f746e 	ldrbvc	r7, [pc], #-1134	; 280 <_start-0x7d80>
 27c:	666b6300 	strbtvs	r6, [fp], -r0, lsl #6
 280:	00656572 	rsbeq	r6, r5, r2, ror r5
 284:	636f6c5f 	cmnvs	pc, #24320	; 0x5f00
 288:	656e006b 	strbvs	r0, [lr, #-107]!	; 0xffffff95
 28c:	5f007272 	svcpl	0x00007272
 290:	67616c66 	strbvs	r6, [r1, -r6, ror #24]!
 294:	5f003273 	svcpl	0x00003273
 298:	5f6d745f 	svcpl	0x006d745f
 29c:	72616579 	rsbvc	r6, r1, #507510784	; 0x1e400000
 2a0:	656c6300 	strbvs	r6, [ip, #-768]!	; 0xfffffd00
 2a4:	725f6e61 	subsvc	r6, pc, #1552	; 0x610
 2a8:	6f6f6265 	svcvs	0x006f6265
 2ac:	69730074 	ldmdbvs	r3!, {r2, r4, r5, r6}^
 2b0:	7974657a 	ldmdbvc	r4!, {r1, r3, r4, r5, r6, r8, sl, sp, lr}^
 2b4:	5f006570 	svcpl	0x00006570
 2b8:	7478656e 	ldrbtvc	r6, [r8], #-1390	; 0xfffffa92
 2bc:	5f5f0066 	svcpl	0x005f0066
 2c0:	6d5f6d74 	ldclvs	13, cr6, [pc, #-464]	; f8 <_start-0x7f08>
 2c4:	5f006e6f 	svcpl	0x00006e6f
 2c8:	78657461 	stmdavc	r5!, {r0, r5, r6, sl, ip, sp, lr}^
 2cc:	5f007469 	svcpl	0x00007469
 2d0:	6964735f 	stmdbvs	r4!, {r0, r1, r2, r3, r4, r6, r8, r9, ip, sp, lr}^
 2d4:	696e6964 	stmdbvs	lr!, {r2, r5, r6, r8, fp, sp, lr}^
 2d8:	6f5f0074 	svcvs	0x005f0074
 2dc:	745f6666 	ldrbvc	r6, [pc], #-1638	; 2e4 <_start-0x7d1c>
 2e0:	72665f00 	rsbvc	r5, r6, #0, 30
 2e4:	696c6565 	stmdbvs	ip!, {r0, r2, r5, r6, r8, sl, sp, lr}^
 2e8:	5f007473 	svcpl	0x00007473
 2ec:	4b434f4c 	blmi	10d4024 <__bss_end__+0x10c9fe4>
 2f0:	4345525f 	movtmi	r5, #21087	; 0x525f
 2f4:	49535255 	ldmdbmi	r3, {r0, r2, r4, r6, r9, ip, lr}^
 2f8:	545f4556 	ldrbpl	r4, [pc], #-1366	; 300 <_start-0x7d00>
 2fc:	736e7500 	cmnvc	lr, #0, 10
 300:	656e6769 	strbvs	r6, [lr, #-1897]!	; 0xfffff897
 304:	68632064 	stmdavs	r3!, {r2, r5, r6, sp}^
 308:	5f007261 	svcpl	0x00007261
 30c:	0077656e 	rsbseq	r6, r7, lr, ror #10
 310:	655f685f 	ldrbvs	r6, [pc, #-2143]	; fffffab9 <__bss_end__+0xffff5a79>
 314:	6f6e7272 	svcvs	0x006e7272
 318:	6f687300 	svcvs	0x00687300
 31c:	69207472 	stmdbvs	r0!, {r1, r4, r5, r6, sl, ip, sp, lr}
 320:	5f00746e 	svcpl	0x0000746e
 324:	5f6d745f 	svcpl	0x006d745f
 328:	79616479 	stmdbvc	r1!, {r0, r3, r4, r5, r6, sl, sp, lr}^
 32c:	735f5f00 	cmpvc	pc, #0, 30
 330:	00667562 	rsbeq	r7, r6, r2, ror #10
 334:	626f695f 	rsbvs	r6, pc, #1556480	; 0x17c000
 338:	5f5f0073 	svcpl	0x005f0073
 33c:	454c4946 	strbmi	r4, [ip, #-2374]	; 0xfffff6ba
 340:	626d5f00 	rsbvs	r5, sp, #0, 30
 344:	74617473 	strbtvc	r7, [r1], #-1139	; 0xfffffb8d
 348:	00745f65 	rsbseq	r5, r4, r5, ror #30
 34c:	46735f5f 	uhsaxmi	r5, r3, pc	; <UNPREDICTABLE>
 350:	00454c49 	subeq	r4, r5, r9, asr #24
 354:	73626d5f 	cmnvc	r2, #6080	; 0x17c0
 358:	65746174 	ldrbvs	r6, [r4, #-372]!	; 0xfffffe8c
 35c:	61725f00 	cmnvs	r2, r0, lsl #30
 360:	6e5f646e 	cdpvs	4, 5, cr6, cr15, cr14, {3}
 364:	00747865 	rsbseq	r7, r4, r5, ror #16
 368:	6c626d5f 	stclvs	13, cr6, [r2], #-380	; 0xfffffe84
 36c:	735f6e65 	cmpvc	pc, #1616	; 0x650
 370:	65746174 	ldrbvs	r6, [r4, #-372]!	; 0xfffffe8c
 374:	6e695f00 	cdpvs	15, 6, cr5, cr9, cr0, {0}
 378:	695f0063 	ldmdbvs	pc, {r0, r1, r5, r6}^	; <UNPREDICTABLE>
 37c:	5f00646e 	svcpl	0x0000646e
 380:	72727563 	rsbsvc	r7, r2, #415236096	; 0x18c00000
 384:	5f746e65 	svcpl	0x00746e65
 388:	61636f6c 	cmnvs	r3, ip, ror #30
 38c:	5f00656c 	svcpl	0x0000656c
 390:	656c635f 	strbvs	r6, [ip, #-863]!	; 0xfffffca1
 394:	70756e61 	rsbsvc	r6, r5, r1, ror #28
 398:	616d5f00 	cmnvs	sp, r0, lsl #30
 39c:	73647778 	cmnvc	r4, #120, 14	; 0x1e00000
 3a0:	65725f00 	ldrbvs	r5, [r2, #-3840]!	; 0xfffff100
 3a4:	00746e65 	rsbseq	r6, r4, r5, ror #28
 3a8:	6565735f 	strbvs	r7, [r5, #-863]!	; 0xfffffca1
 3ac:	5f5f0064 	svcpl	0x005f0064
 3b0:	6e756f63 	cdpvs	15, 7, cr6, cr5, cr3, {3}
 3b4:	5f5f0074 	svcpl	0x005f0074
 3b8:	756c6176 	strbvc	r6, [ip, #-374]!	; 0xfffffe8a
 3bc:	735f0065 	cmpvc	pc, #101	; 0x65
 3c0:	006b6565 	rsbeq	r6, fp, r5, ror #10
 3c4:	6f70665f 	svcvs	0x0070665f
 3c8:	00745f73 	rsbseq	r5, r4, r3, ror pc
 3cc:	6d745f5f 	ldclvs	15, cr5, [r4, #-380]!	; 0xfffffe84
 3d0:	6e696d5f 	mcrvs	13, 3, r6, cr9, cr15, {2}
 3d4:	756d5f00 	strbvc	r5, [sp, #-3840]!	; 0xfffff100
 3d8:	4700746c 	strmi	r7, [r0, -ip, ror #8]
 3dc:	4320554e 			; <UNDEFINED> instruction: 0x4320554e
 3e0:	36203939 			; <UNDEFINED> instruction: 0x36203939
 3e4:	312e332e 			; <UNDEFINED> instruction: 0x312e332e
 3e8:	31303220 	teqcc	r0, r0, lsr #4
 3ec:	32363037 	eorscc	r3, r6, #55	; 0x37
 3f0:	6d2d2030 	stcvs	0, cr2, [sp, #-192]!	; 0xffffff40
 3f4:	3d757063 	ldclcc	0, cr7, [r5, #-396]!	; 0xfffffe74
 3f8:	316d7261 	cmncc	sp, r1, ror #4
 3fc:	6a363731 	bvs	d8e0c8 <__bss_end__+0xd84088>
 400:	732d667a 			; <UNDEFINED> instruction: 0x732d667a
 404:	746d2d20 	strbtvc	r2, [sp], #-3360	; 0xfffff2e0
 408:	3d656e75 	stclcc	14, cr6, [r5, #-468]!	; 0xfffffe2c
 40c:	316d7261 	cmncc	sp, r1, ror #4
 410:	6a363731 	bvs	d8e0dc <__bss_end__+0xd8409c>
 414:	732d667a 			; <UNDEFINED> instruction: 0x732d667a
 418:	67672d20 	strbvs	r2, [r7, -r0, lsr #26]!
 41c:	2d206264 	sfmcs	f6, 4, [r0, #-400]!	; 0xfffffe70
 420:	2d20674f 	stccs	7, cr6, [r0, #-316]!	; 0xfffffec4
 424:	3d647473 	cfstrdcc	mvd7, [r4, #-460]!	; 0xfffffe34
 428:	39756e67 	ldmdbcc	r5!, {r0, r1, r2, r5, r6, r9, sl, fp, sp, lr}^
 42c:	662d2039 			; <UNDEFINED> instruction: 0x662d2039
 430:	65657266 	strbvs	r7, [r5, #-614]!	; 0xfffffd9a
 434:	6e617473 	mcrvs	4, 3, r7, cr1, cr3, {3}
 438:	676e6964 	strbvs	r6, [lr, -r4, ror #18]!
 43c:	74735f00 	ldrbtvc	r5, [r3], #-3840	; 0xfffff100
 440:	6b6f7472 	blvs	1bdd610 <__bss_end__+0x1bd35d0>
 444:	73616c5f 	cmnvc	r1, #24320	; 0x5f00
 448:	665f0074 			; <UNDEFINED> instruction: 0x665f0074
 44c:	7079746e 	rsbsvc	r7, r9, lr, ror #8
 450:	5f007365 	svcpl	0x00007365
 454:	00646461 	rsbeq	r6, r4, r1, ror #8
 458:	4c555f5f 	mrrcmi	15, 5, r5, r5, cr15	; <UNPREDICTABLE>
 45c:	00676e6f 	rsbeq	r6, r7, pc, ror #28
 460:	7465675f 	strbtvc	r6, [r5], #-1887	; 0xfffff8a1
 464:	65746164 	ldrbvs	r6, [r4, #-356]!	; 0xfffffe9c
 468:	7272655f 	rsbsvc	r6, r2, #398458880	; 0x17c00000
 46c:	6c675f00 	stclvs	15, cr5, [r7], #-0
 470:	6c61626f 	sfmvs	f6, 2, [r1], #-444	; 0xfffffe44
 474:	706d695f 	rsbvc	r6, sp, pc, asr r9
 478:	5f657275 	svcpl	0x00657275
 47c:	00727470 	rsbseq	r7, r2, r0, ror r4
 480:	7275635f 	rsbsvc	r6, r5, #2080374785	; 0x7c000001
 484:	746e6572 	strbtvc	r6, [lr], #-1394	; 0xfffffa8e
 488:	7461635f 	strbtvc	r6, [r1], #-863	; 0xfffffca1
 48c:	726f6765 	rsbvc	r6, pc, #26476544	; 0x1940000
 490:	656d0079 	strbvs	r0, [sp, #-121]!	; 0xffffff87
 494:	7465736d 	strbtvc	r7, [r5], #-877	; 0xfffffc93
 498:	6e755f00 	cdpvs	15, 7, cr5, cr5, cr0, {0}
 49c:	64657375 	strbtvs	r7, [r5], #-885	; 0xfffffc8b
 4a0:	6e61725f 	mcrvs	2, 3, r7, cr1, cr15, {2}
 4a4:	775f0064 	ldrbvc	r0, [pc, -r4, rrx]
 4a8:	5f007364 	svcpl	0x00007364
 4ac:	5f6d745f 	svcpl	0x006d745f
 4b0:	79616477 	stmdbvc	r1!, {r0, r1, r2, r4, r5, r6, sl, sp, lr}^
 4b4:	6c675f00 	stclvs	15, cr5, [r7], #-0
 4b8:	5f006575 	svcpl	0x00006575
 4bc:	6c616d6e 	stclvs	13, cr6, [r1], #-440	; 0xfffffe48
 4c0:	00636f6c 	rsbeq	r6, r3, ip, ror #30
 4c4:	34366c5f 	ldrtcc	r6, [r6], #-3167	; 0xfffff3a1
 4c8:	75625f61 	strbvc	r5, [r2, #-3937]!	; 0xfffff09f
 4cc:	735f0066 	cmpvc	pc, #102	; 0x66
 4d0:	665f6769 	ldrbvs	r6, [pc], -r9, ror #14
 4d4:	00636e75 	rsbeq	r6, r3, r5, ror lr
 4d8:	6c616d6b 	stclvs	13, cr6, [r1], #-428	; 0xfffffe54
 4dc:	00636f6c 	rsbeq	r6, r3, ip, ror #30
 4e0:	75626e5f 	strbvc	r6, [r2, #-3679]!	; 0xfffff1a1
 4e4:	755f0066 	ldrbvc	r0, [pc, #-102]	; 486 <_start-0x7b7a>
 4e8:	6573756e 	ldrbvs	r7, [r3, #-1390]!	; 0xfffffa92
 4ec:	5f5f0064 	svcpl	0x005f0064
 4f0:	695f6d74 	ldmdbvs	pc, {r2, r4, r5, r6, r8, sl, fp, sp, lr}^	; <UNPREDICTABLE>
 4f4:	74736473 	ldrbtvc	r6, [r3], #-1139	; 0xfffffb8d
 4f8:	6f6c5f00 	svcvs	0x006c5f00
 4fc:	746c6163 	strbtvc	r6, [ip], #-355	; 0xfffffe9d
 500:	5f656d69 	svcpl	0x00656d69
 504:	00667562 	rsbeq	r7, r6, r2, ror #10
 508:	6f6c635f 	svcvs	0x006c635f
 50c:	5f006573 	svcpl	0x00006573
 510:	00383472 	eorseq	r3, r8, r2, ror r4
 514:	74626d5f 	strbtvc	r6, [r2], #-3423	; 0xfffff2a1
 518:	5f63776f 	svcpl	0x0063776f
 51c:	74617473 	strbtvc	r7, [r1], #-1139	; 0xfffffb8d
 520:	705f0065 	subsvc	r0, pc, r5, rrx
 524:	5f007335 	svcpl	0x00007335
 528:	5f6d745f 	svcpl	0x006d745f
 52c:	7961646d 	stmdbvc	r1!, {r0, r2, r3, r5, r6, sl, sp, lr}^
 530:	64617000 	strbtvs	r7, [r1], #-0
 534:	676e6964 	strbvs	r6, [lr, -r4, ror #18]!
 538:	6e696c00 	cdpvs	12, 6, cr6, cr9, cr0, {0}
 53c:	006f6e65 	rsbeq	r6, pc, r5, ror #28
 540:	76657270 			; <UNDEFINED> instruction: 0x76657270
 544:	73616600 	cmnvc	r1, #0, 12
 548:	61685f74 	smcvs	34292	; 0x85f4
 54c:	66006873 			; <UNDEFINED> instruction: 0x66006873
 550:	5f656572 	svcpl	0x00656572
 554:	00636f6c 	rsbeq	r6, r3, ip, ror #30
 558:	7a725f62 	bvc	1c982e8 <__bss_end__+0x1c8e2a8>
 55c:	74705f31 	ldrbtvc	r5, [r0], #-3889	; 0xfffff0cf
 560:	52460072 	subpl	r0, r6, #114	; 0x72
 564:	00444545 	subeq	r4, r4, r5, asr #10
 568:	4f4c4c41 	svcmi	0x004c4c41
 56c:	00444543 	subeq	r4, r4, r3, asr #10
 570:	73666572 	cmnvc	r6, #478150656	; 0x1c800000
 574:	64696d5f 	strbtvs	r6, [r9], #-3423	; 0xfffff2a1
 578:	00656c64 	rsbeq	r6, r5, r4, ror #24
 57c:	73666572 	cmnvc	r6, #478150656	; 0x1c800000
 580:	6174735f 	cmnvs	r4, pc, asr r3
 584:	61007472 	tstvs	r0, r2, ror r4
 588:	636f6c6c 	cmnvs	pc, #108, 24	; 0x6c00
 58c:	4f006465 	svcmi	0x00006465
 590:	48524556 	ldmdami	r2, {r1, r2, r4, r6, r8, sl, lr}^
 594:	5f444145 	svcpl	0x00444145
 598:	5459424e 	ldrbpl	r4, [r9], #-590	; 0xfffffdb2
 59c:	52005345 	andpl	r5, r0, #335544321	; 0x14000001
 5a0:	4f5a4445 	svcmi	0x005a4445
 5a4:	4100454e 	tstmi	r0, lr, asr #10
 5a8:	434f4c4c 	movtmi	r4, #64588	; 0xfc4c
 5ac:	46464f5f 			; <UNDEFINED> instruction: 0x46464f5f
 5b0:	00544553 	subseq	r4, r4, r3, asr r5
 5b4:	6b72616d 	blvs	1c98b70 <__bss_end__+0x1c8eb30>
 5b8:	6d656d5f 	stclvs	13, cr6, [r5, #-380]!	; 0xfffffe84
 5bc:	615f6200 	cmpvs	pc, r0, lsl #4
 5c0:	5f726464 	svcpl	0x00726464
 5c4:	685f6f74 	ldmdavs	pc, {r2, r4, r5, r6, r8, r9, sl, fp, sp, lr}^	; <UNPREDICTABLE>
 5c8:	63007264 	movwvs	r7, #612	; 0x264
 5cc:	6c6c616b 	stfvse	f6, [ip], #-428	; 0xfffffe54
 5d0:	632e636f 			; <UNDEFINED> instruction: 0x632e636f
 5d4:	66666f00 	strbtvs	r6, [r6], -r0, lsl #30
 5d8:	6c610073 	stclvs	0, cr0, [r1], #-460	; 0xfffffe34
 5dc:	5f636f6c 	svcpl	0x00636f6c
 5e0:	00636f6c 	rsbeq	r6, r3, ip, ror #30
 5e4:	5f726468 	svcpl	0x00726468
 5e8:	75736b63 	ldrbvc	r6, [r3, #-2915]!	; 0xfffff49d
 5ec:	626e006d 	rsbvs	r0, lr, #109	; 0x6d
 5f0:	73657479 	cmnvc	r5, #2030043136	; 0x79000000
 5f4:	6c6c615f 	stfvse	f6, [ip], #-380	; 0xfffffe84
 5f8:	6200636f 	andvs	r6, r0, #-1140850687	; 0xbc000001
 5fc:	6c6c615f 	stfvse	f6, [ip], #-380	; 0xfffffe84
 600:	705f636f 	subsvc	r6, pc, pc, ror #6
 604:	63007274 	movwvs	r7, #628	; 0x274
 608:	6b636568 	blvs	18d9bb0 <__bss_end__+0x18cfb70>
 60c:	6572665f 	ldrbvs	r6, [r2, #-1631]!	; 0xfffff9a1
 610:	72775f65 	rsbsvc	r5, r7, #404	; 0x194
 614:	00657469 	rsbeq	r7, r5, r9, ror #8
 618:	63656863 	cmnvs	r5, #6488064	; 0x630000
 61c:	64685f6b 	strbtvs	r5, [r8], #-3947	; 0xfffff095
 620:	5f620072 	svcpl	0x00620072
 624:	5f327a72 	svcpl	0x00327a72
 628:	00727470 	rsbseq	r7, r2, r0, ror r4
 62c:	6b6c626e 	blvs	1b18fec <__bss_end__+0x1b0efac>
 630:	72730073 	rsbsvc	r0, r3, #115	; 0x73
 634:	6f6c5f63 	svcvs	0x006c5f63
 638:	00745f63 	rsbseq	r5, r4, r3, ror #30
 63c:	746e6975 	strbtvc	r6, [lr], #-2421	; 0xfffff68b
 640:	745f3233 	ldrbvc	r3, [pc], #-563	; 648 <_start-0x79b8>
 644:	72656e00 	rsbvc	r6, r5, #0, 28
 648:	73726f72 	cmnvc	r2, #456	; 0x1c8
 64c:	72646800 	rsbvc	r6, r4, #0, 16
 650:	6972705f 	ldmdbvs	r2!, {r0, r1, r2, r3, r4, r6, ip, sp, lr}^
 654:	6800746e 	stmdavs	r0, {r1, r2, r3, r5, r6, sl, ip, sp, lr}
 658:	00706165 	rsbseq	r6, r0, r5, ror #2
 65c:	544e4553 	strbpl	r4, [lr], #-1363	; 0xfffffaad
 660:	4c414e49 	mcrrmi	14, 4, r4, r1, cr9
 664:	65686300 	strbvs	r6, [r8, #-768]!	; 0xfffffd00
 668:	625f6b63 	subsvs	r6, pc, #101376	; 0x18c00
 66c:	6b636f6c 	blvs	18dc424 <__bss_end__+0x18d23e4>
 670:	725f6200 	subsvc	r6, pc, #0, 4
 674:	6e5f327a 	mrcvs	2, 2, r3, cr15, cr10, {3}
 678:	65747962 	ldrbvs	r7, [r4, #-2402]!	; 0xfffff69e
 67c:	69750073 	ldmdbvs	r5!, {r0, r1, r4, r5, r6}^
 680:	5f38746e 	svcpl	0x0038746e
 684:	64680074 	strbtvs	r0, [r8], #-116	; 0xffffff8c
 688:	00745f72 	rsbseq	r5, r4, r2, ror pc
 68c:	7479626e 	ldrbtvc	r6, [r9], #-622	; 0xfffffd92
 690:	725f7365 	subsvc	r7, pc, #-1811939327	; 0x94000001
 694:	6c006d65 	stcvs	13, cr6, [r0], {101}	; 0x65
 698:	00746665 	rsbseq	r6, r4, r5, ror #12
 69c:	63656863 	cmnvs	r5, #6488064	; 0x630000
 6a0:	656d5f6b 	strbvs	r5, [sp, #-3947]!	; 0xfffff095
 6a4:	6568006d 	strbvs	r0, [r8, #-109]!	; 0xffffff93
 6a8:	72656461 	rsbvc	r6, r5, #1627389952	; 0x61000000
 6ac:	765f5f00 	ldrbvc	r5, [pc], -r0, lsl #30
 6b0:	696c5f61 	stmdbvs	ip!, {r0, r5, r6, r8, r9, sl, fp, ip, lr}^
 6b4:	76007473 			; <UNDEFINED> instruction: 0x76007473
 6b8:	72705f61 	rsbsvc	r5, r0, #388	; 0x184
 6bc:	6b746e69 	blvs	1d1c068 <__bss_end__+0x1d12028>
 6c0:	675f5f00 	ldrbvs	r5, [pc, -r0, lsl #30]
 6c4:	5f63756e 	svcpl	0x0063756e
 6c8:	6c5f6176 	ldfvse	f6, [pc], {118}	; 0x76
 6cc:	00747369 	rsbseq	r7, r4, r9, ror #6
 6d0:	70615f5f 	rsbvc	r5, r1, pc, asr pc
 6d4:	62696c00 	rsbvs	r6, r9, #0, 24
 6d8:	72702f63 	rsbsvc	r2, r0, #396	; 0x18c
 6dc:	6b746e69 	blvs	1d1c088 <__bss_end__+0x1d12048>
 6e0:	2f00632e 	svccs	0x0000632e
 6e4:	656d6f68 	strbvs	r6, [sp, #-3944]!	; 0xfffff098
 6e8:	6573752f 	ldrbvs	r7, [r3, #-1327]!	; 0xfffffad1
 6ec:	65442f72 	strbvs	r2, [r4, #-3954]	; 0xfffff08e
 6f0:	53432f76 	movtpl	r2, #16246	; 0x3f76
 6f4:	58303432 	ldmdapl	r0!, {r1, r4, r5, sl, ip, sp}
 6f8:	62696c2f 	rsbvs	r6, r9, #12032	; 0x2f00
 6fc:	6c006970 			; <UNDEFINED> instruction: 0x6c006970
 700:	2f636269 	svccs	0x00636269
 704:	702d6176 	eorvc	r6, sp, r6, ror r1
 708:	746e6972 	strbtvc	r6, [lr], #-2418	; 0xfffff68e
 70c:	00632e6b 	rsbeq	r2, r3, fp, ror #28
 710:	5f697072 	svcpl	0x00697072
 714:	5f746573 	svcpl	0x00746573
 718:	7074756f 	rsbsvc	r7, r4, pc, ror #10
 71c:	73007475 	movwvc	r7, #1141	; 0x475
 720:	656e6769 	strbvs	r6, [lr, #-1897]!	; 0xfffff897
 724:	00705f64 	rsbseq	r5, r0, r4, ror #30
 728:	65766572 	ldrbvs	r6, [r6, #-1394]!	; 0xfffffa8e
 72c:	00657372 	rsbeq	r7, r5, r2, ror r3
 730:	74646977 	strbtvc	r6, [r4], #-2423	; 0xfffff689
 734:	75700068 	ldrbvc	r0, [r0, #-104]!	; 0xffffff98
 738:	665f7374 			; <UNDEFINED> instruction: 0x665f7374
 73c:	656e0070 	strbvs	r0, [lr, #-112]!	; 0xffffff90
 740:	00705f67 	rsbseq	r5, r0, r7, ror #30
 744:	63747570 	cmnvs	r4, #112, 10	; 0x1c000000
 748:	0070665f 	rsbseq	r6, r0, pc, asr r6
 74c:	69647369 	stmdbvs	r4!, {r0, r3, r5, r6, r8, r9, ip, sp, lr}^
 750:	00746967 	rsbseq	r6, r4, r7, ror #18
 754:	74696d65 	strbtvc	r6, [r9], #-3429	; 0xfffff29b
 758:	62696c00 	rsbvs	r6, r9, #0, 24
 75c:	61682f63 	cmnvs	r8, r3, ror #30
 760:	632e6873 			; <UNDEFINED> instruction: 0x632e6873
 764:	746e6900 	strbtvc	r6, [lr], #-2304	; 0xfffff700
 768:	616e7265 	cmnvs	lr, r5, ror #4
 76c:	75705f6c 	ldrbvc	r5, [r0, #-3948]!	; 0xfffff094
 770:	6c006b74 			; <UNDEFINED> instruction: 0x6c006b74
 774:	2f636269 	svccs	0x00636269
 778:	6b747570 	blvs	1d1dd40 <__bss_end__+0x1d13d00>
 77c:	7200632e 	andvc	r6, r0, #-1207959552	; 0xb8000000
 780:	735f6970 	cmpvc	pc, #112, 18	; 0x1c0000
 784:	705f7465 	subsvc	r7, pc, r5, ror #8
 788:	00637475 	rsbeq	r7, r3, r5, ror r4
 78c:	74726175 	ldrbtvc	r6, [r2], #-373	; 0xfffffe8b
 790:	7475705f 	ldrbtvc	r7, [r5], #-95	; 0xffffffa1
 794:	6e690063 	cdpvs	0, 6, cr0, cr9, cr3, {3}
 798:	6e726574 	mrcvs	5, 3, r6, cr2, cr4, {3}
 79c:	705f6c61 	subsvc	r6, pc, r1, ror #24
 7a0:	68637475 	stmdavs	r3!, {r0, r2, r4, r5, r6, sl, ip, sp, lr}^
 7a4:	6c007261 	sfmvs	f7, 4, [r0], {97}	; 0x61
 7a8:	2f636269 	svccs	0x00636269
 7ac:	63747570 	cmnvs	r4, #112, 10	; 0x1c000000
 7b0:	2e726168 	rpwcssz	f6, f2, #0.0
 7b4:	69730063 	ldmdbvs	r3!, {r0, r1, r5, r6}^
 7b8:	745f657a 	ldrbvc	r6, [pc], #-1402	; 7c0 <_start-0x7840>
 7bc:	62696c00 	rsbvs	r6, r9, #0, 24
 7c0:	656d2f63 	strbvs	r2, [sp, #-3939]!	; 0xfffff09d
 7c4:	7465736d 	strbtvc	r7, [r5], #-877	; 0xfffffc93
 7c8:	7300632e 	movwvc	r6, #814	; 0x32e
 7cc:	66666174 			; <UNDEFINED> instruction: 0x66666174
 7d0:	6372732d 	cmnvs	r2, #-1275068416	; 0xb4000000
 7d4:	7473632f 	ldrbtvc	r6, [r3], #-815	; 0xfffffcd1
 7d8:	2e747261 	cdpcs	2, 7, cr7, cr4, cr1, {3}
 7dc:	635f0063 	cmpvs	pc, #99	; 0x63
 7e0:	72617473 	rsbvc	r7, r1, #1929379840	; 0x73000000
 7e4:	73620074 	cmnvc	r2, #116	; 0x74
 7e8:	6e655f73 	mcrvs	15, 3, r5, cr5, cr3, {3}
 7ec:	5f5f0064 	svcpl	0x005f0064
 7f0:	5f737362 	svcpl	0x00737362
 7f4:	72617473 	rsbvc	r7, r1, #1929379840	; 0x73000000
 7f8:	005f5f74 	subseq	r5, pc, r4, ror pc	; <UNPREDICTABLE>
 7fc:	73625f5f 	cmnvc	r2, #380	; 0x17c
 800:	6e655f73 	mcrvs	15, 3, r5, cr5, cr3, {3}
 804:	005f5f64 	subseq	r5, pc, r4, ror #30
 808:	525f4d50 	subspl	r4, pc, #80, 26	; 0x1400
 80c:	00435453 	subeq	r5, r3, r3, asr r4
 810:	33545550 	cmpcc	r4, #80, 10	; 0x14000000
 814:	4d500032 	ldclmi	0, cr0, [r0, #-200]	; 0xffffff38
 818:	5453525f 	ldrbpl	r5, [r3], #-607	; 0xfffffda1
 81c:	52575f43 	subspl	r5, r7, #268	; 0x10c
 820:	5f474643 	svcpl	0x00474643
 824:	4c4c5546 	cfstr64mi	mvdx5, [ip], {70}	; 0x46
 828:	5345525f 	movtpl	r5, #21087	; 0x525f
 82c:	50005445 	andpl	r5, r0, r5, asr #8
 830:	44575f4d 	ldrbmi	r5, [r7], #-3917	; 0xfffff0b3
 834:	6300474f 	movwvs	r4, #1871	; 0x74f
 838:	00727370 	rsbseq	r7, r2, r0, ror r3
 83c:	505f4d50 	subspl	r4, pc, r0, asr sp	; <UNPREDICTABLE>
 840:	57535341 	ldrbpl	r5, [r3, -r1, asr #6]
 844:	0044524f 	subeq	r5, r4, pc, asr #4
 848:	616c6564 	cmnvs	ip, r4, ror #10
 84c:	736d5f79 	cmnvc	sp, #484	; 0x1e4
 850:	69707200 	ldmdbvs	r0!, {r9, ip, sp, lr}^
 854:	6265725f 	rsbvs	r7, r5, #-268435451	; 0xf0000005
 858:	00746f6f 	rsbseq	r6, r4, pc, ror #30
 85c:	66617473 			; <UNDEFINED> instruction: 0x66617473
 860:	72732d66 	rsbsvc	r2, r3, #6528	; 0x1980
 864:	65722f63 	ldrbvs	r2, [r2, #-3939]!	; 0xfffff09d
 868:	746f6f62 	strbtvc	r6, [pc], #-3938	; 870 <_start-0x7790>
 86c:	7300632e 	movwvc	r6, #814	; 0x32e
 870:	755f7465 	ldrbvc	r7, [pc, #-1125]	; 413 <_start-0x7bed>
 874:	5f726573 	svcpl	0x00726573
 878:	6576656c 	ldrbvs	r6, [r6, #-1388]!	; 0xfffffa94
 87c:	7461006c 	strbtvc	r0, [r1], #-108	; 0xffffff94
 880:	6573755f 	ldrbvs	r7, [r3, #-1375]!	; 0xfffffaa1
 884:	656c5f72 	strbvs	r5, [ip, #-3954]!	; 0xfffff08e
 888:	006c6576 	rsbeq	r6, ip, r6, ror r5
 88c:	66617473 			; <UNDEFINED> instruction: 0x66617473
 890:	72732d66 	rsbsvc	r2, r3, #6528	; 0x1980
 894:	6c632f63 	stclvs	15, cr2, [r3], #-396	; 0xfffffe74
 898:	2d6e6165 	stfcse	f6, [lr, #-404]!	; 0xfffffe6c
 89c:	6f626572 	svcvs	0x00626572
 8a0:	632e746f 			; <UNDEFINED> instruction: 0x632e746f
 8a4:	6d697400 	cfstrdvs	mvd7, [r9, #-0]
 8a8:	675f7265 	ldrbvs	r7, [pc, -r5, ror #4]
 8ac:	755f7465 	ldrbvc	r7, [pc, #-1125]	; 44f <_start-0x7bb1>
 8b0:	00636573 	rsbeq	r6, r3, r3, ror r5
 8b4:	616c6564 	cmnvs	ip, r4, ror #10
 8b8:	65735f79 	ldrbvs	r5, [r3, #-3961]!	; 0xfffff087
 8bc:	65640063 	strbvs	r0, [r4, #-99]!	; 0xffffff9d
 8c0:	5f79616c 	svcpl	0x0079616c
 8c4:	6c637963 			; <UNDEFINED> instruction: 0x6c637963
 8c8:	73007365 	movwvc	r7, #869	; 0x365
 8cc:	66666174 			; <UNDEFINED> instruction: 0x66666174
 8d0:	6372732d 	cmnvs	r2, #-1275068416	; 0xb4000000
 8d4:	6d69742f 	cfstrdvs	mvd7, [r9, #-188]!	; 0xffffff44
 8d8:	632e7265 			; <UNDEFINED> instruction: 0x632e7265
 8dc:	63697400 	cmnvs	r9, #0, 8
 8e0:	4700736b 	strmi	r7, [r0, -fp, ror #6]
 8e4:	32335445 	eorscc	r5, r3, #1157627904	; 0x45000000
 8e8:	6d697400 	cfstrdvs	mvd7, [r9, #-0]
 8ec:	675f7265 	ldrbvs	r7, [pc, -r5, ror #4]
 8f0:	755f7465 	ldrbvc	r7, [pc, #-1125]	; 493 <_start-0x7b6d>
 8f4:	5f636573 	svcpl	0x00636573
 8f8:	00776172 	rsbseq	r6, r7, r2, ror r1
 8fc:	616c6564 	cmnvs	ip, r4, ror #10
 900:	73755f79 	cmnvc	r5, #484	; 0x1e4
 904:	72617500 	rsbvc	r7, r1, #0, 10
 908:	6e695f74 	mcrvs	15, 3, r5, cr9, cr4, {3}
 90c:	47007469 	strmi	r7, [r0, -r9, ror #8]
 910:	5f4f4950 	svcpl	0x004f4950
 914:	434e5546 	movtmi	r5, #58694	; 0xe546
 918:	504e495f 	subpl	r4, lr, pc, asr r9
 91c:	73005455 	movwvc	r5, #1109	; 0x455
 920:	00746174 	rsbseq	r6, r4, r4, ror r1
 924:	4f495047 	svcmi	0x00495047
 928:	4e55465f 	mrcmi	6, 2, r4, cr5, cr15, {2}
 92c:	4c415f43 	mcrrmi	15, 4, r5, r1, cr3
 930:	63003154 	movwvs	r3, #340	; 0x154
 934:	006c746e 	rsbeq	r7, ip, lr, ror #8
 938:	74726175 	ldrbtvc	r6, [r2], #-373	; 0xfffffe8b
 93c:	6100632e 	tstvs	r0, lr, lsr #6
 940:	705f7875 	subsvc	r7, pc, r5, ror r8	; <UNPREDICTABLE>
 944:	70697265 	rsbvc	r7, r9, r5, ror #4
 948:	2f007368 	svccs	0x00007368
 94c:	656d6f68 	strbvs	r6, [sp, #-3944]!	; 0xfffff098
 950:	676e652f 	strbvs	r6, [lr, -pc, lsr #10]!
 954:	2f72656c 	svccs	0x0072656c
 958:	73616c63 	cmnvc	r1, #25344	; 0x6300
 95c:	73632f73 	cmnvc	r3, #460	; 0x1cc
 960:	6c303432 	cfldrsvs	mvf3, [r0], #-200	; 0xffffff38
 964:	30322d78 	eorscc	r2, r2, r8, ror sp
 968:	2f727073 	svccs	0x00727073
 96c:	7062696c 	rsbvc	r6, r2, ip, ror #18
 970:	74732f69 	ldrbtvc	r2, [r3], #-3945	; 0xfffff097
 974:	2d666661 	stclcs	6, cr6, [r6, #-388]!	; 0xfffffe7c
 978:	76697270 			; <UNDEFINED> instruction: 0x76697270
 97c:	00657461 	rsbeq	r7, r5, r1, ror #8
 980:	5f787561 	svcpl	0x00787561
 984:	62616e65 	rsbvs	r6, r1, #1616	; 0x650
 988:	0073656c 	rsbseq	r6, r3, ip, ror #10
 98c:	74726175 	ldrbtvc	r6, [r2], #-373	; 0xfffffe8b
 990:	6e61635f 	mcrvs	3, 3, r6, cr1, cr15, {2}
 994:	7475705f 	ldrbtvc	r7, [r5], #-95	; 0xffffffa1
 998:	61750063 	cmnvs	r5, r3, rrx
 99c:	675f7472 			; <UNDEFINED> instruction: 0x675f7472
 9a0:	00637465 	rsbeq	r7, r3, r5, ror #8
 9a4:	5f766564 	svcpl	0x00766564
 9a8:	72726162 	rsbsvc	r6, r2, #-2147483624	; 0x80000018
 9ac:	00726569 	rsbseq	r6, r2, r9, ror #10
 9b0:	4f495047 	svcmi	0x00495047
 9b4:	4e55465f 	mrcmi	6, 2, r4, cr5, cr15, {2}
 9b8:	4c415f43 	mcrrmi	15, 4, r5, r1, cr3
 9bc:	67003254 	smlsdvs	r0, r4, r2, r3
 9c0:	5f6f6970 	svcpl	0x006f6970
 9c4:	5f746573 	svcpl	0x00746573
 9c8:	636e7566 	cmnvs	lr, #427819008	; 0x19800000
 9cc:	6e6f6974 			; <UNDEFINED> instruction: 0x6e6f6974
 9d0:	72617500 	rsbvc	r7, r1, #0, 10
 9d4:	61620074 	smcvs	8196	; 0x2004
 9d8:	73006475 	movwvc	r6, #1141	; 0x475
 9dc:	74617263 	strbtvc	r7, [r1], #-611	; 0xfffffd9d
 9e0:	70006863 	andvc	r6, r0, r3, ror #16
 9e4:	32337475 	eorscc	r7, r3, #1962934272	; 0x75000000
 9e8:	49504700 	ldmdbmi	r0, {r8, r9, sl, lr}^
 9ec:	55465f4f 	strbpl	r5, [r6, #-3919]	; 0xfffff0b1
 9f0:	4f5f434e 	svcmi	0x005f434e
 9f4:	55505455 	ldrbpl	r5, [r0, #-1109]	; 0xfffffbab
 9f8:	65670054 	strbvs	r0, [r7, #-84]!	; 0xffffffac
 9fc:	00323374 	eorseq	r3, r2, r4, ror r3
 a00:	74726175 	ldrbtvc	r6, [r2], #-373	; 0xfffffe8b
 a04:	6e61635f 	mcrvs	3, 3, r6, cr1, cr15, {2}
 a08:	7465675f 	strbtvc	r6, [r5], #-1887	; 0xfffff8a1
 a0c:	726f0063 	rsbvc	r0, pc, #99	; 0x63
 a10:	336e695f 	cmncc	lr, #1556480	; 0x17c000
 a14:	61750032 	cmnvs	r5, r2, lsr r0
 a18:	685f7472 	ldmdavs	pc, {r1, r4, r5, r6, sl, ip, sp, lr}^	; <UNPREDICTABLE>
 a1c:	645f7361 	ldrbvs	r7, [pc], #-865	; a24 <_start-0x75dc>
 a20:	00617461 	rsbeq	r7, r1, r1, ror #8
 a24:	4f495047 	svcmi	0x00495047
 a28:	4e55465f 	mrcmi	6, 2, r4, cr5, cr15, {2}
 a2c:	4c415f43 	mcrrmi	15, 4, r5, r1, cr3
 a30:	47003054 	smlsdmi	r0, r4, r0, r3
 a34:	5f4f4950 	svcpl	0x004f4950
 a38:	434e5546 	movtmi	r5, #58694	; 0xe546
 a3c:	544c415f 	strbpl	r4, [ip], #-351	; 0xfffffea1
 a40:	50470033 	subpl	r0, r7, r3, lsr r0
 a44:	465f4f49 	ldrbmi	r4, [pc], -r9, asr #30
 a48:	5f434e55 	svcpl	0x00434e55
 a4c:	34544c41 	ldrbcc	r4, [r4], #-3137	; 0xfffff3bf
 a50:	49504700 	ldmdbmi	r0, {r8, r9, sl, lr}^
 a54:	55465f4f 	strbpl	r5, [r6, #-3919]	; 0xfffff0b1
 a58:	415f434e 	cmpmi	pc, lr, asr #6
 a5c:	0035544c 	eorseq	r5, r5, ip, asr #8
 a60:	6f697067 	svcvs	0x00697067
 a64:	7465735f 	strbtvc	r7, [r5], #-863	; 0xfffffca1
 a68:	66666f5f 	uqsaxvs	r6, r6, pc	; <UNPREDICTABLE>
 a6c:	6e616200 	cdpvs	2, 6, cr6, cr1, cr0, {0}
 a70:	7067006b 	rsbvc	r0, r7, fp, rrx
 a74:	632e6f69 			; <UNDEFINED> instruction: 0x632e6f69
 a78:	69706700 	ldmdbvs	r0!, {r8, r9, sl, sp, lr}^
 a7c:	65725f6f 	ldrbvs	r5, [r2, #-3951]!	; 0xfffff091
 a80:	67006461 	strvs	r6, [r0, -r1, ror #8]
 a84:	5f6f6970 	svcpl	0x006f6970
 a88:	5f746573 	svcpl	0x00746573
 a8c:	7074756f 	rsbsvc	r7, r4, pc, ror #10
 a90:	67007475 	smlsdxvs	r0, r5, r4, r7
 a94:	5f6f6970 	svcpl	0x006f6970
 a98:	74697277 	strbtvc	r7, [r9], #-631	; 0xfffffd89
 a9c:	70670065 	rsbvc	r0, r7, r5, rrx
 aa0:	735f6f69 	cmpvc	pc, #420	; 0x1a4
 aa4:	00307465 	eorseq	r7, r0, r5, ror #8
 aa8:	6f697067 	svcvs	0x00697067
 aac:	76656c5f 			; <UNDEFINED> instruction: 0x76656c5f
 ab0:	70670030 	rsbvc	r0, r7, r0, lsr r0
 ab4:	735f6f69 	cmpvc	pc, #420	; 0x1a4
 ab8:	695f7465 	ldmdbvs	pc, {r0, r2, r5, r6, sl, ip, sp, lr}^	; <UNPREDICTABLE>
 abc:	7475706e 	ldrbtvc	r7, [r5], #-110	; 0xffffff92
 ac0:	69706700 	ldmdbvs	r0!, {r8, r9, sl, sp, lr}^
 ac4:	65735f6f 	ldrbvs	r5, [r3, #-3951]!	; 0xfffff091
 ac8:	6e6f5f74 	mcrvs	15, 3, r5, cr15, cr4, {3}
 acc:	69706700 	ldmdbvs	r0!, {r8, r9, sl, sp, lr}^
 ad0:	75665f6f 	strbvc	r5, [r6, #-3951]!	; 0xfffff091
 ad4:	745f636e 	ldrbvc	r6, [pc], #-878	; adc <_start-0x7524>
 ad8:	69706700 	ldmdbvs	r0!, {r8, r9, sl, sp, lr}^
 adc:	6c635f6f 	stclvs	15, cr5, [r3], #-444	; 0xfffffe44
 ae0:	6b003072 	blvs	ccb0 <__bss_end__+0x2c70>
 ae4:	6c6c616d 	stfvse	f6, [ip], #-436	; 0xfffffe4c
 ae8:	632e636f 			; <UNDEFINED> instruction: 0x632e636f
 aec:	616d6b00 	cmnvs	sp, r0, lsl #22
 af0:	636f6c6c 	cmnvs	pc, #108, 24	; 0x6c00
 af4:	696e695f 	stmdbvs	lr!, {r0, r1, r2, r3, r4, r6, r8, fp, sp, lr}^
 af8:	6d6b0074 	stclvs	0, cr0, [fp, #-464]!	; 0xfffffe30
 afc:	6f6c6c61 	svcvs	0x006c6c61
 b00:	6c615f63 	stclvs	15, cr5, [r1], #-396	; 0xfffffe74
 b04:	656e6769 	strbvs	r6, [lr, #-1897]!	; 0xfffff897
 b08:	6f640064 	svcvs	0x00640064
 b0c:	656c6275 	strbvs	r6, [ip, #-629]!	; 0xfffffd8b
 b10:	72666b00 	rsbvc	r6, r6, #0, 22
 b14:	615f6565 	cmpvs	pc, r5, ror #10
 b18:	6b006c6c 	blvs	1bcd0 <__bss_end__+0x11c90>
 b1c:	65657266 	strbvs	r7, [r5, #-614]!	; 0xfffffd9a
 b20:	7466615f 	strbtvc	r6, [r6], #-351	; 0xfffffea1
 b24:	6b007265 	blvs	1d4c0 <__bss_end__+0x13480>
 b28:	6c6c616d 	stfvse	f6, [ip], #-436	; 0xfffffe4c
 b2c:	685f636f 	ldmdavs	pc, {r0, r1, r2, r3, r5, r6, r8, r9, sp, lr}^	; <UNPREDICTABLE>
 b30:	5f706165 	svcpl	0x00706165
 b34:	00727470 	rsbseq	r7, r2, r0, ror r4
 b38:	67696c61 	strbvs	r6, [r9, -r1, ror #24]!
 b3c:	6e656d6e 	cdpvs	13, 6, cr6, cr5, cr14, {3}
 b40:	5f5f0074 	svcpl	0x005f0074
 b44:	70616568 	rsbvc	r6, r1, r8, ror #10
 b48:	6174735f 	cmnvs	r4, pc, asr r3
 b4c:	5f5f7472 	svcpl	0x005f7472
 b50:	616d6b00 	cmnvs	sp, r0, lsl #22
 b54:	636f6c6c 	cmnvs	pc, #108, 24	; 0x6c00
 b58:	6165685f 	cmnvs	r5, pc, asr r8
 b5c:	74735f70 	ldrbtvc	r5, [r3], #-3952	; 0xfffff090
 b60:	00747261 	rsbseq	r7, r4, r1, ror #4
 b64:	6464615f 	strbtvs	r6, [r4], #-351	; 0xfffffea1
 b68:	6d6b0072 	stclvs	0, cr0, [fp, #-456]!	; 0xfffffe38
 b6c:	6f6c6c61 	svcvs	0x006c6c61
 b70:	65685f63 	strbvs	r5, [r8, #-3939]!	; 0xfffff09d
 b74:	655f7061 	ldrbvs	r7, [pc, #-97]	; b1b <_start-0x74e5>
 b78:	Address 0x0000000000000b78 is out of bounds.


Disassembly of section .debug_frame:

00000000 <.debug_frame>:
   0:	0000000c 	andeq	r0, r0, ip
   4:	ffffffff 			; <UNDEFINED> instruction: 0xffffffff
   8:	7c020001 	stcvc	0, cr0, [r2], {1}
   c:	000d0c0e 	andeq	r0, sp, lr, lsl #24
  10:	00000024 	andeq	r0, r0, r4, lsr #32
  14:	00000000 	andeq	r0, r0, r0
  18:	00008010 	andeq	r8, r0, r0, lsl r0
  1c:	000000d0 	ldrdeq	r0, [r0], -r0	; <UNPREDICTABLE>
  20:	84100e42 	ldrhi	r0, [r0], #-3650	; 0xfffff1be
  24:	86038504 	strhi	r8, [r3], -r4, lsl #10
  28:	42018e02 	andmi	r8, r1, #2, 28
  2c:	4402180e 	strmi	r1, [r2], #-2062	; 0xfffff7f2
  30:	42100e0a 	andsmi	r0, r0, #10, 28	; 0xa0
  34:	0000000b 	andeq	r0, r0, fp
  38:	0000000c 	andeq	r0, r0, ip
  3c:	ffffffff 			; <UNDEFINED> instruction: 0xffffffff
  40:	7c020001 	stcvc	0, cr0, [r2], {1}
  44:	000d0c0e 	andeq	r0, sp, lr, lsl #24
  48:	0000000c 	andeq	r0, r0, ip
  4c:	00000038 	andeq	r0, r0, r8, lsr r0
  50:	000080e0 	andeq	r8, r0, r0, ror #1
  54:	00000008 	andeq	r0, r0, r8
  58:	00000014 	andeq	r0, r0, r4, lsl r0
  5c:	00000038 	andeq	r0, r0, r8, lsr r0
  60:	000080e8 	andeq	r8, r0, r8, ror #1
  64:	00000010 	andeq	r0, r0, r0, lsl r0
  68:	84080e42 	strhi	r0, [r8], #-3650	; 0xfffff1be
  6c:	00018e02 	andeq	r8, r1, r2, lsl #28
  70:	00000014 	andeq	r0, r0, r4, lsl r0
  74:	00000038 	andeq	r0, r0, r8, lsr r0
  78:	000080f8 	strdeq	r8, [r0], -r8	; <UNPREDICTABLE>
  7c:	00000018 	andeq	r0, r0, r8, lsl r0
  80:	84080e42 	strhi	r0, [r8], #-3650	; 0xfffff1be
  84:	00018e02 	andeq	r8, r1, r2, lsl #28
  88:	0000000c 	andeq	r0, r0, ip
  8c:	00000038 	andeq	r0, r0, r8, lsr r0
  90:	00008110 	andeq	r8, r0, r0, lsl r1
  94:	0000000c 	andeq	r0, r0, ip
  98:	0000000c 	andeq	r0, r0, ip
  9c:	00000038 	andeq	r0, r0, r8, lsr r0
  a0:	0000811c 	andeq	r8, r0, ip, lsl r1
  a4:	00000008 	andeq	r0, r0, r8
  a8:	0000001c 	andeq	r0, r0, ip, lsl r0
  ac:	00000038 	andeq	r0, r0, r8, lsr r0
  b0:	00008124 	andeq	r8, r0, r4, lsr #2
  b4:	0000010c 	andeq	r0, r0, ip, lsl #2
  b8:	84180e42 	ldrhi	r0, [r8], #-3650	; 0xfffff1be
  bc:	86058506 	strhi	r8, [r5], -r6, lsl #10
  c0:	88038704 	stmdahi	r3, {r2, r8, r9, sl, pc}
  c4:	00018e02 	andeq	r8, r1, r2, lsl #28
  c8:	00000014 	andeq	r0, r0, r4, lsl r0
  cc:	00000038 	andeq	r0, r0, r8, lsr r0
  d0:	00008230 	andeq	r8, r0, r0, lsr r2
  d4:	00000014 	andeq	r0, r0, r4, lsl r0
  d8:	84080e42 	strhi	r0, [r8], #-3650	; 0xfffff1be
  dc:	00018e02 	andeq	r8, r1, r2, lsl #28
  e0:	00000018 	andeq	r0, r0, r8, lsl r0
  e4:	00000038 	andeq	r0, r0, r8, lsr r0
  e8:	00008244 	andeq	r8, r0, r4, asr #4
  ec:	00000024 	andeq	r0, r0, r4, lsr #32
  f0:	84100e42 	ldrhi	r0, [r0], #-3650	; 0xfffff1be
  f4:	86038504 	strhi	r8, [r3], -r4, lsl #10
  f8:	00018e02 	andeq	r8, r1, r2, lsl #28
  fc:	00000018 	andeq	r0, r0, r8, lsl r0
 100:	00000038 	andeq	r0, r0, r8, lsr r0
 104:	00008268 	andeq	r8, r0, r8, ror #4
 108:	000000f4 	strdeq	r0, [r0], -r4
 10c:	84100e42 	ldrhi	r0, [r0], #-3650	; 0xfffff1be
 110:	86038504 	strhi	r8, [r3], -r4, lsl #10
 114:	00018e02 	andeq	r8, r1, r2, lsl #28
 118:	0000001c 	andeq	r0, r0, ip, lsl r0
 11c:	00000038 	andeq	r0, r0, r8, lsr r0
 120:	0000835c 	andeq	r8, r0, ip, asr r3
 124:	00000108 	andeq	r0, r0, r8, lsl #2
 128:	84180e42 	ldrhi	r0, [r8], #-3650	; 0xfffff1be
 12c:	86058506 	strhi	r8, [r5], -r6, lsl #10
 130:	88038704 	stmdahi	r3, {r2, r8, r9, sl, pc}
 134:	00018e02 	andeq	r8, r1, r2, lsl #28
 138:	00000018 	andeq	r0, r0, r8, lsl r0
 13c:	00000038 	andeq	r0, r0, r8, lsr r0
 140:	00008464 	andeq	r8, r0, r4, ror #8
 144:	00000064 	andeq	r0, r0, r4, rrx
 148:	84100e42 	ldrhi	r0, [r0], #-3650	; 0xfffff1be
 14c:	86038504 	strhi	r8, [r3], -r4, lsl #10
 150:	00018e02 	andeq	r8, r1, r2, lsl #28
 154:	00000018 	andeq	r0, r0, r8, lsl r0
 158:	00000038 	andeq	r0, r0, r8, lsr r0
 15c:	000084c8 	andeq	r8, r0, r8, asr #9
 160:	00000074 	andeq	r0, r0, r4, ror r0
 164:	84100e42 	ldrhi	r0, [r0], #-3650	; 0xfffff1be
 168:	86038504 	strhi	r8, [r3], -r4, lsl #10
 16c:	00018e02 	andeq	r8, r1, r2, lsl #28
 170:	0000001c 	andeq	r0, r0, ip, lsl r0
 174:	00000038 	andeq	r0, r0, r8, lsr r0
 178:	0000853c 	andeq	r8, r0, ip, lsr r5
 17c:	000000b8 	strheq	r0, [r0], -r8
 180:	84180e42 	ldrhi	r0, [r8], #-3650	; 0xfffff1be
 184:	86058506 	strhi	r8, [r5], -r6, lsl #10
 188:	88038704 	stmdahi	r3, {r2, r8, r9, sl, pc}
 18c:	00018e02 	andeq	r8, r1, r2, lsl #28
 190:	00000028 	andeq	r0, r0, r8, lsr #32
 194:	00000038 	andeq	r0, r0, r8, lsr r0
 198:	000085f4 	strdeq	r8, [r0], -r4
 19c:	00000218 	andeq	r0, r0, r8, lsl r2
 1a0:	841c0e42 	ldrhi	r0, [ip], #-3650	; 0xfffff1be
 1a4:	86068507 	strhi	r8, [r6], -r7, lsl #10
 1a8:	88048705 	stmdahi	r4, {r0, r2, r8, r9, sl, pc}
 1ac:	8e028903 	vmlahi.f16	s16, s4, s6	; <UNPREDICTABLE>
 1b0:	280e4201 	stmdacs	lr, {r0, r9, lr}
 1b4:	0e0a8c02 	cdpeq	12, 0, cr8, cr10, cr2, {0}
 1b8:	000b421c 	andeq	r4, fp, ip, lsl r2
 1bc:	0000001c 	andeq	r0, r0, ip, lsl r0
 1c0:	00000038 	andeq	r0, r0, r8, lsr r0
 1c4:	0000880c 	andeq	r8, r0, ip, lsl #16
 1c8:	0000014c 	andeq	r0, r0, ip, asr #2
 1cc:	84180e42 	ldrhi	r0, [r8], #-3650	; 0xfffff1be
 1d0:	86058506 	strhi	r8, [r5], -r6, lsl #10
 1d4:	88038704 	stmdahi	r3, {r2, r8, r9, sl, pc}
 1d8:	00018e02 	andeq	r8, r1, r2, lsl #28
 1dc:	0000000c 	andeq	r0, r0, ip
 1e0:	ffffffff 			; <UNDEFINED> instruction: 0xffffffff
 1e4:	7c020001 	stcvc	0, cr0, [r2], {1}
 1e8:	000d0c0e 	andeq	r0, sp, lr, lsl #24
 1ec:	00000034 	andeq	r0, r0, r4, lsr r0
 1f0:	000001dc 	ldrdeq	r0, [r0], -ip
 1f4:	00008958 	andeq	r8, r0, r8, asr r9
 1f8:	00000058 	andeq	r0, r0, r8, asr r0
 1fc:	80100e42 	andshi	r0, r0, r2, asr #28
 200:	82038104 	andhi	r8, r3, #4, 2
 204:	42018302 	andmi	r8, r1, #134217728	; 0x8000000
 208:	07841c0e 	streq	r1, [r4, lr, lsl #24]
 20c:	058e0685 	streq	r0, [lr, #1669]	; 0x685
 210:	5c280e42 	stcpl	14, cr0, [r8], #-264	; 0xfffffef8
 214:	ce421c0e 	cdpgt	12, 4, cr1, cr2, cr14, {0}
 218:	100ec4c5 	andne	ip, lr, r5, asr #9
 21c:	c1c2c342 	bicgt	ip, r2, r2, asr #6
 220:	00000ec0 	andeq	r0, r0, r0, asr #29
 224:	0000000c 	andeq	r0, r0, ip
 228:	ffffffff 			; <UNDEFINED> instruction: 0xffffffff
 22c:	7c020001 	stcvc	0, cr0, [r2], {1}
 230:	000d0c0e 	andeq	r0, sp, lr, lsl #24
 234:	0000000c 	andeq	r0, r0, ip
 238:	00000224 	andeq	r0, r0, r4, lsr #4
 23c:	000089b0 			; <UNDEFINED> instruction: 0x000089b0
 240:	00000014 	andeq	r0, r0, r4, lsl r0
 244:	0000000c 	andeq	r0, r0, ip
 248:	00000224 	andeq	r0, r0, r4, lsr #4
 24c:	000089c4 	andeq	r8, r0, r4, asr #19
 250:	0000002c 	andeq	r0, r0, ip, lsr #32
 254:	0000000c 	andeq	r0, r0, ip
 258:	00000224 	andeq	r0, r0, r4, lsr #4
 25c:	000089f0 	strdeq	r8, [r0], -r0
 260:	00000040 	andeq	r0, r0, r0, asr #32
 264:	00000024 	andeq	r0, r0, r4, lsr #32
 268:	00000224 	andeq	r0, r0, r4, lsr #4
 26c:	00008a30 	andeq	r8, r0, r0, lsr sl
 270:	000001b0 			; <UNDEFINED> instruction: 0x000001b0
 274:	84140e42 	ldrhi	r0, [r4], #-3650	; 0xfffff1be
 278:	86048505 	strhi	r8, [r4], -r5, lsl #10
 27c:	8e028703 	cdphi	7, 0, cr8, cr2, cr3, {0}
 280:	580e4201 	stmdapl	lr, {r0, r9, lr}
 284:	0e0a9c02 	cdpeq	12, 0, cr9, cr10, cr2, {0}
 288:	000b4214 	andeq	r4, fp, r4, lsl r2
 28c:	00000014 	andeq	r0, r0, r4, lsl r0
 290:	00000224 	andeq	r0, r0, r4, lsr #4
 294:	00008be0 	andeq	r8, r0, r0, ror #23
 298:	00000054 	andeq	r0, r0, r4, asr r0
 29c:	84080e52 	strhi	r0, [r8], #-3666	; 0xfffff1ae
 2a0:	00018e02 	andeq	r8, r1, r2, lsl #28
 2a4:	00000028 	andeq	r0, r0, r8, lsr #32
 2a8:	00000224 	andeq	r0, r0, r4, lsr #4
 2ac:	00008c34 	andeq	r8, r0, r4, lsr ip
 2b0:	000002c0 	andeq	r0, r0, r0, asr #5
 2b4:	841c0e42 	ldrhi	r0, [ip], #-3650	; 0xfffff1be
 2b8:	86068507 	strhi	r8, [r6], -r7, lsl #10
 2bc:	88048705 	stmdahi	r4, {r0, r2, r8, r9, sl, pc}
 2c0:	8e028903 	vmlahi.f16	s16, s4, s6	; <UNPREDICTABLE>
 2c4:	b00e4201 	andlt	r4, lr, r1, lsl #4
 2c8:	01500301 	cmpeq	r0, r1, lsl #6
 2cc:	00001c0e 	andeq	r1, r0, lr, lsl #24
 2d0:	0000000c 	andeq	r0, r0, ip
 2d4:	ffffffff 			; <UNDEFINED> instruction: 0xffffffff
 2d8:	7c020001 	stcvc	0, cr0, [r2], {1}
 2dc:	000d0c0e 	andeq	r0, sp, lr, lsl #24
 2e0:	00000018 	andeq	r0, r0, r8, lsl r0
 2e4:	000002d0 	ldrdeq	r0, [r0], -r0	; <UNPREDICTABLE>
 2e8:	00008ef4 	strdeq	r8, [r0], -r4
 2ec:	000000e8 	andeq	r0, r0, r8, ror #1
 2f0:	8e040e48 	cdphi	14, 0, cr0, cr4, cr8, {2}
 2f4:	0e680201 	cdpeq	2, 6, cr0, cr8, cr1, {0}
 2f8:	0000ce00 	andeq	ip, r0, r0, lsl #28
 2fc:	0000000c 	andeq	r0, r0, ip
 300:	ffffffff 			; <UNDEFINED> instruction: 0xffffffff
 304:	7c020001 	stcvc	0, cr0, [r2], {1}
 308:	000d0c0e 	andeq	r0, sp, lr, lsl #24
 30c:	00000014 	andeq	r0, r0, r4, lsl r0
 310:	000002fc 	strdeq	r0, [r0], -ip
 314:	00008fdc 	ldrdeq	r8, [r0], -ip
 318:	00000034 	andeq	r0, r0, r4, lsr r0
 31c:	84080e42 	strhi	r0, [r8], #-3650	; 0xfffff1be
 320:	00018e02 	andeq	r8, r1, r2, lsl #28
 324:	0000000c 	andeq	r0, r0, ip
 328:	ffffffff 			; <UNDEFINED> instruction: 0xffffffff
 32c:	7c020001 	stcvc	0, cr0, [r2], {1}
 330:	000d0c0e 	andeq	r0, sp, lr, lsl #24
 334:	00000014 	andeq	r0, r0, r4, lsl r0
 338:	00000324 	andeq	r0, r0, r4, lsr #6
 33c:	00009010 	andeq	r9, r0, r0, lsl r0
 340:	00000014 	andeq	r0, r0, r4, lsl r0
 344:	84080e42 	strhi	r0, [r8], #-3650	; 0xfffff1be
 348:	00018e02 	andeq	r8, r1, r2, lsl #28
 34c:	0000000c 	andeq	r0, r0, ip
 350:	00000324 	andeq	r0, r0, r4, lsr #6
 354:	00009024 	andeq	r9, r0, r4, lsr #32
 358:	00000018 	andeq	r0, r0, r8, lsl r0
 35c:	0000000c 	andeq	r0, r0, ip
 360:	00000324 	andeq	r0, r0, r4, lsr #6
 364:	0000903c 	andeq	r9, r0, ip, lsr r0
 368:	00000010 	andeq	r0, r0, r0, lsl r0
 36c:	0000000c 	andeq	r0, r0, ip
 370:	ffffffff 			; <UNDEFINED> instruction: 0xffffffff
 374:	7c020001 	stcvc	0, cr0, [r2], {1}
 378:	000d0c0e 	andeq	r0, sp, lr, lsl #24
 37c:	0000000c 	andeq	r0, r0, ip
 380:	0000036c 	andeq	r0, r0, ip, ror #6
 384:	0000904c 	andeq	r9, r0, ip, asr #32
 388:	00000020 	andeq	r0, r0, r0, lsr #32
 38c:	0000000c 	andeq	r0, r0, ip
 390:	ffffffff 			; <UNDEFINED> instruction: 0xffffffff
 394:	7c020001 	stcvc	0, cr0, [r2], {1}
 398:	000d0c0e 	andeq	r0, sp, lr, lsl #24
 39c:	00000014 	andeq	r0, r0, r4, lsl r0
 3a0:	0000038c 	andeq	r0, r0, ip, lsl #7
 3a4:	0000906c 	andeq	r9, r0, ip, rrx
 3a8:	00000034 	andeq	r0, r0, r4, lsr r0
 3ac:	84080e42 	strhi	r0, [r8], #-3650	; 0xfffff1be
 3b0:	00018e02 	andeq	r8, r1, r2, lsl #28
 3b4:	0000000c 	andeq	r0, r0, ip
 3b8:	ffffffff 			; <UNDEFINED> instruction: 0xffffffff
 3bc:	7c020001 	stcvc	0, cr0, [r2], {1}
 3c0:	000d0c0e 	andeq	r0, sp, lr, lsl #24
 3c4:	0000000c 	andeq	r0, r0, ip
 3c8:	000003b4 			; <UNDEFINED> instruction: 0x000003b4
 3cc:	000090a0 	andeq	r9, r0, r0, lsr #1
 3d0:	00000018 	andeq	r0, r0, r8, lsl r0
 3d4:	0000000c 	andeq	r0, r0, ip
 3d8:	000003b4 			; <UNDEFINED> instruction: 0x000003b4
 3dc:	000090b8 	strheq	r9, [r0], -r8
 3e0:	00000014 	andeq	r0, r0, r4, lsl r0
 3e4:	00000014 	andeq	r0, r0, r4, lsl r0
 3e8:	000003b4 			; <UNDEFINED> instruction: 0x000003b4
 3ec:	000090cc 	andeq	r9, r0, ip, asr #1
 3f0:	0000004c 	andeq	r0, r0, ip, asr #32
 3f4:	84080e42 	strhi	r0, [r8], #-3650	; 0xfffff1be
 3f8:	00018e02 	andeq	r8, r1, r2, lsl #28
 3fc:	0000000c 	andeq	r0, r0, ip
 400:	ffffffff 			; <UNDEFINED> instruction: 0xffffffff
 404:	7c020001 	stcvc	0, cr0, [r2], {1}
 408:	000d0c0e 	andeq	r0, sp, lr, lsl #24
 40c:	00000014 	andeq	r0, r0, r4, lsl r0
 410:	000003fc 	strdeq	r0, [r0], -ip
 414:	00009118 	andeq	r9, r0, r8, lsl r1
 418:	00000028 	andeq	r0, r0, r8, lsr #32
 41c:	84080e42 	strhi	r0, [r8], #-3650	; 0xfffff1be
 420:	00018e02 	andeq	r8, r1, r2, lsl #28
 424:	0000000c 	andeq	r0, r0, ip
 428:	ffffffff 			; <UNDEFINED> instruction: 0xffffffff
 42c:	7c020001 	stcvc	0, cr0, [r2], {1}
 430:	000d0c0e 	andeq	r0, sp, lr, lsl #24
 434:	0000000c 	andeq	r0, r0, ip
 438:	00000424 	andeq	r0, r0, r4, lsr #8
 43c:	00009140 	andeq	r9, r0, r0, asr #2
 440:	0000001c 	andeq	r0, r0, ip, lsl r0
 444:	00000014 	andeq	r0, r0, r4, lsl r0
 448:	00000424 	andeq	r0, r0, r4, lsr #8
 44c:	0000915c 	andeq	r9, r0, ip, asr r1
 450:	00000014 	andeq	r0, r0, r4, lsl r0
 454:	84080e42 	strhi	r0, [r8], #-3650	; 0xfffff1be
 458:	00018e02 	andeq	r8, r1, r2, lsl #28
 45c:	00000014 	andeq	r0, r0, r4, lsl r0
 460:	00000424 	andeq	r0, r0, r4, lsr #8
 464:	00009170 	andeq	r9, r0, r0, ror r1
 468:	0000000c 	andeq	r0, r0, ip
 46c:	84080e42 	strhi	r0, [r8], #-3650	; 0xfffff1be
 470:	00018e02 	andeq	r8, r1, r2, lsl #28
 474:	00000018 	andeq	r0, r0, r8, lsl r0
 478:	00000424 	andeq	r0, r0, r4, lsr #8
 47c:	0000917c 	andeq	r9, r0, ip, ror r1
 480:	00000024 	andeq	r0, r0, r4, lsr #32
 484:	84100e42 	ldrhi	r0, [r0], #-3650	; 0xfffff1be
 488:	86038504 	strhi	r8, [r3], -r4, lsl #10
 48c:	00018e02 	andeq	r8, r1, r2, lsl #28
 490:	00000014 	andeq	r0, r0, r4, lsl r0
 494:	00000424 	andeq	r0, r0, r4, lsr #8
 498:	000091a0 	andeq	r9, r0, r0, lsr #3
 49c:	00000014 	andeq	r0, r0, r4, lsl r0
 4a0:	84080e42 	strhi	r0, [r8], #-3650	; 0xfffff1be
 4a4:	00018e02 	andeq	r8, r1, r2, lsl #28
 4a8:	00000014 	andeq	r0, r0, r4, lsl r0
 4ac:	00000424 	andeq	r0, r0, r4, lsr #8
 4b0:	000091b4 			; <UNDEFINED> instruction: 0x000091b4
 4b4:	00000014 	andeq	r0, r0, r4, lsl r0
 4b8:	84080e42 	strhi	r0, [r8], #-3650	; 0xfffff1be
 4bc:	00018e02 	andeq	r8, r1, r2, lsl #28
 4c0:	0000000c 	andeq	r0, r0, ip
 4c4:	ffffffff 			; <UNDEFINED> instruction: 0xffffffff
 4c8:	7c020001 	stcvc	0, cr0, [r2], {1}
 4cc:	000d0c0e 	andeq	r0, sp, lr, lsl #24
 4d0:	00000018 	andeq	r0, r0, r8, lsl r0
 4d4:	000004c0 	andeq	r0, r0, r0, asr #9
 4d8:	00009214 	andeq	r9, r0, r4, lsl r2
 4dc:	00000020 	andeq	r0, r0, r0, lsr #32
 4e0:	84100e42 	ldrhi	r0, [r0], #-3650	; 0xfffff1be
 4e4:	86038504 	strhi	r8, [r3], -r4, lsl #10
 4e8:	00018e02 	andeq	r8, r1, r2, lsl #28
 4ec:	00000014 	andeq	r0, r0, r4, lsl r0
 4f0:	000004c0 	andeq	r0, r0, r0, asr #9
 4f4:	00009234 	andeq	r9, r0, r4, lsr r2
 4f8:	000000b0 	strheq	r0, [r0], -r0	; <UNPREDICTABLE>
 4fc:	84080e42 	strhi	r0, [r8], #-3650	; 0xfffff1be
 500:	00018e02 	andeq	r8, r1, r2, lsl #28
 504:	00000014 	andeq	r0, r0, r4, lsl r0
 508:	000004c0 	andeq	r0, r0, r0, asr #9
 50c:	000092e4 	andeq	r9, r0, r4, ror #5
 510:	00000018 	andeq	r0, r0, r8, lsl r0
 514:	84080e42 	strhi	r0, [r8], #-3650	; 0xfffff1be
 518:	00018e02 	andeq	r8, r1, r2, lsl #28
 51c:	00000014 	andeq	r0, r0, r4, lsl r0
 520:	000004c0 	andeq	r0, r0, r0, asr #9
 524:	000092fc 	strdeq	r9, [r0], -ip
 528:	00000020 	andeq	r0, r0, r0, lsr #32
 52c:	84080e42 	strhi	r0, [r8], #-3650	; 0xfffff1be
 530:	00018e02 	andeq	r8, r1, r2, lsl #28
 534:	00000014 	andeq	r0, r0, r4, lsl r0
 538:	000004c0 	andeq	r0, r0, r0, asr #9
 53c:	0000931c 	andeq	r9, r0, ip, lsl r3
 540:	00000030 	andeq	r0, r0, r0, lsr r0
 544:	84080e42 	strhi	r0, [r8], #-3650	; 0xfffff1be
 548:	00018e02 	andeq	r8, r1, r2, lsl #28
 54c:	00000014 	andeq	r0, r0, r4, lsl r0
 550:	000004c0 	andeq	r0, r0, r0, asr #9
 554:	0000934c 	andeq	r9, r0, ip, asr #6
 558:	00000030 	andeq	r0, r0, r0, lsr r0
 55c:	84080e42 	strhi	r0, [r8], #-3650	; 0xfffff1be
 560:	00018e02 	andeq	r8, r1, r2, lsl #28
 564:	00000014 	andeq	r0, r0, r4, lsl r0
 568:	000004c0 	andeq	r0, r0, r0, asr #9
 56c:	0000937c 	andeq	r9, r0, ip, ror r3
 570:	00000010 	andeq	r0, r0, r0, lsl r0
 574:	84080e42 	strhi	r0, [r8], #-3650	; 0xfffff1be
 578:	00018e02 	andeq	r8, r1, r2, lsl #28
 57c:	0000000c 	andeq	r0, r0, ip
 580:	ffffffff 			; <UNDEFINED> instruction: 0xffffffff
 584:	7c020001 	stcvc	0, cr0, [r2], {1}
 588:	000d0c0e 	andeq	r0, sp, lr, lsl #24
 58c:	00000018 	andeq	r0, r0, r8, lsl r0
 590:	0000057c 	andeq	r0, r0, ip, ror r5
 594:	0000938c 	andeq	r9, r0, ip, lsl #7
 598:	00000068 	andeq	r0, r0, r8, rrx
 59c:	84100e4a 	ldrhi	r0, [r0], #-3658	; 0xfffff1b6
 5a0:	86038504 	strhi	r8, [r3], -r4, lsl #10
 5a4:	00018e02 	andeq	r8, r1, r2, lsl #28
 5a8:	00000014 	andeq	r0, r0, r4, lsl r0
 5ac:	0000057c 	andeq	r0, r0, ip, ror r5
 5b0:	000093f4 	strdeq	r9, [r0], -r4
 5b4:	00000010 	andeq	r0, r0, r0, lsl r0
 5b8:	84080e42 	strhi	r0, [r8], #-3650	; 0xfffff1be
 5bc:	00018e02 	andeq	r8, r1, r2, lsl #28
 5c0:	00000014 	andeq	r0, r0, r4, lsl r0
 5c4:	0000057c 	andeq	r0, r0, ip, ror r5
 5c8:	00009404 	andeq	r9, r0, r4, lsl #8
 5cc:	00000024 	andeq	r0, r0, r4, lsr #32
 5d0:	84080e46 	strhi	r0, [r8], #-3654	; 0xfffff1ba
 5d4:	00018e02 	andeq	r8, r1, r2, lsl #28
 5d8:	00000014 	andeq	r0, r0, r4, lsl r0
 5dc:	0000057c 	andeq	r0, r0, ip, ror r5
 5e0:	00009428 	andeq	r9, r0, r8, lsr #8
 5e4:	00000024 	andeq	r0, r0, r4, lsr #32
 5e8:	84080e46 	strhi	r0, [r8], #-3654	; 0xfffff1ba
 5ec:	00018e02 	andeq	r8, r1, r2, lsl #28
 5f0:	00000014 	andeq	r0, r0, r4, lsl r0
 5f4:	0000057c 	andeq	r0, r0, ip, ror r5
 5f8:	0000944c 	andeq	r9, r0, ip, asr #8
 5fc:	00000010 	andeq	r0, r0, r0, lsl r0
 600:	84080e42 	strhi	r0, [r8], #-3650	; 0xfffff1be
 604:	00018e02 	andeq	r8, r1, r2, lsl #28
 608:	00000014 	andeq	r0, r0, r4, lsl r0
 60c:	0000057c 	andeq	r0, r0, ip, ror r5
 610:	0000945c 	andeq	r9, r0, ip, asr r4
 614:	0000001c 	andeq	r0, r0, ip, lsl r0
 618:	84080e42 	strhi	r0, [r8], #-3650	; 0xfffff1be
 61c:	00018e02 	andeq	r8, r1, r2, lsl #28
 620:	00000018 	andeq	r0, r0, r8, lsl r0
 624:	0000057c 	andeq	r0, r0, ip, ror r5
 628:	00009478 	andeq	r9, r0, r8, ror r4
 62c:	00000034 	andeq	r0, r0, r4, lsr r0
 630:	84080e46 	strhi	r0, [r8], #-3654	; 0xfffff1ba
 634:	4e018e02 	cdpmi	14, 0, cr8, cr1, cr2, {0}
 638:	cec4000e 	cdpgt	0, 12, cr0, cr4, cr14, {0}
 63c:	0000000c 	andeq	r0, r0, ip
 640:	ffffffff 			; <UNDEFINED> instruction: 0xffffffff
 644:	7c020001 	stcvc	0, cr0, [r2], {1}
 648:	000d0c0e 	andeq	r0, sp, lr, lsl #24
 64c:	0000000c 	andeq	r0, r0, ip
 650:	0000063c 	andeq	r0, r0, ip, lsr r6
 654:	000094ac 	andeq	r9, r0, ip, lsr #9
 658:	00000010 	andeq	r0, r0, r0, lsl r0
 65c:	0000000c 	andeq	r0, r0, ip
 660:	0000063c 	andeq	r0, r0, ip, lsr r6
 664:	000094bc 			; <UNDEFINED> instruction: 0x000094bc
 668:	0000000c 	andeq	r0, r0, ip
 66c:	00000014 	andeq	r0, r0, r4, lsl r0
 670:	0000063c 	andeq	r0, r0, ip, lsr r6
 674:	000094c8 	andeq	r9, r0, r8, asr #9
 678:	00000050 	andeq	r0, r0, r0, asr r0
 67c:	84080e52 	strhi	r0, [r8], #-3666	; 0xfffff1ae
 680:	00018e02 	andeq	r8, r1, r2, lsl #28
 684:	00000014 	andeq	r0, r0, r4, lsl r0
 688:	0000063c 	andeq	r0, r0, ip, lsr r6
 68c:	00009518 	andeq	r9, r0, r8, lsl r5
 690:	00000064 	andeq	r0, r0, r4, rrx
 694:	84080e42 	strhi	r0, [r8], #-3650	; 0xfffff1be
 698:	00018e02 	andeq	r8, r1, r2, lsl #28
 69c:	0000000c 	andeq	r0, r0, ip
 6a0:	0000063c 	andeq	r0, r0, ip, lsr r6
 6a4:	0000957c 	andeq	r9, r0, ip, ror r5
 6a8:	00000004 	andeq	r0, r0, r4
 6ac:	00000014 	andeq	r0, r0, r4, lsl r0
 6b0:	0000063c 	andeq	r0, r0, ip, lsr r6
 6b4:	00009580 	andeq	r9, r0, r0, lsl #11
 6b8:	0000000c 	andeq	r0, r0, ip
 6bc:	84080e42 	strhi	r0, [r8], #-3650	; 0xfffff1be
 6c0:	00018e02 	andeq	r8, r1, r2, lsl #28
 6c4:	00000014 	andeq	r0, r0, r4, lsl r0
 6c8:	0000063c 	andeq	r0, r0, ip, lsr r6
 6cc:	0000958c 	andeq	r9, r0, ip, lsl #11
 6d0:	0000008c 	andeq	r0, r0, ip, lsl #1
 6d4:	84080e42 	strhi	r0, [r8], #-3650	; 0xfffff1be
 6d8:	00018e02 	andeq	r8, r1, r2, lsl #28
 6dc:	0000000c 	andeq	r0, r0, ip
 6e0:	0000063c 	andeq	r0, r0, ip, lsr r6
 6e4:	00009618 	andeq	r9, r0, r8, lsl r6
 6e8:	00000004 	andeq	r0, r0, r4
 6ec:	0000000c 	andeq	r0, r0, ip
 6f0:	0000063c 	andeq	r0, r0, ip, lsr r6
 6f4:	0000961c 	andeq	r9, r0, ip, lsl r6
 6f8:	00000014 	andeq	r0, r0, r4, lsl r0
 6fc:	0000000c 	andeq	r0, r0, ip
 700:	0000063c 	andeq	r0, r0, ip, lsr r6
 704:	00009630 	andeq	r9, r0, r0, lsr r6
 708:	00000010 	andeq	r0, r0, r0, lsl r0

Disassembly of section .debug_ranges:

00000000 <.debug_ranges>:
   0:	000000a0 	andeq	r0, r0, r0, lsr #1
   4:	000000e8 	andeq	r0, r0, r8, ror #1
   8:	00000100 	andeq	r0, r0, r0, lsl #2
   c:	0000012c 	andeq	r0, r0, ip, lsr #2
	...
  18:	000001c4 	andeq	r0, r0, r4, asr #3
  1c:	0000020c 	andeq	r0, r0, ip, lsl #4
  20:	0000022c 	andeq	r0, r0, ip, lsr #4
  24:	00000254 	andeq	r0, r0, r4, asr r2
	...
  30:	000002a4 	andeq	r0, r0, r4, lsr #5
  34:	0000035c 	andeq	r0, r0, ip, asr r3
  38:	00000364 	andeq	r0, r0, r4, ror #6
  3c:	00000368 	andeq	r0, r0, r8, ror #6
	...
  48:	000002dc 	ldrdeq	r0, [r0], -ip
  4c:	00000324 	andeq	r0, r0, r4, lsr #6
  50:	0000032c 	andeq	r0, r0, ip, lsr #6
  54:	00000354 	andeq	r0, r0, r4, asr r3
	...
  60:	00000760 	andeq	r0, r0, r0, ror #14
  64:	00000764 	andeq	r0, r0, r4, ror #14
  68:	0000076c 	andeq	r0, r0, ip, ror #14
  6c:	00000778 	andeq	r0, r0, r8, ror r7
  70:	0000079c 	muleq	r0, ip, r7
  74:	00000848 	andeq	r0, r0, r8, asr #16
	...
  80:	000002d8 	ldrdeq	r0, [r0], -r8
  84:	000002e4 	andeq	r0, r0, r4, ror #5
  88:	000002f4 	strdeq	r0, [r0], -r4
  8c:	00000518 	andeq	r0, r0, r8, lsl r5
	...
  98:	000090a0 	andeq	r9, r0, r0, lsr #1
  9c:	00009118 	andeq	r9, r0, r8, lsl r1
	...
